; Listing generated by Microsoft (R) Optimizing Compiler Version 13.10.3077 

	TITLE	.\src\module\httpDown\LocalGameData.cpp
	.386P
include listing.inc
if @Version gt 510
.model FLAT
else
_TEXT	SEGMENT PARA USE32 PUBLIC 'CODE'
_TEXT	ENDS
_DATA	SEGMENT DWORD USE32 PUBLIC 'DATA'
_DATA	ENDS
CONST	SEGMENT DWORD USE32 PUBLIC 'CONST'
CONST	ENDS
_BSS	SEGMENT DWORD USE32 PUBLIC 'BSS'
_BSS	ENDS
$$SYMBOLS	SEGMENT BYTE USE32 'DEBSYM'
$$SYMBOLS	ENDS
_TLS	SEGMENT DWORD USE32 PUBLIC 'TLS'
_TLS	ENDS
;	COMDAT ??_C@_0P@MDHCGOCC@m_pMemMgr?5?$DN?$DN?50?$AA@
CONST	SEGMENT DWORD USE32 PUBLIC 'CONST'
CONST	ENDS
;	COMDAT ??_C@_0FF@PEBLHPJJ@D?3?2Program?5Files?5?$CIx86?$CJ?2Microsoft@
CONST	SEGMENT DWORD USE32 PUBLIC 'CONST'
CONST	ENDS
;	COMDAT ??_C@_0BK@KICONMKH@pData?9?$DOpStringMgr?5?$DN?$DN?5this?$AA@
CONST	SEGMENT DWORD USE32 PUBLIC 'CONST'
CONST	ENDS
;	COMDAT ??_C@_0CG@HPMMCKHL@?$CI?$CIWORD?$CJ?$CI?$CIDWORD_PTR?$CJ?$CIpsz?$CJ?5?$DO?$DO?516?$CJ?$CJ@
CONST	SEGMENT DWORD USE32 PUBLIC 'CONST'
CONST	ENDS
;	COMDAT ??_C@_04JAADICNI@?5?$DN?1?$FL?$AA@
CONST	SEGMENT DWORD USE32 PUBLIC 'CONST'
CONST	ENDS
;	COMDAT ??_C@_0L@GJIJNDEK@ISO?98859?91?$AA@
CONST	SEGMENT DWORD USE32 PUBLIC 'CONST'
CONST	ENDS
;	COMDAT ??_C@_01JLIPDDHJ@?3?$AA@
CONST	SEGMENT DWORD USE32 PUBLIC 'CONST'
CONST	ENDS
;	COMDAT ??_C@_0EN@IBFBLEEG@D?3?2Program?5Files?5?$CIx86?$CJ?2Microsoft@
CONST	SEGMENT DWORD USE32 PUBLIC 'CONST'
CONST	ENDS
;	COMDAT ??_C@_0BD@OLBABOEK@vector?$DMT?$DO?5too?5long?$AA@
CONST	SEGMENT DWORD USE32 PUBLIC 'CONST'
CONST	ENDS
;	COMDAT ??_C@_0FH@BMBEKJNI@D?3?2Program?5Files?5?$CIx86?$CJ?2Microsoft@
CONST	SEGMENT DWORD USE32 PUBLIC 'CONST'
CONST	ENDS
rdata$r	SEGMENT DWORD USE32 PUBLIC 'CONST'
rdata$r	ENDS
xdata$x	SEGMENT DWORD USE32 PUBLIC 'CONST'
xdata$x	ENDS
text$AFX_COL1	SEGMENT PARA USE32 PUBLIC ''
text$AFX_COL1	ENDS
text$yc	SEGMENT PARA USE32 PUBLIC 'CODE'
text$yc	ENDS
CRT$XCA	SEGMENT DWORD USE32 PUBLIC 'DATA'
CRT$XCA	ENDS
CRT$XCU	SEGMENT DWORD USE32 PUBLIC 'DATA'
CRT$XCU	ENDS
CRT$XCL	SEGMENT DWORD USE32 PUBLIC 'DATA'
CRT$XCL	ENDS
CRT$XCC	SEGMENT DWORD USE32 PUBLIC 'DATA'
CRT$XCC	ENDS
CRT$XCZ	SEGMENT DWORD USE32 PUBLIC 'DATA'
CRT$XCZ	ENDS
text$yd	SEGMENT PARA USE32 PUBLIC 'CODE'
text$yd	ENDS
ATL$__m	SEGMENT DWORD USE32 PUBLIC ''
ATL$__m	ENDS
ATL$__z	SEGMENT DWORD USE32 PUBLIC ''
ATL$__z	ENDS
ATL$__a	SEGMENT DWORD USE32 PUBLIC ''
ATL$__a	ENDS
;	COMDAT ??1IData@@MAE@XZ
_TEXT	SEGMENT PARA USE32 PUBLIC 'CODE'
_TEXT	ENDS
;	COMDAT ?DataAppStart@IData@@UAEXXZ
_TEXT	SEGMENT PARA USE32 PUBLIC 'CODE'
_TEXT	ENDS
;	COMDAT ?DataAppExit@IData@@UAEXXZ
_TEXT	SEGMENT PARA USE32 PUBLIC 'CODE'
_TEXT	ENDS
;	COMDAT ??_GIData@@MAEPAXI@Z
_TEXT	SEGMENT PARA USE32 PUBLIC 'CODE'
_TEXT	ENDS
;	COMDAT ??0OneLocalGame@@QAE@XZ
_TEXT	SEGMENT PARA USE32 PUBLIC 'CODE'
_TEXT	ENDS
;	COMDAT ?clear@OneLocalGame@@QAEXXZ
_TEXT	SEGMENT PARA USE32 PUBLIC 'CODE'
_TEXT	ENDS
;	COMDAT ??1CAtlStringMgr@ATL@@UAE@XZ
_TEXT	SEGMENT PARA USE32 PUBLIC 'CODE'
_TEXT	ENDS
;	COMDAT ?Allocate@CAtlStringMgr@ATL@@UAEPAUCStringData@2@HH@Z
_TEXT	SEGMENT PARA USE32 PUBLIC 'CODE'
_TEXT	ENDS
;	COMDAT ?Free@CAtlStringMgr@ATL@@UAEXPAUCStringData@2@@Z
_TEXT	SEGMENT PARA USE32 PUBLIC 'CODE'
_TEXT	ENDS
;	COMDAT ?Reallocate@CAtlStringMgr@ATL@@UAEPAUCStringData@2@PAU32@HH@Z
_TEXT	SEGMENT PARA USE32 PUBLIC 'CODE'
_TEXT	ENDS
;	COMDAT ?GetNilString@CAtlStringMgr@ATL@@UAEPAUCStringData@2@XZ
_TEXT	SEGMENT PARA USE32 PUBLIC 'CODE'
_TEXT	ENDS
;	COMDAT ?Clone@CAtlStringMgr@ATL@@UAEPAUIAtlStringMgr@2@XZ
_TEXT	SEGMENT PARA USE32 PUBLIC 'CODE'
_TEXT	ENDS
;	COMDAT ??_GCAtlStringMgr@ATL@@UAEPAXI@Z
_TEXT	SEGMENT PARA USE32 PUBLIC 'CODE'
_TEXT	ENDS
;	COMDAT ?CompareStringW@?$ChTraitsOS@_W@ATL@@KGHKKPB_WH0H@Z
_TEXT	SEGMENT PARA USE32 PUBLIC 'CODE'
_TEXT	ENDS
;	COMDAT ?GetStringTypeExW@?$ChTraitsOS@_W@ATL@@KGHKKPB_WHPAG@Z
_TEXT	SEGMENT PARA USE32 PUBLIC 'CODE'
_TEXT	ENDS
;	COMDAT ?lstrcmpiW@?$ChTraitsOS@_W@ATL@@KGHPB_W0@Z
_TEXT	SEGMENT PARA USE32 PUBLIC 'CODE'
_TEXT	ENDS
;	COMDAT ?CharLowerW@?$ChTraitsOS@_W@ATL@@KGPA_WPA_W@Z
_TEXT	SEGMENT PARA USE32 PUBLIC 'CODE'
_TEXT	ENDS
;	COMDAT ?CharUpperW@?$ChTraitsOS@_W@ATL@@KGPA_WPA_W@Z
_TEXT	SEGMENT PARA USE32 PUBLIC 'CODE'
_TEXT	ENDS
;	COMDAT ?strchr@?$ChTraitsOS@_W@ATL@@SAPB_WPB_W_W@Z
_TEXT	SEGMENT PARA USE32 PUBLIC 'CODE'
_TEXT	ENDS
;	COMDAT ?strrchr@?$ChTraitsOS@_W@ATL@@SAPB_WPB_W_W@Z
_TEXT	SEGMENT PARA USE32 PUBLIC 'CODE'
_TEXT	ENDS
;	COMDAT ?_strrev@?$ChTraitsOS@_W@ATL@@SAPA_WPA_W@Z
_TEXT	SEGMENT PARA USE32 PUBLIC 'CODE'
_TEXT	ENDS
;	COMDAT ?strstr@?$ChTraitsOS@_W@ATL@@SAPB_WPB_W0@Z
_TEXT	SEGMENT PARA USE32 PUBLIC 'CODE'
_TEXT	ENDS
;	COMDAT ?strspn@?$ChTraitsOS@_W@ATL@@SAHPB_W0@Z
_TEXT	SEGMENT PARA USE32 PUBLIC 'CODE'
_TEXT	ENDS
;	COMDAT ?strcspn@?$ChTraitsOS@_W@ATL@@SAHPB_W0@Z
_TEXT	SEGMENT PARA USE32 PUBLIC 'CODE'
_TEXT	ENDS
;	COMDAT ?strpbrk@?$ChTraitsOS@_W@ATL@@SAPB_WPB_W0@Z
_TEXT	SEGMENT PARA USE32 PUBLIC 'CODE'
_TEXT	ENDS
;	COMDAT ?StringFindString@?$ChTraitsOS@_W@ATL@@SAPB_WPB_W0@Z
_TEXT	SEGMENT PARA USE32 PUBLIC 'CODE'
_TEXT	ENDS
;	COMDAT ??0CMarkup@@QAE@XZ
_TEXT	SEGMENT PARA USE32 PUBLIC 'CODE'
_TEXT	ENDS
;	COMDAT ??1CMarkup@@UAE@XZ
_TEXT	SEGMENT PARA USE32 PUBLIC 'CODE'
_TEXT	ENDS
;	COMDAT ?AddElem@CMarkup@@QAE_NPBD0@Z
_TEXT	SEGMENT PARA USE32 PUBLIC 'CODE'
_TEXT	ENDS
;	COMDAT ?AddChildElem@CMarkup@@QAE_NPBD0@Z
_TEXT	SEGMENT PARA USE32 PUBLIC 'CODE'
_TEXT	ENDS
;	COMDAT ?SetAttrib@CMarkup@@QAE_NPBD0@Z
_TEXT	SEGMENT PARA USE32 PUBLIC 'CODE'
_TEXT	ENDS
;	COMDAT ?ResetPos@CMarkup@@QAEXXZ
_TEXT	SEGMENT PARA USE32 PUBLIC 'CODE'
_TEXT	ENDS
;	COMDAT ?GetAttrib@CMarkup@@QBE?AV?$CStringT@DV?$StrTraitMFC_DLL@DV?$ChTraitsCRT@D@ATL@@@@@ATL@@PBD@Z
_TEXT	SEGMENT PARA USE32 PUBLIC 'CODE'
_TEXT	ENDS
;	COMDAT ??0ElemPos@CMarkup@@QAE@XZ
_TEXT	SEGMENT PARA USE32 PUBLIC 'CODE'
_TEXT	ENDS
;	COMDAT ?Clear@ElemPos@CMarkup@@QAEXXZ
_TEXT	SEGMENT PARA USE32 PUBLIC 'CODE'
_TEXT	ENDS
;	COMDAT ?Clear@TokenPos@CMarkup@@QAEXXZ
_TEXT	SEGMENT PARA USE32 PUBLIC 'CODE'
_TEXT	ENDS
;	COMDAT ?x_SetPos@CMarkup@@IAEXHHH@Z
_TEXT	SEGMENT PARA USE32 PUBLIC 'CODE'
_TEXT	ENDS
;	COMDAT ??_GCMarkup@@UAEPAXI@Z
_TEXT	SEGMENT PARA USE32 PUBLIC 'CODE'
_TEXT	ENDS
;	COMDAT ??0CMarkupArchive@@QAE@K@Z
_TEXT	SEGMENT PARA USE32 PUBLIC 'CODE'
_TEXT	ENDS
;	COMDAT ?AddElem@CMarkupArchive@@UAE_NPBD0@Z
_TEXT	SEGMENT PARA USE32 PUBLIC 'CODE'
_TEXT	ENDS
;	COMDAT ?AddChildElem@CMarkupArchive@@UAE_NPBD0@Z
_TEXT	SEGMENT PARA USE32 PUBLIC 'CODE'
_TEXT	ENDS
;	COMDAT ?FindElem@CMarkupArchive@@UAE_NPBD@Z
_TEXT	SEGMENT PARA USE32 PUBLIC 'CODE'
_TEXT	ENDS
;	COMDAT ?FindChildElem@CMarkupArchive@@UAE_NPBD@Z
_TEXT	SEGMENT PARA USE32 PUBLIC 'CODE'
_TEXT	ENDS
;	COMDAT ??_GCMarkupArchive@@UAEPAXI@Z
_TEXT	SEGMENT PARA USE32 PUBLIC 'CODE'
_TEXT	ENDS
;	COMDAT ??0LocalGameData@@QAE@XZ
_TEXT	SEGMENT PARA USE32 PUBLIC 'CODE'
_TEXT	ENDS
;	COMDAT ??_GLocalGameData@@UAEPAXI@Z
_TEXT	SEGMENT PARA USE32 PUBLIC 'CODE'
_TEXT	ENDS
;	COMDAT ??0ILocalGameData@@QAE@XZ
_TEXT	SEGMENT PARA USE32 PUBLIC 'CODE'
_TEXT	ENDS
;	COMDAT ??1ILocalGameData@@UAE@XZ
_TEXT	SEGMENT PARA USE32 PUBLIC 'CODE'
_TEXT	ENDS
;	COMDAT ??1LocalGameData@@UAE@XZ
_TEXT	SEGMENT PARA USE32 PUBLIC 'CODE'
_TEXT	ENDS
;	COMDAT ??_GILocalGameData@@UAEPAXI@Z
_TEXT	SEGMENT PARA USE32 PUBLIC 'CODE'
_TEXT	ENDS
;	COMDAT ??0IData@@QAE@XZ
_TEXT	SEGMENT PARA USE32 PUBLIC 'CODE'
_TEXT	ENDS
;	COMDAT ??1OneLocalGame@@QAE@XZ
_TEXT	SEGMENT PARA USE32 PUBLIC 'CODE'
_TEXT	ENDS
;	COMDAT ??4OneLocalGame@@QAEAAU0@ABU0@@Z
_TEXT	SEGMENT PARA USE32 PUBLIC 'CODE'
_TEXT	ENDS
;	COMDAT ??HATL@@YA?AV?$CStringT@DV?$StrTraitMFC_DLL@DV?$ChTraitsCRT@D@ATL@@@@@0@ABV10@PBD@Z
_TEXT	SEGMENT PARA USE32 PUBLIC 'CODE'
_TEXT	ENDS
;	COMDAT ??B?$CComPtrBase@UITypeInfo2@@@ATL@@QBEPAUITypeInfo2@@XZ
_TEXT	SEGMENT PARA USE32 PUBLIC 'CODE'
_TEXT	ENDS
;	COMDAT ?equal@?$istreambuf_iterator@DU?$char_traits@D@std@@@std@@QBE_NABV12@@Z
_TEXT	SEGMENT PARA USE32 PUBLIC 'CODE'
_TEXT	ENDS
;	COMDAT ?equal@?$istreambuf_iterator@_WU?$char_traits@_W@std@@@std@@QBE_NABV12@@Z
_TEXT	SEGMENT PARA USE32 PUBLIC 'CODE'
_TEXT	ENDS
;	COMDAT ??0?$vector@UOneLocalGame@@V?$allocator@UOneLocalGame@@@std@@@std@@QAE@XZ
_TEXT	SEGMENT PARA USE32 PUBLIC 'CODE'
_TEXT	ENDS
;	COMDAT ??1?$vector@UOneLocalGame@@V?$allocator@UOneLocalGame@@@std@@@std@@QAE@XZ
_TEXT	SEGMENT PARA USE32 PUBLIC 'CODE'
_TEXT	ENDS
;	COMDAT ?begin@?$vector@UOneLocalGame@@V?$allocator@UOneLocalGame@@@std@@@std@@QAE?AViterator@12@XZ
_TEXT	SEGMENT PARA USE32 PUBLIC 'CODE'
_TEXT	ENDS
;	COMDAT ?end@?$vector@UOneLocalGame@@V?$allocator@UOneLocalGame@@@std@@@std@@QAE?AViterator@12@XZ
_TEXT	SEGMENT PARA USE32 PUBLIC 'CODE'
_TEXT	ENDS
;	COMDAT ?size@?$vector@UOneLocalGame@@V?$allocator@UOneLocalGame@@@std@@@std@@QBEIXZ
_TEXT	SEGMENT PARA USE32 PUBLIC 'CODE'
_TEXT	ENDS
;	COMDAT ?push_back@?$vector@UOneLocalGame@@V?$allocator@UOneLocalGame@@@std@@@std@@QAEXABUOneLocalGame@@@Z
_TEXT	SEGMENT PARA USE32 PUBLIC 'CODE'
_TEXT	ENDS
;	COMDAT ?erase@?$vector@UOneLocalGame@@V?$allocator@UOneLocalGame@@@std@@@std@@QAE?AViterator@12@V312@@Z
_TEXT	SEGMENT PARA USE32 PUBLIC 'CODE'
_TEXT	ENDS
;	COMDAT ?clear@?$vector@UOneLocalGame@@V?$allocator@UOneLocalGame@@@std@@@std@@QAEXXZ
_TEXT	SEGMENT PARA USE32 PUBLIC 'CODE'
_TEXT	ENDS
;	COMDAT ??Diterator@?$vector@UOneLocalGame@@V?$allocator@UOneLocalGame@@@std@@@std@@QBEAAUOneLocalGame@@XZ
_TEXT	SEGMENT PARA USE32 PUBLIC 'CODE'
_TEXT	ENDS
;	COMDAT ??Citerator@?$vector@UOneLocalGame@@V?$allocator@UOneLocalGame@@@std@@@std@@QBEPAUOneLocalGame@@XZ
_TEXT	SEGMENT PARA USE32 PUBLIC 'CODE'
_TEXT	ENDS
;	COMDAT ??Eiterator@?$vector@UOneLocalGame@@V?$allocator@UOneLocalGame@@@std@@@std@@QAE?AV012@H@Z
_TEXT	SEGMENT PARA USE32 PUBLIC 'CODE'
_TEXT	ENDS
;	COMDAT ??9const_iterator@?$vector@UOneLocalGame@@V?$allocator@UOneLocalGame@@@std@@@std@@QBE_NABV012@@Z
_TEXT	SEGMENT PARA USE32 PUBLIC 'CODE'
_TEXT	ENDS
;	COMDAT ??0?$list@PAVIMessageObserver@@V?$allocator@PAVIMessageObserver@@@std@@@std@@QAE@XZ
_TEXT	SEGMENT PARA USE32 PUBLIC 'CODE'
_TEXT	ENDS
;	COMDAT ??1?$list@PAVIMessageObserver@@V?$allocator@PAVIMessageObserver@@@std@@@std@@QAE@XZ
_TEXT	SEGMENT PARA USE32 PUBLIC 'CODE'
_TEXT	ENDS
;	COMDAT ?begin@?$list@PAVIMessageObserver@@V?$allocator@PAVIMessageObserver@@@std@@@std@@QAE?AViterator@12@XZ
_TEXT	SEGMENT PARA USE32 PUBLIC 'CODE'
_TEXT	ENDS
;	COMDAT ?end@?$list@PAVIMessageObserver@@V?$allocator@PAVIMessageObserver@@@std@@@std@@QAE?AViterator@12@XZ
_TEXT	SEGMENT PARA USE32 PUBLIC 'CODE'
_TEXT	ENDS
;	COMDAT ??Diterator@?$list@PAVIMessageObserver@@V?$allocator@PAVIMessageObserver@@@std@@@std@@QBEAAPAVIMessageObserver@@XZ
_TEXT	SEGMENT PARA USE32 PUBLIC 'CODE'
_TEXT	ENDS
;	COMDAT ??Eiterator@?$list@PAVIMessageObserver@@V?$allocator@PAVIMessageObserver@@@std@@@std@@QAE?AV012@H@Z
_TEXT	SEGMENT PARA USE32 PUBLIC 'CODE'
_TEXT	ENDS
;	COMDAT ??9const_iterator@?$list@PAVIMessageObserver@@V?$allocator@PAVIMessageObserver@@@std@@@std@@QBE_NABV012@@Z
_TEXT	SEGMENT PARA USE32 PUBLIC 'CODE'
_TEXT	ENDS
;	COMDAT ?capacity@?$vector@UOneLocalGame@@V?$allocator@UOneLocalGame@@@std@@@std@@QBEIXZ
_TEXT	SEGMENT PARA USE32 PUBLIC 'CODE'
_TEXT	ENDS
;	COMDAT ?insert@?$vector@UOneLocalGame@@V?$allocator@UOneLocalGame@@@std@@@std@@QAE?AViterator@12@V312@ABUOneLocalGame@@@Z
_TEXT	SEGMENT PARA USE32 PUBLIC 'CODE'
_TEXT	ENDS
;	COMDAT ?_Buy@?$vector@UOneLocalGame@@V?$allocator@UOneLocalGame@@@std@@@std@@IAE_NI@Z
_TEXT	SEGMENT PARA USE32 PUBLIC 'CODE'
_TEXT	ENDS
;	COMDAT ?_Destroy@?$vector@UOneLocalGame@@V?$allocator@UOneLocalGame@@@std@@@std@@IAEXPAUOneLocalGame@@0@Z
_TEXT	SEGMENT PARA USE32 PUBLIC 'CODE'
_TEXT	ENDS
;	COMDAT ?_Tidy@?$vector@UOneLocalGame@@V?$allocator@UOneLocalGame@@@std@@@std@@IAEXXZ
_TEXT	SEGMENT PARA USE32 PUBLIC 'CODE'
_TEXT	ENDS
;	COMDAT ?_Ufill@?$vector@UOneLocalGame@@V?$allocator@UOneLocalGame@@@std@@@std@@IAEPAUOneLocalGame@@PAU3@IABU3@@Z
_TEXT	SEGMENT PARA USE32 PUBLIC 'CODE'
_TEXT	ENDS
;	COMDAT ??0?$_Vector_val@UOneLocalGame@@V?$allocator@UOneLocalGame@@@std@@@std@@IAE@V?$allocator@UOneLocalGame@@@1@@Z
_TEXT	SEGMENT PARA USE32 PUBLIC 'CODE'
_TEXT	ENDS
;	COMDAT ??0?$allocator@UOneLocalGame@@@std@@QAE@XZ
_TEXT	SEGMENT PARA USE32 PUBLIC 'CODE'
_TEXT	ENDS
;	COMDAT ??0iterator@?$vector@UOneLocalGame@@V?$allocator@UOneLocalGame@@@std@@@std@@QAE@PAUOneLocalGame@@@Z
_TEXT	SEGMENT PARA USE32 PUBLIC 'CODE'
_TEXT	ENDS
;	COMDAT ??Eiterator@?$vector@UOneLocalGame@@V?$allocator@UOneLocalGame@@@std@@@std@@QAEAAV012@XZ
_TEXT	SEGMENT PARA USE32 PUBLIC 'CODE'
_TEXT	ENDS
;	COMDAT ??Dconst_iterator@?$vector@UOneLocalGame@@V?$allocator@UOneLocalGame@@@std@@@std@@QBEABUOneLocalGame@@XZ
_TEXT	SEGMENT PARA USE32 PUBLIC 'CODE'
_TEXT	ENDS
;	COMDAT ??8const_iterator@?$vector@UOneLocalGame@@V?$allocator@UOneLocalGame@@@std@@@std@@QBE_NABV012@@Z
_TEXT	SEGMENT PARA USE32 PUBLIC 'CODE'
_TEXT	ENDS
;	COMDAT ?_Nextnode@?$list@PAVIMessageObserver@@V?$allocator@PAVIMessageObserver@@@std@@@std@@KAAAPAU_Node@?$_List_nod@PAVIMessageObserver@@V?$allocator@PAVIMessageObserver@@@std@@@2@PAU342@@Z
_TEXT	SEGMENT PARA USE32 PUBLIC 'CODE'
_TEXT	ENDS
;	COMDAT ?_Buynode@?$list@PAVIMessageObserver@@V?$allocator@PAVIMessageObserver@@@std@@@std@@IAEPAU_Node@?$_List_nod@PAVIMessageObserver@@V?$allocator@PAVIMessageObserver@@@std@@@2@XZ
_TEXT	SEGMENT PARA USE32 PUBLIC 'CODE'
_TEXT	ENDS
;	COMDAT ?_Tidy@?$list@PAVIMessageObserver@@V?$allocator@PAVIMessageObserver@@@std@@@std@@IAEXXZ
_TEXT	SEGMENT PARA USE32 PUBLIC 'CODE'
_TEXT	ENDS
;	COMDAT ??0?$_List_val@PAVIMessageObserver@@V?$allocator@PAVIMessageObserver@@@std@@@std@@IAE@V?$allocator@PAVIMessageObserver@@@1@@Z
_TEXT	SEGMENT PARA USE32 PUBLIC 'CODE'
_TEXT	ENDS
;	COMDAT ??0?$allocator@PAVIMessageObserver@@@std@@QAE@XZ
_TEXT	SEGMENT PARA USE32 PUBLIC 'CODE'
_TEXT	ENDS
;	COMDAT ??0iterator@?$list@PAVIMessageObserver@@V?$allocator@PAVIMessageObserver@@@std@@@std@@QAE@PAU_Node@?$_List_nod@PAVIMessageObserver@@V?$allocator@PAVIMessageObserver@@@std@@@2@@Z
_TEXT	SEGMENT PARA USE32 PUBLIC 'CODE'
_TEXT	ENDS
;	COMDAT ??Eiterator@?$list@PAVIMessageObserver@@V?$allocator@PAVIMessageObserver@@@std@@@std@@QAEAAV012@XZ
_TEXT	SEGMENT PARA USE32 PUBLIC 'CODE'
_TEXT	ENDS
;	COMDAT ??Dconst_iterator@?$list@PAVIMessageObserver@@V?$allocator@PAVIMessageObserver@@@std@@@std@@QBEABQAVIMessageObserver@@XZ
_TEXT	SEGMENT PARA USE32 PUBLIC 'CODE'
_TEXT	ENDS
;	COMDAT ??8const_iterator@?$list@PAVIMessageObserver@@V?$allocator@PAVIMessageObserver@@@std@@@std@@QBE_NABV012@@Z
_TEXT	SEGMENT PARA USE32 PUBLIC 'CODE'
_TEXT	ENDS
;	COMDAT ??0iterator@?$basic_string@DU?$char_traits@D@std@@V?$allocator@D@2@@std@@QAE@PAD@Z
_TEXT	SEGMENT PARA USE32 PUBLIC 'CODE'
_TEXT	ENDS
;	COMDAT ?max_size@?$vector@UOneLocalGame@@V?$allocator@UOneLocalGame@@@std@@@std@@QBEIXZ
_TEXT	SEGMENT PARA USE32 PUBLIC 'CODE'
_TEXT	ENDS
;	COMDAT ?_Insert_n@?$vector@UOneLocalGame@@V?$allocator@UOneLocalGame@@@std@@@std@@IAEXViterator@12@IABUOneLocalGame@@@Z
_TEXT	SEGMENT PARA USE32 PUBLIC 'CODE'
_TEXT	ENDS
;	COMDAT ?_Xlen@?$vector@UOneLocalGame@@V?$allocator@UOneLocalGame@@@std@@@std@@IBEXXZ
_TEXT	SEGMENT PARA USE32 PUBLIC 'CODE'
_TEXT	ENDS
;	COMDAT ??0?$allocator@UOneLocalGame@@@std@@QAE@ABV01@@Z
_TEXT	SEGMENT PARA USE32 PUBLIC 'CODE'
_TEXT	ENDS
;	COMDAT ?deallocate@?$allocator@UOneLocalGame@@@std@@QAEXPAUOneLocalGame@@I@Z
_TEXT	SEGMENT PARA USE32 PUBLIC 'CODE'
_TEXT	ENDS
;	COMDAT ?allocate@?$allocator@UOneLocalGame@@@std@@QAEPAUOneLocalGame@@I@Z
_TEXT	SEGMENT PARA USE32 PUBLIC 'CODE'
_TEXT	ENDS
;	COMDAT ??Hiterator@?$vector@UOneLocalGame@@V?$allocator@UOneLocalGame@@@std@@@std@@QBE?AV012@H@Z
_TEXT	SEGMENT PARA USE32 PUBLIC 'CODE'
_TEXT	ENDS
;	COMDAT ??Giterator@?$vector@UOneLocalGame@@V?$allocator@UOneLocalGame@@@std@@@std@@QBEHABVconst_iterator@12@@Z
_TEXT	SEGMENT PARA USE32 PUBLIC 'CODE'
_TEXT	ENDS
;	COMDAT ??0const_iterator@?$vector@UOneLocalGame@@V?$allocator@UOneLocalGame@@@std@@@std@@QAE@PAUOneLocalGame@@@Z
_TEXT	SEGMENT PARA USE32 PUBLIC 'CODE'
_TEXT	ENDS
;	COMDAT ?_Prevnode@?$list@PAVIMessageObserver@@V?$allocator@PAVIMessageObserver@@@std@@@std@@KAAAPAU_Node@?$_List_nod@PAVIMessageObserver@@V?$allocator@PAVIMessageObserver@@@std@@@2@PAU342@@Z
_TEXT	SEGMENT PARA USE32 PUBLIC 'CODE'
_TEXT	ENDS
;	COMDAT ?_Myval@?$list@PAVIMessageObserver@@V?$allocator@PAVIMessageObserver@@@std@@@std@@KAAAPAVIMessageObserver@@PAU_Node@?$_List_nod@PAVIMessageObserver@@V?$allocator@PAVIMessageObserver@@@std@@@2@@Z
_TEXT	SEGMENT PARA USE32 PUBLIC 'CODE'
_TEXT	ENDS
;	COMDAT ?clear@?$list@PAVIMessageObserver@@V?$allocator@PAVIMessageObserver@@@std@@@std@@QAEXXZ
_TEXT	SEGMENT PARA USE32 PUBLIC 'CODE'
_TEXT	ENDS
;	COMDAT ??0?$_List_ptr@PAVIMessageObserver@@V?$allocator@PAVIMessageObserver@@@std@@@std@@IAE@V?$allocator@PAVIMessageObserver@@@1@@Z
_TEXT	SEGMENT PARA USE32 PUBLIC 'CODE'
_TEXT	ENDS
;	COMDAT ??0?$allocator@PAVIMessageObserver@@@std@@QAE@ABV01@@Z
_TEXT	SEGMENT PARA USE32 PUBLIC 'CODE'
_TEXT	ENDS
;	COMDAT ?deallocate@?$allocator@U_Node@?$_List_nod@PAVIMessageObserver@@V?$allocator@PAVIMessageObserver@@@std@@@std@@@std@@QAEXPAU_Node@?$_List_nod@PAVIMessageObserver@@V?$allocator@PAVIMessageObserver@@@std@@@2@I@Z
_TEXT	SEGMENT PARA USE32 PUBLIC 'CODE'
_TEXT	ENDS
;	COMDAT ?allocate@?$allocator@U_Node@?$_List_nod@PAVIMessageObserver@@V?$allocator@PAVIMessageObserver@@@std@@@std@@@std@@QAEPAU_Node@?$_List_nod@PAVIMessageObserver@@V?$allocator@PAVIMessageObserver@@@std@@@2@I@Z
_TEXT	SEGMENT PARA USE32 PUBLIC 'CODE'
_TEXT	ENDS
;	COMDAT ?construct@?$allocator@PAU_Node@?$_List_nod@PAVIMessageObserver@@V?$allocator@PAVIMessageObserver@@@std@@@std@@@std@@QAEXPAPAU_Node@?$_List_nod@PAVIMessageObserver@@V?$allocator@PAVIMessageObserver@@@std@@@2@ABQAU342@@Z
_TEXT	SEGMENT PARA USE32 PUBLIC 'CODE'
_TEXT	ENDS
;	COMDAT ?destroy@?$allocator@PAU_Node@?$_List_nod@PAVIMessageObserver@@V?$allocator@PAVIMessageObserver@@@std@@@std@@@std@@QAEXPAPAU_Node@?$_List_nod@PAVIMessageObserver@@V?$allocator@PAVIMessageObserver@@@std@@@2@@Z
_TEXT	SEGMENT PARA USE32 PUBLIC 'CODE'
_TEXT	ENDS
;	COMDAT ??0const_iterator@?$list@PAVIMessageObserver@@V?$allocator@PAVIMessageObserver@@@std@@@std@@QAE@PAU_Node@?$_List_nod@PAVIMessageObserver@@V?$allocator@PAVIMessageObserver@@@std@@@2@@Z
_TEXT	SEGMENT PARA USE32 PUBLIC 'CODE'
_TEXT	ENDS
;	COMDAT ??Econst_iterator@?$list@PAVIMessageObserver@@V?$allocator@PAVIMessageObserver@@@std@@@std@@QAEAAV012@XZ
_TEXT	SEGMENT PARA USE32 PUBLIC 'CODE'
_TEXT	ENDS
;	COMDAT ??0OneLocalGame@@QAE@ABU0@@Z
_TEXT	SEGMENT PARA USE32 PUBLIC 'CODE'
_TEXT	ENDS
;	COMDAT ??0length_error@std@@QAE@ABV01@@Z
_TEXT	SEGMENT PARA USE32 PUBLIC 'CODE'
_TEXT	ENDS
;	COMDAT ??0const_iterator@?$basic_string@DU?$char_traits@D@std@@V?$allocator@D@2@@std@@QAE@PBD@Z
_TEXT	SEGMENT PARA USE32 PUBLIC 'CODE'
_TEXT	ENDS
;	COMDAT ??Gconst_iterator@?$basic_string@DU?$char_traits@D@std@@V?$allocator@D@2@@std@@QBEHABV012@@Z
_TEXT	SEGMENT PARA USE32 PUBLIC 'CODE'
_TEXT	ENDS
;	COMDAT ?max_size@?$allocator@UOneLocalGame@@@std@@QBEIXZ
_TEXT	SEGMENT PARA USE32 PUBLIC 'CODE'
_TEXT	ENDS
;	COMDAT ??Yiterator@?$vector@UOneLocalGame@@V?$allocator@UOneLocalGame@@@std@@@std@@QAEAAV012@H@Z
_TEXT	SEGMENT PARA USE32 PUBLIC 'CODE'
_TEXT	ENDS
;	COMDAT ??Gconst_iterator@?$vector@UOneLocalGame@@V?$allocator@UOneLocalGame@@@std@@@std@@QBEHABV012@@Z
_TEXT	SEGMENT PARA USE32 PUBLIC 'CODE'
_TEXT	ENDS
;	COMDAT ??0?$_List_nod@PAVIMessageObserver@@V?$allocator@PAVIMessageObserver@@@std@@@std@@IAE@V?$allocator@PAVIMessageObserver@@@1@@Z
_TEXT	SEGMENT PARA USE32 PUBLIC 'CODE'
_TEXT	ENDS
;	COMDAT ?destroy@?$allocator@U_Node@?$_List_nod@PAVIMessageObserver@@V?$allocator@PAVIMessageObserver@@@std@@@std@@@std@@QAEXPAU_Node@?$_List_nod@PAVIMessageObserver@@V?$allocator@PAVIMessageObserver@@@std@@@2@@Z
_TEXT	SEGMENT PARA USE32 PUBLIC 'CODE'
_TEXT	ENDS
;	COMDAT ?Unlock@?$CComCritSecLock@VCComCriticalSection@ATL@@@ATL@@QAEXXZ
_TEXT	SEGMENT PARA USE32 PUBLIC 'CODE'
_TEXT	ENDS
;	COMDAT ??$AtlAlignUp@H@ATL@@YGHHK@Z
_TEXT	SEGMENT PARA USE32 PUBLIC 'CODE'
_TEXT	ENDS
;	COMDAT ??0?$CArray@UElemPos@CMarkup@@AAU12@@@QAE@XZ
_TEXT	SEGMENT PARA USE32 PUBLIC 'CODE'
_TEXT	ENDS
;	COMDAT ??A?$CArray@UElemPos@CMarkup@@AAU12@@@QAEAAUElemPos@CMarkup@@H@Z
_TEXT	SEGMENT PARA USE32 PUBLIC 'CODE'
_TEXT	ENDS
;	COMDAT ??1?$CArray@UElemPos@CMarkup@@AAU12@@@UAE@XZ
_TEXT	SEGMENT PARA USE32 PUBLIC 'CODE'
_TEXT	ENDS
;	COMDAT ?Serialize@?$CArray@UElemPos@CMarkup@@AAU12@@@UAEXAAVCArchive@@@Z
_TEXT	SEGMENT PARA USE32 PUBLIC 'CODE'
_TEXT	ENDS
;	COMDAT ?Dump@?$CArray@UElemPos@CMarkup@@AAU12@@@UBEXAAVCDumpContext@@@Z
_TEXT	SEGMENT PARA USE32 PUBLIC 'CODE'
_TEXT	ENDS
;	COMDAT ?AssertValid@?$CArray@UElemPos@CMarkup@@AAU12@@@UBEXXZ
_TEXT	SEGMENT PARA USE32 PUBLIC 'CODE'
_TEXT	ENDS
;	COMDAT ??$back_inserter@V?$vector@UOneLocalGame@@V?$allocator@UOneLocalGame@@@std@@@std@@@std@@YA?AV?$back_insert_iterator@V?$vector@UOneLocalGame@@V?$allocator@UOneLocalGame@@@std@@@std@@@0@AAV?$vector@UOneLocalGame@@V?$allocator@UOneLocalGame@@@std@@@0@@Z
_TEXT	SEGMENT PARA USE32 PUBLIC 'CODE'
_TEXT	ENDS
;	COMDAT ??$copy@Viterator@?$vector@UOneLocalGame@@V?$allocator@UOneLocalGame@@@std@@@std@@V?$back_insert_iterator@V?$vector@UOneLocalGame@@V?$allocator@UOneLocalGame@@@std@@@std@@@3@@std@@YA?AV?$back_insert_iterator@V?$vector@UOneLocalGame@@V?$allocator@UOneLocalGame@@@std@@@std@@@0@Viterator@?$vector@UOneLocalGame@@V?$allocator@UOneLocalGame@@@std@@@0@0V10@@Z
_TEXT	SEGMENT PARA USE32 PUBLIC 'CODE'
_TEXT	ENDS
;	COMDAT ??$copy@PAUOneLocalGame@@PAU1@@std@@YAPAUOneLocalGame@@PAU1@00@Z
_TEXT	SEGMENT PARA USE32 PUBLIC 'CODE'
_TEXT	ENDS
;	COMDAT ??$_Destroy_range@UOneLocalGame@@V?$allocator@UOneLocalGame@@@std@@@std@@YAXPAUOneLocalGame@@0AAV?$allocator@UOneLocalGame@@@0@@Z
_TEXT	SEGMENT PARA USE32 PUBLIC 'CODE'
_TEXT	ENDS
;	COMDAT ??$_Uninitialized_fill_n@PAUOneLocalGame@@IU1@V?$allocator@UOneLocalGame@@@std@@@std@@YAXPAUOneLocalGame@@IABU1@AAV?$allocator@UOneLocalGame@@@0@@Z
_TEXT	SEGMENT PARA USE32 PUBLIC 'CODE'
_TEXT	ENDS
;	COMDAT ??$_Maklocstr@D@std@@YAPADPBDPADABU_Cvtvec@@@Z
_TEXT	SEGMENT PARA USE32 PUBLIC 'CODE'
_TEXT	ENDS
;	COMDAT ??$_Ucopy@PAUOneLocalGame@@@?$vector@UOneLocalGame@@V?$allocator@UOneLocalGame@@@std@@@std@@IAEPAUOneLocalGame@@PAU2@00@Z
_TEXT	SEGMENT PARA USE32 PUBLIC 'CODE'
_TEXT	ENDS
;	COMDAT ??$fill@PAUOneLocalGame@@U1@@std@@YAXPAUOneLocalGame@@0ABU1@@Z
_TEXT	SEGMENT PARA USE32 PUBLIC 'CODE'
_TEXT	ENDS
;	COMDAT ??$copy_backward@PAUOneLocalGame@@PAU1@@std@@YAPAUOneLocalGame@@PAU1@00@Z
_TEXT	SEGMENT PARA USE32 PUBLIC 'CODE'
_TEXT	ENDS
;	COMDAT ??$_Allocate@UOneLocalGame@@@std@@YAPAUOneLocalGame@@IPAU1@@Z
_TEXT	SEGMENT PARA USE32 PUBLIC 'CODE'
_TEXT	ENDS
;	COMDAT ??$?0PAVIMessageObserver@@@?$allocator@PAU_Node@?$_List_nod@PAVIMessageObserver@@V?$allocator@PAVIMessageObserver@@@std@@@std@@@std@@QAE@ABV?$allocator@PAVIMessageObserver@@@1@@Z
_TEXT	SEGMENT PARA USE32 PUBLIC 'CODE'
_TEXT	ENDS
;	COMDAT ??$_Allocate@U_Node@?$_List_nod@PAVIMessageObserver@@V?$allocator@PAVIMessageObserver@@@std@@@std@@@std@@YAPAU_Node@?$_List_nod@PAVIMessageObserver@@V?$allocator@PAVIMessageObserver@@@std@@@0@IPAU120@@Z
_TEXT	SEGMENT PARA USE32 PUBLIC 'CODE'
_TEXT	ENDS
;	COMDAT ??$_Construct@PAU_Node@?$_List_nod@PAVIMessageObserver@@V?$allocator@PAVIMessageObserver@@@std@@@std@@PAU123@@std@@YAXPAPAU_Node@?$_List_nod@PAVIMessageObserver@@V?$allocator@PAVIMessageObserver@@@std@@@0@ABQAU120@@Z
_TEXT	SEGMENT PARA USE32 PUBLIC 'CODE'
_TEXT	ENDS
;	COMDAT ??$_Destroy@PAU_Node@?$_List_nod@PAVIMessageObserver@@V?$allocator@PAVIMessageObserver@@@std@@@std@@@std@@YAXPAPAU_Node@?$_List_nod@PAVIMessageObserver@@V?$allocator@PAVIMessageObserver@@@std@@@0@@Z
_TEXT	SEGMENT PARA USE32 PUBLIC 'CODE'
_TEXT	ENDS
;	COMDAT ??$?0PAVIMessageObserver@@@?$allocator@U_Node@?$_List_nod@PAVIMessageObserver@@V?$allocator@PAVIMessageObserver@@@std@@@std@@@std@@QAE@ABV?$allocator@PAVIMessageObserver@@@1@@Z
_TEXT	SEGMENT PARA USE32 PUBLIC 'CODE'
_TEXT	ENDS
;	COMDAT ??$_Destroy@U_Node@?$_List_nod@PAVIMessageObserver@@V?$allocator@PAVIMessageObserver@@@std@@@std@@@std@@YAXPAU_Node@?$_List_nod@PAVIMessageObserver@@V?$allocator@PAVIMessageObserver@@@std@@@0@@Z
_TEXT	SEGMENT PARA USE32 PUBLIC 'CODE'
_TEXT	ENDS
;	COMDAT ??_G?$CArray@UElemPos@CMarkup@@AAU12@@@UAEPAXI@Z
_TEXT	SEGMENT PARA USE32 PUBLIC 'CODE'
_TEXT	ENDS
;	COMDAT ??0?$back_insert_iterator@V?$vector@UOneLocalGame@@V?$allocator@UOneLocalGame@@@std@@@std@@@std@@QAE@AAV?$vector@UOneLocalGame@@V?$allocator@UOneLocalGame@@@std@@@1@@Z
_TEXT	SEGMENT PARA USE32 PUBLIC 'CODE'
_TEXT	ENDS
;	COMDAT ?SetSize@?$CArray@UElemPos@CMarkup@@AAU12@@@QAEXHH@Z
_TEXT	SEGMENT PARA USE32 PUBLIC 'CODE'
_TEXT	ENDS
;	COMDAT ?ElementAt@?$CArray@UElemPos@CMarkup@@AAU12@@@QAEAAUElemPos@CMarkup@@H@Z
_TEXT	SEGMENT PARA USE32 PUBLIC 'CODE'
_TEXT	ENDS
;	COMDAT ??$SerializeElements@UElemPos@CMarkup@@@@YGXAAVCArchive@@PAUElemPos@CMarkup@@H@Z
_TEXT	SEGMENT PARA USE32 PUBLIC 'CODE'
_TEXT	ENDS
;	COMDAT ??$DumpElements@UElemPos@CMarkup@@@@YGXAAVCDumpContext@@PBUElemPos@CMarkup@@H@Z
_TEXT	SEGMENT PARA USE32 PUBLIC 'CODE'
_TEXT	ENDS
;	COMDAT ??$_Ptr_cat@Viterator@?$vector@UOneLocalGame@@V?$allocator@UOneLocalGame@@@std@@@std@@V?$back_insert_iterator@V?$vector@UOneLocalGame@@V?$allocator@UOneLocalGame@@@std@@@std@@@3@@std@@YA?AU_Nonscalar_ptr_iterator_tag@0@AAViterator@?$vector@UOneLocalGame@@V?$allocator@UOneLocalGame@@@std@@@0@AAV?$back_insert_iterator@V?$vector@UOneLocalGame@@V?$allocator@UOneLocalGame@@@std@@@std@@@0@@Z
_TEXT	SEGMENT PARA USE32 PUBLIC 'CODE'
_TEXT	ENDS
;	COMDAT ??$_Copy_opt@Viterator@?$vector@UOneLocalGame@@V?$allocator@UOneLocalGame@@@std@@@std@@V?$back_insert_iterator@V?$vector@UOneLocalGame@@V?$allocator@UOneLocalGame@@@std@@@std@@@3@@std@@YA?AV?$back_insert_iterator@V?$vector@UOneLocalGame@@V?$allocator@UOneLocalGame@@@std@@@std@@@0@Viterator@?$vector@UOneLocalGame@@V?$allocator@UOneLocalGame@@@std@@@0@0V10@U_Nonscalar_ptr_iterator_tag@0@@Z
_TEXT	SEGMENT PARA USE32 PUBLIC 'CODE'
_TEXT	ENDS
;	COMDAT ??$_Ptr_cat@PAUOneLocalGame@@PAU1@@std@@YA?AU_Nonscalar_ptr_iterator_tag@0@AAPAUOneLocalGame@@0@Z
_TEXT	SEGMENT PARA USE32 PUBLIC 'CODE'
_TEXT	ENDS
;	COMDAT ??$_Copy_opt@PAUOneLocalGame@@PAU1@@std@@YAPAUOneLocalGame@@PAU1@00U_Nonscalar_ptr_iterator_tag@0@@Z
_TEXT	SEGMENT PARA USE32 PUBLIC 'CODE'
_TEXT	ENDS
;	COMDAT ??$_Destroy_range@UOneLocalGame@@V?$allocator@UOneLocalGame@@@std@@@std@@YAXPAUOneLocalGame@@0AAV?$allocator@UOneLocalGame@@@0@U_Nonscalar_ptr_iterator_tag@0@@Z
_TEXT	SEGMENT PARA USE32 PUBLIC 'CODE'
_TEXT	ENDS
;	COMDAT ??$_Uninit_fill_n@PAUOneLocalGame@@IU1@V?$allocator@UOneLocalGame@@@std@@@std@@YAXPAUOneLocalGame@@IABU1@AAV?$allocator@UOneLocalGame@@@0@U_Nonscalar_ptr_iterator_tag@0@@Z
_TEXT	SEGMENT PARA USE32 PUBLIC 'CODE'
_TEXT	ENDS
;	COMDAT ??$_Uninitialized_copy@PAUOneLocalGame@@PAU1@V?$allocator@UOneLocalGame@@@std@@@std@@YAPAUOneLocalGame@@PAU1@00AAV?$allocator@UOneLocalGame@@@0@@Z
_TEXT	SEGMENT PARA USE32 PUBLIC 'CODE'
_TEXT	ENDS
;	COMDAT ??$_Copy_backward_opt@PAUOneLocalGame@@PAU1@@std@@YAPAUOneLocalGame@@PAU1@00U_Nonscalar_ptr_iterator_tag@0@@Z
_TEXT	SEGMENT PARA USE32 PUBLIC 'CODE'
_TEXT	ENDS
;	COMDAT ?construct@?$allocator@UOneLocalGame@@@std@@QAEXPAUOneLocalGame@@ABU3@@Z
_TEXT	SEGMENT PARA USE32 PUBLIC 'CODE'
_TEXT	ENDS
;	COMDAT ?destroy@?$allocator@UOneLocalGame@@@std@@QAEXPAUOneLocalGame@@@Z
_TEXT	SEGMENT PARA USE32 PUBLIC 'CODE'
_TEXT	ENDS
;	COMDAT ??4?$back_insert_iterator@V?$vector@UOneLocalGame@@V?$allocator@UOneLocalGame@@@std@@@std@@@std@@QAEAAV01@ABUOneLocalGame@@@Z
_TEXT	SEGMENT PARA USE32 PUBLIC 'CODE'
_TEXT	ENDS
;	COMDAT ??D?$back_insert_iterator@V?$vector@UOneLocalGame@@V?$allocator@UOneLocalGame@@@std@@@std@@@std@@QAEAAV01@XZ
_TEXT	SEGMENT PARA USE32 PUBLIC 'CODE'
_TEXT	ENDS
;	COMDAT ??E?$back_insert_iterator@V?$vector@UOneLocalGame@@V?$allocator@UOneLocalGame@@@std@@@std@@@std@@QAEAAV01@XZ
_TEXT	SEGMENT PARA USE32 PUBLIC 'CODE'
_TEXT	ENDS
;	COMDAT ??$_Uninit_copy@PAUOneLocalGame@@PAU1@V?$allocator@UOneLocalGame@@@std@@@std@@YAPAUOneLocalGame@@PAU1@00AAV?$allocator@UOneLocalGame@@@0@U_Nonscalar_ptr_iterator_tag@0@@Z
_TEXT	SEGMENT PARA USE32 PUBLIC 'CODE'
_TEXT	ENDS
;	COMDAT ??$_Construct@UOneLocalGame@@U1@@std@@YAXPAUOneLocalGame@@ABU1@@Z
_TEXT	SEGMENT PARA USE32 PUBLIC 'CODE'
_TEXT	ENDS
;	COMDAT ??$_Destroy@UOneLocalGame@@@std@@YAXPAUOneLocalGame@@@Z
_TEXT	SEGMENT PARA USE32 PUBLIC 'CODE'
_TEXT	ENDS
;	COMDAT ??_GOneLocalGame@@QAEPAXI@Z
_TEXT	SEGMENT PARA USE32 PUBLIC 'CODE'
_TEXT	ENDS
;	COMDAT ??_R3CAtlStringMgr@ATL@@8
rdata$r	SEGMENT DWORD USE32 PUBLIC 'CONST'
rdata$r	ENDS
;	COMDAT ??_R3?$numpunct@_W@std@@8
rdata$r	SEGMENT DWORD USE32 PUBLIC 'CONST'
rdata$r	ENDS
;	COMDAT ??_R3CMarkupArchive@@8
rdata$r	SEGMENT DWORD USE32 PUBLIC 'CONST'
rdata$r	ENDS
;	COMDAT ??_R3?$numpunct@D@std@@8
rdata$r	SEGMENT DWORD USE32 PUBLIC 'CONST'
rdata$r	ENDS
;	COMDAT ??_R3?$CArray@UElemPos@CMarkup@@AAU12@@@8
rdata$r	SEGMENT DWORD USE32 PUBLIC 'CONST'
rdata$r	ENDS
;	COMDAT ??_R3IData@@8
rdata$r	SEGMENT DWORD USE32 PUBLIC 'CONST'
rdata$r	ENDS
;	COMDAT ??_R3LocalGameData@@8
rdata$r	SEGMENT DWORD USE32 PUBLIC 'CONST'
rdata$r	ENDS
;	COMDAT ??_R3CMarkup@@8
rdata$r	SEGMENT DWORD USE32 PUBLIC 'CONST'
rdata$r	ENDS
;	COMDAT ??_R3ILocalGameData@@8
rdata$r	SEGMENT DWORD USE32 PUBLIC 'CONST'
rdata$r	ENDS
;	COMDAT ??_R2CAtlStringMgr@ATL@@8
rdata$r	SEGMENT DWORD USE32 PUBLIC 'CONST'
rdata$r	ENDS
;	COMDAT ??_R2?$numpunct@_W@std@@8
rdata$r	SEGMENT DWORD USE32 PUBLIC 'CONST'
rdata$r	ENDS
;	COMDAT ??_R2CMarkupArchive@@8
rdata$r	SEGMENT DWORD USE32 PUBLIC 'CONST'
rdata$r	ENDS
;	COMDAT ??_R2?$numpunct@D@std@@8
rdata$r	SEGMENT DWORD USE32 PUBLIC 'CONST'
rdata$r	ENDS
;	COMDAT ??_R2?$CArray@UElemPos@CMarkup@@AAU12@@@8
rdata$r	SEGMENT DWORD USE32 PUBLIC 'CONST'
rdata$r	ENDS
;	COMDAT ??_R2IData@@8
rdata$r	SEGMENT DWORD USE32 PUBLIC 'CONST'
rdata$r	ENDS
;	COMDAT ??_R2LocalGameData@@8
rdata$r	SEGMENT DWORD USE32 PUBLIC 'CONST'
rdata$r	ENDS
;	COMDAT ??_R2CMarkup@@8
rdata$r	SEGMENT DWORD USE32 PUBLIC 'CONST'
rdata$r	ENDS
;	COMDAT ??_R2ILocalGameData@@8
rdata$r	SEGMENT DWORD USE32 PUBLIC 'CONST'
rdata$r	ENDS
;	COMDAT ??_R1A@?0A@A@IAtlStringMgr@ATL@@8
rdata$r	SEGMENT DWORD USE32 PUBLIC 'CONST'
rdata$r	ENDS
;	COMDAT ??_R0?AUIAtlStringMgr@ATL@@@8
_DATA	SEGMENT DWORD USE32 PUBLIC 'DATA'
_DATA	ENDS
;	COMDAT ??_R1A@?0A@A@CAtlStringMgr@ATL@@8
rdata$r	SEGMENT DWORD USE32 PUBLIC 'CONST'
rdata$r	ENDS
;	COMDAT ??_R1A@?0A@A@?$numpunct@_W@std@@8
rdata$r	SEGMENT DWORD USE32 PUBLIC 'CONST'
rdata$r	ENDS
;	COMDAT ??_R1A@?0A@A@CMarkupArchive@@8
rdata$r	SEGMENT DWORD USE32 PUBLIC 'CONST'
rdata$r	ENDS
;	COMDAT ??_R1A@?0A@A@facet@locale@std@@8
rdata$r	SEGMENT DWORD USE32 PUBLIC 'CONST'
rdata$r	ENDS
;	COMDAT ??_R0?AVfacet@locale@std@@@8
_DATA	SEGMENT DWORD USE32 PUBLIC 'DATA'
_DATA	ENDS
;	COMDAT ??_R1A@?0A@A@?$numpunct@D@std@@8
rdata$r	SEGMENT DWORD USE32 PUBLIC 'CONST'
rdata$r	ENDS
;	COMDAT ??_R1A@?0A@A@CObject@@8
rdata$r	SEGMENT DWORD USE32 PUBLIC 'CONST'
rdata$r	ENDS
;	COMDAT ??_R0?AVCObject@@@8
_DATA	SEGMENT DWORD USE32 PUBLIC 'DATA'
_DATA	ENDS
;	COMDAT ??_R1A@?0A@A@?$CArray@UElemPos@CMarkup@@AAU12@@@8
rdata$r	SEGMENT DWORD USE32 PUBLIC 'CONST'
rdata$r	ENDS
;	COMDAT ??_R1A@?0A@A@LocalGameData@@8
rdata$r	SEGMENT DWORD USE32 PUBLIC 'CONST'
rdata$r	ENDS
;	COMDAT ??_R1A@?0A@A@CMarkup@@8
rdata$r	SEGMENT DWORD USE32 PUBLIC 'CONST'
rdata$r	ENDS
;	COMDAT ??_R1A@?0A@A@IData@@8
rdata$r	SEGMENT DWORD USE32 PUBLIC 'CONST'
rdata$r	ENDS
;	COMDAT ??_R1A@?0A@A@ILocalGameData@@8
rdata$r	SEGMENT DWORD USE32 PUBLIC 'CONST'
rdata$r	ENDS
;	COMDAT ??_R0?AVCAtlStringMgr@ATL@@@8
_DATA	SEGMENT DWORD USE32 PUBLIC 'DATA'
_DATA	ENDS
;	COMDAT ??_R0?AV?$numpunct@_W@std@@@8
_DATA	SEGMENT DWORD USE32 PUBLIC 'DATA'
_DATA	ENDS
;	COMDAT ??_R0?AVCMarkupArchive@@@8
_DATA	SEGMENT DWORD USE32 PUBLIC 'DATA'
_DATA	ENDS
;	COMDAT ??_R0?AV?$numpunct@D@std@@@8
_DATA	SEGMENT DWORD USE32 PUBLIC 'DATA'
_DATA	ENDS
;	COMDAT ??_R0?AV?$CArray@UElemPos@CMarkup@@AAU12@@@@8
_DATA	SEGMENT DWORD USE32 PUBLIC 'DATA'
_DATA	ENDS
;	COMDAT ??_R0?AVLocalGameData@@@8
_DATA	SEGMENT DWORD USE32 PUBLIC 'DATA'
_DATA	ENDS
;	COMDAT ??_R0?AVCMarkup@@@8
_DATA	SEGMENT DWORD USE32 PUBLIC 'DATA'
_DATA	ENDS
;	COMDAT ??_R0?AVIData@@@8
_DATA	SEGMENT DWORD USE32 PUBLIC 'DATA'
_DATA	ENDS
;	COMDAT ??_R0?AVILocalGameData@@@8
_DATA	SEGMENT DWORD USE32 PUBLIC 'DATA'
_DATA	ENDS
;	COMDAT ??_R4CAtlStringMgr@ATL@@6B@
rdata$r	SEGMENT DWORD USE32 PUBLIC 'CONST'
rdata$r	ENDS
;	COMDAT ??0?$allocator@_W@std@@QAE@XZ
_TEXT	SEGMENT PARA USE32 PUBLIC 'CODE'
_TEXT	ENDS
;	COMDAT ??_G?$numpunct@_W@std@@MAEPAXI@Z
_TEXT	SEGMENT PARA USE32 PUBLIC 'CODE'
_TEXT	ENDS
;	COMDAT ??_R4?$numpunct@_W@std@@6B@
rdata$r	SEGMENT DWORD USE32 PUBLIC 'CONST'
rdata$r	ENDS
;	COMDAT ??_R4CMarkupArchive@@6B@
rdata$r	SEGMENT DWORD USE32 PUBLIC 'CONST'
rdata$r	ENDS
;	COMDAT ??_G?$numpunct@D@std@@MAEPAXI@Z
_TEXT	SEGMENT PARA USE32 PUBLIC 'CODE'
_TEXT	ENDS
;	COMDAT ??_R4?$numpunct@D@std@@6B@
rdata$r	SEGMENT DWORD USE32 PUBLIC 'CONST'
rdata$r	ENDS
;	COMDAT ??_R4?$CArray@UElemPos@CMarkup@@AAU12@@@6B@
rdata$r	SEGMENT DWORD USE32 PUBLIC 'CONST'
rdata$r	ENDS
;	COMDAT ??_R4IData@@6B@
rdata$r	SEGMENT DWORD USE32 PUBLIC 'CONST'
rdata$r	ENDS
;	COMDAT ??_R4LocalGameData@@6B@
rdata$r	SEGMENT DWORD USE32 PUBLIC 'CONST'
rdata$r	ENDS
;	COMDAT ??_R4CMarkup@@6B@
rdata$r	SEGMENT DWORD USE32 PUBLIC 'CONST'
rdata$r	ENDS
;	COMDAT ??_R4ILocalGameData@@6B@
rdata$r	SEGMENT DWORD USE32 PUBLIC 'CONST'
rdata$r	ENDS
;	COMDAT ??3@YAXPAX0@Z
_TEXT	SEGMENT PARA USE32 PUBLIC 'CODE'
_TEXT	ENDS
;	COMDAT ??2@YAPAXIPAX@Z
_TEXT	SEGMENT PARA USE32 PUBLIC 'CODE'
_TEXT	ENDS
;	COMDAT ??_C@_0EN@CBMLGOH@D?3?2Program?5Files?5?$CIx86?$CJ?2Microsoft@
CONST	SEGMENT DWORD USE32 PUBLIC 'CONST'
CONST	ENDS
;	COMDAT ??_7?$CArray@UElemPos@CMarkup@@AAU12@@@6B@
CONST	SEGMENT DWORD USE32 PUBLIC 'CONST'
CONST	ENDS
;	COMDAT ?_Psave@?$_Facetptr@V?$numpunct@_W@std@@@std@@2PBVfacet@locale@2@B
_DATA	SEGMENT DWORD USE32 PUBLIC 'DATA'
_DATA	ENDS
;	COMDAT ?_Psave@?$_Facetptr@V?$numpunct@D@std@@@std@@2PBVfacet@locale@2@B
_DATA	SEGMENT DWORD USE32 PUBLIC 'DATA'
_DATA	ENDS
;	COMDAT ?Unlock@CComCriticalSection@ATL@@QAEJXZ
_TEXT	SEGMENT PARA USE32 PUBLIC 'CODE'
_TEXT	ENDS
;	COMDAT ??_C@_0FG@LDNDNCJM@D?3?2Program?5Files?5?$CIx86?$CJ?2Microsoft@
CONST	SEGMENT DWORD USE32 PUBLIC 'CONST'
CONST	ENDS
;	COMDAT ??_C@_09HIEJFN@m_bLocked?$AA@
CONST	SEGMENT DWORD USE32 PUBLIC 'CONST'
CONST	ENDS
;	COMDAT ?_Psave@?$_Facetptr@V?$ctype@_W@std@@@std@@2PBVfacet@locale@2@B
_DATA	SEGMENT DWORD USE32 PUBLIC 'DATA'
_DATA	ENDS
;	COMDAT ?_Psave@?$_Facetptr@V?$ctype@D@std@@@std@@2PBVfacet@locale@2@B
_DATA	SEGMENT DWORD USE32 PUBLIC 'DATA'
_DATA	ENDS
;	COMDAT ??_7length_error@std@@6B@
CONST	SEGMENT DWORD USE32 PUBLIC 'CONST'
CONST	ENDS
;	COMDAT ??_R4length_error@std@@6B@
rdata$r	SEGMENT DWORD USE32 PUBLIC 'CONST'
rdata$r	ENDS
;	COMDAT ??_R3length_error@std@@8
rdata$r	SEGMENT DWORD USE32 PUBLIC 'CONST'
rdata$r	ENDS
;	COMDAT ??_R2length_error@std@@8
rdata$r	SEGMENT DWORD USE32 PUBLIC 'CONST'
rdata$r	ENDS
;	COMDAT ??_R1A@?0A@A@length_error@std@@8
rdata$r	SEGMENT DWORD USE32 PUBLIC 'CONST'
rdata$r	ENDS
;	COMDAT ??_R1A@?0A@A@logic_error@std@@8
rdata$r	SEGMENT DWORD USE32 PUBLIC 'CONST'
rdata$r	ENDS
;	COMDAT ??_R0?AVlogic_error@std@@@8
_DATA	SEGMENT DWORD USE32 PUBLIC 'DATA'
_DATA	ENDS
;	COMDAT ??_R1A@?0A@A@exception@@8
rdata$r	SEGMENT DWORD USE32 PUBLIC 'CONST'
rdata$r	ENDS
;	COMDAT ??_R0?AVexception@@@8
_DATA	SEGMENT DWORD USE32 PUBLIC 'DATA'
_DATA	ENDS
;	COMDAT ??_Glength_error@std@@UAEPAXI@Z
_TEXT	SEGMENT PARA USE32 PUBLIC 'CODE'
_TEXT	ENDS
;	COMDAT ?what@logic_error@std@@UBEPBDXZ
_TEXT	SEGMENT PARA USE32 PUBLIC 'CODE'
_TEXT	ENDS
;	COMDAT ??1logic_error@std@@UAE@XZ
_TEXT	SEGMENT PARA USE32 PUBLIC 'CODE'
_TEXT	ENDS
;	COMDAT ??_7logic_error@std@@6B@
CONST	SEGMENT DWORD USE32 PUBLIC 'CONST'
CONST	ENDS
;	COMDAT ??_R4logic_error@std@@6B@
rdata$r	SEGMENT DWORD USE32 PUBLIC 'CONST'
rdata$r	ENDS
;	COMDAT ??_R3logic_error@std@@8
rdata$r	SEGMENT DWORD USE32 PUBLIC 'CONST'
rdata$r	ENDS
;	COMDAT ??_R2logic_error@std@@8
rdata$r	SEGMENT DWORD USE32 PUBLIC 'CONST'
rdata$r	ENDS
;	COMDAT ??_Glogic_error@std@@UAEPAXI@Z
_TEXT	SEGMENT PARA USE32 PUBLIC 'CODE'
_TEXT	ENDS
;	COMDAT ??0logic_error@std@@QAE@ABV01@@Z
_TEXT	SEGMENT PARA USE32 PUBLIC 'CODE'
_TEXT	ENDS
;	COMDAT ??0?$allocator@D@std@@QAE@ABV01@@Z
_TEXT	SEGMENT PARA USE32 PUBLIC 'CODE'
_TEXT	ENDS
;	COMDAT ?deallocate@?$allocator@D@std@@QAEXPADI@Z
_TEXT	SEGMENT PARA USE32 PUBLIC 'CODE'
_TEXT	ENDS
;	COMDAT ?max_size@?$allocator@D@std@@QBEIXZ
_TEXT	SEGMENT PARA USE32 PUBLIC 'CODE'
_TEXT	ENDS
;	COMDAT ?allocate@?$allocator@D@std@@QAEPADI@Z
_TEXT	SEGMENT PARA USE32 PUBLIC 'CODE'
_TEXT	ENDS
;	COMDAT ??$_Allocate@D@std@@YAPADIPAD@Z
_TEXT	SEGMENT PARA USE32 PUBLIC 'CODE'
_TEXT	ENDS
;	COMDAT __CTA3?AVlength_error@std@@
xdata$x	SEGMENT DWORD USE32 PUBLIC 'CONST'
xdata$x	ENDS
;	COMDAT ??1length_error@std@@UAE@XZ
_TEXT	SEGMENT PARA USE32 PUBLIC 'CODE'
_TEXT	ENDS
;	COMDAT __CT??_R0?AVexception@@@8??0exception@@QAE@ABV0@@Z12
xdata$x	SEGMENT DWORD USE32 PUBLIC 'CONST'
xdata$x	ENDS
;	COMDAT __CT??_R0?AVlogic_error@std@@@8??0logic_error@std@@QAE@ABV01@@Z40
xdata$x	SEGMENT DWORD USE32 PUBLIC 'CONST'
xdata$x	ENDS
;	COMDAT __CT??_R0?AVlength_error@std@@@8??0length_error@std@@QAE@ABV01@@Z40
xdata$x	SEGMENT DWORD USE32 PUBLIC 'CONST'
xdata$x	ENDS
;	COMDAT ??_R0?AVlength_error@std@@@8
_DATA	SEGMENT DWORD USE32 PUBLIC 'DATA'
_DATA	ENDS
;	COMDAT __TI3?AVlength_error@std@@
xdata$x	SEGMENT DWORD USE32 PUBLIC 'CONST'
xdata$x	ENDS
;	COMDAT ??0length_error@std@@QAE@ABV?$basic_string@DU?$char_traits@D@std@@V?$allocator@D@2@@1@@Z
_TEXT	SEGMENT PARA USE32 PUBLIC 'CODE'
_TEXT	ENDS
;	COMDAT ??0logic_error@std@@QAE@ABV?$basic_string@DU?$char_traits@D@std@@V?$allocator@D@2@@1@@Z
_TEXT	SEGMENT PARA USE32 PUBLIC 'CODE'
_TEXT	ENDS
;	COMDAT ??$_Maklocchr@_W@std@@YA_WDPA_WABU_Cvtvec@@@Z
_TEXT	SEGMENT PARA USE32 PUBLIC 'CODE'
_TEXT	ENDS
;	COMDAT ??$_DebugHeapDelete@X@std@@YAXPAX@Z
_TEXT	SEGMENT PARA USE32 PUBLIC 'CODE'
_TEXT	ENDS
;	COMDAT ??$_Maklocstr@_W@std@@YAPA_WPBDPA_WABU_Cvtvec@@@Z
_TEXT	SEGMENT PARA USE32 PUBLIC 'CODE'
_TEXT	ENDS
;	COMDAT ??$_Maklocchr@D@std@@YADDPADABU_Cvtvec@@@Z
_TEXT	SEGMENT PARA USE32 PUBLIC 'CODE'
_TEXT	ENDS
;	COMDAT ??_C@_04LOAJBDKD@true?$AA@
CONST	SEGMENT DWORD USE32 PUBLIC 'CONST'
CONST	ENDS
;	COMDAT ??_C@_05LAPONLG@false?$AA@
CONST	SEGMENT DWORD USE32 PUBLIC 'CONST'
CONST	ENDS
;	COMDAT _wmemcpy
_TEXT	SEGMENT PARA USE32 PUBLIC 'CODE'
_TEXT	ENDS
;	COMDAT ?max_size@?$allocator@_W@std@@QBEIXZ
_TEXT	SEGMENT PARA USE32 PUBLIC 'CODE'
_TEXT	ENDS
;	COMDAT ?allocate@?$allocator@_W@std@@QAEPA_WI@Z
_TEXT	SEGMENT PARA USE32 PUBLIC 'CODE'
_TEXT	ENDS
;	COMDAT ??$_Allocate@_W@std@@YAPA_WIPA_W@Z
_TEXT	SEGMENT PARA USE32 PUBLIC 'CODE'
_TEXT	ENDS
;	COMDAT ??_C@_0N@ILOMLJGA@nLength?5?$DO?$DN?50?$AA@
CONST	SEGMENT DWORD USE32 PUBLIC 'CONST'
CONST	ENDS
;	COMDAT ??_C@_0CD@EEFFJEGJ@nLength?5?$DM?$DN?5GetData?$CI?$CJ?9?$DOnAllocLeng@
CONST	SEGMENT DWORD USE32 PUBLIC 'CONST'
CONST	ENDS
;	COMDAT ?data@CStringData@ATL@@QAEPAXXZ
_TEXT	SEGMENT PARA USE32 PUBLIC 'CODE'
_TEXT	ENDS
;	COMDAT ?AtlThrow@ATL@@YGXJ@Z
_TEXT	SEGMENT PARA USE32 PUBLIC 'CODE'
_TEXT	ENDS
;	COMDAT ??RCTraceFileAndLineInfo@ATL@@QBAXKIPBDZZ
_TEXT	SEGMENT PARA USE32 PUBLIC 'CODE'
_TEXT	ENDS
;	COMDAT ?TraceV@CTrace@ATL@@QBAXPBDHKI0PAD@Z
_TEXT	SEGMENT PARA USE32 PUBLIC 'CODE'
_TEXT	ENDS
;	COMDAT ??0CTraceFileAndLineInfo@ATL@@QAE@PBDH@Z
_TEXT	SEGMENT PARA USE32 PUBLIC 'CODE'
_TEXT	ENDS
;	COMDAT ??_C@_0FI@NHHJANPC@D?3?2Program?5Files?5?$CIx86?$CJ?2Microsoft@
CONST	SEGMENT DWORD USE32 PUBLIC 'CONST'
CONST	ENDS
;	COMDAT ??_C@_0BF@IAAKIJDJ@AtlThrow?3?5hr?5?$DN?50x?$CFx?6?$AA@
CONST	SEGMENT DWORD USE32 PUBLIC 'CONST'
CONST	ENDS
;	COMDAT ??BCTraceCategory@ATL@@QBEKXZ
_TEXT	SEGMENT PARA USE32 PUBLIC 'CODE'
_TEXT	ENDS
;	COMDAT ??_C@_0FJ@DMHPDOJC@D?3?2Program?5Files?5?$CIx86?$CJ?2Microsoft@
CONST	SEGMENT DWORD USE32 PUBLIC 'CONST'
CONST	ENDS
;	COMDAT ??_C@_0BA@GOIMFHNK@pStringMgr?5?$CB?$DN?50?$AA@
CONST	SEGMENT DWORD USE32 PUBLIC 'CONST'
CONST	ENDS
;	COMDAT ??_C@_01GFHCPBMG@C?$AA@
CONST	SEGMENT DWORD USE32 PUBLIC 'CONST'
CONST	ENDS
;	COMDAT ?Release@CStringData@ATL@@QAEXXZ
_TEXT	SEGMENT PARA USE32 PUBLIC 'CODE'
_TEXT	ENDS
;	COMDAT ??_C@_0L@OIIMFBNE@nRefs?5?$CB?$DN?50?$AA@
CONST	SEGMENT DWORD USE32 PUBLIC 'CONST'
CONST	ENDS
;	COMDAT ??_C@_0BA@GNIEOBOF@nNewLength?5?$DO?$DN?50?$AA@
CONST	SEGMENT DWORD USE32 PUBLIC 'CONST'
CONST	ENDS
;	COMDAT ?IsShared@CStringData@ATL@@QBE_NXZ
_TEXT	SEGMENT PARA USE32 PUBLIC 'CODE'
_TEXT	ENDS
;	COMDAT ??_C@_0CB@GFHAPKDK@pOldData?9?$DOnAllocLength?5?$DM?5nLength@
CONST	SEGMENT DWORD USE32 PUBLIC 'CONST'
CONST	ENDS
;	COMDAT ?_Peek@?$istreambuf_iterator@_WU?$char_traits@_W@std@@@std@@AAE_WXZ
_TEXT	SEGMENT PARA USE32 PUBLIC 'CODE'
_TEXT	ENDS
;	COMDAT ?_Peek@?$istreambuf_iterator@DU?$char_traits@D@std@@@std@@AAEDXZ
_TEXT	SEGMENT PARA USE32 PUBLIC 'CODE'
_TEXT	ENDS
;	COMDAT ??$use_facet@V?$ctype@_W@std@@@std@@YAABV?$ctype@_W@0@ABVlocale@0@@Z
_TEXT	SEGMENT PARA USE32 PUBLIC 'CODE'
_TEXT	ENDS
;	COMDAT ??_S?$ctype@_W@std@@6B@
CONST	SEGMENT DWORD USE32 PUBLIC 'CONST'
CONST	ENDS
;	COMDAT ??_R4?$ctype@_W@std@@6B@
rdata$r	SEGMENT DWORD USE32 PUBLIC 'CONST'
rdata$r	ENDS
;	COMDAT ??_R0?AV?$ctype@_W@std@@@8
_DATA	SEGMENT DWORD USE32 PUBLIC 'DATA'
_DATA	ENDS
;	COMDAT ??_R3?$ctype@_W@std@@8
rdata$r	SEGMENT DWORD USE32 PUBLIC 'CONST'
rdata$r	ENDS
;	COMDAT ??_R2?$ctype@_W@std@@8
rdata$r	SEGMENT DWORD USE32 PUBLIC 'CONST'
rdata$r	ENDS
;	COMDAT ??_R1A@?0A@A@?$ctype@_W@std@@8
rdata$r	SEGMENT DWORD USE32 PUBLIC 'CONST'
rdata$r	ENDS
;	COMDAT ??_R1A@?0A@A@ctype_base@std@@8
rdata$r	SEGMENT DWORD USE32 PUBLIC 'CONST'
rdata$r	ENDS
;	COMDAT ??_R0?AUctype_base@std@@@8
_DATA	SEGMENT DWORD USE32 PUBLIC 'DATA'
_DATA	ENDS
;	COMDAT ??_G?$ctype@_W@std@@MAEPAXI@Z
_TEXT	SEGMENT PARA USE32 PUBLIC 'CODE'
_TEXT	ENDS
;	COMDAT ??_C@_08EPJLHIJG@bad?5cast?$AA@
CONST	SEGMENT DWORD USE32 PUBLIC 'CONST'
CONST	ENDS
;	COMDAT __TI2?AVbad_cast@@
xdata$x	SEGMENT DWORD USE32 PUBLIC 'CONST'
xdata$x	ENDS
;	COMDAT __CTA2?AVbad_cast@@
xdata$x	SEGMENT DWORD USE32 PUBLIC 'CONST'
xdata$x	ENDS
;	COMDAT __CT??_R0?AVbad_cast@@@8??0bad_cast@@QAE@ABV0@@Z12
xdata$x	SEGMENT DWORD USE32 PUBLIC 'CONST'
xdata$x	ENDS
;	COMDAT ??_R0?AVbad_cast@@@8
_DATA	SEGMENT DWORD USE32 PUBLIC 'DATA'
_DATA	ENDS
;	COMDAT ??$_DebugHeapDelete@Vfacet@locale@std@@@std@@YAXPAVfacet@locale@0@@Z
_TEXT	SEGMENT PARA USE32 PUBLIC 'CODE'
_TEXT	ENDS
;	COMDAT ??$use_facet@V?$ctype@D@std@@@std@@YAABV?$ctype@D@0@ABVlocale@0@@Z
_TEXT	SEGMENT PARA USE32 PUBLIC 'CODE'
_TEXT	ENDS
;	COMDAT ??_S?$ctype@D@std@@6B@
CONST	SEGMENT DWORD USE32 PUBLIC 'CONST'
CONST	ENDS
;	COMDAT ??_R4?$ctype@D@std@@6B@
rdata$r	SEGMENT DWORD USE32 PUBLIC 'CONST'
rdata$r	ENDS
;	COMDAT ??_R0?AV?$ctype@D@std@@@8
_DATA	SEGMENT DWORD USE32 PUBLIC 'DATA'
_DATA	ENDS
;	COMDAT ??_R3?$ctype@D@std@@8
rdata$r	SEGMENT DWORD USE32 PUBLIC 'CONST'
rdata$r	ENDS
;	COMDAT ??_R2?$ctype@D@std@@8
rdata$r	SEGMENT DWORD USE32 PUBLIC 'CONST'
rdata$r	ENDS
;	COMDAT ??_R1A@?0A@A@?$ctype@D@std@@8
rdata$r	SEGMENT DWORD USE32 PUBLIC 'CONST'
rdata$r	ENDS
;	COMDAT ??_G?$ctype@D@std@@MAEPAXI@Z
_TEXT	SEGMENT PARA USE32 PUBLIC 'CODE'
_TEXT	ENDS
;	COMDAT ??_S?$numpunct@_W@std@@6B@
CONST	SEGMENT DWORD USE32 PUBLIC 'CONST'
CONST	ENDS
;	COMDAT ??_S?$numpunct@D@std@@6B@
CONST	SEGMENT DWORD USE32 PUBLIC 'CONST'
CONST	ENDS
;	COMDAT _wmemmove
_TEXT	SEGMENT PARA USE32 PUBLIC 'CODE'
_TEXT	ENDS
;	COMDAT ?deallocate@?$allocator@_W@std@@QAEXPA_WI@Z
_TEXT	SEGMENT PARA USE32 PUBLIC 'CODE'
_TEXT	ENDS
;	COMDAT ??0?$allocator@_W@std@@QAE@ABV01@@Z
_TEXT	SEGMENT PARA USE32 PUBLIC 'CODE'
_TEXT	ENDS
;	COMDAT ??_R0?AVIMessageObserver@@@8
_DATA	SEGMENT DWORD USE32 PUBLIC 'DATA'
_DATA	ENDS
;	COMDAT ??_R0?AVIQQItemCountChangeObserver@@@8
_DATA	SEGMENT DWORD USE32 PUBLIC 'DATA'
_DATA	ENDS
;	COMDAT ??$?HDU?$char_traits@D@std@@V?$allocator@D@1@@std@@YA?AV?$basic_string@DU?$char_traits@D@std@@V?$allocator@D@2@@0@ABV10@PBD@Z
_TEXT	SEGMENT PARA USE32 PUBLIC 'CODE'
_TEXT	ENDS
;	COMDAT ??0?$allocator@D@std@@QAE@XZ
_TEXT	SEGMENT PARA USE32 PUBLIC 'CODE'
_TEXT	ENDS
;	COMDAT ??_7ILocalGameData@@6B@
CONST	SEGMENT DWORD USE32 PUBLIC 'CONST'
CONST	ENDS
;	COMDAT ??_7LocalGameData@@6B@
CONST	SEGMENT DWORD USE32 PUBLIC 'CONST'
CONST	ENDS
;	COMDAT ?IsLocked@CStringData@ATL@@QBE_NXZ
_TEXT	SEGMENT PARA USE32 PUBLIC 'CODE'
_TEXT	ENDS
;	COMDAT ??_7CMarkupArchive@@6B@
CONST	SEGMENT DWORD USE32 PUBLIC 'CONST'
CONST	ENDS
;	COMDAT __tcschr
_TEXT	SEGMENT PARA USE32 PUBLIC 'CODE'
_TEXT	ENDS
;	COMDAT __tcsnccmp
_TEXT	SEGMENT PARA USE32 PUBLIC 'CODE'
_TEXT	ENDS
;	COMDAT ?GetDefaultManager@?$StrTraitMFC_DLL@DV?$ChTraitsCRT@D@ATL@@@@SAPAUIAtlStringMgr@ATL@@XZ
_TEXT	SEGMENT PARA USE32 PUBLIC 'CODE'
_TEXT	ENDS
;	COMDAT ??_7CMarkup@@6B@
CONST	SEGMENT DWORD USE32 PUBLIC 'CONST'
CONST	ENDS
;	COMDAT ?c_bIsMFCDLLTraits@?$_MFCDLLTraitsCheck@_WV?$StrTraitATL@_WV?$ChTraitsCRT@_W@ATL@@@ATL@@@_CSTRING_IMPL_@ATL@@2_NB
CONST	SEGMENT DWORD USE32 PUBLIC 'CONST'
CONST	ENDS
;	COMDAT ?c_bIsMFCDLLTraits@?$_MFCDLLTraitsCheck@DV?$StrTraitATL@DV?$ChTraitsCRT@D@ATL@@@ATL@@@_CSTRING_IMPL_@ATL@@2_NB
CONST	SEGMENT DWORD USE32 PUBLIC 'CONST'
CONST	ENDS
;	COMDAT ?_AtlGetConversionACP@ATL@@YGIXZ
_TEXT	SEGMENT PARA USE32 PUBLIC 'CODE'
_TEXT	ENDS
;	COMDAT ?g_pfnGetThreadACP@ATL@@3P6GIXZA
_DATA	SEGMENT DWORD USE32 PUBLIC 'DATA'
_DATA	ENDS
;	COMDAT ?_AtlGetThreadACPThunk@ATL@@YGIXZ
_TEXT	SEGMENT PARA USE32 PUBLIC 'CODE'
_TEXT	ENDS
;	COMDAT ?_AtlGetThreadACPReal@ATL@@YGIXZ
_TEXT	SEGMENT PARA USE32 PUBLIC 'CODE'
_TEXT	ENDS
;	COMDAT ?_AtlGetThreadACPFake@ATL@@YGIXZ
_TEXT	SEGMENT PARA USE32 PUBLIC 'CODE'
_TEXT	ENDS
;	COMDAT ?InterlockedExchangePointer@@YGPAXPAPAXPAX@Z
_TEXT	SEGMENT PARA USE32 PUBLIC 'CODE'
_TEXT	ENDS
;	COMDAT ??_C@_09BBJEMDLA@nRet?5?$CB?$DN?50?$AA@
CONST	SEGMENT DWORD USE32 PUBLIC 'CONST'
CONST	ENDS
;	COMDAT ?_strthunks@ATL@@3U_AtlStringThunks@1@A
_DATA	SEGMENT DWORD USE32 PUBLIC 'DATA'
_DATA	ENDS
;	COMDAT ?CompareStringWThunk@ATL@@YGHKKPB_WH0H@Z
_TEXT	SEGMENT PARA USE32 PUBLIC 'CODE'
_TEXT	ENDS
;	COMDAT ?_AtlInstallStringThunk@ATL@@YAXPAPAXPAX1@Z
_TEXT	SEGMENT PARA USE32 PUBLIC 'CODE'
_TEXT	ENDS
;	COMDAT ??_B?1??_AtlInstallStringThunk@ATL@@YAXPAPAXPAX1@Z@51
_BSS	SEGMENT DWORD USE32 PUBLIC 'BSS'
_BSS	ENDS
;	COMDAT ?s_bWin9x@?1??_AtlInstallStringThunk@ATL@@YAXPAPAXPAX1@Z@4_NA
_BSS	SEGMENT DWORD USE32 PUBLIC 'BSS'
_BSS	ENDS
;	COMDAT ?CompareStringWFake@ATL@@YGHKKPB_WH0H@Z
_TEXT	SEGMENT PARA USE32 PUBLIC 'CODE'
_TEXT	ENDS
;	COMDAT ??0?$CAtlSafeAllocBufferManager@VCCRTAllocator@ATL@@@_ATL_SAFE_ALLOCA_IMPL@ATL@@QAE@XZ
_TEXT	SEGMENT PARA USE32 PUBLIC 'CODE'
_TEXT	ENDS
;	COMDAT ??1?$CAtlSafeAllocBufferManager@VCCRTAllocator@ATL@@@_ATL_SAFE_ALLOCA_IMPL@ATL@@QAE@XZ
_TEXT	SEGMENT PARA USE32 PUBLIC 'CODE'
_TEXT	ENDS
;	COMDAT ?Free@CCRTAllocator@ATL@@SAXPAX@Z
_TEXT	SEGMENT PARA USE32 PUBLIC 'CODE'
_TEXT	ENDS
;	COMDAT ?AtlW2AHelper@@YGPADPADPB_WHI@Z
_TEXT	SEGMENT PARA USE32 PUBLIC 'CODE'
_TEXT	ENDS
;	COMDAT ??_C@_08DIHJLFDJ@lpw?5?$CB?$DN?50?$AA@
CONST	SEGMENT DWORD USE32 PUBLIC 'CONST'
CONST	ENDS
;	COMDAT ??_C@_08DMHHBMMN@lpa?5?$CB?$DN?50?$AA@
CONST	SEGMENT DWORD USE32 PUBLIC 'CONST'
CONST	ENDS
;	COMDAT ??_C@_01GBGANLPD@0?$AA@
CONST	SEGMENT DWORD USE32 PUBLIC 'CONST'
CONST	ENDS
;	COMDAT ??_C@_0FG@PFHCBDBK@D?3?2Program?5Files?5?$CIx86?$CJ?2Microsoft@
CONST	SEGMENT DWORD USE32 PUBLIC 'CONST'
CONST	ENDS
;	COMDAT ?_AtlVerifyStackAvailable@_ATL_SAFE_ALLOCA_IMPL@ATL@@YA_NK@Z
_TEXT	SEGMENT PARA USE32 PUBLIC 'CODE'
_TEXT	ENDS
;	COMDAT ?Allocate@?$CAtlSafeAllocBufferManager@VCCRTAllocator@ATL@@@_ATL_SAFE_ALLOCA_IMPL@ATL@@QAEPAXK@Z
_TEXT	SEGMENT PARA USE32 PUBLIC 'CODE'
_TEXT	ENDS
;	COMDAT ?Allocate@CCRTAllocator@ATL@@SAPAXI@Z
_TEXT	SEGMENT PARA USE32 PUBLIC 'CODE'
_TEXT	ENDS
;	COMDAT ?GetData@CAtlSafeAllocBufferNode@?$CAtlSafeAllocBufferManager@VCCRTAllocator@ATL@@@_ATL_SAFE_ALLOCA_IMPL@ATL@@QAEPAXXZ
_TEXT	SEGMENT PARA USE32 PUBLIC 'CODE'
_TEXT	ENDS
;	COMDAT ?GetStringTypeExWThunk@ATL@@YGHKKPB_WHPAG@Z
_TEXT	SEGMENT PARA USE32 PUBLIC 'CODE'
_TEXT	ENDS
;	COMDAT ?GetStringTypeExWFake@ATL@@YGHKKPB_WHPAG@Z
_TEXT	SEGMENT PARA USE32 PUBLIC 'CODE'
_TEXT	ENDS
;	COMDAT ??0?$CTempBuffer@D$0IA@VCCRTAllocator@ATL@@@ATL@@QAE@XZ
_TEXT	SEGMENT PARA USE32 PUBLIC 'CODE'
_TEXT	ENDS
;	COMDAT ??1?$CTempBuffer@D$0IA@VCCRTAllocator@ATL@@@ATL@@QAE@XZ
_TEXT	SEGMENT PARA USE32 PUBLIC 'CODE'
_TEXT	ENDS
;	COMDAT ?FreeHeap@?$CTempBuffer@D$0IA@VCCRTAllocator@ATL@@@ATL@@AAEXXZ
_TEXT	SEGMENT PARA USE32 PUBLIC 'CODE'
_TEXT	ENDS
;	COMDAT ?Allocate@?$CTempBuffer@D$0IA@VCCRTAllocator@ATL@@@ATL@@QAEPADI@Z
_TEXT	SEGMENT PARA USE32 PUBLIC 'CODE'
_TEXT	ENDS
;	COMDAT ?AllocateBytes@?$CTempBuffer@D$0IA@VCCRTAllocator@ATL@@@ATL@@QAEPADI@Z
_TEXT	SEGMENT PARA USE32 PUBLIC 'CODE'
_TEXT	ENDS
;	COMDAT ??_C@_08GPODJFIN@m_p?5?$DN?$DN?50?$AA@
CONST	SEGMENT DWORD USE32 PUBLIC 'CONST'
CONST	ENDS
;	COMDAT ??_C@_0FH@BOCPFCEM@D?3?2Program?5Files?5?$CIx86?$CJ?2Microsoft@
CONST	SEGMENT DWORD USE32 PUBLIC 'CONST'
CONST	ENDS
;	COMDAT ?AllocateHeap@?$CTempBuffer@D$0IA@VCCRTAllocator@ATL@@@ATL@@AAEXI@Z
_TEXT	SEGMENT PARA USE32 PUBLIC 'CODE'
_TEXT	ENDS
;	COMDAT ??B?$CTempBuffer@D$0IA@VCCRTAllocator@ATL@@@ATL@@QBEPADXZ
_TEXT	SEGMENT PARA USE32 PUBLIC 'CODE'
_TEXT	ENDS
;	COMDAT ?lstrcmpiWThunk@ATL@@YGHPB_W0@Z
_TEXT	SEGMENT PARA USE32 PUBLIC 'CODE'
_TEXT	ENDS
;	COMDAT ?lstrcmpiWFake@ATL@@YGHPB_W0@Z
_TEXT	SEGMENT PARA USE32 PUBLIC 'CODE'
_TEXT	ENDS
;	COMDAT ?CharLowerWThunk@ATL@@YGPA_WPA_W@Z
_TEXT	SEGMENT PARA USE32 PUBLIC 'CODE'
_TEXT	ENDS
;	COMDAT ?CharLowerWFake@ATL@@YGPA_WPA_W@Z
_TEXT	SEGMENT PARA USE32 PUBLIC 'CODE'
_TEXT	ENDS
;	COMDAT ?AtlA2WHelper@@YGPA_WPA_WPBDHI@Z
_TEXT	SEGMENT PARA USE32 PUBLIC 'CODE'
_TEXT	ENDS
;	COMDAT ?CharUpperWThunk@ATL@@YGPA_WPA_W@Z
_TEXT	SEGMENT PARA USE32 PUBLIC 'CODE'
_TEXT	ENDS
;	COMDAT ?CharUpperWFake@ATL@@YGPA_WPA_W@Z
_TEXT	SEGMENT PARA USE32 PUBLIC 'CODE'
_TEXT	ENDS
;	COMDAT ?GetEnvironmentVariableWThunk@ATL@@YGKPB_WPA_WK@Z
_TEXT	SEGMENT PARA USE32 PUBLIC 'CODE'
_TEXT	ENDS
;	COMDAT ?GetEnvironmentVariableWFake@ATL@@YGKPB_WPA_WK@Z
_TEXT	SEGMENT PARA USE32 PUBLIC 'CODE'
_TEXT	ENDS
;	COMDAT ??0?$CW2AEX@$0IA@@ATL@@QAE@PB_W@Z
_TEXT	SEGMENT PARA USE32 PUBLIC 'CODE'
_TEXT	ENDS
;	COMDAT ?Init@?$CW2AEX@$0IA@@ATL@@AAEXPB_WI@Z
_TEXT	SEGMENT PARA USE32 PUBLIC 'CODE'
_TEXT	ENDS
;	COMDAT ?AtlThrowLastWin32@ATL@@YGXXZ
_TEXT	SEGMENT PARA USE32 PUBLIC 'CODE'
_TEXT	ENDS
;	COMDAT ??1?$CW2AEX@$0IA@@ATL@@QAE@XZ
_TEXT	SEGMENT PARA USE32 PUBLIC 'CODE'
_TEXT	ENDS
;	COMDAT ??B?$CW2AEX@$0IA@@ATL@@QBEPADXZ
_TEXT	SEGMENT PARA USE32 PUBLIC 'CODE'
_TEXT	ENDS
;	COMDAT ??_C@_0BA@CLMJJCOM@nSize?5?$DO?$DN?5nSizeW?$AA@
CONST	SEGMENT DWORD USE32 PUBLIC 'CONST'
CONST	ENDS
;	COMDAT ??_C@_0FH@KDPNIMBO@D?3?2Program?5Files?5?$CIx86?$CJ?2Microsoft@
CONST	SEGMENT DWORD USE32 PUBLIC 'CONST'
CONST	ENDS
;	COMDAT ?AddRef@CStringData@ATL@@QAEXXZ
_TEXT	SEGMENT PARA USE32 PUBLIC 'CODE'
_TEXT	ENDS
;	COMDAT ??_C@_09EEBKLCFA@nRefs?5?$DO?50?$AA@
CONST	SEGMENT DWORD USE32 PUBLIC 'CONST'
CONST	ENDS
;	COMDAT ?SetManager@CNilStringData@ATL@@QAEXPAUIAtlStringMgr@2@@Z
_TEXT	SEGMENT PARA USE32 PUBLIC 'CODE'
_TEXT	ENDS
;	COMDAT ??_C@_0BA@MLJMCNFJ@pStringMgr?5?$DN?$DN?50?$AA@
CONST	SEGMENT DWORD USE32 PUBLIC 'CONST'
CONST	ENDS
;	COMDAT ??0CNilStringData@ATL@@QAE@XZ
_TEXT	SEGMENT PARA USE32 PUBLIC 'CODE'
_TEXT	ENDS
;	COMDAT ??_7CAtlStringMgr@ATL@@6B@
CONST	SEGMENT DWORD USE32 PUBLIC 'CONST'
CONST	ENDS
;	COMDAT ??_7IData@@6B@
CONST	SEGMENT DWORD USE32 PUBLIC 'CONST'
CONST	ENDS
sxdata	SEGMENT DWORD USE32 'SXDATA'
sxdata	ENDS
FLAT	GROUP _DATA, CONST, _BSS
	ASSUME	CS: FLAT, DS: FLAT, SS: FLAT
endif

INCLUDELIB MSVCRTD
INCLUDELIB OLDNAMES

PUBLIC	?c_bIsMFCDLLTraits@?$_MFCDLLTraitsCheck@_WV?$StrTraitATL@_WV?$ChTraitsCRT@_W@ATL@@@ATL@@@_CSTRING_IMPL_@ATL@@2_NB ; ATL::_CSTRING_IMPL_::_MFCDLLTraitsCheck<wchar_t,ATL::StrTraitATL<wchar_t,ATL::ChTraitsCRT<wchar_t> > >::c_bIsMFCDLLTraits
PUBLIC	?g_pfnGetThreadACP@ATL@@3P6GIXZA		; ATL::g_pfnGetThreadACP
PUBLIC	?_AtlGetThreadACPThunk@ATL@@YGIXZ		; ATL::_AtlGetThreadACPThunk
PUBLIC	?c_bIsMFCDLLTraits@?$_MFCDLLTraitsCheck@DV?$StrTraitATL@DV?$ChTraitsCRT@D@ATL@@@ATL@@@_CSTRING_IMPL_@ATL@@2_NB ; ATL::_CSTRING_IMPL_::_MFCDLLTraitsCheck<char,ATL::StrTraitATL<char,ATL::ChTraitsCRT<char> > >::c_bIsMFCDLLTraits
PUBLIC	?_strthunks@ATL@@3U_AtlStringThunks@1@A		; ATL::_strthunks
PUBLIC	?GetEnvironmentVariableWThunk@ATL@@YGKPB_WPA_WK@Z ; ATL::GetEnvironmentVariableWThunk
PUBLIC	?CompareStringWThunk@ATL@@YGHKKPB_WH0H@Z	; ATL::CompareStringWThunk
PUBLIC	?GetStringTypeExWThunk@ATL@@YGHKKPB_WHPAG@Z	; ATL::GetStringTypeExWThunk
PUBLIC	?lstrcmpiWThunk@ATL@@YGHPB_W0@Z			; ATL::lstrcmpiWThunk
PUBLIC	?CharLowerWThunk@ATL@@YGPA_WPA_W@Z		; ATL::CharLowerWThunk
PUBLIC	?CharUpperWThunk@ATL@@YGPA_WPA_W@Z		; ATL::CharUpperWThunk
PUBLIC	?m_pData@LocalGameData@@2PAV1@A			; LocalGameData::m_pData
_BSS	SEGMENT
?m_pData@LocalGameData@@2PAV1@A DD 01H DUP (?)		; LocalGameData::m_pData
_BSS	ENDS
;	COMDAT ?c_bIsMFCDLLTraits@?$_MFCDLLTraitsCheck@DV?$StrTraitATL@DV?$ChTraitsCRT@D@ATL@@@ATL@@@_CSTRING_IMPL_@ATL@@2_NB
CONST	SEGMENT
?c_bIsMFCDLLTraits@?$_MFCDLLTraitsCheck@DV?$StrTraitATL@DV?$ChTraitsCRT@D@ATL@@@ATL@@@_CSTRING_IMPL_@ATL@@2_NB DB 00H ; ATL::_CSTRING_IMPL_::_MFCDLLTraitsCheck<char,ATL::StrTraitATL<char,ATL::ChTraitsCRT<char> > >::c_bIsMFCDLLTraits
CONST	ENDS
;	COMDAT ?c_bIsMFCDLLTraits@?$_MFCDLLTraitsCheck@_WV?$StrTraitATL@_WV?$ChTraitsCRT@_W@ATL@@@ATL@@@_CSTRING_IMPL_@ATL@@2_NB
CONST	SEGMENT
?c_bIsMFCDLLTraits@?$_MFCDLLTraitsCheck@_WV?$StrTraitATL@_WV?$ChTraitsCRT@_W@ATL@@@ATL@@@_CSTRING_IMPL_@ATL@@2_NB DB 00H ; ATL::_CSTRING_IMPL_::_MFCDLLTraitsCheck<wchar_t,ATL::StrTraitATL<wchar_t,ATL::ChTraitsCRT<wchar_t> > >::c_bIsMFCDLLTraits
CONST	ENDS
CONST	SEGMENT
$SG189671 DB	'%s\Resources\Profiles\usergame.xml', 00H
	ORG $+1
$SG189674 DB	'm_strDataFilePath:%s', 00H
	ORG $+3
$SG189675 DB	'DataAppStart', 00H
	ORG $+3
$SG189676 DB	'LocalGameData.txt', 00H
	ORG $+2
$SG189695 DB	'id', 00H
	ORG $+1
$SG189698 DB	'name', 00H
	ORG $+3
$SG189701 DB	'intro', 00H
	ORG $+2
$SG189704 DB	'pic', 00H
$SG189707 DB	'swf', 00H
$SG189710 DB	'lastplaytime', 00H
	ORG $+3
$SG189713 DB	'playcount', 00H
	ORG $+2
$SG189716 DB	'type', 00H
	ORG $+3
$SG189719 DB	'MD5', 00H
$SG189720 DB	'id', 00H
	ORG $+1
$SG189721 DB	'name', 00H
	ORG $+3
$SG189722 DB	'intro', 00H
	ORG $+2
$SG189723 DB	'pic', 00H
$SG189724 DB	'swf', 00H
$SG189725 DB	'lastplaytime', 00H
	ORG $+3
$SG189726 DB	'playcount', 00H
	ORG $+2
$SG189727 DB	'type', 00H
	ORG $+3
$SG189728 DB	'MD5', 00H
$SG189734 DB	'm_strDataFilePath:%s', 00H
	ORG $+3
$SG189735 DB	'LoadGameData', 00H
	ORG $+3
$SG189736 DB	'LocalGameData.txt', 00H
	ORG $+2
$SG189741 DB	'CMarkupArchive::Open success', 00H
	ORG $+3
$SG189742 DB	'LoadGameData', 00H
	ORG $+3
$SG189743 DB	'LocalGameData.txt', 00H
	ORG $+2
$SG189750 DB	'Id', 00H
	ORG $+1
$SG189752 DB	'Name', 00H
	ORG $+3
$SG189754 DB	'Intro', 00H
	ORG $+2
$SG189756 DB	'Img', 00H
$SG189758 DB	'AppPath', 00H
$SG189762 DB	0ceH, 0c4H, 0bcH, 0feH, 0b4H, 0e6H, 0d4H, 0daH, ':%s', 00H
$SG189763 DB	'LoadGameData', 00H
	ORG $+3
$SG189764 DB	'LocalGameData.txt', 00H
	ORG $+2
$SG189768 DB	0ceH, 0c4H, 0bcH, 0feH, 0b2H, 0bbH, 0b4H, 0e6H, 0d4H, 0daH
	DB	':%s', 00H
	ORG $+2
$SG189769 DB	'LoadGameData', 00H
	ORG $+3
$SG189770 DB	'LocalGameData.txt', 00H
	ORG $+2
$SG189778 DB	'.1', 00H
	ORG $+1
$SG189780 DB	'<?xml version="1.0" encoding="GBK"?><root/>', 00H
$SG189907 DB	'app', 00H
$SG189908 DB	'Id', 00H
	ORG $+1
$SG189909 DB	'Name', 00H
	ORG $+3
$SG189910 DB	'Intro', 00H
	ORG $+2
$SG189911 DB	'Img', 00H
$SG189912 DB	'AppPath', 00H
$SG191037 DB	'D:\Program Files (x86)\Microsoft Visual Studio .NET 2003'
	DB	'\Vc7\atlmfc\include\afxtempl.h', 00H
	ORG $+1
$SG191051 DB	'D:\Program Files (x86)\Microsoft Visual Studio .NET 2003'
	DB	'\Vc7\atlmfc\include\afxtempl.h', 00H
	ORG $+1
$SG191067 DB	'with ', 00H
	ORG $+2
$SG191068 DB	' elements', 00H
	ORG $+2
$SG191070 DB	0aH, 00H
	ORG $+2
$SG191077 DB	0aH, 00H
	ORG $+6
$SG191085 DB	'D:\Program Files (x86)\Microsoft Visual Studio .NET 2003'
	DB	'\Vc7\atlmfc\include\afxtempl.h', 00H
	ORG $+1
$SG191087 DB	'D:\Program Files (x86)\Microsoft Visual Studio .NET 2003'
	DB	'\Vc7\atlmfc\include\afxtempl.h', 00H
	ORG $+1
$SG191090 DB	'D:\Program Files (x86)\Microsoft Visual Studio .NET 2003'
	DB	'\Vc7\atlmfc\include\afxtempl.h', 00H
	ORG $+1
$SG191092 DB	'D:\Program Files (x86)\Microsoft Visual Studio .NET 2003'
	DB	'\Vc7\atlmfc\include\afxtempl.h', 00H
	ORG $+1
$SG191094 DB	'D:\Program Files (x86)\Microsoft Visual Studio .NET 2003'
	DB	'\Vc7\atlmfc\include\afxtempl.h', 00H
	ORG $+1
$SG191097 DB	'D:\Program Files (x86)\Microsoft Visual Studio .NET 2003'
	DB	'\Vc7\atlmfc\include\afxtempl.h', 00H
	ORG $+1
$SG191335 DB	'D:\Program Files (x86)\Microsoft Visual Studio .NET 2003'
	DB	'\Vc7\atlmfc\include\afxtempl.h', 00H
	ORG $+1
$SG191337 DB	'D:\Program Files (x86)\Microsoft Visual Studio .NET 2003'
	DB	'\Vc7\atlmfc\include\afxtempl.h', 00H
	ORG $+1
$SG191352 DB	'D:\Program Files (x86)\Microsoft Visual Studio .NET 2003'
	DB	'\Vc7\atlmfc\include\afxtempl.h', 00H
	ORG $+1
$SG191359 DB	'D:\Program Files (x86)\Microsoft Visual Studio .NET 2003'
	DB	'\Vc7\atlmfc\include\afxtempl.h', 00H
	ORG $+1
$SG191401 DB	'D:\Program Files (x86)\Microsoft Visual Studio .NET 2003'
	DB	'\Vc7\atlmfc\include\afxtempl.h', 00H
	ORG $+1
$SG191405 DB	'D:\Program Files (x86)\Microsoft Visual Studio .NET 2003'
	DB	'\Vc7\atlmfc\include\afxtempl.h', 00H
	ORG $+1
$SG191415 DB	'D:\Program Files (x86)\Microsoft Visual Studio .NET 2003'
	DB	'\Vc7\atlmfc\include\afxtempl.h', 00H
	ORG $+1
$SG191444 DB	'D:\Program Files (x86)\Microsoft Visual Studio .NET 2003'
	DB	'\Vc7\atlmfc\include\afxtempl.h', 00H
	ORG $+1
$SG191469 DB	'D:\Program Files (x86)\Microsoft Visual Studio .NET 2003'
	DB	'\Vc7\atlmfc\include\afxtempl.h', 00H
CONST	ENDS
;	COMDAT ?g_pfnGetThreadACP@ATL@@3P6GIXZA
_DATA	SEGMENT
?g_pfnGetThreadACP@ATL@@3P6GIXZA DD FLAT:?_AtlGetThreadACPThunk@ATL@@YGIXZ ; ATL::g_pfnGetThreadACP
_DATA	ENDS
;	COMDAT ?_strthunks@ATL@@3U_AtlStringThunks@1@A
_DATA	SEGMENT
?_strthunks@ATL@@3U_AtlStringThunks@1@A DD FLAT:?CompareStringWThunk@ATL@@YGHKKPB_WH0H@Z ; ATL::_strthunks
	DD	FLAT:?GetStringTypeExWThunk@ATL@@YGHKKPB_WHPAG@Z
	DD	FLAT:?lstrcmpiWThunk@ATL@@YGHPB_W0@Z
	DD	FLAT:?CharLowerWThunk@ATL@@YGPA_WPA_W@Z
	DD	FLAT:?CharUpperWThunk@ATL@@YGPA_WPA_W@Z
	DD	FLAT:?GetEnvironmentVariableWThunk@ATL@@YGKPB_WPA_WK@Z
_DATA	ENDS
CONST	SEGMENT
	ORG $+1
_ID_MESSAGE_QQ_ITEM_CHANGE DD 0eH
CONST	ENDS
PUBLIC	?InterlockedExchangePointer@@YGPAXPAPAXPAX@Z	; InterlockedExchangePointer
PUBLIC	?_AtlGetThreadACPFake@ATL@@YGIXZ		; ATL::_AtlGetThreadACPFake
PUBLIC	?_AtlGetThreadACPReal@ATL@@YGIXZ		; ATL::_AtlGetThreadACPReal
EXTRN	__imp__GetVersionExA@4:NEAR
EXTRN	__RTC_InitBase:NEAR
EXTRN	__RTC_Shutdown:NEAR
EXTRN	__RTC_CheckEsp:NEAR
EXTRN	___security_cookie:DWORD
EXTRN	@_RTC_CheckStackVars@8:NEAR
EXTRN	@__security_check_cookie@4:NEAR
;	COMDAT rtc$IMZ
; File d:\program files (x86)\microsoft visual studio .net 2003\vc7\atlmfc\include\atlconv.h
rtc$IMZ	SEGMENT
__RTC_InitBase.rtc$IMZ DD FLAT:__RTC_InitBase
rtc$IMZ	ENDS
;	COMDAT rtc$TMZ
rtc$TMZ	SEGMENT
__RTC_Shutdown.rtc$TMZ DD FLAT:__RTC_Shutdown
; Function compile flags: /Odt /RTCsu
rtc$TMZ	ENDS
;	COMDAT ?_AtlGetThreadACPThunk@ATL@@YGIXZ
_TEXT	SEGMENT
_pfnGetThreadACP$ = -164				; size = 4
_ver$ = -156						; size = 148
__$ArrayPad$ = -4					; size = 4
__$ReturnAddr$ = 4					; size = 4
?_AtlGetThreadACPThunk@ATL@@YGIXZ PROC NEAR		; ATL::_AtlGetThreadACPThunk, COMDAT

; 134  : {

  00000	55		 push	 ebp
  00001	8b ec		 mov	 ebp, esp
  00003	81 ec a4 00 00
	00		 sub	 esp, 164		; 000000a4H
  00009	56		 push	 esi
  0000a	57		 push	 edi
  0000b	8d bd 5c ff ff
	ff		 lea	 edi, DWORD PTR [ebp-164]
  00011	b9 29 00 00 00	 mov	 ecx, 41			; 00000029H
  00016	b8 cc cc cc cc	 mov	 eax, -858993460		; ccccccccH
  0001b	f3 ab		 rep stosd
  0001d	a1 00 00 00 00	 mov	 eax, DWORD PTR ___security_cookie
  00022	89 45 fc	 mov	 DWORD PTR __$ArrayPad$[ebp], eax

; 135  : 	OSVERSIONINFO ver;
; 136  : 	ATLGETTHREADACP pfnGetThreadACP;
; 137  : 
; 138  : 	ver.dwOSVersionInfoSize = sizeof( ver );

  00025	c7 85 64 ff ff
	ff 94 00 00 00	 mov	 DWORD PTR _ver$[ebp], 148 ; 00000094H

; 139  : 	::GetVersionEx( &ver );

  0002f	8b f4		 mov	 esi, esp
  00031	8d 85 64 ff ff
	ff		 lea	 eax, DWORD PTR _ver$[ebp]
  00037	50		 push	 eax
  00038	ff 15 00 00 00
	00		 call	 DWORD PTR __imp__GetVersionExA@4
  0003e	3b f4		 cmp	 esi, esp
  00040	e8 00 00 00 00	 call	 __RTC_CheckEsp

; 140  : 	if( (ver.dwPlatformId == VER_PLATFORM_WIN32_NT) && (ver.dwMajorVersion >= 5) )

  00045	83 bd 74 ff ff
	ff 02		 cmp	 DWORD PTR _ver$[ebp+16], 2
  0004c	75 15		 jne	 SHORT $L24163
  0004e	83 bd 68 ff ff
	ff 05		 cmp	 DWORD PTR _ver$[ebp+4], 5
  00055	72 0c		 jb	 SHORT $L24163

; 141  : 	{
; 142  : 		// On Win2K, CP_THREAD_ACP is supported
; 143  : 		pfnGetThreadACP = _AtlGetThreadACPReal;

  00057	c7 85 5c ff ff
	ff 00 00 00 00	 mov	 DWORD PTR _pfnGetThreadACP$[ebp], OFFSET FLAT:?_AtlGetThreadACPReal@ATL@@YGIXZ ; ATL::_AtlGetThreadACPReal

; 144  : 	}
; 145  : 	else

  00061	eb 0a		 jmp	 SHORT $L24164
$L24163:

; 146  : 	{
; 147  : 		pfnGetThreadACP = _AtlGetThreadACPFake;

  00063	c7 85 5c ff ff
	ff 00 00 00 00	 mov	 DWORD PTR _pfnGetThreadACP$[ebp], OFFSET FLAT:?_AtlGetThreadACPFake@ATL@@YGIXZ ; ATL::_AtlGetThreadACPFake
$L24164:

; 148  : 	}
; 149  : 	InterlockedExchangePointer( reinterpret_cast< void** >(&g_pfnGetThreadACP), pfnGetThreadACP );

  0006d	8b 8d 5c ff ff
	ff		 mov	 ecx, DWORD PTR _pfnGetThreadACP$[ebp]
  00073	51		 push	 ecx
  00074	68 00 00 00 00	 push	 OFFSET FLAT:?g_pfnGetThreadACP@ATL@@3P6GIXZA ; ATL::g_pfnGetThreadACP
  00079	e8 00 00 00 00	 call	 ?InterlockedExchangePointer@@YGPAXPAPAXPAX@Z ; InterlockedExchangePointer

; 150  : 
; 151  : 	return( g_pfnGetThreadACP() );

  0007e	8b f4		 mov	 esi, esp
  00080	ff 15 00 00 00
	00		 call	 DWORD PTR ?g_pfnGetThreadACP@ATL@@3P6GIXZA ; ATL::g_pfnGetThreadACP
  00086	3b f4		 cmp	 esi, esp
  00088	e8 00 00 00 00	 call	 __RTC_CheckEsp

; 152  : }

  0008d	52		 push	 edx
  0008e	8b cd		 mov	 ecx, ebp
  00090	50		 push	 eax
  00091	8d 15 00 00 00
	00		 lea	 edx, DWORD PTR $L192327
  00097	e8 00 00 00 00	 call	 @_RTC_CheckStackVars@8
  0009c	58		 pop	 eax
  0009d	5a		 pop	 edx
  0009e	8b 4d fc	 mov	 ecx, DWORD PTR __$ArrayPad$[ebp]
  000a1	e8 00 00 00 00	 call	 @__security_check_cookie@4
  000a6	5f		 pop	 edi
  000a7	5e		 pop	 esi
  000a8	81 c4 a4 00 00
	00		 add	 esp, 164		; 000000a4H
  000ae	3b ec		 cmp	 ebp, esp
  000b0	e8 00 00 00 00	 call	 __RTC_CheckEsp
  000b5	8b e5		 mov	 esp, ebp
  000b7	5d		 pop	 ebp
  000b8	c3		 ret	 0
$L192327:
  000b9	01 00 00 00	 DD	 1
  000bd	00 00 00 00	 DD	 $L192326
$L192326:
  000c1	64 ff ff ff	 DD	 -156			; ffffff64H
  000c5	94 00 00 00	 DD	 148			; 00000094H
  000c9	00 00 00 00	 DD	 $L192323
$L192323:
  000cd	76		 DB	 118			; 00000076H
  000ce	65		 DB	 101			; 00000065H
  000cf	72		 DB	 114			; 00000072H
  000d0	00		 DB	 0
?_AtlGetThreadACPThunk@ATL@@YGIXZ ENDP			; ATL::_AtlGetThreadACPThunk
_TEXT	ENDS
EXTRN	__imp__InterlockedExchange@8:NEAR
; Function compile flags: /Odt /RTCsu
;	COMDAT ?InterlockedExchangePointer@@YGPAXPAPAXPAX@Z
_TEXT	SEGMENT
_pp$ = 8						; size = 4
_pNew$ = 12						; size = 4
?InterlockedExchangePointer@@YGPAXPAPAXPAX@Z PROC NEAR	; InterlockedExchangePointer, COMDAT

; 91   : {

  00000	55		 push	 ebp
  00001	8b ec		 mov	 ebp, esp
  00003	56		 push	 esi

; 92   : 	return( reinterpret_cast<void*>(static_cast<LONG_PTR>(::InterlockedExchange(reinterpret_cast<LONG*>(pp), static_cast<LONG>(reinterpret_cast<LONG_PTR>(pNew))))) );

  00004	8b f4		 mov	 esi, esp
  00006	8b 45 0c	 mov	 eax, DWORD PTR _pNew$[ebp]
  00009	50		 push	 eax
  0000a	8b 4d 08	 mov	 ecx, DWORD PTR _pp$[ebp]
  0000d	51		 push	 ecx
  0000e	ff 15 00 00 00
	00		 call	 DWORD PTR __imp__InterlockedExchange@8
  00014	3b f4		 cmp	 esi, esp
  00016	e8 00 00 00 00	 call	 __RTC_CheckEsp

; 93   : }

  0001b	5e		 pop	 esi
  0001c	3b ec		 cmp	 ebp, esp
  0001e	e8 00 00 00 00	 call	 __RTC_CheckEsp
  00023	5d		 pop	 ebp
  00024	c2 08 00	 ret	 8
?InterlockedExchangePointer@@YGPAXPAPAXPAX@Z ENDP	; InterlockedExchangePointer
_TEXT	ENDS
EXTRN	__imp__GetACP@0:NEAR
EXTRN	__imp__GetLocaleInfoA@16:NEAR
EXTRN	__imp__GetThreadLocale@0:NEAR
; Function compile flags: /Odt /RTCsu
;	COMDAT ?_AtlGetThreadACPFake@ATL@@YGIXZ
_TEXT	SEGMENT
_pch$24151 = -32					; size = 4
_szACP$ = -24						; size = 7
_lcidThread$ = -12					; size = 4
_nACP$ = -8						; size = 4
__$ArrayPad$ = -4					; size = 4
__$ReturnAddr$ = 4					; size = 4
?_AtlGetThreadACPFake@ATL@@YGIXZ PROC NEAR		; ATL::_AtlGetThreadACPFake, COMDAT

; 101  : {

  00000	55		 push	 ebp
  00001	8b ec		 mov	 ebp, esp
  00003	83 ec 20	 sub	 esp, 32			; 00000020H
  00006	56		 push	 esi
  00007	b8 cc cc cc cc	 mov	 eax, -858993460		; ccccccccH
  0000c	89 45 e0	 mov	 DWORD PTR [ebp-32], eax
  0000f	89 45 e4	 mov	 DWORD PTR [ebp-28], eax
  00012	89 45 e8	 mov	 DWORD PTR [ebp-24], eax
  00015	89 45 ec	 mov	 DWORD PTR [ebp-20], eax
  00018	89 45 f0	 mov	 DWORD PTR [ebp-16], eax
  0001b	89 45 f4	 mov	 DWORD PTR [ebp-12], eax
  0001e	89 45 f8	 mov	 DWORD PTR [ebp-8], eax
  00021	89 45 fc	 mov	 DWORD PTR [ebp-4], eax
  00024	a1 00 00 00 00	 mov	 eax, DWORD PTR ___security_cookie
  00029	89 45 fc	 mov	 DWORD PTR __$ArrayPad$[ebp], eax

; 102  : 	UINT nACP = 0;

  0002c	c7 45 f8 00 00
	00 00		 mov	 DWORD PTR _nACP$[ebp], 0

; 103  : 
; 104  : 	LCID lcidThread = ::GetThreadLocale();

  00033	8b f4		 mov	 esi, esp
  00035	ff 15 00 00 00
	00		 call	 DWORD PTR __imp__GetThreadLocale@0
  0003b	3b f4		 cmp	 esi, esp
  0003d	e8 00 00 00 00	 call	 __RTC_CheckEsp
  00042	89 45 f4	 mov	 DWORD PTR _lcidThread$[ebp], eax

; 105  : 
; 106  : 	char szACP[7];
; 107  : 	// GetLocaleInfoA will fail for a Unicode-only LCID, but those are only supported on 
; 108  : 	// Windows 2000.  Since Windows 2000 supports CP_THREAD_ACP, this code path is never
; 109  : 	// executed on Windows 2000.
; 110  : 	if (::GetLocaleInfoA(lcidThread, LOCALE_IDEFAULTANSICODEPAGE, szACP, 7) != 0)

  00045	8b f4		 mov	 esi, esp
  00047	6a 07		 push	 7
  00049	8d 45 e8	 lea	 eax, DWORD PTR _szACP$[ebp]
  0004c	50		 push	 eax
  0004d	68 04 10 00 00	 push	 4100			; 00001004H
  00052	8b 4d f4	 mov	 ecx, DWORD PTR _lcidThread$[ebp]
  00055	51		 push	 ecx
  00056	ff 15 00 00 00
	00		 call	 DWORD PTR __imp__GetLocaleInfoA@16
  0005c	3b f4		 cmp	 esi, esp
  0005e	e8 00 00 00 00	 call	 __RTC_CheckEsp
  00063	85 c0		 test	 eax, eax
  00065	74 34		 je	 SHORT $L24150

; 111  : 	{
; 112  : 		char* pch = szACP;

  00067	8d 55 e8	 lea	 edx, DWORD PTR _szACP$[ebp]
  0006a	89 55 e0	 mov	 DWORD PTR _pch$24151[ebp], edx
$L24153:

; 113  : 		while (*pch != '\0')

  0006d	8b 45 e0	 mov	 eax, DWORD PTR _pch$24151[ebp]
  00070	0f be 08	 movsx	 ecx, BYTE PTR [eax]
  00073	85 c9		 test	 ecx, ecx
  00075	74 24		 je	 SHORT $L24150

; 114  : 		{
; 115  : 			nACP *= 10;

  00077	8b 55 f8	 mov	 edx, DWORD PTR _nACP$[ebp]
  0007a	6b d2 0a	 imul	 edx, 10			; 0000000aH
  0007d	89 55 f8	 mov	 DWORD PTR _nACP$[ebp], edx

; 116  : 			nACP += *pch++ - '0';

  00080	8b 45 e0	 mov	 eax, DWORD PTR _pch$24151[ebp]
  00083	0f be 08	 movsx	 ecx, BYTE PTR [eax]
  00086	8b 55 f8	 mov	 edx, DWORD PTR _nACP$[ebp]
  00089	8d 44 0a d0	 lea	 eax, DWORD PTR [edx+ecx-48]
  0008d	89 45 f8	 mov	 DWORD PTR _nACP$[ebp], eax
  00090	8b 4d e0	 mov	 ecx, DWORD PTR _pch$24151[ebp]
  00093	83 c1 01	 add	 ecx, 1
  00096	89 4d e0	 mov	 DWORD PTR _pch$24151[ebp], ecx

; 117  : 		}

  00099	eb d2		 jmp	 SHORT $L24153
$L24150:

; 118  : 	}
; 119  : 	// Use the Default ANSI Code Page if we were unable to get the thread ACP or if one does not exist.
; 120  : 	if (nACP == 0)

  0009b	83 7d f8 00	 cmp	 DWORD PTR _nACP$[ebp], 0
  0009f	75 12		 jne	 SHORT $L24155

; 121  : 		nACP = ::GetACP();

  000a1	8b f4		 mov	 esi, esp
  000a3	ff 15 00 00 00
	00		 call	 DWORD PTR __imp__GetACP@0
  000a9	3b f4		 cmp	 esi, esp
  000ab	e8 00 00 00 00	 call	 __RTC_CheckEsp
  000b0	89 45 f8	 mov	 DWORD PTR _nACP$[ebp], eax
$L24155:

; 122  : 
; 123  : 	return nACP;

  000b3	8b 45 f8	 mov	 eax, DWORD PTR _nACP$[ebp]

; 124  : }

  000b6	52		 push	 edx
  000b7	8b cd		 mov	 ecx, ebp
  000b9	50		 push	 eax
  000ba	8d 15 00 00 00
	00		 lea	 edx, DWORD PTR $L192338
  000c0	e8 00 00 00 00	 call	 @_RTC_CheckStackVars@8
  000c5	58		 pop	 eax
  000c6	5a		 pop	 edx
  000c7	8b 4d fc	 mov	 ecx, DWORD PTR __$ArrayPad$[ebp]
  000ca	e8 00 00 00 00	 call	 @__security_check_cookie@4
  000cf	5e		 pop	 esi
  000d0	83 c4 20	 add	 esp, 32			; 00000020H
  000d3	3b ec		 cmp	 ebp, esp
  000d5	e8 00 00 00 00	 call	 __RTC_CheckEsp
  000da	8b e5		 mov	 esp, ebp
  000dc	5d		 pop	 ebp
  000dd	c3		 ret	 0
$L192338:
  000de	01 00 00 00	 DD	 1
  000e2	00 00 00 00	 DD	 $L192337
$L192337:
  000e6	e8 ff ff ff	 DD	 -24			; ffffffe8H
  000ea	07 00 00 00	 DD	 7
  000ee	00 00 00 00	 DD	 $L192335
$L192335:
  000f2	73		 DB	 115			; 00000073H
  000f3	7a		 DB	 122			; 0000007aH
  000f4	41		 DB	 65			; 00000041H
  000f5	43		 DB	 67			; 00000043H
  000f6	50		 DB	 80			; 00000050H
  000f7	00		 DB	 0
?_AtlGetThreadACPFake@ATL@@YGIXZ ENDP			; ATL::_AtlGetThreadACPFake
; Function compile flags: /Odt /RTCsu
_TEXT	ENDS
;	COMDAT ?_AtlGetThreadACPReal@ATL@@YGIXZ
_TEXT	SEGMENT
?_AtlGetThreadACPReal@ATL@@YGIXZ PROC NEAR		; ATL::_AtlGetThreadACPReal, COMDAT

; 127  : {

  00000	55		 push	 ebp
  00001	8b ec		 mov	 ebp, esp

; 128  : 	return( CP_THREAD_ACP );

  00003	b8 03 00 00 00	 mov	 eax, 3

; 129  : }

  00008	5d		 pop	 ebp
  00009	c3		 ret	 0
?_AtlGetThreadACPReal@ATL@@YGIXZ ENDP			; ATL::_AtlGetThreadACPReal
_TEXT	ENDS
PUBLIC	?GetInstance@LocalGameData@@SAPAVIData@@XZ	; LocalGameData::GetInstance
PUBLIC	??0LocalGameData@@QAE@XZ			; LocalGameData::LocalGameData
EXTRN	??2@YAPAXI@Z:NEAR				; operator new
EXTRN	??3@YAXPAX@Z:NEAR				; operator delete
EXTRN	__except_list:DWORD
EXTRN	___CxxFrameHandler:NEAR
xdata$x	SEGMENT
$T192352 DD	0ffffffffH
	DD	FLAT:$L192345
$T192349 DD	019930520H
	DD	01H
	DD	FLAT:$T192352
	DD	2 DUP(00H)
	DD	2 DUP(00H)
; Function compile flags: /Odt /RTCsu
; File d:\boxgit\playbox\playbox\dev\prj\playbox\src\module\httpdown\localgamedata.cpp
xdata$x	ENDS
_TEXT	SEGMENT
tv72 = -24						; size = 4
$T192342 = -20						; size = 4
$T192341 = -16						; size = 4
__$EHRec$ = -12						; size = 12
?GetInstance@LocalGameData@@SAPAVIData@@XZ PROC NEAR	; LocalGameData::GetInstance

; 15   : {

  00000	55		 push	 ebp
  00001	8b ec		 mov	 ebp, esp
  00003	6a ff		 push	 -1
  00005	68 00 00 00 00	 push	 __ehhandler$?GetInstance@LocalGameData@@SAPAVIData@@XZ
  0000a	64 a1 00 00 00
	00		 mov	 eax, DWORD PTR fs:__except_list
  00010	50		 push	 eax
  00011	64 89 25 00 00
	00 00		 mov	 DWORD PTR fs:__except_list, esp
  00018	83 ec 0c	 sub	 esp, 12			; 0000000cH
  0001b	c7 45 e8 cc cc
	cc cc		 mov	 DWORD PTR [ebp-24], -858993460 ; ccccccccH
  00022	c7 45 ec cc cc
	cc cc		 mov	 DWORD PTR [ebp-20], -858993460 ; ccccccccH
  00029	c7 45 f0 cc cc
	cc cc		 mov	 DWORD PTR [ebp-16], -858993460 ; ccccccccH

; 16   : 	if(m_pData == NULL)

  00030	83 3d 00 00 00
	00 00		 cmp	 DWORD PTR ?m_pData@LocalGameData@@2PAV1@A, 0 ; LocalGameData::m_pData
  00037	75 44		 jne	 SHORT $L189639

; 17   : 		m_pData = new LocalGameData();

  00039	6a 30		 push	 48			; 00000030H
  0003b	e8 00 00 00 00	 call	 ??2@YAPAXI@Z		; operator new
  00040	83 c4 04	 add	 esp, 4
  00043	89 45 ec	 mov	 DWORD PTR $T192342[ebp], eax
  00046	c7 45 fc 00 00
	00 00		 mov	 DWORD PTR __$EHRec$[ebp+8], 0
  0004d	83 7d ec 00	 cmp	 DWORD PTR $T192342[ebp], 0
  00051	74 0d		 je	 SHORT $L192343
  00053	8b 4d ec	 mov	 ecx, DWORD PTR $T192342[ebp]
  00056	e8 00 00 00 00	 call	 ??0LocalGameData@@QAE@XZ
  0005b	89 45 e8	 mov	 DWORD PTR tv72[ebp], eax
  0005e	eb 07		 jmp	 SHORT $L192344
$L192343:
  00060	c7 45 e8 00 00
	00 00		 mov	 DWORD PTR tv72[ebp], 0
$L192344:
  00067	8b 45 e8	 mov	 eax, DWORD PTR tv72[ebp]
  0006a	89 45 f0	 mov	 DWORD PTR $T192341[ebp], eax
  0006d	c7 45 fc ff ff
	ff ff		 mov	 DWORD PTR __$EHRec$[ebp+8], -1
  00074	8b 4d f0	 mov	 ecx, DWORD PTR $T192341[ebp]
  00077	89 0d 00 00 00
	00		 mov	 DWORD PTR ?m_pData@LocalGameData@@2PAV1@A, ecx ; LocalGameData::m_pData
$L189639:

; 18   : 	return m_pData;

  0007d	a1 00 00 00 00	 mov	 eax, DWORD PTR ?m_pData@LocalGameData@@2PAV1@A ; LocalGameData::m_pData

; 19   : }

  00082	8b 4d f4	 mov	 ecx, DWORD PTR __$EHRec$[ebp]
  00085	64 89 0d 00 00
	00 00		 mov	 DWORD PTR fs:__except_list, ecx
  0008c	83 c4 18	 add	 esp, 24			; 00000018H
  0008f	3b ec		 cmp	 ebp, esp
  00091	e8 00 00 00 00	 call	 __RTC_CheckEsp
  00096	8b e5		 mov	 esp, ebp
  00098	5d		 pop	 ebp
  00099	c3		 ret	 0
_TEXT	ENDS
text$x	SEGMENT
$L192345:
  00000	8b 45 ec	 mov	 eax, DWORD PTR $T192342[ebp]
  00003	50		 push	 eax
  00004	e8 00 00 00 00	 call	 ??3@YAXPAX@Z		; operator delete
  00009	59		 pop	 ecx
  0000a	c3		 ret	 0
__ehhandler$?GetInstance@LocalGameData@@SAPAVIData@@XZ:
  0000b	b8 00 00 00 00	 mov	 eax, OFFSET FLAT:$T192349
  00010	e9 00 00 00 00	 jmp	 ___CxxFrameHandler
text$x	ENDS
?GetInstance@LocalGameData@@SAPAVIData@@XZ ENDP		; LocalGameData::GetInstance
PUBLIC	??_R0?AVILocalGameData@@@8			; ILocalGameData `RTTI Type Descriptor'
PUBLIC	??_R1A@?0A@A@ILocalGameData@@8			; ILocalGameData::`RTTI Base Class Descriptor at (0,-1,0,0)'
PUBLIC	??_R1A@?0A@A@IData@@8				; IData::`RTTI Base Class Descriptor at (0,-1,0,0)'
PUBLIC	??_R0?AVIData@@@8				; IData `RTTI Type Descriptor'
PUBLIC	??_R4LocalGameData@@6B@				; LocalGameData::`RTTI Complete Object Locator'
PUBLIC	??_R0?AVLocalGameData@@@8			; LocalGameData `RTTI Type Descriptor'
PUBLIC	??_R3LocalGameData@@8				; LocalGameData::`RTTI Class Hierarchy Descriptor'
PUBLIC	??_R2LocalGameData@@8				; LocalGameData::`RTTI Base Class Array'
PUBLIC	??_R1A@?0A@A@LocalGameData@@8			; LocalGameData::`RTTI Base Class Descriptor at (0,-1,0,0)'
PUBLIC	??0ILocalGameData@@QAE@XZ			; ILocalGameData::ILocalGameData
PUBLIC	??1ILocalGameData@@UAE@XZ			; ILocalGameData::~ILocalGameData
PUBLIC	??0?$vector@UOneLocalGame@@V?$allocator@UOneLocalGame@@@std@@@std@@QAE@XZ ; std::vector<OneLocalGame,std::allocator<OneLocalGame> >::vector<OneLocalGame,std::allocator<OneLocalGame> >
PUBLIC	??1?$vector@UOneLocalGame@@V?$allocator@UOneLocalGame@@@std@@@std@@QAE@XZ ; std::vector<OneLocalGame,std::allocator<OneLocalGame> >::~vector<OneLocalGame,std::allocator<OneLocalGame> >
PUBLIC	?DataAppStart@LocalGameData@@UAEXXZ		; LocalGameData::DataAppStart
PUBLIC	?DataAppExit@LocalGameData@@UAEXXZ		; LocalGameData::DataAppExit
PUBLIC	?ILocalGameData_GetGameByID@LocalGameData@@UAE_NV?$basic_string@DU?$char_traits@D@std@@V?$allocator@D@2@@std@@AAUOneLocalGame@@@Z ; LocalGameData::ILocalGameData_GetGameByID
PUBLIC	?ILocalGameData_AddGame@LocalGameData@@UAE_NV?$basic_string@DU?$char_traits@D@std@@V?$allocator@D@2@@std@@0000I0@Z ; LocalGameData::ILocalGameData_AddGame
PUBLIC	?ILocalGameData_DelGame@LocalGameData@@UAE_NV?$basic_string@DU?$char_traits@D@std@@V?$allocator@D@2@@std@@@Z ; LocalGameData::ILocalGameData_DelGame
PUBLIC	?ILocalGameData_GetAllGame@LocalGameData@@UAE_NAAV?$vector@UOneLocalGame@@V?$allocator@UOneLocalGame@@@std@@@std@@@Z ; LocalGameData::ILocalGameData_GetAllGame
PUBLIC	?ILocalGameData_GetGameCount@LocalGameData@@UAEIXZ ; LocalGameData::ILocalGameData_GetGameCount
PUBLIC	??_7LocalGameData@@6B@				; LocalGameData::`vftable'
PUBLIC	??_GLocalGameData@@UAEPAXI@Z			; LocalGameData::`scalar deleting destructor'
EXTRN	__imp_??0?$basic_string@DU?$char_traits@D@std@@V?$allocator@D@2@@std@@QAE@XZ:NEAR
EXTRN	??_7type_info@@6B@:QWORD			; type_info::`vftable'
EXTRN	??_ELocalGameData@@UAEPAXI@Z:NEAR		; LocalGameData::`vector deleting destructor'
;	COMDAT xdata$x
xdata$x	SEGMENT
$T192361 DD	0ffffffffH
	DD	FLAT:$L192355
	DD	00H
	DD	FLAT:$L192356
$T192359 DD	019930520H
	DD	02H
	DD	FLAT:$T192361
	DD	2 DUP(00H)
	DD	2 DUP(00H)
xdata$x	ENDS
;	COMDAT ??_7LocalGameData@@6B@
CONST	SEGMENT
??_7LocalGameData@@6B@ DD FLAT:??_R4LocalGameData@@6B@	; LocalGameData::`vftable'
	DD	FLAT:??_ELocalGameData@@UAEPAXI@Z
	DD	FLAT:?DataAppStart@LocalGameData@@UAEXXZ
	DD	FLAT:?DataAppExit@LocalGameData@@UAEXXZ
	DD	FLAT:?ILocalGameData_GetGameByID@LocalGameData@@UAE_NV?$basic_string@DU?$char_traits@D@std@@V?$allocator@D@2@@std@@AAUOneLocalGame@@@Z
	DD	FLAT:?ILocalGameData_AddGame@LocalGameData@@UAE_NV?$basic_string@DU?$char_traits@D@std@@V?$allocator@D@2@@std@@0000I0@Z
	DD	FLAT:?ILocalGameData_DelGame@LocalGameData@@UAE_NV?$basic_string@DU?$char_traits@D@std@@V?$allocator@D@2@@std@@@Z
	DD	FLAT:?ILocalGameData_GetAllGame@LocalGameData@@UAE_NAAV?$vector@UOneLocalGame@@V?$allocator@UOneLocalGame@@@std@@@std@@@Z
	DD	FLAT:?ILocalGameData_GetGameCount@LocalGameData@@UAEIXZ
CONST	ENDS
;	COMDAT ??_R4LocalGameData@@6B@
rdata$r	SEGMENT
??_R4LocalGameData@@6B@ DD 00H				; LocalGameData::`RTTI Complete Object Locator'
	DD	00H
	DD	00H
	DD	FLAT:??_R0?AVLocalGameData@@@8
	DD	FLAT:??_R3LocalGameData@@8
rdata$r	ENDS
;	COMDAT ??_R0?AVLocalGameData@@@8
_DATA	SEGMENT
??_R0?AVLocalGameData@@@8 DD FLAT:??_7type_info@@6B@	; LocalGameData `RTTI Type Descriptor'
	DD	00H
	DB	'.?AVLocalGameData@@', 00H
_DATA	ENDS
;	COMDAT ??_R3LocalGameData@@8
rdata$r	SEGMENT
??_R3LocalGameData@@8 DD 00H				; LocalGameData::`RTTI Class Hierarchy Descriptor'
	DD	00H
	DD	03H
	DD	FLAT:??_R2LocalGameData@@8
rdata$r	ENDS
;	COMDAT ??_R2LocalGameData@@8
rdata$r	SEGMENT
??_R2LocalGameData@@8 DD FLAT:??_R1A@?0A@A@LocalGameData@@8 ; LocalGameData::`RTTI Base Class Array'
	DD	FLAT:??_R1A@?0A@A@ILocalGameData@@8
	DD	FLAT:??_R1A@?0A@A@IData@@8
rdata$r	ENDS
;	COMDAT ??_R1A@?0A@A@LocalGameData@@8
rdata$r	SEGMENT
??_R1A@?0A@A@LocalGameData@@8 DD FLAT:??_R0?AVLocalGameData@@@8 ; LocalGameData::`RTTI Base Class Descriptor at (0,-1,0,0)'
	DD	02H
	DD	00H
	DD	0ffffffffH
	DD	00H
	DD	00H
rdata$r	ENDS
;	COMDAT ??_R1A@?0A@A@ILocalGameData@@8
rdata$r	SEGMENT
??_R1A@?0A@A@ILocalGameData@@8 DD FLAT:??_R0?AVILocalGameData@@@8 ; ILocalGameData::`RTTI Base Class Descriptor at (0,-1,0,0)'
	DD	01H
	DD	00H
	DD	0ffffffffH
	DD	00H
	DD	00H
rdata$r	ENDS
;	COMDAT ??_R0?AVILocalGameData@@@8
_DATA	SEGMENT
??_R0?AVILocalGameData@@@8 DD FLAT:??_7type_info@@6B@	; ILocalGameData `RTTI Type Descriptor'
	DD	00H
	DB	'.?AVILocalGameData@@', 00H
_DATA	ENDS
;	COMDAT ??_R1A@?0A@A@IData@@8
rdata$r	SEGMENT
??_R1A@?0A@A@IData@@8 DD FLAT:??_R0?AVIData@@@8		; IData::`RTTI Base Class Descriptor at (0,-1,0,0)'
	DD	00H
	DD	00H
	DD	0ffffffffH
	DD	00H
	DD	00H
rdata$r	ENDS
;	COMDAT ??_R0?AVIData@@@8
_DATA	SEGMENT
??_R0?AVIData@@@8 DD FLAT:??_7type_info@@6B@		; IData `RTTI Type Descriptor'
	DD	00H
	DB	'.?AVIData@@', 00H
; Function compile flags: /Odt /RTCsu
_DATA	ENDS
;	COMDAT ??0LocalGameData@@QAE@XZ
_TEXT	SEGMENT
_this$ = -16						; size = 4
__$EHRec$ = -12						; size = 12
??0LocalGameData@@QAE@XZ PROC NEAR			; LocalGameData::LocalGameData, COMDAT
; _this$ = ecx
  00000	55		 push	 ebp
  00001	8b ec		 mov	 ebp, esp
  00003	6a ff		 push	 -1
  00005	68 00 00 00 00	 push	 __ehhandler$??0LocalGameData@@QAE@XZ
  0000a	64 a1 00 00 00
	00		 mov	 eax, DWORD PTR fs:__except_list
  00010	50		 push	 eax
  00011	64 89 25 00 00
	00 00		 mov	 DWORD PTR fs:__except_list, esp
  00018	51		 push	 ecx
  00019	56		 push	 esi
  0001a	c7 45 f0 cc cc
	cc cc		 mov	 DWORD PTR [ebp-16], -858993460 ; ccccccccH
  00021	89 4d f0	 mov	 DWORD PTR _this$[ebp], ecx
  00024	8b 4d f0	 mov	 ecx, DWORD PTR _this$[ebp]
  00027	e8 00 00 00 00	 call	 ??0ILocalGameData@@QAE@XZ
  0002c	c7 45 fc 00 00
	00 00		 mov	 DWORD PTR __$EHRec$[ebp+8], 0
  00033	8b 45 f0	 mov	 eax, DWORD PTR _this$[ebp]
  00036	c7 00 00 00 00
	00		 mov	 DWORD PTR [eax], OFFSET FLAT:??_7LocalGameData@@6B@
  0003c	8b 4d f0	 mov	 ecx, DWORD PTR _this$[ebp]
  0003f	83 c1 04	 add	 ecx, 4
  00042	e8 00 00 00 00	 call	 ??0?$vector@UOneLocalGame@@V?$allocator@UOneLocalGame@@@std@@@std@@QAE@XZ ; std::vector<OneLocalGame,std::allocator<OneLocalGame> >::vector<OneLocalGame,std::allocator<OneLocalGame> >
  00047	c6 45 fc 01	 mov	 BYTE PTR __$EHRec$[ebp+8], 1
  0004b	8b 4d f0	 mov	 ecx, DWORD PTR _this$[ebp]
  0004e	83 c1 14	 add	 ecx, 20			; 00000014H
  00051	8b f4		 mov	 esi, esp
  00053	ff 15 00 00 00
	00		 call	 DWORD PTR __imp_??0?$basic_string@DU?$char_traits@D@std@@V?$allocator@D@2@@std@@QAE@XZ
  00059	3b f4		 cmp	 esi, esp
  0005b	e8 00 00 00 00	 call	 __RTC_CheckEsp
  00060	c7 45 fc ff ff
	ff ff		 mov	 DWORD PTR __$EHRec$[ebp+8], -1
  00067	8b 45 f0	 mov	 eax, DWORD PTR _this$[ebp]
  0006a	8b 4d f4	 mov	 ecx, DWORD PTR __$EHRec$[ebp]
  0006d	64 89 0d 00 00
	00 00		 mov	 DWORD PTR fs:__except_list, ecx
  00074	5e		 pop	 esi
  00075	83 c4 10	 add	 esp, 16			; 00000010H
  00078	3b ec		 cmp	 ebp, esp
  0007a	e8 00 00 00 00	 call	 __RTC_CheckEsp
  0007f	8b e5		 mov	 esp, ebp
  00081	5d		 pop	 ebp
  00082	c3		 ret	 0
_TEXT	ENDS
;	COMDAT text$x
text$x	SEGMENT
$L192355:
  00000	8b 4d f0	 mov	 ecx, DWORD PTR _this$[ebp]
  00003	e9 00 00 00 00	 jmp	 ??1ILocalGameData@@UAE@XZ
$L192356:
  00008	8b 4d f0	 mov	 ecx, DWORD PTR _this$[ebp]
  0000b	83 c1 04	 add	 ecx, 4
  0000e	e9 00 00 00 00	 jmp	 ??1?$vector@UOneLocalGame@@V?$allocator@UOneLocalGame@@@std@@@std@@QAE@XZ ; std::vector<OneLocalGame,std::allocator<OneLocalGame> >::~vector<OneLocalGame,std::allocator<OneLocalGame> >
__ehhandler$??0LocalGameData@@QAE@XZ:
  00013	b8 00 00 00 00	 mov	 eax, OFFSET FLAT:$T192359
  00018	e9 00 00 00 00	 jmp	 ___CxxFrameHandler
text$x	ENDS
??0LocalGameData@@QAE@XZ ENDP				; LocalGameData::LocalGameData
PUBLIC	??1LocalGameData@@UAE@XZ			; LocalGameData::~LocalGameData
; Function compile flags: /Odt /RTCsu
;	COMDAT ??_GLocalGameData@@UAEPAXI@Z
_TEXT	SEGMENT
_this$ = -4						; size = 4
___flags$ = 8						; size = 4
??_GLocalGameData@@UAEPAXI@Z PROC NEAR			; LocalGameData::`scalar deleting destructor', COMDAT
; _this$ = ecx
  00000	55		 push	 ebp
  00001	8b ec		 mov	 ebp, esp
  00003	51		 push	 ecx
  00004	c7 45 fc cc cc
	cc cc		 mov	 DWORD PTR [ebp-4], -858993460 ; ccccccccH
  0000b	89 4d fc	 mov	 DWORD PTR _this$[ebp], ecx
  0000e	8b 4d fc	 mov	 ecx, DWORD PTR _this$[ebp]
  00011	e8 00 00 00 00	 call	 ??1LocalGameData@@UAE@XZ
  00016	8b 45 08	 mov	 eax, DWORD PTR ___flags$[ebp]
  00019	83 e0 01	 and	 eax, 1
  0001c	74 0c		 je	 SHORT $L189649
  0001e	8b 4d fc	 mov	 ecx, DWORD PTR _this$[ebp]
  00021	51		 push	 ecx
  00022	e8 00 00 00 00	 call	 ??3@YAXPAX@Z		; operator delete
  00027	83 c4 04	 add	 esp, 4
$L189649:
  0002a	8b 45 fc	 mov	 eax, DWORD PTR _this$[ebp]
  0002d	83 c4 04	 add	 esp, 4
  00030	3b ec		 cmp	 ebp, esp
  00032	e8 00 00 00 00	 call	 __RTC_CheckEsp
  00037	8b e5		 mov	 esp, ebp
  00039	5d		 pop	 ebp
  0003a	c2 04 00	 ret	 4
??_GLocalGameData@@UAEPAXI@Z ENDP			; LocalGameData::`scalar deleting destructor'
_TEXT	ENDS
PUBLIC	??_R4ILocalGameData@@6B@			; ILocalGameData::`RTTI Complete Object Locator'
PUBLIC	??_R3ILocalGameData@@8				; ILocalGameData::`RTTI Class Hierarchy Descriptor'
PUBLIC	??_R2ILocalGameData@@8				; ILocalGameData::`RTTI Base Class Array'
PUBLIC	?DataAppStart@IData@@UAEXXZ			; IData::DataAppStart
PUBLIC	?DataAppExit@IData@@UAEXXZ			; IData::DataAppExit
PUBLIC	??0IData@@QAE@XZ				; IData::IData
PUBLIC	??_7ILocalGameData@@6B@				; ILocalGameData::`vftable'
PUBLIC	??_GILocalGameData@@UAEPAXI@Z			; ILocalGameData::`scalar deleting destructor'
EXTRN	__purecall:NEAR
EXTRN	??_EILocalGameData@@UAEPAXI@Z:NEAR		; ILocalGameData::`vector deleting destructor'
;	COMDAT ??_7ILocalGameData@@6B@
CONST	SEGMENT
??_7ILocalGameData@@6B@ DD FLAT:??_R4ILocalGameData@@6B@ ; ILocalGameData::`vftable'
	DD	FLAT:??_EILocalGameData@@UAEPAXI@Z
	DD	FLAT:?DataAppStart@IData@@UAEXXZ
	DD	FLAT:?DataAppExit@IData@@UAEXXZ
	DD	FLAT:__purecall
	DD	FLAT:__purecall
	DD	FLAT:__purecall
	DD	FLAT:__purecall
	DD	FLAT:__purecall
CONST	ENDS
;	COMDAT ??_R4ILocalGameData@@6B@
rdata$r	SEGMENT
??_R4ILocalGameData@@6B@ DD 00H				; ILocalGameData::`RTTI Complete Object Locator'
	DD	00H
	DD	00H
	DD	FLAT:??_R0?AVILocalGameData@@@8
	DD	FLAT:??_R3ILocalGameData@@8
rdata$r	ENDS
;	COMDAT ??_R3ILocalGameData@@8
rdata$r	SEGMENT
??_R3ILocalGameData@@8 DD 00H				; ILocalGameData::`RTTI Class Hierarchy Descriptor'
	DD	00H
	DD	02H
	DD	FLAT:??_R2ILocalGameData@@8
rdata$r	ENDS
;	COMDAT ??_R2ILocalGameData@@8
rdata$r	SEGMENT
??_R2ILocalGameData@@8 DD FLAT:??_R1A@?0A@A@ILocalGameData@@8 ; ILocalGameData::`RTTI Base Class Array'
	DD	FLAT:??_R1A@?0A@A@IData@@8
; Function compile flags: /Odt /RTCsu
rdata$r	ENDS
;	COMDAT ??0ILocalGameData@@QAE@XZ
_TEXT	SEGMENT
_this$ = -4						; size = 4
??0ILocalGameData@@QAE@XZ PROC NEAR			; ILocalGameData::ILocalGameData, COMDAT
; _this$ = ecx
  00000	55		 push	 ebp
  00001	8b ec		 mov	 ebp, esp
  00003	51		 push	 ecx
  00004	c7 45 fc cc cc
	cc cc		 mov	 DWORD PTR [ebp-4], -858993460 ; ccccccccH
  0000b	89 4d fc	 mov	 DWORD PTR _this$[ebp], ecx
  0000e	8b 4d fc	 mov	 ecx, DWORD PTR _this$[ebp]
  00011	e8 00 00 00 00	 call	 ??0IData@@QAE@XZ
  00016	8b 45 fc	 mov	 eax, DWORD PTR _this$[ebp]
  00019	c7 00 00 00 00
	00		 mov	 DWORD PTR [eax], OFFSET FLAT:??_7ILocalGameData@@6B@
  0001f	8b 45 fc	 mov	 eax, DWORD PTR _this$[ebp]
  00022	83 c4 04	 add	 esp, 4
  00025	3b ec		 cmp	 ebp, esp
  00027	e8 00 00 00 00	 call	 __RTC_CheckEsp
  0002c	8b e5		 mov	 esp, ebp
  0002e	5d		 pop	 ebp
  0002f	c3		 ret	 0
??0ILocalGameData@@QAE@XZ ENDP				; ILocalGameData::ILocalGameData
; Function compile flags: /Odt /RTCsu
; File d:\boxgit\playbox\playbox\dev\prj\playbox\src\datainterface\idata.h
_TEXT	ENDS
;	COMDAT ?DataAppStart@IData@@UAEXXZ
_TEXT	SEGMENT
_this$ = -4						; size = 4
?DataAppStart@IData@@UAEXXZ PROC NEAR			; IData::DataAppStart, COMDAT
; _this$ = ecx

; 15   : 	virtual void	DataAppStart(){};

  00000	55		 push	 ebp
  00001	8b ec		 mov	 ebp, esp
  00003	51		 push	 ecx
  00004	c7 45 fc cc cc
	cc cc		 mov	 DWORD PTR [ebp-4], -858993460 ; ccccccccH
  0000b	89 4d fc	 mov	 DWORD PTR _this$[ebp], ecx
  0000e	8b e5		 mov	 esp, ebp
  00010	5d		 pop	 ebp
  00011	c3		 ret	 0
?DataAppStart@IData@@UAEXXZ ENDP			; IData::DataAppStart
; Function compile flags: /Odt /RTCsu
_TEXT	ENDS
;	COMDAT ?DataAppExit@IData@@UAEXXZ
_TEXT	SEGMENT
_this$ = -4						; size = 4
?DataAppExit@IData@@UAEXXZ PROC NEAR			; IData::DataAppExit, COMDAT
; _this$ = ecx

; 18   : 	virtual void	DataAppExit(){};

  00000	55		 push	 ebp
  00001	8b ec		 mov	 ebp, esp
  00003	51		 push	 ecx
  00004	c7 45 fc cc cc
	cc cc		 mov	 DWORD PTR [ebp-4], -858993460 ; ccccccccH
  0000b	89 4d fc	 mov	 DWORD PTR _this$[ebp], ecx
  0000e	8b e5		 mov	 esp, ebp
  00010	5d		 pop	 ebp
  00011	c3		 ret	 0
?DataAppExit@IData@@UAEXXZ ENDP				; IData::DataAppExit
_TEXT	ENDS
PUBLIC	??1IData@@MAE@XZ				; IData::~IData
; Function compile flags: /Odt /RTCsu
;	COMDAT ??1ILocalGameData@@UAE@XZ
_TEXT	SEGMENT
_this$ = -4						; size = 4
??1ILocalGameData@@UAE@XZ PROC NEAR			; ILocalGameData::~ILocalGameData, COMDAT
; _this$ = ecx
  00000	55		 push	 ebp
  00001	8b ec		 mov	 ebp, esp
  00003	51		 push	 ecx
  00004	c7 45 fc cc cc
	cc cc		 mov	 DWORD PTR [ebp-4], -858993460 ; ccccccccH
  0000b	89 4d fc	 mov	 DWORD PTR _this$[ebp], ecx
  0000e	8b 4d fc	 mov	 ecx, DWORD PTR _this$[ebp]
  00011	e8 00 00 00 00	 call	 ??1IData@@MAE@XZ	; IData::~IData
  00016	83 c4 04	 add	 esp, 4
  00019	3b ec		 cmp	 ebp, esp
  0001b	e8 00 00 00 00	 call	 __RTC_CheckEsp
  00020	8b e5		 mov	 esp, ebp
  00022	5d		 pop	 ebp
  00023	c3		 ret	 0
??1ILocalGameData@@UAE@XZ ENDP				; ILocalGameData::~ILocalGameData
_TEXT	ENDS
PUBLIC	??_R4IData@@6B@					; IData::`RTTI Complete Object Locator'
PUBLIC	??_R3IData@@8					; IData::`RTTI Class Hierarchy Descriptor'
PUBLIC	??_R2IData@@8					; IData::`RTTI Base Class Array'
PUBLIC	??_7IData@@6B@					; IData::`vftable'
PUBLIC	??_GIData@@MAEPAXI@Z				; IData::`scalar deleting destructor'
EXTRN	??_EIData@@MAEPAXI@Z:NEAR			; IData::`vector deleting destructor'
;	COMDAT ??_7IData@@6B@
CONST	SEGMENT
??_7IData@@6B@ DD FLAT:??_R4IData@@6B@			; IData::`vftable'
	DD	FLAT:??_EIData@@MAEPAXI@Z
	DD	FLAT:?DataAppStart@IData@@UAEXXZ
	DD	FLAT:?DataAppExit@IData@@UAEXXZ
CONST	ENDS
;	COMDAT ??_R4IData@@6B@
rdata$r	SEGMENT
??_R4IData@@6B@ DD 00H					; IData::`RTTI Complete Object Locator'
	DD	00H
	DD	00H
	DD	FLAT:??_R0?AVIData@@@8
	DD	FLAT:??_R3IData@@8
rdata$r	ENDS
;	COMDAT ??_R3IData@@8
rdata$r	SEGMENT
??_R3IData@@8 DD 00H					; IData::`RTTI Class Hierarchy Descriptor'
	DD	00H
	DD	01H
	DD	FLAT:??_R2IData@@8
rdata$r	ENDS
;	COMDAT ??_R2IData@@8
rdata$r	SEGMENT
??_R2IData@@8 DD FLAT:??_R1A@?0A@A@IData@@8		; IData::`RTTI Base Class Array'
; Function compile flags: /Odt /RTCsu
rdata$r	ENDS
;	COMDAT ??1IData@@MAE@XZ
_TEXT	SEGMENT
_this$ = -4						; size = 4
??1IData@@MAE@XZ PROC NEAR				; IData::~IData, COMDAT
; _this$ = ecx

; 10   : 	virtual ~IData(){};

  00000	55		 push	 ebp
  00001	8b ec		 mov	 ebp, esp
  00003	51		 push	 ecx
  00004	c7 45 fc cc cc
	cc cc		 mov	 DWORD PTR [ebp-4], -858993460 ; ccccccccH
  0000b	89 4d fc	 mov	 DWORD PTR _this$[ebp], ecx
  0000e	8b 45 fc	 mov	 eax, DWORD PTR _this$[ebp]
  00011	c7 00 00 00 00
	00		 mov	 DWORD PTR [eax], OFFSET FLAT:??_7IData@@6B@
  00017	8b e5		 mov	 esp, ebp
  00019	5d		 pop	 ebp
  0001a	c3		 ret	 0
??1IData@@MAE@XZ ENDP					; IData::~IData
; Function compile flags: /Odt /RTCsu
_TEXT	ENDS
;	COMDAT ??_GIData@@MAEPAXI@Z
_TEXT	SEGMENT
_this$ = -4						; size = 4
___flags$ = 8						; size = 4
??_GIData@@MAEPAXI@Z PROC NEAR				; IData::`scalar deleting destructor', COMDAT
; _this$ = ecx
  00000	55		 push	 ebp
  00001	8b ec		 mov	 ebp, esp
  00003	51		 push	 ecx
  00004	c7 45 fc cc cc
	cc cc		 mov	 DWORD PTR [ebp-4], -858993460 ; ccccccccH
  0000b	89 4d fc	 mov	 DWORD PTR _this$[ebp], ecx
  0000e	8b 4d fc	 mov	 ecx, DWORD PTR _this$[ebp]
  00011	e8 00 00 00 00	 call	 ??1IData@@MAE@XZ	; IData::~IData
  00016	8b 45 08	 mov	 eax, DWORD PTR ___flags$[ebp]
  00019	83 e0 01	 and	 eax, 1
  0001c	74 0c		 je	 SHORT $L187040
  0001e	8b 4d fc	 mov	 ecx, DWORD PTR _this$[ebp]
  00021	51		 push	 ecx
  00022	e8 00 00 00 00	 call	 ??3@YAXPAX@Z		; operator delete
  00027	83 c4 04	 add	 esp, 4
$L187040:
  0002a	8b 45 fc	 mov	 eax, DWORD PTR _this$[ebp]
  0002d	83 c4 04	 add	 esp, 4
  00030	3b ec		 cmp	 ebp, esp
  00032	e8 00 00 00 00	 call	 __RTC_CheckEsp
  00037	8b e5		 mov	 esp, ebp
  00039	5d		 pop	 ebp
  0003a	c2 04 00	 ret	 4
??_GIData@@MAEPAXI@Z ENDP				; IData::`scalar deleting destructor'
_TEXT	ENDS
EXTRN	__imp_??1?$basic_string@DU?$char_traits@D@std@@V?$allocator@D@2@@std@@QAE@XZ:NEAR
;	COMDAT xdata$x
xdata$x	SEGMENT
$T192379 DD	0ffffffffH
	DD	FLAT:$L192373
	DD	00H
	DD	FLAT:$L192374
$T192377 DD	019930520H
	DD	02H
	DD	FLAT:$T192379
	DD	2 DUP(00H)
	DD	2 DUP(00H)
; Function compile flags: /Odt /RTCsu
xdata$x	ENDS
;	COMDAT ??1LocalGameData@@UAE@XZ
_TEXT	SEGMENT
_this$ = -16						; size = 4
__$EHRec$ = -12						; size = 12
??1LocalGameData@@UAE@XZ PROC NEAR			; LocalGameData::~LocalGameData, COMDAT
; _this$ = ecx
  00000	55		 push	 ebp
  00001	8b ec		 mov	 ebp, esp
  00003	6a ff		 push	 -1
  00005	68 00 00 00 00	 push	 __ehhandler$??1LocalGameData@@UAE@XZ
  0000a	64 a1 00 00 00
	00		 mov	 eax, DWORD PTR fs:__except_list
  00010	50		 push	 eax
  00011	64 89 25 00 00
	00 00		 mov	 DWORD PTR fs:__except_list, esp
  00018	51		 push	 ecx
  00019	56		 push	 esi
  0001a	c7 45 f0 cc cc
	cc cc		 mov	 DWORD PTR [ebp-16], -858993460 ; ccccccccH
  00021	89 4d f0	 mov	 DWORD PTR _this$[ebp], ecx
  00024	c7 45 fc 01 00
	00 00		 mov	 DWORD PTR __$EHRec$[ebp+8], 1
  0002b	8b 4d f0	 mov	 ecx, DWORD PTR _this$[ebp]
  0002e	83 c1 14	 add	 ecx, 20			; 00000014H
  00031	8b f4		 mov	 esi, esp
  00033	ff 15 00 00 00
	00		 call	 DWORD PTR __imp_??1?$basic_string@DU?$char_traits@D@std@@V?$allocator@D@2@@std@@QAE@XZ
  00039	3b f4		 cmp	 esi, esp
  0003b	e8 00 00 00 00	 call	 __RTC_CheckEsp
  00040	c6 45 fc 00	 mov	 BYTE PTR __$EHRec$[ebp+8], 0
  00044	8b 4d f0	 mov	 ecx, DWORD PTR _this$[ebp]
  00047	83 c1 04	 add	 ecx, 4
  0004a	e8 00 00 00 00	 call	 ??1?$vector@UOneLocalGame@@V?$allocator@UOneLocalGame@@@std@@@std@@QAE@XZ ; std::vector<OneLocalGame,std::allocator<OneLocalGame> >::~vector<OneLocalGame,std::allocator<OneLocalGame> >
  0004f	c7 45 fc ff ff
	ff ff		 mov	 DWORD PTR __$EHRec$[ebp+8], -1
  00056	8b 4d f0	 mov	 ecx, DWORD PTR _this$[ebp]
  00059	e8 00 00 00 00	 call	 ??1ILocalGameData@@UAE@XZ
  0005e	8b 4d f4	 mov	 ecx, DWORD PTR __$EHRec$[ebp]
  00061	64 89 0d 00 00
	00 00		 mov	 DWORD PTR fs:__except_list, ecx
  00068	5e		 pop	 esi
  00069	83 c4 10	 add	 esp, 16			; 00000010H
  0006c	3b ec		 cmp	 ebp, esp
  0006e	e8 00 00 00 00	 call	 __RTC_CheckEsp
  00073	8b e5		 mov	 esp, ebp
  00075	5d		 pop	 ebp
  00076	c3		 ret	 0
_TEXT	ENDS
;	COMDAT text$x
text$x	SEGMENT
$L192373:
  00000	8b 4d f0	 mov	 ecx, DWORD PTR _this$[ebp]
  00003	e9 00 00 00 00	 jmp	 ??1ILocalGameData@@UAE@XZ
$L192374:
  00008	8b 4d f0	 mov	 ecx, DWORD PTR _this$[ebp]
  0000b	83 c1 04	 add	 ecx, 4
  0000e	e9 00 00 00 00	 jmp	 ??1?$vector@UOneLocalGame@@V?$allocator@UOneLocalGame@@@std@@@std@@QAE@XZ ; std::vector<OneLocalGame,std::allocator<OneLocalGame> >::~vector<OneLocalGame,std::allocator<OneLocalGame> >
__ehhandler$??1LocalGameData@@UAE@XZ:
  00013	b8 00 00 00 00	 mov	 eax, OFFSET FLAT:$T192377
  00018	e9 00 00 00 00	 jmp	 ___CxxFrameHandler
text$x	ENDS
??1LocalGameData@@UAE@XZ ENDP				; LocalGameData::~LocalGameData
; Function compile flags: /Odt /RTCsu
;	COMDAT ??_GILocalGameData@@UAEPAXI@Z
_TEXT	SEGMENT
_this$ = -4						; size = 4
___flags$ = 8						; size = 4
??_GILocalGameData@@UAEPAXI@Z PROC NEAR			; ILocalGameData::`scalar deleting destructor', COMDAT
; _this$ = ecx
  00000	55		 push	 ebp
  00001	8b ec		 mov	 ebp, esp
  00003	51		 push	 ecx
  00004	c7 45 fc cc cc
	cc cc		 mov	 DWORD PTR [ebp-4], -858993460 ; ccccccccH
  0000b	89 4d fc	 mov	 DWORD PTR _this$[ebp], ecx
  0000e	8b 4d fc	 mov	 ecx, DWORD PTR _this$[ebp]
  00011	e8 00 00 00 00	 call	 ??1ILocalGameData@@UAE@XZ
  00016	8b 45 08	 mov	 eax, DWORD PTR ___flags$[ebp]
  00019	83 e0 01	 and	 eax, 1
  0001c	74 0c		 je	 SHORT $L189659
  0001e	8b 4d fc	 mov	 ecx, DWORD PTR _this$[ebp]
  00021	51		 push	 ecx
  00022	e8 00 00 00 00	 call	 ??3@YAXPAX@Z		; operator delete
  00027	83 c4 04	 add	 esp, 4
$L189659:
  0002a	8b 45 fc	 mov	 eax, DWORD PTR _this$[ebp]
  0002d	83 c4 04	 add	 esp, 4
  00030	3b ec		 cmp	 ebp, esp
  00032	e8 00 00 00 00	 call	 __RTC_CheckEsp
  00037	8b e5		 mov	 esp, ebp
  00039	5d		 pop	 ebp
  0003a	c2 04 00	 ret	 4
??_GILocalGameData@@UAEPAXI@Z ENDP			; ILocalGameData::`scalar deleting destructor'
; Function compile flags: /Odt /RTCsu
_TEXT	ENDS
;	COMDAT ??0IData@@QAE@XZ
_TEXT	SEGMENT
_this$ = -4						; size = 4
??0IData@@QAE@XZ PROC NEAR				; IData::IData, COMDAT
; _this$ = ecx
  00000	55		 push	 ebp
  00001	8b ec		 mov	 ebp, esp
  00003	51		 push	 ecx
  00004	c7 45 fc cc cc
	cc cc		 mov	 DWORD PTR [ebp-4], -858993460 ; ccccccccH
  0000b	89 4d fc	 mov	 DWORD PTR _this$[ebp], ecx
  0000e	8b 45 fc	 mov	 eax, DWORD PTR _this$[ebp]
  00011	c7 00 00 00 00
	00		 mov	 DWORD PTR [eax], OFFSET FLAT:??_7IData@@6B@
  00017	8b 45 fc	 mov	 eax, DWORD PTR _this$[ebp]
  0001a	8b e5		 mov	 esp, ebp
  0001c	5d		 pop	 ebp
  0001d	c3		 ret	 0
??0IData@@QAE@XZ ENDP					; IData::IData
_TEXT	ENDS
PUBLIC	?DelInstance@LocalGameData@@SAXXZ		; LocalGameData::DelInstance
; Function compile flags: /Odt /RTCsu
; File d:\boxgit\playbox\playbox\dev\prj\playbox\src\module\httpdown\localgamedata.cpp
_TEXT	SEGMENT
tv71 = -12						; size = 4
$T192386 = -8						; size = 4
$T192385 = -4						; size = 4
?DelInstance@LocalGameData@@SAXXZ PROC NEAR		; LocalGameData::DelInstance

; 22   : {

  000a0	55		 push	 ebp
  000a1	8b ec		 mov	 ebp, esp
  000a3	83 ec 0c	 sub	 esp, 12			; 0000000cH
  000a6	56		 push	 esi
  000a7	c7 45 f4 cc cc
	cc cc		 mov	 DWORD PTR [ebp-12], -858993460 ; ccccccccH
  000ae	c7 45 f8 cc cc
	cc cc		 mov	 DWORD PTR [ebp-8], -858993460 ; ccccccccH
  000b5	c7 45 fc cc cc
	cc cc		 mov	 DWORD PTR [ebp-4], -858993460 ; ccccccccH

; 23   : 	if(m_pData != NULL)

  000bc	83 3d 00 00 00
	00 00		 cmp	 DWORD PTR ?m_pData@LocalGameData@@2PAV1@A, 0 ; LocalGameData::m_pData
  000c3	74 35		 je	 SHORT $L189664

; 24   : 		delete m_pData;

  000c5	a1 00 00 00 00	 mov	 eax, DWORD PTR ?m_pData@LocalGameData@@2PAV1@A ; LocalGameData::m_pData
  000ca	89 45 f8	 mov	 DWORD PTR $T192386[ebp], eax
  000cd	8b 4d f8	 mov	 ecx, DWORD PTR $T192386[ebp]
  000d0	89 4d fc	 mov	 DWORD PTR $T192385[ebp], ecx
  000d3	83 7d fc 00	 cmp	 DWORD PTR $T192385[ebp], 0
  000d7	74 1a		 je	 SHORT $L192387
  000d9	8b f4		 mov	 esi, esp
  000db	6a 01		 push	 1
  000dd	8b 55 fc	 mov	 edx, DWORD PTR $T192385[ebp]
  000e0	8b 02		 mov	 eax, DWORD PTR [edx]
  000e2	8b 4d fc	 mov	 ecx, DWORD PTR $T192385[ebp]
  000e5	ff 10		 call	 DWORD PTR [eax]
  000e7	3b f4		 cmp	 esi, esp
  000e9	e8 00 00 00 00	 call	 __RTC_CheckEsp
  000ee	89 45 f4	 mov	 DWORD PTR tv71[ebp], eax
  000f1	eb 07		 jmp	 SHORT $L189664
$L192387:
  000f3	c7 45 f4 00 00
	00 00		 mov	 DWORD PTR tv71[ebp], 0
$L189664:

; 25   : 	m_pData = NULL;

  000fa	c7 05 00 00 00
	00 00 00 00 00	 mov	 DWORD PTR ?m_pData@LocalGameData@@2PAV1@A, 0 ; LocalGameData::m_pData

; 26   : }

  00104	5e		 pop	 esi
  00105	83 c4 0c	 add	 esp, 12			; 0000000cH
  00108	3b ec		 cmp	 ebp, esp
  0010a	e8 00 00 00 00	 call	 __RTC_CheckEsp
  0010f	8b e5		 mov	 esp, ebp
  00111	5d		 pop	 ebp
  00112	c3		 ret	 0
?DelInstance@LocalGameData@@SAXXZ ENDP			; LocalGameData::DelInstance
_TEXT	ENDS
PUBLIC	?LoadGameData@LocalGameData@@AAEXXZ		; LocalGameData::LoadGameData
EXTRN	?GetHomePath@CLhcImg@@SA_NQADH@Z:NEAR		; CLhcImg::GetHomePath
EXTRN	__imp_??0?$basic_string@DU?$char_traits@D@std@@V?$allocator@D@2@@std@@QAE@PBD@Z:NEAR
EXTRN	__imp_?YL_Log@@YAXABV?$basic_string@DU?$char_traits@D@std@@V?$allocator@D@2@@std@@H0PBDZZ:NEAR
EXTRN	__imp_?c_str@?$basic_string@DU?$char_traits@D@std@@V?$allocator@D@2@@std@@QBEPBDXZ:NEAR
EXTRN	?Format@YL_StringUtil@@SA_NAAV?$basic_string@DU?$char_traits@D@std@@V?$allocator@D@2@@std@@PBDZZ:NEAR ; YL_StringUtil::Format
xdata$x	SEGMENT
$T192402 DD	0ffffffffH
	DD	FLAT:$L192393
	DD	00H
	DD	FLAT:$L192394
$T192396 DD	019930520H
	DD	02H
	DD	FLAT:$T192402
	DD	2 DUP(00H)
	DD	2 DUP(00H)
; Function compile flags: /Odt /RTCsu
xdata$x	ENDS
_TEXT	SEGMENT
$T192392 = -344						; size = 28
$T192391 = -316						; size = 28
_szHomePath$ = -284					; size = 260
_this$ = -20						; size = 4
__$ArrayPad$ = -16					; size = 4
__$EHRec$ = -12						; size = 12
__$ReturnAddr$ = 4					; size = 4
?DataAppStart@LocalGameData@@UAEXXZ PROC NEAR		; LocalGameData::DataAppStart
; _this$ = ecx

; 29   : {

  00120	55		 push	 ebp
  00121	8b ec		 mov	 ebp, esp
  00123	6a ff		 push	 -1
  00125	68 00 00 00 00	 push	 __ehhandler$?DataAppStart@LocalGameData@@UAEXXZ
  0012a	64 a1 00 00 00
	00		 mov	 eax, DWORD PTR fs:__except_list
  00130	50		 push	 eax
  00131	64 89 25 00 00
	00 00		 mov	 DWORD PTR fs:__except_list, esp
  00138	81 ec 4c 01 00
	00		 sub	 esp, 332		; 0000014cH
  0013e	56		 push	 esi
  0013f	57		 push	 edi
  00140	51		 push	 ecx
  00141	8d bd a8 fe ff
	ff		 lea	 edi, DWORD PTR [ebp-344]
  00147	b9 53 00 00 00	 mov	 ecx, 83			; 00000053H
  0014c	b8 cc cc cc cc	 mov	 eax, -858993460		; ccccccccH
  00151	f3 ab		 rep stosd
  00153	59		 pop	 ecx
  00154	a1 00 00 00 00	 mov	 eax, DWORD PTR ___security_cookie
  00159	89 45 f0	 mov	 DWORD PTR __$ArrayPad$[ebp], eax
  0015c	89 4d ec	 mov	 DWORD PTR _this$[ebp], ecx

; 30   : 	char szHomePath[MAX_PATH];
; 31   : 	CLhcImg::GetHomePath( szHomePath, MAX_PATH );

  0015f	68 04 01 00 00	 push	 260			; 00000104H
  00164	8d 85 e4 fe ff
	ff		 lea	 eax, DWORD PTR _szHomePath$[ebp]
  0016a	50		 push	 eax
  0016b	e8 00 00 00 00	 call	 ?GetHomePath@CLhcImg@@SA_NQADH@Z ; CLhcImg::GetHomePath
  00170	83 c4 08	 add	 esp, 8

; 32   : 
; 33   : 	YL_StringUtil::Format( m_strDataFilePath, "%s\\Resources\\Profiles\\usergame.xml", szHomePath );

  00173	8d 8d e4 fe ff
	ff		 lea	 ecx, DWORD PTR _szHomePath$[ebp]
  00179	51		 push	 ecx
  0017a	68 00 00 00 00	 push	 OFFSET FLAT:$SG189671
  0017f	8b 55 ec	 mov	 edx, DWORD PTR _this$[ebp]
  00182	83 c2 14	 add	 edx, 20			; 00000014H
  00185	52		 push	 edx
  00186	e8 00 00 00 00	 call	 ?Format@YL_StringUtil@@SA_NAAV?$basic_string@DU?$char_traits@D@std@@V?$allocator@D@2@@std@@PBDZZ ; YL_StringUtil::Format
  0018b	83 c4 0c	 add	 esp, 12			; 0000000cH

; 34   : 	YL_Log( "LocalGameData.txt", LOG_DEBUG, "DataAppStart",	"m_strDataFilePath:%s", m_strDataFilePath.c_str() );

  0018e	8b f4		 mov	 esi, esp
  00190	68 00 00 00 00	 push	 OFFSET FLAT:$SG189675
  00195	8d 8d c4 fe ff
	ff		 lea	 ecx, DWORD PTR $T192391[ebp]
  0019b	ff 15 00 00 00
	00		 call	 DWORD PTR __imp_??0?$basic_string@DU?$char_traits@D@std@@V?$allocator@D@2@@std@@QAE@PBD@Z
  001a1	3b f4		 cmp	 esi, esp
  001a3	e8 00 00 00 00	 call	 __RTC_CheckEsp
  001a8	c7 45 fc 00 00
	00 00		 mov	 DWORD PTR __$EHRec$[ebp+8], 0
  001af	8b f4		 mov	 esi, esp
  001b1	68 00 00 00 00	 push	 OFFSET FLAT:$SG189676
  001b6	8d 8d a8 fe ff
	ff		 lea	 ecx, DWORD PTR $T192392[ebp]
  001bc	ff 15 00 00 00
	00		 call	 DWORD PTR __imp_??0?$basic_string@DU?$char_traits@D@std@@V?$allocator@D@2@@std@@QAE@PBD@Z
  001c2	3b f4		 cmp	 esi, esp
  001c4	e8 00 00 00 00	 call	 __RTC_CheckEsp
  001c9	c6 45 fc 01	 mov	 BYTE PTR __$EHRec$[ebp+8], 1
  001cd	8b 4d ec	 mov	 ecx, DWORD PTR _this$[ebp]
  001d0	83 c1 14	 add	 ecx, 20			; 00000014H
  001d3	8b f4		 mov	 esi, esp
  001d5	ff 15 00 00 00
	00		 call	 DWORD PTR __imp_?c_str@?$basic_string@DU?$char_traits@D@std@@V?$allocator@D@2@@std@@QBEPBDXZ
  001db	3b f4		 cmp	 esi, esp
  001dd	e8 00 00 00 00	 call	 __RTC_CheckEsp
  001e2	8b f4		 mov	 esi, esp
  001e4	50		 push	 eax
  001e5	68 00 00 00 00	 push	 OFFSET FLAT:$SG189674
  001ea	8d 85 c4 fe ff
	ff		 lea	 eax, DWORD PTR $T192391[ebp]
  001f0	50		 push	 eax
  001f1	6a 00		 push	 0
  001f3	8d 8d a8 fe ff
	ff		 lea	 ecx, DWORD PTR $T192392[ebp]
  001f9	51		 push	 ecx
  001fa	ff 15 00 00 00
	00		 call	 DWORD PTR __imp_?YL_Log@@YAXABV?$basic_string@DU?$char_traits@D@std@@V?$allocator@D@2@@std@@H0PBDZZ
  00200	83 c4 14	 add	 esp, 20			; 00000014H
  00203	3b f4		 cmp	 esi, esp
  00205	e8 00 00 00 00	 call	 __RTC_CheckEsp
  0020a	c6 45 fc 00	 mov	 BYTE PTR __$EHRec$[ebp+8], 0
  0020e	8b f4		 mov	 esi, esp
  00210	8d 8d a8 fe ff
	ff		 lea	 ecx, DWORD PTR $T192392[ebp]
  00216	ff 15 00 00 00
	00		 call	 DWORD PTR __imp_??1?$basic_string@DU?$char_traits@D@std@@V?$allocator@D@2@@std@@QAE@XZ
  0021c	3b f4		 cmp	 esi, esp
  0021e	e8 00 00 00 00	 call	 __RTC_CheckEsp
  00223	c7 45 fc ff ff
	ff ff		 mov	 DWORD PTR __$EHRec$[ebp+8], -1
  0022a	8b f4		 mov	 esi, esp
  0022c	8d 8d c4 fe ff
	ff		 lea	 ecx, DWORD PTR $T192391[ebp]
  00232	ff 15 00 00 00
	00		 call	 DWORD PTR __imp_??1?$basic_string@DU?$char_traits@D@std@@V?$allocator@D@2@@std@@QAE@XZ
  00238	3b f4		 cmp	 esi, esp
  0023a	e8 00 00 00 00	 call	 __RTC_CheckEsp

; 35   : 
; 36   : 	LoadGameData();

  0023f	8b 4d ec	 mov	 ecx, DWORD PTR _this$[ebp]
  00242	e8 00 00 00 00	 call	 ?LoadGameData@LocalGameData@@AAEXXZ ; LocalGameData::LoadGameData

; 37   : }

  00247	52		 push	 edx
  00248	8b cd		 mov	 ecx, ebp
  0024a	50		 push	 eax
  0024b	8d 15 00 00 00
	00		 lea	 edx, DWORD PTR $L192401
  00251	e8 00 00 00 00	 call	 @_RTC_CheckStackVars@8
  00256	58		 pop	 eax
  00257	5a		 pop	 edx
  00258	8b 4d f4	 mov	 ecx, DWORD PTR __$EHRec$[ebp]
  0025b	64 89 0d 00 00
	00 00		 mov	 DWORD PTR fs:__except_list, ecx
  00262	8b 4d f0	 mov	 ecx, DWORD PTR __$ArrayPad$[ebp]
  00265	e8 00 00 00 00	 call	 @__security_check_cookie@4
  0026a	5f		 pop	 edi
  0026b	5e		 pop	 esi
  0026c	81 c4 58 01 00
	00		 add	 esp, 344		; 00000158H
  00272	3b ec		 cmp	 ebp, esp
  00274	e8 00 00 00 00	 call	 __RTC_CheckEsp
  00279	8b e5		 mov	 esp, ebp
  0027b	5d		 pop	 ebp
  0027c	c3		 ret	 0
$L192401:
  0027d	01 00 00 00	 DD	 1
  00281	00 00 00 00	 DD	 $L192400
$L192400:
  00285	e4 fe ff ff	 DD	 -284			; fffffee4H
  00289	04 01 00 00	 DD	 260			; 00000104H
  0028d	00 00 00 00	 DD	 $L192397
$L192397:
  00291	73		 DB	 115			; 00000073H
  00292	7a		 DB	 122			; 0000007aH
  00293	48		 DB	 72			; 00000048H
  00294	6f		 DB	 111			; 0000006fH
  00295	6d		 DB	 109			; 0000006dH
  00296	65		 DB	 101			; 00000065H
  00297	50		 DB	 80			; 00000050H
  00298	61		 DB	 97			; 00000061H
  00299	74		 DB	 116			; 00000074H
  0029a	68		 DB	 104			; 00000068H
  0029b	00		 DB	 0
_TEXT	ENDS
text$x	SEGMENT
$L192393:
  00015	8b f4		 mov	 esi, esp
  00017	8d 8d c4 fe ff
	ff		 lea	 ecx, DWORD PTR $T192391[ebp]
  0001d	ff 15 00 00 00
	00		 call	 DWORD PTR __imp_??1?$basic_string@DU?$char_traits@D@std@@V?$allocator@D@2@@std@@QAE@XZ
  00023	3b f4		 cmp	 esi, esp
  00025	e9 00 00 00 00	 jmp	 __RTC_CheckEsp
$L192394:
  0002a	8b f4		 mov	 esi, esp
  0002c	8d 8d a8 fe ff
	ff		 lea	 ecx, DWORD PTR $T192392[ebp]
  00032	ff 15 00 00 00
	00		 call	 DWORD PTR __imp_??1?$basic_string@DU?$char_traits@D@std@@V?$allocator@D@2@@std@@QAE@XZ
  00038	3b f4		 cmp	 esi, esp
  0003a	e9 00 00 00 00	 jmp	 __RTC_CheckEsp
__ehhandler$?DataAppStart@LocalGameData@@UAEXXZ:
  0003f	b8 00 00 00 00	 mov	 eax, OFFSET FLAT:$T192396
  00044	e9 00 00 00 00	 jmp	 ___CxxFrameHandler
text$x	ENDS
?DataAppStart@LocalGameData@@UAEXXZ ENDP		; LocalGameData::DataAppStart
PUBLIC	?UnLoadGameData@LocalGameData@@AAEXXZ		; LocalGameData::UnLoadGameData
; Function compile flags: /Odt /RTCsu
_TEXT	SEGMENT
_this$ = -4						; size = 4
?DataAppExit@LocalGameData@@UAEXXZ PROC NEAR		; LocalGameData::DataAppExit
; _this$ = ecx

; 40   : {

  002a0	55		 push	 ebp
  002a1	8b ec		 mov	 ebp, esp
  002a3	51		 push	 ecx
  002a4	c7 45 fc cc cc
	cc cc		 mov	 DWORD PTR [ebp-4], -858993460 ; ccccccccH
  002ab	89 4d fc	 mov	 DWORD PTR _this$[ebp], ecx

; 41   : 	UnLoadGameData();

  002ae	8b 4d fc	 mov	 ecx, DWORD PTR _this$[ebp]
  002b1	e8 00 00 00 00	 call	 ?UnLoadGameData@LocalGameData@@AAEXXZ ; LocalGameData::UnLoadGameData

; 42   : }

  002b6	83 c4 04	 add	 esp, 4
  002b9	3b ec		 cmp	 ebp, esp
  002bb	e8 00 00 00 00	 call	 __RTC_CheckEsp
  002c0	8b e5		 mov	 esp, ebp
  002c2	5d		 pop	 ebp
  002c3	c3		 ret	 0
?DataAppExit@LocalGameData@@UAEXXZ ENDP			; LocalGameData::DataAppExit
_TEXT	ENDS
PUBLIC	?FindElem@CMarkupArchive@@UAE_NPBD@Z		; CMarkupArchive::FindElem
PUBLIC	?FindChildElem@CMarkupArchive@@UAE_NPBD@Z	; CMarkupArchive::FindChildElem
PUBLIC	??0OneLocalGame@@QAE@XZ				; OneLocalGame::OneLocalGame
PUBLIC	??1OneLocalGame@@QAE@XZ				; OneLocalGame::~OneLocalGame
PUBLIC	?ResetPos@CMarkup@@QAEXXZ			; CMarkup::ResetPos
PUBLIC	?GetAttrib@CMarkup@@QBE?AV?$CStringT@DV?$StrTraitMFC_DLL@DV?$ChTraitsCRT@D@ATL@@@@@ATL@@PBD@Z ; CMarkup::GetAttrib
PUBLIC	?push_back@?$vector@UOneLocalGame@@V?$allocator@UOneLocalGame@@@std@@@std@@QAEXABUOneLocalGame@@@Z ; std::vector<OneLocalGame,std::allocator<OneLocalGame> >::push_back
PUBLIC	?clear@?$vector@UOneLocalGame@@V?$allocator@UOneLocalGame@@@std@@@std@@QAEXXZ ; std::vector<OneLocalGame,std::allocator<OneLocalGame> >::clear
PUBLIC	??0CMarkupArchive@@QAE@K@Z			; CMarkupArchive::CMarkupArchive
EXTRN	?Open@CMarkupArchive@@QAE_NPBD@Z:NEAR		; CMarkupArchive::Open
EXTRN	?Close@CMarkupArchive@@QAE_NXZ:NEAR		; CMarkupArchive::Close
EXTRN	?IsValid@YL_FileInfo@@SA_NABV?$basic_string@DU?$char_traits@D@std@@V?$allocator@D@2@@std@@@Z:NEAR ; YL_FileInfo::IsValid
EXTRN	__imp_??4?$basic_string@DU?$char_traits@D@std@@V?$allocator@D@2@@std@@QAEAAV01@PBD@Z:NEAR
EXTRN	__imp_??B?$CSimpleStringT@D$00@ATL@@QBEPBDXZ:NEAR
EXTRN	?IntoElem@CMarkup@@QAE_NXZ:NEAR			; CMarkup::IntoElem
EXTRN	__imp_??1?$CStringT@DV?$StrTraitMFC_DLL@DV?$ChTraitsCRT@D@ATL@@@@@ATL@@QAE@XZ:NEAR
EXTRN	??1CMarkupArchive@@UAE@XZ:NEAR			; CMarkupArchive::~CMarkupArchive
xdata$x	SEGMENT
$T192443 DD	0ffffffffH
	DD	FLAT:$L192419
	DD	00H
	DD	FLAT:$L192420
	DD	0ffffffffH
	DD	FLAT:$L192421
	DD	02H
	DD	FLAT:$L192422
	DD	03H
	DD	FLAT:$L192423
	DD	02H
	DD	FLAT:$L192424
	DD	05H
	DD	FLAT:$L192425
	DD	05H
	DD	FLAT:$L192426
	DD	05H
	DD	FLAT:$L192427
	DD	05H
	DD	FLAT:$L192428
	DD	05H
	DD	FLAT:$L192429
	DD	05H
	DD	FLAT:$L192430
	DD	0bH
	DD	FLAT:$L192431
	DD	05H
	DD	FLAT:$L192432
	DD	0dH
	DD	FLAT:$L192433
$T192435 DD	019930520H
	DD	0fH
	DD	FLAT:$T192443
	DD	2 DUP(00H)
	DD	2 DUP(00H)
; Function compile flags: /Odt /RTCsu
xdata$x	ENDS
_TEXT	SEGMENT
tv256 = -816						; size = 4
tv275 = -812						; size = 4
tv254 = -808						; size = 4
tv272 = -804						; size = 4
tv252 = -800						; size = 4
tv269 = -796						; size = 4
tv250 = -792						; size = 4
tv266 = -788						; size = 4
tv248 = -784						; size = 4
tv150 = -780						; size = 4
$T192418 = -776						; size = 28
$T192417 = -748						; size = 28
$T192416 = -720						; size = 28
$T192415 = -692						; size = 28
$T192414 = -664						; size = 4
$T192413 = -660						; size = 4
$T192412 = -656						; size = 4
$T192411 = -652						; size = 4
$T192410 = -648						; size = 4
$T192409 = -644						; size = 28
$T192408 = -616						; size = 28
$T192407 = -588						; size = 28
$T192406 = -560						; size = 28
_olg$189748 = -528					; size = 144
_szHomePath$ = -376					; size = 260
_xml$ = -108						; size = 84
_this$ = -20						; size = 4
__$ArrayPad$ = -16					; size = 4
__$EHRec$ = -12						; size = 12
__$ReturnAddr$ = 4					; size = 4
?LoadGameData@LocalGameData@@AAEXXZ PROC NEAR		; LocalGameData::LoadGameData
; _this$ = ecx

; 97   : {

  002d0	55		 push	 ebp
  002d1	8b ec		 mov	 ebp, esp
  002d3	6a ff		 push	 -1
  002d5	68 00 00 00 00	 push	 __ehhandler$?LoadGameData@LocalGameData@@AAEXXZ
  002da	64 a1 00 00 00
	00		 mov	 eax, DWORD PTR fs:__except_list
  002e0	50		 push	 eax
  002e1	64 89 25 00 00
	00 00		 mov	 DWORD PTR fs:__except_list, esp
  002e8	81 ec 24 03 00
	00		 sub	 esp, 804		; 00000324H
  002ee	56		 push	 esi
  002ef	57		 push	 edi
  002f0	51		 push	 ecx
  002f1	8d bd d0 fc ff
	ff		 lea	 edi, DWORD PTR [ebp-816]
  002f7	b9 c9 00 00 00	 mov	 ecx, 201		; 000000c9H
  002fc	b8 cc cc cc cc	 mov	 eax, -858993460		; ccccccccH
  00301	f3 ab		 rep stosd
  00303	59		 pop	 ecx
  00304	a1 00 00 00 00	 mov	 eax, DWORD PTR ___security_cookie
  00309	89 45 f0	 mov	 DWORD PTR __$ArrayPad$[ebp], eax
  0030c	89 4d ec	 mov	 DWORD PTR _this$[ebp], ecx

; 98   : 	m_vecGame.clear();

  0030f	8b 4d ec	 mov	 ecx, DWORD PTR _this$[ebp]
  00312	83 c1 04	 add	 ecx, 4
  00315	e8 00 00 00 00	 call	 ?clear@?$vector@UOneLocalGame@@V?$allocator@UOneLocalGame@@@std@@@std@@QAEXXZ ; std::vector<OneLocalGame,std::allocator<OneLocalGame> >::clear

; 99   : 	YL_Log( "LocalGameData.txt", LOG_DEBUG, "LoadGameData","m_strDataFilePath:%s", m_strDataFilePath.c_str() );

  0031a	8b f4		 mov	 esi, esp
  0031c	68 00 00 00 00	 push	 OFFSET FLAT:$SG189735
  00321	8d 8d d0 fd ff
	ff		 lea	 ecx, DWORD PTR $T192406[ebp]
  00327	ff 15 00 00 00
	00		 call	 DWORD PTR __imp_??0?$basic_string@DU?$char_traits@D@std@@V?$allocator@D@2@@std@@QAE@PBD@Z
  0032d	3b f4		 cmp	 esi, esp
  0032f	e8 00 00 00 00	 call	 __RTC_CheckEsp
  00334	c7 45 fc 00 00
	00 00		 mov	 DWORD PTR __$EHRec$[ebp+8], 0
  0033b	8b f4		 mov	 esi, esp
  0033d	68 00 00 00 00	 push	 OFFSET FLAT:$SG189736
  00342	8d 8d b4 fd ff
	ff		 lea	 ecx, DWORD PTR $T192407[ebp]
  00348	ff 15 00 00 00
	00		 call	 DWORD PTR __imp_??0?$basic_string@DU?$char_traits@D@std@@V?$allocator@D@2@@std@@QAE@PBD@Z
  0034e	3b f4		 cmp	 esi, esp
  00350	e8 00 00 00 00	 call	 __RTC_CheckEsp
  00355	c6 45 fc 01	 mov	 BYTE PTR __$EHRec$[ebp+8], 1
  00359	8b 4d ec	 mov	 ecx, DWORD PTR _this$[ebp]
  0035c	83 c1 14	 add	 ecx, 20			; 00000014H
  0035f	8b f4		 mov	 esi, esp
  00361	ff 15 00 00 00
	00		 call	 DWORD PTR __imp_?c_str@?$basic_string@DU?$char_traits@D@std@@V?$allocator@D@2@@std@@QBEPBDXZ
  00367	3b f4		 cmp	 esi, esp
  00369	e8 00 00 00 00	 call	 __RTC_CheckEsp
  0036e	8b f4		 mov	 esi, esp
  00370	50		 push	 eax
  00371	68 00 00 00 00	 push	 OFFSET FLAT:$SG189734
  00376	8d 85 d0 fd ff
	ff		 lea	 eax, DWORD PTR $T192406[ebp]
  0037c	50		 push	 eax
  0037d	6a 00		 push	 0
  0037f	8d 8d b4 fd ff
	ff		 lea	 ecx, DWORD PTR $T192407[ebp]
  00385	51		 push	 ecx
  00386	ff 15 00 00 00
	00		 call	 DWORD PTR __imp_?YL_Log@@YAXABV?$basic_string@DU?$char_traits@D@std@@V?$allocator@D@2@@std@@H0PBDZZ
  0038c	83 c4 14	 add	 esp, 20			; 00000014H
  0038f	3b f4		 cmp	 esi, esp
  00391	e8 00 00 00 00	 call	 __RTC_CheckEsp
  00396	c6 45 fc 00	 mov	 BYTE PTR __$EHRec$[ebp+8], 0
  0039a	8b f4		 mov	 esi, esp
  0039c	8d 8d b4 fd ff
	ff		 lea	 ecx, DWORD PTR $T192407[ebp]
  003a2	ff 15 00 00 00
	00		 call	 DWORD PTR __imp_??1?$basic_string@DU?$char_traits@D@std@@V?$allocator@D@2@@std@@QAE@XZ
  003a8	3b f4		 cmp	 esi, esp
  003aa	e8 00 00 00 00	 call	 __RTC_CheckEsp
  003af	c7 45 fc ff ff
	ff ff		 mov	 DWORD PTR __$EHRec$[ebp+8], -1
  003b6	8b f4		 mov	 esi, esp
  003b8	8d 8d d0 fd ff
	ff		 lea	 ecx, DWORD PTR $T192406[ebp]
  003be	ff 15 00 00 00
	00		 call	 DWORD PTR __imp_??1?$basic_string@DU?$char_traits@D@std@@V?$allocator@D@2@@std@@QAE@XZ
  003c4	3b f4		 cmp	 esi, esp
  003c6	e8 00 00 00 00	 call	 __RTC_CheckEsp

; 100  : 
; 101  : 	CMarkupArchive xml;

  003cb	6a 03		 push	 3
  003cd	8d 4d 94	 lea	 ecx, DWORD PTR _xml$[ebp]
  003d0	e8 00 00 00 00	 call	 ??0CMarkupArchive@@QAE@K@Z ; CMarkupArchive::CMarkupArchive
  003d5	c7 45 fc 02 00
	00 00		 mov	 DWORD PTR __$EHRec$[ebp+8], 2

; 102  : 	if( !xml.Open(m_strDataFilePath.c_str()) )

  003dc	8b 4d ec	 mov	 ecx, DWORD PTR _this$[ebp]
  003df	83 c1 14	 add	 ecx, 20			; 00000014H
  003e2	8b f4		 mov	 esi, esp
  003e4	ff 15 00 00 00
	00		 call	 DWORD PTR __imp_?c_str@?$basic_string@DU?$char_traits@D@std@@V?$allocator@D@2@@std@@QBEPBDXZ
  003ea	3b f4		 cmp	 esi, esp
  003ec	e8 00 00 00 00	 call	 __RTC_CheckEsp
  003f1	50		 push	 eax
  003f2	8d 4d 94	 lea	 ecx, DWORD PTR _xml$[ebp]
  003f5	e8 00 00 00 00	 call	 ?Open@CMarkupArchive@@QAE_NPBD@Z ; CMarkupArchive::Open
  003fa	0f b6 d0	 movzx	 edx, al
  003fd	85 d2		 test	 edx, edx
  003ff	75 14		 jne	 SHORT $L189738

; 103  : 		return;

  00401	c7 45 fc ff ff
	ff ff		 mov	 DWORD PTR __$EHRec$[ebp+8], -1
  00408	8d 4d 94	 lea	 ecx, DWORD PTR _xml$[ebp]
  0040b	e8 00 00 00 00	 call	 ??1CMarkupArchive@@UAE@XZ ; CMarkupArchive::~CMarkupArchive
  00410	e9 bf 04 00 00	 jmp	 $L189731
$L189738:

; 104  : 
; 105  : 	YL_Log( "LocalGameData.txt", LOG_DEBUG, "LoadGameData","CMarkupArchive::Open success" );

  00415	8b f4		 mov	 esi, esp
  00417	68 00 00 00 00	 push	 OFFSET FLAT:$SG189742
  0041c	8d 8d 98 fd ff
	ff		 lea	 ecx, DWORD PTR $T192408[ebp]
  00422	ff 15 00 00 00
	00		 call	 DWORD PTR __imp_??0?$basic_string@DU?$char_traits@D@std@@V?$allocator@D@2@@std@@QAE@PBD@Z
  00428	3b f4		 cmp	 esi, esp
  0042a	e8 00 00 00 00	 call	 __RTC_CheckEsp
  0042f	c6 45 fc 03	 mov	 BYTE PTR __$EHRec$[ebp+8], 3
  00433	8b f4		 mov	 esi, esp
  00435	68 00 00 00 00	 push	 OFFSET FLAT:$SG189743
  0043a	8d 8d 7c fd ff
	ff		 lea	 ecx, DWORD PTR $T192409[ebp]
  00440	ff 15 00 00 00
	00		 call	 DWORD PTR __imp_??0?$basic_string@DU?$char_traits@D@std@@V?$allocator@D@2@@std@@QAE@PBD@Z
  00446	3b f4		 cmp	 esi, esp
  00448	e8 00 00 00 00	 call	 __RTC_CheckEsp
  0044d	c6 45 fc 04	 mov	 BYTE PTR __$EHRec$[ebp+8], 4
  00451	8b f4		 mov	 esi, esp
  00453	68 00 00 00 00	 push	 OFFSET FLAT:$SG189741
  00458	8d 85 98 fd ff
	ff		 lea	 eax, DWORD PTR $T192408[ebp]
  0045e	50		 push	 eax
  0045f	6a 00		 push	 0
  00461	8d 8d 7c fd ff
	ff		 lea	 ecx, DWORD PTR $T192409[ebp]
  00467	51		 push	 ecx
  00468	ff 15 00 00 00
	00		 call	 DWORD PTR __imp_?YL_Log@@YAXABV?$basic_string@DU?$char_traits@D@std@@V?$allocator@D@2@@std@@H0PBDZZ
  0046e	83 c4 10	 add	 esp, 16			; 00000010H
  00471	3b f4		 cmp	 esi, esp
  00473	e8 00 00 00 00	 call	 __RTC_CheckEsp
  00478	c6 45 fc 03	 mov	 BYTE PTR __$EHRec$[ebp+8], 3
  0047c	8b f4		 mov	 esi, esp
  0047e	8d 8d 7c fd ff
	ff		 lea	 ecx, DWORD PTR $T192409[ebp]
  00484	ff 15 00 00 00
	00		 call	 DWORD PTR __imp_??1?$basic_string@DU?$char_traits@D@std@@V?$allocator@D@2@@std@@QAE@XZ
  0048a	3b f4		 cmp	 esi, esp
  0048c	e8 00 00 00 00	 call	 __RTC_CheckEsp
  00491	c6 45 fc 02	 mov	 BYTE PTR __$EHRec$[ebp+8], 2
  00495	8b f4		 mov	 esi, esp
  00497	8d 8d 98 fd ff
	ff		 lea	 ecx, DWORD PTR $T192408[ebp]
  0049d	ff 15 00 00 00
	00		 call	 DWORD PTR __imp_??1?$basic_string@DU?$char_traits@D@std@@V?$allocator@D@2@@std@@QAE@XZ
  004a3	3b f4		 cmp	 esi, esp
  004a5	e8 00 00 00 00	 call	 __RTC_CheckEsp

; 106  : 
; 107  : 	char szHomePath[MAX_PATH];
; 108  : 	CLhcImg::GetHomePath( szHomePath, MAX_PATH );

  004aa	68 04 01 00 00	 push	 260			; 00000104H
  004af	8d 95 88 fe ff
	ff		 lea	 edx, DWORD PTR _szHomePath$[ebp]
  004b5	52		 push	 edx
  004b6	e8 00 00 00 00	 call	 ?GetHomePath@CLhcImg@@SA_NQADH@Z ; CLhcImg::GetHomePath
  004bb	83 c4 08	 add	 esp, 8

; 109  : 
; 110  : 	xml.ResetPos();

  004be	8d 4d 94	 lea	 ecx, DWORD PTR _xml$[ebp]
  004c1	e8 00 00 00 00	 call	 ?ResetPos@CMarkup@@QAEXXZ ; CMarkup::ResetPos

; 111  : 	xml.FindElem();

  004c6	6a 00		 push	 0
  004c8	8d 4d 94	 lea	 ecx, DWORD PTR _xml$[ebp]
  004cb	e8 00 00 00 00	 call	 ?FindElem@CMarkupArchive@@UAE_NPBD@Z ; CMarkupArchive::FindElem

; 112  : 	xml.IntoElem();

  004d0	8d 4d 94	 lea	 ecx, DWORD PTR _xml$[ebp]
  004d3	e8 00 00 00 00	 call	 ?IntoElem@CMarkup@@QAE_NXZ ; CMarkup::IntoElem
$L189746:

; 113  : 
; 114  : 	while( xml.FindChildElem() )

  004d8	6a 00		 push	 0
  004da	8d 4d 94	 lea	 ecx, DWORD PTR _xml$[ebp]
  004dd	e8 00 00 00 00	 call	 ?FindChildElem@CMarkupArchive@@UAE_NPBD@Z ; CMarkupArchive::FindChildElem
  004e2	0f b6 c0	 movzx	 eax, al
  004e5	85 c0		 test	 eax, eax
  004e7	0f 84 d0 03 00
	00		 je	 $L189747

; 115  : 	{
; 116  : 		OneLocalGame olg;

  004ed	8d 8d f0 fd ff
	ff		 lea	 ecx, DWORD PTR _olg$189748[ebp]
  004f3	e8 00 00 00 00	 call	 ??0OneLocalGame@@QAE@XZ	; OneLocalGame::OneLocalGame
  004f8	c6 45 fc 05	 mov	 BYTE PTR __$EHRec$[ebp+8], 5

; 117  : 		olg.strID    = xml.GetAttrib( "Id" );

  004fc	68 00 00 00 00	 push	 OFFSET FLAT:$SG189750
  00501	8d 8d 78 fd ff
	ff		 lea	 ecx, DWORD PTR $T192410[ebp]
  00507	51		 push	 ecx
  00508	8d 4d 94	 lea	 ecx, DWORD PTR _xml$[ebp]
  0050b	e8 00 00 00 00	 call	 ?GetAttrib@CMarkup@@QBE?AV?$CStringT@DV?$StrTraitMFC_DLL@DV?$ChTraitsCRT@D@ATL@@@@@ATL@@PBD@Z ; CMarkup::GetAttrib
  00510	89 85 f4 fc ff
	ff		 mov	 DWORD PTR tv150[ebp], eax
  00516	8b 95 f4 fc ff
	ff		 mov	 edx, DWORD PTR tv150[ebp]
  0051c	89 95 f0 fc ff
	ff		 mov	 DWORD PTR tv248[ebp], edx
  00522	c6 45 fc 06	 mov	 BYTE PTR __$EHRec$[ebp+8], 6
  00526	8b f4		 mov	 esi, esp
  00528	8b 8d f0 fc ff
	ff		 mov	 ecx, DWORD PTR tv248[ebp]
  0052e	ff 15 00 00 00
	00		 call	 DWORD PTR __imp_??B?$CSimpleStringT@D$00@ATL@@QBEPBDXZ
  00534	3b f4		 cmp	 esi, esp
  00536	e8 00 00 00 00	 call	 __RTC_CheckEsp
  0053b	8b f4		 mov	 esi, esp
  0053d	50		 push	 eax
  0053e	8d 8d f0 fd ff
	ff		 lea	 ecx, DWORD PTR _olg$189748[ebp]
  00544	ff 15 00 00 00
	00		 call	 DWORD PTR __imp_??4?$basic_string@DU?$char_traits@D@std@@V?$allocator@D@2@@std@@QAEAAV01@PBD@Z
  0054a	3b f4		 cmp	 esi, esp
  0054c	e8 00 00 00 00	 call	 __RTC_CheckEsp
  00551	c6 45 fc 05	 mov	 BYTE PTR __$EHRec$[ebp+8], 5
  00555	8b f4		 mov	 esi, esp
  00557	8d 8d 78 fd ff
	ff		 lea	 ecx, DWORD PTR $T192410[ebp]
  0055d	ff 15 00 00 00
	00		 call	 DWORD PTR __imp_??1?$CStringT@DV?$StrTraitMFC_DLL@DV?$ChTraitsCRT@D@ATL@@@@@ATL@@QAE@XZ
  00563	3b f4		 cmp	 esi, esp
  00565	e8 00 00 00 00	 call	 __RTC_CheckEsp

; 118  : 		olg.strName  = xml.GetAttrib( "Name" );

  0056a	68 00 00 00 00	 push	 OFFSET FLAT:$SG189752
  0056f	8d 85 74 fd ff
	ff		 lea	 eax, DWORD PTR $T192411[ebp]
  00575	50		 push	 eax
  00576	8d 4d 94	 lea	 ecx, DWORD PTR _xml$[ebp]
  00579	e8 00 00 00 00	 call	 ?GetAttrib@CMarkup@@QBE?AV?$CStringT@DV?$StrTraitMFC_DLL@DV?$ChTraitsCRT@D@ATL@@@@@ATL@@PBD@Z ; CMarkup::GetAttrib
  0057e	89 85 ec fc ff
	ff		 mov	 DWORD PTR tv266[ebp], eax
  00584	8b 8d ec fc ff
	ff		 mov	 ecx, DWORD PTR tv266[ebp]
  0058a	89 8d e8 fc ff
	ff		 mov	 DWORD PTR tv250[ebp], ecx
  00590	c6 45 fc 07	 mov	 BYTE PTR __$EHRec$[ebp+8], 7
  00594	8b f4		 mov	 esi, esp
  00596	8b 8d e8 fc ff
	ff		 mov	 ecx, DWORD PTR tv250[ebp]
  0059c	ff 15 00 00 00
	00		 call	 DWORD PTR __imp_??B?$CSimpleStringT@D$00@ATL@@QBEPBDXZ
  005a2	3b f4		 cmp	 esi, esp
  005a4	e8 00 00 00 00	 call	 __RTC_CheckEsp
  005a9	8b f4		 mov	 esi, esp
  005ab	50		 push	 eax
  005ac	8d 8d 0c fe ff
	ff		 lea	 ecx, DWORD PTR _olg$189748[ebp+28]
  005b2	ff 15 00 00 00
	00		 call	 DWORD PTR __imp_??4?$basic_string@DU?$char_traits@D@std@@V?$allocator@D@2@@std@@QAEAAV01@PBD@Z
  005b8	3b f4		 cmp	 esi, esp
  005ba	e8 00 00 00 00	 call	 __RTC_CheckEsp
  005bf	c6 45 fc 05	 mov	 BYTE PTR __$EHRec$[ebp+8], 5
  005c3	8b f4		 mov	 esi, esp
  005c5	8d 8d 74 fd ff
	ff		 lea	 ecx, DWORD PTR $T192411[ebp]
  005cb	ff 15 00 00 00
	00		 call	 DWORD PTR __imp_??1?$CStringT@DV?$StrTraitMFC_DLL@DV?$ChTraitsCRT@D@ATL@@@@@ATL@@QAE@XZ
  005d1	3b f4		 cmp	 esi, esp
  005d3	e8 00 00 00 00	 call	 __RTC_CheckEsp

; 119  : 		olg.strIntro  = xml.GetAttrib( "Intro" );

  005d8	68 00 00 00 00	 push	 OFFSET FLAT:$SG189754
  005dd	8d 95 70 fd ff
	ff		 lea	 edx, DWORD PTR $T192412[ebp]
  005e3	52		 push	 edx
  005e4	8d 4d 94	 lea	 ecx, DWORD PTR _xml$[ebp]
  005e7	e8 00 00 00 00	 call	 ?GetAttrib@CMarkup@@QBE?AV?$CStringT@DV?$StrTraitMFC_DLL@DV?$ChTraitsCRT@D@ATL@@@@@ATL@@PBD@Z ; CMarkup::GetAttrib
  005ec	89 85 e4 fc ff
	ff		 mov	 DWORD PTR tv269[ebp], eax
  005f2	8b 85 e4 fc ff
	ff		 mov	 eax, DWORD PTR tv269[ebp]
  005f8	89 85 e0 fc ff
	ff		 mov	 DWORD PTR tv252[ebp], eax
  005fe	c6 45 fc 08	 mov	 BYTE PTR __$EHRec$[ebp+8], 8
  00602	8b f4		 mov	 esi, esp
  00604	8b 8d e0 fc ff
	ff		 mov	 ecx, DWORD PTR tv252[ebp]
  0060a	ff 15 00 00 00
	00		 call	 DWORD PTR __imp_??B?$CSimpleStringT@D$00@ATL@@QBEPBDXZ
  00610	3b f4		 cmp	 esi, esp
  00612	e8 00 00 00 00	 call	 __RTC_CheckEsp
  00617	8b f4		 mov	 esi, esp
  00619	50		 push	 eax
  0061a	8d 8d 60 fe ff
	ff		 lea	 ecx, DWORD PTR _olg$189748[ebp+112]
  00620	ff 15 00 00 00
	00		 call	 DWORD PTR __imp_??4?$basic_string@DU?$char_traits@D@std@@V?$allocator@D@2@@std@@QAEAAV01@PBD@Z
  00626	3b f4		 cmp	 esi, esp
  00628	e8 00 00 00 00	 call	 __RTC_CheckEsp
  0062d	c6 45 fc 05	 mov	 BYTE PTR __$EHRec$[ebp+8], 5
  00631	8b f4		 mov	 esi, esp
  00633	8d 8d 70 fd ff
	ff		 lea	 ecx, DWORD PTR $T192412[ebp]
  00639	ff 15 00 00 00
	00		 call	 DWORD PTR __imp_??1?$CStringT@DV?$StrTraitMFC_DLL@DV?$ChTraitsCRT@D@ATL@@@@@ATL@@QAE@XZ
  0063f	3b f4		 cmp	 esi, esp
  00641	e8 00 00 00 00	 call	 __RTC_CheckEsp

; 120  : 		//YL_Log( "LocalGameData.txt", LOG_DEBUG, "LoadGameData","id:%s|name:%s|intro:%s",
; 121  : 		//	olg.strID.c_str(), olg.strName.c_str(), olg.strIntro.c_str() );
; 122  : 		olg.strPicPath = xml.GetAttrib( "Img" );

  00646	68 00 00 00 00	 push	 OFFSET FLAT:$SG189756
  0064b	8d 8d 6c fd ff
	ff		 lea	 ecx, DWORD PTR $T192413[ebp]
  00651	51		 push	 ecx
  00652	8d 4d 94	 lea	 ecx, DWORD PTR _xml$[ebp]
  00655	e8 00 00 00 00	 call	 ?GetAttrib@CMarkup@@QBE?AV?$CStringT@DV?$StrTraitMFC_DLL@DV?$ChTraitsCRT@D@ATL@@@@@ATL@@PBD@Z ; CMarkup::GetAttrib
  0065a	89 85 dc fc ff
	ff		 mov	 DWORD PTR tv272[ebp], eax
  00660	8b 95 dc fc ff
	ff		 mov	 edx, DWORD PTR tv272[ebp]
  00666	89 95 d8 fc ff
	ff		 mov	 DWORD PTR tv254[ebp], edx
  0066c	c6 45 fc 09	 mov	 BYTE PTR __$EHRec$[ebp+8], 9
  00670	8b f4		 mov	 esi, esp
  00672	8b 8d d8 fc ff
	ff		 mov	 ecx, DWORD PTR tv254[ebp]
  00678	ff 15 00 00 00
	00		 call	 DWORD PTR __imp_??B?$CSimpleStringT@D$00@ATL@@QBEPBDXZ
  0067e	3b f4		 cmp	 esi, esp
  00680	e8 00 00 00 00	 call	 __RTC_CheckEsp
  00685	8b f4		 mov	 esi, esp
  00687	50		 push	 eax
  00688	8d 8d 44 fe ff
	ff		 lea	 ecx, DWORD PTR _olg$189748[ebp+84]
  0068e	ff 15 00 00 00
	00		 call	 DWORD PTR __imp_??4?$basic_string@DU?$char_traits@D@std@@V?$allocator@D@2@@std@@QAEAAV01@PBD@Z
  00694	3b f4		 cmp	 esi, esp
  00696	e8 00 00 00 00	 call	 __RTC_CheckEsp
  0069b	c6 45 fc 05	 mov	 BYTE PTR __$EHRec$[ebp+8], 5
  0069f	8b f4		 mov	 esi, esp
  006a1	8d 8d 6c fd ff
	ff		 lea	 ecx, DWORD PTR $T192413[ebp]
  006a7	ff 15 00 00 00
	00		 call	 DWORD PTR __imp_??1?$CStringT@DV?$StrTraitMFC_DLL@DV?$ChTraitsCRT@D@ATL@@@@@ATL@@QAE@XZ
  006ad	3b f4		 cmp	 esi, esp
  006af	e8 00 00 00 00	 call	 __RTC_CheckEsp

; 123  : 		olg.strGamePath = xml.GetAttrib( "AppPath" );

  006b4	68 00 00 00 00	 push	 OFFSET FLAT:$SG189758
  006b9	8d 85 68 fd ff
	ff		 lea	 eax, DWORD PTR $T192414[ebp]
  006bf	50		 push	 eax
  006c0	8d 4d 94	 lea	 ecx, DWORD PTR _xml$[ebp]
  006c3	e8 00 00 00 00	 call	 ?GetAttrib@CMarkup@@QBE?AV?$CStringT@DV?$StrTraitMFC_DLL@DV?$ChTraitsCRT@D@ATL@@@@@ATL@@PBD@Z ; CMarkup::GetAttrib
  006c8	89 85 d4 fc ff
	ff		 mov	 DWORD PTR tv275[ebp], eax
  006ce	8b 8d d4 fc ff
	ff		 mov	 ecx, DWORD PTR tv275[ebp]
  006d4	89 8d d0 fc ff
	ff		 mov	 DWORD PTR tv256[ebp], ecx
  006da	c6 45 fc 0a	 mov	 BYTE PTR __$EHRec$[ebp+8], 10 ; 0000000aH
  006de	8b f4		 mov	 esi, esp
  006e0	8b 8d d0 fc ff
	ff		 mov	 ecx, DWORD PTR tv256[ebp]
  006e6	ff 15 00 00 00
	00		 call	 DWORD PTR __imp_??B?$CSimpleStringT@D$00@ATL@@QBEPBDXZ
  006ec	3b f4		 cmp	 esi, esp
  006ee	e8 00 00 00 00	 call	 __RTC_CheckEsp
  006f3	8b f4		 mov	 esi, esp
  006f5	50		 push	 eax
  006f6	8d 8d 28 fe ff
	ff		 lea	 ecx, DWORD PTR _olg$189748[ebp+56]
  006fc	ff 15 00 00 00
	00		 call	 DWORD PTR __imp_??4?$basic_string@DU?$char_traits@D@std@@V?$allocator@D@2@@std@@QAEAAV01@PBD@Z
  00702	3b f4		 cmp	 esi, esp
  00704	e8 00 00 00 00	 call	 __RTC_CheckEsp
  00709	c6 45 fc 05	 mov	 BYTE PTR __$EHRec$[ebp+8], 5
  0070d	8b f4		 mov	 esi, esp
  0070f	8d 8d 68 fd ff
	ff		 lea	 ecx, DWORD PTR $T192414[ebp]
  00715	ff 15 00 00 00
	00		 call	 DWORD PTR __imp_??1?$CStringT@DV?$StrTraitMFC_DLL@DV?$ChTraitsCRT@D@ATL@@@@@ATL@@QAE@XZ
  0071b	3b f4		 cmp	 esi, esp
  0071d	e8 00 00 00 00	 call	 __RTC_CheckEsp

; 124  : 
; 125  : 		if( YL_FileInfo::IsValid( olg.strGamePath ) )

  00722	8d 95 28 fe ff
	ff		 lea	 edx, DWORD PTR _olg$189748[ebp+56]
  00728	52		 push	 edx
  00729	e8 00 00 00 00	 call	 ?IsValid@YL_FileInfo@@SA_NABV?$basic_string@DU?$char_traits@D@std@@V?$allocator@D@2@@std@@@Z ; YL_FileInfo::IsValid
  0072e	83 c4 04	 add	 esp, 4
  00731	0f b6 c0	 movzx	 eax, al
  00734	85 c0		 test	 eax, eax
  00736	0f 84 c2 00 00
	00		 je	 $L189759

; 126  : 		{
; 127  : 			YL_Log( "LocalGameData.txt", LOG_DEBUG, "LoadGameData",":%s",
; 128  : 				olg.strGamePath.c_str() );

  0073c	8b f4		 mov	 esi, esp
  0073e	68 00 00 00 00	 push	 OFFSET FLAT:$SG189763
  00743	8d 8d 4c fd ff
	ff		 lea	 ecx, DWORD PTR $T192415[ebp]
  00749	ff 15 00 00 00
	00		 call	 DWORD PTR __imp_??0?$basic_string@DU?$char_traits@D@std@@V?$allocator@D@2@@std@@QAE@PBD@Z
  0074f	3b f4		 cmp	 esi, esp
  00751	e8 00 00 00 00	 call	 __RTC_CheckEsp
  00756	c6 45 fc 0b	 mov	 BYTE PTR __$EHRec$[ebp+8], 11 ; 0000000bH
  0075a	8b f4		 mov	 esi, esp
  0075c	68 00 00 00 00	 push	 OFFSET FLAT:$SG189764
  00761	8d 8d 30 fd ff
	ff		 lea	 ecx, DWORD PTR $T192416[ebp]
  00767	ff 15 00 00 00
	00		 call	 DWORD PTR __imp_??0?$basic_string@DU?$char_traits@D@std@@V?$allocator@D@2@@std@@QAE@PBD@Z
  0076d	3b f4		 cmp	 esi, esp
  0076f	e8 00 00 00 00	 call	 __RTC_CheckEsp
  00774	c6 45 fc 0c	 mov	 BYTE PTR __$EHRec$[ebp+8], 12 ; 0000000cH
  00778	8b f4		 mov	 esi, esp
  0077a	8d 8d 28 fe ff
	ff		 lea	 ecx, DWORD PTR _olg$189748[ebp+56]
  00780	ff 15 00 00 00
	00		 call	 DWORD PTR __imp_?c_str@?$basic_string@DU?$char_traits@D@std@@V?$allocator@D@2@@std@@QBEPBDXZ
  00786	3b f4		 cmp	 esi, esp
  00788	e8 00 00 00 00	 call	 __RTC_CheckEsp
  0078d	8b f4		 mov	 esi, esp
  0078f	50		 push	 eax
  00790	68 00 00 00 00	 push	 OFFSET FLAT:$SG189762
  00795	8d 8d 4c fd ff
	ff		 lea	 ecx, DWORD PTR $T192415[ebp]
  0079b	51		 push	 ecx
  0079c	6a 00		 push	 0
  0079e	8d 95 30 fd ff
	ff		 lea	 edx, DWORD PTR $T192416[ebp]
  007a4	52		 push	 edx
  007a5	ff 15 00 00 00
	00		 call	 DWORD PTR __imp_?YL_Log@@YAXABV?$basic_string@DU?$char_traits@D@std@@V?$allocator@D@2@@std@@H0PBDZZ
  007ab	83 c4 14	 add	 esp, 20			; 00000014H
  007ae	3b f4		 cmp	 esi, esp
  007b0	e8 00 00 00 00	 call	 __RTC_CheckEsp
  007b5	c6 45 fc 0b	 mov	 BYTE PTR __$EHRec$[ebp+8], 11 ; 0000000bH
  007b9	8b f4		 mov	 esi, esp
  007bb	8d 8d 30 fd ff
	ff		 lea	 ecx, DWORD PTR $T192416[ebp]
  007c1	ff 15 00 00 00
	00		 call	 DWORD PTR __imp_??1?$basic_string@DU?$char_traits@D@std@@V?$allocator@D@2@@std@@QAE@XZ
  007c7	3b f4		 cmp	 esi, esp
  007c9	e8 00 00 00 00	 call	 __RTC_CheckEsp
  007ce	c6 45 fc 05	 mov	 BYTE PTR __$EHRec$[ebp+8], 5
  007d2	8b f4		 mov	 esi, esp
  007d4	8d 8d 4c fd ff
	ff		 lea	 ecx, DWORD PTR $T192415[ebp]
  007da	ff 15 00 00 00
	00		 call	 DWORD PTR __imp_??1?$basic_string@DU?$char_traits@D@std@@V?$allocator@D@2@@std@@QAE@XZ
  007e0	3b f4		 cmp	 esi, esp
  007e2	e8 00 00 00 00	 call	 __RTC_CheckEsp

; 129  : 
; 130  : 			m_vecGame.push_back( olg );

  007e7	8d 85 f0 fd ff
	ff		 lea	 eax, DWORD PTR _olg$189748[ebp]
  007ed	50		 push	 eax
  007ee	8b 4d ec	 mov	 ecx, DWORD PTR _this$[ebp]
  007f1	83 c1 04	 add	 ecx, 4
  007f4	e8 00 00 00 00	 call	 ?push_back@?$vector@UOneLocalGame@@V?$allocator@UOneLocalGame@@@std@@@std@@QAEXABUOneLocalGame@@@Z ; std::vector<OneLocalGame,std::allocator<OneLocalGame> >::push_back

; 131  : 		}else

  007f9	e9 ab 00 00 00	 jmp	 $L189765
$L189759:

; 132  : 		{
; 133  : 			YL_Log( "LocalGameData.txt", LOG_DEBUG, "LoadGameData",":%s",
; 134  : 				olg.strGamePath.c_str() );

  007fe	8b f4		 mov	 esi, esp
  00800	68 00 00 00 00	 push	 OFFSET FLAT:$SG189769
  00805	8d 8d 14 fd ff
	ff		 lea	 ecx, DWORD PTR $T192417[ebp]
  0080b	ff 15 00 00 00
	00		 call	 DWORD PTR __imp_??0?$basic_string@DU?$char_traits@D@std@@V?$allocator@D@2@@std@@QAE@PBD@Z
  00811	3b f4		 cmp	 esi, esp
  00813	e8 00 00 00 00	 call	 __RTC_CheckEsp
  00818	c6 45 fc 0d	 mov	 BYTE PTR __$EHRec$[ebp+8], 13 ; 0000000dH
  0081c	8b f4		 mov	 esi, esp
  0081e	68 00 00 00 00	 push	 OFFSET FLAT:$SG189770
  00823	8d 8d f8 fc ff
	ff		 lea	 ecx, DWORD PTR $T192418[ebp]
  00829	ff 15 00 00 00
	00		 call	 DWORD PTR __imp_??0?$basic_string@DU?$char_traits@D@std@@V?$allocator@D@2@@std@@QAE@PBD@Z
  0082f	3b f4		 cmp	 esi, esp
  00831	e8 00 00 00 00	 call	 __RTC_CheckEsp
  00836	c6 45 fc 0e	 mov	 BYTE PTR __$EHRec$[ebp+8], 14 ; 0000000eH
  0083a	8b f4		 mov	 esi, esp
  0083c	8d 8d 28 fe ff
	ff		 lea	 ecx, DWORD PTR _olg$189748[ebp+56]
  00842	ff 15 00 00 00
	00		 call	 DWORD PTR __imp_?c_str@?$basic_string@DU?$char_traits@D@std@@V?$allocator@D@2@@std@@QBEPBDXZ
  00848	3b f4		 cmp	 esi, esp
  0084a	e8 00 00 00 00	 call	 __RTC_CheckEsp
  0084f	8b f4		 mov	 esi, esp
  00851	50		 push	 eax
  00852	68 00 00 00 00	 push	 OFFSET FLAT:$SG189768
  00857	8d 8d 14 fd ff
	ff		 lea	 ecx, DWORD PTR $T192417[ebp]
  0085d	51		 push	 ecx
  0085e	6a 00		 push	 0
  00860	8d 95 f8 fc ff
	ff		 lea	 edx, DWORD PTR $T192418[ebp]
  00866	52		 push	 edx
  00867	ff 15 00 00 00
	00		 call	 DWORD PTR __imp_?YL_Log@@YAXABV?$basic_string@DU?$char_traits@D@std@@V?$allocator@D@2@@std@@H0PBDZZ
  0086d	83 c4 14	 add	 esp, 20			; 00000014H
  00870	3b f4		 cmp	 esi, esp
  00872	e8 00 00 00 00	 call	 __RTC_CheckEsp
  00877	c6 45 fc 0d	 mov	 BYTE PTR __$EHRec$[ebp+8], 13 ; 0000000dH
  0087b	8b f4		 mov	 esi, esp
  0087d	8d 8d f8 fc ff
	ff		 lea	 ecx, DWORD PTR $T192418[ebp]
  00883	ff 15 00 00 00
	00		 call	 DWORD PTR __imp_??1?$basic_string@DU?$char_traits@D@std@@V?$allocator@D@2@@std@@QAE@XZ
  00889	3b f4		 cmp	 esi, esp
  0088b	e8 00 00 00 00	 call	 __RTC_CheckEsp
  00890	c6 45 fc 05	 mov	 BYTE PTR __$EHRec$[ebp+8], 5
  00894	8b f4		 mov	 esi, esp
  00896	8d 8d 14 fd ff
	ff		 lea	 ecx, DWORD PTR $T192417[ebp]
  0089c	ff 15 00 00 00
	00		 call	 DWORD PTR __imp_??1?$basic_string@DU?$char_traits@D@std@@V?$allocator@D@2@@std@@QAE@XZ
  008a2	3b f4		 cmp	 esi, esp
  008a4	e8 00 00 00 00	 call	 __RTC_CheckEsp
$L189765:

; 135  : 		}
; 136  : 	}

  008a9	c6 45 fc 02	 mov	 BYTE PTR __$EHRec$[ebp+8], 2
  008ad	8d 8d f0 fd ff
	ff		 lea	 ecx, DWORD PTR _olg$189748[ebp]
  008b3	e8 00 00 00 00	 call	 ??1OneLocalGame@@QAE@XZ
  008b8	e9 1b fc ff ff	 jmp	 $L189746
$L189747:

; 137  : 	xml.Close();

  008bd	8d 4d 94	 lea	 ecx, DWORD PTR _xml$[ebp]
  008c0	e8 00 00 00 00	 call	 ?Close@CMarkupArchive@@QAE_NXZ ; CMarkupArchive::Close

; 138  : }

  008c5	c7 45 fc ff ff
	ff ff		 mov	 DWORD PTR __$EHRec$[ebp+8], -1
  008cc	8d 4d 94	 lea	 ecx, DWORD PTR _xml$[ebp]
  008cf	e8 00 00 00 00	 call	 ??1CMarkupArchive@@UAE@XZ ; CMarkupArchive::~CMarkupArchive
$L189731:
  008d4	52		 push	 edx
  008d5	8b cd		 mov	 ecx, ebp
  008d7	50		 push	 eax
  008d8	8d 15 00 00 00
	00		 lea	 edx, DWORD PTR $L192442
  008de	e8 00 00 00 00	 call	 @_RTC_CheckStackVars@8
  008e3	58		 pop	 eax
  008e4	5a		 pop	 edx
  008e5	8b 4d f4	 mov	 ecx, DWORD PTR __$EHRec$[ebp]
  008e8	64 89 0d 00 00
	00 00		 mov	 DWORD PTR fs:__except_list, ecx
  008ef	8b 4d f0	 mov	 ecx, DWORD PTR __$ArrayPad$[ebp]
  008f2	e8 00 00 00 00	 call	 @__security_check_cookie@4
  008f7	5f		 pop	 edi
  008f8	5e		 pop	 esi
  008f9	81 c4 30 03 00
	00		 add	 esp, 816		; 00000330H
  008ff	3b ec		 cmp	 ebp, esp
  00901	e8 00 00 00 00	 call	 __RTC_CheckEsp
  00906	8b e5		 mov	 esp, ebp
  00908	5d		 pop	 ebp
  00909	c3		 ret	 0
$L192442:
  0090a	03 00 00 00	 DD	 3
  0090e	00 00 00 00	 DD	 $L192441
$L192441:
  00912	94 ff ff ff	 DD	 -108			; ffffff94H
  00916	54 00 00 00	 DD	 84			; 00000054H
  0091a	00 00 00 00	 DD	 $L192436
  0091e	88 fe ff ff	 DD	 -376			; fffffe88H
  00922	04 01 00 00	 DD	 260			; 00000104H
  00926	00 00 00 00	 DD	 $L192437
  0092a	f0 fd ff ff	 DD	 -528			; fffffdf0H
  0092e	90 00 00 00	 DD	 144			; 00000090H
  00932	00 00 00 00	 DD	 $L192438
$L192438:
  00936	6f		 DB	 111			; 0000006fH
  00937	6c		 DB	 108			; 0000006cH
  00938	67		 DB	 103			; 00000067H
  00939	00		 DB	 0
$L192437:
  0093a	73		 DB	 115			; 00000073H
  0093b	7a		 DB	 122			; 0000007aH
  0093c	48		 DB	 72			; 00000048H
  0093d	6f		 DB	 111			; 0000006fH
  0093e	6d		 DB	 109			; 0000006dH
  0093f	65		 DB	 101			; 00000065H
  00940	50		 DB	 80			; 00000050H
  00941	61		 DB	 97			; 00000061H
  00942	74		 DB	 116			; 00000074H
  00943	68		 DB	 104			; 00000068H
  00944	00		 DB	 0
$L192436:
  00945	78		 DB	 120			; 00000078H
  00946	6d		 DB	 109			; 0000006dH
  00947	6c		 DB	 108			; 0000006cH
  00948	00		 DB	 0
_TEXT	ENDS
text$x	SEGMENT
$L192419:
  00049	8b f4		 mov	 esi, esp
  0004b	8d 8d d0 fd ff
	ff		 lea	 ecx, DWORD PTR $T192406[ebp]
  00051	ff 15 00 00 00
	00		 call	 DWORD PTR __imp_??1?$basic_string@DU?$char_traits@D@std@@V?$allocator@D@2@@std@@QAE@XZ
  00057	3b f4		 cmp	 esi, esp
  00059	e9 00 00 00 00	 jmp	 __RTC_CheckEsp
$L192420:
  0005e	8b f4		 mov	 esi, esp
  00060	8d 8d b4 fd ff
	ff		 lea	 ecx, DWORD PTR $T192407[ebp]
  00066	ff 15 00 00 00
	00		 call	 DWORD PTR __imp_??1?$basic_string@DU?$char_traits@D@std@@V?$allocator@D@2@@std@@QAE@XZ
  0006c	3b f4		 cmp	 esi, esp
  0006e	e9 00 00 00 00	 jmp	 __RTC_CheckEsp
$L192421:
  00073	8d 4d 94	 lea	 ecx, DWORD PTR _xml$[ebp]
  00076	e9 00 00 00 00	 jmp	 ??1CMarkupArchive@@UAE@XZ ; CMarkupArchive::~CMarkupArchive
$L192422:
  0007b	8b f4		 mov	 esi, esp
  0007d	8d 8d 98 fd ff
	ff		 lea	 ecx, DWORD PTR $T192408[ebp]
  00083	ff 15 00 00 00
	00		 call	 DWORD PTR __imp_??1?$basic_string@DU?$char_traits@D@std@@V?$allocator@D@2@@std@@QAE@XZ
  00089	3b f4		 cmp	 esi, esp
  0008b	e9 00 00 00 00	 jmp	 __RTC_CheckEsp
$L192423:
  00090	8b f4		 mov	 esi, esp
  00092	8d 8d 7c fd ff
	ff		 lea	 ecx, DWORD PTR $T192409[ebp]
  00098	ff 15 00 00 00
	00		 call	 DWORD PTR __imp_??1?$basic_string@DU?$char_traits@D@std@@V?$allocator@D@2@@std@@QAE@XZ
  0009e	3b f4		 cmp	 esi, esp
  000a0	e9 00 00 00 00	 jmp	 __RTC_CheckEsp
$L192424:
  000a5	8d 8d f0 fd ff
	ff		 lea	 ecx, DWORD PTR _olg$189748[ebp]
  000ab	e9 00 00 00 00	 jmp	 ??1OneLocalGame@@QAE@XZ
$L192425:
  000b0	8b f4		 mov	 esi, esp
  000b2	8d 8d 78 fd ff
	ff		 lea	 ecx, DWORD PTR $T192410[ebp]
  000b8	ff 15 00 00 00
	00		 call	 DWORD PTR __imp_??1?$CStringT@DV?$StrTraitMFC_DLL@DV?$ChTraitsCRT@D@ATL@@@@@ATL@@QAE@XZ
  000be	3b f4		 cmp	 esi, esp
  000c0	e9 00 00 00 00	 jmp	 __RTC_CheckEsp
$L192426:
  000c5	8b f4		 mov	 esi, esp
  000c7	8d 8d 74 fd ff
	ff		 lea	 ecx, DWORD PTR $T192411[ebp]
  000cd	ff 15 00 00 00
	00		 call	 DWORD PTR __imp_??1?$CStringT@DV?$StrTraitMFC_DLL@DV?$ChTraitsCRT@D@ATL@@@@@ATL@@QAE@XZ
  000d3	3b f4		 cmp	 esi, esp
  000d5	e9 00 00 00 00	 jmp	 __RTC_CheckEsp
$L192427:
  000da	8b f4		 mov	 esi, esp
  000dc	8d 8d 70 fd ff
	ff		 lea	 ecx, DWORD PTR $T192412[ebp]
  000e2	ff 15 00 00 00
	00		 call	 DWORD PTR __imp_??1?$CStringT@DV?$StrTraitMFC_DLL@DV?$ChTraitsCRT@D@ATL@@@@@ATL@@QAE@XZ
  000e8	3b f4		 cmp	 esi, esp
  000ea	e9 00 00 00 00	 jmp	 __RTC_CheckEsp
$L192428:
  000ef	8b f4		 mov	 esi, esp
  000f1	8d 8d 6c fd ff
	ff		 lea	 ecx, DWORD PTR $T192413[ebp]
  000f7	ff 15 00 00 00
	00		 call	 DWORD PTR __imp_??1?$CStringT@DV?$StrTraitMFC_DLL@DV?$ChTraitsCRT@D@ATL@@@@@ATL@@QAE@XZ
  000fd	3b f4		 cmp	 esi, esp
  000ff	e9 00 00 00 00	 jmp	 __RTC_CheckEsp
$L192429:
  00104	8b f4		 mov	 esi, esp
  00106	8d 8d 68 fd ff
	ff		 lea	 ecx, DWORD PTR $T192414[ebp]
  0010c	ff 15 00 00 00
	00		 call	 DWORD PTR __imp_??1?$CStringT@DV?$StrTraitMFC_DLL@DV?$ChTraitsCRT@D@ATL@@@@@ATL@@QAE@XZ
  00112	3b f4		 cmp	 esi, esp
  00114	e9 00 00 00 00	 jmp	 __RTC_CheckEsp
$L192430:
  00119	8b f4		 mov	 esi, esp
  0011b	8d 8d 4c fd ff
	ff		 lea	 ecx, DWORD PTR $T192415[ebp]
  00121	ff 15 00 00 00
	00		 call	 DWORD PTR __imp_??1?$basic_string@DU?$char_traits@D@std@@V?$allocator@D@2@@std@@QAE@XZ
  00127	3b f4		 cmp	 esi, esp
  00129	e9 00 00 00 00	 jmp	 __RTC_CheckEsp
$L192431:
  0012e	8b f4		 mov	 esi, esp
  00130	8d 8d 30 fd ff
	ff		 lea	 ecx, DWORD PTR $T192416[ebp]
  00136	ff 15 00 00 00
	00		 call	 DWORD PTR __imp_??1?$basic_string@DU?$char_traits@D@std@@V?$allocator@D@2@@std@@QAE@XZ
  0013c	3b f4		 cmp	 esi, esp
  0013e	e9 00 00 00 00	 jmp	 __RTC_CheckEsp
$L192432:
  00143	8b f4		 mov	 esi, esp
  00145	8d 8d 14 fd ff
	ff		 lea	 ecx, DWORD PTR $T192417[ebp]
  0014b	ff 15 00 00 00
	00		 call	 DWORD PTR __imp_??1?$basic_string@DU?$char_traits@D@std@@V?$allocator@D@2@@std@@QAE@XZ
  00151	3b f4		 cmp	 esi, esp
  00153	e9 00 00 00 00	 jmp	 __RTC_CheckEsp
$L192433:
  00158	8b f4		 mov	 esi, esp
  0015a	8d 8d f8 fc ff
	ff		 lea	 ecx, DWORD PTR $T192418[ebp]
  00160	ff 15 00 00 00
	00		 call	 DWORD PTR __imp_??1?$basic_string@DU?$char_traits@D@std@@V?$allocator@D@2@@std@@QAE@XZ
  00166	3b f4		 cmp	 esi, esp
  00168	e9 00 00 00 00	 jmp	 __RTC_CheckEsp
__ehhandler$?LoadGameData@LocalGameData@@AAEXXZ:
  0016d	b8 00 00 00 00	 mov	 eax, OFFSET FLAT:$T192435
  00172	e9 00 00 00 00	 jmp	 ___CxxFrameHandler
text$x	ENDS
?LoadGameData@LocalGameData@@AAEXXZ ENDP		; LocalGameData::LoadGameData
PUBLIC	?clear@OneLocalGame@@QAEXXZ			; OneLocalGame::clear
;	COMDAT xdata$x
; File d:\boxgit\playbox\playbox\dev\prj\playbox\src\datainterface\ilocalgamedata.h
xdata$x	SEGMENT
$T192453 DD	0ffffffffH
	DD	FLAT:$L192445
	DD	00H
	DD	FLAT:$L192446
	DD	01H
	DD	FLAT:$L192447
	DD	02H
	DD	FLAT:$L192448
	DD	03H
	DD	FLAT:$L192449
$T192451 DD	019930520H
	DD	05H
	DD	FLAT:$T192453
	DD	2 DUP(00H)
	DD	2 DUP(00H)
; Function compile flags: /Odt /RTCsu
xdata$x	ENDS
;	COMDAT ??0OneLocalGame@@QAE@XZ
_TEXT	SEGMENT
_this$ = -16						; size = 4
__$EHRec$ = -12						; size = 12
??0OneLocalGame@@QAE@XZ PROC NEAR			; OneLocalGame::OneLocalGame, COMDAT
; _this$ = ecx

; 20   : 	OneLocalGame()

  00000	55		 push	 ebp
  00001	8b ec		 mov	 ebp, esp
  00003	6a ff		 push	 -1
  00005	68 00 00 00 00	 push	 __ehhandler$??0OneLocalGame@@QAE@XZ
  0000a	64 a1 00 00 00
	00		 mov	 eax, DWORD PTR fs:__except_list
  00010	50		 push	 eax
  00011	64 89 25 00 00
	00 00		 mov	 DWORD PTR fs:__except_list, esp
  00018	51		 push	 ecx
  00019	56		 push	 esi
  0001a	c7 45 f0 cc cc
	cc cc		 mov	 DWORD PTR [ebp-16], -858993460 ; ccccccccH
  00021	89 4d f0	 mov	 DWORD PTR _this$[ebp], ecx
  00024	8b f4		 mov	 esi, esp
  00026	8b 4d f0	 mov	 ecx, DWORD PTR _this$[ebp]
  00029	ff 15 00 00 00
	00		 call	 DWORD PTR __imp_??0?$basic_string@DU?$char_traits@D@std@@V?$allocator@D@2@@std@@QAE@XZ
  0002f	3b f4		 cmp	 esi, esp
  00031	e8 00 00 00 00	 call	 __RTC_CheckEsp
  00036	c7 45 fc 00 00
	00 00		 mov	 DWORD PTR __$EHRec$[ebp+8], 0
  0003d	8b 4d f0	 mov	 ecx, DWORD PTR _this$[ebp]
  00040	83 c1 1c	 add	 ecx, 28			; 0000001cH
  00043	8b f4		 mov	 esi, esp
  00045	ff 15 00 00 00
	00		 call	 DWORD PTR __imp_??0?$basic_string@DU?$char_traits@D@std@@V?$allocator@D@2@@std@@QAE@XZ
  0004b	3b f4		 cmp	 esi, esp
  0004d	e8 00 00 00 00	 call	 __RTC_CheckEsp
  00052	c6 45 fc 01	 mov	 BYTE PTR __$EHRec$[ebp+8], 1
  00056	8b 4d f0	 mov	 ecx, DWORD PTR _this$[ebp]
  00059	83 c1 38	 add	 ecx, 56			; 00000038H
  0005c	8b f4		 mov	 esi, esp
  0005e	ff 15 00 00 00
	00		 call	 DWORD PTR __imp_??0?$basic_string@DU?$char_traits@D@std@@V?$allocator@D@2@@std@@QAE@XZ
  00064	3b f4		 cmp	 esi, esp
  00066	e8 00 00 00 00	 call	 __RTC_CheckEsp
  0006b	c6 45 fc 02	 mov	 BYTE PTR __$EHRec$[ebp+8], 2
  0006f	8b 4d f0	 mov	 ecx, DWORD PTR _this$[ebp]
  00072	83 c1 54	 add	 ecx, 84			; 00000054H
  00075	8b f4		 mov	 esi, esp
  00077	ff 15 00 00 00
	00		 call	 DWORD PTR __imp_??0?$basic_string@DU?$char_traits@D@std@@V?$allocator@D@2@@std@@QAE@XZ
  0007d	3b f4		 cmp	 esi, esp
  0007f	e8 00 00 00 00	 call	 __RTC_CheckEsp
  00084	c6 45 fc 03	 mov	 BYTE PTR __$EHRec$[ebp+8], 3
  00088	8b 4d f0	 mov	 ecx, DWORD PTR _this$[ebp]
  0008b	83 c1 70	 add	 ecx, 112		; 00000070H
  0008e	8b f4		 mov	 esi, esp
  00090	ff 15 00 00 00
	00		 call	 DWORD PTR __imp_??0?$basic_string@DU?$char_traits@D@std@@V?$allocator@D@2@@std@@QAE@XZ
  00096	3b f4		 cmp	 esi, esp
  00098	e8 00 00 00 00	 call	 __RTC_CheckEsp
  0009d	c6 45 fc 04	 mov	 BYTE PTR __$EHRec$[ebp+8], 4

; 21   : 	{
; 22   : 		clear();

  000a1	8b 4d f0	 mov	 ecx, DWORD PTR _this$[ebp]
  000a4	e8 00 00 00 00	 call	 ?clear@OneLocalGame@@QAEXXZ ; OneLocalGame::clear

; 23   : 	}

  000a9	c7 45 fc ff ff
	ff ff		 mov	 DWORD PTR __$EHRec$[ebp+8], -1
  000b0	8b 45 f0	 mov	 eax, DWORD PTR _this$[ebp]
  000b3	8b 4d f4	 mov	 ecx, DWORD PTR __$EHRec$[ebp]
  000b6	64 89 0d 00 00
	00 00		 mov	 DWORD PTR fs:__except_list, ecx
  000bd	5e		 pop	 esi
  000be	83 c4 10	 add	 esp, 16			; 00000010H
  000c1	3b ec		 cmp	 ebp, esp
  000c3	e8 00 00 00 00	 call	 __RTC_CheckEsp
  000c8	8b e5		 mov	 esp, ebp
  000ca	5d		 pop	 ebp
  000cb	c3		 ret	 0
_TEXT	ENDS
;	COMDAT text$x
text$x	SEGMENT
$L192445:
  00000	8b f4		 mov	 esi, esp
  00002	8b 4d f0	 mov	 ecx, DWORD PTR _this$[ebp]
  00005	ff 15 00 00 00
	00		 call	 DWORD PTR __imp_??1?$basic_string@DU?$char_traits@D@std@@V?$allocator@D@2@@std@@QAE@XZ
  0000b	3b f4		 cmp	 esi, esp
  0000d	e9 00 00 00 00	 jmp	 __RTC_CheckEsp
$L192446:
  00012	8b 4d f0	 mov	 ecx, DWORD PTR _this$[ebp]
  00015	83 c1 1c	 add	 ecx, 28			; 0000001cH
  00018	8b f4		 mov	 esi, esp
  0001a	ff 15 00 00 00
	00		 call	 DWORD PTR __imp_??1?$basic_string@DU?$char_traits@D@std@@V?$allocator@D@2@@std@@QAE@XZ
  00020	3b f4		 cmp	 esi, esp
  00022	e9 00 00 00 00	 jmp	 __RTC_CheckEsp
$L192447:
  00027	8b 4d f0	 mov	 ecx, DWORD PTR _this$[ebp]
  0002a	83 c1 38	 add	 ecx, 56			; 00000038H
  0002d	8b f4		 mov	 esi, esp
  0002f	ff 15 00 00 00
	00		 call	 DWORD PTR __imp_??1?$basic_string@DU?$char_traits@D@std@@V?$allocator@D@2@@std@@QAE@XZ
  00035	3b f4		 cmp	 esi, esp
  00037	e9 00 00 00 00	 jmp	 __RTC_CheckEsp
$L192448:
  0003c	8b 4d f0	 mov	 ecx, DWORD PTR _this$[ebp]
  0003f	83 c1 54	 add	 ecx, 84			; 00000054H
  00042	8b f4		 mov	 esi, esp
  00044	ff 15 00 00 00
	00		 call	 DWORD PTR __imp_??1?$basic_string@DU?$char_traits@D@std@@V?$allocator@D@2@@std@@QAE@XZ
  0004a	3b f4		 cmp	 esi, esp
  0004c	e9 00 00 00 00	 jmp	 __RTC_CheckEsp
$L192449:
  00051	8b 4d f0	 mov	 ecx, DWORD PTR _this$[ebp]
  00054	83 c1 70	 add	 ecx, 112		; 00000070H
  00057	8b f4		 mov	 esi, esp
  00059	ff 15 00 00 00
	00		 call	 DWORD PTR __imp_??1?$basic_string@DU?$char_traits@D@std@@V?$allocator@D@2@@std@@QAE@XZ
  0005f	3b f4		 cmp	 esi, esp
  00061	e9 00 00 00 00	 jmp	 __RTC_CheckEsp
__ehhandler$??0OneLocalGame@@QAE@XZ:
  00066	b8 00 00 00 00	 mov	 eax, OFFSET FLAT:$T192451
  0006b	e9 00 00 00 00	 jmp	 ___CxxFrameHandler
text$x	ENDS
??0OneLocalGame@@QAE@XZ ENDP				; OneLocalGame::OneLocalGame
EXTRN	__imp_?clear@?$basic_string@DU?$char_traits@D@std@@V?$allocator@D@2@@std@@QAEXXZ:NEAR
; Function compile flags: /Odt /RTCsu
;	COMDAT ?clear@OneLocalGame@@QAEXXZ
_TEXT	SEGMENT
_this$ = -4						; size = 4
?clear@OneLocalGame@@QAEXXZ PROC NEAR			; OneLocalGame::clear, COMDAT
; _this$ = ecx

; 25   : 	{

  00000	55		 push	 ebp
  00001	8b ec		 mov	 ebp, esp
  00003	51		 push	 ecx
  00004	56		 push	 esi
  00005	c7 45 fc cc cc
	cc cc		 mov	 DWORD PTR [ebp-4], -858993460 ; ccccccccH
  0000c	89 4d fc	 mov	 DWORD PTR _this$[ebp], ecx

; 26   : 		strID.clear();

  0000f	8b f4		 mov	 esi, esp
  00011	8b 4d fc	 mov	 ecx, DWORD PTR _this$[ebp]
  00014	ff 15 00 00 00
	00		 call	 DWORD PTR __imp_?clear@?$basic_string@DU?$char_traits@D@std@@V?$allocator@D@2@@std@@QAEXXZ
  0001a	3b f4		 cmp	 esi, esp
  0001c	e8 00 00 00 00	 call	 __RTC_CheckEsp

; 27   : 		strName.clear();

  00021	8b 4d fc	 mov	 ecx, DWORD PTR _this$[ebp]
  00024	83 c1 1c	 add	 ecx, 28			; 0000001cH
  00027	8b f4		 mov	 esi, esp
  00029	ff 15 00 00 00
	00		 call	 DWORD PTR __imp_?clear@?$basic_string@DU?$char_traits@D@std@@V?$allocator@D@2@@std@@QAEXXZ
  0002f	3b f4		 cmp	 esi, esp
  00031	e8 00 00 00 00	 call	 __RTC_CheckEsp

; 28   : 		strGamePath.clear();

  00036	8b 4d fc	 mov	 ecx, DWORD PTR _this$[ebp]
  00039	83 c1 38	 add	 ecx, 56			; 00000038H
  0003c	8b f4		 mov	 esi, esp
  0003e	ff 15 00 00 00
	00		 call	 DWORD PTR __imp_?clear@?$basic_string@DU?$char_traits@D@std@@V?$allocator@D@2@@std@@QAEXXZ
  00044	3b f4		 cmp	 esi, esp
  00046	e8 00 00 00 00	 call	 __RTC_CheckEsp

; 29   : 		strPicPath.clear();

  0004b	8b 4d fc	 mov	 ecx, DWORD PTR _this$[ebp]
  0004e	83 c1 54	 add	 ecx, 84			; 00000054H
  00051	8b f4		 mov	 esi, esp
  00053	ff 15 00 00 00
	00		 call	 DWORD PTR __imp_?clear@?$basic_string@DU?$char_traits@D@std@@V?$allocator@D@2@@std@@QAEXXZ
  00059	3b f4		 cmp	 esi, esp
  0005b	e8 00 00 00 00	 call	 __RTC_CheckEsp

; 30   : 		strIntro.clear();

  00060	8b 4d fc	 mov	 ecx, DWORD PTR _this$[ebp]
  00063	83 c1 70	 add	 ecx, 112		; 00000070H
  00066	8b f4		 mov	 esi, esp
  00068	ff 15 00 00 00
	00		 call	 DWORD PTR __imp_?clear@?$basic_string@DU?$char_traits@D@std@@V?$allocator@D@2@@std@@QAEXXZ
  0006e	3b f4		 cmp	 esi, esp
  00070	e8 00 00 00 00	 call	 __RTC_CheckEsp

; 31   : 		uiFileSize    = 0;

  00075	8b 45 fc	 mov	 eax, DWORD PTR _this$[ebp]
  00078	c7 80 8c 00 00
	00 00 00 00 00	 mov	 DWORD PTR [eax+140], 0

; 32   : 	}

  00082	5e		 pop	 esi
  00083	83 c4 04	 add	 esp, 4
  00086	3b ec		 cmp	 ebp, esp
  00088	e8 00 00 00 00	 call	 __RTC_CheckEsp
  0008d	8b e5		 mov	 esp, ebp
  0008f	5d		 pop	 ebp
  00090	c3		 ret	 0
?clear@OneLocalGame@@QAEXXZ ENDP			; OneLocalGame::clear
_TEXT	ENDS
PUBLIC	?x_SetPos@CMarkup@@IAEXHHH@Z			; CMarkup::x_SetPos
; Function compile flags: /Odt /RTCsu
; File d:\boxgit\playbox\playbox\dev\prj\playbox\src\util\markup.h
;	COMDAT ?ResetPos@CMarkup@@QAEXXZ
_TEXT	SEGMENT
_this$ = -4						; size = 4
?ResetPos@CMarkup@@QAEXXZ PROC NEAR			; CMarkup::ResetPos, COMDAT
; _this$ = ecx

; 53   : 	void ResetPos() { x_SetPos(0,0,0); };

  00000	55		 push	 ebp
  00001	8b ec		 mov	 ebp, esp
  00003	51		 push	 ecx
  00004	c7 45 fc cc cc
	cc cc		 mov	 DWORD PTR [ebp-4], -858993460 ; ccccccccH
  0000b	89 4d fc	 mov	 DWORD PTR _this$[ebp], ecx
  0000e	6a 00		 push	 0
  00010	6a 00		 push	 0
  00012	6a 00		 push	 0
  00014	8b 4d fc	 mov	 ecx, DWORD PTR _this$[ebp]
  00017	e8 00 00 00 00	 call	 ?x_SetPos@CMarkup@@IAEXHHH@Z ; CMarkup::x_SetPos
  0001c	83 c4 04	 add	 esp, 4
  0001f	3b ec		 cmp	 ebp, esp
  00021	e8 00 00 00 00	 call	 __RTC_CheckEsp
  00026	8b e5		 mov	 esp, ebp
  00028	5d		 pop	 ebp
  00029	c3		 ret	 0
?ResetPos@CMarkup@@QAEXXZ ENDP				; CMarkup::ResetPos
_TEXT	ENDS
EXTRN	?x_GetAttrib@CMarkup@@IBE?AV?$CStringT@DV?$StrTraitMFC_DLL@DV?$ChTraitsCRT@D@ATL@@@@@ATL@@HPBD@Z:NEAR ; CMarkup::x_GetAttrib
; Function compile flags: /Odt /RTCsu
;	COMDAT ?GetAttrib@CMarkup@@QBE?AV?$CStringT@DV?$StrTraitMFC_DLL@DV?$ChTraitsCRT@D@ATL@@@@@ATL@@PBD@Z
_TEXT	SEGMENT
$T192460 = -8						; size = 4
_this$ = -4						; size = 4
___$ReturnUdt$ = 8					; size = 4
_szAttrib$ = 12						; size = 4
?GetAttrib@CMarkup@@QBE?AV?$CStringT@DV?$StrTraitMFC_DLL@DV?$ChTraitsCRT@D@ATL@@@@@ATL@@PBD@Z PROC NEAR ; CMarkup::GetAttrib, COMDAT
; _this$ = ecx

; 58   : 	CString GetAttrib( LPCTSTR szAttrib ) const { return x_GetAttrib(m_iPos,szAttrib); };

  00000	55		 push	 ebp
  00001	8b ec		 mov	 ebp, esp
  00003	83 ec 08	 sub	 esp, 8
  00006	c7 45 f8 cc cc
	cc cc		 mov	 DWORD PTR [ebp-8], -858993460 ; ccccccccH
  0000d	c7 45 fc cc cc
	cc cc		 mov	 DWORD PTR [ebp-4], -858993460 ; ccccccccH
  00014	89 4d fc	 mov	 DWORD PTR _this$[ebp], ecx
  00017	c7 45 f8 00 00
	00 00		 mov	 DWORD PTR $T192460[ebp], 0
  0001e	8b 45 0c	 mov	 eax, DWORD PTR _szAttrib$[ebp]
  00021	50		 push	 eax
  00022	8b 4d fc	 mov	 ecx, DWORD PTR _this$[ebp]
  00025	8b 51 2c	 mov	 edx, DWORD PTR [ecx+44]
  00028	52		 push	 edx
  00029	8b 45 08	 mov	 eax, DWORD PTR ___$ReturnUdt$[ebp]
  0002c	50		 push	 eax
  0002d	8b 4d fc	 mov	 ecx, DWORD PTR _this$[ebp]
  00030	e8 00 00 00 00	 call	 ?x_GetAttrib@CMarkup@@IBE?AV?$CStringT@DV?$StrTraitMFC_DLL@DV?$ChTraitsCRT@D@ATL@@@@@ATL@@HPBD@Z ; CMarkup::x_GetAttrib
  00035	8b 4d f8	 mov	 ecx, DWORD PTR $T192460[ebp]
  00038	83 c9 01	 or	 ecx, 1
  0003b	89 4d f8	 mov	 DWORD PTR $T192460[ebp], ecx
  0003e	8b 45 08	 mov	 eax, DWORD PTR ___$ReturnUdt$[ebp]
  00041	83 c4 08	 add	 esp, 8
  00044	3b ec		 cmp	 ebp, esp
  00046	e8 00 00 00 00	 call	 __RTC_CheckEsp
  0004b	8b e5		 mov	 esp, ebp
  0004d	5d		 pop	 ebp
  0004e	c2 08 00	 ret	 8
?GetAttrib@CMarkup@@QBE?AV?$CStringT@DV?$StrTraitMFC_DLL@DV?$ChTraitsCRT@D@ATL@@@@@ATL@@PBD@Z ENDP ; CMarkup::GetAttrib
_TEXT	ENDS
PUBLIC	??A?$CArray@UElemPos@CMarkup@@AAU12@@@QAEAAUElemPos@CMarkup@@H@Z ; CArray<CMarkup::ElemPos,CMarkup::ElemPos &>::operator[]
; Function compile flags: /Odt /RTCsu
;	COMDAT ?x_SetPos@CMarkup@@IAEXHHH@Z
_TEXT	SEGMENT
tv95 = -12						; size = 4
tv82 = -8						; size = 4
_this$ = -4						; size = 4
_iPosParent$ = 8					; size = 4
_iPos$ = 12						; size = 4
_iPosChild$ = 16					; size = 4
?x_SetPos@CMarkup@@IAEXHHH@Z PROC NEAR			; CMarkup::x_SetPos, COMDAT
; _this$ = ecx

; 132  : 	{

  00000	55		 push	 ebp
  00001	8b ec		 mov	 ebp, esp
  00003	83 ec 0c	 sub	 esp, 12			; 0000000cH
  00006	56		 push	 esi
  00007	c7 45 f4 cc cc
	cc cc		 mov	 DWORD PTR [ebp-12], -858993460 ; ccccccccH
  0000e	c7 45 f8 cc cc
	cc cc		 mov	 DWORD PTR [ebp-8], -858993460 ; ccccccccH
  00015	c7 45 fc cc cc
	cc cc		 mov	 DWORD PTR [ebp-4], -858993460 ; ccccccccH
  0001c	89 4d fc	 mov	 DWORD PTR _this$[ebp], ecx

; 133  : 		m_iPosParent = iPosParent;

  0001f	8b 45 fc	 mov	 eax, DWORD PTR _this$[ebp]
  00022	8b 4d 08	 mov	 ecx, DWORD PTR _iPosParent$[ebp]
  00025	89 48 28	 mov	 DWORD PTR [eax+40], ecx

; 134  : 		m_iPos = iPos;

  00028	8b 55 fc	 mov	 edx, DWORD PTR _this$[ebp]
  0002b	8b 45 0c	 mov	 eax, DWORD PTR _iPos$[ebp]
  0002e	89 42 2c	 mov	 DWORD PTR [edx+44], eax

; 135  : 		m_iPosChild = iPosChild;

  00031	8b 4d fc	 mov	 ecx, DWORD PTR _this$[ebp]
  00034	8b 55 10	 mov	 edx, DWORD PTR _iPosChild$[ebp]
  00037	89 51 30	 mov	 DWORD PTR [ecx+48], edx

; 136  : 		m_nNodeType = iPos?MNT_ELEMENT:0;

  0003a	33 c0		 xor	 eax, eax
  0003c	83 7d 0c 00	 cmp	 DWORD PTR _iPos$[ebp], 0
  00040	0f 95 c0	 setne	 al
  00043	8b 4d fc	 mov	 ecx, DWORD PTR _this$[ebp]
  00046	89 41 38	 mov	 DWORD PTR [ecx+56], eax

; 137  : 		MARKUP_SETDEBUGSTATE;

  00049	8b 55 fc	 mov	 edx, DWORD PTR _this$[ebp]
  0004c	83 7a 2c 00	 cmp	 DWORD PTR [edx+44], 0
  00050	74 30		 je	 SHORT $L192463
  00052	8b 4d fc	 mov	 ecx, DWORD PTR _this$[ebp]
  00055	83 c1 0c	 add	 ecx, 12			; 0000000cH
  00058	8b f4		 mov	 esi, esp
  0005a	ff 15 00 00 00
	00		 call	 DWORD PTR __imp_??B?$CSimpleStringT@D$00@ATL@@QBEPBDXZ
  00060	3b f4		 cmp	 esi, esp
  00062	e8 00 00 00 00	 call	 __RTC_CheckEsp
  00067	8b f0		 mov	 esi, eax
  00069	8b 45 fc	 mov	 eax, DWORD PTR _this$[ebp]
  0006c	8b 48 2c	 mov	 ecx, DWORD PTR [eax+44]
  0006f	51		 push	 ecx
  00070	8b 4d fc	 mov	 ecx, DWORD PTR _this$[ebp]
  00073	83 c1 14	 add	 ecx, 20			; 00000014H
  00076	e8 00 00 00 00	 call	 ??A?$CArray@UElemPos@CMarkup@@AAU12@@@QAEAAUElemPos@CMarkup@@H@Z ; CArray<CMarkup::ElemPos,CMarkup::ElemPos &>::operator[]
  0007b	03 30		 add	 esi, DWORD PTR [eax]
  0007d	89 75 f8	 mov	 DWORD PTR tv82[ebp], esi
  00080	eb 07		 jmp	 SHORT $L192464
$L192463:
  00082	c7 45 f8 00 00
	00 00		 mov	 DWORD PTR tv82[ebp], 0
$L192464:
  00089	8b 55 fc	 mov	 edx, DWORD PTR _this$[ebp]
  0008c	8b 45 f8	 mov	 eax, DWORD PTR tv82[ebp]
  0008f	89 42 04	 mov	 DWORD PTR [edx+4], eax
  00092	8b 4d fc	 mov	 ecx, DWORD PTR _this$[ebp]
  00095	83 79 30 00	 cmp	 DWORD PTR [ecx+48], 0
  00099	74 30		 je	 SHORT $L192465
  0009b	8b 4d fc	 mov	 ecx, DWORD PTR _this$[ebp]
  0009e	83 c1 0c	 add	 ecx, 12			; 0000000cH
  000a1	8b f4		 mov	 esi, esp
  000a3	ff 15 00 00 00
	00		 call	 DWORD PTR __imp_??B?$CSimpleStringT@D$00@ATL@@QBEPBDXZ
  000a9	3b f4		 cmp	 esi, esp
  000ab	e8 00 00 00 00	 call	 __RTC_CheckEsp
  000b0	8b f0		 mov	 esi, eax
  000b2	8b 55 fc	 mov	 edx, DWORD PTR _this$[ebp]
  000b5	8b 42 30	 mov	 eax, DWORD PTR [edx+48]
  000b8	50		 push	 eax
  000b9	8b 4d fc	 mov	 ecx, DWORD PTR _this$[ebp]
  000bc	83 c1 14	 add	 ecx, 20			; 00000014H
  000bf	e8 00 00 00 00	 call	 ??A?$CArray@UElemPos@CMarkup@@AAU12@@@QAEAAUElemPos@CMarkup@@H@Z ; CArray<CMarkup::ElemPos,CMarkup::ElemPos &>::operator[]
  000c4	03 30		 add	 esi, DWORD PTR [eax]
  000c6	89 75 f4	 mov	 DWORD PTR tv95[ebp], esi
  000c9	eb 07		 jmp	 SHORT $L192466
$L192465:
  000cb	c7 45 f4 00 00
	00 00		 mov	 DWORD PTR tv95[ebp], 0
$L192466:
  000d2	8b 4d fc	 mov	 ecx, DWORD PTR _this$[ebp]
  000d5	8b 55 f4	 mov	 edx, DWORD PTR tv95[ebp]
  000d8	89 51 08	 mov	 DWORD PTR [ecx+8], edx

; 138  : 	};

  000db	5e		 pop	 esi
  000dc	83 c4 0c	 add	 esp, 12			; 0000000cH
  000df	3b ec		 cmp	 ebp, esp
  000e1	e8 00 00 00 00	 call	 __RTC_CheckEsp
  000e6	8b e5		 mov	 esp, ebp
  000e8	5d		 pop	 ebp
  000e9	c2 0c 00	 ret	 12			; 0000000cH
?x_SetPos@CMarkup@@IAEXHHH@Z ENDP			; CMarkup::x_SetPos
_TEXT	ENDS
PUBLIC	?AddElem@CMarkupArchive@@UAE_NPBD0@Z		; CMarkupArchive::AddElem
PUBLIC	?AddChildElem@CMarkupArchive@@UAE_NPBD0@Z	; CMarkupArchive::AddChildElem
PUBLIC	??_7CMarkupArchive@@6B@				; CMarkupArchive::`vftable'
PUBLIC	??_GCMarkupArchive@@UAEPAXI@Z			; CMarkupArchive::`scalar deleting destructor'
PUBLIC	??_C@_0L@GJIJNDEK@ISO?98859?91?$AA@		; `string'
PUBLIC	??_R0?AVCMarkup@@@8				; CMarkup `RTTI Type Descriptor'
PUBLIC	??_R1A@?0A@A@CMarkup@@8				; CMarkup::`RTTI Base Class Descriptor at (0,-1,0,0)'
PUBLIC	??_R4CMarkupArchive@@6B@			; CMarkupArchive::`RTTI Complete Object Locator'
PUBLIC	??_R0?AVCMarkupArchive@@@8			; CMarkupArchive `RTTI Type Descriptor'
PUBLIC	??_R3CMarkupArchive@@8				; CMarkupArchive::`RTTI Class Hierarchy Descriptor'
PUBLIC	??_R2CMarkupArchive@@8				; CMarkupArchive::`RTTI Base Class Array'
PUBLIC	??_R1A@?0A@A@CMarkupArchive@@8			; CMarkupArchive::`RTTI Base Class Descriptor at (0,-1,0,0)'
PUBLIC	??0CMarkup@@QAE@XZ				; CMarkup::CMarkup
PUBLIC	??1CMarkup@@UAE@XZ				; CMarkup::~CMarkup
EXTRN	??_ECMarkupArchive@@UAEPAXI@Z:NEAR		; CMarkupArchive::`vector deleting destructor'
EXTRN	__imp_??0?$CStringT@DV?$StrTraitMFC_DLL@DV?$ChTraitsCRT@D@ATL@@@@@ATL@@QAE@XZ:NEAR
EXTRN	__imp_??4?$CStringT@DV?$StrTraitMFC_DLL@DV?$ChTraitsCRT@D@ATL@@@@@ATL@@QAEAAV01@PBD@Z:NEAR
;	COMDAT xdata$x
; File d:\boxgit\playbox\playbox\dev\prj\playbox\src\util\markuparchive.h
xdata$x	SEGMENT
$T192476 DD	0ffffffffH
	DD	FLAT:$L192468
	DD	00H
	DD	FLAT:$L192469
	DD	01H
	DD	FLAT:$L192470
	DD	02H
	DD	FLAT:$L192471
	DD	03H
	DD	FLAT:$L192472
$T192474 DD	019930520H
	DD	05H
	DD	FLAT:$T192476
	DD	2 DUP(00H)
	DD	2 DUP(00H)
xdata$x	ENDS
;	COMDAT ??_7CMarkupArchive@@6B@
CONST	SEGMENT
??_7CMarkupArchive@@6B@ DD FLAT:??_R4CMarkupArchive@@6B@ ; CMarkupArchive::`vftable'
	DD	FLAT:??_ECMarkupArchive@@UAEPAXI@Z
	DD	FLAT:?AddElem@CMarkupArchive@@UAE_NPBD0@Z
	DD	FLAT:?AddChildElem@CMarkupArchive@@UAE_NPBD0@Z
	DD	FLAT:?FindElem@CMarkupArchive@@UAE_NPBD@Z
	DD	FLAT:?FindChildElem@CMarkupArchive@@UAE_NPBD@Z
CONST	ENDS
;	COMDAT ??_C@_0L@GJIJNDEK@ISO?98859?91?$AA@
CONST	SEGMENT
??_C@_0L@GJIJNDEK@ISO?98859?91?$AA@ DB 'ISO-8859-1', 00H ; `string'
CONST	ENDS
;	COMDAT ??_R4CMarkupArchive@@6B@
rdata$r	SEGMENT
??_R4CMarkupArchive@@6B@ DD 00H				; CMarkupArchive::`RTTI Complete Object Locator'
	DD	00H
	DD	00H
	DD	FLAT:??_R0?AVCMarkupArchive@@@8
	DD	FLAT:??_R3CMarkupArchive@@8
rdata$r	ENDS
;	COMDAT ??_R0?AVCMarkupArchive@@@8
_DATA	SEGMENT
??_R0?AVCMarkupArchive@@@8 DD FLAT:??_7type_info@@6B@	; CMarkupArchive `RTTI Type Descriptor'
	DD	00H
	DB	'.?AVCMarkupArchive@@', 00H
_DATA	ENDS
;	COMDAT ??_R3CMarkupArchive@@8
rdata$r	SEGMENT
??_R3CMarkupArchive@@8 DD 00H				; CMarkupArchive::`RTTI Class Hierarchy Descriptor'
	DD	00H
	DD	02H
	DD	FLAT:??_R2CMarkupArchive@@8
rdata$r	ENDS
;	COMDAT ??_R2CMarkupArchive@@8
rdata$r	SEGMENT
??_R2CMarkupArchive@@8 DD FLAT:??_R1A@?0A@A@CMarkupArchive@@8 ; CMarkupArchive::`RTTI Base Class Array'
	DD	FLAT:??_R1A@?0A@A@CMarkup@@8
rdata$r	ENDS
;	COMDAT ??_R1A@?0A@A@CMarkupArchive@@8
rdata$r	SEGMENT
??_R1A@?0A@A@CMarkupArchive@@8 DD FLAT:??_R0?AVCMarkupArchive@@@8 ; CMarkupArchive::`RTTI Base Class Descriptor at (0,-1,0,0)'
	DD	01H
	DD	00H
	DD	0ffffffffH
	DD	00H
	DD	00H
rdata$r	ENDS
;	COMDAT ??_R1A@?0A@A@CMarkup@@8
rdata$r	SEGMENT
??_R1A@?0A@A@CMarkup@@8 DD FLAT:??_R0?AVCMarkup@@@8	; CMarkup::`RTTI Base Class Descriptor at (0,-1,0,0)'
	DD	00H
	DD	00H
	DD	0ffffffffH
	DD	00H
	DD	00H
rdata$r	ENDS
;	COMDAT ??_R0?AVCMarkup@@@8
_DATA	SEGMENT
??_R0?AVCMarkup@@@8 DD FLAT:??_7type_info@@6B@		; CMarkup `RTTI Type Descriptor'
	DD	00H
	DB	'.?AVCMarkup@@', 00H
; Function compile flags: /Odt /RTCsu
_DATA	ENDS
;	COMDAT ??0CMarkupArchive@@QAE@K@Z
_TEXT	SEGMENT
_this$ = -16						; size = 4
__$EHRec$ = -12						; size = 12
_dwMode$ = 8						; size = 4
??0CMarkupArchive@@QAE@K@Z PROC NEAR			; CMarkupArchive::CMarkupArchive, COMDAT
; _this$ = ecx

; 56   : 	CMarkupArchive(DWORD dwMode = ArchiveModeCreate | ArchiveModeStoring): CMarkup() {	m_dwMode = dwMode; m_bOpened=false; m_strEncodingString = _T("ISO-8859-1");};

  00000	55		 push	 ebp
  00001	8b ec		 mov	 ebp, esp
  00003	6a ff		 push	 -1
  00005	68 00 00 00 00	 push	 __ehhandler$??0CMarkupArchive@@QAE@K@Z
  0000a	64 a1 00 00 00
	00		 mov	 eax, DWORD PTR fs:__except_list
  00010	50		 push	 eax
  00011	64 89 25 00 00
	00 00		 mov	 DWORD PTR fs:__except_list, esp
  00018	51		 push	 ecx
  00019	56		 push	 esi
  0001a	c7 45 f0 cc cc
	cc cc		 mov	 DWORD PTR [ebp-16], -858993460 ; ccccccccH
  00021	89 4d f0	 mov	 DWORD PTR _this$[ebp], ecx
  00024	8b 4d f0	 mov	 ecx, DWORD PTR _this$[ebp]
  00027	e8 00 00 00 00	 call	 ??0CMarkup@@QAE@XZ	; CMarkup::CMarkup
  0002c	c7 45 fc 00 00
	00 00		 mov	 DWORD PTR __$EHRec$[ebp+8], 0
  00033	8b 45 f0	 mov	 eax, DWORD PTR _this$[ebp]
  00036	c7 00 00 00 00
	00		 mov	 DWORD PTR [eax], OFFSET FLAT:??_7CMarkupArchive@@6B@
  0003c	8b 4d f0	 mov	 ecx, DWORD PTR _this$[ebp]
  0003f	83 c1 40	 add	 ecx, 64			; 00000040H
  00042	8b f4		 mov	 esi, esp
  00044	ff 15 00 00 00
	00		 call	 DWORD PTR __imp_??0?$CStringT@DV?$StrTraitMFC_DLL@DV?$ChTraitsCRT@D@ATL@@@@@ATL@@QAE@XZ
  0004a	3b f4		 cmp	 esi, esp
  0004c	e8 00 00 00 00	 call	 __RTC_CheckEsp
  00051	c6 45 fc 01	 mov	 BYTE PTR __$EHRec$[ebp+8], 1
  00055	8b 4d f0	 mov	 ecx, DWORD PTR _this$[ebp]
  00058	83 c1 48	 add	 ecx, 72			; 00000048H
  0005b	8b f4		 mov	 esi, esp
  0005d	ff 15 00 00 00
	00		 call	 DWORD PTR __imp_??0?$CStringT@DV?$StrTraitMFC_DLL@DV?$ChTraitsCRT@D@ATL@@@@@ATL@@QAE@XZ
  00063	3b f4		 cmp	 esi, esp
  00065	e8 00 00 00 00	 call	 __RTC_CheckEsp
  0006a	c6 45 fc 02	 mov	 BYTE PTR __$EHRec$[ebp+8], 2
  0006e	8b 4d f0	 mov	 ecx, DWORD PTR _this$[ebp]
  00071	83 c1 4c	 add	 ecx, 76			; 0000004cH
  00074	8b f4		 mov	 esi, esp
  00076	ff 15 00 00 00
	00		 call	 DWORD PTR __imp_??0?$CStringT@DV?$StrTraitMFC_DLL@DV?$ChTraitsCRT@D@ATL@@@@@ATL@@QAE@XZ
  0007c	3b f4		 cmp	 esi, esp
  0007e	e8 00 00 00 00	 call	 __RTC_CheckEsp
  00083	c6 45 fc 03	 mov	 BYTE PTR __$EHRec$[ebp+8], 3
  00087	8b 4d f0	 mov	 ecx, DWORD PTR _this$[ebp]
  0008a	83 c1 50	 add	 ecx, 80			; 00000050H
  0008d	8b f4		 mov	 esi, esp
  0008f	ff 15 00 00 00
	00		 call	 DWORD PTR __imp_??0?$CStringT@DV?$StrTraitMFC_DLL@DV?$ChTraitsCRT@D@ATL@@@@@ATL@@QAE@XZ
  00095	3b f4		 cmp	 esi, esp
  00097	e8 00 00 00 00	 call	 __RTC_CheckEsp
  0009c	c6 45 fc 04	 mov	 BYTE PTR __$EHRec$[ebp+8], 4
  000a0	8b 4d f0	 mov	 ecx, DWORD PTR _this$[ebp]
  000a3	8b 55 08	 mov	 edx, DWORD PTR _dwMode$[ebp]
  000a6	89 51 3c	 mov	 DWORD PTR [ecx+60], edx
  000a9	8b 45 f0	 mov	 eax, DWORD PTR _this$[ebp]
  000ac	c6 40 44 00	 mov	 BYTE PTR [eax+68], 0
  000b0	8b f4		 mov	 esi, esp
  000b2	68 00 00 00 00	 push	 OFFSET FLAT:??_C@_0L@GJIJNDEK@ISO?98859?91?$AA@
  000b7	8b 4d f0	 mov	 ecx, DWORD PTR _this$[ebp]
  000ba	83 c1 40	 add	 ecx, 64			; 00000040H
  000bd	ff 15 00 00 00
	00		 call	 DWORD PTR __imp_??4?$CStringT@DV?$StrTraitMFC_DLL@DV?$ChTraitsCRT@D@ATL@@@@@ATL@@QAEAAV01@PBD@Z
  000c3	3b f4		 cmp	 esi, esp
  000c5	e8 00 00 00 00	 call	 __RTC_CheckEsp
  000ca	c7 45 fc ff ff
	ff ff		 mov	 DWORD PTR __$EHRec$[ebp+8], -1
  000d1	8b 45 f0	 mov	 eax, DWORD PTR _this$[ebp]
  000d4	8b 4d f4	 mov	 ecx, DWORD PTR __$EHRec$[ebp]
  000d7	64 89 0d 00 00
	00 00		 mov	 DWORD PTR fs:__except_list, ecx
  000de	5e		 pop	 esi
  000df	83 c4 10	 add	 esp, 16			; 00000010H
  000e2	3b ec		 cmp	 ebp, esp
  000e4	e8 00 00 00 00	 call	 __RTC_CheckEsp
  000e9	8b e5		 mov	 esp, ebp
  000eb	5d		 pop	 ebp
  000ec	c2 04 00	 ret	 4
_TEXT	ENDS
;	COMDAT text$x
text$x	SEGMENT
$L192468:
  00000	8b 4d f0	 mov	 ecx, DWORD PTR _this$[ebp]
  00003	e9 00 00 00 00	 jmp	 ??1CMarkup@@UAE@XZ	; CMarkup::~CMarkup
$L192469:
  00008	8b 4d f0	 mov	 ecx, DWORD PTR _this$[ebp]
  0000b	83 c1 40	 add	 ecx, 64			; 00000040H
  0000e	8b f4		 mov	 esi, esp
  00010	ff 15 00 00 00
	00		 call	 DWORD PTR __imp_??1?$CStringT@DV?$StrTraitMFC_DLL@DV?$ChTraitsCRT@D@ATL@@@@@ATL@@QAE@XZ
  00016	3b f4		 cmp	 esi, esp
  00018	e9 00 00 00 00	 jmp	 __RTC_CheckEsp
$L192470:
  0001d	8b 4d f0	 mov	 ecx, DWORD PTR _this$[ebp]
  00020	83 c1 48	 add	 ecx, 72			; 00000048H
  00023	8b f4		 mov	 esi, esp
  00025	ff 15 00 00 00
	00		 call	 DWORD PTR __imp_??1?$CStringT@DV?$StrTraitMFC_DLL@DV?$ChTraitsCRT@D@ATL@@@@@ATL@@QAE@XZ
  0002b	3b f4		 cmp	 esi, esp
  0002d	e9 00 00 00 00	 jmp	 __RTC_CheckEsp
$L192471:
  00032	8b 4d f0	 mov	 ecx, DWORD PTR _this$[ebp]
  00035	83 c1 4c	 add	 ecx, 76			; 0000004cH
  00038	8b f4		 mov	 esi, esp
  0003a	ff 15 00 00 00
	00		 call	 DWORD PTR __imp_??1?$CStringT@DV?$StrTraitMFC_DLL@DV?$ChTraitsCRT@D@ATL@@@@@ATL@@QAE@XZ
  00040	3b f4		 cmp	 esi, esp
  00042	e9 00 00 00 00	 jmp	 __RTC_CheckEsp
$L192472:
  00047	8b 4d f0	 mov	 ecx, DWORD PTR _this$[ebp]
  0004a	83 c1 50	 add	 ecx, 80			; 00000050H
  0004d	8b f4		 mov	 esi, esp
  0004f	ff 15 00 00 00
	00		 call	 DWORD PTR __imp_??1?$CStringT@DV?$StrTraitMFC_DLL@DV?$ChTraitsCRT@D@ATL@@@@@ATL@@QAE@XZ
  00055	3b f4		 cmp	 esi, esp
  00057	e9 00 00 00 00	 jmp	 __RTC_CheckEsp
__ehhandler$??0CMarkupArchive@@QAE@K@Z:
  0005c	b8 00 00 00 00	 mov	 eax, OFFSET FLAT:$T192474
  00061	e9 00 00 00 00	 jmp	 ___CxxFrameHandler
text$x	ENDS
??0CMarkupArchive@@QAE@K@Z ENDP				; CMarkupArchive::CMarkupArchive
PUBLIC	??_R4CMarkup@@6B@				; CMarkup::`RTTI Complete Object Locator'
PUBLIC	??_R3CMarkup@@8					; CMarkup::`RTTI Class Hierarchy Descriptor'
PUBLIC	??_R2CMarkup@@8					; CMarkup::`RTTI Base Class Array'
PUBLIC	??0?$CArray@UElemPos@CMarkup@@AAU12@@@QAE@XZ	; CArray<CMarkup::ElemPos,CMarkup::ElemPos &>::CArray<CMarkup::ElemPos,CMarkup::ElemPos &>
PUBLIC	??1?$CArray@UElemPos@CMarkup@@AAU12@@@UAE@XZ	; CArray<CMarkup::ElemPos,CMarkup::ElemPos &>::~CArray<CMarkup::ElemPos,CMarkup::ElemPos &>
PUBLIC	??_7CMarkup@@6B@				; CMarkup::`vftable'
PUBLIC	??_GCMarkup@@UAEPAXI@Z				; CMarkup::`scalar deleting destructor'
EXTRN	?SetDoc@CMarkup@@QAE_NPBD@Z:NEAR		; CMarkup::SetDoc
EXTRN	??_ECMarkup@@UAEPAXI@Z:NEAR			; CMarkup::`vector deleting destructor'
;	COMDAT xdata$x
; File d:\boxgit\playbox\playbox\dev\prj\playbox\src\util\markup.h
xdata$x	SEGMENT
$T192486 DD	0ffffffffH
	DD	FLAT:$L192480
	DD	00H
	DD	FLAT:$L192481
	DD	01H
	DD	FLAT:$L192482
$T192484 DD	019930520H
	DD	03H
	DD	FLAT:$T192486
	DD	2 DUP(00H)
	DD	2 DUP(00H)
xdata$x	ENDS
;	COMDAT ??_7CMarkup@@6B@
CONST	SEGMENT
??_7CMarkup@@6B@ DD FLAT:??_R4CMarkup@@6B@		; CMarkup::`vftable'
	DD	FLAT:??_ECMarkup@@UAEPAXI@Z
CONST	ENDS
;	COMDAT ??_R4CMarkup@@6B@
rdata$r	SEGMENT
??_R4CMarkup@@6B@ DD 00H				; CMarkup::`RTTI Complete Object Locator'
	DD	00H
	DD	00H
	DD	FLAT:??_R0?AVCMarkup@@@8
	DD	FLAT:??_R3CMarkup@@8
rdata$r	ENDS
;	COMDAT ??_R3CMarkup@@8
rdata$r	SEGMENT
??_R3CMarkup@@8 DD 00H					; CMarkup::`RTTI Class Hierarchy Descriptor'
	DD	00H
	DD	01H
	DD	FLAT:??_R2CMarkup@@8
rdata$r	ENDS
;	COMDAT ??_R2CMarkup@@8
rdata$r	SEGMENT
??_R2CMarkup@@8 DD FLAT:??_R1A@?0A@A@CMarkup@@8		; CMarkup::`RTTI Base Class Array'
; Function compile flags: /Odt /RTCsu
rdata$r	ENDS
;	COMDAT ??0CMarkup@@QAE@XZ
_TEXT	SEGMENT
_this$ = -16						; size = 4
__$EHRec$ = -12						; size = 12
??0CMarkup@@QAE@XZ PROC NEAR				; CMarkup::CMarkup, COMDAT
; _this$ = ecx

; 29   : 	CMarkup() { SetDoc( NULL ); };

  00000	55		 push	 ebp
  00001	8b ec		 mov	 ebp, esp
  00003	6a ff		 push	 -1
  00005	68 00 00 00 00	 push	 __ehhandler$??0CMarkup@@QAE@XZ
  0000a	64 a1 00 00 00
	00		 mov	 eax, DWORD PTR fs:__except_list
  00010	50		 push	 eax
  00011	64 89 25 00 00
	00 00		 mov	 DWORD PTR fs:__except_list, esp
  00018	51		 push	 ecx
  00019	56		 push	 esi
  0001a	c7 45 f0 cc cc
	cc cc		 mov	 DWORD PTR [ebp-16], -858993460 ; ccccccccH
  00021	89 4d f0	 mov	 DWORD PTR _this$[ebp], ecx
  00024	8b 45 f0	 mov	 eax, DWORD PTR _this$[ebp]
  00027	c7 00 00 00 00
	00		 mov	 DWORD PTR [eax], OFFSET FLAT:??_7CMarkup@@6B@
  0002d	8b 4d f0	 mov	 ecx, DWORD PTR _this$[ebp]
  00030	83 c1 0c	 add	 ecx, 12			; 0000000cH
  00033	8b f4		 mov	 esi, esp
  00035	ff 15 00 00 00
	00		 call	 DWORD PTR __imp_??0?$CStringT@DV?$StrTraitMFC_DLL@DV?$ChTraitsCRT@D@ATL@@@@@ATL@@QAE@XZ
  0003b	3b f4		 cmp	 esi, esp
  0003d	e8 00 00 00 00	 call	 __RTC_CheckEsp
  00042	c7 45 fc 00 00
	00 00		 mov	 DWORD PTR __$EHRec$[ebp+8], 0
  00049	8b 4d f0	 mov	 ecx, DWORD PTR _this$[ebp]
  0004c	83 c1 10	 add	 ecx, 16			; 00000010H
  0004f	8b f4		 mov	 esi, esp
  00051	ff 15 00 00 00
	00		 call	 DWORD PTR __imp_??0?$CStringT@DV?$StrTraitMFC_DLL@DV?$ChTraitsCRT@D@ATL@@@@@ATL@@QAE@XZ
  00057	3b f4		 cmp	 esi, esp
  00059	e8 00 00 00 00	 call	 __RTC_CheckEsp
  0005e	c6 45 fc 01	 mov	 BYTE PTR __$EHRec$[ebp+8], 1
  00062	8b 4d f0	 mov	 ecx, DWORD PTR _this$[ebp]
  00065	83 c1 14	 add	 ecx, 20			; 00000014H
  00068	e8 00 00 00 00	 call	 ??0?$CArray@UElemPos@CMarkup@@AAU12@@@QAE@XZ ; CArray<CMarkup::ElemPos,CMarkup::ElemPos &>::CArray<CMarkup::ElemPos,CMarkup::ElemPos &>
  0006d	c6 45 fc 02	 mov	 BYTE PTR __$EHRec$[ebp+8], 2
  00071	6a 00		 push	 0
  00073	8b 4d f0	 mov	 ecx, DWORD PTR _this$[ebp]
  00076	e8 00 00 00 00	 call	 ?SetDoc@CMarkup@@QAE_NPBD@Z ; CMarkup::SetDoc
  0007b	c7 45 fc ff ff
	ff ff		 mov	 DWORD PTR __$EHRec$[ebp+8], -1
  00082	8b 45 f0	 mov	 eax, DWORD PTR _this$[ebp]
  00085	8b 4d f4	 mov	 ecx, DWORD PTR __$EHRec$[ebp]
  00088	64 89 0d 00 00
	00 00		 mov	 DWORD PTR fs:__except_list, ecx
  0008f	5e		 pop	 esi
  00090	83 c4 10	 add	 esp, 16			; 00000010H
  00093	3b ec		 cmp	 ebp, esp
  00095	e8 00 00 00 00	 call	 __RTC_CheckEsp
  0009a	8b e5		 mov	 esp, ebp
  0009c	5d		 pop	 ebp
  0009d	c3		 ret	 0
_TEXT	ENDS
;	COMDAT text$x
text$x	SEGMENT
$L192480:
  00000	8b 4d f0	 mov	 ecx, DWORD PTR _this$[ebp]
  00003	83 c1 0c	 add	 ecx, 12			; 0000000cH
  00006	8b f4		 mov	 esi, esp
  00008	ff 15 00 00 00
	00		 call	 DWORD PTR __imp_??1?$CStringT@DV?$StrTraitMFC_DLL@DV?$ChTraitsCRT@D@ATL@@@@@ATL@@QAE@XZ
  0000e	3b f4		 cmp	 esi, esp
  00010	e9 00 00 00 00	 jmp	 __RTC_CheckEsp
$L192481:
  00015	8b 4d f0	 mov	 ecx, DWORD PTR _this$[ebp]
  00018	83 c1 10	 add	 ecx, 16			; 00000010H
  0001b	8b f4		 mov	 esi, esp
  0001d	ff 15 00 00 00
	00		 call	 DWORD PTR __imp_??1?$CStringT@DV?$StrTraitMFC_DLL@DV?$ChTraitsCRT@D@ATL@@@@@ATL@@QAE@XZ
  00023	3b f4		 cmp	 esi, esp
  00025	e9 00 00 00 00	 jmp	 __RTC_CheckEsp
$L192482:
  0002a	8b 4d f0	 mov	 ecx, DWORD PTR _this$[ebp]
  0002d	83 c1 14	 add	 ecx, 20			; 00000014H
  00030	e9 00 00 00 00	 jmp	 ??1?$CArray@UElemPos@CMarkup@@AAU12@@@UAE@XZ ; CArray<CMarkup::ElemPos,CMarkup::ElemPos &>::~CArray<CMarkup::ElemPos,CMarkup::ElemPos &>
__ehhandler$??0CMarkup@@QAE@XZ:
  00035	b8 00 00 00 00	 mov	 eax, OFFSET FLAT:$T192484
  0003a	e9 00 00 00 00	 jmp	 ___CxxFrameHandler
text$x	ENDS
??0CMarkup@@QAE@XZ ENDP					; CMarkup::CMarkup
;	COMDAT xdata$x
xdata$x	SEGMENT
$T192496 DD	0ffffffffH
	DD	FLAT:$L192490
	DD	00H
	DD	FLAT:$L192491
$T192494 DD	019930520H
	DD	02H
	DD	FLAT:$T192496
	DD	2 DUP(00H)
	DD	2 DUP(00H)
; Function compile flags: /Odt /RTCsu
xdata$x	ENDS
;	COMDAT ??1CMarkup@@UAE@XZ
_TEXT	SEGMENT
_this$ = -16						; size = 4
__$EHRec$ = -12						; size = 12
??1CMarkup@@UAE@XZ PROC NEAR				; CMarkup::~CMarkup, COMDAT
; _this$ = ecx

; 33   : 	virtual ~CMarkup() {};

  00000	55		 push	 ebp
  00001	8b ec		 mov	 ebp, esp
  00003	6a ff		 push	 -1
  00005	68 00 00 00 00	 push	 __ehhandler$??1CMarkup@@UAE@XZ
  0000a	64 a1 00 00 00
	00		 mov	 eax, DWORD PTR fs:__except_list
  00010	50		 push	 eax
  00011	64 89 25 00 00
	00 00		 mov	 DWORD PTR fs:__except_list, esp
  00018	51		 push	 ecx
  00019	56		 push	 esi
  0001a	c7 45 f0 cc cc
	cc cc		 mov	 DWORD PTR [ebp-16], -858993460 ; ccccccccH
  00021	89 4d f0	 mov	 DWORD PTR _this$[ebp], ecx
  00024	8b 45 f0	 mov	 eax, DWORD PTR _this$[ebp]
  00027	c7 00 00 00 00
	00		 mov	 DWORD PTR [eax], OFFSET FLAT:??_7CMarkup@@6B@
  0002d	c7 45 fc 01 00
	00 00		 mov	 DWORD PTR __$EHRec$[ebp+8], 1
  00034	8b 4d f0	 mov	 ecx, DWORD PTR _this$[ebp]
  00037	83 c1 14	 add	 ecx, 20			; 00000014H
  0003a	e8 00 00 00 00	 call	 ??1?$CArray@UElemPos@CMarkup@@AAU12@@@UAE@XZ ; CArray<CMarkup::ElemPos,CMarkup::ElemPos &>::~CArray<CMarkup::ElemPos,CMarkup::ElemPos &>
  0003f	c6 45 fc 00	 mov	 BYTE PTR __$EHRec$[ebp+8], 0
  00043	8b 4d f0	 mov	 ecx, DWORD PTR _this$[ebp]
  00046	83 c1 10	 add	 ecx, 16			; 00000010H
  00049	8b f4		 mov	 esi, esp
  0004b	ff 15 00 00 00
	00		 call	 DWORD PTR __imp_??1?$CStringT@DV?$StrTraitMFC_DLL@DV?$ChTraitsCRT@D@ATL@@@@@ATL@@QAE@XZ
  00051	3b f4		 cmp	 esi, esp
  00053	e8 00 00 00 00	 call	 __RTC_CheckEsp
  00058	c7 45 fc ff ff
	ff ff		 mov	 DWORD PTR __$EHRec$[ebp+8], -1
  0005f	8b 4d f0	 mov	 ecx, DWORD PTR _this$[ebp]
  00062	83 c1 0c	 add	 ecx, 12			; 0000000cH
  00065	8b f4		 mov	 esi, esp
  00067	ff 15 00 00 00
	00		 call	 DWORD PTR __imp_??1?$CStringT@DV?$StrTraitMFC_DLL@DV?$ChTraitsCRT@D@ATL@@@@@ATL@@QAE@XZ
  0006d	3b f4		 cmp	 esi, esp
  0006f	e8 00 00 00 00	 call	 __RTC_CheckEsp
  00074	8b 4d f4	 mov	 ecx, DWORD PTR __$EHRec$[ebp]
  00077	64 89 0d 00 00
	00 00		 mov	 DWORD PTR fs:__except_list, ecx
  0007e	5e		 pop	 esi
  0007f	83 c4 10	 add	 esp, 16			; 00000010H
  00082	3b ec		 cmp	 ebp, esp
  00084	e8 00 00 00 00	 call	 __RTC_CheckEsp
  00089	8b e5		 mov	 esp, ebp
  0008b	5d		 pop	 ebp
  0008c	c3		 ret	 0
_TEXT	ENDS
;	COMDAT text$x
text$x	SEGMENT
$L192490:
  00000	8b 4d f0	 mov	 ecx, DWORD PTR _this$[ebp]
  00003	83 c1 0c	 add	 ecx, 12			; 0000000cH
  00006	8b f4		 mov	 esi, esp
  00008	ff 15 00 00 00
	00		 call	 DWORD PTR __imp_??1?$CStringT@DV?$StrTraitMFC_DLL@DV?$ChTraitsCRT@D@ATL@@@@@ATL@@QAE@XZ
  0000e	3b f4		 cmp	 esi, esp
  00010	e9 00 00 00 00	 jmp	 __RTC_CheckEsp
$L192491:
  00015	8b 4d f0	 mov	 ecx, DWORD PTR _this$[ebp]
  00018	83 c1 10	 add	 ecx, 16			; 00000010H
  0001b	8b f4		 mov	 esi, esp
  0001d	ff 15 00 00 00
	00		 call	 DWORD PTR __imp_??1?$CStringT@DV?$StrTraitMFC_DLL@DV?$ChTraitsCRT@D@ATL@@@@@ATL@@QAE@XZ
  00023	3b f4		 cmp	 esi, esp
  00025	e9 00 00 00 00	 jmp	 __RTC_CheckEsp
__ehhandler$??1CMarkup@@UAE@XZ:
  0002a	b8 00 00 00 00	 mov	 eax, OFFSET FLAT:$T192494
  0002f	e9 00 00 00 00	 jmp	 ___CxxFrameHandler
text$x	ENDS
??1CMarkup@@UAE@XZ ENDP					; CMarkup::~CMarkup
; Function compile flags: /Odt /RTCsu
;	COMDAT ??_GCMarkup@@UAEPAXI@Z
_TEXT	SEGMENT
_this$ = -4						; size = 4
___flags$ = 8						; size = 4
??_GCMarkup@@UAEPAXI@Z PROC NEAR			; CMarkup::`scalar deleting destructor', COMDAT
; _this$ = ecx
  00000	55		 push	 ebp
  00001	8b ec		 mov	 ebp, esp
  00003	51		 push	 ecx
  00004	c7 45 fc cc cc
	cc cc		 mov	 DWORD PTR [ebp-4], -858993460 ; ccccccccH
  0000b	89 4d fc	 mov	 DWORD PTR _this$[ebp], ecx
  0000e	8b 4d fc	 mov	 ecx, DWORD PTR _this$[ebp]
  00011	e8 00 00 00 00	 call	 ??1CMarkup@@UAE@XZ	; CMarkup::~CMarkup
  00016	8b 45 08	 mov	 eax, DWORD PTR ___flags$[ebp]
  00019	83 e0 01	 and	 eax, 1
  0001c	74 0c		 je	 SHORT $L189428
  0001e	8b 4d fc	 mov	 ecx, DWORD PTR _this$[ebp]
  00021	51		 push	 ecx
  00022	e8 00 00 00 00	 call	 ??3@YAXPAX@Z		; operator delete
  00027	83 c4 04	 add	 esp, 4
$L189428:
  0002a	8b 45 fc	 mov	 eax, DWORD PTR _this$[ebp]
  0002d	83 c4 04	 add	 esp, 4
  00030	3b ec		 cmp	 ebp, esp
  00032	e8 00 00 00 00	 call	 __RTC_CheckEsp
  00037	8b e5		 mov	 esp, ebp
  00039	5d		 pop	 ebp
  0003a	c2 04 00	 ret	 4
??_GCMarkup@@UAEPAXI@Z ENDP				; CMarkup::`scalar deleting destructor'
_TEXT	ENDS
PUBLIC	??HATL@@YA?AV?$CStringT@DV?$StrTraitMFC_DLL@DV?$ChTraitsCRT@D@ATL@@@@@0@ABV10@PBD@Z ; ATL::operator+
PUBLIC	?AddElem@CMarkup@@QAE_NPBD0@Z			; CMarkup::AddElem
EXTRN	__imp_?IsEmpty@?$CSimpleStringT@D$00@ATL@@QBE_NXZ:NEAR
;	COMDAT xdata$x
; File d:\boxgit\playbox\playbox\dev\prj\playbox\src\util\markuparchive.h
xdata$x	SEGMENT
$T192507 DD	0ffffffffH
	DD	FLAT:$L192503
$T192505 DD	019930520H
	DD	01H
	DD	FLAT:$T192507
	DD	2 DUP(00H)
	DD	2 DUP(00H)
; Function compile flags: /Odt /RTCsu
xdata$x	ENDS
;	COMDAT ?AddElem@CMarkupArchive@@UAE_NPBD0@Z
_TEXT	SEGMENT
tv88 = -32						; size = 4
tv89 = -28						; size = 4
$T192502 = -24						; size = 4
$T192501 = -17						; size = 1
_this$ = -16						; size = 4
__$EHRec$ = -12						; size = 12
_szName$ = 8						; size = 4
_szData$ = 12						; size = 4
?AddElem@CMarkupArchive@@UAE_NPBD0@Z PROC NEAR		; CMarkupArchive::AddElem, COMDAT
; _this$ = ecx

; 144  : 	{	

  00000	55		 push	 ebp
  00001	8b ec		 mov	 ebp, esp
  00003	6a ff		 push	 -1
  00005	68 00 00 00 00	 push	 __ehhandler$?AddElem@CMarkupArchive@@UAE_NPBD0@Z
  0000a	64 a1 00 00 00
	00		 mov	 eax, DWORD PTR fs:__except_list
  00010	50		 push	 eax
  00011	64 89 25 00 00
	00 00		 mov	 DWORD PTR fs:__except_list, esp
  00018	83 ec 14	 sub	 esp, 20			; 00000014H
  0001b	56		 push	 esi
  0001c	b8 cc cc cc cc	 mov	 eax, -858993460		; ccccccccH
  00021	89 45 e0	 mov	 DWORD PTR [ebp-32], eax
  00024	89 45 e4	 mov	 DWORD PTR [ebp-28], eax
  00027	89 45 e8	 mov	 DWORD PTR [ebp-24], eax
  0002a	89 45 ec	 mov	 DWORD PTR [ebp-20], eax
  0002d	89 45 f0	 mov	 DWORD PTR [ebp-16], eax
  00030	89 4d f0	 mov	 DWORD PTR _this$[ebp], ecx

; 145  : 		if (m_sNameSpace.IsEmpty()) 

  00033	8b 4d f0	 mov	 ecx, DWORD PTR _this$[ebp]
  00036	83 c1 4c	 add	 ecx, 76			; 0000004cH
  00039	8b f4		 mov	 esi, esp
  0003b	ff 15 00 00 00
	00		 call	 DWORD PTR __imp_?IsEmpty@?$CSimpleStringT@D$00@ATL@@QBE_NXZ
  00041	3b f4		 cmp	 esi, esp
  00043	e8 00 00 00 00	 call	 __RTC_CheckEsp
  00048	0f b6 c0	 movzx	 eax, al
  0004b	85 c0		 test	 eax, eax
  0004d	74 12		 je	 SHORT $L189530

; 146  : 			return CMarkup::AddElem( szName, szData); 

  0004f	8b 4d 0c	 mov	 ecx, DWORD PTR _szData$[ebp]
  00052	51		 push	 ecx
  00053	8b 55 08	 mov	 edx, DWORD PTR _szName$[ebp]
  00056	52		 push	 edx
  00057	8b 4d f0	 mov	 ecx, DWORD PTR _this$[ebp]
  0005a	e8 00 00 00 00	 call	 ?AddElem@CMarkup@@QAE_NPBD0@Z ; CMarkup::AddElem
  0005f	eb 65		 jmp	 SHORT $L189529
$L189530:

; 147  : 		else 
; 148  : 			return CMarkup::AddElem( m_sNameSpace+szName, szData);

  00061	8b 45 08	 mov	 eax, DWORD PTR _szName$[ebp]
  00064	50		 push	 eax
  00065	8b 4d f0	 mov	 ecx, DWORD PTR _this$[ebp]
  00068	83 c1 4c	 add	 ecx, 76			; 0000004cH
  0006b	51		 push	 ecx
  0006c	8d 55 e8	 lea	 edx, DWORD PTR $T192502[ebp]
  0006f	52		 push	 edx
  00070	e8 00 00 00 00	 call	 ??HATL@@YA?AV?$CStringT@DV?$StrTraitMFC_DLL@DV?$ChTraitsCRT@D@ATL@@@@@0@ABV10@PBD@Z ; ATL::operator+
  00075	83 c4 0c	 add	 esp, 12			; 0000000cH
  00078	89 45 e4	 mov	 DWORD PTR tv89[ebp], eax
  0007b	8b 45 e4	 mov	 eax, DWORD PTR tv89[ebp]
  0007e	89 45 e0	 mov	 DWORD PTR tv88[ebp], eax
  00081	c7 45 fc 00 00
	00 00		 mov	 DWORD PTR __$EHRec$[ebp+8], 0
  00088	8b 4d 0c	 mov	 ecx, DWORD PTR _szData$[ebp]
  0008b	51		 push	 ecx
  0008c	8b f4		 mov	 esi, esp
  0008e	8b 4d e0	 mov	 ecx, DWORD PTR tv88[ebp]
  00091	ff 15 00 00 00
	00		 call	 DWORD PTR __imp_??B?$CSimpleStringT@D$00@ATL@@QBEPBDXZ
  00097	3b f4		 cmp	 esi, esp
  00099	e8 00 00 00 00	 call	 __RTC_CheckEsp
  0009e	50		 push	 eax
  0009f	8b 4d f0	 mov	 ecx, DWORD PTR _this$[ebp]
  000a2	e8 00 00 00 00	 call	 ?AddElem@CMarkup@@QAE_NPBD0@Z ; CMarkup::AddElem
  000a7	88 45 ef	 mov	 BYTE PTR $T192501[ebp], al
  000aa	c7 45 fc ff ff
	ff ff		 mov	 DWORD PTR __$EHRec$[ebp+8], -1
  000b1	8b f4		 mov	 esi, esp
  000b3	8d 4d e8	 lea	 ecx, DWORD PTR $T192502[ebp]
  000b6	ff 15 00 00 00
	00		 call	 DWORD PTR __imp_??1?$CStringT@DV?$StrTraitMFC_DLL@DV?$ChTraitsCRT@D@ATL@@@@@ATL@@QAE@XZ
  000bc	3b f4		 cmp	 esi, esp
  000be	e8 00 00 00 00	 call	 __RTC_CheckEsp
  000c3	8a 45 ef	 mov	 al, BYTE PTR $T192501[ebp]
$L189529:

; 149  : 	};

  000c6	8b 4d f4	 mov	 ecx, DWORD PTR __$EHRec$[ebp]
  000c9	64 89 0d 00 00
	00 00		 mov	 DWORD PTR fs:__except_list, ecx
  000d0	5e		 pop	 esi
  000d1	83 c4 20	 add	 esp, 32			; 00000020H
  000d4	3b ec		 cmp	 ebp, esp
  000d6	e8 00 00 00 00	 call	 __RTC_CheckEsp
  000db	8b e5		 mov	 esp, ebp
  000dd	5d		 pop	 ebp
  000de	c2 08 00	 ret	 8
_TEXT	ENDS
;	COMDAT text$x
text$x	SEGMENT
$L192503:
  00000	8b f4		 mov	 esi, esp
  00002	8d 4d e8	 lea	 ecx, DWORD PTR $T192502[ebp]
  00005	ff 15 00 00 00
	00		 call	 DWORD PTR __imp_??1?$CStringT@DV?$StrTraitMFC_DLL@DV?$ChTraitsCRT@D@ATL@@@@@ATL@@QAE@XZ
  0000b	3b f4		 cmp	 esi, esp
  0000d	e9 00 00 00 00	 jmp	 __RTC_CheckEsp
__ehhandler$?AddElem@CMarkupArchive@@UAE_NPBD0@Z:
  00012	b8 00 00 00 00	 mov	 eax, OFFSET FLAT:$T192505
  00017	e9 00 00 00 00	 jmp	 ___CxxFrameHandler
text$x	ENDS
?AddElem@CMarkupArchive@@UAE_NPBD0@Z ENDP		; CMarkupArchive::AddElem
EXTRN	?x_AddElem@CMarkup@@IAE_NPBD0_N1@Z:NEAR		; CMarkup::x_AddElem
; Function compile flags: /Odt /RTCsu
; File d:\boxgit\playbox\playbox\dev\prj\playbox\src\util\markup.h
;	COMDAT ?AddElem@CMarkup@@QAE_NPBD0@Z
_TEXT	SEGMENT
_this$ = -4						; size = 4
_szName$ = 8						; size = 4
_szData$ = 12						; size = 4
?AddElem@CMarkup@@QAE_NPBD0@Z PROC NEAR			; CMarkup::AddElem, COMDAT
; _this$ = ecx

; 37   : 	bool AddElem( LPCTSTR szName, LPCTSTR szData=NULL ) { return x_AddElem(szName,szData,false,false); };

  00000	55		 push	 ebp
  00001	8b ec		 mov	 ebp, esp
  00003	51		 push	 ecx
  00004	c7 45 fc cc cc
	cc cc		 mov	 DWORD PTR [ebp-4], -858993460 ; ccccccccH
  0000b	89 4d fc	 mov	 DWORD PTR _this$[ebp], ecx
  0000e	6a 00		 push	 0
  00010	6a 00		 push	 0
  00012	8b 45 0c	 mov	 eax, DWORD PTR _szData$[ebp]
  00015	50		 push	 eax
  00016	8b 4d 08	 mov	 ecx, DWORD PTR _szName$[ebp]
  00019	51		 push	 ecx
  0001a	8b 4d fc	 mov	 ecx, DWORD PTR _this$[ebp]
  0001d	e8 00 00 00 00	 call	 ?x_AddElem@CMarkup@@IAE_NPBD0_N1@Z ; CMarkup::x_AddElem
  00022	83 c4 04	 add	 esp, 4
  00025	3b ec		 cmp	 ebp, esp
  00027	e8 00 00 00 00	 call	 __RTC_CheckEsp
  0002c	8b e5		 mov	 esp, ebp
  0002e	5d		 pop	 ebp
  0002f	c2 08 00	 ret	 8
?AddElem@CMarkup@@QAE_NPBD0@Z ENDP			; CMarkup::AddElem
_TEXT	ENDS
PUBLIC	?AddChildElem@CMarkup@@QAE_NPBD0@Z		; CMarkup::AddChildElem
;	COMDAT xdata$x
; File d:\boxgit\playbox\playbox\dev\prj\playbox\src\util\markuparchive.h
xdata$x	SEGMENT
$T192518 DD	0ffffffffH
	DD	FLAT:$L192514
$T192516 DD	019930520H
	DD	01H
	DD	FLAT:$T192518
	DD	2 DUP(00H)
	DD	2 DUP(00H)
; Function compile flags: /Odt /RTCsu
xdata$x	ENDS
;	COMDAT ?AddChildElem@CMarkupArchive@@UAE_NPBD0@Z
_TEXT	SEGMENT
tv88 = -32						; size = 4
tv89 = -28						; size = 4
$T192513 = -24						; size = 4
$T192512 = -17						; size = 1
_this$ = -16						; size = 4
__$EHRec$ = -12						; size = 12
_szName$ = 8						; size = 4
_szData$ = 12						; size = 4
?AddChildElem@CMarkupArchive@@UAE_NPBD0@Z PROC NEAR	; CMarkupArchive::AddChildElem, COMDAT
; _this$ = ecx

; 152  : 	{	

  00000	55		 push	 ebp
  00001	8b ec		 mov	 ebp, esp
  00003	6a ff		 push	 -1
  00005	68 00 00 00 00	 push	 __ehhandler$?AddChildElem@CMarkupArchive@@UAE_NPBD0@Z
  0000a	64 a1 00 00 00
	00		 mov	 eax, DWORD PTR fs:__except_list
  00010	50		 push	 eax
  00011	64 89 25 00 00
	00 00		 mov	 DWORD PTR fs:__except_list, esp
  00018	83 ec 14	 sub	 esp, 20			; 00000014H
  0001b	56		 push	 esi
  0001c	b8 cc cc cc cc	 mov	 eax, -858993460		; ccccccccH
  00021	89 45 e0	 mov	 DWORD PTR [ebp-32], eax
  00024	89 45 e4	 mov	 DWORD PTR [ebp-28], eax
  00027	89 45 e8	 mov	 DWORD PTR [ebp-24], eax
  0002a	89 45 ec	 mov	 DWORD PTR [ebp-20], eax
  0002d	89 45 f0	 mov	 DWORD PTR [ebp-16], eax
  00030	89 4d f0	 mov	 DWORD PTR _this$[ebp], ecx

; 153  : 		if (m_sNameSpace.IsEmpty()) 

  00033	8b 4d f0	 mov	 ecx, DWORD PTR _this$[ebp]
  00036	83 c1 4c	 add	 ecx, 76			; 0000004cH
  00039	8b f4		 mov	 esi, esp
  0003b	ff 15 00 00 00
	00		 call	 DWORD PTR __imp_?IsEmpty@?$CSimpleStringT@D$00@ATL@@QBE_NXZ
  00041	3b f4		 cmp	 esi, esp
  00043	e8 00 00 00 00	 call	 __RTC_CheckEsp
  00048	0f b6 c0	 movzx	 eax, al
  0004b	85 c0		 test	 eax, eax
  0004d	74 12		 je	 SHORT $L189536

; 154  : 			return CMarkup::AddChildElem( szName, szData); 

  0004f	8b 4d 0c	 mov	 ecx, DWORD PTR _szData$[ebp]
  00052	51		 push	 ecx
  00053	8b 55 08	 mov	 edx, DWORD PTR _szName$[ebp]
  00056	52		 push	 edx
  00057	8b 4d f0	 mov	 ecx, DWORD PTR _this$[ebp]
  0005a	e8 00 00 00 00	 call	 ?AddChildElem@CMarkup@@QAE_NPBD0@Z ; CMarkup::AddChildElem
  0005f	eb 65		 jmp	 SHORT $L189535
$L189536:

; 155  : 		else 
; 156  : 			return CMarkup::AddChildElem( m_sNameSpace+szName, szData);

  00061	8b 45 08	 mov	 eax, DWORD PTR _szName$[ebp]
  00064	50		 push	 eax
  00065	8b 4d f0	 mov	 ecx, DWORD PTR _this$[ebp]
  00068	83 c1 4c	 add	 ecx, 76			; 0000004cH
  0006b	51		 push	 ecx
  0006c	8d 55 e8	 lea	 edx, DWORD PTR $T192513[ebp]
  0006f	52		 push	 edx
  00070	e8 00 00 00 00	 call	 ??HATL@@YA?AV?$CStringT@DV?$StrTraitMFC_DLL@DV?$ChTraitsCRT@D@ATL@@@@@0@ABV10@PBD@Z ; ATL::operator+
  00075	83 c4 0c	 add	 esp, 12			; 0000000cH
  00078	89 45 e4	 mov	 DWORD PTR tv89[ebp], eax
  0007b	8b 45 e4	 mov	 eax, DWORD PTR tv89[ebp]
  0007e	89 45 e0	 mov	 DWORD PTR tv88[ebp], eax
  00081	c7 45 fc 00 00
	00 00		 mov	 DWORD PTR __$EHRec$[ebp+8], 0
  00088	8b 4d 0c	 mov	 ecx, DWORD PTR _szData$[ebp]
  0008b	51		 push	 ecx
  0008c	8b f4		 mov	 esi, esp
  0008e	8b 4d e0	 mov	 ecx, DWORD PTR tv88[ebp]
  00091	ff 15 00 00 00
	00		 call	 DWORD PTR __imp_??B?$CSimpleStringT@D$00@ATL@@QBEPBDXZ
  00097	3b f4		 cmp	 esi, esp
  00099	e8 00 00 00 00	 call	 __RTC_CheckEsp
  0009e	50		 push	 eax
  0009f	8b 4d f0	 mov	 ecx, DWORD PTR _this$[ebp]
  000a2	e8 00 00 00 00	 call	 ?AddChildElem@CMarkup@@QAE_NPBD0@Z ; CMarkup::AddChildElem
  000a7	88 45 ef	 mov	 BYTE PTR $T192512[ebp], al
  000aa	c7 45 fc ff ff
	ff ff		 mov	 DWORD PTR __$EHRec$[ebp+8], -1
  000b1	8b f4		 mov	 esi, esp
  000b3	8d 4d e8	 lea	 ecx, DWORD PTR $T192513[ebp]
  000b6	ff 15 00 00 00
	00		 call	 DWORD PTR __imp_??1?$CStringT@DV?$StrTraitMFC_DLL@DV?$ChTraitsCRT@D@ATL@@@@@ATL@@QAE@XZ
  000bc	3b f4		 cmp	 esi, esp
  000be	e8 00 00 00 00	 call	 __RTC_CheckEsp
  000c3	8a 45 ef	 mov	 al, BYTE PTR $T192512[ebp]
$L189535:

; 157  : 	};

  000c6	8b 4d f4	 mov	 ecx, DWORD PTR __$EHRec$[ebp]
  000c9	64 89 0d 00 00
	00 00		 mov	 DWORD PTR fs:__except_list, ecx
  000d0	5e		 pop	 esi
  000d1	83 c4 20	 add	 esp, 32			; 00000020H
  000d4	3b ec		 cmp	 ebp, esp
  000d6	e8 00 00 00 00	 call	 __RTC_CheckEsp
  000db	8b e5		 mov	 esp, ebp
  000dd	5d		 pop	 ebp
  000de	c2 08 00	 ret	 8
_TEXT	ENDS
;	COMDAT text$x
text$x	SEGMENT
$L192514:
  00000	8b f4		 mov	 esi, esp
  00002	8d 4d e8	 lea	 ecx, DWORD PTR $T192513[ebp]
  00005	ff 15 00 00 00
	00		 call	 DWORD PTR __imp_??1?$CStringT@DV?$StrTraitMFC_DLL@DV?$ChTraitsCRT@D@ATL@@@@@ATL@@QAE@XZ
  0000b	3b f4		 cmp	 esi, esp
  0000d	e9 00 00 00 00	 jmp	 __RTC_CheckEsp
__ehhandler$?AddChildElem@CMarkupArchive@@UAE_NPBD0@Z:
  00012	b8 00 00 00 00	 mov	 eax, OFFSET FLAT:$T192516
  00017	e9 00 00 00 00	 jmp	 ___CxxFrameHandler
text$x	ENDS
?AddChildElem@CMarkupArchive@@UAE_NPBD0@Z ENDP		; CMarkupArchive::AddChildElem
; Function compile flags: /Odt /RTCsu
; File d:\boxgit\playbox\playbox\dev\prj\playbox\src\util\markup.h
;	COMDAT ?AddChildElem@CMarkup@@QAE_NPBD0@Z
_TEXT	SEGMENT
_this$ = -4						; size = 4
_szName$ = 8						; size = 4
_szData$ = 12						; size = 4
?AddChildElem@CMarkup@@QAE_NPBD0@Z PROC NEAR		; CMarkup::AddChildElem, COMDAT
; _this$ = ecx

; 38   : 	bool AddChildElem( LPCTSTR szName, LPCTSTR szData=NULL ) { return x_AddElem(szName,szData,false,true); };

  00000	55		 push	 ebp
  00001	8b ec		 mov	 ebp, esp
  00003	51		 push	 ecx
  00004	c7 45 fc cc cc
	cc cc		 mov	 DWORD PTR [ebp-4], -858993460 ; ccccccccH
  0000b	89 4d fc	 mov	 DWORD PTR _this$[ebp], ecx
  0000e	6a 01		 push	 1
  00010	6a 00		 push	 0
  00012	8b 45 0c	 mov	 eax, DWORD PTR _szData$[ebp]
  00015	50		 push	 eax
  00016	8b 4d 08	 mov	 ecx, DWORD PTR _szName$[ebp]
  00019	51		 push	 ecx
  0001a	8b 4d fc	 mov	 ecx, DWORD PTR _this$[ebp]
  0001d	e8 00 00 00 00	 call	 ?x_AddElem@CMarkup@@IAE_NPBD0_N1@Z ; CMarkup::x_AddElem
  00022	83 c4 04	 add	 esp, 4
  00025	3b ec		 cmp	 ebp, esp
  00027	e8 00 00 00 00	 call	 __RTC_CheckEsp
  0002c	8b e5		 mov	 esp, ebp
  0002e	5d		 pop	 ebp
  0002f	c2 08 00	 ret	 8
?AddChildElem@CMarkup@@QAE_NPBD0@Z ENDP			; CMarkup::AddChildElem
_TEXT	ENDS
EXTRN	?FindElem@CMarkup@@QAE_NPBD@Z:NEAR		; CMarkup::FindElem
;	COMDAT xdata$x
; File d:\boxgit\playbox\playbox\dev\prj\playbox\src\util\markuparchive.h
xdata$x	SEGMENT
$T192529 DD	0ffffffffH
	DD	FLAT:$L192525
$T192527 DD	019930520H
	DD	01H
	DD	FLAT:$T192529
	DD	2 DUP(00H)
	DD	2 DUP(00H)
; Function compile flags: /Odt /RTCsu
xdata$x	ENDS
;	COMDAT ?FindElem@CMarkupArchive@@UAE_NPBD@Z
_TEXT	SEGMENT
tv90 = -32						; size = 4
tv91 = -28						; size = 4
$T192524 = -24						; size = 4
$T192523 = -17						; size = 1
_this$ = -16						; size = 4
__$EHRec$ = -12						; size = 12
_szName$ = 8						; size = 4
?FindElem@CMarkupArchive@@UAE_NPBD@Z PROC NEAR		; CMarkupArchive::FindElem, COMDAT
; _this$ = ecx

; 160  : 	{	

  00000	55		 push	 ebp
  00001	8b ec		 mov	 ebp, esp
  00003	6a ff		 push	 -1
  00005	68 00 00 00 00	 push	 __ehhandler$?FindElem@CMarkupArchive@@UAE_NPBD@Z
  0000a	64 a1 00 00 00
	00		 mov	 eax, DWORD PTR fs:__except_list
  00010	50		 push	 eax
  00011	64 89 25 00 00
	00 00		 mov	 DWORD PTR fs:__except_list, esp
  00018	83 ec 14	 sub	 esp, 20			; 00000014H
  0001b	56		 push	 esi
  0001c	b8 cc cc cc cc	 mov	 eax, -858993460		; ccccccccH
  00021	89 45 e0	 mov	 DWORD PTR [ebp-32], eax
  00024	89 45 e4	 mov	 DWORD PTR [ebp-28], eax
  00027	89 45 e8	 mov	 DWORD PTR [ebp-24], eax
  0002a	89 45 ec	 mov	 DWORD PTR [ebp-20], eax
  0002d	89 45 f0	 mov	 DWORD PTR [ebp-16], eax
  00030	89 4d f0	 mov	 DWORD PTR _this$[ebp], ecx

; 161  : 		if (szName==NULL) 

  00033	83 7d 08 00	 cmp	 DWORD PTR _szName$[ebp], 0
  00037	75 0f		 jne	 SHORT $L189542

; 162  : 			return CMarkup::FindElem( NULL); 

  00039	6a 00		 push	 0
  0003b	8b 4d f0	 mov	 ecx, DWORD PTR _this$[ebp]
  0003e	e8 00 00 00 00	 call	 ?FindElem@CMarkup@@QAE_NPBD@Z ; CMarkup::FindElem
  00043	e9 8b 00 00 00	 jmp	 $L189541
$L189542:

; 163  : 		else 
; 164  : 			if (m_sNameSpace.IsEmpty())

  00048	8b 4d f0	 mov	 ecx, DWORD PTR _this$[ebp]
  0004b	83 c1 4c	 add	 ecx, 76			; 0000004cH
  0004e	8b f4		 mov	 esi, esp
  00050	ff 15 00 00 00
	00		 call	 DWORD PTR __imp_?IsEmpty@?$CSimpleStringT@D$00@ATL@@QBE_NXZ
  00056	3b f4		 cmp	 esi, esp
  00058	e8 00 00 00 00	 call	 __RTC_CheckEsp
  0005d	0f b6 c0	 movzx	 eax, al
  00060	85 c0		 test	 eax, eax
  00062	74 0e		 je	 SHORT $L189544

; 165  : 				return CMarkup::FindElem(szName);

  00064	8b 4d 08	 mov	 ecx, DWORD PTR _szName$[ebp]
  00067	51		 push	 ecx
  00068	8b 4d f0	 mov	 ecx, DWORD PTR _this$[ebp]
  0006b	e8 00 00 00 00	 call	 ?FindElem@CMarkup@@QAE_NPBD@Z ; CMarkup::FindElem
  00070	eb 61		 jmp	 SHORT $L189541
$L189544:

; 166  : 			else
; 167  : 				return CMarkup::FindElem( m_sNameSpace+szName);

  00072	8b 55 08	 mov	 edx, DWORD PTR _szName$[ebp]
  00075	52		 push	 edx
  00076	8b 45 f0	 mov	 eax, DWORD PTR _this$[ebp]
  00079	83 c0 4c	 add	 eax, 76			; 0000004cH
  0007c	50		 push	 eax
  0007d	8d 4d e8	 lea	 ecx, DWORD PTR $T192524[ebp]
  00080	51		 push	 ecx
  00081	e8 00 00 00 00	 call	 ??HATL@@YA?AV?$CStringT@DV?$StrTraitMFC_DLL@DV?$ChTraitsCRT@D@ATL@@@@@0@ABV10@PBD@Z ; ATL::operator+
  00086	83 c4 0c	 add	 esp, 12			; 0000000cH
  00089	89 45 e4	 mov	 DWORD PTR tv91[ebp], eax
  0008c	8b 55 e4	 mov	 edx, DWORD PTR tv91[ebp]
  0008f	89 55 e0	 mov	 DWORD PTR tv90[ebp], edx
  00092	c7 45 fc 00 00
	00 00		 mov	 DWORD PTR __$EHRec$[ebp+8], 0
  00099	8b f4		 mov	 esi, esp
  0009b	8b 4d e0	 mov	 ecx, DWORD PTR tv90[ebp]
  0009e	ff 15 00 00 00
	00		 call	 DWORD PTR __imp_??B?$CSimpleStringT@D$00@ATL@@QBEPBDXZ
  000a4	3b f4		 cmp	 esi, esp
  000a6	e8 00 00 00 00	 call	 __RTC_CheckEsp
  000ab	50		 push	 eax
  000ac	8b 4d f0	 mov	 ecx, DWORD PTR _this$[ebp]
  000af	e8 00 00 00 00	 call	 ?FindElem@CMarkup@@QAE_NPBD@Z ; CMarkup::FindElem
  000b4	88 45 ef	 mov	 BYTE PTR $T192523[ebp], al
  000b7	c7 45 fc ff ff
	ff ff		 mov	 DWORD PTR __$EHRec$[ebp+8], -1
  000be	8b f4		 mov	 esi, esp
  000c0	8d 4d e8	 lea	 ecx, DWORD PTR $T192524[ebp]
  000c3	ff 15 00 00 00
	00		 call	 DWORD PTR __imp_??1?$CStringT@DV?$StrTraitMFC_DLL@DV?$ChTraitsCRT@D@ATL@@@@@ATL@@QAE@XZ
  000c9	3b f4		 cmp	 esi, esp
  000cb	e8 00 00 00 00	 call	 __RTC_CheckEsp
  000d0	8a 45 ef	 mov	 al, BYTE PTR $T192523[ebp]
$L189541:

; 168  : 	};

  000d3	8b 4d f4	 mov	 ecx, DWORD PTR __$EHRec$[ebp]
  000d6	64 89 0d 00 00
	00 00		 mov	 DWORD PTR fs:__except_list, ecx
  000dd	5e		 pop	 esi
  000de	83 c4 20	 add	 esp, 32			; 00000020H
  000e1	3b ec		 cmp	 ebp, esp
  000e3	e8 00 00 00 00	 call	 __RTC_CheckEsp
  000e8	8b e5		 mov	 esp, ebp
  000ea	5d		 pop	 ebp
  000eb	c2 04 00	 ret	 4
_TEXT	ENDS
;	COMDAT text$x
text$x	SEGMENT
$L192525:
  00000	8b f4		 mov	 esi, esp
  00002	8d 4d e8	 lea	 ecx, DWORD PTR $T192524[ebp]
  00005	ff 15 00 00 00
	00		 call	 DWORD PTR __imp_??1?$CStringT@DV?$StrTraitMFC_DLL@DV?$ChTraitsCRT@D@ATL@@@@@ATL@@QAE@XZ
  0000b	3b f4		 cmp	 esi, esp
  0000d	e9 00 00 00 00	 jmp	 __RTC_CheckEsp
__ehhandler$?FindElem@CMarkupArchive@@UAE_NPBD@Z:
  00012	b8 00 00 00 00	 mov	 eax, OFFSET FLAT:$T192527
  00017	e9 00 00 00 00	 jmp	 ___CxxFrameHandler
text$x	ENDS
?FindElem@CMarkupArchive@@UAE_NPBD@Z ENDP		; CMarkupArchive::FindElem
EXTRN	?FindChildElem@CMarkup@@QAE_NPBD@Z:NEAR		; CMarkup::FindChildElem
;	COMDAT xdata$x
xdata$x	SEGMENT
$T192539 DD	0ffffffffH
	DD	FLAT:$L192535
$T192537 DD	019930520H
	DD	01H
	DD	FLAT:$T192539
	DD	2 DUP(00H)
	DD	2 DUP(00H)
; Function compile flags: /Odt /RTCsu
xdata$x	ENDS
;	COMDAT ?FindChildElem@CMarkupArchive@@UAE_NPBD@Z
_TEXT	SEGMENT
tv90 = -32						; size = 4
tv91 = -28						; size = 4
$T192534 = -24						; size = 4
$T192533 = -17						; size = 1
_this$ = -16						; size = 4
__$EHRec$ = -12						; size = 12
_szName$ = 8						; size = 4
?FindChildElem@CMarkupArchive@@UAE_NPBD@Z PROC NEAR	; CMarkupArchive::FindChildElem, COMDAT
; _this$ = ecx

; 171  : 	{	

  00000	55		 push	 ebp
  00001	8b ec		 mov	 ebp, esp
  00003	6a ff		 push	 -1
  00005	68 00 00 00 00	 push	 __ehhandler$?FindChildElem@CMarkupArchive@@UAE_NPBD@Z
  0000a	64 a1 00 00 00
	00		 mov	 eax, DWORD PTR fs:__except_list
  00010	50		 push	 eax
  00011	64 89 25 00 00
	00 00		 mov	 DWORD PTR fs:__except_list, esp
  00018	83 ec 14	 sub	 esp, 20			; 00000014H
  0001b	56		 push	 esi
  0001c	b8 cc cc cc cc	 mov	 eax, -858993460		; ccccccccH
  00021	89 45 e0	 mov	 DWORD PTR [ebp-32], eax
  00024	89 45 e4	 mov	 DWORD PTR [ebp-28], eax
  00027	89 45 e8	 mov	 DWORD PTR [ebp-24], eax
  0002a	89 45 ec	 mov	 DWORD PTR [ebp-20], eax
  0002d	89 45 f0	 mov	 DWORD PTR [ebp-16], eax
  00030	89 4d f0	 mov	 DWORD PTR _this$[ebp], ecx

; 172  : 		if (szName==NULL) 

  00033	83 7d 08 00	 cmp	 DWORD PTR _szName$[ebp], 0
  00037	75 0f		 jne	 SHORT $L189550

; 173  : 			return CMarkup::FindElem( NULL); 

  00039	6a 00		 push	 0
  0003b	8b 4d f0	 mov	 ecx, DWORD PTR _this$[ebp]
  0003e	e8 00 00 00 00	 call	 ?FindElem@CMarkup@@QAE_NPBD@Z ; CMarkup::FindElem
  00043	e9 8b 00 00 00	 jmp	 $L189549
$L189550:

; 174  : 		else 
; 175  : 			if (m_sNameSpace.IsEmpty())

  00048	8b 4d f0	 mov	 ecx, DWORD PTR _this$[ebp]
  0004b	83 c1 4c	 add	 ecx, 76			; 0000004cH
  0004e	8b f4		 mov	 esi, esp
  00050	ff 15 00 00 00
	00		 call	 DWORD PTR __imp_?IsEmpty@?$CSimpleStringT@D$00@ATL@@QBE_NXZ
  00056	3b f4		 cmp	 esi, esp
  00058	e8 00 00 00 00	 call	 __RTC_CheckEsp
  0005d	0f b6 c0	 movzx	 eax, al
  00060	85 c0		 test	 eax, eax
  00062	74 0e		 je	 SHORT $L189552

; 176  : 				return CMarkup::FindChildElem(szName);

  00064	8b 4d 08	 mov	 ecx, DWORD PTR _szName$[ebp]
  00067	51		 push	 ecx
  00068	8b 4d f0	 mov	 ecx, DWORD PTR _this$[ebp]
  0006b	e8 00 00 00 00	 call	 ?FindChildElem@CMarkup@@QAE_NPBD@Z ; CMarkup::FindChildElem
  00070	eb 61		 jmp	 SHORT $L189549
$L189552:

; 177  : 			else
; 178  : 				return CMarkup::FindChildElem( m_sNameSpace+szName);

  00072	8b 55 08	 mov	 edx, DWORD PTR _szName$[ebp]
  00075	52		 push	 edx
  00076	8b 45 f0	 mov	 eax, DWORD PTR _this$[ebp]
  00079	83 c0 4c	 add	 eax, 76			; 0000004cH
  0007c	50		 push	 eax
  0007d	8d 4d e8	 lea	 ecx, DWORD PTR $T192534[ebp]
  00080	51		 push	 ecx
  00081	e8 00 00 00 00	 call	 ??HATL@@YA?AV?$CStringT@DV?$StrTraitMFC_DLL@DV?$ChTraitsCRT@D@ATL@@@@@0@ABV10@PBD@Z ; ATL::operator+
  00086	83 c4 0c	 add	 esp, 12			; 0000000cH
  00089	89 45 e4	 mov	 DWORD PTR tv91[ebp], eax
  0008c	8b 55 e4	 mov	 edx, DWORD PTR tv91[ebp]
  0008f	89 55 e0	 mov	 DWORD PTR tv90[ebp], edx
  00092	c7 45 fc 00 00
	00 00		 mov	 DWORD PTR __$EHRec$[ebp+8], 0
  00099	8b f4		 mov	 esi, esp
  0009b	8b 4d e0	 mov	 ecx, DWORD PTR tv90[ebp]
  0009e	ff 15 00 00 00
	00		 call	 DWORD PTR __imp_??B?$CSimpleStringT@D$00@ATL@@QBEPBDXZ
  000a4	3b f4		 cmp	 esi, esp
  000a6	e8 00 00 00 00	 call	 __RTC_CheckEsp
  000ab	50		 push	 eax
  000ac	8b 4d f0	 mov	 ecx, DWORD PTR _this$[ebp]
  000af	e8 00 00 00 00	 call	 ?FindChildElem@CMarkup@@QAE_NPBD@Z ; CMarkup::FindChildElem
  000b4	88 45 ef	 mov	 BYTE PTR $T192533[ebp], al
  000b7	c7 45 fc ff ff
	ff ff		 mov	 DWORD PTR __$EHRec$[ebp+8], -1
  000be	8b f4		 mov	 esi, esp
  000c0	8d 4d e8	 lea	 ecx, DWORD PTR $T192534[ebp]
  000c3	ff 15 00 00 00
	00		 call	 DWORD PTR __imp_??1?$CStringT@DV?$StrTraitMFC_DLL@DV?$ChTraitsCRT@D@ATL@@@@@ATL@@QAE@XZ
  000c9	3b f4		 cmp	 esi, esp
  000cb	e8 00 00 00 00	 call	 __RTC_CheckEsp
  000d0	8a 45 ef	 mov	 al, BYTE PTR $T192533[ebp]
$L189549:

; 179  : 	};

  000d3	8b 4d f4	 mov	 ecx, DWORD PTR __$EHRec$[ebp]
  000d6	64 89 0d 00 00
	00 00		 mov	 DWORD PTR fs:__except_list, ecx
  000dd	5e		 pop	 esi
  000de	83 c4 20	 add	 esp, 32			; 00000020H
  000e1	3b ec		 cmp	 ebp, esp
  000e3	e8 00 00 00 00	 call	 __RTC_CheckEsp
  000e8	8b e5		 mov	 esp, ebp
  000ea	5d		 pop	 ebp
  000eb	c2 04 00	 ret	 4
_TEXT	ENDS
;	COMDAT text$x
text$x	SEGMENT
$L192535:
  00000	8b f4		 mov	 esi, esp
  00002	8d 4d e8	 lea	 ecx, DWORD PTR $T192534[ebp]
  00005	ff 15 00 00 00
	00		 call	 DWORD PTR __imp_??1?$CStringT@DV?$StrTraitMFC_DLL@DV?$ChTraitsCRT@D@ATL@@@@@ATL@@QAE@XZ
  0000b	3b f4		 cmp	 esi, esp
  0000d	e9 00 00 00 00	 jmp	 __RTC_CheckEsp
__ehhandler$?FindChildElem@CMarkupArchive@@UAE_NPBD@Z:
  00012	b8 00 00 00 00	 mov	 eax, OFFSET FLAT:$T192537
  00017	e9 00 00 00 00	 jmp	 ___CxxFrameHandler
text$x	ENDS
?FindChildElem@CMarkupArchive@@UAE_NPBD@Z ENDP		; CMarkupArchive::FindChildElem
; Function compile flags: /Odt /RTCsu
;	COMDAT ??_GCMarkupArchive@@UAEPAXI@Z
_TEXT	SEGMENT
_this$ = -4						; size = 4
___flags$ = 8						; size = 4
??_GCMarkupArchive@@UAEPAXI@Z PROC NEAR			; CMarkupArchive::`scalar deleting destructor', COMDAT
; _this$ = ecx
  00000	55		 push	 ebp
  00001	8b ec		 mov	 ebp, esp
  00003	51		 push	 ecx
  00004	c7 45 fc cc cc
	cc cc		 mov	 DWORD PTR [ebp-4], -858993460 ; ccccccccH
  0000b	89 4d fc	 mov	 DWORD PTR _this$[ebp], ecx
  0000e	8b 4d fc	 mov	 ecx, DWORD PTR _this$[ebp]
  00011	e8 00 00 00 00	 call	 ??1CMarkupArchive@@UAE@XZ ; CMarkupArchive::~CMarkupArchive
  00016	8b 45 08	 mov	 eax, DWORD PTR ___flags$[ebp]
  00019	83 e0 01	 and	 eax, 1
  0001c	74 0c		 je	 SHORT $L189562
  0001e	8b 4d fc	 mov	 ecx, DWORD PTR _this$[ebp]
  00021	51		 push	 ecx
  00022	e8 00 00 00 00	 call	 ??3@YAXPAX@Z		; operator delete
  00027	83 c4 04	 add	 esp, 4
$L189562:
  0002a	8b 45 fc	 mov	 eax, DWORD PTR _this$[ebp]
  0002d	83 c4 04	 add	 esp, 4
  00030	3b ec		 cmp	 ebp, esp
  00032	e8 00 00 00 00	 call	 __RTC_CheckEsp
  00037	8b e5		 mov	 esp, ebp
  00039	5d		 pop	 ebp
  0003a	c2 04 00	 ret	 4
??_GCMarkupArchive@@UAEPAXI@Z ENDP			; CMarkupArchive::`scalar deleting destructor'
_TEXT	ENDS
;	COMDAT xdata$x
xdata$x	SEGMENT
$T192552 DD	0ffffffffH
	DD	FLAT:$L192544
	DD	00H
	DD	FLAT:$L192545
	DD	01H
	DD	FLAT:$L192546
	DD	02H
	DD	FLAT:$L192547
$T192550 DD	019930520H
	DD	04H
	DD	FLAT:$T192552
	DD	2 DUP(00H)
	DD	2 DUP(00H)
; Function compile flags: /Odt /RTCsu
xdata$x	ENDS
;	COMDAT ??1OneLocalGame@@QAE@XZ
_TEXT	SEGMENT
_this$ = -16						; size = 4
__$EHRec$ = -12						; size = 12
??1OneLocalGame@@QAE@XZ PROC NEAR			; OneLocalGame::~OneLocalGame, COMDAT
; _this$ = ecx
  00000	55		 push	 ebp
  00001	8b ec		 mov	 ebp, esp
  00003	6a ff		 push	 -1
  00005	68 00 00 00 00	 push	 __ehhandler$??1OneLocalGame@@QAE@XZ
  0000a	64 a1 00 00 00
	00		 mov	 eax, DWORD PTR fs:__except_list
  00010	50		 push	 eax
  00011	64 89 25 00 00
	00 00		 mov	 DWORD PTR fs:__except_list, esp
  00018	51		 push	 ecx
  00019	56		 push	 esi
  0001a	c7 45 f0 cc cc
	cc cc		 mov	 DWORD PTR [ebp-16], -858993460 ; ccccccccH
  00021	89 4d f0	 mov	 DWORD PTR _this$[ebp], ecx
  00024	c7 45 fc 03 00
	00 00		 mov	 DWORD PTR __$EHRec$[ebp+8], 3
  0002b	8b 4d f0	 mov	 ecx, DWORD PTR _this$[ebp]
  0002e	83 c1 70	 add	 ecx, 112		; 00000070H
  00031	8b f4		 mov	 esi, esp
  00033	ff 15 00 00 00
	00		 call	 DWORD PTR __imp_??1?$basic_string@DU?$char_traits@D@std@@V?$allocator@D@2@@std@@QAE@XZ
  00039	3b f4		 cmp	 esi, esp
  0003b	e8 00 00 00 00	 call	 __RTC_CheckEsp
  00040	c6 45 fc 02	 mov	 BYTE PTR __$EHRec$[ebp+8], 2
  00044	8b 4d f0	 mov	 ecx, DWORD PTR _this$[ebp]
  00047	83 c1 54	 add	 ecx, 84			; 00000054H
  0004a	8b f4		 mov	 esi, esp
  0004c	ff 15 00 00 00
	00		 call	 DWORD PTR __imp_??1?$basic_string@DU?$char_traits@D@std@@V?$allocator@D@2@@std@@QAE@XZ
  00052	3b f4		 cmp	 esi, esp
  00054	e8 00 00 00 00	 call	 __RTC_CheckEsp
  00059	c6 45 fc 01	 mov	 BYTE PTR __$EHRec$[ebp+8], 1
  0005d	8b 4d f0	 mov	 ecx, DWORD PTR _this$[ebp]
  00060	83 c1 38	 add	 ecx, 56			; 00000038H
  00063	8b f4		 mov	 esi, esp
  00065	ff 15 00 00 00
	00		 call	 DWORD PTR __imp_??1?$basic_string@DU?$char_traits@D@std@@V?$allocator@D@2@@std@@QAE@XZ
  0006b	3b f4		 cmp	 esi, esp
  0006d	e8 00 00 00 00	 call	 __RTC_CheckEsp
  00072	c6 45 fc 00	 mov	 BYTE PTR __$EHRec$[ebp+8], 0
  00076	8b 4d f0	 mov	 ecx, DWORD PTR _this$[ebp]
  00079	83 c1 1c	 add	 ecx, 28			; 0000001cH
  0007c	8b f4		 mov	 esi, esp
  0007e	ff 15 00 00 00
	00		 call	 DWORD PTR __imp_??1?$basic_string@DU?$char_traits@D@std@@V?$allocator@D@2@@std@@QAE@XZ
  00084	3b f4		 cmp	 esi, esp
  00086	e8 00 00 00 00	 call	 __RTC_CheckEsp
  0008b	c7 45 fc ff ff
	ff ff		 mov	 DWORD PTR __$EHRec$[ebp+8], -1
  00092	8b f4		 mov	 esi, esp
  00094	8b 4d f0	 mov	 ecx, DWORD PTR _this$[ebp]
  00097	ff 15 00 00 00
	00		 call	 DWORD PTR __imp_??1?$basic_string@DU?$char_traits@D@std@@V?$allocator@D@2@@std@@QAE@XZ
  0009d	3b f4		 cmp	 esi, esp
  0009f	e8 00 00 00 00	 call	 __RTC_CheckEsp
  000a4	8b 4d f4	 mov	 ecx, DWORD PTR __$EHRec$[ebp]
  000a7	64 89 0d 00 00
	00 00		 mov	 DWORD PTR fs:__except_list, ecx
  000ae	5e		 pop	 esi
  000af	83 c4 10	 add	 esp, 16			; 00000010H
  000b2	3b ec		 cmp	 ebp, esp
  000b4	e8 00 00 00 00	 call	 __RTC_CheckEsp
  000b9	8b e5		 mov	 esp, ebp
  000bb	5d		 pop	 ebp
  000bc	c3		 ret	 0
_TEXT	ENDS
;	COMDAT text$x
text$x	SEGMENT
$L192544:
  00000	8b f4		 mov	 esi, esp
  00002	8b 4d f0	 mov	 ecx, DWORD PTR _this$[ebp]
  00005	ff 15 00 00 00
	00		 call	 DWORD PTR __imp_??1?$basic_string@DU?$char_traits@D@std@@V?$allocator@D@2@@std@@QAE@XZ
  0000b	3b f4		 cmp	 esi, esp
  0000d	e9 00 00 00 00	 jmp	 __RTC_CheckEsp
$L192545:
  00012	8b 4d f0	 mov	 ecx, DWORD PTR _this$[ebp]
  00015	83 c1 1c	 add	 ecx, 28			; 0000001cH
  00018	8b f4		 mov	 esi, esp
  0001a	ff 15 00 00 00
	00		 call	 DWORD PTR __imp_??1?$basic_string@DU?$char_traits@D@std@@V?$allocator@D@2@@std@@QAE@XZ
  00020	3b f4		 cmp	 esi, esp
  00022	e9 00 00 00 00	 jmp	 __RTC_CheckEsp
$L192546:
  00027	8b 4d f0	 mov	 ecx, DWORD PTR _this$[ebp]
  0002a	83 c1 38	 add	 ecx, 56			; 00000038H
  0002d	8b f4		 mov	 esi, esp
  0002f	ff 15 00 00 00
	00		 call	 DWORD PTR __imp_??1?$basic_string@DU?$char_traits@D@std@@V?$allocator@D@2@@std@@QAE@XZ
  00035	3b f4		 cmp	 esi, esp
  00037	e9 00 00 00 00	 jmp	 __RTC_CheckEsp
$L192547:
  0003c	8b 4d f0	 mov	 ecx, DWORD PTR _this$[ebp]
  0003f	83 c1 54	 add	 ecx, 84			; 00000054H
  00042	8b f4		 mov	 esi, esp
  00044	ff 15 00 00 00
	00		 call	 DWORD PTR __imp_??1?$basic_string@DU?$char_traits@D@std@@V?$allocator@D@2@@std@@QAE@XZ
  0004a	3b f4		 cmp	 esi, esp
  0004c	e9 00 00 00 00	 jmp	 __RTC_CheckEsp
__ehhandler$??1OneLocalGame@@QAE@XZ:
  00051	b8 00 00 00 00	 mov	 eax, OFFSET FLAT:$T192550
  00056	e9 00 00 00 00	 jmp	 ___CxxFrameHandler
text$x	ENDS
??1OneLocalGame@@QAE@XZ ENDP				; OneLocalGame::~OneLocalGame
PUBLIC	??$?HDU?$char_traits@D@std@@V?$allocator@D@1@@std@@YA?AV?$basic_string@DU?$char_traits@D@std@@V?$allocator@D@2@@0@ABV10@PBD@Z ; std::operator+<char,std::char_traits<char>,std::allocator<char> >
PUBLIC	??9const_iterator@?$vector@UOneLocalGame@@V?$allocator@UOneLocalGame@@@std@@@std@@QBE_NABV012@@Z ; std::vector<OneLocalGame,std::allocator<OneLocalGame> >::const_iterator::operator!=
PUBLIC	??Citerator@?$vector@UOneLocalGame@@V?$allocator@UOneLocalGame@@@std@@@std@@QBEPAUOneLocalGame@@XZ ; std::vector<OneLocalGame,std::allocator<OneLocalGame> >::iterator::operator->
PUBLIC	??Eiterator@?$vector@UOneLocalGame@@V?$allocator@UOneLocalGame@@@std@@@std@@QAE?AV012@H@Z ; std::vector<OneLocalGame,std::allocator<OneLocalGame> >::iterator::operator++
PUBLIC	?SetAttrib@CMarkup@@QAE_NPBD0@Z			; CMarkup::SetAttrib
PUBLIC	?begin@?$vector@UOneLocalGame@@V?$allocator@UOneLocalGame@@@std@@@std@@QAE?AViterator@12@XZ ; std::vector<OneLocalGame,std::allocator<OneLocalGame> >::begin
PUBLIC	?end@?$vector@UOneLocalGame@@V?$allocator@UOneLocalGame@@@std@@@std@@QAE?AViterator@12@XZ ; std::vector<OneLocalGame,std::allocator<OneLocalGame> >::end
EXTRN	?Save@CMarkupArchive@@QAE_NXZ:NEAR		; CMarkupArchive::Save
EXTRN	?MakeDir@YL_DirInfo@@SA_NABV?$basic_string@DU?$char_traits@D@std@@V?$allocator@D@2@@std@@@Z:NEAR ; YL_DirInfo::MakeDir
EXTRN	__imp__CopyFileA@12:NEAR
EXTRN	?GetFileDirPath@YL_FileInfo@@SA_NABV?$basic_string@DU?$char_traits@D@std@@V?$allocator@D@2@@std@@AAV23@@Z:NEAR ; YL_FileInfo::GetFileDirPath
EXTRN	?SetFileContent@YL_FileInfo@@SA_NABV?$basic_string@DU?$char_traits@D@std@@V?$allocator@D@2@@std@@0@Z:NEAR ; YL_FileInfo::SetFileContent
EXTRN	?OutOfElem@CMarkup@@QAE_NXZ:NEAR		; CMarkup::OutOfElem
xdata$x	SEGMENT
$T192574 DD	0ffffffffH
	DD	FLAT:$L192559
	DD	00H
	DD	FLAT:$L192560
	DD	01H
	DD	FLAT:$L192561
	DD	02H
	DD	FLAT:$L192562
$T192564 DD	019930520H
	DD	04H
	DD	FLAT:$T192574
	DD	2 DUP(00H)
	DD	2 DUP(00H)
; Function compile flags: /Odt /RTCsu
; File d:\boxgit\playbox\playbox\dev\prj\playbox\src\module\httpdown\localgamedata.cpp
xdata$x	ENDS
_TEXT	SEGMENT
$T192558 = -240						; size = 4
$T192557 = -236						; size = 4
_it1$189900 = -228					; size = 4
_xml$ = -216						; size = 84
_strFileDir$ = -124					; size = 28
_strContent$ = -88					; size = 28
_strTmp$ = -52						; size = 28
_this$ = -20						; size = 4
__$ArrayPad$ = -16					; size = 4
__$EHRec$ = -12						; size = 12
__$ReturnAddr$ = 4					; size = 4
?UnLoadGameData@LocalGameData@@AAEXXZ PROC NEAR		; LocalGameData::UnLoadGameData
; _this$ = ecx

; 141  : {

  00950	55		 push	 ebp
  00951	8b ec		 mov	 ebp, esp
  00953	6a ff		 push	 -1
  00955	68 00 00 00 00	 push	 __ehhandler$?UnLoadGameData@LocalGameData@@AAEXXZ
  0095a	64 a1 00 00 00
	00		 mov	 eax, DWORD PTR fs:__except_list
  00960	50		 push	 eax
  00961	64 89 25 00 00
	00 00		 mov	 DWORD PTR fs:__except_list, esp
  00968	81 ec e4 00 00
	00		 sub	 esp, 228		; 000000e4H
  0096e	56		 push	 esi
  0096f	57		 push	 edi
  00970	51		 push	 ecx
  00971	8d bd 10 ff ff
	ff		 lea	 edi, DWORD PTR [ebp-240]
  00977	b9 39 00 00 00	 mov	 ecx, 57			; 00000039H
  0097c	b8 cc cc cc cc	 mov	 eax, -858993460		; ccccccccH
  00981	f3 ab		 rep stosd
  00983	59		 pop	 ecx
  00984	a1 00 00 00 00	 mov	 eax, DWORD PTR ___security_cookie
  00989	89 45 f0	 mov	 DWORD PTR __$ArrayPad$[ebp], eax
  0098c	89 4d ec	 mov	 DWORD PTR _this$[ebp], ecx

; 142  : 	string strTmp = m_strDataFilePath + ".1";

  0098f	68 00 00 00 00	 push	 OFFSET FLAT:$SG189778
  00994	8b 45 ec	 mov	 eax, DWORD PTR _this$[ebp]
  00997	83 c0 14	 add	 eax, 20			; 00000014H
  0099a	50		 push	 eax
  0099b	8d 4d cc	 lea	 ecx, DWORD PTR _strTmp$[ebp]
  0099e	51		 push	 ecx
  0099f	e8 00 00 00 00	 call	 ??$?HDU?$char_traits@D@std@@V?$allocator@D@1@@std@@YA?AV?$basic_string@DU?$char_traits@D@std@@V?$allocator@D@2@@0@ABV10@PBD@Z ; std::operator+<char,std::char_traits<char>,std::allocator<char> >
  009a4	83 c4 0c	 add	 esp, 12			; 0000000cH
  009a7	c7 45 fc 00 00
	00 00		 mov	 DWORD PTR __$EHRec$[ebp+8], 0

; 143  : 	string strContent = "<?xml version=\"1.0\" encoding=\"GBK\"?><root/>";

  009ae	8b f4		 mov	 esi, esp
  009b0	68 00 00 00 00	 push	 OFFSET FLAT:$SG189780
  009b5	8d 4d a8	 lea	 ecx, DWORD PTR _strContent$[ebp]
  009b8	ff 15 00 00 00
	00		 call	 DWORD PTR __imp_??0?$basic_string@DU?$char_traits@D@std@@V?$allocator@D@2@@std@@QAE@PBD@Z
  009be	3b f4		 cmp	 esi, esp
  009c0	e8 00 00 00 00	 call	 __RTC_CheckEsp
  009c5	c6 45 fc 01	 mov	 BYTE PTR __$EHRec$[ebp+8], 1

; 144  : 
; 145  : 	string strFileDir;

  009c9	8b f4		 mov	 esi, esp
  009cb	8d 4d 84	 lea	 ecx, DWORD PTR _strFileDir$[ebp]
  009ce	ff 15 00 00 00
	00		 call	 DWORD PTR __imp_??0?$basic_string@DU?$char_traits@D@std@@V?$allocator@D@2@@std@@QAE@XZ
  009d4	3b f4		 cmp	 esi, esp
  009d6	e8 00 00 00 00	 call	 __RTC_CheckEsp
  009db	c6 45 fc 02	 mov	 BYTE PTR __$EHRec$[ebp+8], 2

; 146  : 	YL_FileInfo::GetFileDirPath( strTmp, strFileDir );

  009df	8d 55 84	 lea	 edx, DWORD PTR _strFileDir$[ebp]
  009e2	52		 push	 edx
  009e3	8d 45 cc	 lea	 eax, DWORD PTR _strTmp$[ebp]
  009e6	50		 push	 eax
  009e7	e8 00 00 00 00	 call	 ?GetFileDirPath@YL_FileInfo@@SA_NABV?$basic_string@DU?$char_traits@D@std@@V?$allocator@D@2@@std@@AAV23@@Z ; YL_FileInfo::GetFileDirPath
  009ec	83 c4 08	 add	 esp, 8

; 147  : 	YL_DirInfo::MakeDir( strFileDir );

  009ef	8d 4d 84	 lea	 ecx, DWORD PTR _strFileDir$[ebp]
  009f2	51		 push	 ecx
  009f3	e8 00 00 00 00	 call	 ?MakeDir@YL_DirInfo@@SA_NABV?$basic_string@DU?$char_traits@D@std@@V?$allocator@D@2@@std@@@Z ; YL_DirInfo::MakeDir
  009f8	83 c4 04	 add	 esp, 4

; 148  : 
; 149  : 	YL_FileInfo::SetFileContent( strTmp, strContent );

  009fb	8d 55 a8	 lea	 edx, DWORD PTR _strContent$[ebp]
  009fe	52		 push	 edx
  009ff	8d 45 cc	 lea	 eax, DWORD PTR _strTmp$[ebp]
  00a02	50		 push	 eax
  00a03	e8 00 00 00 00	 call	 ?SetFileContent@YL_FileInfo@@SA_NABV?$basic_string@DU?$char_traits@D@std@@V?$allocator@D@2@@std@@0@Z ; YL_FileInfo::SetFileContent
  00a08	83 c4 08	 add	 esp, 8

; 150  : 	
; 151  : 	CMarkupArchive xml;

  00a0b	6a 03		 push	 3
  00a0d	8d 8d 28 ff ff
	ff		 lea	 ecx, DWORD PTR _xml$[ebp]
  00a13	e8 00 00 00 00	 call	 ??0CMarkupArchive@@QAE@K@Z ; CMarkupArchive::CMarkupArchive
  00a18	c6 45 fc 03	 mov	 BYTE PTR __$EHRec$[ebp+8], 3

; 152  : 	if( !xml.Open(strTmp.c_str()) )

  00a1c	8b f4		 mov	 esi, esp
  00a1e	8d 4d cc	 lea	 ecx, DWORD PTR _strTmp$[ebp]
  00a21	ff 15 00 00 00
	00		 call	 DWORD PTR __imp_?c_str@?$basic_string@DU?$char_traits@D@std@@V?$allocator@D@2@@std@@QBEPBDXZ
  00a27	3b f4		 cmp	 esi, esp
  00a29	e8 00 00 00 00	 call	 __RTC_CheckEsp
  00a2e	50		 push	 eax
  00a2f	8d 8d 28 ff ff
	ff		 lea	 ecx, DWORD PTR _xml$[ebp]
  00a35	e8 00 00 00 00	 call	 ?Open@CMarkupArchive@@QAE_NPBD@Z ; CMarkupArchive::Open
  00a3a	0f b6 c8	 movzx	 ecx, al
  00a3d	85 c9		 test	 ecx, ecx
  00a3f	75 59		 jne	 SHORT $L189783

; 153  : 		return;

  00a41	c6 45 fc 02	 mov	 BYTE PTR __$EHRec$[ebp+8], 2
  00a45	8d 8d 28 ff ff
	ff		 lea	 ecx, DWORD PTR _xml$[ebp]
  00a4b	e8 00 00 00 00	 call	 ??1CMarkupArchive@@UAE@XZ ; CMarkupArchive::~CMarkupArchive
  00a50	c6 45 fc 01	 mov	 BYTE PTR __$EHRec$[ebp+8], 1
  00a54	8b f4		 mov	 esi, esp
  00a56	8d 4d 84	 lea	 ecx, DWORD PTR _strFileDir$[ebp]
  00a59	ff 15 00 00 00
	00		 call	 DWORD PTR __imp_??1?$basic_string@DU?$char_traits@D@std@@V?$allocator@D@2@@std@@QAE@XZ
  00a5f	3b f4		 cmp	 esi, esp
  00a61	e8 00 00 00 00	 call	 __RTC_CheckEsp
  00a66	c6 45 fc 00	 mov	 BYTE PTR __$EHRec$[ebp+8], 0
  00a6a	8b f4		 mov	 esi, esp
  00a6c	8d 4d a8	 lea	 ecx, DWORD PTR _strContent$[ebp]
  00a6f	ff 15 00 00 00
	00		 call	 DWORD PTR __imp_??1?$basic_string@DU?$char_traits@D@std@@V?$allocator@D@2@@std@@QAE@XZ
  00a75	3b f4		 cmp	 esi, esp
  00a77	e8 00 00 00 00	 call	 __RTC_CheckEsp
  00a7c	c7 45 fc ff ff
	ff ff		 mov	 DWORD PTR __$EHRec$[ebp+8], -1
  00a83	8b f4		 mov	 esi, esp
  00a85	8d 4d cc	 lea	 ecx, DWORD PTR _strTmp$[ebp]
  00a88	ff 15 00 00 00
	00		 call	 DWORD PTR __imp_??1?$basic_string@DU?$char_traits@D@std@@V?$allocator@D@2@@std@@QAE@XZ
  00a8e	3b f4		 cmp	 esi, esp
  00a90	e8 00 00 00 00	 call	 __RTC_CheckEsp
  00a95	e9 27 02 00 00	 jmp	 $L189775
$L189783:

; 154  : 
; 155  : 	xml.ResetPos();

  00a9a	8d 8d 28 ff ff
	ff		 lea	 ecx, DWORD PTR _xml$[ebp]
  00aa0	e8 00 00 00 00	 call	 ?ResetPos@CMarkup@@QAEXXZ ; CMarkup::ResetPos

; 156  : 	xml.FindElem();

  00aa5	6a 00		 push	 0
  00aa7	8d 8d 28 ff ff
	ff		 lea	 ecx, DWORD PTR _xml$[ebp]
  00aad	e8 00 00 00 00	 call	 ?FindElem@CMarkupArchive@@UAE_NPBD@Z ; CMarkupArchive::FindElem

; 157  : 
; 158  : 	for( LocalGameList::iterator it1 = m_vecGame.begin(); it1 != m_vecGame.end(); it1++ )

  00ab2	8d 95 1c ff ff
	ff		 lea	 edx, DWORD PTR _it1$189900[ebp]
  00ab8	52		 push	 edx
  00ab9	8b 4d ec	 mov	 ecx, DWORD PTR _this$[ebp]
  00abc	83 c1 04	 add	 ecx, 4
  00abf	e8 00 00 00 00	 call	 ?begin@?$vector@UOneLocalGame@@V?$allocator@UOneLocalGame@@@std@@@std@@QAE?AViterator@12@XZ ; std::vector<OneLocalGame,std::allocator<OneLocalGame> >::begin
  00ac4	eb 14		 jmp	 SHORT $L189904
$L189905:
  00ac6	6a 00		 push	 0
  00ac8	8d 85 14 ff ff
	ff		 lea	 eax, DWORD PTR $T192557[ebp]
  00ace	50		 push	 eax
  00acf	8d 8d 1c ff ff
	ff		 lea	 ecx, DWORD PTR _it1$189900[ebp]
  00ad5	e8 00 00 00 00	 call	 ??Eiterator@?$vector@UOneLocalGame@@V?$allocator@UOneLocalGame@@@std@@@std@@QAE?AV012@H@Z ; std::vector<OneLocalGame,std::allocator<OneLocalGame> >::iterator::operator++
$L189904:
  00ada	8d 8d 10 ff ff
	ff		 lea	 ecx, DWORD PTR $T192558[ebp]
  00ae0	51		 push	 ecx
  00ae1	8b 4d ec	 mov	 ecx, DWORD PTR _this$[ebp]
  00ae4	83 c1 04	 add	 ecx, 4
  00ae7	e8 00 00 00 00	 call	 ?end@?$vector@UOneLocalGame@@V?$allocator@UOneLocalGame@@@std@@@std@@QAE?AViterator@12@XZ ; std::vector<OneLocalGame,std::allocator<OneLocalGame> >::end
  00aec	50		 push	 eax
  00aed	8d 8d 1c ff ff
	ff		 lea	 ecx, DWORD PTR _it1$189900[ebp]
  00af3	e8 00 00 00 00	 call	 ??9const_iterator@?$vector@UOneLocalGame@@V?$allocator@UOneLocalGame@@@std@@@std@@QBE_NABV012@@Z ; std::vector<OneLocalGame,std::allocator<OneLocalGame> >::const_iterator::operator!=
  00af8	0f b6 d0	 movzx	 edx, al
  00afb	85 d2		 test	 edx, edx
  00afd	0f 84 1a 01 00
	00		 je	 $L189906

; 159  : 	{
; 160  : 		xml.AddChildElem( "app" );		

  00b03	6a 00		 push	 0
  00b05	68 00 00 00 00	 push	 OFFSET FLAT:$SG189907
  00b0a	8d 8d 28 ff ff
	ff		 lea	 ecx, DWORD PTR _xml$[ebp]
  00b10	e8 00 00 00 00	 call	 ?AddChildElem@CMarkupArchive@@UAE_NPBD0@Z ; CMarkupArchive::AddChildElem

; 161  : 		xml.IntoElem();

  00b15	8d 8d 28 ff ff
	ff		 lea	 ecx, DWORD PTR _xml$[ebp]
  00b1b	e8 00 00 00 00	 call	 ?IntoElem@CMarkup@@QAE_NXZ ; CMarkup::IntoElem

; 162  : 		xml.SetAttrib( "Id", it1->strID.c_str() );

  00b20	8d 8d 1c ff ff
	ff		 lea	 ecx, DWORD PTR _it1$189900[ebp]
  00b26	e8 00 00 00 00	 call	 ??Citerator@?$vector@UOneLocalGame@@V?$allocator@UOneLocalGame@@@std@@@std@@QBEPAUOneLocalGame@@XZ ; std::vector<OneLocalGame,std::allocator<OneLocalGame> >::iterator::operator->
  00b2b	8b f4		 mov	 esi, esp
  00b2d	8b c8		 mov	 ecx, eax
  00b2f	ff 15 00 00 00
	00		 call	 DWORD PTR __imp_?c_str@?$basic_string@DU?$char_traits@D@std@@V?$allocator@D@2@@std@@QBEPBDXZ
  00b35	3b f4		 cmp	 esi, esp
  00b37	e8 00 00 00 00	 call	 __RTC_CheckEsp
  00b3c	50		 push	 eax
  00b3d	68 00 00 00 00	 push	 OFFSET FLAT:$SG189908
  00b42	8d 8d 28 ff ff
	ff		 lea	 ecx, DWORD PTR _xml$[ebp]
  00b48	e8 00 00 00 00	 call	 ?SetAttrib@CMarkup@@QAE_NPBD0@Z ; CMarkup::SetAttrib

; 163  : 		xml.SetAttrib( "Name", it1->strName.c_str() );

  00b4d	8d 8d 1c ff ff
	ff		 lea	 ecx, DWORD PTR _it1$189900[ebp]
  00b53	e8 00 00 00 00	 call	 ??Citerator@?$vector@UOneLocalGame@@V?$allocator@UOneLocalGame@@@std@@@std@@QBEPAUOneLocalGame@@XZ ; std::vector<OneLocalGame,std::allocator<OneLocalGame> >::iterator::operator->
  00b58	83 c0 1c	 add	 eax, 28			; 0000001cH
  00b5b	8b f4		 mov	 esi, esp
  00b5d	8b c8		 mov	 ecx, eax
  00b5f	ff 15 00 00 00
	00		 call	 DWORD PTR __imp_?c_str@?$basic_string@DU?$char_traits@D@std@@V?$allocator@D@2@@std@@QBEPBDXZ
  00b65	3b f4		 cmp	 esi, esp
  00b67	e8 00 00 00 00	 call	 __RTC_CheckEsp
  00b6c	50		 push	 eax
  00b6d	68 00 00 00 00	 push	 OFFSET FLAT:$SG189909
  00b72	8d 8d 28 ff ff
	ff		 lea	 ecx, DWORD PTR _xml$[ebp]
  00b78	e8 00 00 00 00	 call	 ?SetAttrib@CMarkup@@QAE_NPBD0@Z ; CMarkup::SetAttrib

; 164  : 		xml.SetAttrib( "Intro", it1->strIntro.c_str() );

  00b7d	8d 8d 1c ff ff
	ff		 lea	 ecx, DWORD PTR _it1$189900[ebp]
  00b83	e8 00 00 00 00	 call	 ??Citerator@?$vector@UOneLocalGame@@V?$allocator@UOneLocalGame@@@std@@@std@@QBEPAUOneLocalGame@@XZ ; std::vector<OneLocalGame,std::allocator<OneLocalGame> >::iterator::operator->
  00b88	83 c0 70	 add	 eax, 112		; 00000070H
  00b8b	8b f4		 mov	 esi, esp
  00b8d	8b c8		 mov	 ecx, eax
  00b8f	ff 15 00 00 00
	00		 call	 DWORD PTR __imp_?c_str@?$basic_string@DU?$char_traits@D@std@@V?$allocator@D@2@@std@@QBEPBDXZ
  00b95	3b f4		 cmp	 esi, esp
  00b97	e8 00 00 00 00	 call	 __RTC_CheckEsp
  00b9c	50		 push	 eax
  00b9d	68 00 00 00 00	 push	 OFFSET FLAT:$SG189910
  00ba2	8d 8d 28 ff ff
	ff		 lea	 ecx, DWORD PTR _xml$[ebp]
  00ba8	e8 00 00 00 00	 call	 ?SetAttrib@CMarkup@@QAE_NPBD0@Z ; CMarkup::SetAttrib

; 165  : 		xml.SetAttrib( "Img", it1->strPicPath.c_str() );

  00bad	8d 8d 1c ff ff
	ff		 lea	 ecx, DWORD PTR _it1$189900[ebp]
  00bb3	e8 00 00 00 00	 call	 ??Citerator@?$vector@UOneLocalGame@@V?$allocator@UOneLocalGame@@@std@@@std@@QBEPAUOneLocalGame@@XZ ; std::vector<OneLocalGame,std::allocator<OneLocalGame> >::iterator::operator->
  00bb8	83 c0 54	 add	 eax, 84			; 00000054H
  00bbb	8b f4		 mov	 esi, esp
  00bbd	8b c8		 mov	 ecx, eax
  00bbf	ff 15 00 00 00
	00		 call	 DWORD PTR __imp_?c_str@?$basic_string@DU?$char_traits@D@std@@V?$allocator@D@2@@std@@QBEPBDXZ
  00bc5	3b f4		 cmp	 esi, esp
  00bc7	e8 00 00 00 00	 call	 __RTC_CheckEsp
  00bcc	50		 push	 eax
  00bcd	68 00 00 00 00	 push	 OFFSET FLAT:$SG189911
  00bd2	8d 8d 28 ff ff
	ff		 lea	 ecx, DWORD PTR _xml$[ebp]
  00bd8	e8 00 00 00 00	 call	 ?SetAttrib@CMarkup@@QAE_NPBD0@Z ; CMarkup::SetAttrib

; 166  : 		xml.SetAttrib( "AppPath", it1->strGamePath.c_str() );

  00bdd	8d 8d 1c ff ff
	ff		 lea	 ecx, DWORD PTR _it1$189900[ebp]
  00be3	e8 00 00 00 00	 call	 ??Citerator@?$vector@UOneLocalGame@@V?$allocator@UOneLocalGame@@@std@@@std@@QBEPAUOneLocalGame@@XZ ; std::vector<OneLocalGame,std::allocator<OneLocalGame> >::iterator::operator->
  00be8	83 c0 38	 add	 eax, 56			; 00000038H
  00beb	8b f4		 mov	 esi, esp
  00bed	8b c8		 mov	 ecx, eax
  00bef	ff 15 00 00 00
	00		 call	 DWORD PTR __imp_?c_str@?$basic_string@DU?$char_traits@D@std@@V?$allocator@D@2@@std@@QBEPBDXZ
  00bf5	3b f4		 cmp	 esi, esp
  00bf7	e8 00 00 00 00	 call	 __RTC_CheckEsp
  00bfc	50		 push	 eax
  00bfd	68 00 00 00 00	 push	 OFFSET FLAT:$SG189912
  00c02	8d 8d 28 ff ff
	ff		 lea	 ecx, DWORD PTR _xml$[ebp]
  00c08	e8 00 00 00 00	 call	 ?SetAttrib@CMarkup@@QAE_NPBD0@Z ; CMarkup::SetAttrib

; 167  : 		xml.OutOfElem();

  00c0d	8d 8d 28 ff ff
	ff		 lea	 ecx, DWORD PTR _xml$[ebp]
  00c13	e8 00 00 00 00	 call	 ?OutOfElem@CMarkup@@QAE_NXZ ; CMarkup::OutOfElem

; 168  : 	}

  00c18	e9 a9 fe ff ff	 jmp	 $L189905
$L189906:

; 169  : 	xml.Close();

  00c1d	8d 8d 28 ff ff
	ff		 lea	 ecx, DWORD PTR _xml$[ebp]
  00c23	e8 00 00 00 00	 call	 ?Close@CMarkupArchive@@QAE_NXZ ; CMarkupArchive::Close

; 170  : 	xml.Save();

  00c28	8d 8d 28 ff ff
	ff		 lea	 ecx, DWORD PTR _xml$[ebp]
  00c2e	e8 00 00 00 00	 call	 ?Save@CMarkupArchive@@QAE_NXZ ; CMarkupArchive::Save

; 171  : 
; 172  : 	CopyFile( strTmp.c_str(), m_strDataFilePath.c_str(), FALSE );

  00c33	8b f4		 mov	 esi, esp
  00c35	6a 00		 push	 0
  00c37	8b 4d ec	 mov	 ecx, DWORD PTR _this$[ebp]
  00c3a	83 c1 14	 add	 ecx, 20			; 00000014H
  00c3d	8b fc		 mov	 edi, esp
  00c3f	ff 15 00 00 00
	00		 call	 DWORD PTR __imp_?c_str@?$basic_string@DU?$char_traits@D@std@@V?$allocator@D@2@@std@@QBEPBDXZ
  00c45	3b fc		 cmp	 edi, esp
  00c47	e8 00 00 00 00	 call	 __RTC_CheckEsp
  00c4c	50		 push	 eax
  00c4d	8b fc		 mov	 edi, esp
  00c4f	8d 4d cc	 lea	 ecx, DWORD PTR _strTmp$[ebp]
  00c52	ff 15 00 00 00
	00		 call	 DWORD PTR __imp_?c_str@?$basic_string@DU?$char_traits@D@std@@V?$allocator@D@2@@std@@QBEPBDXZ
  00c58	3b fc		 cmp	 edi, esp
  00c5a	e8 00 00 00 00	 call	 __RTC_CheckEsp
  00c5f	50		 push	 eax
  00c60	ff 15 00 00 00
	00		 call	 DWORD PTR __imp__CopyFileA@12
  00c66	3b f4		 cmp	 esi, esp
  00c68	e8 00 00 00 00	 call	 __RTC_CheckEsp

; 173  : }

  00c6d	c6 45 fc 02	 mov	 BYTE PTR __$EHRec$[ebp+8], 2
  00c71	8d 8d 28 ff ff
	ff		 lea	 ecx, DWORD PTR _xml$[ebp]
  00c77	e8 00 00 00 00	 call	 ??1CMarkupArchive@@UAE@XZ ; CMarkupArchive::~CMarkupArchive
  00c7c	c6 45 fc 01	 mov	 BYTE PTR __$EHRec$[ebp+8], 1
  00c80	8b f4		 mov	 esi, esp
  00c82	8d 4d 84	 lea	 ecx, DWORD PTR _strFileDir$[ebp]
  00c85	ff 15 00 00 00
	00		 call	 DWORD PTR __imp_??1?$basic_string@DU?$char_traits@D@std@@V?$allocator@D@2@@std@@QAE@XZ
  00c8b	3b f4		 cmp	 esi, esp
  00c8d	e8 00 00 00 00	 call	 __RTC_CheckEsp
  00c92	c6 45 fc 00	 mov	 BYTE PTR __$EHRec$[ebp+8], 0
  00c96	8b f4		 mov	 esi, esp
  00c98	8d 4d a8	 lea	 ecx, DWORD PTR _strContent$[ebp]
  00c9b	ff 15 00 00 00
	00		 call	 DWORD PTR __imp_??1?$basic_string@DU?$char_traits@D@std@@V?$allocator@D@2@@std@@QAE@XZ
  00ca1	3b f4		 cmp	 esi, esp
  00ca3	e8 00 00 00 00	 call	 __RTC_CheckEsp
  00ca8	c7 45 fc ff ff
	ff ff		 mov	 DWORD PTR __$EHRec$[ebp+8], -1
  00caf	8b f4		 mov	 esi, esp
  00cb1	8d 4d cc	 lea	 ecx, DWORD PTR _strTmp$[ebp]
  00cb4	ff 15 00 00 00
	00		 call	 DWORD PTR __imp_??1?$basic_string@DU?$char_traits@D@std@@V?$allocator@D@2@@std@@QAE@XZ
  00cba	3b f4		 cmp	 esi, esp
  00cbc	e8 00 00 00 00	 call	 __RTC_CheckEsp
$L189775:
  00cc1	52		 push	 edx
  00cc2	8b cd		 mov	 ecx, ebp
  00cc4	50		 push	 eax
  00cc5	8d 15 00 00 00
	00		 lea	 edx, DWORD PTR $L192573
  00ccb	e8 00 00 00 00	 call	 @_RTC_CheckStackVars@8
  00cd0	58		 pop	 eax
  00cd1	5a		 pop	 edx
  00cd2	8b 4d f4	 mov	 ecx, DWORD PTR __$EHRec$[ebp]
  00cd5	64 89 0d 00 00
	00 00		 mov	 DWORD PTR fs:__except_list, ecx
  00cdc	8b 4d f0	 mov	 ecx, DWORD PTR __$ArrayPad$[ebp]
  00cdf	e8 00 00 00 00	 call	 @__security_check_cookie@4
  00ce4	5f		 pop	 edi
  00ce5	5e		 pop	 esi
  00ce6	81 c4 f0 00 00
	00		 add	 esp, 240		; 000000f0H
  00cec	3b ec		 cmp	 ebp, esp
  00cee	e8 00 00 00 00	 call	 __RTC_CheckEsp
  00cf3	8b e5		 mov	 esp, ebp
  00cf5	5d		 pop	 ebp
  00cf6	c3		 ret	 0
$L192573:
  00cf7	05 00 00 00	 DD	 5
  00cfb	00 00 00 00	 DD	 $L192572
$L192572:
  00cff	cc ff ff ff	 DD	 -52			; ffffffccH
  00d03	1c 00 00 00	 DD	 28			; 0000001cH
  00d07	00 00 00 00	 DD	 $L192565
  00d0b	a8 ff ff ff	 DD	 -88			; ffffffa8H
  00d0f	1c 00 00 00	 DD	 28			; 0000001cH
  00d13	00 00 00 00	 DD	 $L192566
  00d17	84 ff ff ff	 DD	 -124			; ffffff84H
  00d1b	1c 00 00 00	 DD	 28			; 0000001cH
  00d1f	00 00 00 00	 DD	 $L192567
  00d23	28 ff ff ff	 DD	 -216			; ffffff28H
  00d27	54 00 00 00	 DD	 84			; 00000054H
  00d2b	00 00 00 00	 DD	 $L192568
  00d2f	1c ff ff ff	 DD	 -228			; ffffff1cH
  00d33	04 00 00 00	 DD	 4
  00d37	00 00 00 00	 DD	 $L192569
$L192569:
  00d3b	69		 DB	 105			; 00000069H
  00d3c	74		 DB	 116			; 00000074H
  00d3d	31		 DB	 49			; 00000031H
  00d3e	00		 DB	 0
$L192568:
  00d3f	78		 DB	 120			; 00000078H
  00d40	6d		 DB	 109			; 0000006dH
  00d41	6c		 DB	 108			; 0000006cH
  00d42	00		 DB	 0
$L192567:
  00d43	73		 DB	 115			; 00000073H
  00d44	74		 DB	 116			; 00000074H
  00d45	72		 DB	 114			; 00000072H
  00d46	46		 DB	 70			; 00000046H
  00d47	69		 DB	 105			; 00000069H
  00d48	6c		 DB	 108			; 0000006cH
  00d49	65		 DB	 101			; 00000065H
  00d4a	44		 DB	 68			; 00000044H
  00d4b	69		 DB	 105			; 00000069H
  00d4c	72		 DB	 114			; 00000072H
  00d4d	00		 DB	 0
$L192566:
  00d4e	73		 DB	 115			; 00000073H
  00d4f	74		 DB	 116			; 00000074H
  00d50	72		 DB	 114			; 00000072H
  00d51	43		 DB	 67			; 00000043H
  00d52	6f		 DB	 111			; 0000006fH
  00d53	6e		 DB	 110			; 0000006eH
  00d54	74		 DB	 116			; 00000074H
  00d55	65		 DB	 101			; 00000065H
  00d56	6e		 DB	 110			; 0000006eH
  00d57	74		 DB	 116			; 00000074H
  00d58	00		 DB	 0
$L192565:
  00d59	73		 DB	 115			; 00000073H
  00d5a	74		 DB	 116			; 00000074H
  00d5b	72		 DB	 114			; 00000072H
  00d5c	54		 DB	 84			; 00000054H
  00d5d	6d		 DB	 109			; 0000006dH
  00d5e	70		 DB	 112			; 00000070H
  00d5f	00		 DB	 0
_TEXT	ENDS
text$x	SEGMENT
$L192559:
  00177	8b f4		 mov	 esi, esp
  00179	8d 4d cc	 lea	 ecx, DWORD PTR _strTmp$[ebp]
  0017c	ff 15 00 00 00
	00		 call	 DWORD PTR __imp_??1?$basic_string@DU?$char_traits@D@std@@V?$allocator@D@2@@std@@QAE@XZ
  00182	3b f4		 cmp	 esi, esp
  00184	e9 00 00 00 00	 jmp	 __RTC_CheckEsp
$L192560:
  00189	8b f4		 mov	 esi, esp
  0018b	8d 4d a8	 lea	 ecx, DWORD PTR _strContent$[ebp]
  0018e	ff 15 00 00 00
	00		 call	 DWORD PTR __imp_??1?$basic_string@DU?$char_traits@D@std@@V?$allocator@D@2@@std@@QAE@XZ
  00194	3b f4		 cmp	 esi, esp
  00196	e9 00 00 00 00	 jmp	 __RTC_CheckEsp
$L192561:
  0019b	8b f4		 mov	 esi, esp
  0019d	8d 4d 84	 lea	 ecx, DWORD PTR _strFileDir$[ebp]
  001a0	ff 15 00 00 00
	00		 call	 DWORD PTR __imp_??1?$basic_string@DU?$char_traits@D@std@@V?$allocator@D@2@@std@@QAE@XZ
  001a6	3b f4		 cmp	 esi, esp
  001a8	e9 00 00 00 00	 jmp	 __RTC_CheckEsp
$L192562:
  001ad	8d 8d 28 ff ff
	ff		 lea	 ecx, DWORD PTR _xml$[ebp]
  001b3	e9 00 00 00 00	 jmp	 ??1CMarkupArchive@@UAE@XZ ; CMarkupArchive::~CMarkupArchive
__ehhandler$?UnLoadGameData@LocalGameData@@AAEXXZ:
  001b8	b8 00 00 00 00	 mov	 eax, OFFSET FLAT:$T192564
  001bd	e9 00 00 00 00	 jmp	 ___CxxFrameHandler
text$x	ENDS
?UnLoadGameData@LocalGameData@@AAEXXZ ENDP		; LocalGameData::UnLoadGameData
EXTRN	?x_SetAttrib@CMarkup@@IAE_NHPBD0@Z:NEAR		; CMarkup::x_SetAttrib
; Function compile flags: /Odt /RTCsu
; File d:\boxgit\playbox\playbox\dev\prj\playbox\src\util\markup.h
;	COMDAT ?SetAttrib@CMarkup@@QAE_NPBD0@Z
_TEXT	SEGMENT
_this$ = -4						; size = 4
_szAttrib$ = 8						; size = 4
_szValue$ = 12						; size = 4
?SetAttrib@CMarkup@@QAE_NPBD0@Z PROC NEAR		; CMarkup::SetAttrib, COMDAT
; _this$ = ecx

; 41   : 	bool SetAttrib( LPCTSTR szAttrib, LPCTSTR szValue ) { return x_SetAttrib(m_iPos,szAttrib,szValue); };

  00000	55		 push	 ebp
  00001	8b ec		 mov	 ebp, esp
  00003	51		 push	 ecx
  00004	c7 45 fc cc cc
	cc cc		 mov	 DWORD PTR [ebp-4], -858993460 ; ccccccccH
  0000b	89 4d fc	 mov	 DWORD PTR _this$[ebp], ecx
  0000e	8b 45 0c	 mov	 eax, DWORD PTR _szValue$[ebp]
  00011	50		 push	 eax
  00012	8b 4d 08	 mov	 ecx, DWORD PTR _szAttrib$[ebp]
  00015	51		 push	 ecx
  00016	8b 55 fc	 mov	 edx, DWORD PTR _this$[ebp]
  00019	8b 42 2c	 mov	 eax, DWORD PTR [edx+44]
  0001c	50		 push	 eax
  0001d	8b 4d fc	 mov	 ecx, DWORD PTR _this$[ebp]
  00020	e8 00 00 00 00	 call	 ?x_SetAttrib@CMarkup@@IAE_NHPBD0@Z ; CMarkup::x_SetAttrib
  00025	83 c4 04	 add	 esp, 4
  00028	3b ec		 cmp	 ebp, esp
  0002a	e8 00 00 00 00	 call	 __RTC_CheckEsp
  0002f	8b e5		 mov	 esp, ebp
  00031	5d		 pop	 ebp
  00032	c2 08 00	 ret	 8
?SetAttrib@CMarkup@@QAE_NPBD0@Z ENDP			; CMarkup::SetAttrib
_TEXT	ENDS
PUBLIC	??Diterator@?$vector@UOneLocalGame@@V?$allocator@UOneLocalGame@@@std@@@std@@QBEAAUOneLocalGame@@XZ ; std::vector<OneLocalGame,std::allocator<OneLocalGame> >::iterator::operator*
PUBLIC	??4OneLocalGame@@QAEAAU0@ABU0@@Z		; OneLocalGame::operator=
PUBLIC	?erase@?$vector@UOneLocalGame@@V?$allocator@UOneLocalGame@@@std@@@std@@QAE?AViterator@12@V312@@Z ; std::vector<OneLocalGame,std::allocator<OneLocalGame> >::erase
EXTRN	__imp_??$?8DU?$char_traits@D@std@@V?$allocator@D@1@@std@@YA_NABV?$basic_string@DU?$char_traits@D@std@@V?$allocator@D@2@@0@0@Z:NEAR
xdata$x	SEGMENT
$T192591 DD	0ffffffffH
	DD	FLAT:$L192584
$T192586 DD	019930520H
	DD	01H
	DD	FLAT:$T192591
	DD	2 DUP(00H)
	DD	2 DUP(00H)
; Function compile flags: /Odt /RTCsu
; File d:\boxgit\playbox\playbox\dev\prj\playbox\src\module\httpdown\localgamedata.cpp
xdata$x	ENDS
_TEXT	SEGMENT
$T192583 = -50						; size = 1
$T192582 = -49						; size = 1
$T192581 = -48						; size = 4
$T192580 = -41						; size = 1
$T192579 = -40						; size = 4
$T192578 = -36						; size = 4
$T192577 = -32						; size = 4
_it1$ = -24						; size = 4
_this$ = -16						; size = 4
__$EHRec$ = -12						; size = 12
_strID$ = 8						; size = 28
_og$ = 36						; size = 4
?ILocalGameData_GetGameByID@LocalGameData@@UAE_NV?$basic_string@DU?$char_traits@D@std@@V?$allocator@D@2@@std@@AAUOneLocalGame@@@Z PROC NEAR ; LocalGameData::ILocalGameData_GetGameByID
; _this$ = ecx

; 176  : {

  00d60	55		 push	 ebp
  00d61	8b ec		 mov	 ebp, esp
  00d63	6a ff		 push	 -1
  00d65	68 00 00 00 00	 push	 __ehhandler$?ILocalGameData_GetGameByID@LocalGameData@@UAE_NV?$basic_string@DU?$char_traits@D@std@@V?$allocator@D@2@@std@@AAUOneLocalGame@@@Z
  00d6a	64 a1 00 00 00
	00		 mov	 eax, DWORD PTR fs:__except_list
  00d70	50		 push	 eax
  00d71	64 89 25 00 00
	00 00		 mov	 DWORD PTR fs:__except_list, esp
  00d78	83 ec 28	 sub	 esp, 40			; 00000028H
  00d7b	56		 push	 esi
  00d7c	57		 push	 edi
  00d7d	51		 push	 ecx
  00d7e	8d 7d cc	 lea	 edi, DWORD PTR [ebp-52]
  00d81	b9 0a 00 00 00	 mov	 ecx, 10			; 0000000aH
  00d86	b8 cc cc cc cc	 mov	 eax, -858993460		; ccccccccH
  00d8b	f3 ab		 rep stosd
  00d8d	59		 pop	 ecx
  00d8e	89 4d f0	 mov	 DWORD PTR _this$[ebp], ecx
  00d91	c7 45 fc 00 00
	00 00		 mov	 DWORD PTR __$EHRec$[ebp+8], 0

; 177  : 	LocalGameList::iterator it1 = m_vecGame.begin();

  00d98	8d 45 e8	 lea	 eax, DWORD PTR _it1$[ebp]
  00d9b	50		 push	 eax
  00d9c	8b 4d f0	 mov	 ecx, DWORD PTR _this$[ebp]
  00d9f	83 c1 04	 add	 ecx, 4
  00da2	e8 00 00 00 00	 call	 ?begin@?$vector@UOneLocalGame@@V?$allocator@UOneLocalGame@@@std@@@std@@QAE?AViterator@12@XZ ; std::vector<OneLocalGame,std::allocator<OneLocalGame> >::begin

; 178  : 	for( ; it1 != m_vecGame.end(); it1 ++ )

  00da7	eb 0e		 jmp	 SHORT $L189922
$L189923:
  00da9	6a 00		 push	 0
  00dab	8d 4d e0	 lea	 ecx, DWORD PTR $T192577[ebp]
  00dae	51		 push	 ecx
  00daf	8d 4d e8	 lea	 ecx, DWORD PTR _it1$[ebp]
  00db2	e8 00 00 00 00	 call	 ??Eiterator@?$vector@UOneLocalGame@@V?$allocator@UOneLocalGame@@@std@@@std@@QAE?AV012@H@Z ; std::vector<OneLocalGame,std::allocator<OneLocalGame> >::iterator::operator++
$L189922:
  00db7	8d 55 dc	 lea	 edx, DWORD PTR $T192578[ebp]
  00dba	52		 push	 edx
  00dbb	8b 4d f0	 mov	 ecx, DWORD PTR _this$[ebp]
  00dbe	83 c1 04	 add	 ecx, 4
  00dc1	e8 00 00 00 00	 call	 ?end@?$vector@UOneLocalGame@@V?$allocator@UOneLocalGame@@@std@@@std@@QAE?AViterator@12@XZ ; std::vector<OneLocalGame,std::allocator<OneLocalGame> >::end
  00dc6	50		 push	 eax
  00dc7	8d 4d e8	 lea	 ecx, DWORD PTR _it1$[ebp]
  00dca	e8 00 00 00 00	 call	 ??9const_iterator@?$vector@UOneLocalGame@@V?$allocator@UOneLocalGame@@@std@@@std@@QBE_NABV012@@Z ; std::vector<OneLocalGame,std::allocator<OneLocalGame> >::const_iterator::operator!=
  00dcf	0f b6 c0	 movzx	 eax, al
  00dd2	85 c0		 test	 eax, eax
  00dd4	74 2a		 je	 SHORT $L189924

; 179  : 	{
; 180  : 		if( strID == it1->strID)

  00dd6	8d 4d e8	 lea	 ecx, DWORD PTR _it1$[ebp]
  00dd9	e8 00 00 00 00	 call	 ??Citerator@?$vector@UOneLocalGame@@V?$allocator@UOneLocalGame@@@std@@@std@@QBEPAUOneLocalGame@@XZ ; std::vector<OneLocalGame,std::allocator<OneLocalGame> >::iterator::operator->
  00dde	8b f4		 mov	 esi, esp
  00de0	50		 push	 eax
  00de1	8d 4d 08	 lea	 ecx, DWORD PTR _strID$[ebp]
  00de4	51		 push	 ecx
  00de5	ff 15 00 00 00
	00		 call	 DWORD PTR __imp_??$?8DU?$char_traits@D@std@@V?$allocator@D@1@@std@@YA_NABV?$basic_string@DU?$char_traits@D@std@@V?$allocator@D@2@@0@0@Z
  00deb	83 c4 08	 add	 esp, 8
  00dee	3b f4		 cmp	 esi, esp
  00df0	e8 00 00 00 00	 call	 __RTC_CheckEsp
  00df5	0f b6 d0	 movzx	 edx, al
  00df8	85 d2		 test	 edx, edx
  00dfa	74 02		 je	 SHORT $L189925

; 181  : 		{
; 182  : 			break;

  00dfc	eb 02		 jmp	 SHORT $L189924
$L189925:

; 183  : 		}
; 184  : 	}

  00dfe	eb a9		 jmp	 SHORT $L189923
$L189924:

; 185  : 	if( it1 != m_vecGame.end() )

  00e00	8d 45 d8	 lea	 eax, DWORD PTR $T192579[ebp]
  00e03	50		 push	 eax
  00e04	8b 4d f0	 mov	 ecx, DWORD PTR _this$[ebp]
  00e07	83 c1 04	 add	 ecx, 4
  00e0a	e8 00 00 00 00	 call	 ?end@?$vector@UOneLocalGame@@V?$allocator@UOneLocalGame@@@std@@@std@@QAE?AViterator@12@XZ ; std::vector<OneLocalGame,std::allocator<OneLocalGame> >::end
  00e0f	50		 push	 eax
  00e10	8d 4d e8	 lea	 ecx, DWORD PTR _it1$[ebp]
  00e13	e8 00 00 00 00	 call	 ??9const_iterator@?$vector@UOneLocalGame@@V?$allocator@UOneLocalGame@@@std@@@std@@QBE_NABV012@@Z ; std::vector<OneLocalGame,std::allocator<OneLocalGame> >::const_iterator::operator!=
  00e18	0f b6 c8	 movzx	 ecx, al
  00e1b	85 c9		 test	 ecx, ecx
  00e1d	0f 84 8b 00 00
	00		 je	 $L189927

; 186  : 	{
; 187  : 		if( YL_FileInfo::IsValid( it1->strGamePath ) )

  00e23	8d 4d e8	 lea	 ecx, DWORD PTR _it1$[ebp]
  00e26	e8 00 00 00 00	 call	 ??Citerator@?$vector@UOneLocalGame@@V?$allocator@UOneLocalGame@@@std@@@std@@QBEPAUOneLocalGame@@XZ ; std::vector<OneLocalGame,std::allocator<OneLocalGame> >::iterator::operator->
  00e2b	83 c0 38	 add	 eax, 56			; 00000038H
  00e2e	50		 push	 eax
  00e2f	e8 00 00 00 00	 call	 ?IsValid@YL_FileInfo@@SA_NABV?$basic_string@DU?$char_traits@D@std@@V?$allocator@D@2@@std@@@Z ; YL_FileInfo::IsValid
  00e34	83 c4 04	 add	 esp, 4
  00e37	0f b6 d0	 movzx	 edx, al
  00e3a	85 d2		 test	 edx, edx
  00e3c	74 33		 je	 SHORT $L189928

; 188  : 		{
; 189  : 			og = *it1;

  00e3e	8d 4d e8	 lea	 ecx, DWORD PTR _it1$[ebp]
  00e41	e8 00 00 00 00	 call	 ??Diterator@?$vector@UOneLocalGame@@V?$allocator@UOneLocalGame@@@std@@@std@@QBEAAUOneLocalGame@@XZ ; std::vector<OneLocalGame,std::allocator<OneLocalGame> >::iterator::operator*
  00e46	50		 push	 eax
  00e47	8b 4d 24	 mov	 ecx, DWORD PTR _og$[ebp]
  00e4a	e8 00 00 00 00	 call	 ??4OneLocalGame@@QAEAAU0@ABU0@@Z

; 190  : 			return true;

  00e4f	c6 45 d7 01	 mov	 BYTE PTR $T192580[ebp], 1
  00e53	c7 45 fc ff ff
	ff ff		 mov	 DWORD PTR __$EHRec$[ebp+8], -1
  00e5a	8b f4		 mov	 esi, esp
  00e5c	8d 4d 08	 lea	 ecx, DWORD PTR _strID$[ebp]
  00e5f	ff 15 00 00 00
	00		 call	 DWORD PTR __imp_??1?$basic_string@DU?$char_traits@D@std@@V?$allocator@D@2@@std@@QAE@XZ
  00e65	3b f4		 cmp	 esi, esp
  00e67	e8 00 00 00 00	 call	 __RTC_CheckEsp
  00e6c	8a 45 d7	 mov	 al, BYTE PTR $T192580[ebp]
  00e6f	eb 65		 jmp	 SHORT $L189917
$L189928:

; 191  : 		}else
; 192  : 		{
; 193  : 			m_vecGame.erase( it1 );

  00e71	8b 45 e8	 mov	 eax, DWORD PTR _it1$[ebp]
  00e74	50		 push	 eax
  00e75	8d 4d d0	 lea	 ecx, DWORD PTR $T192581[ebp]
  00e78	51		 push	 ecx
  00e79	8b 4d f0	 mov	 ecx, DWORD PTR _this$[ebp]
  00e7c	83 c1 04	 add	 ecx, 4
  00e7f	e8 00 00 00 00	 call	 ?erase@?$vector@UOneLocalGame@@V?$allocator@UOneLocalGame@@@std@@@std@@QAE?AViterator@12@V312@@Z ; std::vector<OneLocalGame,std::allocator<OneLocalGame> >::erase

; 194  : 			og.clear();

  00e84	8b 4d 24	 mov	 ecx, DWORD PTR _og$[ebp]
  00e87	e8 00 00 00 00	 call	 ?clear@OneLocalGame@@QAEXXZ ; OneLocalGame::clear

; 195  : 			return false;

  00e8c	c6 45 cf 00	 mov	 BYTE PTR $T192582[ebp], 0
  00e90	c7 45 fc ff ff
	ff ff		 mov	 DWORD PTR __$EHRec$[ebp+8], -1
  00e97	8b f4		 mov	 esi, esp
  00e99	8d 4d 08	 lea	 ecx, DWORD PTR _strID$[ebp]
  00e9c	ff 15 00 00 00
	00		 call	 DWORD PTR __imp_??1?$basic_string@DU?$char_traits@D@std@@V?$allocator@D@2@@std@@QAE@XZ
  00ea2	3b f4		 cmp	 esi, esp
  00ea4	e8 00 00 00 00	 call	 __RTC_CheckEsp
  00ea9	8a 45 cf	 mov	 al, BYTE PTR $T192582[ebp]
  00eac	eb 28		 jmp	 SHORT $L189917
$L189927:

; 196  : 		}
; 197  : 	}else
; 198  : 	{
; 199  : 		og.clear();

  00eae	8b 4d 24	 mov	 ecx, DWORD PTR _og$[ebp]
  00eb1	e8 00 00 00 00	 call	 ?clear@OneLocalGame@@QAEXXZ ; OneLocalGame::clear

; 200  : 		return false;

  00eb6	c6 45 ce 00	 mov	 BYTE PTR $T192583[ebp], 0
  00eba	c7 45 fc ff ff
	ff ff		 mov	 DWORD PTR __$EHRec$[ebp+8], -1
  00ec1	8b f4		 mov	 esi, esp
  00ec3	8d 4d 08	 lea	 ecx, DWORD PTR _strID$[ebp]
  00ec6	ff 15 00 00 00
	00		 call	 DWORD PTR __imp_??1?$basic_string@DU?$char_traits@D@std@@V?$allocator@D@2@@std@@QAE@XZ
  00ecc	3b f4		 cmp	 esi, esp
  00ece	e8 00 00 00 00	 call	 __RTC_CheckEsp
  00ed3	8a 45 ce	 mov	 al, BYTE PTR $T192583[ebp]
$L189917:

; 201  : 	}
; 202  : }

  00ed6	52		 push	 edx
  00ed7	8b cd		 mov	 ecx, ebp
  00ed9	50		 push	 eax
  00eda	8d 15 00 00 00
	00		 lea	 edx, DWORD PTR $L192590
  00ee0	e8 00 00 00 00	 call	 @_RTC_CheckStackVars@8
  00ee5	58		 pop	 eax
  00ee6	5a		 pop	 edx
  00ee7	8b 4d f4	 mov	 ecx, DWORD PTR __$EHRec$[ebp]
  00eea	64 89 0d 00 00
	00 00		 mov	 DWORD PTR fs:__except_list, ecx
  00ef1	5f		 pop	 edi
  00ef2	5e		 pop	 esi
  00ef3	83 c4 34	 add	 esp, 52			; 00000034H
  00ef6	3b ec		 cmp	 ebp, esp
  00ef8	e8 00 00 00 00	 call	 __RTC_CheckEsp
  00efd	8b e5		 mov	 esp, ebp
  00eff	5d		 pop	 ebp
  00f00	c2 20 00	 ret	 32			; 00000020H
$L192590:
  00f03	01 00 00 00	 DD	 1
  00f07	00 00 00 00	 DD	 $L192589
$L192589:
  00f0b	e8 ff ff ff	 DD	 -24			; ffffffe8H
  00f0f	04 00 00 00	 DD	 4
  00f13	00 00 00 00	 DD	 $L192587
$L192587:
  00f17	69		 DB	 105			; 00000069H
  00f18	74		 DB	 116			; 00000074H
  00f19	31		 DB	 49			; 00000031H
  00f1a	00		 DB	 0
_TEXT	ENDS
text$x	SEGMENT
$L192584:
  001c2	8b f4		 mov	 esi, esp
  001c4	8d 4d 08	 lea	 ecx, DWORD PTR _strID$[ebp]
  001c7	ff 15 00 00 00
	00		 call	 DWORD PTR __imp_??1?$basic_string@DU?$char_traits@D@std@@V?$allocator@D@2@@std@@QAE@XZ
  001cd	3b f4		 cmp	 esi, esp
  001cf	e9 00 00 00 00	 jmp	 __RTC_CheckEsp
__ehhandler$?ILocalGameData_GetGameByID@LocalGameData@@UAE_NV?$basic_string@DU?$char_traits@D@std@@V?$allocator@D@2@@std@@AAUOneLocalGame@@@Z:
  001d4	b8 00 00 00 00	 mov	 eax, OFFSET FLAT:$T192586
  001d9	e9 00 00 00 00	 jmp	 ___CxxFrameHandler
text$x	ENDS
?ILocalGameData_GetGameByID@LocalGameData@@UAE_NV?$basic_string@DU?$char_traits@D@std@@V?$allocator@D@2@@std@@AAUOneLocalGame@@@Z ENDP ; LocalGameData::ILocalGameData_GetGameByID
EXTRN	__imp_??4?$basic_string@DU?$char_traits@D@std@@V?$allocator@D@2@@std@@QAEAAV01@ABV01@@Z:NEAR
; Function compile flags: /Odt /RTCsu
;	COMDAT ??4OneLocalGame@@QAEAAU0@ABU0@@Z
_TEXT	SEGMENT
_this$ = -4						; size = 4
___that$ = 8						; size = 4
??4OneLocalGame@@QAEAAU0@ABU0@@Z PROC NEAR		; OneLocalGame::operator=, COMDAT
; _this$ = ecx
  00000	55		 push	 ebp
  00001	8b ec		 mov	 ebp, esp
  00003	51		 push	 ecx
  00004	56		 push	 esi
  00005	c7 45 fc cc cc
	cc cc		 mov	 DWORD PTR [ebp-4], -858993460 ; ccccccccH
  0000c	89 4d fc	 mov	 DWORD PTR _this$[ebp], ecx
  0000f	8b f4		 mov	 esi, esp
  00011	8b 45 08	 mov	 eax, DWORD PTR ___that$[ebp]
  00014	50		 push	 eax
  00015	8b 4d fc	 mov	 ecx, DWORD PTR _this$[ebp]
  00018	ff 15 00 00 00
	00		 call	 DWORD PTR __imp_??4?$basic_string@DU?$char_traits@D@std@@V?$allocator@D@2@@std@@QAEAAV01@ABV01@@Z
  0001e	3b f4		 cmp	 esi, esp
  00020	e8 00 00 00 00	 call	 __RTC_CheckEsp
  00025	8b 4d 08	 mov	 ecx, DWORD PTR ___that$[ebp]
  00028	83 c1 1c	 add	 ecx, 28			; 0000001cH
  0002b	8b f4		 mov	 esi, esp
  0002d	51		 push	 ecx
  0002e	8b 4d fc	 mov	 ecx, DWORD PTR _this$[ebp]
  00031	83 c1 1c	 add	 ecx, 28			; 0000001cH
  00034	ff 15 00 00 00
	00		 call	 DWORD PTR __imp_??4?$basic_string@DU?$char_traits@D@std@@V?$allocator@D@2@@std@@QAEAAV01@ABV01@@Z
  0003a	3b f4		 cmp	 esi, esp
  0003c	e8 00 00 00 00	 call	 __RTC_CheckEsp
  00041	8b 55 08	 mov	 edx, DWORD PTR ___that$[ebp]
  00044	83 c2 38	 add	 edx, 56			; 00000038H
  00047	8b f4		 mov	 esi, esp
  00049	52		 push	 edx
  0004a	8b 4d fc	 mov	 ecx, DWORD PTR _this$[ebp]
  0004d	83 c1 38	 add	 ecx, 56			; 00000038H
  00050	ff 15 00 00 00
	00		 call	 DWORD PTR __imp_??4?$basic_string@DU?$char_traits@D@std@@V?$allocator@D@2@@std@@QAEAAV01@ABV01@@Z
  00056	3b f4		 cmp	 esi, esp
  00058	e8 00 00 00 00	 call	 __RTC_CheckEsp
  0005d	8b 45 08	 mov	 eax, DWORD PTR ___that$[ebp]
  00060	83 c0 54	 add	 eax, 84			; 00000054H
  00063	8b f4		 mov	 esi, esp
  00065	50		 push	 eax
  00066	8b 4d fc	 mov	 ecx, DWORD PTR _this$[ebp]
  00069	83 c1 54	 add	 ecx, 84			; 00000054H
  0006c	ff 15 00 00 00
	00		 call	 DWORD PTR __imp_??4?$basic_string@DU?$char_traits@D@std@@V?$allocator@D@2@@std@@QAEAAV01@ABV01@@Z
  00072	3b f4		 cmp	 esi, esp
  00074	e8 00 00 00 00	 call	 __RTC_CheckEsp
  00079	8b 4d 08	 mov	 ecx, DWORD PTR ___that$[ebp]
  0007c	83 c1 70	 add	 ecx, 112		; 00000070H
  0007f	8b f4		 mov	 esi, esp
  00081	51		 push	 ecx
  00082	8b 4d fc	 mov	 ecx, DWORD PTR _this$[ebp]
  00085	83 c1 70	 add	 ecx, 112		; 00000070H
  00088	ff 15 00 00 00
	00		 call	 DWORD PTR __imp_??4?$basic_string@DU?$char_traits@D@std@@V?$allocator@D@2@@std@@QAEAAV01@ABV01@@Z
  0008e	3b f4		 cmp	 esi, esp
  00090	e8 00 00 00 00	 call	 __RTC_CheckEsp
  00095	8b 55 fc	 mov	 edx, DWORD PTR _this$[ebp]
  00098	8b 45 08	 mov	 eax, DWORD PTR ___that$[ebp]
  0009b	8b 88 8c 00 00
	00		 mov	 ecx, DWORD PTR [eax+140]
  000a1	89 8a 8c 00 00
	00		 mov	 DWORD PTR [edx+140], ecx
  000a7	8b 45 fc	 mov	 eax, DWORD PTR _this$[ebp]
  000aa	5e		 pop	 esi
  000ab	83 c4 04	 add	 esp, 4
  000ae	3b ec		 cmp	 ebp, esp
  000b0	e8 00 00 00 00	 call	 __RTC_CheckEsp
  000b5	8b e5		 mov	 esp, ebp
  000b7	5d		 pop	 ebp
  000b8	c2 04 00	 ret	 4
??4OneLocalGame@@QAEAAU0@ABU0@@Z ENDP			; OneLocalGame::operator=
_TEXT	ENDS
PUBLIC	?NotifyQQItemCountChange@LocalGameData@@AAEXXZ	; LocalGameData::NotifyQQItemCountChange
EXTRN	?GetFileSize@YL_FileInfo@@SA_NPBDPAI1@Z:NEAR	; YL_FileInfo::GetFileSize
xdata$x	SEGMENT
$T192615 DD	0ffffffffH
	DD	FLAT:$L192600
	DD	00H
	DD	FLAT:$L192601
	DD	01H
	DD	FLAT:$L192602
	DD	02H
	DD	FLAT:$L192603
	DD	03H
	DD	FLAT:$L192604
	DD	04H
	DD	FLAT:$L192605
	DD	05H
	DD	FLAT:$L192606
$T192608 DD	019930520H
	DD	07H
	DD	FLAT:$T192615
	DD	2 DUP(00H)
	DD	2 DUP(00H)
; Function compile flags: /Odt /RTCsu
xdata$x	ENDS
_TEXT	SEGMENT
$T192599 = -198						; size = 1
$T192598 = -197						; size = 1
$T192597 = -196						; size = 4
$T192596 = -192						; size = 4
$T192595 = -188						; size = 4
_olg$ = -180						; size = 144
_it1$ = -28						; size = 4
_this$ = -20						; size = 4
__$ArrayPad$ = -16					; size = 4
__$EHRec$ = -12						; size = 12
__$ReturnAddr$ = 4					; size = 4
_strID$ = 8						; size = 28
_strName$ = 36						; size = 28
_strPicPath$ = 64					; size = 28
_strSwfPath$ = 92					; size = 28
_strIntro$ = 120					; size = 28
_type$ = 148						; size = 4
_strMD5$ = 152						; size = 28
?ILocalGameData_AddGame@LocalGameData@@UAE_NV?$basic_string@DU?$char_traits@D@std@@V?$allocator@D@2@@std@@0000I0@Z PROC NEAR ; LocalGameData::ILocalGameData_AddGame
; _this$ = ecx

; 206  : {

  00f20	55		 push	 ebp
  00f21	8b ec		 mov	 ebp, esp
  00f23	6a ff		 push	 -1
  00f25	68 00 00 00 00	 push	 __ehhandler$?ILocalGameData_AddGame@LocalGameData@@UAE_NV?$basic_string@DU?$char_traits@D@std@@V?$allocator@D@2@@std@@0000I0@Z
  00f2a	64 a1 00 00 00
	00		 mov	 eax, DWORD PTR fs:__except_list
  00f30	50		 push	 eax
  00f31	64 89 25 00 00
	00 00		 mov	 DWORD PTR fs:__except_list, esp
  00f38	81 ec bc 00 00
	00		 sub	 esp, 188		; 000000bcH
  00f3e	56		 push	 esi
  00f3f	57		 push	 edi
  00f40	51		 push	 ecx
  00f41	8d bd 38 ff ff
	ff		 lea	 edi, DWORD PTR [ebp-200]
  00f47	b9 2f 00 00 00	 mov	 ecx, 47			; 0000002fH
  00f4c	b8 cc cc cc cc	 mov	 eax, -858993460		; ccccccccH
  00f51	f3 ab		 rep stosd
  00f53	59		 pop	 ecx
  00f54	a1 00 00 00 00	 mov	 eax, DWORD PTR ___security_cookie
  00f59	89 45 f0	 mov	 DWORD PTR __$ArrayPad$[ebp], eax
  00f5c	89 4d ec	 mov	 DWORD PTR _this$[ebp], ecx
  00f5f	c7 45 fc 05 00
	00 00		 mov	 DWORD PTR __$EHRec$[ebp+8], 5

; 207  : 	//
; 208  : 	LocalGameList::iterator it1 = m_vecGame.begin();

  00f66	8d 45 e4	 lea	 eax, DWORD PTR _it1$[ebp]
  00f69	50		 push	 eax
  00f6a	8b 4d ec	 mov	 ecx, DWORD PTR _this$[ebp]
  00f6d	83 c1 04	 add	 ecx, 4
  00f70	e8 00 00 00 00	 call	 ?begin@?$vector@UOneLocalGame@@V?$allocator@UOneLocalGame@@@std@@@std@@QAE?AViterator@12@XZ ; std::vector<OneLocalGame,std::allocator<OneLocalGame> >::begin

; 209  : 	for( ; it1 != m_vecGame.end(); it1 ++ )

  00f75	eb 11		 jmp	 SHORT $L189952
$L189953:
  00f77	6a 00		 push	 0
  00f79	8d 8d 44 ff ff
	ff		 lea	 ecx, DWORD PTR $T192595[ebp]
  00f7f	51		 push	 ecx
  00f80	8d 4d e4	 lea	 ecx, DWORD PTR _it1$[ebp]
  00f83	e8 00 00 00 00	 call	 ??Eiterator@?$vector@UOneLocalGame@@V?$allocator@UOneLocalGame@@@std@@@std@@QAE?AV012@H@Z ; std::vector<OneLocalGame,std::allocator<OneLocalGame> >::iterator::operator++
$L189952:
  00f88	8d 95 40 ff ff
	ff		 lea	 edx, DWORD PTR $T192596[ebp]
  00f8e	52		 push	 edx
  00f8f	8b 4d ec	 mov	 ecx, DWORD PTR _this$[ebp]
  00f92	83 c1 04	 add	 ecx, 4
  00f95	e8 00 00 00 00	 call	 ?end@?$vector@UOneLocalGame@@V?$allocator@UOneLocalGame@@@std@@@std@@QAE?AViterator@12@XZ ; std::vector<OneLocalGame,std::allocator<OneLocalGame> >::end
  00f9a	50		 push	 eax
  00f9b	8d 4d e4	 lea	 ecx, DWORD PTR _it1$[ebp]
  00f9e	e8 00 00 00 00	 call	 ??9const_iterator@?$vector@UOneLocalGame@@V?$allocator@UOneLocalGame@@@std@@@std@@QBE_NABV012@@Z ; std::vector<OneLocalGame,std::allocator<OneLocalGame> >::const_iterator::operator!=
  00fa3	0f b6 c0	 movzx	 eax, al
  00fa6	85 c0		 test	 eax, eax
  00fa8	74 2a		 je	 SHORT $L189954

; 210  : 	{
; 211  : 		if( strID == it1->strID)

  00faa	8d 4d e4	 lea	 ecx, DWORD PTR _it1$[ebp]
  00fad	e8 00 00 00 00	 call	 ??Citerator@?$vector@UOneLocalGame@@V?$allocator@UOneLocalGame@@@std@@@std@@QBEPAUOneLocalGame@@XZ ; std::vector<OneLocalGame,std::allocator<OneLocalGame> >::iterator::operator->
  00fb2	8b f4		 mov	 esi, esp
  00fb4	50		 push	 eax
  00fb5	8d 4d 08	 lea	 ecx, DWORD PTR _strID$[ebp]
  00fb8	51		 push	 ecx
  00fb9	ff 15 00 00 00
	00		 call	 DWORD PTR __imp_??$?8DU?$char_traits@D@std@@V?$allocator@D@1@@std@@YA_NABV?$basic_string@DU?$char_traits@D@std@@V?$allocator@D@2@@0@0@Z
  00fbf	83 c4 08	 add	 esp, 8
  00fc2	3b f4		 cmp	 esi, esp
  00fc4	e8 00 00 00 00	 call	 __RTC_CheckEsp
  00fc9	0f b6 d0	 movzx	 edx, al
  00fcc	85 d2		 test	 edx, edx
  00fce	74 02		 je	 SHORT $L189955

; 212  : 		{
; 213  : 			break;

  00fd0	eb 02		 jmp	 SHORT $L189954
$L189955:

; 214  : 		}
; 215  : 	}

  00fd2	eb a3		 jmp	 SHORT $L189953
$L189954:

; 216  : 	if( it1 != m_vecGame.end() )

  00fd4	8d 85 3c ff ff
	ff		 lea	 eax, DWORD PTR $T192597[ebp]
  00fda	50		 push	 eax
  00fdb	8b 4d ec	 mov	 ecx, DWORD PTR _this$[ebp]
  00fde	83 c1 04	 add	 ecx, 4
  00fe1	e8 00 00 00 00	 call	 ?end@?$vector@UOneLocalGame@@V?$allocator@UOneLocalGame@@@std@@@std@@QAE?AViterator@12@XZ ; std::vector<OneLocalGame,std::allocator<OneLocalGame> >::end
  00fe6	50		 push	 eax
  00fe7	8d 4d e4	 lea	 ecx, DWORD PTR _it1$[ebp]
  00fea	e8 00 00 00 00	 call	 ??9const_iterator@?$vector@UOneLocalGame@@V?$allocator@UOneLocalGame@@@std@@@std@@QBE_NABV012@@Z ; std::vector<OneLocalGame,std::allocator<OneLocalGame> >::const_iterator::operator!=
  00fef	0f b6 c8	 movzx	 ecx, al
  00ff2	85 c9		 test	 ecx, ecx
  00ff4	0f 84 9c 00 00
	00		 je	 $L189957

; 217  : 	{
; 218  : 		return false;

  00ffa	c6 85 3b ff ff
	ff 00		 mov	 BYTE PTR $T192598[ebp], 0
  01001	c6 45 fc 04	 mov	 BYTE PTR __$EHRec$[ebp+8], 4
  01005	8b f4		 mov	 esi, esp
  01007	8d 4d 08	 lea	 ecx, DWORD PTR _strID$[ebp]
  0100a	ff 15 00 00 00
	00		 call	 DWORD PTR __imp_??1?$basic_string@DU?$char_traits@D@std@@V?$allocator@D@2@@std@@QAE@XZ
  01010	3b f4		 cmp	 esi, esp
  01012	e8 00 00 00 00	 call	 __RTC_CheckEsp
  01017	c6 45 fc 03	 mov	 BYTE PTR __$EHRec$[ebp+8], 3
  0101b	8b f4		 mov	 esi, esp
  0101d	8d 4d 24	 lea	 ecx, DWORD PTR _strName$[ebp]
  01020	ff 15 00 00 00
	00		 call	 DWORD PTR __imp_??1?$basic_string@DU?$char_traits@D@std@@V?$allocator@D@2@@std@@QAE@XZ
  01026	3b f4		 cmp	 esi, esp
  01028	e8 00 00 00 00	 call	 __RTC_CheckEsp
  0102d	c6 45 fc 02	 mov	 BYTE PTR __$EHRec$[ebp+8], 2
  01031	8b f4		 mov	 esi, esp
  01033	8d 4d 40	 lea	 ecx, DWORD PTR _strPicPath$[ebp]
  01036	ff 15 00 00 00
	00		 call	 DWORD PTR __imp_??1?$basic_string@DU?$char_traits@D@std@@V?$allocator@D@2@@std@@QAE@XZ
  0103c	3b f4		 cmp	 esi, esp
  0103e	e8 00 00 00 00	 call	 __RTC_CheckEsp
  01043	c6 45 fc 01	 mov	 BYTE PTR __$EHRec$[ebp+8], 1
  01047	8b f4		 mov	 esi, esp
  01049	8d 4d 5c	 lea	 ecx, DWORD PTR _strSwfPath$[ebp]
  0104c	ff 15 00 00 00
	00		 call	 DWORD PTR __imp_??1?$basic_string@DU?$char_traits@D@std@@V?$allocator@D@2@@std@@QAE@XZ
  01052	3b f4		 cmp	 esi, esp
  01054	e8 00 00 00 00	 call	 __RTC_CheckEsp
  01059	c6 45 fc 00	 mov	 BYTE PTR __$EHRec$[ebp+8], 0
  0105d	8b f4		 mov	 esi, esp
  0105f	8d 4d 78	 lea	 ecx, DWORD PTR _strIntro$[ebp]
  01062	ff 15 00 00 00
	00		 call	 DWORD PTR __imp_??1?$basic_string@DU?$char_traits@D@std@@V?$allocator@D@2@@std@@QAE@XZ
  01068	3b f4		 cmp	 esi, esp
  0106a	e8 00 00 00 00	 call	 __RTC_CheckEsp
  0106f	c7 45 fc ff ff
	ff ff		 mov	 DWORD PTR __$EHRec$[ebp+8], -1
  01076	8b f4		 mov	 esi, esp
  01078	8d 8d 98 00 00
	00		 lea	 ecx, DWORD PTR _strMD5$[ebp]
  0107e	ff 15 00 00 00
	00		 call	 DWORD PTR __imp_??1?$basic_string@DU?$char_traits@D@std@@V?$allocator@D@2@@std@@QAE@XZ
  01084	3b f4		 cmp	 esi, esp
  01086	e8 00 00 00 00	 call	 __RTC_CheckEsp
  0108b	8a 85 3b ff ff
	ff		 mov	 al, BYTE PTR $T192598[ebp]
  01091	e9 64 01 00 00	 jmp	 $L189947
$L189957:

; 219  : 	}
; 220  : 	//
; 221  : 	OneLocalGame olg;

  01096	8d 8d 4c ff ff
	ff		 lea	 ecx, DWORD PTR _olg$[ebp]
  0109c	e8 00 00 00 00	 call	 ??0OneLocalGame@@QAE@XZ	; OneLocalGame::OneLocalGame
  010a1	c6 45 fc 06	 mov	 BYTE PTR __$EHRec$[ebp+8], 6

; 222  : 	olg.strID = strID;

  010a5	8b f4		 mov	 esi, esp
  010a7	8d 55 08	 lea	 edx, DWORD PTR _strID$[ebp]
  010aa	52		 push	 edx
  010ab	8d 8d 4c ff ff
	ff		 lea	 ecx, DWORD PTR _olg$[ebp]
  010b1	ff 15 00 00 00
	00		 call	 DWORD PTR __imp_??4?$basic_string@DU?$char_traits@D@std@@V?$allocator@D@2@@std@@QAEAAV01@ABV01@@Z
  010b7	3b f4		 cmp	 esi, esp
  010b9	e8 00 00 00 00	 call	 __RTC_CheckEsp

; 223  : 	olg.strName = strName;

  010be	8b f4		 mov	 esi, esp
  010c0	8d 45 24	 lea	 eax, DWORD PTR _strName$[ebp]
  010c3	50		 push	 eax
  010c4	8d 8d 68 ff ff
	ff		 lea	 ecx, DWORD PTR _olg$[ebp+28]
  010ca	ff 15 00 00 00
	00		 call	 DWORD PTR __imp_??4?$basic_string@DU?$char_traits@D@std@@V?$allocator@D@2@@std@@QAEAAV01@ABV01@@Z
  010d0	3b f4		 cmp	 esi, esp
  010d2	e8 00 00 00 00	 call	 __RTC_CheckEsp

; 224  : 	olg.strGamePath = strSwfPath;

  010d7	8b f4		 mov	 esi, esp
  010d9	8d 4d 5c	 lea	 ecx, DWORD PTR _strSwfPath$[ebp]
  010dc	51		 push	 ecx
  010dd	8d 4d 84	 lea	 ecx, DWORD PTR _olg$[ebp+56]
  010e0	ff 15 00 00 00
	00		 call	 DWORD PTR __imp_??4?$basic_string@DU?$char_traits@D@std@@V?$allocator@D@2@@std@@QAEAAV01@ABV01@@Z
  010e6	3b f4		 cmp	 esi, esp
  010e8	e8 00 00 00 00	 call	 __RTC_CheckEsp

; 225  : 	olg.strIntro = strIntro;

  010ed	8b f4		 mov	 esi, esp
  010ef	8d 55 78	 lea	 edx, DWORD PTR _strIntro$[ebp]
  010f2	52		 push	 edx
  010f3	8d 4d bc	 lea	 ecx, DWORD PTR _olg$[ebp+112]
  010f6	ff 15 00 00 00
	00		 call	 DWORD PTR __imp_??4?$basic_string@DU?$char_traits@D@std@@V?$allocator@D@2@@std@@QAEAAV01@ABV01@@Z
  010fc	3b f4		 cmp	 esi, esp
  010fe	e8 00 00 00 00	 call	 __RTC_CheckEsp

; 226  : 	YL_FileInfo::GetFileSize( olg.strGamePath.c_str(), &(olg.uiFileSize) );

  01103	6a 00		 push	 0
  01105	8d 45 d8	 lea	 eax, DWORD PTR _olg$[ebp+140]
  01108	50		 push	 eax
  01109	8b f4		 mov	 esi, esp
  0110b	8d 4d 84	 lea	 ecx, DWORD PTR _olg$[ebp+56]
  0110e	ff 15 00 00 00
	00		 call	 DWORD PTR __imp_?c_str@?$basic_string@DU?$char_traits@D@std@@V?$allocator@D@2@@std@@QBEPBDXZ
  01114	3b f4		 cmp	 esi, esp
  01116	e8 00 00 00 00	 call	 __RTC_CheckEsp
  0111b	50		 push	 eax
  0111c	e8 00 00 00 00	 call	 ?GetFileSize@YL_FileInfo@@SA_NPBDPAI1@Z ; YL_FileInfo::GetFileSize
  01121	83 c4 0c	 add	 esp, 12			; 0000000cH

; 227  : 	olg.strPicPath  = strPicPath;	//

  01124	8b f4		 mov	 esi, esp
  01126	8d 4d 40	 lea	 ecx, DWORD PTR _strPicPath$[ebp]
  01129	51		 push	 ecx
  0112a	8d 4d a0	 lea	 ecx, DWORD PTR _olg$[ebp+84]
  0112d	ff 15 00 00 00
	00		 call	 DWORD PTR __imp_??4?$basic_string@DU?$char_traits@D@std@@V?$allocator@D@2@@std@@QAEAAV01@ABV01@@Z
  01133	3b f4		 cmp	 esi, esp
  01135	e8 00 00 00 00	 call	 __RTC_CheckEsp

; 228  : 
; 229  : 	m_vecGame.push_back( olg );

  0113a	8d 95 4c ff ff
	ff		 lea	 edx, DWORD PTR _olg$[ebp]
  01140	52		 push	 edx
  01141	8b 4d ec	 mov	 ecx, DWORD PTR _this$[ebp]
  01144	83 c1 04	 add	 ecx, 4
  01147	e8 00 00 00 00	 call	 ?push_back@?$vector@UOneLocalGame@@V?$allocator@UOneLocalGame@@@std@@@std@@QAEXABUOneLocalGame@@@Z ; std::vector<OneLocalGame,std::allocator<OneLocalGame> >::push_back

; 230  : 	NotifyQQItemCountChange();

  0114c	8b 4d ec	 mov	 ecx, DWORD PTR _this$[ebp]
  0114f	e8 00 00 00 00	 call	 ?NotifyQQItemCountChange@LocalGameData@@AAEXXZ ; LocalGameData::NotifyQQItemCountChange

; 231  : 	return true;

  01154	c6 85 3a ff ff
	ff 01		 mov	 BYTE PTR $T192599[ebp], 1
  0115b	c6 45 fc 05	 mov	 BYTE PTR __$EHRec$[ebp+8], 5
  0115f	8d 8d 4c ff ff
	ff		 lea	 ecx, DWORD PTR _olg$[ebp]
  01165	e8 00 00 00 00	 call	 ??1OneLocalGame@@QAE@XZ
  0116a	c6 45 fc 04	 mov	 BYTE PTR __$EHRec$[ebp+8], 4
  0116e	8b f4		 mov	 esi, esp
  01170	8d 4d 08	 lea	 ecx, DWORD PTR _strID$[ebp]
  01173	ff 15 00 00 00
	00		 call	 DWORD PTR __imp_??1?$basic_string@DU?$char_traits@D@std@@V?$allocator@D@2@@std@@QAE@XZ
  01179	3b f4		 cmp	 esi, esp
  0117b	e8 00 00 00 00	 call	 __RTC_CheckEsp
  01180	c6 45 fc 03	 mov	 BYTE PTR __$EHRec$[ebp+8], 3
  01184	8b f4		 mov	 esi, esp
  01186	8d 4d 24	 lea	 ecx, DWORD PTR _strName$[ebp]
  01189	ff 15 00 00 00
	00		 call	 DWORD PTR __imp_??1?$basic_string@DU?$char_traits@D@std@@V?$allocator@D@2@@std@@QAE@XZ
  0118f	3b f4		 cmp	 esi, esp
  01191	e8 00 00 00 00	 call	 __RTC_CheckEsp
  01196	c6 45 fc 02	 mov	 BYTE PTR __$EHRec$[ebp+8], 2
  0119a	8b f4		 mov	 esi, esp
  0119c	8d 4d 40	 lea	 ecx, DWORD PTR _strPicPath$[ebp]
  0119f	ff 15 00 00 00
	00		 call	 DWORD PTR __imp_??1?$basic_string@DU?$char_traits@D@std@@V?$allocator@D@2@@std@@QAE@XZ
  011a5	3b f4		 cmp	 esi, esp
  011a7	e8 00 00 00 00	 call	 __RTC_CheckEsp
  011ac	c6 45 fc 01	 mov	 BYTE PTR __$EHRec$[ebp+8], 1
  011b0	8b f4		 mov	 esi, esp
  011b2	8d 4d 5c	 lea	 ecx, DWORD PTR _strSwfPath$[ebp]
  011b5	ff 15 00 00 00
	00		 call	 DWORD PTR __imp_??1?$basic_string@DU?$char_traits@D@std@@V?$allocator@D@2@@std@@QAE@XZ
  011bb	3b f4		 cmp	 esi, esp
  011bd	e8 00 00 00 00	 call	 __RTC_CheckEsp
  011c2	c6 45 fc 00	 mov	 BYTE PTR __$EHRec$[ebp+8], 0
  011c6	8b f4		 mov	 esi, esp
  011c8	8d 4d 78	 lea	 ecx, DWORD PTR _strIntro$[ebp]
  011cb	ff 15 00 00 00
	00		 call	 DWORD PTR __imp_??1?$basic_string@DU?$char_traits@D@std@@V?$allocator@D@2@@std@@QAE@XZ
  011d1	3b f4		 cmp	 esi, esp
  011d3	e8 00 00 00 00	 call	 __RTC_CheckEsp
  011d8	c7 45 fc ff ff
	ff ff		 mov	 DWORD PTR __$EHRec$[ebp+8], -1
  011df	8b f4		 mov	 esi, esp
  011e1	8d 8d 98 00 00
	00		 lea	 ecx, DWORD PTR _strMD5$[ebp]
  011e7	ff 15 00 00 00
	00		 call	 DWORD PTR __imp_??1?$basic_string@DU?$char_traits@D@std@@V?$allocator@D@2@@std@@QAE@XZ
  011ed	3b f4		 cmp	 esi, esp
  011ef	e8 00 00 00 00	 call	 __RTC_CheckEsp
  011f4	8a 85 3a ff ff
	ff		 mov	 al, BYTE PTR $T192599[ebp]
$L189947:

; 232  : }

  011fa	52		 push	 edx
  011fb	8b cd		 mov	 ecx, ebp
  011fd	50		 push	 eax
  011fe	8d 15 00 00 00
	00		 lea	 edx, DWORD PTR $L192614
  01204	e8 00 00 00 00	 call	 @_RTC_CheckStackVars@8
  01209	58		 pop	 eax
  0120a	5a		 pop	 edx
  0120b	8b 4d f4	 mov	 ecx, DWORD PTR __$EHRec$[ebp]
  0120e	64 89 0d 00 00
	00 00		 mov	 DWORD PTR fs:__except_list, ecx
  01215	8b 4d f0	 mov	 ecx, DWORD PTR __$ArrayPad$[ebp]
  01218	e8 00 00 00 00	 call	 @__security_check_cookie@4
  0121d	5f		 pop	 edi
  0121e	5e		 pop	 esi
  0121f	81 c4 c8 00 00
	00		 add	 esp, 200		; 000000c8H
  01225	3b ec		 cmp	 ebp, esp
  01227	e8 00 00 00 00	 call	 __RTC_CheckEsp
  0122c	8b e5		 mov	 esp, ebp
  0122e	5d		 pop	 ebp
  0122f	c2 ac 00	 ret	 172			; 000000acH
$L192614:
  01232	02 00 00 00	 DD	 2
  01236	00 00 00 00	 DD	 $L192613
$L192613:
  0123a	e4 ff ff ff	 DD	 -28			; ffffffe4H
  0123e	04 00 00 00	 DD	 4
  01242	00 00 00 00	 DD	 $L192609
  01246	4c ff ff ff	 DD	 -180			; ffffff4cH
  0124a	90 00 00 00	 DD	 144			; 00000090H
  0124e	00 00 00 00	 DD	 $L192610
$L192610:
  01252	6f		 DB	 111			; 0000006fH
  01253	6c		 DB	 108			; 0000006cH
  01254	67		 DB	 103			; 00000067H
  01255	00		 DB	 0
$L192609:
  01256	69		 DB	 105			; 00000069H
  01257	74		 DB	 116			; 00000074H
  01258	31		 DB	 49			; 00000031H
  01259	00		 DB	 0
_TEXT	ENDS
text$x	SEGMENT
$L192600:
  001de	8b f4		 mov	 esi, esp
  001e0	8d 8d 98 00 00
	00		 lea	 ecx, DWORD PTR _strMD5$[ebp]
  001e6	ff 15 00 00 00
	00		 call	 DWORD PTR __imp_??1?$basic_string@DU?$char_traits@D@std@@V?$allocator@D@2@@std@@QAE@XZ
  001ec	3b f4		 cmp	 esi, esp
  001ee	e9 00 00 00 00	 jmp	 __RTC_CheckEsp
$L192601:
  001f3	8b f4		 mov	 esi, esp
  001f5	8d 4d 78	 lea	 ecx, DWORD PTR _strIntro$[ebp]
  001f8	ff 15 00 00 00
	00		 call	 DWORD PTR __imp_??1?$basic_string@DU?$char_traits@D@std@@V?$allocator@D@2@@std@@QAE@XZ
  001fe	3b f4		 cmp	 esi, esp
  00200	e9 00 00 00 00	 jmp	 __RTC_CheckEsp
$L192602:
  00205	8b f4		 mov	 esi, esp
  00207	8d 4d 5c	 lea	 ecx, DWORD PTR _strSwfPath$[ebp]
  0020a	ff 15 00 00 00
	00		 call	 DWORD PTR __imp_??1?$basic_string@DU?$char_traits@D@std@@V?$allocator@D@2@@std@@QAE@XZ
  00210	3b f4		 cmp	 esi, esp
  00212	e9 00 00 00 00	 jmp	 __RTC_CheckEsp
$L192603:
  00217	8b f4		 mov	 esi, esp
  00219	8d 4d 40	 lea	 ecx, DWORD PTR _strPicPath$[ebp]
  0021c	ff 15 00 00 00
	00		 call	 DWORD PTR __imp_??1?$basic_string@DU?$char_traits@D@std@@V?$allocator@D@2@@std@@QAE@XZ
  00222	3b f4		 cmp	 esi, esp
  00224	e9 00 00 00 00	 jmp	 __RTC_CheckEsp
$L192604:
  00229	8b f4		 mov	 esi, esp
  0022b	8d 4d 24	 lea	 ecx, DWORD PTR _strName$[ebp]
  0022e	ff 15 00 00 00
	00		 call	 DWORD PTR __imp_??1?$basic_string@DU?$char_traits@D@std@@V?$allocator@D@2@@std@@QAE@XZ
  00234	3b f4		 cmp	 esi, esp
  00236	e9 00 00 00 00	 jmp	 __RTC_CheckEsp
$L192605:
  0023b	8b f4		 mov	 esi, esp
  0023d	8d 4d 08	 lea	 ecx, DWORD PTR _strID$[ebp]
  00240	ff 15 00 00 00
	00		 call	 DWORD PTR __imp_??1?$basic_string@DU?$char_traits@D@std@@V?$allocator@D@2@@std@@QAE@XZ
  00246	3b f4		 cmp	 esi, esp
  00248	e9 00 00 00 00	 jmp	 __RTC_CheckEsp
$L192606:
  0024d	8d 8d 4c ff ff
	ff		 lea	 ecx, DWORD PTR _olg$[ebp]
  00253	e9 00 00 00 00	 jmp	 ??1OneLocalGame@@QAE@XZ
__ehhandler$?ILocalGameData_AddGame@LocalGameData@@UAE_NV?$basic_string@DU?$char_traits@D@std@@V?$allocator@D@2@@std@@0000I0@Z:
  00258	b8 00 00 00 00	 mov	 eax, OFFSET FLAT:$T192608
  0025d	e9 00 00 00 00	 jmp	 ___CxxFrameHandler
text$x	ENDS
?ILocalGameData_AddGame@LocalGameData@@UAE_NV?$basic_string@DU?$char_traits@D@std@@V?$allocator@D@2@@std@@0000I0@Z ENDP ; LocalGameData::ILocalGameData_AddGame
EXTRN	__imp__DeleteFileA@4:NEAR
xdata$x	SEGMENT
$T192630 DD	0ffffffffH
	DD	FLAT:$L192623
$T192625 DD	019930520H
	DD	01H
	DD	FLAT:$T192630
	DD	2 DUP(00H)
	DD	2 DUP(00H)
; Function compile flags: /Odt /RTCsu
xdata$x	ENDS
_TEXT	SEGMENT
$T192622 = -46						; size = 1
$T192621 = -45						; size = 1
$T192620 = -44						; size = 4
$T192619 = -40						; size = 4
$T192618 = -36						; size = 4
$T192617 = -32						; size = 4
_it1$ = -24						; size = 4
_this$ = -16						; size = 4
__$EHRec$ = -12						; size = 12
_strID$ = 8						; size = 28
?ILocalGameData_DelGame@LocalGameData@@UAE_NV?$basic_string@DU?$char_traits@D@std@@V?$allocator@D@2@@std@@@Z PROC NEAR ; LocalGameData::ILocalGameData_DelGame
; _this$ = ecx

; 235  : {

  01260	55		 push	 ebp
  01261	8b ec		 mov	 ebp, esp
  01263	6a ff		 push	 -1
  01265	68 00 00 00 00	 push	 __ehhandler$?ILocalGameData_DelGame@LocalGameData@@UAE_NV?$basic_string@DU?$char_traits@D@std@@V?$allocator@D@2@@std@@@Z
  0126a	64 a1 00 00 00
	00		 mov	 eax, DWORD PTR fs:__except_list
  01270	50		 push	 eax
  01271	64 89 25 00 00
	00 00		 mov	 DWORD PTR fs:__except_list, esp
  01278	83 ec 24	 sub	 esp, 36			; 00000024H
  0127b	56		 push	 esi
  0127c	b8 cc cc cc cc	 mov	 eax, -858993460		; ccccccccH
  01281	89 45 d0	 mov	 DWORD PTR [ebp-48], eax
  01284	89 45 d4	 mov	 DWORD PTR [ebp-44], eax
  01287	89 45 d8	 mov	 DWORD PTR [ebp-40], eax
  0128a	89 45 dc	 mov	 DWORD PTR [ebp-36], eax
  0128d	89 45 e0	 mov	 DWORD PTR [ebp-32], eax
  01290	89 45 e4	 mov	 DWORD PTR [ebp-28], eax
  01293	89 45 e8	 mov	 DWORD PTR [ebp-24], eax
  01296	89 45 ec	 mov	 DWORD PTR [ebp-20], eax
  01299	89 45 f0	 mov	 DWORD PTR [ebp-16], eax
  0129c	89 4d f0	 mov	 DWORD PTR _this$[ebp], ecx
  0129f	c7 45 fc 00 00
	00 00		 mov	 DWORD PTR __$EHRec$[ebp+8], 0

; 236  : 	LocalGameList::iterator it1 = m_vecGame.begin();

  012a6	8d 45 e8	 lea	 eax, DWORD PTR _it1$[ebp]
  012a9	50		 push	 eax
  012aa	8b 4d f0	 mov	 ecx, DWORD PTR _this$[ebp]
  012ad	83 c1 04	 add	 ecx, 4
  012b0	e8 00 00 00 00	 call	 ?begin@?$vector@UOneLocalGame@@V?$allocator@UOneLocalGame@@@std@@@std@@QAE?AViterator@12@XZ ; std::vector<OneLocalGame,std::allocator<OneLocalGame> >::begin

; 237  : 	for( ; it1 != m_vecGame.end(); it1 ++ )

  012b5	eb 0e		 jmp	 SHORT $L189969
$L189970:
  012b7	6a 00		 push	 0
  012b9	8d 4d e0	 lea	 ecx, DWORD PTR $T192617[ebp]
  012bc	51		 push	 ecx
  012bd	8d 4d e8	 lea	 ecx, DWORD PTR _it1$[ebp]
  012c0	e8 00 00 00 00	 call	 ??Eiterator@?$vector@UOneLocalGame@@V?$allocator@UOneLocalGame@@@std@@@std@@QAE?AV012@H@Z ; std::vector<OneLocalGame,std::allocator<OneLocalGame> >::iterator::operator++
$L189969:
  012c5	8d 55 dc	 lea	 edx, DWORD PTR $T192618[ebp]
  012c8	52		 push	 edx
  012c9	8b 4d f0	 mov	 ecx, DWORD PTR _this$[ebp]
  012cc	83 c1 04	 add	 ecx, 4
  012cf	e8 00 00 00 00	 call	 ?end@?$vector@UOneLocalGame@@V?$allocator@UOneLocalGame@@@std@@@std@@QAE?AViterator@12@XZ ; std::vector<OneLocalGame,std::allocator<OneLocalGame> >::end
  012d4	50		 push	 eax
  012d5	8d 4d e8	 lea	 ecx, DWORD PTR _it1$[ebp]
  012d8	e8 00 00 00 00	 call	 ??9const_iterator@?$vector@UOneLocalGame@@V?$allocator@UOneLocalGame@@@std@@@std@@QBE_NABV012@@Z ; std::vector<OneLocalGame,std::allocator<OneLocalGame> >::const_iterator::operator!=
  012dd	0f b6 c0	 movzx	 eax, al
  012e0	85 c0		 test	 eax, eax
  012e2	74 2a		 je	 SHORT $L189971

; 238  : 	{
; 239  : 		if( strID == it1->strID )

  012e4	8d 4d e8	 lea	 ecx, DWORD PTR _it1$[ebp]
  012e7	e8 00 00 00 00	 call	 ??Citerator@?$vector@UOneLocalGame@@V?$allocator@UOneLocalGame@@@std@@@std@@QBEPAUOneLocalGame@@XZ ; std::vector<OneLocalGame,std::allocator<OneLocalGame> >::iterator::operator->
  012ec	8b f4		 mov	 esi, esp
  012ee	50		 push	 eax
  012ef	8d 4d 08	 lea	 ecx, DWORD PTR _strID$[ebp]
  012f2	51		 push	 ecx
  012f3	ff 15 00 00 00
	00		 call	 DWORD PTR __imp_??$?8DU?$char_traits@D@std@@V?$allocator@D@1@@std@@YA_NABV?$basic_string@DU?$char_traits@D@std@@V?$allocator@D@2@@0@0@Z
  012f9	83 c4 08	 add	 esp, 8
  012fc	3b f4		 cmp	 esi, esp
  012fe	e8 00 00 00 00	 call	 __RTC_CheckEsp
  01303	0f b6 d0	 movzx	 edx, al
  01306	85 d2		 test	 edx, edx
  01308	74 02		 je	 SHORT $L189972

; 240  : 		{
; 241  : 			break;

  0130a	eb 02		 jmp	 SHORT $L189971
$L189972:

; 242  : 		}
; 243  : 	}

  0130c	eb a9		 jmp	 SHORT $L189970
$L189971:

; 244  : 	if( it1 != m_vecGame.end() )

  0130e	8d 45 d8	 lea	 eax, DWORD PTR $T192619[ebp]
  01311	50		 push	 eax
  01312	8b 4d f0	 mov	 ecx, DWORD PTR _this$[ebp]
  01315	83 c1 04	 add	 ecx, 4
  01318	e8 00 00 00 00	 call	 ?end@?$vector@UOneLocalGame@@V?$allocator@UOneLocalGame@@@std@@@std@@QAE?AViterator@12@XZ ; std::vector<OneLocalGame,std::allocator<OneLocalGame> >::end
  0131d	50		 push	 eax
  0131e	8d 4d e8	 lea	 ecx, DWORD PTR _it1$[ebp]
  01321	e8 00 00 00 00	 call	 ??9const_iterator@?$vector@UOneLocalGame@@V?$allocator@UOneLocalGame@@@std@@@std@@QBE_NABV012@@Z ; std::vector<OneLocalGame,std::allocator<OneLocalGame> >::const_iterator::operator!=
  01326	0f b6 c8	 movzx	 ecx, al
  01329	85 c9		 test	 ecx, ecx
  0132b	0f 84 95 00 00
	00		 je	 $L189974

; 245  : 	{
; 246  : 		//
; 247  : 		::DeleteFile( it1->strPicPath.c_str() );

  01331	8d 4d e8	 lea	 ecx, DWORD PTR _it1$[ebp]
  01334	e8 00 00 00 00	 call	 ??Citerator@?$vector@UOneLocalGame@@V?$allocator@UOneLocalGame@@@std@@@std@@QBEPAUOneLocalGame@@XZ ; std::vector<OneLocalGame,std::allocator<OneLocalGame> >::iterator::operator->
  01339	83 c0 54	 add	 eax, 84			; 00000054H
  0133c	8b f4		 mov	 esi, esp
  0133e	8b c8		 mov	 ecx, eax
  01340	ff 15 00 00 00
	00		 call	 DWORD PTR __imp_?c_str@?$basic_string@DU?$char_traits@D@std@@V?$allocator@D@2@@std@@QBEPBDXZ
  01346	3b f4		 cmp	 esi, esp
  01348	e8 00 00 00 00	 call	 __RTC_CheckEsp
  0134d	8b f4		 mov	 esi, esp
  0134f	50		 push	 eax
  01350	ff 15 00 00 00
	00		 call	 DWORD PTR __imp__DeleteFileA@4
  01356	3b f4		 cmp	 esi, esp
  01358	e8 00 00 00 00	 call	 __RTC_CheckEsp

; 248  : 		//swf
; 249  : 		::DeleteFile( it1->strGamePath.c_str() );

  0135d	8d 4d e8	 lea	 ecx, DWORD PTR _it1$[ebp]
  01360	e8 00 00 00 00	 call	 ??Citerator@?$vector@UOneLocalGame@@V?$allocator@UOneLocalGame@@@std@@@std@@QBEPAUOneLocalGame@@XZ ; std::vector<OneLocalGame,std::allocator<OneLocalGame> >::iterator::operator->
  01365	83 c0 38	 add	 eax, 56			; 00000038H
  01368	8b f4		 mov	 esi, esp
  0136a	8b c8		 mov	 ecx, eax
  0136c	ff 15 00 00 00
	00		 call	 DWORD PTR __imp_?c_str@?$basic_string@DU?$char_traits@D@std@@V?$allocator@D@2@@std@@QBEPBDXZ
  01372	3b f4		 cmp	 esi, esp
  01374	e8 00 00 00 00	 call	 __RTC_CheckEsp
  01379	8b f4		 mov	 esi, esp
  0137b	50		 push	 eax
  0137c	ff 15 00 00 00
	00		 call	 DWORD PTR __imp__DeleteFileA@4
  01382	3b f4		 cmp	 esi, esp
  01384	e8 00 00 00 00	 call	 __RTC_CheckEsp

; 250  : 
; 251  : 		m_vecGame.erase( it1 );

  01389	8b 55 e8	 mov	 edx, DWORD PTR _it1$[ebp]
  0138c	52		 push	 edx
  0138d	8d 45 d4	 lea	 eax, DWORD PTR $T192620[ebp]
  01390	50		 push	 eax
  01391	8b 4d f0	 mov	 ecx, DWORD PTR _this$[ebp]
  01394	83 c1 04	 add	 ecx, 4
  01397	e8 00 00 00 00	 call	 ?erase@?$vector@UOneLocalGame@@V?$allocator@UOneLocalGame@@@std@@@std@@QAE?AViterator@12@V312@@Z ; std::vector<OneLocalGame,std::allocator<OneLocalGame> >::erase

; 252  : 		NotifyQQItemCountChange();

  0139c	8b 4d f0	 mov	 ecx, DWORD PTR _this$[ebp]
  0139f	e8 00 00 00 00	 call	 ?NotifyQQItemCountChange@LocalGameData@@AAEXXZ ; LocalGameData::NotifyQQItemCountChange

; 253  : 		return true;

  013a4	c6 45 d3 01	 mov	 BYTE PTR $T192621[ebp], 1
  013a8	c7 45 fc ff ff
	ff ff		 mov	 DWORD PTR __$EHRec$[ebp+8], -1
  013af	8b f4		 mov	 esi, esp
  013b1	8d 4d 08	 lea	 ecx, DWORD PTR _strID$[ebp]
  013b4	ff 15 00 00 00
	00		 call	 DWORD PTR __imp_??1?$basic_string@DU?$char_traits@D@std@@V?$allocator@D@2@@std@@QAE@XZ
  013ba	3b f4		 cmp	 esi, esp
  013bc	e8 00 00 00 00	 call	 __RTC_CheckEsp
  013c1	8a 45 d3	 mov	 al, BYTE PTR $T192621[ebp]
  013c4	eb 20		 jmp	 SHORT $L189964
$L189974:

; 254  : 	}else
; 255  : 	{
; 256  : 		return false;

  013c6	c6 45 d2 00	 mov	 BYTE PTR $T192622[ebp], 0
  013ca	c7 45 fc ff ff
	ff ff		 mov	 DWORD PTR __$EHRec$[ebp+8], -1
  013d1	8b f4		 mov	 esi, esp
  013d3	8d 4d 08	 lea	 ecx, DWORD PTR _strID$[ebp]
  013d6	ff 15 00 00 00
	00		 call	 DWORD PTR __imp_??1?$basic_string@DU?$char_traits@D@std@@V?$allocator@D@2@@std@@QAE@XZ
  013dc	3b f4		 cmp	 esi, esp
  013de	e8 00 00 00 00	 call	 __RTC_CheckEsp
  013e3	8a 45 d2	 mov	 al, BYTE PTR $T192622[ebp]
$L189964:

; 257  : 	}	
; 258  : }

  013e6	52		 push	 edx
  013e7	8b cd		 mov	 ecx, ebp
  013e9	50		 push	 eax
  013ea	8d 15 00 00 00
	00		 lea	 edx, DWORD PTR $L192629
  013f0	e8 00 00 00 00	 call	 @_RTC_CheckStackVars@8
  013f5	58		 pop	 eax
  013f6	5a		 pop	 edx
  013f7	8b 4d f4	 mov	 ecx, DWORD PTR __$EHRec$[ebp]
  013fa	64 89 0d 00 00
	00 00		 mov	 DWORD PTR fs:__except_list, ecx
  01401	5e		 pop	 esi
  01402	83 c4 30	 add	 esp, 48			; 00000030H
  01405	3b ec		 cmp	 ebp, esp
  01407	e8 00 00 00 00	 call	 __RTC_CheckEsp
  0140c	8b e5		 mov	 esp, ebp
  0140e	5d		 pop	 ebp
  0140f	c2 1c 00	 ret	 28			; 0000001cH
$L192629:
  01412	01 00 00 00	 DD	 1
  01416	00 00 00 00	 DD	 $L192628
$L192628:
  0141a	e8 ff ff ff	 DD	 -24			; ffffffe8H
  0141e	04 00 00 00	 DD	 4
  01422	00 00 00 00	 DD	 $L192626
$L192626:
  01426	69		 DB	 105			; 00000069H
  01427	74		 DB	 116			; 00000074H
  01428	31		 DB	 49			; 00000031H
  01429	00		 DB	 0
_TEXT	ENDS
text$x	SEGMENT
$L192623:
  00262	8b f4		 mov	 esi, esp
  00264	8d 4d 08	 lea	 ecx, DWORD PTR _strID$[ebp]
  00267	ff 15 00 00 00
	00		 call	 DWORD PTR __imp_??1?$basic_string@DU?$char_traits@D@std@@V?$allocator@D@2@@std@@QAE@XZ
  0026d	3b f4		 cmp	 esi, esp
  0026f	e9 00 00 00 00	 jmp	 __RTC_CheckEsp
__ehhandler$?ILocalGameData_DelGame@LocalGameData@@UAE_NV?$basic_string@DU?$char_traits@D@std@@V?$allocator@D@2@@std@@@Z:
  00274	b8 00 00 00 00	 mov	 eax, OFFSET FLAT:$T192625
  00279	e9 00 00 00 00	 jmp	 ___CxxFrameHandler
text$x	ENDS
?ILocalGameData_DelGame@LocalGameData@@UAE_NV?$basic_string@DU?$char_traits@D@std@@V?$allocator@D@2@@std@@@Z ENDP ; LocalGameData::ILocalGameData_DelGame
PUBLIC	??$back_inserter@V?$vector@UOneLocalGame@@V?$allocator@UOneLocalGame@@@std@@@std@@@std@@YA?AV?$back_insert_iterator@V?$vector@UOneLocalGame@@V?$allocator@UOneLocalGame@@@std@@@std@@@0@AAV?$vector@UOneLocalGame@@V?$allocator@UOneLocalGame@@@std@@@0@@Z ; std::back_inserter<std::vector<OneLocalGame,std::allocator<OneLocalGame> > >
PUBLIC	??$copy@Viterator@?$vector@UOneLocalGame@@V?$allocator@UOneLocalGame@@@std@@@std@@V?$back_insert_iterator@V?$vector@UOneLocalGame@@V?$allocator@UOneLocalGame@@@std@@@std@@@3@@std@@YA?AV?$back_insert_iterator@V?$vector@UOneLocalGame@@V?$allocator@UOneLocalGame@@@std@@@std@@@0@Viterator@?$vector@UOneLocalGame@@V?$allocator@UOneLocalGame@@@std@@@0@0V10@@Z ; std::copy<std::vector<OneLocalGame,std::allocator<OneLocalGame> >::iterator,std::back_insert_iterator<std::vector<OneLocalGame,std::allocator<OneLocalGame> > > >
; Function compile flags: /Odt /RTCsu
_TEXT	SEGMENT
$T192635 = -20						; size = 4
$T192634 = -16						; size = 4
$T192633 = -12						; size = 4
$T192632 = -8						; size = 4
_this$ = -4						; size = 4
_lgl$ = 8						; size = 4
?ILocalGameData_GetAllGame@LocalGameData@@UAE_NAAV?$vector@UOneLocalGame@@V?$allocator@UOneLocalGame@@@std@@@std@@@Z PROC NEAR ; LocalGameData::ILocalGameData_GetAllGame
; _this$ = ecx

; 261  : {

  01430	55		 push	 ebp
  01431	8b ec		 mov	 ebp, esp
  01433	83 ec 14	 sub	 esp, 20			; 00000014H
  01436	b8 cc cc cc cc	 mov	 eax, -858993460		; ccccccccH
  0143b	89 45 ec	 mov	 DWORD PTR [ebp-20], eax
  0143e	89 45 f0	 mov	 DWORD PTR [ebp-16], eax
  01441	89 45 f4	 mov	 DWORD PTR [ebp-12], eax
  01444	89 45 f8	 mov	 DWORD PTR [ebp-8], eax
  01447	89 45 fc	 mov	 DWORD PTR [ebp-4], eax
  0144a	89 4d fc	 mov	 DWORD PTR _this$[ebp], ecx

; 262  : 	lgl.clear();

  0144d	8b 4d 08	 mov	 ecx, DWORD PTR _lgl$[ebp]
  01450	e8 00 00 00 00	 call	 ?clear@?$vector@UOneLocalGame@@V?$allocator@UOneLocalGame@@@std@@@std@@QAEXXZ ; std::vector<OneLocalGame,std::allocator<OneLocalGame> >::clear

; 263  : 	copy( m_vecGame.begin(), m_vecGame.end(), back_inserter(lgl) );

  01455	8b 45 08	 mov	 eax, DWORD PTR _lgl$[ebp]
  01458	50		 push	 eax
  01459	8d 4d f8	 lea	 ecx, DWORD PTR $T192632[ebp]
  0145c	51		 push	 ecx
  0145d	e8 00 00 00 00	 call	 ??$back_inserter@V?$vector@UOneLocalGame@@V?$allocator@UOneLocalGame@@@std@@@std@@@std@@YA?AV?$back_insert_iterator@V?$vector@UOneLocalGame@@V?$allocator@UOneLocalGame@@@std@@@std@@@0@AAV?$vector@UOneLocalGame@@V?$allocator@UOneLocalGame@@@std@@@0@@Z ; std::back_inserter<std::vector<OneLocalGame,std::allocator<OneLocalGame> > >
  01462	83 c4 08	 add	 esp, 8
  01465	8b 10		 mov	 edx, DWORD PTR [eax]
  01467	52		 push	 edx
  01468	8d 45 f4	 lea	 eax, DWORD PTR $T192633[ebp]
  0146b	50		 push	 eax
  0146c	8b 4d fc	 mov	 ecx, DWORD PTR _this$[ebp]
  0146f	83 c1 04	 add	 ecx, 4
  01472	e8 00 00 00 00	 call	 ?end@?$vector@UOneLocalGame@@V?$allocator@UOneLocalGame@@@std@@@std@@QAE?AViterator@12@XZ ; std::vector<OneLocalGame,std::allocator<OneLocalGame> >::end
  01477	8b 08		 mov	 ecx, DWORD PTR [eax]
  01479	51		 push	 ecx
  0147a	8d 55 f0	 lea	 edx, DWORD PTR $T192634[ebp]
  0147d	52		 push	 edx
  0147e	8b 4d fc	 mov	 ecx, DWORD PTR _this$[ebp]
  01481	83 c1 04	 add	 ecx, 4
  01484	e8 00 00 00 00	 call	 ?begin@?$vector@UOneLocalGame@@V?$allocator@UOneLocalGame@@@std@@@std@@QAE?AViterator@12@XZ ; std::vector<OneLocalGame,std::allocator<OneLocalGame> >::begin
  01489	8b 00		 mov	 eax, DWORD PTR [eax]
  0148b	50		 push	 eax
  0148c	8d 4d ec	 lea	 ecx, DWORD PTR $T192635[ebp]
  0148f	51		 push	 ecx
  01490	e8 00 00 00 00	 call	 ??$copy@Viterator@?$vector@UOneLocalGame@@V?$allocator@UOneLocalGame@@@std@@@std@@V?$back_insert_iterator@V?$vector@UOneLocalGame@@V?$allocator@UOneLocalGame@@@std@@@std@@@3@@std@@YA?AV?$back_insert_iterator@V?$vector@UOneLocalGame@@V?$allocator@UOneLocalGame@@@std@@@std@@@0@Viterator@?$vector@UOneLocalGame@@V?$allocator@UOneLocalGame@@@std@@@0@0V10@@Z ; std::copy<std::vector<OneLocalGame,std::allocator<OneLocalGame> >::iterator,std::back_insert_iterator<std::vector<OneLocalGame,std::allocator<OneLocalGame> > > >
  01495	83 c4 10	 add	 esp, 16			; 00000010H

; 264  : 	return true;

  01498	b0 01		 mov	 al, 1

; 265  : }

  0149a	83 c4 14	 add	 esp, 20			; 00000014H
  0149d	3b ec		 cmp	 ebp, esp
  0149f	e8 00 00 00 00	 call	 __RTC_CheckEsp
  014a4	8b e5		 mov	 esp, ebp
  014a6	5d		 pop	 ebp
  014a7	c2 04 00	 ret	 4
?ILocalGameData_GetAllGame@LocalGameData@@UAE_NAAV?$vector@UOneLocalGame@@V?$allocator@UOneLocalGame@@@std@@@std@@@Z ENDP ; LocalGameData::ILocalGameData_GetAllGame
_TEXT	ENDS
PUBLIC	?size@?$vector@UOneLocalGame@@V?$allocator@UOneLocalGame@@@std@@@std@@QBEIXZ ; std::vector<OneLocalGame,std::allocator<OneLocalGame> >::size
; Function compile flags: /Odt /RTCsu
_TEXT	SEGMENT
_this$ = -4						; size = 4
?ILocalGameData_GetGameCount@LocalGameData@@UAEIXZ PROC NEAR ; LocalGameData::ILocalGameData_GetGameCount
; _this$ = ecx

; 268  : {

  014b0	55		 push	 ebp
  014b1	8b ec		 mov	 ebp, esp
  014b3	51		 push	 ecx
  014b4	c7 45 fc cc cc
	cc cc		 mov	 DWORD PTR [ebp-4], -858993460 ; ccccccccH
  014bb	89 4d fc	 mov	 DWORD PTR _this$[ebp], ecx

; 269  : 	return (unsigned int)(m_vecGame.size());

  014be	8b 4d fc	 mov	 ecx, DWORD PTR _this$[ebp]
  014c1	83 c1 04	 add	 ecx, 4
  014c4	e8 00 00 00 00	 call	 ?size@?$vector@UOneLocalGame@@V?$allocator@UOneLocalGame@@@std@@@std@@QBEIXZ ; std::vector<OneLocalGame,std::allocator<OneLocalGame> >::size

; 270  : }

  014c9	83 c4 04	 add	 esp, 4
  014cc	3b ec		 cmp	 ebp, esp
  014ce	e8 00 00 00 00	 call	 __RTC_CheckEsp
  014d3	8b e5		 mov	 esp, ebp
  014d5	5d		 pop	 ebp
  014d6	c3		 ret	 0
?ILocalGameData_GetGameCount@LocalGameData@@UAEIXZ ENDP	; LocalGameData::ILocalGameData_GetGameCount
_TEXT	ENDS
PUBLIC	??9const_iterator@?$list@PAVIMessageObserver@@V?$allocator@PAVIMessageObserver@@@std@@@std@@QBE_NABV012@@Z ; std::list<IMessageObserver *,std::allocator<IMessageObserver *> >::const_iterator::operator!=
PUBLIC	??Diterator@?$list@PAVIMessageObserver@@V?$allocator@PAVIMessageObserver@@@std@@@std@@QBEAAPAVIMessageObserver@@XZ ; std::list<IMessageObserver *,std::allocator<IMessageObserver *> >::iterator::operator*
PUBLIC	??Eiterator@?$list@PAVIMessageObserver@@V?$allocator@PAVIMessageObserver@@@std@@@std@@QAE?AV012@H@Z ; std::list<IMessageObserver *,std::allocator<IMessageObserver *> >::iterator::operator++
PUBLIC	??_R0?AVIQQItemCountChangeObserver@@@8		; IQQItemCountChangeObserver `RTTI Type Descriptor'
PUBLIC	??_R0?AVIMessageObserver@@@8			; IMessageObserver `RTTI Type Descriptor'
PUBLIC	??0?$list@PAVIMessageObserver@@V?$allocator@PAVIMessageObserver@@@std@@@std@@QAE@XZ ; std::list<IMessageObserver *,std::allocator<IMessageObserver *> >::list<IMessageObserver *,std::allocator<IMessageObserver *> >
PUBLIC	??1?$list@PAVIMessageObserver@@V?$allocator@PAVIMessageObserver@@@std@@@std@@QAE@XZ ; std::list<IMessageObserver *,std::allocator<IMessageObserver *> >::~list<IMessageObserver *,std::allocator<IMessageObserver *> >
PUBLIC	?begin@?$list@PAVIMessageObserver@@V?$allocator@PAVIMessageObserver@@@std@@@std@@QAE?AViterator@12@XZ ; std::list<IMessageObserver *,std::allocator<IMessageObserver *> >::begin
PUBLIC	?end@?$list@PAVIMessageObserver@@V?$allocator@PAVIMessageObserver@@@std@@@std@@QAE?AViterator@12@XZ ; std::list<IMessageObserver *,std::allocator<IMessageObserver *> >::end
EXTRN	?AfxGetMessageManager@@YAPAVIMessageManager@@XZ:NEAR ; AfxGetMessageManager
EXTRN	___RTDynamicCast:NEAR
xdata$x	SEGMENT
$T192648 DD	0ffffffffH
	DD	FLAT:$L192640
$T192642 DD	019930520H
	DD	01H
	DD	FLAT:$T192648
	DD	2 DUP(00H)
	DD	2 DUP(00H)
xdata$x	ENDS
;	COMDAT ??_R0?AVIQQItemCountChangeObserver@@@8
_DATA	SEGMENT
??_R0?AVIQQItemCountChangeObserver@@@8 DD FLAT:??_7type_info@@6B@ ; IQQItemCountChangeObserver `RTTI Type Descriptor'
	DD	00H
	DB	'.?AVIQQItemCountChangeObserver@@', 00H
_DATA	ENDS
;	COMDAT ??_R0?AVIMessageObserver@@@8
_DATA	SEGMENT
??_R0?AVIMessageObserver@@@8 DD FLAT:??_7type_info@@6B@	; IMessageObserver `RTTI Type Descriptor'
	DD	00H
	DB	'.?AVIMessageObserver@@', 00H
	ORG $-31
	DD	FLAT:??_7type_info@@6B@
	DD	00H
	DB	'.?AVIMessageObserver@@', 00H
; Function compile flags: /Odt /RTCsu
_DATA	ENDS
_TEXT	SEGMENT
tv69 = -64						; size = 4
$T192639 = -60						; size = 4
$T192638 = -56						; size = 4
_pOb$190524 = -52					; size = 4
_itOb$190517 = -44					; size = 4
_listOb$ = -32						; size = 12
_this$ = -16						; size = 4
__$EHRec$ = -12						; size = 12
?NotifyQQItemCountChange@LocalGameData@@AAEXXZ PROC NEAR ; LocalGameData::NotifyQQItemCountChange
; _this$ = ecx

; 273  : {

  014e0	55		 push	 ebp
  014e1	8b ec		 mov	 ebp, esp
  014e3	6a ff		 push	 -1
  014e5	68 00 00 00 00	 push	 __ehhandler$?NotifyQQItemCountChange@LocalGameData@@AAEXXZ
  014ea	64 a1 00 00 00
	00		 mov	 eax, DWORD PTR fs:__except_list
  014f0	50		 push	 eax
  014f1	64 89 25 00 00
	00 00		 mov	 DWORD PTR fs:__except_list, esp
  014f8	83 ec 34	 sub	 esp, 52			; 00000034H
  014fb	56		 push	 esi
  014fc	57		 push	 edi
  014fd	51		 push	 ecx
  014fe	8d 7d c0	 lea	 edi, DWORD PTR [ebp-64]
  01501	b9 0d 00 00 00	 mov	 ecx, 13			; 0000000dH
  01506	b8 cc cc cc cc	 mov	 eax, -858993460		; ccccccccH
  0150b	f3 ab		 rep stosd
  0150d	59		 pop	 ecx
  0150e	89 4d f0	 mov	 DWORD PTR _this$[ebp], ecx

; 274  : 	list<IMessageObserver*> listOb;

  01511	8d 4d e0	 lea	 ecx, DWORD PTR _listOb$[ebp]
  01514	e8 00 00 00 00	 call	 ??0?$list@PAVIMessageObserver@@V?$allocator@PAVIMessageObserver@@@std@@@std@@QAE@XZ ; std::list<IMessageObserver *,std::allocator<IMessageObserver *> >::list<IMessageObserver *,std::allocator<IMessageObserver *> >
  01519	c7 45 fc 00 00
	00 00		 mov	 DWORD PTR __$EHRec$[ebp+8], 0

; 275  : 	AfxGetMessageManager()->QueryObservers( ID_MESSAGE_QQ_ITEM_CHANGE,listOb);

  01520	e8 00 00 00 00	 call	 ?AfxGetMessageManager@@YAPAVIMessageManager@@XZ ; AfxGetMessageManager
  01525	89 45 c0	 mov	 DWORD PTR tv69[ebp], eax
  01528	8b f4		 mov	 esi, esp
  0152a	8d 45 e0	 lea	 eax, DWORD PTR _listOb$[ebp]
  0152d	50		 push	 eax
  0152e	68 00 00 00 00	 push	 OFFSET FLAT:_ID_MESSAGE_QQ_ITEM_CHANGE
  01533	8b 4d c0	 mov	 ecx, DWORD PTR tv69[ebp]
  01536	8b 11		 mov	 edx, DWORD PTR [ecx]
  01538	8b 4d c0	 mov	 ecx, DWORD PTR tv69[ebp]
  0153b	ff 52 0c	 call	 DWORD PTR [edx+12]
  0153e	3b f4		 cmp	 esi, esp
  01540	e8 00 00 00 00	 call	 __RTC_CheckEsp

; 276  : 
; 277  : 	for( list<IMessageObserver*>::iterator itOb = listOb.begin();itOb != listOb.end();itOb++ )

  01545	8d 45 d4	 lea	 eax, DWORD PTR _itOb$190517[ebp]
  01548	50		 push	 eax
  01549	8d 4d e0	 lea	 ecx, DWORD PTR _listOb$[ebp]
  0154c	e8 00 00 00 00	 call	 ?begin@?$list@PAVIMessageObserver@@V?$allocator@PAVIMessageObserver@@@std@@@std@@QAE?AViterator@12@XZ ; std::list<IMessageObserver *,std::allocator<IMessageObserver *> >::begin
  01551	eb 0e		 jmp	 SHORT $L190521
$L190522:
  01553	6a 00		 push	 0
  01555	8d 4d c8	 lea	 ecx, DWORD PTR $T192638[ebp]
  01558	51		 push	 ecx
  01559	8d 4d d4	 lea	 ecx, DWORD PTR _itOb$190517[ebp]
  0155c	e8 00 00 00 00	 call	 ??Eiterator@?$list@PAVIMessageObserver@@V?$allocator@PAVIMessageObserver@@@std@@@std@@QAE?AV012@H@Z ; std::list<IMessageObserver *,std::allocator<IMessageObserver *> >::iterator::operator++
$L190521:
  01561	8d 55 c4	 lea	 edx, DWORD PTR $T192639[ebp]
  01564	52		 push	 edx
  01565	8d 4d e0	 lea	 ecx, DWORD PTR _listOb$[ebp]
  01568	e8 00 00 00 00	 call	 ?end@?$list@PAVIMessageObserver@@V?$allocator@PAVIMessageObserver@@@std@@@std@@QAE?AViterator@12@XZ ; std::list<IMessageObserver *,std::allocator<IMessageObserver *> >::end
  0156d	50		 push	 eax
  0156e	8d 4d d4	 lea	 ecx, DWORD PTR _itOb$190517[ebp]
  01571	e8 00 00 00 00	 call	 ??9const_iterator@?$list@PAVIMessageObserver@@V?$allocator@PAVIMessageObserver@@@std@@@std@@QBE_NABV012@@Z ; std::list<IMessageObserver *,std::allocator<IMessageObserver *> >::const_iterator::operator!=
  01576	0f b6 c0	 movzx	 eax, al
  01579	85 c0		 test	 eax, eax
  0157b	74 46		 je	 SHORT $L190523

; 278  : 	{
; 279  : 		IQQItemCountChangeObserver* pOb = dynamic_cast<IQQItemCountChangeObserver*>(*itOb);

  0157d	6a 00		 push	 0
  0157f	68 00 00 00 00	 push	 OFFSET FLAT:??_R0?AVIQQItemCountChangeObserver@@@8
  01584	68 00 00 00 00	 push	 OFFSET FLAT:??_R0?AVIMessageObserver@@@8
  01589	6a 00		 push	 0
  0158b	8d 4d d4	 lea	 ecx, DWORD PTR _itOb$190517[ebp]
  0158e	e8 00 00 00 00	 call	 ??Diterator@?$list@PAVIMessageObserver@@V?$allocator@PAVIMessageObserver@@@std@@@std@@QBEAAPAVIMessageObserver@@XZ ; std::list<IMessageObserver *,std::allocator<IMessageObserver *> >::iterator::operator*
  01593	8b 08		 mov	 ecx, DWORD PTR [eax]
  01595	51		 push	 ecx
  01596	e8 00 00 00 00	 call	 ___RTDynamicCast
  0159b	83 c4 14	 add	 esp, 20			; 00000014H
  0159e	89 45 cc	 mov	 DWORD PTR _pOb$190524[ebp], eax

; 280  : 		pOb->IQQItemChangeOb_CountChange( m_vecGame.size() );

  015a1	8b 4d f0	 mov	 ecx, DWORD PTR _this$[ebp]
  015a4	83 c1 04	 add	 ecx, 4
  015a7	e8 00 00 00 00	 call	 ?size@?$vector@UOneLocalGame@@V?$allocator@UOneLocalGame@@@std@@@std@@QBEIXZ ; std::vector<OneLocalGame,std::allocator<OneLocalGame> >::size
  015ac	8b f4		 mov	 esi, esp
  015ae	50		 push	 eax
  015af	8b 55 cc	 mov	 edx, DWORD PTR _pOb$190524[ebp]
  015b2	8b 02		 mov	 eax, DWORD PTR [edx]
  015b4	8b 4d cc	 mov	 ecx, DWORD PTR _pOb$190524[ebp]
  015b7	ff 50 04	 call	 DWORD PTR [eax+4]
  015ba	3b f4		 cmp	 esi, esp
  015bc	e8 00 00 00 00	 call	 __RTC_CheckEsp

; 281  : 	}

  015c1	eb 90		 jmp	 SHORT $L190522
$L190523:

; 282  : }

  015c3	c7 45 fc ff ff
	ff ff		 mov	 DWORD PTR __$EHRec$[ebp+8], -1
  015ca	8d 4d e0	 lea	 ecx, DWORD PTR _listOb$[ebp]
  015cd	e8 00 00 00 00	 call	 ??1?$list@PAVIMessageObserver@@V?$allocator@PAVIMessageObserver@@@std@@@std@@QAE@XZ ; std::list<IMessageObserver *,std::allocator<IMessageObserver *> >::~list<IMessageObserver *,std::allocator<IMessageObserver *> >
  015d2	52		 push	 edx
  015d3	8b cd		 mov	 ecx, ebp
  015d5	50		 push	 eax
  015d6	8d 15 00 00 00
	00		 lea	 edx, DWORD PTR $L192647
  015dc	e8 00 00 00 00	 call	 @_RTC_CheckStackVars@8
  015e1	58		 pop	 eax
  015e2	5a		 pop	 edx
  015e3	8b 4d f4	 mov	 ecx, DWORD PTR __$EHRec$[ebp]
  015e6	64 89 0d 00 00
	00 00		 mov	 DWORD PTR fs:__except_list, ecx
  015ed	5f		 pop	 edi
  015ee	5e		 pop	 esi
  015ef	83 c4 40	 add	 esp, 64			; 00000040H
  015f2	3b ec		 cmp	 ebp, esp
  015f4	e8 00 00 00 00	 call	 __RTC_CheckEsp
  015f9	8b e5		 mov	 esp, ebp
  015fb	5d		 pop	 ebp
  015fc	c3		 ret	 0
$L192647:
  015fd	02 00 00 00	 DD	 2
  01601	00 00 00 00	 DD	 $L192646
$L192646:
  01605	e0 ff ff ff	 DD	 -32			; ffffffe0H
  01609	0c 00 00 00	 DD	 12			; 0000000cH
  0160d	00 00 00 00	 DD	 $L192643
  01611	d4 ff ff ff	 DD	 -44			; ffffffd4H
  01615	04 00 00 00	 DD	 4
  01619	00 00 00 00	 DD	 $L192644
$L192644:
  0161d	69		 DB	 105			; 00000069H
  0161e	74		 DB	 116			; 00000074H
  0161f	4f		 DB	 79			; 0000004fH
  01620	62		 DB	 98			; 00000062H
  01621	00		 DB	 0
$L192643:
  01622	6c		 DB	 108			; 0000006cH
  01623	69		 DB	 105			; 00000069H
  01624	73		 DB	 115			; 00000073H
  01625	74		 DB	 116			; 00000074H
  01626	4f		 DB	 79			; 0000004fH
  01627	62		 DB	 98			; 00000062H
  01628	00		 DB	 0
_TEXT	ENDS
text$x	SEGMENT
$L192640:
  0027e	8d 4d e0	 lea	 ecx, DWORD PTR _listOb$[ebp]
  00281	e9 00 00 00 00	 jmp	 ??1?$list@PAVIMessageObserver@@V?$allocator@PAVIMessageObserver@@@std@@@std@@QAE@XZ ; std::list<IMessageObserver *,std::allocator<IMessageObserver *> >::~list<IMessageObserver *,std::allocator<IMessageObserver *> >
__ehhandler$?NotifyQQItemCountChange@LocalGameData@@AAEXXZ:
  00286	b8 00 00 00 00	 mov	 eax, OFFSET FLAT:$T192642
  0028b	e9 00 00 00 00	 jmp	 ___CxxFrameHandler
text$x	ENDS
?NotifyQQItemCountChange@LocalGameData@@AAEXXZ ENDP	; LocalGameData::NotifyQQItemCountChange
EXTRN	__imp_?GetLength@?$CSimpleStringT@D$00@ATL@@QBEHXZ:NEAR
EXTRN	__imp_?GetManager@?$CSimpleStringT@D$00@ATL@@QBEPAUIAtlStringMgr@2@XZ:NEAR
EXTRN	__imp_?StringLength@?$CSimpleStringT@D$00@ATL@@SAHPBD@Z:NEAR
EXTRN	__imp_?Concatenate@?$CSimpleStringT@D$00@ATL@@KAXAAV12@PBDH1H@Z:NEAR
EXTRN	__imp_??0?$CStringT@DV?$StrTraitMFC_DLL@DV?$ChTraitsCRT@D@ATL@@@@@ATL@@QAE@PAUIAtlStringMgr@1@@Z:NEAR
EXTRN	__imp_??0?$CStringT@DV?$StrTraitMFC_DLL@DV?$ChTraitsCRT@D@ATL@@@@@ATL@@QAE@ABV01@@Z:NEAR
;	COMDAT xdata$x
; File d:\program files (x86)\microsoft visual studio .net 2003\vc7\atlmfc\include\cstringt.h
xdata$x	SEGMENT
$T192660 DD	0ffffffffH
	DD	FLAT:$L192650
$T192655 DD	019930520H
	DD	01H
	DD	FLAT:$T192660
	DD	2 DUP(00H)
	DD	2 DUP(00H)
; Function compile flags: /Odt /RTCsu
xdata$x	ENDS
;	COMDAT ??HATL@@YA?AV?$CStringT@DV?$StrTraitMFC_DLL@DV?$ChTraitsCRT@D@ATL@@@@@0@ABV10@PBD@Z
_TEXT	SEGMENT
$T192652 = -28						; size = 4
_strResult$ = -20					; size = 4
__$EHRec$ = -12						; size = 12
___$ReturnUdt$ = 8					; size = 4
_str1$ = 12						; size = 4
_psz2$ = 16						; size = 4
??HATL@@YA?AV?$CStringT@DV?$StrTraitMFC_DLL@DV?$ChTraitsCRT@D@ATL@@@@@0@ABV10@PBD@Z PROC NEAR ; ATL::operator+, COMDAT

; 2023 : 	{

  00000	55		 push	 ebp
  00001	8b ec		 mov	 ebp, esp
  00003	6a ff		 push	 -1
  00005	68 00 00 00 00	 push	 __ehhandler$??HATL@@YA?AV?$CStringT@DV?$StrTraitMFC_DLL@DV?$ChTraitsCRT@D@ATL@@@@@0@ABV10@PBD@Z
  0000a	64 a1 00 00 00
	00		 mov	 eax, DWORD PTR fs:__except_list
  00010	50		 push	 eax
  00011	64 89 25 00 00
	00 00		 mov	 DWORD PTR fs:__except_list, esp
  00018	83 ec 10	 sub	 esp, 16			; 00000010H
  0001b	56		 push	 esi
  0001c	57		 push	 edi
  0001d	b8 cc cc cc cc	 mov	 eax, -858993460		; ccccccccH
  00022	89 45 e4	 mov	 DWORD PTR [ebp-28], eax
  00025	89 45 e8	 mov	 DWORD PTR [ebp-24], eax
  00028	89 45 ec	 mov	 DWORD PTR [ebp-20], eax
  0002b	89 45 f0	 mov	 DWORD PTR [ebp-16], eax
  0002e	c7 45 e4 00 00
	00 00		 mov	 DWORD PTR $T192652[ebp], 0

; 2024 : 		CStringT strResult( str1.GetManager() );

  00035	8b f4		 mov	 esi, esp
  00037	8b 4d 0c	 mov	 ecx, DWORD PTR _str1$[ebp]
  0003a	ff 15 00 00 00
	00		 call	 DWORD PTR __imp_?GetManager@?$CSimpleStringT@D$00@ATL@@QBEPAUIAtlStringMgr@2@XZ
  00040	3b f4		 cmp	 esi, esp
  00042	e8 00 00 00 00	 call	 __RTC_CheckEsp
  00047	8b f4		 mov	 esi, esp
  00049	50		 push	 eax
  0004a	8d 4d ec	 lea	 ecx, DWORD PTR _strResult$[ebp]
  0004d	ff 15 00 00 00
	00		 call	 DWORD PTR __imp_??0?$CStringT@DV?$StrTraitMFC_DLL@DV?$ChTraitsCRT@D@ATL@@@@@ATL@@QAE@PAUIAtlStringMgr@1@@Z
  00053	3b f4		 cmp	 esi, esp
  00055	e8 00 00 00 00	 call	 __RTC_CheckEsp
  0005a	c7 45 fc 00 00
	00 00		 mov	 DWORD PTR __$EHRec$[ebp+8], 0

; 2025 : 
; 2026 : 		Concatenate( strResult, str1, str1.GetLength(), psz2, StringLength( psz2 ) );

  00061	8b f4		 mov	 esi, esp
  00063	8b 45 10	 mov	 eax, DWORD PTR _psz2$[ebp]
  00066	50		 push	 eax
  00067	ff 15 00 00 00
	00		 call	 DWORD PTR __imp_?StringLength@?$CSimpleStringT@D$00@ATL@@SAHPBD@Z
  0006d	83 c4 04	 add	 esp, 4
  00070	3b f4		 cmp	 esi, esp
  00072	e8 00 00 00 00	 call	 __RTC_CheckEsp
  00077	8b f4		 mov	 esi, esp
  00079	50		 push	 eax
  0007a	8b 4d 10	 mov	 ecx, DWORD PTR _psz2$[ebp]
  0007d	51		 push	 ecx
  0007e	8b fc		 mov	 edi, esp
  00080	8b 4d 0c	 mov	 ecx, DWORD PTR _str1$[ebp]
  00083	ff 15 00 00 00
	00		 call	 DWORD PTR __imp_?GetLength@?$CSimpleStringT@D$00@ATL@@QBEHXZ
  00089	3b fc		 cmp	 edi, esp
  0008b	e8 00 00 00 00	 call	 __RTC_CheckEsp
  00090	50		 push	 eax
  00091	8b fc		 mov	 edi, esp
  00093	8b 4d 0c	 mov	 ecx, DWORD PTR _str1$[ebp]
  00096	ff 15 00 00 00
	00		 call	 DWORD PTR __imp_??B?$CSimpleStringT@D$00@ATL@@QBEPBDXZ
  0009c	3b fc		 cmp	 edi, esp
  0009e	e8 00 00 00 00	 call	 __RTC_CheckEsp
  000a3	50		 push	 eax
  000a4	8d 55 ec	 lea	 edx, DWORD PTR _strResult$[ebp]
  000a7	52		 push	 edx
  000a8	ff 15 00 00 00
	00		 call	 DWORD PTR __imp_?Concatenate@?$CSimpleStringT@D$00@ATL@@KAXAAV12@PBDH1H@Z
  000ae	83 c4 14	 add	 esp, 20			; 00000014H
  000b1	3b f4		 cmp	 esi, esp
  000b3	e8 00 00 00 00	 call	 __RTC_CheckEsp

; 2027 : 
; 2028 : 		return( strResult );

  000b8	8b f4		 mov	 esi, esp
  000ba	8d 45 ec	 lea	 eax, DWORD PTR _strResult$[ebp]
  000bd	50		 push	 eax
  000be	8b 4d 08	 mov	 ecx, DWORD PTR ___$ReturnUdt$[ebp]
  000c1	ff 15 00 00 00
	00		 call	 DWORD PTR __imp_??0?$CStringT@DV?$StrTraitMFC_DLL@DV?$ChTraitsCRT@D@ATL@@@@@ATL@@QAE@ABV01@@Z
  000c7	3b f4		 cmp	 esi, esp
  000c9	e8 00 00 00 00	 call	 __RTC_CheckEsp
  000ce	8b 4d e4	 mov	 ecx, DWORD PTR $T192652[ebp]
  000d1	83 c9 01	 or	 ecx, 1
  000d4	89 4d e4	 mov	 DWORD PTR $T192652[ebp], ecx
  000d7	c7 45 fc ff ff
	ff ff		 mov	 DWORD PTR __$EHRec$[ebp+8], -1
  000de	8b f4		 mov	 esi, esp
  000e0	8d 4d ec	 lea	 ecx, DWORD PTR _strResult$[ebp]
  000e3	ff 15 00 00 00
	00		 call	 DWORD PTR __imp_??1?$CStringT@DV?$StrTraitMFC_DLL@DV?$ChTraitsCRT@D@ATL@@@@@ATL@@QAE@XZ
  000e9	3b f4		 cmp	 esi, esp
  000eb	e8 00 00 00 00	 call	 __RTC_CheckEsp
  000f0	8b 45 08	 mov	 eax, DWORD PTR ___$ReturnUdt$[ebp]

; 2029 : 	}

  000f3	52		 push	 edx
  000f4	8b cd		 mov	 ecx, ebp
  000f6	50		 push	 eax
  000f7	8d 15 00 00 00
	00		 lea	 edx, DWORD PTR $L192659
  000fd	e8 00 00 00 00	 call	 @_RTC_CheckStackVars@8
  00102	58		 pop	 eax
  00103	5a		 pop	 edx
  00104	8b 4d f4	 mov	 ecx, DWORD PTR __$EHRec$[ebp]
  00107	64 89 0d 00 00
	00 00		 mov	 DWORD PTR fs:__except_list, ecx
  0010e	5f		 pop	 edi
  0010f	5e		 pop	 esi
  00110	83 c4 1c	 add	 esp, 28			; 0000001cH
  00113	3b ec		 cmp	 ebp, esp
  00115	e8 00 00 00 00	 call	 __RTC_CheckEsp
  0011a	8b e5		 mov	 esp, ebp
  0011c	5d		 pop	 ebp
  0011d	c3		 ret	 0
$L192659:
  0011e	01 00 00 00	 DD	 1
  00122	00 00 00 00	 DD	 $L192658
$L192658:
  00126	ec ff ff ff	 DD	 -20			; ffffffecH
  0012a	04 00 00 00	 DD	 4
  0012e	00 00 00 00	 DD	 $L192656
$L192656:
  00132	73		 DB	 115			; 00000073H
  00133	74		 DB	 116			; 00000074H
  00134	72		 DB	 114			; 00000072H
  00135	52		 DB	 82			; 00000052H
  00136	65		 DB	 101			; 00000065H
  00137	73		 DB	 115			; 00000073H
  00138	75		 DB	 117			; 00000075H
  00139	6c		 DB	 108			; 0000006cH
  0013a	74		 DB	 116			; 00000074H
  0013b	00		 DB	 0
_TEXT	ENDS
;	COMDAT text$x
text$x	SEGMENT
$L192650:
  00000	8b f4		 mov	 esi, esp
  00002	8d 4d ec	 lea	 ecx, DWORD PTR _strResult$[ebp]
  00005	ff 15 00 00 00
	00		 call	 DWORD PTR __imp_??1?$CStringT@DV?$StrTraitMFC_DLL@DV?$ChTraitsCRT@D@ATL@@@@@ATL@@QAE@XZ
  0000b	3b f4		 cmp	 esi, esp
  0000d	e9 00 00 00 00	 jmp	 __RTC_CheckEsp
__ehhandler$??HATL@@YA?AV?$CStringT@DV?$StrTraitMFC_DLL@DV?$ChTraitsCRT@D@ATL@@@@@0@ABV10@PBD@Z:
  00012	b8 00 00 00 00	 mov	 eax, OFFSET FLAT:$T192655
  00017	e9 00 00 00 00	 jmp	 ___CxxFrameHandler
text$x	ENDS
??HATL@@YA?AV?$CStringT@DV?$StrTraitMFC_DLL@DV?$ChTraitsCRT@D@ATL@@@@@0@ABV10@PBD@Z ENDP ; ATL::operator+
PUBLIC	??0?$_Vector_val@UOneLocalGame@@V?$allocator@UOneLocalGame@@@std@@@std@@IAE@V?$allocator@UOneLocalGame@@@1@@Z ; std::_Vector_val<OneLocalGame,std::allocator<OneLocalGame> >::_Vector_val<OneLocalGame,std::allocator<OneLocalGame> >
PUBLIC	??0?$allocator@UOneLocalGame@@@std@@QAE@XZ	; std::allocator<OneLocalGame>::allocator<OneLocalGame>
PUBLIC	?_Buy@?$vector@UOneLocalGame@@V?$allocator@UOneLocalGame@@@std@@@std@@IAE_NI@Z ; std::vector<OneLocalGame,std::allocator<OneLocalGame> >::_Buy
; Function compile flags: /Odt /RTCsu
; File d:\program files (x86)\microsoft visual studio .net 2003\vc7\include\vector
;	COMDAT ??0?$vector@UOneLocalGame@@V?$allocator@UOneLocalGame@@@std@@@std@@QAE@XZ
_TEXT	SEGMENT
_this$ = -4						; size = 4
??0?$vector@UOneLocalGame@@V?$allocator@UOneLocalGame@@@std@@@std@@QAE@XZ PROC NEAR ; std::vector<OneLocalGame,std::allocator<OneLocalGame> >::vector<OneLocalGame,std::allocator<OneLocalGame> >, COMDAT
; _this$ = ecx

; 299  : 		{	// construct empty vector

  00000	55		 push	 ebp
  00001	8b ec		 mov	 ebp, esp
  00003	83 ec 08	 sub	 esp, 8
  00006	c7 45 f8 cc cc
	cc cc		 mov	 DWORD PTR [ebp-8], -858993460 ; ccccccccH
  0000d	c7 45 fc cc cc
	cc cc		 mov	 DWORD PTR [ebp-4], -858993460 ; ccccccccH
  00014	89 4d fc	 mov	 DWORD PTR _this$[ebp], ecx
  00017	51		 push	 ecx
  00018	8b cc		 mov	 ecx, esp
  0001a	e8 00 00 00 00	 call	 ??0?$allocator@UOneLocalGame@@@std@@QAE@XZ ; std::allocator<OneLocalGame>::allocator<OneLocalGame>
  0001f	8b 4d fc	 mov	 ecx, DWORD PTR _this$[ebp]
  00022	e8 00 00 00 00	 call	 ??0?$_Vector_val@UOneLocalGame@@V?$allocator@UOneLocalGame@@@std@@@std@@IAE@V?$allocator@UOneLocalGame@@@1@@Z ; std::_Vector_val<OneLocalGame,std::allocator<OneLocalGame> >::_Vector_val<OneLocalGame,std::allocator<OneLocalGame> >

; 300  : 		_Buy(0);

  00027	6a 00		 push	 0
  00029	8b 4d fc	 mov	 ecx, DWORD PTR _this$[ebp]
  0002c	e8 00 00 00 00	 call	 ?_Buy@?$vector@UOneLocalGame@@V?$allocator@UOneLocalGame@@@std@@@std@@IAE_NI@Z ; std::vector<OneLocalGame,std::allocator<OneLocalGame> >::_Buy

; 301  : 		}

  00031	8b 45 fc	 mov	 eax, DWORD PTR _this$[ebp]
  00034	83 c4 08	 add	 esp, 8
  00037	3b ec		 cmp	 ebp, esp
  00039	e8 00 00 00 00	 call	 __RTC_CheckEsp
  0003e	8b e5		 mov	 esp, ebp
  00040	5d		 pop	 ebp
  00041	c3		 ret	 0
??0?$vector@UOneLocalGame@@V?$allocator@UOneLocalGame@@@std@@@std@@QAE@XZ ENDP ; std::vector<OneLocalGame,std::allocator<OneLocalGame> >::vector<OneLocalGame,std::allocator<OneLocalGame> >
_TEXT	ENDS
PUBLIC	?_Tidy@?$vector@UOneLocalGame@@V?$allocator@UOneLocalGame@@@std@@@std@@IAEXXZ ; std::vector<OneLocalGame,std::allocator<OneLocalGame> >::_Tidy
; Function compile flags: /Odt /RTCsu
;	COMDAT ??1?$vector@UOneLocalGame@@V?$allocator@UOneLocalGame@@@std@@@std@@QAE@XZ
_TEXT	SEGMENT
_this$ = -4						; size = 4
??1?$vector@UOneLocalGame@@V?$allocator@UOneLocalGame@@@std@@@std@@QAE@XZ PROC NEAR ; std::vector<OneLocalGame,std::allocator<OneLocalGame> >::~vector<OneLocalGame,std::allocator<OneLocalGame> >, COMDAT
; _this$ = ecx

; 387  : 		{	// destroy the object

  00000	55		 push	 ebp
  00001	8b ec		 mov	 ebp, esp
  00003	51		 push	 ecx
  00004	c7 45 fc cc cc
	cc cc		 mov	 DWORD PTR [ebp-4], -858993460 ; ccccccccH
  0000b	89 4d fc	 mov	 DWORD PTR _this$[ebp], ecx

; 388  : 		_Tidy();

  0000e	8b 4d fc	 mov	 ecx, DWORD PTR _this$[ebp]
  00011	e8 00 00 00 00	 call	 ?_Tidy@?$vector@UOneLocalGame@@V?$allocator@UOneLocalGame@@@std@@@std@@IAEXXZ ; std::vector<OneLocalGame,std::allocator<OneLocalGame> >::_Tidy

; 389  : 		}

  00016	83 c4 04	 add	 esp, 4
  00019	3b ec		 cmp	 ebp, esp
  0001b	e8 00 00 00 00	 call	 __RTC_CheckEsp
  00020	8b e5		 mov	 esp, ebp
  00022	5d		 pop	 ebp
  00023	c3		 ret	 0
??1?$vector@UOneLocalGame@@V?$allocator@UOneLocalGame@@@std@@@std@@QAE@XZ ENDP ; std::vector<OneLocalGame,std::allocator<OneLocalGame> >::~vector<OneLocalGame,std::allocator<OneLocalGame> >
_TEXT	ENDS
PUBLIC	??0iterator@?$vector@UOneLocalGame@@V?$allocator@UOneLocalGame@@@std@@@std@@QAE@PAUOneLocalGame@@@Z ; std::vector<OneLocalGame,std::allocator<OneLocalGame> >::iterator::iterator
; Function compile flags: /Odt /RTCsu
;	COMDAT ?begin@?$vector@UOneLocalGame@@V?$allocator@UOneLocalGame@@@std@@@std@@QAE?AViterator@12@XZ
_TEXT	SEGMENT
_this$ = -4						; size = 4
___$ReturnUdt$ = 8					; size = 4
?begin@?$vector@UOneLocalGame@@V?$allocator@UOneLocalGame@@@std@@@std@@QAE?AViterator@12@XZ PROC NEAR ; std::vector<OneLocalGame,std::allocator<OneLocalGame> >::begin, COMDAT
; _this$ = ecx

; 462  : 		{	// return iterator for beginning of mutable sequence

  00000	55		 push	 ebp
  00001	8b ec		 mov	 ebp, esp
  00003	51		 push	 ecx
  00004	c7 45 fc cc cc
	cc cc		 mov	 DWORD PTR [ebp-4], -858993460 ; ccccccccH
  0000b	89 4d fc	 mov	 DWORD PTR _this$[ebp], ecx

; 463  : 		return (iterator(_Myfirst));

  0000e	8b 45 fc	 mov	 eax, DWORD PTR _this$[ebp]
  00011	8b 48 04	 mov	 ecx, DWORD PTR [eax+4]
  00014	51		 push	 ecx
  00015	8b 4d 08	 mov	 ecx, DWORD PTR ___$ReturnUdt$[ebp]
  00018	e8 00 00 00 00	 call	 ??0iterator@?$vector@UOneLocalGame@@V?$allocator@UOneLocalGame@@@std@@@std@@QAE@PAUOneLocalGame@@@Z ; std::vector<OneLocalGame,std::allocator<OneLocalGame> >::iterator::iterator
  0001d	8b 45 08	 mov	 eax, DWORD PTR ___$ReturnUdt$[ebp]

; 464  : 		}

  00020	83 c4 04	 add	 esp, 4
  00023	3b ec		 cmp	 ebp, esp
  00025	e8 00 00 00 00	 call	 __RTC_CheckEsp
  0002a	8b e5		 mov	 esp, ebp
  0002c	5d		 pop	 ebp
  0002d	c2 04 00	 ret	 4
?begin@?$vector@UOneLocalGame@@V?$allocator@UOneLocalGame@@@std@@@std@@QAE?AViterator@12@XZ ENDP ; std::vector<OneLocalGame,std::allocator<OneLocalGame> >::begin
; Function compile flags: /Odt /RTCsu
_TEXT	ENDS
;	COMDAT ?end@?$vector@UOneLocalGame@@V?$allocator@UOneLocalGame@@@std@@@std@@QAE?AViterator@12@XZ
_TEXT	SEGMENT
_this$ = -4						; size = 4
___$ReturnUdt$ = 8					; size = 4
?end@?$vector@UOneLocalGame@@V?$allocator@UOneLocalGame@@@std@@@std@@QAE?AViterator@12@XZ PROC NEAR ; std::vector<OneLocalGame,std::allocator<OneLocalGame> >::end, COMDAT
; _this$ = ecx

; 472  : 		{	// return iterator for end of mutable sequence

  00000	55		 push	 ebp
  00001	8b ec		 mov	 ebp, esp
  00003	51		 push	 ecx
  00004	c7 45 fc cc cc
	cc cc		 mov	 DWORD PTR [ebp-4], -858993460 ; ccccccccH
  0000b	89 4d fc	 mov	 DWORD PTR _this$[ebp], ecx

; 473  : 		return (iterator(_Mylast));

  0000e	8b 45 fc	 mov	 eax, DWORD PTR _this$[ebp]
  00011	8b 48 08	 mov	 ecx, DWORD PTR [eax+8]
  00014	51		 push	 ecx
  00015	8b 4d 08	 mov	 ecx, DWORD PTR ___$ReturnUdt$[ebp]
  00018	e8 00 00 00 00	 call	 ??0iterator@?$vector@UOneLocalGame@@V?$allocator@UOneLocalGame@@@std@@@std@@QAE@PAUOneLocalGame@@@Z ; std::vector<OneLocalGame,std::allocator<OneLocalGame> >::iterator::iterator
  0001d	8b 45 08	 mov	 eax, DWORD PTR ___$ReturnUdt$[ebp]

; 474  : 		}

  00020	83 c4 04	 add	 esp, 4
  00023	3b ec		 cmp	 ebp, esp
  00025	e8 00 00 00 00	 call	 __RTC_CheckEsp
  0002a	8b e5		 mov	 esp, ebp
  0002c	5d		 pop	 ebp
  0002d	c2 04 00	 ret	 4
?end@?$vector@UOneLocalGame@@V?$allocator@UOneLocalGame@@@std@@@std@@QAE?AViterator@12@XZ ENDP ; std::vector<OneLocalGame,std::allocator<OneLocalGame> >::end
; Function compile flags: /Odt /RTCsu
_TEXT	ENDS
;	COMDAT ?size@?$vector@UOneLocalGame@@V?$allocator@UOneLocalGame@@@std@@@std@@QBEIXZ
_TEXT	SEGMENT
tv70 = -8						; size = 4
_this$ = -4						; size = 4
?size@?$vector@UOneLocalGame@@V?$allocator@UOneLocalGame@@@std@@@std@@QBEIXZ PROC NEAR ; std::vector<OneLocalGame,std::allocator<OneLocalGame> >::size, COMDAT
; _this$ = ecx

; 515  : 		{	// return length of sequence

  00000	55		 push	 ebp
  00001	8b ec		 mov	 ebp, esp
  00003	83 ec 08	 sub	 esp, 8
  00006	c7 45 f8 cc cc
	cc cc		 mov	 DWORD PTR [ebp-8], -858993460 ; ccccccccH
  0000d	c7 45 fc cc cc
	cc cc		 mov	 DWORD PTR [ebp-4], -858993460 ; ccccccccH
  00014	89 4d fc	 mov	 DWORD PTR _this$[ebp], ecx

; 516  : 		return (_Myfirst == 0 ? 0 : _Mylast - _Myfirst);

  00017	8b 45 fc	 mov	 eax, DWORD PTR _this$[ebp]
  0001a	83 78 04 00	 cmp	 DWORD PTR [eax+4], 0
  0001e	75 09		 jne	 SHORT $L192669
  00020	c7 45 f8 00 00
	00 00		 mov	 DWORD PTR tv70[ebp], 0
  00027	eb 17		 jmp	 SHORT $L192670
$L192669:
  00029	8b 4d fc	 mov	 ecx, DWORD PTR _this$[ebp]
  0002c	8b 55 fc	 mov	 edx, DWORD PTR _this$[ebp]
  0002f	8b 41 08	 mov	 eax, DWORD PTR [ecx+8]
  00032	2b 42 04	 sub	 eax, DWORD PTR [edx+4]
  00035	99		 cdq
  00036	b9 90 00 00 00	 mov	 ecx, 144		; 00000090H
  0003b	f7 f9		 idiv	 ecx
  0003d	89 45 f8	 mov	 DWORD PTR tv70[ebp], eax
$L192670:
  00040	8b 45 f8	 mov	 eax, DWORD PTR tv70[ebp]

; 517  : 		}

  00043	8b e5		 mov	 esp, ebp
  00045	5d		 pop	 ebp
  00046	c3		 ret	 0
?size@?$vector@UOneLocalGame@@V?$allocator@UOneLocalGame@@@std@@@std@@QBEIXZ ENDP ; std::vector<OneLocalGame,std::allocator<OneLocalGame> >::size
_TEXT	ENDS
PUBLIC	?_AtlInstallStringThunk@ATL@@YAXPAPAXPAX1@Z	; ATL::_AtlInstallStringThunk
PUBLIC	?GetEnvironmentVariableWFake@ATL@@YGKPB_WPA_WK@Z ; ATL::GetEnvironmentVariableWFake
EXTRN	__imp__GetEnvironmentVariableW@12:NEAR
; Function compile flags: /Odt /RTCsu
; File d:\program files (x86)\microsoft visual studio .net 2003\vc7\atlmfc\include\cstringt.h
;	COMDAT ?GetEnvironmentVariableWThunk@ATL@@YGKPB_WPA_WK@Z
_TEXT	SEGMENT
_pszName$ = 8						; size = 4
_pszBuffer$ = 12					; size = 4
_nSize$ = 16						; size = 4
?GetEnvironmentVariableWThunk@ATL@@YGKPB_WPA_WK@Z PROC NEAR ; ATL::GetEnvironmentVariableWThunk, COMDAT

; 183  : {

  00000	55		 push	 ebp
  00001	8b ec		 mov	 ebp, esp
  00003	56		 push	 esi

; 184  : 	_AtlInstallStringThunk(reinterpret_cast<void**>(&_strthunks.pfnGetEnvironmentVariableW), 
; 185  : 		GetEnvironmentVariableWFake, ::GetEnvironmentVariableW);

  00004	a1 00 00 00 00	 mov	 eax, DWORD PTR __imp__GetEnvironmentVariableW@12
  00009	50		 push	 eax
  0000a	68 00 00 00 00	 push	 OFFSET FLAT:?GetEnvironmentVariableWFake@ATL@@YGKPB_WPA_WK@Z ; ATL::GetEnvironmentVariableWFake
  0000f	68 14 00 00 00	 push	 OFFSET FLAT:?_strthunks@ATL@@3U_AtlStringThunks@1@A+20
  00014	e8 00 00 00 00	 call	 ?_AtlInstallStringThunk@ATL@@YAXPAPAXPAX1@Z ; ATL::_AtlInstallStringThunk
  00019	83 c4 0c	 add	 esp, 12			; 0000000cH

; 186  : 
; 187  : 	return _strthunks.pfnGetEnvironmentVariableW(pszName, pszBuffer, nSize);

  0001c	8b f4		 mov	 esi, esp
  0001e	8b 4d 10	 mov	 ecx, DWORD PTR _nSize$[ebp]
  00021	51		 push	 ecx
  00022	8b 55 0c	 mov	 edx, DWORD PTR _pszBuffer$[ebp]
  00025	52		 push	 edx
  00026	8b 45 08	 mov	 eax, DWORD PTR _pszName$[ebp]
  00029	50		 push	 eax
  0002a	ff 15 14 00 00
	00		 call	 DWORD PTR ?_strthunks@ATL@@3U_AtlStringThunks@1@A+20
  00030	3b f4		 cmp	 esi, esp
  00032	e8 00 00 00 00	 call	 __RTC_CheckEsp

; 188  : }

  00037	5e		 pop	 esi
  00038	3b ec		 cmp	 ebp, esp
  0003a	e8 00 00 00 00	 call	 __RTC_CheckEsp
  0003f	5d		 pop	 ebp
  00040	c2 0c 00	 ret	 12			; 0000000cH
?GetEnvironmentVariableWThunk@ATL@@YGKPB_WPA_WK@Z ENDP	; ATL::GetEnvironmentVariableWThunk
_TEXT	ENDS
PUBLIC	?s_bWin9x@?1??_AtlInstallStringThunk@ATL@@YAXPAPAXPAX1@Z@4_NA ; `ATL::_AtlInstallStringThunk'::`2'::s_bWin9x
PUBLIC	??_B?1??_AtlInstallStringThunk@ATL@@YAXPAPAXPAX1@Z@51 ; `ATL::_AtlInstallStringThunk'::`2'::`local static guard'
EXTRN	__imp__GetVersion@0:NEAR
;	COMDAT ?s_bWin9x@?1??_AtlInstallStringThunk@ATL@@YAXPAPAXPAX1@Z@4_NA
_BSS	SEGMENT
?s_bWin9x@?1??_AtlInstallStringThunk@ATL@@YAXPAPAXPAX1@Z@4_NA DB 01H DUP (?) ; `ATL::_AtlInstallStringThunk'::`2'::s_bWin9x
_BSS	ENDS
;	COMDAT ??_B?1??_AtlInstallStringThunk@ATL@@YAXPAPAXPAX1@Z@51
_BSS	SEGMENT
??_B?1??_AtlInstallStringThunk@ATL@@YAXPAPAXPAX1@Z@51 DD 01H DUP (?) ; `ATL::_AtlInstallStringThunk'::`2'::`local static guard'
; Function compile flags: /Odt /RTCsu
_BSS	ENDS
;	COMDAT ?_AtlInstallStringThunk@ATL@@YAXPAPAXPAX1@Z
_TEXT	SEGMENT
_pfn$ = -4						; size = 4
_ppThunk$ = 8						; size = 4
_pfnWin9x$ = 12						; size = 4
_pfnNT$ = 16						; size = 4
?_AtlInstallStringThunk@ATL@@YAXPAPAXPAX1@Z PROC NEAR	; ATL::_AtlInstallStringThunk, COMDAT

; 115  : {

  00000	55		 push	 ebp
  00001	8b ec		 mov	 ebp, esp
  00003	51		 push	 ecx
  00004	56		 push	 esi
  00005	c7 45 fc cc cc
	cc cc		 mov	 DWORD PTR [ebp-4], -858993460 ; ccccccccH

; 116  : #pragma warning (push)
; 117  : #pragma warning (disable : 4640)	// construction of local static object is not thread-safe
; 118  : 
; 119  : 	static bool s_bWin9x = (::GetVersion()&0x80000000) != 0;

  0000c	a1 00 00 00 00	 mov	 eax, DWORD PTR ??_B?1??_AtlInstallStringThunk@ATL@@YAXPAPAXPAX1@Z@51
  00011	83 e0 01	 and	 eax, 1
  00014	75 2e		 jne	 SHORT $L26217
  00016	8b 0d 00 00 00
	00		 mov	 ecx, DWORD PTR ??_B?1??_AtlInstallStringThunk@ATL@@YAXPAPAXPAX1@Z@51
  0001c	83 c9 01	 or	 ecx, 1
  0001f	89 0d 00 00 00
	00		 mov	 DWORD PTR ??_B?1??_AtlInstallStringThunk@ATL@@YAXPAPAXPAX1@Z@51, ecx
  00025	8b f4		 mov	 esi, esp
  00027	ff 15 00 00 00
	00		 call	 DWORD PTR __imp__GetVersion@0
  0002d	3b f4		 cmp	 esi, esp
  0002f	e8 00 00 00 00	 call	 __RTC_CheckEsp
  00034	25 00 00 00 80	 and	 eax, -2147483648	; 80000000H
  00039	f7 d8		 neg	 eax
  0003b	1b c0		 sbb	 eax, eax
  0003d	f7 d8		 neg	 eax
  0003f	a2 00 00 00 00	 mov	 BYTE PTR ?s_bWin9x@?1??_AtlInstallStringThunk@ATL@@YAXPAPAXPAX1@Z@4_NA, al ; `ATL::_AtlInstallStringThunk'::`2'::s_bWin9x
$L26217:

; 120  : 	
; 121  : #pragma warning (pop)
; 122  : 
; 123  : 	void* pfn;
; 124  : 	if (s_bWin9x)

  00044	0f b6 15 00 00
	00 00		 movzx	 edx, BYTE PTR ?s_bWin9x@?1??_AtlInstallStringThunk@ATL@@YAXPAPAXPAX1@Z@4_NA ; `ATL::_AtlInstallStringThunk'::`2'::s_bWin9x
  0004b	85 d2		 test	 edx, edx
  0004d	74 08		 je	 SHORT $L26219

; 125  : 		pfn = pfnWin9x;

  0004f	8b 45 0c	 mov	 eax, DWORD PTR _pfnWin9x$[ebp]
  00052	89 45 fc	 mov	 DWORD PTR _pfn$[ebp], eax

; 126  : 	else

  00055	eb 06		 jmp	 SHORT $L26220
$L26219:

; 127  : 	{
; 128  : #ifdef _CSTRING_ALWAYS_THUNK
; 129  : 		pfn = pfnWin9x;
; 130  : 		(void)pfnNT;
; 131  : #else
; 132  : 		pfn = pfnNT;

  00057	8b 4d 10	 mov	 ecx, DWORD PTR _pfnNT$[ebp]
  0005a	89 4d fc	 mov	 DWORD PTR _pfn$[ebp], ecx
$L26220:

; 133  : #endif
; 134  : 	}
; 135  : 	InterlockedExchangePointer(ppThunk, pfn);

  0005d	8b 55 fc	 mov	 edx, DWORD PTR _pfn$[ebp]
  00060	52		 push	 edx
  00061	8b 45 08	 mov	 eax, DWORD PTR _ppThunk$[ebp]
  00064	50		 push	 eax
  00065	e8 00 00 00 00	 call	 ?InterlockedExchangePointer@@YGPAXPAPAXPAX@Z ; InterlockedExchangePointer

; 136  : }

  0006a	5e		 pop	 esi
  0006b	83 c4 04	 add	 esp, 4
  0006e	3b ec		 cmp	 ebp, esp
  00070	e8 00 00 00 00	 call	 __RTC_CheckEsp
  00075	8b e5		 mov	 esp, ebp
  00077	5d		 pop	 ebp
  00078	c3		 ret	 0
?_AtlInstallStringThunk@ATL@@YAXPAPAXPAX1@Z ENDP	; ATL::_AtlInstallStringThunk
_TEXT	ENDS
PUBLIC	??_C@_0FH@KDPNIMBO@D?3?2Program?5Files?5?$CIx86?$CJ?2Microsoft@ ; `string'
PUBLIC	?_AtlGetConversionACP@ATL@@YGIXZ		; ATL::_AtlGetConversionACP
PUBLIC	??0?$CTempBuffer@D$0IA@VCCRTAllocator@ATL@@@ATL@@QAE@XZ ; ATL::CTempBuffer<char,128,ATL::CCRTAllocator>::CTempBuffer<char,128,ATL::CCRTAllocator>
PUBLIC	??1?$CTempBuffer@D$0IA@VCCRTAllocator@ATL@@@ATL@@QAE@XZ ; ATL::CTempBuffer<char,128,ATL::CCRTAllocator>::~CTempBuffer<char,128,ATL::CCRTAllocator>
PUBLIC	??B?$CTempBuffer@D$0IA@VCCRTAllocator@ATL@@@ATL@@QBEPADXZ ; ATL::CTempBuffer<char,128,ATL::CCRTAllocator>::operator char *
PUBLIC	?Allocate@?$CTempBuffer@D$0IA@VCCRTAllocator@ATL@@@ATL@@QAEPADI@Z ; ATL::CTempBuffer<char,128,ATL::CCRTAllocator>::Allocate
PUBLIC	??0?$CW2AEX@$0IA@@ATL@@QAE@PB_W@Z		; ATL::CW2AEX<128>::CW2AEX<128>
PUBLIC	??1?$CW2AEX@$0IA@@ATL@@QAE@XZ			; ATL::CW2AEX<128>::~CW2AEX<128>
PUBLIC	??B?$CW2AEX@$0IA@@ATL@@QBEPADXZ			; ATL::CW2AEX<128>::operator char *
PUBLIC	??_C@_0BA@CLMJJCOM@nSize?5?$DO?$DN?5nSizeW?$AA@	; `string'
EXTRN	__imp___CrtDbgReport:NEAR
EXTRN	__imp__MultiByteToWideChar@24:NEAR
EXTRN	__imp__GetEnvironmentVariableA@12:NEAR
;	COMDAT xdata$x
xdata$x	SEGMENT
$T192689 DD	0ffffffffH
	DD	FLAT:$L192679
	DD	00H
	DD	FLAT:$L192680
$T192682 DD	019930520H
	DD	02H
	DD	FLAT:$T192689
	DD	2 DUP(00H)
	DD	2 DUP(00H)
xdata$x	ENDS
;	COMDAT ??_C@_0BA@CLMJJCOM@nSize?5?$DO?$DN?5nSizeW?$AA@
CONST	SEGMENT
??_C@_0BA@CLMJJCOM@nSize?5?$DO?$DN?5nSizeW?$AA@ DB 'nSize >= nSizeW', 00H ; `string'
CONST	ENDS
;	COMDAT ??_C@_0FH@KDPNIMBO@D?3?2Program?5Files?5?$CIx86?$CJ?2Microsoft@
CONST	SEGMENT
??_C@_0FH@KDPNIMBO@D?3?2Program?5Files?5?$CIx86?$CJ?2Microsoft@ DB 'D:\Pr'
	DB	'ogram Files (x86)\Microsoft Visual Studio .NET 2003\Vc7\atlmf'
	DB	'c\include\cstringt.h', 00H			; `string'
; Function compile flags: /Odt /RTCsu
CONST	ENDS
;	COMDAT ?GetEnvironmentVariableWFake@ATL@@YGKPB_WPA_WK@Z
_TEXT	SEGMENT
$T192678 = -316						; size = 4
$T192676 = -312						; size = 4
$T192675 = -308						; size = 4
_pszNameA$ = -300					; size = 132
_pszBufferA$ = -160					; size = 132
_nSizeW$ = -24						; size = 4
_nSizeA$ = -20						; size = 4
__$ArrayPad$ = -16					; size = 4
__$EHRec$ = -12						; size = 12
__$ReturnAddr$ = 4					; size = 4
_pszName$ = 8						; size = 4
_pszBuffer$ = 12					; size = 4
_nSize$ = 16						; size = 4
?GetEnvironmentVariableWFake@ATL@@YGKPB_WPA_WK@Z PROC NEAR ; ATL::GetEnvironmentVariableWFake, COMDAT

; 159  : {

  00000	55		 push	 ebp
  00001	8b ec		 mov	 ebp, esp
  00003	6a ff		 push	 -1
  00005	68 00 00 00 00	 push	 __ehhandler$?GetEnvironmentVariableWFake@ATL@@YGKPB_WPA_WK@Z
  0000a	64 a1 00 00 00
	00		 mov	 eax, DWORD PTR fs:__except_list
  00010	50		 push	 eax
  00011	64 89 25 00 00
	00 00		 mov	 DWORD PTR fs:__except_list, esp
  00018	81 ec 30 01 00
	00		 sub	 esp, 304		; 00000130H
  0001e	56		 push	 esi
  0001f	57		 push	 edi
  00020	8d bd c4 fe ff
	ff		 lea	 edi, DWORD PTR [ebp-316]
  00026	b9 4c 00 00 00	 mov	 ecx, 76			; 0000004cH
  0002b	b8 cc cc cc cc	 mov	 eax, -858993460		; ccccccccH
  00030	f3 ab		 rep stosd
  00032	a1 00 00 00 00	 mov	 eax, DWORD PTR ___security_cookie
  00037	89 45 f0	 mov	 DWORD PTR __$ArrayPad$[ebp], eax

; 160  : 	ULONG nSizeA;
; 161  : 	ULONG nSizeW;
; 162  : 	CTempBuffer<char> pszBufferA;

  0003a	8d 8d 60 ff ff
	ff		 lea	 ecx, DWORD PTR _pszBufferA$[ebp]
  00040	e8 00 00 00 00	 call	 ??0?$CTempBuffer@D$0IA@VCCRTAllocator@ATL@@@ATL@@QAE@XZ ; ATL::CTempBuffer<char,128,ATL::CCRTAllocator>::CTempBuffer<char,128,ATL::CCRTAllocator>
  00045	c7 45 fc 00 00
	00 00		 mov	 DWORD PTR __$EHRec$[ebp+8], 0

; 163  : 	CW2A pszNameA(pszName);

  0004c	8b 45 08	 mov	 eax, DWORD PTR _pszName$[ebp]
  0004f	50		 push	 eax
  00050	8d 8d d4 fe ff
	ff		 lea	 ecx, DWORD PTR _pszNameA$[ebp]
  00056	e8 00 00 00 00	 call	 ??0?$CW2AEX@$0IA@@ATL@@QAE@PB_W@Z ; ATL::CW2AEX<128>::CW2AEX<128>
  0005b	c6 45 fc 01	 mov	 BYTE PTR __$EHRec$[ebp+8], 1

; 164  : 
; 165  : 	nSizeA = ::GetEnvironmentVariableA(pszNameA, NULL, 0);

  0005f	8b f4		 mov	 esi, esp
  00061	6a 00		 push	 0
  00063	6a 00		 push	 0
  00065	8d 8d d4 fe ff
	ff		 lea	 ecx, DWORD PTR _pszNameA$[ebp]
  0006b	e8 00 00 00 00	 call	 ??B?$CW2AEX@$0IA@@ATL@@QBEPADXZ ; ATL::CW2AEX<128>::operator char *
  00070	50		 push	 eax
  00071	ff 15 00 00 00
	00		 call	 DWORD PTR __imp__GetEnvironmentVariableA@12
  00077	3b f4		 cmp	 esi, esp
  00079	e8 00 00 00 00	 call	 __RTC_CheckEsp
  0007e	89 45 ec	 mov	 DWORD PTR _nSizeA$[ebp], eax

; 166  : 	if (nSizeA == 0)

  00081	83 7d ec 00	 cmp	 DWORD PTR _nSizeA$[ebp], 0
  00085	75 36		 jne	 SHORT $L26322

; 167  : 		return 0;

  00087	c7 85 cc fe ff
	ff 00 00 00 00	 mov	 DWORD PTR $T192675[ebp], 0
  00091	c6 45 fc 00	 mov	 BYTE PTR __$EHRec$[ebp+8], 0
  00095	8d 8d d4 fe ff
	ff		 lea	 ecx, DWORD PTR _pszNameA$[ebp]
  0009b	e8 00 00 00 00	 call	 ??1?$CW2AEX@$0IA@@ATL@@QAE@XZ ; ATL::CW2AEX<128>::~CW2AEX<128>
  000a0	c7 45 fc ff ff
	ff ff		 mov	 DWORD PTR __$EHRec$[ebp+8], -1
  000a7	8d 8d 60 ff ff
	ff		 lea	 ecx, DWORD PTR _pszBufferA$[ebp]
  000ad	e8 00 00 00 00	 call	 ??1?$CTempBuffer@D$0IA@VCCRTAllocator@ATL@@@ATL@@QAE@XZ ; ATL::CTempBuffer<char,128,ATL::CCRTAllocator>::~CTempBuffer<char,128,ATL::CCRTAllocator>
  000b2	8b 85 cc fe ff
	ff		 mov	 eax, DWORD PTR $T192675[ebp]
  000b8	e9 33 01 00 00	 jmp	 $L26263
$L26322:

; 168  : 
; 169  : 	pszBufferA.Allocate(nSizeA*2);

  000bd	8b 4d ec	 mov	 ecx, DWORD PTR _nSizeA$[ebp]
  000c0	d1 e1		 shl	 ecx, 1
  000c2	51		 push	 ecx
  000c3	8d 8d 60 ff ff
	ff		 lea	 ecx, DWORD PTR _pszBufferA$[ebp]
  000c9	e8 00 00 00 00	 call	 ?Allocate@?$CTempBuffer@D$0IA@VCCRTAllocator@ATL@@@ATL@@QAEPADI@Z ; ATL::CTempBuffer<char,128,ATL::CCRTAllocator>::Allocate

; 170  : 	::GetEnvironmentVariableA(pszNameA, pszBufferA, nSizeA);

  000ce	8b f4		 mov	 esi, esp
  000d0	8b 55 ec	 mov	 edx, DWORD PTR _nSizeA$[ebp]
  000d3	52		 push	 edx
  000d4	8d 8d 60 ff ff
	ff		 lea	 ecx, DWORD PTR _pszBufferA$[ebp]
  000da	e8 00 00 00 00	 call	 ??B?$CTempBuffer@D$0IA@VCCRTAllocator@ATL@@@ATL@@QBEPADXZ ; ATL::CTempBuffer<char,128,ATL::CCRTAllocator>::operator char *
  000df	50		 push	 eax
  000e0	8d 8d d4 fe ff
	ff		 lea	 ecx, DWORD PTR _pszNameA$[ebp]
  000e6	e8 00 00 00 00	 call	 ??B?$CW2AEX@$0IA@@ATL@@QBEPADXZ ; ATL::CW2AEX<128>::operator char *
  000eb	50		 push	 eax
  000ec	ff 15 00 00 00
	00		 call	 DWORD PTR __imp__GetEnvironmentVariableA@12
  000f2	3b f4		 cmp	 esi, esp
  000f4	e8 00 00 00 00	 call	 __RTC_CheckEsp

; 171  : 
; 172  : 	nSizeW = ::MultiByteToWideChar(_AtlGetConversionACP(), 0, pszBufferA, -1, NULL, 0);

  000f9	8b f4		 mov	 esi, esp
  000fb	6a 00		 push	 0
  000fd	6a 00		 push	 0
  000ff	6a ff		 push	 -1
  00101	8d 8d 60 ff ff
	ff		 lea	 ecx, DWORD PTR _pszBufferA$[ebp]
  00107	e8 00 00 00 00	 call	 ??B?$CTempBuffer@D$0IA@VCCRTAllocator@ATL@@@ATL@@QBEPADXZ ; ATL::CTempBuffer<char,128,ATL::CCRTAllocator>::operator char *
  0010c	50		 push	 eax
  0010d	6a 00		 push	 0
  0010f	e8 00 00 00 00	 call	 ?_AtlGetConversionACP@ATL@@YGIXZ ; ATL::_AtlGetConversionACP
  00114	50		 push	 eax
  00115	ff 15 00 00 00
	00		 call	 DWORD PTR __imp__MultiByteToWideChar@24
  0011b	3b f4		 cmp	 esi, esp
  0011d	e8 00 00 00 00	 call	 __RTC_CheckEsp
  00122	89 45 e8	 mov	 DWORD PTR _nSizeW$[ebp], eax

; 173  : 	if (nSize == 0)

  00125	83 7d 10 00	 cmp	 DWORD PTR _nSize$[ebp], 0
  00129	75 35		 jne	 SHORT $L26324

; 174  : 		return nSizeW;

  0012b	8b 45 e8	 mov	 eax, DWORD PTR _nSizeW$[ebp]
  0012e	89 85 c8 fe ff
	ff		 mov	 DWORD PTR $T192676[ebp], eax
  00134	c6 45 fc 00	 mov	 BYTE PTR __$EHRec$[ebp+8], 0
  00138	8d 8d d4 fe ff
	ff		 lea	 ecx, DWORD PTR _pszNameA$[ebp]
  0013e	e8 00 00 00 00	 call	 ??1?$CW2AEX@$0IA@@ATL@@QAE@XZ ; ATL::CW2AEX<128>::~CW2AEX<128>
  00143	c7 45 fc ff ff
	ff ff		 mov	 DWORD PTR __$EHRec$[ebp+8], -1
  0014a	8d 8d 60 ff ff
	ff		 lea	 ecx, DWORD PTR _pszBufferA$[ebp]
  00150	e8 00 00 00 00	 call	 ??1?$CTempBuffer@D$0IA@VCCRTAllocator@ATL@@@ATL@@QAE@XZ ; ATL::CTempBuffer<char,128,ATL::CCRTAllocator>::~CTempBuffer<char,128,ATL::CCRTAllocator>
  00155	8b 85 c8 fe ff
	ff		 mov	 eax, DWORD PTR $T192676[ebp]
  0015b	e9 90 00 00 00	 jmp	 $L26263
$L26324:

; 175  : 	ATLASSERT(nSize >= nSizeW);

  00160	8b 4d 10	 mov	 ecx, DWORD PTR _nSize$[ebp]
  00163	3b 4d e8	 cmp	 ecx, DWORD PTR _nSizeW$[ebp]
  00166	73 2b		 jae	 SHORT $L192677
  00168	8b f4		 mov	 esi, esp
  0016a	68 00 00 00 00	 push	 OFFSET FLAT:??_C@_0BA@CLMJJCOM@nSize?5?$DO?$DN?5nSizeW?$AA@
  0016f	6a 00		 push	 0
  00171	68 af 00 00 00	 push	 175			; 000000afH
  00176	68 00 00 00 00	 push	 OFFSET FLAT:??_C@_0FH@KDPNIMBO@D?3?2Program?5Files?5?$CIx86?$CJ?2Microsoft@
  0017b	6a 02		 push	 2
  0017d	ff 15 00 00 00
	00		 call	 DWORD PTR __imp___CrtDbgReport
  00183	83 c4 14	 add	 esp, 20			; 00000014H
  00186	3b f4		 cmp	 esi, esp
  00188	e8 00 00 00 00	 call	 __RTC_CheckEsp
  0018d	83 f8 01	 cmp	 eax, 1
  00190	75 01		 jne	 SHORT $L192677
  00192	cc		 int	 3
$L192677:

; 176  : 	::MultiByteToWideChar(_AtlGetConversionACP(), 0, pszBufferA, -1, pszBuffer, nSizeW);

  00193	8b f4		 mov	 esi, esp
  00195	8b 45 e8	 mov	 eax, DWORD PTR _nSizeW$[ebp]
  00198	50		 push	 eax
  00199	8b 4d 0c	 mov	 ecx, DWORD PTR _pszBuffer$[ebp]
  0019c	51		 push	 ecx
  0019d	6a ff		 push	 -1
  0019f	8d 8d 60 ff ff
	ff		 lea	 ecx, DWORD PTR _pszBufferA$[ebp]
  001a5	e8 00 00 00 00	 call	 ??B?$CTempBuffer@D$0IA@VCCRTAllocator@ATL@@@ATL@@QBEPADXZ ; ATL::CTempBuffer<char,128,ATL::CCRTAllocator>::operator char *
  001aa	50		 push	 eax
  001ab	6a 00		 push	 0
  001ad	e8 00 00 00 00	 call	 ?_AtlGetConversionACP@ATL@@YGIXZ ; ATL::_AtlGetConversionACP
  001b2	50		 push	 eax
  001b3	ff 15 00 00 00
	00		 call	 DWORD PTR __imp__MultiByteToWideChar@24
  001b9	3b f4		 cmp	 esi, esp
  001bb	e8 00 00 00 00	 call	 __RTC_CheckEsp

; 177  : 
; 178  : 	return nSizeW;

  001c0	8b 55 e8	 mov	 edx, DWORD PTR _nSizeW$[ebp]
  001c3	89 95 c4 fe ff
	ff		 mov	 DWORD PTR $T192678[ebp], edx
  001c9	c6 45 fc 00	 mov	 BYTE PTR __$EHRec$[ebp+8], 0
  001cd	8d 8d d4 fe ff
	ff		 lea	 ecx, DWORD PTR _pszNameA$[ebp]
  001d3	e8 00 00 00 00	 call	 ??1?$CW2AEX@$0IA@@ATL@@QAE@XZ ; ATL::CW2AEX<128>::~CW2AEX<128>
  001d8	c7 45 fc ff ff
	ff ff		 mov	 DWORD PTR __$EHRec$[ebp+8], -1
  001df	8d 8d 60 ff ff
	ff		 lea	 ecx, DWORD PTR _pszBufferA$[ebp]
  001e5	e8 00 00 00 00	 call	 ??1?$CTempBuffer@D$0IA@VCCRTAllocator@ATL@@@ATL@@QAE@XZ ; ATL::CTempBuffer<char,128,ATL::CCRTAllocator>::~CTempBuffer<char,128,ATL::CCRTAllocator>
  001ea	8b 85 c4 fe ff
	ff		 mov	 eax, DWORD PTR $T192678[ebp]
$L26263:

; 179  : }

  001f0	52		 push	 edx
  001f1	8b cd		 mov	 ecx, ebp
  001f3	50		 push	 eax
  001f4	8d 15 00 00 00
	00		 lea	 edx, DWORD PTR $L192688
  001fa	e8 00 00 00 00	 call	 @_RTC_CheckStackVars@8
  001ff	58		 pop	 eax
  00200	5a		 pop	 edx
  00201	8b 4d f4	 mov	 ecx, DWORD PTR __$EHRec$[ebp]
  00204	64 89 0d 00 00
	00 00		 mov	 DWORD PTR fs:__except_list, ecx
  0020b	8b 4d f0	 mov	 ecx, DWORD PTR __$ArrayPad$[ebp]
  0020e	e8 00 00 00 00	 call	 @__security_check_cookie@4
  00213	5f		 pop	 edi
  00214	5e		 pop	 esi
  00215	81 c4 3c 01 00
	00		 add	 esp, 316		; 0000013cH
  0021b	3b ec		 cmp	 ebp, esp
  0021d	e8 00 00 00 00	 call	 __RTC_CheckEsp
  00222	8b e5		 mov	 esp, ebp
  00224	5d		 pop	 ebp
  00225	c2 0c 00	 ret	 12			; 0000000cH
$L192688:
  00228	02 00 00 00	 DD	 2
  0022c	00 00 00 00	 DD	 $L192687
$L192687:
  00230	60 ff ff ff	 DD	 -160			; ffffff60H
  00234	84 00 00 00	 DD	 132			; 00000084H
  00238	00 00 00 00	 DD	 $L192683
  0023c	d4 fe ff ff	 DD	 -300			; fffffed4H
  00240	84 00 00 00	 DD	 132			; 00000084H
  00244	00 00 00 00	 DD	 $L192684
$L192684:
  00248	70		 DB	 112			; 00000070H
  00249	73		 DB	 115			; 00000073H
  0024a	7a		 DB	 122			; 0000007aH
  0024b	4e		 DB	 78			; 0000004eH
  0024c	61		 DB	 97			; 00000061H
  0024d	6d		 DB	 109			; 0000006dH
  0024e	65		 DB	 101			; 00000065H
  0024f	41		 DB	 65			; 00000041H
  00250	00		 DB	 0
$L192683:
  00251	70		 DB	 112			; 00000070H
  00252	73		 DB	 115			; 00000073H
  00253	7a		 DB	 122			; 0000007aH
  00254	42		 DB	 66			; 00000042H
  00255	75		 DB	 117			; 00000075H
  00256	66		 DB	 102			; 00000066H
  00257	66		 DB	 102			; 00000066H
  00258	65		 DB	 101			; 00000065H
  00259	72		 DB	 114			; 00000072H
  0025a	41		 DB	 65			; 00000041H
  0025b	00		 DB	 0
_TEXT	ENDS
;	COMDAT text$x
text$x	SEGMENT
$L192679:
  00000	8d 8d 60 ff ff
	ff		 lea	 ecx, DWORD PTR _pszBufferA$[ebp]
  00006	e9 00 00 00 00	 jmp	 ??1?$CTempBuffer@D$0IA@VCCRTAllocator@ATL@@@ATL@@QAE@XZ ; ATL::CTempBuffer<char,128,ATL::CCRTAllocator>::~CTempBuffer<char,128,ATL::CCRTAllocator>
$L192680:
  0000b	8d 8d d4 fe ff
	ff		 lea	 ecx, DWORD PTR _pszNameA$[ebp]
  00011	e9 00 00 00 00	 jmp	 ??1?$CW2AEX@$0IA@@ATL@@QAE@XZ ; ATL::CW2AEX<128>::~CW2AEX<128>
__ehhandler$?GetEnvironmentVariableWFake@ATL@@YGKPB_WPA_WK@Z:
  00016	b8 00 00 00 00	 mov	 eax, OFFSET FLAT:$T192682
  0001b	e9 00 00 00 00	 jmp	 ___CxxFrameHandler
text$x	ENDS
?GetEnvironmentVariableWFake@ATL@@YGKPB_WPA_WK@Z ENDP	; ATL::GetEnvironmentVariableWFake
; Function compile flags: /Odt /RTCsu
; File d:\program files (x86)\microsoft visual studio .net 2003\vc7\atlmfc\include\atlconv.h
;	COMDAT ?_AtlGetConversionACP@ATL@@YGIXZ
_TEXT	SEGMENT
?_AtlGetConversionACP@ATL@@YGIXZ PROC NEAR		; ATL::_AtlGetConversionACP, COMDAT

; 157  : {

  00000	55		 push	 ebp
  00001	8b ec		 mov	 ebp, esp
  00003	56		 push	 esi

; 158  : 	return( g_pfnGetThreadACP() );

  00004	8b f4		 mov	 esi, esp
  00006	ff 15 00 00 00
	00		 call	 DWORD PTR ?g_pfnGetThreadACP@ATL@@3P6GIXZA ; ATL::g_pfnGetThreadACP
  0000c	3b f4		 cmp	 esi, esp
  0000e	e8 00 00 00 00	 call	 __RTC_CheckEsp

; 159  : }

  00013	5e		 pop	 esi
  00014	3b ec		 cmp	 ebp, esp
  00016	e8 00 00 00 00	 call	 __RTC_CheckEsp
  0001b	5d		 pop	 ebp
  0001c	c3		 ret	 0
?_AtlGetConversionACP@ATL@@YGIXZ ENDP			; ATL::_AtlGetConversionACP
_TEXT	ENDS
PUBLIC	?capacity@?$vector@UOneLocalGame@@V?$allocator@UOneLocalGame@@@std@@@std@@QBEIXZ ; std::vector<OneLocalGame,std::allocator<OneLocalGame> >::capacity
PUBLIC	?insert@?$vector@UOneLocalGame@@V?$allocator@UOneLocalGame@@@std@@@std@@QAE?AViterator@12@V312@ABUOneLocalGame@@@Z ; std::vector<OneLocalGame,std::allocator<OneLocalGame> >::insert
PUBLIC	?_Ufill@?$vector@UOneLocalGame@@V?$allocator@UOneLocalGame@@@std@@@std@@IAEPAUOneLocalGame@@PAU3@IABU3@@Z ; std::vector<OneLocalGame,std::allocator<OneLocalGame> >::_Ufill
; Function compile flags: /Odt /RTCsu
; File d:\program files (x86)\microsoft visual studio .net 2003\vc7\include\vector
;	COMDAT ?push_back@?$vector@UOneLocalGame@@V?$allocator@UOneLocalGame@@@std@@@std@@QAEXABUOneLocalGame@@@Z
_TEXT	SEGMENT
$T192695 = -12						; size = 4
$T192694 = -8						; size = 4
_this$ = -4						; size = 4
__Val$ = 8						; size = 4
?push_back@?$vector@UOneLocalGame@@V?$allocator@UOneLocalGame@@@std@@@std@@QAEXABUOneLocalGame@@@Z PROC NEAR ; std::vector<OneLocalGame,std::allocator<OneLocalGame> >::push_back, COMDAT
; _this$ = ecx

; 579  : 		{	// insert element at end

  00000	55		 push	 ebp
  00001	8b ec		 mov	 ebp, esp
  00003	83 ec 0c	 sub	 esp, 12			; 0000000cH
  00006	56		 push	 esi
  00007	c7 45 f4 cc cc
	cc cc		 mov	 DWORD PTR [ebp-12], -858993460 ; ccccccccH
  0000e	c7 45 f8 cc cc
	cc cc		 mov	 DWORD PTR [ebp-8], -858993460 ; ccccccccH
  00015	c7 45 fc cc cc
	cc cc		 mov	 DWORD PTR [ebp-4], -858993460 ; ccccccccH
  0001c	89 4d fc	 mov	 DWORD PTR _this$[ebp], ecx

; 580  : 		if (size() < capacity())

  0001f	8b 4d fc	 mov	 ecx, DWORD PTR _this$[ebp]
  00022	e8 00 00 00 00	 call	 ?size@?$vector@UOneLocalGame@@V?$allocator@UOneLocalGame@@@std@@@std@@QBEIXZ ; std::vector<OneLocalGame,std::allocator<OneLocalGame> >::size
  00027	8b f0		 mov	 esi, eax
  00029	8b 4d fc	 mov	 ecx, DWORD PTR _this$[ebp]
  0002c	e8 00 00 00 00	 call	 ?capacity@?$vector@UOneLocalGame@@V?$allocator@UOneLocalGame@@@std@@@std@@QBEIXZ ; std::vector<OneLocalGame,std::allocator<OneLocalGame> >::capacity
  00031	3b f0		 cmp	 esi, eax
  00033	73 1d		 jae	 SHORT $L190626

; 581  : 			_Mylast = _Ufill(_Mylast, 1, _Val);

  00035	8b 45 08	 mov	 eax, DWORD PTR __Val$[ebp]
  00038	50		 push	 eax
  00039	6a 01		 push	 1
  0003b	8b 4d fc	 mov	 ecx, DWORD PTR _this$[ebp]
  0003e	8b 51 08	 mov	 edx, DWORD PTR [ecx+8]
  00041	52		 push	 edx
  00042	8b 4d fc	 mov	 ecx, DWORD PTR _this$[ebp]
  00045	e8 00 00 00 00	 call	 ?_Ufill@?$vector@UOneLocalGame@@V?$allocator@UOneLocalGame@@@std@@@std@@IAEPAUOneLocalGame@@PAU3@IABU3@@Z ; std::vector<OneLocalGame,std::allocator<OneLocalGame> >::_Ufill
  0004a	8b 4d fc	 mov	 ecx, DWORD PTR _this$[ebp]
  0004d	89 41 08	 mov	 DWORD PTR [ecx+8], eax

; 582  : 		else

  00050	eb 1f		 jmp	 SHORT $L190625
$L190626:

; 583  : 			insert(end(), _Val);

  00052	8b 55 08	 mov	 edx, DWORD PTR __Val$[ebp]
  00055	52		 push	 edx
  00056	8d 45 f8	 lea	 eax, DWORD PTR $T192694[ebp]
  00059	50		 push	 eax
  0005a	8b 4d fc	 mov	 ecx, DWORD PTR _this$[ebp]
  0005d	e8 00 00 00 00	 call	 ?end@?$vector@UOneLocalGame@@V?$allocator@UOneLocalGame@@@std@@@std@@QAE?AViterator@12@XZ ; std::vector<OneLocalGame,std::allocator<OneLocalGame> >::end
  00062	8b 08		 mov	 ecx, DWORD PTR [eax]
  00064	51		 push	 ecx
  00065	8d 55 f4	 lea	 edx, DWORD PTR $T192695[ebp]
  00068	52		 push	 edx
  00069	8b 4d fc	 mov	 ecx, DWORD PTR _this$[ebp]
  0006c	e8 00 00 00 00	 call	 ?insert@?$vector@UOneLocalGame@@V?$allocator@UOneLocalGame@@@std@@@std@@QAE?AViterator@12@V312@ABUOneLocalGame@@@Z ; std::vector<OneLocalGame,std::allocator<OneLocalGame> >::insert
$L190625:

; 584  : 		}

  00071	5e		 pop	 esi
  00072	83 c4 0c	 add	 esp, 12			; 0000000cH
  00075	3b ec		 cmp	 ebp, esp
  00077	e8 00 00 00 00	 call	 __RTC_CheckEsp
  0007c	8b e5		 mov	 esp, ebp
  0007e	5d		 pop	 ebp
  0007f	c2 04 00	 ret	 4
?push_back@?$vector@UOneLocalGame@@V?$allocator@UOneLocalGame@@@std@@@std@@QAEXABUOneLocalGame@@@Z ENDP ; std::vector<OneLocalGame,std::allocator<OneLocalGame> >::push_back
_TEXT	ENDS
PUBLIC	??$copy@PAUOneLocalGame@@PAU1@@std@@YAPAUOneLocalGame@@PAU1@00@Z ; std::copy<OneLocalGame *,OneLocalGame *>
PUBLIC	?_Destroy@?$vector@UOneLocalGame@@V?$allocator@UOneLocalGame@@@std@@@std@@IAEXPAUOneLocalGame@@0@Z ; std::vector<OneLocalGame,std::allocator<OneLocalGame> >::_Destroy
; Function compile flags: /Odt /RTCsu
;	COMDAT ?erase@?$vector@UOneLocalGame@@V?$allocator@UOneLocalGame@@@std@@@std@@QAE?AViterator@12@V312@@Z
_TEXT	SEGMENT
_this$ = -4						; size = 4
___$ReturnUdt$ = 8					; size = 4
__Where$ = 12						; size = 4
?erase@?$vector@UOneLocalGame@@V?$allocator@UOneLocalGame@@@std@@@std@@QAE?AViterator@12@V312@@Z PROC NEAR ; std::vector<OneLocalGame,std::allocator<OneLocalGame> >::erase, COMDAT
; _this$ = ecx

; 723  : 		{	// erase element at where

  00000	55		 push	 ebp
  00001	8b ec		 mov	 ebp, esp
  00003	51		 push	 ecx
  00004	c7 45 fc cc cc
	cc cc		 mov	 DWORD PTR [ebp-4], -858993460 ; ccccccccH
  0000b	89 4d fc	 mov	 DWORD PTR _this$[ebp], ecx

; 724  : 		copy(_ITER_BASE(_Where) + 1, _Mylast, _ITER_BASE(_Where));

  0000e	8b 45 0c	 mov	 eax, DWORD PTR __Where$[ebp]
  00011	50		 push	 eax
  00012	8b 4d fc	 mov	 ecx, DWORD PTR _this$[ebp]
  00015	8b 51 08	 mov	 edx, DWORD PTR [ecx+8]
  00018	52		 push	 edx
  00019	8b 45 0c	 mov	 eax, DWORD PTR __Where$[ebp]
  0001c	05 90 00 00 00	 add	 eax, 144		; 00000090H
  00021	50		 push	 eax
  00022	e8 00 00 00 00	 call	 ??$copy@PAUOneLocalGame@@PAU1@@std@@YAPAUOneLocalGame@@PAU1@00@Z ; std::copy<OneLocalGame *,OneLocalGame *>
  00027	83 c4 0c	 add	 esp, 12			; 0000000cH

; 725  : 		_Destroy(_Mylast - 1, _Mylast);

  0002a	8b 4d fc	 mov	 ecx, DWORD PTR _this$[ebp]
  0002d	8b 51 08	 mov	 edx, DWORD PTR [ecx+8]
  00030	52		 push	 edx
  00031	8b 45 fc	 mov	 eax, DWORD PTR _this$[ebp]
  00034	8b 48 08	 mov	 ecx, DWORD PTR [eax+8]
  00037	81 e9 90 00 00
	00		 sub	 ecx, 144		; 00000090H
  0003d	51		 push	 ecx
  0003e	8b 4d fc	 mov	 ecx, DWORD PTR _this$[ebp]
  00041	e8 00 00 00 00	 call	 ?_Destroy@?$vector@UOneLocalGame@@V?$allocator@UOneLocalGame@@@std@@@std@@IAEXPAUOneLocalGame@@0@Z ; std::vector<OneLocalGame,std::allocator<OneLocalGame> >::_Destroy

; 726  : 		--_Mylast;

  00046	8b 55 fc	 mov	 edx, DWORD PTR _this$[ebp]
  00049	8b 42 08	 mov	 eax, DWORD PTR [edx+8]
  0004c	2d 90 00 00 00	 sub	 eax, 144		; 00000090H
  00051	8b 4d fc	 mov	 ecx, DWORD PTR _this$[ebp]
  00054	89 41 08	 mov	 DWORD PTR [ecx+8], eax

; 727  : 		return (_Where);

  00057	8b 55 08	 mov	 edx, DWORD PTR ___$ReturnUdt$[ebp]
  0005a	8b 45 0c	 mov	 eax, DWORD PTR __Where$[ebp]
  0005d	89 02		 mov	 DWORD PTR [edx], eax
  0005f	8b 45 08	 mov	 eax, DWORD PTR ___$ReturnUdt$[ebp]

; 728  : 		}

  00062	83 c4 04	 add	 esp, 4
  00065	3b ec		 cmp	 ebp, esp
  00067	e8 00 00 00 00	 call	 __RTC_CheckEsp
  0006c	8b e5		 mov	 esp, ebp
  0006e	5d		 pop	 ebp
  0006f	c2 08 00	 ret	 8
?erase@?$vector@UOneLocalGame@@V?$allocator@UOneLocalGame@@@std@@@std@@QAE?AViterator@12@V312@@Z ENDP ; std::vector<OneLocalGame,std::allocator<OneLocalGame> >::erase
; Function compile flags: /Odt /RTCsu
_TEXT	ENDS
;	COMDAT ?clear@?$vector@UOneLocalGame@@V?$allocator@UOneLocalGame@@@std@@@std@@QAEXXZ
_TEXT	SEGMENT
_this$ = -4						; size = 4
?clear@?$vector@UOneLocalGame@@V?$allocator@UOneLocalGame@@@std@@@std@@QAEXXZ PROC NEAR ; std::vector<OneLocalGame,std::allocator<OneLocalGame> >::clear, COMDAT
; _this$ = ecx

; 743  : 		{	// erase all

  00000	55		 push	 ebp
  00001	8b ec		 mov	 ebp, esp
  00003	51		 push	 ecx
  00004	c7 45 fc cc cc
	cc cc		 mov	 DWORD PTR [ebp-4], -858993460 ; ccccccccH
  0000b	89 4d fc	 mov	 DWORD PTR _this$[ebp], ecx

; 744  : 		_Tidy();

  0000e	8b 4d fc	 mov	 ecx, DWORD PTR _this$[ebp]
  00011	e8 00 00 00 00	 call	 ?_Tidy@?$vector@UOneLocalGame@@V?$allocator@UOneLocalGame@@@std@@@std@@IAEXXZ ; std::vector<OneLocalGame,std::allocator<OneLocalGame> >::_Tidy

; 745  : 		}

  00016	83 c4 04	 add	 esp, 4
  00019	3b ec		 cmp	 ebp, esp
  0001b	e8 00 00 00 00	 call	 __RTC_CheckEsp
  00020	8b e5		 mov	 esp, ebp
  00022	5d		 pop	 ebp
  00023	c3		 ret	 0
?clear@?$vector@UOneLocalGame@@V?$allocator@UOneLocalGame@@@std@@@std@@QAEXXZ ENDP ; std::vector<OneLocalGame,std::allocator<OneLocalGame> >::clear
_TEXT	ENDS
PUBLIC	??Dconst_iterator@?$vector@UOneLocalGame@@V?$allocator@UOneLocalGame@@@std@@@std@@QBEABUOneLocalGame@@XZ ; std::vector<OneLocalGame,std::allocator<OneLocalGame> >::const_iterator::operator*
; Function compile flags: /Odt /RTCsu
;	COMDAT ??Diterator@?$vector@UOneLocalGame@@V?$allocator@UOneLocalGame@@@std@@@std@@QBEAAUOneLocalGame@@XZ
_TEXT	SEGMENT
_this$ = -4						; size = 4
??Diterator@?$vector@UOneLocalGame@@V?$allocator@UOneLocalGame@@@std@@@std@@QBEAAUOneLocalGame@@XZ PROC NEAR ; std::vector<OneLocalGame,std::allocator<OneLocalGame> >::iterator::operator*, COMDAT
; _this$ = ecx

; 219  : 			{	// return designated object

  00000	55		 push	 ebp
  00001	8b ec		 mov	 ebp, esp
  00003	51		 push	 ecx
  00004	c7 45 fc cc cc
	cc cc		 mov	 DWORD PTR [ebp-4], -858993460 ; ccccccccH
  0000b	89 4d fc	 mov	 DWORD PTR _this$[ebp], ecx

; 220  : 			return ((reference)**(const_iterator *)this);

  0000e	8b 4d fc	 mov	 ecx, DWORD PTR _this$[ebp]
  00011	e8 00 00 00 00	 call	 ??Dconst_iterator@?$vector@UOneLocalGame@@V?$allocator@UOneLocalGame@@@std@@@std@@QBEABUOneLocalGame@@XZ ; std::vector<OneLocalGame,std::allocator<OneLocalGame> >::const_iterator::operator*

; 221  : 			}

  00016	83 c4 04	 add	 esp, 4
  00019	3b ec		 cmp	 ebp, esp
  0001b	e8 00 00 00 00	 call	 __RTC_CheckEsp
  00020	8b e5		 mov	 esp, ebp
  00022	5d		 pop	 ebp
  00023	c3		 ret	 0
??Diterator@?$vector@UOneLocalGame@@V?$allocator@UOneLocalGame@@@std@@@std@@QBEAAUOneLocalGame@@XZ ENDP ; std::vector<OneLocalGame,std::allocator<OneLocalGame> >::iterator::operator*
; Function compile flags: /Odt /RTCsu
_TEXT	ENDS
;	COMDAT ??Citerator@?$vector@UOneLocalGame@@V?$allocator@UOneLocalGame@@@std@@@std@@QBEPAUOneLocalGame@@XZ
_TEXT	SEGMENT
_this$ = -4						; size = 4
??Citerator@?$vector@UOneLocalGame@@V?$allocator@UOneLocalGame@@@std@@@std@@QBEPAUOneLocalGame@@XZ PROC NEAR ; std::vector<OneLocalGame,std::allocator<OneLocalGame> >::iterator::operator->, COMDAT
; _this$ = ecx

; 224  : 			{	// return pointer to class object

  00000	55		 push	 ebp
  00001	8b ec		 mov	 ebp, esp
  00003	51		 push	 ecx
  00004	c7 45 fc cc cc
	cc cc		 mov	 DWORD PTR [ebp-4], -858993460 ; ccccccccH
  0000b	89 4d fc	 mov	 DWORD PTR _this$[ebp], ecx

; 225  : 			return (&**this);

  0000e	8b 4d fc	 mov	 ecx, DWORD PTR _this$[ebp]
  00011	e8 00 00 00 00	 call	 ??Diterator@?$vector@UOneLocalGame@@V?$allocator@UOneLocalGame@@@std@@@std@@QBEAAUOneLocalGame@@XZ ; std::vector<OneLocalGame,std::allocator<OneLocalGame> >::iterator::operator*

; 226  : 			}

  00016	83 c4 04	 add	 esp, 4
  00019	3b ec		 cmp	 ebp, esp
  0001b	e8 00 00 00 00	 call	 __RTC_CheckEsp
  00020	8b e5		 mov	 esp, ebp
  00022	5d		 pop	 ebp
  00023	c3		 ret	 0
??Citerator@?$vector@UOneLocalGame@@V?$allocator@UOneLocalGame@@@std@@@std@@QBEPAUOneLocalGame@@XZ ENDP ; std::vector<OneLocalGame,std::allocator<OneLocalGame> >::iterator::operator->
_TEXT	ENDS
PUBLIC	?CompareStringWFake@ATL@@YGHKKPB_WH0H@Z		; ATL::CompareStringWFake
EXTRN	__imp__CompareStringW@24:NEAR
; Function compile flags: /Odt /RTCsu
; File d:\program files (x86)\microsoft visual studio .net 2003\vc7\atlmfc\include\cstringt.h
;	COMDAT ?CompareStringWThunk@ATL@@YGHKKPB_WH0H@Z
_TEXT	SEGMENT
_lcid$ = 8						; size = 4
_dwFlags$ = 12						; size = 4
_pszString1$ = 16					; size = 4
_nLength1$ = 20						; size = 4
_pszString2$ = 24					; size = 4
_nLength2$ = 28						; size = 4
?CompareStringWThunk@ATL@@YGHKKPB_WH0H@Z PROC NEAR	; ATL::CompareStringWThunk, COMDAT

; 216  : {

  00000	55		 push	 ebp
  00001	8b ec		 mov	 ebp, esp
  00003	56		 push	 esi

; 217  : 	_AtlInstallStringThunk(reinterpret_cast<void**>(&_strthunks.pfnCompareStringW), CompareStringWFake, ::CompareStringW);

  00004	a1 00 00 00 00	 mov	 eax, DWORD PTR __imp__CompareStringW@24
  00009	50		 push	 eax
  0000a	68 00 00 00 00	 push	 OFFSET FLAT:?CompareStringWFake@ATL@@YGHKKPB_WH0H@Z ; ATL::CompareStringWFake
  0000f	68 00 00 00 00	 push	 OFFSET FLAT:?_strthunks@ATL@@3U_AtlStringThunks@1@A ; ATL::_strthunks
  00014	e8 00 00 00 00	 call	 ?_AtlInstallStringThunk@ATL@@YAXPAPAXPAX1@Z ; ATL::_AtlInstallStringThunk
  00019	83 c4 0c	 add	 esp, 12			; 0000000cH

; 218  : 
; 219  : 	return _strthunks.pfnCompareStringW(lcid, dwFlags, pszString1, nLength1, pszString2, nLength2);

  0001c	8b f4		 mov	 esi, esp
  0001e	8b 4d 1c	 mov	 ecx, DWORD PTR _nLength2$[ebp]
  00021	51		 push	 ecx
  00022	8b 55 18	 mov	 edx, DWORD PTR _pszString2$[ebp]
  00025	52		 push	 edx
  00026	8b 45 14	 mov	 eax, DWORD PTR _nLength1$[ebp]
  00029	50		 push	 eax
  0002a	8b 4d 10	 mov	 ecx, DWORD PTR _pszString1$[ebp]
  0002d	51		 push	 ecx
  0002e	8b 55 0c	 mov	 edx, DWORD PTR _dwFlags$[ebp]
  00031	52		 push	 edx
  00032	8b 45 08	 mov	 eax, DWORD PTR _lcid$[ebp]
  00035	50		 push	 eax
  00036	ff 15 00 00 00
	00		 call	 DWORD PTR ?_strthunks@ATL@@3U_AtlStringThunks@1@A
  0003c	3b f4		 cmp	 esi, esp
  0003e	e8 00 00 00 00	 call	 __RTC_CheckEsp

; 220  : }

  00043	5e		 pop	 esi
  00044	3b ec		 cmp	 ebp, esp
  00046	e8 00 00 00 00	 call	 __RTC_CheckEsp
  0004b	5d		 pop	 ebp
  0004c	c2 18 00	 ret	 24			; 00000018H
?CompareStringWThunk@ATL@@YGHKKPB_WH0H@Z ENDP		; ATL::CompareStringWThunk
_TEXT	ENDS
PUBLIC	?_AtlVerifyStackAvailable@_ATL_SAFE_ALLOCA_IMPL@ATL@@YA_NK@Z ; ATL::_ATL_SAFE_ALLOCA_IMPL::_AtlVerifyStackAvailable
PUBLIC	?AtlThrow@ATL@@YGXJ@Z				; ATL::AtlThrow
PUBLIC	?AtlW2AHelper@@YGPADPADPB_WHI@Z			; AtlW2AHelper
PUBLIC	??0?$CAtlSafeAllocBufferManager@VCCRTAllocator@ATL@@@_ATL_SAFE_ALLOCA_IMPL@ATL@@QAE@XZ ; ATL::_ATL_SAFE_ALLOCA_IMPL::CAtlSafeAllocBufferManager<ATL::CCRTAllocator>::CAtlSafeAllocBufferManager<ATL::CCRTAllocator>
PUBLIC	?Allocate@?$CAtlSafeAllocBufferManager@VCCRTAllocator@ATL@@@_ATL_SAFE_ALLOCA_IMPL@ATL@@QAEPAXK@Z ; ATL::_ATL_SAFE_ALLOCA_IMPL::CAtlSafeAllocBufferManager<ATL::CCRTAllocator>::Allocate
PUBLIC	??1?$CAtlSafeAllocBufferManager@VCCRTAllocator@ATL@@@_ATL_SAFE_ALLOCA_IMPL@ATL@@QAE@XZ ; ATL::_ATL_SAFE_ALLOCA_IMPL::CAtlSafeAllocBufferManager<ATL::CCRTAllocator>::~CAtlSafeAllocBufferManager<ATL::CCRTAllocator>
EXTRN	__imp__lstrlenW@4:NEAR
EXTRN	__alloca_probe:NEAR
EXTRN	__imp__CompareStringA@24:NEAR
;	COMDAT xdata$x
xdata$x	SEGMENT
$T192719 DD	0ffffffffH
	DD	FLAT:$L192711
$T192713 DD	019930520H
	DD	01H
	DD	FLAT:$T192719
	DD	2 DUP(00H)
	DD	2 DUP(00H)
; Function compile flags: /Odt /RTCsu
xdata$x	ENDS
;	COMDAT ?CompareStringWFake@ATL@@YGHKKPB_WH0H@Z
_TEXT	SEGMENT
tv147 = -76						; size = 4
tv142 = -72						; size = 4
tv149 = -68						; size = 4
tv89 = -64						; size = 4
tv84 = -60						; size = 4
tv91 = -56						; size = 4
$T192710 = -52						; size = 4
_pszAString2$ = -48					; size = 4
_pszAString1$ = -44					; size = 4
__AtlSafeAllocaManager$ = -36				; size = 4
__lpa_ex$ = -28						; size = 4
__lpw_ex$ = -24						; size = 4
__acp_ex$ = -20						; size = 4
__convert_ex$ = -16					; size = 4
__$EHRec$ = -12						; size = 12
_lcid$ = 8						; size = 4
_dwFlags$ = 12						; size = 4
_pszString1$ = 16					; size = 4
_nLength1$ = 20						; size = 4
_pszString2$ = 24					; size = 4
_nLength2$ = 28						; size = 4
?CompareStringWFake@ATL@@YGHKKPB_WH0H@Z PROC NEAR	; ATL::CompareStringWFake, COMDAT

; 192  : {

  00000	55		 push	 ebp
  00001	8b ec		 mov	 ebp, esp
  00003	6a ff		 push	 -1
  00005	68 00 00 00 00	 push	 __ehhandler$?CompareStringWFake@ATL@@YGHKKPB_WH0H@Z
  0000a	64 a1 00 00 00
	00		 mov	 eax, DWORD PTR fs:__except_list
  00010	50		 push	 eax
  00011	64 89 25 00 00
	00 00		 mov	 DWORD PTR fs:__except_list, esp
  00018	83 ec 40	 sub	 esp, 64			; 00000040H
  0001b	56		 push	 esi
  0001c	57		 push	 edi
  0001d	8d 7d b4	 lea	 edi, DWORD PTR [ebp-76]
  00020	b9 10 00 00 00	 mov	 ecx, 16			; 00000010H
  00025	b8 cc cc cc cc	 mov	 eax, -858993460		; ccccccccH
  0002a	f3 ab		 rep stosd

; 193  : 	USES_CONVERSION_EX;

  0002c	c7 45 f0 00 00
	00 00		 mov	 DWORD PTR __convert_ex$[ebp], 0
  00033	e8 00 00 00 00	 call	 ?_AtlGetConversionACP@ATL@@YGIXZ ; ATL::_AtlGetConversionACP
  00038	89 45 ec	 mov	 DWORD PTR __acp_ex$[ebp], eax
  0003b	c7 45 e8 00 00
	00 00		 mov	 DWORD PTR __lpw_ex$[ebp], 0
  00042	c7 45 e4 00 00
	00 00		 mov	 DWORD PTR __lpa_ex$[ebp], 0
  00049	8d 4d dc	 lea	 ecx, DWORD PTR __AtlSafeAllocaManager$[ebp]
  0004c	e8 00 00 00 00	 call	 ??0?$CAtlSafeAllocBufferManager@VCCRTAllocator@ATL@@@_ATL_SAFE_ALLOCA_IMPL@ATL@@QAE@XZ ; ATL::_ATL_SAFE_ALLOCA_IMPL::CAtlSafeAllocBufferManager<ATL::CCRTAllocator>::CAtlSafeAllocBufferManager<ATL::CCRTAllocator>
  00051	c7 45 fc 00 00
	00 00		 mov	 DWORD PTR __$EHRec$[ebp+8], 0

; 194  : 	
; 195  : 	LPCSTR pszAString1 = NULL;

  00058	c7 45 d4 00 00
	00 00		 mov	 DWORD PTR _pszAString1$[ebp], 0

; 196  : 	if(pszString1 != NULL)

  0005f	83 7d 10 00	 cmp	 DWORD PTR _pszString1$[ebp], 0
  00063	0f 84 a1 00 00
	00		 je	 $L26349

; 197  : 	{
; 198  : 		pszAString1 = W2A_EX(pszString1,_ATL_SAFE_ALLOCA_DEF_THRESHOLD);

  00069	8b 45 10	 mov	 eax, DWORD PTR _pszString1$[ebp]
  0006c	89 45 e8	 mov	 DWORD PTR __lpw_ex$[ebp], eax
  0006f	83 7d e8 00	 cmp	 DWORD PTR __lpw_ex$[ebp], 0
  00073	75 09		 jne	 SHORT $L192704
  00075	c7 45 c8 00 00
	00 00		 mov	 DWORD PTR tv91[ebp], 0
  0007c	eb 76		 jmp	 SHORT $L192705
$L192704:
  0007e	8b f4		 mov	 esi, esp
  00080	8b 4d e8	 mov	 ecx, DWORD PTR __lpw_ex$[ebp]
  00083	51		 push	 ecx
  00084	ff 15 00 00 00
	00		 call	 DWORD PTR __imp__lstrlenW@4
  0008a	3b f4		 cmp	 esi, esp
  0008c	e8 00 00 00 00	 call	 __RTC_CheckEsp
  00091	8d 54 00 02	 lea	 edx, DWORD PTR [eax+eax+2]
  00095	89 55 f0	 mov	 DWORD PTR __convert_ex$[ebp], edx
  00098	81 7d f0 00 04
	00 00		 cmp	 DWORD PTR __convert_ex$[ebp], 1024 ; 00000400H
  0009f	7f 2c		 jg	 SHORT $L192702
  000a1	8b 45 f0	 mov	 eax, DWORD PTR __convert_ex$[ebp]
  000a4	50		 push	 eax
  000a5	e8 00 00 00 00	 call	 ?_AtlVerifyStackAvailable@_ATL_SAFE_ALLOCA_IMPL@ATL@@YA_NK@Z ; ATL::_ATL_SAFE_ALLOCA_IMPL::_AtlVerifyStackAvailable
  000aa	83 c4 04	 add	 esp, 4
  000ad	0f b6 c8	 movzx	 ecx, al
  000b0	85 c9		 test	 ecx, ecx
  000b2	74 19		 je	 SHORT $L192702
  000b4	8b 45 f0	 mov	 eax, DWORD PTR __convert_ex$[ebp]
  000b7	83 c0 03	 add	 eax, 3
  000ba	83 e0 fc	 and	 eax, -4			; fffffffcH
  000bd	e8 00 00 00 00	 call	 __alloca_probe
  000c2	89 65 c4	 mov	 DWORD PTR tv84[ebp], esp
  000c5	8b 55 c4	 mov	 edx, DWORD PTR tv84[ebp]
  000c8	89 55 c0	 mov	 DWORD PTR tv89[ebp], edx
  000cb	eb 0f		 jmp	 SHORT $L192703
$L192702:
  000cd	8b 45 f0	 mov	 eax, DWORD PTR __convert_ex$[ebp]
  000d0	50		 push	 eax
  000d1	8d 4d dc	 lea	 ecx, DWORD PTR __AtlSafeAllocaManager$[ebp]
  000d4	e8 00 00 00 00	 call	 ?Allocate@?$CAtlSafeAllocBufferManager@VCCRTAllocator@ATL@@@_ATL_SAFE_ALLOCA_IMPL@ATL@@QAEPAXK@Z ; ATL::_ATL_SAFE_ALLOCA_IMPL::CAtlSafeAllocBufferManager<ATL::CCRTAllocator>::Allocate
  000d9	89 45 c0	 mov	 DWORD PTR tv89[ebp], eax
$L192703:
  000dc	8b 4d ec	 mov	 ecx, DWORD PTR __acp_ex$[ebp]
  000df	51		 push	 ecx
  000e0	8b 55 f0	 mov	 edx, DWORD PTR __convert_ex$[ebp]
  000e3	52		 push	 edx
  000e4	8b 45 e8	 mov	 eax, DWORD PTR __lpw_ex$[ebp]
  000e7	50		 push	 eax
  000e8	8b 4d c0	 mov	 ecx, DWORD PTR tv89[ebp]
  000eb	51		 push	 ecx
  000ec	e8 00 00 00 00	 call	 ?AtlW2AHelper@@YGPADPADPB_WHI@Z ; AtlW2AHelper
  000f1	89 45 c8	 mov	 DWORD PTR tv91[ebp], eax
$L192705:
  000f4	8b 55 c8	 mov	 edx, DWORD PTR tv91[ebp]
  000f7	89 55 d4	 mov	 DWORD PTR _pszAString1$[ebp], edx

; 199  : 		if(pszAString1 == NULL)

  000fa	83 7d d4 00	 cmp	 DWORD PTR _pszAString1$[ebp], 0
  000fe	75 0a		 jne	 SHORT $L26349

; 200  : 			AtlThrow(E_OUTOFMEMORY);

  00100	68 0e 00 07 80	 push	 -2147024882		; 8007000eH
  00105	e8 00 00 00 00	 call	 ?AtlThrow@ATL@@YGXJ@Z	; ATL::AtlThrow
$L26349:

; 201  : 	}
; 202  : 
; 203  : 	LPCSTR pszAString2 = NULL;

  0010a	c7 45 d0 00 00
	00 00		 mov	 DWORD PTR _pszAString2$[ebp], 0

; 204  : 	if(pszString2 != NULL)

  00111	83 7d 18 00	 cmp	 DWORD PTR _pszString2$[ebp], 0
  00115	0f 84 a1 00 00
	00		 je	 $L26355

; 205  : 	{
; 206  : 		pszAString2 = W2A_EX(pszString2,_ATL_SAFE_ALLOCA_DEF_THRESHOLD);

  0011b	8b 45 18	 mov	 eax, DWORD PTR _pszString2$[ebp]
  0011e	89 45 e8	 mov	 DWORD PTR __lpw_ex$[ebp], eax
  00121	83 7d e8 00	 cmp	 DWORD PTR __lpw_ex$[ebp], 0
  00125	75 09		 jne	 SHORT $L192708
  00127	c7 45 bc 00 00
	00 00		 mov	 DWORD PTR tv149[ebp], 0
  0012e	eb 76		 jmp	 SHORT $L192709
$L192708:
  00130	8b f4		 mov	 esi, esp
  00132	8b 4d e8	 mov	 ecx, DWORD PTR __lpw_ex$[ebp]
  00135	51		 push	 ecx
  00136	ff 15 00 00 00
	00		 call	 DWORD PTR __imp__lstrlenW@4
  0013c	3b f4		 cmp	 esi, esp
  0013e	e8 00 00 00 00	 call	 __RTC_CheckEsp
  00143	8d 54 00 02	 lea	 edx, DWORD PTR [eax+eax+2]
  00147	89 55 f0	 mov	 DWORD PTR __convert_ex$[ebp], edx
  0014a	81 7d f0 00 04
	00 00		 cmp	 DWORD PTR __convert_ex$[ebp], 1024 ; 00000400H
  00151	7f 2c		 jg	 SHORT $L192706
  00153	8b 45 f0	 mov	 eax, DWORD PTR __convert_ex$[ebp]
  00156	50		 push	 eax
  00157	e8 00 00 00 00	 call	 ?_AtlVerifyStackAvailable@_ATL_SAFE_ALLOCA_IMPL@ATL@@YA_NK@Z ; ATL::_ATL_SAFE_ALLOCA_IMPL::_AtlVerifyStackAvailable
  0015c	83 c4 04	 add	 esp, 4
  0015f	0f b6 c8	 movzx	 ecx, al
  00162	85 c9		 test	 ecx, ecx
  00164	74 19		 je	 SHORT $L192706
  00166	8b 45 f0	 mov	 eax, DWORD PTR __convert_ex$[ebp]
  00169	83 c0 03	 add	 eax, 3
  0016c	83 e0 fc	 and	 eax, -4			; fffffffcH
  0016f	e8 00 00 00 00	 call	 __alloca_probe
  00174	89 65 b8	 mov	 DWORD PTR tv142[ebp], esp
  00177	8b 55 b8	 mov	 edx, DWORD PTR tv142[ebp]
  0017a	89 55 b4	 mov	 DWORD PTR tv147[ebp], edx
  0017d	eb 0f		 jmp	 SHORT $L192707
$L192706:
  0017f	8b 45 f0	 mov	 eax, DWORD PTR __convert_ex$[ebp]
  00182	50		 push	 eax
  00183	8d 4d dc	 lea	 ecx, DWORD PTR __AtlSafeAllocaManager$[ebp]
  00186	e8 00 00 00 00	 call	 ?Allocate@?$CAtlSafeAllocBufferManager@VCCRTAllocator@ATL@@@_ATL_SAFE_ALLOCA_IMPL@ATL@@QAEPAXK@Z ; ATL::_ATL_SAFE_ALLOCA_IMPL::CAtlSafeAllocBufferManager<ATL::CCRTAllocator>::Allocate
  0018b	89 45 b4	 mov	 DWORD PTR tv147[ebp], eax
$L192707:
  0018e	8b 4d ec	 mov	 ecx, DWORD PTR __acp_ex$[ebp]
  00191	51		 push	 ecx
  00192	8b 55 f0	 mov	 edx, DWORD PTR __convert_ex$[ebp]
  00195	52		 push	 edx
  00196	8b 45 e8	 mov	 eax, DWORD PTR __lpw_ex$[ebp]
  00199	50		 push	 eax
  0019a	8b 4d b4	 mov	 ecx, DWORD PTR tv147[ebp]
  0019d	51		 push	 ecx
  0019e	e8 00 00 00 00	 call	 ?AtlW2AHelper@@YGPADPADPB_WHI@Z ; AtlW2AHelper
  001a3	89 45 bc	 mov	 DWORD PTR tv149[ebp], eax
$L192709:
  001a6	8b 55 bc	 mov	 edx, DWORD PTR tv149[ebp]
  001a9	89 55 d0	 mov	 DWORD PTR _pszAString2$[ebp], edx

; 207  : 		if(pszAString2 == NULL)

  001ac	83 7d d0 00	 cmp	 DWORD PTR _pszAString2$[ebp], 0
  001b0	75 0a		 jne	 SHORT $L26355

; 208  : 			AtlThrow(E_OUTOFMEMORY);

  001b2	68 0e 00 07 80	 push	 -2147024882		; 8007000eH
  001b7	e8 00 00 00 00	 call	 ?AtlThrow@ATL@@YGXJ@Z	; ATL::AtlThrow
$L26355:

; 209  : 	}
; 210  : 
; 211  : 	return ::CompareStringA(lcid, dwFlags, pszAString1, nLength1, pszAString2, nLength2);

  001bc	8b f4		 mov	 esi, esp
  001be	8b 45 1c	 mov	 eax, DWORD PTR _nLength2$[ebp]
  001c1	50		 push	 eax
  001c2	8b 4d d0	 mov	 ecx, DWORD PTR _pszAString2$[ebp]
  001c5	51		 push	 ecx
  001c6	8b 55 14	 mov	 edx, DWORD PTR _nLength1$[ebp]
  001c9	52		 push	 edx
  001ca	8b 45 d4	 mov	 eax, DWORD PTR _pszAString1$[ebp]
  001cd	50		 push	 eax
  001ce	8b 4d 0c	 mov	 ecx, DWORD PTR _dwFlags$[ebp]
  001d1	51		 push	 ecx
  001d2	8b 55 08	 mov	 edx, DWORD PTR _lcid$[ebp]
  001d5	52		 push	 edx
  001d6	ff 15 00 00 00
	00		 call	 DWORD PTR __imp__CompareStringA@24
  001dc	3b f4		 cmp	 esi, esp
  001de	e8 00 00 00 00	 call	 __RTC_CheckEsp
  001e3	89 45 cc	 mov	 DWORD PTR $T192710[ebp], eax
  001e6	c7 45 fc ff ff
	ff ff		 mov	 DWORD PTR __$EHRec$[ebp+8], -1
  001ed	8d 4d dc	 lea	 ecx, DWORD PTR __AtlSafeAllocaManager$[ebp]
  001f0	e8 00 00 00 00	 call	 ??1?$CAtlSafeAllocBufferManager@VCCRTAllocator@ATL@@@_ATL_SAFE_ALLOCA_IMPL@ATL@@QAE@XZ ; ATL::_ATL_SAFE_ALLOCA_IMPL::CAtlSafeAllocBufferManager<ATL::CCRTAllocator>::~CAtlSafeAllocBufferManager<ATL::CCRTAllocator>
  001f5	8b 45 cc	 mov	 eax, DWORD PTR $T192710[ebp]
$L192701:

; 212  : }

  001f8	8d 65 ac	 lea	 esp, DWORD PTR [ebp-84]
  001fb	52		 push	 edx
  001fc	8b cd		 mov	 ecx, ebp
  001fe	50		 push	 eax
  001ff	8d 15 00 00 00
	00		 lea	 edx, DWORD PTR $L192718
  00205	e8 00 00 00 00	 call	 @_RTC_CheckStackVars@8
  0020a	58		 pop	 eax
  0020b	5a		 pop	 edx
  0020c	8b 4d f4	 mov	 ecx, DWORD PTR __$EHRec$[ebp]
  0020f	64 89 0d 00 00
	00 00		 mov	 DWORD PTR fs:__except_list, ecx
  00216	5f		 pop	 edi
  00217	5e		 pop	 esi
  00218	8b e5		 mov	 esp, ebp
  0021a	5d		 pop	 ebp
  0021b	c2 18 00	 ret	 24			; 00000018H
$L192718:
  0021e	01 00 00 00	 DD	 1
  00222	00 00 00 00	 DD	 $L192717
$L192717:
  00226	dc ff ff ff	 DD	 -36			; ffffffdcH
  0022a	04 00 00 00	 DD	 4
  0022e	00 00 00 00	 DD	 $L192715
$L192715:
  00232	5f		 DB	 95			; 0000005fH
  00233	41		 DB	 65			; 00000041H
  00234	74		 DB	 116			; 00000074H
  00235	6c		 DB	 108			; 0000006cH
  00236	53		 DB	 83			; 00000053H
  00237	61		 DB	 97			; 00000061H
  00238	66		 DB	 102			; 00000066H
  00239	65		 DB	 101			; 00000065H
  0023a	41		 DB	 65			; 00000041H
  0023b	6c		 DB	 108			; 0000006cH
  0023c	6c		 DB	 108			; 0000006cH
  0023d	6f		 DB	 111			; 0000006fH
  0023e	63		 DB	 99			; 00000063H
  0023f	61		 DB	 97			; 00000061H
  00240	4d		 DB	 77			; 0000004dH
  00241	61		 DB	 97			; 00000061H
  00242	6e		 DB	 110			; 0000006eH
  00243	61		 DB	 97			; 00000061H
  00244	67		 DB	 103			; 00000067H
  00245	65		 DB	 101			; 00000065H
  00246	72		 DB	 114			; 00000072H
  00247	00		 DB	 0
_TEXT	ENDS
;	COMDAT text$x
text$x	SEGMENT
$L192711:
  00000	8d 4d dc	 lea	 ecx, DWORD PTR __AtlSafeAllocaManager$[ebp]
  00003	e9 00 00 00 00	 jmp	 ??1?$CAtlSafeAllocBufferManager@VCCRTAllocator@ATL@@@_ATL_SAFE_ALLOCA_IMPL@ATL@@QAE@XZ ; ATL::_ATL_SAFE_ALLOCA_IMPL::CAtlSafeAllocBufferManager<ATL::CCRTAllocator>::~CAtlSafeAllocBufferManager<ATL::CCRTAllocator>
__ehhandler$?CompareStringWFake@ATL@@YGHKKPB_WH0H@Z:
  00008	b8 00 00 00 00	 mov	 eax, OFFSET FLAT:$T192713
  0000d	e9 00 00 00 00	 jmp	 ___CxxFrameHandler
text$x	ENDS
?CompareStringWFake@ATL@@YGHKKPB_WH0H@Z ENDP		; ATL::CompareStringWFake
EXTRN	__imp___resetstkoflw:NEAR
EXTRN	__except_handler3:NEAR
;	COMDAT CONST
; File d:\program files (x86)\microsoft visual studio .net 2003\vc7\atlmfc\include\atlalloc.h
CONST	SEGMENT
$T192729 DD	0ffffffffH
	DD	FLAT:$L192724
	DD	FLAT:$L192725
; Function compile flags: /Odt /RTCsu
CONST	ENDS
;	COMDAT ?_AtlVerifyStackAvailable@_ATL_SAFE_ALLOCA_IMPL@ATL@@YA_NK@Z
_TEXT	SEGMENT
tv65 = -48						; size = 4
$T192728 = -44						; size = 4
_p$24107 = -36						; size = 4
_bStackAvailable$ = -25					; size = 1
__$SEHRec$ = -24					; size = 24
_Size$ = 8						; size = 4
?_AtlVerifyStackAvailable@_ATL_SAFE_ALLOCA_IMPL@ATL@@YA_NK@Z PROC NEAR ; ATL::_ATL_SAFE_ALLOCA_IMPL::_AtlVerifyStackAvailable, COMDAT

; 331  : {

  00000	55		 push	 ebp
  00001	8b ec		 mov	 ebp, esp
  00003	6a ff		 push	 -1
  00005	68 00 00 00 00	 push	 OFFSET FLAT:$T192729
  0000a	68 00 00 00 00	 push	 OFFSET FLAT:__except_handler3
  0000f	64 a1 00 00 00
	00		 mov	 eax, DWORD PTR fs:__except_list
  00015	50		 push	 eax
  00016	64 89 25 00 00
	00 00		 mov	 DWORD PTR fs:__except_list, esp
  0001d	83 c4 e0	 add	 esp, -32		; ffffffe0H
  00020	53		 push	 ebx
  00021	56		 push	 esi
  00022	57		 push	 edi
  00023	b8 cc cc cc cc	 mov	 eax, -858993460		; ccccccccH
  00028	89 45 d0	 mov	 DWORD PTR [ebp-48], eax
  0002b	89 45 d4	 mov	 DWORD PTR [ebp-44], eax
  0002e	89 45 d8	 mov	 DWORD PTR [ebp-40], eax
  00031	89 45 dc	 mov	 DWORD PTR [ebp-36], eax
  00034	89 45 e0	 mov	 DWORD PTR [ebp-32], eax
  00037	89 45 e4	 mov	 DWORD PTR [ebp-28], eax
  0003a	89 65 e8	 mov	 DWORD PTR __$SEHRec$[ebp], esp

; 332  :     bool bStackAvailable = true;

  0003d	c6 45 e7 01	 mov	 BYTE PTR _bStackAvailable$[ebp], 1

; 333  : 
; 334  :     __try

  00041	c7 45 fc 00 00
	00 00		 mov	 DWORD PTR __$SEHRec$[ebp+20], 0

; 335  :     {
; 336  :         PVOID p = _alloca(Size + _ATL_STACK_MARGIN);

  00048	8b 45 08	 mov	 eax, DWORD PTR _Size$[ebp]
  0004b	05 03 20 00 00	 add	 eax, 8195		; 00002003H
  00050	83 e0 fc	 and	 eax, -4			; fffffffcH
  00053	e8 00 00 00 00	 call	 __alloca_probe
  00058	89 65 d0	 mov	 DWORD PTR tv65[ebp], esp
  0005b	89 65 e8	 mov	 DWORD PTR __$SEHRec$[ebp], esp
  0005e	8b 45 d0	 mov	 eax, DWORD PTR tv65[ebp]
  00061	89 45 dc	 mov	 DWORD PTR _p$24107[ebp], eax
  00064	c7 45 fc ff ff
	ff ff		 mov	 DWORD PTR __$SEHRec$[ebp+20], -1
  0006b	eb 35		 jmp	 SHORT $L192727
$L192724:

; 337  :         (p);
; 338  :     }
; 339  :     __except ((EXCEPTION_STACK_OVERFLOW == GetExceptionCode()) ?
; 340  :                    EXCEPTION_EXECUTE_HANDLER :
; 341  :                    EXCEPTION_CONTINUE_SEARCH)

  0006d	8b 4d ec	 mov	 ecx, DWORD PTR __$SEHRec$[ebp+4]
  00070	8b 11		 mov	 edx, DWORD PTR [ecx]
  00072	8b 02		 mov	 eax, DWORD PTR [edx]
  00074	89 45 d4	 mov	 DWORD PTR $T192728[ebp], eax
  00077	8b 45 d4	 mov	 eax, DWORD PTR $T192728[ebp]
  0007a	2d fd 00 00 c0	 sub	 eax, -1073741571	; c00000fdH
  0007f	f7 d8		 neg	 eax
  00081	1b c0		 sbb	 eax, eax
  00083	40		 inc	 eax
$L192726:
  00084	c3		 ret	 0
$L192725:
  00085	8b 65 e8	 mov	 esp, DWORD PTR __$SEHRec$[ebp]

; 342  :     {
; 343  :         bStackAvailable = false;

  00088	c6 45 e7 00	 mov	 BYTE PTR _bStackAvailable$[ebp], 0

; 344  :         _resetstkoflw();

  0008c	8b f4		 mov	 esi, esp
  0008e	ff 15 00 00 00
	00		 call	 DWORD PTR __imp___resetstkoflw
  00094	3b f4		 cmp	 esi, esp
  00096	e8 00 00 00 00	 call	 __RTC_CheckEsp
  0009b	c7 45 fc ff ff
	ff ff		 mov	 DWORD PTR __$SEHRec$[ebp+20], -1
$L192727:

; 345  :     }
; 346  :     return bStackAvailable;

  000a2	8a 45 e7	 mov	 al, BYTE PTR _bStackAvailable$[ebp]
$L192723:

; 347  : }

  000a5	8d 65 c4	 lea	 esp, DWORD PTR [ebp-60]
  000a8	52		 push	 edx
  000a9	8b cd		 mov	 ecx, ebp
  000ab	50		 push	 eax
  000ac	8d 15 00 00 00
	00		 lea	 edx, DWORD PTR $L192734
  000b2	e8 00 00 00 00	 call	 @_RTC_CheckStackVars@8
  000b7	58		 pop	 eax
  000b8	5a		 pop	 edx
  000b9	8b 4d f0	 mov	 ecx, DWORD PTR __$SEHRec$[ebp+8]
  000bc	64 89 0d 00 00
	00 00		 mov	 DWORD PTR fs:__except_list, ecx
  000c3	5f		 pop	 edi
  000c4	5e		 pop	 esi
  000c5	5b		 pop	 ebx
  000c6	8b e5		 mov	 esp, ebp
  000c8	5d		 pop	 ebp
  000c9	c3		 ret	 0
$L192734:
  000ca	01 00 00 00	 DD	 1
  000ce	00 00 00 00	 DD	 $L192733
$L192733:
  000d2	dc ff ff ff	 DD	 -36			; ffffffdcH
  000d6	04 00 00 00	 DD	 4
  000da	00 00 00 00	 DD	 $L192731
$L192731:
  000de	70		 DB	 112			; 00000070H
  000df	00		 DB	 0
?_AtlVerifyStackAvailable@_ATL_SAFE_ALLOCA_IMPL@ATL@@YA_NK@Z ENDP ; ATL::_ATL_SAFE_ALLOCA_IMPL::_AtlVerifyStackAvailable
_TEXT	ENDS
PUBLIC	??_C@_08DMHHBMMN@lpa?5?$CB?$DN?50?$AA@		; `string'
PUBLIC	??_C@_0FG@PFHCBDBK@D?3?2Program?5Files?5?$CIx86?$CJ?2Microsoft@ ; `string'
PUBLIC	??_C@_08DIHJLFDJ@lpw?5?$CB?$DN?50?$AA@		; `string'
PUBLIC	??_C@_01GBGANLPD@0?$AA@				; `string'
EXTRN	__imp__WideCharToMultiByte@32:NEAR
;	COMDAT ??_C@_08DIHJLFDJ@lpw?5?$CB?$DN?50?$AA@
; File d:\program files (x86)\microsoft visual studio .net 2003\vc7\atlmfc\include\atlconv.h
CONST	SEGMENT
??_C@_08DIHJLFDJ@lpw?5?$CB?$DN?50?$AA@ DB 'lpw != 0', 00H ; `string'
CONST	ENDS
;	COMDAT ??_C@_0FG@PFHCBDBK@D?3?2Program?5Files?5?$CIx86?$CJ?2Microsoft@
CONST	SEGMENT
??_C@_0FG@PFHCBDBK@D?3?2Program?5Files?5?$CIx86?$CJ?2Microsoft@ DB 'D:\Pr'
	DB	'ogram Files (x86)\Microsoft Visual Studio .NET 2003\Vc7\atlmf'
	DB	'c\include\atlconv.h', 00H			; `string'
CONST	ENDS
;	COMDAT ??_C@_08DMHHBMMN@lpa?5?$CB?$DN?50?$AA@
CONST	SEGMENT
??_C@_08DMHHBMMN@lpa?5?$CB?$DN?50?$AA@ DB 'lpa != 0', 00H ; `string'
CONST	ENDS
;	COMDAT ??_C@_01GBGANLPD@0?$AA@
CONST	SEGMENT
??_C@_01GBGANLPD@0?$AA@ DB '0', 00H			; `string'
; Function compile flags: /Odt /RTCsu
CONST	ENDS
;	COMDAT ?AtlW2AHelper@@YGPADPADPB_WHI@Z
_TEXT	SEGMENT
_ret$ = -4						; size = 4
_lpa$ = 8						; size = 4
_lpw$ = 12						; size = 4
_nChars$ = 16						; size = 4
_acp$ = 20						; size = 4
?AtlW2AHelper@@YGPADPADPB_WHI@Z PROC NEAR		; AtlW2AHelper, COMDAT

; 573  : {

  00000	55		 push	 ebp
  00001	8b ec		 mov	 ebp, esp
  00003	51		 push	 ecx
  00004	56		 push	 esi
  00005	c7 45 fc cc cc
	cc cc		 mov	 DWORD PTR [ebp-4], -858993460 ; ccccccccH

; 574  : 	ATLASSERT(lpw != NULL);

  0000c	83 7d 0c 00	 cmp	 DWORD PTR _lpw$[ebp], 0
  00010	75 2b		 jne	 SHORT $L192738
  00012	8b f4		 mov	 esi, esp
  00014	68 00 00 00 00	 push	 OFFSET FLAT:??_C@_08DIHJLFDJ@lpw?5?$CB?$DN?50?$AA@
  00019	6a 00		 push	 0
  0001b	68 3e 02 00 00	 push	 574			; 0000023eH
  00020	68 00 00 00 00	 push	 OFFSET FLAT:??_C@_0FG@PFHCBDBK@D?3?2Program?5Files?5?$CIx86?$CJ?2Microsoft@
  00025	6a 02		 push	 2
  00027	ff 15 00 00 00
	00		 call	 DWORD PTR __imp___CrtDbgReport
  0002d	83 c4 14	 add	 esp, 20			; 00000014H
  00030	3b f4		 cmp	 esi, esp
  00032	e8 00 00 00 00	 call	 __RTC_CheckEsp
  00037	83 f8 01	 cmp	 eax, 1
  0003a	75 01		 jne	 SHORT $L192738
  0003c	cc		 int	 3
$L192738:

; 575  : 	ATLASSERT(lpa != NULL);

  0003d	83 7d 08 00	 cmp	 DWORD PTR _lpa$[ebp], 0
  00041	75 2b		 jne	 SHORT $L192739
  00043	8b f4		 mov	 esi, esp
  00045	68 00 00 00 00	 push	 OFFSET FLAT:??_C@_08DMHHBMMN@lpa?5?$CB?$DN?50?$AA@
  0004a	6a 00		 push	 0
  0004c	68 3f 02 00 00	 push	 575			; 0000023fH
  00051	68 00 00 00 00	 push	 OFFSET FLAT:??_C@_0FG@PFHCBDBK@D?3?2Program?5Files?5?$CIx86?$CJ?2Microsoft@
  00056	6a 02		 push	 2
  00058	ff 15 00 00 00
	00		 call	 DWORD PTR __imp___CrtDbgReport
  0005e	83 c4 14	 add	 esp, 20			; 00000014H
  00061	3b f4		 cmp	 esi, esp
  00063	e8 00 00 00 00	 call	 __RTC_CheckEsp
  00068	83 f8 01	 cmp	 eax, 1
  0006b	75 01		 jne	 SHORT $L192739
  0006d	cc		 int	 3
$L192739:

; 576  : 	if (lpa == NULL || lpw == NULL)

  0006e	83 7d 08 00	 cmp	 DWORD PTR _lpa$[ebp], 0
  00072	74 06		 je	 SHORT $L24313
  00074	83 7d 0c 00	 cmp	 DWORD PTR _lpw$[ebp], 0
  00078	75 04		 jne	 SHORT $L24312
$L24313:

; 577  : 		return NULL;

  0007a	33 c0		 xor	 eax, eax
  0007c	eb 6c		 jmp	 SHORT $L24309
$L24312:

; 578  : 	// verify that no illegal character present
; 579  : 	// since lpa was allocated based on the size of lpw
; 580  : 	// don't worry about the number of chars
; 581  : 	lpa[0] = '\0';

  0007e	8b 55 08	 mov	 edx, DWORD PTR _lpa$[ebp]
  00081	c6 02 00	 mov	 BYTE PTR [edx], 0

; 582  : 	int ret = WideCharToMultiByte(acp, 0, lpw, -1, lpa, nChars, NULL, NULL);

  00084	8b f4		 mov	 esi, esp
  00086	6a 00		 push	 0
  00088	6a 00		 push	 0
  0008a	8b 45 10	 mov	 eax, DWORD PTR _nChars$[ebp]
  0008d	50		 push	 eax
  0008e	8b 4d 08	 mov	 ecx, DWORD PTR _lpa$[ebp]
  00091	51		 push	 ecx
  00092	6a ff		 push	 -1
  00094	8b 55 0c	 mov	 edx, DWORD PTR _lpw$[ebp]
  00097	52		 push	 edx
  00098	6a 00		 push	 0
  0009a	8b 45 14	 mov	 eax, DWORD PTR _acp$[ebp]
  0009d	50		 push	 eax
  0009e	ff 15 00 00 00
	00		 call	 DWORD PTR __imp__WideCharToMultiByte@32
  000a4	3b f4		 cmp	 esi, esp
  000a6	e8 00 00 00 00	 call	 __RTC_CheckEsp
  000ab	89 45 fc	 mov	 DWORD PTR _ret$[ebp], eax

; 583  : 	if(ret == 0)

  000ae	83 7d fc 00	 cmp	 DWORD PTR _ret$[ebp], 0
  000b2	75 33		 jne	 SHORT $L24315

; 584  : 	{
; 585  : 		ATLASSERT(FALSE);

  000b4	33 c9		 xor	 ecx, ecx
  000b6	75 2b		 jne	 SHORT $L192740
  000b8	8b f4		 mov	 esi, esp
  000ba	68 00 00 00 00	 push	 OFFSET FLAT:??_C@_01GBGANLPD@0?$AA@
  000bf	6a 00		 push	 0
  000c1	68 49 02 00 00	 push	 585			; 00000249H
  000c6	68 00 00 00 00	 push	 OFFSET FLAT:??_C@_0FG@PFHCBDBK@D?3?2Program?5Files?5?$CIx86?$CJ?2Microsoft@
  000cb	6a 02		 push	 2
  000cd	ff 15 00 00 00
	00		 call	 DWORD PTR __imp___CrtDbgReport
  000d3	83 c4 14	 add	 esp, 20			; 00000014H
  000d6	3b f4		 cmp	 esi, esp
  000d8	e8 00 00 00 00	 call	 __RTC_CheckEsp
  000dd	83 f8 01	 cmp	 eax, 1
  000e0	75 01		 jne	 SHORT $L192740
  000e2	cc		 int	 3
$L192740:

; 586  : 		return NULL;

  000e3	33 c0		 xor	 eax, eax
  000e5	eb 03		 jmp	 SHORT $L24309
$L24315:

; 587  : 	}
; 588  : 	return lpa;

  000e7	8b 45 08	 mov	 eax, DWORD PTR _lpa$[ebp]
$L24309:

; 589  : }

  000ea	5e		 pop	 esi
  000eb	83 c4 04	 add	 esp, 4
  000ee	3b ec		 cmp	 ebp, esp
  000f0	e8 00 00 00 00	 call	 __RTC_CheckEsp
  000f5	8b e5		 mov	 esp, ebp
  000f7	5d		 pop	 ebp
  000f8	c2 10 00	 ret	 16			; 00000010H
?AtlW2AHelper@@YGPADPADPB_WHI@Z ENDP			; AtlW2AHelper
_TEXT	ENDS
PUBLIC	??BCTraceCategory@ATL@@QBEKXZ			; ATL::CTraceCategory::operator unsigned long
PUBLIC	??0CTraceFileAndLineInfo@ATL@@QAE@PBDH@Z	; ATL::CTraceFileAndLineInfo::CTraceFileAndLineInfo
PUBLIC	??RCTraceFileAndLineInfo@ATL@@QBAXKIPBDZZ	; ATL::CTraceFileAndLineInfo::operator()
PUBLIC	??_C@_0FI@NHHJANPC@D?3?2Program?5Files?5?$CIx86?$CJ?2Microsoft@ ; `string'
PUBLIC	??_C@_0BF@IAAKIJDJ@AtlThrow?3?5hr?5?$DN?50x?$CFx?6?$AA@ ; `string'
EXTRN	?atlTraceException@ATL@@3VCTraceCategory@1@A:DWORD ; ATL::atlTraceException
EXTRN	?AfxThrowMemoryException@@YGXXZ:NEAR		; AfxThrowMemoryException
EXTRN	?AfxThrowOleException@@YGXJ@Z:NEAR		; AfxThrowOleException
;	COMDAT ??_C@_0BF@IAAKIJDJ@AtlThrow?3?5hr?5?$DN?50x?$CFx?6?$AA@
; File d:\program files (x86)\microsoft visual studio .net 2003\vc7\atlmfc\include\atlexcept.h
CONST	SEGMENT
??_C@_0BF@IAAKIJDJ@AtlThrow?3?5hr?5?$DN?50x?$CFx?6?$AA@ DB 'AtlThrow: hr '
	DB	'= 0x%x', 0aH, 00H				; `string'
CONST	ENDS
;	COMDAT ??_C@_0FI@NHHJANPC@D?3?2Program?5Files?5?$CIx86?$CJ?2Microsoft@
CONST	SEGMENT
??_C@_0FI@NHHJANPC@D?3?2Program?5Files?5?$CIx86?$CJ?2Microsoft@ DB 'D:\Pr'
	DB	'ogram Files (x86)\Microsoft Visual Studio .NET 2003\Vc7\atlmf'
	DB	'c\include\atlexcept.h', 00H			; `string'
; Function compile flags: /Odt /RTCsu
CONST	ENDS
;	COMDAT ?AtlThrow@ATL@@YGXJ@Z
_TEXT	SEGMENT
$T192742 = -8						; size = 8
_hr$ = 8						; size = 4
?AtlThrow@ATL@@YGXJ@Z PROC NEAR				; ATL::AtlThrow, COMDAT

; 61   : {

  00000	55		 push	 ebp
  00001	8b ec		 mov	 ebp, esp
  00003	83 ec 08	 sub	 esp, 8
  00006	c7 45 f8 cc cc
	cc cc		 mov	 DWORD PTR [ebp-8], -858993460 ; ccccccccH
  0000d	c7 45 fc cc cc
	cc cc		 mov	 DWORD PTR [ebp-4], -858993460 ; ccccccccH

; 62   : 	ATLTRACE(atlTraceException, 0, _T("AtlThrow: hr = 0x%x\n"), hr );

  00014	8b 45 08	 mov	 eax, DWORD PTR _hr$[ebp]
  00017	50		 push	 eax
  00018	68 00 00 00 00	 push	 OFFSET FLAT:??_C@_0BF@IAAKIJDJ@AtlThrow?3?5hr?5?$DN?50x?$CFx?6?$AA@
  0001d	6a 00		 push	 0
  0001f	b9 00 00 00 00	 mov	 ecx, OFFSET FLAT:?atlTraceException@ATL@@3VCTraceCategory@1@A ; ATL::atlTraceException
  00024	e8 00 00 00 00	 call	 ??BCTraceCategory@ATL@@QBEKXZ ; ATL::CTraceCategory::operator unsigned long
  00029	50		 push	 eax
  0002a	6a 3e		 push	 62			; 0000003eH
  0002c	68 00 00 00 00	 push	 OFFSET FLAT:??_C@_0FI@NHHJANPC@D?3?2Program?5Files?5?$CIx86?$CJ?2Microsoft@
  00031	8d 4d f8	 lea	 ecx, DWORD PTR $T192742[ebp]
  00034	e8 00 00 00 00	 call	 ??0CTraceFileAndLineInfo@ATL@@QAE@PBDH@Z ; ATL::CTraceFileAndLineInfo::CTraceFileAndLineInfo
  00039	50		 push	 eax
  0003a	e8 00 00 00 00	 call	 ??RCTraceFileAndLineInfo@ATL@@QBAXKIPBDZZ ; ATL::CTraceFileAndLineInfo::operator()
  0003f	83 c4 14	 add	 esp, 20			; 00000014H

; 63   : #ifdef _AFX
; 64   : 	if( hr == E_OUTOFMEMORY )

  00042	81 7d 08 0e 00
	07 80		 cmp	 DWORD PTR _hr$[ebp], -2147024882 ; 8007000eH
  00049	75 05		 jne	 SHORT $L25222

; 65   : 	{
; 66   : 		AfxThrowMemoryException();

  0004b	e8 00 00 00 00	 call	 ?AfxThrowMemoryException@@YGXXZ ; AfxThrowMemoryException
$L25222:

; 67   : 	}
; 68   : 	else
; 69   : 	{
; 70   : 		AfxThrowOleException( hr );

  00050	8b 4d 08	 mov	 ecx, DWORD PTR _hr$[ebp]
  00053	51		 push	 ecx
  00054	e8 00 00 00 00	 call	 ?AfxThrowOleException@@YGXJ@Z ; AfxThrowOleException
$L192741:

; 71   : 	}
; 72   : #else
; 73   : 	throw CAtlException( hr );
; 74   : #endif
; 75   : };

  00059	83 c4 08	 add	 esp, 8
  0005c	3b ec		 cmp	 ebp, esp
  0005e	e8 00 00 00 00	 call	 __RTC_CheckEsp
  00063	8b e5		 mov	 esp, ebp
  00065	5d		 pop	 ebp
  00066	c2 04 00	 ret	 4
?AtlThrow@ATL@@YGXJ@Z ENDP				; ATL::AtlThrow
; Function compile flags: /Odt /RTCsu
; File d:\program files (x86)\microsoft visual studio .net 2003\vc7\atlmfc\include\atltrace.h
_TEXT	ENDS
;	COMDAT ??0CTraceFileAndLineInfo@ATL@@QAE@PBDH@Z
_TEXT	SEGMENT
_this$ = -4						; size = 4
_pszFileName$ = 8					; size = 4
_nLineNo$ = 12						; size = 4
??0CTraceFileAndLineInfo@ATL@@QAE@PBDH@Z PROC NEAR	; ATL::CTraceFileAndLineInfo::CTraceFileAndLineInfo, COMDAT
; _this$ = ecx

; 158  : 	{}

  00000	55		 push	 ebp
  00001	8b ec		 mov	 ebp, esp
  00003	51		 push	 ecx
  00004	c7 45 fc cc cc
	cc cc		 mov	 DWORD PTR [ebp-4], -858993460 ; ccccccccH
  0000b	89 4d fc	 mov	 DWORD PTR _this$[ebp], ecx
  0000e	8b 45 fc	 mov	 eax, DWORD PTR _this$[ebp]
  00011	8b 4d 08	 mov	 ecx, DWORD PTR _pszFileName$[ebp]
  00014	89 08		 mov	 DWORD PTR [eax], ecx
  00016	8b 55 fc	 mov	 edx, DWORD PTR _this$[ebp]
  00019	8b 45 0c	 mov	 eax, DWORD PTR _nLineNo$[ebp]
  0001c	89 42 04	 mov	 DWORD PTR [edx+4], eax
  0001f	8b 45 fc	 mov	 eax, DWORD PTR _this$[ebp]
  00022	8b e5		 mov	 esp, ebp
  00024	5d		 pop	 ebp
  00025	c2 08 00	 ret	 8
??0CTraceFileAndLineInfo@ATL@@QAE@PBDH@Z ENDP		; ATL::CTraceFileAndLineInfo::CTraceFileAndLineInfo
_TEXT	ENDS
PUBLIC	?TraceV@CTrace@ATL@@QBAXPBDHKI0PAD@Z		; ATL::CTrace::TraceV
EXTRN	?s_trace@CTrace@ATL@@2V12@A:QWORD		; ATL::CTrace::s_trace
; Function compile flags: /Odt /RTCsu
;	COMDAT ??RCTraceFileAndLineInfo@ATL@@QBAXKIPBDZZ
_TEXT	SEGMENT
_ptr$ = -4						; size = 4
_this$ = 8						; size = 4
_dwCategory$ = 12					; size = 4
_nLevel$ = 16						; size = 4
_pszFmt$ = 20						; size = 4
??RCTraceFileAndLineInfo@ATL@@QBAXKIPBDZZ PROC NEAR	; ATL::CTraceFileAndLineInfo::operator(), COMDAT

; 161  : 	{

  00000	55		 push	 ebp
  00001	8b ec		 mov	 ebp, esp
  00003	51		 push	 ecx
  00004	c7 45 fc cc cc
	cc cc		 mov	 DWORD PTR [ebp-4], -858993460 ; ccccccccH

; 162  : 		va_list ptr; va_start(ptr, pszFmt);

  0000b	8d 45 18	 lea	 eax, DWORD PTR _pszFmt$[ebp+4]
  0000e	89 45 fc	 mov	 DWORD PTR _ptr$[ebp], eax

; 163  : 		ATL::CTrace::s_trace.TraceV(m_pszFileName, m_nLineNo, dwCategory, nLevel, pszFmt, ptr);

  00011	8b 4d fc	 mov	 ecx, DWORD PTR _ptr$[ebp]
  00014	51		 push	 ecx
  00015	8b 55 14	 mov	 edx, DWORD PTR _pszFmt$[ebp]
  00018	52		 push	 edx
  00019	8b 45 10	 mov	 eax, DWORD PTR _nLevel$[ebp]
  0001c	50		 push	 eax
  0001d	8b 4d 0c	 mov	 ecx, DWORD PTR _dwCategory$[ebp]
  00020	51		 push	 ecx
  00021	8b 55 08	 mov	 edx, DWORD PTR _this$[ebp]
  00024	8b 42 04	 mov	 eax, DWORD PTR [edx+4]
  00027	50		 push	 eax
  00028	8b 4d 08	 mov	 ecx, DWORD PTR _this$[ebp]
  0002b	8b 11		 mov	 edx, DWORD PTR [ecx]
  0002d	52		 push	 edx
  0002e	68 00 00 00 00	 push	 OFFSET FLAT:?s_trace@CTrace@ATL@@2V12@A
  00033	e8 00 00 00 00	 call	 ?TraceV@CTrace@ATL@@QBAXPBDHKI0PAD@Z ; ATL::CTrace::TraceV
  00038	83 c4 1c	 add	 esp, 28			; 0000001cH

; 164  : 		va_end(ptr);

  0003b	c7 45 fc 00 00
	00 00		 mov	 DWORD PTR _ptr$[ebp], 0

; 165  : 	}

  00042	83 c4 04	 add	 esp, 4
  00045	3b ec		 cmp	 ebp, esp
  00047	e8 00 00 00 00	 call	 __RTC_CheckEsp
  0004c	8b e5		 mov	 esp, ebp
  0004e	5d		 pop	 ebp
  0004f	c3		 ret	 0
??RCTraceFileAndLineInfo@ATL@@QBAXKIPBDZZ ENDP		; ATL::CTraceFileAndLineInfo::operator()
_TEXT	ENDS
EXTRN	_AtlTraceVA:NEAR
; Function compile flags: /Odt /RTCsu
;	COMDAT ?TraceV@CTrace@ATL@@QBAXPBDHKI0PAD@Z
_TEXT	SEGMENT
_this$ = 8						; size = 4
_pszFileName$ = 12					; size = 4
_nLine$ = 16						; size = 4
_dwCategory$ = 20					; size = 4
_nLevel$ = 24						; size = 4
_pszFmt$ = 28						; size = 4
_args$ = 32						; size = 4
?TraceV@CTrace@ATL@@QBAXPBDHKI0PAD@Z PROC NEAR		; ATL::CTrace::TraceV, COMDAT

; 121  : 	{

  00000	55		 push	 ebp
  00001	8b ec		 mov	 ebp, esp

; 122  : 		AtlTraceVA(m_dwModule, pszFileName, nLine, dwCategory, nLevel, pszFmt, args);

  00003	8b 45 20	 mov	 eax, DWORD PTR _args$[ebp]
  00006	50		 push	 eax
  00007	8b 4d 1c	 mov	 ecx, DWORD PTR _pszFmt$[ebp]
  0000a	51		 push	 ecx
  0000b	8b 55 18	 mov	 edx, DWORD PTR _nLevel$[ebp]
  0000e	52		 push	 edx
  0000f	8b 45 14	 mov	 eax, DWORD PTR _dwCategory$[ebp]
  00012	50		 push	 eax
  00013	8b 4d 10	 mov	 ecx, DWORD PTR _nLine$[ebp]
  00016	51		 push	 ecx
  00017	8b 55 0c	 mov	 edx, DWORD PTR _pszFileName$[ebp]
  0001a	52		 push	 edx
  0001b	8b 45 08	 mov	 eax, DWORD PTR _this$[ebp]
  0001e	8b 48 04	 mov	 ecx, DWORD PTR [eax+4]
  00021	51		 push	 ecx
  00022	e8 00 00 00 00	 call	 _AtlTraceVA
  00027	83 c4 1c	 add	 esp, 28			; 0000001cH

; 123  : 	}

  0002a	3b ec		 cmp	 ebp, esp
  0002c	e8 00 00 00 00	 call	 __RTC_CheckEsp
  00031	5d		 pop	 ebp
  00032	c3		 ret	 0
?TraceV@CTrace@ATL@@QBAXPBDHKI0PAD@Z ENDP		; ATL::CTrace::TraceV
; Function compile flags: /Odt /RTCsu
_TEXT	ENDS
;	COMDAT ??BCTraceCategory@ATL@@QBEKXZ
_TEXT	SEGMENT
_this$ = -4						; size = 4
??BCTraceCategory@ATL@@QBEKXZ PROC NEAR			; ATL::CTraceCategory::operator unsigned long, COMDAT
; _this$ = ecx

; 202  : {

  00000	55		 push	 ebp
  00001	8b ec		 mov	 ebp, esp
  00003	51		 push	 ecx
  00004	c7 45 fc cc cc
	cc cc		 mov	 DWORD PTR [ebp-4], -858993460 ; ccccccccH
  0000b	89 4d fc	 mov	 DWORD PTR _this$[ebp], ecx

; 203  : 	return( m_dwCategory );

  0000e	8b 45 fc	 mov	 eax, DWORD PTR _this$[ebp]
  00011	8b 00		 mov	 eax, DWORD PTR [eax]

; 204  : }

  00013	8b e5		 mov	 esp, ebp
  00015	5d		 pop	 ebp
  00016	c3		 ret	 0
??BCTraceCategory@ATL@@QBEKXZ ENDP			; ATL::CTraceCategory::operator unsigned long
_TEXT	ENDS
PUBLIC	??Eiterator@?$vector@UOneLocalGame@@V?$allocator@UOneLocalGame@@@std@@@std@@QAEAAV012@XZ ; std::vector<OneLocalGame,std::allocator<OneLocalGame> >::iterator::operator++
; Function compile flags: /Odt /RTCsu
; File d:\program files (x86)\microsoft visual studio .net 2003\vc7\include\vector
;	COMDAT ??Eiterator@?$vector@UOneLocalGame@@V?$allocator@UOneLocalGame@@@std@@@std@@QAE?AV012@H@Z
_TEXT	SEGMENT
__Tmp$ = -12						; size = 4
_this$ = -4						; size = 4
___$ReturnUdt$ = 8					; size = 4
___formal$ = 12						; size = 4
??Eiterator@?$vector@UOneLocalGame@@V?$allocator@UOneLocalGame@@@std@@@std@@QAE?AV012@H@Z PROC NEAR ; std::vector<OneLocalGame,std::allocator<OneLocalGame> >::iterator::operator++, COMDAT
; _this$ = ecx

; 235  : 			{	// postincrement

  00000	55		 push	 ebp
  00001	8b ec		 mov	 ebp, esp
  00003	83 ec 10	 sub	 esp, 16			; 00000010H
  00006	b8 cc cc cc cc	 mov	 eax, -858993460		; ccccccccH
  0000b	89 45 f0	 mov	 DWORD PTR [ebp-16], eax
  0000e	89 45 f4	 mov	 DWORD PTR [ebp-12], eax
  00011	89 45 f8	 mov	 DWORD PTR [ebp-8], eax
  00014	89 45 fc	 mov	 DWORD PTR [ebp-4], eax
  00017	89 4d fc	 mov	 DWORD PTR _this$[ebp], ecx

; 236  : 			iterator _Tmp = *this;

  0001a	8b 45 fc	 mov	 eax, DWORD PTR _this$[ebp]
  0001d	8b 08		 mov	 ecx, DWORD PTR [eax]
  0001f	89 4d f4	 mov	 DWORD PTR __Tmp$[ebp], ecx

; 237  : 			++*this;

  00022	8b 4d fc	 mov	 ecx, DWORD PTR _this$[ebp]
  00025	e8 00 00 00 00	 call	 ??Eiterator@?$vector@UOneLocalGame@@V?$allocator@UOneLocalGame@@@std@@@std@@QAEAAV012@XZ ; std::vector<OneLocalGame,std::allocator<OneLocalGame> >::iterator::operator++

; 238  : 			return (_Tmp);

  0002a	8b 55 08	 mov	 edx, DWORD PTR ___$ReturnUdt$[ebp]
  0002d	8b 45 f4	 mov	 eax, DWORD PTR __Tmp$[ebp]
  00030	89 02		 mov	 DWORD PTR [edx], eax
  00032	8b 45 08	 mov	 eax, DWORD PTR ___$ReturnUdt$[ebp]

; 239  : 			}

  00035	52		 push	 edx
  00036	8b cd		 mov	 ecx, ebp
  00038	50		 push	 eax
  00039	8d 15 00 00 00
	00		 lea	 edx, DWORD PTR $L192750
  0003f	e8 00 00 00 00	 call	 @_RTC_CheckStackVars@8
  00044	58		 pop	 eax
  00045	5a		 pop	 edx
  00046	83 c4 10	 add	 esp, 16			; 00000010H
  00049	3b ec		 cmp	 ebp, esp
  0004b	e8 00 00 00 00	 call	 __RTC_CheckEsp
  00050	8b e5		 mov	 esp, ebp
  00052	5d		 pop	 ebp
  00053	c2 08 00	 ret	 8
$L192750:
  00056	01 00 00 00	 DD	 1
  0005a	00 00 00 00	 DD	 $L192749
$L192749:
  0005e	f4 ff ff ff	 DD	 -12			; fffffff4H
  00062	04 00 00 00	 DD	 4
  00066	00 00 00 00	 DD	 $L192748
$L192748:
  0006a	5f		 DB	 95			; 0000005fH
  0006b	54		 DB	 84			; 00000054H
  0006c	6d		 DB	 109			; 0000006dH
  0006d	70		 DB	 112			; 00000070H
  0006e	00		 DB	 0
??Eiterator@?$vector@UOneLocalGame@@V?$allocator@UOneLocalGame@@@std@@@std@@QAE?AV012@H@Z ENDP ; std::vector<OneLocalGame,std::allocator<OneLocalGame> >::iterator::operator++
_TEXT	ENDS
PUBLIC	??8const_iterator@?$vector@UOneLocalGame@@V?$allocator@UOneLocalGame@@@std@@@std@@QBE_NABV012@@Z ; std::vector<OneLocalGame,std::allocator<OneLocalGame> >::const_iterator::operator==
; Function compile flags: /Odt /RTCsu
;	COMDAT ??9const_iterator@?$vector@UOneLocalGame@@V?$allocator@UOneLocalGame@@@std@@@std@@QBE_NABV012@@Z
_TEXT	SEGMENT
_this$ = -4						; size = 4
__Right$ = 8						; size = 4
??9const_iterator@?$vector@UOneLocalGame@@V?$allocator@UOneLocalGame@@@std@@@std@@QBE_NABV012@@Z PROC NEAR ; std::vector<OneLocalGame,std::allocator<OneLocalGame> >::const_iterator::operator!=, COMDAT
; _this$ = ecx

; 159  : 			{	// test for iterator inequality

  00000	55		 push	 ebp
  00001	8b ec		 mov	 ebp, esp
  00003	51		 push	 ecx
  00004	c7 45 fc cc cc
	cc cc		 mov	 DWORD PTR [ebp-4], -858993460 ; ccccccccH
  0000b	89 4d fc	 mov	 DWORD PTR _this$[ebp], ecx

; 160  : 			return (!(*this == _Right));

  0000e	8b 45 08	 mov	 eax, DWORD PTR __Right$[ebp]
  00011	50		 push	 eax
  00012	8b 4d fc	 mov	 ecx, DWORD PTR _this$[ebp]
  00015	e8 00 00 00 00	 call	 ??8const_iterator@?$vector@UOneLocalGame@@V?$allocator@UOneLocalGame@@@std@@@std@@QBE_NABV012@@Z ; std::vector<OneLocalGame,std::allocator<OneLocalGame> >::const_iterator::operator==
  0001a	0f b6 c0	 movzx	 eax, al
  0001d	f7 d8		 neg	 eax
  0001f	1b c0		 sbb	 eax, eax
  00021	40		 inc	 eax

; 161  : 			}

  00022	83 c4 04	 add	 esp, 4
  00025	3b ec		 cmp	 ebp, esp
  00027	e8 00 00 00 00	 call	 __RTC_CheckEsp
  0002c	8b e5		 mov	 esp, ebp
  0002e	5d		 pop	 ebp
  0002f	c2 04 00	 ret	 4
??9const_iterator@?$vector@UOneLocalGame@@V?$allocator@UOneLocalGame@@@std@@@std@@QBE_NABV012@@Z ENDP ; std::vector<OneLocalGame,std::allocator<OneLocalGame> >::const_iterator::operator!=
_TEXT	ENDS
PUBLIC	??0?$allocator@PAVIMessageObserver@@@std@@QAE@XZ ; std::allocator<IMessageObserver *>::allocator<IMessageObserver *>
PUBLIC	??0?$_List_val@PAVIMessageObserver@@V?$allocator@PAVIMessageObserver@@@std@@@std@@IAE@V?$allocator@PAVIMessageObserver@@@1@@Z ; std::_List_val<IMessageObserver *,std::allocator<IMessageObserver *> >::_List_val<IMessageObserver *,std::allocator<IMessageObserver *> >
PUBLIC	?_Buynode@?$list@PAVIMessageObserver@@V?$allocator@PAVIMessageObserver@@@std@@@std@@IAEPAU_Node@?$_List_nod@PAVIMessageObserver@@V?$allocator@PAVIMessageObserver@@@std@@@2@XZ ; std::list<IMessageObserver *,std::allocator<IMessageObserver *> >::_Buynode
; Function compile flags: /Odt /RTCsu
; File d:\program files (x86)\microsoft visual studio .net 2003\vc7\include\list
;	COMDAT ??0?$list@PAVIMessageObserver@@V?$allocator@PAVIMessageObserver@@@std@@@std@@QAE@XZ
_TEXT	SEGMENT
_this$ = -4						; size = 4
??0?$list@PAVIMessageObserver@@V?$allocator@PAVIMessageObserver@@@std@@@std@@QAE@XZ PROC NEAR ; std::list<IMessageObserver *,std::allocator<IMessageObserver *> >::list<IMessageObserver *,std::allocator<IMessageObserver *> >, COMDAT
; _this$ = ecx

; 280  : 		{	// construct empty list

  00000	55		 push	 ebp
  00001	8b ec		 mov	 ebp, esp
  00003	83 ec 08	 sub	 esp, 8
  00006	c7 45 f8 cc cc
	cc cc		 mov	 DWORD PTR [ebp-8], -858993460 ; ccccccccH
  0000d	c7 45 fc cc cc
	cc cc		 mov	 DWORD PTR [ebp-4], -858993460 ; ccccccccH
  00014	89 4d fc	 mov	 DWORD PTR _this$[ebp], ecx
  00017	51		 push	 ecx
  00018	8b cc		 mov	 ecx, esp
  0001a	e8 00 00 00 00	 call	 ??0?$allocator@PAVIMessageObserver@@@std@@QAE@XZ ; std::allocator<IMessageObserver *>::allocator<IMessageObserver *>
  0001f	8b 4d fc	 mov	 ecx, DWORD PTR _this$[ebp]
  00022	e8 00 00 00 00	 call	 ??0?$_List_val@PAVIMessageObserver@@V?$allocator@PAVIMessageObserver@@@std@@@std@@IAE@V?$allocator@PAVIMessageObserver@@@1@@Z ; std::_List_val<IMessageObserver *,std::allocator<IMessageObserver *> >::_List_val<IMessageObserver *,std::allocator<IMessageObserver *> >
  00027	8b 4d fc	 mov	 ecx, DWORD PTR _this$[ebp]
  0002a	e8 00 00 00 00	 call	 ?_Buynode@?$list@PAVIMessageObserver@@V?$allocator@PAVIMessageObserver@@@std@@@std@@IAEPAU_Node@?$_List_nod@PAVIMessageObserver@@V?$allocator@PAVIMessageObserver@@@std@@@2@XZ ; std::list<IMessageObserver *,std::allocator<IMessageObserver *> >::_Buynode
  0002f	8b 4d fc	 mov	 ecx, DWORD PTR _this$[ebp]
  00032	89 41 04	 mov	 DWORD PTR [ecx+4], eax
  00035	8b 55 fc	 mov	 edx, DWORD PTR _this$[ebp]
  00038	c7 42 08 00 00
	00 00		 mov	 DWORD PTR [edx+8], 0

; 281  : 		}

  0003f	8b 45 fc	 mov	 eax, DWORD PTR _this$[ebp]
  00042	83 c4 08	 add	 esp, 8
  00045	3b ec		 cmp	 ebp, esp
  00047	e8 00 00 00 00	 call	 __RTC_CheckEsp
  0004c	8b e5		 mov	 esp, ebp
  0004e	5d		 pop	 ebp
  0004f	c3		 ret	 0
??0?$list@PAVIMessageObserver@@V?$allocator@PAVIMessageObserver@@@std@@@std@@QAE@XZ ENDP ; std::list<IMessageObserver *,std::allocator<IMessageObserver *> >::list<IMessageObserver *,std::allocator<IMessageObserver *> >
_TEXT	ENDS
PUBLIC	?_Tidy@?$list@PAVIMessageObserver@@V?$allocator@PAVIMessageObserver@@@std@@@std@@IAEXXZ ; std::list<IMessageObserver *,std::allocator<IMessageObserver *> >::_Tidy
; Function compile flags: /Odt /RTCsu
;	COMDAT ??1?$list@PAVIMessageObserver@@V?$allocator@PAVIMessageObserver@@@std@@@std@@QAE@XZ
_TEXT	SEGMENT
_this$ = -4						; size = 4
??1?$list@PAVIMessageObserver@@V?$allocator@PAVIMessageObserver@@@std@@@std@@QAE@XZ PROC NEAR ; std::list<IMessageObserver *,std::allocator<IMessageObserver *> >::~list<IMessageObserver *,std::allocator<IMessageObserver *> >, COMDAT
; _this$ = ecx

; 364  : 		{	// destroy the object

  00000	55		 push	 ebp
  00001	8b ec		 mov	 ebp, esp
  00003	51		 push	 ecx
  00004	c7 45 fc cc cc
	cc cc		 mov	 DWORD PTR [ebp-4], -858993460 ; ccccccccH
  0000b	89 4d fc	 mov	 DWORD PTR _this$[ebp], ecx

; 365  : 		_Tidy();

  0000e	8b 4d fc	 mov	 ecx, DWORD PTR _this$[ebp]
  00011	e8 00 00 00 00	 call	 ?_Tidy@?$list@PAVIMessageObserver@@V?$allocator@PAVIMessageObserver@@@std@@@std@@IAEXXZ ; std::list<IMessageObserver *,std::allocator<IMessageObserver *> >::_Tidy

; 366  : 		}

  00016	83 c4 04	 add	 esp, 4
  00019	3b ec		 cmp	 ebp, esp
  0001b	e8 00 00 00 00	 call	 __RTC_CheckEsp
  00020	8b e5		 mov	 esp, ebp
  00022	5d		 pop	 ebp
  00023	c3		 ret	 0
??1?$list@PAVIMessageObserver@@V?$allocator@PAVIMessageObserver@@@std@@@std@@QAE@XZ ENDP ; std::list<IMessageObserver *,std::allocator<IMessageObserver *> >::~list<IMessageObserver *,std::allocator<IMessageObserver *> >
_TEXT	ENDS
PUBLIC	?GetStringTypeExWFake@ATL@@YGHKKPB_WHPAG@Z	; ATL::GetStringTypeExWFake
EXTRN	__imp__GetStringTypeExW@20:NEAR
; Function compile flags: /Odt /RTCsu
; File d:\program files (x86)\microsoft visual studio .net 2003\vc7\atlmfc\include\cstringt.h
;	COMDAT ?GetStringTypeExWThunk@ATL@@YGHKKPB_WHPAG@Z
_TEXT	SEGMENT
_lcid$ = 8						; size = 4
_dwInfoType$ = 12					; size = 4
_pszSrc$ = 16						; size = 4
_nLength$ = 20						; size = 4
_pwCharType$ = 24					; size = 4
?GetStringTypeExWThunk@ATL@@YGHKKPB_WHPAG@Z PROC NEAR	; ATL::GetStringTypeExWThunk, COMDAT

; 240  : {

  00000	55		 push	 ebp
  00001	8b ec		 mov	 ebp, esp
  00003	56		 push	 esi

; 241  : 	_AtlInstallStringThunk(reinterpret_cast<void**>(&_strthunks.pfnGetStringTypeExW), GetStringTypeExWFake, ::GetStringTypeExW);

  00004	a1 00 00 00 00	 mov	 eax, DWORD PTR __imp__GetStringTypeExW@20
  00009	50		 push	 eax
  0000a	68 00 00 00 00	 push	 OFFSET FLAT:?GetStringTypeExWFake@ATL@@YGHKKPB_WHPAG@Z ; ATL::GetStringTypeExWFake
  0000f	68 04 00 00 00	 push	 OFFSET FLAT:?_strthunks@ATL@@3U_AtlStringThunks@1@A+4
  00014	e8 00 00 00 00	 call	 ?_AtlInstallStringThunk@ATL@@YAXPAPAXPAX1@Z ; ATL::_AtlInstallStringThunk
  00019	83 c4 0c	 add	 esp, 12			; 0000000cH

; 242  : 
; 243  : 	return _strthunks.pfnGetStringTypeExW(lcid, dwInfoType, pszSrc, nLength, pwCharType);

  0001c	8b f4		 mov	 esi, esp
  0001e	8b 4d 18	 mov	 ecx, DWORD PTR _pwCharType$[ebp]
  00021	51		 push	 ecx
  00022	8b 55 14	 mov	 edx, DWORD PTR _nLength$[ebp]
  00025	52		 push	 edx
  00026	8b 45 10	 mov	 eax, DWORD PTR _pszSrc$[ebp]
  00029	50		 push	 eax
  0002a	8b 4d 0c	 mov	 ecx, DWORD PTR _dwInfoType$[ebp]
  0002d	51		 push	 ecx
  0002e	8b 55 08	 mov	 edx, DWORD PTR _lcid$[ebp]
  00031	52		 push	 edx
  00032	ff 15 04 00 00
	00		 call	 DWORD PTR ?_strthunks@ATL@@3U_AtlStringThunks@1@A+4
  00038	3b f4		 cmp	 esi, esp
  0003a	e8 00 00 00 00	 call	 __RTC_CheckEsp

; 244  : }

  0003f	5e		 pop	 esi
  00040	3b ec		 cmp	 ebp, esp
  00042	e8 00 00 00 00	 call	 __RTC_CheckEsp
  00047	5d		 pop	 ebp
  00048	c2 14 00	 ret	 20			; 00000014H
?GetStringTypeExWThunk@ATL@@YGHKKPB_WHPAG@Z ENDP	; ATL::GetStringTypeExWThunk
_TEXT	ENDS
EXTRN	__imp__GetStringTypeExA@20:NEAR
;	COMDAT xdata$x
xdata$x	SEGMENT
$T192767 DD	0ffffffffH
	DD	FLAT:$L192759
$T192761 DD	019930520H
	DD	01H
	DD	FLAT:$T192767
	DD	2 DUP(00H)
	DD	2 DUP(00H)
; Function compile flags: /Odt /RTCsu
xdata$x	ENDS
;	COMDAT ?GetStringTypeExWFake@ATL@@YGHKKPB_WHPAG@Z
_TEXT	SEGMENT
$T192758 = -164						; size = 4
_pszA$ = -156						; size = 132
_nLengthA$ = -20					; size = 4
__$ArrayPad$ = -16					; size = 4
__$EHRec$ = -12						; size = 12
__$ReturnAddr$ = 4					; size = 4
_lcid$ = 8						; size = 4
_dwInfoType$ = 12					; size = 4
_pszSrc$ = 16						; size = 4
_nLength$ = 20						; size = 4
_pwCharType$ = 24					; size = 4
?GetStringTypeExWFake@ATL@@YGHKKPB_WHPAG@Z PROC NEAR	; ATL::GetStringTypeExWFake, COMDAT

; 224  : {

  00000	55		 push	 ebp
  00001	8b ec		 mov	 ebp, esp
  00003	6a ff		 push	 -1
  00005	68 00 00 00 00	 push	 __ehhandler$?GetStringTypeExWFake@ATL@@YGHKKPB_WHPAG@Z
  0000a	64 a1 00 00 00
	00		 mov	 eax, DWORD PTR fs:__except_list
  00010	50		 push	 eax
  00011	64 89 25 00 00
	00 00		 mov	 DWORD PTR fs:__except_list, esp
  00018	81 ec 98 00 00
	00		 sub	 esp, 152		; 00000098H
  0001e	56		 push	 esi
  0001f	57		 push	 edi
  00020	8d bd 5c ff ff
	ff		 lea	 edi, DWORD PTR [ebp-164]
  00026	b9 26 00 00 00	 mov	 ecx, 38			; 00000026H
  0002b	b8 cc cc cc cc	 mov	 eax, -858993460		; ccccccccH
  00030	f3 ab		 rep stosd
  00032	a1 00 00 00 00	 mov	 eax, DWORD PTR ___security_cookie
  00037	89 45 f0	 mov	 DWORD PTR __$ArrayPad$[ebp], eax

; 225  : 	int nLengthA;
; 226  : 	CTempBuffer<char> pszA;

  0003a	8d 8d 64 ff ff
	ff		 lea	 ecx, DWORD PTR _pszA$[ebp]
  00040	e8 00 00 00 00	 call	 ??0?$CTempBuffer@D$0IA@VCCRTAllocator@ATL@@@ATL@@QAE@XZ ; ATL::CTempBuffer<char,128,ATL::CCRTAllocator>::CTempBuffer<char,128,ATL::CCRTAllocator>
  00045	c7 45 fc 00 00
	00 00		 mov	 DWORD PTR __$EHRec$[ebp+8], 0

; 227  : 
; 228  : 	nLengthA = ::WideCharToMultiByte(_AtlGetConversionACP(), 0, pszSrc, nLength, NULL, 0, NULL, NULL);

  0004c	8b f4		 mov	 esi, esp
  0004e	6a 00		 push	 0
  00050	6a 00		 push	 0
  00052	6a 00		 push	 0
  00054	6a 00		 push	 0
  00056	8b 45 14	 mov	 eax, DWORD PTR _nLength$[ebp]
  00059	50		 push	 eax
  0005a	8b 4d 10	 mov	 ecx, DWORD PTR _pszSrc$[ebp]
  0005d	51		 push	 ecx
  0005e	6a 00		 push	 0
  00060	e8 00 00 00 00	 call	 ?_AtlGetConversionACP@ATL@@YGIXZ ; ATL::_AtlGetConversionACP
  00065	50		 push	 eax
  00066	ff 15 00 00 00
	00		 call	 DWORD PTR __imp__WideCharToMultiByte@32
  0006c	3b f4		 cmp	 esi, esp
  0006e	e8 00 00 00 00	 call	 __RTC_CheckEsp
  00073	89 45 ec	 mov	 DWORD PTR _nLengthA$[ebp], eax

; 229  : 	pszA.Allocate(nLengthA);

  00076	8b 55 ec	 mov	 edx, DWORD PTR _nLengthA$[ebp]
  00079	52		 push	 edx
  0007a	8d 8d 64 ff ff
	ff		 lea	 ecx, DWORD PTR _pszA$[ebp]
  00080	e8 00 00 00 00	 call	 ?Allocate@?$CTempBuffer@D$0IA@VCCRTAllocator@ATL@@@ATL@@QAEPADI@Z ; ATL::CTempBuffer<char,128,ATL::CCRTAllocator>::Allocate

; 230  : 	::WideCharToMultiByte(_AtlGetConversionACP(), 0, pszSrc, nLength, pszA, nLengthA, NULL, NULL);

  00085	8b f4		 mov	 esi, esp
  00087	6a 00		 push	 0
  00089	6a 00		 push	 0
  0008b	8b 45 ec	 mov	 eax, DWORD PTR _nLengthA$[ebp]
  0008e	50		 push	 eax
  0008f	8d 8d 64 ff ff
	ff		 lea	 ecx, DWORD PTR _pszA$[ebp]
  00095	e8 00 00 00 00	 call	 ??B?$CTempBuffer@D$0IA@VCCRTAllocator@ATL@@@ATL@@QBEPADXZ ; ATL::CTempBuffer<char,128,ATL::CCRTAllocator>::operator char *
  0009a	50		 push	 eax
  0009b	8b 4d 14	 mov	 ecx, DWORD PTR _nLength$[ebp]
  0009e	51		 push	 ecx
  0009f	8b 55 10	 mov	 edx, DWORD PTR _pszSrc$[ebp]
  000a2	52		 push	 edx
  000a3	6a 00		 push	 0
  000a5	e8 00 00 00 00	 call	 ?_AtlGetConversionACP@ATL@@YGIXZ ; ATL::_AtlGetConversionACP
  000aa	50		 push	 eax
  000ab	ff 15 00 00 00
	00		 call	 DWORD PTR __imp__WideCharToMultiByte@32
  000b1	3b f4		 cmp	 esi, esp
  000b3	e8 00 00 00 00	 call	 __RTC_CheckEsp

; 231  : 
; 232  : 	if (nLength == -1)

  000b8	83 7d 14 ff	 cmp	 DWORD PTR _nLength$[ebp], -1
  000bc	75 07		 jne	 SHORT $L26381

; 233  : 		nLengthA = -1;

  000be	c7 45 ec ff ff
	ff ff		 mov	 DWORD PTR _nLengthA$[ebp], -1
$L26381:

; 234  : 
; 235  : 	return ::GetStringTypeExA(lcid, dwInfoType, pszA, nLengthA, pwCharType);

  000c5	8b f4		 mov	 esi, esp
  000c7	8b 45 18	 mov	 eax, DWORD PTR _pwCharType$[ebp]
  000ca	50		 push	 eax
  000cb	8b 4d ec	 mov	 ecx, DWORD PTR _nLengthA$[ebp]
  000ce	51		 push	 ecx
  000cf	8d 8d 64 ff ff
	ff		 lea	 ecx, DWORD PTR _pszA$[ebp]
  000d5	e8 00 00 00 00	 call	 ??B?$CTempBuffer@D$0IA@VCCRTAllocator@ATL@@@ATL@@QBEPADXZ ; ATL::CTempBuffer<char,128,ATL::CCRTAllocator>::operator char *
  000da	50		 push	 eax
  000db	8b 55 0c	 mov	 edx, DWORD PTR _dwInfoType$[ebp]
  000de	52		 push	 edx
  000df	8b 45 08	 mov	 eax, DWORD PTR _lcid$[ebp]
  000e2	50		 push	 eax
  000e3	ff 15 00 00 00
	00		 call	 DWORD PTR __imp__GetStringTypeExA@20
  000e9	3b f4		 cmp	 esi, esp
  000eb	e8 00 00 00 00	 call	 __RTC_CheckEsp
  000f0	89 85 5c ff ff
	ff		 mov	 DWORD PTR $T192758[ebp], eax
  000f6	c7 45 fc ff ff
	ff ff		 mov	 DWORD PTR __$EHRec$[ebp+8], -1
  000fd	8d 8d 64 ff ff
	ff		 lea	 ecx, DWORD PTR _pszA$[ebp]
  00103	e8 00 00 00 00	 call	 ??1?$CTempBuffer@D$0IA@VCCRTAllocator@ATL@@@ATL@@QAE@XZ ; ATL::CTempBuffer<char,128,ATL::CCRTAllocator>::~CTempBuffer<char,128,ATL::CCRTAllocator>
  00108	8b 85 5c ff ff
	ff		 mov	 eax, DWORD PTR $T192758[ebp]

; 236  : }

  0010e	52		 push	 edx
  0010f	8b cd		 mov	 ecx, ebp
  00111	50		 push	 eax
  00112	8d 15 00 00 00
	00		 lea	 edx, DWORD PTR $L192766
  00118	e8 00 00 00 00	 call	 @_RTC_CheckStackVars@8
  0011d	58		 pop	 eax
  0011e	5a		 pop	 edx
  0011f	8b 4d f4	 mov	 ecx, DWORD PTR __$EHRec$[ebp]
  00122	64 89 0d 00 00
	00 00		 mov	 DWORD PTR fs:__except_list, ecx
  00129	8b 4d f0	 mov	 ecx, DWORD PTR __$ArrayPad$[ebp]
  0012c	e8 00 00 00 00	 call	 @__security_check_cookie@4
  00131	5f		 pop	 edi
  00132	5e		 pop	 esi
  00133	81 c4 a4 00 00
	00		 add	 esp, 164		; 000000a4H
  00139	3b ec		 cmp	 ebp, esp
  0013b	e8 00 00 00 00	 call	 __RTC_CheckEsp
  00140	8b e5		 mov	 esp, ebp
  00142	5d		 pop	 ebp
  00143	c2 14 00	 ret	 20			; 00000014H
$L192766:
  00146	01 00 00 00	 DD	 1
  0014a	00 00 00 00	 DD	 $L192765
$L192765:
  0014e	64 ff ff ff	 DD	 -156			; ffffff64H
  00152	84 00 00 00	 DD	 132			; 00000084H
  00156	00 00 00 00	 DD	 $L192762
$L192762:
  0015a	70		 DB	 112			; 00000070H
  0015b	73		 DB	 115			; 00000073H
  0015c	7a		 DB	 122			; 0000007aH
  0015d	41		 DB	 65			; 00000041H
  0015e	00		 DB	 0
_TEXT	ENDS
;	COMDAT text$x
text$x	SEGMENT
$L192759:
  00000	8d 8d 64 ff ff
	ff		 lea	 ecx, DWORD PTR _pszA$[ebp]
  00006	e9 00 00 00 00	 jmp	 ??1?$CTempBuffer@D$0IA@VCCRTAllocator@ATL@@@ATL@@QAE@XZ ; ATL::CTempBuffer<char,128,ATL::CCRTAllocator>::~CTempBuffer<char,128,ATL::CCRTAllocator>
__ehhandler$?GetStringTypeExWFake@ATL@@YGHKKPB_WHPAG@Z:
  0000b	b8 00 00 00 00	 mov	 eax, OFFSET FLAT:$T192761
  00010	e9 00 00 00 00	 jmp	 ___CxxFrameHandler
text$x	ENDS
?GetStringTypeExWFake@ATL@@YGHKKPB_WHPAG@Z ENDP		; ATL::GetStringTypeExWFake
PUBLIC	??0iterator@?$list@PAVIMessageObserver@@V?$allocator@PAVIMessageObserver@@@std@@@std@@QAE@PAU_Node@?$_List_nod@PAVIMessageObserver@@V?$allocator@PAVIMessageObserver@@@std@@@2@@Z ; std::list<IMessageObserver *,std::allocator<IMessageObserver *> >::iterator::iterator
PUBLIC	?_Nextnode@?$list@PAVIMessageObserver@@V?$allocator@PAVIMessageObserver@@@std@@@std@@KAAAPAU_Node@?$_List_nod@PAVIMessageObserver@@V?$allocator@PAVIMessageObserver@@@std@@@2@PAU342@@Z ; std::list<IMessageObserver *,std::allocator<IMessageObserver *> >::_Nextnode
; Function compile flags: /Odt /RTCsu
; File d:\program files (x86)\microsoft visual studio .net 2003\vc7\include\list
;	COMDAT ?begin@?$list@PAVIMessageObserver@@V?$allocator@PAVIMessageObserver@@@std@@@std@@QAE?AViterator@12@XZ
_TEXT	SEGMENT
_this$ = -4						; size = 4
___$ReturnUdt$ = 8					; size = 4
?begin@?$list@PAVIMessageObserver@@V?$allocator@PAVIMessageObserver@@@std@@@std@@QAE?AViterator@12@XZ PROC NEAR ; std::list<IMessageObserver *,std::allocator<IMessageObserver *> >::begin, COMDAT
; _this$ = ecx

; 376  : 		{	// return iterator for beginning of mutable sequence

  00000	55		 push	 ebp
  00001	8b ec		 mov	 ebp, esp
  00003	51		 push	 ecx
  00004	c7 45 fc cc cc
	cc cc		 mov	 DWORD PTR [ebp-4], -858993460 ; ccccccccH
  0000b	89 4d fc	 mov	 DWORD PTR _this$[ebp], ecx

; 377  : 		return (iterator(_Nextnode(_Myhead)));

  0000e	8b 45 fc	 mov	 eax, DWORD PTR _this$[ebp]
  00011	8b 48 04	 mov	 ecx, DWORD PTR [eax+4]
  00014	51		 push	 ecx
  00015	e8 00 00 00 00	 call	 ?_Nextnode@?$list@PAVIMessageObserver@@V?$allocator@PAVIMessageObserver@@@std@@@std@@KAAAPAU_Node@?$_List_nod@PAVIMessageObserver@@V?$allocator@PAVIMessageObserver@@@std@@@2@PAU342@@Z ; std::list<IMessageObserver *,std::allocator<IMessageObserver *> >::_Nextnode
  0001a	83 c4 04	 add	 esp, 4
  0001d	8b 10		 mov	 edx, DWORD PTR [eax]
  0001f	52		 push	 edx
  00020	8b 4d 08	 mov	 ecx, DWORD PTR ___$ReturnUdt$[ebp]
  00023	e8 00 00 00 00	 call	 ??0iterator@?$list@PAVIMessageObserver@@V?$allocator@PAVIMessageObserver@@@std@@@std@@QAE@PAU_Node@?$_List_nod@PAVIMessageObserver@@V?$allocator@PAVIMessageObserver@@@std@@@2@@Z ; std::list<IMessageObserver *,std::allocator<IMessageObserver *> >::iterator::iterator
  00028	8b 45 08	 mov	 eax, DWORD PTR ___$ReturnUdt$[ebp]

; 378  : 		}

  0002b	83 c4 04	 add	 esp, 4
  0002e	3b ec		 cmp	 ebp, esp
  00030	e8 00 00 00 00	 call	 __RTC_CheckEsp
  00035	8b e5		 mov	 esp, ebp
  00037	5d		 pop	 ebp
  00038	c2 04 00	 ret	 4
?begin@?$list@PAVIMessageObserver@@V?$allocator@PAVIMessageObserver@@@std@@@std@@QAE?AViterator@12@XZ ENDP ; std::list<IMessageObserver *,std::allocator<IMessageObserver *> >::begin
; Function compile flags: /Odt /RTCsu
_TEXT	ENDS
;	COMDAT ?end@?$list@PAVIMessageObserver@@V?$allocator@PAVIMessageObserver@@@std@@@std@@QAE?AViterator@12@XZ
_TEXT	SEGMENT
_this$ = -4						; size = 4
___$ReturnUdt$ = 8					; size = 4
?end@?$list@PAVIMessageObserver@@V?$allocator@PAVIMessageObserver@@@std@@@std@@QAE?AViterator@12@XZ PROC NEAR ; std::list<IMessageObserver *,std::allocator<IMessageObserver *> >::end, COMDAT
; _this$ = ecx

; 386  : 		{	// return iterator for end of mutable sequence

  00000	55		 push	 ebp
  00001	8b ec		 mov	 ebp, esp
  00003	51		 push	 ecx
  00004	c7 45 fc cc cc
	cc cc		 mov	 DWORD PTR [ebp-4], -858993460 ; ccccccccH
  0000b	89 4d fc	 mov	 DWORD PTR _this$[ebp], ecx

; 387  : 		return (iterator(_Myhead));

  0000e	8b 45 fc	 mov	 eax, DWORD PTR _this$[ebp]
  00011	8b 48 04	 mov	 ecx, DWORD PTR [eax+4]
  00014	51		 push	 ecx
  00015	8b 4d 08	 mov	 ecx, DWORD PTR ___$ReturnUdt$[ebp]
  00018	e8 00 00 00 00	 call	 ??0iterator@?$list@PAVIMessageObserver@@V?$allocator@PAVIMessageObserver@@@std@@@std@@QAE@PAU_Node@?$_List_nod@PAVIMessageObserver@@V?$allocator@PAVIMessageObserver@@@std@@@2@@Z ; std::list<IMessageObserver *,std::allocator<IMessageObserver *> >::iterator::iterator
  0001d	8b 45 08	 mov	 eax, DWORD PTR ___$ReturnUdt$[ebp]

; 388  : 		}

  00020	83 c4 04	 add	 esp, 4
  00023	3b ec		 cmp	 ebp, esp
  00025	e8 00 00 00 00	 call	 __RTC_CheckEsp
  0002a	8b e5		 mov	 esp, ebp
  0002c	5d		 pop	 ebp
  0002d	c2 04 00	 ret	 4
?end@?$list@PAVIMessageObserver@@V?$allocator@PAVIMessageObserver@@@std@@@std@@QAE?AViterator@12@XZ ENDP ; std::list<IMessageObserver *,std::allocator<IMessageObserver *> >::end
_TEXT	ENDS
PUBLIC	??Dconst_iterator@?$list@PAVIMessageObserver@@V?$allocator@PAVIMessageObserver@@@std@@@std@@QBEABQAVIMessageObserver@@XZ ; std::list<IMessageObserver *,std::allocator<IMessageObserver *> >::const_iterator::operator*
; Function compile flags: /Odt /RTCsu
;	COMDAT ??Diterator@?$list@PAVIMessageObserver@@V?$allocator@PAVIMessageObserver@@@std@@@std@@QBEAAPAVIMessageObserver@@XZ
_TEXT	SEGMENT
_this$ = -4						; size = 4
??Diterator@?$list@PAVIMessageObserver@@V?$allocator@PAVIMessageObserver@@@std@@@std@@QBEAAPAVIMessageObserver@@XZ PROC NEAR ; std::list<IMessageObserver *,std::allocator<IMessageObserver *> >::iterator::operator*, COMDAT
; _this$ = ecx

; 239  : 			{	// return designated value

  00000	55		 push	 ebp
  00001	8b ec		 mov	 ebp, esp
  00003	51		 push	 ecx
  00004	c7 45 fc cc cc
	cc cc		 mov	 DWORD PTR [ebp-4], -858993460 ; ccccccccH
  0000b	89 4d fc	 mov	 DWORD PTR _this$[ebp], ecx

; 240  : 			return ((reference)**(const_iterator *)this);

  0000e	8b 4d fc	 mov	 ecx, DWORD PTR _this$[ebp]
  00011	e8 00 00 00 00	 call	 ??Dconst_iterator@?$list@PAVIMessageObserver@@V?$allocator@PAVIMessageObserver@@@std@@@std@@QBEABQAVIMessageObserver@@XZ ; std::list<IMessageObserver *,std::allocator<IMessageObserver *> >::const_iterator::operator*

; 241  : 			}

  00016	83 c4 04	 add	 esp, 4
  00019	3b ec		 cmp	 ebp, esp
  0001b	e8 00 00 00 00	 call	 __RTC_CheckEsp
  00020	8b e5		 mov	 esp, ebp
  00022	5d		 pop	 ebp
  00023	c3		 ret	 0
??Diterator@?$list@PAVIMessageObserver@@V?$allocator@PAVIMessageObserver@@@std@@@std@@QBEAAPAVIMessageObserver@@XZ ENDP ; std::list<IMessageObserver *,std::allocator<IMessageObserver *> >::iterator::operator*
_TEXT	ENDS
PUBLIC	??Eiterator@?$list@PAVIMessageObserver@@V?$allocator@PAVIMessageObserver@@@std@@@std@@QAEAAV012@XZ ; std::list<IMessageObserver *,std::allocator<IMessageObserver *> >::iterator::operator++
; Function compile flags: /Odt /RTCsu
;	COMDAT ??Eiterator@?$list@PAVIMessageObserver@@V?$allocator@PAVIMessageObserver@@@std@@@std@@QAE?AV012@H@Z
_TEXT	SEGMENT
__Tmp$ = -12						; size = 4
_this$ = -4						; size = 4
___$ReturnUdt$ = 8					; size = 4
___formal$ = 12						; size = 4
??Eiterator@?$list@PAVIMessageObserver@@V?$allocator@PAVIMessageObserver@@@std@@@std@@QAE?AV012@H@Z PROC NEAR ; std::list<IMessageObserver *,std::allocator<IMessageObserver *> >::iterator::operator++, COMDAT
; _this$ = ecx

; 255  : 			{	// postincrement

  00000	55		 push	 ebp
  00001	8b ec		 mov	 ebp, esp
  00003	83 ec 10	 sub	 esp, 16			; 00000010H
  00006	b8 cc cc cc cc	 mov	 eax, -858993460		; ccccccccH
  0000b	89 45 f0	 mov	 DWORD PTR [ebp-16], eax
  0000e	89 45 f4	 mov	 DWORD PTR [ebp-12], eax
  00011	89 45 f8	 mov	 DWORD PTR [ebp-8], eax
  00014	89 45 fc	 mov	 DWORD PTR [ebp-4], eax
  00017	89 4d fc	 mov	 DWORD PTR _this$[ebp], ecx

; 256  : 			iterator _Tmp = *this;

  0001a	8b 45 fc	 mov	 eax, DWORD PTR _this$[ebp]
  0001d	8b 08		 mov	 ecx, DWORD PTR [eax]
  0001f	89 4d f4	 mov	 DWORD PTR __Tmp$[ebp], ecx

; 257  : 			++*this;

  00022	8b 4d fc	 mov	 ecx, DWORD PTR _this$[ebp]
  00025	e8 00 00 00 00	 call	 ??Eiterator@?$list@PAVIMessageObserver@@V?$allocator@PAVIMessageObserver@@@std@@@std@@QAEAAV012@XZ ; std::list<IMessageObserver *,std::allocator<IMessageObserver *> >::iterator::operator++

; 258  : 			return (_Tmp);

  0002a	8b 55 08	 mov	 edx, DWORD PTR ___$ReturnUdt$[ebp]
  0002d	8b 45 f4	 mov	 eax, DWORD PTR __Tmp$[ebp]
  00030	89 02		 mov	 DWORD PTR [edx], eax
  00032	8b 45 08	 mov	 eax, DWORD PTR ___$ReturnUdt$[ebp]

; 259  : 			}

  00035	52		 push	 edx
  00036	8b cd		 mov	 ecx, ebp
  00038	50		 push	 eax
  00039	8d 15 00 00 00
	00		 lea	 edx, DWORD PTR $L192776
  0003f	e8 00 00 00 00	 call	 @_RTC_CheckStackVars@8
  00044	58		 pop	 eax
  00045	5a		 pop	 edx
  00046	83 c4 10	 add	 esp, 16			; 00000010H
  00049	3b ec		 cmp	 ebp, esp
  0004b	e8 00 00 00 00	 call	 __RTC_CheckEsp
  00050	8b e5		 mov	 esp, ebp
  00052	5d		 pop	 ebp
  00053	c2 08 00	 ret	 8
$L192776:
  00056	01 00 00 00	 DD	 1
  0005a	00 00 00 00	 DD	 $L192775
$L192775:
  0005e	f4 ff ff ff	 DD	 -12			; fffffff4H
  00062	04 00 00 00	 DD	 4
  00066	00 00 00 00	 DD	 $L192774
$L192774:
  0006a	5f		 DB	 95			; 0000005fH
  0006b	54		 DB	 84			; 00000054H
  0006c	6d		 DB	 109			; 0000006dH
  0006d	70		 DB	 112			; 00000070H
  0006e	00		 DB	 0
??Eiterator@?$list@PAVIMessageObserver@@V?$allocator@PAVIMessageObserver@@@std@@@std@@QAE?AV012@H@Z ENDP ; std::list<IMessageObserver *,std::allocator<IMessageObserver *> >::iterator::operator++
_TEXT	ENDS
PUBLIC	?lstrcmpiWFake@ATL@@YGHPB_W0@Z			; ATL::lstrcmpiWFake
EXTRN	__imp__lstrcmpiW@8:NEAR
; Function compile flags: /Odt /RTCsu
; File d:\program files (x86)\microsoft visual studio .net 2003\vc7\atlmfc\include\cstringt.h
;	COMDAT ?lstrcmpiWThunk@ATL@@YGHPB_W0@Z
_TEXT	SEGMENT
_psz1$ = 8						; size = 4
_psz2$ = 12						; size = 4
?lstrcmpiWThunk@ATL@@YGHPB_W0@Z PROC NEAR		; ATL::lstrcmpiWThunk, COMDAT

; 254  : {

  00000	55		 push	 ebp
  00001	8b ec		 mov	 ebp, esp
  00003	56		 push	 esi

; 255  : 	_AtlInstallStringThunk(reinterpret_cast<void**>(&_strthunks.pfnlstrcmpiW), lstrcmpiWFake, ::lstrcmpiW);

  00004	a1 00 00 00 00	 mov	 eax, DWORD PTR __imp__lstrcmpiW@8
  00009	50		 push	 eax
  0000a	68 00 00 00 00	 push	 OFFSET FLAT:?lstrcmpiWFake@ATL@@YGHPB_W0@Z ; ATL::lstrcmpiWFake
  0000f	68 08 00 00 00	 push	 OFFSET FLAT:?_strthunks@ATL@@3U_AtlStringThunks@1@A+8
  00014	e8 00 00 00 00	 call	 ?_AtlInstallStringThunk@ATL@@YAXPAPAXPAX1@Z ; ATL::_AtlInstallStringThunk
  00019	83 c4 0c	 add	 esp, 12			; 0000000cH

; 256  : 
; 257  : 	return _strthunks.pfnlstrcmpiW(psz1, psz2);

  0001c	8b f4		 mov	 esi, esp
  0001e	8b 4d 0c	 mov	 ecx, DWORD PTR _psz2$[ebp]
  00021	51		 push	 ecx
  00022	8b 55 08	 mov	 edx, DWORD PTR _psz1$[ebp]
  00025	52		 push	 edx
  00026	ff 15 08 00 00
	00		 call	 DWORD PTR ?_strthunks@ATL@@3U_AtlStringThunks@1@A+8
  0002c	3b f4		 cmp	 esi, esp
  0002e	e8 00 00 00 00	 call	 __RTC_CheckEsp

; 258  : }

  00033	5e		 pop	 esi
  00034	3b ec		 cmp	 ebp, esp
  00036	e8 00 00 00 00	 call	 __RTC_CheckEsp
  0003b	5d		 pop	 ebp
  0003c	c2 08 00	 ret	 8
?lstrcmpiWThunk@ATL@@YGHPB_W0@Z ENDP			; ATL::lstrcmpiWThunk
_TEXT	ENDS
EXTRN	__imp__lstrcmpiA@8:NEAR
; Function compile flags: /Odt /RTCsu
;	COMDAT ?lstrcmpiWFake@ATL@@YGHPB_W0@Z
_TEXT	SEGMENT
tv91 = -32						; size = 4
tv94 = -28						; size = 4
tv76 = -24						; size = 4
tv79 = -20						; size = 4
__lpa$ = -16						; size = 4
__lpw$ = -12						; size = 4
__acp$ = -8						; size = 4
__convert$ = -4						; size = 4
_psz1$ = 8						; size = 4
_psz2$ = 12						; size = 4
?lstrcmpiWFake@ATL@@YGHPB_W0@Z PROC NEAR		; ATL::lstrcmpiWFake, COMDAT

; 247  : {

  00000	55		 push	 ebp
  00001	8b ec		 mov	 ebp, esp
  00003	83 ec 20	 sub	 esp, 32			; 00000020H
  00006	56		 push	 esi
  00007	b8 cc cc cc cc	 mov	 eax, -858993460		; ccccccccH
  0000c	89 45 e0	 mov	 DWORD PTR [ebp-32], eax
  0000f	89 45 e4	 mov	 DWORD PTR [ebp-28], eax
  00012	89 45 e8	 mov	 DWORD PTR [ebp-24], eax
  00015	89 45 ec	 mov	 DWORD PTR [ebp-20], eax
  00018	89 45 f0	 mov	 DWORD PTR [ebp-16], eax
  0001b	89 45 f4	 mov	 DWORD PTR [ebp-12], eax
  0001e	89 45 f8	 mov	 DWORD PTR [ebp-8], eax
  00021	89 45 fc	 mov	 DWORD PTR [ebp-4], eax

; 248  : 	USES_CONVERSION;

  00024	c7 45 fc 00 00
	00 00		 mov	 DWORD PTR __convert$[ebp], 0
  0002b	e8 00 00 00 00	 call	 ?_AtlGetConversionACP@ATL@@YGIXZ ; ATL::_AtlGetConversionACP
  00030	89 45 f8	 mov	 DWORD PTR __acp$[ebp], eax
  00033	c7 45 f4 00 00
	00 00		 mov	 DWORD PTR __lpw$[ebp], 0
  0003a	c7 45 f0 00 00
	00 00		 mov	 DWORD PTR __lpa$[ebp], 0

; 249  : 
; 250  : 	return ::lstrcmpiA(W2A(psz1), W2A(psz2));

  00041	8b 45 0c	 mov	 eax, DWORD PTR _psz2$[ebp]
  00044	89 45 f4	 mov	 DWORD PTR __lpw$[ebp], eax
  00047	83 7d f4 00	 cmp	 DWORD PTR __lpw$[ebp], 0
  0004b	75 09		 jne	 SHORT $L192779
  0004d	c7 45 ec 00 00
	00 00		 mov	 DWORD PTR tv79[ebp], 0
  00054	eb 43		 jmp	 SHORT $L192780
$L192779:
  00056	8b f4		 mov	 esi, esp
  00058	8b 4d f4	 mov	 ecx, DWORD PTR __lpw$[ebp]
  0005b	51		 push	 ecx
  0005c	ff 15 00 00 00
	00		 call	 DWORD PTR __imp__lstrlenW@4
  00062	3b f4		 cmp	 esi, esp
  00064	e8 00 00 00 00	 call	 __RTC_CheckEsp
  00069	8d 54 00 02	 lea	 edx, DWORD PTR [eax+eax+2]
  0006d	89 55 fc	 mov	 DWORD PTR __convert$[ebp], edx
  00070	8b 45 fc	 mov	 eax, DWORD PTR __convert$[ebp]
  00073	83 c0 03	 add	 eax, 3
  00076	83 e0 fc	 and	 eax, -4			; fffffffcH
  00079	e8 00 00 00 00	 call	 __alloca_probe
  0007e	89 65 e8	 mov	 DWORD PTR tv76[ebp], esp
  00081	8b 45 f8	 mov	 eax, DWORD PTR __acp$[ebp]
  00084	50		 push	 eax
  00085	8b 4d fc	 mov	 ecx, DWORD PTR __convert$[ebp]
  00088	51		 push	 ecx
  00089	8b 55 f4	 mov	 edx, DWORD PTR __lpw$[ebp]
  0008c	52		 push	 edx
  0008d	8b 45 e8	 mov	 eax, DWORD PTR tv76[ebp]
  00090	50		 push	 eax
  00091	e8 00 00 00 00	 call	 ?AtlW2AHelper@@YGPADPADPB_WHI@Z ; AtlW2AHelper
  00096	89 45 ec	 mov	 DWORD PTR tv79[ebp], eax
$L192780:
  00099	8b 4d 08	 mov	 ecx, DWORD PTR _psz1$[ebp]
  0009c	89 4d f4	 mov	 DWORD PTR __lpw$[ebp], ecx
  0009f	83 7d f4 00	 cmp	 DWORD PTR __lpw$[ebp], 0
  000a3	75 09		 jne	 SHORT $L192781
  000a5	c7 45 e4 00 00
	00 00		 mov	 DWORD PTR tv94[ebp], 0
  000ac	eb 43		 jmp	 SHORT $L192782
$L192781:
  000ae	8b f4		 mov	 esi, esp
  000b0	8b 55 f4	 mov	 edx, DWORD PTR __lpw$[ebp]
  000b3	52		 push	 edx
  000b4	ff 15 00 00 00
	00		 call	 DWORD PTR __imp__lstrlenW@4
  000ba	3b f4		 cmp	 esi, esp
  000bc	e8 00 00 00 00	 call	 __RTC_CheckEsp
  000c1	8d 44 00 02	 lea	 eax, DWORD PTR [eax+eax+2]
  000c5	89 45 fc	 mov	 DWORD PTR __convert$[ebp], eax
  000c8	8b 45 fc	 mov	 eax, DWORD PTR __convert$[ebp]
  000cb	83 c0 03	 add	 eax, 3
  000ce	83 e0 fc	 and	 eax, -4			; fffffffcH
  000d1	e8 00 00 00 00	 call	 __alloca_probe
  000d6	89 65 e0	 mov	 DWORD PTR tv91[ebp], esp
  000d9	8b 4d f8	 mov	 ecx, DWORD PTR __acp$[ebp]
  000dc	51		 push	 ecx
  000dd	8b 55 fc	 mov	 edx, DWORD PTR __convert$[ebp]
  000e0	52		 push	 edx
  000e1	8b 45 f4	 mov	 eax, DWORD PTR __lpw$[ebp]
  000e4	50		 push	 eax
  000e5	8b 4d e0	 mov	 ecx, DWORD PTR tv91[ebp]
  000e8	51		 push	 ecx
  000e9	e8 00 00 00 00	 call	 ?AtlW2AHelper@@YGPADPADPB_WHI@Z ; AtlW2AHelper
  000ee	89 45 e4	 mov	 DWORD PTR tv94[ebp], eax
$L192782:
  000f1	8b f4		 mov	 esi, esp
  000f3	8b 55 ec	 mov	 edx, DWORD PTR tv79[ebp]
  000f6	52		 push	 edx
  000f7	8b 45 e4	 mov	 eax, DWORD PTR tv94[ebp]
  000fa	50		 push	 eax
  000fb	ff 15 00 00 00
	00		 call	 DWORD PTR __imp__lstrcmpiA@8
  00101	3b f4		 cmp	 esi, esp
  00103	e8 00 00 00 00	 call	 __RTC_CheckEsp

; 251  : }

  00108	8d 65 dc	 lea	 esp, DWORD PTR [ebp-36]
  0010b	5e		 pop	 esi
  0010c	8b e5		 mov	 esp, ebp
  0010e	5d		 pop	 ebp
  0010f	c2 08 00	 ret	 8
?lstrcmpiWFake@ATL@@YGHPB_W0@Z ENDP			; ATL::lstrcmpiWFake
_TEXT	ENDS
PUBLIC	??8const_iterator@?$list@PAVIMessageObserver@@V?$allocator@PAVIMessageObserver@@@std@@@std@@QBE_NABV012@@Z ; std::list<IMessageObserver *,std::allocator<IMessageObserver *> >::const_iterator::operator==
; Function compile flags: /Odt /RTCsu
; File d:\program files (x86)\microsoft visual studio .net 2003\vc7\include\list
;	COMDAT ??9const_iterator@?$list@PAVIMessageObserver@@V?$allocator@PAVIMessageObserver@@@std@@@std@@QBE_NABV012@@Z
_TEXT	SEGMENT
_this$ = -4						; size = 4
__Right$ = 8						; size = 4
??9const_iterator@?$list@PAVIMessageObserver@@V?$allocator@PAVIMessageObserver@@@std@@@std@@QBE_NABV012@@Z PROC NEAR ; std::list<IMessageObserver *,std::allocator<IMessageObserver *> >::const_iterator::operator!=, COMDAT
; _this$ = ecx

; 201  : 			{	// test for iterator inequality

  00000	55		 push	 ebp
  00001	8b ec		 mov	 ebp, esp
  00003	51		 push	 ecx
  00004	c7 45 fc cc cc
	cc cc		 mov	 DWORD PTR [ebp-4], -858993460 ; ccccccccH
  0000b	89 4d fc	 mov	 DWORD PTR _this$[ebp], ecx

; 202  : 			return (!(*this == _Right));

  0000e	8b 45 08	 mov	 eax, DWORD PTR __Right$[ebp]
  00011	50		 push	 eax
  00012	8b 4d fc	 mov	 ecx, DWORD PTR _this$[ebp]
  00015	e8 00 00 00 00	 call	 ??8const_iterator@?$list@PAVIMessageObserver@@V?$allocator@PAVIMessageObserver@@@std@@@std@@QBE_NABV012@@Z ; std::list<IMessageObserver *,std::allocator<IMessageObserver *> >::const_iterator::operator==
  0001a	0f b6 c0	 movzx	 eax, al
  0001d	f7 d8		 neg	 eax
  0001f	1b c0		 sbb	 eax, eax
  00021	40		 inc	 eax

; 203  : 			}

  00022	83 c4 04	 add	 esp, 4
  00025	3b ec		 cmp	 ebp, esp
  00027	e8 00 00 00 00	 call	 __RTC_CheckEsp
  0002c	8b e5		 mov	 esp, ebp
  0002e	5d		 pop	 ebp
  0002f	c2 04 00	 ret	 4
??9const_iterator@?$list@PAVIMessageObserver@@V?$allocator@PAVIMessageObserver@@@std@@@std@@QBE_NABV012@@Z ENDP ; std::list<IMessageObserver *,std::allocator<IMessageObserver *> >::const_iterator::operator!=
_TEXT	ENDS
PUBLIC	?CharLowerWFake@ATL@@YGPA_WPA_W@Z		; ATL::CharLowerWFake
EXTRN	__imp__CharLowerW@4:NEAR
; Function compile flags: /Odt /RTCsu
; File d:\program files (x86)\microsoft visual studio .net 2003\vc7\atlmfc\include\cstringt.h
;	COMDAT ?CharLowerWThunk@ATL@@YGPA_WPA_W@Z
_TEXT	SEGMENT
_psz$ = 8						; size = 4
?CharLowerWThunk@ATL@@YGPA_WPA_W@Z PROC NEAR		; ATL::CharLowerWThunk, COMDAT

; 273  : {

  00000	55		 push	 ebp
  00001	8b ec		 mov	 ebp, esp
  00003	56		 push	 esi

; 274  : 	_AtlInstallStringThunk(reinterpret_cast<void**>(&_strthunks.pfnCharLowerW), CharLowerWFake, ::CharLowerW);

  00004	a1 00 00 00 00	 mov	 eax, DWORD PTR __imp__CharLowerW@4
  00009	50		 push	 eax
  0000a	68 00 00 00 00	 push	 OFFSET FLAT:?CharLowerWFake@ATL@@YGPA_WPA_W@Z ; ATL::CharLowerWFake
  0000f	68 0c 00 00 00	 push	 OFFSET FLAT:?_strthunks@ATL@@3U_AtlStringThunks@1@A+12
  00014	e8 00 00 00 00	 call	 ?_AtlInstallStringThunk@ATL@@YAXPAPAXPAX1@Z ; ATL::_AtlInstallStringThunk
  00019	83 c4 0c	 add	 esp, 12			; 0000000cH

; 275  : 
; 276  : 	return _strthunks.pfnCharLowerW(psz);

  0001c	8b f4		 mov	 esi, esp
  0001e	8b 4d 08	 mov	 ecx, DWORD PTR _psz$[ebp]
  00021	51		 push	 ecx
  00022	ff 15 0c 00 00
	00		 call	 DWORD PTR ?_strthunks@ATL@@3U_AtlStringThunks@1@A+12
  00028	3b f4		 cmp	 esi, esp
  0002a	e8 00 00 00 00	 call	 __RTC_CheckEsp

; 277  : }

  0002f	5e		 pop	 esi
  00030	3b ec		 cmp	 ebp, esp
  00032	e8 00 00 00 00	 call	 __RTC_CheckEsp
  00037	5d		 pop	 ebp
  00038	c2 04 00	 ret	 4
?CharLowerWThunk@ATL@@YGPA_WPA_W@Z ENDP			; ATL::CharLowerWThunk
_TEXT	ENDS
PUBLIC	?AtlA2WHelper@@YGPA_WPA_WPBDHI@Z		; AtlA2WHelper
EXTRN	__imp__lstrlenA@4:NEAR
EXTRN	__imp__CharLowerA@4:NEAR
EXTRN	__imp__wcscpy:NEAR
; Function compile flags: /Odt /RTCsu
;	COMDAT ?CharLowerWFake@ATL@@YGPA_WPA_W@Z
_TEXT	SEGMENT
tv90 = -36						; size = 4
tv94 = -32						; size = 4
tv75 = -28						; size = 4
tv78 = -24						; size = 4
_pszA$ = -20						; size = 4
__lpa$ = -16						; size = 4
__lpw$ = -12						; size = 4
__acp$ = -8						; size = 4
__convert$ = -4						; size = 4
_psz$ = 8						; size = 4
?CharLowerWFake@ATL@@YGPA_WPA_W@Z PROC NEAR		; ATL::CharLowerWFake, COMDAT

; 261  : {

  00000	55		 push	 ebp
  00001	8b ec		 mov	 ebp, esp
  00003	83 ec 24	 sub	 esp, 36			; 00000024H
  00006	56		 push	 esi
  00007	b8 cc cc cc cc	 mov	 eax, -858993460		; ccccccccH
  0000c	89 45 dc	 mov	 DWORD PTR [ebp-36], eax
  0000f	89 45 e0	 mov	 DWORD PTR [ebp-32], eax
  00012	89 45 e4	 mov	 DWORD PTR [ebp-28], eax
  00015	89 45 e8	 mov	 DWORD PTR [ebp-24], eax
  00018	89 45 ec	 mov	 DWORD PTR [ebp-20], eax
  0001b	89 45 f0	 mov	 DWORD PTR [ebp-16], eax
  0001e	89 45 f4	 mov	 DWORD PTR [ebp-12], eax
  00021	89 45 f8	 mov	 DWORD PTR [ebp-8], eax
  00024	89 45 fc	 mov	 DWORD PTR [ebp-4], eax

; 262  : 	USES_CONVERSION;

  00027	c7 45 fc 00 00
	00 00		 mov	 DWORD PTR __convert$[ebp], 0
  0002e	e8 00 00 00 00	 call	 ?_AtlGetConversionACP@ATL@@YGIXZ ; ATL::_AtlGetConversionACP
  00033	89 45 f8	 mov	 DWORD PTR __acp$[ebp], eax
  00036	c7 45 f4 00 00
	00 00		 mov	 DWORD PTR __lpw$[ebp], 0
  0003d	c7 45 f0 00 00
	00 00		 mov	 DWORD PTR __lpa$[ebp], 0

; 263  : 	LPSTR pszA;
; 264  : 
; 265  : 	pszA = W2A(psz);

  00044	8b 45 08	 mov	 eax, DWORD PTR _psz$[ebp]
  00047	89 45 f4	 mov	 DWORD PTR __lpw$[ebp], eax
  0004a	83 7d f4 00	 cmp	 DWORD PTR __lpw$[ebp], 0
  0004e	75 09		 jne	 SHORT $L192786
  00050	c7 45 e8 00 00
	00 00		 mov	 DWORD PTR tv78[ebp], 0
  00057	eb 43		 jmp	 SHORT $L192787
$L192786:
  00059	8b f4		 mov	 esi, esp
  0005b	8b 4d f4	 mov	 ecx, DWORD PTR __lpw$[ebp]
  0005e	51		 push	 ecx
  0005f	ff 15 00 00 00
	00		 call	 DWORD PTR __imp__lstrlenW@4
  00065	3b f4		 cmp	 esi, esp
  00067	e8 00 00 00 00	 call	 __RTC_CheckEsp
  0006c	8d 54 00 02	 lea	 edx, DWORD PTR [eax+eax+2]
  00070	89 55 fc	 mov	 DWORD PTR __convert$[ebp], edx
  00073	8b 45 fc	 mov	 eax, DWORD PTR __convert$[ebp]
  00076	83 c0 03	 add	 eax, 3
  00079	83 e0 fc	 and	 eax, -4			; fffffffcH
  0007c	e8 00 00 00 00	 call	 __alloca_probe
  00081	89 65 e4	 mov	 DWORD PTR tv75[ebp], esp
  00084	8b 45 f8	 mov	 eax, DWORD PTR __acp$[ebp]
  00087	50		 push	 eax
  00088	8b 4d fc	 mov	 ecx, DWORD PTR __convert$[ebp]
  0008b	51		 push	 ecx
  0008c	8b 55 f4	 mov	 edx, DWORD PTR __lpw$[ebp]
  0008f	52		 push	 edx
  00090	8b 45 e4	 mov	 eax, DWORD PTR tv75[ebp]
  00093	50		 push	 eax
  00094	e8 00 00 00 00	 call	 ?AtlW2AHelper@@YGPADPADPB_WHI@Z ; AtlW2AHelper
  00099	89 45 e8	 mov	 DWORD PTR tv78[ebp], eax
$L192787:
  0009c	8b 4d e8	 mov	 ecx, DWORD PTR tv78[ebp]
  0009f	89 4d ec	 mov	 DWORD PTR _pszA$[ebp], ecx

; 266  : 	::CharLowerA(pszA);

  000a2	8b f4		 mov	 esi, esp
  000a4	8b 55 ec	 mov	 edx, DWORD PTR _pszA$[ebp]
  000a7	52		 push	 edx
  000a8	ff 15 00 00 00
	00		 call	 DWORD PTR __imp__CharLowerA@4
  000ae	3b f4		 cmp	 esi, esp
  000b0	e8 00 00 00 00	 call	 __RTC_CheckEsp

; 267  : 	wcscpy(psz, A2W(pszA));

  000b5	8b 45 ec	 mov	 eax, DWORD PTR _pszA$[ebp]
  000b8	89 45 f0	 mov	 DWORD PTR __lpa$[ebp], eax
  000bb	83 7d f0 00	 cmp	 DWORD PTR __lpa$[ebp], 0
  000bf	75 09		 jne	 SHORT $L192788
  000c1	c7 45 e0 00 00
	00 00		 mov	 DWORD PTR tv94[ebp], 0
  000c8	eb 44		 jmp	 SHORT $L192789
$L192788:
  000ca	8b f4		 mov	 esi, esp
  000cc	8b 4d f0	 mov	 ecx, DWORD PTR __lpa$[ebp]
  000cf	51		 push	 ecx
  000d0	ff 15 00 00 00
	00		 call	 DWORD PTR __imp__lstrlenA@4
  000d6	3b f4		 cmp	 esi, esp
  000d8	e8 00 00 00 00	 call	 __RTC_CheckEsp
  000dd	83 c0 01	 add	 eax, 1
  000e0	89 45 fc	 mov	 DWORD PTR __convert$[ebp], eax
  000e3	8b 45 fc	 mov	 eax, DWORD PTR __convert$[ebp]
  000e6	d1 e0		 shl	 eax, 1
  000e8	83 c0 03	 add	 eax, 3
  000eb	83 e0 fc	 and	 eax, -4			; fffffffcH
  000ee	e8 00 00 00 00	 call	 __alloca_probe
  000f3	89 65 dc	 mov	 DWORD PTR tv90[ebp], esp
  000f6	8b 55 f8	 mov	 edx, DWORD PTR __acp$[ebp]
  000f9	52		 push	 edx
  000fa	8b 45 fc	 mov	 eax, DWORD PTR __convert$[ebp]
  000fd	50		 push	 eax
  000fe	8b 4d f0	 mov	 ecx, DWORD PTR __lpa$[ebp]
  00101	51		 push	 ecx
  00102	8b 55 dc	 mov	 edx, DWORD PTR tv90[ebp]
  00105	52		 push	 edx
  00106	e8 00 00 00 00	 call	 ?AtlA2WHelper@@YGPA_WPA_WPBDHI@Z ; AtlA2WHelper
  0010b	89 45 e0	 mov	 DWORD PTR tv94[ebp], eax
$L192789:
  0010e	8b f4		 mov	 esi, esp
  00110	8b 45 e0	 mov	 eax, DWORD PTR tv94[ebp]
  00113	50		 push	 eax
  00114	8b 4d 08	 mov	 ecx, DWORD PTR _psz$[ebp]
  00117	51		 push	 ecx
  00118	ff 15 00 00 00
	00		 call	 DWORD PTR __imp__wcscpy
  0011e	83 c4 08	 add	 esp, 8
  00121	3b f4		 cmp	 esi, esp
  00123	e8 00 00 00 00	 call	 __RTC_CheckEsp

; 268  : 
; 269  : 	return psz;

  00128	8b 45 08	 mov	 eax, DWORD PTR _psz$[ebp]

; 270  : }

  0012b	8d 65 d8	 lea	 esp, DWORD PTR [ebp-40]
  0012e	5e		 pop	 esi
  0012f	8b e5		 mov	 esp, ebp
  00131	5d		 pop	 ebp
  00132	c2 04 00	 ret	 4
?CharLowerWFake@ATL@@YGPA_WPA_W@Z ENDP			; ATL::CharLowerWFake
; Function compile flags: /Odt /RTCsu
; File d:\program files (x86)\microsoft visual studio .net 2003\vc7\atlmfc\include\atlconv.h
_TEXT	ENDS
;	COMDAT ?AtlA2WHelper@@YGPA_WPA_WPBDHI@Z
_TEXT	SEGMENT
_ret$ = -4						; size = 4
_lpw$ = 8						; size = 4
_lpa$ = 12						; size = 4
_nChars$ = 16						; size = 4
_acp$ = 20						; size = 4
?AtlA2WHelper@@YGPA_WPA_WPBDHI@Z PROC NEAR		; AtlA2WHelper, COMDAT

; 554  : {

  00000	55		 push	 ebp
  00001	8b ec		 mov	 ebp, esp
  00003	51		 push	 ecx
  00004	56		 push	 esi
  00005	c7 45 fc cc cc
	cc cc		 mov	 DWORD PTR [ebp-4], -858993460 ; ccccccccH

; 555  : 	ATLASSERT(lpa != NULL);

  0000c	83 7d 0c 00	 cmp	 DWORD PTR _lpa$[ebp], 0
  00010	75 2b		 jne	 SHORT $L192791
  00012	8b f4		 mov	 esi, esp
  00014	68 00 00 00 00	 push	 OFFSET FLAT:??_C@_08DMHHBMMN@lpa?5?$CB?$DN?50?$AA@
  00019	6a 00		 push	 0
  0001b	68 2b 02 00 00	 push	 555			; 0000022bH
  00020	68 00 00 00 00	 push	 OFFSET FLAT:??_C@_0FG@PFHCBDBK@D?3?2Program?5Files?5?$CIx86?$CJ?2Microsoft@
  00025	6a 02		 push	 2
  00027	ff 15 00 00 00
	00		 call	 DWORD PTR __imp___CrtDbgReport
  0002d	83 c4 14	 add	 esp, 20			; 00000014H
  00030	3b f4		 cmp	 esi, esp
  00032	e8 00 00 00 00	 call	 __RTC_CheckEsp
  00037	83 f8 01	 cmp	 eax, 1
  0003a	75 01		 jne	 SHORT $L192791
  0003c	cc		 int	 3
$L192791:

; 556  : 	ATLASSERT(lpw != NULL);

  0003d	83 7d 08 00	 cmp	 DWORD PTR _lpw$[ebp], 0
  00041	75 2b		 jne	 SHORT $L192792
  00043	8b f4		 mov	 esi, esp
  00045	68 00 00 00 00	 push	 OFFSET FLAT:??_C@_08DIHJLFDJ@lpw?5?$CB?$DN?50?$AA@
  0004a	6a 00		 push	 0
  0004c	68 2c 02 00 00	 push	 556			; 0000022cH
  00051	68 00 00 00 00	 push	 OFFSET FLAT:??_C@_0FG@PFHCBDBK@D?3?2Program?5Files?5?$CIx86?$CJ?2Microsoft@
  00056	6a 02		 push	 2
  00058	ff 15 00 00 00
	00		 call	 DWORD PTR __imp___CrtDbgReport
  0005e	83 c4 14	 add	 esp, 20			; 00000014H
  00061	3b f4		 cmp	 esi, esp
  00063	e8 00 00 00 00	 call	 __RTC_CheckEsp
  00068	83 f8 01	 cmp	 eax, 1
  0006b	75 01		 jne	 SHORT $L192792
  0006d	cc		 int	 3
$L192792:

; 557  : 	if (lpw == NULL || lpa == NULL)

  0006e	83 7d 08 00	 cmp	 DWORD PTR _lpw$[ebp], 0
  00072	74 06		 je	 SHORT $L24299
  00074	83 7d 0c 00	 cmp	 DWORD PTR _lpa$[ebp], 0
  00078	75 04		 jne	 SHORT $L24298
$L24299:

; 558  : 		return NULL;

  0007a	33 c0		 xor	 eax, eax
  0007c	eb 6a		 jmp	 SHORT $L24292
$L24298:

; 559  : 	// verify that no illegal character present
; 560  : 	// since lpw was allocated based on the size of lpa
; 561  : 	// don't worry about the number of chars
; 562  : 	lpw[0] = '\0';

  0007e	8b 55 08	 mov	 edx, DWORD PTR _lpw$[ebp]
  00081	66 c7 02 00 00	 mov	 WORD PTR [edx], 0

; 563  : 	int ret = MultiByteToWideChar(acp, 0, lpa, -1, lpw, nChars);

  00086	8b f4		 mov	 esi, esp
  00088	8b 45 10	 mov	 eax, DWORD PTR _nChars$[ebp]
  0008b	50		 push	 eax
  0008c	8b 4d 08	 mov	 ecx, DWORD PTR _lpw$[ebp]
  0008f	51		 push	 ecx
  00090	6a ff		 push	 -1
  00092	8b 55 0c	 mov	 edx, DWORD PTR _lpa$[ebp]
  00095	52		 push	 edx
  00096	6a 00		 push	 0
  00098	8b 45 14	 mov	 eax, DWORD PTR _acp$[ebp]
  0009b	50		 push	 eax
  0009c	ff 15 00 00 00
	00		 call	 DWORD PTR __imp__MultiByteToWideChar@24
  000a2	3b f4		 cmp	 esi, esp
  000a4	e8 00 00 00 00	 call	 __RTC_CheckEsp
  000a9	89 45 fc	 mov	 DWORD PTR _ret$[ebp], eax

; 564  : 	if(ret == 0)

  000ac	83 7d fc 00	 cmp	 DWORD PTR _ret$[ebp], 0
  000b0	75 33		 jne	 SHORT $L24301

; 565  : 	{
; 566  : 		ATLASSERT(FALSE);

  000b2	33 c9		 xor	 ecx, ecx
  000b4	75 2b		 jne	 SHORT $L192793
  000b6	8b f4		 mov	 esi, esp
  000b8	68 00 00 00 00	 push	 OFFSET FLAT:??_C@_01GBGANLPD@0?$AA@
  000bd	6a 00		 push	 0
  000bf	68 36 02 00 00	 push	 566			; 00000236H
  000c4	68 00 00 00 00	 push	 OFFSET FLAT:??_C@_0FG@PFHCBDBK@D?3?2Program?5Files?5?$CIx86?$CJ?2Microsoft@
  000c9	6a 02		 push	 2
  000cb	ff 15 00 00 00
	00		 call	 DWORD PTR __imp___CrtDbgReport
  000d1	83 c4 14	 add	 esp, 20			; 00000014H
  000d4	3b f4		 cmp	 esi, esp
  000d6	e8 00 00 00 00	 call	 __RTC_CheckEsp
  000db	83 f8 01	 cmp	 eax, 1
  000de	75 01		 jne	 SHORT $L192793
  000e0	cc		 int	 3
$L192793:

; 567  : 		return NULL;

  000e1	33 c0		 xor	 eax, eax
  000e3	eb 03		 jmp	 SHORT $L24292
$L24301:

; 568  : 	}		
; 569  : 	return lpw;

  000e5	8b 45 08	 mov	 eax, DWORD PTR _lpw$[ebp]
$L24292:

; 570  : }

  000e8	5e		 pop	 esi
  000e9	83 c4 04	 add	 esp, 4
  000ec	3b ec		 cmp	 ebp, esp
  000ee	e8 00 00 00 00	 call	 __RTC_CheckEsp
  000f3	8b e5		 mov	 esp, ebp
  000f5	5d		 pop	 ebp
  000f6	c2 10 00	 ret	 16			; 00000010H
?AtlA2WHelper@@YGPA_WPA_WPBDHI@Z ENDP			; AtlA2WHelper
_TEXT	ENDS
PUBLIC	?CharUpperWFake@ATL@@YGPA_WPA_W@Z		; ATL::CharUpperWFake
EXTRN	__imp__CharUpperW@4:NEAR
; Function compile flags: /Odt /RTCsu
; File d:\program files (x86)\microsoft visual studio .net 2003\vc7\atlmfc\include\cstringt.h
;	COMDAT ?CharUpperWThunk@ATL@@YGPA_WPA_W@Z
_TEXT	SEGMENT
_psz$ = 8						; size = 4
?CharUpperWThunk@ATL@@YGPA_WPA_W@Z PROC NEAR		; ATL::CharUpperWThunk, COMDAT

; 292  : {

  00000	55		 push	 ebp
  00001	8b ec		 mov	 ebp, esp
  00003	56		 push	 esi

; 293  : 	_AtlInstallStringThunk(reinterpret_cast<void**>(&_strthunks.pfnCharUpperW), CharUpperWFake, ::CharUpperW);

  00004	a1 00 00 00 00	 mov	 eax, DWORD PTR __imp__CharUpperW@4
  00009	50		 push	 eax
  0000a	68 00 00 00 00	 push	 OFFSET FLAT:?CharUpperWFake@ATL@@YGPA_WPA_W@Z ; ATL::CharUpperWFake
  0000f	68 10 00 00 00	 push	 OFFSET FLAT:?_strthunks@ATL@@3U_AtlStringThunks@1@A+16
  00014	e8 00 00 00 00	 call	 ?_AtlInstallStringThunk@ATL@@YAXPAPAXPAX1@Z ; ATL::_AtlInstallStringThunk
  00019	83 c4 0c	 add	 esp, 12			; 0000000cH

; 294  : 
; 295  : 	return _strthunks.pfnCharUpperW(psz);

  0001c	8b f4		 mov	 esi, esp
  0001e	8b 4d 08	 mov	 ecx, DWORD PTR _psz$[ebp]
  00021	51		 push	 ecx
  00022	ff 15 10 00 00
	00		 call	 DWORD PTR ?_strthunks@ATL@@3U_AtlStringThunks@1@A+16
  00028	3b f4		 cmp	 esi, esp
  0002a	e8 00 00 00 00	 call	 __RTC_CheckEsp

; 296  : }

  0002f	5e		 pop	 esi
  00030	3b ec		 cmp	 ebp, esp
  00032	e8 00 00 00 00	 call	 __RTC_CheckEsp
  00037	5d		 pop	 ebp
  00038	c2 04 00	 ret	 4
?CharUpperWThunk@ATL@@YGPA_WPA_W@Z ENDP			; ATL::CharUpperWThunk
_TEXT	ENDS
EXTRN	__imp__CharUpperA@4:NEAR
; Function compile flags: /Odt /RTCsu
;	COMDAT ?CharUpperWFake@ATL@@YGPA_WPA_W@Z
_TEXT	SEGMENT
tv90 = -36						; size = 4
tv94 = -32						; size = 4
tv75 = -28						; size = 4
tv78 = -24						; size = 4
_pszA$ = -20						; size = 4
__lpa$ = -16						; size = 4
__lpw$ = -12						; size = 4
__acp$ = -8						; size = 4
__convert$ = -4						; size = 4
_psz$ = 8						; size = 4
?CharUpperWFake@ATL@@YGPA_WPA_W@Z PROC NEAR		; ATL::CharUpperWFake, COMDAT

; 280  : {

  00000	55		 push	 ebp
  00001	8b ec		 mov	 ebp, esp
  00003	83 ec 24	 sub	 esp, 36			; 00000024H
  00006	56		 push	 esi
  00007	b8 cc cc cc cc	 mov	 eax, -858993460		; ccccccccH
  0000c	89 45 dc	 mov	 DWORD PTR [ebp-36], eax
  0000f	89 45 e0	 mov	 DWORD PTR [ebp-32], eax
  00012	89 45 e4	 mov	 DWORD PTR [ebp-28], eax
  00015	89 45 e8	 mov	 DWORD PTR [ebp-24], eax
  00018	89 45 ec	 mov	 DWORD PTR [ebp-20], eax
  0001b	89 45 f0	 mov	 DWORD PTR [ebp-16], eax
  0001e	89 45 f4	 mov	 DWORD PTR [ebp-12], eax
  00021	89 45 f8	 mov	 DWORD PTR [ebp-8], eax
  00024	89 45 fc	 mov	 DWORD PTR [ebp-4], eax

; 281  : 	USES_CONVERSION;

  00027	c7 45 fc 00 00
	00 00		 mov	 DWORD PTR __convert$[ebp], 0
  0002e	e8 00 00 00 00	 call	 ?_AtlGetConversionACP@ATL@@YGIXZ ; ATL::_AtlGetConversionACP
  00033	89 45 f8	 mov	 DWORD PTR __acp$[ebp], eax
  00036	c7 45 f4 00 00
	00 00		 mov	 DWORD PTR __lpw$[ebp], 0
  0003d	c7 45 f0 00 00
	00 00		 mov	 DWORD PTR __lpa$[ebp], 0

; 282  : 	LPSTR pszA;
; 283  : 
; 284  : 	pszA = W2A(psz);

  00044	8b 45 08	 mov	 eax, DWORD PTR _psz$[ebp]
  00047	89 45 f4	 mov	 DWORD PTR __lpw$[ebp], eax
  0004a	83 7d f4 00	 cmp	 DWORD PTR __lpw$[ebp], 0
  0004e	75 09		 jne	 SHORT $L192796
  00050	c7 45 e8 00 00
	00 00		 mov	 DWORD PTR tv78[ebp], 0
  00057	eb 43		 jmp	 SHORT $L192797
$L192796:
  00059	8b f4		 mov	 esi, esp
  0005b	8b 4d f4	 mov	 ecx, DWORD PTR __lpw$[ebp]
  0005e	51		 push	 ecx
  0005f	ff 15 00 00 00
	00		 call	 DWORD PTR __imp__lstrlenW@4
  00065	3b f4		 cmp	 esi, esp
  00067	e8 00 00 00 00	 call	 __RTC_CheckEsp
  0006c	8d 54 00 02	 lea	 edx, DWORD PTR [eax+eax+2]
  00070	89 55 fc	 mov	 DWORD PTR __convert$[ebp], edx
  00073	8b 45 fc	 mov	 eax, DWORD PTR __convert$[ebp]
  00076	83 c0 03	 add	 eax, 3
  00079	83 e0 fc	 and	 eax, -4			; fffffffcH
  0007c	e8 00 00 00 00	 call	 __alloca_probe
  00081	89 65 e4	 mov	 DWORD PTR tv75[ebp], esp
  00084	8b 45 f8	 mov	 eax, DWORD PTR __acp$[ebp]
  00087	50		 push	 eax
  00088	8b 4d fc	 mov	 ecx, DWORD PTR __convert$[ebp]
  0008b	51		 push	 ecx
  0008c	8b 55 f4	 mov	 edx, DWORD PTR __lpw$[ebp]
  0008f	52		 push	 edx
  00090	8b 45 e4	 mov	 eax, DWORD PTR tv75[ebp]
  00093	50		 push	 eax
  00094	e8 00 00 00 00	 call	 ?AtlW2AHelper@@YGPADPADPB_WHI@Z ; AtlW2AHelper
  00099	89 45 e8	 mov	 DWORD PTR tv78[ebp], eax
$L192797:
  0009c	8b 4d e8	 mov	 ecx, DWORD PTR tv78[ebp]
  0009f	89 4d ec	 mov	 DWORD PTR _pszA$[ebp], ecx

; 285  : 	::CharUpperA(pszA);

  000a2	8b f4		 mov	 esi, esp
  000a4	8b 55 ec	 mov	 edx, DWORD PTR _pszA$[ebp]
  000a7	52		 push	 edx
  000a8	ff 15 00 00 00
	00		 call	 DWORD PTR __imp__CharUpperA@4
  000ae	3b f4		 cmp	 esi, esp
  000b0	e8 00 00 00 00	 call	 __RTC_CheckEsp

; 286  : 	wcscpy(psz, A2W(pszA));

  000b5	8b 45 ec	 mov	 eax, DWORD PTR _pszA$[ebp]
  000b8	89 45 f0	 mov	 DWORD PTR __lpa$[ebp], eax
  000bb	83 7d f0 00	 cmp	 DWORD PTR __lpa$[ebp], 0
  000bf	75 09		 jne	 SHORT $L192798
  000c1	c7 45 e0 00 00
	00 00		 mov	 DWORD PTR tv94[ebp], 0
  000c8	eb 44		 jmp	 SHORT $L192799
$L192798:
  000ca	8b f4		 mov	 esi, esp
  000cc	8b 4d f0	 mov	 ecx, DWORD PTR __lpa$[ebp]
  000cf	51		 push	 ecx
  000d0	ff 15 00 00 00
	00		 call	 DWORD PTR __imp__lstrlenA@4
  000d6	3b f4		 cmp	 esi, esp
  000d8	e8 00 00 00 00	 call	 __RTC_CheckEsp
  000dd	83 c0 01	 add	 eax, 1
  000e0	89 45 fc	 mov	 DWORD PTR __convert$[ebp], eax
  000e3	8b 45 fc	 mov	 eax, DWORD PTR __convert$[ebp]
  000e6	d1 e0		 shl	 eax, 1
  000e8	83 c0 03	 add	 eax, 3
  000eb	83 e0 fc	 and	 eax, -4			; fffffffcH
  000ee	e8 00 00 00 00	 call	 __alloca_probe
  000f3	89 65 dc	 mov	 DWORD PTR tv90[ebp], esp
  000f6	8b 55 f8	 mov	 edx, DWORD PTR __acp$[ebp]
  000f9	52		 push	 edx
  000fa	8b 45 fc	 mov	 eax, DWORD PTR __convert$[ebp]
  000fd	50		 push	 eax
  000fe	8b 4d f0	 mov	 ecx, DWORD PTR __lpa$[ebp]
  00101	51		 push	 ecx
  00102	8b 55 dc	 mov	 edx, DWORD PTR tv90[ebp]
  00105	52		 push	 edx
  00106	e8 00 00 00 00	 call	 ?AtlA2WHelper@@YGPA_WPA_WPBDHI@Z ; AtlA2WHelper
  0010b	89 45 e0	 mov	 DWORD PTR tv94[ebp], eax
$L192799:
  0010e	8b f4		 mov	 esi, esp
  00110	8b 45 e0	 mov	 eax, DWORD PTR tv94[ebp]
  00113	50		 push	 eax
  00114	8b 4d 08	 mov	 ecx, DWORD PTR _psz$[ebp]
  00117	51		 push	 ecx
  00118	ff 15 00 00 00
	00		 call	 DWORD PTR __imp__wcscpy
  0011e	83 c4 08	 add	 esp, 8
  00121	3b f4		 cmp	 esi, esp
  00123	e8 00 00 00 00	 call	 __RTC_CheckEsp

; 287  : 
; 288  : 	return psz;

  00128	8b 45 08	 mov	 eax, DWORD PTR _psz$[ebp]

; 289  : }

  0012b	8d 65 d8	 lea	 esp, DWORD PTR [ebp-40]
  0012e	5e		 pop	 esi
  0012f	8b e5		 mov	 esp, ebp
  00131	5d		 pop	 ebp
  00132	c2 04 00	 ret	 4
?CharUpperWFake@ATL@@YGPA_WPA_W@Z ENDP			; ATL::CharUpperWFake
; Function compile flags: /Odt /RTCsu
; File d:\program files (x86)\microsoft visual studio .net 2003\vc7\include\vector
_TEXT	ENDS
;	COMDAT ?capacity@?$vector@UOneLocalGame@@V?$allocator@UOneLocalGame@@@std@@@std@@QBEIXZ
_TEXT	SEGMENT
tv70 = -8						; size = 4
_this$ = -4						; size = 4
?capacity@?$vector@UOneLocalGame@@V?$allocator@UOneLocalGame@@@std@@@std@@QBEIXZ PROC NEAR ; std::vector<OneLocalGame,std::allocator<OneLocalGame> >::capacity, COMDAT
; _this$ = ecx

; 457  : 		{	// return current length of allocated storage

  00000	55		 push	 ebp
  00001	8b ec		 mov	 ebp, esp
  00003	83 ec 08	 sub	 esp, 8
  00006	c7 45 f8 cc cc
	cc cc		 mov	 DWORD PTR [ebp-8], -858993460 ; ccccccccH
  0000d	c7 45 fc cc cc
	cc cc		 mov	 DWORD PTR [ebp-4], -858993460 ; ccccccccH
  00014	89 4d fc	 mov	 DWORD PTR _this$[ebp], ecx

; 458  : 		return (_Myfirst == 0 ? 0 : _Myend - _Myfirst);

  00017	8b 45 fc	 mov	 eax, DWORD PTR _this$[ebp]
  0001a	83 78 04 00	 cmp	 DWORD PTR [eax+4], 0
  0001e	75 09		 jne	 SHORT $L192801
  00020	c7 45 f8 00 00
	00 00		 mov	 DWORD PTR tv70[ebp], 0
  00027	eb 17		 jmp	 SHORT $L192802
$L192801:
  00029	8b 4d fc	 mov	 ecx, DWORD PTR _this$[ebp]
  0002c	8b 55 fc	 mov	 edx, DWORD PTR _this$[ebp]
  0002f	8b 41 0c	 mov	 eax, DWORD PTR [ecx+12]
  00032	2b 42 04	 sub	 eax, DWORD PTR [edx+4]
  00035	99		 cdq
  00036	b9 90 00 00 00	 mov	 ecx, 144		; 00000090H
  0003b	f7 f9		 idiv	 ecx
  0003d	89 45 f8	 mov	 DWORD PTR tv70[ebp], eax
$L192802:
  00040	8b 45 f8	 mov	 eax, DWORD PTR tv70[ebp]

; 459  : 		}

  00043	8b e5		 mov	 esp, ebp
  00045	5d		 pop	 ebp
  00046	c3		 ret	 0
?capacity@?$vector@UOneLocalGame@@V?$allocator@UOneLocalGame@@@std@@@std@@QBEIXZ ENDP ; std::vector<OneLocalGame,std::allocator<OneLocalGame> >::capacity
_TEXT	ENDS
PUBLIC	??Hiterator@?$vector@UOneLocalGame@@V?$allocator@UOneLocalGame@@@std@@@std@@QBE?AV012@H@Z ; std::vector<OneLocalGame,std::allocator<OneLocalGame> >::iterator::operator+
PUBLIC	??Giterator@?$vector@UOneLocalGame@@V?$allocator@UOneLocalGame@@@std@@@std@@QBEHABVconst_iterator@12@@Z ; std::vector<OneLocalGame,std::allocator<OneLocalGame> >::iterator::operator-
PUBLIC	?_Insert_n@?$vector@UOneLocalGame@@V?$allocator@UOneLocalGame@@@std@@@std@@IAEXViterator@12@IABUOneLocalGame@@@Z ; std::vector<OneLocalGame,std::allocator<OneLocalGame> >::_Insert_n
; Function compile flags: /Odt /RTCsu
;	COMDAT ?insert@?$vector@UOneLocalGame@@V?$allocator@UOneLocalGame@@@std@@@std@@QAE?AViterator@12@V312@ABUOneLocalGame@@@Z
_TEXT	SEGMENT
tv73 = -20						; size = 4
$T192807 = -16						; size = 4
$T192804 = -12						; size = 4
__Off$ = -8						; size = 4
_this$ = -4						; size = 4
___$ReturnUdt$ = 8					; size = 4
__Where$ = 12						; size = 4
__Val$ = 16						; size = 4
?insert@?$vector@UOneLocalGame@@V?$allocator@UOneLocalGame@@@std@@@std@@QAE?AViterator@12@V312@ABUOneLocalGame@@@Z PROC NEAR ; std::vector<OneLocalGame,std::allocator<OneLocalGame> >::insert, COMDAT
; _this$ = ecx

; 620  : 		{	// insert _Val at _Where

  00000	55		 push	 ebp
  00001	8b ec		 mov	 ebp, esp
  00003	83 ec 14	 sub	 esp, 20			; 00000014H
  00006	b8 cc cc cc cc	 mov	 eax, -858993460		; ccccccccH
  0000b	89 45 ec	 mov	 DWORD PTR [ebp-20], eax
  0000e	89 45 f0	 mov	 DWORD PTR [ebp-16], eax
  00011	89 45 f4	 mov	 DWORD PTR [ebp-12], eax
  00014	89 45 f8	 mov	 DWORD PTR [ebp-8], eax
  00017	89 45 fc	 mov	 DWORD PTR [ebp-4], eax
  0001a	89 4d fc	 mov	 DWORD PTR _this$[ebp], ecx

; 621  : 		size_type _Off = size() == 0 ? 0 : _Where - begin();

  0001d	8b 4d fc	 mov	 ecx, DWORD PTR _this$[ebp]
  00020	e8 00 00 00 00	 call	 ?size@?$vector@UOneLocalGame@@V?$allocator@UOneLocalGame@@@std@@@std@@QBEIXZ ; std::vector<OneLocalGame,std::allocator<OneLocalGame> >::size
  00025	85 c0		 test	 eax, eax
  00027	75 09		 jne	 SHORT $L192805
  00029	c7 45 ec 00 00
	00 00		 mov	 DWORD PTR tv73[ebp], 0
  00030	eb 18		 jmp	 SHORT $L192806
$L192805:
  00032	8d 45 f4	 lea	 eax, DWORD PTR $T192804[ebp]
  00035	50		 push	 eax
  00036	8b 4d fc	 mov	 ecx, DWORD PTR _this$[ebp]
  00039	e8 00 00 00 00	 call	 ?begin@?$vector@UOneLocalGame@@V?$allocator@UOneLocalGame@@@std@@@std@@QAE?AViterator@12@XZ ; std::vector<OneLocalGame,std::allocator<OneLocalGame> >::begin
  0003e	50		 push	 eax
  0003f	8d 4d 0c	 lea	 ecx, DWORD PTR __Where$[ebp]
  00042	e8 00 00 00 00	 call	 ??Giterator@?$vector@UOneLocalGame@@V?$allocator@UOneLocalGame@@@std@@@std@@QBEHABVconst_iterator@12@@Z ; std::vector<OneLocalGame,std::allocator<OneLocalGame> >::iterator::operator-
  00047	89 45 ec	 mov	 DWORD PTR tv73[ebp], eax
$L192806:
  0004a	8b 4d ec	 mov	 ecx, DWORD PTR tv73[ebp]
  0004d	89 4d f8	 mov	 DWORD PTR __Off$[ebp], ecx

; 622  : 		_Insert_n(_Where, (size_type)1, _Val);

  00050	8b 55 10	 mov	 edx, DWORD PTR __Val$[ebp]
  00053	52		 push	 edx
  00054	6a 01		 push	 1
  00056	8b 45 0c	 mov	 eax, DWORD PTR __Where$[ebp]
  00059	50		 push	 eax
  0005a	8b 4d fc	 mov	 ecx, DWORD PTR _this$[ebp]
  0005d	e8 00 00 00 00	 call	 ?_Insert_n@?$vector@UOneLocalGame@@V?$allocator@UOneLocalGame@@@std@@@std@@IAEXViterator@12@IABUOneLocalGame@@@Z ; std::vector<OneLocalGame,std::allocator<OneLocalGame> >::_Insert_n

; 623  : 		return (begin() + _Off);

  00062	8b 4d f8	 mov	 ecx, DWORD PTR __Off$[ebp]
  00065	51		 push	 ecx
  00066	8b 55 08	 mov	 edx, DWORD PTR ___$ReturnUdt$[ebp]
  00069	52		 push	 edx
  0006a	8d 45 f0	 lea	 eax, DWORD PTR $T192807[ebp]
  0006d	50		 push	 eax
  0006e	8b 4d fc	 mov	 ecx, DWORD PTR _this$[ebp]
  00071	e8 00 00 00 00	 call	 ?begin@?$vector@UOneLocalGame@@V?$allocator@UOneLocalGame@@@std@@@std@@QAE?AViterator@12@XZ ; std::vector<OneLocalGame,std::allocator<OneLocalGame> >::begin
  00076	8b c8		 mov	 ecx, eax
  00078	e8 00 00 00 00	 call	 ??Hiterator@?$vector@UOneLocalGame@@V?$allocator@UOneLocalGame@@@std@@@std@@QBE?AV012@H@Z ; std::vector<OneLocalGame,std::allocator<OneLocalGame> >::iterator::operator+
  0007d	8b 45 08	 mov	 eax, DWORD PTR ___$ReturnUdt$[ebp]

; 624  : 		}

  00080	83 c4 14	 add	 esp, 20			; 00000014H
  00083	3b ec		 cmp	 ebp, esp
  00085	e8 00 00 00 00	 call	 __RTC_CheckEsp
  0008a	8b e5		 mov	 esp, ebp
  0008c	5d		 pop	 ebp
  0008d	c2 0c 00	 ret	 12			; 0000000cH
?insert@?$vector@UOneLocalGame@@V?$allocator@UOneLocalGame@@@std@@@std@@QAE?AViterator@12@V312@ABUOneLocalGame@@@Z ENDP ; std::vector<OneLocalGame,std::allocator<OneLocalGame> >::insert
_TEXT	ENDS
PUBLIC	?allocate@?$allocator@UOneLocalGame@@@std@@QAEPAUOneLocalGame@@I@Z ; std::allocator<OneLocalGame>::allocate
PUBLIC	?max_size@?$vector@UOneLocalGame@@V?$allocator@UOneLocalGame@@@std@@@std@@QBEIXZ ; std::vector<OneLocalGame,std::allocator<OneLocalGame> >::max_size
PUBLIC	?_Xlen@?$vector@UOneLocalGame@@V?$allocator@UOneLocalGame@@@std@@@std@@IBEXXZ ; std::vector<OneLocalGame,std::allocator<OneLocalGame> >::_Xlen
; Function compile flags: /Odt /RTCsu
;	COMDAT ?_Buy@?$vector@UOneLocalGame@@V?$allocator@UOneLocalGame@@@std@@@std@@IAE_NI@Z
_TEXT	SEGMENT
_this$ = -4						; size = 4
__Capacity$ = 8						; size = 4
?_Buy@?$vector@UOneLocalGame@@V?$allocator@UOneLocalGame@@@std@@@std@@IAE_NI@Z PROC NEAR ; std::vector<OneLocalGame,std::allocator<OneLocalGame> >::_Buy, COMDAT
; _this$ = ecx

; 770  : 		{	// allocate array with _Capacity elements

  00000	55		 push	 ebp
  00001	8b ec		 mov	 ebp, esp
  00003	51		 push	 ecx
  00004	c7 45 fc cc cc
	cc cc		 mov	 DWORD PTR [ebp-4], -858993460 ; ccccccccH
  0000b	89 4d fc	 mov	 DWORD PTR _this$[ebp], ecx

; 771  : 		_Myfirst = 0, _Mylast = 0, _Myend = 0;

  0000e	8b 45 fc	 mov	 eax, DWORD PTR _this$[ebp]
  00011	c7 40 04 00 00
	00 00		 mov	 DWORD PTR [eax+4], 0
  00018	8b 4d fc	 mov	 ecx, DWORD PTR _this$[ebp]
  0001b	c7 41 08 00 00
	00 00		 mov	 DWORD PTR [ecx+8], 0
  00022	8b 55 fc	 mov	 edx, DWORD PTR _this$[ebp]
  00025	c7 42 0c 00 00
	00 00		 mov	 DWORD PTR [edx+12], 0

; 772  : 		if (_Capacity == 0)

  0002c	83 7d 08 00	 cmp	 DWORD PTR __Capacity$[ebp], 0
  00030	75 04		 jne	 SHORT $L190733

; 773  : 			return (false);

  00032	32 c0		 xor	 al, al
  00034	eb 4c		 jmp	 SHORT $L190732
$L190733:

; 774  : 		else if (max_size() < _Capacity)

  00036	8b 4d fc	 mov	 ecx, DWORD PTR _this$[ebp]
  00039	e8 00 00 00 00	 call	 ?max_size@?$vector@UOneLocalGame@@V?$allocator@UOneLocalGame@@@std@@@std@@QBEIXZ ; std::vector<OneLocalGame,std::allocator<OneLocalGame> >::max_size
  0003e	3b 45 08	 cmp	 eax, DWORD PTR __Capacity$[ebp]
  00041	73 0a		 jae	 SHORT $L190735

; 775  : 			_Xlen();	// result too long

  00043	8b 4d fc	 mov	 ecx, DWORD PTR _this$[ebp]
  00046	e8 00 00 00 00	 call	 ?_Xlen@?$vector@UOneLocalGame@@V?$allocator@UOneLocalGame@@@std@@@std@@IBEXXZ ; std::vector<OneLocalGame,std::allocator<OneLocalGame> >::_Xlen

; 776  : 		else

  0004b	eb 33		 jmp	 SHORT $L190734
$L190735:

; 777  : 			{	// nonempty array, allocate storage
; 778  : 			_Myfirst = this->_Alval.allocate(_Capacity);

  0004d	8b 45 08	 mov	 eax, DWORD PTR __Capacity$[ebp]
  00050	50		 push	 eax
  00051	8b 4d fc	 mov	 ecx, DWORD PTR _this$[ebp]
  00054	e8 00 00 00 00	 call	 ?allocate@?$allocator@UOneLocalGame@@@std@@QAEPAUOneLocalGame@@I@Z ; std::allocator<OneLocalGame>::allocate
  00059	8b 4d fc	 mov	 ecx, DWORD PTR _this$[ebp]
  0005c	89 41 04	 mov	 DWORD PTR [ecx+4], eax

; 779  : 			_Mylast = _Myfirst;

  0005f	8b 55 fc	 mov	 edx, DWORD PTR _this$[ebp]
  00062	8b 45 fc	 mov	 eax, DWORD PTR _this$[ebp]
  00065	8b 48 04	 mov	 ecx, DWORD PTR [eax+4]
  00068	89 4a 08	 mov	 DWORD PTR [edx+8], ecx

; 780  : 			_Myend = _Myfirst + _Capacity;

  0006b	8b 55 08	 mov	 edx, DWORD PTR __Capacity$[ebp]
  0006e	69 d2 90 00 00
	00		 imul	 edx, 144		; 00000090H
  00074	8b 45 fc	 mov	 eax, DWORD PTR _this$[ebp]
  00077	03 50 04	 add	 edx, DWORD PTR [eax+4]
  0007a	8b 4d fc	 mov	 ecx, DWORD PTR _this$[ebp]
  0007d	89 51 0c	 mov	 DWORD PTR [ecx+12], edx
$L190734:

; 781  : 			}
; 782  : 		return (true);

  00080	b0 01		 mov	 al, 1
$L190732:

; 783  : 		}

  00082	83 c4 04	 add	 esp, 4
  00085	3b ec		 cmp	 ebp, esp
  00087	e8 00 00 00 00	 call	 __RTC_CheckEsp
  0008c	8b e5		 mov	 esp, ebp
  0008e	5d		 pop	 ebp
  0008f	c2 04 00	 ret	 4
?_Buy@?$vector@UOneLocalGame@@V?$allocator@UOneLocalGame@@@std@@@std@@IAE_NI@Z ENDP ; std::vector<OneLocalGame,std::allocator<OneLocalGame> >::_Buy
_TEXT	ENDS
PUBLIC	??$_Destroy_range@UOneLocalGame@@V?$allocator@UOneLocalGame@@@std@@@std@@YAXPAUOneLocalGame@@0AAV?$allocator@UOneLocalGame@@@0@@Z ; std::_Destroy_range<OneLocalGame,std::allocator<OneLocalGame> >
; Function compile flags: /Odt /RTCsu
;	COMDAT ?_Destroy@?$vector@UOneLocalGame@@V?$allocator@UOneLocalGame@@@std@@@std@@IAEXPAUOneLocalGame@@0@Z
_TEXT	SEGMENT
_this$ = -4						; size = 4
__First$ = 8						; size = 4
__Last$ = 12						; size = 4
?_Destroy@?$vector@UOneLocalGame@@V?$allocator@UOneLocalGame@@@std@@@std@@IAEXPAUOneLocalGame@@0@Z PROC NEAR ; std::vector<OneLocalGame,std::allocator<OneLocalGame> >::_Destroy, COMDAT
; _this$ = ecx

; 786  : 		{	// destroy [_First, _Last) using allocator

  00000	55		 push	 ebp
  00001	8b ec		 mov	 ebp, esp
  00003	51		 push	 ecx
  00004	c7 45 fc cc cc
	cc cc		 mov	 DWORD PTR [ebp-4], -858993460 ; ccccccccH
  0000b	89 4d fc	 mov	 DWORD PTR _this$[ebp], ecx

; 787  : 		_Destroy_range(_First, _Last, this->_Alval);

  0000e	8b 45 fc	 mov	 eax, DWORD PTR _this$[ebp]
  00011	50		 push	 eax
  00012	8b 4d 0c	 mov	 ecx, DWORD PTR __Last$[ebp]
  00015	51		 push	 ecx
  00016	8b 55 08	 mov	 edx, DWORD PTR __First$[ebp]
  00019	52		 push	 edx
  0001a	e8 00 00 00 00	 call	 ??$_Destroy_range@UOneLocalGame@@V?$allocator@UOneLocalGame@@@std@@@std@@YAXPAUOneLocalGame@@0AAV?$allocator@UOneLocalGame@@@0@@Z ; std::_Destroy_range<OneLocalGame,std::allocator<OneLocalGame> >
  0001f	83 c4 0c	 add	 esp, 12			; 0000000cH

; 788  : 		}

  00022	83 c4 04	 add	 esp, 4
  00025	3b ec		 cmp	 ebp, esp
  00027	e8 00 00 00 00	 call	 __RTC_CheckEsp
  0002c	8b e5		 mov	 esp, ebp
  0002e	5d		 pop	 ebp
  0002f	c2 08 00	 ret	 8
?_Destroy@?$vector@UOneLocalGame@@V?$allocator@UOneLocalGame@@@std@@@std@@IAEXPAUOneLocalGame@@0@Z ENDP ; std::vector<OneLocalGame,std::allocator<OneLocalGame> >::_Destroy
_TEXT	ENDS
PUBLIC	?deallocate@?$allocator@UOneLocalGame@@@std@@QAEXPAUOneLocalGame@@I@Z ; std::allocator<OneLocalGame>::deallocate
; Function compile flags: /Odt /RTCsu
;	COMDAT ?_Tidy@?$vector@UOneLocalGame@@V?$allocator@UOneLocalGame@@@std@@@std@@IAEXXZ
_TEXT	SEGMENT
_this$ = -4						; size = 4
?_Tidy@?$vector@UOneLocalGame@@V?$allocator@UOneLocalGame@@@std@@@std@@IAEXXZ PROC NEAR ; std::vector<OneLocalGame,std::allocator<OneLocalGame> >::_Tidy, COMDAT
; _this$ = ecx

; 791  : 		{	// free all storage

  00000	55		 push	 ebp
  00001	8b ec		 mov	 ebp, esp
  00003	51		 push	 ecx
  00004	c7 45 fc cc cc
	cc cc		 mov	 DWORD PTR [ebp-4], -858993460 ; ccccccccH
  0000b	89 4d fc	 mov	 DWORD PTR _this$[ebp], ecx

; 792  : 		if (_Myfirst != 0)

  0000e	8b 45 fc	 mov	 eax, DWORD PTR _this$[ebp]
  00011	83 78 04 00	 cmp	 DWORD PTR [eax+4], 0
  00015	74 3c		 je	 SHORT $L190748

; 793  : 			{	// something to free, destroy and deallocate it
; 794  : 			_Destroy(_Myfirst, _Mylast);

  00017	8b 4d fc	 mov	 ecx, DWORD PTR _this$[ebp]
  0001a	8b 51 08	 mov	 edx, DWORD PTR [ecx+8]
  0001d	52		 push	 edx
  0001e	8b 45 fc	 mov	 eax, DWORD PTR _this$[ebp]
  00021	8b 48 04	 mov	 ecx, DWORD PTR [eax+4]
  00024	51		 push	 ecx
  00025	8b 4d fc	 mov	 ecx, DWORD PTR _this$[ebp]
  00028	e8 00 00 00 00	 call	 ?_Destroy@?$vector@UOneLocalGame@@V?$allocator@UOneLocalGame@@@std@@@std@@IAEXPAUOneLocalGame@@0@Z ; std::vector<OneLocalGame,std::allocator<OneLocalGame> >::_Destroy

; 795  : 			this->_Alval.deallocate(_Myfirst, _Myend - _Myfirst);

  0002d	8b 55 fc	 mov	 edx, DWORD PTR _this$[ebp]
  00030	8b 45 fc	 mov	 eax, DWORD PTR _this$[ebp]
  00033	8b 4a 0c	 mov	 ecx, DWORD PTR [edx+12]
  00036	2b 48 04	 sub	 ecx, DWORD PTR [eax+4]
  00039	8b c1		 mov	 eax, ecx
  0003b	99		 cdq
  0003c	b9 90 00 00 00	 mov	 ecx, 144		; 00000090H
  00041	f7 f9		 idiv	 ecx
  00043	50		 push	 eax
  00044	8b 55 fc	 mov	 edx, DWORD PTR _this$[ebp]
  00047	8b 42 04	 mov	 eax, DWORD PTR [edx+4]
  0004a	50		 push	 eax
  0004b	8b 4d fc	 mov	 ecx, DWORD PTR _this$[ebp]
  0004e	e8 00 00 00 00	 call	 ?deallocate@?$allocator@UOneLocalGame@@@std@@QAEXPAUOneLocalGame@@I@Z ; std::allocator<OneLocalGame>::deallocate
$L190748:

; 796  : 			}
; 797  : 		_Myfirst = 0, _Mylast = 0, _Myend = 0;

  00053	8b 4d fc	 mov	 ecx, DWORD PTR _this$[ebp]
  00056	c7 41 04 00 00
	00 00		 mov	 DWORD PTR [ecx+4], 0
  0005d	8b 55 fc	 mov	 edx, DWORD PTR _this$[ebp]
  00060	c7 42 08 00 00
	00 00		 mov	 DWORD PTR [edx+8], 0
  00067	8b 45 fc	 mov	 eax, DWORD PTR _this$[ebp]
  0006a	c7 40 0c 00 00
	00 00		 mov	 DWORD PTR [eax+12], 0

; 798  : 		}

  00071	83 c4 04	 add	 esp, 4
  00074	3b ec		 cmp	 ebp, esp
  00076	e8 00 00 00 00	 call	 __RTC_CheckEsp
  0007b	8b e5		 mov	 esp, ebp
  0007d	5d		 pop	 ebp
  0007e	c3		 ret	 0
?_Tidy@?$vector@UOneLocalGame@@V?$allocator@UOneLocalGame@@@std@@@std@@IAEXXZ ENDP ; std::vector<OneLocalGame,std::allocator<OneLocalGame> >::_Tidy
_TEXT	ENDS
PUBLIC	??$_Uninitialized_fill_n@PAUOneLocalGame@@IU1@V?$allocator@UOneLocalGame@@@std@@@std@@YAXPAUOneLocalGame@@IABU1@AAV?$allocator@UOneLocalGame@@@0@@Z ; std::_Uninitialized_fill_n<OneLocalGame *,unsigned int,OneLocalGame,std::allocator<OneLocalGame> >
; Function compile flags: /Odt /RTCsu
;	COMDAT ?_Ufill@?$vector@UOneLocalGame@@V?$allocator@UOneLocalGame@@@std@@@std@@IAEPAUOneLocalGame@@PAU3@IABU3@@Z
_TEXT	SEGMENT
_this$ = -4						; size = 4
__Ptr$ = 8						; size = 4
__Count$ = 12						; size = 4
__Val$ = 16						; size = 4
?_Ufill@?$vector@UOneLocalGame@@V?$allocator@UOneLocalGame@@@std@@@std@@IAEPAUOneLocalGame@@PAU3@IABU3@@Z PROC NEAR ; std::vector<OneLocalGame,std::allocator<OneLocalGame> >::_Ufill, COMDAT
; _this$ = ecx

; 877  : 		{	// copy initializing _Count * _Val, using allocator

  00000	55		 push	 ebp
  00001	8b ec		 mov	 ebp, esp
  00003	51		 push	 ecx
  00004	c7 45 fc cc cc
	cc cc		 mov	 DWORD PTR [ebp-4], -858993460 ; ccccccccH
  0000b	89 4d fc	 mov	 DWORD PTR _this$[ebp], ecx

; 878  : 		_Uninitialized_fill_n(_Ptr, _Count, _Val, this->_Alval);

  0000e	8b 45 fc	 mov	 eax, DWORD PTR _this$[ebp]
  00011	50		 push	 eax
  00012	8b 4d 10	 mov	 ecx, DWORD PTR __Val$[ebp]
  00015	51		 push	 ecx
  00016	8b 55 0c	 mov	 edx, DWORD PTR __Count$[ebp]
  00019	52		 push	 edx
  0001a	8b 45 08	 mov	 eax, DWORD PTR __Ptr$[ebp]
  0001d	50		 push	 eax
  0001e	e8 00 00 00 00	 call	 ??$_Uninitialized_fill_n@PAUOneLocalGame@@IU1@V?$allocator@UOneLocalGame@@@std@@@std@@YAXPAUOneLocalGame@@IABU1@AAV?$allocator@UOneLocalGame@@@0@@Z ; std::_Uninitialized_fill_n<OneLocalGame *,unsigned int,OneLocalGame,std::allocator<OneLocalGame> >
  00023	83 c4 10	 add	 esp, 16			; 00000010H

; 879  : 		return (_Ptr + _Count);

  00026	8b 45 0c	 mov	 eax, DWORD PTR __Count$[ebp]
  00029	69 c0 90 00 00
	00		 imul	 eax, 144		; 00000090H
  0002f	03 45 08	 add	 eax, DWORD PTR __Ptr$[ebp]

; 880  : 		}

  00032	83 c4 04	 add	 esp, 4
  00035	3b ec		 cmp	 ebp, esp
  00037	e8 00 00 00 00	 call	 __RTC_CheckEsp
  0003c	8b e5		 mov	 esp, ebp
  0003e	5d		 pop	 ebp
  0003f	c2 0c 00	 ret	 12			; 0000000cH
?_Ufill@?$vector@UOneLocalGame@@V?$allocator@UOneLocalGame@@@std@@@std@@IAEPAUOneLocalGame@@PAU3@IABU3@@Z ENDP ; std::vector<OneLocalGame,std::allocator<OneLocalGame> >::_Ufill
_TEXT	ENDS
PUBLIC	??0?$allocator@UOneLocalGame@@@std@@QAE@ABV01@@Z ; std::allocator<OneLocalGame>::allocator<OneLocalGame>
; Function compile flags: /Odt /RTCsu
;	COMDAT ??0?$_Vector_val@UOneLocalGame@@V?$allocator@UOneLocalGame@@@std@@@std@@IAE@V?$allocator@UOneLocalGame@@@1@@Z
_TEXT	SEGMENT
_this$ = -4						; size = 4
__Al$ = 8						; size = 1
??0?$_Vector_val@UOneLocalGame@@V?$allocator@UOneLocalGame@@@std@@@std@@IAE@V?$allocator@UOneLocalGame@@@1@@Z PROC NEAR ; std::_Vector_val<OneLocalGame,std::allocator<OneLocalGame> >::_Vector_val<OneLocalGame,std::allocator<OneLocalGame> >, COMDAT
; _this$ = ecx

; 21   : 		{	// construct allocator from _Al

  00000	55		 push	 ebp
  00001	8b ec		 mov	 ebp, esp
  00003	51		 push	 ecx
  00004	c7 45 fc cc cc
	cc cc		 mov	 DWORD PTR [ebp-4], -858993460 ; ccccccccH
  0000b	89 4d fc	 mov	 DWORD PTR _this$[ebp], ecx
  0000e	8d 45 08	 lea	 eax, DWORD PTR __Al$[ebp]
  00011	50		 push	 eax
  00012	8b 4d fc	 mov	 ecx, DWORD PTR _this$[ebp]
  00015	e8 00 00 00 00	 call	 ??0?$allocator@UOneLocalGame@@@std@@QAE@ABV01@@Z ; std::allocator<OneLocalGame>::allocator<OneLocalGame>

; 22   : 		}

  0001a	8b 45 fc	 mov	 eax, DWORD PTR _this$[ebp]
  0001d	83 c4 04	 add	 esp, 4
  00020	3b ec		 cmp	 ebp, esp
  00022	e8 00 00 00 00	 call	 __RTC_CheckEsp
  00027	8b e5		 mov	 esp, ebp
  00029	5d		 pop	 ebp
  0002a	c2 04 00	 ret	 4
??0?$_Vector_val@UOneLocalGame@@V?$allocator@UOneLocalGame@@@std@@@std@@IAE@V?$allocator@UOneLocalGame@@@1@@Z ENDP ; std::_Vector_val<OneLocalGame,std::allocator<OneLocalGame> >::_Vector_val<OneLocalGame,std::allocator<OneLocalGame> >
; Function compile flags: /Odt /RTCsu
; File d:\program files (x86)\microsoft visual studio .net 2003\vc7\include\xmemory
_TEXT	ENDS
;	COMDAT ??0?$allocator@UOneLocalGame@@@std@@QAE@XZ
_TEXT	SEGMENT
_this$ = -4						; size = 4
??0?$allocator@UOneLocalGame@@@std@@QAE@XZ PROC NEAR	; std::allocator<OneLocalGame>::allocator<OneLocalGame>, COMDAT
; _this$ = ecx

; 111  : 	allocator()

  00000	55		 push	 ebp
  00001	8b ec		 mov	 ebp, esp
  00003	51		 push	 ecx
  00004	c7 45 fc cc cc
	cc cc		 mov	 DWORD PTR [ebp-4], -858993460 ; ccccccccH
  0000b	89 4d fc	 mov	 DWORD PTR _this$[ebp], ecx

; 112  : 		{	// construct default allocator (do nothing)
; 113  : 		}

  0000e	8b 45 fc	 mov	 eax, DWORD PTR _this$[ebp]
  00011	8b e5		 mov	 esp, ebp
  00013	5d		 pop	 ebp
  00014	c3		 ret	 0
??0?$allocator@UOneLocalGame@@@std@@QAE@XZ ENDP		; std::allocator<OneLocalGame>::allocator<OneLocalGame>
_TEXT	ENDS
PUBLIC	??0const_iterator@?$vector@UOneLocalGame@@V?$allocator@UOneLocalGame@@@std@@@std@@QAE@PAUOneLocalGame@@@Z ; std::vector<OneLocalGame,std::allocator<OneLocalGame> >::const_iterator::const_iterator
; Function compile flags: /Odt /RTCsu
; File d:\program files (x86)\microsoft visual studio .net 2003\vc7\include\vector
;	COMDAT ??0iterator@?$vector@UOneLocalGame@@V?$allocator@UOneLocalGame@@@std@@@std@@QAE@PAUOneLocalGame@@@Z
_TEXT	SEGMENT
_this$ = -4						; size = 4
__Ptr$ = 8						; size = 4
??0iterator@?$vector@UOneLocalGame@@V?$allocator@UOneLocalGame@@@std@@@std@@QAE@PAUOneLocalGame@@@Z PROC NEAR ; std::vector<OneLocalGame,std::allocator<OneLocalGame> >::iterator::iterator, COMDAT
; _this$ = ecx

; 215  : 			{	// construct with pointer _Ptr

  00000	55		 push	 ebp
  00001	8b ec		 mov	 ebp, esp
  00003	51		 push	 ecx
  00004	c7 45 fc cc cc
	cc cc		 mov	 DWORD PTR [ebp-4], -858993460 ; ccccccccH
  0000b	89 4d fc	 mov	 DWORD PTR _this$[ebp], ecx
  0000e	8b 45 08	 mov	 eax, DWORD PTR __Ptr$[ebp]
  00011	50		 push	 eax
  00012	8b 4d fc	 mov	 ecx, DWORD PTR _this$[ebp]
  00015	e8 00 00 00 00	 call	 ??0const_iterator@?$vector@UOneLocalGame@@V?$allocator@UOneLocalGame@@@std@@@std@@QAE@PAUOneLocalGame@@@Z ; std::vector<OneLocalGame,std::allocator<OneLocalGame> >::const_iterator::const_iterator

; 216  : 			}

  0001a	8b 45 fc	 mov	 eax, DWORD PTR _this$[ebp]
  0001d	83 c4 04	 add	 esp, 4
  00020	3b ec		 cmp	 ebp, esp
  00022	e8 00 00 00 00	 call	 __RTC_CheckEsp
  00027	8b e5		 mov	 esp, ebp
  00029	5d		 pop	 ebp
  0002a	c2 04 00	 ret	 4
??0iterator@?$vector@UOneLocalGame@@V?$allocator@UOneLocalGame@@@std@@@std@@QAE@PAUOneLocalGame@@@Z ENDP ; std::vector<OneLocalGame,std::allocator<OneLocalGame> >::iterator::iterator
; Function compile flags: /Odt /RTCsu
_TEXT	ENDS
;	COMDAT ??Eiterator@?$vector@UOneLocalGame@@V?$allocator@UOneLocalGame@@@std@@@std@@QAEAAV012@XZ
_TEXT	SEGMENT
_this$ = -4						; size = 4
??Eiterator@?$vector@UOneLocalGame@@V?$allocator@UOneLocalGame@@@std@@@std@@QAEAAV012@XZ PROC NEAR ; std::vector<OneLocalGame,std::allocator<OneLocalGame> >::iterator::operator++, COMDAT
; _this$ = ecx

; 229  : 			{	// preincrement

  00000	55		 push	 ebp
  00001	8b ec		 mov	 ebp, esp
  00003	51		 push	 ecx
  00004	c7 45 fc cc cc
	cc cc		 mov	 DWORD PTR [ebp-4], -858993460 ; ccccccccH
  0000b	89 4d fc	 mov	 DWORD PTR _this$[ebp], ecx

; 230  : 			++this->_Myptr;

  0000e	8b 45 fc	 mov	 eax, DWORD PTR _this$[ebp]
  00011	8b 08		 mov	 ecx, DWORD PTR [eax]
  00013	81 c1 90 00 00
	00		 add	 ecx, 144		; 00000090H
  00019	8b 55 fc	 mov	 edx, DWORD PTR _this$[ebp]
  0001c	89 0a		 mov	 DWORD PTR [edx], ecx

; 231  : 			return (*this);

  0001e	8b 45 fc	 mov	 eax, DWORD PTR _this$[ebp]

; 232  : 			}

  00021	8b e5		 mov	 esp, ebp
  00023	5d		 pop	 ebp
  00024	c3		 ret	 0
??Eiterator@?$vector@UOneLocalGame@@V?$allocator@UOneLocalGame@@@std@@@std@@QAEAAV012@XZ ENDP ; std::vector<OneLocalGame,std::allocator<OneLocalGame> >::iterator::operator++
; Function compile flags: /Odt /RTCsu
_TEXT	ENDS
;	COMDAT ??Dconst_iterator@?$vector@UOneLocalGame@@V?$allocator@UOneLocalGame@@@std@@@std@@QBEABUOneLocalGame@@XZ
_TEXT	SEGMENT
_this$ = -4						; size = 4
??Dconst_iterator@?$vector@UOneLocalGame@@V?$allocator@UOneLocalGame@@@std@@@std@@QBEABUOneLocalGame@@XZ PROC NEAR ; std::vector<OneLocalGame,std::allocator<OneLocalGame> >::const_iterator::operator*, COMDAT
; _this$ = ecx

; 79   : 			{	// return designated object

  00000	55		 push	 ebp
  00001	8b ec		 mov	 ebp, esp
  00003	51		 push	 ecx
  00004	c7 45 fc cc cc
	cc cc		 mov	 DWORD PTR [ebp-4], -858993460 ; ccccccccH
  0000b	89 4d fc	 mov	 DWORD PTR _this$[ebp], ecx

; 80   : 
; 81   : 
; 82   : 			return (*_Myptr);

  0000e	8b 45 fc	 mov	 eax, DWORD PTR _this$[ebp]
  00011	8b 00		 mov	 eax, DWORD PTR [eax]

; 83   : 			}

  00013	8b e5		 mov	 esp, ebp
  00015	5d		 pop	 ebp
  00016	c3		 ret	 0
??Dconst_iterator@?$vector@UOneLocalGame@@V?$allocator@UOneLocalGame@@@std@@@std@@QBEABUOneLocalGame@@XZ ENDP ; std::vector<OneLocalGame,std::allocator<OneLocalGame> >::const_iterator::operator*
; Function compile flags: /Odt /RTCsu
_TEXT	ENDS
;	COMDAT ??8const_iterator@?$vector@UOneLocalGame@@V?$allocator@UOneLocalGame@@@std@@@std@@QBE_NABV012@@Z
_TEXT	SEGMENT
_this$ = -4						; size = 4
__Right$ = 8						; size = 4
??8const_iterator@?$vector@UOneLocalGame@@V?$allocator@UOneLocalGame@@@std@@@std@@QBE_NABV012@@Z PROC NEAR ; std::vector<OneLocalGame,std::allocator<OneLocalGame> >::const_iterator::operator==, COMDAT
; _this$ = ecx

; 152  : 			{	// test for iterator equality

  00000	55		 push	 ebp
  00001	8b ec		 mov	 ebp, esp
  00003	51		 push	 ecx
  00004	c7 45 fc cc cc
	cc cc		 mov	 DWORD PTR [ebp-4], -858993460 ; ccccccccH
  0000b	89 4d fc	 mov	 DWORD PTR _this$[ebp], ecx

; 153  : 
; 154  : 
; 155  : 			return (_Myptr == _Right._Myptr);

  0000e	8b 45 fc	 mov	 eax, DWORD PTR _this$[ebp]
  00011	8b 4d 08	 mov	 ecx, DWORD PTR __Right$[ebp]
  00014	8b 00		 mov	 eax, DWORD PTR [eax]
  00016	2b 01		 sub	 eax, DWORD PTR [ecx]
  00018	f7 d8		 neg	 eax
  0001a	1b c0		 sbb	 eax, eax
  0001c	40		 inc	 eax

; 156  : 			}

  0001d	8b e5		 mov	 esp, ebp
  0001f	5d		 pop	 ebp
  00020	c2 04 00	 ret	 4
??8const_iterator@?$vector@UOneLocalGame@@V?$allocator@UOneLocalGame@@@std@@@std@@QBE_NABV012@@Z ENDP ; std::vector<OneLocalGame,std::allocator<OneLocalGame> >::const_iterator::operator==
; Function compile flags: /Odt /RTCsu
; File d:\program files (x86)\microsoft visual studio .net 2003\vc7\include\list
_TEXT	ENDS
;	COMDAT ?_Nextnode@?$list@PAVIMessageObserver@@V?$allocator@PAVIMessageObserver@@@std@@@std@@KAAAPAU_Node@?$_List_nod@PAVIMessageObserver@@V?$allocator@PAVIMessageObserver@@@std@@@2@PAU342@@Z
_TEXT	SEGMENT
__Pnode$ = 8						; size = 4
?_Nextnode@?$list@PAVIMessageObserver@@V?$allocator@PAVIMessageObserver@@@std@@@std@@KAAAPAU_Node@?$_List_nod@PAVIMessageObserver@@V?$allocator@PAVIMessageObserver@@@std@@@2@PAU342@@Z PROC NEAR ; std::list<IMessageObserver *,std::allocator<IMessageObserver *> >::_Nextnode, COMDAT

; 107  : 		{	// return reference to successor pointer in node

  00000	55		 push	 ebp
  00001	8b ec		 mov	 ebp, esp

; 108  : 		return ((_Nodepref)(*_Pnode)._Next);

  00003	8b 45 08	 mov	 eax, DWORD PTR __Pnode$[ebp]

; 109  : 		}

  00006	5d		 pop	 ebp
  00007	c3		 ret	 0
?_Nextnode@?$list@PAVIMessageObserver@@V?$allocator@PAVIMessageObserver@@@std@@@std@@KAAAPAU_Node@?$_List_nod@PAVIMessageObserver@@V?$allocator@PAVIMessageObserver@@@std@@@2@PAU342@@Z ENDP ; std::list<IMessageObserver *,std::allocator<IMessageObserver *> >::_Nextnode
_TEXT	ENDS
PUBLIC	?deallocate@?$allocator@U_Node@?$_List_nod@PAVIMessageObserver@@V?$allocator@PAVIMessageObserver@@@std@@@std@@@std@@QAEXPAU_Node@?$_List_nod@PAVIMessageObserver@@V?$allocator@PAVIMessageObserver@@@std@@@2@I@Z ; std::allocator<std::_List_nod<IMessageObserver *,std::allocator<IMessageObserver *> >::_Node>::deallocate
PUBLIC	?allocate@?$allocator@U_Node@?$_List_nod@PAVIMessageObserver@@V?$allocator@PAVIMessageObserver@@@std@@@std@@@std@@QAEPAU_Node@?$_List_nod@PAVIMessageObserver@@V?$allocator@PAVIMessageObserver@@@std@@@2@I@Z ; std::allocator<std::_List_nod<IMessageObserver *,std::allocator<IMessageObserver *> >::_Node>::allocate
PUBLIC	?construct@?$allocator@PAU_Node@?$_List_nod@PAVIMessageObserver@@V?$allocator@PAVIMessageObserver@@@std@@@std@@@std@@QAEXPAPAU_Node@?$_List_nod@PAVIMessageObserver@@V?$allocator@PAVIMessageObserver@@@std@@@2@ABQAU342@@Z ; std::allocator<std::_List_nod<IMessageObserver *,std::allocator<IMessageObserver *> >::_Node *>::construct
PUBLIC	?destroy@?$allocator@PAU_Node@?$_List_nod@PAVIMessageObserver@@V?$allocator@PAVIMessageObserver@@@std@@@std@@@std@@QAEXPAPAU_Node@?$_List_nod@PAVIMessageObserver@@V?$allocator@PAVIMessageObserver@@@std@@@2@@Z ; std::allocator<std::_List_nod<IMessageObserver *,std::allocator<IMessageObserver *> >::_Node *>::destroy
PUBLIC	?_Prevnode@?$list@PAVIMessageObserver@@V?$allocator@PAVIMessageObserver@@@std@@@std@@KAAAPAU_Node@?$_List_nod@PAVIMessageObserver@@V?$allocator@PAVIMessageObserver@@@std@@@2@PAU342@@Z ; std::list<IMessageObserver *,std::allocator<IMessageObserver *> >::_Prevnode
EXTRN	__CxxThrowException@8:NEAR
;	COMDAT xdata$x
xdata$x	SEGMENT
$T192829 DD	0ffffffffH
	DD	00H
	DD	0ffffffffH
	DD	00H
$T192831 DD	00H
	DD	00H
	DD	00H
	DD	FLAT:$L192822
$T192830 DD	00H
	DD	00H
	DD	01H
	DD	01H
	DD	FLAT:$T192831
$T192824 DD	019930520H
	DD	02H
	DD	FLAT:$T192829
	DD	01H
	DD	FLAT:$T192830
	DD	2 DUP(00H)
; Function compile flags: /Odt /RTCsu
xdata$x	ENDS
;	COMDAT ?_Buynode@?$list@PAVIMessageObserver@@V?$allocator@PAVIMessageObserver@@@std@@@std@@IAEPAU_Node@?$_List_nod@PAVIMessageObserver@@V?$allocator@PAVIMessageObserver@@@std@@@2@XZ
_TEXT	SEGMENT
tv93 = -44						; size = 4
tv92 = -40						; size = 4
__Linkcnt$ = -36					; size = 4
__Pnode$ = -28						; size = 4
_this$ = -20						; size = 4
__$EHRec$ = -16						; size = 16
?_Buynode@?$list@PAVIMessageObserver@@V?$allocator@PAVIMessageObserver@@@std@@@std@@IAEPAU_Node@?$_List_nod@PAVIMessageObserver@@V?$allocator@PAVIMessageObserver@@@std@@@2@XZ PROC NEAR ; std::list<IMessageObserver *,std::allocator<IMessageObserver *> >::_Buynode, COMDAT
; _this$ = ecx

; 898  : 		{	// allocate a head node and set links

  00000	55		 push	 ebp
  00001	8b ec		 mov	 ebp, esp
  00003	6a ff		 push	 -1
  00005	68 00 00 00 00	 push	 __ehhandler$?_Buynode@?$list@PAVIMessageObserver@@V?$allocator@PAVIMessageObserver@@@std@@@std@@IAEPAU_Node@?$_List_nod@PAVIMessageObserver@@V?$allocator@PAVIMessageObserver@@@std@@@2@XZ
  0000a	64 a1 00 00 00
	00		 mov	 eax, DWORD PTR fs:__except_list
  00010	50		 push	 eax
  00011	64 89 25 00 00
	00 00		 mov	 DWORD PTR fs:__except_list, esp
  00018	51		 push	 ecx
  00019	83 ec 1c	 sub	 esp, 28			; 0000001cH
  0001c	53		 push	 ebx
  0001d	56		 push	 esi
  0001e	57		 push	 edi
  0001f	b8 cc cc cc cc	 mov	 eax, -858993460		; ccccccccH
  00024	89 45 d4	 mov	 DWORD PTR [ebp-44], eax
  00027	89 45 d8	 mov	 DWORD PTR [ebp-40], eax
  0002a	89 45 dc	 mov	 DWORD PTR [ebp-36], eax
  0002d	89 45 e0	 mov	 DWORD PTR [ebp-32], eax
  00030	89 45 e4	 mov	 DWORD PTR [ebp-28], eax
  00033	89 45 e8	 mov	 DWORD PTR [ebp-24], eax
  00036	89 45 ec	 mov	 DWORD PTR [ebp-20], eax
  00039	89 65 f0	 mov	 DWORD PTR __$EHRec$[ebp], esp
  0003c	89 4d ec	 mov	 DWORD PTR _this$[ebp], ecx

; 899  : 		_Nodeptr _Pnode = this->_Alnod.allocate(1);

  0003f	6a 01		 push	 1
  00041	8b 4d ec	 mov	 ecx, DWORD PTR _this$[ebp]
  00044	e8 00 00 00 00	 call	 ?allocate@?$allocator@U_Node@?$_List_nod@PAVIMessageObserver@@V?$allocator@PAVIMessageObserver@@@std@@@std@@@std@@QAEPAU_Node@?$_List_nod@PAVIMessageObserver@@V?$allocator@PAVIMessageObserver@@@std@@@2@I@Z ; std::allocator<std::_List_nod<IMessageObserver *,std::allocator<IMessageObserver *> >::_Node>::allocate
  00049	89 45 e4	 mov	 DWORD PTR __Pnode$[ebp], eax

; 900  : 		int _Linkcnt = 0;

  0004c	c7 45 dc 00 00
	00 00		 mov	 DWORD PTR __Linkcnt$[ebp], 0

; 901  : 
; 902  : 		_TRY_BEGIN

  00053	c7 45 fc 00 00
	00 00		 mov	 DWORD PTR __$EHRec$[ebp+12], 0

; 903  : 		this->_Alptr.construct(&_Nextnode(_Pnode), _Pnode);

  0005a	8b 45 e4	 mov	 eax, DWORD PTR __Pnode$[ebp]
  0005d	50		 push	 eax
  0005e	e8 00 00 00 00	 call	 ?_Nextnode@?$list@PAVIMessageObserver@@V?$allocator@PAVIMessageObserver@@@std@@@std@@KAAAPAU_Node@?$_List_nod@PAVIMessageObserver@@V?$allocator@PAVIMessageObserver@@@std@@@2@PAU342@@Z ; std::list<IMessageObserver *,std::allocator<IMessageObserver *> >::_Nextnode
  00063	83 c4 04	 add	 esp, 4
  00066	89 45 d8	 mov	 DWORD PTR tv92[ebp], eax
  00069	8d 4d e4	 lea	 ecx, DWORD PTR __Pnode$[ebp]
  0006c	51		 push	 ecx
  0006d	8b 55 d8	 mov	 edx, DWORD PTR tv92[ebp]
  00070	52		 push	 edx
  00071	8b 4d ec	 mov	 ecx, DWORD PTR _this$[ebp]
  00074	83 c1 01	 add	 ecx, 1
  00077	e8 00 00 00 00	 call	 ?construct@?$allocator@PAU_Node@?$_List_nod@PAVIMessageObserver@@V?$allocator@PAVIMessageObserver@@@std@@@std@@@std@@QAEXPAPAU_Node@?$_List_nod@PAVIMessageObserver@@V?$allocator@PAVIMessageObserver@@@std@@@2@ABQAU342@@Z ; std::allocator<std::_List_nod<IMessageObserver *,std::allocator<IMessageObserver *> >::_Node *>::construct

; 904  : 		++_Linkcnt;

  0007c	8b 45 dc	 mov	 eax, DWORD PTR __Linkcnt$[ebp]
  0007f	83 c0 01	 add	 eax, 1
  00082	89 45 dc	 mov	 DWORD PTR __Linkcnt$[ebp], eax

; 905  : 		this->_Alptr.construct(&_Prevnode(_Pnode), _Pnode);

  00085	8b 4d e4	 mov	 ecx, DWORD PTR __Pnode$[ebp]
  00088	51		 push	 ecx
  00089	e8 00 00 00 00	 call	 ?_Prevnode@?$list@PAVIMessageObserver@@V?$allocator@PAVIMessageObserver@@@std@@@std@@KAAAPAU_Node@?$_List_nod@PAVIMessageObserver@@V?$allocator@PAVIMessageObserver@@@std@@@2@PAU342@@Z ; std::list<IMessageObserver *,std::allocator<IMessageObserver *> >::_Prevnode
  0008e	83 c4 04	 add	 esp, 4
  00091	89 45 d4	 mov	 DWORD PTR tv93[ebp], eax
  00094	8d 55 e4	 lea	 edx, DWORD PTR __Pnode$[ebp]
  00097	52		 push	 edx
  00098	8b 45 d4	 mov	 eax, DWORD PTR tv93[ebp]
  0009b	50		 push	 eax
  0009c	8b 4d ec	 mov	 ecx, DWORD PTR _this$[ebp]
  0009f	83 c1 01	 add	 ecx, 1
  000a2	e8 00 00 00 00	 call	 ?construct@?$allocator@PAU_Node@?$_List_nod@PAVIMessageObserver@@V?$allocator@PAVIMessageObserver@@@std@@@std@@@std@@QAEXPAPAU_Node@?$_List_nod@PAVIMessageObserver@@V?$allocator@PAVIMessageObserver@@@std@@@2@ABQAU342@@Z ; std::allocator<std::_List_nod<IMessageObserver *,std::allocator<IMessageObserver *> >::_Node *>::construct
  000a7	eb 35		 jmp	 SHORT $L192821
$L192822:

; 906  : 		_CATCH_ALL
; 907  : 		if (0 < _Linkcnt)

  000a9	83 7d dc 00	 cmp	 DWORD PTR __Linkcnt$[ebp], 0
  000ad	7e 18		 jle	 SHORT $L190792

; 908  : 			this->_Alptr.destroy(&_Nextnode(_Pnode));

  000af	8b 4d e4	 mov	 ecx, DWORD PTR __Pnode$[ebp]
  000b2	51		 push	 ecx
  000b3	e8 00 00 00 00	 call	 ?_Nextnode@?$list@PAVIMessageObserver@@V?$allocator@PAVIMessageObserver@@@std@@@std@@KAAAPAU_Node@?$_List_nod@PAVIMessageObserver@@V?$allocator@PAVIMessageObserver@@@std@@@2@PAU342@@Z ; std::list<IMessageObserver *,std::allocator<IMessageObserver *> >::_Nextnode
  000b8	83 c4 04	 add	 esp, 4
  000bb	50		 push	 eax
  000bc	8b 4d ec	 mov	 ecx, DWORD PTR _this$[ebp]
  000bf	83 c1 01	 add	 ecx, 1
  000c2	e8 00 00 00 00	 call	 ?destroy@?$allocator@PAU_Node@?$_List_nod@PAVIMessageObserver@@V?$allocator@PAVIMessageObserver@@@std@@@std@@@std@@QAEXPAPAU_Node@?$_List_nod@PAVIMessageObserver@@V?$allocator@PAVIMessageObserver@@@std@@@2@@Z ; std::allocator<std::_List_nod<IMessageObserver *,std::allocator<IMessageObserver *> >::_Node *>::destroy
$L190792:

; 909  : 		this->_Alnod.deallocate(_Pnode, 1);

  000c7	6a 01		 push	 1
  000c9	8b 55 e4	 mov	 edx, DWORD PTR __Pnode$[ebp]
  000cc	52		 push	 edx
  000cd	8b 4d ec	 mov	 ecx, DWORD PTR _this$[ebp]
  000d0	e8 00 00 00 00	 call	 ?deallocate@?$allocator@U_Node@?$_List_nod@PAVIMessageObserver@@V?$allocator@PAVIMessageObserver@@@std@@@std@@@std@@QAEXPAU_Node@?$_List_nod@PAVIMessageObserver@@V?$allocator@PAVIMessageObserver@@@std@@@2@I@Z ; std::allocator<std::_List_nod<IMessageObserver *,std::allocator<IMessageObserver *> >::_Node>::deallocate

; 910  : 		_RERAISE;

  000d5	6a 00		 push	 0
  000d7	6a 00		 push	 0
  000d9	e8 00 00 00 00	 call	 __CxxThrowException@8
$L192821:

; 911  : 		_CATCH_END

  000de	c7 45 fc ff ff
	ff ff		 mov	 DWORD PTR __$EHRec$[ebp+12], -1

; 912  : 		return (_Pnode);

  000e5	8b 45 e4	 mov	 eax, DWORD PTR __Pnode$[ebp]
$L192819:

; 913  : 		}

  000e8	52		 push	 edx
  000e9	8b cd		 mov	 ecx, ebp
  000eb	50		 push	 eax
  000ec	8d 15 00 00 00
	00		 lea	 edx, DWORD PTR $L192828
  000f2	e8 00 00 00 00	 call	 @_RTC_CheckStackVars@8
  000f7	58		 pop	 eax
  000f8	5a		 pop	 edx
  000f9	8b 4d f4	 mov	 ecx, DWORD PTR __$EHRec$[ebp+4]
  000fc	64 89 0d 00 00
	00 00		 mov	 DWORD PTR fs:__except_list, ecx
  00103	5f		 pop	 edi
  00104	5e		 pop	 esi
  00105	5b		 pop	 ebx
  00106	83 c4 2c	 add	 esp, 44			; 0000002cH
  00109	3b ec		 cmp	 ebp, esp
  0010b	e8 00 00 00 00	 call	 __RTC_CheckEsp
  00110	8b e5		 mov	 esp, ebp
  00112	5d		 pop	 ebp
  00113	c3		 ret	 0
$L192828:
  00114	01 00 00 00	 DD	 1
  00118	00 00 00 00	 DD	 $L192827
$L192827:
  0011c	e4 ff ff ff	 DD	 -28			; ffffffe4H
  00120	04 00 00 00	 DD	 4
  00124	00 00 00 00	 DD	 $L192825
$L192825:
  00128	5f		 DB	 95			; 0000005fH
  00129	50		 DB	 80			; 00000050H
  0012a	6e		 DB	 110			; 0000006eH
  0012b	6f		 DB	 111			; 0000006fH
  0012c	64		 DB	 100			; 00000064H
  0012d	65		 DB	 101			; 00000065H
  0012e	00		 DB	 0
_TEXT	ENDS
;	COMDAT text$x
text$x	SEGMENT
__ehhandler$?_Buynode@?$list@PAVIMessageObserver@@V?$allocator@PAVIMessageObserver@@@std@@@std@@IAEPAU_Node@?$_List_nod@PAVIMessageObserver@@V?$allocator@PAVIMessageObserver@@@std@@@2@XZ:
  00000	b8 00 00 00 00	 mov	 eax, OFFSET FLAT:$T192824
  00005	e9 00 00 00 00	 jmp	 ___CxxFrameHandler
text$x	ENDS
?_Buynode@?$list@PAVIMessageObserver@@V?$allocator@PAVIMessageObserver@@@std@@@std@@IAEPAU_Node@?$_List_nod@PAVIMessageObserver@@V?$allocator@PAVIMessageObserver@@@std@@@2@XZ ENDP ; std::list<IMessageObserver *,std::allocator<IMessageObserver *> >::_Buynode
PUBLIC	?clear@?$list@PAVIMessageObserver@@V?$allocator@PAVIMessageObserver@@@std@@@std@@QAEXXZ ; std::list<IMessageObserver *,std::allocator<IMessageObserver *> >::clear
; Function compile flags: /Odt /RTCsu
;	COMDAT ?_Tidy@?$list@PAVIMessageObserver@@V?$allocator@PAVIMessageObserver@@@std@@@std@@IAEXXZ
_TEXT	SEGMENT
_this$ = -4						; size = 4
?_Tidy@?$list@PAVIMessageObserver@@V?$allocator@PAVIMessageObserver@@@std@@@std@@IAEXXZ PROC NEAR ; std::list<IMessageObserver *,std::allocator<IMessageObserver *> >::_Tidy, COMDAT
; _this$ = ecx

; 929  : 		{	// free all storage

  00000	55		 push	 ebp
  00001	8b ec		 mov	 ebp, esp
  00003	51		 push	 ecx
  00004	c7 45 fc cc cc
	cc cc		 mov	 DWORD PTR [ebp-4], -858993460 ; ccccccccH
  0000b	89 4d fc	 mov	 DWORD PTR _this$[ebp], ecx

; 930  : 		clear();

  0000e	8b 4d fc	 mov	 ecx, DWORD PTR _this$[ebp]
  00011	e8 00 00 00 00	 call	 ?clear@?$list@PAVIMessageObserver@@V?$allocator@PAVIMessageObserver@@@std@@@std@@QAEXXZ ; std::list<IMessageObserver *,std::allocator<IMessageObserver *> >::clear

; 931  : 		this->_Alptr.destroy(&_Nextnode(_Myhead));

  00016	8b 45 fc	 mov	 eax, DWORD PTR _this$[ebp]
  00019	8b 48 04	 mov	 ecx, DWORD PTR [eax+4]
  0001c	51		 push	 ecx
  0001d	e8 00 00 00 00	 call	 ?_Nextnode@?$list@PAVIMessageObserver@@V?$allocator@PAVIMessageObserver@@@std@@@std@@KAAAPAU_Node@?$_List_nod@PAVIMessageObserver@@V?$allocator@PAVIMessageObserver@@@std@@@2@PAU342@@Z ; std::list<IMessageObserver *,std::allocator<IMessageObserver *> >::_Nextnode
  00022	83 c4 04	 add	 esp, 4
  00025	50		 push	 eax
  00026	8b 4d fc	 mov	 ecx, DWORD PTR _this$[ebp]
  00029	83 c1 01	 add	 ecx, 1
  0002c	e8 00 00 00 00	 call	 ?destroy@?$allocator@PAU_Node@?$_List_nod@PAVIMessageObserver@@V?$allocator@PAVIMessageObserver@@@std@@@std@@@std@@QAEXPAPAU_Node@?$_List_nod@PAVIMessageObserver@@V?$allocator@PAVIMessageObserver@@@std@@@2@@Z ; std::allocator<std::_List_nod<IMessageObserver *,std::allocator<IMessageObserver *> >::_Node *>::destroy

; 932  : 		this->_Alptr.destroy(&_Prevnode(_Myhead));

  00031	8b 55 fc	 mov	 edx, DWORD PTR _this$[ebp]
  00034	8b 42 04	 mov	 eax, DWORD PTR [edx+4]
  00037	50		 push	 eax
  00038	e8 00 00 00 00	 call	 ?_Prevnode@?$list@PAVIMessageObserver@@V?$allocator@PAVIMessageObserver@@@std@@@std@@KAAAPAU_Node@?$_List_nod@PAVIMessageObserver@@V?$allocator@PAVIMessageObserver@@@std@@@2@PAU342@@Z ; std::list<IMessageObserver *,std::allocator<IMessageObserver *> >::_Prevnode
  0003d	83 c4 04	 add	 esp, 4
  00040	50		 push	 eax
  00041	8b 4d fc	 mov	 ecx, DWORD PTR _this$[ebp]
  00044	83 c1 01	 add	 ecx, 1
  00047	e8 00 00 00 00	 call	 ?destroy@?$allocator@PAU_Node@?$_List_nod@PAVIMessageObserver@@V?$allocator@PAVIMessageObserver@@@std@@@std@@@std@@QAEXPAPAU_Node@?$_List_nod@PAVIMessageObserver@@V?$allocator@PAVIMessageObserver@@@std@@@2@@Z ; std::allocator<std::_List_nod<IMessageObserver *,std::allocator<IMessageObserver *> >::_Node *>::destroy

; 933  : 		this->_Alnod.deallocate(_Myhead, 1);

  0004c	6a 01		 push	 1
  0004e	8b 4d fc	 mov	 ecx, DWORD PTR _this$[ebp]
  00051	8b 51 04	 mov	 edx, DWORD PTR [ecx+4]
  00054	52		 push	 edx
  00055	8b 4d fc	 mov	 ecx, DWORD PTR _this$[ebp]
  00058	e8 00 00 00 00	 call	 ?deallocate@?$allocator@U_Node@?$_List_nod@PAVIMessageObserver@@V?$allocator@PAVIMessageObserver@@@std@@@std@@@std@@QAEXPAU_Node@?$_List_nod@PAVIMessageObserver@@V?$allocator@PAVIMessageObserver@@@std@@@2@I@Z ; std::allocator<std::_List_nod<IMessageObserver *,std::allocator<IMessageObserver *> >::_Node>::deallocate

; 934  : 		_Myhead = 0;

  0005d	8b 45 fc	 mov	 eax, DWORD PTR _this$[ebp]
  00060	c7 40 04 00 00
	00 00		 mov	 DWORD PTR [eax+4], 0

; 935  : 		}

  00067	83 c4 04	 add	 esp, 4
  0006a	3b ec		 cmp	 ebp, esp
  0006c	e8 00 00 00 00	 call	 __RTC_CheckEsp
  00071	8b e5		 mov	 esp, ebp
  00073	5d		 pop	 ebp
  00074	c3		 ret	 0
?_Tidy@?$list@PAVIMessageObserver@@V?$allocator@PAVIMessageObserver@@@std@@@std@@IAEXXZ ENDP ; std::list<IMessageObserver *,std::allocator<IMessageObserver *> >::_Tidy
_TEXT	ENDS
PUBLIC	??0?$allocator@PAVIMessageObserver@@@std@@QAE@ABV01@@Z ; std::allocator<IMessageObserver *>::allocator<IMessageObserver *>
PUBLIC	??0?$_List_ptr@PAVIMessageObserver@@V?$allocator@PAVIMessageObserver@@@std@@@std@@IAE@V?$allocator@PAVIMessageObserver@@@1@@Z ; std::_List_ptr<IMessageObserver *,std::allocator<IMessageObserver *> >::_List_ptr<IMessageObserver *,std::allocator<IMessageObserver *> >
; Function compile flags: /Odt /RTCsu
;	COMDAT ??0?$_List_val@PAVIMessageObserver@@V?$allocator@PAVIMessageObserver@@@std@@@std@@IAE@V?$allocator@PAVIMessageObserver@@@1@@Z
_TEXT	SEGMENT
_this$ = -4						; size = 4
__Al$ = 8						; size = 1
??0?$_List_val@PAVIMessageObserver@@V?$allocator@PAVIMessageObserver@@@std@@@std@@IAE@V?$allocator@PAVIMessageObserver@@@1@@Z PROC NEAR ; std::_List_val<IMessageObserver *,std::allocator<IMessageObserver *> >::_List_val<IMessageObserver *,std::allocator<IMessageObserver *> >, COMDAT
; _this$ = ecx

; 82   : 		{	// construct base, and allocator from _Al

  00000	55		 push	 ebp
  00001	8b ec		 mov	 ebp, esp
  00003	83 ec 08	 sub	 esp, 8
  00006	c7 45 f8 cc cc
	cc cc		 mov	 DWORD PTR [ebp-8], -858993460 ; ccccccccH
  0000d	c7 45 fc cc cc
	cc cc		 mov	 DWORD PTR [ebp-4], -858993460 ; ccccccccH
  00014	89 4d fc	 mov	 DWORD PTR _this$[ebp], ecx
  00017	51		 push	 ecx
  00018	8b cc		 mov	 ecx, esp
  0001a	8d 45 08	 lea	 eax, DWORD PTR __Al$[ebp]
  0001d	50		 push	 eax
  0001e	e8 00 00 00 00	 call	 ??0?$allocator@PAVIMessageObserver@@@std@@QAE@ABV01@@Z ; std::allocator<IMessageObserver *>::allocator<IMessageObserver *>
  00023	8b 4d fc	 mov	 ecx, DWORD PTR _this$[ebp]
  00026	e8 00 00 00 00	 call	 ??0?$_List_ptr@PAVIMessageObserver@@V?$allocator@PAVIMessageObserver@@@std@@@std@@IAE@V?$allocator@PAVIMessageObserver@@@1@@Z ; std::_List_ptr<IMessageObserver *,std::allocator<IMessageObserver *> >::_List_ptr<IMessageObserver *,std::allocator<IMessageObserver *> >
  0002b	8d 4d 08	 lea	 ecx, DWORD PTR __Al$[ebp]
  0002e	51		 push	 ecx
  0002f	8b 4d fc	 mov	 ecx, DWORD PTR _this$[ebp]
  00032	83 c1 02	 add	 ecx, 2
  00035	e8 00 00 00 00	 call	 ??0?$allocator@PAVIMessageObserver@@@std@@QAE@ABV01@@Z ; std::allocator<IMessageObserver *>::allocator<IMessageObserver *>

; 83   : 		}

  0003a	8b 45 fc	 mov	 eax, DWORD PTR _this$[ebp]
  0003d	83 c4 08	 add	 esp, 8
  00040	3b ec		 cmp	 ebp, esp
  00042	e8 00 00 00 00	 call	 __RTC_CheckEsp
  00047	8b e5		 mov	 esp, ebp
  00049	5d		 pop	 ebp
  0004a	c2 04 00	 ret	 4
??0?$_List_val@PAVIMessageObserver@@V?$allocator@PAVIMessageObserver@@@std@@@std@@IAE@V?$allocator@PAVIMessageObserver@@@1@@Z ENDP ; std::_List_val<IMessageObserver *,std::allocator<IMessageObserver *> >::_List_val<IMessageObserver *,std::allocator<IMessageObserver *> >
; Function compile flags: /Odt /RTCsu
; File d:\program files (x86)\microsoft visual studio .net 2003\vc7\include\xmemory
_TEXT	ENDS
;	COMDAT ??0?$allocator@PAVIMessageObserver@@@std@@QAE@XZ
_TEXT	SEGMENT
_this$ = -4						; size = 4
??0?$allocator@PAVIMessageObserver@@@std@@QAE@XZ PROC NEAR ; std::allocator<IMessageObserver *>::allocator<IMessageObserver *>, COMDAT
; _this$ = ecx

; 111  : 	allocator()

  00000	55		 push	 ebp
  00001	8b ec		 mov	 ebp, esp
  00003	51		 push	 ecx
  00004	c7 45 fc cc cc
	cc cc		 mov	 DWORD PTR [ebp-4], -858993460 ; ccccccccH
  0000b	89 4d fc	 mov	 DWORD PTR _this$[ebp], ecx

; 112  : 		{	// construct default allocator (do nothing)
; 113  : 		}

  0000e	8b 45 fc	 mov	 eax, DWORD PTR _this$[ebp]
  00011	8b e5		 mov	 esp, ebp
  00013	5d		 pop	 ebp
  00014	c3		 ret	 0
??0?$allocator@PAVIMessageObserver@@@std@@QAE@XZ ENDP	; std::allocator<IMessageObserver *>::allocator<IMessageObserver *>
_TEXT	ENDS
PUBLIC	??0const_iterator@?$list@PAVIMessageObserver@@V?$allocator@PAVIMessageObserver@@@std@@@std@@QAE@PAU_Node@?$_List_nod@PAVIMessageObserver@@V?$allocator@PAVIMessageObserver@@@std@@@2@@Z ; std::list<IMessageObserver *,std::allocator<IMessageObserver *> >::const_iterator::const_iterator
; Function compile flags: /Odt /RTCsu
; File d:\program files (x86)\microsoft visual studio .net 2003\vc7\include\list
;	COMDAT ??0iterator@?$list@PAVIMessageObserver@@V?$allocator@PAVIMessageObserver@@@std@@@std@@QAE@PAU_Node@?$_List_nod@PAVIMessageObserver@@V?$allocator@PAVIMessageObserver@@@std@@@2@@Z
_TEXT	SEGMENT
_this$ = -4						; size = 4
__Pnode$ = 8						; size = 4
??0iterator@?$list@PAVIMessageObserver@@V?$allocator@PAVIMessageObserver@@@std@@@std@@QAE@PAU_Node@?$_List_nod@PAVIMessageObserver@@V?$allocator@PAVIMessageObserver@@@std@@@2@@Z PROC NEAR ; std::list<IMessageObserver *,std::allocator<IMessageObserver *> >::iterator::iterator, COMDAT
; _this$ = ecx

; 235  : 			{	// construct with node pointer _Pnode

  00000	55		 push	 ebp
  00001	8b ec		 mov	 ebp, esp
  00003	51		 push	 ecx
  00004	c7 45 fc cc cc
	cc cc		 mov	 DWORD PTR [ebp-4], -858993460 ; ccccccccH
  0000b	89 4d fc	 mov	 DWORD PTR _this$[ebp], ecx
  0000e	8b 45 08	 mov	 eax, DWORD PTR __Pnode$[ebp]
  00011	50		 push	 eax
  00012	8b 4d fc	 mov	 ecx, DWORD PTR _this$[ebp]
  00015	e8 00 00 00 00	 call	 ??0const_iterator@?$list@PAVIMessageObserver@@V?$allocator@PAVIMessageObserver@@@std@@@std@@QAE@PAU_Node@?$_List_nod@PAVIMessageObserver@@V?$allocator@PAVIMessageObserver@@@std@@@2@@Z ; std::list<IMessageObserver *,std::allocator<IMessageObserver *> >::const_iterator::const_iterator

; 236  : 			}

  0001a	8b 45 fc	 mov	 eax, DWORD PTR _this$[ebp]
  0001d	83 c4 04	 add	 esp, 4
  00020	3b ec		 cmp	 ebp, esp
  00022	e8 00 00 00 00	 call	 __RTC_CheckEsp
  00027	8b e5		 mov	 esp, ebp
  00029	5d		 pop	 ebp
  0002a	c2 04 00	 ret	 4
??0iterator@?$list@PAVIMessageObserver@@V?$allocator@PAVIMessageObserver@@@std@@@std@@QAE@PAU_Node@?$_List_nod@PAVIMessageObserver@@V?$allocator@PAVIMessageObserver@@@std@@@2@@Z ENDP ; std::list<IMessageObserver *,std::allocator<IMessageObserver *> >::iterator::iterator
_TEXT	ENDS
PUBLIC	??Econst_iterator@?$list@PAVIMessageObserver@@V?$allocator@PAVIMessageObserver@@@std@@@std@@QAEAAV012@XZ ; std::list<IMessageObserver *,std::allocator<IMessageObserver *> >::const_iterator::operator++
; Function compile flags: /Odt /RTCsu
;	COMDAT ??Eiterator@?$list@PAVIMessageObserver@@V?$allocator@PAVIMessageObserver@@@std@@@std@@QAEAAV012@XZ
_TEXT	SEGMENT
_this$ = -4						; size = 4
??Eiterator@?$list@PAVIMessageObserver@@V?$allocator@PAVIMessageObserver@@@std@@@std@@QAEAAV012@XZ PROC NEAR ; std::list<IMessageObserver *,std::allocator<IMessageObserver *> >::iterator::operator++, COMDAT
; _this$ = ecx

; 249  : 			{	// preincrement

  00000	55		 push	 ebp
  00001	8b ec		 mov	 ebp, esp
  00003	51		 push	 ecx
  00004	c7 45 fc cc cc
	cc cc		 mov	 DWORD PTR [ebp-4], -858993460 ; ccccccccH
  0000b	89 4d fc	 mov	 DWORD PTR _this$[ebp], ecx

; 250  : 			++(*(const_iterator *)this);

  0000e	8b 4d fc	 mov	 ecx, DWORD PTR _this$[ebp]
  00011	e8 00 00 00 00	 call	 ??Econst_iterator@?$list@PAVIMessageObserver@@V?$allocator@PAVIMessageObserver@@@std@@@std@@QAEAAV012@XZ ; std::list<IMessageObserver *,std::allocator<IMessageObserver *> >::const_iterator::operator++

; 251  : 			return (*this);

  00016	8b 45 fc	 mov	 eax, DWORD PTR _this$[ebp]

; 252  : 			}

  00019	83 c4 04	 add	 esp, 4
  0001c	3b ec		 cmp	 ebp, esp
  0001e	e8 00 00 00 00	 call	 __RTC_CheckEsp
  00023	8b e5		 mov	 esp, ebp
  00025	5d		 pop	 ebp
  00026	c3		 ret	 0
??Eiterator@?$list@PAVIMessageObserver@@V?$allocator@PAVIMessageObserver@@@std@@@std@@QAEAAV012@XZ ENDP ; std::list<IMessageObserver *,std::allocator<IMessageObserver *> >::iterator::operator++
_TEXT	ENDS
PUBLIC	?_Myval@?$list@PAVIMessageObserver@@V?$allocator@PAVIMessageObserver@@@std@@@std@@KAAAPAVIMessageObserver@@PAU_Node@?$_List_nod@PAVIMessageObserver@@V?$allocator@PAVIMessageObserver@@@std@@@2@@Z ; std::list<IMessageObserver *,std::allocator<IMessageObserver *> >::_Myval
; Function compile flags: /Odt /RTCsu
;	COMDAT ??Dconst_iterator@?$list@PAVIMessageObserver@@V?$allocator@PAVIMessageObserver@@@std@@@std@@QBEABQAVIMessageObserver@@XZ
_TEXT	SEGMENT
_this$ = -4						; size = 4
??Dconst_iterator@?$list@PAVIMessageObserver@@V?$allocator@PAVIMessageObserver@@@std@@@std@@QBEABQAVIMessageObserver@@XZ PROC NEAR ; std::list<IMessageObserver *,std::allocator<IMessageObserver *> >::const_iterator::operator*, COMDAT
; _this$ = ecx

; 160  : 			{	// return designated value

  00000	55		 push	 ebp
  00001	8b ec		 mov	 ebp, esp
  00003	51		 push	 ecx
  00004	c7 45 fc cc cc
	cc cc		 mov	 DWORD PTR [ebp-4], -858993460 ; ccccccccH
  0000b	89 4d fc	 mov	 DWORD PTR _this$[ebp], ecx

; 161  : 			return (_Myval(_Ptr));

  0000e	8b 45 fc	 mov	 eax, DWORD PTR _this$[ebp]
  00011	8b 08		 mov	 ecx, DWORD PTR [eax]
  00013	51		 push	 ecx
  00014	e8 00 00 00 00	 call	 ?_Myval@?$list@PAVIMessageObserver@@V?$allocator@PAVIMessageObserver@@@std@@@std@@KAAAPAVIMessageObserver@@PAU_Node@?$_List_nod@PAVIMessageObserver@@V?$allocator@PAVIMessageObserver@@@std@@@2@@Z ; std::list<IMessageObserver *,std::allocator<IMessageObserver *> >::_Myval
  00019	83 c4 04	 add	 esp, 4

; 162  : 			}

  0001c	83 c4 04	 add	 esp, 4
  0001f	3b ec		 cmp	 ebp, esp
  00021	e8 00 00 00 00	 call	 __RTC_CheckEsp
  00026	8b e5		 mov	 esp, ebp
  00028	5d		 pop	 ebp
  00029	c3		 ret	 0
??Dconst_iterator@?$list@PAVIMessageObserver@@V?$allocator@PAVIMessageObserver@@@std@@@std@@QBEABQAVIMessageObserver@@XZ ENDP ; std::list<IMessageObserver *,std::allocator<IMessageObserver *> >::const_iterator::operator*
; Function compile flags: /Odt /RTCsu
_TEXT	ENDS
;	COMDAT ??8const_iterator@?$list@PAVIMessageObserver@@V?$allocator@PAVIMessageObserver@@@std@@@std@@QBE_NABV012@@Z
_TEXT	SEGMENT
_this$ = -4						; size = 4
__Right$ = 8						; size = 4
??8const_iterator@?$list@PAVIMessageObserver@@V?$allocator@PAVIMessageObserver@@@std@@@std@@QBE_NABV012@@Z PROC NEAR ; std::list<IMessageObserver *,std::allocator<IMessageObserver *> >::const_iterator::operator==, COMDAT
; _this$ = ecx

; 196  : 			{	// test for iterator equality

  00000	55		 push	 ebp
  00001	8b ec		 mov	 ebp, esp
  00003	51		 push	 ecx
  00004	c7 45 fc cc cc
	cc cc		 mov	 DWORD PTR [ebp-4], -858993460 ; ccccccccH
  0000b	89 4d fc	 mov	 DWORD PTR _this$[ebp], ecx

; 197  : 			return (_Ptr == _Right._Ptr);

  0000e	8b 45 fc	 mov	 eax, DWORD PTR _this$[ebp]
  00011	8b 4d 08	 mov	 ecx, DWORD PTR __Right$[ebp]
  00014	8b 00		 mov	 eax, DWORD PTR [eax]
  00016	2b 01		 sub	 eax, DWORD PTR [ecx]
  00018	f7 d8		 neg	 eax
  0001a	1b c0		 sbb	 eax, eax
  0001c	40		 inc	 eax

; 198  : 			}

  0001d	8b e5		 mov	 esp, ebp
  0001f	5d		 pop	 ebp
  00020	c2 04 00	 ret	 4
??8const_iterator@?$list@PAVIMessageObserver@@V?$allocator@PAVIMessageObserver@@@std@@@std@@QBE_NABV012@@Z ENDP ; std::list<IMessageObserver *,std::allocator<IMessageObserver *> >::const_iterator::operator==
_TEXT	ENDS
PUBLIC	?max_size@?$allocator@UOneLocalGame@@@std@@QBEIXZ ; std::allocator<OneLocalGame>::max_size
; Function compile flags: /Odt /RTCsu
; File d:\program files (x86)\microsoft visual studio .net 2003\vc7\include\vector
;	COMDAT ?max_size@?$vector@UOneLocalGame@@V?$allocator@UOneLocalGame@@@std@@@std@@QBEIXZ
_TEXT	SEGMENT
_this$ = -4						; size = 4
?max_size@?$vector@UOneLocalGame@@V?$allocator@UOneLocalGame@@@std@@@std@@QBEIXZ PROC NEAR ; std::vector<OneLocalGame,std::allocator<OneLocalGame> >::max_size, COMDAT
; _this$ = ecx

; 520  : 		{	// return maximum possible length of sequence

  00000	55		 push	 ebp
  00001	8b ec		 mov	 ebp, esp
  00003	51		 push	 ecx
  00004	c7 45 fc cc cc
	cc cc		 mov	 DWORD PTR [ebp-4], -858993460 ; ccccccccH
  0000b	89 4d fc	 mov	 DWORD PTR _this$[ebp], ecx

; 521  : 		return (this->_Alval.max_size());

  0000e	8b 4d fc	 mov	 ecx, DWORD PTR _this$[ebp]
  00011	e8 00 00 00 00	 call	 ?max_size@?$allocator@UOneLocalGame@@@std@@QBEIXZ ; std::allocator<OneLocalGame>::max_size

; 522  : 		}

  00016	83 c4 04	 add	 esp, 4
  00019	3b ec		 cmp	 ebp, esp
  0001b	e8 00 00 00 00	 call	 __RTC_CheckEsp
  00020	8b e5		 mov	 esp, ebp
  00022	5d		 pop	 ebp
  00023	c3		 ret	 0
?max_size@?$vector@UOneLocalGame@@V?$allocator@UOneLocalGame@@@std@@@std@@QBEIXZ ENDP ; std::vector<OneLocalGame,std::allocator<OneLocalGame> >::max_size
_TEXT	ENDS
PUBLIC	??$_Ucopy@PAUOneLocalGame@@@?$vector@UOneLocalGame@@V?$allocator@UOneLocalGame@@@std@@@std@@IAEPAUOneLocalGame@@PAU2@00@Z ; std::vector<OneLocalGame,std::allocator<OneLocalGame> >::_Ucopy<OneLocalGame *>
PUBLIC	??$fill@PAUOneLocalGame@@U1@@std@@YAXPAUOneLocalGame@@0ABU1@@Z ; std::fill<OneLocalGame *,OneLocalGame>
PUBLIC	??$copy_backward@PAUOneLocalGame@@PAU1@@std@@YAPAUOneLocalGame@@PAU1@00@Z ; std::copy_backward<OneLocalGame *,OneLocalGame *>
PUBLIC	??0OneLocalGame@@QAE@ABU0@@Z			; OneLocalGame::OneLocalGame
;	COMDAT xdata$x
xdata$x	SEGMENT
$T192859 DD	0ffffffffH
	DD	FLAT:$L192851
	DD	00H
	DD	00H
	DD	00H
	DD	00H
	DD	00H
	DD	00H
	DD	00H
	DD	00H
$T192861 DD	00H
	DD	00H
	DD	00H
	DD	FLAT:$L192848
$T192862 DD	00H
	DD	00H
	DD	00H
	DD	FLAT:$L192850
$T192860 DD	01H
	DD	01H
	DD	02H
	DD	01H
	DD	FLAT:$T192861
	DD	03H
	DD	03H
	DD	04H
	DD	01H
	DD	FLAT:$T192862
$T192853 DD	019930520H
	DD	05H
	DD	FLAT:$T192859
	DD	02H
	DD	FLAT:$T192860
	DD	2 DUP(00H)
; Function compile flags: /Odt /RTCsu
xdata$x	ENDS
;	COMDAT ?_Insert_n@?$vector@UOneLocalGame@@V?$allocator@UOneLocalGame@@@std@@@std@@IAEXViterator@12@IABUOneLocalGame@@@Z
_TEXT	SEGMENT
tv244 = -204						; size = 4
tv65 = -200						; size = 4
tv89 = -196						; size = 4
__Oldend$190895 = -192					; size = 4
__Ptr$190875 = -188					; size = 4
__Newvec$190874 = -184					; size = 4
__Capacity$ = -180					; size = 4
__Tmp$ = -172						; size = 144
_this$ = -24						; size = 4
__$ArrayPad$ = -20					; size = 4
__$EHRec$ = -16						; size = 16
__$ReturnAddr$ = 4					; size = 4
__Where$ = 8						; size = 4
__Count$ = 12						; size = 4
__Val$ = 16						; size = 4
?_Insert_n@?$vector@UOneLocalGame@@V?$allocator@UOneLocalGame@@@std@@@std@@IAEXViterator@12@IABUOneLocalGame@@@Z PROC NEAR ; std::vector<OneLocalGame,std::allocator<OneLocalGame> >::_Insert_n, COMDAT
; _this$ = ecx

; 809  : 		{	// insert _Count * _Val at _Where

  00000	55		 push	 ebp
  00001	8b ec		 mov	 ebp, esp
  00003	6a ff		 push	 -1
  00005	68 00 00 00 00	 push	 __ehhandler$?_Insert_n@?$vector@UOneLocalGame@@V?$allocator@UOneLocalGame@@@std@@@std@@IAEXViterator@12@IABUOneLocalGame@@@Z
  0000a	64 a1 00 00 00
	00		 mov	 eax, DWORD PTR fs:__except_list
  00010	50		 push	 eax
  00011	64 89 25 00 00
	00 00		 mov	 DWORD PTR fs:__except_list, esp
  00018	51		 push	 ecx
  00019	81 ec bc 00 00
	00		 sub	 esp, 188		; 000000bcH
  0001f	53		 push	 ebx
  00020	56		 push	 esi
  00021	57		 push	 edi
  00022	51		 push	 ecx
  00023	8d bd 34 ff ff
	ff		 lea	 edi, DWORD PTR [ebp-204]
  00029	b9 2f 00 00 00	 mov	 ecx, 47			; 0000002fH
  0002e	b8 cc cc cc cc	 mov	 eax, -858993460		; ccccccccH
  00033	f3 ab		 rep stosd
  00035	59		 pop	 ecx
  00036	a1 00 00 00 00	 mov	 eax, DWORD PTR ___security_cookie
  0003b	89 45 ec	 mov	 DWORD PTR __$ArrayPad$[ebp], eax
  0003e	89 65 f0	 mov	 DWORD PTR __$EHRec$[ebp], esp
  00041	89 4d e8	 mov	 DWORD PTR _this$[ebp], ecx

; 810  : 		_Ty _Tmp = _Val;	// in case _Val is in sequence

  00044	8b 45 10	 mov	 eax, DWORD PTR __Val$[ebp]
  00047	50		 push	 eax
  00048	8d 8d 54 ff ff
	ff		 lea	 ecx, DWORD PTR __Tmp$[ebp]
  0004e	e8 00 00 00 00	 call	 ??0OneLocalGame@@QAE@ABU0@@Z
  00053	c7 45 fc 00 00
	00 00		 mov	 DWORD PTR __$EHRec$[ebp+12], 0

; 811  : 		size_type _Capacity = capacity();

  0005a	8b 4d e8	 mov	 ecx, DWORD PTR _this$[ebp]
  0005d	e8 00 00 00 00	 call	 ?capacity@?$vector@UOneLocalGame@@V?$allocator@UOneLocalGame@@@std@@@std@@QBEIXZ ; std::vector<OneLocalGame,std::allocator<OneLocalGame> >::capacity
  00062	89 85 4c ff ff
	ff		 mov	 DWORD PTR __Capacity$[ebp], eax

; 812  : 
; 813  : 		if (_Count == 0)

  00068	83 7d 0c 00	 cmp	 DWORD PTR __Count$[ebp], 0
  0006c	75 05		 jne	 SHORT $L190868

; 814  : 			;
; 815  : 		else if (max_size() - size() < _Count)

  0006e	e9 68 03 00 00	 jmp	 $L190869
$L190868:
  00073	8b 4d e8	 mov	 ecx, DWORD PTR _this$[ebp]
  00076	e8 00 00 00 00	 call	 ?size@?$vector@UOneLocalGame@@V?$allocator@UOneLocalGame@@@std@@@std@@QBEIXZ ; std::vector<OneLocalGame,std::allocator<OneLocalGame> >::size
  0007b	8b f0		 mov	 esi, eax
  0007d	8b 4d e8	 mov	 ecx, DWORD PTR _this$[ebp]
  00080	e8 00 00 00 00	 call	 ?max_size@?$vector@UOneLocalGame@@V?$allocator@UOneLocalGame@@@std@@@std@@QBEIXZ ; std::vector<OneLocalGame,std::allocator<OneLocalGame> >::max_size
  00085	2b c6		 sub	 eax, esi
  00087	3b 45 0c	 cmp	 eax, DWORD PTR __Count$[ebp]
  0008a	73 0d		 jae	 SHORT $L190870

; 816  : 			_Xlen();	// result too long

  0008c	8b 4d e8	 mov	 ecx, DWORD PTR _this$[ebp]
  0008f	e8 00 00 00 00	 call	 ?_Xlen@?$vector@UOneLocalGame@@V?$allocator@UOneLocalGame@@@std@@@std@@IBEXXZ ; std::vector<OneLocalGame,std::allocator<OneLocalGame> >::_Xlen

; 817  : 		else if (_Capacity < size() + _Count)

  00094	e9 42 03 00 00	 jmp	 $L190869
$L190870:
  00099	8b 4d e8	 mov	 ecx, DWORD PTR _this$[ebp]
  0009c	e8 00 00 00 00	 call	 ?size@?$vector@UOneLocalGame@@V?$allocator@UOneLocalGame@@@std@@@std@@QBEIXZ ; std::vector<OneLocalGame,std::allocator<OneLocalGame> >::size
  000a1	03 45 0c	 add	 eax, DWORD PTR __Count$[ebp]
  000a4	39 85 4c ff ff
	ff		 cmp	 DWORD PTR __Capacity$[ebp], eax
  000aa	0f 83 ce 01 00
	00		 jae	 $L190872

; 818  : 			{	// not enough room, reallocate
; 819  : 			_Capacity = max_size() - _Capacity / 2 < _Capacity
; 820  : 				? 0 : _Capacity + _Capacity / 2;	// try to grow by 50%

  000b0	8b b5 4c ff ff
	ff		 mov	 esi, DWORD PTR __Capacity$[ebp]
  000b6	d1 ee		 shr	 esi, 1
  000b8	8b 4d e8	 mov	 ecx, DWORD PTR _this$[ebp]
  000bb	e8 00 00 00 00	 call	 ?max_size@?$vector@UOneLocalGame@@V?$allocator@UOneLocalGame@@@std@@@std@@QBEIXZ ; std::vector<OneLocalGame,std::allocator<OneLocalGame> >::max_size
  000c0	2b c6		 sub	 eax, esi
  000c2	3b 85 4c ff ff
	ff		 cmp	 eax, DWORD PTR __Capacity$[ebp]
  000c8	73 0c		 jae	 SHORT $L192845
  000ca	c7 85 3c ff ff
	ff 00 00 00 00	 mov	 DWORD PTR tv89[ebp], 0
  000d4	eb 14		 jmp	 SHORT $L192846
$L192845:
  000d6	8b 8d 4c ff ff
	ff		 mov	 ecx, DWORD PTR __Capacity$[ebp]
  000dc	d1 e9		 shr	 ecx, 1
  000de	03 8d 4c ff ff
	ff		 add	 ecx, DWORD PTR __Capacity$[ebp]
  000e4	89 8d 3c ff ff
	ff		 mov	 DWORD PTR tv89[ebp], ecx
$L192846:
  000ea	8b 95 3c ff ff
	ff		 mov	 edx, DWORD PTR tv89[ebp]
  000f0	89 95 4c ff ff
	ff		 mov	 DWORD PTR __Capacity$[ebp], edx

; 821  : 			if (_Capacity < size() + _Count)

  000f6	8b 4d e8	 mov	 ecx, DWORD PTR _this$[ebp]
  000f9	e8 00 00 00 00	 call	 ?size@?$vector@UOneLocalGame@@V?$allocator@UOneLocalGame@@@std@@@std@@QBEIXZ ; std::vector<OneLocalGame,std::allocator<OneLocalGame> >::size
  000fe	03 45 0c	 add	 eax, DWORD PTR __Count$[ebp]
  00101	39 85 4c ff ff
	ff		 cmp	 DWORD PTR __Capacity$[ebp], eax
  00107	73 11		 jae	 SHORT $L190873

; 822  : 				_Capacity = size() + _Count;

  00109	8b 4d e8	 mov	 ecx, DWORD PTR _this$[ebp]
  0010c	e8 00 00 00 00	 call	 ?size@?$vector@UOneLocalGame@@V?$allocator@UOneLocalGame@@@std@@@std@@QBEIXZ ; std::vector<OneLocalGame,std::allocator<OneLocalGame> >::size
  00111	03 45 0c	 add	 eax, DWORD PTR __Count$[ebp]
  00114	89 85 4c ff ff
	ff		 mov	 DWORD PTR __Capacity$[ebp], eax
$L190873:

; 823  : 			pointer _Newvec = this->_Alval.allocate(_Capacity);

  0011a	8b 85 4c ff ff
	ff		 mov	 eax, DWORD PTR __Capacity$[ebp]
  00120	50		 push	 eax
  00121	8b 4d e8	 mov	 ecx, DWORD PTR _this$[ebp]
  00124	e8 00 00 00 00	 call	 ?allocate@?$allocator@UOneLocalGame@@@std@@QAEPAUOneLocalGame@@I@Z ; std::allocator<OneLocalGame>::allocate
  00129	89 85 48 ff ff
	ff		 mov	 DWORD PTR __Newvec$190874[ebp], eax

; 824  : 			pointer _Ptr = _Newvec;

  0012f	8b 8d 48 ff ff
	ff		 mov	 ecx, DWORD PTR __Newvec$190874[ebp]
  00135	89 8d 44 ff ff
	ff		 mov	 DWORD PTR __Ptr$190875[ebp], ecx

; 825  : 
; 826  : 			_TRY_BEGIN

  0013b	c6 45 fc 01	 mov	 BYTE PTR __$EHRec$[ebp+12], 1

; 827  : 			_Ptr = _Ucopy(_Myfirst, _ITER_BASE(_Where),
; 828  : 				_Newvec);	// copy prefix

  0013f	8b 95 48 ff ff
	ff		 mov	 edx, DWORD PTR __Newvec$190874[ebp]
  00145	52		 push	 edx
  00146	8b 45 08	 mov	 eax, DWORD PTR __Where$[ebp]
  00149	50		 push	 eax
  0014a	8b 4d e8	 mov	 ecx, DWORD PTR _this$[ebp]
  0014d	8b 51 04	 mov	 edx, DWORD PTR [ecx+4]
  00150	52		 push	 edx
  00151	8b 4d e8	 mov	 ecx, DWORD PTR _this$[ebp]
  00154	e8 00 00 00 00	 call	 ??$_Ucopy@PAUOneLocalGame@@@?$vector@UOneLocalGame@@V?$allocator@UOneLocalGame@@@std@@@std@@IAEPAUOneLocalGame@@PAU2@00@Z ; std::vector<OneLocalGame,std::allocator<OneLocalGame> >::_Ucopy<OneLocalGame *>
  00159	89 85 38 ff ff
	ff		 mov	 DWORD PTR tv65[ebp], eax
  0015f	8b 85 38 ff ff
	ff		 mov	 eax, DWORD PTR tv65[ebp]
  00165	89 85 44 ff ff
	ff		 mov	 DWORD PTR __Ptr$190875[ebp], eax

; 829  : 			_Ptr = _Ufill(_Ptr, _Count, _Tmp);	// add new stuff

  0016b	8d 8d 54 ff ff
	ff		 lea	 ecx, DWORD PTR __Tmp$[ebp]
  00171	51		 push	 ecx
  00172	8b 55 0c	 mov	 edx, DWORD PTR __Count$[ebp]
  00175	52		 push	 edx
  00176	8b 85 44 ff ff
	ff		 mov	 eax, DWORD PTR __Ptr$190875[ebp]
  0017c	50		 push	 eax
  0017d	8b 4d e8	 mov	 ecx, DWORD PTR _this$[ebp]
  00180	e8 00 00 00 00	 call	 ?_Ufill@?$vector@UOneLocalGame@@V?$allocator@UOneLocalGame@@@std@@@std@@IAEPAUOneLocalGame@@PAU3@IABU3@@Z ; std::vector<OneLocalGame,std::allocator<OneLocalGame> >::_Ufill
  00185	89 85 34 ff ff
	ff		 mov	 DWORD PTR tv244[ebp], eax
  0018b	8b 8d 34 ff ff
	ff		 mov	 ecx, DWORD PTR tv244[ebp]
  00191	89 8d 44 ff ff
	ff		 mov	 DWORD PTR __Ptr$190875[ebp], ecx

; 830  : 			_Ucopy(_ITER_BASE(_Where), _Mylast, _Ptr);	// copy suffix

  00197	8b 95 44 ff ff
	ff		 mov	 edx, DWORD PTR __Ptr$190875[ebp]
  0019d	52		 push	 edx
  0019e	8b 45 e8	 mov	 eax, DWORD PTR _this$[ebp]
  001a1	8b 48 08	 mov	 ecx, DWORD PTR [eax+8]
  001a4	51		 push	 ecx
  001a5	8b 55 08	 mov	 edx, DWORD PTR __Where$[ebp]
  001a8	52		 push	 edx
  001a9	8b 4d e8	 mov	 ecx, DWORD PTR _this$[ebp]
  001ac	e8 00 00 00 00	 call	 ??$_Ucopy@PAUOneLocalGame@@@?$vector@UOneLocalGame@@V?$allocator@UOneLocalGame@@@std@@@std@@IAEPAUOneLocalGame@@PAU2@00@Z ; std::vector<OneLocalGame,std::allocator<OneLocalGame> >::_Ucopy<OneLocalGame *>
  001b1	eb 35		 jmp	 SHORT $L192847
$L192848:

; 831  : 			_CATCH_ALL
; 832  : 			_Destroy(_Newvec, _Ptr);

  001b3	8b 85 44 ff ff
	ff		 mov	 eax, DWORD PTR __Ptr$190875[ebp]
  001b9	50		 push	 eax
  001ba	8b 8d 48 ff ff
	ff		 mov	 ecx, DWORD PTR __Newvec$190874[ebp]
  001c0	51		 push	 ecx
  001c1	8b 4d e8	 mov	 ecx, DWORD PTR _this$[ebp]
  001c4	e8 00 00 00 00	 call	 ?_Destroy@?$vector@UOneLocalGame@@V?$allocator@UOneLocalGame@@@std@@@std@@IAEXPAUOneLocalGame@@0@Z ; std::vector<OneLocalGame,std::allocator<OneLocalGame> >::_Destroy

; 833  : 			this->_Alval.deallocate(_Newvec, _Capacity);

  001c9	8b 95 4c ff ff
	ff		 mov	 edx, DWORD PTR __Capacity$[ebp]
  001cf	52		 push	 edx
  001d0	8b 85 48 ff ff
	ff		 mov	 eax, DWORD PTR __Newvec$190874[ebp]
  001d6	50		 push	 eax
  001d7	8b 4d e8	 mov	 ecx, DWORD PTR _this$[ebp]
  001da	e8 00 00 00 00	 call	 ?deallocate@?$allocator@UOneLocalGame@@@std@@QAEXPAUOneLocalGame@@I@Z ; std::allocator<OneLocalGame>::deallocate

; 834  : 			_RERAISE;

  001df	6a 00		 push	 0
  001e1	6a 00		 push	 0
  001e3	e8 00 00 00 00	 call	 __CxxThrowException@8
$L192847:

; 835  : 			_CATCH_END

  001e8	c7 45 fc 00 00
	00 00		 mov	 DWORD PTR __$EHRec$[ebp+12], 0

; 836  : 
; 837  : 			_Count += size();

  001ef	8b 4d e8	 mov	 ecx, DWORD PTR _this$[ebp]
  001f2	e8 00 00 00 00	 call	 ?size@?$vector@UOneLocalGame@@V?$allocator@UOneLocalGame@@@std@@@std@@QBEIXZ ; std::vector<OneLocalGame,std::allocator<OneLocalGame> >::size
  001f7	03 45 0c	 add	 eax, DWORD PTR __Count$[ebp]
  001fa	89 45 0c	 mov	 DWORD PTR __Count$[ebp], eax

; 838  : 			if (_Myfirst != 0)

  001fd	8b 4d e8	 mov	 ecx, DWORD PTR _this$[ebp]
  00200	83 79 04 00	 cmp	 DWORD PTR [ecx+4], 0
  00204	74 3a		 je	 SHORT $L190882

; 839  : 				{	// destroy and deallocate old array
; 840  : 				_Destroy(_Myfirst, _Mylast);

  00206	8b 55 e8	 mov	 edx, DWORD PTR _this$[ebp]
  00209	8b 42 08	 mov	 eax, DWORD PTR [edx+8]
  0020c	50		 push	 eax
  0020d	8b 4d e8	 mov	 ecx, DWORD PTR _this$[ebp]
  00210	8b 51 04	 mov	 edx, DWORD PTR [ecx+4]
  00213	52		 push	 edx
  00214	8b 4d e8	 mov	 ecx, DWORD PTR _this$[ebp]
  00217	e8 00 00 00 00	 call	 ?_Destroy@?$vector@UOneLocalGame@@V?$allocator@UOneLocalGame@@@std@@@std@@IAEXPAUOneLocalGame@@0@Z ; std::vector<OneLocalGame,std::allocator<OneLocalGame> >::_Destroy

; 841  : 				this->_Alval.deallocate(_Myfirst, _Myend - _Myfirst);

  0021c	8b 45 e8	 mov	 eax, DWORD PTR _this$[ebp]
  0021f	8b 4d e8	 mov	 ecx, DWORD PTR _this$[ebp]
  00222	8b 40 0c	 mov	 eax, DWORD PTR [eax+12]
  00225	2b 41 04	 sub	 eax, DWORD PTR [ecx+4]
  00228	99		 cdq
  00229	b9 90 00 00 00	 mov	 ecx, 144		; 00000090H
  0022e	f7 f9		 idiv	 ecx
  00230	50		 push	 eax
  00231	8b 55 e8	 mov	 edx, DWORD PTR _this$[ebp]
  00234	8b 42 04	 mov	 eax, DWORD PTR [edx+4]
  00237	50		 push	 eax
  00238	8b 4d e8	 mov	 ecx, DWORD PTR _this$[ebp]
  0023b	e8 00 00 00 00	 call	 ?deallocate@?$allocator@UOneLocalGame@@@std@@QAEXPAUOneLocalGame@@I@Z ; std::allocator<OneLocalGame>::deallocate
$L190882:

; 842  : 				}
; 843  : 			_Myend = _Newvec + _Capacity;

  00240	8b 8d 4c ff ff
	ff		 mov	 ecx, DWORD PTR __Capacity$[ebp]
  00246	69 c9 90 00 00
	00		 imul	 ecx, 144		; 00000090H
  0024c	03 8d 48 ff ff
	ff		 add	 ecx, DWORD PTR __Newvec$190874[ebp]
  00252	8b 55 e8	 mov	 edx, DWORD PTR _this$[ebp]
  00255	89 4a 0c	 mov	 DWORD PTR [edx+12], ecx

; 844  : 			_Mylast = _Newvec + _Count;

  00258	8b 45 0c	 mov	 eax, DWORD PTR __Count$[ebp]
  0025b	69 c0 90 00 00
	00		 imul	 eax, 144		; 00000090H
  00261	03 85 48 ff ff
	ff		 add	 eax, DWORD PTR __Newvec$190874[ebp]
  00267	8b 4d e8	 mov	 ecx, DWORD PTR _this$[ebp]
  0026a	89 41 08	 mov	 DWORD PTR [ecx+8], eax

; 845  : 			_Myfirst = _Newvec;

  0026d	8b 55 e8	 mov	 edx, DWORD PTR _this$[ebp]
  00270	8b 85 48 ff ff
	ff		 mov	 eax, DWORD PTR __Newvec$190874[ebp]
  00276	89 42 04	 mov	 DWORD PTR [edx+4], eax

; 846  : 			}
; 847  : 		else if ((size_type)(_Mylast - _ITER_BASE(_Where)) < _Count)

  00279	e9 5d 01 00 00	 jmp	 $L190869
$L190872:
  0027e	8b 4d e8	 mov	 ecx, DWORD PTR _this$[ebp]
  00281	8b 41 08	 mov	 eax, DWORD PTR [ecx+8]
  00284	2b 45 08	 sub	 eax, DWORD PTR __Where$[ebp]
  00287	99		 cdq
  00288	b9 90 00 00 00	 mov	 ecx, 144		; 00000090H
  0028d	f7 f9		 idiv	 ecx
  0028f	3b 45 0c	 cmp	 eax, DWORD PTR __Count$[ebp]
  00292	0f 83 c4 00 00
	00		 jae	 $L190885

; 848  : 			{	// new stuff spills off end
; 849  : 			_Ucopy(_ITER_BASE(_Where), _Mylast,
; 850  : 				_ITER_BASE(_Where) + _Count);	// copy suffix

  00298	8b 55 0c	 mov	 edx, DWORD PTR __Count$[ebp]
  0029b	69 d2 90 00 00
	00		 imul	 edx, 144		; 00000090H
  002a1	03 55 08	 add	 edx, DWORD PTR __Where$[ebp]
  002a4	52		 push	 edx
  002a5	8b 45 e8	 mov	 eax, DWORD PTR _this$[ebp]
  002a8	8b 48 08	 mov	 ecx, DWORD PTR [eax+8]
  002ab	51		 push	 ecx
  002ac	8b 55 08	 mov	 edx, DWORD PTR __Where$[ebp]
  002af	52		 push	 edx
  002b0	8b 4d e8	 mov	 ecx, DWORD PTR _this$[ebp]
  002b3	e8 00 00 00 00	 call	 ??$_Ucopy@PAUOneLocalGame@@@?$vector@UOneLocalGame@@V?$allocator@UOneLocalGame@@@std@@@std@@IAEPAUOneLocalGame@@PAU2@00@Z ; std::vector<OneLocalGame,std::allocator<OneLocalGame> >::_Ucopy<OneLocalGame *>

; 851  : 
; 852  : 			_TRY_BEGIN

  002b8	c6 45 fc 03	 mov	 BYTE PTR __$EHRec$[ebp+12], 3

; 853  : 			_Ufill(_Mylast, _Count - (_Mylast - _ITER_BASE(_Where)),
; 854  : 				_Tmp);	// insert new stuff off end

  002bc	8d 85 54 ff ff
	ff		 lea	 eax, DWORD PTR __Tmp$[ebp]
  002c2	50		 push	 eax
  002c3	8b 4d e8	 mov	 ecx, DWORD PTR _this$[ebp]
  002c6	8b 41 08	 mov	 eax, DWORD PTR [ecx+8]
  002c9	2b 45 08	 sub	 eax, DWORD PTR __Where$[ebp]
  002cc	99		 cdq
  002cd	b9 90 00 00 00	 mov	 ecx, 144		; 00000090H
  002d2	f7 f9		 idiv	 ecx
  002d4	8b 55 0c	 mov	 edx, DWORD PTR __Count$[ebp]
  002d7	2b d0		 sub	 edx, eax
  002d9	52		 push	 edx
  002da	8b 45 e8	 mov	 eax, DWORD PTR _this$[ebp]
  002dd	8b 48 08	 mov	 ecx, DWORD PTR [eax+8]
  002e0	51		 push	 ecx
  002e1	8b 4d e8	 mov	 ecx, DWORD PTR _this$[ebp]
  002e4	e8 00 00 00 00	 call	 ?_Ufill@?$vector@UOneLocalGame@@V?$allocator@UOneLocalGame@@@std@@@std@@IAEPAUOneLocalGame@@PAU3@IABU3@@Z ; std::vector<OneLocalGame,std::allocator<OneLocalGame> >::_Ufill
  002e9	eb 2e		 jmp	 SHORT $L192849
$L192850:

; 855  : 			_CATCH_ALL
; 856  : 			_Destroy(_ITER_BASE(_Where) + _Count, _Mylast + _Count);

  002eb	8b 55 0c	 mov	 edx, DWORD PTR __Count$[ebp]
  002ee	69 d2 90 00 00
	00		 imul	 edx, 144		; 00000090H
  002f4	8b 45 e8	 mov	 eax, DWORD PTR _this$[ebp]
  002f7	03 50 08	 add	 edx, DWORD PTR [eax+8]
  002fa	52		 push	 edx
  002fb	8b 4d 0c	 mov	 ecx, DWORD PTR __Count$[ebp]
  002fe	69 c9 90 00 00
	00		 imul	 ecx, 144		; 00000090H
  00304	03 4d 08	 add	 ecx, DWORD PTR __Where$[ebp]
  00307	51		 push	 ecx
  00308	8b 4d e8	 mov	 ecx, DWORD PTR _this$[ebp]
  0030b	e8 00 00 00 00	 call	 ?_Destroy@?$vector@UOneLocalGame@@V?$allocator@UOneLocalGame@@@std@@@std@@IAEXPAUOneLocalGame@@0@Z ; std::vector<OneLocalGame,std::allocator<OneLocalGame> >::_Destroy

; 857  : 			_RERAISE;

  00310	6a 00		 push	 0
  00312	6a 00		 push	 0
  00314	e8 00 00 00 00	 call	 __CxxThrowException@8
$L192849:

; 858  : 			_CATCH_END

  00319	c7 45 fc 00 00
	00 00		 mov	 DWORD PTR __$EHRec$[ebp+12], 0

; 859  : 
; 860  : 			_Mylast += _Count;

  00320	8b 55 0c	 mov	 edx, DWORD PTR __Count$[ebp]
  00323	69 d2 90 00 00
	00		 imul	 edx, 144		; 00000090H
  00329	8b 45 e8	 mov	 eax, DWORD PTR _this$[ebp]
  0032c	03 50 08	 add	 edx, DWORD PTR [eax+8]
  0032f	8b 4d e8	 mov	 ecx, DWORD PTR _this$[ebp]
  00332	89 51 08	 mov	 DWORD PTR [ecx+8], edx

; 861  : 			fill(_ITER_BASE(_Where), _Mylast - _Count,
; 862  : 				_Tmp);	// insert up to old end

  00335	8d 95 54 ff ff
	ff		 lea	 edx, DWORD PTR __Tmp$[ebp]
  0033b	52		 push	 edx
  0033c	8b 45 0c	 mov	 eax, DWORD PTR __Count$[ebp]
  0033f	69 c0 90 00 00
	00		 imul	 eax, 144		; 00000090H
  00345	8b 4d e8	 mov	 ecx, DWORD PTR _this$[ebp]
  00348	8b 51 08	 mov	 edx, DWORD PTR [ecx+8]
  0034b	2b d0		 sub	 edx, eax
  0034d	52		 push	 edx
  0034e	8b 45 08	 mov	 eax, DWORD PTR __Where$[ebp]
  00351	50		 push	 eax
  00352	e8 00 00 00 00	 call	 ??$fill@PAUOneLocalGame@@U1@@std@@YAXPAUOneLocalGame@@0ABU1@@Z ; std::fill<OneLocalGame *,OneLocalGame>
  00357	83 c4 0c	 add	 esp, 12			; 0000000cH

; 863  : 			}
; 864  : 		else

  0035a	eb 7f		 jmp	 SHORT $L190869
$L190885:

; 865  : 			{	// new stuff can all be assigned
; 866  : 			pointer _Oldend = _Mylast;

  0035c	8b 4d e8	 mov	 ecx, DWORD PTR _this$[ebp]
  0035f	8b 51 08	 mov	 edx, DWORD PTR [ecx+8]
  00362	89 95 40 ff ff
	ff		 mov	 DWORD PTR __Oldend$190895[ebp], edx

; 867  : 			_Mylast = _Ucopy(_Oldend - _Count, _Oldend,
; 868  : 				_Mylast);	// copy suffix

  00368	8b 45 e8	 mov	 eax, DWORD PTR _this$[ebp]
  0036b	8b 48 08	 mov	 ecx, DWORD PTR [eax+8]
  0036e	51		 push	 ecx
  0036f	8b 95 40 ff ff
	ff		 mov	 edx, DWORD PTR __Oldend$190895[ebp]
  00375	52		 push	 edx
  00376	8b 45 0c	 mov	 eax, DWORD PTR __Count$[ebp]
  00379	69 c0 90 00 00
	00		 imul	 eax, 144		; 00000090H
  0037f	8b 8d 40 ff ff
	ff		 mov	 ecx, DWORD PTR __Oldend$190895[ebp]
  00385	2b c8		 sub	 ecx, eax
  00387	51		 push	 ecx
  00388	8b 4d e8	 mov	 ecx, DWORD PTR _this$[ebp]
  0038b	e8 00 00 00 00	 call	 ??$_Ucopy@PAUOneLocalGame@@@?$vector@UOneLocalGame@@V?$allocator@UOneLocalGame@@@std@@@std@@IAEPAUOneLocalGame@@PAU2@00@Z ; std::vector<OneLocalGame,std::allocator<OneLocalGame> >::_Ucopy<OneLocalGame *>
  00390	8b 55 e8	 mov	 edx, DWORD PTR _this$[ebp]
  00393	89 42 08	 mov	 DWORD PTR [edx+8], eax

; 869  : 			copy_backward(_ITER_BASE(_Where), _Oldend - _Count,
; 870  : 				_Oldend);	// copy hole

  00396	8b 85 40 ff ff
	ff		 mov	 eax, DWORD PTR __Oldend$190895[ebp]
  0039c	50		 push	 eax
  0039d	8b 4d 0c	 mov	 ecx, DWORD PTR __Count$[ebp]
  003a0	69 c9 90 00 00
	00		 imul	 ecx, 144		; 00000090H
  003a6	8b 95 40 ff ff
	ff		 mov	 edx, DWORD PTR __Oldend$190895[ebp]
  003ac	2b d1		 sub	 edx, ecx
  003ae	52		 push	 edx
  003af	8b 45 08	 mov	 eax, DWORD PTR __Where$[ebp]
  003b2	50		 push	 eax
  003b3	e8 00 00 00 00	 call	 ??$copy_backward@PAUOneLocalGame@@PAU1@@std@@YAPAUOneLocalGame@@PAU1@00@Z ; std::copy_backward<OneLocalGame *,OneLocalGame *>
  003b8	83 c4 0c	 add	 esp, 12			; 0000000cH

; 871  : 			fill(_ITER_BASE(_Where), _ITER_BASE(_Where) + _Count,
; 872  : 				_Tmp);	// insert into hole

  003bb	8d 8d 54 ff ff
	ff		 lea	 ecx, DWORD PTR __Tmp$[ebp]
  003c1	51		 push	 ecx
  003c2	8b 55 0c	 mov	 edx, DWORD PTR __Count$[ebp]
  003c5	69 d2 90 00 00
	00		 imul	 edx, 144		; 00000090H
  003cb	03 55 08	 add	 edx, DWORD PTR __Where$[ebp]
  003ce	52		 push	 edx
  003cf	8b 45 08	 mov	 eax, DWORD PTR __Where$[ebp]
  003d2	50		 push	 eax
  003d3	e8 00 00 00 00	 call	 ??$fill@PAUOneLocalGame@@U1@@std@@YAXPAUOneLocalGame@@0ABU1@@Z ; std::fill<OneLocalGame *,OneLocalGame>
  003d8	83 c4 0c	 add	 esp, 12			; 0000000cH
$L190869:

; 873  : 			}
; 874  : 		}

  003db	c7 45 fc ff ff
	ff ff		 mov	 DWORD PTR __$EHRec$[ebp+12], -1
  003e2	8d 8d 54 ff ff
	ff		 lea	 ecx, DWORD PTR __Tmp$[ebp]
  003e8	e8 00 00 00 00	 call	 ??1OneLocalGame@@QAE@XZ
$L192844:
  003ed	52		 push	 edx
  003ee	8b cd		 mov	 ecx, ebp
  003f0	50		 push	 eax
  003f1	8d 15 00 00 00
	00		 lea	 edx, DWORD PTR $L192858
  003f7	e8 00 00 00 00	 call	 @_RTC_CheckStackVars@8
  003fc	58		 pop	 eax
  003fd	5a		 pop	 edx
  003fe	8b 4d f4	 mov	 ecx, DWORD PTR __$EHRec$[ebp+4]
  00401	64 89 0d 00 00
	00 00		 mov	 DWORD PTR fs:__except_list, ecx
  00408	8b 4d ec	 mov	 ecx, DWORD PTR __$ArrayPad$[ebp]
  0040b	e8 00 00 00 00	 call	 @__security_check_cookie@4
  00410	5f		 pop	 edi
  00411	5e		 pop	 esi
  00412	5b		 pop	 ebx
  00413	81 c4 cc 00 00
	00		 add	 esp, 204		; 000000ccH
  00419	3b ec		 cmp	 ebp, esp
  0041b	e8 00 00 00 00	 call	 __RTC_CheckEsp
  00420	8b e5		 mov	 esp, ebp
  00422	5d		 pop	 ebp
  00423	c2 0c 00	 ret	 12			; 0000000cH
$L192858:
  00426	01 00 00 00	 DD	 1
  0042a	00 00 00 00	 DD	 $L192857
$L192857:
  0042e	54 ff ff ff	 DD	 -172			; ffffff54H
  00432	90 00 00 00	 DD	 144			; 00000090H
  00436	00 00 00 00	 DD	 $L192854
$L192854:
  0043a	5f		 DB	 95			; 0000005fH
  0043b	54		 DB	 84			; 00000054H
  0043c	6d		 DB	 109			; 0000006dH
  0043d	70		 DB	 112			; 00000070H
  0043e	00		 DB	 0
_TEXT	ENDS
;	COMDAT text$x
text$x	SEGMENT
$L192851:
  00000	8d 8d 54 ff ff
	ff		 lea	 ecx, DWORD PTR __Tmp$[ebp]
  00006	e9 00 00 00 00	 jmp	 ??1OneLocalGame@@QAE@XZ
__ehhandler$?_Insert_n@?$vector@UOneLocalGame@@V?$allocator@UOneLocalGame@@@std@@@std@@IAEXViterator@12@IABUOneLocalGame@@@Z:
  0000b	b8 00 00 00 00	 mov	 eax, OFFSET FLAT:$T192853
  00010	e9 00 00 00 00	 jmp	 ___CxxFrameHandler
text$x	ENDS
?_Insert_n@?$vector@UOneLocalGame@@V?$allocator@UOneLocalGame@@@std@@@std@@IAEXViterator@12@IABUOneLocalGame@@@Z ENDP ; std::vector<OneLocalGame,std::allocator<OneLocalGame> >::_Insert_n
PUBLIC	??_R0?AVlogic_error@std@@@8			; std::logic_error `RTTI Type Descriptor'
PUBLIC	__CT??_R0?AVlogic_error@std@@@8??0logic_error@std@@QAE@ABV01@@Z40
PUBLIC	??_R0?AVexception@@@8				; exception `RTTI Type Descriptor'
PUBLIC	__CT??_R0?AVexception@@@8??0exception@@QAE@ABV0@@Z12
PUBLIC	??_R0?AVlength_error@std@@@8			; std::length_error `RTTI Type Descriptor'
PUBLIC	__TI3?AVlength_error@std@@
PUBLIC	__CTA3?AVlength_error@std@@
PUBLIC	__CT??_R0?AVlength_error@std@@@8??0length_error@std@@QAE@ABV01@@Z40
PUBLIC	??_C@_0BD@OLBABOEK@vector?$DMT?$DO?5too?5long?$AA@ ; `string'
PUBLIC	??0logic_error@std@@QAE@ABV01@@Z		; std::logic_error::logic_error
PUBLIC	??0length_error@std@@QAE@ABV?$basic_string@DU?$char_traits@D@std@@V?$allocator@D@2@@1@@Z ; std::length_error::length_error
PUBLIC	??1length_error@std@@UAE@XZ			; std::length_error::~length_error
PUBLIC	??0length_error@std@@QAE@ABV01@@Z		; std::length_error::length_error
EXTRN	??0exception@@QAE@ABV0@@Z:NEAR			; exception::exception
;	COMDAT xdata$x
xdata$x	SEGMENT
$T192872 DD	0ffffffffH
	DD	FLAT:$L192868
$T192870 DD	019930520H
	DD	01H
	DD	FLAT:$T192872
	DD	2 DUP(00H)
	DD	2 DUP(00H)
xdata$x	ENDS
;	COMDAT ??_C@_0BD@OLBABOEK@vector?$DMT?$DO?5too?5long?$AA@
CONST	SEGMENT
??_C@_0BD@OLBABOEK@vector?$DMT?$DO?5too?5long?$AA@ DB 'vector<T> too long'
	DB	00H						; `string'
CONST	ENDS
;	COMDAT __TI3?AVlength_error@std@@
xdata$x	SEGMENT
__TI3?AVlength_error@std@@ DD 00H
	DD	FLAT:??1length_error@std@@UAE@XZ
	DD	00H
	DD	FLAT:__CTA3?AVlength_error@std@@
xdata$x	ENDS
;	COMDAT __CTA3?AVlength_error@std@@
xdata$x	SEGMENT
__CTA3?AVlength_error@std@@ DD 03H
	DD	FLAT:__CT??_R0?AVlength_error@std@@@8??0length_error@std@@QAE@ABV01@@Z40
	DD	FLAT:__CT??_R0?AVlogic_error@std@@@8??0logic_error@std@@QAE@ABV01@@Z40
	DD	FLAT:__CT??_R0?AVexception@@@8??0exception@@QAE@ABV0@@Z12
xdata$x	ENDS
;	COMDAT __CT??_R0?AVlength_error@std@@@8??0length_error@std@@QAE@ABV01@@Z40
xdata$x	SEGMENT
__CT??_R0?AVlength_error@std@@@8??0length_error@std@@QAE@ABV01@@Z40 DD 00H
	DD	FLAT:??_R0?AVlength_error@std@@@8
	DD	00H
	DD	0ffffffffH
	ORG $+4
	DD	028H
	DD	FLAT:??0length_error@std@@QAE@ABV01@@Z
xdata$x	ENDS
;	COMDAT ??_R0?AVlength_error@std@@@8
_DATA	SEGMENT
??_R0?AVlength_error@std@@@8 DD FLAT:??_7type_info@@6B@	; std::length_error `RTTI Type Descriptor'
	DD	00H
	DB	'.?AVlength_error@std@@', 00H
	ORG $-31
	DD	FLAT:??_7type_info@@6B@
	DD	00H
	DB	'.?AVlength_error@std@@', 00H
_DATA	ENDS
;	COMDAT __CT??_R0?AVlogic_error@std@@@8??0logic_error@std@@QAE@ABV01@@Z40
xdata$x	SEGMENT
__CT??_R0?AVlogic_error@std@@@8??0logic_error@std@@QAE@ABV01@@Z40 DD 00H
	DD	FLAT:??_R0?AVlogic_error@std@@@8
	DD	00H
	DD	0ffffffffH
	ORG $+4
	DD	028H
	DD	FLAT:??0logic_error@std@@QAE@ABV01@@Z
xdata$x	ENDS
;	COMDAT ??_R0?AVlogic_error@std@@@8
_DATA	SEGMENT
??_R0?AVlogic_error@std@@@8 DD FLAT:??_7type_info@@6B@	; std::logic_error `RTTI Type Descriptor'
	DD	00H
	DB	'.?AVlogic_error@std@@', 00H
	ORG $-30
	DD	FLAT:??_7type_info@@6B@
	DD	00H
	DB	'.?AVlogic_error@std@@', 00H
_DATA	ENDS
;	COMDAT __CT??_R0?AVexception@@@8??0exception@@QAE@ABV0@@Z12
xdata$x	SEGMENT
__CT??_R0?AVexception@@@8??0exception@@QAE@ABV0@@Z12 DD 00H
	DD	FLAT:??_R0?AVexception@@@8
	DD	00H
	DD	0ffffffffH
	ORG $+4
	DD	0cH
	DD	FLAT:??0exception@@QAE@ABV0@@Z
xdata$x	ENDS
;	COMDAT ??_R0?AVexception@@@8
_DATA	SEGMENT
??_R0?AVexception@@@8 DD FLAT:??_7type_info@@6B@	; exception `RTTI Type Descriptor'
	DD	00H
	DB	'.?AVexception@@', 00H
	ORG $-24
	DD	FLAT:??_7type_info@@6B@
	DD	00H
	DB	'.?AVexception@@', 00H
; Function compile flags: /Odt /RTCsu
_DATA	ENDS
;	COMDAT ?_Xlen@?$vector@UOneLocalGame@@V?$allocator@UOneLocalGame@@@std@@@std@@IBEXXZ
_TEXT	SEGMENT
$T192867 = -84						; size = 28
$T192866 = -56						; size = 40
_this$ = -16						; size = 4
__$EHRec$ = -12						; size = 12
?_Xlen@?$vector@UOneLocalGame@@V?$allocator@UOneLocalGame@@@std@@@std@@IBEXXZ PROC NEAR ; std::vector<OneLocalGame,std::allocator<OneLocalGame> >::_Xlen, COMDAT
; _this$ = ecx

; 883  : 		{	// report a length_error

  00000	55		 push	 ebp
  00001	8b ec		 mov	 ebp, esp
  00003	6a ff		 push	 -1
  00005	68 00 00 00 00	 push	 __ehhandler$?_Xlen@?$vector@UOneLocalGame@@V?$allocator@UOneLocalGame@@@std@@@std@@IBEXXZ
  0000a	64 a1 00 00 00
	00		 mov	 eax, DWORD PTR fs:__except_list
  00010	50		 push	 eax
  00011	64 89 25 00 00
	00 00		 mov	 DWORD PTR fs:__except_list, esp
  00018	83 ec 48	 sub	 esp, 72			; 00000048H
  0001b	56		 push	 esi
  0001c	57		 push	 edi
  0001d	51		 push	 ecx
  0001e	8d 7d ac	 lea	 edi, DWORD PTR [ebp-84]
  00021	b9 12 00 00 00	 mov	 ecx, 18			; 00000012H
  00026	b8 cc cc cc cc	 mov	 eax, -858993460		; ccccccccH
  0002b	f3 ab		 rep stosd
  0002d	59		 pop	 ecx
  0002e	89 4d f0	 mov	 DWORD PTR _this$[ebp], ecx

; 884  : 		_THROW(length_error, "vector<T> too long");

  00031	8b f4		 mov	 esi, esp
  00033	68 00 00 00 00	 push	 OFFSET FLAT:??_C@_0BD@OLBABOEK@vector?$DMT?$DO?5too?5long?$AA@
  00038	8d 4d ac	 lea	 ecx, DWORD PTR $T192867[ebp]
  0003b	ff 15 00 00 00
	00		 call	 DWORD PTR __imp_??0?$basic_string@DU?$char_traits@D@std@@V?$allocator@D@2@@std@@QAE@PBD@Z
  00041	3b f4		 cmp	 esi, esp
  00043	e8 00 00 00 00	 call	 __RTC_CheckEsp
  00048	c7 45 fc 00 00
	00 00		 mov	 DWORD PTR __$EHRec$[ebp+8], 0
  0004f	8d 45 ac	 lea	 eax, DWORD PTR $T192867[ebp]
  00052	50		 push	 eax
  00053	8d 4d c8	 lea	 ecx, DWORD PTR $T192866[ebp]
  00056	e8 00 00 00 00	 call	 ??0length_error@std@@QAE@ABV?$basic_string@DU?$char_traits@D@std@@V?$allocator@D@2@@1@@Z ; std::length_error::length_error
  0005b	68 00 00 00 00	 push	 OFFSET FLAT:__TI3?AVlength_error@std@@
  00060	8d 4d c8	 lea	 ecx, DWORD PTR $T192866[ebp]
  00063	51		 push	 ecx
  00064	e8 00 00 00 00	 call	 __CxxThrowException@8
$L192865:

; 885  : 		}

  00069	8b 4d f4	 mov	 ecx, DWORD PTR __$EHRec$[ebp]
  0006c	64 89 0d 00 00
	00 00		 mov	 DWORD PTR fs:__except_list, ecx
  00073	5f		 pop	 edi
  00074	5e		 pop	 esi
  00075	83 c4 54	 add	 esp, 84			; 00000054H
  00078	3b ec		 cmp	 ebp, esp
  0007a	e8 00 00 00 00	 call	 __RTC_CheckEsp
  0007f	8b e5		 mov	 esp, ebp
  00081	5d		 pop	 ebp
  00082	c3		 ret	 0
_TEXT	ENDS
;	COMDAT text$x
text$x	SEGMENT
$L192868:
  00000	8b f4		 mov	 esi, esp
  00002	8d 4d ac	 lea	 ecx, DWORD PTR $T192867[ebp]
  00005	ff 15 00 00 00
	00		 call	 DWORD PTR __imp_??1?$basic_string@DU?$char_traits@D@std@@V?$allocator@D@2@@std@@QAE@XZ
  0000b	3b f4		 cmp	 esi, esp
  0000d	e9 00 00 00 00	 jmp	 __RTC_CheckEsp
__ehhandler$?_Xlen@?$vector@UOneLocalGame@@V?$allocator@UOneLocalGame@@@std@@@std@@IBEXXZ:
  00012	b8 00 00 00 00	 mov	 eax, OFFSET FLAT:$T192870
  00017	e9 00 00 00 00	 jmp	 ___CxxFrameHandler
text$x	ENDS
?_Xlen@?$vector@UOneLocalGame@@V?$allocator@UOneLocalGame@@@std@@@std@@IBEXXZ ENDP ; std::vector<OneLocalGame,std::allocator<OneLocalGame> >::_Xlen
; Function compile flags: /Odt /RTCsu
; File d:\program files (x86)\microsoft visual studio .net 2003\vc7\include\xmemory
;	COMDAT ??0?$allocator@UOneLocalGame@@@std@@QAE@ABV01@@Z
_TEXT	SEGMENT
_this$ = -4						; size = 4
___formal$ = 8						; size = 4
??0?$allocator@UOneLocalGame@@@std@@QAE@ABV01@@Z PROC NEAR ; std::allocator<OneLocalGame>::allocator<OneLocalGame>, COMDAT
; _this$ = ecx

; 115  : 	allocator(const allocator<_Ty>&)

  00000	55		 push	 ebp
  00001	8b ec		 mov	 ebp, esp
  00003	51		 push	 ecx
  00004	c7 45 fc cc cc
	cc cc		 mov	 DWORD PTR [ebp-4], -858993460 ; ccccccccH
  0000b	89 4d fc	 mov	 DWORD PTR _this$[ebp], ecx

; 116  : 		{	// construct by copying (do nothing)
; 117  : 		}

  0000e	8b 45 fc	 mov	 eax, DWORD PTR _this$[ebp]
  00011	8b e5		 mov	 esp, ebp
  00013	5d		 pop	 ebp
  00014	c2 04 00	 ret	 4
??0?$allocator@UOneLocalGame@@@std@@QAE@ABV01@@Z ENDP	; std::allocator<OneLocalGame>::allocator<OneLocalGame>
; Function compile flags: /Odt /RTCsu
_TEXT	ENDS
;	COMDAT ?deallocate@?$allocator@UOneLocalGame@@@std@@QAEXPAUOneLocalGame@@I@Z
_TEXT	SEGMENT
_this$ = -4						; size = 4
__Ptr$ = 8						; size = 4
___formal$ = 12						; size = 4
?deallocate@?$allocator@UOneLocalGame@@@std@@QAEXPAUOneLocalGame@@I@Z PROC NEAR ; std::allocator<OneLocalGame>::deallocate, COMDAT
; _this$ = ecx

; 131  : 		{	// deallocate object at _Ptr, ignore size

  00000	55		 push	 ebp
  00001	8b ec		 mov	 ebp, esp
  00003	51		 push	 ecx
  00004	c7 45 fc cc cc
	cc cc		 mov	 DWORD PTR [ebp-4], -858993460 ; ccccccccH
  0000b	89 4d fc	 mov	 DWORD PTR _this$[ebp], ecx

; 132  : 		operator delete(_Ptr);

  0000e	8b 45 08	 mov	 eax, DWORD PTR __Ptr$[ebp]
  00011	50		 push	 eax
  00012	e8 00 00 00 00	 call	 ??3@YAXPAX@Z		; operator delete
  00017	83 c4 04	 add	 esp, 4

; 133  : 		}

  0001a	83 c4 04	 add	 esp, 4
  0001d	3b ec		 cmp	 ebp, esp
  0001f	e8 00 00 00 00	 call	 __RTC_CheckEsp
  00024	8b e5		 mov	 esp, ebp
  00026	5d		 pop	 ebp
  00027	c2 08 00	 ret	 8
?deallocate@?$allocator@UOneLocalGame@@@std@@QAEXPAUOneLocalGame@@I@Z ENDP ; std::allocator<OneLocalGame>::deallocate
_TEXT	ENDS
PUBLIC	??$_Allocate@UOneLocalGame@@@std@@YAPAUOneLocalGame@@IPAU1@@Z ; std::_Allocate<OneLocalGame>
; Function compile flags: /Odt /RTCsu
;	COMDAT ?allocate@?$allocator@UOneLocalGame@@@std@@QAEPAUOneLocalGame@@I@Z
_TEXT	SEGMENT
_this$ = -4						; size = 4
__Count$ = 8						; size = 4
?allocate@?$allocator@UOneLocalGame@@@std@@QAEPAUOneLocalGame@@I@Z PROC NEAR ; std::allocator<OneLocalGame>::allocate, COMDAT
; _this$ = ecx

; 136  : 		{	// allocate array of _Count elements

  00000	55		 push	 ebp
  00001	8b ec		 mov	 ebp, esp
  00003	51		 push	 ecx
  00004	c7 45 fc cc cc
	cc cc		 mov	 DWORD PTR [ebp-4], -858993460 ; ccccccccH
  0000b	89 4d fc	 mov	 DWORD PTR _this$[ebp], ecx

; 137  : 		return (_Allocate(_Count, (pointer)0));

  0000e	6a 00		 push	 0
  00010	8b 45 08	 mov	 eax, DWORD PTR __Count$[ebp]
  00013	50		 push	 eax
  00014	e8 00 00 00 00	 call	 ??$_Allocate@UOneLocalGame@@@std@@YAPAUOneLocalGame@@IPAU1@@Z ; std::_Allocate<OneLocalGame>
  00019	83 c4 08	 add	 esp, 8

; 138  : 		}

  0001c	83 c4 04	 add	 esp, 4
  0001f	3b ec		 cmp	 ebp, esp
  00021	e8 00 00 00 00	 call	 __RTC_CheckEsp
  00026	8b e5		 mov	 esp, ebp
  00028	5d		 pop	 ebp
  00029	c2 04 00	 ret	 4
?allocate@?$allocator@UOneLocalGame@@@std@@QAEPAUOneLocalGame@@I@Z ENDP ; std::allocator<OneLocalGame>::allocate
_TEXT	ENDS
PUBLIC	??Yiterator@?$vector@UOneLocalGame@@V?$allocator@UOneLocalGame@@@std@@@std@@QAEAAV012@H@Z ; std::vector<OneLocalGame,std::allocator<OneLocalGame> >::iterator::operator+=
; Function compile flags: /Odt /RTCsu
; File d:\program files (x86)\microsoft visual studio .net 2003\vc7\include\vector
;	COMDAT ??Hiterator@?$vector@UOneLocalGame@@V?$allocator@UOneLocalGame@@@std@@@std@@QBE?AV012@H@Z
_TEXT	SEGMENT
__Tmp$ = -12						; size = 4
_this$ = -4						; size = 4
___$ReturnUdt$ = 8					; size = 4
__Off$ = 12						; size = 4
??Hiterator@?$vector@UOneLocalGame@@V?$allocator@UOneLocalGame@@@std@@@std@@QBE?AV012@H@Z PROC NEAR ; std::vector<OneLocalGame,std::allocator<OneLocalGame> >::iterator::operator+, COMDAT
; _this$ = ecx

; 261  : 			{	// return this + integer

  00000	55		 push	 ebp
  00001	8b ec		 mov	 ebp, esp
  00003	83 ec 10	 sub	 esp, 16			; 00000010H
  00006	b8 cc cc cc cc	 mov	 eax, -858993460		; ccccccccH
  0000b	89 45 f0	 mov	 DWORD PTR [ebp-16], eax
  0000e	89 45 f4	 mov	 DWORD PTR [ebp-12], eax
  00011	89 45 f8	 mov	 DWORD PTR [ebp-8], eax
  00014	89 45 fc	 mov	 DWORD PTR [ebp-4], eax
  00017	89 4d fc	 mov	 DWORD PTR _this$[ebp], ecx

; 262  : 			iterator _Tmp = *this;

  0001a	8b 45 fc	 mov	 eax, DWORD PTR _this$[ebp]
  0001d	8b 08		 mov	 ecx, DWORD PTR [eax]
  0001f	89 4d f4	 mov	 DWORD PTR __Tmp$[ebp], ecx

; 263  : 			return (_Tmp += _Off);

  00022	8b 55 0c	 mov	 edx, DWORD PTR __Off$[ebp]
  00025	52		 push	 edx
  00026	8d 4d f4	 lea	 ecx, DWORD PTR __Tmp$[ebp]
  00029	e8 00 00 00 00	 call	 ??Yiterator@?$vector@UOneLocalGame@@V?$allocator@UOneLocalGame@@@std@@@std@@QAEAAV012@H@Z ; std::vector<OneLocalGame,std::allocator<OneLocalGame> >::iterator::operator+=
  0002e	8b 00		 mov	 eax, DWORD PTR [eax]
  00030	8b 4d 08	 mov	 ecx, DWORD PTR ___$ReturnUdt$[ebp]
  00033	89 01		 mov	 DWORD PTR [ecx], eax
  00035	8b 45 08	 mov	 eax, DWORD PTR ___$ReturnUdt$[ebp]

; 264  : 			}

  00038	52		 push	 edx
  00039	8b cd		 mov	 ecx, ebp
  0003b	50		 push	 eax
  0003c	8d 15 00 00 00
	00		 lea	 edx, DWORD PTR $L192881
  00042	e8 00 00 00 00	 call	 @_RTC_CheckStackVars@8
  00047	58		 pop	 eax
  00048	5a		 pop	 edx
  00049	83 c4 10	 add	 esp, 16			; 00000010H
  0004c	3b ec		 cmp	 ebp, esp
  0004e	e8 00 00 00 00	 call	 __RTC_CheckEsp
  00053	8b e5		 mov	 esp, ebp
  00055	5d		 pop	 ebp
  00056	c2 08 00	 ret	 8
$L192881:
  00059	01 00 00 00	 DD	 1
  0005d	00 00 00 00	 DD	 $L192880
$L192880:
  00061	f4 ff ff ff	 DD	 -12			; fffffff4H
  00065	04 00 00 00	 DD	 4
  00069	00 00 00 00	 DD	 $L192879
$L192879:
  0006d	5f		 DB	 95			; 0000005fH
  0006e	54		 DB	 84			; 00000054H
  0006f	6d		 DB	 109			; 0000006dH
  00070	70		 DB	 112			; 00000070H
  00071	00		 DB	 0
??Hiterator@?$vector@UOneLocalGame@@V?$allocator@UOneLocalGame@@@std@@@std@@QBE?AV012@H@Z ENDP ; std::vector<OneLocalGame,std::allocator<OneLocalGame> >::iterator::operator+
_TEXT	ENDS
PUBLIC	??Gconst_iterator@?$vector@UOneLocalGame@@V?$allocator@UOneLocalGame@@@std@@@std@@QBEHABV012@@Z ; std::vector<OneLocalGame,std::allocator<OneLocalGame> >::const_iterator::operator-
; Function compile flags: /Odt /RTCsu
;	COMDAT ??Giterator@?$vector@UOneLocalGame@@V?$allocator@UOneLocalGame@@@std@@@std@@QBEHABVconst_iterator@12@@Z
_TEXT	SEGMENT
$T192883 = -8						; size = 4
_this$ = -4						; size = 4
__Right$ = 8						; size = 4
??Giterator@?$vector@UOneLocalGame@@V?$allocator@UOneLocalGame@@@std@@@std@@QBEHABVconst_iterator@12@@Z PROC NEAR ; std::vector<OneLocalGame,std::allocator<OneLocalGame> >::iterator::operator-, COMDAT
; _this$ = ecx

; 278  : 			{	// return difference of iterators

  00000	55		 push	 ebp
  00001	8b ec		 mov	 ebp, esp
  00003	83 ec 08	 sub	 esp, 8
  00006	c7 45 f8 cc cc
	cc cc		 mov	 DWORD PTR [ebp-8], -858993460 ; ccccccccH
  0000d	c7 45 fc cc cc
	cc cc		 mov	 DWORD PTR [ebp-4], -858993460 ; ccccccccH
  00014	89 4d fc	 mov	 DWORD PTR _this$[ebp], ecx

; 279  : 			return ((const_iterator)*this - _Right);

  00017	8b 45 fc	 mov	 eax, DWORD PTR _this$[ebp]
  0001a	8b 08		 mov	 ecx, DWORD PTR [eax]
  0001c	89 4d f8	 mov	 DWORD PTR $T192883[ebp], ecx
  0001f	8b 55 08	 mov	 edx, DWORD PTR __Right$[ebp]
  00022	52		 push	 edx
  00023	8d 4d f8	 lea	 ecx, DWORD PTR $T192883[ebp]
  00026	e8 00 00 00 00	 call	 ??Gconst_iterator@?$vector@UOneLocalGame@@V?$allocator@UOneLocalGame@@@std@@@std@@QBEHABV012@@Z ; std::vector<OneLocalGame,std::allocator<OneLocalGame> >::const_iterator::operator-

; 280  : 			}

  0002b	83 c4 08	 add	 esp, 8
  0002e	3b ec		 cmp	 ebp, esp
  00030	e8 00 00 00 00	 call	 __RTC_CheckEsp
  00035	8b e5		 mov	 esp, ebp
  00037	5d		 pop	 ebp
  00038	c2 04 00	 ret	 4
??Giterator@?$vector@UOneLocalGame@@V?$allocator@UOneLocalGame@@@std@@@std@@QBEHABVconst_iterator@12@@Z ENDP ; std::vector<OneLocalGame,std::allocator<OneLocalGame> >::iterator::operator-
; Function compile flags: /Odt /RTCsu
_TEXT	ENDS
;	COMDAT ??0const_iterator@?$vector@UOneLocalGame@@V?$allocator@UOneLocalGame@@@std@@@std@@QAE@PAUOneLocalGame@@@Z
_TEXT	SEGMENT
_this$ = -4						; size = 4
__Ptr$ = 8						; size = 4
??0const_iterator@?$vector@UOneLocalGame@@V?$allocator@UOneLocalGame@@@std@@@std@@QAE@PAUOneLocalGame@@@Z PROC NEAR ; std::vector<OneLocalGame,std::allocator<OneLocalGame> >::const_iterator::const_iterator, COMDAT
; _this$ = ecx

; 73   : 		const_iterator(_Tptr _Ptr)

  00000	55		 push	 ebp
  00001	8b ec		 mov	 ebp, esp
  00003	51		 push	 ecx
  00004	c7 45 fc cc cc
	cc cc		 mov	 DWORD PTR [ebp-4], -858993460 ; ccccccccH
  0000b	89 4d fc	 mov	 DWORD PTR _this$[ebp], ecx

; 74   : 			{	// construct with pointer _Ptr
; 75   : 			_Myptr = _Ptr;

  0000e	8b 45 fc	 mov	 eax, DWORD PTR _this$[ebp]
  00011	8b 4d 08	 mov	 ecx, DWORD PTR __Ptr$[ebp]
  00014	89 08		 mov	 DWORD PTR [eax], ecx

; 76   : 			}

  00016	8b 45 fc	 mov	 eax, DWORD PTR _this$[ebp]
  00019	8b e5		 mov	 esp, ebp
  0001b	5d		 pop	 ebp
  0001c	c2 04 00	 ret	 4
??0const_iterator@?$vector@UOneLocalGame@@V?$allocator@UOneLocalGame@@@std@@@std@@QAE@PAUOneLocalGame@@@Z ENDP ; std::vector<OneLocalGame,std::allocator<OneLocalGame> >::const_iterator::const_iterator
; Function compile flags: /Odt /RTCsu
; File d:\program files (x86)\microsoft visual studio .net 2003\vc7\include\list
_TEXT	ENDS
;	COMDAT ?_Prevnode@?$list@PAVIMessageObserver@@V?$allocator@PAVIMessageObserver@@@std@@@std@@KAAAPAU_Node@?$_List_nod@PAVIMessageObserver@@V?$allocator@PAVIMessageObserver@@@std@@@2@PAU342@@Z
_TEXT	SEGMENT
__Pnode$ = 8						; size = 4
?_Prevnode@?$list@PAVIMessageObserver@@V?$allocator@PAVIMessageObserver@@@std@@@std@@KAAAPAU_Node@?$_List_nod@PAVIMessageObserver@@V?$allocator@PAVIMessageObserver@@@std@@@2@PAU342@@Z PROC NEAR ; std::list<IMessageObserver *,std::allocator<IMessageObserver *> >::_Prevnode, COMDAT

; 112  : 		{	// return reference to predecessor pointer in node

  00000	55		 push	 ebp
  00001	8b ec		 mov	 ebp, esp

; 113  : 		return ((_Nodepref)(*_Pnode)._Prev);

  00003	8b 45 08	 mov	 eax, DWORD PTR __Pnode$[ebp]
  00006	83 c0 04	 add	 eax, 4

; 114  : 		}

  00009	5d		 pop	 ebp
  0000a	c3		 ret	 0
?_Prevnode@?$list@PAVIMessageObserver@@V?$allocator@PAVIMessageObserver@@@std@@@std@@KAAAPAU_Node@?$_List_nod@PAVIMessageObserver@@V?$allocator@PAVIMessageObserver@@@std@@@2@PAU342@@Z ENDP ; std::list<IMessageObserver *,std::allocator<IMessageObserver *> >::_Prevnode
; Function compile flags: /Odt /RTCsu
_TEXT	ENDS
;	COMDAT ?_Myval@?$list@PAVIMessageObserver@@V?$allocator@PAVIMessageObserver@@@std@@@std@@KAAAPAVIMessageObserver@@PAU_Node@?$_List_nod@PAVIMessageObserver@@V?$allocator@PAVIMessageObserver@@@std@@@2@@Z
_TEXT	SEGMENT
__Pnode$ = 8						; size = 4
?_Myval@?$list@PAVIMessageObserver@@V?$allocator@PAVIMessageObserver@@@std@@@std@@KAAAPAVIMessageObserver@@PAU_Node@?$_List_nod@PAVIMessageObserver@@V?$allocator@PAVIMessageObserver@@@std@@@2@@Z PROC NEAR ; std::list<IMessageObserver *,std::allocator<IMessageObserver *> >::_Myval, COMDAT

; 117  : 		{	// return reference to value in node

  00000	55		 push	 ebp
  00001	8b ec		 mov	 ebp, esp

; 118  : 		return ((_Vref)(*_Pnode)._Myval);

  00003	8b 45 08	 mov	 eax, DWORD PTR __Pnode$[ebp]
  00006	83 c0 08	 add	 eax, 8

; 119  : 		}

  00009	5d		 pop	 ebp
  0000a	c3		 ret	 0
?_Myval@?$list@PAVIMessageObserver@@V?$allocator@PAVIMessageObserver@@@std@@@std@@KAAAPAVIMessageObserver@@PAU_Node@?$_List_nod@PAVIMessageObserver@@V?$allocator@PAVIMessageObserver@@@std@@@2@@Z ENDP ; std::list<IMessageObserver *,std::allocator<IMessageObserver *> >::_Myval
_TEXT	ENDS
PUBLIC	?destroy@?$allocator@U_Node@?$_List_nod@PAVIMessageObserver@@V?$allocator@PAVIMessageObserver@@@std@@@std@@@std@@QAEXPAU_Node@?$_List_nod@PAVIMessageObserver@@V?$allocator@PAVIMessageObserver@@@std@@@2@@Z ; std::allocator<std::_List_nod<IMessageObserver *,std::allocator<IMessageObserver *> >::_Node>::destroy
; Function compile flags: /Odt /RTCsu
;	COMDAT ?clear@?$list@PAVIMessageObserver@@V?$allocator@PAVIMessageObserver@@@std@@@std@@QAEXXZ
_TEXT	SEGMENT
__Pnode$ = -12						; size = 4
__Pnext$ = -8						; size = 4
_this$ = -4						; size = 4
?clear@?$list@PAVIMessageObserver@@V?$allocator@PAVIMessageObserver@@@std@@@std@@QAEXXZ PROC NEAR ; std::list<IMessageObserver *,std::allocator<IMessageObserver *> >::clear, COMDAT
; _this$ = ecx

; 610  : 		{	// erase all

  00000	55		 push	 ebp
  00001	8b ec		 mov	 ebp, esp
  00003	83 ec 0c	 sub	 esp, 12			; 0000000cH
  00006	c7 45 f4 cc cc
	cc cc		 mov	 DWORD PTR [ebp-12], -858993460 ; ccccccccH
  0000d	c7 45 f8 cc cc
	cc cc		 mov	 DWORD PTR [ebp-8], -858993460 ; ccccccccH
  00014	c7 45 fc cc cc
	cc cc		 mov	 DWORD PTR [ebp-4], -858993460 ; ccccccccH
  0001b	89 4d fc	 mov	 DWORD PTR _this$[ebp], ecx

; 611  : 		_Nodeptr _Pnext;
; 612  : 		_Nodeptr _Pnode = _Nextnode(_Myhead);

  0001e	8b 45 fc	 mov	 eax, DWORD PTR _this$[ebp]
  00021	8b 48 04	 mov	 ecx, DWORD PTR [eax+4]
  00024	51		 push	 ecx
  00025	e8 00 00 00 00	 call	 ?_Nextnode@?$list@PAVIMessageObserver@@V?$allocator@PAVIMessageObserver@@@std@@@std@@KAAAPAU_Node@?$_List_nod@PAVIMessageObserver@@V?$allocator@PAVIMessageObserver@@@std@@@2@PAU342@@Z ; std::list<IMessageObserver *,std::allocator<IMessageObserver *> >::_Nextnode
  0002a	83 c4 04	 add	 esp, 4
  0002d	8b 10		 mov	 edx, DWORD PTR [eax]
  0002f	89 55 f4	 mov	 DWORD PTR __Pnode$[ebp], edx

; 613  : 		_Nextnode(_Myhead) = _Myhead;

  00032	8b 45 fc	 mov	 eax, DWORD PTR _this$[ebp]
  00035	8b 48 04	 mov	 ecx, DWORD PTR [eax+4]
  00038	51		 push	 ecx
  00039	e8 00 00 00 00	 call	 ?_Nextnode@?$list@PAVIMessageObserver@@V?$allocator@PAVIMessageObserver@@@std@@@std@@KAAAPAU_Node@?$_List_nod@PAVIMessageObserver@@V?$allocator@PAVIMessageObserver@@@std@@@2@PAU342@@Z ; std::list<IMessageObserver *,std::allocator<IMessageObserver *> >::_Nextnode
  0003e	83 c4 04	 add	 esp, 4
  00041	8b 55 fc	 mov	 edx, DWORD PTR _this$[ebp]
  00044	8b 4a 04	 mov	 ecx, DWORD PTR [edx+4]
  00047	89 08		 mov	 DWORD PTR [eax], ecx

; 614  : 		_Prevnode(_Myhead) = _Myhead;

  00049	8b 55 fc	 mov	 edx, DWORD PTR _this$[ebp]
  0004c	8b 42 04	 mov	 eax, DWORD PTR [edx+4]
  0004f	50		 push	 eax
  00050	e8 00 00 00 00	 call	 ?_Prevnode@?$list@PAVIMessageObserver@@V?$allocator@PAVIMessageObserver@@@std@@@std@@KAAAPAU_Node@?$_List_nod@PAVIMessageObserver@@V?$allocator@PAVIMessageObserver@@@std@@@2@PAU342@@Z ; std::list<IMessageObserver *,std::allocator<IMessageObserver *> >::_Prevnode
  00055	83 c4 04	 add	 esp, 4
  00058	8b 4d fc	 mov	 ecx, DWORD PTR _this$[ebp]
  0005b	8b 51 04	 mov	 edx, DWORD PTR [ecx+4]
  0005e	89 10		 mov	 DWORD PTR [eax], edx

; 615  : 		_Mysize = 0;

  00060	8b 45 fc	 mov	 eax, DWORD PTR _this$[ebp]
  00063	c7 40 08 00 00
	00 00		 mov	 DWORD PTR [eax+8], 0

; 616  : 
; 617  : 		for (; _Pnode != _Myhead; _Pnode = _Pnext)

  0006a	eb 06		 jmp	 SHORT $L190942
$L190943:
  0006c	8b 4d f8	 mov	 ecx, DWORD PTR __Pnext$[ebp]
  0006f	89 4d f4	 mov	 DWORD PTR __Pnode$[ebp], ecx
$L190942:
  00072	8b 55 fc	 mov	 edx, DWORD PTR _this$[ebp]
  00075	8b 45 f4	 mov	 eax, DWORD PTR __Pnode$[ebp]
  00078	3b 42 04	 cmp	 eax, DWORD PTR [edx+4]
  0007b	74 2d		 je	 SHORT $L190939

; 618  : 			{	// delete an element
; 619  : 			_Pnext = _Nextnode(_Pnode);

  0007d	8b 4d f4	 mov	 ecx, DWORD PTR __Pnode$[ebp]
  00080	51		 push	 ecx
  00081	e8 00 00 00 00	 call	 ?_Nextnode@?$list@PAVIMessageObserver@@V?$allocator@PAVIMessageObserver@@@std@@@std@@KAAAPAU_Node@?$_List_nod@PAVIMessageObserver@@V?$allocator@PAVIMessageObserver@@@std@@@2@PAU342@@Z ; std::list<IMessageObserver *,std::allocator<IMessageObserver *> >::_Nextnode
  00086	83 c4 04	 add	 esp, 4
  00089	8b 10		 mov	 edx, DWORD PTR [eax]
  0008b	89 55 f8	 mov	 DWORD PTR __Pnext$[ebp], edx

; 620  : 			this->_Alnod.destroy(_Pnode);

  0008e	8b 45 f4	 mov	 eax, DWORD PTR __Pnode$[ebp]
  00091	50		 push	 eax
  00092	8b 4d fc	 mov	 ecx, DWORD PTR _this$[ebp]
  00095	e8 00 00 00 00	 call	 ?destroy@?$allocator@U_Node@?$_List_nod@PAVIMessageObserver@@V?$allocator@PAVIMessageObserver@@@std@@@std@@@std@@QAEXPAU_Node@?$_List_nod@PAVIMessageObserver@@V?$allocator@PAVIMessageObserver@@@std@@@2@@Z ; std::allocator<std::_List_nod<IMessageObserver *,std::allocator<IMessageObserver *> >::_Node>::destroy

; 621  : 			this->_Alnod.deallocate(_Pnode, 1);

  0009a	6a 01		 push	 1
  0009c	8b 4d f4	 mov	 ecx, DWORD PTR __Pnode$[ebp]
  0009f	51		 push	 ecx
  000a0	8b 4d fc	 mov	 ecx, DWORD PTR _this$[ebp]
  000a3	e8 00 00 00 00	 call	 ?deallocate@?$allocator@U_Node@?$_List_nod@PAVIMessageObserver@@V?$allocator@PAVIMessageObserver@@@std@@@std@@@std@@QAEXPAU_Node@?$_List_nod@PAVIMessageObserver@@V?$allocator@PAVIMessageObserver@@@std@@@2@I@Z ; std::allocator<std::_List_nod<IMessageObserver *,std::allocator<IMessageObserver *> >::_Node>::deallocate

; 622  : 			}

  000a8	eb c2		 jmp	 SHORT $L190943
$L190939:

; 623  : 		}

  000aa	83 c4 0c	 add	 esp, 12			; 0000000cH
  000ad	3b ec		 cmp	 ebp, esp
  000af	e8 00 00 00 00	 call	 __RTC_CheckEsp
  000b4	8b e5		 mov	 esp, ebp
  000b6	5d		 pop	 ebp
  000b7	c3		 ret	 0
?clear@?$list@PAVIMessageObserver@@V?$allocator@PAVIMessageObserver@@@std@@@std@@QAEXXZ ENDP ; std::list<IMessageObserver *,std::allocator<IMessageObserver *> >::clear
_TEXT	ENDS
PUBLIC	??$?0PAVIMessageObserver@@@?$allocator@PAU_Node@?$_List_nod@PAVIMessageObserver@@V?$allocator@PAVIMessageObserver@@@std@@@std@@@std@@QAE@ABV?$allocator@PAVIMessageObserver@@@1@@Z ; std::allocator<std::_List_nod<IMessageObserver *,std::allocator<IMessageObserver *> >::_Node *>::allocator<std::_List_nod<IMessageObserver *,std::allocator<IMessageObserver *> >::_Node *><IMessageObserver *>
PUBLIC	??0?$_List_nod@PAVIMessageObserver@@V?$allocator@PAVIMessageObserver@@@std@@@std@@IAE@V?$allocator@PAVIMessageObserver@@@1@@Z ; std::_List_nod<IMessageObserver *,std::allocator<IMessageObserver *> >::_List_nod<IMessageObserver *,std::allocator<IMessageObserver *> >
; Function compile flags: /Odt /RTCsu
;	COMDAT ??0?$_List_ptr@PAVIMessageObserver@@V?$allocator@PAVIMessageObserver@@@std@@@std@@IAE@V?$allocator@PAVIMessageObserver@@@1@@Z
_TEXT	SEGMENT
_this$ = -4						; size = 4
__Al$ = 8						; size = 1
??0?$_List_ptr@PAVIMessageObserver@@V?$allocator@PAVIMessageObserver@@@std@@@std@@IAE@V?$allocator@PAVIMessageObserver@@@1@@Z PROC NEAR ; std::_List_ptr<IMessageObserver *,std::allocator<IMessageObserver *> >::_List_ptr<IMessageObserver *,std::allocator<IMessageObserver *> >, COMDAT
; _this$ = ecx

; 64   : 		{	// construct base, and allocator from _Al

  00000	55		 push	 ebp
  00001	8b ec		 mov	 ebp, esp
  00003	83 ec 08	 sub	 esp, 8
  00006	c7 45 f8 cc cc
	cc cc		 mov	 DWORD PTR [ebp-8], -858993460 ; ccccccccH
  0000d	c7 45 fc cc cc
	cc cc		 mov	 DWORD PTR [ebp-4], -858993460 ; ccccccccH
  00014	89 4d fc	 mov	 DWORD PTR _this$[ebp], ecx
  00017	51		 push	 ecx
  00018	8b cc		 mov	 ecx, esp
  0001a	8d 45 08	 lea	 eax, DWORD PTR __Al$[ebp]
  0001d	50		 push	 eax
  0001e	e8 00 00 00 00	 call	 ??0?$allocator@PAVIMessageObserver@@@std@@QAE@ABV01@@Z ; std::allocator<IMessageObserver *>::allocator<IMessageObserver *>
  00023	8b 4d fc	 mov	 ecx, DWORD PTR _this$[ebp]
  00026	e8 00 00 00 00	 call	 ??0?$_List_nod@PAVIMessageObserver@@V?$allocator@PAVIMessageObserver@@@std@@@std@@IAE@V?$allocator@PAVIMessageObserver@@@1@@Z ; std::_List_nod<IMessageObserver *,std::allocator<IMessageObserver *> >::_List_nod<IMessageObserver *,std::allocator<IMessageObserver *> >
  0002b	8d 4d 08	 lea	 ecx, DWORD PTR __Al$[ebp]
  0002e	51		 push	 ecx
  0002f	8b 4d fc	 mov	 ecx, DWORD PTR _this$[ebp]
  00032	83 c1 01	 add	 ecx, 1
  00035	e8 00 00 00 00	 call	 ??$?0PAVIMessageObserver@@@?$allocator@PAU_Node@?$_List_nod@PAVIMessageObserver@@V?$allocator@PAVIMessageObserver@@@std@@@std@@@std@@QAE@ABV?$allocator@PAVIMessageObserver@@@1@@Z ; std::allocator<std::_List_nod<IMessageObserver *,std::allocator<IMessageObserver *> >::_Node *>::allocator<std::_List_nod<IMessageObserver *,std::allocator<IMessageObserver *> >::_Node *><IMessageObserver *>

; 65   : 		}

  0003a	8b 45 fc	 mov	 eax, DWORD PTR _this$[ebp]
  0003d	83 c4 08	 add	 esp, 8
  00040	3b ec		 cmp	 ebp, esp
  00042	e8 00 00 00 00	 call	 __RTC_CheckEsp
  00047	8b e5		 mov	 esp, ebp
  00049	5d		 pop	 ebp
  0004a	c2 04 00	 ret	 4
??0?$_List_ptr@PAVIMessageObserver@@V?$allocator@PAVIMessageObserver@@@std@@@std@@IAE@V?$allocator@PAVIMessageObserver@@@1@@Z ENDP ; std::_List_ptr<IMessageObserver *,std::allocator<IMessageObserver *> >::_List_ptr<IMessageObserver *,std::allocator<IMessageObserver *> >
; Function compile flags: /Odt /RTCsu
; File d:\program files (x86)\microsoft visual studio .net 2003\vc7\include\xmemory
_TEXT	ENDS
;	COMDAT ??0?$allocator@PAVIMessageObserver@@@std@@QAE@ABV01@@Z
_TEXT	SEGMENT
_this$ = -4						; size = 4
___formal$ = 8						; size = 4
??0?$allocator@PAVIMessageObserver@@@std@@QAE@ABV01@@Z PROC NEAR ; std::allocator<IMessageObserver *>::allocator<IMessageObserver *>, COMDAT
; _this$ = ecx

; 115  : 	allocator(const allocator<_Ty>&)

  00000	55		 push	 ebp
  00001	8b ec		 mov	 ebp, esp
  00003	51		 push	 ecx
  00004	c7 45 fc cc cc
	cc cc		 mov	 DWORD PTR [ebp-4], -858993460 ; ccccccccH
  0000b	89 4d fc	 mov	 DWORD PTR _this$[ebp], ecx

; 116  : 		{	// construct by copying (do nothing)
; 117  : 		}

  0000e	8b 45 fc	 mov	 eax, DWORD PTR _this$[ebp]
  00011	8b e5		 mov	 esp, ebp
  00013	5d		 pop	 ebp
  00014	c2 04 00	 ret	 4
??0?$allocator@PAVIMessageObserver@@@std@@QAE@ABV01@@Z ENDP ; std::allocator<IMessageObserver *>::allocator<IMessageObserver *>
; Function compile flags: /Odt /RTCsu
_TEXT	ENDS
;	COMDAT ?deallocate@?$allocator@U_Node@?$_List_nod@PAVIMessageObserver@@V?$allocator@PAVIMessageObserver@@@std@@@std@@@std@@QAEXPAU_Node@?$_List_nod@PAVIMessageObserver@@V?$allocator@PAVIMessageObserver@@@std@@@2@I@Z
_TEXT	SEGMENT
_this$ = -4						; size = 4
__Ptr$ = 8						; size = 4
___formal$ = 12						; size = 4
?deallocate@?$allocator@U_Node@?$_List_nod@PAVIMessageObserver@@V?$allocator@PAVIMessageObserver@@@std@@@std@@@std@@QAEXPAU_Node@?$_List_nod@PAVIMessageObserver@@V?$allocator@PAVIMessageObserver@@@std@@@2@I@Z PROC NEAR ; std::allocator<std::_List_nod<IMessageObserver *,std::allocator<IMessageObserver *> >::_Node>::deallocate, COMDAT
; _this$ = ecx

; 131  : 		{	// deallocate object at _Ptr, ignore size

  00000	55		 push	 ebp
  00001	8b ec		 mov	 ebp, esp
  00003	51		 push	 ecx
  00004	c7 45 fc cc cc
	cc cc		 mov	 DWORD PTR [ebp-4], -858993460 ; ccccccccH
  0000b	89 4d fc	 mov	 DWORD PTR _this$[ebp], ecx

; 132  : 		operator delete(_Ptr);

  0000e	8b 45 08	 mov	 eax, DWORD PTR __Ptr$[ebp]
  00011	50		 push	 eax
  00012	e8 00 00 00 00	 call	 ??3@YAXPAX@Z		; operator delete
  00017	83 c4 04	 add	 esp, 4

; 133  : 		}

  0001a	83 c4 04	 add	 esp, 4
  0001d	3b ec		 cmp	 ebp, esp
  0001f	e8 00 00 00 00	 call	 __RTC_CheckEsp
  00024	8b e5		 mov	 esp, ebp
  00026	5d		 pop	 ebp
  00027	c2 08 00	 ret	 8
?deallocate@?$allocator@U_Node@?$_List_nod@PAVIMessageObserver@@V?$allocator@PAVIMessageObserver@@@std@@@std@@@std@@QAEXPAU_Node@?$_List_nod@PAVIMessageObserver@@V?$allocator@PAVIMessageObserver@@@std@@@2@I@Z ENDP ; std::allocator<std::_List_nod<IMessageObserver *,std::allocator<IMessageObserver *> >::_Node>::deallocate
_TEXT	ENDS
PUBLIC	??$_Allocate@U_Node@?$_List_nod@PAVIMessageObserver@@V?$allocator@PAVIMessageObserver@@@std@@@std@@@std@@YAPAU_Node@?$_List_nod@PAVIMessageObserver@@V?$allocator@PAVIMessageObserver@@@std@@@0@IPAU120@@Z ; std::_Allocate<std::_List_nod<IMessageObserver *,std::allocator<IMessageObserver *> >::_Node>
; Function compile flags: /Odt /RTCsu
;	COMDAT ?allocate@?$allocator@U_Node@?$_List_nod@PAVIMessageObserver@@V?$allocator@PAVIMessageObserver@@@std@@@std@@@std@@QAEPAU_Node@?$_List_nod@PAVIMessageObserver@@V?$allocator@PAVIMessageObserver@@@std@@@2@I@Z
_TEXT	SEGMENT
_this$ = -4						; size = 4
__Count$ = 8						; size = 4
?allocate@?$allocator@U_Node@?$_List_nod@PAVIMessageObserver@@V?$allocator@PAVIMessageObserver@@@std@@@std@@@std@@QAEPAU_Node@?$_List_nod@PAVIMessageObserver@@V?$allocator@PAVIMessageObserver@@@std@@@2@I@Z PROC NEAR ; std::allocator<std::_List_nod<IMessageObserver *,std::allocator<IMessageObserver *> >::_Node>::allocate, COMDAT
; _this$ = ecx

; 136  : 		{	// allocate array of _Count elements

  00000	55		 push	 ebp
  00001	8b ec		 mov	 ebp, esp
  00003	51		 push	 ecx
  00004	c7 45 fc cc cc
	cc cc		 mov	 DWORD PTR [ebp-4], -858993460 ; ccccccccH
  0000b	89 4d fc	 mov	 DWORD PTR _this$[ebp], ecx

; 137  : 		return (_Allocate(_Count, (pointer)0));

  0000e	6a 00		 push	 0
  00010	8b 45 08	 mov	 eax, DWORD PTR __Count$[ebp]
  00013	50		 push	 eax
  00014	e8 00 00 00 00	 call	 ??$_Allocate@U_Node@?$_List_nod@PAVIMessageObserver@@V?$allocator@PAVIMessageObserver@@@std@@@std@@@std@@YAPAU_Node@?$_List_nod@PAVIMessageObserver@@V?$allocator@PAVIMessageObserver@@@std@@@0@IPAU120@@Z ; std::_Allocate<std::_List_nod<IMessageObserver *,std::allocator<IMessageObserver *> >::_Node>
  00019	83 c4 08	 add	 esp, 8

; 138  : 		}

  0001c	83 c4 04	 add	 esp, 4
  0001f	3b ec		 cmp	 ebp, esp
  00021	e8 00 00 00 00	 call	 __RTC_CheckEsp
  00026	8b e5		 mov	 esp, ebp
  00028	5d		 pop	 ebp
  00029	c2 04 00	 ret	 4
?allocate@?$allocator@U_Node@?$_List_nod@PAVIMessageObserver@@V?$allocator@PAVIMessageObserver@@@std@@@std@@@std@@QAEPAU_Node@?$_List_nod@PAVIMessageObserver@@V?$allocator@PAVIMessageObserver@@@std@@@2@I@Z ENDP ; std::allocator<std::_List_nod<IMessageObserver *,std::allocator<IMessageObserver *> >::_Node>::allocate
_TEXT	ENDS
PUBLIC	??$_Construct@PAU_Node@?$_List_nod@PAVIMessageObserver@@V?$allocator@PAVIMessageObserver@@@std@@@std@@PAU123@@std@@YAXPAPAU_Node@?$_List_nod@PAVIMessageObserver@@V?$allocator@PAVIMessageObserver@@@std@@@0@ABQAU120@@Z ; std::_Construct<std::_List_nod<IMessageObserver *,std::allocator<IMessageObserver *> >::_Node *,std::_List_nod<IMessageObserver *,std::allocator<IMessageObserver *> >::_Node *>
; Function compile flags: /Odt /RTCsu
;	COMDAT ?construct@?$allocator@PAU_Node@?$_List_nod@PAVIMessageObserver@@V?$allocator@PAVIMessageObserver@@@std@@@std@@@std@@QAEXPAPAU_Node@?$_List_nod@PAVIMessageObserver@@V?$allocator@PAVIMessageObserver@@@std@@@2@ABQAU342@@Z
_TEXT	SEGMENT
_this$ = -4						; size = 4
__Ptr$ = 8						; size = 4
__Val$ = 12						; size = 4
?construct@?$allocator@PAU_Node@?$_List_nod@PAVIMessageObserver@@V?$allocator@PAVIMessageObserver@@@std@@@std@@@std@@QAEXPAPAU_Node@?$_List_nod@PAVIMessageObserver@@V?$allocator@PAVIMessageObserver@@@std@@@2@ABQAU342@@Z PROC NEAR ; std::allocator<std::_List_nod<IMessageObserver *,std::allocator<IMessageObserver *> >::_Node *>::construct, COMDAT
; _this$ = ecx

; 146  : 		{	// construct object at _Ptr with value _Val

  00000	55		 push	 ebp
  00001	8b ec		 mov	 ebp, esp
  00003	51		 push	 ecx
  00004	c7 45 fc cc cc
	cc cc		 mov	 DWORD PTR [ebp-4], -858993460 ; ccccccccH
  0000b	89 4d fc	 mov	 DWORD PTR _this$[ebp], ecx

; 147  : 		_Construct(_Ptr, _Val);

  0000e	8b 45 0c	 mov	 eax, DWORD PTR __Val$[ebp]
  00011	50		 push	 eax
  00012	8b 4d 08	 mov	 ecx, DWORD PTR __Ptr$[ebp]
  00015	51		 push	 ecx
  00016	e8 00 00 00 00	 call	 ??$_Construct@PAU_Node@?$_List_nod@PAVIMessageObserver@@V?$allocator@PAVIMessageObserver@@@std@@@std@@PAU123@@std@@YAXPAPAU_Node@?$_List_nod@PAVIMessageObserver@@V?$allocator@PAVIMessageObserver@@@std@@@0@ABQAU120@@Z ; std::_Construct<std::_List_nod<IMessageObserver *,std::allocator<IMessageObserver *> >::_Node *,std::_List_nod<IMessageObserver *,std::allocator<IMessageObserver *> >::_Node *>
  0001b	83 c4 08	 add	 esp, 8

; 148  : 		}

  0001e	83 c4 04	 add	 esp, 4
  00021	3b ec		 cmp	 ebp, esp
  00023	e8 00 00 00 00	 call	 __RTC_CheckEsp
  00028	8b e5		 mov	 esp, ebp
  0002a	5d		 pop	 ebp
  0002b	c2 08 00	 ret	 8
?construct@?$allocator@PAU_Node@?$_List_nod@PAVIMessageObserver@@V?$allocator@PAVIMessageObserver@@@std@@@std@@@std@@QAEXPAPAU_Node@?$_List_nod@PAVIMessageObserver@@V?$allocator@PAVIMessageObserver@@@std@@@2@ABQAU342@@Z ENDP ; std::allocator<std::_List_nod<IMessageObserver *,std::allocator<IMessageObserver *> >::_Node *>::construct
_TEXT	ENDS
PUBLIC	??$_Destroy@PAU_Node@?$_List_nod@PAVIMessageObserver@@V?$allocator@PAVIMessageObserver@@@std@@@std@@@std@@YAXPAPAU_Node@?$_List_nod@PAVIMessageObserver@@V?$allocator@PAVIMessageObserver@@@std@@@0@@Z ; std::_Destroy<std::_List_nod<IMessageObserver *,std::allocator<IMessageObserver *> >::_Node *>
; Function compile flags: /Odt /RTCsu
;	COMDAT ?destroy@?$allocator@PAU_Node@?$_List_nod@PAVIMessageObserver@@V?$allocator@PAVIMessageObserver@@@std@@@std@@@std@@QAEXPAPAU_Node@?$_List_nod@PAVIMessageObserver@@V?$allocator@PAVIMessageObserver@@@std@@@2@@Z
_TEXT	SEGMENT
_this$ = -4						; size = 4
__Ptr$ = 8						; size = 4
?destroy@?$allocator@PAU_Node@?$_List_nod@PAVIMessageObserver@@V?$allocator@PAVIMessageObserver@@@std@@@std@@@std@@QAEXPAPAU_Node@?$_List_nod@PAVIMessageObserver@@V?$allocator@PAVIMessageObserver@@@std@@@2@@Z PROC NEAR ; std::allocator<std::_List_nod<IMessageObserver *,std::allocator<IMessageObserver *> >::_Node *>::destroy, COMDAT
; _this$ = ecx

; 151  : 		{	// destroy object at _Ptr

  00000	55		 push	 ebp
  00001	8b ec		 mov	 ebp, esp
  00003	51		 push	 ecx
  00004	c7 45 fc cc cc
	cc cc		 mov	 DWORD PTR [ebp-4], -858993460 ; ccccccccH
  0000b	89 4d fc	 mov	 DWORD PTR _this$[ebp], ecx

; 152  : 		_Destroy(_Ptr);

  0000e	8b 45 08	 mov	 eax, DWORD PTR __Ptr$[ebp]
  00011	50		 push	 eax
  00012	e8 00 00 00 00	 call	 ??$_Destroy@PAU_Node@?$_List_nod@PAVIMessageObserver@@V?$allocator@PAVIMessageObserver@@@std@@@std@@@std@@YAXPAPAU_Node@?$_List_nod@PAVIMessageObserver@@V?$allocator@PAVIMessageObserver@@@std@@@0@@Z ; std::_Destroy<std::_List_nod<IMessageObserver *,std::allocator<IMessageObserver *> >::_Node *>
  00017	83 c4 04	 add	 esp, 4

; 153  : 		}

  0001a	83 c4 04	 add	 esp, 4
  0001d	3b ec		 cmp	 ebp, esp
  0001f	e8 00 00 00 00	 call	 __RTC_CheckEsp
  00024	8b e5		 mov	 esp, ebp
  00026	5d		 pop	 ebp
  00027	c2 04 00	 ret	 4
?destroy@?$allocator@PAU_Node@?$_List_nod@PAVIMessageObserver@@V?$allocator@PAVIMessageObserver@@@std@@@std@@@std@@QAEXPAPAU_Node@?$_List_nod@PAVIMessageObserver@@V?$allocator@PAVIMessageObserver@@@std@@@2@@Z ENDP ; std::allocator<std::_List_nod<IMessageObserver *,std::allocator<IMessageObserver *> >::_Node *>::destroy
; Function compile flags: /Odt /RTCsu
; File d:\program files (x86)\microsoft visual studio .net 2003\vc7\include\list
_TEXT	ENDS
;	COMDAT ??0const_iterator@?$list@PAVIMessageObserver@@V?$allocator@PAVIMessageObserver@@@std@@@std@@QAE@PAU_Node@?$_List_nod@PAVIMessageObserver@@V?$allocator@PAVIMessageObserver@@@std@@@2@@Z
_TEXT	SEGMENT
_this$ = -4						; size = 4
__Pnode$ = 8						; size = 4
??0const_iterator@?$list@PAVIMessageObserver@@V?$allocator@PAVIMessageObserver@@@std@@@std@@QAE@PAU_Node@?$_List_nod@PAVIMessageObserver@@V?$allocator@PAVIMessageObserver@@@std@@@2@@Z PROC NEAR ; std::list<IMessageObserver *,std::allocator<IMessageObserver *> >::const_iterator::const_iterator, COMDAT
; _this$ = ecx

; 156  : 			{	// construct with node pointer _Pnode

  00000	55		 push	 ebp
  00001	8b ec		 mov	 ebp, esp
  00003	51		 push	 ecx
  00004	c7 45 fc cc cc
	cc cc		 mov	 DWORD PTR [ebp-4], -858993460 ; ccccccccH
  0000b	89 4d fc	 mov	 DWORD PTR _this$[ebp], ecx
  0000e	8b 45 fc	 mov	 eax, DWORD PTR _this$[ebp]
  00011	8b 4d 08	 mov	 ecx, DWORD PTR __Pnode$[ebp]
  00014	89 08		 mov	 DWORD PTR [eax], ecx

; 157  : 			}

  00016	8b 45 fc	 mov	 eax, DWORD PTR _this$[ebp]
  00019	8b e5		 mov	 esp, ebp
  0001b	5d		 pop	 ebp
  0001c	c2 04 00	 ret	 4
??0const_iterator@?$list@PAVIMessageObserver@@V?$allocator@PAVIMessageObserver@@@std@@@std@@QAE@PAU_Node@?$_List_nod@PAVIMessageObserver@@V?$allocator@PAVIMessageObserver@@@std@@@2@@Z ENDP ; std::list<IMessageObserver *,std::allocator<IMessageObserver *> >::const_iterator::const_iterator
; Function compile flags: /Odt /RTCsu
_TEXT	ENDS
;	COMDAT ??Econst_iterator@?$list@PAVIMessageObserver@@V?$allocator@PAVIMessageObserver@@@std@@@std@@QAEAAV012@XZ
_TEXT	SEGMENT
_this$ = -4						; size = 4
??Econst_iterator@?$list@PAVIMessageObserver@@V?$allocator@PAVIMessageObserver@@@std@@@std@@QAEAAV012@XZ PROC NEAR ; std::list<IMessageObserver *,std::allocator<IMessageObserver *> >::const_iterator::operator++, COMDAT
; _this$ = ecx

; 170  : 			{	// preincrement

  00000	55		 push	 ebp
  00001	8b ec		 mov	 ebp, esp
  00003	51		 push	 ecx
  00004	c7 45 fc cc cc
	cc cc		 mov	 DWORD PTR [ebp-4], -858993460 ; ccccccccH
  0000b	89 4d fc	 mov	 DWORD PTR _this$[ebp], ecx

; 171  : 			_Ptr = _Nextnode(_Ptr);

  0000e	8b 45 fc	 mov	 eax, DWORD PTR _this$[ebp]
  00011	8b 08		 mov	 ecx, DWORD PTR [eax]
  00013	51		 push	 ecx
  00014	e8 00 00 00 00	 call	 ?_Nextnode@?$list@PAVIMessageObserver@@V?$allocator@PAVIMessageObserver@@@std@@@std@@KAAAPAU_Node@?$_List_nod@PAVIMessageObserver@@V?$allocator@PAVIMessageObserver@@@std@@@2@PAU342@@Z ; std::list<IMessageObserver *,std::allocator<IMessageObserver *> >::_Nextnode
  00019	83 c4 04	 add	 esp, 4
  0001c	8b 55 fc	 mov	 edx, DWORD PTR _this$[ebp]
  0001f	8b 00		 mov	 eax, DWORD PTR [eax]
  00021	89 02		 mov	 DWORD PTR [edx], eax

; 172  : 			return (*this);

  00023	8b 45 fc	 mov	 eax, DWORD PTR _this$[ebp]

; 173  : 			}

  00026	83 c4 04	 add	 esp, 4
  00029	3b ec		 cmp	 ebp, esp
  0002b	e8 00 00 00 00	 call	 __RTC_CheckEsp
  00030	8b e5		 mov	 esp, ebp
  00032	5d		 pop	 ebp
  00033	c3		 ret	 0
??Econst_iterator@?$list@PAVIMessageObserver@@V?$allocator@PAVIMessageObserver@@@std@@@std@@QAEAAV012@XZ ENDP ; std::list<IMessageObserver *,std::allocator<IMessageObserver *> >::const_iterator::operator++
_TEXT	ENDS
EXTRN	__imp_??0?$basic_string@DU?$char_traits@D@std@@V?$allocator@D@2@@std@@QAE@ABV01@@Z:NEAR
;	COMDAT xdata$x
xdata$x	SEGMENT
$T192906 DD	0ffffffffH
	DD	FLAT:$L192898
	DD	00H
	DD	FLAT:$L192899
	DD	01H
	DD	FLAT:$L192900
	DD	02H
	DD	FLAT:$L192901
$T192904 DD	019930520H
	DD	04H
	DD	FLAT:$T192906
	DD	2 DUP(00H)
	DD	2 DUP(00H)
; Function compile flags: /Odt /RTCsu
xdata$x	ENDS
;	COMDAT ??0OneLocalGame@@QAE@ABU0@@Z
_TEXT	SEGMENT
_this$ = -16						; size = 4
__$EHRec$ = -12						; size = 12
___that$ = 8						; size = 4
??0OneLocalGame@@QAE@ABU0@@Z PROC NEAR			; OneLocalGame::OneLocalGame, COMDAT
; _this$ = ecx
  00000	55		 push	 ebp
  00001	8b ec		 mov	 ebp, esp
  00003	6a ff		 push	 -1
  00005	68 00 00 00 00	 push	 __ehhandler$??0OneLocalGame@@QAE@ABU0@@Z
  0000a	64 a1 00 00 00
	00		 mov	 eax, DWORD PTR fs:__except_list
  00010	50		 push	 eax
  00011	64 89 25 00 00
	00 00		 mov	 DWORD PTR fs:__except_list, esp
  00018	51		 push	 ecx
  00019	56		 push	 esi
  0001a	c7 45 f0 cc cc
	cc cc		 mov	 DWORD PTR [ebp-16], -858993460 ; ccccccccH
  00021	89 4d f0	 mov	 DWORD PTR _this$[ebp], ecx
  00024	8b f4		 mov	 esi, esp
  00026	8b 45 08	 mov	 eax, DWORD PTR ___that$[ebp]
  00029	50		 push	 eax
  0002a	8b 4d f0	 mov	 ecx, DWORD PTR _this$[ebp]
  0002d	ff 15 00 00 00
	00		 call	 DWORD PTR __imp_??0?$basic_string@DU?$char_traits@D@std@@V?$allocator@D@2@@std@@QAE@ABV01@@Z
  00033	3b f4		 cmp	 esi, esp
  00035	e8 00 00 00 00	 call	 __RTC_CheckEsp
  0003a	c7 45 fc 00 00
	00 00		 mov	 DWORD PTR __$EHRec$[ebp+8], 0
  00041	8b 4d 08	 mov	 ecx, DWORD PTR ___that$[ebp]
  00044	83 c1 1c	 add	 ecx, 28			; 0000001cH
  00047	8b f4		 mov	 esi, esp
  00049	51		 push	 ecx
  0004a	8b 4d f0	 mov	 ecx, DWORD PTR _this$[ebp]
  0004d	83 c1 1c	 add	 ecx, 28			; 0000001cH
  00050	ff 15 00 00 00
	00		 call	 DWORD PTR __imp_??0?$basic_string@DU?$char_traits@D@std@@V?$allocator@D@2@@std@@QAE@ABV01@@Z
  00056	3b f4		 cmp	 esi, esp
  00058	e8 00 00 00 00	 call	 __RTC_CheckEsp
  0005d	c6 45 fc 01	 mov	 BYTE PTR __$EHRec$[ebp+8], 1
  00061	8b 55 08	 mov	 edx, DWORD PTR ___that$[ebp]
  00064	83 c2 38	 add	 edx, 56			; 00000038H
  00067	8b f4		 mov	 esi, esp
  00069	52		 push	 edx
  0006a	8b 4d f0	 mov	 ecx, DWORD PTR _this$[ebp]
  0006d	83 c1 38	 add	 ecx, 56			; 00000038H
  00070	ff 15 00 00 00
	00		 call	 DWORD PTR __imp_??0?$basic_string@DU?$char_traits@D@std@@V?$allocator@D@2@@std@@QAE@ABV01@@Z
  00076	3b f4		 cmp	 esi, esp
  00078	e8 00 00 00 00	 call	 __RTC_CheckEsp
  0007d	c6 45 fc 02	 mov	 BYTE PTR __$EHRec$[ebp+8], 2
  00081	8b 45 08	 mov	 eax, DWORD PTR ___that$[ebp]
  00084	83 c0 54	 add	 eax, 84			; 00000054H
  00087	8b f4		 mov	 esi, esp
  00089	50		 push	 eax
  0008a	8b 4d f0	 mov	 ecx, DWORD PTR _this$[ebp]
  0008d	83 c1 54	 add	 ecx, 84			; 00000054H
  00090	ff 15 00 00 00
	00		 call	 DWORD PTR __imp_??0?$basic_string@DU?$char_traits@D@std@@V?$allocator@D@2@@std@@QAE@ABV01@@Z
  00096	3b f4		 cmp	 esi, esp
  00098	e8 00 00 00 00	 call	 __RTC_CheckEsp
  0009d	c6 45 fc 03	 mov	 BYTE PTR __$EHRec$[ebp+8], 3
  000a1	8b 4d 08	 mov	 ecx, DWORD PTR ___that$[ebp]
  000a4	83 c1 70	 add	 ecx, 112		; 00000070H
  000a7	8b f4		 mov	 esi, esp
  000a9	51		 push	 ecx
  000aa	8b 4d f0	 mov	 ecx, DWORD PTR _this$[ebp]
  000ad	83 c1 70	 add	 ecx, 112		; 00000070H
  000b0	ff 15 00 00 00
	00		 call	 DWORD PTR __imp_??0?$basic_string@DU?$char_traits@D@std@@V?$allocator@D@2@@std@@QAE@ABV01@@Z
  000b6	3b f4		 cmp	 esi, esp
  000b8	e8 00 00 00 00	 call	 __RTC_CheckEsp
  000bd	8b 55 f0	 mov	 edx, DWORD PTR _this$[ebp]
  000c0	8b 45 08	 mov	 eax, DWORD PTR ___that$[ebp]
  000c3	8b 88 8c 00 00
	00		 mov	 ecx, DWORD PTR [eax+140]
  000c9	89 8a 8c 00 00
	00		 mov	 DWORD PTR [edx+140], ecx
  000cf	c7 45 fc ff ff
	ff ff		 mov	 DWORD PTR __$EHRec$[ebp+8], -1
  000d6	8b 45 f0	 mov	 eax, DWORD PTR _this$[ebp]
  000d9	8b 4d f4	 mov	 ecx, DWORD PTR __$EHRec$[ebp]
  000dc	64 89 0d 00 00
	00 00		 mov	 DWORD PTR fs:__except_list, ecx
  000e3	5e		 pop	 esi
  000e4	83 c4 10	 add	 esp, 16			; 00000010H
  000e7	3b ec		 cmp	 ebp, esp
  000e9	e8 00 00 00 00	 call	 __RTC_CheckEsp
  000ee	8b e5		 mov	 esp, ebp
  000f0	5d		 pop	 ebp
  000f1	c2 04 00	 ret	 4
_TEXT	ENDS
;	COMDAT text$x
text$x	SEGMENT
$L192898:
  00000	8b f4		 mov	 esi, esp
  00002	8b 4d f0	 mov	 ecx, DWORD PTR _this$[ebp]
  00005	ff 15 00 00 00
	00		 call	 DWORD PTR __imp_??1?$basic_string@DU?$char_traits@D@std@@V?$allocator@D@2@@std@@QAE@XZ
  0000b	3b f4		 cmp	 esi, esp
  0000d	e9 00 00 00 00	 jmp	 __RTC_CheckEsp
$L192899:
  00012	8b 4d f0	 mov	 ecx, DWORD PTR _this$[ebp]
  00015	83 c1 1c	 add	 ecx, 28			; 0000001cH
  00018	8b f4		 mov	 esi, esp
  0001a	ff 15 00 00 00
	00		 call	 DWORD PTR __imp_??1?$basic_string@DU?$char_traits@D@std@@V?$allocator@D@2@@std@@QAE@XZ
  00020	3b f4		 cmp	 esi, esp
  00022	e9 00 00 00 00	 jmp	 __RTC_CheckEsp
$L192900:
  00027	8b 4d f0	 mov	 ecx, DWORD PTR _this$[ebp]
  0002a	83 c1 38	 add	 ecx, 56			; 00000038H
  0002d	8b f4		 mov	 esi, esp
  0002f	ff 15 00 00 00
	00		 call	 DWORD PTR __imp_??1?$basic_string@DU?$char_traits@D@std@@V?$allocator@D@2@@std@@QAE@XZ
  00035	3b f4		 cmp	 esi, esp
  00037	e9 00 00 00 00	 jmp	 __RTC_CheckEsp
$L192901:
  0003c	8b 4d f0	 mov	 ecx, DWORD PTR _this$[ebp]
  0003f	83 c1 54	 add	 ecx, 84			; 00000054H
  00042	8b f4		 mov	 esi, esp
  00044	ff 15 00 00 00
	00		 call	 DWORD PTR __imp_??1?$basic_string@DU?$char_traits@D@std@@V?$allocator@D@2@@std@@QAE@XZ
  0004a	3b f4		 cmp	 esi, esp
  0004c	e9 00 00 00 00	 jmp	 __RTC_CheckEsp
__ehhandler$??0OneLocalGame@@QAE@ABU0@@Z:
  00051	b8 00 00 00 00	 mov	 eax, OFFSET FLAT:$T192904
  00056	e9 00 00 00 00	 jmp	 ___CxxFrameHandler
text$x	ENDS
??0OneLocalGame@@QAE@ABU0@@Z ENDP			; OneLocalGame::OneLocalGame
PUBLIC	??_R1A@?0A@A@exception@@8			; exception::`RTTI Base Class Descriptor at (0,-1,0,0)'
PUBLIC	??_R1A@?0A@A@logic_error@std@@8			; std::logic_error::`RTTI Base Class Descriptor at (0,-1,0,0)'
PUBLIC	??_R4length_error@std@@6B@			; std::length_error::`RTTI Complete Object Locator'
PUBLIC	??_R3length_error@std@@8			; std::length_error::`RTTI Class Hierarchy Descriptor'
PUBLIC	??_R2length_error@std@@8			; std::length_error::`RTTI Base Class Array'
PUBLIC	??_R1A@?0A@A@length_error@std@@8		; std::length_error::`RTTI Base Class Descriptor at (0,-1,0,0)'
PUBLIC	?what@logic_error@std@@UBEPBDXZ			; std::logic_error::what
PUBLIC	??_7length_error@std@@6B@			; std::length_error::`vftable'
PUBLIC	??_Glength_error@std@@UAEPAXI@Z			; std::length_error::`scalar deleting destructor'
EXTRN	??_Elength_error@std@@UAEPAXI@Z:NEAR		; std::length_error::`vector deleting destructor'
;	COMDAT ??_7length_error@std@@6B@
CONST	SEGMENT
??_7length_error@std@@6B@ DD FLAT:??_R4length_error@std@@6B@ ; std::length_error::`vftable'
	DD	FLAT:??_Elength_error@std@@UAEPAXI@Z
	DD	FLAT:?what@logic_error@std@@UBEPBDXZ
CONST	ENDS
;	COMDAT ??_R4length_error@std@@6B@
rdata$r	SEGMENT
??_R4length_error@std@@6B@ DD 00H			; std::length_error::`RTTI Complete Object Locator'
	DD	00H
	DD	00H
	DD	FLAT:??_R0?AVlength_error@std@@@8
	DD	FLAT:??_R3length_error@std@@8
rdata$r	ENDS
;	COMDAT ??_R3length_error@std@@8
rdata$r	SEGMENT
??_R3length_error@std@@8 DD 00H				; std::length_error::`RTTI Class Hierarchy Descriptor'
	DD	00H
	DD	03H
	DD	FLAT:??_R2length_error@std@@8
rdata$r	ENDS
;	COMDAT ??_R2length_error@std@@8
rdata$r	SEGMENT
??_R2length_error@std@@8 DD FLAT:??_R1A@?0A@A@length_error@std@@8 ; std::length_error::`RTTI Base Class Array'
	DD	FLAT:??_R1A@?0A@A@logic_error@std@@8
	DD	FLAT:??_R1A@?0A@A@exception@@8
rdata$r	ENDS
;	COMDAT ??_R1A@?0A@A@length_error@std@@8
rdata$r	SEGMENT
??_R1A@?0A@A@length_error@std@@8 DD FLAT:??_R0?AVlength_error@std@@@8 ; std::length_error::`RTTI Base Class Descriptor at (0,-1,0,0)'
	DD	02H
	DD	00H
	DD	0ffffffffH
	DD	00H
	DD	00H
rdata$r	ENDS
;	COMDAT ??_R1A@?0A@A@logic_error@std@@8
rdata$r	SEGMENT
??_R1A@?0A@A@logic_error@std@@8 DD FLAT:??_R0?AVlogic_error@std@@@8 ; std::logic_error::`RTTI Base Class Descriptor at (0,-1,0,0)'
	DD	01H
	DD	00H
	DD	0ffffffffH
	DD	00H
	DD	00H
rdata$r	ENDS
;	COMDAT ??_R1A@?0A@A@exception@@8
rdata$r	SEGMENT
??_R1A@?0A@A@exception@@8 DD FLAT:??_R0?AVexception@@@8	; exception::`RTTI Base Class Descriptor at (0,-1,0,0)'
	DD	00H
	DD	00H
	DD	0ffffffffH
	DD	00H
	DD	00H
; Function compile flags: /Odt /RTCsu
rdata$r	ENDS
;	COMDAT ??0length_error@std@@QAE@ABV01@@Z
_TEXT	SEGMENT
_this$ = -4						; size = 4
___that$ = 8						; size = 4
??0length_error@std@@QAE@ABV01@@Z PROC NEAR		; std::length_error::length_error, COMDAT
; _this$ = ecx
  00000	55		 push	 ebp
  00001	8b ec		 mov	 ebp, esp
  00003	51		 push	 ecx
  00004	c7 45 fc cc cc
	cc cc		 mov	 DWORD PTR [ebp-4], -858993460 ; ccccccccH
  0000b	89 4d fc	 mov	 DWORD PTR _this$[ebp], ecx
  0000e	8b 45 08	 mov	 eax, DWORD PTR ___that$[ebp]
  00011	50		 push	 eax
  00012	8b 4d fc	 mov	 ecx, DWORD PTR _this$[ebp]
  00015	e8 00 00 00 00	 call	 ??0logic_error@std@@QAE@ABV01@@Z
  0001a	8b 4d fc	 mov	 ecx, DWORD PTR _this$[ebp]
  0001d	c7 01 00 00 00
	00		 mov	 DWORD PTR [ecx], OFFSET FLAT:??_7length_error@std@@6B@
  00023	8b 45 fc	 mov	 eax, DWORD PTR _this$[ebp]
  00026	83 c4 04	 add	 esp, 4
  00029	3b ec		 cmp	 ebp, esp
  0002b	e8 00 00 00 00	 call	 __RTC_CheckEsp
  00030	8b e5		 mov	 esp, ebp
  00032	5d		 pop	 ebp
  00033	c2 04 00	 ret	 4
??0length_error@std@@QAE@ABV01@@Z ENDP			; std::length_error::length_error
; Function compile flags: /Odt /RTCsu
; File d:\program files (x86)\microsoft visual studio .net 2003\vc7\include\xmemory
_TEXT	ENDS
;	COMDAT ?max_size@?$allocator@UOneLocalGame@@@std@@QBEIXZ
_TEXT	SEGMENT
tv65 = -12						; size = 4
__Count$ = -8						; size = 4
_this$ = -4						; size = 4
?max_size@?$allocator@UOneLocalGame@@@std@@QBEIXZ PROC NEAR ; std::allocator<OneLocalGame>::max_size, COMDAT
; _this$ = ecx

; 156  : 		{	// estimate maximum array size

  00000	55		 push	 ebp
  00001	8b ec		 mov	 ebp, esp
  00003	83 ec 0c	 sub	 esp, 12			; 0000000cH
  00006	c7 45 f4 cc cc
	cc cc		 mov	 DWORD PTR [ebp-12], -858993460 ; ccccccccH
  0000d	c7 45 f8 cc cc
	cc cc		 mov	 DWORD PTR [ebp-8], -858993460 ; ccccccccH
  00014	c7 45 fc cc cc
	cc cc		 mov	 DWORD PTR [ebp-4], -858993460 ; ccccccccH
  0001b	89 4d fc	 mov	 DWORD PTR _this$[ebp], ecx

; 157  : 		_SIZT _Count = (_SIZT)(-1) / sizeof (_Ty);

  0001e	c7 45 f8 71 1c
	c7 01		 mov	 DWORD PTR __Count$[ebp], 29826161 ; 01c71c71H

; 158  : 		return (0 < _Count ? _Count : 1);

  00025	83 7d f8 00	 cmp	 DWORD PTR __Count$[ebp], 0
  00029	76 08		 jbe	 SHORT $L192912
  0002b	8b 45 f8	 mov	 eax, DWORD PTR __Count$[ebp]
  0002e	89 45 f4	 mov	 DWORD PTR tv65[ebp], eax
  00031	eb 07		 jmp	 SHORT $L192913
$L192912:
  00033	c7 45 f4 01 00
	00 00		 mov	 DWORD PTR tv65[ebp], 1
$L192913:
  0003a	8b 45 f4	 mov	 eax, DWORD PTR tv65[ebp]

; 159  : 		}

  0003d	8b e5		 mov	 esp, ebp
  0003f	5d		 pop	 ebp
  00040	c3		 ret	 0
?max_size@?$allocator@UOneLocalGame@@@std@@QBEIXZ ENDP	; std::allocator<OneLocalGame>::max_size
; Function compile flags: /Odt /RTCsu
; File d:\program files (x86)\microsoft visual studio .net 2003\vc7\include\vector
_TEXT	ENDS
;	COMDAT ??Yiterator@?$vector@UOneLocalGame@@V?$allocator@UOneLocalGame@@@std@@@std@@QAEAAV012@H@Z
_TEXT	SEGMENT
_this$ = -4						; size = 4
__Off$ = 8						; size = 4
??Yiterator@?$vector@UOneLocalGame@@V?$allocator@UOneLocalGame@@@std@@@std@@QAEAAV012@H@Z PROC NEAR ; std::vector<OneLocalGame,std::allocator<OneLocalGame> >::iterator::operator+=, COMDAT
; _this$ = ecx

; 255  : 			{	// increment by integer

  00000	55		 push	 ebp
  00001	8b ec		 mov	 ebp, esp
  00003	51		 push	 ecx
  00004	c7 45 fc cc cc
	cc cc		 mov	 DWORD PTR [ebp-4], -858993460 ; ccccccccH
  0000b	89 4d fc	 mov	 DWORD PTR _this$[ebp], ecx

; 256  : 			this->_Myptr += _Off;

  0000e	8b 45 08	 mov	 eax, DWORD PTR __Off$[ebp]
  00011	69 c0 90 00 00
	00		 imul	 eax, 144		; 00000090H
  00017	8b 4d fc	 mov	 ecx, DWORD PTR _this$[ebp]
  0001a	03 01		 add	 eax, DWORD PTR [ecx]
  0001c	8b 55 fc	 mov	 edx, DWORD PTR _this$[ebp]
  0001f	89 02		 mov	 DWORD PTR [edx], eax

; 257  : 			return (*this);

  00021	8b 45 fc	 mov	 eax, DWORD PTR _this$[ebp]

; 258  : 			}

  00024	8b e5		 mov	 esp, ebp
  00026	5d		 pop	 ebp
  00027	c2 04 00	 ret	 4
??Yiterator@?$vector@UOneLocalGame@@V?$allocator@UOneLocalGame@@@std@@@std@@QAEAAV012@H@Z ENDP ; std::vector<OneLocalGame,std::allocator<OneLocalGame> >::iterator::operator+=
; Function compile flags: /Odt /RTCsu
_TEXT	ENDS
;	COMDAT ??Gconst_iterator@?$vector@UOneLocalGame@@V?$allocator@UOneLocalGame@@@std@@@std@@QBEHABV012@@Z
_TEXT	SEGMENT
_this$ = -4						; size = 4
__Right$ = 8						; size = 4
??Gconst_iterator@?$vector@UOneLocalGame@@V?$allocator@UOneLocalGame@@@std@@@std@@QBEHABV012@@Z PROC NEAR ; std::vector<OneLocalGame,std::allocator<OneLocalGame> >::const_iterator::operator-, COMDAT
; _this$ = ecx

; 140  : 			{	// return difference of iterators

  00000	55		 push	 ebp
  00001	8b ec		 mov	 ebp, esp
  00003	51		 push	 ecx
  00004	c7 45 fc cc cc
	cc cc		 mov	 DWORD PTR [ebp-4], -858993460 ; ccccccccH
  0000b	89 4d fc	 mov	 DWORD PTR _this$[ebp], ecx

; 141  : 
; 142  : 
; 143  : 			return (_Myptr - _Right._Myptr);

  0000e	8b 45 fc	 mov	 eax, DWORD PTR _this$[ebp]
  00011	8b 4d 08	 mov	 ecx, DWORD PTR __Right$[ebp]
  00014	8b 00		 mov	 eax, DWORD PTR [eax]
  00016	2b 01		 sub	 eax, DWORD PTR [ecx]
  00018	99		 cdq
  00019	b9 90 00 00 00	 mov	 ecx, 144		; 00000090H
  0001e	f7 f9		 idiv	 ecx

; 144  : 			}

  00020	8b e5		 mov	 esp, ebp
  00022	5d		 pop	 ebp
  00023	c2 04 00	 ret	 4
??Gconst_iterator@?$vector@UOneLocalGame@@V?$allocator@UOneLocalGame@@@std@@@std@@QBEHABV012@@Z ENDP ; std::vector<OneLocalGame,std::allocator<OneLocalGame> >::const_iterator::operator-
_TEXT	ENDS
PUBLIC	??$?0PAVIMessageObserver@@@?$allocator@U_Node@?$_List_nod@PAVIMessageObserver@@V?$allocator@PAVIMessageObserver@@@std@@@std@@@std@@QAE@ABV?$allocator@PAVIMessageObserver@@@1@@Z ; std::allocator<std::_List_nod<IMessageObserver *,std::allocator<IMessageObserver *> >::_Node>::allocator<std::_List_nod<IMessageObserver *,std::allocator<IMessageObserver *> >::_Node><IMessageObserver *>
; Function compile flags: /Odt /RTCsu
; File d:\program files (x86)\microsoft visual studio .net 2003\vc7\include\list
;	COMDAT ??0?$_List_nod@PAVIMessageObserver@@V?$allocator@PAVIMessageObserver@@@std@@@std@@IAE@V?$allocator@PAVIMessageObserver@@@1@@Z
_TEXT	SEGMENT
_this$ = -4						; size = 4
__Al$ = 8						; size = 1
??0?$_List_nod@PAVIMessageObserver@@V?$allocator@PAVIMessageObserver@@@std@@@std@@IAE@V?$allocator@PAVIMessageObserver@@@1@@Z PROC NEAR ; std::_List_nod<IMessageObserver *,std::allocator<IMessageObserver *> >::_List_nod<IMessageObserver *,std::allocator<IMessageObserver *> >, COMDAT
; _this$ = ecx

; 44   : 		{	// construct allocator from _Al

  00000	55		 push	 ebp
  00001	8b ec		 mov	 ebp, esp
  00003	51		 push	 ecx
  00004	c7 45 fc cc cc
	cc cc		 mov	 DWORD PTR [ebp-4], -858993460 ; ccccccccH
  0000b	89 4d fc	 mov	 DWORD PTR _this$[ebp], ecx
  0000e	8d 45 08	 lea	 eax, DWORD PTR __Al$[ebp]
  00011	50		 push	 eax
  00012	8b 4d fc	 mov	 ecx, DWORD PTR _this$[ebp]
  00015	e8 00 00 00 00	 call	 ??$?0PAVIMessageObserver@@@?$allocator@U_Node@?$_List_nod@PAVIMessageObserver@@V?$allocator@PAVIMessageObserver@@@std@@@std@@@std@@QAE@ABV?$allocator@PAVIMessageObserver@@@1@@Z ; std::allocator<std::_List_nod<IMessageObserver *,std::allocator<IMessageObserver *> >::_Node>::allocator<std::_List_nod<IMessageObserver *,std::allocator<IMessageObserver *> >::_Node><IMessageObserver *>

; 45   : 		}

  0001a	8b 45 fc	 mov	 eax, DWORD PTR _this$[ebp]
  0001d	83 c4 04	 add	 esp, 4
  00020	3b ec		 cmp	 ebp, esp
  00022	e8 00 00 00 00	 call	 __RTC_CheckEsp
  00027	8b e5		 mov	 esp, ebp
  00029	5d		 pop	 ebp
  0002a	c2 04 00	 ret	 4
??0?$_List_nod@PAVIMessageObserver@@V?$allocator@PAVIMessageObserver@@@std@@@std@@IAE@V?$allocator@PAVIMessageObserver@@@1@@Z ENDP ; std::_List_nod<IMessageObserver *,std::allocator<IMessageObserver *> >::_List_nod<IMessageObserver *,std::allocator<IMessageObserver *> >
_TEXT	ENDS
PUBLIC	??$_Destroy@U_Node@?$_List_nod@PAVIMessageObserver@@V?$allocator@PAVIMessageObserver@@@std@@@std@@@std@@YAXPAU_Node@?$_List_nod@PAVIMessageObserver@@V?$allocator@PAVIMessageObserver@@@std@@@0@@Z ; std::_Destroy<std::_List_nod<IMessageObserver *,std::allocator<IMessageObserver *> >::_Node>
; Function compile flags: /Odt /RTCsu
; File d:\program files (x86)\microsoft visual studio .net 2003\vc7\include\xmemory
;	COMDAT ?destroy@?$allocator@U_Node@?$_List_nod@PAVIMessageObserver@@V?$allocator@PAVIMessageObserver@@@std@@@std@@@std@@QAEXPAU_Node@?$_List_nod@PAVIMessageObserver@@V?$allocator@PAVIMessageObserver@@@std@@@2@@Z
_TEXT	SEGMENT
_this$ = -4						; size = 4
__Ptr$ = 8						; size = 4
?destroy@?$allocator@U_Node@?$_List_nod@PAVIMessageObserver@@V?$allocator@PAVIMessageObserver@@@std@@@std@@@std@@QAEXPAU_Node@?$_List_nod@PAVIMessageObserver@@V?$allocator@PAVIMessageObserver@@@std@@@2@@Z PROC NEAR ; std::allocator<std::_List_nod<IMessageObserver *,std::allocator<IMessageObserver *> >::_Node>::destroy, COMDAT
; _this$ = ecx

; 151  : 		{	// destroy object at _Ptr

  00000	55		 push	 ebp
  00001	8b ec		 mov	 ebp, esp
  00003	51		 push	 ecx
  00004	c7 45 fc cc cc
	cc cc		 mov	 DWORD PTR [ebp-4], -858993460 ; ccccccccH
  0000b	89 4d fc	 mov	 DWORD PTR _this$[ebp], ecx

; 152  : 		_Destroy(_Ptr);

  0000e	8b 45 08	 mov	 eax, DWORD PTR __Ptr$[ebp]
  00011	50		 push	 eax
  00012	e8 00 00 00 00	 call	 ??$_Destroy@U_Node@?$_List_nod@PAVIMessageObserver@@V?$allocator@PAVIMessageObserver@@@std@@@std@@@std@@YAXPAU_Node@?$_List_nod@PAVIMessageObserver@@V?$allocator@PAVIMessageObserver@@@std@@@0@@Z ; std::_Destroy<std::_List_nod<IMessageObserver *,std::allocator<IMessageObserver *> >::_Node>
  00017	83 c4 04	 add	 esp, 4

; 153  : 		}

  0001a	83 c4 04	 add	 esp, 4
  0001d	3b ec		 cmp	 ebp, esp
  0001f	e8 00 00 00 00	 call	 __RTC_CheckEsp
  00024	8b e5		 mov	 esp, ebp
  00026	5d		 pop	 ebp
  00027	c2 04 00	 ret	 4
?destroy@?$allocator@U_Node@?$_List_nod@PAVIMessageObserver@@V?$allocator@PAVIMessageObserver@@@std@@@std@@@std@@QAEXPAU_Node@?$_List_nod@PAVIMessageObserver@@V?$allocator@PAVIMessageObserver@@@std@@@2@@Z ENDP ; std::allocator<std::_List_nod<IMessageObserver *,std::allocator<IMessageObserver *> >::_Node>::destroy
_TEXT	ENDS
PUBLIC	??_R4?$CArray@UElemPos@CMarkup@@AAU12@@@6B@	; CArray<CMarkup::ElemPos,CMarkup::ElemPos &>::`RTTI Complete Object Locator'
PUBLIC	??_R0?AV?$CArray@UElemPos@CMarkup@@AAU12@@@@8	; CArray<CMarkup::ElemPos,CMarkup::ElemPos &> `RTTI Type Descriptor'
PUBLIC	??_R3?$CArray@UElemPos@CMarkup@@AAU12@@@8	; CArray<CMarkup::ElemPos,CMarkup::ElemPos &>::`RTTI Class Hierarchy Descriptor'
PUBLIC	??_R2?$CArray@UElemPos@CMarkup@@AAU12@@@8	; CArray<CMarkup::ElemPos,CMarkup::ElemPos &>::`RTTI Base Class Array'
PUBLIC	??_R1A@?0A@A@?$CArray@UElemPos@CMarkup@@AAU12@@@8 ; CArray<CMarkup::ElemPos,CMarkup::ElemPos &>::`RTTI Base Class Descriptor at (0,-1,0,0)'
PUBLIC	??_R1A@?0A@A@CObject@@8				; CObject::`RTTI Base Class Descriptor at (0,-1,0,0)'
PUBLIC	??_R0?AVCObject@@@8				; CObject `RTTI Type Descriptor'
PUBLIC	?Serialize@?$CArray@UElemPos@CMarkup@@AAU12@@@UAEXAAVCArchive@@@Z ; CArray<CMarkup::ElemPos,CMarkup::ElemPos &>::Serialize
PUBLIC	?Dump@?$CArray@UElemPos@CMarkup@@AAU12@@@UBEXAAVCDumpContext@@@Z ; CArray<CMarkup::ElemPos,CMarkup::ElemPos &>::Dump
PUBLIC	?AssertValid@?$CArray@UElemPos@CMarkup@@AAU12@@@UBEXXZ ; CArray<CMarkup::ElemPos,CMarkup::ElemPos &>::AssertValid
PUBLIC	??_7?$CArray@UElemPos@CMarkup@@AAU12@@@6B@	; CArray<CMarkup::ElemPos,CMarkup::ElemPos &>::`vftable'
PUBLIC	??_G?$CArray@UElemPos@CMarkup@@AAU12@@@UAEPAXI@Z ; CArray<CMarkup::ElemPos,CMarkup::ElemPos &>::`scalar deleting destructor'
EXTRN	?GetRuntimeClass@CObject@@UBEPAUCRuntimeClass@@XZ:NEAR ; CObject::GetRuntimeClass
EXTRN	??0CObject@@IAE@XZ:NEAR				; CObject::CObject
EXTRN	??_E?$CArray@UElemPos@CMarkup@@AAU12@@@UAEPAXI@Z:NEAR ; CArray<CMarkup::ElemPos,CMarkup::ElemPos &>::`vector deleting destructor'
;	COMDAT ??_7?$CArray@UElemPos@CMarkup@@AAU12@@@6B@
; File d:\program files (x86)\microsoft visual studio .net 2003\vc7\atlmfc\include\afxtempl.h
CONST	SEGMENT
??_7?$CArray@UElemPos@CMarkup@@AAU12@@@6B@ DD FLAT:??_R4?$CArray@UElemPos@CMarkup@@AAU12@@@6B@ ; CArray<CMarkup::ElemPos,CMarkup::ElemPos &>::`vftable'
	DD	FLAT:?GetRuntimeClass@CObject@@UBEPAUCRuntimeClass@@XZ
	DD	FLAT:??_E?$CArray@UElemPos@CMarkup@@AAU12@@@UAEPAXI@Z
	DD	FLAT:?Serialize@?$CArray@UElemPos@CMarkup@@AAU12@@@UAEXAAVCArchive@@@Z
	DD	FLAT:?AssertValid@?$CArray@UElemPos@CMarkup@@AAU12@@@UBEXXZ
	DD	FLAT:?Dump@?$CArray@UElemPos@CMarkup@@AAU12@@@UBEXAAVCDumpContext@@@Z
CONST	ENDS
;	COMDAT ??_R4?$CArray@UElemPos@CMarkup@@AAU12@@@6B@
rdata$r	SEGMENT
??_R4?$CArray@UElemPos@CMarkup@@AAU12@@@6B@ DD 00H	; CArray<CMarkup::ElemPos,CMarkup::ElemPos &>::`RTTI Complete Object Locator'
	DD	00H
	DD	00H
	DD	FLAT:??_R0?AV?$CArray@UElemPos@CMarkup@@AAU12@@@@8
	DD	FLAT:??_R3?$CArray@UElemPos@CMarkup@@AAU12@@@8
rdata$r	ENDS
;	COMDAT ??_R0?AV?$CArray@UElemPos@CMarkup@@AAU12@@@@8
_DATA	SEGMENT
??_R0?AV?$CArray@UElemPos@CMarkup@@AAU12@@@@8 DD FLAT:??_7type_info@@6B@ ; CArray<CMarkup::ElemPos,CMarkup::ElemPos &> `RTTI Type Descriptor'
	DD	00H
	DB	'.?AV?$CArray@UElemPos@CMarkup@@AAU12@@@', 00H
_DATA	ENDS
;	COMDAT ??_R3?$CArray@UElemPos@CMarkup@@AAU12@@@8
rdata$r	SEGMENT
??_R3?$CArray@UElemPos@CMarkup@@AAU12@@@8 DD 00H	; CArray<CMarkup::ElemPos,CMarkup::ElemPos &>::`RTTI Class Hierarchy Descriptor'
	DD	00H
	DD	02H
	DD	FLAT:??_R2?$CArray@UElemPos@CMarkup@@AAU12@@@8
rdata$r	ENDS
;	COMDAT ??_R2?$CArray@UElemPos@CMarkup@@AAU12@@@8
rdata$r	SEGMENT
??_R2?$CArray@UElemPos@CMarkup@@AAU12@@@8 DD FLAT:??_R1A@?0A@A@?$CArray@UElemPos@CMarkup@@AAU12@@@8 ; CArray<CMarkup::ElemPos,CMarkup::ElemPos &>::`RTTI Base Class Array'
	DD	FLAT:??_R1A@?0A@A@CObject@@8
rdata$r	ENDS
;	COMDAT ??_R1A@?0A@A@?$CArray@UElemPos@CMarkup@@AAU12@@@8
rdata$r	SEGMENT
??_R1A@?0A@A@?$CArray@UElemPos@CMarkup@@AAU12@@@8 DD FLAT:??_R0?AV?$CArray@UElemPos@CMarkup@@AAU12@@@@8 ; CArray<CMarkup::ElemPos,CMarkup::ElemPos &>::`RTTI Base Class Descriptor at (0,-1,0,0)'
	DD	01H
	DD	00H
	DD	0ffffffffH
	DD	00H
	DD	00H
rdata$r	ENDS
;	COMDAT ??_R1A@?0A@A@CObject@@8
rdata$r	SEGMENT
??_R1A@?0A@A@CObject@@8 DD FLAT:??_R0?AVCObject@@@8	; CObject::`RTTI Base Class Descriptor at (0,-1,0,0)'
	DD	00H
	DD	00H
	DD	0ffffffffH
	DD	00H
	DD	00H
rdata$r	ENDS
;	COMDAT ??_R0?AVCObject@@@8
_DATA	SEGMENT
??_R0?AVCObject@@@8 DD FLAT:??_7type_info@@6B@		; CObject `RTTI Type Descriptor'
	DD	00H
	DB	'.?AVCObject@@', 00H
; Function compile flags: /Odt /RTCsu
_DATA	ENDS
;	COMDAT ??0?$CArray@UElemPos@CMarkup@@AAU12@@@QAE@XZ
_TEXT	SEGMENT
_this$ = -4						; size = 4
??0?$CArray@UElemPos@CMarkup@@AAU12@@@QAE@XZ PROC NEAR	; CArray<CMarkup::ElemPos,CMarkup::ElemPos &>::CArray<CMarkup::ElemPos,CMarkup::ElemPos &>, COMDAT
; _this$ = ecx

; 349  : {

  00000	55		 push	 ebp
  00001	8b ec		 mov	 ebp, esp
  00003	51		 push	 ecx
  00004	c7 45 fc cc cc
	cc cc		 mov	 DWORD PTR [ebp-4], -858993460 ; ccccccccH
  0000b	89 4d fc	 mov	 DWORD PTR _this$[ebp], ecx
  0000e	8b 4d fc	 mov	 ecx, DWORD PTR _this$[ebp]
  00011	e8 00 00 00 00	 call	 ??0CObject@@IAE@XZ	; CObject::CObject
  00016	8b 45 fc	 mov	 eax, DWORD PTR _this$[ebp]
  00019	c7 00 00 00 00
	00		 mov	 DWORD PTR [eax], OFFSET FLAT:??_7?$CArray@UElemPos@CMarkup@@AAU12@@@6B@

; 350  : 	m_pData = NULL;

  0001f	8b 4d fc	 mov	 ecx, DWORD PTR _this$[ebp]
  00022	c7 41 04 00 00
	00 00		 mov	 DWORD PTR [ecx+4], 0

; 351  : 	m_nSize = m_nMaxSize = m_nGrowBy = 0;

  00029	8b 55 fc	 mov	 edx, DWORD PTR _this$[ebp]
  0002c	c7 42 10 00 00
	00 00		 mov	 DWORD PTR [edx+16], 0
  00033	8b 45 fc	 mov	 eax, DWORD PTR _this$[ebp]
  00036	c7 40 0c 00 00
	00 00		 mov	 DWORD PTR [eax+12], 0
  0003d	8b 4d fc	 mov	 ecx, DWORD PTR _this$[ebp]
  00040	c7 41 08 00 00
	00 00		 mov	 DWORD PTR [ecx+8], 0

; 352  : }

  00047	8b 45 fc	 mov	 eax, DWORD PTR _this$[ebp]
  0004a	83 c4 04	 add	 esp, 4
  0004d	3b ec		 cmp	 ebp, esp
  0004f	e8 00 00 00 00	 call	 __RTC_CheckEsp
  00054	8b e5		 mov	 esp, ebp
  00056	5d		 pop	 ebp
  00057	c3		 ret	 0
??0?$CArray@UElemPos@CMarkup@@AAU12@@@QAE@XZ ENDP	; CArray<CMarkup::ElemPos,CMarkup::ElemPos &>::CArray<CMarkup::ElemPos,CMarkup::ElemPos &>
_TEXT	ENDS
PUBLIC	?ElementAt@?$CArray@UElemPos@CMarkup@@AAU12@@@QAEAAUElemPos@CMarkup@@H@Z ; CArray<CMarkup::ElemPos,CMarkup::ElemPos &>::ElementAt
; Function compile flags: /Odt /RTCsu
;	COMDAT ??A?$CArray@UElemPos@CMarkup@@AAU12@@@QAEAAUElemPos@CMarkup@@H@Z
_TEXT	SEGMENT
_this$ = -4						; size = 4
_nIndex$ = 8						; size = 4
??A?$CArray@UElemPos@CMarkup@@AAU12@@@QAEAAUElemPos@CMarkup@@H@Z PROC NEAR ; CArray<CMarkup::ElemPos,CMarkup::ElemPos &>::operator[], COMDAT
; _this$ = ecx

; 342  : 	{ return ElementAt(nIndex); }

  00000	55		 push	 ebp
  00001	8b ec		 mov	 ebp, esp
  00003	51		 push	 ecx
  00004	c7 45 fc cc cc
	cc cc		 mov	 DWORD PTR [ebp-4], -858993460 ; ccccccccH
  0000b	89 4d fc	 mov	 DWORD PTR _this$[ebp], ecx
  0000e	8b 45 08	 mov	 eax, DWORD PTR _nIndex$[ebp]
  00011	50		 push	 eax
  00012	8b 4d fc	 mov	 ecx, DWORD PTR _this$[ebp]
  00015	e8 00 00 00 00	 call	 ?ElementAt@?$CArray@UElemPos@CMarkup@@AAU12@@@QAEAAUElemPos@CMarkup@@H@Z ; CArray<CMarkup::ElemPos,CMarkup::ElemPos &>::ElementAt
  0001a	83 c4 04	 add	 esp, 4
  0001d	3b ec		 cmp	 ebp, esp
  0001f	e8 00 00 00 00	 call	 __RTC_CheckEsp
  00024	8b e5		 mov	 esp, ebp
  00026	5d		 pop	 ebp
  00027	c2 04 00	 ret	 4
??A?$CArray@UElemPos@CMarkup@@AAU12@@@QAEAAUElemPos@CMarkup@@H@Z ENDP ; CArray<CMarkup::ElemPos,CMarkup::ElemPos &>::operator[]
_TEXT	ENDS
EXTRN	??_V@YAXPAX@Z:NEAR				; operator delete[]
EXTRN	?AfxAssertValidObject@@YGXPBVCObject@@PBDH@Z:NEAR ; AfxAssertValidObject
EXTRN	??1CObject@@UAE@XZ:NEAR				; CObject::~CObject
;	COMDAT xdata$x
xdata$x	SEGMENT
$T192927 DD	0ffffffffH
	DD	FLAT:$L192923
$T192925 DD	019930520H
	DD	01H
	DD	FLAT:$T192927
	DD	2 DUP(00H)
	DD	2 DUP(00H)
; Function compile flags: /Odt /RTCsu
xdata$x	ENDS
;	COMDAT ??1?$CArray@UElemPos@CMarkup@@AAU12@@@UAE@XZ
_TEXT	SEGMENT
$T192922 = -24						; size = 4
_i$191039 = -20						; size = 4
_this$ = -16						; size = 4
__$EHRec$ = -12						; size = 12
??1?$CArray@UElemPos@CMarkup@@AAU12@@@UAE@XZ PROC NEAR	; CArray<CMarkup::ElemPos,CMarkup::ElemPos &>::~CArray<CMarkup::ElemPos,CMarkup::ElemPos &>, COMDAT
; _this$ = ecx

; 356  : {

  00000	55		 push	 ebp
  00001	8b ec		 mov	 ebp, esp
  00003	6a ff		 push	 -1
  00005	68 00 00 00 00	 push	 __ehhandler$??1?$CArray@UElemPos@CMarkup@@AAU12@@@UAE@XZ
  0000a	64 a1 00 00 00
	00		 mov	 eax, DWORD PTR fs:__except_list
  00010	50		 push	 eax
  00011	64 89 25 00 00
	00 00		 mov	 DWORD PTR fs:__except_list, esp
  00018	83 ec 0c	 sub	 esp, 12			; 0000000cH
  0001b	c7 45 e8 cc cc
	cc cc		 mov	 DWORD PTR [ebp-24], -858993460 ; ccccccccH
  00022	c7 45 ec cc cc
	cc cc		 mov	 DWORD PTR [ebp-20], -858993460 ; ccccccccH
  00029	c7 45 f0 cc cc
	cc cc		 mov	 DWORD PTR [ebp-16], -858993460 ; ccccccccH
  00030	89 4d f0	 mov	 DWORD PTR _this$[ebp], ecx
  00033	8b 45 f0	 mov	 eax, DWORD PTR _this$[ebp]
  00036	c7 00 00 00 00
	00		 mov	 DWORD PTR [eax], OFFSET FLAT:??_7?$CArray@UElemPos@CMarkup@@AAU12@@@6B@
  0003c	c7 45 fc 00 00
	00 00		 mov	 DWORD PTR __$EHRec$[ebp+8], 0

; 357  : 	ASSERT_VALID(this);

  00043	68 65 01 00 00	 push	 357			; 00000165H
  00048	68 00 00 00 00	 push	 OFFSET FLAT:$SG191037
  0004d	8b 4d f0	 mov	 ecx, DWORD PTR _this$[ebp]
  00050	51		 push	 ecx
  00051	e8 00 00 00 00	 call	 ?AfxAssertValidObject@@YGXPBVCObject@@PBDH@Z ; AfxAssertValidObject

; 358  : 
; 359  : 	if (m_pData != NULL)

  00056	8b 55 f0	 mov	 edx, DWORD PTR _this$[ebp]
  00059	83 7a 04 00	 cmp	 DWORD PTR [edx+4], 0
  0005d	74 34		 je	 SHORT $L191036

; 360  : 	{
; 361  : 		for( int i = 0; i < m_nSize; i++ )

  0005f	c7 45 ec 00 00
	00 00		 mov	 DWORD PTR _i$191039[ebp], 0
  00066	eb 09		 jmp	 SHORT $L191040
$L191041:
  00068	8b 45 ec	 mov	 eax, DWORD PTR _i$191039[ebp]
  0006b	83 c0 01	 add	 eax, 1
  0006e	89 45 ec	 mov	 DWORD PTR _i$191039[ebp], eax
$L191040:
  00071	8b 4d f0	 mov	 ecx, DWORD PTR _this$[ebp]
  00074	8b 55 ec	 mov	 edx, DWORD PTR _i$191039[ebp]
  00077	3b 51 08	 cmp	 edx, DWORD PTR [ecx+8]
  0007a	7d 02		 jge	 SHORT $L191042

; 362  : 			(m_pData + i)->~TYPE();

  0007c	eb ea		 jmp	 SHORT $L191041
$L191042:

; 363  : 		delete[] (BYTE*)m_pData;

  0007e	8b 45 f0	 mov	 eax, DWORD PTR _this$[ebp]
  00081	8b 48 04	 mov	 ecx, DWORD PTR [eax+4]
  00084	89 4d e8	 mov	 DWORD PTR $T192922[ebp], ecx
  00087	8b 55 e8	 mov	 edx, DWORD PTR $T192922[ebp]
  0008a	52		 push	 edx
  0008b	e8 00 00 00 00	 call	 ??_V@YAXPAX@Z		; operator delete[]
  00090	83 c4 04	 add	 esp, 4
$L191036:

; 364  : 	}
; 365  : }

  00093	c7 45 fc ff ff
	ff ff		 mov	 DWORD PTR __$EHRec$[ebp+8], -1
  0009a	8b 4d f0	 mov	 ecx, DWORD PTR _this$[ebp]
  0009d	e8 00 00 00 00	 call	 ??1CObject@@UAE@XZ	; CObject::~CObject
  000a2	8b 4d f4	 mov	 ecx, DWORD PTR __$EHRec$[ebp]
  000a5	64 89 0d 00 00
	00 00		 mov	 DWORD PTR fs:__except_list, ecx
  000ac	83 c4 18	 add	 esp, 24			; 00000018H
  000af	3b ec		 cmp	 ebp, esp
  000b1	e8 00 00 00 00	 call	 __RTC_CheckEsp
  000b6	8b e5		 mov	 esp, ebp
  000b8	5d		 pop	 ebp
  000b9	c3		 ret	 0
_TEXT	ENDS
;	COMDAT text$x
text$x	SEGMENT
$L192923:
  00000	8b 4d f0	 mov	 ecx, DWORD PTR _this$[ebp]
  00003	e9 00 00 00 00	 jmp	 ??1CObject@@UAE@XZ	; CObject::~CObject
__ehhandler$??1?$CArray@UElemPos@CMarkup@@AAU12@@@UAE@XZ:
  00008	b8 00 00 00 00	 mov	 eax, OFFSET FLAT:$T192925
  0000d	e9 00 00 00 00	 jmp	 ___CxxFrameHandler
text$x	ENDS
??1?$CArray@UElemPos@CMarkup@@AAU12@@@UAE@XZ ENDP	; CArray<CMarkup::ElemPos,CMarkup::ElemPos &>::~CArray<CMarkup::ElemPos,CMarkup::ElemPos &>
PUBLIC	??$SerializeElements@UElemPos@CMarkup@@@@YGXAAVCArchive@@PAUElemPos@CMarkup@@H@Z ; SerializeElements<CMarkup::ElemPos>
PUBLIC	?SetSize@?$CArray@UElemPos@CMarkup@@AAU12@@@QAEXHH@Z ; CArray<CMarkup::ElemPos,CMarkup::ElemPos &>::SetSize
EXTRN	?Serialize@CObject@@UAEXAAVCArchive@@@Z:NEAR	; CObject::Serialize
EXTRN	?IsStoring@CArchive@@QBEHXZ:NEAR		; CArchive::IsStoring
EXTRN	?ReadCount@CArchive@@QAEKXZ:NEAR		; CArchive::ReadCount
EXTRN	?WriteCount@CArchive@@QAEXK@Z:NEAR		; CArchive::WriteCount
; Function compile flags: /Odt /RTCsu
;	COMDAT ?Serialize@?$CArray@UElemPos@CMarkup@@AAU12@@@UAEXAAVCArchive@@@Z
_TEXT	SEGMENT
_nOldSize$191054 = -8					; size = 4
_this$ = -4						; size = 4
_ar$ = 8						; size = 4
?Serialize@?$CArray@UElemPos@CMarkup@@AAU12@@@UAEXAAVCArchive@@@Z PROC NEAR ; CArray<CMarkup::ElemPos,CMarkup::ElemPos &>::Serialize, COMDAT
; _this$ = ecx

; 629  : {

  00000	55		 push	 ebp
  00001	8b ec		 mov	 ebp, esp
  00003	83 ec 08	 sub	 esp, 8
  00006	c7 45 f8 cc cc
	cc cc		 mov	 DWORD PTR [ebp-8], -858993460 ; ccccccccH
  0000d	c7 45 fc cc cc
	cc cc		 mov	 DWORD PTR [ebp-4], -858993460 ; ccccccccH
  00014	89 4d fc	 mov	 DWORD PTR _this$[ebp], ecx

; 630  : 	ASSERT_VALID(this);

  00017	68 76 02 00 00	 push	 630			; 00000276H
  0001c	68 00 00 00 00	 push	 OFFSET FLAT:$SG191051
  00021	8b 45 fc	 mov	 eax, DWORD PTR _this$[ebp]
  00024	50		 push	 eax
  00025	e8 00 00 00 00	 call	 ?AfxAssertValidObject@@YGXPBVCObject@@PBDH@Z ; AfxAssertValidObject

; 631  : 
; 632  : 	CObject::Serialize(ar);

  0002a	8b 4d 08	 mov	 ecx, DWORD PTR _ar$[ebp]
  0002d	51		 push	 ecx
  0002e	8b 4d fc	 mov	 ecx, DWORD PTR _this$[ebp]
  00031	e8 00 00 00 00	 call	 ?Serialize@CObject@@UAEXAAVCArchive@@@Z ; CObject::Serialize

; 633  : 	if (ar.IsStoring())

  00036	8b 4d 08	 mov	 ecx, DWORD PTR _ar$[ebp]
  00039	e8 00 00 00 00	 call	 ?IsStoring@CArchive@@QBEHXZ ; CArchive::IsStoring
  0003e	85 c0		 test	 eax, eax
  00040	74 11		 je	 SHORT $L191052

; 634  : 	{
; 635  : 		ar.WriteCount(m_nSize);

  00042	8b 55 fc	 mov	 edx, DWORD PTR _this$[ebp]
  00045	8b 42 08	 mov	 eax, DWORD PTR [edx+8]
  00048	50		 push	 eax
  00049	8b 4d 08	 mov	 ecx, DWORD PTR _ar$[ebp]
  0004c	e8 00 00 00 00	 call	 ?WriteCount@CArchive@@QAEXK@Z ; CArchive::WriteCount

; 636  : 	}
; 637  : 	else

  00051	eb 19		 jmp	 SHORT $L191053
$L191052:

; 638  : 	{
; 639  : 		DWORD_PTR nOldSize = ar.ReadCount();

  00053	8b 4d 08	 mov	 ecx, DWORD PTR _ar$[ebp]
  00056	e8 00 00 00 00	 call	 ?ReadCount@CArchive@@QAEKXZ ; CArchive::ReadCount
  0005b	89 45 f8	 mov	 DWORD PTR _nOldSize$191054[ebp], eax

; 640  : 		SetSize(nOldSize, -1);

  0005e	6a ff		 push	 -1
  00060	8b 4d f8	 mov	 ecx, DWORD PTR _nOldSize$191054[ebp]
  00063	51		 push	 ecx
  00064	8b 4d fc	 mov	 ecx, DWORD PTR _this$[ebp]
  00067	e8 00 00 00 00	 call	 ?SetSize@?$CArray@UElemPos@CMarkup@@AAU12@@@QAEXHH@Z ; CArray<CMarkup::ElemPos,CMarkup::ElemPos &>::SetSize
$L191053:

; 641  : 	}
; 642  : 	SerializeElements<TYPE>(ar, m_pData, m_nSize);

  0006c	8b 55 fc	 mov	 edx, DWORD PTR _this$[ebp]
  0006f	8b 42 08	 mov	 eax, DWORD PTR [edx+8]
  00072	50		 push	 eax
  00073	8b 4d fc	 mov	 ecx, DWORD PTR _this$[ebp]
  00076	8b 51 04	 mov	 edx, DWORD PTR [ecx+4]
  00079	52		 push	 edx
  0007a	8b 45 08	 mov	 eax, DWORD PTR _ar$[ebp]
  0007d	50		 push	 eax
  0007e	e8 00 00 00 00	 call	 ??$SerializeElements@UElemPos@CMarkup@@@@YGXAAVCArchive@@PAUElemPos@CMarkup@@H@Z ; SerializeElements<CMarkup::ElemPos>

; 643  : }

  00083	83 c4 08	 add	 esp, 8
  00086	3b ec		 cmp	 ebp, esp
  00088	e8 00 00 00 00	 call	 __RTC_CheckEsp
  0008d	8b e5		 mov	 esp, ebp
  0008f	5d		 pop	 ebp
  00090	c2 04 00	 ret	 4
?Serialize@?$CArray@UElemPos@CMarkup@@AAU12@@@UAEXAAVCArchive@@@Z ENDP ; CArray<CMarkup::ElemPos,CMarkup::ElemPos &>::Serialize
_TEXT	ENDS
PUBLIC	??$DumpElements@UElemPos@CMarkup@@@@YGXAAVCDumpContext@@PBUElemPos@CMarkup@@H@Z ; DumpElements<CMarkup::ElemPos>
EXTRN	?Dump@CObject@@UBEXAAVCDumpContext@@@Z:NEAR	; CObject::Dump
EXTRN	?GetDepth@CDumpContext@@QBEHXZ:NEAR		; CDumpContext::GetDepth
EXTRN	??6CDumpContext@@QAEAAV0@PBD@Z:NEAR		; CDumpContext::operator<<
EXTRN	??6CDumpContext@@QAEAAV0@H@Z:NEAR		; CDumpContext::operator<<
; Function compile flags: /Odt /RTCsu
;	COMDAT ?Dump@?$CArray@UElemPos@CMarkup@@AAU12@@@UBEXAAVCDumpContext@@@Z
_TEXT	SEGMENT
_this$ = -4						; size = 4
_dc$ = 8						; size = 4
?Dump@?$CArray@UElemPos@CMarkup@@AAU12@@@UBEXAAVCDumpContext@@@Z PROC NEAR ; CArray<CMarkup::ElemPos,CMarkup::ElemPos &>::Dump, COMDAT
; _this$ = ecx

; 648  : {

  00000	55		 push	 ebp
  00001	8b ec		 mov	 ebp, esp
  00003	51		 push	 ecx
  00004	c7 45 fc cc cc
	cc cc		 mov	 DWORD PTR [ebp-4], -858993460 ; ccccccccH
  0000b	89 4d fc	 mov	 DWORD PTR _this$[ebp], ecx

; 649  : 	CObject::Dump(dc);

  0000e	8b 45 08	 mov	 eax, DWORD PTR _dc$[ebp]
  00011	50		 push	 eax
  00012	8b 4d fc	 mov	 ecx, DWORD PTR _this$[ebp]
  00015	e8 00 00 00 00	 call	 ?Dump@CObject@@UBEXAAVCDumpContext@@@Z ; CObject::Dump

; 650  : 
; 651  : 	dc << "with " << m_nSize << " elements";

  0001a	68 00 00 00 00	 push	 OFFSET FLAT:$SG191068
  0001f	8b 4d fc	 mov	 ecx, DWORD PTR _this$[ebp]
  00022	8b 51 08	 mov	 edx, DWORD PTR [ecx+8]
  00025	52		 push	 edx
  00026	68 00 00 00 00	 push	 OFFSET FLAT:$SG191067
  0002b	8b 4d 08	 mov	 ecx, DWORD PTR _dc$[ebp]
  0002e	e8 00 00 00 00	 call	 ??6CDumpContext@@QAEAAV0@PBD@Z ; CDumpContext::operator<<
  00033	8b c8		 mov	 ecx, eax
  00035	e8 00 00 00 00	 call	 ??6CDumpContext@@QAEAAV0@H@Z ; CDumpContext::operator<<
  0003a	8b c8		 mov	 ecx, eax
  0003c	e8 00 00 00 00	 call	 ??6CDumpContext@@QAEAAV0@PBD@Z ; CDumpContext::operator<<

; 652  : 	if (dc.GetDepth() > 0)

  00041	8b 4d 08	 mov	 ecx, DWORD PTR _dc$[ebp]
  00044	e8 00 00 00 00	 call	 ?GetDepth@CDumpContext@@QBEHXZ ; CDumpContext::GetDepth
  00049	85 c0		 test	 eax, eax
  0004b	7e 24		 jle	 SHORT $L191069

; 653  : 	{
; 654  : 		dc << "\n";

  0004d	68 00 00 00 00	 push	 OFFSET FLAT:$SG191070
  00052	8b 4d 08	 mov	 ecx, DWORD PTR _dc$[ebp]
  00055	e8 00 00 00 00	 call	 ??6CDumpContext@@QAEAAV0@PBD@Z ; CDumpContext::operator<<

; 655  : 		DumpElements<TYPE>(dc, m_pData, m_nSize);

  0005a	8b 45 fc	 mov	 eax, DWORD PTR _this$[ebp]
  0005d	8b 48 08	 mov	 ecx, DWORD PTR [eax+8]
  00060	51		 push	 ecx
  00061	8b 55 fc	 mov	 edx, DWORD PTR _this$[ebp]
  00064	8b 42 04	 mov	 eax, DWORD PTR [edx+4]
  00067	50		 push	 eax
  00068	8b 4d 08	 mov	 ecx, DWORD PTR _dc$[ebp]
  0006b	51		 push	 ecx
  0006c	e8 00 00 00 00	 call	 ??$DumpElements@UElemPos@CMarkup@@@@YGXAAVCDumpContext@@PBUElemPos@CMarkup@@H@Z ; DumpElements<CMarkup::ElemPos>
$L191069:

; 656  : 	}
; 657  : 
; 658  : 	dc << "\n";

  00071	68 00 00 00 00	 push	 OFFSET FLAT:$SG191077
  00076	8b 4d 08	 mov	 ecx, DWORD PTR _dc$[ebp]
  00079	e8 00 00 00 00	 call	 ??6CDumpContext@@QAEAAV0@PBD@Z ; CDumpContext::operator<<

; 659  : }

  0007e	83 c4 04	 add	 esp, 4
  00081	3b ec		 cmp	 ebp, esp
  00083	e8 00 00 00 00	 call	 __RTC_CheckEsp
  00088	8b e5		 mov	 esp, ebp
  0008a	5d		 pop	 ebp
  0008b	c2 04 00	 ret	 4
?Dump@?$CArray@UElemPos@CMarkup@@AAU12@@@UBEXAAVCDumpContext@@@Z ENDP ; CArray<CMarkup::ElemPos,CMarkup::ElemPos &>::Dump
_TEXT	ENDS
EXTRN	?AfxAssertFailedLine@@YGHPBDH@Z:NEAR		; AfxAssertFailedLine
EXTRN	?AssertValid@CObject@@UBEXXZ:NEAR		; CObject::AssertValid
EXTRN	?AfxIsValidAddress@@YGHPBXIH@Z:NEAR		; AfxIsValidAddress
; Function compile flags: /Odt /RTCsu
;	COMDAT ?AssertValid@?$CArray@UElemPos@CMarkup@@AAU12@@@UBEXXZ
_TEXT	SEGMENT
_this$ = -4						; size = 4
?AssertValid@?$CArray@UElemPos@CMarkup@@AAU12@@@UBEXXZ PROC NEAR ; CArray<CMarkup::ElemPos,CMarkup::ElemPos &>::AssertValid, COMDAT
; _this$ = ecx

; 663  : {

  00000	55		 push	 ebp
  00001	8b ec		 mov	 ebp, esp
  00003	51		 push	 ecx
  00004	c7 45 fc cc cc
	cc cc		 mov	 DWORD PTR [ebp-4], -858993460 ; ccccccccH
  0000b	89 4d fc	 mov	 DWORD PTR _this$[ebp], ecx

; 664  : 	CObject::AssertValid();

  0000e	8b 4d fc	 mov	 ecx, DWORD PTR _this$[ebp]
  00011	e8 00 00 00 00	 call	 ?AssertValid@CObject@@UBEXXZ ; CObject::AssertValid

; 665  : 
; 666  : 	if (m_pData == NULL)

  00016	8b 45 fc	 mov	 eax, DWORD PTR _this$[ebp]
  00019	83 78 04 00	 cmp	 DWORD PTR [eax+4], 0
  0001d	75 3f		 jne	 SHORT $L191083

; 667  : 	{
; 668  : 		ASSERT(m_nSize == 0);

  0001f	8b 4d fc	 mov	 ecx, DWORD PTR _this$[ebp]
  00022	83 79 08 00	 cmp	 DWORD PTR [ecx+8], 0
  00026	74 14		 je	 SHORT $L192933
  00028	68 9c 02 00 00	 push	 668			; 0000029cH
  0002d	68 00 00 00 00	 push	 OFFSET FLAT:$SG191085
  00032	e8 00 00 00 00	 call	 ?AfxAssertFailedLine@@YGHPBDH@Z ; AfxAssertFailedLine
  00037	85 c0		 test	 eax, eax
  00039	74 01		 je	 SHORT $L192933
  0003b	cc		 int	 3
$L192933:

; 669  : 		ASSERT(m_nMaxSize == 0);

  0003c	8b 45 fc	 mov	 eax, DWORD PTR _this$[ebp]
  0003f	83 78 0c 00	 cmp	 DWORD PTR [eax+12], 0
  00043	74 14		 je	 SHORT $L192934
  00045	68 9d 02 00 00	 push	 669			; 0000029dH
  0004a	68 00 00 00 00	 push	 OFFSET FLAT:$SG191087
  0004f	e8 00 00 00 00	 call	 ?AfxAssertFailedLine@@YGHPBDH@Z ; AfxAssertFailedLine
  00054	85 c0		 test	 eax, eax
  00056	74 01		 je	 SHORT $L192934
  00058	cc		 int	 3
$L192934:

; 670  : 	}
; 671  : 	else

  00059	e9 8c 00 00 00	 jmp	 $L191082
$L191083:

; 672  : 	{
; 673  : 		ASSERT(m_nSize >= 0);

  0005e	8b 55 fc	 mov	 edx, DWORD PTR _this$[ebp]
  00061	83 7a 08 00	 cmp	 DWORD PTR [edx+8], 0
  00065	7d 14		 jge	 SHORT $L192935
  00067	68 a1 02 00 00	 push	 673			; 000002a1H
  0006c	68 00 00 00 00	 push	 OFFSET FLAT:$SG191090
  00071	e8 00 00 00 00	 call	 ?AfxAssertFailedLine@@YGHPBDH@Z ; AfxAssertFailedLine
  00076	85 c0		 test	 eax, eax
  00078	74 01		 je	 SHORT $L192935
  0007a	cc		 int	 3
$L192935:

; 674  : 		ASSERT(m_nMaxSize >= 0);

  0007b	8b 4d fc	 mov	 ecx, DWORD PTR _this$[ebp]
  0007e	83 79 0c 00	 cmp	 DWORD PTR [ecx+12], 0
  00082	7d 14		 jge	 SHORT $L192936
  00084	68 a2 02 00 00	 push	 674			; 000002a2H
  00089	68 00 00 00 00	 push	 OFFSET FLAT:$SG191092
  0008e	e8 00 00 00 00	 call	 ?AfxAssertFailedLine@@YGHPBDH@Z ; AfxAssertFailedLine
  00093	85 c0		 test	 eax, eax
  00095	74 01		 je	 SHORT $L192936
  00097	cc		 int	 3
$L192936:

; 675  : 		ASSERT(m_nSize <= m_nMaxSize);

  00098	8b 45 fc	 mov	 eax, DWORD PTR _this$[ebp]
  0009b	8b 4d fc	 mov	 ecx, DWORD PTR _this$[ebp]
  0009e	8b 50 08	 mov	 edx, DWORD PTR [eax+8]
  000a1	3b 51 0c	 cmp	 edx, DWORD PTR [ecx+12]
  000a4	7e 14		 jle	 SHORT $L192937
  000a6	68 a3 02 00 00	 push	 675			; 000002a3H
  000ab	68 00 00 00 00	 push	 OFFSET FLAT:$SG191094
  000b0	e8 00 00 00 00	 call	 ?AfxAssertFailedLine@@YGHPBDH@Z ; AfxAssertFailedLine
  000b5	85 c0		 test	 eax, eax
  000b7	74 01		 je	 SHORT $L192937
  000b9	cc		 int	 3
$L192937:

; 676  : 		ASSERT(AfxIsValidAddress(m_pData, m_nMaxSize * sizeof(TYPE)));

  000ba	6a 01		 push	 1
  000bc	8b 4d fc	 mov	 ecx, DWORD PTR _this$[ebp]
  000bf	8b 51 0c	 mov	 edx, DWORD PTR [ecx+12]
  000c2	c1 e2 05	 shl	 edx, 5
  000c5	52		 push	 edx
  000c6	8b 45 fc	 mov	 eax, DWORD PTR _this$[ebp]
  000c9	8b 48 04	 mov	 ecx, DWORD PTR [eax+4]
  000cc	51		 push	 ecx
  000cd	e8 00 00 00 00	 call	 ?AfxIsValidAddress@@YGHPBXIH@Z ; AfxIsValidAddress
  000d2	85 c0		 test	 eax, eax
  000d4	75 14		 jne	 SHORT $L191082
  000d6	68 a4 02 00 00	 push	 676			; 000002a4H
  000db	68 00 00 00 00	 push	 OFFSET FLAT:$SG191097
  000e0	e8 00 00 00 00	 call	 ?AfxAssertFailedLine@@YGHPBDH@Z ; AfxAssertFailedLine
  000e5	85 c0		 test	 eax, eax
  000e7	74 01		 je	 SHORT $L191082
  000e9	cc		 int	 3
$L191082:

; 677  : 	}
; 678  : }

  000ea	83 c4 04	 add	 esp, 4
  000ed	3b ec		 cmp	 ebp, esp
  000ef	e8 00 00 00 00	 call	 __RTC_CheckEsp
  000f4	8b e5		 mov	 esp, ebp
  000f6	5d		 pop	 ebp
  000f7	c3		 ret	 0
?AssertValid@?$CArray@UElemPos@CMarkup@@AAU12@@@UBEXXZ ENDP ; CArray<CMarkup::ElemPos,CMarkup::ElemPos &>::AssertValid
_TEXT	ENDS
PUBLIC	??0?$back_insert_iterator@V?$vector@UOneLocalGame@@V?$allocator@UOneLocalGame@@@std@@@std@@@std@@QAE@AAV?$vector@UOneLocalGame@@V?$allocator@UOneLocalGame@@@std@@@1@@Z ; std::back_insert_iterator<std::vector<OneLocalGame,std::allocator<OneLocalGame> > >::back_insert_iterator<std::vector<OneLocalGame,std::allocator<OneLocalGame> > >
; Function compile flags: /Odt /RTCsu
; File d:\program files (x86)\microsoft visual studio .net 2003\vc7\include\iterator
;	COMDAT ??$back_inserter@V?$vector@UOneLocalGame@@V?$allocator@UOneLocalGame@@@std@@@std@@@std@@YA?AV?$back_insert_iterator@V?$vector@UOneLocalGame@@V?$allocator@UOneLocalGame@@@std@@@std@@@0@AAV?$vector@UOneLocalGame@@V?$allocator@UOneLocalGame@@@std@@@0@@Z
_TEXT	SEGMENT
___$ReturnUdt$ = 8					; size = 4
__Cont$ = 12						; size = 4
??$back_inserter@V?$vector@UOneLocalGame@@V?$allocator@UOneLocalGame@@@std@@@std@@@std@@YA?AV?$back_insert_iterator@V?$vector@UOneLocalGame@@V?$allocator@UOneLocalGame@@@std@@@std@@@0@AAV?$vector@UOneLocalGame@@V?$allocator@UOneLocalGame@@@std@@@0@@Z PROC NEAR ; std::back_inserter<std::vector<OneLocalGame,std::allocator<OneLocalGame> > >, COMDAT

; 55   : 	{	// return a back_insert_iterator

  00000	55		 push	 ebp
  00001	8b ec		 mov	 ebp, esp

; 56   : 	return (std::back_insert_iterator<_Container>(_Cont));

  00003	8b 45 0c	 mov	 eax, DWORD PTR __Cont$[ebp]
  00006	50		 push	 eax
  00007	8b 4d 08	 mov	 ecx, DWORD PTR ___$ReturnUdt$[ebp]
  0000a	e8 00 00 00 00	 call	 ??0?$back_insert_iterator@V?$vector@UOneLocalGame@@V?$allocator@UOneLocalGame@@@std@@@std@@@std@@QAE@AAV?$vector@UOneLocalGame@@V?$allocator@UOneLocalGame@@@std@@@1@@Z ; std::back_insert_iterator<std::vector<OneLocalGame,std::allocator<OneLocalGame> > >::back_insert_iterator<std::vector<OneLocalGame,std::allocator<OneLocalGame> > >
  0000f	8b 45 08	 mov	 eax, DWORD PTR ___$ReturnUdt$[ebp]

; 57   : 	}

  00012	3b ec		 cmp	 ebp, esp
  00014	e8 00 00 00 00	 call	 __RTC_CheckEsp
  00019	5d		 pop	 ebp
  0001a	c3		 ret	 0
??$back_inserter@V?$vector@UOneLocalGame@@V?$allocator@UOneLocalGame@@@std@@@std@@@std@@YA?AV?$back_insert_iterator@V?$vector@UOneLocalGame@@V?$allocator@UOneLocalGame@@@std@@@std@@@0@AAV?$vector@UOneLocalGame@@V?$allocator@UOneLocalGame@@@std@@@0@@Z ENDP ; std::back_inserter<std::vector<OneLocalGame,std::allocator<OneLocalGame> > >
_TEXT	ENDS
PUBLIC	??$_Ptr_cat@Viterator@?$vector@UOneLocalGame@@V?$allocator@UOneLocalGame@@@std@@@std@@V?$back_insert_iterator@V?$vector@UOneLocalGame@@V?$allocator@UOneLocalGame@@@std@@@std@@@3@@std@@YA?AU_Nonscalar_ptr_iterator_tag@0@AAViterator@?$vector@UOneLocalGame@@V?$allocator@UOneLocalGame@@@std@@@0@AAV?$back_insert_iterator@V?$vector@UOneLocalGame@@V?$allocator@UOneLocalGame@@@std@@@std@@@0@@Z ; std::_Ptr_cat<std::vector<OneLocalGame,std::allocator<OneLocalGame> >::iterator,std::back_insert_iterator<std::vector<OneLocalGame,std::allocator<OneLocalGame> > > >
PUBLIC	??$_Copy_opt@Viterator@?$vector@UOneLocalGame@@V?$allocator@UOneLocalGame@@@std@@@std@@V?$back_insert_iterator@V?$vector@UOneLocalGame@@V?$allocator@UOneLocalGame@@@std@@@std@@@3@@std@@YA?AV?$back_insert_iterator@V?$vector@UOneLocalGame@@V?$allocator@UOneLocalGame@@@std@@@std@@@0@Viterator@?$vector@UOneLocalGame@@V?$allocator@UOneLocalGame@@@std@@@0@0V10@U_Nonscalar_ptr_iterator_tag@0@@Z ; std::_Copy_opt<std::vector<OneLocalGame,std::allocator<OneLocalGame> >::iterator,std::back_insert_iterator<std::vector<OneLocalGame,std::allocator<OneLocalGame> > > >
; Function compile flags: /Odt /RTCsu
; File d:\program files (x86)\microsoft visual studio .net 2003\vc7\include\xutility
;	COMDAT ??$copy@Viterator@?$vector@UOneLocalGame@@V?$allocator@UOneLocalGame@@@std@@@std@@V?$back_insert_iterator@V?$vector@UOneLocalGame@@V?$allocator@UOneLocalGame@@@std@@@std@@@3@@std@@YA?AV?$back_insert_iterator@V?$vector@UOneLocalGame@@V?$allocator@UOneLocalGame@@@std@@@std@@@0@Viterator@?$vector@UOneLocalGame@@V?$allocator@UOneLocalGame@@@std@@@0@0V10@@Z
_TEXT	SEGMENT
$T192941 = -1						; size = 1
___$ReturnUdt$ = 8					; size = 4
__First$ = 12						; size = 4
__Last$ = 16						; size = 4
__Dest$ = 20						; size = 4
??$copy@Viterator@?$vector@UOneLocalGame@@V?$allocator@UOneLocalGame@@@std@@@std@@V?$back_insert_iterator@V?$vector@UOneLocalGame@@V?$allocator@UOneLocalGame@@@std@@@std@@@3@@std@@YA?AV?$back_insert_iterator@V?$vector@UOneLocalGame@@V?$allocator@UOneLocalGame@@@std@@@std@@@0@Viterator@?$vector@UOneLocalGame@@V?$allocator@UOneLocalGame@@@std@@@0@0V10@@Z PROC NEAR ; std::copy<std::vector<OneLocalGame,std::allocator<OneLocalGame> >::iterator,std::back_insert_iterator<std::vector<OneLocalGame,std::allocator<OneLocalGame> > > >, COMDAT

; 1039 : 	{	// copy [_First, _Last) to [_Dest, ...)

  00000	55		 push	 ebp
  00001	8b ec		 mov	 ebp, esp
  00003	51		 push	 ecx
  00004	c7 45 fc cc cc
	cc cc		 mov	 DWORD PTR [ebp-4], -858993460 ; ccccccccH

; 1040 : 	return (_Copy_opt(_First, _Last, _Dest, _Ptr_cat(_First, _Dest)));

  0000b	8d 45 14	 lea	 eax, DWORD PTR __Dest$[ebp]
  0000e	50		 push	 eax
  0000f	8d 4d 0c	 lea	 ecx, DWORD PTR __First$[ebp]
  00012	51		 push	 ecx
  00013	e8 00 00 00 00	 call	 ??$_Ptr_cat@Viterator@?$vector@UOneLocalGame@@V?$allocator@UOneLocalGame@@@std@@@std@@V?$back_insert_iterator@V?$vector@UOneLocalGame@@V?$allocator@UOneLocalGame@@@std@@@std@@@3@@std@@YA?AU_Nonscalar_ptr_iterator_tag@0@AAViterator@?$vector@UOneLocalGame@@V?$allocator@UOneLocalGame@@@std@@@0@AAV?$back_insert_iterator@V?$vector@UOneLocalGame@@V?$allocator@UOneLocalGame@@@std@@@std@@@0@@Z ; std::_Ptr_cat<std::vector<OneLocalGame,std::allocator<OneLocalGame> >::iterator,std::back_insert_iterator<std::vector<OneLocalGame,std::allocator<OneLocalGame> > > >
  00018	83 c4 08	 add	 esp, 8
  0001b	88 45 ff	 mov	 BYTE PTR $T192941[ebp], al
  0001e	8a 55 ff	 mov	 dl, BYTE PTR $T192941[ebp]
  00021	52		 push	 edx
  00022	8b 45 14	 mov	 eax, DWORD PTR __Dest$[ebp]
  00025	50		 push	 eax
  00026	8b 4d 10	 mov	 ecx, DWORD PTR __Last$[ebp]
  00029	51		 push	 ecx
  0002a	8b 55 0c	 mov	 edx, DWORD PTR __First$[ebp]
  0002d	52		 push	 edx
  0002e	8b 45 08	 mov	 eax, DWORD PTR ___$ReturnUdt$[ebp]
  00031	50		 push	 eax
  00032	e8 00 00 00 00	 call	 ??$_Copy_opt@Viterator@?$vector@UOneLocalGame@@V?$allocator@UOneLocalGame@@@std@@@std@@V?$back_insert_iterator@V?$vector@UOneLocalGame@@V?$allocator@UOneLocalGame@@@std@@@std@@@3@@std@@YA?AV?$back_insert_iterator@V?$vector@UOneLocalGame@@V?$allocator@UOneLocalGame@@@std@@@std@@@0@Viterator@?$vector@UOneLocalGame@@V?$allocator@UOneLocalGame@@@std@@@0@0V10@U_Nonscalar_ptr_iterator_tag@0@@Z ; std::_Copy_opt<std::vector<OneLocalGame,std::allocator<OneLocalGame> >::iterator,std::back_insert_iterator<std::vector<OneLocalGame,std::allocator<OneLocalGame> > > >
  00037	83 c4 14	 add	 esp, 20			; 00000014H
  0003a	8b 45 08	 mov	 eax, DWORD PTR ___$ReturnUdt$[ebp]

; 1041 : 	}

  0003d	83 c4 04	 add	 esp, 4
  00040	3b ec		 cmp	 ebp, esp
  00042	e8 00 00 00 00	 call	 __RTC_CheckEsp
  00047	8b e5		 mov	 esp, ebp
  00049	5d		 pop	 ebp
  0004a	c3		 ret	 0
??$copy@Viterator@?$vector@UOneLocalGame@@V?$allocator@UOneLocalGame@@@std@@@std@@V?$back_insert_iterator@V?$vector@UOneLocalGame@@V?$allocator@UOneLocalGame@@@std@@@std@@@3@@std@@YA?AV?$back_insert_iterator@V?$vector@UOneLocalGame@@V?$allocator@UOneLocalGame@@@std@@@std@@@0@Viterator@?$vector@UOneLocalGame@@V?$allocator@UOneLocalGame@@@std@@@0@0V10@@Z ENDP ; std::copy<std::vector<OneLocalGame,std::allocator<OneLocalGame> >::iterator,std::back_insert_iterator<std::vector<OneLocalGame,std::allocator<OneLocalGame> > > >
_TEXT	ENDS
PUBLIC	??$_Ptr_cat@PAUOneLocalGame@@PAU1@@std@@YA?AU_Nonscalar_ptr_iterator_tag@0@AAPAUOneLocalGame@@0@Z ; std::_Ptr_cat<OneLocalGame *,OneLocalGame *>
PUBLIC	??$_Copy_opt@PAUOneLocalGame@@PAU1@@std@@YAPAUOneLocalGame@@PAU1@00U_Nonscalar_ptr_iterator_tag@0@@Z ; std::_Copy_opt<OneLocalGame *,OneLocalGame *>
; Function compile flags: /Odt /RTCsu
;	COMDAT ??$copy@PAUOneLocalGame@@PAU1@@std@@YAPAUOneLocalGame@@PAU1@00@Z
_TEXT	SEGMENT
$T192943 = -1						; size = 1
__First$ = 8						; size = 4
__Last$ = 12						; size = 4
__Dest$ = 16						; size = 4
??$copy@PAUOneLocalGame@@PAU1@@std@@YAPAUOneLocalGame@@PAU1@00@Z PROC NEAR ; std::copy<OneLocalGame *,OneLocalGame *>, COMDAT

; 1039 : 	{	// copy [_First, _Last) to [_Dest, ...)

  00000	55		 push	 ebp
  00001	8b ec		 mov	 ebp, esp
  00003	51		 push	 ecx
  00004	c7 45 fc cc cc
	cc cc		 mov	 DWORD PTR [ebp-4], -858993460 ; ccccccccH

; 1040 : 	return (_Copy_opt(_First, _Last, _Dest, _Ptr_cat(_First, _Dest)));

  0000b	8d 45 10	 lea	 eax, DWORD PTR __Dest$[ebp]
  0000e	50		 push	 eax
  0000f	8d 4d 08	 lea	 ecx, DWORD PTR __First$[ebp]
  00012	51		 push	 ecx
  00013	e8 00 00 00 00	 call	 ??$_Ptr_cat@PAUOneLocalGame@@PAU1@@std@@YA?AU_Nonscalar_ptr_iterator_tag@0@AAPAUOneLocalGame@@0@Z ; std::_Ptr_cat<OneLocalGame *,OneLocalGame *>
  00018	83 c4 08	 add	 esp, 8
  0001b	88 45 ff	 mov	 BYTE PTR $T192943[ebp], al
  0001e	8a 55 ff	 mov	 dl, BYTE PTR $T192943[ebp]
  00021	52		 push	 edx
  00022	8b 45 10	 mov	 eax, DWORD PTR __Dest$[ebp]
  00025	50		 push	 eax
  00026	8b 4d 0c	 mov	 ecx, DWORD PTR __Last$[ebp]
  00029	51		 push	 ecx
  0002a	8b 55 08	 mov	 edx, DWORD PTR __First$[ebp]
  0002d	52		 push	 edx
  0002e	e8 00 00 00 00	 call	 ??$_Copy_opt@PAUOneLocalGame@@PAU1@@std@@YAPAUOneLocalGame@@PAU1@00U_Nonscalar_ptr_iterator_tag@0@@Z ; std::_Copy_opt<OneLocalGame *,OneLocalGame *>
  00033	83 c4 10	 add	 esp, 16			; 00000010H

; 1041 : 	}

  00036	83 c4 04	 add	 esp, 4
  00039	3b ec		 cmp	 ebp, esp
  0003b	e8 00 00 00 00	 call	 __RTC_CheckEsp
  00040	8b e5		 mov	 esp, ebp
  00042	5d		 pop	 ebp
  00043	c3		 ret	 0
??$copy@PAUOneLocalGame@@PAU1@@std@@YAPAUOneLocalGame@@PAU1@00@Z ENDP ; std::copy<OneLocalGame *,OneLocalGame *>
_TEXT	ENDS
PUBLIC	??$_Destroy_range@UOneLocalGame@@V?$allocator@UOneLocalGame@@@std@@@std@@YAXPAUOneLocalGame@@0AAV?$allocator@UOneLocalGame@@@0@U_Nonscalar_ptr_iterator_tag@0@@Z ; std::_Destroy_range<OneLocalGame,std::allocator<OneLocalGame> >
; Function compile flags: /Odt /RTCsu
; File d:\program files (x86)\microsoft visual studio .net 2003\vc7\include\xmemory
;	COMDAT ??$_Destroy_range@UOneLocalGame@@V?$allocator@UOneLocalGame@@@std@@@std@@YAXPAUOneLocalGame@@0AAV?$allocator@UOneLocalGame@@@0@@Z
_TEXT	SEGMENT
$T192945 = -1						; size = 1
__First$ = 8						; size = 4
__Last$ = 12						; size = 4
__Al$ = 16						; size = 4
??$_Destroy_range@UOneLocalGame@@V?$allocator@UOneLocalGame@@@std@@@std@@YAXPAUOneLocalGame@@0AAV?$allocator@UOneLocalGame@@@0@@Z PROC NEAR ; std::_Destroy_range<OneLocalGame,std::allocator<OneLocalGame> >, COMDAT

; 216  : 	{	// destroy [_First, _Last)

  00000	55		 push	 ebp
  00001	8b ec		 mov	 ebp, esp
  00003	51		 push	 ecx
  00004	c7 45 fc cc cc
	cc cc		 mov	 DWORD PTR [ebp-4], -858993460 ; ccccccccH

; 217  : 	_Destroy_range(_First, _Last, _Al, _Ptr_cat(_First, _Last));

  0000b	8d 45 0c	 lea	 eax, DWORD PTR __Last$[ebp]
  0000e	50		 push	 eax
  0000f	8d 4d 08	 lea	 ecx, DWORD PTR __First$[ebp]
  00012	51		 push	 ecx
  00013	e8 00 00 00 00	 call	 ??$_Ptr_cat@PAUOneLocalGame@@PAU1@@std@@YA?AU_Nonscalar_ptr_iterator_tag@0@AAPAUOneLocalGame@@0@Z ; std::_Ptr_cat<OneLocalGame *,OneLocalGame *>
  00018	83 c4 08	 add	 esp, 8
  0001b	88 45 ff	 mov	 BYTE PTR $T192945[ebp], al
  0001e	8a 55 ff	 mov	 dl, BYTE PTR $T192945[ebp]
  00021	52		 push	 edx
  00022	8b 45 10	 mov	 eax, DWORD PTR __Al$[ebp]
  00025	50		 push	 eax
  00026	8b 4d 0c	 mov	 ecx, DWORD PTR __Last$[ebp]
  00029	51		 push	 ecx
  0002a	8b 55 08	 mov	 edx, DWORD PTR __First$[ebp]
  0002d	52		 push	 edx
  0002e	e8 00 00 00 00	 call	 ??$_Destroy_range@UOneLocalGame@@V?$allocator@UOneLocalGame@@@std@@@std@@YAXPAUOneLocalGame@@0AAV?$allocator@UOneLocalGame@@@0@U_Nonscalar_ptr_iterator_tag@0@@Z ; std::_Destroy_range<OneLocalGame,std::allocator<OneLocalGame> >
  00033	83 c4 10	 add	 esp, 16			; 00000010H

; 218  : 	}

  00036	83 c4 04	 add	 esp, 4
  00039	3b ec		 cmp	 ebp, esp
  0003b	e8 00 00 00 00	 call	 __RTC_CheckEsp
  00040	8b e5		 mov	 esp, ebp
  00042	5d		 pop	 ebp
  00043	c3		 ret	 0
??$_Destroy_range@UOneLocalGame@@V?$allocator@UOneLocalGame@@@std@@@std@@YAXPAUOneLocalGame@@0AAV?$allocator@UOneLocalGame@@@0@@Z ENDP ; std::_Destroy_range<OneLocalGame,std::allocator<OneLocalGame> >
_TEXT	ENDS
PUBLIC	??$_Uninit_fill_n@PAUOneLocalGame@@IU1@V?$allocator@UOneLocalGame@@@std@@@std@@YAXPAUOneLocalGame@@IABU1@AAV?$allocator@UOneLocalGame@@@0@U_Nonscalar_ptr_iterator_tag@0@@Z ; std::_Uninit_fill_n<OneLocalGame *,unsigned int,OneLocalGame,std::allocator<OneLocalGame> >
; Function compile flags: /Odt /RTCsu
; File d:\program files (x86)\microsoft visual studio .net 2003\vc7\include\memory
;	COMDAT ??$_Uninitialized_fill_n@PAUOneLocalGame@@IU1@V?$allocator@UOneLocalGame@@@std@@@std@@YAXPAUOneLocalGame@@IABU1@AAV?$allocator@UOneLocalGame@@@0@@Z
_TEXT	SEGMENT
$T192947 = -1						; size = 1
__First$ = 8						; size = 4
__Count$ = 12						; size = 4
__Val$ = 16						; size = 4
__Al$ = 20						; size = 4
??$_Uninitialized_fill_n@PAUOneLocalGame@@IU1@V?$allocator@UOneLocalGame@@@std@@@std@@YAXPAUOneLocalGame@@IABU1@AAV?$allocator@UOneLocalGame@@@0@@Z PROC NEAR ; std::_Uninitialized_fill_n<OneLocalGame *,unsigned int,OneLocalGame,std::allocator<OneLocalGame> >, COMDAT

; 255  : 	{	// copy _Count *_Val to raw _First, using _Al

  00000	55		 push	 ebp
  00001	8b ec		 mov	 ebp, esp
  00003	51		 push	 ecx
  00004	c7 45 fc cc cc
	cc cc		 mov	 DWORD PTR [ebp-4], -858993460 ; ccccccccH

; 256  : 	_Uninit_fill_n(_First, _Count, _Val, _Al,
; 257  : 		_Ptr_cat(_First, _First));

  0000b	8d 45 08	 lea	 eax, DWORD PTR __First$[ebp]
  0000e	50		 push	 eax
  0000f	8d 4d 08	 lea	 ecx, DWORD PTR __First$[ebp]
  00012	51		 push	 ecx
  00013	e8 00 00 00 00	 call	 ??$_Ptr_cat@PAUOneLocalGame@@PAU1@@std@@YA?AU_Nonscalar_ptr_iterator_tag@0@AAPAUOneLocalGame@@0@Z ; std::_Ptr_cat<OneLocalGame *,OneLocalGame *>
  00018	83 c4 08	 add	 esp, 8
  0001b	88 45 ff	 mov	 BYTE PTR $T192947[ebp], al
  0001e	8a 55 ff	 mov	 dl, BYTE PTR $T192947[ebp]
  00021	52		 push	 edx
  00022	8b 45 14	 mov	 eax, DWORD PTR __Al$[ebp]
  00025	50		 push	 eax
  00026	8b 4d 10	 mov	 ecx, DWORD PTR __Val$[ebp]
  00029	51		 push	 ecx
  0002a	8b 55 0c	 mov	 edx, DWORD PTR __Count$[ebp]
  0002d	52		 push	 edx
  0002e	8b 45 08	 mov	 eax, DWORD PTR __First$[ebp]
  00031	50		 push	 eax
  00032	e8 00 00 00 00	 call	 ??$_Uninit_fill_n@PAUOneLocalGame@@IU1@V?$allocator@UOneLocalGame@@@std@@@std@@YAXPAUOneLocalGame@@IABU1@AAV?$allocator@UOneLocalGame@@@0@U_Nonscalar_ptr_iterator_tag@0@@Z ; std::_Uninit_fill_n<OneLocalGame *,unsigned int,OneLocalGame,std::allocator<OneLocalGame> >
  00037	83 c4 14	 add	 esp, 20			; 00000014H

; 258  : 	}

  0003a	83 c4 04	 add	 esp, 4
  0003d	3b ec		 cmp	 ebp, esp
  0003f	e8 00 00 00 00	 call	 __RTC_CheckEsp
  00044	8b e5		 mov	 esp, ebp
  00046	5d		 pop	 ebp
  00047	c3		 ret	 0
??$_Uninitialized_fill_n@PAUOneLocalGame@@IU1@V?$allocator@UOneLocalGame@@@std@@@std@@YAXPAUOneLocalGame@@IABU1@AAV?$allocator@UOneLocalGame@@@0@@Z ENDP ; std::_Uninitialized_fill_n<OneLocalGame *,unsigned int,OneLocalGame,std::allocator<OneLocalGame> >
_TEXT	ENDS
PUBLIC	??$_Uninitialized_copy@PAUOneLocalGame@@PAU1@V?$allocator@UOneLocalGame@@@std@@@std@@YAPAUOneLocalGame@@PAU1@00AAV?$allocator@UOneLocalGame@@@0@@Z ; std::_Uninitialized_copy<OneLocalGame *,OneLocalGame *,std::allocator<OneLocalGame> >
; Function compile flags: /Odt /RTCsu
; File d:\program files (x86)\microsoft visual studio .net 2003\vc7\include\vector
;	COMDAT ??$_Ucopy@PAUOneLocalGame@@@?$vector@UOneLocalGame@@V?$allocator@UOneLocalGame@@@std@@@std@@IAEPAUOneLocalGame@@PAU2@00@Z
_TEXT	SEGMENT
_this$ = -4						; size = 4
__First$ = 8						; size = 4
__Last$ = 12						; size = 4
__Ptr$ = 16						; size = 4
??$_Ucopy@PAUOneLocalGame@@@?$vector@UOneLocalGame@@V?$allocator@UOneLocalGame@@@std@@@std@@IAEPAUOneLocalGame@@PAU2@00@Z PROC NEAR ; std::vector<OneLocalGame,std::allocator<OneLocalGame> >::_Ucopy<OneLocalGame *>, COMDAT
; _this$ = ecx

; 801  : 		pointer _Ucopy(_Iter _First, _Iter _Last, pointer _Ptr)

  00000	55		 push	 ebp
  00001	8b ec		 mov	 ebp, esp
  00003	51		 push	 ecx
  00004	c7 45 fc cc cc
	cc cc		 mov	 DWORD PTR [ebp-4], -858993460 ; ccccccccH
  0000b	89 4d fc	 mov	 DWORD PTR _this$[ebp], ecx

; 802  : 		{	// copy initializing [_First, _Last), using allocator
; 803  : 		return (_Uninitialized_copy(_First, _Last,
; 804  : 			_Ptr, this->_Alval));

  0000e	8b 45 fc	 mov	 eax, DWORD PTR _this$[ebp]
  00011	50		 push	 eax
  00012	8b 4d 10	 mov	 ecx, DWORD PTR __Ptr$[ebp]
  00015	51		 push	 ecx
  00016	8b 55 0c	 mov	 edx, DWORD PTR __Last$[ebp]
  00019	52		 push	 edx
  0001a	8b 45 08	 mov	 eax, DWORD PTR __First$[ebp]
  0001d	50		 push	 eax
  0001e	e8 00 00 00 00	 call	 ??$_Uninitialized_copy@PAUOneLocalGame@@PAU1@V?$allocator@UOneLocalGame@@@std@@@std@@YAPAUOneLocalGame@@PAU1@00AAV?$allocator@UOneLocalGame@@@0@@Z ; std::_Uninitialized_copy<OneLocalGame *,OneLocalGame *,std::allocator<OneLocalGame> >
  00023	83 c4 10	 add	 esp, 16			; 00000010H

; 805  : 		}

  00026	83 c4 04	 add	 esp, 4
  00029	3b ec		 cmp	 ebp, esp
  0002b	e8 00 00 00 00	 call	 __RTC_CheckEsp
  00030	8b e5		 mov	 esp, ebp
  00032	5d		 pop	 ebp
  00033	c2 0c 00	 ret	 12			; 0000000cH
??$_Ucopy@PAUOneLocalGame@@@?$vector@UOneLocalGame@@V?$allocator@UOneLocalGame@@@std@@@std@@IAEPAUOneLocalGame@@PAU2@00@Z ENDP ; std::vector<OneLocalGame,std::allocator<OneLocalGame> >::_Ucopy<OneLocalGame *>
; Function compile flags: /Odt /RTCsu
; File d:\program files (x86)\microsoft visual studio .net 2003\vc7\include\xutility
_TEXT	ENDS
;	COMDAT ??$fill@PAUOneLocalGame@@U1@@std@@YAXPAUOneLocalGame@@0ABU1@@Z
_TEXT	SEGMENT
__First$ = 8						; size = 4
__Last$ = 12						; size = 4
__Val$ = 16						; size = 4
??$fill@PAUOneLocalGame@@U1@@std@@YAXPAUOneLocalGame@@0ABU1@@Z PROC NEAR ; std::fill<OneLocalGame *,OneLocalGame>, COMDAT

; 1134 : 	{	// copy _Val through [_First, _Last)

  00000	55		 push	 ebp
  00001	8b ec		 mov	 ebp, esp

; 1135 : 	for (; _First != _Last; ++_First)

  00003	eb 0b		 jmp	 SHORT $L191285
$L191286:
  00005	8b 45 08	 mov	 eax, DWORD PTR __First$[ebp]
  00008	05 90 00 00 00	 add	 eax, 144		; 00000090H
  0000d	89 45 08	 mov	 DWORD PTR __First$[ebp], eax
$L191285:
  00010	8b 4d 08	 mov	 ecx, DWORD PTR __First$[ebp]
  00013	3b 4d 0c	 cmp	 ecx, DWORD PTR __Last$[ebp]
  00016	74 0e		 je	 SHORT $L191284

; 1136 : 		*_First = _Val;

  00018	8b 55 10	 mov	 edx, DWORD PTR __Val$[ebp]
  0001b	52		 push	 edx
  0001c	8b 4d 08	 mov	 ecx, DWORD PTR __First$[ebp]
  0001f	e8 00 00 00 00	 call	 ??4OneLocalGame@@QAEAAU0@ABU0@@Z
  00024	eb df		 jmp	 SHORT $L191286
$L191284:

; 1137 : 	}

  00026	3b ec		 cmp	 ebp, esp
  00028	e8 00 00 00 00	 call	 __RTC_CheckEsp
  0002d	5d		 pop	 ebp
  0002e	c3		 ret	 0
??$fill@PAUOneLocalGame@@U1@@std@@YAXPAUOneLocalGame@@0ABU1@@Z ENDP ; std::fill<OneLocalGame *,OneLocalGame>
_TEXT	ENDS
PUBLIC	??$_Copy_backward_opt@PAUOneLocalGame@@PAU1@@std@@YAPAUOneLocalGame@@PAU1@00U_Nonscalar_ptr_iterator_tag@0@@Z ; std::_Copy_backward_opt<OneLocalGame *,OneLocalGame *>
; Function compile flags: /Odt /RTCsu
;	COMDAT ??$copy_backward@PAUOneLocalGame@@PAU1@@std@@YAPAUOneLocalGame@@PAU1@00@Z
_TEXT	SEGMENT
$T192951 = -1						; size = 1
__First$ = 8						; size = 4
__Last$ = 12						; size = 4
__Dest$ = 16						; size = 4
??$copy_backward@PAUOneLocalGame@@PAU1@@std@@YAPAUOneLocalGame@@PAU1@00@Z PROC NEAR ; std::copy_backward<OneLocalGame *,OneLocalGame *>, COMDAT

; 1067 : 	{	// copy [_First, _Last) backwards to [..., _Dest)

  00000	55		 push	 ebp
  00001	8b ec		 mov	 ebp, esp
  00003	51		 push	 ecx
  00004	c7 45 fc cc cc
	cc cc		 mov	 DWORD PTR [ebp-4], -858993460 ; ccccccccH

; 1068 : 	return (_Copy_backward_opt(_First, _Last, _Dest,
; 1069 : 		_Ptr_cat(_First, _Dest)));

  0000b	8d 45 10	 lea	 eax, DWORD PTR __Dest$[ebp]
  0000e	50		 push	 eax
  0000f	8d 4d 08	 lea	 ecx, DWORD PTR __First$[ebp]
  00012	51		 push	 ecx
  00013	e8 00 00 00 00	 call	 ??$_Ptr_cat@PAUOneLocalGame@@PAU1@@std@@YA?AU_Nonscalar_ptr_iterator_tag@0@AAPAUOneLocalGame@@0@Z ; std::_Ptr_cat<OneLocalGame *,OneLocalGame *>
  00018	83 c4 08	 add	 esp, 8
  0001b	88 45 ff	 mov	 BYTE PTR $T192951[ebp], al
  0001e	8a 55 ff	 mov	 dl, BYTE PTR $T192951[ebp]
  00021	52		 push	 edx
  00022	8b 45 10	 mov	 eax, DWORD PTR __Dest$[ebp]
  00025	50		 push	 eax
  00026	8b 4d 0c	 mov	 ecx, DWORD PTR __Last$[ebp]
  00029	51		 push	 ecx
  0002a	8b 55 08	 mov	 edx, DWORD PTR __First$[ebp]
  0002d	52		 push	 edx
  0002e	e8 00 00 00 00	 call	 ??$_Copy_backward_opt@PAUOneLocalGame@@PAU1@@std@@YAPAUOneLocalGame@@PAU1@00U_Nonscalar_ptr_iterator_tag@0@@Z ; std::_Copy_backward_opt<OneLocalGame *,OneLocalGame *>
  00033	83 c4 10	 add	 esp, 16			; 00000010H

; 1070 : 	}

  00036	83 c4 04	 add	 esp, 4
  00039	3b ec		 cmp	 ebp, esp
  0003b	e8 00 00 00 00	 call	 __RTC_CheckEsp
  00040	8b e5		 mov	 esp, ebp
  00042	5d		 pop	 ebp
  00043	c3		 ret	 0
??$copy_backward@PAUOneLocalGame@@PAU1@@std@@YAPAUOneLocalGame@@PAU1@00@Z ENDP ; std::copy_backward<OneLocalGame *,OneLocalGame *>
; Function compile flags: /Odt /RTCsu
; File d:\program files (x86)\microsoft visual studio .net 2003\vc7\include\xmemory
_TEXT	ENDS
;	COMDAT ??$_Allocate@UOneLocalGame@@@std@@YAPAUOneLocalGame@@IPAU1@@Z
_TEXT	SEGMENT
__Count$ = 8						; size = 4
___formal$ = 12						; size = 4
??$_Allocate@UOneLocalGame@@@std@@YAPAUOneLocalGame@@IPAU1@@Z PROC NEAR ; std::_Allocate<OneLocalGame>, COMDAT

; 33   : 	{	// allocate storage for _Count elements of type _Ty

  00000	55		 push	 ebp
  00001	8b ec		 mov	 ebp, esp

; 34   : 	return ((_Ty _FARQ *)operator new(_Count * sizeof (_Ty)));

  00003	8b 45 08	 mov	 eax, DWORD PTR __Count$[ebp]
  00006	69 c0 90 00 00
	00		 imul	 eax, 144		; 00000090H
  0000c	50		 push	 eax
  0000d	e8 00 00 00 00	 call	 ??2@YAPAXI@Z		; operator new
  00012	83 c4 04	 add	 esp, 4

; 35   : 	}

  00015	3b ec		 cmp	 ebp, esp
  00017	e8 00 00 00 00	 call	 __RTC_CheckEsp
  0001c	5d		 pop	 ebp
  0001d	c3		 ret	 0
??$_Allocate@UOneLocalGame@@@std@@YAPAUOneLocalGame@@IPAU1@@Z ENDP ; std::_Allocate<OneLocalGame>
; Function compile flags: /Odt /RTCsu
_TEXT	ENDS
;	COMDAT ??$?0PAVIMessageObserver@@@?$allocator@PAU_Node@?$_List_nod@PAVIMessageObserver@@V?$allocator@PAVIMessageObserver@@@std@@@std@@@std@@QAE@ABV?$allocator@PAVIMessageObserver@@@1@@Z
_TEXT	SEGMENT
_this$ = -4						; size = 4
___formal$ = 8						; size = 4
??$?0PAVIMessageObserver@@@?$allocator@PAU_Node@?$_List_nod@PAVIMessageObserver@@V?$allocator@PAVIMessageObserver@@@std@@@std@@@std@@QAE@ABV?$allocator@PAVIMessageObserver@@@1@@Z PROC NEAR ; std::allocator<std::_List_nod<IMessageObserver *,std::allocator<IMessageObserver *> >::_Node *>::allocator<std::_List_nod<IMessageObserver *,std::allocator<IMessageObserver *> >::_Node *><IMessageObserver *>, COMDAT
; _this$ = ecx

; 120  : 		allocator(const allocator<_Other>&)

  00000	55		 push	 ebp
  00001	8b ec		 mov	 ebp, esp
  00003	51		 push	 ecx
  00004	c7 45 fc cc cc
	cc cc		 mov	 DWORD PTR [ebp-4], -858993460 ; ccccccccH
  0000b	89 4d fc	 mov	 DWORD PTR _this$[ebp], ecx

; 121  : 		{	// construct from a related allocator (do nothing)
; 122  : 		}

  0000e	8b 45 fc	 mov	 eax, DWORD PTR _this$[ebp]
  00011	8b e5		 mov	 esp, ebp
  00013	5d		 pop	 ebp
  00014	c2 04 00	 ret	 4
??$?0PAVIMessageObserver@@@?$allocator@PAU_Node@?$_List_nod@PAVIMessageObserver@@V?$allocator@PAVIMessageObserver@@@std@@@std@@@std@@QAE@ABV?$allocator@PAVIMessageObserver@@@1@@Z ENDP ; std::allocator<std::_List_nod<IMessageObserver *,std::allocator<IMessageObserver *> >::_Node *>::allocator<std::_List_nod<IMessageObserver *,std::allocator<IMessageObserver *> >::_Node *><IMessageObserver *>
; Function compile flags: /Odt /RTCsu
_TEXT	ENDS
;	COMDAT ??$_Allocate@U_Node@?$_List_nod@PAVIMessageObserver@@V?$allocator@PAVIMessageObserver@@@std@@@std@@@std@@YAPAU_Node@?$_List_nod@PAVIMessageObserver@@V?$allocator@PAVIMessageObserver@@@std@@@0@IPAU120@@Z
_TEXT	SEGMENT
__Count$ = 8						; size = 4
___formal$ = 12						; size = 4
??$_Allocate@U_Node@?$_List_nod@PAVIMessageObserver@@V?$allocator@PAVIMessageObserver@@@std@@@std@@@std@@YAPAU_Node@?$_List_nod@PAVIMessageObserver@@V?$allocator@PAVIMessageObserver@@@std@@@0@IPAU120@@Z PROC NEAR ; std::_Allocate<std::_List_nod<IMessageObserver *,std::allocator<IMessageObserver *> >::_Node>, COMDAT

; 33   : 	{	// allocate storage for _Count elements of type _Ty

  00000	55		 push	 ebp
  00001	8b ec		 mov	 ebp, esp

; 34   : 	return ((_Ty _FARQ *)operator new(_Count * sizeof (_Ty)));

  00003	8b 45 08	 mov	 eax, DWORD PTR __Count$[ebp]
  00006	6b c0 0c	 imul	 eax, 12			; 0000000cH
  00009	50		 push	 eax
  0000a	e8 00 00 00 00	 call	 ??2@YAPAXI@Z		; operator new
  0000f	83 c4 04	 add	 esp, 4

; 35   : 	}

  00012	3b ec		 cmp	 ebp, esp
  00014	e8 00 00 00 00	 call	 __RTC_CheckEsp
  00019	5d		 pop	 ebp
  0001a	c3		 ret	 0
??$_Allocate@U_Node@?$_List_nod@PAVIMessageObserver@@V?$allocator@PAVIMessageObserver@@@std@@@std@@@std@@YAPAU_Node@?$_List_nod@PAVIMessageObserver@@V?$allocator@PAVIMessageObserver@@@std@@@0@IPAU120@@Z ENDP ; std::_Allocate<std::_List_nod<IMessageObserver *,std::allocator<IMessageObserver *> >::_Node>
_TEXT	ENDS
PUBLIC	??2@YAPAXIPAX@Z					; operator new
; Function compile flags: /Odt /RTCsu
;	COMDAT ??$_Construct@PAU_Node@?$_List_nod@PAVIMessageObserver@@V?$allocator@PAVIMessageObserver@@@std@@@std@@PAU123@@std@@YAXPAPAU_Node@?$_List_nod@PAVIMessageObserver@@V?$allocator@PAVIMessageObserver@@@std@@@0@ABQAU120@@Z
_TEXT	SEGMENT
tv68 = -8						; size = 4
$T192956 = -4						; size = 4
__Ptr$ = 8						; size = 4
__Val$ = 12						; size = 4
??$_Construct@PAU_Node@?$_List_nod@PAVIMessageObserver@@V?$allocator@PAVIMessageObserver@@@std@@@std@@PAU123@@std@@YAXPAPAU_Node@?$_List_nod@PAVIMessageObserver@@V?$allocator@PAVIMessageObserver@@@std@@@0@ABQAU120@@Z PROC NEAR ; std::_Construct<std::_List_nod<IMessageObserver *,std::allocator<IMessageObserver *> >::_Node *,std::_List_nod<IMessageObserver *,std::allocator<IMessageObserver *> >::_Node *>, COMDAT

; 41   : 	{	// construct object at _Ptr with value _Val

  00000	55		 push	 ebp
  00001	8b ec		 mov	 ebp, esp
  00003	83 ec 08	 sub	 esp, 8
  00006	c7 45 f8 cc cc
	cc cc		 mov	 DWORD PTR [ebp-8], -858993460 ; ccccccccH
  0000d	c7 45 fc cc cc
	cc cc		 mov	 DWORD PTR [ebp-4], -858993460 ; ccccccccH

; 42   : 	new ((void _FARQ *)_Ptr) _T1(_Val);

  00014	8b 45 08	 mov	 eax, DWORD PTR __Ptr$[ebp]
  00017	50		 push	 eax
  00018	6a 04		 push	 4
  0001a	e8 00 00 00 00	 call	 ??2@YAPAXIPAX@Z		; operator new
  0001f	83 c4 08	 add	 esp, 8
  00022	89 45 fc	 mov	 DWORD PTR $T192956[ebp], eax
  00025	83 7d fc 00	 cmp	 DWORD PTR $T192956[ebp], 0
  00029	74 12		 je	 SHORT $L192957
  0002b	8b 4d fc	 mov	 ecx, DWORD PTR $T192956[ebp]
  0002e	8b 55 0c	 mov	 edx, DWORD PTR __Val$[ebp]
  00031	8b 02		 mov	 eax, DWORD PTR [edx]
  00033	89 01		 mov	 DWORD PTR [ecx], eax
  00035	8b 4d fc	 mov	 ecx, DWORD PTR $T192956[ebp]
  00038	89 4d f8	 mov	 DWORD PTR tv68[ebp], ecx
  0003b	eb 07		 jmp	 SHORT $L191314
$L192957:
  0003d	c7 45 f8 00 00
	00 00		 mov	 DWORD PTR tv68[ebp], 0
$L191314:

; 43   : 	}

  00044	83 c4 08	 add	 esp, 8
  00047	3b ec		 cmp	 ebp, esp
  00049	e8 00 00 00 00	 call	 __RTC_CheckEsp
  0004e	8b e5		 mov	 esp, ebp
  00050	5d		 pop	 ebp
  00051	c3		 ret	 0
??$_Construct@PAU_Node@?$_List_nod@PAVIMessageObserver@@V?$allocator@PAVIMessageObserver@@@std@@@std@@PAU123@@std@@YAXPAPAU_Node@?$_List_nod@PAVIMessageObserver@@V?$allocator@PAVIMessageObserver@@@std@@@0@ABQAU120@@Z ENDP ; std::_Construct<std::_List_nod<IMessageObserver *,std::allocator<IMessageObserver *> >::_Node *,std::_List_nod<IMessageObserver *,std::allocator<IMessageObserver *> >::_Node *>
; Function compile flags: /Odt /RTCsu
; File d:\program files (x86)\microsoft visual studio .net 2003\vc7\include\new.h
_TEXT	ENDS
;	COMDAT ??2@YAPAXIPAX@Z
_TEXT	SEGMENT
___formal$ = 8						; size = 4
__P$ = 12						; size = 4
??2@YAPAXIPAX@Z PROC NEAR				; operator new, COMDAT

; 109  :         {return (_P); }

  00000	55		 push	 ebp
  00001	8b ec		 mov	 ebp, esp
  00003	8b 45 0c	 mov	 eax, DWORD PTR __P$[ebp]
  00006	5d		 pop	 ebp
  00007	c3		 ret	 0
??2@YAPAXIPAX@Z ENDP					; operator new
; Function compile flags: /Odt /RTCsu
; File d:\program files (x86)\microsoft visual studio .net 2003\vc7\include\xmemory
_TEXT	ENDS
;	COMDAT ??$_Destroy@PAU_Node@?$_List_nod@PAVIMessageObserver@@V?$allocator@PAVIMessageObserver@@@std@@@std@@@std@@YAXPAPAU_Node@?$_List_nod@PAVIMessageObserver@@V?$allocator@PAVIMessageObserver@@@std@@@0@@Z
_TEXT	SEGMENT
__Ptr$ = 8						; size = 4
??$_Destroy@PAU_Node@?$_List_nod@PAVIMessageObserver@@V?$allocator@PAVIMessageObserver@@@std@@@std@@@std@@YAXPAPAU_Node@?$_List_nod@PAVIMessageObserver@@V?$allocator@PAVIMessageObserver@@@std@@@0@@Z PROC NEAR ; std::_Destroy<std::_List_nod<IMessageObserver *,std::allocator<IMessageObserver *> >::_Node *>, COMDAT

; 48   : 	{	// destroy object at _Ptr

  00000	55		 push	 ebp
  00001	8b ec		 mov	 ebp, esp

; 49   : 	_DESTRUCTOR(_Ty, _Ptr);
; 50   : 	}

  00003	5d		 pop	 ebp
  00004	c3		 ret	 0
??$_Destroy@PAU_Node@?$_List_nod@PAVIMessageObserver@@V?$allocator@PAVIMessageObserver@@@std@@@std@@@std@@YAXPAPAU_Node@?$_List_nod@PAVIMessageObserver@@V?$allocator@PAVIMessageObserver@@@std@@@0@@Z ENDP ; std::_Destroy<std::_List_nod<IMessageObserver *,std::allocator<IMessageObserver *> >::_Node *>
; Function compile flags: /Odt /RTCsu
_TEXT	ENDS
;	COMDAT ??$?0PAVIMessageObserver@@@?$allocator@U_Node@?$_List_nod@PAVIMessageObserver@@V?$allocator@PAVIMessageObserver@@@std@@@std@@@std@@QAE@ABV?$allocator@PAVIMessageObserver@@@1@@Z
_TEXT	SEGMENT
_this$ = -4						; size = 4
___formal$ = 8						; size = 4
??$?0PAVIMessageObserver@@@?$allocator@U_Node@?$_List_nod@PAVIMessageObserver@@V?$allocator@PAVIMessageObserver@@@std@@@std@@@std@@QAE@ABV?$allocator@PAVIMessageObserver@@@1@@Z PROC NEAR ; std::allocator<std::_List_nod<IMessageObserver *,std::allocator<IMessageObserver *> >::_Node>::allocator<std::_List_nod<IMessageObserver *,std::allocator<IMessageObserver *> >::_Node><IMessageObserver *>, COMDAT
; _this$ = ecx

; 120  : 		allocator(const allocator<_Other>&)

  00000	55		 push	 ebp
  00001	8b ec		 mov	 ebp, esp
  00003	51		 push	 ecx
  00004	c7 45 fc cc cc
	cc cc		 mov	 DWORD PTR [ebp-4], -858993460 ; ccccccccH
  0000b	89 4d fc	 mov	 DWORD PTR _this$[ebp], ecx

; 121  : 		{	// construct from a related allocator (do nothing)
; 122  : 		}

  0000e	8b 45 fc	 mov	 eax, DWORD PTR _this$[ebp]
  00011	8b e5		 mov	 esp, ebp
  00013	5d		 pop	 ebp
  00014	c2 04 00	 ret	 4
??$?0PAVIMessageObserver@@@?$allocator@U_Node@?$_List_nod@PAVIMessageObserver@@V?$allocator@PAVIMessageObserver@@@std@@@std@@@std@@QAE@ABV?$allocator@PAVIMessageObserver@@@1@@Z ENDP ; std::allocator<std::_List_nod<IMessageObserver *,std::allocator<IMessageObserver *> >::_Node>::allocator<std::_List_nod<IMessageObserver *,std::allocator<IMessageObserver *> >::_Node><IMessageObserver *>
; Function compile flags: /Odt /RTCsu
_TEXT	ENDS
;	COMDAT ??$_Destroy@U_Node@?$_List_nod@PAVIMessageObserver@@V?$allocator@PAVIMessageObserver@@@std@@@std@@@std@@YAXPAU_Node@?$_List_nod@PAVIMessageObserver@@V?$allocator@PAVIMessageObserver@@@std@@@0@@Z
_TEXT	SEGMENT
__Ptr$ = 8						; size = 4
??$_Destroy@U_Node@?$_List_nod@PAVIMessageObserver@@V?$allocator@PAVIMessageObserver@@@std@@@std@@@std@@YAXPAU_Node@?$_List_nod@PAVIMessageObserver@@V?$allocator@PAVIMessageObserver@@@std@@@0@@Z PROC NEAR ; std::_Destroy<std::_List_nod<IMessageObserver *,std::allocator<IMessageObserver *> >::_Node>, COMDAT

; 48   : 	{	// destroy object at _Ptr

  00000	55		 push	 ebp
  00001	8b ec		 mov	 ebp, esp

; 49   : 	_DESTRUCTOR(_Ty, _Ptr);
; 50   : 	}

  00003	5d		 pop	 ebp
  00004	c3		 ret	 0
??$_Destroy@U_Node@?$_List_nod@PAVIMessageObserver@@V?$allocator@PAVIMessageObserver@@@std@@@std@@@std@@YAXPAU_Node@?$_List_nod@PAVIMessageObserver@@V?$allocator@PAVIMessageObserver@@@std@@@0@@Z ENDP ; std::_Destroy<std::_List_nod<IMessageObserver *,std::allocator<IMessageObserver *> >::_Node>
_TEXT	ENDS
EXTRN	??3CObject@@SGXPAX@Z:NEAR			; CObject::operator delete
; Function compile flags: /Odt /RTCsu
;	COMDAT ??_G?$CArray@UElemPos@CMarkup@@AAU12@@@UAEPAXI@Z
_TEXT	SEGMENT
_this$ = -4						; size = 4
___flags$ = 8						; size = 4
??_G?$CArray@UElemPos@CMarkup@@AAU12@@@UAEPAXI@Z PROC NEAR ; CArray<CMarkup::ElemPos,CMarkup::ElemPos &>::`scalar deleting destructor', COMDAT
; _this$ = ecx
  00000	55		 push	 ebp
  00001	8b ec		 mov	 ebp, esp
  00003	51		 push	 ecx
  00004	c7 45 fc cc cc
	cc cc		 mov	 DWORD PTR [ebp-4], -858993460 ; ccccccccH
  0000b	89 4d fc	 mov	 DWORD PTR _this$[ebp], ecx
  0000e	8b 4d fc	 mov	 ecx, DWORD PTR _this$[ebp]
  00011	e8 00 00 00 00	 call	 ??1?$CArray@UElemPos@CMarkup@@AAU12@@@UAE@XZ ; CArray<CMarkup::ElemPos,CMarkup::ElemPos &>::~CArray<CMarkup::ElemPos,CMarkup::ElemPos &>
  00016	8b 45 08	 mov	 eax, DWORD PTR ___flags$[ebp]
  00019	83 e0 01	 and	 eax, 1
  0001c	74 09		 je	 SHORT $L191325
  0001e	8b 4d fc	 mov	 ecx, DWORD PTR _this$[ebp]
  00021	51		 push	 ecx
  00022	e8 00 00 00 00	 call	 ??3CObject@@SGXPAX@Z	; CObject::operator delete
$L191325:
  00027	8b 45 fc	 mov	 eax, DWORD PTR _this$[ebp]
  0002a	83 c4 04	 add	 esp, 4
  0002d	3b ec		 cmp	 ebp, esp
  0002f	e8 00 00 00 00	 call	 __RTC_CheckEsp
  00034	8b e5		 mov	 esp, ebp
  00036	5d		 pop	 ebp
  00037	c2 04 00	 ret	 4
??_G?$CArray@UElemPos@CMarkup@@AAU12@@@UAEPAXI@Z ENDP	; CArray<CMarkup::ElemPos,CMarkup::ElemPos &>::`scalar deleting destructor'
; Function compile flags: /Odt /RTCsu
; File d:\program files (x86)\microsoft visual studio .net 2003\vc7\include\iterator
_TEXT	ENDS
;	COMDAT ??0?$back_insert_iterator@V?$vector@UOneLocalGame@@V?$allocator@UOneLocalGame@@@std@@@std@@@std@@QAE@AAV?$vector@UOneLocalGame@@V?$allocator@UOneLocalGame@@@std@@@1@@Z
_TEXT	SEGMENT
_this$ = -4						; size = 4
__Cont$ = 8						; size = 4
??0?$back_insert_iterator@V?$vector@UOneLocalGame@@V?$allocator@UOneLocalGame@@@std@@@std@@@std@@QAE@AAV?$vector@UOneLocalGame@@V?$allocator@UOneLocalGame@@@std@@@1@@Z PROC NEAR ; std::back_insert_iterator<std::vector<OneLocalGame,std::allocator<OneLocalGame> > >::back_insert_iterator<std::vector<OneLocalGame,std::allocator<OneLocalGame> > >, COMDAT
; _this$ = ecx

; 23   : 		{	// construct with container

  00000	55		 push	 ebp
  00001	8b ec		 mov	 ebp, esp
  00003	51		 push	 ecx
  00004	c7 45 fc cc cc
	cc cc		 mov	 DWORD PTR [ebp-4], -858993460 ; ccccccccH
  0000b	89 4d fc	 mov	 DWORD PTR _this$[ebp], ecx
  0000e	8b 45 fc	 mov	 eax, DWORD PTR _this$[ebp]
  00011	8b 4d 08	 mov	 ecx, DWORD PTR __Cont$[ebp]
  00014	89 08		 mov	 DWORD PTR [eax], ecx

; 24   : 		}

  00016	8b 45 fc	 mov	 eax, DWORD PTR _this$[ebp]
  00019	8b e5		 mov	 esp, ebp
  0001b	5d		 pop	 ebp
  0001c	c2 04 00	 ret	 4
??0?$back_insert_iterator@V?$vector@UOneLocalGame@@V?$allocator@UOneLocalGame@@@std@@@std@@@std@@QAE@AAV?$vector@UOneLocalGame@@V?$allocator@UOneLocalGame@@@std@@@1@@Z ENDP ; std::back_insert_iterator<std::vector<OneLocalGame,std::allocator<OneLocalGame> > >::back_insert_iterator<std::vector<OneLocalGame,std::allocator<OneLocalGame> > >
_TEXT	ENDS
PUBLIC	??3@YAXPAX0@Z					; operator delete
PUBLIC	??0ElemPos@CMarkup@@QAE@XZ			; CMarkup::ElemPos::ElemPos
EXTRN	??_U@YAPAXI@Z:NEAR				; operator new[]
EXTRN	?AfxThrowInvalidArgException@@YGXXZ:NEAR	; AfxThrowInvalidArgException
EXTRN	??_U@YAPAXIPBDH@Z:NEAR				; operator new[]
EXTRN	_memcpy:NEAR
EXTRN	_memset:NEAR
;	COMDAT xdata$x
; File d:\program files (x86)\microsoft visual studio .net 2003\vc7\atlmfc\include\afxtempl.h
xdata$x	SEGMENT
$T192999 DD	0ffffffffH
	DD	FLAT:$L192993
	DD	0ffffffffH
	DD	FLAT:$L192994
	DD	0ffffffffH
	DD	FLAT:$L192995
$T192997 DD	019930520H
	DD	03H
	DD	FLAT:$T192999
	DD	2 DUP(00H)
	DD	2 DUP(00H)
; Function compile flags: /Odt /RTCsu
xdata$x	ENDS
;	COMDAT ?SetSize@?$CArray@UElemPos@CMarkup@@AAU12@@@QAEXHH@Z
_TEXT	SEGMENT
tv283 = -112						; size = 4
tv213 = -108						; size = 4
tv214 = -104						; size = 4
tv200 = -100						; size = 4
tv159 = -96						; size = 4
tv130 = -92						; size = 4
$T192992 = -88						; size = 4
$T192989 = -84						; size = 4
$T192988 = -80						; size = 4
$T192986 = -76						; size = 4
$T192977 = -72						; size = 4
$T192976 = -68						; size = 4
$T192973 = -64						; size = 4
$T192972 = -60						; size = 4
$T192971 = -56						; size = 4
$T192967 = -52						; size = 4
_i$191419 = -48						; size = 4
_pNewData$191406 = -44					; size = 4
_nNewMax$191397 = -40					; size = 4
_i$191391 = -36						; size = 4
_i$191379 = -32						; size = 4
_i$191363 = -28						; size = 4
_nAllocSize$191353 = -24				; size = 4
_i$191342 = -20						; size = 4
_this$ = -16						; size = 4
__$EHRec$ = -12						; size = 12
_nNewSize$ = 8						; size = 4
_nGrowBy$ = 12						; size = 4
?SetSize@?$CArray@UElemPos@CMarkup@@AAU12@@@QAEXHH@Z PROC NEAR ; CArray<CMarkup::ElemPos,CMarkup::ElemPos &>::SetSize, COMDAT
; _this$ = ecx

; 369  : {

  00000	55		 push	 ebp
  00001	8b ec		 mov	 ebp, esp
  00003	6a ff		 push	 -1
  00005	68 00 00 00 00	 push	 __ehhandler$?SetSize@?$CArray@UElemPos@CMarkup@@AAU12@@@QAEXHH@Z
  0000a	64 a1 00 00 00
	00		 mov	 eax, DWORD PTR fs:__except_list
  00010	50		 push	 eax
  00011	64 89 25 00 00
	00 00		 mov	 DWORD PTR fs:__except_list, esp
  00018	83 ec 64	 sub	 esp, 100		; 00000064H
  0001b	57		 push	 edi
  0001c	51		 push	 ecx
  0001d	8d 7d 90	 lea	 edi, DWORD PTR [ebp-112]
  00020	b9 19 00 00 00	 mov	 ecx, 25			; 00000019H
  00025	b8 cc cc cc cc	 mov	 eax, -858993460		; ccccccccH
  0002a	f3 ab		 rep stosd
  0002c	59		 pop	 ecx
  0002d	89 4d f0	 mov	 DWORD PTR _this$[ebp], ecx

; 370  : 	ASSERT_VALID(this);

  00030	68 72 01 00 00	 push	 370			; 00000172H
  00035	68 00 00 00 00	 push	 OFFSET FLAT:$SG191335
  0003a	8b 45 f0	 mov	 eax, DWORD PTR _this$[ebp]
  0003d	50		 push	 eax
  0003e	e8 00 00 00 00	 call	 ?AfxAssertValidObject@@YGXPBVCObject@@PBDH@Z ; AfxAssertValidObject

; 371  : 	ASSERT(nNewSize >= 0);

  00043	83 7d 08 00	 cmp	 DWORD PTR _nNewSize$[ebp], 0
  00047	7d 14		 jge	 SHORT $L192966
  00049	68 73 01 00 00	 push	 371			; 00000173H
  0004e	68 00 00 00 00	 push	 OFFSET FLAT:$SG191337
  00053	e8 00 00 00 00	 call	 ?AfxAssertFailedLine@@YGHPBDH@Z ; AfxAssertFailedLine
  00058	85 c0		 test	 eax, eax
  0005a	74 01		 je	 SHORT $L192966
  0005c	cc		 int	 3
$L192966:

; 372  : 
; 373  : 	if(nNewSize < 0 )

  0005d	83 7d 08 00	 cmp	 DWORD PTR _nNewSize$[ebp], 0
  00061	7d 05		 jge	 SHORT $L191338

; 374  : 		AfxThrowInvalidArgException();

  00063	e8 00 00 00 00	 call	 ?AfxThrowInvalidArgException@@YGXXZ ; AfxThrowInvalidArgException
$L191338:

; 375  : 
; 376  : 	if (nGrowBy >= 0)

  00068	83 7d 0c 00	 cmp	 DWORD PTR _nGrowBy$[ebp], 0
  0006c	7c 09		 jl	 SHORT $L191339

; 377  : 		m_nGrowBy = nGrowBy;  // set new size

  0006e	8b 55 f0	 mov	 edx, DWORD PTR _this$[ebp]
  00071	8b 45 0c	 mov	 eax, DWORD PTR _nGrowBy$[ebp]
  00074	89 42 10	 mov	 DWORD PTR [edx+16], eax
$L191339:

; 378  : 
; 379  : 	if (nNewSize == 0)

  00077	83 7d 08 00	 cmp	 DWORD PTR _nNewSize$[ebp], 0
  0007b	75 60		 jne	 SHORT $L191340

; 380  : 	{
; 381  : 		// shrink to nothing
; 382  : 		if (m_pData != NULL)

  0007d	8b 4d f0	 mov	 ecx, DWORD PTR _this$[ebp]
  00080	83 79 04 00	 cmp	 DWORD PTR [ecx+4], 0
  00084	74 3e		 je	 SHORT $L191341

; 383  : 		{
; 384  : 			for( int i = 0; i < m_nSize; i++ )

  00086	c7 45 ec 00 00
	00 00		 mov	 DWORD PTR _i$191342[ebp], 0
  0008d	eb 09		 jmp	 SHORT $L191343
$L191344:
  0008f	8b 55 ec	 mov	 edx, DWORD PTR _i$191342[ebp]
  00092	83 c2 01	 add	 edx, 1
  00095	89 55 ec	 mov	 DWORD PTR _i$191342[ebp], edx
$L191343:
  00098	8b 45 f0	 mov	 eax, DWORD PTR _this$[ebp]
  0009b	8b 4d ec	 mov	 ecx, DWORD PTR _i$191342[ebp]
  0009e	3b 48 08	 cmp	 ecx, DWORD PTR [eax+8]
  000a1	7d 02		 jge	 SHORT $L191345

; 385  : 				(m_pData + i)->~TYPE();

  000a3	eb ea		 jmp	 SHORT $L191344
$L191345:

; 386  : 			delete[] (BYTE*)m_pData;

  000a5	8b 55 f0	 mov	 edx, DWORD PTR _this$[ebp]
  000a8	8b 42 04	 mov	 eax, DWORD PTR [edx+4]
  000ab	89 45 cc	 mov	 DWORD PTR $T192967[ebp], eax
  000ae	8b 4d cc	 mov	 ecx, DWORD PTR $T192967[ebp]
  000b1	51		 push	 ecx
  000b2	e8 00 00 00 00	 call	 ??_V@YAXPAX@Z		; operator delete[]
  000b7	83 c4 04	 add	 esp, 4

; 387  : 			m_pData = NULL;

  000ba	8b 55 f0	 mov	 edx, DWORD PTR _this$[ebp]
  000bd	c7 42 04 00 00
	00 00		 mov	 DWORD PTR [edx+4], 0
$L191341:

; 388  : 		}
; 389  : 		m_nSize = m_nMaxSize = 0;

  000c4	8b 45 f0	 mov	 eax, DWORD PTR _this$[ebp]
  000c7	c7 40 0c 00 00
	00 00		 mov	 DWORD PTR [eax+12], 0
  000ce	8b 4d f0	 mov	 ecx, DWORD PTR _this$[ebp]
  000d1	c7 41 08 00 00
	00 00		 mov	 DWORD PTR [ecx+8], 0

; 390  : 	}
; 391  : 	else if (m_pData == NULL)

  000d8	e9 d9 03 00 00	 jmp	 $L192965
$L191340:
  000dd	8b 55 f0	 mov	 edx, DWORD PTR _this$[ebp]
  000e0	83 7a 04 00	 cmp	 DWORD PTR [edx+4], 0
  000e4	0f 85 f7 00 00
	00		 jne	 $L191349

; 392  : 	{
; 393  : 		// create buffer big enough to hold number of requested elements or
; 394  : 		// m_nGrowBy elements, whichever is larger.
; 395  : #ifdef SIZE_T_MAX
; 396  : 		ASSERT(nNewSize <= SIZE_T_MAX/sizeof(TYPE));    // no overflow

  000ea	81 7d 08 ff ff
	ff 07		 cmp	 DWORD PTR _nNewSize$[ebp], 134217727 ; 07ffffffH
  000f1	76 14		 jbe	 SHORT $L192968
  000f3	68 8c 01 00 00	 push	 396			; 0000018cH
  000f8	68 00 00 00 00	 push	 OFFSET FLAT:$SG191352
  000fd	e8 00 00 00 00	 call	 ?AfxAssertFailedLine@@YGHPBDH@Z ; AfxAssertFailedLine
  00102	85 c0		 test	 eax, eax
  00104	74 01		 je	 SHORT $L192968
  00106	cc		 int	 3
$L192968:

; 397  : #endif
; 398  : 		size_t nAllocSize = max(nNewSize, m_nGrowBy);

  00107	8b 4d f0	 mov	 ecx, DWORD PTR _this$[ebp]
  0010a	8b 55 08	 mov	 edx, DWORD PTR _nNewSize$[ebp]
  0010d	3b 51 10	 cmp	 edx, DWORD PTR [ecx+16]
  00110	7e 08		 jle	 SHORT $L192969
  00112	8b 45 08	 mov	 eax, DWORD PTR _nNewSize$[ebp]
  00115	89 45 a4	 mov	 DWORD PTR tv130[ebp], eax
  00118	eb 09		 jmp	 SHORT $L192970
$L192969:
  0011a	8b 4d f0	 mov	 ecx, DWORD PTR _this$[ebp]
  0011d	8b 51 10	 mov	 edx, DWORD PTR [ecx+16]
  00120	89 55 a4	 mov	 DWORD PTR tv130[ebp], edx
$L192970:
  00123	8b 45 a4	 mov	 eax, DWORD PTR tv130[ebp]
  00126	89 45 e8	 mov	 DWORD PTR _nAllocSize$191353[ebp], eax

; 399  : 		m_pData = (TYPE*) new BYTE[(size_t)nAllocSize * sizeof(TYPE)];

  00129	68 8f 01 00 00	 push	 399			; 0000018fH
  0012e	68 00 00 00 00	 push	 OFFSET FLAT:$SG191359
  00133	8b 4d e8	 mov	 ecx, DWORD PTR _nAllocSize$191353[ebp]
  00136	c1 e1 05	 shl	 ecx, 5
  00139	51		 push	 ecx
  0013a	e8 00 00 00 00	 call	 ??_U@YAPAXIPBDH@Z	; operator new[]
  0013f	83 c4 0c	 add	 esp, 12			; 0000000cH
  00142	89 45 c8	 mov	 DWORD PTR $T192971[ebp], eax
  00145	8b 55 f0	 mov	 edx, DWORD PTR _this$[ebp]
  00148	8b 45 c8	 mov	 eax, DWORD PTR $T192971[ebp]
  0014b	89 42 04	 mov	 DWORD PTR [edx+4], eax

; 400  : 		memset((void*)m_pData, 0, (size_t)nAllocSize * sizeof(TYPE));

  0014e	8b 4d e8	 mov	 ecx, DWORD PTR _nAllocSize$191353[ebp]
  00151	c1 e1 05	 shl	 ecx, 5
  00154	51		 push	 ecx
  00155	6a 00		 push	 0
  00157	8b 55 f0	 mov	 edx, DWORD PTR _this$[ebp]
  0015a	8b 42 04	 mov	 eax, DWORD PTR [edx+4]
  0015d	50		 push	 eax
  0015e	e8 00 00 00 00	 call	 _memset
  00163	83 c4 0c	 add	 esp, 12			; 0000000cH

; 401  : 		for( int i = 0; i < nNewSize; i++ )

  00166	c7 45 e4 00 00
	00 00		 mov	 DWORD PTR _i$191363[ebp], 0
  0016d	eb 09		 jmp	 SHORT $L191364
$L191365:
  0016f	8b 4d e4	 mov	 ecx, DWORD PTR _i$191363[ebp]
  00172	83 c1 01	 add	 ecx, 1
  00175	89 4d e4	 mov	 DWORD PTR _i$191363[ebp], ecx
$L191364:
  00178	8b 55 e4	 mov	 edx, DWORD PTR _i$191363[ebp]
  0017b	3b 55 08	 cmp	 edx, DWORD PTR _nNewSize$[ebp]
  0017e	7d 4a		 jge	 SHORT $L191366

; 402  : #pragma push_macro("new")
; 403  : #undef new
; 404  : 			::new( (void*)( m_pData + i ) ) TYPE;

  00180	8b 45 e4	 mov	 eax, DWORD PTR _i$191363[ebp]
  00183	c1 e0 05	 shl	 eax, 5
  00186	8b 4d f0	 mov	 ecx, DWORD PTR _this$[ebp]
  00189	03 41 04	 add	 eax, DWORD PTR [ecx+4]
  0018c	50		 push	 eax
  0018d	6a 20		 push	 32			; 00000020H
  0018f	e8 00 00 00 00	 call	 ??2@YAPAXIPAX@Z		; operator new
  00194	83 c4 08	 add	 esp, 8
  00197	89 45 c0	 mov	 DWORD PTR $T192973[ebp], eax
  0019a	c7 45 fc 00 00
	00 00		 mov	 DWORD PTR __$EHRec$[ebp+8], 0
  001a1	83 7d c0 00	 cmp	 DWORD PTR $T192973[ebp], 0
  001a5	74 0d		 je	 SHORT $L192974
  001a7	8b 4d c0	 mov	 ecx, DWORD PTR $T192973[ebp]
  001aa	e8 00 00 00 00	 call	 ??0ElemPos@CMarkup@@QAE@XZ ; CMarkup::ElemPos::ElemPos
  001af	89 45 a0	 mov	 DWORD PTR tv159[ebp], eax
  001b2	eb 07		 jmp	 SHORT $L192975
$L192974:
  001b4	c7 45 a0 00 00
	00 00		 mov	 DWORD PTR tv159[ebp], 0
$L192975:
  001bb	8b 55 a0	 mov	 edx, DWORD PTR tv159[ebp]
  001be	89 55 c4	 mov	 DWORD PTR $T192972[ebp], edx
  001c1	c7 45 fc ff ff
	ff ff		 mov	 DWORD PTR __$EHRec$[ebp+8], -1
  001c8	eb a5		 jmp	 SHORT $L191365
$L191366:

; 405  : #pragma pop_macro("new")
; 406  : 		m_nSize = nNewSize;

  001ca	8b 45 f0	 mov	 eax, DWORD PTR _this$[ebp]
  001cd	8b 4d 08	 mov	 ecx, DWORD PTR _nNewSize$[ebp]
  001d0	89 48 08	 mov	 DWORD PTR [eax+8], ecx

; 407  : 		m_nMaxSize = nAllocSize;

  001d3	8b 55 f0	 mov	 edx, DWORD PTR _this$[ebp]
  001d6	8b 45 e8	 mov	 eax, DWORD PTR _nAllocSize$191353[ebp]
  001d9	89 42 0c	 mov	 DWORD PTR [edx+12], eax

; 408  : 	}
; 409  : 	else if (nNewSize <= m_nMaxSize)

  001dc	e9 d5 02 00 00	 jmp	 $L192965
$L191349:
  001e1	8b 4d f0	 mov	 ecx, DWORD PTR _this$[ebp]
  001e4	8b 55 08	 mov	 edx, DWORD PTR _nNewSize$[ebp]
  001e7	3b 51 0c	 cmp	 edx, DWORD PTR [ecx+12]
  001ea	0f 8f ea 00 00
	00		 jg	 $L191374

; 410  : 	{
; 411  : 		// it fits
; 412  : 		if (nNewSize > m_nSize)

  001f0	8b 45 f0	 mov	 eax, DWORD PTR _this$[ebp]
  001f3	8b 4d 08	 mov	 ecx, DWORD PTR _nNewSize$[ebp]
  001f6	3b 48 08	 cmp	 ecx, DWORD PTR [eax+8]
  001f9	0f 8e a0 00 00
	00		 jle	 $L191375

; 413  : 		{
; 414  : 			// initialize the new elements
; 415  : 			memset((void*)(m_pData + m_nSize), 0, (size_t)(nNewSize-m_nSize) * sizeof(TYPE));

  001ff	8b 55 f0	 mov	 edx, DWORD PTR _this$[ebp]
  00202	8b 45 08	 mov	 eax, DWORD PTR _nNewSize$[ebp]
  00205	2b 42 08	 sub	 eax, DWORD PTR [edx+8]
  00208	c1 e0 05	 shl	 eax, 5
  0020b	50		 push	 eax
  0020c	6a 00		 push	 0
  0020e	8b 4d f0	 mov	 ecx, DWORD PTR _this$[ebp]
  00211	8b 51 08	 mov	 edx, DWORD PTR [ecx+8]
  00214	c1 e2 05	 shl	 edx, 5
  00217	8b 45 f0	 mov	 eax, DWORD PTR _this$[ebp]
  0021a	03 50 04	 add	 edx, DWORD PTR [eax+4]
  0021d	52		 push	 edx
  0021e	e8 00 00 00 00	 call	 _memset
  00223	83 c4 0c	 add	 esp, 12			; 0000000cH

; 416  : 			for( int i = 0; i < nNewSize-m_nSize; i++ )

  00226	c7 45 e0 00 00
	00 00		 mov	 DWORD PTR _i$191379[ebp], 0
  0022d	eb 09		 jmp	 SHORT $L191380
$L191381:
  0022f	8b 4d e0	 mov	 ecx, DWORD PTR _i$191379[ebp]
  00232	83 c1 01	 add	 ecx, 1
  00235	89 4d e0	 mov	 DWORD PTR _i$191379[ebp], ecx
$L191380:
  00238	8b 55 f0	 mov	 edx, DWORD PTR _this$[ebp]
  0023b	8b 45 08	 mov	 eax, DWORD PTR _nNewSize$[ebp]
  0023e	2b 42 08	 sub	 eax, DWORD PTR [edx+8]
  00241	39 45 e0	 cmp	 DWORD PTR _i$191379[ebp], eax
  00244	7d 57		 jge	 SHORT $L191382

; 417  : #pragma push_macro("new")
; 418  : #undef new
; 419  : 				::new( (void*)( m_pData + m_nSize + i ) ) TYPE;

  00246	8b 4d f0	 mov	 ecx, DWORD PTR _this$[ebp]
  00249	8b 51 08	 mov	 edx, DWORD PTR [ecx+8]
  0024c	c1 e2 05	 shl	 edx, 5
  0024f	8b 45 f0	 mov	 eax, DWORD PTR _this$[ebp]
  00252	8b 48 04	 mov	 ecx, DWORD PTR [eax+4]
  00255	03 ca		 add	 ecx, edx
  00257	8b 55 e0	 mov	 edx, DWORD PTR _i$191379[ebp]
  0025a	c1 e2 05	 shl	 edx, 5
  0025d	03 ca		 add	 ecx, edx
  0025f	51		 push	 ecx
  00260	6a 20		 push	 32			; 00000020H
  00262	e8 00 00 00 00	 call	 ??2@YAPAXIPAX@Z		; operator new
  00267	83 c4 08	 add	 esp, 8
  0026a	89 45 b8	 mov	 DWORD PTR $T192977[ebp], eax
  0026d	c7 45 fc 01 00
	00 00		 mov	 DWORD PTR __$EHRec$[ebp+8], 1
  00274	83 7d b8 00	 cmp	 DWORD PTR $T192977[ebp], 0
  00278	74 0d		 je	 SHORT $L192978
  0027a	8b 4d b8	 mov	 ecx, DWORD PTR $T192977[ebp]
  0027d	e8 00 00 00 00	 call	 ??0ElemPos@CMarkup@@QAE@XZ ; CMarkup::ElemPos::ElemPos
  00282	89 45 9c	 mov	 DWORD PTR tv200[ebp], eax
  00285	eb 07		 jmp	 SHORT $L192979
$L192978:
  00287	c7 45 9c 00 00
	00 00		 mov	 DWORD PTR tv200[ebp], 0
$L192979:
  0028e	8b 45 9c	 mov	 eax, DWORD PTR tv200[ebp]
  00291	89 45 bc	 mov	 DWORD PTR $T192976[ebp], eax
  00294	c7 45 fc ff ff
	ff ff		 mov	 DWORD PTR __$EHRec$[ebp+8], -1
  0029b	eb 92		 jmp	 SHORT $L191381
$L191382:

; 420  : #pragma pop_macro("new")
; 421  : 		}
; 422  : 		else if (m_nSize > nNewSize)

  0029d	eb 2d		 jmp	 SHORT $L191389
$L191375:
  0029f	8b 4d f0	 mov	 ecx, DWORD PTR _this$[ebp]
  002a2	8b 51 08	 mov	 edx, DWORD PTR [ecx+8]
  002a5	3b 55 08	 cmp	 edx, DWORD PTR _nNewSize$[ebp]
  002a8	7e 22		 jle	 SHORT $L191389

; 423  : 		{
; 424  : 			// destroy the old elements
; 425  : 			for( int i = 0; i < m_nSize-nNewSize; i++ )

  002aa	c7 45 dc 00 00
	00 00		 mov	 DWORD PTR _i$191391[ebp], 0
  002b1	eb 09		 jmp	 SHORT $L191392
$L191393:
  002b3	8b 45 dc	 mov	 eax, DWORD PTR _i$191391[ebp]
  002b6	83 c0 01	 add	 eax, 1
  002b9	89 45 dc	 mov	 DWORD PTR _i$191391[ebp], eax
$L191392:
  002bc	8b 4d f0	 mov	 ecx, DWORD PTR _this$[ebp]
  002bf	8b 51 08	 mov	 edx, DWORD PTR [ecx+8]
  002c2	2b 55 08	 sub	 edx, DWORD PTR _nNewSize$[ebp]
  002c5	39 55 dc	 cmp	 DWORD PTR _i$191391[ebp], edx
  002c8	7d 02		 jge	 SHORT $L191389

; 426  : 				(m_pData + nNewSize + i)->~TYPE();

  002ca	eb e7		 jmp	 SHORT $L191393
$L191389:

; 427  : 		}
; 428  : 		m_nSize = nNewSize;

  002cc	8b 45 f0	 mov	 eax, DWORD PTR _this$[ebp]
  002cf	8b 4d 08	 mov	 ecx, DWORD PTR _nNewSize$[ebp]
  002d2	89 48 08	 mov	 DWORD PTR [eax+8], ecx

; 429  : 	}
; 430  : 	else

  002d5	e9 dc 01 00 00	 jmp	 $L192965
$L191374:

; 431  : 	{
; 432  : 		// otherwise, grow array
; 433  : 		nGrowBy = m_nGrowBy;

  002da	8b 55 f0	 mov	 edx, DWORD PTR _this$[ebp]
  002dd	8b 42 10	 mov	 eax, DWORD PTR [edx+16]
  002e0	89 45 0c	 mov	 DWORD PTR _nGrowBy$[ebp], eax

; 434  : 		if (nGrowBy == 0)

  002e3	83 7d 0c 00	 cmp	 DWORD PTR _nGrowBy$[ebp], 0
  002e7	75 45		 jne	 SHORT $L191396

; 435  : 		{
; 436  : 			// heuristically determine growth when nGrowBy == 0
; 437  : 			//  (this avoids heap fragmentation in many situations)
; 438  : 			nGrowBy = m_nSize / 8;

  002e9	8b 4d f0	 mov	 ecx, DWORD PTR _this$[ebp]
  002ec	8b 41 08	 mov	 eax, DWORD PTR [ecx+8]
  002ef	99		 cdq
  002f0	83 e2 07	 and	 edx, 7
  002f3	03 c2		 add	 eax, edx
  002f5	c1 f8 03	 sar	 eax, 3
  002f8	89 45 0c	 mov	 DWORD PTR _nGrowBy$[ebp], eax

; 439  : 			nGrowBy = (nGrowBy < 4) ? 4 : ((nGrowBy > 1024) ? 1024 : nGrowBy);

  002fb	83 7d 0c 04	 cmp	 DWORD PTR _nGrowBy$[ebp], 4
  002ff	7d 09		 jge	 SHORT $L192982
  00301	c7 45 98 04 00
	00 00		 mov	 DWORD PTR tv214[ebp], 4
  00308	eb 1e		 jmp	 SHORT $L192983
$L192982:
  0030a	81 7d 0c 00 04
	00 00		 cmp	 DWORD PTR _nGrowBy$[ebp], 1024 ; 00000400H
  00311	7e 09		 jle	 SHORT $L192980
  00313	c7 45 94 00 04
	00 00		 mov	 DWORD PTR tv213[ebp], 1024 ; 00000400H
  0031a	eb 06		 jmp	 SHORT $L192981
$L192980:
  0031c	8b 55 0c	 mov	 edx, DWORD PTR _nGrowBy$[ebp]
  0031f	89 55 94	 mov	 DWORD PTR tv213[ebp], edx
$L192981:
  00322	8b 45 94	 mov	 eax, DWORD PTR tv213[ebp]
  00325	89 45 98	 mov	 DWORD PTR tv214[ebp], eax
$L192983:
  00328	8b 4d 98	 mov	 ecx, DWORD PTR tv214[ebp]
  0032b	89 4d 0c	 mov	 DWORD PTR _nGrowBy$[ebp], ecx
$L191396:

; 440  : 		}
; 441  : 		INT_PTR nNewMax;
; 442  : 		if (nNewSize < m_nMaxSize + nGrowBy)

  0032e	8b 55 f0	 mov	 edx, DWORD PTR _this$[ebp]
  00331	8b 42 0c	 mov	 eax, DWORD PTR [edx+12]
  00334	03 45 0c	 add	 eax, DWORD PTR _nGrowBy$[ebp]
  00337	39 45 08	 cmp	 DWORD PTR _nNewSize$[ebp], eax
  0033a	7d 0e		 jge	 SHORT $L191398

; 443  : 			nNewMax = m_nMaxSize + nGrowBy;  // granularity

  0033c	8b 4d f0	 mov	 ecx, DWORD PTR _this$[ebp]
  0033f	8b 51 0c	 mov	 edx, DWORD PTR [ecx+12]
  00342	03 55 0c	 add	 edx, DWORD PTR _nGrowBy$[ebp]
  00345	89 55 d8	 mov	 DWORD PTR _nNewMax$191397[ebp], edx

; 444  : 		else

  00348	eb 06		 jmp	 SHORT $L191399
$L191398:

; 445  : 			nNewMax = nNewSize;  // no slush

  0034a	8b 45 08	 mov	 eax, DWORD PTR _nNewSize$[ebp]
  0034d	89 45 d8	 mov	 DWORD PTR _nNewMax$191397[ebp], eax
$L191399:

; 446  : 
; 447  : 		ASSERT(nNewMax >= m_nMaxSize);  // no wrap around

  00350	8b 4d f0	 mov	 ecx, DWORD PTR _this$[ebp]
  00353	8b 55 d8	 mov	 edx, DWORD PTR _nNewMax$191397[ebp]
  00356	3b 51 0c	 cmp	 edx, DWORD PTR [ecx+12]
  00359	7d 14		 jge	 SHORT $L192984
  0035b	68 bf 01 00 00	 push	 447			; 000001bfH
  00360	68 00 00 00 00	 push	 OFFSET FLAT:$SG191401
  00365	e8 00 00 00 00	 call	 ?AfxAssertFailedLine@@YGHPBDH@Z ; AfxAssertFailedLine
  0036a	85 c0		 test	 eax, eax
  0036c	74 01		 je	 SHORT $L192984
  0036e	cc		 int	 3
$L192984:

; 448  : 		
; 449  : 		if(nNewMax  < m_nMaxSize)

  0036f	8b 4d f0	 mov	 ecx, DWORD PTR _this$[ebp]
  00372	8b 55 d8	 mov	 edx, DWORD PTR _nNewMax$191397[ebp]
  00375	3b 51 0c	 cmp	 edx, DWORD PTR [ecx+12]
  00378	7d 05		 jge	 SHORT $L191402

; 450  : 			AfxThrowInvalidArgException();

  0037a	e8 00 00 00 00	 call	 ?AfxThrowInvalidArgException@@YGXXZ ; AfxThrowInvalidArgException
$L191402:

; 451  : 
; 452  : #ifdef SIZE_T_MAX
; 453  : 		ASSERT(nNewMax <= SIZE_T_MAX/sizeof(TYPE)); // no overflow

  0037f	81 7d d8 ff ff
	ff 07		 cmp	 DWORD PTR _nNewMax$191397[ebp], 134217727 ; 07ffffffH
  00386	76 14		 jbe	 SHORT $L192985
  00388	68 c5 01 00 00	 push	 453			; 000001c5H
  0038d	68 00 00 00 00	 push	 OFFSET FLAT:$SG191405
  00392	e8 00 00 00 00	 call	 ?AfxAssertFailedLine@@YGHPBDH@Z ; AfxAssertFailedLine
  00397	85 c0		 test	 eax, eax
  00399	74 01		 je	 SHORT $L192985
  0039b	cc		 int	 3
$L192985:

; 454  : #endif
; 455  : 		TYPE* pNewData = (TYPE*) new BYTE[(size_t)nNewMax * sizeof(TYPE)];

  0039c	8b 4d d8	 mov	 ecx, DWORD PTR _nNewMax$191397[ebp]
  0039f	c1 e1 05	 shl	 ecx, 5
  003a2	51		 push	 ecx
  003a3	e8 00 00 00 00	 call	 ??_U@YAPAXI@Z		; operator new[]
  003a8	83 c4 04	 add	 esp, 4
  003ab	89 45 b4	 mov	 DWORD PTR $T192986[ebp], eax
  003ae	8b 55 b4	 mov	 edx, DWORD PTR $T192986[ebp]
  003b1	89 55 d4	 mov	 DWORD PTR _pNewData$191406[ebp], edx

; 456  : 
; 457  : 		// copy new data from old
; 458  : 		memcpy(pNewData, m_pData, (size_t)m_nSize * sizeof(TYPE));

  003b4	8b 45 f0	 mov	 eax, DWORD PTR _this$[ebp]
  003b7	8b 48 08	 mov	 ecx, DWORD PTR [eax+8]
  003ba	c1 e1 05	 shl	 ecx, 5
  003bd	51		 push	 ecx
  003be	8b 55 f0	 mov	 edx, DWORD PTR _this$[ebp]
  003c1	8b 42 04	 mov	 eax, DWORD PTR [edx+4]
  003c4	50		 push	 eax
  003c5	8b 4d d4	 mov	 ecx, DWORD PTR _pNewData$191406[ebp]
  003c8	51		 push	 ecx
  003c9	e8 00 00 00 00	 call	 _memcpy
  003ce	83 c4 0c	 add	 esp, 12			; 0000000cH

; 459  : 
; 460  : 		// construct remaining elements
; 461  : 		ASSERT(nNewSize > m_nSize);

  003d1	8b 55 f0	 mov	 edx, DWORD PTR _this$[ebp]
  003d4	8b 45 08	 mov	 eax, DWORD PTR _nNewSize$[ebp]
  003d7	3b 42 08	 cmp	 eax, DWORD PTR [edx+8]
  003da	7f 14		 jg	 SHORT $L192987
  003dc	68 cd 01 00 00	 push	 461			; 000001cdH
  003e1	68 00 00 00 00	 push	 OFFSET FLAT:$SG191415
  003e6	e8 00 00 00 00	 call	 ?AfxAssertFailedLine@@YGHPBDH@Z ; AfxAssertFailedLine
  003eb	85 c0		 test	 eax, eax
  003ed	74 01		 je	 SHORT $L192987
  003ef	cc		 int	 3
$L192987:

; 462  : 		memset((void*)(pNewData + m_nSize), 0, (size_t)(nNewSize-m_nSize) * sizeof(TYPE));

  003f0	8b 55 f0	 mov	 edx, DWORD PTR _this$[ebp]
  003f3	8b 45 08	 mov	 eax, DWORD PTR _nNewSize$[ebp]
  003f6	2b 42 08	 sub	 eax, DWORD PTR [edx+8]
  003f9	c1 e0 05	 shl	 eax, 5
  003fc	50		 push	 eax
  003fd	6a 00		 push	 0
  003ff	8b 4d f0	 mov	 ecx, DWORD PTR _this$[ebp]
  00402	8b 51 08	 mov	 edx, DWORD PTR [ecx+8]
  00405	c1 e2 05	 shl	 edx, 5
  00408	03 55 d4	 add	 edx, DWORD PTR _pNewData$191406[ebp]
  0040b	52		 push	 edx
  0040c	e8 00 00 00 00	 call	 _memset
  00411	83 c4 0c	 add	 esp, 12			; 0000000cH

; 463  : 		for( int i = 0; i < nNewSize-m_nSize; i++ )

  00414	c7 45 d0 00 00
	00 00		 mov	 DWORD PTR _i$191419[ebp], 0
  0041b	eb 09		 jmp	 SHORT $L191420
$L191421:
  0041d	8b 45 d0	 mov	 eax, DWORD PTR _i$191419[ebp]
  00420	83 c0 01	 add	 eax, 1
  00423	89 45 d0	 mov	 DWORD PTR _i$191419[ebp], eax
$L191420:
  00426	8b 4d f0	 mov	 ecx, DWORD PTR _this$[ebp]
  00429	8b 55 08	 mov	 edx, DWORD PTR _nNewSize$[ebp]
  0042c	2b 51 08	 sub	 edx, DWORD PTR [ecx+8]
  0042f	39 55 d0	 cmp	 DWORD PTR _i$191419[ebp], edx
  00432	7d 52		 jge	 SHORT $L191422

; 464  : #pragma push_macro("new")
; 465  : #undef new
; 466  : 			::new( (void*)( pNewData + m_nSize + i ) ) TYPE;

  00434	8b 45 f0	 mov	 eax, DWORD PTR _this$[ebp]
  00437	8b 48 08	 mov	 ecx, DWORD PTR [eax+8]
  0043a	c1 e1 05	 shl	 ecx, 5
  0043d	03 4d d4	 add	 ecx, DWORD PTR _pNewData$191406[ebp]
  00440	8b 55 d0	 mov	 edx, DWORD PTR _i$191419[ebp]
  00443	c1 e2 05	 shl	 edx, 5
  00446	03 ca		 add	 ecx, edx
  00448	51		 push	 ecx
  00449	6a 20		 push	 32			; 00000020H
  0044b	e8 00 00 00 00	 call	 ??2@YAPAXIPAX@Z		; operator new
  00450	83 c4 08	 add	 esp, 8
  00453	89 45 ac	 mov	 DWORD PTR $T192989[ebp], eax
  00456	c7 45 fc 02 00
	00 00		 mov	 DWORD PTR __$EHRec$[ebp+8], 2
  0045d	83 7d ac 00	 cmp	 DWORD PTR $T192989[ebp], 0
  00461	74 0d		 je	 SHORT $L192990
  00463	8b 4d ac	 mov	 ecx, DWORD PTR $T192989[ebp]
  00466	e8 00 00 00 00	 call	 ??0ElemPos@CMarkup@@QAE@XZ ; CMarkup::ElemPos::ElemPos
  0046b	89 45 90	 mov	 DWORD PTR tv283[ebp], eax
  0046e	eb 07		 jmp	 SHORT $L192991
$L192990:
  00470	c7 45 90 00 00
	00 00		 mov	 DWORD PTR tv283[ebp], 0
$L192991:
  00477	8b 45 90	 mov	 eax, DWORD PTR tv283[ebp]
  0047a	89 45 b0	 mov	 DWORD PTR $T192988[ebp], eax
  0047d	c7 45 fc ff ff
	ff ff		 mov	 DWORD PTR __$EHRec$[ebp+8], -1
  00484	eb 97		 jmp	 SHORT $L191421
$L191422:

; 467  : #pragma pop_macro("new")
; 468  : 
; 469  : 		// get rid of old stuff (note: no destructors called)
; 470  : 		delete[] (BYTE*)m_pData;

  00486	8b 4d f0	 mov	 ecx, DWORD PTR _this$[ebp]
  00489	8b 51 04	 mov	 edx, DWORD PTR [ecx+4]
  0048c	89 55 a8	 mov	 DWORD PTR $T192992[ebp], edx
  0048f	8b 45 a8	 mov	 eax, DWORD PTR $T192992[ebp]
  00492	50		 push	 eax
  00493	e8 00 00 00 00	 call	 ??_V@YAXPAX@Z		; operator delete[]
  00498	83 c4 04	 add	 esp, 4

; 471  : 		m_pData = pNewData;

  0049b	8b 4d f0	 mov	 ecx, DWORD PTR _this$[ebp]
  0049e	8b 55 d4	 mov	 edx, DWORD PTR _pNewData$191406[ebp]
  004a1	89 51 04	 mov	 DWORD PTR [ecx+4], edx

; 472  : 		m_nSize = nNewSize;

  004a4	8b 45 f0	 mov	 eax, DWORD PTR _this$[ebp]
  004a7	8b 4d 08	 mov	 ecx, DWORD PTR _nNewSize$[ebp]
  004aa	89 48 08	 mov	 DWORD PTR [eax+8], ecx

; 473  : 		m_nMaxSize = nNewMax;

  004ad	8b 55 f0	 mov	 edx, DWORD PTR _this$[ebp]
  004b0	8b 45 d8	 mov	 eax, DWORD PTR _nNewMax$191397[ebp]
  004b3	89 42 0c	 mov	 DWORD PTR [edx+12], eax
$L192965:

; 474  : 	}
; 475  : }

  004b6	8b 4d f4	 mov	 ecx, DWORD PTR __$EHRec$[ebp]
  004b9	64 89 0d 00 00
	00 00		 mov	 DWORD PTR fs:__except_list, ecx
  004c0	5f		 pop	 edi
  004c1	83 c4 70	 add	 esp, 112		; 00000070H
  004c4	3b ec		 cmp	 ebp, esp
  004c6	e8 00 00 00 00	 call	 __RTC_CheckEsp
  004cb	8b e5		 mov	 esp, ebp
  004cd	5d		 pop	 ebp
  004ce	c2 08 00	 ret	 8
_TEXT	ENDS
;	COMDAT text$x
text$x	SEGMENT
$L192993:
  00000	8b 45 e4	 mov	 eax, DWORD PTR _i$191363[ebp]
  00003	c1 e0 05	 shl	 eax, 5
  00006	8b 4d f0	 mov	 ecx, DWORD PTR _this$[ebp]
  00009	03 41 04	 add	 eax, DWORD PTR [ecx+4]
  0000c	50		 push	 eax
  0000d	8b 55 c0	 mov	 edx, DWORD PTR $T192973[ebp]
  00010	52		 push	 edx
  00011	e8 00 00 00 00	 call	 ??3@YAXPAX0@Z		; operator delete
  00016	83 c4 08	 add	 esp, 8
  00019	c3		 ret	 0
$L192994:
  0001a	8b 45 f0	 mov	 eax, DWORD PTR _this$[ebp]
  0001d	8b 48 08	 mov	 ecx, DWORD PTR [eax+8]
  00020	c1 e1 05	 shl	 ecx, 5
  00023	8b 55 f0	 mov	 edx, DWORD PTR _this$[ebp]
  00026	8b 42 04	 mov	 eax, DWORD PTR [edx+4]
  00029	03 c1		 add	 eax, ecx
  0002b	8b 4d e0	 mov	 ecx, DWORD PTR _i$191379[ebp]
  0002e	c1 e1 05	 shl	 ecx, 5
  00031	03 c1		 add	 eax, ecx
  00033	50		 push	 eax
  00034	8b 55 b8	 mov	 edx, DWORD PTR $T192977[ebp]
  00037	52		 push	 edx
  00038	e8 00 00 00 00	 call	 ??3@YAXPAX0@Z		; operator delete
  0003d	83 c4 08	 add	 esp, 8
  00040	c3		 ret	 0
$L192995:
  00041	8b 45 f0	 mov	 eax, DWORD PTR _this$[ebp]
  00044	8b 48 08	 mov	 ecx, DWORD PTR [eax+8]
  00047	c1 e1 05	 shl	 ecx, 5
  0004a	03 4d d4	 add	 ecx, DWORD PTR _pNewData$191406[ebp]
  0004d	8b 55 d0	 mov	 edx, DWORD PTR _i$191419[ebp]
  00050	c1 e2 05	 shl	 edx, 5
  00053	03 ca		 add	 ecx, edx
  00055	51		 push	 ecx
  00056	8b 45 ac	 mov	 eax, DWORD PTR $T192989[ebp]
  00059	50		 push	 eax
  0005a	e8 00 00 00 00	 call	 ??3@YAXPAX0@Z		; operator delete
  0005f	83 c4 08	 add	 esp, 8
  00062	c3		 ret	 0
__ehhandler$?SetSize@?$CArray@UElemPos@CMarkup@@AAU12@@@QAEXHH@Z:
  00063	b8 00 00 00 00	 mov	 eax, OFFSET FLAT:$T192997
  00068	e9 00 00 00 00	 jmp	 ___CxxFrameHandler
text$x	ENDS
?SetSize@?$CArray@UElemPos@CMarkup@@AAU12@@@QAEXHH@Z ENDP ; CArray<CMarkup::ElemPos,CMarkup::ElemPos &>::SetSize
; Function compile flags: /Odt /RTCsu
; File d:\program files (x86)\microsoft visual studio .net 2003\vc7\include\new.h
;	COMDAT ??3@YAXPAX0@Z
_TEXT	SEGMENT
___formal$ = 8						; size = 4
___formal$ = 12						; size = 4
??3@YAXPAX0@Z PROC NEAR					; operator delete, COMDAT

; 112  :         {return; }

  00000	55		 push	 ebp
  00001	8b ec		 mov	 ebp, esp
  00003	5d		 pop	 ebp
  00004	c3		 ret	 0
??3@YAXPAX0@Z ENDP					; operator delete
_TEXT	ENDS
PUBLIC	?Clear@ElemPos@CMarkup@@QAEXXZ			; CMarkup::ElemPos::Clear
; Function compile flags: /Odt /RTCsu
; File d:\boxgit\playbox\playbox\dev\prj\playbox\src\util\markup.h
;	COMDAT ??0ElemPos@CMarkup@@QAE@XZ
_TEXT	SEGMENT
_this$ = -4						; size = 4
??0ElemPos@CMarkup@@QAE@XZ PROC NEAR			; CMarkup::ElemPos::ElemPos, COMDAT
; _this$ = ecx

; 86   : 		ElemPos() { Clear(); };

  00000	55		 push	 ebp
  00001	8b ec		 mov	 ebp, esp
  00003	51		 push	 ecx
  00004	c7 45 fc cc cc
	cc cc		 mov	 DWORD PTR [ebp-4], -858993460 ; ccccccccH
  0000b	89 4d fc	 mov	 DWORD PTR _this$[ebp], ecx
  0000e	8b 4d fc	 mov	 ecx, DWORD PTR _this$[ebp]
  00011	e8 00 00 00 00	 call	 ?Clear@ElemPos@CMarkup@@QAEXXZ ; CMarkup::ElemPos::Clear
  00016	8b 45 fc	 mov	 eax, DWORD PTR _this$[ebp]
  00019	83 c4 04	 add	 esp, 4
  0001c	3b ec		 cmp	 ebp, esp
  0001e	e8 00 00 00 00	 call	 __RTC_CheckEsp
  00023	8b e5		 mov	 esp, ebp
  00025	5d		 pop	 ebp
  00026	c3		 ret	 0
??0ElemPos@CMarkup@@QAE@XZ ENDP				; CMarkup::ElemPos::ElemPos
; Function compile flags: /Odt /RTCsu
_TEXT	ENDS
;	COMDAT ?Clear@ElemPos@CMarkup@@QAEXXZ
_TEXT	SEGMENT
_this$ = -4						; size = 4
?Clear@ElemPos@CMarkup@@QAEXXZ PROC NEAR		; CMarkup::ElemPos::Clear, COMDAT
; _this$ = ecx

; 90   : 		{

  00000	55		 push	 ebp
  00001	8b ec		 mov	 ebp, esp
  00003	51		 push	 ecx
  00004	c7 45 fc cc cc
	cc cc		 mov	 DWORD PTR [ebp-4], -858993460 ; ccccccccH
  0000b	89 4d fc	 mov	 DWORD PTR _this$[ebp], ecx

; 91   : 			nStartL=0; nStartR=0; nEndL=0; nEndR=0; nReserved=0;

  0000e	8b 45 fc	 mov	 eax, DWORD PTR _this$[ebp]
  00011	c7 00 00 00 00
	00		 mov	 DWORD PTR [eax], 0
  00017	8b 4d fc	 mov	 ecx, DWORD PTR _this$[ebp]
  0001a	c7 41 04 00 00
	00 00		 mov	 DWORD PTR [ecx+4], 0
  00021	8b 55 fc	 mov	 edx, DWORD PTR _this$[ebp]
  00024	c7 42 08 00 00
	00 00		 mov	 DWORD PTR [edx+8], 0
  0002b	8b 45 fc	 mov	 eax, DWORD PTR _this$[ebp]
  0002e	c7 40 0c 00 00
	00 00		 mov	 DWORD PTR [eax+12], 0
  00035	8b 4d fc	 mov	 ecx, DWORD PTR _this$[ebp]
  00038	c7 41 10 00 00
	00 00		 mov	 DWORD PTR [ecx+16], 0

; 92   : 			iElemParent=0; iElemChild=0; iElemNext=0;

  0003f	8b 55 fc	 mov	 edx, DWORD PTR _this$[ebp]
  00042	c7 42 14 00 00
	00 00		 mov	 DWORD PTR [edx+20], 0
  00049	8b 45 fc	 mov	 eax, DWORD PTR _this$[ebp]
  0004c	c7 40 18 00 00
	00 00		 mov	 DWORD PTR [eax+24], 0
  00053	8b 4d fc	 mov	 ecx, DWORD PTR _this$[ebp]
  00056	c7 41 1c 00 00
	00 00		 mov	 DWORD PTR [ecx+28], 0

; 93   : 		};

  0005d	8b e5		 mov	 esp, ebp
  0005f	5d		 pop	 ebp
  00060	c3		 ret	 0
?Clear@ElemPos@CMarkup@@QAEXXZ ENDP			; CMarkup::ElemPos::Clear
_TEXT	ENDS
PUBLIC	??_C@_0FH@BMBEKJNI@D?3?2Program?5Files?5?$CIx86?$CJ?2Microsoft@ ; `string'
;	COMDAT ??_C@_0FH@BMBEKJNI@D?3?2Program?5Files?5?$CIx86?$CJ?2Microsoft@
; File d:\program files (x86)\microsoft visual studio .net 2003\vc7\atlmfc\include\afxtempl.h
CONST	SEGMENT
??_C@_0FH@BMBEKJNI@D?3?2Program?5Files?5?$CIx86?$CJ?2Microsoft@ DB 'D:\Pr'
	DB	'ogram Files (x86)\Microsoft Visual Studio .NET 2003\Vc7\atlmf'
	DB	'c\include\afxtempl.h', 00H			; `string'
; Function compile flags: /Odt /RTCsu
CONST	ENDS
;	COMDAT ?ElementAt@?$CArray@UElemPos@CMarkup@@AAU12@@@QAEAAUElemPos@CMarkup@@H@Z
_TEXT	SEGMENT
_this$ = -4						; size = 4
_nIndex$ = 8						; size = 4
?ElementAt@?$CArray@UElemPos@CMarkup@@AAU12@@@QAEAAUElemPos@CMarkup@@H@Z PROC NEAR ; CArray<CMarkup::ElemPos,CMarkup::ElemPos &>::ElementAt, COMDAT
; _this$ = ecx

; 320  : { 

  00000	55		 push	 ebp
  00001	8b ec		 mov	 ebp, esp
  00003	51		 push	 ecx
  00004	c7 45 fc cc cc
	cc cc		 mov	 DWORD PTR [ebp-4], -858993460 ; ccccccccH
  0000b	89 4d fc	 mov	 DWORD PTR _this$[ebp], ecx

; 321  : 	ASSERT(nIndex >= 0 && nIndex < m_nSize);

  0000e	83 7d 08 00	 cmp	 DWORD PTR _nIndex$[ebp], 0
  00012	7c 0b		 jl	 SHORT $L193006
  00014	8b 45 fc	 mov	 eax, DWORD PTR _this$[ebp]
  00017	8b 4d 08	 mov	 ecx, DWORD PTR _nIndex$[ebp]
  0001a	3b 48 08	 cmp	 ecx, DWORD PTR [eax+8]
  0001d	7c 14		 jl	 SHORT $L193007
$L193006:
  0001f	68 41 01 00 00	 push	 321			; 00000141H
  00024	68 00 00 00 00	 push	 OFFSET FLAT:??_C@_0FH@BMBEKJNI@D?3?2Program?5Files?5?$CIx86?$CJ?2Microsoft@
  00029	e8 00 00 00 00	 call	 ?AfxAssertFailedLine@@YGHPBDH@Z ; AfxAssertFailedLine
  0002e	85 c0		 test	 eax, eax
  00030	74 01		 je	 SHORT $L193007
  00032	cc		 int	 3
$L193007:

; 322  : 	if(nIndex >= 0 && nIndex < m_nSize)

  00033	83 7d 08 00	 cmp	 DWORD PTR _nIndex$[ebp], 0
  00037	7c 19		 jl	 SHORT $L191439
  00039	8b 45 fc	 mov	 eax, DWORD PTR _this$[ebp]
  0003c	8b 4d 08	 mov	 ecx, DWORD PTR _nIndex$[ebp]
  0003f	3b 48 08	 cmp	 ecx, DWORD PTR [eax+8]
  00042	7d 0e		 jge	 SHORT $L191439

; 323  : 		return m_pData[nIndex]; 

  00044	8b 45 08	 mov	 eax, DWORD PTR _nIndex$[ebp]
  00047	c1 e0 05	 shl	 eax, 5
  0004a	8b 55 fc	 mov	 edx, DWORD PTR _this$[ebp]
  0004d	03 42 04	 add	 eax, DWORD PTR [edx+4]
  00050	eb 05		 jmp	 SHORT $L193005
$L191439:

; 324  : 	AfxThrowInvalidArgException();		

  00052	e8 00 00 00 00	 call	 ?AfxThrowInvalidArgException@@YGXXZ ; AfxThrowInvalidArgException
$L193005:

; 325  : }

  00057	83 c4 04	 add	 esp, 4
  0005a	3b ec		 cmp	 ebp, esp
  0005c	e8 00 00 00 00	 call	 __RTC_CheckEsp
  00061	8b e5		 mov	 esp, ebp
  00063	5d		 pop	 ebp
  00064	c2 04 00	 ret	 4
?ElementAt@?$CArray@UElemPos@CMarkup@@AAU12@@@QAEAAUElemPos@CMarkup@@H@Z ENDP ; CArray<CMarkup::ElemPos,CMarkup::ElemPos &>::ElementAt
_TEXT	ENDS
EXTRN	?Read@CArchive@@QAEIPAXI@Z:NEAR			; CArchive::Read
EXTRN	?Write@CArchive@@QAEXPBXI@Z:NEAR		; CArchive::Write
; Function compile flags: /Odt /RTCsu
;	COMDAT ??$SerializeElements@UElemPos@CMarkup@@@@YGXAAVCArchive@@PAUElemPos@CMarkup@@H@Z
_TEXT	SEGMENT
tv91 = -32						; size = 4
tv81 = -28						; size = 4
_nElementsToRead$191461 = -24				; size = 4
_nElementsLeft$191457 = -20				; size = 4
_pData$191456 = -16					; size = 4
_nElementsToWrite$191451 = -12				; size = 4
_nElementsLeft$191447 = -8				; size = 4
_pData$191446 = -4					; size = 4
_ar$ = 8						; size = 4
_pElements$ = 12					; size = 4
_nCount$ = 16						; size = 4
??$SerializeElements@UElemPos@CMarkup@@@@YGXAAVCArchive@@PAUElemPos@CMarkup@@H@Z PROC NEAR ; SerializeElements<CMarkup::ElemPos>, COMDAT

; 69   : {

  00000	55		 push	 ebp
  00001	8b ec		 mov	 ebp, esp
  00003	83 ec 20	 sub	 esp, 32			; 00000020H
  00006	b8 cc cc cc cc	 mov	 eax, -858993460		; ccccccccH
  0000b	89 45 e0	 mov	 DWORD PTR [ebp-32], eax
  0000e	89 45 e4	 mov	 DWORD PTR [ebp-28], eax
  00011	89 45 e8	 mov	 DWORD PTR [ebp-24], eax
  00014	89 45 ec	 mov	 DWORD PTR [ebp-20], eax
  00017	89 45 f0	 mov	 DWORD PTR [ebp-16], eax
  0001a	89 45 f4	 mov	 DWORD PTR [ebp-12], eax
  0001d	89 45 f8	 mov	 DWORD PTR [ebp-8], eax
  00020	89 45 fc	 mov	 DWORD PTR [ebp-4], eax

; 70   : 	ASSERT(nCount == 0 ||

  00023	83 7d 10 00	 cmp	 DWORD PTR _nCount$[ebp], 0
  00027	74 27		 je	 SHORT $L193009
  00029	6a 01		 push	 1
  0002b	8b 45 10	 mov	 eax, DWORD PTR _nCount$[ebp]
  0002e	c1 e0 05	 shl	 eax, 5
  00031	50		 push	 eax
  00032	8b 4d 0c	 mov	 ecx, DWORD PTR _pElements$[ebp]
  00035	51		 push	 ecx
  00036	e8 00 00 00 00	 call	 ?AfxIsValidAddress@@YGHPBXIH@Z ; AfxIsValidAddress
  0003b	85 c0		 test	 eax, eax
  0003d	75 11		 jne	 SHORT $L193009
  0003f	6a 47		 push	 71			; 00000047H
  00041	68 00 00 00 00	 push	 OFFSET FLAT:$SG191444
  00046	e8 00 00 00 00	 call	 ?AfxAssertFailedLine@@YGHPBDH@Z ; AfxAssertFailedLine
  0004b	85 c0		 test	 eax, eax
  0004d	74 01		 je	 SHORT $L193009
  0004f	cc		 int	 3
$L193009:

; 71   : 		AfxIsValidAddress(pElements, (size_t)nCount * sizeof(TYPE)));
; 72   : 
; 73   : 	// default is bit-wise read/write
; 74   : 	if (ar.IsStoring())

  00050	8b 4d 08	 mov	 ecx, DWORD PTR _ar$[ebp]
  00053	e8 00 00 00 00	 call	 ?IsStoring@CArchive@@QBEHXZ ; CArchive::IsStoring
  00058	85 c0		 test	 eax, eax
  0005a	74 5c		 je	 SHORT $L191445

; 75   :    {
; 76   : 	  TYPE* pData;
; 77   : 	  UINT_PTR nElementsLeft;
; 78   : 
; 79   : 	  nElementsLeft = nCount;

  0005c	8b 45 10	 mov	 eax, DWORD PTR _nCount$[ebp]
  0005f	89 45 f8	 mov	 DWORD PTR _nElementsLeft$191447[ebp], eax

; 80   : 	  pData = pElements;

  00062	8b 4d 0c	 mov	 ecx, DWORD PTR _pElements$[ebp]
  00065	89 4d fc	 mov	 DWORD PTR _pData$191446[ebp], ecx
$L191449:

; 81   : 	  while( nElementsLeft > 0 )

  00068	83 7d f8 00	 cmp	 DWORD PTR _nElementsLeft$191447[ebp], 0
  0006c	76 48		 jbe	 SHORT $L191450

; 82   : 	  {
; 83   : 		 UINT nElementsToWrite;
; 84   : 
; 85   : 		 nElementsToWrite = UINT(min(nElementsLeft, INT_MAX/sizeof(TYPE)));

  0006e	81 7d f8 ff ff
	ff 03		 cmp	 DWORD PTR _nElementsLeft$191447[ebp], 67108863 ; 03ffffffH
  00075	73 08		 jae	 SHORT $L193010
  00077	8b 55 f8	 mov	 edx, DWORD PTR _nElementsLeft$191447[ebp]
  0007a	89 55 e4	 mov	 DWORD PTR tv81[ebp], edx
  0007d	eb 07		 jmp	 SHORT $L193011
$L193010:
  0007f	c7 45 e4 ff ff
	ff 03		 mov	 DWORD PTR tv81[ebp], 67108863 ; 03ffffffH
$L193011:
  00086	8b 45 e4	 mov	 eax, DWORD PTR tv81[ebp]
  00089	89 45 f4	 mov	 DWORD PTR _nElementsToWrite$191451[ebp], eax

; 86   : 		 ar.Write(pData, nElementsToWrite*sizeof(TYPE));

  0008c	8b 4d f4	 mov	 ecx, DWORD PTR _nElementsToWrite$191451[ebp]
  0008f	c1 e1 05	 shl	 ecx, 5
  00092	51		 push	 ecx
  00093	8b 55 fc	 mov	 edx, DWORD PTR _pData$191446[ebp]
  00096	52		 push	 edx
  00097	8b 4d 08	 mov	 ecx, DWORD PTR _ar$[ebp]
  0009a	e8 00 00 00 00	 call	 ?Write@CArchive@@QAEXPBXI@Z ; CArchive::Write

; 87   : 		 nElementsLeft -= nElementsToWrite;

  0009f	8b 45 f8	 mov	 eax, DWORD PTR _nElementsLeft$191447[ebp]
  000a2	2b 45 f4	 sub	 eax, DWORD PTR _nElementsToWrite$191451[ebp]
  000a5	89 45 f8	 mov	 DWORD PTR _nElementsLeft$191447[ebp], eax

; 88   : 		 pData += nElementsToWrite;

  000a8	8b 4d f4	 mov	 ecx, DWORD PTR _nElementsToWrite$191451[ebp]
  000ab	c1 e1 05	 shl	 ecx, 5
  000ae	03 4d fc	 add	 ecx, DWORD PTR _pData$191446[ebp]
  000b1	89 4d fc	 mov	 DWORD PTR _pData$191446[ebp], ecx

; 89   : 	  }

  000b4	eb b2		 jmp	 SHORT $L191449
$L191450:

; 90   :    }
; 91   : 	else

  000b6	eb 5a		 jmp	 SHORT $L191440
$L191445:

; 92   :    {
; 93   : 	  TYPE* pData;
; 94   : 	  UINT_PTR nElementsLeft;
; 95   : 
; 96   : 	  nElementsLeft = nCount;

  000b8	8b 55 10	 mov	 edx, DWORD PTR _nCount$[ebp]
  000bb	89 55 ec	 mov	 DWORD PTR _nElementsLeft$191457[ebp], edx

; 97   : 	  pData = pElements;

  000be	8b 45 0c	 mov	 eax, DWORD PTR _pElements$[ebp]
  000c1	89 45 f0	 mov	 DWORD PTR _pData$191456[ebp], eax
$L191459:

; 98   : 	  while( nElementsLeft > 0 )

  000c4	83 7d ec 00	 cmp	 DWORD PTR _nElementsLeft$191457[ebp], 0
  000c8	76 48		 jbe	 SHORT $L191440

; 99   : 	  {
; 100  : 		 UINT nElementsToRead;
; 101  : 
; 102  : 		 nElementsToRead = UINT(min(nElementsLeft, INT_MAX/sizeof(TYPE)));

  000ca	81 7d ec ff ff
	ff 03		 cmp	 DWORD PTR _nElementsLeft$191457[ebp], 67108863 ; 03ffffffH
  000d1	73 08		 jae	 SHORT $L193012
  000d3	8b 4d ec	 mov	 ecx, DWORD PTR _nElementsLeft$191457[ebp]
  000d6	89 4d e0	 mov	 DWORD PTR tv91[ebp], ecx
  000d9	eb 07		 jmp	 SHORT $L193013
$L193012:
  000db	c7 45 e0 ff ff
	ff 03		 mov	 DWORD PTR tv91[ebp], 67108863 ; 03ffffffH
$L193013:
  000e2	8b 55 e0	 mov	 edx, DWORD PTR tv91[ebp]
  000e5	89 55 e8	 mov	 DWORD PTR _nElementsToRead$191461[ebp], edx

; 103  : 		 ar.Read(pData, nElementsToRead*sizeof(TYPE));

  000e8	8b 45 e8	 mov	 eax, DWORD PTR _nElementsToRead$191461[ebp]
  000eb	c1 e0 05	 shl	 eax, 5
  000ee	50		 push	 eax
  000ef	8b 4d f0	 mov	 ecx, DWORD PTR _pData$191456[ebp]
  000f2	51		 push	 ecx
  000f3	8b 4d 08	 mov	 ecx, DWORD PTR _ar$[ebp]
  000f6	e8 00 00 00 00	 call	 ?Read@CArchive@@QAEIPAXI@Z ; CArchive::Read

; 104  : 		 nElementsLeft -= nElementsToRead;

  000fb	8b 55 ec	 mov	 edx, DWORD PTR _nElementsLeft$191457[ebp]
  000fe	2b 55 e8	 sub	 edx, DWORD PTR _nElementsToRead$191461[ebp]
  00101	89 55 ec	 mov	 DWORD PTR _nElementsLeft$191457[ebp], edx

; 105  : 		 pData += nElementsToRead;

  00104	8b 45 e8	 mov	 eax, DWORD PTR _nElementsToRead$191461[ebp]
  00107	c1 e0 05	 shl	 eax, 5
  0010a	03 45 f0	 add	 eax, DWORD PTR _pData$191456[ebp]
  0010d	89 45 f0	 mov	 DWORD PTR _pData$191456[ebp], eax

; 106  : 	  }

  00110	eb b2		 jmp	 SHORT $L191459
$L191440:

; 107  :    }
; 108  : }

  00112	83 c4 20	 add	 esp, 32			; 00000020H
  00115	3b ec		 cmp	 ebp, esp
  00117	e8 00 00 00 00	 call	 __RTC_CheckEsp
  0011c	8b e5		 mov	 esp, ebp
  0011e	5d		 pop	 ebp
  0011f	c2 0c 00	 ret	 12			; 0000000cH
??$SerializeElements@UElemPos@CMarkup@@@@YGXAAVCArchive@@PAUElemPos@CMarkup@@H@Z ENDP ; SerializeElements<CMarkup::ElemPos>
; Function compile flags: /Odt /RTCsu
_TEXT	ENDS
;	COMDAT ??$DumpElements@UElemPos@CMarkup@@@@YGXAAVCDumpContext@@PBUElemPos@CMarkup@@H@Z
_TEXT	SEGMENT
_dc$ = 8						; size = 4
_pElements$ = 12					; size = 4
_nCount$ = 16						; size = 4
??$DumpElements@UElemPos@CMarkup@@@@YGXAAVCDumpContext@@PBUElemPos@CMarkup@@H@Z PROC NEAR ; DumpElements<CMarkup::ElemPos>, COMDAT

; 137  : {

  00000	55		 push	 ebp
  00001	8b ec		 mov	 ebp, esp

; 138  : 	ASSERT(nCount == 0 ||

  00003	83 7d 10 00	 cmp	 DWORD PTR _nCount$[ebp], 0
  00007	74 2a		 je	 SHORT $L191465
  00009	6a 00		 push	 0
  0000b	8b 45 10	 mov	 eax, DWORD PTR _nCount$[ebp]
  0000e	c1 e0 05	 shl	 eax, 5
  00011	50		 push	 eax
  00012	8b 4d 0c	 mov	 ecx, DWORD PTR _pElements$[ebp]
  00015	51		 push	 ecx
  00016	e8 00 00 00 00	 call	 ?AfxIsValidAddress@@YGHPBXIH@Z ; AfxIsValidAddress
  0001b	85 c0		 test	 eax, eax
  0001d	75 14		 jne	 SHORT $L191465
  0001f	68 8b 00 00 00	 push	 139			; 0000008bH
  00024	68 00 00 00 00	 push	 OFFSET FLAT:$SG191469
  00029	e8 00 00 00 00	 call	 ?AfxAssertFailedLine@@YGHPBDH@Z ; AfxAssertFailedLine
  0002e	85 c0		 test	 eax, eax
  00030	74 01		 je	 SHORT $L191465
  00032	cc		 int	 3
$L191465:

; 139  : 		AfxIsValidAddress(pElements, (size_t)nCount * sizeof(TYPE), FALSE));
; 140  : 	&dc; // not used
; 141  : 	pElements;  // not used
; 142  : 	nCount; // not used
; 143  : 
; 144  : 	// default does nothing
; 145  : }

  00033	3b ec		 cmp	 ebp, esp
  00035	e8 00 00 00 00	 call	 __RTC_CheckEsp
  0003a	5d		 pop	 ebp
  0003b	c2 0c 00	 ret	 12			; 0000000cH
??$DumpElements@UElemPos@CMarkup@@@@YGXAAVCDumpContext@@PBUElemPos@CMarkup@@H@Z ENDP ; DumpElements<CMarkup::ElemPos>
; Function compile flags: /Odt /RTCsu
; File d:\program files (x86)\microsoft visual studio .net 2003\vc7\include\xutility
_TEXT	ENDS
;	COMDAT ??$_Ptr_cat@Viterator@?$vector@UOneLocalGame@@V?$allocator@UOneLocalGame@@@std@@@std@@V?$back_insert_iterator@V?$vector@UOneLocalGame@@V?$allocator@UOneLocalGame@@@std@@@std@@@3@@std@@YA?AU_Nonscalar_ptr_iterator_tag@0@AAViterator@?$vector@UOneLocalGame@@V?$allocator@UOneLocalGame@@@std@@@0@AAV?$back_insert_iterator@V?$vector@UOneLocalGame@@V?$allocator@UOneLocalGame@@@std@@@std@@@0@@Z
_TEXT	SEGMENT
__Cat$ = -5						; size = 1
___formal$ = 8						; size = 4
___formal$ = 12						; size = 4
??$_Ptr_cat@Viterator@?$vector@UOneLocalGame@@V?$allocator@UOneLocalGame@@@std@@@std@@V?$back_insert_iterator@V?$vector@UOneLocalGame@@V?$allocator@UOneLocalGame@@@std@@@std@@@3@@std@@YA?AU_Nonscalar_ptr_iterator_tag@0@AAViterator@?$vector@UOneLocalGame@@V?$allocator@UOneLocalGame@@@std@@@0@AAV?$back_insert_iterator@V?$vector@UOneLocalGame@@V?$allocator@UOneLocalGame@@@std@@@std@@@0@@Z PROC NEAR ; std::_Ptr_cat<std::vector<OneLocalGame,std::allocator<OneLocalGame> >::iterator,std::back_insert_iterator<std::vector<OneLocalGame,std::allocator<OneLocalGame> > > >, COMDAT

; 211  : 	{	// return pointer category from arbitrary arguments

  00000	55		 push	 ebp
  00001	8b ec		 mov	 ebp, esp
  00003	83 ec 0c	 sub	 esp, 12			; 0000000cH
  00006	c7 45 f4 cc cc
	cc cc		 mov	 DWORD PTR [ebp-12], -858993460 ; ccccccccH
  0000d	c7 45 f8 cc cc
	cc cc		 mov	 DWORD PTR [ebp-8], -858993460 ; ccccccccH
  00014	c7 45 fc cc cc
	cc cc		 mov	 DWORD PTR [ebp-4], -858993460 ; ccccccccH

; 212  : 	_Nonscalar_ptr_iterator_tag _Cat;
; 213  : 	return (_Cat);

  0001b	8a 45 fb	 mov	 al, BYTE PTR __Cat$[ebp]

; 214  : 	}

  0001e	52		 push	 edx
  0001f	8b cd		 mov	 ecx, ebp
  00021	50		 push	 eax
  00022	8d 15 00 00 00
	00		 lea	 edx, DWORD PTR $L193019
  00028	e8 00 00 00 00	 call	 @_RTC_CheckStackVars@8
  0002d	58		 pop	 eax
  0002e	5a		 pop	 edx
  0002f	8b e5		 mov	 esp, ebp
  00031	5d		 pop	 ebp
  00032	c3		 ret	 0
$L193019:
  00033	01 00 00 00	 DD	 1
  00037	00 00 00 00	 DD	 $L193018
$L193018:
  0003b	fb ff ff ff	 DD	 -5			; fffffffbH
  0003f	01 00 00 00	 DD	 1
  00043	00 00 00 00	 DD	 $L193017
$L193017:
  00047	5f		 DB	 95			; 0000005fH
  00048	43		 DB	 67			; 00000043H
  00049	61		 DB	 97			; 00000061H
  0004a	74		 DB	 116			; 00000074H
  0004b	00		 DB	 0
??$_Ptr_cat@Viterator@?$vector@UOneLocalGame@@V?$allocator@UOneLocalGame@@@std@@@std@@V?$back_insert_iterator@V?$vector@UOneLocalGame@@V?$allocator@UOneLocalGame@@@std@@@std@@@3@@std@@YA?AU_Nonscalar_ptr_iterator_tag@0@AAViterator@?$vector@UOneLocalGame@@V?$allocator@UOneLocalGame@@@std@@@0@AAV?$back_insert_iterator@V?$vector@UOneLocalGame@@V?$allocator@UOneLocalGame@@@std@@@std@@@0@@Z ENDP ; std::_Ptr_cat<std::vector<OneLocalGame,std::allocator<OneLocalGame> >::iterator,std::back_insert_iterator<std::vector<OneLocalGame,std::allocator<OneLocalGame> > > >
_TEXT	ENDS
PUBLIC	??4?$back_insert_iterator@V?$vector@UOneLocalGame@@V?$allocator@UOneLocalGame@@@std@@@std@@@std@@QAEAAV01@ABUOneLocalGame@@@Z ; std::back_insert_iterator<std::vector<OneLocalGame,std::allocator<OneLocalGame> > >::operator=
PUBLIC	??D?$back_insert_iterator@V?$vector@UOneLocalGame@@V?$allocator@UOneLocalGame@@@std@@@std@@@std@@QAEAAV01@XZ ; std::back_insert_iterator<std::vector<OneLocalGame,std::allocator<OneLocalGame> > >::operator*
PUBLIC	??E?$back_insert_iterator@V?$vector@UOneLocalGame@@V?$allocator@UOneLocalGame@@@std@@@std@@@std@@QAEAAV01@XZ ; std::back_insert_iterator<std::vector<OneLocalGame,std::allocator<OneLocalGame> > >::operator++
; Function compile flags: /Odt /RTCsu
;	COMDAT ??$_Copy_opt@Viterator@?$vector@UOneLocalGame@@V?$allocator@UOneLocalGame@@@std@@@std@@V?$back_insert_iterator@V?$vector@UOneLocalGame@@V?$allocator@UOneLocalGame@@@std@@@std@@@3@@std@@YA?AV?$back_insert_iterator@V?$vector@UOneLocalGame@@V?$allocator@UOneLocalGame@@@std@@@std@@@0@Viterator@?$vector@UOneLocalGame@@V?$allocator@UOneLocalGame@@@std@@@0@0V10@U_Nonscalar_ptr_iterator_tag@0@@Z
_TEXT	SEGMENT
___$ReturnUdt$ = 8					; size = 4
__First$ = 12						; size = 4
__Last$ = 16						; size = 4
__Dest$ = 20						; size = 4
___formal$ = 24						; size = 1
??$_Copy_opt@Viterator@?$vector@UOneLocalGame@@V?$allocator@UOneLocalGame@@@std@@@std@@V?$back_insert_iterator@V?$vector@UOneLocalGame@@V?$allocator@UOneLocalGame@@@std@@@std@@@3@@std@@YA?AV?$back_insert_iterator@V?$vector@UOneLocalGame@@V?$allocator@UOneLocalGame@@@std@@@std@@@0@Viterator@?$vector@UOneLocalGame@@V?$allocator@UOneLocalGame@@@std@@@0@0V10@U_Nonscalar_ptr_iterator_tag@0@@Z PROC NEAR ; std::_Copy_opt<std::vector<OneLocalGame,std::allocator<OneLocalGame> >::iterator,std::back_insert_iterator<std::vector<OneLocalGame,std::allocator<OneLocalGame> > > >, COMDAT

; 1020 : 	{	// copy [_First, _Last) to [_Dest, ...), arbitrary iterators

  00000	55		 push	 ebp
  00001	8b ec		 mov	 ebp, esp

; 1021 : 	for (; _First != _Last; ++_Dest, ++_First)

  00003	eb 10		 jmp	 SHORT $L191474
$L191475:
  00005	8d 4d 14	 lea	 ecx, DWORD PTR __Dest$[ebp]
  00008	e8 00 00 00 00	 call	 ??E?$back_insert_iterator@V?$vector@UOneLocalGame@@V?$allocator@UOneLocalGame@@@std@@@std@@@std@@QAEAAV01@XZ ; std::back_insert_iterator<std::vector<OneLocalGame,std::allocator<OneLocalGame> > >::operator++
  0000d	8d 4d 0c	 lea	 ecx, DWORD PTR __First$[ebp]
  00010	e8 00 00 00 00	 call	 ??Eiterator@?$vector@UOneLocalGame@@V?$allocator@UOneLocalGame@@@std@@@std@@QAEAAV012@XZ ; std::vector<OneLocalGame,std::allocator<OneLocalGame> >::iterator::operator++
$L191474:
  00015	8d 45 10	 lea	 eax, DWORD PTR __Last$[ebp]
  00018	50		 push	 eax
  00019	8d 4d 0c	 lea	 ecx, DWORD PTR __First$[ebp]
  0001c	e8 00 00 00 00	 call	 ??9const_iterator@?$vector@UOneLocalGame@@V?$allocator@UOneLocalGame@@@std@@@std@@QBE_NABV012@@Z ; std::vector<OneLocalGame,std::allocator<OneLocalGame> >::const_iterator::operator!=
  00021	0f b6 c8	 movzx	 ecx, al
  00024	85 c9		 test	 ecx, ecx
  00026	74 1a		 je	 SHORT $L191476

; 1022 : 		*_Dest = *_First;

  00028	8d 4d 0c	 lea	 ecx, DWORD PTR __First$[ebp]
  0002b	e8 00 00 00 00	 call	 ??Diterator@?$vector@UOneLocalGame@@V?$allocator@UOneLocalGame@@@std@@@std@@QBEAAUOneLocalGame@@XZ ; std::vector<OneLocalGame,std::allocator<OneLocalGame> >::iterator::operator*
  00030	50		 push	 eax
  00031	8d 4d 14	 lea	 ecx, DWORD PTR __Dest$[ebp]
  00034	e8 00 00 00 00	 call	 ??D?$back_insert_iterator@V?$vector@UOneLocalGame@@V?$allocator@UOneLocalGame@@@std@@@std@@@std@@QAEAAV01@XZ ; std::back_insert_iterator<std::vector<OneLocalGame,std::allocator<OneLocalGame> > >::operator*
  00039	8b c8		 mov	 ecx, eax
  0003b	e8 00 00 00 00	 call	 ??4?$back_insert_iterator@V?$vector@UOneLocalGame@@V?$allocator@UOneLocalGame@@@std@@@std@@@std@@QAEAAV01@ABUOneLocalGame@@@Z ; std::back_insert_iterator<std::vector<OneLocalGame,std::allocator<OneLocalGame> > >::operator=
  00040	eb c3		 jmp	 SHORT $L191475
$L191476:

; 1023 : 	return (_Dest);

  00042	8b 55 08	 mov	 edx, DWORD PTR ___$ReturnUdt$[ebp]
  00045	8b 45 14	 mov	 eax, DWORD PTR __Dest$[ebp]
  00048	89 02		 mov	 DWORD PTR [edx], eax
  0004a	8b 45 08	 mov	 eax, DWORD PTR ___$ReturnUdt$[ebp]

; 1024 : 	}

  0004d	3b ec		 cmp	 ebp, esp
  0004f	e8 00 00 00 00	 call	 __RTC_CheckEsp
  00054	5d		 pop	 ebp
  00055	c3		 ret	 0
??$_Copy_opt@Viterator@?$vector@UOneLocalGame@@V?$allocator@UOneLocalGame@@@std@@@std@@V?$back_insert_iterator@V?$vector@UOneLocalGame@@V?$allocator@UOneLocalGame@@@std@@@std@@@3@@std@@YA?AV?$back_insert_iterator@V?$vector@UOneLocalGame@@V?$allocator@UOneLocalGame@@@std@@@std@@@0@Viterator@?$vector@UOneLocalGame@@V?$allocator@UOneLocalGame@@@std@@@0@0V10@U_Nonscalar_ptr_iterator_tag@0@@Z ENDP ; std::_Copy_opt<std::vector<OneLocalGame,std::allocator<OneLocalGame> >::iterator,std::back_insert_iterator<std::vector<OneLocalGame,std::allocator<OneLocalGame> > > >
; Function compile flags: /Odt /RTCsu
_TEXT	ENDS
;	COMDAT ??$_Ptr_cat@PAUOneLocalGame@@PAU1@@std@@YA?AU_Nonscalar_ptr_iterator_tag@0@AAPAUOneLocalGame@@0@Z
_TEXT	SEGMENT
__Cat$ = -5						; size = 1
___formal$ = 8						; size = 4
___formal$ = 12						; size = 4
??$_Ptr_cat@PAUOneLocalGame@@PAU1@@std@@YA?AU_Nonscalar_ptr_iterator_tag@0@AAPAUOneLocalGame@@0@Z PROC NEAR ; std::_Ptr_cat<OneLocalGame *,OneLocalGame *>, COMDAT

; 211  : 	{	// return pointer category from arbitrary arguments

  00000	55		 push	 ebp
  00001	8b ec		 mov	 ebp, esp
  00003	83 ec 0c	 sub	 esp, 12			; 0000000cH
  00006	c7 45 f4 cc cc
	cc cc		 mov	 DWORD PTR [ebp-12], -858993460 ; ccccccccH
  0000d	c7 45 f8 cc cc
	cc cc		 mov	 DWORD PTR [ebp-8], -858993460 ; ccccccccH
  00014	c7 45 fc cc cc
	cc cc		 mov	 DWORD PTR [ebp-4], -858993460 ; ccccccccH

; 212  : 	_Nonscalar_ptr_iterator_tag _Cat;
; 213  : 	return (_Cat);

  0001b	8a 45 fb	 mov	 al, BYTE PTR __Cat$[ebp]

; 214  : 	}

  0001e	52		 push	 edx
  0001f	8b cd		 mov	 ecx, ebp
  00021	50		 push	 eax
  00022	8d 15 00 00 00
	00		 lea	 edx, DWORD PTR $L193024
  00028	e8 00 00 00 00	 call	 @_RTC_CheckStackVars@8
  0002d	58		 pop	 eax
  0002e	5a		 pop	 edx
  0002f	8b e5		 mov	 esp, ebp
  00031	5d		 pop	 ebp
  00032	c3		 ret	 0
$L193024:
  00033	01 00 00 00	 DD	 1
  00037	00 00 00 00	 DD	 $L193023
$L193023:
  0003b	fb ff ff ff	 DD	 -5			; fffffffbH
  0003f	01 00 00 00	 DD	 1
  00043	00 00 00 00	 DD	 $L193022
$L193022:
  00047	5f		 DB	 95			; 0000005fH
  00048	43		 DB	 67			; 00000043H
  00049	61		 DB	 97			; 00000061H
  0004a	74		 DB	 116			; 00000074H
  0004b	00		 DB	 0
??$_Ptr_cat@PAUOneLocalGame@@PAU1@@std@@YA?AU_Nonscalar_ptr_iterator_tag@0@AAPAUOneLocalGame@@0@Z ENDP ; std::_Ptr_cat<OneLocalGame *,OneLocalGame *>
; Function compile flags: /Odt /RTCsu
_TEXT	ENDS
;	COMDAT ??$_Copy_opt@PAUOneLocalGame@@PAU1@@std@@YAPAUOneLocalGame@@PAU1@00U_Nonscalar_ptr_iterator_tag@0@@Z
_TEXT	SEGMENT
__First$ = 8						; size = 4
__Last$ = 12						; size = 4
__Dest$ = 16						; size = 4
___formal$ = 20						; size = 1
??$_Copy_opt@PAUOneLocalGame@@PAU1@@std@@YAPAUOneLocalGame@@PAU1@00U_Nonscalar_ptr_iterator_tag@0@@Z PROC NEAR ; std::_Copy_opt<OneLocalGame *,OneLocalGame *>, COMDAT

; 1020 : 	{	// copy [_First, _Last) to [_Dest, ...), arbitrary iterators

  00000	55		 push	 ebp
  00001	8b ec		 mov	 ebp, esp

; 1021 : 	for (; _First != _Last; ++_Dest, ++_First)

  00003	eb 17		 jmp	 SHORT $L191480
$L191481:
  00005	8b 45 10	 mov	 eax, DWORD PTR __Dest$[ebp]
  00008	05 90 00 00 00	 add	 eax, 144		; 00000090H
  0000d	89 45 10	 mov	 DWORD PTR __Dest$[ebp], eax
  00010	8b 4d 08	 mov	 ecx, DWORD PTR __First$[ebp]
  00013	81 c1 90 00 00
	00		 add	 ecx, 144		; 00000090H
  00019	89 4d 08	 mov	 DWORD PTR __First$[ebp], ecx
$L191480:
  0001c	8b 55 08	 mov	 edx, DWORD PTR __First$[ebp]
  0001f	3b 55 0c	 cmp	 edx, DWORD PTR __Last$[ebp]
  00022	74 0e		 je	 SHORT $L191482

; 1022 : 		*_Dest = *_First;

  00024	8b 45 08	 mov	 eax, DWORD PTR __First$[ebp]
  00027	50		 push	 eax
  00028	8b 4d 10	 mov	 ecx, DWORD PTR __Dest$[ebp]
  0002b	e8 00 00 00 00	 call	 ??4OneLocalGame@@QAEAAU0@ABU0@@Z
  00030	eb d3		 jmp	 SHORT $L191481
$L191482:

; 1023 : 	return (_Dest);

  00032	8b 45 10	 mov	 eax, DWORD PTR __Dest$[ebp]

; 1024 : 	}

  00035	3b ec		 cmp	 ebp, esp
  00037	e8 00 00 00 00	 call	 __RTC_CheckEsp
  0003c	5d		 pop	 ebp
  0003d	c3		 ret	 0
??$_Copy_opt@PAUOneLocalGame@@PAU1@@std@@YAPAUOneLocalGame@@PAU1@00U_Nonscalar_ptr_iterator_tag@0@@Z ENDP ; std::_Copy_opt<OneLocalGame *,OneLocalGame *>
_TEXT	ENDS
PUBLIC	?destroy@?$allocator@UOneLocalGame@@@std@@QAEXPAUOneLocalGame@@@Z ; std::allocator<OneLocalGame>::destroy
; Function compile flags: /Odt /RTCsu
; File d:\program files (x86)\microsoft visual studio .net 2003\vc7\include\xmemory
;	COMDAT ??$_Destroy_range@UOneLocalGame@@V?$allocator@UOneLocalGame@@@std@@@std@@YAXPAUOneLocalGame@@0AAV?$allocator@UOneLocalGame@@@0@U_Nonscalar_ptr_iterator_tag@0@@Z
_TEXT	SEGMENT
__First$ = 8						; size = 4
__Last$ = 12						; size = 4
__Al$ = 16						; size = 4
___formal$ = 20						; size = 1
??$_Destroy_range@UOneLocalGame@@V?$allocator@UOneLocalGame@@@std@@@std@@YAXPAUOneLocalGame@@0AAV?$allocator@UOneLocalGame@@@0@U_Nonscalar_ptr_iterator_tag@0@@Z PROC NEAR ; std::_Destroy_range<OneLocalGame,std::allocator<OneLocalGame> >, COMDAT

; 224  : 	{	// destroy [_First, _Last), arbitrary type

  00000	55		 push	 ebp
  00001	8b ec		 mov	 ebp, esp

; 225  : 	for (; _First != _Last; ++_First)

  00003	eb 0b		 jmp	 SHORT $L191484
$L191485:
  00005	8b 45 08	 mov	 eax, DWORD PTR __First$[ebp]
  00008	05 90 00 00 00	 add	 eax, 144		; 00000090H
  0000d	89 45 08	 mov	 DWORD PTR __First$[ebp], eax
$L191484:
  00010	8b 4d 08	 mov	 ecx, DWORD PTR __First$[ebp]
  00013	3b 4d 0c	 cmp	 ecx, DWORD PTR __Last$[ebp]
  00016	74 0e		 je	 SHORT $L191483

; 226  : 		_Al.destroy(_First);

  00018	8b 55 08	 mov	 edx, DWORD PTR __First$[ebp]
  0001b	52		 push	 edx
  0001c	8b 4d 10	 mov	 ecx, DWORD PTR __Al$[ebp]
  0001f	e8 00 00 00 00	 call	 ?destroy@?$allocator@UOneLocalGame@@@std@@QAEXPAUOneLocalGame@@@Z ; std::allocator<OneLocalGame>::destroy
  00024	eb df		 jmp	 SHORT $L191485
$L191483:

; 227  : 	}

  00026	3b ec		 cmp	 ebp, esp
  00028	e8 00 00 00 00	 call	 __RTC_CheckEsp
  0002d	5d		 pop	 ebp
  0002e	c3		 ret	 0
??$_Destroy_range@UOneLocalGame@@V?$allocator@UOneLocalGame@@@std@@@std@@YAXPAUOneLocalGame@@0AAV?$allocator@UOneLocalGame@@@0@U_Nonscalar_ptr_iterator_tag@0@@Z ENDP ; std::_Destroy_range<OneLocalGame,std::allocator<OneLocalGame> >
_TEXT	ENDS
PUBLIC	?construct@?$allocator@UOneLocalGame@@@std@@QAEXPAUOneLocalGame@@ABU3@@Z ; std::allocator<OneLocalGame>::construct
;	COMDAT xdata$x
; File d:\program files (x86)\microsoft visual studio .net 2003\vc7\include\memory
xdata$x	SEGMENT
$T193033 DD	0ffffffffH
	DD	00H
	DD	0ffffffffH
	DD	00H
$T193035 DD	00H
	DD	00H
	DD	00H
	DD	FLAT:$L193029
$T193034 DD	00H
	DD	00H
	DD	01H
	DD	01H
	DD	FLAT:$T193035
$T193031 DD	019930520H
	DD	02H
	DD	FLAT:$T193033
	DD	01H
	DD	FLAT:$T193034
	DD	2 DUP(00H)
; Function compile flags: /Odt /RTCsu
xdata$x	ENDS
;	COMDAT ??$_Uninit_fill_n@PAUOneLocalGame@@IU1@V?$allocator@UOneLocalGame@@@std@@@std@@YAXPAUOneLocalGame@@IABU1@AAV?$allocator@UOneLocalGame@@@0@U_Nonscalar_ptr_iterator_tag@0@@Z
_TEXT	SEGMENT
__Next$ = -20						; size = 4
__$EHRec$ = -16						; size = 16
__First$ = 8						; size = 4
__Count$ = 12						; size = 4
__Val$ = 16						; size = 4
__Al$ = 20						; size = 4
___formal$ = 24						; size = 1
??$_Uninit_fill_n@PAUOneLocalGame@@IU1@V?$allocator@UOneLocalGame@@@std@@@std@@YAXPAUOneLocalGame@@IABU1@AAV?$allocator@UOneLocalGame@@@0@U_Nonscalar_ptr_iterator_tag@0@@Z PROC NEAR ; std::_Uninit_fill_n<OneLocalGame *,unsigned int,OneLocalGame,std::allocator<OneLocalGame> >, COMDAT

; 207  : 	{	// copy _Count *_Val to raw _First, using _Al, arbitrary type

  00000	55		 push	 ebp
  00001	8b ec		 mov	 ebp, esp
  00003	6a ff		 push	 -1
  00005	68 00 00 00 00	 push	 __ehhandler$??$_Uninit_fill_n@PAUOneLocalGame@@IU1@V?$allocator@UOneLocalGame@@@std@@@std@@YAXPAUOneLocalGame@@IABU1@AAV?$allocator@UOneLocalGame@@@0@U_Nonscalar_ptr_iterator_tag@0@@Z
  0000a	64 a1 00 00 00
	00		 mov	 eax, DWORD PTR fs:__except_list
  00010	50		 push	 eax
  00011	64 89 25 00 00
	00 00		 mov	 DWORD PTR fs:__except_list, esp
  00018	51		 push	 ecx
  00019	51		 push	 ecx
  0001a	53		 push	 ebx
  0001b	56		 push	 esi
  0001c	57		 push	 edi
  0001d	c7 45 ec cc cc
	cc cc		 mov	 DWORD PTR [ebp-20], -858993460 ; ccccccccH
  00024	89 65 f0	 mov	 DWORD PTR __$EHRec$[ebp], esp

; 208  : 	_FwdIt _Next = _First;

  00027	8b 45 08	 mov	 eax, DWORD PTR __First$[ebp]
  0002a	89 45 ec	 mov	 DWORD PTR __Next$[ebp], eax

; 209  : 
; 210  : 	_TRY_BEGIN

  0002d	c7 45 fc 00 00
	00 00		 mov	 DWORD PTR __$EHRec$[ebp+12], 0

; 211  : 	for (; 0 < _Count; --_Count, ++_First)

  00034	eb 15		 jmp	 SHORT $L191490
$L191491:
  00036	8b 4d 0c	 mov	 ecx, DWORD PTR __Count$[ebp]
  00039	83 e9 01	 sub	 ecx, 1
  0003c	89 4d 0c	 mov	 DWORD PTR __Count$[ebp], ecx
  0003f	8b 55 08	 mov	 edx, DWORD PTR __First$[ebp]
  00042	81 c2 90 00 00
	00		 add	 edx, 144		; 00000090H
  00048	89 55 08	 mov	 DWORD PTR __First$[ebp], edx
$L191490:
  0004b	83 7d 0c 00	 cmp	 DWORD PTR __Count$[ebp], 0
  0004f	76 12		 jbe	 SHORT $L191492

; 212  : 		_Al.construct(_First, _Val);

  00051	8b 45 10	 mov	 eax, DWORD PTR __Val$[ebp]
  00054	50		 push	 eax
  00055	8b 4d 08	 mov	 ecx, DWORD PTR __First$[ebp]
  00058	51		 push	 ecx
  00059	8b 4d 14	 mov	 ecx, DWORD PTR __Al$[ebp]
  0005c	e8 00 00 00 00	 call	 ?construct@?$allocator@UOneLocalGame@@@std@@QAEXPAUOneLocalGame@@ABU3@@Z ; std::allocator<OneLocalGame>::construct
  00061	eb d3		 jmp	 SHORT $L191491
$L191492:
  00063	eb 2d		 jmp	 SHORT $L193028
$L193029:

; 213  : 	_CATCH_ALL
; 214  : 	for (; _Next != _First; ++_Next)

  00065	eb 0c		 jmp	 SHORT $L191493
$L191494:
  00067	8b 55 ec	 mov	 edx, DWORD PTR __Next$[ebp]
  0006a	81 c2 90 00 00
	00		 add	 edx, 144		; 00000090H
  00070	89 55 ec	 mov	 DWORD PTR __Next$[ebp], edx
$L191493:
  00073	8b 45 ec	 mov	 eax, DWORD PTR __Next$[ebp]
  00076	3b 45 08	 cmp	 eax, DWORD PTR __First$[ebp]
  00079	74 0e		 je	 SHORT $L191495

; 215  : 		_Al.destroy(_Next);

  0007b	8b 4d ec	 mov	 ecx, DWORD PTR __Next$[ebp]
  0007e	51		 push	 ecx
  0007f	8b 4d 14	 mov	 ecx, DWORD PTR __Al$[ebp]
  00082	e8 00 00 00 00	 call	 ?destroy@?$allocator@UOneLocalGame@@@std@@QAEXPAUOneLocalGame@@@Z ; std::allocator<OneLocalGame>::destroy
  00087	eb de		 jmp	 SHORT $L191494
$L191495:

; 216  : 	_RERAISE;

  00089	6a 00		 push	 0
  0008b	6a 00		 push	 0
  0008d	e8 00 00 00 00	 call	 __CxxThrowException@8
$L193028:

; 217  : 	_CATCH_END

  00092	c7 45 fc ff ff
	ff ff		 mov	 DWORD PTR __$EHRec$[ebp+12], -1
$L193027:

; 218  : 	}

  00099	8b 4d f4	 mov	 ecx, DWORD PTR __$EHRec$[ebp+4]
  0009c	64 89 0d 00 00
	00 00		 mov	 DWORD PTR fs:__except_list, ecx
  000a3	5f		 pop	 edi
  000a4	5e		 pop	 esi
  000a5	5b		 pop	 ebx
  000a6	83 c4 14	 add	 esp, 20			; 00000014H
  000a9	3b ec		 cmp	 ebp, esp
  000ab	e8 00 00 00 00	 call	 __RTC_CheckEsp
  000b0	8b e5		 mov	 esp, ebp
  000b2	5d		 pop	 ebp
  000b3	c3		 ret	 0
_TEXT	ENDS
;	COMDAT text$x
text$x	SEGMENT
__ehhandler$??$_Uninit_fill_n@PAUOneLocalGame@@IU1@V?$allocator@UOneLocalGame@@@std@@@std@@YAXPAUOneLocalGame@@IABU1@AAV?$allocator@UOneLocalGame@@@0@U_Nonscalar_ptr_iterator_tag@0@@Z:
  00000	b8 00 00 00 00	 mov	 eax, OFFSET FLAT:$T193031
  00005	e9 00 00 00 00	 jmp	 ___CxxFrameHandler
text$x	ENDS
??$_Uninit_fill_n@PAUOneLocalGame@@IU1@V?$allocator@UOneLocalGame@@@std@@@std@@YAXPAUOneLocalGame@@IABU1@AAV?$allocator@UOneLocalGame@@@0@U_Nonscalar_ptr_iterator_tag@0@@Z ENDP ; std::_Uninit_fill_n<OneLocalGame *,unsigned int,OneLocalGame,std::allocator<OneLocalGame> >
PUBLIC	??$_Uninit_copy@PAUOneLocalGame@@PAU1@V?$allocator@UOneLocalGame@@@std@@@std@@YAPAUOneLocalGame@@PAU1@00AAV?$allocator@UOneLocalGame@@@0@U_Nonscalar_ptr_iterator_tag@0@@Z ; std::_Uninit_copy<OneLocalGame *,OneLocalGame *,std::allocator<OneLocalGame> >
; Function compile flags: /Odt /RTCsu
;	COMDAT ??$_Uninitialized_copy@PAUOneLocalGame@@PAU1@V?$allocator@UOneLocalGame@@@std@@@std@@YAPAUOneLocalGame@@PAU1@00AAV?$allocator@UOneLocalGame@@@0@@Z
_TEXT	SEGMENT
$T193039 = -1						; size = 1
__First$ = 8						; size = 4
__Last$ = 12						; size = 4
__Dest$ = 16						; size = 4
__Al$ = 20						; size = 4
??$_Uninitialized_copy@PAUOneLocalGame@@PAU1@V?$allocator@UOneLocalGame@@@std@@@std@@YAPAUOneLocalGame@@PAU1@00AAV?$allocator@UOneLocalGame@@@0@@Z PROC NEAR ; std::_Uninitialized_copy<OneLocalGame *,OneLocalGame *,std::allocator<OneLocalGame> >, COMDAT

; 126  : 	{	// copy [_First, _Last) to raw _Dest, using _Al

  00000	55		 push	 ebp
  00001	8b ec		 mov	 ebp, esp
  00003	51		 push	 ecx
  00004	c7 45 fc cc cc
	cc cc		 mov	 DWORD PTR [ebp-4], -858993460 ; ccccccccH

; 127  : 	return (_Uninit_copy(_First, _Last, _Dest, _Al,
; 128  : 		_Ptr_cat(_First, _Dest)));

  0000b	8d 45 10	 lea	 eax, DWORD PTR __Dest$[ebp]
  0000e	50		 push	 eax
  0000f	8d 4d 08	 lea	 ecx, DWORD PTR __First$[ebp]
  00012	51		 push	 ecx
  00013	e8 00 00 00 00	 call	 ??$_Ptr_cat@PAUOneLocalGame@@PAU1@@std@@YA?AU_Nonscalar_ptr_iterator_tag@0@AAPAUOneLocalGame@@0@Z ; std::_Ptr_cat<OneLocalGame *,OneLocalGame *>
  00018	83 c4 08	 add	 esp, 8
  0001b	88 45 ff	 mov	 BYTE PTR $T193039[ebp], al
  0001e	8a 55 ff	 mov	 dl, BYTE PTR $T193039[ebp]
  00021	52		 push	 edx
  00022	8b 45 14	 mov	 eax, DWORD PTR __Al$[ebp]
  00025	50		 push	 eax
  00026	8b 4d 10	 mov	 ecx, DWORD PTR __Dest$[ebp]
  00029	51		 push	 ecx
  0002a	8b 55 0c	 mov	 edx, DWORD PTR __Last$[ebp]
  0002d	52		 push	 edx
  0002e	8b 45 08	 mov	 eax, DWORD PTR __First$[ebp]
  00031	50		 push	 eax
  00032	e8 00 00 00 00	 call	 ??$_Uninit_copy@PAUOneLocalGame@@PAU1@V?$allocator@UOneLocalGame@@@std@@@std@@YAPAUOneLocalGame@@PAU1@00AAV?$allocator@UOneLocalGame@@@0@U_Nonscalar_ptr_iterator_tag@0@@Z ; std::_Uninit_copy<OneLocalGame *,OneLocalGame *,std::allocator<OneLocalGame> >
  00037	83 c4 14	 add	 esp, 20			; 00000014H

; 129  : 	}

  0003a	83 c4 04	 add	 esp, 4
  0003d	3b ec		 cmp	 ebp, esp
  0003f	e8 00 00 00 00	 call	 __RTC_CheckEsp
  00044	8b e5		 mov	 esp, ebp
  00046	5d		 pop	 ebp
  00047	c3		 ret	 0
??$_Uninitialized_copy@PAUOneLocalGame@@PAU1@V?$allocator@UOneLocalGame@@@std@@@std@@YAPAUOneLocalGame@@PAU1@00AAV?$allocator@UOneLocalGame@@@0@@Z ENDP ; std::_Uninitialized_copy<OneLocalGame *,OneLocalGame *,std::allocator<OneLocalGame> >
; Function compile flags: /Odt /RTCsu
; File d:\program files (x86)\microsoft visual studio .net 2003\vc7\include\xutility
_TEXT	ENDS
;	COMDAT ??$_Copy_backward_opt@PAUOneLocalGame@@PAU1@@std@@YAPAUOneLocalGame@@PAU1@00U_Nonscalar_ptr_iterator_tag@0@@Z
_TEXT	SEGMENT
__First$ = 8						; size = 4
__Last$ = 12						; size = 4
__Dest$ = 16						; size = 4
___formal$ = 20						; size = 1
??$_Copy_backward_opt@PAUOneLocalGame@@PAU1@@std@@YAPAUOneLocalGame@@PAU1@00U_Nonscalar_ptr_iterator_tag@0@@Z PROC NEAR ; std::_Copy_backward_opt<OneLocalGame *,OneLocalGame *>, COMDAT

; 1048 : 	{	// copy [_First, _Last) backwards to [..., _Dest), arbitrary iterators

  00000	55		 push	 ebp
  00001	8b ec		 mov	 ebp, esp
$L191538:

; 1049 : 	while (_First != _Last)

  00003	8b 45 08	 mov	 eax, DWORD PTR __First$[ebp]
  00006	3b 45 0c	 cmp	 eax, DWORD PTR __Last$[ebp]
  00009	74 26		 je	 SHORT $L191539

; 1050 : 		*--_Dest = *--_Last;

  0000b	8b 4d 0c	 mov	 ecx, DWORD PTR __Last$[ebp]
  0000e	81 e9 90 00 00
	00		 sub	 ecx, 144		; 00000090H
  00014	89 4d 0c	 mov	 DWORD PTR __Last$[ebp], ecx
  00017	8b 55 10	 mov	 edx, DWORD PTR __Dest$[ebp]
  0001a	81 ea 90 00 00
	00		 sub	 edx, 144		; 00000090H
  00020	89 55 10	 mov	 DWORD PTR __Dest$[ebp], edx
  00023	8b 45 0c	 mov	 eax, DWORD PTR __Last$[ebp]
  00026	50		 push	 eax
  00027	8b 4d 10	 mov	 ecx, DWORD PTR __Dest$[ebp]
  0002a	e8 00 00 00 00	 call	 ??4OneLocalGame@@QAEAAU0@ABU0@@Z
  0002f	eb d2		 jmp	 SHORT $L191538
$L191539:

; 1051 : 	return (_Dest);

  00031	8b 45 10	 mov	 eax, DWORD PTR __Dest$[ebp]

; 1052 : 	}

  00034	3b ec		 cmp	 ebp, esp
  00036	e8 00 00 00 00	 call	 __RTC_CheckEsp
  0003b	5d		 pop	 ebp
  0003c	c3		 ret	 0
??$_Copy_backward_opt@PAUOneLocalGame@@PAU1@@std@@YAPAUOneLocalGame@@PAU1@00U_Nonscalar_ptr_iterator_tag@0@@Z ENDP ; std::_Copy_backward_opt<OneLocalGame *,OneLocalGame *>
_TEXT	ENDS
PUBLIC	??$_Construct@UOneLocalGame@@U1@@std@@YAXPAUOneLocalGame@@ABU1@@Z ; std::_Construct<OneLocalGame,OneLocalGame>
; Function compile flags: /Odt /RTCsu
; File d:\program files (x86)\microsoft visual studio .net 2003\vc7\include\xmemory
;	COMDAT ?construct@?$allocator@UOneLocalGame@@@std@@QAEXPAUOneLocalGame@@ABU3@@Z
_TEXT	SEGMENT
_this$ = -4						; size = 4
__Ptr$ = 8						; size = 4
__Val$ = 12						; size = 4
?construct@?$allocator@UOneLocalGame@@@std@@QAEXPAUOneLocalGame@@ABU3@@Z PROC NEAR ; std::allocator<OneLocalGame>::construct, COMDAT
; _this$ = ecx

; 146  : 		{	// construct object at _Ptr with value _Val

  00000	55		 push	 ebp
  00001	8b ec		 mov	 ebp, esp
  00003	51		 push	 ecx
  00004	c7 45 fc cc cc
	cc cc		 mov	 DWORD PTR [ebp-4], -858993460 ; ccccccccH
  0000b	89 4d fc	 mov	 DWORD PTR _this$[ebp], ecx

; 147  : 		_Construct(_Ptr, _Val);

  0000e	8b 45 0c	 mov	 eax, DWORD PTR __Val$[ebp]
  00011	50		 push	 eax
  00012	8b 4d 08	 mov	 ecx, DWORD PTR __Ptr$[ebp]
  00015	51		 push	 ecx
  00016	e8 00 00 00 00	 call	 ??$_Construct@UOneLocalGame@@U1@@std@@YAXPAUOneLocalGame@@ABU1@@Z ; std::_Construct<OneLocalGame,OneLocalGame>
  0001b	83 c4 08	 add	 esp, 8

; 148  : 		}

  0001e	83 c4 04	 add	 esp, 4
  00021	3b ec		 cmp	 ebp, esp
  00023	e8 00 00 00 00	 call	 __RTC_CheckEsp
  00028	8b e5		 mov	 esp, ebp
  0002a	5d		 pop	 ebp
  0002b	c2 08 00	 ret	 8
?construct@?$allocator@UOneLocalGame@@@std@@QAEXPAUOneLocalGame@@ABU3@@Z ENDP ; std::allocator<OneLocalGame>::construct
_TEXT	ENDS
PUBLIC	??$_Destroy@UOneLocalGame@@@std@@YAXPAUOneLocalGame@@@Z ; std::_Destroy<OneLocalGame>
; Function compile flags: /Odt /RTCsu
;	COMDAT ?destroy@?$allocator@UOneLocalGame@@@std@@QAEXPAUOneLocalGame@@@Z
_TEXT	SEGMENT
_this$ = -4						; size = 4
__Ptr$ = 8						; size = 4
?destroy@?$allocator@UOneLocalGame@@@std@@QAEXPAUOneLocalGame@@@Z PROC NEAR ; std::allocator<OneLocalGame>::destroy, COMDAT
; _this$ = ecx

; 151  : 		{	// destroy object at _Ptr

  00000	55		 push	 ebp
  00001	8b ec		 mov	 ebp, esp
  00003	51		 push	 ecx
  00004	c7 45 fc cc cc
	cc cc		 mov	 DWORD PTR [ebp-4], -858993460 ; ccccccccH
  0000b	89 4d fc	 mov	 DWORD PTR _this$[ebp], ecx

; 152  : 		_Destroy(_Ptr);

  0000e	8b 45 08	 mov	 eax, DWORD PTR __Ptr$[ebp]
  00011	50		 push	 eax
  00012	e8 00 00 00 00	 call	 ??$_Destroy@UOneLocalGame@@@std@@YAXPAUOneLocalGame@@@Z ; std::_Destroy<OneLocalGame>
  00017	83 c4 04	 add	 esp, 4

; 153  : 		}

  0001a	83 c4 04	 add	 esp, 4
  0001d	3b ec		 cmp	 ebp, esp
  0001f	e8 00 00 00 00	 call	 __RTC_CheckEsp
  00024	8b e5		 mov	 esp, ebp
  00026	5d		 pop	 ebp
  00027	c2 04 00	 ret	 4
?destroy@?$allocator@UOneLocalGame@@@std@@QAEXPAUOneLocalGame@@@Z ENDP ; std::allocator<OneLocalGame>::destroy
; Function compile flags: /Odt /RTCsu
; File d:\program files (x86)\microsoft visual studio .net 2003\vc7\include\iterator
_TEXT	ENDS
;	COMDAT ??4?$back_insert_iterator@V?$vector@UOneLocalGame@@V?$allocator@UOneLocalGame@@@std@@@std@@@std@@QAEAAV01@ABUOneLocalGame@@@Z
_TEXT	SEGMENT
_this$ = -4						; size = 4
__Val$ = 8						; size = 4
??4?$back_insert_iterator@V?$vector@UOneLocalGame@@V?$allocator@UOneLocalGame@@@std@@@std@@@std@@QAEAAV01@ABUOneLocalGame@@@Z PROC NEAR ; std::back_insert_iterator<std::vector<OneLocalGame,std::allocator<OneLocalGame> > >::operator=, COMDAT
; _this$ = ecx

; 28   : 		{	// push value into container

  00000	55		 push	 ebp
  00001	8b ec		 mov	 ebp, esp
  00003	51		 push	 ecx
  00004	c7 45 fc cc cc
	cc cc		 mov	 DWORD PTR [ebp-4], -858993460 ; ccccccccH
  0000b	89 4d fc	 mov	 DWORD PTR _this$[ebp], ecx

; 29   : 		container->push_back(_Val);

  0000e	8b 45 08	 mov	 eax, DWORD PTR __Val$[ebp]
  00011	50		 push	 eax
  00012	8b 4d fc	 mov	 ecx, DWORD PTR _this$[ebp]
  00015	8b 09		 mov	 ecx, DWORD PTR [ecx]
  00017	e8 00 00 00 00	 call	 ?push_back@?$vector@UOneLocalGame@@V?$allocator@UOneLocalGame@@@std@@@std@@QAEXABUOneLocalGame@@@Z ; std::vector<OneLocalGame,std::allocator<OneLocalGame> >::push_back

; 30   : 		return (*this);

  0001c	8b 45 fc	 mov	 eax, DWORD PTR _this$[ebp]

; 31   : 		}

  0001f	83 c4 04	 add	 esp, 4
  00022	3b ec		 cmp	 ebp, esp
  00024	e8 00 00 00 00	 call	 __RTC_CheckEsp
  00029	8b e5		 mov	 esp, ebp
  0002b	5d		 pop	 ebp
  0002c	c2 04 00	 ret	 4
??4?$back_insert_iterator@V?$vector@UOneLocalGame@@V?$allocator@UOneLocalGame@@@std@@@std@@@std@@QAEAAV01@ABUOneLocalGame@@@Z ENDP ; std::back_insert_iterator<std::vector<OneLocalGame,std::allocator<OneLocalGame> > >::operator=
; Function compile flags: /Odt /RTCsu
_TEXT	ENDS
;	COMDAT ??D?$back_insert_iterator@V?$vector@UOneLocalGame@@V?$allocator@UOneLocalGame@@@std@@@std@@@std@@QAEAAV01@XZ
_TEXT	SEGMENT
_this$ = -4						; size = 4
??D?$back_insert_iterator@V?$vector@UOneLocalGame@@V?$allocator@UOneLocalGame@@@std@@@std@@@std@@QAEAAV01@XZ PROC NEAR ; std::back_insert_iterator<std::vector<OneLocalGame,std::allocator<OneLocalGame> > >::operator*, COMDAT
; _this$ = ecx

; 34   : 		{	// pretend to return designated value

  00000	55		 push	 ebp
  00001	8b ec		 mov	 ebp, esp
  00003	51		 push	 ecx
  00004	c7 45 fc cc cc
	cc cc		 mov	 DWORD PTR [ebp-4], -858993460 ; ccccccccH
  0000b	89 4d fc	 mov	 DWORD PTR _this$[ebp], ecx

; 35   : 		return (*this);

  0000e	8b 45 fc	 mov	 eax, DWORD PTR _this$[ebp]

; 36   : 		}

  00011	8b e5		 mov	 esp, ebp
  00013	5d		 pop	 ebp
  00014	c3		 ret	 0
??D?$back_insert_iterator@V?$vector@UOneLocalGame@@V?$allocator@UOneLocalGame@@@std@@@std@@@std@@QAEAAV01@XZ ENDP ; std::back_insert_iterator<std::vector<OneLocalGame,std::allocator<OneLocalGame> > >::operator*
; Function compile flags: /Odt /RTCsu
_TEXT	ENDS
;	COMDAT ??E?$back_insert_iterator@V?$vector@UOneLocalGame@@V?$allocator@UOneLocalGame@@@std@@@std@@@std@@QAEAAV01@XZ
_TEXT	SEGMENT
_this$ = -4						; size = 4
??E?$back_insert_iterator@V?$vector@UOneLocalGame@@V?$allocator@UOneLocalGame@@@std@@@std@@@std@@QAEAAV01@XZ PROC NEAR ; std::back_insert_iterator<std::vector<OneLocalGame,std::allocator<OneLocalGame> > >::operator++, COMDAT
; _this$ = ecx

; 39   : 		{	// pretend to preincrement

  00000	55		 push	 ebp
  00001	8b ec		 mov	 ebp, esp
  00003	51		 push	 ecx
  00004	c7 45 fc cc cc
	cc cc		 mov	 DWORD PTR [ebp-4], -858993460 ; ccccccccH
  0000b	89 4d fc	 mov	 DWORD PTR _this$[ebp], ecx

; 40   : 		return (*this);

  0000e	8b 45 fc	 mov	 eax, DWORD PTR _this$[ebp]

; 41   : 		}

  00011	8b e5		 mov	 esp, ebp
  00013	5d		 pop	 ebp
  00014	c3		 ret	 0
??E?$back_insert_iterator@V?$vector@UOneLocalGame@@V?$allocator@UOneLocalGame@@@std@@@std@@@std@@QAEAAV01@XZ ENDP ; std::back_insert_iterator<std::vector<OneLocalGame,std::allocator<OneLocalGame> > >::operator++
_TEXT	ENDS
;	COMDAT xdata$x
; File d:\program files (x86)\microsoft visual studio .net 2003\vc7\include\memory
xdata$x	SEGMENT
$T193052 DD	0ffffffffH
	DD	00H
	DD	0ffffffffH
	DD	00H
$T193054 DD	00H
	DD	00H
	DD	00H
	DD	FLAT:$L193048
$T193053 DD	00H
	DD	00H
	DD	01H
	DD	01H
	DD	FLAT:$T193054
$T193050 DD	019930520H
	DD	02H
	DD	FLAT:$T193052
	DD	01H
	DD	FLAT:$T193053
	DD	2 DUP(00H)
; Function compile flags: /Odt /RTCsu
xdata$x	ENDS
;	COMDAT ??$_Uninit_copy@PAUOneLocalGame@@PAU1@V?$allocator@UOneLocalGame@@@std@@@std@@YAPAUOneLocalGame@@PAU1@00AAV?$allocator@UOneLocalGame@@@0@U_Nonscalar_ptr_iterator_tag@0@@Z
_TEXT	SEGMENT
__Next$ = -20						; size = 4
__$EHRec$ = -16						; size = 16
__First$ = 8						; size = 4
__Last$ = 12						; size = 4
__Dest$ = 16						; size = 4
__Al$ = 20						; size = 4
___formal$ = 24						; size = 1
??$_Uninit_copy@PAUOneLocalGame@@PAU1@V?$allocator@UOneLocalGame@@@std@@@std@@YAPAUOneLocalGame@@PAU1@00AAV?$allocator@UOneLocalGame@@@0@U_Nonscalar_ptr_iterator_tag@0@@Z PROC NEAR ; std::_Uninit_copy<OneLocalGame *,OneLocalGame *,std::allocator<OneLocalGame> >, COMDAT

; 77   : 	{	// copy [_First, _Last) to raw _Dest, using _Al, arbitrary type

  00000	55		 push	 ebp
  00001	8b ec		 mov	 ebp, esp
  00003	6a ff		 push	 -1
  00005	68 00 00 00 00	 push	 __ehhandler$??$_Uninit_copy@PAUOneLocalGame@@PAU1@V?$allocator@UOneLocalGame@@@std@@@std@@YAPAUOneLocalGame@@PAU1@00AAV?$allocator@UOneLocalGame@@@0@U_Nonscalar_ptr_iterator_tag@0@@Z
  0000a	64 a1 00 00 00
	00		 mov	 eax, DWORD PTR fs:__except_list
  00010	50		 push	 eax
  00011	64 89 25 00 00
	00 00		 mov	 DWORD PTR fs:__except_list, esp
  00018	51		 push	 ecx
  00019	51		 push	 ecx
  0001a	53		 push	 ebx
  0001b	56		 push	 esi
  0001c	57		 push	 edi
  0001d	c7 45 ec cc cc
	cc cc		 mov	 DWORD PTR [ebp-20], -858993460 ; ccccccccH
  00024	89 65 f0	 mov	 DWORD PTR __$EHRec$[ebp], esp

; 78   : 	_FwdIt _Next = _Dest;

  00027	8b 45 10	 mov	 eax, DWORD PTR __Dest$[ebp]
  0002a	89 45 ec	 mov	 DWORD PTR __Next$[ebp], eax

; 79   : 
; 80   : 	_TRY_BEGIN

  0002d	c7 45 fc 00 00
	00 00		 mov	 DWORD PTR __$EHRec$[ebp+12], 0

; 81   : 	for (; _First != _Last; ++_Dest, ++_First)

  00034	eb 18		 jmp	 SHORT $L191563
$L191564:
  00036	8b 4d 10	 mov	 ecx, DWORD PTR __Dest$[ebp]
  00039	81 c1 90 00 00
	00		 add	 ecx, 144		; 00000090H
  0003f	89 4d 10	 mov	 DWORD PTR __Dest$[ebp], ecx
  00042	8b 55 08	 mov	 edx, DWORD PTR __First$[ebp]
  00045	81 c2 90 00 00
	00		 add	 edx, 144		; 00000090H
  0004b	89 55 08	 mov	 DWORD PTR __First$[ebp], edx
$L191563:
  0004e	8b 45 08	 mov	 eax, DWORD PTR __First$[ebp]
  00051	3b 45 0c	 cmp	 eax, DWORD PTR __Last$[ebp]
  00054	74 12		 je	 SHORT $L191565

; 82   : 		_Al.construct(_Dest, *_First);

  00056	8b 4d 08	 mov	 ecx, DWORD PTR __First$[ebp]
  00059	51		 push	 ecx
  0005a	8b 55 10	 mov	 edx, DWORD PTR __Dest$[ebp]
  0005d	52		 push	 edx
  0005e	8b 4d 14	 mov	 ecx, DWORD PTR __Al$[ebp]
  00061	e8 00 00 00 00	 call	 ?construct@?$allocator@UOneLocalGame@@@std@@QAEXPAUOneLocalGame@@ABU3@@Z ; std::allocator<OneLocalGame>::construct
  00066	eb ce		 jmp	 SHORT $L191564
$L191565:
  00068	eb 2c		 jmp	 SHORT $L193047
$L193048:

; 83   : 	_CATCH_ALL
; 84   : 	for (; _Next != _Dest; ++_Next)

  0006a	eb 0b		 jmp	 SHORT $L191566
$L191567:
  0006c	8b 45 ec	 mov	 eax, DWORD PTR __Next$[ebp]
  0006f	05 90 00 00 00	 add	 eax, 144		; 00000090H
  00074	89 45 ec	 mov	 DWORD PTR __Next$[ebp], eax
$L191566:
  00077	8b 4d ec	 mov	 ecx, DWORD PTR __Next$[ebp]
  0007a	3b 4d 10	 cmp	 ecx, DWORD PTR __Dest$[ebp]
  0007d	74 0e		 je	 SHORT $L191568

; 85   : 		_Al.destroy(_Next);

  0007f	8b 55 ec	 mov	 edx, DWORD PTR __Next$[ebp]
  00082	52		 push	 edx
  00083	8b 4d 14	 mov	 ecx, DWORD PTR __Al$[ebp]
  00086	e8 00 00 00 00	 call	 ?destroy@?$allocator@UOneLocalGame@@@std@@QAEXPAUOneLocalGame@@@Z ; std::allocator<OneLocalGame>::destroy
  0008b	eb df		 jmp	 SHORT $L191567
$L191568:

; 86   : 	_RERAISE;

  0008d	6a 00		 push	 0
  0008f	6a 00		 push	 0
  00091	e8 00 00 00 00	 call	 __CxxThrowException@8
$L193047:

; 87   : 	_CATCH_END

  00096	c7 45 fc ff ff
	ff ff		 mov	 DWORD PTR __$EHRec$[ebp+12], -1

; 88   : 	return (_Dest);

  0009d	8b 45 10	 mov	 eax, DWORD PTR __Dest$[ebp]
$L193046:

; 89   : 	}

  000a0	8b 4d f4	 mov	 ecx, DWORD PTR __$EHRec$[ebp+4]
  000a3	64 89 0d 00 00
	00 00		 mov	 DWORD PTR fs:__except_list, ecx
  000aa	5f		 pop	 edi
  000ab	5e		 pop	 esi
  000ac	5b		 pop	 ebx
  000ad	83 c4 14	 add	 esp, 20			; 00000014H
  000b0	3b ec		 cmp	 ebp, esp
  000b2	e8 00 00 00 00	 call	 __RTC_CheckEsp
  000b7	8b e5		 mov	 esp, ebp
  000b9	5d		 pop	 ebp
  000ba	c3		 ret	 0
_TEXT	ENDS
;	COMDAT text$x
text$x	SEGMENT
__ehhandler$??$_Uninit_copy@PAUOneLocalGame@@PAU1@V?$allocator@UOneLocalGame@@@std@@@std@@YAPAUOneLocalGame@@PAU1@00AAV?$allocator@UOneLocalGame@@@0@U_Nonscalar_ptr_iterator_tag@0@@Z:
  00000	b8 00 00 00 00	 mov	 eax, OFFSET FLAT:$T193050
  00005	e9 00 00 00 00	 jmp	 ___CxxFrameHandler
text$x	ENDS
??$_Uninit_copy@PAUOneLocalGame@@PAU1@V?$allocator@UOneLocalGame@@@std@@@std@@YAPAUOneLocalGame@@PAU1@00AAV?$allocator@UOneLocalGame@@@0@U_Nonscalar_ptr_iterator_tag@0@@Z ENDP ; std::_Uninit_copy<OneLocalGame *,OneLocalGame *,std::allocator<OneLocalGame> >
;	COMDAT xdata$x
; File d:\program files (x86)\microsoft visual studio .net 2003\vc7\include\xmemory
xdata$x	SEGMENT
$T193066 DD	0ffffffffH
	DD	FLAT:$L193062
$T193064 DD	019930520H
	DD	01H
	DD	FLAT:$T193066
	DD	2 DUP(00H)
	DD	2 DUP(00H)
; Function compile flags: /Odt /RTCsu
xdata$x	ENDS
;	COMDAT ??$_Construct@UOneLocalGame@@U1@@std@@YAXPAUOneLocalGame@@ABU1@@Z
_TEXT	SEGMENT
tv74 = -24						; size = 4
$T193059 = -20						; size = 4
$T193058 = -16						; size = 4
__$EHRec$ = -12						; size = 12
__Ptr$ = 8						; size = 4
__Val$ = 12						; size = 4
??$_Construct@UOneLocalGame@@U1@@std@@YAXPAUOneLocalGame@@ABU1@@Z PROC NEAR ; std::_Construct<OneLocalGame,OneLocalGame>, COMDAT

; 41   : 	{	// construct object at _Ptr with value _Val

  00000	55		 push	 ebp
  00001	8b ec		 mov	 ebp, esp
  00003	6a ff		 push	 -1
  00005	68 00 00 00 00	 push	 __ehhandler$??$_Construct@UOneLocalGame@@U1@@std@@YAXPAUOneLocalGame@@ABU1@@Z
  0000a	64 a1 00 00 00
	00		 mov	 eax, DWORD PTR fs:__except_list
  00010	50		 push	 eax
  00011	64 89 25 00 00
	00 00		 mov	 DWORD PTR fs:__except_list, esp
  00018	83 ec 0c	 sub	 esp, 12			; 0000000cH
  0001b	c7 45 e8 cc cc
	cc cc		 mov	 DWORD PTR [ebp-24], -858993460 ; ccccccccH
  00022	c7 45 ec cc cc
	cc cc		 mov	 DWORD PTR [ebp-20], -858993460 ; ccccccccH
  00029	c7 45 f0 cc cc
	cc cc		 mov	 DWORD PTR [ebp-16], -858993460 ; ccccccccH

; 42   : 	new ((void _FARQ *)_Ptr) _T1(_Val);

  00030	8b 45 08	 mov	 eax, DWORD PTR __Ptr$[ebp]
  00033	50		 push	 eax
  00034	68 90 00 00 00	 push	 144			; 00000090H
  00039	e8 00 00 00 00	 call	 ??2@YAPAXIPAX@Z		; operator new
  0003e	83 c4 08	 add	 esp, 8
  00041	89 45 ec	 mov	 DWORD PTR $T193059[ebp], eax
  00044	c7 45 fc 00 00
	00 00		 mov	 DWORD PTR __$EHRec$[ebp+8], 0
  0004b	83 7d ec 00	 cmp	 DWORD PTR $T193059[ebp], 0
  0004f	74 11		 je	 SHORT $L193060
  00051	8b 4d 0c	 mov	 ecx, DWORD PTR __Val$[ebp]
  00054	51		 push	 ecx
  00055	8b 4d ec	 mov	 ecx, DWORD PTR $T193059[ebp]
  00058	e8 00 00 00 00	 call	 ??0OneLocalGame@@QAE@ABU0@@Z
  0005d	89 45 e8	 mov	 DWORD PTR tv74[ebp], eax
  00060	eb 07		 jmp	 SHORT $L193061
$L193060:
  00062	c7 45 e8 00 00
	00 00		 mov	 DWORD PTR tv74[ebp], 0
$L193061:
  00069	8b 55 e8	 mov	 edx, DWORD PTR tv74[ebp]
  0006c	89 55 f0	 mov	 DWORD PTR $T193058[ebp], edx
  0006f	c7 45 fc ff ff
	ff ff		 mov	 DWORD PTR __$EHRec$[ebp+8], -1

; 43   : 	}

  00076	8b 4d f4	 mov	 ecx, DWORD PTR __$EHRec$[ebp]
  00079	64 89 0d 00 00
	00 00		 mov	 DWORD PTR fs:__except_list, ecx
  00080	83 c4 18	 add	 esp, 24			; 00000018H
  00083	3b ec		 cmp	 ebp, esp
  00085	e8 00 00 00 00	 call	 __RTC_CheckEsp
  0008a	8b e5		 mov	 esp, ebp
  0008c	5d		 pop	 ebp
  0008d	c3		 ret	 0
_TEXT	ENDS
;	COMDAT text$x
text$x	SEGMENT
$L193062:
  00000	8b 45 08	 mov	 eax, DWORD PTR __Ptr$[ebp]
  00003	50		 push	 eax
  00004	8b 4d ec	 mov	 ecx, DWORD PTR $T193059[ebp]
  00007	51		 push	 ecx
  00008	e8 00 00 00 00	 call	 ??3@YAXPAX0@Z		; operator delete
  0000d	83 c4 08	 add	 esp, 8
  00010	c3		 ret	 0
__ehhandler$??$_Construct@UOneLocalGame@@U1@@std@@YAXPAUOneLocalGame@@ABU1@@Z:
  00011	b8 00 00 00 00	 mov	 eax, OFFSET FLAT:$T193064
  00016	e9 00 00 00 00	 jmp	 ___CxxFrameHandler
text$x	ENDS
??$_Construct@UOneLocalGame@@U1@@std@@YAXPAUOneLocalGame@@ABU1@@Z ENDP ; std::_Construct<OneLocalGame,OneLocalGame>
PUBLIC	??_GOneLocalGame@@QAEPAXI@Z			; OneLocalGame::`scalar deleting destructor'
; Function compile flags: /Odt /RTCsu
;	COMDAT ??$_Destroy@UOneLocalGame@@@std@@YAXPAUOneLocalGame@@@Z
_TEXT	SEGMENT
__Ptr$ = 8						; size = 4
??$_Destroy@UOneLocalGame@@@std@@YAXPAUOneLocalGame@@@Z PROC NEAR ; std::_Destroy<OneLocalGame>, COMDAT

; 48   : 	{	// destroy object at _Ptr

  00000	55		 push	 ebp
  00001	8b ec		 mov	 ebp, esp

; 49   : 	_DESTRUCTOR(_Ty, _Ptr);

  00003	6a 00		 push	 0
  00005	8b 4d 08	 mov	 ecx, DWORD PTR __Ptr$[ebp]
  00008	e8 00 00 00 00	 call	 ??_GOneLocalGame@@QAEPAXI@Z

; 50   : 	}

  0000d	3b ec		 cmp	 ebp, esp
  0000f	e8 00 00 00 00	 call	 __RTC_CheckEsp
  00014	5d		 pop	 ebp
  00015	c3		 ret	 0
??$_Destroy@UOneLocalGame@@@std@@YAXPAUOneLocalGame@@@Z ENDP ; std::_Destroy<OneLocalGame>
; Function compile flags: /Odt /RTCsu
_TEXT	ENDS
;	COMDAT ??_GOneLocalGame@@QAEPAXI@Z
_TEXT	SEGMENT
_this$ = -4						; size = 4
___flags$ = 8						; size = 4
??_GOneLocalGame@@QAEPAXI@Z PROC NEAR			; OneLocalGame::`scalar deleting destructor', COMDAT
; _this$ = ecx
  00000	55		 push	 ebp
  00001	8b ec		 mov	 ebp, esp
  00003	51		 push	 ecx
  00004	c7 45 fc cc cc
	cc cc		 mov	 DWORD PTR [ebp-4], -858993460 ; ccccccccH
  0000b	89 4d fc	 mov	 DWORD PTR _this$[ebp], ecx
  0000e	8b 4d fc	 mov	 ecx, DWORD PTR _this$[ebp]
  00011	e8 00 00 00 00	 call	 ??1OneLocalGame@@QAE@XZ
  00016	8b 45 08	 mov	 eax, DWORD PTR ___flags$[ebp]
  00019	83 e0 01	 and	 eax, 1
  0001c	74 0c		 je	 SHORT $L191580
  0001e	8b 4d fc	 mov	 ecx, DWORD PTR _this$[ebp]
  00021	51		 push	 ecx
  00022	e8 00 00 00 00	 call	 ??3@YAXPAX@Z		; operator delete
  00027	83 c4 04	 add	 esp, 4
$L191580:
  0002a	8b 45 fc	 mov	 eax, DWORD PTR _this$[ebp]
  0002d	83 c4 04	 add	 esp, 4
  00030	3b ec		 cmp	 ebp, esp
  00032	e8 00 00 00 00	 call	 __RTC_CheckEsp
  00037	8b e5		 mov	 esp, ebp
  00039	5d		 pop	 ebp
  0003a	c2 04 00	 ret	 4
??_GOneLocalGame@@QAEPAXI@Z ENDP			; OneLocalGame::`scalar deleting destructor'
; Function compile flags: /Odt /RTCsu
; File d:\program files (x86)\microsoft visual studio .net 2003\vc7\include\stdexcept
_TEXT	ENDS
;	COMDAT ?what@logic_error@std@@UBEPBDXZ
_TEXT	SEGMENT
_this$ = -4						; size = 4
?what@logic_error@std@@UBEPBDXZ PROC NEAR		; std::logic_error::what, COMDAT
; _this$ = ecx

; 26   : 		{	// return pointer to message string

  00000	55		 push	 ebp
  00001	8b ec		 mov	 ebp, esp
  00003	51		 push	 ecx
  00004	56		 push	 esi
  00005	c7 45 fc cc cc
	cc cc		 mov	 DWORD PTR [ebp-4], -858993460 ; ccccccccH
  0000c	89 4d fc	 mov	 DWORD PTR _this$[ebp], ecx

; 27   : 		return (_Str.c_str());

  0000f	8b 4d fc	 mov	 ecx, DWORD PTR _this$[ebp]
  00012	83 c1 0c	 add	 ecx, 12			; 0000000cH
  00015	8b f4		 mov	 esi, esp
  00017	ff 15 00 00 00
	00		 call	 DWORD PTR __imp_?c_str@?$basic_string@DU?$char_traits@D@std@@V?$allocator@D@2@@std@@QBEPBDXZ
  0001d	3b f4		 cmp	 esi, esp
  0001f	e8 00 00 00 00	 call	 __RTC_CheckEsp

; 28   : 		}

  00024	5e		 pop	 esi
  00025	83 c4 04	 add	 esp, 4
  00028	3b ec		 cmp	 ebp, esp
  0002a	e8 00 00 00 00	 call	 __RTC_CheckEsp
  0002f	8b e5		 mov	 esp, ebp
  00031	5d		 pop	 ebp
  00032	c3		 ret	 0
?what@logic_error@std@@UBEPBDXZ ENDP			; std::logic_error::what
_TEXT	ENDS
PUBLIC	??0logic_error@std@@QAE@ABV?$basic_string@DU?$char_traits@D@std@@V?$allocator@D@2@@1@@Z ; std::logic_error::logic_error
; Function compile flags: /Odt /RTCsu
;	COMDAT ??0length_error@std@@QAE@ABV?$basic_string@DU?$char_traits@D@std@@V?$allocator@D@2@@1@@Z
_TEXT	SEGMENT
_this$ = -4						; size = 4
__Message$ = 8						; size = 4
??0length_error@std@@QAE@ABV?$basic_string@DU?$char_traits@D@std@@V?$allocator@D@2@@1@@Z PROC NEAR ; std::length_error::length_error, COMDAT
; _this$ = ecx

; 95   : 		{	// construct from message string

  00000	55		 push	 ebp
  00001	8b ec		 mov	 ebp, esp
  00003	51		 push	 ecx
  00004	c7 45 fc cc cc
	cc cc		 mov	 DWORD PTR [ebp-4], -858993460 ; ccccccccH
  0000b	89 4d fc	 mov	 DWORD PTR _this$[ebp], ecx
  0000e	8b 45 08	 mov	 eax, DWORD PTR __Message$[ebp]
  00011	50		 push	 eax
  00012	8b 4d fc	 mov	 ecx, DWORD PTR _this$[ebp]
  00015	e8 00 00 00 00	 call	 ??0logic_error@std@@QAE@ABV?$basic_string@DU?$char_traits@D@std@@V?$allocator@D@2@@1@@Z ; std::logic_error::logic_error
  0001a	8b 4d fc	 mov	 ecx, DWORD PTR _this$[ebp]
  0001d	c7 01 00 00 00
	00		 mov	 DWORD PTR [ecx], OFFSET FLAT:??_7length_error@std@@6B@

; 96   : 		}

  00023	8b 45 fc	 mov	 eax, DWORD PTR _this$[ebp]
  00026	83 c4 04	 add	 esp, 4
  00029	3b ec		 cmp	 ebp, esp
  0002b	e8 00 00 00 00	 call	 __RTC_CheckEsp
  00030	8b e5		 mov	 esp, ebp
  00032	5d		 pop	 ebp
  00033	c2 04 00	 ret	 4
??0length_error@std@@QAE@ABV?$basic_string@DU?$char_traits@D@std@@V?$allocator@D@2@@1@@Z ENDP ; std::length_error::length_error
_TEXT	ENDS
PUBLIC	??_7logic_error@std@@6B@			; std::logic_error::`vftable'
PUBLIC	??_Glogic_error@std@@UAEPAXI@Z			; std::logic_error::`scalar deleting destructor'
PUBLIC	??_R4logic_error@std@@6B@			; std::logic_error::`RTTI Complete Object Locator'
PUBLIC	??_R3logic_error@std@@8				; std::logic_error::`RTTI Class Hierarchy Descriptor'
PUBLIC	??_R2logic_error@std@@8				; std::logic_error::`RTTI Base Class Array'
EXTRN	__imp_??0exception@@QAE@XZ:NEAR
EXTRN	__imp_??1exception@@UAE@XZ:NEAR
EXTRN	??_Elogic_error@std@@UAEPAXI@Z:NEAR		; std::logic_error::`vector deleting destructor'
;	COMDAT xdata$x
xdata$x	SEGMENT
$T193080 DD	0ffffffffH
	DD	FLAT:$L193075
$T193078 DD	019930520H
	DD	01H
	DD	FLAT:$T193080
	DD	2 DUP(00H)
	DD	2 DUP(00H)
xdata$x	ENDS
;	COMDAT ??_7logic_error@std@@6B@
CONST	SEGMENT
??_7logic_error@std@@6B@ DD FLAT:??_R4logic_error@std@@6B@ ; std::logic_error::`vftable'
	DD	FLAT:??_Elogic_error@std@@UAEPAXI@Z
	DD	FLAT:?what@logic_error@std@@UBEPBDXZ
CONST	ENDS
;	COMDAT ??_R4logic_error@std@@6B@
rdata$r	SEGMENT
??_R4logic_error@std@@6B@ DD 00H			; std::logic_error::`RTTI Complete Object Locator'
	DD	00H
	DD	00H
	DD	FLAT:??_R0?AVlogic_error@std@@@8
	DD	FLAT:??_R3logic_error@std@@8
rdata$r	ENDS
;	COMDAT ??_R3logic_error@std@@8
rdata$r	SEGMENT
??_R3logic_error@std@@8 DD 00H				; std::logic_error::`RTTI Class Hierarchy Descriptor'
	DD	00H
	DD	02H
	DD	FLAT:??_R2logic_error@std@@8
rdata$r	ENDS
;	COMDAT ??_R2logic_error@std@@8
rdata$r	SEGMENT
??_R2logic_error@std@@8 DD FLAT:??_R1A@?0A@A@logic_error@std@@8 ; std::logic_error::`RTTI Base Class Array'
	DD	FLAT:??_R1A@?0A@A@exception@@8
; Function compile flags: /Odt /RTCsu
rdata$r	ENDS
;	COMDAT ??0logic_error@std@@QAE@ABV?$basic_string@DU?$char_traits@D@std@@V?$allocator@D@2@@1@@Z
_TEXT	SEGMENT
_this$ = -16						; size = 4
__$EHRec$ = -12						; size = 12
__Message$ = 8						; size = 4
??0logic_error@std@@QAE@ABV?$basic_string@DU?$char_traits@D@std@@V?$allocator@D@2@@1@@Z PROC NEAR ; std::logic_error::logic_error, COMDAT
; _this$ = ecx

; 19   : 		{	// construct from message string

  00000	55		 push	 ebp
  00001	8b ec		 mov	 ebp, esp
  00003	6a ff		 push	 -1
  00005	68 00 00 00 00	 push	 __ehhandler$??0logic_error@std@@QAE@ABV?$basic_string@DU?$char_traits@D@std@@V?$allocator@D@2@@1@@Z
  0000a	64 a1 00 00 00
	00		 mov	 eax, DWORD PTR fs:__except_list
  00010	50		 push	 eax
  00011	64 89 25 00 00
	00 00		 mov	 DWORD PTR fs:__except_list, esp
  00018	51		 push	 ecx
  00019	56		 push	 esi
  0001a	c7 45 f0 cc cc
	cc cc		 mov	 DWORD PTR [ebp-16], -858993460 ; ccccccccH
  00021	89 4d f0	 mov	 DWORD PTR _this$[ebp], ecx
  00024	8b f4		 mov	 esi, esp
  00026	8b 4d f0	 mov	 ecx, DWORD PTR _this$[ebp]
  00029	ff 15 00 00 00
	00		 call	 DWORD PTR __imp_??0exception@@QAE@XZ
  0002f	3b f4		 cmp	 esi, esp
  00031	e8 00 00 00 00	 call	 __RTC_CheckEsp
  00036	c7 45 fc 00 00
	00 00		 mov	 DWORD PTR __$EHRec$[ebp+8], 0
  0003d	8b 45 f0	 mov	 eax, DWORD PTR _this$[ebp]
  00040	c7 00 00 00 00
	00		 mov	 DWORD PTR [eax], OFFSET FLAT:??_7logic_error@std@@6B@
  00046	8b f4		 mov	 esi, esp
  00048	8b 4d 08	 mov	 ecx, DWORD PTR __Message$[ebp]
  0004b	51		 push	 ecx
  0004c	8b 4d f0	 mov	 ecx, DWORD PTR _this$[ebp]
  0004f	83 c1 0c	 add	 ecx, 12			; 0000000cH
  00052	ff 15 00 00 00
	00		 call	 DWORD PTR __imp_??0?$basic_string@DU?$char_traits@D@std@@V?$allocator@D@2@@std@@QAE@ABV01@@Z
  00058	3b f4		 cmp	 esi, esp
  0005a	e8 00 00 00 00	 call	 __RTC_CheckEsp

; 20   : 		}

  0005f	c7 45 fc ff ff
	ff ff		 mov	 DWORD PTR __$EHRec$[ebp+8], -1
  00066	8b 45 f0	 mov	 eax, DWORD PTR _this$[ebp]
  00069	8b 4d f4	 mov	 ecx, DWORD PTR __$EHRec$[ebp]
  0006c	64 89 0d 00 00
	00 00		 mov	 DWORD PTR fs:__except_list, ecx
  00073	5e		 pop	 esi
  00074	83 c4 10	 add	 esp, 16			; 00000010H
  00077	3b ec		 cmp	 ebp, esp
  00079	e8 00 00 00 00	 call	 __RTC_CheckEsp
  0007e	8b e5		 mov	 esp, ebp
  00080	5d		 pop	 ebp
  00081	c2 04 00	 ret	 4
_TEXT	ENDS
;	COMDAT text$x
text$x	SEGMENT
$L193075:
  00000	8b f4		 mov	 esi, esp
  00002	8b 4d f0	 mov	 ecx, DWORD PTR _this$[ebp]
  00005	ff 15 00 00 00
	00		 call	 DWORD PTR __imp_??1exception@@UAE@XZ
  0000b	3b f4		 cmp	 esi, esp
  0000d	e9 00 00 00 00	 jmp	 __RTC_CheckEsp
__ehhandler$??0logic_error@std@@QAE@ABV?$basic_string@DU?$char_traits@D@std@@V?$allocator@D@2@@1@@Z:
  00012	b8 00 00 00 00	 mov	 eax, OFFSET FLAT:$T193078
  00017	e9 00 00 00 00	 jmp	 ___CxxFrameHandler
text$x	ENDS
??0logic_error@std@@QAE@ABV?$basic_string@DU?$char_traits@D@std@@V?$allocator@D@2@@1@@Z ENDP ; std::logic_error::logic_error
PUBLIC	??1logic_error@std@@UAE@XZ			; std::logic_error::~logic_error
; Function compile flags: /Odt /RTCsu
;	COMDAT ??_Glogic_error@std@@UAEPAXI@Z
_TEXT	SEGMENT
_this$ = -4						; size = 4
___flags$ = 8						; size = 4
??_Glogic_error@std@@UAEPAXI@Z PROC NEAR		; std::logic_error::`scalar deleting destructor', COMDAT
; _this$ = ecx
  00000	55		 push	 ebp
  00001	8b ec		 mov	 ebp, esp
  00003	51		 push	 ecx
  00004	c7 45 fc cc cc
	cc cc		 mov	 DWORD PTR [ebp-4], -858993460 ; ccccccccH
  0000b	89 4d fc	 mov	 DWORD PTR _this$[ebp], ecx
  0000e	8b 4d fc	 mov	 ecx, DWORD PTR _this$[ebp]
  00011	e8 00 00 00 00	 call	 ??1logic_error@std@@UAE@XZ ; std::logic_error::~logic_error
  00016	8b 45 08	 mov	 eax, DWORD PTR ___flags$[ebp]
  00019	83 e0 01	 and	 eax, 1
  0001c	74 0c		 je	 SHORT $L91647
  0001e	8b 4d fc	 mov	 ecx, DWORD PTR _this$[ebp]
  00021	51		 push	 ecx
  00022	e8 00 00 00 00	 call	 ??3@YAXPAX@Z		; operator delete
  00027	83 c4 04	 add	 esp, 4
$L91647:
  0002a	8b 45 fc	 mov	 eax, DWORD PTR _this$[ebp]
  0002d	83 c4 04	 add	 esp, 4
  00030	3b ec		 cmp	 ebp, esp
  00032	e8 00 00 00 00	 call	 __RTC_CheckEsp
  00037	8b e5		 mov	 esp, ebp
  00039	5d		 pop	 ebp
  0003a	c2 04 00	 ret	 4
??_Glogic_error@std@@UAEPAXI@Z ENDP			; std::logic_error::`scalar deleting destructor'
_TEXT	ENDS
;	COMDAT xdata$x
xdata$x	SEGMENT
$T193090 DD	0ffffffffH
	DD	FLAT:$L193085
$T193088 DD	019930520H
	DD	01H
	DD	FLAT:$T193090
	DD	2 DUP(00H)
	DD	2 DUP(00H)
; Function compile flags: /Odt /RTCsu
xdata$x	ENDS
;	COMDAT ??1logic_error@std@@UAE@XZ
_TEXT	SEGMENT
_this$ = -16						; size = 4
__$EHRec$ = -12						; size = 12
??1logic_error@std@@UAE@XZ PROC NEAR			; std::logic_error::~logic_error, COMDAT
; _this$ = ecx

; 23   : 		{}	// destroy the object

  00000	55		 push	 ebp
  00001	8b ec		 mov	 ebp, esp
  00003	6a ff		 push	 -1
  00005	68 00 00 00 00	 push	 __ehhandler$??1logic_error@std@@UAE@XZ
  0000a	64 a1 00 00 00
	00		 mov	 eax, DWORD PTR fs:__except_list
  00010	50		 push	 eax
  00011	64 89 25 00 00
	00 00		 mov	 DWORD PTR fs:__except_list, esp
  00018	51		 push	 ecx
  00019	56		 push	 esi
  0001a	c7 45 f0 cc cc
	cc cc		 mov	 DWORD PTR [ebp-16], -858993460 ; ccccccccH
  00021	89 4d f0	 mov	 DWORD PTR _this$[ebp], ecx
  00024	8b 45 f0	 mov	 eax, DWORD PTR _this$[ebp]
  00027	c7 00 00 00 00
	00		 mov	 DWORD PTR [eax], OFFSET FLAT:??_7logic_error@std@@6B@
  0002d	c7 45 fc 00 00
	00 00		 mov	 DWORD PTR __$EHRec$[ebp+8], 0
  00034	8b 4d f0	 mov	 ecx, DWORD PTR _this$[ebp]
  00037	83 c1 0c	 add	 ecx, 12			; 0000000cH
  0003a	8b f4		 mov	 esi, esp
  0003c	ff 15 00 00 00
	00		 call	 DWORD PTR __imp_??1?$basic_string@DU?$char_traits@D@std@@V?$allocator@D@2@@std@@QAE@XZ
  00042	3b f4		 cmp	 esi, esp
  00044	e8 00 00 00 00	 call	 __RTC_CheckEsp
  00049	c7 45 fc ff ff
	ff ff		 mov	 DWORD PTR __$EHRec$[ebp+8], -1
  00050	8b f4		 mov	 esi, esp
  00052	8b 4d f0	 mov	 ecx, DWORD PTR _this$[ebp]
  00055	ff 15 00 00 00
	00		 call	 DWORD PTR __imp_??1exception@@UAE@XZ
  0005b	3b f4		 cmp	 esi, esp
  0005d	e8 00 00 00 00	 call	 __RTC_CheckEsp
  00062	8b 4d f4	 mov	 ecx, DWORD PTR __$EHRec$[ebp]
  00065	64 89 0d 00 00
	00 00		 mov	 DWORD PTR fs:__except_list, ecx
  0006c	5e		 pop	 esi
  0006d	83 c4 10	 add	 esp, 16			; 00000010H
  00070	3b ec		 cmp	 ebp, esp
  00072	e8 00 00 00 00	 call	 __RTC_CheckEsp
  00077	8b e5		 mov	 esp, ebp
  00079	5d		 pop	 ebp
  0007a	c3		 ret	 0
_TEXT	ENDS
;	COMDAT text$x
text$x	SEGMENT
$L193085:
  00000	8b f4		 mov	 esi, esp
  00002	8b 4d f0	 mov	 ecx, DWORD PTR _this$[ebp]
  00005	ff 15 00 00 00
	00		 call	 DWORD PTR __imp_??1exception@@UAE@XZ
  0000b	3b f4		 cmp	 esi, esp
  0000d	e9 00 00 00 00	 jmp	 __RTC_CheckEsp
__ehhandler$??1logic_error@std@@UAE@XZ:
  00012	b8 00 00 00 00	 mov	 eax, OFFSET FLAT:$T193088
  00017	e9 00 00 00 00	 jmp	 ___CxxFrameHandler
text$x	ENDS
??1logic_error@std@@UAE@XZ ENDP				; std::logic_error::~logic_error
; Function compile flags: /Odt /RTCsu
;	COMDAT ??1length_error@std@@UAE@XZ
_TEXT	SEGMENT
_this$ = -4						; size = 4
??1length_error@std@@UAE@XZ PROC NEAR			; std::length_error::~length_error, COMDAT
; _this$ = ecx

; 99   : 		{}	// destroy the object

  00000	55		 push	 ebp
  00001	8b ec		 mov	 ebp, esp
  00003	51		 push	 ecx
  00004	c7 45 fc cc cc
	cc cc		 mov	 DWORD PTR [ebp-4], -858993460 ; ccccccccH
  0000b	89 4d fc	 mov	 DWORD PTR _this$[ebp], ecx
  0000e	8b 45 fc	 mov	 eax, DWORD PTR _this$[ebp]
  00011	c7 00 00 00 00
	00		 mov	 DWORD PTR [eax], OFFSET FLAT:??_7length_error@std@@6B@
  00017	8b 4d fc	 mov	 ecx, DWORD PTR _this$[ebp]
  0001a	e8 00 00 00 00	 call	 ??1logic_error@std@@UAE@XZ ; std::logic_error::~logic_error
  0001f	83 c4 04	 add	 esp, 4
  00022	3b ec		 cmp	 ebp, esp
  00024	e8 00 00 00 00	 call	 __RTC_CheckEsp
  00029	8b e5		 mov	 esp, ebp
  0002b	5d		 pop	 ebp
  0002c	c3		 ret	 0
??1length_error@std@@UAE@XZ ENDP			; std::length_error::~length_error
; Function compile flags: /Odt /RTCsu
_TEXT	ENDS
;	COMDAT ??_Glength_error@std@@UAEPAXI@Z
_TEXT	SEGMENT
_this$ = -4						; size = 4
___flags$ = 8						; size = 4
??_Glength_error@std@@UAEPAXI@Z PROC NEAR		; std::length_error::`scalar deleting destructor', COMDAT
; _this$ = ecx
  00000	55		 push	 ebp
  00001	8b ec		 mov	 ebp, esp
  00003	51		 push	 ecx
  00004	c7 45 fc cc cc
	cc cc		 mov	 DWORD PTR [ebp-4], -858993460 ; ccccccccH
  0000b	89 4d fc	 mov	 DWORD PTR _this$[ebp], ecx
  0000e	8b 4d fc	 mov	 ecx, DWORD PTR _this$[ebp]
  00011	e8 00 00 00 00	 call	 ??1length_error@std@@UAE@XZ ; std::length_error::~length_error
  00016	8b 45 08	 mov	 eax, DWORD PTR ___flags$[ebp]
  00019	83 e0 01	 and	 eax, 1
  0001c	74 0c		 je	 SHORT $L91713
  0001e	8b 4d fc	 mov	 ecx, DWORD PTR _this$[ebp]
  00021	51		 push	 ecx
  00022	e8 00 00 00 00	 call	 ??3@YAXPAX@Z		; operator delete
  00027	83 c4 04	 add	 esp, 4
$L91713:
  0002a	8b 45 fc	 mov	 eax, DWORD PTR _this$[ebp]
  0002d	83 c4 04	 add	 esp, 4
  00030	3b ec		 cmp	 ebp, esp
  00032	e8 00 00 00 00	 call	 __RTC_CheckEsp
  00037	8b e5		 mov	 esp, ebp
  00039	5d		 pop	 ebp
  0003a	c2 04 00	 ret	 4
??_Glength_error@std@@UAEPAXI@Z ENDP			; std::length_error::`scalar deleting destructor'
; Function compile flags: /Odt /RTCsu
; File d:\program files (x86)\microsoft visual studio .net 2003\vc7\atlmfc\include\atlalloc.h
_TEXT	ENDS
;	COMDAT ??0?$CAtlSafeAllocBufferManager@VCCRTAllocator@ATL@@@_ATL_SAFE_ALLOCA_IMPL@ATL@@QAE@XZ
_TEXT	SEGMENT
_this$ = -4						; size = 4
??0?$CAtlSafeAllocBufferManager@VCCRTAllocator@ATL@@@_ATL_SAFE_ALLOCA_IMPL@ATL@@QAE@XZ PROC NEAR ; ATL::_ATL_SAFE_ALLOCA_IMPL::CAtlSafeAllocBufferManager<ATL::CCRTAllocator>::CAtlSafeAllocBufferManager<ATL::CCRTAllocator>, COMDAT
; _this$ = ecx

; 373  : 	CAtlSafeAllocBufferManager() : m_pHead(NULL) {};

  00000	55		 push	 ebp
  00001	8b ec		 mov	 ebp, esp
  00003	51		 push	 ecx
  00004	c7 45 fc cc cc
	cc cc		 mov	 DWORD PTR [ebp-4], -858993460 ; ccccccccH
  0000b	89 4d fc	 mov	 DWORD PTR _this$[ebp], ecx
  0000e	8b 45 fc	 mov	 eax, DWORD PTR _this$[ebp]
  00011	c7 00 00 00 00
	00		 mov	 DWORD PTR [eax], 0
  00017	8b 45 fc	 mov	 eax, DWORD PTR _this$[ebp]
  0001a	8b e5		 mov	 esp, ebp
  0001c	5d		 pop	 ebp
  0001d	c3		 ret	 0
??0?$CAtlSafeAllocBufferManager@VCCRTAllocator@ATL@@@_ATL_SAFE_ALLOCA_IMPL@ATL@@QAE@XZ ENDP ; ATL::_ATL_SAFE_ALLOCA_IMPL::CAtlSafeAllocBufferManager<ATL::CCRTAllocator>::CAtlSafeAllocBufferManager<ATL::CCRTAllocator>
_TEXT	ENDS
PUBLIC	?GetData@CAtlSafeAllocBufferNode@?$CAtlSafeAllocBufferManager@VCCRTAllocator@ATL@@@_ATL_SAFE_ALLOCA_IMPL@ATL@@QAEPAXXZ ; ATL::_ATL_SAFE_ALLOCA_IMPL::CAtlSafeAllocBufferManager<ATL::CCRTAllocator>::CAtlSafeAllocBufferNode::GetData
PUBLIC	?Allocate@CCRTAllocator@ATL@@SAPAXI@Z		; ATL::CCRTAllocator::Allocate
; Function compile flags: /Odt /RTCsu
;	COMDAT ?Allocate@?$CAtlSafeAllocBufferManager@VCCRTAllocator@ATL@@@_ATL_SAFE_ALLOCA_IMPL@ATL@@QAEPAXK@Z
_TEXT	SEGMENT
_p$ = -8						; size = 4
_this$ = -4						; size = 4
_nRequestedSize$ = 8					; size = 4
?Allocate@?$CAtlSafeAllocBufferManager@VCCRTAllocator@ATL@@@_ATL_SAFE_ALLOCA_IMPL@ATL@@QAEPAXK@Z PROC NEAR ; ATL::_ATL_SAFE_ALLOCA_IMPL::CAtlSafeAllocBufferManager<ATL::CCRTAllocator>::Allocate, COMDAT
; _this$ = ecx

; 375  : 	{

  00000	55		 push	 ebp
  00001	8b ec		 mov	 ebp, esp
  00003	83 ec 08	 sub	 esp, 8
  00006	c7 45 f8 cc cc
	cc cc		 mov	 DWORD PTR [ebp-8], -858993460 ; ccccccccH
  0000d	c7 45 fc cc cc
	cc cc		 mov	 DWORD PTR [ebp-4], -858993460 ; ccccccccH
  00014	89 4d fc	 mov	 DWORD PTR _this$[ebp], ecx

; 376  : 		CAtlSafeAllocBufferNode *p = (CAtlSafeAllocBufferNode*)Allocator::Allocate(nRequestedSize + sizeof(CAtlSafeAllocBufferNode));

  00017	8b 45 08	 mov	 eax, DWORD PTR _nRequestedSize$[ebp]
  0001a	83 c0 08	 add	 eax, 8
  0001d	50		 push	 eax
  0001e	e8 00 00 00 00	 call	 ?Allocate@CCRTAllocator@ATL@@SAPAXI@Z ; ATL::CCRTAllocator::Allocate
  00023	83 c4 04	 add	 esp, 4
  00026	89 45 f8	 mov	 DWORD PTR _p$[ebp], eax

; 377  : 		if (p == NULL)

  00029	83 7d f8 00	 cmp	 DWORD PTR _p$[ebp], 0
  0002d	75 04		 jne	 SHORT $L181568

; 378  : 			return NULL;

  0002f	33 c0		 xor	 eax, eax
  00031	eb 1a		 jmp	 SHORT $L181555
$L181568:

; 379  : 		
; 380  : 		// Add buffer to the list
; 381  : 		p->m_pNext = m_pHead;

  00033	8b 4d f8	 mov	 ecx, DWORD PTR _p$[ebp]
  00036	8b 55 fc	 mov	 edx, DWORD PTR _this$[ebp]
  00039	8b 02		 mov	 eax, DWORD PTR [edx]
  0003b	89 01		 mov	 DWORD PTR [ecx], eax

; 382  : 		m_pHead = p;

  0003d	8b 4d fc	 mov	 ecx, DWORD PTR _this$[ebp]
  00040	8b 55 f8	 mov	 edx, DWORD PTR _p$[ebp]
  00043	89 11		 mov	 DWORD PTR [ecx], edx

; 383  : 		
; 384  : 		return p->GetData();

  00045	8b 4d f8	 mov	 ecx, DWORD PTR _p$[ebp]
  00048	e8 00 00 00 00	 call	 ?GetData@CAtlSafeAllocBufferNode@?$CAtlSafeAllocBufferManager@VCCRTAllocator@ATL@@@_ATL_SAFE_ALLOCA_IMPL@ATL@@QAEPAXXZ ; ATL::_ATL_SAFE_ALLOCA_IMPL::CAtlSafeAllocBufferManager<ATL::CCRTAllocator>::CAtlSafeAllocBufferNode::GetData
$L181555:

; 385  : 	}

  0004d	83 c4 08	 add	 esp, 8
  00050	3b ec		 cmp	 ebp, esp
  00052	e8 00 00 00 00	 call	 __RTC_CheckEsp
  00057	8b e5		 mov	 esp, ebp
  00059	5d		 pop	 ebp
  0005a	c2 04 00	 ret	 4
?Allocate@?$CAtlSafeAllocBufferManager@VCCRTAllocator@ATL@@@_ATL_SAFE_ALLOCA_IMPL@ATL@@QAEPAXK@Z ENDP ; ATL::_ATL_SAFE_ALLOCA_IMPL::CAtlSafeAllocBufferManager<ATL::CCRTAllocator>::Allocate
_TEXT	ENDS
EXTRN	__imp__malloc:NEAR
; Function compile flags: /Odt /RTCsu
;	COMDAT ?Allocate@CCRTAllocator@ATL@@SAPAXI@Z
_TEXT	SEGMENT
_nBytes$ = 8						; size = 4
?Allocate@CCRTAllocator@ATL@@SAPAXI@Z PROC NEAR		; ATL::CCRTAllocator::Allocate, COMDAT

; 30   : 	{

  00000	55		 push	 ebp
  00001	8b ec		 mov	 ebp, esp
  00003	56		 push	 esi

; 31   : 		return malloc(nBytes);

  00004	8b f4		 mov	 esi, esp
  00006	8b 45 08	 mov	 eax, DWORD PTR _nBytes$[ebp]
  00009	50		 push	 eax
  0000a	ff 15 00 00 00
	00		 call	 DWORD PTR __imp__malloc
  00010	83 c4 04	 add	 esp, 4
  00013	3b f4		 cmp	 esi, esp
  00015	e8 00 00 00 00	 call	 __RTC_CheckEsp

; 32   : 	}

  0001a	5e		 pop	 esi
  0001b	3b ec		 cmp	 ebp, esp
  0001d	e8 00 00 00 00	 call	 __RTC_CheckEsp
  00022	5d		 pop	 ebp
  00023	c3		 ret	 0
?Allocate@CCRTAllocator@ATL@@SAPAXI@Z ENDP		; ATL::CCRTAllocator::Allocate
_TEXT	ENDS
PUBLIC	?Free@CCRTAllocator@ATL@@SAXPAX@Z		; ATL::CCRTAllocator::Free
; Function compile flags: /Odt /RTCsu
;	COMDAT ??1?$CAtlSafeAllocBufferManager@VCCRTAllocator@ATL@@@_ATL_SAFE_ALLOCA_IMPL@ATL@@QAE@XZ
_TEXT	SEGMENT
_p$181574 = -8						; size = 4
_this$ = -4						; size = 4
??1?$CAtlSafeAllocBufferManager@VCCRTAllocator@ATL@@@_ATL_SAFE_ALLOCA_IMPL@ATL@@QAE@XZ PROC NEAR ; ATL::_ATL_SAFE_ALLOCA_IMPL::CAtlSafeAllocBufferManager<ATL::CCRTAllocator>::~CAtlSafeAllocBufferManager<ATL::CCRTAllocator>, COMDAT
; _this$ = ecx

; 387  : 	{

  00000	55		 push	 ebp
  00001	8b ec		 mov	 ebp, esp
  00003	83 ec 08	 sub	 esp, 8
  00006	c7 45 f8 cc cc
	cc cc		 mov	 DWORD PTR [ebp-8], -858993460 ; ccccccccH
  0000d	c7 45 fc cc cc
	cc cc		 mov	 DWORD PTR [ebp-4], -858993460 ; ccccccccH
  00014	89 4d fc	 mov	 DWORD PTR _this$[ebp], ecx
$L181572:

; 388  : 		// Walk the list and free the buffers
; 389  : 		while (m_pHead != NULL)

  00017	8b 45 fc	 mov	 eax, DWORD PTR _this$[ebp]
  0001a	83 38 00	 cmp	 DWORD PTR [eax], 0
  0001d	74 22		 je	 SHORT $L181570

; 390  : 		{
; 391  : 			CAtlSafeAllocBufferNode* p = m_pHead;

  0001f	8b 4d fc	 mov	 ecx, DWORD PTR _this$[ebp]
  00022	8b 11		 mov	 edx, DWORD PTR [ecx]
  00024	89 55 f8	 mov	 DWORD PTR _p$181574[ebp], edx

; 392  : 			m_pHead = m_pHead->m_pNext;

  00027	8b 45 fc	 mov	 eax, DWORD PTR _this$[ebp]
  0002a	8b 08		 mov	 ecx, DWORD PTR [eax]
  0002c	8b 55 fc	 mov	 edx, DWORD PTR _this$[ebp]
  0002f	8b 01		 mov	 eax, DWORD PTR [ecx]
  00031	89 02		 mov	 DWORD PTR [edx], eax

; 393  : 			Allocator::Free(p);

  00033	8b 4d f8	 mov	 ecx, DWORD PTR _p$181574[ebp]
  00036	51		 push	 ecx
  00037	e8 00 00 00 00	 call	 ?Free@CCRTAllocator@ATL@@SAXPAX@Z ; ATL::CCRTAllocator::Free
  0003c	83 c4 04	 add	 esp, 4

; 394  : 		}

  0003f	eb d6		 jmp	 SHORT $L181572
$L181570:

; 395  : 	}

  00041	83 c4 08	 add	 esp, 8
  00044	3b ec		 cmp	 ebp, esp
  00046	e8 00 00 00 00	 call	 __RTC_CheckEsp
  0004b	8b e5		 mov	 esp, ebp
  0004d	5d		 pop	 ebp
  0004e	c3		 ret	 0
??1?$CAtlSafeAllocBufferManager@VCCRTAllocator@ATL@@@_ATL_SAFE_ALLOCA_IMPL@ATL@@QAE@XZ ENDP ; ATL::_ATL_SAFE_ALLOCA_IMPL::CAtlSafeAllocBufferManager<ATL::CCRTAllocator>::~CAtlSafeAllocBufferManager<ATL::CCRTAllocator>
_TEXT	ENDS
EXTRN	__imp__free:NEAR
; Function compile flags: /Odt /RTCsu
;	COMDAT ?Free@CCRTAllocator@ATL@@SAXPAX@Z
_TEXT	SEGMENT
_p$ = 8							; size = 4
?Free@CCRTAllocator@ATL@@SAXPAX@Z PROC NEAR		; ATL::CCRTAllocator::Free, COMDAT

; 35   : 	{

  00000	55		 push	 ebp
  00001	8b ec		 mov	 ebp, esp
  00003	56		 push	 esi

; 36   : 		free(p);

  00004	8b f4		 mov	 esi, esp
  00006	8b 45 08	 mov	 eax, DWORD PTR _p$[ebp]
  00009	50		 push	 eax
  0000a	ff 15 00 00 00
	00		 call	 DWORD PTR __imp__free
  00010	83 c4 04	 add	 esp, 4
  00013	3b f4		 cmp	 esi, esp
  00015	e8 00 00 00 00	 call	 __RTC_CheckEsp

; 37   : 	}

  0001a	5e		 pop	 esi
  0001b	3b ec		 cmp	 ebp, esp
  0001d	e8 00 00 00 00	 call	 __RTC_CheckEsp
  00022	5d		 pop	 ebp
  00023	c3		 ret	 0
?Free@CCRTAllocator@ATL@@SAXPAX@Z ENDP			; ATL::CCRTAllocator::Free
; Function compile flags: /Odt /RTCsu
_TEXT	ENDS
;	COMDAT ??0?$CTempBuffer@D$0IA@VCCRTAllocator@ATL@@@ATL@@QAE@XZ
_TEXT	SEGMENT
_this$ = -4						; size = 4
??0?$CTempBuffer@D$0IA@VCCRTAllocator@ATL@@@ATL@@QAE@XZ PROC NEAR ; ATL::CTempBuffer<char,128,ATL::CCRTAllocator>::CTempBuffer<char,128,ATL::CCRTAllocator>, COMDAT
; _this$ = ecx

; 216  : 	{

  00000	55		 push	 ebp
  00001	8b ec		 mov	 ebp, esp
  00003	51		 push	 ecx
  00004	c7 45 fc cc cc
	cc cc		 mov	 DWORD PTR [ebp-4], -858993460 ; ccccccccH
  0000b	89 4d fc	 mov	 DWORD PTR _this$[ebp], ecx
  0000e	8b 45 fc	 mov	 eax, DWORD PTR _this$[ebp]
  00011	c7 00 00 00 00
	00		 mov	 DWORD PTR [eax], 0

; 217  : 	}

  00017	8b 45 fc	 mov	 eax, DWORD PTR _this$[ebp]
  0001a	8b e5		 mov	 esp, ebp
  0001c	5d		 pop	 ebp
  0001d	c3		 ret	 0
??0?$CTempBuffer@D$0IA@VCCRTAllocator@ATL@@@ATL@@QAE@XZ ENDP ; ATL::CTempBuffer<char,128,ATL::CCRTAllocator>::CTempBuffer<char,128,ATL::CCRTAllocator>
_TEXT	ENDS
PUBLIC	?FreeHeap@?$CTempBuffer@D$0IA@VCCRTAllocator@ATL@@@ATL@@AAEXXZ ; ATL::CTempBuffer<char,128,ATL::CCRTAllocator>::FreeHeap
; Function compile flags: /Odt /RTCsu
;	COMDAT ??1?$CTempBuffer@D$0IA@VCCRTAllocator@ATL@@@ATL@@QAE@XZ
_TEXT	SEGMENT
_this$ = -4						; size = 4
??1?$CTempBuffer@D$0IA@VCCRTAllocator@ATL@@@ATL@@QAE@XZ PROC NEAR ; ATL::CTempBuffer<char,128,ATL::CCRTAllocator>::~CTempBuffer<char,128,ATL::CCRTAllocator>, COMDAT
; _this$ = ecx

; 225  : 	{

  00000	55		 push	 ebp
  00001	8b ec		 mov	 ebp, esp
  00003	51		 push	 ecx
  00004	c7 45 fc cc cc
	cc cc		 mov	 DWORD PTR [ebp-4], -858993460 ; ccccccccH
  0000b	89 4d fc	 mov	 DWORD PTR _this$[ebp], ecx

; 226  : 		if( m_p != reinterpret_cast< T* >( m_abFixedBuffer ) )

  0000e	8b 45 fc	 mov	 eax, DWORD PTR _this$[ebp]
  00011	83 c0 04	 add	 eax, 4
  00014	8b 4d fc	 mov	 ecx, DWORD PTR _this$[ebp]
  00017	39 01		 cmp	 DWORD PTR [ecx], eax
  00019	74 08		 je	 SHORT $L181578

; 227  : 		{
; 228  : 			FreeHeap();

  0001b	8b 4d fc	 mov	 ecx, DWORD PTR _this$[ebp]
  0001e	e8 00 00 00 00	 call	 ?FreeHeap@?$CTempBuffer@D$0IA@VCCRTAllocator@ATL@@@ATL@@AAEXXZ ; ATL::CTempBuffer<char,128,ATL::CCRTAllocator>::FreeHeap
$L181578:

; 229  : 		}
; 230  : 	}

  00023	83 c4 04	 add	 esp, 4
  00026	3b ec		 cmp	 ebp, esp
  00028	e8 00 00 00 00	 call	 __RTC_CheckEsp
  0002d	8b e5		 mov	 esp, ebp
  0002f	5d		 pop	 ebp
  00030	c3		 ret	 0
??1?$CTempBuffer@D$0IA@VCCRTAllocator@ATL@@@ATL@@QAE@XZ ENDP ; ATL::CTempBuffer<char,128,ATL::CCRTAllocator>::~CTempBuffer<char,128,ATL::CCRTAllocator>
; Function compile flags: /Odt /RTCsu
_TEXT	ENDS
;	COMDAT ??B?$CTempBuffer@D$0IA@VCCRTAllocator@ATL@@@ATL@@QBEPADXZ
_TEXT	SEGMENT
_this$ = -4						; size = 4
??B?$CTempBuffer@D$0IA@VCCRTAllocator@ATL@@@ATL@@QBEPADXZ PROC NEAR ; ATL::CTempBuffer<char,128,ATL::CCRTAllocator>::operator char *, COMDAT
; _this$ = ecx

; 233  : 	{

  00000	55		 push	 ebp
  00001	8b ec		 mov	 ebp, esp
  00003	51		 push	 ecx
  00004	c7 45 fc cc cc
	cc cc		 mov	 DWORD PTR [ebp-4], -858993460 ; ccccccccH
  0000b	89 4d fc	 mov	 DWORD PTR _this$[ebp], ecx

; 234  : 		return( m_p );

  0000e	8b 45 fc	 mov	 eax, DWORD PTR _this$[ebp]
  00011	8b 00		 mov	 eax, DWORD PTR [eax]

; 235  : 	}

  00013	8b e5		 mov	 esp, ebp
  00015	5d		 pop	 ebp
  00016	c3		 ret	 0
??B?$CTempBuffer@D$0IA@VCCRTAllocator@ATL@@@ATL@@QBEPADXZ ENDP ; ATL::CTempBuffer<char,128,ATL::CCRTAllocator>::operator char *
_TEXT	ENDS
PUBLIC	?AllocateBytes@?$CTempBuffer@D$0IA@VCCRTAllocator@ATL@@@ATL@@QAEPADI@Z ; ATL::CTempBuffer<char,128,ATL::CCRTAllocator>::AllocateBytes
; Function compile flags: /Odt /RTCsu
;	COMDAT ?Allocate@?$CTempBuffer@D$0IA@VCCRTAllocator@ATL@@@ATL@@QAEPADI@Z
_TEXT	SEGMENT
_this$ = -4						; size = 4
_nElements$ = 8						; size = 4
?Allocate@?$CTempBuffer@D$0IA@VCCRTAllocator@ATL@@@ATL@@QAEPADI@Z PROC NEAR ; ATL::CTempBuffer<char,128,ATL::CCRTAllocator>::Allocate, COMDAT
; _this$ = ecx

; 243  : 	{

  00000	55		 push	 ebp
  00001	8b ec		 mov	 ebp, esp
  00003	51		 push	 ecx
  00004	c7 45 fc cc cc
	cc cc		 mov	 DWORD PTR [ebp-4], -858993460 ; ccccccccH
  0000b	89 4d fc	 mov	 DWORD PTR _this$[ebp], ecx

; 244  : 		return( AllocateBytes( nElements*sizeof( T ) ) );

  0000e	8b 45 08	 mov	 eax, DWORD PTR _nElements$[ebp]
  00011	50		 push	 eax
  00012	8b 4d fc	 mov	 ecx, DWORD PTR _this$[ebp]
  00015	e8 00 00 00 00	 call	 ?AllocateBytes@?$CTempBuffer@D$0IA@VCCRTAllocator@ATL@@@ATL@@QAEPADI@Z ; ATL::CTempBuffer<char,128,ATL::CCRTAllocator>::AllocateBytes

; 245  : 	}

  0001a	83 c4 04	 add	 esp, 4
  0001d	3b ec		 cmp	 ebp, esp
  0001f	e8 00 00 00 00	 call	 __RTC_CheckEsp
  00024	8b e5		 mov	 esp, ebp
  00026	5d		 pop	 ebp
  00027	c2 04 00	 ret	 4
?Allocate@?$CTempBuffer@D$0IA@VCCRTAllocator@ATL@@@ATL@@QAEPADI@Z ENDP ; ATL::CTempBuffer<char,128,ATL::CCRTAllocator>::Allocate
_TEXT	ENDS
PUBLIC	?Init@?$CW2AEX@$0IA@@ATL@@AAEXPB_WI@Z		; ATL::CW2AEX<128>::Init
; Function compile flags: /Odt /RTCsu
; File d:\program files (x86)\microsoft visual studio .net 2003\vc7\atlmfc\include\atlconv.h
;	COMDAT ??0?$CW2AEX@$0IA@@ATL@@QAE@PB_W@Z
_TEXT	SEGMENT
_this$ = -4						; size = 4
_psz$ = 8						; size = 4
??0?$CW2AEX@$0IA@@ATL@@QAE@PB_W@Z PROC NEAR		; ATL::CW2AEX<128>::CW2AEX<128>, COMDAT
; _this$ = ecx

; 419  : 	{

  00000	55		 push	 ebp
  00001	8b ec		 mov	 ebp, esp
  00003	51		 push	 ecx
  00004	c7 45 fc cc cc
	cc cc		 mov	 DWORD PTR [ebp-4], -858993460 ; ccccccccH
  0000b	89 4d fc	 mov	 DWORD PTR _this$[ebp], ecx
  0000e	8b 45 fc	 mov	 eax, DWORD PTR _this$[ebp]
  00011	83 c0 04	 add	 eax, 4
  00014	8b 4d fc	 mov	 ecx, DWORD PTR _this$[ebp]
  00017	89 01		 mov	 DWORD PTR [ecx], eax

; 420  : 		Init( psz, _AtlGetConversionACP() );

  00019	e8 00 00 00 00	 call	 ?_AtlGetConversionACP@ATL@@YGIXZ ; ATL::_AtlGetConversionACP
  0001e	50		 push	 eax
  0001f	8b 55 08	 mov	 edx, DWORD PTR _psz$[ebp]
  00022	52		 push	 edx
  00023	8b 4d fc	 mov	 ecx, DWORD PTR _this$[ebp]
  00026	e8 00 00 00 00	 call	 ?Init@?$CW2AEX@$0IA@@ATL@@AAEXPB_WI@Z ; ATL::CW2AEX<128>::Init

; 421  : 	}

  0002b	8b 45 fc	 mov	 eax, DWORD PTR _this$[ebp]
  0002e	83 c4 04	 add	 esp, 4
  00031	3b ec		 cmp	 ebp, esp
  00033	e8 00 00 00 00	 call	 __RTC_CheckEsp
  00038	8b e5		 mov	 esp, ebp
  0003a	5d		 pop	 ebp
  0003b	c2 04 00	 ret	 4
??0?$CW2AEX@$0IA@@ATL@@QAE@PB_W@Z ENDP			; ATL::CW2AEX<128>::CW2AEX<128>
; Function compile flags: /Odt /RTCsu
_TEXT	ENDS
;	COMDAT ??1?$CW2AEX@$0IA@@ATL@@QAE@XZ
_TEXT	SEGMENT
_this$ = -4						; size = 4
??1?$CW2AEX@$0IA@@ATL@@QAE@XZ PROC NEAR			; ATL::CW2AEX<128>::~CW2AEX<128>, COMDAT
; _this$ = ecx

; 428  : 	{

  00000	55		 push	 ebp
  00001	8b ec		 mov	 ebp, esp
  00003	51		 push	 ecx
  00004	56		 push	 esi
  00005	c7 45 fc cc cc
	cc cc		 mov	 DWORD PTR [ebp-4], -858993460 ; ccccccccH
  0000c	89 4d fc	 mov	 DWORD PTR _this$[ebp], ecx

; 429  : 		if( m_psz != m_szBuffer )

  0000f	8b 45 fc	 mov	 eax, DWORD PTR _this$[ebp]
  00012	83 c0 04	 add	 eax, 4
  00015	8b 4d fc	 mov	 ecx, DWORD PTR _this$[ebp]
  00018	39 01		 cmp	 DWORD PTR [ecx], eax
  0001a	74 18		 je	 SHORT $L181589

; 430  : 		{
; 431  : 			free( m_psz );

  0001c	8b f4		 mov	 esi, esp
  0001e	8b 55 fc	 mov	 edx, DWORD PTR _this$[ebp]
  00021	8b 02		 mov	 eax, DWORD PTR [edx]
  00023	50		 push	 eax
  00024	ff 15 00 00 00
	00		 call	 DWORD PTR __imp__free
  0002a	83 c4 04	 add	 esp, 4
  0002d	3b f4		 cmp	 esi, esp
  0002f	e8 00 00 00 00	 call	 __RTC_CheckEsp
$L181589:

; 432  : 		}
; 433  : 	}

  00034	5e		 pop	 esi
  00035	83 c4 04	 add	 esp, 4
  00038	3b ec		 cmp	 ebp, esp
  0003a	e8 00 00 00 00	 call	 __RTC_CheckEsp
  0003f	8b e5		 mov	 esp, ebp
  00041	5d		 pop	 ebp
  00042	c3		 ret	 0
??1?$CW2AEX@$0IA@@ATL@@QAE@XZ ENDP			; ATL::CW2AEX<128>::~CW2AEX<128>
; Function compile flags: /Odt /RTCsu
_TEXT	ENDS
;	COMDAT ??B?$CW2AEX@$0IA@@ATL@@QBEPADXZ
_TEXT	SEGMENT
_this$ = -4						; size = 4
??B?$CW2AEX@$0IA@@ATL@@QBEPADXZ PROC NEAR		; ATL::CW2AEX<128>::operator char *, COMDAT
; _this$ = ecx

; 436  : 	{

  00000	55		 push	 ebp
  00001	8b ec		 mov	 ebp, esp
  00003	51		 push	 ecx
  00004	c7 45 fc cc cc
	cc cc		 mov	 DWORD PTR [ebp-4], -858993460 ; ccccccccH
  0000b	89 4d fc	 mov	 DWORD PTR _this$[ebp], ecx

; 437  : 		return( m_psz );

  0000e	8b 45 fc	 mov	 eax, DWORD PTR _this$[ebp]
  00011	8b 00		 mov	 eax, DWORD PTR [eax]

; 438  : 	}

  00013	8b e5		 mov	 esp, ebp
  00015	5d		 pop	 ebp
  00016	c3		 ret	 0
??B?$CW2AEX@$0IA@@ATL@@QBEPADXZ ENDP			; ATL::CW2AEX<128>::operator char *
_TEXT	ENDS
PUBLIC	??_C@_08GPODJFIN@m_p?5?$DN?$DN?50?$AA@		; `string'
PUBLIC	??_C@_0FH@BOCPFCEM@D?3?2Program?5Files?5?$CIx86?$CJ?2Microsoft@ ; `string'
PUBLIC	?AllocateHeap@?$CTempBuffer@D$0IA@VCCRTAllocator@ATL@@@ATL@@AAEXI@Z ; ATL::CTempBuffer<char,128,ATL::CCRTAllocator>::AllocateHeap
;	COMDAT ??_C@_08GPODJFIN@m_p?5?$DN?$DN?50?$AA@
; File d:\program files (x86)\microsoft visual studio .net 2003\vc7\atlmfc\include\atlalloc.h
CONST	SEGMENT
??_C@_08GPODJFIN@m_p?5?$DN?$DN?50?$AA@ DB 'm_p == 0', 00H ; `string'
CONST	ENDS
;	COMDAT ??_C@_0FH@BOCPFCEM@D?3?2Program?5Files?5?$CIx86?$CJ?2Microsoft@
CONST	SEGMENT
??_C@_0FH@BOCPFCEM@D?3?2Program?5Files?5?$CIx86?$CJ?2Microsoft@ DB 'D:\Pr'
	DB	'ogram Files (x86)\Microsoft Visual Studio .NET 2003\Vc7\atlmf'
	DB	'c\include\atlalloc.h', 00H			; `string'
; Function compile flags: /Odt /RTCsu
CONST	ENDS
;	COMDAT ?AllocateBytes@?$CTempBuffer@D$0IA@VCCRTAllocator@ATL@@@ATL@@QAEPADI@Z
_TEXT	SEGMENT
_this$ = -4						; size = 4
_nBytes$ = 8						; size = 4
?AllocateBytes@?$CTempBuffer@D$0IA@VCCRTAllocator@ATL@@@ATL@@QAEPADI@Z PROC NEAR ; ATL::CTempBuffer<char,128,ATL::CCRTAllocator>::AllocateBytes, COMDAT
; _this$ = ecx

; 276  : 	{

  00000	55		 push	 ebp
  00001	8b ec		 mov	 ebp, esp
  00003	51		 push	 ecx
  00004	56		 push	 esi
  00005	c7 45 fc cc cc
	cc cc		 mov	 DWORD PTR [ebp-4], -858993460 ; ccccccccH
  0000c	89 4d fc	 mov	 DWORD PTR _this$[ebp], ecx

; 277  : 		ATLASSERT( m_p == NULL );

  0000f	8b 45 fc	 mov	 eax, DWORD PTR _this$[ebp]
  00012	83 38 00	 cmp	 DWORD PTR [eax], 0
  00015	74 2b		 je	 SHORT $L193109
  00017	8b f4		 mov	 esi, esp
  00019	68 00 00 00 00	 push	 OFFSET FLAT:??_C@_08GPODJFIN@m_p?5?$DN?$DN?50?$AA@
  0001e	6a 00		 push	 0
  00020	68 15 01 00 00	 push	 277			; 00000115H
  00025	68 00 00 00 00	 push	 OFFSET FLAT:??_C@_0FH@BOCPFCEM@D?3?2Program?5Files?5?$CIx86?$CJ?2Microsoft@
  0002a	6a 02		 push	 2
  0002c	ff 15 00 00 00
	00		 call	 DWORD PTR __imp___CrtDbgReport
  00032	83 c4 14	 add	 esp, 20			; 00000014H
  00035	3b f4		 cmp	 esi, esp
  00037	e8 00 00 00 00	 call	 __RTC_CheckEsp
  0003c	83 f8 01	 cmp	 eax, 1
  0003f	75 01		 jne	 SHORT $L193109
  00041	cc		 int	 3
$L193109:

; 278  : 		if( nBytes > t_nFixedBytes )

  00042	81 7d 08 80 00
	00 00		 cmp	 DWORD PTR _nBytes$[ebp], 128 ; 00000080H
  00049	76 0e		 jbe	 SHORT $L183346

; 279  : 		{
; 280  : 			AllocateHeap( nBytes );

  0004b	8b 55 08	 mov	 edx, DWORD PTR _nBytes$[ebp]
  0004e	52		 push	 edx
  0004f	8b 4d fc	 mov	 ecx, DWORD PTR _this$[ebp]
  00052	e8 00 00 00 00	 call	 ?AllocateHeap@?$CTempBuffer@D$0IA@VCCRTAllocator@ATL@@@ATL@@AAEXI@Z ; ATL::CTempBuffer<char,128,ATL::CCRTAllocator>::AllocateHeap

; 281  : 		}
; 282  : 		else

  00057	eb 0b		 jmp	 SHORT $L183347
$L183346:

; 283  : 		{
; 284  : 			m_p = reinterpret_cast< T* >( m_abFixedBuffer );

  00059	8b 45 fc	 mov	 eax, DWORD PTR _this$[ebp]
  0005c	83 c0 04	 add	 eax, 4
  0005f	8b 4d fc	 mov	 ecx, DWORD PTR _this$[ebp]
  00062	89 01		 mov	 DWORD PTR [ecx], eax
$L183347:

; 285  : 		}
; 286  : 
; 287  : 		return( m_p );

  00064	8b 55 fc	 mov	 edx, DWORD PTR _this$[ebp]
  00067	8b 02		 mov	 eax, DWORD PTR [edx]

; 288  : 	}

  00069	5e		 pop	 esi
  0006a	83 c4 04	 add	 esp, 4
  0006d	3b ec		 cmp	 ebp, esp
  0006f	e8 00 00 00 00	 call	 __RTC_CheckEsp
  00074	8b e5		 mov	 esp, ebp
  00076	5d		 pop	 ebp
  00077	c2 04 00	 ret	 4
?AllocateBytes@?$CTempBuffer@D$0IA@VCCRTAllocator@ATL@@@ATL@@QAEPADI@Z ENDP ; ATL::CTempBuffer<char,128,ATL::CCRTAllocator>::AllocateBytes
; Function compile flags: /Odt /RTCsu
_TEXT	ENDS
;	COMDAT ?FreeHeap@?$CTempBuffer@D$0IA@VCCRTAllocator@ATL@@@ATL@@AAEXXZ
_TEXT	SEGMENT
_this$ = -4						; size = 4
?FreeHeap@?$CTempBuffer@D$0IA@VCCRTAllocator@ATL@@@ATL@@AAEXXZ PROC NEAR ; ATL::CTempBuffer<char,128,ATL::CCRTAllocator>::FreeHeap, COMDAT
; _this$ = ecx

; 312  : 	{

  00000	55		 push	 ebp
  00001	8b ec		 mov	 ebp, esp
  00003	51		 push	 ecx
  00004	c7 45 fc cc cc
	cc cc		 mov	 DWORD PTR [ebp-4], -858993460 ; ccccccccH
  0000b	89 4d fc	 mov	 DWORD PTR _this$[ebp], ecx

; 313  : 		Allocator::Free( m_p );

  0000e	8b 45 fc	 mov	 eax, DWORD PTR _this$[ebp]
  00011	8b 08		 mov	 ecx, DWORD PTR [eax]
  00013	51		 push	 ecx
  00014	e8 00 00 00 00	 call	 ?Free@CCRTAllocator@ATL@@SAXPAX@Z ; ATL::CCRTAllocator::Free
  00019	83 c4 04	 add	 esp, 4

; 314  : 	}

  0001c	83 c4 04	 add	 esp, 4
  0001f	3b ec		 cmp	 ebp, esp
  00021	e8 00 00 00 00	 call	 __RTC_CheckEsp
  00026	8b e5		 mov	 esp, ebp
  00028	5d		 pop	 ebp
  00029	c3		 ret	 0
?FreeHeap@?$CTempBuffer@D$0IA@VCCRTAllocator@ATL@@@ATL@@AAEXXZ ENDP ; ATL::CTempBuffer<char,128,ATL::CCRTAllocator>::FreeHeap
_TEXT	ENDS
PUBLIC	?AtlThrowLastWin32@ATL@@YGXXZ			; ATL::AtlThrowLastWin32
; Function compile flags: /Odt /RTCsu
; File d:\program files (x86)\microsoft visual studio .net 2003\vc7\atlmfc\include\atlconv.h
;	COMDAT ?Init@?$CW2AEX@$0IA@@ATL@@AAEXPB_WI@Z
_TEXT	SEGMENT
_nLengthA$ = -12					; size = 4
_nLengthW$ = -8						; size = 4
_this$ = -4						; size = 4
_psz$ = 8						; size = 4
_nCodePage$ = 12					; size = 4
?Init@?$CW2AEX@$0IA@@ATL@@AAEXPB_WI@Z PROC NEAR		; ATL::CW2AEX<128>::Init, COMDAT
; _this$ = ecx

; 442  : 	{

  00000	55		 push	 ebp
  00001	8b ec		 mov	 ebp, esp
  00003	83 ec 0c	 sub	 esp, 12			; 0000000cH
  00006	56		 push	 esi
  00007	c7 45 f4 cc cc
	cc cc		 mov	 DWORD PTR [ebp-12], -858993460 ; ccccccccH
  0000e	c7 45 f8 cc cc
	cc cc		 mov	 DWORD PTR [ebp-8], -858993460 ; ccccccccH
  00015	c7 45 fc cc cc
	cc cc		 mov	 DWORD PTR [ebp-4], -858993460 ; ccccccccH
  0001c	89 4d fc	 mov	 DWORD PTR _this$[ebp], ecx

; 443  : 		if (psz == NULL)

  0001f	83 7d 08 00	 cmp	 DWORD PTR _psz$[ebp], 0
  00023	75 0e		 jne	 SHORT $L183353

; 444  : 		{
; 445  : 			m_psz = NULL;

  00025	8b 45 fc	 mov	 eax, DWORD PTR _this$[ebp]
  00028	c7 00 00 00 00
	00		 mov	 DWORD PTR [eax], 0

; 446  : 			return;

  0002e	e9 8b 00 00 00	 jmp	 $L193111
$L183353:

; 447  : 		}
; 448  : 		int nLengthW = lstrlenW( psz )+1;

  00033	8b f4		 mov	 esi, esp
  00035	8b 4d 08	 mov	 ecx, DWORD PTR _psz$[ebp]
  00038	51		 push	 ecx
  00039	ff 15 00 00 00
	00		 call	 DWORD PTR __imp__lstrlenW@4
  0003f	3b f4		 cmp	 esi, esp
  00041	e8 00 00 00 00	 call	 __RTC_CheckEsp
  00046	83 c0 01	 add	 eax, 1
  00049	89 45 f8	 mov	 DWORD PTR _nLengthW$[ebp], eax

; 449  : 		int nLengthA = nLengthW*2;

  0004c	8b 55 f8	 mov	 edx, DWORD PTR _nLengthW$[ebp]
  0004f	d1 e2		 shl	 edx, 1
  00051	89 55 f4	 mov	 DWORD PTR _nLengthA$[ebp], edx

; 450  : 
; 451  : 		if( nLengthA > t_nBufferLength )

  00054	81 7d f4 80 00
	00 00		 cmp	 DWORD PTR _nLengthA$[ebp], 128 ; 00000080H
  0005b	7e 2d		 jle	 SHORT $L183356

; 452  : 		{
; 453  : 			m_psz = static_cast< LPSTR >( malloc( nLengthA*sizeof( char ) ) );

  0005d	8b f4		 mov	 esi, esp
  0005f	8b 45 f4	 mov	 eax, DWORD PTR _nLengthA$[ebp]
  00062	50		 push	 eax
  00063	ff 15 00 00 00
	00		 call	 DWORD PTR __imp__malloc
  00069	83 c4 04	 add	 esp, 4
  0006c	3b f4		 cmp	 esi, esp
  0006e	e8 00 00 00 00	 call	 __RTC_CheckEsp
  00073	8b 4d fc	 mov	 ecx, DWORD PTR _this$[ebp]
  00076	89 01		 mov	 DWORD PTR [ecx], eax

; 454  : 			if (m_psz == NULL)

  00078	8b 55 fc	 mov	 edx, DWORD PTR _this$[ebp]
  0007b	83 3a 00	 cmp	 DWORD PTR [edx], 0
  0007e	75 0a		 jne	 SHORT $L183356

; 455  : 			{
; 456  : 				AtlThrow( E_OUTOFMEMORY );

  00080	68 0e 00 07 80	 push	 -2147024882		; 8007000eH
  00085	e8 00 00 00 00	 call	 ?AtlThrow@ATL@@YGXJ@Z	; ATL::AtlThrow
$L183356:

; 457  : 			}
; 458  : 		}
; 459  : 
; 460  : 		if (::WideCharToMultiByte( nCodePage, 0, psz, nLengthW, m_psz, nLengthA, NULL, NULL ) == 0)

  0008a	8b f4		 mov	 esi, esp
  0008c	6a 00		 push	 0
  0008e	6a 00		 push	 0
  00090	8b 45 f4	 mov	 eax, DWORD PTR _nLengthA$[ebp]
  00093	50		 push	 eax
  00094	8b 4d fc	 mov	 ecx, DWORD PTR _this$[ebp]
  00097	8b 11		 mov	 edx, DWORD PTR [ecx]
  00099	52		 push	 edx
  0009a	8b 45 f8	 mov	 eax, DWORD PTR _nLengthW$[ebp]
  0009d	50		 push	 eax
  0009e	8b 4d 08	 mov	 ecx, DWORD PTR _psz$[ebp]
  000a1	51		 push	 ecx
  000a2	6a 00		 push	 0
  000a4	8b 55 0c	 mov	 edx, DWORD PTR _nCodePage$[ebp]
  000a7	52		 push	 edx
  000a8	ff 15 00 00 00
	00		 call	 DWORD PTR __imp__WideCharToMultiByte@32
  000ae	3b f4		 cmp	 esi, esp
  000b0	e8 00 00 00 00	 call	 __RTC_CheckEsp
  000b5	85 c0		 test	 eax, eax
  000b7	75 05		 jne	 SHORT $L193111

; 461  : 		{
; 462  : 			AtlThrowLastWin32();

  000b9	e8 00 00 00 00	 call	 ?AtlThrowLastWin32@ATL@@YGXXZ ; ATL::AtlThrowLastWin32
$L193111:

; 463  : 		}
; 464  : 	}

  000be	5e		 pop	 esi
  000bf	83 c4 0c	 add	 esp, 12			; 0000000cH
  000c2	3b ec		 cmp	 ebp, esp
  000c4	e8 00 00 00 00	 call	 __RTC_CheckEsp
  000c9	8b e5		 mov	 esp, ebp
  000cb	5d		 pop	 ebp
  000cc	c2 08 00	 ret	 8
?Init@?$CW2AEX@$0IA@@ATL@@AAEXPB_WI@Z ENDP		; ATL::CW2AEX<128>::Init
_TEXT	ENDS
EXTRN	__imp__GetLastError@0:NEAR
; Function compile flags: /Odt /RTCsu
; File d:\program files (x86)\microsoft visual studio .net 2003\vc7\atlmfc\include\atlexcept.h
;	COMDAT ?AtlThrowLastWin32@ATL@@YGXXZ
_TEXT	SEGMENT
tv69 = -8						; size = 4
_dwError$ = -4						; size = 4
?AtlThrowLastWin32@ATL@@YGXXZ PROC NEAR			; ATL::AtlThrowLastWin32, COMDAT

; 80   : {

  00000	55		 push	 ebp
  00001	8b ec		 mov	 ebp, esp
  00003	83 ec 08	 sub	 esp, 8
  00006	56		 push	 esi
  00007	c7 45 f8 cc cc
	cc cc		 mov	 DWORD PTR [ebp-8], -858993460 ; ccccccccH
  0000e	c7 45 fc cc cc
	cc cc		 mov	 DWORD PTR [ebp-4], -858993460 ; ccccccccH

; 81   : 	DWORD dwError = ::GetLastError();

  00015	8b f4		 mov	 esi, esp
  00017	ff 15 00 00 00
	00		 call	 DWORD PTR __imp__GetLastError@0
  0001d	3b f4		 cmp	 esi, esp
  0001f	e8 00 00 00 00	 call	 __RTC_CheckEsp
  00024	89 45 fc	 mov	 DWORD PTR _dwError$[ebp], eax

; 82   : 	AtlThrow( HRESULT_FROM_WIN32( dwError ) );

  00027	83 7d fc 00	 cmp	 DWORD PTR _dwError$[ebp], 0
  0002b	7f 08		 jg	 SHORT $L193113
  0002d	8b 45 fc	 mov	 eax, DWORD PTR _dwError$[ebp]
  00030	89 45 f8	 mov	 DWORD PTR tv69[ebp], eax
  00033	eb 18		 jmp	 SHORT $L193114
$L193113:
  00035	8b 4d fc	 mov	 ecx, DWORD PTR _dwError$[ebp]
  00038	81 e1 ff ff 00
	00		 and	 ecx, 65535		; 0000ffffH
  0003e	81 c9 00 00 07
	00		 or	 ecx, 458752		; 00070000H
  00044	81 c9 00 00 00
	80		 or	 ecx, -2147483648	; 80000000H
  0004a	89 4d f8	 mov	 DWORD PTR tv69[ebp], ecx
$L193114:
  0004d	8b 55 f8	 mov	 edx, DWORD PTR tv69[ebp]
  00050	52		 push	 edx
  00051	e8 00 00 00 00	 call	 ?AtlThrow@ATL@@YGXJ@Z	; ATL::AtlThrow
$L193112:

; 83   : }

  00056	5e		 pop	 esi
  00057	83 c4 08	 add	 esp, 8
  0005a	3b ec		 cmp	 ebp, esp
  0005c	e8 00 00 00 00	 call	 __RTC_CheckEsp
  00061	8b e5		 mov	 esp, ebp
  00063	5d		 pop	 ebp
  00064	c3		 ret	 0
?AtlThrowLastWin32@ATL@@YGXXZ ENDP			; ATL::AtlThrowLastWin32
; Function compile flags: /Odt /RTCsu
; File d:\program files (x86)\microsoft visual studio .net 2003\vc7\atlmfc\include\atlalloc.h
_TEXT	ENDS
;	COMDAT ?GetData@CAtlSafeAllocBufferNode@?$CAtlSafeAllocBufferManager@VCCRTAllocator@ATL@@@_ATL_SAFE_ALLOCA_IMPL@ATL@@QAEPAXXZ
_TEXT	SEGMENT
_this$ = -4						; size = 4
?GetData@CAtlSafeAllocBufferNode@?$CAtlSafeAllocBufferManager@VCCRTAllocator@ATL@@@_ATL_SAFE_ALLOCA_IMPL@ATL@@QAEPAXXZ PROC NEAR ; ATL::_ATL_SAFE_ALLOCA_IMPL::CAtlSafeAllocBufferManager<ATL::CCRTAllocator>::CAtlSafeAllocBufferNode::GetData, COMDAT
; _this$ = ecx

; 365  : 		{

  00000	55		 push	 ebp
  00001	8b ec		 mov	 ebp, esp
  00003	51		 push	 ecx
  00004	c7 45 fc cc cc
	cc cc		 mov	 DWORD PTR [ebp-4], -858993460 ; ccccccccH
  0000b	89 4d fc	 mov	 DWORD PTR _this$[ebp], ecx

; 366  : 			return (this + 1);

  0000e	8b 45 fc	 mov	 eax, DWORD PTR _this$[ebp]
  00011	83 c0 08	 add	 eax, 8

; 367  : 		}

  00014	8b e5		 mov	 esp, ebp
  00016	5d		 pop	 ebp
  00017	c3		 ret	 0
?GetData@CAtlSafeAllocBufferNode@?$CAtlSafeAllocBufferManager@VCCRTAllocator@ATL@@@_ATL_SAFE_ALLOCA_IMPL@ATL@@QAEPAXXZ ENDP ; ATL::_ATL_SAFE_ALLOCA_IMPL::CAtlSafeAllocBufferManager<ATL::CCRTAllocator>::CAtlSafeAllocBufferNode::GetData
; Function compile flags: /Odt /RTCsu
_TEXT	ENDS
;	COMDAT ?AllocateHeap@?$CTempBuffer@D$0IA@VCCRTAllocator@ATL@@@ATL@@AAEXI@Z
_TEXT	SEGMENT
_p$ = -8						; size = 4
_this$ = -4						; size = 4
_nBytes$ = 8						; size = 4
?AllocateHeap@?$CTempBuffer@D$0IA@VCCRTAllocator@ATL@@@ATL@@AAEXI@Z PROC NEAR ; ATL::CTempBuffer<char,128,ATL::CCRTAllocator>::AllocateHeap, COMDAT
; _this$ = ecx

; 292  : 	{

  00000	55		 push	 ebp
  00001	8b ec		 mov	 ebp, esp
  00003	83 ec 08	 sub	 esp, 8
  00006	c7 45 f8 cc cc
	cc cc		 mov	 DWORD PTR [ebp-8], -858993460 ; ccccccccH
  0000d	c7 45 fc cc cc
	cc cc		 mov	 DWORD PTR [ebp-4], -858993460 ; ccccccccH
  00014	89 4d fc	 mov	 DWORD PTR _this$[ebp], ecx

; 293  : 		T* p = static_cast< T* >( Allocator::Allocate( nBytes ) );

  00017	8b 45 08	 mov	 eax, DWORD PTR _nBytes$[ebp]
  0001a	50		 push	 eax
  0001b	e8 00 00 00 00	 call	 ?Allocate@CCRTAllocator@ATL@@SAPAXI@Z ; ATL::CCRTAllocator::Allocate
  00020	83 c4 04	 add	 esp, 4
  00023	89 45 f8	 mov	 DWORD PTR _p$[ebp], eax

; 294  : 		if( p == NULL )

  00026	83 7d f8 00	 cmp	 DWORD PTR _p$[ebp], 0
  0002a	75 0a		 jne	 SHORT $L184832

; 295  : 		{
; 296  : 			AtlThrow( E_OUTOFMEMORY );

  0002c	68 0e 00 07 80	 push	 -2147024882		; 8007000eH
  00031	e8 00 00 00 00	 call	 ?AtlThrow@ATL@@YGXJ@Z	; ATL::AtlThrow
$L184832:

; 297  : 		}
; 298  : 		m_p = p;

  00036	8b 4d fc	 mov	 ecx, DWORD PTR _this$[ebp]
  00039	8b 55 f8	 mov	 edx, DWORD PTR _p$[ebp]
  0003c	89 11		 mov	 DWORD PTR [ecx], edx
$L193116:

; 299  : 	}

  0003e	83 c4 08	 add	 esp, 8
  00041	3b ec		 cmp	 ebp, esp
  00043	e8 00 00 00 00	 call	 __RTC_CheckEsp
  00048	8b e5		 mov	 esp, ebp
  0004a	5d		 pop	 ebp
  0004b	c2 04 00	 ret	 4
?AllocateHeap@?$CTempBuffer@D$0IA@VCCRTAllocator@ATL@@@ATL@@AAEXI@Z ENDP ; ATL::CTempBuffer<char,128,ATL::CCRTAllocator>::AllocateHeap
_TEXT	ENDS
EXTRN	__imp_??0exception@@QAE@ABV0@@Z:NEAR
;	COMDAT xdata$x
xdata$x	SEGMENT
$T193123 DD	0ffffffffH
	DD	FLAT:$L193118
$T193121 DD	019930520H
	DD	01H
	DD	FLAT:$T193123
	DD	2 DUP(00H)
	DD	2 DUP(00H)
; Function compile flags: /Odt /RTCsu
xdata$x	ENDS
;	COMDAT ??0logic_error@std@@QAE@ABV01@@Z
_TEXT	SEGMENT
_this$ = -16						; size = 4
__$EHRec$ = -12						; size = 12
___that$ = 8						; size = 4
??0logic_error@std@@QAE@ABV01@@Z PROC NEAR		; std::logic_error::logic_error, COMDAT
; _this$ = ecx
  00000	55		 push	 ebp
  00001	8b ec		 mov	 ebp, esp
  00003	6a ff		 push	 -1
  00005	68 00 00 00 00	 push	 __ehhandler$??0logic_error@std@@QAE@ABV01@@Z
  0000a	64 a1 00 00 00
	00		 mov	 eax, DWORD PTR fs:__except_list
  00010	50		 push	 eax
  00011	64 89 25 00 00
	00 00		 mov	 DWORD PTR fs:__except_list, esp
  00018	51		 push	 ecx
  00019	56		 push	 esi
  0001a	c7 45 f0 cc cc
	cc cc		 mov	 DWORD PTR [ebp-16], -858993460 ; ccccccccH
  00021	89 4d f0	 mov	 DWORD PTR _this$[ebp], ecx
  00024	8b f4		 mov	 esi, esp
  00026	8b 45 08	 mov	 eax, DWORD PTR ___that$[ebp]
  00029	50		 push	 eax
  0002a	8b 4d f0	 mov	 ecx, DWORD PTR _this$[ebp]
  0002d	ff 15 00 00 00
	00		 call	 DWORD PTR __imp_??0exception@@QAE@ABV0@@Z
  00033	3b f4		 cmp	 esi, esp
  00035	e8 00 00 00 00	 call	 __RTC_CheckEsp
  0003a	c7 45 fc 00 00
	00 00		 mov	 DWORD PTR __$EHRec$[ebp+8], 0
  00041	8b 4d f0	 mov	 ecx, DWORD PTR _this$[ebp]
  00044	c7 01 00 00 00
	00		 mov	 DWORD PTR [ecx], OFFSET FLAT:??_7logic_error@std@@6B@
  0004a	8b 55 08	 mov	 edx, DWORD PTR ___that$[ebp]
  0004d	83 c2 0c	 add	 edx, 12			; 0000000cH
  00050	8b f4		 mov	 esi, esp
  00052	52		 push	 edx
  00053	8b 4d f0	 mov	 ecx, DWORD PTR _this$[ebp]
  00056	83 c1 0c	 add	 ecx, 12			; 0000000cH
  00059	ff 15 00 00 00
	00		 call	 DWORD PTR __imp_??0?$basic_string@DU?$char_traits@D@std@@V?$allocator@D@2@@std@@QAE@ABV01@@Z
  0005f	3b f4		 cmp	 esi, esp
  00061	e8 00 00 00 00	 call	 __RTC_CheckEsp
  00066	c7 45 fc ff ff
	ff ff		 mov	 DWORD PTR __$EHRec$[ebp+8], -1
  0006d	8b 45 f0	 mov	 eax, DWORD PTR _this$[ebp]
  00070	8b 4d f4	 mov	 ecx, DWORD PTR __$EHRec$[ebp]
  00073	64 89 0d 00 00
	00 00		 mov	 DWORD PTR fs:__except_list, ecx
  0007a	5e		 pop	 esi
  0007b	83 c4 10	 add	 esp, 16			; 00000010H
  0007e	3b ec		 cmp	 ebp, esp
  00080	e8 00 00 00 00	 call	 __RTC_CheckEsp
  00085	8b e5		 mov	 esp, ebp
  00087	5d		 pop	 ebp
  00088	c2 04 00	 ret	 4
_TEXT	ENDS
;	COMDAT text$x
text$x	SEGMENT
$L193118:
  00000	8b f4		 mov	 esi, esp
  00002	8b 4d f0	 mov	 ecx, DWORD PTR _this$[ebp]
  00005	ff 15 00 00 00
	00		 call	 DWORD PTR __imp_??1exception@@UAE@XZ
  0000b	3b f4		 cmp	 esi, esp
  0000d	e9 00 00 00 00	 jmp	 __RTC_CheckEsp
__ehhandler$??0logic_error@std@@QAE@ABV01@@Z:
  00012	b8 00 00 00 00	 mov	 eax, OFFSET FLAT:$T193121
  00017	e9 00 00 00 00	 jmp	 ___CxxFrameHandler
text$x	ENDS
??0logic_error@std@@QAE@ABV01@@Z ENDP			; std::logic_error::logic_error
EXTRN	__imp_??Y?$basic_string@DU?$char_traits@D@std@@V?$allocator@D@2@@std@@QAEAAV01@PBD@Z:NEAR
;	COMDAT xdata$x
; File d:\program files (x86)\microsoft visual studio .net 2003\vc7\include\string
xdata$x	SEGMENT
$T193135 DD	0ffffffffH
	DD	FLAT:$L193129
	DD	00H
	DD	FLAT:$L193128
$T193133 DD	019930520H
	DD	02H
	DD	FLAT:$T193135
	DD	2 DUP(00H)
	DD	2 DUP(00H)
; Function compile flags: /Odt /RTCsu
xdata$x	ENDS
;	COMDAT ??$?HDU?$char_traits@D@std@@V?$allocator@D@1@@std@@YA?AV?$basic_string@DU?$char_traits@D@std@@V?$allocator@D@2@@0@ABV10@PBD@Z
_TEXT	SEGMENT
tv77 = -52						; size = 4
tv82 = -48						; size = 4
$T193130 = -44						; size = 4
$T193127 = -40						; size = 28
__$EHRec$ = -12						; size = 12
___$ReturnUdt$ = 8					; size = 4
__Left$ = 12						; size = 4
__Right$ = 16						; size = 4
??$?HDU?$char_traits@D@std@@V?$allocator@D@1@@std@@YA?AV?$basic_string@DU?$char_traits@D@std@@V?$allocator@D@2@@0@ABV10@PBD@Z PROC NEAR ; std::operator+<char,std::char_traits<char>,std::allocator<char> >, COMDAT

; 51   : 	{	// return string + NTCS

  00000	55		 push	 ebp
  00001	8b ec		 mov	 ebp, esp
  00003	6a ff		 push	 -1
  00005	68 00 00 00 00	 push	 __ehhandler$??$?HDU?$char_traits@D@std@@V?$allocator@D@1@@std@@YA?AV?$basic_string@DU?$char_traits@D@std@@V?$allocator@D@2@@0@ABV10@PBD@Z
  0000a	64 a1 00 00 00
	00		 mov	 eax, DWORD PTR fs:__except_list
  00010	50		 push	 eax
  00011	64 89 25 00 00
	00 00		 mov	 DWORD PTR fs:__except_list, esp
  00018	83 ec 28	 sub	 esp, 40			; 00000028H
  0001b	56		 push	 esi
  0001c	57		 push	 edi
  0001d	8d 7d cc	 lea	 edi, DWORD PTR [ebp-52]
  00020	b9 0a 00 00 00	 mov	 ecx, 10			; 0000000aH
  00025	b8 cc cc cc cc	 mov	 eax, -858993460		; ccccccccH
  0002a	f3 ab		 rep stosd
  0002c	c7 45 d4 00 00
	00 00		 mov	 DWORD PTR $T193130[ebp], 0

; 52   : 	return (basic_string<_Elem, _Traits, _Alloc>(_Left) += _Right);

  00033	8b f4		 mov	 esi, esp
  00035	8b 45 0c	 mov	 eax, DWORD PTR __Left$[ebp]
  00038	50		 push	 eax
  00039	8d 4d d8	 lea	 ecx, DWORD PTR $T193127[ebp]
  0003c	ff 15 00 00 00
	00		 call	 DWORD PTR __imp_??0?$basic_string@DU?$char_traits@D@std@@V?$allocator@D@2@@std@@QAE@ABV01@@Z
  00042	3b f4		 cmp	 esi, esp
  00044	e8 00 00 00 00	 call	 __RTC_CheckEsp
  00049	89 45 d0	 mov	 DWORD PTR tv82[ebp], eax
  0004c	8b 4d d0	 mov	 ecx, DWORD PTR tv82[ebp]
  0004f	89 4d cc	 mov	 DWORD PTR tv77[ebp], ecx
  00052	c7 45 fc 01 00
	00 00		 mov	 DWORD PTR __$EHRec$[ebp+8], 1
  00059	8b f4		 mov	 esi, esp
  0005b	8b 55 10	 mov	 edx, DWORD PTR __Right$[ebp]
  0005e	52		 push	 edx
  0005f	8b 4d cc	 mov	 ecx, DWORD PTR tv77[ebp]
  00062	ff 15 00 00 00
	00		 call	 DWORD PTR __imp_??Y?$basic_string@DU?$char_traits@D@std@@V?$allocator@D@2@@std@@QAEAAV01@PBD@Z
  00068	3b f4		 cmp	 esi, esp
  0006a	e8 00 00 00 00	 call	 __RTC_CheckEsp
  0006f	8b f4		 mov	 esi, esp
  00071	50		 push	 eax
  00072	8b 4d 08	 mov	 ecx, DWORD PTR ___$ReturnUdt$[ebp]
  00075	ff 15 00 00 00
	00		 call	 DWORD PTR __imp_??0?$basic_string@DU?$char_traits@D@std@@V?$allocator@D@2@@std@@QAE@ABV01@@Z
  0007b	3b f4		 cmp	 esi, esp
  0007d	e8 00 00 00 00	 call	 __RTC_CheckEsp
  00082	8b 45 d4	 mov	 eax, DWORD PTR $T193130[ebp]
  00085	83 c8 01	 or	 eax, 1
  00088	89 45 d4	 mov	 DWORD PTR $T193130[ebp], eax
  0008b	c6 45 fc 00	 mov	 BYTE PTR __$EHRec$[ebp+8], 0
  0008f	8b f4		 mov	 esi, esp
  00091	8d 4d d8	 lea	 ecx, DWORD PTR $T193127[ebp]
  00094	ff 15 00 00 00
	00		 call	 DWORD PTR __imp_??1?$basic_string@DU?$char_traits@D@std@@V?$allocator@D@2@@std@@QAE@XZ
  0009a	3b f4		 cmp	 esi, esp
  0009c	e8 00 00 00 00	 call	 __RTC_CheckEsp
  000a1	8b 45 08	 mov	 eax, DWORD PTR ___$ReturnUdt$[ebp]

; 53   : 	}

  000a4	8b 4d f4	 mov	 ecx, DWORD PTR __$EHRec$[ebp]
  000a7	64 89 0d 00 00
	00 00		 mov	 DWORD PTR fs:__except_list, ecx
  000ae	5f		 pop	 edi
  000af	5e		 pop	 esi
  000b0	83 c4 34	 add	 esp, 52			; 00000034H
  000b3	3b ec		 cmp	 ebp, esp
  000b5	e8 00 00 00 00	 call	 __RTC_CheckEsp
  000ba	8b e5		 mov	 esp, ebp
  000bc	5d		 pop	 ebp
  000bd	c3		 ret	 0
_TEXT	ENDS
;	COMDAT text$x
text$x	SEGMENT
$L193128:
  00000	8b f4		 mov	 esi, esp
  00002	8d 4d d8	 lea	 ecx, DWORD PTR $T193127[ebp]
  00005	ff 15 00 00 00
	00		 call	 DWORD PTR __imp_??1?$basic_string@DU?$char_traits@D@std@@V?$allocator@D@2@@std@@QAE@XZ
  0000b	3b f4		 cmp	 esi, esp
  0000d	e9 00 00 00 00	 jmp	 __RTC_CheckEsp
$L193129:
  00012	8b 45 d4	 mov	 eax, DWORD PTR $T193130[ebp]
  00015	83 e0 01	 and	 eax, 1
  00018	0f 84 16 00 00
	00		 je	 $L193131
  0001e	83 65 d4 fe	 and	 DWORD PTR $T193130[ebp], -2 ; fffffffeH
  00022	8b f4		 mov	 esi, esp
  00024	8b 4d 08	 mov	 ecx, DWORD PTR ___$ReturnUdt$[ebp]
  00027	ff 15 00 00 00
	00		 call	 DWORD PTR __imp_??1?$basic_string@DU?$char_traits@D@std@@V?$allocator@D@2@@std@@QAE@XZ
  0002d	3b f4		 cmp	 esi, esp
  0002f	e9 00 00 00 00	 jmp	 __RTC_CheckEsp
$L193131:
  00034	c3		 ret	 0
__ehhandler$??$?HDU?$char_traits@D@std@@V?$allocator@D@1@@std@@YA?AV?$basic_string@DU?$char_traits@D@std@@V?$allocator@D@2@@0@ABV10@PBD@Z:
  00035	b8 00 00 00 00	 mov	 eax, OFFSET FLAT:$T193133
  0003a	e9 00 00 00 00	 jmp	 ___CxxFrameHandler
text$x	ENDS
??$?HDU?$char_traits@D@std@@V?$allocator@D@1@@std@@YA?AV?$basic_string@DU?$char_traits@D@std@@V?$allocator@D@2@@0@ABV10@PBD@Z ENDP ; std::operator+<char,std::char_traits<char>,std::allocator<char> >
END
