; Listing generated by Microsoft (R) Optimizing Compiler Version 13.10.3077 

	TITLE	.\src\module\PlayedGamePanel\LocalMusicCoverList.cpp
	.386P
include listing.inc
if @Version gt 510
.model FLAT
else
_TEXT	SEGMENT PARA USE32 PUBLIC 'CODE'
_TEXT	ENDS
_DATA	SEGMENT DWORD USE32 PUBLIC 'DATA'
_DATA	ENDS
CONST	SEGMENT DWORD USE32 PUBLIC 'CONST'
CONST	ENDS
_BSS	SEGMENT DWORD USE32 PUBLIC 'BSS'
_BSS	ENDS
$$SYMBOLS	SEGMENT BYTE USE32 'DEBSYM'
$$SYMBOLS	ENDS
_TLS	SEGMENT DWORD USE32 PUBLIC 'TLS'
_TLS	ENDS
;	COMDAT ??_C@_0DC@KJIHKHDE@?$CInCount?5?$DN?$DN?50?$CJ?5?$HM?$HM?5?$CI?$CIiFirst?$CLnCount@
CONST	SEGMENT DWORD USE32 PUBLIC 'CONST'
CONST	ENDS
;	COMDAT ??_C@_0EN@IBFBLEEG@D?3?2Program?5Files?5?$CIx86?$CJ?2Microsoft@
CONST	SEGMENT DWORD USE32 PUBLIC 'CONST'
CONST	ENDS
;	COMDAT ??_C@_0BC@KBDMBKEH@deque?$DMT?$DO?5too?5long?$AA@
CONST	SEGMENT DWORD USE32 PUBLIC 'CONST'
CONST	ENDS
;	COMDAT ??_C@_0BD@OLBABOEK@vector?$DMT?$DO?5too?5long?$AA@
CONST	SEGMENT DWORD USE32 PUBLIC 'CONST'
CONST	ENDS
rdata$r	SEGMENT DWORD USE32 PUBLIC 'CONST'
rdata$r	ENDS
xdata$x	SEGMENT DWORD USE32 PUBLIC 'CONST'
xdata$x	ENDS
text$AFX_COL1	SEGMENT PARA USE32 PUBLIC ''
text$AFX_COL1	ENDS
text$yc	SEGMENT PARA USE32 PUBLIC 'CODE'
text$yc	ENDS
CRT$XCA	SEGMENT DWORD USE32 PUBLIC 'DATA'
CRT$XCA	ENDS
CRT$XCU	SEGMENT DWORD USE32 PUBLIC 'DATA'
CRT$XCU	ENDS
CRT$XCL	SEGMENT DWORD USE32 PUBLIC 'DATA'
CRT$XCL	ENDS
CRT$XCC	SEGMENT DWORD USE32 PUBLIC 'DATA'
CRT$XCC	ENDS
CRT$XCZ	SEGMENT DWORD USE32 PUBLIC 'DATA'
CRT$XCZ	ENDS
text$yd	SEGMENT PARA USE32 PUBLIC 'CODE'
text$yd	ENDS
ATL$__m	SEGMENT DWORD USE32 PUBLIC ''
ATL$__m	ENDS
ATL$__z	SEGMENT DWORD USE32 PUBLIC ''
ATL$__z	ENDS
ATL$__a	SEGMENT DWORD USE32 PUBLIC ''
ATL$__a	ENDS
;	COMDAT ??0GdiRes@@QAE@XZ
_TEXT	SEGMENT PARA USE32 PUBLIC 'CODE'
_TEXT	ENDS
;	COMDAT ??1_tagLMCItemInfo@@QAE@XZ
_TEXT	SEGMENT PARA USE32 PUBLIC 'CODE'
_TEXT	ENDS
;	COMDAT _$E5
text$yc	SEGMENT PARA USE32 PUBLIC 'CODE'
text$yc	ENDS
;	COMDAT ??_GCLocalMusicCoverList@@UAEPAXI@Z
_TEXT	SEGMENT PARA USE32 PUBLIC 'CODE'
_TEXT	ENDS
;	COMDAT ??0_tagLMCItemInfo@@QAE@ABU0@@Z
_TEXT	SEGMENT PARA USE32 PUBLIC 'CODE'
_TEXT	ENDS
;	COMDAT ??B?$CComPtrBase@UITypeInfo2@@@ATL@@QBEPAUITypeInfo2@@XZ
_TEXT	SEGMENT PARA USE32 PUBLIC 'CODE'
_TEXT	ENDS
;	COMDAT ?equal@?$istreambuf_iterator@DU?$char_traits@D@std@@@std@@QBE_NABV12@@Z
_TEXT	SEGMENT PARA USE32 PUBLIC 'CODE'
_TEXT	ENDS
;	COMDAT ?equal@?$istreambuf_iterator@_WU?$char_traits@_W@std@@@std@@QBE_NABV12@@Z
_TEXT	SEGMENT PARA USE32 PUBLIC 'CODE'
_TEXT	ENDS
;	COMDAT ?begin@?$vector@U_tagLMCItemInfo@@V?$allocator@U_tagLMCItemInfo@@@std@@@std@@QAE?AViterator@12@XZ
_TEXT	SEGMENT PARA USE32 PUBLIC 'CODE'
_TEXT	ENDS
;	COMDAT ?end@?$vector@U_tagLMCItemInfo@@V?$allocator@U_tagLMCItemInfo@@@std@@@std@@QAE?AViterator@12@XZ
_TEXT	SEGMENT PARA USE32 PUBLIC 'CODE'
_TEXT	ENDS
;	COMDAT ?size@?$vector@U_tagLMCItemInfo@@V?$allocator@U_tagLMCItemInfo@@@std@@@std@@QBEIXZ
_TEXT	SEGMENT PARA USE32 PUBLIC 'CODE'
_TEXT	ENDS
;	COMDAT ??A?$vector@U_tagLMCItemInfo@@V?$allocator@U_tagLMCItemInfo@@@std@@@std@@QAEAAU_tagLMCItemInfo@@I@Z
_TEXT	SEGMENT PARA USE32 PUBLIC 'CODE'
_TEXT	ENDS
;	COMDAT ??0?$deque@VCPoint@@V?$allocator@VCPoint@@@std@@@std@@QAE@XZ
_TEXT	SEGMENT PARA USE32 PUBLIC 'CODE'
_TEXT	ENDS
;	COMDAT ??1?$deque@VCPoint@@V?$allocator@VCPoint@@@std@@@std@@QAE@XZ
_TEXT	SEGMENT PARA USE32 PUBLIC 'CODE'
_TEXT	ENDS
;	COMDAT ?size@?$deque@VCPoint@@V?$allocator@VCPoint@@@std@@@std@@QBEIXZ
_TEXT	SEGMENT PARA USE32 PUBLIC 'CODE'
_TEXT	ENDS
;	COMDAT ?front@?$deque@VCPoint@@V?$allocator@VCPoint@@@std@@@std@@QAEAAVCPoint@@XZ
_TEXT	SEGMENT PARA USE32 PUBLIC 'CODE'
_TEXT	ENDS
;	COMDAT ?pop_front@?$deque@VCPoint@@V?$allocator@VCPoint@@@std@@@std@@QAEXXZ
_TEXT	SEGMENT PARA USE32 PUBLIC 'CODE'
_TEXT	ENDS
;	COMDAT ?push_back@?$deque@VCPoint@@V?$allocator@VCPoint@@@std@@@std@@QAEXABVCPoint@@@Z
_TEXT	SEGMENT PARA USE32 PUBLIC 'CODE'
_TEXT	ENDS
;	COMDAT ??0?$vector@HV?$allocator@H@std@@@std@@QAE@XZ
_TEXT	SEGMENT PARA USE32 PUBLIC 'CODE'
_TEXT	ENDS
;	COMDAT ??0?$vector@HV?$allocator@H@std@@@std@@QAE@ABV01@@Z
_TEXT	SEGMENT PARA USE32 PUBLIC 'CODE'
_TEXT	ENDS
;	COMDAT ??1?$vector@HV?$allocator@H@std@@@std@@QAE@XZ
_TEXT	SEGMENT PARA USE32 PUBLIC 'CODE'
_TEXT	ENDS
;	COMDAT ?begin@?$vector@HV?$allocator@H@std@@@std@@QAE?AViterator@12@XZ
_TEXT	SEGMENT PARA USE32 PUBLIC 'CODE'
_TEXT	ENDS
;	COMDAT ?end@?$vector@HV?$allocator@H@std@@@std@@QAE?AViterator@12@XZ
_TEXT	SEGMENT PARA USE32 PUBLIC 'CODE'
_TEXT	ENDS
;	COMDAT ?size@?$vector@HV?$allocator@H@std@@@std@@QBEIXZ
_TEXT	SEGMENT PARA USE32 PUBLIC 'CODE'
_TEXT	ENDS
;	COMDAT ??A?$vector@HV?$allocator@H@std@@@std@@QAEAAHI@Z
_TEXT	SEGMENT PARA USE32 PUBLIC 'CODE'
_TEXT	ENDS
;	COMDAT ?push_back@?$vector@HV?$allocator@H@std@@@std@@QAEXABH@Z
_TEXT	SEGMENT PARA USE32 PUBLIC 'CODE'
_TEXT	ENDS
;	COMDAT ??Citerator@?$vector@U_tagLMCItemInfo@@V?$allocator@U_tagLMCItemInfo@@@std@@@std@@QBEPAU_tagLMCItemInfo@@XZ
_TEXT	SEGMENT PARA USE32 PUBLIC 'CODE'
_TEXT	ENDS
;	COMDAT ??Eiterator@?$vector@U_tagLMCItemInfo@@V?$allocator@U_tagLMCItemInfo@@@std@@@std@@QAE?AV012@H@Z
_TEXT	SEGMENT PARA USE32 PUBLIC 'CODE'
_TEXT	ENDS
;	COMDAT ??9const_iterator@?$vector@U_tagLMCItemInfo@@V?$allocator@U_tagLMCItemInfo@@@std@@@std@@QBE_NABV012@@Z
_TEXT	SEGMENT PARA USE32 PUBLIC 'CODE'
_TEXT	ENDS
;	COMDAT ??Diterator@?$vector@HV?$allocator@H@std@@@std@@QBEAAHXZ
_TEXT	SEGMENT PARA USE32 PUBLIC 'CODE'
_TEXT	ENDS
;	COMDAT ??Fiterator@?$vector@HV?$allocator@H@std@@@std@@QAEAAV012@XZ
_TEXT	SEGMENT PARA USE32 PUBLIC 'CODE'
_TEXT	ENDS
;	COMDAT ??9const_iterator@?$vector@HV?$allocator@H@std@@@std@@QBE_NABV012@@Z
_TEXT	SEGMENT PARA USE32 PUBLIC 'CODE'
_TEXT	ENDS
;	COMDAT ?StringFindCharRev@?$ChTraitsCRT@D@ATL@@SAPBDPBDD@Z
_TEXT	SEGMENT PARA USE32 PUBLIC 'CODE'
_TEXT	ENDS
;	COMDAT ?begin@?$deque@VCPoint@@V?$allocator@VCPoint@@@std@@@std@@QAE?AViterator@12@XZ
_TEXT	SEGMENT PARA USE32 PUBLIC 'CODE'
_TEXT	ENDS
;	COMDAT ?empty@?$deque@VCPoint@@V?$allocator@VCPoint@@@std@@@std@@QBE_NXZ
_TEXT	SEGMENT PARA USE32 PUBLIC 'CODE'
_TEXT	ENDS
;	COMDAT ?_Growmap@?$deque@VCPoint@@V?$allocator@VCPoint@@@std@@@std@@IAEXI@Z
_TEXT	SEGMENT PARA USE32 PUBLIC 'CODE'
_TEXT	ENDS
;	COMDAT ?_Tidy@?$deque@VCPoint@@V?$allocator@VCPoint@@@std@@@std@@IAEXXZ
_TEXT	SEGMENT PARA USE32 PUBLIC 'CODE'
_TEXT	ENDS
;	COMDAT ??0?$_Deque_val@VCPoint@@V?$allocator@VCPoint@@@std@@@std@@IAE@V?$allocator@VCPoint@@@1@@Z
_TEXT	SEGMENT PARA USE32 PUBLIC 'CODE'
_TEXT	ENDS
;	COMDAT ??0?$allocator@VCPoint@@@std@@QAE@XZ
_TEXT	SEGMENT PARA USE32 PUBLIC 'CODE'
_TEXT	ENDS
;	COMDAT ?allocate@?$allocator@VCPoint@@@std@@QAEPAVCPoint@@I@Z
_TEXT	SEGMENT PARA USE32 PUBLIC 'CODE'
_TEXT	ENDS
;	COMDAT ?construct@?$allocator@VCPoint@@@std@@QAEXPAVCPoint@@ABV3@@Z
_TEXT	SEGMENT PARA USE32 PUBLIC 'CODE'
_TEXT	ENDS
;	COMDAT ?destroy@?$allocator@VCPoint@@@std@@QAEXPAVCPoint@@@Z
_TEXT	SEGMENT PARA USE32 PUBLIC 'CODE'
_TEXT	ENDS
;	COMDAT ?capacity@?$vector@HV?$allocator@H@std@@@std@@QBEIXZ
_TEXT	SEGMENT PARA USE32 PUBLIC 'CODE'
_TEXT	ENDS
;	COMDAT ?begin@?$vector@HV?$allocator@H@std@@@std@@QBE?AVconst_iterator@12@XZ
_TEXT	SEGMENT PARA USE32 PUBLIC 'CODE'
_TEXT	ENDS
;	COMDAT ?end@?$vector@HV?$allocator@H@std@@@std@@QBE?AVconst_iterator@12@XZ
_TEXT	SEGMENT PARA USE32 PUBLIC 'CODE'
_TEXT	ENDS
;	COMDAT ?insert@?$vector@HV?$allocator@H@std@@@std@@QAE?AViterator@12@V312@ABH@Z
_TEXT	SEGMENT PARA USE32 PUBLIC 'CODE'
_TEXT	ENDS
;	COMDAT ?_Buy@?$vector@HV?$allocator@H@std@@@std@@IAE_NI@Z
_TEXT	SEGMENT PARA USE32 PUBLIC 'CODE'
_TEXT	ENDS
;	COMDAT ?_Tidy@?$vector@HV?$allocator@H@std@@@std@@IAEXXZ
_TEXT	SEGMENT PARA USE32 PUBLIC 'CODE'
_TEXT	ENDS
;	COMDAT ?_Ufill@?$vector@HV?$allocator@H@std@@@std@@IAEPAHPAHIABH@Z
_TEXT	SEGMENT PARA USE32 PUBLIC 'CODE'
_TEXT	ENDS
;	COMDAT ??0?$_Vector_val@HV?$allocator@H@std@@@std@@IAE@V?$allocator@H@1@@Z
_TEXT	SEGMENT PARA USE32 PUBLIC 'CODE'
_TEXT	ENDS
;	COMDAT ??0?$allocator@H@std@@QAE@XZ
_TEXT	SEGMENT PARA USE32 PUBLIC 'CODE'
_TEXT	ENDS
;	COMDAT ??0?$allocator@H@std@@QAE@ABV01@@Z
_TEXT	SEGMENT PARA USE32 PUBLIC 'CODE'
_TEXT	ENDS
;	COMDAT ??0iterator@?$vector@U_tagLMCItemInfo@@V?$allocator@U_tagLMCItemInfo@@@std@@@std@@QAE@PAU_tagLMCItemInfo@@@Z
_TEXT	SEGMENT PARA USE32 PUBLIC 'CODE'
_TEXT	ENDS
;	COMDAT ??Diterator@?$vector@U_tagLMCItemInfo@@V?$allocator@U_tagLMCItemInfo@@@std@@@std@@QBEAAU_tagLMCItemInfo@@XZ
_TEXT	SEGMENT PARA USE32 PUBLIC 'CODE'
_TEXT	ENDS
;	COMDAT ??Eiterator@?$vector@U_tagLMCItemInfo@@V?$allocator@U_tagLMCItemInfo@@@std@@@std@@QAEAAV012@XZ
_TEXT	SEGMENT PARA USE32 PUBLIC 'CODE'
_TEXT	ENDS
;	COMDAT ??Hiterator@?$vector@U_tagLMCItemInfo@@V?$allocator@U_tagLMCItemInfo@@@std@@@std@@QBE?AV012@H@Z
_TEXT	SEGMENT PARA USE32 PUBLIC 'CODE'
_TEXT	ENDS
;	COMDAT ??8const_iterator@?$vector@U_tagLMCItemInfo@@V?$allocator@U_tagLMCItemInfo@@@std@@@std@@QBE_NABV012@@Z
_TEXT	SEGMENT PARA USE32 PUBLIC 'CODE'
_TEXT	ENDS
;	COMDAT ??0iterator@?$vector@HV?$allocator@H@std@@@std@@QAE@PAH@Z
_TEXT	SEGMENT PARA USE32 PUBLIC 'CODE'
_TEXT	ENDS
;	COMDAT ??Hiterator@?$vector@HV?$allocator@H@std@@@std@@QBE?AV012@H@Z
_TEXT	SEGMENT PARA USE32 PUBLIC 'CODE'
_TEXT	ENDS
;	COMDAT ??Dconst_iterator@?$vector@HV?$allocator@H@std@@@std@@QBEABHXZ
_TEXT	SEGMENT PARA USE32 PUBLIC 'CODE'
_TEXT	ENDS
;	COMDAT ??8const_iterator@?$vector@HV?$allocator@H@std@@@std@@QBE_NABV012@@Z
_TEXT	SEGMENT PARA USE32 PUBLIC 'CODE'
_TEXT	ENDS
;	COMDAT ??Diterator@?$deque@VCPoint@@V?$allocator@VCPoint@@@std@@@std@@QBEAAVCPoint@@XZ
_TEXT	SEGMENT PARA USE32 PUBLIC 'CODE'
_TEXT	ENDS
;	COMDAT ?max_size@?$deque@VCPoint@@V?$allocator@VCPoint@@@std@@@std@@QBEIXZ
_TEXT	SEGMENT PARA USE32 PUBLIC 'CODE'
_TEXT	ENDS
;	COMDAT ?pop_back@?$deque@VCPoint@@V?$allocator@VCPoint@@@std@@@std@@QAEXXZ
_TEXT	SEGMENT PARA USE32 PUBLIC 'CODE'
_TEXT	ENDS
;	COMDAT ?_Xlen@?$deque@VCPoint@@V?$allocator@VCPoint@@@std@@@std@@IBEXXZ
_TEXT	SEGMENT PARA USE32 PUBLIC 'CODE'
_TEXT	ENDS
;	COMDAT ??0?$_Deque_map@VCPoint@@V?$allocator@VCPoint@@@std@@@std@@IAE@V?$allocator@VCPoint@@@1@@Z
_TEXT	SEGMENT PARA USE32 PUBLIC 'CODE'
_TEXT	ENDS
;	COMDAT ??0?$allocator@VCPoint@@@std@@QAE@ABV01@@Z
_TEXT	SEGMENT PARA USE32 PUBLIC 'CODE'
_TEXT	ENDS
;	COMDAT ?deallocate@?$allocator@VCPoint@@@std@@QAEXPAVCPoint@@I@Z
_TEXT	SEGMENT PARA USE32 PUBLIC 'CODE'
_TEXT	ENDS
;	COMDAT ?deallocate@?$allocator@PAVCPoint@@@std@@QAEXPAPAVCPoint@@I@Z
_TEXT	SEGMENT PARA USE32 PUBLIC 'CODE'
_TEXT	ENDS
;	COMDAT ?allocate@?$allocator@PAVCPoint@@@std@@QAEPAPAVCPoint@@I@Z
_TEXT	SEGMENT PARA USE32 PUBLIC 'CODE'
_TEXT	ENDS
;	COMDAT ?destroy@?$allocator@PAVCPoint@@@std@@QAEXPAPAVCPoint@@@Z
_TEXT	SEGMENT PARA USE32 PUBLIC 'CODE'
_TEXT	ENDS
;	COMDAT ?max_size@?$vector@HV?$allocator@H@std@@@std@@QBEIXZ
_TEXT	SEGMENT PARA USE32 PUBLIC 'CODE'
_TEXT	ENDS
;	COMDAT ?_Destroy@?$vector@HV?$allocator@H@std@@@std@@IAEXPAH0@Z
_TEXT	SEGMENT PARA USE32 PUBLIC 'CODE'
_TEXT	ENDS
;	COMDAT ?_Insert_n@?$vector@HV?$allocator@H@std@@@std@@IAEXViterator@12@IABH@Z
_TEXT	SEGMENT PARA USE32 PUBLIC 'CODE'
_TEXT	ENDS
;	COMDAT ?_Xlen@?$vector@HV?$allocator@H@std@@@std@@IBEXXZ
_TEXT	SEGMENT PARA USE32 PUBLIC 'CODE'
_TEXT	ENDS
;	COMDAT ?deallocate@?$allocator@H@std@@QAEXPAHI@Z
_TEXT	SEGMENT PARA USE32 PUBLIC 'CODE'
_TEXT	ENDS
;	COMDAT ?allocate@?$allocator@H@std@@QAEPAHI@Z
_TEXT	SEGMENT PARA USE32 PUBLIC 'CODE'
_TEXT	ENDS
;	COMDAT ??Yiterator@?$vector@U_tagLMCItemInfo@@V?$allocator@U_tagLMCItemInfo@@@std@@@std@@QAEAAV012@H@Z
_TEXT	SEGMENT PARA USE32 PUBLIC 'CODE'
_TEXT	ENDS
;	COMDAT ??0const_iterator@?$vector@U_tagLMCItemInfo@@V?$allocator@U_tagLMCItemInfo@@@std@@@std@@QAE@PAU_tagLMCItemInfo@@@Z
_TEXT	SEGMENT PARA USE32 PUBLIC 'CODE'
_TEXT	ENDS
;	COMDAT ??Dconst_iterator@?$vector@U_tagLMCItemInfo@@V?$allocator@U_tagLMCItemInfo@@@std@@@std@@QBEABU_tagLMCItemInfo@@XZ
_TEXT	SEGMENT PARA USE32 PUBLIC 'CODE'
_TEXT	ENDS
;	COMDAT ??Yiterator@?$vector@HV?$allocator@H@std@@@std@@QAEAAV012@H@Z
_TEXT	SEGMENT PARA USE32 PUBLIC 'CODE'
_TEXT	ENDS
;	COMDAT ??Giterator@?$vector@HV?$allocator@H@std@@@std@@QBEHABVconst_iterator@12@@Z
_TEXT	SEGMENT PARA USE32 PUBLIC 'CODE'
_TEXT	ENDS
;	COMDAT ??0const_iterator@?$vector@HV?$allocator@H@std@@@std@@QAE@PAH@Z
_TEXT	SEGMENT PARA USE32 PUBLIC 'CODE'
_TEXT	ENDS
;	COMDAT ??0iterator@?$deque@VCPoint@@V?$allocator@VCPoint@@@std@@@std@@QAE@IPBV12@@Z
_TEXT	SEGMENT PARA USE32 PUBLIC 'CODE'
_TEXT	ENDS
;	COMDAT ??Dconst_iterator@?$deque@VCPoint@@V?$allocator@VCPoint@@@std@@@std@@QBEABVCPoint@@XZ
_TEXT	SEGMENT PARA USE32 PUBLIC 'CODE'
_TEXT	ENDS
;	COMDAT ??0length_error@std@@QAE@ABV01@@Z
_TEXT	SEGMENT PARA USE32 PUBLIC 'CODE'
_TEXT	ENDS
;	COMDAT ?max_size@?$allocator@VCPoint@@@std@@QBEIXZ
_TEXT	SEGMENT PARA USE32 PUBLIC 'CODE'
_TEXT	ENDS
;	COMDAT ?max_size@?$allocator@H@std@@QBEIXZ
_TEXT	SEGMENT PARA USE32 PUBLIC 'CODE'
_TEXT	ENDS
;	COMDAT ??Gconst_iterator@?$vector@HV?$allocator@H@std@@@std@@QBEHABV012@@Z
_TEXT	SEGMENT PARA USE32 PUBLIC 'CODE'
_TEXT	ENDS
;	COMDAT ??0const_iterator@?$deque@VCPoint@@V?$allocator@VCPoint@@@std@@@std@@QAE@IPBV12@@Z
_TEXT	SEGMENT PARA USE32 PUBLIC 'CODE'
_TEXT	ENDS
;	COMDAT ?Unlock@?$CComCritSecLock@VCComCriticalSection@ATL@@@ATL@@QAEXXZ
_TEXT	SEGMENT PARA USE32 PUBLIC 'CODE'
_TEXT	ENDS
;	COMDAT ??$find@Viterator@?$vector@HV?$allocator@H@std@@@std@@H@std@@YA?AViterator@?$vector@HV?$allocator@H@std@@@0@V120@0ABH@Z
_TEXT	SEGMENT PARA USE32 PUBLIC 'CODE'
_TEXT	ENDS
;	COMDAT ??$_Ucopy@Vconst_iterator@?$vector@HV?$allocator@H@std@@@std@@@?$vector@HV?$allocator@H@std@@@std@@IAEPAHVconst_iterator@01@0PAH@Z
_TEXT	SEGMENT PARA USE32 PUBLIC 'CODE'
_TEXT	ENDS
;	COMDAT ??$_Uninitialized_copy@PAPAVCPoint@@PAPAV1@V?$allocator@PAVCPoint@@@std@@@std@@YAPAPAVCPoint@@PAPAV1@00AAV?$allocator@PAVCPoint@@@0@@Z
_TEXT	SEGMENT PARA USE32 PUBLIC 'CODE'
_TEXT	ENDS
;	COMDAT ??$_Uninitialized_fill_n@PAPAVCPoint@@IPAV1@V?$allocator@PAVCPoint@@@std@@@std@@YAXPAPAVCPoint@@IABQAV1@AAV?$allocator@PAVCPoint@@@0@@Z
_TEXT	SEGMENT PARA USE32 PUBLIC 'CODE'
_TEXT	ENDS
;	COMDAT ??$_Destroy_range@PAVCPoint@@V?$allocator@PAVCPoint@@@std@@@std@@YAXPAPAVCPoint@@0AAV?$allocator@PAVCPoint@@@0@@Z
_TEXT	SEGMENT PARA USE32 PUBLIC 'CODE'
_TEXT	ENDS
;	COMDAT ??$_Allocate@VCPoint@@@std@@YAPAVCPoint@@IPAV1@@Z
_TEXT	SEGMENT PARA USE32 PUBLIC 'CODE'
_TEXT	ENDS
;	COMDAT ??$_Construct@VCPoint@@V1@@std@@YAXPAVCPoint@@ABV1@@Z
_TEXT	SEGMENT PARA USE32 PUBLIC 'CODE'
_TEXT	ENDS
;	COMDAT ??$_Destroy@VCPoint@@@std@@YAXPAVCPoint@@@Z
_TEXT	SEGMENT PARA USE32 PUBLIC 'CODE'
_TEXT	ENDS
;	COMDAT ??$_Uninitialized_fill_n@PAHIHV?$allocator@H@std@@@std@@YAXPAHIABHAAV?$allocator@H@0@@Z
_TEXT	SEGMENT PARA USE32 PUBLIC 'CODE'
_TEXT	ENDS
;	COMDAT ??$_Maklocstr@D@std@@YAPADPBDPADABU_Cvtvec@@@Z
_TEXT	SEGMENT PARA USE32 PUBLIC 'CODE'
_TEXT	ENDS
;	COMDAT ??$?0VCPoint@@@?$allocator@PAVCPoint@@@std@@QAE@ABV?$allocator@VCPoint@@@1@@Z
_TEXT	SEGMENT PARA USE32 PUBLIC 'CODE'
_TEXT	ENDS
;	COMDAT ??$_Allocate@PAVCPoint@@@std@@YAPAPAVCPoint@@IPAPAV1@@Z
_TEXT	SEGMENT PARA USE32 PUBLIC 'CODE'
_TEXT	ENDS
;	COMDAT ??$_Destroy@PAVCPoint@@@std@@YAXPAPAVCPoint@@@Z
_TEXT	SEGMENT PARA USE32 PUBLIC 'CODE'
_TEXT	ENDS
;	COMDAT ??$_Destroy_range@HV?$allocator@H@std@@@std@@YAXPAH0AAV?$allocator@H@0@@Z
_TEXT	SEGMENT PARA USE32 PUBLIC 'CODE'
_TEXT	ENDS
;	COMDAT ??$_Ucopy@PAH@?$vector@HV?$allocator@H@std@@@std@@IAEPAHPAH00@Z
_TEXT	SEGMENT PARA USE32 PUBLIC 'CODE'
_TEXT	ENDS
;	COMDAT ??$fill@PAHH@std@@YAXPAH0ABH@Z
_TEXT	SEGMENT PARA USE32 PUBLIC 'CODE'
_TEXT	ENDS
;	COMDAT ??$copy_backward@PAHPAH@std@@YAPAHPAH00@Z
_TEXT	SEGMENT PARA USE32 PUBLIC 'CODE'
_TEXT	ENDS
;	COMDAT ??$_Allocate@H@std@@YAPAHIPAH@Z
_TEXT	SEGMENT PARA USE32 PUBLIC 'CODE'
_TEXT	ENDS
;	COMDAT ??Eiterator@?$vector@HV?$allocator@H@std@@@std@@QAEAAV012@XZ
_TEXT	SEGMENT PARA USE32 PUBLIC 'CODE'
_TEXT	ENDS
;	COMDAT ??$_Uninitialized_copy@Vconst_iterator@?$vector@HV?$allocator@H@std@@@std@@PAHV?$allocator@H@3@@std@@YAPAHVconst_iterator@?$vector@HV?$allocator@H@std@@@0@0PAHAAV?$allocator@H@0@@Z
_TEXT	SEGMENT PARA USE32 PUBLIC 'CODE'
_TEXT	ENDS
;	COMDAT ??$_Ptr_cat@VCPoint@@@std@@YA?AU_Scalar_ptr_iterator_tag@0@PAPAVCPoint@@0@Z
_TEXT	SEGMENT PARA USE32 PUBLIC 'CODE'
_TEXT	ENDS
;	COMDAT ??$_Uninit_copy@PAVCPoint@@PAV1@@std@@YAPAPAVCPoint@@PAPAV1@00AAV?$allocator@PAVCPoint@@@0@U_Scalar_ptr_iterator_tag@0@@Z
_TEXT	SEGMENT PARA USE32 PUBLIC 'CODE'
_TEXT	ENDS
;	COMDAT ??$_Uninit_fill_n@PAVCPoint@@IPAV1@@std@@YAXPAPAVCPoint@@IABQAV1@AAV?$allocator@PAVCPoint@@@0@U_Scalar_ptr_iterator_tag@0@@Z
_TEXT	SEGMENT PARA USE32 PUBLIC 'CODE'
_TEXT	ENDS
;	COMDAT ??$_Destroy_range@PAVCPoint@@V?$allocator@PAVCPoint@@@std@@@std@@YAXPAPAVCPoint@@0AAV?$allocator@PAVCPoint@@@0@U_Scalar_ptr_iterator_tag@0@@Z
_TEXT	SEGMENT PARA USE32 PUBLIC 'CODE'
_TEXT	ENDS
;	COMDAT ??$_Uninit_fill_n@HIH@std@@YAXPAHIABHAAV?$allocator@H@0@U_Scalar_ptr_iterator_tag@0@@Z
_TEXT	SEGMENT PARA USE32 PUBLIC 'CODE'
_TEXT	ENDS
;	COMDAT ??$_Destroy_range@HV?$allocator@H@std@@@std@@YAXPAH0AAV?$allocator@H@0@U_Scalar_ptr_iterator_tag@0@@Z
_TEXT	SEGMENT PARA USE32 PUBLIC 'CODE'
_TEXT	ENDS
;	COMDAT ??$_Uninitialized_copy@PAHPAHV?$allocator@H@std@@@std@@YAPAHPAH00AAV?$allocator@H@0@@Z
_TEXT	SEGMENT PARA USE32 PUBLIC 'CODE'
_TEXT	ENDS
;	COMDAT ??$_Copy_backward_opt@PAHPAH@std@@YAPAHPAH00U_Scalar_ptr_iterator_tag@0@@Z
_TEXT	SEGMENT PARA USE32 PUBLIC 'CODE'
_TEXT	ENDS
;	COMDAT ??$_Ptr_cat@Vconst_iterator@?$vector@HV?$allocator@H@std@@@std@@PAH@std@@YA?AU_Nonscalar_ptr_iterator_tag@0@AAVconst_iterator@?$vector@HV?$allocator@H@std@@@0@AAPAH@Z
_TEXT	SEGMENT PARA USE32 PUBLIC 'CODE'
_TEXT	ENDS
;	COMDAT ??$_Uninit_copy@Vconst_iterator@?$vector@HV?$allocator@H@std@@@std@@PAHV?$allocator@H@3@@std@@YAPAHVconst_iterator@?$vector@HV?$allocator@H@std@@@0@0PAHAAV?$allocator@H@0@U_Nonscalar_ptr_iterator_tag@0@@Z
_TEXT	SEGMENT PARA USE32 PUBLIC 'CODE'
_TEXT	ENDS
;	COMDAT ??$fill_n@PAPAVCPoint@@IPAV1@@std@@YAXPAPAVCPoint@@IABQAV1@@Z
_TEXT	SEGMENT PARA USE32 PUBLIC 'CODE'
_TEXT	ENDS
;	COMDAT ??$fill_n@PAHIH@std@@YAXPAHIABH@Z
_TEXT	SEGMENT PARA USE32 PUBLIC 'CODE'
_TEXT	ENDS
;	COMDAT ??$_Uninit_copy@HH@std@@YAPAHPAH00AAV?$allocator@H@0@U_Scalar_ptr_iterator_tag@0@@Z
_TEXT	SEGMENT PARA USE32 PUBLIC 'CODE'
_TEXT	ENDS
;	COMDAT ?construct@?$allocator@H@std@@QAEXPAHABH@Z
_TEXT	SEGMENT PARA USE32 PUBLIC 'CODE'
_TEXT	ENDS
;	COMDAT ?destroy@?$allocator@H@std@@QAEXPAH@Z
_TEXT	SEGMENT PARA USE32 PUBLIC 'CODE'
_TEXT	ENDS
;	COMDAT ??Econst_iterator@?$vector@HV?$allocator@H@std@@@std@@QAEAAV012@XZ
_TEXT	SEGMENT PARA USE32 PUBLIC 'CODE'
_TEXT	ENDS
;	COMDAT ??$_Construct@HH@std@@YAXPAHABH@Z
_TEXT	SEGMENT PARA USE32 PUBLIC 'CODE'
_TEXT	ENDS
;	COMDAT ??$_Destroy@H@std@@YAXPAH@Z
_TEXT	SEGMENT PARA USE32 PUBLIC 'CODE'
_TEXT	ENDS
;	COMDAT ??_R3CLocalMusicCoverList@@8
rdata$r	SEGMENT DWORD USE32 PUBLIC 'CONST'
rdata$r	ENDS
;	COMDAT ??_R3?$numpunct@_W@std@@8
rdata$r	SEGMENT DWORD USE32 PUBLIC 'CONST'
rdata$r	ENDS
;	COMDAT ??_R3?$numpunct@D@std@@8
rdata$r	SEGMENT DWORD USE32 PUBLIC 'CONST'
rdata$r	ENDS
;	COMDAT ??_R2CLocalMusicCoverList@@8
rdata$r	SEGMENT DWORD USE32 PUBLIC 'CONST'
rdata$r	ENDS
;	COMDAT ??_R2?$numpunct@_W@std@@8
rdata$r	SEGMENT DWORD USE32 PUBLIC 'CONST'
rdata$r	ENDS
;	COMDAT ??_R2?$numpunct@D@std@@8
rdata$r	SEGMENT DWORD USE32 PUBLIC 'CONST'
rdata$r	ENDS
;	COMDAT ??_R1A@?0A@A@CObject@@8
rdata$r	SEGMENT DWORD USE32 PUBLIC 'CONST'
rdata$r	ENDS
;	COMDAT ??_R0?AVCObject@@@8
_DATA	SEGMENT DWORD USE32 PUBLIC 'DATA'
_DATA	ENDS
;	COMDAT ??_R1A@?0A@A@CCmdTarget@@8
rdata$r	SEGMENT DWORD USE32 PUBLIC 'CONST'
rdata$r	ENDS
;	COMDAT ??_R0?AVCCmdTarget@@@8
_DATA	SEGMENT DWORD USE32 PUBLIC 'DATA'
_DATA	ENDS
;	COMDAT ??_R1A@?0A@A@CWnd@@8
rdata$r	SEGMENT DWORD USE32 PUBLIC 'CONST'
rdata$r	ENDS
;	COMDAT ??_R0?AVCWnd@@@8
_DATA	SEGMENT DWORD USE32 PUBLIC 'DATA'
_DATA	ENDS
;	COMDAT ??_R1A@?0A@A@CLocalMusicCoverList@@8
rdata$r	SEGMENT DWORD USE32 PUBLIC 'CONST'
rdata$r	ENDS
;	COMDAT ??_R1A@?0A@A@?$numpunct@_W@std@@8
rdata$r	SEGMENT DWORD USE32 PUBLIC 'CONST'
rdata$r	ENDS
;	COMDAT ??_R1A@?0A@A@facet@locale@std@@8
rdata$r	SEGMENT DWORD USE32 PUBLIC 'CONST'
rdata$r	ENDS
;	COMDAT ??_R0?AVfacet@locale@std@@@8
_DATA	SEGMENT DWORD USE32 PUBLIC 'DATA'
_DATA	ENDS
;	COMDAT ??_R1A@?0A@A@?$numpunct@D@std@@8
rdata$r	SEGMENT DWORD USE32 PUBLIC 'CONST'
rdata$r	ENDS
;	COMDAT ??_R0?AVCLocalMusicCoverList@@@8
_DATA	SEGMENT DWORD USE32 PUBLIC 'DATA'
_DATA	ENDS
;	COMDAT ??_R0?AV?$numpunct@_W@std@@@8
_DATA	SEGMENT DWORD USE32 PUBLIC 'DATA'
_DATA	ENDS
;	COMDAT ??_R0?AV?$numpunct@D@std@@@8
_DATA	SEGMENT DWORD USE32 PUBLIC 'DATA'
_DATA	ENDS
;	COMDAT ??_R4CLocalMusicCoverList@@6B@
rdata$r	SEGMENT DWORD USE32 PUBLIC 'CONST'
rdata$r	ENDS
;	COMDAT ??0?$allocator@_W@std@@QAE@XZ
_TEXT	SEGMENT PARA USE32 PUBLIC 'CODE'
_TEXT	ENDS
;	COMDAT ??_G?$numpunct@_W@std@@MAEPAXI@Z
_TEXT	SEGMENT PARA USE32 PUBLIC 'CODE'
_TEXT	ENDS
;	COMDAT ??_R4?$numpunct@_W@std@@6B@
rdata$r	SEGMENT DWORD USE32 PUBLIC 'CONST'
rdata$r	ENDS
;	COMDAT ??_G?$numpunct@D@std@@MAEPAXI@Z
_TEXT	SEGMENT PARA USE32 PUBLIC 'CODE'
_TEXT	ENDS
;	COMDAT ??_R4?$numpunct@D@std@@6B@
rdata$r	SEGMENT DWORD USE32 PUBLIC 'CONST'
rdata$r	ENDS
;	COMDAT ??_C@_0EN@CBMLGOH@D?3?2Program?5Files?5?$CIx86?$CJ?2Microsoft@
CONST	SEGMENT DWORD USE32 PUBLIC 'CONST'
CONST	ENDS
;	COMDAT ?_Ptr_cat@std@@YA?AU_Scalar_ptr_iterator_tag@1@PAH0@Z
_TEXT	SEGMENT PARA USE32 PUBLIC 'CODE'
_TEXT	ENDS
;	COMDAT ??2@YAPAXIPAX@Z
_TEXT	SEGMENT PARA USE32 PUBLIC 'CODE'
_TEXT	ENDS
;	COMDAT ?_Psave@?$_Facetptr@V?$numpunct@_W@std@@@std@@2PBVfacet@locale@2@B
_DATA	SEGMENT DWORD USE32 PUBLIC 'DATA'
_DATA	ENDS
;	COMDAT ?_Psave@?$_Facetptr@V?$numpunct@D@std@@@std@@2PBVfacet@locale@2@B
_DATA	SEGMENT DWORD USE32 PUBLIC 'DATA'
_DATA	ENDS
;	COMDAT ?Unlock@CComCriticalSection@ATL@@QAEJXZ
_TEXT	SEGMENT PARA USE32 PUBLIC 'CODE'
_TEXT	ENDS
;	COMDAT ??_C@_0FG@LDNDNCJM@D?3?2Program?5Files?5?$CIx86?$CJ?2Microsoft@
CONST	SEGMENT DWORD USE32 PUBLIC 'CONST'
CONST	ENDS
;	COMDAT ??_C@_09HIEJFN@m_bLocked?$AA@
CONST	SEGMENT DWORD USE32 PUBLIC 'CONST'
CONST	ENDS
;	COMDAT ?_Psave@?$_Facetptr@V?$ctype@_W@std@@@std@@2PBVfacet@locale@2@B
_DATA	SEGMENT DWORD USE32 PUBLIC 'DATA'
_DATA	ENDS
;	COMDAT ?_Psave@?$_Facetptr@V?$ctype@D@std@@@std@@2PBVfacet@locale@2@B
_DATA	SEGMENT DWORD USE32 PUBLIC 'DATA'
_DATA	ENDS
;	COMDAT ??_7length_error@std@@6B@
CONST	SEGMENT DWORD USE32 PUBLIC 'CONST'
CONST	ENDS
;	COMDAT ??_R4length_error@std@@6B@
rdata$r	SEGMENT DWORD USE32 PUBLIC 'CONST'
rdata$r	ENDS
;	COMDAT ??_R3length_error@std@@8
rdata$r	SEGMENT DWORD USE32 PUBLIC 'CONST'
rdata$r	ENDS
;	COMDAT ??_R2length_error@std@@8
rdata$r	SEGMENT DWORD USE32 PUBLIC 'CONST'
rdata$r	ENDS
;	COMDAT ??_R1A@?0A@A@length_error@std@@8
rdata$r	SEGMENT DWORD USE32 PUBLIC 'CONST'
rdata$r	ENDS
;	COMDAT ??_R1A@?0A@A@logic_error@std@@8
rdata$r	SEGMENT DWORD USE32 PUBLIC 'CONST'
rdata$r	ENDS
;	COMDAT ??_R0?AVlogic_error@std@@@8
_DATA	SEGMENT DWORD USE32 PUBLIC 'DATA'
_DATA	ENDS
;	COMDAT ??_R1A@?0A@A@exception@@8
rdata$r	SEGMENT DWORD USE32 PUBLIC 'CONST'
rdata$r	ENDS
;	COMDAT ??_R0?AVexception@@@8
_DATA	SEGMENT DWORD USE32 PUBLIC 'DATA'
_DATA	ENDS
;	COMDAT ??_Glength_error@std@@UAEPAXI@Z
_TEXT	SEGMENT PARA USE32 PUBLIC 'CODE'
_TEXT	ENDS
;	COMDAT ?what@logic_error@std@@UBEPBDXZ
_TEXT	SEGMENT PARA USE32 PUBLIC 'CODE'
_TEXT	ENDS
;	COMDAT ??1logic_error@std@@UAE@XZ
_TEXT	SEGMENT PARA USE32 PUBLIC 'CODE'
_TEXT	ENDS
;	COMDAT ??_7logic_error@std@@6B@
CONST	SEGMENT DWORD USE32 PUBLIC 'CONST'
CONST	ENDS
;	COMDAT ??_R4logic_error@std@@6B@
rdata$r	SEGMENT DWORD USE32 PUBLIC 'CONST'
rdata$r	ENDS
;	COMDAT ??_R3logic_error@std@@8
rdata$r	SEGMENT DWORD USE32 PUBLIC 'CONST'
rdata$r	ENDS
;	COMDAT ??_R2logic_error@std@@8
rdata$r	SEGMENT DWORD USE32 PUBLIC 'CONST'
rdata$r	ENDS
;	COMDAT ??_Glogic_error@std@@UAEPAXI@Z
_TEXT	SEGMENT PARA USE32 PUBLIC 'CODE'
_TEXT	ENDS
;	COMDAT ??0logic_error@std@@QAE@ABV01@@Z
_TEXT	SEGMENT PARA USE32 PUBLIC 'CODE'
_TEXT	ENDS
;	COMDAT __CTA3?AVlength_error@std@@
xdata$x	SEGMENT DWORD USE32 PUBLIC 'CONST'
xdata$x	ENDS
;	COMDAT ??1length_error@std@@UAE@XZ
_TEXT	SEGMENT PARA USE32 PUBLIC 'CODE'
_TEXT	ENDS
;	COMDAT __CT??_R0?AVexception@@@8??0exception@@QAE@ABV0@@Z12
xdata$x	SEGMENT DWORD USE32 PUBLIC 'CONST'
xdata$x	ENDS
;	COMDAT __CT??_R0?AVlogic_error@std@@@8??0logic_error@std@@QAE@ABV01@@Z40
xdata$x	SEGMENT DWORD USE32 PUBLIC 'CONST'
xdata$x	ENDS
;	COMDAT __CT??_R0?AVlength_error@std@@@8??0length_error@std@@QAE@ABV01@@Z40
xdata$x	SEGMENT DWORD USE32 PUBLIC 'CONST'
xdata$x	ENDS
;	COMDAT ??_R0?AVlength_error@std@@@8
_DATA	SEGMENT DWORD USE32 PUBLIC 'DATA'
_DATA	ENDS
;	COMDAT __TI3?AVlength_error@std@@
xdata$x	SEGMENT DWORD USE32 PUBLIC 'CONST'
xdata$x	ENDS
;	COMDAT ??0length_error@std@@QAE@ABV?$basic_string@DU?$char_traits@D@std@@V?$allocator@D@2@@1@@Z
_TEXT	SEGMENT PARA USE32 PUBLIC 'CODE'
_TEXT	ENDS
;	COMDAT ??0logic_error@std@@QAE@ABV?$basic_string@DU?$char_traits@D@std@@V?$allocator@D@2@@1@@Z
_TEXT	SEGMENT PARA USE32 PUBLIC 'CODE'
_TEXT	ENDS
;	COMDAT ??$_Maklocchr@_W@std@@YA_WDPA_WABU_Cvtvec@@@Z
_TEXT	SEGMENT PARA USE32 PUBLIC 'CODE'
_TEXT	ENDS
;	COMDAT ??$_DebugHeapDelete@X@std@@YAXPAX@Z
_TEXT	SEGMENT PARA USE32 PUBLIC 'CODE'
_TEXT	ENDS
;	COMDAT ??$_Maklocstr@_W@std@@YAPA_WPBDPA_WABU_Cvtvec@@@Z
_TEXT	SEGMENT PARA USE32 PUBLIC 'CODE'
_TEXT	ENDS
;	COMDAT ??$_Maklocchr@D@std@@YADDPADABU_Cvtvec@@@Z
_TEXT	SEGMENT PARA USE32 PUBLIC 'CODE'
_TEXT	ENDS
;	COMDAT ??_C@_04LOAJBDKD@true?$AA@
CONST	SEGMENT DWORD USE32 PUBLIC 'CONST'
CONST	ENDS
;	COMDAT ??_C@_05LAPONLG@false?$AA@
CONST	SEGMENT DWORD USE32 PUBLIC 'CONST'
CONST	ENDS
;	COMDAT _wmemcpy
_TEXT	SEGMENT PARA USE32 PUBLIC 'CODE'
_TEXT	ENDS
;	COMDAT ?max_size@?$allocator@_W@std@@QBEIXZ
_TEXT	SEGMENT PARA USE32 PUBLIC 'CODE'
_TEXT	ENDS
;	COMDAT ?allocate@?$allocator@_W@std@@QAEPA_WI@Z
_TEXT	SEGMENT PARA USE32 PUBLIC 'CODE'
_TEXT	ENDS
;	COMDAT ??$_Allocate@_W@std@@YAPA_WIPA_W@Z
_TEXT	SEGMENT PARA USE32 PUBLIC 'CODE'
_TEXT	ENDS
;	COMDAT ?IsShared@CStringData@ATL@@QBE_NXZ
_TEXT	SEGMENT PARA USE32 PUBLIC 'CODE'
_TEXT	ENDS
;	COMDAT ?data@CStringData@ATL@@QAEPAXXZ
_TEXT	SEGMENT PARA USE32 PUBLIC 'CODE'
_TEXT	ENDS
;	COMDAT ?Release@CStringData@ATL@@QAEXXZ
_TEXT	SEGMENT PARA USE32 PUBLIC 'CODE'
_TEXT	ENDS
;	COMDAT ??_C@_0L@OIIMFBNE@nRefs?5?$CB?$DN?50?$AA@
CONST	SEGMENT DWORD USE32 PUBLIC 'CONST'
CONST	ENDS
;	COMDAT ??_C@_0CB@GFHAPKDK@pOldData?9?$DOnAllocLength?5?$DM?5nLength@
CONST	SEGMENT DWORD USE32 PUBLIC 'CONST'
CONST	ENDS
;	COMDAT ??_C@_0BA@GNIEOBOF@nNewLength?5?$DO?$DN?50?$AA@
CONST	SEGMENT DWORD USE32 PUBLIC 'CONST'
CONST	ENDS
;	COMDAT ??_C@_0N@ILOMLJGA@nLength?5?$DO?$DN?50?$AA@
CONST	SEGMENT DWORD USE32 PUBLIC 'CONST'
CONST	ENDS
;	COMDAT ??_C@_0CD@EEFFJEGJ@nLength?5?$DM?$DN?5GetData?$CI?$CJ?9?$DOnAllocLeng@
CONST	SEGMENT DWORD USE32 PUBLIC 'CONST'
CONST	ENDS
;	COMDAT ?AtlThrow@ATL@@YGXJ@Z
_TEXT	SEGMENT PARA USE32 PUBLIC 'CODE'
_TEXT	ENDS
;	COMDAT ??RCTraceFileAndLineInfo@ATL@@QBAXKIPBDZZ
_TEXT	SEGMENT PARA USE32 PUBLIC 'CODE'
_TEXT	ENDS
;	COMDAT ?TraceV@CTrace@ATL@@QBAXPBDHKI0PAD@Z
_TEXT	SEGMENT PARA USE32 PUBLIC 'CODE'
_TEXT	ENDS
;	COMDAT ??0CTraceFileAndLineInfo@ATL@@QAE@PBDH@Z
_TEXT	SEGMENT PARA USE32 PUBLIC 'CODE'
_TEXT	ENDS
;	COMDAT ??_C@_0FI@NHHJANPC@D?3?2Program?5Files?5?$CIx86?$CJ?2Microsoft@
CONST	SEGMENT DWORD USE32 PUBLIC 'CONST'
CONST	ENDS
;	COMDAT ??_C@_0BF@IAAKIJDJ@AtlThrow?3?5hr?5?$DN?50x?$CFx?6?$AA@
CONST	SEGMENT DWORD USE32 PUBLIC 'CONST'
CONST	ENDS
;	COMDAT ??BCTraceCategory@ATL@@QBEKXZ
_TEXT	SEGMENT PARA USE32 PUBLIC 'CODE'
_TEXT	ENDS
;	COMDAT ??_C@_0FJ@DMHPDOJC@D?3?2Program?5Files?5?$CIx86?$CJ?2Microsoft@
CONST	SEGMENT DWORD USE32 PUBLIC 'CONST'
CONST	ENDS
;	COMDAT ??_C@_0BA@GOIMFHNK@pStringMgr?5?$CB?$DN?50?$AA@
CONST	SEGMENT DWORD USE32 PUBLIC 'CONST'
CONST	ENDS
;	COMDAT ??_C@_01GFHCPBMG@C?$AA@
CONST	SEGMENT DWORD USE32 PUBLIC 'CONST'
CONST	ENDS
;	COMDAT ?max_size@?$allocator@D@std@@QBEIXZ
_TEXT	SEGMENT PARA USE32 PUBLIC 'CODE'
_TEXT	ENDS
;	COMDAT ?allocate@?$allocator@D@std@@QAEPADI@Z
_TEXT	SEGMENT PARA USE32 PUBLIC 'CODE'
_TEXT	ENDS
;	COMDAT ??$_Allocate@D@std@@YAPADIPAD@Z
_TEXT	SEGMENT PARA USE32 PUBLIC 'CODE'
_TEXT	ENDS
;	COMDAT ?deallocate@?$allocator@D@std@@QAEXPADI@Z
_TEXT	SEGMENT PARA USE32 PUBLIC 'CODE'
_TEXT	ENDS
;	COMDAT ?_Peek@?$istreambuf_iterator@_WU?$char_traits@_W@std@@@std@@AAE_WXZ
_TEXT	SEGMENT PARA USE32 PUBLIC 'CODE'
_TEXT	ENDS
;	COMDAT ?_Peek@?$istreambuf_iterator@DU?$char_traits@D@std@@@std@@AAEDXZ
_TEXT	SEGMENT PARA USE32 PUBLIC 'CODE'
_TEXT	ENDS
;	COMDAT ??$use_facet@V?$ctype@_W@std@@@std@@YAABV?$ctype@_W@0@ABVlocale@0@@Z
_TEXT	SEGMENT PARA USE32 PUBLIC 'CODE'
_TEXT	ENDS
;	COMDAT ??_S?$ctype@_W@std@@6B@
CONST	SEGMENT DWORD USE32 PUBLIC 'CONST'
CONST	ENDS
;	COMDAT ??_R4?$ctype@_W@std@@6B@
rdata$r	SEGMENT DWORD USE32 PUBLIC 'CONST'
rdata$r	ENDS
;	COMDAT ??_R0?AV?$ctype@_W@std@@@8
_DATA	SEGMENT DWORD USE32 PUBLIC 'DATA'
_DATA	ENDS
;	COMDAT ??_R3?$ctype@_W@std@@8
rdata$r	SEGMENT DWORD USE32 PUBLIC 'CONST'
rdata$r	ENDS
;	COMDAT ??_R2?$ctype@_W@std@@8
rdata$r	SEGMENT DWORD USE32 PUBLIC 'CONST'
rdata$r	ENDS
;	COMDAT ??_R1A@?0A@A@?$ctype@_W@std@@8
rdata$r	SEGMENT DWORD USE32 PUBLIC 'CONST'
rdata$r	ENDS
;	COMDAT ??_R1A@?0A@A@ctype_base@std@@8
rdata$r	SEGMENT DWORD USE32 PUBLIC 'CONST'
rdata$r	ENDS
;	COMDAT ??_R0?AUctype_base@std@@@8
_DATA	SEGMENT DWORD USE32 PUBLIC 'DATA'
_DATA	ENDS
;	COMDAT ??_G?$ctype@_W@std@@MAEPAXI@Z
_TEXT	SEGMENT PARA USE32 PUBLIC 'CODE'
_TEXT	ENDS
;	COMDAT ??_C@_08EPJLHIJG@bad?5cast?$AA@
CONST	SEGMENT DWORD USE32 PUBLIC 'CONST'
CONST	ENDS
;	COMDAT __TI2?AVbad_cast@@
xdata$x	SEGMENT DWORD USE32 PUBLIC 'CONST'
xdata$x	ENDS
;	COMDAT __CTA2?AVbad_cast@@
xdata$x	SEGMENT DWORD USE32 PUBLIC 'CONST'
xdata$x	ENDS
;	COMDAT __CT??_R0?AVbad_cast@@@8??0bad_cast@@QAE@ABV0@@Z12
xdata$x	SEGMENT DWORD USE32 PUBLIC 'CONST'
xdata$x	ENDS
;	COMDAT ??_R0?AVbad_cast@@@8
_DATA	SEGMENT DWORD USE32 PUBLIC 'DATA'
_DATA	ENDS
;	COMDAT ??$_DebugHeapDelete@Vfacet@locale@std@@@std@@YAXPAVfacet@locale@0@@Z
_TEXT	SEGMENT PARA USE32 PUBLIC 'CODE'
_TEXT	ENDS
;	COMDAT ??$use_facet@V?$ctype@D@std@@@std@@YAABV?$ctype@D@0@ABVlocale@0@@Z
_TEXT	SEGMENT PARA USE32 PUBLIC 'CODE'
_TEXT	ENDS
;	COMDAT ??_S?$ctype@D@std@@6B@
CONST	SEGMENT DWORD USE32 PUBLIC 'CONST'
CONST	ENDS
;	COMDAT ??_R4?$ctype@D@std@@6B@
rdata$r	SEGMENT DWORD USE32 PUBLIC 'CONST'
rdata$r	ENDS
;	COMDAT ??_R0?AV?$ctype@D@std@@@8
_DATA	SEGMENT DWORD USE32 PUBLIC 'DATA'
_DATA	ENDS
;	COMDAT ??_R3?$ctype@D@std@@8
rdata$r	SEGMENT DWORD USE32 PUBLIC 'CONST'
rdata$r	ENDS
;	COMDAT ??_R2?$ctype@D@std@@8
rdata$r	SEGMENT DWORD USE32 PUBLIC 'CONST'
rdata$r	ENDS
;	COMDAT ??_R1A@?0A@A@?$ctype@D@std@@8
rdata$r	SEGMENT DWORD USE32 PUBLIC 'CONST'
rdata$r	ENDS
;	COMDAT ??_G?$ctype@D@std@@MAEPAXI@Z
_TEXT	SEGMENT PARA USE32 PUBLIC 'CODE'
_TEXT	ENDS
;	COMDAT ??_S?$numpunct@_W@std@@6B@
CONST	SEGMENT DWORD USE32 PUBLIC 'CONST'
CONST	ENDS
;	COMDAT ??_S?$numpunct@D@std@@6B@
CONST	SEGMENT DWORD USE32 PUBLIC 'CONST'
CONST	ENDS
;	COMDAT _wmemmove
_TEXT	SEGMENT PARA USE32 PUBLIC 'CODE'
_TEXT	ENDS
;	COMDAT ?deallocate@?$allocator@_W@std@@QAEXPA_WI@Z
_TEXT	SEGMENT PARA USE32 PUBLIC 'CODE'
_TEXT	ENDS
;	COMDAT ??0?$allocator@_W@std@@QAE@ABV01@@Z
_TEXT	SEGMENT PARA USE32 PUBLIC 'CODE'
_TEXT	ENDS
;	COMDAT ??_C@_0FH@KDPNIMBO@D?3?2Program?5Files?5?$CIx86?$CJ?2Microsoft@
CONST	SEGMENT DWORD USE32 PUBLIC 'CONST'
CONST	ENDS
;	COMDAT ?g_idrag@?P@??OnMouseMove@CLocalMusicCoverList@@QAEXIVCPoint@@@Z@4JA
_DATA	SEGMENT DWORD USE32 PUBLIC 'DATA'
_DATA	ENDS
;	COMDAT ?DrawPath@Graphics@Gdiplus@@QAE?AW4Status@2@PBVPen@2@PBVGraphicsPath@2@@Z
_TEXT	SEGMENT PARA USE32 PUBLIC 'CODE'
_TEXT	ENDS
;	COMDAT ?SetStatus@Graphics@Gdiplus@@IBE?AW4Status@2@W432@@Z
_TEXT	SEGMENT PARA USE32 PUBLIC 'CODE'
_TEXT	ENDS
;	COMDAT ??0Point@Gdiplus@@QAE@HH@Z
_TEXT	SEGMENT PARA USE32 PUBLIC 'CODE'
_TEXT	ENDS
;	COMDAT ??1Pen@Gdiplus@@QAE@XZ
_TEXT	SEGMENT PARA USE32 PUBLIC 'CODE'
_TEXT	ENDS
;	COMDAT ??0Pen@Gdiplus@@QAE@ABVColor@1@M@Z
_TEXT	SEGMENT PARA USE32 PUBLIC 'CODE'
_TEXT	ENDS
;	COMDAT ?GetValue@Color@Gdiplus@@QBEKXZ
_TEXT	SEGMENT PARA USE32 PUBLIC 'CODE'
_TEXT	ENDS
;	COMDAT ?SetFromCOLORREF@Color@Gdiplus@@QAEXK@Z
_TEXT	SEGMENT PARA USE32 PUBLIC 'CODE'
_TEXT	ENDS
;	COMDAT ?MakeARGB@Color@Gdiplus@@SAKEEEE@Z
_TEXT	SEGMENT PARA USE32 PUBLIC 'CODE'
_TEXT	ENDS
;	COMDAT ??0Color@Gdiplus@@QAE@XZ
_TEXT	SEGMENT PARA USE32 PUBLIC 'CODE'
_TEXT	ENDS
;	COMDAT ?SetSmoothingMode@Graphics@Gdiplus@@QAE?AW4Status@2@W4SmoothingMode@2@@Z
_TEXT	SEGMENT PARA USE32 PUBLIC 'CODE'
_TEXT	ENDS
;	COMDAT ?DrawImage@Graphics@Gdiplus@@QAE?AW4Status@2@PAVImage@2@ABVRect@2@@Z
_TEXT	SEGMENT PARA USE32 PUBLIC 'CODE'
_TEXT	ENDS
;	COMDAT ?DrawImage@Graphics@Gdiplus@@QAE?AW4Status@2@PAVImage@2@HHHH@Z
_TEXT	SEGMENT PARA USE32 PUBLIC 'CODE'
_TEXT	ENDS
;	COMDAT ??0Rect@Gdiplus@@QAE@HHHH@Z
_TEXT	SEGMENT PARA USE32 PUBLIC 'CODE'
_TEXT	ENDS
;	COMDAT ??1Graphics@Gdiplus@@QAE@XZ
_TEXT	SEGMENT PARA USE32 PUBLIC 'CODE'
_TEXT	ENDS
;	COMDAT ??0Graphics@Gdiplus@@QAE@PAUHDC__@@@Z
_TEXT	SEGMENT PARA USE32 PUBLIC 'CODE'
_TEXT	ENDS
;	COMDAT ?SetNativeGraphics@Graphics@Gdiplus@@IAEXPAVGpGraphics@2@@Z
_TEXT	SEGMENT PARA USE32 PUBLIC 'CODE'
_TEXT	ENDS
;	COMDAT ?AddLine@GraphicsPath@Gdiplus@@QAE?AW4Status@2@HHHH@Z
_TEXT	SEGMENT PARA USE32 PUBLIC 'CODE'
_TEXT	ENDS
;	COMDAT ?SetStatus@GraphicsPath@Gdiplus@@IBE?AW4Status@2@W432@@Z
_TEXT	SEGMENT PARA USE32 PUBLIC 'CODE'
_TEXT	ENDS
;	COMDAT ?AddArc@GraphicsPath@Gdiplus@@QAE?AW4Status@2@HHHHMM@Z
_TEXT	SEGMENT PARA USE32 PUBLIC 'CODE'
_TEXT	ENDS
;	COMDAT ?Clone@GraphicsPath@Gdiplus@@QBEPAV12@XZ
_TEXT	SEGMENT PARA USE32 PUBLIC 'CODE'
_TEXT	ENDS
;	COMDAT ??2GdiplusBase@Gdiplus@@SAPAXI@Z
_TEXT	SEGMENT PARA USE32 PUBLIC 'CODE'
_TEXT	ENDS
;	COMDAT ??3GdiplusBase@Gdiplus@@SAXPAX@Z
_TEXT	SEGMENT PARA USE32 PUBLIC 'CODE'
_TEXT	ENDS
;	COMDAT ??0GraphicsPath@Gdiplus@@IAE@PAVGpPath@1@@Z
_TEXT	SEGMENT PARA USE32 PUBLIC 'CODE'
_TEXT	ENDS
;	COMDAT ?SetNativePath@GraphicsPath@Gdiplus@@IAEXPAVGpPath@2@@Z
_TEXT	SEGMENT PARA USE32 PUBLIC 'CODE'
_TEXT	ENDS
;	COMDAT ??1GraphicsPath@Gdiplus@@QAE@XZ
_TEXT	SEGMENT PARA USE32 PUBLIC 'CODE'
_TEXT	ENDS
;	COMDAT ??0GraphicsPath@Gdiplus@@QAE@W4FillMode@1@@Z
_TEXT	SEGMENT PARA USE32 PUBLIC 'CODE'
_TEXT	ENDS
;	COMDAT ?IsLocked@CStringData@ATL@@QBE_NXZ
_TEXT	SEGMENT PARA USE32 PUBLIC 'CODE'
_TEXT	ENDS
;	COMDAT ?AddRef@CStringData@ATL@@QAEXXZ
_TEXT	SEGMENT PARA USE32 PUBLIC 'CODE'
_TEXT	ENDS
;	COMDAT ??_C@_09EEBKLCFA@nRefs?5?$DO?50?$AA@
CONST	SEGMENT DWORD USE32 PUBLIC 'CONST'
CONST	ENDS
;	COMDAT ??0?$allocator@D@std@@QAE@ABV01@@Z
_TEXT	SEGMENT PARA USE32 PUBLIC 'CODE'
_TEXT	ENDS
;	COMDAT ?Clone@Image@Gdiplus@@UAEPAV12@XZ
_TEXT	SEGMENT PARA USE32 PUBLIC 'CODE'
_TEXT	ENDS
;	COMDAT ?SetStatus@Image@Gdiplus@@IBE?AW4Status@2@W432@@Z
_TEXT	SEGMENT PARA USE32 PUBLIC 'CODE'
_TEXT	ENDS
;	COMDAT ??0Image@Gdiplus@@IAE@PAVGpImage@1@W4Status@1@@Z
_TEXT	SEGMENT PARA USE32 PUBLIC 'CODE'
_TEXT	ENDS
;	COMDAT ??_7Image@Gdiplus@@6B@
CONST	SEGMENT DWORD USE32 PUBLIC 'CONST'
CONST	ENDS
;	COMDAT ??_R4Image@Gdiplus@@6B@
rdata$r	SEGMENT DWORD USE32 PUBLIC 'CONST'
rdata$r	ENDS
;	COMDAT ??_R0?AVImage@Gdiplus@@@8
_DATA	SEGMENT DWORD USE32 PUBLIC 'DATA'
_DATA	ENDS
;	COMDAT ??_R3Image@Gdiplus@@8
rdata$r	SEGMENT DWORD USE32 PUBLIC 'CONST'
rdata$r	ENDS
;	COMDAT ??_R2Image@Gdiplus@@8
rdata$r	SEGMENT DWORD USE32 PUBLIC 'CONST'
rdata$r	ENDS
;	COMDAT ??_R1A@?0A@A@Image@Gdiplus@@8
rdata$r	SEGMENT DWORD USE32 PUBLIC 'CONST'
rdata$r	ENDS
;	COMDAT ??_R13?0A@A@GdiplusBase@Gdiplus@@8
rdata$r	SEGMENT DWORD USE32 PUBLIC 'CONST'
rdata$r	ENDS
;	COMDAT ??_R0?AVGdiplusBase@Gdiplus@@@8
_DATA	SEGMENT DWORD USE32 PUBLIC 'DATA'
_DATA	ENDS
;	COMDAT ??_GImage@Gdiplus@@UAEPAXI@Z
_TEXT	SEGMENT PARA USE32 PUBLIC 'CODE'
_TEXT	ENDS
;	COMDAT ?SetNativeImage@Image@Gdiplus@@IAEXPAVGpImage@2@@Z
_TEXT	SEGMENT PARA USE32 PUBLIC 'CODE'
_TEXT	ENDS
;	COMDAT ??1Image@Gdiplus@@UAE@XZ
_TEXT	SEGMENT PARA USE32 PUBLIC 'CODE'
_TEXT	ENDS
;	COMDAT ?AtlA2WHelper@@YGPA_WPA_WPBDHI@Z
_TEXT	SEGMENT PARA USE32 PUBLIC 'CODE'
_TEXT	ENDS
;	COMDAT ??_C@_08DMHHBMMN@lpa?5?$CB?$DN?50?$AA@
CONST	SEGMENT DWORD USE32 PUBLIC 'CONST'
CONST	ENDS
;	COMDAT ??_C@_08DIHJLFDJ@lpw?5?$CB?$DN?50?$AA@
CONST	SEGMENT DWORD USE32 PUBLIC 'CONST'
CONST	ENDS
;	COMDAT ??_C@_01GBGANLPD@0?$AA@
CONST	SEGMENT DWORD USE32 PUBLIC 'CONST'
CONST	ENDS
;	COMDAT ??_C@_0FG@PFHCBDBK@D?3?2Program?5Files?5?$CIx86?$CJ?2Microsoft@
CONST	SEGMENT DWORD USE32 PUBLIC 'CONST'
CONST	ENDS
;	COMDAT ??0Image@Gdiplus@@QAE@PB_WH@Z
_TEXT	SEGMENT PARA USE32 PUBLIC 'CODE'
_TEXT	ENDS
;	COMDAT ?_AtlGetConversionACP@ATL@@YGIXZ
_TEXT	SEGMENT PARA USE32 PUBLIC 'CODE'
_TEXT	ENDS
;	COMDAT ?g_pfnGetThreadACP@ATL@@3P6GIXZA
_DATA	SEGMENT DWORD USE32 PUBLIC 'DATA'
_DATA	ENDS
;	COMDAT ?_AtlGetThreadACPThunk@ATL@@YGIXZ
_TEXT	SEGMENT PARA USE32 PUBLIC 'CODE'
_TEXT	ENDS
;	COMDAT ?_AtlGetThreadACPReal@ATL@@YGIXZ
_TEXT	SEGMENT PARA USE32 PUBLIC 'CODE'
_TEXT	ENDS
;	COMDAT ?_AtlGetThreadACPFake@ATL@@YGIXZ
_TEXT	SEGMENT PARA USE32 PUBLIC 'CODE'
_TEXT	ENDS
;	COMDAT ?InterlockedExchangePointer@@YGPAXPAPAXPAX@Z
_TEXT	SEGMENT PARA USE32 PUBLIC 'CODE'
_TEXT	ENDS
;	COMDAT ?GetDefaultManager@?$StrTraitMFC_DLL@DV?$ChTraitsCRT@D@ATL@@@@SAPAUIAtlStringMgr@ATL@@XZ
_TEXT	SEGMENT PARA USE32 PUBLIC 'CODE'
_TEXT	ENDS
;	COMDAT ?FindStringResourceInstance@?$StrTraitMFC_DLL@DV?$ChTraitsCRT@D@ATL@@@@SAPAUHINSTANCE__@@I@Z
_TEXT	SEGMENT PARA USE32 PUBLIC 'CODE'
_TEXT	ENDS
;	COMDAT ?AtlGetStringResourceImage@ATL@@YAPBUATLSTRINGRESOURCEIMAGE@1@PAUHINSTANCE__@@I@Z
_TEXT	SEGMENT PARA USE32 PUBLIC 'CODE'
_TEXT	ENDS
;	COMDAT ?_AtlGetStringResourceImage@ATL@@YAPBUATLSTRINGRESOURCEIMAGE@1@PAUHINSTANCE__@@PAUHRSRC__@@I@Z
_TEXT	SEGMENT PARA USE32 PUBLIC 'CODE'
_TEXT	ENDS
;	COMDAT ?GetBaseTypeLength@?$ChTraitsCRT@D@ATL@@SAHPB_WH@Z
_TEXT	SEGMENT PARA USE32 PUBLIC 'CODE'
_TEXT	ENDS
;	COMDAT ?ConvertToBaseType@?$ChTraitsCRT@D@ATL@@SAXPADHPB_WH@Z
_TEXT	SEGMENT PARA USE32 PUBLIC 'CODE'
_TEXT	ENDS
;	COMDAT ??_C@_0CJ@FJEKGMMD@Warning?3?5implicit?5LoadString?$CI?$CFu?$CJ@
CONST	SEGMENT DWORD USE32 PUBLIC 'CONST'
CONST	ENDS
;	COMDAT ?_messageEntries@CLocalMusicCoverList@@0QBUAFX_MSGMAP_ENTRY@@B
CONST	SEGMENT DWORD USE32 PUBLIC 'CONST'
CONST	ENDS
;	COMDAT ?messageMap@CLocalMusicCoverList@@1UAFX_MSGMAP@@B
CONST	SEGMENT DWORD USE32 PUBLIC 'CONST'
CONST	ENDS
;	COMDAT ??0?$allocator@D@std@@QAE@XZ
_TEXT	SEGMENT PARA USE32 PUBLIC 'CODE'
_TEXT	ENDS
;	COMDAT ??_7CLocalMusicCoverList@@6B@
CONST	SEGMENT DWORD USE32 PUBLIC 'CONST'
CONST	ENDS
;	COMDAT ?classCLocalMusicCoverList@CLocalMusicCoverList@@2UCRuntimeClass@@B
CONST	SEGMENT DWORD USE32 PUBLIC 'CONST'
CONST	ENDS
sxdata	SEGMENT DWORD USE32 'SXDATA'
sxdata	ENDS
FLAT	GROUP _DATA, CONST, _BSS
	ASSUME	CS: FLAT, DS: FLAT, SS: FLAT
endif

INCLUDELIB MSVCRTD
INCLUDELIB OLDNAMES

PUBLIC	?classCLocalMusicCoverList@CLocalMusicCoverList@@2UCRuntimeClass@@B ; CLocalMusicCoverList::classCLocalMusicCoverList
PUBLIC	?_messageEntries@CLocalMusicCoverList@@0QBUAFX_MSGMAP_ENTRY@@B ; CLocalMusicCoverList::_messageEntries
PUBLIC	?messageMap@CLocalMusicCoverList@@1UAFX_MSGMAP@@B ; CLocalMusicCoverList::messageMap
PUBLIC	?OnCreate@CLocalMusicCoverList@@IAEHPAUtagCREATESTRUCTA@@@Z ; CLocalMusicCoverList::OnCreate
PUBLIC	?OnEraseBkgnd@CLocalMusicCoverList@@IAEHPAVCDC@@@Z ; CLocalMusicCoverList::OnEraseBkgnd
PUBLIC	?OnPaint@CLocalMusicCoverList@@IAEXXZ		; CLocalMusicCoverList::OnPaint
PUBLIC	?OnSize@CLocalMusicCoverList@@IAEXIHH@Z		; CLocalMusicCoverList::OnSize
PUBLIC	?g_pfnGetThreadACP@ATL@@3P6GIXZA		; ATL::g_pfnGetThreadACP
PUBLIC	?_AtlGetThreadACPThunk@ATL@@YGIXZ		; ATL::_AtlGetThreadACPThunk
PUBLIC	?OnTimer@CLocalMusicCoverList@@QAEXI@Z		; CLocalMusicCoverList::OnTimer
PUBLIC	?OnMouseWheel@CLocalMusicCoverList@@QAEHIFVCPoint@@@Z ; CLocalMusicCoverList::OnMouseWheel
PUBLIC	?OnMouseMove@CLocalMusicCoverList@@QAEXIVCPoint@@@Z ; CLocalMusicCoverList::OnMouseMove
PUBLIC	?OnLButtonDown@CLocalMusicCoverList@@QAEXIVCPoint@@@Z ; CLocalMusicCoverList::OnLButtonDown
PUBLIC	?OnTrackerChange@CLocalMusicCoverList@@QAEJIJ@Z	; CLocalMusicCoverList::OnTrackerChange
PUBLIC	?OnLButtonUp@CLocalMusicCoverList@@QAEXIVCPoint@@@Z ; CLocalMusicCoverList::OnLButtonUp
PUBLIC	?OnRButtonUp@CLocalMusicCoverList@@QAEXIVCPoint@@@Z ; CLocalMusicCoverList::OnRButtonUp
PUBLIC	?OnCoolSBCustomdraw@CLocalMusicCoverList@@QAEXPAUtagNMHDR@@PAJ@Z ; CLocalMusicCoverList::OnCoolSBCustomdraw
PUBLIC	?OnDestroy@CLocalMusicCoverList@@QAEXXZ		; CLocalMusicCoverList::OnDestroy
PUBLIC	?OnVScroll@CLocalMusicCoverList@@QAEXIIPAVCScrollBar@@@Z ; CLocalMusicCoverList::OnVScroll
PUBLIC	?OnShowWindow@CLocalMusicCoverList@@QAEXHI@Z	; CLocalMusicCoverList::OnShowWindow
PUBLIC	?OnKeyDown@CLocalMusicCoverList@@QAEXIII@Z	; CLocalMusicCoverList::OnKeyDown
PUBLIC	?OnSetFocus@CLocalMusicCoverList@@QAEXPAVCWnd@@@Z ; CLocalMusicCoverList::OnSetFocus
PUBLIC	?OnKillFocus@CLocalMusicCoverList@@QAEXPAVCWnd@@@Z ; CLocalMusicCoverList::OnKillFocus
PUBLIC	?OnRButtonDown@CLocalMusicCoverList@@QAEXIVCPoint@@@Z ; CLocalMusicCoverList::OnRButtonDown
EXTRN	?GetThisClass@CWnd@@SGPAUCRuntimeClass@@XZ:NEAR	; CWnd::GetThisClass
EXTRN	?GetThisMessageMap@CWnd@@KGPBUAFX_MSGMAP@@XZ:NEAR ; CWnd::GetThisMessageMap
CONST	SEGMENT
$SG188468 DB	'int', 00H
CONST	ENDS
_DATA	SEGMENT
_TYPE_CONFIG_INT DD FLAT:$SG188468
_DATA	ENDS
CONST	SEGMENT
$SG188470 DB	'str', 00H
CONST	ENDS
_DATA	SEGMENT
_TYPE_CONFIG_STR DD FLAT:$SG188470
_DATA	ENDS
CONST	SEGMENT
$SG188472 DB	'double', 00H
CONST	ENDS
_DATA	SEGMENT
_TYPE_CONFIG_DOUBLE DD FLAT:$SG188472
_DATA	ENDS
CONST	SEGMENT
	ORG $+1
$SG188474 DB	'bool', 00H
CONST	ENDS
_DATA	SEGMENT
_TYPE_CONFIG_BOOL DD FLAT:$SG188474
_DATA	ENDS
CONST	SEGMENT
	ORG $+3
$SG188476 DB	'sepint', 00H
CONST	ENDS
_DATA	SEGMENT
_TYPE_CONFIG_INT_HASSEP DD FLAT:$SG188476
_DATA	ENDS
CONST	SEGMENT
	ORG $+1
$SG188478 DB	'sepstr', 00H
CONST	ENDS
_DATA	SEGMENT
_TYPE_CONFIG_STR_HASSEP DD FLAT:$SG188478
_DATA	ENDS
CONST	SEGMENT
	ORG $+1
$SG188480 DB	'sepdouble', 00H
CONST	ENDS
_DATA	SEGMENT
_TYPE_CONFIG_DOUBLE_HASSEP DD FLAT:$SG188480
_DATA	ENDS
CONST	SEGMENT
	ORG $+2
$SG188482 DB	'sepbool', 00H
CONST	ENDS
_DATA	SEGMENT
_TYPE_CONFIG_BOOL_HASSEP DD FLAT:$SG188482
_DATA	ENDS
CONST	SEGMENT
$SG188484 DB	'App', 00H
CONST	ENDS
_DATA	SEGMENT
_CONF_APP_MODULE_NAME DD FLAT:$SG188484
_DATA	ENDS
CONST	SEGMENT
$SG188486 DB	'SwfPath', 00H
CONST	ENDS
_DATA	SEGMENT
_CONF_APP_SWF_PATH DD FLAT:$SG188486
_DATA	ENDS
CONST	SEGMENT
$SG188488 DB	'MainWndHold', 00H
CONST	ENDS
_DATA	SEGMENT
_CONF_APP_MAINWND_HOLD DD FLAT:$SG188488
_DATA	ENDS
CONST	SEGMENT
$SG188490 DB	'RunCount', 00H
CONST	ENDS
_DATA	SEGMENT
_CONF_APP_RUN_COUNT DD FLAT:$SG188490
_DATA	ENDS
CONST	SEGMENT
	ORG $+3
$SG188492 DB	'PlayedGame', 00H
CONST	ENDS
_DATA	SEGMENT
_CONF_APP_PLAYED_GAME DD FLAT:$SG188492
_DATA	ENDS
CONST	SEGMENT
	ORG $+1
$SG188494 DB	'playedPcGame', 00H
CONST	ENDS
_DATA	SEGMENT
_CONF_APP_PLAYED_PC_GAME DD FLAT:$SG188494
_DATA	ENDS
CONST	SEGMENT
	ORG $+3
$SG188496 DB	'PlayedIconSize', 00H
CONST	ENDS
_DATA	SEGMENT
_CONF_APP_PLAYED_ICON_SIZE DD FLAT:$SG188496
_DATA	ENDS
CONST	SEGMENT
	ORG $+1
$SG188498 DB	'PictureSavePath', 00H
CONST	ENDS
_DATA	SEGMENT
_CONF_APP_PIC_SAVE_PATH DD FLAT:$SG188498
_DATA	ENDS
CONST	SEGMENT
$SG189426 DB	'CLocalMusicCoverList', 00H
CONST	ENDS
;	COMDAT ?classCLocalMusicCoverList@CLocalMusicCoverList@@2UCRuntimeClass@@B
CONST	SEGMENT
?classCLocalMusicCoverList@CLocalMusicCoverList@@2UCRuntimeClass@@B DD FLAT:$SG189426 ; CLocalMusicCoverList::classCLocalMusicCoverList
	DD	0180H
	DD	0ffffH
	DD	00H
	DD	FLAT:?GetThisClass@CWnd@@SGPAUCRuntimeClass@@XZ
	DD	00H
	DD	00H
CONST	ENDS
CONST	SEGMENT
	ORG $+3
$SG189447 DB	'ScrollHorz', 00H
	ORG $+1
$SG189448 DB	'ScrollVert', 00H
	ORG $+1
$SG189449 DB	'PlayedGameDetailTextColor', 00H
	ORG $+2
$SG189450 DB	'PlayedGameBkColor', 00H
	ORG $+2
$SG189451 DB	'PlayedGameNameColor', 00H
CONST	ENDS
;	COMDAT ?_messageEntries@CLocalMusicCoverList@@0QBUAFX_MSGMAP_ENTRY@@B
CONST	SEGMENT
?_messageEntries@CLocalMusicCoverList@@0QBUAFX_MSGMAP_ENTRY@@B DD 01H ; CLocalMusicCoverList::_messageEntries
	DD	00H
	DD	00H
	DD	00H
	DD	0dH
	DD	FLAT:?OnCreate@CLocalMusicCoverList@@IAEHPAUtagCREATESTRUCTA@@@Z
	DD	014H
	DD	00H
	DD	00H
	DD	00H
	DD	01H
	DD	FLAT:?OnEraseBkgnd@CLocalMusicCoverList@@IAEHPAVCDC@@@Z
	DD	0fH
	DD	00H
	DD	00H
	DD	00H
	DD	010H
	DD	FLAT:?OnPaint@CLocalMusicCoverList@@IAEXXZ
	DD	05H
	DD	00H
	DD	00H
	DD	00H
	DD	016H
	DD	FLAT:?OnSize@CLocalMusicCoverList@@IAEXIHH@Z
	DD	0113H
	DD	00H
	DD	00H
	DD	00H
	DD	011H
	DD	FLAT:?OnTimer@CLocalMusicCoverList@@QAEXI@Z
	DD	020aH
	DD	00H
	DD	00H
	DD	00H
	DD	034H
	DD	FLAT:?OnMouseWheel@CLocalMusicCoverList@@QAEHIFVCPoint@@@Z
	DD	0200H
	DD	00H
	DD	00H
	DD	00H
	DD	032H
	DD	FLAT:?OnMouseMove@CLocalMusicCoverList@@QAEXIVCPoint@@@Z
	DD	0201H
	DD	00H
	DD	00H
	DD	00H
	DD	032H
	DD	FLAT:?OnLButtonDown@CLocalMusicCoverList@@QAEXIVCPoint@@@Z
	DD	04c8H
	DD	00H
	DD	00H
	DD	00H
	DD	0eH
	DD	FLAT:?OnTrackerChange@CLocalMusicCoverList@@QAEJIJ@Z
	DD	0bc4eH
	DD	0f001H
	DD	00H
	DD	00H
	DD	039H
	DD	FLAT:?OnCoolSBCustomdraw@CLocalMusicCoverList@@QAEXPAUtagNMHDR@@PAJ@Z
	DD	0202H
	DD	00H
	DD	00H
	DD	00H
	DD	032H
	DD	FLAT:?OnLButtonUp@CLocalMusicCoverList@@QAEXIVCPoint@@@Z
	DD	0205H
	DD	00H
	DD	00H
	DD	00H
	DD	032H
	DD	FLAT:?OnRButtonUp@CLocalMusicCoverList@@QAEXIVCPoint@@@Z
	DD	02H
	DD	00H
	DD	00H
	DD	00H
	DD	010H
	DD	FLAT:?OnDestroy@CLocalMusicCoverList@@QAEXXZ
	DD	0115H
	DD	00H
	DD	00H
	DD	00H
	DD	027H
	DD	FLAT:?OnVScroll@CLocalMusicCoverList@@QAEXIIPAVCScrollBar@@@Z
	DD	018H
	DD	00H
	DD	00H
	DD	00H
	DD	012H
	DD	FLAT:?OnShowWindow@CLocalMusicCoverList@@QAEXHI@Z
	DD	0100H
	DD	00H
	DD	00H
	DD	00H
	DD	015H
	DD	FLAT:?OnKeyDown@CLocalMusicCoverList@@QAEXIII@Z
	DD	07H
	DD	00H
	DD	00H
	DD	00H
	DD	020H
	DD	FLAT:?OnSetFocus@CLocalMusicCoverList@@QAEXPAVCWnd@@@Z
	DD	08H
	DD	00H
	DD	00H
	DD	00H
	DD	020H
	DD	FLAT:?OnKillFocus@CLocalMusicCoverList@@QAEXPAVCWnd@@@Z
	DD	0204H
	DD	00H
	DD	00H
	DD	00H
	DD	032H
	DD	FLAT:?OnRButtonDown@CLocalMusicCoverList@@QAEXIVCPoint@@@Z
	DD	00H
	DD	00H
	DD	00H
	DD	00H
	DD	00H
	DD	00H
CONST	ENDS
;	COMDAT ?messageMap@CLocalMusicCoverList@@1UAFX_MSGMAP@@B
CONST	SEGMENT
?messageMap@CLocalMusicCoverList@@1UAFX_MSGMAP@@B DD FLAT:?GetThisMessageMap@CWnd@@KGPBUAFX_MSGMAP@@XZ ; CLocalMusicCoverList::messageMap
	DD	FLAT:?_messageEntries@CLocalMusicCoverList@@0QBUAFX_MSGMAP_ENTRY@@B
CONST	ENDS
CONST	SEGMENT
$SG189578 DB	0cbH, 0ceH, 0ccH, 0e5H, 00H
	ORG $+3
$SG189579 DB	0cbH, 0ceH, 0ccH, 0e5H, 00H
	ORG $+3
$SG189583 DB	'\Resources\StandardUI\IconBorder.png', 00H
$SG189635 DB	00H
	ORG $+2
$SG190187 DB	'.\src\module\PlayedGamePanel\LocalMusicCoverList.cpp', 00H
	ORG $+3
$SG190230 DB	'PlayedGameFrameBorder', 00H
CONST	ENDS
;	COMDAT ?g_pfnGetThreadACP@ATL@@3P6GIXZA
_DATA	SEGMENT
?g_pfnGetThreadACP@ATL@@3P6GIXZA DD FLAT:?_AtlGetThreadACPThunk@ATL@@YGIXZ ; ATL::g_pfnGetThreadACP
_DATA	ENDS
PUBLIC	?GetThisClass@CLocalMusicCoverList@@SGPAUCRuntimeClass@@XZ ; CLocalMusicCoverList::GetThisClass
EXTRN	__RTC_InitBase:NEAR
EXTRN	__RTC_Shutdown:NEAR
;	COMDAT rtc$IMZ
; File d:\boxgit\playbox\playbox\dev\prj\playbox\src\module\playedgamepanel\localmusiccoverlist.cpp
rtc$IMZ	SEGMENT
__RTC_InitBase.rtc$IMZ DD FLAT:__RTC_InitBase
rtc$IMZ	ENDS
;	COMDAT rtc$TMZ
rtc$TMZ	SEGMENT
__RTC_Shutdown.rtc$TMZ DD FLAT:__RTC_Shutdown
; Function compile flags: /Odt /RTCsu
rtc$TMZ	ENDS
_TEXT	SEGMENT
?GetThisClass@CLocalMusicCoverList@@SGPAUCRuntimeClass@@XZ PROC NEAR ; CLocalMusicCoverList::GetThisClass

; 12   : IMPLEMENT_DYNAMIC(CLocalMusicCoverList, CWnd)

  00000	55		 push	 ebp
  00001	8b ec		 mov	 ebp, esp
  00003	b8 00 00 00 00	 mov	 eax, OFFSET FLAT:?classCLocalMusicCoverList@CLocalMusicCoverList@@2UCRuntimeClass@@B ; CLocalMusicCoverList::classCLocalMusicCoverList
  00008	5d		 pop	 ebp
  00009	c3		 ret	 0
?GetThisClass@CLocalMusicCoverList@@SGPAUCRuntimeClass@@XZ ENDP ; CLocalMusicCoverList::GetThisClass
_TEXT	ENDS
PUBLIC	?GetRuntimeClass@CLocalMusicCoverList@@UBEPAUCRuntimeClass@@XZ ; CLocalMusicCoverList::GetRuntimeClass
; Function compile flags: /Odt /RTCsu
_TEXT	SEGMENT
_this$ = -4						; size = 4
?GetRuntimeClass@CLocalMusicCoverList@@UBEPAUCRuntimeClass@@XZ PROC NEAR ; CLocalMusicCoverList::GetRuntimeClass
; _this$ = ecx

; 12   : IMPLEMENT_DYNAMIC(CLocalMusicCoverList, CWnd)

  00010	55		 push	 ebp
  00011	8b ec		 mov	 ebp, esp
  00013	51		 push	 ecx
  00014	c7 45 fc cc cc
	cc cc		 mov	 DWORD PTR [ebp-4], -858993460 ; ccccccccH
  0001b	89 4d fc	 mov	 DWORD PTR _this$[ebp], ecx
  0001e	b8 00 00 00 00	 mov	 eax, OFFSET FLAT:?classCLocalMusicCoverList@CLocalMusicCoverList@@2UCRuntimeClass@@B ; CLocalMusicCoverList::classCLocalMusicCoverList
  00023	8b e5		 mov	 esp, ebp
  00025	5d		 pop	 ebp
  00026	c3		 ret	 0
?GetRuntimeClass@CLocalMusicCoverList@@UBEPAUCRuntimeClass@@XZ ENDP ; CLocalMusicCoverList::GetRuntimeClass
_TEXT	ENDS
PUBLIC	??0GdiRes@@QAE@XZ				; GdiRes::GdiRes
PUBLIC	??_R1A@?0A@A@CWnd@@8				; CWnd::`RTTI Base Class Descriptor at (0,-1,0,0)'
PUBLIC	??_R0?AVCWnd@@@8				; CWnd `RTTI Type Descriptor'
PUBLIC	??_R1A@?0A@A@CCmdTarget@@8			; CCmdTarget::`RTTI Base Class Descriptor at (0,-1,0,0)'
PUBLIC	??_R0?AVCCmdTarget@@@8				; CCmdTarget `RTTI Type Descriptor'
PUBLIC	??_R1A@?0A@A@CObject@@8				; CObject::`RTTI Base Class Descriptor at (0,-1,0,0)'
PUBLIC	??_R0?AVCObject@@@8				; CObject `RTTI Type Descriptor'
PUBLIC	??_R4CLocalMusicCoverList@@6B@			; CLocalMusicCoverList::`RTTI Complete Object Locator'
PUBLIC	??_R0?AVCLocalMusicCoverList@@@8		; CLocalMusicCoverList `RTTI Type Descriptor'
PUBLIC	??_R3CLocalMusicCoverList@@8			; CLocalMusicCoverList::`RTTI Class Hierarchy Descriptor'
PUBLIC	??_R2CLocalMusicCoverList@@8			; CLocalMusicCoverList::`RTTI Base Class Array'
PUBLIC	??_R1A@?0A@A@CLocalMusicCoverList@@8		; CLocalMusicCoverList::`RTTI Base Class Descriptor at (0,-1,0,0)'
PUBLIC	??0CLocalMusicCoverList@@QAE@XZ			; CLocalMusicCoverList::CLocalMusicCoverList
PUBLIC	?GetMessageMap@CLocalMusicCoverList@@MBEPBUAFX_MSGMAP@@XZ ; CLocalMusicCoverList::GetMessageMap
PUBLIC	?Create@CLocalMusicCoverList@@UAEHPBD0KABUtagRECT@@PAVCWnd@@IPAUCCreateContext@@@Z ; CLocalMusicCoverList::Create
PUBLIC	?SetItemWH@CLocalMusicCoverList@@QAEXHH@Z	; CLocalMusicCoverList::SetItemWH
PUBLIC	?SetScrollBitmap@CLocalMusicCoverList@@QAEXPAVCDibBitmap@@0@Z ; CLocalMusicCoverList::SetScrollBitmap
PUBLIC	?OnMoveDraging@CLocalMusicCoverList@@UAEXXZ	; CLocalMusicCoverList::OnMoveDraging
PUBLIC	?OnEndDrag@CLocalMusicCoverList@@UAEXXZ		; CLocalMusicCoverList::OnEndDrag
PUBLIC	??0?$deque@VCPoint@@V?$allocator@VCPoint@@@std@@@std@@QAE@XZ ; std::deque<CPoint,std::allocator<CPoint> >::deque<CPoint,std::allocator<CPoint> >
PUBLIC	??1?$deque@VCPoint@@V?$allocator@VCPoint@@@std@@@std@@QAE@XZ ; std::deque<CPoint,std::allocator<CPoint> >::~deque<CPoint,std::allocator<CPoint> >
PUBLIC	?PreTranslateMessage@CLocalMusicCoverList@@UAEHPAUtagMSG@@@Z ; CLocalMusicCoverList::PreTranslateMessage
PUBLIC	??_7CLocalMusicCoverList@@6B@			; CLocalMusicCoverList::`vftable'
PUBLIC	??_GCLocalMusicCoverList@@UAEPAXI@Z		; CLocalMusicCoverList::`scalar deleting destructor'
EXTRN	?GetInterfaceMap@CWnd@@MBEPBUAFX_INTERFACEMAP@@XZ:NEAR ; CWnd::GetInterfaceMap
EXTRN	?EnsureStdObj@CWnd@@UAEJXZ:NEAR			; CWnd::EnsureStdObj
EXTRN	?get_accParent@CWnd@@UAEJPAPAUIDispatch@@@Z:NEAR ; CWnd::get_accParent
EXTRN	?OnCmdMsg@CCmdTarget@@UAEHIHPAXPAUAFX_CMDHANDLERINFO@@@Z:NEAR ; CCmdTarget::OnCmdMsg
EXTRN	?get_accChildCount@CWnd@@UAEJPAJ@Z:NEAR		; CWnd::get_accChildCount
EXTRN	?IsInvokeAllowed@CCmdTarget@@UAEHJ@Z:NEAR	; CCmdTarget::IsInvokeAllowed
EXTRN	?get_accChild@CWnd@@UAEJUtagVARIANT@@PAPAUIDispatch@@@Z:NEAR ; CWnd::get_accChild
EXTRN	?get_accName@CWnd@@UAEJUtagVARIANT@@PAPA_W@Z:NEAR ; CWnd::get_accName
EXTRN	?get_accValue@CWnd@@UAEJUtagVARIANT@@PAPA_W@Z:NEAR ; CWnd::get_accValue
EXTRN	?GetDispatchIID@CCmdTarget@@UAEHPAU_GUID@@@Z:NEAR ; CCmdTarget::GetDispatchIID
EXTRN	?GetTypeInfoCount@CCmdTarget@@UAEIXZ:NEAR	; CCmdTarget::GetTypeInfoCount
EXTRN	?GetTypeLibCache@CCmdTarget@@UAEPAVCTypeLibCache@@XZ:NEAR ; CCmdTarget::GetTypeLibCache
EXTRN	?get_accDescription@CWnd@@UAEJUtagVARIANT@@PAPA_W@Z:NEAR ; CWnd::get_accDescription
EXTRN	?AfxGetUIManager@@YAPAVIUIManager@@XZ:NEAR	; AfxGetUIManager
EXTRN	?GetTypeLib@CCmdTarget@@UAEJKPAPAUITypeLib@@@Z:NEAR ; CCmdTarget::GetTypeLib
EXTRN	?get_accRole@CWnd@@UAEJUtagVARIANT@@PAU2@@Z:NEAR ; CWnd::get_accRole
EXTRN	?AfxGetUserConfig@@YAPAVAfxUserConfig@@XZ:NEAR	; AfxGetUserConfig
EXTRN	?get_accState@CWnd@@UAEJUtagVARIANT@@PAU2@@Z:NEAR ; CWnd::get_accState
EXTRN	?get_accHelp@CWnd@@UAEJUtagVARIANT@@PAPA_W@Z:NEAR ; CWnd::get_accHelp
EXTRN	?get_accHelpTopic@CWnd@@UAEJPAPA_WUtagVARIANT@@PAJ@Z:NEAR ; CWnd::get_accHelpTopic
EXTRN	?get_accKeyboardShortcut@CWnd@@UAEJUtagVARIANT@@PAPA_W@Z:NEAR ; CWnd::get_accKeyboardShortcut
EXTRN	?get_accFocus@CWnd@@UAEJPAUtagVARIANT@@@Z:NEAR	; CWnd::get_accFocus
EXTRN	?get_accSelection@CWnd@@UAEJPAUtagVARIANT@@@Z:NEAR ; CWnd::get_accSelection
EXTRN	?get_accDefaultAction@CWnd@@UAEJUtagVARIANT@@PAPA_W@Z:NEAR ; CWnd::get_accDefaultAction
EXTRN	?GetCommandMap@CCmdTarget@@MBEPBUAFX_OLECMDMAP@@XZ:NEAR ; CCmdTarget::GetCommandMap
EXTRN	?accSelect@CWnd@@UAEJJUtagVARIANT@@@Z:NEAR	; CWnd::accSelect
EXTRN	?accLocation@CWnd@@UAEJPAJ000UtagVARIANT@@@Z:NEAR ; CWnd::accLocation
EXTRN	?GetDispatchMap@CCmdTarget@@MBEPBUAFX_DISPMAP@@XZ:NEAR ; CCmdTarget::GetDispatchMap
EXTRN	?accNavigate@CWnd@@UAEJJUtagVARIANT@@PAU2@@Z:NEAR ; CWnd::accNavigate
EXTRN	?accHitTest@CWnd@@UAEJJJPAUtagVARIANT@@@Z:NEAR	; CWnd::accHitTest
EXTRN	?GetConnectionMap@CCmdTarget@@MBEPBUAFX_CONNECTIONMAP@@XZ:NEAR ; CCmdTarget::GetConnectionMap
EXTRN	?accDoDefaultAction@CWnd@@UAEJUtagVARIANT@@@Z:NEAR ; CWnd::accDoDefaultAction
EXTRN	?put_accName@CWnd@@UAEJUtagVARIANT@@PA_W@Z:NEAR	; CWnd::put_accName
EXTRN	?put_accValue@CWnd@@UAEJUtagVARIANT@@PA_W@Z:NEAR ; CWnd::put_accValue
EXTRN	?SetProxy@CWnd@@UAEJPAUIAccessibleProxy@@@Z:NEAR ; CWnd::SetProxy
EXTRN	?CreateAccessibleProxy@CWnd@@UAEJIJPAJ@Z:NEAR	; CWnd::CreateAccessibleProxy
EXTRN	?GetEventSinkMap@CCmdTarget@@MBEPBUAFX_EVENTSINKMAP@@XZ:NEAR ; CCmdTarget::GetEventSinkMap
EXTRN	?OnCreateAggregates@CCmdTarget@@UAEHXZ:NEAR	; CCmdTarget::OnCreateAggregates
EXTRN	?OnCommand@CWnd@@MAEHIJ@Z:NEAR			; CWnd::OnCommand
EXTRN	?GetInterfaceHook@CCmdTarget@@UAEPAUIUnknown@@PBX@Z:NEAR ; CCmdTarget::GetInterfaceHook
EXTRN	?OnNotify@CWnd@@MAEHIJPAJ@Z:NEAR		; CWnd::OnNotify
EXTRN	?GetExtraConnectionPoints@CCmdTarget@@MAEHPAVCPtrArray@@@Z:NEAR ; CCmdTarget::GetExtraConnectionPoints
EXTRN	?GetConnectionHook@CCmdTarget@@MAEPAUIConnectionPoint@@ABU_GUID@@@Z:NEAR ; CCmdTarget::GetConnectionHook
EXTRN	??0CLMCDataMgr@@QAE@XZ:NEAR			; CLMCDataMgr::CLMCDataMgr
EXTRN	??1CLMCDataMgr@@QAE@XZ:NEAR			; CLMCDataMgr::~CLMCDataMgr
EXTRN	??0CPoint@@QAE@HH@Z:NEAR			; CPoint::CPoint
EXTRN	??0CFont@@QAE@XZ:NEAR				; CFont::CFont
EXTRN	??1CDC@@UAE@XZ:NEAR				; CDC::~CDC
EXTRN	??1CFont@@UAE@XZ:NEAR				; CFont::~CFont
EXTRN	??0CWnd@@QAE@XZ:NEAR				; CWnd::CWnd
EXTRN	??0CBitmap@@QAE@XZ:NEAR				; CBitmap::CBitmap
EXTRN	??0CRect@@QAE@HHHH@Z:NEAR			; CRect::CRect
EXTRN	?PreSubclassWindow@CWnd@@UAEXXZ:NEAR		; CWnd::PreSubclassWindow
EXTRN	?CreateEx@CWnd@@UAEHKPBD0KHHHHPAUHWND__@@PAUHMENU__@@PAX@Z:NEAR ; CWnd::CreateEx
EXTRN	??1CBitmap@@UAE@XZ:NEAR				; CBitmap::~CBitmap
EXTRN	__imp_??0?$basic_string@DU?$char_traits@D@std@@V?$allocator@D@2@@std@@QAE@PBD@Z:NEAR
EXTRN	?CreateEx@CWnd@@UAEHKPBD0KABUtagRECT@@PAV1@IPAX@Z:NEAR ; CWnd::CreateEx
EXTRN	??2CObject@@SGPAXI@Z:NEAR			; CObject::operator new
EXTRN	??3CObject@@SGXPAX@Z:NEAR			; CObject::operator delete
EXTRN	?GetConfigIntValue@AfxUserConfig@@QAEXABV?$basic_string@DU?$char_traits@D@std@@V?$allocator@D@2@@std@@0AAH@Z:NEAR ; AfxUserConfig::GetConfigIntValue
EXTRN	__imp_??1?$basic_string@DU?$char_traits@D@std@@V?$allocator@D@2@@std@@QAE@XZ:NEAR
EXTRN	?Serialize@CObject@@UAEXAAVCArchive@@@Z:NEAR	; CObject::Serialize
EXTRN	?DestroyWindow@CWnd@@UAEHXZ:NEAR		; CWnd::DestroyWindow
EXTRN	?PreCreateWindow@CWnd@@UAEHAAUtagCREATESTRUCTA@@@Z:NEAR ; CWnd::PreCreateWindow
EXTRN	?CalcWindowRect@CWnd@@UAEXPAUtagRECT@@I@Z:NEAR	; CWnd::CalcWindowRect
EXTRN	?GetSuperWndProcAddr@CWnd@@MAEPAP6GJPAUHWND__@@IIJ@ZXZ:NEAR ; CWnd::GetSuperWndProcAddr
EXTRN	?DoDataExchange@CWnd@@MAEXPAVCDataExchange@@@Z:NEAR ; CWnd::DoDataExchange
EXTRN	?BeginModalState@CWnd@@UAEXXZ:NEAR		; CWnd::BeginModalState
EXTRN	?EndModalState@CWnd@@UAEXXZ:NEAR		; CWnd::EndModalState
EXTRN	?OnAmbientProperty@CWnd@@UAEHPAVCOleControlSite@@JPAUtagVARIANT@@@Z:NEAR ; CWnd::OnAmbientProperty
EXTRN	?WindowProc@CWnd@@MAEJIIJ@Z:NEAR		; CWnd::WindowProc
EXTRN	?OnWndMsg@CWnd@@MAEHIIJPAJ@Z:NEAR		; CWnd::OnWndMsg
EXTRN	?DefWindowProcA@CWnd@@MAEJIIJ@Z:NEAR		; CWnd::DefWindowProcA
EXTRN	?PostNcDestroy@CWnd@@MAEXXZ:NEAR		; CWnd::PostNcDestroy
EXTRN	?OnChildNotify@CWnd@@MAEHIIJPAJ@Z:NEAR		; CWnd::OnChildNotify
EXTRN	??1CWnd@@UAE@XZ:NEAR				; CWnd::~CWnd
EXTRN	?CheckAutoCenter@CWnd@@UAEHXZ:NEAR		; CWnd::CheckAutoCenter
EXTRN	?AssertValid@CWnd@@UBEXXZ:NEAR			; CWnd::AssertValid
EXTRN	?Dump@CWnd@@UBEXAAVCDumpContext@@@Z:NEAR	; CWnd::Dump
EXTRN	?IsFrameWnd@CWnd@@UBEHXZ:NEAR			; CWnd::IsFrameWnd
EXTRN	?OnFinalRelease@CWnd@@UAEXXZ:NEAR		; CWnd::OnFinalRelease
EXTRN	??0CDC@@QAE@XZ:NEAR				; CDC::CDC
EXTRN	?CreateControlContainer@CWnd@@MAEHPAPAVCOleControlContainer@@@Z:NEAR ; CWnd::CreateControlContainer
EXTRN	?CreateControlSite@CWnd@@MAEHPAVCOleControlContainer@@PAPAVCOleControlSite@@IABU_GUID@@@Z:NEAR ; CWnd::CreateControlSite
EXTRN	?SetOccDialogInfo@CWnd@@MAEHPAU_AFX_OCC_DIALOG_INFO@@@Z:NEAR ; CWnd::SetOccDialogInfo
EXTRN	??0CCriticalSection@@QAE@XZ:NEAR		; CCriticalSection::CCriticalSection
EXTRN	??1CCriticalSection@@UAE@XZ:NEAR		; CCriticalSection::~CCriticalSection
EXTRN	?OnToolHitTest@CWnd@@UBEHVCPoint@@PAUtagTOOLINFOA@@@Z:NEAR ; CWnd::OnToolHitTest
EXTRN	?GetScrollBarCtrl@CWnd@@UBEPAVCScrollBar@@H@Z:NEAR ; CWnd::GetScrollBarCtrl
EXTRN	??_ECLocalMusicCoverList@@UAEPAXI@Z:NEAR	; CLocalMusicCoverList::`vector deleting destructor'
EXTRN	?WinHelpA@CWnd@@UAEXKI@Z:NEAR			; CWnd::WinHelpA
EXTRN	__RTC_CheckEsp:NEAR
EXTRN	?HtmlHelpA@CWnd@@UAEXKI@Z:NEAR			; CWnd::HtmlHelpA
EXTRN	??_7type_info@@6B@:QWORD			; type_info::`vftable'
EXTRN	__except_list:DWORD
EXTRN	?WinHelpInternal@CWnd@@UAEXKI@Z:NEAR		; CWnd::WinHelpInternal
EXTRN	@_RTC_CheckStackVars@8:NEAR
EXTRN	___CxxFrameHandler:NEAR
EXTRN	?ContinueModal@CWnd@@UAEHXZ:NEAR		; CWnd::ContinueModal
EXTRN	?EndModalLoop@CWnd@@UAEXH@Z:NEAR		; CWnd::EndModalLoop
xdata$x	SEGMENT
$T192488 DD	0ffffffffH
	DD	FLAT:$L192463
	DD	00H
	DD	FLAT:$L192464
	DD	01H
	DD	FLAT:$L192465
	DD	02H
	DD	FLAT:$L192466
	DD	03H
	DD	FLAT:$L192467
	DD	04H
	DD	FLAT:$L192468
	DD	05H
	DD	FLAT:$L192469
	DD	06H
	DD	FLAT:$L192470
	DD	07H
	DD	FLAT:$L192471
	DD	08H
	DD	FLAT:$L192472
	DD	09H
	DD	FLAT:$L192473
	DD	09H
	DD	FLAT:$L192474
	DD	09H
	DD	FLAT:$L192475
	DD	0cH
	DD	FLAT:$L192476
$T192480 DD	019930520H
	DD	0eH
	DD	FLAT:$T192488
	DD	2 DUP(00H)
	DD	2 DUP(00H)
xdata$x	ENDS
;	COMDAT ??_7CLocalMusicCoverList@@6B@
CONST	SEGMENT
??_7CLocalMusicCoverList@@6B@ DD FLAT:??_R4CLocalMusicCoverList@@6B@ ; CLocalMusicCoverList::`vftable'
	DD	FLAT:?GetRuntimeClass@CLocalMusicCoverList@@UBEPAUCRuntimeClass@@XZ
	DD	FLAT:??_ECLocalMusicCoverList@@UAEPAXI@Z
	DD	FLAT:?Serialize@CObject@@UAEXAAVCArchive@@@Z
	DD	FLAT:?AssertValid@CWnd@@UBEXXZ
	DD	FLAT:?Dump@CWnd@@UBEXAAVCDumpContext@@@Z
	DD	FLAT:?OnCmdMsg@CCmdTarget@@UAEHIHPAXPAUAFX_CMDHANDLERINFO@@@Z
	DD	FLAT:?OnFinalRelease@CWnd@@UAEXXZ
	DD	FLAT:?IsInvokeAllowed@CCmdTarget@@UAEHJ@Z
	DD	FLAT:?GetDispatchIID@CCmdTarget@@UAEHPAU_GUID@@@Z
	DD	FLAT:?GetTypeInfoCount@CCmdTarget@@UAEIXZ
	DD	FLAT:?GetTypeLibCache@CCmdTarget@@UAEPAVCTypeLibCache@@XZ
	DD	FLAT:?GetTypeLib@CCmdTarget@@UAEJKPAPAUITypeLib@@@Z
	DD	FLAT:?GetMessageMap@CLocalMusicCoverList@@MBEPBUAFX_MSGMAP@@XZ
	DD	FLAT:?GetCommandMap@CCmdTarget@@MBEPBUAFX_OLECMDMAP@@XZ
	DD	FLAT:?GetDispatchMap@CCmdTarget@@MBEPBUAFX_DISPMAP@@XZ
	DD	FLAT:?GetConnectionMap@CCmdTarget@@MBEPBUAFX_CONNECTIONMAP@@XZ
	DD	FLAT:?GetInterfaceMap@CWnd@@MBEPBUAFX_INTERFACEMAP@@XZ
	DD	FLAT:?GetEventSinkMap@CCmdTarget@@MBEPBUAFX_EVENTSINKMAP@@XZ
	DD	FLAT:?OnCreateAggregates@CCmdTarget@@UAEHXZ
	DD	FLAT:?GetInterfaceHook@CCmdTarget@@UAEPAUIUnknown@@PBX@Z
	DD	FLAT:?GetExtraConnectionPoints@CCmdTarget@@MAEHPAVCPtrArray@@@Z
	DD	FLAT:?GetConnectionHook@CCmdTarget@@MAEPAUIConnectionPoint@@ABU_GUID@@@Z
	DD	FLAT:?PreSubclassWindow@CWnd@@UAEXXZ
	DD	FLAT:?Create@CLocalMusicCoverList@@UAEHPBD0KABUtagRECT@@PAVCWnd@@IPAUCCreateContext@@@Z
	DD	FLAT:?CreateEx@CWnd@@UAEHKPBD0KABUtagRECT@@PAV1@IPAX@Z
	DD	FLAT:?CreateEx@CWnd@@UAEHKPBD0KHHHHPAUHWND__@@PAUHMENU__@@PAX@Z
	DD	FLAT:?DestroyWindow@CWnd@@UAEHXZ
	DD	FLAT:?PreCreateWindow@CWnd@@UAEHAAUtagCREATESTRUCTA@@@Z
	DD	FLAT:?CalcWindowRect@CWnd@@UAEXPAUtagRECT@@I@Z
	DD	FLAT:?OnToolHitTest@CWnd@@UBEHVCPoint@@PAUtagTOOLINFOA@@@Z
	DD	FLAT:?GetScrollBarCtrl@CWnd@@UBEPAVCScrollBar@@H@Z
	DD	FLAT:?WinHelpA@CWnd@@UAEXKI@Z
	DD	FLAT:?HtmlHelpA@CWnd@@UAEXKI@Z
	DD	FLAT:?WinHelpInternal@CWnd@@UAEXKI@Z
	DD	FLAT:?ContinueModal@CWnd@@UAEHXZ
	DD	FLAT:?EndModalLoop@CWnd@@UAEXH@Z
	DD	FLAT:?EnsureStdObj@CWnd@@UAEJXZ
	DD	FLAT:?get_accParent@CWnd@@UAEJPAPAUIDispatch@@@Z
	DD	FLAT:?get_accChildCount@CWnd@@UAEJPAJ@Z
	DD	FLAT:?get_accChild@CWnd@@UAEJUtagVARIANT@@PAPAUIDispatch@@@Z
	DD	FLAT:?get_accName@CWnd@@UAEJUtagVARIANT@@PAPA_W@Z
	DD	FLAT:?get_accValue@CWnd@@UAEJUtagVARIANT@@PAPA_W@Z
	DD	FLAT:?get_accDescription@CWnd@@UAEJUtagVARIANT@@PAPA_W@Z
	DD	FLAT:?get_accRole@CWnd@@UAEJUtagVARIANT@@PAU2@@Z
	DD	FLAT:?get_accState@CWnd@@UAEJUtagVARIANT@@PAU2@@Z
	DD	FLAT:?get_accHelp@CWnd@@UAEJUtagVARIANT@@PAPA_W@Z
	DD	FLAT:?get_accHelpTopic@CWnd@@UAEJPAPA_WUtagVARIANT@@PAJ@Z
	DD	FLAT:?get_accKeyboardShortcut@CWnd@@UAEJUtagVARIANT@@PAPA_W@Z
	DD	FLAT:?get_accFocus@CWnd@@UAEJPAUtagVARIANT@@@Z
	DD	FLAT:?get_accSelection@CWnd@@UAEJPAUtagVARIANT@@@Z
	DD	FLAT:?get_accDefaultAction@CWnd@@UAEJUtagVARIANT@@PAPA_W@Z
	DD	FLAT:?accSelect@CWnd@@UAEJJUtagVARIANT@@@Z
	DD	FLAT:?accLocation@CWnd@@UAEJPAJ000UtagVARIANT@@@Z
	DD	FLAT:?accNavigate@CWnd@@UAEJJUtagVARIANT@@PAU2@@Z
	DD	FLAT:?accHitTest@CWnd@@UAEJJJPAUtagVARIANT@@@Z
	DD	FLAT:?accDoDefaultAction@CWnd@@UAEJUtagVARIANT@@@Z
	DD	FLAT:?put_accName@CWnd@@UAEJUtagVARIANT@@PA_W@Z
	DD	FLAT:?put_accValue@CWnd@@UAEJUtagVARIANT@@PA_W@Z
	DD	FLAT:?SetProxy@CWnd@@UAEJPAUIAccessibleProxy@@@Z
	DD	FLAT:?CreateAccessibleProxy@CWnd@@UAEJIJPAJ@Z
	DD	FLAT:?OnCommand@CWnd@@MAEHIJ@Z
	DD	FLAT:?OnNotify@CWnd@@MAEHIJPAJ@Z
	DD	FLAT:?GetSuperWndProcAddr@CWnd@@MAEPAP6GJPAUHWND__@@IIJ@ZXZ
	DD	FLAT:?DoDataExchange@CWnd@@MAEXPAVCDataExchange@@@Z
	DD	FLAT:?BeginModalState@CWnd@@UAEXXZ
	DD	FLAT:?EndModalState@CWnd@@UAEXXZ
	DD	FLAT:?PreTranslateMessage@CLocalMusicCoverList@@UAEHPAUtagMSG@@@Z
	DD	FLAT:?OnAmbientProperty@CWnd@@UAEHPAVCOleControlSite@@JPAUtagVARIANT@@@Z
	DD	FLAT:?WindowProc@CWnd@@MAEJIIJ@Z
	DD	FLAT:?OnWndMsg@CWnd@@MAEHIIJPAJ@Z
	DD	FLAT:?DefWindowProcA@CWnd@@MAEJIIJ@Z
	DD	FLAT:?PostNcDestroy@CWnd@@MAEXXZ
	DD	FLAT:?OnChildNotify@CWnd@@MAEHIIJPAJ@Z
	DD	FLAT:?CheckAutoCenter@CWnd@@UAEHXZ
	DD	FLAT:?IsFrameWnd@CWnd@@UBEHXZ
	DD	FLAT:?CreateControlContainer@CWnd@@MAEHPAPAVCOleControlContainer@@@Z
	DD	FLAT:?CreateControlSite@CWnd@@MAEHPAVCOleControlContainer@@PAPAVCOleControlSite@@IABU_GUID@@@Z
	DD	FLAT:?SetOccDialogInfo@CWnd@@MAEHPAU_AFX_OCC_DIALOG_INFO@@@Z
	DD	FLAT:?OnMoveDraging@CLocalMusicCoverList@@UAEXXZ
	DD	FLAT:?OnEndDrag@CLocalMusicCoverList@@UAEXXZ
CONST	ENDS
;	COMDAT ??_R4CLocalMusicCoverList@@6B@
rdata$r	SEGMENT
??_R4CLocalMusicCoverList@@6B@ DD 00H			; CLocalMusicCoverList::`RTTI Complete Object Locator'
	DD	00H
	DD	00H
	DD	FLAT:??_R0?AVCLocalMusicCoverList@@@8
	DD	FLAT:??_R3CLocalMusicCoverList@@8
rdata$r	ENDS
;	COMDAT ??_R0?AVCLocalMusicCoverList@@@8
_DATA	SEGMENT
??_R0?AVCLocalMusicCoverList@@@8 DD FLAT:??_7type_info@@6B@ ; CLocalMusicCoverList `RTTI Type Descriptor'
	DD	00H
	DB	'.?AVCLocalMusicCoverList@@', 00H
_DATA	ENDS
;	COMDAT ??_R3CLocalMusicCoverList@@8
rdata$r	SEGMENT
??_R3CLocalMusicCoverList@@8 DD 00H			; CLocalMusicCoverList::`RTTI Class Hierarchy Descriptor'
	DD	00H
	DD	04H
	DD	FLAT:??_R2CLocalMusicCoverList@@8
rdata$r	ENDS
;	COMDAT ??_R2CLocalMusicCoverList@@8
rdata$r	SEGMENT
??_R2CLocalMusicCoverList@@8 DD FLAT:??_R1A@?0A@A@CLocalMusicCoverList@@8 ; CLocalMusicCoverList::`RTTI Base Class Array'
	DD	FLAT:??_R1A@?0A@A@CWnd@@8
	DD	FLAT:??_R1A@?0A@A@CCmdTarget@@8
	DD	FLAT:??_R1A@?0A@A@CObject@@8
rdata$r	ENDS
;	COMDAT ??_R1A@?0A@A@CLocalMusicCoverList@@8
rdata$r	SEGMENT
??_R1A@?0A@A@CLocalMusicCoverList@@8 DD FLAT:??_R0?AVCLocalMusicCoverList@@@8 ; CLocalMusicCoverList::`RTTI Base Class Descriptor at (0,-1,0,0)'
	DD	03H
	DD	00H
	DD	0ffffffffH
	DD	00H
	DD	00H
rdata$r	ENDS
;	COMDAT ??_R1A@?0A@A@CWnd@@8
rdata$r	SEGMENT
??_R1A@?0A@A@CWnd@@8 DD FLAT:??_R0?AVCWnd@@@8		; CWnd::`RTTI Base Class Descriptor at (0,-1,0,0)'
	DD	02H
	DD	00H
	DD	0ffffffffH
	DD	00H
	DD	00H
rdata$r	ENDS
;	COMDAT ??_R0?AVCWnd@@@8
_DATA	SEGMENT
??_R0?AVCWnd@@@8 DD FLAT:??_7type_info@@6B@		; CWnd `RTTI Type Descriptor'
	DD	00H
	DB	'.?AVCWnd@@', 00H
_DATA	ENDS
;	COMDAT ??_R1A@?0A@A@CCmdTarget@@8
rdata$r	SEGMENT
??_R1A@?0A@A@CCmdTarget@@8 DD FLAT:??_R0?AVCCmdTarget@@@8 ; CCmdTarget::`RTTI Base Class Descriptor at (0,-1,0,0)'
	DD	01H
	DD	00H
	DD	0ffffffffH
	DD	00H
	DD	00H
rdata$r	ENDS
;	COMDAT ??_R0?AVCCmdTarget@@@8
_DATA	SEGMENT
??_R0?AVCCmdTarget@@@8 DD FLAT:??_7type_info@@6B@	; CCmdTarget `RTTI Type Descriptor'
	DD	00H
	DB	'.?AVCCmdTarget@@', 00H
_DATA	ENDS
;	COMDAT ??_R1A@?0A@A@CObject@@8
rdata$r	SEGMENT
??_R1A@?0A@A@CObject@@8 DD FLAT:??_R0?AVCObject@@@8	; CObject::`RTTI Base Class Descriptor at (0,-1,0,0)'
	DD	00H
	DD	00H
	DD	0ffffffffH
	DD	00H
	DD	00H
rdata$r	ENDS
;	COMDAT ??_R0?AVCObject@@@8
_DATA	SEGMENT
??_R0?AVCObject@@@8 DD FLAT:??_7type_info@@6B@		; CObject `RTTI Type Descriptor'
	DD	00H
	DB	'.?AVCObject@@', 00H
; Function compile flags: /Odt /RTCsu
_DATA	ENDS
_TEXT	SEGMENT
tv274 = -120						; size = 4
tv223 = -116						; size = 4
tv221 = -112						; size = 4
tv213 = -108						; size = 4
$T192462 = -104						; size = 28
$T192461 = -76						; size = 28
$T192458 = -48						; size = 4
$T192457 = -44						; size = 4
$T192454 = -40						; size = 4
$T192453 = -36						; size = 4
_iValue$ = -28						; size = 4
_pSkinMgr$ = -20					; size = 4
_this$ = -16						; size = 4
__$EHRec$ = -12						; size = 12
??0CLocalMusicCoverList@@QAE@XZ PROC NEAR		; CLocalMusicCoverList::CLocalMusicCoverList
; _this$ = ecx

; 35   : {

  00030	55		 push	 ebp
  00031	8b ec		 mov	 ebp, esp
  00033	6a ff		 push	 -1
  00035	68 00 00 00 00	 push	 __ehhandler$??0CLocalMusicCoverList@@QAE@XZ
  0003a	64 a1 00 00 00
	00		 mov	 eax, DWORD PTR fs:__except_list
  00040	50		 push	 eax
  00041	64 89 25 00 00
	00 00		 mov	 DWORD PTR fs:__except_list, esp
  00048	83 ec 6c	 sub	 esp, 108		; 0000006cH
  0004b	56		 push	 esi
  0004c	57		 push	 edi
  0004d	51		 push	 ecx
  0004e	8d 7d 88	 lea	 edi, DWORD PTR [ebp-120]
  00051	b9 1b 00 00 00	 mov	 ecx, 27			; 0000001bH
  00056	b8 cc cc cc cc	 mov	 eax, -858993460		; ccccccccH
  0005b	f3 ab		 rep stosd
  0005d	59		 pop	 ecx
  0005e	89 4d f0	 mov	 DWORD PTR _this$[ebp], ecx
  00061	8b 4d f0	 mov	 ecx, DWORD PTR _this$[ebp]
  00064	e8 00 00 00 00	 call	 ??0CWnd@@QAE@XZ		; CWnd::CWnd
  00069	c7 45 fc 00 00
	00 00		 mov	 DWORD PTR __$EHRec$[ebp+8], 0
  00070	8b 45 f0	 mov	 eax, DWORD PTR _this$[ebp]
  00073	c7 00 00 00 00
	00		 mov	 DWORD PTR [eax], OFFSET FLAT:??_7CLocalMusicCoverList@@6B@
  00079	8b 4d f0	 mov	 ecx, DWORD PTR _this$[ebp]
  0007c	c7 41 54 00 00
	00 00		 mov	 DWORD PTR [ecx+84], 0
  00083	8b 55 f0	 mov	 edx, DWORD PTR _this$[ebp]
  00086	c7 42 58 00 00
	00 00		 mov	 DWORD PTR [edx+88], 0
  0008d	8b 45 f0	 mov	 eax, DWORD PTR _this$[ebp]
  00090	c7 40 5c 01 00
	00 00		 mov	 DWORD PTR [eax+92], 1
  00097	8b 4d f0	 mov	 ecx, DWORD PTR _this$[ebp]
  0009a	83 c1 60	 add	 ecx, 96			; 00000060H
  0009d	e8 00 00 00 00	 call	 ??0CDC@@QAE@XZ		; CDC::CDC
  000a2	c6 45 fc 01	 mov	 BYTE PTR __$EHRec$[ebp+8], 1
  000a6	8b 4d f0	 mov	 ecx, DWORD PTR _this$[ebp]
  000a9	83 c1 70	 add	 ecx, 112		; 00000070H
  000ac	e8 00 00 00 00	 call	 ??0CBitmap@@QAE@XZ	; CBitmap::CBitmap
  000b1	c6 45 fc 02	 mov	 BYTE PTR __$EHRec$[ebp+8], 2
  000b5	8b 4d f0	 mov	 ecx, DWORD PTR _this$[ebp]
  000b8	c7 41 78 00 00
	00 00		 mov	 DWORD PTR [ecx+120], 0
  000bf	8b 4d f0	 mov	 ecx, DWORD PTR _this$[ebp]
  000c2	83 c1 7c	 add	 ecx, 124		; 0000007cH
  000c5	e8 00 00 00 00	 call	 ??0CFont@@QAE@XZ	; CFont::CFont
  000ca	c6 45 fc 03	 mov	 BYTE PTR __$EHRec$[ebp+8], 3
  000ce	8b 4d f0	 mov	 ecx, DWORD PTR _this$[ebp]
  000d1	81 c1 84 00 00
	00		 add	 ecx, 132		; 00000084H
  000d7	e8 00 00 00 00	 call	 ??0CFont@@QAE@XZ	; CFont::CFont
  000dc	c6 45 fc 04	 mov	 BYTE PTR __$EHRec$[ebp+8], 4
  000e0	6a 00		 push	 0
  000e2	6a 00		 push	 0
  000e4	6a 00		 push	 0
  000e6	6a 00		 push	 0
  000e8	8b 4d f0	 mov	 ecx, DWORD PTR _this$[ebp]
  000eb	81 c1 8c 00 00
	00		 add	 ecx, 140		; 0000008cH
  000f1	e8 00 00 00 00	 call	 ??0CRect@@QAE@HHHH@Z	; CRect::CRect
  000f6	6a 00		 push	 0
  000f8	6a 00		 push	 0
  000fa	6a 00		 push	 0
  000fc	6a 00		 push	 0
  000fe	8b 4d f0	 mov	 ecx, DWORD PTR _this$[ebp]
  00101	81 c1 9c 00 00
	00		 add	 ecx, 156		; 0000009cH
  00107	e8 00 00 00 00	 call	 ??0CRect@@QAE@HHHH@Z	; CRect::CRect
  0010c	6a 00		 push	 0
  0010e	6a 00		 push	 0
  00110	8b 4d f0	 mov	 ecx, DWORD PTR _this$[ebp]
  00113	81 c1 ac 00 00
	00		 add	 ecx, 172		; 000000acH
  00119	e8 00 00 00 00	 call	 ??0CPoint@@QAE@HH@Z	; CPoint::CPoint
  0011e	8b 4d f0	 mov	 ecx, DWORD PTR _this$[ebp]
  00121	81 c1 b4 00 00
	00		 add	 ecx, 180		; 000000b4H
  00127	e8 00 00 00 00	 call	 ??0CCriticalSection@@QAE@XZ ; CCriticalSection::CCriticalSection
  0012c	c6 45 fc 05	 mov	 BYTE PTR __$EHRec$[ebp+8], 5
  00130	8b 4d f0	 mov	 ecx, DWORD PTR _this$[ebp]
  00133	81 c1 d8 00 00
	00		 add	 ecx, 216		; 000000d8H
  00139	e8 00 00 00 00	 call	 ??0?$deque@VCPoint@@V?$allocator@VCPoint@@@std@@@std@@QAE@XZ ; std::deque<CPoint,std::allocator<CPoint> >::deque<CPoint,std::allocator<CPoint> >
  0013e	c6 45 fc 06	 mov	 BYTE PTR __$EHRec$[ebp+8], 6
  00142	8b 4d f0	 mov	 ecx, DWORD PTR _this$[ebp]
  00145	81 c1 f0 00 00
	00		 add	 ecx, 240		; 000000f0H
  0014b	e8 00 00 00 00	 call	 ??0GdiRes@@QAE@XZ	; GdiRes::GdiRes
  00150	8b 55 f0	 mov	 edx, DWORD PTR _this$[ebp]
  00153	c7 82 fc 00 00
	00 00 00 00 00	 mov	 DWORD PTR [edx+252], 0
  0015d	8b 45 f0	 mov	 eax, DWORD PTR _this$[ebp]
  00160	c7 80 00 01 00
	00 ff ff ff ff	 mov	 DWORD PTR [eax+256], -1
  0016a	8b 4d f0	 mov	 ecx, DWORD PTR _this$[ebp]
  0016d	81 c1 04 01 00
	00		 add	 ecx, 260		; 00000104H
  00173	e8 00 00 00 00	 call	 ??0CDC@@QAE@XZ		; CDC::CDC
  00178	c6 45 fc 07	 mov	 BYTE PTR __$EHRec$[ebp+8], 7
  0017c	8b 4d f0	 mov	 ecx, DWORD PTR _this$[ebp]
  0017f	81 c1 14 01 00
	00		 add	 ecx, 276		; 00000114H
  00185	e8 00 00 00 00	 call	 ??0CBitmap@@QAE@XZ	; CBitmap::CBitmap
  0018a	c6 45 fc 08	 mov	 BYTE PTR __$EHRec$[ebp+8], 8
  0018e	8b 4d f0	 mov	 ecx, DWORD PTR _this$[ebp]
  00191	c7 81 1c 01 00
	00 00 00 00 00	 mov	 DWORD PTR [ecx+284], 0
  0019b	6a ff		 push	 -1
  0019d	6a ff		 push	 -1
  0019f	8b 4d f0	 mov	 ecx, DWORD PTR _this$[ebp]
  001a2	81 c1 20 01 00
	00		 add	 ecx, 288		; 00000120H
  001a8	e8 00 00 00 00	 call	 ??0CPoint@@QAE@HH@Z	; CPoint::CPoint
  001ad	6a 00		 push	 0
  001af	6a 00		 push	 0
  001b1	6a 00		 push	 0
  001b3	6a 00		 push	 0
  001b5	8b 4d f0	 mov	 ecx, DWORD PTR _this$[ebp]
  001b8	81 c1 2c 01 00
	00		 add	 ecx, 300		; 0000012cH
  001be	e8 00 00 00 00	 call	 ??0CRect@@QAE@HHHH@Z	; CRect::CRect
  001c3	8b 55 f0	 mov	 edx, DWORD PTR _this$[ebp]
  001c6	c7 82 3c 01 00
	00 00 00 00 00	 mov	 DWORD PTR [edx+316], 0
  001d0	8b 45 f0	 mov	 eax, DWORD PTR _this$[ebp]
  001d3	c7 80 48 01 00
	00 00 00 00 00	 mov	 DWORD PTR [eax+328], 0
  001dd	8b 4d f0	 mov	 ecx, DWORD PTR _this$[ebp]
  001e0	c7 81 54 01 00
	00 00 00 00 00	 mov	 DWORD PTR [ecx+340], 0
  001ea	8b 55 f0	 mov	 edx, DWORD PTR _this$[ebp]
  001ed	c7 82 58 01 00
	00 00 00 00 00	 mov	 DWORD PTR [edx+344], 0
  001f7	8b 45 f0	 mov	 eax, DWORD PTR _this$[ebp]
  001fa	c6 80 5c 01 00
	00 00		 mov	 BYTE PTR [eax+348], 0
  00201	8b 4d f0	 mov	 ecx, DWORD PTR _this$[ebp]
  00204	c7 81 60 01 00
	00 00 00 00 00	 mov	 DWORD PTR [ecx+352], 0
  0020e	8b 55 f0	 mov	 edx, DWORD PTR _this$[ebp]
  00211	c7 82 68 01 00
	00 00 00 00 00	 mov	 DWORD PTR [edx+360], 0
  0021b	8b 4d f0	 mov	 ecx, DWORD PTR _this$[ebp]
  0021e	81 c1 6c 01 00
	00		 add	 ecx, 364		; 0000016cH
  00224	e8 00 00 00 00	 call	 ??0CLMCDataMgr@@QAE@XZ	; CLMCDataMgr::CLMCDataMgr
  00229	c6 45 fc 09	 mov	 BYTE PTR __$EHRec$[ebp+8], 9
  0022d	8b 45 f0	 mov	 eax, DWORD PTR _this$[ebp]
  00230	c7 80 7c 01 00
	00 00 00 00 00	 mov	 DWORD PTR [eax+380], 0

; 36   : 	m_pBitmapYes=new CBitmap();

  0023a	6a 08		 push	 8
  0023c	e8 00 00 00 00	 call	 ??2CObject@@SGPAXI@Z	; CObject::operator new
  00241	89 45 d8	 mov	 DWORD PTR $T192454[ebp], eax
  00244	c6 45 fc 0a	 mov	 BYTE PTR __$EHRec$[ebp+8], 10 ; 0000000aH
  00248	83 7d d8 00	 cmp	 DWORD PTR $T192454[ebp], 0
  0024c	74 0d		 je	 SHORT $L192455
  0024e	8b 4d d8	 mov	 ecx, DWORD PTR $T192454[ebp]
  00251	e8 00 00 00 00	 call	 ??0CBitmap@@QAE@XZ	; CBitmap::CBitmap
  00256	89 45 94	 mov	 DWORD PTR tv213[ebp], eax
  00259	eb 07		 jmp	 SHORT $L192456
$L192455:
  0025b	c7 45 94 00 00
	00 00		 mov	 DWORD PTR tv213[ebp], 0
$L192456:
  00262	8b 4d 94	 mov	 ecx, DWORD PTR tv213[ebp]
  00265	89 4d dc	 mov	 DWORD PTR $T192453[ebp], ecx
  00268	c6 45 fc 09	 mov	 BYTE PTR __$EHRec$[ebp+8], 9
  0026c	8b 55 f0	 mov	 edx, DWORD PTR _this$[ebp]
  0026f	8b 45 dc	 mov	 eax, DWORD PTR $T192453[ebp]
  00272	89 82 4c 01 00
	00		 mov	 DWORD PTR [edx+332], eax

; 37   : 	m_pBitmapNo=new CBitmap();

  00278	6a 08		 push	 8
  0027a	e8 00 00 00 00	 call	 ??2CObject@@SGPAXI@Z	; CObject::operator new
  0027f	89 45 d0	 mov	 DWORD PTR $T192458[ebp], eax
  00282	c6 45 fc 0b	 mov	 BYTE PTR __$EHRec$[ebp+8], 11 ; 0000000bH
  00286	83 7d d0 00	 cmp	 DWORD PTR $T192458[ebp], 0
  0028a	74 0d		 je	 SHORT $L192459
  0028c	8b 4d d0	 mov	 ecx, DWORD PTR $T192458[ebp]
  0028f	e8 00 00 00 00	 call	 ??0CBitmap@@QAE@XZ	; CBitmap::CBitmap
  00294	89 45 90	 mov	 DWORD PTR tv221[ebp], eax
  00297	eb 07		 jmp	 SHORT $L192460
$L192459:
  00299	c7 45 90 00 00
	00 00		 mov	 DWORD PTR tv221[ebp], 0
$L192460:
  002a0	8b 4d 90	 mov	 ecx, DWORD PTR tv221[ebp]
  002a3	89 4d d4	 mov	 DWORD PTR $T192457[ebp], ecx
  002a6	c6 45 fc 09	 mov	 BYTE PTR __$EHRec$[ebp+8], 9
  002aa	8b 55 f0	 mov	 edx, DWORD PTR _this$[ebp]
  002ad	8b 45 d4	 mov	 eax, DWORD PTR $T192457[ebp]
  002b0	89 82 50 01 00
	00		 mov	 DWORD PTR [edx+336], eax

; 38   : 	ISkinMgr*	pSkinMgr = AfxGetUIManager()->UIGetSkinMgr();

  002b6	e8 00 00 00 00	 call	 ?AfxGetUIManager@@YAPAVIUIManager@@XZ ; AfxGetUIManager
  002bb	89 45 8c	 mov	 DWORD PTR tv223[ebp], eax
  002be	8b 4d 8c	 mov	 ecx, DWORD PTR tv223[ebp]
  002c1	8b 11		 mov	 edx, DWORD PTR [ecx]
  002c3	8b f4		 mov	 esi, esp
  002c5	8b 4d 8c	 mov	 ecx, DWORD PTR tv223[ebp]
  002c8	ff 52 28	 call	 DWORD PTR [edx+40]
  002cb	3b f4		 cmp	 esi, esp
  002cd	e8 00 00 00 00	 call	 __RTC_CheckEsp
  002d2	89 45 ec	 mov	 DWORD PTR _pSkinMgr$[ebp], eax

; 39   : 	SetScrollBitmap(pSkinMgr->GetDibBmp("ScrollVert"), pSkinMgr->GetDibBmp("ScrollHorz"));

  002d5	8b f4		 mov	 esi, esp
  002d7	68 00 00 00 00	 push	 OFFSET FLAT:$SG189447
  002dc	8b 45 ec	 mov	 eax, DWORD PTR _pSkinMgr$[ebp]
  002df	8b 10		 mov	 edx, DWORD PTR [eax]
  002e1	8b 4d ec	 mov	 ecx, DWORD PTR _pSkinMgr$[ebp]
  002e4	ff 52 04	 call	 DWORD PTR [edx+4]
  002e7	3b f4		 cmp	 esi, esp
  002e9	e8 00 00 00 00	 call	 __RTC_CheckEsp
  002ee	50		 push	 eax
  002ef	8b f4		 mov	 esi, esp
  002f1	68 00 00 00 00	 push	 OFFSET FLAT:$SG189448
  002f6	8b 45 ec	 mov	 eax, DWORD PTR _pSkinMgr$[ebp]
  002f9	8b 10		 mov	 edx, DWORD PTR [eax]
  002fb	8b 4d ec	 mov	 ecx, DWORD PTR _pSkinMgr$[ebp]
  002fe	ff 52 04	 call	 DWORD PTR [edx+4]
  00301	3b f4		 cmp	 esi, esp
  00303	e8 00 00 00 00	 call	 __RTC_CheckEsp
  00308	50		 push	 eax
  00309	8b 4d f0	 mov	 ecx, DWORD PTR _this$[ebp]
  0030c	e8 00 00 00 00	 call	 ?SetScrollBitmap@CLocalMusicCoverList@@QAEXPAVCDibBitmap@@0@Z ; CLocalMusicCoverList::SetScrollBitmap

; 40   : 	m_gdires.colDetail = pSkinMgr->GetColor( "PlayedGameDetailTextColor" );

  00311	8b f4		 mov	 esi, esp
  00313	68 00 00 00 00	 push	 OFFSET FLAT:$SG189449
  00318	8b 45 ec	 mov	 eax, DWORD PTR _pSkinMgr$[ebp]
  0031b	8b 10		 mov	 edx, DWORD PTR [eax]
  0031d	8b 4d ec	 mov	 ecx, DWORD PTR _pSkinMgr$[ebp]
  00320	ff 52 08	 call	 DWORD PTR [edx+8]
  00323	3b f4		 cmp	 esi, esp
  00325	e8 00 00 00 00	 call	 __RTC_CheckEsp
  0032a	8b 4d f0	 mov	 ecx, DWORD PTR _this$[ebp]
  0032d	89 81 f8 00 00
	00		 mov	 DWORD PTR [ecx+248], eax

; 41   : 	m_gdires.colListBK = pSkinMgr->GetColor( "PlayedGameBkColor" );

  00333	8b f4		 mov	 esi, esp
  00335	68 00 00 00 00	 push	 OFFSET FLAT:$SG189450
  0033a	8b 55 ec	 mov	 edx, DWORD PTR _pSkinMgr$[ebp]
  0033d	8b 02		 mov	 eax, DWORD PTR [edx]
  0033f	8b 4d ec	 mov	 ecx, DWORD PTR _pSkinMgr$[ebp]
  00342	ff 50 08	 call	 DWORD PTR [eax+8]
  00345	3b f4		 cmp	 esi, esp
  00347	e8 00 00 00 00	 call	 __RTC_CheckEsp
  0034c	8b 4d f0	 mov	 ecx, DWORD PTR _this$[ebp]
  0034f	89 81 f0 00 00
	00		 mov	 DWORD PTR [ecx+240], eax

; 42   : 	m_gdires.colName = pSkinMgr->GetColor( "PlayedGameNameColor" );

  00355	8b f4		 mov	 esi, esp
  00357	68 00 00 00 00	 push	 OFFSET FLAT:$SG189451
  0035c	8b 55 ec	 mov	 edx, DWORD PTR _pSkinMgr$[ebp]
  0035f	8b 02		 mov	 eax, DWORD PTR [edx]
  00361	8b 4d ec	 mov	 ecx, DWORD PTR _pSkinMgr$[ebp]
  00364	ff 50 08	 call	 DWORD PTR [eax+8]
  00367	3b f4		 cmp	 esi, esp
  00369	e8 00 00 00 00	 call	 __RTC_CheckEsp
  0036e	8b 4d f0	 mov	 ecx, DWORD PTR _this$[ebp]
  00371	89 81 f4 00 00
	00		 mov	 DWORD PTR [ecx+244], eax

; 43   : 	
; 44   : 	int iValue = 0;

  00377	c7 45 e4 00 00
	00 00		 mov	 DWORD PTR _iValue$[ebp], 0

; 45   : 	AfxGetUserConfig()->GetConfigIntValue( CONF_APP_MODULE_NAME,CONF_APP_PLAYED_ICON_SIZE, iValue);

  0037e	8b f4		 mov	 esi, esp
  00380	8b 15 00 00 00
	00		 mov	 edx, DWORD PTR _CONF_APP_PLAYED_ICON_SIZE
  00386	52		 push	 edx
  00387	8d 4d b4	 lea	 ecx, DWORD PTR $T192461[ebp]
  0038a	ff 15 00 00 00
	00		 call	 DWORD PTR __imp_??0?$basic_string@DU?$char_traits@D@std@@V?$allocator@D@2@@std@@QAE@PBD@Z
  00390	3b f4		 cmp	 esi, esp
  00392	e8 00 00 00 00	 call	 __RTC_CheckEsp
  00397	c6 45 fc 0c	 mov	 BYTE PTR __$EHRec$[ebp+8], 12 ; 0000000cH
  0039b	8b f4		 mov	 esi, esp
  0039d	a1 00 00 00 00	 mov	 eax, DWORD PTR _CONF_APP_MODULE_NAME
  003a2	50		 push	 eax
  003a3	8d 4d 98	 lea	 ecx, DWORD PTR $T192462[ebp]
  003a6	ff 15 00 00 00
	00		 call	 DWORD PTR __imp_??0?$basic_string@DU?$char_traits@D@std@@V?$allocator@D@2@@std@@QAE@PBD@Z
  003ac	3b f4		 cmp	 esi, esp
  003ae	e8 00 00 00 00	 call	 __RTC_CheckEsp
  003b3	c6 45 fc 0d	 mov	 BYTE PTR __$EHRec$[ebp+8], 13 ; 0000000dH
  003b7	8d 4d e4	 lea	 ecx, DWORD PTR _iValue$[ebp]
  003ba	51		 push	 ecx
  003bb	8d 55 b4	 lea	 edx, DWORD PTR $T192461[ebp]
  003be	52		 push	 edx
  003bf	8d 45 98	 lea	 eax, DWORD PTR $T192462[ebp]
  003c2	50		 push	 eax
  003c3	e8 00 00 00 00	 call	 ?AfxGetUserConfig@@YAPAVAfxUserConfig@@XZ ; AfxGetUserConfig
  003c8	8b c8		 mov	 ecx, eax
  003ca	e8 00 00 00 00	 call	 ?GetConfigIntValue@AfxUserConfig@@QAEXABV?$basic_string@DU?$char_traits@D@std@@V?$allocator@D@2@@std@@0AAH@Z ; AfxUserConfig::GetConfigIntValue
  003cf	c6 45 fc 0c	 mov	 BYTE PTR __$EHRec$[ebp+8], 12 ; 0000000cH
  003d3	8b f4		 mov	 esi, esp
  003d5	8d 4d 98	 lea	 ecx, DWORD PTR $T192462[ebp]
  003d8	ff 15 00 00 00
	00		 call	 DWORD PTR __imp_??1?$basic_string@DU?$char_traits@D@std@@V?$allocator@D@2@@std@@QAE@XZ
  003de	3b f4		 cmp	 esi, esp
  003e0	e8 00 00 00 00	 call	 __RTC_CheckEsp
  003e5	c6 45 fc 09	 mov	 BYTE PTR __$EHRec$[ebp+8], 9
  003e9	8b f4		 mov	 esi, esp
  003eb	8d 4d b4	 lea	 ecx, DWORD PTR $T192461[ebp]
  003ee	ff 15 00 00 00
	00		 call	 DWORD PTR __imp_??1?$basic_string@DU?$char_traits@D@std@@V?$allocator@D@2@@std@@QAE@XZ
  003f4	3b f4		 cmp	 esi, esp
  003f6	e8 00 00 00 00	 call	 __RTC_CheckEsp

; 46   : 	switch( iValue )

  003fb	8b 4d e4	 mov	 ecx, DWORD PTR _iValue$[ebp]
  003fe	89 4d 88	 mov	 DWORD PTR tv274[ebp], ecx
  00401	83 7d 88 00	 cmp	 DWORD PTR tv274[ebp], 0
  00405	74 08		 je	 SHORT $L189459
  00407	83 7d 88 01	 cmp	 DWORD PTR tv274[ebp], 1
  0040b	74 10		 je	 SHORT $L189460
  0040d	eb 1c		 jmp	 SHORT $L189461
$L189459:

; 47   : 	{
; 48   : 	case 0: //
; 49   : 		SetItemWH(80,80);

  0040f	6a 50		 push	 80			; 00000050H
  00411	6a 50		 push	 80			; 00000050H
  00413	8b 4d f0	 mov	 ecx, DWORD PTR _this$[ebp]
  00416	e8 00 00 00 00	 call	 ?SetItemWH@CLocalMusicCoverList@@QAEXHH@Z ; CLocalMusicCoverList::SetItemWH

; 50   : 		break;

  0041b	eb 20		 jmp	 SHORT $L189437
$L189460:

; 51   : 	case 1:
; 52   : 		SetItemWH(100,100);

  0041d	6a 64		 push	 100			; 00000064H
  0041f	6a 64		 push	 100			; 00000064H
  00421	8b 4d f0	 mov	 ecx, DWORD PTR _this$[ebp]
  00424	e8 00 00 00 00	 call	 ?SetItemWH@CLocalMusicCoverList@@QAEXHH@Z ; CLocalMusicCoverList::SetItemWH

; 53   : 		break;

  00429	eb 12		 jmp	 SHORT $L189437
$L189461:

; 54   : 	default:
; 55   : 		SetItemWH(130,130);

  0042b	68 82 00 00 00	 push	 130			; 00000082H
  00430	68 82 00 00 00	 push	 130			; 00000082H
  00435	8b 4d f0	 mov	 ecx, DWORD PTR _this$[ebp]
  00438	e8 00 00 00 00	 call	 ?SetItemWH@CLocalMusicCoverList@@QAEXHH@Z ; CLocalMusicCoverList::SetItemWH
$L189437:

; 56   : 		break;
; 57   : 	}
; 58   : }

  0043d	c7 45 fc ff ff
	ff ff		 mov	 DWORD PTR __$EHRec$[ebp+8], -1
  00444	8b 45 f0	 mov	 eax, DWORD PTR _this$[ebp]
  00447	52		 push	 edx
  00448	8b cd		 mov	 ecx, ebp
  0044a	50		 push	 eax
  0044b	8d 15 00 00 00
	00		 lea	 edx, DWORD PTR $L192486
  00451	e8 00 00 00 00	 call	 @_RTC_CheckStackVars@8
  00456	58		 pop	 eax
  00457	5a		 pop	 edx
  00458	8b 4d f4	 mov	 ecx, DWORD PTR __$EHRec$[ebp]
  0045b	64 89 0d 00 00
	00 00		 mov	 DWORD PTR fs:__except_list, ecx
  00462	5f		 pop	 edi
  00463	5e		 pop	 esi
  00464	83 c4 78	 add	 esp, 120		; 00000078H
  00467	3b ec		 cmp	 ebp, esp
  00469	e8 00 00 00 00	 call	 __RTC_CheckEsp
  0046e	8b e5		 mov	 esp, ebp
  00470	5d		 pop	 ebp
  00471	c3		 ret	 0
$L192486:
  00472	01 00 00 00	 DD	 1
  00476	00 00 00 00	 DD	 $L192485
$L192485:
  0047a	e4 ff ff ff	 DD	 -28			; ffffffe4H
  0047e	04 00 00 00	 DD	 4
  00482	00 00 00 00	 DD	 $L192482
$L192482:
  00486	69		 DB	 105			; 00000069H
  00487	56		 DB	 86			; 00000056H
  00488	61		 DB	 97			; 00000061H
  00489	6c		 DB	 108			; 0000006cH
  0048a	75		 DB	 117			; 00000075H
  0048b	65		 DB	 101			; 00000065H
  0048c	00		 DB	 0
_TEXT	ENDS
text$x	SEGMENT
$L192463:
  00000	8b 4d f0	 mov	 ecx, DWORD PTR _this$[ebp]
  00003	e9 00 00 00 00	 jmp	 ??1CWnd@@UAE@XZ		; CWnd::~CWnd
$L192464:
  00008	8b 4d f0	 mov	 ecx, DWORD PTR _this$[ebp]
  0000b	83 c1 60	 add	 ecx, 96			; 00000060H
  0000e	e9 00 00 00 00	 jmp	 ??1CDC@@UAE@XZ		; CDC::~CDC
$L192465:
  00013	8b 4d f0	 mov	 ecx, DWORD PTR _this$[ebp]
  00016	83 c1 70	 add	 ecx, 112		; 00000070H
  00019	e9 00 00 00 00	 jmp	 ??1CBitmap@@UAE@XZ	; CBitmap::~CBitmap
$L192466:
  0001e	8b 4d f0	 mov	 ecx, DWORD PTR _this$[ebp]
  00021	83 c1 7c	 add	 ecx, 124		; 0000007cH
  00024	e9 00 00 00 00	 jmp	 ??1CFont@@UAE@XZ	; CFont::~CFont
$L192467:
  00029	8b 4d f0	 mov	 ecx, DWORD PTR _this$[ebp]
  0002c	81 c1 84 00 00
	00		 add	 ecx, 132		; 00000084H
  00032	e9 00 00 00 00	 jmp	 ??1CFont@@UAE@XZ	; CFont::~CFont
$L192468:
  00037	8b 4d f0	 mov	 ecx, DWORD PTR _this$[ebp]
  0003a	81 c1 b4 00 00
	00		 add	 ecx, 180		; 000000b4H
  00040	e9 00 00 00 00	 jmp	 ??1CCriticalSection@@UAE@XZ ; CCriticalSection::~CCriticalSection
$L192469:
  00045	8b 4d f0	 mov	 ecx, DWORD PTR _this$[ebp]
  00048	81 c1 d8 00 00
	00		 add	 ecx, 216		; 000000d8H
  0004e	e9 00 00 00 00	 jmp	 ??1?$deque@VCPoint@@V?$allocator@VCPoint@@@std@@@std@@QAE@XZ ; std::deque<CPoint,std::allocator<CPoint> >::~deque<CPoint,std::allocator<CPoint> >
$L192470:
  00053	8b 4d f0	 mov	 ecx, DWORD PTR _this$[ebp]
  00056	81 c1 04 01 00
	00		 add	 ecx, 260		; 00000104H
  0005c	e9 00 00 00 00	 jmp	 ??1CDC@@UAE@XZ		; CDC::~CDC
$L192471:
  00061	8b 4d f0	 mov	 ecx, DWORD PTR _this$[ebp]
  00064	81 c1 14 01 00
	00		 add	 ecx, 276		; 00000114H
  0006a	e9 00 00 00 00	 jmp	 ??1CBitmap@@UAE@XZ	; CBitmap::~CBitmap
$L192472:
  0006f	8b 4d f0	 mov	 ecx, DWORD PTR _this$[ebp]
  00072	81 c1 6c 01 00
	00		 add	 ecx, 364		; 0000016cH
  00078	e9 00 00 00 00	 jmp	 ??1CLMCDataMgr@@QAE@XZ	; CLMCDataMgr::~CLMCDataMgr
$L192473:
  0007d	8b 45 d8	 mov	 eax, DWORD PTR $T192454[ebp]
  00080	50		 push	 eax
  00081	e8 00 00 00 00	 call	 ??3CObject@@SGXPAX@Z	; CObject::operator delete
  00086	c3		 ret	 0
$L192474:
  00087	8b 45 d0	 mov	 eax, DWORD PTR $T192458[ebp]
  0008a	50		 push	 eax
  0008b	e8 00 00 00 00	 call	 ??3CObject@@SGXPAX@Z	; CObject::operator delete
  00090	c3		 ret	 0
$L192475:
  00091	8b f4		 mov	 esi, esp
  00093	8d 4d b4	 lea	 ecx, DWORD PTR $T192461[ebp]
  00096	ff 15 00 00 00
	00		 call	 DWORD PTR __imp_??1?$basic_string@DU?$char_traits@D@std@@V?$allocator@D@2@@std@@QAE@XZ
  0009c	3b f4		 cmp	 esi, esp
  0009e	e9 00 00 00 00	 jmp	 __RTC_CheckEsp
$L192476:
  000a3	8b f4		 mov	 esi, esp
  000a5	8d 4d 98	 lea	 ecx, DWORD PTR $T192462[ebp]
  000a8	ff 15 00 00 00
	00		 call	 DWORD PTR __imp_??1?$basic_string@DU?$char_traits@D@std@@V?$allocator@D@2@@std@@QAE@XZ
  000ae	3b f4		 cmp	 esi, esp
  000b0	e9 00 00 00 00	 jmp	 __RTC_CheckEsp
__ehhandler$??0CLocalMusicCoverList@@QAE@XZ:
  000b5	b8 00 00 00 00	 mov	 eax, OFFSET FLAT:$T192480
  000ba	e9 00 00 00 00	 jmp	 ___CxxFrameHandler
text$x	ENDS
??0CLocalMusicCoverList@@QAE@XZ ENDP			; CLocalMusicCoverList::CLocalMusicCoverList
; Function compile flags: /Odt /RTCsu
; File d:\boxgit\playbox\playbox\dev\prj\playbox\src\module\playedgamepanel\lmcstructs.h
;	COMDAT ??0GdiRes@@QAE@XZ
_TEXT	SEGMENT
_this$ = -4						; size = 4
??0GdiRes@@QAE@XZ PROC NEAR				; GdiRes::GdiRes, COMDAT
; _this$ = ecx

; 13   : 	GdiRes()

  00000	55		 push	 ebp
  00001	8b ec		 mov	 ebp, esp
  00003	51		 push	 ecx
  00004	c7 45 fc cc cc
	cc cc		 mov	 DWORD PTR [ebp-4], -858993460 ; ccccccccH
  0000b	89 4d fc	 mov	 DWORD PTR _this$[ebp], ecx

; 14   : 	{
; 15   : 		colListBK = RGB(240,247,252);

  0000e	8b 45 fc	 mov	 eax, DWORD PTR _this$[ebp]
  00011	c7 00 f0 f7 fc
	00		 mov	 DWORD PTR [eax], 16578544 ; 00fcf7f0H

; 16   : 		colName   = RGB(77,77,77);

  00017	8b 4d fc	 mov	 ecx, DWORD PTR _this$[ebp]
  0001a	c7 41 04 4d 4d
	4d 00		 mov	 DWORD PTR [ecx+4], 5066061 ; 004d4d4dH

; 17   : 		colDetail = RGB(125,125,125);

  00021	8b 55 fc	 mov	 edx, DWORD PTR _this$[ebp]
  00024	c7 42 08 7d 7d
	7d 00		 mov	 DWORD PTR [edx+8], 8224125 ; 007d7d7dH

; 18   : 	}

  0002b	8b 45 fc	 mov	 eax, DWORD PTR _this$[ebp]
  0002e	8b e5		 mov	 esp, ebp
  00030	5d		 pop	 ebp
  00031	c3		 ret	 0
??0GdiRes@@QAE@XZ ENDP					; GdiRes::GdiRes
_TEXT	ENDS
PUBLIC	??1CLocalMusicCoverList@@UAE@XZ			; CLocalMusicCoverList::~CLocalMusicCoverList
; Function compile flags: /Odt /RTCsu
;	COMDAT ??_GCLocalMusicCoverList@@UAEPAXI@Z
_TEXT	SEGMENT
_this$ = -4						; size = 4
___flags$ = 8						; size = 4
??_GCLocalMusicCoverList@@UAEPAXI@Z PROC NEAR		; CLocalMusicCoverList::`scalar deleting destructor', COMDAT
; _this$ = ecx
  00000	55		 push	 ebp
  00001	8b ec		 mov	 ebp, esp
  00003	51		 push	 ecx
  00004	c7 45 fc cc cc
	cc cc		 mov	 DWORD PTR [ebp-4], -858993460 ; ccccccccH
  0000b	89 4d fc	 mov	 DWORD PTR _this$[ebp], ecx
  0000e	8b 4d fc	 mov	 ecx, DWORD PTR _this$[ebp]
  00011	e8 00 00 00 00	 call	 ??1CLocalMusicCoverList@@UAE@XZ ; CLocalMusicCoverList::~CLocalMusicCoverList
  00016	8b 45 08	 mov	 eax, DWORD PTR ___flags$[ebp]
  00019	83 e0 01	 and	 eax, 1
  0001c	74 09		 je	 SHORT $L189465
  0001e	8b 4d fc	 mov	 ecx, DWORD PTR _this$[ebp]
  00021	51		 push	 ecx
  00022	e8 00 00 00 00	 call	 ??3CObject@@SGXPAX@Z	; CObject::operator delete
$L189465:
  00027	8b 45 fc	 mov	 eax, DWORD PTR _this$[ebp]
  0002a	83 c4 04	 add	 esp, 4
  0002d	3b ec		 cmp	 ebp, esp
  0002f	e8 00 00 00 00	 call	 __RTC_CheckEsp
  00034	8b e5		 mov	 esp, ebp
  00036	5d		 pop	 ebp
  00037	c2 04 00	 ret	 4
??_GCLocalMusicCoverList@@UAEPAXI@Z ENDP		; CLocalMusicCoverList::`scalar deleting destructor'
_TEXT	ENDS
xdata$x	SEGMENT
$T192514 DD	0ffffffffH
	DD	FLAT:$L192501
	DD	00H
	DD	FLAT:$L192502
	DD	01H
	DD	FLAT:$L192503
	DD	02H
	DD	FLAT:$L192504
	DD	03H
	DD	FLAT:$L192505
	DD	04H
	DD	FLAT:$L192506
	DD	05H
	DD	FLAT:$L192507
	DD	06H
	DD	FLAT:$L192508
	DD	07H
	DD	FLAT:$L192509
	DD	08H
	DD	FLAT:$L192510
$T192512 DD	019930520H
	DD	0aH
	DD	FLAT:$T192514
	DD	2 DUP(00H)
	DD	2 DUP(00H)
; Function compile flags: /Odt /RTCsu
; File d:\boxgit\playbox\playbox\dev\prj\playbox\src\module\playedgamepanel\localmusiccoverlist.cpp
xdata$x	ENDS
_TEXT	SEGMENT
tv148 = -40						; size = 4
tv140 = -36						; size = 4
$T192498 = -32						; size = 4
$T192497 = -28						; size = 4
$T192494 = -24						; size = 4
$T192493 = -20						; size = 4
_this$ = -16						; size = 4
__$EHRec$ = -12						; size = 12
??1CLocalMusicCoverList@@UAE@XZ PROC NEAR		; CLocalMusicCoverList::~CLocalMusicCoverList
; _this$ = ecx

; 61   : {

  00490	55		 push	 ebp
  00491	8b ec		 mov	 ebp, esp
  00493	6a ff		 push	 -1
  00495	68 00 00 00 00	 push	 __ehhandler$??1CLocalMusicCoverList@@UAE@XZ
  0049a	64 a1 00 00 00
	00		 mov	 eax, DWORD PTR fs:__except_list
  004a0	50		 push	 eax
  004a1	64 89 25 00 00
	00 00		 mov	 DWORD PTR fs:__except_list, esp
  004a8	83 ec 1c	 sub	 esp, 28			; 0000001cH
  004ab	56		 push	 esi
  004ac	b8 cc cc cc cc	 mov	 eax, -858993460		; ccccccccH
  004b1	89 45 d8	 mov	 DWORD PTR [ebp-40], eax
  004b4	89 45 dc	 mov	 DWORD PTR [ebp-36], eax
  004b7	89 45 e0	 mov	 DWORD PTR [ebp-32], eax
  004ba	89 45 e4	 mov	 DWORD PTR [ebp-28], eax
  004bd	89 45 e8	 mov	 DWORD PTR [ebp-24], eax
  004c0	89 45 ec	 mov	 DWORD PTR [ebp-20], eax
  004c3	89 45 f0	 mov	 DWORD PTR [ebp-16], eax
  004c6	89 4d f0	 mov	 DWORD PTR _this$[ebp], ecx
  004c9	8b 45 f0	 mov	 eax, DWORD PTR _this$[ebp]
  004cc	c7 00 00 00 00
	00		 mov	 DWORD PTR [eax], OFFSET FLAT:??_7CLocalMusicCoverList@@6B@
  004d2	c7 45 fc 09 00
	00 00		 mov	 DWORD PTR __$EHRec$[ebp+8], 9

; 62   : 	delete m_pBitmapYes;

  004d9	8b 4d f0	 mov	 ecx, DWORD PTR _this$[ebp]
  004dc	8b 91 4c 01 00
	00		 mov	 edx, DWORD PTR [ecx+332]
  004e2	89 55 e8	 mov	 DWORD PTR $T192494[ebp], edx
  004e5	8b 45 e8	 mov	 eax, DWORD PTR $T192494[ebp]
  004e8	89 45 ec	 mov	 DWORD PTR $T192493[ebp], eax
  004eb	83 7d ec 00	 cmp	 DWORD PTR $T192493[ebp], 0
  004ef	74 1b		 je	 SHORT $L192495
  004f1	8b f4		 mov	 esi, esp
  004f3	6a 01		 push	 1
  004f5	8b 4d ec	 mov	 ecx, DWORD PTR $T192493[ebp]
  004f8	8b 11		 mov	 edx, DWORD PTR [ecx]
  004fa	8b 4d ec	 mov	 ecx, DWORD PTR $T192493[ebp]
  004fd	ff 52 04	 call	 DWORD PTR [edx+4]
  00500	3b f4		 cmp	 esi, esp
  00502	e8 00 00 00 00	 call	 __RTC_CheckEsp
  00507	89 45 dc	 mov	 DWORD PTR tv140[ebp], eax
  0050a	eb 07		 jmp	 SHORT $L192496
$L192495:
  0050c	c7 45 dc 00 00
	00 00		 mov	 DWORD PTR tv140[ebp], 0
$L192496:

; 63   : 	delete m_pBitmapNo;

  00513	8b 45 f0	 mov	 eax, DWORD PTR _this$[ebp]
  00516	8b 88 50 01 00
	00		 mov	 ecx, DWORD PTR [eax+336]
  0051c	89 4d e0	 mov	 DWORD PTR $T192498[ebp], ecx
  0051f	8b 55 e0	 mov	 edx, DWORD PTR $T192498[ebp]
  00522	89 55 e4	 mov	 DWORD PTR $T192497[ebp], edx
  00525	83 7d e4 00	 cmp	 DWORD PTR $T192497[ebp], 0
  00529	74 1b		 je	 SHORT $L192499
  0052b	8b f4		 mov	 esi, esp
  0052d	6a 01		 push	 1
  0052f	8b 45 e4	 mov	 eax, DWORD PTR $T192497[ebp]
  00532	8b 10		 mov	 edx, DWORD PTR [eax]
  00534	8b 4d e4	 mov	 ecx, DWORD PTR $T192497[ebp]
  00537	ff 52 04	 call	 DWORD PTR [edx+4]
  0053a	3b f4		 cmp	 esi, esp
  0053c	e8 00 00 00 00	 call	 __RTC_CheckEsp
  00541	89 45 d8	 mov	 DWORD PTR tv148[ebp], eax
  00544	eb 07		 jmp	 SHORT $L189468
$L192499:
  00546	c7 45 d8 00 00
	00 00		 mov	 DWORD PTR tv148[ebp], 0
$L189468:

; 64   : }

  0054d	c6 45 fc 08	 mov	 BYTE PTR __$EHRec$[ebp+8], 8
  00551	8b 4d f0	 mov	 ecx, DWORD PTR _this$[ebp]
  00554	81 c1 6c 01 00
	00		 add	 ecx, 364		; 0000016cH
  0055a	e8 00 00 00 00	 call	 ??1CLMCDataMgr@@QAE@XZ	; CLMCDataMgr::~CLMCDataMgr
  0055f	c6 45 fc 07	 mov	 BYTE PTR __$EHRec$[ebp+8], 7
  00563	8b 4d f0	 mov	 ecx, DWORD PTR _this$[ebp]
  00566	81 c1 14 01 00
	00		 add	 ecx, 276		; 00000114H
  0056c	e8 00 00 00 00	 call	 ??1CBitmap@@UAE@XZ	; CBitmap::~CBitmap
  00571	c6 45 fc 06	 mov	 BYTE PTR __$EHRec$[ebp+8], 6
  00575	8b 4d f0	 mov	 ecx, DWORD PTR _this$[ebp]
  00578	81 c1 04 01 00
	00		 add	 ecx, 260		; 00000104H
  0057e	e8 00 00 00 00	 call	 ??1CDC@@UAE@XZ		; CDC::~CDC
  00583	c6 45 fc 05	 mov	 BYTE PTR __$EHRec$[ebp+8], 5
  00587	8b 4d f0	 mov	 ecx, DWORD PTR _this$[ebp]
  0058a	81 c1 d8 00 00
	00		 add	 ecx, 216		; 000000d8H
  00590	e8 00 00 00 00	 call	 ??1?$deque@VCPoint@@V?$allocator@VCPoint@@@std@@@std@@QAE@XZ ; std::deque<CPoint,std::allocator<CPoint> >::~deque<CPoint,std::allocator<CPoint> >
  00595	c6 45 fc 04	 mov	 BYTE PTR __$EHRec$[ebp+8], 4
  00599	8b 4d f0	 mov	 ecx, DWORD PTR _this$[ebp]
  0059c	81 c1 b4 00 00
	00		 add	 ecx, 180		; 000000b4H
  005a2	e8 00 00 00 00	 call	 ??1CCriticalSection@@UAE@XZ ; CCriticalSection::~CCriticalSection
  005a7	c6 45 fc 03	 mov	 BYTE PTR __$EHRec$[ebp+8], 3
  005ab	8b 4d f0	 mov	 ecx, DWORD PTR _this$[ebp]
  005ae	81 c1 84 00 00
	00		 add	 ecx, 132		; 00000084H
  005b4	e8 00 00 00 00	 call	 ??1CFont@@UAE@XZ	; CFont::~CFont
  005b9	c6 45 fc 02	 mov	 BYTE PTR __$EHRec$[ebp+8], 2
  005bd	8b 4d f0	 mov	 ecx, DWORD PTR _this$[ebp]
  005c0	83 c1 7c	 add	 ecx, 124		; 0000007cH
  005c3	e8 00 00 00 00	 call	 ??1CFont@@UAE@XZ	; CFont::~CFont
  005c8	c6 45 fc 01	 mov	 BYTE PTR __$EHRec$[ebp+8], 1
  005cc	8b 4d f0	 mov	 ecx, DWORD PTR _this$[ebp]
  005cf	83 c1 70	 add	 ecx, 112		; 00000070H
  005d2	e8 00 00 00 00	 call	 ??1CBitmap@@UAE@XZ	; CBitmap::~CBitmap
  005d7	c6 45 fc 00	 mov	 BYTE PTR __$EHRec$[ebp+8], 0
  005db	8b 4d f0	 mov	 ecx, DWORD PTR _this$[ebp]
  005de	83 c1 60	 add	 ecx, 96			; 00000060H
  005e1	e8 00 00 00 00	 call	 ??1CDC@@UAE@XZ		; CDC::~CDC
  005e6	c7 45 fc ff ff
	ff ff		 mov	 DWORD PTR __$EHRec$[ebp+8], -1
  005ed	8b 4d f0	 mov	 ecx, DWORD PTR _this$[ebp]
  005f0	e8 00 00 00 00	 call	 ??1CWnd@@UAE@XZ		; CWnd::~CWnd
  005f5	8b 4d f4	 mov	 ecx, DWORD PTR __$EHRec$[ebp]
  005f8	64 89 0d 00 00
	00 00		 mov	 DWORD PTR fs:__except_list, ecx
  005ff	5e		 pop	 esi
  00600	83 c4 28	 add	 esp, 40			; 00000028H
  00603	3b ec		 cmp	 ebp, esp
  00605	e8 00 00 00 00	 call	 __RTC_CheckEsp
  0060a	8b e5		 mov	 esp, ebp
  0060c	5d		 pop	 ebp
  0060d	c3		 ret	 0
_TEXT	ENDS
text$x	SEGMENT
$L192501:
  000bf	8b 4d f0	 mov	 ecx, DWORD PTR _this$[ebp]
  000c2	e9 00 00 00 00	 jmp	 ??1CWnd@@UAE@XZ		; CWnd::~CWnd
$L192502:
  000c7	8b 4d f0	 mov	 ecx, DWORD PTR _this$[ebp]
  000ca	83 c1 60	 add	 ecx, 96			; 00000060H
  000cd	e9 00 00 00 00	 jmp	 ??1CDC@@UAE@XZ		; CDC::~CDC
$L192503:
  000d2	8b 4d f0	 mov	 ecx, DWORD PTR _this$[ebp]
  000d5	83 c1 70	 add	 ecx, 112		; 00000070H
  000d8	e9 00 00 00 00	 jmp	 ??1CBitmap@@UAE@XZ	; CBitmap::~CBitmap
$L192504:
  000dd	8b 4d f0	 mov	 ecx, DWORD PTR _this$[ebp]
  000e0	83 c1 7c	 add	 ecx, 124		; 0000007cH
  000e3	e9 00 00 00 00	 jmp	 ??1CFont@@UAE@XZ	; CFont::~CFont
$L192505:
  000e8	8b 4d f0	 mov	 ecx, DWORD PTR _this$[ebp]
  000eb	81 c1 84 00 00
	00		 add	 ecx, 132		; 00000084H
  000f1	e9 00 00 00 00	 jmp	 ??1CFont@@UAE@XZ	; CFont::~CFont
$L192506:
  000f6	8b 4d f0	 mov	 ecx, DWORD PTR _this$[ebp]
  000f9	81 c1 b4 00 00
	00		 add	 ecx, 180		; 000000b4H
  000ff	e9 00 00 00 00	 jmp	 ??1CCriticalSection@@UAE@XZ ; CCriticalSection::~CCriticalSection
$L192507:
  00104	8b 4d f0	 mov	 ecx, DWORD PTR _this$[ebp]
  00107	81 c1 d8 00 00
	00		 add	 ecx, 216		; 000000d8H
  0010d	e9 00 00 00 00	 jmp	 ??1?$deque@VCPoint@@V?$allocator@VCPoint@@@std@@@std@@QAE@XZ ; std::deque<CPoint,std::allocator<CPoint> >::~deque<CPoint,std::allocator<CPoint> >
$L192508:
  00112	8b 4d f0	 mov	 ecx, DWORD PTR _this$[ebp]
  00115	81 c1 04 01 00
	00		 add	 ecx, 260		; 00000104H
  0011b	e9 00 00 00 00	 jmp	 ??1CDC@@UAE@XZ		; CDC::~CDC
$L192509:
  00120	8b 4d f0	 mov	 ecx, DWORD PTR _this$[ebp]
  00123	81 c1 14 01 00
	00		 add	 ecx, 276		; 00000114H
  00129	e9 00 00 00 00	 jmp	 ??1CBitmap@@UAE@XZ	; CBitmap::~CBitmap
$L192510:
  0012e	8b 4d f0	 mov	 ecx, DWORD PTR _this$[ebp]
  00131	81 c1 6c 01 00
	00		 add	 ecx, 364		; 0000016cH
  00137	e9 00 00 00 00	 jmp	 ??1CLMCDataMgr@@QAE@XZ	; CLMCDataMgr::~CLMCDataMgr
__ehhandler$??1CLocalMusicCoverList@@UAE@XZ:
  0013c	b8 00 00 00 00	 mov	 eax, OFFSET FLAT:$T192512
  00141	e9 00 00 00 00	 jmp	 ___CxxFrameHandler
text$x	ENDS
??1CLocalMusicCoverList@@UAE@XZ ENDP			; CLocalMusicCoverList::~CLocalMusicCoverList
PUBLIC	?GetThisMessageMap@CLocalMusicCoverList@@KGPBUAFX_MSGMAP@@XZ ; CLocalMusicCoverList::GetThisMessageMap
; Function compile flags: /Odt /RTCsu
_TEXT	SEGMENT
?GetThisMessageMap@CLocalMusicCoverList@@KGPBUAFX_MSGMAP@@XZ PROC NEAR ; CLocalMusicCoverList::GetThisMessageMap

; 66   : BEGIN_MESSAGE_MAP(CLocalMusicCoverList, CWnd)

  00610	55		 push	 ebp
  00611	8b ec		 mov	 ebp, esp
  00613	b8 00 00 00 00	 mov	 eax, OFFSET FLAT:?messageMap@CLocalMusicCoverList@@1UAFX_MSGMAP@@B ; CLocalMusicCoverList::messageMap
  00618	5d		 pop	 ebp
  00619	c3		 ret	 0
?GetThisMessageMap@CLocalMusicCoverList@@KGPBUAFX_MSGMAP@@XZ ENDP ; CLocalMusicCoverList::GetThisMessageMap
; Function compile flags: /Odt /RTCsu
_this$ = -4						; size = 4
?GetMessageMap@CLocalMusicCoverList@@MBEPBUAFX_MSGMAP@@XZ PROC NEAR ; CLocalMusicCoverList::GetMessageMap
; _this$ = ecx

; 66   : BEGIN_MESSAGE_MAP(CLocalMusicCoverList, CWnd)

  00620	55		 push	 ebp
  00621	8b ec		 mov	 ebp, esp
  00623	51		 push	 ecx
  00624	c7 45 fc cc cc
	cc cc		 mov	 DWORD PTR [ebp-4], -858993460 ; ccccccccH
  0062b	89 4d fc	 mov	 DWORD PTR _this$[ebp], ecx
  0062e	b8 00 00 00 00	 mov	 eax, OFFSET FLAT:?messageMap@CLocalMusicCoverList@@1UAFX_MSGMAP@@B ; CLocalMusicCoverList::messageMap
  00633	8b e5		 mov	 esp, ebp
  00635	5d		 pop	 ebp
  00636	c3		 ret	 0
?GetMessageMap@CLocalMusicCoverList@@MBEPBUAFX_MSGMAP@@XZ ENDP ; CLocalMusicCoverList::GetMessageMap
_TEXT	ENDS
PUBLIC	?_AtlGetConversionACP@ATL@@YGIXZ		; ATL::_AtlGetConversionACP
PUBLIC	?AtlA2WHelper@@YGPA_WPA_WPBDHI@Z		; AtlA2WHelper
PUBLIC	??0Image@Gdiplus@@QAE@PB_WH@Z			; Gdiplus::Image::Image
PUBLIC	??1Image@Gdiplus@@UAE@XZ			; Gdiplus::Image::~Image
PUBLIC	?Clone@Image@Gdiplus@@UAEPAV12@XZ		; Gdiplus::Image::Clone
EXTRN	__alloca_probe:NEAR
EXTRN	___security_cookie:DWORD
EXTRN	@__security_check_cookie@4:NEAR
EXTRN	__imp_?Mid@?$CStringT@DV?$StrTraitMFC_DLL@DV?$ChTraitsCRT@D@ATL@@@@@ATL@@QBE?AV12@HH@Z:NEAR
EXTRN	__imp__lstrlenA@4:NEAR
EXTRN	?OnCreate@CWnd@@IAEHPAUtagCREATESTRUCTA@@@Z:NEAR ; CWnd::OnCreate
EXTRN	?CreateFontA@CFont@@QAEHHHHHHEEEEEEEEPBD@Z:NEAR	; CFont::CreateFontA
EXTRN	??0CClientDC@@QAE@PAVCWnd@@@Z:NEAR		; CClientDC::CClientDC
EXTRN	??1CClientDC@@UAE@XZ:NEAR			; CClientDC::~CClientDC
EXTRN	__imp__GetModuleFileNameA@12:NEAR
EXTRN	__imp_??B?$CSimpleStringT@D$00@ATL@@QBEPBDXZ:NEAR
EXTRN	?CreateCompatibleDC@CDC@@QAEHPAV1@@Z:NEAR	; CDC::CreateCompatibleDC
EXTRN	?SetTimer@CWnd@@QAEIIIP6GXPAUHWND__@@IIK@Z@Z:NEAR ; CWnd::SetTimer
EXTRN	__imp_??0?$CStringT@DV?$StrTraitMFC_DLL@DV?$ChTraitsCRT@D@ATL@@@@@ATL@@QAE@PBD@Z:NEAR
EXTRN	__imp_??1?$CStringT@DV?$StrTraitMFC_DLL@DV?$ChTraitsCRT@D@ATL@@@@@ATL@@QAE@XZ:NEAR
EXTRN	__imp_??4?$CStringT@DV?$StrTraitMFC_DLL@DV?$ChTraitsCRT@D@ATL@@@@@ATL@@QAEAAV01@ABV01@@Z:NEAR
EXTRN	__imp_??Y?$CStringT@DV?$StrTraitMFC_DLL@DV?$ChTraitsCRT@D@ATL@@@@@ATL@@QAEAAV01@PBD@Z:NEAR
EXTRN	__imp_?ReverseFind@?$CStringT@DV?$StrTraitMFC_DLL@DV?$ChTraitsCRT@D@ATL@@@@@ATL@@QBEHD@Z:NEAR
xdata$x	SEGMENT
$T192540 DD	0ffffffffH
	DD	FLAT:$L192523
	DD	00H
	DD	FLAT:$L192524
	DD	01H
	DD	FLAT:$L192525
	DD	01H
	DD	FLAT:$L192526
$T192528 DD	019930520H
	DD	04H
	DD	FLAT:$T192540
	DD	2 DUP(00H)
	DD	2 DUP(00H)
; Function compile flags: /Odt /RTCsu
xdata$x	ENDS
_TEXT	SEGMENT
tv195 = -392						; size = 4
tv199 = -388						; size = 4
tv208 = -384						; size = 4
tv213 = -380						; size = 4
$T192522 = -376						; size = 4
$T192519 = -372						; size = 4
_imgFrame$ = -364					; size = 16
__lpa$ = -344						; size = 4
__lpw$ = -340						; size = 4
__acp$ = -336						; size = 4
__convert$ = -332					; size = 4
_strFrameImg$ = -324					; size = 4
_path_tmp$ = -312					; size = 260
_dc$ = -44						; size = 20
_this$ = -20						; size = 4
__$ArrayPad$ = -16					; size = 4
__$EHRec$ = -12						; size = 12
__$ReturnAddr$ = 4					; size = 4
_lpCreateStruct$ = 8					; size = 4
?OnCreate@CLocalMusicCoverList@@IAEHPAUtagCREATESTRUCTA@@@Z PROC NEAR ; CLocalMusicCoverList::OnCreate
; _this$ = ecx

; 89   : {

  00640	55		 push	 ebp
  00641	8b ec		 mov	 ebp, esp
  00643	6a ff		 push	 -1
  00645	68 00 00 00 00	 push	 __ehhandler$?OnCreate@CLocalMusicCoverList@@IAEHPAUtagCREATESTRUCTA@@@Z
  0064a	64 a1 00 00 00
	00		 mov	 eax, DWORD PTR fs:__except_list
  00650	50		 push	 eax
  00651	64 89 25 00 00
	00 00		 mov	 DWORD PTR fs:__except_list, esp
  00658	81 ec 7c 01 00
	00		 sub	 esp, 380		; 0000017cH
  0065e	56		 push	 esi
  0065f	57		 push	 edi
  00660	51		 push	 ecx
  00661	8d bd 78 fe ff
	ff		 lea	 edi, DWORD PTR [ebp-392]
  00667	b9 5f 00 00 00	 mov	 ecx, 95			; 0000005fH
  0066c	b8 cc cc cc cc	 mov	 eax, -858993460		; ccccccccH
  00671	f3 ab		 rep stosd
  00673	59		 pop	 ecx
  00674	a1 00 00 00 00	 mov	 eax, DWORD PTR ___security_cookie
  00679	89 45 f0	 mov	 DWORD PTR __$ArrayPad$[ebp], eax
  0067c	89 4d ec	 mov	 DWORD PTR _this$[ebp], ecx

; 90   : 	if (CWnd::OnCreate(lpCreateStruct) == -1)

  0067f	8b 45 08	 mov	 eax, DWORD PTR _lpCreateStruct$[ebp]
  00682	50		 push	 eax
  00683	8b 4d ec	 mov	 ecx, DWORD PTR _this$[ebp]
  00686	e8 00 00 00 00	 call	 ?OnCreate@CWnd@@IAEHPAUtagCREATESTRUCTA@@@Z ; CWnd::OnCreate
  0068b	83 f8 ff	 cmp	 eax, -1
  0068e	75 08		 jne	 SHORT $L189576

; 91   : 		return -1;

  00690	83 c8 ff	 or	 eax, -1
  00693	e9 ec 02 00 00	 jmp	 $L189575
$L189576:

; 92   : 	// 
; 93   : 	CClientDC dc(this);

  00698	8b 4d ec	 mov	 ecx, DWORD PTR _this$[ebp]
  0069b	51		 push	 ecx
  0069c	8d 4d d4	 lea	 ecx, DWORD PTR _dc$[ebp]
  0069f	e8 00 00 00 00	 call	 ??0CClientDC@@QAE@PAVCWnd@@@Z ; CClientDC::CClientDC
  006a4	c7 45 fc 00 00
	00 00		 mov	 DWORD PTR __$EHRec$[ebp+8], 0

; 94   : 	m_dcMem.CreateCompatibleDC(&dc);

  006ab	8d 55 d4	 lea	 edx, DWORD PTR _dc$[ebp]
  006ae	52		 push	 edx
  006af	8b 4d ec	 mov	 ecx, DWORD PTR _this$[ebp]
  006b2	83 c1 60	 add	 ecx, 96			; 00000060H
  006b5	e8 00 00 00 00	 call	 ?CreateCompatibleDC@CDC@@QAEHPAV1@@Z ; CDC::CreateCompatibleDC

; 95   : 	m_dcTracker.CreateCompatibleDC(&dc);

  006ba	8d 45 d4	 lea	 eax, DWORD PTR _dc$[ebp]
  006bd	50		 push	 eax
  006be	8b 4d ec	 mov	 ecx, DWORD PTR _this$[ebp]
  006c1	81 c1 04 01 00
	00		 add	 ecx, 260		; 00000104H
  006c7	e8 00 00 00 00	 call	 ?CreateCompatibleDC@CDC@@QAEHPAV1@@Z ; CDC::CreateCompatibleDC

; 96   : 	m_fName.CreateFont(12, 0, 0, 0, FW_BOLD , FALSE, FALSE, 0, ANSI_CHARSET, OUT_DEFAULT_PRECIS, CLIP_DEFAULT_PRECIS, DEFAULT_QUALITY, DEFAULT_PITCH | FF_SWISS, _T(""));

  006cc	68 00 00 00 00	 push	 OFFSET FLAT:$SG189578
  006d1	6a 20		 push	 32			; 00000020H
  006d3	6a 00		 push	 0
  006d5	6a 00		 push	 0
  006d7	6a 00		 push	 0
  006d9	6a 00		 push	 0
  006db	6a 00		 push	 0
  006dd	6a 00		 push	 0
  006df	6a 00		 push	 0
  006e1	68 bc 02 00 00	 push	 700			; 000002bcH
  006e6	6a 00		 push	 0
  006e8	6a 00		 push	 0
  006ea	6a 00		 push	 0
  006ec	6a 0c		 push	 12			; 0000000cH
  006ee	8b 4d ec	 mov	 ecx, DWORD PTR _this$[ebp]
  006f1	83 c1 7c	 add	 ecx, 124		; 0000007cH
  006f4	e8 00 00 00 00	 call	 ?CreateFontA@CFont@@QAEHHHHHHEEEEEEEEPBD@Z ; CFont::CreateFontA

; 97   : 	m_fDeInfo.CreateFont(12, 0, 0, 0, FW_NORMAL , FALSE, FALSE, 0, ANSI_CHARSET, OUT_DEFAULT_PRECIS, CLIP_DEFAULT_PRECIS, DEFAULT_QUALITY, DEFAULT_PITCH | FF_SWISS, _T(""));

  006f9	68 00 00 00 00	 push	 OFFSET FLAT:$SG189579
  006fe	6a 20		 push	 32			; 00000020H
  00700	6a 00		 push	 0
  00702	6a 00		 push	 0
  00704	6a 00		 push	 0
  00706	6a 00		 push	 0
  00708	6a 00		 push	 0
  0070a	6a 00		 push	 0
  0070c	6a 00		 push	 0
  0070e	68 90 01 00 00	 push	 400			; 00000190H
  00713	6a 00		 push	 0
  00715	6a 00		 push	 0
  00717	6a 00		 push	 0
  00719	6a 0c		 push	 12			; 0000000cH
  0071b	8b 4d ec	 mov	 ecx, DWORD PTR _this$[ebp]
  0071e	81 c1 84 00 00
	00		 add	 ecx, 132		; 00000084H
  00724	e8 00 00 00 00	 call	 ?CreateFontA@CFont@@QAEHHHHHHEEEEEEEEPBD@Z ; CFont::CreateFontA

; 98   : 	// 
; 99   : 	m_vScrollTimer = SetTimer(100,1,NULL);

  00729	6a 00		 push	 0
  0072b	6a 01		 push	 1
  0072d	6a 64		 push	 100			; 00000064H
  0072f	8b 4d ec	 mov	 ecx, DWORD PTR _this$[ebp]
  00732	e8 00 00 00 00	 call	 ?SetTimer@CWnd@@QAEIIIP6GXPAUHWND__@@IIK@Z@Z ; CWnd::SetTimer
  00737	8b 4d ec	 mov	 ecx, DWORD PTR _this$[ebp]
  0073a	89 81 ec 00 00
	00		 mov	 DWORD PTR [ecx+236], eax

; 100  : 	// 
; 101  : 	m_bf.BlendOp = AC_SRC_OVER; 

  00740	8b 55 ec	 mov	 edx, DWORD PTR _this$[ebp]
  00743	c6 82 28 01 00
	00 00		 mov	 BYTE PTR [edx+296], 0

; 102  : 	m_bf.BlendFlags = 0; 

  0074a	8b 45 ec	 mov	 eax, DWORD PTR _this$[ebp]
  0074d	c6 80 29 01 00
	00 00		 mov	 BYTE PTR [eax+297], 0

; 103  : 	m_bf.AlphaFormat = 0; 

  00754	8b 4d ec	 mov	 ecx, DWORD PTR _this$[ebp]
  00757	c6 81 2b 01 00
	00 00		 mov	 BYTE PTR [ecx+299], 0

; 104  : 	m_bf.SourceConstantAlpha = 50; 

  0075e	8b 55 ec	 mov	 edx, DWORD PTR _this$[ebp]
  00761	c6 82 2a 01 00
	00 32		 mov	 BYTE PTR [edx+298], 50	; 00000032H

; 105  : 
; 106  : 	TCHAR path_tmp[MAX_PATH]={0};

  00768	c6 85 c8 fe ff
	ff 00		 mov	 BYTE PTR _path_tmp$[ebp], 0
  0076f	b9 40 00 00 00	 mov	 ecx, 64			; 00000040H
  00774	33 c0		 xor	 eax, eax
  00776	8d bd c9 fe ff
	ff		 lea	 edi, DWORD PTR _path_tmp$[ebp+1]
  0077c	f3 ab		 rep stosd
  0077e	66 ab		 stosw
  00780	aa		 stosb

; 107  : 	::GetModuleFileName(NULL,path_tmp,MAX_PATH);

  00781	8b f4		 mov	 esi, esp
  00783	68 04 01 00 00	 push	 260			; 00000104H
  00788	8d 85 c8 fe ff
	ff		 lea	 eax, DWORD PTR _path_tmp$[ebp]
  0078e	50		 push	 eax
  0078f	6a 00		 push	 0
  00791	ff 15 00 00 00
	00		 call	 DWORD PTR __imp__GetModuleFileNameA@12
  00797	3b f4		 cmp	 esi, esp
  00799	e8 00 00 00 00	 call	 __RTC_CheckEsp

; 108  : 	CString strFrameImg(path_tmp);

  0079e	8b f4		 mov	 esi, esp
  007a0	8d 8d c8 fe ff
	ff		 lea	 ecx, DWORD PTR _path_tmp$[ebp]
  007a6	51		 push	 ecx
  007a7	8d 8d bc fe ff
	ff		 lea	 ecx, DWORD PTR _strFrameImg$[ebp]
  007ad	ff 15 00 00 00
	00		 call	 DWORD PTR __imp_??0?$CStringT@DV?$StrTraitMFC_DLL@DV?$ChTraitsCRT@D@ATL@@@@@ATL@@QAE@PBD@Z
  007b3	3b f4		 cmp	 esi, esp
  007b5	e8 00 00 00 00	 call	 __RTC_CheckEsp
  007ba	c6 45 fc 01	 mov	 BYTE PTR __$EHRec$[ebp+8], 1

; 109  : 	strFrameImg=strFrameImg.Mid(0,strFrameImg.ReverseFind('\\'));

  007be	8b f4		 mov	 esi, esp
  007c0	6a 5c		 push	 92			; 0000005cH
  007c2	8d 8d bc fe ff
	ff		 lea	 ecx, DWORD PTR _strFrameImg$[ebp]
  007c8	ff 15 00 00 00
	00		 call	 DWORD PTR __imp_?ReverseFind@?$CStringT@DV?$StrTraitMFC_DLL@DV?$ChTraitsCRT@D@ATL@@@@@ATL@@QBEHD@Z
  007ce	3b f4		 cmp	 esi, esp
  007d0	e8 00 00 00 00	 call	 __RTC_CheckEsp
  007d5	8b f4		 mov	 esi, esp
  007d7	50		 push	 eax
  007d8	6a 00		 push	 0
  007da	8d 95 8c fe ff
	ff		 lea	 edx, DWORD PTR $T192519[ebp]
  007e0	52		 push	 edx
  007e1	8d 8d bc fe ff
	ff		 lea	 ecx, DWORD PTR _strFrameImg$[ebp]
  007e7	ff 15 00 00 00
	00		 call	 DWORD PTR __imp_?Mid@?$CStringT@DV?$StrTraitMFC_DLL@DV?$ChTraitsCRT@D@ATL@@@@@ATL@@QBE?AV12@HH@Z
  007ed	3b f4		 cmp	 esi, esp
  007ef	e8 00 00 00 00	 call	 __RTC_CheckEsp
  007f4	89 85 84 fe ff
	ff		 mov	 DWORD PTR tv213[ebp], eax
  007fa	8b 85 84 fe ff
	ff		 mov	 eax, DWORD PTR tv213[ebp]
  00800	89 85 80 fe ff
	ff		 mov	 DWORD PTR tv208[ebp], eax
  00806	c6 45 fc 02	 mov	 BYTE PTR __$EHRec$[ebp+8], 2
  0080a	8b f4		 mov	 esi, esp
  0080c	8b 8d 80 fe ff
	ff		 mov	 ecx, DWORD PTR tv208[ebp]
  00812	51		 push	 ecx
  00813	8d 8d bc fe ff
	ff		 lea	 ecx, DWORD PTR _strFrameImg$[ebp]
  00819	ff 15 00 00 00
	00		 call	 DWORD PTR __imp_??4?$CStringT@DV?$StrTraitMFC_DLL@DV?$ChTraitsCRT@D@ATL@@@@@ATL@@QAEAAV01@ABV01@@Z
  0081f	3b f4		 cmp	 esi, esp
  00821	e8 00 00 00 00	 call	 __RTC_CheckEsp
  00826	c6 45 fc 01	 mov	 BYTE PTR __$EHRec$[ebp+8], 1
  0082a	8b f4		 mov	 esi, esp
  0082c	8d 8d 8c fe ff
	ff		 lea	 ecx, DWORD PTR $T192519[ebp]
  00832	ff 15 00 00 00
	00		 call	 DWORD PTR __imp_??1?$CStringT@DV?$StrTraitMFC_DLL@DV?$ChTraitsCRT@D@ATL@@@@@ATL@@QAE@XZ
  00838	3b f4		 cmp	 esi, esp
  0083a	e8 00 00 00 00	 call	 __RTC_CheckEsp

; 110  : 	strFrameImg+="\\Resources\\StandardUI\\IconBorder.png";

  0083f	8b f4		 mov	 esi, esp
  00841	68 00 00 00 00	 push	 OFFSET FLAT:$SG189583
  00846	8d 8d bc fe ff
	ff		 lea	 ecx, DWORD PTR _strFrameImg$[ebp]
  0084c	ff 15 00 00 00
	00		 call	 DWORD PTR __imp_??Y?$CStringT@DV?$StrTraitMFC_DLL@DV?$ChTraitsCRT@D@ATL@@@@@ATL@@QAEAAV01@PBD@Z
  00852	3b f4		 cmp	 esi, esp
  00854	e8 00 00 00 00	 call	 __RTC_CheckEsp

; 111  : 	USES_CONVERSION;

  00859	c7 85 b4 fe ff
	ff 00 00 00 00	 mov	 DWORD PTR __convert$[ebp], 0
  00863	e8 00 00 00 00	 call	 ?_AtlGetConversionACP@ATL@@YGIXZ ; ATL::_AtlGetConversionACP
  00868	89 85 b0 fe ff
	ff		 mov	 DWORD PTR __acp$[ebp], eax
  0086e	c7 85 ac fe ff
	ff 00 00 00 00	 mov	 DWORD PTR __lpw$[ebp], 0
  00878	c7 85 a8 fe ff
	ff 00 00 00 00	 mov	 DWORD PTR __lpa$[ebp], 0

; 112  : 	Image imgFrame(A2W(strFrameImg));

  00882	8b f4		 mov	 esi, esp
  00884	8d 8d bc fe ff
	ff		 lea	 ecx, DWORD PTR _strFrameImg$[ebp]
  0088a	ff 15 00 00 00
	00		 call	 DWORD PTR __imp_??B?$CSimpleStringT@D$00@ATL@@QBEPBDXZ
  00890	3b f4		 cmp	 esi, esp
  00892	e8 00 00 00 00	 call	 __RTC_CheckEsp
  00897	89 85 a8 fe ff
	ff		 mov	 DWORD PTR __lpa$[ebp], eax
  0089d	83 bd a8 fe ff
	ff 00		 cmp	 DWORD PTR __lpa$[ebp], 0
  008a4	75 0c		 jne	 SHORT $L192520
  008a6	c7 85 7c fe ff
	ff 00 00 00 00	 mov	 DWORD PTR tv199[ebp], 0
  008b0	eb 5f		 jmp	 SHORT $L192521
$L192520:
  008b2	8b f4		 mov	 esi, esp
  008b4	8b 95 a8 fe ff
	ff		 mov	 edx, DWORD PTR __lpa$[ebp]
  008ba	52		 push	 edx
  008bb	ff 15 00 00 00
	00		 call	 DWORD PTR __imp__lstrlenA@4
  008c1	3b f4		 cmp	 esi, esp
  008c3	e8 00 00 00 00	 call	 __RTC_CheckEsp
  008c8	83 c0 01	 add	 eax, 1
  008cb	89 85 b4 fe ff
	ff		 mov	 DWORD PTR __convert$[ebp], eax
  008d1	8b 85 b4 fe ff
	ff		 mov	 eax, DWORD PTR __convert$[ebp]
  008d7	d1 e0		 shl	 eax, 1
  008d9	83 c0 03	 add	 eax, 3
  008dc	83 e0 fc	 and	 eax, -4			; fffffffcH
  008df	e8 00 00 00 00	 call	 __alloca_probe
  008e4	89 a5 78 fe ff
	ff		 mov	 DWORD PTR tv195[ebp], esp
  008ea	8b 85 b0 fe ff
	ff		 mov	 eax, DWORD PTR __acp$[ebp]
  008f0	50		 push	 eax
  008f1	8b 8d b4 fe ff
	ff		 mov	 ecx, DWORD PTR __convert$[ebp]
  008f7	51		 push	 ecx
  008f8	8b 95 a8 fe ff
	ff		 mov	 edx, DWORD PTR __lpa$[ebp]
  008fe	52		 push	 edx
  008ff	8b 85 78 fe ff
	ff		 mov	 eax, DWORD PTR tv195[ebp]
  00905	50		 push	 eax
  00906	e8 00 00 00 00	 call	 ?AtlA2WHelper@@YGPA_WPA_WPBDHI@Z ; AtlA2WHelper
  0090b	89 85 7c fe ff
	ff		 mov	 DWORD PTR tv199[ebp], eax
$L192521:
  00911	6a 00		 push	 0
  00913	8b 8d 7c fe ff
	ff		 mov	 ecx, DWORD PTR tv199[ebp]
  00919	51		 push	 ecx
  0091a	8d 8d 94 fe ff
	ff		 lea	 ecx, DWORD PTR _imgFrame$[ebp]
  00920	e8 00 00 00 00	 call	 ??0Image@Gdiplus@@QAE@PB_WH@Z ; Gdiplus::Image::Image
  00925	c6 45 fc 03	 mov	 BYTE PTR __$EHRec$[ebp+8], 3

; 113  : 	pImageFrame=imgFrame.Clone();

  00929	8d 8d 94 fe ff
	ff		 lea	 ecx, DWORD PTR _imgFrame$[ebp]
  0092f	e8 00 00 00 00	 call	 ?Clone@Image@Gdiplus@@UAEPAV12@XZ ; Gdiplus::Image::Clone
  00934	8b 55 ec	 mov	 edx, DWORD PTR _this$[ebp]
  00937	89 82 64 01 00
	00		 mov	 DWORD PTR [edx+356], eax

; 114  : 	return 0;

  0093d	c7 85 88 fe ff
	ff 00 00 00 00	 mov	 DWORD PTR $T192522[ebp], 0
  00947	c6 45 fc 01	 mov	 BYTE PTR __$EHRec$[ebp+8], 1
  0094b	8d 8d 94 fe ff
	ff		 lea	 ecx, DWORD PTR _imgFrame$[ebp]
  00951	e8 00 00 00 00	 call	 ??1Image@Gdiplus@@UAE@XZ ; Gdiplus::Image::~Image
  00956	c6 45 fc 00	 mov	 BYTE PTR __$EHRec$[ebp+8], 0
  0095a	8b f4		 mov	 esi, esp
  0095c	8d 8d bc fe ff
	ff		 lea	 ecx, DWORD PTR _strFrameImg$[ebp]
  00962	ff 15 00 00 00
	00		 call	 DWORD PTR __imp_??1?$CStringT@DV?$StrTraitMFC_DLL@DV?$ChTraitsCRT@D@ATL@@@@@ATL@@QAE@XZ
  00968	3b f4		 cmp	 esi, esp
  0096a	e8 00 00 00 00	 call	 __RTC_CheckEsp
  0096f	c7 45 fc ff ff
	ff ff		 mov	 DWORD PTR __$EHRec$[ebp+8], -1
  00976	8d 4d d4	 lea	 ecx, DWORD PTR _dc$[ebp]
  00979	e8 00 00 00 00	 call	 ??1CClientDC@@UAE@XZ	; CClientDC::~CClientDC
  0097e	8b 85 88 fe ff
	ff		 mov	 eax, DWORD PTR $T192522[ebp]
$L189575:

; 115  : }

  00984	8d a5 70 fe ff
	ff		 lea	 esp, DWORD PTR [ebp-400]
  0098a	52		 push	 edx
  0098b	8b cd		 mov	 ecx, ebp
  0098d	50		 push	 eax
  0098e	8d 15 00 00 00
	00		 lea	 edx, DWORD PTR $L192538
  00994	e8 00 00 00 00	 call	 @_RTC_CheckStackVars@8
  00999	58		 pop	 eax
  0099a	5a		 pop	 edx
  0099b	8b 4d f4	 mov	 ecx, DWORD PTR __$EHRec$[ebp]
  0099e	64 89 0d 00 00
	00 00		 mov	 DWORD PTR fs:__except_list, ecx
  009a5	8b 4d f0	 mov	 ecx, DWORD PTR __$ArrayPad$[ebp]
  009a8	e8 00 00 00 00	 call	 @__security_check_cookie@4
  009ad	5f		 pop	 edi
  009ae	5e		 pop	 esi
  009af	8b e5		 mov	 esp, ebp
  009b1	5d		 pop	 ebp
  009b2	c2 04 00	 ret	 4
$L192538:
  009b5	04 00 00 00	 DD	 4
  009b9	00 00 00 00	 DD	 $L192537
$L192537:
  009bd	d4 ff ff ff	 DD	 -44			; ffffffd4H
  009c1	14 00 00 00	 DD	 20			; 00000014H
  009c5	00 00 00 00	 DD	 $L192530
  009c9	c8 fe ff ff	 DD	 -312			; fffffec8H
  009cd	04 01 00 00	 DD	 260			; 00000104H
  009d1	00 00 00 00	 DD	 $L192531
  009d5	bc fe ff ff	 DD	 -324			; fffffebcH
  009d9	04 00 00 00	 DD	 4
  009dd	00 00 00 00	 DD	 $L192532
  009e1	94 fe ff ff	 DD	 -364			; fffffe94H
  009e5	10 00 00 00	 DD	 16			; 00000010H
  009e9	00 00 00 00	 DD	 $L192533
$L192533:
  009ed	69		 DB	 105			; 00000069H
  009ee	6d		 DB	 109			; 0000006dH
  009ef	67		 DB	 103			; 00000067H
  009f0	46		 DB	 70			; 00000046H
  009f1	72		 DB	 114			; 00000072H
  009f2	61		 DB	 97			; 00000061H
  009f3	6d		 DB	 109			; 0000006dH
  009f4	65		 DB	 101			; 00000065H
  009f5	00		 DB	 0
$L192532:
  009f6	73		 DB	 115			; 00000073H
  009f7	74		 DB	 116			; 00000074H
  009f8	72		 DB	 114			; 00000072H
  009f9	46		 DB	 70			; 00000046H
  009fa	72		 DB	 114			; 00000072H
  009fb	61		 DB	 97			; 00000061H
  009fc	6d		 DB	 109			; 0000006dH
  009fd	65		 DB	 101			; 00000065H
  009fe	49		 DB	 73			; 00000049H
  009ff	6d		 DB	 109			; 0000006dH
  00a00	67		 DB	 103			; 00000067H
  00a01	00		 DB	 0
$L192531:
  00a02	70		 DB	 112			; 00000070H
  00a03	61		 DB	 97			; 00000061H
  00a04	74		 DB	 116			; 00000074H
  00a05	68		 DB	 104			; 00000068H
  00a06	5f		 DB	 95			; 0000005fH
  00a07	74		 DB	 116			; 00000074H
  00a08	6d		 DB	 109			; 0000006dH
  00a09	70		 DB	 112			; 00000070H
  00a0a	00		 DB	 0
$L192530:
  00a0b	64		 DB	 100			; 00000064H
  00a0c	63		 DB	 99			; 00000063H
  00a0d	00		 DB	 0
_TEXT	ENDS
text$x	SEGMENT
$L192523:
  00146	8d 4d d4	 lea	 ecx, DWORD PTR _dc$[ebp]
  00149	e9 00 00 00 00	 jmp	 ??1CClientDC@@UAE@XZ	; CClientDC::~CClientDC
$L192524:
  0014e	8b f4		 mov	 esi, esp
  00150	8d 8d bc fe ff
	ff		 lea	 ecx, DWORD PTR _strFrameImg$[ebp]
  00156	ff 15 00 00 00
	00		 call	 DWORD PTR __imp_??1?$CStringT@DV?$StrTraitMFC_DLL@DV?$ChTraitsCRT@D@ATL@@@@@ATL@@QAE@XZ
  0015c	3b f4		 cmp	 esi, esp
  0015e	e9 00 00 00 00	 jmp	 __RTC_CheckEsp
$L192525:
  00163	8b f4		 mov	 esi, esp
  00165	8d 8d 8c fe ff
	ff		 lea	 ecx, DWORD PTR $T192519[ebp]
  0016b	ff 15 00 00 00
	00		 call	 DWORD PTR __imp_??1?$CStringT@DV?$StrTraitMFC_DLL@DV?$ChTraitsCRT@D@ATL@@@@@ATL@@QAE@XZ
  00171	3b f4		 cmp	 esi, esp
  00173	e9 00 00 00 00	 jmp	 __RTC_CheckEsp
$L192526:
  00178	8d 8d 94 fe ff
	ff		 lea	 ecx, DWORD PTR _imgFrame$[ebp]
  0017e	e9 00 00 00 00	 jmp	 ??1Image@Gdiplus@@UAE@XZ ; Gdiplus::Image::~Image
__ehhandler$?OnCreate@CLocalMusicCoverList@@IAEHPAUtagCREATESTRUCTA@@@Z:
  00183	b8 00 00 00 00	 mov	 eax, OFFSET FLAT:$T192528
  00188	e9 00 00 00 00	 jmp	 ___CxxFrameHandler
text$x	ENDS
?OnCreate@CLocalMusicCoverList@@IAEHPAUtagCREATESTRUCTA@@@Z ENDP ; CLocalMusicCoverList::OnCreate
EXTRN	?OnEraseBkgnd@CWnd@@IAEHPAVCDC@@@Z:NEAR		; CWnd::OnEraseBkgnd
; Function compile flags: /Odt /RTCsu
_TEXT	SEGMENT
_this$ = -4						; size = 4
_pDC$ = 8						; size = 4
?OnEraseBkgnd@CLocalMusicCoverList@@IAEHPAVCDC@@@Z PROC NEAR ; CLocalMusicCoverList::OnEraseBkgnd
; _this$ = ecx

; 118  : {

  00a10	55		 push	 ebp
  00a11	8b ec		 mov	 ebp, esp
  00a13	51		 push	 ecx
  00a14	c7 45 fc cc cc
	cc cc		 mov	 DWORD PTR [ebp-4], -858993460 ; ccccccccH
  00a1b	89 4d fc	 mov	 DWORD PTR _this$[ebp], ecx

; 119  : 	return CWnd::OnEraseBkgnd(pDC);

  00a1e	8b 45 08	 mov	 eax, DWORD PTR _pDC$[ebp]
  00a21	50		 push	 eax
  00a22	8b 4d fc	 mov	 ecx, DWORD PTR _this$[ebp]
  00a25	e8 00 00 00 00	 call	 ?OnEraseBkgnd@CWnd@@IAEHPAVCDC@@@Z ; CWnd::OnEraseBkgnd

; 120  : }

  00a2a	83 c4 04	 add	 esp, 4
  00a2d	3b ec		 cmp	 ebp, esp
  00a2f	e8 00 00 00 00	 call	 __RTC_CheckEsp
  00a34	8b e5		 mov	 esp, ebp
  00a36	5d		 pop	 ebp
  00a37	c2 04 00	 ret	 4
?OnEraseBkgnd@CLocalMusicCoverList@@IAEHPAVCDC@@@Z ENDP	; CLocalMusicCoverList::OnEraseBkgnd
_TEXT	ENDS
EXTRN	__ftol2:NEAR
EXTRN	__fltused:NEAR
EXTRN	?BitBlt@CDC@@QAEHHHHHPAV1@HHK@Z:NEAR		; CDC::BitBlt
EXTRN	??0CSize@@QAE@HH@Z:NEAR				; CSize::CSize
EXTRN	??0CPaintDC@@QAE@PAVCWnd@@@Z:NEAR		; CPaintDC::CPaintDC
EXTRN	??1CPaintDC@@UAE@XZ:NEAR			; CPaintDC::~CPaintDC
EXTRN	??0CRect@@QAE@XZ:NEAR				; CRect::CRect
EXTRN	?Width@CRect@@QBEHXZ:NEAR			; CRect::Width
EXTRN	?Height@CRect@@QBEHXZ:NEAR			; CRect::Height
EXTRN	?GetWidth@CDibBitmap@@QAEHXZ:NEAR		; CDibBitmap::GetWidth
EXTRN	?GetHeight@CDibBitmap@@QAEHXZ:NEAR		; CDibBitmap::GetHeight
EXTRN	?GetClientRect@CWnd@@QBEXPAUtagRECT@@@Z:NEAR	; CWnd::GetClientRect
EXTRN	_InitializeCoolSB@4:NEAR
EXTRN	_CoolSB_SetMinThumbSize@12:NEAR
EXTRN	_CoolSB_SetScrollPos@16:NEAR
EXTRN	_CoolSB_SetSize@16:NEAR
EXTRN	_CoolSB_SetStyle@12:NEAR
xdata$x	SEGMENT
$T192556 DD	0ffffffffH
	DD	FLAT:$L192544
$T192546 DD	019930520H
	DD	01H
	DD	FLAT:$T192556
	DD	2 DUP(00H)
	DD	2 DUP(00H)
; Function compile flags: /Odt /RTCsu
xdata$x	ENDS
_TEXT	SEGMENT
tv274 = -228						; size = 4
tv271 = -224						; size = 4
tv268 = -220						; size = 4
tv263 = -216						; size = 4
tv262 = -212						; size = 4
tv259 = -208						; size = 4
tv258 = -204						; size = 4
tv255 = -200						; size = 4
tv250 = -196						; size = 4
tv249 = -192						; size = 4
tv246 = -188						; size = 4
tv245 = -184						; size = 4
tv242 = -180						; size = 4
_sz$ = -172						; size = 8
_rcClient$ = -156					; size = 16
_dc$ = -132						; size = 84
_nPos$189609 = -44					; size = 4
_fper$189607 = -40					; size = 4
_realhight$189605 = -36					; size = 4
_lenVbar$189603 = -32					; size = 4
_h$189600 = -28						; size = 4
_w$189599 = -24						; size = 4
_this$ = -20						; size = 4
__$ArrayPad$ = -16					; size = 4
__$EHRec$ = -12						; size = 12
__$ReturnAddr$ = 4					; size = 4
?OnPaint@CLocalMusicCoverList@@IAEXXZ PROC NEAR		; CLocalMusicCoverList::OnPaint
; _this$ = ecx

; 123  : {

  00a40	55		 push	 ebp
  00a41	8b ec		 mov	 ebp, esp
  00a43	6a ff		 push	 -1
  00a45	68 00 00 00 00	 push	 __ehhandler$?OnPaint@CLocalMusicCoverList@@IAEXXZ
  00a4a	64 a1 00 00 00
	00		 mov	 eax, DWORD PTR fs:__except_list
  00a50	50		 push	 eax
  00a51	64 89 25 00 00
	00 00		 mov	 DWORD PTR fs:__except_list, esp
  00a58	81 ec d8 00 00
	00		 sub	 esp, 216		; 000000d8H
  00a5e	56		 push	 esi
  00a5f	57		 push	 edi
  00a60	51		 push	 ecx
  00a61	8d bd 1c ff ff
	ff		 lea	 edi, DWORD PTR [ebp-228]
  00a67	b9 36 00 00 00	 mov	 ecx, 54			; 00000036H
  00a6c	b8 cc cc cc cc	 mov	 eax, -858993460		; ccccccccH
  00a71	f3 ab		 rep stosd
  00a73	59		 pop	 ecx
  00a74	a1 00 00 00 00	 mov	 eax, DWORD PTR ___security_cookie
  00a79	89 45 f0	 mov	 DWORD PTR __$ArrayPad$[ebp], eax
  00a7c	89 4d ec	 mov	 DWORD PTR _this$[ebp], ecx

; 124  : 	if(!m_bInit )

  00a7f	8b 45 ec	 mov	 eax, DWORD PTR _this$[ebp]
  00a82	0f b6 88 5c 01
	00 00		 movzx	 ecx, BYTE PTR [eax+348]
  00a89	85 c9		 test	 ecx, ecx
  00a8b	0f 85 a3 00 00
	00		 jne	 $L189598

; 125  : 	{
; 126  : 		m_bInit = true;

  00a91	8b 55 ec	 mov	 edx, DWORD PTR _this$[ebp]
  00a94	c6 82 5c 01 00
	00 01		 mov	 BYTE PTR [edx+348], 1

; 127  : 		int w,h;
; 128  : 		w = h = 15;

  00a9b	c7 45 e4 0f 00
	00 00		 mov	 DWORD PTR _h$189600[ebp], 15 ; 0000000fH
  00aa2	8b 45 e4	 mov	 eax, DWORD PTR _h$189600[ebp]
  00aa5	89 45 e8	 mov	 DWORD PTR _w$189599[ebp], eax

; 129  : 
; 130  : 		if( m_pBitmapScrollHorz && m_pBitmapScrollVert )

  00aa8	8b 4d ec	 mov	 ecx, DWORD PTR _this$[ebp]
  00aab	83 b9 58 01 00
	00 00		 cmp	 DWORD PTR [ecx+344], 0
  00ab2	74 3e		 je	 SHORT $L189601
  00ab4	8b 55 ec	 mov	 edx, DWORD PTR _this$[ebp]
  00ab7	83 ba 54 01 00
	00 00		 cmp	 DWORD PTR [edx+340], 0
  00abe	74 32		 je	 SHORT $L189601

; 131  : 		{
; 132  : 			h = m_pBitmapScrollVert->GetHeight() / 3;

  00ac0	8b 45 ec	 mov	 eax, DWORD PTR _this$[ebp]
  00ac3	8b 88 54 01 00
	00		 mov	 ecx, DWORD PTR [eax+340]
  00ac9	e8 00 00 00 00	 call	 ?GetHeight@CDibBitmap@@QAEHXZ ; CDibBitmap::GetHeight
  00ace	99		 cdq
  00acf	b9 03 00 00 00	 mov	 ecx, 3
  00ad4	f7 f9		 idiv	 ecx
  00ad6	89 45 e4	 mov	 DWORD PTR _h$189600[ebp], eax

; 133  : 			w = m_pBitmapScrollVert->GetWidth() / 6;

  00ad9	8b 55 ec	 mov	 edx, DWORD PTR _this$[ebp]
  00adc	8b 8a 54 01 00
	00		 mov	 ecx, DWORD PTR [edx+340]
  00ae2	e8 00 00 00 00	 call	 ?GetWidth@CDibBitmap@@QAEHXZ ; CDibBitmap::GetWidth
  00ae7	99		 cdq
  00ae8	b9 06 00 00 00	 mov	 ecx, 6
  00aed	f7 f9		 idiv	 ecx
  00aef	89 45 e8	 mov	 DWORD PTR _w$189599[ebp], eax
$L189601:

; 134  : 		}
; 135  : 
; 136  : 		InitializeCoolSB(m_hWnd);

  00af2	8b 55 ec	 mov	 edx, DWORD PTR _this$[ebp]
  00af5	8b 42 20	 mov	 eax, DWORD PTR [edx+32]
  00af8	50		 push	 eax
  00af9	e8 00 00 00 00	 call	 _InitializeCoolSB@4

; 137  : 		CoolSB_SetStyle(m_hWnd, SB_BOTH, CSBS_HOTTRACKED);

  00afe	6a 02		 push	 2
  00b00	6a 03		 push	 3
  00b02	8b 4d ec	 mov	 ecx, DWORD PTR _this$[ebp]
  00b05	8b 51 20	 mov	 edx, DWORD PTR [ecx+32]
  00b08	52		 push	 edx
  00b09	e8 00 00 00 00	 call	 _CoolSB_SetStyle@12

; 138  : 		CoolSB_SetSize(m_hWnd, SB_BOTH, h, w);

  00b0e	8b 45 e8	 mov	 eax, DWORD PTR _w$189599[ebp]
  00b11	50		 push	 eax
  00b12	8b 4d e4	 mov	 ecx, DWORD PTR _h$189600[ebp]
  00b15	51		 push	 ecx
  00b16	6a 03		 push	 3
  00b18	8b 55 ec	 mov	 edx, DWORD PTR _this$[ebp]
  00b1b	8b 42 20	 mov	 eax, DWORD PTR [edx+32]
  00b1e	50		 push	 eax
  00b1f	e8 00 00 00 00	 call	 _CoolSB_SetSize@16

; 139  : 		::CoolSB_SetMinThumbSize(m_hWnd, SB_BOTH, 8);

  00b24	6a 08		 push	 8
  00b26	6a 03		 push	 3
  00b28	8b 4d ec	 mov	 ecx, DWORD PTR _this$[ebp]
  00b2b	8b 51 20	 mov	 edx, DWORD PTR [ecx+32]
  00b2e	52		 push	 edx
  00b2f	e8 00 00 00 00	 call	 _CoolSB_SetMinThumbSize@12
$L189598:

; 140  : 		
; 141  : 	}
; 142  : 	if (m_PaintScrollBar)

  00b34	8b 45 ec	 mov	 eax, DWORD PTR _this$[ebp]
  00b37	83 b8 60 01 00
	00 00		 cmp	 DWORD PTR [eax+352], 0
  00b3e	0f 84 60 01 00
	00		 je	 $L189602

; 143  : 	{
; 144  : 		int lenVbar = (float)m_rect.Height()/m_rcRealRect.Height()*m_rect.Height();

  00b44	8b 4d ec	 mov	 ecx, DWORD PTR _this$[ebp]
  00b47	81 c1 8c 00 00
	00		 add	 ecx, 140		; 0000008cH
  00b4d	e8 00 00 00 00	 call	 ?Height@CRect@@QBEHXZ	; CRect::Height
  00b52	89 85 4c ff ff
	ff		 mov	 DWORD PTR tv242[ebp], eax
  00b58	db 85 4c ff ff
	ff		 fild	 DWORD PTR tv242[ebp]
  00b5e	d9 9d 48 ff ff
	ff		 fstp	 DWORD PTR tv245[ebp]
  00b64	8b 4d ec	 mov	 ecx, DWORD PTR _this$[ebp]
  00b67	81 c1 9c 00 00
	00		 add	 ecx, 156		; 0000009cH
  00b6d	e8 00 00 00 00	 call	 ?Height@CRect@@QBEHXZ	; CRect::Height
  00b72	89 85 44 ff ff
	ff		 mov	 DWORD PTR tv246[ebp], eax
  00b78	db 85 44 ff ff
	ff		 fild	 DWORD PTR tv246[ebp]
  00b7e	d8 bd 48 ff ff
	ff		 fdivr	 DWORD PTR tv245[ebp]
  00b84	d9 9d 40 ff ff
	ff		 fstp	 DWORD PTR tv249[ebp]
  00b8a	8b 4d ec	 mov	 ecx, DWORD PTR _this$[ebp]
  00b8d	81 c1 8c 00 00
	00		 add	 ecx, 140		; 0000008cH
  00b93	e8 00 00 00 00	 call	 ?Height@CRect@@QBEHXZ	; CRect::Height
  00b98	89 85 3c ff ff
	ff		 mov	 DWORD PTR tv250[ebp], eax
  00b9e	db 85 3c ff ff
	ff		 fild	 DWORD PTR tv250[ebp]
  00ba4	d8 8d 40 ff ff
	ff		 fmul	 DWORD PTR tv249[ebp]
  00baa	e8 00 00 00 00	 call	 __ftol2
  00baf	89 45 e0	 mov	 DWORD PTR _lenVbar$189603[ebp], eax

; 145  : 		int realhight = (float)(m_rect.Height()-lenVbar)/m_rect.Height()*m_rcRealRect.Height();

  00bb2	8b 4d ec	 mov	 ecx, DWORD PTR _this$[ebp]
  00bb5	81 c1 8c 00 00
	00		 add	 ecx, 140		; 0000008cH
  00bbb	e8 00 00 00 00	 call	 ?Height@CRect@@QBEHXZ	; CRect::Height
  00bc0	2b 45 e0	 sub	 eax, DWORD PTR _lenVbar$189603[ebp]
  00bc3	89 85 38 ff ff
	ff		 mov	 DWORD PTR tv255[ebp], eax
  00bc9	db 85 38 ff ff
	ff		 fild	 DWORD PTR tv255[ebp]
  00bcf	d9 9d 34 ff ff
	ff		 fstp	 DWORD PTR tv258[ebp]
  00bd5	8b 4d ec	 mov	 ecx, DWORD PTR _this$[ebp]
  00bd8	81 c1 8c 00 00
	00		 add	 ecx, 140		; 0000008cH
  00bde	e8 00 00 00 00	 call	 ?Height@CRect@@QBEHXZ	; CRect::Height
  00be3	89 85 30 ff ff
	ff		 mov	 DWORD PTR tv259[ebp], eax
  00be9	db 85 30 ff ff
	ff		 fild	 DWORD PTR tv259[ebp]
  00bef	d8 bd 34 ff ff
	ff		 fdivr	 DWORD PTR tv258[ebp]
  00bf5	d9 9d 2c ff ff
	ff		 fstp	 DWORD PTR tv262[ebp]
  00bfb	8b 4d ec	 mov	 ecx, DWORD PTR _this$[ebp]
  00bfe	81 c1 9c 00 00
	00		 add	 ecx, 156		; 0000009cH
  00c04	e8 00 00 00 00	 call	 ?Height@CRect@@QBEHXZ	; CRect::Height
  00c09	89 85 28 ff ff
	ff		 mov	 DWORD PTR tv263[ebp], eax
  00c0f	db 85 28 ff ff
	ff		 fild	 DWORD PTR tv263[ebp]
  00c15	d8 8d 2c ff ff
	ff		 fmul	 DWORD PTR tv262[ebp]
  00c1b	e8 00 00 00 00	 call	 __ftol2
  00c20	89 45 dc	 mov	 DWORD PTR _realhight$189605[ebp], eax

; 146  : 		float fper = (float)(0-m_ptClientStart.y)/(m_rcRealRect.Height()-m_rect.Height());

  00c23	8b 4d ec	 mov	 ecx, DWORD PTR _this$[ebp]
  00c26	33 d2		 xor	 edx, edx
  00c28	2b 91 b0 00 00
	00		 sub	 edx, DWORD PTR [ecx+176]
  00c2e	89 95 24 ff ff
	ff		 mov	 DWORD PTR tv268[ebp], edx
  00c34	db 85 24 ff ff
	ff		 fild	 DWORD PTR tv268[ebp]
  00c3a	d9 9d 20 ff ff
	ff		 fstp	 DWORD PTR tv271[ebp]
  00c40	8b 4d ec	 mov	 ecx, DWORD PTR _this$[ebp]
  00c43	81 c1 9c 00 00
	00		 add	 ecx, 156		; 0000009cH
  00c49	e8 00 00 00 00	 call	 ?Height@CRect@@QBEHXZ	; CRect::Height
  00c4e	8b f0		 mov	 esi, eax
  00c50	8b 4d ec	 mov	 ecx, DWORD PTR _this$[ebp]
  00c53	81 c1 8c 00 00
	00		 add	 ecx, 140		; 0000008cH
  00c59	e8 00 00 00 00	 call	 ?Height@CRect@@QBEHXZ	; CRect::Height
  00c5e	2b f0		 sub	 esi, eax
  00c60	89 b5 1c ff ff
	ff		 mov	 DWORD PTR tv274[ebp], esi
  00c66	db 85 1c ff ff
	ff		 fild	 DWORD PTR tv274[ebp]
  00c6c	d8 bd 20 ff ff
	ff		 fdivr	 DWORD PTR tv271[ebp]
  00c72	d9 5d d8	 fstp	 DWORD PTR _fper$189607[ebp]

; 147  : 		int nPos = fper*realhight;

  00c75	db 45 dc	 fild	 DWORD PTR _realhight$189605[ebp]
  00c78	d8 4d d8	 fmul	 DWORD PTR _fper$189607[ebp]
  00c7b	e8 00 00 00 00	 call	 __ftol2
  00c80	89 45 d4	 mov	 DWORD PTR _nPos$189609[ebp], eax

; 148  : 		CoolSB_SetScrollPos(m_hWnd,SB_VERT,nPos,TRUE);

  00c83	6a 01		 push	 1
  00c85	8b 45 d4	 mov	 eax, DWORD PTR _nPos$189609[ebp]
  00c88	50		 push	 eax
  00c89	6a 01		 push	 1
  00c8b	8b 4d ec	 mov	 ecx, DWORD PTR _this$[ebp]
  00c8e	8b 51 20	 mov	 edx, DWORD PTR [ecx+32]
  00c91	52		 push	 edx
  00c92	e8 00 00 00 00	 call	 _CoolSB_SetScrollPos@16

; 149  : 		m_PaintScrollBar = FALSE;

  00c97	8b 45 ec	 mov	 eax, DWORD PTR _this$[ebp]
  00c9a	c7 80 60 01 00
	00 00 00 00 00	 mov	 DWORD PTR [eax+352], 0
$L189602:

; 150  : 	}
; 151  : 	CPaintDC dc(this); 

  00ca4	8b 4d ec	 mov	 ecx, DWORD PTR _this$[ebp]
  00ca7	51		 push	 ecx
  00ca8	8d 8d 7c ff ff
	ff		 lea	 ecx, DWORD PTR _dc$[ebp]
  00cae	e8 00 00 00 00	 call	 ??0CPaintDC@@QAE@PAVCWnd@@@Z ; CPaintDC::CPaintDC
  00cb3	c7 45 fc 00 00
	00 00		 mov	 DWORD PTR __$EHRec$[ebp+8], 0

; 152  : 	CRect rcClient;

  00cba	8d 8d 64 ff ff
	ff		 lea	 ecx, DWORD PTR _rcClient$[ebp]
  00cc0	e8 00 00 00 00	 call	 ??0CRect@@QAE@XZ	; CRect::CRect

; 153  : 	GetClientRect(&rcClient);

  00cc5	8d 95 64 ff ff
	ff		 lea	 edx, DWORD PTR _rcClient$[ebp]
  00ccb	52		 push	 edx
  00ccc	8b 4d ec	 mov	 ecx, DWORD PTR _this$[ebp]
  00ccf	e8 00 00 00 00	 call	 ?GetClientRect@CWnd@@QBEXPAUtagRECT@@@Z ; CWnd::GetClientRect

; 154  : 	CSize sz = CSize(m_rect.Width(),m_rect.Height());

  00cd4	8b 4d ec	 mov	 ecx, DWORD PTR _this$[ebp]
  00cd7	81 c1 8c 00 00
	00		 add	 ecx, 140		; 0000008cH
  00cdd	e8 00 00 00 00	 call	 ?Height@CRect@@QBEHXZ	; CRect::Height
  00ce2	50		 push	 eax
  00ce3	8b 4d ec	 mov	 ecx, DWORD PTR _this$[ebp]
  00ce6	81 c1 8c 00 00
	00		 add	 ecx, 140		; 0000008cH
  00cec	e8 00 00 00 00	 call	 ?Width@CRect@@QBEHXZ	; CRect::Width
  00cf1	50		 push	 eax
  00cf2	8d 8d 54 ff ff
	ff		 lea	 ecx, DWORD PTR _sz$[ebp]
  00cf8	e8 00 00 00 00	 call	 ??0CSize@@QAE@HH@Z	; CSize::CSize

; 155  : 	
; 156  : 	dc.BitBlt(0,0,sz.cx,sz.cy,&m_dcMem,0,0,SRCCOPY);

  00cfd	68 20 00 cc 00	 push	 13369376		; 00cc0020H
  00d02	6a 00		 push	 0
  00d04	6a 00		 push	 0
  00d06	8b 45 ec	 mov	 eax, DWORD PTR _this$[ebp]
  00d09	83 c0 60	 add	 eax, 96			; 00000060H
  00d0c	50		 push	 eax
  00d0d	8b 8d 58 ff ff
	ff		 mov	 ecx, DWORD PTR _sz$[ebp+4]
  00d13	51		 push	 ecx
  00d14	8b 95 54 ff ff
	ff		 mov	 edx, DWORD PTR _sz$[ebp]
  00d1a	52		 push	 edx
  00d1b	6a 00		 push	 0
  00d1d	6a 00		 push	 0
  00d1f	8d 8d 7c ff ff
	ff		 lea	 ecx, DWORD PTR _dc$[ebp]
  00d25	e8 00 00 00 00	 call	 ?BitBlt@CDC@@QAEHHHHHPAV1@HHK@Z ; CDC::BitBlt

; 157  : }

  00d2a	c7 45 fc ff ff
	ff ff		 mov	 DWORD PTR __$EHRec$[ebp+8], -1
  00d31	8d 8d 7c ff ff
	ff		 lea	 ecx, DWORD PTR _dc$[ebp]
  00d37	e8 00 00 00 00	 call	 ??1CPaintDC@@UAE@XZ	; CPaintDC::~CPaintDC
  00d3c	52		 push	 edx
  00d3d	8b cd		 mov	 ecx, ebp
  00d3f	50		 push	 eax
  00d40	8d 15 00 00 00
	00		 lea	 edx, DWORD PTR $L192554
  00d46	e8 00 00 00 00	 call	 @_RTC_CheckStackVars@8
  00d4b	58		 pop	 eax
  00d4c	5a		 pop	 edx
  00d4d	8b 4d f4	 mov	 ecx, DWORD PTR __$EHRec$[ebp]
  00d50	64 89 0d 00 00
	00 00		 mov	 DWORD PTR fs:__except_list, ecx
  00d57	8b 4d f0	 mov	 ecx, DWORD PTR __$ArrayPad$[ebp]
  00d5a	e8 00 00 00 00	 call	 @__security_check_cookie@4
  00d5f	5f		 pop	 edi
  00d60	5e		 pop	 esi
  00d61	81 c4 e4 00 00
	00		 add	 esp, 228		; 000000e4H
  00d67	3b ec		 cmp	 ebp, esp
  00d69	e8 00 00 00 00	 call	 __RTC_CheckEsp
  00d6e	8b e5		 mov	 esp, ebp
  00d70	5d		 pop	 ebp
  00d71	c3		 ret	 0
$L192554:
  00d72	03 00 00 00	 DD	 3
  00d76	00 00 00 00	 DD	 $L192553
$L192553:
  00d7a	7c ff ff ff	 DD	 -132			; ffffff7cH
  00d7e	54 00 00 00	 DD	 84			; 00000054H
  00d82	00 00 00 00	 DD	 $L192548
  00d86	64 ff ff ff	 DD	 -156			; ffffff64H
  00d8a	10 00 00 00	 DD	 16			; 00000010H
  00d8e	00 00 00 00	 DD	 $L192549
  00d92	54 ff ff ff	 DD	 -172			; ffffff54H
  00d96	08 00 00 00	 DD	 8
  00d9a	00 00 00 00	 DD	 $L192550
$L192550:
  00d9e	73		 DB	 115			; 00000073H
  00d9f	7a		 DB	 122			; 0000007aH
  00da0	00		 DB	 0
$L192549:
  00da1	72		 DB	 114			; 00000072H
  00da2	63		 DB	 99			; 00000063H
  00da3	43		 DB	 67			; 00000043H
  00da4	6c		 DB	 108			; 0000006cH
  00da5	69		 DB	 105			; 00000069H
  00da6	65		 DB	 101			; 00000065H
  00da7	6e		 DB	 110			; 0000006eH
  00da8	74		 DB	 116			; 00000074H
  00da9	00		 DB	 0
$L192548:
  00daa	64		 DB	 100			; 00000064H
  00dab	63		 DB	 99			; 00000063H
  00dac	00		 DB	 0
_TEXT	ENDS
text$x	SEGMENT
$L192544:
  0018d	8d 8d 7c ff ff
	ff		 lea	 ecx, DWORD PTR _dc$[ebp]
  00193	e9 00 00 00 00	 jmp	 ??1CPaintDC@@UAE@XZ	; CPaintDC::~CPaintDC
__ehhandler$?OnPaint@CLocalMusicCoverList@@IAEXXZ:
  00198	b8 00 00 00 00	 mov	 eax, OFFSET FLAT:$T192546
  0019d	e9 00 00 00 00	 jmp	 ___CxxFrameHandler
text$x	ENDS
?OnPaint@CLocalMusicCoverList@@IAEXXZ ENDP		; CLocalMusicCoverList::OnPaint
PUBLIC	?SizeChanged@CLocalMusicCoverList@@IAEXH@Z	; CLocalMusicCoverList::SizeChanged
EXTRN	?OnSize@CWnd@@IAEXIHH@Z:NEAR			; CWnd::OnSize
; Function compile flags: /Odt /RTCsu
_TEXT	SEGMENT
_this$ = -4						; size = 4
_nType$ = 8						; size = 4
_cx$ = 12						; size = 4
_cy$ = 16						; size = 4
?OnSize@CLocalMusicCoverList@@IAEXIHH@Z PROC NEAR	; CLocalMusicCoverList::OnSize
; _this$ = ecx

; 160  : {

  00db0	55		 push	 ebp
  00db1	8b ec		 mov	 ebp, esp
  00db3	51		 push	 ecx
  00db4	c7 45 fc cc cc
	cc cc		 mov	 DWORD PTR [ebp-4], -858993460 ; ccccccccH
  00dbb	89 4d fc	 mov	 DWORD PTR _this$[ebp], ecx

; 161  : 	CWnd::OnSize(nType, cx, cy);

  00dbe	8b 45 10	 mov	 eax, DWORD PTR _cy$[ebp]
  00dc1	50		 push	 eax
  00dc2	8b 4d 0c	 mov	 ecx, DWORD PTR _cx$[ebp]
  00dc5	51		 push	 ecx
  00dc6	8b 55 08	 mov	 edx, DWORD PTR _nType$[ebp]
  00dc9	52		 push	 edx
  00dca	8b 4d fc	 mov	 ecx, DWORD PTR _this$[ebp]
  00dcd	e8 00 00 00 00	 call	 ?OnSize@CWnd@@IAEXIHH@Z	; CWnd::OnSize

; 162  : 	SizeChanged();

  00dd2	6a 00		 push	 0
  00dd4	8b 4d fc	 mov	 ecx, DWORD PTR _this$[ebp]
  00dd7	e8 00 00 00 00	 call	 ?SizeChanged@CLocalMusicCoverList@@IAEXH@Z ; CLocalMusicCoverList::SizeChanged

; 163  : 	
; 164  : }

  00ddc	83 c4 04	 add	 esp, 4
  00ddf	3b ec		 cmp	 ebp, esp
  00de1	e8 00 00 00 00	 call	 __RTC_CheckEsp
  00de6	8b e5		 mov	 esp, ebp
  00de8	5d		 pop	 ebp
  00de9	c2 0c 00	 ret	 12			; 0000000cH
?OnSize@CLocalMusicCoverList@@IAEXIHH@Z ENDP		; CLocalMusicCoverList::OnSize
_TEXT	ENDS
EXTRN	?AfxGetApp@@YGPAVCWinApp@@XZ:NEAR		; AfxGetApp
EXTRN	?Create@CWnd@@UAEHPBD0KABUtagRECT@@PAV1@IPAUCCreateContext@@@Z:NEAR ; CWnd::Create
EXTRN	?LoadStandardCursor@CWinApp@@QBEPAUHICON__@@PBD@Z:NEAR ; CWinApp::LoadStandardCursor
EXTRN	?AfxRegisterWndClass@@YGPBDIPAUHICON__@@PAUHBRUSH__@@0@Z:NEAR ; AfxRegisterWndClass
; Function compile flags: /Odt /RTCsu
_TEXT	SEGMENT
_ret$ = -8						; size = 4
_this$ = -4						; size = 4
_lpszClassName$ = 8					; size = 4
_lpszWindowName$ = 12					; size = 4
_dwStyle$ = 16						; size = 4
_rect$ = 20						; size = 4
_pParentWnd$ = 24					; size = 4
_nID$ = 28						; size = 4
_pContext$ = 32						; size = 4
?Create@CLocalMusicCoverList@@UAEHPBD0KABUtagRECT@@PAVCWnd@@IPAUCCreateContext@@@Z PROC NEAR ; CLocalMusicCoverList::Create
; _this$ = ecx

; 167  : {

  00df0	55		 push	 ebp
  00df1	8b ec		 mov	 ebp, esp
  00df3	83 ec 08	 sub	 esp, 8
  00df6	c7 45 f8 cc cc
	cc cc		 mov	 DWORD PTR [ebp-8], -858993460 ; ccccccccH
  00dfd	c7 45 fc cc cc
	cc cc		 mov	 DWORD PTR [ebp-4], -858993460 ; ccccccccH
  00e04	89 4d fc	 mov	 DWORD PTR _this$[ebp], ecx

; 168  : 	BOOL ret = CWnd::Create(AfxRegisterWndClass(CS_DBLCLKS| CS_CLASSDC | CS_SAVEBITS,AfxGetApp()->LoadStandardCursor(IDC_ARROW),0,0),
; 169  : 		_T(""), dwStyle, rect, pParentWnd, nID, pContext);

  00e07	8b 45 20	 mov	 eax, DWORD PTR _pContext$[ebp]
  00e0a	50		 push	 eax
  00e0b	8b 4d 1c	 mov	 ecx, DWORD PTR _nID$[ebp]
  00e0e	51		 push	 ecx
  00e0f	8b 55 18	 mov	 edx, DWORD PTR _pParentWnd$[ebp]
  00e12	52		 push	 edx
  00e13	8b 45 14	 mov	 eax, DWORD PTR _rect$[ebp]
  00e16	50		 push	 eax
  00e17	8b 4d 10	 mov	 ecx, DWORD PTR _dwStyle$[ebp]
  00e1a	51		 push	 ecx
  00e1b	68 00 00 00 00	 push	 OFFSET FLAT:$SG189635
  00e20	6a 00		 push	 0
  00e22	6a 00		 push	 0
  00e24	68 00 7f 00 00	 push	 32512			; 00007f00H
  00e29	e8 00 00 00 00	 call	 ?AfxGetApp@@YGPAVCWinApp@@XZ ; AfxGetApp
  00e2e	8b c8		 mov	 ecx, eax
  00e30	e8 00 00 00 00	 call	 ?LoadStandardCursor@CWinApp@@QBEPAUHICON__@@PBD@Z ; CWinApp::LoadStandardCursor
  00e35	50		 push	 eax
  00e36	68 48 08 00 00	 push	 2120			; 00000848H
  00e3b	e8 00 00 00 00	 call	 ?AfxRegisterWndClass@@YGPBDIPAUHICON__@@PAUHBRUSH__@@0@Z ; AfxRegisterWndClass
  00e40	50		 push	 eax
  00e41	8b 4d fc	 mov	 ecx, DWORD PTR _this$[ebp]
  00e44	e8 00 00 00 00	 call	 ?Create@CWnd@@UAEHPBD0KABUtagRECT@@PAV1@IPAUCCreateContext@@@Z ; CWnd::Create
  00e49	89 45 f8	 mov	 DWORD PTR _ret$[ebp], eax

; 170  : 
; 171  : 	return ret;	

  00e4c	8b 45 f8	 mov	 eax, DWORD PTR _ret$[ebp]

; 172  : }

  00e4f	83 c4 08	 add	 esp, 8
  00e52	3b ec		 cmp	 ebp, esp
  00e54	e8 00 00 00 00	 call	 __RTC_CheckEsp
  00e59	8b e5		 mov	 esp, ebp
  00e5b	5d		 pop	 ebp
  00e5c	c2 1c 00	 ret	 28			; 0000001cH
?Create@CLocalMusicCoverList@@UAEHPBD0KABUtagRECT@@PAVCWnd@@IPAUCCreateContext@@@Z ENDP ; CLocalMusicCoverList::Create
; Function compile flags: /Odt /RTCsu
_this$ = -4						; size = 4
_iItemWidth$ = 8					; size = 4
_iItemHeight$ = 12					; size = 4
?SetItemWH@CLocalMusicCoverList@@QAEXHH@Z PROC NEAR	; CLocalMusicCoverList::SetItemWH
; _this$ = ecx

; 175  : {

  00e60	55		 push	 ebp
  00e61	8b ec		 mov	 ebp, esp
  00e63	51		 push	 ecx
  00e64	c7 45 fc cc cc
	cc cc		 mov	 DWORD PTR [ebp-4], -858993460 ; ccccccccH
  00e6b	89 4d fc	 mov	 DWORD PTR _this$[ebp], ecx

; 176  : 	m_iItemWidth = iItemWidth;

  00e6e	8b 45 fc	 mov	 eax, DWORD PTR _this$[ebp]
  00e71	8b 4d 08	 mov	 ecx, DWORD PTR _iItemWidth$[ebp]
  00e74	89 48 54	 mov	 DWORD PTR [eax+84], ecx

; 177  : 	m_iItemHeight = iItemHeight;

  00e77	8b 55 fc	 mov	 edx, DWORD PTR _this$[ebp]
  00e7a	8b 45 0c	 mov	 eax, DWORD PTR _iItemHeight$[ebp]
  00e7d	89 42 58	 mov	 DWORD PTR [edx+88], eax

; 178  : }

  00e80	8b e5		 mov	 esp, ebp
  00e82	5d		 pop	 ebp
  00e83	c2 08 00	 ret	 8
?SetItemWH@CLocalMusicCoverList@@QAEXHH@Z ENDP		; CLocalMusicCoverList::SetItemWH
_TEXT	ENDS
PUBLIC	?SetImgState@CLocalMusicCoverList@@QAEXW4LMCImgState@@@Z ; CLocalMusicCoverList::SetImgState
PUBLIC	?OnMemoryDraw@CLocalMusicCoverList@@IAEXH@Z	; CLocalMusicCoverList::OnMemoryDraw
PUBLIC	?UpdateList@CLocalMusicCoverList@@IAEXXZ	; CLocalMusicCoverList::UpdateList
EXTRN	?SetPoint@CPoint@@QAEXHH@Z:NEAR			; CPoint::SetPoint
EXTRN	?SetConfigIntValue@AfxUserConfig@@QAEXABV?$basic_string@DU?$char_traits@D@std@@V?$allocator@D@2@@std@@0H_N@Z:NEAR ; AfxUserConfig::SetConfigIntValue
xdata$x	SEGMENT
$T192568 DD	0ffffffffH
	DD	FLAT:$L192563
	DD	00H
	DD	FLAT:$L192564
$T192566 DD	019930520H
	DD	02H
	DD	FLAT:$T192568
	DD	2 DUP(00H)
	DD	2 DUP(00H)
; Function compile flags: /Odt /RTCsu
xdata$x	ENDS
_TEXT	SEGMENT
tv66 = -80						; size = 4
$T192562 = -76						; size = 28
$T192561 = -48						; size = 28
_iValue$ = -20						; size = 4
_this$ = -16						; size = 4
__$EHRec$ = -12						; size = 12
_is$ = 8						; size = 4
?SetImgState@CLocalMusicCoverList@@QAEXW4LMCImgState@@@Z PROC NEAR ; CLocalMusicCoverList::SetImgState
; _this$ = ecx

; 181  : {

  00e90	55		 push	 ebp
  00e91	8b ec		 mov	 ebp, esp
  00e93	6a ff		 push	 -1
  00e95	68 00 00 00 00	 push	 __ehhandler$?SetImgState@CLocalMusicCoverList@@QAEXW4LMCImgState@@@Z
  00e9a	64 a1 00 00 00
	00		 mov	 eax, DWORD PTR fs:__except_list
  00ea0	50		 push	 eax
  00ea1	64 89 25 00 00
	00 00		 mov	 DWORD PTR fs:__except_list, esp
  00ea8	83 ec 44	 sub	 esp, 68			; 00000044H
  00eab	56		 push	 esi
  00eac	57		 push	 edi
  00ead	51		 push	 ecx
  00eae	8d 7d b0	 lea	 edi, DWORD PTR [ebp-80]
  00eb1	b9 11 00 00 00	 mov	 ecx, 17			; 00000011H
  00eb6	b8 cc cc cc cc	 mov	 eax, -858993460		; ccccccccH
  00ebb	f3 ab		 rep stosd
  00ebd	59		 pop	 ecx
  00ebe	89 4d f0	 mov	 DWORD PTR _this$[ebp], ecx

; 182  : 	m_ImgState=is;

  00ec1	8b 45 f0	 mov	 eax, DWORD PTR _this$[ebp]
  00ec4	8b 4d 08	 mov	 ecx, DWORD PTR _is$[ebp]
  00ec7	89 48 5c	 mov	 DWORD PTR [eax+92], ecx

; 183  : 	int iValue = 0;

  00eca	c7 45 ec 00 00
	00 00		 mov	 DWORD PTR _iValue$[ebp], 0

; 184  : 	switch(m_ImgState)

  00ed1	8b 55 f0	 mov	 edx, DWORD PTR _this$[ebp]
  00ed4	8b 42 5c	 mov	 eax, DWORD PTR [edx+92]
  00ed7	89 45 b0	 mov	 DWORD PTR tv66[ebp], eax
  00eda	83 7d b0 00	 cmp	 DWORD PTR tv66[ebp], 0
  00ede	74 0e		 je	 SHORT $L189650
  00ee0	83 7d b0 01	 cmp	 DWORD PTR tv66[ebp], 1
  00ee4	74 1d		 je	 SHORT $L189651
  00ee6	83 7d b0 02	 cmp	 DWORD PTR tv66[ebp], 2
  00eea	74 2c		 je	 SHORT $L189652
  00eec	eb 43		 jmp	 SHORT $L189647
$L189650:

; 185  : 	{
; 186  : 	case LMCI_Small:
; 187  : 		SetItemWH(80,80);

  00eee	6a 50		 push	 80			; 00000050H
  00ef0	6a 50		 push	 80			; 00000050H
  00ef2	8b 4d f0	 mov	 ecx, DWORD PTR _this$[ebp]
  00ef5	e8 00 00 00 00	 call	 ?SetItemWH@CLocalMusicCoverList@@QAEXHH@Z ; CLocalMusicCoverList::SetItemWH

; 188  : 		iValue = 0;

  00efa	c7 45 ec 00 00
	00 00		 mov	 DWORD PTR _iValue$[ebp], 0

; 189  : 		break;

  00f01	eb 2e		 jmp	 SHORT $L189647
$L189651:

; 190  : 	case LMCI_Middle:
; 191  : 		SetItemWH(100,100);

  00f03	6a 64		 push	 100			; 00000064H
  00f05	6a 64		 push	 100			; 00000064H
  00f07	8b 4d f0	 mov	 ecx, DWORD PTR _this$[ebp]
  00f0a	e8 00 00 00 00	 call	 ?SetItemWH@CLocalMusicCoverList@@QAEXHH@Z ; CLocalMusicCoverList::SetItemWH

; 192  : 		iValue = 1;

  00f0f	c7 45 ec 01 00
	00 00		 mov	 DWORD PTR _iValue$[ebp], 1

; 193  : 		break;

  00f16	eb 19		 jmp	 SHORT $L189647
$L189652:

; 194  : 	case LMCI_Big:
; 195  : 		SetItemWH(130,130);

  00f18	68 82 00 00 00	 push	 130			; 00000082H
  00f1d	68 82 00 00 00	 push	 130			; 00000082H
  00f22	8b 4d f0	 mov	 ecx, DWORD PTR _this$[ebp]
  00f25	e8 00 00 00 00	 call	 ?SetItemWH@CLocalMusicCoverList@@QAEXHH@Z ; CLocalMusicCoverList::SetItemWH

; 196  : 		iValue = 2;

  00f2a	c7 45 ec 02 00
	00 00		 mov	 DWORD PTR _iValue$[ebp], 2
$L189647:

; 197  : 		break;
; 198  : 	}
; 199  : 	AfxGetUserConfig()->SetConfigIntValue( CONF_APP_MODULE_NAME,CONF_APP_PLAYED_ICON_SIZE, iValue);

  00f31	8b f4		 mov	 esi, esp
  00f33	8b 0d 00 00 00
	00		 mov	 ecx, DWORD PTR _CONF_APP_PLAYED_ICON_SIZE
  00f39	51		 push	 ecx
  00f3a	8d 4d d0	 lea	 ecx, DWORD PTR $T192561[ebp]
  00f3d	ff 15 00 00 00
	00		 call	 DWORD PTR __imp_??0?$basic_string@DU?$char_traits@D@std@@V?$allocator@D@2@@std@@QAE@PBD@Z
  00f43	3b f4		 cmp	 esi, esp
  00f45	e8 00 00 00 00	 call	 __RTC_CheckEsp
  00f4a	c7 45 fc 00 00
	00 00		 mov	 DWORD PTR __$EHRec$[ebp+8], 0
  00f51	8b f4		 mov	 esi, esp
  00f53	8b 15 00 00 00
	00		 mov	 edx, DWORD PTR _CONF_APP_MODULE_NAME
  00f59	52		 push	 edx
  00f5a	8d 4d b4	 lea	 ecx, DWORD PTR $T192562[ebp]
  00f5d	ff 15 00 00 00
	00		 call	 DWORD PTR __imp_??0?$basic_string@DU?$char_traits@D@std@@V?$allocator@D@2@@std@@QAE@PBD@Z
  00f63	3b f4		 cmp	 esi, esp
  00f65	e8 00 00 00 00	 call	 __RTC_CheckEsp
  00f6a	c6 45 fc 01	 mov	 BYTE PTR __$EHRec$[ebp+8], 1
  00f6e	6a 00		 push	 0
  00f70	8b 45 ec	 mov	 eax, DWORD PTR _iValue$[ebp]
  00f73	50		 push	 eax
  00f74	8d 4d d0	 lea	 ecx, DWORD PTR $T192561[ebp]
  00f77	51		 push	 ecx
  00f78	8d 55 b4	 lea	 edx, DWORD PTR $T192562[ebp]
  00f7b	52		 push	 edx
  00f7c	e8 00 00 00 00	 call	 ?AfxGetUserConfig@@YAPAVAfxUserConfig@@XZ ; AfxGetUserConfig
  00f81	8b c8		 mov	 ecx, eax
  00f83	e8 00 00 00 00	 call	 ?SetConfigIntValue@AfxUserConfig@@QAEXABV?$basic_string@DU?$char_traits@D@std@@V?$allocator@D@2@@std@@0H_N@Z ; AfxUserConfig::SetConfigIntValue
  00f88	c6 45 fc 00	 mov	 BYTE PTR __$EHRec$[ebp+8], 0
  00f8c	8b f4		 mov	 esi, esp
  00f8e	8d 4d b4	 lea	 ecx, DWORD PTR $T192562[ebp]
  00f91	ff 15 00 00 00
	00		 call	 DWORD PTR __imp_??1?$basic_string@DU?$char_traits@D@std@@V?$allocator@D@2@@std@@QAE@XZ
  00f97	3b f4		 cmp	 esi, esp
  00f99	e8 00 00 00 00	 call	 __RTC_CheckEsp
  00f9e	c7 45 fc ff ff
	ff ff		 mov	 DWORD PTR __$EHRec$[ebp+8], -1
  00fa5	8b f4		 mov	 esi, esp
  00fa7	8d 4d d0	 lea	 ecx, DWORD PTR $T192561[ebp]
  00faa	ff 15 00 00 00
	00		 call	 DWORD PTR __imp_??1?$basic_string@DU?$char_traits@D@std@@V?$allocator@D@2@@std@@QAE@XZ
  00fb0	3b f4		 cmp	 esi, esp
  00fb2	e8 00 00 00 00	 call	 __RTC_CheckEsp

; 200  : 	m_ptClientStart.SetPoint(0,0);

  00fb7	6a 00		 push	 0
  00fb9	6a 00		 push	 0
  00fbb	8b 4d f0	 mov	 ecx, DWORD PTR _this$[ebp]
  00fbe	81 c1 ac 00 00
	00		 add	 ecx, 172		; 000000acH
  00fc4	e8 00 00 00 00	 call	 ?SetPoint@CPoint@@QAEXHH@Z ; CPoint::SetPoint

; 201  : 	UpdateList();

  00fc9	8b 4d f0	 mov	 ecx, DWORD PTR _this$[ebp]
  00fcc	e8 00 00 00 00	 call	 ?UpdateList@CLocalMusicCoverList@@IAEXXZ ; CLocalMusicCoverList::UpdateList

; 202  : 	OnMemoryDraw();

  00fd1	6a 01		 push	 1
  00fd3	8b 4d f0	 mov	 ecx, DWORD PTR _this$[ebp]
  00fd6	e8 00 00 00 00	 call	 ?OnMemoryDraw@CLocalMusicCoverList@@IAEXH@Z ; CLocalMusicCoverList::OnMemoryDraw

; 203  : }

  00fdb	8b 4d f4	 mov	 ecx, DWORD PTR __$EHRec$[ebp]
  00fde	64 89 0d 00 00
	00 00		 mov	 DWORD PTR fs:__except_list, ecx
  00fe5	5f		 pop	 edi
  00fe6	5e		 pop	 esi
  00fe7	83 c4 50	 add	 esp, 80			; 00000050H
  00fea	3b ec		 cmp	 ebp, esp
  00fec	e8 00 00 00 00	 call	 __RTC_CheckEsp
  00ff1	8b e5		 mov	 esp, ebp
  00ff3	5d		 pop	 ebp
  00ff4	c2 04 00	 ret	 4
_TEXT	ENDS
text$x	SEGMENT
$L192563:
  001a2	8b f4		 mov	 esi, esp
  001a4	8d 4d d0	 lea	 ecx, DWORD PTR $T192561[ebp]
  001a7	ff 15 00 00 00
	00		 call	 DWORD PTR __imp_??1?$basic_string@DU?$char_traits@D@std@@V?$allocator@D@2@@std@@QAE@XZ
  001ad	3b f4		 cmp	 esi, esp
  001af	e9 00 00 00 00	 jmp	 __RTC_CheckEsp
$L192564:
  001b4	8b f4		 mov	 esi, esp
  001b6	8d 4d b4	 lea	 ecx, DWORD PTR $T192562[ebp]
  001b9	ff 15 00 00 00
	00		 call	 DWORD PTR __imp_??1?$basic_string@DU?$char_traits@D@std@@V?$allocator@D@2@@std@@QAE@XZ
  001bf	3b f4		 cmp	 esi, esp
  001c1	e9 00 00 00 00	 jmp	 __RTC_CheckEsp
__ehhandler$?SetImgState@CLocalMusicCoverList@@QAEXW4LMCImgState@@@Z:
  001c6	b8 00 00 00 00	 mov	 eax, OFFSET FLAT:$T192566
  001cb	e9 00 00 00 00	 jmp	 ___CxxFrameHandler
text$x	ENDS
?SetImgState@CLocalMusicCoverList@@QAEXW4LMCImgState@@@Z ENDP ; CLocalMusicCoverList::SetImgState
PUBLIC	?InsertItem@CLocalMusicCoverList@@QAEHPAVCDibBitmap@@V?$CStringT@DV?$StrTraitMFC_DLL@DV?$ChTraitsCRT@D@ATL@@@@@ATL@@1V?$basic_string@DU?$char_traits@D@std@@V?$allocator@D@2@@std@@H@Z ; CLocalMusicCoverList::InsertItem
EXTRN	?InsertItem@CLMCDataMgr@@QAEHPAVCDibBitmap@@V?$CStringT@DV?$StrTraitMFC_DLL@DV?$ChTraitsCRT@D@ATL@@@@@ATL@@1V?$basic_string@DU?$char_traits@D@std@@V?$allocator@D@2@@std@@H@Z:NEAR ; CLMCDataMgr::InsertItem
EXTRN	__imp_??0?$basic_string@DU?$char_traits@D@std@@V?$allocator@D@2@@std@@QAE@ABV01@@Z:NEAR
EXTRN	__imp_??0?$CStringT@DV?$StrTraitMFC_DLL@DV?$ChTraitsCRT@D@ATL@@@@@ATL@@QAE@ABV01@@Z:NEAR
xdata$x	SEGMENT
$T192583 DD	0ffffffffH
	DD	FLAT:$L192574
	DD	00H
	DD	FLAT:$L192575
	DD	01H
	DD	FLAT:$L192576
	DD	02H
	DD	FLAT:$L192577
	DD	03H
	DD	FLAT:$L192578
$T192581 DD	019930520H
	DD	05H
	DD	FLAT:$T192583
	DD	2 DUP(00H)
	DD	2 DUP(00H)
; Function compile flags: /Odt /RTCsu
xdata$x	ENDS
_TEXT	SEGMENT
tv166 = -64						; size = 4
tv172 = -60						; size = 4
tv169 = -56						; size = 4
tv185 = -52						; size = 4
tv165 = -48						; size = 4
tv182 = -44						; size = 4
$T192573 = -40						; size = 4
$T192572 = -36						; size = 4
$T192571 = -32						; size = 4
$T192570 = -28						; size = 4
_iHeightSpaceMB$ = -24					; size = 4
_iHeightSpaceS$ = -20					; size = 4
_this$ = -16						; size = 4
__$EHRec$ = -12						; size = 12
_pImg$ = 8						; size = 4
_strItemName$ = 12					; size = 4
_strdetail$ = 16					; size = 4
_strGID$ = 20						; size = 28
_blSel$ = 48						; size = 4
?InsertItem@CLocalMusicCoverList@@QAEHPAVCDibBitmap@@V?$CStringT@DV?$StrTraitMFC_DLL@DV?$ChTraitsCRT@D@ATL@@@@@ATL@@1V?$basic_string@DU?$char_traits@D@std@@V?$allocator@D@2@@std@@H@Z PROC NEAR ; CLocalMusicCoverList::InsertItem
; _this$ = ecx

; 206  : {

  01000	55		 push	 ebp
  01001	8b ec		 mov	 ebp, esp
  01003	6a ff		 push	 -1
  01005	68 00 00 00 00	 push	 __ehhandler$?InsertItem@CLocalMusicCoverList@@QAEHPAVCDibBitmap@@V?$CStringT@DV?$StrTraitMFC_DLL@DV?$ChTraitsCRT@D@ATL@@@@@ATL@@1V?$basic_string@DU?$char_traits@D@std@@V?$allocator@D@2@@std@@H@Z
  0100a	64 a1 00 00 00
	00		 mov	 eax, DWORD PTR fs:__except_list
  01010	50		 push	 eax
  01011	64 89 25 00 00
	00 00		 mov	 DWORD PTR fs:__except_list, esp
  01018	83 ec 34	 sub	 esp, 52			; 00000034H
  0101b	56		 push	 esi
  0101c	57		 push	 edi
  0101d	51		 push	 ecx
  0101e	8d 7d c0	 lea	 edi, DWORD PTR [ebp-64]
  01021	b9 0d 00 00 00	 mov	 ecx, 13			; 0000000dH
  01026	b8 cc cc cc cc	 mov	 eax, -858993460		; ccccccccH
  0102b	f3 ab		 rep stosd
  0102d	59		 pop	 ecx
  0102e	89 4d f0	 mov	 DWORD PTR _this$[ebp], ecx
  01031	c7 45 fc 02 00
	00 00		 mov	 DWORD PTR __$EHRec$[ebp+8], 2

; 207  : 	int iHeightSpaceS = m_iItemHeight+SPACEH + ITEMTXTH + SPACEH;

  01038	8b 45 f0	 mov	 eax, DWORD PTR _this$[ebp]
  0103b	8b 48 58	 mov	 ecx, DWORD PTR [eax+88]
  0103e	83 c1 17	 add	 ecx, 23			; 00000017H
  01041	89 4d ec	 mov	 DWORD PTR _iHeightSpaceS$[ebp], ecx

; 208  : 	int iHeightSpaceMB = m_iItemHeight+SPACEH + ITEMTXTH + SPACEH + ITEMTXTH + SPACEH  ;	

  01044	8b 55 f0	 mov	 edx, DWORD PTR _this$[ebp]
  01047	8b 42 58	 mov	 eax, DWORD PTR [edx+88]
  0104a	83 c0 2a	 add	 eax, 42			; 0000002aH
  0104d	89 45 e8	 mov	 DWORD PTR _iHeightSpaceMB$[ebp], eax

; 209  : 	if (m_ImgState==LMCI_Small)
; 210  : 	{
; 211  : 	}
; 212  : 	else if (m_ImgState==LMCI_Middle||m_ImgState==LMCI_Big)
; 213  : 	{
; 214  : 
; 215  : 	}
; 216  : 	return m_DataMgr.InsertItem(pImg,strItemName,strdetail, strGID, blSel);

  01050	8b 4d 30	 mov	 ecx, DWORD PTR _blSel$[ebp]
  01053	51		 push	 ecx
  01054	83 ec 1c	 sub	 esp, 28			; 0000001cH
  01057	8b cc		 mov	 ecx, esp
  01059	89 65 e0	 mov	 DWORD PTR $T192571[ebp], esp
  0105c	8b f4		 mov	 esi, esp
  0105e	8d 55 14	 lea	 edx, DWORD PTR _strGID$[ebp]
  01061	52		 push	 edx
  01062	ff 15 00 00 00
	00		 call	 DWORD PTR __imp_??0?$basic_string@DU?$char_traits@D@std@@V?$allocator@D@2@@std@@QAE@ABV01@@Z
  01068	3b f4		 cmp	 esi, esp
  0106a	e8 00 00 00 00	 call	 __RTC_CheckEsp
  0106f	89 45 d4	 mov	 DWORD PTR tv182[ebp], eax
  01072	8b 45 d4	 mov	 eax, DWORD PTR tv182[ebp]
  01075	89 45 d0	 mov	 DWORD PTR tv165[ebp], eax
  01078	c6 45 fc 03	 mov	 BYTE PTR __$EHRec$[ebp+8], 3
  0107c	51		 push	 ecx
  0107d	8b cc		 mov	 ecx, esp
  0107f	89 65 dc	 mov	 DWORD PTR $T192572[ebp], esp
  01082	8b f4		 mov	 esi, esp
  01084	8d 55 10	 lea	 edx, DWORD PTR _strdetail$[ebp]
  01087	52		 push	 edx
  01088	ff 15 00 00 00
	00		 call	 DWORD PTR __imp_??0?$CStringT@DV?$StrTraitMFC_DLL@DV?$ChTraitsCRT@D@ATL@@@@@ATL@@QAE@ABV01@@Z
  0108e	3b f4		 cmp	 esi, esp
  01090	e8 00 00 00 00	 call	 __RTC_CheckEsp
  01095	89 45 cc	 mov	 DWORD PTR tv185[ebp], eax
  01098	8b 45 cc	 mov	 eax, DWORD PTR tv185[ebp]
  0109b	89 45 c8	 mov	 DWORD PTR tv169[ebp], eax
  0109e	c6 45 fc 04	 mov	 BYTE PTR __$EHRec$[ebp+8], 4
  010a2	51		 push	 ecx
  010a3	8b cc		 mov	 ecx, esp
  010a5	89 65 d8	 mov	 DWORD PTR $T192573[ebp], esp
  010a8	8b f4		 mov	 esi, esp
  010aa	8d 55 0c	 lea	 edx, DWORD PTR _strItemName$[ebp]
  010ad	52		 push	 edx
  010ae	ff 15 00 00 00
	00		 call	 DWORD PTR __imp_??0?$CStringT@DV?$StrTraitMFC_DLL@DV?$ChTraitsCRT@D@ATL@@@@@ATL@@QAE@ABV01@@Z
  010b4	3b f4		 cmp	 esi, esp
  010b6	e8 00 00 00 00	 call	 __RTC_CheckEsp
  010bb	89 45 c4	 mov	 DWORD PTR tv172[ebp], eax
  010be	8b 45 08	 mov	 eax, DWORD PTR _pImg$[ebp]
  010c1	50		 push	 eax
  010c2	8b 4d f0	 mov	 ecx, DWORD PTR _this$[ebp]
  010c5	81 c1 6c 01 00
	00		 add	 ecx, 364		; 0000016cH
  010cb	c6 45 fc 02	 mov	 BYTE PTR __$EHRec$[ebp+8], 2
  010cf	e8 00 00 00 00	 call	 ?InsertItem@CLMCDataMgr@@QAEHPAVCDibBitmap@@V?$CStringT@DV?$StrTraitMFC_DLL@DV?$ChTraitsCRT@D@ATL@@@@@ATL@@1V?$basic_string@DU?$char_traits@D@std@@V?$allocator@D@2@@std@@H@Z ; CLMCDataMgr::InsertItem
  010d4	89 45 c0	 mov	 DWORD PTR tv166[ebp], eax
  010d7	8b 4d c0	 mov	 ecx, DWORD PTR tv166[ebp]
  010da	89 4d e4	 mov	 DWORD PTR $T192570[ebp], ecx
  010dd	c6 45 fc 01	 mov	 BYTE PTR __$EHRec$[ebp+8], 1
  010e1	8b f4		 mov	 esi, esp
  010e3	8d 4d 0c	 lea	 ecx, DWORD PTR _strItemName$[ebp]
  010e6	ff 15 00 00 00
	00		 call	 DWORD PTR __imp_??1?$CStringT@DV?$StrTraitMFC_DLL@DV?$ChTraitsCRT@D@ATL@@@@@ATL@@QAE@XZ
  010ec	3b f4		 cmp	 esi, esp
  010ee	e8 00 00 00 00	 call	 __RTC_CheckEsp
  010f3	c6 45 fc 00	 mov	 BYTE PTR __$EHRec$[ebp+8], 0
  010f7	8b f4		 mov	 esi, esp
  010f9	8d 4d 10	 lea	 ecx, DWORD PTR _strdetail$[ebp]
  010fc	ff 15 00 00 00
	00		 call	 DWORD PTR __imp_??1?$CStringT@DV?$StrTraitMFC_DLL@DV?$ChTraitsCRT@D@ATL@@@@@ATL@@QAE@XZ
  01102	3b f4		 cmp	 esi, esp
  01104	e8 00 00 00 00	 call	 __RTC_CheckEsp
  01109	c7 45 fc ff ff
	ff ff		 mov	 DWORD PTR __$EHRec$[ebp+8], -1
  01110	8b f4		 mov	 esi, esp
  01112	8d 4d 14	 lea	 ecx, DWORD PTR _strGID$[ebp]
  01115	ff 15 00 00 00
	00		 call	 DWORD PTR __imp_??1?$basic_string@DU?$char_traits@D@std@@V?$allocator@D@2@@std@@QAE@XZ
  0111b	3b f4		 cmp	 esi, esp
  0111d	e8 00 00 00 00	 call	 __RTC_CheckEsp
  01122	8b 45 e4	 mov	 eax, DWORD PTR $T192570[ebp]

; 217  : }

  01125	8b 4d f4	 mov	 ecx, DWORD PTR __$EHRec$[ebp]
  01128	64 89 0d 00 00
	00 00		 mov	 DWORD PTR fs:__except_list, ecx
  0112f	5f		 pop	 edi
  01130	5e		 pop	 esi
  01131	83 c4 40	 add	 esp, 64			; 00000040H
  01134	3b ec		 cmp	 ebp, esp
  01136	e8 00 00 00 00	 call	 __RTC_CheckEsp
  0113b	8b e5		 mov	 esp, ebp
  0113d	5d		 pop	 ebp
  0113e	c2 2c 00	 ret	 44			; 0000002cH
_TEXT	ENDS
text$x	SEGMENT
$L192574:
  001d0	8b f4		 mov	 esi, esp
  001d2	8d 4d 14	 lea	 ecx, DWORD PTR _strGID$[ebp]
  001d5	ff 15 00 00 00
	00		 call	 DWORD PTR __imp_??1?$basic_string@DU?$char_traits@D@std@@V?$allocator@D@2@@std@@QAE@XZ
  001db	3b f4		 cmp	 esi, esp
  001dd	e9 00 00 00 00	 jmp	 __RTC_CheckEsp
$L192575:
  001e2	8b f4		 mov	 esi, esp
  001e4	8d 4d 10	 lea	 ecx, DWORD PTR _strdetail$[ebp]
  001e7	ff 15 00 00 00
	00		 call	 DWORD PTR __imp_??1?$CStringT@DV?$StrTraitMFC_DLL@DV?$ChTraitsCRT@D@ATL@@@@@ATL@@QAE@XZ
  001ed	3b f4		 cmp	 esi, esp
  001ef	e9 00 00 00 00	 jmp	 __RTC_CheckEsp
$L192576:
  001f4	8b f4		 mov	 esi, esp
  001f6	8d 4d 0c	 lea	 ecx, DWORD PTR _strItemName$[ebp]
  001f9	ff 15 00 00 00
	00		 call	 DWORD PTR __imp_??1?$CStringT@DV?$StrTraitMFC_DLL@DV?$ChTraitsCRT@D@ATL@@@@@ATL@@QAE@XZ
  001ff	3b f4		 cmp	 esi, esp
  00201	e9 00 00 00 00	 jmp	 __RTC_CheckEsp
$L192577:
  00206	8b f4		 mov	 esi, esp
  00208	8b 4d e0	 mov	 ecx, DWORD PTR $T192571[ebp]
  0020b	ff 15 00 00 00
	00		 call	 DWORD PTR __imp_??1?$basic_string@DU?$char_traits@D@std@@V?$allocator@D@2@@std@@QAE@XZ
  00211	3b f4		 cmp	 esi, esp
  00213	e9 00 00 00 00	 jmp	 __RTC_CheckEsp
$L192578:
  00218	8b f4		 mov	 esi, esp
  0021a	8b 4d dc	 mov	 ecx, DWORD PTR $T192572[ebp]
  0021d	ff 15 00 00 00
	00		 call	 DWORD PTR __imp_??1?$CStringT@DV?$StrTraitMFC_DLL@DV?$ChTraitsCRT@D@ATL@@@@@ATL@@QAE@XZ
  00223	3b f4		 cmp	 esi, esp
  00225	e9 00 00 00 00	 jmp	 __RTC_CheckEsp
__ehhandler$?InsertItem@CLocalMusicCoverList@@QAEHPAVCDibBitmap@@V?$CStringT@DV?$StrTraitMFC_DLL@DV?$ChTraitsCRT@D@ATL@@@@@ATL@@1V?$basic_string@DU?$char_traits@D@std@@V?$allocator@D@2@@std@@H@Z:
  0022a	b8 00 00 00 00	 mov	 eax, OFFSET FLAT:$T192581
  0022f	e9 00 00 00 00	 jmp	 ___CxxFrameHandler
text$x	ENDS
?InsertItem@CLocalMusicCoverList@@QAEHPAVCDibBitmap@@V?$CStringT@DV?$StrTraitMFC_DLL@DV?$ChTraitsCRT@D@ATL@@@@@ATL@@1V?$basic_string@DU?$char_traits@D@std@@V?$allocator@D@2@@std@@H@Z ENDP ; CLocalMusicCoverList::InsertItem
PUBLIC	?InsertItem@CLocalMusicCoverList@@QAEHPBDV?$CStringT@DV?$StrTraitMFC_DLL@DV?$ChTraitsCRT@D@ATL@@@@@ATL@@1V?$basic_string@DU?$char_traits@D@std@@V?$allocator@D@2@@std@@H@Z ; CLocalMusicCoverList::InsertItem
EXTRN	?InsertItem@CLMCDataMgr@@QAEHV?$CStringT@DV?$StrTraitMFC_DLL@DV?$ChTraitsCRT@D@ATL@@@@@ATL@@00V?$basic_string@DU?$char_traits@D@std@@V?$allocator@D@2@@std@@H@Z:NEAR ; CLMCDataMgr::InsertItem
xdata$x	SEGMENT
$T192600 DD	0ffffffffH
	DD	FLAT:$L192590
	DD	00H
	DD	FLAT:$L192591
	DD	01H
	DD	FLAT:$L192592
	DD	02H
	DD	FLAT:$L192593
	DD	03H
	DD	FLAT:$L192594
	DD	04H
	DD	FLAT:$L192595
$T192598 DD	019930520H
	DD	06H
	DD	FLAT:$T192600
	DD	2 DUP(00H)
	DD	2 DUP(00H)
; Function compile flags: /Odt /RTCsu
xdata$x	ENDS
_TEXT	SEGMENT
tv162 = -68						; size = 4
tv171 = -64						; size = 4
tv168 = -60						; size = 4
tv187 = -56						; size = 4
tv165 = -52						; size = 4
tv184 = -48						; size = 4
tv161 = -44						; size = 4
tv181 = -40						; size = 4
$T192589 = -36						; size = 4
$T192588 = -32						; size = 4
$T192587 = -28						; size = 4
$T192586 = -24						; size = 4
$T192585 = -20						; size = 4
_this$ = -16						; size = 4
__$EHRec$ = -12						; size = 12
_szImgPath$ = 8						; size = 4
_strItemName$ = 12					; size = 4
_strdetail$ = 16					; size = 4
_strGID$ = 20						; size = 28
_blSel$ = 48						; size = 4
?InsertItem@CLocalMusicCoverList@@QAEHPBDV?$CStringT@DV?$StrTraitMFC_DLL@DV?$ChTraitsCRT@D@ATL@@@@@ATL@@1V?$basic_string@DU?$char_traits@D@std@@V?$allocator@D@2@@std@@H@Z PROC NEAR ; CLocalMusicCoverList::InsertItem
; _this$ = ecx

; 220  : {

  01150	55		 push	 ebp
  01151	8b ec		 mov	 ebp, esp
  01153	6a ff		 push	 -1
  01155	68 00 00 00 00	 push	 __ehhandler$?InsertItem@CLocalMusicCoverList@@QAEHPBDV?$CStringT@DV?$StrTraitMFC_DLL@DV?$ChTraitsCRT@D@ATL@@@@@ATL@@1V?$basic_string@DU?$char_traits@D@std@@V?$allocator@D@2@@std@@H@Z
  0115a	64 a1 00 00 00
	00		 mov	 eax, DWORD PTR fs:__except_list
  01160	50		 push	 eax
  01161	64 89 25 00 00
	00 00		 mov	 DWORD PTR fs:__except_list, esp
  01168	83 ec 38	 sub	 esp, 56			; 00000038H
  0116b	56		 push	 esi
  0116c	57		 push	 edi
  0116d	51		 push	 ecx
  0116e	8d 7d bc	 lea	 edi, DWORD PTR [ebp-68]
  01171	b9 0e 00 00 00	 mov	 ecx, 14			; 0000000eH
  01176	b8 cc cc cc cc	 mov	 eax, -858993460		; ccccccccH
  0117b	f3 ab		 rep stosd
  0117d	59		 pop	 ecx
  0117e	89 4d f0	 mov	 DWORD PTR _this$[ebp], ecx
  01181	c7 45 fc 02 00
	00 00		 mov	 DWORD PTR __$EHRec$[ebp+8], 2

; 221  : 	return m_DataMgr.InsertItem(szImgPath,strItemName,strdetail,strGID,blSel);

  01188	8b 45 30	 mov	 eax, DWORD PTR _blSel$[ebp]
  0118b	50		 push	 eax
  0118c	83 ec 1c	 sub	 esp, 28			; 0000001cH
  0118f	8b cc		 mov	 ecx, esp
  01191	89 65 e8	 mov	 DWORD PTR $T192586[ebp], esp
  01194	8b f4		 mov	 esi, esp
  01196	8d 55 14	 lea	 edx, DWORD PTR _strGID$[ebp]
  01199	52		 push	 edx
  0119a	ff 15 00 00 00
	00		 call	 DWORD PTR __imp_??0?$basic_string@DU?$char_traits@D@std@@V?$allocator@D@2@@std@@QAE@ABV01@@Z
  011a0	3b f4		 cmp	 esi, esp
  011a2	e8 00 00 00 00	 call	 __RTC_CheckEsp
  011a7	89 45 d8	 mov	 DWORD PTR tv181[ebp], eax
  011aa	8b 45 d8	 mov	 eax, DWORD PTR tv181[ebp]
  011ad	89 45 d4	 mov	 DWORD PTR tv161[ebp], eax
  011b0	c6 45 fc 03	 mov	 BYTE PTR __$EHRec$[ebp+8], 3
  011b4	51		 push	 ecx
  011b5	8b cc		 mov	 ecx, esp
  011b7	89 65 e4	 mov	 DWORD PTR $T192587[ebp], esp
  011ba	8b f4		 mov	 esi, esp
  011bc	8d 55 10	 lea	 edx, DWORD PTR _strdetail$[ebp]
  011bf	52		 push	 edx
  011c0	ff 15 00 00 00
	00		 call	 DWORD PTR __imp_??0?$CStringT@DV?$StrTraitMFC_DLL@DV?$ChTraitsCRT@D@ATL@@@@@ATL@@QAE@ABV01@@Z
  011c6	3b f4		 cmp	 esi, esp
  011c8	e8 00 00 00 00	 call	 __RTC_CheckEsp
  011cd	89 45 d0	 mov	 DWORD PTR tv184[ebp], eax
  011d0	8b 45 d0	 mov	 eax, DWORD PTR tv184[ebp]
  011d3	89 45 cc	 mov	 DWORD PTR tv165[ebp], eax
  011d6	c6 45 fc 04	 mov	 BYTE PTR __$EHRec$[ebp+8], 4
  011da	51		 push	 ecx
  011db	8b cc		 mov	 ecx, esp
  011dd	89 65 e0	 mov	 DWORD PTR $T192588[ebp], esp
  011e0	8b f4		 mov	 esi, esp
  011e2	8d 55 0c	 lea	 edx, DWORD PTR _strItemName$[ebp]
  011e5	52		 push	 edx
  011e6	ff 15 00 00 00
	00		 call	 DWORD PTR __imp_??0?$CStringT@DV?$StrTraitMFC_DLL@DV?$ChTraitsCRT@D@ATL@@@@@ATL@@QAE@ABV01@@Z
  011ec	3b f4		 cmp	 esi, esp
  011ee	e8 00 00 00 00	 call	 __RTC_CheckEsp
  011f3	89 45 c8	 mov	 DWORD PTR tv187[ebp], eax
  011f6	8b 45 c8	 mov	 eax, DWORD PTR tv187[ebp]
  011f9	89 45 c4	 mov	 DWORD PTR tv168[ebp], eax
  011fc	c6 45 fc 05	 mov	 BYTE PTR __$EHRec$[ebp+8], 5
  01200	51		 push	 ecx
  01201	8b cc		 mov	 ecx, esp
  01203	89 65 dc	 mov	 DWORD PTR $T192589[ebp], esp
  01206	8b f4		 mov	 esi, esp
  01208	8b 55 08	 mov	 edx, DWORD PTR _szImgPath$[ebp]
  0120b	52		 push	 edx
  0120c	ff 15 00 00 00
	00		 call	 DWORD PTR __imp_??0?$CStringT@DV?$StrTraitMFC_DLL@DV?$ChTraitsCRT@D@ATL@@@@@ATL@@QAE@PBD@Z
  01212	3b f4		 cmp	 esi, esp
  01214	e8 00 00 00 00	 call	 __RTC_CheckEsp
  01219	89 45 c0	 mov	 DWORD PTR tv171[ebp], eax
  0121c	8b 4d f0	 mov	 ecx, DWORD PTR _this$[ebp]
  0121f	81 c1 6c 01 00
	00		 add	 ecx, 364		; 0000016cH
  01225	c6 45 fc 02	 mov	 BYTE PTR __$EHRec$[ebp+8], 2
  01229	e8 00 00 00 00	 call	 ?InsertItem@CLMCDataMgr@@QAEHV?$CStringT@DV?$StrTraitMFC_DLL@DV?$ChTraitsCRT@D@ATL@@@@@ATL@@00V?$basic_string@DU?$char_traits@D@std@@V?$allocator@D@2@@std@@H@Z ; CLMCDataMgr::InsertItem
  0122e	89 45 bc	 mov	 DWORD PTR tv162[ebp], eax
  01231	8b 45 bc	 mov	 eax, DWORD PTR tv162[ebp]
  01234	89 45 ec	 mov	 DWORD PTR $T192585[ebp], eax
  01237	c6 45 fc 01	 mov	 BYTE PTR __$EHRec$[ebp+8], 1
  0123b	8b f4		 mov	 esi, esp
  0123d	8d 4d 0c	 lea	 ecx, DWORD PTR _strItemName$[ebp]
  01240	ff 15 00 00 00
	00		 call	 DWORD PTR __imp_??1?$CStringT@DV?$StrTraitMFC_DLL@DV?$ChTraitsCRT@D@ATL@@@@@ATL@@QAE@XZ
  01246	3b f4		 cmp	 esi, esp
  01248	e8 00 00 00 00	 call	 __RTC_CheckEsp
  0124d	c6 45 fc 00	 mov	 BYTE PTR __$EHRec$[ebp+8], 0
  01251	8b f4		 mov	 esi, esp
  01253	8d 4d 10	 lea	 ecx, DWORD PTR _strdetail$[ebp]
  01256	ff 15 00 00 00
	00		 call	 DWORD PTR __imp_??1?$CStringT@DV?$StrTraitMFC_DLL@DV?$ChTraitsCRT@D@ATL@@@@@ATL@@QAE@XZ
  0125c	3b f4		 cmp	 esi, esp
  0125e	e8 00 00 00 00	 call	 __RTC_CheckEsp
  01263	c7 45 fc ff ff
	ff ff		 mov	 DWORD PTR __$EHRec$[ebp+8], -1
  0126a	8b f4		 mov	 esi, esp
  0126c	8d 4d 14	 lea	 ecx, DWORD PTR _strGID$[ebp]
  0126f	ff 15 00 00 00
	00		 call	 DWORD PTR __imp_??1?$basic_string@DU?$char_traits@D@std@@V?$allocator@D@2@@std@@QAE@XZ
  01275	3b f4		 cmp	 esi, esp
  01277	e8 00 00 00 00	 call	 __RTC_CheckEsp
  0127c	8b 45 ec	 mov	 eax, DWORD PTR $T192585[ebp]

; 222  : }

  0127f	8b 4d f4	 mov	 ecx, DWORD PTR __$EHRec$[ebp]
  01282	64 89 0d 00 00
	00 00		 mov	 DWORD PTR fs:__except_list, ecx
  01289	5f		 pop	 edi
  0128a	5e		 pop	 esi
  0128b	83 c4 44	 add	 esp, 68			; 00000044H
  0128e	3b ec		 cmp	 ebp, esp
  01290	e8 00 00 00 00	 call	 __RTC_CheckEsp
  01295	8b e5		 mov	 esp, ebp
  01297	5d		 pop	 ebp
  01298	c2 2c 00	 ret	 44			; 0000002cH
_TEXT	ENDS
text$x	SEGMENT
$L192590:
  00234	8b f4		 mov	 esi, esp
  00236	8d 4d 14	 lea	 ecx, DWORD PTR _strGID$[ebp]
  00239	ff 15 00 00 00
	00		 call	 DWORD PTR __imp_??1?$basic_string@DU?$char_traits@D@std@@V?$allocator@D@2@@std@@QAE@XZ
  0023f	3b f4		 cmp	 esi, esp
  00241	e9 00 00 00 00	 jmp	 __RTC_CheckEsp
$L192591:
  00246	8b f4		 mov	 esi, esp
  00248	8d 4d 10	 lea	 ecx, DWORD PTR _strdetail$[ebp]
  0024b	ff 15 00 00 00
	00		 call	 DWORD PTR __imp_??1?$CStringT@DV?$StrTraitMFC_DLL@DV?$ChTraitsCRT@D@ATL@@@@@ATL@@QAE@XZ
  00251	3b f4		 cmp	 esi, esp
  00253	e9 00 00 00 00	 jmp	 __RTC_CheckEsp
$L192592:
  00258	8b f4		 mov	 esi, esp
  0025a	8d 4d 0c	 lea	 ecx, DWORD PTR _strItemName$[ebp]
  0025d	ff 15 00 00 00
	00		 call	 DWORD PTR __imp_??1?$CStringT@DV?$StrTraitMFC_DLL@DV?$ChTraitsCRT@D@ATL@@@@@ATL@@QAE@XZ
  00263	3b f4		 cmp	 esi, esp
  00265	e9 00 00 00 00	 jmp	 __RTC_CheckEsp
$L192593:
  0026a	8b f4		 mov	 esi, esp
  0026c	8b 4d e8	 mov	 ecx, DWORD PTR $T192586[ebp]
  0026f	ff 15 00 00 00
	00		 call	 DWORD PTR __imp_??1?$basic_string@DU?$char_traits@D@std@@V?$allocator@D@2@@std@@QAE@XZ
  00275	3b f4		 cmp	 esi, esp
  00277	e9 00 00 00 00	 jmp	 __RTC_CheckEsp
$L192594:
  0027c	8b f4		 mov	 esi, esp
  0027e	8b 4d e4	 mov	 ecx, DWORD PTR $T192587[ebp]
  00281	ff 15 00 00 00
	00		 call	 DWORD PTR __imp_??1?$CStringT@DV?$StrTraitMFC_DLL@DV?$ChTraitsCRT@D@ATL@@@@@ATL@@QAE@XZ
  00287	3b f4		 cmp	 esi, esp
  00289	e9 00 00 00 00	 jmp	 __RTC_CheckEsp
$L192595:
  0028e	8b f4		 mov	 esi, esp
  00290	8b 4d e0	 mov	 ecx, DWORD PTR $T192588[ebp]
  00293	ff 15 00 00 00
	00		 call	 DWORD PTR __imp_??1?$CStringT@DV?$StrTraitMFC_DLL@DV?$ChTraitsCRT@D@ATL@@@@@ATL@@QAE@XZ
  00299	3b f4		 cmp	 esi, esp
  0029b	e9 00 00 00 00	 jmp	 __RTC_CheckEsp
__ehhandler$?InsertItem@CLocalMusicCoverList@@QAEHPBDV?$CStringT@DV?$StrTraitMFC_DLL@DV?$ChTraitsCRT@D@ATL@@@@@ATL@@1V?$basic_string@DU?$char_traits@D@std@@V?$allocator@D@2@@std@@H@Z:
  002a0	b8 00 00 00 00	 mov	 eax, OFFSET FLAT:$T192598
  002a5	e9 00 00 00 00	 jmp	 ___CxxFrameHandler
text$x	ENDS
?InsertItem@CLocalMusicCoverList@@QAEHPBDV?$CStringT@DV?$StrTraitMFC_DLL@DV?$ChTraitsCRT@D@ATL@@@@@ATL@@1V?$basic_string@DU?$char_traits@D@std@@V?$allocator@D@2@@std@@H@Z ENDP ; CLocalMusicCoverList::InsertItem
PUBLIC	?begin@?$vector@U_tagLMCItemInfo@@V?$allocator@U_tagLMCItemInfo@@@std@@@std@@QAE?AViterator@12@XZ ; std::vector<_tagLMCItemInfo,std::allocator<_tagLMCItemInfo> >::begin
PUBLIC	?end@?$vector@U_tagLMCItemInfo@@V?$allocator@U_tagLMCItemInfo@@@std@@@std@@QAE?AViterator@12@XZ ; std::vector<_tagLMCItemInfo,std::allocator<_tagLMCItemInfo> >::end
PUBLIC	??0?$vector@HV?$allocator@H@std@@@std@@QAE@XZ	; std::vector<int,std::allocator<int> >::vector<int,std::allocator<int> >
PUBLIC	??0?$vector@HV?$allocator@H@std@@@std@@QAE@ABV01@@Z ; std::vector<int,std::allocator<int> >::vector<int,std::allocator<int> >
PUBLIC	??1?$vector@HV?$allocator@H@std@@@std@@QAE@XZ	; std::vector<int,std::allocator<int> >::~vector<int,std::allocator<int> >
PUBLIC	?push_back@?$vector@HV?$allocator@H@std@@@std@@QAEXABH@Z ; std::vector<int,std::allocator<int> >::push_back
PUBLIC	?GetSelectItem@CLocalMusicCoverList@@QAE?AV?$vector@HV?$allocator@H@std@@@std@@XZ ; CLocalMusicCoverList::GetSelectItem
PUBLIC	??9const_iterator@?$vector@U_tagLMCItemInfo@@V?$allocator@U_tagLMCItemInfo@@@std@@@std@@QBE_NABV012@@Z ; std::vector<_tagLMCItemInfo,std::allocator<_tagLMCItemInfo> >::const_iterator::operator!=
PUBLIC	??Citerator@?$vector@U_tagLMCItemInfo@@V?$allocator@U_tagLMCItemInfo@@@std@@@std@@QBEPAU_tagLMCItemInfo@@XZ ; std::vector<_tagLMCItemInfo,std::allocator<_tagLMCItemInfo> >::iterator::operator->
PUBLIC	??Eiterator@?$vector@U_tagLMCItemInfo@@V?$allocator@U_tagLMCItemInfo@@@std@@@std@@QAE?AV012@H@Z ; std::vector<_tagLMCItemInfo,std::allocator<_tagLMCItemInfo> >::iterator::operator++
xdata$x	SEGMENT
$T192615 DD	0ffffffffH
	DD	FLAT:$L192604
	DD	00H
	DD	FLAT:$L192603
$T192608 DD	019930520H
	DD	02H
	DD	FLAT:$T192615
	DD	2 DUP(00H)
	DD	2 DUP(00H)
; Function compile flags: /Odt /RTCsu
xdata$x	ENDS
_TEXT	SEGMENT
$T192605 = -72						; size = 4
$T192602 = -68						; size = 4
_itend$ = -60						; size = 4
_it$ = -48						; size = 4
_vIndex$ = -36						; size = 16
_this$ = -16						; size = 4
__$EHRec$ = -12						; size = 12
___$ReturnUdt$ = 8					; size = 4
?GetSelectItem@CLocalMusicCoverList@@QAE?AV?$vector@HV?$allocator@H@std@@@std@@XZ PROC NEAR ; CLocalMusicCoverList::GetSelectItem
; _this$ = ecx

; 225  : {

  012a0	55		 push	 ebp
  012a1	8b ec		 mov	 ebp, esp
  012a3	6a ff		 push	 -1
  012a5	68 00 00 00 00	 push	 __ehhandler$?GetSelectItem@CLocalMusicCoverList@@QAE?AV?$vector@HV?$allocator@H@std@@@std@@XZ
  012aa	64 a1 00 00 00
	00		 mov	 eax, DWORD PTR fs:__except_list
  012b0	50		 push	 eax
  012b1	64 89 25 00 00
	00 00		 mov	 DWORD PTR fs:__except_list, esp
  012b8	83 ec 3c	 sub	 esp, 60			; 0000003cH
  012bb	57		 push	 edi
  012bc	51		 push	 ecx
  012bd	8d 7d b8	 lea	 edi, DWORD PTR [ebp-72]
  012c0	b9 0f 00 00 00	 mov	 ecx, 15			; 0000000fH
  012c5	b8 cc cc cc cc	 mov	 eax, -858993460		; ccccccccH
  012ca	f3 ab		 rep stosd
  012cc	59		 pop	 ecx
  012cd	89 4d f0	 mov	 DWORD PTR _this$[ebp], ecx
  012d0	c7 45 b8 00 00
	00 00		 mov	 DWORD PTR $T192605[ebp], 0

; 226  : 	vector<int> vIndex;

  012d7	8d 4d dc	 lea	 ecx, DWORD PTR _vIndex$[ebp]
  012da	e8 00 00 00 00	 call	 ??0?$vector@HV?$allocator@H@std@@@std@@QAE@XZ ; std::vector<int,std::allocator<int> >::vector<int,std::allocator<int> >
  012df	c7 45 fc 01 00
	00 00		 mov	 DWORD PTR __$EHRec$[ebp+8], 1

; 227  : 	CLMCDataMgr::iterLMCItem it = m_DataMgr.m_vItem.begin();

  012e6	8d 45 d0	 lea	 eax, DWORD PTR _it$[ebp]
  012e9	50		 push	 eax
  012ea	8b 4d f0	 mov	 ecx, DWORD PTR _this$[ebp]
  012ed	81 c1 6c 01 00
	00		 add	 ecx, 364		; 0000016cH
  012f3	e8 00 00 00 00	 call	 ?begin@?$vector@U_tagLMCItemInfo@@V?$allocator@U_tagLMCItemInfo@@@std@@@std@@QAE?AViterator@12@XZ ; std::vector<_tagLMCItemInfo,std::allocator<_tagLMCItemInfo> >::begin

; 228  : 	CLMCDataMgr::iterLMCItem itend = m_DataMgr.m_vItem.end();

  012f8	8d 4d c4	 lea	 ecx, DWORD PTR _itend$[ebp]
  012fb	51		 push	 ecx
  012fc	8b 4d f0	 mov	 ecx, DWORD PTR _this$[ebp]
  012ff	81 c1 6c 01 00
	00		 add	 ecx, 364		; 0000016cH
  01305	e8 00 00 00 00	 call	 ?end@?$vector@U_tagLMCItemInfo@@V?$allocator@U_tagLMCItemInfo@@@std@@@std@@QAE?AViterator@12@XZ ; std::vector<_tagLMCItemInfo,std::allocator<_tagLMCItemInfo> >::end

; 229  : 	for (;it!=itend;it++)

  0130a	eb 0e		 jmp	 SHORT $L190055
$L190056:
  0130c	6a 00		 push	 0
  0130e	8d 55 bc	 lea	 edx, DWORD PTR $T192602[ebp]
  01311	52		 push	 edx
  01312	8d 4d d0	 lea	 ecx, DWORD PTR _it$[ebp]
  01315	e8 00 00 00 00	 call	 ??Eiterator@?$vector@U_tagLMCItemInfo@@V?$allocator@U_tagLMCItemInfo@@@std@@@std@@QAE?AV012@H@Z ; std::vector<_tagLMCItemInfo,std::allocator<_tagLMCItemInfo> >::iterator::operator++
$L190055:
  0131a	8d 45 c4	 lea	 eax, DWORD PTR _itend$[ebp]
  0131d	50		 push	 eax
  0131e	8d 4d d0	 lea	 ecx, DWORD PTR _it$[ebp]
  01321	e8 00 00 00 00	 call	 ??9const_iterator@?$vector@U_tagLMCItemInfo@@V?$allocator@U_tagLMCItemInfo@@@std@@@std@@QBE_NABV012@@Z ; std::vector<_tagLMCItemInfo,std::allocator<_tagLMCItemInfo> >::const_iterator::operator!=
  01326	0f b6 c8	 movzx	 ecx, al
  01329	85 c9		 test	 ecx, ecx
  0132b	74 24		 je	 SHORT $L190057

; 230  : 	{
; 231  : 		if (it->blSel)

  0132d	8d 4d d0	 lea	 ecx, DWORD PTR _it$[ebp]
  01330	e8 00 00 00 00	 call	 ??Citerator@?$vector@U_tagLMCItemInfo@@V?$allocator@U_tagLMCItemInfo@@@std@@@std@@QBEPAU_tagLMCItemInfo@@XZ ; std::vector<_tagLMCItemInfo,std::allocator<_tagLMCItemInfo> >::iterator::operator->
  01335	83 78 20 00	 cmp	 DWORD PTR [eax+32], 0
  01339	74 14		 je	 SHORT $L190058

; 232  : 		{
; 233  : 			vIndex.push_back(it->iIndex);

  0133b	8d 4d d0	 lea	 ecx, DWORD PTR _it$[ebp]
  0133e	e8 00 00 00 00	 call	 ??Citerator@?$vector@U_tagLMCItemInfo@@V?$allocator@U_tagLMCItemInfo@@@std@@@std@@QBEPAU_tagLMCItemInfo@@XZ ; std::vector<_tagLMCItemInfo,std::allocator<_tagLMCItemInfo> >::iterator::operator->
  01343	83 c0 1c	 add	 eax, 28			; 0000001cH
  01346	50		 push	 eax
  01347	8d 4d dc	 lea	 ecx, DWORD PTR _vIndex$[ebp]
  0134a	e8 00 00 00 00	 call	 ?push_back@?$vector@HV?$allocator@H@std@@@std@@QAEXABH@Z ; std::vector<int,std::allocator<int> >::push_back
$L190058:

; 234  : 		}
; 235  : 	}

  0134f	eb bb		 jmp	 SHORT $L190056
$L190057:

; 236  : 	return vIndex;

  01351	8d 55 dc	 lea	 edx, DWORD PTR _vIndex$[ebp]
  01354	52		 push	 edx
  01355	8b 4d 08	 mov	 ecx, DWORD PTR ___$ReturnUdt$[ebp]
  01358	e8 00 00 00 00	 call	 ??0?$vector@HV?$allocator@H@std@@@std@@QAE@ABV01@@Z ; std::vector<int,std::allocator<int> >::vector<int,std::allocator<int> >
  0135d	8b 45 b8	 mov	 eax, DWORD PTR $T192605[ebp]
  01360	83 c8 01	 or	 eax, 1
  01363	89 45 b8	 mov	 DWORD PTR $T192605[ebp], eax
  01366	c6 45 fc 00	 mov	 BYTE PTR __$EHRec$[ebp+8], 0
  0136a	8d 4d dc	 lea	 ecx, DWORD PTR _vIndex$[ebp]
  0136d	e8 00 00 00 00	 call	 ??1?$vector@HV?$allocator@H@std@@@std@@QAE@XZ ; std::vector<int,std::allocator<int> >::~vector<int,std::allocator<int> >
  01372	8b 45 08	 mov	 eax, DWORD PTR ___$ReturnUdt$[ebp]

; 237  : }

  01375	52		 push	 edx
  01376	8b cd		 mov	 ecx, ebp
  01378	50		 push	 eax
  01379	8d 15 00 00 00
	00		 lea	 edx, DWORD PTR $L192614
  0137f	e8 00 00 00 00	 call	 @_RTC_CheckStackVars@8
  01384	58		 pop	 eax
  01385	5a		 pop	 edx
  01386	8b 4d f4	 mov	 ecx, DWORD PTR __$EHRec$[ebp]
  01389	64 89 0d 00 00
	00 00		 mov	 DWORD PTR fs:__except_list, ecx
  01390	5f		 pop	 edi
  01391	83 c4 48	 add	 esp, 72			; 00000048H
  01394	3b ec		 cmp	 ebp, esp
  01396	e8 00 00 00 00	 call	 __RTC_CheckEsp
  0139b	8b e5		 mov	 esp, ebp
  0139d	5d		 pop	 ebp
  0139e	c2 04 00	 ret	 4
$L192614:
  013a1	03 00 00 00	 DD	 3
  013a5	00 00 00 00	 DD	 $L192613
$L192613:
  013a9	dc ff ff ff	 DD	 -36			; ffffffdcH
  013ad	10 00 00 00	 DD	 16			; 00000010H
  013b1	00 00 00 00	 DD	 $L192609
  013b5	d0 ff ff ff	 DD	 -48			; ffffffd0H
  013b9	04 00 00 00	 DD	 4
  013bd	00 00 00 00	 DD	 $L192610
  013c1	c4 ff ff ff	 DD	 -60			; ffffffc4H
  013c5	04 00 00 00	 DD	 4
  013c9	00 00 00 00	 DD	 $L192611
$L192611:
  013cd	69		 DB	 105			; 00000069H
  013ce	74		 DB	 116			; 00000074H
  013cf	65		 DB	 101			; 00000065H
  013d0	6e		 DB	 110			; 0000006eH
  013d1	64		 DB	 100			; 00000064H
  013d2	00		 DB	 0
$L192610:
  013d3	69		 DB	 105			; 00000069H
  013d4	74		 DB	 116			; 00000074H
  013d5	00		 DB	 0
$L192609:
  013d6	76		 DB	 118			; 00000076H
  013d7	49		 DB	 73			; 00000049H
  013d8	6e		 DB	 110			; 0000006eH
  013d9	64		 DB	 100			; 00000064H
  013da	65		 DB	 101			; 00000065H
  013db	78		 DB	 120			; 00000078H
  013dc	00		 DB	 0
_TEXT	ENDS
text$x	SEGMENT
$L192603:
  002aa	8d 4d dc	 lea	 ecx, DWORD PTR _vIndex$[ebp]
  002ad	e9 00 00 00 00	 jmp	 ??1?$vector@HV?$allocator@H@std@@@std@@QAE@XZ ; std::vector<int,std::allocator<int> >::~vector<int,std::allocator<int> >
$L192604:
  002b2	8b 45 b8	 mov	 eax, DWORD PTR $T192605[ebp]
  002b5	83 e0 01	 and	 eax, 1
  002b8	0f 84 0c 00 00
	00		 je	 $L192606
  002be	83 65 b8 fe	 and	 DWORD PTR $T192605[ebp], -2 ; fffffffeH
  002c2	8b 4d 08	 mov	 ecx, DWORD PTR ___$ReturnUdt$[ebp]
  002c5	e9 00 00 00 00	 jmp	 ??1?$vector@HV?$allocator@H@std@@@std@@QAE@XZ ; std::vector<int,std::allocator<int> >::~vector<int,std::allocator<int> >
$L192606:
  002ca	c3		 ret	 0
__ehhandler$?GetSelectItem@CLocalMusicCoverList@@QAE?AV?$vector@HV?$allocator@H@std@@@std@@XZ:
  002cb	b8 00 00 00 00	 mov	 eax, OFFSET FLAT:$T192608
  002d0	e9 00 00 00 00	 jmp	 ___CxxFrameHandler
text$x	ENDS
?GetSelectItem@CLocalMusicCoverList@@QAE?AV?$vector@HV?$allocator@H@std@@@std@@XZ ENDP ; CLocalMusicCoverList::GetSelectItem
PUBLIC	?InterlockedExchangePointer@@YGPAXPAPAXPAX@Z	; InterlockedExchangePointer
PUBLIC	?_AtlGetThreadACPFake@ATL@@YGIXZ		; ATL::_AtlGetThreadACPFake
PUBLIC	?_AtlGetThreadACPReal@ATL@@YGIXZ		; ATL::_AtlGetThreadACPReal
EXTRN	__imp__GetVersionExA@4:NEAR
; Function compile flags: /Odt /RTCsu
; File d:\program files (x86)\microsoft visual studio .net 2003\vc7\atlmfc\include\atlconv.h
;	COMDAT ?_AtlGetThreadACPThunk@ATL@@YGIXZ
_TEXT	SEGMENT
_pfnGetThreadACP$ = -164				; size = 4
_ver$ = -156						; size = 148
__$ArrayPad$ = -4					; size = 4
__$ReturnAddr$ = 4					; size = 4
?_AtlGetThreadACPThunk@ATL@@YGIXZ PROC NEAR		; ATL::_AtlGetThreadACPThunk, COMDAT

; 134  : {

  00000	55		 push	 ebp
  00001	8b ec		 mov	 ebp, esp
  00003	81 ec a4 00 00
	00		 sub	 esp, 164		; 000000a4H
  00009	56		 push	 esi
  0000a	57		 push	 edi
  0000b	8d bd 5c ff ff
	ff		 lea	 edi, DWORD PTR [ebp-164]
  00011	b9 29 00 00 00	 mov	 ecx, 41			; 00000029H
  00016	b8 cc cc cc cc	 mov	 eax, -858993460		; ccccccccH
  0001b	f3 ab		 rep stosd
  0001d	a1 00 00 00 00	 mov	 eax, DWORD PTR ___security_cookie
  00022	89 45 fc	 mov	 DWORD PTR __$ArrayPad$[ebp], eax

; 135  : 	OSVERSIONINFO ver;
; 136  : 	ATLGETTHREADACP pfnGetThreadACP;
; 137  : 
; 138  : 	ver.dwOSVersionInfoSize = sizeof( ver );

  00025	c7 85 64 ff ff
	ff 94 00 00 00	 mov	 DWORD PTR _ver$[ebp], 148 ; 00000094H

; 139  : 	::GetVersionEx( &ver );

  0002f	8b f4		 mov	 esi, esp
  00031	8d 85 64 ff ff
	ff		 lea	 eax, DWORD PTR _ver$[ebp]
  00037	50		 push	 eax
  00038	ff 15 00 00 00
	00		 call	 DWORD PTR __imp__GetVersionExA@4
  0003e	3b f4		 cmp	 esi, esp
  00040	e8 00 00 00 00	 call	 __RTC_CheckEsp

; 140  : 	if( (ver.dwPlatformId == VER_PLATFORM_WIN32_NT) && (ver.dwMajorVersion >= 5) )

  00045	83 bd 74 ff ff
	ff 02		 cmp	 DWORD PTR _ver$[ebp+16], 2
  0004c	75 15		 jne	 SHORT $L24163
  0004e	83 bd 68 ff ff
	ff 05		 cmp	 DWORD PTR _ver$[ebp+4], 5
  00055	72 0c		 jb	 SHORT $L24163

; 141  : 	{
; 142  : 		// On Win2K, CP_THREAD_ACP is supported
; 143  : 		pfnGetThreadACP = _AtlGetThreadACPReal;

  00057	c7 85 5c ff ff
	ff 00 00 00 00	 mov	 DWORD PTR _pfnGetThreadACP$[ebp], OFFSET FLAT:?_AtlGetThreadACPReal@ATL@@YGIXZ ; ATL::_AtlGetThreadACPReal

; 144  : 	}
; 145  : 	else

  00061	eb 0a		 jmp	 SHORT $L24164
$L24163:

; 146  : 	{
; 147  : 		pfnGetThreadACP = _AtlGetThreadACPFake;

  00063	c7 85 5c ff ff
	ff 00 00 00 00	 mov	 DWORD PTR _pfnGetThreadACP$[ebp], OFFSET FLAT:?_AtlGetThreadACPFake@ATL@@YGIXZ ; ATL::_AtlGetThreadACPFake
$L24164:

; 148  : 	}
; 149  : 	InterlockedExchangePointer( reinterpret_cast< void** >(&g_pfnGetThreadACP), pfnGetThreadACP );

  0006d	8b 8d 5c ff ff
	ff		 mov	 ecx, DWORD PTR _pfnGetThreadACP$[ebp]
  00073	51		 push	 ecx
  00074	68 00 00 00 00	 push	 OFFSET FLAT:?g_pfnGetThreadACP@ATL@@3P6GIXZA ; ATL::g_pfnGetThreadACP
  00079	e8 00 00 00 00	 call	 ?InterlockedExchangePointer@@YGPAXPAPAXPAX@Z ; InterlockedExchangePointer

; 150  : 
; 151  : 	return( g_pfnGetThreadACP() );

  0007e	8b f4		 mov	 esi, esp
  00080	ff 15 00 00 00
	00		 call	 DWORD PTR ?g_pfnGetThreadACP@ATL@@3P6GIXZA ; ATL::g_pfnGetThreadACP
  00086	3b f4		 cmp	 esi, esp
  00088	e8 00 00 00 00	 call	 __RTC_CheckEsp

; 152  : }

  0008d	52		 push	 edx
  0008e	8b cd		 mov	 ecx, ebp
  00090	50		 push	 eax
  00091	8d 15 00 00 00
	00		 lea	 edx, DWORD PTR $L192621
  00097	e8 00 00 00 00	 call	 @_RTC_CheckStackVars@8
  0009c	58		 pop	 eax
  0009d	5a		 pop	 edx
  0009e	8b 4d fc	 mov	 ecx, DWORD PTR __$ArrayPad$[ebp]
  000a1	e8 00 00 00 00	 call	 @__security_check_cookie@4
  000a6	5f		 pop	 edi
  000a7	5e		 pop	 esi
  000a8	81 c4 a4 00 00
	00		 add	 esp, 164		; 000000a4H
  000ae	3b ec		 cmp	 ebp, esp
  000b0	e8 00 00 00 00	 call	 __RTC_CheckEsp
  000b5	8b e5		 mov	 esp, ebp
  000b7	5d		 pop	 ebp
  000b8	c3		 ret	 0
$L192621:
  000b9	01 00 00 00	 DD	 1
  000bd	00 00 00 00	 DD	 $L192620
$L192620:
  000c1	64 ff ff ff	 DD	 -156			; ffffff64H
  000c5	94 00 00 00	 DD	 148			; 00000094H
  000c9	00 00 00 00	 DD	 $L192618
$L192618:
  000cd	76		 DB	 118			; 00000076H
  000ce	65		 DB	 101			; 00000065H
  000cf	72		 DB	 114			; 00000072H
  000d0	00		 DB	 0
?_AtlGetThreadACPThunk@ATL@@YGIXZ ENDP			; ATL::_AtlGetThreadACPThunk
_TEXT	ENDS
EXTRN	__imp__InterlockedExchange@8:NEAR
; Function compile flags: /Odt /RTCsu
;	COMDAT ?InterlockedExchangePointer@@YGPAXPAPAXPAX@Z
_TEXT	SEGMENT
_pp$ = 8						; size = 4
_pNew$ = 12						; size = 4
?InterlockedExchangePointer@@YGPAXPAPAXPAX@Z PROC NEAR	; InterlockedExchangePointer, COMDAT

; 91   : {

  00000	55		 push	 ebp
  00001	8b ec		 mov	 ebp, esp
  00003	56		 push	 esi

; 92   : 	return( reinterpret_cast<void*>(static_cast<LONG_PTR>(::InterlockedExchange(reinterpret_cast<LONG*>(pp), static_cast<LONG>(reinterpret_cast<LONG_PTR>(pNew))))) );

  00004	8b f4		 mov	 esi, esp
  00006	8b 45 0c	 mov	 eax, DWORD PTR _pNew$[ebp]
  00009	50		 push	 eax
  0000a	8b 4d 08	 mov	 ecx, DWORD PTR _pp$[ebp]
  0000d	51		 push	 ecx
  0000e	ff 15 00 00 00
	00		 call	 DWORD PTR __imp__InterlockedExchange@8
  00014	3b f4		 cmp	 esi, esp
  00016	e8 00 00 00 00	 call	 __RTC_CheckEsp

; 93   : }

  0001b	5e		 pop	 esi
  0001c	3b ec		 cmp	 ebp, esp
  0001e	e8 00 00 00 00	 call	 __RTC_CheckEsp
  00023	5d		 pop	 ebp
  00024	c2 08 00	 ret	 8
?InterlockedExchangePointer@@YGPAXPAPAXPAX@Z ENDP	; InterlockedExchangePointer
_TEXT	ENDS
EXTRN	__imp__GetACP@0:NEAR
EXTRN	__imp__GetLocaleInfoA@16:NEAR
EXTRN	__imp__GetThreadLocale@0:NEAR
; Function compile flags: /Odt /RTCsu
;	COMDAT ?_AtlGetThreadACPFake@ATL@@YGIXZ
_TEXT	SEGMENT
_pch$24151 = -32					; size = 4
_szACP$ = -24						; size = 7
_lcidThread$ = -12					; size = 4
_nACP$ = -8						; size = 4
__$ArrayPad$ = -4					; size = 4
__$ReturnAddr$ = 4					; size = 4
?_AtlGetThreadACPFake@ATL@@YGIXZ PROC NEAR		; ATL::_AtlGetThreadACPFake, COMDAT

; 101  : {

  00000	55		 push	 ebp
  00001	8b ec		 mov	 ebp, esp
  00003	83 ec 20	 sub	 esp, 32			; 00000020H
  00006	56		 push	 esi
  00007	b8 cc cc cc cc	 mov	 eax, -858993460		; ccccccccH
  0000c	89 45 e0	 mov	 DWORD PTR [ebp-32], eax
  0000f	89 45 e4	 mov	 DWORD PTR [ebp-28], eax
  00012	89 45 e8	 mov	 DWORD PTR [ebp-24], eax
  00015	89 45 ec	 mov	 DWORD PTR [ebp-20], eax
  00018	89 45 f0	 mov	 DWORD PTR [ebp-16], eax
  0001b	89 45 f4	 mov	 DWORD PTR [ebp-12], eax
  0001e	89 45 f8	 mov	 DWORD PTR [ebp-8], eax
  00021	89 45 fc	 mov	 DWORD PTR [ebp-4], eax
  00024	a1 00 00 00 00	 mov	 eax, DWORD PTR ___security_cookie
  00029	89 45 fc	 mov	 DWORD PTR __$ArrayPad$[ebp], eax

; 102  : 	UINT nACP = 0;

  0002c	c7 45 f8 00 00
	00 00		 mov	 DWORD PTR _nACP$[ebp], 0

; 103  : 
; 104  : 	LCID lcidThread = ::GetThreadLocale();

  00033	8b f4		 mov	 esi, esp
  00035	ff 15 00 00 00
	00		 call	 DWORD PTR __imp__GetThreadLocale@0
  0003b	3b f4		 cmp	 esi, esp
  0003d	e8 00 00 00 00	 call	 __RTC_CheckEsp
  00042	89 45 f4	 mov	 DWORD PTR _lcidThread$[ebp], eax

; 105  : 
; 106  : 	char szACP[7];
; 107  : 	// GetLocaleInfoA will fail for a Unicode-only LCID, but those are only supported on 
; 108  : 	// Windows 2000.  Since Windows 2000 supports CP_THREAD_ACP, this code path is never
; 109  : 	// executed on Windows 2000.
; 110  : 	if (::GetLocaleInfoA(lcidThread, LOCALE_IDEFAULTANSICODEPAGE, szACP, 7) != 0)

  00045	8b f4		 mov	 esi, esp
  00047	6a 07		 push	 7
  00049	8d 45 e8	 lea	 eax, DWORD PTR _szACP$[ebp]
  0004c	50		 push	 eax
  0004d	68 04 10 00 00	 push	 4100			; 00001004H
  00052	8b 4d f4	 mov	 ecx, DWORD PTR _lcidThread$[ebp]
  00055	51		 push	 ecx
  00056	ff 15 00 00 00
	00		 call	 DWORD PTR __imp__GetLocaleInfoA@16
  0005c	3b f4		 cmp	 esi, esp
  0005e	e8 00 00 00 00	 call	 __RTC_CheckEsp
  00063	85 c0		 test	 eax, eax
  00065	74 34		 je	 SHORT $L24150

; 111  : 	{
; 112  : 		char* pch = szACP;

  00067	8d 55 e8	 lea	 edx, DWORD PTR _szACP$[ebp]
  0006a	89 55 e0	 mov	 DWORD PTR _pch$24151[ebp], edx
$L24153:

; 113  : 		while (*pch != '\0')

  0006d	8b 45 e0	 mov	 eax, DWORD PTR _pch$24151[ebp]
  00070	0f be 08	 movsx	 ecx, BYTE PTR [eax]
  00073	85 c9		 test	 ecx, ecx
  00075	74 24		 je	 SHORT $L24150

; 114  : 		{
; 115  : 			nACP *= 10;

  00077	8b 55 f8	 mov	 edx, DWORD PTR _nACP$[ebp]
  0007a	6b d2 0a	 imul	 edx, 10			; 0000000aH
  0007d	89 55 f8	 mov	 DWORD PTR _nACP$[ebp], edx

; 116  : 			nACP += *pch++ - '0';

  00080	8b 45 e0	 mov	 eax, DWORD PTR _pch$24151[ebp]
  00083	0f be 08	 movsx	 ecx, BYTE PTR [eax]
  00086	8b 55 f8	 mov	 edx, DWORD PTR _nACP$[ebp]
  00089	8d 44 0a d0	 lea	 eax, DWORD PTR [edx+ecx-48]
  0008d	89 45 f8	 mov	 DWORD PTR _nACP$[ebp], eax
  00090	8b 4d e0	 mov	 ecx, DWORD PTR _pch$24151[ebp]
  00093	83 c1 01	 add	 ecx, 1
  00096	89 4d e0	 mov	 DWORD PTR _pch$24151[ebp], ecx

; 117  : 		}

  00099	eb d2		 jmp	 SHORT $L24153
$L24150:

; 118  : 	}
; 119  : 	// Use the Default ANSI Code Page if we were unable to get the thread ACP or if one does not exist.
; 120  : 	if (nACP == 0)

  0009b	83 7d f8 00	 cmp	 DWORD PTR _nACP$[ebp], 0
  0009f	75 12		 jne	 SHORT $L24155

; 121  : 		nACP = ::GetACP();

  000a1	8b f4		 mov	 esi, esp
  000a3	ff 15 00 00 00
	00		 call	 DWORD PTR __imp__GetACP@0
  000a9	3b f4		 cmp	 esi, esp
  000ab	e8 00 00 00 00	 call	 __RTC_CheckEsp
  000b0	89 45 f8	 mov	 DWORD PTR _nACP$[ebp], eax
$L24155:

; 122  : 
; 123  : 	return nACP;

  000b3	8b 45 f8	 mov	 eax, DWORD PTR _nACP$[ebp]

; 124  : }

  000b6	52		 push	 edx
  000b7	8b cd		 mov	 ecx, ebp
  000b9	50		 push	 eax
  000ba	8d 15 00 00 00
	00		 lea	 edx, DWORD PTR $L192628
  000c0	e8 00 00 00 00	 call	 @_RTC_CheckStackVars@8
  000c5	58		 pop	 eax
  000c6	5a		 pop	 edx
  000c7	8b 4d fc	 mov	 ecx, DWORD PTR __$ArrayPad$[ebp]
  000ca	e8 00 00 00 00	 call	 @__security_check_cookie@4
  000cf	5e		 pop	 esi
  000d0	83 c4 20	 add	 esp, 32			; 00000020H
  000d3	3b ec		 cmp	 ebp, esp
  000d5	e8 00 00 00 00	 call	 __RTC_CheckEsp
  000da	8b e5		 mov	 esp, ebp
  000dc	5d		 pop	 ebp
  000dd	c3		 ret	 0
$L192628:
  000de	01 00 00 00	 DD	 1
  000e2	00 00 00 00	 DD	 $L192627
$L192627:
  000e6	e8 ff ff ff	 DD	 -24			; ffffffe8H
  000ea	07 00 00 00	 DD	 7
  000ee	00 00 00 00	 DD	 $L192625
$L192625:
  000f2	73		 DB	 115			; 00000073H
  000f3	7a		 DB	 122			; 0000007aH
  000f4	41		 DB	 65			; 00000041H
  000f5	43		 DB	 67			; 00000043H
  000f6	50		 DB	 80			; 00000050H
  000f7	00		 DB	 0
?_AtlGetThreadACPFake@ATL@@YGIXZ ENDP			; ATL::_AtlGetThreadACPFake
; Function compile flags: /Odt /RTCsu
_TEXT	ENDS
;	COMDAT ?_AtlGetThreadACPReal@ATL@@YGIXZ
_TEXT	SEGMENT
?_AtlGetThreadACPReal@ATL@@YGIXZ PROC NEAR		; ATL::_AtlGetThreadACPReal, COMDAT

; 127  : {

  00000	55		 push	 ebp
  00001	8b ec		 mov	 ebp, esp

; 128  : 	return( CP_THREAD_ACP );

  00003	b8 03 00 00 00	 mov	 eax, 3

; 129  : }

  00008	5d		 pop	 ebp
  00009	c3		 ret	 0
?_AtlGetThreadACPReal@ATL@@YGIXZ ENDP			; ATL::_AtlGetThreadACPReal
_TEXT	ENDS
PUBLIC	??0_tagLMCItemInfo@@QAE@ABU0@@Z			; _tagLMCItemInfo::_tagLMCItemInfo
PUBLIC	??A?$vector@U_tagLMCItemInfo@@V?$allocator@U_tagLMCItemInfo@@@std@@@std@@QAEAAU_tagLMCItemInfo@@I@Z ; std::vector<_tagLMCItemInfo,std::allocator<_tagLMCItemInfo> >::operator[]
PUBLIC	?GetItemInfoByIndex@CLocalMusicCoverList@@QAE?AU_tagLMCItemInfo@@H@Z ; CLocalMusicCoverList::GetItemInfoByIndex
; Function compile flags: /Odt /RTCsu
; File d:\boxgit\playbox\playbox\dev\prj\playbox\src\module\playedgamepanel\localmusiccoverlist.cpp
_TEXT	SEGMENT
$T192632 = -8						; size = 4
_this$ = -4						; size = 4
___$ReturnUdt$ = 8					; size = 4
_iItem$ = 12						; size = 4
?GetItemInfoByIndex@CLocalMusicCoverList@@QAE?AU_tagLMCItemInfo@@H@Z PROC NEAR ; CLocalMusicCoverList::GetItemInfoByIndex
; _this$ = ecx

; 240  : {

  013e0	55		 push	 ebp
  013e1	8b ec		 mov	 ebp, esp
  013e3	83 ec 08	 sub	 esp, 8
  013e6	c7 45 f8 cc cc
	cc cc		 mov	 DWORD PTR [ebp-8], -858993460 ; ccccccccH
  013ed	c7 45 fc cc cc
	cc cc		 mov	 DWORD PTR [ebp-4], -858993460 ; ccccccccH
  013f4	89 4d fc	 mov	 DWORD PTR _this$[ebp], ecx
  013f7	c7 45 f8 00 00
	00 00		 mov	 DWORD PTR $T192632[ebp], 0

; 241  : 	return m_DataMgr.m_vItem[iItem];

  013fe	8b 45 0c	 mov	 eax, DWORD PTR _iItem$[ebp]
  01401	50		 push	 eax
  01402	8b 4d fc	 mov	 ecx, DWORD PTR _this$[ebp]
  01405	81 c1 6c 01 00
	00		 add	 ecx, 364		; 0000016cH
  0140b	e8 00 00 00 00	 call	 ??A?$vector@U_tagLMCItemInfo@@V?$allocator@U_tagLMCItemInfo@@@std@@@std@@QAEAAU_tagLMCItemInfo@@I@Z ; std::vector<_tagLMCItemInfo,std::allocator<_tagLMCItemInfo> >::operator[]
  01410	50		 push	 eax
  01411	8b 4d 08	 mov	 ecx, DWORD PTR ___$ReturnUdt$[ebp]
  01414	e8 00 00 00 00	 call	 ??0_tagLMCItemInfo@@QAE@ABU0@@Z
  01419	8b 4d f8	 mov	 ecx, DWORD PTR $T192632[ebp]
  0141c	83 c9 01	 or	 ecx, 1
  0141f	89 4d f8	 mov	 DWORD PTR $T192632[ebp], ecx
  01422	8b 45 08	 mov	 eax, DWORD PTR ___$ReturnUdt$[ebp]

; 242  : }

  01425	83 c4 08	 add	 esp, 8
  01428	3b ec		 cmp	 ebp, esp
  0142a	e8 00 00 00 00	 call	 __RTC_CheckEsp
  0142f	8b e5		 mov	 esp, ebp
  01431	5d		 pop	 ebp
  01432	c2 08 00	 ret	 8
?GetItemInfoByIndex@CLocalMusicCoverList@@QAE?AU_tagLMCItemInfo@@H@Z ENDP ; CLocalMusicCoverList::GetItemInfoByIndex
; Function compile flags: /Odt /RTCsu
; File d:\program files (x86)\microsoft visual studio .net 2003\vc7\atlmfc\include\atlconv.h
_TEXT	ENDS
;	COMDAT ?_AtlGetConversionACP@ATL@@YGIXZ
_TEXT	SEGMENT
?_AtlGetConversionACP@ATL@@YGIXZ PROC NEAR		; ATL::_AtlGetConversionACP, COMDAT

; 157  : {

  00000	55		 push	 ebp
  00001	8b ec		 mov	 ebp, esp
  00003	56		 push	 esi

; 158  : 	return( g_pfnGetThreadACP() );

  00004	8b f4		 mov	 esi, esp
  00006	ff 15 00 00 00
	00		 call	 DWORD PTR ?g_pfnGetThreadACP@ATL@@3P6GIXZA ; ATL::g_pfnGetThreadACP
  0000c	3b f4		 cmp	 esi, esp
  0000e	e8 00 00 00 00	 call	 __RTC_CheckEsp

; 159  : }

  00013	5e		 pop	 esi
  00014	3b ec		 cmp	 ebp, esp
  00016	e8 00 00 00 00	 call	 __RTC_CheckEsp
  0001b	5d		 pop	 ebp
  0001c	c3		 ret	 0
?_AtlGetConversionACP@ATL@@YGIXZ ENDP			; ATL::_AtlGetConversionACP
_TEXT	ENDS
PUBLIC	??_C@_08DMHHBMMN@lpa?5?$CB?$DN?50?$AA@		; `string'
PUBLIC	??_C@_0FG@PFHCBDBK@D?3?2Program?5Files?5?$CIx86?$CJ?2Microsoft@ ; `string'
PUBLIC	??_C@_08DIHJLFDJ@lpw?5?$CB?$DN?50?$AA@		; `string'
PUBLIC	??_C@_01GBGANLPD@0?$AA@				; `string'
EXTRN	__imp___CrtDbgReport:NEAR
EXTRN	__imp__MultiByteToWideChar@24:NEAR
;	COMDAT ??_C@_08DMHHBMMN@lpa?5?$CB?$DN?50?$AA@
CONST	SEGMENT
??_C@_08DMHHBMMN@lpa?5?$CB?$DN?50?$AA@ DB 'lpa != 0', 00H ; `string'
CONST	ENDS
;	COMDAT ??_C@_0FG@PFHCBDBK@D?3?2Program?5Files?5?$CIx86?$CJ?2Microsoft@
CONST	SEGMENT
??_C@_0FG@PFHCBDBK@D?3?2Program?5Files?5?$CIx86?$CJ?2Microsoft@ DB 'D:\Pr'
	DB	'ogram Files (x86)\Microsoft Visual Studio .NET 2003\Vc7\atlmf'
	DB	'c\include\atlconv.h', 00H			; `string'
CONST	ENDS
;	COMDAT ??_C@_08DIHJLFDJ@lpw?5?$CB?$DN?50?$AA@
CONST	SEGMENT
??_C@_08DIHJLFDJ@lpw?5?$CB?$DN?50?$AA@ DB 'lpw != 0', 00H ; `string'
CONST	ENDS
;	COMDAT ??_C@_01GBGANLPD@0?$AA@
CONST	SEGMENT
??_C@_01GBGANLPD@0?$AA@ DB '0', 00H			; `string'
; Function compile flags: /Odt /RTCsu
CONST	ENDS
;	COMDAT ?AtlA2WHelper@@YGPA_WPA_WPBDHI@Z
_TEXT	SEGMENT
_ret$ = -4						; size = 4
_lpw$ = 8						; size = 4
_lpa$ = 12						; size = 4
_nChars$ = 16						; size = 4
_acp$ = 20						; size = 4
?AtlA2WHelper@@YGPA_WPA_WPBDHI@Z PROC NEAR		; AtlA2WHelper, COMDAT

; 554  : {

  00000	55		 push	 ebp
  00001	8b ec		 mov	 ebp, esp
  00003	51		 push	 ecx
  00004	56		 push	 esi
  00005	c7 45 fc cc cc
	cc cc		 mov	 DWORD PTR [ebp-4], -858993460 ; ccccccccH

; 555  : 	ATLASSERT(lpa != NULL);

  0000c	83 7d 0c 00	 cmp	 DWORD PTR _lpa$[ebp], 0
  00010	75 2b		 jne	 SHORT $L192636
  00012	8b f4		 mov	 esi, esp
  00014	68 00 00 00 00	 push	 OFFSET FLAT:??_C@_08DMHHBMMN@lpa?5?$CB?$DN?50?$AA@
  00019	6a 00		 push	 0
  0001b	68 2b 02 00 00	 push	 555			; 0000022bH
  00020	68 00 00 00 00	 push	 OFFSET FLAT:??_C@_0FG@PFHCBDBK@D?3?2Program?5Files?5?$CIx86?$CJ?2Microsoft@
  00025	6a 02		 push	 2
  00027	ff 15 00 00 00
	00		 call	 DWORD PTR __imp___CrtDbgReport
  0002d	83 c4 14	 add	 esp, 20			; 00000014H
  00030	3b f4		 cmp	 esi, esp
  00032	e8 00 00 00 00	 call	 __RTC_CheckEsp
  00037	83 f8 01	 cmp	 eax, 1
  0003a	75 01		 jne	 SHORT $L192636
  0003c	cc		 int	 3
$L192636:

; 556  : 	ATLASSERT(lpw != NULL);

  0003d	83 7d 08 00	 cmp	 DWORD PTR _lpw$[ebp], 0
  00041	75 2b		 jne	 SHORT $L192637
  00043	8b f4		 mov	 esi, esp
  00045	68 00 00 00 00	 push	 OFFSET FLAT:??_C@_08DIHJLFDJ@lpw?5?$CB?$DN?50?$AA@
  0004a	6a 00		 push	 0
  0004c	68 2c 02 00 00	 push	 556			; 0000022cH
  00051	68 00 00 00 00	 push	 OFFSET FLAT:??_C@_0FG@PFHCBDBK@D?3?2Program?5Files?5?$CIx86?$CJ?2Microsoft@
  00056	6a 02		 push	 2
  00058	ff 15 00 00 00
	00		 call	 DWORD PTR __imp___CrtDbgReport
  0005e	83 c4 14	 add	 esp, 20			; 00000014H
  00061	3b f4		 cmp	 esi, esp
  00063	e8 00 00 00 00	 call	 __RTC_CheckEsp
  00068	83 f8 01	 cmp	 eax, 1
  0006b	75 01		 jne	 SHORT $L192637
  0006d	cc		 int	 3
$L192637:

; 557  : 	if (lpw == NULL || lpa == NULL)

  0006e	83 7d 08 00	 cmp	 DWORD PTR _lpw$[ebp], 0
  00072	74 06		 je	 SHORT $L24299
  00074	83 7d 0c 00	 cmp	 DWORD PTR _lpa$[ebp], 0
  00078	75 04		 jne	 SHORT $L24298
$L24299:

; 558  : 		return NULL;

  0007a	33 c0		 xor	 eax, eax
  0007c	eb 6a		 jmp	 SHORT $L24292
$L24298:

; 559  : 	// verify that no illegal character present
; 560  : 	// since lpw was allocated based on the size of lpa
; 561  : 	// don't worry about the number of chars
; 562  : 	lpw[0] = '\0';

  0007e	8b 55 08	 mov	 edx, DWORD PTR _lpw$[ebp]
  00081	66 c7 02 00 00	 mov	 WORD PTR [edx], 0

; 563  : 	int ret = MultiByteToWideChar(acp, 0, lpa, -1, lpw, nChars);

  00086	8b f4		 mov	 esi, esp
  00088	8b 45 10	 mov	 eax, DWORD PTR _nChars$[ebp]
  0008b	50		 push	 eax
  0008c	8b 4d 08	 mov	 ecx, DWORD PTR _lpw$[ebp]
  0008f	51		 push	 ecx
  00090	6a ff		 push	 -1
  00092	8b 55 0c	 mov	 edx, DWORD PTR _lpa$[ebp]
  00095	52		 push	 edx
  00096	6a 00		 push	 0
  00098	8b 45 14	 mov	 eax, DWORD PTR _acp$[ebp]
  0009b	50		 push	 eax
  0009c	ff 15 00 00 00
	00		 call	 DWORD PTR __imp__MultiByteToWideChar@24
  000a2	3b f4		 cmp	 esi, esp
  000a4	e8 00 00 00 00	 call	 __RTC_CheckEsp
  000a9	89 45 fc	 mov	 DWORD PTR _ret$[ebp], eax

; 564  : 	if(ret == 0)

  000ac	83 7d fc 00	 cmp	 DWORD PTR _ret$[ebp], 0
  000b0	75 33		 jne	 SHORT $L24301

; 565  : 	{
; 566  : 		ATLASSERT(FALSE);

  000b2	33 c9		 xor	 ecx, ecx
  000b4	75 2b		 jne	 SHORT $L192638
  000b6	8b f4		 mov	 esi, esp
  000b8	68 00 00 00 00	 push	 OFFSET FLAT:??_C@_01GBGANLPD@0?$AA@
  000bd	6a 00		 push	 0
  000bf	68 36 02 00 00	 push	 566			; 00000236H
  000c4	68 00 00 00 00	 push	 OFFSET FLAT:??_C@_0FG@PFHCBDBK@D?3?2Program?5Files?5?$CIx86?$CJ?2Microsoft@
  000c9	6a 02		 push	 2
  000cb	ff 15 00 00 00
	00		 call	 DWORD PTR __imp___CrtDbgReport
  000d1	83 c4 14	 add	 esp, 20			; 00000014H
  000d4	3b f4		 cmp	 esi, esp
  000d6	e8 00 00 00 00	 call	 __RTC_CheckEsp
  000db	83 f8 01	 cmp	 eax, 1
  000de	75 01		 jne	 SHORT $L192638
  000e0	cc		 int	 3
$L192638:

; 567  : 		return NULL;

  000e1	33 c0		 xor	 eax, eax
  000e3	eb 03		 jmp	 SHORT $L24292
$L24301:

; 568  : 	}		
; 569  : 	return lpw;

  000e5	8b 45 08	 mov	 eax, DWORD PTR _lpw$[ebp]
$L24292:

; 570  : }

  000e8	5e		 pop	 esi
  000e9	83 c4 04	 add	 esp, 4
  000ec	3b ec		 cmp	 ebp, esp
  000ee	e8 00 00 00 00	 call	 __RTC_CheckEsp
  000f3	8b e5		 mov	 esp, ebp
  000f5	5d		 pop	 ebp
  000f6	c2 10 00	 ret	 16			; 00000010H
?AtlA2WHelper@@YGPA_WPA_WPBDHI@Z ENDP			; AtlA2WHelper
_TEXT	ENDS
;	COMDAT xdata$x
xdata$x	SEGMENT
$T192647 DD	0ffffffffH
	DD	FLAT:$L192640
	DD	00H
	DD	FLAT:$L192641
	DD	01H
	DD	FLAT:$L192642
$T192645 DD	019930520H
	DD	03H
	DD	FLAT:$T192647
	DD	2 DUP(00H)
	DD	2 DUP(00H)
; Function compile flags: /Odt /RTCsu
xdata$x	ENDS
;	COMDAT ??0_tagLMCItemInfo@@QAE@ABU0@@Z
_TEXT	SEGMENT
_this$ = -16						; size = 4
__$EHRec$ = -12						; size = 12
___that$ = 8						; size = 4
??0_tagLMCItemInfo@@QAE@ABU0@@Z PROC NEAR		; _tagLMCItemInfo::_tagLMCItemInfo, COMDAT
; _this$ = ecx
  00000	55		 push	 ebp
  00001	8b ec		 mov	 ebp, esp
  00003	6a ff		 push	 -1
  00005	68 00 00 00 00	 push	 __ehhandler$??0_tagLMCItemInfo@@QAE@ABU0@@Z
  0000a	64 a1 00 00 00
	00		 mov	 eax, DWORD PTR fs:__except_list
  00010	50		 push	 eax
  00011	64 89 25 00 00
	00 00		 mov	 DWORD PTR fs:__except_list, esp
  00018	51		 push	 ecx
  00019	56		 push	 esi
  0001a	c7 45 f0 cc cc
	cc cc		 mov	 DWORD PTR [ebp-16], -858993460 ; ccccccccH
  00021	89 4d f0	 mov	 DWORD PTR _this$[ebp], ecx
  00024	8b f4		 mov	 esi, esp
  00026	8b 45 08	 mov	 eax, DWORD PTR ___that$[ebp]
  00029	50		 push	 eax
  0002a	8b 4d f0	 mov	 ecx, DWORD PTR _this$[ebp]
  0002d	ff 15 00 00 00
	00		 call	 DWORD PTR __imp_??0?$basic_string@DU?$char_traits@D@std@@V?$allocator@D@2@@std@@QAE@ABV01@@Z
  00033	3b f4		 cmp	 esi, esp
  00035	e8 00 00 00 00	 call	 __RTC_CheckEsp
  0003a	c7 45 fc 00 00
	00 00		 mov	 DWORD PTR __$EHRec$[ebp+8], 0
  00041	8b 4d f0	 mov	 ecx, DWORD PTR _this$[ebp]
  00044	8b 55 08	 mov	 edx, DWORD PTR ___that$[ebp]
  00047	8b 42 1c	 mov	 eax, DWORD PTR [edx+28]
  0004a	89 41 1c	 mov	 DWORD PTR [ecx+28], eax
  0004d	8b 4d f0	 mov	 ecx, DWORD PTR _this$[ebp]
  00050	8b 55 08	 mov	 edx, DWORD PTR ___that$[ebp]
  00053	8b 42 20	 mov	 eax, DWORD PTR [edx+32]
  00056	89 41 20	 mov	 DWORD PTR [ecx+32], eax
  00059	8b 4d f0	 mov	 ecx, DWORD PTR _this$[ebp]
  0005c	8b 55 08	 mov	 edx, DWORD PTR ___that$[ebp]
  0005f	8b 42 24	 mov	 eax, DWORD PTR [edx+36]
  00062	89 41 24	 mov	 DWORD PTR [ecx+36], eax
  00065	8b 4d 08	 mov	 ecx, DWORD PTR ___that$[ebp]
  00068	83 c1 28	 add	 ecx, 40			; 00000028H
  0006b	8b f4		 mov	 esi, esp
  0006d	51		 push	 ecx
  0006e	8b 4d f0	 mov	 ecx, DWORD PTR _this$[ebp]
  00071	83 c1 28	 add	 ecx, 40			; 00000028H
  00074	ff 15 00 00 00
	00		 call	 DWORD PTR __imp_??0?$CStringT@DV?$StrTraitMFC_DLL@DV?$ChTraitsCRT@D@ATL@@@@@ATL@@QAE@ABV01@@Z
  0007a	3b f4		 cmp	 esi, esp
  0007c	e8 00 00 00 00	 call	 __RTC_CheckEsp
  00081	c6 45 fc 01	 mov	 BYTE PTR __$EHRec$[ebp+8], 1
  00085	8b 55 08	 mov	 edx, DWORD PTR ___that$[ebp]
  00088	83 c2 2c	 add	 edx, 44			; 0000002cH
  0008b	8b f4		 mov	 esi, esp
  0008d	52		 push	 edx
  0008e	8b 4d f0	 mov	 ecx, DWORD PTR _this$[ebp]
  00091	83 c1 2c	 add	 ecx, 44			; 0000002cH
  00094	ff 15 00 00 00
	00		 call	 DWORD PTR __imp_??0?$CStringT@DV?$StrTraitMFC_DLL@DV?$ChTraitsCRT@D@ATL@@@@@ATL@@QAE@ABV01@@Z
  0009a	3b f4		 cmp	 esi, esp
  0009c	e8 00 00 00 00	 call	 __RTC_CheckEsp
  000a1	c6 45 fc 02	 mov	 BYTE PTR __$EHRec$[ebp+8], 2
  000a5	8b 45 08	 mov	 eax, DWORD PTR ___that$[ebp]
  000a8	83 c0 30	 add	 eax, 48			; 00000030H
  000ab	8b f4		 mov	 esi, esp
  000ad	50		 push	 eax
  000ae	8b 4d f0	 mov	 ecx, DWORD PTR _this$[ebp]
  000b1	83 c1 30	 add	 ecx, 48			; 00000030H
  000b4	ff 15 00 00 00
	00		 call	 DWORD PTR __imp_??0?$CStringT@DV?$StrTraitMFC_DLL@DV?$ChTraitsCRT@D@ATL@@@@@ATL@@QAE@ABV01@@Z
  000ba	3b f4		 cmp	 esi, esp
  000bc	e8 00 00 00 00	 call	 __RTC_CheckEsp
  000c1	8b 4d 08	 mov	 ecx, DWORD PTR ___that$[ebp]
  000c4	83 c1 34	 add	 ecx, 52			; 00000034H
  000c7	8b 55 f0	 mov	 edx, DWORD PTR _this$[ebp]
  000ca	83 c2 34	 add	 edx, 52			; 00000034H
  000cd	8b 01		 mov	 eax, DWORD PTR [ecx]
  000cf	89 02		 mov	 DWORD PTR [edx], eax
  000d1	8b 41 04	 mov	 eax, DWORD PTR [ecx+4]
  000d4	89 42 04	 mov	 DWORD PTR [edx+4], eax
  000d7	8b 41 08	 mov	 eax, DWORD PTR [ecx+8]
  000da	89 42 08	 mov	 DWORD PTR [edx+8], eax
  000dd	8b 49 0c	 mov	 ecx, DWORD PTR [ecx+12]
  000e0	89 4a 0c	 mov	 DWORD PTR [edx+12], ecx
  000e3	c7 45 fc ff ff
	ff ff		 mov	 DWORD PTR __$EHRec$[ebp+8], -1
  000ea	8b 45 f0	 mov	 eax, DWORD PTR _this$[ebp]
  000ed	8b 4d f4	 mov	 ecx, DWORD PTR __$EHRec$[ebp]
  000f0	64 89 0d 00 00
	00 00		 mov	 DWORD PTR fs:__except_list, ecx
  000f7	5e		 pop	 esi
  000f8	83 c4 10	 add	 esp, 16			; 00000010H
  000fb	3b ec		 cmp	 ebp, esp
  000fd	e8 00 00 00 00	 call	 __RTC_CheckEsp
  00102	8b e5		 mov	 esp, ebp
  00104	5d		 pop	 ebp
  00105	c2 04 00	 ret	 4
_TEXT	ENDS
;	COMDAT text$x
text$x	SEGMENT
$L192640:
  00000	8b f4		 mov	 esi, esp
  00002	8b 4d f0	 mov	 ecx, DWORD PTR _this$[ebp]
  00005	ff 15 00 00 00
	00		 call	 DWORD PTR __imp_??1?$basic_string@DU?$char_traits@D@std@@V?$allocator@D@2@@std@@QAE@XZ
  0000b	3b f4		 cmp	 esi, esp
  0000d	e9 00 00 00 00	 jmp	 __RTC_CheckEsp
$L192641:
  00012	8b 4d f0	 mov	 ecx, DWORD PTR _this$[ebp]
  00015	83 c1 28	 add	 ecx, 40			; 00000028H
  00018	8b f4		 mov	 esi, esp
  0001a	ff 15 00 00 00
	00		 call	 DWORD PTR __imp_??1?$CStringT@DV?$StrTraitMFC_DLL@DV?$ChTraitsCRT@D@ATL@@@@@ATL@@QAE@XZ
  00020	3b f4		 cmp	 esi, esp
  00022	e9 00 00 00 00	 jmp	 __RTC_CheckEsp
$L192642:
  00027	8b 4d f0	 mov	 ecx, DWORD PTR _this$[ebp]
  0002a	83 c1 2c	 add	 ecx, 44			; 0000002cH
  0002d	8b f4		 mov	 esi, esp
  0002f	ff 15 00 00 00
	00		 call	 DWORD PTR __imp_??1?$CStringT@DV?$StrTraitMFC_DLL@DV?$ChTraitsCRT@D@ATL@@@@@ATL@@QAE@XZ
  00035	3b f4		 cmp	 esi, esp
  00037	e9 00 00 00 00	 jmp	 __RTC_CheckEsp
__ehhandler$??0_tagLMCItemInfo@@QAE@ABU0@@Z:
  0003c	b8 00 00 00 00	 mov	 eax, OFFSET FLAT:$T192645
  00041	e9 00 00 00 00	 jmp	 ___CxxFrameHandler
text$x	ENDS
??0_tagLMCItemInfo@@QAE@ABU0@@Z ENDP			; _tagLMCItemInfo::_tagLMCItemInfo
PUBLIC	?OnCalcTracker@CLocalMusicCoverList@@IAEXXZ	; CLocalMusicCoverList::OnCalcTracker
EXTRN	??0CPoint@@QAE@XZ:NEAR				; CPoint::CPoint
EXTRN	__imp__GetCursorPos@4:NEAR
EXTRN	?ScreenToClient@CWnd@@QBEXPAUtagPOINT@@@Z:NEAR	; CWnd::ScreenToClient
; Function compile flags: /Odt /RTCsu
; File d:\boxgit\playbox\playbox\dev\prj\playbox\src\module\playedgamepanel\localmusiccoverlist.cpp
_TEXT	SEGMENT
_point$190071 = -16					; size = 8
_this$ = -4						; size = 4
?OnCalcTracker@CLocalMusicCoverList@@IAEXXZ PROC NEAR	; CLocalMusicCoverList::OnCalcTracker
; _this$ = ecx

; 245  : {

  01440	55		 push	 ebp
  01441	8b ec		 mov	 ebp, esp
  01443	83 ec 14	 sub	 esp, 20			; 00000014H
  01446	56		 push	 esi
  01447	b8 cc cc cc cc	 mov	 eax, -858993460		; ccccccccH
  0144c	89 45 ec	 mov	 DWORD PTR [ebp-20], eax
  0144f	89 45 f0	 mov	 DWORD PTR [ebp-16], eax
  01452	89 45 f4	 mov	 DWORD PTR [ebp-12], eax
  01455	89 45 f8	 mov	 DWORD PTR [ebp-8], eax
  01458	89 45 fc	 mov	 DWORD PTR [ebp-4], eax
  0145b	89 4d fc	 mov	 DWORD PTR _this$[ebp], ecx

; 246  : 	if (m_blTracker)

  0145e	8b 45 fc	 mov	 eax, DWORD PTR _this$[ebp]
  01461	83 b8 68 01 00
	00 00		 cmp	 DWORD PTR [eax+360], 0
  01468	0f 84 26 01 00
	00		 je	 $L190069

; 247  : 	{
; 248  : 		CPoint point;

  0146e	8d 4d f0	 lea	 ecx, DWORD PTR _point$190071[ebp]
  01471	e8 00 00 00 00	 call	 ??0CPoint@@QAE@XZ	; CPoint::CPoint

; 249  : 		GetCursorPos(&point);

  01476	8b f4		 mov	 esi, esp
  01478	8d 4d f0	 lea	 ecx, DWORD PTR _point$190071[ebp]
  0147b	51		 push	 ecx
  0147c	ff 15 00 00 00
	00		 call	 DWORD PTR __imp__GetCursorPos@4
  01482	3b f4		 cmp	 esi, esp
  01484	e8 00 00 00 00	 call	 __RTC_CheckEsp

; 250  : 		ScreenToClient(&point);

  01489	8d 55 f0	 lea	 edx, DWORD PTR _point$190071[ebp]
  0148c	52		 push	 edx
  0148d	8b 4d fc	 mov	 ecx, DWORD PTR _this$[ebp]
  01490	e8 00 00 00 00	 call	 ?ScreenToClient@CWnd@@QBEXPAUtagPOINT@@@Z ; CWnd::ScreenToClient

; 251  : 		m_ptDown.y = m_ptClientStart.y+m_iDistance;

  01495	8b 45 fc	 mov	 eax, DWORD PTR _this$[ebp]
  01498	8b 88 b0 00 00
	00		 mov	 ecx, DWORD PTR [eax+176]
  0149e	8b 55 fc	 mov	 edx, DWORD PTR _this$[ebp]
  014a1	03 8a 3c 01 00
	00		 add	 ecx, DWORD PTR [edx+316]
  014a7	8b 45 fc	 mov	 eax, DWORD PTR _this$[ebp]
  014aa	89 88 24 01 00
	00		 mov	 DWORD PTR [eax+292], ecx

; 252  : 		if (point.x>m_ptDown.x)

  014b0	8b 4d fc	 mov	 ecx, DWORD PTR _this$[ebp]
  014b3	8b 55 f0	 mov	 edx, DWORD PTR _point$190071[ebp]
  014b6	3b 91 20 01 00
	00		 cmp	 edx, DWORD PTR [ecx+288]
  014bc	7e 20		 jle	 SHORT $L190072

; 253  : 		{
; 254  : 			m_rcTracker.left = m_ptDown.x;

  014be	8b 45 fc	 mov	 eax, DWORD PTR _this$[ebp]
  014c1	8b 4d fc	 mov	 ecx, DWORD PTR _this$[ebp]
  014c4	8b 91 20 01 00
	00		 mov	 edx, DWORD PTR [ecx+288]
  014ca	89 90 2c 01 00
	00		 mov	 DWORD PTR [eax+300], edx

; 255  : 			m_rcTracker.right = point.x;

  014d0	8b 45 fc	 mov	 eax, DWORD PTR _this$[ebp]
  014d3	8b 4d f0	 mov	 ecx, DWORD PTR _point$190071[ebp]
  014d6	89 88 34 01 00
	00		 mov	 DWORD PTR [eax+308], ecx

; 256  : 		}
; 257  : 		else

  014dc	eb 1e		 jmp	 SHORT $L190073
$L190072:

; 258  : 		{
; 259  : 			m_rcTracker.left = point.x;

  014de	8b 55 fc	 mov	 edx, DWORD PTR _this$[ebp]
  014e1	8b 45 f0	 mov	 eax, DWORD PTR _point$190071[ebp]
  014e4	89 82 2c 01 00
	00		 mov	 DWORD PTR [edx+300], eax

; 260  : 			m_rcTracker.right = m_ptDown.x;

  014ea	8b 4d fc	 mov	 ecx, DWORD PTR _this$[ebp]
  014ed	8b 55 fc	 mov	 edx, DWORD PTR _this$[ebp]
  014f0	8b 82 20 01 00
	00		 mov	 eax, DWORD PTR [edx+288]
  014f6	89 81 34 01 00
	00		 mov	 DWORD PTR [ecx+308], eax
$L190073:

; 261  : 		}
; 262  : 		if (point.y>m_ptDown.y)

  014fc	8b 4d fc	 mov	 ecx, DWORD PTR _this$[ebp]
  014ff	8b 55 f4	 mov	 edx, DWORD PTR _point$190071[ebp+4]
  01502	3b 91 24 01 00
	00		 cmp	 edx, DWORD PTR [ecx+292]
  01508	7e 20		 jle	 SHORT $L190074

; 263  : 		{
; 264  : 			m_rcTracker.top = m_ptDown.y;

  0150a	8b 45 fc	 mov	 eax, DWORD PTR _this$[ebp]
  0150d	8b 4d fc	 mov	 ecx, DWORD PTR _this$[ebp]
  01510	8b 91 24 01 00
	00		 mov	 edx, DWORD PTR [ecx+292]
  01516	89 90 30 01 00
	00		 mov	 DWORD PTR [eax+304], edx

; 265  : 			m_rcTracker.bottom = point.y;

  0151c	8b 45 fc	 mov	 eax, DWORD PTR _this$[ebp]
  0151f	8b 4d f4	 mov	 ecx, DWORD PTR _point$190071[ebp+4]
  01522	89 88 38 01 00
	00		 mov	 DWORD PTR [eax+312], ecx

; 266  : 		}
; 267  : 		else

  01528	eb 1e		 jmp	 SHORT $L190075
$L190074:

; 268  : 		{
; 269  : 			m_rcTracker.top = point.y;

  0152a	8b 55 fc	 mov	 edx, DWORD PTR _this$[ebp]
  0152d	8b 45 f4	 mov	 eax, DWORD PTR _point$190071[ebp+4]
  01530	89 82 30 01 00
	00		 mov	 DWORD PTR [edx+304], eax

; 270  : 			m_rcTracker.bottom = m_ptDown.y;

  01536	8b 4d fc	 mov	 ecx, DWORD PTR _this$[ebp]
  01539	8b 55 fc	 mov	 edx, DWORD PTR _this$[ebp]
  0153c	8b 82 24 01 00
	00		 mov	 eax, DWORD PTR [edx+292]
  01542	89 81 38 01 00
	00		 mov	 DWORD PTR [ecx+312], eax
$L190075:

; 271  : 		}
; 272  : 
; 273  : 		// 
; 274  : 		if (m_rcTracker.left<m_rect.left)

  01548	8b 4d fc	 mov	 ecx, DWORD PTR _this$[ebp]
  0154b	8b 55 fc	 mov	 edx, DWORD PTR _this$[ebp]
  0154e	8b 81 2c 01 00
	00		 mov	 eax, DWORD PTR [ecx+300]
  01554	3b 82 8c 00 00
	00		 cmp	 eax, DWORD PTR [edx+140]
  0155a	7d 12		 jge	 SHORT $L190076

; 275  : 			m_rcTracker.left = m_rect.left;

  0155c	8b 4d fc	 mov	 ecx, DWORD PTR _this$[ebp]
  0155f	8b 55 fc	 mov	 edx, DWORD PTR _this$[ebp]
  01562	8b 82 8c 00 00
	00		 mov	 eax, DWORD PTR [edx+140]
  01568	89 81 2c 01 00
	00		 mov	 DWORD PTR [ecx+300], eax
$L190076:

; 276  : 		if (m_rcTracker.right>m_rect.right)

  0156e	8b 4d fc	 mov	 ecx, DWORD PTR _this$[ebp]
  01571	8b 55 fc	 mov	 edx, DWORD PTR _this$[ebp]
  01574	8b 81 34 01 00
	00		 mov	 eax, DWORD PTR [ecx+308]
  0157a	3b 82 94 00 00
	00		 cmp	 eax, DWORD PTR [edx+148]
  01580	7e 12		 jle	 SHORT $L190069

; 277  : 			m_rcTracker.right = m_rect.right;

  01582	8b 4d fc	 mov	 ecx, DWORD PTR _this$[ebp]
  01585	8b 55 fc	 mov	 edx, DWORD PTR _this$[ebp]
  01588	8b 82 94 00 00
	00		 mov	 eax, DWORD PTR [edx+148]
  0158e	89 81 34 01 00
	00		 mov	 DWORD PTR [ecx+308], eax
$L190069:

; 278  : 
; 279  : 	}
; 280  : }

  01594	52		 push	 edx
  01595	8b cd		 mov	 ecx, ebp
  01597	50		 push	 eax
  01598	8d 15 00 00 00
	00		 lea	 edx, DWORD PTR $L192653
  0159e	e8 00 00 00 00	 call	 @_RTC_CheckStackVars@8
  015a3	58		 pop	 eax
  015a4	5a		 pop	 edx
  015a5	5e		 pop	 esi
  015a6	83 c4 14	 add	 esp, 20			; 00000014H
  015a9	3b ec		 cmp	 ebp, esp
  015ab	e8 00 00 00 00	 call	 __RTC_CheckEsp
  015b0	8b e5		 mov	 esp, ebp
  015b2	5d		 pop	 ebp
  015b3	c3		 ret	 0
$L192653:
  015b4	01 00 00 00	 DD	 1
  015b8	00 00 00 00	 DD	 $L192652
$L192652:
  015bc	f0 ff ff ff	 DD	 -16			; fffffff0H
  015c0	08 00 00 00	 DD	 8
  015c4	00 00 00 00	 DD	 $L192651
$L192651:
  015c8	70		 DB	 112			; 00000070H
  015c9	6f		 DB	 111			; 0000006fH
  015ca	69		 DB	 105			; 00000069H
  015cb	6e		 DB	 110			; 0000006eH
  015cc	74		 DB	 116			; 00000074H
  015cd	00		 DB	 0
?OnCalcTracker@CLocalMusicCoverList@@IAEXXZ ENDP	; CLocalMusicCoverList::OnCalcTracker
_TEXT	ENDS
PUBLIC	?OnCalcSelectItem@CLocalMusicCoverList@@IAEXXZ	; CLocalMusicCoverList::OnCalcSelectItem
PUBLIC	?OnDrawTracker@CLocalMusicCoverList@@IAEXXZ	; CLocalMusicCoverList::OnDrawTracker
EXTRN	?Rectangle@CDC@@QAEHPBUtagRECT@@@Z:NEAR		; CDC::Rectangle
EXTRN	?AlphaBlend@CDC@@QAEHHHHHPAV1@HHHHU_BLENDFUNCTION@@@Z:NEAR ; CDC::AlphaBlend
EXTRN	?CreateStockObject@CGdiObject@@QAEHH@Z:NEAR	; CGdiObject::CreateStockObject
EXTRN	??0CPen@@QAE@HHK@Z:NEAR				; CPen::CPen
EXTRN	??1CPen@@UAE@XZ:NEAR				; CPen::~CPen
EXTRN	??0CBrush@@QAE@XZ:NEAR				; CBrush::CBrush
EXTRN	??1CBrush@@UAE@XZ:NEAR				; CBrush::~CBrush
EXTRN	?IntersectRect@CRect@@QAEHPBUtagRECT@@0@Z:NEAR	; CRect::IntersectRect
EXTRN	?SelectObject@CDC@@QAEPAVCPen@@PAV2@@Z:NEAR	; CDC::SelectObject
EXTRN	?SelectObject@CDC@@QAEPAVCBrush@@PAV2@@Z:NEAR	; CDC::SelectObject
xdata$x	SEGMENT
$T192665 DD	0ffffffffH
	DD	FLAT:$L192655
	DD	00H
	DD	FLAT:$L192656
$T192658 DD	019930520H
	DD	02H
	DD	FLAT:$T192665
	DD	2 DUP(00H)
	DD	2 DUP(00H)
; Function compile flags: /Odt /RTCsu
xdata$x	ENDS
_TEXT	SEGMENT
_rcDraw$190092 = -76					; size = 16
_penold$190091 = -56					; size = 4
_pen$190090 = -48					; size = 8
_brOld$190083 = -36					; size = 4
_brNull$190082 = -28					; size = 8
_this$ = -16						; size = 4
__$EHRec$ = -12						; size = 12
?OnDrawTracker@CLocalMusicCoverList@@IAEXXZ PROC NEAR	; CLocalMusicCoverList::OnDrawTracker
; _this$ = ecx

; 283  : {

  015d0	55		 push	 ebp
  015d1	8b ec		 mov	 ebp, esp
  015d3	6a ff		 push	 -1
  015d5	68 00 00 00 00	 push	 __ehhandler$?OnDrawTracker@CLocalMusicCoverList@@IAEXXZ
  015da	64 a1 00 00 00
	00		 mov	 eax, DWORD PTR fs:__except_list
  015e0	50		 push	 eax
  015e1	64 89 25 00 00
	00 00		 mov	 DWORD PTR fs:__except_list, esp
  015e8	83 ec 44	 sub	 esp, 68			; 00000044H
  015eb	57		 push	 edi
  015ec	51		 push	 ecx
  015ed	8d 7d b0	 lea	 edi, DWORD PTR [ebp-80]
  015f0	b9 11 00 00 00	 mov	 ecx, 17			; 00000011H
  015f5	b8 cc cc cc cc	 mov	 eax, -858993460		; ccccccccH
  015fa	f3 ab		 rep stosd
  015fc	59		 pop	 ecx
  015fd	89 4d f0	 mov	 DWORD PTR _this$[ebp], ecx

; 284  : 	if (m_blTracker)

  01600	8b 45 f0	 mov	 eax, DWORD PTR _this$[ebp]
  01603	83 b8 68 01 00
	00 00		 cmp	 DWORD PTR [eax+360], 0
  0160a	0f 84 1e 01 00
	00		 je	 $L190080

; 285  : 	{
; 286  : 		CBrush brNull;

  01610	8d 4d e4	 lea	 ecx, DWORD PTR _brNull$190082[ebp]
  01613	e8 00 00 00 00	 call	 ??0CBrush@@QAE@XZ	; CBrush::CBrush
  01618	c7 45 fc 00 00
	00 00		 mov	 DWORD PTR __$EHRec$[ebp+8], 0

; 287  : 		brNull.CreateStockObject(NULL_BRUSH);

  0161f	6a 05		 push	 5
  01621	8d 4d e4	 lea	 ecx, DWORD PTR _brNull$190082[ebp]
  01624	e8 00 00 00 00	 call	 ?CreateStockObject@CGdiObject@@QAEHH@Z ; CGdiObject::CreateStockObject

; 288  : 		CBrush* brOld = m_dcMem.SelectObject(&brNull);

  01629	8d 4d e4	 lea	 ecx, DWORD PTR _brNull$190082[ebp]
  0162c	51		 push	 ecx
  0162d	8b 4d f0	 mov	 ecx, DWORD PTR _this$[ebp]
  01630	83 c1 60	 add	 ecx, 96			; 00000060H
  01633	e8 00 00 00 00	 call	 ?SelectObject@CDC@@QAEPAVCBrush@@PAV2@@Z ; CDC::SelectObject
  01638	89 45 dc	 mov	 DWORD PTR _brOld$190083[ebp], eax

; 289  : 		CPen pen(PS_SOLID,1,RGB(125,125,125));

  0163b	68 7d 7d 7d 00	 push	 8224125			; 007d7d7dH
  01640	6a 01		 push	 1
  01642	6a 00		 push	 0
  01644	8d 4d d0	 lea	 ecx, DWORD PTR _pen$190090[ebp]
  01647	e8 00 00 00 00	 call	 ??0CPen@@QAE@HHK@Z	; CPen::CPen
  0164c	c6 45 fc 01	 mov	 BYTE PTR __$EHRec$[ebp+8], 1

; 290  : 		CPen *penold = m_dcMem.SelectObject(&pen);

  01650	8d 55 d0	 lea	 edx, DWORD PTR _pen$190090[ebp]
  01653	52		 push	 edx
  01654	8b 4d f0	 mov	 ecx, DWORD PTR _this$[ebp]
  01657	83 c1 60	 add	 ecx, 96			; 00000060H
  0165a	e8 00 00 00 00	 call	 ?SelectObject@CDC@@QAEPAVCPen@@PAV2@@Z ; CDC::SelectObject
  0165f	89 45 c8	 mov	 DWORD PTR _penold$190091[ebp], eax

; 291  : 		m_dcMem.Rectangle(&m_rcTracker);

  01662	8b 45 f0	 mov	 eax, DWORD PTR _this$[ebp]
  01665	05 2c 01 00 00	 add	 eax, 300		; 0000012cH
  0166a	50		 push	 eax
  0166b	8b 4d f0	 mov	 ecx, DWORD PTR _this$[ebp]
  0166e	83 c1 60	 add	 ecx, 96			; 00000060H
  01671	e8 00 00 00 00	 call	 ?Rectangle@CDC@@QAEHPBUtagRECT@@@Z ; CDC::Rectangle

; 292  : 		CRect rcDraw;

  01676	8d 4d b4	 lea	 ecx, DWORD PTR _rcDraw$190092[ebp]
  01679	e8 00 00 00 00	 call	 ??0CRect@@QAE@XZ	; CRect::CRect

; 293  : 		if (rcDraw.IntersectRect(&m_rcTracker,&m_rect))

  0167e	8b 4d f0	 mov	 ecx, DWORD PTR _this$[ebp]
  01681	81 c1 8c 00 00
	00		 add	 ecx, 140		; 0000008cH
  01687	51		 push	 ecx
  01688	8b 55 f0	 mov	 edx, DWORD PTR _this$[ebp]
  0168b	81 c2 2c 01 00
	00		 add	 edx, 300		; 0000012cH
  01691	52		 push	 edx
  01692	8d 4d b4	 lea	 ecx, DWORD PTR _rcDraw$190092[ebp]
  01695	e8 00 00 00 00	 call	 ?IntersectRect@CRect@@QAEHPBUtagRECT@@0@Z ; CRect::IntersectRect
  0169a	85 c0		 test	 eax, eax
  0169c	74 4f		 je	 SHORT $L190093

; 294  : 			m_dcMem.AlphaBlend(rcDraw.left,rcDraw.top,rcDraw.Width(),rcDraw.Height(),&m_dcTracker,0,0,rcDraw.Width(),rcDraw.Height(),m_bf);

  0169e	8b 45 f0	 mov	 eax, DWORD PTR _this$[ebp]
  016a1	8b 88 28 01 00
	00		 mov	 ecx, DWORD PTR [eax+296]
  016a7	51		 push	 ecx
  016a8	8d 4d b4	 lea	 ecx, DWORD PTR _rcDraw$190092[ebp]
  016ab	e8 00 00 00 00	 call	 ?Height@CRect@@QBEHXZ	; CRect::Height
  016b0	50		 push	 eax
  016b1	8d 4d b4	 lea	 ecx, DWORD PTR _rcDraw$190092[ebp]
  016b4	e8 00 00 00 00	 call	 ?Width@CRect@@QBEHXZ	; CRect::Width
  016b9	50		 push	 eax
  016ba	6a 00		 push	 0
  016bc	6a 00		 push	 0
  016be	8b 55 f0	 mov	 edx, DWORD PTR _this$[ebp]
  016c1	81 c2 04 01 00
	00		 add	 edx, 260		; 00000104H
  016c7	52		 push	 edx
  016c8	8d 4d b4	 lea	 ecx, DWORD PTR _rcDraw$190092[ebp]
  016cb	e8 00 00 00 00	 call	 ?Height@CRect@@QBEHXZ	; CRect::Height
  016d0	50		 push	 eax
  016d1	8d 4d b4	 lea	 ecx, DWORD PTR _rcDraw$190092[ebp]
  016d4	e8 00 00 00 00	 call	 ?Width@CRect@@QBEHXZ	; CRect::Width
  016d9	50		 push	 eax
  016da	8b 45 b8	 mov	 eax, DWORD PTR _rcDraw$190092[ebp+4]
  016dd	50		 push	 eax
  016de	8b 4d b4	 mov	 ecx, DWORD PTR _rcDraw$190092[ebp]
  016e1	51		 push	 ecx
  016e2	8b 4d f0	 mov	 ecx, DWORD PTR _this$[ebp]
  016e5	83 c1 60	 add	 ecx, 96			; 00000060H
  016e8	e8 00 00 00 00	 call	 ?AlphaBlend@CDC@@QAEHHHHHPAV1@HHHHU_BLENDFUNCTION@@@Z ; CDC::AlphaBlend
$L190093:

; 295  : 		m_dcMem.SelectObject(brOld);

  016ed	8b 55 dc	 mov	 edx, DWORD PTR _brOld$190083[ebp]
  016f0	52		 push	 edx
  016f1	8b 4d f0	 mov	 ecx, DWORD PTR _this$[ebp]
  016f4	83 c1 60	 add	 ecx, 96			; 00000060H
  016f7	e8 00 00 00 00	 call	 ?SelectObject@CDC@@QAEPAVCBrush@@PAV2@@Z ; CDC::SelectObject

; 296  : 		m_dcMem.SelectObject(penold);

  016fc	8b 45 c8	 mov	 eax, DWORD PTR _penold$190091[ebp]
  016ff	50		 push	 eax
  01700	8b 4d f0	 mov	 ecx, DWORD PTR _this$[ebp]
  01703	83 c1 60	 add	 ecx, 96			; 00000060H
  01706	e8 00 00 00 00	 call	 ?SelectObject@CDC@@QAEPAVCPen@@PAV2@@Z ; CDC::SelectObject

; 297  : 		OnCalcSelectItem();

  0170b	8b 4d f0	 mov	 ecx, DWORD PTR _this$[ebp]
  0170e	e8 00 00 00 00	 call	 ?OnCalcSelectItem@CLocalMusicCoverList@@IAEXXZ ; CLocalMusicCoverList::OnCalcSelectItem

; 298  : 	}

  01713	c6 45 fc 00	 mov	 BYTE PTR __$EHRec$[ebp+8], 0
  01717	8d 4d d0	 lea	 ecx, DWORD PTR _pen$190090[ebp]
  0171a	e8 00 00 00 00	 call	 ??1CPen@@UAE@XZ		; CPen::~CPen
  0171f	c7 45 fc ff ff
	ff ff		 mov	 DWORD PTR __$EHRec$[ebp+8], -1
  01726	8d 4d e4	 lea	 ecx, DWORD PTR _brNull$190082[ebp]
  01729	e8 00 00 00 00	 call	 ??1CBrush@@UAE@XZ	; CBrush::~CBrush
$L190080:

; 299  : }

  0172e	52		 push	 edx
  0172f	8b cd		 mov	 ecx, ebp
  01731	50		 push	 eax
  01732	8d 15 00 00 00
	00		 lea	 edx, DWORD PTR $L192664
  01738	e8 00 00 00 00	 call	 @_RTC_CheckStackVars@8
  0173d	58		 pop	 eax
  0173e	5a		 pop	 edx
  0173f	8b 4d f4	 mov	 ecx, DWORD PTR __$EHRec$[ebp]
  01742	64 89 0d 00 00
	00 00		 mov	 DWORD PTR fs:__except_list, ecx
  01749	5f		 pop	 edi
  0174a	83 c4 50	 add	 esp, 80			; 00000050H
  0174d	3b ec		 cmp	 ebp, esp
  0174f	e8 00 00 00 00	 call	 __RTC_CheckEsp
  01754	8b e5		 mov	 esp, ebp
  01756	5d		 pop	 ebp
  01757	c3		 ret	 0
$L192664:
  01758	03 00 00 00	 DD	 3
  0175c	00 00 00 00	 DD	 $L192663
$L192663:
  01760	e4 ff ff ff	 DD	 -28			; ffffffe4H
  01764	08 00 00 00	 DD	 8
  01768	00 00 00 00	 DD	 $L192659
  0176c	d0 ff ff ff	 DD	 -48			; ffffffd0H
  01770	08 00 00 00	 DD	 8
  01774	00 00 00 00	 DD	 $L192660
  01778	b4 ff ff ff	 DD	 -76			; ffffffb4H
  0177c	10 00 00 00	 DD	 16			; 00000010H
  01780	00 00 00 00	 DD	 $L192661
$L192661:
  01784	72		 DB	 114			; 00000072H
  01785	63		 DB	 99			; 00000063H
  01786	44		 DB	 68			; 00000044H
  01787	72		 DB	 114			; 00000072H
  01788	61		 DB	 97			; 00000061H
  01789	77		 DB	 119			; 00000077H
  0178a	00		 DB	 0
$L192660:
  0178b	70		 DB	 112			; 00000070H
  0178c	65		 DB	 101			; 00000065H
  0178d	6e		 DB	 110			; 0000006eH
  0178e	00		 DB	 0
$L192659:
  0178f	62		 DB	 98			; 00000062H
  01790	72		 DB	 114			; 00000072H
  01791	4e		 DB	 78			; 0000004eH
  01792	75		 DB	 117			; 00000075H
  01793	6c		 DB	 108			; 0000006cH
  01794	6c		 DB	 108			; 0000006cH
  01795	00		 DB	 0
_TEXT	ENDS
text$x	SEGMENT
$L192655:
  002d5	8d 4d e4	 lea	 ecx, DWORD PTR _brNull$190082[ebp]
  002d8	e9 00 00 00 00	 jmp	 ??1CBrush@@UAE@XZ	; CBrush::~CBrush
$L192656:
  002dd	8d 4d d0	 lea	 ecx, DWORD PTR _pen$190090[ebp]
  002e0	e9 00 00 00 00	 jmp	 ??1CPen@@UAE@XZ		; CPen::~CPen
__ehhandler$?OnDrawTracker@CLocalMusicCoverList@@IAEXXZ:
  002e5	b8 00 00 00 00	 mov	 eax, OFFSET FLAT:$T192658
  002ea	e9 00 00 00 00	 jmp	 ___CxxFrameHandler
text$x	ENDS
?OnDrawTracker@CLocalMusicCoverList@@IAEXXZ ENDP	; CLocalMusicCoverList::OnDrawTracker
PUBLIC	?size@?$vector@U_tagLMCItemInfo@@V?$allocator@U_tagLMCItemInfo@@@std@@@std@@QBEIXZ ; std::vector<_tagLMCItemInfo,std::allocator<_tagLMCItemInfo> >::size
PUBLIC	?DrawItem@CLocalMusicCoverList@@IAEXVCPoint@@AAU_tagLMCItemInfo@@@Z ; CLocalMusicCoverList::DrawItem
PUBLIC	?CalcHideItemRect@CLocalMusicCoverList@@IAEXVCPoint@@AAU_tagLMCItemInfo@@@Z ; CLocalMusicCoverList::CalcHideItemRect
EXTRN	?FillSolidRect@CDC@@QAEXPBUtagRECT@@K@Z:NEAR	; CDC::FillSolidRect
EXTRN	?RedrawWindow@CWnd@@QAEHPBUtagRECT@@PAVCRgn@@I@Z:NEAR ; CWnd::RedrawWindow
; Function compile flags: /Odt /RTCsu
_TEXT	SEGMENT
tv375 = -124						; size = 4
tv372 = -120						; size = 4
tv369 = -116						; size = 4
tv364 = -112						; size = 4
tv363 = -108						; size = 4
tv360 = -104						; size = 4
tv359 = -100						; size = 4
tv356 = -96						; size = 4
tv351 = -92						; size = 4
tv350 = -88						; size = 4
tv347 = -84						; size = 4
tv346 = -80						; size = 4
tv343 = -76						; size = 4
_nPos$ = -72						; size = 4
_fper$ = -68						; size = 4
_realhight$ = -64					; size = 4
_lenVbar$ = -60						; size = 4
_i$190114 = -56						; size = 4
_ptS$ = -48						; size = 8
_iWidthSpace$ = -36					; size = 4
_iHeightSpace$ = -32					; size = 4
_rcRightLine$190100 = -24				; size = 16
_this$ = -4						; size = 4
_blRePaint$ = 8						; size = 4
?OnMemoryDraw@CLocalMusicCoverList@@IAEXH@Z PROC NEAR	; CLocalMusicCoverList::OnMemoryDraw
; _this$ = ecx

; 302  : {

  017a0	55		 push	 ebp
  017a1	8b ec		 mov	 ebp, esp
  017a3	83 ec 7c	 sub	 esp, 124		; 0000007cH
  017a6	56		 push	 esi
  017a7	57		 push	 edi
  017a8	51		 push	 ecx
  017a9	8d 7d 84	 lea	 edi, DWORD PTR [ebp-124]
  017ac	b9 1f 00 00 00	 mov	 ecx, 31			; 0000001fH
  017b1	b8 cc cc cc cc	 mov	 eax, -858993460		; ccccccccH
  017b6	f3 ab		 rep stosd
  017b8	59		 pop	 ecx
  017b9	89 4d fc	 mov	 DWORD PTR _this$[ebp], ecx

; 303  : 	if (m_rect.Width()==0) return;

  017bc	8b 4d fc	 mov	 ecx, DWORD PTR _this$[ebp]
  017bf	81 c1 8c 00 00
	00		 add	 ecx, 140		; 0000008cH
  017c5	e8 00 00 00 00	 call	 ?Width@CRect@@QBEHXZ	; CRect::Width
  017ca	85 c0		 test	 eax, eax
  017cc	75 05		 jne	 SHORT $L190098
  017ce	e9 47 03 00 00	 jmp	 $L190097
$L190098:

; 304  : 	m_dcMem.FillSolidRect(&m_rect,m_gdires.colListBK);

  017d3	8b 45 fc	 mov	 eax, DWORD PTR _this$[ebp]
  017d6	8b 88 f0 00 00
	00		 mov	 ecx, DWORD PTR [eax+240]
  017dc	51		 push	 ecx
  017dd	8b 55 fc	 mov	 edx, DWORD PTR _this$[ebp]
  017e0	81 c2 8c 00 00
	00		 add	 edx, 140		; 0000008cH
  017e6	52		 push	 edx
  017e7	8b 4d fc	 mov	 ecx, DWORD PTR _this$[ebp]
  017ea	83 c1 60	 add	 ecx, 96			; 00000060H
  017ed	e8 00 00 00 00	 call	 ?FillSolidRect@CDC@@QAEXPBUtagRECT@@K@Z ; CDC::FillSolidRect

; 305  : 	
; 306  : 	if (m_rect.Width()<550&&m_rect.Height()>m_rcRealRect.Height())

  017f2	8b 4d fc	 mov	 ecx, DWORD PTR _this$[ebp]
  017f5	81 c1 8c 00 00
	00		 add	 ecx, 140		; 0000008cH
  017fb	e8 00 00 00 00	 call	 ?Width@CRect@@QBEHXZ	; CRect::Width
  01800	3d 26 02 00 00	 cmp	 eax, 550		; 00000226H
  01805	7d 5e		 jge	 SHORT $L190099
  01807	8b 4d fc	 mov	 ecx, DWORD PTR _this$[ebp]
  0180a	81 c1 8c 00 00
	00		 add	 ecx, 140		; 0000008cH
  01810	e8 00 00 00 00	 call	 ?Height@CRect@@QBEHXZ	; CRect::Height
  01815	8b f0		 mov	 esi, eax
  01817	8b 4d fc	 mov	 ecx, DWORD PTR _this$[ebp]
  0181a	81 c1 9c 00 00
	00		 add	 ecx, 156		; 0000009cH
  01820	e8 00 00 00 00	 call	 ?Height@CRect@@QBEHXZ	; CRect::Height
  01825	3b f0		 cmp	 esi, eax
  01827	7e 3c		 jle	 SHORT $L190099

; 307  : 	{// RmPanel
; 308  : 		CRect rcRightLine=m_rect;

  01829	8b 45 fc	 mov	 eax, DWORD PTR _this$[ebp]
  0182c	05 8c 00 00 00	 add	 eax, 140		; 0000008cH
  01831	8b 08		 mov	 ecx, DWORD PTR [eax]
  01833	89 4d e8	 mov	 DWORD PTR _rcRightLine$190100[ebp], ecx
  01836	8b 50 04	 mov	 edx, DWORD PTR [eax+4]
  01839	89 55 ec	 mov	 DWORD PTR _rcRightLine$190100[ebp+4], edx
  0183c	8b 48 08	 mov	 ecx, DWORD PTR [eax+8]
  0183f	89 4d f0	 mov	 DWORD PTR _rcRightLine$190100[ebp+8], ecx
  01842	8b 50 0c	 mov	 edx, DWORD PTR [eax+12]
  01845	89 55 f4	 mov	 DWORD PTR _rcRightLine$190100[ebp+12], edx

; 309  : 		rcRightLine.left=rcRightLine.right-1;

  01848	8b 45 f0	 mov	 eax, DWORD PTR _rcRightLine$190100[ebp+8]
  0184b	83 e8 01	 sub	 eax, 1
  0184e	89 45 e8	 mov	 DWORD PTR _rcRightLine$190100[ebp], eax

; 310  : 		m_dcMem.FillSolidRect(&rcRightLine,RGB(165,186,214));

  01851	68 a5 ba d6 00	 push	 14072485		; 00d6baa5H
  01856	8d 4d e8	 lea	 ecx, DWORD PTR _rcRightLine$190100[ebp]
  01859	51		 push	 ecx
  0185a	8b 4d fc	 mov	 ecx, DWORD PTR _this$[ebp]
  0185d	83 c1 60	 add	 ecx, 96			; 00000060H
  01860	e8 00 00 00 00	 call	 ?FillSolidRect@CDC@@QAEXPBUtagRECT@@K@Z ; CDC::FillSolidRect
$L190099:

; 311  : 	}
; 312  : 	// 
; 313  : 	OnCalcTracker();

  01865	8b 4d fc	 mov	 ecx, DWORD PTR _this$[ebp]
  01868	e8 00 00 00 00	 call	 ?OnCalcTracker@CLocalMusicCoverList@@IAEXXZ ; CLocalMusicCoverList::OnCalcTracker

; 314  : 	int iHeightSpace=0;

  0186d	c7 45 e0 00 00
	00 00		 mov	 DWORD PTR _iHeightSpace$[ebp], 0

; 315  : 	int iWidthSpace=0;

  01874	c7 45 dc 00 00
	00 00		 mov	 DWORD PTR _iWidthSpace$[ebp], 0

; 316  : 	if (m_ImgState==LMCI_Small)

  0187b	8b 55 fc	 mov	 edx, DWORD PTR _this$[ebp]
  0187e	83 7a 5c 00	 cmp	 DWORD PTR [edx+92], 0
  01882	75 0e		 jne	 SHORT $L190109

; 317  : 		iHeightSpace = m_iItemHeight+SPACEH + ITEMTXTH + SPACEH*2;

  01884	8b 45 fc	 mov	 eax, DWORD PTR _this$[ebp]
  01887	8b 48 58	 mov	 ecx, DWORD PTR [eax+88]
  0188a	83 c1 1b	 add	 ecx, 27			; 0000001bH
  0188d	89 4d e0	 mov	 DWORD PTR _iHeightSpace$[ebp], ecx

; 318  : 	else

  01890	eb 0c		 jmp	 SHORT $L190110
$L190109:

; 319  : 		iHeightSpace = m_iItemHeight+SPACEH + ITEMTXTH + SPACEH + ITEMTXTH + SPACEH*3;

  01892	8b 55 fc	 mov	 edx, DWORD PTR _this$[ebp]
  01895	8b 42 58	 mov	 eax, DWORD PTR [edx+88]
  01898	83 c0 32	 add	 eax, 50			; 00000032H
  0189b	89 45 e0	 mov	 DWORD PTR _iHeightSpace$[ebp], eax
$L190110:

; 320  : 	if (m_ImgState==LMCI_Small)

  0189e	8b 4d fc	 mov	 ecx, DWORD PTR _this$[ebp]
  018a1	83 79 5c 00	 cmp	 DWORD PTR [ecx+92], 0
  018a5	75 09		 jne	 SHORT $L190111

; 321  : 		iWidthSpace = SPACEWS;

  018a7	c7 45 dc 0a 00
	00 00		 mov	 DWORD PTR _iWidthSpace$[ebp], 10 ; 0000000aH

; 322  : 	else

  018ae	eb 07		 jmp	 SHORT $L190112
$L190111:

; 323  : 		iWidthSpace = SPACEW;

  018b0	c7 45 dc 10 00
	00 00		 mov	 DWORD PTR _iWidthSpace$[ebp], 16 ; 00000010H
$L190112:

; 324  : 	CPoint ptS = m_ptClientStart;

  018b7	8b 55 fc	 mov	 edx, DWORD PTR _this$[ebp]
  018ba	8b 82 ac 00 00
	00		 mov	 eax, DWORD PTR [edx+172]
  018c0	8b 8a b0 00 00
	00		 mov	 ecx, DWORD PTR [edx+176]
  018c6	89 45 d0	 mov	 DWORD PTR _ptS$[ebp], eax
  018c9	89 4d d4	 mov	 DWORD PTR _ptS$[ebp+4], ecx

; 325  : 	ptS.x = iWidthSpace+m_ptClientStart.x;

  018cc	8b 55 fc	 mov	 edx, DWORD PTR _this$[ebp]
  018cf	8b 45 dc	 mov	 eax, DWORD PTR _iWidthSpace$[ebp]
  018d2	03 82 ac 00 00
	00		 add	 eax, DWORD PTR [edx+172]
  018d8	89 45 d0	 mov	 DWORD PTR _ptS$[ebp], eax

; 326  : 	ptS.y = SPACEH+m_ptClientStart.y;

  018db	8b 4d fc	 mov	 ecx, DWORD PTR _this$[ebp]
  018de	8b 91 b0 00 00
	00		 mov	 edx, DWORD PTR [ecx+176]
  018e4	83 c2 04	 add	 edx, 4
  018e7	89 55 d4	 mov	 DWORD PTR _ptS$[ebp+4], edx

; 327  : 	
; 328  : 	for(int i=0;i<m_DataMgr.m_vItem.size();i++)

  018ea	c7 45 c8 00 00
	00 00		 mov	 DWORD PTR _i$190114[ebp], 0
  018f1	eb 09		 jmp	 SHORT $L190115
$L190116:
  018f3	8b 45 c8	 mov	 eax, DWORD PTR _i$190114[ebp]
  018f6	83 c0 01	 add	 eax, 1
  018f9	89 45 c8	 mov	 DWORD PTR _i$190114[ebp], eax
$L190115:
  018fc	8b 4d fc	 mov	 ecx, DWORD PTR _this$[ebp]
  018ff	81 c1 6c 01 00
	00		 add	 ecx, 364		; 0000016cH
  01905	e8 00 00 00 00	 call	 ?size@?$vector@U_tagLMCItemInfo@@V?$allocator@U_tagLMCItemInfo@@@std@@@std@@QBEIXZ ; std::vector<_tagLMCItemInfo,std::allocator<_tagLMCItemInfo> >::size
  0190a	39 45 c8	 cmp	 DWORD PTR _i$190114[ebp], eax
  0190d	0f 83 e9 00 00
	00		 jae	 $L190117

; 329  : 	{
; 330  : 		if (ptS.x+m_iItemWidth>m_rect.right)

  01913	8b 4d fc	 mov	 ecx, DWORD PTR _this$[ebp]
  01916	8b 55 d0	 mov	 edx, DWORD PTR _ptS$[ebp]
  01919	03 51 54	 add	 edx, DWORD PTR [ecx+84]
  0191c	8b 45 fc	 mov	 eax, DWORD PTR _this$[ebp]
  0191f	3b 90 94 00 00
	00		 cmp	 edx, DWORD PTR [eax+148]
  01925	7e 26		 jle	 SHORT $L190118

; 331  : 		{
; 332  : 			ptS.y = ptS.y + iHeightSpace;

  01927	8b 4d d4	 mov	 ecx, DWORD PTR _ptS$[ebp+4]
  0192a	03 4d e0	 add	 ecx, DWORD PTR _iHeightSpace$[ebp]
  0192d	89 4d d4	 mov	 DWORD PTR _ptS$[ebp+4], ecx

; 333  : 			//ptS.x = m_ptClientStart.x+SPACEW;
; 334  : 			ptS.x = m_ptClientStart.x+iWidthSpace;

  01930	8b 55 fc	 mov	 edx, DWORD PTR _this$[ebp]
  01933	8b 82 ac 00 00
	00		 mov	 eax, DWORD PTR [edx+172]
  01939	03 45 dc	 add	 eax, DWORD PTR _iWidthSpace$[ebp]
  0193c	89 45 d0	 mov	 DWORD PTR _ptS$[ebp], eax

; 335  : 			i--;// 1

  0193f	8b 4d c8	 mov	 ecx, DWORD PTR _i$190114[ebp]
  01942	83 e9 01	 sub	 ecx, 1
  01945	89 4d c8	 mov	 DWORD PTR _i$190114[ebp], ecx

; 336  : 		}
; 337  : 		else

  01948	e9 aa 00 00 00	 jmp	 $L190119
$L190118:

; 338  : 		{
; 339  : 			if (ptS.y>m_rect.bottom)

  0194d	8b 55 fc	 mov	 edx, DWORD PTR _this$[ebp]
  01950	8b 45 d4	 mov	 eax, DWORD PTR _ptS$[ebp+4]
  01953	3b 82 98 00 00
	00		 cmp	 eax, DWORD PTR [edx+152]
  01959	7e 34		 jle	 SHORT $L190120

; 340  : 			{
; 341  : 				// Item
; 342  : 				CalcHideItemRect(ptS,m_DataMgr.m_vItem[i]);

  0195b	8b 4d c8	 mov	 ecx, DWORD PTR _i$190114[ebp]
  0195e	51		 push	 ecx
  0195f	8b 4d fc	 mov	 ecx, DWORD PTR _this$[ebp]
  01962	81 c1 6c 01 00
	00		 add	 ecx, 364		; 0000016cH
  01968	e8 00 00 00 00	 call	 ??A?$vector@U_tagLMCItemInfo@@V?$allocator@U_tagLMCItemInfo@@@std@@@std@@QAEAAU_tagLMCItemInfo@@I@Z ; std::vector<_tagLMCItemInfo,std::allocator<_tagLMCItemInfo> >::operator[]
  0196d	50		 push	 eax
  0196e	8b 55 d4	 mov	 edx, DWORD PTR _ptS$[ebp+4]
  01971	52		 push	 edx
  01972	8b 45 d0	 mov	 eax, DWORD PTR _ptS$[ebp]
  01975	50		 push	 eax
  01976	8b 4d fc	 mov	 ecx, DWORD PTR _this$[ebp]
  01979	e8 00 00 00 00	 call	 ?CalcHideItemRect@CLocalMusicCoverList@@IAEXVCPoint@@AAU_tagLMCItemInfo@@@Z ; CLocalMusicCoverList::CalcHideItemRect

; 343  : 				//ptS.x = ptS.x+m_iItemWidth+SPACEW;
; 344  : 				ptS.x = ptS.x+m_iItemWidth+iWidthSpace;

  0197e	8b 4d fc	 mov	 ecx, DWORD PTR _this$[ebp]
  01981	8b 55 d0	 mov	 edx, DWORD PTR _ptS$[ebp]
  01984	03 51 54	 add	 edx, DWORD PTR [ecx+84]
  01987	03 55 dc	 add	 edx, DWORD PTR _iWidthSpace$[ebp]
  0198a	89 55 d0	 mov	 DWORD PTR _ptS$[ebp], edx

; 345  : 			}
; 346  : 			else

  0198d	eb 68		 jmp	 SHORT $L190119
$L190120:

; 347  : 			{
; 348  : 				if (ptS.y+iHeightSpace>=m_rect.top)

  0198f	8b 45 d4	 mov	 eax, DWORD PTR _ptS$[ebp+4]
  01992	03 45 e0	 add	 eax, DWORD PTR _iHeightSpace$[ebp]
  01995	8b 4d fc	 mov	 ecx, DWORD PTR _this$[ebp]
  01998	3b 81 90 00 00
	00		 cmp	 eax, DWORD PTR [ecx+144]
  0199e	7c 25		 jl	 SHORT $L190122

; 349  : 				{
; 350  : 					DrawItem(ptS,m_DataMgr.m_vItem[i]);

  019a0	8b 55 c8	 mov	 edx, DWORD PTR _i$190114[ebp]
  019a3	52		 push	 edx
  019a4	8b 4d fc	 mov	 ecx, DWORD PTR _this$[ebp]
  019a7	81 c1 6c 01 00
	00		 add	 ecx, 364		; 0000016cH
  019ad	e8 00 00 00 00	 call	 ??A?$vector@U_tagLMCItemInfo@@V?$allocator@U_tagLMCItemInfo@@@std@@@std@@QAEAAU_tagLMCItemInfo@@I@Z ; std::vector<_tagLMCItemInfo,std::allocator<_tagLMCItemInfo> >::operator[]
  019b2	50		 push	 eax
  019b3	8b 45 d4	 mov	 eax, DWORD PTR _ptS$[ebp+4]
  019b6	50		 push	 eax
  019b7	8b 4d d0	 mov	 ecx, DWORD PTR _ptS$[ebp]
  019ba	51		 push	 ecx
  019bb	8b 4d fc	 mov	 ecx, DWORD PTR _this$[ebp]
  019be	e8 00 00 00 00	 call	 ?DrawItem@CLocalMusicCoverList@@IAEXVCPoint@@AAU_tagLMCItemInfo@@@Z ; CLocalMusicCoverList::DrawItem

; 351  : 				}
; 352  : 				else

  019c3	eb 23		 jmp	 SHORT $L190123
$L190122:

; 353  : 				{
; 354  : 					// Item
; 355  : 					CalcHideItemRect(ptS,m_DataMgr.m_vItem[i]);

  019c5	8b 55 c8	 mov	 edx, DWORD PTR _i$190114[ebp]
  019c8	52		 push	 edx
  019c9	8b 4d fc	 mov	 ecx, DWORD PTR _this$[ebp]
  019cc	81 c1 6c 01 00
	00		 add	 ecx, 364		; 0000016cH
  019d2	e8 00 00 00 00	 call	 ??A?$vector@U_tagLMCItemInfo@@V?$allocator@U_tagLMCItemInfo@@@std@@@std@@QAEAAU_tagLMCItemInfo@@I@Z ; std::vector<_tagLMCItemInfo,std::allocator<_tagLMCItemInfo> >::operator[]
  019d7	50		 push	 eax
  019d8	8b 45 d4	 mov	 eax, DWORD PTR _ptS$[ebp+4]
  019db	50		 push	 eax
  019dc	8b 4d d0	 mov	 ecx, DWORD PTR _ptS$[ebp]
  019df	51		 push	 ecx
  019e0	8b 4d fc	 mov	 ecx, DWORD PTR _this$[ebp]
  019e3	e8 00 00 00 00	 call	 ?CalcHideItemRect@CLocalMusicCoverList@@IAEXVCPoint@@AAU_tagLMCItemInfo@@@Z ; CLocalMusicCoverList::CalcHideItemRect
$L190123:

; 356  : 				}
; 357  : 				//ptS.x = ptS.x+m_iItemWidth+SPACEW;
; 358  : 				ptS.x = ptS.x+m_iItemWidth+iWidthSpace;

  019e8	8b 55 fc	 mov	 edx, DWORD PTR _this$[ebp]
  019eb	8b 45 d0	 mov	 eax, DWORD PTR _ptS$[ebp]
  019ee	03 42 54	 add	 eax, DWORD PTR [edx+84]
  019f1	03 45 dc	 add	 eax, DWORD PTR _iWidthSpace$[ebp]
  019f4	89 45 d0	 mov	 DWORD PTR _ptS$[ebp], eax
$L190119:

; 359  : 			}
; 360  : 		}
; 361  : 	}

  019f7	e9 f7 fe ff ff	 jmp	 $L190116
$L190117:

; 362  : 	// 
; 363  : 	OnDrawTracker();

  019fc	8b 4d fc	 mov	 ecx, DWORD PTR _this$[ebp]
  019ff	e8 00 00 00 00	 call	 ?OnDrawTracker@CLocalMusicCoverList@@IAEXXZ ; CLocalMusicCoverList::OnDrawTracker

; 364  : 	//Invalidate();
; 365  : 	RedrawWindow();

  01a04	68 05 01 00 00	 push	 261			; 00000105H
  01a09	6a 00		 push	 0
  01a0b	6a 00		 push	 0
  01a0d	8b 4d fc	 mov	 ecx, DWORD PTR _this$[ebp]
  01a10	e8 00 00 00 00	 call	 ?RedrawWindow@CWnd@@QAEHPBUtagRECT@@PAVCRgn@@I@Z ; CWnd::RedrawWindow

; 366  : 
; 367  : 	int lenVbar = (float)m_rect.Height()/m_rcRealRect.Height()*m_rect.Height();

  01a15	8b 4d fc	 mov	 ecx, DWORD PTR _this$[ebp]
  01a18	81 c1 8c 00 00
	00		 add	 ecx, 140		; 0000008cH
  01a1e	e8 00 00 00 00	 call	 ?Height@CRect@@QBEHXZ	; CRect::Height
  01a23	89 45 b4	 mov	 DWORD PTR tv343[ebp], eax
  01a26	db 45 b4	 fild	 DWORD PTR tv343[ebp]
  01a29	d9 5d b0	 fstp	 DWORD PTR tv346[ebp]
  01a2c	8b 4d fc	 mov	 ecx, DWORD PTR _this$[ebp]
  01a2f	81 c1 9c 00 00
	00		 add	 ecx, 156		; 0000009cH
  01a35	e8 00 00 00 00	 call	 ?Height@CRect@@QBEHXZ	; CRect::Height
  01a3a	89 45 ac	 mov	 DWORD PTR tv347[ebp], eax
  01a3d	db 45 ac	 fild	 DWORD PTR tv347[ebp]
  01a40	d8 7d b0	 fdivr	 DWORD PTR tv346[ebp]
  01a43	d9 5d a8	 fstp	 DWORD PTR tv350[ebp]
  01a46	8b 4d fc	 mov	 ecx, DWORD PTR _this$[ebp]
  01a49	81 c1 8c 00 00
	00		 add	 ecx, 140		; 0000008cH
  01a4f	e8 00 00 00 00	 call	 ?Height@CRect@@QBEHXZ	; CRect::Height
  01a54	89 45 a4	 mov	 DWORD PTR tv351[ebp], eax
  01a57	db 45 a4	 fild	 DWORD PTR tv351[ebp]
  01a5a	d8 4d a8	 fmul	 DWORD PTR tv350[ebp]
  01a5d	e8 00 00 00 00	 call	 __ftol2
  01a62	89 45 c4	 mov	 DWORD PTR _lenVbar$[ebp], eax

; 368  : 	int realhight = (float)(m_rect.Height()-lenVbar)/m_rect.Height()*m_rcRealRect.Height();

  01a65	8b 4d fc	 mov	 ecx, DWORD PTR _this$[ebp]
  01a68	81 c1 8c 00 00
	00		 add	 ecx, 140		; 0000008cH
  01a6e	e8 00 00 00 00	 call	 ?Height@CRect@@QBEHXZ	; CRect::Height
  01a73	2b 45 c4	 sub	 eax, DWORD PTR _lenVbar$[ebp]
  01a76	89 45 a0	 mov	 DWORD PTR tv356[ebp], eax
  01a79	db 45 a0	 fild	 DWORD PTR tv356[ebp]
  01a7c	d9 5d 9c	 fstp	 DWORD PTR tv359[ebp]
  01a7f	8b 4d fc	 mov	 ecx, DWORD PTR _this$[ebp]
  01a82	81 c1 8c 00 00
	00		 add	 ecx, 140		; 0000008cH
  01a88	e8 00 00 00 00	 call	 ?Height@CRect@@QBEHXZ	; CRect::Height
  01a8d	89 45 98	 mov	 DWORD PTR tv360[ebp], eax
  01a90	db 45 98	 fild	 DWORD PTR tv360[ebp]
  01a93	d8 7d 9c	 fdivr	 DWORD PTR tv359[ebp]
  01a96	d9 5d 94	 fstp	 DWORD PTR tv363[ebp]
  01a99	8b 4d fc	 mov	 ecx, DWORD PTR _this$[ebp]
  01a9c	81 c1 9c 00 00
	00		 add	 ecx, 156		; 0000009cH
  01aa2	e8 00 00 00 00	 call	 ?Height@CRect@@QBEHXZ	; CRect::Height
  01aa7	89 45 90	 mov	 DWORD PTR tv364[ebp], eax
  01aaa	db 45 90	 fild	 DWORD PTR tv364[ebp]
  01aad	d8 4d 94	 fmul	 DWORD PTR tv363[ebp]
  01ab0	e8 00 00 00 00	 call	 __ftol2
  01ab5	89 45 c0	 mov	 DWORD PTR _realhight$[ebp], eax

; 369  : 	float fper = (float)(0-m_ptClientStart.y)/(m_rcRealRect.Height()-m_rect.Height());

  01ab8	8b 4d fc	 mov	 ecx, DWORD PTR _this$[ebp]
  01abb	33 d2		 xor	 edx, edx
  01abd	2b 91 b0 00 00
	00		 sub	 edx, DWORD PTR [ecx+176]
  01ac3	89 55 8c	 mov	 DWORD PTR tv369[ebp], edx
  01ac6	db 45 8c	 fild	 DWORD PTR tv369[ebp]
  01ac9	d9 5d 88	 fstp	 DWORD PTR tv372[ebp]
  01acc	8b 4d fc	 mov	 ecx, DWORD PTR _this$[ebp]
  01acf	81 c1 9c 00 00
	00		 add	 ecx, 156		; 0000009cH
  01ad5	e8 00 00 00 00	 call	 ?Height@CRect@@QBEHXZ	; CRect::Height
  01ada	8b f0		 mov	 esi, eax
  01adc	8b 4d fc	 mov	 ecx, DWORD PTR _this$[ebp]
  01adf	81 c1 8c 00 00
	00		 add	 ecx, 140		; 0000008cH
  01ae5	e8 00 00 00 00	 call	 ?Height@CRect@@QBEHXZ	; CRect::Height
  01aea	2b f0		 sub	 esi, eax
  01aec	89 75 84	 mov	 DWORD PTR tv375[ebp], esi
  01aef	db 45 84	 fild	 DWORD PTR tv375[ebp]
  01af2	d8 7d 88	 fdivr	 DWORD PTR tv372[ebp]
  01af5	d9 5d bc	 fstp	 DWORD PTR _fper$[ebp]

; 370  : 	int nPos = fper*realhight;

  01af8	db 45 c0	 fild	 DWORD PTR _realhight$[ebp]
  01afb	d8 4d bc	 fmul	 DWORD PTR _fper$[ebp]
  01afe	e8 00 00 00 00	 call	 __ftol2
  01b03	89 45 b8	 mov	 DWORD PTR _nPos$[ebp], eax

; 371  : 	CoolSB_SetScrollPos(m_hWnd,SB_VERT,nPos,TRUE);

  01b06	6a 01		 push	 1
  01b08	8b 45 b8	 mov	 eax, DWORD PTR _nPos$[ebp]
  01b0b	50		 push	 eax
  01b0c	6a 01		 push	 1
  01b0e	8b 4d fc	 mov	 ecx, DWORD PTR _this$[ebp]
  01b11	8b 51 20	 mov	 edx, DWORD PTR [ecx+32]
  01b14	52		 push	 edx
  01b15	e8 00 00 00 00	 call	 _CoolSB_SetScrollPos@16
$L190097:

; 372  : }

  01b1a	52		 push	 edx
  01b1b	8b cd		 mov	 ecx, ebp
  01b1d	50		 push	 eax
  01b1e	8d 15 00 00 00
	00		 lea	 edx, DWORD PTR $L192670
  01b24	e8 00 00 00 00	 call	 @_RTC_CheckStackVars@8
  01b29	58		 pop	 eax
  01b2a	5a		 pop	 edx
  01b2b	5f		 pop	 edi
  01b2c	5e		 pop	 esi
  01b2d	83 c4 7c	 add	 esp, 124		; 0000007cH
  01b30	3b ec		 cmp	 ebp, esp
  01b32	e8 00 00 00 00	 call	 __RTC_CheckEsp
  01b37	8b e5		 mov	 esp, ebp
  01b39	5d		 pop	 ebp
  01b3a	c2 04 00	 ret	 4
$L192670:
  01b3d	02 00 00 00	 DD	 2
  01b41	00 00 00 00	 DD	 $L192669
$L192669:
  01b45	e8 ff ff ff	 DD	 -24			; ffffffe8H
  01b49	10 00 00 00	 DD	 16			; 00000010H
  01b4d	00 00 00 00	 DD	 $L192667
  01b51	d0 ff ff ff	 DD	 -48			; ffffffd0H
  01b55	08 00 00 00	 DD	 8
  01b59	00 00 00 00	 DD	 $L192668
$L192668:
  01b5d	70		 DB	 112			; 00000070H
  01b5e	74		 DB	 116			; 00000074H
  01b5f	53		 DB	 83			; 00000053H
  01b60	00		 DB	 0
$L192667:
  01b61	72		 DB	 114			; 00000072H
  01b62	63		 DB	 99			; 00000063H
  01b63	52		 DB	 82			; 00000052H
  01b64	69		 DB	 105			; 00000069H
  01b65	67		 DB	 103			; 00000067H
  01b66	68		 DB	 104			; 00000068H
  01b67	74		 DB	 116			; 00000074H
  01b68	4c		 DB	 76			; 0000004cH
  01b69	69		 DB	 105			; 00000069H
  01b6a	6e		 DB	 110			; 0000006eH
  01b6b	65		 DB	 101			; 00000065H
  01b6c	00		 DB	 0
?OnMemoryDraw@CLocalMusicCoverList@@IAEXH@Z ENDP	; CLocalMusicCoverList::OnMemoryDraw
_TEXT	ENDS
EXTRN	?GetSafeHandle@CGdiObject@@QBEPAXXZ:NEAR	; CGdiObject::GetSafeHandle
EXTRN	?DeleteObject@CGdiObject@@QAEHXZ:NEAR		; CGdiObject::DeleteObject
EXTRN	?CreateCompatibleBitmap@CBitmap@@QAEHPAVCDC@@HH@Z:NEAR ; CBitmap::CreateCompatibleBitmap
EXTRN	?IsRectEmpty@CRect@@QBEHXZ:NEAR			; CRect::IsRectEmpty
EXTRN	?IsRectNull@CRect@@QBEHXZ:NEAR			; CRect::IsRectNull
EXTRN	??8CRect@@QBEHABUtagRECT@@@Z:NEAR		; CRect::operator==
EXTRN	?GetSafeHdc@CDC@@QBEPAUHDC__@@XZ:NEAR		; CDC::GetSafeHdc
EXTRN	?SelectObject@CDC@@QAEPAVCBitmap@@PAV2@@Z:NEAR	; CDC::SelectObject
xdata$x	SEGMENT
$T192681 DD	0ffffffffH
	DD	FLAT:$L192672
$T192674 DD	019930520H
	DD	01H
	DD	FLAT:$T192681
	DD	2 DUP(00H)
	DD	2 DUP(00H)
; Function compile flags: /Odt /RTCsu
xdata$x	ENDS
_TEXT	SEGMENT
_sz$ = -80						; size = 8
_dc$ = -64						; size = 20
_rs$ = -36						; size = 16
_this$ = -16						; size = 4
__$EHRec$ = -12						; size = 12
_blFouce$ = 8						; size = 4
?SizeChanged@CLocalMusicCoverList@@IAEXH@Z PROC NEAR	; CLocalMusicCoverList::SizeChanged
; _this$ = ecx

; 375  : {

  01b70	55		 push	 ebp
  01b71	8b ec		 mov	 ebp, esp
  01b73	6a ff		 push	 -1
  01b75	68 00 00 00 00	 push	 __ehhandler$?SizeChanged@CLocalMusicCoverList@@IAEXH@Z
  01b7a	64 a1 00 00 00
	00		 mov	 eax, DWORD PTR fs:__except_list
  01b80	50		 push	 eax
  01b81	64 89 25 00 00
	00 00		 mov	 DWORD PTR fs:__except_list, esp
  01b88	83 ec 48	 sub	 esp, 72			; 00000048H
  01b8b	57		 push	 edi
  01b8c	51		 push	 ecx
  01b8d	8d 7d ac	 lea	 edi, DWORD PTR [ebp-84]
  01b90	b9 12 00 00 00	 mov	 ecx, 18			; 00000012H
  01b95	b8 cc cc cc cc	 mov	 eax, -858993460		; ccccccccH
  01b9a	f3 ab		 rep stosd
  01b9c	59		 pop	 ecx
  01b9d	89 4d f0	 mov	 DWORD PTR _this$[ebp], ecx

; 376  : 	CRect rs;

  01ba0	8d 4d dc	 lea	 ecx, DWORD PTR _rs$[ebp]
  01ba3	e8 00 00 00 00	 call	 ??0CRect@@QAE@XZ	; CRect::CRect

; 377  : 	GetClientRect(&rs);

  01ba8	8d 45 dc	 lea	 eax, DWORD PTR _rs$[ebp]
  01bab	50		 push	 eax
  01bac	8b 4d f0	 mov	 ecx, DWORD PTR _this$[ebp]
  01baf	e8 00 00 00 00	 call	 ?GetClientRect@CWnd@@QBEXPAUtagRECT@@@Z ; CWnd::GetClientRect

; 378  : 	if (!blFouce)

  01bb4	83 7d 08 00	 cmp	 DWORD PTR _blFouce$[ebp], 0
  01bb8	75 33		 jne	 SHORT $L190136

; 379  : 	{
; 380  : 		if(rs.IsRectNull() || rs.IsRectEmpty() || rs == m_rect)

  01bba	8d 4d dc	 lea	 ecx, DWORD PTR _rs$[ebp]
  01bbd	e8 00 00 00 00	 call	 ?IsRectNull@CRect@@QBEHXZ ; CRect::IsRectNull
  01bc2	85 c0		 test	 eax, eax
  01bc4	75 22		 jne	 SHORT $L190138
  01bc6	8d 4d dc	 lea	 ecx, DWORD PTR _rs$[ebp]
  01bc9	e8 00 00 00 00	 call	 ?IsRectEmpty@CRect@@QBEHXZ ; CRect::IsRectEmpty
  01bce	85 c0		 test	 eax, eax
  01bd0	75 16		 jne	 SHORT $L190138
  01bd2	8b 4d f0	 mov	 ecx, DWORD PTR _this$[ebp]
  01bd5	81 c1 8c 00 00
	00		 add	 ecx, 140		; 0000008cH
  01bdb	51		 push	 ecx
  01bdc	8d 4d dc	 lea	 ecx, DWORD PTR _rs$[ebp]
  01bdf	e8 00 00 00 00	 call	 ??8CRect@@QBEHABUtagRECT@@@Z ; CRect::operator==
  01be4	85 c0		 test	 eax, eax
  01be6	74 05		 je	 SHORT $L190136
$L190138:

; 381  : 			return;

  01be8	e9 55 01 00 00	 jmp	 $L190134
$L190136:

; 382  : 	}
; 383  : 
; 384  : 	m_rect = rs;

  01bed	8b 55 f0	 mov	 edx, DWORD PTR _this$[ebp]
  01bf0	81 c2 8c 00 00
	00		 add	 edx, 140		; 0000008cH
  01bf6	8b 45 dc	 mov	 eax, DWORD PTR _rs$[ebp]
  01bf9	89 02		 mov	 DWORD PTR [edx], eax
  01bfb	8b 4d e0	 mov	 ecx, DWORD PTR _rs$[ebp+4]
  01bfe	89 4a 04	 mov	 DWORD PTR [edx+4], ecx
  01c01	8b 45 e4	 mov	 eax, DWORD PTR _rs$[ebp+8]
  01c04	89 42 08	 mov	 DWORD PTR [edx+8], eax
  01c07	8b 4d e8	 mov	 ecx, DWORD PTR _rs$[ebp+12]
  01c0a	89 4a 0c	 mov	 DWORD PTR [edx+12], ecx

; 385  : 	CClientDC dc(this);

  01c0d	8b 55 f0	 mov	 edx, DWORD PTR _this$[ebp]
  01c10	52		 push	 edx
  01c11	8d 4d c0	 lea	 ecx, DWORD PTR _dc$[ebp]
  01c14	e8 00 00 00 00	 call	 ??0CClientDC@@QAE@PAVCWnd@@@Z ; CClientDC::CClientDC
  01c19	c7 45 fc 00 00
	00 00		 mov	 DWORD PTR __$EHRec$[ebp+8], 0

; 386  : 	CSize sz = CSize(m_rect.Width(),m_rect.Height());

  01c20	8b 4d f0	 mov	 ecx, DWORD PTR _this$[ebp]
  01c23	81 c1 8c 00 00
	00		 add	 ecx, 140		; 0000008cH
  01c29	e8 00 00 00 00	 call	 ?Height@CRect@@QBEHXZ	; CRect::Height
  01c2e	50		 push	 eax
  01c2f	8b 4d f0	 mov	 ecx, DWORD PTR _this$[ebp]
  01c32	81 c1 8c 00 00
	00		 add	 ecx, 140		; 0000008cH
  01c38	e8 00 00 00 00	 call	 ?Width@CRect@@QBEHXZ	; CRect::Width
  01c3d	50		 push	 eax
  01c3e	8d 4d b0	 lea	 ecx, DWORD PTR _sz$[ebp]
  01c41	e8 00 00 00 00	 call	 ??0CSize@@QAE@HH@Z	; CSize::CSize

; 387  : 	if(m_pOldBitmap)

  01c46	8b 45 f0	 mov	 eax, DWORD PTR _this$[ebp]
  01c49	83 78 78 00	 cmp	 DWORD PTR [eax+120], 0
  01c4d	74 2b		 je	 SHORT $L190142

; 388  : 	{
; 389  : 		if(m_dcMem.GetSafeHdc())

  01c4f	8b 4d f0	 mov	 ecx, DWORD PTR _this$[ebp]
  01c52	83 c1 60	 add	 ecx, 96			; 00000060H
  01c55	e8 00 00 00 00	 call	 ?GetSafeHdc@CDC@@QBEPAUHDC__@@XZ ; CDC::GetSafeHdc
  01c5a	85 c0		 test	 eax, eax
  01c5c	74 12		 je	 SHORT $L190143

; 390  : 			m_dcMem.SelectObject(m_pOldBitmap);

  01c5e	8b 4d f0	 mov	 ecx, DWORD PTR _this$[ebp]
  01c61	8b 51 78	 mov	 edx, DWORD PTR [ecx+120]
  01c64	52		 push	 edx
  01c65	8b 4d f0	 mov	 ecx, DWORD PTR _this$[ebp]
  01c68	83 c1 60	 add	 ecx, 96			; 00000060H
  01c6b	e8 00 00 00 00	 call	 ?SelectObject@CDC@@QAEPAVCBitmap@@PAV2@@Z ; CDC::SelectObject
$L190143:

; 391  : 		m_pOldBitmap = NULL;

  01c70	8b 45 f0	 mov	 eax, DWORD PTR _this$[ebp]
  01c73	c7 40 78 00 00
	00 00		 mov	 DWORD PTR [eax+120], 0
$L190142:

; 392  : 	}
; 393  : 	if (m_bmpoldTracker)

  01c7a	8b 4d f0	 mov	 ecx, DWORD PTR _this$[ebp]
  01c7d	83 b9 1c 01 00
	00 00		 cmp	 DWORD PTR [ecx+284], 0
  01c84	74 34		 je	 SHORT $L190144

; 394  : 	{
; 395  : 		if (m_dcTracker.GetSafeHdc())

  01c86	8b 4d f0	 mov	 ecx, DWORD PTR _this$[ebp]
  01c89	81 c1 04 01 00
	00		 add	 ecx, 260		; 00000104H
  01c8f	e8 00 00 00 00	 call	 ?GetSafeHdc@CDC@@QBEPAUHDC__@@XZ ; CDC::GetSafeHdc
  01c94	85 c0		 test	 eax, eax
  01c96	74 15		 je	 SHORT $L190145

; 396  : 			m_dcTracker.SelectObject(m_pOldBitmap);

  01c98	8b 55 f0	 mov	 edx, DWORD PTR _this$[ebp]
  01c9b	8b 42 78	 mov	 eax, DWORD PTR [edx+120]
  01c9e	50		 push	 eax
  01c9f	8b 4d f0	 mov	 ecx, DWORD PTR _this$[ebp]
  01ca2	81 c1 04 01 00
	00		 add	 ecx, 260		; 00000104H
  01ca8	e8 00 00 00 00	 call	 ?SelectObject@CDC@@QAEPAVCBitmap@@PAV2@@Z ; CDC::SelectObject
$L190145:

; 397  : 		m_bmpoldTracker = NULL;

  01cad	8b 4d f0	 mov	 ecx, DWORD PTR _this$[ebp]
  01cb0	c7 81 1c 01 00
	00 00 00 00 00	 mov	 DWORD PTR [ecx+284], 0
$L190144:

; 398  : 	}
; 399  : 	if(m_memBitmap.GetSafeHandle())

  01cba	8b 4d f0	 mov	 ecx, DWORD PTR _this$[ebp]
  01cbd	83 c1 70	 add	 ecx, 112		; 00000070H
  01cc0	e8 00 00 00 00	 call	 ?GetSafeHandle@CGdiObject@@QBEPAXXZ ; CGdiObject::GetSafeHandle
  01cc5	85 c0		 test	 eax, eax
  01cc7	74 0b		 je	 SHORT $L190146

; 400  : 		m_memBitmap.DeleteObject();

  01cc9	8b 4d f0	 mov	 ecx, DWORD PTR _this$[ebp]
  01ccc	83 c1 70	 add	 ecx, 112		; 00000070H
  01ccf	e8 00 00 00 00	 call	 ?DeleteObject@CGdiObject@@QAEHXZ ; CGdiObject::DeleteObject
$L190146:

; 401  : 	if(m_memBitmap.CreateCompatibleBitmap(&dc,sz.cx,sz.cy))

  01cd4	8b 55 b4	 mov	 edx, DWORD PTR _sz$[ebp+4]
  01cd7	52		 push	 edx
  01cd8	8b 45 b0	 mov	 eax, DWORD PTR _sz$[ebp]
  01cdb	50		 push	 eax
  01cdc	8d 4d c0	 lea	 ecx, DWORD PTR _dc$[ebp]
  01cdf	51		 push	 ecx
  01ce0	8b 4d f0	 mov	 ecx, DWORD PTR _this$[ebp]
  01ce3	83 c1 70	 add	 ecx, 112		; 00000070H
  01ce6	e8 00 00 00 00	 call	 ?CreateCompatibleBitmap@CBitmap@@QAEHPAVCDC@@HH@Z ; CBitmap::CreateCompatibleBitmap
  01ceb	85 c0		 test	 eax, eax
  01ced	74 18		 je	 SHORT $L190147

; 402  : 		m_pOldBitmap = m_dcMem.SelectObject(&m_memBitmap);

  01cef	8b 55 f0	 mov	 edx, DWORD PTR _this$[ebp]
  01cf2	83 c2 70	 add	 edx, 112		; 00000070H
  01cf5	52		 push	 edx
  01cf6	8b 4d f0	 mov	 ecx, DWORD PTR _this$[ebp]
  01cf9	83 c1 60	 add	 ecx, 96			; 00000060H
  01cfc	e8 00 00 00 00	 call	 ?SelectObject@CDC@@QAEPAVCBitmap@@PAV2@@Z ; CDC::SelectObject
  01d01	8b 4d f0	 mov	 ecx, DWORD PTR _this$[ebp]
  01d04	89 41 78	 mov	 DWORD PTR [ecx+120], eax
$L190147:

; 403  : 	
; 404  : 	UpdateList();

  01d07	8b 4d f0	 mov	 ecx, DWORD PTR _this$[ebp]
  01d0a	e8 00 00 00 00	 call	 ?UpdateList@CLocalMusicCoverList@@IAEXXZ ; CLocalMusicCoverList::UpdateList

; 405  : 	m_ptClientStart.x = 0;

  01d0f	8b 55 f0	 mov	 edx, DWORD PTR _this$[ebp]
  01d12	c7 82 ac 00 00
	00 00 00 00 00	 mov	 DWORD PTR [edx+172], 0

; 406  : 	m_ptClientStart.y = 0;

  01d1c	8b 45 f0	 mov	 eax, DWORD PTR _this$[ebp]
  01d1f	c7 80 b0 00 00
	00 00 00 00 00	 mov	 DWORD PTR [eax+176], 0

; 407  : 	OnMemoryDraw();

  01d29	6a 01		 push	 1
  01d2b	8b 4d f0	 mov	 ecx, DWORD PTR _this$[ebp]
  01d2e	e8 00 00 00 00	 call	 ?OnMemoryDraw@CLocalMusicCoverList@@IAEXH@Z ; CLocalMusicCoverList::OnMemoryDraw

; 408  : }

  01d33	c7 45 fc ff ff
	ff ff		 mov	 DWORD PTR __$EHRec$[ebp+8], -1
  01d3a	8d 4d c0	 lea	 ecx, DWORD PTR _dc$[ebp]
  01d3d	e8 00 00 00 00	 call	 ??1CClientDC@@UAE@XZ	; CClientDC::~CClientDC
$L190134:
  01d42	52		 push	 edx
  01d43	8b cd		 mov	 ecx, ebp
  01d45	50		 push	 eax
  01d46	8d 15 00 00 00
	00		 lea	 edx, DWORD PTR $L192680
  01d4c	e8 00 00 00 00	 call	 @_RTC_CheckStackVars@8
  01d51	58		 pop	 eax
  01d52	5a		 pop	 edx
  01d53	8b 4d f4	 mov	 ecx, DWORD PTR __$EHRec$[ebp]
  01d56	64 89 0d 00 00
	00 00		 mov	 DWORD PTR fs:__except_list, ecx
  01d5d	5f		 pop	 edi
  01d5e	83 c4 54	 add	 esp, 84			; 00000054H
  01d61	3b ec		 cmp	 ebp, esp
  01d63	e8 00 00 00 00	 call	 __RTC_CheckEsp
  01d68	8b e5		 mov	 esp, ebp
  01d6a	5d		 pop	 ebp
  01d6b	c2 04 00	 ret	 4
$L192680:
  01d6e	03 00 00 00	 DD	 3
  01d72	00 00 00 00	 DD	 $L192679
$L192679:
  01d76	dc ff ff ff	 DD	 -36			; ffffffdcH
  01d7a	10 00 00 00	 DD	 16			; 00000010H
  01d7e	00 00 00 00	 DD	 $L192675
  01d82	c0 ff ff ff	 DD	 -64			; ffffffc0H
  01d86	14 00 00 00	 DD	 20			; 00000014H
  01d8a	00 00 00 00	 DD	 $L192676
  01d8e	b0 ff ff ff	 DD	 -80			; ffffffb0H
  01d92	08 00 00 00	 DD	 8
  01d96	00 00 00 00	 DD	 $L192677
$L192677:
  01d9a	73		 DB	 115			; 00000073H
  01d9b	7a		 DB	 122			; 0000007aH
  01d9c	00		 DB	 0
$L192676:
  01d9d	64		 DB	 100			; 00000064H
  01d9e	63		 DB	 99			; 00000063H
  01d9f	00		 DB	 0
$L192675:
  01da0	72		 DB	 114			; 00000072H
  01da1	73		 DB	 115			; 00000073H
  01da2	00		 DB	 0
_TEXT	ENDS
text$x	SEGMENT
$L192672:
  002ef	8d 4d c0	 lea	 ecx, DWORD PTR _dc$[ebp]
  002f2	e9 00 00 00 00	 jmp	 ??1CClientDC@@UAE@XZ	; CClientDC::~CClientDC
__ehhandler$?SizeChanged@CLocalMusicCoverList@@IAEXH@Z:
  002f7	b8 00 00 00 00	 mov	 eax, OFFSET FLAT:$T192674
  002fc	e9 00 00 00 00	 jmp	 ___CxxFrameHandler
text$x	ENDS
?SizeChanged@CLocalMusicCoverList@@IAEXH@Z ENDP		; CLocalMusicCoverList::SizeChanged
EXTRN	?FillSolidRect@CDC@@QAEXHHHHK@Z:NEAR		; CDC::FillSolidRect
EXTRN	_CoolSB_GetScrollPos@8:NEAR
EXTRN	_CoolSB_SetScrollInfo@16:NEAR
EXTRN	_CoolSB_ShowScrollBar@12:NEAR
xdata$x	SEGMENT
$T192696 DD	0ffffffffH
	DD	FLAT:$L192687
$T192689 DD	019930520H
	DD	01H
	DD	FLAT:$T192696
	DD	2 DUP(00H)
	DD	2 DUP(00H)
; Function compile flags: /Odt /RTCsu
xdata$x	ENDS
_TEXT	SEGMENT
tv215 = -132						; size = 4
tv139 = -128						; size = 4
_iPos$ = -124						; size = 4
_si$ = -116						; size = 28
_iLine$ = -84						; size = 4
_iCount$ = -80						; size = 4
_iW$ = -76						; size = 4
_iHeightSpace$ = -72					; size = 4
_dc$ = -64						; size = 20
_rs$ = -36						; size = 16
_this$ = -16						; size = 4
__$EHRec$ = -12						; size = 12
?UpdateList@CLocalMusicCoverList@@IAEXXZ PROC NEAR	; CLocalMusicCoverList::UpdateList
; _this$ = ecx

; 411  : {

  01db0	55		 push	 ebp
  01db1	8b ec		 mov	 ebp, esp
  01db3	6a ff		 push	 -1
  01db5	68 00 00 00 00	 push	 __ehhandler$?UpdateList@CLocalMusicCoverList@@IAEXXZ
  01dba	64 a1 00 00 00
	00		 mov	 eax, DWORD PTR fs:__except_list
  01dc0	50		 push	 eax
  01dc1	64 89 25 00 00
	00 00		 mov	 DWORD PTR fs:__except_list, esp
  01dc8	83 ec 78	 sub	 esp, 120		; 00000078H
  01dcb	57		 push	 edi
  01dcc	51		 push	 ecx
  01dcd	8d bd 7c ff ff
	ff		 lea	 edi, DWORD PTR [ebp-132]
  01dd3	b9 1e 00 00 00	 mov	 ecx, 30			; 0000001eH
  01dd8	b8 cc cc cc cc	 mov	 eax, -858993460		; ccccccccH
  01ddd	f3 ab		 rep stosd
  01ddf	59		 pop	 ecx
  01de0	89 4d f0	 mov	 DWORD PTR _this$[ebp], ecx

; 412  : 	m_ptClientStart.SetPoint(0,0);

  01de3	6a 00		 push	 0
  01de5	6a 00		 push	 0
  01de7	8b 4d f0	 mov	 ecx, DWORD PTR _this$[ebp]
  01dea	81 c1 ac 00 00
	00		 add	 ecx, 172		; 000000acH
  01df0	e8 00 00 00 00	 call	 ?SetPoint@CPoint@@QAEXHH@Z ; CPoint::SetPoint

; 413  : 	CRect rs;

  01df5	8d 4d dc	 lea	 ecx, DWORD PTR _rs$[ebp]
  01df8	e8 00 00 00 00	 call	 ??0CRect@@QAE@XZ	; CRect::CRect

; 414  : 	GetClientRect(&rs);

  01dfd	8d 45 dc	 lea	 eax, DWORD PTR _rs$[ebp]
  01e00	50		 push	 eax
  01e01	8b 4d f0	 mov	 ecx, DWORD PTR _this$[ebp]
  01e04	e8 00 00 00 00	 call	 ?GetClientRect@CWnd@@QBEXPAUtagRECT@@@Z ; CWnd::GetClientRect

; 415  : 	if (rs.IsRectNull() || rs.IsRectEmpty()) return;

  01e09	8d 4d dc	 lea	 ecx, DWORD PTR _rs$[ebp]
  01e0c	e8 00 00 00 00	 call	 ?IsRectNull@CRect@@QBEHXZ ; CRect::IsRectNull
  01e11	85 c0		 test	 eax, eax
  01e13	75 0c		 jne	 SHORT $L190153
  01e15	8d 4d dc	 lea	 ecx, DWORD PTR _rs$[ebp]
  01e18	e8 00 00 00 00	 call	 ?IsRectEmpty@CRect@@QBEHXZ ; CRect::IsRectEmpty
  01e1d	85 c0		 test	 eax, eax
  01e1f	74 05		 je	 SHORT $L190152
$L190153:
  01e21	e9 3a 02 00 00	 jmp	 $L190150
$L190152:

; 416  : 	CClientDC dc(this);

  01e26	8b 4d f0	 mov	 ecx, DWORD PTR _this$[ebp]
  01e29	51		 push	 ecx
  01e2a	8d 4d c0	 lea	 ecx, DWORD PTR _dc$[ebp]
  01e2d	e8 00 00 00 00	 call	 ??0CClientDC@@QAE@PAVCWnd@@@Z ; CClientDC::CClientDC
  01e32	c7 45 fc 00 00
	00 00		 mov	 DWORD PTR __$EHRec$[ebp+8], 0

; 417  : 	if (m_bmpTracker.GetSafeHandle())

  01e39	8b 4d f0	 mov	 ecx, DWORD PTR _this$[ebp]
  01e3c	81 c1 14 01 00
	00		 add	 ecx, 276		; 00000114H
  01e42	e8 00 00 00 00	 call	 ?GetSafeHandle@CGdiObject@@QBEPAXXZ ; CGdiObject::GetSafeHandle
  01e47	85 c0		 test	 eax, eax
  01e49	74 0e		 je	 SHORT $L190155

; 418  : 		m_bmpTracker.DeleteObject();

  01e4b	8b 4d f0	 mov	 ecx, DWORD PTR _this$[ebp]
  01e4e	81 c1 14 01 00
	00		 add	 ecx, 276		; 00000114H
  01e54	e8 00 00 00 00	 call	 ?DeleteObject@CGdiObject@@QAEHXZ ; CGdiObject::DeleteObject
$L190155:

; 419  : 	int iHeightSpace=0;

  01e59	c7 45 b8 00 00
	00 00		 mov	 DWORD PTR _iHeightSpace$[ebp], 0

; 420  : 	if (m_ImgState==LMCI_Small)

  01e60	8b 55 f0	 mov	 edx, DWORD PTR _this$[ebp]
  01e63	83 7a 5c 00	 cmp	 DWORD PTR [edx+92], 0
  01e67	75 0e		 jne	 SHORT $L190157

; 421  : 		iHeightSpace = m_iItemHeight+SPACEH + ITEMTXTH + SPACEH;

  01e69	8b 45 f0	 mov	 eax, DWORD PTR _this$[ebp]
  01e6c	8b 48 58	 mov	 ecx, DWORD PTR [eax+88]
  01e6f	83 c1 17	 add	 ecx, 23			; 00000017H
  01e72	89 4d b8	 mov	 DWORD PTR _iHeightSpace$[ebp], ecx

; 422  : 	else

  01e75	eb 0c		 jmp	 SHORT $L190158
$L190157:

; 423  : 		iHeightSpace = m_iItemHeight+SPACEH + ITEMTXTH + SPACEH + ITEMTXTH + SPACEH*3;

  01e77	8b 55 f0	 mov	 edx, DWORD PTR _this$[ebp]
  01e7a	8b 42 58	 mov	 eax, DWORD PTR [edx+88]
  01e7d	83 c0 32	 add	 eax, 50			; 00000032H
  01e80	89 45 b8	 mov	 DWORD PTR _iHeightSpace$[ebp], eax
$L190158:

; 424  : 	int iW=0;

  01e83	c7 45 b4 00 00
	00 00		 mov	 DWORD PTR _iW$[ebp], 0

; 425  : 	m_ImgState==LMCI_Small?iW = m_iItemWidth+SPACEWS:iW = m_iItemWidth+SPACEW;

  01e8a	8b 4d f0	 mov	 ecx, DWORD PTR _this$[ebp]
  01e8d	83 79 5c 00	 cmp	 DWORD PTR [ecx+92], 0
  01e91	75 14		 jne	 SHORT $L192683
  01e93	8b 55 f0	 mov	 edx, DWORD PTR _this$[ebp]
  01e96	8b 42 54	 mov	 eax, DWORD PTR [edx+84]
  01e99	83 c0 0a	 add	 eax, 10			; 0000000aH
  01e9c	89 45 b4	 mov	 DWORD PTR _iW$[ebp], eax
  01e9f	8b 4d b4	 mov	 ecx, DWORD PTR _iW$[ebp]
  01ea2	89 4d 80	 mov	 DWORD PTR tv139[ebp], ecx
  01ea5	eb 12		 jmp	 SHORT $L192684
$L192683:
  01ea7	8b 55 f0	 mov	 edx, DWORD PTR _this$[ebp]
  01eaa	8b 42 54	 mov	 eax, DWORD PTR [edx+84]
  01ead	83 c0 10	 add	 eax, 16			; 00000010H
  01eb0	89 45 b4	 mov	 DWORD PTR _iW$[ebp], eax
  01eb3	8b 4d b4	 mov	 ecx, DWORD PTR _iW$[ebp]
  01eb6	89 4d 80	 mov	 DWORD PTR tv139[ebp], ecx
$L192684:

; 426  : 	
; 427  : 	int iCount = m_rect.Width()/iW;

  01eb9	8b 4d f0	 mov	 ecx, DWORD PTR _this$[ebp]
  01ebc	81 c1 8c 00 00
	00		 add	 ecx, 140		; 0000008cH
  01ec2	e8 00 00 00 00	 call	 ?Width@CRect@@QBEHXZ	; CRect::Width
  01ec7	99		 cdq
  01ec8	f7 7d b4	 idiv	 DWORD PTR _iW$[ebp]
  01ecb	89 45 b0	 mov	 DWORD PTR _iCount$[ebp], eax

; 428  : 	int iLine = m_DataMgr.m_vItem.size()/iCount;

  01ece	8b 4d f0	 mov	 ecx, DWORD PTR _this$[ebp]
  01ed1	81 c1 6c 01 00
	00		 add	 ecx, 364		; 0000016cH
  01ed7	e8 00 00 00 00	 call	 ?size@?$vector@U_tagLMCItemInfo@@V?$allocator@U_tagLMCItemInfo@@@std@@@std@@QBEIXZ ; std::vector<_tagLMCItemInfo,std::allocator<_tagLMCItemInfo> >::size
  01edc	33 d2		 xor	 edx, edx
  01ede	f7 75 b0	 div	 DWORD PTR _iCount$[ebp]
  01ee1	89 45 ac	 mov	 DWORD PTR _iLine$[ebp], eax

; 429  : 	if (m_DataMgr.m_vItem.size()%iCount)

  01ee4	8b 4d f0	 mov	 ecx, DWORD PTR _this$[ebp]
  01ee7	81 c1 6c 01 00
	00		 add	 ecx, 364		; 0000016cH
  01eed	e8 00 00 00 00	 call	 ?size@?$vector@U_tagLMCItemInfo@@V?$allocator@U_tagLMCItemInfo@@@std@@@std@@QBEIXZ ; std::vector<_tagLMCItemInfo,std::allocator<_tagLMCItemInfo> >::size
  01ef2	33 d2		 xor	 edx, edx
  01ef4	f7 75 b0	 div	 DWORD PTR _iCount$[ebp]
  01ef7	85 d2		 test	 edx, edx
  01ef9	74 09		 je	 SHORT $L190162

; 430  : 		iLine++;

  01efb	8b 55 ac	 mov	 edx, DWORD PTR _iLine$[ebp]
  01efe	83 c2 01	 add	 edx, 1
  01f01	89 55 ac	 mov	 DWORD PTR _iLine$[ebp], edx
$L190162:

; 431  : 	m_rcRealRect.bottom = iLine* iHeightSpace;

  01f04	8b 45 ac	 mov	 eax, DWORD PTR _iLine$[ebp]
  01f07	0f af 45 b8	 imul	 eax, DWORD PTR _iHeightSpace$[ebp]
  01f0b	8b 4d f0	 mov	 ecx, DWORD PTR _this$[ebp]
  01f0e	89 81 a8 00 00
	00		 mov	 DWORD PTR [ecx+168], eax

; 432  : 	m_rcRealRect.right = m_rect.right;

  01f14	8b 55 f0	 mov	 edx, DWORD PTR _this$[ebp]
  01f17	8b 45 f0	 mov	 eax, DWORD PTR _this$[ebp]
  01f1a	8b 88 94 00 00
	00		 mov	 ecx, DWORD PTR [eax+148]
  01f20	89 8a a4 00 00
	00		 mov	 DWORD PTR [edx+164], ecx

; 433  : 
; 434  : 	if (m_bmpTracker.CreateCompatibleBitmap(&dc,m_rect.Width(),m_rect.Height()))

  01f26	8b 4d f0	 mov	 ecx, DWORD PTR _this$[ebp]
  01f29	81 c1 8c 00 00
	00		 add	 ecx, 140		; 0000008cH
  01f2f	e8 00 00 00 00	 call	 ?Height@CRect@@QBEHXZ	; CRect::Height
  01f34	50		 push	 eax
  01f35	8b 4d f0	 mov	 ecx, DWORD PTR _this$[ebp]
  01f38	81 c1 8c 00 00
	00		 add	 ecx, 140		; 0000008cH
  01f3e	e8 00 00 00 00	 call	 ?Width@CRect@@QBEHXZ	; CRect::Width
  01f43	50		 push	 eax
  01f44	8d 55 c0	 lea	 edx, DWORD PTR _dc$[ebp]
  01f47	52		 push	 edx
  01f48	8b 4d f0	 mov	 ecx, DWORD PTR _this$[ebp]
  01f4b	81 c1 14 01 00
	00		 add	 ecx, 276		; 00000114H
  01f51	e8 00 00 00 00	 call	 ?CreateCompatibleBitmap@CBitmap@@QAEHPAVCDC@@HH@Z ; CBitmap::CreateCompatibleBitmap
  01f56	85 c0		 test	 eax, eax
  01f58	74 55		 je	 SHORT $L190163

; 435  :  	{
; 436  :  		m_bmpoldTracker = m_dcTracker.SelectObject(&m_bmpTracker);

  01f5a	8b 45 f0	 mov	 eax, DWORD PTR _this$[ebp]
  01f5d	05 14 01 00 00	 add	 eax, 276		; 00000114H
  01f62	50		 push	 eax
  01f63	8b 4d f0	 mov	 ecx, DWORD PTR _this$[ebp]
  01f66	81 c1 04 01 00
	00		 add	 ecx, 260		; 00000104H
  01f6c	e8 00 00 00 00	 call	 ?SelectObject@CDC@@QAEPAVCBitmap@@PAV2@@Z ; CDC::SelectObject
  01f71	8b 4d f0	 mov	 ecx, DWORD PTR _this$[ebp]
  01f74	89 81 1c 01 00
	00		 mov	 DWORD PTR [ecx+284], eax

; 437  :  		//m_dcTracker.FillSolidRect(0,0,m_rcRealRect.Width(),m_rcRealRect.Height(),RGB(180,180,180));
; 438  : 		m_dcTracker.FillSolidRect(0,0,m_rect.Width(),m_rect.Height(),RGB(180,180,180));

  01f7a	68 b4 b4 b4 00	 push	 11842740		; 00b4b4b4H
  01f7f	8b 4d f0	 mov	 ecx, DWORD PTR _this$[ebp]
  01f82	81 c1 8c 00 00
	00		 add	 ecx, 140		; 0000008cH
  01f88	e8 00 00 00 00	 call	 ?Height@CRect@@QBEHXZ	; CRect::Height
  01f8d	50		 push	 eax
  01f8e	8b 4d f0	 mov	 ecx, DWORD PTR _this$[ebp]
  01f91	81 c1 8c 00 00
	00		 add	 ecx, 140		; 0000008cH
  01f97	e8 00 00 00 00	 call	 ?Width@CRect@@QBEHXZ	; CRect::Width
  01f9c	50		 push	 eax
  01f9d	6a 00		 push	 0
  01f9f	6a 00		 push	 0
  01fa1	8b 4d f0	 mov	 ecx, DWORD PTR _this$[ebp]
  01fa4	81 c1 04 01 00
	00		 add	 ecx, 260		; 00000104H
  01faa	e8 00 00 00 00	 call	 ?FillSolidRect@CDC@@QAEXHHHHK@Z ; CDC::FillSolidRect
$L190163:

; 439  :  	}
; 440  : 
; 441  : 	SCROLLINFO si;
; 442  : 	si.cbSize	= sizeof(si);

  01faf	c7 45 8c 1c 00
	00 00		 mov	 DWORD PTR _si$[ebp], 28	; 0000001cH

; 443  : 	si.fMask	= SIF_PAGE | SIF_POS | SIF_RANGE | SIF_DISABLENOSCROLL;

  01fb6	c7 45 90 0f 00
	00 00		 mov	 DWORD PTR _si$[ebp+4], 15 ; 0000000fH

; 444  : 	si.nMin		= 0;

  01fbd	c7 45 94 00 00
	00 00		 mov	 DWORD PTR _si$[ebp+8], 0

; 445  : 	si.nMax		= m_rcRealRect.Height();

  01fc4	8b 4d f0	 mov	 ecx, DWORD PTR _this$[ebp]
  01fc7	81 c1 9c 00 00
	00		 add	 ecx, 156		; 0000009cH
  01fcd	e8 00 00 00 00	 call	 ?Height@CRect@@QBEHXZ	; CRect::Height
  01fd2	89 45 98	 mov	 DWORD PTR _si$[ebp+12], eax

; 446  : 	si.nPos		= 0;

  01fd5	c7 45 a0 00 00
	00 00		 mov	 DWORD PTR _si$[ebp+20], 0

; 447  : 	si.nPage	= rs.Height();

  01fdc	8d 4d dc	 lea	 ecx, DWORD PTR _rs$[ebp]
  01fdf	e8 00 00 00 00	 call	 ?Height@CRect@@QBEHXZ	; CRect::Height
  01fe4	89 45 9c	 mov	 DWORD PTR _si$[ebp+16], eax

; 448  : 	si.nMax<m_rect.Height()?CoolSB_ShowScrollBar(m_hWnd,SB_VERT,FALSE):CoolSB_SetScrollInfo (m_hWnd, SB_VERT, &si, TRUE);

  01fe7	8b 4d f0	 mov	 ecx, DWORD PTR _this$[ebp]
  01fea	81 c1 8c 00 00
	00		 add	 ecx, 140		; 0000008cH
  01ff0	e8 00 00 00 00	 call	 ?Height@CRect@@QBEHXZ	; CRect::Height
  01ff5	39 45 98	 cmp	 DWORD PTR _si$[ebp+12], eax
  01ff8	7d 18		 jge	 SHORT $L192685
  01ffa	6a 00		 push	 0
  01ffc	6a 01		 push	 1
  01ffe	8b 55 f0	 mov	 edx, DWORD PTR _this$[ebp]
  02001	8b 42 20	 mov	 eax, DWORD PTR [edx+32]
  02004	50		 push	 eax
  02005	e8 00 00 00 00	 call	 _CoolSB_ShowScrollBar@12
  0200a	89 85 7c ff ff
	ff		 mov	 DWORD PTR tv215[ebp], eax
  02010	eb 1a		 jmp	 SHORT $L192686
$L192685:
  02012	6a 01		 push	 1
  02014	8d 4d 8c	 lea	 ecx, DWORD PTR _si$[ebp]
  02017	51		 push	 ecx
  02018	6a 01		 push	 1
  0201a	8b 55 f0	 mov	 edx, DWORD PTR _this$[ebp]
  0201d	8b 42 20	 mov	 eax, DWORD PTR [edx+32]
  02020	50		 push	 eax
  02021	e8 00 00 00 00	 call	 _CoolSB_SetScrollInfo@16
  02026	89 85 7c ff ff
	ff		 mov	 DWORD PTR tv215[ebp], eax
$L192686:

; 449  : 	//CoolSB_SetScrollRange(m_hWnd,SB_VERT,0,m_rcRealRect.Height(),TRUE);
; 450  : 	// 
; 451  : 	int iPos = CoolSB_GetScrollPos(m_hWnd,SB_VERT);

  0202c	6a 01		 push	 1
  0202e	8b 4d f0	 mov	 ecx, DWORD PTR _this$[ebp]
  02031	8b 51 20	 mov	 edx, DWORD PTR [ecx+32]
  02034	52		 push	 edx
  02035	e8 00 00 00 00	 call	 _CoolSB_GetScrollPos@8
  0203a	89 45 84	 mov	 DWORD PTR _iPos$[ebp], eax

; 452  : 	CoolSB_SetScrollPos(m_hWnd,SB_VERT,iPos,TRUE);

  0203d	6a 01		 push	 1
  0203f	8b 45 84	 mov	 eax, DWORD PTR _iPos$[ebp]
  02042	50		 push	 eax
  02043	6a 01		 push	 1
  02045	8b 4d f0	 mov	 ecx, DWORD PTR _this$[ebp]
  02048	8b 51 20	 mov	 edx, DWORD PTR [ecx+32]
  0204b	52		 push	 edx
  0204c	e8 00 00 00 00	 call	 _CoolSB_SetScrollPos@16

; 453  : }

  02051	c7 45 fc ff ff
	ff ff		 mov	 DWORD PTR __$EHRec$[ebp+8], -1
  02058	8d 4d c0	 lea	 ecx, DWORD PTR _dc$[ebp]
  0205b	e8 00 00 00 00	 call	 ??1CClientDC@@UAE@XZ	; CClientDC::~CClientDC
$L190150:
  02060	52		 push	 edx
  02061	8b cd		 mov	 ecx, ebp
  02063	50		 push	 eax
  02064	8d 15 00 00 00
	00		 lea	 edx, DWORD PTR $L192695
  0206a	e8 00 00 00 00	 call	 @_RTC_CheckStackVars@8
  0206f	58		 pop	 eax
  02070	5a		 pop	 edx
  02071	8b 4d f4	 mov	 ecx, DWORD PTR __$EHRec$[ebp]
  02074	64 89 0d 00 00
	00 00		 mov	 DWORD PTR fs:__except_list, ecx
  0207b	5f		 pop	 edi
  0207c	81 c4 84 00 00
	00		 add	 esp, 132		; 00000084H
  02082	3b ec		 cmp	 ebp, esp
  02084	e8 00 00 00 00	 call	 __RTC_CheckEsp
  02089	8b e5		 mov	 esp, ebp
  0208b	5d		 pop	 ebp
  0208c	c3		 ret	 0
$L192695:
  0208d	03 00 00 00	 DD	 3
  02091	00 00 00 00	 DD	 $L192694
$L192694:
  02095	dc ff ff ff	 DD	 -36			; ffffffdcH
  02099	10 00 00 00	 DD	 16			; 00000010H
  0209d	00 00 00 00	 DD	 $L192690
  020a1	c0 ff ff ff	 DD	 -64			; ffffffc0H
  020a5	14 00 00 00	 DD	 20			; 00000014H
  020a9	00 00 00 00	 DD	 $L192691
  020ad	8c ff ff ff	 DD	 -116			; ffffff8cH
  020b1	1c 00 00 00	 DD	 28			; 0000001cH
  020b5	00 00 00 00	 DD	 $L192692
$L192692:
  020b9	73		 DB	 115			; 00000073H
  020ba	69		 DB	 105			; 00000069H
  020bb	00		 DB	 0
$L192691:
  020bc	64		 DB	 100			; 00000064H
  020bd	63		 DB	 99			; 00000063H
  020be	00		 DB	 0
$L192690:
  020bf	72		 DB	 114			; 00000072H
  020c0	73		 DB	 115			; 00000073H
  020c1	00		 DB	 0
_TEXT	ENDS
text$x	SEGMENT
$L192687:
  00301	8d 4d c0	 lea	 ecx, DWORD PTR _dc$[ebp]
  00304	e9 00 00 00 00	 jmp	 ??1CClientDC@@UAE@XZ	; CClientDC::~CClientDC
__ehhandler$?UpdateList@CLocalMusicCoverList@@IAEXXZ:
  00309	b8 00 00 00 00	 mov	 eax, OFFSET FLAT:$T192689
  0030e	e9 00 00 00 00	 jmp	 ___CxxFrameHandler
text$x	ENDS
?UpdateList@CLocalMusicCoverList@@IAEXXZ ENDP		; CLocalMusicCoverList::UpdateList
; Function compile flags: /Odt /RTCsu
_TEXT	SEGMENT
_h$ = -12						; size = 4
_w$ = -8						; size = 4
_this$ = -4						; size = 4
_pBitmapVert$ = 8					; size = 4
_pBitmapHorz$ = 12					; size = 4
?SetScrollBitmap@CLocalMusicCoverList@@QAEXPAVCDibBitmap@@0@Z PROC NEAR ; CLocalMusicCoverList::SetScrollBitmap
; _this$ = ecx

; 456  : {

  020d0	55		 push	 ebp
  020d1	8b ec		 mov	 ebp, esp
  020d3	83 ec 0c	 sub	 esp, 12			; 0000000cH
  020d6	c7 45 f4 cc cc
	cc cc		 mov	 DWORD PTR [ebp-12], -858993460 ; ccccccccH
  020dd	c7 45 f8 cc cc
	cc cc		 mov	 DWORD PTR [ebp-8], -858993460 ; ccccccccH
  020e4	c7 45 fc cc cc
	cc cc		 mov	 DWORD PTR [ebp-4], -858993460 ; ccccccccH
  020eb	89 4d fc	 mov	 DWORD PTR _this$[ebp], ecx

; 457  : 	m_pBitmapScrollHorz = pBitmapHorz;

  020ee	8b 45 fc	 mov	 eax, DWORD PTR _this$[ebp]
  020f1	8b 4d 0c	 mov	 ecx, DWORD PTR _pBitmapHorz$[ebp]
  020f4	89 88 58 01 00
	00		 mov	 DWORD PTR [eax+344], ecx

; 458  : 	m_pBitmapScrollVert = pBitmapVert;

  020fa	8b 55 fc	 mov	 edx, DWORD PTR _this$[ebp]
  020fd	8b 45 08	 mov	 eax, DWORD PTR _pBitmapVert$[ebp]
  02100	89 82 54 01 00
	00		 mov	 DWORD PTR [edx+340], eax

; 459  : 
; 460  : 	int w,h;
; 461  : 	w = h = 15;

  02106	c7 45 f4 0f 00
	00 00		 mov	 DWORD PTR _h$[ebp], 15	; 0000000fH
  0210d	8b 4d f4	 mov	 ecx, DWORD PTR _h$[ebp]
  02110	89 4d f8	 mov	 DWORD PTR _w$[ebp], ecx

; 462  : 	if( m_pBitmapScrollHorz && m_pBitmapScrollVert )

  02113	8b 55 fc	 mov	 edx, DWORD PTR _this$[ebp]
  02116	83 ba 58 01 00
	00 00		 cmp	 DWORD PTR [edx+344], 0
  0211d	74 3e		 je	 SHORT $L190179
  0211f	8b 45 fc	 mov	 eax, DWORD PTR _this$[ebp]
  02122	83 b8 54 01 00
	00 00		 cmp	 DWORD PTR [eax+340], 0
  02129	74 32		 je	 SHORT $L190179

; 463  : 	{
; 464  : 		h = m_pBitmapScrollVert->GetHeight() / 3;

  0212b	8b 4d fc	 mov	 ecx, DWORD PTR _this$[ebp]
  0212e	8b 89 54 01 00
	00		 mov	 ecx, DWORD PTR [ecx+340]
  02134	e8 00 00 00 00	 call	 ?GetHeight@CDibBitmap@@QAEHXZ ; CDibBitmap::GetHeight
  02139	99		 cdq
  0213a	b9 03 00 00 00	 mov	 ecx, 3
  0213f	f7 f9		 idiv	 ecx
  02141	89 45 f4	 mov	 DWORD PTR _h$[ebp], eax

; 465  : 		w = m_pBitmapScrollVert->GetWidth() / 6;

  02144	8b 55 fc	 mov	 edx, DWORD PTR _this$[ebp]
  02147	8b 8a 54 01 00
	00		 mov	 ecx, DWORD PTR [edx+340]
  0214d	e8 00 00 00 00	 call	 ?GetWidth@CDibBitmap@@QAEHXZ ; CDibBitmap::GetWidth
  02152	99		 cdq
  02153	b9 06 00 00 00	 mov	 ecx, 6
  02158	f7 f9		 idiv	 ecx
  0215a	89 45 f8	 mov	 DWORD PTR _w$[ebp], eax
$L190179:

; 466  : 	}
; 467  : 	CoolSB_SetSize(m_hWnd, SB_BOTH, h, w);

  0215d	8b 55 f8	 mov	 edx, DWORD PTR _w$[ebp]
  02160	52		 push	 edx
  02161	8b 45 f4	 mov	 eax, DWORD PTR _h$[ebp]
  02164	50		 push	 eax
  02165	6a 03		 push	 3
  02167	8b 4d fc	 mov	 ecx, DWORD PTR _this$[ebp]
  0216a	8b 51 20	 mov	 edx, DWORD PTR [ecx+32]
  0216d	52		 push	 edx
  0216e	e8 00 00 00 00	 call	 _CoolSB_SetSize@16

; 468  : 	::CoolSB_SetMinThumbSize(m_hWnd, SB_BOTH, 8);

  02173	6a 08		 push	 8
  02175	6a 03		 push	 3
  02177	8b 45 fc	 mov	 eax, DWORD PTR _this$[ebp]
  0217a	8b 48 20	 mov	 ecx, DWORD PTR [eax+32]
  0217d	51		 push	 ecx
  0217e	e8 00 00 00 00	 call	 _CoolSB_SetMinThumbSize@12

; 469  : 
; 470  : }

  02183	83 c4 0c	 add	 esp, 12			; 0000000cH
  02186	3b ec		 cmp	 ebp, esp
  02188	e8 00 00 00 00	 call	 __RTC_CheckEsp
  0218d	8b e5		 mov	 esp, ebp
  0218f	5d		 pop	 ebp
  02190	c2 08 00	 ret	 8
?SetScrollBitmap@CLocalMusicCoverList@@QAEXPAVCDibBitmap@@0@Z ENDP ; CLocalMusicCoverList::SetScrollBitmap
_TEXT	ENDS
PUBLIC	?AddLine@GraphicsPath@Gdiplus@@QAE?AW4Status@2@HHHH@Z ; Gdiplus::GraphicsPath::AddLine
PUBLIC	?AddArc@GraphicsPath@Gdiplus@@QAE?AW4Status@2@HHHHMM@Z ; Gdiplus::GraphicsPath::AddArc
PUBLIC	?MakeRoundRect@CLocalMusicCoverList@@IAEPAVGraphicsPath@Gdiplus@@VPoint@3@0H@Z ; CLocalMusicCoverList::MakeRoundRect
PUBLIC	??0GraphicsPath@Gdiplus@@QAE@W4FillMode@1@@Z	; Gdiplus::GraphicsPath::GraphicsPath
PUBLIC	??1GraphicsPath@Gdiplus@@QAE@XZ			; Gdiplus::GraphicsPath::~GraphicsPath
PUBLIC	?Clone@GraphicsPath@Gdiplus@@QBEPAV12@XZ	; Gdiplus::GraphicsPath::Clone
EXTRN	?AfxAssertFailedLine@@YGHPBDH@Z:NEAR		; AfxAssertFailedLine
xdata$x	SEGMENT
$T192717 DD	0ffffffffH
	DD	FLAT:$L192710
$T192712 DD	019930520H
	DD	01H
	DD	FLAT:$T192717
	DD	2 DUP(00H)
	DD	2 DUP(00H)
; Function compile flags: /Odt /RTCsu
xdata$x	ENDS
_TEXT	SEGMENT
tv78 = -80						; size = 4
tv76 = -76						; size = 4
tv74 = -72						; size = 4
tv72 = -68						; size = 4
$T192709 = -64						; size = 4
_path$ = -60						; size = 4
_pt$ = -52						; size = 8
_offsetY$ = -40						; size = 4
_offsetX$ = -36						; size = 4
_bottom$ = -32						; size = 4
_top$ = -28						; size = 4
_right$ = -24						; size = 4
_left$ = -20						; size = 4
_this$ = -16						; size = 4
__$EHRec$ = -12						; size = 12
_topLeft$ = 8						; size = 8
_bottomRight$ = 16					; size = 8
_percentageRounded$ = 24				; size = 4
?MakeRoundRect@CLocalMusicCoverList@@IAEPAVGraphicsPath@Gdiplus@@VPoint@3@0H@Z PROC NEAR ; CLocalMusicCoverList::MakeRoundRect
; _this$ = ecx

; 473  : {

  021a0	55		 push	 ebp
  021a1	8b ec		 mov	 ebp, esp
  021a3	6a ff		 push	 -1
  021a5	68 00 00 00 00	 push	 __ehhandler$?MakeRoundRect@CLocalMusicCoverList@@IAEPAVGraphicsPath@Gdiplus@@VPoint@3@0H@Z
  021aa	64 a1 00 00 00
	00		 mov	 eax, DWORD PTR fs:__except_list
  021b0	50		 push	 eax
  021b1	64 89 25 00 00
	00 00		 mov	 DWORD PTR fs:__except_list, esp
  021b8	83 ec 44	 sub	 esp, 68			; 00000044H
  021bb	57		 push	 edi
  021bc	51		 push	 ecx
  021bd	8d 7d b0	 lea	 edi, DWORD PTR [ebp-80]
  021c0	b9 11 00 00 00	 mov	 ecx, 17			; 00000011H
  021c5	b8 cc cc cc cc	 mov	 eax, -858993460		; ccccccccH
  021ca	f3 ab		 rep stosd
  021cc	59		 pop	 ecx
  021cd	89 4d f0	 mov	 DWORD PTR _this$[ebp], ecx

; 474  : 	ASSERT (percentageRounded >= 1 && percentageRounded <= 100);

  021d0	83 7d 18 01	 cmp	 DWORD PTR _percentageRounded$[ebp], 1
  021d4	7c 06		 jl	 SHORT $L192699
  021d6	83 7d 18 64	 cmp	 DWORD PTR _percentageRounded$[ebp], 100 ; 00000064H
  021da	7e 14		 jle	 SHORT $L192700
$L192699:
  021dc	68 da 01 00 00	 push	 474			; 000001daH
  021e1	68 00 00 00 00	 push	 OFFSET FLAT:$SG190187
  021e6	e8 00 00 00 00	 call	 ?AfxAssertFailedLine@@YGHPBDH@Z ; AfxAssertFailedLine
  021eb	85 c0		 test	 eax, eax
  021ed	74 01		 je	 SHORT $L192700
  021ef	cc		 int	 3
$L192700:

; 475  : 
; 476  : 	INT left  = min(topLeft.X, bottomRight.X);

  021f0	8b 4d 08	 mov	 ecx, DWORD PTR _topLeft$[ebp]
  021f3	3b 4d 10	 cmp	 ecx, DWORD PTR _bottomRight$[ebp]
  021f6	7d 08		 jge	 SHORT $L192701
  021f8	8b 55 08	 mov	 edx, DWORD PTR _topLeft$[ebp]
  021fb	89 55 bc	 mov	 DWORD PTR tv72[ebp], edx
  021fe	eb 06		 jmp	 SHORT $L192702
$L192701:
  02200	8b 45 10	 mov	 eax, DWORD PTR _bottomRight$[ebp]
  02203	89 45 bc	 mov	 DWORD PTR tv72[ebp], eax
$L192702:
  02206	8b 4d bc	 mov	 ecx, DWORD PTR tv72[ebp]
  02209	89 4d ec	 mov	 DWORD PTR _left$[ebp], ecx

; 477  : 	INT right = max(topLeft.X, bottomRight.X);

  0220c	8b 55 08	 mov	 edx, DWORD PTR _topLeft$[ebp]
  0220f	3b 55 10	 cmp	 edx, DWORD PTR _bottomRight$[ebp]
  02212	7e 08		 jle	 SHORT $L192703
  02214	8b 45 08	 mov	 eax, DWORD PTR _topLeft$[ebp]
  02217	89 45 b8	 mov	 DWORD PTR tv74[ebp], eax
  0221a	eb 06		 jmp	 SHORT $L192704
$L192703:
  0221c	8b 4d 10	 mov	 ecx, DWORD PTR _bottomRight$[ebp]
  0221f	89 4d b8	 mov	 DWORD PTR tv74[ebp], ecx
$L192704:
  02222	8b 55 b8	 mov	 edx, DWORD PTR tv74[ebp]
  02225	89 55 e8	 mov	 DWORD PTR _right$[ebp], edx

; 478  : 
; 479  : 	INT top    = min(topLeft.Y, bottomRight.Y);

  02228	8b 45 0c	 mov	 eax, DWORD PTR _topLeft$[ebp+4]
  0222b	3b 45 14	 cmp	 eax, DWORD PTR _bottomRight$[ebp+4]
  0222e	7d 08		 jge	 SHORT $L192705
  02230	8b 4d 0c	 mov	 ecx, DWORD PTR _topLeft$[ebp+4]
  02233	89 4d b4	 mov	 DWORD PTR tv76[ebp], ecx
  02236	eb 06		 jmp	 SHORT $L192706
$L192705:
  02238	8b 55 14	 mov	 edx, DWORD PTR _bottomRight$[ebp+4]
  0223b	89 55 b4	 mov	 DWORD PTR tv76[ebp], edx
$L192706:
  0223e	8b 45 b4	 mov	 eax, DWORD PTR tv76[ebp]
  02241	89 45 e4	 mov	 DWORD PTR _top$[ebp], eax

; 480  : 	INT bottom = max(topLeft.Y, bottomRight.Y);

  02244	8b 4d 0c	 mov	 ecx, DWORD PTR _topLeft$[ebp+4]
  02247	3b 4d 14	 cmp	 ecx, DWORD PTR _bottomRight$[ebp+4]
  0224a	7e 08		 jle	 SHORT $L192707
  0224c	8b 55 0c	 mov	 edx, DWORD PTR _topLeft$[ebp+4]
  0224f	89 55 b0	 mov	 DWORD PTR tv78[ebp], edx
  02252	eb 06		 jmp	 SHORT $L192708
$L192707:
  02254	8b 45 14	 mov	 eax, DWORD PTR _bottomRight$[ebp+4]
  02257	89 45 b0	 mov	 DWORD PTR tv78[ebp], eax
$L192708:
  0225a	8b 4d b0	 mov	 ecx, DWORD PTR tv78[ebp]
  0225d	89 4d e0	 mov	 DWORD PTR _bottom$[ebp], ecx

; 481  : 
; 482  : 	INT offsetX = (right-left)*percentageRounded/100;  

  02260	8b 45 e8	 mov	 eax, DWORD PTR _right$[ebp]
  02263	2b 45 ec	 sub	 eax, DWORD PTR _left$[ebp]
  02266	0f af 45 18	 imul	 eax, DWORD PTR _percentageRounded$[ebp]
  0226a	99		 cdq
  0226b	b9 64 00 00 00	 mov	 ecx, 100		; 00000064H
  02270	f7 f9		 idiv	 ecx
  02272	89 45 dc	 mov	 DWORD PTR _offsetX$[ebp], eax

; 483  : 	INT offsetY = (bottom-top)*percentageRounded/100;

  02275	8b 45 e0	 mov	 eax, DWORD PTR _bottom$[ebp]
  02278	2b 45 e4	 sub	 eax, DWORD PTR _top$[ebp]
  0227b	0f af 45 18	 imul	 eax, DWORD PTR _percentageRounded$[ebp]
  0227f	99		 cdq
  02280	b9 64 00 00 00	 mov	 ecx, 100		; 00000064H
  02285	f7 f9		 idiv	 ecx
  02287	89 45 d8	 mov	 DWORD PTR _offsetY$[ebp], eax

; 484  : 
; 485  : 	GraphicsPath pt;

  0228a	6a 00		 push	 0
  0228c	8d 4d cc	 lea	 ecx, DWORD PTR _pt$[ebp]
  0228f	e8 00 00 00 00	 call	 ??0GraphicsPath@Gdiplus@@QAE@W4FillMode@1@@Z ; Gdiplus::GraphicsPath::GraphicsPath
  02294	c7 45 fc 00 00
	00 00		 mov	 DWORD PTR __$EHRec$[ebp+8], 0

; 486  : 	GraphicsPath * path = pt.Clone();

  0229b	8d 4d cc	 lea	 ecx, DWORD PTR _pt$[ebp]
  0229e	e8 00 00 00 00	 call	 ?Clone@GraphicsPath@Gdiplus@@QBEPAV12@XZ ; Gdiplus::GraphicsPath::Clone
  022a3	89 45 c4	 mov	 DWORD PTR _path$[ebp], eax

; 487  : 
; 488  : 	path->AddArc(right-offsetX, top, offsetX, offsetY, 270, 90);

  022a6	68 00 00 b4 42	 push	 1119092736		; 42b40000H
  022ab	68 00 00 87 43	 push	 1132920832		; 43870000H
  022b0	8b 55 d8	 mov	 edx, DWORD PTR _offsetY$[ebp]
  022b3	52		 push	 edx
  022b4	8b 45 dc	 mov	 eax, DWORD PTR _offsetX$[ebp]
  022b7	50		 push	 eax
  022b8	8b 4d e4	 mov	 ecx, DWORD PTR _top$[ebp]
  022bb	51		 push	 ecx
  022bc	8b 55 e8	 mov	 edx, DWORD PTR _right$[ebp]
  022bf	2b 55 dc	 sub	 edx, DWORD PTR _offsetX$[ebp]
  022c2	52		 push	 edx
  022c3	8b 4d c4	 mov	 ecx, DWORD PTR _path$[ebp]
  022c6	e8 00 00 00 00	 call	 ?AddArc@GraphicsPath@Gdiplus@@QAE?AW4Status@2@HHHHMM@Z ; Gdiplus::GraphicsPath::AddArc

; 489  : 	path->AddArc(right-offsetX, bottom-offsetY, offsetX, offsetY, 0, 90);

  022cb	68 00 00 b4 42	 push	 1119092736		; 42b40000H
  022d0	6a 00		 push	 0
  022d2	8b 45 d8	 mov	 eax, DWORD PTR _offsetY$[ebp]
  022d5	50		 push	 eax
  022d6	8b 4d dc	 mov	 ecx, DWORD PTR _offsetX$[ebp]
  022d9	51		 push	 ecx
  022da	8b 55 e0	 mov	 edx, DWORD PTR _bottom$[ebp]
  022dd	2b 55 d8	 sub	 edx, DWORD PTR _offsetY$[ebp]
  022e0	52		 push	 edx
  022e1	8b 45 e8	 mov	 eax, DWORD PTR _right$[ebp]
  022e4	2b 45 dc	 sub	 eax, DWORD PTR _offsetX$[ebp]
  022e7	50		 push	 eax
  022e8	8b 4d c4	 mov	 ecx, DWORD PTR _path$[ebp]
  022eb	e8 00 00 00 00	 call	 ?AddArc@GraphicsPath@Gdiplus@@QAE?AW4Status@2@HHHHMM@Z ; Gdiplus::GraphicsPath::AddArc

; 490  : 	path->AddArc(left, bottom - offsetY, offsetX, offsetY, 90, 90);

  022f0	68 00 00 b4 42	 push	 1119092736		; 42b40000H
  022f5	68 00 00 b4 42	 push	 1119092736		; 42b40000H
  022fa	8b 4d d8	 mov	 ecx, DWORD PTR _offsetY$[ebp]
  022fd	51		 push	 ecx
  022fe	8b 55 dc	 mov	 edx, DWORD PTR _offsetX$[ebp]
  02301	52		 push	 edx
  02302	8b 45 e0	 mov	 eax, DWORD PTR _bottom$[ebp]
  02305	2b 45 d8	 sub	 eax, DWORD PTR _offsetY$[ebp]
  02308	50		 push	 eax
  02309	8b 4d ec	 mov	 ecx, DWORD PTR _left$[ebp]
  0230c	51		 push	 ecx
  0230d	8b 4d c4	 mov	 ecx, DWORD PTR _path$[ebp]
  02310	e8 00 00 00 00	 call	 ?AddArc@GraphicsPath@Gdiplus@@QAE?AW4Status@2@HHHHMM@Z ; Gdiplus::GraphicsPath::AddArc

; 491  : 	path->AddArc(left, top, offsetX, offsetY, 180, 90);

  02315	68 00 00 b4 42	 push	 1119092736		; 42b40000H
  0231a	68 00 00 34 43	 push	 1127481344		; 43340000H
  0231f	8b 55 d8	 mov	 edx, DWORD PTR _offsetY$[ebp]
  02322	52		 push	 edx
  02323	8b 45 dc	 mov	 eax, DWORD PTR _offsetX$[ebp]
  02326	50		 push	 eax
  02327	8b 4d e4	 mov	 ecx, DWORD PTR _top$[ebp]
  0232a	51		 push	 ecx
  0232b	8b 55 ec	 mov	 edx, DWORD PTR _left$[ebp]
  0232e	52		 push	 edx
  0232f	8b 4d c4	 mov	 ecx, DWORD PTR _path$[ebp]
  02332	e8 00 00 00 00	 call	 ?AddArc@GraphicsPath@Gdiplus@@QAE?AW4Status@2@HHHHMM@Z ; Gdiplus::GraphicsPath::AddArc

; 492  : 
; 493  : 	path->AddLine(left + offsetX, top, right - offsetX/2, top);

  02337	8b 45 e4	 mov	 eax, DWORD PTR _top$[ebp]
  0233a	50		 push	 eax
  0233b	8b 45 dc	 mov	 eax, DWORD PTR _offsetX$[ebp]
  0233e	99		 cdq
  0233f	2b c2		 sub	 eax, edx
  02341	d1 f8		 sar	 eax, 1
  02343	8b 4d e8	 mov	 ecx, DWORD PTR _right$[ebp]
  02346	2b c8		 sub	 ecx, eax
  02348	51		 push	 ecx
  02349	8b 55 e4	 mov	 edx, DWORD PTR _top$[ebp]
  0234c	52		 push	 edx
  0234d	8b 45 ec	 mov	 eax, DWORD PTR _left$[ebp]
  02350	03 45 dc	 add	 eax, DWORD PTR _offsetX$[ebp]
  02353	50		 push	 eax
  02354	8b 4d c4	 mov	 ecx, DWORD PTR _path$[ebp]
  02357	e8 00 00 00 00	 call	 ?AddLine@GraphicsPath@Gdiplus@@QAE?AW4Status@2@HHHH@Z ; Gdiplus::GraphicsPath::AddLine

; 494  : 
; 495  : 	return path;

  0235c	8b 4d c4	 mov	 ecx, DWORD PTR _path$[ebp]
  0235f	89 4d c0	 mov	 DWORD PTR $T192709[ebp], ecx
  02362	c7 45 fc ff ff
	ff ff		 mov	 DWORD PTR __$EHRec$[ebp+8], -1
  02369	8d 4d cc	 lea	 ecx, DWORD PTR _pt$[ebp]
  0236c	e8 00 00 00 00	 call	 ??1GraphicsPath@Gdiplus@@QAE@XZ ; Gdiplus::GraphicsPath::~GraphicsPath
  02371	8b 45 c0	 mov	 eax, DWORD PTR $T192709[ebp]

; 496  : }

  02374	52		 push	 edx
  02375	8b cd		 mov	 ecx, ebp
  02377	50		 push	 eax
  02378	8d 15 00 00 00
	00		 lea	 edx, DWORD PTR $L192716
  0237e	e8 00 00 00 00	 call	 @_RTC_CheckStackVars@8
  02383	58		 pop	 eax
  02384	5a		 pop	 edx
  02385	8b 4d f4	 mov	 ecx, DWORD PTR __$EHRec$[ebp]
  02388	64 89 0d 00 00
	00 00		 mov	 DWORD PTR fs:__except_list, ecx
  0238f	5f		 pop	 edi
  02390	83 c4 50	 add	 esp, 80			; 00000050H
  02393	3b ec		 cmp	 ebp, esp
  02395	e8 00 00 00 00	 call	 __RTC_CheckEsp
  0239a	8b e5		 mov	 esp, ebp
  0239c	5d		 pop	 ebp
  0239d	c2 14 00	 ret	 20			; 00000014H
$L192716:
  023a0	01 00 00 00	 DD	 1
  023a4	00 00 00 00	 DD	 $L192715
$L192715:
  023a8	cc ff ff ff	 DD	 -52			; ffffffccH
  023ac	08 00 00 00	 DD	 8
  023b0	00 00 00 00	 DD	 $L192713
$L192713:
  023b4	70		 DB	 112			; 00000070H
  023b5	74		 DB	 116			; 00000074H
  023b6	00		 DB	 0
_TEXT	ENDS
text$x	SEGMENT
$L192710:
  00313	8d 4d cc	 lea	 ecx, DWORD PTR _pt$[ebp]
  00316	e9 00 00 00 00	 jmp	 ??1GraphicsPath@Gdiplus@@QAE@XZ ; Gdiplus::GraphicsPath::~GraphicsPath
__ehhandler$?MakeRoundRect@CLocalMusicCoverList@@IAEPAVGraphicsPath@Gdiplus@@VPoint@3@0H@Z:
  0031b	b8 00 00 00 00	 mov	 eax, OFFSET FLAT:$T192712
  00320	e9 00 00 00 00	 jmp	 ___CxxFrameHandler
text$x	ENDS
?MakeRoundRect@CLocalMusicCoverList@@IAEPAVGraphicsPath@Gdiplus@@VPoint@3@0H@Z ENDP ; CLocalMusicCoverList::MakeRoundRect
PUBLIC	?UnSelectAll@CLocalMusicCoverList@@IAEXXZ	; CLocalMusicCoverList::UnSelectAll
; Function compile flags: /Odt /RTCsu
_TEXT	SEGMENT
_i$190200 = -8						; size = 4
_this$ = -4						; size = 4
?UnSelectAll@CLocalMusicCoverList@@IAEXXZ PROC NEAR	; CLocalMusicCoverList::UnSelectAll
; _this$ = ecx

; 499  : {

  023c0	55		 push	 ebp
  023c1	8b ec		 mov	 ebp, esp
  023c3	83 ec 08	 sub	 esp, 8
  023c6	c7 45 f8 cc cc
	cc cc		 mov	 DWORD PTR [ebp-8], -858993460 ; ccccccccH
  023cd	c7 45 fc cc cc
	cc cc		 mov	 DWORD PTR [ebp-4], -858993460 ; ccccccccH
  023d4	89 4d fc	 mov	 DWORD PTR _this$[ebp], ecx

; 500  : 	for(int i=0;i<m_DataMgr.m_vItem.size();i++)

  023d7	c7 45 f8 00 00
	00 00		 mov	 DWORD PTR _i$190200[ebp], 0
  023de	eb 09		 jmp	 SHORT $L190201
$L190202:
  023e0	8b 45 f8	 mov	 eax, DWORD PTR _i$190200[ebp]
  023e3	83 c0 01	 add	 eax, 1
  023e6	89 45 f8	 mov	 DWORD PTR _i$190200[ebp], eax
$L190201:
  023e9	8b 4d fc	 mov	 ecx, DWORD PTR _this$[ebp]
  023ec	81 c1 6c 01 00
	00		 add	 ecx, 364		; 0000016cH
  023f2	e8 00 00 00 00	 call	 ?size@?$vector@U_tagLMCItemInfo@@V?$allocator@U_tagLMCItemInfo@@@std@@@std@@QBEIXZ ; std::vector<_tagLMCItemInfo,std::allocator<_tagLMCItemInfo> >::size
  023f7	39 45 f8	 cmp	 DWORD PTR _i$190200[ebp], eax
  023fa	73 1b		 jae	 SHORT $L190199

; 501  : 		m_DataMgr.m_vItem[i].blSel = FALSE;

  023fc	8b 4d f8	 mov	 ecx, DWORD PTR _i$190200[ebp]
  023ff	51		 push	 ecx
  02400	8b 4d fc	 mov	 ecx, DWORD PTR _this$[ebp]
  02403	81 c1 6c 01 00
	00		 add	 ecx, 364		; 0000016cH
  02409	e8 00 00 00 00	 call	 ??A?$vector@U_tagLMCItemInfo@@V?$allocator@U_tagLMCItemInfo@@@std@@@std@@QAEAAU_tagLMCItemInfo@@I@Z ; std::vector<_tagLMCItemInfo,std::allocator<_tagLMCItemInfo> >::operator[]
  0240e	c7 40 20 00 00
	00 00		 mov	 DWORD PTR [eax+32], 0
  02415	eb c9		 jmp	 SHORT $L190202
$L190199:

; 502  : }

  02417	83 c4 08	 add	 esp, 8
  0241a	3b ec		 cmp	 ebp, esp
  0241c	e8 00 00 00 00	 call	 __RTC_CheckEsp
  02421	8b e5		 mov	 esp, ebp
  02423	5d		 pop	 ebp
  02424	c3		 ret	 0
?UnSelectAll@CLocalMusicCoverList@@IAEXXZ ENDP		; CLocalMusicCoverList::UnSelectAll
; Function compile flags: /Odt /RTCsu
_iSpaceforline$ = -8					; size = 4
_this$ = -4						; size = 4
_ptS$ = 8						; size = 8
_lmci$ = 16						; size = 4
?CalcHideItemRect@CLocalMusicCoverList@@IAEXVCPoint@@AAU_tagLMCItemInfo@@@Z PROC NEAR ; CLocalMusicCoverList::CalcHideItemRect
; _this$ = ecx

; 505  : {

  02430	55		 push	 ebp
  02431	8b ec		 mov	 ebp, esp
  02433	83 ec 08	 sub	 esp, 8
  02436	c7 45 f8 cc cc
	cc cc		 mov	 DWORD PTR [ebp-8], -858993460 ; ccccccccH
  0243d	c7 45 fc cc cc
	cc cc		 mov	 DWORD PTR [ebp-4], -858993460 ; ccccccccH
  02444	89 4d fc	 mov	 DWORD PTR _this$[ebp], ecx

; 506  : 	int iSpaceforline = 6;

  02447	c7 45 f8 06 00
	00 00		 mov	 DWORD PTR _iSpaceforline$[ebp], 6

; 507  : 	lmci.rc.left = ptS.x+iSpaceforline/2;

  0244e	8b 45 f8	 mov	 eax, DWORD PTR _iSpaceforline$[ebp]
  02451	99		 cdq
  02452	2b c2		 sub	 eax, edx
  02454	d1 f8		 sar	 eax, 1
  02456	03 45 08	 add	 eax, DWORD PTR _ptS$[ebp]
  02459	8b 4d 10	 mov	 ecx, DWORD PTR _lmci$[ebp]
  0245c	89 41 34	 mov	 DWORD PTR [ecx+52], eax

; 508  : 	lmci.rc.top = ptS.y+iSpaceforline/2;

  0245f	8b 45 f8	 mov	 eax, DWORD PTR _iSpaceforline$[ebp]
  02462	99		 cdq
  02463	2b c2		 sub	 eax, edx
  02465	d1 f8		 sar	 eax, 1
  02467	03 45 0c	 add	 eax, DWORD PTR _ptS$[ebp+4]
  0246a	8b 55 10	 mov	 edx, DWORD PTR _lmci$[ebp]
  0246d	89 42 38	 mov	 DWORD PTR [edx+56], eax

; 509  : 	lmci.rc.right = ptS.x+m_iItemWidth-iSpaceforline/2;

  02470	8b 45 fc	 mov	 eax, DWORD PTR _this$[ebp]
  02473	8b 4d 08	 mov	 ecx, DWORD PTR _ptS$[ebp]
  02476	03 48 54	 add	 ecx, DWORD PTR [eax+84]
  02479	8b 45 f8	 mov	 eax, DWORD PTR _iSpaceforline$[ebp]
  0247c	99		 cdq
  0247d	2b c2		 sub	 eax, edx
  0247f	d1 f8		 sar	 eax, 1
  02481	2b c8		 sub	 ecx, eax
  02483	8b 55 10	 mov	 edx, DWORD PTR _lmci$[ebp]
  02486	89 4a 3c	 mov	 DWORD PTR [edx+60], ecx

; 510  : 	lmci.rc.bottom = ptS.y+m_iItemHeight-iSpaceforline/2;

  02489	8b 45 fc	 mov	 eax, DWORD PTR _this$[ebp]
  0248c	8b 4d 0c	 mov	 ecx, DWORD PTR _ptS$[ebp+4]
  0248f	03 48 58	 add	 ecx, DWORD PTR [eax+88]
  02492	8b 45 f8	 mov	 eax, DWORD PTR _iSpaceforline$[ebp]
  02495	99		 cdq
  02496	2b c2		 sub	 eax, edx
  02498	d1 f8		 sar	 eax, 1
  0249a	2b c8		 sub	 ecx, eax
  0249c	8b 55 10	 mov	 edx, DWORD PTR _lmci$[ebp]
  0249f	89 4a 40	 mov	 DWORD PTR [edx+64], ecx

; 511  : }

  024a2	8b e5		 mov	 esp, ebp
  024a4	5d		 pop	 ebp
  024a5	c2 0c 00	 ret	 12			; 0000000cH
?CalcHideItemRect@CLocalMusicCoverList@@IAEXVCPoint@@AAU_tagLMCItemInfo@@@Z ENDP ; CLocalMusicCoverList::CalcHideItemRect
_TEXT	ENDS
PUBLIC	??0Graphics@Gdiplus@@QAE@PAUHDC__@@@Z		; Gdiplus::Graphics::Graphics
PUBLIC	??1Graphics@Gdiplus@@QAE@XZ			; Gdiplus::Graphics::~Graphics
PUBLIC	?SetSmoothingMode@Graphics@Gdiplus@@QAE?AW4Status@2@W4SmoothingMode@2@@Z ; Gdiplus::Graphics::SetSmoothingMode
PUBLIC	??0Point@Gdiplus@@QAE@HH@Z			; Gdiplus::Point::Point
PUBLIC	?DrawPath@Graphics@Gdiplus@@QAE?AW4Status@2@PBVPen@2@PBVGraphicsPath@2@@Z ; Gdiplus::Graphics::DrawPath
PUBLIC	??0Rect@Gdiplus@@QAE@HHHH@Z			; Gdiplus::Rect::Rect
PUBLIC	??0Pen@Gdiplus@@QAE@ABVColor@1@M@Z		; Gdiplus::Pen::Pen
PUBLIC	??1Pen@Gdiplus@@QAE@XZ				; Gdiplus::Pen::~Pen
PUBLIC	?DrawImage@Graphics@Gdiplus@@QAE?AW4Status@2@PAVImage@2@ABVRect@2@@Z ; Gdiplus::Graphics::DrawImage
PUBLIC	??0Color@Gdiplus@@QAE@XZ			; Gdiplus::Color::Color
PUBLIC	?SetFromCOLORREF@Color@Gdiplus@@QAEXK@Z		; Gdiplus::Color::SetFromCOLORREF
EXTRN	?DrawTextA@CDC@@QAEHABV?$CStringT@DV?$StrTraitMFC_DLL@DV?$ChTraitsCRT@D@ATL@@@@@ATL@@PAUtagRECT@@I@Z:NEAR ; CDC::DrawTextA
EXTRN	??BCGdiObject@@QBEPAXXZ:NEAR			; CGdiObject::operator void *
EXTRN	?SelectObject@CDC@@QAEPAXPAX@Z:NEAR		; CDC::SelectObject
EXTRN	?GetCurrentFont@CDC@@QBEPAVCFont@@XZ:NEAR	; CDC::GetCurrentFont
EXTRN	__imp_?GetBuffer@?$CSimpleStringT@D$00@ATL@@QAEPADXZ:NEAR
EXTRN	?GetBkMode@CDC@@QBEHXZ:NEAR			; CDC::GetBkMode
EXTRN	?GetTextColor@CDC@@QBEKXZ:NEAR			; CDC::GetTextColor
EXTRN	?SetBkMode@CDC@@QAEHH@Z:NEAR			; CDC::SetBkMode
xdata$x	SEGMENT
$T192743 DD	0ffffffffH
	DD	FLAT:$L192725
	DD	00H
	DD	FLAT:$L192726
	DD	01H
	DD	FLAT:$L192727
	DD	02H
	DD	FLAT:$L192728
$T192730 DD	019930520H
	DD	04H
	DD	FLAT:$T192743
	DD	2 DUP(00H)
	DD	2 DUP(00H)
; Function compile flags: /Odt /RTCsu
xdata$x	ENDS
_TEXT	SEGMENT
tv190 = -268						; size = 4
tv185 = -264						; size = 4
tv81 = -260						; size = 4
tv85 = -256						; size = 4
$T192724 = -252						; size = 4
$T192723 = -248						; size = 4
_rcdetailText$190245 = -240				; size = 16
_rcText$ = -216						; size = 16
_iBK$ = -196						; size = 4
_oldText$ = -192					; size = 4
_pOldFont$ = -188					; size = 4
_pPath$190233 = -184					; size = 4
_grpen$190232 = -176					; size = 8
_colPen$190231 = -160					; size = 4
_col$190229 = -152					; size = 4
_ipy$190228 = -148					; size = 4
_dis$190227 = -144					; size = 4
_graphics$190226 = -136					; size = 8
_rcImgCover$ = -120					; size = 16
_rcImgDesRect$ = -96					; size = 16
_gc$ = -72						; size = 8
_img$ = -56						; size = 16
__lpa$ = -36						; size = 4
__lpw$ = -32						; size = 4
__acp$ = -28						; size = 4
__convert$ = -24					; size = 4
_iSpaceforline$ = -20					; size = 4
_this$ = -16						; size = 4
__$EHRec$ = -12						; size = 12
_ptS$ = 8						; size = 8
_lmci$ = 16						; size = 4
?DrawItem@CLocalMusicCoverList@@IAEXVCPoint@@AAU_tagLMCItemInfo@@@Z PROC NEAR ; CLocalMusicCoverList::DrawItem
; _this$ = ecx

; 514  : {

  024b0	55		 push	 ebp
  024b1	8b ec		 mov	 ebp, esp
  024b3	6a ff		 push	 -1
  024b5	68 00 00 00 00	 push	 __ehhandler$?DrawItem@CLocalMusicCoverList@@IAEXVCPoint@@AAU_tagLMCItemInfo@@@Z
  024ba	64 a1 00 00 00
	00		 mov	 eax, DWORD PTR fs:__except_list
  024c0	50		 push	 eax
  024c1	64 89 25 00 00
	00 00		 mov	 DWORD PTR fs:__except_list, esp
  024c8	81 ec 00 01 00
	00		 sub	 esp, 256		; 00000100H
  024ce	56		 push	 esi
  024cf	57		 push	 edi
  024d0	51		 push	 ecx
  024d1	8d bd f4 fe ff
	ff		 lea	 edi, DWORD PTR [ebp-268]
  024d7	b9 40 00 00 00	 mov	 ecx, 64			; 00000040H
  024dc	b8 cc cc cc cc	 mov	 eax, -858993460		; ccccccccH
  024e1	f3 ab		 rep stosd
  024e3	59		 pop	 ecx
  024e4	89 4d f0	 mov	 DWORD PTR _this$[ebp], ecx

; 515  : 	int iSpaceforline = 6;

  024e7	c7 45 ec 06 00
	00 00		 mov	 DWORD PTR _iSpaceforline$[ebp], 6

; 516  : 	// 
; 517  : 	USES_CONVERSION;

  024ee	c7 45 e8 00 00
	00 00		 mov	 DWORD PTR __convert$[ebp], 0
  024f5	e8 00 00 00 00	 call	 ?_AtlGetConversionACP@ATL@@YGIXZ ; ATL::_AtlGetConversionACP
  024fa	89 45 e4	 mov	 DWORD PTR __acp$[ebp], eax
  024fd	c7 45 e0 00 00
	00 00		 mov	 DWORD PTR __lpw$[ebp], 0
  02504	c7 45 dc 00 00
	00 00		 mov	 DWORD PTR __lpa$[ebp], 0

; 518  : 	Image img(A2W(lmci.strImgPath.GetBuffer()));

  0250b	8b 4d 10	 mov	 ecx, DWORD PTR _lmci$[ebp]
  0250e	83 c1 30	 add	 ecx, 48			; 00000030H
  02511	8b f4		 mov	 esi, esp
  02513	ff 15 00 00 00
	00		 call	 DWORD PTR __imp_?GetBuffer@?$CSimpleStringT@D$00@ATL@@QAEPADXZ
  02519	3b f4		 cmp	 esi, esp
  0251b	e8 00 00 00 00	 call	 __RTC_CheckEsp
  02520	89 45 dc	 mov	 DWORD PTR __lpa$[ebp], eax
  02523	83 7d dc 00	 cmp	 DWORD PTR __lpa$[ebp], 0
  02527	75 0c		 jne	 SHORT $L192721
  02529	c7 85 00 ff ff
	ff 00 00 00 00	 mov	 DWORD PTR tv85[ebp], 0
  02533	eb 4d		 jmp	 SHORT $L192722
$L192721:
  02535	8b f4		 mov	 esi, esp
  02537	8b 45 dc	 mov	 eax, DWORD PTR __lpa$[ebp]
  0253a	50		 push	 eax
  0253b	ff 15 00 00 00
	00		 call	 DWORD PTR __imp__lstrlenA@4
  02541	3b f4		 cmp	 esi, esp
  02543	e8 00 00 00 00	 call	 __RTC_CheckEsp
  02548	83 c0 01	 add	 eax, 1
  0254b	89 45 e8	 mov	 DWORD PTR __convert$[ebp], eax
  0254e	8b 45 e8	 mov	 eax, DWORD PTR __convert$[ebp]
  02551	d1 e0		 shl	 eax, 1
  02553	83 c0 03	 add	 eax, 3
  02556	83 e0 fc	 and	 eax, -4			; fffffffcH
  02559	e8 00 00 00 00	 call	 __alloca_probe
  0255e	89 a5 fc fe ff
	ff		 mov	 DWORD PTR tv81[ebp], esp
  02564	8b 4d e4	 mov	 ecx, DWORD PTR __acp$[ebp]
  02567	51		 push	 ecx
  02568	8b 55 e8	 mov	 edx, DWORD PTR __convert$[ebp]
  0256b	52		 push	 edx
  0256c	8b 45 dc	 mov	 eax, DWORD PTR __lpa$[ebp]
  0256f	50		 push	 eax
  02570	8b 8d fc fe ff
	ff		 mov	 ecx, DWORD PTR tv81[ebp]
  02576	51		 push	 ecx
  02577	e8 00 00 00 00	 call	 ?AtlA2WHelper@@YGPA_WPA_WPBDHI@Z ; AtlA2WHelper
  0257c	89 85 00 ff ff
	ff		 mov	 DWORD PTR tv85[ebp], eax
$L192722:
  02582	6a 00		 push	 0
  02584	8b 95 00 ff ff
	ff		 mov	 edx, DWORD PTR tv85[ebp]
  0258a	52		 push	 edx
  0258b	8d 4d c8	 lea	 ecx, DWORD PTR _img$[ebp]
  0258e	e8 00 00 00 00	 call	 ??0Image@Gdiplus@@QAE@PB_WH@Z ; Gdiplus::Image::Image
  02593	c7 45 fc 00 00
	00 00		 mov	 DWORD PTR __$EHRec$[ebp+8], 0

; 519  : 	Graphics gc(m_dcMem.GetSafeHdc());

  0259a	8b 4d f0	 mov	 ecx, DWORD PTR _this$[ebp]
  0259d	83 c1 60	 add	 ecx, 96			; 00000060H
  025a0	e8 00 00 00 00	 call	 ?GetSafeHdc@CDC@@QBEPAUHDC__@@XZ ; CDC::GetSafeHdc
  025a5	50		 push	 eax
  025a6	8d 4d b8	 lea	 ecx, DWORD PTR _gc$[ebp]
  025a9	e8 00 00 00 00	 call	 ??0Graphics@Gdiplus@@QAE@PAUHDC__@@@Z ; Gdiplus::Graphics::Graphics
  025ae	c6 45 fc 01	 mov	 BYTE PTR __$EHRec$[ebp+8], 1

; 520  : 	Rect rcImgDesRect(ptS.x, ptS.y,m_iItemWidth-3,m_iItemHeight-2);

  025b2	8b 45 f0	 mov	 eax, DWORD PTR _this$[ebp]
  025b5	8b 48 58	 mov	 ecx, DWORD PTR [eax+88]
  025b8	83 e9 02	 sub	 ecx, 2
  025bb	51		 push	 ecx
  025bc	8b 55 f0	 mov	 edx, DWORD PTR _this$[ebp]
  025bf	8b 42 54	 mov	 eax, DWORD PTR [edx+84]
  025c2	83 e8 03	 sub	 eax, 3
  025c5	50		 push	 eax
  025c6	8b 4d 0c	 mov	 ecx, DWORD PTR _ptS$[ebp+4]
  025c9	51		 push	 ecx
  025ca	8b 55 08	 mov	 edx, DWORD PTR _ptS$[ebp]
  025cd	52		 push	 edx
  025ce	8d 4d a0	 lea	 ecx, DWORD PTR _rcImgDesRect$[ebp]
  025d1	e8 00 00 00 00	 call	 ??0Rect@Gdiplus@@QAE@HHHH@Z ; Gdiplus::Rect::Rect

; 521  : 	Rect rcImgCover(rcImgDesRect.X+2,rcImgDesRect.Y+2,rcImgDesRect.Width-5,rcImgDesRect.Height-5);

  025d6	8b 45 ac	 mov	 eax, DWORD PTR _rcImgDesRect$[ebp+12]
  025d9	83 e8 05	 sub	 eax, 5
  025dc	50		 push	 eax
  025dd	8b 4d a8	 mov	 ecx, DWORD PTR _rcImgDesRect$[ebp+8]
  025e0	83 e9 05	 sub	 ecx, 5
  025e3	51		 push	 ecx
  025e4	8b 55 a4	 mov	 edx, DWORD PTR _rcImgDesRect$[ebp+4]
  025e7	83 c2 02	 add	 edx, 2
  025ea	52		 push	 edx
  025eb	8b 45 a0	 mov	 eax, DWORD PTR _rcImgDesRect$[ebp]
  025ee	83 c0 02	 add	 eax, 2
  025f1	50		 push	 eax
  025f2	8d 4d 88	 lea	 ecx, DWORD PTR _rcImgCover$[ebp]
  025f5	e8 00 00 00 00	 call	 ??0Rect@Gdiplus@@QAE@HHHH@Z ; Gdiplus::Rect::Rect

; 522  : 	gc.DrawImage(&img, rcImgCover);

  025fa	8d 4d 88	 lea	 ecx, DWORD PTR _rcImgCover$[ebp]
  025fd	51		 push	 ecx
  025fe	8d 55 c8	 lea	 edx, DWORD PTR _img$[ebp]
  02601	52		 push	 edx
  02602	8d 4d b8	 lea	 ecx, DWORD PTR _gc$[ebp]
  02605	e8 00 00 00 00	 call	 ?DrawImage@Graphics@Gdiplus@@QAE?AW4Status@2@PAVImage@2@ABVRect@2@@Z ; Gdiplus::Graphics::DrawImage

; 523  : 	gc.DrawImage(pImageFrame, rcImgDesRect);

  0260a	8d 45 a0	 lea	 eax, DWORD PTR _rcImgDesRect$[ebp]
  0260d	50		 push	 eax
  0260e	8b 4d f0	 mov	 ecx, DWORD PTR _this$[ebp]
  02611	8b 91 64 01 00
	00		 mov	 edx, DWORD PTR [ecx+356]
  02617	52		 push	 edx
  02618	8d 4d b8	 lea	 ecx, DWORD PTR _gc$[ebp]
  0261b	e8 00 00 00 00	 call	 ?DrawImage@Graphics@Gdiplus@@QAE?AW4Status@2@PAVImage@2@ABVRect@2@@Z ; Gdiplus::Graphics::DrawImage

; 524  : 	// Item
; 525  : 	lmci.rc.left = ptS.x+iSpaceforline/2;

  02620	8b 45 ec	 mov	 eax, DWORD PTR _iSpaceforline$[ebp]
  02623	99		 cdq
  02624	2b c2		 sub	 eax, edx
  02626	d1 f8		 sar	 eax, 1
  02628	03 45 08	 add	 eax, DWORD PTR _ptS$[ebp]
  0262b	8b 4d 10	 mov	 ecx, DWORD PTR _lmci$[ebp]
  0262e	89 41 34	 mov	 DWORD PTR [ecx+52], eax

; 526  : 	lmci.rc.top = ptS.y+iSpaceforline/2;

  02631	8b 45 ec	 mov	 eax, DWORD PTR _iSpaceforline$[ebp]
  02634	99		 cdq
  02635	2b c2		 sub	 eax, edx
  02637	d1 f8		 sar	 eax, 1
  02639	03 45 0c	 add	 eax, DWORD PTR _ptS$[ebp+4]
  0263c	8b 55 10	 mov	 edx, DWORD PTR _lmci$[ebp]
  0263f	89 42 38	 mov	 DWORD PTR [edx+56], eax

; 527  : 	lmci.rc.right = ptS.x+m_iItemWidth-iSpaceforline/2;

  02642	8b 45 f0	 mov	 eax, DWORD PTR _this$[ebp]
  02645	8b 4d 08	 mov	 ecx, DWORD PTR _ptS$[ebp]
  02648	03 48 54	 add	 ecx, DWORD PTR [eax+84]
  0264b	8b 45 ec	 mov	 eax, DWORD PTR _iSpaceforline$[ebp]
  0264e	99		 cdq
  0264f	2b c2		 sub	 eax, edx
  02651	d1 f8		 sar	 eax, 1
  02653	2b c8		 sub	 ecx, eax
  02655	8b 55 10	 mov	 edx, DWORD PTR _lmci$[ebp]
  02658	89 4a 3c	 mov	 DWORD PTR [edx+60], ecx

; 528  : 	lmci.rc.bottom = ptS.y+m_iItemHeight-iSpaceforline/2;

  0265b	8b 45 f0	 mov	 eax, DWORD PTR _this$[ebp]
  0265e	8b 4d 0c	 mov	 ecx, DWORD PTR _ptS$[ebp+4]
  02661	03 48 58	 add	 ecx, DWORD PTR [eax+88]
  02664	8b 45 ec	 mov	 eax, DWORD PTR _iSpaceforline$[ebp]
  02667	99		 cdq
  02668	2b c2		 sub	 eax, edx
  0266a	d1 f8		 sar	 eax, 1
  0266c	2b c8		 sub	 ecx, eax
  0266e	8b 55 10	 mov	 edx, DWORD PTR _lmci$[ebp]
  02671	89 4a 40	 mov	 DWORD PTR [edx+64], ecx

; 529  : 	// 
; 530  : 	if (lmci.blSel)

  02674	8b 45 10	 mov	 eax, DWORD PTR _lmci$[ebp]
  02677	83 78 20 00	 cmp	 DWORD PTR [eax+32], 0
  0267b	0f 84 55 01 00
	00		 je	 $L190225

; 531  : 	{
; 532  : 		Graphics   graphics(m_dcMem.GetSafeHdc()); 

  02681	8b 4d f0	 mov	 ecx, DWORD PTR _this$[ebp]
  02684	83 c1 60	 add	 ecx, 96			; 00000060H
  02687	e8 00 00 00 00	 call	 ?GetSafeHdc@CDC@@QBEPAUHDC__@@XZ ; CDC::GetSafeHdc
  0268c	50		 push	 eax
  0268d	8d 8d 78 ff ff
	ff		 lea	 ecx, DWORD PTR _graphics$190226[ebp]
  02693	e8 00 00 00 00	 call	 ??0Graphics@Gdiplus@@QAE@PAUHDC__@@@Z ; Gdiplus::Graphics::Graphics
  02698	c6 45 fc 02	 mov	 BYTE PTR __$EHRec$[ebp+8], 2

; 533  : 		graphics.SetSmoothingMode(SmoothingModeHighQuality );

  0269c	6a 02		 push	 2
  0269e	8d 8d 78 ff ff
	ff		 lea	 ecx, DWORD PTR _graphics$190226[ebp]
  026a4	e8 00 00 00 00	 call	 ?SetSmoothingMode@Graphics@Gdiplus@@QAE?AW4Status@2@W4SmoothingMode@2@@Z ; Gdiplus::Graphics::SetSmoothingMode

; 534  : 		int dis = 10;

  026a9	c7 85 70 ff ff
	ff 0a 00 00 00	 mov	 DWORD PTR _dis$190227[ebp], 10 ; 0000000aH

; 535  : 		int ipy=8;

  026b3	c7 85 6c ff ff
	ff 08 00 00 00	 mov	 DWORD PTR _ipy$190228[ebp], 8

; 536  : 		//Pen grpen(Color(57,137,194),3);
; 537  : 		COLORREF col = AfxGetUIManager()->UIGetSkinMgr()->GetColor("PlayedGameFrameBorder");

  026bd	e8 00 00 00 00	 call	 ?AfxGetUIManager@@YAPAVIUIManager@@XZ ; AfxGetUIManager
  026c2	89 85 f8 fe ff
	ff		 mov	 DWORD PTR tv185[ebp], eax
  026c8	8b f4		 mov	 esi, esp
  026ca	8b 8d f8 fe ff
	ff		 mov	 ecx, DWORD PTR tv185[ebp]
  026d0	8b 11		 mov	 edx, DWORD PTR [ecx]
  026d2	8b 8d f8 fe ff
	ff		 mov	 ecx, DWORD PTR tv185[ebp]
  026d8	ff 52 28	 call	 DWORD PTR [edx+40]
  026db	3b f4		 cmp	 esi, esp
  026dd	e8 00 00 00 00	 call	 __RTC_CheckEsp
  026e2	89 85 f4 fe ff
	ff		 mov	 DWORD PTR tv190[ebp], eax
  026e8	8b f4		 mov	 esi, esp
  026ea	68 00 00 00 00	 push	 OFFSET FLAT:$SG190230
  026ef	8b 85 f4 fe ff
	ff		 mov	 eax, DWORD PTR tv190[ebp]
  026f5	8b 10		 mov	 edx, DWORD PTR [eax]
  026f7	8b 8d f4 fe ff
	ff		 mov	 ecx, DWORD PTR tv190[ebp]
  026fd	ff 52 08	 call	 DWORD PTR [edx+8]
  02700	3b f4		 cmp	 esi, esp
  02702	e8 00 00 00 00	 call	 __RTC_CheckEsp
  02707	89 85 68 ff ff
	ff		 mov	 DWORD PTR _col$190229[ebp], eax

; 538  : 		Color colPen;

  0270d	8d 8d 60 ff ff
	ff		 lea	 ecx, DWORD PTR _colPen$190231[ebp]
  02713	e8 00 00 00 00	 call	 ??0Color@Gdiplus@@QAE@XZ ; Gdiplus::Color::Color

; 539  : 		colPen.SetFromCOLORREF( col );

  02718	8b 85 68 ff ff
	ff		 mov	 eax, DWORD PTR _col$190229[ebp]
  0271e	50		 push	 eax
  0271f	8d 8d 60 ff ff
	ff		 lea	 ecx, DWORD PTR _colPen$190231[ebp]
  02725	e8 00 00 00 00	 call	 ?SetFromCOLORREF@Color@Gdiplus@@QAEXK@Z ; Gdiplus::Color::SetFromCOLORREF

; 540  : 		Pen grpen(colPen,3);

  0272a	68 00 00 40 40	 push	 1077936128		; 40400000H
  0272f	8d 8d 60 ff ff
	ff		 lea	 ecx, DWORD PTR _colPen$190231[ebp]
  02735	51		 push	 ecx
  02736	8d 8d 50 ff ff
	ff		 lea	 ecx, DWORD PTR _grpen$190232[ebp]
  0273c	e8 00 00 00 00	 call	 ??0Pen@Gdiplus@@QAE@ABVColor@1@M@Z ; Gdiplus::Pen::Pen
  02741	c6 45 fc 03	 mov	 BYTE PTR __$EHRec$[ebp+8], 3

; 541  : 		GraphicsPath * pPath = MakeRoundRect(Point(ptS.x+2,ptS.y+2),Point(ptS.x+m_iItemWidth-6, ptS.y+m_iItemHeight-5), 10);

  02745	6a 0a		 push	 10			; 0000000aH
  02747	8b 55 f0	 mov	 edx, DWORD PTR _this$[ebp]
  0274a	8b 42 58	 mov	 eax, DWORD PTR [edx+88]
  0274d	8b 4d 0c	 mov	 ecx, DWORD PTR _ptS$[ebp+4]
  02750	8d 54 01 fb	 lea	 edx, DWORD PTR [ecx+eax-5]
  02754	83 ec 08	 sub	 esp, 8
  02757	8b cc		 mov	 ecx, esp
  02759	89 a5 08 ff ff
	ff		 mov	 DWORD PTR $T192723[ebp], esp
  0275f	52		 push	 edx
  02760	8b 45 f0	 mov	 eax, DWORD PTR _this$[ebp]
  02763	8b 50 54	 mov	 edx, DWORD PTR [eax+84]
  02766	8b 45 08	 mov	 eax, DWORD PTR _ptS$[ebp]
  02769	8d 54 10 fa	 lea	 edx, DWORD PTR [eax+edx-6]
  0276d	52		 push	 edx
  0276e	e8 00 00 00 00	 call	 ??0Point@Gdiplus@@QAE@HH@Z ; Gdiplus::Point::Point
  02773	8b 45 0c	 mov	 eax, DWORD PTR _ptS$[ebp+4]
  02776	83 c0 02	 add	 eax, 2
  02779	83 ec 08	 sub	 esp, 8
  0277c	8b cc		 mov	 ecx, esp
  0277e	89 a5 04 ff ff
	ff		 mov	 DWORD PTR $T192724[ebp], esp
  02784	50		 push	 eax
  02785	8b 55 08	 mov	 edx, DWORD PTR _ptS$[ebp]
  02788	83 c2 02	 add	 edx, 2
  0278b	52		 push	 edx
  0278c	e8 00 00 00 00	 call	 ??0Point@Gdiplus@@QAE@HH@Z ; Gdiplus::Point::Point
  02791	8b 4d f0	 mov	 ecx, DWORD PTR _this$[ebp]
  02794	e8 00 00 00 00	 call	 ?MakeRoundRect@CLocalMusicCoverList@@IAEPAVGraphicsPath@Gdiplus@@VPoint@3@0H@Z ; CLocalMusicCoverList::MakeRoundRect
  02799	89 85 48 ff ff
	ff		 mov	 DWORD PTR _pPath$190233[ebp], eax

; 542  : 		graphics.DrawPath(&grpen,pPath);

  0279f	8b 85 48 ff ff
	ff		 mov	 eax, DWORD PTR _pPath$190233[ebp]
  027a5	50		 push	 eax
  027a6	8d 8d 50 ff ff
	ff		 lea	 ecx, DWORD PTR _grpen$190232[ebp]
  027ac	51		 push	 ecx
  027ad	8d 8d 78 ff ff
	ff		 lea	 ecx, DWORD PTR _graphics$190226[ebp]
  027b3	e8 00 00 00 00	 call	 ?DrawPath@Graphics@Gdiplus@@QAE?AW4Status@2@PBVPen@2@PBVGraphicsPath@2@@Z ; Gdiplus::Graphics::DrawPath

; 543  : 	}

  027b8	c6 45 fc 02	 mov	 BYTE PTR __$EHRec$[ebp+8], 2
  027bc	8d 8d 50 ff ff
	ff		 lea	 ecx, DWORD PTR _grpen$190232[ebp]
  027c2	e8 00 00 00 00	 call	 ??1Pen@Gdiplus@@QAE@XZ	; Gdiplus::Pen::~Pen
  027c7	c6 45 fc 01	 mov	 BYTE PTR __$EHRec$[ebp+8], 1
  027cb	8d 8d 78 ff ff
	ff		 lea	 ecx, DWORD PTR _graphics$190226[ebp]
  027d1	e8 00 00 00 00	 call	 ??1Graphics@Gdiplus@@QAE@XZ ; Gdiplus::Graphics::~Graphics
$L190225:

; 544  : 	// 
; 545  : 	CFont *pOldFont = m_dcMem.GetCurrentFont();

  027d6	8b 4d f0	 mov	 ecx, DWORD PTR _this$[ebp]
  027d9	83 c1 60	 add	 ecx, 96			; 00000060H
  027dc	e8 00 00 00 00	 call	 ?GetCurrentFont@CDC@@QBEPAVCFont@@XZ ; CDC::GetCurrentFont
  027e1	89 85 44 ff ff
	ff		 mov	 DWORD PTR _pOldFont$[ebp], eax

; 546  : 	COLORREF oldText = m_dcMem.GetTextColor();

  027e7	8b 4d f0	 mov	 ecx, DWORD PTR _this$[ebp]
  027ea	83 c1 60	 add	 ecx, 96			; 00000060H
  027ed	e8 00 00 00 00	 call	 ?GetTextColor@CDC@@QBEKXZ ; CDC::GetTextColor
  027f2	89 85 40 ff ff
	ff		 mov	 DWORD PTR _oldText$[ebp], eax

; 547  : 	int iBK = m_dcMem.GetBkMode();

  027f8	8b 4d f0	 mov	 ecx, DWORD PTR _this$[ebp]
  027fb	83 c1 60	 add	 ecx, 96			; 00000060H
  027fe	e8 00 00 00 00	 call	 ?GetBkMode@CDC@@QBEHXZ	; CDC::GetBkMode
  02803	89 85 3c ff ff
	ff		 mov	 DWORD PTR _iBK$[ebp], eax

; 548  : 	m_dcMem.SelectObject(m_fName);

  02809	8b 4d f0	 mov	 ecx, DWORD PTR _this$[ebp]
  0280c	83 c1 7c	 add	 ecx, 124		; 0000007cH
  0280f	e8 00 00 00 00	 call	 ??BCGdiObject@@QBEPAXXZ	; CGdiObject::operator void *
  02814	50		 push	 eax
  02815	8b 4d f0	 mov	 ecx, DWORD PTR _this$[ebp]
  02818	83 c1 60	 add	 ecx, 96			; 00000060H
  0281b	e8 00 00 00 00	 call	 ?SelectObject@CDC@@QAEPAXPAX@Z ; CDC::SelectObject

; 549  : 	m_dcMem.SetBkMode(TRANSPARENT);

  02820	6a 01		 push	 1
  02822	8b 4d f0	 mov	 ecx, DWORD PTR _this$[ebp]
  02825	83 c1 60	 add	 ecx, 96			; 00000060H
  02828	e8 00 00 00 00	 call	 ?SetBkMode@CDC@@QAEHH@Z	; CDC::SetBkMode

; 550  : 	m_dcMem.SetTextColor(m_gdires.colName);

  0282d	8b f4		 mov	 esi, esp
  0282f	8b 55 f0	 mov	 edx, DWORD PTR _this$[ebp]
  02832	8b 82 f4 00 00
	00		 mov	 eax, DWORD PTR [edx+244]
  02838	50		 push	 eax
  02839	8b 4d f0	 mov	 ecx, DWORD PTR _this$[ebp]
  0283c	83 c1 60	 add	 ecx, 96			; 00000060H
  0283f	8b 55 f0	 mov	 edx, DWORD PTR _this$[ebp]
  02842	8b 42 60	 mov	 eax, DWORD PTR [edx+96]
  02845	ff 50 38	 call	 DWORD PTR [eax+56]
  02848	3b f4		 cmp	 esi, esp
  0284a	e8 00 00 00 00	 call	 __RTC_CheckEsp

; 551  : 	CRect rcText;

  0284f	8d 8d 28 ff ff
	ff		 lea	 ecx, DWORD PTR _rcText$[ebp]
  02855	e8 00 00 00 00	 call	 ??0CRect@@QAE@XZ	; CRect::CRect

; 552  : 	rcText.left = ptS.x-10;

  0285a	8b 4d 08	 mov	 ecx, DWORD PTR _ptS$[ebp]
  0285d	83 e9 0a	 sub	 ecx, 10			; 0000000aH
  02860	89 8d 28 ff ff
	ff		 mov	 DWORD PTR _rcText$[ebp], ecx

; 553  : 	rcText.top = ptS.y+(m_iItemHeight-iSpaceforline/2)+SPACEH;

  02866	8b 45 ec	 mov	 eax, DWORD PTR _iSpaceforline$[ebp]
  02869	99		 cdq
  0286a	2b c2		 sub	 eax, edx
  0286c	d1 f8		 sar	 eax, 1
  0286e	8b 55 f0	 mov	 edx, DWORD PTR _this$[ebp]
  02871	8b 4a 58	 mov	 ecx, DWORD PTR [edx+88]
  02874	2b c8		 sub	 ecx, eax
  02876	8b 55 0c	 mov	 edx, DWORD PTR _ptS$[ebp+4]
  02879	8d 44 0a 04	 lea	 eax, DWORD PTR [edx+ecx+4]
  0287d	89 85 2c ff ff
	ff		 mov	 DWORD PTR _rcText$[ebp+4], eax

; 554  : 	rcText.right = ptS.x+m_iItemWidth+10;

  02883	8b 4d f0	 mov	 ecx, DWORD PTR _this$[ebp]
  02886	8b 51 54	 mov	 edx, DWORD PTR [ecx+84]
  02889	8b 45 08	 mov	 eax, DWORD PTR _ptS$[ebp]
  0288c	8d 4c 10 0a	 lea	 ecx, DWORD PTR [eax+edx+10]
  02890	89 8d 30 ff ff
	ff		 mov	 DWORD PTR _rcText$[ebp+8], ecx

; 555  : 	rcText.bottom = rcText.top+ITEMTXTH;

  02896	8b 95 2c ff ff
	ff		 mov	 edx, DWORD PTR _rcText$[ebp+4]
  0289c	83 c2 0f	 add	 edx, 15			; 0000000fH
  0289f	89 95 34 ff ff
	ff		 mov	 DWORD PTR _rcText$[ebp+12], edx

; 556  : 	if (lmci.strItemName.GetBuffer())// err

  028a5	8b 4d 10	 mov	 ecx, DWORD PTR _lmci$[ebp]
  028a8	83 c1 28	 add	 ecx, 40			; 00000028H
  028ab	8b f4		 mov	 esi, esp
  028ad	ff 15 00 00 00
	00		 call	 DWORD PTR __imp_?GetBuffer@?$CSimpleStringT@D$00@ATL@@QAEPADXZ
  028b3	3b f4		 cmp	 esi, esp
  028b5	e8 00 00 00 00	 call	 __RTC_CheckEsp
  028ba	85 c0		 test	 eax, eax
  028bc	74 1e		 je	 SHORT $L190242

; 557  : 		m_dcMem.DrawText(lmci.strItemName,&rcText,DT_VCENTER|DT_CENTER|DT_END_ELLIPSIS);

  028be	68 05 80 00 00	 push	 32773			; 00008005H
  028c3	8d 85 28 ff ff
	ff		 lea	 eax, DWORD PTR _rcText$[ebp]
  028c9	50		 push	 eax
  028ca	8b 4d 10	 mov	 ecx, DWORD PTR _lmci$[ebp]
  028cd	83 c1 28	 add	 ecx, 40			; 00000028H
  028d0	51		 push	 ecx
  028d1	8b 4d f0	 mov	 ecx, DWORD PTR _this$[ebp]
  028d4	83 c1 60	 add	 ecx, 96			; 00000060H
  028d7	e8 00 00 00 00	 call	 ?DrawTextA@CDC@@QAEHABV?$CStringT@DV?$StrTraitMFC_DLL@DV?$ChTraitsCRT@D@ATL@@@@@ATL@@PAUtagRECT@@I@Z ; CDC::DrawTextA
$L190242:

; 558  : 	if (m_ImgState==LMCI_Big||m_ImgState==LMCI_Middle)

  028dc	8b 55 f0	 mov	 edx, DWORD PTR _this$[ebp]
  028df	83 7a 5c 02	 cmp	 DWORD PTR [edx+92], 2
  028e3	74 0d		 je	 SHORT $L190244
  028e5	8b 45 f0	 mov	 eax, DWORD PTR _this$[ebp]
  028e8	83 78 5c 01	 cmp	 DWORD PTR [eax+92], 1
  028ec	0f 85 a2 00 00
	00		 jne	 $L190243
$L190244:

; 559  : 	{
; 560  : 		CRect rcdetailText;

  028f2	8d 8d 10 ff ff
	ff		 lea	 ecx, DWORD PTR _rcdetailText$190245[ebp]
  028f8	e8 00 00 00 00	 call	 ??0CRect@@QAE@XZ	; CRect::CRect

; 561  : 		rcdetailText.left = ptS.x;

  028fd	8b 4d 08	 mov	 ecx, DWORD PTR _ptS$[ebp]
  02900	89 8d 10 ff ff
	ff		 mov	 DWORD PTR _rcdetailText$190245[ebp], ecx

; 562  : 		rcdetailText.top = rcText.bottom+SPACEH;

  02906	8b 95 34 ff ff
	ff		 mov	 edx, DWORD PTR _rcText$[ebp+12]
  0290c	83 c2 04	 add	 edx, 4
  0290f	89 95 14 ff ff
	ff		 mov	 DWORD PTR _rcdetailText$190245[ebp+4], edx

; 563  : 		rcdetailText.right = ptS.x+m_iItemWidth;

  02915	8b 45 f0	 mov	 eax, DWORD PTR _this$[ebp]
  02918	8b 4d 08	 mov	 ecx, DWORD PTR _ptS$[ebp]
  0291b	03 48 54	 add	 ecx, DWORD PTR [eax+84]
  0291e	89 8d 18 ff ff
	ff		 mov	 DWORD PTR _rcdetailText$190245[ebp+8], ecx

; 564  : 		rcdetailText.bottom = rcdetailText.top+ITEMDETAILTXTH;

  02924	8b 95 14 ff ff
	ff		 mov	 edx, DWORD PTR _rcdetailText$190245[ebp+4]
  0292a	83 c2 0d	 add	 edx, 13			; 0000000dH
  0292d	89 95 1c ff ff
	ff		 mov	 DWORD PTR _rcdetailText$190245[ebp+12], edx

; 565  : 		m_dcMem.SelectObject(&m_fDeInfo);

  02933	8b 45 f0	 mov	 eax, DWORD PTR _this$[ebp]
  02936	05 84 00 00 00	 add	 eax, 132		; 00000084H
  0293b	8b f4		 mov	 esi, esp
  0293d	50		 push	 eax
  0293e	8b 4d f0	 mov	 ecx, DWORD PTR _this$[ebp]
  02941	83 c1 60	 add	 ecx, 96			; 00000060H
  02944	8b 55 f0	 mov	 edx, DWORD PTR _this$[ebp]
  02947	8b 42 60	 mov	 eax, DWORD PTR [edx+96]
  0294a	ff 50 30	 call	 DWORD PTR [eax+48]
  0294d	3b f4		 cmp	 esi, esp
  0294f	e8 00 00 00 00	 call	 __RTC_CheckEsp

; 566  : 		m_dcMem.SetTextColor(m_gdires.colDetail);

  02954	8b f4		 mov	 esi, esp
  02956	8b 4d f0	 mov	 ecx, DWORD PTR _this$[ebp]
  02959	8b 91 f8 00 00
	00		 mov	 edx, DWORD PTR [ecx+248]
  0295f	52		 push	 edx
  02960	8b 4d f0	 mov	 ecx, DWORD PTR _this$[ebp]
  02963	83 c1 60	 add	 ecx, 96			; 00000060H
  02966	8b 45 f0	 mov	 eax, DWORD PTR _this$[ebp]
  02969	8b 50 60	 mov	 edx, DWORD PTR [eax+96]
  0296c	ff 52 38	 call	 DWORD PTR [edx+56]
  0296f	3b f4		 cmp	 esi, esp
  02971	e8 00 00 00 00	 call	 __RTC_CheckEsp

; 567  : 		m_dcMem.DrawText(lmci.strItemdDetailinfo,&rcdetailText,DT_VCENTER|DT_CENTER|DT_END_ELLIPSIS);

  02976	68 05 80 00 00	 push	 32773			; 00008005H
  0297b	8d 85 10 ff ff
	ff		 lea	 eax, DWORD PTR _rcdetailText$190245[ebp]
  02981	50		 push	 eax
  02982	8b 4d 10	 mov	 ecx, DWORD PTR _lmci$[ebp]
  02985	83 c1 2c	 add	 ecx, 44			; 0000002cH
  02988	51		 push	 ecx
  02989	8b 4d f0	 mov	 ecx, DWORD PTR _this$[ebp]
  0298c	83 c1 60	 add	 ecx, 96			; 00000060H
  0298f	e8 00 00 00 00	 call	 ?DrawTextA@CDC@@QAEHABV?$CStringT@DV?$StrTraitMFC_DLL@DV?$ChTraitsCRT@D@ATL@@@@@ATL@@PAUtagRECT@@I@Z ; CDC::DrawTextA
$L190243:

; 568  : 	}
; 569  : 	m_dcMem.SelectObject(pOldFont);

  02994	8b f4		 mov	 esi, esp
  02996	8b 95 44 ff ff
	ff		 mov	 edx, DWORD PTR _pOldFont$[ebp]
  0299c	52		 push	 edx
  0299d	8b 4d f0	 mov	 ecx, DWORD PTR _this$[ebp]
  029a0	83 c1 60	 add	 ecx, 96			; 00000060H
  029a3	8b 45 f0	 mov	 eax, DWORD PTR _this$[ebp]
  029a6	8b 50 60	 mov	 edx, DWORD PTR [eax+96]
  029a9	ff 52 30	 call	 DWORD PTR [edx+48]
  029ac	3b f4		 cmp	 esi, esp
  029ae	e8 00 00 00 00	 call	 __RTC_CheckEsp

; 570  : 	m_dcMem.SetTextColor(oldText);

  029b3	8b f4		 mov	 esi, esp
  029b5	8b 85 40 ff ff
	ff		 mov	 eax, DWORD PTR _oldText$[ebp]
  029bb	50		 push	 eax
  029bc	8b 4d f0	 mov	 ecx, DWORD PTR _this$[ebp]
  029bf	83 c1 60	 add	 ecx, 96			; 00000060H
  029c2	8b 55 f0	 mov	 edx, DWORD PTR _this$[ebp]
  029c5	8b 42 60	 mov	 eax, DWORD PTR [edx+96]
  029c8	ff 50 38	 call	 DWORD PTR [eax+56]
  029cb	3b f4		 cmp	 esi, esp
  029cd	e8 00 00 00 00	 call	 __RTC_CheckEsp

; 571  : 	m_dcMem.SetBkMode(iBK);

  029d2	8b 8d 3c ff ff
	ff		 mov	 ecx, DWORD PTR _iBK$[ebp]
  029d8	51		 push	 ecx
  029d9	8b 4d f0	 mov	 ecx, DWORD PTR _this$[ebp]
  029dc	83 c1 60	 add	 ecx, 96			; 00000060H
  029df	e8 00 00 00 00	 call	 ?SetBkMode@CDC@@QAEHH@Z	; CDC::SetBkMode

; 572  : }

  029e4	c6 45 fc 00	 mov	 BYTE PTR __$EHRec$[ebp+8], 0
  029e8	8d 4d b8	 lea	 ecx, DWORD PTR _gc$[ebp]
  029eb	e8 00 00 00 00	 call	 ??1Graphics@Gdiplus@@QAE@XZ ; Gdiplus::Graphics::~Graphics
  029f0	c7 45 fc ff ff
	ff ff		 mov	 DWORD PTR __$EHRec$[ebp+8], -1
  029f7	8d 4d c8	 lea	 ecx, DWORD PTR _img$[ebp]
  029fa	e8 00 00 00 00	 call	 ??1Image@Gdiplus@@UAE@XZ ; Gdiplus::Image::~Image
  029ff	8d a5 ec fe ff
	ff		 lea	 esp, DWORD PTR [ebp-276]
  02a05	52		 push	 edx
  02a06	8b cd		 mov	 ecx, ebp
  02a08	50		 push	 eax
  02a09	8d 15 00 00 00
	00		 lea	 edx, DWORD PTR $L192742
  02a0f	e8 00 00 00 00	 call	 @_RTC_CheckStackVars@8
  02a14	58		 pop	 eax
  02a15	5a		 pop	 edx
  02a16	8b 4d f4	 mov	 ecx, DWORD PTR __$EHRec$[ebp]
  02a19	64 89 0d 00 00
	00 00		 mov	 DWORD PTR fs:__except_list, ecx
  02a20	5f		 pop	 edi
  02a21	5e		 pop	 esi
  02a22	8b e5		 mov	 esp, ebp
  02a24	5d		 pop	 ebp
  02a25	c2 0c 00	 ret	 12			; 0000000cH
$L192742:
  02a28	09 00 00 00	 DD	 9
  02a2c	00 00 00 00	 DD	 $L192741
$L192741:
  02a30	c8 ff ff ff	 DD	 -56			; ffffffc8H
  02a34	10 00 00 00	 DD	 16			; 00000010H
  02a38	00 00 00 00	 DD	 $L192731
  02a3c	b8 ff ff ff	 DD	 -72			; ffffffb8H
  02a40	08 00 00 00	 DD	 8
  02a44	00 00 00 00	 DD	 $L192732
  02a48	a0 ff ff ff	 DD	 -96			; ffffffa0H
  02a4c	10 00 00 00	 DD	 16			; 00000010H
  02a50	00 00 00 00	 DD	 $L192733
  02a54	88 ff ff ff	 DD	 -120			; ffffff88H
  02a58	10 00 00 00	 DD	 16			; 00000010H
  02a5c	00 00 00 00	 DD	 $L192734
  02a60	78 ff ff ff	 DD	 -136			; ffffff78H
  02a64	08 00 00 00	 DD	 8
  02a68	00 00 00 00	 DD	 $L192735
  02a6c	60 ff ff ff	 DD	 -160			; ffffff60H
  02a70	04 00 00 00	 DD	 4
  02a74	00 00 00 00	 DD	 $L192736
  02a78	50 ff ff ff	 DD	 -176			; ffffff50H
  02a7c	08 00 00 00	 DD	 8
  02a80	00 00 00 00	 DD	 $L192737
  02a84	28 ff ff ff	 DD	 -216			; ffffff28H
  02a88	10 00 00 00	 DD	 16			; 00000010H
  02a8c	00 00 00 00	 DD	 $L192738
  02a90	10 ff ff ff	 DD	 -240			; ffffff10H
  02a94	10 00 00 00	 DD	 16			; 00000010H
  02a98	00 00 00 00	 DD	 $L192739
$L192739:
  02a9c	72		 DB	 114			; 00000072H
  02a9d	63		 DB	 99			; 00000063H
  02a9e	64		 DB	 100			; 00000064H
  02a9f	65		 DB	 101			; 00000065H
  02aa0	74		 DB	 116			; 00000074H
  02aa1	61		 DB	 97			; 00000061H
  02aa2	69		 DB	 105			; 00000069H
  02aa3	6c		 DB	 108			; 0000006cH
  02aa4	54		 DB	 84			; 00000054H
  02aa5	65		 DB	 101			; 00000065H
  02aa6	78		 DB	 120			; 00000078H
  02aa7	74		 DB	 116			; 00000074H
  02aa8	00		 DB	 0
$L192738:
  02aa9	72		 DB	 114			; 00000072H
  02aaa	63		 DB	 99			; 00000063H
  02aab	54		 DB	 84			; 00000054H
  02aac	65		 DB	 101			; 00000065H
  02aad	78		 DB	 120			; 00000078H
  02aae	74		 DB	 116			; 00000074H
  02aaf	00		 DB	 0
$L192737:
  02ab0	67		 DB	 103			; 00000067H
  02ab1	72		 DB	 114			; 00000072H
  02ab2	70		 DB	 112			; 00000070H
  02ab3	65		 DB	 101			; 00000065H
  02ab4	6e		 DB	 110			; 0000006eH
  02ab5	00		 DB	 0
$L192736:
  02ab6	63		 DB	 99			; 00000063H
  02ab7	6f		 DB	 111			; 0000006fH
  02ab8	6c		 DB	 108			; 0000006cH
  02ab9	50		 DB	 80			; 00000050H
  02aba	65		 DB	 101			; 00000065H
  02abb	6e		 DB	 110			; 0000006eH
  02abc	00		 DB	 0
$L192735:
  02abd	67		 DB	 103			; 00000067H
  02abe	72		 DB	 114			; 00000072H
  02abf	61		 DB	 97			; 00000061H
  02ac0	70		 DB	 112			; 00000070H
  02ac1	68		 DB	 104			; 00000068H
  02ac2	69		 DB	 105			; 00000069H
  02ac3	63		 DB	 99			; 00000063H
  02ac4	73		 DB	 115			; 00000073H
  02ac5	00		 DB	 0
$L192734:
  02ac6	72		 DB	 114			; 00000072H
  02ac7	63		 DB	 99			; 00000063H
  02ac8	49		 DB	 73			; 00000049H
  02ac9	6d		 DB	 109			; 0000006dH
  02aca	67		 DB	 103			; 00000067H
  02acb	43		 DB	 67			; 00000043H
  02acc	6f		 DB	 111			; 0000006fH
  02acd	76		 DB	 118			; 00000076H
  02ace	65		 DB	 101			; 00000065H
  02acf	72		 DB	 114			; 00000072H
  02ad0	00		 DB	 0
$L192733:
  02ad1	72		 DB	 114			; 00000072H
  02ad2	63		 DB	 99			; 00000063H
  02ad3	49		 DB	 73			; 00000049H
  02ad4	6d		 DB	 109			; 0000006dH
  02ad5	67		 DB	 103			; 00000067H
  02ad6	44		 DB	 68			; 00000044H
  02ad7	65		 DB	 101			; 00000065H
  02ad8	73		 DB	 115			; 00000073H
  02ad9	52		 DB	 82			; 00000052H
  02ada	65		 DB	 101			; 00000065H
  02adb	63		 DB	 99			; 00000063H
  02adc	74		 DB	 116			; 00000074H
  02add	00		 DB	 0
$L192732:
  02ade	67		 DB	 103			; 00000067H
  02adf	63		 DB	 99			; 00000063H
  02ae0	00		 DB	 0
$L192731:
  02ae1	69		 DB	 105			; 00000069H
  02ae2	6d		 DB	 109			; 0000006dH
  02ae3	67		 DB	 103			; 00000067H
  02ae4	00		 DB	 0
_TEXT	ENDS
text$x	SEGMENT
$L192725:
  00325	8d 4d c8	 lea	 ecx, DWORD PTR _img$[ebp]
  00328	e9 00 00 00 00	 jmp	 ??1Image@Gdiplus@@UAE@XZ ; Gdiplus::Image::~Image
$L192726:
  0032d	8d 4d b8	 lea	 ecx, DWORD PTR _gc$[ebp]
  00330	e9 00 00 00 00	 jmp	 ??1Graphics@Gdiplus@@QAE@XZ ; Gdiplus::Graphics::~Graphics
$L192727:
  00335	8d 8d 78 ff ff
	ff		 lea	 ecx, DWORD PTR _graphics$190226[ebp]
  0033b	e9 00 00 00 00	 jmp	 ??1Graphics@Gdiplus@@QAE@XZ ; Gdiplus::Graphics::~Graphics
$L192728:
  00340	8d 8d 50 ff ff
	ff		 lea	 ecx, DWORD PTR _grpen$190232[ebp]
  00346	e9 00 00 00 00	 jmp	 ??1Pen@Gdiplus@@QAE@XZ	; Gdiplus::Pen::~Pen
__ehhandler$?DrawItem@CLocalMusicCoverList@@IAEXVCPoint@@AAU_tagLMCItemInfo@@@Z:
  0034b	b8 00 00 00 00	 mov	 eax, OFFSET FLAT:$T192730
  00350	e9 00 00 00 00	 jmp	 ___CxxFrameHandler
text$x	ENDS
?DrawItem@CLocalMusicCoverList@@IAEXVCPoint@@AAU_tagLMCItemInfo@@@Z ENDP ; CLocalMusicCoverList::DrawItem
PUBLIC	?MoveVWnd@CLocalMusicCoverList@@IAEXH@Z		; CLocalMusicCoverList::MoveVWnd
PUBLIC	?push_back@?$deque@VCPoint@@V?$allocator@VCPoint@@@std@@@std@@QAEXABVCPoint@@@Z ; std::deque<CPoint,std::allocator<CPoint> >::push_back
EXTRN	?Lock@CCriticalSection@@QAEHXZ:NEAR		; CCriticalSection::Lock
; Function compile flags: /Odt /RTCsu
_TEXT	SEGMENT
tv75 = -28						; size = 4
tv71 = -24						; size = 4
_pt$ = -16						; size = 8
_this$ = -4						; size = 4
_blIsup$ = 8						; size = 4
?MoveVWnd@CLocalMusicCoverList@@IAEXH@Z PROC NEAR	; CLocalMusicCoverList::MoveVWnd
; _this$ = ecx

; 575  : {

  02af0	55		 push	 ebp
  02af1	8b ec		 mov	 ebp, esp
  02af3	83 ec 1c	 sub	 esp, 28			; 0000001cH
  02af6	56		 push	 esi
  02af7	b8 cc cc cc cc	 mov	 eax, -858993460		; ccccccccH
  02afc	89 45 e4	 mov	 DWORD PTR [ebp-28], eax
  02aff	89 45 e8	 mov	 DWORD PTR [ebp-24], eax
  02b02	89 45 ec	 mov	 DWORD PTR [ebp-20], eax
  02b05	89 45 f0	 mov	 DWORD PTR [ebp-16], eax
  02b08	89 45 f4	 mov	 DWORD PTR [ebp-12], eax
  02b0b	89 45 f8	 mov	 DWORD PTR [ebp-8], eax
  02b0e	89 45 fc	 mov	 DWORD PTR [ebp-4], eax
  02b11	89 4d fc	 mov	 DWORD PTR _this$[ebp], ecx

; 576  : 	CPoint pt = m_ptClientStart;

  02b14	8b 45 fc	 mov	 eax, DWORD PTR _this$[ebp]
  02b17	8b 88 ac 00 00
	00		 mov	 ecx, DWORD PTR [eax+172]
  02b1d	8b 90 b0 00 00
	00		 mov	 edx, DWORD PTR [eax+176]
  02b23	89 4d f0	 mov	 DWORD PTR _pt$[ebp], ecx
  02b26	89 55 f4	 mov	 DWORD PTR _pt$[ebp+4], edx

; 577  : 	if (m_blTracker)// Tracker

  02b29	8b 45 fc	 mov	 eax, DWORD PTR _this$[ebp]
  02b2c	83 b8 68 01 00
	00 00		 cmp	 DWORD PTR [eax+360], 0
  02b33	74 28		 je	 SHORT $L190251

; 578  : 		blIsup?pt.y+=VSCROLLMAX:pt.y-=VSCROLLMAX;

  02b35	83 7d 08 00	 cmp	 DWORD PTR _blIsup$[ebp], 0
  02b39	74 11		 je	 SHORT $L192745
  02b3b	8b 4d f4	 mov	 ecx, DWORD PTR _pt$[ebp+4]
  02b3e	83 c1 64	 add	 ecx, 100		; 00000064H
  02b41	89 4d f4	 mov	 DWORD PTR _pt$[ebp+4], ecx
  02b44	8b 55 f4	 mov	 edx, DWORD PTR _pt$[ebp+4]
  02b47	89 55 e8	 mov	 DWORD PTR tv71[ebp], edx
  02b4a	eb 0f		 jmp	 SHORT $L192746
$L192745:
  02b4c	8b 45 f4	 mov	 eax, DWORD PTR _pt$[ebp+4]
  02b4f	83 e8 64	 sub	 eax, 100		; 00000064H
  02b52	89 45 f4	 mov	 DWORD PTR _pt$[ebp+4], eax
  02b55	8b 4d f4	 mov	 ecx, DWORD PTR _pt$[ebp+4]
  02b58	89 4d e8	 mov	 DWORD PTR tv71[ebp], ecx
$L192746:

; 579  : 	else

  02b5b	eb 26		 jmp	 SHORT $L190252
$L190251:

; 580  : 		blIsup?pt.y+=VSCROLLMIN:pt.y-=VSCROLLMIN;

  02b5d	83 7d 08 00	 cmp	 DWORD PTR _blIsup$[ebp], 0
  02b61	74 11		 je	 SHORT $L192747
  02b63	8b 55 f4	 mov	 edx, DWORD PTR _pt$[ebp+4]
  02b66	83 c2 28	 add	 edx, 40			; 00000028H
  02b69	89 55 f4	 mov	 DWORD PTR _pt$[ebp+4], edx
  02b6c	8b 45 f4	 mov	 eax, DWORD PTR _pt$[ebp+4]
  02b6f	89 45 e4	 mov	 DWORD PTR tv75[ebp], eax
  02b72	eb 0f		 jmp	 SHORT $L190252
$L192747:
  02b74	8b 4d f4	 mov	 ecx, DWORD PTR _pt$[ebp+4]
  02b77	83 e9 28	 sub	 ecx, 40			; 00000028H
  02b7a	89 4d f4	 mov	 DWORD PTR _pt$[ebp+4], ecx
  02b7d	8b 55 f4	 mov	 edx, DWORD PTR _pt$[ebp+4]
  02b80	89 55 e4	 mov	 DWORD PTR tv75[ebp], edx
$L190252:

; 581  : 	
; 582  : 	if (pt.y>=m_rect.top)

  02b83	8b 45 fc	 mov	 eax, DWORD PTR _this$[ebp]
  02b86	8b 4d f4	 mov	 ecx, DWORD PTR _pt$[ebp+4]
  02b89	3b 88 90 00 00
	00		 cmp	 ecx, DWORD PTR [eax+144]
  02b8f	7c 0e		 jl	 SHORT $L190253

; 583  : 	{
; 584  : 		pt.y=m_rect.top;

  02b91	8b 55 fc	 mov	 edx, DWORD PTR _this$[ebp]
  02b94	8b 82 90 00 00
	00		 mov	 eax, DWORD PTR [edx+144]
  02b9a	89 45 f4	 mov	 DWORD PTR _pt$[ebp+4], eax

; 585  : 	}
; 586  : 	else if(pt.y+m_rcRealRect.Height()<= m_rect.bottom)

  02b9d	eb 42		 jmp	 SHORT $L190254
$L190253:
  02b9f	8b 4d fc	 mov	 ecx, DWORD PTR _this$[ebp]
  02ba2	81 c1 9c 00 00
	00		 add	 ecx, 156		; 0000009cH
  02ba8	e8 00 00 00 00	 call	 ?Height@CRect@@QBEHXZ	; CRect::Height
  02bad	03 45 f4	 add	 eax, DWORD PTR _pt$[ebp+4]
  02bb0	8b 4d fc	 mov	 ecx, DWORD PTR _this$[ebp]
  02bb3	3b 81 98 00 00
	00		 cmp	 eax, DWORD PTR [ecx+152]
  02bb9	7f 26		 jg	 SHORT $L190254

; 587  : 	{
; 588  : 		pt.y = m_rect.Height() - m_rcRealRect.Height()-SPACEH;

  02bbb	8b 4d fc	 mov	 ecx, DWORD PTR _this$[ebp]
  02bbe	81 c1 8c 00 00
	00		 add	 ecx, 140		; 0000008cH
  02bc4	e8 00 00 00 00	 call	 ?Height@CRect@@QBEHXZ	; CRect::Height
  02bc9	8b f0		 mov	 esi, eax
  02bcb	8b 4d fc	 mov	 ecx, DWORD PTR _this$[ebp]
  02bce	81 c1 9c 00 00
	00		 add	 ecx, 156		; 0000009cH
  02bd4	e8 00 00 00 00	 call	 ?Height@CRect@@QBEHXZ	; CRect::Height
  02bd9	2b f0		 sub	 esi, eax
  02bdb	83 ee 04	 sub	 esi, 4
  02bde	89 75 f4	 mov	 DWORD PTR _pt$[ebp+4], esi
$L190254:

; 589  : 	}
; 590  : 	m_csLockV.Lock();

  02be1	8b 4d fc	 mov	 ecx, DWORD PTR _this$[ebp]
  02be4	81 c1 b4 00 00
	00		 add	 ecx, 180		; 000000b4H
  02bea	e8 00 00 00 00	 call	 ?Lock@CCriticalSection@@QAEHXZ ; CCriticalSection::Lock

; 591  : 	m_vPtQueue.push_back(pt);

  02bef	8d 55 f0	 lea	 edx, DWORD PTR _pt$[ebp]
  02bf2	52		 push	 edx
  02bf3	8b 4d fc	 mov	 ecx, DWORD PTR _this$[ebp]
  02bf6	81 c1 d8 00 00
	00		 add	 ecx, 216		; 000000d8H
  02bfc	e8 00 00 00 00	 call	 ?push_back@?$deque@VCPoint@@V?$allocator@VCPoint@@@std@@@std@@QAEXABVCPoint@@@Z ; std::deque<CPoint,std::allocator<CPoint> >::push_back

; 592  : 	m_csLockV.Unlock();

  02c01	8b 4d fc	 mov	 ecx, DWORD PTR _this$[ebp]
  02c04	81 c1 b4 00 00
	00		 add	 ecx, 180		; 000000b4H
  02c0a	8b 45 fc	 mov	 eax, DWORD PTR _this$[ebp]
  02c0d	8b 90 b4 00 00
	00		 mov	 edx, DWORD PTR [eax+180]
  02c13	8b f4		 mov	 esi, esp
  02c15	ff 52 1c	 call	 DWORD PTR [edx+28]
  02c18	3b f4		 cmp	 esi, esp
  02c1a	e8 00 00 00 00	 call	 __RTC_CheckEsp

; 593  : 	
; 594  : }

  02c1f	52		 push	 edx
  02c20	8b cd		 mov	 ecx, ebp
  02c22	50		 push	 eax
  02c23	8d 15 00 00 00
	00		 lea	 edx, DWORD PTR $L192751
  02c29	e8 00 00 00 00	 call	 @_RTC_CheckStackVars@8
  02c2e	58		 pop	 eax
  02c2f	5a		 pop	 edx
  02c30	5e		 pop	 esi
  02c31	83 c4 1c	 add	 esp, 28			; 0000001cH
  02c34	3b ec		 cmp	 ebp, esp
  02c36	e8 00 00 00 00	 call	 __RTC_CheckEsp
  02c3b	8b e5		 mov	 esp, ebp
  02c3d	5d		 pop	 ebp
  02c3e	c2 04 00	 ret	 4
$L192751:
  02c41	01 00 00 00	 DD	 1
  02c45	00 00 00 00	 DD	 $L192750
$L192750:
  02c49	f0 ff ff ff	 DD	 -16			; fffffff0H
  02c4d	08 00 00 00	 DD	 8
  02c51	00 00 00 00	 DD	 $L192749
$L192749:
  02c55	70		 DB	 112			; 00000070H
  02c56	74		 DB	 116			; 00000074H
  02c57	00		 DB	 0
?MoveVWnd@CLocalMusicCoverList@@IAEXH@Z ENDP		; CLocalMusicCoverList::MoveVWnd
; Function compile flags: /Odt /RTCsu
_rectInter$190263 = -28				; size = 16
_i$190259 = -8						; size = 4
_this$ = -4						; size = 4
?OnCalcSelectItem@CLocalMusicCoverList@@IAEXXZ PROC NEAR ; CLocalMusicCoverList::OnCalcSelectItem
; _this$ = ecx

; 597  : {

  02c60	55		 push	 ebp
  02c61	8b ec		 mov	 ebp, esp
  02c63	83 ec 20	 sub	 esp, 32			; 00000020H
  02c66	b8 cc cc cc cc	 mov	 eax, -858993460		; ccccccccH
  02c6b	89 45 e0	 mov	 DWORD PTR [ebp-32], eax
  02c6e	89 45 e4	 mov	 DWORD PTR [ebp-28], eax
  02c71	89 45 e8	 mov	 DWORD PTR [ebp-24], eax
  02c74	89 45 ec	 mov	 DWORD PTR [ebp-20], eax
  02c77	89 45 f0	 mov	 DWORD PTR [ebp-16], eax
  02c7a	89 45 f4	 mov	 DWORD PTR [ebp-12], eax
  02c7d	89 45 f8	 mov	 DWORD PTR [ebp-8], eax
  02c80	89 45 fc	 mov	 DWORD PTR [ebp-4], eax
  02c83	89 4d fc	 mov	 DWORD PTR _this$[ebp], ecx

; 598  : 	for (int i=0;i<m_DataMgr.m_vItem.size();i++)

  02c86	c7 45 f8 00 00
	00 00		 mov	 DWORD PTR _i$190259[ebp], 0
  02c8d	eb 09		 jmp	 SHORT $L190260
$L190261:
  02c8f	8b 45 f8	 mov	 eax, DWORD PTR _i$190259[ebp]
  02c92	83 c0 01	 add	 eax, 1
  02c95	89 45 f8	 mov	 DWORD PTR _i$190259[ebp], eax
$L190260:
  02c98	8b 4d fc	 mov	 ecx, DWORD PTR _this$[ebp]
  02c9b	81 c1 6c 01 00
	00		 add	 ecx, 364		; 0000016cH
  02ca1	e8 00 00 00 00	 call	 ?size@?$vector@U_tagLMCItemInfo@@V?$allocator@U_tagLMCItemInfo@@@std@@@std@@QBEIXZ ; std::vector<_tagLMCItemInfo,std::allocator<_tagLMCItemInfo> >::size
  02ca6	39 45 f8	 cmp	 DWORD PTR _i$190259[ebp], eax
  02ca9	73 6d		 jae	 SHORT $L190258

; 599  : 	{	
; 600  : 		CRect rectInter;

  02cab	8d 4d e4	 lea	 ecx, DWORD PTR _rectInter$190263[ebp]
  02cae	e8 00 00 00 00	 call	 ??0CRect@@QAE@XZ	; CRect::CRect

; 601  : 		if (rectInter.IntersectRect(&m_DataMgr.m_vItem[i].rc, &m_rcTracker))

  02cb3	8b 4d fc	 mov	 ecx, DWORD PTR _this$[ebp]
  02cb6	81 c1 2c 01 00
	00		 add	 ecx, 300		; 0000012cH
  02cbc	51		 push	 ecx
  02cbd	8b 55 f8	 mov	 edx, DWORD PTR _i$190259[ebp]
  02cc0	52		 push	 edx
  02cc1	8b 4d fc	 mov	 ecx, DWORD PTR _this$[ebp]
  02cc4	81 c1 6c 01 00
	00		 add	 ecx, 364		; 0000016cH
  02cca	e8 00 00 00 00	 call	 ??A?$vector@U_tagLMCItemInfo@@V?$allocator@U_tagLMCItemInfo@@@std@@@std@@QAEAAU_tagLMCItemInfo@@I@Z ; std::vector<_tagLMCItemInfo,std::allocator<_tagLMCItemInfo> >::operator[]
  02ccf	83 c0 34	 add	 eax, 52			; 00000034H
  02cd2	50		 push	 eax
  02cd3	8d 4d e4	 lea	 ecx, DWORD PTR _rectInter$190263[ebp]
  02cd6	e8 00 00 00 00	 call	 ?IntersectRect@CRect@@QAEHPBUtagRECT@@0@Z ; CRect::IntersectRect
  02cdb	85 c0		 test	 eax, eax
  02cdd	74 1b		 je	 SHORT $L190264

; 602  : 			m_DataMgr.m_vItem[i].blSel = TRUE;

  02cdf	8b 45 f8	 mov	 eax, DWORD PTR _i$190259[ebp]
  02ce2	50		 push	 eax
  02ce3	8b 4d fc	 mov	 ecx, DWORD PTR _this$[ebp]
  02ce6	81 c1 6c 01 00
	00		 add	 ecx, 364		; 0000016cH
  02cec	e8 00 00 00 00	 call	 ??A?$vector@U_tagLMCItemInfo@@V?$allocator@U_tagLMCItemInfo@@@std@@@std@@QAEAAU_tagLMCItemInfo@@I@Z ; std::vector<_tagLMCItemInfo,std::allocator<_tagLMCItemInfo> >::operator[]
  02cf1	c7 40 20 01 00
	00 00		 mov	 DWORD PTR [eax+32], 1

; 603  : 		else 

  02cf8	eb 19		 jmp	 SHORT $L190265
$L190264:

; 604  : 			m_DataMgr.m_vItem[i].blSel = FALSE;

  02cfa	8b 4d f8	 mov	 ecx, DWORD PTR _i$190259[ebp]
  02cfd	51		 push	 ecx
  02cfe	8b 4d fc	 mov	 ecx, DWORD PTR _this$[ebp]
  02d01	81 c1 6c 01 00
	00		 add	 ecx, 364		; 0000016cH
  02d07	e8 00 00 00 00	 call	 ??A?$vector@U_tagLMCItemInfo@@V?$allocator@U_tagLMCItemInfo@@@std@@@std@@QAEAAU_tagLMCItemInfo@@I@Z ; std::vector<_tagLMCItemInfo,std::allocator<_tagLMCItemInfo> >::operator[]
  02d0c	c7 40 20 00 00
	00 00		 mov	 DWORD PTR [eax+32], 0
$L190265:

; 605  : 	}

  02d13	e9 77 ff ff ff	 jmp	 $L190261
$L190258:

; 606  : }

  02d18	52		 push	 edx
  02d19	8b cd		 mov	 ecx, ebp
  02d1b	50		 push	 eax
  02d1c	8d 15 00 00 00
	00		 lea	 edx, DWORD PTR $L192755
  02d22	e8 00 00 00 00	 call	 @_RTC_CheckStackVars@8
  02d27	58		 pop	 eax
  02d28	5a		 pop	 edx
  02d29	83 c4 20	 add	 esp, 32			; 00000020H
  02d2c	3b ec		 cmp	 ebp, esp
  02d2e	e8 00 00 00 00	 call	 __RTC_CheckEsp
  02d33	8b e5		 mov	 esp, ebp
  02d35	5d		 pop	 ebp
  02d36	c3		 ret	 0
$L192755:
  02d37	01 00 00 00	 DD	 1
  02d3b	00 00 00 00	 DD	 $L192754
$L192754:
  02d3f	e4 ff ff ff	 DD	 -28			; ffffffe4H
  02d43	10 00 00 00	 DD	 16			; 00000010H
  02d47	00 00 00 00	 DD	 $L192753
$L192753:
  02d4b	72		 DB	 114			; 00000072H
  02d4c	65		 DB	 101			; 00000065H
  02d4d	63		 DB	 99			; 00000063H
  02d4e	74		 DB	 116			; 00000074H
  02d4f	49		 DB	 73			; 00000049H
  02d50	6e		 DB	 110			; 0000006eH
  02d51	74		 DB	 116			; 00000074H
  02d52	65		 DB	 101			; 00000065H
  02d53	72		 DB	 114			; 00000072H
  02d54	00		 DB	 0
?OnCalcSelectItem@CLocalMusicCoverList@@IAEXXZ ENDP	; CLocalMusicCoverList::OnCalcSelectItem
_TEXT	ENDS
PUBLIC	?HitTest@CLocalMusicCoverList@@IAEHAAHVCPoint@@@Z ; CLocalMusicCoverList::HitTest
EXTRN	?PtInRect@CRect@@QBEHUtagPOINT@@@Z:NEAR		; CRect::PtInRect
; Function compile flags: /Odt /RTCsu
_TEXT	SEGMENT
$T192757 = -16						; size = 8
_i$190271 = -8						; size = 4
_this$ = -4						; size = 4
_itemIndex$ = 8						; size = 4
_pt$ = 12						; size = 8
?HitTest@CLocalMusicCoverList@@IAEHAAHVCPoint@@@Z PROC NEAR ; CLocalMusicCoverList::HitTest
; _this$ = ecx

; 609  : {

  02d60	55		 push	 ebp
  02d61	8b ec		 mov	 ebp, esp
  02d63	83 ec 10	 sub	 esp, 16			; 00000010H
  02d66	b8 cc cc cc cc	 mov	 eax, -858993460		; ccccccccH
  02d6b	89 45 f0	 mov	 DWORD PTR [ebp-16], eax
  02d6e	89 45 f4	 mov	 DWORD PTR [ebp-12], eax
  02d71	89 45 f8	 mov	 DWORD PTR [ebp-8], eax
  02d74	89 45 fc	 mov	 DWORD PTR [ebp-4], eax
  02d77	89 4d fc	 mov	 DWORD PTR _this$[ebp], ecx

; 610  : 	for (int i=0;i<m_DataMgr.m_vItem.size();i++)

  02d7a	c7 45 f8 00 00
	00 00		 mov	 DWORD PTR _i$190271[ebp], 0
  02d81	eb 09		 jmp	 SHORT $L190272
$L190273:
  02d83	8b 45 f8	 mov	 eax, DWORD PTR _i$190271[ebp]
  02d86	83 c0 01	 add	 eax, 1
  02d89	89 45 f8	 mov	 DWORD PTR _i$190271[ebp], eax
$L190272:
  02d8c	8b 4d fc	 mov	 ecx, DWORD PTR _this$[ebp]
  02d8f	81 c1 6c 01 00
	00		 add	 ecx, 364		; 0000016cH
  02d95	e8 00 00 00 00	 call	 ?size@?$vector@U_tagLMCItemInfo@@V?$allocator@U_tagLMCItemInfo@@@std@@@std@@QBEIXZ ; std::vector<_tagLMCItemInfo,std::allocator<_tagLMCItemInfo> >::size
  02d9a	39 45 f8	 cmp	 DWORD PTR _i$190271[ebp], eax
  02d9d	73 57		 jae	 SHORT $L190274

; 611  : 	{
; 612  : 		if (m_DataMgr.m_vItem[i].rc.PtInRect(pt))

  02d9f	8b 4d 0c	 mov	 ecx, DWORD PTR _pt$[ebp]
  02da2	89 4d f0	 mov	 DWORD PTR $T192757[ebp], ecx
  02da5	8b 55 10	 mov	 edx, DWORD PTR _pt$[ebp+4]
  02da8	89 55 f4	 mov	 DWORD PTR $T192757[ebp+4], edx
  02dab	8b 45 f4	 mov	 eax, DWORD PTR $T192757[ebp+4]
  02dae	50		 push	 eax
  02daf	8b 4d f0	 mov	 ecx, DWORD PTR $T192757[ebp]
  02db2	51		 push	 ecx
  02db3	8b 55 f8	 mov	 edx, DWORD PTR _i$190271[ebp]
  02db6	52		 push	 edx
  02db7	8b 4d fc	 mov	 ecx, DWORD PTR _this$[ebp]
  02dba	81 c1 6c 01 00
	00		 add	 ecx, 364		; 0000016cH
  02dc0	e8 00 00 00 00	 call	 ??A?$vector@U_tagLMCItemInfo@@V?$allocator@U_tagLMCItemInfo@@@std@@@std@@QAEAAU_tagLMCItemInfo@@I@Z ; std::vector<_tagLMCItemInfo,std::allocator<_tagLMCItemInfo> >::operator[]
  02dc5	83 c0 34	 add	 eax, 52			; 00000034H
  02dc8	8b c8		 mov	 ecx, eax
  02dca	e8 00 00 00 00	 call	 ?PtInRect@CRect@@QBEHUtagPOINT@@@Z ; CRect::PtInRect
  02dcf	85 c0		 test	 eax, eax
  02dd1	74 21		 je	 SHORT $L190276

; 613  : 		{
; 614  : 			itemIndex = m_DataMgr.m_vItem[i].iIndex;

  02dd3	8b 45 f8	 mov	 eax, DWORD PTR _i$190271[ebp]
  02dd6	50		 push	 eax
  02dd7	8b 4d fc	 mov	 ecx, DWORD PTR _this$[ebp]
  02dda	81 c1 6c 01 00
	00		 add	 ecx, 364		; 0000016cH
  02de0	e8 00 00 00 00	 call	 ??A?$vector@U_tagLMCItemInfo@@V?$allocator@U_tagLMCItemInfo@@@std@@@std@@QAEAAU_tagLMCItemInfo@@I@Z ; std::vector<_tagLMCItemInfo,std::allocator<_tagLMCItemInfo> >::operator[]
  02de5	8b 4d 08	 mov	 ecx, DWORD PTR _itemIndex$[ebp]
  02de8	8b 50 1c	 mov	 edx, DWORD PTR [eax+28]
  02deb	89 11		 mov	 DWORD PTR [ecx], edx

; 615  : 			return TRUE;

  02ded	b8 01 00 00 00	 mov	 eax, 1
  02df2	eb 04		 jmp	 SHORT $L190270
$L190276:

; 616  : 		}
; 617  : 	}

  02df4	eb 8d		 jmp	 SHORT $L190273
$L190274:

; 618  : 	return FALSE;

  02df6	33 c0		 xor	 eax, eax
$L190270:

; 619  : }

  02df8	83 c4 10	 add	 esp, 16			; 00000010H
  02dfb	3b ec		 cmp	 ebp, esp
  02dfd	e8 00 00 00 00	 call	 __RTC_CheckEsp
  02e02	8b e5		 mov	 esp, ebp
  02e04	5d		 pop	 ebp
  02e05	c2 0c 00	 ret	 12			; 0000000cH
?HitTest@CLocalMusicCoverList@@IAEHAAHVCPoint@@@Z ENDP	; CLocalMusicCoverList::HitTest
_TEXT	ENDS
PUBLIC	?size@?$deque@VCPoint@@V?$allocator@VCPoint@@@std@@@std@@QBEIXZ ; std::deque<CPoint,std::allocator<CPoint> >::size
PUBLIC	?front@?$deque@VCPoint@@V?$allocator@VCPoint@@@std@@@std@@QAEAAVCPoint@@XZ ; std::deque<CPoint,std::allocator<CPoint> >::front
PUBLIC	?pop_front@?$deque@VCPoint@@V?$allocator@VCPoint@@@std@@@std@@QAEXXZ ; std::deque<CPoint,std::allocator<CPoint> >::pop_front
EXTRN	?OnTimer@CWnd@@IAEXI@Z:NEAR			; CWnd::OnTimer
; Function compile flags: /Odt /RTCsu
_TEXT	SEGMENT
_this$ = -4						; size = 4
_nIDEvent$ = 8						; size = 4
?OnTimer@CLocalMusicCoverList@@QAEXI@Z PROC NEAR	; CLocalMusicCoverList::OnTimer
; _this$ = ecx

; 622  : {

  02e10	55		 push	 ebp
  02e11	8b ec		 mov	 ebp, esp
  02e13	51		 push	 ecx
  02e14	56		 push	 esi
  02e15	c7 45 fc cc cc
	cc cc		 mov	 DWORD PTR [ebp-4], -858993460 ; ccccccccH
  02e1c	89 4d fc	 mov	 DWORD PTR _this$[ebp], ecx

; 623  : 	if (m_vScrollTimer == nIDEvent)

  02e1f	8b 45 fc	 mov	 eax, DWORD PTR _this$[ebp]
  02e22	8b 88 ec 00 00
	00		 mov	 ecx, DWORD PTR [eax+236]
  02e28	3b 4d 08	 cmp	 ecx, DWORD PTR _nIDEvent$[ebp]
  02e2b	75 78		 jne	 SHORT $L190281

; 624  : 	{
; 625  : 		m_csLockV.Lock();

  02e2d	8b 4d fc	 mov	 ecx, DWORD PTR _this$[ebp]
  02e30	81 c1 b4 00 00
	00		 add	 ecx, 180		; 000000b4H
  02e36	e8 00 00 00 00	 call	 ?Lock@CCriticalSection@@QAEHXZ ; CCriticalSection::Lock

; 626  : 		if(m_vPtQueue.size()>0)

  02e3b	8b 4d fc	 mov	 ecx, DWORD PTR _this$[ebp]
  02e3e	81 c1 d8 00 00
	00		 add	 ecx, 216		; 000000d8H
  02e44	e8 00 00 00 00	 call	 ?size@?$deque@VCPoint@@V?$allocator@VCPoint@@@std@@@std@@QBEIXZ ; std::deque<CPoint,std::allocator<CPoint> >::size
  02e49	85 c0		 test	 eax, eax
  02e4b	76 3a		 jbe	 SHORT $L190282

; 627  : 		{
; 628  : 			m_ptClientStart = m_vPtQueue.front();

  02e4d	8b 4d fc	 mov	 ecx, DWORD PTR _this$[ebp]
  02e50	81 c1 d8 00 00
	00		 add	 ecx, 216		; 000000d8H
  02e56	e8 00 00 00 00	 call	 ?front@?$deque@VCPoint@@V?$allocator@VCPoint@@@std@@@std@@QAEAAVCPoint@@XZ ; std::deque<CPoint,std::allocator<CPoint> >::front
  02e5b	8b 10		 mov	 edx, DWORD PTR [eax]
  02e5d	8b 40 04	 mov	 eax, DWORD PTR [eax+4]
  02e60	8b 4d fc	 mov	 ecx, DWORD PTR _this$[ebp]
  02e63	89 91 ac 00 00
	00		 mov	 DWORD PTR [ecx+172], edx
  02e69	89 81 b0 00 00
	00		 mov	 DWORD PTR [ecx+176], eax

; 629  : 			m_vPtQueue.pop_front();

  02e6f	8b 4d fc	 mov	 ecx, DWORD PTR _this$[ebp]
  02e72	81 c1 d8 00 00
	00		 add	 ecx, 216		; 000000d8H
  02e78	e8 00 00 00 00	 call	 ?pop_front@?$deque@VCPoint@@V?$allocator@VCPoint@@@std@@@std@@QAEXXZ ; std::deque<CPoint,std::allocator<CPoint> >::pop_front

; 630  : 			OnMemoryDraw();

  02e7d	6a 01		 push	 1
  02e7f	8b 4d fc	 mov	 ecx, DWORD PTR _this$[ebp]
  02e82	e8 00 00 00 00	 call	 ?OnMemoryDraw@CLocalMusicCoverList@@IAEXH@Z ; CLocalMusicCoverList::OnMemoryDraw
$L190282:

; 631  : 		}
; 632  : 		m_csLockV.Unlock();

  02e87	8b 4d fc	 mov	 ecx, DWORD PTR _this$[ebp]
  02e8a	81 c1 b4 00 00
	00		 add	 ecx, 180		; 000000b4H
  02e90	8b 55 fc	 mov	 edx, DWORD PTR _this$[ebp]
  02e93	8b 82 b4 00 00
	00		 mov	 eax, DWORD PTR [edx+180]
  02e99	8b f4		 mov	 esi, esp
  02e9b	ff 50 1c	 call	 DWORD PTR [eax+28]
  02e9e	3b f4		 cmp	 esi, esp
  02ea0	e8 00 00 00 00	 call	 __RTC_CheckEsp
$L190281:

; 633  : 	}
; 634  : 	if (m_vScrDownTimer == nIDEvent)

  02ea5	8b 4d fc	 mov	 ecx, DWORD PTR _this$[ebp]
  02ea8	8b 91 40 01 00
	00		 mov	 edx, DWORD PTR [ecx+320]
  02eae	3b 55 08	 cmp	 edx, DWORD PTR _nIDEvent$[ebp]
  02eb1	75 0a		 jne	 SHORT $L190283

; 635  : 	{
; 636  : 		MoveVWnd(FALSE);

  02eb3	6a 00		 push	 0
  02eb5	8b 4d fc	 mov	 ecx, DWORD PTR _this$[ebp]
  02eb8	e8 00 00 00 00	 call	 ?MoveVWnd@CLocalMusicCoverList@@IAEXH@Z ; CLocalMusicCoverList::MoveVWnd
$L190283:

; 637  : 	}
; 638  : 	if (m_vScrUpTimer == nIDEvent)

  02ebd	8b 45 fc	 mov	 eax, DWORD PTR _this$[ebp]
  02ec0	8b 88 44 01 00
	00		 mov	 ecx, DWORD PTR [eax+324]
  02ec6	3b 4d 08	 cmp	 ecx, DWORD PTR _nIDEvent$[ebp]
  02ec9	75 0a		 jne	 SHORT $L190284

; 639  : 	{
; 640  : 		MoveVWnd(TRUE);

  02ecb	6a 01		 push	 1
  02ecd	8b 4d fc	 mov	 ecx, DWORD PTR _this$[ebp]
  02ed0	e8 00 00 00 00	 call	 ?MoveVWnd@CLocalMusicCoverList@@IAEXH@Z ; CLocalMusicCoverList::MoveVWnd
$L190284:

; 641  : 	}
; 642  : 
; 643  : 	CWnd::OnTimer(nIDEvent);

  02ed5	8b 55 08	 mov	 edx, DWORD PTR _nIDEvent$[ebp]
  02ed8	52		 push	 edx
  02ed9	8b 4d fc	 mov	 ecx, DWORD PTR _this$[ebp]
  02edc	e8 00 00 00 00	 call	 ?OnTimer@CWnd@@IAEXI@Z	; CWnd::OnTimer

; 644  : }

  02ee1	5e		 pop	 esi
  02ee2	83 c4 04	 add	 esp, 4
  02ee5	3b ec		 cmp	 ebp, esp
  02ee7	e8 00 00 00 00	 call	 __RTC_CheckEsp
  02eec	8b e5		 mov	 esp, ebp
  02eee	5d		 pop	 ebp
  02eef	c2 04 00	 ret	 4
?OnTimer@CLocalMusicCoverList@@QAEXI@Z ENDP		; CLocalMusicCoverList::OnTimer
_TEXT	ENDS
EXTRN	?OnMouseWheel@CWnd@@IAEHIFVCPoint@@@Z:NEAR	; CWnd::OnMouseWheel
; Function compile flags: /Odt /RTCsu
_TEXT	SEGMENT
_this$ = -4						; size = 4
_nFlags$ = 8						; size = 4
_zDelta$ = 12						; size = 2
_pt$ = 16						; size = 8
?OnMouseWheel@CLocalMusicCoverList@@QAEHIFVCPoint@@@Z PROC NEAR ; CLocalMusicCoverList::OnMouseWheel
; _this$ = ecx

; 647  : {

  02f00	55		 push	 ebp
  02f01	8b ec		 mov	 ebp, esp
  02f03	51		 push	 ecx
  02f04	56		 push	 esi
  02f05	c7 45 fc cc cc
	cc cc		 mov	 DWORD PTR [ebp-4], -858993460 ; ccccccccH
  02f0c	89 4d fc	 mov	 DWORD PTR _this$[ebp], ecx

; 648  : 	if (m_rcRealRect.Height()>m_rect.Height())

  02f0f	8b 4d fc	 mov	 ecx, DWORD PTR _this$[ebp]
  02f12	81 c1 9c 00 00
	00		 add	 ecx, 156		; 0000009cH
  02f18	e8 00 00 00 00	 call	 ?Height@CRect@@QBEHXZ	; CRect::Height
  02f1d	8b f0		 mov	 esi, eax
  02f1f	8b 4d fc	 mov	 ecx, DWORD PTR _this$[ebp]
  02f22	81 c1 8c 00 00
	00		 add	 ecx, 140		; 0000008cH
  02f28	e8 00 00 00 00	 call	 ?Height@CRect@@QBEHXZ	; CRect::Height
  02f2d	3b f0		 cmp	 esi, eax
  02f2f	7e 1e		 jle	 SHORT $L190291

; 649  : 	{
; 650  : 		if(zDelta<0)

  02f31	0f bf 45 0c	 movsx	 eax, WORD PTR _zDelta$[ebp]
  02f35	85 c0		 test	 eax, eax
  02f37	7d 0c		 jge	 SHORT $L190292

; 651  : 			MoveVWnd(FALSE);

  02f39	6a 00		 push	 0
  02f3b	8b 4d fc	 mov	 ecx, DWORD PTR _this$[ebp]
  02f3e	e8 00 00 00 00	 call	 ?MoveVWnd@CLocalMusicCoverList@@IAEXH@Z ; CLocalMusicCoverList::MoveVWnd

; 652  : 		else

  02f43	eb 0a		 jmp	 SHORT $L190291
$L190292:

; 653  : 			MoveVWnd(TRUE);

  02f45	6a 01		 push	 1
  02f47	8b 4d fc	 mov	 ecx, DWORD PTR _this$[ebp]
  02f4a	e8 00 00 00 00	 call	 ?MoveVWnd@CLocalMusicCoverList@@IAEXH@Z ; CLocalMusicCoverList::MoveVWnd
$L190291:

; 654  : 	}
; 655  : 	
; 656  : 	return CWnd::OnMouseWheel(nFlags, zDelta, pt);

  02f4f	8b 4d 14	 mov	 ecx, DWORD PTR _pt$[ebp+4]
  02f52	51		 push	 ecx
  02f53	8b 55 10	 mov	 edx, DWORD PTR _pt$[ebp]
  02f56	52		 push	 edx
  02f57	66 8b 45 0c	 mov	 ax, WORD PTR _zDelta$[ebp]
  02f5b	50		 push	 eax
  02f5c	8b 4d 08	 mov	 ecx, DWORD PTR _nFlags$[ebp]
  02f5f	51		 push	 ecx
  02f60	8b 4d fc	 mov	 ecx, DWORD PTR _this$[ebp]
  02f63	e8 00 00 00 00	 call	 ?OnMouseWheel@CWnd@@IAEHIFVCPoint@@@Z ; CWnd::OnMouseWheel

; 657  : }

  02f68	5e		 pop	 esi
  02f69	83 c4 04	 add	 esp, 4
  02f6c	3b ec		 cmp	 ebp, esp
  02f6e	e8 00 00 00 00	 call	 __RTC_CheckEsp
  02f73	8b e5		 mov	 esp, ebp
  02f75	5d		 pop	 ebp
  02f76	c2 10 00	 ret	 16			; 00000010H
?OnMouseWheel@CLocalMusicCoverList@@QAEHIFVCPoint@@@Z ENDP ; CLocalMusicCoverList::OnMouseWheel
; Function compile flags: /Odt /RTCsu
_pt$ = -16						; size = 8
_this$ = -4						; size = 4
_wParam$ = 8						; size = 4
_lParam$ = 12						; size = 4
?OnTrackerChange@CLocalMusicCoverList@@QAEJIJ@Z PROC NEAR ; CLocalMusicCoverList::OnTrackerChange
; _this$ = ecx

; 660  : {

  02f80	55		 push	 ebp
  02f81	8b ec		 mov	 ebp, esp
  02f83	83 ec 14	 sub	 esp, 20			; 00000014H
  02f86	56		 push	 esi
  02f87	b8 cc cc cc cc	 mov	 eax, -858993460		; ccccccccH
  02f8c	89 45 ec	 mov	 DWORD PTR [ebp-20], eax
  02f8f	89 45 f0	 mov	 DWORD PTR [ebp-16], eax
  02f92	89 45 f4	 mov	 DWORD PTR [ebp-12], eax
  02f95	89 45 f8	 mov	 DWORD PTR [ebp-8], eax
  02f98	89 45 fc	 mov	 DWORD PTR [ebp-4], eax
  02f9b	89 4d fc	 mov	 DWORD PTR _this$[ebp], ecx

; 661  : 	CPoint pt;

  02f9e	8d 4d f0	 lea	 ecx, DWORD PTR _pt$[ebp]
  02fa1	e8 00 00 00 00	 call	 ??0CPoint@@QAE@XZ	; CPoint::CPoint

; 662  : 	GetCursorPos(&pt);

  02fa6	8b f4		 mov	 esi, esp
  02fa8	8d 45 f0	 lea	 eax, DWORD PTR _pt$[ebp]
  02fab	50		 push	 eax
  02fac	ff 15 00 00 00
	00		 call	 DWORD PTR __imp__GetCursorPos@4
  02fb2	3b f4		 cmp	 esi, esp
  02fb4	e8 00 00 00 00	 call	 __RTC_CheckEsp

; 663  : 	ScreenToClient(&pt);

  02fb9	8d 4d f0	 lea	 ecx, DWORD PTR _pt$[ebp]
  02fbc	51		 push	 ecx
  02fbd	8b 4d fc	 mov	 ecx, DWORD PTR _this$[ebp]
  02fc0	e8 00 00 00 00	 call	 ?ScreenToClient@CWnd@@QBEXPAUtagPOINT@@@Z ; CWnd::ScreenToClient

; 664  : 	if (pt.y>0 && pt.y<10)

  02fc5	83 7d f4 00	 cmp	 DWORD PTR _pt$[ebp+4], 0
  02fc9	7e 12		 jle	 SHORT $L190300
  02fcb	83 7d f4 0a	 cmp	 DWORD PTR _pt$[ebp+4], 10 ; 0000000aH
  02fcf	7d 0c		 jge	 SHORT $L190300

; 665  : 	{
; 666  : 		MoveVWnd(TRUE);

  02fd1	6a 01		 push	 1
  02fd3	8b 4d fc	 mov	 ecx, DWORD PTR _this$[ebp]
  02fd6	e8 00 00 00 00	 call	 ?MoveVWnd@CLocalMusicCoverList@@IAEXH@Z ; CLocalMusicCoverList::MoveVWnd

; 667  : 	}
; 668  : 	else if (pt.y>m_rect.bottom-10 && pt.y<m_rect.bottom)

  02fdb	eb 29		 jmp	 SHORT $L190301
$L190300:
  02fdd	8b 55 fc	 mov	 edx, DWORD PTR _this$[ebp]
  02fe0	8b 82 98 00 00
	00		 mov	 eax, DWORD PTR [edx+152]
  02fe6	83 e8 0a	 sub	 eax, 10			; 0000000aH
  02fe9	39 45 f4	 cmp	 DWORD PTR _pt$[ebp+4], eax
  02fec	7e 18		 jle	 SHORT $L190301
  02fee	8b 4d fc	 mov	 ecx, DWORD PTR _this$[ebp]
  02ff1	8b 55 f4	 mov	 edx, DWORD PTR _pt$[ebp+4]
  02ff4	3b 91 98 00 00
	00		 cmp	 edx, DWORD PTR [ecx+152]
  02ffa	7d 0a		 jge	 SHORT $L190301

; 669  : 	{
; 670  : 		MoveVWnd(FALSE);	

  02ffc	6a 00		 push	 0
  02ffe	8b 4d fc	 mov	 ecx, DWORD PTR _this$[ebp]
  03001	e8 00 00 00 00	 call	 ?MoveVWnd@CLocalMusicCoverList@@IAEXH@Z ; CLocalMusicCoverList::MoveVWnd
$L190301:

; 671  : 	}
; 672  : 	return 0;

  03006	33 c0		 xor	 eax, eax

; 673  : }

  03008	52		 push	 edx
  03009	8b cd		 mov	 ecx, ebp
  0300b	50		 push	 eax
  0300c	8d 15 00 00 00
	00		 lea	 edx, DWORD PTR $L192763
  03012	e8 00 00 00 00	 call	 @_RTC_CheckStackVars@8
  03017	58		 pop	 eax
  03018	5a		 pop	 edx
  03019	5e		 pop	 esi
  0301a	83 c4 14	 add	 esp, 20			; 00000014H
  0301d	3b ec		 cmp	 ebp, esp
  0301f	e8 00 00 00 00	 call	 __RTC_CheckEsp
  03024	8b e5		 mov	 esp, ebp
  03026	5d		 pop	 ebp
  03027	c2 08 00	 ret	 8
$L192763:
  0302a	01 00 00 00	 DD	 1
  0302e	00 00 00 00	 DD	 $L192762
$L192762:
  03032	f0 ff ff ff	 DD	 -16			; fffffff0H
  03036	08 00 00 00	 DD	 8
  0303a	00 00 00 00	 DD	 $L192761
$L192761:
  0303e	70		 DB	 112			; 00000070H
  0303f	74		 DB	 116			; 00000074H
  03040	00		 DB	 0
?OnTrackerChange@CLocalMusicCoverList@@QAEJIJ@Z ENDP	; CLocalMusicCoverList::OnTrackerChange
_TEXT	ENDS
EXTRN	?OnMouseMove@CWnd@@IAEXIVCPoint@@@Z:NEAR	; CWnd::OnMouseMove
EXTRN	?KillTimer@CWnd@@QAEHI@Z:NEAR			; CWnd::KillTimer
;	COMDAT ?g_idrag@?P@??OnMouseMove@CLocalMusicCoverList@@QAEXIVCPoint@@@Z@4JA
_BSS	SEGMENT
?g_idrag@?P@??OnMouseMove@CLocalMusicCoverList@@QAEXIVCPoint@@@Z@4JA DD 01H DUP (?) ; `CLocalMusicCoverList::OnMouseMove'::`15'::g_idrag
; Function compile flags: /Odt /RTCsu
_BSS	ENDS
_TEXT	SEGMENT
_iItem$190317 = -12					; size = 4
_this$ = -4						; size = 4
_nFlags$ = 8						; size = 4
_point$ = 12						; size = 8
?OnMouseMove@CLocalMusicCoverList@@QAEXIVCPoint@@@Z PROC NEAR ; CLocalMusicCoverList::OnMouseMove
; _this$ = ecx

; 676  : {

  03050	55		 push	 ebp
  03051	8b ec		 mov	 ebp, esp
  03053	83 ec 10	 sub	 esp, 16			; 00000010H
  03056	56		 push	 esi
  03057	b8 cc cc cc cc	 mov	 eax, -858993460		; ccccccccH
  0305c	89 45 f0	 mov	 DWORD PTR [ebp-16], eax
  0305f	89 45 f4	 mov	 DWORD PTR [ebp-12], eax
  03062	89 45 f8	 mov	 DWORD PTR [ebp-8], eax
  03065	89 45 fc	 mov	 DWORD PTR [ebp-4], eax
  03068	89 4d fc	 mov	 DWORD PTR _this$[ebp], ecx

; 677  : 	/*SetFocus();*/
; 678  : 	if (m_rcRealRect.Height()>m_rect.Height() && m_rcTracker.bottom>m_rect.bottom && point.y>m_rect.bottom)

  0306b	8b 4d fc	 mov	 ecx, DWORD PTR _this$[ebp]
  0306e	81 c1 9c 00 00
	00		 add	 ecx, 156		; 0000009cH
  03074	e8 00 00 00 00	 call	 ?Height@CRect@@QBEHXZ	; CRect::Height
  03079	8b f0		 mov	 esi, eax
  0307b	8b 4d fc	 mov	 ecx, DWORD PTR _this$[ebp]
  0307e	81 c1 8c 00 00
	00		 add	 ecx, 140		; 0000008cH
  03084	e8 00 00 00 00	 call	 ?Height@CRect@@QBEHXZ	; CRect::Height
  03089	3b f0		 cmp	 esi, eax
  0308b	7e 31		 jle	 SHORT $L190308
  0308d	8b 45 fc	 mov	 eax, DWORD PTR _this$[ebp]
  03090	8b 4d fc	 mov	 ecx, DWORD PTR _this$[ebp]
  03093	8b 90 38 01 00
	00		 mov	 edx, DWORD PTR [eax+312]
  03099	3b 91 98 00 00
	00		 cmp	 edx, DWORD PTR [ecx+152]
  0309f	7e 1d		 jle	 SHORT $L190308
  030a1	8b 45 fc	 mov	 eax, DWORD PTR _this$[ebp]
  030a4	8b 4d 10	 mov	 ecx, DWORD PTR _point$[ebp+4]
  030a7	3b 88 98 00 00
	00		 cmp	 ecx, DWORD PTR [eax+152]
  030ad	7e 0f		 jle	 SHORT $L190308

; 679  : 	{
; 680  : 		MoveVWnd(FALSE);

  030af	6a 00		 push	 0
  030b1	8b 4d fc	 mov	 ecx, DWORD PTR _this$[ebp]
  030b4	e8 00 00 00 00	 call	 ?MoveVWnd@CLocalMusicCoverList@@IAEXH@Z ; CLocalMusicCoverList::MoveVWnd

; 681  : 		// 		if (m_blTracker)
; 682  : 		// 			m_vScrDownTimer = SetTimer(101,1,NULL);
; 683  : 		return;

  030b9	e9 2e 01 00 00	 jmp	 $L190307
$L190308:

; 684  : 	}
; 685  : 	else
; 686  : 	{
; 687  : 		KillTimer(m_vScrDownTimer);

  030be	8b 55 fc	 mov	 edx, DWORD PTR _this$[ebp]
  030c1	8b 82 40 01 00
	00		 mov	 eax, DWORD PTR [edx+320]
  030c7	50		 push	 eax
  030c8	8b 4d fc	 mov	 ecx, DWORD PTR _this$[ebp]
  030cb	e8 00 00 00 00	 call	 ?KillTimer@CWnd@@QAEHI@Z ; CWnd::KillTimer

; 688  : 	}
; 689  : 
; 690  : 	if (m_rcRealRect.Height()>m_rect.Height() &&m_rcTracker.top<m_rect.top&&point.y<m_rect.top)

  030d0	8b 4d fc	 mov	 ecx, DWORD PTR _this$[ebp]
  030d3	81 c1 9c 00 00
	00		 add	 ecx, 156		; 0000009cH
  030d9	e8 00 00 00 00	 call	 ?Height@CRect@@QBEHXZ	; CRect::Height
  030de	8b f0		 mov	 esi, eax
  030e0	8b 4d fc	 mov	 ecx, DWORD PTR _this$[ebp]
  030e3	81 c1 8c 00 00
	00		 add	 ecx, 140		; 0000008cH
  030e9	e8 00 00 00 00	 call	 ?Height@CRect@@QBEHXZ	; CRect::Height
  030ee	3b f0		 cmp	 esi, eax
  030f0	7e 31		 jle	 SHORT $L190310
  030f2	8b 4d fc	 mov	 ecx, DWORD PTR _this$[ebp]
  030f5	8b 55 fc	 mov	 edx, DWORD PTR _this$[ebp]
  030f8	8b 81 30 01 00
	00		 mov	 eax, DWORD PTR [ecx+304]
  030fe	3b 82 90 00 00
	00		 cmp	 eax, DWORD PTR [edx+144]
  03104	7d 1d		 jge	 SHORT $L190310
  03106	8b 4d fc	 mov	 ecx, DWORD PTR _this$[ebp]
  03109	8b 55 10	 mov	 edx, DWORD PTR _point$[ebp+4]
  0310c	3b 91 90 00 00
	00		 cmp	 edx, DWORD PTR [ecx+144]
  03112	7d 0f		 jge	 SHORT $L190310

; 691  : 	{
; 692  : 		MoveVWnd(TRUE);

  03114	6a 01		 push	 1
  03116	8b 4d fc	 mov	 ecx, DWORD PTR _this$[ebp]
  03119	e8 00 00 00 00	 call	 ?MoveVWnd@CLocalMusicCoverList@@IAEXH@Z ; CLocalMusicCoverList::MoveVWnd

; 693  : 		// 		if (m_blTracker)
; 694  : 		// 			m_vScrUpTimer = SetTimer(102,1,NULL);
; 695  : 		return;

  0311e	e9 c9 00 00 00	 jmp	 $L190307
$L190310:

; 696  : 	}
; 697  : 	else
; 698  : 	{
; 699  : 		KillTimer(m_vScrUpTimer);

  03123	8b 45 fc	 mov	 eax, DWORD PTR _this$[ebp]
  03126	8b 88 44 01 00
	00		 mov	 ecx, DWORD PTR [eax+324]
  0312c	51		 push	 ecx
  0312d	8b 4d fc	 mov	 ecx, DWORD PTR _this$[ebp]
  03130	e8 00 00 00 00	 call	 ?KillTimer@CWnd@@QAEHI@Z ; CWnd::KillTimer

; 700  : 	}
; 701  : 	if (m_blTracker)

  03135	8b 55 fc	 mov	 edx, DWORD PTR _this$[ebp]
  03138	83 ba 68 01 00
	00 00		 cmp	 DWORD PTR [edx+360], 0
  0313f	74 2e		 je	 SHORT $L190312

; 702  : 	{
; 703  : 		static long g_idrag=0;
; 704  : 		g_idrag++;

  03141	a1 00 00 00 00	 mov	 eax, DWORD PTR ?g_idrag@?P@??OnMouseMove@CLocalMusicCoverList@@QAEXIVCPoint@@@Z@4JA
  03146	83 c0 01	 add	 eax, 1
  03149	a3 00 00 00 00	 mov	 DWORD PTR ?g_idrag@?P@??OnMouseMove@CLocalMusicCoverList@@QAEXIVCPoint@@@Z@4JA, eax

; 705  : 		if (g_idrag%2==0)

  0314e	8b 0d 00 00 00
	00		 mov	 ecx, DWORD PTR ?g_idrag@?P@??OnMouseMove@CLocalMusicCoverList@@QAEXIVCPoint@@@Z@4JA
  03154	81 e1 01 00 00
	80		 and	 ecx, -2147483647	; 80000001H
  0315a	79 05		 jns	 SHORT $L192768
  0315c	49		 dec	 ecx
  0315d	83 c9 fe	 or	 ecx, -2			; fffffffeH
  03160	41		 inc	 ecx
$L192768:
  03161	85 c9		 test	 ecx, ecx
  03163	75 0a		 jne	 SHORT $L190312

; 706  : 			OnMemoryDraw();

  03165	6a 01		 push	 1
  03167	8b 4d fc	 mov	 ecx, DWORD PTR _this$[ebp]
  0316a	e8 00 00 00 00	 call	 ?OnMemoryDraw@CLocalMusicCoverList@@IAEXH@Z ; CLocalMusicCoverList::OnMemoryDraw
$L190312:

; 707  : 	}
; 708  : 	// 
; 709  : 	if ((nFlags&MK_LBUTTON) && m_blIsJudgeDrag)

  0316f	8b 55 08	 mov	 edx, DWORD PTR _nFlags$[ebp]
  03172	83 e2 01	 and	 edx, 1
  03175	74 3e		 je	 SHORT $L190316
  03177	8b 45 fc	 mov	 eax, DWORD PTR _this$[ebp]
  0317a	83 b8 48 01 00
	00 00		 cmp	 DWORD PTR [eax+328], 0
  03181	74 32		 je	 SHORT $L190316

; 710  : 	{
; 711  : 		int iItem;
; 712  : 		if (HitTest(iItem,point))

  03183	8b 4d 10	 mov	 ecx, DWORD PTR _point$[ebp+4]
  03186	51		 push	 ecx
  03187	8b 55 0c	 mov	 edx, DWORD PTR _point$[ebp]
  0318a	52		 push	 edx
  0318b	8d 45 f4	 lea	 eax, DWORD PTR _iItem$190317[ebp]
  0318e	50		 push	 eax
  0318f	8b 4d fc	 mov	 ecx, DWORD PTR _this$[ebp]
  03192	e8 00 00 00 00	 call	 ?HitTest@CLocalMusicCoverList@@IAEHAAHVCPoint@@@Z ; CLocalMusicCoverList::HitTest
  03197	85 c0		 test	 eax, eax
  03199	74 1a		 je	 SHORT $L190316

; 713  : 		{
; 714  : 			m_blIsJudgeDrag = FALSE;

  0319b	8b 4d fc	 mov	 ecx, DWORD PTR _this$[ebp]
  0319e	c7 81 48 01 00
	00 00 00 00 00	 mov	 DWORD PTR [ecx+328], 0

; 715  : 			m_blDrag = TRUE;

  031a8	8b 55 fc	 mov	 edx, DWORD PTR _this$[ebp]
  031ab	c7 82 7c 01 00
	00 01 00 00 00	 mov	 DWORD PTR [edx+380], 1
$L190316:

; 716  : 		}
; 717  : 	}
; 718  : 	if (m_blDrag)

  031b5	8b 45 fc	 mov	 eax, DWORD PTR _this$[ebp]
  031b8	83 b8 7c 01 00
	00 00		 cmp	 DWORD PTR [eax+380], 0
  031bf	74 17		 je	 SHORT $L190319

; 719  : 	{
; 720  : 		OnMoveDraging();

  031c1	8b 4d fc	 mov	 ecx, DWORD PTR _this$[ebp]
  031c4	8b 11		 mov	 edx, DWORD PTR [ecx]
  031c6	8b f4		 mov	 esi, esp
  031c8	8b 4d fc	 mov	 ecx, DWORD PTR _this$[ebp]
  031cb	ff 92 38 01 00
	00		 call	 DWORD PTR [edx+312]
  031d1	3b f4		 cmp	 esi, esp
  031d3	e8 00 00 00 00	 call	 __RTC_CheckEsp
$L190319:

; 721  : 	}
; 722  : 	CWnd::OnMouseMove(nFlags, point);

  031d8	8b 45 10	 mov	 eax, DWORD PTR _point$[ebp+4]
  031db	50		 push	 eax
  031dc	8b 4d 0c	 mov	 ecx, DWORD PTR _point$[ebp]
  031df	51		 push	 ecx
  031e0	8b 55 08	 mov	 edx, DWORD PTR _nFlags$[ebp]
  031e3	52		 push	 edx
  031e4	8b 4d fc	 mov	 ecx, DWORD PTR _this$[ebp]
  031e7	e8 00 00 00 00	 call	 ?OnMouseMove@CWnd@@IAEXIVCPoint@@@Z ; CWnd::OnMouseMove
$L190307:

; 723  : }

  031ec	52		 push	 edx
  031ed	8b cd		 mov	 ecx, ebp
  031ef	50		 push	 eax
  031f0	8d 15 00 00 00
	00		 lea	 edx, DWORD PTR $L192767
  031f6	e8 00 00 00 00	 call	 @_RTC_CheckStackVars@8
  031fb	58		 pop	 eax
  031fc	5a		 pop	 edx
  031fd	5e		 pop	 esi
  031fe	83 c4 10	 add	 esp, 16			; 00000010H
  03201	3b ec		 cmp	 ebp, esp
  03203	e8 00 00 00 00	 call	 __RTC_CheckEsp
  03208	8b e5		 mov	 esp, ebp
  0320a	5d		 pop	 ebp
  0320b	c2 0c 00	 ret	 12			; 0000000cH
$L192767:
  0320e	01 00 00 00	 DD	 1
  03212	00 00 00 00	 DD	 $L192766
$L192766:
  03216	f4 ff ff ff	 DD	 -12			; fffffff4H
  0321a	04 00 00 00	 DD	 4
  0321e	00 00 00 00	 DD	 $L192765
$L192765:
  03222	69		 DB	 105			; 00000069H
  03223	49		 DB	 73			; 00000049H
  03224	74		 DB	 116			; 00000074H
  03225	65		 DB	 101			; 00000065H
  03226	6d		 DB	 109			; 0000006dH
  03227	00		 DB	 0
?OnMouseMove@CLocalMusicCoverList@@QAEXIVCPoint@@@Z ENDP ; CLocalMusicCoverList::OnMouseMove
; Function compile flags: /Odt /RTCsu
_this$ = -4						; size = 4
?OnMoveDraging@CLocalMusicCoverList@@UAEXXZ PROC NEAR	; CLocalMusicCoverList::OnMoveDraging
; _this$ = ecx

; 726  : {

  03230	55		 push	 ebp
  03231	8b ec		 mov	 ebp, esp
  03233	51		 push	 ecx
  03234	c7 45 fc cc cc
	cc cc		 mov	 DWORD PTR [ebp-4], -858993460 ; ccccccccH
  0323b	89 4d fc	 mov	 DWORD PTR _this$[ebp], ecx

; 727  : 
; 728  : }

  0323e	8b e5		 mov	 esp, ebp
  03240	5d		 pop	 ebp
  03241	c3		 ret	 0
?OnMoveDraging@CLocalMusicCoverList@@UAEXXZ ENDP	; CLocalMusicCoverList::OnMoveDraging
; Function compile flags: /Odt /RTCsu
_this$ = -4						; size = 4
?OnEndDrag@CLocalMusicCoverList@@UAEXXZ PROC NEAR	; CLocalMusicCoverList::OnEndDrag
; _this$ = ecx

; 731  : {

  03250	55		 push	 ebp
  03251	8b ec		 mov	 ebp, esp
  03253	51		 push	 ecx
  03254	c7 45 fc cc cc
	cc cc		 mov	 DWORD PTR [ebp-4], -858993460 ; ccccccccH
  0325b	89 4d fc	 mov	 DWORD PTR _this$[ebp], ecx

; 732  : 
; 733  : }

  0325e	8b e5		 mov	 esp, ebp
  03260	5d		 pop	 ebp
  03261	c3		 ret	 0
?OnEndDrag@CLocalMusicCoverList@@UAEXXZ ENDP		; CLocalMusicCoverList::OnEndDrag
_TEXT	ENDS
PUBLIC	?begin@?$vector@HV?$allocator@H@std@@@std@@QAE?AViterator@12@XZ ; std::vector<int,std::allocator<int> >::begin
PUBLIC	?end@?$vector@HV?$allocator@H@std@@@std@@QAE?AViterator@12@XZ ; std::vector<int,std::allocator<int> >::end
PUBLIC	??9const_iterator@?$vector@HV?$allocator@H@std@@@std@@QBE_NABV012@@Z ; std::vector<int,std::allocator<int> >::const_iterator::operator!=
PUBLIC	??$find@Viterator@?$vector@HV?$allocator@H@std@@@std@@H@std@@YA?AViterator@?$vector@HV?$allocator@H@std@@@0@V120@0ABH@Z ; std::find<std::vector<int,std::allocator<int> >::iterator,int>
EXTRN	?OnLButtonDown@CWnd@@IAEXIVCPoint@@@Z:NEAR	; CWnd::OnLButtonDown
EXTRN	?SetCapture@CWnd@@QAEPAV1@XZ:NEAR		; CWnd::SetCapture
EXTRN	?SetFocus@CWnd@@QAEPAV1@XZ:NEAR			; CWnd::SetFocus
xdata$x	SEGMENT
$T192791 DD	0ffffffffH
	DD	FLAT:$L192780
$T192782 DD	019930520H
	DD	01H
	DD	FLAT:$T192791
	DD	2 DUP(00H)
	DD	2 DUP(00H)
; Function compile flags: /Odt /RTCsu
xdata$x	ENDS
_TEXT	SEGMENT
tv169 = -120						; size = 4
$T192777 = -116						; size = 4
$T192776 = -112						; size = 4
$T192775 = -108						; size = 4
$T192774 = -104						; size = 4
$T192773 = -100						; size = 4
_itend$190471 = -92					; size = 4
_it$190469 = -80					; size = 4
_pt$190467 = -68					; size = 8
_vSel$190337 = -52					; size = 16
_blsel$190334 = -32					; size = 4
_iIndex$ = -24						; size = 4
_this$ = -16						; size = 4
__$EHRec$ = -12						; size = 12
_nFlags$ = 8						; size = 4
_point$ = 12						; size = 8
?OnLButtonDown@CLocalMusicCoverList@@QAEXIVCPoint@@@Z PROC NEAR ; CLocalMusicCoverList::OnLButtonDown
; _this$ = ecx

; 736  : {

  03270	55		 push	 ebp
  03271	8b ec		 mov	 ebp, esp
  03273	6a ff		 push	 -1
  03275	68 00 00 00 00	 push	 __ehhandler$?OnLButtonDown@CLocalMusicCoverList@@QAEXIVCPoint@@@Z
  0327a	64 a1 00 00 00
	00		 mov	 eax, DWORD PTR fs:__except_list
  03280	50		 push	 eax
  03281	64 89 25 00 00
	00 00		 mov	 DWORD PTR fs:__except_list, esp
  03288	83 ec 6c	 sub	 esp, 108		; 0000006cH
  0328b	53		 push	 ebx
  0328c	57		 push	 edi
  0328d	51		 push	 ecx
  0328e	8d 7d 88	 lea	 edi, DWORD PTR [ebp-120]
  03291	b9 1b 00 00 00	 mov	 ecx, 27			; 0000001bH
  03296	b8 cc cc cc cc	 mov	 eax, -858993460		; ccccccccH
  0329b	f3 ab		 rep stosd
  0329d	59		 pop	 ecx
  0329e	89 4d f0	 mov	 DWORD PTR _this$[ebp], ecx

; 737  : 	SetFocus();

  032a1	8b 4d f0	 mov	 ecx, DWORD PTR _this$[ebp]
  032a4	e8 00 00 00 00	 call	 ?SetFocus@CWnd@@QAEPAV1@XZ ; CWnd::SetFocus

; 738  : 	int iIndex;
; 739  : 	if (HitTest(iIndex,point))

  032a9	8b 45 10	 mov	 eax, DWORD PTR _point$[ebp+4]
  032ac	50		 push	 eax
  032ad	8b 4d 0c	 mov	 ecx, DWORD PTR _point$[ebp]
  032b0	51		 push	 ecx
  032b1	8d 55 e8	 lea	 edx, DWORD PTR _iIndex$[ebp]
  032b4	52		 push	 edx
  032b5	8b 4d f0	 mov	 ecx, DWORD PTR _this$[ebp]
  032b8	e8 00 00 00 00	 call	 ?HitTest@CLocalMusicCoverList@@IAEHAAHVCPoint@@@Z ; CLocalMusicCoverList::HitTest
  032bd	85 c0		 test	 eax, eax
  032bf	0f 84 62 01 00
	00		 je	 $L190332

; 740  : 	{// 
; 741  : 		m_blIsJudgeDrag = TRUE;

  032c5	8b 45 f0	 mov	 eax, DWORD PTR _this$[ebp]
  032c8	c7 80 48 01 00
	00 01 00 00 00	 mov	 DWORD PTR [eax+328], 1

; 742  : 		if (nFlags & MK_CONTROL)

  032d2	8b 4d 08	 mov	 ecx, DWORD PTR _nFlags$[ebp]
  032d5	83 e1 08	 and	 ecx, 8
  032d8	74 48		 je	 SHORT $L190333

; 743  : 		{
; 744  : 			BOOL blsel = m_DataMgr.m_vItem[iIndex].blSel;

  032da	8b 55 e8	 mov	 edx, DWORD PTR _iIndex$[ebp]
  032dd	52		 push	 edx
  032de	8b 4d f0	 mov	 ecx, DWORD PTR _this$[ebp]
  032e1	81 c1 6c 01 00
	00		 add	 ecx, 364		; 0000016cH
  032e7	e8 00 00 00 00	 call	 ??A?$vector@U_tagLMCItemInfo@@V?$allocator@U_tagLMCItemInfo@@@std@@@std@@QAEAAU_tagLMCItemInfo@@I@Z ; std::vector<_tagLMCItemInfo,std::allocator<_tagLMCItemInfo> >::operator[]
  032ec	8b 40 20	 mov	 eax, DWORD PTR [eax+32]
  032ef	89 45 e0	 mov	 DWORD PTR _blsel$190334[ebp], eax

; 745  : 			m_iPreSel = -1;

  032f2	8b 4d f0	 mov	 ecx, DWORD PTR _this$[ebp]
  032f5	c7 81 00 01 00
	00 ff ff ff ff	 mov	 DWORD PTR [ecx+256], -1

; 746  : 			m_DataMgr.m_vItem[iIndex].blSel = !blsel;

  032ff	33 db		 xor	 ebx, ebx
  03301	83 7d e0 00	 cmp	 DWORD PTR _blsel$190334[ebp], 0
  03305	0f 94 c3	 sete	 bl
  03308	8b 55 e8	 mov	 edx, DWORD PTR _iIndex$[ebp]
  0330b	52		 push	 edx
  0330c	8b 4d f0	 mov	 ecx, DWORD PTR _this$[ebp]
  0330f	81 c1 6c 01 00
	00		 add	 ecx, 364		; 0000016cH
  03315	e8 00 00 00 00	 call	 ??A?$vector@U_tagLMCItemInfo@@V?$allocator@U_tagLMCItemInfo@@@std@@@std@@QAEAAU_tagLMCItemInfo@@I@Z ; std::vector<_tagLMCItemInfo,std::allocator<_tagLMCItemInfo> >::operator[]
  0331a	89 58 20	 mov	 DWORD PTR [eax+32], ebx

; 747  : 		}
; 748  : 		else

  0331d	e9 03 01 00 00	 jmp	 $L190335
$L190333:

; 749  : 		{
; 750  : 			vector<int> vSel = GetSelectItem();

  03322	8d 45 cc	 lea	 eax, DWORD PTR _vSel$190337[ebp]
  03325	50		 push	 eax
  03326	8b 4d f0	 mov	 ecx, DWORD PTR _this$[ebp]
  03329	e8 00 00 00 00	 call	 ?GetSelectItem@CLocalMusicCoverList@@QAE?AV?$vector@HV?$allocator@H@std@@@std@@XZ ; CLocalMusicCoverList::GetSelectItem
  0332e	c7 45 fc 00 00
	00 00		 mov	 DWORD PTR __$EHRec$[ebp+8], 0

; 751  : 			if (find(vSel.begin(),vSel.end(),iIndex)!=vSel.end())

  03335	8d 4d 90	 lea	 ecx, DWORD PTR $T192776[ebp]
  03338	51		 push	 ecx
  03339	8d 4d cc	 lea	 ecx, DWORD PTR _vSel$190337[ebp]
  0333c	e8 00 00 00 00	 call	 ?end@?$vector@HV?$allocator@H@std@@@std@@QAE?AViterator@12@XZ ; std::vector<int,std::allocator<int> >::end
  03341	50		 push	 eax
  03342	8d 55 e8	 lea	 edx, DWORD PTR _iIndex$[ebp]
  03345	52		 push	 edx
  03346	8d 45 9c	 lea	 eax, DWORD PTR $T192773[ebp]
  03349	50		 push	 eax
  0334a	8d 4d cc	 lea	 ecx, DWORD PTR _vSel$190337[ebp]
  0334d	e8 00 00 00 00	 call	 ?end@?$vector@HV?$allocator@H@std@@@std@@QAE?AViterator@12@XZ ; std::vector<int,std::allocator<int> >::end
  03352	8b 08		 mov	 ecx, DWORD PTR [eax]
  03354	51		 push	 ecx
  03355	8d 55 98	 lea	 edx, DWORD PTR $T192774[ebp]
  03358	52		 push	 edx
  03359	8d 4d cc	 lea	 ecx, DWORD PTR _vSel$190337[ebp]
  0335c	e8 00 00 00 00	 call	 ?begin@?$vector@HV?$allocator@H@std@@@std@@QAE?AViterator@12@XZ ; std::vector<int,std::allocator<int> >::begin
  03361	8b 00		 mov	 eax, DWORD PTR [eax]
  03363	50		 push	 eax
  03364	8d 4d 94	 lea	 ecx, DWORD PTR $T192775[ebp]
  03367	51		 push	 ecx
  03368	e8 00 00 00 00	 call	 ??$find@Viterator@?$vector@HV?$allocator@H@std@@@std@@H@std@@YA?AViterator@?$vector@HV?$allocator@H@std@@@0@V120@0ABH@Z ; std::find<std::vector<int,std::allocator<int> >::iterator,int>
  0336d	83 c4 10	 add	 esp, 16			; 00000010H
  03370	8b c8		 mov	 ecx, eax
  03372	e8 00 00 00 00	 call	 ??9const_iterator@?$vector@HV?$allocator@H@std@@@std@@QBE_NABV012@@Z ; std::vector<int,std::allocator<int> >::const_iterator::operator!=
  03377	0f b6 d0	 movzx	 edx, al
  0337a	85 d2		 test	 edx, edx
  0337c	74 11		 je	 SHORT $L190466

; 752  : 			{
; 753  : 				CPoint pt = point;

  0337e	8b 45 0c	 mov	 eax, DWORD PTR _point$[ebp]
  03381	89 45 bc	 mov	 DWORD PTR _pt$190467[ebp], eax
  03384	8b 4d 10	 mov	 ecx, DWORD PTR _point$[ebp+4]
  03387	89 4d c0	 mov	 DWORD PTR _pt$190467[ebp+4], ecx

; 754  : 			}
; 755  : 			else

  0338a	e9 87 00 00 00	 jmp	 $L190468
$L190466:

; 756  : 			{
; 757  : 				CLMCDataMgr::iterLMCItem it = m_DataMgr.m_vItem.begin();

  0338f	8d 55 b0	 lea	 edx, DWORD PTR _it$190469[ebp]
  03392	52		 push	 edx
  03393	8b 4d f0	 mov	 ecx, DWORD PTR _this$[ebp]
  03396	81 c1 6c 01 00
	00		 add	 ecx, 364		; 0000016cH
  0339c	e8 00 00 00 00	 call	 ?begin@?$vector@U_tagLMCItemInfo@@V?$allocator@U_tagLMCItemInfo@@@std@@@std@@QAE?AViterator@12@XZ ; std::vector<_tagLMCItemInfo,std::allocator<_tagLMCItemInfo> >::begin

; 758  : 				CLMCDataMgr::iterLMCItem itend = m_DataMgr.m_vItem.end();

  033a1	8d 45 a4	 lea	 eax, DWORD PTR _itend$190471[ebp]
  033a4	50		 push	 eax
  033a5	8b 4d f0	 mov	 ecx, DWORD PTR _this$[ebp]
  033a8	81 c1 6c 01 00
	00		 add	 ecx, 364		; 0000016cH
  033ae	e8 00 00 00 00	 call	 ?end@?$vector@U_tagLMCItemInfo@@V?$allocator@U_tagLMCItemInfo@@@std@@@std@@QAE?AViterator@12@XZ ; std::vector<_tagLMCItemInfo,std::allocator<_tagLMCItemInfo> >::end

; 759  : 				for (;it!=itend;it++)

  033b3	eb 0e		 jmp	 SHORT $L190474
$L190475:
  033b5	6a 00		 push	 0
  033b7	8d 4d 8c	 lea	 ecx, DWORD PTR $T192777[ebp]
  033ba	51		 push	 ecx
  033bb	8d 4d b0	 lea	 ecx, DWORD PTR _it$190469[ebp]
  033be	e8 00 00 00 00	 call	 ??Eiterator@?$vector@U_tagLMCItemInfo@@V?$allocator@U_tagLMCItemInfo@@@std@@@std@@QAE?AV012@H@Z ; std::vector<_tagLMCItemInfo,std::allocator<_tagLMCItemInfo> >::iterator::operator++
$L190474:
  033c3	8d 55 a4	 lea	 edx, DWORD PTR _itend$190471[ebp]
  033c6	52		 push	 edx
  033c7	8d 4d b0	 lea	 ecx, DWORD PTR _it$190469[ebp]
  033ca	e8 00 00 00 00	 call	 ??9const_iterator@?$vector@U_tagLMCItemInfo@@V?$allocator@U_tagLMCItemInfo@@@std@@@std@@QBE_NABV012@@Z ; std::vector<_tagLMCItemInfo,std::allocator<_tagLMCItemInfo> >::const_iterator::operator!=
  033cf	0f b6 c0	 movzx	 eax, al
  033d2	85 c0		 test	 eax, eax
  033d4	74 40		 je	 SHORT $L190468

; 760  : 					it->iIndex==iIndex?it->blSel=TRUE:it->blSel=FALSE;

  033d6	8d 4d b0	 lea	 ecx, DWORD PTR _it$190469[ebp]
  033d9	e8 00 00 00 00	 call	 ??Citerator@?$vector@U_tagLMCItemInfo@@V?$allocator@U_tagLMCItemInfo@@@std@@@std@@QBEPAU_tagLMCItemInfo@@XZ ; std::vector<_tagLMCItemInfo,std::allocator<_tagLMCItemInfo> >::iterator::operator->
  033de	8b 48 1c	 mov	 ecx, DWORD PTR [eax+28]
  033e1	3b 4d e8	 cmp	 ecx, DWORD PTR _iIndex$[ebp]
  033e4	75 18		 jne	 SHORT $L192778
  033e6	8d 4d b0	 lea	 ecx, DWORD PTR _it$190469[ebp]
  033e9	e8 00 00 00 00	 call	 ??Citerator@?$vector@U_tagLMCItemInfo@@V?$allocator@U_tagLMCItemInfo@@@std@@@std@@QBEPAU_tagLMCItemInfo@@XZ ; std::vector<_tagLMCItemInfo,std::allocator<_tagLMCItemInfo> >::iterator::operator->
  033ee	c7 40 20 01 00
	00 00		 mov	 DWORD PTR [eax+32], 1
  033f5	c7 45 88 01 00
	00 00		 mov	 DWORD PTR tv169[ebp], 1
  033fc	eb 16		 jmp	 SHORT $L192779
$L192778:
  033fe	8d 4d b0	 lea	 ecx, DWORD PTR _it$190469[ebp]
  03401	e8 00 00 00 00	 call	 ??Citerator@?$vector@U_tagLMCItemInfo@@V?$allocator@U_tagLMCItemInfo@@@std@@@std@@QBEPAU_tagLMCItemInfo@@XZ ; std::vector<_tagLMCItemInfo,std::allocator<_tagLMCItemInfo> >::iterator::operator->
  03406	c7 40 20 00 00
	00 00		 mov	 DWORD PTR [eax+32], 0
  0340d	c7 45 88 00 00
	00 00		 mov	 DWORD PTR tv169[ebp], 0
$L192779:
  03414	eb 9f		 jmp	 SHORT $L190475
$L190468:

; 761  : 			}
; 762  : 		}

  03416	c7 45 fc ff ff
	ff ff		 mov	 DWORD PTR __$EHRec$[ebp+8], -1
  0341d	8d 4d cc	 lea	 ecx, DWORD PTR _vSel$190337[ebp]
  03420	e8 00 00 00 00	 call	 ??1?$vector@HV?$allocator@H@std@@@std@@QAE@XZ ; std::vector<int,std::allocator<int> >::~vector<int,std::allocator<int> >
$L190335:

; 763  : 	}
; 764  : 	else

  03425	eb 49		 jmp	 SHORT $L190477
$L190332:

; 765  : 	{// 
; 766  : 		if (nFlags & MK_CONTROL)

  03427	8b 55 08	 mov	 edx, DWORD PTR _nFlags$[ebp]
  0342a	83 e2 08	 and	 edx, 8
  0342d	74 02		 je	 SHORT $L190478

; 767  : 		{
; 768  : 
; 769  : 		}
; 770  : 		else

  0342f	eb 3f		 jmp	 SHORT $L190477
$L190478:

; 771  : 		{
; 772  : 			SetCapture();

  03431	8b 4d f0	 mov	 ecx, DWORD PTR _this$[ebp]
  03434	e8 00 00 00 00	 call	 ?SetCapture@CWnd@@QAEPAV1@XZ ; CWnd::SetCapture

; 773  : 			m_blTracker = TRUE;

  03439	8b 45 f0	 mov	 eax, DWORD PTR _this$[ebp]
  0343c	c7 80 68 01 00
	00 01 00 00 00	 mov	 DWORD PTR [eax+360], 1

; 774  : 			m_iDistance = point.y-m_ptClientStart.y;

  03446	8b 4d f0	 mov	 ecx, DWORD PTR _this$[ebp]
  03449	8b 55 10	 mov	 edx, DWORD PTR _point$[ebp+4]
  0344c	2b 91 b0 00 00
	00		 sub	 edx, DWORD PTR [ecx+176]
  03452	8b 45 f0	 mov	 eax, DWORD PTR _this$[ebp]
  03455	89 90 3c 01 00
	00		 mov	 DWORD PTR [eax+316], edx

; 775  : 			m_ptDown = point;

  0345b	8b 4d f0	 mov	 ecx, DWORD PTR _this$[ebp]
  0345e	8b 55 0c	 mov	 edx, DWORD PTR _point$[ebp]
  03461	89 91 20 01 00
	00		 mov	 DWORD PTR [ecx+288], edx
  03467	8b 45 10	 mov	 eax, DWORD PTR _point$[ebp+4]
  0346a	89 81 24 01 00
	00		 mov	 DWORD PTR [ecx+292], eax
$L190477:

; 776  : 		}
; 777  : 	}
; 778  : 	OnMemoryDraw();

  03470	6a 01		 push	 1
  03472	8b 4d f0	 mov	 ecx, DWORD PTR _this$[ebp]
  03475	e8 00 00 00 00	 call	 ?OnMemoryDraw@CLocalMusicCoverList@@IAEXH@Z ; CLocalMusicCoverList::OnMemoryDraw

; 779  : 	CWnd::OnLButtonDown(nFlags, point);

  0347a	8b 4d 10	 mov	 ecx, DWORD PTR _point$[ebp+4]
  0347d	51		 push	 ecx
  0347e	8b 55 0c	 mov	 edx, DWORD PTR _point$[ebp]
  03481	52		 push	 edx
  03482	8b 45 08	 mov	 eax, DWORD PTR _nFlags$[ebp]
  03485	50		 push	 eax
  03486	8b 4d f0	 mov	 ecx, DWORD PTR _this$[ebp]
  03489	e8 00 00 00 00	 call	 ?OnLButtonDown@CWnd@@IAEXIVCPoint@@@Z ; CWnd::OnLButtonDown

; 780  : }

  0348e	52		 push	 edx
  0348f	8b cd		 mov	 ecx, ebp
  03491	50		 push	 eax
  03492	8d 15 00 00 00
	00		 lea	 edx, DWORD PTR $L192790
  03498	e8 00 00 00 00	 call	 @_RTC_CheckStackVars@8
  0349d	58		 pop	 eax
  0349e	5a		 pop	 edx
  0349f	8b 4d f4	 mov	 ecx, DWORD PTR __$EHRec$[ebp]
  034a2	64 89 0d 00 00
	00 00		 mov	 DWORD PTR fs:__except_list, ecx
  034a9	5f		 pop	 edi
  034aa	5b		 pop	 ebx
  034ab	83 c4 78	 add	 esp, 120		; 00000078H
  034ae	3b ec		 cmp	 ebp, esp
  034b0	e8 00 00 00 00	 call	 __RTC_CheckEsp
  034b5	8b e5		 mov	 esp, ebp
  034b7	5d		 pop	 ebp
  034b8	c2 0c 00	 ret	 12			; 0000000cH
$L192790:
  034bb	05 00 00 00	 DD	 5
  034bf	00 00 00 00	 DD	 $L192789
$L192789:
  034c3	e8 ff ff ff	 DD	 -24			; ffffffe8H
  034c7	04 00 00 00	 DD	 4
  034cb	00 00 00 00	 DD	 $L192783
  034cf	cc ff ff ff	 DD	 -52			; ffffffccH
  034d3	10 00 00 00	 DD	 16			; 00000010H
  034d7	00 00 00 00	 DD	 $L192784
  034db	bc ff ff ff	 DD	 -68			; ffffffbcH
  034df	08 00 00 00	 DD	 8
  034e3	00 00 00 00	 DD	 $L192785
  034e7	b0 ff ff ff	 DD	 -80			; ffffffb0H
  034eb	04 00 00 00	 DD	 4
  034ef	00 00 00 00	 DD	 $L192786
  034f3	a4 ff ff ff	 DD	 -92			; ffffffa4H
  034f7	04 00 00 00	 DD	 4
  034fb	00 00 00 00	 DD	 $L192787
$L192787:
  034ff	69		 DB	 105			; 00000069H
  03500	74		 DB	 116			; 00000074H
  03501	65		 DB	 101			; 00000065H
  03502	6e		 DB	 110			; 0000006eH
  03503	64		 DB	 100			; 00000064H
  03504	00		 DB	 0
$L192786:
  03505	69		 DB	 105			; 00000069H
  03506	74		 DB	 116			; 00000074H
  03507	00		 DB	 0
$L192785:
  03508	70		 DB	 112			; 00000070H
  03509	74		 DB	 116			; 00000074H
  0350a	00		 DB	 0
$L192784:
  0350b	76		 DB	 118			; 00000076H
  0350c	53		 DB	 83			; 00000053H
  0350d	65		 DB	 101			; 00000065H
  0350e	6c		 DB	 108			; 0000006cH
  0350f	00		 DB	 0
$L192783:
  03510	69		 DB	 105			; 00000069H
  03511	49		 DB	 73			; 00000049H
  03512	6e		 DB	 110			; 0000006eH
  03513	64		 DB	 100			; 00000064H
  03514	65		 DB	 101			; 00000065H
  03515	78		 DB	 120			; 00000078H
  03516	00		 DB	 0
_TEXT	ENDS
text$x	SEGMENT
$L192780:
  00355	8d 4d cc	 lea	 ecx, DWORD PTR _vSel$190337[ebp]
  00358	e9 00 00 00 00	 jmp	 ??1?$vector@HV?$allocator@H@std@@@std@@QAE@XZ ; std::vector<int,std::allocator<int> >::~vector<int,std::allocator<int> >
__ehhandler$?OnLButtonDown@CLocalMusicCoverList@@QAEXIVCPoint@@@Z:
  0035d	b8 00 00 00 00	 mov	 eax, OFFSET FLAT:$T192782
  00362	e9 00 00 00 00	 jmp	 ___CxxFrameHandler
text$x	ENDS
?OnLButtonDown@CLocalMusicCoverList@@QAEXIVCPoint@@@Z ENDP ; CLocalMusicCoverList::OnLButtonDown
EXTRN	?EndDrag@CImageList@@SGXXZ:NEAR			; CImageList::EndDrag
EXTRN	?DragLeave@CImageList@@SGHPAVCWnd@@@Z:NEAR	; CImageList::DragLeave
EXTRN	?OnLButtonUp@CWnd@@IAEXIVCPoint@@@Z:NEAR	; CWnd::OnLButtonUp
EXTRN	?SetRect@CRect@@QAEXHHHH@Z:NEAR			; CRect::SetRect
EXTRN	__imp__ReleaseCapture@0:NEAR
; Function compile flags: /Odt /RTCsu
_TEXT	SEGMENT
$T192793 = -56						; size = 4
_itend$190496 = -48					; size = 4
_it$190494 = -36					; size = 4
_iItem$ = -24						; size = 4
_iIndex$190490 = -12					; size = 4
_this$ = -4						; size = 4
_nFlags$ = 8						; size = 4
_point$ = 12						; size = 8
?OnLButtonUp@CLocalMusicCoverList@@QAEXIVCPoint@@@Z PROC NEAR ; CLocalMusicCoverList::OnLButtonUp
; _this$ = ecx

; 783  : {

  03520	55		 push	 ebp
  03521	8b ec		 mov	 ebp, esp
  03523	83 ec 38	 sub	 esp, 56			; 00000038H
  03526	56		 push	 esi
  03527	57		 push	 edi
  03528	51		 push	 ecx
  03529	8d 7d c8	 lea	 edi, DWORD PTR [ebp-56]
  0352c	b9 0e 00 00 00	 mov	 ecx, 14			; 0000000eH
  03531	b8 cc cc cc cc	 mov	 eax, -858993460		; ccccccccH
  03536	f3 ab		 rep stosd
  03538	59		 pop	 ecx
  03539	89 4d fc	 mov	 DWORD PTR _this$[ebp], ecx

; 784  : 
; 785  : 	//================================
; 786  : 	if (m_blTracker)

  0353c	8b 45 fc	 mov	 eax, DWORD PTR _this$[ebp]
  0353f	83 b8 68 01 00
	00 00		 cmp	 DWORD PTR [eax+360], 0
  03546	74 60		 je	 SHORT $L190485

; 787  : 	{
; 788  : 		ReleaseCapture();

  03548	8b f4		 mov	 esi, esp
  0354a	ff 15 00 00 00
	00		 call	 DWORD PTR __imp__ReleaseCapture@0
  03550	3b f4		 cmp	 esi, esp
  03552	e8 00 00 00 00	 call	 __RTC_CheckEsp

; 789  : 		m_rcTracker.SetRect(0,0,0,0);

  03557	6a 00		 push	 0
  03559	6a 00		 push	 0
  0355b	6a 00		 push	 0
  0355d	6a 00		 push	 0
  0355f	8b 4d fc	 mov	 ecx, DWORD PTR _this$[ebp]
  03562	81 c1 2c 01 00
	00		 add	 ecx, 300		; 0000012cH
  03568	e8 00 00 00 00	 call	 ?SetRect@CRect@@QAEXHHHH@Z ; CRect::SetRect

; 790  : 		m_iDistance = 0;

  0356d	8b 4d fc	 mov	 ecx, DWORD PTR _this$[ebp]
  03570	c7 81 3c 01 00
	00 00 00 00 00	 mov	 DWORD PTR [ecx+316], 0

; 791  : 		m_blTracker = FALSE;

  0357a	8b 55 fc	 mov	 edx, DWORD PTR _this$[ebp]
  0357d	c7 82 68 01 00
	00 00 00 00 00	 mov	 DWORD PTR [edx+360], 0

; 792  : 		OnMemoryDraw();

  03587	6a 01		 push	 1
  03589	8b 4d fc	 mov	 ecx, DWORD PTR _this$[ebp]
  0358c	e8 00 00 00 00	 call	 ?OnMemoryDraw@CLocalMusicCoverList@@IAEXH@Z ; CLocalMusicCoverList::OnMemoryDraw

; 793  : 		KillTimer(m_vScrDownTimer);

  03591	8b 45 fc	 mov	 eax, DWORD PTR _this$[ebp]
  03594	8b 88 40 01 00
	00		 mov	 ecx, DWORD PTR [eax+320]
  0359a	51		 push	 ecx
  0359b	8b 4d fc	 mov	 ecx, DWORD PTR _this$[ebp]
  0359e	e8 00 00 00 00	 call	 ?KillTimer@CWnd@@QAEHI@Z ; CWnd::KillTimer

; 794  : 		return;

  035a3	e9 41 01 00 00	 jmp	 $L190484
$L190485:

; 795  : 	}
; 796  : 	//End
; 797  : 
; 798  : 	//================================
; 799  : 	if (m_blDrag)

  035a8	8b 55 fc	 mov	 edx, DWORD PTR _this$[ebp]
  035ab	83 ba 7c 01 00
	00 00		 cmp	 DWORD PTR [edx+380], 0
  035b2	74 4b		 je	 SHORT $L190486

; 800  : 	{
; 801  : 		m_blDrag = FALSE;

  035b4	8b 45 fc	 mov	 eax, DWORD PTR _this$[ebp]
  035b7	c7 80 7c 01 00
	00 00 00 00 00	 mov	 DWORD PTR [eax+380], 0

; 802  : 		CImageList::DragLeave(NULL);

  035c1	6a 00		 push	 0
  035c3	e8 00 00 00 00	 call	 ?DragLeave@CImageList@@SGHPAVCWnd@@@Z ; CImageList::DragLeave

; 803  : 		CImageList::EndDrag();

  035c8	e8 00 00 00 00	 call	 ?EndDrag@CImageList@@SGXXZ ; CImageList::EndDrag

; 804  : 		ReleaseCapture();

  035cd	8b f4		 mov	 esi, esp
  035cf	ff 15 00 00 00
	00		 call	 DWORD PTR __imp__ReleaseCapture@0
  035d5	3b f4		 cmp	 esi, esp
  035d7	e8 00 00 00 00	 call	 __RTC_CheckEsp

; 805  : 		OnMemoryDraw();

  035dc	6a 01		 push	 1
  035de	8b 4d fc	 mov	 ecx, DWORD PTR _this$[ebp]
  035e1	e8 00 00 00 00	 call	 ?OnMemoryDraw@CLocalMusicCoverList@@IAEXH@Z ; CLocalMusicCoverList::OnMemoryDraw

; 806  : 		OnEndDrag();

  035e6	8b 4d fc	 mov	 ecx, DWORD PTR _this$[ebp]
  035e9	8b 11		 mov	 edx, DWORD PTR [ecx]
  035eb	8b f4		 mov	 esi, esp
  035ed	8b 4d fc	 mov	 ecx, DWORD PTR _this$[ebp]
  035f0	ff 92 3c 01 00
	00		 call	 DWORD PTR [edx+316]
  035f6	3b f4		 cmp	 esi, esp
  035f8	e8 00 00 00 00	 call	 __RTC_CheckEsp

; 807  : 	}
; 808  : 	else

  035fd	eb 4d		 jmp	 SHORT $L190487
$L190486:

; 809  : 	{
; 810  : 		if (nFlags&MK_CONTROL)

  035ff	8b 45 08	 mov	 eax, DWORD PTR _nFlags$[ebp]
  03602	83 e0 08	 and	 eax, 8
  03605	74 02		 je	 SHORT $L190488

; 811  : 		{
; 812  : 		}
; 813  : 		else

  03607	eb 43		 jmp	 SHORT $L190487
$L190488:

; 814  : 		{
; 815  : 			UnSelectAll();

  03609	8b 4d fc	 mov	 ecx, DWORD PTR _this$[ebp]
  0360c	e8 00 00 00 00	 call	 ?UnSelectAll@CLocalMusicCoverList@@IAEXXZ ; CLocalMusicCoverList::UnSelectAll

; 816  : 			int iIndex;
; 817  : 			if (HitTest(iIndex,point))

  03611	8b 4d 10	 mov	 ecx, DWORD PTR _point$[ebp+4]
  03614	51		 push	 ecx
  03615	8b 55 0c	 mov	 edx, DWORD PTR _point$[ebp]
  03618	52		 push	 edx
  03619	8d 45 f4	 lea	 eax, DWORD PTR _iIndex$190490[ebp]
  0361c	50		 push	 eax
  0361d	8b 4d fc	 mov	 ecx, DWORD PTR _this$[ebp]
  03620	e8 00 00 00 00	 call	 ?HitTest@CLocalMusicCoverList@@IAEHAAHVCPoint@@@Z ; CLocalMusicCoverList::HitTest
  03625	85 c0		 test	 eax, eax
  03627	74 19		 je	 SHORT $L190491

; 818  : 				m_DataMgr.m_vItem[iIndex].blSel = TRUE;	

  03629	8b 4d f4	 mov	 ecx, DWORD PTR _iIndex$190490[ebp]
  0362c	51		 push	 ecx
  0362d	8b 4d fc	 mov	 ecx, DWORD PTR _this$[ebp]
  03630	81 c1 6c 01 00
	00		 add	 ecx, 364		; 0000016cH
  03636	e8 00 00 00 00	 call	 ??A?$vector@U_tagLMCItemInfo@@V?$allocator@U_tagLMCItemInfo@@@std@@@std@@QAEAAU_tagLMCItemInfo@@I@Z ; std::vector<_tagLMCItemInfo,std::allocator<_tagLMCItemInfo> >::operator[]
  0363b	c7 40 20 01 00
	00 00		 mov	 DWORD PTR [eax+32], 1
$L190491:

; 819  : 			OnMemoryDraw();

  03642	6a 01		 push	 1
  03644	8b 4d fc	 mov	 ecx, DWORD PTR _this$[ebp]
  03647	e8 00 00 00 00	 call	 ?OnMemoryDraw@CLocalMusicCoverList@@IAEXH@Z ; CLocalMusicCoverList::OnMemoryDraw
$L190487:

; 820  : 		}
; 821  : 	}
; 822  : 	m_blIsJudgeDrag = FALSE;

  0364c	8b 55 fc	 mov	 edx, DWORD PTR _this$[ebp]
  0364f	c7 82 48 01 00
	00 00 00 00 00	 mov	 DWORD PTR [edx+328], 0

; 823  : 	//End
; 824  : 
; 825  : 	//============================
; 826  : 	int iItem;
; 827  : 	if (!HitTest(iItem,point)&&!m_blDrag)

  03659	8b 45 10	 mov	 eax, DWORD PTR _point$[ebp+4]
  0365c	50		 push	 eax
  0365d	8b 4d 0c	 mov	 ecx, DWORD PTR _point$[ebp]
  03660	51		 push	 ecx
  03661	8d 55 e8	 lea	 edx, DWORD PTR _iItem$[ebp]
  03664	52		 push	 edx
  03665	8b 4d fc	 mov	 ecx, DWORD PTR _this$[ebp]
  03668	e8 00 00 00 00	 call	 ?HitTest@CLocalMusicCoverList@@IAEHAAHVCPoint@@@Z ; CLocalMusicCoverList::HitTest
  0366d	85 c0		 test	 eax, eax
  0366f	75 64		 jne	 SHORT $L190493
  03671	8b 45 fc	 mov	 eax, DWORD PTR _this$[ebp]
  03674	83 b8 7c 01 00
	00 00		 cmp	 DWORD PTR [eax+380], 0
  0367b	75 58		 jne	 SHORT $L190493

; 828  : 	{
; 829  : 		CLMCDataMgr::iterLMCItem it = m_DataMgr.m_vItem.begin();

  0367d	8d 4d dc	 lea	 ecx, DWORD PTR _it$190494[ebp]
  03680	51		 push	 ecx
  03681	8b 4d fc	 mov	 ecx, DWORD PTR _this$[ebp]
  03684	81 c1 6c 01 00
	00		 add	 ecx, 364		; 0000016cH
  0368a	e8 00 00 00 00	 call	 ?begin@?$vector@U_tagLMCItemInfo@@V?$allocator@U_tagLMCItemInfo@@@std@@@std@@QAE?AViterator@12@XZ ; std::vector<_tagLMCItemInfo,std::allocator<_tagLMCItemInfo> >::begin

; 830  : 		CLMCDataMgr::iterLMCItem itend = m_DataMgr.m_vItem.end();

  0368f	8d 55 d0	 lea	 edx, DWORD PTR _itend$190496[ebp]
  03692	52		 push	 edx
  03693	8b 4d fc	 mov	 ecx, DWORD PTR _this$[ebp]
  03696	81 c1 6c 01 00
	00		 add	 ecx, 364		; 0000016cH
  0369c	e8 00 00 00 00	 call	 ?end@?$vector@U_tagLMCItemInfo@@V?$allocator@U_tagLMCItemInfo@@@std@@@std@@QAE?AViterator@12@XZ ; std::vector<_tagLMCItemInfo,std::allocator<_tagLMCItemInfo> >::end

; 831  : 		for (;it!=itend;it++)

  036a1	eb 0e		 jmp	 SHORT $L190499
$L190500:
  036a3	6a 00		 push	 0
  036a5	8d 45 c8	 lea	 eax, DWORD PTR $T192793[ebp]
  036a8	50		 push	 eax
  036a9	8d 4d dc	 lea	 ecx, DWORD PTR _it$190494[ebp]
  036ac	e8 00 00 00 00	 call	 ??Eiterator@?$vector@U_tagLMCItemInfo@@V?$allocator@U_tagLMCItemInfo@@@std@@@std@@QAE?AV012@H@Z ; std::vector<_tagLMCItemInfo,std::allocator<_tagLMCItemInfo> >::iterator::operator++
$L190499:
  036b1	8d 4d d0	 lea	 ecx, DWORD PTR _itend$190496[ebp]
  036b4	51		 push	 ecx
  036b5	8d 4d dc	 lea	 ecx, DWORD PTR _it$190494[ebp]
  036b8	e8 00 00 00 00	 call	 ??9const_iterator@?$vector@U_tagLMCItemInfo@@V?$allocator@U_tagLMCItemInfo@@@std@@@std@@QBE_NABV012@@Z ; std::vector<_tagLMCItemInfo,std::allocator<_tagLMCItemInfo> >::const_iterator::operator!=
  036bd	0f b6 d0	 movzx	 edx, al
  036c0	85 d2		 test	 edx, edx
  036c2	74 11		 je	 SHORT $L190493

; 832  : 			it->blSel=FALSE;

  036c4	8d 4d dc	 lea	 ecx, DWORD PTR _it$190494[ebp]
  036c7	e8 00 00 00 00	 call	 ??Citerator@?$vector@U_tagLMCItemInfo@@V?$allocator@U_tagLMCItemInfo@@@std@@@std@@QBEPAU_tagLMCItemInfo@@XZ ; std::vector<_tagLMCItemInfo,std::allocator<_tagLMCItemInfo> >::iterator::operator->
  036cc	c7 40 20 00 00
	00 00		 mov	 DWORD PTR [eax+32], 0
  036d3	eb ce		 jmp	 SHORT $L190500
$L190493:

; 833  : 
; 834  : 
; 835  : 	}
; 836  : 	//End
; 837  : 
; 838  : 	CWnd::OnLButtonUp(nFlags, point);

  036d5	8b 45 10	 mov	 eax, DWORD PTR _point$[ebp+4]
  036d8	50		 push	 eax
  036d9	8b 4d 0c	 mov	 ecx, DWORD PTR _point$[ebp]
  036dc	51		 push	 ecx
  036dd	8b 55 08	 mov	 edx, DWORD PTR _nFlags$[ebp]
  036e0	52		 push	 edx
  036e1	8b 4d fc	 mov	 ecx, DWORD PTR _this$[ebp]
  036e4	e8 00 00 00 00	 call	 ?OnLButtonUp@CWnd@@IAEXIVCPoint@@@Z ; CWnd::OnLButtonUp
$L190484:

; 839  : }

  036e9	52		 push	 edx
  036ea	8b cd		 mov	 ecx, ebp
  036ec	50		 push	 eax
  036ed	8d 15 00 00 00
	00		 lea	 edx, DWORD PTR $L192799
  036f3	e8 00 00 00 00	 call	 @_RTC_CheckStackVars@8
  036f8	58		 pop	 eax
  036f9	5a		 pop	 edx
  036fa	5f		 pop	 edi
  036fb	5e		 pop	 esi
  036fc	83 c4 38	 add	 esp, 56			; 00000038H
  036ff	3b ec		 cmp	 ebp, esp
  03701	e8 00 00 00 00	 call	 __RTC_CheckEsp
  03706	8b e5		 mov	 esp, ebp
  03708	5d		 pop	 ebp
  03709	c2 0c 00	 ret	 12			; 0000000cH
$L192799:
  0370c	04 00 00 00	 DD	 4
  03710	00 00 00 00	 DD	 $L192798
$L192798:
  03714	f4 ff ff ff	 DD	 -12			; fffffff4H
  03718	04 00 00 00	 DD	 4
  0371c	00 00 00 00	 DD	 $L192794
  03720	e8 ff ff ff	 DD	 -24			; ffffffe8H
  03724	04 00 00 00	 DD	 4
  03728	00 00 00 00	 DD	 $L192795
  0372c	dc ff ff ff	 DD	 -36			; ffffffdcH
  03730	04 00 00 00	 DD	 4
  03734	00 00 00 00	 DD	 $L192796
  03738	d0 ff ff ff	 DD	 -48			; ffffffd0H
  0373c	04 00 00 00	 DD	 4
  03740	00 00 00 00	 DD	 $L192797
$L192797:
  03744	69		 DB	 105			; 00000069H
  03745	74		 DB	 116			; 00000074H
  03746	65		 DB	 101			; 00000065H
  03747	6e		 DB	 110			; 0000006eH
  03748	64		 DB	 100			; 00000064H
  03749	00		 DB	 0
$L192796:
  0374a	69		 DB	 105			; 00000069H
  0374b	74		 DB	 116			; 00000074H
  0374c	00		 DB	 0
$L192795:
  0374d	69		 DB	 105			; 00000069H
  0374e	49		 DB	 73			; 00000049H
  0374f	74		 DB	 116			; 00000074H
  03750	65		 DB	 101			; 00000065H
  03751	6d		 DB	 109			; 0000006dH
  03752	00		 DB	 0
$L192794:
  03753	69		 DB	 105			; 00000069H
  03754	49		 DB	 73			; 00000049H
  03755	6e		 DB	 110			; 0000006eH
  03756	64		 DB	 100			; 00000064H
  03757	65		 DB	 101			; 00000065H
  03758	78		 DB	 120			; 00000078H
  03759	00		 DB	 0
?OnLButtonUp@CLocalMusicCoverList@@QAEXIVCPoint@@@Z ENDP ; CLocalMusicCoverList::OnLButtonUp
_TEXT	ENDS
EXTRN	?OnRButtonUp@CWnd@@IAEXIVCPoint@@@Z:NEAR	; CWnd::OnRButtonUp
xdata$x	SEGMENT
$T192813 DD	0ffffffffH
	DD	FLAT:$L192805
$T192807 DD	019930520H
	DD	01H
	DD	FLAT:$T192813
	DD	2 DUP(00H)
	DD	2 DUP(00H)
; Function compile flags: /Odt /RTCsu
xdata$x	ENDS
_TEXT	SEGMENT
$T192804 = -68						; size = 4
$T192803 = -64						; size = 4
$T192802 = -60						; size = 4
$T192801 = -56						; size = 4
_vSel$190510 = -48					; size = 16
_iItem$ = -24						; size = 4
_this$ = -16						; size = 4
__$EHRec$ = -12						; size = 12
_nFlags$ = 8						; size = 4
_point$ = 12						; size = 8
?OnRButtonUp@CLocalMusicCoverList@@QAEXIVCPoint@@@Z PROC NEAR ; CLocalMusicCoverList::OnRButtonUp
; _this$ = ecx

; 842  : {	

  03760	55		 push	 ebp
  03761	8b ec		 mov	 ebp, esp
  03763	6a ff		 push	 -1
  03765	68 00 00 00 00	 push	 __ehhandler$?OnRButtonUp@CLocalMusicCoverList@@QAEXIVCPoint@@@Z
  0376a	64 a1 00 00 00
	00		 mov	 eax, DWORD PTR fs:__except_list
  03770	50		 push	 eax
  03771	64 89 25 00 00
	00 00		 mov	 DWORD PTR fs:__except_list, esp
  03778	83 ec 38	 sub	 esp, 56			; 00000038H
  0377b	57		 push	 edi
  0377c	51		 push	 ecx
  0377d	8d 7d bc	 lea	 edi, DWORD PTR [ebp-68]
  03780	b9 0e 00 00 00	 mov	 ecx, 14			; 0000000eH
  03785	b8 cc cc cc cc	 mov	 eax, -858993460		; ccccccccH
  0378a	f3 ab		 rep stosd
  0378c	59		 pop	 ecx
  0378d	89 4d f0	 mov	 DWORD PTR _this$[ebp], ecx

; 843  : 	int iItem;
; 844  : 	if (HitTest(iItem,point))

  03790	8b 45 10	 mov	 eax, DWORD PTR _point$[ebp+4]
  03793	50		 push	 eax
  03794	8b 4d 0c	 mov	 ecx, DWORD PTR _point$[ebp]
  03797	51		 push	 ecx
  03798	8d 55 e8	 lea	 edx, DWORD PTR _iItem$[ebp]
  0379b	52		 push	 edx
  0379c	8b 4d f0	 mov	 ecx, DWORD PTR _this$[ebp]
  0379f	e8 00 00 00 00	 call	 ?HitTest@CLocalMusicCoverList@@IAEHAAHVCPoint@@@Z ; CLocalMusicCoverList::HitTest
  037a4	85 c0		 test	 eax, eax
  037a6	0f 84 9f 00 00
	00		 je	 $L190508

; 845  : 	{
; 846  : 		// 
; 847  : 		vector<int> vSel = GetSelectItem();

  037ac	8d 45 d0	 lea	 eax, DWORD PTR _vSel$190510[ebp]
  037af	50		 push	 eax
  037b0	8b 4d f0	 mov	 ecx, DWORD PTR _this$[ebp]
  037b3	e8 00 00 00 00	 call	 ?GetSelectItem@CLocalMusicCoverList@@QAE?AV?$vector@HV?$allocator@H@std@@@std@@XZ ; CLocalMusicCoverList::GetSelectItem
  037b8	c7 45 fc 00 00
	00 00		 mov	 DWORD PTR __$EHRec$[ebp+8], 0

; 848  : 		if (find(vSel.begin(),vSel.end(),iItem)!=vSel.end())

  037bf	8d 4d bc	 lea	 ecx, DWORD PTR $T192804[ebp]
  037c2	51		 push	 ecx
  037c3	8d 4d d0	 lea	 ecx, DWORD PTR _vSel$190510[ebp]
  037c6	e8 00 00 00 00	 call	 ?end@?$vector@HV?$allocator@H@std@@@std@@QAE?AViterator@12@XZ ; std::vector<int,std::allocator<int> >::end
  037cb	50		 push	 eax
  037cc	8d 55 e8	 lea	 edx, DWORD PTR _iItem$[ebp]
  037cf	52		 push	 edx
  037d0	8d 45 c8	 lea	 eax, DWORD PTR $T192801[ebp]
  037d3	50		 push	 eax
  037d4	8d 4d d0	 lea	 ecx, DWORD PTR _vSel$190510[ebp]
  037d7	e8 00 00 00 00	 call	 ?end@?$vector@HV?$allocator@H@std@@@std@@QAE?AViterator@12@XZ ; std::vector<int,std::allocator<int> >::end
  037dc	8b 08		 mov	 ecx, DWORD PTR [eax]
  037de	51		 push	 ecx
  037df	8d 55 c4	 lea	 edx, DWORD PTR $T192802[ebp]
  037e2	52		 push	 edx
  037e3	8d 4d d0	 lea	 ecx, DWORD PTR _vSel$190510[ebp]
  037e6	e8 00 00 00 00	 call	 ?begin@?$vector@HV?$allocator@H@std@@@std@@QAE?AViterator@12@XZ ; std::vector<int,std::allocator<int> >::begin
  037eb	8b 00		 mov	 eax, DWORD PTR [eax]
  037ed	50		 push	 eax
  037ee	8d 4d c0	 lea	 ecx, DWORD PTR $T192803[ebp]
  037f1	51		 push	 ecx
  037f2	e8 00 00 00 00	 call	 ??$find@Viterator@?$vector@HV?$allocator@H@std@@@std@@H@std@@YA?AViterator@?$vector@HV?$allocator@H@std@@@0@V120@0ABH@Z ; std::find<std::vector<int,std::allocator<int> >::iterator,int>
  037f7	83 c4 10	 add	 esp, 16			; 00000010H
  037fa	8b c8		 mov	 ecx, eax
  037fc	e8 00 00 00 00	 call	 ??9const_iterator@?$vector@HV?$allocator@H@std@@@std@@QBE_NABV012@@Z ; std::vector<int,std::allocator<int> >::const_iterator::operator!=
  03801	0f b6 d0	 movzx	 edx, al
  03804	85 d2		 test	 edx, edx
  03806	74 11		 je	 SHORT $L190516

; 849  : 		{
; 850  : 			return;

  03808	c7 45 fc ff ff
	ff ff		 mov	 DWORD PTR __$EHRec$[ebp+8], -1
  0380f	8d 4d d0	 lea	 ecx, DWORD PTR _vSel$190510[ebp]
  03812	e8 00 00 00 00	 call	 ??1?$vector@HV?$allocator@H@std@@@std@@QAE@XZ ; std::vector<int,std::allocator<int> >::~vector<int,std::allocator<int> >
  03817	eb 58		 jmp	 SHORT $L190506
$L190516:

; 851  : 		}
; 852  : 		else
; 853  : 		{
; 854  : 			UnSelectAll();

  03819	8b 4d f0	 mov	 ecx, DWORD PTR _this$[ebp]
  0381c	e8 00 00 00 00	 call	 ?UnSelectAll@CLocalMusicCoverList@@IAEXXZ ; CLocalMusicCoverList::UnSelectAll

; 855  : 			m_DataMgr.m_vItem[iItem].blSel = TRUE;

  03821	8b 45 e8	 mov	 eax, DWORD PTR _iItem$[ebp]
  03824	50		 push	 eax
  03825	8b 4d f0	 mov	 ecx, DWORD PTR _this$[ebp]
  03828	81 c1 6c 01 00
	00		 add	 ecx, 364		; 0000016cH
  0382e	e8 00 00 00 00	 call	 ??A?$vector@U_tagLMCItemInfo@@V?$allocator@U_tagLMCItemInfo@@@std@@@std@@QAEAAU_tagLMCItemInfo@@I@Z ; std::vector<_tagLMCItemInfo,std::allocator<_tagLMCItemInfo> >::operator[]
  03833	c7 40 20 01 00
	00 00		 mov	 DWORD PTR [eax+32], 1

; 856  : 		}
; 857  : 	}

  0383a	c7 45 fc ff ff
	ff ff		 mov	 DWORD PTR __$EHRec$[ebp+8], -1
  03841	8d 4d d0	 lea	 ecx, DWORD PTR _vSel$190510[ebp]
  03844	e8 00 00 00 00	 call	 ??1?$vector@HV?$allocator@H@std@@@std@@QAE@XZ ; std::vector<int,std::allocator<int> >::~vector<int,std::allocator<int> >

; 858  : 	else

  03849	eb 08		 jmp	 SHORT $L190518
$L190508:

; 859  : 	{
; 860  : 		// 
; 861  : 		UnSelectAll();

  0384b	8b 4d f0	 mov	 ecx, DWORD PTR _this$[ebp]
  0384e	e8 00 00 00 00	 call	 ?UnSelectAll@CLocalMusicCoverList@@IAEXXZ ; CLocalMusicCoverList::UnSelectAll
$L190518:

; 862  : 	}
; 863  : 	OnMemoryDraw();

  03853	6a 01		 push	 1
  03855	8b 4d f0	 mov	 ecx, DWORD PTR _this$[ebp]
  03858	e8 00 00 00 00	 call	 ?OnMemoryDraw@CLocalMusicCoverList@@IAEXH@Z ; CLocalMusicCoverList::OnMemoryDraw

; 864  : 	CWnd::OnRButtonUp(nFlags, point);

  0385d	8b 4d 10	 mov	 ecx, DWORD PTR _point$[ebp+4]
  03860	51		 push	 ecx
  03861	8b 55 0c	 mov	 edx, DWORD PTR _point$[ebp]
  03864	52		 push	 edx
  03865	8b 45 08	 mov	 eax, DWORD PTR _nFlags$[ebp]
  03868	50		 push	 eax
  03869	8b 4d f0	 mov	 ecx, DWORD PTR _this$[ebp]
  0386c	e8 00 00 00 00	 call	 ?OnRButtonUp@CWnd@@IAEXIVCPoint@@@Z ; CWnd::OnRButtonUp
$L190506:

; 865  : }

  03871	52		 push	 edx
  03872	8b cd		 mov	 ecx, ebp
  03874	50		 push	 eax
  03875	8d 15 00 00 00
	00		 lea	 edx, DWORD PTR $L192812
  0387b	e8 00 00 00 00	 call	 @_RTC_CheckStackVars@8
  03880	58		 pop	 eax
  03881	5a		 pop	 edx
  03882	8b 4d f4	 mov	 ecx, DWORD PTR __$EHRec$[ebp]
  03885	64 89 0d 00 00
	00 00		 mov	 DWORD PTR fs:__except_list, ecx
  0388c	5f		 pop	 edi
  0388d	83 c4 44	 add	 esp, 68			; 00000044H
  03890	3b ec		 cmp	 ebp, esp
  03892	e8 00 00 00 00	 call	 __RTC_CheckEsp
  03897	8b e5		 mov	 esp, ebp
  03899	5d		 pop	 ebp
  0389a	c2 0c 00	 ret	 12			; 0000000cH
$L192812:
  0389d	02 00 00 00	 DD	 2
  038a1	00 00 00 00	 DD	 $L192811
$L192811:
  038a5	e8 ff ff ff	 DD	 -24			; ffffffe8H
  038a9	04 00 00 00	 DD	 4
  038ad	00 00 00 00	 DD	 $L192808
  038b1	d0 ff ff ff	 DD	 -48			; ffffffd0H
  038b5	10 00 00 00	 DD	 16			; 00000010H
  038b9	00 00 00 00	 DD	 $L192809
$L192809:
  038bd	76		 DB	 118			; 00000076H
  038be	53		 DB	 83			; 00000053H
  038bf	65		 DB	 101			; 00000065H
  038c0	6c		 DB	 108			; 0000006cH
  038c1	00		 DB	 0
$L192808:
  038c2	69		 DB	 105			; 00000069H
  038c3	49		 DB	 73			; 00000049H
  038c4	74		 DB	 116			; 00000074H
  038c5	65		 DB	 101			; 00000065H
  038c6	6d		 DB	 109			; 0000006dH
  038c7	00		 DB	 0
_TEXT	ENDS
text$x	SEGMENT
$L192805:
  00367	8d 4d d0	 lea	 ecx, DWORD PTR _vSel$190510[ebp]
  0036a	e9 00 00 00 00	 jmp	 ??1?$vector@HV?$allocator@H@std@@@std@@QAE@XZ ; std::vector<int,std::allocator<int> >::~vector<int,std::allocator<int> >
__ehhandler$?OnRButtonUp@CLocalMusicCoverList@@QAEXIVCPoint@@@Z:
  0036f	b8 00 00 00 00	 mov	 eax, OFFSET FLAT:$T192807
  00374	e9 00 00 00 00	 jmp	 ___CxxFrameHandler
text$x	ENDS
?OnRButtonUp@CLocalMusicCoverList@@QAEXIVCPoint@@@Z ENDP ; CLocalMusicCoverList::OnRButtonUp
EXTRN	?HandleCustomDraw@@YAJIPAUNMCSBCUSTOMDRAW@@PAVCDibBitmap@@1@Z:NEAR ; HandleCustomDraw
; Function compile flags: /Odt /RTCsu
_TEXT	SEGMENT
_pNMCD$ = -8						; size = 4
_this$ = -4						; size = 4
_pNMHDR$ = 8						; size = 4
_pResult$ = 12						; size = 4
?OnCoolSBCustomdraw@CLocalMusicCoverList@@QAEXPAUtagNMHDR@@PAJ@Z PROC NEAR ; CLocalMusicCoverList::OnCoolSBCustomdraw
; _this$ = ecx

; 868  : {

  038d0	55		 push	 ebp
  038d1	8b ec		 mov	 ebp, esp
  038d3	83 ec 08	 sub	 esp, 8
  038d6	c7 45 f8 cc cc
	cc cc		 mov	 DWORD PTR [ebp-8], -858993460 ; ccccccccH
  038dd	c7 45 fc cc cc
	cc cc		 mov	 DWORD PTR [ebp-4], -858993460 ; ccccccccH
  038e4	89 4d fc	 mov	 DWORD PTR _this$[ebp], ecx

; 869  : 	NMCSBCUSTOMDRAW* pNMCD = reinterpret_cast<NMCSBCUSTOMDRAW*>(pNMHDR);	

  038e7	8b 45 08	 mov	 eax, DWORD PTR _pNMHDR$[ebp]
  038ea	89 45 f8	 mov	 DWORD PTR _pNMCD$[ebp], eax

; 870  : 	if( m_pBitmapScrollHorz != NULL && m_pBitmapScrollVert != NULL )

  038ed	8b 4d fc	 mov	 ecx, DWORD PTR _this$[ebp]
  038f0	83 b9 58 01 00
	00 00		 cmp	 DWORD PTR [ecx+344], 0
  038f7	74 33		 je	 SHORT $L190523
  038f9	8b 55 fc	 mov	 edx, DWORD PTR _this$[ebp]
  038fc	83 ba 54 01 00
	00 00		 cmp	 DWORD PTR [edx+340], 0
  03903	74 27		 je	 SHORT $L190523

; 871  : 	{
; 872  : 		*pResult = HandleCustomDraw(0, (NMCSBCUSTOMDRAW*)pNMHDR, m_pBitmapScrollVert,m_pBitmapScrollHorz );

  03905	8b 45 fc	 mov	 eax, DWORD PTR _this$[ebp]
  03908	8b 88 58 01 00
	00		 mov	 ecx, DWORD PTR [eax+344]
  0390e	51		 push	 ecx
  0390f	8b 55 fc	 mov	 edx, DWORD PTR _this$[ebp]
  03912	8b 82 54 01 00
	00		 mov	 eax, DWORD PTR [edx+340]
  03918	50		 push	 eax
  03919	8b 4d 08	 mov	 ecx, DWORD PTR _pNMHDR$[ebp]
  0391c	51		 push	 ecx
  0391d	6a 00		 push	 0
  0391f	e8 00 00 00 00	 call	 ?HandleCustomDraw@@YAJIPAUNMCSBCUSTOMDRAW@@PAVCDibBitmap@@1@Z ; HandleCustomDraw
  03924	83 c4 10	 add	 esp, 16			; 00000010H
  03927	8b 55 0c	 mov	 edx, DWORD PTR _pResult$[ebp]
  0392a	89 02		 mov	 DWORD PTR [edx], eax
$L190523:

; 873  : 	}
; 874  : }

  0392c	83 c4 08	 add	 esp, 8
  0392f	3b ec		 cmp	 ebp, esp
  03931	e8 00 00 00 00	 call	 __RTC_CheckEsp
  03936	8b e5		 mov	 esp, ebp
  03938	5d		 pop	 ebp
  03939	c2 08 00	 ret	 8
?OnCoolSBCustomdraw@CLocalMusicCoverList@@QAEXPAUtagNMHDR@@PAJ@Z ENDP ; CLocalMusicCoverList::OnCoolSBCustomdraw
_TEXT	ENDS
EXTRN	?OnDestroy@CWnd@@IAEXXZ:NEAR			; CWnd::OnDestroy
EXTRN	_UninitializeCoolSB@4:NEAR
; Function compile flags: /Odt /RTCsu
_TEXT	SEGMENT
_this$ = -4						; size = 4
?OnDestroy@CLocalMusicCoverList@@QAEXXZ PROC NEAR	; CLocalMusicCoverList::OnDestroy
; _this$ = ecx

; 877  : {

  03940	55		 push	 ebp
  03941	8b ec		 mov	 ebp, esp
  03943	51		 push	 ecx
  03944	c7 45 fc cc cc
	cc cc		 mov	 DWORD PTR [ebp-4], -858993460 ; ccccccccH
  0394b	89 4d fc	 mov	 DWORD PTR _this$[ebp], ecx

; 878  : 	CWnd::OnDestroy();

  0394e	8b 4d fc	 mov	 ecx, DWORD PTR _this$[ebp]
  03951	e8 00 00 00 00	 call	 ?OnDestroy@CWnd@@IAEXXZ	; CWnd::OnDestroy

; 879  : 	if( m_bInit )

  03956	8b 45 fc	 mov	 eax, DWORD PTR _this$[ebp]
  03959	0f b6 88 5c 01
	00 00		 movzx	 ecx, BYTE PTR [eax+348]
  03960	85 c9		 test	 ecx, ecx
  03962	74 0c		 je	 SHORT $L190530

; 880  : 	{
; 881  : 		UninitializeCoolSB( m_hWnd );

  03964	8b 55 fc	 mov	 edx, DWORD PTR _this$[ebp]
  03967	8b 42 20	 mov	 eax, DWORD PTR [edx+32]
  0396a	50		 push	 eax
  0396b	e8 00 00 00 00	 call	 _UninitializeCoolSB@4
$L190530:

; 882  : 	}
; 883  : }

  03970	83 c4 04	 add	 esp, 4
  03973	3b ec		 cmp	 ebp, esp
  03975	e8 00 00 00 00	 call	 __RTC_CheckEsp
  0397a	8b e5		 mov	 esp, ebp
  0397c	5d		 pop	 ebp
  0397d	c3		 ret	 0
?OnDestroy@CLocalMusicCoverList@@QAEXXZ ENDP		; CLocalMusicCoverList::OnDestroy
_TEXT	ENDS
EXTRN	?OnVScroll@CWnd@@IAEXIIPAVCScrollBar@@@Z:NEAR	; CWnd::OnVScroll
; Function compile flags: /Odt /RTCsu
_TEXT	SEGMENT
tv131 = -76						; size = 4
tv204 = -72						; size = 4
tv203 = -68						; size = 4
tv200 = -64						; size = 4
tv199 = -60						; size = 4
tv196 = -56						; size = 4
tv191 = -52						; size = 4
tv190 = -48						; size = 4
tv187 = -44						; size = 4
tv186 = -40						; size = 4
tv183 = -36						; size = 4
_pt$ = -28						; size = 8
_realhight$ = -16					; size = 4
_lenVbar$ = -12						; size = 4
_nCurrpos$ = -8						; size = 4
_this$ = -4						; size = 4
_nSBCode$ = 8						; size = 4
_nPos$ = 12						; size = 4
_pScrollBar$ = 16					; size = 4
?OnVScroll@CLocalMusicCoverList@@QAEXIIPAVCScrollBar@@@Z PROC NEAR ; CLocalMusicCoverList::OnVScroll
; _this$ = ecx

; 886  : {

  03980	55		 push	 ebp
  03981	8b ec		 mov	 ebp, esp
  03983	83 ec 4c	 sub	 esp, 76			; 0000004cH
  03986	56		 push	 esi
  03987	57		 push	 edi
  03988	51		 push	 ecx
  03989	8d 7d b4	 lea	 edi, DWORD PTR [ebp-76]
  0398c	b9 13 00 00 00	 mov	 ecx, 19			; 00000013H
  03991	b8 cc cc cc cc	 mov	 eax, -858993460		; ccccccccH
  03996	f3 ab		 rep stosd
  03998	59		 pop	 ecx
  03999	89 4d fc	 mov	 DWORD PTR _this$[ebp], ecx

; 887  : 	int nCurrpos = CoolSB_GetScrollPos(m_hWnd,SB_VERT);

  0399c	6a 01		 push	 1
  0399e	8b 45 fc	 mov	 eax, DWORD PTR _this$[ebp]
  039a1	8b 48 20	 mov	 ecx, DWORD PTR [eax+32]
  039a4	51		 push	 ecx
  039a5	e8 00 00 00 00	 call	 _CoolSB_GetScrollPos@8
  039aa	89 45 f8	 mov	 DWORD PTR _nCurrpos$[ebp], eax

; 888  : 	int lenVbar = (float)m_rect.Height()/m_rcRealRect.Height()*m_rect.Height();// 

  039ad	8b 4d fc	 mov	 ecx, DWORD PTR _this$[ebp]
  039b0	81 c1 8c 00 00
	00		 add	 ecx, 140		; 0000008cH
  039b6	e8 00 00 00 00	 call	 ?Height@CRect@@QBEHXZ	; CRect::Height
  039bb	89 45 dc	 mov	 DWORD PTR tv183[ebp], eax
  039be	db 45 dc	 fild	 DWORD PTR tv183[ebp]
  039c1	d9 5d d8	 fstp	 DWORD PTR tv186[ebp]
  039c4	8b 4d fc	 mov	 ecx, DWORD PTR _this$[ebp]
  039c7	81 c1 9c 00 00
	00		 add	 ecx, 156		; 0000009cH
  039cd	e8 00 00 00 00	 call	 ?Height@CRect@@QBEHXZ	; CRect::Height
  039d2	89 45 d4	 mov	 DWORD PTR tv187[ebp], eax
  039d5	db 45 d4	 fild	 DWORD PTR tv187[ebp]
  039d8	d8 7d d8	 fdivr	 DWORD PTR tv186[ebp]
  039db	d9 5d d0	 fstp	 DWORD PTR tv190[ebp]
  039de	8b 4d fc	 mov	 ecx, DWORD PTR _this$[ebp]
  039e1	81 c1 8c 00 00
	00		 add	 ecx, 140		; 0000008cH
  039e7	e8 00 00 00 00	 call	 ?Height@CRect@@QBEHXZ	; CRect::Height
  039ec	89 45 cc	 mov	 DWORD PTR tv191[ebp], eax
  039ef	db 45 cc	 fild	 DWORD PTR tv191[ebp]
  039f2	d8 4d d0	 fmul	 DWORD PTR tv190[ebp]
  039f5	e8 00 00 00 00	 call	 __ftol2
  039fa	89 45 f4	 mov	 DWORD PTR _lenVbar$[ebp], eax

; 889  : 	int realhight = (float)(m_rect.Height()-lenVbar)/m_rect.Height()*m_rcRealRect.Height();// -

  039fd	8b 4d fc	 mov	 ecx, DWORD PTR _this$[ebp]
  03a00	81 c1 8c 00 00
	00		 add	 ecx, 140		; 0000008cH
  03a06	e8 00 00 00 00	 call	 ?Height@CRect@@QBEHXZ	; CRect::Height
  03a0b	2b 45 f4	 sub	 eax, DWORD PTR _lenVbar$[ebp]
  03a0e	89 45 c8	 mov	 DWORD PTR tv196[ebp], eax
  03a11	db 45 c8	 fild	 DWORD PTR tv196[ebp]
  03a14	d9 5d c4	 fstp	 DWORD PTR tv199[ebp]
  03a17	8b 4d fc	 mov	 ecx, DWORD PTR _this$[ebp]
  03a1a	81 c1 8c 00 00
	00		 add	 ecx, 140		; 0000008cH
  03a20	e8 00 00 00 00	 call	 ?Height@CRect@@QBEHXZ	; CRect::Height
  03a25	89 45 c0	 mov	 DWORD PTR tv200[ebp], eax
  03a28	db 45 c0	 fild	 DWORD PTR tv200[ebp]
  03a2b	d8 7d c4	 fdivr	 DWORD PTR tv199[ebp]
  03a2e	d9 5d bc	 fstp	 DWORD PTR tv203[ebp]
  03a31	8b 4d fc	 mov	 ecx, DWORD PTR _this$[ebp]
  03a34	81 c1 9c 00 00
	00		 add	 ecx, 156		; 0000009cH
  03a3a	e8 00 00 00 00	 call	 ?Height@CRect@@QBEHXZ	; CRect::Height
  03a3f	89 45 b8	 mov	 DWORD PTR tv204[ebp], eax
  03a42	db 45 b8	 fild	 DWORD PTR tv204[ebp]
  03a45	d8 4d bc	 fmul	 DWORD PTR tv203[ebp]
  03a48	e8 00 00 00 00	 call	 __ftol2
  03a4d	89 45 f0	 mov	 DWORD PTR _realhight$[ebp], eax

; 890  : 	switch(nSBCode)

  03a50	8b 55 08	 mov	 edx, DWORD PTR _nSBCode$[ebp]
  03a53	89 55 b4	 mov	 DWORD PTR tv131[ebp], edx
  03a56	83 7d b4 05	 cmp	 DWORD PTR tv131[ebp], 5
  03a5a	0f 87 8e 00 00
	00		 ja	 $L190544
  03a60	8b 45 b4	 mov	 eax, DWORD PTR tv131[ebp]
  03a63	ff 24 85 00 00
	00 00		 jmp	 DWORD PTR $L192820[eax*4]
$L190547:

; 891  : 	{
; 892  : 	case SB_LINEUP:
; 893  : 		nCurrpos-=realhight/10;

  03a6a	8b 45 f0	 mov	 eax, DWORD PTR _realhight$[ebp]
  03a6d	99		 cdq
  03a6e	b9 0a 00 00 00	 mov	 ecx, 10			; 0000000aH
  03a73	f7 f9		 idiv	 ecx
  03a75	8b 55 f8	 mov	 edx, DWORD PTR _nCurrpos$[ebp]
  03a78	2b d0		 sub	 edx, eax
  03a7a	89 55 f8	 mov	 DWORD PTR _nCurrpos$[ebp], edx

; 894  : 		if (nCurrpos<0) nCurrpos=0;

  03a7d	79 07		 jns	 SHORT $L190548
  03a7f	c7 45 f8 00 00
	00 00		 mov	 DWORD PTR _nCurrpos$[ebp], 0
$L190548:

; 895  : 		break;

  03a86	eb 66		 jmp	 SHORT $L190544
$L190549:

; 896  : 	case SB_LINEDOWN:
; 897  : 		nCurrpos+=realhight/10;

  03a88	8b 45 f0	 mov	 eax, DWORD PTR _realhight$[ebp]
  03a8b	99		 cdq
  03a8c	b9 0a 00 00 00	 mov	 ecx, 10			; 0000000aH
  03a91	f7 f9		 idiv	 ecx
  03a93	03 45 f8	 add	 eax, DWORD PTR _nCurrpos$[ebp]
  03a96	89 45 f8	 mov	 DWORD PTR _nCurrpos$[ebp], eax

; 898  : 		if(nCurrpos>realhight) nCurrpos=realhight;

  03a99	8b 55 f8	 mov	 edx, DWORD PTR _nCurrpos$[ebp]
  03a9c	3b 55 f0	 cmp	 edx, DWORD PTR _realhight$[ebp]
  03a9f	7e 06		 jle	 SHORT $L190550
  03aa1	8b 45 f0	 mov	 eax, DWORD PTR _realhight$[ebp]
  03aa4	89 45 f8	 mov	 DWORD PTR _nCurrpos$[ebp], eax
$L190550:

; 899  : 		break;

  03aa7	eb 45		 jmp	 SHORT $L190544
$L190551:

; 900  : 	case SB_PAGEUP:
; 901  : 		nCurrpos-=realhight/10;

  03aa9	8b 45 f0	 mov	 eax, DWORD PTR _realhight$[ebp]
  03aac	99		 cdq
  03aad	b9 0a 00 00 00	 mov	 ecx, 10			; 0000000aH
  03ab2	f7 f9		 idiv	 ecx
  03ab4	8b 55 f8	 mov	 edx, DWORD PTR _nCurrpos$[ebp]
  03ab7	2b d0		 sub	 edx, eax
  03ab9	89 55 f8	 mov	 DWORD PTR _nCurrpos$[ebp], edx

; 902  : 		if (nCurrpos<0) nCurrpos=0;

  03abc	79 07		 jns	 SHORT $L190552
  03abe	c7 45 f8 00 00
	00 00		 mov	 DWORD PTR _nCurrpos$[ebp], 0
$L190552:

; 903  : 		break;

  03ac5	eb 27		 jmp	 SHORT $L190544
$L190553:

; 904  : 		break;
; 905  : 	case SB_PAGEDOWN:
; 906  : 		nCurrpos+=realhight/10;

  03ac7	8b 45 f0	 mov	 eax, DWORD PTR _realhight$[ebp]
  03aca	99		 cdq
  03acb	b9 0a 00 00 00	 mov	 ecx, 10			; 0000000aH
  03ad0	f7 f9		 idiv	 ecx
  03ad2	03 45 f8	 add	 eax, DWORD PTR _nCurrpos$[ebp]
  03ad5	89 45 f8	 mov	 DWORD PTR _nCurrpos$[ebp], eax

; 907  : 		if(nCurrpos>realhight) nCurrpos=realhight;

  03ad8	8b 55 f8	 mov	 edx, DWORD PTR _nCurrpos$[ebp]
  03adb	3b 55 f0	 cmp	 edx, DWORD PTR _realhight$[ebp]
  03ade	7e 06		 jle	 SHORT $L190554
  03ae0	8b 45 f0	 mov	 eax, DWORD PTR _realhight$[ebp]
  03ae3	89 45 f8	 mov	 DWORD PTR _nCurrpos$[ebp], eax
$L190554:

; 908  : 		break;

  03ae6	eb 06		 jmp	 SHORT $L190544
$L190557:

; 909  : 		break;
; 910  : 	case SB_TOP:
; 911  : 		break;
; 912  : 	case SB_BOTTOM:
; 913  : 		break;
; 914  : 	case SB_THUMBTRACK:
; 915  : 		nCurrpos=nPos;

  03ae8	8b 4d 0c	 mov	 ecx, DWORD PTR _nPos$[ebp]
  03aeb	89 4d f8	 mov	 DWORD PTR _nCurrpos$[ebp], ecx
$L190544:

; 916  : 		break;
; 917  : 	}
; 918  : 	
; 919  : 	CPoint pt=m_ptClientStart;

  03aee	8b 55 fc	 mov	 edx, DWORD PTR _this$[ebp]
  03af1	8b 82 ac 00 00
	00		 mov	 eax, DWORD PTR [edx+172]
  03af7	8b 8a b0 00 00
	00		 mov	 ecx, DWORD PTR [edx+176]
  03afd	89 45 e4	 mov	 DWORD PTR _pt$[ebp], eax
  03b00	89 4d e8	 mov	 DWORD PTR _pt$[ebp+4], ecx

; 920  : 	pt.y = nCurrpos*(m_rcRealRect.Height()-m_rect.Height())/realhight;

  03b03	8b 4d fc	 mov	 ecx, DWORD PTR _this$[ebp]
  03b06	81 c1 9c 00 00
	00		 add	 ecx, 156		; 0000009cH
  03b0c	e8 00 00 00 00	 call	 ?Height@CRect@@QBEHXZ	; CRect::Height
  03b11	8b f0		 mov	 esi, eax
  03b13	8b 4d fc	 mov	 ecx, DWORD PTR _this$[ebp]
  03b16	81 c1 8c 00 00
	00		 add	 ecx, 140		; 0000008cH
  03b1c	e8 00 00 00 00	 call	 ?Height@CRect@@QBEHXZ	; CRect::Height
  03b21	2b f0		 sub	 esi, eax
  03b23	8b c6		 mov	 eax, esi
  03b25	0f af 45 f8	 imul	 eax, DWORD PTR _nCurrpos$[ebp]
  03b29	99		 cdq
  03b2a	f7 7d f0	 idiv	 DWORD PTR _realhight$[ebp]
  03b2d	89 45 e8	 mov	 DWORD PTR _pt$[ebp+4], eax

; 921  : 	pt.y=0-pt.y;

  03b30	33 d2		 xor	 edx, edx
  03b32	2b 55 e8	 sub	 edx, DWORD PTR _pt$[ebp+4]
  03b35	89 55 e8	 mov	 DWORD PTR _pt$[ebp+4], edx

; 922  : 	m_csLockV.Lock();

  03b38	8b 4d fc	 mov	 ecx, DWORD PTR _this$[ebp]
  03b3b	81 c1 b4 00 00
	00		 add	 ecx, 180		; 000000b4H
  03b41	e8 00 00 00 00	 call	 ?Lock@CCriticalSection@@QAEHXZ ; CCriticalSection::Lock

; 923  : 	m_vPtQueue.push_back(pt);

  03b46	8d 45 e4	 lea	 eax, DWORD PTR _pt$[ebp]
  03b49	50		 push	 eax
  03b4a	8b 4d fc	 mov	 ecx, DWORD PTR _this$[ebp]
  03b4d	81 c1 d8 00 00
	00		 add	 ecx, 216		; 000000d8H
  03b53	e8 00 00 00 00	 call	 ?push_back@?$deque@VCPoint@@V?$allocator@VCPoint@@@std@@@std@@QAEXABVCPoint@@@Z ; std::deque<CPoint,std::allocator<CPoint> >::push_back

; 924  : 	m_csLockV.Unlock();

  03b58	8b 4d fc	 mov	 ecx, DWORD PTR _this$[ebp]
  03b5b	81 c1 b4 00 00
	00		 add	 ecx, 180		; 000000b4H
  03b61	8b 55 fc	 mov	 edx, DWORD PTR _this$[ebp]
  03b64	8b 82 b4 00 00
	00		 mov	 eax, DWORD PTR [edx+180]
  03b6a	8b f4		 mov	 esi, esp
  03b6c	ff 50 1c	 call	 DWORD PTR [eax+28]
  03b6f	3b f4		 cmp	 esi, esp
  03b71	e8 00 00 00 00	 call	 __RTC_CheckEsp

; 925  : 	CoolSB_SetScrollPos(m_hWnd,SB_VERT,nCurrpos,TRUE);

  03b76	6a 01		 push	 1
  03b78	8b 4d f8	 mov	 ecx, DWORD PTR _nCurrpos$[ebp]
  03b7b	51		 push	 ecx
  03b7c	6a 01		 push	 1
  03b7e	8b 55 fc	 mov	 edx, DWORD PTR _this$[ebp]
  03b81	8b 42 20	 mov	 eax, DWORD PTR [edx+32]
  03b84	50		 push	 eax
  03b85	e8 00 00 00 00	 call	 _CoolSB_SetScrollPos@16

; 926  : 	CWnd::OnVScroll(nSBCode, nPos, pScrollBar);

  03b8a	8b 4d 10	 mov	 ecx, DWORD PTR _pScrollBar$[ebp]
  03b8d	51		 push	 ecx
  03b8e	8b 55 0c	 mov	 edx, DWORD PTR _nPos$[ebp]
  03b91	52		 push	 edx
  03b92	8b 45 08	 mov	 eax, DWORD PTR _nSBCode$[ebp]
  03b95	50		 push	 eax
  03b96	8b 4d fc	 mov	 ecx, DWORD PTR _this$[ebp]
  03b99	e8 00 00 00 00	 call	 ?OnVScroll@CWnd@@IAEXIIPAVCScrollBar@@@Z ; CWnd::OnVScroll

; 927  : }

  03b9e	52		 push	 edx
  03b9f	8b cd		 mov	 ecx, ebp
  03ba1	50		 push	 eax
  03ba2	8d 15 00 00 00
	00		 lea	 edx, DWORD PTR $L192819
  03ba8	e8 00 00 00 00	 call	 @_RTC_CheckStackVars@8
  03bad	58		 pop	 eax
  03bae	5a		 pop	 edx
  03baf	5f		 pop	 edi
  03bb0	5e		 pop	 esi
  03bb1	83 c4 4c	 add	 esp, 76			; 0000004cH
  03bb4	3b ec		 cmp	 ebp, esp
  03bb6	e8 00 00 00 00	 call	 __RTC_CheckEsp
  03bbb	8b e5		 mov	 esp, ebp
  03bbd	5d		 pop	 ebp
  03bbe	c2 0c 00	 ret	 12			; 0000000cH
$L192819:
  03bc1	01 00 00 00	 DD	 1
  03bc5	00 00 00 00	 DD	 $L192818
$L192818:
  03bc9	e4 ff ff ff	 DD	 -28			; ffffffe4H
  03bcd	08 00 00 00	 DD	 8
  03bd1	00 00 00 00	 DD	 $L192817
$L192817:
  03bd5	70		 DB	 112			; 00000070H
  03bd6	74		 DB	 116			; 00000074H
  03bd7	00		 DB	 0
$L192820:
  03bd8	00 00 00 00	 DD	 $L190547
  03bdc	00 00 00 00	 DD	 $L190549
  03be0	00 00 00 00	 DD	 $L190551
  03be4	00 00 00 00	 DD	 $L190553
  03be8	00 00 00 00	 DD	 $L190544
  03bec	00 00 00 00	 DD	 $L190557
?OnVScroll@CLocalMusicCoverList@@QAEXIIPAVCScrollBar@@@Z ENDP ; CLocalMusicCoverList::OnVScroll
_TEXT	ENDS
EXTRN	?OnShowWindow@CWnd@@IAEXHI@Z:NEAR		; CWnd::OnShowWindow
; Function compile flags: /Odt /RTCsu
_TEXT	SEGMENT
_this$ = -4						; size = 4
_bShow$ = 8						; size = 4
_nStatus$ = 12						; size = 4
?OnShowWindow@CLocalMusicCoverList@@QAEXHI@Z PROC NEAR	; CLocalMusicCoverList::OnShowWindow
; _this$ = ecx

; 930  : {

  03bf0	55		 push	 ebp
  03bf1	8b ec		 mov	 ebp, esp
  03bf3	51		 push	 ecx
  03bf4	c7 45 fc cc cc
	cc cc		 mov	 DWORD PTR [ebp-4], -858993460 ; ccccccccH
  03bfb	89 4d fc	 mov	 DWORD PTR _this$[ebp], ecx

; 931  : 	CWnd::OnShowWindow(bShow, nStatus);

  03bfe	8b 45 0c	 mov	 eax, DWORD PTR _nStatus$[ebp]
  03c01	50		 push	 eax
  03c02	8b 4d 08	 mov	 ecx, DWORD PTR _bShow$[ebp]
  03c05	51		 push	 ecx
  03c06	8b 4d fc	 mov	 ecx, DWORD PTR _this$[ebp]
  03c09	e8 00 00 00 00	 call	 ?OnShowWindow@CWnd@@IAEXHI@Z ; CWnd::OnShowWindow

; 932  : 	m_PaintScrollBar = bShow;

  03c0e	8b 55 fc	 mov	 edx, DWORD PTR _this$[ebp]
  03c11	8b 45 08	 mov	 eax, DWORD PTR _bShow$[ebp]
  03c14	89 82 60 01 00
	00		 mov	 DWORD PTR [edx+352], eax

; 933  : }

  03c1a	83 c4 04	 add	 esp, 4
  03c1d	3b ec		 cmp	 ebp, esp
  03c1f	e8 00 00 00 00	 call	 __RTC_CheckEsp
  03c24	8b e5		 mov	 esp, ebp
  03c26	5d		 pop	 ebp
  03c27	c2 08 00	 ret	 8
?OnShowWindow@CLocalMusicCoverList@@QAEXHI@Z ENDP	; CLocalMusicCoverList::OnShowWindow
_TEXT	ENDS
EXTRN	__imp__GetKeyState@4:NEAR
; Function compile flags: /Odt /RTCsu
_TEXT	SEGMENT
_i$190572 = -8						; size = 4
_this$ = -4						; size = 4
_nChar$ = 8						; size = 4
_nRepCnt$ = 12						; size = 4
_nFlags$ = 16						; size = 4
?OnKeyDown@CLocalMusicCoverList@@QAEXIII@Z PROC NEAR	; CLocalMusicCoverList::OnKeyDown
; _this$ = ecx

; 936  : {

  03c30	55		 push	 ebp
  03c31	8b ec		 mov	 ebp, esp
  03c33	83 ec 08	 sub	 esp, 8
  03c36	56		 push	 esi
  03c37	c7 45 f8 cc cc
	cc cc		 mov	 DWORD PTR [ebp-8], -858993460 ; ccccccccH
  03c3e	c7 45 fc cc cc
	cc cc		 mov	 DWORD PTR [ebp-4], -858993460 ; ccccccccH
  03c45	89 4d fc	 mov	 DWORD PTR _this$[ebp], ecx

; 937  : 	if( ( GetKeyState(VK_CONTROL) & 0xF0000000) &&
; 938  : 		( nChar=='A' || nChar=='a') )

  03c48	8b f4		 mov	 esi, esp
  03c4a	6a 11		 push	 17			; 00000011H
  03c4c	ff 15 00 00 00
	00		 call	 DWORD PTR __imp__GetKeyState@4
  03c52	3b f4		 cmp	 esi, esp
  03c54	e8 00 00 00 00	 call	 __RTC_CheckEsp
  03c59	0f bf c0	 movsx	 eax, ax
  03c5c	25 00 00 00 f0	 and	 eax, -268435456		; f0000000H
  03c61	74 56		 je	 SHORT $L190569
  03c63	83 7d 08 41	 cmp	 DWORD PTR _nChar$[ebp], 65 ; 00000041H
  03c67	74 06		 je	 SHORT $L190571
  03c69	83 7d 08 61	 cmp	 DWORD PTR _nChar$[ebp], 97 ; 00000061H
  03c6d	75 4a		 jne	 SHORT $L190569
$L190571:

; 939  : 	{
; 940  : 		for (int i=0;i<m_DataMgr.m_vItem.size();i++)

  03c6f	c7 45 f8 00 00
	00 00		 mov	 DWORD PTR _i$190572[ebp], 0
  03c76	eb 09		 jmp	 SHORT $L190573
$L190574:
  03c78	8b 4d f8	 mov	 ecx, DWORD PTR _i$190572[ebp]
  03c7b	83 c1 01	 add	 ecx, 1
  03c7e	89 4d f8	 mov	 DWORD PTR _i$190572[ebp], ecx
$L190573:
  03c81	8b 4d fc	 mov	 ecx, DWORD PTR _this$[ebp]
  03c84	81 c1 6c 01 00
	00		 add	 ecx, 364		; 0000016cH
  03c8a	e8 00 00 00 00	 call	 ?size@?$vector@U_tagLMCItemInfo@@V?$allocator@U_tagLMCItemInfo@@@std@@@std@@QBEIXZ ; std::vector<_tagLMCItemInfo,std::allocator<_tagLMCItemInfo> >::size
  03c8f	39 45 f8	 cmp	 DWORD PTR _i$190572[ebp], eax
  03c92	73 1b		 jae	 SHORT $L190575

; 941  : 			m_DataMgr.m_vItem[i].blSel = TRUE;

  03c94	8b 55 f8	 mov	 edx, DWORD PTR _i$190572[ebp]
  03c97	52		 push	 edx
  03c98	8b 4d fc	 mov	 ecx, DWORD PTR _this$[ebp]
  03c9b	81 c1 6c 01 00
	00		 add	 ecx, 364		; 0000016cH
  03ca1	e8 00 00 00 00	 call	 ??A?$vector@U_tagLMCItemInfo@@V?$allocator@U_tagLMCItemInfo@@@std@@@std@@QAEAAU_tagLMCItemInfo@@I@Z ; std::vector<_tagLMCItemInfo,std::allocator<_tagLMCItemInfo> >::operator[]
  03ca6	c7 40 20 01 00
	00 00		 mov	 DWORD PTR [eax+32], 1
  03cad	eb c9		 jmp	 SHORT $L190574
$L190575:

; 942  : 		OnMemoryDraw();

  03caf	6a 01		 push	 1
  03cb1	8b 4d fc	 mov	 ecx, DWORD PTR _this$[ebp]
  03cb4	e8 00 00 00 00	 call	 ?OnMemoryDraw@CLocalMusicCoverList@@IAEXH@Z ; CLocalMusicCoverList::OnMemoryDraw
$L190569:

; 943  : 		return;
; 944  : 	}
; 945  : }

  03cb9	5e		 pop	 esi
  03cba	83 c4 08	 add	 esp, 8
  03cbd	3b ec		 cmp	 ebp, esp
  03cbf	e8 00 00 00 00	 call	 __RTC_CheckEsp
  03cc4	8b e5		 mov	 esp, ebp
  03cc6	5d		 pop	 ebp
  03cc7	c2 0c 00	 ret	 12			; 0000000cH
?OnKeyDown@CLocalMusicCoverList@@QAEXIII@Z ENDP		; CLocalMusicCoverList::OnKeyDown
_TEXT	ENDS
PUBLIC	?EnsureVisible@CLocalMusicCoverList@@QAEXH@Z	; CLocalMusicCoverList::EnsureVisible
; Function compile flags: /Odt /RTCsu
_TEXT	SEGMENT
_pt$ = -16						; size = 8
_this$ = -4						; size = 4
_iIndex$ = 8						; size = 4
?EnsureVisible@CLocalMusicCoverList@@QAEXH@Z PROC NEAR	; CLocalMusicCoverList::EnsureVisible
; _this$ = ecx

; 948  : {

  03cd0	55		 push	 ebp
  03cd1	8b ec		 mov	 ebp, esp
  03cd3	83 ec 14	 sub	 esp, 20			; 00000014H
  03cd6	56		 push	 esi
  03cd7	b8 cc cc cc cc	 mov	 eax, -858993460		; ccccccccH
  03cdc	89 45 ec	 mov	 DWORD PTR [ebp-20], eax
  03cdf	89 45 f0	 mov	 DWORD PTR [ebp-16], eax
  03ce2	89 45 f4	 mov	 DWORD PTR [ebp-12], eax
  03ce5	89 45 f8	 mov	 DWORD PTR [ebp-8], eax
  03ce8	89 45 fc	 mov	 DWORD PTR [ebp-4], eax
  03ceb	89 4d fc	 mov	 DWORD PTR _this$[ebp], ecx

; 949  : 	CPoint pt=m_ptClientStart;

  03cee	8b 45 fc	 mov	 eax, DWORD PTR _this$[ebp]
  03cf1	8b 88 ac 00 00
	00		 mov	 ecx, DWORD PTR [eax+172]
  03cf7	8b 90 b0 00 00
	00		 mov	 edx, DWORD PTR [eax+176]
  03cfd	89 4d f0	 mov	 DWORD PTR _pt$[ebp], ecx
  03d00	89 55 f4	 mov	 DWORD PTR _pt$[ebp+4], edx

; 950  : 	if (m_DataMgr.m_vItem[iIndex].rc.top>m_rect.bottom)

  03d03	8b 45 08	 mov	 eax, DWORD PTR _iIndex$[ebp]
  03d06	50		 push	 eax
  03d07	8b 4d fc	 mov	 ecx, DWORD PTR _this$[ebp]
  03d0a	81 c1 6c 01 00
	00		 add	 ecx, 364		; 0000016cH
  03d10	e8 00 00 00 00	 call	 ??A?$vector@U_tagLMCItemInfo@@V?$allocator@U_tagLMCItemInfo@@@std@@@std@@QAEAAU_tagLMCItemInfo@@I@Z ; std::vector<_tagLMCItemInfo,std::allocator<_tagLMCItemInfo> >::operator[]
  03d15	8b 4d fc	 mov	 ecx, DWORD PTR _this$[ebp]
  03d18	8b 50 38	 mov	 edx, DWORD PTR [eax+56]
  03d1b	3b 91 98 00 00
	00		 cmp	 edx, DWORD PTR [ecx+152]
  03d21	7e 2f		 jle	 SHORT $L190581

; 951  : 		pt.y = pt.y-(m_DataMgr.m_vItem[iIndex].rc.top-m_rect.bottom+m_iItemHeight)-20;//20 temp

  03d23	8b 45 08	 mov	 eax, DWORD PTR _iIndex$[ebp]
  03d26	50		 push	 eax
  03d27	8b 4d fc	 mov	 ecx, DWORD PTR _this$[ebp]
  03d2a	81 c1 6c 01 00
	00		 add	 ecx, 364		; 0000016cH
  03d30	e8 00 00 00 00	 call	 ??A?$vector@U_tagLMCItemInfo@@V?$allocator@U_tagLMCItemInfo@@@std@@@std@@QAEAAU_tagLMCItemInfo@@I@Z ; std::vector<_tagLMCItemInfo,std::allocator<_tagLMCItemInfo> >::operator[]
  03d35	8b 4d fc	 mov	 ecx, DWORD PTR _this$[ebp]
  03d38	8b 50 38	 mov	 edx, DWORD PTR [eax+56]
  03d3b	2b 91 98 00 00
	00		 sub	 edx, DWORD PTR [ecx+152]
  03d41	8b 45 fc	 mov	 eax, DWORD PTR _this$[ebp]
  03d44	03 50 58	 add	 edx, DWORD PTR [eax+88]
  03d47	8b 4d f4	 mov	 ecx, DWORD PTR _pt$[ebp+4]
  03d4a	2b ca		 sub	 ecx, edx
  03d4c	83 e9 14	 sub	 ecx, 20			; 00000014H
  03d4f	89 4d f4	 mov	 DWORD PTR _pt$[ebp+4], ecx
$L190581:

; 952  : 	if(m_DataMgr.m_vItem[iIndex].rc.bottom<m_rect.top)

  03d52	8b 55 08	 mov	 edx, DWORD PTR _iIndex$[ebp]
  03d55	52		 push	 edx
  03d56	8b 4d fc	 mov	 ecx, DWORD PTR _this$[ebp]
  03d59	81 c1 6c 01 00
	00		 add	 ecx, 364		; 0000016cH
  03d5f	e8 00 00 00 00	 call	 ??A?$vector@U_tagLMCItemInfo@@V?$allocator@U_tagLMCItemInfo@@@std@@@std@@QAEAAU_tagLMCItemInfo@@I@Z ; std::vector<_tagLMCItemInfo,std::allocator<_tagLMCItemInfo> >::operator[]
  03d64	8b 4d fc	 mov	 ecx, DWORD PTR _this$[ebp]
  03d67	8b 50 40	 mov	 edx, DWORD PTR [eax+64]
  03d6a	3b 91 90 00 00
	00		 cmp	 edx, DWORD PTR [ecx+144]
  03d70	7d 2a		 jge	 SHORT $L190582

; 953  : 		pt.y = pt.y+(m_rect.top-m_DataMgr.m_vItem[iIndex].rc.bottom)+m_iItemHeight;

  03d72	8b 45 08	 mov	 eax, DWORD PTR _iIndex$[ebp]
  03d75	50		 push	 eax
  03d76	8b 4d fc	 mov	 ecx, DWORD PTR _this$[ebp]
  03d79	81 c1 6c 01 00
	00		 add	 ecx, 364		; 0000016cH
  03d7f	e8 00 00 00 00	 call	 ??A?$vector@U_tagLMCItemInfo@@V?$allocator@U_tagLMCItemInfo@@@std@@@std@@QAEAAU_tagLMCItemInfo@@I@Z ; std::vector<_tagLMCItemInfo,std::allocator<_tagLMCItemInfo> >::operator[]
  03d84	8b 4d fc	 mov	 ecx, DWORD PTR _this$[ebp]
  03d87	8b 91 90 00 00
	00		 mov	 edx, DWORD PTR [ecx+144]
  03d8d	2b 50 40	 sub	 edx, DWORD PTR [eax+64]
  03d90	03 55 f4	 add	 edx, DWORD PTR _pt$[ebp+4]
  03d93	8b 45 fc	 mov	 eax, DWORD PTR _this$[ebp]
  03d96	03 50 58	 add	 edx, DWORD PTR [eax+88]
  03d99	89 55 f4	 mov	 DWORD PTR _pt$[ebp+4], edx
$L190582:

; 954  : 	m_DataMgr.m_vItem[iIndex].blSel = TRUE;

  03d9c	8b 4d 08	 mov	 ecx, DWORD PTR _iIndex$[ebp]
  03d9f	51		 push	 ecx
  03da0	8b 4d fc	 mov	 ecx, DWORD PTR _this$[ebp]
  03da3	81 c1 6c 01 00
	00		 add	 ecx, 364		; 0000016cH
  03da9	e8 00 00 00 00	 call	 ??A?$vector@U_tagLMCItemInfo@@V?$allocator@U_tagLMCItemInfo@@@std@@@std@@QAEAAU_tagLMCItemInfo@@I@Z ; std::vector<_tagLMCItemInfo,std::allocator<_tagLMCItemInfo> >::operator[]
  03dae	c7 40 20 01 00
	00 00		 mov	 DWORD PTR [eax+32], 1

; 955  : 	m_csLockV.Lock();

  03db5	8b 4d fc	 mov	 ecx, DWORD PTR _this$[ebp]
  03db8	81 c1 b4 00 00
	00		 add	 ecx, 180		; 000000b4H
  03dbe	e8 00 00 00 00	 call	 ?Lock@CCriticalSection@@QAEHXZ ; CCriticalSection::Lock

; 956  : 	m_vPtQueue.push_back(pt);

  03dc3	8d 55 f0	 lea	 edx, DWORD PTR _pt$[ebp]
  03dc6	52		 push	 edx
  03dc7	8b 4d fc	 mov	 ecx, DWORD PTR _this$[ebp]
  03dca	81 c1 d8 00 00
	00		 add	 ecx, 216		; 000000d8H
  03dd0	e8 00 00 00 00	 call	 ?push_back@?$deque@VCPoint@@V?$allocator@VCPoint@@@std@@@std@@QAEXABVCPoint@@@Z ; std::deque<CPoint,std::allocator<CPoint> >::push_back

; 957  : 	m_csLockV.Unlock();

  03dd5	8b 4d fc	 mov	 ecx, DWORD PTR _this$[ebp]
  03dd8	81 c1 b4 00 00
	00		 add	 ecx, 180		; 000000b4H
  03dde	8b 45 fc	 mov	 eax, DWORD PTR _this$[ebp]
  03de1	8b 90 b4 00 00
	00		 mov	 edx, DWORD PTR [eax+180]
  03de7	8b f4		 mov	 esi, esp
  03de9	ff 52 1c	 call	 DWORD PTR [edx+28]
  03dec	3b f4		 cmp	 esi, esp
  03dee	e8 00 00 00 00	 call	 __RTC_CheckEsp

; 958  : }

  03df3	52		 push	 edx
  03df4	8b cd		 mov	 ecx, ebp
  03df6	50		 push	 eax
  03df7	8d 15 00 00 00
	00		 lea	 edx, DWORD PTR $L192826
  03dfd	e8 00 00 00 00	 call	 @_RTC_CheckStackVars@8
  03e02	58		 pop	 eax
  03e03	5a		 pop	 edx
  03e04	5e		 pop	 esi
  03e05	83 c4 14	 add	 esp, 20			; 00000014H
  03e08	3b ec		 cmp	 ebp, esp
  03e0a	e8 00 00 00 00	 call	 __RTC_CheckEsp
  03e0f	8b e5		 mov	 esp, ebp
  03e11	5d		 pop	 ebp
  03e12	c2 04 00	 ret	 4
$L192826:
  03e15	01 00 00 00	 DD	 1
  03e19	00 00 00 00	 DD	 $L192825
$L192825:
  03e1d	f0 ff ff ff	 DD	 -16			; fffffff0H
  03e21	08 00 00 00	 DD	 8
  03e25	00 00 00 00	 DD	 $L192824
$L192824:
  03e29	70		 DB	 112			; 00000070H
  03e2a	74		 DB	 116			; 00000074H
  03e2b	00		 DB	 0
?EnsureVisible@CLocalMusicCoverList@@QAEXH@Z ENDP	; CLocalMusicCoverList::EnsureVisible
_TEXT	ENDS
PUBLIC	?size@?$vector@HV?$allocator@H@std@@@std@@QBEIXZ ; std::vector<int,std::allocator<int> >::size
PUBLIC	??A?$vector@HV?$allocator@H@std@@@std@@QAEAAHI@Z ; std::vector<int,std::allocator<int> >::operator[]
PUBLIC	??Diterator@?$vector@HV?$allocator@H@std@@@std@@QBEAAHXZ ; std::vector<int,std::allocator<int> >::iterator::operator*
PUBLIC	??Fiterator@?$vector@HV?$allocator@H@std@@@std@@QAEAAV012@XZ ; std::vector<int,std::allocator<int> >::iterator::operator--
EXTRN	?PreTranslateMessage@CWnd@@UAEHPAUtagMSG@@@Z:NEAR ; CWnd::PreTranslateMessage
xdata$x	SEGMENT
$T192852 DD	0ffffffffH
	DD	FLAT:$L192839
	DD	0ffffffffH
	DD	FLAT:$L192840
	DD	0ffffffffH
	DD	FLAT:$L192841
	DD	0ffffffffH
	DD	FLAT:$L192842
$T192844 DD	019930520H
	DD	04H
	DD	FLAT:$T192852
	DD	2 DUP(00H)
	DD	2 DUP(00H)
; Function compile flags: /Odt /RTCsu
xdata$x	ENDS
_TEXT	SEGMENT
tv211 = -184						; size = 4
tv141 = -180						; size = 4
$T192838 = -176						; size = 4
$T192837 = -172						; size = 4
$T192836 = -168						; size = 4
$T192835 = -164						; size = 4
$T192834 = -160						; size = 4
$T192833 = -156						; size = 4
$T192832 = -152						; size = 4
$T192831 = -148						; size = 4
$T192830 = -144						; size = 4
$T192829 = -140						; size = 4
$T192828 = -136						; size = 4
_iSel$190638 = -132					; size = 4
_vIndex$190631 = -124					; size = 16
_iSel$190625 = -104					; size = 4
_vIndex$190618 = -96					; size = 16
_isel$190612 = -76					; size = 4
_isel$190606 = -72					; size = 4
_vIndex$190601 = -64					; size = 16
_isel$190597 = -44					; size = 4
_vIndex$190590 = -36					; size = 16
_this$ = -16						; size = 4
__$EHRec$ = -12						; size = 12
_pMsg$ = 8						; size = 4
?PreTranslateMessage@CLocalMusicCoverList@@UAEHPAUtagMSG@@@Z PROC NEAR ; CLocalMusicCoverList::PreTranslateMessage
; _this$ = ecx

; 960  : {

  03e30	55		 push	 ebp
  03e31	8b ec		 mov	 ebp, esp
  03e33	6a ff		 push	 -1
  03e35	68 00 00 00 00	 push	 __ehhandler$?PreTranslateMessage@CLocalMusicCoverList@@UAEHPAUtagMSG@@@Z
  03e3a	64 a1 00 00 00
	00		 mov	 eax, DWORD PTR fs:__except_list
  03e40	50		 push	 eax
  03e41	64 89 25 00 00
	00 00		 mov	 DWORD PTR fs:__except_list, esp
  03e48	81 ec ac 00 00
	00		 sub	 esp, 172		; 000000acH
  03e4e	56		 push	 esi
  03e4f	57		 push	 edi
  03e50	51		 push	 ecx
  03e51	8d bd 48 ff ff
	ff		 lea	 edi, DWORD PTR [ebp-184]
  03e57	b9 2b 00 00 00	 mov	 ecx, 43			; 0000002bH
  03e5c	b8 cc cc cc cc	 mov	 eax, -858993460		; ccccccccH
  03e61	f3 ab		 rep stosd
  03e63	59		 pop	 ecx
  03e64	89 4d f0	 mov	 DWORD PTR _this$[ebp], ecx

; 961  : 	if(pMsg->message==WM_KEYDOWN)

  03e67	8b 45 08	 mov	 eax, DWORD PTR _pMsg$[ebp]
  03e6a	81 78 04 00 01
	00 00		 cmp	 DWORD PTR [eax+4], 256	; 00000100H
  03e71	0f 85 db 05 00
	00		 jne	 $L190587

; 962  : 	{
; 963  : 		if (pMsg->wParam==VK_LEFT)

  03e77	8b 4d 08	 mov	 ecx, DWORD PTR _pMsg$[ebp]
  03e7a	83 79 08 25	 cmp	 DWORD PTR [ecx+8], 37	; 00000025H
  03e7e	0f 85 40 01 00
	00		 jne	 $L190588

; 964  : 		{
; 965  : 			vector<int> vIndex = GetSelectItem();

  03e84	8d 55 dc	 lea	 edx, DWORD PTR _vIndex$190590[ebp]
  03e87	52		 push	 edx
  03e88	8b 4d f0	 mov	 ecx, DWORD PTR _this$[ebp]
  03e8b	e8 00 00 00 00	 call	 ?GetSelectItem@CLocalMusicCoverList@@QAE?AV?$vector@HV?$allocator@H@std@@@std@@XZ ; CLocalMusicCoverList::GetSelectItem
  03e90	c7 45 fc 00 00
	00 00		 mov	 DWORD PTR __$EHRec$[ebp+8], 0

; 966  : 			if(vIndex.size()==0) 

  03e97	8d 4d dc	 lea	 ecx, DWORD PTR _vIndex$190590[ebp]
  03e9a	e8 00 00 00 00	 call	 ?size@?$vector@HV?$allocator@H@std@@@std@@QBEIXZ ; std::vector<int,std::allocator<int> >::size
  03e9f	85 c0		 test	 eax, eax
  03ea1	75 45		 jne	 SHORT $L190592

; 967  : 			{
; 968  : 				m_DataMgr.m_vItem[0].blSel = TRUE;

  03ea3	6a 00		 push	 0
  03ea5	8b 4d f0	 mov	 ecx, DWORD PTR _this$[ebp]
  03ea8	81 c1 6c 01 00
	00		 add	 ecx, 364		; 0000016cH
  03eae	e8 00 00 00 00	 call	 ??A?$vector@U_tagLMCItemInfo@@V?$allocator@U_tagLMCItemInfo@@@std@@@std@@QAEAAU_tagLMCItemInfo@@I@Z ; std::vector<_tagLMCItemInfo,std::allocator<_tagLMCItemInfo> >::operator[]
  03eb3	c7 40 20 01 00
	00 00		 mov	 DWORD PTR [eax+32], 1

; 969  : 				EnsureVisible(0);

  03eba	6a 00		 push	 0
  03ebc	8b 4d f0	 mov	 ecx, DWORD PTR _this$[ebp]
  03ebf	e8 00 00 00 00	 call	 ?EnsureVisible@CLocalMusicCoverList@@QAEXH@Z ; CLocalMusicCoverList::EnsureVisible

; 970  : 				return TRUE;

  03ec4	c7 85 78 ff ff
	ff 01 00 00 00	 mov	 DWORD PTR $T192828[ebp], 1
  03ece	c7 45 fc ff ff
	ff ff		 mov	 DWORD PTR __$EHRec$[ebp+8], -1
  03ed5	8d 4d dc	 lea	 ecx, DWORD PTR _vIndex$190590[ebp]
  03ed8	e8 00 00 00 00	 call	 ??1?$vector@HV?$allocator@H@std@@@std@@QAE@XZ ; std::vector<int,std::allocator<int> >::~vector<int,std::allocator<int> >
  03edd	8b 85 78 ff ff
	ff		 mov	 eax, DWORD PTR $T192828[ebp]
  03ee3	e9 76 05 00 00	 jmp	 $L190586
$L190592:

; 971  : 			}
; 972  : 			if (vIndex.size()>1)

  03ee8	8d 4d dc	 lea	 ecx, DWORD PTR _vIndex$190590[ebp]
  03eeb	e8 00 00 00 00	 call	 ?size@?$vector@HV?$allocator@H@std@@@std@@QBEIXZ ; std::vector<int,std::allocator<int> >::size
  03ef0	83 f8 01	 cmp	 eax, 1
  03ef3	76 41		 jbe	 SHORT $L190594

; 973  : 			{
; 974  : 				UnSelectAll();

  03ef5	8b 4d f0	 mov	 ecx, DWORD PTR _this$[ebp]
  03ef8	e8 00 00 00 00	 call	 ?UnSelectAll@CLocalMusicCoverList@@IAEXXZ ; CLocalMusicCoverList::UnSelectAll

; 975  : 				m_DataMgr.m_vItem[vIndex[0]].blSel = TRUE;

  03efd	6a 00		 push	 0
  03eff	8d 4d dc	 lea	 ecx, DWORD PTR _vIndex$190590[ebp]
  03f02	e8 00 00 00 00	 call	 ??A?$vector@HV?$allocator@H@std@@@std@@QAEAAHI@Z ; std::vector<int,std::allocator<int> >::operator[]
  03f07	8b 00		 mov	 eax, DWORD PTR [eax]
  03f09	50		 push	 eax
  03f0a	8b 4d f0	 mov	 ecx, DWORD PTR _this$[ebp]
  03f0d	81 c1 6c 01 00
	00		 add	 ecx, 364		; 0000016cH
  03f13	e8 00 00 00 00	 call	 ??A?$vector@U_tagLMCItemInfo@@V?$allocator@U_tagLMCItemInfo@@@std@@@std@@QAEAAU_tagLMCItemInfo@@I@Z ; std::vector<_tagLMCItemInfo,std::allocator<_tagLMCItemInfo> >::operator[]
  03f18	c7 40 20 01 00
	00 00		 mov	 DWORD PTR [eax+32], 1

; 976  : 				EnsureVisible(vIndex[0]);

  03f1f	6a 00		 push	 0
  03f21	8d 4d dc	 lea	 ecx, DWORD PTR _vIndex$190590[ebp]
  03f24	e8 00 00 00 00	 call	 ??A?$vector@HV?$allocator@H@std@@@std@@QAEAAHI@Z ; std::vector<int,std::allocator<int> >::operator[]
  03f29	8b 08		 mov	 ecx, DWORD PTR [eax]
  03f2b	51		 push	 ecx
  03f2c	8b 4d f0	 mov	 ecx, DWORD PTR _this$[ebp]
  03f2f	e8 00 00 00 00	 call	 ?EnsureVisible@CLocalMusicCoverList@@QAEXH@Z ; CLocalMusicCoverList::EnsureVisible

; 977  : 			}
; 978  : 			else

  03f34	eb 6a		 jmp	 SHORT $L190595
$L190594:

; 979  : 			{
; 980  : 				if (vIndex[0]>0)

  03f36	6a 00		 push	 0
  03f38	8d 4d dc	 lea	 ecx, DWORD PTR _vIndex$190590[ebp]
  03f3b	e8 00 00 00 00	 call	 ??A?$vector@HV?$allocator@H@std@@@std@@QAEAAHI@Z ; std::vector<int,std::allocator<int> >::operator[]
  03f40	83 38 00	 cmp	 DWORD PTR [eax], 0
  03f43	7e 5b		 jle	 SHORT $L190595

; 981  : 				{
; 982  : 					UnSelectAll();

  03f45	8b 4d f0	 mov	 ecx, DWORD PTR _this$[ebp]
  03f48	e8 00 00 00 00	 call	 ?UnSelectAll@CLocalMusicCoverList@@IAEXXZ ; CLocalMusicCoverList::UnSelectAll

; 983  : 					int isel=--vIndex[0];

  03f4d	6a 00		 push	 0
  03f4f	8d 4d dc	 lea	 ecx, DWORD PTR _vIndex$190590[ebp]
  03f52	e8 00 00 00 00	 call	 ??A?$vector@HV?$allocator@H@std@@@std@@QAEAAHI@Z ; std::vector<int,std::allocator<int> >::operator[]
  03f57	89 85 4c ff ff
	ff		 mov	 DWORD PTR tv141[ebp], eax
  03f5d	8b 95 4c ff ff
	ff		 mov	 edx, DWORD PTR tv141[ebp]
  03f63	8b 02		 mov	 eax, DWORD PTR [edx]
  03f65	83 e8 01	 sub	 eax, 1
  03f68	8b 8d 4c ff ff
	ff		 mov	 ecx, DWORD PTR tv141[ebp]
  03f6e	89 01		 mov	 DWORD PTR [ecx], eax
  03f70	8b 95 4c ff ff
	ff		 mov	 edx, DWORD PTR tv141[ebp]
  03f76	8b 02		 mov	 eax, DWORD PTR [edx]
  03f78	89 45 d4	 mov	 DWORD PTR _isel$190597[ebp], eax

; 984  : 					m_DataMgr.m_vItem[isel].blSel=TRUE;

  03f7b	8b 4d d4	 mov	 ecx, DWORD PTR _isel$190597[ebp]
  03f7e	51		 push	 ecx
  03f7f	8b 4d f0	 mov	 ecx, DWORD PTR _this$[ebp]
  03f82	81 c1 6c 01 00
	00		 add	 ecx, 364		; 0000016cH
  03f88	e8 00 00 00 00	 call	 ??A?$vector@U_tagLMCItemInfo@@V?$allocator@U_tagLMCItemInfo@@@std@@@std@@QAEAAU_tagLMCItemInfo@@I@Z ; std::vector<_tagLMCItemInfo,std::allocator<_tagLMCItemInfo> >::operator[]
  03f8d	c7 40 20 01 00
	00 00		 mov	 DWORD PTR [eax+32], 1

; 985  : 					EnsureVisible(isel);

  03f94	8b 55 d4	 mov	 edx, DWORD PTR _isel$190597[ebp]
  03f97	52		 push	 edx
  03f98	8b 4d f0	 mov	 ecx, DWORD PTR _this$[ebp]
  03f9b	e8 00 00 00 00	 call	 ?EnsureVisible@CLocalMusicCoverList@@QAEXH@Z ; CLocalMusicCoverList::EnsureVisible
$L190595:

; 986  : 				}
; 987  : 			}
; 988  : 			//SetFocus();
; 989  : 			return 1;

  03fa0	c7 85 74 ff ff
	ff 01 00 00 00	 mov	 DWORD PTR $T192829[ebp], 1
  03faa	c7 45 fc ff ff
	ff ff		 mov	 DWORD PTR __$EHRec$[ebp+8], -1
  03fb1	8d 4d dc	 lea	 ecx, DWORD PTR _vIndex$190590[ebp]
  03fb4	e8 00 00 00 00	 call	 ??1?$vector@HV?$allocator@H@std@@@std@@QAE@XZ ; std::vector<int,std::allocator<int> >::~vector<int,std::allocator<int> >
  03fb9	8b 85 74 ff ff
	ff		 mov	 eax, DWORD PTR $T192829[ebp]
  03fbf	e9 9a 04 00 00	 jmp	 $L190586
$L190588:

; 990  : 		}
; 991  : 		if (pMsg->wParam==VK_RIGHT)

  03fc4	8b 45 08	 mov	 eax, DWORD PTR _pMsg$[ebp]
  03fc7	83 78 08 27	 cmp	 DWORD PTR [eax+8], 39	; 00000027H
  03fcb	0f 85 9c 01 00
	00		 jne	 $L190599

; 992  : 		{
; 993  : 			vector<int> vIndex = GetSelectItem();

  03fd1	8d 4d c0	 lea	 ecx, DWORD PTR _vIndex$190601[ebp]
  03fd4	51		 push	 ecx
  03fd5	8b 4d f0	 mov	 ecx, DWORD PTR _this$[ebp]
  03fd8	e8 00 00 00 00	 call	 ?GetSelectItem@CLocalMusicCoverList@@QAE?AV?$vector@HV?$allocator@H@std@@@std@@XZ ; CLocalMusicCoverList::GetSelectItem
  03fdd	c7 45 fc 01 00
	00 00		 mov	 DWORD PTR __$EHRec$[ebp+8], 1

; 994  : 			if(vIndex.size()==0) 

  03fe4	8d 4d c0	 lea	 ecx, DWORD PTR _vIndex$190601[ebp]
  03fe7	e8 00 00 00 00	 call	 ?size@?$vector@HV?$allocator@H@std@@@std@@QBEIXZ ; std::vector<int,std::allocator<int> >::size
  03fec	85 c0		 test	 eax, eax
  03fee	75 45		 jne	 SHORT $L190603

; 995  : 			{
; 996  : 				m_DataMgr.m_vItem[0].blSel = TRUE;

  03ff0	6a 00		 push	 0
  03ff2	8b 4d f0	 mov	 ecx, DWORD PTR _this$[ebp]
  03ff5	81 c1 6c 01 00
	00		 add	 ecx, 364		; 0000016cH
  03ffb	e8 00 00 00 00	 call	 ??A?$vector@U_tagLMCItemInfo@@V?$allocator@U_tagLMCItemInfo@@@std@@@std@@QAEAAU_tagLMCItemInfo@@I@Z ; std::vector<_tagLMCItemInfo,std::allocator<_tagLMCItemInfo> >::operator[]
  04000	c7 40 20 01 00
	00 00		 mov	 DWORD PTR [eax+32], 1

; 997  : 				EnsureVisible(0);

  04007	6a 00		 push	 0
  04009	8b 4d f0	 mov	 ecx, DWORD PTR _this$[ebp]
  0400c	e8 00 00 00 00	 call	 ?EnsureVisible@CLocalMusicCoverList@@QAEXH@Z ; CLocalMusicCoverList::EnsureVisible

; 998  : 				return TRUE;

  04011	c7 85 70 ff ff
	ff 01 00 00 00	 mov	 DWORD PTR $T192830[ebp], 1
  0401b	c7 45 fc ff ff
	ff ff		 mov	 DWORD PTR __$EHRec$[ebp+8], -1
  04022	8d 4d c0	 lea	 ecx, DWORD PTR _vIndex$190601[ebp]
  04025	e8 00 00 00 00	 call	 ??1?$vector@HV?$allocator@H@std@@@std@@QAE@XZ ; std::vector<int,std::allocator<int> >::~vector<int,std::allocator<int> >
  0402a	8b 85 70 ff ff
	ff		 mov	 eax, DWORD PTR $T192830[ebp]
  04030	e9 29 04 00 00	 jmp	 $L190586
$L190603:

; 999  : 			}
; 1000 : 			if (vIndex.size()>1)

  04035	8d 4d c0	 lea	 ecx, DWORD PTR _vIndex$190601[ebp]
  04038	e8 00 00 00 00	 call	 ?size@?$vector@HV?$allocator@H@std@@@std@@QBEIXZ ; std::vector<int,std::allocator<int> >::size
  0403d	83 f8 01	 cmp	 eax, 1
  04040	76 54		 jbe	 SHORT $L190605

; 1001 : 			{
; 1002 : 				UnSelectAll();

  04042	8b 4d f0	 mov	 ecx, DWORD PTR _this$[ebp]
  04045	e8 00 00 00 00	 call	 ?UnSelectAll@CLocalMusicCoverList@@IAEXXZ ; CLocalMusicCoverList::UnSelectAll

; 1003 : 				int isel=*(--vIndex.end());

  0404a	8d 95 6c ff ff
	ff		 lea	 edx, DWORD PTR $T192831[ebp]
  04050	52		 push	 edx
  04051	8d 4d c0	 lea	 ecx, DWORD PTR _vIndex$190601[ebp]
  04054	e8 00 00 00 00	 call	 ?end@?$vector@HV?$allocator@H@std@@@std@@QAE?AViterator@12@XZ ; std::vector<int,std::allocator<int> >::end
  04059	8b c8		 mov	 ecx, eax
  0405b	e8 00 00 00 00	 call	 ??Fiterator@?$vector@HV?$allocator@H@std@@@std@@QAEAAV012@XZ ; std::vector<int,std::allocator<int> >::iterator::operator--
  04060	8b c8		 mov	 ecx, eax
  04062	e8 00 00 00 00	 call	 ??Diterator@?$vector@HV?$allocator@H@std@@@std@@QBEAAHXZ ; std::vector<int,std::allocator<int> >::iterator::operator*
  04067	8b 00		 mov	 eax, DWORD PTR [eax]
  04069	89 45 b8	 mov	 DWORD PTR _isel$190606[ebp], eax

; 1004 : 				m_DataMgr.m_vItem[isel].blSel=TRUE;

  0406c	8b 4d b8	 mov	 ecx, DWORD PTR _isel$190606[ebp]
  0406f	51		 push	 ecx
  04070	8b 4d f0	 mov	 ecx, DWORD PTR _this$[ebp]
  04073	81 c1 6c 01 00
	00		 add	 ecx, 364		; 0000016cH
  04079	e8 00 00 00 00	 call	 ??A?$vector@U_tagLMCItemInfo@@V?$allocator@U_tagLMCItemInfo@@@std@@@std@@QAEAAU_tagLMCItemInfo@@I@Z ; std::vector<_tagLMCItemInfo,std::allocator<_tagLMCItemInfo> >::operator[]
  0407e	c7 40 20 01 00
	00 00		 mov	 DWORD PTR [eax+32], 1

; 1005 : 				EnsureVisible(isel);

  04085	8b 55 b8	 mov	 edx, DWORD PTR _isel$190606[ebp]
  04088	52		 push	 edx
  04089	8b 4d f0	 mov	 ecx, DWORD PTR _this$[ebp]
  0408c	e8 00 00 00 00	 call	 ?EnsureVisible@CLocalMusicCoverList@@QAEXH@Z ; CLocalMusicCoverList::EnsureVisible

; 1006 : 			}
; 1007 : 			else if(vIndex.size()==1)

  04091	e9 b3 00 00 00	 jmp	 $L190608
$L190605:
  04096	8d 4d c0	 lea	 ecx, DWORD PTR _vIndex$190601[ebp]
  04099	e8 00 00 00 00	 call	 ?size@?$vector@HV?$allocator@H@std@@@std@@QBEIXZ ; std::vector<int,std::allocator<int> >::size
  0409e	83 f8 01	 cmp	 eax, 1
  040a1	0f 85 a2 00 00
	00		 jne	 $L190608

; 1008 : 			{
; 1009 : 				if (*(--vIndex.end())<m_DataMgr.m_vItem.size()-1)

  040a7	8d 85 68 ff ff
	ff		 lea	 eax, DWORD PTR $T192832[ebp]
  040ad	50		 push	 eax
  040ae	8d 4d c0	 lea	 ecx, DWORD PTR _vIndex$190601[ebp]
  040b1	e8 00 00 00 00	 call	 ?end@?$vector@HV?$allocator@H@std@@@std@@QAE?AViterator@12@XZ ; std::vector<int,std::allocator<int> >::end
  040b6	8b c8		 mov	 ecx, eax
  040b8	e8 00 00 00 00	 call	 ??Fiterator@?$vector@HV?$allocator@H@std@@@std@@QAEAAV012@XZ ; std::vector<int,std::allocator<int> >::iterator::operator--
  040bd	8b c8		 mov	 ecx, eax
  040bf	e8 00 00 00 00	 call	 ??Diterator@?$vector@HV?$allocator@H@std@@@std@@QBEAAHXZ ; std::vector<int,std::allocator<int> >::iterator::operator*
  040c4	8b f0		 mov	 esi, eax
  040c6	8b 4d f0	 mov	 ecx, DWORD PTR _this$[ebp]
  040c9	81 c1 6c 01 00
	00		 add	 ecx, 364		; 0000016cH
  040cf	e8 00 00 00 00	 call	 ?size@?$vector@U_tagLMCItemInfo@@V?$allocator@U_tagLMCItemInfo@@@std@@@std@@QBEIXZ ; std::vector<_tagLMCItemInfo,std::allocator<_tagLMCItemInfo> >::size
  040d4	83 e8 01	 sub	 eax, 1
  040d7	39 06		 cmp	 DWORD PTR [esi], eax
  040d9	73 6e		 jae	 SHORT $L190608

; 1010 : 				{
; 1011 : 					UnSelectAll();

  040db	8b 4d f0	 mov	 ecx, DWORD PTR _this$[ebp]
  040de	e8 00 00 00 00	 call	 ?UnSelectAll@CLocalMusicCoverList@@IAEXXZ ; CLocalMusicCoverList::UnSelectAll

; 1012 : 					int isel=++*(--vIndex.end());

  040e3	8d 8d 64 ff ff
	ff		 lea	 ecx, DWORD PTR $T192833[ebp]
  040e9	51		 push	 ecx
  040ea	8d 4d c0	 lea	 ecx, DWORD PTR _vIndex$190601[ebp]
  040ed	e8 00 00 00 00	 call	 ?end@?$vector@HV?$allocator@H@std@@@std@@QAE?AViterator@12@XZ ; std::vector<int,std::allocator<int> >::end
  040f2	8b c8		 mov	 ecx, eax
  040f4	e8 00 00 00 00	 call	 ??Fiterator@?$vector@HV?$allocator@H@std@@@std@@QAEAAV012@XZ ; std::vector<int,std::allocator<int> >::iterator::operator--
  040f9	8b c8		 mov	 ecx, eax
  040fb	e8 00 00 00 00	 call	 ??Diterator@?$vector@HV?$allocator@H@std@@@std@@QBEAAHXZ ; std::vector<int,std::allocator<int> >::iterator::operator*
  04100	89 85 48 ff ff
	ff		 mov	 DWORD PTR tv211[ebp], eax
  04106	8b 95 48 ff ff
	ff		 mov	 edx, DWORD PTR tv211[ebp]
  0410c	8b 02		 mov	 eax, DWORD PTR [edx]
  0410e	83 c0 01	 add	 eax, 1
  04111	8b 8d 48 ff ff
	ff		 mov	 ecx, DWORD PTR tv211[ebp]
  04117	89 01		 mov	 DWORD PTR [ecx], eax
  04119	8b 95 48 ff ff
	ff		 mov	 edx, DWORD PTR tv211[ebp]
  0411f	8b 02		 mov	 eax, DWORD PTR [edx]
  04121	89 45 b4	 mov	 DWORD PTR _isel$190612[ebp], eax

; 1013 : 					m_DataMgr.m_vItem[isel].blSel=TRUE;

  04124	8b 4d b4	 mov	 ecx, DWORD PTR _isel$190612[ebp]
  04127	51		 push	 ecx
  04128	8b 4d f0	 mov	 ecx, DWORD PTR _this$[ebp]
  0412b	81 c1 6c 01 00
	00		 add	 ecx, 364		; 0000016cH
  04131	e8 00 00 00 00	 call	 ??A?$vector@U_tagLMCItemInfo@@V?$allocator@U_tagLMCItemInfo@@@std@@@std@@QAEAAU_tagLMCItemInfo@@I@Z ; std::vector<_tagLMCItemInfo,std::allocator<_tagLMCItemInfo> >::operator[]
  04136	c7 40 20 01 00
	00 00		 mov	 DWORD PTR [eax+32], 1

; 1014 : 					EnsureVisible(isel);

  0413d	8b 55 b4	 mov	 edx, DWORD PTR _isel$190612[ebp]
  04140	52		 push	 edx
  04141	8b 4d f0	 mov	 ecx, DWORD PTR _this$[ebp]
  04144	e8 00 00 00 00	 call	 ?EnsureVisible@CLocalMusicCoverList@@QAEXH@Z ; CLocalMusicCoverList::EnsureVisible
$L190608:

; 1015 : 				}
; 1016 : 			}
; 1017 : 			//SetFocus();
; 1018 : 			return TRUE;

  04149	c7 85 60 ff ff
	ff 01 00 00 00	 mov	 DWORD PTR $T192834[ebp], 1
  04153	c7 45 fc ff ff
	ff ff		 mov	 DWORD PTR __$EHRec$[ebp+8], -1
  0415a	8d 4d c0	 lea	 ecx, DWORD PTR _vIndex$190601[ebp]
  0415d	e8 00 00 00 00	 call	 ??1?$vector@HV?$allocator@H@std@@@std@@QAE@XZ ; std::vector<int,std::allocator<int> >::~vector<int,std::allocator<int> >
  04162	8b 85 60 ff ff
	ff		 mov	 eax, DWORD PTR $T192834[ebp]
  04168	e9 f1 02 00 00	 jmp	 $L190586
$L190599:

; 1019 : 		}
; 1020 : 		else if (pMsg->wParam==VK_UP)

  0416d	8b 45 08	 mov	 eax, DWORD PTR _pMsg$[ebp]
  04170	83 78 08 26	 cmp	 DWORD PTR [eax+8], 38	; 00000026H
  04174	0f 85 4e 01 00
	00		 jne	 $L190616

; 1021 : 		{
; 1022 : 			vector<int> vIndex = GetSelectItem();

  0417a	8d 4d a0	 lea	 ecx, DWORD PTR _vIndex$190618[ebp]
  0417d	51		 push	 ecx
  0417e	8b 4d f0	 mov	 ecx, DWORD PTR _this$[ebp]
  04181	e8 00 00 00 00	 call	 ?GetSelectItem@CLocalMusicCoverList@@QAE?AV?$vector@HV?$allocator@H@std@@@std@@XZ ; CLocalMusicCoverList::GetSelectItem
  04186	c7 45 fc 02 00
	00 00		 mov	 DWORD PTR __$EHRec$[ebp+8], 2

; 1023 : 			if(vIndex.size()==0) 

  0418d	8d 4d a0	 lea	 ecx, DWORD PTR _vIndex$190618[ebp]
  04190	e8 00 00 00 00	 call	 ?size@?$vector@HV?$allocator@H@std@@@std@@QBEIXZ ; std::vector<int,std::allocator<int> >::size
  04195	85 c0		 test	 eax, eax
  04197	75 4d		 jne	 SHORT $L190620

; 1024 : 			{
; 1025 : 				m_DataMgr.m_vItem[0].blSel = TRUE;

  04199	6a 00		 push	 0
  0419b	8b 4d f0	 mov	 ecx, DWORD PTR _this$[ebp]
  0419e	81 c1 6c 01 00
	00		 add	 ecx, 364		; 0000016cH
  041a4	e8 00 00 00 00	 call	 ??A?$vector@U_tagLMCItemInfo@@V?$allocator@U_tagLMCItemInfo@@@std@@@std@@QAEAAU_tagLMCItemInfo@@I@Z ; std::vector<_tagLMCItemInfo,std::allocator<_tagLMCItemInfo> >::operator[]
  041a9	c7 40 20 01 00
	00 00		 mov	 DWORD PTR [eax+32], 1

; 1026 : 				EnsureVisible(0);

  041b0	6a 00		 push	 0
  041b2	8b 4d f0	 mov	 ecx, DWORD PTR _this$[ebp]
  041b5	e8 00 00 00 00	 call	 ?EnsureVisible@CLocalMusicCoverList@@QAEXH@Z ; CLocalMusicCoverList::EnsureVisible

; 1027 : 				return CWnd::PreTranslateMessage(pMsg);

  041ba	8b 55 08	 mov	 edx, DWORD PTR _pMsg$[ebp]
  041bd	52		 push	 edx
  041be	8b 4d f0	 mov	 ecx, DWORD PTR _this$[ebp]
  041c1	e8 00 00 00 00	 call	 ?PreTranslateMessage@CWnd@@UAEHPAUtagMSG@@@Z ; CWnd::PreTranslateMessage
  041c6	89 85 5c ff ff
	ff		 mov	 DWORD PTR $T192835[ebp], eax
  041cc	c7 45 fc ff ff
	ff ff		 mov	 DWORD PTR __$EHRec$[ebp+8], -1
  041d3	8d 4d a0	 lea	 ecx, DWORD PTR _vIndex$190618[ebp]
  041d6	e8 00 00 00 00	 call	 ??1?$vector@HV?$allocator@H@std@@@std@@QAE@XZ ; std::vector<int,std::allocator<int> >::~vector<int,std::allocator<int> >
  041db	8b 85 5c ff ff
	ff		 mov	 eax, DWORD PTR $T192835[ebp]
  041e1	e9 78 02 00 00	 jmp	 $L190586
$L190620:

; 1028 : 			}
; 1029 : 			if (vIndex.size()>1)

  041e6	8d 4d a0	 lea	 ecx, DWORD PTR _vIndex$190618[ebp]
  041e9	e8 00 00 00 00	 call	 ?size@?$vector@HV?$allocator@H@std@@@std@@QBEIXZ ; std::vector<int,std::allocator<int> >::size
  041ee	83 f8 01	 cmp	 eax, 1
  041f1	76 41		 jbe	 SHORT $L190622

; 1030 : 			{
; 1031 : 				UnSelectAll();

  041f3	8b 4d f0	 mov	 ecx, DWORD PTR _this$[ebp]
  041f6	e8 00 00 00 00	 call	 ?UnSelectAll@CLocalMusicCoverList@@IAEXXZ ; CLocalMusicCoverList::UnSelectAll

; 1032 : 				m_DataMgr.m_vItem[vIndex[0]].blSel=TRUE;

  041fb	6a 00		 push	 0
  041fd	8d 4d a0	 lea	 ecx, DWORD PTR _vIndex$190618[ebp]
  04200	e8 00 00 00 00	 call	 ??A?$vector@HV?$allocator@H@std@@@std@@QAEAAHI@Z ; std::vector<int,std::allocator<int> >::operator[]
  04205	8b 00		 mov	 eax, DWORD PTR [eax]
  04207	50		 push	 eax
  04208	8b 4d f0	 mov	 ecx, DWORD PTR _this$[ebp]
  0420b	81 c1 6c 01 00
	00		 add	 ecx, 364		; 0000016cH
  04211	e8 00 00 00 00	 call	 ??A?$vector@U_tagLMCItemInfo@@V?$allocator@U_tagLMCItemInfo@@@std@@@std@@QAEAAU_tagLMCItemInfo@@I@Z ; std::vector<_tagLMCItemInfo,std::allocator<_tagLMCItemInfo> >::operator[]
  04216	c7 40 20 01 00
	00 00		 mov	 DWORD PTR [eax+32], 1

; 1033 : 				EnsureVisible(vIndex[0]);

  0421d	6a 00		 push	 0
  0421f	8d 4d a0	 lea	 ecx, DWORD PTR _vIndex$190618[ebp]
  04222	e8 00 00 00 00	 call	 ??A?$vector@HV?$allocator@H@std@@@std@@QAEAAHI@Z ; std::vector<int,std::allocator<int> >::operator[]
  04227	8b 08		 mov	 ecx, DWORD PTR [eax]
  04229	51		 push	 ecx
  0422a	8b 4d f0	 mov	 ecx, DWORD PTR _this$[ebp]
  0422d	e8 00 00 00 00	 call	 ?EnsureVisible@CLocalMusicCoverList@@QAEXH@Z ; CLocalMusicCoverList::EnsureVisible

; 1034 : 			}
; 1035 : 			else if(vIndex.size()==1)

  04232	eb 70		 jmp	 SHORT $L190623
$L190622:
  04234	8d 4d a0	 lea	 ecx, DWORD PTR _vIndex$190618[ebp]
  04237	e8 00 00 00 00	 call	 ?size@?$vector@HV?$allocator@H@std@@@std@@QBEIXZ ; std::vector<int,std::allocator<int> >::size
  0423c	83 f8 01	 cmp	 eax, 1
  0423f	75 63		 jne	 SHORT $L190623

; 1036 : 			{
; 1037 : 				UnSelectAll();

  04241	8b 4d f0	 mov	 ecx, DWORD PTR _this$[ebp]
  04244	e8 00 00 00 00	 call	 ?UnSelectAll@CLocalMusicCoverList@@IAEXXZ ; CLocalMusicCoverList::UnSelectAll

; 1038 : 				int iSel=vIndex[0]-m_rect.Width()/(m_iItemWidth+SPACEW);

  04249	6a 00		 push	 0
  0424b	8d 4d a0	 lea	 ecx, DWORD PTR _vIndex$190618[ebp]
  0424e	e8 00 00 00 00	 call	 ??A?$vector@HV?$allocator@H@std@@@std@@QAEAAHI@Z ; std::vector<int,std::allocator<int> >::operator[]
  04253	8b f0		 mov	 esi, eax
  04255	8b 4d f0	 mov	 ecx, DWORD PTR _this$[ebp]
  04258	81 c1 8c 00 00
	00		 add	 ecx, 140		; 0000008cH
  0425e	e8 00 00 00 00	 call	 ?Width@CRect@@QBEHXZ	; CRect::Width
  04263	8b 55 f0	 mov	 edx, DWORD PTR _this$[ebp]
  04266	8b 4a 54	 mov	 ecx, DWORD PTR [edx+84]
  04269	83 c1 10	 add	 ecx, 16			; 00000010H
  0426c	99		 cdq
  0426d	f7 f9		 idiv	 ecx
  0426f	8b 16		 mov	 edx, DWORD PTR [esi]
  04271	2b d0		 sub	 edx, eax
  04273	89 55 98	 mov	 DWORD PTR _iSel$190625[ebp], edx

; 1039 : 				if (iSel<0) iSel=0;

  04276	79 07		 jns	 SHORT $L190626
  04278	c7 45 98 00 00
	00 00		 mov	 DWORD PTR _iSel$190625[ebp], 0
$L190626:

; 1040 : 				m_DataMgr.m_vItem[iSel].blSel = TRUE;

  0427f	8b 45 98	 mov	 eax, DWORD PTR _iSel$190625[ebp]
  04282	50		 push	 eax
  04283	8b 4d f0	 mov	 ecx, DWORD PTR _this$[ebp]
  04286	81 c1 6c 01 00
	00		 add	 ecx, 364		; 0000016cH
  0428c	e8 00 00 00 00	 call	 ??A?$vector@U_tagLMCItemInfo@@V?$allocator@U_tagLMCItemInfo@@@std@@@std@@QAEAAU_tagLMCItemInfo@@I@Z ; std::vector<_tagLMCItemInfo,std::allocator<_tagLMCItemInfo> >::operator[]
  04291	c7 40 20 01 00
	00 00		 mov	 DWORD PTR [eax+32], 1

; 1041 : 				EnsureVisible(iSel);

  04298	8b 4d 98	 mov	 ecx, DWORD PTR _iSel$190625[ebp]
  0429b	51		 push	 ecx
  0429c	8b 4d f0	 mov	 ecx, DWORD PTR _this$[ebp]
  0429f	e8 00 00 00 00	 call	 ?EnsureVisible@CLocalMusicCoverList@@QAEXH@Z ; CLocalMusicCoverList::EnsureVisible
$L190623:

; 1042 : 			}
; 1043 : 			//SetFocus();
; 1044 : 			return TRUE;

  042a4	c7 85 58 ff ff
	ff 01 00 00 00	 mov	 DWORD PTR $T192836[ebp], 1
  042ae	c7 45 fc ff ff
	ff ff		 mov	 DWORD PTR __$EHRec$[ebp+8], -1
  042b5	8d 4d a0	 lea	 ecx, DWORD PTR _vIndex$190618[ebp]
  042b8	e8 00 00 00 00	 call	 ??1?$vector@HV?$allocator@H@std@@@std@@QAE@XZ ; std::vector<int,std::allocator<int> >::~vector<int,std::allocator<int> >
  042bd	8b 85 58 ff ff
	ff		 mov	 eax, DWORD PTR $T192836[ebp]
  042c3	e9 96 01 00 00	 jmp	 $L190586
$L190616:

; 1045 : 		}
; 1046 : 		else if (pMsg->wParam==VK_DOWN)

  042c8	8b 55 08	 mov	 edx, DWORD PTR _pMsg$[ebp]
  042cb	83 7a 08 28	 cmp	 DWORD PTR [edx+8], 40	; 00000028H
  042cf	0f 85 7d 01 00
	00		 jne	 $L190587

; 1047 : 		{
; 1048 : 			vector<int> vIndex = GetSelectItem();

  042d5	8d 45 84	 lea	 eax, DWORD PTR _vIndex$190631[ebp]
  042d8	50		 push	 eax
  042d9	8b 4d f0	 mov	 ecx, DWORD PTR _this$[ebp]
  042dc	e8 00 00 00 00	 call	 ?GetSelectItem@CLocalMusicCoverList@@QAE?AV?$vector@HV?$allocator@H@std@@@std@@XZ ; CLocalMusicCoverList::GetSelectItem
  042e1	c7 45 fc 03 00
	00 00		 mov	 DWORD PTR __$EHRec$[ebp+8], 3

; 1049 : 			if(vIndex.size()==0) 

  042e8	8d 4d 84	 lea	 ecx, DWORD PTR _vIndex$190631[ebp]
  042eb	e8 00 00 00 00	 call	 ?size@?$vector@HV?$allocator@H@std@@@std@@QBEIXZ ; std::vector<int,std::allocator<int> >::size
  042f0	85 c0		 test	 eax, eax
  042f2	75 4d		 jne	 SHORT $L190633

; 1050 : 			{
; 1051 : 				m_DataMgr.m_vItem[0].blSel = TRUE;

  042f4	6a 00		 push	 0
  042f6	8b 4d f0	 mov	 ecx, DWORD PTR _this$[ebp]
  042f9	81 c1 6c 01 00
	00		 add	 ecx, 364		; 0000016cH
  042ff	e8 00 00 00 00	 call	 ??A?$vector@U_tagLMCItemInfo@@V?$allocator@U_tagLMCItemInfo@@@std@@@std@@QAEAAU_tagLMCItemInfo@@I@Z ; std::vector<_tagLMCItemInfo,std::allocator<_tagLMCItemInfo> >::operator[]
  04304	c7 40 20 01 00
	00 00		 mov	 DWORD PTR [eax+32], 1

; 1052 : 				EnsureVisible(0);

  0430b	6a 00		 push	 0
  0430d	8b 4d f0	 mov	 ecx, DWORD PTR _this$[ebp]
  04310	e8 00 00 00 00	 call	 ?EnsureVisible@CLocalMusicCoverList@@QAEXH@Z ; CLocalMusicCoverList::EnsureVisible

; 1053 : 				return CWnd::PreTranslateMessage(pMsg);

  04315	8b 4d 08	 mov	 ecx, DWORD PTR _pMsg$[ebp]
  04318	51		 push	 ecx
  04319	8b 4d f0	 mov	 ecx, DWORD PTR _this$[ebp]
  0431c	e8 00 00 00 00	 call	 ?PreTranslateMessage@CWnd@@UAEHPAUtagMSG@@@Z ; CWnd::PreTranslateMessage
  04321	89 85 54 ff ff
	ff		 mov	 DWORD PTR $T192837[ebp], eax
  04327	c7 45 fc ff ff
	ff ff		 mov	 DWORD PTR __$EHRec$[ebp+8], -1
  0432e	8d 4d 84	 lea	 ecx, DWORD PTR _vIndex$190631[ebp]
  04331	e8 00 00 00 00	 call	 ??1?$vector@HV?$allocator@H@std@@@std@@QAE@XZ ; std::vector<int,std::allocator<int> >::~vector<int,std::allocator<int> >
  04336	8b 85 54 ff ff
	ff		 mov	 eax, DWORD PTR $T192837[ebp]
  0433c	e9 1d 01 00 00	 jmp	 $L190586
$L190633:

; 1054 : 			}
; 1055 : 			if (vIndex.size()>1)

  04341	8d 4d 84	 lea	 ecx, DWORD PTR _vIndex$190631[ebp]
  04344	e8 00 00 00 00	 call	 ?size@?$vector@HV?$allocator@H@std@@@std@@QBEIXZ ; std::vector<int,std::allocator<int> >::size
  04349	83 f8 01	 cmp	 eax, 1
  0434c	76 44		 jbe	 SHORT $L190635

; 1056 : 			{
; 1057 : 				UnSelectAll();

  0434e	8b 4d f0	 mov	 ecx, DWORD PTR _this$[ebp]
  04351	e8 00 00 00 00	 call	 ?UnSelectAll@CLocalMusicCoverList@@IAEXXZ ; CLocalMusicCoverList::UnSelectAll

; 1058 : 				m_DataMgr.m_vItem[vIndex[0]].blSel=TRUE;

  04356	6a 00		 push	 0
  04358	8d 4d 84	 lea	 ecx, DWORD PTR _vIndex$190631[ebp]
  0435b	e8 00 00 00 00	 call	 ??A?$vector@HV?$allocator@H@std@@@std@@QAEAAHI@Z ; std::vector<int,std::allocator<int> >::operator[]
  04360	8b 10		 mov	 edx, DWORD PTR [eax]
  04362	52		 push	 edx
  04363	8b 4d f0	 mov	 ecx, DWORD PTR _this$[ebp]
  04366	81 c1 6c 01 00
	00		 add	 ecx, 364		; 0000016cH
  0436c	e8 00 00 00 00	 call	 ??A?$vector@U_tagLMCItemInfo@@V?$allocator@U_tagLMCItemInfo@@@std@@@std@@QAEAAU_tagLMCItemInfo@@I@Z ; std::vector<_tagLMCItemInfo,std::allocator<_tagLMCItemInfo> >::operator[]
  04371	c7 40 20 01 00
	00 00		 mov	 DWORD PTR [eax+32], 1

; 1059 : 				EnsureVisible(vIndex[0]);

  04378	6a 00		 push	 0
  0437a	8d 4d 84	 lea	 ecx, DWORD PTR _vIndex$190631[ebp]
  0437d	e8 00 00 00 00	 call	 ??A?$vector@HV?$allocator@H@std@@@std@@QAEAAHI@Z ; std::vector<int,std::allocator<int> >::operator[]
  04382	8b 00		 mov	 eax, DWORD PTR [eax]
  04384	50		 push	 eax
  04385	8b 4d f0	 mov	 ecx, DWORD PTR _this$[ebp]
  04388	e8 00 00 00 00	 call	 ?EnsureVisible@CLocalMusicCoverList@@QAEXH@Z ; CLocalMusicCoverList::EnsureVisible

; 1060 : 			}
; 1061 : 			else if(vIndex.size()==1)

  0438d	e9 9f 00 00 00	 jmp	 $L190636
$L190635:
  04392	8d 4d 84	 lea	 ecx, DWORD PTR _vIndex$190631[ebp]
  04395	e8 00 00 00 00	 call	 ?size@?$vector@HV?$allocator@H@std@@@std@@QBEIXZ ; std::vector<int,std::allocator<int> >::size
  0439a	83 f8 01	 cmp	 eax, 1
  0439d	0f 85 8e 00 00
	00		 jne	 $L190636

; 1062 : 			{
; 1063 : 				UnSelectAll();

  043a3	8b 4d f0	 mov	 ecx, DWORD PTR _this$[ebp]
  043a6	e8 00 00 00 00	 call	 ?UnSelectAll@CLocalMusicCoverList@@IAEXXZ ; CLocalMusicCoverList::UnSelectAll

; 1064 : 				int iSel=vIndex[0]+m_rect.Width()/(m_iItemWidth+SPACEW);

  043ab	6a 00		 push	 0
  043ad	8d 4d 84	 lea	 ecx, DWORD PTR _vIndex$190631[ebp]
  043b0	e8 00 00 00 00	 call	 ??A?$vector@HV?$allocator@H@std@@@std@@QAEAAHI@Z ; std::vector<int,std::allocator<int> >::operator[]
  043b5	8b f0		 mov	 esi, eax
  043b7	8b 4d f0	 mov	 ecx, DWORD PTR _this$[ebp]
  043ba	81 c1 8c 00 00
	00		 add	 ecx, 140		; 0000008cH
  043c0	e8 00 00 00 00	 call	 ?Width@CRect@@QBEHXZ	; CRect::Width
  043c5	8b 4d f0	 mov	 ecx, DWORD PTR _this$[ebp]
  043c8	8b 49 54	 mov	 ecx, DWORD PTR [ecx+84]
  043cb	83 c1 10	 add	 ecx, 16			; 00000010H
  043ce	99		 cdq
  043cf	f7 f9		 idiv	 ecx
  043d1	03 06		 add	 eax, DWORD PTR [esi]
  043d3	89 85 7c ff ff
	ff		 mov	 DWORD PTR _iSel$190638[ebp], eax

; 1065 : 				if (iSel>=m_DataMgr.m_vItem.size())

  043d9	8b 4d f0	 mov	 ecx, DWORD PTR _this$[ebp]
  043dc	81 c1 6c 01 00
	00		 add	 ecx, 364		; 0000016cH
  043e2	e8 00 00 00 00	 call	 ?size@?$vector@U_tagLMCItemInfo@@V?$allocator@U_tagLMCItemInfo@@@std@@@std@@QBEIXZ ; std::vector<_tagLMCItemInfo,std::allocator<_tagLMCItemInfo> >::size
  043e7	39 85 7c ff ff
	ff		 cmp	 DWORD PTR _iSel$190638[ebp], eax
  043ed	72 17		 jb	 SHORT $L190639

; 1066 : 				{
; 1067 : 					iSel=m_DataMgr.m_vItem.size()-1;

  043ef	8b 4d f0	 mov	 ecx, DWORD PTR _this$[ebp]
  043f2	81 c1 6c 01 00
	00		 add	 ecx, 364		; 0000016cH
  043f8	e8 00 00 00 00	 call	 ?size@?$vector@U_tagLMCItemInfo@@V?$allocator@U_tagLMCItemInfo@@@std@@@std@@QBEIXZ ; std::vector<_tagLMCItemInfo,std::allocator<_tagLMCItemInfo> >::size
  043fd	83 e8 01	 sub	 eax, 1
  04400	89 85 7c ff ff
	ff		 mov	 DWORD PTR _iSel$190638[ebp], eax
$L190639:

; 1068 : 				}
; 1069 : 				m_DataMgr.m_vItem[iSel].blSel = TRUE;

  04406	8b 95 7c ff ff
	ff		 mov	 edx, DWORD PTR _iSel$190638[ebp]
  0440c	52		 push	 edx
  0440d	8b 4d f0	 mov	 ecx, DWORD PTR _this$[ebp]
  04410	81 c1 6c 01 00
	00		 add	 ecx, 364		; 0000016cH
  04416	e8 00 00 00 00	 call	 ??A?$vector@U_tagLMCItemInfo@@V?$allocator@U_tagLMCItemInfo@@@std@@@std@@QAEAAU_tagLMCItemInfo@@I@Z ; std::vector<_tagLMCItemInfo,std::allocator<_tagLMCItemInfo> >::operator[]
  0441b	c7 40 20 01 00
	00 00		 mov	 DWORD PTR [eax+32], 1

; 1070 : 				EnsureVisible(iSel);

  04422	8b 85 7c ff ff
	ff		 mov	 eax, DWORD PTR _iSel$190638[ebp]
  04428	50		 push	 eax
  04429	8b 4d f0	 mov	 ecx, DWORD PTR _this$[ebp]
  0442c	e8 00 00 00 00	 call	 ?EnsureVisible@CLocalMusicCoverList@@QAEXH@Z ; CLocalMusicCoverList::EnsureVisible
$L190636:

; 1071 : 			}
; 1072 : 			//SetFocus();
; 1073 : 			return TRUE;

  04431	c7 85 50 ff ff
	ff 01 00 00 00	 mov	 DWORD PTR $T192838[ebp], 1
  0443b	c7 45 fc ff ff
	ff ff		 mov	 DWORD PTR __$EHRec$[ebp+8], -1
  04442	8d 4d 84	 lea	 ecx, DWORD PTR _vIndex$190631[ebp]
  04445	e8 00 00 00 00	 call	 ??1?$vector@HV?$allocator@H@std@@@std@@QAE@XZ ; std::vector<int,std::allocator<int> >::~vector<int,std::allocator<int> >
  0444a	8b 85 50 ff ff
	ff		 mov	 eax, DWORD PTR $T192838[ebp]
  04450	eb 0c		 jmp	 SHORT $L190586
$L190587:

; 1074 : 		}
; 1075 : 	}	
; 1076 : 	return CWnd::PreTranslateMessage(pMsg);

  04452	8b 4d 08	 mov	 ecx, DWORD PTR _pMsg$[ebp]
  04455	51		 push	 ecx
  04456	8b 4d f0	 mov	 ecx, DWORD PTR _this$[ebp]
  04459	e8 00 00 00 00	 call	 ?PreTranslateMessage@CWnd@@UAEHPAUtagMSG@@@Z ; CWnd::PreTranslateMessage
$L190586:

; 1077 : }

  0445e	52		 push	 edx
  0445f	8b cd		 mov	 ecx, ebp
  04461	50		 push	 eax
  04462	8d 15 00 00 00
	00		 lea	 edx, DWORD PTR $L192851
  04468	e8 00 00 00 00	 call	 @_RTC_CheckStackVars@8
  0446d	58		 pop	 eax
  0446e	5a		 pop	 edx
  0446f	8b 4d f4	 mov	 ecx, DWORD PTR __$EHRec$[ebp]
  04472	64 89 0d 00 00
	00 00		 mov	 DWORD PTR fs:__except_list, ecx
  04479	5f		 pop	 edi
  0447a	5e		 pop	 esi
  0447b	81 c4 b8 00 00
	00		 add	 esp, 184		; 000000b8H
  04481	3b ec		 cmp	 ebp, esp
  04483	e8 00 00 00 00	 call	 __RTC_CheckEsp
  04488	8b e5		 mov	 esp, ebp
  0448a	5d		 pop	 ebp
  0448b	c2 04 00	 ret	 4
$L192851:
  0448e	04 00 00 00	 DD	 4
  04492	00 00 00 00	 DD	 $L192850
$L192850:
  04496	dc ff ff ff	 DD	 -36			; ffffffdcH
  0449a	10 00 00 00	 DD	 16			; 00000010H
  0449e	00 00 00 00	 DD	 $L192845
  044a2	c0 ff ff ff	 DD	 -64			; ffffffc0H
  044a6	10 00 00 00	 DD	 16			; 00000010H
  044aa	00 00 00 00	 DD	 $L192846
  044ae	a0 ff ff ff	 DD	 -96			; ffffffa0H
  044b2	10 00 00 00	 DD	 16			; 00000010H
  044b6	00 00 00 00	 DD	 $L192847
  044ba	84 ff ff ff	 DD	 -124			; ffffff84H
  044be	10 00 00 00	 DD	 16			; 00000010H
  044c2	00 00 00 00	 DD	 $L192848
$L192848:
  044c6	76		 DB	 118			; 00000076H
  044c7	49		 DB	 73			; 00000049H
  044c8	6e		 DB	 110			; 0000006eH
  044c9	64		 DB	 100			; 00000064H
  044ca	65		 DB	 101			; 00000065H
  044cb	78		 DB	 120			; 00000078H
  044cc	00		 DB	 0
$L192847:
  044cd	76		 DB	 118			; 00000076H
  044ce	49		 DB	 73			; 00000049H
  044cf	6e		 DB	 110			; 0000006eH
  044d0	64		 DB	 100			; 00000064H
  044d1	65		 DB	 101			; 00000065H
  044d2	78		 DB	 120			; 00000078H
  044d3	00		 DB	 0
$L192846:
  044d4	76		 DB	 118			; 00000076H
  044d5	49		 DB	 73			; 00000049H
  044d6	6e		 DB	 110			; 0000006eH
  044d7	64		 DB	 100			; 00000064H
  044d8	65		 DB	 101			; 00000065H
  044d9	78		 DB	 120			; 00000078H
  044da	00		 DB	 0
$L192845:
  044db	76		 DB	 118			; 00000076H
  044dc	49		 DB	 73			; 00000049H
  044dd	6e		 DB	 110			; 0000006eH
  044de	64		 DB	 100			; 00000064H
  044df	65		 DB	 101			; 00000065H
  044e0	78		 DB	 120			; 00000078H
  044e1	00		 DB	 0
_TEXT	ENDS
text$x	SEGMENT
$L192839:
  00379	8d 4d dc	 lea	 ecx, DWORD PTR _vIndex$190590[ebp]
  0037c	e9 00 00 00 00	 jmp	 ??1?$vector@HV?$allocator@H@std@@@std@@QAE@XZ ; std::vector<int,std::allocator<int> >::~vector<int,std::allocator<int> >
$L192840:
  00381	8d 4d c0	 lea	 ecx, DWORD PTR _vIndex$190601[ebp]
  00384	e9 00 00 00 00	 jmp	 ??1?$vector@HV?$allocator@H@std@@@std@@QAE@XZ ; std::vector<int,std::allocator<int> >::~vector<int,std::allocator<int> >
$L192841:
  00389	8d 4d a0	 lea	 ecx, DWORD PTR _vIndex$190618[ebp]
  0038c	e9 00 00 00 00	 jmp	 ??1?$vector@HV?$allocator@H@std@@@std@@QAE@XZ ; std::vector<int,std::allocator<int> >::~vector<int,std::allocator<int> >
$L192842:
  00391	8d 4d 84	 lea	 ecx, DWORD PTR _vIndex$190631[ebp]
  00394	e9 00 00 00 00	 jmp	 ??1?$vector@HV?$allocator@H@std@@@std@@QAE@XZ ; std::vector<int,std::allocator<int> >::~vector<int,std::allocator<int> >
__ehhandler$?PreTranslateMessage@CLocalMusicCoverList@@UAEHPAUtagMSG@@@Z:
  00399	b8 00 00 00 00	 mov	 eax, OFFSET FLAT:$T192844
  0039e	e9 00 00 00 00	 jmp	 ___CxxFrameHandler
text$x	ENDS
?PreTranslateMessage@CLocalMusicCoverList@@UAEHPAUtagMSG@@@Z ENDP ; CLocalMusicCoverList::PreTranslateMessage
EXTRN	?OnSetFocus@CWnd@@IAEXPAV1@@Z:NEAR		; CWnd::OnSetFocus
; Function compile flags: /Odt /RTCsu
_TEXT	SEGMENT
_this$ = -4						; size = 4
_pOldWnd$ = 8						; size = 4
?OnSetFocus@CLocalMusicCoverList@@QAEXPAVCWnd@@@Z PROC NEAR ; CLocalMusicCoverList::OnSetFocus
; _this$ = ecx

; 1080 : {

  044f0	55		 push	 ebp
  044f1	8b ec		 mov	 ebp, esp
  044f3	51		 push	 ecx
  044f4	c7 45 fc cc cc
	cc cc		 mov	 DWORD PTR [ebp-4], -858993460 ; ccccccccH
  044fb	89 4d fc	 mov	 DWORD PTR _this$[ebp], ecx

; 1081 : 	CWnd::OnSetFocus(pOldWnd);

  044fe	8b 45 08	 mov	 eax, DWORD PTR _pOldWnd$[ebp]
  04501	50		 push	 eax
  04502	8b 4d fc	 mov	 ecx, DWORD PTR _this$[ebp]
  04505	e8 00 00 00 00	 call	 ?OnSetFocus@CWnd@@IAEXPAV1@@Z ; CWnd::OnSetFocus

; 1082 : }

  0450a	83 c4 04	 add	 esp, 4
  0450d	3b ec		 cmp	 ebp, esp
  0450f	e8 00 00 00 00	 call	 __RTC_CheckEsp
  04514	8b e5		 mov	 esp, ebp
  04516	5d		 pop	 ebp
  04517	c2 04 00	 ret	 4
?OnSetFocus@CLocalMusicCoverList@@QAEXPAVCWnd@@@Z ENDP	; CLocalMusicCoverList::OnSetFocus
_TEXT	ENDS
EXTRN	?OnKillFocus@CWnd@@IAEXPAV1@@Z:NEAR		; CWnd::OnKillFocus
; Function compile flags: /Odt /RTCsu
_TEXT	SEGMENT
_this$ = -4						; size = 4
_pNewWnd$ = 8						; size = 4
?OnKillFocus@CLocalMusicCoverList@@QAEXPAVCWnd@@@Z PROC NEAR ; CLocalMusicCoverList::OnKillFocus
; _this$ = ecx

; 1085 : {

  04520	55		 push	 ebp
  04521	8b ec		 mov	 ebp, esp
  04523	51		 push	 ecx
  04524	c7 45 fc cc cc
	cc cc		 mov	 DWORD PTR [ebp-4], -858993460 ; ccccccccH
  0452b	89 4d fc	 mov	 DWORD PTR _this$[ebp], ecx

; 1086 : 	CWnd::OnKillFocus(pNewWnd);

  0452e	8b 45 08	 mov	 eax, DWORD PTR _pNewWnd$[ebp]
  04531	50		 push	 eax
  04532	8b 4d fc	 mov	 ecx, DWORD PTR _this$[ebp]
  04535	e8 00 00 00 00	 call	 ?OnKillFocus@CWnd@@IAEXPAV1@@Z ; CWnd::OnKillFocus

; 1087 : }

  0453a	83 c4 04	 add	 esp, 4
  0453d	3b ec		 cmp	 ebp, esp
  0453f	e8 00 00 00 00	 call	 __RTC_CheckEsp
  04544	8b e5		 mov	 esp, ebp
  04546	5d		 pop	 ebp
  04547	c2 04 00	 ret	 4
?OnKillFocus@CLocalMusicCoverList@@QAEXPAVCWnd@@@Z ENDP	; CLocalMusicCoverList::OnKillFocus
_TEXT	ENDS
EXTRN	?OnRButtonDown@CWnd@@IAEXIVCPoint@@@Z:NEAR	; CWnd::OnRButtonDown
; Function compile flags: /Odt /RTCsu
_TEXT	SEGMENT
_this$ = -4						; size = 4
_nFlags$ = 8						; size = 4
_point$ = 12						; size = 8
?OnRButtonDown@CLocalMusicCoverList@@QAEXIVCPoint@@@Z PROC NEAR ; CLocalMusicCoverList::OnRButtonDown
; _this$ = ecx

; 1090 : {

  04550	55		 push	 ebp
  04551	8b ec		 mov	 ebp, esp
  04553	51		 push	 ecx
  04554	c7 45 fc cc cc
	cc cc		 mov	 DWORD PTR [ebp-4], -858993460 ; ccccccccH
  0455b	89 4d fc	 mov	 DWORD PTR _this$[ebp], ecx

; 1091 : 	// TODO: Add your message handler code here and/or call default
; 1092 : 	SetFocus();

  0455e	8b 4d fc	 mov	 ecx, DWORD PTR _this$[ebp]
  04561	e8 00 00 00 00	 call	 ?SetFocus@CWnd@@QAEPAV1@XZ ; CWnd::SetFocus

; 1093 : 	CWnd::OnRButtonDown(nFlags, point);

  04566	8b 45 10	 mov	 eax, DWORD PTR _point$[ebp+4]
  04569	50		 push	 eax
  0456a	8b 4d 0c	 mov	 ecx, DWORD PTR _point$[ebp]
  0456d	51		 push	 ecx
  0456e	8b 55 08	 mov	 edx, DWORD PTR _nFlags$[ebp]
  04571	52		 push	 edx
  04572	8b 4d fc	 mov	 ecx, DWORD PTR _this$[ebp]
  04575	e8 00 00 00 00	 call	 ?OnRButtonDown@CWnd@@IAEXIVCPoint@@@Z ; CWnd::OnRButtonDown

; 1094 : }

  0457a	83 c4 04	 add	 esp, 4
  0457d	3b ec		 cmp	 ebp, esp
  0457f	e8 00 00 00 00	 call	 __RTC_CheckEsp
  04584	8b e5		 mov	 esp, ebp
  04586	5d		 pop	 ebp
  04587	c2 0c 00	 ret	 12			; 0000000cH
?OnRButtonDown@CLocalMusicCoverList@@QAEXIVCPoint@@@Z ENDP ; CLocalMusicCoverList::OnRButtonDown
_TEXT	ENDS
PUBLIC	??0iterator@?$vector@U_tagLMCItemInfo@@V?$allocator@U_tagLMCItemInfo@@@std@@@std@@QAE@PAU_tagLMCItemInfo@@@Z ; std::vector<_tagLMCItemInfo,std::allocator<_tagLMCItemInfo> >::iterator::iterator
; Function compile flags: /Odt /RTCsu
; File d:\program files (x86)\microsoft visual studio .net 2003\vc7\include\vector
;	COMDAT ?begin@?$vector@U_tagLMCItemInfo@@V?$allocator@U_tagLMCItemInfo@@@std@@@std@@QAE?AViterator@12@XZ
_TEXT	SEGMENT
_this$ = -4						; size = 4
___$ReturnUdt$ = 8					; size = 4
?begin@?$vector@U_tagLMCItemInfo@@V?$allocator@U_tagLMCItemInfo@@@std@@@std@@QAE?AViterator@12@XZ PROC NEAR ; std::vector<_tagLMCItemInfo,std::allocator<_tagLMCItemInfo> >::begin, COMDAT
; _this$ = ecx

; 462  : 		{	// return iterator for beginning of mutable sequence

  00000	55		 push	 ebp
  00001	8b ec		 mov	 ebp, esp
  00003	51		 push	 ecx
  00004	c7 45 fc cc cc
	cc cc		 mov	 DWORD PTR [ebp-4], -858993460 ; ccccccccH
  0000b	89 4d fc	 mov	 DWORD PTR _this$[ebp], ecx

; 463  : 		return (iterator(_Myfirst));

  0000e	8b 45 fc	 mov	 eax, DWORD PTR _this$[ebp]
  00011	8b 48 04	 mov	 ecx, DWORD PTR [eax+4]
  00014	51		 push	 ecx
  00015	8b 4d 08	 mov	 ecx, DWORD PTR ___$ReturnUdt$[ebp]
  00018	e8 00 00 00 00	 call	 ??0iterator@?$vector@U_tagLMCItemInfo@@V?$allocator@U_tagLMCItemInfo@@@std@@@std@@QAE@PAU_tagLMCItemInfo@@@Z ; std::vector<_tagLMCItemInfo,std::allocator<_tagLMCItemInfo> >::iterator::iterator
  0001d	8b 45 08	 mov	 eax, DWORD PTR ___$ReturnUdt$[ebp]

; 464  : 		}

  00020	83 c4 04	 add	 esp, 4
  00023	3b ec		 cmp	 ebp, esp
  00025	e8 00 00 00 00	 call	 __RTC_CheckEsp
  0002a	8b e5		 mov	 esp, ebp
  0002c	5d		 pop	 ebp
  0002d	c2 04 00	 ret	 4
?begin@?$vector@U_tagLMCItemInfo@@V?$allocator@U_tagLMCItemInfo@@@std@@@std@@QAE?AViterator@12@XZ ENDP ; std::vector<_tagLMCItemInfo,std::allocator<_tagLMCItemInfo> >::begin
; Function compile flags: /Odt /RTCsu
_TEXT	ENDS
;	COMDAT ?end@?$vector@U_tagLMCItemInfo@@V?$allocator@U_tagLMCItemInfo@@@std@@@std@@QAE?AViterator@12@XZ
_TEXT	SEGMENT
_this$ = -4						; size = 4
___$ReturnUdt$ = 8					; size = 4
?end@?$vector@U_tagLMCItemInfo@@V?$allocator@U_tagLMCItemInfo@@@std@@@std@@QAE?AViterator@12@XZ PROC NEAR ; std::vector<_tagLMCItemInfo,std::allocator<_tagLMCItemInfo> >::end, COMDAT
; _this$ = ecx

; 472  : 		{	// return iterator for end of mutable sequence

  00000	55		 push	 ebp
  00001	8b ec		 mov	 ebp, esp
  00003	51		 push	 ecx
  00004	c7 45 fc cc cc
	cc cc		 mov	 DWORD PTR [ebp-4], -858993460 ; ccccccccH
  0000b	89 4d fc	 mov	 DWORD PTR _this$[ebp], ecx

; 473  : 		return (iterator(_Mylast));

  0000e	8b 45 fc	 mov	 eax, DWORD PTR _this$[ebp]
  00011	8b 48 08	 mov	 ecx, DWORD PTR [eax+8]
  00014	51		 push	 ecx
  00015	8b 4d 08	 mov	 ecx, DWORD PTR ___$ReturnUdt$[ebp]
  00018	e8 00 00 00 00	 call	 ??0iterator@?$vector@U_tagLMCItemInfo@@V?$allocator@U_tagLMCItemInfo@@@std@@@std@@QAE@PAU_tagLMCItemInfo@@@Z ; std::vector<_tagLMCItemInfo,std::allocator<_tagLMCItemInfo> >::iterator::iterator
  0001d	8b 45 08	 mov	 eax, DWORD PTR ___$ReturnUdt$[ebp]

; 474  : 		}

  00020	83 c4 04	 add	 esp, 4
  00023	3b ec		 cmp	 ebp, esp
  00025	e8 00 00 00 00	 call	 __RTC_CheckEsp
  0002a	8b e5		 mov	 esp, ebp
  0002c	5d		 pop	 ebp
  0002d	c2 04 00	 ret	 4
?end@?$vector@U_tagLMCItemInfo@@V?$allocator@U_tagLMCItemInfo@@@std@@@std@@QAE?AViterator@12@XZ ENDP ; std::vector<_tagLMCItemInfo,std::allocator<_tagLMCItemInfo> >::end
; Function compile flags: /Odt /RTCsu
_TEXT	ENDS
;	COMDAT ?size@?$vector@U_tagLMCItemInfo@@V?$allocator@U_tagLMCItemInfo@@@std@@@std@@QBEIXZ
_TEXT	SEGMENT
tv70 = -8						; size = 4
_this$ = -4						; size = 4
?size@?$vector@U_tagLMCItemInfo@@V?$allocator@U_tagLMCItemInfo@@@std@@@std@@QBEIXZ PROC NEAR ; std::vector<_tagLMCItemInfo,std::allocator<_tagLMCItemInfo> >::size, COMDAT
; _this$ = ecx

; 515  : 		{	// return length of sequence

  00000	55		 push	 ebp
  00001	8b ec		 mov	 ebp, esp
  00003	83 ec 08	 sub	 esp, 8
  00006	c7 45 f8 cc cc
	cc cc		 mov	 DWORD PTR [ebp-8], -858993460 ; ccccccccH
  0000d	c7 45 fc cc cc
	cc cc		 mov	 DWORD PTR [ebp-4], -858993460 ; ccccccccH
  00014	89 4d fc	 mov	 DWORD PTR _this$[ebp], ecx

; 516  : 		return (_Myfirst == 0 ? 0 : _Mylast - _Myfirst);

  00017	8b 45 fc	 mov	 eax, DWORD PTR _this$[ebp]
  0001a	83 78 04 00	 cmp	 DWORD PTR [eax+4], 0
  0001e	75 09		 jne	 SHORT $L192859
  00020	c7 45 f8 00 00
	00 00		 mov	 DWORD PTR tv70[ebp], 0
  00027	eb 17		 jmp	 SHORT $L192860
$L192859:
  00029	8b 4d fc	 mov	 ecx, DWORD PTR _this$[ebp]
  0002c	8b 55 fc	 mov	 edx, DWORD PTR _this$[ebp]
  0002f	8b 41 08	 mov	 eax, DWORD PTR [ecx+8]
  00032	2b 42 04	 sub	 eax, DWORD PTR [edx+4]
  00035	99		 cdq
  00036	b9 44 00 00 00	 mov	 ecx, 68			; 00000044H
  0003b	f7 f9		 idiv	 ecx
  0003d	89 45 f8	 mov	 DWORD PTR tv70[ebp], eax
$L192860:
  00040	8b 45 f8	 mov	 eax, DWORD PTR tv70[ebp]

; 517  : 		}

  00043	8b e5		 mov	 esp, ebp
  00045	5d		 pop	 ebp
  00046	c3		 ret	 0
?size@?$vector@U_tagLMCItemInfo@@V?$allocator@U_tagLMCItemInfo@@@std@@@std@@QBEIXZ ENDP ; std::vector<_tagLMCItemInfo,std::allocator<_tagLMCItemInfo> >::size
_TEXT	ENDS
PUBLIC	??Diterator@?$vector@U_tagLMCItemInfo@@V?$allocator@U_tagLMCItemInfo@@@std@@@std@@QBEAAU_tagLMCItemInfo@@XZ ; std::vector<_tagLMCItemInfo,std::allocator<_tagLMCItemInfo> >::iterator::operator*
PUBLIC	??Hiterator@?$vector@U_tagLMCItemInfo@@V?$allocator@U_tagLMCItemInfo@@@std@@@std@@QBE?AV012@H@Z ; std::vector<_tagLMCItemInfo,std::allocator<_tagLMCItemInfo> >::iterator::operator+
; Function compile flags: /Odt /RTCsu
;	COMDAT ??A?$vector@U_tagLMCItemInfo@@V?$allocator@U_tagLMCItemInfo@@@std@@@std@@QAEAAU_tagLMCItemInfo@@I@Z
_TEXT	SEGMENT
$T192863 = -12						; size = 4
$T192862 = -8						; size = 4
_this$ = -4						; size = 4
__Pos$ = 8						; size = 4
??A?$vector@U_tagLMCItemInfo@@V?$allocator@U_tagLMCItemInfo@@@std@@@std@@QAEAAU_tagLMCItemInfo@@I@Z PROC NEAR ; std::vector<_tagLMCItemInfo,std::allocator<_tagLMCItemInfo> >::operator[], COMDAT
; _this$ = ecx

; 554  : 		{	// subscript mutable sequence

  00000	55		 push	 ebp
  00001	8b ec		 mov	 ebp, esp
  00003	83 ec 0c	 sub	 esp, 12			; 0000000cH
  00006	c7 45 f4 cc cc
	cc cc		 mov	 DWORD PTR [ebp-12], -858993460 ; ccccccccH
  0000d	c7 45 f8 cc cc
	cc cc		 mov	 DWORD PTR [ebp-8], -858993460 ; ccccccccH
  00014	c7 45 fc cc cc
	cc cc		 mov	 DWORD PTR [ebp-4], -858993460 ; ccccccccH
  0001b	89 4d fc	 mov	 DWORD PTR _this$[ebp], ecx

; 555  : 		return (*(begin() + _Pos));

  0001e	8b 45 08	 mov	 eax, DWORD PTR __Pos$[ebp]
  00021	50		 push	 eax
  00022	8d 4d f4	 lea	 ecx, DWORD PTR $T192863[ebp]
  00025	51		 push	 ecx
  00026	8d 55 f8	 lea	 edx, DWORD PTR $T192862[ebp]
  00029	52		 push	 edx
  0002a	8b 4d fc	 mov	 ecx, DWORD PTR _this$[ebp]
  0002d	e8 00 00 00 00	 call	 ?begin@?$vector@U_tagLMCItemInfo@@V?$allocator@U_tagLMCItemInfo@@@std@@@std@@QAE?AViterator@12@XZ ; std::vector<_tagLMCItemInfo,std::allocator<_tagLMCItemInfo> >::begin
  00032	8b c8		 mov	 ecx, eax
  00034	e8 00 00 00 00	 call	 ??Hiterator@?$vector@U_tagLMCItemInfo@@V?$allocator@U_tagLMCItemInfo@@@std@@@std@@QBE?AV012@H@Z ; std::vector<_tagLMCItemInfo,std::allocator<_tagLMCItemInfo> >::iterator::operator+
  00039	8b c8		 mov	 ecx, eax
  0003b	e8 00 00 00 00	 call	 ??Diterator@?$vector@U_tagLMCItemInfo@@V?$allocator@U_tagLMCItemInfo@@@std@@@std@@QBEAAU_tagLMCItemInfo@@XZ ; std::vector<_tagLMCItemInfo,std::allocator<_tagLMCItemInfo> >::iterator::operator*

; 556  : 		}

  00040	83 c4 0c	 add	 esp, 12			; 0000000cH
  00043	3b ec		 cmp	 ebp, esp
  00045	e8 00 00 00 00	 call	 __RTC_CheckEsp
  0004a	8b e5		 mov	 esp, ebp
  0004c	5d		 pop	 ebp
  0004d	c2 04 00	 ret	 4
??A?$vector@U_tagLMCItemInfo@@V?$allocator@U_tagLMCItemInfo@@@std@@@std@@QAEAAU_tagLMCItemInfo@@I@Z ENDP ; std::vector<_tagLMCItemInfo,std::allocator<_tagLMCItemInfo> >::operator[]
_TEXT	ENDS
PUBLIC	??0?$allocator@VCPoint@@@std@@QAE@XZ		; std::allocator<CPoint>::allocator<CPoint>
PUBLIC	??0?$_Deque_val@VCPoint@@V?$allocator@VCPoint@@@std@@@std@@IAE@V?$allocator@VCPoint@@@1@@Z ; std::_Deque_val<CPoint,std::allocator<CPoint> >::_Deque_val<CPoint,std::allocator<CPoint> >
; Function compile flags: /Odt /RTCsu
; File d:\program files (x86)\microsoft visual studio .net 2003\vc7\include\deque
;	COMDAT ??0?$deque@VCPoint@@V?$allocator@VCPoint@@@std@@@std@@QAE@XZ
_TEXT	SEGMENT
_this$ = -4						; size = 4
??0?$deque@VCPoint@@V?$allocator@VCPoint@@@std@@@std@@QAE@XZ PROC NEAR ; std::deque<CPoint,std::allocator<CPoint> >::deque<CPoint,std::allocator<CPoint> >, COMDAT
; _this$ = ecx

; 327  : 		{	// construct empty deque

  00000	55		 push	 ebp
  00001	8b ec		 mov	 ebp, esp
  00003	83 ec 08	 sub	 esp, 8
  00006	c7 45 f8 cc cc
	cc cc		 mov	 DWORD PTR [ebp-8], -858993460 ; ccccccccH
  0000d	c7 45 fc cc cc
	cc cc		 mov	 DWORD PTR [ebp-4], -858993460 ; ccccccccH
  00014	89 4d fc	 mov	 DWORD PTR _this$[ebp], ecx
  00017	51		 push	 ecx
  00018	8b cc		 mov	 ecx, esp
  0001a	e8 00 00 00 00	 call	 ??0?$allocator@VCPoint@@@std@@QAE@XZ ; std::allocator<CPoint>::allocator<CPoint>
  0001f	8b 4d fc	 mov	 ecx, DWORD PTR _this$[ebp]
  00022	e8 00 00 00 00	 call	 ??0?$_Deque_val@VCPoint@@V?$allocator@VCPoint@@@std@@@std@@IAE@V?$allocator@VCPoint@@@1@@Z ; std::_Deque_val<CPoint,std::allocator<CPoint> >::_Deque_val<CPoint,std::allocator<CPoint> >
  00027	8b 45 fc	 mov	 eax, DWORD PTR _this$[ebp]
  0002a	c7 40 04 00 00
	00 00		 mov	 DWORD PTR [eax+4], 0
  00031	8b 4d fc	 mov	 ecx, DWORD PTR _this$[ebp]
  00034	c7 41 08 00 00
	00 00		 mov	 DWORD PTR [ecx+8], 0
  0003b	8b 55 fc	 mov	 edx, DWORD PTR _this$[ebp]
  0003e	c7 42 0c 00 00
	00 00		 mov	 DWORD PTR [edx+12], 0
  00045	8b 45 fc	 mov	 eax, DWORD PTR _this$[ebp]
  00048	c7 40 10 00 00
	00 00		 mov	 DWORD PTR [eax+16], 0

; 328  : 		}

  0004f	8b 45 fc	 mov	 eax, DWORD PTR _this$[ebp]
  00052	83 c4 08	 add	 esp, 8
  00055	3b ec		 cmp	 ebp, esp
  00057	e8 00 00 00 00	 call	 __RTC_CheckEsp
  0005c	8b e5		 mov	 esp, ebp
  0005e	5d		 pop	 ebp
  0005f	c3		 ret	 0
??0?$deque@VCPoint@@V?$allocator@VCPoint@@@std@@@std@@QAE@XZ ENDP ; std::deque<CPoint,std::allocator<CPoint> >::deque<CPoint,std::allocator<CPoint> >
_TEXT	ENDS
PUBLIC	?_Tidy@?$deque@VCPoint@@V?$allocator@VCPoint@@@std@@@std@@IAEXXZ ; std::deque<CPoint,std::allocator<CPoint> >::_Tidy
; Function compile flags: /Odt /RTCsu
;	COMDAT ??1?$deque@VCPoint@@V?$allocator@VCPoint@@@std@@@std@@QAE@XZ
_TEXT	SEGMENT
_this$ = -4						; size = 4
??1?$deque@VCPoint@@V?$allocator@VCPoint@@@std@@@std@@QAE@XZ PROC NEAR ; std::deque<CPoint,std::allocator<CPoint> >::~deque<CPoint,std::allocator<CPoint> >, COMDAT
; _this$ = ecx

; 413  : 		{	// destroy the deque

  00000	55		 push	 ebp
  00001	8b ec		 mov	 ebp, esp
  00003	51		 push	 ecx
  00004	c7 45 fc cc cc
	cc cc		 mov	 DWORD PTR [ebp-4], -858993460 ; ccccccccH
  0000b	89 4d fc	 mov	 DWORD PTR _this$[ebp], ecx

; 414  : 		_Tidy();

  0000e	8b 4d fc	 mov	 ecx, DWORD PTR _this$[ebp]
  00011	e8 00 00 00 00	 call	 ?_Tidy@?$deque@VCPoint@@V?$allocator@VCPoint@@@std@@@std@@IAEXXZ ; std::deque<CPoint,std::allocator<CPoint> >::_Tidy

; 415  : 		}

  00016	83 c4 04	 add	 esp, 4
  00019	3b ec		 cmp	 ebp, esp
  0001b	e8 00 00 00 00	 call	 __RTC_CheckEsp
  00020	8b e5		 mov	 esp, ebp
  00022	5d		 pop	 ebp
  00023	c3		 ret	 0
??1?$deque@VCPoint@@V?$allocator@VCPoint@@@std@@@std@@QAE@XZ ENDP ; std::deque<CPoint,std::allocator<CPoint> >::~deque<CPoint,std::allocator<CPoint> >
; Function compile flags: /Odt /RTCsu
_TEXT	ENDS
;	COMDAT ?size@?$deque@VCPoint@@V?$allocator@VCPoint@@@std@@@std@@QBEIXZ
_TEXT	SEGMENT
_this$ = -4						; size = 4
?size@?$deque@VCPoint@@V?$allocator@VCPoint@@@std@@@std@@QBEIXZ PROC NEAR ; std::deque<CPoint,std::allocator<CPoint> >::size, COMDAT
; _this$ = ecx

; 491  : 		{	// return length of sequence

  00000	55		 push	 ebp
  00001	8b ec		 mov	 ebp, esp
  00003	51		 push	 ecx
  00004	c7 45 fc cc cc
	cc cc		 mov	 DWORD PTR [ebp-4], -858993460 ; ccccccccH
  0000b	89 4d fc	 mov	 DWORD PTR _this$[ebp], ecx

; 492  : 		return (_Mysize);

  0000e	8b 45 fc	 mov	 eax, DWORD PTR _this$[ebp]
  00011	8b 40 10	 mov	 eax, DWORD PTR [eax+16]

; 493  : 		}

  00014	8b e5		 mov	 esp, ebp
  00016	5d		 pop	 ebp
  00017	c3		 ret	 0
?size@?$deque@VCPoint@@V?$allocator@VCPoint@@@std@@@std@@QBEIXZ ENDP ; std::deque<CPoint,std::allocator<CPoint> >::size
_TEXT	ENDS
PUBLIC	??Diterator@?$deque@VCPoint@@V?$allocator@VCPoint@@@std@@@std@@QBEAAVCPoint@@XZ ; std::deque<CPoint,std::allocator<CPoint> >::iterator::operator*
PUBLIC	?begin@?$deque@VCPoint@@V?$allocator@VCPoint@@@std@@@std@@QAE?AViterator@12@XZ ; std::deque<CPoint,std::allocator<CPoint> >::begin
; Function compile flags: /Odt /RTCsu
;	COMDAT ?front@?$deque@VCPoint@@V?$allocator@VCPoint@@@std@@@std@@QAEAAVCPoint@@XZ
_TEXT	SEGMENT
$T192869 = -12						; size = 8
_this$ = -4						; size = 4
?front@?$deque@VCPoint@@V?$allocator@VCPoint@@@std@@@std@@QAEAAVCPoint@@XZ PROC NEAR ; std::deque<CPoint,std::allocator<CPoint> >::front, COMDAT
; _this$ = ecx

; 535  : 		{	// return first element of mutable sequence

  00000	55		 push	 ebp
  00001	8b ec		 mov	 ebp, esp
  00003	83 ec 0c	 sub	 esp, 12			; 0000000cH
  00006	c7 45 f4 cc cc
	cc cc		 mov	 DWORD PTR [ebp-12], -858993460 ; ccccccccH
  0000d	c7 45 f8 cc cc
	cc cc		 mov	 DWORD PTR [ebp-8], -858993460 ; ccccccccH
  00014	c7 45 fc cc cc
	cc cc		 mov	 DWORD PTR [ebp-4], -858993460 ; ccccccccH
  0001b	89 4d fc	 mov	 DWORD PTR _this$[ebp], ecx

; 536  : 		return (*begin());

  0001e	8d 45 f4	 lea	 eax, DWORD PTR $T192869[ebp]
  00021	50		 push	 eax
  00022	8b 4d fc	 mov	 ecx, DWORD PTR _this$[ebp]
  00025	e8 00 00 00 00	 call	 ?begin@?$deque@VCPoint@@V?$allocator@VCPoint@@@std@@@std@@QAE?AViterator@12@XZ ; std::deque<CPoint,std::allocator<CPoint> >::begin
  0002a	8b c8		 mov	 ecx, eax
  0002c	e8 00 00 00 00	 call	 ??Diterator@?$deque@VCPoint@@V?$allocator@VCPoint@@@std@@@std@@QBEAAVCPoint@@XZ ; std::deque<CPoint,std::allocator<CPoint> >::iterator::operator*

; 537  : 		}

  00031	83 c4 0c	 add	 esp, 12			; 0000000cH
  00034	3b ec		 cmp	 ebp, esp
  00036	e8 00 00 00 00	 call	 __RTC_CheckEsp
  0003b	8b e5		 mov	 esp, ebp
  0003d	5d		 pop	 ebp
  0003e	c3		 ret	 0
?front@?$deque@VCPoint@@V?$allocator@VCPoint@@@std@@@std@@QAEAAVCPoint@@XZ ENDP ; std::deque<CPoint,std::allocator<CPoint> >::front
_TEXT	ENDS
PUBLIC	?destroy@?$allocator@VCPoint@@@std@@QAEXPAVCPoint@@@Z ; std::allocator<CPoint>::destroy
PUBLIC	?empty@?$deque@VCPoint@@V?$allocator@VCPoint@@@std@@@std@@QBE_NXZ ; std::deque<CPoint,std::allocator<CPoint> >::empty
; Function compile flags: /Odt /RTCsu
;	COMDAT ?pop_front@?$deque@VCPoint@@V?$allocator@VCPoint@@@std@@@std@@QAEXXZ
_TEXT	SEGMENT
__Block$190877 = -8					; size = 4
_this$ = -4						; size = 4
?pop_front@?$deque@VCPoint@@V?$allocator@VCPoint@@@std@@@std@@QAEXXZ PROC NEAR ; std::deque<CPoint,std::allocator<CPoint> >::pop_front, COMDAT
; _this$ = ecx

; 570  : 		{	// erase element at beginning

  00000	55		 push	 ebp
  00001	8b ec		 mov	 ebp, esp
  00003	83 ec 08	 sub	 esp, 8
  00006	56		 push	 esi
  00007	c7 45 f8 cc cc
	cc cc		 mov	 DWORD PTR [ebp-8], -858993460 ; ccccccccH
  0000e	c7 45 fc cc cc
	cc cc		 mov	 DWORD PTR [ebp-4], -858993460 ; ccccccccH
  00015	89 4d fc	 mov	 DWORD PTR _this$[ebp], ecx

; 571  : 		if (!empty())

  00018	8b 4d fc	 mov	 ecx, DWORD PTR _this$[ebp]
  0001b	e8 00 00 00 00	 call	 ?empty@?$deque@VCPoint@@V?$allocator@VCPoint@@@std@@@std@@QBE_NXZ ; std::deque<CPoint,std::allocator<CPoint> >::empty
  00020	0f b6 c0	 movzx	 eax, al
  00023	85 c0		 test	 eax, eax
  00025	0f 85 80 00 00
	00		 jne	 $L190875

; 572  : 			{	// something to erase, do it
; 573  : 			size_type _Block = _Myoff / _DEQUESIZ;

  0002b	8b 4d fc	 mov	 ecx, DWORD PTR _this$[ebp]
  0002e	8b 51 0c	 mov	 edx, DWORD PTR [ecx+12]
  00031	d1 ea		 shr	 edx, 1
  00033	89 55 f8	 mov	 DWORD PTR __Block$190877[ebp], edx

; 574  : 			this->_Alval.destroy(_Map[_Block] + _Myoff % _DEQUESIZ);

  00036	8b 45 fc	 mov	 eax, DWORD PTR _this$[ebp]
  00039	8b 48 04	 mov	 ecx, DWORD PTR [eax+4]
  0003c	8b 55 fc	 mov	 edx, DWORD PTR _this$[ebp]
  0003f	8b 42 0c	 mov	 eax, DWORD PTR [edx+12]
  00042	33 d2		 xor	 edx, edx
  00044	be 02 00 00 00	 mov	 esi, 2
  00049	f7 f6		 div	 esi
  0004b	8b 45 f8	 mov	 eax, DWORD PTR __Block$190877[ebp]
  0004e	8b 0c 81	 mov	 ecx, DWORD PTR [ecx+eax*4]
  00051	8d 14 d1	 lea	 edx, DWORD PTR [ecx+edx*8]
  00054	52		 push	 edx
  00055	8b 4d fc	 mov	 ecx, DWORD PTR _this$[ebp]
  00058	83 c1 01	 add	 ecx, 1
  0005b	e8 00 00 00 00	 call	 ?destroy@?$allocator@VCPoint@@@std@@QAEXPAVCPoint@@@Z ; std::allocator<CPoint>::destroy

; 575  : 			if (_Mapsize * _DEQUESIZ <= ++_Myoff)

  00060	8b 45 fc	 mov	 eax, DWORD PTR _this$[ebp]
  00063	8b 48 0c	 mov	 ecx, DWORD PTR [eax+12]
  00066	83 c1 01	 add	 ecx, 1
  00069	8b 55 fc	 mov	 edx, DWORD PTR _this$[ebp]
  0006c	89 4a 0c	 mov	 DWORD PTR [edx+12], ecx
  0006f	8b 45 fc	 mov	 eax, DWORD PTR _this$[ebp]
  00072	8b 48 08	 mov	 ecx, DWORD PTR [eax+8]
  00075	d1 e1		 shl	 ecx, 1
  00077	8b 55 fc	 mov	 edx, DWORD PTR _this$[ebp]
  0007a	3b 4a 0c	 cmp	 ecx, DWORD PTR [edx+12]
  0007d	77 0a		 ja	 SHORT $L190878

; 576  : 				_Myoff = 0;

  0007f	8b 45 fc	 mov	 eax, DWORD PTR _this$[ebp]
  00082	c7 40 0c 00 00
	00 00		 mov	 DWORD PTR [eax+12], 0
$L190878:

; 577  : 			if (--_Mysize == 0)

  00089	8b 4d fc	 mov	 ecx, DWORD PTR _this$[ebp]
  0008c	8b 51 10	 mov	 edx, DWORD PTR [ecx+16]
  0008f	83 ea 01	 sub	 edx, 1
  00092	8b 45 fc	 mov	 eax, DWORD PTR _this$[ebp]
  00095	89 50 10	 mov	 DWORD PTR [eax+16], edx
  00098	8b 4d fc	 mov	 ecx, DWORD PTR _this$[ebp]
  0009b	83 79 10 00	 cmp	 DWORD PTR [ecx+16], 0
  0009f	75 0a		 jne	 SHORT $L190875

; 578  : 				_Myoff = 0;

  000a1	8b 55 fc	 mov	 edx, DWORD PTR _this$[ebp]
  000a4	c7 42 0c 00 00
	00 00		 mov	 DWORD PTR [edx+12], 0
$L190875:

; 579  : 			}
; 580  : 		}

  000ab	5e		 pop	 esi
  000ac	83 c4 08	 add	 esp, 8
  000af	3b ec		 cmp	 ebp, esp
  000b1	e8 00 00 00 00	 call	 __RTC_CheckEsp
  000b6	8b e5		 mov	 esp, ebp
  000b8	5d		 pop	 ebp
  000b9	c3		 ret	 0
?pop_front@?$deque@VCPoint@@V?$allocator@VCPoint@@@std@@@std@@QAEXXZ ENDP ; std::deque<CPoint,std::allocator<CPoint> >::pop_front
_TEXT	ENDS
PUBLIC	?allocate@?$allocator@VCPoint@@@std@@QAEPAVCPoint@@I@Z ; std::allocator<CPoint>::allocate
PUBLIC	?construct@?$allocator@VCPoint@@@std@@QAEXPAVCPoint@@ABV3@@Z ; std::allocator<CPoint>::construct
PUBLIC	?_Growmap@?$deque@VCPoint@@V?$allocator@VCPoint@@@std@@@std@@IAEXI@Z ; std::deque<CPoint,std::allocator<CPoint> >::_Growmap
; Function compile flags: /Odt /RTCsu
;	COMDAT ?push_back@?$deque@VCPoint@@V?$allocator@VCPoint@@@std@@@std@@QAEXABVCPoint@@@Z
_TEXT	SEGMENT
__Block$ = -12						; size = 4
__Newoff$ = -8						; size = 4
_this$ = -4						; size = 4
__Val$ = 8						; size = 4
?push_back@?$deque@VCPoint@@V?$allocator@VCPoint@@@std@@@std@@QAEXABVCPoint@@@Z PROC NEAR ; std::deque<CPoint,std::allocator<CPoint> >::push_back, COMDAT
; _this$ = ecx

; 583  : 		{	// insert element at end

  00000	55		 push	 ebp
  00001	8b ec		 mov	 ebp, esp
  00003	83 ec 0c	 sub	 esp, 12			; 0000000cH
  00006	56		 push	 esi
  00007	c7 45 f4 cc cc
	cc cc		 mov	 DWORD PTR [ebp-12], -858993460 ; ccccccccH
  0000e	c7 45 f8 cc cc
	cc cc		 mov	 DWORD PTR [ebp-8], -858993460 ; ccccccccH
  00015	c7 45 fc cc cc
	cc cc		 mov	 DWORD PTR [ebp-4], -858993460 ; ccccccccH
  0001c	89 4d fc	 mov	 DWORD PTR _this$[ebp], ecx

; 584  : 		if ((_Myoff + _Mysize) % _DEQUESIZ == 0
; 585  : 			&& _Mapsize <= (_Mysize + _DEQUESIZ) / _DEQUESIZ)

  0001f	8b 45 fc	 mov	 eax, DWORD PTR _this$[ebp]
  00022	8b 40 0c	 mov	 eax, DWORD PTR [eax+12]
  00025	8b 4d fc	 mov	 ecx, DWORD PTR _this$[ebp]
  00028	03 41 10	 add	 eax, DWORD PTR [ecx+16]
  0002b	33 d2		 xor	 edx, edx
  0002d	b9 02 00 00 00	 mov	 ecx, 2
  00032	f7 f1		 div	 ecx
  00034	85 d2		 test	 edx, edx
  00036	75 1d		 jne	 SHORT $L190882
  00038	8b 55 fc	 mov	 edx, DWORD PTR _this$[ebp]
  0003b	8b 42 10	 mov	 eax, DWORD PTR [edx+16]
  0003e	83 c0 02	 add	 eax, 2
  00041	d1 e8		 shr	 eax, 1
  00043	8b 4d fc	 mov	 ecx, DWORD PTR _this$[ebp]
  00046	39 41 08	 cmp	 DWORD PTR [ecx+8], eax
  00049	77 0a		 ja	 SHORT $L190882

; 586  : 			_Growmap(1);

  0004b	6a 01		 push	 1
  0004d	8b 4d fc	 mov	 ecx, DWORD PTR _this$[ebp]
  00050	e8 00 00 00 00	 call	 ?_Growmap@?$deque@VCPoint@@V?$allocator@VCPoint@@@std@@@std@@IAEXI@Z ; std::deque<CPoint,std::allocator<CPoint> >::_Growmap
$L190882:

; 587  : 		size_type _Newoff = _Myoff + _Mysize;

  00055	8b 55 fc	 mov	 edx, DWORD PTR _this$[ebp]
  00058	8b 42 0c	 mov	 eax, DWORD PTR [edx+12]
  0005b	8b 4d fc	 mov	 ecx, DWORD PTR _this$[ebp]
  0005e	03 41 10	 add	 eax, DWORD PTR [ecx+16]
  00061	89 45 f8	 mov	 DWORD PTR __Newoff$[ebp], eax

; 588  : 		size_type _Block = _Newoff / _DEQUESIZ;

  00064	8b 55 f8	 mov	 edx, DWORD PTR __Newoff$[ebp]
  00067	d1 ea		 shr	 edx, 1
  00069	89 55 f4	 mov	 DWORD PTR __Block$[ebp], edx

; 589  : 		if (_Mapsize <= _Block)

  0006c	8b 45 fc	 mov	 eax, DWORD PTR _this$[ebp]
  0006f	8b 48 08	 mov	 ecx, DWORD PTR [eax+8]
  00072	3b 4d f4	 cmp	 ecx, DWORD PTR __Block$[ebp]
  00075	77 0c		 ja	 SHORT $L190885

; 590  : 			_Block -= _Mapsize;

  00077	8b 55 fc	 mov	 edx, DWORD PTR _this$[ebp]
  0007a	8b 45 f4	 mov	 eax, DWORD PTR __Block$[ebp]
  0007d	2b 42 08	 sub	 eax, DWORD PTR [edx+8]
  00080	89 45 f4	 mov	 DWORD PTR __Block$[ebp], eax
$L190885:

; 591  : 		if (_Map[_Block] == 0)

  00083	8b 4d fc	 mov	 ecx, DWORD PTR _this$[ebp]
  00086	8b 51 04	 mov	 edx, DWORD PTR [ecx+4]
  00089	8b 45 f4	 mov	 eax, DWORD PTR __Block$[ebp]
  0008c	83 3c 82 00	 cmp	 DWORD PTR [edx+eax*4], 0
  00090	75 19		 jne	 SHORT $L190886

; 592  : 			_Map[_Block] = this->_Alval.allocate(_DEQUESIZ);

  00092	6a 02		 push	 2
  00094	8b 4d fc	 mov	 ecx, DWORD PTR _this$[ebp]
  00097	83 c1 01	 add	 ecx, 1
  0009a	e8 00 00 00 00	 call	 ?allocate@?$allocator@VCPoint@@@std@@QAEPAVCPoint@@I@Z ; std::allocator<CPoint>::allocate
  0009f	8b 4d fc	 mov	 ecx, DWORD PTR _this$[ebp]
  000a2	8b 51 04	 mov	 edx, DWORD PTR [ecx+4]
  000a5	8b 4d f4	 mov	 ecx, DWORD PTR __Block$[ebp]
  000a8	89 04 8a	 mov	 DWORD PTR [edx+ecx*4], eax
$L190886:

; 593  : 		this->_Alval.construct(_Map[_Block] + _Newoff % _DEQUESIZ, _Val);

  000ab	8b 55 08	 mov	 edx, DWORD PTR __Val$[ebp]
  000ae	52		 push	 edx
  000af	8b 45 fc	 mov	 eax, DWORD PTR _this$[ebp]
  000b2	8b 48 04	 mov	 ecx, DWORD PTR [eax+4]
  000b5	8b 45 f8	 mov	 eax, DWORD PTR __Newoff$[ebp]
  000b8	33 d2		 xor	 edx, edx
  000ba	be 02 00 00 00	 mov	 esi, 2
  000bf	f7 f6		 div	 esi
  000c1	8b 45 f4	 mov	 eax, DWORD PTR __Block$[ebp]
  000c4	8b 0c 81	 mov	 ecx, DWORD PTR [ecx+eax*4]
  000c7	8d 14 d1	 lea	 edx, DWORD PTR [ecx+edx*8]
  000ca	52		 push	 edx
  000cb	8b 4d fc	 mov	 ecx, DWORD PTR _this$[ebp]
  000ce	83 c1 01	 add	 ecx, 1
  000d1	e8 00 00 00 00	 call	 ?construct@?$allocator@VCPoint@@@std@@QAEXPAVCPoint@@ABV3@@Z ; std::allocator<CPoint>::construct

; 594  : 		++_Mysize;

  000d6	8b 45 fc	 mov	 eax, DWORD PTR _this$[ebp]
  000d9	8b 48 10	 mov	 ecx, DWORD PTR [eax+16]
  000dc	83 c1 01	 add	 ecx, 1
  000df	8b 55 fc	 mov	 edx, DWORD PTR _this$[ebp]
  000e2	89 4a 10	 mov	 DWORD PTR [edx+16], ecx

; 595  : 		}

  000e5	5e		 pop	 esi
  000e6	83 c4 0c	 add	 esp, 12			; 0000000cH
  000e9	3b ec		 cmp	 ebp, esp
  000eb	e8 00 00 00 00	 call	 __RTC_CheckEsp
  000f0	8b e5		 mov	 esp, ebp
  000f2	5d		 pop	 ebp
  000f3	c2 04 00	 ret	 4
?push_back@?$deque@VCPoint@@V?$allocator@VCPoint@@@std@@@std@@QAEXABVCPoint@@@Z ENDP ; std::deque<CPoint,std::allocator<CPoint> >::push_back
_TEXT	ENDS
PUBLIC	??0?$_Vector_val@HV?$allocator@H@std@@@std@@IAE@V?$allocator@H@1@@Z ; std::_Vector_val<int,std::allocator<int> >::_Vector_val<int,std::allocator<int> >
PUBLIC	??0?$allocator@H@std@@QAE@XZ			; std::allocator<int>::allocator<int>
PUBLIC	?_Buy@?$vector@HV?$allocator@H@std@@@std@@IAE_NI@Z ; std::vector<int,std::allocator<int> >::_Buy
; Function compile flags: /Odt /RTCsu
; File d:\program files (x86)\microsoft visual studio .net 2003\vc7\include\vector
;	COMDAT ??0?$vector@HV?$allocator@H@std@@@std@@QAE@XZ
_TEXT	SEGMENT
_this$ = -4						; size = 4
??0?$vector@HV?$allocator@H@std@@@std@@QAE@XZ PROC NEAR	; std::vector<int,std::allocator<int> >::vector<int,std::allocator<int> >, COMDAT
; _this$ = ecx

; 299  : 		{	// construct empty vector

  00000	55		 push	 ebp
  00001	8b ec		 mov	 ebp, esp
  00003	83 ec 08	 sub	 esp, 8
  00006	c7 45 f8 cc cc
	cc cc		 mov	 DWORD PTR [ebp-8], -858993460 ; ccccccccH
  0000d	c7 45 fc cc cc
	cc cc		 mov	 DWORD PTR [ebp-4], -858993460 ; ccccccccH
  00014	89 4d fc	 mov	 DWORD PTR _this$[ebp], ecx
  00017	51		 push	 ecx
  00018	8b cc		 mov	 ecx, esp
  0001a	e8 00 00 00 00	 call	 ??0?$allocator@H@std@@QAE@XZ ; std::allocator<int>::allocator<int>
  0001f	8b 4d fc	 mov	 ecx, DWORD PTR _this$[ebp]
  00022	e8 00 00 00 00	 call	 ??0?$_Vector_val@HV?$allocator@H@std@@@std@@IAE@V?$allocator@H@1@@Z ; std::_Vector_val<int,std::allocator<int> >::_Vector_val<int,std::allocator<int> >

; 300  : 		_Buy(0);

  00027	6a 00		 push	 0
  00029	8b 4d fc	 mov	 ecx, DWORD PTR _this$[ebp]
  0002c	e8 00 00 00 00	 call	 ?_Buy@?$vector@HV?$allocator@H@std@@@std@@IAE_NI@Z ; std::vector<int,std::allocator<int> >::_Buy

; 301  : 		}

  00031	8b 45 fc	 mov	 eax, DWORD PTR _this$[ebp]
  00034	83 c4 08	 add	 esp, 8
  00037	3b ec		 cmp	 ebp, esp
  00039	e8 00 00 00 00	 call	 __RTC_CheckEsp
  0003e	8b e5		 mov	 esp, ebp
  00040	5d		 pop	 ebp
  00041	c3		 ret	 0
??0?$vector@HV?$allocator@H@std@@@std@@QAE@XZ ENDP	; std::vector<int,std::allocator<int> >::vector<int,std::allocator<int> >
_TEXT	ENDS
PUBLIC	??0?$allocator@H@std@@QAE@ABV01@@Z		; std::allocator<int>::allocator<int>
PUBLIC	?begin@?$vector@HV?$allocator@H@std@@@std@@QBE?AVconst_iterator@12@XZ ; std::vector<int,std::allocator<int> >::begin
PUBLIC	?end@?$vector@HV?$allocator@H@std@@@std@@QBE?AVconst_iterator@12@XZ ; std::vector<int,std::allocator<int> >::end
PUBLIC	??$_Ucopy@Vconst_iterator@?$vector@HV?$allocator@H@std@@@std@@@?$vector@HV?$allocator@H@std@@@std@@IAEPAHVconst_iterator@01@0PAH@Z ; std::vector<int,std::allocator<int> >::_Ucopy<std::vector<int,std::allocator<int> >::const_iterator>
PUBLIC	?_Tidy@?$vector@HV?$allocator@H@std@@@std@@IAEXXZ ; std::vector<int,std::allocator<int> >::_Tidy
EXTRN	__CxxThrowException@8:NEAR
;	COMDAT xdata$x
xdata$x	SEGMENT
$T192884 DD	0ffffffffH
	DD	00H
	DD	0ffffffffH
	DD	00H
$T192886 DD	00H
	DD	00H
	DD	00H
	DD	FLAT:$L192880
$T192885 DD	00H
	DD	00H
	DD	01H
	DD	01H
	DD	FLAT:$T192886
$T192882 DD	019930520H
	DD	02H
	DD	FLAT:$T192884
	DD	01H
	DD	FLAT:$T192885
	DD	2 DUP(00H)
; Function compile flags: /Odt /RTCsu
xdata$x	ENDS
;	COMDAT ??0?$vector@HV?$allocator@H@std@@@std@@QAE@ABV01@@Z
_TEXT	SEGMENT
tv134 = -44						; size = 4
tv133 = -40						; size = 4
tv132 = -36						; size = 4
$T192877 = -32						; size = 4
$T192876 = -28						; size = 4
$T192875 = -24						; size = 4
_this$ = -20						; size = 4
__$EHRec$ = -16						; size = 16
__Right$ = 8						; size = 4
??0?$vector@HV?$allocator@H@std@@@std@@QAE@ABV01@@Z PROC NEAR ; std::vector<int,std::allocator<int> >::vector<int,std::allocator<int> >, COMDAT
; _this$ = ecx

; 329  : 		{	// construct by copying _Right

  00000	55		 push	 ebp
  00001	8b ec		 mov	 ebp, esp
  00003	6a ff		 push	 -1
  00005	68 00 00 00 00	 push	 __ehhandler$??0?$vector@HV?$allocator@H@std@@@std@@QAE@ABV01@@Z
  0000a	64 a1 00 00 00
	00		 mov	 eax, DWORD PTR fs:__except_list
  00010	50		 push	 eax
  00011	64 89 25 00 00
	00 00		 mov	 DWORD PTR fs:__except_list, esp
  00018	51		 push	 ecx
  00019	83 ec 1c	 sub	 esp, 28			; 0000001cH
  0001c	53		 push	 ebx
  0001d	56		 push	 esi
  0001e	57		 push	 edi
  0001f	b8 cc cc cc cc	 mov	 eax, -858993460		; ccccccccH
  00024	89 45 d4	 mov	 DWORD PTR [ebp-44], eax
  00027	89 45 d8	 mov	 DWORD PTR [ebp-40], eax
  0002a	89 45 dc	 mov	 DWORD PTR [ebp-36], eax
  0002d	89 45 e0	 mov	 DWORD PTR [ebp-32], eax
  00030	89 45 e4	 mov	 DWORD PTR [ebp-28], eax
  00033	89 45 e8	 mov	 DWORD PTR [ebp-24], eax
  00036	89 45 ec	 mov	 DWORD PTR [ebp-20], eax
  00039	89 65 f0	 mov	 DWORD PTR __$EHRec$[ebp], esp
  0003c	89 4d ec	 mov	 DWORD PTR _this$[ebp], ecx
  0003f	51		 push	 ecx
  00040	8b cc		 mov	 ecx, esp
  00042	89 65 e8	 mov	 DWORD PTR $T192875[ebp], esp
  00045	8b 45 08	 mov	 eax, DWORD PTR __Right$[ebp]
  00048	50		 push	 eax
  00049	e8 00 00 00 00	 call	 ??0?$allocator@H@std@@QAE@ABV01@@Z ; std::allocator<int>::allocator<int>
  0004e	8b 4d ec	 mov	 ecx, DWORD PTR _this$[ebp]
  00051	e8 00 00 00 00	 call	 ??0?$_Vector_val@HV?$allocator@H@std@@@std@@IAE@V?$allocator@H@1@@Z ; std::_Vector_val<int,std::allocator<int> >::_Vector_val<int,std::allocator<int> >

; 330  : 		if (_Buy(_Right.size()))

  00056	8b 4d 08	 mov	 ecx, DWORD PTR __Right$[ebp]
  00059	e8 00 00 00 00	 call	 ?size@?$vector@HV?$allocator@H@std@@@std@@QBEIXZ ; std::vector<int,std::allocator<int> >::size
  0005e	50		 push	 eax
  0005f	8b 4d ec	 mov	 ecx, DWORD PTR _this$[ebp]
  00062	e8 00 00 00 00	 call	 ?_Buy@?$vector@HV?$allocator@H@std@@@std@@IAE_NI@Z ; std::vector<int,std::allocator<int> >::_Buy
  00067	0f b6 c8	 movzx	 ecx, al
  0006a	85 c9		 test	 ecx, ecx
  0006c	74 5f		 je	 SHORT $L192879

; 331  : 			_TRY_BEGIN

  0006e	c7 45 fc 00 00
	00 00		 mov	 DWORD PTR __$EHRec$[ebp+12], 0

; 332  : 			_Mylast = _Ucopy(_Right.begin(), _Right.end(), _Myfirst);

  00075	8d 55 e4	 lea	 edx, DWORD PTR $T192876[ebp]
  00078	52		 push	 edx
  00079	8b 4d 08	 mov	 ecx, DWORD PTR __Right$[ebp]
  0007c	e8 00 00 00 00	 call	 ?end@?$vector@HV?$allocator@H@std@@@std@@QBE?AVconst_iterator@12@XZ ; std::vector<int,std::allocator<int> >::end
  00081	89 45 dc	 mov	 DWORD PTR tv132[ebp], eax
  00084	8d 45 e0	 lea	 eax, DWORD PTR $T192877[ebp]
  00087	50		 push	 eax
  00088	8b 4d 08	 mov	 ecx, DWORD PTR __Right$[ebp]
  0008b	e8 00 00 00 00	 call	 ?begin@?$vector@HV?$allocator@H@std@@@std@@QBE?AVconst_iterator@12@XZ ; std::vector<int,std::allocator<int> >::begin
  00090	89 45 d8	 mov	 DWORD PTR tv133[ebp], eax
  00093	8b 4d ec	 mov	 ecx, DWORD PTR _this$[ebp]
  00096	8b 51 04	 mov	 edx, DWORD PTR [ecx+4]
  00099	52		 push	 edx
  0009a	8b 45 dc	 mov	 eax, DWORD PTR tv132[ebp]
  0009d	8b 08		 mov	 ecx, DWORD PTR [eax]
  0009f	51		 push	 ecx
  000a0	8b 55 d8	 mov	 edx, DWORD PTR tv133[ebp]
  000a3	8b 02		 mov	 eax, DWORD PTR [edx]
  000a5	50		 push	 eax
  000a6	8b 4d ec	 mov	 ecx, DWORD PTR _this$[ebp]
  000a9	e8 00 00 00 00	 call	 ??$_Ucopy@Vconst_iterator@?$vector@HV?$allocator@H@std@@@std@@@?$vector@HV?$allocator@H@std@@@std@@IAEPAHVconst_iterator@01@0PAH@Z ; std::vector<int,std::allocator<int> >::_Ucopy<std::vector<int,std::allocator<int> >::const_iterator>
  000ae	89 45 d4	 mov	 DWORD PTR tv134[ebp], eax
  000b1	8b 4d ec	 mov	 ecx, DWORD PTR _this$[ebp]
  000b4	8b 55 d4	 mov	 edx, DWORD PTR tv134[ebp]
  000b7	89 51 08	 mov	 DWORD PTR [ecx+8], edx
  000ba	eb 11		 jmp	 SHORT $L192879
$L192880:

; 333  : 			_CATCH_ALL
; 334  : 			_Tidy();

  000bc	8b 4d ec	 mov	 ecx, DWORD PTR _this$[ebp]
  000bf	e8 00 00 00 00	 call	 ?_Tidy@?$vector@HV?$allocator@H@std@@@std@@IAEXXZ ; std::vector<int,std::allocator<int> >::_Tidy

; 335  : 			_RERAISE;

  000c4	6a 00		 push	 0
  000c6	6a 00		 push	 0
  000c8	e8 00 00 00 00	 call	 __CxxThrowException@8
$L192879:

; 336  : 			_CATCH_END

  000cd	c7 45 fc ff ff
	ff ff		 mov	 DWORD PTR __$EHRec$[ebp+12], -1

; 337  : 		}

  000d4	8b 45 ec	 mov	 eax, DWORD PTR _this$[ebp]
$L192874:
  000d7	8b 4d f4	 mov	 ecx, DWORD PTR __$EHRec$[ebp+4]
  000da	64 89 0d 00 00
	00 00		 mov	 DWORD PTR fs:__except_list, ecx
  000e1	5f		 pop	 edi
  000e2	5e		 pop	 esi
  000e3	5b		 pop	 ebx
  000e4	83 c4 2c	 add	 esp, 44			; 0000002cH
  000e7	3b ec		 cmp	 ebp, esp
  000e9	e8 00 00 00 00	 call	 __RTC_CheckEsp
  000ee	8b e5		 mov	 esp, ebp
  000f0	5d		 pop	 ebp
  000f1	c2 04 00	 ret	 4
_TEXT	ENDS
;	COMDAT text$x
text$x	SEGMENT
__ehhandler$??0?$vector@HV?$allocator@H@std@@@std@@QAE@ABV01@@Z:
  00000	b8 00 00 00 00	 mov	 eax, OFFSET FLAT:$T192882
  00005	e9 00 00 00 00	 jmp	 ___CxxFrameHandler
text$x	ENDS
??0?$vector@HV?$allocator@H@std@@@std@@QAE@ABV01@@Z ENDP ; std::vector<int,std::allocator<int> >::vector<int,std::allocator<int> >
; Function compile flags: /Odt /RTCsu
;	COMDAT ??1?$vector@HV?$allocator@H@std@@@std@@QAE@XZ
_TEXT	SEGMENT
_this$ = -4						; size = 4
??1?$vector@HV?$allocator@H@std@@@std@@QAE@XZ PROC NEAR	; std::vector<int,std::allocator<int> >::~vector<int,std::allocator<int> >, COMDAT
; _this$ = ecx

; 387  : 		{	// destroy the object

  00000	55		 push	 ebp
  00001	8b ec		 mov	 ebp, esp
  00003	51		 push	 ecx
  00004	c7 45 fc cc cc
	cc cc		 mov	 DWORD PTR [ebp-4], -858993460 ; ccccccccH
  0000b	89 4d fc	 mov	 DWORD PTR _this$[ebp], ecx

; 388  : 		_Tidy();

  0000e	8b 4d fc	 mov	 ecx, DWORD PTR _this$[ebp]
  00011	e8 00 00 00 00	 call	 ?_Tidy@?$vector@HV?$allocator@H@std@@@std@@IAEXXZ ; std::vector<int,std::allocator<int> >::_Tidy

; 389  : 		}

  00016	83 c4 04	 add	 esp, 4
  00019	3b ec		 cmp	 ebp, esp
  0001b	e8 00 00 00 00	 call	 __RTC_CheckEsp
  00020	8b e5		 mov	 esp, ebp
  00022	5d		 pop	 ebp
  00023	c3		 ret	 0
??1?$vector@HV?$allocator@H@std@@@std@@QAE@XZ ENDP	; std::vector<int,std::allocator<int> >::~vector<int,std::allocator<int> >
_TEXT	ENDS
PUBLIC	??0iterator@?$vector@HV?$allocator@H@std@@@std@@QAE@PAH@Z ; std::vector<int,std::allocator<int> >::iterator::iterator
; Function compile flags: /Odt /RTCsu
;	COMDAT ?begin@?$vector@HV?$allocator@H@std@@@std@@QAE?AViterator@12@XZ
_TEXT	SEGMENT
_this$ = -4						; size = 4
___$ReturnUdt$ = 8					; size = 4
?begin@?$vector@HV?$allocator@H@std@@@std@@QAE?AViterator@12@XZ PROC NEAR ; std::vector<int,std::allocator<int> >::begin, COMDAT
; _this$ = ecx

; 462  : 		{	// return iterator for beginning of mutable sequence

  00000	55		 push	 ebp
  00001	8b ec		 mov	 ebp, esp
  00003	51		 push	 ecx
  00004	c7 45 fc cc cc
	cc cc		 mov	 DWORD PTR [ebp-4], -858993460 ; ccccccccH
  0000b	89 4d fc	 mov	 DWORD PTR _this$[ebp], ecx

; 463  : 		return (iterator(_Myfirst));

  0000e	8b 45 fc	 mov	 eax, DWORD PTR _this$[ebp]
  00011	8b 48 04	 mov	 ecx, DWORD PTR [eax+4]
  00014	51		 push	 ecx
  00015	8b 4d 08	 mov	 ecx, DWORD PTR ___$ReturnUdt$[ebp]
  00018	e8 00 00 00 00	 call	 ??0iterator@?$vector@HV?$allocator@H@std@@@std@@QAE@PAH@Z ; std::vector<int,std::allocator<int> >::iterator::iterator
  0001d	8b 45 08	 mov	 eax, DWORD PTR ___$ReturnUdt$[ebp]

; 464  : 		}

  00020	83 c4 04	 add	 esp, 4
  00023	3b ec		 cmp	 ebp, esp
  00025	e8 00 00 00 00	 call	 __RTC_CheckEsp
  0002a	8b e5		 mov	 esp, ebp
  0002c	5d		 pop	 ebp
  0002d	c2 04 00	 ret	 4
?begin@?$vector@HV?$allocator@H@std@@@std@@QAE?AViterator@12@XZ ENDP ; std::vector<int,std::allocator<int> >::begin
; Function compile flags: /Odt /RTCsu
_TEXT	ENDS
;	COMDAT ?end@?$vector@HV?$allocator@H@std@@@std@@QAE?AViterator@12@XZ
_TEXT	SEGMENT
_this$ = -4						; size = 4
___$ReturnUdt$ = 8					; size = 4
?end@?$vector@HV?$allocator@H@std@@@std@@QAE?AViterator@12@XZ PROC NEAR ; std::vector<int,std::allocator<int> >::end, COMDAT
; _this$ = ecx

; 472  : 		{	// return iterator for end of mutable sequence

  00000	55		 push	 ebp
  00001	8b ec		 mov	 ebp, esp
  00003	51		 push	 ecx
  00004	c7 45 fc cc cc
	cc cc		 mov	 DWORD PTR [ebp-4], -858993460 ; ccccccccH
  0000b	89 4d fc	 mov	 DWORD PTR _this$[ebp], ecx

; 473  : 		return (iterator(_Mylast));

  0000e	8b 45 fc	 mov	 eax, DWORD PTR _this$[ebp]
  00011	8b 48 08	 mov	 ecx, DWORD PTR [eax+8]
  00014	51		 push	 ecx
  00015	8b 4d 08	 mov	 ecx, DWORD PTR ___$ReturnUdt$[ebp]
  00018	e8 00 00 00 00	 call	 ??0iterator@?$vector@HV?$allocator@H@std@@@std@@QAE@PAH@Z ; std::vector<int,std::allocator<int> >::iterator::iterator
  0001d	8b 45 08	 mov	 eax, DWORD PTR ___$ReturnUdt$[ebp]

; 474  : 		}

  00020	83 c4 04	 add	 esp, 4
  00023	3b ec		 cmp	 ebp, esp
  00025	e8 00 00 00 00	 call	 __RTC_CheckEsp
  0002a	8b e5		 mov	 esp, ebp
  0002c	5d		 pop	 ebp
  0002d	c2 04 00	 ret	 4
?end@?$vector@HV?$allocator@H@std@@@std@@QAE?AViterator@12@XZ ENDP ; std::vector<int,std::allocator<int> >::end
; Function compile flags: /Odt /RTCsu
_TEXT	ENDS
;	COMDAT ?size@?$vector@HV?$allocator@H@std@@@std@@QBEIXZ
_TEXT	SEGMENT
tv70 = -8						; size = 4
_this$ = -4						; size = 4
?size@?$vector@HV?$allocator@H@std@@@std@@QBEIXZ PROC NEAR ; std::vector<int,std::allocator<int> >::size, COMDAT
; _this$ = ecx

; 515  : 		{	// return length of sequence

  00000	55		 push	 ebp
  00001	8b ec		 mov	 ebp, esp
  00003	83 ec 08	 sub	 esp, 8
  00006	c7 45 f8 cc cc
	cc cc		 mov	 DWORD PTR [ebp-8], -858993460 ; ccccccccH
  0000d	c7 45 fc cc cc
	cc cc		 mov	 DWORD PTR [ebp-4], -858993460 ; ccccccccH
  00014	89 4d fc	 mov	 DWORD PTR _this$[ebp], ecx

; 516  : 		return (_Myfirst == 0 ? 0 : _Mylast - _Myfirst);

  00017	8b 45 fc	 mov	 eax, DWORD PTR _this$[ebp]
  0001a	83 78 04 00	 cmp	 DWORD PTR [eax+4], 0
  0001e	75 09		 jne	 SHORT $L192893
  00020	c7 45 f8 00 00
	00 00		 mov	 DWORD PTR tv70[ebp], 0
  00027	eb 12		 jmp	 SHORT $L192894
$L192893:
  00029	8b 4d fc	 mov	 ecx, DWORD PTR _this$[ebp]
  0002c	8b 55 fc	 mov	 edx, DWORD PTR _this$[ebp]
  0002f	8b 41 08	 mov	 eax, DWORD PTR [ecx+8]
  00032	2b 42 04	 sub	 eax, DWORD PTR [edx+4]
  00035	c1 f8 02	 sar	 eax, 2
  00038	89 45 f8	 mov	 DWORD PTR tv70[ebp], eax
$L192894:
  0003b	8b 45 f8	 mov	 eax, DWORD PTR tv70[ebp]

; 517  : 		}

  0003e	8b e5		 mov	 esp, ebp
  00040	5d		 pop	 ebp
  00041	c3		 ret	 0
?size@?$vector@HV?$allocator@H@std@@@std@@QBEIXZ ENDP	; std::vector<int,std::allocator<int> >::size
_TEXT	ENDS
PUBLIC	??Hiterator@?$vector@HV?$allocator@H@std@@@std@@QBE?AV012@H@Z ; std::vector<int,std::allocator<int> >::iterator::operator+
; Function compile flags: /Odt /RTCsu
;	COMDAT ??A?$vector@HV?$allocator@H@std@@@std@@QAEAAHI@Z
_TEXT	SEGMENT
$T192897 = -12						; size = 4
$T192896 = -8						; size = 4
_this$ = -4						; size = 4
__Pos$ = 8						; size = 4
??A?$vector@HV?$allocator@H@std@@@std@@QAEAAHI@Z PROC NEAR ; std::vector<int,std::allocator<int> >::operator[], COMDAT
; _this$ = ecx

; 554  : 		{	// subscript mutable sequence

  00000	55		 push	 ebp
  00001	8b ec		 mov	 ebp, esp
  00003	83 ec 0c	 sub	 esp, 12			; 0000000cH
  00006	c7 45 f4 cc cc
	cc cc		 mov	 DWORD PTR [ebp-12], -858993460 ; ccccccccH
  0000d	c7 45 f8 cc cc
	cc cc		 mov	 DWORD PTR [ebp-8], -858993460 ; ccccccccH
  00014	c7 45 fc cc cc
	cc cc		 mov	 DWORD PTR [ebp-4], -858993460 ; ccccccccH
  0001b	89 4d fc	 mov	 DWORD PTR _this$[ebp], ecx

; 555  : 		return (*(begin() + _Pos));

  0001e	8b 45 08	 mov	 eax, DWORD PTR __Pos$[ebp]
  00021	50		 push	 eax
  00022	8d 4d f4	 lea	 ecx, DWORD PTR $T192897[ebp]
  00025	51		 push	 ecx
  00026	8d 55 f8	 lea	 edx, DWORD PTR $T192896[ebp]
  00029	52		 push	 edx
  0002a	8b 4d fc	 mov	 ecx, DWORD PTR _this$[ebp]
  0002d	e8 00 00 00 00	 call	 ?begin@?$vector@HV?$allocator@H@std@@@std@@QAE?AViterator@12@XZ ; std::vector<int,std::allocator<int> >::begin
  00032	8b c8		 mov	 ecx, eax
  00034	e8 00 00 00 00	 call	 ??Hiterator@?$vector@HV?$allocator@H@std@@@std@@QBE?AV012@H@Z ; std::vector<int,std::allocator<int> >::iterator::operator+
  00039	8b c8		 mov	 ecx, eax
  0003b	e8 00 00 00 00	 call	 ??Diterator@?$vector@HV?$allocator@H@std@@@std@@QBEAAHXZ ; std::vector<int,std::allocator<int> >::iterator::operator*

; 556  : 		}

  00040	83 c4 0c	 add	 esp, 12			; 0000000cH
  00043	3b ec		 cmp	 ebp, esp
  00045	e8 00 00 00 00	 call	 __RTC_CheckEsp
  0004a	8b e5		 mov	 esp, ebp
  0004c	5d		 pop	 ebp
  0004d	c2 04 00	 ret	 4
??A?$vector@HV?$allocator@H@std@@@std@@QAEAAHI@Z ENDP	; std::vector<int,std::allocator<int> >::operator[]
_TEXT	ENDS
PUBLIC	?capacity@?$vector@HV?$allocator@H@std@@@std@@QBEIXZ ; std::vector<int,std::allocator<int> >::capacity
PUBLIC	?insert@?$vector@HV?$allocator@H@std@@@std@@QAE?AViterator@12@V312@ABH@Z ; std::vector<int,std::allocator<int> >::insert
PUBLIC	?_Ufill@?$vector@HV?$allocator@H@std@@@std@@IAEPAHPAHIABH@Z ; std::vector<int,std::allocator<int> >::_Ufill
; Function compile flags: /Odt /RTCsu
;	COMDAT ?push_back@?$vector@HV?$allocator@H@std@@@std@@QAEXABH@Z
_TEXT	SEGMENT
$T192900 = -12						; size = 4
$T192899 = -8						; size = 4
_this$ = -4						; size = 4
__Val$ = 8						; size = 4
?push_back@?$vector@HV?$allocator@H@std@@@std@@QAEXABH@Z PROC NEAR ; std::vector<int,std::allocator<int> >::push_back, COMDAT
; _this$ = ecx

; 579  : 		{	// insert element at end

  00000	55		 push	 ebp
  00001	8b ec		 mov	 ebp, esp
  00003	83 ec 0c	 sub	 esp, 12			; 0000000cH
  00006	56		 push	 esi
  00007	c7 45 f4 cc cc
	cc cc		 mov	 DWORD PTR [ebp-12], -858993460 ; ccccccccH
  0000e	c7 45 f8 cc cc
	cc cc		 mov	 DWORD PTR [ebp-8], -858993460 ; ccccccccH
  00015	c7 45 fc cc cc
	cc cc		 mov	 DWORD PTR [ebp-4], -858993460 ; ccccccccH
  0001c	89 4d fc	 mov	 DWORD PTR _this$[ebp], ecx

; 580  : 		if (size() < capacity())

  0001f	8b 4d fc	 mov	 ecx, DWORD PTR _this$[ebp]
  00022	e8 00 00 00 00	 call	 ?size@?$vector@HV?$allocator@H@std@@@std@@QBEIXZ ; std::vector<int,std::allocator<int> >::size
  00027	8b f0		 mov	 esi, eax
  00029	8b 4d fc	 mov	 ecx, DWORD PTR _this$[ebp]
  0002c	e8 00 00 00 00	 call	 ?capacity@?$vector@HV?$allocator@H@std@@@std@@QBEIXZ ; std::vector<int,std::allocator<int> >::capacity
  00031	3b f0		 cmp	 esi, eax
  00033	73 1d		 jae	 SHORT $L190925

; 581  : 			_Mylast = _Ufill(_Mylast, 1, _Val);

  00035	8b 45 08	 mov	 eax, DWORD PTR __Val$[ebp]
  00038	50		 push	 eax
  00039	6a 01		 push	 1
  0003b	8b 4d fc	 mov	 ecx, DWORD PTR _this$[ebp]
  0003e	8b 51 08	 mov	 edx, DWORD PTR [ecx+8]
  00041	52		 push	 edx
  00042	8b 4d fc	 mov	 ecx, DWORD PTR _this$[ebp]
  00045	e8 00 00 00 00	 call	 ?_Ufill@?$vector@HV?$allocator@H@std@@@std@@IAEPAHPAHIABH@Z ; std::vector<int,std::allocator<int> >::_Ufill
  0004a	8b 4d fc	 mov	 ecx, DWORD PTR _this$[ebp]
  0004d	89 41 08	 mov	 DWORD PTR [ecx+8], eax

; 582  : 		else

  00050	eb 1f		 jmp	 SHORT $L190924
$L190925:

; 583  : 			insert(end(), _Val);

  00052	8b 55 08	 mov	 edx, DWORD PTR __Val$[ebp]
  00055	52		 push	 edx
  00056	8d 45 f8	 lea	 eax, DWORD PTR $T192899[ebp]
  00059	50		 push	 eax
  0005a	8b 4d fc	 mov	 ecx, DWORD PTR _this$[ebp]
  0005d	e8 00 00 00 00	 call	 ?end@?$vector@HV?$allocator@H@std@@@std@@QAE?AViterator@12@XZ ; std::vector<int,std::allocator<int> >::end
  00062	8b 08		 mov	 ecx, DWORD PTR [eax]
  00064	51		 push	 ecx
  00065	8d 55 f4	 lea	 edx, DWORD PTR $T192900[ebp]
  00068	52		 push	 edx
  00069	8b 4d fc	 mov	 ecx, DWORD PTR _this$[ebp]
  0006c	e8 00 00 00 00	 call	 ?insert@?$vector@HV?$allocator@H@std@@@std@@QAE?AViterator@12@V312@ABH@Z ; std::vector<int,std::allocator<int> >::insert
$L190924:

; 584  : 		}

  00071	5e		 pop	 esi
  00072	83 c4 0c	 add	 esp, 12			; 0000000cH
  00075	3b ec		 cmp	 ebp, esp
  00077	e8 00 00 00 00	 call	 __RTC_CheckEsp
  0007c	8b e5		 mov	 esp, ebp
  0007e	5d		 pop	 ebp
  0007f	c2 04 00	 ret	 4
?push_back@?$vector@HV?$allocator@H@std@@@std@@QAEXABH@Z ENDP ; std::vector<int,std::allocator<int> >::push_back
; Function compile flags: /Odt /RTCsu
_TEXT	ENDS
;	COMDAT ??Citerator@?$vector@U_tagLMCItemInfo@@V?$allocator@U_tagLMCItemInfo@@@std@@@std@@QBEPAU_tagLMCItemInfo@@XZ
_TEXT	SEGMENT
_this$ = -4						; size = 4
??Citerator@?$vector@U_tagLMCItemInfo@@V?$allocator@U_tagLMCItemInfo@@@std@@@std@@QBEPAU_tagLMCItemInfo@@XZ PROC NEAR ; std::vector<_tagLMCItemInfo,std::allocator<_tagLMCItemInfo> >::iterator::operator->, COMDAT
; _this$ = ecx

; 224  : 			{	// return pointer to class object

  00000	55		 push	 ebp
  00001	8b ec		 mov	 ebp, esp
  00003	51		 push	 ecx
  00004	c7 45 fc cc cc
	cc cc		 mov	 DWORD PTR [ebp-4], -858993460 ; ccccccccH
  0000b	89 4d fc	 mov	 DWORD PTR _this$[ebp], ecx

; 225  : 			return (&**this);

  0000e	8b 4d fc	 mov	 ecx, DWORD PTR _this$[ebp]
  00011	e8 00 00 00 00	 call	 ??Diterator@?$vector@U_tagLMCItemInfo@@V?$allocator@U_tagLMCItemInfo@@@std@@@std@@QBEAAU_tagLMCItemInfo@@XZ ; std::vector<_tagLMCItemInfo,std::allocator<_tagLMCItemInfo> >::iterator::operator*

; 226  : 			}

  00016	83 c4 04	 add	 esp, 4
  00019	3b ec		 cmp	 ebp, esp
  0001b	e8 00 00 00 00	 call	 __RTC_CheckEsp
  00020	8b e5		 mov	 esp, ebp
  00022	5d		 pop	 ebp
  00023	c3		 ret	 0
??Citerator@?$vector@U_tagLMCItemInfo@@V?$allocator@U_tagLMCItemInfo@@@std@@@std@@QBEPAU_tagLMCItemInfo@@XZ ENDP ; std::vector<_tagLMCItemInfo,std::allocator<_tagLMCItemInfo> >::iterator::operator->
_TEXT	ENDS
PUBLIC	??Eiterator@?$vector@U_tagLMCItemInfo@@V?$allocator@U_tagLMCItemInfo@@@std@@@std@@QAEAAV012@XZ ; std::vector<_tagLMCItemInfo,std::allocator<_tagLMCItemInfo> >::iterator::operator++
; Function compile flags: /Odt /RTCsu
;	COMDAT ??Eiterator@?$vector@U_tagLMCItemInfo@@V?$allocator@U_tagLMCItemInfo@@@std@@@std@@QAE?AV012@H@Z
_TEXT	SEGMENT
__Tmp$ = -12						; size = 4
_this$ = -4						; size = 4
___$ReturnUdt$ = 8					; size = 4
___formal$ = 12						; size = 4
??Eiterator@?$vector@U_tagLMCItemInfo@@V?$allocator@U_tagLMCItemInfo@@@std@@@std@@QAE?AV012@H@Z PROC NEAR ; std::vector<_tagLMCItemInfo,std::allocator<_tagLMCItemInfo> >::iterator::operator++, COMDAT
; _this$ = ecx

; 235  : 			{	// postincrement

  00000	55		 push	 ebp
  00001	8b ec		 mov	 ebp, esp
  00003	83 ec 10	 sub	 esp, 16			; 00000010H
  00006	b8 cc cc cc cc	 mov	 eax, -858993460		; ccccccccH
  0000b	89 45 f0	 mov	 DWORD PTR [ebp-16], eax
  0000e	89 45 f4	 mov	 DWORD PTR [ebp-12], eax
  00011	89 45 f8	 mov	 DWORD PTR [ebp-8], eax
  00014	89 45 fc	 mov	 DWORD PTR [ebp-4], eax
  00017	89 4d fc	 mov	 DWORD PTR _this$[ebp], ecx

; 236  : 			iterator _Tmp = *this;

  0001a	8b 45 fc	 mov	 eax, DWORD PTR _this$[ebp]
  0001d	8b 08		 mov	 ecx, DWORD PTR [eax]
  0001f	89 4d f4	 mov	 DWORD PTR __Tmp$[ebp], ecx

; 237  : 			++*this;

  00022	8b 4d fc	 mov	 ecx, DWORD PTR _this$[ebp]
  00025	e8 00 00 00 00	 call	 ??Eiterator@?$vector@U_tagLMCItemInfo@@V?$allocator@U_tagLMCItemInfo@@@std@@@std@@QAEAAV012@XZ ; std::vector<_tagLMCItemInfo,std::allocator<_tagLMCItemInfo> >::iterator::operator++

; 238  : 			return (_Tmp);

  0002a	8b 55 08	 mov	 edx, DWORD PTR ___$ReturnUdt$[ebp]
  0002d	8b 45 f4	 mov	 eax, DWORD PTR __Tmp$[ebp]
  00030	89 02		 mov	 DWORD PTR [edx], eax
  00032	8b 45 08	 mov	 eax, DWORD PTR ___$ReturnUdt$[ebp]

; 239  : 			}

  00035	52		 push	 edx
  00036	8b cd		 mov	 ecx, ebp
  00038	50		 push	 eax
  00039	8d 15 00 00 00
	00		 lea	 edx, DWORD PTR $L192905
  0003f	e8 00 00 00 00	 call	 @_RTC_CheckStackVars@8
  00044	58		 pop	 eax
  00045	5a		 pop	 edx
  00046	83 c4 10	 add	 esp, 16			; 00000010H
  00049	3b ec		 cmp	 ebp, esp
  0004b	e8 00 00 00 00	 call	 __RTC_CheckEsp
  00050	8b e5		 mov	 esp, ebp
  00052	5d		 pop	 ebp
  00053	c2 08 00	 ret	 8
$L192905:
  00056	01 00 00 00	 DD	 1
  0005a	00 00 00 00	 DD	 $L192904
$L192904:
  0005e	f4 ff ff ff	 DD	 -12			; fffffff4H
  00062	04 00 00 00	 DD	 4
  00066	00 00 00 00	 DD	 $L192903
$L192903:
  0006a	5f		 DB	 95			; 0000005fH
  0006b	54		 DB	 84			; 00000054H
  0006c	6d		 DB	 109			; 0000006dH
  0006d	70		 DB	 112			; 00000070H
  0006e	00		 DB	 0
??Eiterator@?$vector@U_tagLMCItemInfo@@V?$allocator@U_tagLMCItemInfo@@@std@@@std@@QAE?AV012@H@Z ENDP ; std::vector<_tagLMCItemInfo,std::allocator<_tagLMCItemInfo> >::iterator::operator++
_TEXT	ENDS
PUBLIC	??8const_iterator@?$vector@U_tagLMCItemInfo@@V?$allocator@U_tagLMCItemInfo@@@std@@@std@@QBE_NABV012@@Z ; std::vector<_tagLMCItemInfo,std::allocator<_tagLMCItemInfo> >::const_iterator::operator==
; Function compile flags: /Odt /RTCsu
;	COMDAT ??9const_iterator@?$vector@U_tagLMCItemInfo@@V?$allocator@U_tagLMCItemInfo@@@std@@@std@@QBE_NABV012@@Z
_TEXT	SEGMENT
_this$ = -4						; size = 4
__Right$ = 8						; size = 4
??9const_iterator@?$vector@U_tagLMCItemInfo@@V?$allocator@U_tagLMCItemInfo@@@std@@@std@@QBE_NABV012@@Z PROC NEAR ; std::vector<_tagLMCItemInfo,std::allocator<_tagLMCItemInfo> >::const_iterator::operator!=, COMDAT
; _this$ = ecx

; 159  : 			{	// test for iterator inequality

  00000	55		 push	 ebp
  00001	8b ec		 mov	 ebp, esp
  00003	51		 push	 ecx
  00004	c7 45 fc cc cc
	cc cc		 mov	 DWORD PTR [ebp-4], -858993460 ; ccccccccH
  0000b	89 4d fc	 mov	 DWORD PTR _this$[ebp], ecx

; 160  : 			return (!(*this == _Right));

  0000e	8b 45 08	 mov	 eax, DWORD PTR __Right$[ebp]
  00011	50		 push	 eax
  00012	8b 4d fc	 mov	 ecx, DWORD PTR _this$[ebp]
  00015	e8 00 00 00 00	 call	 ??8const_iterator@?$vector@U_tagLMCItemInfo@@V?$allocator@U_tagLMCItemInfo@@@std@@@std@@QBE_NABV012@@Z ; std::vector<_tagLMCItemInfo,std::allocator<_tagLMCItemInfo> >::const_iterator::operator==
  0001a	0f b6 c0	 movzx	 eax, al
  0001d	f7 d8		 neg	 eax
  0001f	1b c0		 sbb	 eax, eax
  00021	40		 inc	 eax

; 161  : 			}

  00022	83 c4 04	 add	 esp, 4
  00025	3b ec		 cmp	 ebp, esp
  00027	e8 00 00 00 00	 call	 __RTC_CheckEsp
  0002c	8b e5		 mov	 esp, ebp
  0002e	5d		 pop	 ebp
  0002f	c2 04 00	 ret	 4
??9const_iterator@?$vector@U_tagLMCItemInfo@@V?$allocator@U_tagLMCItemInfo@@@std@@@std@@QBE_NABV012@@Z ENDP ; std::vector<_tagLMCItemInfo,std::allocator<_tagLMCItemInfo> >::const_iterator::operator!=
_TEXT	ENDS
PUBLIC	??Dconst_iterator@?$vector@HV?$allocator@H@std@@@std@@QBEABHXZ ; std::vector<int,std::allocator<int> >::const_iterator::operator*
; Function compile flags: /Odt /RTCsu
;	COMDAT ??Diterator@?$vector@HV?$allocator@H@std@@@std@@QBEAAHXZ
_TEXT	SEGMENT
_this$ = -4						; size = 4
??Diterator@?$vector@HV?$allocator@H@std@@@std@@QBEAAHXZ PROC NEAR ; std::vector<int,std::allocator<int> >::iterator::operator*, COMDAT
; _this$ = ecx

; 219  : 			{	// return designated object

  00000	55		 push	 ebp
  00001	8b ec		 mov	 ebp, esp
  00003	51		 push	 ecx
  00004	c7 45 fc cc cc
	cc cc		 mov	 DWORD PTR [ebp-4], -858993460 ; ccccccccH
  0000b	89 4d fc	 mov	 DWORD PTR _this$[ebp], ecx

; 220  : 			return ((reference)**(const_iterator *)this);

  0000e	8b 4d fc	 mov	 ecx, DWORD PTR _this$[ebp]
  00011	e8 00 00 00 00	 call	 ??Dconst_iterator@?$vector@HV?$allocator@H@std@@@std@@QBEABHXZ ; std::vector<int,std::allocator<int> >::const_iterator::operator*

; 221  : 			}

  00016	83 c4 04	 add	 esp, 4
  00019	3b ec		 cmp	 ebp, esp
  0001b	e8 00 00 00 00	 call	 __RTC_CheckEsp
  00020	8b e5		 mov	 esp, ebp
  00022	5d		 pop	 ebp
  00023	c3		 ret	 0
??Diterator@?$vector@HV?$allocator@H@std@@@std@@QBEAAHXZ ENDP ; std::vector<int,std::allocator<int> >::iterator::operator*
; Function compile flags: /Odt /RTCsu
_TEXT	ENDS
;	COMDAT ??Fiterator@?$vector@HV?$allocator@H@std@@@std@@QAEAAV012@XZ
_TEXT	SEGMENT
_this$ = -4						; size = 4
??Fiterator@?$vector@HV?$allocator@H@std@@@std@@QAEAAV012@XZ PROC NEAR ; std::vector<int,std::allocator<int> >::iterator::operator--, COMDAT
; _this$ = ecx

; 242  : 			{	// predecrement

  00000	55		 push	 ebp
  00001	8b ec		 mov	 ebp, esp
  00003	51		 push	 ecx
  00004	c7 45 fc cc cc
	cc cc		 mov	 DWORD PTR [ebp-4], -858993460 ; ccccccccH
  0000b	89 4d fc	 mov	 DWORD PTR _this$[ebp], ecx

; 243  : 			--this->_Myptr;

  0000e	8b 45 fc	 mov	 eax, DWORD PTR _this$[ebp]
  00011	8b 08		 mov	 ecx, DWORD PTR [eax]
  00013	83 e9 04	 sub	 ecx, 4
  00016	8b 55 fc	 mov	 edx, DWORD PTR _this$[ebp]
  00019	89 0a		 mov	 DWORD PTR [edx], ecx

; 244  : 			return (*this);

  0001b	8b 45 fc	 mov	 eax, DWORD PTR _this$[ebp]

; 245  : 			}

  0001e	8b e5		 mov	 esp, ebp
  00020	5d		 pop	 ebp
  00021	c3		 ret	 0
??Fiterator@?$vector@HV?$allocator@H@std@@@std@@QAEAAV012@XZ ENDP ; std::vector<int,std::allocator<int> >::iterator::operator--
_TEXT	ENDS
PUBLIC	??8const_iterator@?$vector@HV?$allocator@H@std@@@std@@QBE_NABV012@@Z ; std::vector<int,std::allocator<int> >::const_iterator::operator==
; Function compile flags: /Odt /RTCsu
;	COMDAT ??9const_iterator@?$vector@HV?$allocator@H@std@@@std@@QBE_NABV012@@Z
_TEXT	SEGMENT
_this$ = -4						; size = 4
__Right$ = 8						; size = 4
??9const_iterator@?$vector@HV?$allocator@H@std@@@std@@QBE_NABV012@@Z PROC NEAR ; std::vector<int,std::allocator<int> >::const_iterator::operator!=, COMDAT
; _this$ = ecx

; 159  : 			{	// test for iterator inequality

  00000	55		 push	 ebp
  00001	8b ec		 mov	 ebp, esp
  00003	51		 push	 ecx
  00004	c7 45 fc cc cc
	cc cc		 mov	 DWORD PTR [ebp-4], -858993460 ; ccccccccH
  0000b	89 4d fc	 mov	 DWORD PTR _this$[ebp], ecx

; 160  : 			return (!(*this == _Right));

  0000e	8b 45 08	 mov	 eax, DWORD PTR __Right$[ebp]
  00011	50		 push	 eax
  00012	8b 4d fc	 mov	 ecx, DWORD PTR _this$[ebp]
  00015	e8 00 00 00 00	 call	 ??8const_iterator@?$vector@HV?$allocator@H@std@@@std@@QBE_NABV012@@Z ; std::vector<int,std::allocator<int> >::const_iterator::operator==
  0001a	0f b6 c0	 movzx	 eax, al
  0001d	f7 d8		 neg	 eax
  0001f	1b c0		 sbb	 eax, eax
  00021	40		 inc	 eax

; 161  : 			}

  00022	83 c4 04	 add	 esp, 4
  00025	3b ec		 cmp	 ebp, esp
  00027	e8 00 00 00 00	 call	 __RTC_CheckEsp
  0002c	8b e5		 mov	 esp, ebp
  0002e	5d		 pop	 ebp
  0002f	c2 04 00	 ret	 4
??9const_iterator@?$vector@HV?$allocator@H@std@@@std@@QBE_NABV012@@Z ENDP ; std::vector<int,std::allocator<int> >::const_iterator::operator!=
_TEXT	ENDS
PUBLIC	??0iterator@?$deque@VCPoint@@V?$allocator@VCPoint@@@std@@@std@@QAE@IPBV12@@Z ; std::deque<CPoint,std::allocator<CPoint> >::iterator::iterator
; Function compile flags: /Odt /RTCsu
; File d:\program files (x86)\microsoft visual studio .net 2003\vc7\include\deque
;	COMDAT ?begin@?$deque@VCPoint@@V?$allocator@VCPoint@@@std@@@std@@QAE?AViterator@12@XZ
_TEXT	SEGMENT
_this$ = -4						; size = 4
___$ReturnUdt$ = 8					; size = 4
?begin@?$deque@VCPoint@@V?$allocator@VCPoint@@@std@@@std@@QAE?AViterator@12@XZ PROC NEAR ; std::deque<CPoint,std::allocator<CPoint> >::begin, COMDAT
; _this$ = ecx

; 438  : 		{	// return iterator for beginning of mutable sequence

  00000	55		 push	 ebp
  00001	8b ec		 mov	 ebp, esp
  00003	51		 push	 ecx
  00004	c7 45 fc cc cc
	cc cc		 mov	 DWORD PTR [ebp-4], -858993460 ; ccccccccH
  0000b	89 4d fc	 mov	 DWORD PTR _this$[ebp], ecx

; 439  : 		return (iterator(_Myoff, this));

  0000e	8b 45 fc	 mov	 eax, DWORD PTR _this$[ebp]
  00011	50		 push	 eax
  00012	8b 4d fc	 mov	 ecx, DWORD PTR _this$[ebp]
  00015	8b 51 0c	 mov	 edx, DWORD PTR [ecx+12]
  00018	52		 push	 edx
  00019	8b 4d 08	 mov	 ecx, DWORD PTR ___$ReturnUdt$[ebp]
  0001c	e8 00 00 00 00	 call	 ??0iterator@?$deque@VCPoint@@V?$allocator@VCPoint@@@std@@@std@@QAE@IPBV12@@Z ; std::deque<CPoint,std::allocator<CPoint> >::iterator::iterator
  00021	8b 45 08	 mov	 eax, DWORD PTR ___$ReturnUdt$[ebp]

; 440  : 		}

  00024	83 c4 04	 add	 esp, 4
  00027	3b ec		 cmp	 ebp, esp
  00029	e8 00 00 00 00	 call	 __RTC_CheckEsp
  0002e	8b e5		 mov	 esp, ebp
  00030	5d		 pop	 ebp
  00031	c2 04 00	 ret	 4
?begin@?$deque@VCPoint@@V?$allocator@VCPoint@@@std@@@std@@QAE?AViterator@12@XZ ENDP ; std::deque<CPoint,std::allocator<CPoint> >::begin
; Function compile flags: /Odt /RTCsu
_TEXT	ENDS
;	COMDAT ?empty@?$deque@VCPoint@@V?$allocator@VCPoint@@@std@@@std@@QBE_NXZ
_TEXT	SEGMENT
_this$ = -4						; size = 4
?empty@?$deque@VCPoint@@V?$allocator@VCPoint@@@std@@@std@@QBE_NXZ PROC NEAR ; std::deque<CPoint,std::allocator<CPoint> >::empty, COMDAT
; _this$ = ecx

; 501  : 		{	// test if sequence is empty

  00000	55		 push	 ebp
  00001	8b ec		 mov	 ebp, esp
  00003	51		 push	 ecx
  00004	c7 45 fc cc cc
	cc cc		 mov	 DWORD PTR [ebp-4], -858993460 ; ccccccccH
  0000b	89 4d fc	 mov	 DWORD PTR _this$[ebp], ecx

; 502  : 		return (_Mysize == 0);

  0000e	8b 45 fc	 mov	 eax, DWORD PTR _this$[ebp]
  00011	33 c9		 xor	 ecx, ecx
  00013	83 78 10 00	 cmp	 DWORD PTR [eax+16], 0
  00017	0f 94 c1	 sete	 cl
  0001a	8a c1		 mov	 al, cl

; 503  : 		}

  0001c	8b e5		 mov	 esp, ebp
  0001e	5d		 pop	 ebp
  0001f	c3		 ret	 0
?empty@?$deque@VCPoint@@V?$allocator@VCPoint@@@std@@@std@@QBE_NXZ ENDP ; std::deque<CPoint,std::allocator<CPoint> >::empty
_TEXT	ENDS
PUBLIC	??$_Uninitialized_copy@PAPAVCPoint@@PAPAV1@V?$allocator@PAVCPoint@@@std@@@std@@YAPAPAVCPoint@@PAPAV1@00AAV?$allocator@PAVCPoint@@@0@@Z ; std::_Uninitialized_copy<CPoint * *,CPoint * *,std::allocator<CPoint *> >
PUBLIC	??$_Uninitialized_fill_n@PAPAVCPoint@@IPAV1@V?$allocator@PAVCPoint@@@std@@@std@@YAXPAPAVCPoint@@IABQAV1@AAV?$allocator@PAVCPoint@@@0@@Z ; std::_Uninitialized_fill_n<CPoint * *,unsigned int,CPoint *,std::allocator<CPoint *> >
PUBLIC	??$_Destroy_range@PAVCPoint@@V?$allocator@PAVCPoint@@@std@@@std@@YAXPAPAVCPoint@@0AAV?$allocator@PAVCPoint@@@0@@Z ; std::_Destroy_range<CPoint *,std::allocator<CPoint *> >
PUBLIC	?deallocate@?$allocator@PAVCPoint@@@std@@QAEXPAPAVCPoint@@I@Z ; std::allocator<CPoint *>::deallocate
PUBLIC	?allocate@?$allocator@PAVCPoint@@@std@@QAEPAPAVCPoint@@I@Z ; std::allocator<CPoint *>::allocate
PUBLIC	?max_size@?$deque@VCPoint@@V?$allocator@VCPoint@@@std@@@std@@QBEIXZ ; std::deque<CPoint,std::allocator<CPoint> >::max_size
PUBLIC	?_Xlen@?$deque@VCPoint@@V?$allocator@VCPoint@@@std@@@std@@IBEXXZ ; std::deque<CPoint,std::allocator<CPoint> >::_Xlen
; Function compile flags: /Odt /RTCsu
;	COMDAT ?_Growmap@?$deque@VCPoint@@V?$allocator@VCPoint@@@std@@@std@@IAEXI@Z
_TEXT	SEGMENT
$T192915 = -32						; size = 4
$T192914 = -28						; size = 4
$T192913 = -24						; size = 4
__Myptr$ = -20						; size = 4
__Newmap$ = -16						; size = 4
__Myboff$ = -12						; size = 4
__Inc$ = -8						; size = 4
_this$ = -4						; size = 4
__Count$ = 8						; size = 4
?_Growmap@?$deque@VCPoint@@V?$allocator@VCPoint@@@std@@@std@@IAEXI@Z PROC NEAR ; std::deque<CPoint,std::allocator<CPoint> >::_Growmap, COMDAT
; _this$ = ecx

; 907  : 		{	// grow map by _Count pointers

  00000	55		 push	 ebp
  00001	8b ec		 mov	 ebp, esp
  00003	83 ec 20	 sub	 esp, 32			; 00000020H
  00006	b8 cc cc cc cc	 mov	 eax, -858993460		; ccccccccH
  0000b	89 45 e0	 mov	 DWORD PTR [ebp-32], eax
  0000e	89 45 e4	 mov	 DWORD PTR [ebp-28], eax
  00011	89 45 e8	 mov	 DWORD PTR [ebp-24], eax
  00014	89 45 ec	 mov	 DWORD PTR [ebp-20], eax
  00017	89 45 f0	 mov	 DWORD PTR [ebp-16], eax
  0001a	89 45 f4	 mov	 DWORD PTR [ebp-12], eax
  0001d	89 45 f8	 mov	 DWORD PTR [ebp-8], eax
  00020	89 45 fc	 mov	 DWORD PTR [ebp-4], eax
  00023	89 4d fc	 mov	 DWORD PTR _this$[ebp], ecx

; 908  : 		if (max_size() / _DEQUESIZ - _Mapsize < _Count)

  00026	8b 4d fc	 mov	 ecx, DWORD PTR _this$[ebp]
  00029	e8 00 00 00 00	 call	 ?max_size@?$deque@VCPoint@@V?$allocator@VCPoint@@@std@@@std@@QBEIXZ ; std::deque<CPoint,std::allocator<CPoint> >::max_size
  0002e	d1 e8		 shr	 eax, 1
  00030	8b 4d fc	 mov	 ecx, DWORD PTR _this$[ebp]
  00033	2b 41 08	 sub	 eax, DWORD PTR [ecx+8]
  00036	3b 45 08	 cmp	 eax, DWORD PTR __Count$[ebp]
  00039	73 08		 jae	 SHORT $L190973

; 909  : 			_Xlen();	// result too long

  0003b	8b 4d fc	 mov	 ecx, DWORD PTR _this$[ebp]
  0003e	e8 00 00 00 00	 call	 ?_Xlen@?$deque@VCPoint@@V?$allocator@VCPoint@@@std@@@std@@IBEXXZ ; std::deque<CPoint,std::allocator<CPoint> >::_Xlen
$L190973:

; 910  : 
; 911  : 		size_type _Inc = _Mapsize / 2;	// try to grow by 50%

  00043	8b 55 fc	 mov	 edx, DWORD PTR _this$[ebp]
  00046	8b 42 08	 mov	 eax, DWORD PTR [edx+8]
  00049	d1 e8		 shr	 eax, 1
  0004b	89 45 f8	 mov	 DWORD PTR __Inc$[ebp], eax

; 912  : 		if (_Inc < _DEQUEMAPSIZ)

  0004e	83 7d f8 08	 cmp	 DWORD PTR __Inc$[ebp], 8
  00052	73 07		 jae	 SHORT $L190975

; 913  : 			_Inc = _DEQUEMAPSIZ;

  00054	c7 45 f8 08 00
	00 00		 mov	 DWORD PTR __Inc$[ebp], 8
$L190975:

; 914  : 		if (_Count < _Inc && _Mapsize <= max_size() / _DEQUESIZ - _Inc)

  0005b	8b 4d 08	 mov	 ecx, DWORD PTR __Count$[ebp]
  0005e	3b 4d f8	 cmp	 ecx, DWORD PTR __Inc$[ebp]
  00061	73 1b		 jae	 SHORT $L190976
  00063	8b 4d fc	 mov	 ecx, DWORD PTR _this$[ebp]
  00066	e8 00 00 00 00	 call	 ?max_size@?$deque@VCPoint@@V?$allocator@VCPoint@@@std@@@std@@QBEIXZ ; std::deque<CPoint,std::allocator<CPoint> >::max_size
  0006b	d1 e8		 shr	 eax, 1
  0006d	2b 45 f8	 sub	 eax, DWORD PTR __Inc$[ebp]
  00070	8b 55 fc	 mov	 edx, DWORD PTR _this$[ebp]
  00073	39 42 08	 cmp	 DWORD PTR [edx+8], eax
  00076	77 06		 ja	 SHORT $L190976

; 915  : 			_Count = _Inc;

  00078	8b 45 f8	 mov	 eax, DWORD PTR __Inc$[ebp]
  0007b	89 45 08	 mov	 DWORD PTR __Count$[ebp], eax
$L190976:

; 916  : 		size_type _Myboff = _Myoff / _DEQUESIZ;

  0007e	8b 4d fc	 mov	 ecx, DWORD PTR _this$[ebp]
  00081	8b 51 0c	 mov	 edx, DWORD PTR [ecx+12]
  00084	d1 ea		 shr	 edx, 1
  00086	89 55 f4	 mov	 DWORD PTR __Myboff$[ebp], edx

; 917  : 		_Mapptr _Newmap = this->_Almap.allocate(_Mapsize + _Count);

  00089	8b 45 fc	 mov	 eax, DWORD PTR _this$[ebp]
  0008c	8b 48 08	 mov	 ecx, DWORD PTR [eax+8]
  0008f	03 4d 08	 add	 ecx, DWORD PTR __Count$[ebp]
  00092	51		 push	 ecx
  00093	8b 4d fc	 mov	 ecx, DWORD PTR _this$[ebp]
  00096	e8 00 00 00 00	 call	 ?allocate@?$allocator@PAVCPoint@@@std@@QAEPAPAVCPoint@@I@Z ; std::allocator<CPoint *>::allocate
  0009b	89 45 f0	 mov	 DWORD PTR __Newmap$[ebp], eax

; 918  : 		_Mapptr _Myptr = _Newmap + _Myboff;

  0009e	8b 55 f4	 mov	 edx, DWORD PTR __Myboff$[ebp]
  000a1	8b 45 f0	 mov	 eax, DWORD PTR __Newmap$[ebp]
  000a4	8d 0c 90	 lea	 ecx, DWORD PTR [eax+edx*4]
  000a7	89 4d ec	 mov	 DWORD PTR __Myptr$[ebp], ecx

; 919  : 
; 920  : 		_Myptr = _Uninitialized_copy(_Map + _Myboff,
; 921  : 			_Map + _Mapsize, _Myptr, this->_Almap);	// copy initial to end

  000aa	8b 55 fc	 mov	 edx, DWORD PTR _this$[ebp]
  000ad	52		 push	 edx
  000ae	8b 45 ec	 mov	 eax, DWORD PTR __Myptr$[ebp]
  000b1	50		 push	 eax
  000b2	8b 4d fc	 mov	 ecx, DWORD PTR _this$[ebp]
  000b5	8b 51 08	 mov	 edx, DWORD PTR [ecx+8]
  000b8	8b 45 fc	 mov	 eax, DWORD PTR _this$[ebp]
  000bb	8b 48 04	 mov	 ecx, DWORD PTR [eax+4]
  000be	8d 14 91	 lea	 edx, DWORD PTR [ecx+edx*4]
  000c1	52		 push	 edx
  000c2	8b 45 fc	 mov	 eax, DWORD PTR _this$[ebp]
  000c5	8b 48 04	 mov	 ecx, DWORD PTR [eax+4]
  000c8	8b 55 f4	 mov	 edx, DWORD PTR __Myboff$[ebp]
  000cb	8d 04 91	 lea	 eax, DWORD PTR [ecx+edx*4]
  000ce	50		 push	 eax
  000cf	e8 00 00 00 00	 call	 ??$_Uninitialized_copy@PAPAVCPoint@@PAPAV1@V?$allocator@PAVCPoint@@@std@@@std@@YAPAPAVCPoint@@PAPAV1@00AAV?$allocator@PAVCPoint@@@0@@Z ; std::_Uninitialized_copy<CPoint * *,CPoint * *,std::allocator<CPoint *> >
  000d4	83 c4 10	 add	 esp, 16			; 00000010H
  000d7	89 45 ec	 mov	 DWORD PTR __Myptr$[ebp], eax

; 922  : 		if (_Myboff <= _Count)

  000da	8b 4d f4	 mov	 ecx, DWORD PTR __Myboff$[ebp]
  000dd	3b 4d 08	 cmp	 ecx, DWORD PTR __Count$[ebp]
  000e0	77 6a		 ja	 SHORT $L190989

; 923  : 			{	// increment greater than offset of initial block
; 924  : 			_Myptr = _Uninitialized_copy(_Map,
; 925  : 				_Map + _Myboff, _Myptr, this->_Almap);	// copy rest of old

  000e2	8b 55 fc	 mov	 edx, DWORD PTR _this$[ebp]
  000e5	52		 push	 edx
  000e6	8b 45 ec	 mov	 eax, DWORD PTR __Myptr$[ebp]
  000e9	50		 push	 eax
  000ea	8b 4d fc	 mov	 ecx, DWORD PTR _this$[ebp]
  000ed	8b 51 04	 mov	 edx, DWORD PTR [ecx+4]
  000f0	8b 45 f4	 mov	 eax, DWORD PTR __Myboff$[ebp]
  000f3	8d 0c 82	 lea	 ecx, DWORD PTR [edx+eax*4]
  000f6	51		 push	 ecx
  000f7	8b 55 fc	 mov	 edx, DWORD PTR _this$[ebp]
  000fa	8b 42 04	 mov	 eax, DWORD PTR [edx+4]
  000fd	50		 push	 eax
  000fe	e8 00 00 00 00	 call	 ??$_Uninitialized_copy@PAPAVCPoint@@PAPAV1@V?$allocator@PAVCPoint@@@std@@@std@@YAPAPAVCPoint@@PAPAV1@00AAV?$allocator@PAVCPoint@@@0@@Z ; std::_Uninitialized_copy<CPoint * *,CPoint * *,std::allocator<CPoint *> >
  00103	83 c4 10	 add	 esp, 16			; 00000010H
  00106	89 45 ec	 mov	 DWORD PTR __Myptr$[ebp], eax

; 926  : 			_Uninitialized_fill_n(_Myptr, _Count - _Myboff,
; 927  : 				(_Tptr)0, this->_Almap);	// clear suffix of new

  00109	c7 45 e8 00 00
	00 00		 mov	 DWORD PTR $T192913[ebp], 0
  00110	8b 4d fc	 mov	 ecx, DWORD PTR _this$[ebp]
  00113	51		 push	 ecx
  00114	8d 55 e8	 lea	 edx, DWORD PTR $T192913[ebp]
  00117	52		 push	 edx
  00118	8b 45 08	 mov	 eax, DWORD PTR __Count$[ebp]
  0011b	2b 45 f4	 sub	 eax, DWORD PTR __Myboff$[ebp]
  0011e	50		 push	 eax
  0011f	8b 4d ec	 mov	 ecx, DWORD PTR __Myptr$[ebp]
  00122	51		 push	 ecx
  00123	e8 00 00 00 00	 call	 ??$_Uninitialized_fill_n@PAPAVCPoint@@IPAV1@V?$allocator@PAVCPoint@@@std@@@std@@YAXPAPAVCPoint@@IABQAV1@AAV?$allocator@PAVCPoint@@@0@@Z ; std::_Uninitialized_fill_n<CPoint * *,unsigned int,CPoint *,std::allocator<CPoint *> >
  00128	83 c4 10	 add	 esp, 16			; 00000010H

; 928  : 			_Uninitialized_fill_n(_Newmap, _Myboff,
; 929  : 				(_Tptr)0, this->_Almap);	// clear prefix of new

  0012b	c7 45 e4 00 00
	00 00		 mov	 DWORD PTR $T192914[ebp], 0
  00132	8b 55 fc	 mov	 edx, DWORD PTR _this$[ebp]
  00135	52		 push	 edx
  00136	8d 45 e4	 lea	 eax, DWORD PTR $T192914[ebp]
  00139	50		 push	 eax
  0013a	8b 4d f4	 mov	 ecx, DWORD PTR __Myboff$[ebp]
  0013d	51		 push	 ecx
  0013e	8b 55 f0	 mov	 edx, DWORD PTR __Newmap$[ebp]
  00141	52		 push	 edx
  00142	e8 00 00 00 00	 call	 ??$_Uninitialized_fill_n@PAPAVCPoint@@IPAV1@V?$allocator@PAVCPoint@@@std@@@std@@YAXPAPAVCPoint@@IABQAV1@AAV?$allocator@PAVCPoint@@@0@@Z ; std::_Uninitialized_fill_n<CPoint * *,unsigned int,CPoint *,std::allocator<CPoint *> >
  00147	83 c4 10	 add	 esp, 16			; 00000010H

; 930  : 			}
; 931  : 		else

  0014a	eb 70		 jmp	 SHORT $L191004
$L190989:

; 932  : 			{	// increment not greater than offset of initial block
; 933  : 			_Uninitialized_copy(_Map,
; 934  : 				_Map + _Count, _Myptr, this->_Almap);	// copy more old

  0014c	8b 45 fc	 mov	 eax, DWORD PTR _this$[ebp]
  0014f	50		 push	 eax
  00150	8b 4d ec	 mov	 ecx, DWORD PTR __Myptr$[ebp]
  00153	51		 push	 ecx
  00154	8b 55 fc	 mov	 edx, DWORD PTR _this$[ebp]
  00157	8b 42 04	 mov	 eax, DWORD PTR [edx+4]
  0015a	8b 4d 08	 mov	 ecx, DWORD PTR __Count$[ebp]
  0015d	8d 14 88	 lea	 edx, DWORD PTR [eax+ecx*4]
  00160	52		 push	 edx
  00161	8b 45 fc	 mov	 eax, DWORD PTR _this$[ebp]
  00164	8b 48 04	 mov	 ecx, DWORD PTR [eax+4]
  00167	51		 push	 ecx
  00168	e8 00 00 00 00	 call	 ??$_Uninitialized_copy@PAPAVCPoint@@PAPAV1@V?$allocator@PAVCPoint@@@std@@@std@@YAPAPAVCPoint@@PAPAV1@00AAV?$allocator@PAVCPoint@@@0@@Z ; std::_Uninitialized_copy<CPoint * *,CPoint * *,std::allocator<CPoint *> >
  0016d	83 c4 10	 add	 esp, 16			; 00000010H

; 935  : 			_Myptr = _Uninitialized_copy(_Map + _Count,
; 936  : 				_Map + _Myboff, _Newmap, this->_Almap);	// copy rest of old

  00170	8b 55 fc	 mov	 edx, DWORD PTR _this$[ebp]
  00173	52		 push	 edx
  00174	8b 45 f0	 mov	 eax, DWORD PTR __Newmap$[ebp]
  00177	50		 push	 eax
  00178	8b 4d fc	 mov	 ecx, DWORD PTR _this$[ebp]
  0017b	8b 51 04	 mov	 edx, DWORD PTR [ecx+4]
  0017e	8b 45 f4	 mov	 eax, DWORD PTR __Myboff$[ebp]
  00181	8d 0c 82	 lea	 ecx, DWORD PTR [edx+eax*4]
  00184	51		 push	 ecx
  00185	8b 55 fc	 mov	 edx, DWORD PTR _this$[ebp]
  00188	8b 42 04	 mov	 eax, DWORD PTR [edx+4]
  0018b	8b 4d 08	 mov	 ecx, DWORD PTR __Count$[ebp]
  0018e	8d 14 88	 lea	 edx, DWORD PTR [eax+ecx*4]
  00191	52		 push	 edx
  00192	e8 00 00 00 00	 call	 ??$_Uninitialized_copy@PAPAVCPoint@@PAPAV1@V?$allocator@PAVCPoint@@@std@@@std@@YAPAPAVCPoint@@PAPAV1@00AAV?$allocator@PAVCPoint@@@0@@Z ; std::_Uninitialized_copy<CPoint * *,CPoint * *,std::allocator<CPoint *> >
  00197	83 c4 10	 add	 esp, 16			; 00000010H
  0019a	89 45 ec	 mov	 DWORD PTR __Myptr$[ebp], eax

; 937  : 			_Uninitialized_fill_n(_Myptr, _Count,
; 938  : 				(_Tptr)0, this->_Almap);	// clear rest to initial block

  0019d	c7 45 e0 00 00
	00 00		 mov	 DWORD PTR $T192915[ebp], 0
  001a4	8b 45 fc	 mov	 eax, DWORD PTR _this$[ebp]
  001a7	50		 push	 eax
  001a8	8d 4d e0	 lea	 ecx, DWORD PTR $T192915[ebp]
  001ab	51		 push	 ecx
  001ac	8b 55 08	 mov	 edx, DWORD PTR __Count$[ebp]
  001af	52		 push	 edx
  001b0	8b 45 ec	 mov	 eax, DWORD PTR __Myptr$[ebp]
  001b3	50		 push	 eax
  001b4	e8 00 00 00 00	 call	 ??$_Uninitialized_fill_n@PAPAVCPoint@@IPAV1@V?$allocator@PAVCPoint@@@std@@@std@@YAXPAPAVCPoint@@IABQAV1@AAV?$allocator@PAVCPoint@@@0@@Z ; std::_Uninitialized_fill_n<CPoint * *,unsigned int,CPoint *,std::allocator<CPoint *> >
  001b9	83 c4 10	 add	 esp, 16			; 00000010H
$L191004:

; 939  : 			}
; 940  : 
; 941  : 		_Destroy_range(_Map + _Myboff, _Map + _Mapsize, this->_Almap);

  001bc	8b 4d fc	 mov	 ecx, DWORD PTR _this$[ebp]
  001bf	51		 push	 ecx
  001c0	8b 55 fc	 mov	 edx, DWORD PTR _this$[ebp]
  001c3	8b 42 08	 mov	 eax, DWORD PTR [edx+8]
  001c6	8b 4d fc	 mov	 ecx, DWORD PTR _this$[ebp]
  001c9	8b 51 04	 mov	 edx, DWORD PTR [ecx+4]
  001cc	8d 04 82	 lea	 eax, DWORD PTR [edx+eax*4]
  001cf	50		 push	 eax
  001d0	8b 4d fc	 mov	 ecx, DWORD PTR _this$[ebp]
  001d3	8b 51 04	 mov	 edx, DWORD PTR [ecx+4]
  001d6	8b 45 f4	 mov	 eax, DWORD PTR __Myboff$[ebp]
  001d9	8d 0c 82	 lea	 ecx, DWORD PTR [edx+eax*4]
  001dc	51		 push	 ecx
  001dd	e8 00 00 00 00	 call	 ??$_Destroy_range@PAVCPoint@@V?$allocator@PAVCPoint@@@std@@@std@@YAXPAPAVCPoint@@0AAV?$allocator@PAVCPoint@@@0@@Z ; std::_Destroy_range<CPoint *,std::allocator<CPoint *> >
  001e2	83 c4 0c	 add	 esp, 12			; 0000000cH

; 942  : 		if (_Map)

  001e5	8b 55 fc	 mov	 edx, DWORD PTR _this$[ebp]
  001e8	83 7a 04 00	 cmp	 DWORD PTR [edx+4], 0
  001ec	74 16		 je	 SHORT $L191014

; 943  : 			this->_Almap.deallocate(_Map, _Mapsize);	// free storage for old

  001ee	8b 45 fc	 mov	 eax, DWORD PTR _this$[ebp]
  001f1	8b 48 08	 mov	 ecx, DWORD PTR [eax+8]
  001f4	51		 push	 ecx
  001f5	8b 55 fc	 mov	 edx, DWORD PTR _this$[ebp]
  001f8	8b 42 04	 mov	 eax, DWORD PTR [edx+4]
  001fb	50		 push	 eax
  001fc	8b 4d fc	 mov	 ecx, DWORD PTR _this$[ebp]
  001ff	e8 00 00 00 00	 call	 ?deallocate@?$allocator@PAVCPoint@@@std@@QAEXPAPAVCPoint@@I@Z ; std::allocator<CPoint *>::deallocate
$L191014:

; 944  : 
; 945  : 		_Map = _Newmap;	// point at new

  00204	8b 4d fc	 mov	 ecx, DWORD PTR _this$[ebp]
  00207	8b 55 f0	 mov	 edx, DWORD PTR __Newmap$[ebp]
  0020a	89 51 04	 mov	 DWORD PTR [ecx+4], edx

; 946  : 		_Mapsize += _Count;

  0020d	8b 45 fc	 mov	 eax, DWORD PTR _this$[ebp]
  00210	8b 48 08	 mov	 ecx, DWORD PTR [eax+8]
  00213	03 4d 08	 add	 ecx, DWORD PTR __Count$[ebp]
  00216	8b 55 fc	 mov	 edx, DWORD PTR _this$[ebp]
  00219	89 4a 08	 mov	 DWORD PTR [edx+8], ecx

; 947  : 		}

  0021c	83 c4 20	 add	 esp, 32			; 00000020H
  0021f	3b ec		 cmp	 ebp, esp
  00221	e8 00 00 00 00	 call	 __RTC_CheckEsp
  00226	8b e5		 mov	 esp, ebp
  00228	5d		 pop	 ebp
  00229	c2 04 00	 ret	 4
?_Growmap@?$deque@VCPoint@@V?$allocator@VCPoint@@@std@@@std@@IAEXI@Z ENDP ; std::deque<CPoint,std::allocator<CPoint> >::_Growmap
_TEXT	ENDS
PUBLIC	?deallocate@?$allocator@VCPoint@@@std@@QAEXPAVCPoint@@I@Z ; std::allocator<CPoint>::deallocate
PUBLIC	?destroy@?$allocator@PAVCPoint@@@std@@QAEXPAPAVCPoint@@@Z ; std::allocator<CPoint *>::destroy
PUBLIC	?pop_back@?$deque@VCPoint@@V?$allocator@VCPoint@@@std@@@std@@QAEXXZ ; std::deque<CPoint,std::allocator<CPoint> >::pop_back
; Function compile flags: /Odt /RTCsu
;	COMDAT ?_Tidy@?$deque@VCPoint@@V?$allocator@VCPoint@@@std@@@std@@IAEXXZ
_TEXT	SEGMENT
__Count$191020 = -8					; size = 4
_this$ = -4						; size = 4
?_Tidy@?$deque@VCPoint@@V?$allocator@VCPoint@@@std@@@std@@IAEXXZ PROC NEAR ; std::deque<CPoint,std::allocator<CPoint> >::_Tidy, COMDAT
; _this$ = ecx

; 950  : 		{	// free all storage

  00000	55		 push	 ebp
  00001	8b ec		 mov	 ebp, esp
  00003	83 ec 08	 sub	 esp, 8
  00006	c7 45 f8 cc cc
	cc cc		 mov	 DWORD PTR [ebp-8], -858993460 ; ccccccccH
  0000d	c7 45 fc cc cc
	cc cc		 mov	 DWORD PTR [ebp-4], -858993460 ; ccccccccH
  00014	89 4d fc	 mov	 DWORD PTR _this$[ebp], ecx
$L191018:

; 951  : 		while (!empty())

  00017	8b 4d fc	 mov	 ecx, DWORD PTR _this$[ebp]
  0001a	e8 00 00 00 00	 call	 ?empty@?$deque@VCPoint@@V?$allocator@VCPoint@@@std@@@std@@QBE_NXZ ; std::deque<CPoint,std::allocator<CPoint> >::empty
  0001f	0f b6 c0	 movzx	 eax, al
  00022	85 c0		 test	 eax, eax
  00024	75 0a		 jne	 SHORT $L191019

; 952  : 			pop_back();

  00026	8b 4d fc	 mov	 ecx, DWORD PTR _this$[ebp]
  00029	e8 00 00 00 00	 call	 ?pop_back@?$deque@VCPoint@@V?$allocator@VCPoint@@@std@@@std@@QAEXXZ ; std::deque<CPoint,std::allocator<CPoint> >::pop_back
  0002e	eb e7		 jmp	 SHORT $L191018
$L191019:

; 953  : 		for (size_type _Count = _Mapsize; 0 < _Count; )

  00030	8b 4d fc	 mov	 ecx, DWORD PTR _this$[ebp]
  00033	8b 51 08	 mov	 edx, DWORD PTR [ecx+8]
  00036	89 55 f8	 mov	 DWORD PTR __Count$191020[ebp], edx
$L191022:
  00039	83 7d f8 00	 cmp	 DWORD PTR __Count$191020[ebp], 0
  0003d	76 49		 jbe	 SHORT $L191023

; 954  : 			{	// free storage for a block and destroy pointer
; 955  : 			if (*(_Map + --_Count) != 0)

  0003f	8b 45 f8	 mov	 eax, DWORD PTR __Count$191020[ebp]
  00042	83 e8 01	 sub	 eax, 1
  00045	89 45 f8	 mov	 DWORD PTR __Count$191020[ebp], eax
  00048	8b 4d fc	 mov	 ecx, DWORD PTR _this$[ebp]
  0004b	8b 51 04	 mov	 edx, DWORD PTR [ecx+4]
  0004e	8b 45 f8	 mov	 eax, DWORD PTR __Count$191020[ebp]
  00051	83 3c 82 00	 cmp	 DWORD PTR [edx+eax*4], 0
  00055	74 1a		 je	 SHORT $L191024

; 956  : 				this->_Alval.deallocate(*(_Map + _Count), _DEQUESIZ);

  00057	6a 02		 push	 2
  00059	8b 4d fc	 mov	 ecx, DWORD PTR _this$[ebp]
  0005c	8b 51 04	 mov	 edx, DWORD PTR [ecx+4]
  0005f	8b 45 f8	 mov	 eax, DWORD PTR __Count$191020[ebp]
  00062	8b 0c 82	 mov	 ecx, DWORD PTR [edx+eax*4]
  00065	51		 push	 ecx
  00066	8b 4d fc	 mov	 ecx, DWORD PTR _this$[ebp]
  00069	83 c1 01	 add	 ecx, 1
  0006c	e8 00 00 00 00	 call	 ?deallocate@?$allocator@VCPoint@@@std@@QAEXPAVCPoint@@I@Z ; std::allocator<CPoint>::deallocate
$L191024:

; 957  : 			this->_Almap.destroy(_Map + _Count);

  00071	8b 55 fc	 mov	 edx, DWORD PTR _this$[ebp]
  00074	8b 42 04	 mov	 eax, DWORD PTR [edx+4]
  00077	8b 4d f8	 mov	 ecx, DWORD PTR __Count$191020[ebp]
  0007a	8d 14 88	 lea	 edx, DWORD PTR [eax+ecx*4]
  0007d	52		 push	 edx
  0007e	8b 4d fc	 mov	 ecx, DWORD PTR _this$[ebp]
  00081	e8 00 00 00 00	 call	 ?destroy@?$allocator@PAVCPoint@@@std@@QAEXPAPAVCPoint@@@Z ; std::allocator<CPoint *>::destroy

; 958  : 			}

  00086	eb b1		 jmp	 SHORT $L191022
$L191023:

; 959  : 
; 960  : 		if (_Map)

  00088	8b 45 fc	 mov	 eax, DWORD PTR _this$[ebp]
  0008b	83 78 04 00	 cmp	 DWORD PTR [eax+4], 0
  0008f	74 16		 je	 SHORT $L191025

; 961  : 			this->_Almap.deallocate(_Map, _Mapsize);	// free storage for map

  00091	8b 4d fc	 mov	 ecx, DWORD PTR _this$[ebp]
  00094	8b 51 08	 mov	 edx, DWORD PTR [ecx+8]
  00097	52		 push	 edx
  00098	8b 45 fc	 mov	 eax, DWORD PTR _this$[ebp]
  0009b	8b 48 04	 mov	 ecx, DWORD PTR [eax+4]
  0009e	51		 push	 ecx
  0009f	8b 4d fc	 mov	 ecx, DWORD PTR _this$[ebp]
  000a2	e8 00 00 00 00	 call	 ?deallocate@?$allocator@PAVCPoint@@@std@@QAEXPAPAVCPoint@@I@Z ; std::allocator<CPoint *>::deallocate
$L191025:

; 962  : 		_Mapsize = 0;

  000a7	8b 55 fc	 mov	 edx, DWORD PTR _this$[ebp]
  000aa	c7 42 08 00 00
	00 00		 mov	 DWORD PTR [edx+8], 0

; 963  : 		_Map = 0;

  000b1	8b 45 fc	 mov	 eax, DWORD PTR _this$[ebp]
  000b4	c7 40 04 00 00
	00 00		 mov	 DWORD PTR [eax+4], 0

; 964  : 		}

  000bb	83 c4 08	 add	 esp, 8
  000be	3b ec		 cmp	 ebp, esp
  000c0	e8 00 00 00 00	 call	 __RTC_CheckEsp
  000c5	8b e5		 mov	 esp, ebp
  000c7	5d		 pop	 ebp
  000c8	c3		 ret	 0
?_Tidy@?$deque@VCPoint@@V?$allocator@VCPoint@@@std@@@std@@IAEXXZ ENDP ; std::deque<CPoint,std::allocator<CPoint> >::_Tidy
_TEXT	ENDS
PUBLIC	??0?$_Deque_map@VCPoint@@V?$allocator@VCPoint@@@std@@@std@@IAE@V?$allocator@VCPoint@@@1@@Z ; std::_Deque_map<CPoint,std::allocator<CPoint> >::_Deque_map<CPoint,std::allocator<CPoint> >
PUBLIC	??0?$allocator@VCPoint@@@std@@QAE@ABV01@@Z	; std::allocator<CPoint>::allocator<CPoint>
; Function compile flags: /Odt /RTCsu
;	COMDAT ??0?$_Deque_val@VCPoint@@V?$allocator@VCPoint@@@std@@@std@@IAE@V?$allocator@VCPoint@@@1@@Z
_TEXT	SEGMENT
_this$ = -4						; size = 4
__Al$ = 8						; size = 1
??0?$_Deque_val@VCPoint@@V?$allocator@VCPoint@@@std@@@std@@IAE@V?$allocator@VCPoint@@@1@@Z PROC NEAR ; std::_Deque_val<CPoint,std::allocator<CPoint> >::_Deque_val<CPoint,std::allocator<CPoint> >, COMDAT
; _this$ = ecx

; 40   : 		{	// construct allocator and base from _Al

  00000	55		 push	 ebp
  00001	8b ec		 mov	 ebp, esp
  00003	83 ec 08	 sub	 esp, 8
  00006	c7 45 f8 cc cc
	cc cc		 mov	 DWORD PTR [ebp-8], -858993460 ; ccccccccH
  0000d	c7 45 fc cc cc
	cc cc		 mov	 DWORD PTR [ebp-4], -858993460 ; ccccccccH
  00014	89 4d fc	 mov	 DWORD PTR _this$[ebp], ecx
  00017	51		 push	 ecx
  00018	8b cc		 mov	 ecx, esp
  0001a	8d 45 08	 lea	 eax, DWORD PTR __Al$[ebp]
  0001d	50		 push	 eax
  0001e	e8 00 00 00 00	 call	 ??0?$allocator@VCPoint@@@std@@QAE@ABV01@@Z ; std::allocator<CPoint>::allocator<CPoint>
  00023	8b 4d fc	 mov	 ecx, DWORD PTR _this$[ebp]
  00026	e8 00 00 00 00	 call	 ??0?$_Deque_map@VCPoint@@V?$allocator@VCPoint@@@std@@@std@@IAE@V?$allocator@VCPoint@@@1@@Z ; std::_Deque_map<CPoint,std::allocator<CPoint> >::_Deque_map<CPoint,std::allocator<CPoint> >
  0002b	8d 4d 08	 lea	 ecx, DWORD PTR __Al$[ebp]
  0002e	51		 push	 ecx
  0002f	8b 4d fc	 mov	 ecx, DWORD PTR _this$[ebp]
  00032	83 c1 01	 add	 ecx, 1
  00035	e8 00 00 00 00	 call	 ??0?$allocator@VCPoint@@@std@@QAE@ABV01@@Z ; std::allocator<CPoint>::allocator<CPoint>

; 41   : 		}

  0003a	8b 45 fc	 mov	 eax, DWORD PTR _this$[ebp]
  0003d	83 c4 08	 add	 esp, 8
  00040	3b ec		 cmp	 ebp, esp
  00042	e8 00 00 00 00	 call	 __RTC_CheckEsp
  00047	8b e5		 mov	 esp, ebp
  00049	5d		 pop	 ebp
  0004a	c2 04 00	 ret	 4
??0?$_Deque_val@VCPoint@@V?$allocator@VCPoint@@@std@@@std@@IAE@V?$allocator@VCPoint@@@1@@Z ENDP ; std::_Deque_val<CPoint,std::allocator<CPoint> >::_Deque_val<CPoint,std::allocator<CPoint> >
; Function compile flags: /Odt /RTCsu
; File d:\program files (x86)\microsoft visual studio .net 2003\vc7\include\xmemory
_TEXT	ENDS
;	COMDAT ??0?$allocator@VCPoint@@@std@@QAE@XZ
_TEXT	SEGMENT
_this$ = -4						; size = 4
??0?$allocator@VCPoint@@@std@@QAE@XZ PROC NEAR		; std::allocator<CPoint>::allocator<CPoint>, COMDAT
; _this$ = ecx

; 111  : 	allocator()

  00000	55		 push	 ebp
  00001	8b ec		 mov	 ebp, esp
  00003	51		 push	 ecx
  00004	c7 45 fc cc cc
	cc cc		 mov	 DWORD PTR [ebp-4], -858993460 ; ccccccccH
  0000b	89 4d fc	 mov	 DWORD PTR _this$[ebp], ecx

; 112  : 		{	// construct default allocator (do nothing)
; 113  : 		}

  0000e	8b 45 fc	 mov	 eax, DWORD PTR _this$[ebp]
  00011	8b e5		 mov	 esp, ebp
  00013	5d		 pop	 ebp
  00014	c3		 ret	 0
??0?$allocator@VCPoint@@@std@@QAE@XZ ENDP		; std::allocator<CPoint>::allocator<CPoint>
_TEXT	ENDS
PUBLIC	??$_Allocate@VCPoint@@@std@@YAPAVCPoint@@IPAV1@@Z ; std::_Allocate<CPoint>
; Function compile flags: /Odt /RTCsu
;	COMDAT ?allocate@?$allocator@VCPoint@@@std@@QAEPAVCPoint@@I@Z
_TEXT	SEGMENT
_this$ = -4						; size = 4
__Count$ = 8						; size = 4
?allocate@?$allocator@VCPoint@@@std@@QAEPAVCPoint@@I@Z PROC NEAR ; std::allocator<CPoint>::allocate, COMDAT
; _this$ = ecx

; 136  : 		{	// allocate array of _Count elements

  00000	55		 push	 ebp
  00001	8b ec		 mov	 ebp, esp
  00003	51		 push	 ecx
  00004	c7 45 fc cc cc
	cc cc		 mov	 DWORD PTR [ebp-4], -858993460 ; ccccccccH
  0000b	89 4d fc	 mov	 DWORD PTR _this$[ebp], ecx

; 137  : 		return (_Allocate(_Count, (pointer)0));

  0000e	6a 00		 push	 0
  00010	8b 45 08	 mov	 eax, DWORD PTR __Count$[ebp]
  00013	50		 push	 eax
  00014	e8 00 00 00 00	 call	 ??$_Allocate@VCPoint@@@std@@YAPAVCPoint@@IPAV1@@Z ; std::_Allocate<CPoint>
  00019	83 c4 08	 add	 esp, 8

; 138  : 		}

  0001c	83 c4 04	 add	 esp, 4
  0001f	3b ec		 cmp	 ebp, esp
  00021	e8 00 00 00 00	 call	 __RTC_CheckEsp
  00026	8b e5		 mov	 esp, ebp
  00028	5d		 pop	 ebp
  00029	c2 04 00	 ret	 4
?allocate@?$allocator@VCPoint@@@std@@QAEPAVCPoint@@I@Z ENDP ; std::allocator<CPoint>::allocate
_TEXT	ENDS
PUBLIC	??$_Construct@VCPoint@@V1@@std@@YAXPAVCPoint@@ABV1@@Z ; std::_Construct<CPoint,CPoint>
; Function compile flags: /Odt /RTCsu
;	COMDAT ?construct@?$allocator@VCPoint@@@std@@QAEXPAVCPoint@@ABV3@@Z
_TEXT	SEGMENT
_this$ = -4						; size = 4
__Ptr$ = 8						; size = 4
__Val$ = 12						; size = 4
?construct@?$allocator@VCPoint@@@std@@QAEXPAVCPoint@@ABV3@@Z PROC NEAR ; std::allocator<CPoint>::construct, COMDAT
; _this$ = ecx

; 146  : 		{	// construct object at _Ptr with value _Val

  00000	55		 push	 ebp
  00001	8b ec		 mov	 ebp, esp
  00003	51		 push	 ecx
  00004	c7 45 fc cc cc
	cc cc		 mov	 DWORD PTR [ebp-4], -858993460 ; ccccccccH
  0000b	89 4d fc	 mov	 DWORD PTR _this$[ebp], ecx

; 147  : 		_Construct(_Ptr, _Val);

  0000e	8b 45 0c	 mov	 eax, DWORD PTR __Val$[ebp]
  00011	50		 push	 eax
  00012	8b 4d 08	 mov	 ecx, DWORD PTR __Ptr$[ebp]
  00015	51		 push	 ecx
  00016	e8 00 00 00 00	 call	 ??$_Construct@VCPoint@@V1@@std@@YAXPAVCPoint@@ABV1@@Z ; std::_Construct<CPoint,CPoint>
  0001b	83 c4 08	 add	 esp, 8

; 148  : 		}

  0001e	83 c4 04	 add	 esp, 4
  00021	3b ec		 cmp	 ebp, esp
  00023	e8 00 00 00 00	 call	 __RTC_CheckEsp
  00028	8b e5		 mov	 esp, ebp
  0002a	5d		 pop	 ebp
  0002b	c2 08 00	 ret	 8
?construct@?$allocator@VCPoint@@@std@@QAEXPAVCPoint@@ABV3@@Z ENDP ; std::allocator<CPoint>::construct
_TEXT	ENDS
PUBLIC	??$_Destroy@VCPoint@@@std@@YAXPAVCPoint@@@Z	; std::_Destroy<CPoint>
; Function compile flags: /Odt /RTCsu
;	COMDAT ?destroy@?$allocator@VCPoint@@@std@@QAEXPAVCPoint@@@Z
_TEXT	SEGMENT
_this$ = -4						; size = 4
__Ptr$ = 8						; size = 4
?destroy@?$allocator@VCPoint@@@std@@QAEXPAVCPoint@@@Z PROC NEAR ; std::allocator<CPoint>::destroy, COMDAT
; _this$ = ecx

; 151  : 		{	// destroy object at _Ptr

  00000	55		 push	 ebp
  00001	8b ec		 mov	 ebp, esp
  00003	51		 push	 ecx
  00004	c7 45 fc cc cc
	cc cc		 mov	 DWORD PTR [ebp-4], -858993460 ; ccccccccH
  0000b	89 4d fc	 mov	 DWORD PTR _this$[ebp], ecx

; 152  : 		_Destroy(_Ptr);

  0000e	8b 45 08	 mov	 eax, DWORD PTR __Ptr$[ebp]
  00011	50		 push	 eax
  00012	e8 00 00 00 00	 call	 ??$_Destroy@VCPoint@@@std@@YAXPAVCPoint@@@Z ; std::_Destroy<CPoint>
  00017	83 c4 04	 add	 esp, 4

; 153  : 		}

  0001a	83 c4 04	 add	 esp, 4
  0001d	3b ec		 cmp	 ebp, esp
  0001f	e8 00 00 00 00	 call	 __RTC_CheckEsp
  00024	8b e5		 mov	 esp, ebp
  00026	5d		 pop	 ebp
  00027	c2 04 00	 ret	 4
?destroy@?$allocator@VCPoint@@@std@@QAEXPAVCPoint@@@Z ENDP ; std::allocator<CPoint>::destroy
; Function compile flags: /Odt /RTCsu
; File d:\program files (x86)\microsoft visual studio .net 2003\vc7\include\vector
_TEXT	ENDS
;	COMDAT ?capacity@?$vector@HV?$allocator@H@std@@@std@@QBEIXZ
_TEXT	SEGMENT
tv70 = -8						; size = 4
_this$ = -4						; size = 4
?capacity@?$vector@HV?$allocator@H@std@@@std@@QBEIXZ PROC NEAR ; std::vector<int,std::allocator<int> >::capacity, COMDAT
; _this$ = ecx

; 457  : 		{	// return current length of allocated storage

  00000	55		 push	 ebp
  00001	8b ec		 mov	 ebp, esp
  00003	83 ec 08	 sub	 esp, 8
  00006	c7 45 f8 cc cc
	cc cc		 mov	 DWORD PTR [ebp-8], -858993460 ; ccccccccH
  0000d	c7 45 fc cc cc
	cc cc		 mov	 DWORD PTR [ebp-4], -858993460 ; ccccccccH
  00014	89 4d fc	 mov	 DWORD PTR _this$[ebp], ecx

; 458  : 		return (_Myfirst == 0 ? 0 : _Myend - _Myfirst);

  00017	8b 45 fc	 mov	 eax, DWORD PTR _this$[ebp]
  0001a	83 78 04 00	 cmp	 DWORD PTR [eax+4], 0
  0001e	75 09		 jne	 SHORT $L192924
  00020	c7 45 f8 00 00
	00 00		 mov	 DWORD PTR tv70[ebp], 0
  00027	eb 12		 jmp	 SHORT $L192925
$L192924:
  00029	8b 4d fc	 mov	 ecx, DWORD PTR _this$[ebp]
  0002c	8b 55 fc	 mov	 edx, DWORD PTR _this$[ebp]
  0002f	8b 41 0c	 mov	 eax, DWORD PTR [ecx+12]
  00032	2b 42 04	 sub	 eax, DWORD PTR [edx+4]
  00035	c1 f8 02	 sar	 eax, 2
  00038	89 45 f8	 mov	 DWORD PTR tv70[ebp], eax
$L192925:
  0003b	8b 45 f8	 mov	 eax, DWORD PTR tv70[ebp]

; 459  : 		}

  0003e	8b e5		 mov	 esp, ebp
  00040	5d		 pop	 ebp
  00041	c3		 ret	 0
?capacity@?$vector@HV?$allocator@H@std@@@std@@QBEIXZ ENDP ; std::vector<int,std::allocator<int> >::capacity
_TEXT	ENDS
PUBLIC	??0const_iterator@?$vector@HV?$allocator@H@std@@@std@@QAE@PAH@Z ; std::vector<int,std::allocator<int> >::const_iterator::const_iterator
; Function compile flags: /Odt /RTCsu
;	COMDAT ?begin@?$vector@HV?$allocator@H@std@@@std@@QBE?AVconst_iterator@12@XZ
_TEXT	SEGMENT
_this$ = -4						; size = 4
___$ReturnUdt$ = 8					; size = 4
?begin@?$vector@HV?$allocator@H@std@@@std@@QBE?AVconst_iterator@12@XZ PROC NEAR ; std::vector<int,std::allocator<int> >::begin, COMDAT
; _this$ = ecx

; 467  : 		{	// return iterator for beginning of nonmutable sequence

  00000	55		 push	 ebp
  00001	8b ec		 mov	 ebp, esp
  00003	51		 push	 ecx
  00004	c7 45 fc cc cc
	cc cc		 mov	 DWORD PTR [ebp-4], -858993460 ; ccccccccH
  0000b	89 4d fc	 mov	 DWORD PTR _this$[ebp], ecx

; 468  : 		return (const_iterator(_Myfirst));

  0000e	8b 45 fc	 mov	 eax, DWORD PTR _this$[ebp]
  00011	8b 48 04	 mov	 ecx, DWORD PTR [eax+4]
  00014	51		 push	 ecx
  00015	8b 4d 08	 mov	 ecx, DWORD PTR ___$ReturnUdt$[ebp]
  00018	e8 00 00 00 00	 call	 ??0const_iterator@?$vector@HV?$allocator@H@std@@@std@@QAE@PAH@Z ; std::vector<int,std::allocator<int> >::const_iterator::const_iterator
  0001d	8b 45 08	 mov	 eax, DWORD PTR ___$ReturnUdt$[ebp]

; 469  : 		}

  00020	83 c4 04	 add	 esp, 4
  00023	3b ec		 cmp	 ebp, esp
  00025	e8 00 00 00 00	 call	 __RTC_CheckEsp
  0002a	8b e5		 mov	 esp, ebp
  0002c	5d		 pop	 ebp
  0002d	c2 04 00	 ret	 4
?begin@?$vector@HV?$allocator@H@std@@@std@@QBE?AVconst_iterator@12@XZ ENDP ; std::vector<int,std::allocator<int> >::begin
; Function compile flags: /Odt /RTCsu
_TEXT	ENDS
;	COMDAT ?end@?$vector@HV?$allocator@H@std@@@std@@QBE?AVconst_iterator@12@XZ
_TEXT	SEGMENT
_this$ = -4						; size = 4
___$ReturnUdt$ = 8					; size = 4
?end@?$vector@HV?$allocator@H@std@@@std@@QBE?AVconst_iterator@12@XZ PROC NEAR ; std::vector<int,std::allocator<int> >::end, COMDAT
; _this$ = ecx

; 477  : 		{	// return iterator for end of nonmutable sequence

  00000	55		 push	 ebp
  00001	8b ec		 mov	 ebp, esp
  00003	51		 push	 ecx
  00004	c7 45 fc cc cc
	cc cc		 mov	 DWORD PTR [ebp-4], -858993460 ; ccccccccH
  0000b	89 4d fc	 mov	 DWORD PTR _this$[ebp], ecx

; 478  : 		return (const_iterator(_Mylast));

  0000e	8b 45 fc	 mov	 eax, DWORD PTR _this$[ebp]
  00011	8b 48 08	 mov	 ecx, DWORD PTR [eax+8]
  00014	51		 push	 ecx
  00015	8b 4d 08	 mov	 ecx, DWORD PTR ___$ReturnUdt$[ebp]
  00018	e8 00 00 00 00	 call	 ??0const_iterator@?$vector@HV?$allocator@H@std@@@std@@QAE@PAH@Z ; std::vector<int,std::allocator<int> >::const_iterator::const_iterator
  0001d	8b 45 08	 mov	 eax, DWORD PTR ___$ReturnUdt$[ebp]

; 479  : 		}

  00020	83 c4 04	 add	 esp, 4
  00023	3b ec		 cmp	 ebp, esp
  00025	e8 00 00 00 00	 call	 __RTC_CheckEsp
  0002a	8b e5		 mov	 esp, ebp
  0002c	5d		 pop	 ebp
  0002d	c2 04 00	 ret	 4
?end@?$vector@HV?$allocator@H@std@@@std@@QBE?AVconst_iterator@12@XZ ENDP ; std::vector<int,std::allocator<int> >::end
_TEXT	ENDS
PUBLIC	?_Insert_n@?$vector@HV?$allocator@H@std@@@std@@IAEXViterator@12@IABH@Z ; std::vector<int,std::allocator<int> >::_Insert_n
PUBLIC	??Giterator@?$vector@HV?$allocator@H@std@@@std@@QBEHABVconst_iterator@12@@Z ; std::vector<int,std::allocator<int> >::iterator::operator-
; Function compile flags: /Odt /RTCsu
;	COMDAT ?insert@?$vector@HV?$allocator@H@std@@@std@@QAE?AViterator@12@V312@ABH@Z
_TEXT	SEGMENT
tv73 = -20						; size = 4
$T192932 = -16						; size = 4
$T192929 = -12						; size = 4
__Off$ = -8						; size = 4
_this$ = -4						; size = 4
___$ReturnUdt$ = 8					; size = 4
__Where$ = 12						; size = 4
__Val$ = 16						; size = 4
?insert@?$vector@HV?$allocator@H@std@@@std@@QAE?AViterator@12@V312@ABH@Z PROC NEAR ; std::vector<int,std::allocator<int> >::insert, COMDAT
; _this$ = ecx

; 620  : 		{	// insert _Val at _Where

  00000	55		 push	 ebp
  00001	8b ec		 mov	 ebp, esp
  00003	83 ec 14	 sub	 esp, 20			; 00000014H
  00006	b8 cc cc cc cc	 mov	 eax, -858993460		; ccccccccH
  0000b	89 45 ec	 mov	 DWORD PTR [ebp-20], eax
  0000e	89 45 f0	 mov	 DWORD PTR [ebp-16], eax
  00011	89 45 f4	 mov	 DWORD PTR [ebp-12], eax
  00014	89 45 f8	 mov	 DWORD PTR [ebp-8], eax
  00017	89 45 fc	 mov	 DWORD PTR [ebp-4], eax
  0001a	89 4d fc	 mov	 DWORD PTR _this$[ebp], ecx

; 621  : 		size_type _Off = size() == 0 ? 0 : _Where - begin();

  0001d	8b 4d fc	 mov	 ecx, DWORD PTR _this$[ebp]
  00020	e8 00 00 00 00	 call	 ?size@?$vector@HV?$allocator@H@std@@@std@@QBEIXZ ; std::vector<int,std::allocator<int> >::size
  00025	85 c0		 test	 eax, eax
  00027	75 09		 jne	 SHORT $L192930
  00029	c7 45 ec 00 00
	00 00		 mov	 DWORD PTR tv73[ebp], 0
  00030	eb 18		 jmp	 SHORT $L192931
$L192930:
  00032	8d 45 f4	 lea	 eax, DWORD PTR $T192929[ebp]
  00035	50		 push	 eax
  00036	8b 4d fc	 mov	 ecx, DWORD PTR _this$[ebp]
  00039	e8 00 00 00 00	 call	 ?begin@?$vector@HV?$allocator@H@std@@@std@@QAE?AViterator@12@XZ ; std::vector<int,std::allocator<int> >::begin
  0003e	50		 push	 eax
  0003f	8d 4d 0c	 lea	 ecx, DWORD PTR __Where$[ebp]
  00042	e8 00 00 00 00	 call	 ??Giterator@?$vector@HV?$allocator@H@std@@@std@@QBEHABVconst_iterator@12@@Z ; std::vector<int,std::allocator<int> >::iterator::operator-
  00047	89 45 ec	 mov	 DWORD PTR tv73[ebp], eax
$L192931:
  0004a	8b 4d ec	 mov	 ecx, DWORD PTR tv73[ebp]
  0004d	89 4d f8	 mov	 DWORD PTR __Off$[ebp], ecx

; 622  : 		_Insert_n(_Where, (size_type)1, _Val);

  00050	8b 55 10	 mov	 edx, DWORD PTR __Val$[ebp]
  00053	52		 push	 edx
  00054	6a 01		 push	 1
  00056	8b 45 0c	 mov	 eax, DWORD PTR __Where$[ebp]
  00059	50		 push	 eax
  0005a	8b 4d fc	 mov	 ecx, DWORD PTR _this$[ebp]
  0005d	e8 00 00 00 00	 call	 ?_Insert_n@?$vector@HV?$allocator@H@std@@@std@@IAEXViterator@12@IABH@Z ; std::vector<int,std::allocator<int> >::_Insert_n

; 623  : 		return (begin() + _Off);

  00062	8b 4d f8	 mov	 ecx, DWORD PTR __Off$[ebp]
  00065	51		 push	 ecx
  00066	8b 55 08	 mov	 edx, DWORD PTR ___$ReturnUdt$[ebp]
  00069	52		 push	 edx
  0006a	8d 45 f0	 lea	 eax, DWORD PTR $T192932[ebp]
  0006d	50		 push	 eax
  0006e	8b 4d fc	 mov	 ecx, DWORD PTR _this$[ebp]
  00071	e8 00 00 00 00	 call	 ?begin@?$vector@HV?$allocator@H@std@@@std@@QAE?AViterator@12@XZ ; std::vector<int,std::allocator<int> >::begin
  00076	8b c8		 mov	 ecx, eax
  00078	e8 00 00 00 00	 call	 ??Hiterator@?$vector@HV?$allocator@H@std@@@std@@QBE?AV012@H@Z ; std::vector<int,std::allocator<int> >::iterator::operator+
  0007d	8b 45 08	 mov	 eax, DWORD PTR ___$ReturnUdt$[ebp]

; 624  : 		}

  00080	83 c4 14	 add	 esp, 20			; 00000014H
  00083	3b ec		 cmp	 ebp, esp
  00085	e8 00 00 00 00	 call	 __RTC_CheckEsp
  0008a	8b e5		 mov	 esp, ebp
  0008c	5d		 pop	 ebp
  0008d	c2 0c 00	 ret	 12			; 0000000cH
?insert@?$vector@HV?$allocator@H@std@@@std@@QAE?AViterator@12@V312@ABH@Z ENDP ; std::vector<int,std::allocator<int> >::insert
_TEXT	ENDS
PUBLIC	?allocate@?$allocator@H@std@@QAEPAHI@Z		; std::allocator<int>::allocate
PUBLIC	?max_size@?$vector@HV?$allocator@H@std@@@std@@QBEIXZ ; std::vector<int,std::allocator<int> >::max_size
PUBLIC	?_Xlen@?$vector@HV?$allocator@H@std@@@std@@IBEXXZ ; std::vector<int,std::allocator<int> >::_Xlen
; Function compile flags: /Odt /RTCsu
;	COMDAT ?_Buy@?$vector@HV?$allocator@H@std@@@std@@IAE_NI@Z
_TEXT	SEGMENT
_this$ = -4						; size = 4
__Capacity$ = 8						; size = 4
?_Buy@?$vector@HV?$allocator@H@std@@@std@@IAE_NI@Z PROC NEAR ; std::vector<int,std::allocator<int> >::_Buy, COMDAT
; _this$ = ecx

; 770  : 		{	// allocate array with _Capacity elements

  00000	55		 push	 ebp
  00001	8b ec		 mov	 ebp, esp
  00003	51		 push	 ecx
  00004	c7 45 fc cc cc
	cc cc		 mov	 DWORD PTR [ebp-4], -858993460 ; ccccccccH
  0000b	89 4d fc	 mov	 DWORD PTR _this$[ebp], ecx

; 771  : 		_Myfirst = 0, _Mylast = 0, _Myend = 0;

  0000e	8b 45 fc	 mov	 eax, DWORD PTR _this$[ebp]
  00011	c7 40 04 00 00
	00 00		 mov	 DWORD PTR [eax+4], 0
  00018	8b 4d fc	 mov	 ecx, DWORD PTR _this$[ebp]
  0001b	c7 41 08 00 00
	00 00		 mov	 DWORD PTR [ecx+8], 0
  00022	8b 55 fc	 mov	 edx, DWORD PTR _this$[ebp]
  00025	c7 42 0c 00 00
	00 00		 mov	 DWORD PTR [edx+12], 0

; 772  : 		if (_Capacity == 0)

  0002c	83 7d 08 00	 cmp	 DWORD PTR __Capacity$[ebp], 0
  00030	75 04		 jne	 SHORT $L191073

; 773  : 			return (false);

  00032	32 c0		 xor	 al, al
  00034	eb 49		 jmp	 SHORT $L191072
$L191073:

; 774  : 		else if (max_size() < _Capacity)

  00036	8b 4d fc	 mov	 ecx, DWORD PTR _this$[ebp]
  00039	e8 00 00 00 00	 call	 ?max_size@?$vector@HV?$allocator@H@std@@@std@@QBEIXZ ; std::vector<int,std::allocator<int> >::max_size
  0003e	3b 45 08	 cmp	 eax, DWORD PTR __Capacity$[ebp]
  00041	73 0a		 jae	 SHORT $L191075

; 775  : 			_Xlen();	// result too long

  00043	8b 4d fc	 mov	 ecx, DWORD PTR _this$[ebp]
  00046	e8 00 00 00 00	 call	 ?_Xlen@?$vector@HV?$allocator@H@std@@@std@@IBEXXZ ; std::vector<int,std::allocator<int> >::_Xlen

; 776  : 		else

  0004b	eb 30		 jmp	 SHORT $L191074
$L191075:

; 777  : 			{	// nonempty array, allocate storage
; 778  : 			_Myfirst = this->_Alval.allocate(_Capacity);

  0004d	8b 45 08	 mov	 eax, DWORD PTR __Capacity$[ebp]
  00050	50		 push	 eax
  00051	8b 4d fc	 mov	 ecx, DWORD PTR _this$[ebp]
  00054	e8 00 00 00 00	 call	 ?allocate@?$allocator@H@std@@QAEPAHI@Z ; std::allocator<int>::allocate
  00059	8b 4d fc	 mov	 ecx, DWORD PTR _this$[ebp]
  0005c	89 41 04	 mov	 DWORD PTR [ecx+4], eax

; 779  : 			_Mylast = _Myfirst;

  0005f	8b 55 fc	 mov	 edx, DWORD PTR _this$[ebp]
  00062	8b 45 fc	 mov	 eax, DWORD PTR _this$[ebp]
  00065	8b 48 04	 mov	 ecx, DWORD PTR [eax+4]
  00068	89 4a 08	 mov	 DWORD PTR [edx+8], ecx

; 780  : 			_Myend = _Myfirst + _Capacity;

  0006b	8b 55 fc	 mov	 edx, DWORD PTR _this$[ebp]
  0006e	8b 42 04	 mov	 eax, DWORD PTR [edx+4]
  00071	8b 4d 08	 mov	 ecx, DWORD PTR __Capacity$[ebp]
  00074	8d 14 88	 lea	 edx, DWORD PTR [eax+ecx*4]
  00077	8b 45 fc	 mov	 eax, DWORD PTR _this$[ebp]
  0007a	89 50 0c	 mov	 DWORD PTR [eax+12], edx
$L191074:

; 781  : 			}
; 782  : 		return (true);

  0007d	b0 01		 mov	 al, 1
$L191072:

; 783  : 		}

  0007f	83 c4 04	 add	 esp, 4
  00082	3b ec		 cmp	 ebp, esp
  00084	e8 00 00 00 00	 call	 __RTC_CheckEsp
  00089	8b e5		 mov	 esp, ebp
  0008b	5d		 pop	 ebp
  0008c	c2 04 00	 ret	 4
?_Buy@?$vector@HV?$allocator@H@std@@@std@@IAE_NI@Z ENDP	; std::vector<int,std::allocator<int> >::_Buy
_TEXT	ENDS
PUBLIC	?deallocate@?$allocator@H@std@@QAEXPAHI@Z	; std::allocator<int>::deallocate
PUBLIC	?_Destroy@?$vector@HV?$allocator@H@std@@@std@@IAEXPAH0@Z ; std::vector<int,std::allocator<int> >::_Destroy
; Function compile flags: /Odt /RTCsu
;	COMDAT ?_Tidy@?$vector@HV?$allocator@H@std@@@std@@IAEXXZ
_TEXT	SEGMENT
_this$ = -4						; size = 4
?_Tidy@?$vector@HV?$allocator@H@std@@@std@@IAEXXZ PROC NEAR ; std::vector<int,std::allocator<int> >::_Tidy, COMDAT
; _this$ = ecx

; 791  : 		{	// free all storage

  00000	55		 push	 ebp
  00001	8b ec		 mov	 ebp, esp
  00003	51		 push	 ecx
  00004	c7 45 fc cc cc
	cc cc		 mov	 DWORD PTR [ebp-4], -858993460 ; ccccccccH
  0000b	89 4d fc	 mov	 DWORD PTR _this$[ebp], ecx

; 792  : 		if (_Myfirst != 0)

  0000e	8b 45 fc	 mov	 eax, DWORD PTR _this$[ebp]
  00011	83 78 04 00	 cmp	 DWORD PTR [eax+4], 0
  00015	74 35		 je	 SHORT $L191079

; 793  : 			{	// something to free, destroy and deallocate it
; 794  : 			_Destroy(_Myfirst, _Mylast);

  00017	8b 4d fc	 mov	 ecx, DWORD PTR _this$[ebp]
  0001a	8b 51 08	 mov	 edx, DWORD PTR [ecx+8]
  0001d	52		 push	 edx
  0001e	8b 45 fc	 mov	 eax, DWORD PTR _this$[ebp]
  00021	8b 48 04	 mov	 ecx, DWORD PTR [eax+4]
  00024	51		 push	 ecx
  00025	8b 4d fc	 mov	 ecx, DWORD PTR _this$[ebp]
  00028	e8 00 00 00 00	 call	 ?_Destroy@?$vector@HV?$allocator@H@std@@@std@@IAEXPAH0@Z ; std::vector<int,std::allocator<int> >::_Destroy

; 795  : 			this->_Alval.deallocate(_Myfirst, _Myend - _Myfirst);

  0002d	8b 55 fc	 mov	 edx, DWORD PTR _this$[ebp]
  00030	8b 45 fc	 mov	 eax, DWORD PTR _this$[ebp]
  00033	8b 4a 0c	 mov	 ecx, DWORD PTR [edx+12]
  00036	2b 48 04	 sub	 ecx, DWORD PTR [eax+4]
  00039	c1 f9 02	 sar	 ecx, 2
  0003c	51		 push	 ecx
  0003d	8b 55 fc	 mov	 edx, DWORD PTR _this$[ebp]
  00040	8b 42 04	 mov	 eax, DWORD PTR [edx+4]
  00043	50		 push	 eax
  00044	8b 4d fc	 mov	 ecx, DWORD PTR _this$[ebp]
  00047	e8 00 00 00 00	 call	 ?deallocate@?$allocator@H@std@@QAEXPAHI@Z ; std::allocator<int>::deallocate
$L191079:

; 796  : 			}
; 797  : 		_Myfirst = 0, _Mylast = 0, _Myend = 0;

  0004c	8b 4d fc	 mov	 ecx, DWORD PTR _this$[ebp]
  0004f	c7 41 04 00 00
	00 00		 mov	 DWORD PTR [ecx+4], 0
  00056	8b 55 fc	 mov	 edx, DWORD PTR _this$[ebp]
  00059	c7 42 08 00 00
	00 00		 mov	 DWORD PTR [edx+8], 0
  00060	8b 45 fc	 mov	 eax, DWORD PTR _this$[ebp]
  00063	c7 40 0c 00 00
	00 00		 mov	 DWORD PTR [eax+12], 0

; 798  : 		}

  0006a	83 c4 04	 add	 esp, 4
  0006d	3b ec		 cmp	 ebp, esp
  0006f	e8 00 00 00 00	 call	 __RTC_CheckEsp
  00074	8b e5		 mov	 esp, ebp
  00076	5d		 pop	 ebp
  00077	c3		 ret	 0
?_Tidy@?$vector@HV?$allocator@H@std@@@std@@IAEXXZ ENDP	; std::vector<int,std::allocator<int> >::_Tidy
_TEXT	ENDS
PUBLIC	??$_Uninitialized_fill_n@PAHIHV?$allocator@H@std@@@std@@YAXPAHIABHAAV?$allocator@H@0@@Z ; std::_Uninitialized_fill_n<int *,unsigned int,int,std::allocator<int> >
; Function compile flags: /Odt /RTCsu
;	COMDAT ?_Ufill@?$vector@HV?$allocator@H@std@@@std@@IAEPAHPAHIABH@Z
_TEXT	SEGMENT
_this$ = -4						; size = 4
__Ptr$ = 8						; size = 4
__Count$ = 12						; size = 4
__Val$ = 16						; size = 4
?_Ufill@?$vector@HV?$allocator@H@std@@@std@@IAEPAHPAHIABH@Z PROC NEAR ; std::vector<int,std::allocator<int> >::_Ufill, COMDAT
; _this$ = ecx

; 877  : 		{	// copy initializing _Count * _Val, using allocator

  00000	55		 push	 ebp
  00001	8b ec		 mov	 ebp, esp
  00003	51		 push	 ecx
  00004	c7 45 fc cc cc
	cc cc		 mov	 DWORD PTR [ebp-4], -858993460 ; ccccccccH
  0000b	89 4d fc	 mov	 DWORD PTR _this$[ebp], ecx

; 878  : 		_Uninitialized_fill_n(_Ptr, _Count, _Val, this->_Alval);

  0000e	8b 45 fc	 mov	 eax, DWORD PTR _this$[ebp]
  00011	50		 push	 eax
  00012	8b 4d 10	 mov	 ecx, DWORD PTR __Val$[ebp]
  00015	51		 push	 ecx
  00016	8b 55 0c	 mov	 edx, DWORD PTR __Count$[ebp]
  00019	52		 push	 edx
  0001a	8b 45 08	 mov	 eax, DWORD PTR __Ptr$[ebp]
  0001d	50		 push	 eax
  0001e	e8 00 00 00 00	 call	 ??$_Uninitialized_fill_n@PAHIHV?$allocator@H@std@@@std@@YAXPAHIABHAAV?$allocator@H@0@@Z ; std::_Uninitialized_fill_n<int *,unsigned int,int,std::allocator<int> >
  00023	83 c4 10	 add	 esp, 16			; 00000010H

; 879  : 		return (_Ptr + _Count);

  00026	8b 4d 0c	 mov	 ecx, DWORD PTR __Count$[ebp]
  00029	8b 55 08	 mov	 edx, DWORD PTR __Ptr$[ebp]
  0002c	8d 04 8a	 lea	 eax, DWORD PTR [edx+ecx*4]

; 880  : 		}

  0002f	83 c4 04	 add	 esp, 4
  00032	3b ec		 cmp	 ebp, esp
  00034	e8 00 00 00 00	 call	 __RTC_CheckEsp
  00039	8b e5		 mov	 esp, ebp
  0003b	5d		 pop	 ebp
  0003c	c2 0c 00	 ret	 12			; 0000000cH
?_Ufill@?$vector@HV?$allocator@H@std@@@std@@IAEPAHPAHIABH@Z ENDP ; std::vector<int,std::allocator<int> >::_Ufill
; Function compile flags: /Odt /RTCsu
_TEXT	ENDS
;	COMDAT ??0?$_Vector_val@HV?$allocator@H@std@@@std@@IAE@V?$allocator@H@1@@Z
_TEXT	SEGMENT
_this$ = -4						; size = 4
__Al$ = 8						; size = 1
??0?$_Vector_val@HV?$allocator@H@std@@@std@@IAE@V?$allocator@H@1@@Z PROC NEAR ; std::_Vector_val<int,std::allocator<int> >::_Vector_val<int,std::allocator<int> >, COMDAT
; _this$ = ecx

; 21   : 		{	// construct allocator from _Al

  00000	55		 push	 ebp
  00001	8b ec		 mov	 ebp, esp
  00003	51		 push	 ecx
  00004	c7 45 fc cc cc
	cc cc		 mov	 DWORD PTR [ebp-4], -858993460 ; ccccccccH
  0000b	89 4d fc	 mov	 DWORD PTR _this$[ebp], ecx
  0000e	8d 45 08	 lea	 eax, DWORD PTR __Al$[ebp]
  00011	50		 push	 eax
  00012	8b 4d fc	 mov	 ecx, DWORD PTR _this$[ebp]
  00015	e8 00 00 00 00	 call	 ??0?$allocator@H@std@@QAE@ABV01@@Z ; std::allocator<int>::allocator<int>

; 22   : 		}

  0001a	8b 45 fc	 mov	 eax, DWORD PTR _this$[ebp]
  0001d	83 c4 04	 add	 esp, 4
  00020	3b ec		 cmp	 ebp, esp
  00022	e8 00 00 00 00	 call	 __RTC_CheckEsp
  00027	8b e5		 mov	 esp, ebp
  00029	5d		 pop	 ebp
  0002a	c2 04 00	 ret	 4
??0?$_Vector_val@HV?$allocator@H@std@@@std@@IAE@V?$allocator@H@1@@Z ENDP ; std::_Vector_val<int,std::allocator<int> >::_Vector_val<int,std::allocator<int> >
; Function compile flags: /Odt /RTCsu
; File d:\program files (x86)\microsoft visual studio .net 2003\vc7\include\xmemory
_TEXT	ENDS
;	COMDAT ??0?$allocator@H@std@@QAE@XZ
_TEXT	SEGMENT
_this$ = -4						; size = 4
??0?$allocator@H@std@@QAE@XZ PROC NEAR			; std::allocator<int>::allocator<int>, COMDAT
; _this$ = ecx

; 111  : 	allocator()

  00000	55		 push	 ebp
  00001	8b ec		 mov	 ebp, esp
  00003	51		 push	 ecx
  00004	c7 45 fc cc cc
	cc cc		 mov	 DWORD PTR [ebp-4], -858993460 ; ccccccccH
  0000b	89 4d fc	 mov	 DWORD PTR _this$[ebp], ecx

; 112  : 		{	// construct default allocator (do nothing)
; 113  : 		}

  0000e	8b 45 fc	 mov	 eax, DWORD PTR _this$[ebp]
  00011	8b e5		 mov	 esp, ebp
  00013	5d		 pop	 ebp
  00014	c3		 ret	 0
??0?$allocator@H@std@@QAE@XZ ENDP			; std::allocator<int>::allocator<int>
; Function compile flags: /Odt /RTCsu
_TEXT	ENDS
;	COMDAT ??0?$allocator@H@std@@QAE@ABV01@@Z
_TEXT	SEGMENT
_this$ = -4						; size = 4
___formal$ = 8						; size = 4
??0?$allocator@H@std@@QAE@ABV01@@Z PROC NEAR		; std::allocator<int>::allocator<int>, COMDAT
; _this$ = ecx

; 115  : 	allocator(const allocator<_Ty>&)

  00000	55		 push	 ebp
  00001	8b ec		 mov	 ebp, esp
  00003	51		 push	 ecx
  00004	c7 45 fc cc cc
	cc cc		 mov	 DWORD PTR [ebp-4], -858993460 ; ccccccccH
  0000b	89 4d fc	 mov	 DWORD PTR _this$[ebp], ecx

; 116  : 		{	// construct by copying (do nothing)
; 117  : 		}

  0000e	8b 45 fc	 mov	 eax, DWORD PTR _this$[ebp]
  00011	8b e5		 mov	 esp, ebp
  00013	5d		 pop	 ebp
  00014	c2 04 00	 ret	 4
??0?$allocator@H@std@@QAE@ABV01@@Z ENDP			; std::allocator<int>::allocator<int>
_TEXT	ENDS
PUBLIC	??0const_iterator@?$vector@U_tagLMCItemInfo@@V?$allocator@U_tagLMCItemInfo@@@std@@@std@@QAE@PAU_tagLMCItemInfo@@@Z ; std::vector<_tagLMCItemInfo,std::allocator<_tagLMCItemInfo> >::const_iterator::const_iterator
; Function compile flags: /Odt /RTCsu
; File d:\program files (x86)\microsoft visual studio .net 2003\vc7\include\vector
;	COMDAT ??0iterator@?$vector@U_tagLMCItemInfo@@V?$allocator@U_tagLMCItemInfo@@@std@@@std@@QAE@PAU_tagLMCItemInfo@@@Z
_TEXT	SEGMENT
_this$ = -4						; size = 4
__Ptr$ = 8						; size = 4
??0iterator@?$vector@U_tagLMCItemInfo@@V?$allocator@U_tagLMCItemInfo@@@std@@@std@@QAE@PAU_tagLMCItemInfo@@@Z PROC NEAR ; std::vector<_tagLMCItemInfo,std::allocator<_tagLMCItemInfo> >::iterator::iterator, COMDAT
; _this$ = ecx

; 215  : 			{	// construct with pointer _Ptr

  00000	55		 push	 ebp
  00001	8b ec		 mov	 ebp, esp
  00003	51		 push	 ecx
  00004	c7 45 fc cc cc
	cc cc		 mov	 DWORD PTR [ebp-4], -858993460 ; ccccccccH
  0000b	89 4d fc	 mov	 DWORD PTR _this$[ebp], ecx
  0000e	8b 45 08	 mov	 eax, DWORD PTR __Ptr$[ebp]
  00011	50		 push	 eax
  00012	8b 4d fc	 mov	 ecx, DWORD PTR _this$[ebp]
  00015	e8 00 00 00 00	 call	 ??0const_iterator@?$vector@U_tagLMCItemInfo@@V?$allocator@U_tagLMCItemInfo@@@std@@@std@@QAE@PAU_tagLMCItemInfo@@@Z ; std::vector<_tagLMCItemInfo,std::allocator<_tagLMCItemInfo> >::const_iterator::const_iterator

; 216  : 			}

  0001a	8b 45 fc	 mov	 eax, DWORD PTR _this$[ebp]
  0001d	83 c4 04	 add	 esp, 4
  00020	3b ec		 cmp	 ebp, esp
  00022	e8 00 00 00 00	 call	 __RTC_CheckEsp
  00027	8b e5		 mov	 esp, ebp
  00029	5d		 pop	 ebp
  0002a	c2 04 00	 ret	 4
??0iterator@?$vector@U_tagLMCItemInfo@@V?$allocator@U_tagLMCItemInfo@@@std@@@std@@QAE@PAU_tagLMCItemInfo@@@Z ENDP ; std::vector<_tagLMCItemInfo,std::allocator<_tagLMCItemInfo> >::iterator::iterator
_TEXT	ENDS
PUBLIC	??Dconst_iterator@?$vector@U_tagLMCItemInfo@@V?$allocator@U_tagLMCItemInfo@@@std@@@std@@QBEABU_tagLMCItemInfo@@XZ ; std::vector<_tagLMCItemInfo,std::allocator<_tagLMCItemInfo> >::const_iterator::operator*
; Function compile flags: /Odt /RTCsu
;	COMDAT ??Diterator@?$vector@U_tagLMCItemInfo@@V?$allocator@U_tagLMCItemInfo@@@std@@@std@@QBEAAU_tagLMCItemInfo@@XZ
_TEXT	SEGMENT
_this$ = -4						; size = 4
??Diterator@?$vector@U_tagLMCItemInfo@@V?$allocator@U_tagLMCItemInfo@@@std@@@std@@QBEAAU_tagLMCItemInfo@@XZ PROC NEAR ; std::vector<_tagLMCItemInfo,std::allocator<_tagLMCItemInfo> >::iterator::operator*, COMDAT
; _this$ = ecx

; 219  : 			{	// return designated object

  00000	55		 push	 ebp
  00001	8b ec		 mov	 ebp, esp
  00003	51		 push	 ecx
  00004	c7 45 fc cc cc
	cc cc		 mov	 DWORD PTR [ebp-4], -858993460 ; ccccccccH
  0000b	89 4d fc	 mov	 DWORD PTR _this$[ebp], ecx

; 220  : 			return ((reference)**(const_iterator *)this);

  0000e	8b 4d fc	 mov	 ecx, DWORD PTR _this$[ebp]
  00011	e8 00 00 00 00	 call	 ??Dconst_iterator@?$vector@U_tagLMCItemInfo@@V?$allocator@U_tagLMCItemInfo@@@std@@@std@@QBEABU_tagLMCItemInfo@@XZ ; std::vector<_tagLMCItemInfo,std::allocator<_tagLMCItemInfo> >::const_iterator::operator*

; 221  : 			}

  00016	83 c4 04	 add	 esp, 4
  00019	3b ec		 cmp	 ebp, esp
  0001b	e8 00 00 00 00	 call	 __RTC_CheckEsp
  00020	8b e5		 mov	 esp, ebp
  00022	5d		 pop	 ebp
  00023	c3		 ret	 0
??Diterator@?$vector@U_tagLMCItemInfo@@V?$allocator@U_tagLMCItemInfo@@@std@@@std@@QBEAAU_tagLMCItemInfo@@XZ ENDP ; std::vector<_tagLMCItemInfo,std::allocator<_tagLMCItemInfo> >::iterator::operator*
; Function compile flags: /Odt /RTCsu
_TEXT	ENDS
;	COMDAT ??Eiterator@?$vector@U_tagLMCItemInfo@@V?$allocator@U_tagLMCItemInfo@@@std@@@std@@QAEAAV012@XZ
_TEXT	SEGMENT
_this$ = -4						; size = 4
??Eiterator@?$vector@U_tagLMCItemInfo@@V?$allocator@U_tagLMCItemInfo@@@std@@@std@@QAEAAV012@XZ PROC NEAR ; std::vector<_tagLMCItemInfo,std::allocator<_tagLMCItemInfo> >::iterator::operator++, COMDAT
; _this$ = ecx

; 229  : 			{	// preincrement

  00000	55		 push	 ebp
  00001	8b ec		 mov	 ebp, esp
  00003	51		 push	 ecx
  00004	c7 45 fc cc cc
	cc cc		 mov	 DWORD PTR [ebp-4], -858993460 ; ccccccccH
  0000b	89 4d fc	 mov	 DWORD PTR _this$[ebp], ecx

; 230  : 			++this->_Myptr;

  0000e	8b 45 fc	 mov	 eax, DWORD PTR _this$[ebp]
  00011	8b 08		 mov	 ecx, DWORD PTR [eax]
  00013	83 c1 44	 add	 ecx, 68			; 00000044H
  00016	8b 55 fc	 mov	 edx, DWORD PTR _this$[ebp]
  00019	89 0a		 mov	 DWORD PTR [edx], ecx

; 231  : 			return (*this);

  0001b	8b 45 fc	 mov	 eax, DWORD PTR _this$[ebp]

; 232  : 			}

  0001e	8b e5		 mov	 esp, ebp
  00020	5d		 pop	 ebp
  00021	c3		 ret	 0
??Eiterator@?$vector@U_tagLMCItemInfo@@V?$allocator@U_tagLMCItemInfo@@@std@@@std@@QAEAAV012@XZ ENDP ; std::vector<_tagLMCItemInfo,std::allocator<_tagLMCItemInfo> >::iterator::operator++
_TEXT	ENDS
PUBLIC	??Yiterator@?$vector@U_tagLMCItemInfo@@V?$allocator@U_tagLMCItemInfo@@@std@@@std@@QAEAAV012@H@Z ; std::vector<_tagLMCItemInfo,std::allocator<_tagLMCItemInfo> >::iterator::operator+=
; Function compile flags: /Odt /RTCsu
;	COMDAT ??Hiterator@?$vector@U_tagLMCItemInfo@@V?$allocator@U_tagLMCItemInfo@@@std@@@std@@QBE?AV012@H@Z
_TEXT	SEGMENT
__Tmp$ = -12						; size = 4
_this$ = -4						; size = 4
___$ReturnUdt$ = 8					; size = 4
__Off$ = 12						; size = 4
??Hiterator@?$vector@U_tagLMCItemInfo@@V?$allocator@U_tagLMCItemInfo@@@std@@@std@@QBE?AV012@H@Z PROC NEAR ; std::vector<_tagLMCItemInfo,std::allocator<_tagLMCItemInfo> >::iterator::operator+, COMDAT
; _this$ = ecx

; 261  : 			{	// return this + integer

  00000	55		 push	 ebp
  00001	8b ec		 mov	 ebp, esp
  00003	83 ec 10	 sub	 esp, 16			; 00000010H
  00006	b8 cc cc cc cc	 mov	 eax, -858993460		; ccccccccH
  0000b	89 45 f0	 mov	 DWORD PTR [ebp-16], eax
  0000e	89 45 f4	 mov	 DWORD PTR [ebp-12], eax
  00011	89 45 f8	 mov	 DWORD PTR [ebp-8], eax
  00014	89 45 fc	 mov	 DWORD PTR [ebp-4], eax
  00017	89 4d fc	 mov	 DWORD PTR _this$[ebp], ecx

; 262  : 			iterator _Tmp = *this;

  0001a	8b 45 fc	 mov	 eax, DWORD PTR _this$[ebp]
  0001d	8b 08		 mov	 ecx, DWORD PTR [eax]
  0001f	89 4d f4	 mov	 DWORD PTR __Tmp$[ebp], ecx

; 263  : 			return (_Tmp += _Off);

  00022	8b 55 0c	 mov	 edx, DWORD PTR __Off$[ebp]
  00025	52		 push	 edx
  00026	8d 4d f4	 lea	 ecx, DWORD PTR __Tmp$[ebp]
  00029	e8 00 00 00 00	 call	 ??Yiterator@?$vector@U_tagLMCItemInfo@@V?$allocator@U_tagLMCItemInfo@@@std@@@std@@QAEAAV012@H@Z ; std::vector<_tagLMCItemInfo,std::allocator<_tagLMCItemInfo> >::iterator::operator+=
  0002e	8b 00		 mov	 eax, DWORD PTR [eax]
  00030	8b 4d 08	 mov	 ecx, DWORD PTR ___$ReturnUdt$[ebp]
  00033	89 01		 mov	 DWORD PTR [ecx], eax
  00035	8b 45 08	 mov	 eax, DWORD PTR ___$ReturnUdt$[ebp]

; 264  : 			}

  00038	52		 push	 edx
  00039	8b cd		 mov	 ecx, ebp
  0003b	50		 push	 eax
  0003c	8d 15 00 00 00
	00		 lea	 edx, DWORD PTR $L192945
  00042	e8 00 00 00 00	 call	 @_RTC_CheckStackVars@8
  00047	58		 pop	 eax
  00048	5a		 pop	 edx
  00049	83 c4 10	 add	 esp, 16			; 00000010H
  0004c	3b ec		 cmp	 ebp, esp
  0004e	e8 00 00 00 00	 call	 __RTC_CheckEsp
  00053	8b e5		 mov	 esp, ebp
  00055	5d		 pop	 ebp
  00056	c2 08 00	 ret	 8
$L192945:
  00059	01 00 00 00	 DD	 1
  0005d	00 00 00 00	 DD	 $L192944
$L192944:
  00061	f4 ff ff ff	 DD	 -12			; fffffff4H
  00065	04 00 00 00	 DD	 4
  00069	00 00 00 00	 DD	 $L192943
$L192943:
  0006d	5f		 DB	 95			; 0000005fH
  0006e	54		 DB	 84			; 00000054H
  0006f	6d		 DB	 109			; 0000006dH
  00070	70		 DB	 112			; 00000070H
  00071	00		 DB	 0
??Hiterator@?$vector@U_tagLMCItemInfo@@V?$allocator@U_tagLMCItemInfo@@@std@@@std@@QBE?AV012@H@Z ENDP ; std::vector<_tagLMCItemInfo,std::allocator<_tagLMCItemInfo> >::iterator::operator+
; Function compile flags: /Odt /RTCsu
_TEXT	ENDS
;	COMDAT ??8const_iterator@?$vector@U_tagLMCItemInfo@@V?$allocator@U_tagLMCItemInfo@@@std@@@std@@QBE_NABV012@@Z
_TEXT	SEGMENT
_this$ = -4						; size = 4
__Right$ = 8						; size = 4
??8const_iterator@?$vector@U_tagLMCItemInfo@@V?$allocator@U_tagLMCItemInfo@@@std@@@std@@QBE_NABV012@@Z PROC NEAR ; std::vector<_tagLMCItemInfo,std::allocator<_tagLMCItemInfo> >::const_iterator::operator==, COMDAT
; _this$ = ecx

; 152  : 			{	// test for iterator equality

  00000	55		 push	 ebp
  00001	8b ec		 mov	 ebp, esp
  00003	51		 push	 ecx
  00004	c7 45 fc cc cc
	cc cc		 mov	 DWORD PTR [ebp-4], -858993460 ; ccccccccH
  0000b	89 4d fc	 mov	 DWORD PTR _this$[ebp], ecx

; 153  : 
; 154  : 
; 155  : 			return (_Myptr == _Right._Myptr);

  0000e	8b 45 fc	 mov	 eax, DWORD PTR _this$[ebp]
  00011	8b 4d 08	 mov	 ecx, DWORD PTR __Right$[ebp]
  00014	8b 00		 mov	 eax, DWORD PTR [eax]
  00016	2b 01		 sub	 eax, DWORD PTR [ecx]
  00018	f7 d8		 neg	 eax
  0001a	1b c0		 sbb	 eax, eax
  0001c	40		 inc	 eax

; 156  : 			}

  0001d	8b e5		 mov	 esp, ebp
  0001f	5d		 pop	 ebp
  00020	c2 04 00	 ret	 4
??8const_iterator@?$vector@U_tagLMCItemInfo@@V?$allocator@U_tagLMCItemInfo@@@std@@@std@@QBE_NABV012@@Z ENDP ; std::vector<_tagLMCItemInfo,std::allocator<_tagLMCItemInfo> >::const_iterator::operator==
; Function compile flags: /Odt /RTCsu
_TEXT	ENDS
;	COMDAT ??0iterator@?$vector@HV?$allocator@H@std@@@std@@QAE@PAH@Z
_TEXT	SEGMENT
_this$ = -4						; size = 4
__Ptr$ = 8						; size = 4
??0iterator@?$vector@HV?$allocator@H@std@@@std@@QAE@PAH@Z PROC NEAR ; std::vector<int,std::allocator<int> >::iterator::iterator, COMDAT
; _this$ = ecx

; 215  : 			{	// construct with pointer _Ptr

  00000	55		 push	 ebp
  00001	8b ec		 mov	 ebp, esp
  00003	51		 push	 ecx
  00004	c7 45 fc cc cc
	cc cc		 mov	 DWORD PTR [ebp-4], -858993460 ; ccccccccH
  0000b	89 4d fc	 mov	 DWORD PTR _this$[ebp], ecx
  0000e	8b 45 08	 mov	 eax, DWORD PTR __Ptr$[ebp]
  00011	50		 push	 eax
  00012	8b 4d fc	 mov	 ecx, DWORD PTR _this$[ebp]
  00015	e8 00 00 00 00	 call	 ??0const_iterator@?$vector@HV?$allocator@H@std@@@std@@QAE@PAH@Z ; std::vector<int,std::allocator<int> >::const_iterator::const_iterator

; 216  : 			}

  0001a	8b 45 fc	 mov	 eax, DWORD PTR _this$[ebp]
  0001d	83 c4 04	 add	 esp, 4
  00020	3b ec		 cmp	 ebp, esp
  00022	e8 00 00 00 00	 call	 __RTC_CheckEsp
  00027	8b e5		 mov	 esp, ebp
  00029	5d		 pop	 ebp
  0002a	c2 04 00	 ret	 4
??0iterator@?$vector@HV?$allocator@H@std@@@std@@QAE@PAH@Z ENDP ; std::vector<int,std::allocator<int> >::iterator::iterator
_TEXT	ENDS
PUBLIC	??Yiterator@?$vector@HV?$allocator@H@std@@@std@@QAEAAV012@H@Z ; std::vector<int,std::allocator<int> >::iterator::operator+=
; Function compile flags: /Odt /RTCsu
;	COMDAT ??Hiterator@?$vector@HV?$allocator@H@std@@@std@@QBE?AV012@H@Z
_TEXT	SEGMENT
__Tmp$ = -12						; size = 4
_this$ = -4						; size = 4
___$ReturnUdt$ = 8					; size = 4
__Off$ = 12						; size = 4
??Hiterator@?$vector@HV?$allocator@H@std@@@std@@QBE?AV012@H@Z PROC NEAR ; std::vector<int,std::allocator<int> >::iterator::operator+, COMDAT
; _this$ = ecx

; 261  : 			{	// return this + integer

  00000	55		 push	 ebp
  00001	8b ec		 mov	 ebp, esp
  00003	83 ec 10	 sub	 esp, 16			; 00000010H
  00006	b8 cc cc cc cc	 mov	 eax, -858993460		; ccccccccH
  0000b	89 45 f0	 mov	 DWORD PTR [ebp-16], eax
  0000e	89 45 f4	 mov	 DWORD PTR [ebp-12], eax
  00011	89 45 f8	 mov	 DWORD PTR [ebp-8], eax
  00014	89 45 fc	 mov	 DWORD PTR [ebp-4], eax
  00017	89 4d fc	 mov	 DWORD PTR _this$[ebp], ecx

; 262  : 			iterator _Tmp = *this;

  0001a	8b 45 fc	 mov	 eax, DWORD PTR _this$[ebp]
  0001d	8b 08		 mov	 ecx, DWORD PTR [eax]
  0001f	89 4d f4	 mov	 DWORD PTR __Tmp$[ebp], ecx

; 263  : 			return (_Tmp += _Off);

  00022	8b 55 0c	 mov	 edx, DWORD PTR __Off$[ebp]
  00025	52		 push	 edx
  00026	8d 4d f4	 lea	 ecx, DWORD PTR __Tmp$[ebp]
  00029	e8 00 00 00 00	 call	 ??Yiterator@?$vector@HV?$allocator@H@std@@@std@@QAEAAV012@H@Z ; std::vector<int,std::allocator<int> >::iterator::operator+=
  0002e	8b 00		 mov	 eax, DWORD PTR [eax]
  00030	8b 4d 08	 mov	 ecx, DWORD PTR ___$ReturnUdt$[ebp]
  00033	89 01		 mov	 DWORD PTR [ecx], eax
  00035	8b 45 08	 mov	 eax, DWORD PTR ___$ReturnUdt$[ebp]

; 264  : 			}

  00038	52		 push	 edx
  00039	8b cd		 mov	 ecx, ebp
  0003b	50		 push	 eax
  0003c	8d 15 00 00 00
	00		 lea	 edx, DWORD PTR $L192951
  00042	e8 00 00 00 00	 call	 @_RTC_CheckStackVars@8
  00047	58		 pop	 eax
  00048	5a		 pop	 edx
  00049	83 c4 10	 add	 esp, 16			; 00000010H
  0004c	3b ec		 cmp	 ebp, esp
  0004e	e8 00 00 00 00	 call	 __RTC_CheckEsp
  00053	8b e5		 mov	 esp, ebp
  00055	5d		 pop	 ebp
  00056	c2 08 00	 ret	 8
$L192951:
  00059	01 00 00 00	 DD	 1
  0005d	00 00 00 00	 DD	 $L192950
$L192950:
  00061	f4 ff ff ff	 DD	 -12			; fffffff4H
  00065	04 00 00 00	 DD	 4
  00069	00 00 00 00	 DD	 $L192949
$L192949:
  0006d	5f		 DB	 95			; 0000005fH
  0006e	54		 DB	 84			; 00000054H
  0006f	6d		 DB	 109			; 0000006dH
  00070	70		 DB	 112			; 00000070H
  00071	00		 DB	 0
??Hiterator@?$vector@HV?$allocator@H@std@@@std@@QBE?AV012@H@Z ENDP ; std::vector<int,std::allocator<int> >::iterator::operator+
; Function compile flags: /Odt /RTCsu
_TEXT	ENDS
;	COMDAT ??Dconst_iterator@?$vector@HV?$allocator@H@std@@@std@@QBEABHXZ
_TEXT	SEGMENT
_this$ = -4						; size = 4
??Dconst_iterator@?$vector@HV?$allocator@H@std@@@std@@QBEABHXZ PROC NEAR ; std::vector<int,std::allocator<int> >::const_iterator::operator*, COMDAT
; _this$ = ecx

; 79   : 			{	// return designated object

  00000	55		 push	 ebp
  00001	8b ec		 mov	 ebp, esp
  00003	51		 push	 ecx
  00004	c7 45 fc cc cc
	cc cc		 mov	 DWORD PTR [ebp-4], -858993460 ; ccccccccH
  0000b	89 4d fc	 mov	 DWORD PTR _this$[ebp], ecx

; 80   : 
; 81   : 
; 82   : 			return (*_Myptr);

  0000e	8b 45 fc	 mov	 eax, DWORD PTR _this$[ebp]
  00011	8b 00		 mov	 eax, DWORD PTR [eax]

; 83   : 			}

  00013	8b e5		 mov	 esp, ebp
  00015	5d		 pop	 ebp
  00016	c3		 ret	 0
??Dconst_iterator@?$vector@HV?$allocator@H@std@@@std@@QBEABHXZ ENDP ; std::vector<int,std::allocator<int> >::const_iterator::operator*
; Function compile flags: /Odt /RTCsu
_TEXT	ENDS
;	COMDAT ??8const_iterator@?$vector@HV?$allocator@H@std@@@std@@QBE_NABV012@@Z
_TEXT	SEGMENT
_this$ = -4						; size = 4
__Right$ = 8						; size = 4
??8const_iterator@?$vector@HV?$allocator@H@std@@@std@@QBE_NABV012@@Z PROC NEAR ; std::vector<int,std::allocator<int> >::const_iterator::operator==, COMDAT
; _this$ = ecx

; 152  : 			{	// test for iterator equality

  00000	55		 push	 ebp
  00001	8b ec		 mov	 ebp, esp
  00003	51		 push	 ecx
  00004	c7 45 fc cc cc
	cc cc		 mov	 DWORD PTR [ebp-4], -858993460 ; ccccccccH
  0000b	89 4d fc	 mov	 DWORD PTR _this$[ebp], ecx

; 153  : 
; 154  : 
; 155  : 			return (_Myptr == _Right._Myptr);

  0000e	8b 45 fc	 mov	 eax, DWORD PTR _this$[ebp]
  00011	8b 4d 08	 mov	 ecx, DWORD PTR __Right$[ebp]
  00014	8b 00		 mov	 eax, DWORD PTR [eax]
  00016	2b 01		 sub	 eax, DWORD PTR [ecx]
  00018	f7 d8		 neg	 eax
  0001a	1b c0		 sbb	 eax, eax
  0001c	40		 inc	 eax

; 156  : 			}

  0001d	8b e5		 mov	 esp, ebp
  0001f	5d		 pop	 ebp
  00020	c2 04 00	 ret	 4
??8const_iterator@?$vector@HV?$allocator@H@std@@@std@@QBE_NABV012@@Z ENDP ; std::vector<int,std::allocator<int> >::const_iterator::operator==
_TEXT	ENDS
PUBLIC	??Dconst_iterator@?$deque@VCPoint@@V?$allocator@VCPoint@@@std@@@std@@QBEABVCPoint@@XZ ; std::deque<CPoint,std::allocator<CPoint> >::const_iterator::operator*
; Function compile flags: /Odt /RTCsu
; File d:\program files (x86)\microsoft visual studio .net 2003\vc7\include\deque
;	COMDAT ??Diterator@?$deque@VCPoint@@V?$allocator@VCPoint@@@std@@@std@@QBEAAVCPoint@@XZ
_TEXT	SEGMENT
_this$ = -4						; size = 4
??Diterator@?$deque@VCPoint@@V?$allocator@VCPoint@@@std@@@std@@QBEAAVCPoint@@XZ PROC NEAR ; std::deque<CPoint,std::allocator<CPoint> >::iterator::operator*, COMDAT
; _this$ = ecx

; 246  : 			{	// return designated object

  00000	55		 push	 ebp
  00001	8b ec		 mov	 ebp, esp
  00003	51		 push	 ecx
  00004	c7 45 fc cc cc
	cc cc		 mov	 DWORD PTR [ebp-4], -858993460 ; ccccccccH
  0000b	89 4d fc	 mov	 DWORD PTR _this$[ebp], ecx

; 247  : 			return ((reference)**(const_iterator *)this);

  0000e	8b 4d fc	 mov	 ecx, DWORD PTR _this$[ebp]
  00011	e8 00 00 00 00	 call	 ??Dconst_iterator@?$deque@VCPoint@@V?$allocator@VCPoint@@@std@@@std@@QBEABVCPoint@@XZ ; std::deque<CPoint,std::allocator<CPoint> >::const_iterator::operator*

; 248  : 			}

  00016	83 c4 04	 add	 esp, 4
  00019	3b ec		 cmp	 ebp, esp
  0001b	e8 00 00 00 00	 call	 __RTC_CheckEsp
  00020	8b e5		 mov	 esp, ebp
  00022	5d		 pop	 ebp
  00023	c3		 ret	 0
??Diterator@?$deque@VCPoint@@V?$allocator@VCPoint@@@std@@@std@@QBEAAVCPoint@@XZ ENDP ; std::deque<CPoint,std::allocator<CPoint> >::iterator::operator*
_TEXT	ENDS
PUBLIC	?max_size@?$allocator@VCPoint@@@std@@QBEIXZ	; std::allocator<CPoint>::max_size
; Function compile flags: /Odt /RTCsu
;	COMDAT ?max_size@?$deque@VCPoint@@V?$allocator@VCPoint@@@std@@@std@@QBEIXZ
_TEXT	SEGMENT
_this$ = -4						; size = 4
?max_size@?$deque@VCPoint@@V?$allocator@VCPoint@@@std@@@std@@QBEIXZ PROC NEAR ; std::deque<CPoint,std::allocator<CPoint> >::max_size, COMDAT
; _this$ = ecx

; 496  : 		{	// return maximum possible length of sequence

  00000	55		 push	 ebp
  00001	8b ec		 mov	 ebp, esp
  00003	51		 push	 ecx
  00004	c7 45 fc cc cc
	cc cc		 mov	 DWORD PTR [ebp-4], -858993460 ; ccccccccH
  0000b	89 4d fc	 mov	 DWORD PTR _this$[ebp], ecx

; 497  : 		return (this->_Alval.max_size());

  0000e	8b 4d fc	 mov	 ecx, DWORD PTR _this$[ebp]
  00011	83 c1 01	 add	 ecx, 1
  00014	e8 00 00 00 00	 call	 ?max_size@?$allocator@VCPoint@@@std@@QBEIXZ ; std::allocator<CPoint>::max_size

; 498  : 		}

  00019	83 c4 04	 add	 esp, 4
  0001c	3b ec		 cmp	 ebp, esp
  0001e	e8 00 00 00 00	 call	 __RTC_CheckEsp
  00023	8b e5		 mov	 esp, ebp
  00025	5d		 pop	 ebp
  00026	c3		 ret	 0
?max_size@?$deque@VCPoint@@V?$allocator@VCPoint@@@std@@@std@@QBEIXZ ENDP ; std::deque<CPoint,std::allocator<CPoint> >::max_size
; Function compile flags: /Odt /RTCsu
_TEXT	ENDS
;	COMDAT ?pop_back@?$deque@VCPoint@@V?$allocator@VCPoint@@@std@@@std@@QAEXXZ
_TEXT	SEGMENT
__Block$191182 = -12					; size = 4
__Newoff$191181 = -8					; size = 4
_this$ = -4						; size = 4
?pop_back@?$deque@VCPoint@@V?$allocator@VCPoint@@@std@@@std@@QAEXXZ PROC NEAR ; std::deque<CPoint,std::allocator<CPoint> >::pop_back, COMDAT
; _this$ = ecx

; 598  : 		{	// erase element at end

  00000	55		 push	 ebp
  00001	8b ec		 mov	 ebp, esp
  00003	83 ec 0c	 sub	 esp, 12			; 0000000cH
  00006	56		 push	 esi
  00007	c7 45 f4 cc cc
	cc cc		 mov	 DWORD PTR [ebp-12], -858993460 ; ccccccccH
  0000e	c7 45 f8 cc cc
	cc cc		 mov	 DWORD PTR [ebp-8], -858993460 ; ccccccccH
  00015	c7 45 fc cc cc
	cc cc		 mov	 DWORD PTR [ebp-4], -858993460 ; ccccccccH
  0001c	89 4d fc	 mov	 DWORD PTR _this$[ebp], ecx

; 599  : 		if (!empty())

  0001f	8b 4d fc	 mov	 ecx, DWORD PTR _this$[ebp]
  00022	e8 00 00 00 00	 call	 ?empty@?$deque@VCPoint@@V?$allocator@VCPoint@@@std@@@std@@QBE_NXZ ; std::deque<CPoint,std::allocator<CPoint> >::empty
  00027	0f b6 c0	 movzx	 eax, al
  0002a	85 c0		 test	 eax, eax
  0002c	75 7b		 jne	 SHORT $L191179

; 600  : 			{	// something to erase, do it
; 601  : 			size_type _Newoff = _Mysize + _Myoff - 1;

  0002e	8b 4d fc	 mov	 ecx, DWORD PTR _this$[ebp]
  00031	8b 51 10	 mov	 edx, DWORD PTR [ecx+16]
  00034	8b 45 fc	 mov	 eax, DWORD PTR _this$[ebp]
  00037	8b 48 0c	 mov	 ecx, DWORD PTR [eax+12]
  0003a	8d 54 0a ff	 lea	 edx, DWORD PTR [edx+ecx-1]
  0003e	89 55 f8	 mov	 DWORD PTR __Newoff$191181[ebp], edx

; 602  : 			size_type _Block = _Newoff / _DEQUESIZ;

  00041	8b 45 f8	 mov	 eax, DWORD PTR __Newoff$191181[ebp]
  00044	d1 e8		 shr	 eax, 1
  00046	89 45 f4	 mov	 DWORD PTR __Block$191182[ebp], eax

; 603  : 			if (_Mapsize <= _Block)

  00049	8b 4d fc	 mov	 ecx, DWORD PTR _this$[ebp]
  0004c	8b 51 08	 mov	 edx, DWORD PTR [ecx+8]
  0004f	3b 55 f4	 cmp	 edx, DWORD PTR __Block$191182[ebp]
  00052	77 0c		 ja	 SHORT $L191183

; 604  : 				_Block -= _Mapsize;

  00054	8b 45 fc	 mov	 eax, DWORD PTR _this$[ebp]
  00057	8b 4d f4	 mov	 ecx, DWORD PTR __Block$191182[ebp]
  0005a	2b 48 08	 sub	 ecx, DWORD PTR [eax+8]
  0005d	89 4d f4	 mov	 DWORD PTR __Block$191182[ebp], ecx
$L191183:

; 605  : 			this->_Alval.destroy(_Map[_Block] + _Newoff % _DEQUESIZ);

  00060	8b 55 fc	 mov	 edx, DWORD PTR _this$[ebp]
  00063	8b 4a 04	 mov	 ecx, DWORD PTR [edx+4]
  00066	8b 45 f8	 mov	 eax, DWORD PTR __Newoff$191181[ebp]
  00069	33 d2		 xor	 edx, edx
  0006b	be 02 00 00 00	 mov	 esi, 2
  00070	f7 f6		 div	 esi
  00072	8b 45 f4	 mov	 eax, DWORD PTR __Block$191182[ebp]
  00075	8b 0c 81	 mov	 ecx, DWORD PTR [ecx+eax*4]
  00078	8d 14 d1	 lea	 edx, DWORD PTR [ecx+edx*8]
  0007b	52		 push	 edx
  0007c	8b 4d fc	 mov	 ecx, DWORD PTR _this$[ebp]
  0007f	83 c1 01	 add	 ecx, 1
  00082	e8 00 00 00 00	 call	 ?destroy@?$allocator@VCPoint@@@std@@QAEXPAVCPoint@@@Z ; std::allocator<CPoint>::destroy

; 606  : 			if (--_Mysize == 0)

  00087	8b 45 fc	 mov	 eax, DWORD PTR _this$[ebp]
  0008a	8b 48 10	 mov	 ecx, DWORD PTR [eax+16]
  0008d	83 e9 01	 sub	 ecx, 1
  00090	8b 55 fc	 mov	 edx, DWORD PTR _this$[ebp]
  00093	89 4a 10	 mov	 DWORD PTR [edx+16], ecx
  00096	8b 45 fc	 mov	 eax, DWORD PTR _this$[ebp]
  00099	83 78 10 00	 cmp	 DWORD PTR [eax+16], 0
  0009d	75 0a		 jne	 SHORT $L191179

; 607  : 				_Myoff = 0;

  0009f	8b 4d fc	 mov	 ecx, DWORD PTR _this$[ebp]
  000a2	c7 41 0c 00 00
	00 00		 mov	 DWORD PTR [ecx+12], 0
$L191179:

; 608  : 			}
; 609  : 		}

  000a9	5e		 pop	 esi
  000aa	83 c4 0c	 add	 esp, 12			; 0000000cH
  000ad	3b ec		 cmp	 ebp, esp
  000af	e8 00 00 00 00	 call	 __RTC_CheckEsp
  000b4	8b e5		 mov	 esp, ebp
  000b6	5d		 pop	 ebp
  000b7	c3		 ret	 0
?pop_back@?$deque@VCPoint@@V?$allocator@VCPoint@@@std@@@std@@QAEXXZ ENDP ; std::deque<CPoint,std::allocator<CPoint> >::pop_back
_TEXT	ENDS
PUBLIC	??_R0?AVlogic_error@std@@@8			; std::logic_error `RTTI Type Descriptor'
PUBLIC	__CT??_R0?AVlogic_error@std@@@8??0logic_error@std@@QAE@ABV01@@Z40
PUBLIC	??_R0?AVexception@@@8				; exception `RTTI Type Descriptor'
PUBLIC	__CT??_R0?AVexception@@@8??0exception@@QAE@ABV0@@Z12
PUBLIC	??_R0?AVlength_error@std@@@8			; std::length_error `RTTI Type Descriptor'
PUBLIC	??0logic_error@std@@QAE@ABV01@@Z		; std::logic_error::logic_error
PUBLIC	??0length_error@std@@QAE@ABV?$basic_string@DU?$char_traits@D@std@@V?$allocator@D@2@@1@@Z ; std::length_error::length_error
PUBLIC	??1length_error@std@@UAE@XZ			; std::length_error::~length_error
PUBLIC	??0length_error@std@@QAE@ABV01@@Z		; std::length_error::length_error
PUBLIC	__TI3?AVlength_error@std@@
PUBLIC	__CTA3?AVlength_error@std@@
PUBLIC	__CT??_R0?AVlength_error@std@@@8??0length_error@std@@QAE@ABV01@@Z40
PUBLIC	??_C@_0BC@KBDMBKEH@deque?$DMT?$DO?5too?5long?$AA@ ; `string'
EXTRN	??0exception@@QAE@ABV0@@Z:NEAR			; exception::exception
;	COMDAT xdata$x
xdata$x	SEGMENT
$T192964 DD	0ffffffffH
	DD	FLAT:$L192960
$T192962 DD	019930520H
	DD	01H
	DD	FLAT:$T192964
	DD	2 DUP(00H)
	DD	2 DUP(00H)
xdata$x	ENDS
;	COMDAT ??_C@_0BC@KBDMBKEH@deque?$DMT?$DO?5too?5long?$AA@
CONST	SEGMENT
??_C@_0BC@KBDMBKEH@deque?$DMT?$DO?5too?5long?$AA@ DB 'deque<T> too long', 00H ; `string'
CONST	ENDS
;	COMDAT __TI3?AVlength_error@std@@
xdata$x	SEGMENT
__TI3?AVlength_error@std@@ DD 00H
	DD	FLAT:??1length_error@std@@UAE@XZ
	DD	00H
	DD	FLAT:__CTA3?AVlength_error@std@@
xdata$x	ENDS
;	COMDAT __CTA3?AVlength_error@std@@
xdata$x	SEGMENT
__CTA3?AVlength_error@std@@ DD 03H
	DD	FLAT:__CT??_R0?AVlength_error@std@@@8??0length_error@std@@QAE@ABV01@@Z40
	DD	FLAT:__CT??_R0?AVlogic_error@std@@@8??0logic_error@std@@QAE@ABV01@@Z40
	DD	FLAT:__CT??_R0?AVexception@@@8??0exception@@QAE@ABV0@@Z12
xdata$x	ENDS
;	COMDAT __CT??_R0?AVlength_error@std@@@8??0length_error@std@@QAE@ABV01@@Z40
xdata$x	SEGMENT
__CT??_R0?AVlength_error@std@@@8??0length_error@std@@QAE@ABV01@@Z40 DD 00H
	DD	FLAT:??_R0?AVlength_error@std@@@8
	DD	00H
	DD	0ffffffffH
	ORG $+4
	DD	028H
	DD	FLAT:??0length_error@std@@QAE@ABV01@@Z
xdata$x	ENDS
;	COMDAT ??_R0?AVlength_error@std@@@8
_DATA	SEGMENT
??_R0?AVlength_error@std@@@8 DD FLAT:??_7type_info@@6B@	; std::length_error `RTTI Type Descriptor'
	DD	00H
	DB	'.?AVlength_error@std@@', 00H
	ORG $-31
	DD	FLAT:??_7type_info@@6B@
	DD	00H
	DB	'.?AVlength_error@std@@', 00H
_DATA	ENDS
;	COMDAT __CT??_R0?AVlogic_error@std@@@8??0logic_error@std@@QAE@ABV01@@Z40
xdata$x	SEGMENT
__CT??_R0?AVlogic_error@std@@@8??0logic_error@std@@QAE@ABV01@@Z40 DD 00H
	DD	FLAT:??_R0?AVlogic_error@std@@@8
	DD	00H
	DD	0ffffffffH
	ORG $+4
	DD	028H
	DD	FLAT:??0logic_error@std@@QAE@ABV01@@Z
xdata$x	ENDS
;	COMDAT ??_R0?AVlogic_error@std@@@8
_DATA	SEGMENT
??_R0?AVlogic_error@std@@@8 DD FLAT:??_7type_info@@6B@	; std::logic_error `RTTI Type Descriptor'
	DD	00H
	DB	'.?AVlogic_error@std@@', 00H
	ORG $-30
	DD	FLAT:??_7type_info@@6B@
	DD	00H
	DB	'.?AVlogic_error@std@@', 00H
_DATA	ENDS
;	COMDAT __CT??_R0?AVexception@@@8??0exception@@QAE@ABV0@@Z12
xdata$x	SEGMENT
__CT??_R0?AVexception@@@8??0exception@@QAE@ABV0@@Z12 DD 00H
	DD	FLAT:??_R0?AVexception@@@8
	DD	00H
	DD	0ffffffffH
	ORG $+4
	DD	0cH
	DD	FLAT:??0exception@@QAE@ABV0@@Z
xdata$x	ENDS
;	COMDAT ??_R0?AVexception@@@8
_DATA	SEGMENT
??_R0?AVexception@@@8 DD FLAT:??_7type_info@@6B@	; exception `RTTI Type Descriptor'
	DD	00H
	DB	'.?AVexception@@', 00H
	ORG $-24
	DD	FLAT:??_7type_info@@6B@
	DD	00H
	DB	'.?AVexception@@', 00H
; Function compile flags: /Odt /RTCsu
_DATA	ENDS
;	COMDAT ?_Xlen@?$deque@VCPoint@@V?$allocator@VCPoint@@@std@@@std@@IBEXXZ
_TEXT	SEGMENT
$T192959 = -84						; size = 28
$T192958 = -56						; size = 40
_this$ = -16						; size = 4
__$EHRec$ = -12						; size = 12
?_Xlen@?$deque@VCPoint@@V?$allocator@VCPoint@@@std@@@std@@IBEXXZ PROC NEAR ; std::deque<CPoint,std::allocator<CPoint> >::_Xlen, COMDAT
; _this$ = ecx

; 897  : 		{	// report length error

  00000	55		 push	 ebp
  00001	8b ec		 mov	 ebp, esp
  00003	6a ff		 push	 -1
  00005	68 00 00 00 00	 push	 __ehhandler$?_Xlen@?$deque@VCPoint@@V?$allocator@VCPoint@@@std@@@std@@IBEXXZ
  0000a	64 a1 00 00 00
	00		 mov	 eax, DWORD PTR fs:__except_list
  00010	50		 push	 eax
  00011	64 89 25 00 00
	00 00		 mov	 DWORD PTR fs:__except_list, esp
  00018	83 ec 48	 sub	 esp, 72			; 00000048H
  0001b	56		 push	 esi
  0001c	57		 push	 edi
  0001d	51		 push	 ecx
  0001e	8d 7d ac	 lea	 edi, DWORD PTR [ebp-84]
  00021	b9 12 00 00 00	 mov	 ecx, 18			; 00000012H
  00026	b8 cc cc cc cc	 mov	 eax, -858993460		; ccccccccH
  0002b	f3 ab		 rep stosd
  0002d	59		 pop	 ecx
  0002e	89 4d f0	 mov	 DWORD PTR _this$[ebp], ecx

; 898  : 		_THROW(length_error, "deque<T> too long");

  00031	8b f4		 mov	 esi, esp
  00033	68 00 00 00 00	 push	 OFFSET FLAT:??_C@_0BC@KBDMBKEH@deque?$DMT?$DO?5too?5long?$AA@
  00038	8d 4d ac	 lea	 ecx, DWORD PTR $T192959[ebp]
  0003b	ff 15 00 00 00
	00		 call	 DWORD PTR __imp_??0?$basic_string@DU?$char_traits@D@std@@V?$allocator@D@2@@std@@QAE@PBD@Z
  00041	3b f4		 cmp	 esi, esp
  00043	e8 00 00 00 00	 call	 __RTC_CheckEsp
  00048	c7 45 fc 00 00
	00 00		 mov	 DWORD PTR __$EHRec$[ebp+8], 0
  0004f	8d 45 ac	 lea	 eax, DWORD PTR $T192959[ebp]
  00052	50		 push	 eax
  00053	8d 4d c8	 lea	 ecx, DWORD PTR $T192958[ebp]
  00056	e8 00 00 00 00	 call	 ??0length_error@std@@QAE@ABV?$basic_string@DU?$char_traits@D@std@@V?$allocator@D@2@@1@@Z ; std::length_error::length_error
  0005b	68 00 00 00 00	 push	 OFFSET FLAT:__TI3?AVlength_error@std@@
  00060	8d 4d c8	 lea	 ecx, DWORD PTR $T192958[ebp]
  00063	51		 push	 ecx
  00064	e8 00 00 00 00	 call	 __CxxThrowException@8
$L192957:

; 899  : 		}

  00069	8b 4d f4	 mov	 ecx, DWORD PTR __$EHRec$[ebp]
  0006c	64 89 0d 00 00
	00 00		 mov	 DWORD PTR fs:__except_list, ecx
  00073	5f		 pop	 edi
  00074	5e		 pop	 esi
  00075	83 c4 54	 add	 esp, 84			; 00000054H
  00078	3b ec		 cmp	 ebp, esp
  0007a	e8 00 00 00 00	 call	 __RTC_CheckEsp
  0007f	8b e5		 mov	 esp, ebp
  00081	5d		 pop	 ebp
  00082	c3		 ret	 0
_TEXT	ENDS
;	COMDAT text$x
text$x	SEGMENT
$L192960:
  00000	8b f4		 mov	 esi, esp
  00002	8d 4d ac	 lea	 ecx, DWORD PTR $T192959[ebp]
  00005	ff 15 00 00 00
	00		 call	 DWORD PTR __imp_??1?$basic_string@DU?$char_traits@D@std@@V?$allocator@D@2@@std@@QAE@XZ
  0000b	3b f4		 cmp	 esi, esp
  0000d	e9 00 00 00 00	 jmp	 __RTC_CheckEsp
__ehhandler$?_Xlen@?$deque@VCPoint@@V?$allocator@VCPoint@@@std@@@std@@IBEXXZ:
  00012	b8 00 00 00 00	 mov	 eax, OFFSET FLAT:$T192962
  00017	e9 00 00 00 00	 jmp	 ___CxxFrameHandler
text$x	ENDS
?_Xlen@?$deque@VCPoint@@V?$allocator@VCPoint@@@std@@@std@@IBEXXZ ENDP ; std::deque<CPoint,std::allocator<CPoint> >::_Xlen
PUBLIC	??$?0VCPoint@@@?$allocator@PAVCPoint@@@std@@QAE@ABV?$allocator@VCPoint@@@1@@Z ; std::allocator<CPoint *>::allocator<CPoint *><CPoint>
; Function compile flags: /Odt /RTCsu
;	COMDAT ??0?$_Deque_map@VCPoint@@V?$allocator@VCPoint@@@std@@@std@@IAE@V?$allocator@VCPoint@@@1@@Z
_TEXT	SEGMENT
_this$ = -4						; size = 4
__Al$ = 8						; size = 1
??0?$_Deque_map@VCPoint@@V?$allocator@VCPoint@@@std@@@std@@IAE@V?$allocator@VCPoint@@@1@@Z PROC NEAR ; std::_Deque_map<CPoint,std::allocator<CPoint> >::_Deque_map<CPoint,std::allocator<CPoint> >, COMDAT
; _this$ = ecx

; 21   : 		{	// construct allocator from _Al

  00000	55		 push	 ebp
  00001	8b ec		 mov	 ebp, esp
  00003	51		 push	 ecx
  00004	c7 45 fc cc cc
	cc cc		 mov	 DWORD PTR [ebp-4], -858993460 ; ccccccccH
  0000b	89 4d fc	 mov	 DWORD PTR _this$[ebp], ecx
  0000e	8d 45 08	 lea	 eax, DWORD PTR __Al$[ebp]
  00011	50		 push	 eax
  00012	8b 4d fc	 mov	 ecx, DWORD PTR _this$[ebp]
  00015	e8 00 00 00 00	 call	 ??$?0VCPoint@@@?$allocator@PAVCPoint@@@std@@QAE@ABV?$allocator@VCPoint@@@1@@Z ; std::allocator<CPoint *>::allocator<CPoint *><CPoint>

; 22   : 		}

  0001a	8b 45 fc	 mov	 eax, DWORD PTR _this$[ebp]
  0001d	83 c4 04	 add	 esp, 4
  00020	3b ec		 cmp	 ebp, esp
  00022	e8 00 00 00 00	 call	 __RTC_CheckEsp
  00027	8b e5		 mov	 esp, ebp
  00029	5d		 pop	 ebp
  0002a	c2 04 00	 ret	 4
??0?$_Deque_map@VCPoint@@V?$allocator@VCPoint@@@std@@@std@@IAE@V?$allocator@VCPoint@@@1@@Z ENDP ; std::_Deque_map<CPoint,std::allocator<CPoint> >::_Deque_map<CPoint,std::allocator<CPoint> >
; Function compile flags: /Odt /RTCsu
; File d:\program files (x86)\microsoft visual studio .net 2003\vc7\include\xmemory
_TEXT	ENDS
;	COMDAT ??0?$allocator@VCPoint@@@std@@QAE@ABV01@@Z
_TEXT	SEGMENT
_this$ = -4						; size = 4
___formal$ = 8						; size = 4
??0?$allocator@VCPoint@@@std@@QAE@ABV01@@Z PROC NEAR	; std::allocator<CPoint>::allocator<CPoint>, COMDAT
; _this$ = ecx

; 115  : 	allocator(const allocator<_Ty>&)

  00000	55		 push	 ebp
  00001	8b ec		 mov	 ebp, esp
  00003	51		 push	 ecx
  00004	c7 45 fc cc cc
	cc cc		 mov	 DWORD PTR [ebp-4], -858993460 ; ccccccccH
  0000b	89 4d fc	 mov	 DWORD PTR _this$[ebp], ecx

; 116  : 		{	// construct by copying (do nothing)
; 117  : 		}

  0000e	8b 45 fc	 mov	 eax, DWORD PTR _this$[ebp]
  00011	8b e5		 mov	 esp, ebp
  00013	5d		 pop	 ebp
  00014	c2 04 00	 ret	 4
??0?$allocator@VCPoint@@@std@@QAE@ABV01@@Z ENDP		; std::allocator<CPoint>::allocator<CPoint>
_TEXT	ENDS
EXTRN	??3@YAXPAX@Z:NEAR				; operator delete
; Function compile flags: /Odt /RTCsu
;	COMDAT ?deallocate@?$allocator@VCPoint@@@std@@QAEXPAVCPoint@@I@Z
_TEXT	SEGMENT
_this$ = -4						; size = 4
__Ptr$ = 8						; size = 4
___formal$ = 12						; size = 4
?deallocate@?$allocator@VCPoint@@@std@@QAEXPAVCPoint@@I@Z PROC NEAR ; std::allocator<CPoint>::deallocate, COMDAT
; _this$ = ecx

; 131  : 		{	// deallocate object at _Ptr, ignore size

  00000	55		 push	 ebp
  00001	8b ec		 mov	 ebp, esp
  00003	51		 push	 ecx
  00004	c7 45 fc cc cc
	cc cc		 mov	 DWORD PTR [ebp-4], -858993460 ; ccccccccH
  0000b	89 4d fc	 mov	 DWORD PTR _this$[ebp], ecx

; 132  : 		operator delete(_Ptr);

  0000e	8b 45 08	 mov	 eax, DWORD PTR __Ptr$[ebp]
  00011	50		 push	 eax
  00012	e8 00 00 00 00	 call	 ??3@YAXPAX@Z		; operator delete
  00017	83 c4 04	 add	 esp, 4

; 133  : 		}

  0001a	83 c4 04	 add	 esp, 4
  0001d	3b ec		 cmp	 ebp, esp
  0001f	e8 00 00 00 00	 call	 __RTC_CheckEsp
  00024	8b e5		 mov	 esp, ebp
  00026	5d		 pop	 ebp
  00027	c2 08 00	 ret	 8
?deallocate@?$allocator@VCPoint@@@std@@QAEXPAVCPoint@@I@Z ENDP ; std::allocator<CPoint>::deallocate
; Function compile flags: /Odt /RTCsu
_TEXT	ENDS
;	COMDAT ?deallocate@?$allocator@PAVCPoint@@@std@@QAEXPAPAVCPoint@@I@Z
_TEXT	SEGMENT
_this$ = -4						; size = 4
__Ptr$ = 8						; size = 4
___formal$ = 12						; size = 4
?deallocate@?$allocator@PAVCPoint@@@std@@QAEXPAPAVCPoint@@I@Z PROC NEAR ; std::allocator<CPoint *>::deallocate, COMDAT
; _this$ = ecx

; 131  : 		{	// deallocate object at _Ptr, ignore size

  00000	55		 push	 ebp
  00001	8b ec		 mov	 ebp, esp
  00003	51		 push	 ecx
  00004	c7 45 fc cc cc
	cc cc		 mov	 DWORD PTR [ebp-4], -858993460 ; ccccccccH
  0000b	89 4d fc	 mov	 DWORD PTR _this$[ebp], ecx

; 132  : 		operator delete(_Ptr);

  0000e	8b 45 08	 mov	 eax, DWORD PTR __Ptr$[ebp]
  00011	50		 push	 eax
  00012	e8 00 00 00 00	 call	 ??3@YAXPAX@Z		; operator delete
  00017	83 c4 04	 add	 esp, 4

; 133  : 		}

  0001a	83 c4 04	 add	 esp, 4
  0001d	3b ec		 cmp	 ebp, esp
  0001f	e8 00 00 00 00	 call	 __RTC_CheckEsp
  00024	8b e5		 mov	 esp, ebp
  00026	5d		 pop	 ebp
  00027	c2 08 00	 ret	 8
?deallocate@?$allocator@PAVCPoint@@@std@@QAEXPAPAVCPoint@@I@Z ENDP ; std::allocator<CPoint *>::deallocate
_TEXT	ENDS
PUBLIC	??$_Allocate@PAVCPoint@@@std@@YAPAPAVCPoint@@IPAPAV1@@Z ; std::_Allocate<CPoint *>
; Function compile flags: /Odt /RTCsu
;	COMDAT ?allocate@?$allocator@PAVCPoint@@@std@@QAEPAPAVCPoint@@I@Z
_TEXT	SEGMENT
_this$ = -4						; size = 4
__Count$ = 8						; size = 4
?allocate@?$allocator@PAVCPoint@@@std@@QAEPAPAVCPoint@@I@Z PROC NEAR ; std::allocator<CPoint *>::allocate, COMDAT
; _this$ = ecx

; 136  : 		{	// allocate array of _Count elements

  00000	55		 push	 ebp
  00001	8b ec		 mov	 ebp, esp
  00003	51		 push	 ecx
  00004	c7 45 fc cc cc
	cc cc		 mov	 DWORD PTR [ebp-4], -858993460 ; ccccccccH
  0000b	89 4d fc	 mov	 DWORD PTR _this$[ebp], ecx

; 137  : 		return (_Allocate(_Count, (pointer)0));

  0000e	6a 00		 push	 0
  00010	8b 45 08	 mov	 eax, DWORD PTR __Count$[ebp]
  00013	50		 push	 eax
  00014	e8 00 00 00 00	 call	 ??$_Allocate@PAVCPoint@@@std@@YAPAPAVCPoint@@IPAPAV1@@Z ; std::_Allocate<CPoint *>
  00019	83 c4 08	 add	 esp, 8

; 138  : 		}

  0001c	83 c4 04	 add	 esp, 4
  0001f	3b ec		 cmp	 ebp, esp
  00021	e8 00 00 00 00	 call	 __RTC_CheckEsp
  00026	8b e5		 mov	 esp, ebp
  00028	5d		 pop	 ebp
  00029	c2 04 00	 ret	 4
?allocate@?$allocator@PAVCPoint@@@std@@QAEPAPAVCPoint@@I@Z ENDP ; std::allocator<CPoint *>::allocate
_TEXT	ENDS
PUBLIC	??$_Destroy@PAVCPoint@@@std@@YAXPAPAVCPoint@@@Z	; std::_Destroy<CPoint *>
; Function compile flags: /Odt /RTCsu
;	COMDAT ?destroy@?$allocator@PAVCPoint@@@std@@QAEXPAPAVCPoint@@@Z
_TEXT	SEGMENT
_this$ = -4						; size = 4
__Ptr$ = 8						; size = 4
?destroy@?$allocator@PAVCPoint@@@std@@QAEXPAPAVCPoint@@@Z PROC NEAR ; std::allocator<CPoint *>::destroy, COMDAT
; _this$ = ecx

; 151  : 		{	// destroy object at _Ptr

  00000	55		 push	 ebp
  00001	8b ec		 mov	 ebp, esp
  00003	51		 push	 ecx
  00004	c7 45 fc cc cc
	cc cc		 mov	 DWORD PTR [ebp-4], -858993460 ; ccccccccH
  0000b	89 4d fc	 mov	 DWORD PTR _this$[ebp], ecx

; 152  : 		_Destroy(_Ptr);

  0000e	8b 45 08	 mov	 eax, DWORD PTR __Ptr$[ebp]
  00011	50		 push	 eax
  00012	e8 00 00 00 00	 call	 ??$_Destroy@PAVCPoint@@@std@@YAXPAPAVCPoint@@@Z ; std::_Destroy<CPoint *>
  00017	83 c4 04	 add	 esp, 4

; 153  : 		}

  0001a	83 c4 04	 add	 esp, 4
  0001d	3b ec		 cmp	 ebp, esp
  0001f	e8 00 00 00 00	 call	 __RTC_CheckEsp
  00024	8b e5		 mov	 esp, ebp
  00026	5d		 pop	 ebp
  00027	c2 04 00	 ret	 4
?destroy@?$allocator@PAVCPoint@@@std@@QAEXPAPAVCPoint@@@Z ENDP ; std::allocator<CPoint *>::destroy
_TEXT	ENDS
PUBLIC	?max_size@?$allocator@H@std@@QBEIXZ		; std::allocator<int>::max_size
; Function compile flags: /Odt /RTCsu
; File d:\program files (x86)\microsoft visual studio .net 2003\vc7\include\vector
;	COMDAT ?max_size@?$vector@HV?$allocator@H@std@@@std@@QBEIXZ
_TEXT	SEGMENT
_this$ = -4						; size = 4
?max_size@?$vector@HV?$allocator@H@std@@@std@@QBEIXZ PROC NEAR ; std::vector<int,std::allocator<int> >::max_size, COMDAT
; _this$ = ecx

; 520  : 		{	// return maximum possible length of sequence

  00000	55		 push	 ebp
  00001	8b ec		 mov	 ebp, esp
  00003	51		 push	 ecx
  00004	c7 45 fc cc cc
	cc cc		 mov	 DWORD PTR [ebp-4], -858993460 ; ccccccccH
  0000b	89 4d fc	 mov	 DWORD PTR _this$[ebp], ecx

; 521  : 		return (this->_Alval.max_size());

  0000e	8b 4d fc	 mov	 ecx, DWORD PTR _this$[ebp]
  00011	e8 00 00 00 00	 call	 ?max_size@?$allocator@H@std@@QBEIXZ ; std::allocator<int>::max_size

; 522  : 		}

  00016	83 c4 04	 add	 esp, 4
  00019	3b ec		 cmp	 ebp, esp
  0001b	e8 00 00 00 00	 call	 __RTC_CheckEsp
  00020	8b e5		 mov	 esp, ebp
  00022	5d		 pop	 ebp
  00023	c3		 ret	 0
?max_size@?$vector@HV?$allocator@H@std@@@std@@QBEIXZ ENDP ; std::vector<int,std::allocator<int> >::max_size
_TEXT	ENDS
PUBLIC	??$_Destroy_range@HV?$allocator@H@std@@@std@@YAXPAH0AAV?$allocator@H@0@@Z ; std::_Destroy_range<int,std::allocator<int> >
; Function compile flags: /Odt /RTCsu
;	COMDAT ?_Destroy@?$vector@HV?$allocator@H@std@@@std@@IAEXPAH0@Z
_TEXT	SEGMENT
_this$ = -4						; size = 4
__First$ = 8						; size = 4
__Last$ = 12						; size = 4
?_Destroy@?$vector@HV?$allocator@H@std@@@std@@IAEXPAH0@Z PROC NEAR ; std::vector<int,std::allocator<int> >::_Destroy, COMDAT
; _this$ = ecx

; 786  : 		{	// destroy [_First, _Last) using allocator

  00000	55		 push	 ebp
  00001	8b ec		 mov	 ebp, esp
  00003	51		 push	 ecx
  00004	c7 45 fc cc cc
	cc cc		 mov	 DWORD PTR [ebp-4], -858993460 ; ccccccccH
  0000b	89 4d fc	 mov	 DWORD PTR _this$[ebp], ecx

; 787  : 		_Destroy_range(_First, _Last, this->_Alval);

  0000e	8b 45 fc	 mov	 eax, DWORD PTR _this$[ebp]
  00011	50		 push	 eax
  00012	8b 4d 0c	 mov	 ecx, DWORD PTR __Last$[ebp]
  00015	51		 push	 ecx
  00016	8b 55 08	 mov	 edx, DWORD PTR __First$[ebp]
  00019	52		 push	 edx
  0001a	e8 00 00 00 00	 call	 ??$_Destroy_range@HV?$allocator@H@std@@@std@@YAXPAH0AAV?$allocator@H@0@@Z ; std::_Destroy_range<int,std::allocator<int> >
  0001f	83 c4 0c	 add	 esp, 12			; 0000000cH

; 788  : 		}

  00022	83 c4 04	 add	 esp, 4
  00025	3b ec		 cmp	 ebp, esp
  00027	e8 00 00 00 00	 call	 __RTC_CheckEsp
  0002c	8b e5		 mov	 esp, ebp
  0002e	5d		 pop	 ebp
  0002f	c2 08 00	 ret	 8
?_Destroy@?$vector@HV?$allocator@H@std@@@std@@IAEXPAH0@Z ENDP ; std::vector<int,std::allocator<int> >::_Destroy
_TEXT	ENDS
PUBLIC	??$_Ucopy@PAH@?$vector@HV?$allocator@H@std@@@std@@IAEPAHPAH00@Z ; std::vector<int,std::allocator<int> >::_Ucopy<int *>
PUBLIC	??$fill@PAHH@std@@YAXPAH0ABH@Z			; std::fill<int *,int>
PUBLIC	??$copy_backward@PAHPAH@std@@YAPAHPAH00@Z	; std::copy_backward<int *,int *>
;	COMDAT xdata$x
xdata$x	SEGMENT
$T192988 DD	0ffffffffH
	DD	00H
	DD	0ffffffffH
	DD	00H
	DD	0ffffffffH
	DD	00H
	DD	0ffffffffH
	DD	00H
$T192990 DD	00H
	DD	00H
	DD	00H
	DD	FLAT:$L192979
$T192991 DD	00H
	DD	00H
	DD	00H
	DD	FLAT:$L192981
$T192989 DD	00H
	DD	00H
	DD	01H
	DD	01H
	DD	FLAT:$T192990
	DD	02H
	DD	02H
	DD	03H
	DD	01H
	DD	FLAT:$T192991
$T192983 DD	019930520H
	DD	04H
	DD	FLAT:$T192988
	DD	02H
	DD	FLAT:$T192989
	DD	2 DUP(00H)
; Function compile flags: /Odt /RTCsu
xdata$x	ENDS
;	COMDAT ?_Insert_n@?$vector@HV?$allocator@H@std@@@std@@IAEXViterator@12@IABH@Z
_TEXT	SEGMENT
tv240 = -60						; size = 4
tv239 = -56						; size = 4
tv85 = -52						; size = 4
__Oldend$191261 = -48					; size = 4
__Ptr$191241 = -44					; size = 4
__Newvec$191240 = -40					; size = 4
__Capacity$ = -36					; size = 4
__Tmp$ = -28						; size = 4
_this$ = -20						; size = 4
__$EHRec$ = -16						; size = 16
__Where$ = 8						; size = 4
__Count$ = 12						; size = 4
__Val$ = 16						; size = 4
?_Insert_n@?$vector@HV?$allocator@H@std@@@std@@IAEXViterator@12@IABH@Z PROC NEAR ; std::vector<int,std::allocator<int> >::_Insert_n, COMDAT
; _this$ = ecx

; 809  : 		{	// insert _Count * _Val at _Where

  00000	55		 push	 ebp
  00001	8b ec		 mov	 ebp, esp
  00003	6a ff		 push	 -1
  00005	68 00 00 00 00	 push	 __ehhandler$?_Insert_n@?$vector@HV?$allocator@H@std@@@std@@IAEXViterator@12@IABH@Z
  0000a	64 a1 00 00 00
	00		 mov	 eax, DWORD PTR fs:__except_list
  00010	50		 push	 eax
  00011	64 89 25 00 00
	00 00		 mov	 DWORD PTR fs:__except_list, esp
  00018	51		 push	 ecx
  00019	83 ec 2c	 sub	 esp, 44			; 0000002cH
  0001c	53		 push	 ebx
  0001d	56		 push	 esi
  0001e	57		 push	 edi
  0001f	51		 push	 ecx
  00020	8d 7d c4	 lea	 edi, DWORD PTR [ebp-60]
  00023	b9 0b 00 00 00	 mov	 ecx, 11			; 0000000bH
  00028	b8 cc cc cc cc	 mov	 eax, -858993460		; ccccccccH
  0002d	f3 ab		 rep stosd
  0002f	59		 pop	 ecx
  00030	89 65 f0	 mov	 DWORD PTR __$EHRec$[ebp], esp
  00033	89 4d ec	 mov	 DWORD PTR _this$[ebp], ecx

; 810  : 		_Ty _Tmp = _Val;	// in case _Val is in sequence

  00036	8b 45 10	 mov	 eax, DWORD PTR __Val$[ebp]
  00039	8b 08		 mov	 ecx, DWORD PTR [eax]
  0003b	89 4d e4	 mov	 DWORD PTR __Tmp$[ebp], ecx

; 811  : 		size_type _Capacity = capacity();

  0003e	8b 4d ec	 mov	 ecx, DWORD PTR _this$[ebp]
  00041	e8 00 00 00 00	 call	 ?capacity@?$vector@HV?$allocator@H@std@@@std@@QBEIXZ ; std::vector<int,std::allocator<int> >::capacity
  00046	89 45 dc	 mov	 DWORD PTR __Capacity$[ebp], eax

; 812  : 
; 813  : 		if (_Count == 0)

  00049	83 7d 0c 00	 cmp	 DWORD PTR __Count$[ebp], 0
  0004d	75 05		 jne	 SHORT $L191234

; 814  : 			;
; 815  : 		else if (max_size() - size() < _Count)

  0004f	e9 c6 02 00 00	 jmp	 $L192975
$L191234:
  00054	8b 4d ec	 mov	 ecx, DWORD PTR _this$[ebp]
  00057	e8 00 00 00 00	 call	 ?size@?$vector@HV?$allocator@H@std@@@std@@QBEIXZ ; std::vector<int,std::allocator<int> >::size
  0005c	8b f0		 mov	 esi, eax
  0005e	8b 4d ec	 mov	 ecx, DWORD PTR _this$[ebp]
  00061	e8 00 00 00 00	 call	 ?max_size@?$vector@HV?$allocator@H@std@@@std@@QBEIXZ ; std::vector<int,std::allocator<int> >::max_size
  00066	2b c6		 sub	 eax, esi
  00068	3b 45 0c	 cmp	 eax, DWORD PTR __Count$[ebp]
  0006b	73 0d		 jae	 SHORT $L191236

; 816  : 			_Xlen();	// result too long

  0006d	8b 4d ec	 mov	 ecx, DWORD PTR _this$[ebp]
  00070	e8 00 00 00 00	 call	 ?_Xlen@?$vector@HV?$allocator@H@std@@@std@@IBEXXZ ; std::vector<int,std::allocator<int> >::_Xlen

; 817  : 		else if (_Capacity < size() + _Count)

  00075	e9 a0 02 00 00	 jmp	 $L192975
$L191236:
  0007a	8b 4d ec	 mov	 ecx, DWORD PTR _this$[ebp]
  0007d	e8 00 00 00 00	 call	 ?size@?$vector@HV?$allocator@H@std@@@std@@QBEIXZ ; std::vector<int,std::allocator<int> >::size
  00082	03 45 0c	 add	 eax, DWORD PTR __Count$[ebp]
  00085	39 45 dc	 cmp	 DWORD PTR __Capacity$[ebp], eax
  00088	0f 83 66 01 00
	00		 jae	 $L191238

; 818  : 			{	// not enough room, reallocate
; 819  : 			_Capacity = max_size() - _Capacity / 2 < _Capacity
; 820  : 				? 0 : _Capacity + _Capacity / 2;	// try to grow by 50%

  0008e	8b 75 dc	 mov	 esi, DWORD PTR __Capacity$[ebp]
  00091	d1 ee		 shr	 esi, 1
  00093	8b 4d ec	 mov	 ecx, DWORD PTR _this$[ebp]
  00096	e8 00 00 00 00	 call	 ?max_size@?$vector@HV?$allocator@H@std@@@std@@QBEIXZ ; std::vector<int,std::allocator<int> >::max_size
  0009b	2b c6		 sub	 eax, esi
  0009d	3b 45 dc	 cmp	 eax, DWORD PTR __Capacity$[ebp]
  000a0	73 09		 jae	 SHORT $L192976
  000a2	c7 45 cc 00 00
	00 00		 mov	 DWORD PTR tv85[ebp], 0
  000a9	eb 0b		 jmp	 SHORT $L192977
$L192976:
  000ab	8b 55 dc	 mov	 edx, DWORD PTR __Capacity$[ebp]
  000ae	d1 ea		 shr	 edx, 1
  000b0	03 55 dc	 add	 edx, DWORD PTR __Capacity$[ebp]
  000b3	89 55 cc	 mov	 DWORD PTR tv85[ebp], edx
$L192977:
  000b6	8b 45 cc	 mov	 eax, DWORD PTR tv85[ebp]
  000b9	89 45 dc	 mov	 DWORD PTR __Capacity$[ebp], eax

; 821  : 			if (_Capacity < size() + _Count)

  000bc	8b 4d ec	 mov	 ecx, DWORD PTR _this$[ebp]
  000bf	e8 00 00 00 00	 call	 ?size@?$vector@HV?$allocator@H@std@@@std@@QBEIXZ ; std::vector<int,std::allocator<int> >::size
  000c4	03 45 0c	 add	 eax, DWORD PTR __Count$[ebp]
  000c7	39 45 dc	 cmp	 DWORD PTR __Capacity$[ebp], eax
  000ca	73 0e		 jae	 SHORT $L191239

; 822  : 				_Capacity = size() + _Count;

  000cc	8b 4d ec	 mov	 ecx, DWORD PTR _this$[ebp]
  000cf	e8 00 00 00 00	 call	 ?size@?$vector@HV?$allocator@H@std@@@std@@QBEIXZ ; std::vector<int,std::allocator<int> >::size
  000d4	03 45 0c	 add	 eax, DWORD PTR __Count$[ebp]
  000d7	89 45 dc	 mov	 DWORD PTR __Capacity$[ebp], eax
$L191239:

; 823  : 			pointer _Newvec = this->_Alval.allocate(_Capacity);

  000da	8b 4d dc	 mov	 ecx, DWORD PTR __Capacity$[ebp]
  000dd	51		 push	 ecx
  000de	8b 4d ec	 mov	 ecx, DWORD PTR _this$[ebp]
  000e1	e8 00 00 00 00	 call	 ?allocate@?$allocator@H@std@@QAEPAHI@Z ; std::allocator<int>::allocate
  000e6	89 45 d8	 mov	 DWORD PTR __Newvec$191240[ebp], eax

; 824  : 			pointer _Ptr = _Newvec;

  000e9	8b 55 d8	 mov	 edx, DWORD PTR __Newvec$191240[ebp]
  000ec	89 55 d4	 mov	 DWORD PTR __Ptr$191241[ebp], edx

; 825  : 
; 826  : 			_TRY_BEGIN

  000ef	c7 45 fc 00 00
	00 00		 mov	 DWORD PTR __$EHRec$[ebp+12], 0

; 827  : 			_Ptr = _Ucopy(_Myfirst, _ITER_BASE(_Where),
; 828  : 				_Newvec);	// copy prefix

  000f6	8b 45 d8	 mov	 eax, DWORD PTR __Newvec$191240[ebp]
  000f9	50		 push	 eax
  000fa	8b 4d 08	 mov	 ecx, DWORD PTR __Where$[ebp]
  000fd	51		 push	 ecx
  000fe	8b 55 ec	 mov	 edx, DWORD PTR _this$[ebp]
  00101	8b 42 04	 mov	 eax, DWORD PTR [edx+4]
  00104	50		 push	 eax
  00105	8b 4d ec	 mov	 ecx, DWORD PTR _this$[ebp]
  00108	e8 00 00 00 00	 call	 ??$_Ucopy@PAH@?$vector@HV?$allocator@H@std@@@std@@IAEPAHPAH00@Z ; std::vector<int,std::allocator<int> >::_Ucopy<int *>
  0010d	89 45 c8	 mov	 DWORD PTR tv239[ebp], eax
  00110	8b 4d c8	 mov	 ecx, DWORD PTR tv239[ebp]
  00113	89 4d d4	 mov	 DWORD PTR __Ptr$191241[ebp], ecx

; 829  : 			_Ptr = _Ufill(_Ptr, _Count, _Tmp);	// add new stuff

  00116	8d 55 e4	 lea	 edx, DWORD PTR __Tmp$[ebp]
  00119	52		 push	 edx
  0011a	8b 45 0c	 mov	 eax, DWORD PTR __Count$[ebp]
  0011d	50		 push	 eax
  0011e	8b 4d d4	 mov	 ecx, DWORD PTR __Ptr$191241[ebp]
  00121	51		 push	 ecx
  00122	8b 4d ec	 mov	 ecx, DWORD PTR _this$[ebp]
  00125	e8 00 00 00 00	 call	 ?_Ufill@?$vector@HV?$allocator@H@std@@@std@@IAEPAHPAHIABH@Z ; std::vector<int,std::allocator<int> >::_Ufill
  0012a	89 45 c4	 mov	 DWORD PTR tv240[ebp], eax
  0012d	8b 55 c4	 mov	 edx, DWORD PTR tv240[ebp]
  00130	89 55 d4	 mov	 DWORD PTR __Ptr$191241[ebp], edx

; 830  : 			_Ucopy(_ITER_BASE(_Where), _Mylast, _Ptr);	// copy suffix

  00133	8b 45 d4	 mov	 eax, DWORD PTR __Ptr$191241[ebp]
  00136	50		 push	 eax
  00137	8b 4d ec	 mov	 ecx, DWORD PTR _this$[ebp]
  0013a	8b 51 08	 mov	 edx, DWORD PTR [ecx+8]
  0013d	52		 push	 edx
  0013e	8b 45 08	 mov	 eax, DWORD PTR __Where$[ebp]
  00141	50		 push	 eax
  00142	8b 4d ec	 mov	 ecx, DWORD PTR _this$[ebp]
  00145	e8 00 00 00 00	 call	 ??$_Ucopy@PAH@?$vector@HV?$allocator@H@std@@@std@@IAEPAHPAH00@Z ; std::vector<int,std::allocator<int> >::_Ucopy<int *>
  0014a	eb 29		 jmp	 SHORT $L192978
$L192979:

; 831  : 			_CATCH_ALL
; 832  : 			_Destroy(_Newvec, _Ptr);

  0014c	8b 4d d4	 mov	 ecx, DWORD PTR __Ptr$191241[ebp]
  0014f	51		 push	 ecx
  00150	8b 55 d8	 mov	 edx, DWORD PTR __Newvec$191240[ebp]
  00153	52		 push	 edx
  00154	8b 4d ec	 mov	 ecx, DWORD PTR _this$[ebp]
  00157	e8 00 00 00 00	 call	 ?_Destroy@?$vector@HV?$allocator@H@std@@@std@@IAEXPAH0@Z ; std::vector<int,std::allocator<int> >::_Destroy

; 833  : 			this->_Alval.deallocate(_Newvec, _Capacity);

  0015c	8b 45 dc	 mov	 eax, DWORD PTR __Capacity$[ebp]
  0015f	50		 push	 eax
  00160	8b 4d d8	 mov	 ecx, DWORD PTR __Newvec$191240[ebp]
  00163	51		 push	 ecx
  00164	8b 4d ec	 mov	 ecx, DWORD PTR _this$[ebp]
  00167	e8 00 00 00 00	 call	 ?deallocate@?$allocator@H@std@@QAEXPAHI@Z ; std::allocator<int>::deallocate

; 834  : 			_RERAISE;

  0016c	6a 00		 push	 0
  0016e	6a 00		 push	 0
  00170	e8 00 00 00 00	 call	 __CxxThrowException@8
$L192978:

; 835  : 			_CATCH_END

  00175	c7 45 fc ff ff
	ff ff		 mov	 DWORD PTR __$EHRec$[ebp+12], -1

; 836  : 
; 837  : 			_Count += size();

  0017c	8b 4d ec	 mov	 ecx, DWORD PTR _this$[ebp]
  0017f	e8 00 00 00 00	 call	 ?size@?$vector@HV?$allocator@H@std@@@std@@QBEIXZ ; std::vector<int,std::allocator<int> >::size
  00184	03 45 0c	 add	 eax, DWORD PTR __Count$[ebp]
  00187	89 45 0c	 mov	 DWORD PTR __Count$[ebp], eax

; 838  : 			if (_Myfirst != 0)

  0018a	8b 55 ec	 mov	 edx, DWORD PTR _this$[ebp]
  0018d	83 7a 04 00	 cmp	 DWORD PTR [edx+4], 0
  00191	74 35		 je	 SHORT $L191248

; 839  : 				{	// destroy and deallocate old array
; 840  : 				_Destroy(_Myfirst, _Mylast);

  00193	8b 45 ec	 mov	 eax, DWORD PTR _this$[ebp]
  00196	8b 48 08	 mov	 ecx, DWORD PTR [eax+8]
  00199	51		 push	 ecx
  0019a	8b 55 ec	 mov	 edx, DWORD PTR _this$[ebp]
  0019d	8b 42 04	 mov	 eax, DWORD PTR [edx+4]
  001a0	50		 push	 eax
  001a1	8b 4d ec	 mov	 ecx, DWORD PTR _this$[ebp]
  001a4	e8 00 00 00 00	 call	 ?_Destroy@?$vector@HV?$allocator@H@std@@@std@@IAEXPAH0@Z ; std::vector<int,std::allocator<int> >::_Destroy

; 841  : 				this->_Alval.deallocate(_Myfirst, _Myend - _Myfirst);

  001a9	8b 4d ec	 mov	 ecx, DWORD PTR _this$[ebp]
  001ac	8b 55 ec	 mov	 edx, DWORD PTR _this$[ebp]
  001af	8b 41 0c	 mov	 eax, DWORD PTR [ecx+12]
  001b2	2b 42 04	 sub	 eax, DWORD PTR [edx+4]
  001b5	c1 f8 02	 sar	 eax, 2
  001b8	50		 push	 eax
  001b9	8b 4d ec	 mov	 ecx, DWORD PTR _this$[ebp]
  001bc	8b 51 04	 mov	 edx, DWORD PTR [ecx+4]
  001bf	52		 push	 edx
  001c0	8b 4d ec	 mov	 ecx, DWORD PTR _this$[ebp]
  001c3	e8 00 00 00 00	 call	 ?deallocate@?$allocator@H@std@@QAEXPAHI@Z ; std::allocator<int>::deallocate
$L191248:

; 842  : 				}
; 843  : 			_Myend = _Newvec + _Capacity;

  001c8	8b 45 dc	 mov	 eax, DWORD PTR __Capacity$[ebp]
  001cb	8b 4d d8	 mov	 ecx, DWORD PTR __Newvec$191240[ebp]
  001ce	8d 14 81	 lea	 edx, DWORD PTR [ecx+eax*4]
  001d1	8b 45 ec	 mov	 eax, DWORD PTR _this$[ebp]
  001d4	89 50 0c	 mov	 DWORD PTR [eax+12], edx

; 844  : 			_Mylast = _Newvec + _Count;

  001d7	8b 4d 0c	 mov	 ecx, DWORD PTR __Count$[ebp]
  001da	8b 55 d8	 mov	 edx, DWORD PTR __Newvec$191240[ebp]
  001dd	8d 04 8a	 lea	 eax, DWORD PTR [edx+ecx*4]
  001e0	8b 4d ec	 mov	 ecx, DWORD PTR _this$[ebp]
  001e3	89 41 08	 mov	 DWORD PTR [ecx+8], eax

; 845  : 			_Myfirst = _Newvec;

  001e6	8b 55 ec	 mov	 edx, DWORD PTR _this$[ebp]
  001e9	8b 45 d8	 mov	 eax, DWORD PTR __Newvec$191240[ebp]
  001ec	89 42 04	 mov	 DWORD PTR [edx+4], eax

; 846  : 			}
; 847  : 		else if ((size_type)(_Mylast - _ITER_BASE(_Where)) < _Count)

  001ef	e9 26 01 00 00	 jmp	 $L192975
$L191238:
  001f4	8b 4d ec	 mov	 ecx, DWORD PTR _this$[ebp]
  001f7	8b 51 08	 mov	 edx, DWORD PTR [ecx+8]
  001fa	2b 55 08	 sub	 edx, DWORD PTR __Where$[ebp]
  001fd	c1 fa 02	 sar	 edx, 2
  00200	3b 55 0c	 cmp	 edx, DWORD PTR __Count$[ebp]
  00203	0f 83 ad 00 00
	00		 jae	 $L191251

; 848  : 			{	// new stuff spills off end
; 849  : 			_Ucopy(_ITER_BASE(_Where), _Mylast,
; 850  : 				_ITER_BASE(_Where) + _Count);	// copy suffix

  00209	8b 45 0c	 mov	 eax, DWORD PTR __Count$[ebp]
  0020c	8b 4d 08	 mov	 ecx, DWORD PTR __Where$[ebp]
  0020f	8d 14 81	 lea	 edx, DWORD PTR [ecx+eax*4]
  00212	52		 push	 edx
  00213	8b 45 ec	 mov	 eax, DWORD PTR _this$[ebp]
  00216	8b 48 08	 mov	 ecx, DWORD PTR [eax+8]
  00219	51		 push	 ecx
  0021a	8b 55 08	 mov	 edx, DWORD PTR __Where$[ebp]
  0021d	52		 push	 edx
  0021e	8b 4d ec	 mov	 ecx, DWORD PTR _this$[ebp]
  00221	e8 00 00 00 00	 call	 ??$_Ucopy@PAH@?$vector@HV?$allocator@H@std@@@std@@IAEPAHPAH00@Z ; std::vector<int,std::allocator<int> >::_Ucopy<int *>

; 851  : 
; 852  : 			_TRY_BEGIN

  00226	c7 45 fc 02 00
	00 00		 mov	 DWORD PTR __$EHRec$[ebp+12], 2

; 853  : 			_Ufill(_Mylast, _Count - (_Mylast - _ITER_BASE(_Where)),
; 854  : 				_Tmp);	// insert new stuff off end

  0022d	8d 45 e4	 lea	 eax, DWORD PTR __Tmp$[ebp]
  00230	50		 push	 eax
  00231	8b 4d ec	 mov	 ecx, DWORD PTR _this$[ebp]
  00234	8b 51 08	 mov	 edx, DWORD PTR [ecx+8]
  00237	2b 55 08	 sub	 edx, DWORD PTR __Where$[ebp]
  0023a	c1 fa 02	 sar	 edx, 2
  0023d	8b 45 0c	 mov	 eax, DWORD PTR __Count$[ebp]
  00240	2b c2		 sub	 eax, edx
  00242	50		 push	 eax
  00243	8b 4d ec	 mov	 ecx, DWORD PTR _this$[ebp]
  00246	8b 51 08	 mov	 edx, DWORD PTR [ecx+8]
  00249	52		 push	 edx
  0024a	8b 4d ec	 mov	 ecx, DWORD PTR _this$[ebp]
  0024d	e8 00 00 00 00	 call	 ?_Ufill@?$vector@HV?$allocator@H@std@@@std@@IAEPAHPAHIABH@Z ; std::vector<int,std::allocator<int> >::_Ufill
  00252	eb 28		 jmp	 SHORT $L192980
$L192981:

; 855  : 			_CATCH_ALL
; 856  : 			_Destroy(_ITER_BASE(_Where) + _Count, _Mylast + _Count);

  00254	8b 45 ec	 mov	 eax, DWORD PTR _this$[ebp]
  00257	8b 48 08	 mov	 ecx, DWORD PTR [eax+8]
  0025a	8b 55 0c	 mov	 edx, DWORD PTR __Count$[ebp]
  0025d	8d 04 91	 lea	 eax, DWORD PTR [ecx+edx*4]
  00260	50		 push	 eax
  00261	8b 4d 0c	 mov	 ecx, DWORD PTR __Count$[ebp]
  00264	8b 55 08	 mov	 edx, DWORD PTR __Where$[ebp]
  00267	8d 04 8a	 lea	 eax, DWORD PTR [edx+ecx*4]
  0026a	50		 push	 eax
  0026b	8b 4d ec	 mov	 ecx, DWORD PTR _this$[ebp]
  0026e	e8 00 00 00 00	 call	 ?_Destroy@?$vector@HV?$allocator@H@std@@@std@@IAEXPAH0@Z ; std::vector<int,std::allocator<int> >::_Destroy

; 857  : 			_RERAISE;

  00273	6a 00		 push	 0
  00275	6a 00		 push	 0
  00277	e8 00 00 00 00	 call	 __CxxThrowException@8
$L192980:

; 858  : 			_CATCH_END

  0027c	c7 45 fc ff ff
	ff ff		 mov	 DWORD PTR __$EHRec$[ebp+12], -1

; 859  : 
; 860  : 			_Mylast += _Count;

  00283	8b 4d ec	 mov	 ecx, DWORD PTR _this$[ebp]
  00286	8b 51 08	 mov	 edx, DWORD PTR [ecx+8]
  00289	8b 45 0c	 mov	 eax, DWORD PTR __Count$[ebp]
  0028c	8d 0c 82	 lea	 ecx, DWORD PTR [edx+eax*4]
  0028f	8b 55 ec	 mov	 edx, DWORD PTR _this$[ebp]
  00292	89 4a 08	 mov	 DWORD PTR [edx+8], ecx

; 861  : 			fill(_ITER_BASE(_Where), _Mylast - _Count,
; 862  : 				_Tmp);	// insert up to old end

  00295	8d 45 e4	 lea	 eax, DWORD PTR __Tmp$[ebp]
  00298	50		 push	 eax
  00299	8b 4d 0c	 mov	 ecx, DWORD PTR __Count$[ebp]
  0029c	c1 e1 02	 shl	 ecx, 2
  0029f	8b 55 ec	 mov	 edx, DWORD PTR _this$[ebp]
  002a2	8b 42 08	 mov	 eax, DWORD PTR [edx+8]
  002a5	2b c1		 sub	 eax, ecx
  002a7	50		 push	 eax
  002a8	8b 4d 08	 mov	 ecx, DWORD PTR __Where$[ebp]
  002ab	51		 push	 ecx
  002ac	e8 00 00 00 00	 call	 ??$fill@PAHH@std@@YAXPAH0ABH@Z ; std::fill<int *,int>
  002b1	83 c4 0c	 add	 esp, 12			; 0000000cH

; 863  : 			}
; 864  : 		else

  002b4	eb 64		 jmp	 SHORT $L192975
$L191251:

; 865  : 			{	// new stuff can all be assigned
; 866  : 			pointer _Oldend = _Mylast;

  002b6	8b 55 ec	 mov	 edx, DWORD PTR _this$[ebp]
  002b9	8b 42 08	 mov	 eax, DWORD PTR [edx+8]
  002bc	89 45 d0	 mov	 DWORD PTR __Oldend$191261[ebp], eax

; 867  : 			_Mylast = _Ucopy(_Oldend - _Count, _Oldend,
; 868  : 				_Mylast);	// copy suffix

  002bf	8b 4d ec	 mov	 ecx, DWORD PTR _this$[ebp]
  002c2	8b 51 08	 mov	 edx, DWORD PTR [ecx+8]
  002c5	52		 push	 edx
  002c6	8b 45 d0	 mov	 eax, DWORD PTR __Oldend$191261[ebp]
  002c9	50		 push	 eax
  002ca	8b 4d 0c	 mov	 ecx, DWORD PTR __Count$[ebp]
  002cd	c1 e1 02	 shl	 ecx, 2
  002d0	8b 55 d0	 mov	 edx, DWORD PTR __Oldend$191261[ebp]
  002d3	2b d1		 sub	 edx, ecx
  002d5	52		 push	 edx
  002d6	8b 4d ec	 mov	 ecx, DWORD PTR _this$[ebp]
  002d9	e8 00 00 00 00	 call	 ??$_Ucopy@PAH@?$vector@HV?$allocator@H@std@@@std@@IAEPAHPAH00@Z ; std::vector<int,std::allocator<int> >::_Ucopy<int *>
  002de	8b 4d ec	 mov	 ecx, DWORD PTR _this$[ebp]
  002e1	89 41 08	 mov	 DWORD PTR [ecx+8], eax

; 869  : 			copy_backward(_ITER_BASE(_Where), _Oldend - _Count,
; 870  : 				_Oldend);	// copy hole

  002e4	8b 55 d0	 mov	 edx, DWORD PTR __Oldend$191261[ebp]
  002e7	52		 push	 edx
  002e8	8b 45 0c	 mov	 eax, DWORD PTR __Count$[ebp]
  002eb	c1 e0 02	 shl	 eax, 2
  002ee	8b 4d d0	 mov	 ecx, DWORD PTR __Oldend$191261[ebp]
  002f1	2b c8		 sub	 ecx, eax
  002f3	51		 push	 ecx
  002f4	8b 55 08	 mov	 edx, DWORD PTR __Where$[ebp]
  002f7	52		 push	 edx
  002f8	e8 00 00 00 00	 call	 ??$copy_backward@PAHPAH@std@@YAPAHPAH00@Z ; std::copy_backward<int *,int *>
  002fd	83 c4 0c	 add	 esp, 12			; 0000000cH

; 871  : 			fill(_ITER_BASE(_Where), _ITER_BASE(_Where) + _Count,
; 872  : 				_Tmp);	// insert into hole

  00300	8d 45 e4	 lea	 eax, DWORD PTR __Tmp$[ebp]
  00303	50		 push	 eax
  00304	8b 4d 0c	 mov	 ecx, DWORD PTR __Count$[ebp]
  00307	8b 55 08	 mov	 edx, DWORD PTR __Where$[ebp]
  0030a	8d 04 8a	 lea	 eax, DWORD PTR [edx+ecx*4]
  0030d	50		 push	 eax
  0030e	8b 4d 08	 mov	 ecx, DWORD PTR __Where$[ebp]
  00311	51		 push	 ecx
  00312	e8 00 00 00 00	 call	 ??$fill@PAHH@std@@YAXPAH0ABH@Z ; std::fill<int *,int>
  00317	83 c4 0c	 add	 esp, 12			; 0000000cH
$L192975:

; 873  : 			}
; 874  : 		}

  0031a	52		 push	 edx
  0031b	8b cd		 mov	 ecx, ebp
  0031d	50		 push	 eax
  0031e	8d 15 00 00 00
	00		 lea	 edx, DWORD PTR $L192987
  00324	e8 00 00 00 00	 call	 @_RTC_CheckStackVars@8
  00329	58		 pop	 eax
  0032a	5a		 pop	 edx
  0032b	8b 4d f4	 mov	 ecx, DWORD PTR __$EHRec$[ebp+4]
  0032e	64 89 0d 00 00
	00 00		 mov	 DWORD PTR fs:__except_list, ecx
  00335	5f		 pop	 edi
  00336	5e		 pop	 esi
  00337	5b		 pop	 ebx
  00338	83 c4 3c	 add	 esp, 60			; 0000003cH
  0033b	3b ec		 cmp	 ebp, esp
  0033d	e8 00 00 00 00	 call	 __RTC_CheckEsp
  00342	8b e5		 mov	 esp, ebp
  00344	5d		 pop	 ebp
  00345	c2 0c 00	 ret	 12			; 0000000cH
$L192987:
  00348	01 00 00 00	 DD	 1
  0034c	00 00 00 00	 DD	 $L192986
$L192986:
  00350	e4 ff ff ff	 DD	 -28			; ffffffe4H
  00354	04 00 00 00	 DD	 4
  00358	00 00 00 00	 DD	 $L192984
$L192984:
  0035c	5f		 DB	 95			; 0000005fH
  0035d	54		 DB	 84			; 00000054H
  0035e	6d		 DB	 109			; 0000006dH
  0035f	70		 DB	 112			; 00000070H
  00360	00		 DB	 0
_TEXT	ENDS
;	COMDAT text$x
text$x	SEGMENT
__ehhandler$?_Insert_n@?$vector@HV?$allocator@H@std@@@std@@IAEXViterator@12@IABH@Z:
  00000	b8 00 00 00 00	 mov	 eax, OFFSET FLAT:$T192983
  00005	e9 00 00 00 00	 jmp	 ___CxxFrameHandler
text$x	ENDS
?_Insert_n@?$vector@HV?$allocator@H@std@@@std@@IAEXViterator@12@IABH@Z ENDP ; std::vector<int,std::allocator<int> >::_Insert_n
PUBLIC	??_C@_0BD@OLBABOEK@vector?$DMT?$DO?5too?5long?$AA@ ; `string'
;	COMDAT xdata$x
xdata$x	SEGMENT
$T193001 DD	0ffffffffH
	DD	FLAT:$L192997
$T192999 DD	019930520H
	DD	01H
	DD	FLAT:$T193001
	DD	2 DUP(00H)
	DD	2 DUP(00H)
xdata$x	ENDS
;	COMDAT ??_C@_0BD@OLBABOEK@vector?$DMT?$DO?5too?5long?$AA@
CONST	SEGMENT
??_C@_0BD@OLBABOEK@vector?$DMT?$DO?5too?5long?$AA@ DB 'vector<T> too long'
	DB	00H						; `string'
; Function compile flags: /Odt /RTCsu
CONST	ENDS
;	COMDAT ?_Xlen@?$vector@HV?$allocator@H@std@@@std@@IBEXXZ
_TEXT	SEGMENT
$T192996 = -84						; size = 28
$T192995 = -56						; size = 40
_this$ = -16						; size = 4
__$EHRec$ = -12						; size = 12
?_Xlen@?$vector@HV?$allocator@H@std@@@std@@IBEXXZ PROC NEAR ; std::vector<int,std::allocator<int> >::_Xlen, COMDAT
; _this$ = ecx

; 883  : 		{	// report a length_error

  00000	55		 push	 ebp
  00001	8b ec		 mov	 ebp, esp
  00003	6a ff		 push	 -1
  00005	68 00 00 00 00	 push	 __ehhandler$?_Xlen@?$vector@HV?$allocator@H@std@@@std@@IBEXXZ
  0000a	64 a1 00 00 00
	00		 mov	 eax, DWORD PTR fs:__except_list
  00010	50		 push	 eax
  00011	64 89 25 00 00
	00 00		 mov	 DWORD PTR fs:__except_list, esp
  00018	83 ec 48	 sub	 esp, 72			; 00000048H
  0001b	56		 push	 esi
  0001c	57		 push	 edi
  0001d	51		 push	 ecx
  0001e	8d 7d ac	 lea	 edi, DWORD PTR [ebp-84]
  00021	b9 12 00 00 00	 mov	 ecx, 18			; 00000012H
  00026	b8 cc cc cc cc	 mov	 eax, -858993460		; ccccccccH
  0002b	f3 ab		 rep stosd
  0002d	59		 pop	 ecx
  0002e	89 4d f0	 mov	 DWORD PTR _this$[ebp], ecx

; 884  : 		_THROW(length_error, "vector<T> too long");

  00031	8b f4		 mov	 esi, esp
  00033	68 00 00 00 00	 push	 OFFSET FLAT:??_C@_0BD@OLBABOEK@vector?$DMT?$DO?5too?5long?$AA@
  00038	8d 4d ac	 lea	 ecx, DWORD PTR $T192996[ebp]
  0003b	ff 15 00 00 00
	00		 call	 DWORD PTR __imp_??0?$basic_string@DU?$char_traits@D@std@@V?$allocator@D@2@@std@@QAE@PBD@Z
  00041	3b f4		 cmp	 esi, esp
  00043	e8 00 00 00 00	 call	 __RTC_CheckEsp
  00048	c7 45 fc 00 00
	00 00		 mov	 DWORD PTR __$EHRec$[ebp+8], 0
  0004f	8d 45 ac	 lea	 eax, DWORD PTR $T192996[ebp]
  00052	50		 push	 eax
  00053	8d 4d c8	 lea	 ecx, DWORD PTR $T192995[ebp]
  00056	e8 00 00 00 00	 call	 ??0length_error@std@@QAE@ABV?$basic_string@DU?$char_traits@D@std@@V?$allocator@D@2@@1@@Z ; std::length_error::length_error
  0005b	68 00 00 00 00	 push	 OFFSET FLAT:__TI3?AVlength_error@std@@
  00060	8d 4d c8	 lea	 ecx, DWORD PTR $T192995[ebp]
  00063	51		 push	 ecx
  00064	e8 00 00 00 00	 call	 __CxxThrowException@8
$L192994:

; 885  : 		}

  00069	8b 4d f4	 mov	 ecx, DWORD PTR __$EHRec$[ebp]
  0006c	64 89 0d 00 00
	00 00		 mov	 DWORD PTR fs:__except_list, ecx
  00073	5f		 pop	 edi
  00074	5e		 pop	 esi
  00075	83 c4 54	 add	 esp, 84			; 00000054H
  00078	3b ec		 cmp	 ebp, esp
  0007a	e8 00 00 00 00	 call	 __RTC_CheckEsp
  0007f	8b e5		 mov	 esp, ebp
  00081	5d		 pop	 ebp
  00082	c3		 ret	 0
_TEXT	ENDS
;	COMDAT text$x
text$x	SEGMENT
$L192997:
  00000	8b f4		 mov	 esi, esp
  00002	8d 4d ac	 lea	 ecx, DWORD PTR $T192996[ebp]
  00005	ff 15 00 00 00
	00		 call	 DWORD PTR __imp_??1?$basic_string@DU?$char_traits@D@std@@V?$allocator@D@2@@std@@QAE@XZ
  0000b	3b f4		 cmp	 esi, esp
  0000d	e9 00 00 00 00	 jmp	 __RTC_CheckEsp
__ehhandler$?_Xlen@?$vector@HV?$allocator@H@std@@@std@@IBEXXZ:
  00012	b8 00 00 00 00	 mov	 eax, OFFSET FLAT:$T192999
  00017	e9 00 00 00 00	 jmp	 ___CxxFrameHandler
text$x	ENDS
?_Xlen@?$vector@HV?$allocator@H@std@@@std@@IBEXXZ ENDP	; std::vector<int,std::allocator<int> >::_Xlen
; Function compile flags: /Odt /RTCsu
; File d:\program files (x86)\microsoft visual studio .net 2003\vc7\include\xmemory
;	COMDAT ?deallocate@?$allocator@H@std@@QAEXPAHI@Z
_TEXT	SEGMENT
_this$ = -4						; size = 4
__Ptr$ = 8						; size = 4
___formal$ = 12						; size = 4
?deallocate@?$allocator@H@std@@QAEXPAHI@Z PROC NEAR	; std::allocator<int>::deallocate, COMDAT
; _this$ = ecx

; 131  : 		{	// deallocate object at _Ptr, ignore size

  00000	55		 push	 ebp
  00001	8b ec		 mov	 ebp, esp
  00003	51		 push	 ecx
  00004	c7 45 fc cc cc
	cc cc		 mov	 DWORD PTR [ebp-4], -858993460 ; ccccccccH
  0000b	89 4d fc	 mov	 DWORD PTR _this$[ebp], ecx

; 132  : 		operator delete(_Ptr);

  0000e	8b 45 08	 mov	 eax, DWORD PTR __Ptr$[ebp]
  00011	50		 push	 eax
  00012	e8 00 00 00 00	 call	 ??3@YAXPAX@Z		; operator delete
  00017	83 c4 04	 add	 esp, 4

; 133  : 		}

  0001a	83 c4 04	 add	 esp, 4
  0001d	3b ec		 cmp	 ebp, esp
  0001f	e8 00 00 00 00	 call	 __RTC_CheckEsp
  00024	8b e5		 mov	 esp, ebp
  00026	5d		 pop	 ebp
  00027	c2 08 00	 ret	 8
?deallocate@?$allocator@H@std@@QAEXPAHI@Z ENDP		; std::allocator<int>::deallocate
_TEXT	ENDS
PUBLIC	??$_Allocate@H@std@@YAPAHIPAH@Z			; std::_Allocate<int>
; Function compile flags: /Odt /RTCsu
;	COMDAT ?allocate@?$allocator@H@std@@QAEPAHI@Z
_TEXT	SEGMENT
_this$ = -4						; size = 4
__Count$ = 8						; size = 4
?allocate@?$allocator@H@std@@QAEPAHI@Z PROC NEAR	; std::allocator<int>::allocate, COMDAT
; _this$ = ecx

; 136  : 		{	// allocate array of _Count elements

  00000	55		 push	 ebp
  00001	8b ec		 mov	 ebp, esp
  00003	51		 push	 ecx
  00004	c7 45 fc cc cc
	cc cc		 mov	 DWORD PTR [ebp-4], -858993460 ; ccccccccH
  0000b	89 4d fc	 mov	 DWORD PTR _this$[ebp], ecx

; 137  : 		return (_Allocate(_Count, (pointer)0));

  0000e	6a 00		 push	 0
  00010	8b 45 08	 mov	 eax, DWORD PTR __Count$[ebp]
  00013	50		 push	 eax
  00014	e8 00 00 00 00	 call	 ??$_Allocate@H@std@@YAPAHIPAH@Z ; std::_Allocate<int>
  00019	83 c4 08	 add	 esp, 8

; 138  : 		}

  0001c	83 c4 04	 add	 esp, 4
  0001f	3b ec		 cmp	 ebp, esp
  00021	e8 00 00 00 00	 call	 __RTC_CheckEsp
  00026	8b e5		 mov	 esp, ebp
  00028	5d		 pop	 ebp
  00029	c2 04 00	 ret	 4
?allocate@?$allocator@H@std@@QAEPAHI@Z ENDP		; std::allocator<int>::allocate
; Function compile flags: /Odt /RTCsu
; File d:\program files (x86)\microsoft visual studio .net 2003\vc7\include\vector
_TEXT	ENDS
;	COMDAT ??Yiterator@?$vector@U_tagLMCItemInfo@@V?$allocator@U_tagLMCItemInfo@@@std@@@std@@QAEAAV012@H@Z
_TEXT	SEGMENT
_this$ = -4						; size = 4
__Off$ = 8						; size = 4
??Yiterator@?$vector@U_tagLMCItemInfo@@V?$allocator@U_tagLMCItemInfo@@@std@@@std@@QAEAAV012@H@Z PROC NEAR ; std::vector<_tagLMCItemInfo,std::allocator<_tagLMCItemInfo> >::iterator::operator+=, COMDAT
; _this$ = ecx

; 255  : 			{	// increment by integer

  00000	55		 push	 ebp
  00001	8b ec		 mov	 ebp, esp
  00003	51		 push	 ecx
  00004	c7 45 fc cc cc
	cc cc		 mov	 DWORD PTR [ebp-4], -858993460 ; ccccccccH
  0000b	89 4d fc	 mov	 DWORD PTR _this$[ebp], ecx

; 256  : 			this->_Myptr += _Off;

  0000e	8b 45 08	 mov	 eax, DWORD PTR __Off$[ebp]
  00011	6b c0 44	 imul	 eax, 68			; 00000044H
  00014	8b 4d fc	 mov	 ecx, DWORD PTR _this$[ebp]
  00017	03 01		 add	 eax, DWORD PTR [ecx]
  00019	8b 55 fc	 mov	 edx, DWORD PTR _this$[ebp]
  0001c	89 02		 mov	 DWORD PTR [edx], eax

; 257  : 			return (*this);

  0001e	8b 45 fc	 mov	 eax, DWORD PTR _this$[ebp]

; 258  : 			}

  00021	8b e5		 mov	 esp, ebp
  00023	5d		 pop	 ebp
  00024	c2 04 00	 ret	 4
??Yiterator@?$vector@U_tagLMCItemInfo@@V?$allocator@U_tagLMCItemInfo@@@std@@@std@@QAEAAV012@H@Z ENDP ; std::vector<_tagLMCItemInfo,std::allocator<_tagLMCItemInfo> >::iterator::operator+=
; Function compile flags: /Odt /RTCsu
_TEXT	ENDS
;	COMDAT ??0const_iterator@?$vector@U_tagLMCItemInfo@@V?$allocator@U_tagLMCItemInfo@@@std@@@std@@QAE@PAU_tagLMCItemInfo@@@Z
_TEXT	SEGMENT
_this$ = -4						; size = 4
__Ptr$ = 8						; size = 4
??0const_iterator@?$vector@U_tagLMCItemInfo@@V?$allocator@U_tagLMCItemInfo@@@std@@@std@@QAE@PAU_tagLMCItemInfo@@@Z PROC NEAR ; std::vector<_tagLMCItemInfo,std::allocator<_tagLMCItemInfo> >::const_iterator::const_iterator, COMDAT
; _this$ = ecx

; 73   : 		const_iterator(_Tptr _Ptr)

  00000	55		 push	 ebp
  00001	8b ec		 mov	 ebp, esp
  00003	51		 push	 ecx
  00004	c7 45 fc cc cc
	cc cc		 mov	 DWORD PTR [ebp-4], -858993460 ; ccccccccH
  0000b	89 4d fc	 mov	 DWORD PTR _this$[ebp], ecx

; 74   : 			{	// construct with pointer _Ptr
; 75   : 			_Myptr = _Ptr;

  0000e	8b 45 fc	 mov	 eax, DWORD PTR _this$[ebp]
  00011	8b 4d 08	 mov	 ecx, DWORD PTR __Ptr$[ebp]
  00014	89 08		 mov	 DWORD PTR [eax], ecx

; 76   : 			}

  00016	8b 45 fc	 mov	 eax, DWORD PTR _this$[ebp]
  00019	8b e5		 mov	 esp, ebp
  0001b	5d		 pop	 ebp
  0001c	c2 04 00	 ret	 4
??0const_iterator@?$vector@U_tagLMCItemInfo@@V?$allocator@U_tagLMCItemInfo@@@std@@@std@@QAE@PAU_tagLMCItemInfo@@@Z ENDP ; std::vector<_tagLMCItemInfo,std::allocator<_tagLMCItemInfo> >::const_iterator::const_iterator
; Function compile flags: /Odt /RTCsu
_TEXT	ENDS
;	COMDAT ??Dconst_iterator@?$vector@U_tagLMCItemInfo@@V?$allocator@U_tagLMCItemInfo@@@std@@@std@@QBEABU_tagLMCItemInfo@@XZ
_TEXT	SEGMENT
_this$ = -4						; size = 4
??Dconst_iterator@?$vector@U_tagLMCItemInfo@@V?$allocator@U_tagLMCItemInfo@@@std@@@std@@QBEABU_tagLMCItemInfo@@XZ PROC NEAR ; std::vector<_tagLMCItemInfo,std::allocator<_tagLMCItemInfo> >::const_iterator::operator*, COMDAT
; _this$ = ecx

; 79   : 			{	// return designated object

  00000	55		 push	 ebp
  00001	8b ec		 mov	 ebp, esp
  00003	51		 push	 ecx
  00004	c7 45 fc cc cc
	cc cc		 mov	 DWORD PTR [ebp-4], -858993460 ; ccccccccH
  0000b	89 4d fc	 mov	 DWORD PTR _this$[ebp], ecx

; 80   : 
; 81   : 
; 82   : 			return (*_Myptr);

  0000e	8b 45 fc	 mov	 eax, DWORD PTR _this$[ebp]
  00011	8b 00		 mov	 eax, DWORD PTR [eax]

; 83   : 			}

  00013	8b e5		 mov	 esp, ebp
  00015	5d		 pop	 ebp
  00016	c3		 ret	 0
??Dconst_iterator@?$vector@U_tagLMCItemInfo@@V?$allocator@U_tagLMCItemInfo@@@std@@@std@@QBEABU_tagLMCItemInfo@@XZ ENDP ; std::vector<_tagLMCItemInfo,std::allocator<_tagLMCItemInfo> >::const_iterator::operator*
; Function compile flags: /Odt /RTCsu
_TEXT	ENDS
;	COMDAT ??Yiterator@?$vector@HV?$allocator@H@std@@@std@@QAEAAV012@H@Z
_TEXT	SEGMENT
_this$ = -4						; size = 4
__Off$ = 8						; size = 4
??Yiterator@?$vector@HV?$allocator@H@std@@@std@@QAEAAV012@H@Z PROC NEAR ; std::vector<int,std::allocator<int> >::iterator::operator+=, COMDAT
; _this$ = ecx

; 255  : 			{	// increment by integer

  00000	55		 push	 ebp
  00001	8b ec		 mov	 ebp, esp
  00003	51		 push	 ecx
  00004	c7 45 fc cc cc
	cc cc		 mov	 DWORD PTR [ebp-4], -858993460 ; ccccccccH
  0000b	89 4d fc	 mov	 DWORD PTR _this$[ebp], ecx

; 256  : 			this->_Myptr += _Off;

  0000e	8b 45 fc	 mov	 eax, DWORD PTR _this$[ebp]
  00011	8b 08		 mov	 ecx, DWORD PTR [eax]
  00013	8b 55 08	 mov	 edx, DWORD PTR __Off$[ebp]
  00016	8d 04 91	 lea	 eax, DWORD PTR [ecx+edx*4]
  00019	8b 4d fc	 mov	 ecx, DWORD PTR _this$[ebp]
  0001c	89 01		 mov	 DWORD PTR [ecx], eax

; 257  : 			return (*this);

  0001e	8b 45 fc	 mov	 eax, DWORD PTR _this$[ebp]

; 258  : 			}

  00021	8b e5		 mov	 esp, ebp
  00023	5d		 pop	 ebp
  00024	c2 04 00	 ret	 4
??Yiterator@?$vector@HV?$allocator@H@std@@@std@@QAEAAV012@H@Z ENDP ; std::vector<int,std::allocator<int> >::iterator::operator+=
_TEXT	ENDS
PUBLIC	??Gconst_iterator@?$vector@HV?$allocator@H@std@@@std@@QBEHABV012@@Z ; std::vector<int,std::allocator<int> >::const_iterator::operator-
; Function compile flags: /Odt /RTCsu
;	COMDAT ??Giterator@?$vector@HV?$allocator@H@std@@@std@@QBEHABVconst_iterator@12@@Z
_TEXT	SEGMENT
$T193011 = -8						; size = 4
_this$ = -4						; size = 4
__Right$ = 8						; size = 4
??Giterator@?$vector@HV?$allocator@H@std@@@std@@QBEHABVconst_iterator@12@@Z PROC NEAR ; std::vector<int,std::allocator<int> >::iterator::operator-, COMDAT
; _this$ = ecx

; 278  : 			{	// return difference of iterators

  00000	55		 push	 ebp
  00001	8b ec		 mov	 ebp, esp
  00003	83 ec 08	 sub	 esp, 8
  00006	c7 45 f8 cc cc
	cc cc		 mov	 DWORD PTR [ebp-8], -858993460 ; ccccccccH
  0000d	c7 45 fc cc cc
	cc cc		 mov	 DWORD PTR [ebp-4], -858993460 ; ccccccccH
  00014	89 4d fc	 mov	 DWORD PTR _this$[ebp], ecx

; 279  : 			return ((const_iterator)*this - _Right);

  00017	8b 45 fc	 mov	 eax, DWORD PTR _this$[ebp]
  0001a	8b 08		 mov	 ecx, DWORD PTR [eax]
  0001c	89 4d f8	 mov	 DWORD PTR $T193011[ebp], ecx
  0001f	8b 55 08	 mov	 edx, DWORD PTR __Right$[ebp]
  00022	52		 push	 edx
  00023	8d 4d f8	 lea	 ecx, DWORD PTR $T193011[ebp]
  00026	e8 00 00 00 00	 call	 ??Gconst_iterator@?$vector@HV?$allocator@H@std@@@std@@QBEHABV012@@Z ; std::vector<int,std::allocator<int> >::const_iterator::operator-

; 280  : 			}

  0002b	83 c4 08	 add	 esp, 8
  0002e	3b ec		 cmp	 ebp, esp
  00030	e8 00 00 00 00	 call	 __RTC_CheckEsp
  00035	8b e5		 mov	 esp, ebp
  00037	5d		 pop	 ebp
  00038	c2 04 00	 ret	 4
??Giterator@?$vector@HV?$allocator@H@std@@@std@@QBEHABVconst_iterator@12@@Z ENDP ; std::vector<int,std::allocator<int> >::iterator::operator-
; Function compile flags: /Odt /RTCsu
_TEXT	ENDS
;	COMDAT ??0const_iterator@?$vector@HV?$allocator@H@std@@@std@@QAE@PAH@Z
_TEXT	SEGMENT
_this$ = -4						; size = 4
__Ptr$ = 8						; size = 4
??0const_iterator@?$vector@HV?$allocator@H@std@@@std@@QAE@PAH@Z PROC NEAR ; std::vector<int,std::allocator<int> >::const_iterator::const_iterator, COMDAT
; _this$ = ecx

; 73   : 		const_iterator(_Tptr _Ptr)

  00000	55		 push	 ebp
  00001	8b ec		 mov	 ebp, esp
  00003	51		 push	 ecx
  00004	c7 45 fc cc cc
	cc cc		 mov	 DWORD PTR [ebp-4], -858993460 ; ccccccccH
  0000b	89 4d fc	 mov	 DWORD PTR _this$[ebp], ecx

; 74   : 			{	// construct with pointer _Ptr
; 75   : 			_Myptr = _Ptr;

  0000e	8b 45 fc	 mov	 eax, DWORD PTR _this$[ebp]
  00011	8b 4d 08	 mov	 ecx, DWORD PTR __Ptr$[ebp]
  00014	89 08		 mov	 DWORD PTR [eax], ecx

; 76   : 			}

  00016	8b 45 fc	 mov	 eax, DWORD PTR _this$[ebp]
  00019	8b e5		 mov	 esp, ebp
  0001b	5d		 pop	 ebp
  0001c	c2 04 00	 ret	 4
??0const_iterator@?$vector@HV?$allocator@H@std@@@std@@QAE@PAH@Z ENDP ; std::vector<int,std::allocator<int> >::const_iterator::const_iterator
_TEXT	ENDS
PUBLIC	??0const_iterator@?$deque@VCPoint@@V?$allocator@VCPoint@@@std@@@std@@QAE@IPBV12@@Z ; std::deque<CPoint,std::allocator<CPoint> >::const_iterator::const_iterator
; Function compile flags: /Odt /RTCsu
; File d:\program files (x86)\microsoft visual studio .net 2003\vc7\include\deque
;	COMDAT ??0iterator@?$deque@VCPoint@@V?$allocator@VCPoint@@@std@@@std@@QAE@IPBV12@@Z
_TEXT	SEGMENT
_this$ = -4						; size = 4
__Off$ = 8						; size = 4
__Pdeque$ = 12						; size = 4
??0iterator@?$deque@VCPoint@@V?$allocator@VCPoint@@@std@@@std@@QAE@IPBV12@@Z PROC NEAR ; std::deque<CPoint,std::allocator<CPoint> >::iterator::iterator, COMDAT
; _this$ = ecx

; 242  : 			{	// construct with offset _Off in *_Pdeque

  00000	55		 push	 ebp
  00001	8b ec		 mov	 ebp, esp
  00003	51		 push	 ecx
  00004	c7 45 fc cc cc
	cc cc		 mov	 DWORD PTR [ebp-4], -858993460 ; ccccccccH
  0000b	89 4d fc	 mov	 DWORD PTR _this$[ebp], ecx
  0000e	8b 45 0c	 mov	 eax, DWORD PTR __Pdeque$[ebp]
  00011	50		 push	 eax
  00012	8b 4d 08	 mov	 ecx, DWORD PTR __Off$[ebp]
  00015	51		 push	 ecx
  00016	8b 4d fc	 mov	 ecx, DWORD PTR _this$[ebp]
  00019	e8 00 00 00 00	 call	 ??0const_iterator@?$deque@VCPoint@@V?$allocator@VCPoint@@@std@@@std@@QAE@IPBV12@@Z ; std::deque<CPoint,std::allocator<CPoint> >::const_iterator::const_iterator

; 243  : 			}

  0001e	8b 45 fc	 mov	 eax, DWORD PTR _this$[ebp]
  00021	83 c4 04	 add	 esp, 4
  00024	3b ec		 cmp	 ebp, esp
  00026	e8 00 00 00 00	 call	 __RTC_CheckEsp
  0002b	8b e5		 mov	 esp, ebp
  0002d	5d		 pop	 ebp
  0002e	c2 08 00	 ret	 8
??0iterator@?$deque@VCPoint@@V?$allocator@VCPoint@@@std@@@std@@QAE@IPBV12@@Z ENDP ; std::deque<CPoint,std::allocator<CPoint> >::iterator::iterator
; Function compile flags: /Odt /RTCsu
_TEXT	ENDS
;	COMDAT ??Dconst_iterator@?$deque@VCPoint@@V?$allocator@VCPoint@@@std@@@std@@QBEABVCPoint@@XZ
_TEXT	SEGMENT
__Off$ = -12						; size = 4
__Block$ = -8						; size = 4
_this$ = -4						; size = 4
??Dconst_iterator@?$deque@VCPoint@@V?$allocator@VCPoint@@@std@@@std@@QBEABVCPoint@@XZ PROC NEAR ; std::deque<CPoint,std::allocator<CPoint> >::const_iterator::operator*, COMDAT
; _this$ = ecx

; 108  : 			{	// return designated object

  00000	55		 push	 ebp
  00001	8b ec		 mov	 ebp, esp
  00003	83 ec 0c	 sub	 esp, 12			; 0000000cH
  00006	c7 45 f4 cc cc
	cc cc		 mov	 DWORD PTR [ebp-12], -858993460 ; ccccccccH
  0000d	c7 45 f8 cc cc
	cc cc		 mov	 DWORD PTR [ebp-8], -858993460 ; ccccccccH
  00014	c7 45 fc cc cc
	cc cc		 mov	 DWORD PTR [ebp-4], -858993460 ; ccccccccH
  0001b	89 4d fc	 mov	 DWORD PTR _this$[ebp], ecx

; 109  : 			size_type _Block = _Myoff / _DEQUESIZ;

  0001e	8b 45 fc	 mov	 eax, DWORD PTR _this$[ebp]
  00021	8b 48 04	 mov	 ecx, DWORD PTR [eax+4]
  00024	d1 e9		 shr	 ecx, 1
  00026	89 4d f8	 mov	 DWORD PTR __Block$[ebp], ecx

; 110  : 			size_type _Off = _Myoff - _Block * _DEQUESIZ;

  00029	8b 55 f8	 mov	 edx, DWORD PTR __Block$[ebp]
  0002c	d1 e2		 shl	 edx, 1
  0002e	8b 45 fc	 mov	 eax, DWORD PTR _this$[ebp]
  00031	8b 48 04	 mov	 ecx, DWORD PTR [eax+4]
  00034	2b ca		 sub	 ecx, edx
  00036	89 4d f4	 mov	 DWORD PTR __Off$[ebp], ecx

; 111  : 			if (_Mycont->_Mapsize <= _Block)

  00039	8b 55 fc	 mov	 edx, DWORD PTR _this$[ebp]
  0003c	8b 02		 mov	 eax, DWORD PTR [edx]
  0003e	8b 48 08	 mov	 ecx, DWORD PTR [eax+8]
  00041	3b 4d f8	 cmp	 ecx, DWORD PTR __Block$[ebp]
  00044	77 0e		 ja	 SHORT $L191305

; 112  : 				_Block -= _Mycont->_Mapsize;

  00046	8b 55 fc	 mov	 edx, DWORD PTR _this$[ebp]
  00049	8b 02		 mov	 eax, DWORD PTR [edx]
  0004b	8b 4d f8	 mov	 ecx, DWORD PTR __Block$[ebp]
  0004e	2b 48 08	 sub	 ecx, DWORD PTR [eax+8]
  00051	89 4d f8	 mov	 DWORD PTR __Block$[ebp], ecx
$L191305:

; 113  : 			return ((_Mycont->_Map)[_Block][_Off]);

  00054	8b 55 fc	 mov	 edx, DWORD PTR _this$[ebp]
  00057	8b 02		 mov	 eax, DWORD PTR [edx]
  00059	8b 48 04	 mov	 ecx, DWORD PTR [eax+4]
  0005c	8b 55 f8	 mov	 edx, DWORD PTR __Block$[ebp]
  0005f	8b 04 91	 mov	 eax, DWORD PTR [ecx+edx*4]
  00062	8b 4d f4	 mov	 ecx, DWORD PTR __Off$[ebp]
  00065	8d 04 c8	 lea	 eax, DWORD PTR [eax+ecx*8]

; 114  : 			}

  00068	8b e5		 mov	 esp, ebp
  0006a	5d		 pop	 ebp
  0006b	c3		 ret	 0
??Dconst_iterator@?$deque@VCPoint@@V?$allocator@VCPoint@@@std@@@std@@QBEABVCPoint@@XZ ENDP ; std::deque<CPoint,std::allocator<CPoint> >::const_iterator::operator*
_TEXT	ENDS
PUBLIC	??_R1A@?0A@A@exception@@8			; exception::`RTTI Base Class Descriptor at (0,-1,0,0)'
PUBLIC	??_R1A@?0A@A@logic_error@std@@8			; std::logic_error::`RTTI Base Class Descriptor at (0,-1,0,0)'
PUBLIC	??_R4length_error@std@@6B@			; std::length_error::`RTTI Complete Object Locator'
PUBLIC	??_R3length_error@std@@8			; std::length_error::`RTTI Class Hierarchy Descriptor'
PUBLIC	??_R2length_error@std@@8			; std::length_error::`RTTI Base Class Array'
PUBLIC	??_R1A@?0A@A@length_error@std@@8		; std::length_error::`RTTI Base Class Descriptor at (0,-1,0,0)'
PUBLIC	?what@logic_error@std@@UBEPBDXZ			; std::logic_error::what
PUBLIC	??_7length_error@std@@6B@			; std::length_error::`vftable'
PUBLIC	??_Glength_error@std@@UAEPAXI@Z			; std::length_error::`scalar deleting destructor'
EXTRN	??_Elength_error@std@@UAEPAXI@Z:NEAR		; std::length_error::`vector deleting destructor'
;	COMDAT ??_7length_error@std@@6B@
CONST	SEGMENT
??_7length_error@std@@6B@ DD FLAT:??_R4length_error@std@@6B@ ; std::length_error::`vftable'
	DD	FLAT:??_Elength_error@std@@UAEPAXI@Z
	DD	FLAT:?what@logic_error@std@@UBEPBDXZ
CONST	ENDS
;	COMDAT ??_R4length_error@std@@6B@
rdata$r	SEGMENT
??_R4length_error@std@@6B@ DD 00H			; std::length_error::`RTTI Complete Object Locator'
	DD	00H
	DD	00H
	DD	FLAT:??_R0?AVlength_error@std@@@8
	DD	FLAT:??_R3length_error@std@@8
rdata$r	ENDS
;	COMDAT ??_R3length_error@std@@8
rdata$r	SEGMENT
??_R3length_error@std@@8 DD 00H				; std::length_error::`RTTI Class Hierarchy Descriptor'
	DD	00H
	DD	03H
	DD	FLAT:??_R2length_error@std@@8
rdata$r	ENDS
;	COMDAT ??_R2length_error@std@@8
rdata$r	SEGMENT
??_R2length_error@std@@8 DD FLAT:??_R1A@?0A@A@length_error@std@@8 ; std::length_error::`RTTI Base Class Array'
	DD	FLAT:??_R1A@?0A@A@logic_error@std@@8
	DD	FLAT:??_R1A@?0A@A@exception@@8
rdata$r	ENDS
;	COMDAT ??_R1A@?0A@A@length_error@std@@8
rdata$r	SEGMENT
??_R1A@?0A@A@length_error@std@@8 DD FLAT:??_R0?AVlength_error@std@@@8 ; std::length_error::`RTTI Base Class Descriptor at (0,-1,0,0)'
	DD	02H
	DD	00H
	DD	0ffffffffH
	DD	00H
	DD	00H
rdata$r	ENDS
;	COMDAT ??_R1A@?0A@A@logic_error@std@@8
rdata$r	SEGMENT
??_R1A@?0A@A@logic_error@std@@8 DD FLAT:??_R0?AVlogic_error@std@@@8 ; std::logic_error::`RTTI Base Class Descriptor at (0,-1,0,0)'
	DD	01H
	DD	00H
	DD	0ffffffffH
	DD	00H
	DD	00H
rdata$r	ENDS
;	COMDAT ??_R1A@?0A@A@exception@@8
rdata$r	SEGMENT
??_R1A@?0A@A@exception@@8 DD FLAT:??_R0?AVexception@@@8	; exception::`RTTI Base Class Descriptor at (0,-1,0,0)'
	DD	00H
	DD	00H
	DD	0ffffffffH
	DD	00H
	DD	00H
; Function compile flags: /Odt /RTCsu
rdata$r	ENDS
;	COMDAT ??0length_error@std@@QAE@ABV01@@Z
_TEXT	SEGMENT
_this$ = -4						; size = 4
___that$ = 8						; size = 4
??0length_error@std@@QAE@ABV01@@Z PROC NEAR		; std::length_error::length_error, COMDAT
; _this$ = ecx
  00000	55		 push	 ebp
  00001	8b ec		 mov	 ebp, esp
  00003	51		 push	 ecx
  00004	c7 45 fc cc cc
	cc cc		 mov	 DWORD PTR [ebp-4], -858993460 ; ccccccccH
  0000b	89 4d fc	 mov	 DWORD PTR _this$[ebp], ecx
  0000e	8b 45 08	 mov	 eax, DWORD PTR ___that$[ebp]
  00011	50		 push	 eax
  00012	8b 4d fc	 mov	 ecx, DWORD PTR _this$[ebp]
  00015	e8 00 00 00 00	 call	 ??0logic_error@std@@QAE@ABV01@@Z
  0001a	8b 4d fc	 mov	 ecx, DWORD PTR _this$[ebp]
  0001d	c7 01 00 00 00
	00		 mov	 DWORD PTR [ecx], OFFSET FLAT:??_7length_error@std@@6B@
  00023	8b 45 fc	 mov	 eax, DWORD PTR _this$[ebp]
  00026	83 c4 04	 add	 esp, 4
  00029	3b ec		 cmp	 ebp, esp
  0002b	e8 00 00 00 00	 call	 __RTC_CheckEsp
  00030	8b e5		 mov	 esp, ebp
  00032	5d		 pop	 ebp
  00033	c2 04 00	 ret	 4
??0length_error@std@@QAE@ABV01@@Z ENDP			; std::length_error::length_error
; Function compile flags: /Odt /RTCsu
; File d:\program files (x86)\microsoft visual studio .net 2003\vc7\include\xmemory
_TEXT	ENDS
;	COMDAT ?max_size@?$allocator@VCPoint@@@std@@QBEIXZ
_TEXT	SEGMENT
tv65 = -12						; size = 4
__Count$ = -8						; size = 4
_this$ = -4						; size = 4
?max_size@?$allocator@VCPoint@@@std@@QBEIXZ PROC NEAR	; std::allocator<CPoint>::max_size, COMDAT
; _this$ = ecx

; 156  : 		{	// estimate maximum array size

  00000	55		 push	 ebp
  00001	8b ec		 mov	 ebp, esp
  00003	83 ec 0c	 sub	 esp, 12			; 0000000cH
  00006	c7 45 f4 cc cc
	cc cc		 mov	 DWORD PTR [ebp-12], -858993460 ; ccccccccH
  0000d	c7 45 f8 cc cc
	cc cc		 mov	 DWORD PTR [ebp-8], -858993460 ; ccccccccH
  00014	c7 45 fc cc cc
	cc cc		 mov	 DWORD PTR [ebp-4], -858993460 ; ccccccccH
  0001b	89 4d fc	 mov	 DWORD PTR _this$[ebp], ecx

; 157  : 		_SIZT _Count = (_SIZT)(-1) / sizeof (_Ty);

  0001e	c7 45 f8 ff ff
	ff 1f		 mov	 DWORD PTR __Count$[ebp], 536870911 ; 1fffffffH

; 158  : 		return (0 < _Count ? _Count : 1);

  00025	83 7d f8 00	 cmp	 DWORD PTR __Count$[ebp], 0
  00029	76 08		 jbe	 SHORT $L193018
  0002b	8b 45 f8	 mov	 eax, DWORD PTR __Count$[ebp]
  0002e	89 45 f4	 mov	 DWORD PTR tv65[ebp], eax
  00031	eb 07		 jmp	 SHORT $L193019
$L193018:
  00033	c7 45 f4 01 00
	00 00		 mov	 DWORD PTR tv65[ebp], 1
$L193019:
  0003a	8b 45 f4	 mov	 eax, DWORD PTR tv65[ebp]

; 159  : 		}

  0003d	8b e5		 mov	 esp, ebp
  0003f	5d		 pop	 ebp
  00040	c3		 ret	 0
?max_size@?$allocator@VCPoint@@@std@@QBEIXZ ENDP	; std::allocator<CPoint>::max_size
; Function compile flags: /Odt /RTCsu
_TEXT	ENDS
;	COMDAT ?max_size@?$allocator@H@std@@QBEIXZ
_TEXT	SEGMENT
tv65 = -12						; size = 4
__Count$ = -8						; size = 4
_this$ = -4						; size = 4
?max_size@?$allocator@H@std@@QBEIXZ PROC NEAR		; std::allocator<int>::max_size, COMDAT
; _this$ = ecx

; 156  : 		{	// estimate maximum array size

  00000	55		 push	 ebp
  00001	8b ec		 mov	 ebp, esp
  00003	83 ec 0c	 sub	 esp, 12			; 0000000cH
  00006	c7 45 f4 cc cc
	cc cc		 mov	 DWORD PTR [ebp-12], -858993460 ; ccccccccH
  0000d	c7 45 f8 cc cc
	cc cc		 mov	 DWORD PTR [ebp-8], -858993460 ; ccccccccH
  00014	c7 45 fc cc cc
	cc cc		 mov	 DWORD PTR [ebp-4], -858993460 ; ccccccccH
  0001b	89 4d fc	 mov	 DWORD PTR _this$[ebp], ecx

; 157  : 		_SIZT _Count = (_SIZT)(-1) / sizeof (_Ty);

  0001e	c7 45 f8 ff ff
	ff 3f		 mov	 DWORD PTR __Count$[ebp], 1073741823 ; 3fffffffH

; 158  : 		return (0 < _Count ? _Count : 1);

  00025	83 7d f8 00	 cmp	 DWORD PTR __Count$[ebp], 0
  00029	76 08		 jbe	 SHORT $L193021
  0002b	8b 45 f8	 mov	 eax, DWORD PTR __Count$[ebp]
  0002e	89 45 f4	 mov	 DWORD PTR tv65[ebp], eax
  00031	eb 07		 jmp	 SHORT $L193022
$L193021:
  00033	c7 45 f4 01 00
	00 00		 mov	 DWORD PTR tv65[ebp], 1
$L193022:
  0003a	8b 45 f4	 mov	 eax, DWORD PTR tv65[ebp]

; 159  : 		}

  0003d	8b e5		 mov	 esp, ebp
  0003f	5d		 pop	 ebp
  00040	c3		 ret	 0
?max_size@?$allocator@H@std@@QBEIXZ ENDP		; std::allocator<int>::max_size
; Function compile flags: /Odt /RTCsu
; File d:\program files (x86)\microsoft visual studio .net 2003\vc7\include\vector
_TEXT	ENDS
;	COMDAT ??Gconst_iterator@?$vector@HV?$allocator@H@std@@@std@@QBEHABV012@@Z
_TEXT	SEGMENT
_this$ = -4						; size = 4
__Right$ = 8						; size = 4
??Gconst_iterator@?$vector@HV?$allocator@H@std@@@std@@QBEHABV012@@Z PROC NEAR ; std::vector<int,std::allocator<int> >::const_iterator::operator-, COMDAT
; _this$ = ecx

; 140  : 			{	// return difference of iterators

  00000	55		 push	 ebp
  00001	8b ec		 mov	 ebp, esp
  00003	51		 push	 ecx
  00004	c7 45 fc cc cc
	cc cc		 mov	 DWORD PTR [ebp-4], -858993460 ; ccccccccH
  0000b	89 4d fc	 mov	 DWORD PTR _this$[ebp], ecx

; 141  : 
; 142  : 
; 143  : 			return (_Myptr - _Right._Myptr);

  0000e	8b 45 fc	 mov	 eax, DWORD PTR _this$[ebp]
  00011	8b 4d 08	 mov	 ecx, DWORD PTR __Right$[ebp]
  00014	8b 00		 mov	 eax, DWORD PTR [eax]
  00016	2b 01		 sub	 eax, DWORD PTR [ecx]
  00018	c1 f8 02	 sar	 eax, 2

; 144  : 			}

  0001b	8b e5		 mov	 esp, ebp
  0001d	5d		 pop	 ebp
  0001e	c2 04 00	 ret	 4
??Gconst_iterator@?$vector@HV?$allocator@H@std@@@std@@QBEHABV012@@Z ENDP ; std::vector<int,std::allocator<int> >::const_iterator::operator-
; Function compile flags: /Odt /RTCsu
; File d:\program files (x86)\microsoft visual studio .net 2003\vc7\include\deque
_TEXT	ENDS
;	COMDAT ??0const_iterator@?$deque@VCPoint@@V?$allocator@VCPoint@@@std@@@std@@QAE@IPBV12@@Z
_TEXT	SEGMENT
_this$ = -4						; size = 4
__Off$ = 8						; size = 4
__Pdeque$ = 12						; size = 4
??0const_iterator@?$deque@VCPoint@@V?$allocator@VCPoint@@@std@@@std@@QAE@IPBV12@@Z PROC NEAR ; std::deque<CPoint,std::allocator<CPoint> >::const_iterator::const_iterator, COMDAT
; _this$ = ecx

; 101  : 		const_iterator(size_type _Off, const _Myt *_Pdeque)

  00000	55		 push	 ebp
  00001	8b ec		 mov	 ebp, esp
  00003	51		 push	 ecx
  00004	c7 45 fc cc cc
	cc cc		 mov	 DWORD PTR [ebp-4], -858993460 ; ccccccccH
  0000b	89 4d fc	 mov	 DWORD PTR _this$[ebp], ecx

; 102  : 			{	// construct with offset _Off in *_Pdeque
; 103  : 			_Mycont = _Pdeque;

  0000e	8b 45 fc	 mov	 eax, DWORD PTR _this$[ebp]
  00011	8b 4d 0c	 mov	 ecx, DWORD PTR __Pdeque$[ebp]
  00014	89 08		 mov	 DWORD PTR [eax], ecx

; 104  : 			_Myoff = _Off;

  00016	8b 55 fc	 mov	 edx, DWORD PTR _this$[ebp]
  00019	8b 45 08	 mov	 eax, DWORD PTR __Off$[ebp]
  0001c	89 42 04	 mov	 DWORD PTR [edx+4], eax

; 105  : 			}

  0001f	8b 45 fc	 mov	 eax, DWORD PTR _this$[ebp]
  00022	8b e5		 mov	 esp, ebp
  00024	5d		 pop	 ebp
  00025	c2 08 00	 ret	 8
??0const_iterator@?$deque@VCPoint@@V?$allocator@VCPoint@@@std@@@std@@QAE@IPBV12@@Z ENDP ; std::deque<CPoint,std::allocator<CPoint> >::const_iterator::const_iterator
_TEXT	ENDS
PUBLIC	??Eiterator@?$vector@HV?$allocator@H@std@@@std@@QAEAAV012@XZ ; std::vector<int,std::allocator<int> >::iterator::operator++
; Function compile flags: /Odt /RTCsu
; File d:\program files (x86)\microsoft visual studio .net 2003\vc7\include\algorithm
;	COMDAT ??$find@Viterator@?$vector@HV?$allocator@H@std@@@std@@H@std@@YA?AViterator@?$vector@HV?$allocator@H@std@@@0@V120@0ABH@Z
_TEXT	SEGMENT
___$ReturnUdt$ = 8					; size = 4
__First$ = 12						; size = 4
__Last$ = 16						; size = 4
__Val$ = 20						; size = 4
??$find@Viterator@?$vector@HV?$allocator@H@std@@@std@@H@std@@YA?AViterator@?$vector@HV?$allocator@H@std@@@0@V120@0ABH@Z PROC NEAR ; std::find<std::vector<int,std::allocator<int> >::iterator,int>, COMDAT

; 29   : 	{	// find first matching _Val

  00000	55		 push	 ebp
  00001	8b ec		 mov	 ebp, esp

; 30   : 	for (; _First != _Last; ++_First)

  00003	eb 08		 jmp	 SHORT $L191334
$L191335:
  00005	8d 4d 0c	 lea	 ecx, DWORD PTR __First$[ebp]
  00008	e8 00 00 00 00	 call	 ??Eiterator@?$vector@HV?$allocator@H@std@@@std@@QAEAAV012@XZ ; std::vector<int,std::allocator<int> >::iterator::operator++
$L191334:
  0000d	8d 45 10	 lea	 eax, DWORD PTR __Last$[ebp]
  00010	50		 push	 eax
  00011	8d 4d 0c	 lea	 ecx, DWORD PTR __First$[ebp]
  00014	e8 00 00 00 00	 call	 ??9const_iterator@?$vector@HV?$allocator@H@std@@@std@@QBE_NABV012@@Z ; std::vector<int,std::allocator<int> >::const_iterator::operator!=
  00019	0f b6 c8	 movzx	 ecx, al
  0001c	85 c9		 test	 ecx, ecx
  0001e	74 15		 je	 SHORT $L191336

; 31   : 		if (*_First == _Val)

  00020	8d 4d 0c	 lea	 ecx, DWORD PTR __First$[ebp]
  00023	e8 00 00 00 00	 call	 ??Diterator@?$vector@HV?$allocator@H@std@@@std@@QBEAAHXZ ; std::vector<int,std::allocator<int> >::iterator::operator*
  00028	8b 55 14	 mov	 edx, DWORD PTR __Val$[ebp]
  0002b	8b 00		 mov	 eax, DWORD PTR [eax]
  0002d	3b 02		 cmp	 eax, DWORD PTR [edx]
  0002f	75 02		 jne	 SHORT $L191337

; 32   : 			break;

  00031	eb 02		 jmp	 SHORT $L191336
$L191337:

; 33   : 	return (_First);

  00033	eb d0		 jmp	 SHORT $L191335
$L191336:
  00035	8b 4d 08	 mov	 ecx, DWORD PTR ___$ReturnUdt$[ebp]
  00038	8b 55 0c	 mov	 edx, DWORD PTR __First$[ebp]
  0003b	89 11		 mov	 DWORD PTR [ecx], edx
  0003d	8b 45 08	 mov	 eax, DWORD PTR ___$ReturnUdt$[ebp]

; 34   : 	}

  00040	3b ec		 cmp	 ebp, esp
  00042	e8 00 00 00 00	 call	 __RTC_CheckEsp
  00047	5d		 pop	 ebp
  00048	c3		 ret	 0
??$find@Viterator@?$vector@HV?$allocator@H@std@@@std@@H@std@@YA?AViterator@?$vector@HV?$allocator@H@std@@@0@V120@0ABH@Z ENDP ; std::find<std::vector<int,std::allocator<int> >::iterator,int>
_TEXT	ENDS
PUBLIC	??$_Uninitialized_copy@Vconst_iterator@?$vector@HV?$allocator@H@std@@@std@@PAHV?$allocator@H@3@@std@@YAPAHVconst_iterator@?$vector@HV?$allocator@H@std@@@0@0PAHAAV?$allocator@H@0@@Z ; std::_Uninitialized_copy<std::vector<int,std::allocator<int> >::const_iterator,int *,std::allocator<int> >
; Function compile flags: /Odt /RTCsu
; File d:\program files (x86)\microsoft visual studio .net 2003\vc7\include\vector
;	COMDAT ??$_Ucopy@Vconst_iterator@?$vector@HV?$allocator@H@std@@@std@@@?$vector@HV?$allocator@H@std@@@std@@IAEPAHVconst_iterator@01@0PAH@Z
_TEXT	SEGMENT
_this$ = -4						; size = 4
__First$ = 8						; size = 4
__Last$ = 12						; size = 4
__Ptr$ = 16						; size = 4
??$_Ucopy@Vconst_iterator@?$vector@HV?$allocator@H@std@@@std@@@?$vector@HV?$allocator@H@std@@@std@@IAEPAHVconst_iterator@01@0PAH@Z PROC NEAR ; std::vector<int,std::allocator<int> >::_Ucopy<std::vector<int,std::allocator<int> >::const_iterator>, COMDAT
; _this$ = ecx

; 801  : 		pointer _Ucopy(_Iter _First, _Iter _Last, pointer _Ptr)

  00000	55		 push	 ebp
  00001	8b ec		 mov	 ebp, esp
  00003	51		 push	 ecx
  00004	c7 45 fc cc cc
	cc cc		 mov	 DWORD PTR [ebp-4], -858993460 ; ccccccccH
  0000b	89 4d fc	 mov	 DWORD PTR _this$[ebp], ecx

; 802  : 		{	// copy initializing [_First, _Last), using allocator
; 803  : 		return (_Uninitialized_copy(_First, _Last,
; 804  : 			_Ptr, this->_Alval));

  0000e	8b 45 fc	 mov	 eax, DWORD PTR _this$[ebp]
  00011	50		 push	 eax
  00012	8b 4d 10	 mov	 ecx, DWORD PTR __Ptr$[ebp]
  00015	51		 push	 ecx
  00016	8b 55 0c	 mov	 edx, DWORD PTR __Last$[ebp]
  00019	52		 push	 edx
  0001a	8b 45 08	 mov	 eax, DWORD PTR __First$[ebp]
  0001d	50		 push	 eax
  0001e	e8 00 00 00 00	 call	 ??$_Uninitialized_copy@Vconst_iterator@?$vector@HV?$allocator@H@std@@@std@@PAHV?$allocator@H@3@@std@@YAPAHVconst_iterator@?$vector@HV?$allocator@H@std@@@0@0PAHAAV?$allocator@H@0@@Z ; std::_Uninitialized_copy<std::vector<int,std::allocator<int> >::const_iterator,int *,std::allocator<int> >
  00023	83 c4 10	 add	 esp, 16			; 00000010H

; 805  : 		}

  00026	83 c4 04	 add	 esp, 4
  00029	3b ec		 cmp	 ebp, esp
  0002b	e8 00 00 00 00	 call	 __RTC_CheckEsp
  00030	8b e5		 mov	 esp, ebp
  00032	5d		 pop	 ebp
  00033	c2 0c 00	 ret	 12			; 0000000cH
??$_Ucopy@Vconst_iterator@?$vector@HV?$allocator@H@std@@@std@@@?$vector@HV?$allocator@H@std@@@std@@IAEPAHVconst_iterator@01@0PAH@Z ENDP ; std::vector<int,std::allocator<int> >::_Ucopy<std::vector<int,std::allocator<int> >::const_iterator>
_TEXT	ENDS
PUBLIC	??$_Ptr_cat@VCPoint@@@std@@YA?AU_Scalar_ptr_iterator_tag@0@PAPAVCPoint@@0@Z ; std::_Ptr_cat<CPoint>
PUBLIC	??$_Uninit_copy@PAVCPoint@@PAV1@@std@@YAPAPAVCPoint@@PAPAV1@00AAV?$allocator@PAVCPoint@@@0@U_Scalar_ptr_iterator_tag@0@@Z ; std::_Uninit_copy<CPoint *,CPoint *>
; Function compile flags: /Odt /RTCsu
; File d:\program files (x86)\microsoft visual studio .net 2003\vc7\include\memory
;	COMDAT ??$_Uninitialized_copy@PAPAVCPoint@@PAPAV1@V?$allocator@PAVCPoint@@@std@@@std@@YAPAPAVCPoint@@PAPAV1@00AAV?$allocator@PAVCPoint@@@0@@Z
_TEXT	SEGMENT
$T193028 = -1						; size = 1
__First$ = 8						; size = 4
__Last$ = 12						; size = 4
__Dest$ = 16						; size = 4
__Al$ = 20						; size = 4
??$_Uninitialized_copy@PAPAVCPoint@@PAPAV1@V?$allocator@PAVCPoint@@@std@@@std@@YAPAPAVCPoint@@PAPAV1@00AAV?$allocator@PAVCPoint@@@0@@Z PROC NEAR ; std::_Uninitialized_copy<CPoint * *,CPoint * *,std::allocator<CPoint *> >, COMDAT

; 126  : 	{	// copy [_First, _Last) to raw _Dest, using _Al

  00000	55		 push	 ebp
  00001	8b ec		 mov	 ebp, esp
  00003	51		 push	 ecx
  00004	c7 45 fc cc cc
	cc cc		 mov	 DWORD PTR [ebp-4], -858993460 ; ccccccccH

; 127  : 	return (_Uninit_copy(_First, _Last, _Dest, _Al,
; 128  : 		_Ptr_cat(_First, _Dest)));

  0000b	8b 45 10	 mov	 eax, DWORD PTR __Dest$[ebp]
  0000e	50		 push	 eax
  0000f	8b 4d 08	 mov	 ecx, DWORD PTR __First$[ebp]
  00012	51		 push	 ecx
  00013	e8 00 00 00 00	 call	 ??$_Ptr_cat@VCPoint@@@std@@YA?AU_Scalar_ptr_iterator_tag@0@PAPAVCPoint@@0@Z ; std::_Ptr_cat<CPoint>
  00018	83 c4 08	 add	 esp, 8
  0001b	88 45 ff	 mov	 BYTE PTR $T193028[ebp], al
  0001e	8a 55 ff	 mov	 dl, BYTE PTR $T193028[ebp]
  00021	52		 push	 edx
  00022	8b 45 14	 mov	 eax, DWORD PTR __Al$[ebp]
  00025	50		 push	 eax
  00026	8b 4d 10	 mov	 ecx, DWORD PTR __Dest$[ebp]
  00029	51		 push	 ecx
  0002a	8b 55 0c	 mov	 edx, DWORD PTR __Last$[ebp]
  0002d	52		 push	 edx
  0002e	8b 45 08	 mov	 eax, DWORD PTR __First$[ebp]
  00031	50		 push	 eax
  00032	e8 00 00 00 00	 call	 ??$_Uninit_copy@PAVCPoint@@PAV1@@std@@YAPAPAVCPoint@@PAPAV1@00AAV?$allocator@PAVCPoint@@@0@U_Scalar_ptr_iterator_tag@0@@Z ; std::_Uninit_copy<CPoint *,CPoint *>
  00037	83 c4 14	 add	 esp, 20			; 00000014H

; 129  : 	}

  0003a	83 c4 04	 add	 esp, 4
  0003d	3b ec		 cmp	 ebp, esp
  0003f	e8 00 00 00 00	 call	 __RTC_CheckEsp
  00044	8b e5		 mov	 esp, ebp
  00046	5d		 pop	 ebp
  00047	c3		 ret	 0
??$_Uninitialized_copy@PAPAVCPoint@@PAPAV1@V?$allocator@PAVCPoint@@@std@@@std@@YAPAPAVCPoint@@PAPAV1@00AAV?$allocator@PAVCPoint@@@0@@Z ENDP ; std::_Uninitialized_copy<CPoint * *,CPoint * *,std::allocator<CPoint *> >
_TEXT	ENDS
PUBLIC	??$_Uninit_fill_n@PAVCPoint@@IPAV1@@std@@YAXPAPAVCPoint@@IABQAV1@AAV?$allocator@PAVCPoint@@@0@U_Scalar_ptr_iterator_tag@0@@Z ; std::_Uninit_fill_n<CPoint *,unsigned int,CPoint *>
; Function compile flags: /Odt /RTCsu
;	COMDAT ??$_Uninitialized_fill_n@PAPAVCPoint@@IPAV1@V?$allocator@PAVCPoint@@@std@@@std@@YAXPAPAVCPoint@@IABQAV1@AAV?$allocator@PAVCPoint@@@0@@Z
_TEXT	SEGMENT
$T193030 = -1						; size = 1
__First$ = 8						; size = 4
__Count$ = 12						; size = 4
__Val$ = 16						; size = 4
__Al$ = 20						; size = 4
??$_Uninitialized_fill_n@PAPAVCPoint@@IPAV1@V?$allocator@PAVCPoint@@@std@@@std@@YAXPAPAVCPoint@@IABQAV1@AAV?$allocator@PAVCPoint@@@0@@Z PROC NEAR ; std::_Uninitialized_fill_n<CPoint * *,unsigned int,CPoint *,std::allocator<CPoint *> >, COMDAT

; 255  : 	{	// copy _Count *_Val to raw _First, using _Al

  00000	55		 push	 ebp
  00001	8b ec		 mov	 ebp, esp
  00003	51		 push	 ecx
  00004	c7 45 fc cc cc
	cc cc		 mov	 DWORD PTR [ebp-4], -858993460 ; ccccccccH

; 256  : 	_Uninit_fill_n(_First, _Count, _Val, _Al,
; 257  : 		_Ptr_cat(_First, _First));

  0000b	8b 45 08	 mov	 eax, DWORD PTR __First$[ebp]
  0000e	50		 push	 eax
  0000f	8b 4d 08	 mov	 ecx, DWORD PTR __First$[ebp]
  00012	51		 push	 ecx
  00013	e8 00 00 00 00	 call	 ??$_Ptr_cat@VCPoint@@@std@@YA?AU_Scalar_ptr_iterator_tag@0@PAPAVCPoint@@0@Z ; std::_Ptr_cat<CPoint>
  00018	83 c4 08	 add	 esp, 8
  0001b	88 45 ff	 mov	 BYTE PTR $T193030[ebp], al
  0001e	8a 55 ff	 mov	 dl, BYTE PTR $T193030[ebp]
  00021	52		 push	 edx
  00022	8b 45 14	 mov	 eax, DWORD PTR __Al$[ebp]
  00025	50		 push	 eax
  00026	8b 4d 10	 mov	 ecx, DWORD PTR __Val$[ebp]
  00029	51		 push	 ecx
  0002a	8b 55 0c	 mov	 edx, DWORD PTR __Count$[ebp]
  0002d	52		 push	 edx
  0002e	8b 45 08	 mov	 eax, DWORD PTR __First$[ebp]
  00031	50		 push	 eax
  00032	e8 00 00 00 00	 call	 ??$_Uninit_fill_n@PAVCPoint@@IPAV1@@std@@YAXPAPAVCPoint@@IABQAV1@AAV?$allocator@PAVCPoint@@@0@U_Scalar_ptr_iterator_tag@0@@Z ; std::_Uninit_fill_n<CPoint *,unsigned int,CPoint *>
  00037	83 c4 14	 add	 esp, 20			; 00000014H

; 258  : 	}

  0003a	83 c4 04	 add	 esp, 4
  0003d	3b ec		 cmp	 ebp, esp
  0003f	e8 00 00 00 00	 call	 __RTC_CheckEsp
  00044	8b e5		 mov	 esp, ebp
  00046	5d		 pop	 ebp
  00047	c3		 ret	 0
??$_Uninitialized_fill_n@PAPAVCPoint@@IPAV1@V?$allocator@PAVCPoint@@@std@@@std@@YAXPAPAVCPoint@@IABQAV1@AAV?$allocator@PAVCPoint@@@0@@Z ENDP ; std::_Uninitialized_fill_n<CPoint * *,unsigned int,CPoint *,std::allocator<CPoint *> >
_TEXT	ENDS
PUBLIC	??$_Destroy_range@PAVCPoint@@V?$allocator@PAVCPoint@@@std@@@std@@YAXPAPAVCPoint@@0AAV?$allocator@PAVCPoint@@@0@U_Scalar_ptr_iterator_tag@0@@Z ; std::_Destroy_range<CPoint *,std::allocator<CPoint *> >
; Function compile flags: /Odt /RTCsu
; File d:\program files (x86)\microsoft visual studio .net 2003\vc7\include\xmemory
;	COMDAT ??$_Destroy_range@PAVCPoint@@V?$allocator@PAVCPoint@@@std@@@std@@YAXPAPAVCPoint@@0AAV?$allocator@PAVCPoint@@@0@@Z
_TEXT	SEGMENT
$T193032 = -1						; size = 1
__First$ = 8						; size = 4
__Last$ = 12						; size = 4
__Al$ = 16						; size = 4
??$_Destroy_range@PAVCPoint@@V?$allocator@PAVCPoint@@@std@@@std@@YAXPAPAVCPoint@@0AAV?$allocator@PAVCPoint@@@0@@Z PROC NEAR ; std::_Destroy_range<CPoint *,std::allocator<CPoint *> >, COMDAT

; 216  : 	{	// destroy [_First, _Last)

  00000	55		 push	 ebp
  00001	8b ec		 mov	 ebp, esp
  00003	51		 push	 ecx
  00004	c7 45 fc cc cc
	cc cc		 mov	 DWORD PTR [ebp-4], -858993460 ; ccccccccH

; 217  : 	_Destroy_range(_First, _Last, _Al, _Ptr_cat(_First, _Last));

  0000b	8b 45 0c	 mov	 eax, DWORD PTR __Last$[ebp]
  0000e	50		 push	 eax
  0000f	8b 4d 08	 mov	 ecx, DWORD PTR __First$[ebp]
  00012	51		 push	 ecx
  00013	e8 00 00 00 00	 call	 ??$_Ptr_cat@VCPoint@@@std@@YA?AU_Scalar_ptr_iterator_tag@0@PAPAVCPoint@@0@Z ; std::_Ptr_cat<CPoint>
  00018	83 c4 08	 add	 esp, 8
  0001b	88 45 ff	 mov	 BYTE PTR $T193032[ebp], al
  0001e	8a 55 ff	 mov	 dl, BYTE PTR $T193032[ebp]
  00021	52		 push	 edx
  00022	8b 45 10	 mov	 eax, DWORD PTR __Al$[ebp]
  00025	50		 push	 eax
  00026	8b 4d 0c	 mov	 ecx, DWORD PTR __Last$[ebp]
  00029	51		 push	 ecx
  0002a	8b 55 08	 mov	 edx, DWORD PTR __First$[ebp]
  0002d	52		 push	 edx
  0002e	e8 00 00 00 00	 call	 ??$_Destroy_range@PAVCPoint@@V?$allocator@PAVCPoint@@@std@@@std@@YAXPAPAVCPoint@@0AAV?$allocator@PAVCPoint@@@0@U_Scalar_ptr_iterator_tag@0@@Z ; std::_Destroy_range<CPoint *,std::allocator<CPoint *> >
  00033	83 c4 10	 add	 esp, 16			; 00000010H

; 218  : 	}

  00036	83 c4 04	 add	 esp, 4
  00039	3b ec		 cmp	 ebp, esp
  0003b	e8 00 00 00 00	 call	 __RTC_CheckEsp
  00040	8b e5		 mov	 esp, ebp
  00042	5d		 pop	 ebp
  00043	c3		 ret	 0
??$_Destroy_range@PAVCPoint@@V?$allocator@PAVCPoint@@@std@@@std@@YAXPAPAVCPoint@@0AAV?$allocator@PAVCPoint@@@0@@Z ENDP ; std::_Destroy_range<CPoint *,std::allocator<CPoint *> >
_TEXT	ENDS
EXTRN	??2@YAPAXI@Z:NEAR				; operator new
; Function compile flags: /Odt /RTCsu
;	COMDAT ??$_Allocate@VCPoint@@@std@@YAPAVCPoint@@IPAV1@@Z
_TEXT	SEGMENT
__Count$ = 8						; size = 4
___formal$ = 12						; size = 4
??$_Allocate@VCPoint@@@std@@YAPAVCPoint@@IPAV1@@Z PROC NEAR ; std::_Allocate<CPoint>, COMDAT

; 33   : 	{	// allocate storage for _Count elements of type _Ty

  00000	55		 push	 ebp
  00001	8b ec		 mov	 ebp, esp

; 34   : 	return ((_Ty _FARQ *)operator new(_Count * sizeof (_Ty)));

  00003	8b 45 08	 mov	 eax, DWORD PTR __Count$[ebp]
  00006	c1 e0 03	 shl	 eax, 3
  00009	50		 push	 eax
  0000a	e8 00 00 00 00	 call	 ??2@YAPAXI@Z		; operator new
  0000f	83 c4 04	 add	 esp, 4

; 35   : 	}

  00012	3b ec		 cmp	 ebp, esp
  00014	e8 00 00 00 00	 call	 __RTC_CheckEsp
  00019	5d		 pop	 ebp
  0001a	c3		 ret	 0
??$_Allocate@VCPoint@@@std@@YAPAVCPoint@@IPAV1@@Z ENDP	; std::_Allocate<CPoint>
_TEXT	ENDS
PUBLIC	??2@YAPAXIPAX@Z					; operator new
; Function compile flags: /Odt /RTCsu
;	COMDAT ??$_Construct@VCPoint@@V1@@std@@YAXPAVCPoint@@ABV1@@Z
_TEXT	SEGMENT
tv69 = -8						; size = 4
$T193035 = -4						; size = 4
__Ptr$ = 8						; size = 4
__Val$ = 12						; size = 4
??$_Construct@VCPoint@@V1@@std@@YAXPAVCPoint@@ABV1@@Z PROC NEAR ; std::_Construct<CPoint,CPoint>, COMDAT

; 41   : 	{	// construct object at _Ptr with value _Val

  00000	55		 push	 ebp
  00001	8b ec		 mov	 ebp, esp
  00003	83 ec 08	 sub	 esp, 8
  00006	c7 45 f8 cc cc
	cc cc		 mov	 DWORD PTR [ebp-8], -858993460 ; ccccccccH
  0000d	c7 45 fc cc cc
	cc cc		 mov	 DWORD PTR [ebp-4], -858993460 ; ccccccccH

; 42   : 	new ((void _FARQ *)_Ptr) _T1(_Val);

  00014	8b 45 08	 mov	 eax, DWORD PTR __Ptr$[ebp]
  00017	50		 push	 eax
  00018	6a 08		 push	 8
  0001a	e8 00 00 00 00	 call	 ??2@YAPAXIPAX@Z		; operator new
  0001f	83 c4 08	 add	 esp, 8
  00022	89 45 fc	 mov	 DWORD PTR $T193035[ebp], eax
  00025	83 7d fc 00	 cmp	 DWORD PTR $T193035[ebp], 0
  00029	74 18		 je	 SHORT $L193036
  0002b	8b 4d 0c	 mov	 ecx, DWORD PTR __Val$[ebp]
  0002e	8b 11		 mov	 edx, DWORD PTR [ecx]
  00030	8b 41 04	 mov	 eax, DWORD PTR [ecx+4]
  00033	8b 4d fc	 mov	 ecx, DWORD PTR $T193035[ebp]
  00036	89 11		 mov	 DWORD PTR [ecx], edx
  00038	89 41 04	 mov	 DWORD PTR [ecx+4], eax
  0003b	8b 55 fc	 mov	 edx, DWORD PTR $T193035[ebp]
  0003e	89 55 f8	 mov	 DWORD PTR tv69[ebp], edx
  00041	eb 07		 jmp	 SHORT $L191531
$L193036:
  00043	c7 45 f8 00 00
	00 00		 mov	 DWORD PTR tv69[ebp], 0
$L191531:

; 43   : 	}

  0004a	83 c4 08	 add	 esp, 8
  0004d	3b ec		 cmp	 ebp, esp
  0004f	e8 00 00 00 00	 call	 __RTC_CheckEsp
  00054	8b e5		 mov	 esp, ebp
  00056	5d		 pop	 ebp
  00057	c3		 ret	 0
??$_Construct@VCPoint@@V1@@std@@YAXPAVCPoint@@ABV1@@Z ENDP ; std::_Construct<CPoint,CPoint>
; Function compile flags: /Odt /RTCsu
; File d:\program files (x86)\microsoft visual studio .net 2003\vc7\include\new.h
_TEXT	ENDS
;	COMDAT ??2@YAPAXIPAX@Z
_TEXT	SEGMENT
___formal$ = 8						; size = 4
__P$ = 12						; size = 4
??2@YAPAXIPAX@Z PROC NEAR				; operator new, COMDAT

; 109  :         {return (_P); }

  00000	55		 push	 ebp
  00001	8b ec		 mov	 ebp, esp
  00003	8b 45 0c	 mov	 eax, DWORD PTR __P$[ebp]
  00006	5d		 pop	 ebp
  00007	c3		 ret	 0
??2@YAPAXIPAX@Z ENDP					; operator new
; Function compile flags: /Odt /RTCsu
; File d:\program files (x86)\microsoft visual studio .net 2003\vc7\include\xmemory
_TEXT	ENDS
;	COMDAT ??$_Destroy@VCPoint@@@std@@YAXPAVCPoint@@@Z
_TEXT	SEGMENT
__Ptr$ = 8						; size = 4
??$_Destroy@VCPoint@@@std@@YAXPAVCPoint@@@Z PROC NEAR	; std::_Destroy<CPoint>, COMDAT

; 48   : 	{	// destroy object at _Ptr

  00000	55		 push	 ebp
  00001	8b ec		 mov	 ebp, esp

; 49   : 	_DESTRUCTOR(_Ty, _Ptr);
; 50   : 	}

  00003	5d		 pop	 ebp
  00004	c3		 ret	 0
??$_Destroy@VCPoint@@@std@@YAXPAVCPoint@@@Z ENDP	; std::_Destroy<CPoint>
_TEXT	ENDS
PUBLIC	??$_Uninit_fill_n@HIH@std@@YAXPAHIABHAAV?$allocator@H@0@U_Scalar_ptr_iterator_tag@0@@Z ; std::_Uninit_fill_n<int,unsigned int,int>
PUBLIC	?_Ptr_cat@std@@YA?AU_Scalar_ptr_iterator_tag@1@PAH0@Z ; std::_Ptr_cat
; Function compile flags: /Odt /RTCsu
; File d:\program files (x86)\microsoft visual studio .net 2003\vc7\include\memory
;	COMDAT ??$_Uninitialized_fill_n@PAHIHV?$allocator@H@std@@@std@@YAXPAHIABHAAV?$allocator@H@0@@Z
_TEXT	SEGMENT
$T193041 = -1						; size = 1
__First$ = 8						; size = 4
__Count$ = 12						; size = 4
__Val$ = 16						; size = 4
__Al$ = 20						; size = 4
??$_Uninitialized_fill_n@PAHIHV?$allocator@H@std@@@std@@YAXPAHIABHAAV?$allocator@H@0@@Z PROC NEAR ; std::_Uninitialized_fill_n<int *,unsigned int,int,std::allocator<int> >, COMDAT

; 255  : 	{	// copy _Count *_Val to raw _First, using _Al

  00000	55		 push	 ebp
  00001	8b ec		 mov	 ebp, esp
  00003	51		 push	 ecx
  00004	c7 45 fc cc cc
	cc cc		 mov	 DWORD PTR [ebp-4], -858993460 ; ccccccccH

; 256  : 	_Uninit_fill_n(_First, _Count, _Val, _Al,
; 257  : 		_Ptr_cat(_First, _First));

  0000b	8b 45 08	 mov	 eax, DWORD PTR __First$[ebp]
  0000e	50		 push	 eax
  0000f	8b 4d 08	 mov	 ecx, DWORD PTR __First$[ebp]
  00012	51		 push	 ecx
  00013	e8 00 00 00 00	 call	 ?_Ptr_cat@std@@YA?AU_Scalar_ptr_iterator_tag@1@PAH0@Z ; std::_Ptr_cat
  00018	83 c4 08	 add	 esp, 8
  0001b	88 45 ff	 mov	 BYTE PTR $T193041[ebp], al
  0001e	8a 55 ff	 mov	 dl, BYTE PTR $T193041[ebp]
  00021	52		 push	 edx
  00022	8b 45 14	 mov	 eax, DWORD PTR __Al$[ebp]
  00025	50		 push	 eax
  00026	8b 4d 10	 mov	 ecx, DWORD PTR __Val$[ebp]
  00029	51		 push	 ecx
  0002a	8b 55 0c	 mov	 edx, DWORD PTR __Count$[ebp]
  0002d	52		 push	 edx
  0002e	8b 45 08	 mov	 eax, DWORD PTR __First$[ebp]
  00031	50		 push	 eax
  00032	e8 00 00 00 00	 call	 ??$_Uninit_fill_n@HIH@std@@YAXPAHIABHAAV?$allocator@H@0@U_Scalar_ptr_iterator_tag@0@@Z ; std::_Uninit_fill_n<int,unsigned int,int>
  00037	83 c4 14	 add	 esp, 20			; 00000014H

; 258  : 	}

  0003a	83 c4 04	 add	 esp, 4
  0003d	3b ec		 cmp	 ebp, esp
  0003f	e8 00 00 00 00	 call	 __RTC_CheckEsp
  00044	8b e5		 mov	 esp, ebp
  00046	5d		 pop	 ebp
  00047	c3		 ret	 0
??$_Uninitialized_fill_n@PAHIHV?$allocator@H@std@@@std@@YAXPAHIABHAAV?$allocator@H@0@@Z ENDP ; std::_Uninitialized_fill_n<int *,unsigned int,int,std::allocator<int> >
; Function compile flags: /Odt /RTCsu
; File d:\program files (x86)\microsoft visual studio .net 2003\vc7\include\xmemory
_TEXT	ENDS
;	COMDAT ??$?0VCPoint@@@?$allocator@PAVCPoint@@@std@@QAE@ABV?$allocator@VCPoint@@@1@@Z
_TEXT	SEGMENT
_this$ = -4						; size = 4
___formal$ = 8						; size = 4
??$?0VCPoint@@@?$allocator@PAVCPoint@@@std@@QAE@ABV?$allocator@VCPoint@@@1@@Z PROC NEAR ; std::allocator<CPoint *>::allocator<CPoint *><CPoint>, COMDAT
; _this$ = ecx

; 120  : 		allocator(const allocator<_Other>&)

  00000	55		 push	 ebp
  00001	8b ec		 mov	 ebp, esp
  00003	51		 push	 ecx
  00004	c7 45 fc cc cc
	cc cc		 mov	 DWORD PTR [ebp-4], -858993460 ; ccccccccH
  0000b	89 4d fc	 mov	 DWORD PTR _this$[ebp], ecx

; 121  : 		{	// construct from a related allocator (do nothing)
; 122  : 		}

  0000e	8b 45 fc	 mov	 eax, DWORD PTR _this$[ebp]
  00011	8b e5		 mov	 esp, ebp
  00013	5d		 pop	 ebp
  00014	c2 04 00	 ret	 4
??$?0VCPoint@@@?$allocator@PAVCPoint@@@std@@QAE@ABV?$allocator@VCPoint@@@1@@Z ENDP ; std::allocator<CPoint *>::allocator<CPoint *><CPoint>
; Function compile flags: /Odt /RTCsu
_TEXT	ENDS
;	COMDAT ??$_Allocate@PAVCPoint@@@std@@YAPAPAVCPoint@@IPAPAV1@@Z
_TEXT	SEGMENT
__Count$ = 8						; size = 4
___formal$ = 12						; size = 4
??$_Allocate@PAVCPoint@@@std@@YAPAPAVCPoint@@IPAPAV1@@Z PROC NEAR ; std::_Allocate<CPoint *>, COMDAT

; 33   : 	{	// allocate storage for _Count elements of type _Ty

  00000	55		 push	 ebp
  00001	8b ec		 mov	 ebp, esp

; 34   : 	return ((_Ty _FARQ *)operator new(_Count * sizeof (_Ty)));

  00003	8b 45 08	 mov	 eax, DWORD PTR __Count$[ebp]
  00006	c1 e0 02	 shl	 eax, 2
  00009	50		 push	 eax
  0000a	e8 00 00 00 00	 call	 ??2@YAPAXI@Z		; operator new
  0000f	83 c4 04	 add	 esp, 4

; 35   : 	}

  00012	3b ec		 cmp	 ebp, esp
  00014	e8 00 00 00 00	 call	 __RTC_CheckEsp
  00019	5d		 pop	 ebp
  0001a	c3		 ret	 0
??$_Allocate@PAVCPoint@@@std@@YAPAPAVCPoint@@IPAPAV1@@Z ENDP ; std::_Allocate<CPoint *>
; Function compile flags: /Odt /RTCsu
_TEXT	ENDS
;	COMDAT ??$_Destroy@PAVCPoint@@@std@@YAXPAPAVCPoint@@@Z
_TEXT	SEGMENT
__Ptr$ = 8						; size = 4
??$_Destroy@PAVCPoint@@@std@@YAXPAPAVCPoint@@@Z PROC NEAR ; std::_Destroy<CPoint *>, COMDAT

; 48   : 	{	// destroy object at _Ptr

  00000	55		 push	 ebp
  00001	8b ec		 mov	 ebp, esp

; 49   : 	_DESTRUCTOR(_Ty, _Ptr);
; 50   : 	}

  00003	5d		 pop	 ebp
  00004	c3		 ret	 0
??$_Destroy@PAVCPoint@@@std@@YAXPAPAVCPoint@@@Z ENDP	; std::_Destroy<CPoint *>
_TEXT	ENDS
PUBLIC	??$_Destroy_range@HV?$allocator@H@std@@@std@@YAXPAH0AAV?$allocator@H@0@U_Scalar_ptr_iterator_tag@0@@Z ; std::_Destroy_range<int,std::allocator<int> >
; Function compile flags: /Odt /RTCsu
;	COMDAT ??$_Destroy_range@HV?$allocator@H@std@@@std@@YAXPAH0AAV?$allocator@H@0@@Z
_TEXT	SEGMENT
$T193046 = -1						; size = 1
__First$ = 8						; size = 4
__Last$ = 12						; size = 4
__Al$ = 16						; size = 4
??$_Destroy_range@HV?$allocator@H@std@@@std@@YAXPAH0AAV?$allocator@H@0@@Z PROC NEAR ; std::_Destroy_range<int,std::allocator<int> >, COMDAT

; 216  : 	{	// destroy [_First, _Last)

  00000	55		 push	 ebp
  00001	8b ec		 mov	 ebp, esp
  00003	51		 push	 ecx
  00004	c7 45 fc cc cc
	cc cc		 mov	 DWORD PTR [ebp-4], -858993460 ; ccccccccH

; 217  : 	_Destroy_range(_First, _Last, _Al, _Ptr_cat(_First, _Last));

  0000b	8b 45 0c	 mov	 eax, DWORD PTR __Last$[ebp]
  0000e	50		 push	 eax
  0000f	8b 4d 08	 mov	 ecx, DWORD PTR __First$[ebp]
  00012	51		 push	 ecx
  00013	e8 00 00 00 00	 call	 ?_Ptr_cat@std@@YA?AU_Scalar_ptr_iterator_tag@1@PAH0@Z ; std::_Ptr_cat
  00018	83 c4 08	 add	 esp, 8
  0001b	88 45 ff	 mov	 BYTE PTR $T193046[ebp], al
  0001e	8a 55 ff	 mov	 dl, BYTE PTR $T193046[ebp]
  00021	52		 push	 edx
  00022	8b 45 10	 mov	 eax, DWORD PTR __Al$[ebp]
  00025	50		 push	 eax
  00026	8b 4d 0c	 mov	 ecx, DWORD PTR __Last$[ebp]
  00029	51		 push	 ecx
  0002a	8b 55 08	 mov	 edx, DWORD PTR __First$[ebp]
  0002d	52		 push	 edx
  0002e	e8 00 00 00 00	 call	 ??$_Destroy_range@HV?$allocator@H@std@@@std@@YAXPAH0AAV?$allocator@H@0@U_Scalar_ptr_iterator_tag@0@@Z ; std::_Destroy_range<int,std::allocator<int> >
  00033	83 c4 10	 add	 esp, 16			; 00000010H

; 218  : 	}

  00036	83 c4 04	 add	 esp, 4
  00039	3b ec		 cmp	 ebp, esp
  0003b	e8 00 00 00 00	 call	 __RTC_CheckEsp
  00040	8b e5		 mov	 esp, ebp
  00042	5d		 pop	 ebp
  00043	c3		 ret	 0
??$_Destroy_range@HV?$allocator@H@std@@@std@@YAXPAH0AAV?$allocator@H@0@@Z ENDP ; std::_Destroy_range<int,std::allocator<int> >
_TEXT	ENDS
PUBLIC	??$_Uninitialized_copy@PAHPAHV?$allocator@H@std@@@std@@YAPAHPAH00AAV?$allocator@H@0@@Z ; std::_Uninitialized_copy<int *,int *,std::allocator<int> >
; Function compile flags: /Odt /RTCsu
; File d:\program files (x86)\microsoft visual studio .net 2003\vc7\include\vector
;	COMDAT ??$_Ucopy@PAH@?$vector@HV?$allocator@H@std@@@std@@IAEPAHPAH00@Z
_TEXT	SEGMENT
_this$ = -4						; size = 4
__First$ = 8						; size = 4
__Last$ = 12						; size = 4
__Ptr$ = 16						; size = 4
??$_Ucopy@PAH@?$vector@HV?$allocator@H@std@@@std@@IAEPAHPAH00@Z PROC NEAR ; std::vector<int,std::allocator<int> >::_Ucopy<int *>, COMDAT
; _this$ = ecx

; 801  : 		pointer _Ucopy(_Iter _First, _Iter _Last, pointer _Ptr)

  00000	55		 push	 ebp
  00001	8b ec		 mov	 ebp, esp
  00003	51		 push	 ecx
  00004	c7 45 fc cc cc
	cc cc		 mov	 DWORD PTR [ebp-4], -858993460 ; ccccccccH
  0000b	89 4d fc	 mov	 DWORD PTR _this$[ebp], ecx

; 802  : 		{	// copy initializing [_First, _Last), using allocator
; 803  : 		return (_Uninitialized_copy(_First, _Last,
; 804  : 			_Ptr, this->_Alval));

  0000e	8b 45 fc	 mov	 eax, DWORD PTR _this$[ebp]
  00011	50		 push	 eax
  00012	8b 4d 10	 mov	 ecx, DWORD PTR __Ptr$[ebp]
  00015	51		 push	 ecx
  00016	8b 55 0c	 mov	 edx, DWORD PTR __Last$[ebp]
  00019	52		 push	 edx
  0001a	8b 45 08	 mov	 eax, DWORD PTR __First$[ebp]
  0001d	50		 push	 eax
  0001e	e8 00 00 00 00	 call	 ??$_Uninitialized_copy@PAHPAHV?$allocator@H@std@@@std@@YAPAHPAH00AAV?$allocator@H@0@@Z ; std::_Uninitialized_copy<int *,int *,std::allocator<int> >
  00023	83 c4 10	 add	 esp, 16			; 00000010H

; 805  : 		}

  00026	83 c4 04	 add	 esp, 4
  00029	3b ec		 cmp	 ebp, esp
  0002b	e8 00 00 00 00	 call	 __RTC_CheckEsp
  00030	8b e5		 mov	 esp, ebp
  00032	5d		 pop	 ebp
  00033	c2 0c 00	 ret	 12			; 0000000cH
??$_Ucopy@PAH@?$vector@HV?$allocator@H@std@@@std@@IAEPAHPAH00@Z ENDP ; std::vector<int,std::allocator<int> >::_Ucopy<int *>
; Function compile flags: /Odt /RTCsu
; File d:\program files (x86)\microsoft visual studio .net 2003\vc7\include\xutility
_TEXT	ENDS
;	COMDAT ??$fill@PAHH@std@@YAXPAH0ABH@Z
_TEXT	SEGMENT
__First$ = 8						; size = 4
__Last$ = 12						; size = 4
__Val$ = 16						; size = 4
??$fill@PAHH@std@@YAXPAH0ABH@Z PROC NEAR		; std::fill<int *,int>, COMDAT

; 1134 : 	{	// copy _Val through [_First, _Last)

  00000	55		 push	 ebp
  00001	8b ec		 mov	 ebp, esp

; 1135 : 	for (; _First != _Last; ++_First)

  00003	eb 09		 jmp	 SHORT $L191682
$L191683:
  00005	8b 45 08	 mov	 eax, DWORD PTR __First$[ebp]
  00008	83 c0 04	 add	 eax, 4
  0000b	89 45 08	 mov	 DWORD PTR __First$[ebp], eax
$L191682:
  0000e	8b 4d 08	 mov	 ecx, DWORD PTR __First$[ebp]
  00011	3b 4d 0c	 cmp	 ecx, DWORD PTR __Last$[ebp]
  00014	74 0c		 je	 SHORT $L191681

; 1136 : 		*_First = _Val;

  00016	8b 55 08	 mov	 edx, DWORD PTR __First$[ebp]
  00019	8b 45 10	 mov	 eax, DWORD PTR __Val$[ebp]
  0001c	8b 08		 mov	 ecx, DWORD PTR [eax]
  0001e	89 0a		 mov	 DWORD PTR [edx], ecx
  00020	eb e3		 jmp	 SHORT $L191683
$L191681:

; 1137 : 	}

  00022	5d		 pop	 ebp
  00023	c3		 ret	 0
??$fill@PAHH@std@@YAXPAH0ABH@Z ENDP			; std::fill<int *,int>
_TEXT	ENDS
PUBLIC	??$_Copy_backward_opt@PAHPAH@std@@YAPAHPAH00U_Scalar_ptr_iterator_tag@0@@Z ; std::_Copy_backward_opt<int *,int *>
; Function compile flags: /Odt /RTCsu
;	COMDAT ??$copy_backward@PAHPAH@std@@YAPAHPAH00@Z
_TEXT	SEGMENT
$T193050 = -1						; size = 1
__First$ = 8						; size = 4
__Last$ = 12						; size = 4
__Dest$ = 16						; size = 4
??$copy_backward@PAHPAH@std@@YAPAHPAH00@Z PROC NEAR	; std::copy_backward<int *,int *>, COMDAT

; 1067 : 	{	// copy [_First, _Last) backwards to [..., _Dest)

  00000	55		 push	 ebp
  00001	8b ec		 mov	 ebp, esp
  00003	51		 push	 ecx
  00004	c7 45 fc cc cc
	cc cc		 mov	 DWORD PTR [ebp-4], -858993460 ; ccccccccH

; 1068 : 	return (_Copy_backward_opt(_First, _Last, _Dest,
; 1069 : 		_Ptr_cat(_First, _Dest)));

  0000b	8b 45 10	 mov	 eax, DWORD PTR __Dest$[ebp]
  0000e	50		 push	 eax
  0000f	8b 4d 08	 mov	 ecx, DWORD PTR __First$[ebp]
  00012	51		 push	 ecx
  00013	e8 00 00 00 00	 call	 ?_Ptr_cat@std@@YA?AU_Scalar_ptr_iterator_tag@1@PAH0@Z ; std::_Ptr_cat
  00018	83 c4 08	 add	 esp, 8
  0001b	88 45 ff	 mov	 BYTE PTR $T193050[ebp], al
  0001e	8a 55 ff	 mov	 dl, BYTE PTR $T193050[ebp]
  00021	52		 push	 edx
  00022	8b 45 10	 mov	 eax, DWORD PTR __Dest$[ebp]
  00025	50		 push	 eax
  00026	8b 4d 0c	 mov	 ecx, DWORD PTR __Last$[ebp]
  00029	51		 push	 ecx
  0002a	8b 55 08	 mov	 edx, DWORD PTR __First$[ebp]
  0002d	52		 push	 edx
  0002e	e8 00 00 00 00	 call	 ??$_Copy_backward_opt@PAHPAH@std@@YAPAHPAH00U_Scalar_ptr_iterator_tag@0@@Z ; std::_Copy_backward_opt<int *,int *>
  00033	83 c4 10	 add	 esp, 16			; 00000010H

; 1070 : 	}

  00036	83 c4 04	 add	 esp, 4
  00039	3b ec		 cmp	 ebp, esp
  0003b	e8 00 00 00 00	 call	 __RTC_CheckEsp
  00040	8b e5		 mov	 esp, ebp
  00042	5d		 pop	 ebp
  00043	c3		 ret	 0
??$copy_backward@PAHPAH@std@@YAPAHPAH00@Z ENDP		; std::copy_backward<int *,int *>
; Function compile flags: /Odt /RTCsu
; File d:\program files (x86)\microsoft visual studio .net 2003\vc7\include\xmemory
_TEXT	ENDS
;	COMDAT ??$_Allocate@H@std@@YAPAHIPAH@Z
_TEXT	SEGMENT
__Count$ = 8						; size = 4
___formal$ = 12						; size = 4
??$_Allocate@H@std@@YAPAHIPAH@Z PROC NEAR		; std::_Allocate<int>, COMDAT

; 33   : 	{	// allocate storage for _Count elements of type _Ty

  00000	55		 push	 ebp
  00001	8b ec		 mov	 ebp, esp

; 34   : 	return ((_Ty _FARQ *)operator new(_Count * sizeof (_Ty)));

  00003	8b 45 08	 mov	 eax, DWORD PTR __Count$[ebp]
  00006	c1 e0 02	 shl	 eax, 2
  00009	50		 push	 eax
  0000a	e8 00 00 00 00	 call	 ??2@YAPAXI@Z		; operator new
  0000f	83 c4 04	 add	 esp, 4

; 35   : 	}

  00012	3b ec		 cmp	 ebp, esp
  00014	e8 00 00 00 00	 call	 __RTC_CheckEsp
  00019	5d		 pop	 ebp
  0001a	c3		 ret	 0
??$_Allocate@H@std@@YAPAHIPAH@Z ENDP			; std::_Allocate<int>
; Function compile flags: /Odt /RTCsu
; File d:\program files (x86)\microsoft visual studio .net 2003\vc7\include\vector
_TEXT	ENDS
;	COMDAT ??Eiterator@?$vector@HV?$allocator@H@std@@@std@@QAEAAV012@XZ
_TEXT	SEGMENT
_this$ = -4						; size = 4
??Eiterator@?$vector@HV?$allocator@H@std@@@std@@QAEAAV012@XZ PROC NEAR ; std::vector<int,std::allocator<int> >::iterator::operator++, COMDAT
; _this$ = ecx

; 229  : 			{	// preincrement

  00000	55		 push	 ebp
  00001	8b ec		 mov	 ebp, esp
  00003	51		 push	 ecx
  00004	c7 45 fc cc cc
	cc cc		 mov	 DWORD PTR [ebp-4], -858993460 ; ccccccccH
  0000b	89 4d fc	 mov	 DWORD PTR _this$[ebp], ecx

; 230  : 			++this->_Myptr;

  0000e	8b 45 fc	 mov	 eax, DWORD PTR _this$[ebp]
  00011	8b 08		 mov	 ecx, DWORD PTR [eax]
  00013	83 c1 04	 add	 ecx, 4
  00016	8b 55 fc	 mov	 edx, DWORD PTR _this$[ebp]
  00019	89 0a		 mov	 DWORD PTR [edx], ecx

; 231  : 			return (*this);

  0001b	8b 45 fc	 mov	 eax, DWORD PTR _this$[ebp]

; 232  : 			}

  0001e	8b e5		 mov	 esp, ebp
  00020	5d		 pop	 ebp
  00021	c3		 ret	 0
??Eiterator@?$vector@HV?$allocator@H@std@@@std@@QAEAAV012@XZ ENDP ; std::vector<int,std::allocator<int> >::iterator::operator++
_TEXT	ENDS
PUBLIC	??$_Ptr_cat@Vconst_iterator@?$vector@HV?$allocator@H@std@@@std@@PAH@std@@YA?AU_Nonscalar_ptr_iterator_tag@0@AAVconst_iterator@?$vector@HV?$allocator@H@std@@@0@AAPAH@Z ; std::_Ptr_cat<std::vector<int,std::allocator<int> >::const_iterator,int *>
PUBLIC	??$_Uninit_copy@Vconst_iterator@?$vector@HV?$allocator@H@std@@@std@@PAHV?$allocator@H@3@@std@@YAPAHVconst_iterator@?$vector@HV?$allocator@H@std@@@0@0PAHAAV?$allocator@H@0@U_Nonscalar_ptr_iterator_tag@0@@Z ; std::_Uninit_copy<std::vector<int,std::allocator<int> >::const_iterator,int *,std::allocator<int> >
; Function compile flags: /Odt /RTCsu
; File d:\program files (x86)\microsoft visual studio .net 2003\vc7\include\memory
;	COMDAT ??$_Uninitialized_copy@Vconst_iterator@?$vector@HV?$allocator@H@std@@@std@@PAHV?$allocator@H@3@@std@@YAPAHVconst_iterator@?$vector@HV?$allocator@H@std@@@0@0PAHAAV?$allocator@H@0@@Z
_TEXT	SEGMENT
$T193054 = -1						; size = 1
__First$ = 8						; size = 4
__Last$ = 12						; size = 4
__Dest$ = 16						; size = 4
__Al$ = 20						; size = 4
??$_Uninitialized_copy@Vconst_iterator@?$vector@HV?$allocator@H@std@@@std@@PAHV?$allocator@H@3@@std@@YAPAHVconst_iterator@?$vector@HV?$allocator@H@std@@@0@0PAHAAV?$allocator@H@0@@Z PROC NEAR ; std::_Uninitialized_copy<std::vector<int,std::allocator<int> >::const_iterator,int *,std::allocator<int> >, COMDAT

; 126  : 	{	// copy [_First, _Last) to raw _Dest, using _Al

  00000	55		 push	 ebp
  00001	8b ec		 mov	 ebp, esp
  00003	51		 push	 ecx
  00004	c7 45 fc cc cc
	cc cc		 mov	 DWORD PTR [ebp-4], -858993460 ; ccccccccH

; 127  : 	return (_Uninit_copy(_First, _Last, _Dest, _Al,
; 128  : 		_Ptr_cat(_First, _Dest)));

  0000b	8d 45 10	 lea	 eax, DWORD PTR __Dest$[ebp]
  0000e	50		 push	 eax
  0000f	8d 4d 08	 lea	 ecx, DWORD PTR __First$[ebp]
  00012	51		 push	 ecx
  00013	e8 00 00 00 00	 call	 ??$_Ptr_cat@Vconst_iterator@?$vector@HV?$allocator@H@std@@@std@@PAH@std@@YA?AU_Nonscalar_ptr_iterator_tag@0@AAVconst_iterator@?$vector@HV?$allocator@H@std@@@0@AAPAH@Z ; std::_Ptr_cat<std::vector<int,std::allocator<int> >::const_iterator,int *>
  00018	83 c4 08	 add	 esp, 8
  0001b	88 45 ff	 mov	 BYTE PTR $T193054[ebp], al
  0001e	8a 55 ff	 mov	 dl, BYTE PTR $T193054[ebp]
  00021	52		 push	 edx
  00022	8b 45 14	 mov	 eax, DWORD PTR __Al$[ebp]
  00025	50		 push	 eax
  00026	8b 4d 10	 mov	 ecx, DWORD PTR __Dest$[ebp]
  00029	51		 push	 ecx
  0002a	8b 55 0c	 mov	 edx, DWORD PTR __Last$[ebp]
  0002d	52		 push	 edx
  0002e	8b 45 08	 mov	 eax, DWORD PTR __First$[ebp]
  00031	50		 push	 eax
  00032	e8 00 00 00 00	 call	 ??$_Uninit_copy@Vconst_iterator@?$vector@HV?$allocator@H@std@@@std@@PAHV?$allocator@H@3@@std@@YAPAHVconst_iterator@?$vector@HV?$allocator@H@std@@@0@0PAHAAV?$allocator@H@0@U_Nonscalar_ptr_iterator_tag@0@@Z ; std::_Uninit_copy<std::vector<int,std::allocator<int> >::const_iterator,int *,std::allocator<int> >
  00037	83 c4 14	 add	 esp, 20			; 00000014H

; 129  : 	}

  0003a	83 c4 04	 add	 esp, 4
  0003d	3b ec		 cmp	 ebp, esp
  0003f	e8 00 00 00 00	 call	 __RTC_CheckEsp
  00044	8b e5		 mov	 esp, ebp
  00046	5d		 pop	 ebp
  00047	c3		 ret	 0
??$_Uninitialized_copy@Vconst_iterator@?$vector@HV?$allocator@H@std@@@std@@PAHV?$allocator@H@3@@std@@YAPAHVconst_iterator@?$vector@HV?$allocator@H@std@@@0@0PAHAAV?$allocator@H@0@@Z ENDP ; std::_Uninitialized_copy<std::vector<int,std::allocator<int> >::const_iterator,int *,std::allocator<int> >
; Function compile flags: /Odt /RTCsu
; File d:\program files (x86)\microsoft visual studio .net 2003\vc7\include\xutility
_TEXT	ENDS
;	COMDAT ??$_Ptr_cat@VCPoint@@@std@@YA?AU_Scalar_ptr_iterator_tag@0@PAPAVCPoint@@0@Z
_TEXT	SEGMENT
__Cat$ = -5						; size = 1
___formal$ = 8						; size = 4
___formal$ = 12						; size = 4
??$_Ptr_cat@VCPoint@@@std@@YA?AU_Scalar_ptr_iterator_tag@0@PAPAVCPoint@@0@Z PROC NEAR ; std::_Ptr_cat<CPoint>, COMDAT

; 218  : 	{	// return pointer category from pointer to pointer arguments

  00000	55		 push	 ebp
  00001	8b ec		 mov	 ebp, esp
  00003	83 ec 0c	 sub	 esp, 12			; 0000000cH
  00006	c7 45 f4 cc cc
	cc cc		 mov	 DWORD PTR [ebp-12], -858993460 ; ccccccccH
  0000d	c7 45 f8 cc cc
	cc cc		 mov	 DWORD PTR [ebp-8], -858993460 ; ccccccccH
  00014	c7 45 fc cc cc
	cc cc		 mov	 DWORD PTR [ebp-4], -858993460 ; ccccccccH

; 219  : 	_Scalar_ptr_iterator_tag _Cat;
; 220  : 	return (_Cat);

  0001b	8a 45 fb	 mov	 al, BYTE PTR __Cat$[ebp]

; 221  : 	}

  0001e	52		 push	 edx
  0001f	8b cd		 mov	 ecx, ebp
  00021	50		 push	 eax
  00022	8d 15 00 00 00
	00		 lea	 edx, DWORD PTR $L193058
  00028	e8 00 00 00 00	 call	 @_RTC_CheckStackVars@8
  0002d	58		 pop	 eax
  0002e	5a		 pop	 edx
  0002f	8b e5		 mov	 esp, ebp
  00031	5d		 pop	 ebp
  00032	c3		 ret	 0
$L193058:
  00033	01 00 00 00	 DD	 1
  00037	00 00 00 00	 DD	 $L193057
$L193057:
  0003b	fb ff ff ff	 DD	 -5			; fffffffbH
  0003f	01 00 00 00	 DD	 1
  00043	00 00 00 00	 DD	 $L193056
$L193056:
  00047	5f		 DB	 95			; 0000005fH
  00048	43		 DB	 67			; 00000043H
  00049	61		 DB	 97			; 00000061H
  0004a	74		 DB	 116			; 00000074H
  0004b	00		 DB	 0
??$_Ptr_cat@VCPoint@@@std@@YA?AU_Scalar_ptr_iterator_tag@0@PAPAVCPoint@@0@Z ENDP ; std::_Ptr_cat<CPoint>
_TEXT	ENDS
EXTRN	__imp__memmove:NEAR
; Function compile flags: /Odt /RTCsu
; File d:\program files (x86)\microsoft visual studio .net 2003\vc7\include\memory
;	COMDAT ??$_Uninit_copy@PAVCPoint@@PAV1@@std@@YAPAPAVCPoint@@PAPAV1@00AAV?$allocator@PAVCPoint@@@0@U_Scalar_ptr_iterator_tag@0@@Z
_TEXT	SEGMENT
__Count$ = -4						; size = 4
__First$ = 8						; size = 4
__Last$ = 12						; size = 4
__Dest$ = 16						; size = 4
___formal$ = 20						; size = 4
___formal$ = 24						; size = 1
??$_Uninit_copy@PAVCPoint@@PAV1@@std@@YAPAPAVCPoint@@PAPAV1@00AAV?$allocator@PAVCPoint@@@0@U_Scalar_ptr_iterator_tag@0@@Z PROC NEAR ; std::_Uninit_copy<CPoint *,CPoint *>, COMDAT

; 105  : 	{	// copy [_First, _Last) to raw _Dest, (const) scalar type

  00000	55		 push	 ebp
  00001	8b ec		 mov	 ebp, esp
  00003	51		 push	 ecx
  00004	56		 push	 esi
  00005	c7 45 fc cc cc
	cc cc		 mov	 DWORD PTR [ebp-4], -858993460 ; ccccccccH

; 106  : 	size_t _Count = (size_t)(_Last - _First);

  0000c	8b 45 0c	 mov	 eax, DWORD PTR __Last$[ebp]
  0000f	2b 45 08	 sub	 eax, DWORD PTR __First$[ebp]
  00012	c1 f8 02	 sar	 eax, 2
  00015	89 45 fc	 mov	 DWORD PTR __Count$[ebp], eax

; 107  : 	return ((_Ty2 *)memmove(&*_Dest, &*_First,
; 108  : 		_Count * sizeof (*_First)) + _Count);	// NB: non-overlapping move

  00018	8b 4d fc	 mov	 ecx, DWORD PTR __Count$[ebp]
  0001b	c1 e1 02	 shl	 ecx, 2
  0001e	8b f4		 mov	 esi, esp
  00020	51		 push	 ecx
  00021	8b 55 08	 mov	 edx, DWORD PTR __First$[ebp]
  00024	52		 push	 edx
  00025	8b 45 10	 mov	 eax, DWORD PTR __Dest$[ebp]
  00028	50		 push	 eax
  00029	ff 15 00 00 00
	00		 call	 DWORD PTR __imp__memmove
  0002f	83 c4 0c	 add	 esp, 12			; 0000000cH
  00032	3b f4		 cmp	 esi, esp
  00034	e8 00 00 00 00	 call	 __RTC_CheckEsp
  00039	8b 4d fc	 mov	 ecx, DWORD PTR __Count$[ebp]
  0003c	8d 04 88	 lea	 eax, DWORD PTR [eax+ecx*4]

; 109  : 	}

  0003f	5e		 pop	 esi
  00040	83 c4 04	 add	 esp, 4
  00043	3b ec		 cmp	 ebp, esp
  00045	e8 00 00 00 00	 call	 __RTC_CheckEsp
  0004a	8b e5		 mov	 esp, ebp
  0004c	5d		 pop	 ebp
  0004d	c3		 ret	 0
??$_Uninit_copy@PAVCPoint@@PAV1@@std@@YAPAPAVCPoint@@PAPAV1@00AAV?$allocator@PAVCPoint@@@0@U_Scalar_ptr_iterator_tag@0@@Z ENDP ; std::_Uninit_copy<CPoint *,CPoint *>
_TEXT	ENDS
PUBLIC	??$fill_n@PAPAVCPoint@@IPAV1@@std@@YAXPAPAVCPoint@@IABQAV1@@Z ; std::fill_n<CPoint * *,unsigned int,CPoint *>
; Function compile flags: /Odt /RTCsu
;	COMDAT ??$_Uninit_fill_n@PAVCPoint@@IPAV1@@std@@YAXPAPAVCPoint@@IABQAV1@AAV?$allocator@PAVCPoint@@@0@U_Scalar_ptr_iterator_tag@0@@Z
_TEXT	SEGMENT
__First$ = 8						; size = 4
__Count$ = 12						; size = 4
__Val$ = 16						; size = 4
___formal$ = 20						; size = 4
___formal$ = 24						; size = 1
??$_Uninit_fill_n@PAVCPoint@@IPAV1@@std@@YAXPAPAVCPoint@@IABQAV1@AAV?$allocator@PAVCPoint@@@0@U_Scalar_ptr_iterator_tag@0@@Z PROC NEAR ; std::_Uninit_fill_n<CPoint *,unsigned int,CPoint *>, COMDAT

; 236  : 	{	// copy _Count *_Val to raw _First, using _Al, scalar type

  00000	55		 push	 ebp
  00001	8b ec		 mov	 ebp, esp

; 237  : 	fill_n(_First, _Count, _Val);

  00003	8b 45 10	 mov	 eax, DWORD PTR __Val$[ebp]
  00006	50		 push	 eax
  00007	8b 4d 0c	 mov	 ecx, DWORD PTR __Count$[ebp]
  0000a	51		 push	 ecx
  0000b	8b 55 08	 mov	 edx, DWORD PTR __First$[ebp]
  0000e	52		 push	 edx
  0000f	e8 00 00 00 00	 call	 ??$fill_n@PAPAVCPoint@@IPAV1@@std@@YAXPAPAVCPoint@@IABQAV1@@Z ; std::fill_n<CPoint * *,unsigned int,CPoint *>
  00014	83 c4 0c	 add	 esp, 12			; 0000000cH

; 238  : 	}

  00017	3b ec		 cmp	 ebp, esp
  00019	e8 00 00 00 00	 call	 __RTC_CheckEsp
  0001e	5d		 pop	 ebp
  0001f	c3		 ret	 0
??$_Uninit_fill_n@PAVCPoint@@IPAV1@@std@@YAXPAPAVCPoint@@IABQAV1@AAV?$allocator@PAVCPoint@@@0@U_Scalar_ptr_iterator_tag@0@@Z ENDP ; std::_Uninit_fill_n<CPoint *,unsigned int,CPoint *>
; Function compile flags: /Odt /RTCsu
; File d:\program files (x86)\microsoft visual studio .net 2003\vc7\include\xmemory
_TEXT	ENDS
;	COMDAT ??$_Destroy_range@PAVCPoint@@V?$allocator@PAVCPoint@@@std@@@std@@YAXPAPAVCPoint@@0AAV?$allocator@PAVCPoint@@@0@U_Scalar_ptr_iterator_tag@0@@Z
_TEXT	SEGMENT
__First$ = 8						; size = 4
__Last$ = 12						; size = 4
__Al$ = 16						; size = 4
___formal$ = 20						; size = 1
??$_Destroy_range@PAVCPoint@@V?$allocator@PAVCPoint@@@std@@@std@@YAXPAPAVCPoint@@0AAV?$allocator@PAVCPoint@@@0@U_Scalar_ptr_iterator_tag@0@@Z PROC NEAR ; std::_Destroy_range<CPoint *,std::allocator<CPoint *> >, COMDAT

; 233  : 	{	// destroy [_First, _Last), scalar type (do nothing)

  00000	55		 push	 ebp
  00001	8b ec		 mov	 ebp, esp

; 234  : 	}

  00003	5d		 pop	 ebp
  00004	c3		 ret	 0
??$_Destroy_range@PAVCPoint@@V?$allocator@PAVCPoint@@@std@@@std@@YAXPAPAVCPoint@@0AAV?$allocator@PAVCPoint@@@0@U_Scalar_ptr_iterator_tag@0@@Z ENDP ; std::_Destroy_range<CPoint *,std::allocator<CPoint *> >
_TEXT	ENDS
PUBLIC	??$fill_n@PAHIH@std@@YAXPAHIABH@Z		; std::fill_n<int *,unsigned int,int>
; Function compile flags: /Odt /RTCsu
; File d:\program files (x86)\microsoft visual studio .net 2003\vc7\include\memory
;	COMDAT ??$_Uninit_fill_n@HIH@std@@YAXPAHIABHAAV?$allocator@H@0@U_Scalar_ptr_iterator_tag@0@@Z
_TEXT	SEGMENT
__First$ = 8						; size = 4
__Count$ = 12						; size = 4
__Val$ = 16						; size = 4
___formal$ = 20						; size = 4
___formal$ = 24						; size = 1
??$_Uninit_fill_n@HIH@std@@YAXPAHIABHAAV?$allocator@H@0@U_Scalar_ptr_iterator_tag@0@@Z PROC NEAR ; std::_Uninit_fill_n<int,unsigned int,int>, COMDAT

; 236  : 	{	// copy _Count *_Val to raw _First, using _Al, scalar type

  00000	55		 push	 ebp
  00001	8b ec		 mov	 ebp, esp

; 237  : 	fill_n(_First, _Count, _Val);

  00003	8b 45 10	 mov	 eax, DWORD PTR __Val$[ebp]
  00006	50		 push	 eax
  00007	8b 4d 0c	 mov	 ecx, DWORD PTR __Count$[ebp]
  0000a	51		 push	 ecx
  0000b	8b 55 08	 mov	 edx, DWORD PTR __First$[ebp]
  0000e	52		 push	 edx
  0000f	e8 00 00 00 00	 call	 ??$fill_n@PAHIH@std@@YAXPAHIABH@Z ; std::fill_n<int *,unsigned int,int>
  00014	83 c4 0c	 add	 esp, 12			; 0000000cH

; 238  : 	}

  00017	3b ec		 cmp	 ebp, esp
  00019	e8 00 00 00 00	 call	 __RTC_CheckEsp
  0001e	5d		 pop	 ebp
  0001f	c3		 ret	 0
??$_Uninit_fill_n@HIH@std@@YAXPAHIABHAAV?$allocator@H@0@U_Scalar_ptr_iterator_tag@0@@Z ENDP ; std::_Uninit_fill_n<int,unsigned int,int>
; Function compile flags: /Odt /RTCsu
; File d:\program files (x86)\microsoft visual studio .net 2003\vc7\include\xmemory
_TEXT	ENDS
;	COMDAT ??$_Destroy_range@HV?$allocator@H@std@@@std@@YAXPAH0AAV?$allocator@H@0@U_Scalar_ptr_iterator_tag@0@@Z
_TEXT	SEGMENT
__First$ = 8						; size = 4
__Last$ = 12						; size = 4
__Al$ = 16						; size = 4
___formal$ = 20						; size = 1
??$_Destroy_range@HV?$allocator@H@std@@@std@@YAXPAH0AAV?$allocator@H@0@U_Scalar_ptr_iterator_tag@0@@Z PROC NEAR ; std::_Destroy_range<int,std::allocator<int> >, COMDAT

; 233  : 	{	// destroy [_First, _Last), scalar type (do nothing)

  00000	55		 push	 ebp
  00001	8b ec		 mov	 ebp, esp

; 234  : 	}

  00003	5d		 pop	 ebp
  00004	c3		 ret	 0
??$_Destroy_range@HV?$allocator@H@std@@@std@@YAXPAH0AAV?$allocator@H@0@U_Scalar_ptr_iterator_tag@0@@Z ENDP ; std::_Destroy_range<int,std::allocator<int> >
_TEXT	ENDS
PUBLIC	??$_Uninit_copy@HH@std@@YAPAHPAH00AAV?$allocator@H@0@U_Scalar_ptr_iterator_tag@0@@Z ; std::_Uninit_copy<int,int>
; Function compile flags: /Odt /RTCsu
; File d:\program files (x86)\microsoft visual studio .net 2003\vc7\include\memory
;	COMDAT ??$_Uninitialized_copy@PAHPAHV?$allocator@H@std@@@std@@YAPAHPAH00AAV?$allocator@H@0@@Z
_TEXT	SEGMENT
$T193065 = -1						; size = 1
__First$ = 8						; size = 4
__Last$ = 12						; size = 4
__Dest$ = 16						; size = 4
__Al$ = 20						; size = 4
??$_Uninitialized_copy@PAHPAHV?$allocator@H@std@@@std@@YAPAHPAH00AAV?$allocator@H@0@@Z PROC NEAR ; std::_Uninitialized_copy<int *,int *,std::allocator<int> >, COMDAT

; 126  : 	{	// copy [_First, _Last) to raw _Dest, using _Al

  00000	55		 push	 ebp
  00001	8b ec		 mov	 ebp, esp
  00003	51		 push	 ecx
  00004	c7 45 fc cc cc
	cc cc		 mov	 DWORD PTR [ebp-4], -858993460 ; ccccccccH

; 127  : 	return (_Uninit_copy(_First, _Last, _Dest, _Al,
; 128  : 		_Ptr_cat(_First, _Dest)));

  0000b	8b 45 10	 mov	 eax, DWORD PTR __Dest$[ebp]
  0000e	50		 push	 eax
  0000f	8b 4d 08	 mov	 ecx, DWORD PTR __First$[ebp]
  00012	51		 push	 ecx
  00013	e8 00 00 00 00	 call	 ?_Ptr_cat@std@@YA?AU_Scalar_ptr_iterator_tag@1@PAH0@Z ; std::_Ptr_cat
  00018	83 c4 08	 add	 esp, 8
  0001b	88 45 ff	 mov	 BYTE PTR $T193065[ebp], al
  0001e	8a 55 ff	 mov	 dl, BYTE PTR $T193065[ebp]
  00021	52		 push	 edx
  00022	8b 45 14	 mov	 eax, DWORD PTR __Al$[ebp]
  00025	50		 push	 eax
  00026	8b 4d 10	 mov	 ecx, DWORD PTR __Dest$[ebp]
  00029	51		 push	 ecx
  0002a	8b 55 0c	 mov	 edx, DWORD PTR __Last$[ebp]
  0002d	52		 push	 edx
  0002e	8b 45 08	 mov	 eax, DWORD PTR __First$[ebp]
  00031	50		 push	 eax
  00032	e8 00 00 00 00	 call	 ??$_Uninit_copy@HH@std@@YAPAHPAH00AAV?$allocator@H@0@U_Scalar_ptr_iterator_tag@0@@Z ; std::_Uninit_copy<int,int>
  00037	83 c4 14	 add	 esp, 20			; 00000014H

; 129  : 	}

  0003a	83 c4 04	 add	 esp, 4
  0003d	3b ec		 cmp	 ebp, esp
  0003f	e8 00 00 00 00	 call	 __RTC_CheckEsp
  00044	8b e5		 mov	 esp, ebp
  00046	5d		 pop	 ebp
  00047	c3		 ret	 0
??$_Uninitialized_copy@PAHPAHV?$allocator@H@std@@@std@@YAPAHPAH00AAV?$allocator@H@0@@Z ENDP ; std::_Uninitialized_copy<int *,int *,std::allocator<int> >
; Function compile flags: /Odt /RTCsu
; File d:\program files (x86)\microsoft visual studio .net 2003\vc7\include\xutility
_TEXT	ENDS
;	COMDAT ??$_Copy_backward_opt@PAHPAH@std@@YAPAHPAH00U_Scalar_ptr_iterator_tag@0@@Z
_TEXT	SEGMENT
__Off$ = -4						; size = 4
__First$ = 8						; size = 4
__Last$ = 12						; size = 4
__Dest$ = 16						; size = 4
___formal$ = 20						; size = 1
??$_Copy_backward_opt@PAHPAH@std@@YAPAHPAH00U_Scalar_ptr_iterator_tag@0@@Z PROC NEAR ; std::_Copy_backward_opt<int *,int *>, COMDAT

; 1058 : 	{	// copy [_First, _Last) backwards to [..., _Dest), pointers to scalars

  00000	55		 push	 ebp
  00001	8b ec		 mov	 ebp, esp
  00003	51		 push	 ecx
  00004	56		 push	 esi
  00005	c7 45 fc cc cc
	cc cc		 mov	 DWORD PTR [ebp-4], -858993460 ; ccccccccH

; 1059 : 	ptrdiff_t _Off = _Last - _First;	// NB: non-overlapping move

  0000c	8b 45 0c	 mov	 eax, DWORD PTR __Last$[ebp]
  0000f	2b 45 08	 sub	 eax, DWORD PTR __First$[ebp]
  00012	c1 f8 02	 sar	 eax, 2
  00015	89 45 fc	 mov	 DWORD PTR __Off$[ebp], eax

; 1060 : 	return ((_OutIt)memmove(&*_Dest - _Off, &*_First,
; 1061 : 		_Off * sizeof (*_First)));

  00018	8b 4d fc	 mov	 ecx, DWORD PTR __Off$[ebp]
  0001b	c1 e1 02	 shl	 ecx, 2
  0001e	8b f4		 mov	 esi, esp
  00020	51		 push	 ecx
  00021	8b 55 08	 mov	 edx, DWORD PTR __First$[ebp]
  00024	52		 push	 edx
  00025	8b 45 fc	 mov	 eax, DWORD PTR __Off$[ebp]
  00028	c1 e0 02	 shl	 eax, 2
  0002b	8b 4d 10	 mov	 ecx, DWORD PTR __Dest$[ebp]
  0002e	2b c8		 sub	 ecx, eax
  00030	51		 push	 ecx
  00031	ff 15 00 00 00
	00		 call	 DWORD PTR __imp__memmove
  00037	83 c4 0c	 add	 esp, 12			; 0000000cH
  0003a	3b f4		 cmp	 esi, esp
  0003c	e8 00 00 00 00	 call	 __RTC_CheckEsp

; 1062 : 	}

  00041	5e		 pop	 esi
  00042	83 c4 04	 add	 esp, 4
  00045	3b ec		 cmp	 ebp, esp
  00047	e8 00 00 00 00	 call	 __RTC_CheckEsp
  0004c	8b e5		 mov	 esp, ebp
  0004e	5d		 pop	 ebp
  0004f	c3		 ret	 0
??$_Copy_backward_opt@PAHPAH@std@@YAPAHPAH00U_Scalar_ptr_iterator_tag@0@@Z ENDP ; std::_Copy_backward_opt<int *,int *>
; Function compile flags: /Odt /RTCsu
_TEXT	ENDS
;	COMDAT ??$_Ptr_cat@Vconst_iterator@?$vector@HV?$allocator@H@std@@@std@@PAH@std@@YA?AU_Nonscalar_ptr_iterator_tag@0@AAVconst_iterator@?$vector@HV?$allocator@H@std@@@0@AAPAH@Z
_TEXT	SEGMENT
__Cat$ = -5						; size = 1
___formal$ = 8						; size = 4
___formal$ = 12						; size = 4
??$_Ptr_cat@Vconst_iterator@?$vector@HV?$allocator@H@std@@@std@@PAH@std@@YA?AU_Nonscalar_ptr_iterator_tag@0@AAVconst_iterator@?$vector@HV?$allocator@H@std@@@0@AAPAH@Z PROC NEAR ; std::_Ptr_cat<std::vector<int,std::allocator<int> >::const_iterator,int *>, COMDAT

; 211  : 	{	// return pointer category from arbitrary arguments

  00000	55		 push	 ebp
  00001	8b ec		 mov	 ebp, esp
  00003	83 ec 0c	 sub	 esp, 12			; 0000000cH
  00006	c7 45 f4 cc cc
	cc cc		 mov	 DWORD PTR [ebp-12], -858993460 ; ccccccccH
  0000d	c7 45 f8 cc cc
	cc cc		 mov	 DWORD PTR [ebp-8], -858993460 ; ccccccccH
  00014	c7 45 fc cc cc
	cc cc		 mov	 DWORD PTR [ebp-4], -858993460 ; ccccccccH

; 212  : 	_Nonscalar_ptr_iterator_tag _Cat;
; 213  : 	return (_Cat);

  0001b	8a 45 fb	 mov	 al, BYTE PTR __Cat$[ebp]

; 214  : 	}

  0001e	52		 push	 edx
  0001f	8b cd		 mov	 ecx, ebp
  00021	50		 push	 eax
  00022	8d 15 00 00 00
	00		 lea	 edx, DWORD PTR $L193070
  00028	e8 00 00 00 00	 call	 @_RTC_CheckStackVars@8
  0002d	58		 pop	 eax
  0002e	5a		 pop	 edx
  0002f	8b e5		 mov	 esp, ebp
  00031	5d		 pop	 ebp
  00032	c3		 ret	 0
$L193070:
  00033	01 00 00 00	 DD	 1
  00037	00 00 00 00	 DD	 $L193069
$L193069:
  0003b	fb ff ff ff	 DD	 -5			; fffffffbH
  0003f	01 00 00 00	 DD	 1
  00043	00 00 00 00	 DD	 $L193068
$L193068:
  00047	5f		 DB	 95			; 0000005fH
  00048	43		 DB	 67			; 00000043H
  00049	61		 DB	 97			; 00000061H
  0004a	74		 DB	 116			; 00000074H
  0004b	00		 DB	 0
??$_Ptr_cat@Vconst_iterator@?$vector@HV?$allocator@H@std@@@std@@PAH@std@@YA?AU_Nonscalar_ptr_iterator_tag@0@AAVconst_iterator@?$vector@HV?$allocator@H@std@@@0@AAPAH@Z ENDP ; std::_Ptr_cat<std::vector<int,std::allocator<int> >::const_iterator,int *>
_TEXT	ENDS
PUBLIC	?construct@?$allocator@H@std@@QAEXPAHABH@Z	; std::allocator<int>::construct
PUBLIC	?destroy@?$allocator@H@std@@QAEXPAH@Z		; std::allocator<int>::destroy
PUBLIC	??Econst_iterator@?$vector@HV?$allocator@H@std@@@std@@QAEAAV012@XZ ; std::vector<int,std::allocator<int> >::const_iterator::operator++
;	COMDAT xdata$x
; File d:\program files (x86)\microsoft visual studio .net 2003\vc7\include\memory
xdata$x	SEGMENT
$T193077 DD	0ffffffffH
	DD	00H
	DD	0ffffffffH
	DD	00H
$T193079 DD	00H
	DD	00H
	DD	00H
	DD	FLAT:$L193073
$T193078 DD	00H
	DD	00H
	DD	01H
	DD	01H
	DD	FLAT:$T193079
$T193075 DD	019930520H
	DD	02H
	DD	FLAT:$T193077
	DD	01H
	DD	FLAT:$T193078
	DD	2 DUP(00H)
; Function compile flags: /Odt /RTCsu
xdata$x	ENDS
;	COMDAT ??$_Uninit_copy@Vconst_iterator@?$vector@HV?$allocator@H@std@@@std@@PAHV?$allocator@H@3@@std@@YAPAHVconst_iterator@?$vector@HV?$allocator@H@std@@@0@0PAHAAV?$allocator@H@0@U_Nonscalar_ptr_iterator_tag@0@@Z
_TEXT	SEGMENT
tv84 = -28						; size = 4
tv83 = -21						; size = 1
__Next$ = -20						; size = 4
__$EHRec$ = -16						; size = 16
__First$ = 8						; size = 4
__Last$ = 12						; size = 4
__Dest$ = 16						; size = 4
__Al$ = 20						; size = 4
___formal$ = 24						; size = 1
??$_Uninit_copy@Vconst_iterator@?$vector@HV?$allocator@H@std@@@std@@PAHV?$allocator@H@3@@std@@YAPAHVconst_iterator@?$vector@HV?$allocator@H@std@@@0@0PAHAAV?$allocator@H@0@U_Nonscalar_ptr_iterator_tag@0@@Z PROC NEAR ; std::_Uninit_copy<std::vector<int,std::allocator<int> >::const_iterator,int *,std::allocator<int> >, COMDAT

; 77   : 	{	// copy [_First, _Last) to raw _Dest, using _Al, arbitrary type

  00000	55		 push	 ebp
  00001	8b ec		 mov	 ebp, esp
  00003	6a ff		 push	 -1
  00005	68 00 00 00 00	 push	 __ehhandler$??$_Uninit_copy@Vconst_iterator@?$vector@HV?$allocator@H@std@@@std@@PAHV?$allocator@H@3@@std@@YAPAHVconst_iterator@?$vector@HV?$allocator@H@std@@@0@0PAHAAV?$allocator@H@0@U_Nonscalar_ptr_iterator_tag@0@@Z
  0000a	64 a1 00 00 00
	00		 mov	 eax, DWORD PTR fs:__except_list
  00010	50		 push	 eax
  00011	64 89 25 00 00
	00 00		 mov	 DWORD PTR fs:__except_list, esp
  00018	51		 push	 ecx
  00019	83 ec 0c	 sub	 esp, 12			; 0000000cH
  0001c	53		 push	 ebx
  0001d	56		 push	 esi
  0001e	57		 push	 edi
  0001f	c7 45 e4 cc cc
	cc cc		 mov	 DWORD PTR [ebp-28], -858993460 ; ccccccccH
  00026	c7 45 e8 cc cc
	cc cc		 mov	 DWORD PTR [ebp-24], -858993460 ; ccccccccH
  0002d	c7 45 ec cc cc
	cc cc		 mov	 DWORD PTR [ebp-20], -858993460 ; ccccccccH
  00034	89 65 f0	 mov	 DWORD PTR __$EHRec$[ebp], esp

; 78   : 	_FwdIt _Next = _Dest;

  00037	8b 45 10	 mov	 eax, DWORD PTR __Dest$[ebp]
  0003a	89 45 ec	 mov	 DWORD PTR __Next$[ebp], eax

; 79   : 
; 80   : 	_TRY_BEGIN

  0003d	c7 45 fc 00 00
	00 00		 mov	 DWORD PTR __$EHRec$[ebp+12], 0

; 81   : 	for (; _First != _Last; ++_Dest, ++_First)

  00044	eb 11		 jmp	 SHORT $L191810
$L191811:
  00046	8b 4d 10	 mov	 ecx, DWORD PTR __Dest$[ebp]
  00049	83 c1 04	 add	 ecx, 4
  0004c	89 4d 10	 mov	 DWORD PTR __Dest$[ebp], ecx
  0004f	8d 4d 08	 lea	 ecx, DWORD PTR __First$[ebp]
  00052	e8 00 00 00 00	 call	 ??Econst_iterator@?$vector@HV?$allocator@H@std@@@std@@QAEAAV012@XZ ; std::vector<int,std::allocator<int> >::const_iterator::operator++
$L191810:
  00057	8d 55 0c	 lea	 edx, DWORD PTR __Last$[ebp]
  0005a	52		 push	 edx
  0005b	8d 4d 08	 lea	 ecx, DWORD PTR __First$[ebp]
  0005e	e8 00 00 00 00	 call	 ??9const_iterator@?$vector@HV?$allocator@H@std@@@std@@QBE_NABV012@@Z ; std::vector<int,std::allocator<int> >::const_iterator::operator!=
  00063	88 45 eb	 mov	 BYTE PTR tv83[ebp], al
  00066	0f b6 45 eb	 movzx	 eax, BYTE PTR tv83[ebp]
  0006a	85 c0		 test	 eax, eax
  0006c	74 1d		 je	 SHORT $L191812

; 82   : 		_Al.construct(_Dest, *_First);

  0006e	8d 4d 08	 lea	 ecx, DWORD PTR __First$[ebp]
  00071	e8 00 00 00 00	 call	 ??Dconst_iterator@?$vector@HV?$allocator@H@std@@@std@@QBEABHXZ ; std::vector<int,std::allocator<int> >::const_iterator::operator*
  00076	89 45 e4	 mov	 DWORD PTR tv84[ebp], eax
  00079	8b 4d e4	 mov	 ecx, DWORD PTR tv84[ebp]
  0007c	51		 push	 ecx
  0007d	8b 55 10	 mov	 edx, DWORD PTR __Dest$[ebp]
  00080	52		 push	 edx
  00081	8b 4d 14	 mov	 ecx, DWORD PTR __Al$[ebp]
  00084	e8 00 00 00 00	 call	 ?construct@?$allocator@H@std@@QAEXPAHABH@Z ; std::allocator<int>::construct
  00089	eb bb		 jmp	 SHORT $L191811
$L191812:
  0008b	eb 2a		 jmp	 SHORT $L193072
$L193073:

; 83   : 	_CATCH_ALL
; 84   : 	for (; _Next != _Dest; ++_Next)

  0008d	eb 09		 jmp	 SHORT $L191813
$L191814:
  0008f	8b 45 ec	 mov	 eax, DWORD PTR __Next$[ebp]
  00092	83 c0 04	 add	 eax, 4
  00095	89 45 ec	 mov	 DWORD PTR __Next$[ebp], eax
$L191813:
  00098	8b 4d ec	 mov	 ecx, DWORD PTR __Next$[ebp]
  0009b	3b 4d 10	 cmp	 ecx, DWORD PTR __Dest$[ebp]
  0009e	74 0e		 je	 SHORT $L191815

; 85   : 		_Al.destroy(_Next);

  000a0	8b 55 ec	 mov	 edx, DWORD PTR __Next$[ebp]
  000a3	52		 push	 edx
  000a4	8b 4d 14	 mov	 ecx, DWORD PTR __Al$[ebp]
  000a7	e8 00 00 00 00	 call	 ?destroy@?$allocator@H@std@@QAEXPAH@Z ; std::allocator<int>::destroy
  000ac	eb e1		 jmp	 SHORT $L191814
$L191815:

; 86   : 	_RERAISE;

  000ae	6a 00		 push	 0
  000b0	6a 00		 push	 0
  000b2	e8 00 00 00 00	 call	 __CxxThrowException@8
$L193072:

; 87   : 	_CATCH_END

  000b7	c7 45 fc ff ff
	ff ff		 mov	 DWORD PTR __$EHRec$[ebp+12], -1

; 88   : 	return (_Dest);

  000be	8b 45 10	 mov	 eax, DWORD PTR __Dest$[ebp]
$L193071:

; 89   : 	}

  000c1	8b 4d f4	 mov	 ecx, DWORD PTR __$EHRec$[ebp+4]
  000c4	64 89 0d 00 00
	00 00		 mov	 DWORD PTR fs:__except_list, ecx
  000cb	5f		 pop	 edi
  000cc	5e		 pop	 esi
  000cd	5b		 pop	 ebx
  000ce	83 c4 1c	 add	 esp, 28			; 0000001cH
  000d1	3b ec		 cmp	 ebp, esp
  000d3	e8 00 00 00 00	 call	 __RTC_CheckEsp
  000d8	8b e5		 mov	 esp, ebp
  000da	5d		 pop	 ebp
  000db	c3		 ret	 0
_TEXT	ENDS
;	COMDAT text$x
text$x	SEGMENT
__ehhandler$??$_Uninit_copy@Vconst_iterator@?$vector@HV?$allocator@H@std@@@std@@PAHV?$allocator@H@3@@std@@YAPAHVconst_iterator@?$vector@HV?$allocator@H@std@@@0@0PAHAAV?$allocator@H@0@U_Nonscalar_ptr_iterator_tag@0@@Z:
  00000	b8 00 00 00 00	 mov	 eax, OFFSET FLAT:$T193075
  00005	e9 00 00 00 00	 jmp	 ___CxxFrameHandler
text$x	ENDS
??$_Uninit_copy@Vconst_iterator@?$vector@HV?$allocator@H@std@@@std@@PAHV?$allocator@H@3@@std@@YAPAHVconst_iterator@?$vector@HV?$allocator@H@std@@@0@0PAHAAV?$allocator@H@0@U_Nonscalar_ptr_iterator_tag@0@@Z ENDP ; std::_Uninit_copy<std::vector<int,std::allocator<int> >::const_iterator,int *,std::allocator<int> >
; Function compile flags: /Odt /RTCsu
; File d:\program files (x86)\microsoft visual studio .net 2003\vc7\include\xutility
;	COMDAT ??$fill_n@PAPAVCPoint@@IPAV1@@std@@YAXPAPAVCPoint@@IABQAV1@@Z
_TEXT	SEGMENT
__First$ = 8						; size = 4
__Count$ = 12						; size = 4
__Val$ = 16						; size = 4
??$fill_n@PAPAVCPoint@@IPAV1@@std@@YAXPAPAVCPoint@@IABQAV1@@Z PROC NEAR ; std::fill_n<CPoint * *,unsigned int,CPoint *>, COMDAT

; 1159 : 	{	// copy _Val _Count times through [_First, ...)

  00000	55		 push	 ebp
  00001	8b ec		 mov	 ebp, esp

; 1160 : 	for (; 0 < _Count; --_Count, ++_First)

  00003	eb 12		 jmp	 SHORT $L191817
$L191818:
  00005	8b 45 0c	 mov	 eax, DWORD PTR __Count$[ebp]
  00008	83 e8 01	 sub	 eax, 1
  0000b	89 45 0c	 mov	 DWORD PTR __Count$[ebp], eax
  0000e	8b 4d 08	 mov	 ecx, DWORD PTR __First$[ebp]
  00011	83 c1 04	 add	 ecx, 4
  00014	89 4d 08	 mov	 DWORD PTR __First$[ebp], ecx
$L191817:
  00017	83 7d 0c 00	 cmp	 DWORD PTR __Count$[ebp], 0
  0001b	76 0c		 jbe	 SHORT $L191816

; 1161 : 		*_First = _Val;

  0001d	8b 55 08	 mov	 edx, DWORD PTR __First$[ebp]
  00020	8b 45 10	 mov	 eax, DWORD PTR __Val$[ebp]
  00023	8b 08		 mov	 ecx, DWORD PTR [eax]
  00025	89 0a		 mov	 DWORD PTR [edx], ecx
  00027	eb dc		 jmp	 SHORT $L191818
$L191816:

; 1162 : 	}

  00029	5d		 pop	 ebp
  0002a	c3		 ret	 0
??$fill_n@PAPAVCPoint@@IPAV1@@std@@YAXPAPAVCPoint@@IABQAV1@@Z ENDP ; std::fill_n<CPoint * *,unsigned int,CPoint *>
; Function compile flags: /Odt /RTCsu
_TEXT	ENDS
;	COMDAT ??$fill_n@PAHIH@std@@YAXPAHIABH@Z
_TEXT	SEGMENT
__First$ = 8						; size = 4
__Count$ = 12						; size = 4
__Val$ = 16						; size = 4
??$fill_n@PAHIH@std@@YAXPAHIABH@Z PROC NEAR		; std::fill_n<int *,unsigned int,int>, COMDAT

; 1159 : 	{	// copy _Val _Count times through [_First, ...)

  00000	55		 push	 ebp
  00001	8b ec		 mov	 ebp, esp

; 1160 : 	for (; 0 < _Count; --_Count, ++_First)

  00003	eb 12		 jmp	 SHORT $L191821
$L191822:
  00005	8b 45 0c	 mov	 eax, DWORD PTR __Count$[ebp]
  00008	83 e8 01	 sub	 eax, 1
  0000b	89 45 0c	 mov	 DWORD PTR __Count$[ebp], eax
  0000e	8b 4d 08	 mov	 ecx, DWORD PTR __First$[ebp]
  00011	83 c1 04	 add	 ecx, 4
  00014	89 4d 08	 mov	 DWORD PTR __First$[ebp], ecx
$L191821:
  00017	83 7d 0c 00	 cmp	 DWORD PTR __Count$[ebp], 0
  0001b	76 0c		 jbe	 SHORT $L191820

; 1161 : 		*_First = _Val;

  0001d	8b 55 08	 mov	 edx, DWORD PTR __First$[ebp]
  00020	8b 45 10	 mov	 eax, DWORD PTR __Val$[ebp]
  00023	8b 08		 mov	 ecx, DWORD PTR [eax]
  00025	89 0a		 mov	 DWORD PTR [edx], ecx
  00027	eb dc		 jmp	 SHORT $L191822
$L191820:

; 1162 : 	}

  00029	5d		 pop	 ebp
  0002a	c3		 ret	 0
??$fill_n@PAHIH@std@@YAXPAHIABH@Z ENDP			; std::fill_n<int *,unsigned int,int>
; Function compile flags: /Odt /RTCsu
; File d:\program files (x86)\microsoft visual studio .net 2003\vc7\include\memory
_TEXT	ENDS
;	COMDAT ??$_Uninit_copy@HH@std@@YAPAHPAH00AAV?$allocator@H@0@U_Scalar_ptr_iterator_tag@0@@Z
_TEXT	SEGMENT
__Count$ = -4						; size = 4
__First$ = 8						; size = 4
__Last$ = 12						; size = 4
__Dest$ = 16						; size = 4
___formal$ = 20						; size = 4
___formal$ = 24						; size = 1
??$_Uninit_copy@HH@std@@YAPAHPAH00AAV?$allocator@H@0@U_Scalar_ptr_iterator_tag@0@@Z PROC NEAR ; std::_Uninit_copy<int,int>, COMDAT

; 105  : 	{	// copy [_First, _Last) to raw _Dest, (const) scalar type

  00000	55		 push	 ebp
  00001	8b ec		 mov	 ebp, esp
  00003	51		 push	 ecx
  00004	56		 push	 esi
  00005	c7 45 fc cc cc
	cc cc		 mov	 DWORD PTR [ebp-4], -858993460 ; ccccccccH

; 106  : 	size_t _Count = (size_t)(_Last - _First);

  0000c	8b 45 0c	 mov	 eax, DWORD PTR __Last$[ebp]
  0000f	2b 45 08	 sub	 eax, DWORD PTR __First$[ebp]
  00012	c1 f8 02	 sar	 eax, 2
  00015	89 45 fc	 mov	 DWORD PTR __Count$[ebp], eax

; 107  : 	return ((_Ty2 *)memmove(&*_Dest, &*_First,
; 108  : 		_Count * sizeof (*_First)) + _Count);	// NB: non-overlapping move

  00018	8b 4d fc	 mov	 ecx, DWORD PTR __Count$[ebp]
  0001b	c1 e1 02	 shl	 ecx, 2
  0001e	8b f4		 mov	 esi, esp
  00020	51		 push	 ecx
  00021	8b 55 08	 mov	 edx, DWORD PTR __First$[ebp]
  00024	52		 push	 edx
  00025	8b 45 10	 mov	 eax, DWORD PTR __Dest$[ebp]
  00028	50		 push	 eax
  00029	ff 15 00 00 00
	00		 call	 DWORD PTR __imp__memmove
  0002f	83 c4 0c	 add	 esp, 12			; 0000000cH
  00032	3b f4		 cmp	 esi, esp
  00034	e8 00 00 00 00	 call	 __RTC_CheckEsp
  00039	8b 4d fc	 mov	 ecx, DWORD PTR __Count$[ebp]
  0003c	8d 04 88	 lea	 eax, DWORD PTR [eax+ecx*4]

; 109  : 	}

  0003f	5e		 pop	 esi
  00040	83 c4 04	 add	 esp, 4
  00043	3b ec		 cmp	 ebp, esp
  00045	e8 00 00 00 00	 call	 __RTC_CheckEsp
  0004a	8b e5		 mov	 esp, ebp
  0004c	5d		 pop	 ebp
  0004d	c3		 ret	 0
??$_Uninit_copy@HH@std@@YAPAHPAH00AAV?$allocator@H@0@U_Scalar_ptr_iterator_tag@0@@Z ENDP ; std::_Uninit_copy<int,int>
_TEXT	ENDS
PUBLIC	??$_Construct@HH@std@@YAXPAHABH@Z		; std::_Construct<int,int>
; Function compile flags: /Odt /RTCsu
; File d:\program files (x86)\microsoft visual studio .net 2003\vc7\include\xmemory
;	COMDAT ?construct@?$allocator@H@std@@QAEXPAHABH@Z
_TEXT	SEGMENT
_this$ = -4						; size = 4
__Ptr$ = 8						; size = 4
__Val$ = 12						; size = 4
?construct@?$allocator@H@std@@QAEXPAHABH@Z PROC NEAR	; std::allocator<int>::construct, COMDAT
; _this$ = ecx

; 146  : 		{	// construct object at _Ptr with value _Val

  00000	55		 push	 ebp
  00001	8b ec		 mov	 ebp, esp
  00003	51		 push	 ecx
  00004	c7 45 fc cc cc
	cc cc		 mov	 DWORD PTR [ebp-4], -858993460 ; ccccccccH
  0000b	89 4d fc	 mov	 DWORD PTR _this$[ebp], ecx

; 147  : 		_Construct(_Ptr, _Val);

  0000e	8b 45 0c	 mov	 eax, DWORD PTR __Val$[ebp]
  00011	50		 push	 eax
  00012	8b 4d 08	 mov	 ecx, DWORD PTR __Ptr$[ebp]
  00015	51		 push	 ecx
  00016	e8 00 00 00 00	 call	 ??$_Construct@HH@std@@YAXPAHABH@Z ; std::_Construct<int,int>
  0001b	83 c4 08	 add	 esp, 8

; 148  : 		}

  0001e	83 c4 04	 add	 esp, 4
  00021	3b ec		 cmp	 ebp, esp
  00023	e8 00 00 00 00	 call	 __RTC_CheckEsp
  00028	8b e5		 mov	 esp, ebp
  0002a	5d		 pop	 ebp
  0002b	c2 08 00	 ret	 8
?construct@?$allocator@H@std@@QAEXPAHABH@Z ENDP		; std::allocator<int>::construct
_TEXT	ENDS
PUBLIC	??$_Destroy@H@std@@YAXPAH@Z			; std::_Destroy<int>
; Function compile flags: /Odt /RTCsu
;	COMDAT ?destroy@?$allocator@H@std@@QAEXPAH@Z
_TEXT	SEGMENT
_this$ = -4						; size = 4
__Ptr$ = 8						; size = 4
?destroy@?$allocator@H@std@@QAEXPAH@Z PROC NEAR		; std::allocator<int>::destroy, COMDAT
; _this$ = ecx

; 151  : 		{	// destroy object at _Ptr

  00000	55		 push	 ebp
  00001	8b ec		 mov	 ebp, esp
  00003	51		 push	 ecx
  00004	c7 45 fc cc cc
	cc cc		 mov	 DWORD PTR [ebp-4], -858993460 ; ccccccccH
  0000b	89 4d fc	 mov	 DWORD PTR _this$[ebp], ecx

; 152  : 		_Destroy(_Ptr);

  0000e	8b 45 08	 mov	 eax, DWORD PTR __Ptr$[ebp]
  00011	50		 push	 eax
  00012	e8 00 00 00 00	 call	 ??$_Destroy@H@std@@YAXPAH@Z ; std::_Destroy<int>
  00017	83 c4 04	 add	 esp, 4

; 153  : 		}

  0001a	83 c4 04	 add	 esp, 4
  0001d	3b ec		 cmp	 ebp, esp
  0001f	e8 00 00 00 00	 call	 __RTC_CheckEsp
  00024	8b e5		 mov	 esp, ebp
  00026	5d		 pop	 ebp
  00027	c2 04 00	 ret	 4
?destroy@?$allocator@H@std@@QAEXPAH@Z ENDP		; std::allocator<int>::destroy
; Function compile flags: /Odt /RTCsu
; File d:\program files (x86)\microsoft visual studio .net 2003\vc7\include\vector
_TEXT	ENDS
;	COMDAT ??Econst_iterator@?$vector@HV?$allocator@H@std@@@std@@QAEAAV012@XZ
_TEXT	SEGMENT
_this$ = -4						; size = 4
??Econst_iterator@?$vector@HV?$allocator@H@std@@@std@@QAEAAV012@XZ PROC NEAR ; std::vector<int,std::allocator<int> >::const_iterator::operator++, COMDAT
; _this$ = ecx

; 91   : 			{	// preincrement

  00000	55		 push	 ebp
  00001	8b ec		 mov	 ebp, esp
  00003	51		 push	 ecx
  00004	c7 45 fc cc cc
	cc cc		 mov	 DWORD PTR [ebp-4], -858993460 ; ccccccccH
  0000b	89 4d fc	 mov	 DWORD PTR _this$[ebp], ecx

; 92   : 			++_Myptr;

  0000e	8b 45 fc	 mov	 eax, DWORD PTR _this$[ebp]
  00011	8b 08		 mov	 ecx, DWORD PTR [eax]
  00013	83 c1 04	 add	 ecx, 4
  00016	8b 55 fc	 mov	 edx, DWORD PTR _this$[ebp]
  00019	89 0a		 mov	 DWORD PTR [edx], ecx

; 93   : 			return (*this);

  0001b	8b 45 fc	 mov	 eax, DWORD PTR _this$[ebp]

; 94   : 			}

  0001e	8b e5		 mov	 esp, ebp
  00020	5d		 pop	 ebp
  00021	c3		 ret	 0
??Econst_iterator@?$vector@HV?$allocator@H@std@@@std@@QAEAAV012@XZ ENDP ; std::vector<int,std::allocator<int> >::const_iterator::operator++
; Function compile flags: /Odt /RTCsu
; File d:\program files (x86)\microsoft visual studio .net 2003\vc7\include\xmemory
_TEXT	ENDS
;	COMDAT ??$_Construct@HH@std@@YAXPAHABH@Z
_TEXT	SEGMENT
tv68 = -8						; size = 4
$T193089 = -4						; size = 4
__Ptr$ = 8						; size = 4
__Val$ = 12						; size = 4
??$_Construct@HH@std@@YAXPAHABH@Z PROC NEAR		; std::_Construct<int,int>, COMDAT

; 41   : 	{	// construct object at _Ptr with value _Val

  00000	55		 push	 ebp
  00001	8b ec		 mov	 ebp, esp
  00003	83 ec 08	 sub	 esp, 8
  00006	c7 45 f8 cc cc
	cc cc		 mov	 DWORD PTR [ebp-8], -858993460 ; ccccccccH
  0000d	c7 45 fc cc cc
	cc cc		 mov	 DWORD PTR [ebp-4], -858993460 ; ccccccccH

; 42   : 	new ((void _FARQ *)_Ptr) _T1(_Val);

  00014	8b 45 08	 mov	 eax, DWORD PTR __Ptr$[ebp]
  00017	50		 push	 eax
  00018	6a 04		 push	 4
  0001a	e8 00 00 00 00	 call	 ??2@YAPAXIPAX@Z		; operator new
  0001f	83 c4 08	 add	 esp, 8
  00022	89 45 fc	 mov	 DWORD PTR $T193089[ebp], eax
  00025	83 7d fc 00	 cmp	 DWORD PTR $T193089[ebp], 0
  00029	74 12		 je	 SHORT $L193090
  0002b	8b 4d fc	 mov	 ecx, DWORD PTR $T193089[ebp]
  0002e	8b 55 0c	 mov	 edx, DWORD PTR __Val$[ebp]
  00031	8b 02		 mov	 eax, DWORD PTR [edx]
  00033	89 01		 mov	 DWORD PTR [ecx], eax
  00035	8b 4d fc	 mov	 ecx, DWORD PTR $T193089[ebp]
  00038	89 4d f8	 mov	 DWORD PTR tv68[ebp], ecx
  0003b	eb 07		 jmp	 SHORT $L191844
$L193090:
  0003d	c7 45 f8 00 00
	00 00		 mov	 DWORD PTR tv68[ebp], 0
$L191844:

; 43   : 	}

  00044	83 c4 08	 add	 esp, 8
  00047	3b ec		 cmp	 ebp, esp
  00049	e8 00 00 00 00	 call	 __RTC_CheckEsp
  0004e	8b e5		 mov	 esp, ebp
  00050	5d		 pop	 ebp
  00051	c3		 ret	 0
??$_Construct@HH@std@@YAXPAHABH@Z ENDP			; std::_Construct<int,int>
; Function compile flags: /Odt /RTCsu
_TEXT	ENDS
;	COMDAT ??$_Destroy@H@std@@YAXPAH@Z
_TEXT	SEGMENT
__Ptr$ = 8						; size = 4
??$_Destroy@H@std@@YAXPAH@Z PROC NEAR			; std::_Destroy<int>, COMDAT

; 48   : 	{	// destroy object at _Ptr

  00000	55		 push	 ebp
  00001	8b ec		 mov	 ebp, esp

; 49   : 	_DESTRUCTOR(_Ty, _Ptr);
; 50   : 	}

  00003	5d		 pop	 ebp
  00004	c3		 ret	 0
??$_Destroy@H@std@@YAXPAH@Z ENDP			; std::_Destroy<int>
; Function compile flags: /Odt /RTCsu
; File d:\program files (x86)\microsoft visual studio .net 2003\vc7\include\xutility
_TEXT	ENDS
;	COMDAT ?_Ptr_cat@std@@YA?AU_Scalar_ptr_iterator_tag@1@PAH0@Z
_TEXT	SEGMENT
__Cat$ = -5						; size = 1
___formal$ = 8						; size = 4
___formal$ = 12						; size = 4
?_Ptr_cat@std@@YA?AU_Scalar_ptr_iterator_tag@1@PAH0@Z PROC NEAR ; std::_Ptr_cat, COMDAT

; 335  : 	{	// return pointer category from pointer to int arguments

  00000	55		 push	 ebp
  00001	8b ec		 mov	 ebp, esp
  00003	83 ec 0c	 sub	 esp, 12			; 0000000cH
  00006	c7 45 f4 cc cc
	cc cc		 mov	 DWORD PTR [ebp-12], -858993460 ; ccccccccH
  0000d	c7 45 f8 cc cc
	cc cc		 mov	 DWORD PTR [ebp-8], -858993460 ; ccccccccH
  00014	c7 45 fc cc cc
	cc cc		 mov	 DWORD PTR [ebp-4], -858993460 ; ccccccccH

; 336  : 	_Scalar_ptr_iterator_tag _Cat;
; 337  : 	return (_Cat);

  0001b	8a 45 fb	 mov	 al, BYTE PTR __Cat$[ebp]

; 338  : 	}

  0001e	52		 push	 edx
  0001f	8b cd		 mov	 ecx, ebp
  00021	50		 push	 eax
  00022	8d 15 00 00 00
	00		 lea	 edx, DWORD PTR $L193096
  00028	e8 00 00 00 00	 call	 @_RTC_CheckStackVars@8
  0002d	58		 pop	 eax
  0002e	5a		 pop	 edx
  0002f	8b e5		 mov	 esp, ebp
  00031	5d		 pop	 ebp
  00032	c3		 ret	 0
$L193096:
  00033	01 00 00 00	 DD	 1
  00037	00 00 00 00	 DD	 $L193095
$L193095:
  0003b	fb ff ff ff	 DD	 -5			; fffffffbH
  0003f	01 00 00 00	 DD	 1
  00043	00 00 00 00	 DD	 $L193094
$L193094:
  00047	5f		 DB	 95			; 0000005fH
  00048	43		 DB	 67			; 00000043H
  00049	61		 DB	 97			; 00000061H
  0004a	74		 DB	 116			; 00000074H
  0004b	00		 DB	 0
?_Ptr_cat@std@@YA?AU_Scalar_ptr_iterator_tag@1@PAH0@Z ENDP ; std::_Ptr_cat
_TEXT	ENDS
EXTRN	__imp_?c_str@?$basic_string@DU?$char_traits@D@std@@V?$allocator@D@2@@std@@QBEPBDXZ:NEAR
; Function compile flags: /Odt /RTCsu
; File d:\program files (x86)\microsoft visual studio .net 2003\vc7\include\stdexcept
;	COMDAT ?what@logic_error@std@@UBEPBDXZ
_TEXT	SEGMENT
_this$ = -4						; size = 4
?what@logic_error@std@@UBEPBDXZ PROC NEAR		; std::logic_error::what, COMDAT
; _this$ = ecx

; 26   : 		{	// return pointer to message string

  00000	55		 push	 ebp
  00001	8b ec		 mov	 ebp, esp
  00003	51		 push	 ecx
  00004	56		 push	 esi
  00005	c7 45 fc cc cc
	cc cc		 mov	 DWORD PTR [ebp-4], -858993460 ; ccccccccH
  0000c	89 4d fc	 mov	 DWORD PTR _this$[ebp], ecx

; 27   : 		return (_Str.c_str());

  0000f	8b 4d fc	 mov	 ecx, DWORD PTR _this$[ebp]
  00012	83 c1 0c	 add	 ecx, 12			; 0000000cH
  00015	8b f4		 mov	 esi, esp
  00017	ff 15 00 00 00
	00		 call	 DWORD PTR __imp_?c_str@?$basic_string@DU?$char_traits@D@std@@V?$allocator@D@2@@std@@QBEPBDXZ
  0001d	3b f4		 cmp	 esi, esp
  0001f	e8 00 00 00 00	 call	 __RTC_CheckEsp

; 28   : 		}

  00024	5e		 pop	 esi
  00025	83 c4 04	 add	 esp, 4
  00028	3b ec		 cmp	 ebp, esp
  0002a	e8 00 00 00 00	 call	 __RTC_CheckEsp
  0002f	8b e5		 mov	 esp, ebp
  00031	5d		 pop	 ebp
  00032	c3		 ret	 0
?what@logic_error@std@@UBEPBDXZ ENDP			; std::logic_error::what
_TEXT	ENDS
PUBLIC	??0logic_error@std@@QAE@ABV?$basic_string@DU?$char_traits@D@std@@V?$allocator@D@2@@1@@Z ; std::logic_error::logic_error
; Function compile flags: /Odt /RTCsu
;	COMDAT ??0length_error@std@@QAE@ABV?$basic_string@DU?$char_traits@D@std@@V?$allocator@D@2@@1@@Z
_TEXT	SEGMENT
_this$ = -4						; size = 4
__Message$ = 8						; size = 4
??0length_error@std@@QAE@ABV?$basic_string@DU?$char_traits@D@std@@V?$allocator@D@2@@1@@Z PROC NEAR ; std::length_error::length_error, COMDAT
; _this$ = ecx

; 95   : 		{	// construct from message string

  00000	55		 push	 ebp
  00001	8b ec		 mov	 ebp, esp
  00003	51		 push	 ecx
  00004	c7 45 fc cc cc
	cc cc		 mov	 DWORD PTR [ebp-4], -858993460 ; ccccccccH
  0000b	89 4d fc	 mov	 DWORD PTR _this$[ebp], ecx
  0000e	8b 45 08	 mov	 eax, DWORD PTR __Message$[ebp]
  00011	50		 push	 eax
  00012	8b 4d fc	 mov	 ecx, DWORD PTR _this$[ebp]
  00015	e8 00 00 00 00	 call	 ??0logic_error@std@@QAE@ABV?$basic_string@DU?$char_traits@D@std@@V?$allocator@D@2@@1@@Z ; std::logic_error::logic_error
  0001a	8b 4d fc	 mov	 ecx, DWORD PTR _this$[ebp]
  0001d	c7 01 00 00 00
	00		 mov	 DWORD PTR [ecx], OFFSET FLAT:??_7length_error@std@@6B@

; 96   : 		}

  00023	8b 45 fc	 mov	 eax, DWORD PTR _this$[ebp]
  00026	83 c4 04	 add	 esp, 4
  00029	3b ec		 cmp	 ebp, esp
  0002b	e8 00 00 00 00	 call	 __RTC_CheckEsp
  00030	8b e5		 mov	 esp, ebp
  00032	5d		 pop	 ebp
  00033	c2 04 00	 ret	 4
??0length_error@std@@QAE@ABV?$basic_string@DU?$char_traits@D@std@@V?$allocator@D@2@@1@@Z ENDP ; std::length_error::length_error
_TEXT	ENDS
PUBLIC	??_7logic_error@std@@6B@			; std::logic_error::`vftable'
PUBLIC	??_Glogic_error@std@@UAEPAXI@Z			; std::logic_error::`scalar deleting destructor'
PUBLIC	??_R4logic_error@std@@6B@			; std::logic_error::`RTTI Complete Object Locator'
PUBLIC	??_R3logic_error@std@@8				; std::logic_error::`RTTI Class Hierarchy Descriptor'
PUBLIC	??_R2logic_error@std@@8				; std::logic_error::`RTTI Base Class Array'
EXTRN	__imp_??0exception@@QAE@XZ:NEAR
EXTRN	__imp_??1exception@@UAE@XZ:NEAR
EXTRN	??_Elogic_error@std@@UAEPAXI@Z:NEAR		; std::logic_error::`vector deleting destructor'
;	COMDAT xdata$x
xdata$x	SEGMENT
$T193106 DD	0ffffffffH
	DD	FLAT:$L193101
$T193104 DD	019930520H
	DD	01H
	DD	FLAT:$T193106
	DD	2 DUP(00H)
	DD	2 DUP(00H)
xdata$x	ENDS
;	COMDAT ??_7logic_error@std@@6B@
CONST	SEGMENT
??_7logic_error@std@@6B@ DD FLAT:??_R4logic_error@std@@6B@ ; std::logic_error::`vftable'
	DD	FLAT:??_Elogic_error@std@@UAEPAXI@Z
	DD	FLAT:?what@logic_error@std@@UBEPBDXZ
CONST	ENDS
;	COMDAT ??_R4logic_error@std@@6B@
rdata$r	SEGMENT
??_R4logic_error@std@@6B@ DD 00H			; std::logic_error::`RTTI Complete Object Locator'
	DD	00H
	DD	00H
	DD	FLAT:??_R0?AVlogic_error@std@@@8
	DD	FLAT:??_R3logic_error@std@@8
rdata$r	ENDS
;	COMDAT ??_R3logic_error@std@@8
rdata$r	SEGMENT
??_R3logic_error@std@@8 DD 00H				; std::logic_error::`RTTI Class Hierarchy Descriptor'
	DD	00H
	DD	02H
	DD	FLAT:??_R2logic_error@std@@8
rdata$r	ENDS
;	COMDAT ??_R2logic_error@std@@8
rdata$r	SEGMENT
??_R2logic_error@std@@8 DD FLAT:??_R1A@?0A@A@logic_error@std@@8 ; std::logic_error::`RTTI Base Class Array'
	DD	FLAT:??_R1A@?0A@A@exception@@8
; Function compile flags: /Odt /RTCsu
rdata$r	ENDS
;	COMDAT ??0logic_error@std@@QAE@ABV?$basic_string@DU?$char_traits@D@std@@V?$allocator@D@2@@1@@Z
_TEXT	SEGMENT
_this$ = -16						; size = 4
__$EHRec$ = -12						; size = 12
__Message$ = 8						; size = 4
??0logic_error@std@@QAE@ABV?$basic_string@DU?$char_traits@D@std@@V?$allocator@D@2@@1@@Z PROC NEAR ; std::logic_error::logic_error, COMDAT
; _this$ = ecx

; 19   : 		{	// construct from message string

  00000	55		 push	 ebp
  00001	8b ec		 mov	 ebp, esp
  00003	6a ff		 push	 -1
  00005	68 00 00 00 00	 push	 __ehhandler$??0logic_error@std@@QAE@ABV?$basic_string@DU?$char_traits@D@std@@V?$allocator@D@2@@1@@Z
  0000a	64 a1 00 00 00
	00		 mov	 eax, DWORD PTR fs:__except_list
  00010	50		 push	 eax
  00011	64 89 25 00 00
	00 00		 mov	 DWORD PTR fs:__except_list, esp
  00018	51		 push	 ecx
  00019	56		 push	 esi
  0001a	c7 45 f0 cc cc
	cc cc		 mov	 DWORD PTR [ebp-16], -858993460 ; ccccccccH
  00021	89 4d f0	 mov	 DWORD PTR _this$[ebp], ecx
  00024	8b f4		 mov	 esi, esp
  00026	8b 4d f0	 mov	 ecx, DWORD PTR _this$[ebp]
  00029	ff 15 00 00 00
	00		 call	 DWORD PTR __imp_??0exception@@QAE@XZ
  0002f	3b f4		 cmp	 esi, esp
  00031	e8 00 00 00 00	 call	 __RTC_CheckEsp
  00036	c7 45 fc 00 00
	00 00		 mov	 DWORD PTR __$EHRec$[ebp+8], 0
  0003d	8b 45 f0	 mov	 eax, DWORD PTR _this$[ebp]
  00040	c7 00 00 00 00
	00		 mov	 DWORD PTR [eax], OFFSET FLAT:??_7logic_error@std@@6B@
  00046	8b f4		 mov	 esi, esp
  00048	8b 4d 08	 mov	 ecx, DWORD PTR __Message$[ebp]
  0004b	51		 push	 ecx
  0004c	8b 4d f0	 mov	 ecx, DWORD PTR _this$[ebp]
  0004f	83 c1 0c	 add	 ecx, 12			; 0000000cH
  00052	ff 15 00 00 00
	00		 call	 DWORD PTR __imp_??0?$basic_string@DU?$char_traits@D@std@@V?$allocator@D@2@@std@@QAE@ABV01@@Z
  00058	3b f4		 cmp	 esi, esp
  0005a	e8 00 00 00 00	 call	 __RTC_CheckEsp

; 20   : 		}

  0005f	c7 45 fc ff ff
	ff ff		 mov	 DWORD PTR __$EHRec$[ebp+8], -1
  00066	8b 45 f0	 mov	 eax, DWORD PTR _this$[ebp]
  00069	8b 4d f4	 mov	 ecx, DWORD PTR __$EHRec$[ebp]
  0006c	64 89 0d 00 00
	00 00		 mov	 DWORD PTR fs:__except_list, ecx
  00073	5e		 pop	 esi
  00074	83 c4 10	 add	 esp, 16			; 00000010H
  00077	3b ec		 cmp	 ebp, esp
  00079	e8 00 00 00 00	 call	 __RTC_CheckEsp
  0007e	8b e5		 mov	 esp, ebp
  00080	5d		 pop	 ebp
  00081	c2 04 00	 ret	 4
_TEXT	ENDS
;	COMDAT text$x
text$x	SEGMENT
$L193101:
  00000	8b f4		 mov	 esi, esp
  00002	8b 4d f0	 mov	 ecx, DWORD PTR _this$[ebp]
  00005	ff 15 00 00 00
	00		 call	 DWORD PTR __imp_??1exception@@UAE@XZ
  0000b	3b f4		 cmp	 esi, esp
  0000d	e9 00 00 00 00	 jmp	 __RTC_CheckEsp
__ehhandler$??0logic_error@std@@QAE@ABV?$basic_string@DU?$char_traits@D@std@@V?$allocator@D@2@@1@@Z:
  00012	b8 00 00 00 00	 mov	 eax, OFFSET FLAT:$T193104
  00017	e9 00 00 00 00	 jmp	 ___CxxFrameHandler
text$x	ENDS
??0logic_error@std@@QAE@ABV?$basic_string@DU?$char_traits@D@std@@V?$allocator@D@2@@1@@Z ENDP ; std::logic_error::logic_error
PUBLIC	??1logic_error@std@@UAE@XZ			; std::logic_error::~logic_error
; Function compile flags: /Odt /RTCsu
;	COMDAT ??_Glogic_error@std@@UAEPAXI@Z
_TEXT	SEGMENT
_this$ = -4						; size = 4
___flags$ = 8						; size = 4
??_Glogic_error@std@@UAEPAXI@Z PROC NEAR		; std::logic_error::`scalar deleting destructor', COMDAT
; _this$ = ecx
  00000	55		 push	 ebp
  00001	8b ec		 mov	 ebp, esp
  00003	51		 push	 ecx
  00004	c7 45 fc cc cc
	cc cc		 mov	 DWORD PTR [ebp-4], -858993460 ; ccccccccH
  0000b	89 4d fc	 mov	 DWORD PTR _this$[ebp], ecx
  0000e	8b 4d fc	 mov	 ecx, DWORD PTR _this$[ebp]
  00011	e8 00 00 00 00	 call	 ??1logic_error@std@@UAE@XZ ; std::logic_error::~logic_error
  00016	8b 45 08	 mov	 eax, DWORD PTR ___flags$[ebp]
  00019	83 e0 01	 and	 eax, 1
  0001c	74 0c		 je	 SHORT $L91647
  0001e	8b 4d fc	 mov	 ecx, DWORD PTR _this$[ebp]
  00021	51		 push	 ecx
  00022	e8 00 00 00 00	 call	 ??3@YAXPAX@Z		; operator delete
  00027	83 c4 04	 add	 esp, 4
$L91647:
  0002a	8b 45 fc	 mov	 eax, DWORD PTR _this$[ebp]
  0002d	83 c4 04	 add	 esp, 4
  00030	3b ec		 cmp	 ebp, esp
  00032	e8 00 00 00 00	 call	 __RTC_CheckEsp
  00037	8b e5		 mov	 esp, ebp
  00039	5d		 pop	 ebp
  0003a	c2 04 00	 ret	 4
??_Glogic_error@std@@UAEPAXI@Z ENDP			; std::logic_error::`scalar deleting destructor'
_TEXT	ENDS
;	COMDAT xdata$x
xdata$x	SEGMENT
$T193116 DD	0ffffffffH
	DD	FLAT:$L193111
$T193114 DD	019930520H
	DD	01H
	DD	FLAT:$T193116
	DD	2 DUP(00H)
	DD	2 DUP(00H)
; Function compile flags: /Odt /RTCsu
xdata$x	ENDS
;	COMDAT ??1logic_error@std@@UAE@XZ
_TEXT	SEGMENT
_this$ = -16						; size = 4
__$EHRec$ = -12						; size = 12
??1logic_error@std@@UAE@XZ PROC NEAR			; std::logic_error::~logic_error, COMDAT
; _this$ = ecx

; 23   : 		{}	// destroy the object

  00000	55		 push	 ebp
  00001	8b ec		 mov	 ebp, esp
  00003	6a ff		 push	 -1
  00005	68 00 00 00 00	 push	 __ehhandler$??1logic_error@std@@UAE@XZ
  0000a	64 a1 00 00 00
	00		 mov	 eax, DWORD PTR fs:__except_list
  00010	50		 push	 eax
  00011	64 89 25 00 00
	00 00		 mov	 DWORD PTR fs:__except_list, esp
  00018	51		 push	 ecx
  00019	56		 push	 esi
  0001a	c7 45 f0 cc cc
	cc cc		 mov	 DWORD PTR [ebp-16], -858993460 ; ccccccccH
  00021	89 4d f0	 mov	 DWORD PTR _this$[ebp], ecx
  00024	8b 45 f0	 mov	 eax, DWORD PTR _this$[ebp]
  00027	c7 00 00 00 00
	00		 mov	 DWORD PTR [eax], OFFSET FLAT:??_7logic_error@std@@6B@
  0002d	c7 45 fc 00 00
	00 00		 mov	 DWORD PTR __$EHRec$[ebp+8], 0
  00034	8b 4d f0	 mov	 ecx, DWORD PTR _this$[ebp]
  00037	83 c1 0c	 add	 ecx, 12			; 0000000cH
  0003a	8b f4		 mov	 esi, esp
  0003c	ff 15 00 00 00
	00		 call	 DWORD PTR __imp_??1?$basic_string@DU?$char_traits@D@std@@V?$allocator@D@2@@std@@QAE@XZ
  00042	3b f4		 cmp	 esi, esp
  00044	e8 00 00 00 00	 call	 __RTC_CheckEsp
  00049	c7 45 fc ff ff
	ff ff		 mov	 DWORD PTR __$EHRec$[ebp+8], -1
  00050	8b f4		 mov	 esi, esp
  00052	8b 4d f0	 mov	 ecx, DWORD PTR _this$[ebp]
  00055	ff 15 00 00 00
	00		 call	 DWORD PTR __imp_??1exception@@UAE@XZ
  0005b	3b f4		 cmp	 esi, esp
  0005d	e8 00 00 00 00	 call	 __RTC_CheckEsp
  00062	8b 4d f4	 mov	 ecx, DWORD PTR __$EHRec$[ebp]
  00065	64 89 0d 00 00
	00 00		 mov	 DWORD PTR fs:__except_list, ecx
  0006c	5e		 pop	 esi
  0006d	83 c4 10	 add	 esp, 16			; 00000010H
  00070	3b ec		 cmp	 ebp, esp
  00072	e8 00 00 00 00	 call	 __RTC_CheckEsp
  00077	8b e5		 mov	 esp, ebp
  00079	5d		 pop	 ebp
  0007a	c3		 ret	 0
_TEXT	ENDS
;	COMDAT text$x
text$x	SEGMENT
$L193111:
  00000	8b f4		 mov	 esi, esp
  00002	8b 4d f0	 mov	 ecx, DWORD PTR _this$[ebp]
  00005	ff 15 00 00 00
	00		 call	 DWORD PTR __imp_??1exception@@UAE@XZ
  0000b	3b f4		 cmp	 esi, esp
  0000d	e9 00 00 00 00	 jmp	 __RTC_CheckEsp
__ehhandler$??1logic_error@std@@UAE@XZ:
  00012	b8 00 00 00 00	 mov	 eax, OFFSET FLAT:$T193114
  00017	e9 00 00 00 00	 jmp	 ___CxxFrameHandler
text$x	ENDS
??1logic_error@std@@UAE@XZ ENDP				; std::logic_error::~logic_error
; Function compile flags: /Odt /RTCsu
;	COMDAT ??1length_error@std@@UAE@XZ
_TEXT	SEGMENT
_this$ = -4						; size = 4
??1length_error@std@@UAE@XZ PROC NEAR			; std::length_error::~length_error, COMDAT
; _this$ = ecx

; 99   : 		{}	// destroy the object

  00000	55		 push	 ebp
  00001	8b ec		 mov	 ebp, esp
  00003	51		 push	 ecx
  00004	c7 45 fc cc cc
	cc cc		 mov	 DWORD PTR [ebp-4], -858993460 ; ccccccccH
  0000b	89 4d fc	 mov	 DWORD PTR _this$[ebp], ecx
  0000e	8b 45 fc	 mov	 eax, DWORD PTR _this$[ebp]
  00011	c7 00 00 00 00
	00		 mov	 DWORD PTR [eax], OFFSET FLAT:??_7length_error@std@@6B@
  00017	8b 4d fc	 mov	 ecx, DWORD PTR _this$[ebp]
  0001a	e8 00 00 00 00	 call	 ??1logic_error@std@@UAE@XZ ; std::logic_error::~logic_error
  0001f	83 c4 04	 add	 esp, 4
  00022	3b ec		 cmp	 ebp, esp
  00024	e8 00 00 00 00	 call	 __RTC_CheckEsp
  00029	8b e5		 mov	 esp, ebp
  0002b	5d		 pop	 ebp
  0002c	c3		 ret	 0
??1length_error@std@@UAE@XZ ENDP			; std::length_error::~length_error
; Function compile flags: /Odt /RTCsu
_TEXT	ENDS
;	COMDAT ??_Glength_error@std@@UAEPAXI@Z
_TEXT	SEGMENT
_this$ = -4						; size = 4
___flags$ = 8						; size = 4
??_Glength_error@std@@UAEPAXI@Z PROC NEAR		; std::length_error::`scalar deleting destructor', COMDAT
; _this$ = ecx
  00000	55		 push	 ebp
  00001	8b ec		 mov	 ebp, esp
  00003	51		 push	 ecx
  00004	c7 45 fc cc cc
	cc cc		 mov	 DWORD PTR [ebp-4], -858993460 ; ccccccccH
  0000b	89 4d fc	 mov	 DWORD PTR _this$[ebp], ecx
  0000e	8b 4d fc	 mov	 ecx, DWORD PTR _this$[ebp]
  00011	e8 00 00 00 00	 call	 ??1length_error@std@@UAE@XZ ; std::length_error::~length_error
  00016	8b 45 08	 mov	 eax, DWORD PTR ___flags$[ebp]
  00019	83 e0 01	 and	 eax, 1
  0001c	74 0c		 je	 SHORT $L91713
  0001e	8b 4d fc	 mov	 ecx, DWORD PTR _this$[ebp]
  00021	51		 push	 ecx
  00022	e8 00 00 00 00	 call	 ??3@YAXPAX@Z		; operator delete
  00027	83 c4 04	 add	 esp, 4
$L91713:
  0002a	8b 45 fc	 mov	 eax, DWORD PTR _this$[ebp]
  0002d	83 c4 04	 add	 esp, 4
  00030	3b ec		 cmp	 ebp, esp
  00032	e8 00 00 00 00	 call	 __RTC_CheckEsp
  00037	8b e5		 mov	 esp, ebp
  00039	5d		 pop	 ebp
  0003a	c2 04 00	 ret	 4
??_Glength_error@std@@UAEPAXI@Z ENDP			; std::length_error::`scalar deleting destructor'
; Function compile flags: /Odt /RTCsu
; File d:\program files (x86)\microsoft visual studio .net 2003\vc7\platformsdk\include\gdiplustypes.h
_TEXT	ENDS
;	COMDAT ??0Point@Gdiplus@@QAE@HH@Z
_TEXT	SEGMENT
_this$ = -4						; size = 4
_x$ = 8							; size = 4
_y$ = 12						; size = 4
??0Point@Gdiplus@@QAE@HH@Z PROC NEAR			; Gdiplus::Point::Point, COMDAT
; _this$ = ecx

; 296  :    Point(IN INT x,

  00000	55		 push	 ebp
  00001	8b ec		 mov	 ebp, esp
  00003	51		 push	 ecx
  00004	c7 45 fc cc cc
	cc cc		 mov	 DWORD PTR [ebp-4], -858993460 ; ccccccccH
  0000b	89 4d fc	 mov	 DWORD PTR _this$[ebp], ecx

; 297  :          IN INT y)
; 298  :    {
; 299  :        X = x;

  0000e	8b 45 fc	 mov	 eax, DWORD PTR _this$[ebp]
  00011	8b 4d 08	 mov	 ecx, DWORD PTR _x$[ebp]
  00014	89 08		 mov	 DWORD PTR [eax], ecx

; 300  :        Y = y;

  00016	8b 55 fc	 mov	 edx, DWORD PTR _this$[ebp]
  00019	8b 45 0c	 mov	 eax, DWORD PTR _y$[ebp]
  0001c	89 42 04	 mov	 DWORD PTR [edx+4], eax

; 301  :    }

  0001f	8b 45 fc	 mov	 eax, DWORD PTR _this$[ebp]
  00022	8b e5		 mov	 esp, ebp
  00024	5d		 pop	 ebp
  00025	c2 08 00	 ret	 8
??0Point@Gdiplus@@QAE@HH@Z ENDP				; Gdiplus::Point::Point
; Function compile flags: /Odt /RTCsu
_TEXT	ENDS
;	COMDAT ??0Rect@Gdiplus@@QAE@HHHH@Z
_TEXT	SEGMENT
_this$ = -4						; size = 4
_x$ = 8							; size = 4
_y$ = 12						; size = 4
_width$ = 16						; size = 4
_height$ = 20						; size = 4
??0Rect@Gdiplus@@QAE@HHHH@Z PROC NEAR			; Gdiplus::Rect::Rect, COMDAT
; _this$ = ecx

; 527  :     Rect(IN INT x,

  00000	55		 push	 ebp
  00001	8b ec		 mov	 ebp, esp
  00003	51		 push	 ecx
  00004	c7 45 fc cc cc
	cc cc		 mov	 DWORD PTR [ebp-4], -858993460 ; ccccccccH
  0000b	89 4d fc	 mov	 DWORD PTR _this$[ebp], ecx

; 528  :          IN INT y,
; 529  :          IN INT width,
; 530  :          IN INT height)
; 531  :     {
; 532  :         X = x;

  0000e	8b 45 fc	 mov	 eax, DWORD PTR _this$[ebp]
  00011	8b 4d 08	 mov	 ecx, DWORD PTR _x$[ebp]
  00014	89 08		 mov	 DWORD PTR [eax], ecx

; 533  :         Y = y;

  00016	8b 55 fc	 mov	 edx, DWORD PTR _this$[ebp]
  00019	8b 45 0c	 mov	 eax, DWORD PTR _y$[ebp]
  0001c	89 42 04	 mov	 DWORD PTR [edx+4], eax

; 534  :         Width = width;

  0001f	8b 4d fc	 mov	 ecx, DWORD PTR _this$[ebp]
  00022	8b 55 10	 mov	 edx, DWORD PTR _width$[ebp]
  00025	89 51 08	 mov	 DWORD PTR [ecx+8], edx

; 535  :         Height = height;

  00028	8b 45 fc	 mov	 eax, DWORD PTR _this$[ebp]
  0002b	8b 4d 14	 mov	 ecx, DWORD PTR _height$[ebp]
  0002e	89 48 0c	 mov	 DWORD PTR [eax+12], ecx

; 536  :     }

  00031	8b 45 fc	 mov	 eax, DWORD PTR _this$[ebp]
  00034	8b e5		 mov	 esp, ebp
  00036	5d		 pop	 ebp
  00037	c2 10 00	 ret	 16			; 00000010H
??0Rect@Gdiplus@@QAE@HHHH@Z ENDP			; Gdiplus::Rect::Rect
; Function compile flags: /Odt /RTCsu
; File d:\program files (x86)\microsoft visual studio .net 2003\vc7\platformsdk\include\gdipluscolor.h
_TEXT	ENDS
;	COMDAT ??0Color@Gdiplus@@QAE@XZ
_TEXT	SEGMENT
_this$ = -4						; size = 4
??0Color@Gdiplus@@QAE@XZ PROC NEAR			; Gdiplus::Color::Color, COMDAT
; _this$ = ecx

; 49   :     Color()

  00000	55		 push	 ebp
  00001	8b ec		 mov	 ebp, esp
  00003	51		 push	 ecx
  00004	c7 45 fc cc cc
	cc cc		 mov	 DWORD PTR [ebp-4], -858993460 ; ccccccccH
  0000b	89 4d fc	 mov	 DWORD PTR _this$[ebp], ecx

; 50   :     {
; 51   :         Argb = (ARGB)Color::Black;

  0000e	8b 45 fc	 mov	 eax, DWORD PTR _this$[ebp]
  00011	c7 00 00 00 00
	ff		 mov	 DWORD PTR [eax], -16777216 ; ff000000H

; 52   :     }

  00017	8b 45 fc	 mov	 eax, DWORD PTR _this$[ebp]
  0001a	8b e5		 mov	 esp, ebp
  0001c	5d		 pop	 ebp
  0001d	c3		 ret	 0
??0Color@Gdiplus@@QAE@XZ ENDP				; Gdiplus::Color::Color
_TEXT	ENDS
PUBLIC	?MakeARGB@Color@Gdiplus@@SAKEEEE@Z		; Gdiplus::Color::MakeARGB
; Function compile flags: /Odt /RTCsu
;	COMDAT ?SetFromCOLORREF@Color@Gdiplus@@QAEXK@Z
_TEXT	SEGMENT
_this$ = -4						; size = 4
_rgb$ = 8						; size = 4
?SetFromCOLORREF@Color@Gdiplus@@QAEXK@Z PROC NEAR	; Gdiplus::Color::SetFromCOLORREF, COMDAT
; _this$ = ecx

; 130  :     {

  00000	55		 push	 ebp
  00001	8b ec		 mov	 ebp, esp
  00003	51		 push	 ecx
  00004	c7 45 fc cc cc
	cc cc		 mov	 DWORD PTR [ebp-4], -858993460 ; ccccccccH
  0000b	89 4d fc	 mov	 DWORD PTR _this$[ebp], ecx

; 131  :         Argb = MakeARGB(255, GetRValue(rgb), GetGValue(rgb), GetBValue(rgb));

  0000e	8b 45 08	 mov	 eax, DWORD PTR _rgb$[ebp]
  00011	c1 e8 10	 shr	 eax, 16			; 00000010H
  00014	50		 push	 eax
  00015	0f b7 4d 08	 movzx	 ecx, WORD PTR _rgb$[ebp]
  00019	c1 f9 08	 sar	 ecx, 8
  0001c	51		 push	 ecx
  0001d	8a 55 08	 mov	 dl, BYTE PTR _rgb$[ebp]
  00020	52		 push	 edx
  00021	68 ff 00 00 00	 push	 255			; 000000ffH
  00026	e8 00 00 00 00	 call	 ?MakeARGB@Color@Gdiplus@@SAKEEEE@Z ; Gdiplus::Color::MakeARGB
  0002b	83 c4 10	 add	 esp, 16			; 00000010H
  0002e	8b 4d fc	 mov	 ecx, DWORD PTR _this$[ebp]
  00031	89 01		 mov	 DWORD PTR [ecx], eax

; 132  :     }

  00033	83 c4 04	 add	 esp, 4
  00036	3b ec		 cmp	 ebp, esp
  00038	e8 00 00 00 00	 call	 __RTC_CheckEsp
  0003d	8b e5		 mov	 esp, ebp
  0003f	5d		 pop	 ebp
  00040	c2 04 00	 ret	 4
?SetFromCOLORREF@Color@Gdiplus@@QAEXK@Z ENDP		; Gdiplus::Color::SetFromCOLORREF
; Function compile flags: /Odt /RTCsu
_TEXT	ENDS
;	COMDAT ?MakeARGB@Color@Gdiplus@@SAKEEEE@Z
_TEXT	SEGMENT
_a$ = 8							; size = 1
_r$ = 12						; size = 1
_g$ = 16						; size = 1
_b$ = 20						; size = 1
?MakeARGB@Color@Gdiplus@@SAKEEEE@Z PROC NEAR		; Gdiplus::Color::MakeARGB, COMDAT

; 312  :     {

  00000	55		 push	 ebp
  00001	8b ec		 mov	 ebp, esp

; 313  :         return (((ARGB) (b) <<  BlueShift) |
; 314  :                 ((ARGB) (g) << GreenShift) |
; 315  :                 ((ARGB) (r) <<   RedShift) |
; 316  :                 ((ARGB) (a) << AlphaShift));

  00003	0f b6 45 14	 movzx	 eax, BYTE PTR _b$[ebp]
  00007	0f b6 4d 10	 movzx	 ecx, BYTE PTR _g$[ebp]
  0000b	c1 e1 08	 shl	 ecx, 8
  0000e	0b c1		 or	 eax, ecx
  00010	0f b6 55 0c	 movzx	 edx, BYTE PTR _r$[ebp]
  00014	c1 e2 10	 shl	 edx, 16			; 00000010H
  00017	0b c2		 or	 eax, edx
  00019	0f b6 4d 08	 movzx	 ecx, BYTE PTR _a$[ebp]
  0001d	c1 e1 18	 shl	 ecx, 24			; 00000018H
  00020	0b c1		 or	 eax, ecx

; 317  :     }

  00022	5d		 pop	 ebp
  00023	c3		 ret	 0
?MakeARGB@Color@Gdiplus@@SAKEEEE@Z ENDP			; Gdiplus::Color::MakeARGB
_TEXT	ENDS
PUBLIC	?GetValue@Color@Gdiplus@@QBEKXZ			; Gdiplus::Color::GetValue
EXTRN	_GdipCreatePen1@16:NEAR
; Function compile flags: /Odt /RTCsu
; File d:\program files (x86)\microsoft visual studio .net 2003\vc7\platformsdk\include\gdipluspen.h
;	COMDAT ??0Pen@Gdiplus@@QAE@ABVColor@1@M@Z
_TEXT	SEGMENT
_unit$ = -8						; size = 4
_this$ = -4						; size = 4
_color$ = 8						; size = 4
_width$ = 12						; size = 4
??0Pen@Gdiplus@@QAE@ABVColor@1@M@Z PROC NEAR		; Gdiplus::Pen::Pen, COMDAT
; _this$ = ecx

; 27   :     Pen(IN const Color& color, 

  00000	55		 push	 ebp
  00001	8b ec		 mov	 ebp, esp
  00003	83 ec 08	 sub	 esp, 8
  00006	c7 45 f8 cc cc
	cc cc		 mov	 DWORD PTR [ebp-8], -858993460 ; ccccccccH
  0000d	c7 45 fc cc cc
	cc cc		 mov	 DWORD PTR [ebp-4], -858993460 ; ccccccccH
  00014	89 4d fc	 mov	 DWORD PTR _this$[ebp], ecx

; 28   :         IN REAL width = 1.0f)
; 29   :     {
; 30   :         Unit unit = UnitWorld;

  00017	c7 45 f8 00 00
	00 00		 mov	 DWORD PTR _unit$[ebp], 0

; 31   :         nativePen = NULL;

  0001e	8b 45 fc	 mov	 eax, DWORD PTR _this$[ebp]
  00021	c7 00 00 00 00
	00		 mov	 DWORD PTR [eax], 0

; 32   :         lastResult = DllExports::GdipCreatePen1(color.GetValue(),
; 33   :                                     width, unit, &nativePen);

  00027	8b 4d fc	 mov	 ecx, DWORD PTR _this$[ebp]
  0002a	51		 push	 ecx
  0002b	8b 55 f8	 mov	 edx, DWORD PTR _unit$[ebp]
  0002e	52		 push	 edx
  0002f	8b 45 0c	 mov	 eax, DWORD PTR _width$[ebp]
  00032	50		 push	 eax
  00033	8b 4d 08	 mov	 ecx, DWORD PTR _color$[ebp]
  00036	e8 00 00 00 00	 call	 ?GetValue@Color@Gdiplus@@QBEKXZ ; Gdiplus::Color::GetValue
  0003b	50		 push	 eax
  0003c	e8 00 00 00 00	 call	 _GdipCreatePen1@16
  00041	8b 4d fc	 mov	 ecx, DWORD PTR _this$[ebp]
  00044	89 41 04	 mov	 DWORD PTR [ecx+4], eax

; 34   :     }

  00047	8b 45 fc	 mov	 eax, DWORD PTR _this$[ebp]
  0004a	83 c4 08	 add	 esp, 8
  0004d	3b ec		 cmp	 ebp, esp
  0004f	e8 00 00 00 00	 call	 __RTC_CheckEsp
  00054	8b e5		 mov	 esp, ebp
  00056	5d		 pop	 ebp
  00057	c2 08 00	 ret	 8
??0Pen@Gdiplus@@QAE@ABVColor@1@M@Z ENDP			; Gdiplus::Pen::Pen
; Function compile flags: /Odt /RTCsu
; File d:\program files (x86)\microsoft visual studio .net 2003\vc7\platformsdk\include\gdipluscolor.h
_TEXT	ENDS
;	COMDAT ?GetValue@Color@Gdiplus@@QBEKXZ
_TEXT	SEGMENT
_this$ = -4						; size = 4
?GetValue@Color@Gdiplus@@QBEKXZ PROC NEAR		; Gdiplus::Color::GetValue, COMDAT
; _this$ = ecx

; 120  :     {

  00000	55		 push	 ebp
  00001	8b ec		 mov	 ebp, esp
  00003	51		 push	 ecx
  00004	c7 45 fc cc cc
	cc cc		 mov	 DWORD PTR [ebp-4], -858993460 ; ccccccccH
  0000b	89 4d fc	 mov	 DWORD PTR _this$[ebp], ecx

; 121  :         return Argb;

  0000e	8b 45 fc	 mov	 eax, DWORD PTR _this$[ebp]
  00011	8b 00		 mov	 eax, DWORD PTR [eax]

; 122  :     }

  00013	8b e5		 mov	 esp, ebp
  00015	5d		 pop	 ebp
  00016	c3		 ret	 0
?GetValue@Color@Gdiplus@@QBEKXZ ENDP			; Gdiplus::Color::GetValue
_TEXT	ENDS
EXTRN	_GdipDeletePen@4:NEAR
; Function compile flags: /Odt /RTCsu
; File d:\program files (x86)\microsoft visual studio .net 2003\vc7\platformsdk\include\gdipluspen.h
;	COMDAT ??1Pen@Gdiplus@@QAE@XZ
_TEXT	SEGMENT
_this$ = -4						; size = 4
??1Pen@Gdiplus@@QAE@XZ PROC NEAR			; Gdiplus::Pen::~Pen, COMDAT
; _this$ = ecx

; 46   :     {

  00000	55		 push	 ebp
  00001	8b ec		 mov	 ebp, esp
  00003	51		 push	 ecx
  00004	c7 45 fc cc cc
	cc cc		 mov	 DWORD PTR [ebp-4], -858993460 ; ccccccccH
  0000b	89 4d fc	 mov	 DWORD PTR _this$[ebp], ecx

; 47   :         DllExports::GdipDeletePen(nativePen);

  0000e	8b 45 fc	 mov	 eax, DWORD PTR _this$[ebp]
  00011	8b 08		 mov	 ecx, DWORD PTR [eax]
  00013	51		 push	 ecx
  00014	e8 00 00 00 00	 call	 _GdipDeletePen@4

; 48   :     }

  00019	83 c4 04	 add	 esp, 4
  0001c	3b ec		 cmp	 ebp, esp
  0001e	e8 00 00 00 00	 call	 __RTC_CheckEsp
  00023	8b e5		 mov	 esp, ebp
  00025	5d		 pop	 ebp
  00026	c3		 ret	 0
??1Pen@Gdiplus@@QAE@XZ ENDP				; Gdiplus::Pen::~Pen
_TEXT	ENDS
EXTRN	_GdipCreatePath@8:NEAR
; Function compile flags: /Odt /RTCsu
; File d:\program files (x86)\microsoft visual studio .net 2003\vc7\platformsdk\include\gdipluspath.h
;	COMDAT ??0GraphicsPath@Gdiplus@@QAE@W4FillMode@1@@Z
_TEXT	SEGMENT
_this$ = -4						; size = 4
_fillMode$ = 8						; size = 4
??0GraphicsPath@Gdiplus@@QAE@W4FillMode@1@@Z PROC NEAR	; Gdiplus::GraphicsPath::GraphicsPath, COMDAT
; _this$ = ecx

; 27   :     GraphicsPath(IN FillMode fillMode = FillModeAlternate)

  00000	55		 push	 ebp
  00001	8b ec		 mov	 ebp, esp
  00003	51		 push	 ecx
  00004	c7 45 fc cc cc
	cc cc		 mov	 DWORD PTR [ebp-4], -858993460 ; ccccccccH
  0000b	89 4d fc	 mov	 DWORD PTR _this$[ebp], ecx

; 28   :     {
; 29   :         nativePath = NULL;

  0000e	8b 45 fc	 mov	 eax, DWORD PTR _this$[ebp]
  00011	c7 00 00 00 00
	00		 mov	 DWORD PTR [eax], 0

; 30   :         lastResult = DllExports::GdipCreatePath(fillMode, &nativePath);

  00017	8b 4d fc	 mov	 ecx, DWORD PTR _this$[ebp]
  0001a	51		 push	 ecx
  0001b	8b 55 08	 mov	 edx, DWORD PTR _fillMode$[ebp]
  0001e	52		 push	 edx
  0001f	e8 00 00 00 00	 call	 _GdipCreatePath@8
  00024	8b 4d fc	 mov	 ecx, DWORD PTR _this$[ebp]
  00027	89 41 04	 mov	 DWORD PTR [ecx+4], eax

; 31   :     }

  0002a	8b 45 fc	 mov	 eax, DWORD PTR _this$[ebp]
  0002d	83 c4 04	 add	 esp, 4
  00030	3b ec		 cmp	 ebp, esp
  00032	e8 00 00 00 00	 call	 __RTC_CheckEsp
  00037	8b e5		 mov	 esp, ebp
  00039	5d		 pop	 ebp
  0003a	c2 04 00	 ret	 4
??0GraphicsPath@Gdiplus@@QAE@W4FillMode@1@@Z ENDP	; Gdiplus::GraphicsPath::GraphicsPath
_TEXT	ENDS
EXTRN	_GdipDeletePath@4:NEAR
; Function compile flags: /Odt /RTCsu
;	COMDAT ??1GraphicsPath@Gdiplus@@QAE@XZ
_TEXT	SEGMENT
_this$ = -4						; size = 4
??1GraphicsPath@Gdiplus@@QAE@XZ PROC NEAR		; Gdiplus::GraphicsPath::~GraphicsPath, COMDAT
; _this$ = ecx

; 60   :     {

  00000	55		 push	 ebp
  00001	8b ec		 mov	 ebp, esp
  00003	51		 push	 ecx
  00004	c7 45 fc cc cc
	cc cc		 mov	 DWORD PTR [ebp-4], -858993460 ; ccccccccH
  0000b	89 4d fc	 mov	 DWORD PTR _this$[ebp], ecx

; 61   :         DllExports::GdipDeletePath(nativePath);

  0000e	8b 45 fc	 mov	 eax, DWORD PTR _this$[ebp]
  00011	8b 08		 mov	 ecx, DWORD PTR [eax]
  00013	51		 push	 ecx
  00014	e8 00 00 00 00	 call	 _GdipDeletePath@4

; 62   :     }

  00019	83 c4 04	 add	 esp, 4
  0001c	3b ec		 cmp	 ebp, esp
  0001e	e8 00 00 00 00	 call	 __RTC_CheckEsp
  00023	8b e5		 mov	 esp, ebp
  00025	5d		 pop	 ebp
  00026	c3		 ret	 0
??1GraphicsPath@Gdiplus@@QAE@XZ ENDP			; Gdiplus::GraphicsPath::~GraphicsPath
_TEXT	ENDS
PUBLIC	??0GraphicsPath@Gdiplus@@IAE@PAVGpPath@1@@Z	; Gdiplus::GraphicsPath::GraphicsPath
PUBLIC	?SetStatus@GraphicsPath@Gdiplus@@IBE?AW4Status@2@W432@@Z ; Gdiplus::GraphicsPath::SetStatus
PUBLIC	??3GdiplusBase@Gdiplus@@SAXPAX@Z		; Gdiplus::GdiplusBase::operator delete
PUBLIC	??2GdiplusBase@Gdiplus@@SAPAXI@Z		; Gdiplus::GdiplusBase::operator new
EXTRN	_GdipClonePath@8:NEAR
;	COMDAT xdata$x
xdata$x	SEGMENT
$T193144 DD	0ffffffffH
	DD	FLAT:$L193137
$T193139 DD	019930520H
	DD	01H
	DD	FLAT:$T193144
	DD	2 DUP(00H)
	DD	2 DUP(00H)
; Function compile flags: /Odt /RTCsu
xdata$x	ENDS
;	COMDAT ?Clone@GraphicsPath@Gdiplus@@QBEPAV12@XZ
_TEXT	SEGMENT
tv77 = -40						; size = 4
$T193134 = -36						; size = 4
$T193133 = -32						; size = 4
_clonepath$ = -24					; size = 4
_this$ = -16						; size = 4
__$EHRec$ = -12						; size = 12
?Clone@GraphicsPath@Gdiplus@@QBEPAV12@XZ PROC NEAR	; Gdiplus::GraphicsPath::Clone, COMDAT
; _this$ = ecx

; 65   :     {

  00000	55		 push	 ebp
  00001	8b ec		 mov	 ebp, esp
  00003	6a ff		 push	 -1
  00005	68 00 00 00 00	 push	 __ehhandler$?Clone@GraphicsPath@Gdiplus@@QBEPAV12@XZ
  0000a	64 a1 00 00 00
	00		 mov	 eax, DWORD PTR fs:__except_list
  00010	50		 push	 eax
  00011	64 89 25 00 00
	00 00		 mov	 DWORD PTR fs:__except_list, esp
  00018	83 ec 1c	 sub	 esp, 28			; 0000001cH
  0001b	b8 cc cc cc cc	 mov	 eax, -858993460		; ccccccccH
  00020	89 45 d8	 mov	 DWORD PTR [ebp-40], eax
  00023	89 45 dc	 mov	 DWORD PTR [ebp-36], eax
  00026	89 45 e0	 mov	 DWORD PTR [ebp-32], eax
  00029	89 45 e4	 mov	 DWORD PTR [ebp-28], eax
  0002c	89 45 e8	 mov	 DWORD PTR [ebp-24], eax
  0002f	89 45 ec	 mov	 DWORD PTR [ebp-20], eax
  00032	89 45 f0	 mov	 DWORD PTR [ebp-16], eax
  00035	89 4d f0	 mov	 DWORD PTR _this$[ebp], ecx

; 66   :         GpPath *clonepath = NULL;

  00038	c7 45 e8 00 00
	00 00		 mov	 DWORD PTR _clonepath$[ebp], 0

; 67   : 
; 68   :         SetStatus(DllExports::GdipClonePath(nativePath, &clonepath));

  0003f	8d 45 e8	 lea	 eax, DWORD PTR _clonepath$[ebp]
  00042	50		 push	 eax
  00043	8b 4d f0	 mov	 ecx, DWORD PTR _this$[ebp]
  00046	8b 11		 mov	 edx, DWORD PTR [ecx]
  00048	52		 push	 edx
  00049	e8 00 00 00 00	 call	 _GdipClonePath@8
  0004e	50		 push	 eax
  0004f	8b 4d f0	 mov	 ecx, DWORD PTR _this$[ebp]
  00052	e8 00 00 00 00	 call	 ?SetStatus@GraphicsPath@Gdiplus@@IBE?AW4Status@2@W432@@Z ; Gdiplus::GraphicsPath::SetStatus

; 69   : 
; 70   :         return new GraphicsPath(clonepath);

  00057	6a 08		 push	 8
  00059	e8 00 00 00 00	 call	 ??2GdiplusBase@Gdiplus@@SAPAXI@Z ; Gdiplus::GdiplusBase::operator new
  0005e	83 c4 04	 add	 esp, 4
  00061	89 45 dc	 mov	 DWORD PTR $T193134[ebp], eax
  00064	c7 45 fc 00 00
	00 00		 mov	 DWORD PTR __$EHRec$[ebp+8], 0
  0006b	83 7d dc 00	 cmp	 DWORD PTR $T193134[ebp], 0
  0006f	74 11		 je	 SHORT $L193135
  00071	8b 45 e8	 mov	 eax, DWORD PTR _clonepath$[ebp]
  00074	50		 push	 eax
  00075	8b 4d dc	 mov	 ecx, DWORD PTR $T193134[ebp]
  00078	e8 00 00 00 00	 call	 ??0GraphicsPath@Gdiplus@@IAE@PAVGpPath@1@@Z ; Gdiplus::GraphicsPath::GraphicsPath
  0007d	89 45 d8	 mov	 DWORD PTR tv77[ebp], eax
  00080	eb 07		 jmp	 SHORT $L193136
$L193135:
  00082	c7 45 d8 00 00
	00 00		 mov	 DWORD PTR tv77[ebp], 0
$L193136:
  00089	8b 4d d8	 mov	 ecx, DWORD PTR tv77[ebp]
  0008c	89 4d e0	 mov	 DWORD PTR $T193133[ebp], ecx
  0008f	c7 45 fc ff ff
	ff ff		 mov	 DWORD PTR __$EHRec$[ebp+8], -1
  00096	8b 45 e0	 mov	 eax, DWORD PTR $T193133[ebp]

; 71   :     }

  00099	52		 push	 edx
  0009a	8b cd		 mov	 ecx, ebp
  0009c	50		 push	 eax
  0009d	8d 15 00 00 00
	00		 lea	 edx, DWORD PTR $L193143
  000a3	e8 00 00 00 00	 call	 @_RTC_CheckStackVars@8
  000a8	58		 pop	 eax
  000a9	5a		 pop	 edx
  000aa	8b 4d f4	 mov	 ecx, DWORD PTR __$EHRec$[ebp]
  000ad	64 89 0d 00 00
	00 00		 mov	 DWORD PTR fs:__except_list, ecx
  000b4	83 c4 28	 add	 esp, 40			; 00000028H
  000b7	3b ec		 cmp	 ebp, esp
  000b9	e8 00 00 00 00	 call	 __RTC_CheckEsp
  000be	8b e5		 mov	 esp, ebp
  000c0	5d		 pop	 ebp
  000c1	c3		 ret	 0
$L193143:
  000c2	01 00 00 00	 DD	 1
  000c6	00 00 00 00	 DD	 $L193142
$L193142:
  000ca	e8 ff ff ff	 DD	 -24			; ffffffe8H
  000ce	04 00 00 00	 DD	 4
  000d2	00 00 00 00	 DD	 $L193140
$L193140:
  000d6	63		 DB	 99			; 00000063H
  000d7	6c		 DB	 108			; 0000006cH
  000d8	6f		 DB	 111			; 0000006fH
  000d9	6e		 DB	 110			; 0000006eH
  000da	65		 DB	 101			; 00000065H
  000db	70		 DB	 112			; 00000070H
  000dc	61		 DB	 97			; 00000061H
  000dd	74		 DB	 116			; 00000074H
  000de	68		 DB	 104			; 00000068H
  000df	00		 DB	 0
_TEXT	ENDS
;	COMDAT text$x
text$x	SEGMENT
$L193137:
  00000	8b 45 dc	 mov	 eax, DWORD PTR $T193134[ebp]
  00003	50		 push	 eax
  00004	e8 00 00 00 00	 call	 ??3GdiplusBase@Gdiplus@@SAXPAX@Z ; Gdiplus::GdiplusBase::operator delete
  00009	59		 pop	 ecx
  0000a	c3		 ret	 0
__ehhandler$?Clone@GraphicsPath@Gdiplus@@QBEPAV12@XZ:
  0000b	b8 00 00 00 00	 mov	 eax, OFFSET FLAT:$T193139
  00010	e9 00 00 00 00	 jmp	 ___CxxFrameHandler
text$x	ENDS
?Clone@GraphicsPath@Gdiplus@@QBEPAV12@XZ ENDP		; Gdiplus::GraphicsPath::Clone
EXTRN	_GdipFree@4:NEAR
; Function compile flags: /Odt /RTCsu
; File d:\program files (x86)\microsoft visual studio .net 2003\vc7\platformsdk\include\gdiplusbase.h
;	COMDAT ??3GdiplusBase@Gdiplus@@SAXPAX@Z
_TEXT	SEGMENT
_in_pVoid$ = 8						; size = 4
??3GdiplusBase@Gdiplus@@SAXPAX@Z PROC NEAR		; Gdiplus::GdiplusBase::operator delete, COMDAT

; 22   :     {

  00000	55		 push	 ebp
  00001	8b ec		 mov	 ebp, esp

; 23   :        DllExports::GdipFree(in_pVoid);

  00003	8b 45 08	 mov	 eax, DWORD PTR _in_pVoid$[ebp]
  00006	50		 push	 eax
  00007	e8 00 00 00 00	 call	 _GdipFree@4

; 24   :     }

  0000c	3b ec		 cmp	 ebp, esp
  0000e	e8 00 00 00 00	 call	 __RTC_CheckEsp
  00013	5d		 pop	 ebp
  00014	c3		 ret	 0
??3GdiplusBase@Gdiplus@@SAXPAX@Z ENDP			; Gdiplus::GdiplusBase::operator delete
_TEXT	ENDS
EXTRN	_GdipAlloc@4:NEAR
; Function compile flags: /Odt /RTCsu
;	COMDAT ??2GdiplusBase@Gdiplus@@SAPAXI@Z
_TEXT	SEGMENT
_in_size$ = 8						; size = 4
??2GdiplusBase@Gdiplus@@SAPAXI@Z PROC NEAR		; Gdiplus::GdiplusBase::operator new, COMDAT

; 26   :     {

  00000	55		 push	 ebp
  00001	8b ec		 mov	 ebp, esp

; 27   :        return DllExports::GdipAlloc(in_size);

  00003	8b 45 08	 mov	 eax, DWORD PTR _in_size$[ebp]
  00006	50		 push	 eax
  00007	e8 00 00 00 00	 call	 _GdipAlloc@4

; 28   :     }

  0000c	3b ec		 cmp	 ebp, esp
  0000e	e8 00 00 00 00	 call	 __RTC_CheckEsp
  00013	5d		 pop	 ebp
  00014	c3		 ret	 0
??2GdiplusBase@Gdiplus@@SAPAXI@Z ENDP			; Gdiplus::GdiplusBase::operator new
_TEXT	ENDS
EXTRN	_GdipAddPathLineI@20:NEAR
; Function compile flags: /Odt /RTCsu
; File d:\program files (x86)\microsoft visual studio .net 2003\vc7\platformsdk\include\gdipluspath.h
;	COMDAT ?AddLine@GraphicsPath@Gdiplus@@QAE?AW4Status@2@HHHH@Z
_TEXT	SEGMENT
_this$ = -4						; size = 4
_x1$ = 8						; size = 4
_y1$ = 12						; size = 4
_x2$ = 16						; size = 4
_y2$ = 20						; size = 4
?AddLine@GraphicsPath@Gdiplus@@QAE?AW4Status@2@HHHH@Z PROC NEAR ; Gdiplus::GraphicsPath::AddLine, COMDAT
; _this$ = ecx

; 218  :     {

  00000	55		 push	 ebp
  00001	8b ec		 mov	 ebp, esp
  00003	51		 push	 ecx
  00004	c7 45 fc cc cc
	cc cc		 mov	 DWORD PTR [ebp-4], -858993460 ; ccccccccH
  0000b	89 4d fc	 mov	 DWORD PTR _this$[ebp], ecx

; 219  :         return SetStatus(DllExports::GdipAddPathLineI(nativePath,
; 220  :                                                      x1,
; 221  :                                                      y1,
; 222  :                                                      x2,
; 223  :                                                      y2));

  0000e	8b 45 14	 mov	 eax, DWORD PTR _y2$[ebp]
  00011	50		 push	 eax
  00012	8b 4d 10	 mov	 ecx, DWORD PTR _x2$[ebp]
  00015	51		 push	 ecx
  00016	8b 55 0c	 mov	 edx, DWORD PTR _y1$[ebp]
  00019	52		 push	 edx
  0001a	8b 45 08	 mov	 eax, DWORD PTR _x1$[ebp]
  0001d	50		 push	 eax
  0001e	8b 4d fc	 mov	 ecx, DWORD PTR _this$[ebp]
  00021	8b 11		 mov	 edx, DWORD PTR [ecx]
  00023	52		 push	 edx
  00024	e8 00 00 00 00	 call	 _GdipAddPathLineI@20
  00029	50		 push	 eax
  0002a	8b 4d fc	 mov	 ecx, DWORD PTR _this$[ebp]
  0002d	e8 00 00 00 00	 call	 ?SetStatus@GraphicsPath@Gdiplus@@IBE?AW4Status@2@W432@@Z ; Gdiplus::GraphicsPath::SetStatus

; 224  :     }

  00032	83 c4 04	 add	 esp, 4
  00035	3b ec		 cmp	 ebp, esp
  00037	e8 00 00 00 00	 call	 __RTC_CheckEsp
  0003c	8b e5		 mov	 esp, ebp
  0003e	5d		 pop	 ebp
  0003f	c2 10 00	 ret	 16			; 00000010H
?AddLine@GraphicsPath@Gdiplus@@QAE?AW4Status@2@HHHH@Z ENDP ; Gdiplus::GraphicsPath::AddLine
_TEXT	ENDS
EXTRN	_GdipAddPathArcI@28:NEAR
; Function compile flags: /Odt /RTCsu
;	COMDAT ?AddArc@GraphicsPath@Gdiplus@@QAE?AW4Status@2@HHHHMM@Z
_TEXT	SEGMENT
_this$ = -4						; size = 4
_x$ = 8							; size = 4
_y$ = 12						; size = 4
_width$ = 16						; size = 4
_height$ = 20						; size = 4
_startAngle$ = 24					; size = 4
_sweepAngle$ = 28					; size = 4
?AddArc@GraphicsPath@Gdiplus@@QAE?AW4Status@2@HHHHMM@Z PROC NEAR ; Gdiplus::GraphicsPath::AddArc, COMDAT
; _this$ = ecx

; 268  :     {

  00000	55		 push	 ebp
  00001	8b ec		 mov	 ebp, esp
  00003	51		 push	 ecx
  00004	c7 45 fc cc cc
	cc cc		 mov	 DWORD PTR [ebp-4], -858993460 ; ccccccccH
  0000b	89 4d fc	 mov	 DWORD PTR _this$[ebp], ecx

; 269  :         return SetStatus(DllExports::GdipAddPathArcI(nativePath,
; 270  :                                                     x,
; 271  :                                                     y,
; 272  :                                                     width,
; 273  :                                                     height,
; 274  :                                                     startAngle,
; 275  :                                                     sweepAngle));

  0000e	8b 45 1c	 mov	 eax, DWORD PTR _sweepAngle$[ebp]
  00011	50		 push	 eax
  00012	8b 4d 18	 mov	 ecx, DWORD PTR _startAngle$[ebp]
  00015	51		 push	 ecx
  00016	8b 55 14	 mov	 edx, DWORD PTR _height$[ebp]
  00019	52		 push	 edx
  0001a	8b 45 10	 mov	 eax, DWORD PTR _width$[ebp]
  0001d	50		 push	 eax
  0001e	8b 4d 0c	 mov	 ecx, DWORD PTR _y$[ebp]
  00021	51		 push	 ecx
  00022	8b 55 08	 mov	 edx, DWORD PTR _x$[ebp]
  00025	52		 push	 edx
  00026	8b 45 fc	 mov	 eax, DWORD PTR _this$[ebp]
  00029	8b 08		 mov	 ecx, DWORD PTR [eax]
  0002b	51		 push	 ecx
  0002c	e8 00 00 00 00	 call	 _GdipAddPathArcI@28
  00031	50		 push	 eax
  00032	8b 4d fc	 mov	 ecx, DWORD PTR _this$[ebp]
  00035	e8 00 00 00 00	 call	 ?SetStatus@GraphicsPath@Gdiplus@@IBE?AW4Status@2@W432@@Z ; Gdiplus::GraphicsPath::SetStatus

; 276  :     }

  0003a	83 c4 04	 add	 esp, 4
  0003d	3b ec		 cmp	 ebp, esp
  0003f	e8 00 00 00 00	 call	 __RTC_CheckEsp
  00044	8b e5		 mov	 esp, ebp
  00046	5d		 pop	 ebp
  00047	c2 18 00	 ret	 24			; 00000018H
?AddArc@GraphicsPath@Gdiplus@@QAE?AW4Status@2@HHHHMM@Z ENDP ; Gdiplus::GraphicsPath::AddArc
_TEXT	ENDS
PUBLIC	?SetNativePath@GraphicsPath@Gdiplus@@IAEXPAVGpPath@2@@Z ; Gdiplus::GraphicsPath::SetNativePath
; Function compile flags: /Odt /RTCsu
;	COMDAT ??0GraphicsPath@Gdiplus@@IAE@PAVGpPath@1@@Z
_TEXT	SEGMENT
_this$ = -4						; size = 4
_nativePath$ = 8					; size = 4
??0GraphicsPath@Gdiplus@@IAE@PAVGpPath@1@@Z PROC NEAR	; Gdiplus::GraphicsPath::GraphicsPath, COMDAT
; _this$ = ecx

; 873  :     GraphicsPath(GpPath* nativePath)

  00000	55		 push	 ebp
  00001	8b ec		 mov	 ebp, esp
  00003	51		 push	 ecx
  00004	c7 45 fc cc cc
	cc cc		 mov	 DWORD PTR [ebp-4], -858993460 ; ccccccccH
  0000b	89 4d fc	 mov	 DWORD PTR _this$[ebp], ecx

; 874  :     {
; 875  :         lastResult = Ok;

  0000e	8b 45 fc	 mov	 eax, DWORD PTR _this$[ebp]
  00011	c7 40 04 00 00
	00 00		 mov	 DWORD PTR [eax+4], 0

; 876  :         SetNativePath(nativePath);

  00018	8b 4d 08	 mov	 ecx, DWORD PTR _nativePath$[ebp]
  0001b	51		 push	 ecx
  0001c	8b 4d fc	 mov	 ecx, DWORD PTR _this$[ebp]
  0001f	e8 00 00 00 00	 call	 ?SetNativePath@GraphicsPath@Gdiplus@@IAEXPAVGpPath@2@@Z ; Gdiplus::GraphicsPath::SetNativePath

; 877  :     }

  00024	8b 45 fc	 mov	 eax, DWORD PTR _this$[ebp]
  00027	83 c4 04	 add	 esp, 4
  0002a	3b ec		 cmp	 ebp, esp
  0002c	e8 00 00 00 00	 call	 __RTC_CheckEsp
  00031	8b e5		 mov	 esp, ebp
  00033	5d		 pop	 ebp
  00034	c2 04 00	 ret	 4
??0GraphicsPath@Gdiplus@@IAE@PAVGpPath@1@@Z ENDP	; Gdiplus::GraphicsPath::GraphicsPath
; Function compile flags: /Odt /RTCsu
_TEXT	ENDS
;	COMDAT ?SetNativePath@GraphicsPath@Gdiplus@@IAEXPAVGpPath@2@@Z
_TEXT	SEGMENT
_this$ = -4						; size = 4
_nativePath$ = 8					; size = 4
?SetNativePath@GraphicsPath@Gdiplus@@IAEXPAVGpPath@2@@Z PROC NEAR ; Gdiplus::GraphicsPath::SetNativePath, COMDAT
; _this$ = ecx

; 880  :     {

  00000	55		 push	 ebp
  00001	8b ec		 mov	 ebp, esp
  00003	51		 push	 ecx
  00004	c7 45 fc cc cc
	cc cc		 mov	 DWORD PTR [ebp-4], -858993460 ; ccccccccH
  0000b	89 4d fc	 mov	 DWORD PTR _this$[ebp], ecx

; 881  :         this->nativePath = nativePath;

  0000e	8b 45 fc	 mov	 eax, DWORD PTR _this$[ebp]
  00011	8b 4d 08	 mov	 ecx, DWORD PTR _nativePath$[ebp]
  00014	89 08		 mov	 DWORD PTR [eax], ecx

; 882  :     }

  00016	8b e5		 mov	 esp, ebp
  00018	5d		 pop	 ebp
  00019	c2 04 00	 ret	 4
?SetNativePath@GraphicsPath@Gdiplus@@IAEXPAVGpPath@2@@Z ENDP ; Gdiplus::GraphicsPath::SetNativePath
; Function compile flags: /Odt /RTCsu
_TEXT	ENDS
;	COMDAT ?SetStatus@GraphicsPath@Gdiplus@@IBE?AW4Status@2@W432@@Z
_TEXT	SEGMENT
_this$ = -4						; size = 4
_status$ = 8						; size = 4
?SetStatus@GraphicsPath@Gdiplus@@IBE?AW4Status@2@W432@@Z PROC NEAR ; Gdiplus::GraphicsPath::SetStatus, COMDAT
; _this$ = ecx

; 885  :     {

  00000	55		 push	 ebp
  00001	8b ec		 mov	 ebp, esp
  00003	51		 push	 ecx
  00004	c7 45 fc cc cc
	cc cc		 mov	 DWORD PTR [ebp-4], -858993460 ; ccccccccH
  0000b	89 4d fc	 mov	 DWORD PTR _this$[ebp], ecx

; 886  :         if (status != Ok)

  0000e	83 7d 08 00	 cmp	 DWORD PTR _status$[ebp], 0
  00012	74 0e		 je	 SHORT $L114155

; 887  :             return (lastResult = status);

  00014	8b 45 fc	 mov	 eax, DWORD PTR _this$[ebp]
  00017	8b 4d 08	 mov	 ecx, DWORD PTR _status$[ebp]
  0001a	89 48 04	 mov	 DWORD PTR [eax+4], ecx
  0001d	8b 45 08	 mov	 eax, DWORD PTR _status$[ebp]
  00020	eb 03		 jmp	 SHORT $L114154
$L114155:

; 888  :         else
; 889  :             return status;

  00022	8b 45 08	 mov	 eax, DWORD PTR _status$[ebp]
$L114154:

; 890  :     }

  00025	8b e5		 mov	 esp, ebp
  00027	5d		 pop	 ebp
  00028	c2 04 00	 ret	 4
?SetStatus@GraphicsPath@Gdiplus@@IBE?AW4Status@2@W432@@Z ENDP ; Gdiplus::GraphicsPath::SetStatus
_TEXT	ENDS
PUBLIC	?SetNativeGraphics@Graphics@Gdiplus@@IAEXPAVGpGraphics@2@@Z ; Gdiplus::Graphics::SetNativeGraphics
EXTRN	_GdipCreateFromHDC@8:NEAR
; Function compile flags: /Odt /RTCsu
; File d:\program files (x86)\microsoft visual studio .net 2003\vc7\platformsdk\include\gdiplusgraphics.h
;	COMDAT ??0Graphics@Gdiplus@@QAE@PAUHDC__@@@Z
_TEXT	SEGMENT
_graphics$ = -12					; size = 4
_this$ = -4						; size = 4
_hdc$ = 8						; size = 4
??0Graphics@Gdiplus@@QAE@PAUHDC__@@@Z PROC NEAR		; Gdiplus::Graphics::Graphics, COMDAT
; _this$ = ecx

; 53   :     Graphics(IN HDC hdc)

  00000	55		 push	 ebp
  00001	8b ec		 mov	 ebp, esp
  00003	83 ec 10	 sub	 esp, 16			; 00000010H
  00006	b8 cc cc cc cc	 mov	 eax, -858993460		; ccccccccH
  0000b	89 45 f0	 mov	 DWORD PTR [ebp-16], eax
  0000e	89 45 f4	 mov	 DWORD PTR [ebp-12], eax
  00011	89 45 f8	 mov	 DWORD PTR [ebp-8], eax
  00014	89 45 fc	 mov	 DWORD PTR [ebp-4], eax
  00017	89 4d fc	 mov	 DWORD PTR _this$[ebp], ecx

; 54   :     {
; 55   :         GpGraphics *graphics = NULL;

  0001a	c7 45 f4 00 00
	00 00		 mov	 DWORD PTR _graphics$[ebp], 0

; 56   : 
; 57   :         lastResult = DllExports::GdipCreateFromHDC(hdc, &graphics);

  00021	8d 45 f4	 lea	 eax, DWORD PTR _graphics$[ebp]
  00024	50		 push	 eax
  00025	8b 4d 08	 mov	 ecx, DWORD PTR _hdc$[ebp]
  00028	51		 push	 ecx
  00029	e8 00 00 00 00	 call	 _GdipCreateFromHDC@8
  0002e	8b 55 fc	 mov	 edx, DWORD PTR _this$[ebp]
  00031	89 42 04	 mov	 DWORD PTR [edx+4], eax

; 58   : 
; 59   :         SetNativeGraphics(graphics);

  00034	8b 45 f4	 mov	 eax, DWORD PTR _graphics$[ebp]
  00037	50		 push	 eax
  00038	8b 4d fc	 mov	 ecx, DWORD PTR _this$[ebp]
  0003b	e8 00 00 00 00	 call	 ?SetNativeGraphics@Graphics@Gdiplus@@IAEXPAVGpGraphics@2@@Z ; Gdiplus::Graphics::SetNativeGraphics

; 60   :     }

  00040	8b 45 fc	 mov	 eax, DWORD PTR _this$[ebp]
  00043	52		 push	 edx
  00044	8b cd		 mov	 ecx, ebp
  00046	50		 push	 eax
  00047	8d 15 00 00 00
	00		 lea	 edx, DWORD PTR $L193157
  0004d	e8 00 00 00 00	 call	 @_RTC_CheckStackVars@8
  00052	58		 pop	 eax
  00053	5a		 pop	 edx
  00054	83 c4 10	 add	 esp, 16			; 00000010H
  00057	3b ec		 cmp	 ebp, esp
  00059	e8 00 00 00 00	 call	 __RTC_CheckEsp
  0005e	8b e5		 mov	 esp, ebp
  00060	5d		 pop	 ebp
  00061	c2 04 00	 ret	 4
$L193157:
  00064	01 00 00 00	 DD	 1
  00068	00 00 00 00	 DD	 $L193156
$L193156:
  0006c	f4 ff ff ff	 DD	 -12			; fffffff4H
  00070	04 00 00 00	 DD	 4
  00074	00 00 00 00	 DD	 $L193155
$L193155:
  00078	67		 DB	 103			; 00000067H
  00079	72		 DB	 114			; 00000072H
  0007a	61		 DB	 97			; 00000061H
  0007b	70		 DB	 112			; 00000070H
  0007c	68		 DB	 104			; 00000068H
  0007d	69		 DB	 105			; 00000069H
  0007e	63		 DB	 99			; 00000063H
  0007f	73		 DB	 115			; 00000073H
  00080	00		 DB	 0
??0Graphics@Gdiplus@@QAE@PAUHDC__@@@Z ENDP		; Gdiplus::Graphics::Graphics
_TEXT	ENDS
EXTRN	_GdipDeleteGraphics@4:NEAR
; Function compile flags: /Odt /RTCsu
;	COMDAT ??1Graphics@Gdiplus@@QAE@XZ
_TEXT	SEGMENT
_this$ = -4						; size = 4
??1Graphics@Gdiplus@@QAE@XZ PROC NEAR			; Gdiplus::Graphics::~Graphics, COMDAT
; _this$ = ecx

; 102  :     {

  00000	55		 push	 ebp
  00001	8b ec		 mov	 ebp, esp
  00003	51		 push	 ecx
  00004	c7 45 fc cc cc
	cc cc		 mov	 DWORD PTR [ebp-4], -858993460 ; ccccccccH
  0000b	89 4d fc	 mov	 DWORD PTR _this$[ebp], ecx

; 103  :         DllExports::GdipDeleteGraphics(nativeGraphics);

  0000e	8b 45 fc	 mov	 eax, DWORD PTR _this$[ebp]
  00011	8b 08		 mov	 ecx, DWORD PTR [eax]
  00013	51		 push	 ecx
  00014	e8 00 00 00 00	 call	 _GdipDeleteGraphics@4

; 104  :     }

  00019	83 c4 04	 add	 esp, 4
  0001c	3b ec		 cmp	 ebp, esp
  0001e	e8 00 00 00 00	 call	 __RTC_CheckEsp
  00023	8b e5		 mov	 esp, ebp
  00025	5d		 pop	 ebp
  00026	c3		 ret	 0
??1Graphics@Gdiplus@@QAE@XZ ENDP			; Gdiplus::Graphics::~Graphics
_TEXT	ENDS
PUBLIC	?SetStatus@Graphics@Gdiplus@@IBE?AW4Status@2@W432@@Z ; Gdiplus::Graphics::SetStatus
EXTRN	_GdipSetSmoothingMode@8:NEAR
; Function compile flags: /Odt /RTCsu
;	COMDAT ?SetSmoothingMode@Graphics@Gdiplus@@QAE?AW4Status@2@W4SmoothingMode@2@@Z
_TEXT	SEGMENT
_this$ = -4						; size = 4
_smoothingMode$ = 8					; size = 4
?SetSmoothingMode@Graphics@Gdiplus@@QAE?AW4Status@2@W4SmoothingMode@2@@Z PROC NEAR ; Gdiplus::Graphics::SetSmoothingMode, COMDAT
; _this$ = ecx

; 246  :     {

  00000	55		 push	 ebp
  00001	8b ec		 mov	 ebp, esp
  00003	51		 push	 ecx
  00004	c7 45 fc cc cc
	cc cc		 mov	 DWORD PTR [ebp-4], -858993460 ; ccccccccH
  0000b	89 4d fc	 mov	 DWORD PTR _this$[ebp], ecx

; 247  :         return SetStatus(DllExports::GdipSetSmoothingMode(nativeGraphics,
; 248  :                                                           smoothingMode));

  0000e	8b 45 08	 mov	 eax, DWORD PTR _smoothingMode$[ebp]
  00011	50		 push	 eax
  00012	8b 4d fc	 mov	 ecx, DWORD PTR _this$[ebp]
  00015	8b 11		 mov	 edx, DWORD PTR [ecx]
  00017	52		 push	 edx
  00018	e8 00 00 00 00	 call	 _GdipSetSmoothingMode@8
  0001d	50		 push	 eax
  0001e	8b 4d fc	 mov	 ecx, DWORD PTR _this$[ebp]
  00021	e8 00 00 00 00	 call	 ?SetStatus@Graphics@Gdiplus@@IBE?AW4Status@2@W432@@Z ; Gdiplus::Graphics::SetStatus

; 249  :     }

  00026	83 c4 04	 add	 esp, 4
  00029	3b ec		 cmp	 ebp, esp
  0002b	e8 00 00 00 00	 call	 __RTC_CheckEsp
  00030	8b e5		 mov	 esp, ebp
  00032	5d		 pop	 ebp
  00033	c2 04 00	 ret	 4
?SetSmoothingMode@Graphics@Gdiplus@@QAE?AW4Status@2@W4SmoothingMode@2@@Z ENDP ; Gdiplus::Graphics::SetSmoothingMode
_TEXT	ENDS
EXTRN	_GdipDrawPath@12:NEAR
; Function compile flags: /Odt /RTCsu
;	COMDAT ?DrawPath@Graphics@Gdiplus@@QAE?AW4Status@2@PBVPen@2@PBVGraphicsPath@2@@Z
_TEXT	SEGMENT
tv71 = -12						; size = 4
tv68 = -8						; size = 4
_this$ = -4						; size = 4
_pen$ = 8						; size = 4
_path$ = 12						; size = 4
?DrawPath@Graphics@Gdiplus@@QAE?AW4Status@2@PBVPen@2@PBVGraphicsPath@2@@Z PROC NEAR ; Gdiplus::Graphics::DrawPath, COMDAT
; _this$ = ecx

; 814  :     {

  00000	55		 push	 ebp
  00001	8b ec		 mov	 ebp, esp
  00003	83 ec 0c	 sub	 esp, 12			; 0000000cH
  00006	c7 45 f4 cc cc
	cc cc		 mov	 DWORD PTR [ebp-12], -858993460 ; ccccccccH
  0000d	c7 45 f8 cc cc
	cc cc		 mov	 DWORD PTR [ebp-8], -858993460 ; ccccccccH
  00014	c7 45 fc cc cc
	cc cc		 mov	 DWORD PTR [ebp-4], -858993460 ; ccccccccH
  0001b	89 4d fc	 mov	 DWORD PTR _this$[ebp], ecx

; 815  :         return SetStatus(DllExports::GdipDrawPath(nativeGraphics,
; 816  :                                                   pen ? pen->nativePen : NULL,
; 817  :                                                   path ? path->nativePath : NULL));

  0001e	83 7d 0c 00	 cmp	 DWORD PTR _path$[ebp], 0
  00022	74 0a		 je	 SHORT $L193161
  00024	8b 45 0c	 mov	 eax, DWORD PTR _path$[ebp]
  00027	8b 08		 mov	 ecx, DWORD PTR [eax]
  00029	89 4d f8	 mov	 DWORD PTR tv68[ebp], ecx
  0002c	eb 07		 jmp	 SHORT $L193162
$L193161:
  0002e	c7 45 f8 00 00
	00 00		 mov	 DWORD PTR tv68[ebp], 0
$L193162:
  00035	83 7d 08 00	 cmp	 DWORD PTR _pen$[ebp], 0
  00039	74 0a		 je	 SHORT $L193163
  0003b	8b 55 08	 mov	 edx, DWORD PTR _pen$[ebp]
  0003e	8b 02		 mov	 eax, DWORD PTR [edx]
  00040	89 45 f4	 mov	 DWORD PTR tv71[ebp], eax
  00043	eb 07		 jmp	 SHORT $L193164
$L193163:
  00045	c7 45 f4 00 00
	00 00		 mov	 DWORD PTR tv71[ebp], 0
$L193164:
  0004c	8b 4d f8	 mov	 ecx, DWORD PTR tv68[ebp]
  0004f	51		 push	 ecx
  00050	8b 55 f4	 mov	 edx, DWORD PTR tv71[ebp]
  00053	52		 push	 edx
  00054	8b 45 fc	 mov	 eax, DWORD PTR _this$[ebp]
  00057	8b 08		 mov	 ecx, DWORD PTR [eax]
  00059	51		 push	 ecx
  0005a	e8 00 00 00 00	 call	 _GdipDrawPath@12
  0005f	50		 push	 eax
  00060	8b 4d fc	 mov	 ecx, DWORD PTR _this$[ebp]
  00063	e8 00 00 00 00	 call	 ?SetStatus@Graphics@Gdiplus@@IBE?AW4Status@2@W432@@Z ; Gdiplus::Graphics::SetStatus

; 818  :     }

  00068	83 c4 0c	 add	 esp, 12			; 0000000cH
  0006b	3b ec		 cmp	 ebp, esp
  0006d	e8 00 00 00 00	 call	 __RTC_CheckEsp
  00072	8b e5		 mov	 esp, ebp
  00074	5d		 pop	 ebp
  00075	c2 08 00	 ret	 8
?DrawPath@Graphics@Gdiplus@@QAE?AW4Status@2@PBVPen@2@PBVGraphicsPath@2@@Z ENDP ; Gdiplus::Graphics::DrawPath
_TEXT	ENDS
PUBLIC	?DrawImage@Graphics@Gdiplus@@QAE?AW4Status@2@PAVImage@2@HHHH@Z ; Gdiplus::Graphics::DrawImage
; Function compile flags: /Odt /RTCsu
;	COMDAT ?DrawImage@Graphics@Gdiplus@@QAE?AW4Status@2@PAVImage@2@ABVRect@2@@Z
_TEXT	SEGMENT
_this$ = -4						; size = 4
_image$ = 8						; size = 4
_rect$ = 12						; size = 4
?DrawImage@Graphics@Gdiplus@@QAE?AW4Status@2@PAVImage@2@ABVRect@2@@Z PROC NEAR ; Gdiplus::Graphics::DrawImage, COMDAT
; _this$ = ecx

; 1546 :     {

  00000	55		 push	 ebp
  00001	8b ec		 mov	 ebp, esp
  00003	51		 push	 ecx
  00004	c7 45 fc cc cc
	cc cc		 mov	 DWORD PTR [ebp-4], -858993460 ; ccccccccH
  0000b	89 4d fc	 mov	 DWORD PTR _this$[ebp], ecx

; 1547 :         return DrawImage(image,
; 1548 :                          rect.X,
; 1549 :                          rect.Y,
; 1550 :                          rect.Width,
; 1551 :                          rect.Height);

  0000e	8b 45 0c	 mov	 eax, DWORD PTR _rect$[ebp]
  00011	8b 48 0c	 mov	 ecx, DWORD PTR [eax+12]
  00014	51		 push	 ecx
  00015	8b 55 0c	 mov	 edx, DWORD PTR _rect$[ebp]
  00018	8b 42 08	 mov	 eax, DWORD PTR [edx+8]
  0001b	50		 push	 eax
  0001c	8b 4d 0c	 mov	 ecx, DWORD PTR _rect$[ebp]
  0001f	8b 51 04	 mov	 edx, DWORD PTR [ecx+4]
  00022	52		 push	 edx
  00023	8b 45 0c	 mov	 eax, DWORD PTR _rect$[ebp]
  00026	8b 08		 mov	 ecx, DWORD PTR [eax]
  00028	51		 push	 ecx
  00029	8b 55 08	 mov	 edx, DWORD PTR _image$[ebp]
  0002c	52		 push	 edx
  0002d	8b 4d fc	 mov	 ecx, DWORD PTR _this$[ebp]
  00030	e8 00 00 00 00	 call	 ?DrawImage@Graphics@Gdiplus@@QAE?AW4Status@2@PAVImage@2@HHHH@Z ; Gdiplus::Graphics::DrawImage

; 1552 :     }

  00035	83 c4 04	 add	 esp, 4
  00038	3b ec		 cmp	 ebp, esp
  0003a	e8 00 00 00 00	 call	 __RTC_CheckEsp
  0003f	8b e5		 mov	 esp, ebp
  00041	5d		 pop	 ebp
  00042	c2 08 00	 ret	 8
?DrawImage@Graphics@Gdiplus@@QAE?AW4Status@2@PAVImage@2@ABVRect@2@@Z ENDP ; Gdiplus::Graphics::DrawImage
_TEXT	ENDS
EXTRN	_GdipDrawImageRectI@24:NEAR
; Function compile flags: /Odt /RTCsu
;	COMDAT ?DrawImage@Graphics@Gdiplus@@QAE?AW4Status@2@PAVImage@2@HHHH@Z
_TEXT	SEGMENT
tv73 = -8						; size = 4
_this$ = -4						; size = 4
_image$ = 8						; size = 4
_x$ = 12						; size = 4
_y$ = 16						; size = 4
_width$ = 20						; size = 4
_height$ = 24						; size = 4
?DrawImage@Graphics@Gdiplus@@QAE?AW4Status@2@PAVImage@2@HHHH@Z PROC NEAR ; Gdiplus::Graphics::DrawImage, COMDAT
; _this$ = ecx

; 1558 :                      IN INT height) {

  00000	55		 push	 ebp
  00001	8b ec		 mov	 ebp, esp
  00003	83 ec 08	 sub	 esp, 8
  00006	c7 45 f8 cc cc
	cc cc		 mov	 DWORD PTR [ebp-8], -858993460 ; ccccccccH
  0000d	c7 45 fc cc cc
	cc cc		 mov	 DWORD PTR [ebp-4], -858993460 ; ccccccccH
  00014	89 4d fc	 mov	 DWORD PTR _this$[ebp], ecx

; 1559 :         return SetStatus(DllExports::GdipDrawImageRectI(nativeGraphics,
; 1560 :                                                         image ? image->nativeImage
; 1561 :                                                               : NULL,
; 1562 :                                                         x,
; 1563 :                                                         y,
; 1564 :                                                         width,
; 1565 :                                                         height));

  00017	83 7d 08 00	 cmp	 DWORD PTR _image$[ebp], 0
  0001b	74 0b		 je	 SHORT $L193167
  0001d	8b 45 08	 mov	 eax, DWORD PTR _image$[ebp]
  00020	8b 48 04	 mov	 ecx, DWORD PTR [eax+4]
  00023	89 4d f8	 mov	 DWORD PTR tv73[ebp], ecx
  00026	eb 07		 jmp	 SHORT $L193168
$L193167:
  00028	c7 45 f8 00 00
	00 00		 mov	 DWORD PTR tv73[ebp], 0
$L193168:
  0002f	8b 55 18	 mov	 edx, DWORD PTR _height$[ebp]
  00032	52		 push	 edx
  00033	8b 45 14	 mov	 eax, DWORD PTR _width$[ebp]
  00036	50		 push	 eax
  00037	8b 4d 10	 mov	 ecx, DWORD PTR _y$[ebp]
  0003a	51		 push	 ecx
  0003b	8b 55 0c	 mov	 edx, DWORD PTR _x$[ebp]
  0003e	52		 push	 edx
  0003f	8b 45 f8	 mov	 eax, DWORD PTR tv73[ebp]
  00042	50		 push	 eax
  00043	8b 4d fc	 mov	 ecx, DWORD PTR _this$[ebp]
  00046	8b 11		 mov	 edx, DWORD PTR [ecx]
  00048	52		 push	 edx
  00049	e8 00 00 00 00	 call	 _GdipDrawImageRectI@24
  0004e	50		 push	 eax
  0004f	8b 4d fc	 mov	 ecx, DWORD PTR _this$[ebp]
  00052	e8 00 00 00 00	 call	 ?SetStatus@Graphics@Gdiplus@@IBE?AW4Status@2@W432@@Z ; Gdiplus::Graphics::SetStatus

; 1566 :     }

  00057	83 c4 08	 add	 esp, 8
  0005a	3b ec		 cmp	 ebp, esp
  0005c	e8 00 00 00 00	 call	 __RTC_CheckEsp
  00061	8b e5		 mov	 esp, ebp
  00063	5d		 pop	 ebp
  00064	c2 14 00	 ret	 20			; 00000014H
?DrawImage@Graphics@Gdiplus@@QAE?AW4Status@2@PAVImage@2@HHHH@Z ENDP ; Gdiplus::Graphics::DrawImage
; Function compile flags: /Odt /RTCsu
_TEXT	ENDS
;	COMDAT ?SetNativeGraphics@Graphics@Gdiplus@@IAEXPAVGpGraphics@2@@Z
_TEXT	SEGMENT
_this$ = -4						; size = 4
_graphics$ = 8						; size = 4
?SetNativeGraphics@Graphics@Gdiplus@@IAEXPAVGpGraphics@2@@Z PROC NEAR ; Gdiplus::Graphics::SetNativeGraphics, COMDAT
; _this$ = ecx

; 2339 :     {

  00000	55		 push	 ebp
  00001	8b ec		 mov	 ebp, esp
  00003	51		 push	 ecx
  00004	c7 45 fc cc cc
	cc cc		 mov	 DWORD PTR [ebp-4], -858993460 ; ccccccccH
  0000b	89 4d fc	 mov	 DWORD PTR _this$[ebp], ecx

; 2340 :         this->nativeGraphics = graphics;

  0000e	8b 45 fc	 mov	 eax, DWORD PTR _this$[ebp]
  00011	8b 4d 08	 mov	 ecx, DWORD PTR _graphics$[ebp]
  00014	89 08		 mov	 DWORD PTR [eax], ecx

; 2341 :     }

  00016	8b e5		 mov	 esp, ebp
  00018	5d		 pop	 ebp
  00019	c2 04 00	 ret	 4
?SetNativeGraphics@Graphics@Gdiplus@@IAEXPAVGpGraphics@2@@Z ENDP ; Gdiplus::Graphics::SetNativeGraphics
; Function compile flags: /Odt /RTCsu
_TEXT	ENDS
;	COMDAT ?SetStatus@Graphics@Gdiplus@@IBE?AW4Status@2@W432@@Z
_TEXT	SEGMENT
_this$ = -4						; size = 4
_status$ = 8						; size = 4
?SetStatus@Graphics@Gdiplus@@IBE?AW4Status@2@W432@@Z PROC NEAR ; Gdiplus::Graphics::SetStatus, COMDAT
; _this$ = ecx

; 2344 :     {

  00000	55		 push	 ebp
  00001	8b ec		 mov	 ebp, esp
  00003	51		 push	 ecx
  00004	c7 45 fc cc cc
	cc cc		 mov	 DWORD PTR [ebp-4], -858993460 ; ccccccccH
  0000b	89 4d fc	 mov	 DWORD PTR _this$[ebp], ecx

; 2345 :         if (status != Ok)

  0000e	83 7d 08 00	 cmp	 DWORD PTR _status$[ebp], 0
  00012	74 0e		 je	 SHORT $L116181

; 2346 :             return (lastResult = status);

  00014	8b 45 fc	 mov	 eax, DWORD PTR _this$[ebp]
  00017	8b 4d 08	 mov	 ecx, DWORD PTR _status$[ebp]
  0001a	89 48 04	 mov	 DWORD PTR [eax+4], ecx
  0001d	8b 45 08	 mov	 eax, DWORD PTR _status$[ebp]
  00020	eb 03		 jmp	 SHORT $L116180
$L116181:

; 2347 :         else
; 2348 :             return status;

  00022	8b 45 08	 mov	 eax, DWORD PTR _status$[ebp]
$L116180:

; 2349 :     }

  00025	8b e5		 mov	 esp, ebp
  00027	5d		 pop	 ebp
  00028	c2 04 00	 ret	 4
?SetStatus@Graphics@Gdiplus@@IBE?AW4Status@2@W432@@Z ENDP ; Gdiplus::Graphics::SetStatus
_TEXT	ENDS
PUBLIC	??_R13?0A@A@GdiplusBase@Gdiplus@@8		; Gdiplus::GdiplusBase::`RTTI Base Class Descriptor at (4,-1,0,0)'
PUBLIC	??_R0?AVGdiplusBase@Gdiplus@@@8			; Gdiplus::GdiplusBase `RTTI Type Descriptor'
PUBLIC	??_R1A@?0A@A@Image@Gdiplus@@8			; Gdiplus::Image::`RTTI Base Class Descriptor at (0,-1,0,0)'
PUBLIC	??_R0?AVImage@Gdiplus@@@8			; Gdiplus::Image `RTTI Type Descriptor'
PUBLIC	??_R4Image@Gdiplus@@6B@				; Gdiplus::Image::`RTTI Complete Object Locator'
PUBLIC	??_R3Image@Gdiplus@@8				; Gdiplus::Image::`RTTI Class Hierarchy Descriptor'
PUBLIC	??_R2Image@Gdiplus@@8				; Gdiplus::Image::`RTTI Base Class Array'
PUBLIC	??_7Image@Gdiplus@@6B@				; Gdiplus::Image::`vftable'
PUBLIC	??_GImage@Gdiplus@@UAEPAXI@Z			; Gdiplus::Image::`scalar deleting destructor'
EXTRN	_GdipLoadImageFromFile@8:NEAR
EXTRN	_GdipLoadImageFromFileICM@8:NEAR
EXTRN	??_EImage@Gdiplus@@UAEPAXI@Z:NEAR		; Gdiplus::Image::`vector deleting destructor'
;	COMDAT ??_7Image@Gdiplus@@6B@
; File d:\program files (x86)\microsoft visual studio .net 2003\vc7\platformsdk\include\gdiplusbitmap.h
CONST	SEGMENT
??_7Image@Gdiplus@@6B@ DD FLAT:??_R4Image@Gdiplus@@6B@	; Gdiplus::Image::`vftable'
	DD	FLAT:??_EImage@Gdiplus@@UAEPAXI@Z
	DD	FLAT:?Clone@Image@Gdiplus@@UAEPAV12@XZ
CONST	ENDS
;	COMDAT ??_R4Image@Gdiplus@@6B@
rdata$r	SEGMENT
??_R4Image@Gdiplus@@6B@ DD 00H				; Gdiplus::Image::`RTTI Complete Object Locator'
	DD	00H
	DD	00H
	DD	FLAT:??_R0?AVImage@Gdiplus@@@8
	DD	FLAT:??_R3Image@Gdiplus@@8
rdata$r	ENDS
;	COMDAT ??_R0?AVImage@Gdiplus@@@8
_DATA	SEGMENT
??_R0?AVImage@Gdiplus@@@8 DD FLAT:??_7type_info@@6B@	; Gdiplus::Image `RTTI Type Descriptor'
	DD	00H
	DB	'.?AVImage@Gdiplus@@', 00H
_DATA	ENDS
;	COMDAT ??_R3Image@Gdiplus@@8
rdata$r	SEGMENT
??_R3Image@Gdiplus@@8 DD 00H				; Gdiplus::Image::`RTTI Class Hierarchy Descriptor'
	DD	00H
	DD	02H
	DD	FLAT:??_R2Image@Gdiplus@@8
rdata$r	ENDS
;	COMDAT ??_R2Image@Gdiplus@@8
rdata$r	SEGMENT
??_R2Image@Gdiplus@@8 DD FLAT:??_R1A@?0A@A@Image@Gdiplus@@8 ; Gdiplus::Image::`RTTI Base Class Array'
	DD	FLAT:??_R13?0A@A@GdiplusBase@Gdiplus@@8
rdata$r	ENDS
;	COMDAT ??_R1A@?0A@A@Image@Gdiplus@@8
rdata$r	SEGMENT
??_R1A@?0A@A@Image@Gdiplus@@8 DD FLAT:??_R0?AVImage@Gdiplus@@@8 ; Gdiplus::Image::`RTTI Base Class Descriptor at (0,-1,0,0)'
	DD	01H
	DD	00H
	DD	0ffffffffH
	DD	00H
	DD	00H
rdata$r	ENDS
;	COMDAT ??_R13?0A@A@GdiplusBase@Gdiplus@@8
rdata$r	SEGMENT
??_R13?0A@A@GdiplusBase@Gdiplus@@8 DD FLAT:??_R0?AVGdiplusBase@Gdiplus@@@8 ; Gdiplus::GdiplusBase::`RTTI Base Class Descriptor at (4,-1,0,0)'
	DD	00H
	DD	04H
	DD	0ffffffffH
	DD	00H
	DD	00H
rdata$r	ENDS
;	COMDAT ??_R0?AVGdiplusBase@Gdiplus@@@8
_DATA	SEGMENT
??_R0?AVGdiplusBase@Gdiplus@@@8 DD FLAT:??_7type_info@@6B@ ; Gdiplus::GdiplusBase `RTTI Type Descriptor'
	DD	00H
	DB	'.?AVGdiplusBase@Gdiplus@@', 00H
; Function compile flags: /Odt /RTCsu
_DATA	ENDS
;	COMDAT ??0Image@Gdiplus@@QAE@PB_WH@Z
_TEXT	SEGMENT
_this$ = -4						; size = 4
_filename$ = 8						; size = 4
_useEmbeddedColorManagement$ = 12			; size = 4
??0Image@Gdiplus@@QAE@PB_WH@Z PROC NEAR			; Gdiplus::Image::Image, COMDAT
; _this$ = ecx

; 23   : {

  00000	55		 push	 ebp
  00001	8b ec		 mov	 ebp, esp
  00003	51		 push	 ecx
  00004	c7 45 fc cc cc
	cc cc		 mov	 DWORD PTR [ebp-4], -858993460 ; ccccccccH
  0000b	89 4d fc	 mov	 DWORD PTR _this$[ebp], ecx
  0000e	8b 45 fc	 mov	 eax, DWORD PTR _this$[ebp]
  00011	c7 00 00 00 00
	00		 mov	 DWORD PTR [eax], OFFSET FLAT:??_7Image@Gdiplus@@6B@

; 24   :     nativeImage = NULL;

  00017	8b 4d fc	 mov	 ecx, DWORD PTR _this$[ebp]
  0001a	c7 41 04 00 00
	00 00		 mov	 DWORD PTR [ecx+4], 0

; 25   :     if(useEmbeddedColorManagement)

  00021	83 7d 0c 00	 cmp	 DWORD PTR _useEmbeddedColorManagement$[ebp], 0
  00025	74 18		 je	 SHORT $L116797

; 26   :     {
; 27   :         lastResult = DllExports::GdipLoadImageFromFileICM(
; 28   :             filename, 
; 29   :             &nativeImage
; 30   :         );

  00027	8b 55 fc	 mov	 edx, DWORD PTR _this$[ebp]
  0002a	83 c2 04	 add	 edx, 4
  0002d	52		 push	 edx
  0002e	8b 45 08	 mov	 eax, DWORD PTR _filename$[ebp]
  00031	50		 push	 eax
  00032	e8 00 00 00 00	 call	 _GdipLoadImageFromFileICM@8
  00037	8b 4d fc	 mov	 ecx, DWORD PTR _this$[ebp]
  0003a	89 41 08	 mov	 DWORD PTR [ecx+8], eax

; 31   :     }
; 32   :     else

  0003d	eb 16		 jmp	 SHORT $L116796
$L116797:

; 33   :     {      
; 34   :         lastResult = DllExports::GdipLoadImageFromFile(
; 35   :             filename, 
; 36   :             &nativeImage
; 37   :         );

  0003f	8b 55 fc	 mov	 edx, DWORD PTR _this$[ebp]
  00042	83 c2 04	 add	 edx, 4
  00045	52		 push	 edx
  00046	8b 45 08	 mov	 eax, DWORD PTR _filename$[ebp]
  00049	50		 push	 eax
  0004a	e8 00 00 00 00	 call	 _GdipLoadImageFromFile@8
  0004f	8b 4d fc	 mov	 ecx, DWORD PTR _this$[ebp]
  00052	89 41 08	 mov	 DWORD PTR [ecx+8], eax
$L116796:

; 38   :     }
; 39   : }

  00055	8b 45 fc	 mov	 eax, DWORD PTR _this$[ebp]
  00058	83 c4 04	 add	 esp, 4
  0005b	3b ec		 cmp	 ebp, esp
  0005d	e8 00 00 00 00	 call	 __RTC_CheckEsp
  00062	8b e5		 mov	 esp, ebp
  00064	5d		 pop	 ebp
  00065	c2 08 00	 ret	 8
??0Image@Gdiplus@@QAE@PB_WH@Z ENDP			; Gdiplus::Image::Image
; Function compile flags: /Odt /RTCsu
_TEXT	ENDS
;	COMDAT ??_GImage@Gdiplus@@UAEPAXI@Z
_TEXT	SEGMENT
_this$ = -4						; size = 4
___flags$ = 8						; size = 4
??_GImage@Gdiplus@@UAEPAXI@Z PROC NEAR			; Gdiplus::Image::`scalar deleting destructor', COMDAT
; _this$ = ecx
  00000	55		 push	 ebp
  00001	8b ec		 mov	 ebp, esp
  00003	51		 push	 ecx
  00004	c7 45 fc cc cc
	cc cc		 mov	 DWORD PTR [ebp-4], -858993460 ; ccccccccH
  0000b	89 4d fc	 mov	 DWORD PTR _this$[ebp], ecx
  0000e	8b 4d fc	 mov	 ecx, DWORD PTR _this$[ebp]
  00011	e8 00 00 00 00	 call	 ??1Image@Gdiplus@@UAE@XZ ; Gdiplus::Image::~Image
  00016	8b 45 08	 mov	 eax, DWORD PTR ___flags$[ebp]
  00019	83 e0 01	 and	 eax, 1
  0001c	74 0c		 je	 SHORT $L109528
  0001e	8b 4d fc	 mov	 ecx, DWORD PTR _this$[ebp]
  00021	51		 push	 ecx
  00022	e8 00 00 00 00	 call	 ??3GdiplusBase@Gdiplus@@SAXPAX@Z ; Gdiplus::GdiplusBase::operator delete
  00027	83 c4 04	 add	 esp, 4
$L109528:
  0002a	8b 45 fc	 mov	 eax, DWORD PTR _this$[ebp]
  0002d	83 c4 04	 add	 esp, 4
  00030	3b ec		 cmp	 ebp, esp
  00032	e8 00 00 00 00	 call	 __RTC_CheckEsp
  00037	8b e5		 mov	 esp, ebp
  00039	5d		 pop	 ebp
  0003a	c2 04 00	 ret	 4
??_GImage@Gdiplus@@UAEPAXI@Z ENDP			; Gdiplus::Image::`scalar deleting destructor'
_TEXT	ENDS
EXTRN	_GdipDisposeImage@4:NEAR
; Function compile flags: /Odt /RTCsu
;	COMDAT ??1Image@Gdiplus@@UAE@XZ
_TEXT	SEGMENT
_this$ = -4						; size = 4
??1Image@Gdiplus@@UAE@XZ PROC NEAR			; Gdiplus::Image::~Image, COMDAT
; _this$ = ecx

; 90   : {

  00000	55		 push	 ebp
  00001	8b ec		 mov	 ebp, esp
  00003	51		 push	 ecx
  00004	c7 45 fc cc cc
	cc cc		 mov	 DWORD PTR [ebp-4], -858993460 ; ccccccccH
  0000b	89 4d fc	 mov	 DWORD PTR _this$[ebp], ecx
  0000e	8b 45 fc	 mov	 eax, DWORD PTR _this$[ebp]
  00011	c7 00 00 00 00
	00		 mov	 DWORD PTR [eax], OFFSET FLAT:??_7Image@Gdiplus@@6B@

; 91   :     DllExports::GdipDisposeImage(nativeImage);

  00017	8b 4d fc	 mov	 ecx, DWORD PTR _this$[ebp]
  0001a	8b 51 04	 mov	 edx, DWORD PTR [ecx+4]
  0001d	52		 push	 edx
  0001e	e8 00 00 00 00	 call	 _GdipDisposeImage@4

; 92   : }

  00023	83 c4 04	 add	 esp, 4
  00026	3b ec		 cmp	 ebp, esp
  00028	e8 00 00 00 00	 call	 __RTC_CheckEsp
  0002d	8b e5		 mov	 esp, ebp
  0002f	5d		 pop	 ebp
  00030	c3		 ret	 0
??1Image@Gdiplus@@UAE@XZ ENDP				; Gdiplus::Image::~Image
_TEXT	ENDS
PUBLIC	??0Image@Gdiplus@@IAE@PAVGpImage@1@W4Status@1@@Z ; Gdiplus::Image::Image
PUBLIC	?SetStatus@Image@Gdiplus@@IBE?AW4Status@2@W432@@Z ; Gdiplus::Image::SetStatus
EXTRN	_GdipCloneImage@8:NEAR
;	COMDAT xdata$x
xdata$x	SEGMENT
$T193186 DD	0ffffffffH
	DD	FLAT:$L193179
$T193181 DD	019930520H
	DD	01H
	DD	FLAT:$T193186
	DD	2 DUP(00H)
	DD	2 DUP(00H)
; Function compile flags: /Odt /RTCsu
xdata$x	ENDS
;	COMDAT ?Clone@Image@Gdiplus@@UAEPAV12@XZ
_TEXT	SEGMENT
tv80 = -40						; size = 4
$T193176 = -36						; size = 4
$T193175 = -32						; size = 4
_cloneimage$ = -24					; size = 4
_this$ = -16						; size = 4
__$EHRec$ = -12						; size = 12
?Clone@Image@Gdiplus@@UAEPAV12@XZ PROC NEAR		; Gdiplus::Image::Clone, COMDAT
; _this$ = ecx

; 96   : {

  00000	55		 push	 ebp
  00001	8b ec		 mov	 ebp, esp
  00003	6a ff		 push	 -1
  00005	68 00 00 00 00	 push	 __ehhandler$?Clone@Image@Gdiplus@@UAEPAV12@XZ
  0000a	64 a1 00 00 00
	00		 mov	 eax, DWORD PTR fs:__except_list
  00010	50		 push	 eax
  00011	64 89 25 00 00
	00 00		 mov	 DWORD PTR fs:__except_list, esp
  00018	83 ec 1c	 sub	 esp, 28			; 0000001cH
  0001b	b8 cc cc cc cc	 mov	 eax, -858993460		; ccccccccH
  00020	89 45 d8	 mov	 DWORD PTR [ebp-40], eax
  00023	89 45 dc	 mov	 DWORD PTR [ebp-36], eax
  00026	89 45 e0	 mov	 DWORD PTR [ebp-32], eax
  00029	89 45 e4	 mov	 DWORD PTR [ebp-28], eax
  0002c	89 45 e8	 mov	 DWORD PTR [ebp-24], eax
  0002f	89 45 ec	 mov	 DWORD PTR [ebp-20], eax
  00032	89 45 f0	 mov	 DWORD PTR [ebp-16], eax
  00035	89 4d f0	 mov	 DWORD PTR _this$[ebp], ecx

; 97   :     GpImage *cloneimage = NULL;

  00038	c7 45 e8 00 00
	00 00		 mov	 DWORD PTR _cloneimage$[ebp], 0

; 98   : 
; 99   :     SetStatus(DllExports::GdipCloneImage(nativeImage, &cloneimage));

  0003f	8d 45 e8	 lea	 eax, DWORD PTR _cloneimage$[ebp]
  00042	50		 push	 eax
  00043	8b 4d f0	 mov	 ecx, DWORD PTR _this$[ebp]
  00046	8b 51 04	 mov	 edx, DWORD PTR [ecx+4]
  00049	52		 push	 edx
  0004a	e8 00 00 00 00	 call	 _GdipCloneImage@8
  0004f	50		 push	 eax
  00050	8b 4d f0	 mov	 ecx, DWORD PTR _this$[ebp]
  00053	e8 00 00 00 00	 call	 ?SetStatus@Image@Gdiplus@@IBE?AW4Status@2@W432@@Z ; Gdiplus::Image::SetStatus

; 100  : 
; 101  :     return new Image(cloneimage, lastResult);

  00058	6a 10		 push	 16			; 00000010H
  0005a	e8 00 00 00 00	 call	 ??2GdiplusBase@Gdiplus@@SAPAXI@Z ; Gdiplus::GdiplusBase::operator new
  0005f	83 c4 04	 add	 esp, 4
  00062	89 45 dc	 mov	 DWORD PTR $T193176[ebp], eax
  00065	c7 45 fc 00 00
	00 00		 mov	 DWORD PTR __$EHRec$[ebp+8], 0
  0006c	83 7d dc 00	 cmp	 DWORD PTR $T193176[ebp], 0
  00070	74 18		 je	 SHORT $L193177
  00072	8b 45 f0	 mov	 eax, DWORD PTR _this$[ebp]
  00075	8b 48 08	 mov	 ecx, DWORD PTR [eax+8]
  00078	51		 push	 ecx
  00079	8b 55 e8	 mov	 edx, DWORD PTR _cloneimage$[ebp]
  0007c	52		 push	 edx
  0007d	8b 4d dc	 mov	 ecx, DWORD PTR $T193176[ebp]
  00080	e8 00 00 00 00	 call	 ??0Image@Gdiplus@@IAE@PAVGpImage@1@W4Status@1@@Z ; Gdiplus::Image::Image
  00085	89 45 d8	 mov	 DWORD PTR tv80[ebp], eax
  00088	eb 07		 jmp	 SHORT $L193178
$L193177:
  0008a	c7 45 d8 00 00
	00 00		 mov	 DWORD PTR tv80[ebp], 0
$L193178:
  00091	8b 45 d8	 mov	 eax, DWORD PTR tv80[ebp]
  00094	89 45 e0	 mov	 DWORD PTR $T193175[ebp], eax
  00097	c7 45 fc ff ff
	ff ff		 mov	 DWORD PTR __$EHRec$[ebp+8], -1
  0009e	8b 45 e0	 mov	 eax, DWORD PTR $T193175[ebp]

; 102  : }

  000a1	52		 push	 edx
  000a2	8b cd		 mov	 ecx, ebp
  000a4	50		 push	 eax
  000a5	8d 15 00 00 00
	00		 lea	 edx, DWORD PTR $L193185
  000ab	e8 00 00 00 00	 call	 @_RTC_CheckStackVars@8
  000b0	58		 pop	 eax
  000b1	5a		 pop	 edx
  000b2	8b 4d f4	 mov	 ecx, DWORD PTR __$EHRec$[ebp]
  000b5	64 89 0d 00 00
	00 00		 mov	 DWORD PTR fs:__except_list, ecx
  000bc	83 c4 28	 add	 esp, 40			; 00000028H
  000bf	3b ec		 cmp	 ebp, esp
  000c1	e8 00 00 00 00	 call	 __RTC_CheckEsp
  000c6	8b e5		 mov	 esp, ebp
  000c8	5d		 pop	 ebp
  000c9	c3		 ret	 0
$L193185:
  000ca	01 00 00 00	 DD	 1
  000ce	00 00 00 00	 DD	 $L193184
$L193184:
  000d2	e8 ff ff ff	 DD	 -24			; ffffffe8H
  000d6	04 00 00 00	 DD	 4
  000da	00 00 00 00	 DD	 $L193182
$L193182:
  000de	63		 DB	 99			; 00000063H
  000df	6c		 DB	 108			; 0000006cH
  000e0	6f		 DB	 111			; 0000006fH
  000e1	6e		 DB	 110			; 0000006eH
  000e2	65		 DB	 101			; 00000065H
  000e3	69		 DB	 105			; 00000069H
  000e4	6d		 DB	 109			; 0000006dH
  000e5	61		 DB	 97			; 00000061H
  000e6	67		 DB	 103			; 00000067H
  000e7	65		 DB	 101			; 00000065H
  000e8	00		 DB	 0
_TEXT	ENDS
;	COMDAT text$x
text$x	SEGMENT
$L193179:
  00000	8b 45 dc	 mov	 eax, DWORD PTR $T193176[ebp]
  00003	50		 push	 eax
  00004	e8 00 00 00 00	 call	 ??3GdiplusBase@Gdiplus@@SAXPAX@Z ; Gdiplus::GdiplusBase::operator delete
  00009	59		 pop	 ecx
  0000a	c3		 ret	 0
__ehhandler$?Clone@Image@Gdiplus@@UAEPAV12@XZ:
  0000b	b8 00 00 00 00	 mov	 eax, OFFSET FLAT:$T193181
  00010	e9 00 00 00 00	 jmp	 ___CxxFrameHandler
text$x	ENDS
?Clone@Image@Gdiplus@@UAEPAV12@XZ ENDP			; Gdiplus::Image::Clone
; Function compile flags: /Odt /RTCsu
; File d:\program files (x86)\microsoft visual studio .net 2003\vc7\platformsdk\include\gdiplusheaders.h
;	COMDAT ?SetStatus@Image@Gdiplus@@IBE?AW4Status@2@W432@@Z
_TEXT	SEGMENT
_this$ = -4						; size = 4
_status$ = 8						; size = 4
?SetStatus@Image@Gdiplus@@IBE?AW4Status@2@W432@@Z PROC NEAR ; Gdiplus::Image::SetStatus, COMDAT
; _this$ = ecx

; 472  :     {

  00000	55		 push	 ebp
  00001	8b ec		 mov	 ebp, esp
  00003	51		 push	 ecx
  00004	c7 45 fc cc cc
	cc cc		 mov	 DWORD PTR [ebp-4], -858993460 ; ccccccccH
  0000b	89 4d fc	 mov	 DWORD PTR _this$[ebp], ecx

; 473  :         if (status != Ok)

  0000e	83 7d 08 00	 cmp	 DWORD PTR _status$[ebp], 0
  00012	74 0e		 je	 SHORT $L109523

; 474  :             return (lastResult = status);

  00014	8b 45 fc	 mov	 eax, DWORD PTR _this$[ebp]
  00017	8b 4d 08	 mov	 ecx, DWORD PTR _status$[ebp]
  0001a	89 48 08	 mov	 DWORD PTR [eax+8], ecx
  0001d	8b 45 08	 mov	 eax, DWORD PTR _status$[ebp]
  00020	eb 03		 jmp	 SHORT $L109522
$L109523:

; 475  :         else
; 476  :             return status;

  00022	8b 45 08	 mov	 eax, DWORD PTR _status$[ebp]
$L109522:

; 477  :     }

  00025	8b e5		 mov	 esp, ebp
  00027	5d		 pop	 ebp
  00028	c2 04 00	 ret	 4
?SetStatus@Image@Gdiplus@@IBE?AW4Status@2@W432@@Z ENDP	; Gdiplus::Image::SetStatus
_TEXT	ENDS
PUBLIC	?SetNativeImage@Image@Gdiplus@@IAEXPAVGpImage@2@@Z ; Gdiplus::Image::SetNativeImage
; Function compile flags: /Odt /RTCsu
; File d:\program files (x86)\microsoft visual studio .net 2003\vc7\platformsdk\include\gdiplusbitmap.h
;	COMDAT ??0Image@Gdiplus@@IAE@PAVGpImage@1@W4Status@1@@Z
_TEXT	SEGMENT
_this$ = -4						; size = 4
_nativeImage$ = 8					; size = 4
_status$ = 12						; size = 4
??0Image@Gdiplus@@IAE@PAVGpImage@1@W4Status@1@@Z PROC NEAR ; Gdiplus::Image::Image, COMDAT
; _this$ = ecx

; 497  : {

  00000	55		 push	 ebp
  00001	8b ec		 mov	 ebp, esp
  00003	51		 push	 ecx
  00004	c7 45 fc cc cc
	cc cc		 mov	 DWORD PTR [ebp-4], -858993460 ; ccccccccH
  0000b	89 4d fc	 mov	 DWORD PTR _this$[ebp], ecx
  0000e	8b 45 fc	 mov	 eax, DWORD PTR _this$[ebp]
  00011	c7 00 00 00 00
	00		 mov	 DWORD PTR [eax], OFFSET FLAT:??_7Image@Gdiplus@@6B@

; 498  :     SetNativeImage(nativeImage);

  00017	8b 4d 08	 mov	 ecx, DWORD PTR _nativeImage$[ebp]
  0001a	51		 push	 ecx
  0001b	8b 4d fc	 mov	 ecx, DWORD PTR _this$[ebp]
  0001e	e8 00 00 00 00	 call	 ?SetNativeImage@Image@Gdiplus@@IAEXPAVGpImage@2@@Z ; Gdiplus::Image::SetNativeImage

; 499  :     lastResult = status;

  00023	8b 55 fc	 mov	 edx, DWORD PTR _this$[ebp]
  00026	8b 45 0c	 mov	 eax, DWORD PTR _status$[ebp]
  00029	89 42 08	 mov	 DWORD PTR [edx+8], eax

; 500  : }

  0002c	8b 45 fc	 mov	 eax, DWORD PTR _this$[ebp]
  0002f	83 c4 04	 add	 esp, 4
  00032	3b ec		 cmp	 ebp, esp
  00034	e8 00 00 00 00	 call	 __RTC_CheckEsp
  00039	8b e5		 mov	 esp, ebp
  0003b	5d		 pop	 ebp
  0003c	c2 08 00	 ret	 8
??0Image@Gdiplus@@IAE@PAVGpImage@1@W4Status@1@@Z ENDP	; Gdiplus::Image::Image
; Function compile flags: /Odt /RTCsu
_TEXT	ENDS
;	COMDAT ?SetNativeImage@Image@Gdiplus@@IAEXPAVGpImage@2@@Z
_TEXT	SEGMENT
_this$ = -4						; size = 4
_nativeImage$ = 8					; size = 4
?SetNativeImage@Image@Gdiplus@@IAEXPAVGpImage@2@@Z PROC NEAR ; Gdiplus::Image::SetNativeImage, COMDAT
; _this$ = ecx

; 504  : {

  00000	55		 push	 ebp
  00001	8b ec		 mov	 ebp, esp
  00003	51		 push	 ecx
  00004	c7 45 fc cc cc
	cc cc		 mov	 DWORD PTR [ebp-4], -858993460 ; ccccccccH
  0000b	89 4d fc	 mov	 DWORD PTR _this$[ebp], ecx

; 505  :     this->nativeImage = nativeImage;

  0000e	8b 45 fc	 mov	 eax, DWORD PTR _this$[ebp]
  00011	8b 4d 08	 mov	 ecx, DWORD PTR _nativeImage$[ebp]
  00014	89 48 04	 mov	 DWORD PTR [eax+4], ecx

; 506  : }

  00017	8b e5		 mov	 esp, ebp
  00019	5d		 pop	 ebp
  0001a	c2 04 00	 ret	 4
?SetNativeImage@Image@Gdiplus@@IAEXPAVGpImage@2@@Z ENDP	; Gdiplus::Image::SetNativeImage
_TEXT	ENDS
EXTRN	__imp_??0exception@@QAE@ABV0@@Z:NEAR
;	COMDAT xdata$x
xdata$x	SEGMENT
$T193198 DD	0ffffffffH
	DD	FLAT:$L193193
$T193196 DD	019930520H
	DD	01H
	DD	FLAT:$T193198
	DD	2 DUP(00H)
	DD	2 DUP(00H)
; Function compile flags: /Odt /RTCsu
xdata$x	ENDS
;	COMDAT ??0logic_error@std@@QAE@ABV01@@Z
_TEXT	SEGMENT
_this$ = -16						; size = 4
__$EHRec$ = -12						; size = 12
___that$ = 8						; size = 4
??0logic_error@std@@QAE@ABV01@@Z PROC NEAR		; std::logic_error::logic_error, COMDAT
; _this$ = ecx
  00000	55		 push	 ebp
  00001	8b ec		 mov	 ebp, esp
  00003	6a ff		 push	 -1
  00005	68 00 00 00 00	 push	 __ehhandler$??0logic_error@std@@QAE@ABV01@@Z
  0000a	64 a1 00 00 00
	00		 mov	 eax, DWORD PTR fs:__except_list
  00010	50		 push	 eax
  00011	64 89 25 00 00
	00 00		 mov	 DWORD PTR fs:__except_list, esp
  00018	51		 push	 ecx
  00019	56		 push	 esi
  0001a	c7 45 f0 cc cc
	cc cc		 mov	 DWORD PTR [ebp-16], -858993460 ; ccccccccH
  00021	89 4d f0	 mov	 DWORD PTR _this$[ebp], ecx
  00024	8b f4		 mov	 esi, esp
  00026	8b 45 08	 mov	 eax, DWORD PTR ___that$[ebp]
  00029	50		 push	 eax
  0002a	8b 4d f0	 mov	 ecx, DWORD PTR _this$[ebp]
  0002d	ff 15 00 00 00
	00		 call	 DWORD PTR __imp_??0exception@@QAE@ABV0@@Z
  00033	3b f4		 cmp	 esi, esp
  00035	e8 00 00 00 00	 call	 __RTC_CheckEsp
  0003a	c7 45 fc 00 00
	00 00		 mov	 DWORD PTR __$EHRec$[ebp+8], 0
  00041	8b 4d f0	 mov	 ecx, DWORD PTR _this$[ebp]
  00044	c7 01 00 00 00
	00		 mov	 DWORD PTR [ecx], OFFSET FLAT:??_7logic_error@std@@6B@
  0004a	8b 55 08	 mov	 edx, DWORD PTR ___that$[ebp]
  0004d	83 c2 0c	 add	 edx, 12			; 0000000cH
  00050	8b f4		 mov	 esi, esp
  00052	52		 push	 edx
  00053	8b 4d f0	 mov	 ecx, DWORD PTR _this$[ebp]
  00056	83 c1 0c	 add	 ecx, 12			; 0000000cH
  00059	ff 15 00 00 00
	00		 call	 DWORD PTR __imp_??0?$basic_string@DU?$char_traits@D@std@@V?$allocator@D@2@@std@@QAE@ABV01@@Z
  0005f	3b f4		 cmp	 esi, esp
  00061	e8 00 00 00 00	 call	 __RTC_CheckEsp
  00066	c7 45 fc ff ff
	ff ff		 mov	 DWORD PTR __$EHRec$[ebp+8], -1
  0006d	8b 45 f0	 mov	 eax, DWORD PTR _this$[ebp]
  00070	8b 4d f4	 mov	 ecx, DWORD PTR __$EHRec$[ebp]
  00073	64 89 0d 00 00
	00 00		 mov	 DWORD PTR fs:__except_list, ecx
  0007a	5e		 pop	 esi
  0007b	83 c4 10	 add	 esp, 16			; 00000010H
  0007e	3b ec		 cmp	 ebp, esp
  00080	e8 00 00 00 00	 call	 __RTC_CheckEsp
  00085	8b e5		 mov	 esp, ebp
  00087	5d		 pop	 ebp
  00088	c2 04 00	 ret	 4
_TEXT	ENDS
;	COMDAT text$x
text$x	SEGMENT
$L193193:
  00000	8b f4		 mov	 esi, esp
  00002	8b 4d f0	 mov	 ecx, DWORD PTR _this$[ebp]
  00005	ff 15 00 00 00
	00		 call	 DWORD PTR __imp_??1exception@@UAE@XZ
  0000b	3b f4		 cmp	 esi, esp
  0000d	e9 00 00 00 00	 jmp	 __RTC_CheckEsp
__ehhandler$??0logic_error@std@@QAE@ABV01@@Z:
  00012	b8 00 00 00 00	 mov	 eax, OFFSET FLAT:$T193196
  00017	e9 00 00 00 00	 jmp	 ___CxxFrameHandler
text$x	ENDS
??0logic_error@std@@QAE@ABV01@@Z ENDP			; std::logic_error::logic_error
CRT$XCU	SEGMENT
_$S6	DD	FLAT:_$E5
; Function compile flags: /Odt /RTCsu
; File d:\boxgit\playbox\playbox\dev\prj\playbox\src\appconfig\config\configappdef.h
CRT$XCU	ENDS
;	COMDAT _$E5
text$yc	SEGMENT
_$E5	PROC NEAR					; COMDAT

; 19   : 	CONF_APP_SWF_PATH,			TYPE_CONFIG_STR,

  00000	55		 push	 ebp
  00001	8b ec		 mov	 ebp, esp
  00003	a1 00 00 00 00	 mov	 eax, DWORD PTR _CONF_APP_SWF_PATH
  00008	a3 00 00 00 00	 mov	 DWORD PTR _CONF_APP, eax
  0000d	8b 0d 00 00 00
	00		 mov	 ecx, DWORD PTR _TYPE_CONFIG_STR
  00013	89 0d 04 00 00
	00		 mov	 DWORD PTR _CONF_APP+4, ecx

; 20   : 	CONF_APP_MAINWND_HOLD,		TYPE_CONFIG_BOOL,

  00019	8b 15 00 00 00
	00		 mov	 edx, DWORD PTR _CONF_APP_MAINWND_HOLD
  0001f	89 15 08 00 00
	00		 mov	 DWORD PTR _CONF_APP+8, edx
  00025	a1 00 00 00 00	 mov	 eax, DWORD PTR _TYPE_CONFIG_BOOL
  0002a	a3 0c 00 00 00	 mov	 DWORD PTR _CONF_APP+12, eax

; 21   : 	CONF_APP_RUN_COUNT,			TYPE_CONFIG_INT,

  0002f	8b 0d 00 00 00
	00		 mov	 ecx, DWORD PTR _CONF_APP_RUN_COUNT
  00035	89 0d 10 00 00
	00		 mov	 DWORD PTR _CONF_APP+16, ecx
  0003b	8b 15 00 00 00
	00		 mov	 edx, DWORD PTR _TYPE_CONFIG_INT
  00041	89 15 14 00 00
	00		 mov	 DWORD PTR _CONF_APP+20, edx

; 22   : 	CONF_APP_PLAYED_GAME,		TYPE_CONFIG_INT,

  00047	a1 00 00 00 00	 mov	 eax, DWORD PTR _CONF_APP_PLAYED_GAME
  0004c	a3 18 00 00 00	 mov	 DWORD PTR _CONF_APP+24, eax
  00051	8b 0d 00 00 00
	00		 mov	 ecx, DWORD PTR _TYPE_CONFIG_INT
  00057	89 0d 1c 00 00
	00		 mov	 DWORD PTR _CONF_APP+28, ecx

; 23   : 	CONF_APP_PLAYED_PC_GAME,	TYPE_CONFIG_INT,

  0005d	8b 15 00 00 00
	00		 mov	 edx, DWORD PTR _CONF_APP_PLAYED_PC_GAME
  00063	89 15 20 00 00
	00		 mov	 DWORD PTR _CONF_APP+32, edx
  00069	a1 00 00 00 00	 mov	 eax, DWORD PTR _TYPE_CONFIG_INT
  0006e	a3 24 00 00 00	 mov	 DWORD PTR _CONF_APP+36, eax

; 24   : 	CONF_APP_PLAYED_ICON_SIZE,	TYPE_CONFIG_INT, //panelicon0,1,2

  00073	8b 0d 00 00 00
	00		 mov	 ecx, DWORD PTR _CONF_APP_PLAYED_ICON_SIZE
  00079	89 0d 28 00 00
	00		 mov	 DWORD PTR _CONF_APP+40, ecx
  0007f	8b 15 00 00 00
	00		 mov	 edx, DWORD PTR _TYPE_CONFIG_INT
  00085	89 15 2c 00 00
	00		 mov	 DWORD PTR _CONF_APP+44, edx

; 25   : 	CONF_APP_PIC_SAVE_PATH,		TYPE_CONFIG_STR

  0008b	a1 00 00 00 00	 mov	 eax, DWORD PTR _CONF_APP_PIC_SAVE_PATH
  00090	a3 30 00 00 00	 mov	 DWORD PTR _CONF_APP+48, eax

; 26   : };

  00095	8b 0d 00 00 00
	00		 mov	 ecx, DWORD PTR _TYPE_CONFIG_STR
  0009b	89 0d 34 00 00
	00		 mov	 DWORD PTR _CONF_APP+52, ecx
  000a1	5d		 pop	 ebp
  000a2	c3		 ret	 0
_$E5	ENDP
text$yc	ENDS
_BSS	SEGMENT
_CONF_APP DD	0eH DUP (?)
_BSS	ENDS
END
