; Listing generated by Microsoft (R) Optimizing Compiler Version 13.10.3077 

	TITLE	.\src\LayoutMgr\ChangeColor\MainSkinWnd.cpp
	.386P
include listing.inc
if @Version gt 510
.model FLAT
else
_TEXT	SEGMENT PARA USE32 PUBLIC 'CODE'
_TEXT	ENDS
_DATA	SEGMENT DWORD USE32 PUBLIC 'DATA'
_DATA	ENDS
CONST	SEGMENT DWORD USE32 PUBLIC 'CONST'
CONST	ENDS
_BSS	SEGMENT DWORD USE32 PUBLIC 'BSS'
_BSS	ENDS
$$SYMBOLS	SEGMENT BYTE USE32 'DEBSYM'
$$SYMBOLS	ENDS
_TLS	SEGMENT DWORD USE32 PUBLIC 'TLS'
_TLS	ENDS
;	COMDAT ??_C@_0FC@OGIBLEP@d?3?2boxgit?2playbox?2playbox?2dev?2pr@
CONST	SEGMENT DWORD USE32 PUBLIC 'CONST'
CONST	ENDS
;	COMDAT ??_C@_0EN@IBFBLEEG@D?3?2Program?5Files?5?$CIx86?$CJ?2Microsoft@
CONST	SEGMENT DWORD USE32 PUBLIC 'CONST'
CONST	ENDS
;	COMDAT ??_C@_0BD@OLBABOEK@vector?$DMT?$DO?5too?5long?$AA@
CONST	SEGMENT DWORD USE32 PUBLIC 'CONST'
CONST	ENDS
rdata$r	SEGMENT DWORD USE32 PUBLIC 'CONST'
rdata$r	ENDS
xdata$x	SEGMENT DWORD USE32 PUBLIC 'CONST'
xdata$x	ENDS
text$AFX_COL1	SEGMENT PARA USE32 PUBLIC ''
text$AFX_COL1	ENDS
text$yc	SEGMENT PARA USE32 PUBLIC 'CODE'
text$yc	ENDS
CRT$XCA	SEGMENT DWORD USE32 PUBLIC 'DATA'
CRT$XCA	ENDS
CRT$XCU	SEGMENT DWORD USE32 PUBLIC 'DATA'
CRT$XCU	ENDS
CRT$XCL	SEGMENT DWORD USE32 PUBLIC 'DATA'
CRT$XCL	ENDS
CRT$XCC	SEGMENT DWORD USE32 PUBLIC 'DATA'
CRT$XCC	ENDS
CRT$XCZ	SEGMENT DWORD USE32 PUBLIC 'DATA'
CRT$XCZ	ENDS
text$yd	SEGMENT PARA USE32 PUBLIC 'CODE'
text$yd	ENDS
ATL$__m	SEGMENT DWORD USE32 PUBLIC ''
ATL$__m	ENDS
ATL$__z	SEGMENT DWORD USE32 PUBLIC ''
ATL$__z	ENDS
ATL$__a	SEGMENT DWORD USE32 PUBLIC ''
ATL$__a	ENDS
;	COMDAT ??1CGdiPlusBitmap@@UAE@XZ
_TEXT	SEGMENT PARA USE32 PUBLIC 'CODE'
_TEXT	ENDS
;	COMDAT ?Empty@CGdiPlusBitmap@@QAEXXZ
_TEXT	SEGMENT PARA USE32 PUBLIC 'CODE'
_TEXT	ENDS
;	COMDAT ?Load@CGdiPlusBitmap@@QAE_NPB_W@Z
_TEXT	SEGMENT PARA USE32 PUBLIC 'CODE'
_TEXT	ENDS
;	COMDAT ??_GCGdiPlusBitmap@@UAEPAXI@Z
_TEXT	SEGMENT PARA USE32 PUBLIC 'CODE'
_TEXT	ENDS
;	COMDAT ??1IData@@MAE@XZ
_TEXT	SEGMENT PARA USE32 PUBLIC 'CODE'
_TEXT	ENDS
;	COMDAT ?DataAppStart@IData@@UAEXXZ
_TEXT	SEGMENT PARA USE32 PUBLIC 'CODE'
_TEXT	ENDS
;	COMDAT ?DataAppExit@IData@@UAEXXZ
_TEXT	SEGMENT PARA USE32 PUBLIC 'CODE'
_TEXT	ENDS
;	COMDAT ??_GIData@@MAEPAXI@Z
_TEXT	SEGMENT PARA USE32 PUBLIC 'CODE'
_TEXT	ENDS
;	COMDAT ??1DIBINFO@@UAE@XZ
_TEXT	SEGMENT PARA USE32 PUBLIC 'CODE'
_TEXT	ENDS
;	COMDAT ??_GDIBINFO@@UAEPAXI@Z
_TEXT	SEGMENT PARA USE32 PUBLIC 'CODE'
_TEXT	ENDS
;	COMDAT ??0BaseColor@@QAE@XZ
_TEXT	SEGMENT PARA USE32 PUBLIC 'CODE'
_TEXT	ENDS
;	COMDAT ??1BaseColor@@QAE@XZ
_TEXT	SEGMENT PARA USE32 PUBLIC 'CODE'
_TEXT	ENDS
;	COMDAT ??_GBaseColor@@QAEPAXI@Z
_TEXT	SEGMENT PARA USE32 PUBLIC 'CODE'
_TEXT	ENDS
;	COMDAT ??1CGdiPlusBitmap@CSkinButton@@UAE@XZ
_TEXT	SEGMENT PARA USE32 PUBLIC 'CODE'
_TEXT	ENDS
;	COMDAT ?Empty@CGdiPlusBitmap@CSkinButton@@QAEXXZ
_TEXT	SEGMENT PARA USE32 PUBLIC 'CODE'
_TEXT	ENDS
;	COMDAT ?Load@CGdiPlusBitmap@CSkinButton@@QAE_NPB_W@Z
_TEXT	SEGMENT PARA USE32 PUBLIC 'CODE'
_TEXT	ENDS
;	COMDAT ??_GCGdiPlusBitmap@CSkinButton@@UAEPAXI@Z
_TEXT	SEGMENT PARA USE32 PUBLIC 'CODE'
_TEXT	ENDS
;	COMDAT ??1HTTPObserver@@UAE@XZ
_TEXT	SEGMENT PARA USE32 PUBLIC 'CODE'
_TEXT	ENDS
;	COMDAT ?HTTPOb_DownStart@HTTPObserver@@UAEXPBD0I@Z
_TEXT	SEGMENT PARA USE32 PUBLIC 'CODE'
_TEXT	ENDS
;	COMDAT ?HTTPOb_DownFinish@HTTPObserver@@UAEXPBD@Z
_TEXT	SEGMENT PARA USE32 PUBLIC 'CODE'
_TEXT	ENDS
;	COMDAT ?HTTPOb_DownFailed@HTTPObserver@@UAEXPBDW4HTTP_DOWN_FAILED_REASON@@@Z
_TEXT	SEGMENT PARA USE32 PUBLIC 'CODE'
_TEXT	ENDS
;	COMDAT ?HTTPOb_DownProgress@HTTPObserver@@UAEXPBDII@Z
_TEXT	SEGMENT PARA USE32 PUBLIC 'CODE'
_TEXT	ENDS
;	COMDAT ?HTTPOb_DownloadPause@HTTPObserver@@UAEXPBD@Z
_TEXT	SEGMENT PARA USE32 PUBLIC 'CODE'
_TEXT	ENDS
;	COMDAT ??_GHTTPObserver@@UAEPAXI@Z
_TEXT	SEGMENT PARA USE32 PUBLIC 'CODE'
_TEXT	ENDS
;	COMDAT ??1P2PObserver@@UAE@XZ
_TEXT	SEGMENT PARA USE32 PUBLIC 'CODE'
_TEXT	ENDS
;	COMDAT ?P2POb_DownStart@P2PObserver@@UAEXABV?$basic_string@DU?$char_traits@D@std@@V?$allocator@D@2@@std@@PBDI@Z
_TEXT	SEGMENT PARA USE32 PUBLIC 'CODE'
_TEXT	ENDS
;	COMDAT ?P2POb_DownFinish@P2PObserver@@UAEXABV?$basic_string@DU?$char_traits@D@std@@V?$allocator@D@2@@std@@@Z
_TEXT	SEGMENT PARA USE32 PUBLIC 'CODE'
_TEXT	ENDS
;	COMDAT ?P2POb_DownFailed@P2PObserver@@UAEXABV?$basic_string@DU?$char_traits@D@std@@V?$allocator@D@2@@std@@W4P2P_DOWN_FAILED_REASON@@@Z
_TEXT	SEGMENT PARA USE32 PUBLIC 'CODE'
_TEXT	ENDS
;	COMDAT ?P2POb_DownProgress@P2PObserver@@UAEXABV?$basic_string@DU?$char_traits@D@std@@V?$allocator@D@2@@std@@III@Z
_TEXT	SEGMENT PARA USE32 PUBLIC 'CODE'
_TEXT	ENDS
;	COMDAT ?P2POb_DownPause@P2PObserver@@UAEXABV?$basic_string@DU?$char_traits@D@std@@V?$allocator@D@2@@std@@@Z
_TEXT	SEGMENT PARA USE32 PUBLIC 'CODE'
_TEXT	ENDS
;	COMDAT ?P2POb_SigChange@P2PObserver@@UAEXABV?$basic_string@DU?$char_traits@D@std@@V?$allocator@D@2@@std@@0PBD@Z
_TEXT	SEGMENT PARA USE32 PUBLIC 'CODE'
_TEXT	ENDS
;	COMDAT ??_GP2PObserver@@UAEPAXI@Z
_TEXT	SEGMENT PARA USE32 PUBLIC 'CODE'
_TEXT	ENDS
;	COMDAT ?GetClsid@CShockwaveFlash@@QAEABU_GUID@@XZ
_TEXT	SEGMENT PARA USE32 PUBLIC 'CODE'
_TEXT	ENDS
;	COMDAT _$E5
text$yc	SEGMENT PARA USE32 PUBLIC 'CODE'
text$yc	ENDS
;	COMDAT ??_GCMainSkinWnd@@UAEPAXI@Z
_TEXT	SEGMENT PARA USE32 PUBLIC 'CODE'
_TEXT	ENDS
;	COMDAT ??1CColorDialog@@UAE@XZ
_TEXT	SEGMENT PARA USE32 PUBLIC 'CODE'
_TEXT	ENDS
;	COMDAT ??HATL@@YA?AV?$CStringT@DV?$StrTraitMFC_DLL@DV?$ChTraitsCRT@D@ATL@@@@@0@ABV10@0@Z
_TEXT	SEGMENT PARA USE32 PUBLIC 'CODE'
_TEXT	ENDS
;	COMDAT ??HATL@@YA?AV?$CStringT@DV?$StrTraitMFC_DLL@DV?$ChTraitsCRT@D@ATL@@@@@0@ABV10@PBD@Z
_TEXT	SEGMENT PARA USE32 PUBLIC 'CODE'
_TEXT	ENDS
;	COMDAT ??B?$CComPtrBase@UITypeInfo2@@@ATL@@QBEPAUITypeInfo2@@XZ
_TEXT	SEGMENT PARA USE32 PUBLIC 'CODE'
_TEXT	ENDS
;	COMDAT ?equal@?$istreambuf_iterator@DU?$char_traits@D@std@@@std@@QBE_NABV12@@Z
_TEXT	SEGMENT PARA USE32 PUBLIC 'CODE'
_TEXT	ENDS
;	COMDAT ?equal@?$istreambuf_iterator@_WU?$char_traits@_W@std@@@std@@QBE_NABV12@@Z
_TEXT	SEGMENT PARA USE32 PUBLIC 'CODE'
_TEXT	ENDS
;	COMDAT ??0?$vector@PAVCSkinButton2@@V?$allocator@PAVCSkinButton2@@@std@@@std@@QAE@XZ
_TEXT	SEGMENT PARA USE32 PUBLIC 'CODE'
_TEXT	ENDS
;	COMDAT ??1?$vector@PAVCSkinButton2@@V?$allocator@PAVCSkinButton2@@@std@@@std@@QAE@XZ
_TEXT	SEGMENT PARA USE32 PUBLIC 'CODE'
_TEXT	ENDS
;	COMDAT ?begin@?$vector@PAVCSkinButton2@@V?$allocator@PAVCSkinButton2@@@std@@@std@@QAE?AViterator@12@XZ
_TEXT	SEGMENT PARA USE32 PUBLIC 'CODE'
_TEXT	ENDS
;	COMDAT ?end@?$vector@PAVCSkinButton2@@V?$allocator@PAVCSkinButton2@@@std@@@std@@QAE?AViterator@12@XZ
_TEXT	SEGMENT PARA USE32 PUBLIC 'CODE'
_TEXT	ENDS
;	COMDAT ?size@?$vector@PAVCSkinButton2@@V?$allocator@PAVCSkinButton2@@@std@@@std@@QBEIXZ
_TEXT	SEGMENT PARA USE32 PUBLIC 'CODE'
_TEXT	ENDS
;	COMDAT ??A?$vector@PAVCSkinButton2@@V?$allocator@PAVCSkinButton2@@@std@@@std@@QAEAAPAVCSkinButton2@@I@Z
_TEXT	SEGMENT PARA USE32 PUBLIC 'CODE'
_TEXT	ENDS
;	COMDAT ?push_back@?$vector@PAVCSkinButton2@@V?$allocator@PAVCSkinButton2@@@std@@@std@@QAEXABQAVCSkinButton2@@@Z
_TEXT	SEGMENT PARA USE32 PUBLIC 'CODE'
_TEXT	ENDS
;	COMDAT ?clear@?$vector@PAVCSkinButton2@@V?$allocator@PAVCSkinButton2@@@std@@@std@@QAEXXZ
_TEXT	SEGMENT PARA USE32 PUBLIC 'CODE'
_TEXT	ENDS
;	COMDAT ??Diterator@?$vector@PAVCSkinButton2@@V?$allocator@PAVCSkinButton2@@@std@@@std@@QBEAAPAVCSkinButton2@@XZ
_TEXT	SEGMENT PARA USE32 PUBLIC 'CODE'
_TEXT	ENDS
;	COMDAT ??Eiterator@?$vector@PAVCSkinButton2@@V?$allocator@PAVCSkinButton2@@@std@@@std@@QAE?AV012@H@Z
_TEXT	SEGMENT PARA USE32 PUBLIC 'CODE'
_TEXT	ENDS
;	COMDAT ??9const_iterator@?$vector@PAVCSkinButton2@@V?$allocator@PAVCSkinButton2@@@std@@@std@@QBE_NABV012@@Z
_TEXT	SEGMENT PARA USE32 PUBLIC 'CODE'
_TEXT	ENDS
;	COMDAT ??0?$vector@KV?$allocator@K@std@@@std@@QAE@XZ
_TEXT	SEGMENT PARA USE32 PUBLIC 'CODE'
_TEXT	ENDS
;	COMDAT ??1?$vector@KV?$allocator@K@std@@@std@@QAE@XZ
_TEXT	SEGMENT PARA USE32 PUBLIC 'CODE'
_TEXT	ENDS
;	COMDAT ??A?$vector@KV?$allocator@K@std@@@std@@QAEAAKI@Z
_TEXT	SEGMENT PARA USE32 PUBLIC 'CODE'
_TEXT	ENDS
;	COMDAT ?push_back@?$vector@KV?$allocator@K@std@@@std@@QAEXABK@Z
_TEXT	SEGMENT PARA USE32 PUBLIC 'CODE'
_TEXT	ENDS
;	COMDAT ?capacity@?$vector@PAVCSkinButton2@@V?$allocator@PAVCSkinButton2@@@std@@@std@@QBEIXZ
_TEXT	SEGMENT PARA USE32 PUBLIC 'CODE'
_TEXT	ENDS
;	COMDAT ?insert@?$vector@PAVCSkinButton2@@V?$allocator@PAVCSkinButton2@@@std@@@std@@QAE?AViterator@12@V312@ABQAVCSkinButton2@@@Z
_TEXT	SEGMENT PARA USE32 PUBLIC 'CODE'
_TEXT	ENDS
;	COMDAT ?_Buy@?$vector@PAVCSkinButton2@@V?$allocator@PAVCSkinButton2@@@std@@@std@@IAE_NI@Z
_TEXT	SEGMENT PARA USE32 PUBLIC 'CODE'
_TEXT	ENDS
;	COMDAT ?_Tidy@?$vector@PAVCSkinButton2@@V?$allocator@PAVCSkinButton2@@@std@@@std@@IAEXXZ
_TEXT	SEGMENT PARA USE32 PUBLIC 'CODE'
_TEXT	ENDS
;	COMDAT ?_Ufill@?$vector@PAVCSkinButton2@@V?$allocator@PAVCSkinButton2@@@std@@@std@@IAEPAPAVCSkinButton2@@PAPAV3@IABQAV3@@Z
_TEXT	SEGMENT PARA USE32 PUBLIC 'CODE'
_TEXT	ENDS
;	COMDAT ??0?$_Vector_val@PAVCSkinButton2@@V?$allocator@PAVCSkinButton2@@@std@@@std@@IAE@V?$allocator@PAVCSkinButton2@@@1@@Z
_TEXT	SEGMENT PARA USE32 PUBLIC 'CODE'
_TEXT	ENDS
;	COMDAT ??0?$allocator@PAVCSkinButton2@@@std@@QAE@XZ
_TEXT	SEGMENT PARA USE32 PUBLIC 'CODE'
_TEXT	ENDS
;	COMDAT ??0iterator@?$vector@PAVCSkinButton2@@V?$allocator@PAVCSkinButton2@@@std@@@std@@QAE@PAPAVCSkinButton2@@@Z
_TEXT	SEGMENT PARA USE32 PUBLIC 'CODE'
_TEXT	ENDS
;	COMDAT ??Eiterator@?$vector@PAVCSkinButton2@@V?$allocator@PAVCSkinButton2@@@std@@@std@@QAEAAV012@XZ
_TEXT	SEGMENT PARA USE32 PUBLIC 'CODE'
_TEXT	ENDS
;	COMDAT ??Hiterator@?$vector@PAVCSkinButton2@@V?$allocator@PAVCSkinButton2@@@std@@@std@@QBE?AV012@H@Z
_TEXT	SEGMENT PARA USE32 PUBLIC 'CODE'
_TEXT	ENDS
;	COMDAT ??Dconst_iterator@?$vector@PAVCSkinButton2@@V?$allocator@PAVCSkinButton2@@@std@@@std@@QBEABQAVCSkinButton2@@XZ
_TEXT	SEGMENT PARA USE32 PUBLIC 'CODE'
_TEXT	ENDS
;	COMDAT ??8const_iterator@?$vector@PAVCSkinButton2@@V?$allocator@PAVCSkinButton2@@@std@@@std@@QBE_NABV012@@Z
_TEXT	SEGMENT PARA USE32 PUBLIC 'CODE'
_TEXT	ENDS
;	COMDAT ?capacity@?$vector@KV?$allocator@K@std@@@std@@QBEIXZ
_TEXT	SEGMENT PARA USE32 PUBLIC 'CODE'
_TEXT	ENDS
;	COMDAT ?begin@?$vector@KV?$allocator@K@std@@@std@@QAE?AViterator@12@XZ
_TEXT	SEGMENT PARA USE32 PUBLIC 'CODE'
_TEXT	ENDS
;	COMDAT ?end@?$vector@KV?$allocator@K@std@@@std@@QAE?AViterator@12@XZ
_TEXT	SEGMENT PARA USE32 PUBLIC 'CODE'
_TEXT	ENDS
;	COMDAT ?size@?$vector@KV?$allocator@K@std@@@std@@QBEIXZ
_TEXT	SEGMENT PARA USE32 PUBLIC 'CODE'
_TEXT	ENDS
;	COMDAT ?insert@?$vector@KV?$allocator@K@std@@@std@@QAE?AViterator@12@V312@ABK@Z
_TEXT	SEGMENT PARA USE32 PUBLIC 'CODE'
_TEXT	ENDS
;	COMDAT ?_Buy@?$vector@KV?$allocator@K@std@@@std@@IAE_NI@Z
_TEXT	SEGMENT PARA USE32 PUBLIC 'CODE'
_TEXT	ENDS
;	COMDAT ?_Tidy@?$vector@KV?$allocator@K@std@@@std@@IAEXXZ
_TEXT	SEGMENT PARA USE32 PUBLIC 'CODE'
_TEXT	ENDS
;	COMDAT ?_Ufill@?$vector@KV?$allocator@K@std@@@std@@IAEPAKPAKIABK@Z
_TEXT	SEGMENT PARA USE32 PUBLIC 'CODE'
_TEXT	ENDS
;	COMDAT ??0?$_Vector_val@KV?$allocator@K@std@@@std@@IAE@V?$allocator@K@1@@Z
_TEXT	SEGMENT PARA USE32 PUBLIC 'CODE'
_TEXT	ENDS
;	COMDAT ??0?$allocator@K@std@@QAE@XZ
_TEXT	SEGMENT PARA USE32 PUBLIC 'CODE'
_TEXT	ENDS
;	COMDAT ??Diterator@?$vector@KV?$allocator@K@std@@@std@@QBEAAKXZ
_TEXT	SEGMENT PARA USE32 PUBLIC 'CODE'
_TEXT	ENDS
;	COMDAT ??Hiterator@?$vector@KV?$allocator@K@std@@@std@@QBE?AV012@H@Z
_TEXT	SEGMENT PARA USE32 PUBLIC 'CODE'
_TEXT	ENDS
;	COMDAT ?max_size@?$vector@PAVCSkinButton2@@V?$allocator@PAVCSkinButton2@@@std@@@std@@QBEIXZ
_TEXT	SEGMENT PARA USE32 PUBLIC 'CODE'
_TEXT	ENDS
;	COMDAT ?_Destroy@?$vector@PAVCSkinButton2@@V?$allocator@PAVCSkinButton2@@@std@@@std@@IAEXPAPAVCSkinButton2@@0@Z
_TEXT	SEGMENT PARA USE32 PUBLIC 'CODE'
_TEXT	ENDS
;	COMDAT ?_Insert_n@?$vector@PAVCSkinButton2@@V?$allocator@PAVCSkinButton2@@@std@@@std@@IAEXViterator@12@IABQAVCSkinButton2@@@Z
_TEXT	SEGMENT PARA USE32 PUBLIC 'CODE'
_TEXT	ENDS
;	COMDAT ?_Xlen@?$vector@PAVCSkinButton2@@V?$allocator@PAVCSkinButton2@@@std@@@std@@IBEXXZ
_TEXT	SEGMENT PARA USE32 PUBLIC 'CODE'
_TEXT	ENDS
;	COMDAT ??0?$allocator@PAVCSkinButton2@@@std@@QAE@ABV01@@Z
_TEXT	SEGMENT PARA USE32 PUBLIC 'CODE'
_TEXT	ENDS
;	COMDAT ?deallocate@?$allocator@PAVCSkinButton2@@@std@@QAEXPAPAVCSkinButton2@@I@Z
_TEXT	SEGMENT PARA USE32 PUBLIC 'CODE'
_TEXT	ENDS
;	COMDAT ?allocate@?$allocator@PAVCSkinButton2@@@std@@QAEPAPAVCSkinButton2@@I@Z
_TEXT	SEGMENT PARA USE32 PUBLIC 'CODE'
_TEXT	ENDS
;	COMDAT ??Yiterator@?$vector@PAVCSkinButton2@@V?$allocator@PAVCSkinButton2@@@std@@@std@@QAEAAV012@H@Z
_TEXT	SEGMENT PARA USE32 PUBLIC 'CODE'
_TEXT	ENDS
;	COMDAT ??Giterator@?$vector@PAVCSkinButton2@@V?$allocator@PAVCSkinButton2@@@std@@@std@@QBEHABVconst_iterator@12@@Z
_TEXT	SEGMENT PARA USE32 PUBLIC 'CODE'
_TEXT	ENDS
;	COMDAT ??0const_iterator@?$vector@PAVCSkinButton2@@V?$allocator@PAVCSkinButton2@@@std@@@std@@QAE@PAPAVCSkinButton2@@@Z
_TEXT	SEGMENT PARA USE32 PUBLIC 'CODE'
_TEXT	ENDS
;	COMDAT ?max_size@?$vector@KV?$allocator@K@std@@@std@@QBEIXZ
_TEXT	SEGMENT PARA USE32 PUBLIC 'CODE'
_TEXT	ENDS
;	COMDAT ?_Destroy@?$vector@KV?$allocator@K@std@@@std@@IAEXPAK0@Z
_TEXT	SEGMENT PARA USE32 PUBLIC 'CODE'
_TEXT	ENDS
;	COMDAT ?_Insert_n@?$vector@KV?$allocator@K@std@@@std@@IAEXViterator@12@IABK@Z
_TEXT	SEGMENT PARA USE32 PUBLIC 'CODE'
_TEXT	ENDS
;	COMDAT ?_Xlen@?$vector@KV?$allocator@K@std@@@std@@IBEXXZ
_TEXT	SEGMENT PARA USE32 PUBLIC 'CODE'
_TEXT	ENDS
;	COMDAT ??0?$allocator@K@std@@QAE@ABV01@@Z
_TEXT	SEGMENT PARA USE32 PUBLIC 'CODE'
_TEXT	ENDS
;	COMDAT ?deallocate@?$allocator@K@std@@QAEXPAKI@Z
_TEXT	SEGMENT PARA USE32 PUBLIC 'CODE'
_TEXT	ENDS
;	COMDAT ?allocate@?$allocator@K@std@@QAEPAKI@Z
_TEXT	SEGMENT PARA USE32 PUBLIC 'CODE'
_TEXT	ENDS
;	COMDAT ??0iterator@?$vector@KV?$allocator@K@std@@@std@@QAE@PAK@Z
_TEXT	SEGMENT PARA USE32 PUBLIC 'CODE'
_TEXT	ENDS
;	COMDAT ??Yiterator@?$vector@KV?$allocator@K@std@@@std@@QAEAAV012@H@Z
_TEXT	SEGMENT PARA USE32 PUBLIC 'CODE'
_TEXT	ENDS
;	COMDAT ??Giterator@?$vector@KV?$allocator@K@std@@@std@@QBEHABVconst_iterator@12@@Z
_TEXT	SEGMENT PARA USE32 PUBLIC 'CODE'
_TEXT	ENDS
;	COMDAT ??Dconst_iterator@?$vector@KV?$allocator@K@std@@@std@@QBEABKXZ
_TEXT	SEGMENT PARA USE32 PUBLIC 'CODE'
_TEXT	ENDS
;	COMDAT ??0length_error@std@@QAE@ABV01@@Z
_TEXT	SEGMENT PARA USE32 PUBLIC 'CODE'
_TEXT	ENDS
;	COMDAT ?max_size@?$allocator@PAVCSkinButton2@@@std@@QBEIXZ
_TEXT	SEGMENT PARA USE32 PUBLIC 'CODE'
_TEXT	ENDS
;	COMDAT ??Gconst_iterator@?$vector@PAVCSkinButton2@@V?$allocator@PAVCSkinButton2@@@std@@@std@@QBEHABV012@@Z
_TEXT	SEGMENT PARA USE32 PUBLIC 'CODE'
_TEXT	ENDS
;	COMDAT ?max_size@?$allocator@K@std@@QBEIXZ
_TEXT	SEGMENT PARA USE32 PUBLIC 'CODE'
_TEXT	ENDS
;	COMDAT ??0const_iterator@?$vector@KV?$allocator@K@std@@@std@@QAE@PAK@Z
_TEXT	SEGMENT PARA USE32 PUBLIC 'CODE'
_TEXT	ENDS
;	COMDAT ??Gconst_iterator@?$vector@KV?$allocator@K@std@@@std@@QBEHABV012@@Z
_TEXT	SEGMENT PARA USE32 PUBLIC 'CODE'
_TEXT	ENDS
;	COMDAT ?Unlock@?$CComCritSecLock@VCComCriticalSection@ATL@@@ATL@@QAEXXZ
_TEXT	SEGMENT PARA USE32 PUBLIC 'CODE'
_TEXT	ENDS
;	COMDAT ??$_Uninitialized_fill_n@PAPAVCSkinButton2@@IPAV1@V?$allocator@PAVCSkinButton2@@@std@@@std@@YAXPAPAVCSkinButton2@@IABQAV1@AAV?$allocator@PAVCSkinButton2@@@0@@Z
_TEXT	SEGMENT PARA USE32 PUBLIC 'CODE'
_TEXT	ENDS
;	COMDAT ??$_Uninitialized_fill_n@PAKIKV?$allocator@K@std@@@std@@YAXPAKIABKAAV?$allocator@K@0@@Z
_TEXT	SEGMENT PARA USE32 PUBLIC 'CODE'
_TEXT	ENDS
;	COMDAT ??$_Maklocstr@D@std@@YAPADPBDPADABU_Cvtvec@@@Z
_TEXT	SEGMENT PARA USE32 PUBLIC 'CODE'
_TEXT	ENDS
;	COMDAT ??$_Destroy_range@PAVCSkinButton2@@V?$allocator@PAVCSkinButton2@@@std@@@std@@YAXPAPAVCSkinButton2@@0AAV?$allocator@PAVCSkinButton2@@@0@@Z
_TEXT	SEGMENT PARA USE32 PUBLIC 'CODE'
_TEXT	ENDS
;	COMDAT ??$_Ucopy@PAPAVCSkinButton2@@@?$vector@PAVCSkinButton2@@V?$allocator@PAVCSkinButton2@@@std@@@std@@IAEPAPAVCSkinButton2@@PAPAV2@00@Z
_TEXT	SEGMENT PARA USE32 PUBLIC 'CODE'
_TEXT	ENDS
;	COMDAT ??$fill@PAPAVCSkinButton2@@PAV1@@std@@YAXPAPAVCSkinButton2@@0ABQAV1@@Z
_TEXT	SEGMENT PARA USE32 PUBLIC 'CODE'
_TEXT	ENDS
;	COMDAT ??$copy_backward@PAPAVCSkinButton2@@PAPAV1@@std@@YAPAPAVCSkinButton2@@PAPAV1@00@Z
_TEXT	SEGMENT PARA USE32 PUBLIC 'CODE'
_TEXT	ENDS
;	COMDAT ??$_Allocate@PAVCSkinButton2@@@std@@YAPAPAVCSkinButton2@@IPAPAV1@@Z
_TEXT	SEGMENT PARA USE32 PUBLIC 'CODE'
_TEXT	ENDS
;	COMDAT ??$_Destroy_range@KV?$allocator@K@std@@@std@@YAXPAK0AAV?$allocator@K@0@@Z
_TEXT	SEGMENT PARA USE32 PUBLIC 'CODE'
_TEXT	ENDS
;	COMDAT ??$_Ucopy@PAK@?$vector@KV?$allocator@K@std@@@std@@IAEPAKPAK00@Z
_TEXT	SEGMENT PARA USE32 PUBLIC 'CODE'
_TEXT	ENDS
;	COMDAT ??$fill@PAKK@std@@YAXPAK0ABK@Z
_TEXT	SEGMENT PARA USE32 PUBLIC 'CODE'
_TEXT	ENDS
;	COMDAT ??$copy_backward@PAKPAK@std@@YAPAKPAK00@Z
_TEXT	SEGMENT PARA USE32 PUBLIC 'CODE'
_TEXT	ENDS
;	COMDAT ??$_Allocate@K@std@@YAPAKIPAK@Z
_TEXT	SEGMENT PARA USE32 PUBLIC 'CODE'
_TEXT	ENDS
;	COMDAT ??$_Ptr_cat@VCSkinButton2@@@std@@YA?AU_Scalar_ptr_iterator_tag@0@PAPAVCSkinButton2@@0@Z
_TEXT	SEGMENT PARA USE32 PUBLIC 'CODE'
_TEXT	ENDS
;	COMDAT ??$_Uninit_fill_n@PAVCSkinButton2@@IPAV1@@std@@YAXPAPAVCSkinButton2@@IABQAV1@AAV?$allocator@PAVCSkinButton2@@@0@U_Scalar_ptr_iterator_tag@0@@Z
_TEXT	SEGMENT PARA USE32 PUBLIC 'CODE'
_TEXT	ENDS
;	COMDAT ??$_Uninit_fill_n@KIK@std@@YAXPAKIABKAAV?$allocator@K@0@U_Scalar_ptr_iterator_tag@0@@Z
_TEXT	SEGMENT PARA USE32 PUBLIC 'CODE'
_TEXT	ENDS
;	COMDAT ??$_Destroy_range@PAVCSkinButton2@@V?$allocator@PAVCSkinButton2@@@std@@@std@@YAXPAPAVCSkinButton2@@0AAV?$allocator@PAVCSkinButton2@@@0@U_Scalar_ptr_iterator_tag@0@@Z
_TEXT	SEGMENT PARA USE32 PUBLIC 'CODE'
_TEXT	ENDS
;	COMDAT ??$_Uninitialized_copy@PAPAVCSkinButton2@@PAPAV1@V?$allocator@PAVCSkinButton2@@@std@@@std@@YAPAPAVCSkinButton2@@PAPAV1@00AAV?$allocator@PAVCSkinButton2@@@0@@Z
_TEXT	SEGMENT PARA USE32 PUBLIC 'CODE'
_TEXT	ENDS
;	COMDAT ??$_Copy_backward_opt@PAPAVCSkinButton2@@PAPAV1@@std@@YAPAPAVCSkinButton2@@PAPAV1@00U_Scalar_ptr_iterator_tag@0@@Z
_TEXT	SEGMENT PARA USE32 PUBLIC 'CODE'
_TEXT	ENDS
;	COMDAT ??$_Destroy_range@KV?$allocator@K@std@@@std@@YAXPAK0AAV?$allocator@K@0@U_Scalar_ptr_iterator_tag@0@@Z
_TEXT	SEGMENT PARA USE32 PUBLIC 'CODE'
_TEXT	ENDS
;	COMDAT ??$_Uninitialized_copy@PAKPAKV?$allocator@K@std@@@std@@YAPAKPAK00AAV?$allocator@K@0@@Z
_TEXT	SEGMENT PARA USE32 PUBLIC 'CODE'
_TEXT	ENDS
;	COMDAT ??$_Copy_backward_opt@PAKPAK@std@@YAPAKPAK00U_Scalar_ptr_iterator_tag@0@@Z
_TEXT	SEGMENT PARA USE32 PUBLIC 'CODE'
_TEXT	ENDS
;	COMDAT ??$fill_n@PAPAVCSkinButton2@@IPAV1@@std@@YAXPAPAVCSkinButton2@@IABQAV1@@Z
_TEXT	SEGMENT PARA USE32 PUBLIC 'CODE'
_TEXT	ENDS
;	COMDAT ??$fill_n@PAKIK@std@@YAXPAKIABK@Z
_TEXT	SEGMENT PARA USE32 PUBLIC 'CODE'
_TEXT	ENDS
;	COMDAT ??$_Uninit_copy@PAVCSkinButton2@@PAV1@@std@@YAPAPAVCSkinButton2@@PAPAV1@00AAV?$allocator@PAVCSkinButton2@@@0@U_Scalar_ptr_iterator_tag@0@@Z
_TEXT	SEGMENT PARA USE32 PUBLIC 'CODE'
_TEXT	ENDS
;	COMDAT ??$_Uninit_copy@KK@std@@YAPAKPAK00AAV?$allocator@K@0@U_Scalar_ptr_iterator_tag@0@@Z
_TEXT	SEGMENT PARA USE32 PUBLIC 'CODE'
_TEXT	ENDS
;	COMDAT ??_R3DIBINFO@@8
rdata$r	SEGMENT DWORD USE32 PUBLIC 'CONST'
rdata$r	ENDS
;	COMDAT ??_R3CGdiPlusBitmap@@8
rdata$r	SEGMENT DWORD USE32 PUBLIC 'CONST'
rdata$r	ENDS
;	COMDAT ??_R3CMainSkinWnd@@8
rdata$r	SEGMENT DWORD USE32 PUBLIC 'CONST'
rdata$r	ENDS
;	COMDAT ??_R3CGdiPlusBitmap@CSkinButton@@8
rdata$r	SEGMENT DWORD USE32 PUBLIC 'CONST'
rdata$r	ENDS
;	COMDAT ??_R3P2PObserver@@8
rdata$r	SEGMENT DWORD USE32 PUBLIC 'CONST'
rdata$r	ENDS
;	COMDAT ??_R3?$numpunct@_W@std@@8
rdata$r	SEGMENT DWORD USE32 PUBLIC 'CONST'
rdata$r	ENDS
;	COMDAT ??_R3HTTPObserver@@8
rdata$r	SEGMENT DWORD USE32 PUBLIC 'CONST'
rdata$r	ENDS
;	COMDAT ??_R3?$numpunct@D@std@@8
rdata$r	SEGMENT DWORD USE32 PUBLIC 'CONST'
rdata$r	ENDS
;	COMDAT ??_R3IData@@8
rdata$r	SEGMENT DWORD USE32 PUBLIC 'CONST'
rdata$r	ENDS
;	COMDAT ??_R2DIBINFO@@8
rdata$r	SEGMENT DWORD USE32 PUBLIC 'CONST'
rdata$r	ENDS
;	COMDAT ??_R2CGdiPlusBitmap@@8
rdata$r	SEGMENT DWORD USE32 PUBLIC 'CONST'
rdata$r	ENDS
;	COMDAT ??_R2CMainSkinWnd@@8
rdata$r	SEGMENT DWORD USE32 PUBLIC 'CONST'
rdata$r	ENDS
;	COMDAT ??_R2CGdiPlusBitmap@CSkinButton@@8
rdata$r	SEGMENT DWORD USE32 PUBLIC 'CONST'
rdata$r	ENDS
;	COMDAT ??_R2P2PObserver@@8
rdata$r	SEGMENT DWORD USE32 PUBLIC 'CONST'
rdata$r	ENDS
;	COMDAT ??_R2?$numpunct@_W@std@@8
rdata$r	SEGMENT DWORD USE32 PUBLIC 'CONST'
rdata$r	ENDS
;	COMDAT ??_R2HTTPObserver@@8
rdata$r	SEGMENT DWORD USE32 PUBLIC 'CONST'
rdata$r	ENDS
;	COMDAT ??_R2?$numpunct@D@std@@8
rdata$r	SEGMENT DWORD USE32 PUBLIC 'CONST'
rdata$r	ENDS
;	COMDAT ??_R2IData@@8
rdata$r	SEGMENT DWORD USE32 PUBLIC 'CONST'
rdata$r	ENDS
;	COMDAT ??_R1A@?0A@A@DIBINFO@@8
rdata$r	SEGMENT DWORD USE32 PUBLIC 'CONST'
rdata$r	ENDS
;	COMDAT ??_R1A@?0A@A@CGdiPlusBitmap@@8
rdata$r	SEGMENT DWORD USE32 PUBLIC 'CONST'
rdata$r	ENDS
;	COMDAT ??_R1A@?0A@A@CObject@@8
rdata$r	SEGMENT DWORD USE32 PUBLIC 'CONST'
rdata$r	ENDS
;	COMDAT ??_R0?AVCObject@@@8
_DATA	SEGMENT DWORD USE32 PUBLIC 'DATA'
_DATA	ENDS
;	COMDAT ??_R1A@?0A@A@CCmdTarget@@8
rdata$r	SEGMENT DWORD USE32 PUBLIC 'CONST'
rdata$r	ENDS
;	COMDAT ??_R0?AVCCmdTarget@@@8
_DATA	SEGMENT DWORD USE32 PUBLIC 'DATA'
_DATA	ENDS
;	COMDAT ??_R1A@?0A@A@CWnd@@8
rdata$r	SEGMENT DWORD USE32 PUBLIC 'CONST'
rdata$r	ENDS
;	COMDAT ??_R0?AVCWnd@@@8
_DATA	SEGMENT DWORD USE32 PUBLIC 'DATA'
_DATA	ENDS
;	COMDAT ??_R1A@?0A@A@CFrameWnd@@8
rdata$r	SEGMENT DWORD USE32 PUBLIC 'CONST'
rdata$r	ENDS
;	COMDAT ??_R1A@?0A@A@CMainSkinWnd@@8
rdata$r	SEGMENT DWORD USE32 PUBLIC 'CONST'
rdata$r	ENDS
;	COMDAT ??_R1A@?0A@A@CGdiPlusBitmap@CSkinButton@@8
rdata$r	SEGMENT DWORD USE32 PUBLIC 'CONST'
rdata$r	ENDS
;	COMDAT ??_R1A@?0A@A@P2PObserver@@8
rdata$r	SEGMENT DWORD USE32 PUBLIC 'CONST'
rdata$r	ENDS
;	COMDAT ??_R1A@?0A@A@?$numpunct@_W@std@@8
rdata$r	SEGMENT DWORD USE32 PUBLIC 'CONST'
rdata$r	ENDS
;	COMDAT ??_R1A@?0A@A@HTTPObserver@@8
rdata$r	SEGMENT DWORD USE32 PUBLIC 'CONST'
rdata$r	ENDS
;	COMDAT ??_R1A@?0A@A@facet@locale@std@@8
rdata$r	SEGMENT DWORD USE32 PUBLIC 'CONST'
rdata$r	ENDS
;	COMDAT ??_R0?AVfacet@locale@std@@@8
_DATA	SEGMENT DWORD USE32 PUBLIC 'DATA'
_DATA	ENDS
;	COMDAT ??_R1A@?0A@A@?$numpunct@D@std@@8
rdata$r	SEGMENT DWORD USE32 PUBLIC 'CONST'
rdata$r	ENDS
;	COMDAT ??_R1A@?0A@A@IData@@8
rdata$r	SEGMENT DWORD USE32 PUBLIC 'CONST'
rdata$r	ENDS
;	COMDAT ??_R0?AVDIBINFO@@@8
_DATA	SEGMENT DWORD USE32 PUBLIC 'DATA'
_DATA	ENDS
;	COMDAT ??_R0?AVCGdiPlusBitmap@@@8
_DATA	SEGMENT DWORD USE32 PUBLIC 'DATA'
_DATA	ENDS
;	COMDAT ??_R0?AVCFrameWnd@@@8
_DATA	SEGMENT DWORD USE32 PUBLIC 'DATA'
_DATA	ENDS
;	COMDAT ??_R0?AVCMainSkinWnd@@@8
_DATA	SEGMENT DWORD USE32 PUBLIC 'DATA'
_DATA	ENDS
;	COMDAT ??_R0?AVCGdiPlusBitmap@CSkinButton@@@8
_DATA	SEGMENT DWORD USE32 PUBLIC 'DATA'
_DATA	ENDS
;	COMDAT ??_R0?AVP2PObserver@@@8
_DATA	SEGMENT DWORD USE32 PUBLIC 'DATA'
_DATA	ENDS
;	COMDAT ??_R0?AV?$numpunct@_W@std@@@8
_DATA	SEGMENT DWORD USE32 PUBLIC 'DATA'
_DATA	ENDS
;	COMDAT ??_R0?AVHTTPObserver@@@8
_DATA	SEGMENT DWORD USE32 PUBLIC 'DATA'
_DATA	ENDS
;	COMDAT ??_R0?AV?$numpunct@D@std@@@8
_DATA	SEGMENT DWORD USE32 PUBLIC 'DATA'
_DATA	ENDS
;	COMDAT ??_R0?AVIData@@@8
_DATA	SEGMENT DWORD USE32 PUBLIC 'DATA'
_DATA	ENDS
;	COMDAT ??_R4DIBINFO@@6B@
rdata$r	SEGMENT DWORD USE32 PUBLIC 'CONST'
rdata$r	ENDS
;	COMDAT ??_R4CGdiPlusBitmap@@6B@
rdata$r	SEGMENT DWORD USE32 PUBLIC 'CONST'
rdata$r	ENDS
;	COMDAT ??_R4CMainSkinWnd@@6B@
rdata$r	SEGMENT DWORD USE32 PUBLIC 'CONST'
rdata$r	ENDS
;	COMDAT ??_R4CGdiPlusBitmap@CSkinButton@@6B@
rdata$r	SEGMENT DWORD USE32 PUBLIC 'CONST'
rdata$r	ENDS
;	COMDAT ??_R4P2PObserver@@6B@
rdata$r	SEGMENT DWORD USE32 PUBLIC 'CONST'
rdata$r	ENDS
;	COMDAT ??0?$allocator@_W@std@@QAE@XZ
_TEXT	SEGMENT PARA USE32 PUBLIC 'CODE'
_TEXT	ENDS
;	COMDAT ??_G?$numpunct@_W@std@@MAEPAXI@Z
_TEXT	SEGMENT PARA USE32 PUBLIC 'CODE'
_TEXT	ENDS
;	COMDAT ??_R4?$numpunct@_W@std@@6B@
rdata$r	SEGMENT DWORD USE32 PUBLIC 'CONST'
rdata$r	ENDS
;	COMDAT ??_R4HTTPObserver@@6B@
rdata$r	SEGMENT DWORD USE32 PUBLIC 'CONST'
rdata$r	ENDS
;	COMDAT ??_G?$numpunct@D@std@@MAEPAXI@Z
_TEXT	SEGMENT PARA USE32 PUBLIC 'CODE'
_TEXT	ENDS
;	COMDAT ??_R4?$numpunct@D@std@@6B@
rdata$r	SEGMENT DWORD USE32 PUBLIC 'CONST'
rdata$r	ENDS
;	COMDAT ??_R4IData@@6B@
rdata$r	SEGMENT DWORD USE32 PUBLIC 'CONST'
rdata$r	ENDS
;	COMDAT ??_C@_0EN@CBMLGOH@D?3?2Program?5Files?5?$CIx86?$CJ?2Microsoft@
CONST	SEGMENT DWORD USE32 PUBLIC 'CONST'
CONST	ENDS
;	COMDAT ?_Ptr_cat@std@@YA?AU_Scalar_ptr_iterator_tag@1@PAK0@Z
_TEXT	SEGMENT PARA USE32 PUBLIC 'CODE'
_TEXT	ENDS
;	COMDAT ?_Psave@?$_Facetptr@V?$numpunct@_W@std@@@std@@2PBVfacet@locale@2@B
_DATA	SEGMENT DWORD USE32 PUBLIC 'DATA'
_DATA	ENDS
;	COMDAT ?_Psave@?$_Facetptr@V?$numpunct@D@std@@@std@@2PBVfacet@locale@2@B
_DATA	SEGMENT DWORD USE32 PUBLIC 'DATA'
_DATA	ENDS
;	COMDAT ?Unlock@CComCriticalSection@ATL@@QAEJXZ
_TEXT	SEGMENT PARA USE32 PUBLIC 'CODE'
_TEXT	ENDS
;	COMDAT ??_C@_0FG@LDNDNCJM@D?3?2Program?5Files?5?$CIx86?$CJ?2Microsoft@
CONST	SEGMENT DWORD USE32 PUBLIC 'CONST'
CONST	ENDS
;	COMDAT ??_C@_09HIEJFN@m_bLocked?$AA@
CONST	SEGMENT DWORD USE32 PUBLIC 'CONST'
CONST	ENDS
;	COMDAT ?_Psave@?$_Facetptr@V?$ctype@_W@std@@@std@@2PBVfacet@locale@2@B
_DATA	SEGMENT DWORD USE32 PUBLIC 'DATA'
_DATA	ENDS
;	COMDAT ?_Psave@?$_Facetptr@V?$ctype@D@std@@@std@@2PBVfacet@locale@2@B
_DATA	SEGMENT DWORD USE32 PUBLIC 'DATA'
_DATA	ENDS
;	COMDAT ??_7length_error@std@@6B@
CONST	SEGMENT DWORD USE32 PUBLIC 'CONST'
CONST	ENDS
;	COMDAT ??_R4length_error@std@@6B@
rdata$r	SEGMENT DWORD USE32 PUBLIC 'CONST'
rdata$r	ENDS
;	COMDAT ??_R3length_error@std@@8
rdata$r	SEGMENT DWORD USE32 PUBLIC 'CONST'
rdata$r	ENDS
;	COMDAT ??_R2length_error@std@@8
rdata$r	SEGMENT DWORD USE32 PUBLIC 'CONST'
rdata$r	ENDS
;	COMDAT ??_R1A@?0A@A@length_error@std@@8
rdata$r	SEGMENT DWORD USE32 PUBLIC 'CONST'
rdata$r	ENDS
;	COMDAT ??_R1A@?0A@A@logic_error@std@@8
rdata$r	SEGMENT DWORD USE32 PUBLIC 'CONST'
rdata$r	ENDS
;	COMDAT ??_R0?AVlogic_error@std@@@8
_DATA	SEGMENT DWORD USE32 PUBLIC 'DATA'
_DATA	ENDS
;	COMDAT ??_R1A@?0A@A@exception@@8
rdata$r	SEGMENT DWORD USE32 PUBLIC 'CONST'
rdata$r	ENDS
;	COMDAT ??_R0?AVexception@@@8
_DATA	SEGMENT DWORD USE32 PUBLIC 'DATA'
_DATA	ENDS
;	COMDAT ??_Glength_error@std@@UAEPAXI@Z
_TEXT	SEGMENT PARA USE32 PUBLIC 'CODE'
_TEXT	ENDS
;	COMDAT ?what@logic_error@std@@UBEPBDXZ
_TEXT	SEGMENT PARA USE32 PUBLIC 'CODE'
_TEXT	ENDS
;	COMDAT ??1logic_error@std@@UAE@XZ
_TEXT	SEGMENT PARA USE32 PUBLIC 'CODE'
_TEXT	ENDS
;	COMDAT ??_7logic_error@std@@6B@
CONST	SEGMENT DWORD USE32 PUBLIC 'CONST'
CONST	ENDS
;	COMDAT ??_R4logic_error@std@@6B@
rdata$r	SEGMENT DWORD USE32 PUBLIC 'CONST'
rdata$r	ENDS
;	COMDAT ??_R3logic_error@std@@8
rdata$r	SEGMENT DWORD USE32 PUBLIC 'CONST'
rdata$r	ENDS
;	COMDAT ??_R2logic_error@std@@8
rdata$r	SEGMENT DWORD USE32 PUBLIC 'CONST'
rdata$r	ENDS
;	COMDAT ??_Glogic_error@std@@UAEPAXI@Z
_TEXT	SEGMENT PARA USE32 PUBLIC 'CODE'
_TEXT	ENDS
;	COMDAT ??0logic_error@std@@QAE@ABV01@@Z
_TEXT	SEGMENT PARA USE32 PUBLIC 'CODE'
_TEXT	ENDS
;	COMDAT __CTA3?AVlength_error@std@@
xdata$x	SEGMENT DWORD USE32 PUBLIC 'CONST'
xdata$x	ENDS
;	COMDAT ??1length_error@std@@UAE@XZ
_TEXT	SEGMENT PARA USE32 PUBLIC 'CODE'
_TEXT	ENDS
;	COMDAT __CT??_R0?AVexception@@@8??0exception@@QAE@ABV0@@Z12
xdata$x	SEGMENT DWORD USE32 PUBLIC 'CONST'
xdata$x	ENDS
;	COMDAT __CT??_R0?AVlogic_error@std@@@8??0logic_error@std@@QAE@ABV01@@Z40
xdata$x	SEGMENT DWORD USE32 PUBLIC 'CONST'
xdata$x	ENDS
;	COMDAT __CT??_R0?AVlength_error@std@@@8??0length_error@std@@QAE@ABV01@@Z40
xdata$x	SEGMENT DWORD USE32 PUBLIC 'CONST'
xdata$x	ENDS
;	COMDAT ??_R0?AVlength_error@std@@@8
_DATA	SEGMENT DWORD USE32 PUBLIC 'DATA'
_DATA	ENDS
;	COMDAT __TI3?AVlength_error@std@@
xdata$x	SEGMENT DWORD USE32 PUBLIC 'CONST'
xdata$x	ENDS
;	COMDAT ??0length_error@std@@QAE@ABV?$basic_string@DU?$char_traits@D@std@@V?$allocator@D@2@@1@@Z
_TEXT	SEGMENT PARA USE32 PUBLIC 'CODE'
_TEXT	ENDS
;	COMDAT ??0logic_error@std@@QAE@ABV?$basic_string@DU?$char_traits@D@std@@V?$allocator@D@2@@1@@Z
_TEXT	SEGMENT PARA USE32 PUBLIC 'CODE'
_TEXT	ENDS
;	COMDAT ??$_Maklocchr@_W@std@@YA_WDPA_WABU_Cvtvec@@@Z
_TEXT	SEGMENT PARA USE32 PUBLIC 'CODE'
_TEXT	ENDS
;	COMDAT ??$_DebugHeapDelete@X@std@@YAXPAX@Z
_TEXT	SEGMENT PARA USE32 PUBLIC 'CODE'
_TEXT	ENDS
;	COMDAT ??$_Maklocstr@_W@std@@YAPA_WPBDPA_WABU_Cvtvec@@@Z
_TEXT	SEGMENT PARA USE32 PUBLIC 'CODE'
_TEXT	ENDS
;	COMDAT ??$_Maklocchr@D@std@@YADDPADABU_Cvtvec@@@Z
_TEXT	SEGMENT PARA USE32 PUBLIC 'CODE'
_TEXT	ENDS
;	COMDAT ??_C@_04LOAJBDKD@true?$AA@
CONST	SEGMENT DWORD USE32 PUBLIC 'CONST'
CONST	ENDS
;	COMDAT ??_C@_05LAPONLG@false?$AA@
CONST	SEGMENT DWORD USE32 PUBLIC 'CONST'
CONST	ENDS
;	COMDAT _wmemcpy
_TEXT	SEGMENT PARA USE32 PUBLIC 'CODE'
_TEXT	ENDS
;	COMDAT ?max_size@?$allocator@_W@std@@QBEIXZ
_TEXT	SEGMENT PARA USE32 PUBLIC 'CODE'
_TEXT	ENDS
;	COMDAT ?allocate@?$allocator@_W@std@@QAEPA_WI@Z
_TEXT	SEGMENT PARA USE32 PUBLIC 'CODE'
_TEXT	ENDS
;	COMDAT ??$_Allocate@_W@std@@YAPA_WIPA_W@Z
_TEXT	SEGMENT PARA USE32 PUBLIC 'CODE'
_TEXT	ENDS
;	COMDAT ??_C@_01GFHCPBMG@C?$AA@
CONST	SEGMENT DWORD USE32 PUBLIC 'CONST'
CONST	ENDS
;	COMDAT ?max_size@?$allocator@D@std@@QBEIXZ
_TEXT	SEGMENT PARA USE32 PUBLIC 'CODE'
_TEXT	ENDS
;	COMDAT ?allocate@?$allocator@D@std@@QAEPADI@Z
_TEXT	SEGMENT PARA USE32 PUBLIC 'CODE'
_TEXT	ENDS
;	COMDAT ??$_Allocate@D@std@@YAPADIPAD@Z
_TEXT	SEGMENT PARA USE32 PUBLIC 'CODE'
_TEXT	ENDS
;	COMDAT ?deallocate@?$allocator@D@std@@QAEXPADI@Z
_TEXT	SEGMENT PARA USE32 PUBLIC 'CODE'
_TEXT	ENDS
;	COMDAT ??0?$allocator@D@std@@QAE@XZ
_TEXT	SEGMENT PARA USE32 PUBLIC 'CODE'
_TEXT	ENDS
;	COMDAT ??0?$allocator@D@std@@QAE@ABV01@@Z
_TEXT	SEGMENT PARA USE32 PUBLIC 'CODE'
_TEXT	ENDS
;	COMDAT ?Release@CStringData@ATL@@QAEXXZ
_TEXT	SEGMENT PARA USE32 PUBLIC 'CODE'
_TEXT	ENDS
;	COMDAT ??_C@_0L@OIIMFBNE@nRefs?5?$CB?$DN?50?$AA@
CONST	SEGMENT DWORD USE32 PUBLIC 'CONST'
CONST	ENDS
;	COMDAT ??_C@_0FJ@DMHPDOJC@D?3?2Program?5Files?5?$CIx86?$CJ?2Microsoft@
CONST	SEGMENT DWORD USE32 PUBLIC 'CONST'
CONST	ENDS
;	COMDAT ??_C@_0BA@GOIMFHNK@pStringMgr?5?$CB?$DN?50?$AA@
CONST	SEGMENT DWORD USE32 PUBLIC 'CONST'
CONST	ENDS
;	COMDAT ?data@CStringData@ATL@@QAEPAXXZ
_TEXT	SEGMENT PARA USE32 PUBLIC 'CODE'
_TEXT	ENDS
;	COMDAT ??_C@_0BA@GNIEOBOF@nNewLength?5?$DO?$DN?50?$AA@
CONST	SEGMENT DWORD USE32 PUBLIC 'CONST'
CONST	ENDS
;	COMDAT ??_C@_0N@ILOMLJGA@nLength?5?$DO?$DN?50?$AA@
CONST	SEGMENT DWORD USE32 PUBLIC 'CONST'
CONST	ENDS
;	COMDAT ??_C@_0CD@EEFFJEGJ@nLength?5?$DM?$DN?5GetData?$CI?$CJ?9?$DOnAllocLeng@
CONST	SEGMENT DWORD USE32 PUBLIC 'CONST'
CONST	ENDS
;	COMDAT ?AtlThrow@ATL@@YGXJ@Z
_TEXT	SEGMENT PARA USE32 PUBLIC 'CODE'
_TEXT	ENDS
;	COMDAT ??RCTraceFileAndLineInfo@ATL@@QBAXKIPBDZZ
_TEXT	SEGMENT PARA USE32 PUBLIC 'CODE'
_TEXT	ENDS
;	COMDAT ?TraceV@CTrace@ATL@@QBAXPBDHKI0PAD@Z
_TEXT	SEGMENT PARA USE32 PUBLIC 'CODE'
_TEXT	ENDS
;	COMDAT ??0CTraceFileAndLineInfo@ATL@@QAE@PBDH@Z
_TEXT	SEGMENT PARA USE32 PUBLIC 'CODE'
_TEXT	ENDS
;	COMDAT ??_C@_0FI@NHHJANPC@D?3?2Program?5Files?5?$CIx86?$CJ?2Microsoft@
CONST	SEGMENT DWORD USE32 PUBLIC 'CONST'
CONST	ENDS
;	COMDAT ??_C@_0BF@IAAKIJDJ@AtlThrow?3?5hr?5?$DN?50x?$CFx?6?$AA@
CONST	SEGMENT DWORD USE32 PUBLIC 'CONST'
CONST	ENDS
;	COMDAT ??BCTraceCategory@ATL@@QBEKXZ
_TEXT	SEGMENT PARA USE32 PUBLIC 'CODE'
_TEXT	ENDS
;	COMDAT ?IsShared@CStringData@ATL@@QBE_NXZ
_TEXT	SEGMENT PARA USE32 PUBLIC 'CODE'
_TEXT	ENDS
;	COMDAT ??_C@_0CB@GFHAPKDK@pOldData?9?$DOnAllocLength?5?$DM?5nLength@
CONST	SEGMENT DWORD USE32 PUBLIC 'CONST'
CONST	ENDS
;	COMDAT ?_Peek@?$istreambuf_iterator@_WU?$char_traits@_W@std@@@std@@AAE_WXZ
_TEXT	SEGMENT PARA USE32 PUBLIC 'CODE'
_TEXT	ENDS
;	COMDAT ?_Peek@?$istreambuf_iterator@DU?$char_traits@D@std@@@std@@AAEDXZ
_TEXT	SEGMENT PARA USE32 PUBLIC 'CODE'
_TEXT	ENDS
;	COMDAT ??$use_facet@V?$ctype@_W@std@@@std@@YAABV?$ctype@_W@0@ABVlocale@0@@Z
_TEXT	SEGMENT PARA USE32 PUBLIC 'CODE'
_TEXT	ENDS
;	COMDAT ??_S?$ctype@_W@std@@6B@
CONST	SEGMENT DWORD USE32 PUBLIC 'CONST'
CONST	ENDS
;	COMDAT ??_R4?$ctype@_W@std@@6B@
rdata$r	SEGMENT DWORD USE32 PUBLIC 'CONST'
rdata$r	ENDS
;	COMDAT ??_R0?AV?$ctype@_W@std@@@8
_DATA	SEGMENT DWORD USE32 PUBLIC 'DATA'
_DATA	ENDS
;	COMDAT ??_R3?$ctype@_W@std@@8
rdata$r	SEGMENT DWORD USE32 PUBLIC 'CONST'
rdata$r	ENDS
;	COMDAT ??_R2?$ctype@_W@std@@8
rdata$r	SEGMENT DWORD USE32 PUBLIC 'CONST'
rdata$r	ENDS
;	COMDAT ??_R1A@?0A@A@?$ctype@_W@std@@8
rdata$r	SEGMENT DWORD USE32 PUBLIC 'CONST'
rdata$r	ENDS
;	COMDAT ??_R1A@?0A@A@ctype_base@std@@8
rdata$r	SEGMENT DWORD USE32 PUBLIC 'CONST'
rdata$r	ENDS
;	COMDAT ??_R0?AUctype_base@std@@@8
_DATA	SEGMENT DWORD USE32 PUBLIC 'DATA'
_DATA	ENDS
;	COMDAT ??_G?$ctype@_W@std@@MAEPAXI@Z
_TEXT	SEGMENT PARA USE32 PUBLIC 'CODE'
_TEXT	ENDS
;	COMDAT ??_C@_08EPJLHIJG@bad?5cast?$AA@
CONST	SEGMENT DWORD USE32 PUBLIC 'CONST'
CONST	ENDS
;	COMDAT __TI2?AVbad_cast@@
xdata$x	SEGMENT DWORD USE32 PUBLIC 'CONST'
xdata$x	ENDS
;	COMDAT __CTA2?AVbad_cast@@
xdata$x	SEGMENT DWORD USE32 PUBLIC 'CONST'
xdata$x	ENDS
;	COMDAT __CT??_R0?AVbad_cast@@@8??0bad_cast@@QAE@ABV0@@Z12
xdata$x	SEGMENT DWORD USE32 PUBLIC 'CONST'
xdata$x	ENDS
;	COMDAT ??_R0?AVbad_cast@@@8
_DATA	SEGMENT DWORD USE32 PUBLIC 'DATA'
_DATA	ENDS
;	COMDAT ??$_DebugHeapDelete@Vfacet@locale@std@@@std@@YAXPAVfacet@locale@0@@Z
_TEXT	SEGMENT PARA USE32 PUBLIC 'CODE'
_TEXT	ENDS
;	COMDAT ??$use_facet@V?$ctype@D@std@@@std@@YAABV?$ctype@D@0@ABVlocale@0@@Z
_TEXT	SEGMENT PARA USE32 PUBLIC 'CODE'
_TEXT	ENDS
;	COMDAT ??_S?$ctype@D@std@@6B@
CONST	SEGMENT DWORD USE32 PUBLIC 'CONST'
CONST	ENDS
;	COMDAT ??_R4?$ctype@D@std@@6B@
rdata$r	SEGMENT DWORD USE32 PUBLIC 'CONST'
rdata$r	ENDS
;	COMDAT ??_R0?AV?$ctype@D@std@@@8
_DATA	SEGMENT DWORD USE32 PUBLIC 'DATA'
_DATA	ENDS
;	COMDAT ??_R3?$ctype@D@std@@8
rdata$r	SEGMENT DWORD USE32 PUBLIC 'CONST'
rdata$r	ENDS
;	COMDAT ??_R2?$ctype@D@std@@8
rdata$r	SEGMENT DWORD USE32 PUBLIC 'CONST'
rdata$r	ENDS
;	COMDAT ??_R1A@?0A@A@?$ctype@D@std@@8
rdata$r	SEGMENT DWORD USE32 PUBLIC 'CONST'
rdata$r	ENDS
;	COMDAT ??_G?$ctype@D@std@@MAEPAXI@Z
_TEXT	SEGMENT PARA USE32 PUBLIC 'CODE'
_TEXT	ENDS
;	COMDAT ??_S?$numpunct@_W@std@@6B@
CONST	SEGMENT DWORD USE32 PUBLIC 'CONST'
CONST	ENDS
;	COMDAT ??_S?$numpunct@D@std@@6B@
CONST	SEGMENT DWORD USE32 PUBLIC 'CONST'
CONST	ENDS
;	COMDAT _wmemmove
_TEXT	SEGMENT PARA USE32 PUBLIC 'CODE'
_TEXT	ENDS
;	COMDAT ?deallocate@?$allocator@_W@std@@QAEXPA_WI@Z
_TEXT	SEGMENT PARA USE32 PUBLIC 'CODE'
_TEXT	ENDS
;	COMDAT ??0?$allocator@_W@std@@QAE@ABV01@@Z
_TEXT	SEGMENT PARA USE32 PUBLIC 'CODE'
_TEXT	ENDS
;	COMDAT ??1CCommonDialog@@UAE@XZ
_TEXT	SEGMENT PARA USE32 PUBLIC 'CODE'
_TEXT	ENDS
;	COMDAT ??_7CCommonDialog@@6B@
CONST	SEGMENT DWORD USE32 PUBLIC 'CONST'
CONST	ENDS
;	COMDAT ??_R4CCommonDialog@@6B@
rdata$r	SEGMENT DWORD USE32 PUBLIC 'CONST'
rdata$r	ENDS
;	COMDAT ??_R0?AVCCommonDialog@@@8
_DATA	SEGMENT DWORD USE32 PUBLIC 'DATA'
_DATA	ENDS
;	COMDAT ??_R3CCommonDialog@@8
rdata$r	SEGMENT DWORD USE32 PUBLIC 'CONST'
rdata$r	ENDS
;	COMDAT ??_R2CCommonDialog@@8
rdata$r	SEGMENT DWORD USE32 PUBLIC 'CONST'
rdata$r	ENDS
;	COMDAT ??_R1A@?0A@A@CCommonDialog@@8
rdata$r	SEGMENT DWORD USE32 PUBLIC 'CONST'
rdata$r	ENDS
;	COMDAT ??_R1A@?0A@A@CDialog@@8
rdata$r	SEGMENT DWORD USE32 PUBLIC 'CONST'
rdata$r	ENDS
;	COMDAT ??_R0?AVCDialog@@@8
_DATA	SEGMENT DWORD USE32 PUBLIC 'DATA'
_DATA	ENDS
;	COMDAT ?SetLayeredWindowAttributes@CWnd@@QAEHKEK@Z
_TEXT	SEGMENT PARA USE32 PUBLIC 'CODE'
_TEXT	ENDS
;	COMDAT ??_C@_0FI@KKCCAGJG@D?3?2Program?5Files?5?$CIx86?$CJ?2Microsoft@
CONST	SEGMENT DWORD USE32 PUBLIC 'CONST'
CONST	ENDS
;	COMDAT ?_messageEntries@CMainSkinWnd@@0QBUAFX_MSGMAP_ENTRY@@B
CONST	SEGMENT DWORD USE32 PUBLIC 'CONST'
CONST	ENDS
;	COMDAT ?messageMap@CMainSkinWnd@@1UAFX_MSGMAP@@B
CONST	SEGMENT DWORD USE32 PUBLIC 'CONST'
CONST	ENDS
;	COMDAT ?GetDefaultManager@?$StrTraitMFC_DLL@DV?$ChTraitsCRT@D@ATL@@@@SAPAUIAtlStringMgr@ATL@@XZ
_TEXT	SEGMENT PARA USE32 PUBLIC 'CODE'
_TEXT	ENDS
;	COMDAT ??_7CMainSkinWnd@@6B@
CONST	SEGMENT DWORD USE32 PUBLIC 'CONST'
CONST	ENDS
;	COMDAT ?classCMainSkinWnd@CMainSkinWnd@@2UCRuntimeClass@@B
CONST	SEGMENT DWORD USE32 PUBLIC 'CONST'
CONST	ENDS
;	COMDAT ?clsid@?1??GetClsid@CShockwaveFlash@@QAEABU_GUID@@XZ@4U3@B
CONST	SEGMENT DWORD USE32 PUBLIC 'CONST'
CONST	ENDS
;	COMDAT ??_7P2PObserver@@6B@
CONST	SEGMENT DWORD USE32 PUBLIC 'CONST'
CONST	ENDS
;	COMDAT ??_7HTTPObserver@@6B@
CONST	SEGMENT DWORD USE32 PUBLIC 'CONST'
CONST	ENDS
;	COMDAT ?FindStringResourceInstance@?$StrTraitMFC_DLL@DV?$ChTraitsCRT@D@ATL@@@@SAPAUHINSTANCE__@@I@Z
_TEXT	SEGMENT PARA USE32 PUBLIC 'CODE'
_TEXT	ENDS
;	COMDAT ?AtlGetStringResourceImage@ATL@@YAPBUATLSTRINGRESOURCEIMAGE@1@PAUHINSTANCE__@@I@Z
_TEXT	SEGMENT PARA USE32 PUBLIC 'CODE'
_TEXT	ENDS
;	COMDAT ?_AtlGetStringResourceImage@ATL@@YAPBUATLSTRINGRESOURCEIMAGE@1@PAUHINSTANCE__@@PAUHRSRC__@@I@Z
_TEXT	SEGMENT PARA USE32 PUBLIC 'CODE'
_TEXT	ENDS
;	COMDAT ?GetBaseTypeLength@?$ChTraitsCRT@D@ATL@@SAHPB_WH@Z
_TEXT	SEGMENT PARA USE32 PUBLIC 'CODE'
_TEXT	ENDS
;	COMDAT ?_AtlGetConversionACP@ATL@@YGIXZ
_TEXT	SEGMENT PARA USE32 PUBLIC 'CODE'
_TEXT	ENDS
;	COMDAT ?g_pfnGetThreadACP@ATL@@3P6GIXZA
_DATA	SEGMENT DWORD USE32 PUBLIC 'DATA'
_DATA	ENDS
;	COMDAT ?_AtlGetThreadACPThunk@ATL@@YGIXZ
_TEXT	SEGMENT PARA USE32 PUBLIC 'CODE'
_TEXT	ENDS
;	COMDAT ?_AtlGetThreadACPReal@ATL@@YGIXZ
_TEXT	SEGMENT PARA USE32 PUBLIC 'CODE'
_TEXT	ENDS
;	COMDAT ?_AtlGetThreadACPFake@ATL@@YGIXZ
_TEXT	SEGMENT PARA USE32 PUBLIC 'CODE'
_TEXT	ENDS
;	COMDAT ?InterlockedExchangePointer@@YGPAXPAPAXPAX@Z
_TEXT	SEGMENT PARA USE32 PUBLIC 'CODE'
_TEXT	ENDS
;	COMDAT ?ConvertToBaseType@?$ChTraitsCRT@D@ATL@@SAXPADHPB_WH@Z
_TEXT	SEGMENT PARA USE32 PUBLIC 'CODE'
_TEXT	ENDS
;	COMDAT ??_C@_0FH@KDPNIMBO@D?3?2Program?5Files?5?$CIx86?$CJ?2Microsoft@
CONST	SEGMENT DWORD USE32 PUBLIC 'CONST'
CONST	ENDS
;	COMDAT ??_C@_0CJ@FJEKGMMD@Warning?3?5implicit?5LoadString?$CI?$CFu?$CJ@
CONST	SEGMENT DWORD USE32 PUBLIC 'CONST'
CONST	ENDS
;	COMDAT ?IsLocked@CStringData@ATL@@QBE_NXZ
_TEXT	SEGMENT PARA USE32 PUBLIC 'CODE'
_TEXT	ENDS
;	COMDAT ?AddRef@CStringData@ATL@@QAEXXZ
_TEXT	SEGMENT PARA USE32 PUBLIC 'CODE'
_TEXT	ENDS
;	COMDAT ??_C@_09EEBKLCFA@nRefs?5?$DO?50?$AA@
CONST	SEGMENT DWORD USE32 PUBLIC 'CONST'
CONST	ENDS
;	COMDAT ??_7CGdiPlusBitmap@CSkinButton@@6B@
CONST	SEGMENT DWORD USE32 PUBLIC 'CONST'
CONST	ENDS
;	COMDAT ??_7DIBINFO@@6B@
CONST	SEGMENT DWORD USE32 PUBLIC 'CONST'
CONST	ENDS
;	COMDAT ??_7IData@@6B@
CONST	SEGMENT DWORD USE32 PUBLIC 'CONST'
CONST	ENDS
;	COMDAT ?GetLastStatus@Image@Gdiplus@@QBE?AW4Status@2@XZ
_TEXT	SEGMENT PARA USE32 PUBLIC 'CODE'
_TEXT	ENDS
;	COMDAT ?FromFile@Bitmap@Gdiplus@@SAPAV12@PB_WH@Z
_TEXT	SEGMENT PARA USE32 PUBLIC 'CODE'
_TEXT	ENDS
;	COMDAT ??2GdiplusBase@Gdiplus@@SAPAXI@Z
_TEXT	SEGMENT PARA USE32 PUBLIC 'CODE'
_TEXT	ENDS
;	COMDAT ??3GdiplusBase@Gdiplus@@SAXPAX@Z
_TEXT	SEGMENT PARA USE32 PUBLIC 'CODE'
_TEXT	ENDS
;	COMDAT ??0Bitmap@Gdiplus@@QAE@PB_WH@Z
_TEXT	SEGMENT PARA USE32 PUBLIC 'CODE'
_TEXT	ENDS
;	COMDAT ??0Image@Gdiplus@@IAE@XZ
_TEXT	SEGMENT PARA USE32 PUBLIC 'CODE'
_TEXT	ENDS
;	COMDAT ??_7Image@Gdiplus@@6B@
CONST	SEGMENT DWORD USE32 PUBLIC 'CONST'
CONST	ENDS
;	COMDAT ??_R4Image@Gdiplus@@6B@
rdata$r	SEGMENT DWORD USE32 PUBLIC 'CONST'
rdata$r	ENDS
;	COMDAT ??_R0?AVImage@Gdiplus@@@8
_DATA	SEGMENT DWORD USE32 PUBLIC 'DATA'
_DATA	ENDS
;	COMDAT ??_R3Image@Gdiplus@@8
rdata$r	SEGMENT DWORD USE32 PUBLIC 'CONST'
rdata$r	ENDS
;	COMDAT ??_R2Image@Gdiplus@@8
rdata$r	SEGMENT DWORD USE32 PUBLIC 'CONST'
rdata$r	ENDS
;	COMDAT ??_R1A@?0A@A@Image@Gdiplus@@8
rdata$r	SEGMENT DWORD USE32 PUBLIC 'CONST'
rdata$r	ENDS
;	COMDAT ??_R13?0A@A@GdiplusBase@Gdiplus@@8
rdata$r	SEGMENT DWORD USE32 PUBLIC 'CONST'
rdata$r	ENDS
;	COMDAT ??_R0?AVGdiplusBase@Gdiplus@@@8
_DATA	SEGMENT DWORD USE32 PUBLIC 'DATA'
_DATA	ENDS
;	COMDAT ??_GImage@Gdiplus@@UAEPAXI@Z
_TEXT	SEGMENT PARA USE32 PUBLIC 'CODE'
_TEXT	ENDS
;	COMDAT ?Clone@Image@Gdiplus@@UAEPAV12@XZ
_TEXT	SEGMENT PARA USE32 PUBLIC 'CODE'
_TEXT	ENDS
;	COMDAT ?SetStatus@Image@Gdiplus@@IBE?AW4Status@2@W432@@Z
_TEXT	SEGMENT PARA USE32 PUBLIC 'CODE'
_TEXT	ENDS
;	COMDAT ??0Image@Gdiplus@@IAE@PAVGpImage@1@W4Status@1@@Z
_TEXT	SEGMENT PARA USE32 PUBLIC 'CODE'
_TEXT	ENDS
;	COMDAT ??1Image@Gdiplus@@UAE@XZ
_TEXT	SEGMENT PARA USE32 PUBLIC 'CODE'
_TEXT	ENDS
;	COMDAT ??_7Bitmap@Gdiplus@@6B@
CONST	SEGMENT DWORD USE32 PUBLIC 'CONST'
CONST	ENDS
;	COMDAT ??_R4Bitmap@Gdiplus@@6B@
rdata$r	SEGMENT DWORD USE32 PUBLIC 'CONST'
rdata$r	ENDS
;	COMDAT ??_R0?AVBitmap@Gdiplus@@@8
_DATA	SEGMENT DWORD USE32 PUBLIC 'DATA'
_DATA	ENDS
;	COMDAT ??_R3Bitmap@Gdiplus@@8
rdata$r	SEGMENT DWORD USE32 PUBLIC 'CONST'
rdata$r	ENDS
;	COMDAT ??_R2Bitmap@Gdiplus@@8
rdata$r	SEGMENT DWORD USE32 PUBLIC 'CONST'
rdata$r	ENDS
;	COMDAT ??_R1A@?0A@A@Bitmap@Gdiplus@@8
rdata$r	SEGMENT DWORD USE32 PUBLIC 'CONST'
rdata$r	ENDS
;	COMDAT ??_GBitmap@Gdiplus@@UAEPAXI@Z
_TEXT	SEGMENT PARA USE32 PUBLIC 'CODE'
_TEXT	ENDS
;	COMDAT ??1Bitmap@Gdiplus@@UAE@XZ
_TEXT	SEGMENT PARA USE32 PUBLIC 'CODE'
_TEXT	ENDS
;	COMDAT ?SetNativeImage@Image@Gdiplus@@IAEXPAVGpImage@2@@Z
_TEXT	SEGMENT PARA USE32 PUBLIC 'CODE'
_TEXT	ENDS
;	COMDAT ??_7CGdiPlusBitmap@@6B@
CONST	SEGMENT DWORD USE32 PUBLIC 'CONST'
CONST	ENDS
sxdata	SEGMENT DWORD USE32 'SXDATA'
sxdata	ENDS
FLAT	GROUP _DATA, CONST, _BSS
	ASSUME	CS: FLAT, DS: FLAT, SS: FLAT
endif

INCLUDELIB MSVCRTD
INCLUDELIB OLDNAMES

PUBLIC	?classCMainSkinWnd@CMainSkinWnd@@2UCRuntimeClass@@B ; CMainSkinWnd::classCMainSkinWnd
PUBLIC	?CreateObject@CMainSkinWnd@@SGPAVCObject@@XZ	; CMainSkinWnd::CreateObject
PUBLIC	?_messageEntries@CMainSkinWnd@@0QBUAFX_MSGMAP_ENTRY@@B ; CMainSkinWnd::_messageEntries
PUBLIC	?messageMap@CMainSkinWnd@@1UAFX_MSGMAP@@B	; CMainSkinWnd::messageMap
PUBLIC	?OnEraseBkgnd@CMainSkinWnd@@QAEHPAVCDC@@@Z	; CMainSkinWnd::OnEraseBkgnd
PUBLIC	?OnCreate@CMainSkinWnd@@QAEHPAUtagCREATESTRUCTA@@@Z ; CMainSkinWnd::OnCreate
PUBLIC	?OnPaint@CMainSkinWnd@@QAEXXZ			; CMainSkinWnd::OnPaint
PUBLIC	?OnCloseDlg@CMainSkinWnd@@QAEXXZ		; CMainSkinWnd::OnCloseDlg
PUBLIC	?OnBtnSub@CMainSkinWnd@@QAEXXZ			; CMainSkinWnd::OnBtnSub
PUBLIC	?OnBtnSkin@CMainSkinWnd@@QAEXXZ			; CMainSkinWnd::OnBtnSkin
PUBLIC	?OnColor@CMainSkinWnd@@QAEXI@Z			; CMainSkinWnd::OnColor
PUBLIC	?OnClickMoreCol@CMainSkinWnd@@QAEXXZ		; CMainSkinWnd::OnClickMoreCol
PUBLIC	?OnClickDownMore@CMainSkinWnd@@QAEXXZ		; CMainSkinWnd::OnClickDownMore
PUBLIC	?OnChangeBtnColor@CMainSkinWnd@@QAEJIJ@Z	; CMainSkinWnd::OnChangeBtnColor
PUBLIC	?OnBtnWebSub@CMainSkinWnd@@QAEXXZ		; CMainSkinWnd::OnBtnWebSub
PUBLIC	?OnLButtonDown@CMainSkinWnd@@QAEXIVCPoint@@@Z	; CMainSkinWnd::OnLButtonDown
PUBLIC	?OnMove@CMainSkinWnd@@QAEXHH@Z			; CMainSkinWnd::OnMove
PUBLIC	?g_pfnGetThreadACP@ATL@@3P6GIXZA		; ATL::g_pfnGetThreadACP
PUBLIC	?_AtlGetThreadACPThunk@ATL@@YGIXZ		; ATL::_AtlGetThreadACPThunk
EXTRN	?GetThisClass@CFrameWnd@@SGPAUCRuntimeClass@@XZ:NEAR ; CFrameWnd::GetThisClass
EXTRN	?GetThisMessageMap@CFrameWnd@@KGPBUAFX_MSGMAP@@XZ:NEAR ; CFrameWnd::GetThisMessageMap
CONST	SEGMENT
$SG191697 DB	'int', 00H
CONST	ENDS
_DATA	SEGMENT
_TYPE_CONFIG_INT DD FLAT:$SG191697
_DATA	ENDS
CONST	SEGMENT
$SG191699 DB	'str', 00H
CONST	ENDS
_DATA	SEGMENT
_TYPE_CONFIG_STR DD FLAT:$SG191699
_DATA	ENDS
CONST	SEGMENT
$SG191701 DB	'double', 00H
CONST	ENDS
_DATA	SEGMENT
_TYPE_CONFIG_DOUBLE DD FLAT:$SG191701
_DATA	ENDS
CONST	SEGMENT
	ORG $+1
$SG191703 DB	'bool', 00H
CONST	ENDS
_DATA	SEGMENT
_TYPE_CONFIG_BOOL DD FLAT:$SG191703
_DATA	ENDS
CONST	SEGMENT
	ORG $+3
$SG191705 DB	'sepint', 00H
CONST	ENDS
_DATA	SEGMENT
_TYPE_CONFIG_INT_HASSEP DD FLAT:$SG191705
_DATA	ENDS
CONST	SEGMENT
	ORG $+1
$SG191707 DB	'sepstr', 00H
CONST	ENDS
_DATA	SEGMENT
_TYPE_CONFIG_STR_HASSEP DD FLAT:$SG191707
_DATA	ENDS
CONST	SEGMENT
	ORG $+1
$SG191709 DB	'sepdouble', 00H
CONST	ENDS
_DATA	SEGMENT
_TYPE_CONFIG_DOUBLE_HASSEP DD FLAT:$SG191709
_DATA	ENDS
CONST	SEGMENT
	ORG $+2
$SG191711 DB	'sepbool', 00H
CONST	ENDS
_DATA	SEGMENT
_TYPE_CONFIG_BOOL_HASSEP DD FLAT:$SG191711
_DATA	ENDS
CONST	SEGMENT
$SG191713 DB	'Setting', 00H
CONST	ENDS
_DATA	SEGMENT
_CONF_SETTING_MODULE_NAME DD FLAT:$SG191713
_DATA	ENDS
CONST	SEGMENT
$SG191715 DB	'skin', 00H
CONST	ENDS
_DATA	SEGMENT
_CONF_SETTING_SKIN_IDX DD FLAT:$SG191715
_DATA	ENDS
CONST	SEGMENT
	ORG $+3
$SG191717 DB	'MainPage', 00H
CONST	ENDS
_DATA	SEGMENT
_CONF_SETTING_CONFIG_MAIN_PAGE DD FLAT:$SG191717
_DATA	ENDS
CONST	SEGMENT
	ORG $+3
$SG191719 DB	'ProblemReport', 00H
CONST	ENDS
_DATA	SEGMENT
_CONF_SETTING_CONFIG_PROBLEM_REPORT DD FLAT:$SG191719
_DATA	ENDS
CONST	SEGMENT
	ORG $+2
$SG191721 DB	'HomePage', 00H
CONST	ENDS
_DATA	SEGMENT
_CONF_SETTING_CONFIG_HOME_PAGE DD FLAT:$SG191721
_DATA	ENDS
CONST	SEGMENT
	ORG $+3
$SG191723 DB	'askexit', 00H
CONST	ENDS
_DATA	SEGMENT
_CONF_SETTING_CONFIG_IFASKEXIT DD FLAT:$SG191723
_DATA	ENDS
CONST	SEGMENT
$SG191725 DB	'exitchoice', 00H
CONST	ENDS
_DATA	SEGMENT
_CONF_SETTING_CONFIG_EXITCHOICE DD FLAT:$SG191725
_DATA	ENDS
CONST	SEGMENT
	ORG $+1
$SG191727 DB	'UN', 00H
CONST	ENDS
_DATA	SEGMENT
_CONF_SETTING_LOGIN_USER_NAME DD FLAT:$SG191727
_DATA	ENDS
CONST	SEGMENT
	ORG $+1
$SG191729 DB	'PW', 00H
CONST	ENDS
_DATA	SEGMENT
_CONF_SETTING_LOGIN_PASSWORD DD FLAT:$SG191729
_DATA	ENDS
CONST	SEGMENT
	ORG $+1
$SG191731 DB	'NetID', 00H
CONST	ENDS
_DATA	SEGMENT
_CONF_SETTING_NETID DD FLAT:$SG191731
_DATA	ENDS
CONST	SEGMENT
	ORG $+2
$SG191733 DB	'ChangeColorValue', 00H
CONST	ENDS
_DATA	SEGMENT
_CONF_SETTING_COLOR DD FLAT:$SG191733
_DATA	ENDS
CONST	SEGMENT
	ORG $+3
$SG191735 DB	'changeColorLight', 00H
CONST	ENDS
_DATA	SEGMENT
_CONF_SETTING_LIGHT DD FLAT:$SG191735
_DATA	ENDS
CONST	SEGMENT
	ORG $+3
$SG191737 DB	'ColorIndex', 00H
CONST	ENDS
_DATA	SEGMENT
_CONF_SETTING_COLOR_BTN_INDEX DD FLAT:$SG191737
_DATA	ENDS
CONST	SEGMENT
	ORG $+1
$SG191739 DB	'ColorUser', 00H
CONST	ENDS
_DATA	SEGMENT
_CONF_SETTING_COLOR_USER DD FLAT:$SG191739
_DATA	ENDS
CONST	SEGMENT
	ORG $+2
$SG191741 DB	'FirstTimeChangeSkin', 00H
CONST	ENDS
_DATA	SEGMENT
_CONF_SETTING_FIRST_TIME_CHANGESKIN DD FLAT:$SG191741
_DATA	ENDS
CONST	SEGMENT
$SG191756 DB	'.\src\LayoutMgr\ChangeColor\MainSkinWnd.cpp', 00H
$SG191757 DB	'.\src\LayoutMgr\ChangeColor\MainSkinWnd.cpp', 00H
$SG191758 DB	'CMainSkinWnd', 00H
CONST	ENDS
;	COMDAT ?classCMainSkinWnd@CMainSkinWnd@@2UCRuntimeClass@@B
CONST	SEGMENT
?classCMainSkinWnd@CMainSkinWnd@@2UCRuntimeClass@@B DD FLAT:$SG191758 ; CMainSkinWnd::classCMainSkinWnd
	DD	0960H
	DD	0ffffH
	DD	FLAT:?CreateObject@CMainSkinWnd@@SGPAVCObject@@XZ
	DD	FLAT:?GetThisClass@CFrameWnd@@SGPAUCRuntimeClass@@XZ
	DD	00H
	DD	00H
CONST	ENDS
CONST	SEGMENT
	ORG $+3
$SG191776 DB	'.\src\LayoutMgr\ChangeColor\MainSkinWnd.cpp', 00H
$SG191777 DB	'.\src\LayoutMgr\ChangeColor\MainSkinWnd.cpp', 00H
$SG191779 DB	00H
	ORG $+3
$SG191780 DB	'tooltips_class32', 00H
CONST	ENDS
;	COMDAT ?_messageEntries@CMainSkinWnd@@0QBUAFX_MSGMAP_ENTRY@@B
CONST	SEGMENT
?_messageEntries@CMainSkinWnd@@0QBUAFX_MSGMAP_ENTRY@@B DD 014H ; CMainSkinWnd::_messageEntries
	DD	00H
	DD	00H
	DD	00H
	DD	01H
	DD	FLAT:?OnEraseBkgnd@CMainSkinWnd@@QAEHPAVCDC@@@Z
	DD	01H
	DD	00H
	DD	00H
	DD	00H
	DD	0dH
	DD	FLAT:?OnCreate@CMainSkinWnd@@QAEHPAUtagCREATESTRUCTA@@@Z
	DD	0fH
	DD	00H
	DD	00H
	DD	00H
	DD	010H
	DD	FLAT:?OnPaint@CMainSkinWnd@@QAEXXZ
	DD	03H
	DD	00H
	DD	00H
	DD	00H
	DD	014H
	DD	FLAT:?OnMove@CMainSkinWnd@@QAEXHH@Z
	DD	0111H
	DD	00H
	DD	02711H
	DD	02711H
	DD	035H
	DD	FLAT:?OnCloseDlg@CMainSkinWnd@@QAEXXZ
	DD	0111H
	DD	00H
	DD	02712H
	DD	02712H
	DD	035H
	DD	FLAT:?OnBtnSub@CMainSkinWnd@@QAEXXZ
	DD	0111H
	DD	00H
	DD	02713H
	DD	02713H
	DD	035H
	DD	FLAT:?OnBtnSkin@CMainSkinWnd@@QAEXXZ
	DD	0111H
	DD	00H
	DD	02716H
	DD	02716H
	DD	035H
	DD	FLAT:?OnBtnWebSub@CMainSkinWnd@@QAEXXZ
	DD	0111H
	DD	00H
	DD	02715H
	DD	02715H
	DD	035H
	DD	FLAT:?OnClickDownMore@CMainSkinWnd@@QAEXXZ
	DD	0111H
	DD	00H
	DD	07530H
	DD	0753dH
	DD	037H
	DD	FLAT:?OnColor@CMainSkinWnd@@QAEXI@Z
	DD	0111H
	DD	00H
	DD	02714H
	DD	02714H
	DD	035H
	DD	FLAT:?OnClickMoreCol@CMainSkinWnd@@QAEXXZ
	DD	0464H
	DD	00H
	DD	00H
	DD	00H
	DD	0eH
	DD	FLAT:?OnChangeBtnColor@CMainSkinWnd@@QAEJIJ@Z
	DD	0201H
	DD	00H
	DD	00H
	DD	00H
	DD	032H
	DD	FLAT:?OnLButtonDown@CMainSkinWnd@@QAEXIVCPoint@@@Z
	DD	00H
	DD	00H
	DD	00H
	DD	00H
	DD	00H
	DD	00H
CONST	ENDS
;	COMDAT ?messageMap@CMainSkinWnd@@1UAFX_MSGMAP@@B
CONST	SEGMENT
?messageMap@CMainSkinWnd@@1UAFX_MSGMAP@@B DD FLAT:?GetThisMessageMap@CFrameWnd@@KGPBUAFX_MSGMAP@@XZ ; CMainSkinWnd::messageMap
	DD	FLAT:?_messageEntries@CMainSkinWnd@@0QBUAFX_MSGMAP_ENTRY@@B
CONST	ENDS
CONST	SEGMENT
	ORG $+3
$SG192354 DB	'.\src\LayoutMgr\ChangeColor\MainSkinWnd.cpp', 00H
$SG192355 DB	'.\src\LayoutMgr\ChangeColor\MainSkinWnd.cpp', 00H
$SG192378 DB	'normal', 00H
	ORG $+1
$SG192379 DB	'ChangeSkin', 00H
	ORG $+1
$SG192389 DB	'ChangeSkin_Close', 00H
	ORG $+3
$SG192391 DB	'Sub', 00H
$SG192393 DB	'Skin', 00H
	ORG $+3
$SG192395 DB	'WebSub', 00H
	ORG $+1
$SG192397 DB	'MoreColor', 00H
	ORG $+2
$SG192399 DB	'DownMore', 00H
	ORG $+3
$SG192402 DB	'normal', 00H
	ORG $+1
$SG192403 DB	'ChangeSkin', 00H
	ORG $+1
$SG192412 DB	'\', 00H
	ORG $+2
$SG192413 DB	'default', 00H
$SG192429 DB	'right.png', 00H
	ORG $+2
$SG192430 DB	'\png\', 00H
	ORG $+2
$SG192448 DB	'right.png', 00H
	ORG $+2
$SG192449 DB	'\png\', 00H
	ORG $+2
$SG192490 DB	'BTN:DOWN_MORE', 00H
	ORG $+2
$SG192491 DB	'USRCLK', 00H
	ORG $+1
$SG192492 DB	'http://www.kuwo.cn/skin/', 00H
	ORG $+3
$SG192493 DB	'iexplore', 00H
	ORG $+3
$SG192494 DB	'open', 00H
CONST	ENDS
;	COMDAT ?g_pfnGetThreadACP@ATL@@3P6GIXZA
_DATA	SEGMENT
?g_pfnGetThreadACP@ATL@@3P6GIXZA DD FLAT:?_AtlGetThreadACPThunk@ATL@@YGIXZ ; ATL::g_pfnGetThreadACP
_DATA	ENDS
PUBLIC	?InterlockedExchangePointer@@YGPAXPAPAXPAX@Z	; InterlockedExchangePointer
PUBLIC	?_AtlGetThreadACPFake@ATL@@YGIXZ		; ATL::_AtlGetThreadACPFake
PUBLIC	?_AtlGetThreadACPReal@ATL@@YGIXZ		; ATL::_AtlGetThreadACPReal
EXTRN	__imp__GetVersionExA@4:NEAR
EXTRN	__RTC_InitBase:NEAR
EXTRN	__RTC_Shutdown:NEAR
EXTRN	__RTC_CheckEsp:NEAR
EXTRN	___security_cookie:DWORD
EXTRN	@_RTC_CheckStackVars@8:NEAR
EXTRN	@__security_check_cookie@4:NEAR
;	COMDAT rtc$IMZ
; File d:\program files (x86)\microsoft visual studio .net 2003\vc7\atlmfc\include\atlconv.h
rtc$IMZ	SEGMENT
__RTC_InitBase.rtc$IMZ DD FLAT:__RTC_InitBase
rtc$IMZ	ENDS
;	COMDAT rtc$TMZ
rtc$TMZ	SEGMENT
__RTC_Shutdown.rtc$TMZ DD FLAT:__RTC_Shutdown
; Function compile flags: /Odt /RTCsu
rtc$TMZ	ENDS
;	COMDAT ?_AtlGetThreadACPThunk@ATL@@YGIXZ
_TEXT	SEGMENT
_pfnGetThreadACP$ = -164				; size = 4
_ver$ = -156						; size = 148
__$ArrayPad$ = -4					; size = 4
__$ReturnAddr$ = 4					; size = 4
?_AtlGetThreadACPThunk@ATL@@YGIXZ PROC NEAR		; ATL::_AtlGetThreadACPThunk, COMDAT

; 134  : {

  00000	55		 push	 ebp
  00001	8b ec		 mov	 ebp, esp
  00003	81 ec a4 00 00
	00		 sub	 esp, 164		; 000000a4H
  00009	56		 push	 esi
  0000a	57		 push	 edi
  0000b	8d bd 5c ff ff
	ff		 lea	 edi, DWORD PTR [ebp-164]
  00011	b9 29 00 00 00	 mov	 ecx, 41			; 00000029H
  00016	b8 cc cc cc cc	 mov	 eax, -858993460		; ccccccccH
  0001b	f3 ab		 rep stosd
  0001d	a1 00 00 00 00	 mov	 eax, DWORD PTR ___security_cookie
  00022	89 45 fc	 mov	 DWORD PTR __$ArrayPad$[ebp], eax

; 135  : 	OSVERSIONINFO ver;
; 136  : 	ATLGETTHREADACP pfnGetThreadACP;
; 137  : 
; 138  : 	ver.dwOSVersionInfoSize = sizeof( ver );

  00025	c7 85 64 ff ff
	ff 94 00 00 00	 mov	 DWORD PTR _ver$[ebp], 148 ; 00000094H

; 139  : 	::GetVersionEx( &ver );

  0002f	8b f4		 mov	 esi, esp
  00031	8d 85 64 ff ff
	ff		 lea	 eax, DWORD PTR _ver$[ebp]
  00037	50		 push	 eax
  00038	ff 15 00 00 00
	00		 call	 DWORD PTR __imp__GetVersionExA@4
  0003e	3b f4		 cmp	 esi, esp
  00040	e8 00 00 00 00	 call	 __RTC_CheckEsp

; 140  : 	if( (ver.dwPlatformId == VER_PLATFORM_WIN32_NT) && (ver.dwMajorVersion >= 5) )

  00045	83 bd 74 ff ff
	ff 02		 cmp	 DWORD PTR _ver$[ebp+16], 2
  0004c	75 15		 jne	 SHORT $L24163
  0004e	83 bd 68 ff ff
	ff 05		 cmp	 DWORD PTR _ver$[ebp+4], 5
  00055	72 0c		 jb	 SHORT $L24163

; 141  : 	{
; 142  : 		// On Win2K, CP_THREAD_ACP is supported
; 143  : 		pfnGetThreadACP = _AtlGetThreadACPReal;

  00057	c7 85 5c ff ff
	ff 00 00 00 00	 mov	 DWORD PTR _pfnGetThreadACP$[ebp], OFFSET FLAT:?_AtlGetThreadACPReal@ATL@@YGIXZ ; ATL::_AtlGetThreadACPReal

; 144  : 	}
; 145  : 	else

  00061	eb 0a		 jmp	 SHORT $L24164
$L24163:

; 146  : 	{
; 147  : 		pfnGetThreadACP = _AtlGetThreadACPFake;

  00063	c7 85 5c ff ff
	ff 00 00 00 00	 mov	 DWORD PTR _pfnGetThreadACP$[ebp], OFFSET FLAT:?_AtlGetThreadACPFake@ATL@@YGIXZ ; ATL::_AtlGetThreadACPFake
$L24164:

; 148  : 	}
; 149  : 	InterlockedExchangePointer( reinterpret_cast< void** >(&g_pfnGetThreadACP), pfnGetThreadACP );

  0006d	8b 8d 5c ff ff
	ff		 mov	 ecx, DWORD PTR _pfnGetThreadACP$[ebp]
  00073	51		 push	 ecx
  00074	68 00 00 00 00	 push	 OFFSET FLAT:?g_pfnGetThreadACP@ATL@@3P6GIXZA ; ATL::g_pfnGetThreadACP
  00079	e8 00 00 00 00	 call	 ?InterlockedExchangePointer@@YGPAXPAPAXPAX@Z ; InterlockedExchangePointer

; 150  : 
; 151  : 	return( g_pfnGetThreadACP() );

  0007e	8b f4		 mov	 esi, esp
  00080	ff 15 00 00 00
	00		 call	 DWORD PTR ?g_pfnGetThreadACP@ATL@@3P6GIXZA ; ATL::g_pfnGetThreadACP
  00086	3b f4		 cmp	 esi, esp
  00088	e8 00 00 00 00	 call	 __RTC_CheckEsp

; 152  : }

  0008d	52		 push	 edx
  0008e	8b cd		 mov	 ecx, ebp
  00090	50		 push	 eax
  00091	8d 15 00 00 00
	00		 lea	 edx, DWORD PTR $L194296
  00097	e8 00 00 00 00	 call	 @_RTC_CheckStackVars@8
  0009c	58		 pop	 eax
  0009d	5a		 pop	 edx
  0009e	8b 4d fc	 mov	 ecx, DWORD PTR __$ArrayPad$[ebp]
  000a1	e8 00 00 00 00	 call	 @__security_check_cookie@4
  000a6	5f		 pop	 edi
  000a7	5e		 pop	 esi
  000a8	81 c4 a4 00 00
	00		 add	 esp, 164		; 000000a4H
  000ae	3b ec		 cmp	 ebp, esp
  000b0	e8 00 00 00 00	 call	 __RTC_CheckEsp
  000b5	8b e5		 mov	 esp, ebp
  000b7	5d		 pop	 ebp
  000b8	c3		 ret	 0
$L194296:
  000b9	01 00 00 00	 DD	 1
  000bd	00 00 00 00	 DD	 $L194295
$L194295:
  000c1	64 ff ff ff	 DD	 -156			; ffffff64H
  000c5	94 00 00 00	 DD	 148			; 00000094H
  000c9	00 00 00 00	 DD	 $L194292
$L194292:
  000cd	76		 DB	 118			; 00000076H
  000ce	65		 DB	 101			; 00000065H
  000cf	72		 DB	 114			; 00000072H
  000d0	00		 DB	 0
?_AtlGetThreadACPThunk@ATL@@YGIXZ ENDP			; ATL::_AtlGetThreadACPThunk
_TEXT	ENDS
EXTRN	__imp__InterlockedExchange@8:NEAR
; Function compile flags: /Odt /RTCsu
;	COMDAT ?InterlockedExchangePointer@@YGPAXPAPAXPAX@Z
_TEXT	SEGMENT
_pp$ = 8						; size = 4
_pNew$ = 12						; size = 4
?InterlockedExchangePointer@@YGPAXPAPAXPAX@Z PROC NEAR	; InterlockedExchangePointer, COMDAT

; 91   : {

  00000	55		 push	 ebp
  00001	8b ec		 mov	 ebp, esp
  00003	56		 push	 esi

; 92   : 	return( reinterpret_cast<void*>(static_cast<LONG_PTR>(::InterlockedExchange(reinterpret_cast<LONG*>(pp), static_cast<LONG>(reinterpret_cast<LONG_PTR>(pNew))))) );

  00004	8b f4		 mov	 esi, esp
  00006	8b 45 0c	 mov	 eax, DWORD PTR _pNew$[ebp]
  00009	50		 push	 eax
  0000a	8b 4d 08	 mov	 ecx, DWORD PTR _pp$[ebp]
  0000d	51		 push	 ecx
  0000e	ff 15 00 00 00
	00		 call	 DWORD PTR __imp__InterlockedExchange@8
  00014	3b f4		 cmp	 esi, esp
  00016	e8 00 00 00 00	 call	 __RTC_CheckEsp

; 93   : }

  0001b	5e		 pop	 esi
  0001c	3b ec		 cmp	 ebp, esp
  0001e	e8 00 00 00 00	 call	 __RTC_CheckEsp
  00023	5d		 pop	 ebp
  00024	c2 08 00	 ret	 8
?InterlockedExchangePointer@@YGPAXPAPAXPAX@Z ENDP	; InterlockedExchangePointer
_TEXT	ENDS
EXTRN	__imp__GetACP@0:NEAR
EXTRN	__imp__GetLocaleInfoA@16:NEAR
EXTRN	__imp__GetThreadLocale@0:NEAR
; Function compile flags: /Odt /RTCsu
;	COMDAT ?_AtlGetThreadACPFake@ATL@@YGIXZ
_TEXT	SEGMENT
_pch$24151 = -32					; size = 4
_szACP$ = -24						; size = 7
_lcidThread$ = -12					; size = 4
_nACP$ = -8						; size = 4
__$ArrayPad$ = -4					; size = 4
__$ReturnAddr$ = 4					; size = 4
?_AtlGetThreadACPFake@ATL@@YGIXZ PROC NEAR		; ATL::_AtlGetThreadACPFake, COMDAT

; 101  : {

  00000	55		 push	 ebp
  00001	8b ec		 mov	 ebp, esp
  00003	83 ec 20	 sub	 esp, 32			; 00000020H
  00006	56		 push	 esi
  00007	b8 cc cc cc cc	 mov	 eax, -858993460		; ccccccccH
  0000c	89 45 e0	 mov	 DWORD PTR [ebp-32], eax
  0000f	89 45 e4	 mov	 DWORD PTR [ebp-28], eax
  00012	89 45 e8	 mov	 DWORD PTR [ebp-24], eax
  00015	89 45 ec	 mov	 DWORD PTR [ebp-20], eax
  00018	89 45 f0	 mov	 DWORD PTR [ebp-16], eax
  0001b	89 45 f4	 mov	 DWORD PTR [ebp-12], eax
  0001e	89 45 f8	 mov	 DWORD PTR [ebp-8], eax
  00021	89 45 fc	 mov	 DWORD PTR [ebp-4], eax
  00024	a1 00 00 00 00	 mov	 eax, DWORD PTR ___security_cookie
  00029	89 45 fc	 mov	 DWORD PTR __$ArrayPad$[ebp], eax

; 102  : 	UINT nACP = 0;

  0002c	c7 45 f8 00 00
	00 00		 mov	 DWORD PTR _nACP$[ebp], 0

; 103  : 
; 104  : 	LCID lcidThread = ::GetThreadLocale();

  00033	8b f4		 mov	 esi, esp
  00035	ff 15 00 00 00
	00		 call	 DWORD PTR __imp__GetThreadLocale@0
  0003b	3b f4		 cmp	 esi, esp
  0003d	e8 00 00 00 00	 call	 __RTC_CheckEsp
  00042	89 45 f4	 mov	 DWORD PTR _lcidThread$[ebp], eax

; 105  : 
; 106  : 	char szACP[7];
; 107  : 	// GetLocaleInfoA will fail for a Unicode-only LCID, but those are only supported on 
; 108  : 	// Windows 2000.  Since Windows 2000 supports CP_THREAD_ACP, this code path is never
; 109  : 	// executed on Windows 2000.
; 110  : 	if (::GetLocaleInfoA(lcidThread, LOCALE_IDEFAULTANSICODEPAGE, szACP, 7) != 0)

  00045	8b f4		 mov	 esi, esp
  00047	6a 07		 push	 7
  00049	8d 45 e8	 lea	 eax, DWORD PTR _szACP$[ebp]
  0004c	50		 push	 eax
  0004d	68 04 10 00 00	 push	 4100			; 00001004H
  00052	8b 4d f4	 mov	 ecx, DWORD PTR _lcidThread$[ebp]
  00055	51		 push	 ecx
  00056	ff 15 00 00 00
	00		 call	 DWORD PTR __imp__GetLocaleInfoA@16
  0005c	3b f4		 cmp	 esi, esp
  0005e	e8 00 00 00 00	 call	 __RTC_CheckEsp
  00063	85 c0		 test	 eax, eax
  00065	74 34		 je	 SHORT $L24150

; 111  : 	{
; 112  : 		char* pch = szACP;

  00067	8d 55 e8	 lea	 edx, DWORD PTR _szACP$[ebp]
  0006a	89 55 e0	 mov	 DWORD PTR _pch$24151[ebp], edx
$L24153:

; 113  : 		while (*pch != '\0')

  0006d	8b 45 e0	 mov	 eax, DWORD PTR _pch$24151[ebp]
  00070	0f be 08	 movsx	 ecx, BYTE PTR [eax]
  00073	85 c9		 test	 ecx, ecx
  00075	74 24		 je	 SHORT $L24150

; 114  : 		{
; 115  : 			nACP *= 10;

  00077	8b 55 f8	 mov	 edx, DWORD PTR _nACP$[ebp]
  0007a	6b d2 0a	 imul	 edx, 10			; 0000000aH
  0007d	89 55 f8	 mov	 DWORD PTR _nACP$[ebp], edx

; 116  : 			nACP += *pch++ - '0';

  00080	8b 45 e0	 mov	 eax, DWORD PTR _pch$24151[ebp]
  00083	0f be 08	 movsx	 ecx, BYTE PTR [eax]
  00086	8b 55 f8	 mov	 edx, DWORD PTR _nACP$[ebp]
  00089	8d 44 0a d0	 lea	 eax, DWORD PTR [edx+ecx-48]
  0008d	89 45 f8	 mov	 DWORD PTR _nACP$[ebp], eax
  00090	8b 4d e0	 mov	 ecx, DWORD PTR _pch$24151[ebp]
  00093	83 c1 01	 add	 ecx, 1
  00096	89 4d e0	 mov	 DWORD PTR _pch$24151[ebp], ecx

; 117  : 		}

  00099	eb d2		 jmp	 SHORT $L24153
$L24150:

; 118  : 	}
; 119  : 	// Use the Default ANSI Code Page if we were unable to get the thread ACP or if one does not exist.
; 120  : 	if (nACP == 0)

  0009b	83 7d f8 00	 cmp	 DWORD PTR _nACP$[ebp], 0
  0009f	75 12		 jne	 SHORT $L24155

; 121  : 		nACP = ::GetACP();

  000a1	8b f4		 mov	 esi, esp
  000a3	ff 15 00 00 00
	00		 call	 DWORD PTR __imp__GetACP@0
  000a9	3b f4		 cmp	 esi, esp
  000ab	e8 00 00 00 00	 call	 __RTC_CheckEsp
  000b0	89 45 f8	 mov	 DWORD PTR _nACP$[ebp], eax
$L24155:

; 122  : 
; 123  : 	return nACP;

  000b3	8b 45 f8	 mov	 eax, DWORD PTR _nACP$[ebp]

; 124  : }

  000b6	52		 push	 edx
  000b7	8b cd		 mov	 ecx, ebp
  000b9	50		 push	 eax
  000ba	8d 15 00 00 00
	00		 lea	 edx, DWORD PTR $L194307
  000c0	e8 00 00 00 00	 call	 @_RTC_CheckStackVars@8
  000c5	58		 pop	 eax
  000c6	5a		 pop	 edx
  000c7	8b 4d fc	 mov	 ecx, DWORD PTR __$ArrayPad$[ebp]
  000ca	e8 00 00 00 00	 call	 @__security_check_cookie@4
  000cf	5e		 pop	 esi
  000d0	83 c4 20	 add	 esp, 32			; 00000020H
  000d3	3b ec		 cmp	 ebp, esp
  000d5	e8 00 00 00 00	 call	 __RTC_CheckEsp
  000da	8b e5		 mov	 esp, ebp
  000dc	5d		 pop	 ebp
  000dd	c3		 ret	 0
$L194307:
  000de	01 00 00 00	 DD	 1
  000e2	00 00 00 00	 DD	 $L194306
$L194306:
  000e6	e8 ff ff ff	 DD	 -24			; ffffffe8H
  000ea	07 00 00 00	 DD	 7
  000ee	00 00 00 00	 DD	 $L194304
$L194304:
  000f2	73		 DB	 115			; 00000073H
  000f3	7a		 DB	 122			; 0000007aH
  000f4	41		 DB	 65			; 00000041H
  000f5	43		 DB	 67			; 00000043H
  000f6	50		 DB	 80			; 00000050H
  000f7	00		 DB	 0
?_AtlGetThreadACPFake@ATL@@YGIXZ ENDP			; ATL::_AtlGetThreadACPFake
; Function compile flags: /Odt /RTCsu
_TEXT	ENDS
;	COMDAT ?_AtlGetThreadACPReal@ATL@@YGIXZ
_TEXT	SEGMENT
?_AtlGetThreadACPReal@ATL@@YGIXZ PROC NEAR		; ATL::_AtlGetThreadACPReal, COMDAT

; 127  : {

  00000	55		 push	 ebp
  00001	8b ec		 mov	 ebp, esp

; 128  : 	return( CP_THREAD_ACP );

  00003	b8 03 00 00 00	 mov	 eax, 3

; 129  : }

  00008	5d		 pop	 ebp
  00009	c3		 ret	 0
?_AtlGetThreadACPReal@ATL@@YGIXZ ENDP			; ATL::_AtlGetThreadACPReal
_TEXT	ENDS
PUBLIC	??0CMainSkinWnd@@QAE@XZ				; CMainSkinWnd::CMainSkinWnd
EXTRN	??2CObject@@SGPAXIPBDH@Z:NEAR			; CObject::operator new
EXTRN	??3CObject@@SGXPAXPBDH@Z:NEAR			; CObject::operator delete
EXTRN	__except_list:DWORD
EXTRN	___CxxFrameHandler:NEAR
xdata$x	SEGMENT
$T194321 DD	0ffffffffH
	DD	FLAT:$L194314
$T194318 DD	019930520H
	DD	01H
	DD	FLAT:$T194321
	DD	2 DUP(00H)
	DD	2 DUP(00H)
; Function compile flags: /Odt /RTCsu
; File d:\boxgit\playbox\playbox\dev\prj\playbox\src\layoutmgr\changecolor\mainskinwnd.cpp
xdata$x	ENDS
_TEXT	SEGMENT
tv75 = -24						; size = 4
$T194311 = -20						; size = 4
$T194310 = -16						; size = 4
__$EHRec$ = -12						; size = 12
?CreateObject@CMainSkinWnd@@SGPAVCObject@@XZ PROC NEAR	; CMainSkinWnd::CreateObject

; 25   : IMPLEMENT_DYNCREATE(CMainSkinWnd, CFrameWnd)

  00000	55		 push	 ebp
  00001	8b ec		 mov	 ebp, esp
  00003	6a ff		 push	 -1
  00005	68 00 00 00 00	 push	 __ehhandler$?CreateObject@CMainSkinWnd@@SGPAVCObject@@XZ
  0000a	64 a1 00 00 00
	00		 mov	 eax, DWORD PTR fs:__except_list
  00010	50		 push	 eax
  00011	64 89 25 00 00
	00 00		 mov	 DWORD PTR fs:__except_list, esp
  00018	83 ec 0c	 sub	 esp, 12			; 0000000cH
  0001b	c7 45 e8 cc cc
	cc cc		 mov	 DWORD PTR [ebp-24], -858993460 ; ccccccccH
  00022	c7 45 ec cc cc
	cc cc		 mov	 DWORD PTR [ebp-20], -858993460 ; ccccccccH
  00029	c7 45 f0 cc cc
	cc cc		 mov	 DWORD PTR [ebp-16], -858993460 ; ccccccccH
  00030	6a 19		 push	 25			; 00000019H
  00032	68 00 00 00 00	 push	 OFFSET FLAT:$SG191756
  00037	68 60 09 00 00	 push	 2400			; 00000960H
  0003c	e8 00 00 00 00	 call	 ??2CObject@@SGPAXIPBDH@Z ; CObject::operator new
  00041	89 45 ec	 mov	 DWORD PTR $T194311[ebp], eax
  00044	c7 45 fc 00 00
	00 00		 mov	 DWORD PTR __$EHRec$[ebp+8], 0
  0004b	83 7d ec 00	 cmp	 DWORD PTR $T194311[ebp], 0
  0004f	74 0d		 je	 SHORT $L194312
  00051	8b 4d ec	 mov	 ecx, DWORD PTR $T194311[ebp]
  00054	e8 00 00 00 00	 call	 ??0CMainSkinWnd@@QAE@XZ	; CMainSkinWnd::CMainSkinWnd
  00059	89 45 e8	 mov	 DWORD PTR tv75[ebp], eax
  0005c	eb 07		 jmp	 SHORT $L194313
$L194312:
  0005e	c7 45 e8 00 00
	00 00		 mov	 DWORD PTR tv75[ebp], 0
$L194313:
  00065	8b 45 e8	 mov	 eax, DWORD PTR tv75[ebp]
  00068	89 45 f0	 mov	 DWORD PTR $T194310[ebp], eax
  0006b	c7 45 fc ff ff
	ff ff		 mov	 DWORD PTR __$EHRec$[ebp+8], -1
  00072	8b 45 f0	 mov	 eax, DWORD PTR $T194310[ebp]
  00075	8b 4d f4	 mov	 ecx, DWORD PTR __$EHRec$[ebp]
  00078	64 89 0d 00 00
	00 00		 mov	 DWORD PTR fs:__except_list, ecx
  0007f	83 c4 18	 add	 esp, 24			; 00000018H
  00082	3b ec		 cmp	 ebp, esp
  00084	e8 00 00 00 00	 call	 __RTC_CheckEsp
  00089	8b e5		 mov	 esp, ebp
  0008b	5d		 pop	 ebp
  0008c	c3		 ret	 0
_TEXT	ENDS
text$x	SEGMENT
$L194314:
  00000	6a 19		 push	 25			; 00000019H
  00002	68 00 00 00 00	 push	 OFFSET FLAT:$SG191757
  00007	8b 45 ec	 mov	 eax, DWORD PTR $T194311[ebp]
  0000a	50		 push	 eax
  0000b	e8 00 00 00 00	 call	 ??3CObject@@SGXPAXPBDH@Z ; CObject::operator delete
  00010	c3		 ret	 0
__ehhandler$?CreateObject@CMainSkinWnd@@SGPAVCObject@@XZ:
  00011	b8 00 00 00 00	 mov	 eax, OFFSET FLAT:$T194318
  00016	e9 00 00 00 00	 jmp	 ___CxxFrameHandler
text$x	ENDS
?CreateObject@CMainSkinWnd@@SGPAVCObject@@XZ ENDP	; CMainSkinWnd::CreateObject
PUBLIC	?GetThisClass@CMainSkinWnd@@SGPAUCRuntimeClass@@XZ ; CMainSkinWnd::GetThisClass
; Function compile flags: /Odt /RTCsu
_TEXT	SEGMENT
?GetThisClass@CMainSkinWnd@@SGPAUCRuntimeClass@@XZ PROC NEAR ; CMainSkinWnd::GetThisClass

; 25   : IMPLEMENT_DYNCREATE(CMainSkinWnd, CFrameWnd)

  00090	55		 push	 ebp
  00091	8b ec		 mov	 ebp, esp
  00093	b8 00 00 00 00	 mov	 eax, OFFSET FLAT:?classCMainSkinWnd@CMainSkinWnd@@2UCRuntimeClass@@B ; CMainSkinWnd::classCMainSkinWnd
  00098	5d		 pop	 ebp
  00099	c3		 ret	 0
?GetThisClass@CMainSkinWnd@@SGPAUCRuntimeClass@@XZ ENDP	; CMainSkinWnd::GetThisClass
_TEXT	ENDS
PUBLIC	?GetRuntimeClass@CMainSkinWnd@@UBEPAUCRuntimeClass@@XZ ; CMainSkinWnd::GetRuntimeClass
; Function compile flags: /Odt /RTCsu
_TEXT	SEGMENT
_this$ = -4						; size = 4
?GetRuntimeClass@CMainSkinWnd@@UBEPAUCRuntimeClass@@XZ PROC NEAR ; CMainSkinWnd::GetRuntimeClass
; _this$ = ecx

; 25   : IMPLEMENT_DYNCREATE(CMainSkinWnd, CFrameWnd)

  000a0	55		 push	 ebp
  000a1	8b ec		 mov	 ebp, esp
  000a3	51		 push	 ecx
  000a4	c7 45 fc cc cc
	cc cc		 mov	 DWORD PTR [ebp-4], -858993460 ; ccccccccH
  000ab	89 4d fc	 mov	 DWORD PTR _this$[ebp], ecx
  000ae	b8 00 00 00 00	 mov	 eax, OFFSET FLAT:?classCMainSkinWnd@CMainSkinWnd@@2UCRuntimeClass@@B ; CMainSkinWnd::classCMainSkinWnd
  000b3	8b e5		 mov	 esp, ebp
  000b5	5d		 pop	 ebp
  000b6	c3		 ret	 0
?GetRuntimeClass@CMainSkinWnd@@UBEPAUCRuntimeClass@@XZ ENDP ; CMainSkinWnd::GetRuntimeClass
_TEXT	ENDS
PUBLIC	??_R4CMainSkinWnd@@6B@				; CMainSkinWnd::`RTTI Complete Object Locator'
PUBLIC	??_R0?AVCMainSkinWnd@@@8			; CMainSkinWnd `RTTI Type Descriptor'
PUBLIC	??_R3CMainSkinWnd@@8				; CMainSkinWnd::`RTTI Class Hierarchy Descriptor'
PUBLIC	??_R2CMainSkinWnd@@8				; CMainSkinWnd::`RTTI Base Class Array'
PUBLIC	??_R1A@?0A@A@CMainSkinWnd@@8			; CMainSkinWnd::`RTTI Base Class Descriptor at (0,-1,0,0)'
PUBLIC	??_R1A@?0A@A@CFrameWnd@@8			; CFrameWnd::`RTTI Base Class Descriptor at (0,-1,0,0)'
PUBLIC	??_R0?AVCFrameWnd@@@8				; CFrameWnd `RTTI Type Descriptor'
PUBLIC	?GetMessageMap@CMainSkinWnd@@MBEPBUAFX_MSGMAP@@XZ ; CMainSkinWnd::GetMessageMap
PUBLIC	?PreCreateWindow@CMainSkinWnd@@MAEHAAUtagCREATESTRUCTA@@@Z ; CMainSkinWnd::PreCreateWindow
PUBLIC	??_R1A@?0A@A@CWnd@@8				; CWnd::`RTTI Base Class Descriptor at (0,-1,0,0)'
PUBLIC	??_R0?AVCWnd@@@8				; CWnd `RTTI Type Descriptor'
PUBLIC	??_R1A@?0A@A@CCmdTarget@@8			; CCmdTarget::`RTTI Base Class Descriptor at (0,-1,0,0)'
PUBLIC	??_R0?AVCCmdTarget@@@8				; CCmdTarget `RTTI Type Descriptor'
PUBLIC	??_R1A@?0A@A@CObject@@8				; CObject::`RTTI Base Class Descriptor at (0,-1,0,0)'
PUBLIC	??_R0?AVCObject@@@8				; CObject `RTTI Type Descriptor'
PUBLIC	??0?$vector@PAVCSkinButton2@@V?$allocator@PAVCSkinButton2@@@std@@@std@@QAE@XZ ; std::vector<CSkinButton2 *,std::allocator<CSkinButton2 *> >::vector<CSkinButton2 *,std::allocator<CSkinButton2 *> >
PUBLIC	??1?$vector@PAVCSkinButton2@@V?$allocator@PAVCSkinButton2@@@std@@@std@@QAE@XZ ; std::vector<CSkinButton2 *,std::allocator<CSkinButton2 *> >::~vector<CSkinButton2 *,std::allocator<CSkinButton2 *> >
PUBLIC	??_7CMainSkinWnd@@6B@				; CMainSkinWnd::`vftable'
PUBLIC	??_GCMainSkinWnd@@UAEPAXI@Z			; CMainSkinWnd::`scalar deleting destructor'
EXTRN	?GetInterfaceMap@CWnd@@MBEPBUAFX_INTERFACEMAP@@XZ:NEAR ; CWnd::GetInterfaceMap
EXTRN	?EnsureStdObj@CWnd@@UAEJXZ:NEAR			; CWnd::EnsureStdObj
EXTRN	?get_accParent@CWnd@@UAEJPAPAUIDispatch@@@Z:NEAR ; CWnd::get_accParent
EXTRN	?get_accChildCount@CWnd@@UAEJPAJ@Z:NEAR		; CWnd::get_accChildCount
EXTRN	?IsInvokeAllowed@CCmdTarget@@UAEHJ@Z:NEAR	; CCmdTarget::IsInvokeAllowed
EXTRN	?get_accChild@CWnd@@UAEJUtagVARIANT@@PAPAUIDispatch@@@Z:NEAR ; CWnd::get_accChild
EXTRN	?get_accName@CWnd@@UAEJUtagVARIANT@@PAPA_W@Z:NEAR ; CWnd::get_accName
EXTRN	?get_accValue@CWnd@@UAEJUtagVARIANT@@PAPA_W@Z:NEAR ; CWnd::get_accValue
EXTRN	?GetDispatchIID@CCmdTarget@@UAEHPAU_GUID@@@Z:NEAR ; CCmdTarget::GetDispatchIID
EXTRN	?GetTypeInfoCount@CCmdTarget@@UAEIXZ:NEAR	; CCmdTarget::GetTypeInfoCount
EXTRN	?GetTypeLibCache@CCmdTarget@@UAEPAVCTypeLibCache@@XZ:NEAR ; CCmdTarget::GetTypeLibCache
EXTRN	?get_accDescription@CWnd@@UAEJUtagVARIANT@@PAPA_W@Z:NEAR ; CWnd::get_accDescription
EXTRN	?GetTypeLib@CCmdTarget@@UAEJKPAPAUITypeLib@@@Z:NEAR ; CCmdTarget::GetTypeLib
EXTRN	?get_accRole@CWnd@@UAEJUtagVARIANT@@PAU2@@Z:NEAR ; CWnd::get_accRole
EXTRN	?get_accState@CWnd@@UAEJUtagVARIANT@@PAU2@@Z:NEAR ; CWnd::get_accState
EXTRN	?get_accHelp@CWnd@@UAEJUtagVARIANT@@PAPA_W@Z:NEAR ; CWnd::get_accHelp
EXTRN	?get_accHelpTopic@CWnd@@UAEJPAPA_WUtagVARIANT@@PAJ@Z:NEAR ; CWnd::get_accHelpTopic
EXTRN	?get_accKeyboardShortcut@CWnd@@UAEJUtagVARIANT@@PAPA_W@Z:NEAR ; CWnd::get_accKeyboardShortcut
EXTRN	?get_accFocus@CWnd@@UAEJPAUtagVARIANT@@@Z:NEAR	; CWnd::get_accFocus
EXTRN	?get_accSelection@CWnd@@UAEJPAUtagVARIANT@@@Z:NEAR ; CWnd::get_accSelection
EXTRN	?get_accDefaultAction@CWnd@@UAEJUtagVARIANT@@PAPA_W@Z:NEAR ; CWnd::get_accDefaultAction
EXTRN	?GetCommandMap@CCmdTarget@@MBEPBUAFX_OLECMDMAP@@XZ:NEAR ; CCmdTarget::GetCommandMap
EXTRN	?accSelect@CWnd@@UAEJJUtagVARIANT@@@Z:NEAR	; CWnd::accSelect
EXTRN	?accLocation@CWnd@@UAEJPAJ000UtagVARIANT@@@Z:NEAR ; CWnd::accLocation
EXTRN	?GetDispatchMap@CCmdTarget@@MBEPBUAFX_DISPMAP@@XZ:NEAR ; CCmdTarget::GetDispatchMap
EXTRN	?accNavigate@CWnd@@UAEJJUtagVARIANT@@PAU2@@Z:NEAR ; CWnd::accNavigate
EXTRN	?accHitTest@CWnd@@UAEJJJPAUtagVARIANT@@@Z:NEAR	; CWnd::accHitTest
EXTRN	?GetConnectionMap@CCmdTarget@@MBEPBUAFX_CONNECTIONMAP@@XZ:NEAR ; CCmdTarget::GetConnectionMap
EXTRN	?accDoDefaultAction@CWnd@@UAEJUtagVARIANT@@@Z:NEAR ; CWnd::accDoDefaultAction
EXTRN	?put_accName@CWnd@@UAEJUtagVARIANT@@PA_W@Z:NEAR	; CWnd::put_accName
EXTRN	?put_accValue@CWnd@@UAEJUtagVARIANT@@PA_W@Z:NEAR ; CWnd::put_accValue
EXTRN	?SetProxy@CWnd@@UAEJPAUIAccessibleProxy@@@Z:NEAR ; CWnd::SetProxy
EXTRN	?CreateAccessibleProxy@CWnd@@UAEJIJPAJ@Z:NEAR	; CWnd::CreateAccessibleProxy
EXTRN	?GetEventSinkMap@CCmdTarget@@MBEPBUAFX_EVENTSINKMAP@@XZ:NEAR ; CCmdTarget::GetEventSinkMap
EXTRN	?OnCreateAggregates@CCmdTarget@@UAEHXZ:NEAR	; CCmdTarget::OnCreateAggregates
EXTRN	?GetInterfaceHook@CCmdTarget@@UAEPAUIUnknown@@PBX@Z:NEAR ; CCmdTarget::GetInterfaceHook
EXTRN	?OnNotify@CWnd@@MAEHIJPAJ@Z:NEAR		; CWnd::OnNotify
EXTRN	?GetExtraConnectionPoints@CCmdTarget@@MAEHPAVCPtrArray@@@Z:NEAR ; CCmdTarget::GetExtraConnectionPoints
EXTRN	?GetConnectionHook@CCmdTarget@@MAEPAUIConnectionPoint@@ABU_GUID@@@Z:NEAR ; CCmdTarget::GetConnectionHook
EXTRN	??0CRect@@QAE@HHHH@Z:NEAR			; CRect::CRect
EXTRN	?PreSubclassWindow@CWnd@@UAEXXZ:NEAR		; CWnd::PreSubclassWindow
EXTRN	??0CFrameWnd@@QAE@XZ:NEAR			; CFrameWnd::CFrameWnd
EXTRN	?Create@CWnd@@UAEHPBD0KABUtagRECT@@PAV1@IPAUCCreateContext@@@Z:NEAR ; CWnd::Create
EXTRN	?Create@CFrameWnd@@UAEHPBD0KABUtagRECT@@PAVCWnd@@0KPAUCCreateContext@@@Z:NEAR ; CFrameWnd::Create
EXTRN	?LoadFrame@CFrameWnd@@UAEHIKPAVCWnd@@PAUCCreateContext@@@Z:NEAR ; CFrameWnd::LoadFrame
EXTRN	?GetActiveDocument@CFrameWnd@@UAEPAVCDocument@@XZ:NEAR ; CFrameWnd::GetActiveDocument
EXTRN	?CreateEx@CWnd@@UAEHKPBD0KHHHHPAUHWND__@@PAUHMENU__@@PAX@Z:NEAR ; CWnd::CreateEx
EXTRN	?GetActiveFrame@CFrameWnd@@UAEPAV1@XZ:NEAR	; CFrameWnd::GetActiveFrame
EXTRN	?GetMessageString@CFrameWnd@@UBEXIAAV?$CStringT@DV?$StrTraitMFC_DLL@DV?$ChTraitsCRT@D@ATL@@@@@ATL@@@Z:NEAR ; CFrameWnd::GetMessageString
EXTRN	?CreateEx@CWnd@@UAEHKPBD0KABUtagRECT@@PAV1@IPAX@Z:NEAR ; CWnd::CreateEx
EXTRN	?RecalcLayout@CFrameWnd@@UAEXH@Z:NEAR		; CFrameWnd::RecalcLayout
EXTRN	?ActivateFrame@CFrameWnd@@UAEXH@Z:NEAR		; CFrameWnd::ActivateFrame
EXTRN	?BeginModalState@CFrameWnd@@UAEXXZ:NEAR		; CFrameWnd::BeginModalState
EXTRN	?EndModalState@CFrameWnd@@UAEXXZ:NEAR		; CFrameWnd::EndModalState
EXTRN	?Serialize@CObject@@UAEXAAVCArchive@@@Z:NEAR	; CObject::Serialize
EXTRN	?DestroyWindow@CWnd@@UAEHXZ:NEAR		; CWnd::DestroyWindow
EXTRN	?CalcWindowRect@CWnd@@UAEXPAUtagRECT@@I@Z:NEAR	; CWnd::CalcWindowRect
EXTRN	?OnSetPreviewMode@CFrameWnd@@UAEXHPAUCPrintPreviewState@@@Z:NEAR ; CFrameWnd::OnSetPreviewMode
EXTRN	?GetMessageBar@CFrameWnd@@UAEPAVCWnd@@XZ:NEAR	; CFrameWnd::GetMessageBar
EXTRN	??_ECMainSkinWnd@@UAEPAXI@Z:NEAR		; CMainSkinWnd::`vector deleting destructor'
EXTRN	?NegotiateBorderSpace@CFrameWnd@@UAEHIPAUtagRECT@@@Z:NEAR ; CFrameWnd::NegotiateBorderSpace
EXTRN	?OnCreateClient@CFrameWnd@@MAEHPAUtagCREATESTRUCTA@@PAUCCreateContext@@@Z:NEAR ; CFrameWnd::OnCreateClient
EXTRN	??1CFrameWnd@@UAE@XZ:NEAR			; CFrameWnd::~CFrameWnd
EXTRN	?GetSuperWndProcAddr@CWnd@@MAEPAP6GJPAUHWND__@@IIJ@ZXZ:NEAR ; CWnd::GetSuperWndProcAddr
EXTRN	?DoDataExchange@CWnd@@MAEXPAVCDataExchange@@@Z:NEAR ; CWnd::DoDataExchange
EXTRN	?OnAmbientProperty@CWnd@@UAEHPAVCOleControlSite@@JPAUtagVARIANT@@@Z:NEAR ; CWnd::OnAmbientProperty
EXTRN	?WindowProc@CWnd@@MAEJIIJ@Z:NEAR		; CWnd::WindowProc
EXTRN	?OnWndMsg@CWnd@@MAEHIIJPAJ@Z:NEAR		; CWnd::OnWndMsg
EXTRN	?DefWindowProcA@CWnd@@MAEJIIJ@Z:NEAR		; CWnd::DefWindowProcA
EXTRN	?OnChildNotify@CWnd@@MAEHIIJPAJ@Z:NEAR		; CWnd::OnChildNotify
EXTRN	?AssertValid@CFrameWnd@@UBEXXZ:NEAR		; CFrameWnd::AssertValid
EXTRN	?Dump@CFrameWnd@@UBEXAAVCDumpContext@@@Z:NEAR	; CFrameWnd::Dump
EXTRN	?CheckAutoCenter@CWnd@@UAEHXZ:NEAR		; CWnd::CheckAutoCenter
EXTRN	?IsFrameWnd@CFrameWnd@@UBEHXZ:NEAR		; CFrameWnd::IsFrameWnd
EXTRN	?OnCmdMsg@CFrameWnd@@UAEHIHPAXPAUAFX_CMDHANDLERINFO@@@Z:NEAR ; CFrameWnd::OnCmdMsg
EXTRN	?OnUpdateFrameTitle@CFrameWnd@@UAEXH@Z:NEAR	; CFrameWnd::OnUpdateFrameTitle
EXTRN	?OnUpdateFrameMenu@CFrameWnd@@UAEXPAUHMENU__@@@Z:NEAR ; CFrameWnd::OnUpdateFrameMenu
EXTRN	?GetDefaultAccelerator@CFrameWnd@@UAEPAUHACCEL__@@XZ:NEAR ; CFrameWnd::GetDefaultAccelerator
EXTRN	?PreTranslateMessage@CFrameWnd@@UAEHPAUtagMSG@@@Z:NEAR ; CFrameWnd::PreTranslateMessage
EXTRN	?DelayUpdateFrameMenu@CFrameWnd@@UAEXPAUHMENU__@@@Z:NEAR ; CFrameWnd::DelayUpdateFrameMenu
EXTRN	?ExitHelpMode@CFrameWnd@@UAEXXZ:NEAR		; CFrameWnd::ExitHelpMode
EXTRN	?OnFinalRelease@CWnd@@UAEXXZ:NEAR		; CWnd::OnFinalRelease
EXTRN	?OnCommand@CFrameWnd@@MAEHIJ@Z:NEAR		; CFrameWnd::OnCommand
EXTRN	?PostNcDestroy@CFrameWnd@@MAEXXZ:NEAR		; CFrameWnd::PostNcDestroy
EXTRN	?CreateControlContainer@CWnd@@MAEHPAPAVCOleControlContainer@@@Z:NEAR ; CWnd::CreateControlContainer
EXTRN	?CreateControlSite@CWnd@@MAEHPAVCOleControlContainer@@PAPAVCOleControlSite@@IABU_GUID@@@Z:NEAR ; CWnd::CreateControlSite
EXTRN	?SetOccDialogInfo@CWnd@@MAEHPAU_AFX_OCC_DIALOG_INFO@@@Z:NEAR ; CWnd::SetOccDialogInfo
EXTRN	??0CSkinButton2@@QAE@XZ:NEAR			; CSkinButton2::CSkinButton2
EXTRN	??1CSkinButton2@@UAE@XZ:NEAR			; CSkinButton2::~CSkinButton2
EXTRN	__imp_??0?$CStringT@DV?$StrTraitMFC_DLL@DV?$ChTraitsCRT@D@ATL@@@@@ATL@@QAE@XZ:NEAR
EXTRN	?OnToolHitTest@CWnd@@UBEHVCPoint@@PAUtagTOOLINFOA@@@Z:NEAR ; CWnd::OnToolHitTest
EXTRN	__imp_??1?$CStringT@DV?$StrTraitMFC_DLL@DV?$ChTraitsCRT@D@ATL@@@@@ATL@@QAE@XZ:NEAR
EXTRN	??0CCWToolTips@@QAE@XZ:NEAR			; CCWToolTips::CCWToolTips
EXTRN	?GetScrollBarCtrl@CWnd@@UBEPAVCScrollBar@@H@Z:NEAR ; CWnd::GetScrollBarCtrl
EXTRN	?SetChangeColor@CCWToolTips@@QAEXH@Z:NEAR	; CCWToolTips::SetChangeColor
EXTRN	??0CxSkinButton@@QAE@XZ:NEAR			; CxSkinButton::CxSkinButton
EXTRN	??1CxSkinButton@@UAE@XZ:NEAR			; CxSkinButton::~CxSkinButton
EXTRN	?WinHelpA@CWnd@@UAEXKI@Z:NEAR			; CWnd::WinHelpA
EXTRN	?HtmlHelpA@CWnd@@UAEXKI@Z:NEAR			; CWnd::HtmlHelpA
EXTRN	??_7type_info@@6B@:QWORD			; type_info::`vftable'
EXTRN	?WinHelpInternal@CWnd@@UAEXKI@Z:NEAR		; CWnd::WinHelpInternal
EXTRN	?ContinueModal@CWnd@@UAEHXZ:NEAR		; CWnd::ContinueModal
EXTRN	?EndModalLoop@CWnd@@UAEXH@Z:NEAR		; CWnd::EndModalLoop
xdata$x	SEGMENT
$T194345 DD	0ffffffffH
	DD	FLAT:$L194331
	DD	00H
	DD	FLAT:$L194332
	DD	01H
	DD	FLAT:$L194333
	DD	02H
	DD	FLAT:$L194334
	DD	03H
	DD	FLAT:$L194335
	DD	04H
	DD	FLAT:$L194336
	DD	05H
	DD	FLAT:$L194337
	DD	06H
	DD	FLAT:$L194338
	DD	07H
	DD	FLAT:$L194339
	DD	08H
	DD	FLAT:$L194340
	DD	09H
	DD	FLAT:$L194341
$T194343 DD	019930520H
	DD	0bH
	DD	FLAT:$T194345
	DD	2 DUP(00H)
	DD	2 DUP(00H)
xdata$x	ENDS
;	COMDAT ??_7CMainSkinWnd@@6B@
CONST	SEGMENT
??_7CMainSkinWnd@@6B@ DD FLAT:??_R4CMainSkinWnd@@6B@	; CMainSkinWnd::`vftable'
	DD	FLAT:?GetRuntimeClass@CMainSkinWnd@@UBEPAUCRuntimeClass@@XZ
	DD	FLAT:??_ECMainSkinWnd@@UAEPAXI@Z
	DD	FLAT:?Serialize@CObject@@UAEXAAVCArchive@@@Z
	DD	FLAT:?AssertValid@CFrameWnd@@UBEXXZ
	DD	FLAT:?Dump@CFrameWnd@@UBEXAAVCDumpContext@@@Z
	DD	FLAT:?OnCmdMsg@CFrameWnd@@UAEHIHPAXPAUAFX_CMDHANDLERINFO@@@Z
	DD	FLAT:?OnFinalRelease@CWnd@@UAEXXZ
	DD	FLAT:?IsInvokeAllowed@CCmdTarget@@UAEHJ@Z
	DD	FLAT:?GetDispatchIID@CCmdTarget@@UAEHPAU_GUID@@@Z
	DD	FLAT:?GetTypeInfoCount@CCmdTarget@@UAEIXZ
	DD	FLAT:?GetTypeLibCache@CCmdTarget@@UAEPAVCTypeLibCache@@XZ
	DD	FLAT:?GetTypeLib@CCmdTarget@@UAEJKPAPAUITypeLib@@@Z
	DD	FLAT:?GetMessageMap@CMainSkinWnd@@MBEPBUAFX_MSGMAP@@XZ
	DD	FLAT:?GetCommandMap@CCmdTarget@@MBEPBUAFX_OLECMDMAP@@XZ
	DD	FLAT:?GetDispatchMap@CCmdTarget@@MBEPBUAFX_DISPMAP@@XZ
	DD	FLAT:?GetConnectionMap@CCmdTarget@@MBEPBUAFX_CONNECTIONMAP@@XZ
	DD	FLAT:?GetInterfaceMap@CWnd@@MBEPBUAFX_INTERFACEMAP@@XZ
	DD	FLAT:?GetEventSinkMap@CCmdTarget@@MBEPBUAFX_EVENTSINKMAP@@XZ
	DD	FLAT:?OnCreateAggregates@CCmdTarget@@UAEHXZ
	DD	FLAT:?GetInterfaceHook@CCmdTarget@@UAEPAUIUnknown@@PBX@Z
	DD	FLAT:?GetExtraConnectionPoints@CCmdTarget@@MAEHPAVCPtrArray@@@Z
	DD	FLAT:?GetConnectionHook@CCmdTarget@@MAEPAUIConnectionPoint@@ABU_GUID@@@Z
	DD	FLAT:?PreSubclassWindow@CWnd@@UAEXXZ
	DD	FLAT:?Create@CWnd@@UAEHPBD0KABUtagRECT@@PAV1@IPAUCCreateContext@@@Z
	DD	FLAT:?CreateEx@CWnd@@UAEHKPBD0KABUtagRECT@@PAV1@IPAX@Z
	DD	FLAT:?CreateEx@CWnd@@UAEHKPBD0KHHHHPAUHWND__@@PAUHMENU__@@PAX@Z
	DD	FLAT:?DestroyWindow@CWnd@@UAEHXZ
	DD	FLAT:?PreCreateWindow@CMainSkinWnd@@MAEHAAUtagCREATESTRUCTA@@@Z
	DD	FLAT:?CalcWindowRect@CWnd@@UAEXPAUtagRECT@@I@Z
	DD	FLAT:?OnToolHitTest@CWnd@@UBEHVCPoint@@PAUtagTOOLINFOA@@@Z
	DD	FLAT:?GetScrollBarCtrl@CWnd@@UBEPAVCScrollBar@@H@Z
	DD	FLAT:?WinHelpA@CWnd@@UAEXKI@Z
	DD	FLAT:?HtmlHelpA@CWnd@@UAEXKI@Z
	DD	FLAT:?WinHelpInternal@CWnd@@UAEXKI@Z
	DD	FLAT:?ContinueModal@CWnd@@UAEHXZ
	DD	FLAT:?EndModalLoop@CWnd@@UAEXH@Z
	DD	FLAT:?EnsureStdObj@CWnd@@UAEJXZ
	DD	FLAT:?get_accParent@CWnd@@UAEJPAPAUIDispatch@@@Z
	DD	FLAT:?get_accChildCount@CWnd@@UAEJPAJ@Z
	DD	FLAT:?get_accChild@CWnd@@UAEJUtagVARIANT@@PAPAUIDispatch@@@Z
	DD	FLAT:?get_accName@CWnd@@UAEJUtagVARIANT@@PAPA_W@Z
	DD	FLAT:?get_accValue@CWnd@@UAEJUtagVARIANT@@PAPA_W@Z
	DD	FLAT:?get_accDescription@CWnd@@UAEJUtagVARIANT@@PAPA_W@Z
	DD	FLAT:?get_accRole@CWnd@@UAEJUtagVARIANT@@PAU2@@Z
	DD	FLAT:?get_accState@CWnd@@UAEJUtagVARIANT@@PAU2@@Z
	DD	FLAT:?get_accHelp@CWnd@@UAEJUtagVARIANT@@PAPA_W@Z
	DD	FLAT:?get_accHelpTopic@CWnd@@UAEJPAPA_WUtagVARIANT@@PAJ@Z
	DD	FLAT:?get_accKeyboardShortcut@CWnd@@UAEJUtagVARIANT@@PAPA_W@Z
	DD	FLAT:?get_accFocus@CWnd@@UAEJPAUtagVARIANT@@@Z
	DD	FLAT:?get_accSelection@CWnd@@UAEJPAUtagVARIANT@@@Z
	DD	FLAT:?get_accDefaultAction@CWnd@@UAEJUtagVARIANT@@PAPA_W@Z
	DD	FLAT:?accSelect@CWnd@@UAEJJUtagVARIANT@@@Z
	DD	FLAT:?accLocation@CWnd@@UAEJPAJ000UtagVARIANT@@@Z
	DD	FLAT:?accNavigate@CWnd@@UAEJJUtagVARIANT@@PAU2@@Z
	DD	FLAT:?accHitTest@CWnd@@UAEJJJPAUtagVARIANT@@@Z
	DD	FLAT:?accDoDefaultAction@CWnd@@UAEJUtagVARIANT@@@Z
	DD	FLAT:?put_accName@CWnd@@UAEJUtagVARIANT@@PA_W@Z
	DD	FLAT:?put_accValue@CWnd@@UAEJUtagVARIANT@@PA_W@Z
	DD	FLAT:?SetProxy@CWnd@@UAEJPAUIAccessibleProxy@@@Z
	DD	FLAT:?CreateAccessibleProxy@CWnd@@UAEJIJPAJ@Z
	DD	FLAT:?OnCommand@CFrameWnd@@MAEHIJ@Z
	DD	FLAT:?OnNotify@CWnd@@MAEHIJPAJ@Z
	DD	FLAT:?GetSuperWndProcAddr@CWnd@@MAEPAP6GJPAUHWND__@@IIJ@ZXZ
	DD	FLAT:?DoDataExchange@CWnd@@MAEXPAVCDataExchange@@@Z
	DD	FLAT:?BeginModalState@CFrameWnd@@UAEXXZ
	DD	FLAT:?EndModalState@CFrameWnd@@UAEXXZ
	DD	FLAT:?PreTranslateMessage@CFrameWnd@@UAEHPAUtagMSG@@@Z
	DD	FLAT:?OnAmbientProperty@CWnd@@UAEHPAVCOleControlSite@@JPAUtagVARIANT@@@Z
	DD	FLAT:?WindowProc@CWnd@@MAEJIIJ@Z
	DD	FLAT:?OnWndMsg@CWnd@@MAEHIIJPAJ@Z
	DD	FLAT:?DefWindowProcA@CWnd@@MAEJIIJ@Z
	DD	FLAT:?PostNcDestroy@CFrameWnd@@MAEXXZ
	DD	FLAT:?OnChildNotify@CWnd@@MAEHIIJPAJ@Z
	DD	FLAT:?CheckAutoCenter@CWnd@@UAEHXZ
	DD	FLAT:?IsFrameWnd@CFrameWnd@@UBEHXZ
	DD	FLAT:?CreateControlContainer@CWnd@@MAEHPAPAVCOleControlContainer@@@Z
	DD	FLAT:?CreateControlSite@CWnd@@MAEHPAVCOleControlContainer@@PAPAVCOleControlSite@@IABU_GUID@@@Z
	DD	FLAT:?SetOccDialogInfo@CWnd@@MAEHPAU_AFX_OCC_DIALOG_INFO@@@Z
	DD	FLAT:?Create@CFrameWnd@@UAEHPBD0KABUtagRECT@@PAVCWnd@@0KPAUCCreateContext@@@Z
	DD	FLAT:?LoadFrame@CFrameWnd@@UAEHIKPAVCWnd@@PAUCCreateContext@@@Z
	DD	FLAT:?GetActiveDocument@CFrameWnd@@UAEPAVCDocument@@XZ
	DD	FLAT:?GetActiveFrame@CFrameWnd@@UAEPAV1@XZ
	DD	FLAT:?GetMessageString@CFrameWnd@@UBEXIAAV?$CStringT@DV?$StrTraitMFC_DLL@DV?$ChTraitsCRT@D@ATL@@@@@ATL@@@Z
	DD	FLAT:?RecalcLayout@CFrameWnd@@UAEXH@Z
	DD	FLAT:?ActivateFrame@CFrameWnd@@UAEXH@Z
	DD	FLAT:?OnSetPreviewMode@CFrameWnd@@UAEXHPAUCPrintPreviewState@@@Z
	DD	FLAT:?GetMessageBar@CFrameWnd@@UAEPAVCWnd@@XZ
	DD	FLAT:?NegotiateBorderSpace@CFrameWnd@@UAEHIPAUtagRECT@@@Z
	DD	FLAT:?OnCreateClient@CFrameWnd@@MAEHPAUtagCREATESTRUCTA@@PAUCCreateContext@@@Z
	DD	FLAT:?OnUpdateFrameTitle@CFrameWnd@@UAEXH@Z
	DD	FLAT:?OnUpdateFrameMenu@CFrameWnd@@UAEXPAUHMENU__@@@Z
	DD	FLAT:?GetDefaultAccelerator@CFrameWnd@@UAEPAUHACCEL__@@XZ
	DD	FLAT:?DelayUpdateFrameMenu@CFrameWnd@@UAEXPAUHMENU__@@@Z
	DD	FLAT:?ExitHelpMode@CFrameWnd@@UAEXXZ
CONST	ENDS
;	COMDAT ??_R4CMainSkinWnd@@6B@
rdata$r	SEGMENT
??_R4CMainSkinWnd@@6B@ DD 00H				; CMainSkinWnd::`RTTI Complete Object Locator'
	DD	00H
	DD	00H
	DD	FLAT:??_R0?AVCMainSkinWnd@@@8
	DD	FLAT:??_R3CMainSkinWnd@@8
rdata$r	ENDS
;	COMDAT ??_R0?AVCMainSkinWnd@@@8
_DATA	SEGMENT
??_R0?AVCMainSkinWnd@@@8 DD FLAT:??_7type_info@@6B@	; CMainSkinWnd `RTTI Type Descriptor'
	DD	00H
	DB	'.?AVCMainSkinWnd@@', 00H
_DATA	ENDS
;	COMDAT ??_R3CMainSkinWnd@@8
rdata$r	SEGMENT
??_R3CMainSkinWnd@@8 DD 00H				; CMainSkinWnd::`RTTI Class Hierarchy Descriptor'
	DD	00H
	DD	05H
	DD	FLAT:??_R2CMainSkinWnd@@8
rdata$r	ENDS
;	COMDAT ??_R2CMainSkinWnd@@8
rdata$r	SEGMENT
??_R2CMainSkinWnd@@8 DD FLAT:??_R1A@?0A@A@CMainSkinWnd@@8 ; CMainSkinWnd::`RTTI Base Class Array'
	DD	FLAT:??_R1A@?0A@A@CFrameWnd@@8
	DD	FLAT:??_R1A@?0A@A@CWnd@@8
	DD	FLAT:??_R1A@?0A@A@CCmdTarget@@8
	DD	FLAT:??_R1A@?0A@A@CObject@@8
rdata$r	ENDS
;	COMDAT ??_R1A@?0A@A@CMainSkinWnd@@8
rdata$r	SEGMENT
??_R1A@?0A@A@CMainSkinWnd@@8 DD FLAT:??_R0?AVCMainSkinWnd@@@8 ; CMainSkinWnd::`RTTI Base Class Descriptor at (0,-1,0,0)'
	DD	04H
	DD	00H
	DD	0ffffffffH
	DD	00H
	DD	00H
rdata$r	ENDS
;	COMDAT ??_R1A@?0A@A@CFrameWnd@@8
rdata$r	SEGMENT
??_R1A@?0A@A@CFrameWnd@@8 DD FLAT:??_R0?AVCFrameWnd@@@8	; CFrameWnd::`RTTI Base Class Descriptor at (0,-1,0,0)'
	DD	03H
	DD	00H
	DD	0ffffffffH
	DD	00H
	DD	00H
rdata$r	ENDS
;	COMDAT ??_R0?AVCFrameWnd@@@8
_DATA	SEGMENT
??_R0?AVCFrameWnd@@@8 DD FLAT:??_7type_info@@6B@	; CFrameWnd `RTTI Type Descriptor'
	DD	00H
	DB	'.?AVCFrameWnd@@', 00H
_DATA	ENDS
;	COMDAT ??_R1A@?0A@A@CWnd@@8
rdata$r	SEGMENT
??_R1A@?0A@A@CWnd@@8 DD FLAT:??_R0?AVCWnd@@@8		; CWnd::`RTTI Base Class Descriptor at (0,-1,0,0)'
	DD	02H
	DD	00H
	DD	0ffffffffH
	DD	00H
	DD	00H
rdata$r	ENDS
;	COMDAT ??_R0?AVCWnd@@@8
_DATA	SEGMENT
??_R0?AVCWnd@@@8 DD FLAT:??_7type_info@@6B@		; CWnd `RTTI Type Descriptor'
	DD	00H
	DB	'.?AVCWnd@@', 00H
_DATA	ENDS
;	COMDAT ??_R1A@?0A@A@CCmdTarget@@8
rdata$r	SEGMENT
??_R1A@?0A@A@CCmdTarget@@8 DD FLAT:??_R0?AVCCmdTarget@@@8 ; CCmdTarget::`RTTI Base Class Descriptor at (0,-1,0,0)'
	DD	01H
	DD	00H
	DD	0ffffffffH
	DD	00H
	DD	00H
rdata$r	ENDS
;	COMDAT ??_R0?AVCCmdTarget@@@8
_DATA	SEGMENT
??_R0?AVCCmdTarget@@@8 DD FLAT:??_7type_info@@6B@	; CCmdTarget `RTTI Type Descriptor'
	DD	00H
	DB	'.?AVCCmdTarget@@', 00H
_DATA	ENDS
;	COMDAT ??_R1A@?0A@A@CObject@@8
rdata$r	SEGMENT
??_R1A@?0A@A@CObject@@8 DD FLAT:??_R0?AVCObject@@@8	; CObject::`RTTI Base Class Descriptor at (0,-1,0,0)'
	DD	00H
	DD	00H
	DD	0ffffffffH
	DD	00H
	DD	00H
rdata$r	ENDS
;	COMDAT ??_R0?AVCObject@@@8
_DATA	SEGMENT
??_R0?AVCObject@@@8 DD FLAT:??_7type_info@@6B@		; CObject `RTTI Type Descriptor'
	DD	00H
	DB	'.?AVCObject@@', 00H
; Function compile flags: /Odt /RTCsu
_DATA	ENDS
_TEXT	SEGMENT
tv176 = -44						; size = 4
$T194330 = -40						; size = 16
$T194327 = -24						; size = 4
$T194326 = -20						; size = 4
_this$ = -16						; size = 4
__$EHRec$ = -12						; size = 12
??0CMainSkinWnd@@QAE@XZ PROC NEAR			; CMainSkinWnd::CMainSkinWnd
; _this$ = ecx

; 28   : {

  000c0	55		 push	 ebp
  000c1	8b ec		 mov	 ebp, esp
  000c3	6a ff		 push	 -1
  000c5	68 00 00 00 00	 push	 __ehhandler$??0CMainSkinWnd@@QAE@XZ
  000ca	64 a1 00 00 00
	00		 mov	 eax, DWORD PTR fs:__except_list
  000d0	50		 push	 eax
  000d1	64 89 25 00 00
	00 00		 mov	 DWORD PTR fs:__except_list, esp
  000d8	83 ec 20	 sub	 esp, 32			; 00000020H
  000db	56		 push	 esi
  000dc	b8 cc cc cc cc	 mov	 eax, -858993460		; ccccccccH
  000e1	89 45 d4	 mov	 DWORD PTR [ebp-44], eax
  000e4	89 45 d8	 mov	 DWORD PTR [ebp-40], eax
  000e7	89 45 dc	 mov	 DWORD PTR [ebp-36], eax
  000ea	89 45 e0	 mov	 DWORD PTR [ebp-32], eax
  000ed	89 45 e4	 mov	 DWORD PTR [ebp-28], eax
  000f0	89 45 e8	 mov	 DWORD PTR [ebp-24], eax
  000f3	89 45 ec	 mov	 DWORD PTR [ebp-20], eax
  000f6	89 45 f0	 mov	 DWORD PTR [ebp-16], eax
  000f9	89 4d f0	 mov	 DWORD PTR _this$[ebp], ecx
  000fc	8b 4d f0	 mov	 ecx, DWORD PTR _this$[ebp]
  000ff	e8 00 00 00 00	 call	 ??0CFrameWnd@@QAE@XZ	; CFrameWnd::CFrameWnd
  00104	c7 45 fc 00 00
	00 00		 mov	 DWORD PTR __$EHRec$[ebp+8], 0
  0010b	8b 45 f0	 mov	 eax, DWORD PTR _this$[ebp]
  0010e	c7 00 00 00 00
	00		 mov	 DWORD PTR [eax], OFFSET FLAT:??_7CMainSkinWnd@@6B@
  00114	8b 4d f0	 mov	 ecx, DWORD PTR _this$[ebp]
  00117	81 c1 e4 00 00
	00		 add	 ecx, 228		; 000000e4H
  0011d	e8 00 00 00 00	 call	 ??0?$vector@PAVCSkinButton2@@V?$allocator@PAVCSkinButton2@@@std@@@std@@QAE@XZ ; std::vector<CSkinButton2 *,std::allocator<CSkinButton2 *> >::vector<CSkinButton2 *,std::allocator<CSkinButton2 *> >
  00122	c6 45 fc 01	 mov	 BYTE PTR __$EHRec$[ebp+8], 1
  00126	8b 4d f0	 mov	 ecx, DWORD PTR _this$[ebp]
  00129	81 c1 f4 00 00
	00		 add	 ecx, 244		; 000000f4H
  0012f	e8 00 00 00 00	 call	 ??0CxSkinButton@@QAE@XZ	; CxSkinButton::CxSkinButton
  00134	c6 45 fc 02	 mov	 BYTE PTR __$EHRec$[ebp+8], 2
  00138	8b 4d f0	 mov	 ecx, DWORD PTR _this$[ebp]
  0013b	81 c1 18 02 00
	00		 add	 ecx, 536		; 00000218H
  00141	e8 00 00 00 00	 call	 ??0CxSkinButton@@QAE@XZ	; CxSkinButton::CxSkinButton
  00146	c6 45 fc 03	 mov	 BYTE PTR __$EHRec$[ebp+8], 3
  0014a	8b 4d f0	 mov	 ecx, DWORD PTR _this$[ebp]
  0014d	81 c1 3c 03 00
	00		 add	 ecx, 828		; 0000033cH
  00153	e8 00 00 00 00	 call	 ??0CxSkinButton@@QAE@XZ	; CxSkinButton::CxSkinButton
  00158	c6 45 fc 04	 mov	 BYTE PTR __$EHRec$[ebp+8], 4
  0015c	8b 4d f0	 mov	 ecx, DWORD PTR _this$[ebp]
  0015f	81 c1 60 04 00
	00		 add	 ecx, 1120		; 00000460H
  00165	e8 00 00 00 00	 call	 ??0CxSkinButton@@QAE@XZ	; CxSkinButton::CxSkinButton
  0016a	c6 45 fc 05	 mov	 BYTE PTR __$EHRec$[ebp+8], 5
  0016e	8b 4d f0	 mov	 ecx, DWORD PTR _this$[ebp]
  00171	81 c1 84 05 00
	00		 add	 ecx, 1412		; 00000584H
  00177	e8 00 00 00 00	 call	 ??0CxSkinButton@@QAE@XZ	; CxSkinButton::CxSkinButton
  0017c	c6 45 fc 06	 mov	 BYTE PTR __$EHRec$[ebp+8], 6
  00180	8b 4d f0	 mov	 ecx, DWORD PTR _this$[ebp]
  00183	81 c1 a8 06 00
	00		 add	 ecx, 1704		; 000006a8H
  00189	e8 00 00 00 00	 call	 ??0CxSkinButton@@QAE@XZ	; CxSkinButton::CxSkinButton
  0018e	c6 45 fc 07	 mov	 BYTE PTR __$EHRec$[ebp+8], 7
  00192	8b 4d f0	 mov	 ecx, DWORD PTR _this$[ebp]
  00195	81 c1 cc 07 00
	00		 add	 ecx, 1996		; 000007ccH
  0019b	e8 00 00 00 00	 call	 ??0CSkinButton2@@QAE@XZ	; CSkinButton2::CSkinButton2
  001a0	c6 45 fc 08	 mov	 BYTE PTR __$EHRec$[ebp+8], 8
  001a4	8b 4d f0	 mov	 ecx, DWORD PTR _this$[ebp]
  001a7	81 c1 5c 09 00
	00		 add	 ecx, 2396		; 0000095cH
  001ad	8b f4		 mov	 esi, esp
  001af	ff 15 00 00 00
	00		 call	 DWORD PTR __imp_??0?$CStringT@DV?$StrTraitMFC_DLL@DV?$ChTraitsCRT@D@ATL@@@@@ATL@@QAE@XZ
  001b5	3b f4		 cmp	 esi, esp
  001b7	e8 00 00 00 00	 call	 __RTC_CheckEsp
  001bc	c6 45 fc 09	 mov	 BYTE PTR __$EHRec$[ebp+8], 9

; 29   : 	m_hight = MAINSKINWND_HEIGHT;

  001c0	8b 4d f0	 mov	 ecx, DWORD PTR _this$[ebp]
  001c3	c7 81 d4 00 00
	00 22 01 00 00	 mov	 DWORD PTR [ecx+212], 290 ; 00000122H

; 30   : 	m_width = MAINSKINWND_WIDTH;

  001cd	8b 55 f0	 mov	 edx, DWORD PTR _this$[ebp]
  001d0	c7 82 d8 00 00
	00 2c 01 00 00	 mov	 DWORD PTR [edx+216], 300 ; 0000012cH

; 31   : 	m_pToolTip = new CCWToolTips();

  001da	6a 1f		 push	 31			; 0000001fH
  001dc	68 00 00 00 00	 push	 OFFSET FLAT:$SG191776
  001e1	68 90 00 00 00	 push	 144			; 00000090H
  001e6	e8 00 00 00 00	 call	 ??2CObject@@SGPAXIPBDH@Z ; CObject::operator new
  001eb	89 45 e8	 mov	 DWORD PTR $T194327[ebp], eax
  001ee	c6 45 fc 0a	 mov	 BYTE PTR __$EHRec$[ebp+8], 10 ; 0000000aH
  001f2	83 7d e8 00	 cmp	 DWORD PTR $T194327[ebp], 0
  001f6	74 0d		 je	 SHORT $L194328
  001f8	8b 4d e8	 mov	 ecx, DWORD PTR $T194327[ebp]
  001fb	e8 00 00 00 00	 call	 ??0CCWToolTips@@QAE@XZ	; CCWToolTips::CCWToolTips
  00200	89 45 d4	 mov	 DWORD PTR tv176[ebp], eax
  00203	eb 07		 jmp	 SHORT $L194329
$L194328:
  00205	c7 45 d4 00 00
	00 00		 mov	 DWORD PTR tv176[ebp], 0
$L194329:
  0020c	8b 45 d4	 mov	 eax, DWORD PTR tv176[ebp]
  0020f	89 45 ec	 mov	 DWORD PTR $T194326[ebp], eax
  00212	c6 45 fc 09	 mov	 BYTE PTR __$EHRec$[ebp+8], 9
  00216	8b 4d f0	 mov	 ecx, DWORD PTR _this$[ebp]
  00219	8b 55 ec	 mov	 edx, DWORD PTR $T194326[ebp]
  0021c	89 91 54 09 00
	00		 mov	 DWORD PTR [ecx+2388], edx

; 32   : 	m_pToolTip->m_hParent	 = m_hWnd;

  00222	8b 45 f0	 mov	 eax, DWORD PTR _this$[ebp]
  00225	8b 88 54 09 00
	00		 mov	 ecx, DWORD PTR [eax+2388]
  0022b	8b 55 f0	 mov	 edx, DWORD PTR _this$[ebp]
  0022e	8b 42 20	 mov	 eax, DWORD PTR [edx+32]
  00231	89 81 88 00 00
	00		 mov	 DWORD PTR [ecx+136], eax

; 33   : 	m_pToolTip->CreateEx(WS_EX_TOOLWINDOW|WS_EX_TOPMOST,TOOLTIPS_CLASS,"",0,CRect(0,0,0,0),NULL,0);	

  00237	8b f4		 mov	 esi, esp
  00239	6a 00		 push	 0
  0023b	6a 00		 push	 0
  0023d	6a 00		 push	 0
  0023f	6a 00		 push	 0
  00241	6a 00		 push	 0
  00243	6a 00		 push	 0
  00245	6a 00		 push	 0
  00247	8d 4d d8	 lea	 ecx, DWORD PTR $T194330[ebp]
  0024a	e8 00 00 00 00	 call	 ??0CRect@@QAE@HHHH@Z	; CRect::CRect
  0024f	50		 push	 eax
  00250	6a 00		 push	 0
  00252	68 00 00 00 00	 push	 OFFSET FLAT:$SG191779
  00257	68 00 00 00 00	 push	 OFFSET FLAT:$SG191780
  0025c	68 88 00 00 00	 push	 136			; 00000088H
  00261	8b 4d f0	 mov	 ecx, DWORD PTR _this$[ebp]
  00264	8b 91 54 09 00
	00		 mov	 edx, DWORD PTR [ecx+2388]
  0026a	8b 45 f0	 mov	 eax, DWORD PTR _this$[ebp]
  0026d	8b 88 54 09 00
	00		 mov	 ecx, DWORD PTR [eax+2388]
  00273	8b 12		 mov	 edx, DWORD PTR [edx]
  00275	ff 52 60	 call	 DWORD PTR [edx+96]
  00278	3b f4		 cmp	 esi, esp
  0027a	e8 00 00 00 00	 call	 __RTC_CheckEsp

; 34   : 	m_pToolTip->m_clrBK = RGB(0xFF, 0xFF, 0xE1);

  0027f	8b 45 f0	 mov	 eax, DWORD PTR _this$[ebp]
  00282	8b 88 54 09 00
	00		 mov	 ecx, DWORD PTR [eax+2388]
  00288	c7 41 5c ff ff
	e1 00		 mov	 DWORD PTR [ecx+92], 14811135 ; 00e1ffffH

; 35   : 	m_pToolTip->SetChangeColor(0);

  0028f	6a 00		 push	 0
  00291	8b 55 f0	 mov	 edx, DWORD PTR _this$[ebp]
  00294	8b 8a 54 09 00
	00		 mov	 ecx, DWORD PTR [edx+2388]
  0029a	e8 00 00 00 00	 call	 ?SetChangeColor@CCWToolTips@@QAEXH@Z ; CCWToolTips::SetChangeColor

; 36   : }

  0029f	c7 45 fc ff ff
	ff ff		 mov	 DWORD PTR __$EHRec$[ebp+8], -1
  002a6	8b 45 f0	 mov	 eax, DWORD PTR _this$[ebp]
  002a9	8b 4d f4	 mov	 ecx, DWORD PTR __$EHRec$[ebp]
  002ac	64 89 0d 00 00
	00 00		 mov	 DWORD PTR fs:__except_list, ecx
  002b3	5e		 pop	 esi
  002b4	83 c4 2c	 add	 esp, 44			; 0000002cH
  002b7	3b ec		 cmp	 ebp, esp
  002b9	e8 00 00 00 00	 call	 __RTC_CheckEsp
  002be	8b e5		 mov	 esp, ebp
  002c0	5d		 pop	 ebp
  002c1	c3		 ret	 0
_TEXT	ENDS
text$x	SEGMENT
$L194331:
  0001b	8b 4d f0	 mov	 ecx, DWORD PTR _this$[ebp]
  0001e	e9 00 00 00 00	 jmp	 ??1CFrameWnd@@UAE@XZ	; CFrameWnd::~CFrameWnd
$L194332:
  00023	8b 4d f0	 mov	 ecx, DWORD PTR _this$[ebp]
  00026	81 c1 e4 00 00
	00		 add	 ecx, 228		; 000000e4H
  0002c	e9 00 00 00 00	 jmp	 ??1?$vector@PAVCSkinButton2@@V?$allocator@PAVCSkinButton2@@@std@@@std@@QAE@XZ ; std::vector<CSkinButton2 *,std::allocator<CSkinButton2 *> >::~vector<CSkinButton2 *,std::allocator<CSkinButton2 *> >
$L194333:
  00031	8b 4d f0	 mov	 ecx, DWORD PTR _this$[ebp]
  00034	81 c1 f4 00 00
	00		 add	 ecx, 244		; 000000f4H
  0003a	e9 00 00 00 00	 jmp	 ??1CxSkinButton@@UAE@XZ	; CxSkinButton::~CxSkinButton
$L194334:
  0003f	8b 4d f0	 mov	 ecx, DWORD PTR _this$[ebp]
  00042	81 c1 18 02 00
	00		 add	 ecx, 536		; 00000218H
  00048	e9 00 00 00 00	 jmp	 ??1CxSkinButton@@UAE@XZ	; CxSkinButton::~CxSkinButton
$L194335:
  0004d	8b 4d f0	 mov	 ecx, DWORD PTR _this$[ebp]
  00050	81 c1 3c 03 00
	00		 add	 ecx, 828		; 0000033cH
  00056	e9 00 00 00 00	 jmp	 ??1CxSkinButton@@UAE@XZ	; CxSkinButton::~CxSkinButton
$L194336:
  0005b	8b 4d f0	 mov	 ecx, DWORD PTR _this$[ebp]
  0005e	81 c1 60 04 00
	00		 add	 ecx, 1120		; 00000460H
  00064	e9 00 00 00 00	 jmp	 ??1CxSkinButton@@UAE@XZ	; CxSkinButton::~CxSkinButton
$L194337:
  00069	8b 4d f0	 mov	 ecx, DWORD PTR _this$[ebp]
  0006c	81 c1 84 05 00
	00		 add	 ecx, 1412		; 00000584H
  00072	e9 00 00 00 00	 jmp	 ??1CxSkinButton@@UAE@XZ	; CxSkinButton::~CxSkinButton
$L194338:
  00077	8b 4d f0	 mov	 ecx, DWORD PTR _this$[ebp]
  0007a	81 c1 a8 06 00
	00		 add	 ecx, 1704		; 000006a8H
  00080	e9 00 00 00 00	 jmp	 ??1CxSkinButton@@UAE@XZ	; CxSkinButton::~CxSkinButton
$L194339:
  00085	8b 4d f0	 mov	 ecx, DWORD PTR _this$[ebp]
  00088	81 c1 cc 07 00
	00		 add	 ecx, 1996		; 000007ccH
  0008e	e9 00 00 00 00	 jmp	 ??1CSkinButton2@@UAE@XZ	; CSkinButton2::~CSkinButton2
$L194340:
  00093	8b 4d f0	 mov	 ecx, DWORD PTR _this$[ebp]
  00096	81 c1 5c 09 00
	00		 add	 ecx, 2396		; 0000095cH
  0009c	8b f4		 mov	 esi, esp
  0009e	ff 15 00 00 00
	00		 call	 DWORD PTR __imp_??1?$CStringT@DV?$StrTraitMFC_DLL@DV?$ChTraitsCRT@D@ATL@@@@@ATL@@QAE@XZ
  000a4	3b f4		 cmp	 esi, esp
  000a6	e9 00 00 00 00	 jmp	 __RTC_CheckEsp
$L194341:
  000ab	6a 1f		 push	 31			; 0000001fH
  000ad	68 00 00 00 00	 push	 OFFSET FLAT:$SG191777
  000b2	8b 45 e8	 mov	 eax, DWORD PTR $T194327[ebp]
  000b5	50		 push	 eax
  000b6	e8 00 00 00 00	 call	 ??3CObject@@SGXPAXPBDH@Z ; CObject::operator delete
  000bb	c3		 ret	 0
__ehhandler$??0CMainSkinWnd@@QAE@XZ:
  000bc	b8 00 00 00 00	 mov	 eax, OFFSET FLAT:$T194343
  000c1	e9 00 00 00 00	 jmp	 ___CxxFrameHandler
text$x	ENDS
??0CMainSkinWnd@@QAE@XZ ENDP				; CMainSkinWnd::CMainSkinWnd
PUBLIC	??1CMainSkinWnd@@UAE@XZ				; CMainSkinWnd::~CMainSkinWnd
EXTRN	??3CObject@@SGXPAX@Z:NEAR			; CObject::operator delete
; Function compile flags: /Odt /RTCsu
;	COMDAT ??_GCMainSkinWnd@@UAEPAXI@Z
_TEXT	SEGMENT
_this$ = -4						; size = 4
___flags$ = 8						; size = 4
??_GCMainSkinWnd@@UAEPAXI@Z PROC NEAR			; CMainSkinWnd::`scalar deleting destructor', COMDAT
; _this$ = ecx
  00000	55		 push	 ebp
  00001	8b ec		 mov	 ebp, esp
  00003	51		 push	 ecx
  00004	c7 45 fc cc cc
	cc cc		 mov	 DWORD PTR [ebp-4], -858993460 ; ccccccccH
  0000b	89 4d fc	 mov	 DWORD PTR _this$[ebp], ecx
  0000e	8b 4d fc	 mov	 ecx, DWORD PTR _this$[ebp]
  00011	e8 00 00 00 00	 call	 ??1CMainSkinWnd@@UAE@XZ	; CMainSkinWnd::~CMainSkinWnd
  00016	8b 45 08	 mov	 eax, DWORD PTR ___flags$[ebp]
  00019	83 e0 01	 and	 eax, 1
  0001c	74 09		 je	 SHORT $L191790
  0001e	8b 4d fc	 mov	 ecx, DWORD PTR _this$[ebp]
  00021	51		 push	 ecx
  00022	e8 00 00 00 00	 call	 ??3CObject@@SGXPAX@Z	; CObject::operator delete
$L191790:
  00027	8b 45 fc	 mov	 eax, DWORD PTR _this$[ebp]
  0002a	83 c4 04	 add	 esp, 4
  0002d	3b ec		 cmp	 ebp, esp
  0002f	e8 00 00 00 00	 call	 __RTC_CheckEsp
  00034	8b e5		 mov	 esp, ebp
  00036	5d		 pop	 ebp
  00037	c2 04 00	 ret	 4
??_GCMainSkinWnd@@UAEPAXI@Z ENDP			; CMainSkinWnd::`scalar deleting destructor'
_TEXT	ENDS
PUBLIC	??9const_iterator@?$vector@PAVCSkinButton2@@V?$allocator@PAVCSkinButton2@@@std@@@std@@QBE_NABV012@@Z ; std::vector<CSkinButton2 *,std::allocator<CSkinButton2 *> >::const_iterator::operator!=
PUBLIC	??Diterator@?$vector@PAVCSkinButton2@@V?$allocator@PAVCSkinButton2@@@std@@@std@@QBEAAPAVCSkinButton2@@XZ ; std::vector<CSkinButton2 *,std::allocator<CSkinButton2 *> >::iterator::operator*
PUBLIC	??Eiterator@?$vector@PAVCSkinButton2@@V?$allocator@PAVCSkinButton2@@@std@@@std@@QAE?AV012@H@Z ; std::vector<CSkinButton2 *,std::allocator<CSkinButton2 *> >::iterator::operator++
PUBLIC	?begin@?$vector@PAVCSkinButton2@@V?$allocator@PAVCSkinButton2@@@std@@@std@@QAE?AViterator@12@XZ ; std::vector<CSkinButton2 *,std::allocator<CSkinButton2 *> >::begin
PUBLIC	?end@?$vector@PAVCSkinButton2@@V?$allocator@PAVCSkinButton2@@@std@@@std@@QAE?AViterator@12@XZ ; std::vector<CSkinButton2 *,std::allocator<CSkinButton2 *> >::end
PUBLIC	?clear@?$vector@PAVCSkinButton2@@V?$allocator@PAVCSkinButton2@@@std@@@std@@QAEXXZ ; std::vector<CSkinButton2 *,std::allocator<CSkinButton2 *> >::clear
EXTRN	?AfxGetMainWindow@@YAPAVCWnd@@XZ:NEAR		; AfxGetMainWindow
EXTRN	__imp__SetForegroundWindow@4:NEAR
xdata$x	SEGMENT
$T194374 DD	0ffffffffH
	DD	FLAT:$L194358
	DD	00H
	DD	FLAT:$L194359
	DD	01H
	DD	FLAT:$L194360
	DD	02H
	DD	FLAT:$L194361
	DD	03H
	DD	FLAT:$L194362
	DD	04H
	DD	FLAT:$L194363
	DD	05H
	DD	FLAT:$L194364
	DD	06H
	DD	FLAT:$L194365
	DD	07H
	DD	FLAT:$L194366
	DD	08H
	DD	FLAT:$L194367
$T194369 DD	019930520H
	DD	0aH
	DD	FLAT:$T194374
	DD	2 DUP(00H)
	DD	2 DUP(00H)
; Function compile flags: /Odt /RTCsu
xdata$x	ENDS
_TEXT	SEGMENT
tv167 = -60						; size = 4
tv145 = -56						; size = 4
$T194357 = -52						; size = 4
$T194354 = -48						; size = 4
$T194353 = -44						; size = 4
$T194352 = -40						; size = 4
$T194349 = -36						; size = 4
$T194348 = -32						; size = 4
_itor$ = -24						; size = 4
_this$ = -16						; size = 4
__$EHRec$ = -12						; size = 12
??1CMainSkinWnd@@UAE@XZ PROC NEAR			; CMainSkinWnd::~CMainSkinWnd
; _this$ = ecx

; 39   : {

  002d0	55		 push	 ebp
  002d1	8b ec		 mov	 ebp, esp
  002d3	6a ff		 push	 -1
  002d5	68 00 00 00 00	 push	 __ehhandler$??1CMainSkinWnd@@UAE@XZ
  002da	64 a1 00 00 00
	00		 mov	 eax, DWORD PTR fs:__except_list
  002e0	50		 push	 eax
  002e1	64 89 25 00 00
	00 00		 mov	 DWORD PTR fs:__except_list, esp
  002e8	83 ec 30	 sub	 esp, 48			; 00000030H
  002eb	56		 push	 esi
  002ec	57		 push	 edi
  002ed	51		 push	 ecx
  002ee	8d 7d c4	 lea	 edi, DWORD PTR [ebp-60]
  002f1	b9 0c 00 00 00	 mov	 ecx, 12			; 0000000cH
  002f6	b8 cc cc cc cc	 mov	 eax, -858993460		; ccccccccH
  002fb	f3 ab		 rep stosd
  002fd	59		 pop	 ecx
  002fe	89 4d f0	 mov	 DWORD PTR _this$[ebp], ecx
  00301	8b 45 f0	 mov	 eax, DWORD PTR _this$[ebp]
  00304	c7 00 00 00 00
	00		 mov	 DWORD PTR [eax], OFFSET FLAT:??_7CMainSkinWnd@@6B@
  0030a	c7 45 fc 09 00
	00 00		 mov	 DWORD PTR __$EHRec$[ebp+8], 9

; 40   : 	//
; 41   : 	::SetForegroundWindow(AfxGetMainWindow()->m_hWnd);

  00311	e8 00 00 00 00	 call	 ?AfxGetMainWindow@@YAPAVCWnd@@XZ ; AfxGetMainWindow
  00316	8b f4		 mov	 esi, esp
  00318	8b 48 20	 mov	 ecx, DWORD PTR [eax+32]
  0031b	51		 push	 ecx
  0031c	ff 15 00 00 00
	00		 call	 DWORD PTR __imp__SetForegroundWindow@4
  00322	3b f4		 cmp	 esi, esp
  00324	e8 00 00 00 00	 call	 __RTC_CheckEsp

; 42   : 	if( m_pToolTip)

  00329	8b 55 f0	 mov	 edx, DWORD PTR _this$[ebp]
  0032c	83 ba 54 09 00
	00 00		 cmp	 DWORD PTR [edx+2388], 0
  00333	74 47		 je	 SHORT $L191794

; 43   : 	{
; 44   : 		delete m_pToolTip;

  00335	8b 45 f0	 mov	 eax, DWORD PTR _this$[ebp]
  00338	8b 88 54 09 00
	00		 mov	 ecx, DWORD PTR [eax+2388]
  0033e	89 4d dc	 mov	 DWORD PTR $T194349[ebp], ecx
  00341	8b 55 dc	 mov	 edx, DWORD PTR $T194349[ebp]
  00344	89 55 e0	 mov	 DWORD PTR $T194348[ebp], edx
  00347	83 7d e0 00	 cmp	 DWORD PTR $T194348[ebp], 0
  0034b	74 1b		 je	 SHORT $L194350
  0034d	8b f4		 mov	 esi, esp
  0034f	6a 01		 push	 1
  00351	8b 45 e0	 mov	 eax, DWORD PTR $T194348[ebp]
  00354	8b 10		 mov	 edx, DWORD PTR [eax]
  00356	8b 4d e0	 mov	 ecx, DWORD PTR $T194348[ebp]
  00359	ff 52 04	 call	 DWORD PTR [edx+4]
  0035c	3b f4		 cmp	 esi, esp
  0035e	e8 00 00 00 00	 call	 __RTC_CheckEsp
  00363	89 45 c8	 mov	 DWORD PTR tv145[ebp], eax
  00366	eb 07		 jmp	 SHORT $L194351
$L194350:
  00368	c7 45 c8 00 00
	00 00		 mov	 DWORD PTR tv145[ebp], 0
$L194351:

; 45   : 		m_pToolTip = NULL;

  0036f	8b 45 f0	 mov	 eax, DWORD PTR _this$[ebp]
  00372	c7 80 54 09 00
	00 00 00 00 00	 mov	 DWORD PTR [eax+2388], 0
$L191794:

; 46   : 	}
; 47   : 	vector<CSkinButton2*>::iterator itor = m_colbtnVec.begin();

  0037c	8d 4d e8	 lea	 ecx, DWORD PTR _itor$[ebp]
  0037f	51		 push	 ecx
  00380	8b 4d f0	 mov	 ecx, DWORD PTR _this$[ebp]
  00383	81 c1 e4 00 00
	00		 add	 ecx, 228		; 000000e4H
  00389	e8 00 00 00 00	 call	 ?begin@?$vector@PAVCSkinButton2@@V?$allocator@PAVCSkinButton2@@@std@@@std@@QAE?AViterator@12@XZ ; std::vector<CSkinButton2 *,std::allocator<CSkinButton2 *> >::begin
$L191917:

; 48   : 	while(itor != m_colbtnVec.end())

  0038e	8d 55 d8	 lea	 edx, DWORD PTR $T194352[ebp]
  00391	52		 push	 edx
  00392	8b 4d f0	 mov	 ecx, DWORD PTR _this$[ebp]
  00395	81 c1 e4 00 00
	00		 add	 ecx, 228		; 000000e4H
  0039b	e8 00 00 00 00	 call	 ?end@?$vector@PAVCSkinButton2@@V?$allocator@PAVCSkinButton2@@@std@@@std@@QAE?AViterator@12@XZ ; std::vector<CSkinButton2 *,std::allocator<CSkinButton2 *> >::end
  003a0	50		 push	 eax
  003a1	8d 4d e8	 lea	 ecx, DWORD PTR _itor$[ebp]
  003a4	e8 00 00 00 00	 call	 ??9const_iterator@?$vector@PAVCSkinButton2@@V?$allocator@PAVCSkinButton2@@@std@@@std@@QBE_NABV012@@Z ; std::vector<CSkinButton2 *,std::allocator<CSkinButton2 *> >::const_iterator::operator!=
  003a9	0f b6 c0	 movzx	 eax, al
  003ac	85 c0		 test	 eax, eax
  003ae	74 4b		 je	 SHORT $L191918

; 49   : 	{
; 50   : 		delete (*itor);

  003b0	8d 4d e8	 lea	 ecx, DWORD PTR _itor$[ebp]
  003b3	e8 00 00 00 00	 call	 ??Diterator@?$vector@PAVCSkinButton2@@V?$allocator@PAVCSkinButton2@@@std@@@std@@QBEAAPAVCSkinButton2@@XZ ; std::vector<CSkinButton2 *,std::allocator<CSkinButton2 *> >::iterator::operator*
  003b8	8b 08		 mov	 ecx, DWORD PTR [eax]
  003ba	89 4d d0	 mov	 DWORD PTR $T194354[ebp], ecx
  003bd	8b 55 d0	 mov	 edx, DWORD PTR $T194354[ebp]
  003c0	89 55 d4	 mov	 DWORD PTR $T194353[ebp], edx
  003c3	83 7d d4 00	 cmp	 DWORD PTR $T194353[ebp], 0
  003c7	74 1b		 je	 SHORT $L194355
  003c9	8b f4		 mov	 esi, esp
  003cb	6a 01		 push	 1
  003cd	8b 45 d4	 mov	 eax, DWORD PTR $T194353[ebp]
  003d0	8b 10		 mov	 edx, DWORD PTR [eax]
  003d2	8b 4d d4	 mov	 ecx, DWORD PTR $T194353[ebp]
  003d5	ff 52 04	 call	 DWORD PTR [edx+4]
  003d8	3b f4		 cmp	 esi, esp
  003da	e8 00 00 00 00	 call	 __RTC_CheckEsp
  003df	89 45 c4	 mov	 DWORD PTR tv167[ebp], eax
  003e2	eb 07		 jmp	 SHORT $L194356
$L194355:
  003e4	c7 45 c4 00 00
	00 00		 mov	 DWORD PTR tv167[ebp], 0
$L194356:

; 51   : 		itor++;

  003eb	6a 00		 push	 0
  003ed	8d 45 cc	 lea	 eax, DWORD PTR $T194357[ebp]
  003f0	50		 push	 eax
  003f1	8d 4d e8	 lea	 ecx, DWORD PTR _itor$[ebp]
  003f4	e8 00 00 00 00	 call	 ??Eiterator@?$vector@PAVCSkinButton2@@V?$allocator@PAVCSkinButton2@@@std@@@std@@QAE?AV012@H@Z ; std::vector<CSkinButton2 *,std::allocator<CSkinButton2 *> >::iterator::operator++

; 52   : 	}

  003f9	eb 93		 jmp	 SHORT $L191917
$L191918:

; 53   : 	m_colbtnVec.clear();

  003fb	8b 4d f0	 mov	 ecx, DWORD PTR _this$[ebp]
  003fe	81 c1 e4 00 00
	00		 add	 ecx, 228		; 000000e4H
  00404	e8 00 00 00 00	 call	 ?clear@?$vector@PAVCSkinButton2@@V?$allocator@PAVCSkinButton2@@@std@@@std@@QAEXXZ ; std::vector<CSkinButton2 *,std::allocator<CSkinButton2 *> >::clear

; 54   : }

  00409	c6 45 fc 08	 mov	 BYTE PTR __$EHRec$[ebp+8], 8
  0040d	8b 4d f0	 mov	 ecx, DWORD PTR _this$[ebp]
  00410	81 c1 5c 09 00
	00		 add	 ecx, 2396		; 0000095cH
  00416	8b f4		 mov	 esi, esp
  00418	ff 15 00 00 00
	00		 call	 DWORD PTR __imp_??1?$CStringT@DV?$StrTraitMFC_DLL@DV?$ChTraitsCRT@D@ATL@@@@@ATL@@QAE@XZ
  0041e	3b f4		 cmp	 esi, esp
  00420	e8 00 00 00 00	 call	 __RTC_CheckEsp
  00425	c6 45 fc 07	 mov	 BYTE PTR __$EHRec$[ebp+8], 7
  00429	8b 4d f0	 mov	 ecx, DWORD PTR _this$[ebp]
  0042c	81 c1 cc 07 00
	00		 add	 ecx, 1996		; 000007ccH
  00432	e8 00 00 00 00	 call	 ??1CSkinButton2@@UAE@XZ	; CSkinButton2::~CSkinButton2
  00437	c6 45 fc 06	 mov	 BYTE PTR __$EHRec$[ebp+8], 6
  0043b	8b 4d f0	 mov	 ecx, DWORD PTR _this$[ebp]
  0043e	81 c1 a8 06 00
	00		 add	 ecx, 1704		; 000006a8H
  00444	e8 00 00 00 00	 call	 ??1CxSkinButton@@UAE@XZ	; CxSkinButton::~CxSkinButton
  00449	c6 45 fc 05	 mov	 BYTE PTR __$EHRec$[ebp+8], 5
  0044d	8b 4d f0	 mov	 ecx, DWORD PTR _this$[ebp]
  00450	81 c1 84 05 00
	00		 add	 ecx, 1412		; 00000584H
  00456	e8 00 00 00 00	 call	 ??1CxSkinButton@@UAE@XZ	; CxSkinButton::~CxSkinButton
  0045b	c6 45 fc 04	 mov	 BYTE PTR __$EHRec$[ebp+8], 4
  0045f	8b 4d f0	 mov	 ecx, DWORD PTR _this$[ebp]
  00462	81 c1 60 04 00
	00		 add	 ecx, 1120		; 00000460H
  00468	e8 00 00 00 00	 call	 ??1CxSkinButton@@UAE@XZ	; CxSkinButton::~CxSkinButton
  0046d	c6 45 fc 03	 mov	 BYTE PTR __$EHRec$[ebp+8], 3
  00471	8b 4d f0	 mov	 ecx, DWORD PTR _this$[ebp]
  00474	81 c1 3c 03 00
	00		 add	 ecx, 828		; 0000033cH
  0047a	e8 00 00 00 00	 call	 ??1CxSkinButton@@UAE@XZ	; CxSkinButton::~CxSkinButton
  0047f	c6 45 fc 02	 mov	 BYTE PTR __$EHRec$[ebp+8], 2
  00483	8b 4d f0	 mov	 ecx, DWORD PTR _this$[ebp]
  00486	81 c1 18 02 00
	00		 add	 ecx, 536		; 00000218H
  0048c	e8 00 00 00 00	 call	 ??1CxSkinButton@@UAE@XZ	; CxSkinButton::~CxSkinButton
  00491	c6 45 fc 01	 mov	 BYTE PTR __$EHRec$[ebp+8], 1
  00495	8b 4d f0	 mov	 ecx, DWORD PTR _this$[ebp]
  00498	81 c1 f4 00 00
	00		 add	 ecx, 244		; 000000f4H
  0049e	e8 00 00 00 00	 call	 ??1CxSkinButton@@UAE@XZ	; CxSkinButton::~CxSkinButton
  004a3	c6 45 fc 00	 mov	 BYTE PTR __$EHRec$[ebp+8], 0
  004a7	8b 4d f0	 mov	 ecx, DWORD PTR _this$[ebp]
  004aa	81 c1 e4 00 00
	00		 add	 ecx, 228		; 000000e4H
  004b0	e8 00 00 00 00	 call	 ??1?$vector@PAVCSkinButton2@@V?$allocator@PAVCSkinButton2@@@std@@@std@@QAE@XZ ; std::vector<CSkinButton2 *,std::allocator<CSkinButton2 *> >::~vector<CSkinButton2 *,std::allocator<CSkinButton2 *> >
  004b5	c7 45 fc ff ff
	ff ff		 mov	 DWORD PTR __$EHRec$[ebp+8], -1
  004bc	8b 4d f0	 mov	 ecx, DWORD PTR _this$[ebp]
  004bf	e8 00 00 00 00	 call	 ??1CFrameWnd@@UAE@XZ	; CFrameWnd::~CFrameWnd
  004c4	52		 push	 edx
  004c5	8b cd		 mov	 ecx, ebp
  004c7	50		 push	 eax
  004c8	8d 15 00 00 00
	00		 lea	 edx, DWORD PTR $L194373
  004ce	e8 00 00 00 00	 call	 @_RTC_CheckStackVars@8
  004d3	58		 pop	 eax
  004d4	5a		 pop	 edx
  004d5	8b 4d f4	 mov	 ecx, DWORD PTR __$EHRec$[ebp]
  004d8	64 89 0d 00 00
	00 00		 mov	 DWORD PTR fs:__except_list, ecx
  004df	5f		 pop	 edi
  004e0	5e		 pop	 esi
  004e1	83 c4 3c	 add	 esp, 60			; 0000003cH
  004e4	3b ec		 cmp	 ebp, esp
  004e6	e8 00 00 00 00	 call	 __RTC_CheckEsp
  004eb	8b e5		 mov	 esp, ebp
  004ed	5d		 pop	 ebp
  004ee	c3		 ret	 0
$L194373:
  004ef	01 00 00 00	 DD	 1
  004f3	00 00 00 00	 DD	 $L194372
$L194372:
  004f7	e8 ff ff ff	 DD	 -24			; ffffffe8H
  004fb	04 00 00 00	 DD	 4
  004ff	00 00 00 00	 DD	 $L194370
$L194370:
  00503	69		 DB	 105			; 00000069H
  00504	74		 DB	 116			; 00000074H
  00505	6f		 DB	 111			; 0000006fH
  00506	72		 DB	 114			; 00000072H
  00507	00		 DB	 0
_TEXT	ENDS
text$x	SEGMENT
$L194358:
  000c6	8b 4d f0	 mov	 ecx, DWORD PTR _this$[ebp]
  000c9	e9 00 00 00 00	 jmp	 ??1CFrameWnd@@UAE@XZ	; CFrameWnd::~CFrameWnd
$L194359:
  000ce	8b 4d f0	 mov	 ecx, DWORD PTR _this$[ebp]
  000d1	81 c1 e4 00 00
	00		 add	 ecx, 228		; 000000e4H
  000d7	e9 00 00 00 00	 jmp	 ??1?$vector@PAVCSkinButton2@@V?$allocator@PAVCSkinButton2@@@std@@@std@@QAE@XZ ; std::vector<CSkinButton2 *,std::allocator<CSkinButton2 *> >::~vector<CSkinButton2 *,std::allocator<CSkinButton2 *> >
$L194360:
  000dc	8b 4d f0	 mov	 ecx, DWORD PTR _this$[ebp]
  000df	81 c1 f4 00 00
	00		 add	 ecx, 244		; 000000f4H
  000e5	e9 00 00 00 00	 jmp	 ??1CxSkinButton@@UAE@XZ	; CxSkinButton::~CxSkinButton
$L194361:
  000ea	8b 4d f0	 mov	 ecx, DWORD PTR _this$[ebp]
  000ed	81 c1 18 02 00
	00		 add	 ecx, 536		; 00000218H
  000f3	e9 00 00 00 00	 jmp	 ??1CxSkinButton@@UAE@XZ	; CxSkinButton::~CxSkinButton
$L194362:
  000f8	8b 4d f0	 mov	 ecx, DWORD PTR _this$[ebp]
  000fb	81 c1 3c 03 00
	00		 add	 ecx, 828		; 0000033cH
  00101	e9 00 00 00 00	 jmp	 ??1CxSkinButton@@UAE@XZ	; CxSkinButton::~CxSkinButton
$L194363:
  00106	8b 4d f0	 mov	 ecx, DWORD PTR _this$[ebp]
  00109	81 c1 60 04 00
	00		 add	 ecx, 1120		; 00000460H
  0010f	e9 00 00 00 00	 jmp	 ??1CxSkinButton@@UAE@XZ	; CxSkinButton::~CxSkinButton
$L194364:
  00114	8b 4d f0	 mov	 ecx, DWORD PTR _this$[ebp]
  00117	81 c1 84 05 00
	00		 add	 ecx, 1412		; 00000584H
  0011d	e9 00 00 00 00	 jmp	 ??1CxSkinButton@@UAE@XZ	; CxSkinButton::~CxSkinButton
$L194365:
  00122	8b 4d f0	 mov	 ecx, DWORD PTR _this$[ebp]
  00125	81 c1 a8 06 00
	00		 add	 ecx, 1704		; 000006a8H
  0012b	e9 00 00 00 00	 jmp	 ??1CxSkinButton@@UAE@XZ	; CxSkinButton::~CxSkinButton
$L194366:
  00130	8b 4d f0	 mov	 ecx, DWORD PTR _this$[ebp]
  00133	81 c1 cc 07 00
	00		 add	 ecx, 1996		; 000007ccH
  00139	e9 00 00 00 00	 jmp	 ??1CSkinButton2@@UAE@XZ	; CSkinButton2::~CSkinButton2
$L194367:
  0013e	8b 4d f0	 mov	 ecx, DWORD PTR _this$[ebp]
  00141	81 c1 5c 09 00
	00		 add	 ecx, 2396		; 0000095cH
  00147	8b f4		 mov	 esi, esp
  00149	ff 15 00 00 00
	00		 call	 DWORD PTR __imp_??1?$CStringT@DV?$StrTraitMFC_DLL@DV?$ChTraitsCRT@D@ATL@@@@@ATL@@QAE@XZ
  0014f	3b f4		 cmp	 esi, esp
  00151	e9 00 00 00 00	 jmp	 __RTC_CheckEsp
__ehhandler$??1CMainSkinWnd@@UAE@XZ:
  00156	b8 00 00 00 00	 mov	 eax, OFFSET FLAT:$T194369
  0015b	e9 00 00 00 00	 jmp	 ___CxxFrameHandler
text$x	ENDS
??1CMainSkinWnd@@UAE@XZ ENDP				; CMainSkinWnd::~CMainSkinWnd
PUBLIC	?GetThisMessageMap@CMainSkinWnd@@KGPBUAFX_MSGMAP@@XZ ; CMainSkinWnd::GetThisMessageMap
; Function compile flags: /Odt /RTCsu
_TEXT	SEGMENT
?GetThisMessageMap@CMainSkinWnd@@KGPBUAFX_MSGMAP@@XZ PROC NEAR ; CMainSkinWnd::GetThisMessageMap

; 56   : BEGIN_MESSAGE_MAP(CMainSkinWnd, CFrameWnd)

  00510	55		 push	 ebp
  00511	8b ec		 mov	 ebp, esp
  00513	b8 00 00 00 00	 mov	 eax, OFFSET FLAT:?messageMap@CMainSkinWnd@@1UAFX_MSGMAP@@B ; CMainSkinWnd::messageMap
  00518	5d		 pop	 ebp
  00519	c3		 ret	 0
?GetThisMessageMap@CMainSkinWnd@@KGPBUAFX_MSGMAP@@XZ ENDP ; CMainSkinWnd::GetThisMessageMap
; Function compile flags: /Odt /RTCsu
_this$ = -4						; size = 4
?GetMessageMap@CMainSkinWnd@@MBEPBUAFX_MSGMAP@@XZ PROC NEAR ; CMainSkinWnd::GetMessageMap
; _this$ = ecx

; 56   : BEGIN_MESSAGE_MAP(CMainSkinWnd, CFrameWnd)

  00520	55		 push	 ebp
  00521	8b ec		 mov	 ebp, esp
  00523	51		 push	 ecx
  00524	c7 45 fc cc cc
	cc cc		 mov	 DWORD PTR [ebp-4], -858993460 ; ccccccccH
  0052b	89 4d fc	 mov	 DWORD PTR _this$[ebp], ecx
  0052e	b8 00 00 00 00	 mov	 eax, OFFSET FLAT:?messageMap@CMainSkinWnd@@1UAFX_MSGMAP@@B ; CMainSkinWnd::messageMap
  00533	8b e5		 mov	 esp, ebp
  00535	5d		 pop	 ebp
  00536	c3		 ret	 0
?GetMessageMap@CMainSkinWnd@@MBEPBUAFX_MSGMAP@@XZ ENDP	; CMainSkinWnd::GetMessageMap
_TEXT	ENDS
PUBLIC	?ShowToolTip@CMainSkinWnd@@QAEXH@Z		; CMainSkinWnd::ShowToolTip
EXTRN	??0CRect@@QAE@XZ:NEAR				; CRect::CRect
EXTRN	?GetWindowRect@CWnd@@QBEXPAUtagRECT@@@Z:NEAR	; CWnd::GetWindowRect
EXTRN	__imp_??0?$CStringT@DV?$StrTraitMFC_DLL@DV?$ChTraitsCRT@D@ATL@@@@@ATL@@QAE@ABV01@@Z:NEAR
EXTRN	?ShowToolTips@CCWToolTips@@QAEXV?$CStringT@DV?$StrTraitMFC_DLL@DV?$ChTraitsCRT@D@ATL@@@@@ATL@@VCRect@@H@Z:NEAR ; CCWToolTips::ShowToolTips
EXTRN	?HideTooTips@CCWToolTips@@QAEXXZ:NEAR		; CCWToolTips::HideTooTips
; Function compile flags: /Odt /RTCsu
_TEXT	SEGMENT
tv135 = -52						; size = 4
$T194379 = -48						; size = 4
$T194378 = -44						; size = 16
_rc$191984 = -24					; size = 16
_this$ = -4						; size = 4
_bShow$ = 8						; size = 4
?ShowToolTip@CMainSkinWnd@@QAEXH@Z PROC NEAR		; CMainSkinWnd::ShowToolTip
; _this$ = ecx

; 75   : {

  00540	55		 push	 ebp
  00541	8b ec		 mov	 ebp, esp
  00543	83 ec 34	 sub	 esp, 52			; 00000034H
  00546	56		 push	 esi
  00547	57		 push	 edi
  00548	51		 push	 ecx
  00549	8d 7d cc	 lea	 edi, DWORD PTR [ebp-52]
  0054c	b9 0d 00 00 00	 mov	 ecx, 13			; 0000000dH
  00551	b8 cc cc cc cc	 mov	 eax, -858993460		; ccccccccH
  00556	f3 ab		 rep stosd
  00558	59		 pop	 ecx
  00559	89 4d fc	 mov	 DWORD PTR _this$[ebp], ecx

; 76   : 	if(bShow)

  0055c	83 7d 08 00	 cmp	 DWORD PTR _bShow$[ebp], 0
  00560	0f 84 91 00 00
	00		 je	 $L191983

; 77   : 	{
; 78   : 		CRect rc;

  00566	8d 4d e8	 lea	 ecx, DWORD PTR _rc$191984[ebp]
  00569	e8 00 00 00 00	 call	 ??0CRect@@QAE@XZ	; CRect::CRect

; 79   : 		GetWindowRect(&rc);

  0056e	8d 45 e8	 lea	 eax, DWORD PTR _rc$191984[ebp]
  00571	50		 push	 eax
  00572	8b 4d fc	 mov	 ecx, DWORD PTR _this$[ebp]
  00575	e8 00 00 00 00	 call	 ?GetWindowRect@CWnd@@QBEXPAUtagRECT@@@Z ; CWnd::GetWindowRect

; 80   : 		m_pToolTip->ShowToolTips(m_ToolTipText, CRect(rc.left,rc.top +238,rc.left +300 ,rc.top + 260), 2000);

  0057a	68 d0 07 00 00	 push	 2000			; 000007d0H
  0057f	8b 4d ec	 mov	 ecx, DWORD PTR _rc$191984[ebp+4]
  00582	81 c1 04 01 00
	00		 add	 ecx, 260		; 00000104H
  00588	51		 push	 ecx
  00589	8b 55 e8	 mov	 edx, DWORD PTR _rc$191984[ebp]
  0058c	81 c2 2c 01 00
	00		 add	 edx, 300		; 0000012cH
  00592	52		 push	 edx
  00593	8b 45 ec	 mov	 eax, DWORD PTR _rc$191984[ebp+4]
  00596	05 ee 00 00 00	 add	 eax, 238		; 000000eeH
  0059b	50		 push	 eax
  0059c	8b 4d e8	 mov	 ecx, DWORD PTR _rc$191984[ebp]
  0059f	51		 push	 ecx
  005a0	8d 4d d4	 lea	 ecx, DWORD PTR $T194378[ebp]
  005a3	e8 00 00 00 00	 call	 ??0CRect@@QAE@HHHH@Z	; CRect::CRect
  005a8	83 ec 10	 sub	 esp, 16			; 00000010H
  005ab	8b d4		 mov	 edx, esp
  005ad	8b 08		 mov	 ecx, DWORD PTR [eax]
  005af	89 0a		 mov	 DWORD PTR [edx], ecx
  005b1	8b 48 04	 mov	 ecx, DWORD PTR [eax+4]
  005b4	89 4a 04	 mov	 DWORD PTR [edx+4], ecx
  005b7	8b 48 08	 mov	 ecx, DWORD PTR [eax+8]
  005ba	89 4a 08	 mov	 DWORD PTR [edx+8], ecx
  005bd	8b 40 0c	 mov	 eax, DWORD PTR [eax+12]
  005c0	89 42 0c	 mov	 DWORD PTR [edx+12], eax
  005c3	8b 4d fc	 mov	 ecx, DWORD PTR _this$[ebp]
  005c6	81 c1 5c 09 00
	00		 add	 ecx, 2396		; 0000095cH
  005cc	51		 push	 ecx
  005cd	8b d4		 mov	 edx, esp
  005cf	89 65 d0	 mov	 DWORD PTR $T194379[ebp], esp
  005d2	8b f4		 mov	 esi, esp
  005d4	51		 push	 ecx
  005d5	8b ca		 mov	 ecx, edx
  005d7	ff 15 00 00 00
	00		 call	 DWORD PTR __imp_??0?$CStringT@DV?$StrTraitMFC_DLL@DV?$ChTraitsCRT@D@ATL@@@@@ATL@@QAE@ABV01@@Z
  005dd	3b f4		 cmp	 esi, esp
  005df	e8 00 00 00 00	 call	 __RTC_CheckEsp
  005e4	89 45 cc	 mov	 DWORD PTR tv135[ebp], eax
  005e7	8b 45 fc	 mov	 eax, DWORD PTR _this$[ebp]
  005ea	8b 88 54 09 00
	00		 mov	 ecx, DWORD PTR [eax+2388]
  005f0	e8 00 00 00 00	 call	 ?ShowToolTips@CCWToolTips@@QAEXV?$CStringT@DV?$StrTraitMFC_DLL@DV?$ChTraitsCRT@D@ATL@@@@@ATL@@VCRect@@H@Z ; CCWToolTips::ShowToolTips

; 81   : 	}
; 82   : 	else 

  005f5	eb 0e		 jmp	 SHORT $L191982
$L191983:

; 83   : 		m_pToolTip->HideTooTips();

  005f7	8b 4d fc	 mov	 ecx, DWORD PTR _this$[ebp]
  005fa	8b 89 54 09 00
	00		 mov	 ecx, DWORD PTR [ecx+2388]
  00600	e8 00 00 00 00	 call	 ?HideTooTips@CCWToolTips@@QAEXXZ ; CCWToolTips::HideTooTips
$L191982:

; 84   : }

  00605	52		 push	 edx
  00606	8b cd		 mov	 ecx, ebp
  00608	50		 push	 eax
  00609	8d 15 00 00 00
	00		 lea	 edx, DWORD PTR $L194383
  0060f	e8 00 00 00 00	 call	 @_RTC_CheckStackVars@8
  00614	58		 pop	 eax
  00615	5a		 pop	 edx
  00616	5f		 pop	 edi
  00617	5e		 pop	 esi
  00618	83 c4 34	 add	 esp, 52			; 00000034H
  0061b	3b ec		 cmp	 ebp, esp
  0061d	e8 00 00 00 00	 call	 __RTC_CheckEsp
  00622	8b e5		 mov	 esp, ebp
  00624	5d		 pop	 ebp
  00625	c2 04 00	 ret	 4
$L194383:
  00628	01 00 00 00	 DD	 1
  0062c	00 00 00 00	 DD	 $L194382
$L194382:
  00630	e8 ff ff ff	 DD	 -24			; ffffffe8H
  00634	10 00 00 00	 DD	 16			; 00000010H
  00638	00 00 00 00	 DD	 $L194381
$L194381:
  0063c	72		 DB	 114			; 00000072H
  0063d	63		 DB	 99			; 00000063H
  0063e	00		 DB	 0
?ShowToolTip@CMainSkinWnd@@QAEXH@Z ENDP			; CMainSkinWnd::ShowToolTip
_TEXT	ENDS
PUBLIC	?SetToolTip@CMainSkinWnd@@QAEXV?$CStringT@DV?$StrTraitMFC_DLL@DV?$ChTraitsCRT@D@ATL@@@@@ATL@@@Z ; CMainSkinWnd::SetToolTip
EXTRN	__imp_??4?$CStringT@DV?$StrTraitMFC_DLL@DV?$ChTraitsCRT@D@ATL@@@@@ATL@@QAEAAV01@ABV01@@Z:NEAR
xdata$x	SEGMENT
$T194389 DD	0ffffffffH
	DD	FLAT:$L194385
$T194387 DD	019930520H
	DD	01H
	DD	FLAT:$T194389
	DD	2 DUP(00H)
	DD	2 DUP(00H)
; Function compile flags: /Odt /RTCsu
xdata$x	ENDS
_TEXT	SEGMENT
_this$ = -16						; size = 4
__$EHRec$ = -12						; size = 12
_str$ = 8						; size = 4
?SetToolTip@CMainSkinWnd@@QAEXV?$CStringT@DV?$StrTraitMFC_DLL@DV?$ChTraitsCRT@D@ATL@@@@@ATL@@@Z PROC NEAR ; CMainSkinWnd::SetToolTip
; _this$ = ecx

; 87   : {

  00640	55		 push	 ebp
  00641	8b ec		 mov	 ebp, esp
  00643	6a ff		 push	 -1
  00645	68 00 00 00 00	 push	 __ehhandler$?SetToolTip@CMainSkinWnd@@QAEXV?$CStringT@DV?$StrTraitMFC_DLL@DV?$ChTraitsCRT@D@ATL@@@@@ATL@@@Z
  0064a	64 a1 00 00 00
	00		 mov	 eax, DWORD PTR fs:__except_list
  00650	50		 push	 eax
  00651	64 89 25 00 00
	00 00		 mov	 DWORD PTR fs:__except_list, esp
  00658	51		 push	 ecx
  00659	56		 push	 esi
  0065a	c7 45 f0 cc cc
	cc cc		 mov	 DWORD PTR [ebp-16], -858993460 ; ccccccccH
  00661	89 4d f0	 mov	 DWORD PTR _this$[ebp], ecx
  00664	c7 45 fc 00 00
	00 00		 mov	 DWORD PTR __$EHRec$[ebp+8], 0

; 88   : 	m_ToolTipText = str;

  0066b	8b f4		 mov	 esi, esp
  0066d	8d 45 08	 lea	 eax, DWORD PTR _str$[ebp]
  00670	50		 push	 eax
  00671	8b 4d f0	 mov	 ecx, DWORD PTR _this$[ebp]
  00674	81 c1 5c 09 00
	00		 add	 ecx, 2396		; 0000095cH
  0067a	ff 15 00 00 00
	00		 call	 DWORD PTR __imp_??4?$CStringT@DV?$StrTraitMFC_DLL@DV?$ChTraitsCRT@D@ATL@@@@@ATL@@QAEAAV01@ABV01@@Z
  00680	3b f4		 cmp	 esi, esp
  00682	e8 00 00 00 00	 call	 __RTC_CheckEsp

; 89   : }

  00687	c7 45 fc ff ff
	ff ff		 mov	 DWORD PTR __$EHRec$[ebp+8], -1
  0068e	8b f4		 mov	 esi, esp
  00690	8d 4d 08	 lea	 ecx, DWORD PTR _str$[ebp]
  00693	ff 15 00 00 00
	00		 call	 DWORD PTR __imp_??1?$CStringT@DV?$StrTraitMFC_DLL@DV?$ChTraitsCRT@D@ATL@@@@@ATL@@QAE@XZ
  00699	3b f4		 cmp	 esi, esp
  0069b	e8 00 00 00 00	 call	 __RTC_CheckEsp
  006a0	8b 4d f4	 mov	 ecx, DWORD PTR __$EHRec$[ebp]
  006a3	64 89 0d 00 00
	00 00		 mov	 DWORD PTR fs:__except_list, ecx
  006aa	5e		 pop	 esi
  006ab	83 c4 10	 add	 esp, 16			; 00000010H
  006ae	3b ec		 cmp	 ebp, esp
  006b0	e8 00 00 00 00	 call	 __RTC_CheckEsp
  006b5	8b e5		 mov	 esp, ebp
  006b7	5d		 pop	 ebp
  006b8	c2 04 00	 ret	 4
_TEXT	ENDS
text$x	SEGMENT
$L194385:
  00160	8b f4		 mov	 esi, esp
  00162	8d 4d 08	 lea	 ecx, DWORD PTR _str$[ebp]
  00165	ff 15 00 00 00
	00		 call	 DWORD PTR __imp_??1?$CStringT@DV?$StrTraitMFC_DLL@DV?$ChTraitsCRT@D@ATL@@@@@ATL@@QAE@XZ
  0016b	3b f4		 cmp	 esi, esp
  0016d	e9 00 00 00 00	 jmp	 __RTC_CheckEsp
__ehhandler$?SetToolTip@CMainSkinWnd@@QAEXV?$CStringT@DV?$StrTraitMFC_DLL@DV?$ChTraitsCRT@D@ATL@@@@@ATL@@@Z:
  00172	b8 00 00 00 00	 mov	 eax, OFFSET FLAT:$T194387
  00177	e9 00 00 00 00	 jmp	 ___CxxFrameHandler
text$x	ENDS
?SetToolTip@CMainSkinWnd@@QAEXV?$CStringT@DV?$StrTraitMFC_DLL@DV?$ChTraitsCRT@D@ATL@@@@@ATL@@@Z ENDP ; CMainSkinWnd::SetToolTip
EXTRN	?GetObjectA@CSkinMgrV1@@SAPAVIChangeColorMgr@@XZ:NEAR ; CSkinMgrV1::GetObjectA
; Function compile flags: /Odt /RTCsu
_TEXT	SEGMENT
tv69 = -8						; size = 4
_this$ = -4						; size = 4
?OnCloseDlg@CMainSkinWnd@@QAEXXZ PROC NEAR		; CMainSkinWnd::OnCloseDlg
; _this$ = ecx

; 91   : {

  006c0	55		 push	 ebp
  006c1	8b ec		 mov	 ebp, esp
  006c3	83 ec 08	 sub	 esp, 8
  006c6	56		 push	 esi
  006c7	c7 45 f8 cc cc
	cc cc		 mov	 DWORD PTR [ebp-8], -858993460 ; ccccccccH
  006ce	c7 45 fc cc cc
	cc cc		 mov	 DWORD PTR [ebp-4], -858993460 ; ccccccccH
  006d5	89 4d fc	 mov	 DWORD PTR _this$[ebp], ecx

; 92   : 	this->DestroyWindow();

  006d8	8b 45 fc	 mov	 eax, DWORD PTR _this$[ebp]
  006db	8b 10		 mov	 edx, DWORD PTR [eax]
  006dd	8b f4		 mov	 esi, esp
  006df	8b 4d fc	 mov	 ecx, DWORD PTR _this$[ebp]
  006e2	ff 52 68	 call	 DWORD PTR [edx+104]
  006e5	3b f4		 cmp	 esi, esp
  006e7	e8 00 00 00 00	 call	 __RTC_CheckEsp

; 93   : 	CSkinMgrV1::GetObject()->CloseSkinWnd();

  006ec	e8 00 00 00 00	 call	 ?GetObjectA@CSkinMgrV1@@SAPAVIChangeColorMgr@@XZ ; CSkinMgrV1::GetObjectA
  006f1	89 45 f8	 mov	 DWORD PTR tv69[ebp], eax
  006f4	8b 45 f8	 mov	 eax, DWORD PTR tv69[ebp]
  006f7	8b 10		 mov	 edx, DWORD PTR [eax]
  006f9	8b f4		 mov	 esi, esp
  006fb	8b 4d f8	 mov	 ecx, DWORD PTR tv69[ebp]
  006fe	ff 52 0c	 call	 DWORD PTR [edx+12]
  00701	3b f4		 cmp	 esi, esp
  00703	e8 00 00 00 00	 call	 __RTC_CheckEsp

; 94   : }

  00708	5e		 pop	 esi
  00709	83 c4 08	 add	 esp, 8
  0070c	3b ec		 cmp	 ebp, esp
  0070e	e8 00 00 00 00	 call	 __RTC_CheckEsp
  00713	8b e5		 mov	 esp, ebp
  00715	5d		 pop	 ebp
  00716	c3		 ret	 0
?OnCloseDlg@CMainSkinWnd@@QAEXXZ ENDP			; CMainSkinWnd::OnCloseDlg
_TEXT	ENDS
EXTRN	?SetRect@CRect@@QAEXHHHH@Z:NEAR			; CRect::SetRect
EXTRN	?MoveWindow@CWnd@@QAEXPBUtagRECT@@H@Z:NEAR	; CWnd::MoveWindow
; Function compile flags: /Odt /RTCsu
_TEXT	SEGMENT
_rctip$ = -24						; size = 16
_this$ = -4						; size = 4
_x$ = 8							; size = 4
_y$ = 12						; size = 4
?OnMove@CMainSkinWnd@@QAEXHH@Z PROC NEAR		; CMainSkinWnd::OnMove
; _this$ = ecx

; 97   : {

  00720	55		 push	 ebp
  00721	8b ec		 mov	 ebp, esp
  00723	83 ec 1c	 sub	 esp, 28			; 0000001cH
  00726	b8 cc cc cc cc	 mov	 eax, -858993460		; ccccccccH
  0072b	89 45 e4	 mov	 DWORD PTR [ebp-28], eax
  0072e	89 45 e8	 mov	 DWORD PTR [ebp-24], eax
  00731	89 45 ec	 mov	 DWORD PTR [ebp-20], eax
  00734	89 45 f0	 mov	 DWORD PTR [ebp-16], eax
  00737	89 45 f4	 mov	 DWORD PTR [ebp-12], eax
  0073a	89 45 f8	 mov	 DWORD PTR [ebp-8], eax
  0073d	89 45 fc	 mov	 DWORD PTR [ebp-4], eax
  00740	89 4d fc	 mov	 DWORD PTR _this$[ebp], ecx

; 98   : 	CRect rctip;

  00743	8d 4d e8	 lea	 ecx, DWORD PTR _rctip$[ebp]
  00746	e8 00 00 00 00	 call	 ??0CRect@@QAE@XZ	; CRect::CRect

; 99   : 	rctip.SetRect(x,y+240,x+300,y+260);

  0074b	8b 45 0c	 mov	 eax, DWORD PTR _y$[ebp]
  0074e	05 04 01 00 00	 add	 eax, 260		; 00000104H
  00753	50		 push	 eax
  00754	8b 4d 08	 mov	 ecx, DWORD PTR _x$[ebp]
  00757	81 c1 2c 01 00
	00		 add	 ecx, 300		; 0000012cH
  0075d	51		 push	 ecx
  0075e	8b 55 0c	 mov	 edx, DWORD PTR _y$[ebp]
  00761	81 c2 f0 00 00
	00		 add	 edx, 240		; 000000f0H
  00767	52		 push	 edx
  00768	8b 45 08	 mov	 eax, DWORD PTR _x$[ebp]
  0076b	50		 push	 eax
  0076c	8d 4d e8	 lea	 ecx, DWORD PTR _rctip$[ebp]
  0076f	e8 00 00 00 00	 call	 ?SetRect@CRect@@QAEXHHHH@Z ; CRect::SetRect

; 100  : 	m_pToolTip->MoveWindow(&rctip);

  00774	6a 01		 push	 1
  00776	8d 4d e8	 lea	 ecx, DWORD PTR _rctip$[ebp]
  00779	51		 push	 ecx
  0077a	8b 55 fc	 mov	 edx, DWORD PTR _this$[ebp]
  0077d	8b 8a 54 09 00
	00		 mov	 ecx, DWORD PTR [edx+2388]
  00783	e8 00 00 00 00	 call	 ?MoveWindow@CWnd@@QAEXPBUtagRECT@@H@Z ; CWnd::MoveWindow

; 101  : }

  00788	52		 push	 edx
  00789	8b cd		 mov	 ecx, ebp
  0078b	50		 push	 eax
  0078c	8d 15 00 00 00
	00		 lea	 edx, DWORD PTR $L194394
  00792	e8 00 00 00 00	 call	 @_RTC_CheckStackVars@8
  00797	58		 pop	 eax
  00798	5a		 pop	 edx
  00799	83 c4 1c	 add	 esp, 28			; 0000001cH
  0079c	3b ec		 cmp	 ebp, esp
  0079e	e8 00 00 00 00	 call	 __RTC_CheckEsp
  007a3	8b e5		 mov	 esp, ebp
  007a5	5d		 pop	 ebp
  007a6	c2 08 00	 ret	 8
$L194394:
  007a9	01 00 00 00	 DD	 1
  007ad	00 00 00 00	 DD	 $L194393
$L194393:
  007b1	e8 ff ff ff	 DD	 -24			; ffffffe8H
  007b5	10 00 00 00	 DD	 16			; 00000010H
  007b9	00 00 00 00	 DD	 $L194392
$L194392:
  007bd	72		 DB	 114			; 00000072H
  007be	63		 DB	 99			; 00000063H
  007bf	74		 DB	 116			; 00000074H
  007c0	69		 DB	 105			; 00000069H
  007c1	70		 DB	 112			; 00000070H
  007c2	00		 DB	 0
?OnMove@CMainSkinWnd@@QAEXHH@Z ENDP			; CMainSkinWnd::OnMove
_TEXT	ENDS
PUBLIC	?size@?$vector@PAVCSkinButton2@@V?$allocator@PAVCSkinButton2@@@std@@@std@@QBEIXZ ; std::vector<CSkinButton2 *,std::allocator<CSkinButton2 *> >::size
PUBLIC	??A?$vector@PAVCSkinButton2@@V?$allocator@PAVCSkinButton2@@@std@@@std@@QAEAAPAVCSkinButton2@@I@Z ; std::vector<CSkinButton2 *,std::allocator<CSkinButton2 *> >::operator[]
EXTRN	?AfxGetUIManager@@YAPAVIUIManager@@XZ:NEAR	; AfxGetUIManager
EXTRN	?AfxGetUserConfig@@YAPAVAfxUserConfig@@XZ:NEAR	; AfxGetUserConfig
EXTRN	__imp_??0?$basic_string@DU?$char_traits@D@std@@V?$allocator@D@2@@std@@QAE@PBD@Z:NEAR
EXTRN	?SetConfigIntValue@AfxUserConfig@@QAEXABV?$basic_string@DU?$char_traits@D@std@@V?$allocator@D@2@@std@@0H_N@Z:NEAR ; AfxUserConfig::SetConfigIntValue
EXTRN	__imp_??1?$basic_string@DU?$char_traits@D@std@@V?$allocator@D@2@@std@@QAE@XZ:NEAR
EXTRN	?SetCheck@CSkinButton2@@QAEXH@Z:NEAR		; CSkinButton2::SetCheck
EXTRN	?GetCheck@CSkinButton2@@QBEHXZ:NEAR		; CSkinButton2::GetCheck
EXTRN	?GetBKColor@CSkinButton2@@QBEKXZ:NEAR		; CSkinButton2::GetBKColor
EXTRN	__imp_?c_str@?$basic_string@DU?$char_traits@D@std@@V?$allocator@D@2@@std@@QBEPBDXZ:NEAR
EXTRN	__imp_??0?$CStringT@DV?$StrTraitMFC_DLL@DV?$ChTraitsCRT@D@ATL@@@@@ATL@@QAE@PBD@Z:NEAR
xdata$x	SEGMENT
$T194409 DD	0ffffffffH
	DD	FLAT:$L194402
	DD	0ffffffffH
	DD	FLAT:$L194404
	DD	01H
	DD	FLAT:$L194405
$T194407 DD	019930520H
	DD	03H
	DD	FLAT:$T194409
	DD	2 DUP(00H)
	DD	2 DUP(00H)
; Function compile flags: /Odt /RTCsu
xdata$x	ENDS
_TEXT	SEGMENT
tv254 = -152						; size = 4
tv248 = -148						; size = 4
tv303 = -144						; size = 4
tv236 = -140						; size = 4
tv231 = -136						; size = 4
tv300 = -132						; size = 4
tv306 = -128						; size = 4
tv298 = -124						; size = 4
tv187 = -120						; size = 4
tv182 = -116						; size = 4
tv162 = -112						; size = 4
tv157 = -108						; size = 4
tv151 = -104						; size = 4
tv146 = -100						; size = 4
$T194400 = -96						; size = 28
$T194399 = -68						; size = 28
$T194398 = -40						; size = 4
$T194397 = -36						; size = 4
$T194396 = -32						; size = 4
_s$192014 = -28						; size = 4
_col$192012 = -24					; size = 4
_i$192006 = -20						; size = 4
_this$ = -16						; size = 4
__$EHRec$ = -12						; size = 12
_nID$ = 8						; size = 4
?OnColor@CMainSkinWnd@@QAEXI@Z PROC NEAR		; CMainSkinWnd::OnColor
; _this$ = ecx

; 104  : {

  007d0	55		 push	 ebp
  007d1	8b ec		 mov	 ebp, esp
  007d3	6a ff		 push	 -1
  007d5	68 00 00 00 00	 push	 __ehhandler$?OnColor@CMainSkinWnd@@QAEXI@Z
  007da	64 a1 00 00 00
	00		 mov	 eax, DWORD PTR fs:__except_list
  007e0	50		 push	 eax
  007e1	64 89 25 00 00
	00 00		 mov	 DWORD PTR fs:__except_list, esp
  007e8	81 ec 8c 00 00
	00		 sub	 esp, 140		; 0000008cH
  007ee	56		 push	 esi
  007ef	57		 push	 edi
  007f0	51		 push	 ecx
  007f1	8d bd 68 ff ff
	ff		 lea	 edi, DWORD PTR [ebp-152]
  007f7	b9 23 00 00 00	 mov	 ecx, 35			; 00000023H
  007fc	b8 cc cc cc cc	 mov	 eax, -858993460		; ccccccccH
  00801	f3 ab		 rep stosd
  00803	59		 pop	 ecx
  00804	89 4d f0	 mov	 DWORD PTR _this$[ebp], ecx

; 105  : 	//if( nID-ID_CLO_BTN_BEGAIN == 0 ) return;
; 106  : 	if( m_colbtnVec.size() > 0 )

  00807	8b 4d f0	 mov	 ecx, DWORD PTR _this$[ebp]
  0080a	81 c1 e4 00 00
	00		 add	 ecx, 228		; 000000e4H
  00810	e8 00 00 00 00	 call	 ?size@?$vector@PAVCSkinButton2@@V?$allocator@PAVCSkinButton2@@@std@@@std@@QBEIXZ ; std::vector<CSkinButton2 *,std::allocator<CSkinButton2 *> >::size
  00815	85 c0		 test	 eax, eax
  00817	0f 86 95 03 00
	00		 jbe	 $L192004

; 107  : 	{
; 108  : 		for( int i=0; i<m_colbtnVec.size(); i++ )

  0081d	c7 45 ec 00 00
	00 00		 mov	 DWORD PTR _i$192006[ebp], 0
  00824	eb 09		 jmp	 SHORT $L192007
$L192008:
  00826	8b 45 ec	 mov	 eax, DWORD PTR _i$192006[ebp]
  00829	83 c0 01	 add	 eax, 1
  0082c	89 45 ec	 mov	 DWORD PTR _i$192006[ebp], eax
$L192007:
  0082f	8b 4d f0	 mov	 ecx, DWORD PTR _this$[ebp]
  00832	81 c1 e4 00 00
	00		 add	 ecx, 228		; 000000e4H
  00838	e8 00 00 00 00	 call	 ?size@?$vector@PAVCSkinButton2@@V?$allocator@PAVCSkinButton2@@@std@@@std@@QBEIXZ ; std::vector<CSkinButton2 *,std::allocator<CSkinButton2 *> >::size
  0083d	39 45 ec	 cmp	 DWORD PTR _i$192006[ebp], eax
  00840	73 3b		 jae	 SHORT $L192009

; 109  : 		{
; 110  : 			if( m_colbtnVec[i]->GetCheck() == 1 )

  00842	8b 4d ec	 mov	 ecx, DWORD PTR _i$192006[ebp]
  00845	51		 push	 ecx
  00846	8b 4d f0	 mov	 ecx, DWORD PTR _this$[ebp]
  00849	81 c1 e4 00 00
	00		 add	 ecx, 228		; 000000e4H
  0084f	e8 00 00 00 00	 call	 ??A?$vector@PAVCSkinButton2@@V?$allocator@PAVCSkinButton2@@@std@@@std@@QAEAAPAVCSkinButton2@@I@Z ; std::vector<CSkinButton2 *,std::allocator<CSkinButton2 *> >::operator[]
  00854	8b 08		 mov	 ecx, DWORD PTR [eax]
  00856	e8 00 00 00 00	 call	 ?GetCheck@CSkinButton2@@QBEHXZ ; CSkinButton2::GetCheck
  0085b	83 f8 01	 cmp	 eax, 1
  0085e	75 1b		 jne	 SHORT $L192010

; 111  : 				m_colbtnVec[i]->SetCheck(0);

  00860	6a 00		 push	 0
  00862	8b 55 ec	 mov	 edx, DWORD PTR _i$192006[ebp]
  00865	52		 push	 edx
  00866	8b 4d f0	 mov	 ecx, DWORD PTR _this$[ebp]
  00869	81 c1 e4 00 00
	00		 add	 ecx, 228		; 000000e4H
  0086f	e8 00 00 00 00	 call	 ??A?$vector@PAVCSkinButton2@@V?$allocator@PAVCSkinButton2@@@std@@@std@@QAEAAPAVCSkinButton2@@I@Z ; std::vector<CSkinButton2 *,std::allocator<CSkinButton2 *> >::operator[]
  00874	8b 08		 mov	 ecx, DWORD PTR [eax]
  00876	e8 00 00 00 00	 call	 ?SetCheck@CSkinButton2@@QAEXH@Z ; CSkinButton2::SetCheck
$L192010:

; 112  : 		}

  0087b	eb a9		 jmp	 SHORT $L192008
$L192009:

; 113  : 		if( m_colBtnMore.GetCheck() ) m_colBtnMore.SetCheck(0);

  0087d	8b 4d f0	 mov	 ecx, DWORD PTR _this$[ebp]
  00880	81 c1 cc 07 00
	00		 add	 ecx, 1996		; 000007ccH
  00886	e8 00 00 00 00	 call	 ?GetCheck@CSkinButton2@@QBEHXZ ; CSkinButton2::GetCheck
  0088b	85 c0		 test	 eax, eax
  0088d	74 10		 je	 SHORT $L192011
  0088f	6a 00		 push	 0
  00891	8b 4d f0	 mov	 ecx, DWORD PTR _this$[ebp]
  00894	81 c1 cc 07 00
	00		 add	 ecx, 1996		; 000007ccH
  0089a	e8 00 00 00 00	 call	 ?SetCheck@CSkinButton2@@QAEXH@Z ; CSkinButton2::SetCheck
$L192011:

; 114  : 
; 115  : 		m_colbtnVec[nID-ID_CLO_BTN_BEGAIN]->SetCheck(1);

  0089f	6a 01		 push	 1
  008a1	8b 45 08	 mov	 eax, DWORD PTR _nID$[ebp]
  008a4	2d 30 75 00 00	 sub	 eax, 30000		; 00007530H
  008a9	50		 push	 eax
  008aa	8b 4d f0	 mov	 ecx, DWORD PTR _this$[ebp]
  008ad	81 c1 e4 00 00
	00		 add	 ecx, 228		; 000000e4H
  008b3	e8 00 00 00 00	 call	 ??A?$vector@PAVCSkinButton2@@V?$allocator@PAVCSkinButton2@@@std@@@std@@QAEAAPAVCSkinButton2@@I@Z ; std::vector<CSkinButton2 *,std::allocator<CSkinButton2 *> >::operator[]
  008b8	8b 08		 mov	 ecx, DWORD PTR [eax]
  008ba	e8 00 00 00 00	 call	 ?SetCheck@CSkinButton2@@QAEXH@Z ; CSkinButton2::SetCheck

; 116  : 		COLORREF col = m_colbtnVec[nID-ID_CLO_BTN_BEGAIN]->GetBKColor();

  008bf	8b 4d 08	 mov	 ecx, DWORD PTR _nID$[ebp]
  008c2	81 e9 30 75 00
	00		 sub	 ecx, 30000		; 00007530H
  008c8	51		 push	 ecx
  008c9	8b 4d f0	 mov	 ecx, DWORD PTR _this$[ebp]
  008cc	81 c1 e4 00 00
	00		 add	 ecx, 228		; 000000e4H
  008d2	e8 00 00 00 00	 call	 ??A?$vector@PAVCSkinButton2@@V?$allocator@PAVCSkinButton2@@@std@@@std@@QAEAAPAVCSkinButton2@@I@Z ; std::vector<CSkinButton2 *,std::allocator<CSkinButton2 *> >::operator[]
  008d7	8b 08		 mov	 ecx, DWORD PTR [eax]
  008d9	e8 00 00 00 00	 call	 ?GetBKColor@CSkinButton2@@QBEKXZ ; CSkinButton2::GetBKColor
  008de	89 45 e8	 mov	 DWORD PTR _col$192012[ebp], eax

; 117  : 
; 118  : 		if( nID == ID_CLO_BTN_BEGAIN )

  008e1	81 7d 08 30 75
	00 00		 cmp	 DWORD PTR _nID$[ebp], 30000 ; 00007530H
  008e8	0f 85 11 02 00
	00		 jne	 $L192013

; 119  : 		{
; 120  : 			OneSubject* s = AfxGetUIManager()->UIGetSkinMgr()->GetCurSubject();

  008ee	e8 00 00 00 00	 call	 ?AfxGetUIManager@@YAPAVIUIManager@@XZ ; AfxGetUIManager
  008f3	89 45 9c	 mov	 DWORD PTR tv146[ebp], eax
  008f6	8b 55 9c	 mov	 edx, DWORD PTR tv146[ebp]
  008f9	8b 02		 mov	 eax, DWORD PTR [edx]
  008fb	8b f4		 mov	 esi, esp
  008fd	8b 4d 9c	 mov	 ecx, DWORD PTR tv146[ebp]
  00900	ff 50 28	 call	 DWORD PTR [eax+40]
  00903	3b f4		 cmp	 esi, esp
  00905	e8 00 00 00 00	 call	 __RTC_CheckEsp
  0090a	89 45 98	 mov	 DWORD PTR tv151[ebp], eax
  0090d	8b 4d 98	 mov	 ecx, DWORD PTR tv151[ebp]
  00910	8b 11		 mov	 edx, DWORD PTR [ecx]
  00912	8b f4		 mov	 esi, esp
  00914	8b 4d 98	 mov	 ecx, DWORD PTR tv151[ebp]
  00917	ff 52 28	 call	 DWORD PTR [edx+40]
  0091a	3b f4		 cmp	 esi, esp
  0091c	e8 00 00 00 00	 call	 __RTC_CheckEsp
  00921	89 45 e4	 mov	 DWORD PTR _s$192014[ebp], eax

; 121  : 
; 122  : 			if( AfxGetUIManager()->UIGetSkinMgr()->GetCurSubject() == NULL )

  00924	e8 00 00 00 00	 call	 ?AfxGetUIManager@@YAPAVIUIManager@@XZ ; AfxGetUIManager
  00929	89 45 94	 mov	 DWORD PTR tv157[ebp], eax
  0092c	8b 45 94	 mov	 eax, DWORD PTR tv157[ebp]
  0092f	8b 10		 mov	 edx, DWORD PTR [eax]
  00931	8b f4		 mov	 esi, esp
  00933	8b 4d 94	 mov	 ecx, DWORD PTR tv157[ebp]
  00936	ff 52 28	 call	 DWORD PTR [edx+40]
  00939	3b f4		 cmp	 esi, esp
  0093b	e8 00 00 00 00	 call	 __RTC_CheckEsp
  00940	89 45 90	 mov	 DWORD PTR tv162[ebp], eax
  00943	8b 45 90	 mov	 eax, DWORD PTR tv162[ebp]
  00946	8b 10		 mov	 edx, DWORD PTR [eax]
  00948	8b f4		 mov	 esi, esp
  0094a	8b 4d 90	 mov	 ecx, DWORD PTR tv162[ebp]
  0094d	ff 52 28	 call	 DWORD PTR [edx+40]
  00950	3b f4		 cmp	 esi, esp
  00952	e8 00 00 00 00	 call	 __RTC_CheckEsp
  00957	85 c0		 test	 eax, eax
  00959	75 5b		 jne	 SHORT $L192015

; 123  : 			{					 
; 124  : 				mp_EventListener->OnSendChangeSkin(AfxGetUIManager()->UIGetSkinMgr()->GetSkinPath());

  0095b	e8 00 00 00 00	 call	 ?AfxGetUIManager@@YAPAVIUIManager@@XZ ; AfxGetUIManager
  00960	89 45 8c	 mov	 DWORD PTR tv182[ebp], eax
  00963	8b f4		 mov	 esi, esp
  00965	8b 45 8c	 mov	 eax, DWORD PTR tv182[ebp]
  00968	8b 10		 mov	 edx, DWORD PTR [eax]
  0096a	8b 4d 8c	 mov	 ecx, DWORD PTR tv182[ebp]
  0096d	ff 52 28	 call	 DWORD PTR [edx+40]
  00970	3b f4		 cmp	 esi, esp
  00972	e8 00 00 00 00	 call	 __RTC_CheckEsp
  00977	89 45 88	 mov	 DWORD PTR tv187[ebp], eax
  0097a	51		 push	 ecx
  0097b	8b c4		 mov	 eax, esp
  0097d	89 65 e0	 mov	 DWORD PTR $T194396[ebp], esp
  00980	8b f4		 mov	 esi, esp
  00982	50		 push	 eax
  00983	8b 4d 88	 mov	 ecx, DWORD PTR tv187[ebp]
  00986	8b 11		 mov	 edx, DWORD PTR [ecx]
  00988	8b 4d 88	 mov	 ecx, DWORD PTR tv187[ebp]
  0098b	ff 52 40	 call	 DWORD PTR [edx+64]
  0098e	3b f4		 cmp	 esi, esp
  00990	e8 00 00 00 00	 call	 __RTC_CheckEsp
  00995	89 45 84	 mov	 DWORD PTR tv298[ebp], eax
  00998	8b 45 f0	 mov	 eax, DWORD PTR _this$[ebp]
  0099b	8b 88 dc 00 00
	00		 mov	 ecx, DWORD PTR [eax+220]
  009a1	8b 55 f0	 mov	 edx, DWORD PTR _this$[ebp]
  009a4	8b 82 dc 00 00
	00		 mov	 eax, DWORD PTR [edx+220]
  009aa	8b 11		 mov	 edx, DWORD PTR [ecx]
  009ac	8b c8		 mov	 ecx, eax
  009ae	ff 52 0c	 call	 DWORD PTR [edx+12]

; 125  : 			}
; 126  : 			else if( s != NULL && s->subColor == 0 )

  009b1	e9 47 01 00 00	 jmp	 $L192018
$L192015:
  009b6	83 7d e4 00	 cmp	 DWORD PTR _s$192014[ebp], 0
  009ba	0f 84 15 01 00
	00		 je	 $L192019
  009c0	8b 45 e4	 mov	 eax, DWORD PTR _s$192014[ebp]
  009c3	83 78 58 00	 cmp	 DWORD PTR [eax+88], 0
  009c7	0f 85 08 01 00
	00		 jne	 $L192019

; 127  : 			{
; 128  : 				mp_EventListener->OnSendChangeSubject(AfxGetUIManager()->UIGetSkinMgr()->GetSkinPath(),s->strSubName.c_str());

  009cd	8b 4d e4	 mov	 ecx, DWORD PTR _s$192014[ebp]
  009d0	83 c1 1c	 add	 ecx, 28			; 0000001cH
  009d3	8b f4		 mov	 esi, esp
  009d5	ff 15 00 00 00
	00		 call	 DWORD PTR __imp_?c_str@?$basic_string@DU?$char_traits@D@std@@V?$allocator@D@2@@std@@QBEPBDXZ
  009db	3b f4		 cmp	 esi, esp
  009dd	e8 00 00 00 00	 call	 __RTC_CheckEsp
  009e2	51		 push	 ecx
  009e3	8b cc		 mov	 ecx, esp
  009e5	89 65 dc	 mov	 DWORD PTR $T194397[ebp], esp
  009e8	8b f4		 mov	 esi, esp
  009ea	50		 push	 eax
  009eb	ff 15 00 00 00
	00		 call	 DWORD PTR __imp_??0?$CStringT@DV?$StrTraitMFC_DLL@DV?$ChTraitsCRT@D@ATL@@@@@ATL@@QAE@PBD@Z
  009f1	3b f4		 cmp	 esi, esp
  009f3	e8 00 00 00 00	 call	 __RTC_CheckEsp
  009f8	89 45 80	 mov	 DWORD PTR tv306[ebp], eax
  009fb	8b 4d 80	 mov	 ecx, DWORD PTR tv306[ebp]
  009fe	89 8d 7c ff ff
	ff		 mov	 DWORD PTR tv300[ebp], ecx
  00a04	c7 45 fc 00 00
	00 00		 mov	 DWORD PTR __$EHRec$[ebp+8], 0
  00a0b	e8 00 00 00 00	 call	 ?AfxGetUIManager@@YAPAVIUIManager@@XZ ; AfxGetUIManager
  00a10	89 85 78 ff ff
	ff		 mov	 DWORD PTR tv231[ebp], eax
  00a16	8b f4		 mov	 esi, esp
  00a18	8b 95 78 ff ff
	ff		 mov	 edx, DWORD PTR tv231[ebp]
  00a1e	8b 02		 mov	 eax, DWORD PTR [edx]
  00a20	8b 8d 78 ff ff
	ff		 mov	 ecx, DWORD PTR tv231[ebp]
  00a26	ff 50 28	 call	 DWORD PTR [eax+40]
  00a29	3b f4		 cmp	 esi, esp
  00a2b	e8 00 00 00 00	 call	 __RTC_CheckEsp
  00a30	89 85 74 ff ff
	ff		 mov	 DWORD PTR tv236[ebp], eax
  00a36	51		 push	 ecx
  00a37	8b cc		 mov	 ecx, esp
  00a39	89 65 d8	 mov	 DWORD PTR $T194398[ebp], esp
  00a3c	8b f4		 mov	 esi, esp
  00a3e	51		 push	 ecx
  00a3f	8b 95 74 ff ff
	ff		 mov	 edx, DWORD PTR tv236[ebp]
  00a45	8b 02		 mov	 eax, DWORD PTR [edx]
  00a47	8b 8d 74 ff ff
	ff		 mov	 ecx, DWORD PTR tv236[ebp]
  00a4d	ff 50 40	 call	 DWORD PTR [eax+64]
  00a50	3b f4		 cmp	 esi, esp
  00a52	e8 00 00 00 00	 call	 __RTC_CheckEsp
  00a57	89 85 70 ff ff
	ff		 mov	 DWORD PTR tv303[ebp], eax
  00a5d	8b 4d f0	 mov	 ecx, DWORD PTR _this$[ebp]
  00a60	8b 89 dc 00 00
	00		 mov	 ecx, DWORD PTR [ecx+220]
  00a66	8b 55 f0	 mov	 edx, DWORD PTR _this$[ebp]
  00a69	8b 82 dc 00 00
	00		 mov	 eax, DWORD PTR [edx+220]
  00a6f	8b 10		 mov	 edx, DWORD PTR [eax]
  00a71	c7 45 fc ff ff
	ff ff		 mov	 DWORD PTR __$EHRec$[ebp+8], -1
  00a78	ff 52 10	 call	 DWORD PTR [edx+16]

; 129  : 				AfxGetUIManager()->UIGetChangeColorMgr()->OnSendChangeColor( s->subColor,s->iLight ,false );

  00a7b	e8 00 00 00 00	 call	 ?AfxGetUIManager@@YAPAVIUIManager@@XZ ; AfxGetUIManager
  00a80	89 85 6c ff ff
	ff		 mov	 DWORD PTR tv248[ebp], eax
  00a86	8b f4		 mov	 esi, esp
  00a88	8b 85 6c ff ff
	ff		 mov	 eax, DWORD PTR tv248[ebp]
  00a8e	8b 10		 mov	 edx, DWORD PTR [eax]
  00a90	8b 8d 6c ff ff
	ff		 mov	 ecx, DWORD PTR tv248[ebp]
  00a96	ff 52 2c	 call	 DWORD PTR [edx+44]
  00a99	3b f4		 cmp	 esi, esp
  00a9b	e8 00 00 00 00	 call	 __RTC_CheckEsp
  00aa0	83 c0 04	 add	 eax, 4
  00aa3	89 85 68 ff ff
	ff		 mov	 DWORD PTR tv254[ebp], eax
  00aa9	8b f4		 mov	 esi, esp
  00aab	6a 00		 push	 0
  00aad	8b 45 e4	 mov	 eax, DWORD PTR _s$192014[ebp]
  00ab0	8b 48 5c	 mov	 ecx, DWORD PTR [eax+92]
  00ab3	51		 push	 ecx
  00ab4	8b 55 e4	 mov	 edx, DWORD PTR _s$192014[ebp]
  00ab7	8b 42 58	 mov	 eax, DWORD PTR [edx+88]
  00aba	50		 push	 eax
  00abb	8b 8d 68 ff ff
	ff		 mov	 ecx, DWORD PTR tv254[ebp]
  00ac1	8b 11		 mov	 edx, DWORD PTR [ecx]
  00ac3	8b 8d 68 ff ff
	ff		 mov	 ecx, DWORD PTR tv254[ebp]
  00ac9	ff 52 08	 call	 DWORD PTR [edx+8]
  00acc	3b f4		 cmp	 esi, esp
  00ace	e8 00 00 00 00	 call	 __RTC_CheckEsp

; 130  : 			}
; 131  : 			else

  00ad3	eb 28		 jmp	 SHORT $L192018
$L192019:

; 132  : 			{
; 133  : 				mp_EventListener->OnSendChangeColor(col,120,false );

  00ad5	8b f4		 mov	 esi, esp
  00ad7	6a 00		 push	 0
  00ad9	6a 78		 push	 120			; 00000078H
  00adb	8b 45 e8	 mov	 eax, DWORD PTR _col$192012[ebp]
  00ade	50		 push	 eax
  00adf	8b 4d f0	 mov	 ecx, DWORD PTR _this$[ebp]
  00ae2	8b 91 dc 00 00
	00		 mov	 edx, DWORD PTR [ecx+220]
  00ae8	8b 45 f0	 mov	 eax, DWORD PTR _this$[ebp]
  00aeb	8b 88 dc 00 00
	00		 mov	 ecx, DWORD PTR [eax+220]
  00af1	8b 12		 mov	 edx, DWORD PTR [edx]
  00af3	ff 52 08	 call	 DWORD PTR [edx+8]
  00af6	3b f4		 cmp	 esi, esp
  00af8	e8 00 00 00 00	 call	 __RTC_CheckEsp
$L192018:

; 134  : 			}
; 135  : 		}
; 136  : 		else

  00afd	eb 28		 jmp	 SHORT $L192024
$L192013:

; 137  : 		{
; 138  : 			mp_EventListener->OnSendChangeColor(col,120,true );

  00aff	8b f4		 mov	 esi, esp
  00b01	6a 01		 push	 1
  00b03	6a 78		 push	 120			; 00000078H
  00b05	8b 45 e8	 mov	 eax, DWORD PTR _col$192012[ebp]
  00b08	50		 push	 eax
  00b09	8b 4d f0	 mov	 ecx, DWORD PTR _this$[ebp]
  00b0c	8b 91 dc 00 00
	00		 mov	 edx, DWORD PTR [ecx+220]
  00b12	8b 45 f0	 mov	 eax, DWORD PTR _this$[ebp]
  00b15	8b 88 dc 00 00
	00		 mov	 ecx, DWORD PTR [eax+220]
  00b1b	8b 12		 mov	 edx, DWORD PTR [edx]
  00b1d	ff 52 08	 call	 DWORD PTR [edx+8]
  00b20	3b f4		 cmp	 esi, esp
  00b22	e8 00 00 00 00	 call	 __RTC_CheckEsp
$L192024:

; 139  : 		}
; 140  : 
; 141  : 		::AfxGetUserConfig()->SetConfigIntValue(CONF_SETTING_MODULE_NAME, CONF_SETTING_COLOR_BTN_INDEX,nID-ID_CLO_BTN_BEGAIN,true);

  00b27	8b f4		 mov	 esi, esp
  00b29	a1 00 00 00 00	 mov	 eax, DWORD PTR _CONF_SETTING_COLOR_BTN_INDEX
  00b2e	50		 push	 eax
  00b2f	8d 4d bc	 lea	 ecx, DWORD PTR $T194399[ebp]
  00b32	ff 15 00 00 00
	00		 call	 DWORD PTR __imp_??0?$basic_string@DU?$char_traits@D@std@@V?$allocator@D@2@@std@@QAE@PBD@Z
  00b38	3b f4		 cmp	 esi, esp
  00b3a	e8 00 00 00 00	 call	 __RTC_CheckEsp
  00b3f	c7 45 fc 01 00
	00 00		 mov	 DWORD PTR __$EHRec$[ebp+8], 1
  00b46	8b f4		 mov	 esi, esp
  00b48	8b 0d 00 00 00
	00		 mov	 ecx, DWORD PTR _CONF_SETTING_MODULE_NAME
  00b4e	51		 push	 ecx
  00b4f	8d 4d a0	 lea	 ecx, DWORD PTR $T194400[ebp]
  00b52	ff 15 00 00 00
	00		 call	 DWORD PTR __imp_??0?$basic_string@DU?$char_traits@D@std@@V?$allocator@D@2@@std@@QAE@PBD@Z
  00b58	3b f4		 cmp	 esi, esp
  00b5a	e8 00 00 00 00	 call	 __RTC_CheckEsp
  00b5f	c6 45 fc 02	 mov	 BYTE PTR __$EHRec$[ebp+8], 2
  00b63	6a 01		 push	 1
  00b65	8b 55 08	 mov	 edx, DWORD PTR _nID$[ebp]
  00b68	81 ea 30 75 00
	00		 sub	 edx, 30000		; 00007530H
  00b6e	52		 push	 edx
  00b6f	8d 45 bc	 lea	 eax, DWORD PTR $T194399[ebp]
  00b72	50		 push	 eax
  00b73	8d 4d a0	 lea	 ecx, DWORD PTR $T194400[ebp]
  00b76	51		 push	 ecx
  00b77	e8 00 00 00 00	 call	 ?AfxGetUserConfig@@YAPAVAfxUserConfig@@XZ ; AfxGetUserConfig
  00b7c	8b c8		 mov	 ecx, eax
  00b7e	e8 00 00 00 00	 call	 ?SetConfigIntValue@AfxUserConfig@@QAEXABV?$basic_string@DU?$char_traits@D@std@@V?$allocator@D@2@@std@@0H_N@Z ; AfxUserConfig::SetConfigIntValue
  00b83	c6 45 fc 01	 mov	 BYTE PTR __$EHRec$[ebp+8], 1
  00b87	8b f4		 mov	 esi, esp
  00b89	8d 4d a0	 lea	 ecx, DWORD PTR $T194400[ebp]
  00b8c	ff 15 00 00 00
	00		 call	 DWORD PTR __imp_??1?$basic_string@DU?$char_traits@D@std@@V?$allocator@D@2@@std@@QAE@XZ
  00b92	3b f4		 cmp	 esi, esp
  00b94	e8 00 00 00 00	 call	 __RTC_CheckEsp
  00b99	c7 45 fc ff ff
	ff ff		 mov	 DWORD PTR __$EHRec$[ebp+8], -1
  00ba0	8b f4		 mov	 esi, esp
  00ba2	8d 4d bc	 lea	 ecx, DWORD PTR $T194399[ebp]
  00ba5	ff 15 00 00 00
	00		 call	 DWORD PTR __imp_??1?$basic_string@DU?$char_traits@D@std@@V?$allocator@D@2@@std@@QAE@XZ
  00bab	3b f4		 cmp	 esi, esp
  00bad	e8 00 00 00 00	 call	 __RTC_CheckEsp
$L192004:

; 142  : 	}
; 143  : }

  00bb2	8b 4d f4	 mov	 ecx, DWORD PTR __$EHRec$[ebp]
  00bb5	64 89 0d 00 00
	00 00		 mov	 DWORD PTR fs:__except_list, ecx
  00bbc	5f		 pop	 edi
  00bbd	5e		 pop	 esi
  00bbe	81 c4 98 00 00
	00		 add	 esp, 152		; 00000098H
  00bc4	3b ec		 cmp	 ebp, esp
  00bc6	e8 00 00 00 00	 call	 __RTC_CheckEsp
  00bcb	8b e5		 mov	 esp, ebp
  00bcd	5d		 pop	 ebp
  00bce	c2 04 00	 ret	 4
_TEXT	ENDS
text$x	SEGMENT
$L194402:
  0017c	8b f4		 mov	 esi, esp
  0017e	8b 4d dc	 mov	 ecx, DWORD PTR $T194397[ebp]
  00181	ff 15 00 00 00
	00		 call	 DWORD PTR __imp_??1?$CStringT@DV?$StrTraitMFC_DLL@DV?$ChTraitsCRT@D@ATL@@@@@ATL@@QAE@XZ
  00187	3b f4		 cmp	 esi, esp
  00189	e9 00 00 00 00	 jmp	 __RTC_CheckEsp
$L194404:
  0018e	8b f4		 mov	 esi, esp
  00190	8d 4d bc	 lea	 ecx, DWORD PTR $T194399[ebp]
  00193	ff 15 00 00 00
	00		 call	 DWORD PTR __imp_??1?$basic_string@DU?$char_traits@D@std@@V?$allocator@D@2@@std@@QAE@XZ
  00199	3b f4		 cmp	 esi, esp
  0019b	e9 00 00 00 00	 jmp	 __RTC_CheckEsp
$L194405:
  001a0	8b f4		 mov	 esi, esp
  001a2	8d 4d a0	 lea	 ecx, DWORD PTR $T194400[ebp]
  001a5	ff 15 00 00 00
	00		 call	 DWORD PTR __imp_??1?$basic_string@DU?$char_traits@D@std@@V?$allocator@D@2@@std@@QAE@XZ
  001ab	3b f4		 cmp	 esi, esp
  001ad	e9 00 00 00 00	 jmp	 __RTC_CheckEsp
__ehhandler$?OnColor@CMainSkinWnd@@QAEXI@Z:
  001b2	b8 00 00 00 00	 mov	 eax, OFFSET FLAT:$T194407
  001b7	e9 00 00 00 00	 jmp	 ___CxxFrameHandler
text$x	ENDS
?OnColor@CMainSkinWnd@@QAEXI@Z ENDP			; CMainSkinWnd::OnColor
PUBLIC	?push_back@?$vector@PAVCSkinButton2@@V?$allocator@PAVCSkinButton2@@@std@@@std@@QAEXABQAVCSkinButton2@@@Z ; std::vector<CSkinButton2 *,std::allocator<CSkinButton2 *> >::push_back
PUBLIC	??0?$vector@KV?$allocator@K@std@@@std@@QAE@XZ	; std::vector<unsigned long,std::allocator<unsigned long> >::vector<unsigned long,std::allocator<unsigned long> >
PUBLIC	??1?$vector@KV?$allocator@K@std@@@std@@QAE@XZ	; std::vector<unsigned long,std::allocator<unsigned long> >::~vector<unsigned long,std::allocator<unsigned long> >
PUBLIC	??A?$vector@KV?$allocator@K@std@@@std@@QAEAAKI@Z ; std::vector<unsigned long,std::allocator<unsigned long> >::operator[]
PUBLIC	?push_back@?$vector@KV?$allocator@K@std@@@std@@QAEXABK@Z ; std::vector<unsigned long,std::allocator<unsigned long> >::push_back
PUBLIC	__real@3fdccccccccccccd
PUBLIC	__real@3fe0000000000000
PUBLIC	__real@3fe3555555555555
PUBLIC	__real@3fdc28f5c28f5c29
PUBLIC	__real@3fe3333333333333
PUBLIC	__real@3feacccccccccccd
PUBLIC	__real@3fee000000000000
PUBLIC	__real@3fd3333333333333
PUBLIC	__real@3fd7bbbbbbbbbbbc
PUBLIC	__real@3f9999999999999a
PUBLIC	__real@3fc0000000000000
PUBLIC	__real@3fd6666666666666
PUBLIC	__real@3fdd555555555555
PUBLIC	__real@3fb3333333333333
EXTRN	?gBitMapOperate@@3VCBitMapOperate@@A:BYTE	; gBitMapOperate
EXTRN	?PreCreateWindow@CFrameWnd@@MAEHAAUtagCREATESTRUCTA@@@Z:NEAR ; CFrameWnd::PreCreateWindow
EXTRN	?HLStoRGB@CBitMapOperate@@QAEKABN00@Z:NEAR	; CBitMapOperate::HLStoRGB
EXTRN	?SetBKColor@CSkinButton2@@QAEXEEEE@Z:NEAR	; CSkinButton2::SetBKColor
EXTRN	__fltused:NEAR
xdata$x	SEGMENT
$T194490 DD	0ffffffffH
	DD	FLAT:$L194443
	DD	00H
	DD	FLAT:$L194444
$T194446 DD	019930520H
	DD	02H
	DD	FLAT:$T194490
	DD	2 DUP(00H)
	DD	2 DUP(00H)
xdata$x	ENDS
;	COMDAT __real@3fdccccccccccccd
CONST	SEGMENT
__real@3fdccccccccccccd DQ 03fdccccccccccccdr	; 0.45
CONST	ENDS
;	COMDAT __real@3fe0000000000000
CONST	SEGMENT
__real@3fe0000000000000 DQ 03fe0000000000000r	; 0.5
CONST	ENDS
;	COMDAT __real@3fe3555555555555
CONST	SEGMENT
__real@3fe3555555555555 DQ 03fe3555555555555r	; 0.604167
CONST	ENDS
;	COMDAT __real@3fdc28f5c28f5c29
CONST	SEGMENT
__real@3fdc28f5c28f5c29 DQ 03fdc28f5c28f5c29r	; 0.44
CONST	ENDS
;	COMDAT __real@3fe3333333333333
CONST	SEGMENT
__real@3fe3333333333333 DQ 03fe3333333333333r	; 0.6
CONST	ENDS
;	COMDAT __real@3feacccccccccccd
CONST	SEGMENT
__real@3feacccccccccccd DQ 03feacccccccccccdr	; 0.8375
CONST	ENDS
;	COMDAT __real@3fee000000000000
CONST	SEGMENT
__real@3fee000000000000 DQ 03fee000000000000r	; 0.9375
CONST	ENDS
;	COMDAT __real@3fd3333333333333
CONST	SEGMENT
__real@3fd3333333333333 DQ 03fd3333333333333r	; 0.3
CONST	ENDS
;	COMDAT __real@3fd7bbbbbbbbbbbc
CONST	SEGMENT
__real@3fd7bbbbbbbbbbbc DQ 03fd7bbbbbbbbbbbcr	; 0.370833
CONST	ENDS
;	COMDAT __real@3f9999999999999a
CONST	SEGMENT
__real@3f9999999999999a DQ 03f9999999999999ar	; 0.025
CONST	ENDS
;	COMDAT __real@3fc0000000000000
CONST	SEGMENT
__real@3fc0000000000000 DQ 03fc0000000000000r	; 0.125
CONST	ENDS
;	COMDAT __real@3fd6666666666666
CONST	SEGMENT
__real@3fd6666666666666 DQ 03fd6666666666666r	; 0.35
CONST	ENDS
;	COMDAT __real@3fdd555555555555
CONST	SEGMENT
__real@3fdd555555555555 DQ 03fdd555555555555r	; 0.458333
CONST	ENDS
;	COMDAT __real@3fb3333333333333
CONST	SEGMENT
__real@3fb3333333333333 DQ 03fb3333333333333r	; 0.075
; Function compile flags: /Odt /RTCsu
CONST	ENDS
_TEXT	SEGMENT
tv236 = -416						; size = 4
tv88 = -412						; size = 4
tv83 = -408						; size = 4
tv75 = -404						; size = 4
tv70 = -400						; size = 4
$T194442 = -396						; size = 4
$T194439 = -392						; size = 4
$T194438 = -388						; size = 4
$T194437 = -384						; size = 8
$T194436 = -376						; size = 8
$T194435 = -368						; size = 8
$T194434 = -360						; size = 8
$T194433 = -352						; size = 8
$T194432 = -344						; size = 8
$T194431 = -336						; size = 8
$T194430 = -328						; size = 8
$T194429 = -320						; size = 8
$T194428 = -312						; size = 8
$T194427 = -304						; size = 8
$T194426 = -296						; size = 8
$T194425 = -288						; size = 8
$T194424 = -280						; size = 8
$T194423 = -272						; size = 8
$T194422 = -264						; size = 8
$T194421 = -256						; size = 8
$T194420 = -248						; size = 8
$T194419 = -240						; size = 8
$T194418 = -232						; size = 8
$T194417 = -224						; size = 8
$T194416 = -216						; size = 8
$T194415 = -208						; size = 8
$T194414 = -200						; size = 8
$T194413 = -192						; size = 8
$T194412 = -184						; size = 8
$T194411 = -176						; size = 8
_pBtn$192347 = -164					; size = 4
_i$192343 = -156					; size = 4
_colV$ = -148						; size = 16
_col9$ = -124						; size = 4
_col8$ = -112						; size = 4
_col7$ = -100						; size = 4
_col6$ = -88						; size = 4
_col5$ = -76						; size = 4
_col4$ = -64						; size = 4
_col3$ = -52						; size = 4
_col2$ = -40						; size = 4
_pCurSub$ = -32						; size = 4
_col1$ = -24						; size = 4
_this$ = -16						; size = 4
__$EHRec$ = -12						; size = 12
_cs$ = 8						; size = 4
?PreCreateWindow@CMainSkinWnd@@MAEHAAUtagCREATESTRUCTA@@@Z PROC NEAR ; CMainSkinWnd::PreCreateWindow
; _this$ = ecx

; 148  : {

  00be0	55		 push	 ebp
  00be1	8b ec		 mov	 ebp, esp
  00be3	6a ff		 push	 -1
  00be5	68 00 00 00 00	 push	 __ehhandler$?PreCreateWindow@CMainSkinWnd@@MAEHAAUtagCREATESTRUCTA@@@Z
  00bea	64 a1 00 00 00
	00		 mov	 eax, DWORD PTR fs:__except_list
  00bf0	50		 push	 eax
  00bf1	64 89 25 00 00
	00 00		 mov	 DWORD PTR fs:__except_list, esp
  00bf8	81 ec 94 01 00
	00		 sub	 esp, 404		; 00000194H
  00bfe	56		 push	 esi
  00bff	57		 push	 edi
  00c00	51		 push	 ecx
  00c01	8d bd 60 fe ff
	ff		 lea	 edi, DWORD PTR [ebp-416]
  00c07	b9 65 00 00 00	 mov	 ecx, 101		; 00000065H
  00c0c	b8 cc cc cc cc	 mov	 eax, -858993460		; ccccccccH
  00c11	f3 ab		 rep stosd
  00c13	59		 pop	 ecx
  00c14	89 4d f0	 mov	 DWORD PTR _this$[ebp], ecx

; 149  : 	cs.style=WS_POPUP;     

  00c17	8b 45 08	 mov	 eax, DWORD PTR _cs$[ebp]
  00c1a	c7 40 20 00 00
	00 80		 mov	 DWORD PTR [eax+32], -2147483648 ; 80000000H

; 150  : 	cs.dwExStyle|=WS_EX_TOOLWINDOW; 	

  00c21	8b 4d 08	 mov	 ecx, DWORD PTR _cs$[ebp]
  00c24	8b 51 2c	 mov	 edx, DWORD PTR [ecx+44]
  00c27	81 ca 80 00 00
	00		 or	 edx, 128		; 00000080H
  00c2d	8b 45 08	 mov	 eax, DWORD PTR _cs$[ebp]
  00c30	89 50 2c	 mov	 DWORD PTR [eax+44], edx

; 151  : 
; 152  : 	COLORREF col1;
; 153  : 	OneSubject* pCurSub = AfxGetUIManager()->UIGetSkinMgr()->GetCurSubject();

  00c33	e8 00 00 00 00	 call	 ?AfxGetUIManager@@YAPAVIUIManager@@XZ ; AfxGetUIManager
  00c38	89 85 70 fe ff
	ff		 mov	 DWORD PTR tv70[ebp], eax
  00c3e	8b 8d 70 fe ff
	ff		 mov	 ecx, DWORD PTR tv70[ebp]
  00c44	8b 11		 mov	 edx, DWORD PTR [ecx]
  00c46	8b f4		 mov	 esi, esp
  00c48	8b 8d 70 fe ff
	ff		 mov	 ecx, DWORD PTR tv70[ebp]
  00c4e	ff 52 28	 call	 DWORD PTR [edx+40]
  00c51	3b f4		 cmp	 esi, esp
  00c53	e8 00 00 00 00	 call	 __RTC_CheckEsp
  00c58	89 85 6c fe ff
	ff		 mov	 DWORD PTR tv75[ebp], eax
  00c5e	8b 85 6c fe ff
	ff		 mov	 eax, DWORD PTR tv75[ebp]
  00c64	8b 10		 mov	 edx, DWORD PTR [eax]
  00c66	8b f4		 mov	 esi, esp
  00c68	8b 8d 6c fe ff
	ff		 mov	 ecx, DWORD PTR tv75[ebp]
  00c6e	ff 52 28	 call	 DWORD PTR [edx+40]
  00c71	3b f4		 cmp	 esi, esp
  00c73	e8 00 00 00 00	 call	 __RTC_CheckEsp
  00c78	89 45 e0	 mov	 DWORD PTR _pCurSub$[ebp], eax

; 154  : 	if( pCurSub != NULL )

  00c7b	83 7d e0 00	 cmp	 DWORD PTR _pCurSub$[ebp], 0
  00c7f	74 0b		 je	 SHORT $L192033

; 155  : 	{
; 156  : 		col1 = pCurSub->subColor;

  00c81	8b 45 e0	 mov	 eax, DWORD PTR _pCurSub$[ebp]
  00c84	8b 48 58	 mov	 ecx, DWORD PTR [eax+88]
  00c87	89 4d e8	 mov	 DWORD PTR _col1$[ebp], ecx

; 157  : 	}
; 158  : 	else

  00c8a	eb 4b		 jmp	 SHORT $L192034
$L192033:

; 159  : 	{
; 160  : 		col1 = AfxGetUIManager()->UIGetLayoutMgr()->GetSkinColor();

  00c8c	e8 00 00 00 00	 call	 ?AfxGetUIManager@@YAPAVIUIManager@@XZ ; AfxGetUIManager
  00c91	89 85 68 fe ff
	ff		 mov	 DWORD PTR tv83[ebp], eax
  00c97	8b 95 68 fe ff
	ff		 mov	 edx, DWORD PTR tv83[ebp]
  00c9d	8b 02		 mov	 eax, DWORD PTR [edx]
  00c9f	8b f4		 mov	 esi, esp
  00ca1	8b 8d 68 fe ff
	ff		 mov	 ecx, DWORD PTR tv83[ebp]
  00ca7	ff 50 24	 call	 DWORD PTR [eax+36]
  00caa	3b f4		 cmp	 esi, esp
  00cac	e8 00 00 00 00	 call	 __RTC_CheckEsp
  00cb1	89 85 64 fe ff
	ff		 mov	 DWORD PTR tv88[ebp], eax
  00cb7	8b 8d 64 fe ff
	ff		 mov	 ecx, DWORD PTR tv88[ebp]
  00cbd	8b 11		 mov	 edx, DWORD PTR [ecx]
  00cbf	8b f4		 mov	 esi, esp
  00cc1	8b 8d 64 fe ff
	ff		 mov	 ecx, DWORD PTR tv88[ebp]
  00cc7	ff 92 8c 00 00
	00		 call	 DWORD PTR [edx+140]
  00ccd	3b f4		 cmp	 esi, esp
  00ccf	e8 00 00 00 00	 call	 __RTC_CheckEsp
  00cd4	89 45 e8	 mov	 DWORD PTR _col1$[ebp], eax
$L192034:

; 161  : 	}
; 162  : 
; 163  : 
; 164  : 	if( col1 == 0 )

  00cd7	83 7d e8 00	 cmp	 DWORD PTR _col1$[ebp], 0
  00cdb	75 46		 jne	 SHORT $L192035

; 165  : 	{
; 166  : 		col1 = gBitMapOperate.HLStoRGB( ((double)145)/240  ,((double)50)/100,((double)45)/100 );

  00cdd	dd 05 00 00 00
	00		 fld	 QWORD PTR __real@3fdccccccccccccd
  00ce3	dd 9d 50 ff ff
	ff		 fstp	 QWORD PTR $T194411[ebp]
  00ce9	dd 05 00 00 00
	00		 fld	 QWORD PTR __real@3fe0000000000000
  00cef	dd 9d 48 ff ff
	ff		 fstp	 QWORD PTR $T194412[ebp]
  00cf5	dd 05 00 00 00
	00		 fld	 QWORD PTR __real@3fe3555555555555
  00cfb	dd 9d 40 ff ff
	ff		 fstp	 QWORD PTR $T194413[ebp]
  00d01	8d 85 50 ff ff
	ff		 lea	 eax, DWORD PTR $T194411[ebp]
  00d07	50		 push	 eax
  00d08	8d 8d 48 ff ff
	ff		 lea	 ecx, DWORD PTR $T194412[ebp]
  00d0e	51		 push	 ecx
  00d0f	8d 95 40 ff ff
	ff		 lea	 edx, DWORD PTR $T194413[ebp]
  00d15	52		 push	 edx
  00d16	b9 00 00 00 00	 mov	 ecx, OFFSET FLAT:?gBitMapOperate@@3VCBitMapOperate@@A
  00d1b	e8 00 00 00 00	 call	 ?HLStoRGB@CBitMapOperate@@QAEKABN00@Z ; CBitMapOperate::HLStoRGB
  00d20	89 45 e8	 mov	 DWORD PTR _col1$[ebp], eax
$L192035:

; 167  : 	}
; 168  : 
; 169  : 	COLORREF col2 = gBitMapOperate.HLStoRGB( ((double)201)/240 ,((double)60)/100,((double)44)/100 );

  00d23	dd 05 00 00 00
	00		 fld	 QWORD PTR __real@3fdc28f5c28f5c29
  00d29	dd 9d 38 ff ff
	ff		 fstp	 QWORD PTR $T194414[ebp]
  00d2f	dd 05 00 00 00
	00		 fld	 QWORD PTR __real@3fe3333333333333
  00d35	dd 9d 30 ff ff
	ff		 fstp	 QWORD PTR $T194415[ebp]
  00d3b	dd 05 00 00 00
	00		 fld	 QWORD PTR __real@3feacccccccccccd
  00d41	dd 9d 28 ff ff
	ff		 fstp	 QWORD PTR $T194416[ebp]
  00d47	8d 85 38 ff ff
	ff		 lea	 eax, DWORD PTR $T194414[ebp]
  00d4d	50		 push	 eax
  00d4e	8d 8d 30 ff ff
	ff		 lea	 ecx, DWORD PTR $T194415[ebp]
  00d54	51		 push	 ecx
  00d55	8d 95 28 ff ff
	ff		 lea	 edx, DWORD PTR $T194416[ebp]
  00d5b	52		 push	 edx
  00d5c	b9 00 00 00 00	 mov	 ecx, OFFSET FLAT:?gBitMapOperate@@3VCBitMapOperate@@A
  00d61	e8 00 00 00 00	 call	 ?HLStoRGB@CBitMapOperate@@QAEKABN00@Z ; CBitMapOperate::HLStoRGB
  00d66	89 45 d8	 mov	 DWORD PTR _col2$[ebp], eax

; 170  : 	COLORREF col3 = gBitMapOperate.HLStoRGB( ((double)225)/240   ,((double)50)/100,((double)50)/100 );

  00d69	dd 05 00 00 00
	00		 fld	 QWORD PTR __real@3fe0000000000000
  00d6f	dd 9d 20 ff ff
	ff		 fstp	 QWORD PTR $T194417[ebp]
  00d75	dd 05 00 00 00
	00		 fld	 QWORD PTR __real@3fe0000000000000
  00d7b	dd 9d 18 ff ff
	ff		 fstp	 QWORD PTR $T194418[ebp]
  00d81	dd 05 00 00 00
	00		 fld	 QWORD PTR __real@3fee000000000000
  00d87	dd 9d 10 ff ff
	ff		 fstp	 QWORD PTR $T194419[ebp]
  00d8d	8d 85 20 ff ff
	ff		 lea	 eax, DWORD PTR $T194417[ebp]
  00d93	50		 push	 eax
  00d94	8d 8d 18 ff ff
	ff		 lea	 ecx, DWORD PTR $T194418[ebp]
  00d9a	51		 push	 ecx
  00d9b	8d 95 10 ff ff
	ff		 lea	 edx, DWORD PTR $T194419[ebp]
  00da1	52		 push	 edx
  00da2	b9 00 00 00 00	 mov	 ecx, OFFSET FLAT:?gBitMapOperate@@3VCBitMapOperate@@A
  00da7	e8 00 00 00 00	 call	 ?HLStoRGB@CBitMapOperate@@QAEKABN00@Z ; CBitMapOperate::HLStoRGB
  00dac	89 45 cc	 mov	 DWORD PTR _col3$[ebp], eax

; 171  : 	COLORREF col4 = gBitMapOperate.HLStoRGB( ((double)89)/240  ,((double)60)/100,((double)30)/100 );

  00daf	dd 05 00 00 00
	00		 fld	 QWORD PTR __real@3fd3333333333333
  00db5	dd 9d 08 ff ff
	ff		 fstp	 QWORD PTR $T194420[ebp]
  00dbb	dd 05 00 00 00
	00		 fld	 QWORD PTR __real@3fe3333333333333
  00dc1	dd 9d 00 ff ff
	ff		 fstp	 QWORD PTR $T194421[ebp]
  00dc7	dd 05 00 00 00
	00		 fld	 QWORD PTR __real@3fd7bbbbbbbbbbbc
  00dcd	dd 9d f8 fe ff
	ff		 fstp	 QWORD PTR $T194422[ebp]
  00dd3	8d 85 08 ff ff
	ff		 lea	 eax, DWORD PTR $T194420[ebp]
  00dd9	50		 push	 eax
  00dda	8d 8d 00 ff ff
	ff		 lea	 ecx, DWORD PTR $T194421[ebp]
  00de0	51		 push	 ecx
  00de1	8d 95 f8 fe ff
	ff		 lea	 edx, DWORD PTR $T194422[ebp]
  00de7	52		 push	 edx
  00de8	b9 00 00 00 00	 mov	 ecx, OFFSET FLAT:?gBitMapOperate@@3VCBitMapOperate@@A
  00ded	e8 00 00 00 00	 call	 ?HLStoRGB@CBitMapOperate@@QAEKABN00@Z ; CBitMapOperate::HLStoRGB
  00df2	89 45 c0	 mov	 DWORD PTR _col4$[ebp], eax

; 172  : 	COLORREF col5 = gBitMapOperate.HLStoRGB( ((double)6)/240   ,((double)60)/100,((double)45)/100 );

  00df5	dd 05 00 00 00
	00		 fld	 QWORD PTR __real@3fdccccccccccccd
  00dfb	dd 9d f0 fe ff
	ff		 fstp	 QWORD PTR $T194423[ebp]
  00e01	dd 05 00 00 00
	00		 fld	 QWORD PTR __real@3fe3333333333333
  00e07	dd 9d e8 fe ff
	ff		 fstp	 QWORD PTR $T194424[ebp]
  00e0d	dd 05 00 00 00
	00		 fld	 QWORD PTR __real@3f9999999999999a
  00e13	dd 9d e0 fe ff
	ff		 fstp	 QWORD PTR $T194425[ebp]
  00e19	8d 85 f0 fe ff
	ff		 lea	 eax, DWORD PTR $T194423[ebp]
  00e1f	50		 push	 eax
  00e20	8d 8d e8 fe ff
	ff		 lea	 ecx, DWORD PTR $T194424[ebp]
  00e26	51		 push	 ecx
  00e27	8d 95 e0 fe ff
	ff		 lea	 edx, DWORD PTR $T194425[ebp]
  00e2d	52		 push	 edx
  00e2e	b9 00 00 00 00	 mov	 ecx, OFFSET FLAT:?gBitMapOperate@@3VCBitMapOperate@@A
  00e33	e8 00 00 00 00	 call	 ?HLStoRGB@CBitMapOperate@@QAEKABN00@Z ; CBitMapOperate::HLStoRGB
  00e38	89 45 b4	 mov	 DWORD PTR _col5$[ebp], eax

; 173  : 	COLORREF col6 = gBitMapOperate.HLStoRGB( ((double)30)/240   ,((double)50)/100,((double)50)/100 );

  00e3b	dd 05 00 00 00
	00		 fld	 QWORD PTR __real@3fe0000000000000
  00e41	dd 9d d8 fe ff
	ff		 fstp	 QWORD PTR $T194426[ebp]
  00e47	dd 05 00 00 00
	00		 fld	 QWORD PTR __real@3fe0000000000000
  00e4d	dd 9d d0 fe ff
	ff		 fstp	 QWORD PTR $T194427[ebp]
  00e53	dd 05 00 00 00
	00		 fld	 QWORD PTR __real@3fc0000000000000
  00e59	dd 9d c8 fe ff
	ff		 fstp	 QWORD PTR $T194428[ebp]
  00e5f	8d 85 d8 fe ff
	ff		 lea	 eax, DWORD PTR $T194426[ebp]
  00e65	50		 push	 eax
  00e66	8d 8d d0 fe ff
	ff		 lea	 ecx, DWORD PTR $T194427[ebp]
  00e6c	51		 push	 ecx
  00e6d	8d 95 c8 fe ff
	ff		 lea	 edx, DWORD PTR $T194428[ebp]
  00e73	52		 push	 edx
  00e74	b9 00 00 00 00	 mov	 ecx, OFFSET FLAT:?gBitMapOperate@@3VCBitMapOperate@@A
  00e79	e8 00 00 00 00	 call	 ?HLStoRGB@CBitMapOperate@@QAEKABN00@Z ; CBitMapOperate::HLStoRGB
  00e7e	89 45 a8	 mov	 DWORD PTR _col6$[ebp], eax

; 174  : 	COLORREF col7 = gBitMapOperate.HLStoRGB( ((double)110)/240  ,((double)60)/100,((double)35)/100 );

  00e81	dd 05 00 00 00
	00		 fld	 QWORD PTR __real@3fd6666666666666
  00e87	dd 9d c0 fe ff
	ff		 fstp	 QWORD PTR $T194429[ebp]
  00e8d	dd 05 00 00 00
	00		 fld	 QWORD PTR __real@3fe3333333333333
  00e93	dd 9d b8 fe ff
	ff		 fstp	 QWORD PTR $T194430[ebp]
  00e99	dd 05 00 00 00
	00		 fld	 QWORD PTR __real@3fdd555555555555
  00e9f	dd 9d b0 fe ff
	ff		 fstp	 QWORD PTR $T194431[ebp]
  00ea5	8d 85 c0 fe ff
	ff		 lea	 eax, DWORD PTR $T194429[ebp]
  00eab	50		 push	 eax
  00eac	8d 8d b8 fe ff
	ff		 lea	 ecx, DWORD PTR $T194430[ebp]
  00eb2	51		 push	 ecx
  00eb3	8d 95 b0 fe ff
	ff		 lea	 edx, DWORD PTR $T194431[ebp]
  00eb9	52		 push	 edx
  00eba	b9 00 00 00 00	 mov	 ecx, OFFSET FLAT:?gBitMapOperate@@3VCBitMapOperate@@A
  00ebf	e8 00 00 00 00	 call	 ?HLStoRGB@CBitMapOperate@@QAEKABN00@Z ; CBitMapOperate::HLStoRGB
  00ec4	89 45 9c	 mov	 DWORD PTR _col7$[ebp], eax

; 175  : 	COLORREF col8 = gBitMapOperate.HLStoRGB( ((double)145)/240  ,((double)50)/100,((double)45)/100 );

  00ec7	dd 05 00 00 00
	00		 fld	 QWORD PTR __real@3fdccccccccccccd
  00ecd	dd 9d a8 fe ff
	ff		 fstp	 QWORD PTR $T194432[ebp]
  00ed3	dd 05 00 00 00
	00		 fld	 QWORD PTR __real@3fe0000000000000
  00ed9	dd 9d a0 fe ff
	ff		 fstp	 QWORD PTR $T194433[ebp]
  00edf	dd 05 00 00 00
	00		 fld	 QWORD PTR __real@3fe3555555555555
  00ee5	dd 9d 98 fe ff
	ff		 fstp	 QWORD PTR $T194434[ebp]
  00eeb	8d 85 a8 fe ff
	ff		 lea	 eax, DWORD PTR $T194432[ebp]
  00ef1	50		 push	 eax
  00ef2	8d 8d a0 fe ff
	ff		 lea	 ecx, DWORD PTR $T194433[ebp]
  00ef8	51		 push	 ecx
  00ef9	8d 95 98 fe ff
	ff		 lea	 edx, DWORD PTR $T194434[ebp]
  00eff	52		 push	 edx
  00f00	b9 00 00 00 00	 mov	 ecx, OFFSET FLAT:?gBitMapOperate@@3VCBitMapOperate@@A
  00f05	e8 00 00 00 00	 call	 ?HLStoRGB@CBitMapOperate@@QAEKABN00@Z ; CBitMapOperate::HLStoRGB
  00f0a	89 45 90	 mov	 DWORD PTR _col8$[ebp], eax

; 176  : 	COLORREF col9  = gBitMapOperate.HLStoRGB(((double)18)/240   ,((double)50)/100,((double)50)/100 );

  00f0d	dd 05 00 00 00
	00		 fld	 QWORD PTR __real@3fe0000000000000
  00f13	dd 9d 90 fe ff
	ff		 fstp	 QWORD PTR $T194435[ebp]
  00f19	dd 05 00 00 00
	00		 fld	 QWORD PTR __real@3fe0000000000000
  00f1f	dd 9d 88 fe ff
	ff		 fstp	 QWORD PTR $T194436[ebp]
  00f25	dd 05 00 00 00
	00		 fld	 QWORD PTR __real@3fb3333333333333
  00f2b	dd 9d 80 fe ff
	ff		 fstp	 QWORD PTR $T194437[ebp]
  00f31	8d 85 90 fe ff
	ff		 lea	 eax, DWORD PTR $T194435[ebp]
  00f37	50		 push	 eax
  00f38	8d 8d 88 fe ff
	ff		 lea	 ecx, DWORD PTR $T194436[ebp]
  00f3e	51		 push	 ecx
  00f3f	8d 95 80 fe ff
	ff		 lea	 edx, DWORD PTR $T194437[ebp]
  00f45	52		 push	 edx
  00f46	b9 00 00 00 00	 mov	 ecx, OFFSET FLAT:?gBitMapOperate@@3VCBitMapOperate@@A
  00f4b	e8 00 00 00 00	 call	 ?HLStoRGB@CBitMapOperate@@QAEKABN00@Z ; CBitMapOperate::HLStoRGB
  00f50	89 45 84	 mov	 DWORD PTR _col9$[ebp], eax

; 177  : //	COLORREF col10 = gBitMapOperate.HLStoRGB(((double)225)/240   ,((double)50)/100,((double)50)/100 );
; 178  : //	COLORREF col11 = gBitMapOperate.HLStoRGB(((double)98)/240    ,((double)68)/100,((double)44)/100 );
; 179  : 
; 180  : 
; 181  : 	vector<COLORREF> colV;

  00f53	8d 8d 6c ff ff
	ff		 lea	 ecx, DWORD PTR _colV$[ebp]
  00f59	e8 00 00 00 00	 call	 ??0?$vector@KV?$allocator@K@std@@@std@@QAE@XZ ; std::vector<unsigned long,std::allocator<unsigned long> >::vector<unsigned long,std::allocator<unsigned long> >
  00f5e	c7 45 fc 00 00
	00 00		 mov	 DWORD PTR __$EHRec$[ebp+8], 0

; 182  : 	colV.push_back(col1);

  00f65	8d 45 e8	 lea	 eax, DWORD PTR _col1$[ebp]
  00f68	50		 push	 eax
  00f69	8d 8d 6c ff ff
	ff		 lea	 ecx, DWORD PTR _colV$[ebp]
  00f6f	e8 00 00 00 00	 call	 ?push_back@?$vector@KV?$allocator@K@std@@@std@@QAEXABK@Z ; std::vector<unsigned long,std::allocator<unsigned long> >::push_back

; 183  : 	colV.push_back(col2);

  00f74	8d 4d d8	 lea	 ecx, DWORD PTR _col2$[ebp]
  00f77	51		 push	 ecx
  00f78	8d 8d 6c ff ff
	ff		 lea	 ecx, DWORD PTR _colV$[ebp]
  00f7e	e8 00 00 00 00	 call	 ?push_back@?$vector@KV?$allocator@K@std@@@std@@QAEXABK@Z ; std::vector<unsigned long,std::allocator<unsigned long> >::push_back

; 184  : 	colV.push_back(col3);

  00f83	8d 55 cc	 lea	 edx, DWORD PTR _col3$[ebp]
  00f86	52		 push	 edx
  00f87	8d 8d 6c ff ff
	ff		 lea	 ecx, DWORD PTR _colV$[ebp]
  00f8d	e8 00 00 00 00	 call	 ?push_back@?$vector@KV?$allocator@K@std@@@std@@QAEXABK@Z ; std::vector<unsigned long,std::allocator<unsigned long> >::push_back

; 185  : 	colV.push_back(col4);

  00f92	8d 45 c0	 lea	 eax, DWORD PTR _col4$[ebp]
  00f95	50		 push	 eax
  00f96	8d 8d 6c ff ff
	ff		 lea	 ecx, DWORD PTR _colV$[ebp]
  00f9c	e8 00 00 00 00	 call	 ?push_back@?$vector@KV?$allocator@K@std@@@std@@QAEXABK@Z ; std::vector<unsigned long,std::allocator<unsigned long> >::push_back

; 186  : 	colV.push_back(col5);

  00fa1	8d 4d b4	 lea	 ecx, DWORD PTR _col5$[ebp]
  00fa4	51		 push	 ecx
  00fa5	8d 8d 6c ff ff
	ff		 lea	 ecx, DWORD PTR _colV$[ebp]
  00fab	e8 00 00 00 00	 call	 ?push_back@?$vector@KV?$allocator@K@std@@@std@@QAEXABK@Z ; std::vector<unsigned long,std::allocator<unsigned long> >::push_back

; 187  : 	colV.push_back(col6);

  00fb0	8d 55 a8	 lea	 edx, DWORD PTR _col6$[ebp]
  00fb3	52		 push	 edx
  00fb4	8d 8d 6c ff ff
	ff		 lea	 ecx, DWORD PTR _colV$[ebp]
  00fba	e8 00 00 00 00	 call	 ?push_back@?$vector@KV?$allocator@K@std@@@std@@QAEXABK@Z ; std::vector<unsigned long,std::allocator<unsigned long> >::push_back

; 188  : 	colV.push_back(col7);

  00fbf	8d 45 9c	 lea	 eax, DWORD PTR _col7$[ebp]
  00fc2	50		 push	 eax
  00fc3	8d 8d 6c ff ff
	ff		 lea	 ecx, DWORD PTR _colV$[ebp]
  00fc9	e8 00 00 00 00	 call	 ?push_back@?$vector@KV?$allocator@K@std@@@std@@QAEXABK@Z ; std::vector<unsigned long,std::allocator<unsigned long> >::push_back

; 189  : 	colV.push_back(col8);

  00fce	8d 4d 90	 lea	 ecx, DWORD PTR _col8$[ebp]
  00fd1	51		 push	 ecx
  00fd2	8d 8d 6c ff ff
	ff		 lea	 ecx, DWORD PTR _colV$[ebp]
  00fd8	e8 00 00 00 00	 call	 ?push_back@?$vector@KV?$allocator@K@std@@@std@@QAEXABK@Z ; std::vector<unsigned long,std::allocator<unsigned long> >::push_back

; 190  : 	colV.push_back(col9);

  00fdd	8d 55 84	 lea	 edx, DWORD PTR _col9$[ebp]
  00fe0	52		 push	 edx
  00fe1	8d 8d 6c ff ff
	ff		 lea	 ecx, DWORD PTR _colV$[ebp]
  00fe7	e8 00 00 00 00	 call	 ?push_back@?$vector@KV?$allocator@K@std@@@std@@QAEXABK@Z ; std::vector<unsigned long,std::allocator<unsigned long> >::push_back

; 191  : //	colV.push_back(col10);
; 192  : //	colV.push_back(col11);	
; 193  : 
; 194  : 
; 195  : 	for( int i=0; i<9; i++ )

  00fec	c7 85 64 ff ff
	ff 00 00 00 00	 mov	 DWORD PTR _i$192343[ebp], 0
  00ff6	eb 0f		 jmp	 SHORT $L192344
$L192345:
  00ff8	8b 85 64 ff ff
	ff		 mov	 eax, DWORD PTR _i$192343[ebp]
  00ffe	83 c0 01	 add	 eax, 1
  01001	89 85 64 ff ff
	ff		 mov	 DWORD PTR _i$192343[ebp], eax
$L192344:
  01007	83 bd 64 ff ff
	ff 09		 cmp	 DWORD PTR _i$192343[ebp], 9
  0100e	0f 8d dd 00 00
	00		 jge	 $L192346

; 196  : 	{
; 197  : 		CSkinButton2* pBtn = new CSkinButton2;

  01014	68 c5 00 00 00	 push	 197			; 000000c5H
  01019	68 00 00 00 00	 push	 OFFSET FLAT:$SG192354
  0101e	68 88 01 00 00	 push	 392			; 00000188H
  01023	e8 00 00 00 00	 call	 ??2CObject@@SGPAXIPBDH@Z ; CObject::operator new
  01028	89 85 78 fe ff
	ff		 mov	 DWORD PTR $T194439[ebp], eax
  0102e	c6 45 fc 01	 mov	 BYTE PTR __$EHRec$[ebp+8], 1
  01032	83 bd 78 fe ff
	ff 00		 cmp	 DWORD PTR $T194439[ebp], 0
  01039	74 13		 je	 SHORT $L194440
  0103b	8b 8d 78 fe ff
	ff		 mov	 ecx, DWORD PTR $T194439[ebp]
  01041	e8 00 00 00 00	 call	 ??0CSkinButton2@@QAE@XZ	; CSkinButton2::CSkinButton2
  01046	89 85 60 fe ff
	ff		 mov	 DWORD PTR tv236[ebp], eax
  0104c	eb 0a		 jmp	 SHORT $L194441
$L194440:
  0104e	c7 85 60 fe ff
	ff 00 00 00 00	 mov	 DWORD PTR tv236[ebp], 0
$L194441:
  01058	8b 8d 60 fe ff
	ff		 mov	 ecx, DWORD PTR tv236[ebp]
  0105e	89 8d 7c fe ff
	ff		 mov	 DWORD PTR $T194438[ebp], ecx
  01064	c6 45 fc 00	 mov	 BYTE PTR __$EHRec$[ebp+8], 0
  01068	8b 95 7c fe ff
	ff		 mov	 edx, DWORD PTR $T194438[ebp]
  0106e	89 95 5c ff ff
	ff		 mov	 DWORD PTR _pBtn$192347[ebp], edx

; 198  : 		pBtn->SetBKColor(255,GetRValue( colV[i] ),GetGValue( colV[i] ),GetBValue( colV[i] ) );

  01074	8b 85 64 ff ff
	ff		 mov	 eax, DWORD PTR _i$192343[ebp]
  0107a	50		 push	 eax
  0107b	8d 8d 6c ff ff
	ff		 lea	 ecx, DWORD PTR _colV$[ebp]
  01081	e8 00 00 00 00	 call	 ??A?$vector@KV?$allocator@K@std@@@std@@QAEAAKI@Z ; std::vector<unsigned long,std::allocator<unsigned long> >::operator[]
  01086	8b 08		 mov	 ecx, DWORD PTR [eax]
  01088	c1 e9 10	 shr	 ecx, 16			; 00000010H
  0108b	51		 push	 ecx
  0108c	8b 95 64 ff ff
	ff		 mov	 edx, DWORD PTR _i$192343[ebp]
  01092	52		 push	 edx
  01093	8d 8d 6c ff ff
	ff		 lea	 ecx, DWORD PTR _colV$[ebp]
  01099	e8 00 00 00 00	 call	 ??A?$vector@KV?$allocator@K@std@@@std@@QAEAAKI@Z ; std::vector<unsigned long,std::allocator<unsigned long> >::operator[]
  0109e	0f b7 00	 movzx	 eax, WORD PTR [eax]
  010a1	c1 f8 08	 sar	 eax, 8
  010a4	50		 push	 eax
  010a5	8b 8d 64 ff ff
	ff		 mov	 ecx, DWORD PTR _i$192343[ebp]
  010ab	51		 push	 ecx
  010ac	8d 8d 6c ff ff
	ff		 lea	 ecx, DWORD PTR _colV$[ebp]
  010b2	e8 00 00 00 00	 call	 ??A?$vector@KV?$allocator@K@std@@@std@@QAEAAKI@Z ; std::vector<unsigned long,std::allocator<unsigned long> >::operator[]
  010b7	8a 10		 mov	 dl, BYTE PTR [eax]
  010b9	52		 push	 edx
  010ba	68 ff 00 00 00	 push	 255			; 000000ffH
  010bf	8b 8d 5c ff ff
	ff		 mov	 ecx, DWORD PTR _pBtn$192347[ebp]
  010c5	e8 00 00 00 00	 call	 ?SetBKColor@CSkinButton2@@QAEXEEEE@Z ; CSkinButton2::SetBKColor

; 199  : 		pBtn->m_enmuDrawType = CSkinButton2::NO_FRAME_SELECT;

  010ca	8b 85 5c ff ff
	ff		 mov	 eax, DWORD PTR _pBtn$192347[ebp]
  010d0	c7 40 54 10 00
	00 00		 mov	 DWORD PTR [eax+84], 16	; 00000010H

; 200  : 
; 201  : 		m_colbtnVec.push_back( pBtn );		

  010d7	8d 8d 5c ff ff
	ff		 lea	 ecx, DWORD PTR _pBtn$192347[ebp]
  010dd	51		 push	 ecx
  010de	8b 4d f0	 mov	 ecx, DWORD PTR _this$[ebp]
  010e1	81 c1 e4 00 00
	00		 add	 ecx, 228		; 000000e4H
  010e7	e8 00 00 00 00	 call	 ?push_back@?$vector@PAVCSkinButton2@@V?$allocator@PAVCSkinButton2@@@std@@@std@@QAEXABQAVCSkinButton2@@@Z ; std::vector<CSkinButton2 *,std::allocator<CSkinButton2 *> >::push_back

; 202  : 	}

  010ec	e9 07 ff ff ff	 jmp	 $L192345
$L192346:

; 203  : 
; 204  : 	return CFrameWnd::PreCreateWindow(cs);

  010f1	8b 55 08	 mov	 edx, DWORD PTR _cs$[ebp]
  010f4	52		 push	 edx
  010f5	8b 4d f0	 mov	 ecx, DWORD PTR _this$[ebp]
  010f8	e8 00 00 00 00	 call	 ?PreCreateWindow@CFrameWnd@@MAEHAAUtagCREATESTRUCTA@@@Z ; CFrameWnd::PreCreateWindow
  010fd	89 85 74 fe ff
	ff		 mov	 DWORD PTR $T194442[ebp], eax
  01103	c7 45 fc ff ff
	ff ff		 mov	 DWORD PTR __$EHRec$[ebp+8], -1
  0110a	8d 8d 6c ff ff
	ff		 lea	 ecx, DWORD PTR _colV$[ebp]
  01110	e8 00 00 00 00	 call	 ??1?$vector@KV?$allocator@K@std@@@std@@QAE@XZ ; std::vector<unsigned long,std::allocator<unsigned long> >::~vector<unsigned long,std::allocator<unsigned long> >
  01115	8b 85 74 fe ff
	ff		 mov	 eax, DWORD PTR $T194442[ebp]

; 205  : }

  0111b	52		 push	 edx
  0111c	8b cd		 mov	 ecx, ebp
  0111e	50		 push	 eax
  0111f	8d 15 00 00 00
	00		 lea	 edx, DWORD PTR $L194488
  01125	e8 00 00 00 00	 call	 @_RTC_CheckStackVars@8
  0112a	58		 pop	 eax
  0112b	5a		 pop	 edx
  0112c	8b 4d f4	 mov	 ecx, DWORD PTR __$EHRec$[ebp]
  0112f	64 89 0d 00 00
	00 00		 mov	 DWORD PTR fs:__except_list, ecx
  01136	5f		 pop	 edi
  01137	5e		 pop	 esi
  01138	81 c4 a0 01 00
	00		 add	 esp, 416		; 000001a0H
  0113e	3b ec		 cmp	 ebp, esp
  01140	e8 00 00 00 00	 call	 __RTC_CheckEsp
  01145	8b e5		 mov	 esp, ebp
  01147	5d		 pop	 ebp
  01148	c2 04 00	 ret	 4
$L194488:
  0114b	0b 00 00 00	 DD	 11			; 0000000bH
  0114f	00 00 00 00	 DD	 $L194487
$L194487:
  01153	e8 ff ff ff	 DD	 -24			; ffffffe8H
  01157	04 00 00 00	 DD	 4
  0115b	00 00 00 00	 DD	 $L194475
  0115f	d8 ff ff ff	 DD	 -40			; ffffffd8H
  01163	04 00 00 00	 DD	 4
  01167	00 00 00 00	 DD	 $L194476
  0116b	cc ff ff ff	 DD	 -52			; ffffffccH
  0116f	04 00 00 00	 DD	 4
  01173	00 00 00 00	 DD	 $L194477
  01177	c0 ff ff ff	 DD	 -64			; ffffffc0H
  0117b	04 00 00 00	 DD	 4
  0117f	00 00 00 00	 DD	 $L194478
  01183	b4 ff ff ff	 DD	 -76			; ffffffb4H
  01187	04 00 00 00	 DD	 4
  0118b	00 00 00 00	 DD	 $L194479
  0118f	a8 ff ff ff	 DD	 -88			; ffffffa8H
  01193	04 00 00 00	 DD	 4
  01197	00 00 00 00	 DD	 $L194480
  0119b	9c ff ff ff	 DD	 -100			; ffffff9cH
  0119f	04 00 00 00	 DD	 4
  011a3	00 00 00 00	 DD	 $L194481
  011a7	90 ff ff ff	 DD	 -112			; ffffff90H
  011ab	04 00 00 00	 DD	 4
  011af	00 00 00 00	 DD	 $L194482
  011b3	84 ff ff ff	 DD	 -124			; ffffff84H
  011b7	04 00 00 00	 DD	 4
  011bb	00 00 00 00	 DD	 $L194483
  011bf	6c ff ff ff	 DD	 -148			; ffffff6cH
  011c3	10 00 00 00	 DD	 16			; 00000010H
  011c7	00 00 00 00	 DD	 $L194484
  011cb	5c ff ff ff	 DD	 -164			; ffffff5cH
  011cf	04 00 00 00	 DD	 4
  011d3	00 00 00 00	 DD	 $L194485
$L194485:
  011d7	70		 DB	 112			; 00000070H
  011d8	42		 DB	 66			; 00000042H
  011d9	74		 DB	 116			; 00000074H
  011da	6e		 DB	 110			; 0000006eH
  011db	00		 DB	 0
$L194484:
  011dc	63		 DB	 99			; 00000063H
  011dd	6f		 DB	 111			; 0000006fH
  011de	6c		 DB	 108			; 0000006cH
  011df	56		 DB	 86			; 00000056H
  011e0	00		 DB	 0
$L194483:
  011e1	63		 DB	 99			; 00000063H
  011e2	6f		 DB	 111			; 0000006fH
  011e3	6c		 DB	 108			; 0000006cH
  011e4	39		 DB	 57			; 00000039H
  011e5	00		 DB	 0
$L194482:
  011e6	63		 DB	 99			; 00000063H
  011e7	6f		 DB	 111			; 0000006fH
  011e8	6c		 DB	 108			; 0000006cH
  011e9	38		 DB	 56			; 00000038H
  011ea	00		 DB	 0
$L194481:
  011eb	63		 DB	 99			; 00000063H
  011ec	6f		 DB	 111			; 0000006fH
  011ed	6c		 DB	 108			; 0000006cH
  011ee	37		 DB	 55			; 00000037H
  011ef	00		 DB	 0
$L194480:
  011f0	63		 DB	 99			; 00000063H
  011f1	6f		 DB	 111			; 0000006fH
  011f2	6c		 DB	 108			; 0000006cH
  011f3	36		 DB	 54			; 00000036H
  011f4	00		 DB	 0
$L194479:
  011f5	63		 DB	 99			; 00000063H
  011f6	6f		 DB	 111			; 0000006fH
  011f7	6c		 DB	 108			; 0000006cH
  011f8	35		 DB	 53			; 00000035H
  011f9	00		 DB	 0
$L194478:
  011fa	63		 DB	 99			; 00000063H
  011fb	6f		 DB	 111			; 0000006fH
  011fc	6c		 DB	 108			; 0000006cH
  011fd	34		 DB	 52			; 00000034H
  011fe	00		 DB	 0
$L194477:
  011ff	63		 DB	 99			; 00000063H
  01200	6f		 DB	 111			; 0000006fH
  01201	6c		 DB	 108			; 0000006cH
  01202	33		 DB	 51			; 00000033H
  01203	00		 DB	 0
$L194476:
  01204	63		 DB	 99			; 00000063H
  01205	6f		 DB	 111			; 0000006fH
  01206	6c		 DB	 108			; 0000006cH
  01207	32		 DB	 50			; 00000032H
  01208	00		 DB	 0
$L194475:
  01209	63		 DB	 99			; 00000063H
  0120a	6f		 DB	 111			; 0000006fH
  0120b	6c		 DB	 108			; 0000006cH
  0120c	31		 DB	 49			; 00000031H
  0120d	00		 DB	 0
_TEXT	ENDS
text$x	SEGMENT
$L194443:
  001bc	8d 8d 6c ff ff
	ff		 lea	 ecx, DWORD PTR _colV$[ebp]
  001c2	e9 00 00 00 00	 jmp	 ??1?$vector@KV?$allocator@K@std@@@std@@QAE@XZ ; std::vector<unsigned long,std::allocator<unsigned long> >::~vector<unsigned long,std::allocator<unsigned long> >
$L194444:
  001c7	68 c5 00 00 00	 push	 197			; 000000c5H
  001cc	68 00 00 00 00	 push	 OFFSET FLAT:$SG192355
  001d1	8b 85 78 fe ff
	ff		 mov	 eax, DWORD PTR $T194439[ebp]
  001d7	50		 push	 eax
  001d8	e8 00 00 00 00	 call	 ??3CObject@@SGXPAXPBDH@Z ; CObject::operator delete
  001dd	c3		 ret	 0
__ehhandler$?PreCreateWindow@CMainSkinWnd@@MAEHAAUtagCREATESTRUCTA@@@Z:
  001de	b8 00 00 00 00	 mov	 eax, OFFSET FLAT:$T194446
  001e3	e9 00 00 00 00	 jmp	 ___CxxFrameHandler
text$x	ENDS
?PreCreateWindow@CMainSkinWnd@@MAEHAAUtagCREATESTRUCTA@@@Z ENDP ; CMainSkinWnd::PreCreateWindow
; Function compile flags: /Odt /RTCsu
_TEXT	SEGMENT
_this$ = -4						; size = 4
_pDC$ = 8						; size = 4
?OnEraseBkgnd@CMainSkinWnd@@QAEHPAVCDC@@@Z PROC NEAR	; CMainSkinWnd::OnEraseBkgnd
; _this$ = ecx

; 208  : {

  01210	55		 push	 ebp
  01211	8b ec		 mov	 ebp, esp
  01213	51		 push	 ecx
  01214	c7 45 fc cc cc
	cc cc		 mov	 DWORD PTR [ebp-4], -858993460 ; ccccccccH
  0121b	89 4d fc	 mov	 DWORD PTR _this$[ebp], ecx

; 209  : 	// TODO: Add your message handler code here and/or call default
; 210  : 	return false;

  0121e	33 c0		 xor	 eax, eax

; 211  : //	return CFrameWnd::OnEraseBkgnd(pDC);
; 212  : 	//return true;
; 213  : }

  01220	8b e5		 mov	 esp, ebp
  01222	5d		 pop	 ebp
  01223	c2 04 00	 ret	 4
?OnEraseBkgnd@CMainSkinWnd@@QAEHPAVCDC@@@Z ENDP		; CMainSkinWnd::OnEraseBkgnd
_TEXT	ENDS
PUBLIC	??HATL@@YA?AV?$CStringT@DV?$StrTraitMFC_DLL@DV?$ChTraitsCRT@D@ATL@@@@@0@ABV10@0@Z ; ATL::operator+
PUBLIC	??HATL@@YA?AV?$CStringT@DV?$StrTraitMFC_DLL@DV?$ChTraitsCRT@D@ATL@@@@@0@ABV10@PBD@Z ; ATL::operator+
PUBLIC	?SetLayeredWindowAttributes@CWnd@@QAEHKEK@Z	; CWnd::SetLayeredWindowAttributes
EXTRN	?ModifyStyleEx@CWnd@@QAEHKKI@Z:NEAR		; CWnd::ModifyStyleEx
EXTRN	?GetConfigIntValue@AfxUserConfig@@QAEXABV?$basic_string@DU?$char_traits@D@std@@V?$allocator@D@2@@std@@0AAH@Z:NEAR ; AfxUserConfig::GetConfigIntValue
EXTRN	__imp_?npos@?$basic_string@DU?$char_traits@D@std@@V?$allocator@D@2@@std@@2IB:DWORD
EXTRN	__imp_??4?$basic_string@DU?$char_traits@D@std@@V?$allocator@D@2@@std@@QAEAAV01@ABV01@@Z:NEAR
EXTRN	__imp_??Y?$basic_string@DU?$char_traits@D@std@@V?$allocator@D@2@@std@@QAEAAV01@PBD@Z:NEAR
EXTRN	__imp_??B?$CSimpleStringT@D$00@ATL@@QBEPBDXZ:NEAR
EXTRN	?GetClientRect@CWnd@@QBEXPAUtagRECT@@@Z:NEAR	; CWnd::GetClientRect
EXTRN	?OnCreate@CFrameWnd@@IAEHPAUtagCREATESTRUCTA@@@Z:NEAR ; CFrameWnd::OnCreate
EXTRN	?SetSkin@CSkinButton2@@QAEHV?$CStringT@DV?$StrTraitMFC_DLL@DV?$ChTraitsCRT@D@ATL@@@@@ATL@@H@Z:NEAR ; CSkinButton2::SetSkin
EXTRN	?ShowWindow@CWnd@@QAEHH@Z:NEAR			; CWnd::ShowWindow
EXTRN	__imp__GetWindowLongA@8:NEAR
EXTRN	__imp__SetWindowLongA@12:NEAR
EXTRN	?SetTimer@CWnd@@QAEIIIP6GXPAUHWND__@@IIK@Z@Z:NEAR ; CWnd::SetTimer
EXTRN	__imp_?find_last_of@?$basic_string@DU?$char_traits@D@std@@V?$allocator@D@2@@std@@QBEIDI@Z:NEAR
EXTRN	__imp_?substr@?$basic_string@DU?$char_traits@D@std@@V?$allocator@D@2@@std@@QBE?AV12@II@Z:NEAR
EXTRN	?SetCheck@CButton@@QAEXH@Z:NEAR			; CButton::SetCheck
xdata$x	SEGMENT
$T194565 DD	0ffffffffH
	DD	FLAT:$L194529
	DD	00H
	DD	FLAT:$L194530
	DD	0ffffffffH
	DD	FLAT:$L194537
	DD	0ffffffffH
	DD	FLAT:$L194539
	DD	03H
	DD	FLAT:$L194540
	DD	0ffffffffH
	DD	FLAT:$L194540
	DD	05H
	DD	FLAT:$L194541
	DD	05H
	DD	FLAT:$L194542
	DD	07H
	DD	FLAT:$L194543
	DD	05H
	DD	FLAT:$L194544
	DD	09H
	DD	FLAT:$L194545
	DD	0aH
	DD	FLAT:$L194546
	DD	0bH
	DD	FLAT:$L194547
	DD	05H
	DD	FLAT:$L194548
	DD	0dH
	DD	FLAT:$L194549
	DD	05H
	DD	FLAT:$L194550
	DD	0fH
	DD	FLAT:$L194551
	DD	010H
	DD	FLAT:$L194552
$T194555 DD	019930520H
	DD	012H
	DD	FLAT:$T194565
	DD	2 DUP(00H)
	DD	2 DUP(00H)
; Function compile flags: /Odt /RTCsu
xdata$x	ENDS
_TEXT	SEGMENT
tv766 = -640						; size = 4
tv763 = -636						; size = 4
tv806 = -632						; size = 4
tv761 = -628						; size = 4
tv803 = -624						; size = 4
tv759 = -620						; size = 4
tv800 = -616						; size = 4
tv755 = -612						; size = 4
tv795 = -608						; size = 4
tv752 = -604						; size = 4
tv792 = -600						; size = 4
tv750 = -596						; size = 4
tv789 = -592						; size = 4
tv748 = -588						; size = 4
tv786 = -584						; size = 4
tv496 = -580						; size = 4
tv744 = -576						; size = 4
tv781 = -572						; size = 4
tv741 = -568						; size = 4
tv777 = -564						; size = 4
tv441 = -560						; size = 4
tv436 = -556						; size = 4
tv739 = -552						; size = 4
tv736 = -548						; size = 4
tv774 = -544						; size = 4
tv734 = -540						; size = 4
tv731 = -536						; size = 4
tv728 = -532						; size = 4
tv725 = -528						; size = 4
tv722 = -524						; size = 4
tv719 = -520						; size = 4
tv262 = -516						; size = 4
tv92 = -512						; size = 4
tv87 = -508						; size = 4
tv716 = -504						; size = 4
tv771 = -500						; size = 4
tv713 = -496						; size = 4
tv768 = -492						; size = 4
$T194528 = -488						; size = 4
$T194527 = -484						; size = 4
$T194526 = -480						; size = 4
$T194525 = -476						; size = 4
$T194524 = -472						; size = 4
$T194523 = -468						; size = 28
$T194522 = -440						; size = 28
$T194521 = -412						; size = 16
$T194520 = -396						; size = 4
$T194519 = -392						; size = 4
$T194518 = -388						; size = 4
$T194517 = -384						; size = 4
$T194516 = -380						; size = 4
$T194515 = -376						; size = 16
$T194514 = -360						; size = 4
$T194513 = -356						; size = 28
$T194512 = -328						; size = 28
$T194511 = -300						; size = 28
$T194510 = -272						; size = 4
$T194509 = -268						; size = 4
$T194508 = -264						; size = 4
$T194507 = -260						; size = 4
$T194506 = -256						; size = 4
$T194505 = -252						; size = 4
$T194504 = -248						; size = 4
$T194503 = -244						; size = 4
$T194502 = -240						; size = 4
$T194501 = -236						; size = 16
$T194500 = -220						; size = 16
$T194499 = -204						; size = 16
$T194498 = -188						; size = 16
$T194497 = -172						; size = 16
$T194496 = -156						; size = 16
$T194495 = -140						; size = 4
$T194494 = -136						; size = 4
_iUserColor$ = -128					; size = 4
_col_btn_t$ = -120					; size = 4
_nIndex$ = -116						; size = 4
_iColorSelect$ = -108					; size = 4
_idx$ = -100						; size = 4
_skinPath$ = -92					; size = 28
_itor$ = -56						; size = 4
_pLayoutMgr$ = -48					; size = 4
_lrectClient$ = -40					; size = 16
_this$ = -20						; size = 4
__$ArrayPad$ = -16					; size = 4
__$EHRec$ = -12						; size = 12
__$ReturnAddr$ = 4					; size = 4
_lpCreateStruct$ = 8					; size = 4
?OnCreate@CMainSkinWnd@@QAEHPAUtagCREATESTRUCTA@@@Z PROC NEAR ; CMainSkinWnd::OnCreate
; _this$ = ecx

; 216  : {

  01230	55		 push	 ebp
  01231	8b ec		 mov	 ebp, esp
  01233	6a ff		 push	 -1
  01235	68 00 00 00 00	 push	 __ehhandler$?OnCreate@CMainSkinWnd@@QAEHPAUtagCREATESTRUCTA@@@Z
  0123a	64 a1 00 00 00
	00		 mov	 eax, DWORD PTR fs:__except_list
  01240	50		 push	 eax
  01241	64 89 25 00 00
	00 00		 mov	 DWORD PTR fs:__except_list, esp
  01248	81 ec 74 02 00
	00		 sub	 esp, 628		; 00000274H
  0124e	56		 push	 esi
  0124f	57		 push	 edi
  01250	51		 push	 ecx
  01251	8d bd 80 fd ff
	ff		 lea	 edi, DWORD PTR [ebp-640]
  01257	b9 9d 00 00 00	 mov	 ecx, 157		; 0000009dH
  0125c	b8 cc cc cc cc	 mov	 eax, -858993460		; ccccccccH
  01261	f3 ab		 rep stosd
  01263	59		 pop	 ecx
  01264	a1 00 00 00 00	 mov	 eax, DWORD PTR ___security_cookie
  01269	89 45 f0	 mov	 DWORD PTR __$ArrayPad$[ebp], eax
  0126c	89 4d ec	 mov	 DWORD PTR _this$[ebp], ecx

; 217  : 	if (CFrameWnd::OnCreate(lpCreateStruct) == -1)

  0126f	8b 45 08	 mov	 eax, DWORD PTR _lpCreateStruct$[ebp]
  01272	50		 push	 eax
  01273	8b 4d ec	 mov	 ecx, DWORD PTR _this$[ebp]
  01276	e8 00 00 00 00	 call	 ?OnCreate@CFrameWnd@@IAEHPAUtagCREATESTRUCTA@@@Z ; CFrameWnd::OnCreate
  0127b	83 f8 ff	 cmp	 eax, -1
  0127e	75 08		 jne	 SHORT $L192369

; 218  : 		return -1;

  01280	83 c8 ff	 or	 eax, -1
  01283	e9 ff 0b 00 00	 jmp	 $L192368
$L192369:

; 219  : 	
; 220  : 	ModifyStyleEx(WS_EX_CLIENTEDGE, 0, SWP_FRAMECHANGED);

  01288	6a 20		 push	 32			; 00000020H
  0128a	6a 00		 push	 0
  0128c	68 00 02 00 00	 push	 512			; 00000200H
  01291	8b 4d ec	 mov	 ecx, DWORD PTR _this$[ebp]
  01294	e8 00 00 00 00	 call	 ?ModifyStyleEx@CWnd@@QAEHKKI@Z ; CWnd::ModifyStyleEx

; 221  : 	SetWindowLong(m_hWnd,GWL_EXSTYLE,GetWindowLong(m_hWnd,GWL_EXSTYLE)^WS_EX_LAYERED);

  01299	8b f4		 mov	 esi, esp
  0129b	6a ec		 push	 -20			; ffffffecH
  0129d	8b 4d ec	 mov	 ecx, DWORD PTR _this$[ebp]
  012a0	8b 51 20	 mov	 edx, DWORD PTR [ecx+32]
  012a3	52		 push	 edx
  012a4	ff 15 00 00 00
	00		 call	 DWORD PTR __imp__GetWindowLongA@8
  012aa	3b f4		 cmp	 esi, esp
  012ac	e8 00 00 00 00	 call	 __RTC_CheckEsp
  012b1	35 00 00 08 00	 xor	 eax, 524288		; 00080000H
  012b6	8b f4		 mov	 esi, esp
  012b8	50		 push	 eax
  012b9	6a ec		 push	 -20			; ffffffecH
  012bb	8b 45 ec	 mov	 eax, DWORD PTR _this$[ebp]
  012be	8b 48 20	 mov	 ecx, DWORD PTR [eax+32]
  012c1	51		 push	 ecx
  012c2	ff 15 00 00 00
	00		 call	 DWORD PTR __imp__SetWindowLongA@12
  012c8	3b f4		 cmp	 esi, esp
  012ca	e8 00 00 00 00	 call	 __RTC_CheckEsp

; 222  : 	SetLayeredWindowAttributes(RGB(255,0,0),0,LWA_COLORKEY);

  012cf	6a 01		 push	 1
  012d1	6a 00		 push	 0
  012d3	68 ff 00 00 00	 push	 255			; 000000ffH
  012d8	8b 4d ec	 mov	 ecx, DWORD PTR _this$[ebp]
  012db	e8 00 00 00 00	 call	 ?SetLayeredWindowAttributes@CWnd@@QAEHKEK@Z ; CWnd::SetLayeredWindowAttributes

; 223  : 
; 224  : 	AfxGetUIManager()->UIGetLayoutMgr()->CreateBmpPane( this,"ChangeSkin","normal" );

  012e0	51		 push	 ecx
  012e1	8b cc		 mov	 ecx, esp
  012e3	89 a5 78 ff ff
	ff		 mov	 DWORD PTR $T194494[ebp], esp
  012e9	8b f4		 mov	 esi, esp
  012eb	68 00 00 00 00	 push	 OFFSET FLAT:$SG192378
  012f0	ff 15 00 00 00
	00		 call	 DWORD PTR __imp_??0?$CStringT@DV?$StrTraitMFC_DLL@DV?$ChTraitsCRT@D@ATL@@@@@ATL@@QAE@PBD@Z
  012f6	3b f4		 cmp	 esi, esp
  012f8	e8 00 00 00 00	 call	 __RTC_CheckEsp
  012fd	89 85 14 fe ff
	ff		 mov	 DWORD PTR tv768[ebp], eax
  01303	8b 95 14 fe ff
	ff		 mov	 edx, DWORD PTR tv768[ebp]
  01309	89 95 10 fe ff
	ff		 mov	 DWORD PTR tv713[ebp], edx
  0130f	c7 45 fc 00 00
	00 00		 mov	 DWORD PTR __$EHRec$[ebp+8], 0
  01316	51		 push	 ecx
  01317	8b cc		 mov	 ecx, esp
  01319	89 a5 74 ff ff
	ff		 mov	 DWORD PTR $T194495[ebp], esp
  0131f	8b f4		 mov	 esi, esp
  01321	68 00 00 00 00	 push	 OFFSET FLAT:$SG192379
  01326	ff 15 00 00 00
	00		 call	 DWORD PTR __imp_??0?$CStringT@DV?$StrTraitMFC_DLL@DV?$ChTraitsCRT@D@ATL@@@@@ATL@@QAE@PBD@Z
  0132c	3b f4		 cmp	 esi, esp
  0132e	e8 00 00 00 00	 call	 __RTC_CheckEsp
  01333	89 85 0c fe ff
	ff		 mov	 DWORD PTR tv771[ebp], eax
  01339	8b 85 0c fe ff
	ff		 mov	 eax, DWORD PTR tv771[ebp]
  0133f	89 85 08 fe ff
	ff		 mov	 DWORD PTR tv716[ebp], eax
  01345	c6 45 fc 01	 mov	 BYTE PTR __$EHRec$[ebp+8], 1
  01349	e8 00 00 00 00	 call	 ?AfxGetUIManager@@YAPAVIUIManager@@XZ ; AfxGetUIManager
  0134e	89 85 04 fe ff
	ff		 mov	 DWORD PTR tv87[ebp], eax
  01354	8b f4		 mov	 esi, esp
  01356	8b 8d 04 fe ff
	ff		 mov	 ecx, DWORD PTR tv87[ebp]
  0135c	8b 11		 mov	 edx, DWORD PTR [ecx]
  0135e	8b 8d 04 fe ff
	ff		 mov	 ecx, DWORD PTR tv87[ebp]
  01364	ff 52 24	 call	 DWORD PTR [edx+36]
  01367	3b f4		 cmp	 esi, esp
  01369	e8 00 00 00 00	 call	 __RTC_CheckEsp
  0136e	89 85 00 fe ff
	ff		 mov	 DWORD PTR tv92[ebp], eax
  01374	8b 45 ec	 mov	 eax, DWORD PTR _this$[ebp]
  01377	50		 push	 eax
  01378	8b 8d 00 fe ff
	ff		 mov	 ecx, DWORD PTR tv92[ebp]
  0137e	8b 11		 mov	 edx, DWORD PTR [ecx]
  01380	c7 45 fc ff ff
	ff ff		 mov	 DWORD PTR __$EHRec$[ebp+8], -1
  01387	8b 8d 00 fe ff
	ff		 mov	 ecx, DWORD PTR tv92[ebp]
  0138d	ff 52 58	 call	 DWORD PTR [edx+88]

; 225  : 
; 226  : 
; 227  : 	CRect lrectClient;

  01390	8d 4d d8	 lea	 ecx, DWORD PTR _lrectClient$[ebp]
  01393	e8 00 00 00 00	 call	 ??0CRect@@QAE@XZ	; CRect::CRect

; 228  : 	GetClientRect(&lrectClient);

  01398	8d 45 d8	 lea	 eax, DWORD PTR _lrectClient$[ebp]
  0139b	50		 push	 eax
  0139c	8b 4d ec	 mov	 ecx, DWORD PTR _this$[ebp]
  0139f	e8 00 00 00 00	 call	 ?GetClientRect@CWnd@@QBEXPAUtagRECT@@@Z ; CWnd::GetClientRect

; 229  : 	m_BtnClose.Create(NULL,WS_VISIBLE ,CRect(0,0,0,0), this,ID_CLOSE_CHANGESKIN_BTN);

  013a4	8b f4		 mov	 esi, esp
  013a6	68 11 27 00 00	 push	 10001			; 00002711H
  013ab	8b 4d ec	 mov	 ecx, DWORD PTR _this$[ebp]
  013ae	51		 push	 ecx
  013af	6a 00		 push	 0
  013b1	6a 00		 push	 0
  013b3	6a 00		 push	 0
  013b5	6a 00		 push	 0
  013b7	8d 8d 64 ff ff
	ff		 lea	 ecx, DWORD PTR $T194496[ebp]
  013bd	e8 00 00 00 00	 call	 ??0CRect@@QAE@HHHH@Z	; CRect::CRect
  013c2	50		 push	 eax
  013c3	68 00 00 00 10	 push	 268435456		; 10000000H
  013c8	6a 00		 push	 0
  013ca	8b 4d ec	 mov	 ecx, DWORD PTR _this$[ebp]
  013cd	81 c1 f4 00 00
	00		 add	 ecx, 244		; 000000f4H
  013d3	8b 55 ec	 mov	 edx, DWORD PTR _this$[ebp]
  013d6	8b 82 f4 00 00
	00		 mov	 eax, DWORD PTR [edx+244]
  013dc	ff 90 38 01 00
	00		 call	 DWORD PTR [eax+312]
  013e2	3b f4		 cmp	 esi, esp
  013e4	e8 00 00 00 00	 call	 __RTC_CheckEsp

; 230  : 	m_btnSub.Create(NULL,WS_VISIBLE|BS_AUTOCHECKBOX ,CRect(0,0,0,0), this,ID_SUB_CHANGESKIN_BTN);

  013e9	8b f4		 mov	 esi, esp
  013eb	68 12 27 00 00	 push	 10002			; 00002712H
  013f0	8b 4d ec	 mov	 ecx, DWORD PTR _this$[ebp]
  013f3	51		 push	 ecx
  013f4	6a 00		 push	 0
  013f6	6a 00		 push	 0
  013f8	6a 00		 push	 0
  013fa	6a 00		 push	 0
  013fc	8d 8d 54 ff ff
	ff		 lea	 ecx, DWORD PTR $T194497[ebp]
  01402	e8 00 00 00 00	 call	 ??0CRect@@QAE@HHHH@Z	; CRect::CRect
  01407	50		 push	 eax
  01408	68 03 00 00 10	 push	 268435459		; 10000003H
  0140d	6a 00		 push	 0
  0140f	8b 4d ec	 mov	 ecx, DWORD PTR _this$[ebp]
  01412	81 c1 3c 03 00
	00		 add	 ecx, 828		; 0000033cH
  01418	8b 55 ec	 mov	 edx, DWORD PTR _this$[ebp]
  0141b	8b 82 3c 03 00
	00		 mov	 eax, DWORD PTR [edx+828]
  01421	ff 90 38 01 00
	00		 call	 DWORD PTR [eax+312]
  01427	3b f4		 cmp	 esi, esp
  01429	e8 00 00 00 00	 call	 __RTC_CheckEsp

; 231  : 	m_btnSkin.Create(NULL,WS_VISIBLE|BS_AUTOCHECKBOX,CRect(0,0,0,0), this,ID_SKIN_CHANGESKIN_BTN);

  0142e	8b f4		 mov	 esi, esp
  01430	68 13 27 00 00	 push	 10003			; 00002713H
  01435	8b 4d ec	 mov	 ecx, DWORD PTR _this$[ebp]
  01438	51		 push	 ecx
  01439	6a 00		 push	 0
  0143b	6a 00		 push	 0
  0143d	6a 00		 push	 0
  0143f	6a 00		 push	 0
  01441	8d 8d 44 ff ff
	ff		 lea	 ecx, DWORD PTR $T194498[ebp]
  01447	e8 00 00 00 00	 call	 ??0CRect@@QAE@HHHH@Z	; CRect::CRect
  0144c	50		 push	 eax
  0144d	68 03 00 00 10	 push	 268435459		; 10000003H
  01452	6a 00		 push	 0
  01454	8b 4d ec	 mov	 ecx, DWORD PTR _this$[ebp]
  01457	81 c1 18 02 00
	00		 add	 ecx, 536		; 00000218H
  0145d	8b 55 ec	 mov	 edx, DWORD PTR _this$[ebp]
  01460	8b 82 18 02 00
	00		 mov	 eax, DWORD PTR [edx+536]
  01466	ff 90 38 01 00
	00		 call	 DWORD PTR [eax+312]
  0146c	3b f4		 cmp	 esi, esp
  0146e	e8 00 00 00 00	 call	 __RTC_CheckEsp

; 232  : 
; 233  : 	m_btnWebSub.Create(NULL,WS_VISIBLE|BS_AUTOCHECKBOX,CRect(0,0,0,0), this,ID_WEBSUB_CHANGESKIN_BTN);

  01473	8b f4		 mov	 esi, esp
  01475	68 16 27 00 00	 push	 10006			; 00002716H
  0147a	8b 4d ec	 mov	 ecx, DWORD PTR _this$[ebp]
  0147d	51		 push	 ecx
  0147e	6a 00		 push	 0
  01480	6a 00		 push	 0
  01482	6a 00		 push	 0
  01484	6a 00		 push	 0
  01486	8d 8d 34 ff ff
	ff		 lea	 ecx, DWORD PTR $T194499[ebp]
  0148c	e8 00 00 00 00	 call	 ??0CRect@@QAE@HHHH@Z	; CRect::CRect
  01491	50		 push	 eax
  01492	68 03 00 00 10	 push	 268435459		; 10000003H
  01497	6a 00		 push	 0
  01499	8b 4d ec	 mov	 ecx, DWORD PTR _this$[ebp]
  0149c	81 c1 60 04 00
	00		 add	 ecx, 1120		; 00000460H
  014a2	8b 55 ec	 mov	 edx, DWORD PTR _this$[ebp]
  014a5	8b 82 60 04 00
	00		 mov	 eax, DWORD PTR [edx+1120]
  014ab	ff 90 38 01 00
	00		 call	 DWORD PTR [eax+312]
  014b1	3b f4		 cmp	 esi, esp
  014b3	e8 00 00 00 00	 call	 __RTC_CheckEsp

; 234  : 
; 235  : 	m_btnMoreColr.Create(NULL,WS_VISIBLE,CRect(0,0,0,0), this,ID_MORECOLOR_CHANGESKIN_BTN);

  014b8	8b f4		 mov	 esi, esp
  014ba	68 14 27 00 00	 push	 10004			; 00002714H
  014bf	8b 4d ec	 mov	 ecx, DWORD PTR _this$[ebp]
  014c2	51		 push	 ecx
  014c3	6a 00		 push	 0
  014c5	6a 00		 push	 0
  014c7	6a 00		 push	 0
  014c9	6a 00		 push	 0
  014cb	8d 8d 24 ff ff
	ff		 lea	 ecx, DWORD PTR $T194500[ebp]
  014d1	e8 00 00 00 00	 call	 ??0CRect@@QAE@HHHH@Z	; CRect::CRect
  014d6	50		 push	 eax
  014d7	68 00 00 00 10	 push	 268435456		; 10000000H
  014dc	6a 00		 push	 0
  014de	8b 4d ec	 mov	 ecx, DWORD PTR _this$[ebp]
  014e1	81 c1 84 05 00
	00		 add	 ecx, 1412		; 00000584H
  014e7	8b 55 ec	 mov	 edx, DWORD PTR _this$[ebp]
  014ea	8b 82 84 05 00
	00		 mov	 eax, DWORD PTR [edx+1412]
  014f0	ff 90 38 01 00
	00		 call	 DWORD PTR [eax+312]
  014f6	3b f4		 cmp	 esi, esp
  014f8	e8 00 00 00 00	 call	 __RTC_CheckEsp

; 236  : 	m_btnDownMore.Create(NULL,WS_VISIBLE,CRect(0,0,0,0), this,ID_DOWNMORE_CHANGESKIN_BTN);

  014fd	8b f4		 mov	 esi, esp
  014ff	68 15 27 00 00	 push	 10005			; 00002715H
  01504	8b 4d ec	 mov	 ecx, DWORD PTR _this$[ebp]
  01507	51		 push	 ecx
  01508	6a 00		 push	 0
  0150a	6a 00		 push	 0
  0150c	6a 00		 push	 0
  0150e	6a 00		 push	 0
  01510	8d 8d 14 ff ff
	ff		 lea	 ecx, DWORD PTR $T194501[ebp]
  01516	e8 00 00 00 00	 call	 ??0CRect@@QAE@HHHH@Z	; CRect::CRect
  0151b	50		 push	 eax
  0151c	68 00 00 00 10	 push	 268435456		; 10000000H
  01521	6a 00		 push	 0
  01523	8b 4d ec	 mov	 ecx, DWORD PTR _this$[ebp]
  01526	81 c1 a8 06 00
	00		 add	 ecx, 1704		; 000006a8H
  0152c	8b 55 ec	 mov	 edx, DWORD PTR _this$[ebp]
  0152f	8b 82 a8 06 00
	00		 mov	 eax, DWORD PTR [edx+1704]
  01535	ff 90 38 01 00
	00		 call	 DWORD PTR [eax+312]
  0153b	3b f4		 cmp	 esi, esp
  0153d	e8 00 00 00 00	 call	 __RTC_CheckEsp

; 237  : 
; 238  : 	ILayoutMgr*	pLayoutMgr = AfxGetUIManager()->UIGetLayoutMgr();

  01542	e8 00 00 00 00	 call	 ?AfxGetUIManager@@YAPAVIUIManager@@XZ ; AfxGetUIManager
  01547	89 85 fc fd ff
	ff		 mov	 DWORD PTR tv262[ebp], eax
  0154d	8b 8d fc fd ff
	ff		 mov	 ecx, DWORD PTR tv262[ebp]
  01553	8b 11		 mov	 edx, DWORD PTR [ecx]
  01555	8b f4		 mov	 esi, esp
  01557	8b 8d fc fd ff
	ff		 mov	 ecx, DWORD PTR tv262[ebp]
  0155d	ff 52 24	 call	 DWORD PTR [edx+36]
  01560	3b f4		 cmp	 esi, esp
  01562	e8 00 00 00 00	 call	 __RTC_CheckEsp
  01567	89 45 d0	 mov	 DWORD PTR _pLayoutMgr$[ebp], eax

; 239  : 	pLayoutMgr->RegisterCtrl( this,"ChangeSkin_Close",&m_BtnClose );

  0156a	8b 45 ec	 mov	 eax, DWORD PTR _this$[ebp]
  0156d	05 f4 00 00 00	 add	 eax, 244		; 000000f4H
  01572	50		 push	 eax
  01573	51		 push	 ecx
  01574	8b cc		 mov	 ecx, esp
  01576	89 a5 10 ff ff
	ff		 mov	 DWORD PTR $T194502[ebp], esp
  0157c	8b f4		 mov	 esi, esp
  0157e	68 00 00 00 00	 push	 OFFSET FLAT:$SG192389
  01583	ff 15 00 00 00
	00		 call	 DWORD PTR __imp_??0?$CStringT@DV?$StrTraitMFC_DLL@DV?$ChTraitsCRT@D@ATL@@@@@ATL@@QAE@PBD@Z
  01589	3b f4		 cmp	 esi, esp
  0158b	e8 00 00 00 00	 call	 __RTC_CheckEsp
  01590	89 85 f8 fd ff
	ff		 mov	 DWORD PTR tv719[ebp], eax
  01596	8b 4d ec	 mov	 ecx, DWORD PTR _this$[ebp]
  01599	51		 push	 ecx
  0159a	8b 55 d0	 mov	 edx, DWORD PTR _pLayoutMgr$[ebp]
  0159d	8b 02		 mov	 eax, DWORD PTR [edx]
  0159f	8b 4d d0	 mov	 ecx, DWORD PTR _pLayoutMgr$[ebp]
  015a2	ff 50 34	 call	 DWORD PTR [eax+52]

; 240  : 	pLayoutMgr->RegisterCtrl( this,"Sub",&m_btnSub);

  015a5	8b 4d ec	 mov	 ecx, DWORD PTR _this$[ebp]
  015a8	81 c1 3c 03 00
	00		 add	 ecx, 828		; 0000033cH
  015ae	51		 push	 ecx
  015af	51		 push	 ecx
  015b0	8b cc		 mov	 ecx, esp
  015b2	89 a5 0c ff ff
	ff		 mov	 DWORD PTR $T194503[ebp], esp
  015b8	8b f4		 mov	 esi, esp
  015ba	68 00 00 00 00	 push	 OFFSET FLAT:$SG192391
  015bf	ff 15 00 00 00
	00		 call	 DWORD PTR __imp_??0?$CStringT@DV?$StrTraitMFC_DLL@DV?$ChTraitsCRT@D@ATL@@@@@ATL@@QAE@PBD@Z
  015c5	3b f4		 cmp	 esi, esp
  015c7	e8 00 00 00 00	 call	 __RTC_CheckEsp
  015cc	89 85 f4 fd ff
	ff		 mov	 DWORD PTR tv722[ebp], eax
  015d2	8b 55 ec	 mov	 edx, DWORD PTR _this$[ebp]
  015d5	52		 push	 edx
  015d6	8b 45 d0	 mov	 eax, DWORD PTR _pLayoutMgr$[ebp]
  015d9	8b 10		 mov	 edx, DWORD PTR [eax]
  015db	8b 4d d0	 mov	 ecx, DWORD PTR _pLayoutMgr$[ebp]
  015de	ff 52 34	 call	 DWORD PTR [edx+52]

; 241  : 	pLayoutMgr->RegisterCtrl( this,"Skin",&m_btnSkin);

  015e1	8b 45 ec	 mov	 eax, DWORD PTR _this$[ebp]
  015e4	05 18 02 00 00	 add	 eax, 536		; 00000218H
  015e9	50		 push	 eax
  015ea	51		 push	 ecx
  015eb	8b cc		 mov	 ecx, esp
  015ed	89 a5 08 ff ff
	ff		 mov	 DWORD PTR $T194504[ebp], esp
  015f3	8b f4		 mov	 esi, esp
  015f5	68 00 00 00 00	 push	 OFFSET FLAT:$SG192393
  015fa	ff 15 00 00 00
	00		 call	 DWORD PTR __imp_??0?$CStringT@DV?$StrTraitMFC_DLL@DV?$ChTraitsCRT@D@ATL@@@@@ATL@@QAE@PBD@Z
  01600	3b f4		 cmp	 esi, esp
  01602	e8 00 00 00 00	 call	 __RTC_CheckEsp
  01607	89 85 f0 fd ff
	ff		 mov	 DWORD PTR tv725[ebp], eax
  0160d	8b 4d ec	 mov	 ecx, DWORD PTR _this$[ebp]
  01610	51		 push	 ecx
  01611	8b 55 d0	 mov	 edx, DWORD PTR _pLayoutMgr$[ebp]
  01614	8b 02		 mov	 eax, DWORD PTR [edx]
  01616	8b 4d d0	 mov	 ecx, DWORD PTR _pLayoutMgr$[ebp]
  01619	ff 50 34	 call	 DWORD PTR [eax+52]

; 242  : 	pLayoutMgr->RegisterCtrl( this,"WebSub",&m_btnWebSub);

  0161c	8b 4d ec	 mov	 ecx, DWORD PTR _this$[ebp]
  0161f	81 c1 60 04 00
	00		 add	 ecx, 1120		; 00000460H
  01625	51		 push	 ecx
  01626	51		 push	 ecx
  01627	8b cc		 mov	 ecx, esp
  01629	89 a5 04 ff ff
	ff		 mov	 DWORD PTR $T194505[ebp], esp
  0162f	8b f4		 mov	 esi, esp
  01631	68 00 00 00 00	 push	 OFFSET FLAT:$SG192395
  01636	ff 15 00 00 00
	00		 call	 DWORD PTR __imp_??0?$CStringT@DV?$StrTraitMFC_DLL@DV?$ChTraitsCRT@D@ATL@@@@@ATL@@QAE@PBD@Z
  0163c	3b f4		 cmp	 esi, esp
  0163e	e8 00 00 00 00	 call	 __RTC_CheckEsp
  01643	89 85 ec fd ff
	ff		 mov	 DWORD PTR tv728[ebp], eax
  01649	8b 55 ec	 mov	 edx, DWORD PTR _this$[ebp]
  0164c	52		 push	 edx
  0164d	8b 45 d0	 mov	 eax, DWORD PTR _pLayoutMgr$[ebp]
  01650	8b 10		 mov	 edx, DWORD PTR [eax]
  01652	8b 4d d0	 mov	 ecx, DWORD PTR _pLayoutMgr$[ebp]
  01655	ff 52 34	 call	 DWORD PTR [edx+52]

; 243  : 	pLayoutMgr->RegisterCtrl( this,"MoreColor",&m_btnMoreColr);

  01658	8b 45 ec	 mov	 eax, DWORD PTR _this$[ebp]
  0165b	05 84 05 00 00	 add	 eax, 1412		; 00000584H
  01660	50		 push	 eax
  01661	51		 push	 ecx
  01662	8b cc		 mov	 ecx, esp
  01664	89 a5 00 ff ff
	ff		 mov	 DWORD PTR $T194506[ebp], esp
  0166a	8b f4		 mov	 esi, esp
  0166c	68 00 00 00 00	 push	 OFFSET FLAT:$SG192397
  01671	ff 15 00 00 00
	00		 call	 DWORD PTR __imp_??0?$CStringT@DV?$StrTraitMFC_DLL@DV?$ChTraitsCRT@D@ATL@@@@@ATL@@QAE@PBD@Z
  01677	3b f4		 cmp	 esi, esp
  01679	e8 00 00 00 00	 call	 __RTC_CheckEsp
  0167e	89 85 e8 fd ff
	ff		 mov	 DWORD PTR tv731[ebp], eax
  01684	8b 4d ec	 mov	 ecx, DWORD PTR _this$[ebp]
  01687	51		 push	 ecx
  01688	8b 55 d0	 mov	 edx, DWORD PTR _pLayoutMgr$[ebp]
  0168b	8b 02		 mov	 eax, DWORD PTR [edx]
  0168d	8b 4d d0	 mov	 ecx, DWORD PTR _pLayoutMgr$[ebp]
  01690	ff 50 34	 call	 DWORD PTR [eax+52]

; 244  : 	pLayoutMgr->RegisterCtrl( this,"DownMore",&m_btnDownMore);

  01693	8b 4d ec	 mov	 ecx, DWORD PTR _this$[ebp]
  01696	81 c1 a8 06 00
	00		 add	 ecx, 1704		; 000006a8H
  0169c	51		 push	 ecx
  0169d	51		 push	 ecx
  0169e	8b cc		 mov	 ecx, esp
  016a0	89 a5 fc fe ff
	ff		 mov	 DWORD PTR $T194507[ebp], esp
  016a6	8b f4		 mov	 esi, esp
  016a8	68 00 00 00 00	 push	 OFFSET FLAT:$SG192399
  016ad	ff 15 00 00 00
	00		 call	 DWORD PTR __imp_??0?$CStringT@DV?$StrTraitMFC_DLL@DV?$ChTraitsCRT@D@ATL@@@@@ATL@@QAE@PBD@Z
  016b3	3b f4		 cmp	 esi, esp
  016b5	e8 00 00 00 00	 call	 __RTC_CheckEsp
  016ba	89 85 e4 fd ff
	ff		 mov	 DWORD PTR tv734[ebp], eax
  016c0	8b 55 ec	 mov	 edx, DWORD PTR _this$[ebp]
  016c3	52		 push	 edx
  016c4	8b 45 d0	 mov	 eax, DWORD PTR _pLayoutMgr$[ebp]
  016c7	8b 10		 mov	 edx, DWORD PTR [eax]
  016c9	8b 4d d0	 mov	 ecx, DWORD PTR _pLayoutMgr$[ebp]
  016cc	ff 52 34	 call	 DWORD PTR [edx+52]

; 245  : 	pLayoutMgr->CreateControlPane( this,"ChangeSkin","normal");	

  016cf	51		 push	 ecx
  016d0	8b cc		 mov	 ecx, esp
  016d2	89 a5 f8 fe ff
	ff		 mov	 DWORD PTR $T194508[ebp], esp
  016d8	8b f4		 mov	 esi, esp
  016da	68 00 00 00 00	 push	 OFFSET FLAT:$SG192402
  016df	ff 15 00 00 00
	00		 call	 DWORD PTR __imp_??0?$CStringT@DV?$StrTraitMFC_DLL@DV?$ChTraitsCRT@D@ATL@@@@@ATL@@QAE@PBD@Z
  016e5	3b f4		 cmp	 esi, esp
  016e7	e8 00 00 00 00	 call	 __RTC_CheckEsp
  016ec	89 85 e0 fd ff
	ff		 mov	 DWORD PTR tv774[ebp], eax
  016f2	8b 85 e0 fd ff
	ff		 mov	 eax, DWORD PTR tv774[ebp]
  016f8	89 85 dc fd ff
	ff		 mov	 DWORD PTR tv736[ebp], eax
  016fe	c7 45 fc 02 00
	00 00		 mov	 DWORD PTR __$EHRec$[ebp+8], 2
  01705	51		 push	 ecx
  01706	8b cc		 mov	 ecx, esp
  01708	89 a5 f4 fe ff
	ff		 mov	 DWORD PTR $T194509[ebp], esp
  0170e	8b f4		 mov	 esi, esp
  01710	68 00 00 00 00	 push	 OFFSET FLAT:$SG192403
  01715	ff 15 00 00 00
	00		 call	 DWORD PTR __imp_??0?$CStringT@DV?$StrTraitMFC_DLL@DV?$ChTraitsCRT@D@ATL@@@@@ATL@@QAE@PBD@Z
  0171b	3b f4		 cmp	 esi, esp
  0171d	e8 00 00 00 00	 call	 __RTC_CheckEsp
  01722	89 85 d8 fd ff
	ff		 mov	 DWORD PTR tv739[ebp], eax
  01728	8b 4d ec	 mov	 ecx, DWORD PTR _this$[ebp]
  0172b	51		 push	 ecx
  0172c	8b 55 d0	 mov	 edx, DWORD PTR _pLayoutMgr$[ebp]
  0172f	8b 02		 mov	 eax, DWORD PTR [edx]
  01731	c7 45 fc ff ff
	ff ff		 mov	 DWORD PTR __$EHRec$[ebp+8], -1
  01738	8b 4d d0	 mov	 ecx, DWORD PTR _pLayoutMgr$[ebp]
  0173b	ff 50 38	 call	 DWORD PTR [eax+56]

; 246  : 
; 247  : 	//m_btnWebSub.SetCheck(1);
; 248  : 	//m_btnSkin.SetCheck(0);
; 249  : 	//m_btnSub.SetCheck(0);
; 250  : 	//web
; 251  : 	m_btnWebSub.SetCheck(0);

  0173e	6a 00		 push	 0
  01740	8b 4d ec	 mov	 ecx, DWORD PTR _this$[ebp]
  01743	81 c1 60 04 00
	00		 add	 ecx, 1120		; 00000460H
  01749	e8 00 00 00 00	 call	 ?SetCheck@CButton@@QAEXH@Z ; CButton::SetCheck

; 252  : 	m_btnSkin.SetCheck(0);

  0174e	6a 00		 push	 0
  01750	8b 4d ec	 mov	 ecx, DWORD PTR _this$[ebp]
  01753	81 c1 18 02 00
	00		 add	 ecx, 536		; 00000218H
  01759	e8 00 00 00 00	 call	 ?SetCheck@CButton@@QAEXH@Z ; CButton::SetCheck

; 253  : 	m_btnSub.SetCheck(1);

  0175e	6a 01		 push	 1
  01760	8b 4d ec	 mov	 ecx, DWORD PTR _this$[ebp]
  01763	81 c1 3c 03 00
	00		 add	 ecx, 828		; 0000033cH
  01769	e8 00 00 00 00	 call	 ?SetCheck@CButton@@QAEXH@Z ; CButton::SetCheck

; 254  : 
; 255  : 	vector<CSkinButton2*>::iterator itor = m_colbtnVec.begin();

  0176e	8d 4d c8	 lea	 ecx, DWORD PTR _itor$[ebp]
  01771	51		 push	 ecx
  01772	8b 4d ec	 mov	 ecx, DWORD PTR _this$[ebp]
  01775	81 c1 e4 00 00
	00		 add	 ecx, 228		; 000000e4H
  0177b	e8 00 00 00 00	 call	 ?begin@?$vector@PAVCSkinButton2@@V?$allocator@PAVCSkinButton2@@@std@@@std@@QAE?AViterator@12@XZ ; std::vector<CSkinButton2 *,std::allocator<CSkinButton2 *> >::begin

; 256  : 
; 257  : 	string  skinPath =AfxGetUIManager()->UIGetSkinMgr()->GetSkinPath();

  01780	e8 00 00 00 00	 call	 ?AfxGetUIManager@@YAPAVIUIManager@@XZ ; AfxGetUIManager
  01785	89 85 d4 fd ff
	ff		 mov	 DWORD PTR tv436[ebp], eax
  0178b	8b f4		 mov	 esi, esp
  0178d	8b 95 d4 fd ff
	ff		 mov	 edx, DWORD PTR tv436[ebp]
  01793	8b 02		 mov	 eax, DWORD PTR [edx]
  01795	8b 8d d4 fd ff
	ff		 mov	 ecx, DWORD PTR tv436[ebp]
  0179b	ff 50 28	 call	 DWORD PTR [eax+40]
  0179e	3b f4		 cmp	 esi, esp
  017a0	e8 00 00 00 00	 call	 __RTC_CheckEsp
  017a5	89 85 d0 fd ff
	ff		 mov	 DWORD PTR tv441[ebp], eax
  017ab	8b f4		 mov	 esi, esp
  017ad	8d 8d f0 fe ff
	ff		 lea	 ecx, DWORD PTR $T194510[ebp]
  017b3	51		 push	 ecx
  017b4	8b 95 d0 fd ff
	ff		 mov	 edx, DWORD PTR tv441[ebp]
  017ba	8b 02		 mov	 eax, DWORD PTR [edx]
  017bc	8b 8d d0 fd ff
	ff		 mov	 ecx, DWORD PTR tv441[ebp]
  017c2	ff 50 40	 call	 DWORD PTR [eax+64]
  017c5	3b f4		 cmp	 esi, esp
  017c7	e8 00 00 00 00	 call	 __RTC_CheckEsp
  017cc	89 85 cc fd ff
	ff		 mov	 DWORD PTR tv777[ebp], eax
  017d2	8b 8d cc fd ff
	ff		 mov	 ecx, DWORD PTR tv777[ebp]
  017d8	89 8d c8 fd ff
	ff		 mov	 DWORD PTR tv741[ebp], ecx
  017de	c7 45 fc 03 00
	00 00		 mov	 DWORD PTR __$EHRec$[ebp+8], 3
  017e5	8b f4		 mov	 esi, esp
  017e7	8b 8d c8 fd ff
	ff		 mov	 ecx, DWORD PTR tv741[ebp]
  017ed	ff 15 00 00 00
	00		 call	 DWORD PTR __imp_??B?$CSimpleStringT@D$00@ATL@@QBEPBDXZ
  017f3	3b f4		 cmp	 esi, esp
  017f5	e8 00 00 00 00	 call	 __RTC_CheckEsp
  017fa	8b f4		 mov	 esi, esp
  017fc	50		 push	 eax
  017fd	8d 4d a4	 lea	 ecx, DWORD PTR _skinPath$[ebp]
  01800	ff 15 00 00 00
	00		 call	 DWORD PTR __imp_??0?$basic_string@DU?$char_traits@D@std@@V?$allocator@D@2@@std@@QAE@PBD@Z
  01806	3b f4		 cmp	 esi, esp
  01808	e8 00 00 00 00	 call	 __RTC_CheckEsp
  0180d	c6 45 fc 05	 mov	 BYTE PTR __$EHRec$[ebp+8], 5
  01811	8b f4		 mov	 esi, esp
  01813	8d 8d f0 fe ff
	ff		 lea	 ecx, DWORD PTR $T194510[ebp]
  01819	ff 15 00 00 00
	00		 call	 DWORD PTR __imp_??1?$CStringT@DV?$StrTraitMFC_DLL@DV?$ChTraitsCRT@D@ATL@@@@@ATL@@QAE@XZ
  0181f	3b f4		 cmp	 esi, esp
  01821	e8 00 00 00 00	 call	 __RTC_CheckEsp

; 258  : 	size_t idx = skinPath.find_last_of('\\');

  01826	8b f4		 mov	 esi, esp
  01828	8b 15 00 00 00
	00		 mov	 edx, DWORD PTR __imp_?npos@?$basic_string@DU?$char_traits@D@std@@V?$allocator@D@2@@std@@2IB
  0182e	8b 02		 mov	 eax, DWORD PTR [edx]
  01830	50		 push	 eax
  01831	6a 5c		 push	 92			; 0000005cH
  01833	8d 4d a4	 lea	 ecx, DWORD PTR _skinPath$[ebp]
  01836	ff 15 00 00 00
	00		 call	 DWORD PTR __imp_?find_last_of@?$basic_string@DU?$char_traits@D@std@@V?$allocator@D@2@@std@@QBEIDI@Z
  0183c	3b f4		 cmp	 esi, esp
  0183e	e8 00 00 00 00	 call	 __RTC_CheckEsp
  01843	89 45 9c	 mov	 DWORD PTR _idx$[ebp], eax

; 259  : 	if( idx != string::npos )

  01846	8b 0d 00 00 00
	00		 mov	 ecx, DWORD PTR __imp_?npos@?$basic_string@DU?$char_traits@D@std@@V?$allocator@D@2@@std@@2IB
  0184c	8b 55 9c	 mov	 edx, DWORD PTR _idx$[ebp]
  0184f	3b 11		 cmp	 edx, DWORD PTR [ecx]
  01851	0f 84 95 00 00
	00		 je	 $L192410

; 260  : 	{
; 261  : 		skinPath = skinPath.substr(0,idx);

  01857	8b f4		 mov	 esi, esp
  01859	8b 45 9c	 mov	 eax, DWORD PTR _idx$[ebp]
  0185c	50		 push	 eax
  0185d	6a 00		 push	 0
  0185f	8d 8d d4 fe ff
	ff		 lea	 ecx, DWORD PTR $T194511[ebp]
  01865	51		 push	 ecx
  01866	8d 4d a4	 lea	 ecx, DWORD PTR _skinPath$[ebp]
  01869	ff 15 00 00 00
	00		 call	 DWORD PTR __imp_?substr@?$basic_string@DU?$char_traits@D@std@@V?$allocator@D@2@@std@@QBE?AV12@II@Z
  0186f	3b f4		 cmp	 esi, esp
  01871	e8 00 00 00 00	 call	 __RTC_CheckEsp
  01876	89 85 c4 fd ff
	ff		 mov	 DWORD PTR tv781[ebp], eax
  0187c	8b 95 c4 fd ff
	ff		 mov	 edx, DWORD PTR tv781[ebp]
  01882	89 95 c0 fd ff
	ff		 mov	 DWORD PTR tv744[ebp], edx
  01888	c6 45 fc 06	 mov	 BYTE PTR __$EHRec$[ebp+8], 6
  0188c	8b f4		 mov	 esi, esp
  0188e	8b 85 c0 fd ff
	ff		 mov	 eax, DWORD PTR tv744[ebp]
  01894	50		 push	 eax
  01895	8d 4d a4	 lea	 ecx, DWORD PTR _skinPath$[ebp]
  01898	ff 15 00 00 00
	00		 call	 DWORD PTR __imp_??4?$basic_string@DU?$char_traits@D@std@@V?$allocator@D@2@@std@@QAEAAV01@ABV01@@Z
  0189e	3b f4		 cmp	 esi, esp
  018a0	e8 00 00 00 00	 call	 __RTC_CheckEsp
  018a5	c6 45 fc 05	 mov	 BYTE PTR __$EHRec$[ebp+8], 5
  018a9	8b f4		 mov	 esi, esp
  018ab	8d 8d d4 fe ff
	ff		 lea	 ecx, DWORD PTR $T194511[ebp]
  018b1	ff 15 00 00 00
	00		 call	 DWORD PTR __imp_??1?$basic_string@DU?$char_traits@D@std@@V?$allocator@D@2@@std@@QAE@XZ
  018b7	3b f4		 cmp	 esi, esp
  018b9	e8 00 00 00 00	 call	 __RTC_CheckEsp

; 262  : 		skinPath += "\\";

  018be	8b f4		 mov	 esi, esp
  018c0	68 00 00 00 00	 push	 OFFSET FLAT:$SG192412
  018c5	8d 4d a4	 lea	 ecx, DWORD PTR _skinPath$[ebp]
  018c8	ff 15 00 00 00
	00		 call	 DWORD PTR __imp_??Y?$basic_string@DU?$char_traits@D@std@@V?$allocator@D@2@@std@@QAEAAV01@PBD@Z
  018ce	3b f4		 cmp	 esi, esp
  018d0	e8 00 00 00 00	 call	 __RTC_CheckEsp

; 263  : 		skinPath += STR_DEFAULT_SKIN;

  018d5	8b f4		 mov	 esi, esp
  018d7	68 00 00 00 00	 push	 OFFSET FLAT:$SG192413
  018dc	8d 4d a4	 lea	 ecx, DWORD PTR _skinPath$[ebp]
  018df	ff 15 00 00 00
	00		 call	 DWORD PTR __imp_??Y?$basic_string@DU?$char_traits@D@std@@V?$allocator@D@2@@std@@QAEAAV01@PBD@Z
  018e5	3b f4		 cmp	 esi, esp
  018e7	e8 00 00 00 00	 call	 __RTC_CheckEsp
$L192410:

; 264  : 	}	
; 265  : 
; 266  : 	int iColorSelect = 0;

  018ec	c7 45 94 00 00
	00 00		 mov	 DWORD PTR _iColorSelect$[ebp], 0

; 267  : 	::AfxGetUserConfig()->GetConfigIntValue(CONF_SETTING_MODULE_NAME, CONF_SETTING_COLOR_BTN_INDEX,iColorSelect);

  018f3	8b f4		 mov	 esi, esp
  018f5	8b 0d 00 00 00
	00		 mov	 ecx, DWORD PTR _CONF_SETTING_COLOR_BTN_INDEX
  018fb	51		 push	 ecx
  018fc	8d 8d b8 fe ff
	ff		 lea	 ecx, DWORD PTR $T194512[ebp]
  01902	ff 15 00 00 00
	00		 call	 DWORD PTR __imp_??0?$basic_string@DU?$char_traits@D@std@@V?$allocator@D@2@@std@@QAE@PBD@Z
  01908	3b f4		 cmp	 esi, esp
  0190a	e8 00 00 00 00	 call	 __RTC_CheckEsp
  0190f	c6 45 fc 07	 mov	 BYTE PTR __$EHRec$[ebp+8], 7
  01913	8b f4		 mov	 esi, esp
  01915	8b 15 00 00 00
	00		 mov	 edx, DWORD PTR _CONF_SETTING_MODULE_NAME
  0191b	52		 push	 edx
  0191c	8d 8d 9c fe ff
	ff		 lea	 ecx, DWORD PTR $T194513[ebp]
  01922	ff 15 00 00 00
	00		 call	 DWORD PTR __imp_??0?$basic_string@DU?$char_traits@D@std@@V?$allocator@D@2@@std@@QAE@PBD@Z
  01928	3b f4		 cmp	 esi, esp
  0192a	e8 00 00 00 00	 call	 __RTC_CheckEsp
  0192f	c6 45 fc 08	 mov	 BYTE PTR __$EHRec$[ebp+8], 8
  01933	8d 45 94	 lea	 eax, DWORD PTR _iColorSelect$[ebp]
  01936	50		 push	 eax
  01937	8d 8d b8 fe ff
	ff		 lea	 ecx, DWORD PTR $T194512[ebp]
  0193d	51		 push	 ecx
  0193e	8d 95 9c fe ff
	ff		 lea	 edx, DWORD PTR $T194513[ebp]
  01944	52		 push	 edx
  01945	e8 00 00 00 00	 call	 ?AfxGetUserConfig@@YAPAVAfxUserConfig@@XZ ; AfxGetUserConfig
  0194a	8b c8		 mov	 ecx, eax
  0194c	e8 00 00 00 00	 call	 ?GetConfigIntValue@AfxUserConfig@@QAEXABV?$basic_string@DU?$char_traits@D@std@@V?$allocator@D@2@@std@@0AAH@Z ; AfxUserConfig::GetConfigIntValue
  01951	c6 45 fc 07	 mov	 BYTE PTR __$EHRec$[ebp+8], 7
  01955	8b f4		 mov	 esi, esp
  01957	8d 8d 9c fe ff
	ff		 lea	 ecx, DWORD PTR $T194513[ebp]
  0195d	ff 15 00 00 00
	00		 call	 DWORD PTR __imp_??1?$basic_string@DU?$char_traits@D@std@@V?$allocator@D@2@@std@@QAE@XZ
  01963	3b f4		 cmp	 esi, esp
  01965	e8 00 00 00 00	 call	 __RTC_CheckEsp
  0196a	c6 45 fc 05	 mov	 BYTE PTR __$EHRec$[ebp+8], 5
  0196e	8b f4		 mov	 esi, esp
  01970	8d 8d b8 fe ff
	ff		 lea	 ecx, DWORD PTR $T194512[ebp]
  01976	ff 15 00 00 00
	00		 call	 DWORD PTR __imp_??1?$basic_string@DU?$char_traits@D@std@@V?$allocator@D@2@@std@@QAE@XZ
  0197c	3b f4		 cmp	 esi, esp
  0197e	e8 00 00 00 00	 call	 __RTC_CheckEsp

; 268  : 	int nIndex=0;

  01983	c7 45 8c 00 00
	00 00		 mov	 DWORD PTR _nIndex$[ebp], 0

; 269  : 	int col_btn_t;
; 270  : 
; 271  : 	col_btn_t = COL_BTN_TOP;

  0198a	c7 45 88 09 01
	00 00		 mov	 DWORD PTR _col_btn_t$[ebp], 265 ; 00000109H
$L192420:

; 272  : 
; 273  : 	while( itor != m_colbtnVec.end() )

  01991	8d 85 98 fe ff
	ff		 lea	 eax, DWORD PTR $T194514[ebp]
  01997	50		 push	 eax
  01998	8b 4d ec	 mov	 ecx, DWORD PTR _this$[ebp]
  0199b	81 c1 e4 00 00
	00		 add	 ecx, 228		; 000000e4H
  019a1	e8 00 00 00 00	 call	 ?end@?$vector@PAVCSkinButton2@@V?$allocator@PAVCSkinButton2@@@std@@@std@@QAE?AViterator@12@XZ ; std::vector<CSkinButton2 *,std::allocator<CSkinButton2 *> >::end
  019a6	50		 push	 eax
  019a7	8d 4d c8	 lea	 ecx, DWORD PTR _itor$[ebp]
  019aa	e8 00 00 00 00	 call	 ??9const_iterator@?$vector@PAVCSkinButton2@@V?$allocator@PAVCSkinButton2@@@std@@@std@@QBE_NABV012@@Z ; std::vector<CSkinButton2 *,std::allocator<CSkinButton2 *> >::const_iterator::operator!=
  019af	0f b6 c8	 movzx	 ecx, al
  019b2	85 c9		 test	 ecx, ecx
  019b4	0f 84 f2 01 00
	00		 je	 $L192421

; 274  : 	{
; 275  : 		(*itor)->Create( NULL, WS_CHILD | WS_VISIBLE|BS_OWNERDRAW,
; 276  : 			CRect( lrectClient.left+ COL_BTN_LEFT + nIndex*(18+COL_BTN_INTER),
; 277  : 			col_btn_t,
; 278  : 			lrectClient.left+ COL_BTN_LEFT + nIndex*(18+COL_BTN_INTER)+ 18,
; 279  : 			col_btn_t+18
; 280  : 			),
; 281  : 			this,
; 282  : 			ID_CLO_BTN_BEGAIN + nIndex
; 283  : 			);

  019ba	8d 4d c8	 lea	 ecx, DWORD PTR _itor$[ebp]
  019bd	e8 00 00 00 00	 call	 ??Diterator@?$vector@PAVCSkinButton2@@V?$allocator@PAVCSkinButton2@@@std@@@std@@QBEAAPAVCSkinButton2@@XZ ; std::vector<CSkinButton2 *,std::allocator<CSkinButton2 *> >::iterator::operator*
  019c2	8b 10		 mov	 edx, DWORD PTR [eax]
  019c4	89 95 bc fd ff
	ff		 mov	 DWORD PTR tv496[ebp], edx
  019ca	8b 45 8c	 mov	 eax, DWORD PTR _nIndex$[ebp]
  019cd	05 30 75 00 00	 add	 eax, 30000		; 00007530H
  019d2	8b f4		 mov	 esi, esp
  019d4	50		 push	 eax
  019d5	8b 4d ec	 mov	 ecx, DWORD PTR _this$[ebp]
  019d8	51		 push	 ecx
  019d9	8b 55 88	 mov	 edx, DWORD PTR _col_btn_t$[ebp]
  019dc	83 c2 12	 add	 edx, 18			; 00000012H
  019df	52		 push	 edx
  019e0	8b 45 8c	 mov	 eax, DWORD PTR _nIndex$[ebp]
  019e3	6b c0 18	 imul	 eax, 24			; 00000018H
  019e6	8b 4d d8	 mov	 ecx, DWORD PTR _lrectClient$[ebp]
  019e9	8d 54 01 1b	 lea	 edx, DWORD PTR [ecx+eax+27]
  019ed	52		 push	 edx
  019ee	8b 45 88	 mov	 eax, DWORD PTR _col_btn_t$[ebp]
  019f1	50		 push	 eax
  019f2	8b 4d 8c	 mov	 ecx, DWORD PTR _nIndex$[ebp]
  019f5	6b c9 18	 imul	 ecx, 24			; 00000018H
  019f8	8b 55 d8	 mov	 edx, DWORD PTR _lrectClient$[ebp]
  019fb	8d 44 0a 09	 lea	 eax, DWORD PTR [edx+ecx+9]
  019ff	50		 push	 eax
  01a00	8d 8d 88 fe ff
	ff		 lea	 ecx, DWORD PTR $T194515[ebp]
  01a06	e8 00 00 00 00	 call	 ??0CRect@@QAE@HHHH@Z	; CRect::CRect
  01a0b	50		 push	 eax
  01a0c	68 0b 00 00 50	 push	 1342177291		; 5000000bH
  01a11	6a 00		 push	 0
  01a13	8b 8d bc fd ff
	ff		 mov	 ecx, DWORD PTR tv496[ebp]
  01a19	8b 11		 mov	 edx, DWORD PTR [ecx]
  01a1b	8b 8d bc fd ff
	ff		 mov	 ecx, DWORD PTR tv496[ebp]
  01a21	ff 92 38 01 00
	00		 call	 DWORD PTR [edx+312]
  01a27	3b f4		 cmp	 esi, esp
  01a29	e8 00 00 00 00	 call	 __RTC_CheckEsp

; 284  : 		
; 285  : 		(*itor)->SetSkin(CString(skinPath.c_str()) + CString("\\png\\") + "right.png");

  01a2e	6a 00		 push	 0
  01a30	8b f4		 mov	 esi, esp
  01a32	68 00 00 00 00	 push	 OFFSET FLAT:$SG192430
  01a37	8d 8d 80 fe ff
	ff		 lea	 ecx, DWORD PTR $T194517[ebp]
  01a3d	ff 15 00 00 00
	00		 call	 DWORD PTR __imp_??0?$CStringT@DV?$StrTraitMFC_DLL@DV?$ChTraitsCRT@D@ATL@@@@@ATL@@QAE@PBD@Z
  01a43	3b f4		 cmp	 esi, esp
  01a45	e8 00 00 00 00	 call	 __RTC_CheckEsp
  01a4a	89 85 b8 fd ff
	ff		 mov	 DWORD PTR tv786[ebp], eax
  01a50	8b 85 b8 fd ff
	ff		 mov	 eax, DWORD PTR tv786[ebp]
  01a56	89 85 b4 fd ff
	ff		 mov	 DWORD PTR tv748[ebp], eax
  01a5c	c6 45 fc 09	 mov	 BYTE PTR __$EHRec$[ebp+8], 9
  01a60	8b f4		 mov	 esi, esp
  01a62	8d 4d a4	 lea	 ecx, DWORD PTR _skinPath$[ebp]
  01a65	ff 15 00 00 00
	00		 call	 DWORD PTR __imp_?c_str@?$basic_string@DU?$char_traits@D@std@@V?$allocator@D@2@@std@@QBEPBDXZ
  01a6b	3b f4		 cmp	 esi, esp
  01a6d	e8 00 00 00 00	 call	 __RTC_CheckEsp
  01a72	8b f4		 mov	 esi, esp
  01a74	50		 push	 eax
  01a75	8d 8d 7c fe ff
	ff		 lea	 ecx, DWORD PTR $T194518[ebp]
  01a7b	ff 15 00 00 00
	00		 call	 DWORD PTR __imp_??0?$CStringT@DV?$StrTraitMFC_DLL@DV?$ChTraitsCRT@D@ATL@@@@@ATL@@QAE@PBD@Z
  01a81	3b f4		 cmp	 esi, esp
  01a83	e8 00 00 00 00	 call	 __RTC_CheckEsp
  01a88	89 85 b0 fd ff
	ff		 mov	 DWORD PTR tv789[ebp], eax
  01a8e	8b 8d b0 fd ff
	ff		 mov	 ecx, DWORD PTR tv789[ebp]
  01a94	89 8d ac fd ff
	ff		 mov	 DWORD PTR tv750[ebp], ecx
  01a9a	c6 45 fc 0a	 mov	 BYTE PTR __$EHRec$[ebp+8], 10 ; 0000000aH
  01a9e	8b 95 b4 fd ff
	ff		 mov	 edx, DWORD PTR tv748[ebp]
  01aa4	52		 push	 edx
  01aa5	8b 85 ac fd ff
	ff		 mov	 eax, DWORD PTR tv750[ebp]
  01aab	50		 push	 eax
  01aac	8d 8d 78 fe ff
	ff		 lea	 ecx, DWORD PTR $T194519[ebp]
  01ab2	51		 push	 ecx
  01ab3	e8 00 00 00 00	 call	 ??HATL@@YA?AV?$CStringT@DV?$StrTraitMFC_DLL@DV?$ChTraitsCRT@D@ATL@@@@@0@ABV10@0@Z ; ATL::operator+
  01ab8	83 c4 0c	 add	 esp, 12			; 0000000cH
  01abb	89 85 a8 fd ff
	ff		 mov	 DWORD PTR tv792[ebp], eax
  01ac1	8b 95 a8 fd ff
	ff		 mov	 edx, DWORD PTR tv792[ebp]
  01ac7	89 95 a4 fd ff
	ff		 mov	 DWORD PTR tv752[ebp], edx
  01acd	c6 45 fc 0b	 mov	 BYTE PTR __$EHRec$[ebp+8], 11 ; 0000000bH
  01ad1	51		 push	 ecx
  01ad2	8b c4		 mov	 eax, esp
  01ad4	89 a5 84 fe ff
	ff		 mov	 DWORD PTR $T194516[ebp], esp
  01ada	68 00 00 00 00	 push	 OFFSET FLAT:$SG192429
  01adf	8b 8d a4 fd ff
	ff		 mov	 ecx, DWORD PTR tv752[ebp]
  01ae5	51		 push	 ecx
  01ae6	50		 push	 eax
  01ae7	e8 00 00 00 00	 call	 ??HATL@@YA?AV?$CStringT@DV?$StrTraitMFC_DLL@DV?$ChTraitsCRT@D@ATL@@@@@0@ABV10@PBD@Z ; ATL::operator+
  01aec	83 c4 0c	 add	 esp, 12			; 0000000cH
  01aef	89 85 a0 fd ff
	ff		 mov	 DWORD PTR tv795[ebp], eax
  01af5	8b 95 a0 fd ff
	ff		 mov	 edx, DWORD PTR tv795[ebp]
  01afb	89 95 9c fd ff
	ff		 mov	 DWORD PTR tv755[ebp], edx
  01b01	c6 45 fc 0c	 mov	 BYTE PTR __$EHRec$[ebp+8], 12 ; 0000000cH
  01b05	8d 4d c8	 lea	 ecx, DWORD PTR _itor$[ebp]
  01b08	e8 00 00 00 00	 call	 ??Diterator@?$vector@PAVCSkinButton2@@V?$allocator@PAVCSkinButton2@@@std@@@std@@QBEAAPAVCSkinButton2@@XZ ; std::vector<CSkinButton2 *,std::allocator<CSkinButton2 *> >::iterator::operator*
  01b0d	8b 08		 mov	 ecx, DWORD PTR [eax]
  01b0f	c6 45 fc 0b	 mov	 BYTE PTR __$EHRec$[ebp+8], 11 ; 0000000bH
  01b13	e8 00 00 00 00	 call	 ?SetSkin@CSkinButton2@@QAEHV?$CStringT@DV?$StrTraitMFC_DLL@DV?$ChTraitsCRT@D@ATL@@@@@ATL@@H@Z ; CSkinButton2::SetSkin
  01b18	c6 45 fc 0a	 mov	 BYTE PTR __$EHRec$[ebp+8], 10 ; 0000000aH
  01b1c	8b f4		 mov	 esi, esp
  01b1e	8d 8d 78 fe ff
	ff		 lea	 ecx, DWORD PTR $T194519[ebp]
  01b24	ff 15 00 00 00
	00		 call	 DWORD PTR __imp_??1?$CStringT@DV?$StrTraitMFC_DLL@DV?$ChTraitsCRT@D@ATL@@@@@ATL@@QAE@XZ
  01b2a	3b f4		 cmp	 esi, esp
  01b2c	e8 00 00 00 00	 call	 __RTC_CheckEsp
  01b31	c6 45 fc 09	 mov	 BYTE PTR __$EHRec$[ebp+8], 9
  01b35	8b f4		 mov	 esi, esp
  01b37	8d 8d 7c fe ff
	ff		 lea	 ecx, DWORD PTR $T194518[ebp]
  01b3d	ff 15 00 00 00
	00		 call	 DWORD PTR __imp_??1?$CStringT@DV?$StrTraitMFC_DLL@DV?$ChTraitsCRT@D@ATL@@@@@ATL@@QAE@XZ
  01b43	3b f4		 cmp	 esi, esp
  01b45	e8 00 00 00 00	 call	 __RTC_CheckEsp
  01b4a	c6 45 fc 05	 mov	 BYTE PTR __$EHRec$[ebp+8], 5
  01b4e	8b f4		 mov	 esi, esp
  01b50	8d 8d 80 fe ff
	ff		 lea	 ecx, DWORD PTR $T194517[ebp]
  01b56	ff 15 00 00 00
	00		 call	 DWORD PTR __imp_??1?$CStringT@DV?$StrTraitMFC_DLL@DV?$ChTraitsCRT@D@ATL@@@@@ATL@@QAE@XZ
  01b5c	3b f4		 cmp	 esi, esp
  01b5e	e8 00 00 00 00	 call	 __RTC_CheckEsp

; 286  : 		if( nIndex == iColorSelect )

  01b63	8b 45 8c	 mov	 eax, DWORD PTR _nIndex$[ebp]
  01b66	3b 45 94	 cmp	 eax, DWORD PTR _iColorSelect$[ebp]
  01b69	75 11		 jne	 SHORT $L192431

; 287  : 			(*itor)->SetCheck(1);

  01b6b	6a 01		 push	 1
  01b6d	8d 4d c8	 lea	 ecx, DWORD PTR _itor$[ebp]
  01b70	e8 00 00 00 00	 call	 ??Diterator@?$vector@PAVCSkinButton2@@V?$allocator@PAVCSkinButton2@@@std@@@std@@QBEAAPAVCSkinButton2@@XZ ; std::vector<CSkinButton2 *,std::allocator<CSkinButton2 *> >::iterator::operator*
  01b75	8b 08		 mov	 ecx, DWORD PTR [eax]
  01b77	e8 00 00 00 00	 call	 ?SetCheck@CSkinButton2@@QAEXH@Z ; CSkinButton2::SetCheck
$L192431:

; 288  : 		(*itor)->ShowWindow(SW_SHOW);			

  01b7c	6a 05		 push	 5
  01b7e	8d 4d c8	 lea	 ecx, DWORD PTR _itor$[ebp]
  01b81	e8 00 00 00 00	 call	 ??Diterator@?$vector@PAVCSkinButton2@@V?$allocator@PAVCSkinButton2@@@std@@@std@@QBEAAPAVCSkinButton2@@XZ ; std::vector<CSkinButton2 *,std::allocator<CSkinButton2 *> >::iterator::operator*
  01b86	8b 08		 mov	 ecx, DWORD PTR [eax]
  01b88	e8 00 00 00 00	 call	 ?ShowWindow@CWnd@@QAEHH@Z ; CWnd::ShowWindow

; 289  : 		itor++;

  01b8d	6a 00		 push	 0
  01b8f	8d 8d 74 fe ff
	ff		 lea	 ecx, DWORD PTR $T194520[ebp]
  01b95	51		 push	 ecx
  01b96	8d 4d c8	 lea	 ecx, DWORD PTR _itor$[ebp]
  01b99	e8 00 00 00 00	 call	 ??Eiterator@?$vector@PAVCSkinButton2@@V?$allocator@PAVCSkinButton2@@@std@@@std@@QAE?AV012@H@Z ; std::vector<CSkinButton2 *,std::allocator<CSkinButton2 *> >::iterator::operator++

; 290  : 		nIndex++;

  01b9e	8b 55 8c	 mov	 edx, DWORD PTR _nIndex$[ebp]
  01ba1	83 c2 01	 add	 edx, 1
  01ba4	89 55 8c	 mov	 DWORD PTR _nIndex$[ebp], edx

; 291  : 	}

  01ba7	e9 e5 fd ff ff	 jmp	 $L192420
$L192421:

; 292  : 
; 293  : 	m_colBtnMore.Create(  NULL, WS_CHILD | WS_VISIBLE|BS_OWNERDRAW,
; 294  : 		CRect(lrectClient.left+ COL_BTN_LEFT + nIndex*(18+COL_BTN_INTER),// lrectClient.left+ COL_BTN_LEFT ,
; 295  : 		col_btn_t,
; 296  : 		lrectClient.left+ COL_BTN_LEFT + nIndex*(18+COL_BTN_INTER)+ 18,//lrectClient.left+ COL_BTN_LEFT + 18,
; 297  : 		col_btn_t+18
; 298  : 		),
; 299  : 		this,
; 300  : 		ID_MORE_COLOR
; 301  : 		);

  01bac	8b f4		 mov	 esi, esp
  01bae	68 20 4e 00 00	 push	 20000			; 00004e20H
  01bb3	8b 45 ec	 mov	 eax, DWORD PTR _this$[ebp]
  01bb6	50		 push	 eax
  01bb7	8b 4d 88	 mov	 ecx, DWORD PTR _col_btn_t$[ebp]
  01bba	83 c1 12	 add	 ecx, 18			; 00000012H
  01bbd	51		 push	 ecx
  01bbe	8b 55 8c	 mov	 edx, DWORD PTR _nIndex$[ebp]
  01bc1	6b d2 18	 imul	 edx, 24			; 00000018H
  01bc4	8b 45 d8	 mov	 eax, DWORD PTR _lrectClient$[ebp]
  01bc7	8d 4c 10 1b	 lea	 ecx, DWORD PTR [eax+edx+27]
  01bcb	51		 push	 ecx
  01bcc	8b 55 88	 mov	 edx, DWORD PTR _col_btn_t$[ebp]
  01bcf	52		 push	 edx
  01bd0	8b 45 8c	 mov	 eax, DWORD PTR _nIndex$[ebp]
  01bd3	6b c0 18	 imul	 eax, 24			; 00000018H
  01bd6	8b 4d d8	 mov	 ecx, DWORD PTR _lrectClient$[ebp]
  01bd9	8d 54 01 09	 lea	 edx, DWORD PTR [ecx+eax+9]
  01bdd	52		 push	 edx
  01bde	8d 8d 64 fe ff
	ff		 lea	 ecx, DWORD PTR $T194521[ebp]
  01be4	e8 00 00 00 00	 call	 ??0CRect@@QAE@HHHH@Z	; CRect::CRect
  01be9	50		 push	 eax
  01bea	68 0b 00 00 50	 push	 1342177291		; 5000000bH
  01bef	6a 00		 push	 0
  01bf1	8b 4d ec	 mov	 ecx, DWORD PTR _this$[ebp]
  01bf4	81 c1 cc 07 00
	00		 add	 ecx, 1996		; 000007ccH
  01bfa	8b 45 ec	 mov	 eax, DWORD PTR _this$[ebp]
  01bfd	8b 90 cc 07 00
	00		 mov	 edx, DWORD PTR [eax+1996]
  01c03	ff 92 38 01 00
	00		 call	 DWORD PTR [edx+312]
  01c09	3b f4		 cmp	 esi, esp
  01c0b	e8 00 00 00 00	 call	 __RTC_CheckEsp

; 302  : 	m_colBtnMore.ShowWindow(SW_HIDE);

  01c10	6a 00		 push	 0
  01c12	8b 4d ec	 mov	 ecx, DWORD PTR _this$[ebp]
  01c15	81 c1 cc 07 00
	00		 add	 ecx, 1996		; 000007ccH
  01c1b	e8 00 00 00 00	 call	 ?ShowWindow@CWnd@@QAEHH@Z ; CWnd::ShowWindow

; 303  : 
; 304  : 
; 305  : 	m_colBtnMore.m_enmuDrawType = CSkinButton2::NO_FRAME_SELECT;

  01c20	8b 45 ec	 mov	 eax, DWORD PTR _this$[ebp]
  01c23	c7 80 20 08 00
	00 10 00 00 00	 mov	 DWORD PTR [eax+2080], 16 ; 00000010H

; 306  : 	m_colBtnMore.m_bHandMouse = FALSE;

  01c2d	8b 4d ec	 mov	 ecx, DWORD PTR _this$[ebp]
  01c30	c7 81 28 08 00
	00 00 00 00 00	 mov	 DWORD PTR [ecx+2088], 0

; 307  : 	int iUserColor = 0;

  01c3a	c7 45 80 00 00
	00 00		 mov	 DWORD PTR _iUserColor$[ebp], 0

; 308  : 	::AfxGetUserConfig()->GetConfigIntValue(CONF_SETTING_MODULE_NAME, CONF_SETTING_COLOR_USER,iUserColor);

  01c41	8b f4		 mov	 esi, esp
  01c43	8b 15 00 00 00
	00		 mov	 edx, DWORD PTR _CONF_SETTING_COLOR_USER
  01c49	52		 push	 edx
  01c4a	8d 8d 48 fe ff
	ff		 lea	 ecx, DWORD PTR $T194522[ebp]
  01c50	ff 15 00 00 00
	00		 call	 DWORD PTR __imp_??0?$basic_string@DU?$char_traits@D@std@@V?$allocator@D@2@@std@@QAE@PBD@Z
  01c56	3b f4		 cmp	 esi, esp
  01c58	e8 00 00 00 00	 call	 __RTC_CheckEsp
  01c5d	c6 45 fc 0d	 mov	 BYTE PTR __$EHRec$[ebp+8], 13 ; 0000000dH
  01c61	8b f4		 mov	 esi, esp
  01c63	a1 00 00 00 00	 mov	 eax, DWORD PTR _CONF_SETTING_MODULE_NAME
  01c68	50		 push	 eax
  01c69	8d 8d 2c fe ff
	ff		 lea	 ecx, DWORD PTR $T194523[ebp]
  01c6f	ff 15 00 00 00
	00		 call	 DWORD PTR __imp_??0?$basic_string@DU?$char_traits@D@std@@V?$allocator@D@2@@std@@QAE@PBD@Z
  01c75	3b f4		 cmp	 esi, esp
  01c77	e8 00 00 00 00	 call	 __RTC_CheckEsp
  01c7c	c6 45 fc 0e	 mov	 BYTE PTR __$EHRec$[ebp+8], 14 ; 0000000eH
  01c80	8d 4d 80	 lea	 ecx, DWORD PTR _iUserColor$[ebp]
  01c83	51		 push	 ecx
  01c84	8d 95 48 fe ff
	ff		 lea	 edx, DWORD PTR $T194522[ebp]
  01c8a	52		 push	 edx
  01c8b	8d 85 2c fe ff
	ff		 lea	 eax, DWORD PTR $T194523[ebp]
  01c91	50		 push	 eax
  01c92	e8 00 00 00 00	 call	 ?AfxGetUserConfig@@YAPAVAfxUserConfig@@XZ ; AfxGetUserConfig
  01c97	8b c8		 mov	 ecx, eax
  01c99	e8 00 00 00 00	 call	 ?GetConfigIntValue@AfxUserConfig@@QAEXABV?$basic_string@DU?$char_traits@D@std@@V?$allocator@D@2@@std@@0AAH@Z ; AfxUserConfig::GetConfigIntValue
  01c9e	c6 45 fc 0d	 mov	 BYTE PTR __$EHRec$[ebp+8], 13 ; 0000000dH
  01ca2	8b f4		 mov	 esi, esp
  01ca4	8d 8d 2c fe ff
	ff		 lea	 ecx, DWORD PTR $T194523[ebp]
  01caa	ff 15 00 00 00
	00		 call	 DWORD PTR __imp_??1?$basic_string@DU?$char_traits@D@std@@V?$allocator@D@2@@std@@QAE@XZ
  01cb0	3b f4		 cmp	 esi, esp
  01cb2	e8 00 00 00 00	 call	 __RTC_CheckEsp
  01cb7	c6 45 fc 05	 mov	 BYTE PTR __$EHRec$[ebp+8], 5
  01cbb	8b f4		 mov	 esi, esp
  01cbd	8d 8d 48 fe ff
	ff		 lea	 ecx, DWORD PTR $T194522[ebp]
  01cc3	ff 15 00 00 00
	00		 call	 DWORD PTR __imp_??1?$basic_string@DU?$char_traits@D@std@@V?$allocator@D@2@@std@@QAE@XZ
  01cc9	3b f4		 cmp	 esi, esp
  01ccb	e8 00 00 00 00	 call	 __RTC_CheckEsp

; 309  : 	if( iUserColor == 0 )

  01cd0	83 7d 80 00	 cmp	 DWORD PTR _iUserColor$[ebp], 0
  01cd4	75 1e		 jne	 SHORT $L192437

; 310  : 	{
; 311  : 		m_colBtnMore.SetBKColor(200,200,0,0 );

  01cd6	6a 00		 push	 0
  01cd8	6a 00		 push	 0
  01cda	68 c8 00 00 00	 push	 200			; 000000c8H
  01cdf	68 c8 00 00 00	 push	 200			; 000000c8H
  01ce4	8b 4d ec	 mov	 ecx, DWORD PTR _this$[ebp]
  01ce7	81 c1 cc 07 00
	00		 add	 ecx, 1996		; 000007ccH
  01ced	e8 00 00 00 00	 call	 ?SetBKColor@CSkinButton2@@QAEXEEEE@Z ; CSkinButton2::SetBKColor

; 312  : 	}
; 313  : 	else

  01cf2	eb 26		 jmp	 SHORT $L192438
$L192437:

; 314  : 	{
; 315  : 		m_colBtnMore.SetBKColor(255,GetRValue(iUserColor),GetGValue(iUserColor),GetBValue(iUserColor) );

  01cf4	8b 4d 80	 mov	 ecx, DWORD PTR _iUserColor$[ebp]
  01cf7	c1 f9 10	 sar	 ecx, 16			; 00000010H
  01cfa	51		 push	 ecx
  01cfb	0f b7 55 80	 movzx	 edx, WORD PTR _iUserColor$[ebp]
  01cff	c1 fa 08	 sar	 edx, 8
  01d02	52		 push	 edx
  01d03	8a 45 80	 mov	 al, BYTE PTR _iUserColor$[ebp]
  01d06	50		 push	 eax
  01d07	68 ff 00 00 00	 push	 255			; 000000ffH
  01d0c	8b 4d ec	 mov	 ecx, DWORD PTR _this$[ebp]
  01d0f	81 c1 cc 07 00
	00		 add	 ecx, 1996		; 000007ccH
  01d15	e8 00 00 00 00	 call	 ?SetBKColor@CSkinButton2@@QAEXEEEE@Z ; CSkinButton2::SetBKColor
$L192438:

; 316  : 	}
; 317  : 
; 318  : 	m_colBtnMore.SetSkin(CString(skinPath.c_str()) + CString("\\png\\") + "right.png");

  01d1a	6a 00		 push	 0
  01d1c	8b f4		 mov	 esi, esp
  01d1e	68 00 00 00 00	 push	 OFFSET FLAT:$SG192449
  01d23	8d 8d 24 fe ff
	ff		 lea	 ecx, DWORD PTR $T194525[ebp]
  01d29	ff 15 00 00 00
	00		 call	 DWORD PTR __imp_??0?$CStringT@DV?$StrTraitMFC_DLL@DV?$ChTraitsCRT@D@ATL@@@@@ATL@@QAE@PBD@Z
  01d2f	3b f4		 cmp	 esi, esp
  01d31	e8 00 00 00 00	 call	 __RTC_CheckEsp
  01d36	89 85 98 fd ff
	ff		 mov	 DWORD PTR tv800[ebp], eax
  01d3c	8b 8d 98 fd ff
	ff		 mov	 ecx, DWORD PTR tv800[ebp]
  01d42	89 8d 94 fd ff
	ff		 mov	 DWORD PTR tv759[ebp], ecx
  01d48	c6 45 fc 0f	 mov	 BYTE PTR __$EHRec$[ebp+8], 15 ; 0000000fH
  01d4c	8b f4		 mov	 esi, esp
  01d4e	8d 4d a4	 lea	 ecx, DWORD PTR _skinPath$[ebp]
  01d51	ff 15 00 00 00
	00		 call	 DWORD PTR __imp_?c_str@?$basic_string@DU?$char_traits@D@std@@V?$allocator@D@2@@std@@QBEPBDXZ
  01d57	3b f4		 cmp	 esi, esp
  01d59	e8 00 00 00 00	 call	 __RTC_CheckEsp
  01d5e	8b f4		 mov	 esi, esp
  01d60	50		 push	 eax
  01d61	8d 8d 20 fe ff
	ff		 lea	 ecx, DWORD PTR $T194526[ebp]
  01d67	ff 15 00 00 00
	00		 call	 DWORD PTR __imp_??0?$CStringT@DV?$StrTraitMFC_DLL@DV?$ChTraitsCRT@D@ATL@@@@@ATL@@QAE@PBD@Z
  01d6d	3b f4		 cmp	 esi, esp
  01d6f	e8 00 00 00 00	 call	 __RTC_CheckEsp
  01d74	89 85 90 fd ff
	ff		 mov	 DWORD PTR tv803[ebp], eax
  01d7a	8b 95 90 fd ff
	ff		 mov	 edx, DWORD PTR tv803[ebp]
  01d80	89 95 8c fd ff
	ff		 mov	 DWORD PTR tv761[ebp], edx
  01d86	c6 45 fc 10	 mov	 BYTE PTR __$EHRec$[ebp+8], 16 ; 00000010H
  01d8a	8b 85 94 fd ff
	ff		 mov	 eax, DWORD PTR tv759[ebp]
  01d90	50		 push	 eax
  01d91	8b 8d 8c fd ff
	ff		 mov	 ecx, DWORD PTR tv761[ebp]
  01d97	51		 push	 ecx
  01d98	8d 95 1c fe ff
	ff		 lea	 edx, DWORD PTR $T194527[ebp]
  01d9e	52		 push	 edx
  01d9f	e8 00 00 00 00	 call	 ??HATL@@YA?AV?$CStringT@DV?$StrTraitMFC_DLL@DV?$ChTraitsCRT@D@ATL@@@@@0@ABV10@0@Z ; ATL::operator+
  01da4	83 c4 0c	 add	 esp, 12			; 0000000cH
  01da7	89 85 88 fd ff
	ff		 mov	 DWORD PTR tv806[ebp], eax
  01dad	8b 85 88 fd ff
	ff		 mov	 eax, DWORD PTR tv806[ebp]
  01db3	89 85 84 fd ff
	ff		 mov	 DWORD PTR tv763[ebp], eax
  01db9	c6 45 fc 11	 mov	 BYTE PTR __$EHRec$[ebp+8], 17 ; 00000011H
  01dbd	51		 push	 ecx
  01dbe	8b cc		 mov	 ecx, esp
  01dc0	89 a5 28 fe ff
	ff		 mov	 DWORD PTR $T194524[ebp], esp
  01dc6	68 00 00 00 00	 push	 OFFSET FLAT:$SG192448
  01dcb	8b 95 84 fd ff
	ff		 mov	 edx, DWORD PTR tv763[ebp]
  01dd1	52		 push	 edx
  01dd2	51		 push	 ecx
  01dd3	e8 00 00 00 00	 call	 ??HATL@@YA?AV?$CStringT@DV?$StrTraitMFC_DLL@DV?$ChTraitsCRT@D@ATL@@@@@0@ABV10@PBD@Z ; ATL::operator+
  01dd8	83 c4 0c	 add	 esp, 12			; 0000000cH
  01ddb	89 85 80 fd ff
	ff		 mov	 DWORD PTR tv766[ebp], eax
  01de1	8b 4d ec	 mov	 ecx, DWORD PTR _this$[ebp]
  01de4	81 c1 cc 07 00
	00		 add	 ecx, 1996		; 000007ccH
  01dea	e8 00 00 00 00	 call	 ?SetSkin@CSkinButton2@@QAEHV?$CStringT@DV?$StrTraitMFC_DLL@DV?$ChTraitsCRT@D@ATL@@@@@ATL@@H@Z ; CSkinButton2::SetSkin
  01def	c6 45 fc 10	 mov	 BYTE PTR __$EHRec$[ebp+8], 16 ; 00000010H
  01df3	8b f4		 mov	 esi, esp
  01df5	8d 8d 1c fe ff
	ff		 lea	 ecx, DWORD PTR $T194527[ebp]
  01dfb	ff 15 00 00 00
	00		 call	 DWORD PTR __imp_??1?$CStringT@DV?$StrTraitMFC_DLL@DV?$ChTraitsCRT@D@ATL@@@@@ATL@@QAE@XZ
  01e01	3b f4		 cmp	 esi, esp
  01e03	e8 00 00 00 00	 call	 __RTC_CheckEsp
  01e08	c6 45 fc 0f	 mov	 BYTE PTR __$EHRec$[ebp+8], 15 ; 0000000fH
  01e0c	8b f4		 mov	 esi, esp
  01e0e	8d 8d 20 fe ff
	ff		 lea	 ecx, DWORD PTR $T194526[ebp]
  01e14	ff 15 00 00 00
	00		 call	 DWORD PTR __imp_??1?$CStringT@DV?$StrTraitMFC_DLL@DV?$ChTraitsCRT@D@ATL@@@@@ATL@@QAE@XZ
  01e1a	3b f4		 cmp	 esi, esp
  01e1c	e8 00 00 00 00	 call	 __RTC_CheckEsp
  01e21	c6 45 fc 05	 mov	 BYTE PTR __$EHRec$[ebp+8], 5
  01e25	8b f4		 mov	 esi, esp
  01e27	8d 8d 24 fe ff
	ff		 lea	 ecx, DWORD PTR $T194525[ebp]
  01e2d	ff 15 00 00 00
	00		 call	 DWORD PTR __imp_??1?$CStringT@DV?$StrTraitMFC_DLL@DV?$ChTraitsCRT@D@ATL@@@@@ATL@@QAE@XZ
  01e33	3b f4		 cmp	 esi, esp
  01e35	e8 00 00 00 00	 call	 __RTC_CheckEsp

; 319  : 
; 320  : 	if( iColorSelect == -1 )

  01e3a	83 7d 94 ff	 cmp	 DWORD PTR _iColorSelect$[ebp], -1
  01e3e	75 10		 jne	 SHORT $L192450

; 321  : 	{
; 322  : 		m_colBtnMore.SetCheck(1);

  01e40	6a 01		 push	 1
  01e42	8b 4d ec	 mov	 ecx, DWORD PTR _this$[ebp]
  01e45	81 c1 cc 07 00
	00		 add	 ecx, 1996		; 000007ccH
  01e4b	e8 00 00 00 00	 call	 ?SetCheck@CSkinButton2@@QAEXH@Z ; CSkinButton2::SetCheck
$L192450:

; 323  : 	}
; 324  : 	SetTimer(111, 50, NULL);

  01e50	6a 00		 push	 0
  01e52	6a 32		 push	 50			; 00000032H
  01e54	6a 6f		 push	 111			; 0000006fH
  01e56	8b 4d ec	 mov	 ecx, DWORD PTR _this$[ebp]
  01e59	e8 00 00 00 00	 call	 ?SetTimer@CWnd@@QAEIIIP6GXPAUHWND__@@IIK@Z@Z ; CWnd::SetTimer

; 325  : 	return 0;

  01e5e	c7 85 18 fe ff
	ff 00 00 00 00	 mov	 DWORD PTR $T194528[ebp], 0
  01e68	c7 45 fc ff ff
	ff ff		 mov	 DWORD PTR __$EHRec$[ebp+8], -1
  01e6f	8b f4		 mov	 esi, esp
  01e71	8d 4d a4	 lea	 ecx, DWORD PTR _skinPath$[ebp]
  01e74	ff 15 00 00 00
	00		 call	 DWORD PTR __imp_??1?$basic_string@DU?$char_traits@D@std@@V?$allocator@D@2@@std@@QAE@XZ
  01e7a	3b f4		 cmp	 esi, esp
  01e7c	e8 00 00 00 00	 call	 __RTC_CheckEsp
  01e81	8b 85 18 fe ff
	ff		 mov	 eax, DWORD PTR $T194528[ebp]
$L192368:

; 326  : }

  01e87	52		 push	 edx
  01e88	8b cd		 mov	 ecx, ebp
  01e8a	50		 push	 eax
  01e8b	8d 15 00 00 00
	00		 lea	 edx, DWORD PTR $L194564
  01e91	e8 00 00 00 00	 call	 @_RTC_CheckStackVars@8
  01e96	58		 pop	 eax
  01e97	5a		 pop	 edx
  01e98	8b 4d f4	 mov	 ecx, DWORD PTR __$EHRec$[ebp]
  01e9b	64 89 0d 00 00
	00 00		 mov	 DWORD PTR fs:__except_list, ecx
  01ea2	8b 4d f0	 mov	 ecx, DWORD PTR __$ArrayPad$[ebp]
  01ea5	e8 00 00 00 00	 call	 @__security_check_cookie@4
  01eaa	5f		 pop	 edi
  01eab	5e		 pop	 esi
  01eac	81 c4 80 02 00
	00		 add	 esp, 640		; 00000280H
  01eb2	3b ec		 cmp	 ebp, esp
  01eb4	e8 00 00 00 00	 call	 __RTC_CheckEsp
  01eb9	8b e5		 mov	 esp, ebp
  01ebb	5d		 pop	 ebp
  01ebc	c2 04 00	 ret	 4
$L194564:
  01ebf	05 00 00 00	 DD	 5
  01ec3	00 00 00 00	 DD	 $L194563
$L194563:
  01ec7	d8 ff ff ff	 DD	 -40			; ffffffd8H
  01ecb	10 00 00 00	 DD	 16			; 00000010H
  01ecf	00 00 00 00	 DD	 $L194556
  01ed3	c8 ff ff ff	 DD	 -56			; ffffffc8H
  01ed7	04 00 00 00	 DD	 4
  01edb	00 00 00 00	 DD	 $L194557
  01edf	a4 ff ff ff	 DD	 -92			; ffffffa4H
  01ee3	1c 00 00 00	 DD	 28			; 0000001cH
  01ee7	00 00 00 00	 DD	 $L194558
  01eeb	94 ff ff ff	 DD	 -108			; ffffff94H
  01eef	04 00 00 00	 DD	 4
  01ef3	00 00 00 00	 DD	 $L194559
  01ef7	80 ff ff ff	 DD	 -128			; ffffff80H
  01efb	04 00 00 00	 DD	 4
  01eff	00 00 00 00	 DD	 $L194560
$L194560:
  01f03	69		 DB	 105			; 00000069H
  01f04	55		 DB	 85			; 00000055H
  01f05	73		 DB	 115			; 00000073H
  01f06	65		 DB	 101			; 00000065H
  01f07	72		 DB	 114			; 00000072H
  01f08	43		 DB	 67			; 00000043H
  01f09	6f		 DB	 111			; 0000006fH
  01f0a	6c		 DB	 108			; 0000006cH
  01f0b	6f		 DB	 111			; 0000006fH
  01f0c	72		 DB	 114			; 00000072H
  01f0d	00		 DB	 0
$L194559:
  01f0e	69		 DB	 105			; 00000069H
  01f0f	43		 DB	 67			; 00000043H
  01f10	6f		 DB	 111			; 0000006fH
  01f11	6c		 DB	 108			; 0000006cH
  01f12	6f		 DB	 111			; 0000006fH
  01f13	72		 DB	 114			; 00000072H
  01f14	53		 DB	 83			; 00000053H
  01f15	65		 DB	 101			; 00000065H
  01f16	6c		 DB	 108			; 0000006cH
  01f17	65		 DB	 101			; 00000065H
  01f18	63		 DB	 99			; 00000063H
  01f19	74		 DB	 116			; 00000074H
  01f1a	00		 DB	 0
$L194558:
  01f1b	73		 DB	 115			; 00000073H
  01f1c	6b		 DB	 107			; 0000006bH
  01f1d	69		 DB	 105			; 00000069H
  01f1e	6e		 DB	 110			; 0000006eH
  01f1f	50		 DB	 80			; 00000050H
  01f20	61		 DB	 97			; 00000061H
  01f21	74		 DB	 116			; 00000074H
  01f22	68		 DB	 104			; 00000068H
  01f23	00		 DB	 0
$L194557:
  01f24	69		 DB	 105			; 00000069H
  01f25	74		 DB	 116			; 00000074H
  01f26	6f		 DB	 111			; 0000006fH
  01f27	72		 DB	 114			; 00000072H
  01f28	00		 DB	 0
$L194556:
  01f29	6c		 DB	 108			; 0000006cH
  01f2a	72		 DB	 114			; 00000072H
  01f2b	65		 DB	 101			; 00000065H
  01f2c	63		 DB	 99			; 00000063H
  01f2d	74		 DB	 116			; 00000074H
  01f2e	43		 DB	 67			; 00000043H
  01f2f	6c		 DB	 108			; 0000006cH
  01f30	69		 DB	 105			; 00000069H
  01f31	65		 DB	 101			; 00000065H
  01f32	6e		 DB	 110			; 0000006eH
  01f33	74		 DB	 116			; 00000074H
  01f34	00		 DB	 0
_TEXT	ENDS
text$x	SEGMENT
$L194529:
  001e8	8b f4		 mov	 esi, esp
  001ea	8b 8d 78 ff ff
	ff		 mov	 ecx, DWORD PTR $T194494[ebp]
  001f0	ff 15 00 00 00
	00		 call	 DWORD PTR __imp_??1?$CStringT@DV?$StrTraitMFC_DLL@DV?$ChTraitsCRT@D@ATL@@@@@ATL@@QAE@XZ
  001f6	3b f4		 cmp	 esi, esp
  001f8	e9 00 00 00 00	 jmp	 __RTC_CheckEsp
$L194530:
  001fd	8b f4		 mov	 esi, esp
  001ff	8b 8d 74 ff ff
	ff		 mov	 ecx, DWORD PTR $T194495[ebp]
  00205	ff 15 00 00 00
	00		 call	 DWORD PTR __imp_??1?$CStringT@DV?$StrTraitMFC_DLL@DV?$ChTraitsCRT@D@ATL@@@@@ATL@@QAE@XZ
  0020b	3b f4		 cmp	 esi, esp
  0020d	e9 00 00 00 00	 jmp	 __RTC_CheckEsp
$L194537:
  00212	8b f4		 mov	 esi, esp
  00214	8b 8d f8 fe ff
	ff		 mov	 ecx, DWORD PTR $T194508[ebp]
  0021a	ff 15 00 00 00
	00		 call	 DWORD PTR __imp_??1?$CStringT@DV?$StrTraitMFC_DLL@DV?$ChTraitsCRT@D@ATL@@@@@ATL@@QAE@XZ
  00220	3b f4		 cmp	 esi, esp
  00222	e9 00 00 00 00	 jmp	 __RTC_CheckEsp
$L194539:
  00227	8b f4		 mov	 esi, esp
  00229	8d 8d f0 fe ff
	ff		 lea	 ecx, DWORD PTR $T194510[ebp]
  0022f	ff 15 00 00 00
	00		 call	 DWORD PTR __imp_??1?$CStringT@DV?$StrTraitMFC_DLL@DV?$ChTraitsCRT@D@ATL@@@@@ATL@@QAE@XZ
  00235	3b f4		 cmp	 esi, esp
  00237	e9 00 00 00 00	 jmp	 __RTC_CheckEsp
$L194540:
  0023c	8b f4		 mov	 esi, esp
  0023e	8d 4d a4	 lea	 ecx, DWORD PTR _skinPath$[ebp]
  00241	ff 15 00 00 00
	00		 call	 DWORD PTR __imp_??1?$basic_string@DU?$char_traits@D@std@@V?$allocator@D@2@@std@@QAE@XZ
  00247	3b f4		 cmp	 esi, esp
  00249	e9 00 00 00 00	 jmp	 __RTC_CheckEsp
$L194541:
  0024e	8b f4		 mov	 esi, esp
  00250	8d 8d d4 fe ff
	ff		 lea	 ecx, DWORD PTR $T194511[ebp]
  00256	ff 15 00 00 00
	00		 call	 DWORD PTR __imp_??1?$basic_string@DU?$char_traits@D@std@@V?$allocator@D@2@@std@@QAE@XZ
  0025c	3b f4		 cmp	 esi, esp
  0025e	e9 00 00 00 00	 jmp	 __RTC_CheckEsp
$L194542:
  00263	8b f4		 mov	 esi, esp
  00265	8d 8d b8 fe ff
	ff		 lea	 ecx, DWORD PTR $T194512[ebp]
  0026b	ff 15 00 00 00
	00		 call	 DWORD PTR __imp_??1?$basic_string@DU?$char_traits@D@std@@V?$allocator@D@2@@std@@QAE@XZ
  00271	3b f4		 cmp	 esi, esp
  00273	e9 00 00 00 00	 jmp	 __RTC_CheckEsp
$L194543:
  00278	8b f4		 mov	 esi, esp
  0027a	8d 8d 9c fe ff
	ff		 lea	 ecx, DWORD PTR $T194513[ebp]
  00280	ff 15 00 00 00
	00		 call	 DWORD PTR __imp_??1?$basic_string@DU?$char_traits@D@std@@V?$allocator@D@2@@std@@QAE@XZ
  00286	3b f4		 cmp	 esi, esp
  00288	e9 00 00 00 00	 jmp	 __RTC_CheckEsp
$L194544:
  0028d	8b f4		 mov	 esi, esp
  0028f	8d 8d 80 fe ff
	ff		 lea	 ecx, DWORD PTR $T194517[ebp]
  00295	ff 15 00 00 00
	00		 call	 DWORD PTR __imp_??1?$CStringT@DV?$StrTraitMFC_DLL@DV?$ChTraitsCRT@D@ATL@@@@@ATL@@QAE@XZ
  0029b	3b f4		 cmp	 esi, esp
  0029d	e9 00 00 00 00	 jmp	 __RTC_CheckEsp
$L194545:
  002a2	8b f4		 mov	 esi, esp
  002a4	8d 8d 7c fe ff
	ff		 lea	 ecx, DWORD PTR $T194518[ebp]
  002aa	ff 15 00 00 00
	00		 call	 DWORD PTR __imp_??1?$CStringT@DV?$StrTraitMFC_DLL@DV?$ChTraitsCRT@D@ATL@@@@@ATL@@QAE@XZ
  002b0	3b f4		 cmp	 esi, esp
  002b2	e9 00 00 00 00	 jmp	 __RTC_CheckEsp
$L194546:
  002b7	8b f4		 mov	 esi, esp
  002b9	8d 8d 78 fe ff
	ff		 lea	 ecx, DWORD PTR $T194519[ebp]
  002bf	ff 15 00 00 00
	00		 call	 DWORD PTR __imp_??1?$CStringT@DV?$StrTraitMFC_DLL@DV?$ChTraitsCRT@D@ATL@@@@@ATL@@QAE@XZ
  002c5	3b f4		 cmp	 esi, esp
  002c7	e9 00 00 00 00	 jmp	 __RTC_CheckEsp
$L194547:
  002cc	8b f4		 mov	 esi, esp
  002ce	8b 8d 84 fe ff
	ff		 mov	 ecx, DWORD PTR $T194516[ebp]
  002d4	ff 15 00 00 00
	00		 call	 DWORD PTR __imp_??1?$CStringT@DV?$StrTraitMFC_DLL@DV?$ChTraitsCRT@D@ATL@@@@@ATL@@QAE@XZ
  002da	3b f4		 cmp	 esi, esp
  002dc	e9 00 00 00 00	 jmp	 __RTC_CheckEsp
$L194548:
  002e1	8b f4		 mov	 esi, esp
  002e3	8d 8d 48 fe ff
	ff		 lea	 ecx, DWORD PTR $T194522[ebp]
  002e9	ff 15 00 00 00
	00		 call	 DWORD PTR __imp_??1?$basic_string@DU?$char_traits@D@std@@V?$allocator@D@2@@std@@QAE@XZ
  002ef	3b f4		 cmp	 esi, esp
  002f1	e9 00 00 00 00	 jmp	 __RTC_CheckEsp
$L194549:
  002f6	8b f4		 mov	 esi, esp
  002f8	8d 8d 2c fe ff
	ff		 lea	 ecx, DWORD PTR $T194523[ebp]
  002fe	ff 15 00 00 00
	00		 call	 DWORD PTR __imp_??1?$basic_string@DU?$char_traits@D@std@@V?$allocator@D@2@@std@@QAE@XZ
  00304	3b f4		 cmp	 esi, esp
  00306	e9 00 00 00 00	 jmp	 __RTC_CheckEsp
$L194550:
  0030b	8b f4		 mov	 esi, esp
  0030d	8d 8d 24 fe ff
	ff		 lea	 ecx, DWORD PTR $T194525[ebp]
  00313	ff 15 00 00 00
	00		 call	 DWORD PTR __imp_??1?$CStringT@DV?$StrTraitMFC_DLL@DV?$ChTraitsCRT@D@ATL@@@@@ATL@@QAE@XZ
  00319	3b f4		 cmp	 esi, esp
  0031b	e9 00 00 00 00	 jmp	 __RTC_CheckEsp
$L194551:
  00320	8b f4		 mov	 esi, esp
  00322	8d 8d 20 fe ff
	ff		 lea	 ecx, DWORD PTR $T194526[ebp]
  00328	ff 15 00 00 00
	00		 call	 DWORD PTR __imp_??1?$CStringT@DV?$StrTraitMFC_DLL@DV?$ChTraitsCRT@D@ATL@@@@@ATL@@QAE@XZ
  0032e	3b f4		 cmp	 esi, esp
  00330	e9 00 00 00 00	 jmp	 __RTC_CheckEsp
$L194552:
  00335	8b f4		 mov	 esi, esp
  00337	8d 8d 1c fe ff
	ff		 lea	 ecx, DWORD PTR $T194527[ebp]
  0033d	ff 15 00 00 00
	00		 call	 DWORD PTR __imp_??1?$CStringT@DV?$StrTraitMFC_DLL@DV?$ChTraitsCRT@D@ATL@@@@@ATL@@QAE@XZ
  00343	3b f4		 cmp	 esi, esp
  00345	e9 00 00 00 00	 jmp	 __RTC_CheckEsp
__ehhandler$?OnCreate@CMainSkinWnd@@QAEHPAUtagCREATESTRUCTA@@@Z:
  0034a	b8 00 00 00 00	 mov	 eax, OFFSET FLAT:$T194555
  0034f	e9 00 00 00 00	 jmp	 ___CxxFrameHandler
text$x	ENDS
?OnCreate@CMainSkinWnd@@QAEHPAUtagCREATESTRUCTA@@@Z ENDP ; CMainSkinWnd::OnCreate
EXTRN	??0CPaintDC@@QAE@PAVCWnd@@@Z:NEAR		; CPaintDC::CPaintDC
EXTRN	??1CPaintDC@@UAE@XZ:NEAR			; CPaintDC::~CPaintDC
xdata$x	SEGMENT
$T194576 DD	0ffffffffH
	DD	FLAT:$L194568
$T194570 DD	019930520H
	DD	01H
	DD	FLAT:$T194576
	DD	2 DUP(00H)
	DD	2 DUP(00H)
; Function compile flags: /Odt /RTCsu
xdata$x	ENDS
_TEXT	SEGMENT
tv75 = -120						; size = 4
tv70 = -116						; size = 4
_dc$ = -108						; size = 84
_this$ = -20						; size = 4
__$ArrayPad$ = -16					; size = 4
__$EHRec$ = -12						; size = 12
__$ReturnAddr$ = 4					; size = 4
?OnPaint@CMainSkinWnd@@QAEXXZ PROC NEAR			; CMainSkinWnd::OnPaint
; _this$ = ecx

; 328  : {

  01f40	55		 push	 ebp
  01f41	8b ec		 mov	 ebp, esp
  01f43	6a ff		 push	 -1
  01f45	68 00 00 00 00	 push	 __ehhandler$?OnPaint@CMainSkinWnd@@QAEXXZ
  01f4a	64 a1 00 00 00
	00		 mov	 eax, DWORD PTR fs:__except_list
  01f50	50		 push	 eax
  01f51	64 89 25 00 00
	00 00		 mov	 DWORD PTR fs:__except_list, esp
  01f58	83 ec 6c	 sub	 esp, 108		; 0000006cH
  01f5b	56		 push	 esi
  01f5c	57		 push	 edi
  01f5d	51		 push	 ecx
  01f5e	8d 7d 88	 lea	 edi, DWORD PTR [ebp-120]
  01f61	b9 1b 00 00 00	 mov	 ecx, 27			; 0000001bH
  01f66	b8 cc cc cc cc	 mov	 eax, -858993460		; ccccccccH
  01f6b	f3 ab		 rep stosd
  01f6d	59		 pop	 ecx
  01f6e	a1 00 00 00 00	 mov	 eax, DWORD PTR ___security_cookie
  01f73	89 45 f0	 mov	 DWORD PTR __$ArrayPad$[ebp], eax
  01f76	89 4d ec	 mov	 DWORD PTR _this$[ebp], ecx

; 329  : 	CPaintDC dc(this); // device context for painting

  01f79	8b 45 ec	 mov	 eax, DWORD PTR _this$[ebp]
  01f7c	50		 push	 eax
  01f7d	8d 4d 94	 lea	 ecx, DWORD PTR _dc$[ebp]
  01f80	e8 00 00 00 00	 call	 ??0CPaintDC@@QAE@PAVCWnd@@@Z ; CPaintDC::CPaintDC
  01f85	c7 45 fc 00 00
	00 00		 mov	 DWORD PTR __$EHRec$[ebp+8], 0

; 330  : 	AfxGetUIManager()->UIGetLayoutMgr()->PaintBkGround( m_hWnd,&dc,true );

  01f8c	e8 00 00 00 00	 call	 ?AfxGetUIManager@@YAPAVIUIManager@@XZ ; AfxGetUIManager
  01f91	89 45 8c	 mov	 DWORD PTR tv70[ebp], eax
  01f94	8b f4		 mov	 esi, esp
  01f96	8b 4d 8c	 mov	 ecx, DWORD PTR tv70[ebp]
  01f99	8b 11		 mov	 edx, DWORD PTR [ecx]
  01f9b	8b 4d 8c	 mov	 ecx, DWORD PTR tv70[ebp]
  01f9e	ff 52 24	 call	 DWORD PTR [edx+36]
  01fa1	3b f4		 cmp	 esi, esp
  01fa3	e8 00 00 00 00	 call	 __RTC_CheckEsp
  01fa8	89 45 88	 mov	 DWORD PTR tv75[ebp], eax
  01fab	8b f4		 mov	 esi, esp
  01fad	6a 01		 push	 1
  01faf	8d 45 94	 lea	 eax, DWORD PTR _dc$[ebp]
  01fb2	50		 push	 eax
  01fb3	8b 4d ec	 mov	 ecx, DWORD PTR _this$[ebp]
  01fb6	8b 51 20	 mov	 edx, DWORD PTR [ecx+32]
  01fb9	52		 push	 edx
  01fba	8b 45 88	 mov	 eax, DWORD PTR tv75[ebp]
  01fbd	8b 10		 mov	 edx, DWORD PTR [eax]
  01fbf	8b 4d 88	 mov	 ecx, DWORD PTR tv75[ebp]
  01fc2	ff 52 5c	 call	 DWORD PTR [edx+92]
  01fc5	3b f4		 cmp	 esi, esp
  01fc7	e8 00 00 00 00	 call	 __RTC_CheckEsp

; 331  : }

  01fcc	c7 45 fc ff ff
	ff ff		 mov	 DWORD PTR __$EHRec$[ebp+8], -1
  01fd3	8d 4d 94	 lea	 ecx, DWORD PTR _dc$[ebp]
  01fd6	e8 00 00 00 00	 call	 ??1CPaintDC@@UAE@XZ	; CPaintDC::~CPaintDC
  01fdb	52		 push	 edx
  01fdc	8b cd		 mov	 ecx, ebp
  01fde	50		 push	 eax
  01fdf	8d 15 00 00 00
	00		 lea	 edx, DWORD PTR $L194575
  01fe5	e8 00 00 00 00	 call	 @_RTC_CheckStackVars@8
  01fea	58		 pop	 eax
  01feb	5a		 pop	 edx
  01fec	8b 4d f4	 mov	 ecx, DWORD PTR __$EHRec$[ebp]
  01fef	64 89 0d 00 00
	00 00		 mov	 DWORD PTR fs:__except_list, ecx
  01ff6	8b 4d f0	 mov	 ecx, DWORD PTR __$ArrayPad$[ebp]
  01ff9	e8 00 00 00 00	 call	 @__security_check_cookie@4
  01ffe	5f		 pop	 edi
  01fff	5e		 pop	 esi
  02000	83 c4 78	 add	 esp, 120		; 00000078H
  02003	3b ec		 cmp	 ebp, esp
  02005	e8 00 00 00 00	 call	 __RTC_CheckEsp
  0200a	8b e5		 mov	 esp, ebp
  0200c	5d		 pop	 ebp
  0200d	c3		 ret	 0
$L194575:
  0200e	01 00 00 00	 DD	 1
  02012	00 00 00 00	 DD	 $L194574
$L194574:
  02016	94 ff ff ff	 DD	 -108			; ffffff94H
  0201a	54 00 00 00	 DD	 84			; 00000054H
  0201e	00 00 00 00	 DD	 $L194571
$L194571:
  02022	64		 DB	 100			; 00000064H
  02023	63		 DB	 99			; 00000063H
  02024	00		 DB	 0
_TEXT	ENDS
text$x	SEGMENT
$L194568:
  00354	8d 4d 94	 lea	 ecx, DWORD PTR _dc$[ebp]
  00357	e9 00 00 00 00	 jmp	 ??1CPaintDC@@UAE@XZ	; CPaintDC::~CPaintDC
__ehhandler$?OnPaint@CMainSkinWnd@@QAEXXZ:
  0035c	b8 00 00 00 00	 mov	 eax, OFFSET FLAT:$T194570
  00361	e9 00 00 00 00	 jmp	 ___CxxFrameHandler
text$x	ENDS
?OnPaint@CMainSkinWnd@@QAEXXZ ENDP			; CMainSkinWnd::OnPaint
PUBLIC	?CloseWindows@CMainSkinWnd@@QAEXXZ		; CMainSkinWnd::CloseWindows
EXTRN	?OnClose@CFrameWnd@@IAEXXZ:NEAR			; CFrameWnd::OnClose
; Function compile flags: /Odt /RTCsu
_TEXT	SEGMENT
_this$ = -4						; size = 4
?CloseWindows@CMainSkinWnd@@QAEXXZ PROC NEAR		; CMainSkinWnd::CloseWindows
; _this$ = ecx

; 333  : {

  02030	55		 push	 ebp
  02031	8b ec		 mov	 ebp, esp
  02033	51		 push	 ecx
  02034	c7 45 fc cc cc
	cc cc		 mov	 DWORD PTR [ebp-4], -858993460 ; ccccccccH
  0203b	89 4d fc	 mov	 DWORD PTR _this$[ebp], ecx

; 334  : 	OnClose();

  0203e	8b 4d fc	 mov	 ecx, DWORD PTR _this$[ebp]
  02041	e8 00 00 00 00	 call	 ?OnClose@CFrameWnd@@IAEXXZ ; CFrameWnd::OnClose

; 335  : }

  02046	83 c4 04	 add	 esp, 4
  02049	3b ec		 cmp	 ebp, esp
  0204b	e8 00 00 00 00	 call	 __RTC_CheckEsp
  02050	8b e5		 mov	 esp, ebp
  02052	5d		 pop	 ebp
  02053	c3		 ret	 0
?CloseWindows@CMainSkinWnd@@QAEXXZ ENDP			; CMainSkinWnd::CloseWindows
_TEXT	ENDS
PUBLIC	?LoadSkin@CMainSkinWnd@@QAEXXZ			; CMainSkinWnd::LoadSkin
; Function compile flags: /Odt /RTCsu
_TEXT	SEGMENT
_this$ = -4						; size = 4
?LoadSkin@CMainSkinWnd@@QAEXXZ PROC NEAR		; CMainSkinWnd::LoadSkin
; _this$ = ecx

; 338  : {

  02060	55		 push	 ebp
  02061	8b ec		 mov	 ebp, esp
  02063	51		 push	 ecx
  02064	c7 45 fc cc cc
	cc cc		 mov	 DWORD PTR [ebp-4], -858993460 ; ccccccccH
  0206b	89 4d fc	 mov	 DWORD PTR _this$[ebp], ecx

; 339  : }

  0206e	8b e5		 mov	 esp, ebp
  02070	5d		 pop	 ebp
  02071	c3		 ret	 0
?LoadSkin@CMainSkinWnd@@QAEXXZ ENDP			; CMainSkinWnd::LoadSkin
_TEXT	ENDS
PUBLIC	??1CColorDialog@@UAE@XZ				; CColorDialog::~CColorDialog
EXTRN	??0CColorDialog@@QAE@KKPAVCWnd@@@Z:NEAR		; CColorDialog::CColorDialog
EXTRN	?DoModal@CColorDialog@@UAEHXZ:NEAR		; CColorDialog::DoModal
xdata$x	SEGMENT
$T194600 DD	0ffffffffH
	DD	FLAT:$L194586
	DD	00H
	DD	FLAT:$L194587
	DD	0ffffffffH
	DD	FLAT:$L194588
	DD	02H
	DD	FLAT:$L194589
	DD	03H
	DD	FLAT:$L194590
	DD	02H
	DD	FLAT:$L194591
	DD	05H
	DD	FLAT:$L194592
$T194594 DD	019930520H
	DD	07H
	DD	FLAT:$T194600
	DD	2 DUP(00H)
	DD	2 DUP(00H)
; Function compile flags: /Odt /RTCsu
xdata$x	ENDS
_TEXT	SEGMENT
$T194585 = -360						; size = 28
$T194584 = -332						; size = 28
$T194583 = -304						; size = 28
$T194582 = -276						; size = 28
$T194581 = -248						; size = 28
$T194580 = -220						; size = 28
_i$192474 = -192					; size = 4
_dlg$ = -184						; size = 152
_iColor$ = -24						; size = 4
_this$ = -16						; size = 4
__$EHRec$ = -12						; size = 12
?OnClickMoreCol@CMainSkinWnd@@QAEXXZ PROC NEAR		; CMainSkinWnd::OnClickMoreCol
; _this$ = ecx

; 341  : {

  02080	55		 push	 ebp
  02081	8b ec		 mov	 ebp, esp
  02083	6a ff		 push	 -1
  02085	68 00 00 00 00	 push	 __ehhandler$?OnClickMoreCol@CMainSkinWnd@@QAEXXZ
  0208a	64 a1 00 00 00
	00		 mov	 eax, DWORD PTR fs:__except_list
  02090	50		 push	 eax
  02091	64 89 25 00 00
	00 00		 mov	 DWORD PTR fs:__except_list, esp
  02098	81 ec 5c 01 00
	00		 sub	 esp, 348		; 0000015cH
  0209e	56		 push	 esi
  0209f	57		 push	 edi
  020a0	51		 push	 ecx
  020a1	8d bd 98 fe ff
	ff		 lea	 edi, DWORD PTR [ebp-360]
  020a7	b9 57 00 00 00	 mov	 ecx, 87			; 00000057H
  020ac	b8 cc cc cc cc	 mov	 eax, -858993460		; ccccccccH
  020b1	f3 ab		 rep stosd
  020b3	59		 pop	 ecx
  020b4	89 4d f0	 mov	 DWORD PTR _this$[ebp], ecx

; 342  : 	int iColor;
; 343  : 	::AfxGetUserConfig()->GetConfigIntValue(CONF_SETTING_MODULE_NAME, CONF_SETTING_COLOR_USER,iColor);

  020b7	8b f4		 mov	 esi, esp
  020b9	a1 00 00 00 00	 mov	 eax, DWORD PTR _CONF_SETTING_COLOR_USER
  020be	50		 push	 eax
  020bf	8d 8d 24 ff ff
	ff		 lea	 ecx, DWORD PTR $T194580[ebp]
  020c5	ff 15 00 00 00
	00		 call	 DWORD PTR __imp_??0?$basic_string@DU?$char_traits@D@std@@V?$allocator@D@2@@std@@QAE@PBD@Z
  020cb	3b f4		 cmp	 esi, esp
  020cd	e8 00 00 00 00	 call	 __RTC_CheckEsp
  020d2	c7 45 fc 00 00
	00 00		 mov	 DWORD PTR __$EHRec$[ebp+8], 0
  020d9	8b f4		 mov	 esi, esp
  020db	8b 0d 00 00 00
	00		 mov	 ecx, DWORD PTR _CONF_SETTING_MODULE_NAME
  020e1	51		 push	 ecx
  020e2	8d 8d 08 ff ff
	ff		 lea	 ecx, DWORD PTR $T194581[ebp]
  020e8	ff 15 00 00 00
	00		 call	 DWORD PTR __imp_??0?$basic_string@DU?$char_traits@D@std@@V?$allocator@D@2@@std@@QAE@PBD@Z
  020ee	3b f4		 cmp	 esi, esp
  020f0	e8 00 00 00 00	 call	 __RTC_CheckEsp
  020f5	c6 45 fc 01	 mov	 BYTE PTR __$EHRec$[ebp+8], 1
  020f9	8d 55 e8	 lea	 edx, DWORD PTR _iColor$[ebp]
  020fc	52		 push	 edx
  020fd	8d 85 24 ff ff
	ff		 lea	 eax, DWORD PTR $T194580[ebp]
  02103	50		 push	 eax
  02104	8d 8d 08 ff ff
	ff		 lea	 ecx, DWORD PTR $T194581[ebp]
  0210a	51		 push	 ecx
  0210b	e8 00 00 00 00	 call	 ?AfxGetUserConfig@@YAPAVAfxUserConfig@@XZ ; AfxGetUserConfig
  02110	8b c8		 mov	 ecx, eax
  02112	e8 00 00 00 00	 call	 ?GetConfigIntValue@AfxUserConfig@@QAEXABV?$basic_string@DU?$char_traits@D@std@@V?$allocator@D@2@@std@@0AAH@Z ; AfxUserConfig::GetConfigIntValue
  02117	c6 45 fc 00	 mov	 BYTE PTR __$EHRec$[ebp+8], 0
  0211b	8b f4		 mov	 esi, esp
  0211d	8d 8d 08 ff ff
	ff		 lea	 ecx, DWORD PTR $T194581[ebp]
  02123	ff 15 00 00 00
	00		 call	 DWORD PTR __imp_??1?$basic_string@DU?$char_traits@D@std@@V?$allocator@D@2@@std@@QAE@XZ
  02129	3b f4		 cmp	 esi, esp
  0212b	e8 00 00 00 00	 call	 __RTC_CheckEsp
  02130	c7 45 fc ff ff
	ff ff		 mov	 DWORD PTR __$EHRec$[ebp+8], -1
  02137	8b f4		 mov	 esi, esp
  02139	8d 8d 24 ff ff
	ff		 lea	 ecx, DWORD PTR $T194580[ebp]
  0213f	ff 15 00 00 00
	00		 call	 DWORD PTR __imp_??1?$basic_string@DU?$char_traits@D@std@@V?$allocator@D@2@@std@@QAE@XZ
  02145	3b f4		 cmp	 esi, esp
  02147	e8 00 00 00 00	 call	 __RTC_CheckEsp

; 344  : 	m_colDefault = iColor;

  0214c	8b 55 f0	 mov	 edx, DWORD PTR _this$[ebp]
  0214f	8b 45 e8	 mov	 eax, DWORD PTR _iColor$[ebp]
  02152	89 82 58 09 00
	00		 mov	 DWORD PTR [edx+2392], eax

; 345  : 
; 346  : 	CColorDialog dlg(m_colDefault,0, this);

  02158	8b 4d f0	 mov	 ecx, DWORD PTR _this$[ebp]
  0215b	51		 push	 ecx
  0215c	6a 00		 push	 0
  0215e	8b 55 f0	 mov	 edx, DWORD PTR _this$[ebp]
  02161	8b 82 58 09 00
	00		 mov	 eax, DWORD PTR [edx+2392]
  02167	50		 push	 eax
  02168	8d 8d 48 ff ff
	ff		 lea	 ecx, DWORD PTR _dlg$[ebp]
  0216e	e8 00 00 00 00	 call	 ??0CColorDialog@@QAE@KKPAVCWnd@@@Z ; CColorDialog::CColorDialog
  02173	c7 45 fc 02 00
	00 00		 mov	 DWORD PTR __$EHRec$[ebp+8], 2

; 347  : 	if(dlg.DoModal() == IDOK)

  0217a	8d 8d 48 ff ff
	ff		 lea	 ecx, DWORD PTR _dlg$[ebp]
  02180	e8 00 00 00 00	 call	 ?DoModal@CColorDialog@@UAEHXZ ; CColorDialog::DoModal
  02185	83 f8 01	 cmp	 eax, 1
  02188	0f 85 1b 02 00
	00		 jne	 $L192469

; 348  : 	{
; 349  : 		m_colDefault = dlg.m_cc.rgbResult;

  0218e	8b 4d f0	 mov	 ecx, DWORD PTR _this$[ebp]
  02191	8b 55 c8	 mov	 edx, DWORD PTR _dlg$[ebp+128]
  02194	89 91 58 09 00
	00		 mov	 DWORD PTR [ecx+2392], edx

; 350  : 		m_colBtnMore.SetBKColor(255,GetRValue( m_colDefault),GetGValue( m_colDefault ),GetBValue( m_colDefault ) );

  0219a	8b 45 f0	 mov	 eax, DWORD PTR _this$[ebp]
  0219d	8b 88 58 09 00
	00		 mov	 ecx, DWORD PTR [eax+2392]
  021a3	c1 e9 10	 shr	 ecx, 16			; 00000010H
  021a6	51		 push	 ecx
  021a7	8b 55 f0	 mov	 edx, DWORD PTR _this$[ebp]
  021aa	0f b7 82 58 09
	00 00		 movzx	 eax, WORD PTR [edx+2392]
  021b1	c1 f8 08	 sar	 eax, 8
  021b4	50		 push	 eax
  021b5	8b 4d f0	 mov	 ecx, DWORD PTR _this$[ebp]
  021b8	8a 91 58 09 00
	00		 mov	 dl, BYTE PTR [ecx+2392]
  021be	52		 push	 edx
  021bf	68 ff 00 00 00	 push	 255			; 000000ffH
  021c4	8b 4d f0	 mov	 ecx, DWORD PTR _this$[ebp]
  021c7	81 c1 cc 07 00
	00		 add	 ecx, 1996		; 000007ccH
  021cd	e8 00 00 00 00	 call	 ?SetBKColor@CSkinButton2@@QAEXEEEE@Z ; CSkinButton2::SetBKColor

; 351  : 		m_colBtnMore.SetCheck(1);

  021d2	6a 01		 push	 1
  021d4	8b 4d f0	 mov	 ecx, DWORD PTR _this$[ebp]
  021d7	81 c1 cc 07 00
	00		 add	 ecx, 1996		; 000007ccH
  021dd	e8 00 00 00 00	 call	 ?SetCheck@CSkinButton2@@QAEXH@Z ; CSkinButton2::SetCheck

; 352  : 		for( int i=0; i<m_colbtnVec.size(); i++ )

  021e2	c7 85 40 ff ff
	ff 00 00 00 00	 mov	 DWORD PTR _i$192474[ebp], 0
  021ec	eb 0f		 jmp	 SHORT $L192475
$L192476:
  021ee	8b 85 40 ff ff
	ff		 mov	 eax, DWORD PTR _i$192474[ebp]
  021f4	83 c0 01	 add	 eax, 1
  021f7	89 85 40 ff ff
	ff		 mov	 DWORD PTR _i$192474[ebp], eax
$L192475:
  021fd	8b 4d f0	 mov	 ecx, DWORD PTR _this$[ebp]
  02200	81 c1 e4 00 00
	00		 add	 ecx, 228		; 000000e4H
  02206	e8 00 00 00 00	 call	 ?size@?$vector@PAVCSkinButton2@@V?$allocator@PAVCSkinButton2@@@std@@@std@@QBEIXZ ; std::vector<CSkinButton2 *,std::allocator<CSkinButton2 *> >::size
  0220b	39 85 40 ff ff
	ff		 cmp	 DWORD PTR _i$192474[ebp], eax
  02211	73 41		 jae	 SHORT $L192477

; 353  : 		{
; 354  : 			if( m_colbtnVec[i]->GetCheck() == 1 )

  02213	8b 8d 40 ff ff
	ff		 mov	 ecx, DWORD PTR _i$192474[ebp]
  02219	51		 push	 ecx
  0221a	8b 4d f0	 mov	 ecx, DWORD PTR _this$[ebp]
  0221d	81 c1 e4 00 00
	00		 add	 ecx, 228		; 000000e4H
  02223	e8 00 00 00 00	 call	 ??A?$vector@PAVCSkinButton2@@V?$allocator@PAVCSkinButton2@@@std@@@std@@QAEAAPAVCSkinButton2@@I@Z ; std::vector<CSkinButton2 *,std::allocator<CSkinButton2 *> >::operator[]
  02228	8b 08		 mov	 ecx, DWORD PTR [eax]
  0222a	e8 00 00 00 00	 call	 ?GetCheck@CSkinButton2@@QBEHXZ ; CSkinButton2::GetCheck
  0222f	83 f8 01	 cmp	 eax, 1
  02232	75 1e		 jne	 SHORT $L192478

; 355  : 				m_colbtnVec[i]->SetCheck(0);

  02234	6a 00		 push	 0
  02236	8b 95 40 ff ff
	ff		 mov	 edx, DWORD PTR _i$192474[ebp]
  0223c	52		 push	 edx
  0223d	8b 4d f0	 mov	 ecx, DWORD PTR _this$[ebp]
  02240	81 c1 e4 00 00
	00		 add	 ecx, 228		; 000000e4H
  02246	e8 00 00 00 00	 call	 ??A?$vector@PAVCSkinButton2@@V?$allocator@PAVCSkinButton2@@@std@@@std@@QAEAAPAVCSkinButton2@@I@Z ; std::vector<CSkinButton2 *,std::allocator<CSkinButton2 *> >::operator[]
  0224b	8b 08		 mov	 ecx, DWORD PTR [eax]
  0224d	e8 00 00 00 00	 call	 ?SetCheck@CSkinButton2@@QAEXH@Z ; CSkinButton2::SetCheck
$L192478:

; 356  : 		}

  02252	eb 9a		 jmp	 SHORT $L192476
$L192477:

; 357  : 		mp_EventListener->OnSendChangeColor(m_colDefault,120);

  02254	8b f4		 mov	 esi, esp
  02256	6a 01		 push	 1
  02258	6a 78		 push	 120			; 00000078H
  0225a	8b 45 f0	 mov	 eax, DWORD PTR _this$[ebp]
  0225d	8b 88 58 09 00
	00		 mov	 ecx, DWORD PTR [eax+2392]
  02263	51		 push	 ecx
  02264	8b 55 f0	 mov	 edx, DWORD PTR _this$[ebp]
  02267	8b 82 dc 00 00
	00		 mov	 eax, DWORD PTR [edx+220]
  0226d	8b 4d f0	 mov	 ecx, DWORD PTR _this$[ebp]
  02270	8b 89 dc 00 00
	00		 mov	 ecx, DWORD PTR [ecx+220]
  02276	8b 10		 mov	 edx, DWORD PTR [eax]
  02278	ff 52 08	 call	 DWORD PTR [edx+8]
  0227b	3b f4		 cmp	 esi, esp
  0227d	e8 00 00 00 00	 call	 __RTC_CheckEsp

; 358  : 		::AfxGetUserConfig()->SetConfigIntValue(CONF_SETTING_MODULE_NAME, CONF_SETTING_COLOR_BTN_INDEX,-1,true);

  02282	8b f4		 mov	 esi, esp
  02284	a1 00 00 00 00	 mov	 eax, DWORD PTR _CONF_SETTING_COLOR_BTN_INDEX
  02289	50		 push	 eax
  0228a	8d 8d ec fe ff
	ff		 lea	 ecx, DWORD PTR $T194582[ebp]
  02290	ff 15 00 00 00
	00		 call	 DWORD PTR __imp_??0?$basic_string@DU?$char_traits@D@std@@V?$allocator@D@2@@std@@QAE@PBD@Z
  02296	3b f4		 cmp	 esi, esp
  02298	e8 00 00 00 00	 call	 __RTC_CheckEsp
  0229d	c6 45 fc 03	 mov	 BYTE PTR __$EHRec$[ebp+8], 3
  022a1	8b f4		 mov	 esi, esp
  022a3	8b 0d 00 00 00
	00		 mov	 ecx, DWORD PTR _CONF_SETTING_MODULE_NAME
  022a9	51		 push	 ecx
  022aa	8d 8d d0 fe ff
	ff		 lea	 ecx, DWORD PTR $T194583[ebp]
  022b0	ff 15 00 00 00
	00		 call	 DWORD PTR __imp_??0?$basic_string@DU?$char_traits@D@std@@V?$allocator@D@2@@std@@QAE@PBD@Z
  022b6	3b f4		 cmp	 esi, esp
  022b8	e8 00 00 00 00	 call	 __RTC_CheckEsp
  022bd	c6 45 fc 04	 mov	 BYTE PTR __$EHRec$[ebp+8], 4
  022c1	6a 01		 push	 1
  022c3	6a ff		 push	 -1
  022c5	8d 95 ec fe ff
	ff		 lea	 edx, DWORD PTR $T194582[ebp]
  022cb	52		 push	 edx
  022cc	8d 85 d0 fe ff
	ff		 lea	 eax, DWORD PTR $T194583[ebp]
  022d2	50		 push	 eax
  022d3	e8 00 00 00 00	 call	 ?AfxGetUserConfig@@YAPAVAfxUserConfig@@XZ ; AfxGetUserConfig
  022d8	8b c8		 mov	 ecx, eax
  022da	e8 00 00 00 00	 call	 ?SetConfigIntValue@AfxUserConfig@@QAEXABV?$basic_string@DU?$char_traits@D@std@@V?$allocator@D@2@@std@@0H_N@Z ; AfxUserConfig::SetConfigIntValue
  022df	c6 45 fc 03	 mov	 BYTE PTR __$EHRec$[ebp+8], 3
  022e3	8b f4		 mov	 esi, esp
  022e5	8d 8d d0 fe ff
	ff		 lea	 ecx, DWORD PTR $T194583[ebp]
  022eb	ff 15 00 00 00
	00		 call	 DWORD PTR __imp_??1?$basic_string@DU?$char_traits@D@std@@V?$allocator@D@2@@std@@QAE@XZ
  022f1	3b f4		 cmp	 esi, esp
  022f3	e8 00 00 00 00	 call	 __RTC_CheckEsp
  022f8	c6 45 fc 02	 mov	 BYTE PTR __$EHRec$[ebp+8], 2
  022fc	8b f4		 mov	 esi, esp
  022fe	8d 8d ec fe ff
	ff		 lea	 ecx, DWORD PTR $T194582[ebp]
  02304	ff 15 00 00 00
	00		 call	 DWORD PTR __imp_??1?$basic_string@DU?$char_traits@D@std@@V?$allocator@D@2@@std@@QAE@XZ
  0230a	3b f4		 cmp	 esi, esp
  0230c	e8 00 00 00 00	 call	 __RTC_CheckEsp

; 359  : 		::AfxGetUserConfig()->SetConfigIntValue(CONF_SETTING_MODULE_NAME, CONF_SETTING_COLOR_USER,m_colDefault,true);

  02311	8b f4		 mov	 esi, esp
  02313	8b 0d 00 00 00
	00		 mov	 ecx, DWORD PTR _CONF_SETTING_COLOR_USER
  02319	51		 push	 ecx
  0231a	8d 8d b4 fe ff
	ff		 lea	 ecx, DWORD PTR $T194584[ebp]
  02320	ff 15 00 00 00
	00		 call	 DWORD PTR __imp_??0?$basic_string@DU?$char_traits@D@std@@V?$allocator@D@2@@std@@QAE@PBD@Z
  02326	3b f4		 cmp	 esi, esp
  02328	e8 00 00 00 00	 call	 __RTC_CheckEsp
  0232d	c6 45 fc 05	 mov	 BYTE PTR __$EHRec$[ebp+8], 5
  02331	8b f4		 mov	 esi, esp
  02333	8b 15 00 00 00
	00		 mov	 edx, DWORD PTR _CONF_SETTING_MODULE_NAME
  02339	52		 push	 edx
  0233a	8d 8d 98 fe ff
	ff		 lea	 ecx, DWORD PTR $T194585[ebp]
  02340	ff 15 00 00 00
	00		 call	 DWORD PTR __imp_??0?$basic_string@DU?$char_traits@D@std@@V?$allocator@D@2@@std@@QAE@PBD@Z
  02346	3b f4		 cmp	 esi, esp
  02348	e8 00 00 00 00	 call	 __RTC_CheckEsp
  0234d	c6 45 fc 06	 mov	 BYTE PTR __$EHRec$[ebp+8], 6
  02351	6a 01		 push	 1
  02353	8b 45 f0	 mov	 eax, DWORD PTR _this$[ebp]
  02356	8b 88 58 09 00
	00		 mov	 ecx, DWORD PTR [eax+2392]
  0235c	51		 push	 ecx
  0235d	8d 95 b4 fe ff
	ff		 lea	 edx, DWORD PTR $T194584[ebp]
  02363	52		 push	 edx
  02364	8d 85 98 fe ff
	ff		 lea	 eax, DWORD PTR $T194585[ebp]
  0236a	50		 push	 eax
  0236b	e8 00 00 00 00	 call	 ?AfxGetUserConfig@@YAPAVAfxUserConfig@@XZ ; AfxGetUserConfig
  02370	8b c8		 mov	 ecx, eax
  02372	e8 00 00 00 00	 call	 ?SetConfigIntValue@AfxUserConfig@@QAEXABV?$basic_string@DU?$char_traits@D@std@@V?$allocator@D@2@@std@@0H_N@Z ; AfxUserConfig::SetConfigIntValue
  02377	c6 45 fc 05	 mov	 BYTE PTR __$EHRec$[ebp+8], 5
  0237b	8b f4		 mov	 esi, esp
  0237d	8d 8d 98 fe ff
	ff		 lea	 ecx, DWORD PTR $T194585[ebp]
  02383	ff 15 00 00 00
	00		 call	 DWORD PTR __imp_??1?$basic_string@DU?$char_traits@D@std@@V?$allocator@D@2@@std@@QAE@XZ
  02389	3b f4		 cmp	 esi, esp
  0238b	e8 00 00 00 00	 call	 __RTC_CheckEsp
  02390	c6 45 fc 02	 mov	 BYTE PTR __$EHRec$[ebp+8], 2
  02394	8b f4		 mov	 esi, esp
  02396	8d 8d b4 fe ff
	ff		 lea	 ecx, DWORD PTR $T194584[ebp]
  0239c	ff 15 00 00 00
	00		 call	 DWORD PTR __imp_??1?$basic_string@DU?$char_traits@D@std@@V?$allocator@D@2@@std@@QAE@XZ
  023a2	3b f4		 cmp	 esi, esp
  023a4	e8 00 00 00 00	 call	 __RTC_CheckEsp
$L192469:

; 360  : 	}
; 361  : }

  023a9	c7 45 fc ff ff
	ff ff		 mov	 DWORD PTR __$EHRec$[ebp+8], -1
  023b0	8d 8d 48 ff ff
	ff		 lea	 ecx, DWORD PTR _dlg$[ebp]
  023b6	e8 00 00 00 00	 call	 ??1CColorDialog@@UAE@XZ
  023bb	52		 push	 edx
  023bc	8b cd		 mov	 ecx, ebp
  023be	50		 push	 eax
  023bf	8d 15 00 00 00
	00		 lea	 edx, DWORD PTR $L194599
  023c5	e8 00 00 00 00	 call	 @_RTC_CheckStackVars@8
  023ca	58		 pop	 eax
  023cb	5a		 pop	 edx
  023cc	8b 4d f4	 mov	 ecx, DWORD PTR __$EHRec$[ebp]
  023cf	64 89 0d 00 00
	00 00		 mov	 DWORD PTR fs:__except_list, ecx
  023d6	5f		 pop	 edi
  023d7	5e		 pop	 esi
  023d8	81 c4 68 01 00
	00		 add	 esp, 360		; 00000168H
  023de	3b ec		 cmp	 ebp, esp
  023e0	e8 00 00 00 00	 call	 __RTC_CheckEsp
  023e5	8b e5		 mov	 esp, ebp
  023e7	5d		 pop	 ebp
  023e8	c3		 ret	 0
$L194599:
  023e9	02 00 00 00	 DD	 2
  023ed	00 00 00 00	 DD	 $L194598
$L194598:
  023f1	e8 ff ff ff	 DD	 -24			; ffffffe8H
  023f5	04 00 00 00	 DD	 4
  023f9	00 00 00 00	 DD	 $L194595
  023fd	48 ff ff ff	 DD	 -184			; ffffff48H
  02401	98 00 00 00	 DD	 152			; 00000098H
  02405	00 00 00 00	 DD	 $L194596
$L194596:
  02409	64		 DB	 100			; 00000064H
  0240a	6c		 DB	 108			; 0000006cH
  0240b	67		 DB	 103			; 00000067H
  0240c	00		 DB	 0
$L194595:
  0240d	69		 DB	 105			; 00000069H
  0240e	43		 DB	 67			; 00000043H
  0240f	6f		 DB	 111			; 0000006fH
  02410	6c		 DB	 108			; 0000006cH
  02411	6f		 DB	 111			; 0000006fH
  02412	72		 DB	 114			; 00000072H
  02413	00		 DB	 0
_TEXT	ENDS
text$x	SEGMENT
$L194586:
  00366	8b f4		 mov	 esi, esp
  00368	8d 8d 24 ff ff
	ff		 lea	 ecx, DWORD PTR $T194580[ebp]
  0036e	ff 15 00 00 00
	00		 call	 DWORD PTR __imp_??1?$basic_string@DU?$char_traits@D@std@@V?$allocator@D@2@@std@@QAE@XZ
  00374	3b f4		 cmp	 esi, esp
  00376	e9 00 00 00 00	 jmp	 __RTC_CheckEsp
$L194587:
  0037b	8b f4		 mov	 esi, esp
  0037d	8d 8d 08 ff ff
	ff		 lea	 ecx, DWORD PTR $T194581[ebp]
  00383	ff 15 00 00 00
	00		 call	 DWORD PTR __imp_??1?$basic_string@DU?$char_traits@D@std@@V?$allocator@D@2@@std@@QAE@XZ
  00389	3b f4		 cmp	 esi, esp
  0038b	e9 00 00 00 00	 jmp	 __RTC_CheckEsp
$L194588:
  00390	8d 8d 48 ff ff
	ff		 lea	 ecx, DWORD PTR _dlg$[ebp]
  00396	e9 00 00 00 00	 jmp	 ??1CColorDialog@@UAE@XZ
$L194589:
  0039b	8b f4		 mov	 esi, esp
  0039d	8d 8d ec fe ff
	ff		 lea	 ecx, DWORD PTR $T194582[ebp]
  003a3	ff 15 00 00 00
	00		 call	 DWORD PTR __imp_??1?$basic_string@DU?$char_traits@D@std@@V?$allocator@D@2@@std@@QAE@XZ
  003a9	3b f4		 cmp	 esi, esp
  003ab	e9 00 00 00 00	 jmp	 __RTC_CheckEsp
$L194590:
  003b0	8b f4		 mov	 esi, esp
  003b2	8d 8d d0 fe ff
	ff		 lea	 ecx, DWORD PTR $T194583[ebp]
  003b8	ff 15 00 00 00
	00		 call	 DWORD PTR __imp_??1?$basic_string@DU?$char_traits@D@std@@V?$allocator@D@2@@std@@QAE@XZ
  003be	3b f4		 cmp	 esi, esp
  003c0	e9 00 00 00 00	 jmp	 __RTC_CheckEsp
$L194591:
  003c5	8b f4		 mov	 esi, esp
  003c7	8d 8d b4 fe ff
	ff		 lea	 ecx, DWORD PTR $T194584[ebp]
  003cd	ff 15 00 00 00
	00		 call	 DWORD PTR __imp_??1?$basic_string@DU?$char_traits@D@std@@V?$allocator@D@2@@std@@QAE@XZ
  003d3	3b f4		 cmp	 esi, esp
  003d5	e9 00 00 00 00	 jmp	 __RTC_CheckEsp
$L194592:
  003da	8b f4		 mov	 esi, esp
  003dc	8d 8d 98 fe ff
	ff		 lea	 ecx, DWORD PTR $T194585[ebp]
  003e2	ff 15 00 00 00
	00		 call	 DWORD PTR __imp_??1?$basic_string@DU?$char_traits@D@std@@V?$allocator@D@2@@std@@QAE@XZ
  003e8	3b f4		 cmp	 esi, esp
  003ea	e9 00 00 00 00	 jmp	 __RTC_CheckEsp
__ehhandler$?OnClickMoreCol@CMainSkinWnd@@QAEXXZ:
  003ef	b8 00 00 00 00	 mov	 eax, OFFSET FLAT:$T194594
  003f4	e9 00 00 00 00	 jmp	 ___CxxFrameHandler
text$x	ENDS
?OnClickMoreCol@CMainSkinWnd@@QAEXXZ ENDP		; CMainSkinWnd::OnClickMoreCol
PUBLIC	??1CCommonDialog@@UAE@XZ			; CCommonDialog::~CCommonDialog
; Function compile flags: /Odt /RTCsu
;	COMDAT ??1CColorDialog@@UAE@XZ
_TEXT	SEGMENT
_this$ = -4						; size = 4
??1CColorDialog@@UAE@XZ PROC NEAR			; CColorDialog::~CColorDialog, COMDAT
; _this$ = ecx
  00000	55		 push	 ebp
  00001	8b ec		 mov	 ebp, esp
  00003	51		 push	 ecx
  00004	c7 45 fc cc cc
	cc cc		 mov	 DWORD PTR [ebp-4], -858993460 ; ccccccccH
  0000b	89 4d fc	 mov	 DWORD PTR _this$[ebp], ecx
  0000e	8b 4d fc	 mov	 ecx, DWORD PTR _this$[ebp]
  00011	e8 00 00 00 00	 call	 ??1CCommonDialog@@UAE@XZ ; CCommonDialog::~CCommonDialog
  00016	83 c4 04	 add	 esp, 4
  00019	3b ec		 cmp	 ebp, esp
  0001b	e8 00 00 00 00	 call	 __RTC_CheckEsp
  00020	8b e5		 mov	 esp, ebp
  00022	5d		 pop	 ebp
  00023	c3		 ret	 0
??1CColorDialog@@UAE@XZ ENDP				; CColorDialog::~CColorDialog
_TEXT	ENDS
EXTRN	__imp__ShellExecuteA@24:NEAR
EXTRN	__imp_?LogUserActMsg@@YAXABV?$basic_string@DU?$char_traits@D@std@@V?$allocator@D@2@@std@@0@Z:NEAR
xdata$x	SEGMENT
$T194611 DD	0ffffffffH
	DD	FLAT:$L194606
	DD	00H
	DD	FLAT:$L194607
$T194609 DD	019930520H
	DD	02H
	DD	FLAT:$T194611
	DD	2 DUP(00H)
	DD	2 DUP(00H)
; Function compile flags: /Odt /RTCsu
xdata$x	ENDS
_TEXT	SEGMENT
$T194605 = -72						; size = 28
$T194604 = -44						; size = 28
_this$ = -16						; size = 4
__$EHRec$ = -12						; size = 12
?OnClickDownMore@CMainSkinWnd@@QAEXXZ PROC NEAR		; CMainSkinWnd::OnClickDownMore
; _this$ = ecx

; 364  : {

  02420	55		 push	 ebp
  02421	8b ec		 mov	 ebp, esp
  02423	6a ff		 push	 -1
  02425	68 00 00 00 00	 push	 __ehhandler$?OnClickDownMore@CMainSkinWnd@@QAEXXZ
  0242a	64 a1 00 00 00
	00		 mov	 eax, DWORD PTR fs:__except_list
  02430	50		 push	 eax
  02431	64 89 25 00 00
	00 00		 mov	 DWORD PTR fs:__except_list, esp
  02438	83 ec 3c	 sub	 esp, 60			; 0000003cH
  0243b	56		 push	 esi
  0243c	57		 push	 edi
  0243d	51		 push	 ecx
  0243e	8d 7d b8	 lea	 edi, DWORD PTR [ebp-72]
  02441	b9 0f 00 00 00	 mov	 ecx, 15			; 0000000fH
  02446	b8 cc cc cc cc	 mov	 eax, -858993460		; ccccccccH
  0244b	f3 ab		 rep stosd
  0244d	59		 pop	 ecx
  0244e	89 4d f0	 mov	 DWORD PTR _this$[ebp], ecx

; 365  : 	LogUserActMsg(STR_USER_CLICK, "BTN:DOWN_MORE");

  02451	8b f4		 mov	 esi, esp
  02453	68 00 00 00 00	 push	 OFFSET FLAT:$SG192490
  02458	8d 4d d4	 lea	 ecx, DWORD PTR $T194604[ebp]
  0245b	ff 15 00 00 00
	00		 call	 DWORD PTR __imp_??0?$basic_string@DU?$char_traits@D@std@@V?$allocator@D@2@@std@@QAE@PBD@Z
  02461	3b f4		 cmp	 esi, esp
  02463	e8 00 00 00 00	 call	 __RTC_CheckEsp
  02468	c7 45 fc 00 00
	00 00		 mov	 DWORD PTR __$EHRec$[ebp+8], 0
  0246f	8b f4		 mov	 esi, esp
  02471	68 00 00 00 00	 push	 OFFSET FLAT:$SG192491
  02476	8d 4d b8	 lea	 ecx, DWORD PTR $T194605[ebp]
  02479	ff 15 00 00 00
	00		 call	 DWORD PTR __imp_??0?$basic_string@DU?$char_traits@D@std@@V?$allocator@D@2@@std@@QAE@PBD@Z
  0247f	3b f4		 cmp	 esi, esp
  02481	e8 00 00 00 00	 call	 __RTC_CheckEsp
  02486	c6 45 fc 01	 mov	 BYTE PTR __$EHRec$[ebp+8], 1
  0248a	8b f4		 mov	 esi, esp
  0248c	8d 45 d4	 lea	 eax, DWORD PTR $T194604[ebp]
  0248f	50		 push	 eax
  02490	8d 4d b8	 lea	 ecx, DWORD PTR $T194605[ebp]
  02493	51		 push	 ecx
  02494	ff 15 00 00 00
	00		 call	 DWORD PTR __imp_?LogUserActMsg@@YAXABV?$basic_string@DU?$char_traits@D@std@@V?$allocator@D@2@@std@@0@Z
  0249a	83 c4 08	 add	 esp, 8
  0249d	3b f4		 cmp	 esi, esp
  0249f	e8 00 00 00 00	 call	 __RTC_CheckEsp
  024a4	c6 45 fc 00	 mov	 BYTE PTR __$EHRec$[ebp+8], 0
  024a8	8b f4		 mov	 esi, esp
  024aa	8d 4d b8	 lea	 ecx, DWORD PTR $T194605[ebp]
  024ad	ff 15 00 00 00
	00		 call	 DWORD PTR __imp_??1?$basic_string@DU?$char_traits@D@std@@V?$allocator@D@2@@std@@QAE@XZ
  024b3	3b f4		 cmp	 esi, esp
  024b5	e8 00 00 00 00	 call	 __RTC_CheckEsp
  024ba	c7 45 fc ff ff
	ff ff		 mov	 DWORD PTR __$EHRec$[ebp+8], -1
  024c1	8b f4		 mov	 esi, esp
  024c3	8d 4d d4	 lea	 ecx, DWORD PTR $T194604[ebp]
  024c6	ff 15 00 00 00
	00		 call	 DWORD PTR __imp_??1?$basic_string@DU?$char_traits@D@std@@V?$allocator@D@2@@std@@QAE@XZ
  024cc	3b f4		 cmp	 esi, esp
  024ce	e8 00 00 00 00	 call	 __RTC_CheckEsp

; 366  : 	ShellExecute(NULL, "open", _T("iexplore"), "http://www.kuwo.cn/skin/", NULL, SW_SHOWNORMAL);

  024d3	8b f4		 mov	 esi, esp
  024d5	6a 01		 push	 1
  024d7	6a 00		 push	 0
  024d9	68 00 00 00 00	 push	 OFFSET FLAT:$SG192492
  024de	68 00 00 00 00	 push	 OFFSET FLAT:$SG192493
  024e3	68 00 00 00 00	 push	 OFFSET FLAT:$SG192494
  024e8	6a 00		 push	 0
  024ea	ff 15 00 00 00
	00		 call	 DWORD PTR __imp__ShellExecuteA@24
  024f0	3b f4		 cmp	 esi, esp
  024f2	e8 00 00 00 00	 call	 __RTC_CheckEsp

; 367  : }

  024f7	8b 4d f4	 mov	 ecx, DWORD PTR __$EHRec$[ebp]
  024fa	64 89 0d 00 00
	00 00		 mov	 DWORD PTR fs:__except_list, ecx
  02501	5f		 pop	 edi
  02502	5e		 pop	 esi
  02503	83 c4 48	 add	 esp, 72			; 00000048H
  02506	3b ec		 cmp	 ebp, esp
  02508	e8 00 00 00 00	 call	 __RTC_CheckEsp
  0250d	8b e5		 mov	 esp, ebp
  0250f	5d		 pop	 ebp
  02510	c3		 ret	 0
_TEXT	ENDS
text$x	SEGMENT
$L194606:
  003f9	8b f4		 mov	 esi, esp
  003fb	8d 4d d4	 lea	 ecx, DWORD PTR $T194604[ebp]
  003fe	ff 15 00 00 00
	00		 call	 DWORD PTR __imp_??1?$basic_string@DU?$char_traits@D@std@@V?$allocator@D@2@@std@@QAE@XZ
  00404	3b f4		 cmp	 esi, esp
  00406	e9 00 00 00 00	 jmp	 __RTC_CheckEsp
$L194607:
  0040b	8b f4		 mov	 esi, esp
  0040d	8d 4d b8	 lea	 ecx, DWORD PTR $T194605[ebp]
  00410	ff 15 00 00 00
	00		 call	 DWORD PTR __imp_??1?$basic_string@DU?$char_traits@D@std@@V?$allocator@D@2@@std@@QAE@XZ
  00416	3b f4		 cmp	 esi, esp
  00418	e9 00 00 00 00	 jmp	 __RTC_CheckEsp
__ehhandler$?OnClickDownMore@CMainSkinWnd@@QAEXXZ:
  0041d	b8 00 00 00 00	 mov	 eax, OFFSET FLAT:$T194609
  00422	e9 00 00 00 00	 jmp	 ___CxxFrameHandler
text$x	ENDS
?OnClickDownMore@CMainSkinWnd@@QAEXXZ ENDP		; CMainSkinWnd::OnClickDownMore
; Function compile flags: /Odt /RTCsu
_TEXT	SEGMENT
$T194615 = -36						; size = 8
$T194614 = -28						; size = 8
$T194613 = -20						; size = 8
_i$192509 = -12						; size = 4
_colorref$ = -8						; size = 4
_this$ = -4						; size = 4
_wParam$ = 8						; size = 4
_lParam$ = 12						; size = 4
?OnChangeBtnColor@CMainSkinWnd@@QAEJIJ@Z PROC NEAR	; CMainSkinWnd::OnChangeBtnColor
; _this$ = ecx

; 370  : {	

  02520	55		 push	 ebp
  02521	8b ec		 mov	 ebp, esp
  02523	83 ec 24	 sub	 esp, 36			; 00000024H
  02526	b8 cc cc cc cc	 mov	 eax, -858993460		; ccccccccH
  0252b	89 45 dc	 mov	 DWORD PTR [ebp-36], eax
  0252e	89 45 e0	 mov	 DWORD PTR [ebp-32], eax
  02531	89 45 e4	 mov	 DWORD PTR [ebp-28], eax
  02534	89 45 e8	 mov	 DWORD PTR [ebp-24], eax
  02537	89 45 ec	 mov	 DWORD PTR [ebp-20], eax
  0253a	89 45 f0	 mov	 DWORD PTR [ebp-16], eax
  0253d	89 45 f4	 mov	 DWORD PTR [ebp-12], eax
  02540	89 45 f8	 mov	 DWORD PTR [ebp-8], eax
  02543	89 45 fc	 mov	 DWORD PTR [ebp-4], eax
  02546	89 4d fc	 mov	 DWORD PTR _this$[ebp], ecx

; 371  : 	COLORREF colorref = (COLORREF)wParam;

  02549	8b 45 08	 mov	 eax, DWORD PTR _wParam$[ebp]
  0254c	89 45 f8	 mov	 DWORD PTR _colorref$[ebp], eax

; 372  : 
; 373  : 	if( colorref == 0 )

  0254f	83 7d f8 00	 cmp	 DWORD PTR _colorref$[ebp], 0
  02553	75 34		 jne	 SHORT $L192502

; 374  : 	{
; 375  : 		colorref = gBitMapOperate.HLStoRGB( ((double)145)/240  ,((double)50)/100,((double)45)/100 );

  02555	dd 05 00 00 00
	00		 fld	 QWORD PTR __real@3fdccccccccccccd
  0255b	dd 5d ec	 fstp	 QWORD PTR $T194613[ebp]
  0255e	dd 05 00 00 00
	00		 fld	 QWORD PTR __real@3fe0000000000000
  02564	dd 5d e4	 fstp	 QWORD PTR $T194614[ebp]
  02567	dd 05 00 00 00
	00		 fld	 QWORD PTR __real@3fe3555555555555
  0256d	dd 5d dc	 fstp	 QWORD PTR $T194615[ebp]
  02570	8d 4d ec	 lea	 ecx, DWORD PTR $T194613[ebp]
  02573	51		 push	 ecx
  02574	8d 55 e4	 lea	 edx, DWORD PTR $T194614[ebp]
  02577	52		 push	 edx
  02578	8d 45 dc	 lea	 eax, DWORD PTR $T194615[ebp]
  0257b	50		 push	 eax
  0257c	b9 00 00 00 00	 mov	 ecx, OFFSET FLAT:?gBitMapOperate@@3VCBitMapOperate@@A
  02581	e8 00 00 00 00	 call	 ?HLStoRGB@CBitMapOperate@@QAEKABN00@Z ; CBitMapOperate::HLStoRGB
  02586	89 45 f8	 mov	 DWORD PTR _colorref$[ebp], eax
$L192502:

; 376  : 	}
; 377  : 	m_colBtnMore.SetCheck(0);

  02589	6a 00		 push	 0
  0258b	8b 4d fc	 mov	 ecx, DWORD PTR _this$[ebp]
  0258e	81 c1 cc 07 00
	00		 add	 ecx, 1996		; 000007ccH
  02594	e8 00 00 00 00	 call	 ?SetCheck@CSkinButton2@@QAEXH@Z ; CSkinButton2::SetCheck

; 378  : 	for( int i=0; i<m_colbtnVec.size(); i++ )

  02599	c7 45 f4 00 00
	00 00		 mov	 DWORD PTR _i$192509[ebp], 0
  025a0	eb 09		 jmp	 SHORT $L192510
$L192511:
  025a2	8b 4d f4	 mov	 ecx, DWORD PTR _i$192509[ebp]
  025a5	83 c1 01	 add	 ecx, 1
  025a8	89 4d f4	 mov	 DWORD PTR _i$192509[ebp], ecx
$L192510:
  025ab	8b 4d fc	 mov	 ecx, DWORD PTR _this$[ebp]
  025ae	81 c1 e4 00 00
	00		 add	 ecx, 228		; 000000e4H
  025b4	e8 00 00 00 00	 call	 ?size@?$vector@PAVCSkinButton2@@V?$allocator@PAVCSkinButton2@@@std@@@std@@QBEIXZ ; std::vector<CSkinButton2 *,std::allocator<CSkinButton2 *> >::size
  025b9	39 45 f4	 cmp	 DWORD PTR _i$192509[ebp], eax
  025bc	73 1d		 jae	 SHORT $L192512

; 379  : 	{		
; 380  : 		m_colbtnVec[i]->SetCheck(0);

  025be	6a 00		 push	 0
  025c0	8b 55 f4	 mov	 edx, DWORD PTR _i$192509[ebp]
  025c3	52		 push	 edx
  025c4	8b 4d fc	 mov	 ecx, DWORD PTR _this$[ebp]
  025c7	81 c1 e4 00 00
	00		 add	 ecx, 228		; 000000e4H
  025cd	e8 00 00 00 00	 call	 ??A?$vector@PAVCSkinButton2@@V?$allocator@PAVCSkinButton2@@@std@@@std@@QAEAAPAVCSkinButton2@@I@Z ; std::vector<CSkinButton2 *,std::allocator<CSkinButton2 *> >::operator[]
  025d2	8b 08		 mov	 ecx, DWORD PTR [eax]
  025d4	e8 00 00 00 00	 call	 ?SetCheck@CSkinButton2@@QAEXH@Z ; CSkinButton2::SetCheck

; 381  : 	}

  025d9	eb c7		 jmp	 SHORT $L192511
$L192512:

; 382  : 	m_colbtnVec[0]->SetCheck(1);

  025db	6a 01		 push	 1
  025dd	6a 00		 push	 0
  025df	8b 4d fc	 mov	 ecx, DWORD PTR _this$[ebp]
  025e2	81 c1 e4 00 00
	00		 add	 ecx, 228		; 000000e4H
  025e8	e8 00 00 00 00	 call	 ??A?$vector@PAVCSkinButton2@@V?$allocator@PAVCSkinButton2@@@std@@@std@@QAEAAPAVCSkinButton2@@I@Z ; std::vector<CSkinButton2 *,std::allocator<CSkinButton2 *> >::operator[]
  025ed	8b 08		 mov	 ecx, DWORD PTR [eax]
  025ef	e8 00 00 00 00	 call	 ?SetCheck@CSkinButton2@@QAEXH@Z ; CSkinButton2::SetCheck

; 383  : 	m_colbtnVec[0]->SetBKColor(255,GetRValue( colorref ),GetGValue( colorref ),GetBValue( colorref ) );

  025f4	8b 45 f8	 mov	 eax, DWORD PTR _colorref$[ebp]
  025f7	c1 e8 10	 shr	 eax, 16			; 00000010H
  025fa	50		 push	 eax
  025fb	0f b7 4d f8	 movzx	 ecx, WORD PTR _colorref$[ebp]
  025ff	c1 f9 08	 sar	 ecx, 8
  02602	51		 push	 ecx
  02603	8a 55 f8	 mov	 dl, BYTE PTR _colorref$[ebp]
  02606	52		 push	 edx
  02607	68 ff 00 00 00	 push	 255			; 000000ffH
  0260c	6a 00		 push	 0
  0260e	8b 4d fc	 mov	 ecx, DWORD PTR _this$[ebp]
  02611	81 c1 e4 00 00
	00		 add	 ecx, 228		; 000000e4H
  02617	e8 00 00 00 00	 call	 ??A?$vector@PAVCSkinButton2@@V?$allocator@PAVCSkinButton2@@@std@@@std@@QAEAAPAVCSkinButton2@@I@Z ; std::vector<CSkinButton2 *,std::allocator<CSkinButton2 *> >::operator[]
  0261c	8b 08		 mov	 ecx, DWORD PTR [eax]
  0261e	e8 00 00 00 00	 call	 ?SetBKColor@CSkinButton2@@QAEXEEEE@Z ; CSkinButton2::SetBKColor

; 384  : 
; 385  : 	return 1;

  02623	b8 01 00 00 00	 mov	 eax, 1

; 386  : }

  02628	83 c4 24	 add	 esp, 36			; 00000024H
  0262b	3b ec		 cmp	 ebp, esp
  0262d	e8 00 00 00 00	 call	 __RTC_CheckEsp
  02632	8b e5		 mov	 esp, ebp
  02634	5d		 pop	 ebp
  02635	c2 08 00	 ret	 8
?OnChangeBtnColor@CMainSkinWnd@@QAEJIJ@Z ENDP		; CMainSkinWnd::OnChangeBtnColor
; Function compile flags: /Odt /RTCsu
_this$ = -4						; size = 4
?OnBtnSub@CMainSkinWnd@@QAEXXZ PROC NEAR		; CMainSkinWnd::OnBtnSub
; _this$ = ecx

; 389  : {

  02640	55		 push	 ebp
  02641	8b ec		 mov	 ebp, esp
  02643	51		 push	 ecx
  02644	56		 push	 esi
  02645	c7 45 fc cc cc
	cc cc		 mov	 DWORD PTR [ebp-4], -858993460 ; ccccccccH
  0264c	89 4d fc	 mov	 DWORD PTR _this$[ebp], ecx

; 390  : 	m_btnSub.SetCheck(1);

  0264f	6a 01		 push	 1
  02651	8b 4d fc	 mov	 ecx, DWORD PTR _this$[ebp]
  02654	81 c1 3c 03 00
	00		 add	 ecx, 828		; 0000033cH
  0265a	e8 00 00 00 00	 call	 ?SetCheck@CButton@@QAEXH@Z ; CButton::SetCheck

; 391  : 	m_btnSkin.SetCheck(0);

  0265f	6a 00		 push	 0
  02661	8b 4d fc	 mov	 ecx, DWORD PTR _this$[ebp]
  02664	81 c1 18 02 00
	00		 add	 ecx, 536		; 00000218H
  0266a	e8 00 00 00 00	 call	 ?SetCheck@CButton@@QAEXH@Z ; CButton::SetCheck

; 392  : 	m_btnWebSub.SetCheck(0);

  0266f	6a 00		 push	 0
  02671	8b 4d fc	 mov	 ecx, DWORD PTR _this$[ebp]
  02674	81 c1 60 04 00
	00		 add	 ecx, 1120		; 00000460H
  0267a	e8 00 00 00 00	 call	 ?SetCheck@CButton@@QAEXH@Z ; CButton::SetCheck

; 393  : 
; 394  : 	if( mp_WndListener )

  0267f	8b 45 fc	 mov	 eax, DWORD PTR _this$[ebp]
  02682	83 b8 e0 00 00
	00 00		 cmp	 DWORD PTR [eax+224], 0
  02689	74 22		 je	 SHORT $L192519

; 395  : 	{
; 396  : 		mp_WndListener->OnTabSelChange(0);

  0268b	8b f4		 mov	 esi, esp
  0268d	6a 00		 push	 0
  0268f	8b 4d fc	 mov	 ecx, DWORD PTR _this$[ebp]
  02692	8b 91 e0 00 00
	00		 mov	 edx, DWORD PTR [ecx+224]
  02698	8b 45 fc	 mov	 eax, DWORD PTR _this$[ebp]
  0269b	8b 88 e0 00 00
	00		 mov	 ecx, DWORD PTR [eax+224]
  026a1	8b 12		 mov	 edx, DWORD PTR [edx]
  026a3	ff 52 08	 call	 DWORD PTR [edx+8]
  026a6	3b f4		 cmp	 esi, esp
  026a8	e8 00 00 00 00	 call	 __RTC_CheckEsp
$L192519:

; 397  : 	}
; 398  : }

  026ad	5e		 pop	 esi
  026ae	83 c4 04	 add	 esp, 4
  026b1	3b ec		 cmp	 ebp, esp
  026b3	e8 00 00 00 00	 call	 __RTC_CheckEsp
  026b8	8b e5		 mov	 esp, ebp
  026ba	5d		 pop	 ebp
  026bb	c3		 ret	 0
?OnBtnSub@CMainSkinWnd@@QAEXXZ ENDP			; CMainSkinWnd::OnBtnSub
; Function compile flags: /Odt /RTCsu
_this$ = -4						; size = 4
?OnBtnSkin@CMainSkinWnd@@QAEXXZ PROC NEAR		; CMainSkinWnd::OnBtnSkin
; _this$ = ecx

; 401  : {

  026c0	55		 push	 ebp
  026c1	8b ec		 mov	 ebp, esp
  026c3	51		 push	 ecx
  026c4	56		 push	 esi
  026c5	c7 45 fc cc cc
	cc cc		 mov	 DWORD PTR [ebp-4], -858993460 ; ccccccccH
  026cc	89 4d fc	 mov	 DWORD PTR _this$[ebp], ecx

; 402  : 	m_btnSub.SetCheck(0);

  026cf	6a 00		 push	 0
  026d1	8b 4d fc	 mov	 ecx, DWORD PTR _this$[ebp]
  026d4	81 c1 3c 03 00
	00		 add	 ecx, 828		; 0000033cH
  026da	e8 00 00 00 00	 call	 ?SetCheck@CButton@@QAEXH@Z ; CButton::SetCheck

; 403  : 	m_btnSkin.SetCheck(1);

  026df	6a 01		 push	 1
  026e1	8b 4d fc	 mov	 ecx, DWORD PTR _this$[ebp]
  026e4	81 c1 18 02 00
	00		 add	 ecx, 536		; 00000218H
  026ea	e8 00 00 00 00	 call	 ?SetCheck@CButton@@QAEXH@Z ; CButton::SetCheck

; 404  : 	m_btnWebSub.SetCheck(0);

  026ef	6a 00		 push	 0
  026f1	8b 4d fc	 mov	 ecx, DWORD PTR _this$[ebp]
  026f4	81 c1 60 04 00
	00		 add	 ecx, 1120		; 00000460H
  026fa	e8 00 00 00 00	 call	 ?SetCheck@CButton@@QAEXH@Z ; CButton::SetCheck

; 405  : 
; 406  : 	if( mp_WndListener )

  026ff	8b 45 fc	 mov	 eax, DWORD PTR _this$[ebp]
  02702	83 b8 e0 00 00
	00 00		 cmp	 DWORD PTR [eax+224], 0
  02709	74 22		 je	 SHORT $L192523

; 407  : 	{
; 408  : 		mp_WndListener->OnTabSelChange(1);

  0270b	8b f4		 mov	 esi, esp
  0270d	6a 01		 push	 1
  0270f	8b 4d fc	 mov	 ecx, DWORD PTR _this$[ebp]
  02712	8b 91 e0 00 00
	00		 mov	 edx, DWORD PTR [ecx+224]
  02718	8b 45 fc	 mov	 eax, DWORD PTR _this$[ebp]
  0271b	8b 88 e0 00 00
	00		 mov	 ecx, DWORD PTR [eax+224]
  02721	8b 12		 mov	 edx, DWORD PTR [edx]
  02723	ff 52 08	 call	 DWORD PTR [edx+8]
  02726	3b f4		 cmp	 esi, esp
  02728	e8 00 00 00 00	 call	 __RTC_CheckEsp
$L192523:

; 409  : 	}
; 410  : }

  0272d	5e		 pop	 esi
  0272e	83 c4 04	 add	 esp, 4
  02731	3b ec		 cmp	 ebp, esp
  02733	e8 00 00 00 00	 call	 __RTC_CheckEsp
  02738	8b e5		 mov	 esp, ebp
  0273a	5d		 pop	 ebp
  0273b	c3		 ret	 0
?OnBtnSkin@CMainSkinWnd@@QAEXXZ ENDP			; CMainSkinWnd::OnBtnSkin
; Function compile flags: /Odt /RTCsu
_this$ = -4						; size = 4
?OnBtnWebSub@CMainSkinWnd@@QAEXXZ PROC NEAR		; CMainSkinWnd::OnBtnWebSub
; _this$ = ecx

; 412  : {

  02740	55		 push	 ebp
  02741	8b ec		 mov	 ebp, esp
  02743	51		 push	 ecx
  02744	56		 push	 esi
  02745	c7 45 fc cc cc
	cc cc		 mov	 DWORD PTR [ebp-4], -858993460 ; ccccccccH
  0274c	89 4d fc	 mov	 DWORD PTR _this$[ebp], ecx

; 413  : 	m_btnSub.SetCheck(0);

  0274f	6a 00		 push	 0
  02751	8b 4d fc	 mov	 ecx, DWORD PTR _this$[ebp]
  02754	81 c1 3c 03 00
	00		 add	 ecx, 828		; 0000033cH
  0275a	e8 00 00 00 00	 call	 ?SetCheck@CButton@@QAEXH@Z ; CButton::SetCheck

; 414  : 	m_btnSkin.SetCheck(0);

  0275f	6a 00		 push	 0
  02761	8b 4d fc	 mov	 ecx, DWORD PTR _this$[ebp]
  02764	81 c1 18 02 00
	00		 add	 ecx, 536		; 00000218H
  0276a	e8 00 00 00 00	 call	 ?SetCheck@CButton@@QAEXH@Z ; CButton::SetCheck

; 415  : 	m_btnWebSub.SetCheck(1);

  0276f	6a 01		 push	 1
  02771	8b 4d fc	 mov	 ecx, DWORD PTR _this$[ebp]
  02774	81 c1 60 04 00
	00		 add	 ecx, 1120		; 00000460H
  0277a	e8 00 00 00 00	 call	 ?SetCheck@CButton@@QAEXH@Z ; CButton::SetCheck

; 416  : 
; 417  : 	if( mp_WndListener )

  0277f	8b 45 fc	 mov	 eax, DWORD PTR _this$[ebp]
  02782	83 b8 e0 00 00
	00 00		 cmp	 DWORD PTR [eax+224], 0
  02789	74 22		 je	 SHORT $L192527

; 418  : 	{
; 419  : 		mp_WndListener->OnTabSelChange(2);

  0278b	8b f4		 mov	 esi, esp
  0278d	6a 02		 push	 2
  0278f	8b 4d fc	 mov	 ecx, DWORD PTR _this$[ebp]
  02792	8b 91 e0 00 00
	00		 mov	 edx, DWORD PTR [ecx+224]
  02798	8b 45 fc	 mov	 eax, DWORD PTR _this$[ebp]
  0279b	8b 88 e0 00 00
	00		 mov	 ecx, DWORD PTR [eax+224]
  027a1	8b 12		 mov	 edx, DWORD PTR [edx]
  027a3	ff 52 08	 call	 DWORD PTR [edx+8]
  027a6	3b f4		 cmp	 esi, esp
  027a8	e8 00 00 00 00	 call	 __RTC_CheckEsp
$L192527:

; 420  : 	}
; 421  : }

  027ad	5e		 pop	 esi
  027ae	83 c4 04	 add	 esp, 4
  027b1	3b ec		 cmp	 ebp, esp
  027b3	e8 00 00 00 00	 call	 __RTC_CheckEsp
  027b8	8b e5		 mov	 esp, ebp
  027ba	5d		 pop	 ebp
  027bb	c3		 ret	 0
?OnBtnWebSub@CMainSkinWnd@@QAEXXZ ENDP			; CMainSkinWnd::OnBtnWebSub
_TEXT	ENDS
PUBLIC	?SetCheckBtn@CMainSkinWnd@@QAEXH@Z		; CMainSkinWnd::SetCheckBtn
; Function compile flags: /Odt /RTCsu
_TEXT	SEGMENT
tv64 = -8						; size = 4
_this$ = -4						; size = 4
_ibtn$ = 8						; size = 4
?SetCheckBtn@CMainSkinWnd@@QAEXH@Z PROC NEAR		; CMainSkinWnd::SetCheckBtn
; _this$ = ecx

; 424  : {

  027c0	55		 push	 ebp
  027c1	8b ec		 mov	 ebp, esp
  027c3	83 ec 08	 sub	 esp, 8
  027c6	c7 45 f8 cc cc
	cc cc		 mov	 DWORD PTR [ebp-8], -858993460 ; ccccccccH
  027cd	c7 45 fc cc cc
	cc cc		 mov	 DWORD PTR [ebp-4], -858993460 ; ccccccccH
  027d4	89 4d fc	 mov	 DWORD PTR _this$[ebp], ecx

; 425  : 	switch (ibtn)

  027d7	8b 45 08	 mov	 eax, DWORD PTR _ibtn$[ebp]
  027da	89 45 f8	 mov	 DWORD PTR tv64[ebp], eax
  027dd	83 7d f8 00	 cmp	 DWORD PTR tv64[ebp], 0
  027e1	74 11		 je	 SHORT $L192537
  027e3	83 7d f8 01	 cmp	 DWORD PTR tv64[ebp], 1
  027e7	74 3d		 je	 SHORT $L192538
  027e9	83 7d f8 02	 cmp	 DWORD PTR tv64[ebp], 2
  027ed	74 69		 je	 SHORT $L192539
  027ef	e9 94 00 00 00	 jmp	 $L192532
$L192537:

; 426  : 	{
; 427  : 		case 0:
; 428  : 			m_btnSkin.SetCheck(0);

  027f4	6a 00		 push	 0
  027f6	8b 4d fc	 mov	 ecx, DWORD PTR _this$[ebp]
  027f9	81 c1 18 02 00
	00		 add	 ecx, 536		; 00000218H
  027ff	e8 00 00 00 00	 call	 ?SetCheck@CButton@@QAEXH@Z ; CButton::SetCheck

; 429  : 			m_btnSub.SetCheck(1);

  02804	6a 01		 push	 1
  02806	8b 4d fc	 mov	 ecx, DWORD PTR _this$[ebp]
  02809	81 c1 3c 03 00
	00		 add	 ecx, 828		; 0000033cH
  0280f	e8 00 00 00 00	 call	 ?SetCheck@CButton@@QAEXH@Z ; CButton::SetCheck

; 430  : 			m_btnWebSub.SetCheck(0);

  02814	6a 00		 push	 0
  02816	8b 4d fc	 mov	 ecx, DWORD PTR _this$[ebp]
  02819	81 c1 60 04 00
	00		 add	 ecx, 1120		; 00000460H
  0281f	e8 00 00 00 00	 call	 ?SetCheck@CButton@@QAEXH@Z ; CButton::SetCheck

; 431  : 			break;

  02824	eb 62		 jmp	 SHORT $L192532
$L192538:

; 432  : 		case 1:
; 433  : 			m_btnSkin.SetCheck(1);

  02826	6a 01		 push	 1
  02828	8b 4d fc	 mov	 ecx, DWORD PTR _this$[ebp]
  0282b	81 c1 18 02 00
	00		 add	 ecx, 536		; 00000218H
  02831	e8 00 00 00 00	 call	 ?SetCheck@CButton@@QAEXH@Z ; CButton::SetCheck

; 434  : 			m_btnSub.SetCheck(0);

  02836	6a 00		 push	 0
  02838	8b 4d fc	 mov	 ecx, DWORD PTR _this$[ebp]
  0283b	81 c1 3c 03 00
	00		 add	 ecx, 828		; 0000033cH
  02841	e8 00 00 00 00	 call	 ?SetCheck@CButton@@QAEXH@Z ; CButton::SetCheck

; 435  : 			m_btnWebSub.SetCheck(0);

  02846	6a 00		 push	 0
  02848	8b 4d fc	 mov	 ecx, DWORD PTR _this$[ebp]
  0284b	81 c1 60 04 00
	00		 add	 ecx, 1120		; 00000460H
  02851	e8 00 00 00 00	 call	 ?SetCheck@CButton@@QAEXH@Z ; CButton::SetCheck

; 436  : 			break;

  02856	eb 30		 jmp	 SHORT $L192532
$L192539:

; 437  : 		case 2:
; 438  : 			m_btnSkin.SetCheck(0);

  02858	6a 00		 push	 0
  0285a	8b 4d fc	 mov	 ecx, DWORD PTR _this$[ebp]
  0285d	81 c1 18 02 00
	00		 add	 ecx, 536		; 00000218H
  02863	e8 00 00 00 00	 call	 ?SetCheck@CButton@@QAEXH@Z ; CButton::SetCheck

; 439  : 			m_btnSub.SetCheck(0);

  02868	6a 00		 push	 0
  0286a	8b 4d fc	 mov	 ecx, DWORD PTR _this$[ebp]
  0286d	81 c1 3c 03 00
	00		 add	 ecx, 828		; 0000033cH
  02873	e8 00 00 00 00	 call	 ?SetCheck@CButton@@QAEXH@Z ; CButton::SetCheck

; 440  : 			m_btnWebSub.SetCheck(1);

  02878	6a 01		 push	 1
  0287a	8b 4d fc	 mov	 ecx, DWORD PTR _this$[ebp]
  0287d	81 c1 60 04 00
	00		 add	 ecx, 1120		; 00000460H
  02883	e8 00 00 00 00	 call	 ?SetCheck@CButton@@QAEXH@Z ; CButton::SetCheck
$L192532:

; 441  : 			break;
; 442  : 	}
; 443  : }

  02888	83 c4 08	 add	 esp, 8
  0288b	3b ec		 cmp	 ebp, esp
  0288d	e8 00 00 00 00	 call	 __RTC_CheckEsp
  02892	8b e5		 mov	 esp, ebp
  02894	5d		 pop	 ebp
  02895	c2 04 00	 ret	 4
?SetCheckBtn@CMainSkinWnd@@QAEXH@Z ENDP			; CMainSkinWnd::SetCheckBtn
_TEXT	ENDS
EXTRN	?OnLButtonDown@CWnd@@IAEXIVCPoint@@@Z:NEAR	; CWnd::OnLButtonDown
EXTRN	?PostMessageA@CWnd@@QAEHIIJ@Z:NEAR		; CWnd::PostMessageA
; Function compile flags: /Odt /RTCsu
_TEXT	SEGMENT
_this$ = -4						; size = 4
_nFlags$ = 8						; size = 4
_point$ = 12						; size = 8
?OnLButtonDown@CMainSkinWnd@@QAEXIVCPoint@@@Z PROC NEAR	; CMainSkinWnd::OnLButtonDown
; _this$ = ecx

; 445  : {

  028a0	55		 push	 ebp
  028a1	8b ec		 mov	 ebp, esp
  028a3	51		 push	 ecx
  028a4	c7 45 fc cc cc
	cc cc		 mov	 DWORD PTR [ebp-4], -858993460 ; ccccccccH
  028ab	89 4d fc	 mov	 DWORD PTR _this$[ebp], ecx

; 446  : 	PostMessage( WM_NCLBUTTONDOWN, HTCAPTION, (LPARAM)&point );	

  028ae	8d 45 0c	 lea	 eax, DWORD PTR _point$[ebp]
  028b1	50		 push	 eax
  028b2	6a 02		 push	 2
  028b4	68 a1 00 00 00	 push	 161			; 000000a1H
  028b9	8b 4d fc	 mov	 ecx, DWORD PTR _this$[ebp]
  028bc	e8 00 00 00 00	 call	 ?PostMessageA@CWnd@@QAEHIIJ@Z ; CWnd::PostMessageA

; 447  : 	CFrameWnd::OnLButtonDown(nFlags, point);

  028c1	8b 4d 10	 mov	 ecx, DWORD PTR _point$[ebp+4]
  028c4	51		 push	 ecx
  028c5	8b 55 0c	 mov	 edx, DWORD PTR _point$[ebp]
  028c8	52		 push	 edx
  028c9	8b 45 08	 mov	 eax, DWORD PTR _nFlags$[ebp]
  028cc	50		 push	 eax
  028cd	8b 4d fc	 mov	 ecx, DWORD PTR _this$[ebp]
  028d0	e8 00 00 00 00	 call	 ?OnLButtonDown@CWnd@@IAEXIVCPoint@@@Z ; CWnd::OnLButtonDown

; 448  : }

  028d5	83 c4 04	 add	 esp, 4
  028d8	3b ec		 cmp	 ebp, esp
  028da	e8 00 00 00 00	 call	 __RTC_CheckEsp
  028df	8b e5		 mov	 esp, ebp
  028e1	5d		 pop	 ebp
  028e2	c2 0c 00	 ret	 12			; 0000000cH
?OnLButtonDown@CMainSkinWnd@@QAEXIVCPoint@@@Z ENDP	; CMainSkinWnd::OnLButtonDown
_TEXT	ENDS
PUBLIC	?ShowColorBtn@CMainSkinWnd@@QAEXH@Z		; CMainSkinWnd::ShowColorBtn
; Function compile flags: /Odt /RTCsu
_TEXT	SEGMENT
_i$192550 = -8						; size = 4
_this$ = -4						; size = 4
_bShow$ = 8						; size = 4
?ShowColorBtn@CMainSkinWnd@@QAEXH@Z PROC NEAR		; CMainSkinWnd::ShowColorBtn
; _this$ = ecx

; 452  : {

  028f0	55		 push	 ebp
  028f1	8b ec		 mov	 ebp, esp
  028f3	83 ec 08	 sub	 esp, 8
  028f6	c7 45 f8 cc cc
	cc cc		 mov	 DWORD PTR [ebp-8], -858993460 ; ccccccccH
  028fd	c7 45 fc cc cc
	cc cc		 mov	 DWORD PTR [ebp-4], -858993460 ; ccccccccH
  02904	89 4d fc	 mov	 DWORD PTR _this$[ebp], ecx

; 453  : 	for( int i=0; i<m_colbtnVec.size(); i++ )

  02907	c7 45 f8 00 00
	00 00		 mov	 DWORD PTR _i$192550[ebp], 0
  0290e	eb 09		 jmp	 SHORT $L192551
$L192552:
  02910	8b 45 f8	 mov	 eax, DWORD PTR _i$192550[ebp]
  02913	83 c0 01	 add	 eax, 1
  02916	89 45 f8	 mov	 DWORD PTR _i$192550[ebp], eax
$L192551:
  02919	8b 4d fc	 mov	 ecx, DWORD PTR _this$[ebp]
  0291c	81 c1 e4 00 00
	00		 add	 ecx, 228		; 000000e4H
  02922	e8 00 00 00 00	 call	 ?size@?$vector@PAVCSkinButton2@@V?$allocator@PAVCSkinButton2@@@std@@@std@@QBEIXZ ; std::vector<CSkinButton2 *,std::allocator<CSkinButton2 *> >::size
  02927	39 45 f8	 cmp	 DWORD PTR _i$192550[ebp], eax
  0292a	73 26		 jae	 SHORT $L192553

; 454  : 	{		
; 455  : 		m_colbtnVec[i]->ShowWindow( bShow ? SW_SHOW:SW_HIDE );

  0292c	8b 4d 08	 mov	 ecx, DWORD PTR _bShow$[ebp]
  0292f	f7 d9		 neg	 ecx
  02931	1b c9		 sbb	 ecx, ecx
  02933	83 e1 05	 and	 ecx, 5
  02936	51		 push	 ecx
  02937	8b 55 f8	 mov	 edx, DWORD PTR _i$192550[ebp]
  0293a	52		 push	 edx
  0293b	8b 4d fc	 mov	 ecx, DWORD PTR _this$[ebp]
  0293e	81 c1 e4 00 00
	00		 add	 ecx, 228		; 000000e4H
  02944	e8 00 00 00 00	 call	 ??A?$vector@PAVCSkinButton2@@V?$allocator@PAVCSkinButton2@@@std@@@std@@QAEAAPAVCSkinButton2@@I@Z ; std::vector<CSkinButton2 *,std::allocator<CSkinButton2 *> >::operator[]
  02949	8b 08		 mov	 ecx, DWORD PTR [eax]
  0294b	e8 00 00 00 00	 call	 ?ShowWindow@CWnd@@QAEHH@Z ; CWnd::ShowWindow

; 456  : 	}

  02950	eb be		 jmp	 SHORT $L192552
$L192553:

; 457  : 
; 458  : //	m_colBtnMore.ShowWindow( bShow ? SW_SHOW : SW_HIDE );
; 459  : 	m_btnMoreColr.ShowWindow( bShow ? SW_SHOW : SW_HIDE );

  02952	8b 45 08	 mov	 eax, DWORD PTR _bShow$[ebp]
  02955	f7 d8		 neg	 eax
  02957	1b c0		 sbb	 eax, eax
  02959	83 e0 05	 and	 eax, 5
  0295c	50		 push	 eax
  0295d	8b 4d fc	 mov	 ecx, DWORD PTR _this$[ebp]
  02960	81 c1 84 05 00
	00		 add	 ecx, 1412		; 00000584H
  02966	e8 00 00 00 00	 call	 ?ShowWindow@CWnd@@QAEHH@Z ; CWnd::ShowWindow

; 460  : 	m_btnDownMore.ShowWindow( bShow ? SW_SHOW : SW_HIDE );

  0296b	8b 4d 08	 mov	 ecx, DWORD PTR _bShow$[ebp]
  0296e	f7 d9		 neg	 ecx
  02970	1b c9		 sbb	 ecx, ecx
  02972	83 e1 05	 and	 ecx, 5
  02975	51		 push	 ecx
  02976	8b 4d fc	 mov	 ecx, DWORD PTR _this$[ebp]
  02979	81 c1 a8 06 00
	00		 add	 ecx, 1704		; 000006a8H
  0297f	e8 00 00 00 00	 call	 ?ShowWindow@CWnd@@QAEHH@Z ; CWnd::ShowWindow

; 461  : }

  02984	83 c4 08	 add	 esp, 8
  02987	3b ec		 cmp	 ebp, esp
  02989	e8 00 00 00 00	 call	 __RTC_CheckEsp
  0298e	8b e5		 mov	 esp, ebp
  02990	5d		 pop	 ebp
  02991	c2 04 00	 ret	 4
?ShowColorBtn@CMainSkinWnd@@QAEXH@Z ENDP		; CMainSkinWnd::ShowColorBtn
_TEXT	ENDS
EXTRN	__imp_?GetLength@?$CSimpleStringT@D$00@ATL@@QBEHXZ:NEAR
EXTRN	__imp_?GetManager@?$CSimpleStringT@D$00@ATL@@QBEPAUIAtlStringMgr@2@XZ:NEAR
EXTRN	__imp_?Concatenate@?$CSimpleStringT@D$00@ATL@@KAXAAV12@PBDH1H@Z:NEAR
EXTRN	__imp_??0?$CStringT@DV?$StrTraitMFC_DLL@DV?$ChTraitsCRT@D@ATL@@@@@ATL@@QAE@PAUIAtlStringMgr@1@@Z:NEAR
;	COMDAT xdata$x
; File d:\program files (x86)\microsoft visual studio .net 2003\vc7\atlmfc\include\cstringt.h
xdata$x	SEGMENT
$T194633 DD	0ffffffffH
	DD	FLAT:$L194623
$T194628 DD	019930520H
	DD	01H
	DD	FLAT:$T194633
	DD	2 DUP(00H)
	DD	2 DUP(00H)
; Function compile flags: /Odt /RTCsu
xdata$x	ENDS
;	COMDAT ??HATL@@YA?AV?$CStringT@DV?$StrTraitMFC_DLL@DV?$ChTraitsCRT@D@ATL@@@@@0@ABV10@0@Z
_TEXT	SEGMENT
$T194625 = -28						; size = 4
_strResult$ = -20					; size = 4
__$EHRec$ = -12						; size = 12
___$ReturnUdt$ = 8					; size = 4
_str1$ = 12						; size = 4
_str2$ = 16						; size = 4
??HATL@@YA?AV?$CStringT@DV?$StrTraitMFC_DLL@DV?$ChTraitsCRT@D@ATL@@@@@0@ABV10@0@Z PROC NEAR ; ATL::operator+, COMDAT

; 2014 : 	{

  00000	55		 push	 ebp
  00001	8b ec		 mov	 ebp, esp
  00003	6a ff		 push	 -1
  00005	68 00 00 00 00	 push	 __ehhandler$??HATL@@YA?AV?$CStringT@DV?$StrTraitMFC_DLL@DV?$ChTraitsCRT@D@ATL@@@@@0@ABV10@0@Z
  0000a	64 a1 00 00 00
	00		 mov	 eax, DWORD PTR fs:__except_list
  00010	50		 push	 eax
  00011	64 89 25 00 00
	00 00		 mov	 DWORD PTR fs:__except_list, esp
  00018	83 ec 10	 sub	 esp, 16			; 00000010H
  0001b	56		 push	 esi
  0001c	57		 push	 edi
  0001d	b8 cc cc cc cc	 mov	 eax, -858993460		; ccccccccH
  00022	89 45 e4	 mov	 DWORD PTR [ebp-28], eax
  00025	89 45 e8	 mov	 DWORD PTR [ebp-24], eax
  00028	89 45 ec	 mov	 DWORD PTR [ebp-20], eax
  0002b	89 45 f0	 mov	 DWORD PTR [ebp-16], eax
  0002e	c7 45 e4 00 00
	00 00		 mov	 DWORD PTR $T194625[ebp], 0

; 2015 : 		CStringT strResult( str1.GetManager() );

  00035	8b f4		 mov	 esi, esp
  00037	8b 4d 0c	 mov	 ecx, DWORD PTR _str1$[ebp]
  0003a	ff 15 00 00 00
	00		 call	 DWORD PTR __imp_?GetManager@?$CSimpleStringT@D$00@ATL@@QBEPAUIAtlStringMgr@2@XZ
  00040	3b f4		 cmp	 esi, esp
  00042	e8 00 00 00 00	 call	 __RTC_CheckEsp
  00047	8b f4		 mov	 esi, esp
  00049	50		 push	 eax
  0004a	8d 4d ec	 lea	 ecx, DWORD PTR _strResult$[ebp]
  0004d	ff 15 00 00 00
	00		 call	 DWORD PTR __imp_??0?$CStringT@DV?$StrTraitMFC_DLL@DV?$ChTraitsCRT@D@ATL@@@@@ATL@@QAE@PAUIAtlStringMgr@1@@Z
  00053	3b f4		 cmp	 esi, esp
  00055	e8 00 00 00 00	 call	 __RTC_CheckEsp
  0005a	c7 45 fc 00 00
	00 00		 mov	 DWORD PTR __$EHRec$[ebp+8], 0

; 2016 : 
; 2017 : 		Concatenate( strResult, str1, str1.GetLength(), str2, str2.GetLength() );

  00061	8b f4		 mov	 esi, esp
  00063	8b 4d 10	 mov	 ecx, DWORD PTR _str2$[ebp]
  00066	ff 15 00 00 00
	00		 call	 DWORD PTR __imp_?GetLength@?$CSimpleStringT@D$00@ATL@@QBEHXZ
  0006c	3b f4		 cmp	 esi, esp
  0006e	e8 00 00 00 00	 call	 __RTC_CheckEsp
  00073	8b f4		 mov	 esi, esp
  00075	50		 push	 eax
  00076	8b fc		 mov	 edi, esp
  00078	8b 4d 10	 mov	 ecx, DWORD PTR _str2$[ebp]
  0007b	ff 15 00 00 00
	00		 call	 DWORD PTR __imp_??B?$CSimpleStringT@D$00@ATL@@QBEPBDXZ
  00081	3b fc		 cmp	 edi, esp
  00083	e8 00 00 00 00	 call	 __RTC_CheckEsp
  00088	50		 push	 eax
  00089	8b fc		 mov	 edi, esp
  0008b	8b 4d 0c	 mov	 ecx, DWORD PTR _str1$[ebp]
  0008e	ff 15 00 00 00
	00		 call	 DWORD PTR __imp_?GetLength@?$CSimpleStringT@D$00@ATL@@QBEHXZ
  00094	3b fc		 cmp	 edi, esp
  00096	e8 00 00 00 00	 call	 __RTC_CheckEsp
  0009b	50		 push	 eax
  0009c	8b fc		 mov	 edi, esp
  0009e	8b 4d 0c	 mov	 ecx, DWORD PTR _str1$[ebp]
  000a1	ff 15 00 00 00
	00		 call	 DWORD PTR __imp_??B?$CSimpleStringT@D$00@ATL@@QBEPBDXZ
  000a7	3b fc		 cmp	 edi, esp
  000a9	e8 00 00 00 00	 call	 __RTC_CheckEsp
  000ae	50		 push	 eax
  000af	8d 45 ec	 lea	 eax, DWORD PTR _strResult$[ebp]
  000b2	50		 push	 eax
  000b3	ff 15 00 00 00
	00		 call	 DWORD PTR __imp_?Concatenate@?$CSimpleStringT@D$00@ATL@@KAXAAV12@PBDH1H@Z
  000b9	83 c4 14	 add	 esp, 20			; 00000014H
  000bc	3b f4		 cmp	 esi, esp
  000be	e8 00 00 00 00	 call	 __RTC_CheckEsp

; 2018 : 
; 2019 : 		return( strResult );

  000c3	8b f4		 mov	 esi, esp
  000c5	8d 4d ec	 lea	 ecx, DWORD PTR _strResult$[ebp]
  000c8	51		 push	 ecx
  000c9	8b 4d 08	 mov	 ecx, DWORD PTR ___$ReturnUdt$[ebp]
  000cc	ff 15 00 00 00
	00		 call	 DWORD PTR __imp_??0?$CStringT@DV?$StrTraitMFC_DLL@DV?$ChTraitsCRT@D@ATL@@@@@ATL@@QAE@ABV01@@Z
  000d2	3b f4		 cmp	 esi, esp
  000d4	e8 00 00 00 00	 call	 __RTC_CheckEsp
  000d9	8b 55 e4	 mov	 edx, DWORD PTR $T194625[ebp]
  000dc	83 ca 01	 or	 edx, 1
  000df	89 55 e4	 mov	 DWORD PTR $T194625[ebp], edx
  000e2	c7 45 fc ff ff
	ff ff		 mov	 DWORD PTR __$EHRec$[ebp+8], -1
  000e9	8b f4		 mov	 esi, esp
  000eb	8d 4d ec	 lea	 ecx, DWORD PTR _strResult$[ebp]
  000ee	ff 15 00 00 00
	00		 call	 DWORD PTR __imp_??1?$CStringT@DV?$StrTraitMFC_DLL@DV?$ChTraitsCRT@D@ATL@@@@@ATL@@QAE@XZ
  000f4	3b f4		 cmp	 esi, esp
  000f6	e8 00 00 00 00	 call	 __RTC_CheckEsp
  000fb	8b 45 08	 mov	 eax, DWORD PTR ___$ReturnUdt$[ebp]

; 2020 : 	}

  000fe	52		 push	 edx
  000ff	8b cd		 mov	 ecx, ebp
  00101	50		 push	 eax
  00102	8d 15 00 00 00
	00		 lea	 edx, DWORD PTR $L194632
  00108	e8 00 00 00 00	 call	 @_RTC_CheckStackVars@8
  0010d	58		 pop	 eax
  0010e	5a		 pop	 edx
  0010f	8b 4d f4	 mov	 ecx, DWORD PTR __$EHRec$[ebp]
  00112	64 89 0d 00 00
	00 00		 mov	 DWORD PTR fs:__except_list, ecx
  00119	5f		 pop	 edi
  0011a	5e		 pop	 esi
  0011b	83 c4 1c	 add	 esp, 28			; 0000001cH
  0011e	3b ec		 cmp	 ebp, esp
  00120	e8 00 00 00 00	 call	 __RTC_CheckEsp
  00125	8b e5		 mov	 esp, ebp
  00127	5d		 pop	 ebp
  00128	c3		 ret	 0
$L194632:
  00129	01 00 00 00	 DD	 1
  0012d	00 00 00 00	 DD	 $L194631
$L194631:
  00131	ec ff ff ff	 DD	 -20			; ffffffecH
  00135	04 00 00 00	 DD	 4
  00139	00 00 00 00	 DD	 $L194629
$L194629:
  0013d	73		 DB	 115			; 00000073H
  0013e	74		 DB	 116			; 00000074H
  0013f	72		 DB	 114			; 00000072H
  00140	52		 DB	 82			; 00000052H
  00141	65		 DB	 101			; 00000065H
  00142	73		 DB	 115			; 00000073H
  00143	75		 DB	 117			; 00000075H
  00144	6c		 DB	 108			; 0000006cH
  00145	74		 DB	 116			; 00000074H
  00146	00		 DB	 0
_TEXT	ENDS
;	COMDAT text$x
text$x	SEGMENT
$L194623:
  00000	8b f4		 mov	 esi, esp
  00002	8d 4d ec	 lea	 ecx, DWORD PTR _strResult$[ebp]
  00005	ff 15 00 00 00
	00		 call	 DWORD PTR __imp_??1?$CStringT@DV?$StrTraitMFC_DLL@DV?$ChTraitsCRT@D@ATL@@@@@ATL@@QAE@XZ
  0000b	3b f4		 cmp	 esi, esp
  0000d	e9 00 00 00 00	 jmp	 __RTC_CheckEsp
__ehhandler$??HATL@@YA?AV?$CStringT@DV?$StrTraitMFC_DLL@DV?$ChTraitsCRT@D@ATL@@@@@0@ABV10@0@Z:
  00012	b8 00 00 00 00	 mov	 eax, OFFSET FLAT:$T194628
  00017	e9 00 00 00 00	 jmp	 ___CxxFrameHandler
text$x	ENDS
??HATL@@YA?AV?$CStringT@DV?$StrTraitMFC_DLL@DV?$ChTraitsCRT@D@ATL@@@@@0@ABV10@0@Z ENDP ; ATL::operator+
EXTRN	__imp_?StringLength@?$CSimpleStringT@D$00@ATL@@SAHPBD@Z:NEAR
;	COMDAT xdata$x
xdata$x	SEGMENT
$T194647 DD	0ffffffffH
	DD	FLAT:$L194637
$T194642 DD	019930520H
	DD	01H
	DD	FLAT:$T194647
	DD	2 DUP(00H)
	DD	2 DUP(00H)
; Function compile flags: /Odt /RTCsu
xdata$x	ENDS
;	COMDAT ??HATL@@YA?AV?$CStringT@DV?$StrTraitMFC_DLL@DV?$ChTraitsCRT@D@ATL@@@@@0@ABV10@PBD@Z
_TEXT	SEGMENT
$T194639 = -28						; size = 4
_strResult$ = -20					; size = 4
__$EHRec$ = -12						; size = 12
___$ReturnUdt$ = 8					; size = 4
_str1$ = 12						; size = 4
_psz2$ = 16						; size = 4
??HATL@@YA?AV?$CStringT@DV?$StrTraitMFC_DLL@DV?$ChTraitsCRT@D@ATL@@@@@0@ABV10@PBD@Z PROC NEAR ; ATL::operator+, COMDAT

; 2023 : 	{

  00000	55		 push	 ebp
  00001	8b ec		 mov	 ebp, esp
  00003	6a ff		 push	 -1
  00005	68 00 00 00 00	 push	 __ehhandler$??HATL@@YA?AV?$CStringT@DV?$StrTraitMFC_DLL@DV?$ChTraitsCRT@D@ATL@@@@@0@ABV10@PBD@Z
  0000a	64 a1 00 00 00
	00		 mov	 eax, DWORD PTR fs:__except_list
  00010	50		 push	 eax
  00011	64 89 25 00 00
	00 00		 mov	 DWORD PTR fs:__except_list, esp
  00018	83 ec 10	 sub	 esp, 16			; 00000010H
  0001b	56		 push	 esi
  0001c	57		 push	 edi
  0001d	b8 cc cc cc cc	 mov	 eax, -858993460		; ccccccccH
  00022	89 45 e4	 mov	 DWORD PTR [ebp-28], eax
  00025	89 45 e8	 mov	 DWORD PTR [ebp-24], eax
  00028	89 45 ec	 mov	 DWORD PTR [ebp-20], eax
  0002b	89 45 f0	 mov	 DWORD PTR [ebp-16], eax
  0002e	c7 45 e4 00 00
	00 00		 mov	 DWORD PTR $T194639[ebp], 0

; 2024 : 		CStringT strResult( str1.GetManager() );

  00035	8b f4		 mov	 esi, esp
  00037	8b 4d 0c	 mov	 ecx, DWORD PTR _str1$[ebp]
  0003a	ff 15 00 00 00
	00		 call	 DWORD PTR __imp_?GetManager@?$CSimpleStringT@D$00@ATL@@QBEPAUIAtlStringMgr@2@XZ
  00040	3b f4		 cmp	 esi, esp
  00042	e8 00 00 00 00	 call	 __RTC_CheckEsp
  00047	8b f4		 mov	 esi, esp
  00049	50		 push	 eax
  0004a	8d 4d ec	 lea	 ecx, DWORD PTR _strResult$[ebp]
  0004d	ff 15 00 00 00
	00		 call	 DWORD PTR __imp_??0?$CStringT@DV?$StrTraitMFC_DLL@DV?$ChTraitsCRT@D@ATL@@@@@ATL@@QAE@PAUIAtlStringMgr@1@@Z
  00053	3b f4		 cmp	 esi, esp
  00055	e8 00 00 00 00	 call	 __RTC_CheckEsp
  0005a	c7 45 fc 00 00
	00 00		 mov	 DWORD PTR __$EHRec$[ebp+8], 0

; 2025 : 
; 2026 : 		Concatenate( strResult, str1, str1.GetLength(), psz2, StringLength( psz2 ) );

  00061	8b f4		 mov	 esi, esp
  00063	8b 45 10	 mov	 eax, DWORD PTR _psz2$[ebp]
  00066	50		 push	 eax
  00067	ff 15 00 00 00
	00		 call	 DWORD PTR __imp_?StringLength@?$CSimpleStringT@D$00@ATL@@SAHPBD@Z
  0006d	83 c4 04	 add	 esp, 4
  00070	3b f4		 cmp	 esi, esp
  00072	e8 00 00 00 00	 call	 __RTC_CheckEsp
  00077	8b f4		 mov	 esi, esp
  00079	50		 push	 eax
  0007a	8b 4d 10	 mov	 ecx, DWORD PTR _psz2$[ebp]
  0007d	51		 push	 ecx
  0007e	8b fc		 mov	 edi, esp
  00080	8b 4d 0c	 mov	 ecx, DWORD PTR _str1$[ebp]
  00083	ff 15 00 00 00
	00		 call	 DWORD PTR __imp_?GetLength@?$CSimpleStringT@D$00@ATL@@QBEHXZ
  00089	3b fc		 cmp	 edi, esp
  0008b	e8 00 00 00 00	 call	 __RTC_CheckEsp
  00090	50		 push	 eax
  00091	8b fc		 mov	 edi, esp
  00093	8b 4d 0c	 mov	 ecx, DWORD PTR _str1$[ebp]
  00096	ff 15 00 00 00
	00		 call	 DWORD PTR __imp_??B?$CSimpleStringT@D$00@ATL@@QBEPBDXZ
  0009c	3b fc		 cmp	 edi, esp
  0009e	e8 00 00 00 00	 call	 __RTC_CheckEsp
  000a3	50		 push	 eax
  000a4	8d 55 ec	 lea	 edx, DWORD PTR _strResult$[ebp]
  000a7	52		 push	 edx
  000a8	ff 15 00 00 00
	00		 call	 DWORD PTR __imp_?Concatenate@?$CSimpleStringT@D$00@ATL@@KAXAAV12@PBDH1H@Z
  000ae	83 c4 14	 add	 esp, 20			; 00000014H
  000b1	3b f4		 cmp	 esi, esp
  000b3	e8 00 00 00 00	 call	 __RTC_CheckEsp

; 2027 : 
; 2028 : 		return( strResult );

  000b8	8b f4		 mov	 esi, esp
  000ba	8d 45 ec	 lea	 eax, DWORD PTR _strResult$[ebp]
  000bd	50		 push	 eax
  000be	8b 4d 08	 mov	 ecx, DWORD PTR ___$ReturnUdt$[ebp]
  000c1	ff 15 00 00 00
	00		 call	 DWORD PTR __imp_??0?$CStringT@DV?$StrTraitMFC_DLL@DV?$ChTraitsCRT@D@ATL@@@@@ATL@@QAE@ABV01@@Z
  000c7	3b f4		 cmp	 esi, esp
  000c9	e8 00 00 00 00	 call	 __RTC_CheckEsp
  000ce	8b 4d e4	 mov	 ecx, DWORD PTR $T194639[ebp]
  000d1	83 c9 01	 or	 ecx, 1
  000d4	89 4d e4	 mov	 DWORD PTR $T194639[ebp], ecx
  000d7	c7 45 fc ff ff
	ff ff		 mov	 DWORD PTR __$EHRec$[ebp+8], -1
  000de	8b f4		 mov	 esi, esp
  000e0	8d 4d ec	 lea	 ecx, DWORD PTR _strResult$[ebp]
  000e3	ff 15 00 00 00
	00		 call	 DWORD PTR __imp_??1?$CStringT@DV?$StrTraitMFC_DLL@DV?$ChTraitsCRT@D@ATL@@@@@ATL@@QAE@XZ
  000e9	3b f4		 cmp	 esi, esp
  000eb	e8 00 00 00 00	 call	 __RTC_CheckEsp
  000f0	8b 45 08	 mov	 eax, DWORD PTR ___$ReturnUdt$[ebp]

; 2029 : 	}

  000f3	52		 push	 edx
  000f4	8b cd		 mov	 ecx, ebp
  000f6	50		 push	 eax
  000f7	8d 15 00 00 00
	00		 lea	 edx, DWORD PTR $L194646
  000fd	e8 00 00 00 00	 call	 @_RTC_CheckStackVars@8
  00102	58		 pop	 eax
  00103	5a		 pop	 edx
  00104	8b 4d f4	 mov	 ecx, DWORD PTR __$EHRec$[ebp]
  00107	64 89 0d 00 00
	00 00		 mov	 DWORD PTR fs:__except_list, ecx
  0010e	5f		 pop	 edi
  0010f	5e		 pop	 esi
  00110	83 c4 1c	 add	 esp, 28			; 0000001cH
  00113	3b ec		 cmp	 ebp, esp
  00115	e8 00 00 00 00	 call	 __RTC_CheckEsp
  0011a	8b e5		 mov	 esp, ebp
  0011c	5d		 pop	 ebp
  0011d	c3		 ret	 0
$L194646:
  0011e	01 00 00 00	 DD	 1
  00122	00 00 00 00	 DD	 $L194645
$L194645:
  00126	ec ff ff ff	 DD	 -20			; ffffffecH
  0012a	04 00 00 00	 DD	 4
  0012e	00 00 00 00	 DD	 $L194643
$L194643:
  00132	73		 DB	 115			; 00000073H
  00133	74		 DB	 116			; 00000074H
  00134	72		 DB	 114			; 00000072H
  00135	52		 DB	 82			; 00000052H
  00136	65		 DB	 101			; 00000065H
  00137	73		 DB	 115			; 00000073H
  00138	75		 DB	 117			; 00000075H
  00139	6c		 DB	 108			; 0000006cH
  0013a	74		 DB	 116			; 00000074H
  0013b	00		 DB	 0
_TEXT	ENDS
;	COMDAT text$x
text$x	SEGMENT
$L194637:
  00000	8b f4		 mov	 esi, esp
  00002	8d 4d ec	 lea	 ecx, DWORD PTR _strResult$[ebp]
  00005	ff 15 00 00 00
	00		 call	 DWORD PTR __imp_??1?$CStringT@DV?$StrTraitMFC_DLL@DV?$ChTraitsCRT@D@ATL@@@@@ATL@@QAE@XZ
  0000b	3b f4		 cmp	 esi, esp
  0000d	e9 00 00 00 00	 jmp	 __RTC_CheckEsp
__ehhandler$??HATL@@YA?AV?$CStringT@DV?$StrTraitMFC_DLL@DV?$ChTraitsCRT@D@ATL@@@@@0@ABV10@PBD@Z:
  00012	b8 00 00 00 00	 mov	 eax, OFFSET FLAT:$T194642
  00017	e9 00 00 00 00	 jmp	 ___CxxFrameHandler
text$x	ENDS
??HATL@@YA?AV?$CStringT@DV?$StrTraitMFC_DLL@DV?$ChTraitsCRT@D@ATL@@@@@0@ABV10@PBD@Z ENDP ; ATL::operator+
PUBLIC	??0?$_Vector_val@PAVCSkinButton2@@V?$allocator@PAVCSkinButton2@@@std@@@std@@IAE@V?$allocator@PAVCSkinButton2@@@1@@Z ; std::_Vector_val<CSkinButton2 *,std::allocator<CSkinButton2 *> >::_Vector_val<CSkinButton2 *,std::allocator<CSkinButton2 *> >
PUBLIC	??0?$allocator@PAVCSkinButton2@@@std@@QAE@XZ	; std::allocator<CSkinButton2 *>::allocator<CSkinButton2 *>
PUBLIC	?_Buy@?$vector@PAVCSkinButton2@@V?$allocator@PAVCSkinButton2@@@std@@@std@@IAE_NI@Z ; std::vector<CSkinButton2 *,std::allocator<CSkinButton2 *> >::_Buy
; Function compile flags: /Odt /RTCsu
; File d:\program files (x86)\microsoft visual studio .net 2003\vc7\include\vector
;	COMDAT ??0?$vector@PAVCSkinButton2@@V?$allocator@PAVCSkinButton2@@@std@@@std@@QAE@XZ
_TEXT	SEGMENT
_this$ = -4						; size = 4
??0?$vector@PAVCSkinButton2@@V?$allocator@PAVCSkinButton2@@@std@@@std@@QAE@XZ PROC NEAR ; std::vector<CSkinButton2 *,std::allocator<CSkinButton2 *> >::vector<CSkinButton2 *,std::allocator<CSkinButton2 *> >, COMDAT
; _this$ = ecx

; 299  : 		{	// construct empty vector

  00000	55		 push	 ebp
  00001	8b ec		 mov	 ebp, esp
  00003	83 ec 08	 sub	 esp, 8
  00006	c7 45 f8 cc cc
	cc cc		 mov	 DWORD PTR [ebp-8], -858993460 ; ccccccccH
  0000d	c7 45 fc cc cc
	cc cc		 mov	 DWORD PTR [ebp-4], -858993460 ; ccccccccH
  00014	89 4d fc	 mov	 DWORD PTR _this$[ebp], ecx
  00017	51		 push	 ecx
  00018	8b cc		 mov	 ecx, esp
  0001a	e8 00 00 00 00	 call	 ??0?$allocator@PAVCSkinButton2@@@std@@QAE@XZ ; std::allocator<CSkinButton2 *>::allocator<CSkinButton2 *>
  0001f	8b 4d fc	 mov	 ecx, DWORD PTR _this$[ebp]
  00022	e8 00 00 00 00	 call	 ??0?$_Vector_val@PAVCSkinButton2@@V?$allocator@PAVCSkinButton2@@@std@@@std@@IAE@V?$allocator@PAVCSkinButton2@@@1@@Z ; std::_Vector_val<CSkinButton2 *,std::allocator<CSkinButton2 *> >::_Vector_val<CSkinButton2 *,std::allocator<CSkinButton2 *> >

; 300  : 		_Buy(0);

  00027	6a 00		 push	 0
  00029	8b 4d fc	 mov	 ecx, DWORD PTR _this$[ebp]
  0002c	e8 00 00 00 00	 call	 ?_Buy@?$vector@PAVCSkinButton2@@V?$allocator@PAVCSkinButton2@@@std@@@std@@IAE_NI@Z ; std::vector<CSkinButton2 *,std::allocator<CSkinButton2 *> >::_Buy

; 301  : 		}

  00031	8b 45 fc	 mov	 eax, DWORD PTR _this$[ebp]
  00034	83 c4 08	 add	 esp, 8
  00037	3b ec		 cmp	 ebp, esp
  00039	e8 00 00 00 00	 call	 __RTC_CheckEsp
  0003e	8b e5		 mov	 esp, ebp
  00040	5d		 pop	 ebp
  00041	c3		 ret	 0
??0?$vector@PAVCSkinButton2@@V?$allocator@PAVCSkinButton2@@@std@@@std@@QAE@XZ ENDP ; std::vector<CSkinButton2 *,std::allocator<CSkinButton2 *> >::vector<CSkinButton2 *,std::allocator<CSkinButton2 *> >
_TEXT	ENDS
PUBLIC	?_Tidy@?$vector@PAVCSkinButton2@@V?$allocator@PAVCSkinButton2@@@std@@@std@@IAEXXZ ; std::vector<CSkinButton2 *,std::allocator<CSkinButton2 *> >::_Tidy
; Function compile flags: /Odt /RTCsu
;	COMDAT ??1?$vector@PAVCSkinButton2@@V?$allocator@PAVCSkinButton2@@@std@@@std@@QAE@XZ
_TEXT	SEGMENT
_this$ = -4						; size = 4
??1?$vector@PAVCSkinButton2@@V?$allocator@PAVCSkinButton2@@@std@@@std@@QAE@XZ PROC NEAR ; std::vector<CSkinButton2 *,std::allocator<CSkinButton2 *> >::~vector<CSkinButton2 *,std::allocator<CSkinButton2 *> >, COMDAT
; _this$ = ecx

; 387  : 		{	// destroy the object

  00000	55		 push	 ebp
  00001	8b ec		 mov	 ebp, esp
  00003	51		 push	 ecx
  00004	c7 45 fc cc cc
	cc cc		 mov	 DWORD PTR [ebp-4], -858993460 ; ccccccccH
  0000b	89 4d fc	 mov	 DWORD PTR _this$[ebp], ecx

; 388  : 		_Tidy();

  0000e	8b 4d fc	 mov	 ecx, DWORD PTR _this$[ebp]
  00011	e8 00 00 00 00	 call	 ?_Tidy@?$vector@PAVCSkinButton2@@V?$allocator@PAVCSkinButton2@@@std@@@std@@IAEXXZ ; std::vector<CSkinButton2 *,std::allocator<CSkinButton2 *> >::_Tidy

; 389  : 		}

  00016	83 c4 04	 add	 esp, 4
  00019	3b ec		 cmp	 ebp, esp
  0001b	e8 00 00 00 00	 call	 __RTC_CheckEsp
  00020	8b e5		 mov	 esp, ebp
  00022	5d		 pop	 ebp
  00023	c3		 ret	 0
??1?$vector@PAVCSkinButton2@@V?$allocator@PAVCSkinButton2@@@std@@@std@@QAE@XZ ENDP ; std::vector<CSkinButton2 *,std::allocator<CSkinButton2 *> >::~vector<CSkinButton2 *,std::allocator<CSkinButton2 *> >
_TEXT	ENDS
PUBLIC	??0iterator@?$vector@PAVCSkinButton2@@V?$allocator@PAVCSkinButton2@@@std@@@std@@QAE@PAPAVCSkinButton2@@@Z ; std::vector<CSkinButton2 *,std::allocator<CSkinButton2 *> >::iterator::iterator
; Function compile flags: /Odt /RTCsu
;	COMDAT ?begin@?$vector@PAVCSkinButton2@@V?$allocator@PAVCSkinButton2@@@std@@@std@@QAE?AViterator@12@XZ
_TEXT	SEGMENT
_this$ = -4						; size = 4
___$ReturnUdt$ = 8					; size = 4
?begin@?$vector@PAVCSkinButton2@@V?$allocator@PAVCSkinButton2@@@std@@@std@@QAE?AViterator@12@XZ PROC NEAR ; std::vector<CSkinButton2 *,std::allocator<CSkinButton2 *> >::begin, COMDAT
; _this$ = ecx

; 462  : 		{	// return iterator for beginning of mutable sequence

  00000	55		 push	 ebp
  00001	8b ec		 mov	 ebp, esp
  00003	51		 push	 ecx
  00004	c7 45 fc cc cc
	cc cc		 mov	 DWORD PTR [ebp-4], -858993460 ; ccccccccH
  0000b	89 4d fc	 mov	 DWORD PTR _this$[ebp], ecx

; 463  : 		return (iterator(_Myfirst));

  0000e	8b 45 fc	 mov	 eax, DWORD PTR _this$[ebp]
  00011	8b 48 04	 mov	 ecx, DWORD PTR [eax+4]
  00014	51		 push	 ecx
  00015	8b 4d 08	 mov	 ecx, DWORD PTR ___$ReturnUdt$[ebp]
  00018	e8 00 00 00 00	 call	 ??0iterator@?$vector@PAVCSkinButton2@@V?$allocator@PAVCSkinButton2@@@std@@@std@@QAE@PAPAVCSkinButton2@@@Z ; std::vector<CSkinButton2 *,std::allocator<CSkinButton2 *> >::iterator::iterator
  0001d	8b 45 08	 mov	 eax, DWORD PTR ___$ReturnUdt$[ebp]

; 464  : 		}

  00020	83 c4 04	 add	 esp, 4
  00023	3b ec		 cmp	 ebp, esp
  00025	e8 00 00 00 00	 call	 __RTC_CheckEsp
  0002a	8b e5		 mov	 esp, ebp
  0002c	5d		 pop	 ebp
  0002d	c2 04 00	 ret	 4
?begin@?$vector@PAVCSkinButton2@@V?$allocator@PAVCSkinButton2@@@std@@@std@@QAE?AViterator@12@XZ ENDP ; std::vector<CSkinButton2 *,std::allocator<CSkinButton2 *> >::begin
; Function compile flags: /Odt /RTCsu
_TEXT	ENDS
;	COMDAT ?end@?$vector@PAVCSkinButton2@@V?$allocator@PAVCSkinButton2@@@std@@@std@@QAE?AViterator@12@XZ
_TEXT	SEGMENT
_this$ = -4						; size = 4
___$ReturnUdt$ = 8					; size = 4
?end@?$vector@PAVCSkinButton2@@V?$allocator@PAVCSkinButton2@@@std@@@std@@QAE?AViterator@12@XZ PROC NEAR ; std::vector<CSkinButton2 *,std::allocator<CSkinButton2 *> >::end, COMDAT
; _this$ = ecx

; 472  : 		{	// return iterator for end of mutable sequence

  00000	55		 push	 ebp
  00001	8b ec		 mov	 ebp, esp
  00003	51		 push	 ecx
  00004	c7 45 fc cc cc
	cc cc		 mov	 DWORD PTR [ebp-4], -858993460 ; ccccccccH
  0000b	89 4d fc	 mov	 DWORD PTR _this$[ebp], ecx

; 473  : 		return (iterator(_Mylast));

  0000e	8b 45 fc	 mov	 eax, DWORD PTR _this$[ebp]
  00011	8b 48 08	 mov	 ecx, DWORD PTR [eax+8]
  00014	51		 push	 ecx
  00015	8b 4d 08	 mov	 ecx, DWORD PTR ___$ReturnUdt$[ebp]
  00018	e8 00 00 00 00	 call	 ??0iterator@?$vector@PAVCSkinButton2@@V?$allocator@PAVCSkinButton2@@@std@@@std@@QAE@PAPAVCSkinButton2@@@Z ; std::vector<CSkinButton2 *,std::allocator<CSkinButton2 *> >::iterator::iterator
  0001d	8b 45 08	 mov	 eax, DWORD PTR ___$ReturnUdt$[ebp]

; 474  : 		}

  00020	83 c4 04	 add	 esp, 4
  00023	3b ec		 cmp	 ebp, esp
  00025	e8 00 00 00 00	 call	 __RTC_CheckEsp
  0002a	8b e5		 mov	 esp, ebp
  0002c	5d		 pop	 ebp
  0002d	c2 04 00	 ret	 4
?end@?$vector@PAVCSkinButton2@@V?$allocator@PAVCSkinButton2@@@std@@@std@@QAE?AViterator@12@XZ ENDP ; std::vector<CSkinButton2 *,std::allocator<CSkinButton2 *> >::end
; Function compile flags: /Odt /RTCsu
_TEXT	ENDS
;	COMDAT ?size@?$vector@PAVCSkinButton2@@V?$allocator@PAVCSkinButton2@@@std@@@std@@QBEIXZ
_TEXT	SEGMENT
tv70 = -8						; size = 4
_this$ = -4						; size = 4
?size@?$vector@PAVCSkinButton2@@V?$allocator@PAVCSkinButton2@@@std@@@std@@QBEIXZ PROC NEAR ; std::vector<CSkinButton2 *,std::allocator<CSkinButton2 *> >::size, COMDAT
; _this$ = ecx

; 515  : 		{	// return length of sequence

  00000	55		 push	 ebp
  00001	8b ec		 mov	 ebp, esp
  00003	83 ec 08	 sub	 esp, 8
  00006	c7 45 f8 cc cc
	cc cc		 mov	 DWORD PTR [ebp-8], -858993460 ; ccccccccH
  0000d	c7 45 fc cc cc
	cc cc		 mov	 DWORD PTR [ebp-4], -858993460 ; ccccccccH
  00014	89 4d fc	 mov	 DWORD PTR _this$[ebp], ecx

; 516  : 		return (_Myfirst == 0 ? 0 : _Mylast - _Myfirst);

  00017	8b 45 fc	 mov	 eax, DWORD PTR _this$[ebp]
  0001a	83 78 04 00	 cmp	 DWORD PTR [eax+4], 0
  0001e	75 09		 jne	 SHORT $L194656
  00020	c7 45 f8 00 00
	00 00		 mov	 DWORD PTR tv70[ebp], 0
  00027	eb 12		 jmp	 SHORT $L194657
$L194656:
  00029	8b 4d fc	 mov	 ecx, DWORD PTR _this$[ebp]
  0002c	8b 55 fc	 mov	 edx, DWORD PTR _this$[ebp]
  0002f	8b 41 08	 mov	 eax, DWORD PTR [ecx+8]
  00032	2b 42 04	 sub	 eax, DWORD PTR [edx+4]
  00035	c1 f8 02	 sar	 eax, 2
  00038	89 45 f8	 mov	 DWORD PTR tv70[ebp], eax
$L194657:
  0003b	8b 45 f8	 mov	 eax, DWORD PTR tv70[ebp]

; 517  : 		}

  0003e	8b e5		 mov	 esp, ebp
  00040	5d		 pop	 ebp
  00041	c3		 ret	 0
?size@?$vector@PAVCSkinButton2@@V?$allocator@PAVCSkinButton2@@@std@@@std@@QBEIXZ ENDP ; std::vector<CSkinButton2 *,std::allocator<CSkinButton2 *> >::size
_TEXT	ENDS
PUBLIC	??Hiterator@?$vector@PAVCSkinButton2@@V?$allocator@PAVCSkinButton2@@@std@@@std@@QBE?AV012@H@Z ; std::vector<CSkinButton2 *,std::allocator<CSkinButton2 *> >::iterator::operator+
; Function compile flags: /Odt /RTCsu
;	COMDAT ??A?$vector@PAVCSkinButton2@@V?$allocator@PAVCSkinButton2@@@std@@@std@@QAEAAPAVCSkinButton2@@I@Z
_TEXT	SEGMENT
$T194660 = -12						; size = 4
$T194659 = -8						; size = 4
_this$ = -4						; size = 4
__Pos$ = 8						; size = 4
??A?$vector@PAVCSkinButton2@@V?$allocator@PAVCSkinButton2@@@std@@@std@@QAEAAPAVCSkinButton2@@I@Z PROC NEAR ; std::vector<CSkinButton2 *,std::allocator<CSkinButton2 *> >::operator[], COMDAT
; _this$ = ecx

; 554  : 		{	// subscript mutable sequence

  00000	55		 push	 ebp
  00001	8b ec		 mov	 ebp, esp
  00003	83 ec 0c	 sub	 esp, 12			; 0000000cH
  00006	c7 45 f4 cc cc
	cc cc		 mov	 DWORD PTR [ebp-12], -858993460 ; ccccccccH
  0000d	c7 45 f8 cc cc
	cc cc		 mov	 DWORD PTR [ebp-8], -858993460 ; ccccccccH
  00014	c7 45 fc cc cc
	cc cc		 mov	 DWORD PTR [ebp-4], -858993460 ; ccccccccH
  0001b	89 4d fc	 mov	 DWORD PTR _this$[ebp], ecx

; 555  : 		return (*(begin() + _Pos));

  0001e	8b 45 08	 mov	 eax, DWORD PTR __Pos$[ebp]
  00021	50		 push	 eax
  00022	8d 4d f4	 lea	 ecx, DWORD PTR $T194660[ebp]
  00025	51		 push	 ecx
  00026	8d 55 f8	 lea	 edx, DWORD PTR $T194659[ebp]
  00029	52		 push	 edx
  0002a	8b 4d fc	 mov	 ecx, DWORD PTR _this$[ebp]
  0002d	e8 00 00 00 00	 call	 ?begin@?$vector@PAVCSkinButton2@@V?$allocator@PAVCSkinButton2@@@std@@@std@@QAE?AViterator@12@XZ ; std::vector<CSkinButton2 *,std::allocator<CSkinButton2 *> >::begin
  00032	8b c8		 mov	 ecx, eax
  00034	e8 00 00 00 00	 call	 ??Hiterator@?$vector@PAVCSkinButton2@@V?$allocator@PAVCSkinButton2@@@std@@@std@@QBE?AV012@H@Z ; std::vector<CSkinButton2 *,std::allocator<CSkinButton2 *> >::iterator::operator+
  00039	8b c8		 mov	 ecx, eax
  0003b	e8 00 00 00 00	 call	 ??Diterator@?$vector@PAVCSkinButton2@@V?$allocator@PAVCSkinButton2@@@std@@@std@@QBEAAPAVCSkinButton2@@XZ ; std::vector<CSkinButton2 *,std::allocator<CSkinButton2 *> >::iterator::operator*

; 556  : 		}

  00040	83 c4 0c	 add	 esp, 12			; 0000000cH
  00043	3b ec		 cmp	 ebp, esp
  00045	e8 00 00 00 00	 call	 __RTC_CheckEsp
  0004a	8b e5		 mov	 esp, ebp
  0004c	5d		 pop	 ebp
  0004d	c2 04 00	 ret	 4
??A?$vector@PAVCSkinButton2@@V?$allocator@PAVCSkinButton2@@@std@@@std@@QAEAAPAVCSkinButton2@@I@Z ENDP ; std::vector<CSkinButton2 *,std::allocator<CSkinButton2 *> >::operator[]
_TEXT	ENDS
PUBLIC	?capacity@?$vector@PAVCSkinButton2@@V?$allocator@PAVCSkinButton2@@@std@@@std@@QBEIXZ ; std::vector<CSkinButton2 *,std::allocator<CSkinButton2 *> >::capacity
PUBLIC	?insert@?$vector@PAVCSkinButton2@@V?$allocator@PAVCSkinButton2@@@std@@@std@@QAE?AViterator@12@V312@ABQAVCSkinButton2@@@Z ; std::vector<CSkinButton2 *,std::allocator<CSkinButton2 *> >::insert
PUBLIC	?_Ufill@?$vector@PAVCSkinButton2@@V?$allocator@PAVCSkinButton2@@@std@@@std@@IAEPAPAVCSkinButton2@@PAPAV3@IABQAV3@@Z ; std::vector<CSkinButton2 *,std::allocator<CSkinButton2 *> >::_Ufill
; Function compile flags: /Odt /RTCsu
;	COMDAT ?push_back@?$vector@PAVCSkinButton2@@V?$allocator@PAVCSkinButton2@@@std@@@std@@QAEXABQAVCSkinButton2@@@Z
_TEXT	SEGMENT
$T194663 = -12						; size = 4
$T194662 = -8						; size = 4
_this$ = -4						; size = 4
__Val$ = 8						; size = 4
?push_back@?$vector@PAVCSkinButton2@@V?$allocator@PAVCSkinButton2@@@std@@@std@@QAEXABQAVCSkinButton2@@@Z PROC NEAR ; std::vector<CSkinButton2 *,std::allocator<CSkinButton2 *> >::push_back, COMDAT
; _this$ = ecx

; 579  : 		{	// insert element at end

  00000	55		 push	 ebp
  00001	8b ec		 mov	 ebp, esp
  00003	83 ec 0c	 sub	 esp, 12			; 0000000cH
  00006	56		 push	 esi
  00007	c7 45 f4 cc cc
	cc cc		 mov	 DWORD PTR [ebp-12], -858993460 ; ccccccccH
  0000e	c7 45 f8 cc cc
	cc cc		 mov	 DWORD PTR [ebp-8], -858993460 ; ccccccccH
  00015	c7 45 fc cc cc
	cc cc		 mov	 DWORD PTR [ebp-4], -858993460 ; ccccccccH
  0001c	89 4d fc	 mov	 DWORD PTR _this$[ebp], ecx

; 580  : 		if (size() < capacity())

  0001f	8b 4d fc	 mov	 ecx, DWORD PTR _this$[ebp]
  00022	e8 00 00 00 00	 call	 ?size@?$vector@PAVCSkinButton2@@V?$allocator@PAVCSkinButton2@@@std@@@std@@QBEIXZ ; std::vector<CSkinButton2 *,std::allocator<CSkinButton2 *> >::size
  00027	8b f0		 mov	 esi, eax
  00029	8b 4d fc	 mov	 ecx, DWORD PTR _this$[ebp]
  0002c	e8 00 00 00 00	 call	 ?capacity@?$vector@PAVCSkinButton2@@V?$allocator@PAVCSkinButton2@@@std@@@std@@QBEIXZ ; std::vector<CSkinButton2 *,std::allocator<CSkinButton2 *> >::capacity
  00031	3b f0		 cmp	 esi, eax
  00033	73 1d		 jae	 SHORT $L192651

; 581  : 			_Mylast = _Ufill(_Mylast, 1, _Val);

  00035	8b 45 08	 mov	 eax, DWORD PTR __Val$[ebp]
  00038	50		 push	 eax
  00039	6a 01		 push	 1
  0003b	8b 4d fc	 mov	 ecx, DWORD PTR _this$[ebp]
  0003e	8b 51 08	 mov	 edx, DWORD PTR [ecx+8]
  00041	52		 push	 edx
  00042	8b 4d fc	 mov	 ecx, DWORD PTR _this$[ebp]
  00045	e8 00 00 00 00	 call	 ?_Ufill@?$vector@PAVCSkinButton2@@V?$allocator@PAVCSkinButton2@@@std@@@std@@IAEPAPAVCSkinButton2@@PAPAV3@IABQAV3@@Z ; std::vector<CSkinButton2 *,std::allocator<CSkinButton2 *> >::_Ufill
  0004a	8b 4d fc	 mov	 ecx, DWORD PTR _this$[ebp]
  0004d	89 41 08	 mov	 DWORD PTR [ecx+8], eax

; 582  : 		else

  00050	eb 1f		 jmp	 SHORT $L192650
$L192651:

; 583  : 			insert(end(), _Val);

  00052	8b 55 08	 mov	 edx, DWORD PTR __Val$[ebp]
  00055	52		 push	 edx
  00056	8d 45 f8	 lea	 eax, DWORD PTR $T194662[ebp]
  00059	50		 push	 eax
  0005a	8b 4d fc	 mov	 ecx, DWORD PTR _this$[ebp]
  0005d	e8 00 00 00 00	 call	 ?end@?$vector@PAVCSkinButton2@@V?$allocator@PAVCSkinButton2@@@std@@@std@@QAE?AViterator@12@XZ ; std::vector<CSkinButton2 *,std::allocator<CSkinButton2 *> >::end
  00062	8b 08		 mov	 ecx, DWORD PTR [eax]
  00064	51		 push	 ecx
  00065	8d 55 f4	 lea	 edx, DWORD PTR $T194663[ebp]
  00068	52		 push	 edx
  00069	8b 4d fc	 mov	 ecx, DWORD PTR _this$[ebp]
  0006c	e8 00 00 00 00	 call	 ?insert@?$vector@PAVCSkinButton2@@V?$allocator@PAVCSkinButton2@@@std@@@std@@QAE?AViterator@12@V312@ABQAVCSkinButton2@@@Z ; std::vector<CSkinButton2 *,std::allocator<CSkinButton2 *> >::insert
$L192650:

; 584  : 		}

  00071	5e		 pop	 esi
  00072	83 c4 0c	 add	 esp, 12			; 0000000cH
  00075	3b ec		 cmp	 ebp, esp
  00077	e8 00 00 00 00	 call	 __RTC_CheckEsp
  0007c	8b e5		 mov	 esp, ebp
  0007e	5d		 pop	 ebp
  0007f	c2 04 00	 ret	 4
?push_back@?$vector@PAVCSkinButton2@@V?$allocator@PAVCSkinButton2@@@std@@@std@@QAEXABQAVCSkinButton2@@@Z ENDP ; std::vector<CSkinButton2 *,std::allocator<CSkinButton2 *> >::push_back
; Function compile flags: /Odt /RTCsu
_TEXT	ENDS
;	COMDAT ?clear@?$vector@PAVCSkinButton2@@V?$allocator@PAVCSkinButton2@@@std@@@std@@QAEXXZ
_TEXT	SEGMENT
_this$ = -4						; size = 4
?clear@?$vector@PAVCSkinButton2@@V?$allocator@PAVCSkinButton2@@@std@@@std@@QAEXXZ PROC NEAR ; std::vector<CSkinButton2 *,std::allocator<CSkinButton2 *> >::clear, COMDAT
; _this$ = ecx

; 743  : 		{	// erase all

  00000	55		 push	 ebp
  00001	8b ec		 mov	 ebp, esp
  00003	51		 push	 ecx
  00004	c7 45 fc cc cc
	cc cc		 mov	 DWORD PTR [ebp-4], -858993460 ; ccccccccH
  0000b	89 4d fc	 mov	 DWORD PTR _this$[ebp], ecx

; 744  : 		_Tidy();

  0000e	8b 4d fc	 mov	 ecx, DWORD PTR _this$[ebp]
  00011	e8 00 00 00 00	 call	 ?_Tidy@?$vector@PAVCSkinButton2@@V?$allocator@PAVCSkinButton2@@@std@@@std@@IAEXXZ ; std::vector<CSkinButton2 *,std::allocator<CSkinButton2 *> >::_Tidy

; 745  : 		}

  00016	83 c4 04	 add	 esp, 4
  00019	3b ec		 cmp	 ebp, esp
  0001b	e8 00 00 00 00	 call	 __RTC_CheckEsp
  00020	8b e5		 mov	 esp, ebp
  00022	5d		 pop	 ebp
  00023	c3		 ret	 0
?clear@?$vector@PAVCSkinButton2@@V?$allocator@PAVCSkinButton2@@@std@@@std@@QAEXXZ ENDP ; std::vector<CSkinButton2 *,std::allocator<CSkinButton2 *> >::clear
_TEXT	ENDS
PUBLIC	??Dconst_iterator@?$vector@PAVCSkinButton2@@V?$allocator@PAVCSkinButton2@@@std@@@std@@QBEABQAVCSkinButton2@@XZ ; std::vector<CSkinButton2 *,std::allocator<CSkinButton2 *> >::const_iterator::operator*
; Function compile flags: /Odt /RTCsu
;	COMDAT ??Diterator@?$vector@PAVCSkinButton2@@V?$allocator@PAVCSkinButton2@@@std@@@std@@QBEAAPAVCSkinButton2@@XZ
_TEXT	SEGMENT
_this$ = -4						; size = 4
??Diterator@?$vector@PAVCSkinButton2@@V?$allocator@PAVCSkinButton2@@@std@@@std@@QBEAAPAVCSkinButton2@@XZ PROC NEAR ; std::vector<CSkinButton2 *,std::allocator<CSkinButton2 *> >::iterator::operator*, COMDAT
; _this$ = ecx

; 219  : 			{	// return designated object

  00000	55		 push	 ebp
  00001	8b ec		 mov	 ebp, esp
  00003	51		 push	 ecx
  00004	c7 45 fc cc cc
	cc cc		 mov	 DWORD PTR [ebp-4], -858993460 ; ccccccccH
  0000b	89 4d fc	 mov	 DWORD PTR _this$[ebp], ecx

; 220  : 			return ((reference)**(const_iterator *)this);

  0000e	8b 4d fc	 mov	 ecx, DWORD PTR _this$[ebp]
  00011	e8 00 00 00 00	 call	 ??Dconst_iterator@?$vector@PAVCSkinButton2@@V?$allocator@PAVCSkinButton2@@@std@@@std@@QBEABQAVCSkinButton2@@XZ ; std::vector<CSkinButton2 *,std::allocator<CSkinButton2 *> >::const_iterator::operator*

; 221  : 			}

  00016	83 c4 04	 add	 esp, 4
  00019	3b ec		 cmp	 ebp, esp
  0001b	e8 00 00 00 00	 call	 __RTC_CheckEsp
  00020	8b e5		 mov	 esp, ebp
  00022	5d		 pop	 ebp
  00023	c3		 ret	 0
??Diterator@?$vector@PAVCSkinButton2@@V?$allocator@PAVCSkinButton2@@@std@@@std@@QBEAAPAVCSkinButton2@@XZ ENDP ; std::vector<CSkinButton2 *,std::allocator<CSkinButton2 *> >::iterator::operator*
_TEXT	ENDS
PUBLIC	??Eiterator@?$vector@PAVCSkinButton2@@V?$allocator@PAVCSkinButton2@@@std@@@std@@QAEAAV012@XZ ; std::vector<CSkinButton2 *,std::allocator<CSkinButton2 *> >::iterator::operator++
; Function compile flags: /Odt /RTCsu
;	COMDAT ??Eiterator@?$vector@PAVCSkinButton2@@V?$allocator@PAVCSkinButton2@@@std@@@std@@QAE?AV012@H@Z
_TEXT	SEGMENT
__Tmp$ = -12						; size = 4
_this$ = -4						; size = 4
___$ReturnUdt$ = 8					; size = 4
___formal$ = 12						; size = 4
??Eiterator@?$vector@PAVCSkinButton2@@V?$allocator@PAVCSkinButton2@@@std@@@std@@QAE?AV012@H@Z PROC NEAR ; std::vector<CSkinButton2 *,std::allocator<CSkinButton2 *> >::iterator::operator++, COMDAT
; _this$ = ecx

; 235  : 			{	// postincrement

  00000	55		 push	 ebp
  00001	8b ec		 mov	 ebp, esp
  00003	83 ec 10	 sub	 esp, 16			; 00000010H
  00006	b8 cc cc cc cc	 mov	 eax, -858993460		; ccccccccH
  0000b	89 45 f0	 mov	 DWORD PTR [ebp-16], eax
  0000e	89 45 f4	 mov	 DWORD PTR [ebp-12], eax
  00011	89 45 f8	 mov	 DWORD PTR [ebp-8], eax
  00014	89 45 fc	 mov	 DWORD PTR [ebp-4], eax
  00017	89 4d fc	 mov	 DWORD PTR _this$[ebp], ecx

; 236  : 			iterator _Tmp = *this;

  0001a	8b 45 fc	 mov	 eax, DWORD PTR _this$[ebp]
  0001d	8b 08		 mov	 ecx, DWORD PTR [eax]
  0001f	89 4d f4	 mov	 DWORD PTR __Tmp$[ebp], ecx

; 237  : 			++*this;

  00022	8b 4d fc	 mov	 ecx, DWORD PTR _this$[ebp]
  00025	e8 00 00 00 00	 call	 ??Eiterator@?$vector@PAVCSkinButton2@@V?$allocator@PAVCSkinButton2@@@std@@@std@@QAEAAV012@XZ ; std::vector<CSkinButton2 *,std::allocator<CSkinButton2 *> >::iterator::operator++

; 238  : 			return (_Tmp);

  0002a	8b 55 08	 mov	 edx, DWORD PTR ___$ReturnUdt$[ebp]
  0002d	8b 45 f4	 mov	 eax, DWORD PTR __Tmp$[ebp]
  00030	89 02		 mov	 DWORD PTR [edx], eax
  00032	8b 45 08	 mov	 eax, DWORD PTR ___$ReturnUdt$[ebp]

; 239  : 			}

  00035	52		 push	 edx
  00036	8b cd		 mov	 ecx, ebp
  00038	50		 push	 eax
  00039	8d 15 00 00 00
	00		 lea	 edx, DWORD PTR $L194669
  0003f	e8 00 00 00 00	 call	 @_RTC_CheckStackVars@8
  00044	58		 pop	 eax
  00045	5a		 pop	 edx
  00046	83 c4 10	 add	 esp, 16			; 00000010H
  00049	3b ec		 cmp	 ebp, esp
  0004b	e8 00 00 00 00	 call	 __RTC_CheckEsp
  00050	8b e5		 mov	 esp, ebp
  00052	5d		 pop	 ebp
  00053	c2 08 00	 ret	 8
$L194669:
  00056	01 00 00 00	 DD	 1
  0005a	00 00 00 00	 DD	 $L194668
$L194668:
  0005e	f4 ff ff ff	 DD	 -12			; fffffff4H
  00062	04 00 00 00	 DD	 4
  00066	00 00 00 00	 DD	 $L194667
$L194667:
  0006a	5f		 DB	 95			; 0000005fH
  0006b	54		 DB	 84			; 00000054H
  0006c	6d		 DB	 109			; 0000006dH
  0006d	70		 DB	 112			; 00000070H
  0006e	00		 DB	 0
??Eiterator@?$vector@PAVCSkinButton2@@V?$allocator@PAVCSkinButton2@@@std@@@std@@QAE?AV012@H@Z ENDP ; std::vector<CSkinButton2 *,std::allocator<CSkinButton2 *> >::iterator::operator++
_TEXT	ENDS
PUBLIC	??8const_iterator@?$vector@PAVCSkinButton2@@V?$allocator@PAVCSkinButton2@@@std@@@std@@QBE_NABV012@@Z ; std::vector<CSkinButton2 *,std::allocator<CSkinButton2 *> >::const_iterator::operator==
; Function compile flags: /Odt /RTCsu
;	COMDAT ??9const_iterator@?$vector@PAVCSkinButton2@@V?$allocator@PAVCSkinButton2@@@std@@@std@@QBE_NABV012@@Z
_TEXT	SEGMENT
_this$ = -4						; size = 4
__Right$ = 8						; size = 4
??9const_iterator@?$vector@PAVCSkinButton2@@V?$allocator@PAVCSkinButton2@@@std@@@std@@QBE_NABV012@@Z PROC NEAR ; std::vector<CSkinButton2 *,std::allocator<CSkinButton2 *> >::const_iterator::operator!=, COMDAT
; _this$ = ecx

; 159  : 			{	// test for iterator inequality

  00000	55		 push	 ebp
  00001	8b ec		 mov	 ebp, esp
  00003	51		 push	 ecx
  00004	c7 45 fc cc cc
	cc cc		 mov	 DWORD PTR [ebp-4], -858993460 ; ccccccccH
  0000b	89 4d fc	 mov	 DWORD PTR _this$[ebp], ecx

; 160  : 			return (!(*this == _Right));

  0000e	8b 45 08	 mov	 eax, DWORD PTR __Right$[ebp]
  00011	50		 push	 eax
  00012	8b 4d fc	 mov	 ecx, DWORD PTR _this$[ebp]
  00015	e8 00 00 00 00	 call	 ??8const_iterator@?$vector@PAVCSkinButton2@@V?$allocator@PAVCSkinButton2@@@std@@@std@@QBE_NABV012@@Z ; std::vector<CSkinButton2 *,std::allocator<CSkinButton2 *> >::const_iterator::operator==
  0001a	0f b6 c0	 movzx	 eax, al
  0001d	f7 d8		 neg	 eax
  0001f	1b c0		 sbb	 eax, eax
  00021	40		 inc	 eax

; 161  : 			}

  00022	83 c4 04	 add	 esp, 4
  00025	3b ec		 cmp	 ebp, esp
  00027	e8 00 00 00 00	 call	 __RTC_CheckEsp
  0002c	8b e5		 mov	 esp, ebp
  0002e	5d		 pop	 ebp
  0002f	c2 04 00	 ret	 4
??9const_iterator@?$vector@PAVCSkinButton2@@V?$allocator@PAVCSkinButton2@@@std@@@std@@QBE_NABV012@@Z ENDP ; std::vector<CSkinButton2 *,std::allocator<CSkinButton2 *> >::const_iterator::operator!=
_TEXT	ENDS
PUBLIC	??0?$_Vector_val@KV?$allocator@K@std@@@std@@IAE@V?$allocator@K@1@@Z ; std::_Vector_val<unsigned long,std::allocator<unsigned long> >::_Vector_val<unsigned long,std::allocator<unsigned long> >
PUBLIC	??0?$allocator@K@std@@QAE@XZ			; std::allocator<unsigned long>::allocator<unsigned long>
PUBLIC	?_Buy@?$vector@KV?$allocator@K@std@@@std@@IAE_NI@Z ; std::vector<unsigned long,std::allocator<unsigned long> >::_Buy
; Function compile flags: /Odt /RTCsu
;	COMDAT ??0?$vector@KV?$allocator@K@std@@@std@@QAE@XZ
_TEXT	SEGMENT
_this$ = -4						; size = 4
??0?$vector@KV?$allocator@K@std@@@std@@QAE@XZ PROC NEAR	; std::vector<unsigned long,std::allocator<unsigned long> >::vector<unsigned long,std::allocator<unsigned long> >, COMDAT
; _this$ = ecx

; 299  : 		{	// construct empty vector

  00000	55		 push	 ebp
  00001	8b ec		 mov	 ebp, esp
  00003	83 ec 08	 sub	 esp, 8
  00006	c7 45 f8 cc cc
	cc cc		 mov	 DWORD PTR [ebp-8], -858993460 ; ccccccccH
  0000d	c7 45 fc cc cc
	cc cc		 mov	 DWORD PTR [ebp-4], -858993460 ; ccccccccH
  00014	89 4d fc	 mov	 DWORD PTR _this$[ebp], ecx
  00017	51		 push	 ecx
  00018	8b cc		 mov	 ecx, esp
  0001a	e8 00 00 00 00	 call	 ??0?$allocator@K@std@@QAE@XZ ; std::allocator<unsigned long>::allocator<unsigned long>
  0001f	8b 4d fc	 mov	 ecx, DWORD PTR _this$[ebp]
  00022	e8 00 00 00 00	 call	 ??0?$_Vector_val@KV?$allocator@K@std@@@std@@IAE@V?$allocator@K@1@@Z ; std::_Vector_val<unsigned long,std::allocator<unsigned long> >::_Vector_val<unsigned long,std::allocator<unsigned long> >

; 300  : 		_Buy(0);

  00027	6a 00		 push	 0
  00029	8b 4d fc	 mov	 ecx, DWORD PTR _this$[ebp]
  0002c	e8 00 00 00 00	 call	 ?_Buy@?$vector@KV?$allocator@K@std@@@std@@IAE_NI@Z ; std::vector<unsigned long,std::allocator<unsigned long> >::_Buy

; 301  : 		}

  00031	8b 45 fc	 mov	 eax, DWORD PTR _this$[ebp]
  00034	83 c4 08	 add	 esp, 8
  00037	3b ec		 cmp	 ebp, esp
  00039	e8 00 00 00 00	 call	 __RTC_CheckEsp
  0003e	8b e5		 mov	 esp, ebp
  00040	5d		 pop	 ebp
  00041	c3		 ret	 0
??0?$vector@KV?$allocator@K@std@@@std@@QAE@XZ ENDP	; std::vector<unsigned long,std::allocator<unsigned long> >::vector<unsigned long,std::allocator<unsigned long> >
_TEXT	ENDS
PUBLIC	?_Tidy@?$vector@KV?$allocator@K@std@@@std@@IAEXXZ ; std::vector<unsigned long,std::allocator<unsigned long> >::_Tidy
; Function compile flags: /Odt /RTCsu
;	COMDAT ??1?$vector@KV?$allocator@K@std@@@std@@QAE@XZ
_TEXT	SEGMENT
_this$ = -4						; size = 4
??1?$vector@KV?$allocator@K@std@@@std@@QAE@XZ PROC NEAR	; std::vector<unsigned long,std::allocator<unsigned long> >::~vector<unsigned long,std::allocator<unsigned long> >, COMDAT
; _this$ = ecx

; 387  : 		{	// destroy the object

  00000	55		 push	 ebp
  00001	8b ec		 mov	 ebp, esp
  00003	51		 push	 ecx
  00004	c7 45 fc cc cc
	cc cc		 mov	 DWORD PTR [ebp-4], -858993460 ; ccccccccH
  0000b	89 4d fc	 mov	 DWORD PTR _this$[ebp], ecx

; 388  : 		_Tidy();

  0000e	8b 4d fc	 mov	 ecx, DWORD PTR _this$[ebp]
  00011	e8 00 00 00 00	 call	 ?_Tidy@?$vector@KV?$allocator@K@std@@@std@@IAEXXZ ; std::vector<unsigned long,std::allocator<unsigned long> >::_Tidy

; 389  : 		}

  00016	83 c4 04	 add	 esp, 4
  00019	3b ec		 cmp	 ebp, esp
  0001b	e8 00 00 00 00	 call	 __RTC_CheckEsp
  00020	8b e5		 mov	 esp, ebp
  00022	5d		 pop	 ebp
  00023	c3		 ret	 0
??1?$vector@KV?$allocator@K@std@@@std@@QAE@XZ ENDP	; std::vector<unsigned long,std::allocator<unsigned long> >::~vector<unsigned long,std::allocator<unsigned long> >
_TEXT	ENDS
PUBLIC	??Diterator@?$vector@KV?$allocator@K@std@@@std@@QBEAAKXZ ; std::vector<unsigned long,std::allocator<unsigned long> >::iterator::operator*
PUBLIC	??Hiterator@?$vector@KV?$allocator@K@std@@@std@@QBE?AV012@H@Z ; std::vector<unsigned long,std::allocator<unsigned long> >::iterator::operator+
PUBLIC	?begin@?$vector@KV?$allocator@K@std@@@std@@QAE?AViterator@12@XZ ; std::vector<unsigned long,std::allocator<unsigned long> >::begin
; Function compile flags: /Odt /RTCsu
;	COMDAT ??A?$vector@KV?$allocator@K@std@@@std@@QAEAAKI@Z
_TEXT	SEGMENT
$T194676 = -12						; size = 4
$T194675 = -8						; size = 4
_this$ = -4						; size = 4
__Pos$ = 8						; size = 4
??A?$vector@KV?$allocator@K@std@@@std@@QAEAAKI@Z PROC NEAR ; std::vector<unsigned long,std::allocator<unsigned long> >::operator[], COMDAT
; _this$ = ecx

; 554  : 		{	// subscript mutable sequence

  00000	55		 push	 ebp
  00001	8b ec		 mov	 ebp, esp
  00003	83 ec 0c	 sub	 esp, 12			; 0000000cH
  00006	c7 45 f4 cc cc
	cc cc		 mov	 DWORD PTR [ebp-12], -858993460 ; ccccccccH
  0000d	c7 45 f8 cc cc
	cc cc		 mov	 DWORD PTR [ebp-8], -858993460 ; ccccccccH
  00014	c7 45 fc cc cc
	cc cc		 mov	 DWORD PTR [ebp-4], -858993460 ; ccccccccH
  0001b	89 4d fc	 mov	 DWORD PTR _this$[ebp], ecx

; 555  : 		return (*(begin() + _Pos));

  0001e	8b 45 08	 mov	 eax, DWORD PTR __Pos$[ebp]
  00021	50		 push	 eax
  00022	8d 4d f4	 lea	 ecx, DWORD PTR $T194676[ebp]
  00025	51		 push	 ecx
  00026	8d 55 f8	 lea	 edx, DWORD PTR $T194675[ebp]
  00029	52		 push	 edx
  0002a	8b 4d fc	 mov	 ecx, DWORD PTR _this$[ebp]
  0002d	e8 00 00 00 00	 call	 ?begin@?$vector@KV?$allocator@K@std@@@std@@QAE?AViterator@12@XZ ; std::vector<unsigned long,std::allocator<unsigned long> >::begin
  00032	8b c8		 mov	 ecx, eax
  00034	e8 00 00 00 00	 call	 ??Hiterator@?$vector@KV?$allocator@K@std@@@std@@QBE?AV012@H@Z ; std::vector<unsigned long,std::allocator<unsigned long> >::iterator::operator+
  00039	8b c8		 mov	 ecx, eax
  0003b	e8 00 00 00 00	 call	 ??Diterator@?$vector@KV?$allocator@K@std@@@std@@QBEAAKXZ ; std::vector<unsigned long,std::allocator<unsigned long> >::iterator::operator*

; 556  : 		}

  00040	83 c4 0c	 add	 esp, 12			; 0000000cH
  00043	3b ec		 cmp	 ebp, esp
  00045	e8 00 00 00 00	 call	 __RTC_CheckEsp
  0004a	8b e5		 mov	 esp, ebp
  0004c	5d		 pop	 ebp
  0004d	c2 04 00	 ret	 4
??A?$vector@KV?$allocator@K@std@@@std@@QAEAAKI@Z ENDP	; std::vector<unsigned long,std::allocator<unsigned long> >::operator[]
_TEXT	ENDS
PUBLIC	?capacity@?$vector@KV?$allocator@K@std@@@std@@QBEIXZ ; std::vector<unsigned long,std::allocator<unsigned long> >::capacity
PUBLIC	?end@?$vector@KV?$allocator@K@std@@@std@@QAE?AViterator@12@XZ ; std::vector<unsigned long,std::allocator<unsigned long> >::end
PUBLIC	?size@?$vector@KV?$allocator@K@std@@@std@@QBEIXZ ; std::vector<unsigned long,std::allocator<unsigned long> >::size
PUBLIC	?insert@?$vector@KV?$allocator@K@std@@@std@@QAE?AViterator@12@V312@ABK@Z ; std::vector<unsigned long,std::allocator<unsigned long> >::insert
PUBLIC	?_Ufill@?$vector@KV?$allocator@K@std@@@std@@IAEPAKPAKIABK@Z ; std::vector<unsigned long,std::allocator<unsigned long> >::_Ufill
; Function compile flags: /Odt /RTCsu
;	COMDAT ?push_back@?$vector@KV?$allocator@K@std@@@std@@QAEXABK@Z
_TEXT	SEGMENT
$T194679 = -12						; size = 4
$T194678 = -8						; size = 4
_this$ = -4						; size = 4
__Val$ = 8						; size = 4
?push_back@?$vector@KV?$allocator@K@std@@@std@@QAEXABK@Z PROC NEAR ; std::vector<unsigned long,std::allocator<unsigned long> >::push_back, COMDAT
; _this$ = ecx

; 579  : 		{	// insert element at end

  00000	55		 push	 ebp
  00001	8b ec		 mov	 ebp, esp
  00003	83 ec 0c	 sub	 esp, 12			; 0000000cH
  00006	56		 push	 esi
  00007	c7 45 f4 cc cc
	cc cc		 mov	 DWORD PTR [ebp-12], -858993460 ; ccccccccH
  0000e	c7 45 f8 cc cc
	cc cc		 mov	 DWORD PTR [ebp-8], -858993460 ; ccccccccH
  00015	c7 45 fc cc cc
	cc cc		 mov	 DWORD PTR [ebp-4], -858993460 ; ccccccccH
  0001c	89 4d fc	 mov	 DWORD PTR _this$[ebp], ecx

; 580  : 		if (size() < capacity())

  0001f	8b 4d fc	 mov	 ecx, DWORD PTR _this$[ebp]
  00022	e8 00 00 00 00	 call	 ?size@?$vector@KV?$allocator@K@std@@@std@@QBEIXZ ; std::vector<unsigned long,std::allocator<unsigned long> >::size
  00027	8b f0		 mov	 esi, eax
  00029	8b 4d fc	 mov	 ecx, DWORD PTR _this$[ebp]
  0002c	e8 00 00 00 00	 call	 ?capacity@?$vector@KV?$allocator@K@std@@@std@@QBEIXZ ; std::vector<unsigned long,std::allocator<unsigned long> >::capacity
  00031	3b f0		 cmp	 esi, eax
  00033	73 1d		 jae	 SHORT $L192799

; 581  : 			_Mylast = _Ufill(_Mylast, 1, _Val);

  00035	8b 45 08	 mov	 eax, DWORD PTR __Val$[ebp]
  00038	50		 push	 eax
  00039	6a 01		 push	 1
  0003b	8b 4d fc	 mov	 ecx, DWORD PTR _this$[ebp]
  0003e	8b 51 08	 mov	 edx, DWORD PTR [ecx+8]
  00041	52		 push	 edx
  00042	8b 4d fc	 mov	 ecx, DWORD PTR _this$[ebp]
  00045	e8 00 00 00 00	 call	 ?_Ufill@?$vector@KV?$allocator@K@std@@@std@@IAEPAKPAKIABK@Z ; std::vector<unsigned long,std::allocator<unsigned long> >::_Ufill
  0004a	8b 4d fc	 mov	 ecx, DWORD PTR _this$[ebp]
  0004d	89 41 08	 mov	 DWORD PTR [ecx+8], eax

; 582  : 		else

  00050	eb 1f		 jmp	 SHORT $L192798
$L192799:

; 583  : 			insert(end(), _Val);

  00052	8b 55 08	 mov	 edx, DWORD PTR __Val$[ebp]
  00055	52		 push	 edx
  00056	8d 45 f8	 lea	 eax, DWORD PTR $T194678[ebp]
  00059	50		 push	 eax
  0005a	8b 4d fc	 mov	 ecx, DWORD PTR _this$[ebp]
  0005d	e8 00 00 00 00	 call	 ?end@?$vector@KV?$allocator@K@std@@@std@@QAE?AViterator@12@XZ ; std::vector<unsigned long,std::allocator<unsigned long> >::end
  00062	8b 08		 mov	 ecx, DWORD PTR [eax]
  00064	51		 push	 ecx
  00065	8d 55 f4	 lea	 edx, DWORD PTR $T194679[ebp]
  00068	52		 push	 edx
  00069	8b 4d fc	 mov	 ecx, DWORD PTR _this$[ebp]
  0006c	e8 00 00 00 00	 call	 ?insert@?$vector@KV?$allocator@K@std@@@std@@QAE?AViterator@12@V312@ABK@Z ; std::vector<unsigned long,std::allocator<unsigned long> >::insert
$L192798:

; 584  : 		}

  00071	5e		 pop	 esi
  00072	83 c4 0c	 add	 esp, 12			; 0000000cH
  00075	3b ec		 cmp	 ebp, esp
  00077	e8 00 00 00 00	 call	 __RTC_CheckEsp
  0007c	8b e5		 mov	 esp, ebp
  0007e	5d		 pop	 ebp
  0007f	c2 04 00	 ret	 4
?push_back@?$vector@KV?$allocator@K@std@@@std@@QAEXABK@Z ENDP ; std::vector<unsigned long,std::allocator<unsigned long> >::push_back
; Function compile flags: /Odt /RTCsu
_TEXT	ENDS
;	COMDAT ?capacity@?$vector@PAVCSkinButton2@@V?$allocator@PAVCSkinButton2@@@std@@@std@@QBEIXZ
_TEXT	SEGMENT
tv70 = -8						; size = 4
_this$ = -4						; size = 4
?capacity@?$vector@PAVCSkinButton2@@V?$allocator@PAVCSkinButton2@@@std@@@std@@QBEIXZ PROC NEAR ; std::vector<CSkinButton2 *,std::allocator<CSkinButton2 *> >::capacity, COMDAT
; _this$ = ecx

; 457  : 		{	// return current length of allocated storage

  00000	55		 push	 ebp
  00001	8b ec		 mov	 ebp, esp
  00003	83 ec 08	 sub	 esp, 8
  00006	c7 45 f8 cc cc
	cc cc		 mov	 DWORD PTR [ebp-8], -858993460 ; ccccccccH
  0000d	c7 45 fc cc cc
	cc cc		 mov	 DWORD PTR [ebp-4], -858993460 ; ccccccccH
  00014	89 4d fc	 mov	 DWORD PTR _this$[ebp], ecx

; 458  : 		return (_Myfirst == 0 ? 0 : _Myend - _Myfirst);

  00017	8b 45 fc	 mov	 eax, DWORD PTR _this$[ebp]
  0001a	83 78 04 00	 cmp	 DWORD PTR [eax+4], 0
  0001e	75 09		 jne	 SHORT $L194681
  00020	c7 45 f8 00 00
	00 00		 mov	 DWORD PTR tv70[ebp], 0
  00027	eb 12		 jmp	 SHORT $L194682
$L194681:
  00029	8b 4d fc	 mov	 ecx, DWORD PTR _this$[ebp]
  0002c	8b 55 fc	 mov	 edx, DWORD PTR _this$[ebp]
  0002f	8b 41 0c	 mov	 eax, DWORD PTR [ecx+12]
  00032	2b 42 04	 sub	 eax, DWORD PTR [edx+4]
  00035	c1 f8 02	 sar	 eax, 2
  00038	89 45 f8	 mov	 DWORD PTR tv70[ebp], eax
$L194682:
  0003b	8b 45 f8	 mov	 eax, DWORD PTR tv70[ebp]

; 459  : 		}

  0003e	8b e5		 mov	 esp, ebp
  00040	5d		 pop	 ebp
  00041	c3		 ret	 0
?capacity@?$vector@PAVCSkinButton2@@V?$allocator@PAVCSkinButton2@@@std@@@std@@QBEIXZ ENDP ; std::vector<CSkinButton2 *,std::allocator<CSkinButton2 *> >::capacity
_TEXT	ENDS
PUBLIC	??Giterator@?$vector@PAVCSkinButton2@@V?$allocator@PAVCSkinButton2@@@std@@@std@@QBEHABVconst_iterator@12@@Z ; std::vector<CSkinButton2 *,std::allocator<CSkinButton2 *> >::iterator::operator-
PUBLIC	?_Insert_n@?$vector@PAVCSkinButton2@@V?$allocator@PAVCSkinButton2@@@std@@@std@@IAEXViterator@12@IABQAVCSkinButton2@@@Z ; std::vector<CSkinButton2 *,std::allocator<CSkinButton2 *> >::_Insert_n
; Function compile flags: /Odt /RTCsu
;	COMDAT ?insert@?$vector@PAVCSkinButton2@@V?$allocator@PAVCSkinButton2@@@std@@@std@@QAE?AViterator@12@V312@ABQAVCSkinButton2@@@Z
_TEXT	SEGMENT
tv73 = -20						; size = 4
$T194687 = -16						; size = 4
$T194684 = -12						; size = 4
__Off$ = -8						; size = 4
_this$ = -4						; size = 4
___$ReturnUdt$ = 8					; size = 4
__Where$ = 12						; size = 4
__Val$ = 16						; size = 4
?insert@?$vector@PAVCSkinButton2@@V?$allocator@PAVCSkinButton2@@@std@@@std@@QAE?AViterator@12@V312@ABQAVCSkinButton2@@@Z PROC NEAR ; std::vector<CSkinButton2 *,std::allocator<CSkinButton2 *> >::insert, COMDAT
; _this$ = ecx

; 620  : 		{	// insert _Val at _Where

  00000	55		 push	 ebp
  00001	8b ec		 mov	 ebp, esp
  00003	83 ec 14	 sub	 esp, 20			; 00000014H
  00006	b8 cc cc cc cc	 mov	 eax, -858993460		; ccccccccH
  0000b	89 45 ec	 mov	 DWORD PTR [ebp-20], eax
  0000e	89 45 f0	 mov	 DWORD PTR [ebp-16], eax
  00011	89 45 f4	 mov	 DWORD PTR [ebp-12], eax
  00014	89 45 f8	 mov	 DWORD PTR [ebp-8], eax
  00017	89 45 fc	 mov	 DWORD PTR [ebp-4], eax
  0001a	89 4d fc	 mov	 DWORD PTR _this$[ebp], ecx

; 621  : 		size_type _Off = size() == 0 ? 0 : _Where - begin();

  0001d	8b 4d fc	 mov	 ecx, DWORD PTR _this$[ebp]
  00020	e8 00 00 00 00	 call	 ?size@?$vector@PAVCSkinButton2@@V?$allocator@PAVCSkinButton2@@@std@@@std@@QBEIXZ ; std::vector<CSkinButton2 *,std::allocator<CSkinButton2 *> >::size
  00025	85 c0		 test	 eax, eax
  00027	75 09		 jne	 SHORT $L194685
  00029	c7 45 ec 00 00
	00 00		 mov	 DWORD PTR tv73[ebp], 0
  00030	eb 18		 jmp	 SHORT $L194686
$L194685:
  00032	8d 45 f4	 lea	 eax, DWORD PTR $T194684[ebp]
  00035	50		 push	 eax
  00036	8b 4d fc	 mov	 ecx, DWORD PTR _this$[ebp]
  00039	e8 00 00 00 00	 call	 ?begin@?$vector@PAVCSkinButton2@@V?$allocator@PAVCSkinButton2@@@std@@@std@@QAE?AViterator@12@XZ ; std::vector<CSkinButton2 *,std::allocator<CSkinButton2 *> >::begin
  0003e	50		 push	 eax
  0003f	8d 4d 0c	 lea	 ecx, DWORD PTR __Where$[ebp]
  00042	e8 00 00 00 00	 call	 ??Giterator@?$vector@PAVCSkinButton2@@V?$allocator@PAVCSkinButton2@@@std@@@std@@QBEHABVconst_iterator@12@@Z ; std::vector<CSkinButton2 *,std::allocator<CSkinButton2 *> >::iterator::operator-
  00047	89 45 ec	 mov	 DWORD PTR tv73[ebp], eax
$L194686:
  0004a	8b 4d ec	 mov	 ecx, DWORD PTR tv73[ebp]
  0004d	89 4d f8	 mov	 DWORD PTR __Off$[ebp], ecx

; 622  : 		_Insert_n(_Where, (size_type)1, _Val);

  00050	8b 55 10	 mov	 edx, DWORD PTR __Val$[ebp]
  00053	52		 push	 edx
  00054	6a 01		 push	 1
  00056	8b 45 0c	 mov	 eax, DWORD PTR __Where$[ebp]
  00059	50		 push	 eax
  0005a	8b 4d fc	 mov	 ecx, DWORD PTR _this$[ebp]
  0005d	e8 00 00 00 00	 call	 ?_Insert_n@?$vector@PAVCSkinButton2@@V?$allocator@PAVCSkinButton2@@@std@@@std@@IAEXViterator@12@IABQAVCSkinButton2@@@Z ; std::vector<CSkinButton2 *,std::allocator<CSkinButton2 *> >::_Insert_n

; 623  : 		return (begin() + _Off);

  00062	8b 4d f8	 mov	 ecx, DWORD PTR __Off$[ebp]
  00065	51		 push	 ecx
  00066	8b 55 08	 mov	 edx, DWORD PTR ___$ReturnUdt$[ebp]
  00069	52		 push	 edx
  0006a	8d 45 f0	 lea	 eax, DWORD PTR $T194687[ebp]
  0006d	50		 push	 eax
  0006e	8b 4d fc	 mov	 ecx, DWORD PTR _this$[ebp]
  00071	e8 00 00 00 00	 call	 ?begin@?$vector@PAVCSkinButton2@@V?$allocator@PAVCSkinButton2@@@std@@@std@@QAE?AViterator@12@XZ ; std::vector<CSkinButton2 *,std::allocator<CSkinButton2 *> >::begin
  00076	8b c8		 mov	 ecx, eax
  00078	e8 00 00 00 00	 call	 ??Hiterator@?$vector@PAVCSkinButton2@@V?$allocator@PAVCSkinButton2@@@std@@@std@@QBE?AV012@H@Z ; std::vector<CSkinButton2 *,std::allocator<CSkinButton2 *> >::iterator::operator+
  0007d	8b 45 08	 mov	 eax, DWORD PTR ___$ReturnUdt$[ebp]

; 624  : 		}

  00080	83 c4 14	 add	 esp, 20			; 00000014H
  00083	3b ec		 cmp	 ebp, esp
  00085	e8 00 00 00 00	 call	 __RTC_CheckEsp
  0008a	8b e5		 mov	 esp, ebp
  0008c	5d		 pop	 ebp
  0008d	c2 0c 00	 ret	 12			; 0000000cH
?insert@?$vector@PAVCSkinButton2@@V?$allocator@PAVCSkinButton2@@@std@@@std@@QAE?AViterator@12@V312@ABQAVCSkinButton2@@@Z ENDP ; std::vector<CSkinButton2 *,std::allocator<CSkinButton2 *> >::insert
_TEXT	ENDS
PUBLIC	?allocate@?$allocator@PAVCSkinButton2@@@std@@QAEPAPAVCSkinButton2@@I@Z ; std::allocator<CSkinButton2 *>::allocate
PUBLIC	?max_size@?$vector@PAVCSkinButton2@@V?$allocator@PAVCSkinButton2@@@std@@@std@@QBEIXZ ; std::vector<CSkinButton2 *,std::allocator<CSkinButton2 *> >::max_size
PUBLIC	?_Xlen@?$vector@PAVCSkinButton2@@V?$allocator@PAVCSkinButton2@@@std@@@std@@IBEXXZ ; std::vector<CSkinButton2 *,std::allocator<CSkinButton2 *> >::_Xlen
; Function compile flags: /Odt /RTCsu
;	COMDAT ?_Buy@?$vector@PAVCSkinButton2@@V?$allocator@PAVCSkinButton2@@@std@@@std@@IAE_NI@Z
_TEXT	SEGMENT
_this$ = -4						; size = 4
__Capacity$ = 8						; size = 4
?_Buy@?$vector@PAVCSkinButton2@@V?$allocator@PAVCSkinButton2@@@std@@@std@@IAE_NI@Z PROC NEAR ; std::vector<CSkinButton2 *,std::allocator<CSkinButton2 *> >::_Buy, COMDAT
; _this$ = ecx

; 770  : 		{	// allocate array with _Capacity elements

  00000	55		 push	 ebp
  00001	8b ec		 mov	 ebp, esp
  00003	51		 push	 ecx
  00004	c7 45 fc cc cc
	cc cc		 mov	 DWORD PTR [ebp-4], -858993460 ; ccccccccH
  0000b	89 4d fc	 mov	 DWORD PTR _this$[ebp], ecx

; 771  : 		_Myfirst = 0, _Mylast = 0, _Myend = 0;

  0000e	8b 45 fc	 mov	 eax, DWORD PTR _this$[ebp]
  00011	c7 40 04 00 00
	00 00		 mov	 DWORD PTR [eax+4], 0
  00018	8b 4d fc	 mov	 ecx, DWORD PTR _this$[ebp]
  0001b	c7 41 08 00 00
	00 00		 mov	 DWORD PTR [ecx+8], 0
  00022	8b 55 fc	 mov	 edx, DWORD PTR _this$[ebp]
  00025	c7 42 0c 00 00
	00 00		 mov	 DWORD PTR [edx+12], 0

; 772  : 		if (_Capacity == 0)

  0002c	83 7d 08 00	 cmp	 DWORD PTR __Capacity$[ebp], 0
  00030	75 04		 jne	 SHORT $L192846

; 773  : 			return (false);

  00032	32 c0		 xor	 al, al
  00034	eb 49		 jmp	 SHORT $L192845
$L192846:

; 774  : 		else if (max_size() < _Capacity)

  00036	8b 4d fc	 mov	 ecx, DWORD PTR _this$[ebp]
  00039	e8 00 00 00 00	 call	 ?max_size@?$vector@PAVCSkinButton2@@V?$allocator@PAVCSkinButton2@@@std@@@std@@QBEIXZ ; std::vector<CSkinButton2 *,std::allocator<CSkinButton2 *> >::max_size
  0003e	3b 45 08	 cmp	 eax, DWORD PTR __Capacity$[ebp]
  00041	73 0a		 jae	 SHORT $L192848

; 775  : 			_Xlen();	// result too long

  00043	8b 4d fc	 mov	 ecx, DWORD PTR _this$[ebp]
  00046	e8 00 00 00 00	 call	 ?_Xlen@?$vector@PAVCSkinButton2@@V?$allocator@PAVCSkinButton2@@@std@@@std@@IBEXXZ ; std::vector<CSkinButton2 *,std::allocator<CSkinButton2 *> >::_Xlen

; 776  : 		else

  0004b	eb 30		 jmp	 SHORT $L192847
$L192848:

; 777  : 			{	// nonempty array, allocate storage
; 778  : 			_Myfirst = this->_Alval.allocate(_Capacity);

  0004d	8b 45 08	 mov	 eax, DWORD PTR __Capacity$[ebp]
  00050	50		 push	 eax
  00051	8b 4d fc	 mov	 ecx, DWORD PTR _this$[ebp]
  00054	e8 00 00 00 00	 call	 ?allocate@?$allocator@PAVCSkinButton2@@@std@@QAEPAPAVCSkinButton2@@I@Z ; std::allocator<CSkinButton2 *>::allocate
  00059	8b 4d fc	 mov	 ecx, DWORD PTR _this$[ebp]
  0005c	89 41 04	 mov	 DWORD PTR [ecx+4], eax

; 779  : 			_Mylast = _Myfirst;

  0005f	8b 55 fc	 mov	 edx, DWORD PTR _this$[ebp]
  00062	8b 45 fc	 mov	 eax, DWORD PTR _this$[ebp]
  00065	8b 48 04	 mov	 ecx, DWORD PTR [eax+4]
  00068	89 4a 08	 mov	 DWORD PTR [edx+8], ecx

; 780  : 			_Myend = _Myfirst + _Capacity;

  0006b	8b 55 fc	 mov	 edx, DWORD PTR _this$[ebp]
  0006e	8b 42 04	 mov	 eax, DWORD PTR [edx+4]
  00071	8b 4d 08	 mov	 ecx, DWORD PTR __Capacity$[ebp]
  00074	8d 14 88	 lea	 edx, DWORD PTR [eax+ecx*4]
  00077	8b 45 fc	 mov	 eax, DWORD PTR _this$[ebp]
  0007a	89 50 0c	 mov	 DWORD PTR [eax+12], edx
$L192847:

; 781  : 			}
; 782  : 		return (true);

  0007d	b0 01		 mov	 al, 1
$L192845:

; 783  : 		}

  0007f	83 c4 04	 add	 esp, 4
  00082	3b ec		 cmp	 ebp, esp
  00084	e8 00 00 00 00	 call	 __RTC_CheckEsp
  00089	8b e5		 mov	 esp, ebp
  0008b	5d		 pop	 ebp
  0008c	c2 04 00	 ret	 4
?_Buy@?$vector@PAVCSkinButton2@@V?$allocator@PAVCSkinButton2@@@std@@@std@@IAE_NI@Z ENDP ; std::vector<CSkinButton2 *,std::allocator<CSkinButton2 *> >::_Buy
_TEXT	ENDS
PUBLIC	?deallocate@?$allocator@PAVCSkinButton2@@@std@@QAEXPAPAVCSkinButton2@@I@Z ; std::allocator<CSkinButton2 *>::deallocate
PUBLIC	?_Destroy@?$vector@PAVCSkinButton2@@V?$allocator@PAVCSkinButton2@@@std@@@std@@IAEXPAPAVCSkinButton2@@0@Z ; std::vector<CSkinButton2 *,std::allocator<CSkinButton2 *> >::_Destroy
; Function compile flags: /Odt /RTCsu
;	COMDAT ?_Tidy@?$vector@PAVCSkinButton2@@V?$allocator@PAVCSkinButton2@@@std@@@std@@IAEXXZ
_TEXT	SEGMENT
_this$ = -4						; size = 4
?_Tidy@?$vector@PAVCSkinButton2@@V?$allocator@PAVCSkinButton2@@@std@@@std@@IAEXXZ PROC NEAR ; std::vector<CSkinButton2 *,std::allocator<CSkinButton2 *> >::_Tidy, COMDAT
; _this$ = ecx

; 791  : 		{	// free all storage

  00000	55		 push	 ebp
  00001	8b ec		 mov	 ebp, esp
  00003	51		 push	 ecx
  00004	c7 45 fc cc cc
	cc cc		 mov	 DWORD PTR [ebp-4], -858993460 ; ccccccccH
  0000b	89 4d fc	 mov	 DWORD PTR _this$[ebp], ecx

; 792  : 		if (_Myfirst != 0)

  0000e	8b 45 fc	 mov	 eax, DWORD PTR _this$[ebp]
  00011	83 78 04 00	 cmp	 DWORD PTR [eax+4], 0
  00015	74 35		 je	 SHORT $L192852

; 793  : 			{	// something to free, destroy and deallocate it
; 794  : 			_Destroy(_Myfirst, _Mylast);

  00017	8b 4d fc	 mov	 ecx, DWORD PTR _this$[ebp]
  0001a	8b 51 08	 mov	 edx, DWORD PTR [ecx+8]
  0001d	52		 push	 edx
  0001e	8b 45 fc	 mov	 eax, DWORD PTR _this$[ebp]
  00021	8b 48 04	 mov	 ecx, DWORD PTR [eax+4]
  00024	51		 push	 ecx
  00025	8b 4d fc	 mov	 ecx, DWORD PTR _this$[ebp]
  00028	e8 00 00 00 00	 call	 ?_Destroy@?$vector@PAVCSkinButton2@@V?$allocator@PAVCSkinButton2@@@std@@@std@@IAEXPAPAVCSkinButton2@@0@Z ; std::vector<CSkinButton2 *,std::allocator<CSkinButton2 *> >::_Destroy

; 795  : 			this->_Alval.deallocate(_Myfirst, _Myend - _Myfirst);

  0002d	8b 55 fc	 mov	 edx, DWORD PTR _this$[ebp]
  00030	8b 45 fc	 mov	 eax, DWORD PTR _this$[ebp]
  00033	8b 4a 0c	 mov	 ecx, DWORD PTR [edx+12]
  00036	2b 48 04	 sub	 ecx, DWORD PTR [eax+4]
  00039	c1 f9 02	 sar	 ecx, 2
  0003c	51		 push	 ecx
  0003d	8b 55 fc	 mov	 edx, DWORD PTR _this$[ebp]
  00040	8b 42 04	 mov	 eax, DWORD PTR [edx+4]
  00043	50		 push	 eax
  00044	8b 4d fc	 mov	 ecx, DWORD PTR _this$[ebp]
  00047	e8 00 00 00 00	 call	 ?deallocate@?$allocator@PAVCSkinButton2@@@std@@QAEXPAPAVCSkinButton2@@I@Z ; std::allocator<CSkinButton2 *>::deallocate
$L192852:

; 796  : 			}
; 797  : 		_Myfirst = 0, _Mylast = 0, _Myend = 0;

  0004c	8b 4d fc	 mov	 ecx, DWORD PTR _this$[ebp]
  0004f	c7 41 04 00 00
	00 00		 mov	 DWORD PTR [ecx+4], 0
  00056	8b 55 fc	 mov	 edx, DWORD PTR _this$[ebp]
  00059	c7 42 08 00 00
	00 00		 mov	 DWORD PTR [edx+8], 0
  00060	8b 45 fc	 mov	 eax, DWORD PTR _this$[ebp]
  00063	c7 40 0c 00 00
	00 00		 mov	 DWORD PTR [eax+12], 0

; 798  : 		}

  0006a	83 c4 04	 add	 esp, 4
  0006d	3b ec		 cmp	 ebp, esp
  0006f	e8 00 00 00 00	 call	 __RTC_CheckEsp
  00074	8b e5		 mov	 esp, ebp
  00076	5d		 pop	 ebp
  00077	c3		 ret	 0
?_Tidy@?$vector@PAVCSkinButton2@@V?$allocator@PAVCSkinButton2@@@std@@@std@@IAEXXZ ENDP ; std::vector<CSkinButton2 *,std::allocator<CSkinButton2 *> >::_Tidy
_TEXT	ENDS
PUBLIC	??$_Uninitialized_fill_n@PAPAVCSkinButton2@@IPAV1@V?$allocator@PAVCSkinButton2@@@std@@@std@@YAXPAPAVCSkinButton2@@IABQAV1@AAV?$allocator@PAVCSkinButton2@@@0@@Z ; std::_Uninitialized_fill_n<CSkinButton2 * *,unsigned int,CSkinButton2 *,std::allocator<CSkinButton2 *> >
; Function compile flags: /Odt /RTCsu
;	COMDAT ?_Ufill@?$vector@PAVCSkinButton2@@V?$allocator@PAVCSkinButton2@@@std@@@std@@IAEPAPAVCSkinButton2@@PAPAV3@IABQAV3@@Z
_TEXT	SEGMENT
_this$ = -4						; size = 4
__Ptr$ = 8						; size = 4
__Count$ = 12						; size = 4
__Val$ = 16						; size = 4
?_Ufill@?$vector@PAVCSkinButton2@@V?$allocator@PAVCSkinButton2@@@std@@@std@@IAEPAPAVCSkinButton2@@PAPAV3@IABQAV3@@Z PROC NEAR ; std::vector<CSkinButton2 *,std::allocator<CSkinButton2 *> >::_Ufill, COMDAT
; _this$ = ecx

; 877  : 		{	// copy initializing _Count * _Val, using allocator

  00000	55		 push	 ebp
  00001	8b ec		 mov	 ebp, esp
  00003	51		 push	 ecx
  00004	c7 45 fc cc cc
	cc cc		 mov	 DWORD PTR [ebp-4], -858993460 ; ccccccccH
  0000b	89 4d fc	 mov	 DWORD PTR _this$[ebp], ecx

; 878  : 		_Uninitialized_fill_n(_Ptr, _Count, _Val, this->_Alval);

  0000e	8b 45 fc	 mov	 eax, DWORD PTR _this$[ebp]
  00011	50		 push	 eax
  00012	8b 4d 10	 mov	 ecx, DWORD PTR __Val$[ebp]
  00015	51		 push	 ecx
  00016	8b 55 0c	 mov	 edx, DWORD PTR __Count$[ebp]
  00019	52		 push	 edx
  0001a	8b 45 08	 mov	 eax, DWORD PTR __Ptr$[ebp]
  0001d	50		 push	 eax
  0001e	e8 00 00 00 00	 call	 ??$_Uninitialized_fill_n@PAPAVCSkinButton2@@IPAV1@V?$allocator@PAVCSkinButton2@@@std@@@std@@YAXPAPAVCSkinButton2@@IABQAV1@AAV?$allocator@PAVCSkinButton2@@@0@@Z ; std::_Uninitialized_fill_n<CSkinButton2 * *,unsigned int,CSkinButton2 *,std::allocator<CSkinButton2 *> >
  00023	83 c4 10	 add	 esp, 16			; 00000010H

; 879  : 		return (_Ptr + _Count);

  00026	8b 4d 0c	 mov	 ecx, DWORD PTR __Count$[ebp]
  00029	8b 55 08	 mov	 edx, DWORD PTR __Ptr$[ebp]
  0002c	8d 04 8a	 lea	 eax, DWORD PTR [edx+ecx*4]

; 880  : 		}

  0002f	83 c4 04	 add	 esp, 4
  00032	3b ec		 cmp	 ebp, esp
  00034	e8 00 00 00 00	 call	 __RTC_CheckEsp
  00039	8b e5		 mov	 esp, ebp
  0003b	5d		 pop	 ebp
  0003c	c2 0c 00	 ret	 12			; 0000000cH
?_Ufill@?$vector@PAVCSkinButton2@@V?$allocator@PAVCSkinButton2@@@std@@@std@@IAEPAPAVCSkinButton2@@PAPAV3@IABQAV3@@Z ENDP ; std::vector<CSkinButton2 *,std::allocator<CSkinButton2 *> >::_Ufill
_TEXT	ENDS
PUBLIC	??0?$allocator@PAVCSkinButton2@@@std@@QAE@ABV01@@Z ; std::allocator<CSkinButton2 *>::allocator<CSkinButton2 *>
; Function compile flags: /Odt /RTCsu
;	COMDAT ??0?$_Vector_val@PAVCSkinButton2@@V?$allocator@PAVCSkinButton2@@@std@@@std@@IAE@V?$allocator@PAVCSkinButton2@@@1@@Z
_TEXT	SEGMENT
_this$ = -4						; size = 4
__Al$ = 8						; size = 1
??0?$_Vector_val@PAVCSkinButton2@@V?$allocator@PAVCSkinButton2@@@std@@@std@@IAE@V?$allocator@PAVCSkinButton2@@@1@@Z PROC NEAR ; std::_Vector_val<CSkinButton2 *,std::allocator<CSkinButton2 *> >::_Vector_val<CSkinButton2 *,std::allocator<CSkinButton2 *> >, COMDAT
; _this$ = ecx

; 21   : 		{	// construct allocator from _Al

  00000	55		 push	 ebp
  00001	8b ec		 mov	 ebp, esp
  00003	51		 push	 ecx
  00004	c7 45 fc cc cc
	cc cc		 mov	 DWORD PTR [ebp-4], -858993460 ; ccccccccH
  0000b	89 4d fc	 mov	 DWORD PTR _this$[ebp], ecx
  0000e	8d 45 08	 lea	 eax, DWORD PTR __Al$[ebp]
  00011	50		 push	 eax
  00012	8b 4d fc	 mov	 ecx, DWORD PTR _this$[ebp]
  00015	e8 00 00 00 00	 call	 ??0?$allocator@PAVCSkinButton2@@@std@@QAE@ABV01@@Z ; std::allocator<CSkinButton2 *>::allocator<CSkinButton2 *>

; 22   : 		}

  0001a	8b 45 fc	 mov	 eax, DWORD PTR _this$[ebp]
  0001d	83 c4 04	 add	 esp, 4
  00020	3b ec		 cmp	 ebp, esp
  00022	e8 00 00 00 00	 call	 __RTC_CheckEsp
  00027	8b e5		 mov	 esp, ebp
  00029	5d		 pop	 ebp
  0002a	c2 04 00	 ret	 4
??0?$_Vector_val@PAVCSkinButton2@@V?$allocator@PAVCSkinButton2@@@std@@@std@@IAE@V?$allocator@PAVCSkinButton2@@@1@@Z ENDP ; std::_Vector_val<CSkinButton2 *,std::allocator<CSkinButton2 *> >::_Vector_val<CSkinButton2 *,std::allocator<CSkinButton2 *> >
; Function compile flags: /Odt /RTCsu
; File d:\program files (x86)\microsoft visual studio .net 2003\vc7\include\xmemory
_TEXT	ENDS
;	COMDAT ??0?$allocator@PAVCSkinButton2@@@std@@QAE@XZ
_TEXT	SEGMENT
_this$ = -4						; size = 4
??0?$allocator@PAVCSkinButton2@@@std@@QAE@XZ PROC NEAR	; std::allocator<CSkinButton2 *>::allocator<CSkinButton2 *>, COMDAT
; _this$ = ecx

; 111  : 	allocator()

  00000	55		 push	 ebp
  00001	8b ec		 mov	 ebp, esp
  00003	51		 push	 ecx
  00004	c7 45 fc cc cc
	cc cc		 mov	 DWORD PTR [ebp-4], -858993460 ; ccccccccH
  0000b	89 4d fc	 mov	 DWORD PTR _this$[ebp], ecx

; 112  : 		{	// construct default allocator (do nothing)
; 113  : 		}

  0000e	8b 45 fc	 mov	 eax, DWORD PTR _this$[ebp]
  00011	8b e5		 mov	 esp, ebp
  00013	5d		 pop	 ebp
  00014	c3		 ret	 0
??0?$allocator@PAVCSkinButton2@@@std@@QAE@XZ ENDP	; std::allocator<CSkinButton2 *>::allocator<CSkinButton2 *>
_TEXT	ENDS
PUBLIC	??0const_iterator@?$vector@PAVCSkinButton2@@V?$allocator@PAVCSkinButton2@@@std@@@std@@QAE@PAPAVCSkinButton2@@@Z ; std::vector<CSkinButton2 *,std::allocator<CSkinButton2 *> >::const_iterator::const_iterator
; Function compile flags: /Odt /RTCsu
; File d:\program files (x86)\microsoft visual studio .net 2003\vc7\include\vector
;	COMDAT ??0iterator@?$vector@PAVCSkinButton2@@V?$allocator@PAVCSkinButton2@@@std@@@std@@QAE@PAPAVCSkinButton2@@@Z
_TEXT	SEGMENT
_this$ = -4						; size = 4
__Ptr$ = 8						; size = 4
??0iterator@?$vector@PAVCSkinButton2@@V?$allocator@PAVCSkinButton2@@@std@@@std@@QAE@PAPAVCSkinButton2@@@Z PROC NEAR ; std::vector<CSkinButton2 *,std::allocator<CSkinButton2 *> >::iterator::iterator, COMDAT
; _this$ = ecx

; 215  : 			{	// construct with pointer _Ptr

  00000	55		 push	 ebp
  00001	8b ec		 mov	 ebp, esp
  00003	51		 push	 ecx
  00004	c7 45 fc cc cc
	cc cc		 mov	 DWORD PTR [ebp-4], -858993460 ; ccccccccH
  0000b	89 4d fc	 mov	 DWORD PTR _this$[ebp], ecx
  0000e	8b 45 08	 mov	 eax, DWORD PTR __Ptr$[ebp]
  00011	50		 push	 eax
  00012	8b 4d fc	 mov	 ecx, DWORD PTR _this$[ebp]
  00015	e8 00 00 00 00	 call	 ??0const_iterator@?$vector@PAVCSkinButton2@@V?$allocator@PAVCSkinButton2@@@std@@@std@@QAE@PAPAVCSkinButton2@@@Z ; std::vector<CSkinButton2 *,std::allocator<CSkinButton2 *> >::const_iterator::const_iterator

; 216  : 			}

  0001a	8b 45 fc	 mov	 eax, DWORD PTR _this$[ebp]
  0001d	83 c4 04	 add	 esp, 4
  00020	3b ec		 cmp	 ebp, esp
  00022	e8 00 00 00 00	 call	 __RTC_CheckEsp
  00027	8b e5		 mov	 esp, ebp
  00029	5d		 pop	 ebp
  0002a	c2 04 00	 ret	 4
??0iterator@?$vector@PAVCSkinButton2@@V?$allocator@PAVCSkinButton2@@@std@@@std@@QAE@PAPAVCSkinButton2@@@Z ENDP ; std::vector<CSkinButton2 *,std::allocator<CSkinButton2 *> >::iterator::iterator
; Function compile flags: /Odt /RTCsu
_TEXT	ENDS
;	COMDAT ??Eiterator@?$vector@PAVCSkinButton2@@V?$allocator@PAVCSkinButton2@@@std@@@std@@QAEAAV012@XZ
_TEXT	SEGMENT
_this$ = -4						; size = 4
??Eiterator@?$vector@PAVCSkinButton2@@V?$allocator@PAVCSkinButton2@@@std@@@std@@QAEAAV012@XZ PROC NEAR ; std::vector<CSkinButton2 *,std::allocator<CSkinButton2 *> >::iterator::operator++, COMDAT
; _this$ = ecx

; 229  : 			{	// preincrement

  00000	55		 push	 ebp
  00001	8b ec		 mov	 ebp, esp
  00003	51		 push	 ecx
  00004	c7 45 fc cc cc
	cc cc		 mov	 DWORD PTR [ebp-4], -858993460 ; ccccccccH
  0000b	89 4d fc	 mov	 DWORD PTR _this$[ebp], ecx

; 230  : 			++this->_Myptr;

  0000e	8b 45 fc	 mov	 eax, DWORD PTR _this$[ebp]
  00011	8b 08		 mov	 ecx, DWORD PTR [eax]
  00013	83 c1 04	 add	 ecx, 4
  00016	8b 55 fc	 mov	 edx, DWORD PTR _this$[ebp]
  00019	89 0a		 mov	 DWORD PTR [edx], ecx

; 231  : 			return (*this);

  0001b	8b 45 fc	 mov	 eax, DWORD PTR _this$[ebp]

; 232  : 			}

  0001e	8b e5		 mov	 esp, ebp
  00020	5d		 pop	 ebp
  00021	c3		 ret	 0
??Eiterator@?$vector@PAVCSkinButton2@@V?$allocator@PAVCSkinButton2@@@std@@@std@@QAEAAV012@XZ ENDP ; std::vector<CSkinButton2 *,std::allocator<CSkinButton2 *> >::iterator::operator++
_TEXT	ENDS
PUBLIC	??Yiterator@?$vector@PAVCSkinButton2@@V?$allocator@PAVCSkinButton2@@@std@@@std@@QAEAAV012@H@Z ; std::vector<CSkinButton2 *,std::allocator<CSkinButton2 *> >::iterator::operator+=
; Function compile flags: /Odt /RTCsu
;	COMDAT ??Hiterator@?$vector@PAVCSkinButton2@@V?$allocator@PAVCSkinButton2@@@std@@@std@@QBE?AV012@H@Z
_TEXT	SEGMENT
__Tmp$ = -12						; size = 4
_this$ = -4						; size = 4
___$ReturnUdt$ = 8					; size = 4
__Off$ = 12						; size = 4
??Hiterator@?$vector@PAVCSkinButton2@@V?$allocator@PAVCSkinButton2@@@std@@@std@@QBE?AV012@H@Z PROC NEAR ; std::vector<CSkinButton2 *,std::allocator<CSkinButton2 *> >::iterator::operator+, COMDAT
; _this$ = ecx

; 261  : 			{	// return this + integer

  00000	55		 push	 ebp
  00001	8b ec		 mov	 ebp, esp
  00003	83 ec 10	 sub	 esp, 16			; 00000010H
  00006	b8 cc cc cc cc	 mov	 eax, -858993460		; ccccccccH
  0000b	89 45 f0	 mov	 DWORD PTR [ebp-16], eax
  0000e	89 45 f4	 mov	 DWORD PTR [ebp-12], eax
  00011	89 45 f8	 mov	 DWORD PTR [ebp-8], eax
  00014	89 45 fc	 mov	 DWORD PTR [ebp-4], eax
  00017	89 4d fc	 mov	 DWORD PTR _this$[ebp], ecx

; 262  : 			iterator _Tmp = *this;

  0001a	8b 45 fc	 mov	 eax, DWORD PTR _this$[ebp]
  0001d	8b 08		 mov	 ecx, DWORD PTR [eax]
  0001f	89 4d f4	 mov	 DWORD PTR __Tmp$[ebp], ecx

; 263  : 			return (_Tmp += _Off);

  00022	8b 55 0c	 mov	 edx, DWORD PTR __Off$[ebp]
  00025	52		 push	 edx
  00026	8d 4d f4	 lea	 ecx, DWORD PTR __Tmp$[ebp]
  00029	e8 00 00 00 00	 call	 ??Yiterator@?$vector@PAVCSkinButton2@@V?$allocator@PAVCSkinButton2@@@std@@@std@@QAEAAV012@H@Z ; std::vector<CSkinButton2 *,std::allocator<CSkinButton2 *> >::iterator::operator+=
  0002e	8b 00		 mov	 eax, DWORD PTR [eax]
  00030	8b 4d 08	 mov	 ecx, DWORD PTR ___$ReturnUdt$[ebp]
  00033	89 01		 mov	 DWORD PTR [ecx], eax
  00035	8b 45 08	 mov	 eax, DWORD PTR ___$ReturnUdt$[ebp]

; 264  : 			}

  00038	52		 push	 edx
  00039	8b cd		 mov	 ecx, ebp
  0003b	50		 push	 eax
  0003c	8d 15 00 00 00
	00		 lea	 edx, DWORD PTR $L194698
  00042	e8 00 00 00 00	 call	 @_RTC_CheckStackVars@8
  00047	58		 pop	 eax
  00048	5a		 pop	 edx
  00049	83 c4 10	 add	 esp, 16			; 00000010H
  0004c	3b ec		 cmp	 ebp, esp
  0004e	e8 00 00 00 00	 call	 __RTC_CheckEsp
  00053	8b e5		 mov	 esp, ebp
  00055	5d		 pop	 ebp
  00056	c2 08 00	 ret	 8
$L194698:
  00059	01 00 00 00	 DD	 1
  0005d	00 00 00 00	 DD	 $L194697
$L194697:
  00061	f4 ff ff ff	 DD	 -12			; fffffff4H
  00065	04 00 00 00	 DD	 4
  00069	00 00 00 00	 DD	 $L194696
$L194696:
  0006d	5f		 DB	 95			; 0000005fH
  0006e	54		 DB	 84			; 00000054H
  0006f	6d		 DB	 109			; 0000006dH
  00070	70		 DB	 112			; 00000070H
  00071	00		 DB	 0
??Hiterator@?$vector@PAVCSkinButton2@@V?$allocator@PAVCSkinButton2@@@std@@@std@@QBE?AV012@H@Z ENDP ; std::vector<CSkinButton2 *,std::allocator<CSkinButton2 *> >::iterator::operator+
; Function compile flags: /Odt /RTCsu
_TEXT	ENDS
;	COMDAT ??Dconst_iterator@?$vector@PAVCSkinButton2@@V?$allocator@PAVCSkinButton2@@@std@@@std@@QBEABQAVCSkinButton2@@XZ
_TEXT	SEGMENT
_this$ = -4						; size = 4
??Dconst_iterator@?$vector@PAVCSkinButton2@@V?$allocator@PAVCSkinButton2@@@std@@@std@@QBEABQAVCSkinButton2@@XZ PROC NEAR ; std::vector<CSkinButton2 *,std::allocator<CSkinButton2 *> >::const_iterator::operator*, COMDAT
; _this$ = ecx

; 79   : 			{	// return designated object

  00000	55		 push	 ebp
  00001	8b ec		 mov	 ebp, esp
  00003	51		 push	 ecx
  00004	c7 45 fc cc cc
	cc cc		 mov	 DWORD PTR [ebp-4], -858993460 ; ccccccccH
  0000b	89 4d fc	 mov	 DWORD PTR _this$[ebp], ecx

; 80   : 
; 81   : 
; 82   : 			return (*_Myptr);

  0000e	8b 45 fc	 mov	 eax, DWORD PTR _this$[ebp]
  00011	8b 00		 mov	 eax, DWORD PTR [eax]

; 83   : 			}

  00013	8b e5		 mov	 esp, ebp
  00015	5d		 pop	 ebp
  00016	c3		 ret	 0
??Dconst_iterator@?$vector@PAVCSkinButton2@@V?$allocator@PAVCSkinButton2@@@std@@@std@@QBEABQAVCSkinButton2@@XZ ENDP ; std::vector<CSkinButton2 *,std::allocator<CSkinButton2 *> >::const_iterator::operator*
; Function compile flags: /Odt /RTCsu
_TEXT	ENDS
;	COMDAT ??8const_iterator@?$vector@PAVCSkinButton2@@V?$allocator@PAVCSkinButton2@@@std@@@std@@QBE_NABV012@@Z
_TEXT	SEGMENT
_this$ = -4						; size = 4
__Right$ = 8						; size = 4
??8const_iterator@?$vector@PAVCSkinButton2@@V?$allocator@PAVCSkinButton2@@@std@@@std@@QBE_NABV012@@Z PROC NEAR ; std::vector<CSkinButton2 *,std::allocator<CSkinButton2 *> >::const_iterator::operator==, COMDAT
; _this$ = ecx

; 152  : 			{	// test for iterator equality

  00000	55		 push	 ebp
  00001	8b ec		 mov	 ebp, esp
  00003	51		 push	 ecx
  00004	c7 45 fc cc cc
	cc cc		 mov	 DWORD PTR [ebp-4], -858993460 ; ccccccccH
  0000b	89 4d fc	 mov	 DWORD PTR _this$[ebp], ecx

; 153  : 
; 154  : 
; 155  : 			return (_Myptr == _Right._Myptr);

  0000e	8b 45 fc	 mov	 eax, DWORD PTR _this$[ebp]
  00011	8b 4d 08	 mov	 ecx, DWORD PTR __Right$[ebp]
  00014	8b 00		 mov	 eax, DWORD PTR [eax]
  00016	2b 01		 sub	 eax, DWORD PTR [ecx]
  00018	f7 d8		 neg	 eax
  0001a	1b c0		 sbb	 eax, eax
  0001c	40		 inc	 eax

; 156  : 			}

  0001d	8b e5		 mov	 esp, ebp
  0001f	5d		 pop	 ebp
  00020	c2 04 00	 ret	 4
??8const_iterator@?$vector@PAVCSkinButton2@@V?$allocator@PAVCSkinButton2@@@std@@@std@@QBE_NABV012@@Z ENDP ; std::vector<CSkinButton2 *,std::allocator<CSkinButton2 *> >::const_iterator::operator==
; Function compile flags: /Odt /RTCsu
_TEXT	ENDS
;	COMDAT ?capacity@?$vector@KV?$allocator@K@std@@@std@@QBEIXZ
_TEXT	SEGMENT
tv70 = -8						; size = 4
_this$ = -4						; size = 4
?capacity@?$vector@KV?$allocator@K@std@@@std@@QBEIXZ PROC NEAR ; std::vector<unsigned long,std::allocator<unsigned long> >::capacity, COMDAT
; _this$ = ecx

; 457  : 		{	// return current length of allocated storage

  00000	55		 push	 ebp
  00001	8b ec		 mov	 ebp, esp
  00003	83 ec 08	 sub	 esp, 8
  00006	c7 45 f8 cc cc
	cc cc		 mov	 DWORD PTR [ebp-8], -858993460 ; ccccccccH
  0000d	c7 45 fc cc cc
	cc cc		 mov	 DWORD PTR [ebp-4], -858993460 ; ccccccccH
  00014	89 4d fc	 mov	 DWORD PTR _this$[ebp], ecx

; 458  : 		return (_Myfirst == 0 ? 0 : _Myend - _Myfirst);

  00017	8b 45 fc	 mov	 eax, DWORD PTR _this$[ebp]
  0001a	83 78 04 00	 cmp	 DWORD PTR [eax+4], 0
  0001e	75 09		 jne	 SHORT $L194702
  00020	c7 45 f8 00 00
	00 00		 mov	 DWORD PTR tv70[ebp], 0
  00027	eb 12		 jmp	 SHORT $L194703
$L194702:
  00029	8b 4d fc	 mov	 ecx, DWORD PTR _this$[ebp]
  0002c	8b 55 fc	 mov	 edx, DWORD PTR _this$[ebp]
  0002f	8b 41 0c	 mov	 eax, DWORD PTR [ecx+12]
  00032	2b 42 04	 sub	 eax, DWORD PTR [edx+4]
  00035	c1 f8 02	 sar	 eax, 2
  00038	89 45 f8	 mov	 DWORD PTR tv70[ebp], eax
$L194703:
  0003b	8b 45 f8	 mov	 eax, DWORD PTR tv70[ebp]

; 459  : 		}

  0003e	8b e5		 mov	 esp, ebp
  00040	5d		 pop	 ebp
  00041	c3		 ret	 0
?capacity@?$vector@KV?$allocator@K@std@@@std@@QBEIXZ ENDP ; std::vector<unsigned long,std::allocator<unsigned long> >::capacity
_TEXT	ENDS
PUBLIC	??0iterator@?$vector@KV?$allocator@K@std@@@std@@QAE@PAK@Z ; std::vector<unsigned long,std::allocator<unsigned long> >::iterator::iterator
; Function compile flags: /Odt /RTCsu
;	COMDAT ?begin@?$vector@KV?$allocator@K@std@@@std@@QAE?AViterator@12@XZ
_TEXT	SEGMENT
_this$ = -4						; size = 4
___$ReturnUdt$ = 8					; size = 4
?begin@?$vector@KV?$allocator@K@std@@@std@@QAE?AViterator@12@XZ PROC NEAR ; std::vector<unsigned long,std::allocator<unsigned long> >::begin, COMDAT
; _this$ = ecx

; 462  : 		{	// return iterator for beginning of mutable sequence

  00000	55		 push	 ebp
  00001	8b ec		 mov	 ebp, esp
  00003	51		 push	 ecx
  00004	c7 45 fc cc cc
	cc cc		 mov	 DWORD PTR [ebp-4], -858993460 ; ccccccccH
  0000b	89 4d fc	 mov	 DWORD PTR _this$[ebp], ecx

; 463  : 		return (iterator(_Myfirst));

  0000e	8b 45 fc	 mov	 eax, DWORD PTR _this$[ebp]
  00011	8b 48 04	 mov	 ecx, DWORD PTR [eax+4]
  00014	51		 push	 ecx
  00015	8b 4d 08	 mov	 ecx, DWORD PTR ___$ReturnUdt$[ebp]
  00018	e8 00 00 00 00	 call	 ??0iterator@?$vector@KV?$allocator@K@std@@@std@@QAE@PAK@Z ; std::vector<unsigned long,std::allocator<unsigned long> >::iterator::iterator
  0001d	8b 45 08	 mov	 eax, DWORD PTR ___$ReturnUdt$[ebp]

; 464  : 		}

  00020	83 c4 04	 add	 esp, 4
  00023	3b ec		 cmp	 ebp, esp
  00025	e8 00 00 00 00	 call	 __RTC_CheckEsp
  0002a	8b e5		 mov	 esp, ebp
  0002c	5d		 pop	 ebp
  0002d	c2 04 00	 ret	 4
?begin@?$vector@KV?$allocator@K@std@@@std@@QAE?AViterator@12@XZ ENDP ; std::vector<unsigned long,std::allocator<unsigned long> >::begin
; Function compile flags: /Odt /RTCsu
_TEXT	ENDS
;	COMDAT ?end@?$vector@KV?$allocator@K@std@@@std@@QAE?AViterator@12@XZ
_TEXT	SEGMENT
_this$ = -4						; size = 4
___$ReturnUdt$ = 8					; size = 4
?end@?$vector@KV?$allocator@K@std@@@std@@QAE?AViterator@12@XZ PROC NEAR ; std::vector<unsigned long,std::allocator<unsigned long> >::end, COMDAT
; _this$ = ecx

; 472  : 		{	// return iterator for end of mutable sequence

  00000	55		 push	 ebp
  00001	8b ec		 mov	 ebp, esp
  00003	51		 push	 ecx
  00004	c7 45 fc cc cc
	cc cc		 mov	 DWORD PTR [ebp-4], -858993460 ; ccccccccH
  0000b	89 4d fc	 mov	 DWORD PTR _this$[ebp], ecx

; 473  : 		return (iterator(_Mylast));

  0000e	8b 45 fc	 mov	 eax, DWORD PTR _this$[ebp]
  00011	8b 48 08	 mov	 ecx, DWORD PTR [eax+8]
  00014	51		 push	 ecx
  00015	8b 4d 08	 mov	 ecx, DWORD PTR ___$ReturnUdt$[ebp]
  00018	e8 00 00 00 00	 call	 ??0iterator@?$vector@KV?$allocator@K@std@@@std@@QAE@PAK@Z ; std::vector<unsigned long,std::allocator<unsigned long> >::iterator::iterator
  0001d	8b 45 08	 mov	 eax, DWORD PTR ___$ReturnUdt$[ebp]

; 474  : 		}

  00020	83 c4 04	 add	 esp, 4
  00023	3b ec		 cmp	 ebp, esp
  00025	e8 00 00 00 00	 call	 __RTC_CheckEsp
  0002a	8b e5		 mov	 esp, ebp
  0002c	5d		 pop	 ebp
  0002d	c2 04 00	 ret	 4
?end@?$vector@KV?$allocator@K@std@@@std@@QAE?AViterator@12@XZ ENDP ; std::vector<unsigned long,std::allocator<unsigned long> >::end
; Function compile flags: /Odt /RTCsu
_TEXT	ENDS
;	COMDAT ?size@?$vector@KV?$allocator@K@std@@@std@@QBEIXZ
_TEXT	SEGMENT
tv70 = -8						; size = 4
_this$ = -4						; size = 4
?size@?$vector@KV?$allocator@K@std@@@std@@QBEIXZ PROC NEAR ; std::vector<unsigned long,std::allocator<unsigned long> >::size, COMDAT
; _this$ = ecx

; 515  : 		{	// return length of sequence

  00000	55		 push	 ebp
  00001	8b ec		 mov	 ebp, esp
  00003	83 ec 08	 sub	 esp, 8
  00006	c7 45 f8 cc cc
	cc cc		 mov	 DWORD PTR [ebp-8], -858993460 ; ccccccccH
  0000d	c7 45 fc cc cc
	cc cc		 mov	 DWORD PTR [ebp-4], -858993460 ; ccccccccH
  00014	89 4d fc	 mov	 DWORD PTR _this$[ebp], ecx

; 516  : 		return (_Myfirst == 0 ? 0 : _Mylast - _Myfirst);

  00017	8b 45 fc	 mov	 eax, DWORD PTR _this$[ebp]
  0001a	83 78 04 00	 cmp	 DWORD PTR [eax+4], 0
  0001e	75 09		 jne	 SHORT $L194707
  00020	c7 45 f8 00 00
	00 00		 mov	 DWORD PTR tv70[ebp], 0
  00027	eb 12		 jmp	 SHORT $L194708
$L194707:
  00029	8b 4d fc	 mov	 ecx, DWORD PTR _this$[ebp]
  0002c	8b 55 fc	 mov	 edx, DWORD PTR _this$[ebp]
  0002f	8b 41 08	 mov	 eax, DWORD PTR [ecx+8]
  00032	2b 42 04	 sub	 eax, DWORD PTR [edx+4]
  00035	c1 f8 02	 sar	 eax, 2
  00038	89 45 f8	 mov	 DWORD PTR tv70[ebp], eax
$L194708:
  0003b	8b 45 f8	 mov	 eax, DWORD PTR tv70[ebp]

; 517  : 		}

  0003e	8b e5		 mov	 esp, ebp
  00040	5d		 pop	 ebp
  00041	c3		 ret	 0
?size@?$vector@KV?$allocator@K@std@@@std@@QBEIXZ ENDP	; std::vector<unsigned long,std::allocator<unsigned long> >::size
_TEXT	ENDS
PUBLIC	??Giterator@?$vector@KV?$allocator@K@std@@@std@@QBEHABVconst_iterator@12@@Z ; std::vector<unsigned long,std::allocator<unsigned long> >::iterator::operator-
PUBLIC	?_Insert_n@?$vector@KV?$allocator@K@std@@@std@@IAEXViterator@12@IABK@Z ; std::vector<unsigned long,std::allocator<unsigned long> >::_Insert_n
; Function compile flags: /Odt /RTCsu
;	COMDAT ?insert@?$vector@KV?$allocator@K@std@@@std@@QAE?AViterator@12@V312@ABK@Z
_TEXT	SEGMENT
tv73 = -20						; size = 4
$T194713 = -16						; size = 4
$T194710 = -12						; size = 4
__Off$ = -8						; size = 4
_this$ = -4						; size = 4
___$ReturnUdt$ = 8					; size = 4
__Where$ = 12						; size = 4
__Val$ = 16						; size = 4
?insert@?$vector@KV?$allocator@K@std@@@std@@QAE?AViterator@12@V312@ABK@Z PROC NEAR ; std::vector<unsigned long,std::allocator<unsigned long> >::insert, COMDAT
; _this$ = ecx

; 620  : 		{	// insert _Val at _Where

  00000	55		 push	 ebp
  00001	8b ec		 mov	 ebp, esp
  00003	83 ec 14	 sub	 esp, 20			; 00000014H
  00006	b8 cc cc cc cc	 mov	 eax, -858993460		; ccccccccH
  0000b	89 45 ec	 mov	 DWORD PTR [ebp-20], eax
  0000e	89 45 f0	 mov	 DWORD PTR [ebp-16], eax
  00011	89 45 f4	 mov	 DWORD PTR [ebp-12], eax
  00014	89 45 f8	 mov	 DWORD PTR [ebp-8], eax
  00017	89 45 fc	 mov	 DWORD PTR [ebp-4], eax
  0001a	89 4d fc	 mov	 DWORD PTR _this$[ebp], ecx

; 621  : 		size_type _Off = size() == 0 ? 0 : _Where - begin();

  0001d	8b 4d fc	 mov	 ecx, DWORD PTR _this$[ebp]
  00020	e8 00 00 00 00	 call	 ?size@?$vector@KV?$allocator@K@std@@@std@@QBEIXZ ; std::vector<unsigned long,std::allocator<unsigned long> >::size
  00025	85 c0		 test	 eax, eax
  00027	75 09		 jne	 SHORT $L194711
  00029	c7 45 ec 00 00
	00 00		 mov	 DWORD PTR tv73[ebp], 0
  00030	eb 18		 jmp	 SHORT $L194712
$L194711:
  00032	8d 45 f4	 lea	 eax, DWORD PTR $T194710[ebp]
  00035	50		 push	 eax
  00036	8b 4d fc	 mov	 ecx, DWORD PTR _this$[ebp]
  00039	e8 00 00 00 00	 call	 ?begin@?$vector@KV?$allocator@K@std@@@std@@QAE?AViterator@12@XZ ; std::vector<unsigned long,std::allocator<unsigned long> >::begin
  0003e	50		 push	 eax
  0003f	8d 4d 0c	 lea	 ecx, DWORD PTR __Where$[ebp]
  00042	e8 00 00 00 00	 call	 ??Giterator@?$vector@KV?$allocator@K@std@@@std@@QBEHABVconst_iterator@12@@Z ; std::vector<unsigned long,std::allocator<unsigned long> >::iterator::operator-
  00047	89 45 ec	 mov	 DWORD PTR tv73[ebp], eax
$L194712:
  0004a	8b 4d ec	 mov	 ecx, DWORD PTR tv73[ebp]
  0004d	89 4d f8	 mov	 DWORD PTR __Off$[ebp], ecx

; 622  : 		_Insert_n(_Where, (size_type)1, _Val);

  00050	8b 55 10	 mov	 edx, DWORD PTR __Val$[ebp]
  00053	52		 push	 edx
  00054	6a 01		 push	 1
  00056	8b 45 0c	 mov	 eax, DWORD PTR __Where$[ebp]
  00059	50		 push	 eax
  0005a	8b 4d fc	 mov	 ecx, DWORD PTR _this$[ebp]
  0005d	e8 00 00 00 00	 call	 ?_Insert_n@?$vector@KV?$allocator@K@std@@@std@@IAEXViterator@12@IABK@Z ; std::vector<unsigned long,std::allocator<unsigned long> >::_Insert_n

; 623  : 		return (begin() + _Off);

  00062	8b 4d f8	 mov	 ecx, DWORD PTR __Off$[ebp]
  00065	51		 push	 ecx
  00066	8b 55 08	 mov	 edx, DWORD PTR ___$ReturnUdt$[ebp]
  00069	52		 push	 edx
  0006a	8d 45 f0	 lea	 eax, DWORD PTR $T194713[ebp]
  0006d	50		 push	 eax
  0006e	8b 4d fc	 mov	 ecx, DWORD PTR _this$[ebp]
  00071	e8 00 00 00 00	 call	 ?begin@?$vector@KV?$allocator@K@std@@@std@@QAE?AViterator@12@XZ ; std::vector<unsigned long,std::allocator<unsigned long> >::begin
  00076	8b c8		 mov	 ecx, eax
  00078	e8 00 00 00 00	 call	 ??Hiterator@?$vector@KV?$allocator@K@std@@@std@@QBE?AV012@H@Z ; std::vector<unsigned long,std::allocator<unsigned long> >::iterator::operator+
  0007d	8b 45 08	 mov	 eax, DWORD PTR ___$ReturnUdt$[ebp]

; 624  : 		}

  00080	83 c4 14	 add	 esp, 20			; 00000014H
  00083	3b ec		 cmp	 ebp, esp
  00085	e8 00 00 00 00	 call	 __RTC_CheckEsp
  0008a	8b e5		 mov	 esp, ebp
  0008c	5d		 pop	 ebp
  0008d	c2 0c 00	 ret	 12			; 0000000cH
?insert@?$vector@KV?$allocator@K@std@@@std@@QAE?AViterator@12@V312@ABK@Z ENDP ; std::vector<unsigned long,std::allocator<unsigned long> >::insert
_TEXT	ENDS
PUBLIC	?allocate@?$allocator@K@std@@QAEPAKI@Z		; std::allocator<unsigned long>::allocate
PUBLIC	?max_size@?$vector@KV?$allocator@K@std@@@std@@QBEIXZ ; std::vector<unsigned long,std::allocator<unsigned long> >::max_size
PUBLIC	?_Xlen@?$vector@KV?$allocator@K@std@@@std@@IBEXXZ ; std::vector<unsigned long,std::allocator<unsigned long> >::_Xlen
; Function compile flags: /Odt /RTCsu
;	COMDAT ?_Buy@?$vector@KV?$allocator@K@std@@@std@@IAE_NI@Z
_TEXT	SEGMENT
_this$ = -4						; size = 4
__Capacity$ = 8						; size = 4
?_Buy@?$vector@KV?$allocator@K@std@@@std@@IAE_NI@Z PROC NEAR ; std::vector<unsigned long,std::allocator<unsigned long> >::_Buy, COMDAT
; _this$ = ecx

; 770  : 		{	// allocate array with _Capacity elements

  00000	55		 push	 ebp
  00001	8b ec		 mov	 ebp, esp
  00003	51		 push	 ecx
  00004	c7 45 fc cc cc
	cc cc		 mov	 DWORD PTR [ebp-4], -858993460 ; ccccccccH
  0000b	89 4d fc	 mov	 DWORD PTR _this$[ebp], ecx

; 771  : 		_Myfirst = 0, _Mylast = 0, _Myend = 0;

  0000e	8b 45 fc	 mov	 eax, DWORD PTR _this$[ebp]
  00011	c7 40 04 00 00
	00 00		 mov	 DWORD PTR [eax+4], 0
  00018	8b 4d fc	 mov	 ecx, DWORD PTR _this$[ebp]
  0001b	c7 41 08 00 00
	00 00		 mov	 DWORD PTR [ecx+8], 0
  00022	8b 55 fc	 mov	 edx, DWORD PTR _this$[ebp]
  00025	c7 42 0c 00 00
	00 00		 mov	 DWORD PTR [edx+12], 0

; 772  : 		if (_Capacity == 0)

  0002c	83 7d 08 00	 cmp	 DWORD PTR __Capacity$[ebp], 0
  00030	75 04		 jne	 SHORT $L192903

; 773  : 			return (false);

  00032	32 c0		 xor	 al, al
  00034	eb 49		 jmp	 SHORT $L192902
$L192903:

; 774  : 		else if (max_size() < _Capacity)

  00036	8b 4d fc	 mov	 ecx, DWORD PTR _this$[ebp]
  00039	e8 00 00 00 00	 call	 ?max_size@?$vector@KV?$allocator@K@std@@@std@@QBEIXZ ; std::vector<unsigned long,std::allocator<unsigned long> >::max_size
  0003e	3b 45 08	 cmp	 eax, DWORD PTR __Capacity$[ebp]
  00041	73 0a		 jae	 SHORT $L192905

; 775  : 			_Xlen();	// result too long

  00043	8b 4d fc	 mov	 ecx, DWORD PTR _this$[ebp]
  00046	e8 00 00 00 00	 call	 ?_Xlen@?$vector@KV?$allocator@K@std@@@std@@IBEXXZ ; std::vector<unsigned long,std::allocator<unsigned long> >::_Xlen

; 776  : 		else

  0004b	eb 30		 jmp	 SHORT $L192904
$L192905:

; 777  : 			{	// nonempty array, allocate storage
; 778  : 			_Myfirst = this->_Alval.allocate(_Capacity);

  0004d	8b 45 08	 mov	 eax, DWORD PTR __Capacity$[ebp]
  00050	50		 push	 eax
  00051	8b 4d fc	 mov	 ecx, DWORD PTR _this$[ebp]
  00054	e8 00 00 00 00	 call	 ?allocate@?$allocator@K@std@@QAEPAKI@Z ; std::allocator<unsigned long>::allocate
  00059	8b 4d fc	 mov	 ecx, DWORD PTR _this$[ebp]
  0005c	89 41 04	 mov	 DWORD PTR [ecx+4], eax

; 779  : 			_Mylast = _Myfirst;

  0005f	8b 55 fc	 mov	 edx, DWORD PTR _this$[ebp]
  00062	8b 45 fc	 mov	 eax, DWORD PTR _this$[ebp]
  00065	8b 48 04	 mov	 ecx, DWORD PTR [eax+4]
  00068	89 4a 08	 mov	 DWORD PTR [edx+8], ecx

; 780  : 			_Myend = _Myfirst + _Capacity;

  0006b	8b 55 fc	 mov	 edx, DWORD PTR _this$[ebp]
  0006e	8b 42 04	 mov	 eax, DWORD PTR [edx+4]
  00071	8b 4d 08	 mov	 ecx, DWORD PTR __Capacity$[ebp]
  00074	8d 14 88	 lea	 edx, DWORD PTR [eax+ecx*4]
  00077	8b 45 fc	 mov	 eax, DWORD PTR _this$[ebp]
  0007a	89 50 0c	 mov	 DWORD PTR [eax+12], edx
$L192904:

; 781  : 			}
; 782  : 		return (true);

  0007d	b0 01		 mov	 al, 1
$L192902:

; 783  : 		}

  0007f	83 c4 04	 add	 esp, 4
  00082	3b ec		 cmp	 ebp, esp
  00084	e8 00 00 00 00	 call	 __RTC_CheckEsp
  00089	8b e5		 mov	 esp, ebp
  0008b	5d		 pop	 ebp
  0008c	c2 04 00	 ret	 4
?_Buy@?$vector@KV?$allocator@K@std@@@std@@IAE_NI@Z ENDP	; std::vector<unsigned long,std::allocator<unsigned long> >::_Buy
_TEXT	ENDS
PUBLIC	?deallocate@?$allocator@K@std@@QAEXPAKI@Z	; std::allocator<unsigned long>::deallocate
PUBLIC	?_Destroy@?$vector@KV?$allocator@K@std@@@std@@IAEXPAK0@Z ; std::vector<unsigned long,std::allocator<unsigned long> >::_Destroy
; Function compile flags: /Odt /RTCsu
;	COMDAT ?_Tidy@?$vector@KV?$allocator@K@std@@@std@@IAEXXZ
_TEXT	SEGMENT
_this$ = -4						; size = 4
?_Tidy@?$vector@KV?$allocator@K@std@@@std@@IAEXXZ PROC NEAR ; std::vector<unsigned long,std::allocator<unsigned long> >::_Tidy, COMDAT
; _this$ = ecx

; 791  : 		{	// free all storage

  00000	55		 push	 ebp
  00001	8b ec		 mov	 ebp, esp
  00003	51		 push	 ecx
  00004	c7 45 fc cc cc
	cc cc		 mov	 DWORD PTR [ebp-4], -858993460 ; ccccccccH
  0000b	89 4d fc	 mov	 DWORD PTR _this$[ebp], ecx

; 792  : 		if (_Myfirst != 0)

  0000e	8b 45 fc	 mov	 eax, DWORD PTR _this$[ebp]
  00011	83 78 04 00	 cmp	 DWORD PTR [eax+4], 0
  00015	74 35		 je	 SHORT $L192909

; 793  : 			{	// something to free, destroy and deallocate it
; 794  : 			_Destroy(_Myfirst, _Mylast);

  00017	8b 4d fc	 mov	 ecx, DWORD PTR _this$[ebp]
  0001a	8b 51 08	 mov	 edx, DWORD PTR [ecx+8]
  0001d	52		 push	 edx
  0001e	8b 45 fc	 mov	 eax, DWORD PTR _this$[ebp]
  00021	8b 48 04	 mov	 ecx, DWORD PTR [eax+4]
  00024	51		 push	 ecx
  00025	8b 4d fc	 mov	 ecx, DWORD PTR _this$[ebp]
  00028	e8 00 00 00 00	 call	 ?_Destroy@?$vector@KV?$allocator@K@std@@@std@@IAEXPAK0@Z ; std::vector<unsigned long,std::allocator<unsigned long> >::_Destroy

; 795  : 			this->_Alval.deallocate(_Myfirst, _Myend - _Myfirst);

  0002d	8b 55 fc	 mov	 edx, DWORD PTR _this$[ebp]
  00030	8b 45 fc	 mov	 eax, DWORD PTR _this$[ebp]
  00033	8b 4a 0c	 mov	 ecx, DWORD PTR [edx+12]
  00036	2b 48 04	 sub	 ecx, DWORD PTR [eax+4]
  00039	c1 f9 02	 sar	 ecx, 2
  0003c	51		 push	 ecx
  0003d	8b 55 fc	 mov	 edx, DWORD PTR _this$[ebp]
  00040	8b 42 04	 mov	 eax, DWORD PTR [edx+4]
  00043	50		 push	 eax
  00044	8b 4d fc	 mov	 ecx, DWORD PTR _this$[ebp]
  00047	e8 00 00 00 00	 call	 ?deallocate@?$allocator@K@std@@QAEXPAKI@Z ; std::allocator<unsigned long>::deallocate
$L192909:

; 796  : 			}
; 797  : 		_Myfirst = 0, _Mylast = 0, _Myend = 0;

  0004c	8b 4d fc	 mov	 ecx, DWORD PTR _this$[ebp]
  0004f	c7 41 04 00 00
	00 00		 mov	 DWORD PTR [ecx+4], 0
  00056	8b 55 fc	 mov	 edx, DWORD PTR _this$[ebp]
  00059	c7 42 08 00 00
	00 00		 mov	 DWORD PTR [edx+8], 0
  00060	8b 45 fc	 mov	 eax, DWORD PTR _this$[ebp]
  00063	c7 40 0c 00 00
	00 00		 mov	 DWORD PTR [eax+12], 0

; 798  : 		}

  0006a	83 c4 04	 add	 esp, 4
  0006d	3b ec		 cmp	 ebp, esp
  0006f	e8 00 00 00 00	 call	 __RTC_CheckEsp
  00074	8b e5		 mov	 esp, ebp
  00076	5d		 pop	 ebp
  00077	c3		 ret	 0
?_Tidy@?$vector@KV?$allocator@K@std@@@std@@IAEXXZ ENDP	; std::vector<unsigned long,std::allocator<unsigned long> >::_Tidy
_TEXT	ENDS
PUBLIC	??$_Uninitialized_fill_n@PAKIKV?$allocator@K@std@@@std@@YAXPAKIABKAAV?$allocator@K@0@@Z ; std::_Uninitialized_fill_n<unsigned long *,unsigned int,unsigned long,std::allocator<unsigned long> >
; Function compile flags: /Odt /RTCsu
;	COMDAT ?_Ufill@?$vector@KV?$allocator@K@std@@@std@@IAEPAKPAKIABK@Z
_TEXT	SEGMENT
_this$ = -4						; size = 4
__Ptr$ = 8						; size = 4
__Count$ = 12						; size = 4
__Val$ = 16						; size = 4
?_Ufill@?$vector@KV?$allocator@K@std@@@std@@IAEPAKPAKIABK@Z PROC NEAR ; std::vector<unsigned long,std::allocator<unsigned long> >::_Ufill, COMDAT
; _this$ = ecx

; 877  : 		{	// copy initializing _Count * _Val, using allocator

  00000	55		 push	 ebp
  00001	8b ec		 mov	 ebp, esp
  00003	51		 push	 ecx
  00004	c7 45 fc cc cc
	cc cc		 mov	 DWORD PTR [ebp-4], -858993460 ; ccccccccH
  0000b	89 4d fc	 mov	 DWORD PTR _this$[ebp], ecx

; 878  : 		_Uninitialized_fill_n(_Ptr, _Count, _Val, this->_Alval);

  0000e	8b 45 fc	 mov	 eax, DWORD PTR _this$[ebp]
  00011	50		 push	 eax
  00012	8b 4d 10	 mov	 ecx, DWORD PTR __Val$[ebp]
  00015	51		 push	 ecx
  00016	8b 55 0c	 mov	 edx, DWORD PTR __Count$[ebp]
  00019	52		 push	 edx
  0001a	8b 45 08	 mov	 eax, DWORD PTR __Ptr$[ebp]
  0001d	50		 push	 eax
  0001e	e8 00 00 00 00	 call	 ??$_Uninitialized_fill_n@PAKIKV?$allocator@K@std@@@std@@YAXPAKIABKAAV?$allocator@K@0@@Z ; std::_Uninitialized_fill_n<unsigned long *,unsigned int,unsigned long,std::allocator<unsigned long> >
  00023	83 c4 10	 add	 esp, 16			; 00000010H

; 879  : 		return (_Ptr + _Count);

  00026	8b 4d 0c	 mov	 ecx, DWORD PTR __Count$[ebp]
  00029	8b 55 08	 mov	 edx, DWORD PTR __Ptr$[ebp]
  0002c	8d 04 8a	 lea	 eax, DWORD PTR [edx+ecx*4]

; 880  : 		}

  0002f	83 c4 04	 add	 esp, 4
  00032	3b ec		 cmp	 ebp, esp
  00034	e8 00 00 00 00	 call	 __RTC_CheckEsp
  00039	8b e5		 mov	 esp, ebp
  0003b	5d		 pop	 ebp
  0003c	c2 0c 00	 ret	 12			; 0000000cH
?_Ufill@?$vector@KV?$allocator@K@std@@@std@@IAEPAKPAKIABK@Z ENDP ; std::vector<unsigned long,std::allocator<unsigned long> >::_Ufill
_TEXT	ENDS
PUBLIC	??0?$allocator@K@std@@QAE@ABV01@@Z		; std::allocator<unsigned long>::allocator<unsigned long>
; Function compile flags: /Odt /RTCsu
;	COMDAT ??0?$_Vector_val@KV?$allocator@K@std@@@std@@IAE@V?$allocator@K@1@@Z
_TEXT	SEGMENT
_this$ = -4						; size = 4
__Al$ = 8						; size = 1
??0?$_Vector_val@KV?$allocator@K@std@@@std@@IAE@V?$allocator@K@1@@Z PROC NEAR ; std::_Vector_val<unsigned long,std::allocator<unsigned long> >::_Vector_val<unsigned long,std::allocator<unsigned long> >, COMDAT
; _this$ = ecx

; 21   : 		{	// construct allocator from _Al

  00000	55		 push	 ebp
  00001	8b ec		 mov	 ebp, esp
  00003	51		 push	 ecx
  00004	c7 45 fc cc cc
	cc cc		 mov	 DWORD PTR [ebp-4], -858993460 ; ccccccccH
  0000b	89 4d fc	 mov	 DWORD PTR _this$[ebp], ecx
  0000e	8d 45 08	 lea	 eax, DWORD PTR __Al$[ebp]
  00011	50		 push	 eax
  00012	8b 4d fc	 mov	 ecx, DWORD PTR _this$[ebp]
  00015	e8 00 00 00 00	 call	 ??0?$allocator@K@std@@QAE@ABV01@@Z ; std::allocator<unsigned long>::allocator<unsigned long>

; 22   : 		}

  0001a	8b 45 fc	 mov	 eax, DWORD PTR _this$[ebp]
  0001d	83 c4 04	 add	 esp, 4
  00020	3b ec		 cmp	 ebp, esp
  00022	e8 00 00 00 00	 call	 __RTC_CheckEsp
  00027	8b e5		 mov	 esp, ebp
  00029	5d		 pop	 ebp
  0002a	c2 04 00	 ret	 4
??0?$_Vector_val@KV?$allocator@K@std@@@std@@IAE@V?$allocator@K@1@@Z ENDP ; std::_Vector_val<unsigned long,std::allocator<unsigned long> >::_Vector_val<unsigned long,std::allocator<unsigned long> >
; Function compile flags: /Odt /RTCsu
; File d:\program files (x86)\microsoft visual studio .net 2003\vc7\include\xmemory
_TEXT	ENDS
;	COMDAT ??0?$allocator@K@std@@QAE@XZ
_TEXT	SEGMENT
_this$ = -4						; size = 4
??0?$allocator@K@std@@QAE@XZ PROC NEAR			; std::allocator<unsigned long>::allocator<unsigned long>, COMDAT
; _this$ = ecx

; 111  : 	allocator()

  00000	55		 push	 ebp
  00001	8b ec		 mov	 ebp, esp
  00003	51		 push	 ecx
  00004	c7 45 fc cc cc
	cc cc		 mov	 DWORD PTR [ebp-4], -858993460 ; ccccccccH
  0000b	89 4d fc	 mov	 DWORD PTR _this$[ebp], ecx

; 112  : 		{	// construct default allocator (do nothing)
; 113  : 		}

  0000e	8b 45 fc	 mov	 eax, DWORD PTR _this$[ebp]
  00011	8b e5		 mov	 esp, ebp
  00013	5d		 pop	 ebp
  00014	c3		 ret	 0
??0?$allocator@K@std@@QAE@XZ ENDP			; std::allocator<unsigned long>::allocator<unsigned long>
_TEXT	ENDS
PUBLIC	??Dconst_iterator@?$vector@KV?$allocator@K@std@@@std@@QBEABKXZ ; std::vector<unsigned long,std::allocator<unsigned long> >::const_iterator::operator*
; Function compile flags: /Odt /RTCsu
; File d:\program files (x86)\microsoft visual studio .net 2003\vc7\include\vector
;	COMDAT ??Diterator@?$vector@KV?$allocator@K@std@@@std@@QBEAAKXZ
_TEXT	SEGMENT
_this$ = -4						; size = 4
??Diterator@?$vector@KV?$allocator@K@std@@@std@@QBEAAKXZ PROC NEAR ; std::vector<unsigned long,std::allocator<unsigned long> >::iterator::operator*, COMDAT
; _this$ = ecx

; 219  : 			{	// return designated object

  00000	55		 push	 ebp
  00001	8b ec		 mov	 ebp, esp
  00003	51		 push	 ecx
  00004	c7 45 fc cc cc
	cc cc		 mov	 DWORD PTR [ebp-4], -858993460 ; ccccccccH
  0000b	89 4d fc	 mov	 DWORD PTR _this$[ebp], ecx

; 220  : 			return ((reference)**(const_iterator *)this);

  0000e	8b 4d fc	 mov	 ecx, DWORD PTR _this$[ebp]
  00011	e8 00 00 00 00	 call	 ??Dconst_iterator@?$vector@KV?$allocator@K@std@@@std@@QBEABKXZ ; std::vector<unsigned long,std::allocator<unsigned long> >::const_iterator::operator*

; 221  : 			}

  00016	83 c4 04	 add	 esp, 4
  00019	3b ec		 cmp	 ebp, esp
  0001b	e8 00 00 00 00	 call	 __RTC_CheckEsp
  00020	8b e5		 mov	 esp, ebp
  00022	5d		 pop	 ebp
  00023	c3		 ret	 0
??Diterator@?$vector@KV?$allocator@K@std@@@std@@QBEAAKXZ ENDP ; std::vector<unsigned long,std::allocator<unsigned long> >::iterator::operator*
_TEXT	ENDS
PUBLIC	??Yiterator@?$vector@KV?$allocator@K@std@@@std@@QAEAAV012@H@Z ; std::vector<unsigned long,std::allocator<unsigned long> >::iterator::operator+=
; Function compile flags: /Odt /RTCsu
;	COMDAT ??Hiterator@?$vector@KV?$allocator@K@std@@@std@@QBE?AV012@H@Z
_TEXT	SEGMENT
__Tmp$ = -12						; size = 4
_this$ = -4						; size = 4
___$ReturnUdt$ = 8					; size = 4
__Off$ = 12						; size = 4
??Hiterator@?$vector@KV?$allocator@K@std@@@std@@QBE?AV012@H@Z PROC NEAR ; std::vector<unsigned long,std::allocator<unsigned long> >::iterator::operator+, COMDAT
; _this$ = ecx

; 261  : 			{	// return this + integer

  00000	55		 push	 ebp
  00001	8b ec		 mov	 ebp, esp
  00003	83 ec 10	 sub	 esp, 16			; 00000010H
  00006	b8 cc cc cc cc	 mov	 eax, -858993460		; ccccccccH
  0000b	89 45 f0	 mov	 DWORD PTR [ebp-16], eax
  0000e	89 45 f4	 mov	 DWORD PTR [ebp-12], eax
  00011	89 45 f8	 mov	 DWORD PTR [ebp-8], eax
  00014	89 45 fc	 mov	 DWORD PTR [ebp-4], eax
  00017	89 4d fc	 mov	 DWORD PTR _this$[ebp], ecx

; 262  : 			iterator _Tmp = *this;

  0001a	8b 45 fc	 mov	 eax, DWORD PTR _this$[ebp]
  0001d	8b 08		 mov	 ecx, DWORD PTR [eax]
  0001f	89 4d f4	 mov	 DWORD PTR __Tmp$[ebp], ecx

; 263  : 			return (_Tmp += _Off);

  00022	8b 55 0c	 mov	 edx, DWORD PTR __Off$[ebp]
  00025	52		 push	 edx
  00026	8d 4d f4	 lea	 ecx, DWORD PTR __Tmp$[ebp]
  00029	e8 00 00 00 00	 call	 ??Yiterator@?$vector@KV?$allocator@K@std@@@std@@QAEAAV012@H@Z ; std::vector<unsigned long,std::allocator<unsigned long> >::iterator::operator+=
  0002e	8b 00		 mov	 eax, DWORD PTR [eax]
  00030	8b 4d 08	 mov	 ecx, DWORD PTR ___$ReturnUdt$[ebp]
  00033	89 01		 mov	 DWORD PTR [ecx], eax
  00035	8b 45 08	 mov	 eax, DWORD PTR ___$ReturnUdt$[ebp]

; 264  : 			}

  00038	52		 push	 edx
  00039	8b cd		 mov	 ecx, ebp
  0003b	50		 push	 eax
  0003c	8d 15 00 00 00
	00		 lea	 edx, DWORD PTR $L194723
  00042	e8 00 00 00 00	 call	 @_RTC_CheckStackVars@8
  00047	58		 pop	 eax
  00048	5a		 pop	 edx
  00049	83 c4 10	 add	 esp, 16			; 00000010H
  0004c	3b ec		 cmp	 ebp, esp
  0004e	e8 00 00 00 00	 call	 __RTC_CheckEsp
  00053	8b e5		 mov	 esp, ebp
  00055	5d		 pop	 ebp
  00056	c2 08 00	 ret	 8
$L194723:
  00059	01 00 00 00	 DD	 1
  0005d	00 00 00 00	 DD	 $L194722
$L194722:
  00061	f4 ff ff ff	 DD	 -12			; fffffff4H
  00065	04 00 00 00	 DD	 4
  00069	00 00 00 00	 DD	 $L194721
$L194721:
  0006d	5f		 DB	 95			; 0000005fH
  0006e	54		 DB	 84			; 00000054H
  0006f	6d		 DB	 109			; 0000006dH
  00070	70		 DB	 112			; 00000070H
  00071	00		 DB	 0
??Hiterator@?$vector@KV?$allocator@K@std@@@std@@QBE?AV012@H@Z ENDP ; std::vector<unsigned long,std::allocator<unsigned long> >::iterator::operator+
_TEXT	ENDS
PUBLIC	?max_size@?$allocator@PAVCSkinButton2@@@std@@QBEIXZ ; std::allocator<CSkinButton2 *>::max_size
; Function compile flags: /Odt /RTCsu
;	COMDAT ?max_size@?$vector@PAVCSkinButton2@@V?$allocator@PAVCSkinButton2@@@std@@@std@@QBEIXZ
_TEXT	SEGMENT
_this$ = -4						; size = 4
?max_size@?$vector@PAVCSkinButton2@@V?$allocator@PAVCSkinButton2@@@std@@@std@@QBEIXZ PROC NEAR ; std::vector<CSkinButton2 *,std::allocator<CSkinButton2 *> >::max_size, COMDAT
; _this$ = ecx

; 520  : 		{	// return maximum possible length of sequence

  00000	55		 push	 ebp
  00001	8b ec		 mov	 ebp, esp
  00003	51		 push	 ecx
  00004	c7 45 fc cc cc
	cc cc		 mov	 DWORD PTR [ebp-4], -858993460 ; ccccccccH
  0000b	89 4d fc	 mov	 DWORD PTR _this$[ebp], ecx

; 521  : 		return (this->_Alval.max_size());

  0000e	8b 4d fc	 mov	 ecx, DWORD PTR _this$[ebp]
  00011	e8 00 00 00 00	 call	 ?max_size@?$allocator@PAVCSkinButton2@@@std@@QBEIXZ ; std::allocator<CSkinButton2 *>::max_size

; 522  : 		}

  00016	83 c4 04	 add	 esp, 4
  00019	3b ec		 cmp	 ebp, esp
  0001b	e8 00 00 00 00	 call	 __RTC_CheckEsp
  00020	8b e5		 mov	 esp, ebp
  00022	5d		 pop	 ebp
  00023	c3		 ret	 0
?max_size@?$vector@PAVCSkinButton2@@V?$allocator@PAVCSkinButton2@@@std@@@std@@QBEIXZ ENDP ; std::vector<CSkinButton2 *,std::allocator<CSkinButton2 *> >::max_size
_TEXT	ENDS
PUBLIC	??$_Destroy_range@PAVCSkinButton2@@V?$allocator@PAVCSkinButton2@@@std@@@std@@YAXPAPAVCSkinButton2@@0AAV?$allocator@PAVCSkinButton2@@@0@@Z ; std::_Destroy_range<CSkinButton2 *,std::allocator<CSkinButton2 *> >
; Function compile flags: /Odt /RTCsu
;	COMDAT ?_Destroy@?$vector@PAVCSkinButton2@@V?$allocator@PAVCSkinButton2@@@std@@@std@@IAEXPAPAVCSkinButton2@@0@Z
_TEXT	SEGMENT
_this$ = -4						; size = 4
__First$ = 8						; size = 4
__Last$ = 12						; size = 4
?_Destroy@?$vector@PAVCSkinButton2@@V?$allocator@PAVCSkinButton2@@@std@@@std@@IAEXPAPAVCSkinButton2@@0@Z PROC NEAR ; std::vector<CSkinButton2 *,std::allocator<CSkinButton2 *> >::_Destroy, COMDAT
; _this$ = ecx

; 786  : 		{	// destroy [_First, _Last) using allocator

  00000	55		 push	 ebp
  00001	8b ec		 mov	 ebp, esp
  00003	51		 push	 ecx
  00004	c7 45 fc cc cc
	cc cc		 mov	 DWORD PTR [ebp-4], -858993460 ; ccccccccH
  0000b	89 4d fc	 mov	 DWORD PTR _this$[ebp], ecx

; 787  : 		_Destroy_range(_First, _Last, this->_Alval);

  0000e	8b 45 fc	 mov	 eax, DWORD PTR _this$[ebp]
  00011	50		 push	 eax
  00012	8b 4d 0c	 mov	 ecx, DWORD PTR __Last$[ebp]
  00015	51		 push	 ecx
  00016	8b 55 08	 mov	 edx, DWORD PTR __First$[ebp]
  00019	52		 push	 edx
  0001a	e8 00 00 00 00	 call	 ??$_Destroy_range@PAVCSkinButton2@@V?$allocator@PAVCSkinButton2@@@std@@@std@@YAXPAPAVCSkinButton2@@0AAV?$allocator@PAVCSkinButton2@@@0@@Z ; std::_Destroy_range<CSkinButton2 *,std::allocator<CSkinButton2 *> >
  0001f	83 c4 0c	 add	 esp, 12			; 0000000cH

; 788  : 		}

  00022	83 c4 04	 add	 esp, 4
  00025	3b ec		 cmp	 ebp, esp
  00027	e8 00 00 00 00	 call	 __RTC_CheckEsp
  0002c	8b e5		 mov	 esp, ebp
  0002e	5d		 pop	 ebp
  0002f	c2 08 00	 ret	 8
?_Destroy@?$vector@PAVCSkinButton2@@V?$allocator@PAVCSkinButton2@@@std@@@std@@IAEXPAPAVCSkinButton2@@0@Z ENDP ; std::vector<CSkinButton2 *,std::allocator<CSkinButton2 *> >::_Destroy
_TEXT	ENDS
PUBLIC	??$_Ucopy@PAPAVCSkinButton2@@@?$vector@PAVCSkinButton2@@V?$allocator@PAVCSkinButton2@@@std@@@std@@IAEPAPAVCSkinButton2@@PAPAV2@00@Z ; std::vector<CSkinButton2 *,std::allocator<CSkinButton2 *> >::_Ucopy<CSkinButton2 * *>
PUBLIC	??$fill@PAPAVCSkinButton2@@PAV1@@std@@YAXPAPAVCSkinButton2@@0ABQAV1@@Z ; std::fill<CSkinButton2 * *,CSkinButton2 *>
PUBLIC	??$copy_backward@PAPAVCSkinButton2@@PAPAV1@@std@@YAPAPAVCSkinButton2@@PAPAV1@00@Z ; std::copy_backward<CSkinButton2 * *,CSkinButton2 * *>
EXTRN	__CxxThrowException@8:NEAR
;	COMDAT xdata$x
xdata$x	SEGMENT
$T194740 DD	0ffffffffH
	DD	00H
	DD	0ffffffffH
	DD	00H
	DD	0ffffffffH
	DD	00H
	DD	0ffffffffH
	DD	00H
$T194742 DD	00H
	DD	00H
	DD	00H
	DD	FLAT:$L194731
$T194743 DD	00H
	DD	00H
	DD	00H
	DD	FLAT:$L194733
$T194741 DD	00H
	DD	00H
	DD	01H
	DD	01H
	DD	FLAT:$T194742
	DD	02H
	DD	02H
	DD	03H
	DD	01H
	DD	FLAT:$T194743
$T194735 DD	019930520H
	DD	04H
	DD	FLAT:$T194740
	DD	02H
	DD	FLAT:$T194741
	DD	2 DUP(00H)
; Function compile flags: /Odt /RTCsu
xdata$x	ENDS
;	COMDAT ?_Insert_n@?$vector@PAVCSkinButton2@@V?$allocator@PAVCSkinButton2@@@std@@@std@@IAEXViterator@12@IABQAVCSkinButton2@@@Z
_TEXT	SEGMENT
tv240 = -60						; size = 4
tv239 = -56						; size = 4
tv85 = -52						; size = 4
__Oldend$193016 = -48					; size = 4
__Ptr$192996 = -44					; size = 4
__Newvec$192995 = -40					; size = 4
__Capacity$ = -36					; size = 4
__Tmp$ = -28						; size = 4
_this$ = -20						; size = 4
__$EHRec$ = -16						; size = 16
__Where$ = 8						; size = 4
__Count$ = 12						; size = 4
__Val$ = 16						; size = 4
?_Insert_n@?$vector@PAVCSkinButton2@@V?$allocator@PAVCSkinButton2@@@std@@@std@@IAEXViterator@12@IABQAVCSkinButton2@@@Z PROC NEAR ; std::vector<CSkinButton2 *,std::allocator<CSkinButton2 *> >::_Insert_n, COMDAT
; _this$ = ecx

; 809  : 		{	// insert _Count * _Val at _Where

  00000	55		 push	 ebp
  00001	8b ec		 mov	 ebp, esp
  00003	6a ff		 push	 -1
  00005	68 00 00 00 00	 push	 __ehhandler$?_Insert_n@?$vector@PAVCSkinButton2@@V?$allocator@PAVCSkinButton2@@@std@@@std@@IAEXViterator@12@IABQAVCSkinButton2@@@Z
  0000a	64 a1 00 00 00
	00		 mov	 eax, DWORD PTR fs:__except_list
  00010	50		 push	 eax
  00011	64 89 25 00 00
	00 00		 mov	 DWORD PTR fs:__except_list, esp
  00018	51		 push	 ecx
  00019	83 ec 2c	 sub	 esp, 44			; 0000002cH
  0001c	53		 push	 ebx
  0001d	56		 push	 esi
  0001e	57		 push	 edi
  0001f	51		 push	 ecx
  00020	8d 7d c4	 lea	 edi, DWORD PTR [ebp-60]
  00023	b9 0b 00 00 00	 mov	 ecx, 11			; 0000000bH
  00028	b8 cc cc cc cc	 mov	 eax, -858993460		; ccccccccH
  0002d	f3 ab		 rep stosd
  0002f	59		 pop	 ecx
  00030	89 65 f0	 mov	 DWORD PTR __$EHRec$[ebp], esp
  00033	89 4d ec	 mov	 DWORD PTR _this$[ebp], ecx

; 810  : 		_Ty _Tmp = _Val;	// in case _Val is in sequence

  00036	8b 45 10	 mov	 eax, DWORD PTR __Val$[ebp]
  00039	8b 08		 mov	 ecx, DWORD PTR [eax]
  0003b	89 4d e4	 mov	 DWORD PTR __Tmp$[ebp], ecx

; 811  : 		size_type _Capacity = capacity();

  0003e	8b 4d ec	 mov	 ecx, DWORD PTR _this$[ebp]
  00041	e8 00 00 00 00	 call	 ?capacity@?$vector@PAVCSkinButton2@@V?$allocator@PAVCSkinButton2@@@std@@@std@@QBEIXZ ; std::vector<CSkinButton2 *,std::allocator<CSkinButton2 *> >::capacity
  00046	89 45 dc	 mov	 DWORD PTR __Capacity$[ebp], eax

; 812  : 
; 813  : 		if (_Count == 0)

  00049	83 7d 0c 00	 cmp	 DWORD PTR __Count$[ebp], 0
  0004d	75 05		 jne	 SHORT $L192989

; 814  : 			;
; 815  : 		else if (max_size() - size() < _Count)

  0004f	e9 c6 02 00 00	 jmp	 $L194726
$L192989:
  00054	8b 4d ec	 mov	 ecx, DWORD PTR _this$[ebp]
  00057	e8 00 00 00 00	 call	 ?size@?$vector@PAVCSkinButton2@@V?$allocator@PAVCSkinButton2@@@std@@@std@@QBEIXZ ; std::vector<CSkinButton2 *,std::allocator<CSkinButton2 *> >::size
  0005c	8b f0		 mov	 esi, eax
  0005e	8b 4d ec	 mov	 ecx, DWORD PTR _this$[ebp]
  00061	e8 00 00 00 00	 call	 ?max_size@?$vector@PAVCSkinButton2@@V?$allocator@PAVCSkinButton2@@@std@@@std@@QBEIXZ ; std::vector<CSkinButton2 *,std::allocator<CSkinButton2 *> >::max_size
  00066	2b c6		 sub	 eax, esi
  00068	3b 45 0c	 cmp	 eax, DWORD PTR __Count$[ebp]
  0006b	73 0d		 jae	 SHORT $L192991

; 816  : 			_Xlen();	// result too long

  0006d	8b 4d ec	 mov	 ecx, DWORD PTR _this$[ebp]
  00070	e8 00 00 00 00	 call	 ?_Xlen@?$vector@PAVCSkinButton2@@V?$allocator@PAVCSkinButton2@@@std@@@std@@IBEXXZ ; std::vector<CSkinButton2 *,std::allocator<CSkinButton2 *> >::_Xlen

; 817  : 		else if (_Capacity < size() + _Count)

  00075	e9 a0 02 00 00	 jmp	 $L194726
$L192991:
  0007a	8b 4d ec	 mov	 ecx, DWORD PTR _this$[ebp]
  0007d	e8 00 00 00 00	 call	 ?size@?$vector@PAVCSkinButton2@@V?$allocator@PAVCSkinButton2@@@std@@@std@@QBEIXZ ; std::vector<CSkinButton2 *,std::allocator<CSkinButton2 *> >::size
  00082	03 45 0c	 add	 eax, DWORD PTR __Count$[ebp]
  00085	39 45 dc	 cmp	 DWORD PTR __Capacity$[ebp], eax
  00088	0f 83 66 01 00
	00		 jae	 $L192993

; 818  : 			{	// not enough room, reallocate
; 819  : 			_Capacity = max_size() - _Capacity / 2 < _Capacity
; 820  : 				? 0 : _Capacity + _Capacity / 2;	// try to grow by 50%

  0008e	8b 75 dc	 mov	 esi, DWORD PTR __Capacity$[ebp]
  00091	d1 ee		 shr	 esi, 1
  00093	8b 4d ec	 mov	 ecx, DWORD PTR _this$[ebp]
  00096	e8 00 00 00 00	 call	 ?max_size@?$vector@PAVCSkinButton2@@V?$allocator@PAVCSkinButton2@@@std@@@std@@QBEIXZ ; std::vector<CSkinButton2 *,std::allocator<CSkinButton2 *> >::max_size
  0009b	2b c6		 sub	 eax, esi
  0009d	3b 45 dc	 cmp	 eax, DWORD PTR __Capacity$[ebp]
  000a0	73 09		 jae	 SHORT $L194727
  000a2	c7 45 cc 00 00
	00 00		 mov	 DWORD PTR tv85[ebp], 0
  000a9	eb 0b		 jmp	 SHORT $L194728
$L194727:
  000ab	8b 55 dc	 mov	 edx, DWORD PTR __Capacity$[ebp]
  000ae	d1 ea		 shr	 edx, 1
  000b0	03 55 dc	 add	 edx, DWORD PTR __Capacity$[ebp]
  000b3	89 55 cc	 mov	 DWORD PTR tv85[ebp], edx
$L194728:
  000b6	8b 45 cc	 mov	 eax, DWORD PTR tv85[ebp]
  000b9	89 45 dc	 mov	 DWORD PTR __Capacity$[ebp], eax

; 821  : 			if (_Capacity < size() + _Count)

  000bc	8b 4d ec	 mov	 ecx, DWORD PTR _this$[ebp]
  000bf	e8 00 00 00 00	 call	 ?size@?$vector@PAVCSkinButton2@@V?$allocator@PAVCSkinButton2@@@std@@@std@@QBEIXZ ; std::vector<CSkinButton2 *,std::allocator<CSkinButton2 *> >::size
  000c4	03 45 0c	 add	 eax, DWORD PTR __Count$[ebp]
  000c7	39 45 dc	 cmp	 DWORD PTR __Capacity$[ebp], eax
  000ca	73 0e		 jae	 SHORT $L192994

; 822  : 				_Capacity = size() + _Count;

  000cc	8b 4d ec	 mov	 ecx, DWORD PTR _this$[ebp]
  000cf	e8 00 00 00 00	 call	 ?size@?$vector@PAVCSkinButton2@@V?$allocator@PAVCSkinButton2@@@std@@@std@@QBEIXZ ; std::vector<CSkinButton2 *,std::allocator<CSkinButton2 *> >::size
  000d4	03 45 0c	 add	 eax, DWORD PTR __Count$[ebp]
  000d7	89 45 dc	 mov	 DWORD PTR __Capacity$[ebp], eax
$L192994:

; 823  : 			pointer _Newvec = this->_Alval.allocate(_Capacity);

  000da	8b 4d dc	 mov	 ecx, DWORD PTR __Capacity$[ebp]
  000dd	51		 push	 ecx
  000de	8b 4d ec	 mov	 ecx, DWORD PTR _this$[ebp]
  000e1	e8 00 00 00 00	 call	 ?allocate@?$allocator@PAVCSkinButton2@@@std@@QAEPAPAVCSkinButton2@@I@Z ; std::allocator<CSkinButton2 *>::allocate
  000e6	89 45 d8	 mov	 DWORD PTR __Newvec$192995[ebp], eax

; 824  : 			pointer _Ptr = _Newvec;

  000e9	8b 55 d8	 mov	 edx, DWORD PTR __Newvec$192995[ebp]
  000ec	89 55 d4	 mov	 DWORD PTR __Ptr$192996[ebp], edx

; 825  : 
; 826  : 			_TRY_BEGIN

  000ef	c7 45 fc 00 00
	00 00		 mov	 DWORD PTR __$EHRec$[ebp+12], 0

; 827  : 			_Ptr = _Ucopy(_Myfirst, _ITER_BASE(_Where),
; 828  : 				_Newvec);	// copy prefix

  000f6	8b 45 d8	 mov	 eax, DWORD PTR __Newvec$192995[ebp]
  000f9	50		 push	 eax
  000fa	8b 4d 08	 mov	 ecx, DWORD PTR __Where$[ebp]
  000fd	51		 push	 ecx
  000fe	8b 55 ec	 mov	 edx, DWORD PTR _this$[ebp]
  00101	8b 42 04	 mov	 eax, DWORD PTR [edx+4]
  00104	50		 push	 eax
  00105	8b 4d ec	 mov	 ecx, DWORD PTR _this$[ebp]
  00108	e8 00 00 00 00	 call	 ??$_Ucopy@PAPAVCSkinButton2@@@?$vector@PAVCSkinButton2@@V?$allocator@PAVCSkinButton2@@@std@@@std@@IAEPAPAVCSkinButton2@@PAPAV2@00@Z ; std::vector<CSkinButton2 *,std::allocator<CSkinButton2 *> >::_Ucopy<CSkinButton2 * *>
  0010d	89 45 c8	 mov	 DWORD PTR tv239[ebp], eax
  00110	8b 4d c8	 mov	 ecx, DWORD PTR tv239[ebp]
  00113	89 4d d4	 mov	 DWORD PTR __Ptr$192996[ebp], ecx

; 829  : 			_Ptr = _Ufill(_Ptr, _Count, _Tmp);	// add new stuff

  00116	8d 55 e4	 lea	 edx, DWORD PTR __Tmp$[ebp]
  00119	52		 push	 edx
  0011a	8b 45 0c	 mov	 eax, DWORD PTR __Count$[ebp]
  0011d	50		 push	 eax
  0011e	8b 4d d4	 mov	 ecx, DWORD PTR __Ptr$192996[ebp]
  00121	51		 push	 ecx
  00122	8b 4d ec	 mov	 ecx, DWORD PTR _this$[ebp]
  00125	e8 00 00 00 00	 call	 ?_Ufill@?$vector@PAVCSkinButton2@@V?$allocator@PAVCSkinButton2@@@std@@@std@@IAEPAPAVCSkinButton2@@PAPAV3@IABQAV3@@Z ; std::vector<CSkinButton2 *,std::allocator<CSkinButton2 *> >::_Ufill
  0012a	89 45 c4	 mov	 DWORD PTR tv240[ebp], eax
  0012d	8b 55 c4	 mov	 edx, DWORD PTR tv240[ebp]
  00130	89 55 d4	 mov	 DWORD PTR __Ptr$192996[ebp], edx

; 830  : 			_Ucopy(_ITER_BASE(_Where), _Mylast, _Ptr);	// copy suffix

  00133	8b 45 d4	 mov	 eax, DWORD PTR __Ptr$192996[ebp]
  00136	50		 push	 eax
  00137	8b 4d ec	 mov	 ecx, DWORD PTR _this$[ebp]
  0013a	8b 51 08	 mov	 edx, DWORD PTR [ecx+8]
  0013d	52		 push	 edx
  0013e	8b 45 08	 mov	 eax, DWORD PTR __Where$[ebp]
  00141	50		 push	 eax
  00142	8b 4d ec	 mov	 ecx, DWORD PTR _this$[ebp]
  00145	e8 00 00 00 00	 call	 ??$_Ucopy@PAPAVCSkinButton2@@@?$vector@PAVCSkinButton2@@V?$allocator@PAVCSkinButton2@@@std@@@std@@IAEPAPAVCSkinButton2@@PAPAV2@00@Z ; std::vector<CSkinButton2 *,std::allocator<CSkinButton2 *> >::_Ucopy<CSkinButton2 * *>
  0014a	eb 29		 jmp	 SHORT $L194730
$L194731:

; 831  : 			_CATCH_ALL
; 832  : 			_Destroy(_Newvec, _Ptr);

  0014c	8b 4d d4	 mov	 ecx, DWORD PTR __Ptr$192996[ebp]
  0014f	51		 push	 ecx
  00150	8b 55 d8	 mov	 edx, DWORD PTR __Newvec$192995[ebp]
  00153	52		 push	 edx
  00154	8b 4d ec	 mov	 ecx, DWORD PTR _this$[ebp]
  00157	e8 00 00 00 00	 call	 ?_Destroy@?$vector@PAVCSkinButton2@@V?$allocator@PAVCSkinButton2@@@std@@@std@@IAEXPAPAVCSkinButton2@@0@Z ; std::vector<CSkinButton2 *,std::allocator<CSkinButton2 *> >::_Destroy

; 833  : 			this->_Alval.deallocate(_Newvec, _Capacity);

  0015c	8b 45 dc	 mov	 eax, DWORD PTR __Capacity$[ebp]
  0015f	50		 push	 eax
  00160	8b 4d d8	 mov	 ecx, DWORD PTR __Newvec$192995[ebp]
  00163	51		 push	 ecx
  00164	8b 4d ec	 mov	 ecx, DWORD PTR _this$[ebp]
  00167	e8 00 00 00 00	 call	 ?deallocate@?$allocator@PAVCSkinButton2@@@std@@QAEXPAPAVCSkinButton2@@I@Z ; std::allocator<CSkinButton2 *>::deallocate

; 834  : 			_RERAISE;

  0016c	6a 00		 push	 0
  0016e	6a 00		 push	 0
  00170	e8 00 00 00 00	 call	 __CxxThrowException@8
$L194730:

; 835  : 			_CATCH_END

  00175	c7 45 fc ff ff
	ff ff		 mov	 DWORD PTR __$EHRec$[ebp+12], -1

; 836  : 
; 837  : 			_Count += size();

  0017c	8b 4d ec	 mov	 ecx, DWORD PTR _this$[ebp]
  0017f	e8 00 00 00 00	 call	 ?size@?$vector@PAVCSkinButton2@@V?$allocator@PAVCSkinButton2@@@std@@@std@@QBEIXZ ; std::vector<CSkinButton2 *,std::allocator<CSkinButton2 *> >::size
  00184	03 45 0c	 add	 eax, DWORD PTR __Count$[ebp]
  00187	89 45 0c	 mov	 DWORD PTR __Count$[ebp], eax

; 838  : 			if (_Myfirst != 0)

  0018a	8b 55 ec	 mov	 edx, DWORD PTR _this$[ebp]
  0018d	83 7a 04 00	 cmp	 DWORD PTR [edx+4], 0
  00191	74 35		 je	 SHORT $L193003

; 839  : 				{	// destroy and deallocate old array
; 840  : 				_Destroy(_Myfirst, _Mylast);

  00193	8b 45 ec	 mov	 eax, DWORD PTR _this$[ebp]
  00196	8b 48 08	 mov	 ecx, DWORD PTR [eax+8]
  00199	51		 push	 ecx
  0019a	8b 55 ec	 mov	 edx, DWORD PTR _this$[ebp]
  0019d	8b 42 04	 mov	 eax, DWORD PTR [edx+4]
  001a0	50		 push	 eax
  001a1	8b 4d ec	 mov	 ecx, DWORD PTR _this$[ebp]
  001a4	e8 00 00 00 00	 call	 ?_Destroy@?$vector@PAVCSkinButton2@@V?$allocator@PAVCSkinButton2@@@std@@@std@@IAEXPAPAVCSkinButton2@@0@Z ; std::vector<CSkinButton2 *,std::allocator<CSkinButton2 *> >::_Destroy

; 841  : 				this->_Alval.deallocate(_Myfirst, _Myend - _Myfirst);

  001a9	8b 4d ec	 mov	 ecx, DWORD PTR _this$[ebp]
  001ac	8b 55 ec	 mov	 edx, DWORD PTR _this$[ebp]
  001af	8b 41 0c	 mov	 eax, DWORD PTR [ecx+12]
  001b2	2b 42 04	 sub	 eax, DWORD PTR [edx+4]
  001b5	c1 f8 02	 sar	 eax, 2
  001b8	50		 push	 eax
  001b9	8b 4d ec	 mov	 ecx, DWORD PTR _this$[ebp]
  001bc	8b 51 04	 mov	 edx, DWORD PTR [ecx+4]
  001bf	52		 push	 edx
  001c0	8b 4d ec	 mov	 ecx, DWORD PTR _this$[ebp]
  001c3	e8 00 00 00 00	 call	 ?deallocate@?$allocator@PAVCSkinButton2@@@std@@QAEXPAPAVCSkinButton2@@I@Z ; std::allocator<CSkinButton2 *>::deallocate
$L193003:

; 842  : 				}
; 843  : 			_Myend = _Newvec + _Capacity;

  001c8	8b 45 dc	 mov	 eax, DWORD PTR __Capacity$[ebp]
  001cb	8b 4d d8	 mov	 ecx, DWORD PTR __Newvec$192995[ebp]
  001ce	8d 14 81	 lea	 edx, DWORD PTR [ecx+eax*4]
  001d1	8b 45 ec	 mov	 eax, DWORD PTR _this$[ebp]
  001d4	89 50 0c	 mov	 DWORD PTR [eax+12], edx

; 844  : 			_Mylast = _Newvec + _Count;

  001d7	8b 4d 0c	 mov	 ecx, DWORD PTR __Count$[ebp]
  001da	8b 55 d8	 mov	 edx, DWORD PTR __Newvec$192995[ebp]
  001dd	8d 04 8a	 lea	 eax, DWORD PTR [edx+ecx*4]
  001e0	8b 4d ec	 mov	 ecx, DWORD PTR _this$[ebp]
  001e3	89 41 08	 mov	 DWORD PTR [ecx+8], eax

; 845  : 			_Myfirst = _Newvec;

  001e6	8b 55 ec	 mov	 edx, DWORD PTR _this$[ebp]
  001e9	8b 45 d8	 mov	 eax, DWORD PTR __Newvec$192995[ebp]
  001ec	89 42 04	 mov	 DWORD PTR [edx+4], eax

; 846  : 			}
; 847  : 		else if ((size_type)(_Mylast - _ITER_BASE(_Where)) < _Count)

  001ef	e9 26 01 00 00	 jmp	 $L194726
$L192993:
  001f4	8b 4d ec	 mov	 ecx, DWORD PTR _this$[ebp]
  001f7	8b 51 08	 mov	 edx, DWORD PTR [ecx+8]
  001fa	2b 55 08	 sub	 edx, DWORD PTR __Where$[ebp]
  001fd	c1 fa 02	 sar	 edx, 2
  00200	3b 55 0c	 cmp	 edx, DWORD PTR __Count$[ebp]
  00203	0f 83 ad 00 00
	00		 jae	 $L193006

; 848  : 			{	// new stuff spills off end
; 849  : 			_Ucopy(_ITER_BASE(_Where), _Mylast,
; 850  : 				_ITER_BASE(_Where) + _Count);	// copy suffix

  00209	8b 45 0c	 mov	 eax, DWORD PTR __Count$[ebp]
  0020c	8b 4d 08	 mov	 ecx, DWORD PTR __Where$[ebp]
  0020f	8d 14 81	 lea	 edx, DWORD PTR [ecx+eax*4]
  00212	52		 push	 edx
  00213	8b 45 ec	 mov	 eax, DWORD PTR _this$[ebp]
  00216	8b 48 08	 mov	 ecx, DWORD PTR [eax+8]
  00219	51		 push	 ecx
  0021a	8b 55 08	 mov	 edx, DWORD PTR __Where$[ebp]
  0021d	52		 push	 edx
  0021e	8b 4d ec	 mov	 ecx, DWORD PTR _this$[ebp]
  00221	e8 00 00 00 00	 call	 ??$_Ucopy@PAPAVCSkinButton2@@@?$vector@PAVCSkinButton2@@V?$allocator@PAVCSkinButton2@@@std@@@std@@IAEPAPAVCSkinButton2@@PAPAV2@00@Z ; std::vector<CSkinButton2 *,std::allocator<CSkinButton2 *> >::_Ucopy<CSkinButton2 * *>

; 851  : 
; 852  : 			_TRY_BEGIN

  00226	c7 45 fc 02 00
	00 00		 mov	 DWORD PTR __$EHRec$[ebp+12], 2

; 853  : 			_Ufill(_Mylast, _Count - (_Mylast - _ITER_BASE(_Where)),
; 854  : 				_Tmp);	// insert new stuff off end

  0022d	8d 45 e4	 lea	 eax, DWORD PTR __Tmp$[ebp]
  00230	50		 push	 eax
  00231	8b 4d ec	 mov	 ecx, DWORD PTR _this$[ebp]
  00234	8b 51 08	 mov	 edx, DWORD PTR [ecx+8]
  00237	2b 55 08	 sub	 edx, DWORD PTR __Where$[ebp]
  0023a	c1 fa 02	 sar	 edx, 2
  0023d	8b 45 0c	 mov	 eax, DWORD PTR __Count$[ebp]
  00240	2b c2		 sub	 eax, edx
  00242	50		 push	 eax
  00243	8b 4d ec	 mov	 ecx, DWORD PTR _this$[ebp]
  00246	8b 51 08	 mov	 edx, DWORD PTR [ecx+8]
  00249	52		 push	 edx
  0024a	8b 4d ec	 mov	 ecx, DWORD PTR _this$[ebp]
  0024d	e8 00 00 00 00	 call	 ?_Ufill@?$vector@PAVCSkinButton2@@V?$allocator@PAVCSkinButton2@@@std@@@std@@IAEPAPAVCSkinButton2@@PAPAV3@IABQAV3@@Z ; std::vector<CSkinButton2 *,std::allocator<CSkinButton2 *> >::_Ufill
  00252	eb 28		 jmp	 SHORT $L194732
$L194733:

; 855  : 			_CATCH_ALL
; 856  : 			_Destroy(_ITER_BASE(_Where) + _Count, _Mylast + _Count);

  00254	8b 45 ec	 mov	 eax, DWORD PTR _this$[ebp]
  00257	8b 48 08	 mov	 ecx, DWORD PTR [eax+8]
  0025a	8b 55 0c	 mov	 edx, DWORD PTR __Count$[ebp]
  0025d	8d 04 91	 lea	 eax, DWORD PTR [ecx+edx*4]
  00260	50		 push	 eax
  00261	8b 4d 0c	 mov	 ecx, DWORD PTR __Count$[ebp]
  00264	8b 55 08	 mov	 edx, DWORD PTR __Where$[ebp]
  00267	8d 04 8a	 lea	 eax, DWORD PTR [edx+ecx*4]
  0026a	50		 push	 eax
  0026b	8b 4d ec	 mov	 ecx, DWORD PTR _this$[ebp]
  0026e	e8 00 00 00 00	 call	 ?_Destroy@?$vector@PAVCSkinButton2@@V?$allocator@PAVCSkinButton2@@@std@@@std@@IAEXPAPAVCSkinButton2@@0@Z ; std::vector<CSkinButton2 *,std::allocator<CSkinButton2 *> >::_Destroy

; 857  : 			_RERAISE;

  00273	6a 00		 push	 0
  00275	6a 00		 push	 0
  00277	e8 00 00 00 00	 call	 __CxxThrowException@8
$L194732:

; 858  : 			_CATCH_END

  0027c	c7 45 fc ff ff
	ff ff		 mov	 DWORD PTR __$EHRec$[ebp+12], -1

; 859  : 
; 860  : 			_Mylast += _Count;

  00283	8b 4d ec	 mov	 ecx, DWORD PTR _this$[ebp]
  00286	8b 51 08	 mov	 edx, DWORD PTR [ecx+8]
  00289	8b 45 0c	 mov	 eax, DWORD PTR __Count$[ebp]
  0028c	8d 0c 82	 lea	 ecx, DWORD PTR [edx+eax*4]
  0028f	8b 55 ec	 mov	 edx, DWORD PTR _this$[ebp]
  00292	89 4a 08	 mov	 DWORD PTR [edx+8], ecx

; 861  : 			fill(_ITER_BASE(_Where), _Mylast - _Count,
; 862  : 				_Tmp);	// insert up to old end

  00295	8d 45 e4	 lea	 eax, DWORD PTR __Tmp$[ebp]
  00298	50		 push	 eax
  00299	8b 4d 0c	 mov	 ecx, DWORD PTR __Count$[ebp]
  0029c	c1 e1 02	 shl	 ecx, 2
  0029f	8b 55 ec	 mov	 edx, DWORD PTR _this$[ebp]
  002a2	8b 42 08	 mov	 eax, DWORD PTR [edx+8]
  002a5	2b c1		 sub	 eax, ecx
  002a7	50		 push	 eax
  002a8	8b 4d 08	 mov	 ecx, DWORD PTR __Where$[ebp]
  002ab	51		 push	 ecx
  002ac	e8 00 00 00 00	 call	 ??$fill@PAPAVCSkinButton2@@PAV1@@std@@YAXPAPAVCSkinButton2@@0ABQAV1@@Z ; std::fill<CSkinButton2 * *,CSkinButton2 *>
  002b1	83 c4 0c	 add	 esp, 12			; 0000000cH

; 863  : 			}
; 864  : 		else

  002b4	eb 64		 jmp	 SHORT $L194726
$L193006:

; 865  : 			{	// new stuff can all be assigned
; 866  : 			pointer _Oldend = _Mylast;

  002b6	8b 55 ec	 mov	 edx, DWORD PTR _this$[ebp]
  002b9	8b 42 08	 mov	 eax, DWORD PTR [edx+8]
  002bc	89 45 d0	 mov	 DWORD PTR __Oldend$193016[ebp], eax

; 867  : 			_Mylast = _Ucopy(_Oldend - _Count, _Oldend,
; 868  : 				_Mylast);	// copy suffix

  002bf	8b 4d ec	 mov	 ecx, DWORD PTR _this$[ebp]
  002c2	8b 51 08	 mov	 edx, DWORD PTR [ecx+8]
  002c5	52		 push	 edx
  002c6	8b 45 d0	 mov	 eax, DWORD PTR __Oldend$193016[ebp]
  002c9	50		 push	 eax
  002ca	8b 4d 0c	 mov	 ecx, DWORD PTR __Count$[ebp]
  002cd	c1 e1 02	 shl	 ecx, 2
  002d0	8b 55 d0	 mov	 edx, DWORD PTR __Oldend$193016[ebp]
  002d3	2b d1		 sub	 edx, ecx
  002d5	52		 push	 edx
  002d6	8b 4d ec	 mov	 ecx, DWORD PTR _this$[ebp]
  002d9	e8 00 00 00 00	 call	 ??$_Ucopy@PAPAVCSkinButton2@@@?$vector@PAVCSkinButton2@@V?$allocator@PAVCSkinButton2@@@std@@@std@@IAEPAPAVCSkinButton2@@PAPAV2@00@Z ; std::vector<CSkinButton2 *,std::allocator<CSkinButton2 *> >::_Ucopy<CSkinButton2 * *>
  002de	8b 4d ec	 mov	 ecx, DWORD PTR _this$[ebp]
  002e1	89 41 08	 mov	 DWORD PTR [ecx+8], eax

; 869  : 			copy_backward(_ITER_BASE(_Where), _Oldend - _Count,
; 870  : 				_Oldend);	// copy hole

  002e4	8b 55 d0	 mov	 edx, DWORD PTR __Oldend$193016[ebp]
  002e7	52		 push	 edx
  002e8	8b 45 0c	 mov	 eax, DWORD PTR __Count$[ebp]
  002eb	c1 e0 02	 shl	 eax, 2
  002ee	8b 4d d0	 mov	 ecx, DWORD PTR __Oldend$193016[ebp]
  002f1	2b c8		 sub	 ecx, eax
  002f3	51		 push	 ecx
  002f4	8b 55 08	 mov	 edx, DWORD PTR __Where$[ebp]
  002f7	52		 push	 edx
  002f8	e8 00 00 00 00	 call	 ??$copy_backward@PAPAVCSkinButton2@@PAPAV1@@std@@YAPAPAVCSkinButton2@@PAPAV1@00@Z ; std::copy_backward<CSkinButton2 * *,CSkinButton2 * *>
  002fd	83 c4 0c	 add	 esp, 12			; 0000000cH

; 871  : 			fill(_ITER_BASE(_Where), _ITER_BASE(_Where) + _Count,
; 872  : 				_Tmp);	// insert into hole

  00300	8d 45 e4	 lea	 eax, DWORD PTR __Tmp$[ebp]
  00303	50		 push	 eax
  00304	8b 4d 0c	 mov	 ecx, DWORD PTR __Count$[ebp]
  00307	8b 55 08	 mov	 edx, DWORD PTR __Where$[ebp]
  0030a	8d 04 8a	 lea	 eax, DWORD PTR [edx+ecx*4]
  0030d	50		 push	 eax
  0030e	8b 4d 08	 mov	 ecx, DWORD PTR __Where$[ebp]
  00311	51		 push	 ecx
  00312	e8 00 00 00 00	 call	 ??$fill@PAPAVCSkinButton2@@PAV1@@std@@YAXPAPAVCSkinButton2@@0ABQAV1@@Z ; std::fill<CSkinButton2 * *,CSkinButton2 *>
  00317	83 c4 0c	 add	 esp, 12			; 0000000cH
$L194726:

; 873  : 			}
; 874  : 		}

  0031a	52		 push	 edx
  0031b	8b cd		 mov	 ecx, ebp
  0031d	50		 push	 eax
  0031e	8d 15 00 00 00
	00		 lea	 edx, DWORD PTR $L194739
  00324	e8 00 00 00 00	 call	 @_RTC_CheckStackVars@8
  00329	58		 pop	 eax
  0032a	5a		 pop	 edx
  0032b	8b 4d f4	 mov	 ecx, DWORD PTR __$EHRec$[ebp+4]
  0032e	64 89 0d 00 00
	00 00		 mov	 DWORD PTR fs:__except_list, ecx
  00335	5f		 pop	 edi
  00336	5e		 pop	 esi
  00337	5b		 pop	 ebx
  00338	83 c4 3c	 add	 esp, 60			; 0000003cH
  0033b	3b ec		 cmp	 ebp, esp
  0033d	e8 00 00 00 00	 call	 __RTC_CheckEsp
  00342	8b e5		 mov	 esp, ebp
  00344	5d		 pop	 ebp
  00345	c2 0c 00	 ret	 12			; 0000000cH
$L194739:
  00348	01 00 00 00	 DD	 1
  0034c	00 00 00 00	 DD	 $L194738
$L194738:
  00350	e4 ff ff ff	 DD	 -28			; ffffffe4H
  00354	04 00 00 00	 DD	 4
  00358	00 00 00 00	 DD	 $L194736
$L194736:
  0035c	5f		 DB	 95			; 0000005fH
  0035d	54		 DB	 84			; 00000054H
  0035e	6d		 DB	 109			; 0000006dH
  0035f	70		 DB	 112			; 00000070H
  00360	00		 DB	 0
_TEXT	ENDS
;	COMDAT text$x
text$x	SEGMENT
__ehhandler$?_Insert_n@?$vector@PAVCSkinButton2@@V?$allocator@PAVCSkinButton2@@@std@@@std@@IAEXViterator@12@IABQAVCSkinButton2@@@Z:
  00000	b8 00 00 00 00	 mov	 eax, OFFSET FLAT:$T194735
  00005	e9 00 00 00 00	 jmp	 ___CxxFrameHandler
text$x	ENDS
?_Insert_n@?$vector@PAVCSkinButton2@@V?$allocator@PAVCSkinButton2@@@std@@@std@@IAEXViterator@12@IABQAVCSkinButton2@@@Z ENDP ; std::vector<CSkinButton2 *,std::allocator<CSkinButton2 *> >::_Insert_n
PUBLIC	??_R0?AVlogic_error@std@@@8			; std::logic_error `RTTI Type Descriptor'
PUBLIC	__CT??_R0?AVlogic_error@std@@@8??0logic_error@std@@QAE@ABV01@@Z40
PUBLIC	??_R0?AVexception@@@8				; exception `RTTI Type Descriptor'
PUBLIC	__CT??_R0?AVexception@@@8??0exception@@QAE@ABV0@@Z12
PUBLIC	??_R0?AVlength_error@std@@@8			; std::length_error `RTTI Type Descriptor'
PUBLIC	??0logic_error@std@@QAE@ABV01@@Z		; std::logic_error::logic_error
PUBLIC	__TI3?AVlength_error@std@@
PUBLIC	__CTA3?AVlength_error@std@@
PUBLIC	__CT??_R0?AVlength_error@std@@@8??0length_error@std@@QAE@ABV01@@Z40
PUBLIC	??_C@_0BD@OLBABOEK@vector?$DMT?$DO?5too?5long?$AA@ ; `string'
PUBLIC	??0length_error@std@@QAE@ABV?$basic_string@DU?$char_traits@D@std@@V?$allocator@D@2@@1@@Z ; std::length_error::length_error
PUBLIC	??1length_error@std@@UAE@XZ			; std::length_error::~length_error
PUBLIC	??0length_error@std@@QAE@ABV01@@Z		; std::length_error::length_error
EXTRN	??0exception@@QAE@ABV0@@Z:NEAR			; exception::exception
;	COMDAT xdata$x
xdata$x	SEGMENT
$T194753 DD	0ffffffffH
	DD	FLAT:$L194749
$T194751 DD	019930520H
	DD	01H
	DD	FLAT:$T194753
	DD	2 DUP(00H)
	DD	2 DUP(00H)
xdata$x	ENDS
;	COMDAT ??_C@_0BD@OLBABOEK@vector?$DMT?$DO?5too?5long?$AA@
CONST	SEGMENT
??_C@_0BD@OLBABOEK@vector?$DMT?$DO?5too?5long?$AA@ DB 'vector<T> too long'
	DB	00H						; `string'
CONST	ENDS
;	COMDAT __TI3?AVlength_error@std@@
xdata$x	SEGMENT
__TI3?AVlength_error@std@@ DD 00H
	DD	FLAT:??1length_error@std@@UAE@XZ
	DD	00H
	DD	FLAT:__CTA3?AVlength_error@std@@
xdata$x	ENDS
;	COMDAT __CTA3?AVlength_error@std@@
xdata$x	SEGMENT
__CTA3?AVlength_error@std@@ DD 03H
	DD	FLAT:__CT??_R0?AVlength_error@std@@@8??0length_error@std@@QAE@ABV01@@Z40
	DD	FLAT:__CT??_R0?AVlogic_error@std@@@8??0logic_error@std@@QAE@ABV01@@Z40
	DD	FLAT:__CT??_R0?AVexception@@@8??0exception@@QAE@ABV0@@Z12
xdata$x	ENDS
;	COMDAT __CT??_R0?AVlength_error@std@@@8??0length_error@std@@QAE@ABV01@@Z40
xdata$x	SEGMENT
__CT??_R0?AVlength_error@std@@@8??0length_error@std@@QAE@ABV01@@Z40 DD 00H
	DD	FLAT:??_R0?AVlength_error@std@@@8
	DD	00H
	DD	0ffffffffH
	ORG $+4
	DD	028H
	DD	FLAT:??0length_error@std@@QAE@ABV01@@Z
xdata$x	ENDS
;	COMDAT ??_R0?AVlength_error@std@@@8
_DATA	SEGMENT
??_R0?AVlength_error@std@@@8 DD FLAT:??_7type_info@@6B@	; std::length_error `RTTI Type Descriptor'
	DD	00H
	DB	'.?AVlength_error@std@@', 00H
	ORG $-31
	DD	FLAT:??_7type_info@@6B@
	DD	00H
	DB	'.?AVlength_error@std@@', 00H
_DATA	ENDS
;	COMDAT __CT??_R0?AVlogic_error@std@@@8??0logic_error@std@@QAE@ABV01@@Z40
xdata$x	SEGMENT
__CT??_R0?AVlogic_error@std@@@8??0logic_error@std@@QAE@ABV01@@Z40 DD 00H
	DD	FLAT:??_R0?AVlogic_error@std@@@8
	DD	00H
	DD	0ffffffffH
	ORG $+4
	DD	028H
	DD	FLAT:??0logic_error@std@@QAE@ABV01@@Z
xdata$x	ENDS
;	COMDAT ??_R0?AVlogic_error@std@@@8
_DATA	SEGMENT
??_R0?AVlogic_error@std@@@8 DD FLAT:??_7type_info@@6B@	; std::logic_error `RTTI Type Descriptor'
	DD	00H
	DB	'.?AVlogic_error@std@@', 00H
	ORG $-30
	DD	FLAT:??_7type_info@@6B@
	DD	00H
	DB	'.?AVlogic_error@std@@', 00H
_DATA	ENDS
;	COMDAT __CT??_R0?AVexception@@@8??0exception@@QAE@ABV0@@Z12
xdata$x	SEGMENT
__CT??_R0?AVexception@@@8??0exception@@QAE@ABV0@@Z12 DD 00H
	DD	FLAT:??_R0?AVexception@@@8
	DD	00H
	DD	0ffffffffH
	ORG $+4
	DD	0cH
	DD	FLAT:??0exception@@QAE@ABV0@@Z
xdata$x	ENDS
;	COMDAT ??_R0?AVexception@@@8
_DATA	SEGMENT
??_R0?AVexception@@@8 DD FLAT:??_7type_info@@6B@	; exception `RTTI Type Descriptor'
	DD	00H
	DB	'.?AVexception@@', 00H
	ORG $-24
	DD	FLAT:??_7type_info@@6B@
	DD	00H
	DB	'.?AVexception@@', 00H
; Function compile flags: /Odt /RTCsu
_DATA	ENDS
;	COMDAT ?_Xlen@?$vector@PAVCSkinButton2@@V?$allocator@PAVCSkinButton2@@@std@@@std@@IBEXXZ
_TEXT	SEGMENT
$T194748 = -84						; size = 28
$T194747 = -56						; size = 40
_this$ = -16						; size = 4
__$EHRec$ = -12						; size = 12
?_Xlen@?$vector@PAVCSkinButton2@@V?$allocator@PAVCSkinButton2@@@std@@@std@@IBEXXZ PROC NEAR ; std::vector<CSkinButton2 *,std::allocator<CSkinButton2 *> >::_Xlen, COMDAT
; _this$ = ecx

; 883  : 		{	// report a length_error

  00000	55		 push	 ebp
  00001	8b ec		 mov	 ebp, esp
  00003	6a ff		 push	 -1
  00005	68 00 00 00 00	 push	 __ehhandler$?_Xlen@?$vector@PAVCSkinButton2@@V?$allocator@PAVCSkinButton2@@@std@@@std@@IBEXXZ
  0000a	64 a1 00 00 00
	00		 mov	 eax, DWORD PTR fs:__except_list
  00010	50		 push	 eax
  00011	64 89 25 00 00
	00 00		 mov	 DWORD PTR fs:__except_list, esp
  00018	83 ec 48	 sub	 esp, 72			; 00000048H
  0001b	56		 push	 esi
  0001c	57		 push	 edi
  0001d	51		 push	 ecx
  0001e	8d 7d ac	 lea	 edi, DWORD PTR [ebp-84]
  00021	b9 12 00 00 00	 mov	 ecx, 18			; 00000012H
  00026	b8 cc cc cc cc	 mov	 eax, -858993460		; ccccccccH
  0002b	f3 ab		 rep stosd
  0002d	59		 pop	 ecx
  0002e	89 4d f0	 mov	 DWORD PTR _this$[ebp], ecx

; 884  : 		_THROW(length_error, "vector<T> too long");

  00031	8b f4		 mov	 esi, esp
  00033	68 00 00 00 00	 push	 OFFSET FLAT:??_C@_0BD@OLBABOEK@vector?$DMT?$DO?5too?5long?$AA@
  00038	8d 4d ac	 lea	 ecx, DWORD PTR $T194748[ebp]
  0003b	ff 15 00 00 00
	00		 call	 DWORD PTR __imp_??0?$basic_string@DU?$char_traits@D@std@@V?$allocator@D@2@@std@@QAE@PBD@Z
  00041	3b f4		 cmp	 esi, esp
  00043	e8 00 00 00 00	 call	 __RTC_CheckEsp
  00048	c7 45 fc 00 00
	00 00		 mov	 DWORD PTR __$EHRec$[ebp+8], 0
  0004f	8d 45 ac	 lea	 eax, DWORD PTR $T194748[ebp]
  00052	50		 push	 eax
  00053	8d 4d c8	 lea	 ecx, DWORD PTR $T194747[ebp]
  00056	e8 00 00 00 00	 call	 ??0length_error@std@@QAE@ABV?$basic_string@DU?$char_traits@D@std@@V?$allocator@D@2@@1@@Z ; std::length_error::length_error
  0005b	68 00 00 00 00	 push	 OFFSET FLAT:__TI3?AVlength_error@std@@
  00060	8d 4d c8	 lea	 ecx, DWORD PTR $T194747[ebp]
  00063	51		 push	 ecx
  00064	e8 00 00 00 00	 call	 __CxxThrowException@8
$L194746:

; 885  : 		}

  00069	8b 4d f4	 mov	 ecx, DWORD PTR __$EHRec$[ebp]
  0006c	64 89 0d 00 00
	00 00		 mov	 DWORD PTR fs:__except_list, ecx
  00073	5f		 pop	 edi
  00074	5e		 pop	 esi
  00075	83 c4 54	 add	 esp, 84			; 00000054H
  00078	3b ec		 cmp	 ebp, esp
  0007a	e8 00 00 00 00	 call	 __RTC_CheckEsp
  0007f	8b e5		 mov	 esp, ebp
  00081	5d		 pop	 ebp
  00082	c3		 ret	 0
_TEXT	ENDS
;	COMDAT text$x
text$x	SEGMENT
$L194749:
  00000	8b f4		 mov	 esi, esp
  00002	8d 4d ac	 lea	 ecx, DWORD PTR $T194748[ebp]
  00005	ff 15 00 00 00
	00		 call	 DWORD PTR __imp_??1?$basic_string@DU?$char_traits@D@std@@V?$allocator@D@2@@std@@QAE@XZ
  0000b	3b f4		 cmp	 esi, esp
  0000d	e9 00 00 00 00	 jmp	 __RTC_CheckEsp
__ehhandler$?_Xlen@?$vector@PAVCSkinButton2@@V?$allocator@PAVCSkinButton2@@@std@@@std@@IBEXXZ:
  00012	b8 00 00 00 00	 mov	 eax, OFFSET FLAT:$T194751
  00017	e9 00 00 00 00	 jmp	 ___CxxFrameHandler
text$x	ENDS
?_Xlen@?$vector@PAVCSkinButton2@@V?$allocator@PAVCSkinButton2@@@std@@@std@@IBEXXZ ENDP ; std::vector<CSkinButton2 *,std::allocator<CSkinButton2 *> >::_Xlen
; Function compile flags: /Odt /RTCsu
; File d:\program files (x86)\microsoft visual studio .net 2003\vc7\include\xmemory
;	COMDAT ??0?$allocator@PAVCSkinButton2@@@std@@QAE@ABV01@@Z
_TEXT	SEGMENT
_this$ = -4						; size = 4
___formal$ = 8						; size = 4
??0?$allocator@PAVCSkinButton2@@@std@@QAE@ABV01@@Z PROC NEAR ; std::allocator<CSkinButton2 *>::allocator<CSkinButton2 *>, COMDAT
; _this$ = ecx

; 115  : 	allocator(const allocator<_Ty>&)

  00000	55		 push	 ebp
  00001	8b ec		 mov	 ebp, esp
  00003	51		 push	 ecx
  00004	c7 45 fc cc cc
	cc cc		 mov	 DWORD PTR [ebp-4], -858993460 ; ccccccccH
  0000b	89 4d fc	 mov	 DWORD PTR _this$[ebp], ecx

; 116  : 		{	// construct by copying (do nothing)
; 117  : 		}

  0000e	8b 45 fc	 mov	 eax, DWORD PTR _this$[ebp]
  00011	8b e5		 mov	 esp, ebp
  00013	5d		 pop	 ebp
  00014	c2 04 00	 ret	 4
??0?$allocator@PAVCSkinButton2@@@std@@QAE@ABV01@@Z ENDP	; std::allocator<CSkinButton2 *>::allocator<CSkinButton2 *>
_TEXT	ENDS
EXTRN	??3@YAXPAX@Z:NEAR				; operator delete
; Function compile flags: /Odt /RTCsu
;	COMDAT ?deallocate@?$allocator@PAVCSkinButton2@@@std@@QAEXPAPAVCSkinButton2@@I@Z
_TEXT	SEGMENT
_this$ = -4						; size = 4
__Ptr$ = 8						; size = 4
___formal$ = 12						; size = 4
?deallocate@?$allocator@PAVCSkinButton2@@@std@@QAEXPAPAVCSkinButton2@@I@Z PROC NEAR ; std::allocator<CSkinButton2 *>::deallocate, COMDAT
; _this$ = ecx

; 131  : 		{	// deallocate object at _Ptr, ignore size

  00000	55		 push	 ebp
  00001	8b ec		 mov	 ebp, esp
  00003	51		 push	 ecx
  00004	c7 45 fc cc cc
	cc cc		 mov	 DWORD PTR [ebp-4], -858993460 ; ccccccccH
  0000b	89 4d fc	 mov	 DWORD PTR _this$[ebp], ecx

; 132  : 		operator delete(_Ptr);

  0000e	8b 45 08	 mov	 eax, DWORD PTR __Ptr$[ebp]
  00011	50		 push	 eax
  00012	e8 00 00 00 00	 call	 ??3@YAXPAX@Z		; operator delete
  00017	83 c4 04	 add	 esp, 4

; 133  : 		}

  0001a	83 c4 04	 add	 esp, 4
  0001d	3b ec		 cmp	 ebp, esp
  0001f	e8 00 00 00 00	 call	 __RTC_CheckEsp
  00024	8b e5		 mov	 esp, ebp
  00026	5d		 pop	 ebp
  00027	c2 08 00	 ret	 8
?deallocate@?$allocator@PAVCSkinButton2@@@std@@QAEXPAPAVCSkinButton2@@I@Z ENDP ; std::allocator<CSkinButton2 *>::deallocate
_TEXT	ENDS
PUBLIC	??$_Allocate@PAVCSkinButton2@@@std@@YAPAPAVCSkinButton2@@IPAPAV1@@Z ; std::_Allocate<CSkinButton2 *>
; Function compile flags: /Odt /RTCsu
;	COMDAT ?allocate@?$allocator@PAVCSkinButton2@@@std@@QAEPAPAVCSkinButton2@@I@Z
_TEXT	SEGMENT
_this$ = -4						; size = 4
__Count$ = 8						; size = 4
?allocate@?$allocator@PAVCSkinButton2@@@std@@QAEPAPAVCSkinButton2@@I@Z PROC NEAR ; std::allocator<CSkinButton2 *>::allocate, COMDAT
; _this$ = ecx

; 136  : 		{	// allocate array of _Count elements

  00000	55		 push	 ebp
  00001	8b ec		 mov	 ebp, esp
  00003	51		 push	 ecx
  00004	c7 45 fc cc cc
	cc cc		 mov	 DWORD PTR [ebp-4], -858993460 ; ccccccccH
  0000b	89 4d fc	 mov	 DWORD PTR _this$[ebp], ecx

; 137  : 		return (_Allocate(_Count, (pointer)0));

  0000e	6a 00		 push	 0
  00010	8b 45 08	 mov	 eax, DWORD PTR __Count$[ebp]
  00013	50		 push	 eax
  00014	e8 00 00 00 00	 call	 ??$_Allocate@PAVCSkinButton2@@@std@@YAPAPAVCSkinButton2@@IPAPAV1@@Z ; std::_Allocate<CSkinButton2 *>
  00019	83 c4 08	 add	 esp, 8

; 138  : 		}

  0001c	83 c4 04	 add	 esp, 4
  0001f	3b ec		 cmp	 ebp, esp
  00021	e8 00 00 00 00	 call	 __RTC_CheckEsp
  00026	8b e5		 mov	 esp, ebp
  00028	5d		 pop	 ebp
  00029	c2 04 00	 ret	 4
?allocate@?$allocator@PAVCSkinButton2@@@std@@QAEPAPAVCSkinButton2@@I@Z ENDP ; std::allocator<CSkinButton2 *>::allocate
; Function compile flags: /Odt /RTCsu
; File d:\program files (x86)\microsoft visual studio .net 2003\vc7\include\vector
_TEXT	ENDS
;	COMDAT ??Yiterator@?$vector@PAVCSkinButton2@@V?$allocator@PAVCSkinButton2@@@std@@@std@@QAEAAV012@H@Z
_TEXT	SEGMENT
_this$ = -4						; size = 4
__Off$ = 8						; size = 4
??Yiterator@?$vector@PAVCSkinButton2@@V?$allocator@PAVCSkinButton2@@@std@@@std@@QAEAAV012@H@Z PROC NEAR ; std::vector<CSkinButton2 *,std::allocator<CSkinButton2 *> >::iterator::operator+=, COMDAT
; _this$ = ecx

; 255  : 			{	// increment by integer

  00000	55		 push	 ebp
  00001	8b ec		 mov	 ebp, esp
  00003	51		 push	 ecx
  00004	c7 45 fc cc cc
	cc cc		 mov	 DWORD PTR [ebp-4], -858993460 ; ccccccccH
  0000b	89 4d fc	 mov	 DWORD PTR _this$[ebp], ecx

; 256  : 			this->_Myptr += _Off;

  0000e	8b 45 fc	 mov	 eax, DWORD PTR _this$[ebp]
  00011	8b 08		 mov	 ecx, DWORD PTR [eax]
  00013	8b 55 08	 mov	 edx, DWORD PTR __Off$[ebp]
  00016	8d 04 91	 lea	 eax, DWORD PTR [ecx+edx*4]
  00019	8b 4d fc	 mov	 ecx, DWORD PTR _this$[ebp]
  0001c	89 01		 mov	 DWORD PTR [ecx], eax

; 257  : 			return (*this);

  0001e	8b 45 fc	 mov	 eax, DWORD PTR _this$[ebp]

; 258  : 			}

  00021	8b e5		 mov	 esp, ebp
  00023	5d		 pop	 ebp
  00024	c2 04 00	 ret	 4
??Yiterator@?$vector@PAVCSkinButton2@@V?$allocator@PAVCSkinButton2@@@std@@@std@@QAEAAV012@H@Z ENDP ; std::vector<CSkinButton2 *,std::allocator<CSkinButton2 *> >::iterator::operator+=
_TEXT	ENDS
PUBLIC	??Gconst_iterator@?$vector@PAVCSkinButton2@@V?$allocator@PAVCSkinButton2@@@std@@@std@@QBEHABV012@@Z ; std::vector<CSkinButton2 *,std::allocator<CSkinButton2 *> >::const_iterator::operator-
; Function compile flags: /Odt /RTCsu
;	COMDAT ??Giterator@?$vector@PAVCSkinButton2@@V?$allocator@PAVCSkinButton2@@@std@@@std@@QBEHABVconst_iterator@12@@Z
_TEXT	SEGMENT
$T194761 = -8						; size = 4
_this$ = -4						; size = 4
__Right$ = 8						; size = 4
??Giterator@?$vector@PAVCSkinButton2@@V?$allocator@PAVCSkinButton2@@@std@@@std@@QBEHABVconst_iterator@12@@Z PROC NEAR ; std::vector<CSkinButton2 *,std::allocator<CSkinButton2 *> >::iterator::operator-, COMDAT
; _this$ = ecx

; 278  : 			{	// return difference of iterators

  00000	55		 push	 ebp
  00001	8b ec		 mov	 ebp, esp
  00003	83 ec 08	 sub	 esp, 8
  00006	c7 45 f8 cc cc
	cc cc		 mov	 DWORD PTR [ebp-8], -858993460 ; ccccccccH
  0000d	c7 45 fc cc cc
	cc cc		 mov	 DWORD PTR [ebp-4], -858993460 ; ccccccccH
  00014	89 4d fc	 mov	 DWORD PTR _this$[ebp], ecx

; 279  : 			return ((const_iterator)*this - _Right);

  00017	8b 45 fc	 mov	 eax, DWORD PTR _this$[ebp]
  0001a	8b 08		 mov	 ecx, DWORD PTR [eax]
  0001c	89 4d f8	 mov	 DWORD PTR $T194761[ebp], ecx
  0001f	8b 55 08	 mov	 edx, DWORD PTR __Right$[ebp]
  00022	52		 push	 edx
  00023	8d 4d f8	 lea	 ecx, DWORD PTR $T194761[ebp]
  00026	e8 00 00 00 00	 call	 ??Gconst_iterator@?$vector@PAVCSkinButton2@@V?$allocator@PAVCSkinButton2@@@std@@@std@@QBEHABV012@@Z ; std::vector<CSkinButton2 *,std::allocator<CSkinButton2 *> >::const_iterator::operator-

; 280  : 			}

  0002b	83 c4 08	 add	 esp, 8
  0002e	3b ec		 cmp	 ebp, esp
  00030	e8 00 00 00 00	 call	 __RTC_CheckEsp
  00035	8b e5		 mov	 esp, ebp
  00037	5d		 pop	 ebp
  00038	c2 04 00	 ret	 4
??Giterator@?$vector@PAVCSkinButton2@@V?$allocator@PAVCSkinButton2@@@std@@@std@@QBEHABVconst_iterator@12@@Z ENDP ; std::vector<CSkinButton2 *,std::allocator<CSkinButton2 *> >::iterator::operator-
; Function compile flags: /Odt /RTCsu
_TEXT	ENDS
;	COMDAT ??0const_iterator@?$vector@PAVCSkinButton2@@V?$allocator@PAVCSkinButton2@@@std@@@std@@QAE@PAPAVCSkinButton2@@@Z
_TEXT	SEGMENT
_this$ = -4						; size = 4
__Ptr$ = 8						; size = 4
??0const_iterator@?$vector@PAVCSkinButton2@@V?$allocator@PAVCSkinButton2@@@std@@@std@@QAE@PAPAVCSkinButton2@@@Z PROC NEAR ; std::vector<CSkinButton2 *,std::allocator<CSkinButton2 *> >::const_iterator::const_iterator, COMDAT
; _this$ = ecx

; 73   : 		const_iterator(_Tptr _Ptr)

  00000	55		 push	 ebp
  00001	8b ec		 mov	 ebp, esp
  00003	51		 push	 ecx
  00004	c7 45 fc cc cc
	cc cc		 mov	 DWORD PTR [ebp-4], -858993460 ; ccccccccH
  0000b	89 4d fc	 mov	 DWORD PTR _this$[ebp], ecx

; 74   : 			{	// construct with pointer _Ptr
; 75   : 			_Myptr = _Ptr;

  0000e	8b 45 fc	 mov	 eax, DWORD PTR _this$[ebp]
  00011	8b 4d 08	 mov	 ecx, DWORD PTR __Ptr$[ebp]
  00014	89 08		 mov	 DWORD PTR [eax], ecx

; 76   : 			}

  00016	8b 45 fc	 mov	 eax, DWORD PTR _this$[ebp]
  00019	8b e5		 mov	 esp, ebp
  0001b	5d		 pop	 ebp
  0001c	c2 04 00	 ret	 4
??0const_iterator@?$vector@PAVCSkinButton2@@V?$allocator@PAVCSkinButton2@@@std@@@std@@QAE@PAPAVCSkinButton2@@@Z ENDP ; std::vector<CSkinButton2 *,std::allocator<CSkinButton2 *> >::const_iterator::const_iterator
_TEXT	ENDS
PUBLIC	?max_size@?$allocator@K@std@@QBEIXZ		; std::allocator<unsigned long>::max_size
; Function compile flags: /Odt /RTCsu
;	COMDAT ?max_size@?$vector@KV?$allocator@K@std@@@std@@QBEIXZ
_TEXT	SEGMENT
_this$ = -4						; size = 4
?max_size@?$vector@KV?$allocator@K@std@@@std@@QBEIXZ PROC NEAR ; std::vector<unsigned long,std::allocator<unsigned long> >::max_size, COMDAT
; _this$ = ecx

; 520  : 		{	// return maximum possible length of sequence

  00000	55		 push	 ebp
  00001	8b ec		 mov	 ebp, esp
  00003	51		 push	 ecx
  00004	c7 45 fc cc cc
	cc cc		 mov	 DWORD PTR [ebp-4], -858993460 ; ccccccccH
  0000b	89 4d fc	 mov	 DWORD PTR _this$[ebp], ecx

; 521  : 		return (this->_Alval.max_size());

  0000e	8b 4d fc	 mov	 ecx, DWORD PTR _this$[ebp]
  00011	e8 00 00 00 00	 call	 ?max_size@?$allocator@K@std@@QBEIXZ ; std::allocator<unsigned long>::max_size

; 522  : 		}

  00016	83 c4 04	 add	 esp, 4
  00019	3b ec		 cmp	 ebp, esp
  0001b	e8 00 00 00 00	 call	 __RTC_CheckEsp
  00020	8b e5		 mov	 esp, ebp
  00022	5d		 pop	 ebp
  00023	c3		 ret	 0
?max_size@?$vector@KV?$allocator@K@std@@@std@@QBEIXZ ENDP ; std::vector<unsigned long,std::allocator<unsigned long> >::max_size
_TEXT	ENDS
PUBLIC	??$_Destroy_range@KV?$allocator@K@std@@@std@@YAXPAK0AAV?$allocator@K@0@@Z ; std::_Destroy_range<unsigned long,std::allocator<unsigned long> >
; Function compile flags: /Odt /RTCsu
;	COMDAT ?_Destroy@?$vector@KV?$allocator@K@std@@@std@@IAEXPAK0@Z
_TEXT	SEGMENT
_this$ = -4						; size = 4
__First$ = 8						; size = 4
__Last$ = 12						; size = 4
?_Destroy@?$vector@KV?$allocator@K@std@@@std@@IAEXPAK0@Z PROC NEAR ; std::vector<unsigned long,std::allocator<unsigned long> >::_Destroy, COMDAT
; _this$ = ecx

; 786  : 		{	// destroy [_First, _Last) using allocator

  00000	55		 push	 ebp
  00001	8b ec		 mov	 ebp, esp
  00003	51		 push	 ecx
  00004	c7 45 fc cc cc
	cc cc		 mov	 DWORD PTR [ebp-4], -858993460 ; ccccccccH
  0000b	89 4d fc	 mov	 DWORD PTR _this$[ebp], ecx

; 787  : 		_Destroy_range(_First, _Last, this->_Alval);

  0000e	8b 45 fc	 mov	 eax, DWORD PTR _this$[ebp]
  00011	50		 push	 eax
  00012	8b 4d 0c	 mov	 ecx, DWORD PTR __Last$[ebp]
  00015	51		 push	 ecx
  00016	8b 55 08	 mov	 edx, DWORD PTR __First$[ebp]
  00019	52		 push	 edx
  0001a	e8 00 00 00 00	 call	 ??$_Destroy_range@KV?$allocator@K@std@@@std@@YAXPAK0AAV?$allocator@K@0@@Z ; std::_Destroy_range<unsigned long,std::allocator<unsigned long> >
  0001f	83 c4 0c	 add	 esp, 12			; 0000000cH

; 788  : 		}

  00022	83 c4 04	 add	 esp, 4
  00025	3b ec		 cmp	 ebp, esp
  00027	e8 00 00 00 00	 call	 __RTC_CheckEsp
  0002c	8b e5		 mov	 esp, ebp
  0002e	5d		 pop	 ebp
  0002f	c2 08 00	 ret	 8
?_Destroy@?$vector@KV?$allocator@K@std@@@std@@IAEXPAK0@Z ENDP ; std::vector<unsigned long,std::allocator<unsigned long> >::_Destroy
_TEXT	ENDS
PUBLIC	??$_Ucopy@PAK@?$vector@KV?$allocator@K@std@@@std@@IAEPAKPAK00@Z ; std::vector<unsigned long,std::allocator<unsigned long> >::_Ucopy<unsigned long *>
PUBLIC	??$fill@PAKK@std@@YAXPAK0ABK@Z			; std::fill<unsigned long *,unsigned long>
PUBLIC	??$copy_backward@PAKPAK@std@@YAPAKPAK00@Z	; std::copy_backward<unsigned long *,unsigned long *>
;	COMDAT xdata$x
xdata$x	SEGMENT
$T194778 DD	0ffffffffH
	DD	00H
	DD	0ffffffffH
	DD	00H
	DD	0ffffffffH
	DD	00H
	DD	0ffffffffH
	DD	00H
$T194780 DD	00H
	DD	00H
	DD	00H
	DD	FLAT:$L194769
$T194781 DD	00H
	DD	00H
	DD	00H
	DD	FLAT:$L194771
$T194779 DD	00H
	DD	00H
	DD	01H
	DD	01H
	DD	FLAT:$T194780
	DD	02H
	DD	02H
	DD	03H
	DD	01H
	DD	FLAT:$T194781
$T194773 DD	019930520H
	DD	04H
	DD	FLAT:$T194778
	DD	02H
	DD	FLAT:$T194779
	DD	2 DUP(00H)
; Function compile flags: /Odt /RTCsu
xdata$x	ENDS
;	COMDAT ?_Insert_n@?$vector@KV?$allocator@K@std@@@std@@IAEXViterator@12@IABK@Z
_TEXT	SEGMENT
tv240 = -60						; size = 4
tv239 = -56						; size = 4
tv85 = -52						; size = 4
__Oldend$193095 = -48					; size = 4
__Ptr$193075 = -44					; size = 4
__Newvec$193074 = -40					; size = 4
__Capacity$ = -36					; size = 4
__Tmp$ = -28						; size = 4
_this$ = -20						; size = 4
__$EHRec$ = -16						; size = 16
__Where$ = 8						; size = 4
__Count$ = 12						; size = 4
__Val$ = 16						; size = 4
?_Insert_n@?$vector@KV?$allocator@K@std@@@std@@IAEXViterator@12@IABK@Z PROC NEAR ; std::vector<unsigned long,std::allocator<unsigned long> >::_Insert_n, COMDAT
; _this$ = ecx

; 809  : 		{	// insert _Count * _Val at _Where

  00000	55		 push	 ebp
  00001	8b ec		 mov	 ebp, esp
  00003	6a ff		 push	 -1
  00005	68 00 00 00 00	 push	 __ehhandler$?_Insert_n@?$vector@KV?$allocator@K@std@@@std@@IAEXViterator@12@IABK@Z
  0000a	64 a1 00 00 00
	00		 mov	 eax, DWORD PTR fs:__except_list
  00010	50		 push	 eax
  00011	64 89 25 00 00
	00 00		 mov	 DWORD PTR fs:__except_list, esp
  00018	51		 push	 ecx
  00019	83 ec 2c	 sub	 esp, 44			; 0000002cH
  0001c	53		 push	 ebx
  0001d	56		 push	 esi
  0001e	57		 push	 edi
  0001f	51		 push	 ecx
  00020	8d 7d c4	 lea	 edi, DWORD PTR [ebp-60]
  00023	b9 0b 00 00 00	 mov	 ecx, 11			; 0000000bH
  00028	b8 cc cc cc cc	 mov	 eax, -858993460		; ccccccccH
  0002d	f3 ab		 rep stosd
  0002f	59		 pop	 ecx
  00030	89 65 f0	 mov	 DWORD PTR __$EHRec$[ebp], esp
  00033	89 4d ec	 mov	 DWORD PTR _this$[ebp], ecx

; 810  : 		_Ty _Tmp = _Val;	// in case _Val is in sequence

  00036	8b 45 10	 mov	 eax, DWORD PTR __Val$[ebp]
  00039	8b 08		 mov	 ecx, DWORD PTR [eax]
  0003b	89 4d e4	 mov	 DWORD PTR __Tmp$[ebp], ecx

; 811  : 		size_type _Capacity = capacity();

  0003e	8b 4d ec	 mov	 ecx, DWORD PTR _this$[ebp]
  00041	e8 00 00 00 00	 call	 ?capacity@?$vector@KV?$allocator@K@std@@@std@@QBEIXZ ; std::vector<unsigned long,std::allocator<unsigned long> >::capacity
  00046	89 45 dc	 mov	 DWORD PTR __Capacity$[ebp], eax

; 812  : 
; 813  : 		if (_Count == 0)

  00049	83 7d 0c 00	 cmp	 DWORD PTR __Count$[ebp], 0
  0004d	75 05		 jne	 SHORT $L193068

; 814  : 			;
; 815  : 		else if (max_size() - size() < _Count)

  0004f	e9 c6 02 00 00	 jmp	 $L194765
$L193068:
  00054	8b 4d ec	 mov	 ecx, DWORD PTR _this$[ebp]
  00057	e8 00 00 00 00	 call	 ?size@?$vector@KV?$allocator@K@std@@@std@@QBEIXZ ; std::vector<unsigned long,std::allocator<unsigned long> >::size
  0005c	8b f0		 mov	 esi, eax
  0005e	8b 4d ec	 mov	 ecx, DWORD PTR _this$[ebp]
  00061	e8 00 00 00 00	 call	 ?max_size@?$vector@KV?$allocator@K@std@@@std@@QBEIXZ ; std::vector<unsigned long,std::allocator<unsigned long> >::max_size
  00066	2b c6		 sub	 eax, esi
  00068	3b 45 0c	 cmp	 eax, DWORD PTR __Count$[ebp]
  0006b	73 0d		 jae	 SHORT $L193070

; 816  : 			_Xlen();	// result too long

  0006d	8b 4d ec	 mov	 ecx, DWORD PTR _this$[ebp]
  00070	e8 00 00 00 00	 call	 ?_Xlen@?$vector@KV?$allocator@K@std@@@std@@IBEXXZ ; std::vector<unsigned long,std::allocator<unsigned long> >::_Xlen

; 817  : 		else if (_Capacity < size() + _Count)

  00075	e9 a0 02 00 00	 jmp	 $L194765
$L193070:
  0007a	8b 4d ec	 mov	 ecx, DWORD PTR _this$[ebp]
  0007d	e8 00 00 00 00	 call	 ?size@?$vector@KV?$allocator@K@std@@@std@@QBEIXZ ; std::vector<unsigned long,std::allocator<unsigned long> >::size
  00082	03 45 0c	 add	 eax, DWORD PTR __Count$[ebp]
  00085	39 45 dc	 cmp	 DWORD PTR __Capacity$[ebp], eax
  00088	0f 83 66 01 00
	00		 jae	 $L193072

; 818  : 			{	// not enough room, reallocate
; 819  : 			_Capacity = max_size() - _Capacity / 2 < _Capacity
; 820  : 				? 0 : _Capacity + _Capacity / 2;	// try to grow by 50%

  0008e	8b 75 dc	 mov	 esi, DWORD PTR __Capacity$[ebp]
  00091	d1 ee		 shr	 esi, 1
  00093	8b 4d ec	 mov	 ecx, DWORD PTR _this$[ebp]
  00096	e8 00 00 00 00	 call	 ?max_size@?$vector@KV?$allocator@K@std@@@std@@QBEIXZ ; std::vector<unsigned long,std::allocator<unsigned long> >::max_size
  0009b	2b c6		 sub	 eax, esi
  0009d	3b 45 dc	 cmp	 eax, DWORD PTR __Capacity$[ebp]
  000a0	73 09		 jae	 SHORT $L194766
  000a2	c7 45 cc 00 00
	00 00		 mov	 DWORD PTR tv85[ebp], 0
  000a9	eb 0b		 jmp	 SHORT $L194767
$L194766:
  000ab	8b 55 dc	 mov	 edx, DWORD PTR __Capacity$[ebp]
  000ae	d1 ea		 shr	 edx, 1
  000b0	03 55 dc	 add	 edx, DWORD PTR __Capacity$[ebp]
  000b3	89 55 cc	 mov	 DWORD PTR tv85[ebp], edx
$L194767:
  000b6	8b 45 cc	 mov	 eax, DWORD PTR tv85[ebp]
  000b9	89 45 dc	 mov	 DWORD PTR __Capacity$[ebp], eax

; 821  : 			if (_Capacity < size() + _Count)

  000bc	8b 4d ec	 mov	 ecx, DWORD PTR _this$[ebp]
  000bf	e8 00 00 00 00	 call	 ?size@?$vector@KV?$allocator@K@std@@@std@@QBEIXZ ; std::vector<unsigned long,std::allocator<unsigned long> >::size
  000c4	03 45 0c	 add	 eax, DWORD PTR __Count$[ebp]
  000c7	39 45 dc	 cmp	 DWORD PTR __Capacity$[ebp], eax
  000ca	73 0e		 jae	 SHORT $L193073

; 822  : 				_Capacity = size() + _Count;

  000cc	8b 4d ec	 mov	 ecx, DWORD PTR _this$[ebp]
  000cf	e8 00 00 00 00	 call	 ?size@?$vector@KV?$allocator@K@std@@@std@@QBEIXZ ; std::vector<unsigned long,std::allocator<unsigned long> >::size
  000d4	03 45 0c	 add	 eax, DWORD PTR __Count$[ebp]
  000d7	89 45 dc	 mov	 DWORD PTR __Capacity$[ebp], eax
$L193073:

; 823  : 			pointer _Newvec = this->_Alval.allocate(_Capacity);

  000da	8b 4d dc	 mov	 ecx, DWORD PTR __Capacity$[ebp]
  000dd	51		 push	 ecx
  000de	8b 4d ec	 mov	 ecx, DWORD PTR _this$[ebp]
  000e1	e8 00 00 00 00	 call	 ?allocate@?$allocator@K@std@@QAEPAKI@Z ; std::allocator<unsigned long>::allocate
  000e6	89 45 d8	 mov	 DWORD PTR __Newvec$193074[ebp], eax

; 824  : 			pointer _Ptr = _Newvec;

  000e9	8b 55 d8	 mov	 edx, DWORD PTR __Newvec$193074[ebp]
  000ec	89 55 d4	 mov	 DWORD PTR __Ptr$193075[ebp], edx

; 825  : 
; 826  : 			_TRY_BEGIN

  000ef	c7 45 fc 00 00
	00 00		 mov	 DWORD PTR __$EHRec$[ebp+12], 0

; 827  : 			_Ptr = _Ucopy(_Myfirst, _ITER_BASE(_Where),
; 828  : 				_Newvec);	// copy prefix

  000f6	8b 45 d8	 mov	 eax, DWORD PTR __Newvec$193074[ebp]
  000f9	50		 push	 eax
  000fa	8b 4d 08	 mov	 ecx, DWORD PTR __Where$[ebp]
  000fd	51		 push	 ecx
  000fe	8b 55 ec	 mov	 edx, DWORD PTR _this$[ebp]
  00101	8b 42 04	 mov	 eax, DWORD PTR [edx+4]
  00104	50		 push	 eax
  00105	8b 4d ec	 mov	 ecx, DWORD PTR _this$[ebp]
  00108	e8 00 00 00 00	 call	 ??$_Ucopy@PAK@?$vector@KV?$allocator@K@std@@@std@@IAEPAKPAK00@Z ; std::vector<unsigned long,std::allocator<unsigned long> >::_Ucopy<unsigned long *>
  0010d	89 45 c8	 mov	 DWORD PTR tv239[ebp], eax
  00110	8b 4d c8	 mov	 ecx, DWORD PTR tv239[ebp]
  00113	89 4d d4	 mov	 DWORD PTR __Ptr$193075[ebp], ecx

; 829  : 			_Ptr = _Ufill(_Ptr, _Count, _Tmp);	// add new stuff

  00116	8d 55 e4	 lea	 edx, DWORD PTR __Tmp$[ebp]
  00119	52		 push	 edx
  0011a	8b 45 0c	 mov	 eax, DWORD PTR __Count$[ebp]
  0011d	50		 push	 eax
  0011e	8b 4d d4	 mov	 ecx, DWORD PTR __Ptr$193075[ebp]
  00121	51		 push	 ecx
  00122	8b 4d ec	 mov	 ecx, DWORD PTR _this$[ebp]
  00125	e8 00 00 00 00	 call	 ?_Ufill@?$vector@KV?$allocator@K@std@@@std@@IAEPAKPAKIABK@Z ; std::vector<unsigned long,std::allocator<unsigned long> >::_Ufill
  0012a	89 45 c4	 mov	 DWORD PTR tv240[ebp], eax
  0012d	8b 55 c4	 mov	 edx, DWORD PTR tv240[ebp]
  00130	89 55 d4	 mov	 DWORD PTR __Ptr$193075[ebp], edx

; 830  : 			_Ucopy(_ITER_BASE(_Where), _Mylast, _Ptr);	// copy suffix

  00133	8b 45 d4	 mov	 eax, DWORD PTR __Ptr$193075[ebp]
  00136	50		 push	 eax
  00137	8b 4d ec	 mov	 ecx, DWORD PTR _this$[ebp]
  0013a	8b 51 08	 mov	 edx, DWORD PTR [ecx+8]
  0013d	52		 push	 edx
  0013e	8b 45 08	 mov	 eax, DWORD PTR __Where$[ebp]
  00141	50		 push	 eax
  00142	8b 4d ec	 mov	 ecx, DWORD PTR _this$[ebp]
  00145	e8 00 00 00 00	 call	 ??$_Ucopy@PAK@?$vector@KV?$allocator@K@std@@@std@@IAEPAKPAK00@Z ; std::vector<unsigned long,std::allocator<unsigned long> >::_Ucopy<unsigned long *>
  0014a	eb 29		 jmp	 SHORT $L194768
$L194769:

; 831  : 			_CATCH_ALL
; 832  : 			_Destroy(_Newvec, _Ptr);

  0014c	8b 4d d4	 mov	 ecx, DWORD PTR __Ptr$193075[ebp]
  0014f	51		 push	 ecx
  00150	8b 55 d8	 mov	 edx, DWORD PTR __Newvec$193074[ebp]
  00153	52		 push	 edx
  00154	8b 4d ec	 mov	 ecx, DWORD PTR _this$[ebp]
  00157	e8 00 00 00 00	 call	 ?_Destroy@?$vector@KV?$allocator@K@std@@@std@@IAEXPAK0@Z ; std::vector<unsigned long,std::allocator<unsigned long> >::_Destroy

; 833  : 			this->_Alval.deallocate(_Newvec, _Capacity);

  0015c	8b 45 dc	 mov	 eax, DWORD PTR __Capacity$[ebp]
  0015f	50		 push	 eax
  00160	8b 4d d8	 mov	 ecx, DWORD PTR __Newvec$193074[ebp]
  00163	51		 push	 ecx
  00164	8b 4d ec	 mov	 ecx, DWORD PTR _this$[ebp]
  00167	e8 00 00 00 00	 call	 ?deallocate@?$allocator@K@std@@QAEXPAKI@Z ; std::allocator<unsigned long>::deallocate

; 834  : 			_RERAISE;

  0016c	6a 00		 push	 0
  0016e	6a 00		 push	 0
  00170	e8 00 00 00 00	 call	 __CxxThrowException@8
$L194768:

; 835  : 			_CATCH_END

  00175	c7 45 fc ff ff
	ff ff		 mov	 DWORD PTR __$EHRec$[ebp+12], -1

; 836  : 
; 837  : 			_Count += size();

  0017c	8b 4d ec	 mov	 ecx, DWORD PTR _this$[ebp]
  0017f	e8 00 00 00 00	 call	 ?size@?$vector@KV?$allocator@K@std@@@std@@QBEIXZ ; std::vector<unsigned long,std::allocator<unsigned long> >::size
  00184	03 45 0c	 add	 eax, DWORD PTR __Count$[ebp]
  00187	89 45 0c	 mov	 DWORD PTR __Count$[ebp], eax

; 838  : 			if (_Myfirst != 0)

  0018a	8b 55 ec	 mov	 edx, DWORD PTR _this$[ebp]
  0018d	83 7a 04 00	 cmp	 DWORD PTR [edx+4], 0
  00191	74 35		 je	 SHORT $L193082

; 839  : 				{	// destroy and deallocate old array
; 840  : 				_Destroy(_Myfirst, _Mylast);

  00193	8b 45 ec	 mov	 eax, DWORD PTR _this$[ebp]
  00196	8b 48 08	 mov	 ecx, DWORD PTR [eax+8]
  00199	51		 push	 ecx
  0019a	8b 55 ec	 mov	 edx, DWORD PTR _this$[ebp]
  0019d	8b 42 04	 mov	 eax, DWORD PTR [edx+4]
  001a0	50		 push	 eax
  001a1	8b 4d ec	 mov	 ecx, DWORD PTR _this$[ebp]
  001a4	e8 00 00 00 00	 call	 ?_Destroy@?$vector@KV?$allocator@K@std@@@std@@IAEXPAK0@Z ; std::vector<unsigned long,std::allocator<unsigned long> >::_Destroy

; 841  : 				this->_Alval.deallocate(_Myfirst, _Myend - _Myfirst);

  001a9	8b 4d ec	 mov	 ecx, DWORD PTR _this$[ebp]
  001ac	8b 55 ec	 mov	 edx, DWORD PTR _this$[ebp]
  001af	8b 41 0c	 mov	 eax, DWORD PTR [ecx+12]
  001b2	2b 42 04	 sub	 eax, DWORD PTR [edx+4]
  001b5	c1 f8 02	 sar	 eax, 2
  001b8	50		 push	 eax
  001b9	8b 4d ec	 mov	 ecx, DWORD PTR _this$[ebp]
  001bc	8b 51 04	 mov	 edx, DWORD PTR [ecx+4]
  001bf	52		 push	 edx
  001c0	8b 4d ec	 mov	 ecx, DWORD PTR _this$[ebp]
  001c3	e8 00 00 00 00	 call	 ?deallocate@?$allocator@K@std@@QAEXPAKI@Z ; std::allocator<unsigned long>::deallocate
$L193082:

; 842  : 				}
; 843  : 			_Myend = _Newvec + _Capacity;

  001c8	8b 45 dc	 mov	 eax, DWORD PTR __Capacity$[ebp]
  001cb	8b 4d d8	 mov	 ecx, DWORD PTR __Newvec$193074[ebp]
  001ce	8d 14 81	 lea	 edx, DWORD PTR [ecx+eax*4]
  001d1	8b 45 ec	 mov	 eax, DWORD PTR _this$[ebp]
  001d4	89 50 0c	 mov	 DWORD PTR [eax+12], edx

; 844  : 			_Mylast = _Newvec + _Count;

  001d7	8b 4d 0c	 mov	 ecx, DWORD PTR __Count$[ebp]
  001da	8b 55 d8	 mov	 edx, DWORD PTR __Newvec$193074[ebp]
  001dd	8d 04 8a	 lea	 eax, DWORD PTR [edx+ecx*4]
  001e0	8b 4d ec	 mov	 ecx, DWORD PTR _this$[ebp]
  001e3	89 41 08	 mov	 DWORD PTR [ecx+8], eax

; 845  : 			_Myfirst = _Newvec;

  001e6	8b 55 ec	 mov	 edx, DWORD PTR _this$[ebp]
  001e9	8b 45 d8	 mov	 eax, DWORD PTR __Newvec$193074[ebp]
  001ec	89 42 04	 mov	 DWORD PTR [edx+4], eax

; 846  : 			}
; 847  : 		else if ((size_type)(_Mylast - _ITER_BASE(_Where)) < _Count)

  001ef	e9 26 01 00 00	 jmp	 $L194765
$L193072:
  001f4	8b 4d ec	 mov	 ecx, DWORD PTR _this$[ebp]
  001f7	8b 51 08	 mov	 edx, DWORD PTR [ecx+8]
  001fa	2b 55 08	 sub	 edx, DWORD PTR __Where$[ebp]
  001fd	c1 fa 02	 sar	 edx, 2
  00200	3b 55 0c	 cmp	 edx, DWORD PTR __Count$[ebp]
  00203	0f 83 ad 00 00
	00		 jae	 $L193085

; 848  : 			{	// new stuff spills off end
; 849  : 			_Ucopy(_ITER_BASE(_Where), _Mylast,
; 850  : 				_ITER_BASE(_Where) + _Count);	// copy suffix

  00209	8b 45 0c	 mov	 eax, DWORD PTR __Count$[ebp]
  0020c	8b 4d 08	 mov	 ecx, DWORD PTR __Where$[ebp]
  0020f	8d 14 81	 lea	 edx, DWORD PTR [ecx+eax*4]
  00212	52		 push	 edx
  00213	8b 45 ec	 mov	 eax, DWORD PTR _this$[ebp]
  00216	8b 48 08	 mov	 ecx, DWORD PTR [eax+8]
  00219	51		 push	 ecx
  0021a	8b 55 08	 mov	 edx, DWORD PTR __Where$[ebp]
  0021d	52		 push	 edx
  0021e	8b 4d ec	 mov	 ecx, DWORD PTR _this$[ebp]
  00221	e8 00 00 00 00	 call	 ??$_Ucopy@PAK@?$vector@KV?$allocator@K@std@@@std@@IAEPAKPAK00@Z ; std::vector<unsigned long,std::allocator<unsigned long> >::_Ucopy<unsigned long *>

; 851  : 
; 852  : 			_TRY_BEGIN

  00226	c7 45 fc 02 00
	00 00		 mov	 DWORD PTR __$EHRec$[ebp+12], 2

; 853  : 			_Ufill(_Mylast, _Count - (_Mylast - _ITER_BASE(_Where)),
; 854  : 				_Tmp);	// insert new stuff off end

  0022d	8d 45 e4	 lea	 eax, DWORD PTR __Tmp$[ebp]
  00230	50		 push	 eax
  00231	8b 4d ec	 mov	 ecx, DWORD PTR _this$[ebp]
  00234	8b 51 08	 mov	 edx, DWORD PTR [ecx+8]
  00237	2b 55 08	 sub	 edx, DWORD PTR __Where$[ebp]
  0023a	c1 fa 02	 sar	 edx, 2
  0023d	8b 45 0c	 mov	 eax, DWORD PTR __Count$[ebp]
  00240	2b c2		 sub	 eax, edx
  00242	50		 push	 eax
  00243	8b 4d ec	 mov	 ecx, DWORD PTR _this$[ebp]
  00246	8b 51 08	 mov	 edx, DWORD PTR [ecx+8]
  00249	52		 push	 edx
  0024a	8b 4d ec	 mov	 ecx, DWORD PTR _this$[ebp]
  0024d	e8 00 00 00 00	 call	 ?_Ufill@?$vector@KV?$allocator@K@std@@@std@@IAEPAKPAKIABK@Z ; std::vector<unsigned long,std::allocator<unsigned long> >::_Ufill
  00252	eb 28		 jmp	 SHORT $L194770
$L194771:

; 855  : 			_CATCH_ALL
; 856  : 			_Destroy(_ITER_BASE(_Where) + _Count, _Mylast + _Count);

  00254	8b 45 ec	 mov	 eax, DWORD PTR _this$[ebp]
  00257	8b 48 08	 mov	 ecx, DWORD PTR [eax+8]
  0025a	8b 55 0c	 mov	 edx, DWORD PTR __Count$[ebp]
  0025d	8d 04 91	 lea	 eax, DWORD PTR [ecx+edx*4]
  00260	50		 push	 eax
  00261	8b 4d 0c	 mov	 ecx, DWORD PTR __Count$[ebp]
  00264	8b 55 08	 mov	 edx, DWORD PTR __Where$[ebp]
  00267	8d 04 8a	 lea	 eax, DWORD PTR [edx+ecx*4]
  0026a	50		 push	 eax
  0026b	8b 4d ec	 mov	 ecx, DWORD PTR _this$[ebp]
  0026e	e8 00 00 00 00	 call	 ?_Destroy@?$vector@KV?$allocator@K@std@@@std@@IAEXPAK0@Z ; std::vector<unsigned long,std::allocator<unsigned long> >::_Destroy

; 857  : 			_RERAISE;

  00273	6a 00		 push	 0
  00275	6a 00		 push	 0
  00277	e8 00 00 00 00	 call	 __CxxThrowException@8
$L194770:

; 858  : 			_CATCH_END

  0027c	c7 45 fc ff ff
	ff ff		 mov	 DWORD PTR __$EHRec$[ebp+12], -1

; 859  : 
; 860  : 			_Mylast += _Count;

  00283	8b 4d ec	 mov	 ecx, DWORD PTR _this$[ebp]
  00286	8b 51 08	 mov	 edx, DWORD PTR [ecx+8]
  00289	8b 45 0c	 mov	 eax, DWORD PTR __Count$[ebp]
  0028c	8d 0c 82	 lea	 ecx, DWORD PTR [edx+eax*4]
  0028f	8b 55 ec	 mov	 edx, DWORD PTR _this$[ebp]
  00292	89 4a 08	 mov	 DWORD PTR [edx+8], ecx

; 861  : 			fill(_ITER_BASE(_Where), _Mylast - _Count,
; 862  : 				_Tmp);	// insert up to old end

  00295	8d 45 e4	 lea	 eax, DWORD PTR __Tmp$[ebp]
  00298	50		 push	 eax
  00299	8b 4d 0c	 mov	 ecx, DWORD PTR __Count$[ebp]
  0029c	c1 e1 02	 shl	 ecx, 2
  0029f	8b 55 ec	 mov	 edx, DWORD PTR _this$[ebp]
  002a2	8b 42 08	 mov	 eax, DWORD PTR [edx+8]
  002a5	2b c1		 sub	 eax, ecx
  002a7	50		 push	 eax
  002a8	8b 4d 08	 mov	 ecx, DWORD PTR __Where$[ebp]
  002ab	51		 push	 ecx
  002ac	e8 00 00 00 00	 call	 ??$fill@PAKK@std@@YAXPAK0ABK@Z ; std::fill<unsigned long *,unsigned long>
  002b1	83 c4 0c	 add	 esp, 12			; 0000000cH

; 863  : 			}
; 864  : 		else

  002b4	eb 64		 jmp	 SHORT $L194765
$L193085:

; 865  : 			{	// new stuff can all be assigned
; 866  : 			pointer _Oldend = _Mylast;

  002b6	8b 55 ec	 mov	 edx, DWORD PTR _this$[ebp]
  002b9	8b 42 08	 mov	 eax, DWORD PTR [edx+8]
  002bc	89 45 d0	 mov	 DWORD PTR __Oldend$193095[ebp], eax

; 867  : 			_Mylast = _Ucopy(_Oldend - _Count, _Oldend,
; 868  : 				_Mylast);	// copy suffix

  002bf	8b 4d ec	 mov	 ecx, DWORD PTR _this$[ebp]
  002c2	8b 51 08	 mov	 edx, DWORD PTR [ecx+8]
  002c5	52		 push	 edx
  002c6	8b 45 d0	 mov	 eax, DWORD PTR __Oldend$193095[ebp]
  002c9	50		 push	 eax
  002ca	8b 4d 0c	 mov	 ecx, DWORD PTR __Count$[ebp]
  002cd	c1 e1 02	 shl	 ecx, 2
  002d0	8b 55 d0	 mov	 edx, DWORD PTR __Oldend$193095[ebp]
  002d3	2b d1		 sub	 edx, ecx
  002d5	52		 push	 edx
  002d6	8b 4d ec	 mov	 ecx, DWORD PTR _this$[ebp]
  002d9	e8 00 00 00 00	 call	 ??$_Ucopy@PAK@?$vector@KV?$allocator@K@std@@@std@@IAEPAKPAK00@Z ; std::vector<unsigned long,std::allocator<unsigned long> >::_Ucopy<unsigned long *>
  002de	8b 4d ec	 mov	 ecx, DWORD PTR _this$[ebp]
  002e1	89 41 08	 mov	 DWORD PTR [ecx+8], eax

; 869  : 			copy_backward(_ITER_BASE(_Where), _Oldend - _Count,
; 870  : 				_Oldend);	// copy hole

  002e4	8b 55 d0	 mov	 edx, DWORD PTR __Oldend$193095[ebp]
  002e7	52		 push	 edx
  002e8	8b 45 0c	 mov	 eax, DWORD PTR __Count$[ebp]
  002eb	c1 e0 02	 shl	 eax, 2
  002ee	8b 4d d0	 mov	 ecx, DWORD PTR __Oldend$193095[ebp]
  002f1	2b c8		 sub	 ecx, eax
  002f3	51		 push	 ecx
  002f4	8b 55 08	 mov	 edx, DWORD PTR __Where$[ebp]
  002f7	52		 push	 edx
  002f8	e8 00 00 00 00	 call	 ??$copy_backward@PAKPAK@std@@YAPAKPAK00@Z ; std::copy_backward<unsigned long *,unsigned long *>
  002fd	83 c4 0c	 add	 esp, 12			; 0000000cH

; 871  : 			fill(_ITER_BASE(_Where), _ITER_BASE(_Where) + _Count,
; 872  : 				_Tmp);	// insert into hole

  00300	8d 45 e4	 lea	 eax, DWORD PTR __Tmp$[ebp]
  00303	50		 push	 eax
  00304	8b 4d 0c	 mov	 ecx, DWORD PTR __Count$[ebp]
  00307	8b 55 08	 mov	 edx, DWORD PTR __Where$[ebp]
  0030a	8d 04 8a	 lea	 eax, DWORD PTR [edx+ecx*4]
  0030d	50		 push	 eax
  0030e	8b 4d 08	 mov	 ecx, DWORD PTR __Where$[ebp]
  00311	51		 push	 ecx
  00312	e8 00 00 00 00	 call	 ??$fill@PAKK@std@@YAXPAK0ABK@Z ; std::fill<unsigned long *,unsigned long>
  00317	83 c4 0c	 add	 esp, 12			; 0000000cH
$L194765:

; 873  : 			}
; 874  : 		}

  0031a	52		 push	 edx
  0031b	8b cd		 mov	 ecx, ebp
  0031d	50		 push	 eax
  0031e	8d 15 00 00 00
	00		 lea	 edx, DWORD PTR $L194777
  00324	e8 00 00 00 00	 call	 @_RTC_CheckStackVars@8
  00329	58		 pop	 eax
  0032a	5a		 pop	 edx
  0032b	8b 4d f4	 mov	 ecx, DWORD PTR __$EHRec$[ebp+4]
  0032e	64 89 0d 00 00
	00 00		 mov	 DWORD PTR fs:__except_list, ecx
  00335	5f		 pop	 edi
  00336	5e		 pop	 esi
  00337	5b		 pop	 ebx
  00338	83 c4 3c	 add	 esp, 60			; 0000003cH
  0033b	3b ec		 cmp	 ebp, esp
  0033d	e8 00 00 00 00	 call	 __RTC_CheckEsp
  00342	8b e5		 mov	 esp, ebp
  00344	5d		 pop	 ebp
  00345	c2 0c 00	 ret	 12			; 0000000cH
$L194777:
  00348	01 00 00 00	 DD	 1
  0034c	00 00 00 00	 DD	 $L194776
$L194776:
  00350	e4 ff ff ff	 DD	 -28			; ffffffe4H
  00354	04 00 00 00	 DD	 4
  00358	00 00 00 00	 DD	 $L194774
$L194774:
  0035c	5f		 DB	 95			; 0000005fH
  0035d	54		 DB	 84			; 00000054H
  0035e	6d		 DB	 109			; 0000006dH
  0035f	70		 DB	 112			; 00000070H
  00360	00		 DB	 0
_TEXT	ENDS
;	COMDAT text$x
text$x	SEGMENT
__ehhandler$?_Insert_n@?$vector@KV?$allocator@K@std@@@std@@IAEXViterator@12@IABK@Z:
  00000	b8 00 00 00 00	 mov	 eax, OFFSET FLAT:$T194773
  00005	e9 00 00 00 00	 jmp	 ___CxxFrameHandler
text$x	ENDS
?_Insert_n@?$vector@KV?$allocator@K@std@@@std@@IAEXViterator@12@IABK@Z ENDP ; std::vector<unsigned long,std::allocator<unsigned long> >::_Insert_n
;	COMDAT xdata$x
xdata$x	SEGMENT
$T194791 DD	0ffffffffH
	DD	FLAT:$L194787
$T194789 DD	019930520H
	DD	01H
	DD	FLAT:$T194791
	DD	2 DUP(00H)
	DD	2 DUP(00H)
; Function compile flags: /Odt /RTCsu
xdata$x	ENDS
;	COMDAT ?_Xlen@?$vector@KV?$allocator@K@std@@@std@@IBEXXZ
_TEXT	SEGMENT
$T194786 = -84						; size = 28
$T194785 = -56						; size = 40
_this$ = -16						; size = 4
__$EHRec$ = -12						; size = 12
?_Xlen@?$vector@KV?$allocator@K@std@@@std@@IBEXXZ PROC NEAR ; std::vector<unsigned long,std::allocator<unsigned long> >::_Xlen, COMDAT
; _this$ = ecx

; 883  : 		{	// report a length_error

  00000	55		 push	 ebp
  00001	8b ec		 mov	 ebp, esp
  00003	6a ff		 push	 -1
  00005	68 00 00 00 00	 push	 __ehhandler$?_Xlen@?$vector@KV?$allocator@K@std@@@std@@IBEXXZ
  0000a	64 a1 00 00 00
	00		 mov	 eax, DWORD PTR fs:__except_list
  00010	50		 push	 eax
  00011	64 89 25 00 00
	00 00		 mov	 DWORD PTR fs:__except_list, esp
  00018	83 ec 48	 sub	 esp, 72			; 00000048H
  0001b	56		 push	 esi
  0001c	57		 push	 edi
  0001d	51		 push	 ecx
  0001e	8d 7d ac	 lea	 edi, DWORD PTR [ebp-84]
  00021	b9 12 00 00 00	 mov	 ecx, 18			; 00000012H
  00026	b8 cc cc cc cc	 mov	 eax, -858993460		; ccccccccH
  0002b	f3 ab		 rep stosd
  0002d	59		 pop	 ecx
  0002e	89 4d f0	 mov	 DWORD PTR _this$[ebp], ecx

; 884  : 		_THROW(length_error, "vector<T> too long");

  00031	8b f4		 mov	 esi, esp
  00033	68 00 00 00 00	 push	 OFFSET FLAT:??_C@_0BD@OLBABOEK@vector?$DMT?$DO?5too?5long?$AA@
  00038	8d 4d ac	 lea	 ecx, DWORD PTR $T194786[ebp]
  0003b	ff 15 00 00 00
	00		 call	 DWORD PTR __imp_??0?$basic_string@DU?$char_traits@D@std@@V?$allocator@D@2@@std@@QAE@PBD@Z
  00041	3b f4		 cmp	 esi, esp
  00043	e8 00 00 00 00	 call	 __RTC_CheckEsp
  00048	c7 45 fc 00 00
	00 00		 mov	 DWORD PTR __$EHRec$[ebp+8], 0
  0004f	8d 45 ac	 lea	 eax, DWORD PTR $T194786[ebp]
  00052	50		 push	 eax
  00053	8d 4d c8	 lea	 ecx, DWORD PTR $T194785[ebp]
  00056	e8 00 00 00 00	 call	 ??0length_error@std@@QAE@ABV?$basic_string@DU?$char_traits@D@std@@V?$allocator@D@2@@1@@Z ; std::length_error::length_error
  0005b	68 00 00 00 00	 push	 OFFSET FLAT:__TI3?AVlength_error@std@@
  00060	8d 4d c8	 lea	 ecx, DWORD PTR $T194785[ebp]
  00063	51		 push	 ecx
  00064	e8 00 00 00 00	 call	 __CxxThrowException@8
$L194784:

; 885  : 		}

  00069	8b 4d f4	 mov	 ecx, DWORD PTR __$EHRec$[ebp]
  0006c	64 89 0d 00 00
	00 00		 mov	 DWORD PTR fs:__except_list, ecx
  00073	5f		 pop	 edi
  00074	5e		 pop	 esi
  00075	83 c4 54	 add	 esp, 84			; 00000054H
  00078	3b ec		 cmp	 ebp, esp
  0007a	e8 00 00 00 00	 call	 __RTC_CheckEsp
  0007f	8b e5		 mov	 esp, ebp
  00081	5d		 pop	 ebp
  00082	c3		 ret	 0
_TEXT	ENDS
;	COMDAT text$x
text$x	SEGMENT
$L194787:
  00000	8b f4		 mov	 esi, esp
  00002	8d 4d ac	 lea	 ecx, DWORD PTR $T194786[ebp]
  00005	ff 15 00 00 00
	00		 call	 DWORD PTR __imp_??1?$basic_string@DU?$char_traits@D@std@@V?$allocator@D@2@@std@@QAE@XZ
  0000b	3b f4		 cmp	 esi, esp
  0000d	e9 00 00 00 00	 jmp	 __RTC_CheckEsp
__ehhandler$?_Xlen@?$vector@KV?$allocator@K@std@@@std@@IBEXXZ:
  00012	b8 00 00 00 00	 mov	 eax, OFFSET FLAT:$T194789
  00017	e9 00 00 00 00	 jmp	 ___CxxFrameHandler
text$x	ENDS
?_Xlen@?$vector@KV?$allocator@K@std@@@std@@IBEXXZ ENDP	; std::vector<unsigned long,std::allocator<unsigned long> >::_Xlen
; Function compile flags: /Odt /RTCsu
; File d:\program files (x86)\microsoft visual studio .net 2003\vc7\include\xmemory
;	COMDAT ??0?$allocator@K@std@@QAE@ABV01@@Z
_TEXT	SEGMENT
_this$ = -4						; size = 4
___formal$ = 8						; size = 4
??0?$allocator@K@std@@QAE@ABV01@@Z PROC NEAR		; std::allocator<unsigned long>::allocator<unsigned long>, COMDAT
; _this$ = ecx

; 115  : 	allocator(const allocator<_Ty>&)

  00000	55		 push	 ebp
  00001	8b ec		 mov	 ebp, esp
  00003	51		 push	 ecx
  00004	c7 45 fc cc cc
	cc cc		 mov	 DWORD PTR [ebp-4], -858993460 ; ccccccccH
  0000b	89 4d fc	 mov	 DWORD PTR _this$[ebp], ecx

; 116  : 		{	// construct by copying (do nothing)
; 117  : 		}

  0000e	8b 45 fc	 mov	 eax, DWORD PTR _this$[ebp]
  00011	8b e5		 mov	 esp, ebp
  00013	5d		 pop	 ebp
  00014	c2 04 00	 ret	 4
??0?$allocator@K@std@@QAE@ABV01@@Z ENDP			; std::allocator<unsigned long>::allocator<unsigned long>
; Function compile flags: /Odt /RTCsu
_TEXT	ENDS
;	COMDAT ?deallocate@?$allocator@K@std@@QAEXPAKI@Z
_TEXT	SEGMENT
_this$ = -4						; size = 4
__Ptr$ = 8						; size = 4
___formal$ = 12						; size = 4
?deallocate@?$allocator@K@std@@QAEXPAKI@Z PROC NEAR	; std::allocator<unsigned long>::deallocate, COMDAT
; _this$ = ecx

; 131  : 		{	// deallocate object at _Ptr, ignore size

  00000	55		 push	 ebp
  00001	8b ec		 mov	 ebp, esp
  00003	51		 push	 ecx
  00004	c7 45 fc cc cc
	cc cc		 mov	 DWORD PTR [ebp-4], -858993460 ; ccccccccH
  0000b	89 4d fc	 mov	 DWORD PTR _this$[ebp], ecx

; 132  : 		operator delete(_Ptr);

  0000e	8b 45 08	 mov	 eax, DWORD PTR __Ptr$[ebp]
  00011	50		 push	 eax
  00012	e8 00 00 00 00	 call	 ??3@YAXPAX@Z		; operator delete
  00017	83 c4 04	 add	 esp, 4

; 133  : 		}

  0001a	83 c4 04	 add	 esp, 4
  0001d	3b ec		 cmp	 ebp, esp
  0001f	e8 00 00 00 00	 call	 __RTC_CheckEsp
  00024	8b e5		 mov	 esp, ebp
  00026	5d		 pop	 ebp
  00027	c2 08 00	 ret	 8
?deallocate@?$allocator@K@std@@QAEXPAKI@Z ENDP		; std::allocator<unsigned long>::deallocate
_TEXT	ENDS
PUBLIC	??$_Allocate@K@std@@YAPAKIPAK@Z			; std::_Allocate<unsigned long>
; Function compile flags: /Odt /RTCsu
;	COMDAT ?allocate@?$allocator@K@std@@QAEPAKI@Z
_TEXT	SEGMENT
_this$ = -4						; size = 4
__Count$ = 8						; size = 4
?allocate@?$allocator@K@std@@QAEPAKI@Z PROC NEAR	; std::allocator<unsigned long>::allocate, COMDAT
; _this$ = ecx

; 136  : 		{	// allocate array of _Count elements

  00000	55		 push	 ebp
  00001	8b ec		 mov	 ebp, esp
  00003	51		 push	 ecx
  00004	c7 45 fc cc cc
	cc cc		 mov	 DWORD PTR [ebp-4], -858993460 ; ccccccccH
  0000b	89 4d fc	 mov	 DWORD PTR _this$[ebp], ecx

; 137  : 		return (_Allocate(_Count, (pointer)0));

  0000e	6a 00		 push	 0
  00010	8b 45 08	 mov	 eax, DWORD PTR __Count$[ebp]
  00013	50		 push	 eax
  00014	e8 00 00 00 00	 call	 ??$_Allocate@K@std@@YAPAKIPAK@Z ; std::_Allocate<unsigned long>
  00019	83 c4 08	 add	 esp, 8

; 138  : 		}

  0001c	83 c4 04	 add	 esp, 4
  0001f	3b ec		 cmp	 ebp, esp
  00021	e8 00 00 00 00	 call	 __RTC_CheckEsp
  00026	8b e5		 mov	 esp, ebp
  00028	5d		 pop	 ebp
  00029	c2 04 00	 ret	 4
?allocate@?$allocator@K@std@@QAEPAKI@Z ENDP		; std::allocator<unsigned long>::allocate
_TEXT	ENDS
PUBLIC	??0const_iterator@?$vector@KV?$allocator@K@std@@@std@@QAE@PAK@Z ; std::vector<unsigned long,std::allocator<unsigned long> >::const_iterator::const_iterator
; Function compile flags: /Odt /RTCsu
; File d:\program files (x86)\microsoft visual studio .net 2003\vc7\include\vector
;	COMDAT ??0iterator@?$vector@KV?$allocator@K@std@@@std@@QAE@PAK@Z
_TEXT	SEGMENT
_this$ = -4						; size = 4
__Ptr$ = 8						; size = 4
??0iterator@?$vector@KV?$allocator@K@std@@@std@@QAE@PAK@Z PROC NEAR ; std::vector<unsigned long,std::allocator<unsigned long> >::iterator::iterator, COMDAT
; _this$ = ecx

; 215  : 			{	// construct with pointer _Ptr

  00000	55		 push	 ebp
  00001	8b ec		 mov	 ebp, esp
  00003	51		 push	 ecx
  00004	c7 45 fc cc cc
	cc cc		 mov	 DWORD PTR [ebp-4], -858993460 ; ccccccccH
  0000b	89 4d fc	 mov	 DWORD PTR _this$[ebp], ecx
  0000e	8b 45 08	 mov	 eax, DWORD PTR __Ptr$[ebp]
  00011	50		 push	 eax
  00012	8b 4d fc	 mov	 ecx, DWORD PTR _this$[ebp]
  00015	e8 00 00 00 00	 call	 ??0const_iterator@?$vector@KV?$allocator@K@std@@@std@@QAE@PAK@Z ; std::vector<unsigned long,std::allocator<unsigned long> >::const_iterator::const_iterator

; 216  : 			}

  0001a	8b 45 fc	 mov	 eax, DWORD PTR _this$[ebp]
  0001d	83 c4 04	 add	 esp, 4
  00020	3b ec		 cmp	 ebp, esp
  00022	e8 00 00 00 00	 call	 __RTC_CheckEsp
  00027	8b e5		 mov	 esp, ebp
  00029	5d		 pop	 ebp
  0002a	c2 04 00	 ret	 4
??0iterator@?$vector@KV?$allocator@K@std@@@std@@QAE@PAK@Z ENDP ; std::vector<unsigned long,std::allocator<unsigned long> >::iterator::iterator
; Function compile flags: /Odt /RTCsu
_TEXT	ENDS
;	COMDAT ??Yiterator@?$vector@KV?$allocator@K@std@@@std@@QAEAAV012@H@Z
_TEXT	SEGMENT
_this$ = -4						; size = 4
__Off$ = 8						; size = 4
??Yiterator@?$vector@KV?$allocator@K@std@@@std@@QAEAAV012@H@Z PROC NEAR ; std::vector<unsigned long,std::allocator<unsigned long> >::iterator::operator+=, COMDAT
; _this$ = ecx

; 255  : 			{	// increment by integer

  00000	55		 push	 ebp
  00001	8b ec		 mov	 ebp, esp
  00003	51		 push	 ecx
  00004	c7 45 fc cc cc
	cc cc		 mov	 DWORD PTR [ebp-4], -858993460 ; ccccccccH
  0000b	89 4d fc	 mov	 DWORD PTR _this$[ebp], ecx

; 256  : 			this->_Myptr += _Off;

  0000e	8b 45 fc	 mov	 eax, DWORD PTR _this$[ebp]
  00011	8b 08		 mov	 ecx, DWORD PTR [eax]
  00013	8b 55 08	 mov	 edx, DWORD PTR __Off$[ebp]
  00016	8d 04 91	 lea	 eax, DWORD PTR [ecx+edx*4]
  00019	8b 4d fc	 mov	 ecx, DWORD PTR _this$[ebp]
  0001c	89 01		 mov	 DWORD PTR [ecx], eax

; 257  : 			return (*this);

  0001e	8b 45 fc	 mov	 eax, DWORD PTR _this$[ebp]

; 258  : 			}

  00021	8b e5		 mov	 esp, ebp
  00023	5d		 pop	 ebp
  00024	c2 04 00	 ret	 4
??Yiterator@?$vector@KV?$allocator@K@std@@@std@@QAEAAV012@H@Z ENDP ; std::vector<unsigned long,std::allocator<unsigned long> >::iterator::operator+=
_TEXT	ENDS
PUBLIC	??Gconst_iterator@?$vector@KV?$allocator@K@std@@@std@@QBEHABV012@@Z ; std::vector<unsigned long,std::allocator<unsigned long> >::const_iterator::operator-
; Function compile flags: /Odt /RTCsu
;	COMDAT ??Giterator@?$vector@KV?$allocator@K@std@@@std@@QBEHABVconst_iterator@12@@Z
_TEXT	SEGMENT
$T194800 = -8						; size = 4
_this$ = -4						; size = 4
__Right$ = 8						; size = 4
??Giterator@?$vector@KV?$allocator@K@std@@@std@@QBEHABVconst_iterator@12@@Z PROC NEAR ; std::vector<unsigned long,std::allocator<unsigned long> >::iterator::operator-, COMDAT
; _this$ = ecx

; 278  : 			{	// return difference of iterators

  00000	55		 push	 ebp
  00001	8b ec		 mov	 ebp, esp
  00003	83 ec 08	 sub	 esp, 8
  00006	c7 45 f8 cc cc
	cc cc		 mov	 DWORD PTR [ebp-8], -858993460 ; ccccccccH
  0000d	c7 45 fc cc cc
	cc cc		 mov	 DWORD PTR [ebp-4], -858993460 ; ccccccccH
  00014	89 4d fc	 mov	 DWORD PTR _this$[ebp], ecx

; 279  : 			return ((const_iterator)*this - _Right);

  00017	8b 45 fc	 mov	 eax, DWORD PTR _this$[ebp]
  0001a	8b 08		 mov	 ecx, DWORD PTR [eax]
  0001c	89 4d f8	 mov	 DWORD PTR $T194800[ebp], ecx
  0001f	8b 55 08	 mov	 edx, DWORD PTR __Right$[ebp]
  00022	52		 push	 edx
  00023	8d 4d f8	 lea	 ecx, DWORD PTR $T194800[ebp]
  00026	e8 00 00 00 00	 call	 ??Gconst_iterator@?$vector@KV?$allocator@K@std@@@std@@QBEHABV012@@Z ; std::vector<unsigned long,std::allocator<unsigned long> >::const_iterator::operator-

; 280  : 			}

  0002b	83 c4 08	 add	 esp, 8
  0002e	3b ec		 cmp	 ebp, esp
  00030	e8 00 00 00 00	 call	 __RTC_CheckEsp
  00035	8b e5		 mov	 esp, ebp
  00037	5d		 pop	 ebp
  00038	c2 04 00	 ret	 4
??Giterator@?$vector@KV?$allocator@K@std@@@std@@QBEHABVconst_iterator@12@@Z ENDP ; std::vector<unsigned long,std::allocator<unsigned long> >::iterator::operator-
; Function compile flags: /Odt /RTCsu
_TEXT	ENDS
;	COMDAT ??Dconst_iterator@?$vector@KV?$allocator@K@std@@@std@@QBEABKXZ
_TEXT	SEGMENT
_this$ = -4						; size = 4
??Dconst_iterator@?$vector@KV?$allocator@K@std@@@std@@QBEABKXZ PROC NEAR ; std::vector<unsigned long,std::allocator<unsigned long> >::const_iterator::operator*, COMDAT
; _this$ = ecx

; 79   : 			{	// return designated object

  00000	55		 push	 ebp
  00001	8b ec		 mov	 ebp, esp
  00003	51		 push	 ecx
  00004	c7 45 fc cc cc
	cc cc		 mov	 DWORD PTR [ebp-4], -858993460 ; ccccccccH
  0000b	89 4d fc	 mov	 DWORD PTR _this$[ebp], ecx

; 80   : 
; 81   : 
; 82   : 			return (*_Myptr);

  0000e	8b 45 fc	 mov	 eax, DWORD PTR _this$[ebp]
  00011	8b 00		 mov	 eax, DWORD PTR [eax]

; 83   : 			}

  00013	8b e5		 mov	 esp, ebp
  00015	5d		 pop	 ebp
  00016	c3		 ret	 0
??Dconst_iterator@?$vector@KV?$allocator@K@std@@@std@@QBEABKXZ ENDP ; std::vector<unsigned long,std::allocator<unsigned long> >::const_iterator::operator*
_TEXT	ENDS
PUBLIC	??_R1A@?0A@A@exception@@8			; exception::`RTTI Base Class Descriptor at (0,-1,0,0)'
PUBLIC	??_R1A@?0A@A@logic_error@std@@8			; std::logic_error::`RTTI Base Class Descriptor at (0,-1,0,0)'
PUBLIC	??_R4length_error@std@@6B@			; std::length_error::`RTTI Complete Object Locator'
PUBLIC	??_R3length_error@std@@8			; std::length_error::`RTTI Class Hierarchy Descriptor'
PUBLIC	??_R2length_error@std@@8			; std::length_error::`RTTI Base Class Array'
PUBLIC	??_R1A@?0A@A@length_error@std@@8		; std::length_error::`RTTI Base Class Descriptor at (0,-1,0,0)'
PUBLIC	?what@logic_error@std@@UBEPBDXZ			; std::logic_error::what
PUBLIC	??_7length_error@std@@6B@			; std::length_error::`vftable'
PUBLIC	??_Glength_error@std@@UAEPAXI@Z			; std::length_error::`scalar deleting destructor'
EXTRN	??_Elength_error@std@@UAEPAXI@Z:NEAR		; std::length_error::`vector deleting destructor'
;	COMDAT ??_7length_error@std@@6B@
CONST	SEGMENT
??_7length_error@std@@6B@ DD FLAT:??_R4length_error@std@@6B@ ; std::length_error::`vftable'
	DD	FLAT:??_Elength_error@std@@UAEPAXI@Z
	DD	FLAT:?what@logic_error@std@@UBEPBDXZ
CONST	ENDS
;	COMDAT ??_R4length_error@std@@6B@
rdata$r	SEGMENT
??_R4length_error@std@@6B@ DD 00H			; std::length_error::`RTTI Complete Object Locator'
	DD	00H
	DD	00H
	DD	FLAT:??_R0?AVlength_error@std@@@8
	DD	FLAT:??_R3length_error@std@@8
rdata$r	ENDS
;	COMDAT ??_R3length_error@std@@8
rdata$r	SEGMENT
??_R3length_error@std@@8 DD 00H				; std::length_error::`RTTI Class Hierarchy Descriptor'
	DD	00H
	DD	03H
	DD	FLAT:??_R2length_error@std@@8
rdata$r	ENDS
;	COMDAT ??_R2length_error@std@@8
rdata$r	SEGMENT
??_R2length_error@std@@8 DD FLAT:??_R1A@?0A@A@length_error@std@@8 ; std::length_error::`RTTI Base Class Array'
	DD	FLAT:??_R1A@?0A@A@logic_error@std@@8
	DD	FLAT:??_R1A@?0A@A@exception@@8
rdata$r	ENDS
;	COMDAT ??_R1A@?0A@A@length_error@std@@8
rdata$r	SEGMENT
??_R1A@?0A@A@length_error@std@@8 DD FLAT:??_R0?AVlength_error@std@@@8 ; std::length_error::`RTTI Base Class Descriptor at (0,-1,0,0)'
	DD	02H
	DD	00H
	DD	0ffffffffH
	DD	00H
	DD	00H
rdata$r	ENDS
;	COMDAT ??_R1A@?0A@A@logic_error@std@@8
rdata$r	SEGMENT
??_R1A@?0A@A@logic_error@std@@8 DD FLAT:??_R0?AVlogic_error@std@@@8 ; std::logic_error::`RTTI Base Class Descriptor at (0,-1,0,0)'
	DD	01H
	DD	00H
	DD	0ffffffffH
	DD	00H
	DD	00H
rdata$r	ENDS
;	COMDAT ??_R1A@?0A@A@exception@@8
rdata$r	SEGMENT
??_R1A@?0A@A@exception@@8 DD FLAT:??_R0?AVexception@@@8	; exception::`RTTI Base Class Descriptor at (0,-1,0,0)'
	DD	00H
	DD	00H
	DD	0ffffffffH
	DD	00H
	DD	00H
; Function compile flags: /Odt /RTCsu
rdata$r	ENDS
;	COMDAT ??0length_error@std@@QAE@ABV01@@Z
_TEXT	SEGMENT
_this$ = -4						; size = 4
___that$ = 8						; size = 4
??0length_error@std@@QAE@ABV01@@Z PROC NEAR		; std::length_error::length_error, COMDAT
; _this$ = ecx
  00000	55		 push	 ebp
  00001	8b ec		 mov	 ebp, esp
  00003	51		 push	 ecx
  00004	c7 45 fc cc cc
	cc cc		 mov	 DWORD PTR [ebp-4], -858993460 ; ccccccccH
  0000b	89 4d fc	 mov	 DWORD PTR _this$[ebp], ecx
  0000e	8b 45 08	 mov	 eax, DWORD PTR ___that$[ebp]
  00011	50		 push	 eax
  00012	8b 4d fc	 mov	 ecx, DWORD PTR _this$[ebp]
  00015	e8 00 00 00 00	 call	 ??0logic_error@std@@QAE@ABV01@@Z
  0001a	8b 4d fc	 mov	 ecx, DWORD PTR _this$[ebp]
  0001d	c7 01 00 00 00
	00		 mov	 DWORD PTR [ecx], OFFSET FLAT:??_7length_error@std@@6B@
  00023	8b 45 fc	 mov	 eax, DWORD PTR _this$[ebp]
  00026	83 c4 04	 add	 esp, 4
  00029	3b ec		 cmp	 ebp, esp
  0002b	e8 00 00 00 00	 call	 __RTC_CheckEsp
  00030	8b e5		 mov	 esp, ebp
  00032	5d		 pop	 ebp
  00033	c2 04 00	 ret	 4
??0length_error@std@@QAE@ABV01@@Z ENDP			; std::length_error::length_error
; Function compile flags: /Odt /RTCsu
; File d:\program files (x86)\microsoft visual studio .net 2003\vc7\include\xmemory
_TEXT	ENDS
;	COMDAT ?max_size@?$allocator@PAVCSkinButton2@@@std@@QBEIXZ
_TEXT	SEGMENT
tv65 = -12						; size = 4
__Count$ = -8						; size = 4
_this$ = -4						; size = 4
?max_size@?$allocator@PAVCSkinButton2@@@std@@QBEIXZ PROC NEAR ; std::allocator<CSkinButton2 *>::max_size, COMDAT
; _this$ = ecx

; 156  : 		{	// estimate maximum array size

  00000	55		 push	 ebp
  00001	8b ec		 mov	 ebp, esp
  00003	83 ec 0c	 sub	 esp, 12			; 0000000cH
  00006	c7 45 f4 cc cc
	cc cc		 mov	 DWORD PTR [ebp-12], -858993460 ; ccccccccH
  0000d	c7 45 f8 cc cc
	cc cc		 mov	 DWORD PTR [ebp-8], -858993460 ; ccccccccH
  00014	c7 45 fc cc cc
	cc cc		 mov	 DWORD PTR [ebp-4], -858993460 ; ccccccccH
  0001b	89 4d fc	 mov	 DWORD PTR _this$[ebp], ecx

; 157  : 		_SIZT _Count = (_SIZT)(-1) / sizeof (_Ty);

  0001e	c7 45 f8 ff ff
	ff 3f		 mov	 DWORD PTR __Count$[ebp], 1073741823 ; 3fffffffH

; 158  : 		return (0 < _Count ? _Count : 1);

  00025	83 7d f8 00	 cmp	 DWORD PTR __Count$[ebp], 0
  00029	76 08		 jbe	 SHORT $L194805
  0002b	8b 45 f8	 mov	 eax, DWORD PTR __Count$[ebp]
  0002e	89 45 f4	 mov	 DWORD PTR tv65[ebp], eax
  00031	eb 07		 jmp	 SHORT $L194806
$L194805:
  00033	c7 45 f4 01 00
	00 00		 mov	 DWORD PTR tv65[ebp], 1
$L194806:
  0003a	8b 45 f4	 mov	 eax, DWORD PTR tv65[ebp]

; 159  : 		}

  0003d	8b e5		 mov	 esp, ebp
  0003f	5d		 pop	 ebp
  00040	c3		 ret	 0
?max_size@?$allocator@PAVCSkinButton2@@@std@@QBEIXZ ENDP ; std::allocator<CSkinButton2 *>::max_size
; Function compile flags: /Odt /RTCsu
; File d:\program files (x86)\microsoft visual studio .net 2003\vc7\include\vector
_TEXT	ENDS
;	COMDAT ??Gconst_iterator@?$vector@PAVCSkinButton2@@V?$allocator@PAVCSkinButton2@@@std@@@std@@QBEHABV012@@Z
_TEXT	SEGMENT
_this$ = -4						; size = 4
__Right$ = 8						; size = 4
??Gconst_iterator@?$vector@PAVCSkinButton2@@V?$allocator@PAVCSkinButton2@@@std@@@std@@QBEHABV012@@Z PROC NEAR ; std::vector<CSkinButton2 *,std::allocator<CSkinButton2 *> >::const_iterator::operator-, COMDAT
; _this$ = ecx

; 140  : 			{	// return difference of iterators

  00000	55		 push	 ebp
  00001	8b ec		 mov	 ebp, esp
  00003	51		 push	 ecx
  00004	c7 45 fc cc cc
	cc cc		 mov	 DWORD PTR [ebp-4], -858993460 ; ccccccccH
  0000b	89 4d fc	 mov	 DWORD PTR _this$[ebp], ecx

; 141  : 
; 142  : 
; 143  : 			return (_Myptr - _Right._Myptr);

  0000e	8b 45 fc	 mov	 eax, DWORD PTR _this$[ebp]
  00011	8b 4d 08	 mov	 ecx, DWORD PTR __Right$[ebp]
  00014	8b 00		 mov	 eax, DWORD PTR [eax]
  00016	2b 01		 sub	 eax, DWORD PTR [ecx]
  00018	c1 f8 02	 sar	 eax, 2

; 144  : 			}

  0001b	8b e5		 mov	 esp, ebp
  0001d	5d		 pop	 ebp
  0001e	c2 04 00	 ret	 4
??Gconst_iterator@?$vector@PAVCSkinButton2@@V?$allocator@PAVCSkinButton2@@@std@@@std@@QBEHABV012@@Z ENDP ; std::vector<CSkinButton2 *,std::allocator<CSkinButton2 *> >::const_iterator::operator-
; Function compile flags: /Odt /RTCsu
; File d:\program files (x86)\microsoft visual studio .net 2003\vc7\include\xmemory
_TEXT	ENDS
;	COMDAT ?max_size@?$allocator@K@std@@QBEIXZ
_TEXT	SEGMENT
tv65 = -12						; size = 4
__Count$ = -8						; size = 4
_this$ = -4						; size = 4
?max_size@?$allocator@K@std@@QBEIXZ PROC NEAR		; std::allocator<unsigned long>::max_size, COMDAT
; _this$ = ecx

; 156  : 		{	// estimate maximum array size

  00000	55		 push	 ebp
  00001	8b ec		 mov	 ebp, esp
  00003	83 ec 0c	 sub	 esp, 12			; 0000000cH
  00006	c7 45 f4 cc cc
	cc cc		 mov	 DWORD PTR [ebp-12], -858993460 ; ccccccccH
  0000d	c7 45 f8 cc cc
	cc cc		 mov	 DWORD PTR [ebp-8], -858993460 ; ccccccccH
  00014	c7 45 fc cc cc
	cc cc		 mov	 DWORD PTR [ebp-4], -858993460 ; ccccccccH
  0001b	89 4d fc	 mov	 DWORD PTR _this$[ebp], ecx

; 157  : 		_SIZT _Count = (_SIZT)(-1) / sizeof (_Ty);

  0001e	c7 45 f8 ff ff
	ff 3f		 mov	 DWORD PTR __Count$[ebp], 1073741823 ; 3fffffffH

; 158  : 		return (0 < _Count ? _Count : 1);

  00025	83 7d f8 00	 cmp	 DWORD PTR __Count$[ebp], 0
  00029	76 08		 jbe	 SHORT $L194809
  0002b	8b 45 f8	 mov	 eax, DWORD PTR __Count$[ebp]
  0002e	89 45 f4	 mov	 DWORD PTR tv65[ebp], eax
  00031	eb 07		 jmp	 SHORT $L194810
$L194809:
  00033	c7 45 f4 01 00
	00 00		 mov	 DWORD PTR tv65[ebp], 1
$L194810:
  0003a	8b 45 f4	 mov	 eax, DWORD PTR tv65[ebp]

; 159  : 		}

  0003d	8b e5		 mov	 esp, ebp
  0003f	5d		 pop	 ebp
  00040	c3		 ret	 0
?max_size@?$allocator@K@std@@QBEIXZ ENDP		; std::allocator<unsigned long>::max_size
; Function compile flags: /Odt /RTCsu
; File d:\program files (x86)\microsoft visual studio .net 2003\vc7\include\vector
_TEXT	ENDS
;	COMDAT ??0const_iterator@?$vector@KV?$allocator@K@std@@@std@@QAE@PAK@Z
_TEXT	SEGMENT
_this$ = -4						; size = 4
__Ptr$ = 8						; size = 4
??0const_iterator@?$vector@KV?$allocator@K@std@@@std@@QAE@PAK@Z PROC NEAR ; std::vector<unsigned long,std::allocator<unsigned long> >::const_iterator::const_iterator, COMDAT
; _this$ = ecx

; 73   : 		const_iterator(_Tptr _Ptr)

  00000	55		 push	 ebp
  00001	8b ec		 mov	 ebp, esp
  00003	51		 push	 ecx
  00004	c7 45 fc cc cc
	cc cc		 mov	 DWORD PTR [ebp-4], -858993460 ; ccccccccH
  0000b	89 4d fc	 mov	 DWORD PTR _this$[ebp], ecx

; 74   : 			{	// construct with pointer _Ptr
; 75   : 			_Myptr = _Ptr;

  0000e	8b 45 fc	 mov	 eax, DWORD PTR _this$[ebp]
  00011	8b 4d 08	 mov	 ecx, DWORD PTR __Ptr$[ebp]
  00014	89 08		 mov	 DWORD PTR [eax], ecx

; 76   : 			}

  00016	8b 45 fc	 mov	 eax, DWORD PTR _this$[ebp]
  00019	8b e5		 mov	 esp, ebp
  0001b	5d		 pop	 ebp
  0001c	c2 04 00	 ret	 4
??0const_iterator@?$vector@KV?$allocator@K@std@@@std@@QAE@PAK@Z ENDP ; std::vector<unsigned long,std::allocator<unsigned long> >::const_iterator::const_iterator
; Function compile flags: /Odt /RTCsu
_TEXT	ENDS
;	COMDAT ??Gconst_iterator@?$vector@KV?$allocator@K@std@@@std@@QBEHABV012@@Z
_TEXT	SEGMENT
_this$ = -4						; size = 4
__Right$ = 8						; size = 4
??Gconst_iterator@?$vector@KV?$allocator@K@std@@@std@@QBEHABV012@@Z PROC NEAR ; std::vector<unsigned long,std::allocator<unsigned long> >::const_iterator::operator-, COMDAT
; _this$ = ecx

; 140  : 			{	// return difference of iterators

  00000	55		 push	 ebp
  00001	8b ec		 mov	 ebp, esp
  00003	51		 push	 ecx
  00004	c7 45 fc cc cc
	cc cc		 mov	 DWORD PTR [ebp-4], -858993460 ; ccccccccH
  0000b	89 4d fc	 mov	 DWORD PTR _this$[ebp], ecx

; 141  : 
; 142  : 
; 143  : 			return (_Myptr - _Right._Myptr);

  0000e	8b 45 fc	 mov	 eax, DWORD PTR _this$[ebp]
  00011	8b 4d 08	 mov	 ecx, DWORD PTR __Right$[ebp]
  00014	8b 00		 mov	 eax, DWORD PTR [eax]
  00016	2b 01		 sub	 eax, DWORD PTR [ecx]
  00018	c1 f8 02	 sar	 eax, 2

; 144  : 			}

  0001b	8b e5		 mov	 esp, ebp
  0001d	5d		 pop	 ebp
  0001e	c2 04 00	 ret	 4
??Gconst_iterator@?$vector@KV?$allocator@K@std@@@std@@QBEHABV012@@Z ENDP ; std::vector<unsigned long,std::allocator<unsigned long> >::const_iterator::operator-
_TEXT	ENDS
PUBLIC	??$_Ptr_cat@VCSkinButton2@@@std@@YA?AU_Scalar_ptr_iterator_tag@0@PAPAVCSkinButton2@@0@Z ; std::_Ptr_cat<CSkinButton2>
PUBLIC	??$_Uninit_fill_n@PAVCSkinButton2@@IPAV1@@std@@YAXPAPAVCSkinButton2@@IABQAV1@AAV?$allocator@PAVCSkinButton2@@@0@U_Scalar_ptr_iterator_tag@0@@Z ; std::_Uninit_fill_n<CSkinButton2 *,unsigned int,CSkinButton2 *>
; Function compile flags: /Odt /RTCsu
; File d:\program files (x86)\microsoft visual studio .net 2003\vc7\include\memory
;	COMDAT ??$_Uninitialized_fill_n@PAPAVCSkinButton2@@IPAV1@V?$allocator@PAVCSkinButton2@@@std@@@std@@YAXPAPAVCSkinButton2@@IABQAV1@AAV?$allocator@PAVCSkinButton2@@@0@@Z
_TEXT	SEGMENT
$T194814 = -1						; size = 1
__First$ = 8						; size = 4
__Count$ = 12						; size = 4
__Val$ = 16						; size = 4
__Al$ = 20						; size = 4
??$_Uninitialized_fill_n@PAPAVCSkinButton2@@IPAV1@V?$allocator@PAVCSkinButton2@@@std@@@std@@YAXPAPAVCSkinButton2@@IABQAV1@AAV?$allocator@PAVCSkinButton2@@@0@@Z PROC NEAR ; std::_Uninitialized_fill_n<CSkinButton2 * *,unsigned int,CSkinButton2 *,std::allocator<CSkinButton2 *> >, COMDAT

; 255  : 	{	// copy _Count *_Val to raw _First, using _Al

  00000	55		 push	 ebp
  00001	8b ec		 mov	 ebp, esp
  00003	51		 push	 ecx
  00004	c7 45 fc cc cc
	cc cc		 mov	 DWORD PTR [ebp-4], -858993460 ; ccccccccH

; 256  : 	_Uninit_fill_n(_First, _Count, _Val, _Al,
; 257  : 		_Ptr_cat(_First, _First));

  0000b	8b 45 08	 mov	 eax, DWORD PTR __First$[ebp]
  0000e	50		 push	 eax
  0000f	8b 4d 08	 mov	 ecx, DWORD PTR __First$[ebp]
  00012	51		 push	 ecx
  00013	e8 00 00 00 00	 call	 ??$_Ptr_cat@VCSkinButton2@@@std@@YA?AU_Scalar_ptr_iterator_tag@0@PAPAVCSkinButton2@@0@Z ; std::_Ptr_cat<CSkinButton2>
  00018	83 c4 08	 add	 esp, 8
  0001b	88 45 ff	 mov	 BYTE PTR $T194814[ebp], al
  0001e	8a 55 ff	 mov	 dl, BYTE PTR $T194814[ebp]
  00021	52		 push	 edx
  00022	8b 45 14	 mov	 eax, DWORD PTR __Al$[ebp]
  00025	50		 push	 eax
  00026	8b 4d 10	 mov	 ecx, DWORD PTR __Val$[ebp]
  00029	51		 push	 ecx
  0002a	8b 55 0c	 mov	 edx, DWORD PTR __Count$[ebp]
  0002d	52		 push	 edx
  0002e	8b 45 08	 mov	 eax, DWORD PTR __First$[ebp]
  00031	50		 push	 eax
  00032	e8 00 00 00 00	 call	 ??$_Uninit_fill_n@PAVCSkinButton2@@IPAV1@@std@@YAXPAPAVCSkinButton2@@IABQAV1@AAV?$allocator@PAVCSkinButton2@@@0@U_Scalar_ptr_iterator_tag@0@@Z ; std::_Uninit_fill_n<CSkinButton2 *,unsigned int,CSkinButton2 *>
  00037	83 c4 14	 add	 esp, 20			; 00000014H

; 258  : 	}

  0003a	83 c4 04	 add	 esp, 4
  0003d	3b ec		 cmp	 ebp, esp
  0003f	e8 00 00 00 00	 call	 __RTC_CheckEsp
  00044	8b e5		 mov	 esp, ebp
  00046	5d		 pop	 ebp
  00047	c3		 ret	 0
??$_Uninitialized_fill_n@PAPAVCSkinButton2@@IPAV1@V?$allocator@PAVCSkinButton2@@@std@@@std@@YAXPAPAVCSkinButton2@@IABQAV1@AAV?$allocator@PAVCSkinButton2@@@0@@Z ENDP ; std::_Uninitialized_fill_n<CSkinButton2 * *,unsigned int,CSkinButton2 *,std::allocator<CSkinButton2 *> >
_TEXT	ENDS
PUBLIC	?_Ptr_cat@std@@YA?AU_Scalar_ptr_iterator_tag@1@PAK0@Z ; std::_Ptr_cat
PUBLIC	??$_Uninit_fill_n@KIK@std@@YAXPAKIABKAAV?$allocator@K@0@U_Scalar_ptr_iterator_tag@0@@Z ; std::_Uninit_fill_n<unsigned long,unsigned int,unsigned long>
; Function compile flags: /Odt /RTCsu
;	COMDAT ??$_Uninitialized_fill_n@PAKIKV?$allocator@K@std@@@std@@YAXPAKIABKAAV?$allocator@K@0@@Z
_TEXT	SEGMENT
$T194816 = -1						; size = 1
__First$ = 8						; size = 4
__Count$ = 12						; size = 4
__Val$ = 16						; size = 4
__Al$ = 20						; size = 4
??$_Uninitialized_fill_n@PAKIKV?$allocator@K@std@@@std@@YAXPAKIABKAAV?$allocator@K@0@@Z PROC NEAR ; std::_Uninitialized_fill_n<unsigned long *,unsigned int,unsigned long,std::allocator<unsigned long> >, COMDAT

; 255  : 	{	// copy _Count *_Val to raw _First, using _Al

  00000	55		 push	 ebp
  00001	8b ec		 mov	 ebp, esp
  00003	51		 push	 ecx
  00004	c7 45 fc cc cc
	cc cc		 mov	 DWORD PTR [ebp-4], -858993460 ; ccccccccH

; 256  : 	_Uninit_fill_n(_First, _Count, _Val, _Al,
; 257  : 		_Ptr_cat(_First, _First));

  0000b	8b 45 08	 mov	 eax, DWORD PTR __First$[ebp]
  0000e	50		 push	 eax
  0000f	8b 4d 08	 mov	 ecx, DWORD PTR __First$[ebp]
  00012	51		 push	 ecx
  00013	e8 00 00 00 00	 call	 ?_Ptr_cat@std@@YA?AU_Scalar_ptr_iterator_tag@1@PAK0@Z ; std::_Ptr_cat
  00018	83 c4 08	 add	 esp, 8
  0001b	88 45 ff	 mov	 BYTE PTR $T194816[ebp], al
  0001e	8a 55 ff	 mov	 dl, BYTE PTR $T194816[ebp]
  00021	52		 push	 edx
  00022	8b 45 14	 mov	 eax, DWORD PTR __Al$[ebp]
  00025	50		 push	 eax
  00026	8b 4d 10	 mov	 ecx, DWORD PTR __Val$[ebp]
  00029	51		 push	 ecx
  0002a	8b 55 0c	 mov	 edx, DWORD PTR __Count$[ebp]
  0002d	52		 push	 edx
  0002e	8b 45 08	 mov	 eax, DWORD PTR __First$[ebp]
  00031	50		 push	 eax
  00032	e8 00 00 00 00	 call	 ??$_Uninit_fill_n@KIK@std@@YAXPAKIABKAAV?$allocator@K@0@U_Scalar_ptr_iterator_tag@0@@Z ; std::_Uninit_fill_n<unsigned long,unsigned int,unsigned long>
  00037	83 c4 14	 add	 esp, 20			; 00000014H

; 258  : 	}

  0003a	83 c4 04	 add	 esp, 4
  0003d	3b ec		 cmp	 ebp, esp
  0003f	e8 00 00 00 00	 call	 __RTC_CheckEsp
  00044	8b e5		 mov	 esp, ebp
  00046	5d		 pop	 ebp
  00047	c3		 ret	 0
??$_Uninitialized_fill_n@PAKIKV?$allocator@K@std@@@std@@YAXPAKIABKAAV?$allocator@K@0@@Z ENDP ; std::_Uninitialized_fill_n<unsigned long *,unsigned int,unsigned long,std::allocator<unsigned long> >
_TEXT	ENDS
PUBLIC	??_C@_0FI@KKCCAGJG@D?3?2Program?5Files?5?$CIx86?$CJ?2Microsoft@ ; `string'
EXTRN	__imp__IsWindow@4:NEAR
EXTRN	__imp__SetLayeredWindowAttributes@16:NEAR
EXTRN	?AfxAssertFailedLine@@YGHPBDH@Z:NEAR		; AfxAssertFailedLine
;	COMDAT ??_C@_0FI@KKCCAGJG@D?3?2Program?5Files?5?$CIx86?$CJ?2Microsoft@
; File d:\program files (x86)\microsoft visual studio .net 2003\vc7\atlmfc\include\afxwin4.inl
CONST	SEGMENT
??_C@_0FI@KKCCAGJG@D?3?2Program?5Files?5?$CIx86?$CJ?2Microsoft@ DB 'D:\Pr'
	DB	'ogram Files (x86)\Microsoft Visual Studio .NET 2003\Vc7\atlmf'
	DB	'c\include\afxwin4.inl', 00H			; `string'
; Function compile flags: /Odt /RTCsu
CONST	ENDS
;	COMDAT ?SetLayeredWindowAttributes@CWnd@@QAEHKEK@Z
_TEXT	SEGMENT
_this$ = -4						; size = 4
_crKey$ = 8						; size = 4
_bAlpha$ = 12						; size = 1
_dwFlags$ = 16						; size = 4
?SetLayeredWindowAttributes@CWnd@@QAEHKEK@Z PROC NEAR	; CWnd::SetLayeredWindowAttributes, COMDAT
; _this$ = ecx

; 119  : {

  00000	55		 push	 ebp
  00001	8b ec		 mov	 ebp, esp
  00003	51		 push	 ecx
  00004	56		 push	 esi
  00005	c7 45 fc cc cc
	cc cc		 mov	 DWORD PTR [ebp-4], -858993460 ; ccccccccH
  0000c	89 4d fc	 mov	 DWORD PTR _this$[ebp], ecx

; 120  : 	ASSERT(::IsWindow(m_hWnd)); 

  0000f	8b f4		 mov	 esi, esp
  00011	8b 45 fc	 mov	 eax, DWORD PTR _this$[ebp]
  00014	8b 48 20	 mov	 ecx, DWORD PTR [eax+32]
  00017	51		 push	 ecx
  00018	ff 15 00 00 00
	00		 call	 DWORD PTR __imp__IsWindow@4
  0001e	3b f4		 cmp	 esi, esp
  00020	e8 00 00 00 00	 call	 __RTC_CheckEsp
  00025	85 c0		 test	 eax, eax
  00027	75 11		 jne	 SHORT $L194818
  00029	6a 78		 push	 120			; 00000078H
  0002b	68 00 00 00 00	 push	 OFFSET FLAT:??_C@_0FI@KKCCAGJG@D?3?2Program?5Files?5?$CIx86?$CJ?2Microsoft@
  00030	e8 00 00 00 00	 call	 ?AfxAssertFailedLine@@YGHPBDH@Z ; AfxAssertFailedLine
  00035	85 c0		 test	 eax, eax
  00037	74 01		 je	 SHORT $L194818
  00039	cc		 int	 3
$L194818:

; 121  : 	return ::SetLayeredWindowAttributes(m_hWnd, crKey, bAlpha, dwFlags);

  0003a	8b f4		 mov	 esi, esp
  0003c	8b 45 10	 mov	 eax, DWORD PTR _dwFlags$[ebp]
  0003f	50		 push	 eax
  00040	8a 4d 0c	 mov	 cl, BYTE PTR _bAlpha$[ebp]
  00043	51		 push	 ecx
  00044	8b 55 08	 mov	 edx, DWORD PTR _crKey$[ebp]
  00047	52		 push	 edx
  00048	8b 45 fc	 mov	 eax, DWORD PTR _this$[ebp]
  0004b	8b 48 20	 mov	 ecx, DWORD PTR [eax+32]
  0004e	51		 push	 ecx
  0004f	ff 15 00 00 00
	00		 call	 DWORD PTR __imp__SetLayeredWindowAttributes@16
  00055	3b f4		 cmp	 esi, esp
  00057	e8 00 00 00 00	 call	 __RTC_CheckEsp

; 122  : }

  0005c	5e		 pop	 esi
  0005d	83 c4 04	 add	 esp, 4
  00060	3b ec		 cmp	 ebp, esp
  00062	e8 00 00 00 00	 call	 __RTC_CheckEsp
  00067	8b e5		 mov	 esp, ebp
  00069	5d		 pop	 ebp
  0006a	c2 0c 00	 ret	 12			; 0000000cH
?SetLayeredWindowAttributes@CWnd@@QAEHKEK@Z ENDP	; CWnd::SetLayeredWindowAttributes
_TEXT	ENDS
PUBLIC	??$_Destroy_range@PAVCSkinButton2@@V?$allocator@PAVCSkinButton2@@@std@@@std@@YAXPAPAVCSkinButton2@@0AAV?$allocator@PAVCSkinButton2@@@0@U_Scalar_ptr_iterator_tag@0@@Z ; std::_Destroy_range<CSkinButton2 *,std::allocator<CSkinButton2 *> >
; Function compile flags: /Odt /RTCsu
; File d:\program files (x86)\microsoft visual studio .net 2003\vc7\include\xmemory
;	COMDAT ??$_Destroy_range@PAVCSkinButton2@@V?$allocator@PAVCSkinButton2@@@std@@@std@@YAXPAPAVCSkinButton2@@0AAV?$allocator@PAVCSkinButton2@@@0@@Z
_TEXT	SEGMENT
$T194820 = -1						; size = 1
__First$ = 8						; size = 4
__Last$ = 12						; size = 4
__Al$ = 16						; size = 4
??$_Destroy_range@PAVCSkinButton2@@V?$allocator@PAVCSkinButton2@@@std@@@std@@YAXPAPAVCSkinButton2@@0AAV?$allocator@PAVCSkinButton2@@@0@@Z PROC NEAR ; std::_Destroy_range<CSkinButton2 *,std::allocator<CSkinButton2 *> >, COMDAT

; 216  : 	{	// destroy [_First, _Last)

  00000	55		 push	 ebp
  00001	8b ec		 mov	 ebp, esp
  00003	51		 push	 ecx
  00004	c7 45 fc cc cc
	cc cc		 mov	 DWORD PTR [ebp-4], -858993460 ; ccccccccH

; 217  : 	_Destroy_range(_First, _Last, _Al, _Ptr_cat(_First, _Last));

  0000b	8b 45 0c	 mov	 eax, DWORD PTR __Last$[ebp]
  0000e	50		 push	 eax
  0000f	8b 4d 08	 mov	 ecx, DWORD PTR __First$[ebp]
  00012	51		 push	 ecx
  00013	e8 00 00 00 00	 call	 ??$_Ptr_cat@VCSkinButton2@@@std@@YA?AU_Scalar_ptr_iterator_tag@0@PAPAVCSkinButton2@@0@Z ; std::_Ptr_cat<CSkinButton2>
  00018	83 c4 08	 add	 esp, 8
  0001b	88 45 ff	 mov	 BYTE PTR $T194820[ebp], al
  0001e	8a 55 ff	 mov	 dl, BYTE PTR $T194820[ebp]
  00021	52		 push	 edx
  00022	8b 45 10	 mov	 eax, DWORD PTR __Al$[ebp]
  00025	50		 push	 eax
  00026	8b 4d 0c	 mov	 ecx, DWORD PTR __Last$[ebp]
  00029	51		 push	 ecx
  0002a	8b 55 08	 mov	 edx, DWORD PTR __First$[ebp]
  0002d	52		 push	 edx
  0002e	e8 00 00 00 00	 call	 ??$_Destroy_range@PAVCSkinButton2@@V?$allocator@PAVCSkinButton2@@@std@@@std@@YAXPAPAVCSkinButton2@@0AAV?$allocator@PAVCSkinButton2@@@0@U_Scalar_ptr_iterator_tag@0@@Z ; std::_Destroy_range<CSkinButton2 *,std::allocator<CSkinButton2 *> >
  00033	83 c4 10	 add	 esp, 16			; 00000010H

; 218  : 	}

  00036	83 c4 04	 add	 esp, 4
  00039	3b ec		 cmp	 ebp, esp
  0003b	e8 00 00 00 00	 call	 __RTC_CheckEsp
  00040	8b e5		 mov	 esp, ebp
  00042	5d		 pop	 ebp
  00043	c3		 ret	 0
??$_Destroy_range@PAVCSkinButton2@@V?$allocator@PAVCSkinButton2@@@std@@@std@@YAXPAPAVCSkinButton2@@0AAV?$allocator@PAVCSkinButton2@@@0@@Z ENDP ; std::_Destroy_range<CSkinButton2 *,std::allocator<CSkinButton2 *> >
_TEXT	ENDS
PUBLIC	??$_Uninitialized_copy@PAPAVCSkinButton2@@PAPAV1@V?$allocator@PAVCSkinButton2@@@std@@@std@@YAPAPAVCSkinButton2@@PAPAV1@00AAV?$allocator@PAVCSkinButton2@@@0@@Z ; std::_Uninitialized_copy<CSkinButton2 * *,CSkinButton2 * *,std::allocator<CSkinButton2 *> >
; Function compile flags: /Odt /RTCsu
; File d:\program files (x86)\microsoft visual studio .net 2003\vc7\include\vector
;	COMDAT ??$_Ucopy@PAPAVCSkinButton2@@@?$vector@PAVCSkinButton2@@V?$allocator@PAVCSkinButton2@@@std@@@std@@IAEPAPAVCSkinButton2@@PAPAV2@00@Z
_TEXT	SEGMENT
_this$ = -4						; size = 4
__First$ = 8						; size = 4
__Last$ = 12						; size = 4
__Ptr$ = 16						; size = 4
??$_Ucopy@PAPAVCSkinButton2@@@?$vector@PAVCSkinButton2@@V?$allocator@PAVCSkinButton2@@@std@@@std@@IAEPAPAVCSkinButton2@@PAPAV2@00@Z PROC NEAR ; std::vector<CSkinButton2 *,std::allocator<CSkinButton2 *> >::_Ucopy<CSkinButton2 * *>, COMDAT
; _this$ = ecx

; 801  : 		pointer _Ucopy(_Iter _First, _Iter _Last, pointer _Ptr)

  00000	55		 push	 ebp
  00001	8b ec		 mov	 ebp, esp
  00003	51		 push	 ecx
  00004	c7 45 fc cc cc
	cc cc		 mov	 DWORD PTR [ebp-4], -858993460 ; ccccccccH
  0000b	89 4d fc	 mov	 DWORD PTR _this$[ebp], ecx

; 802  : 		{	// copy initializing [_First, _Last), using allocator
; 803  : 		return (_Uninitialized_copy(_First, _Last,
; 804  : 			_Ptr, this->_Alval));

  0000e	8b 45 fc	 mov	 eax, DWORD PTR _this$[ebp]
  00011	50		 push	 eax
  00012	8b 4d 10	 mov	 ecx, DWORD PTR __Ptr$[ebp]
  00015	51		 push	 ecx
  00016	8b 55 0c	 mov	 edx, DWORD PTR __Last$[ebp]
  00019	52		 push	 edx
  0001a	8b 45 08	 mov	 eax, DWORD PTR __First$[ebp]
  0001d	50		 push	 eax
  0001e	e8 00 00 00 00	 call	 ??$_Uninitialized_copy@PAPAVCSkinButton2@@PAPAV1@V?$allocator@PAVCSkinButton2@@@std@@@std@@YAPAPAVCSkinButton2@@PAPAV1@00AAV?$allocator@PAVCSkinButton2@@@0@@Z ; std::_Uninitialized_copy<CSkinButton2 * *,CSkinButton2 * *,std::allocator<CSkinButton2 *> >
  00023	83 c4 10	 add	 esp, 16			; 00000010H

; 805  : 		}

  00026	83 c4 04	 add	 esp, 4
  00029	3b ec		 cmp	 ebp, esp
  0002b	e8 00 00 00 00	 call	 __RTC_CheckEsp
  00030	8b e5		 mov	 esp, ebp
  00032	5d		 pop	 ebp
  00033	c2 0c 00	 ret	 12			; 0000000cH
??$_Ucopy@PAPAVCSkinButton2@@@?$vector@PAVCSkinButton2@@V?$allocator@PAVCSkinButton2@@@std@@@std@@IAEPAPAVCSkinButton2@@PAPAV2@00@Z ENDP ; std::vector<CSkinButton2 *,std::allocator<CSkinButton2 *> >::_Ucopy<CSkinButton2 * *>
; Function compile flags: /Odt /RTCsu
; File d:\program files (x86)\microsoft visual studio .net 2003\vc7\include\xutility
_TEXT	ENDS
;	COMDAT ??$fill@PAPAVCSkinButton2@@PAV1@@std@@YAXPAPAVCSkinButton2@@0ABQAV1@@Z
_TEXT	SEGMENT
__First$ = 8						; size = 4
__Last$ = 12						; size = 4
__Val$ = 16						; size = 4
??$fill@PAPAVCSkinButton2@@PAV1@@std@@YAXPAPAVCSkinButton2@@0ABQAV1@@Z PROC NEAR ; std::fill<CSkinButton2 * *,CSkinButton2 *>, COMDAT

; 1134 : 	{	// copy _Val through [_First, _Last)

  00000	55		 push	 ebp
  00001	8b ec		 mov	 ebp, esp

; 1135 : 	for (; _First != _Last; ++_First)

  00003	eb 09		 jmp	 SHORT $L193418
$L193419:
  00005	8b 45 08	 mov	 eax, DWORD PTR __First$[ebp]
  00008	83 c0 04	 add	 eax, 4
  0000b	89 45 08	 mov	 DWORD PTR __First$[ebp], eax
$L193418:
  0000e	8b 4d 08	 mov	 ecx, DWORD PTR __First$[ebp]
  00011	3b 4d 0c	 cmp	 ecx, DWORD PTR __Last$[ebp]
  00014	74 0c		 je	 SHORT $L193417

; 1136 : 		*_First = _Val;

  00016	8b 55 08	 mov	 edx, DWORD PTR __First$[ebp]
  00019	8b 45 10	 mov	 eax, DWORD PTR __Val$[ebp]
  0001c	8b 08		 mov	 ecx, DWORD PTR [eax]
  0001e	89 0a		 mov	 DWORD PTR [edx], ecx
  00020	eb e3		 jmp	 SHORT $L193419
$L193417:

; 1137 : 	}

  00022	5d		 pop	 ebp
  00023	c3		 ret	 0
??$fill@PAPAVCSkinButton2@@PAV1@@std@@YAXPAPAVCSkinButton2@@0ABQAV1@@Z ENDP ; std::fill<CSkinButton2 * *,CSkinButton2 *>
_TEXT	ENDS
PUBLIC	??$_Copy_backward_opt@PAPAVCSkinButton2@@PAPAV1@@std@@YAPAPAVCSkinButton2@@PAPAV1@00U_Scalar_ptr_iterator_tag@0@@Z ; std::_Copy_backward_opt<CSkinButton2 * *,CSkinButton2 * *>
; Function compile flags: /Odt /RTCsu
;	COMDAT ??$copy_backward@PAPAVCSkinButton2@@PAPAV1@@std@@YAPAPAVCSkinButton2@@PAPAV1@00@Z
_TEXT	SEGMENT
$T194824 = -1						; size = 1
__First$ = 8						; size = 4
__Last$ = 12						; size = 4
__Dest$ = 16						; size = 4
??$copy_backward@PAPAVCSkinButton2@@PAPAV1@@std@@YAPAPAVCSkinButton2@@PAPAV1@00@Z PROC NEAR ; std::copy_backward<CSkinButton2 * *,CSkinButton2 * *>, COMDAT

; 1067 : 	{	// copy [_First, _Last) backwards to [..., _Dest)

  00000	55		 push	 ebp
  00001	8b ec		 mov	 ebp, esp
  00003	51		 push	 ecx
  00004	c7 45 fc cc cc
	cc cc		 mov	 DWORD PTR [ebp-4], -858993460 ; ccccccccH

; 1068 : 	return (_Copy_backward_opt(_First, _Last, _Dest,
; 1069 : 		_Ptr_cat(_First, _Dest)));

  0000b	8b 45 10	 mov	 eax, DWORD PTR __Dest$[ebp]
  0000e	50		 push	 eax
  0000f	8b 4d 08	 mov	 ecx, DWORD PTR __First$[ebp]
  00012	51		 push	 ecx
  00013	e8 00 00 00 00	 call	 ??$_Ptr_cat@VCSkinButton2@@@std@@YA?AU_Scalar_ptr_iterator_tag@0@PAPAVCSkinButton2@@0@Z ; std::_Ptr_cat<CSkinButton2>
  00018	83 c4 08	 add	 esp, 8
  0001b	88 45 ff	 mov	 BYTE PTR $T194824[ebp], al
  0001e	8a 55 ff	 mov	 dl, BYTE PTR $T194824[ebp]
  00021	52		 push	 edx
  00022	8b 45 10	 mov	 eax, DWORD PTR __Dest$[ebp]
  00025	50		 push	 eax
  00026	8b 4d 0c	 mov	 ecx, DWORD PTR __Last$[ebp]
  00029	51		 push	 ecx
  0002a	8b 55 08	 mov	 edx, DWORD PTR __First$[ebp]
  0002d	52		 push	 edx
  0002e	e8 00 00 00 00	 call	 ??$_Copy_backward_opt@PAPAVCSkinButton2@@PAPAV1@@std@@YAPAPAVCSkinButton2@@PAPAV1@00U_Scalar_ptr_iterator_tag@0@@Z ; std::_Copy_backward_opt<CSkinButton2 * *,CSkinButton2 * *>
  00033	83 c4 10	 add	 esp, 16			; 00000010H

; 1070 : 	}

  00036	83 c4 04	 add	 esp, 4
  00039	3b ec		 cmp	 ebp, esp
  0003b	e8 00 00 00 00	 call	 __RTC_CheckEsp
  00040	8b e5		 mov	 esp, ebp
  00042	5d		 pop	 ebp
  00043	c3		 ret	 0
??$copy_backward@PAPAVCSkinButton2@@PAPAV1@@std@@YAPAPAVCSkinButton2@@PAPAV1@00@Z ENDP ; std::copy_backward<CSkinButton2 * *,CSkinButton2 * *>
_TEXT	ENDS
EXTRN	??2@YAPAXI@Z:NEAR				; operator new
; Function compile flags: /Odt /RTCsu
; File d:\program files (x86)\microsoft visual studio .net 2003\vc7\include\xmemory
;	COMDAT ??$_Allocate@PAVCSkinButton2@@@std@@YAPAPAVCSkinButton2@@IPAPAV1@@Z
_TEXT	SEGMENT
__Count$ = 8						; size = 4
___formal$ = 12						; size = 4
??$_Allocate@PAVCSkinButton2@@@std@@YAPAPAVCSkinButton2@@IPAPAV1@@Z PROC NEAR ; std::_Allocate<CSkinButton2 *>, COMDAT

; 33   : 	{	// allocate storage for _Count elements of type _Ty

  00000	55		 push	 ebp
  00001	8b ec		 mov	 ebp, esp

; 34   : 	return ((_Ty _FARQ *)operator new(_Count * sizeof (_Ty)));

  00003	8b 45 08	 mov	 eax, DWORD PTR __Count$[ebp]
  00006	c1 e0 02	 shl	 eax, 2
  00009	50		 push	 eax
  0000a	e8 00 00 00 00	 call	 ??2@YAPAXI@Z		; operator new
  0000f	83 c4 04	 add	 esp, 4

; 35   : 	}

  00012	3b ec		 cmp	 ebp, esp
  00014	e8 00 00 00 00	 call	 __RTC_CheckEsp
  00019	5d		 pop	 ebp
  0001a	c3		 ret	 0
??$_Allocate@PAVCSkinButton2@@@std@@YAPAPAVCSkinButton2@@IPAPAV1@@Z ENDP ; std::_Allocate<CSkinButton2 *>
_TEXT	ENDS
PUBLIC	??$_Destroy_range@KV?$allocator@K@std@@@std@@YAXPAK0AAV?$allocator@K@0@U_Scalar_ptr_iterator_tag@0@@Z ; std::_Destroy_range<unsigned long,std::allocator<unsigned long> >
; Function compile flags: /Odt /RTCsu
;	COMDAT ??$_Destroy_range@KV?$allocator@K@std@@@std@@YAXPAK0AAV?$allocator@K@0@@Z
_TEXT	SEGMENT
$T194827 = -1						; size = 1
__First$ = 8						; size = 4
__Last$ = 12						; size = 4
__Al$ = 16						; size = 4
??$_Destroy_range@KV?$allocator@K@std@@@std@@YAXPAK0AAV?$allocator@K@0@@Z PROC NEAR ; std::_Destroy_range<unsigned long,std::allocator<unsigned long> >, COMDAT

; 216  : 	{	// destroy [_First, _Last)

  00000	55		 push	 ebp
  00001	8b ec		 mov	 ebp, esp
  00003	51		 push	 ecx
  00004	c7 45 fc cc cc
	cc cc		 mov	 DWORD PTR [ebp-4], -858993460 ; ccccccccH

; 217  : 	_Destroy_range(_First, _Last, _Al, _Ptr_cat(_First, _Last));

  0000b	8b 45 0c	 mov	 eax, DWORD PTR __Last$[ebp]
  0000e	50		 push	 eax
  0000f	8b 4d 08	 mov	 ecx, DWORD PTR __First$[ebp]
  00012	51		 push	 ecx
  00013	e8 00 00 00 00	 call	 ?_Ptr_cat@std@@YA?AU_Scalar_ptr_iterator_tag@1@PAK0@Z ; std::_Ptr_cat
  00018	83 c4 08	 add	 esp, 8
  0001b	88 45 ff	 mov	 BYTE PTR $T194827[ebp], al
  0001e	8a 55 ff	 mov	 dl, BYTE PTR $T194827[ebp]
  00021	52		 push	 edx
  00022	8b 45 10	 mov	 eax, DWORD PTR __Al$[ebp]
  00025	50		 push	 eax
  00026	8b 4d 0c	 mov	 ecx, DWORD PTR __Last$[ebp]
  00029	51		 push	 ecx
  0002a	8b 55 08	 mov	 edx, DWORD PTR __First$[ebp]
  0002d	52		 push	 edx
  0002e	e8 00 00 00 00	 call	 ??$_Destroy_range@KV?$allocator@K@std@@@std@@YAXPAK0AAV?$allocator@K@0@U_Scalar_ptr_iterator_tag@0@@Z ; std::_Destroy_range<unsigned long,std::allocator<unsigned long> >
  00033	83 c4 10	 add	 esp, 16			; 00000010H

; 218  : 	}

  00036	83 c4 04	 add	 esp, 4
  00039	3b ec		 cmp	 ebp, esp
  0003b	e8 00 00 00 00	 call	 __RTC_CheckEsp
  00040	8b e5		 mov	 esp, ebp
  00042	5d		 pop	 ebp
  00043	c3		 ret	 0
??$_Destroy_range@KV?$allocator@K@std@@@std@@YAXPAK0AAV?$allocator@K@0@@Z ENDP ; std::_Destroy_range<unsigned long,std::allocator<unsigned long> >
_TEXT	ENDS
PUBLIC	??$_Uninitialized_copy@PAKPAKV?$allocator@K@std@@@std@@YAPAKPAK00AAV?$allocator@K@0@@Z ; std::_Uninitialized_copy<unsigned long *,unsigned long *,std::allocator<unsigned long> >
; Function compile flags: /Odt /RTCsu
; File d:\program files (x86)\microsoft visual studio .net 2003\vc7\include\vector
;	COMDAT ??$_Ucopy@PAK@?$vector@KV?$allocator@K@std@@@std@@IAEPAKPAK00@Z
_TEXT	SEGMENT
_this$ = -4						; size = 4
__First$ = 8						; size = 4
__Last$ = 12						; size = 4
__Ptr$ = 16						; size = 4
??$_Ucopy@PAK@?$vector@KV?$allocator@K@std@@@std@@IAEPAKPAK00@Z PROC NEAR ; std::vector<unsigned long,std::allocator<unsigned long> >::_Ucopy<unsigned long *>, COMDAT
; _this$ = ecx

; 801  : 		pointer _Ucopy(_Iter _First, _Iter _Last, pointer _Ptr)

  00000	55		 push	 ebp
  00001	8b ec		 mov	 ebp, esp
  00003	51		 push	 ecx
  00004	c7 45 fc cc cc
	cc cc		 mov	 DWORD PTR [ebp-4], -858993460 ; ccccccccH
  0000b	89 4d fc	 mov	 DWORD PTR _this$[ebp], ecx

; 802  : 		{	// copy initializing [_First, _Last), using allocator
; 803  : 		return (_Uninitialized_copy(_First, _Last,
; 804  : 			_Ptr, this->_Alval));

  0000e	8b 45 fc	 mov	 eax, DWORD PTR _this$[ebp]
  00011	50		 push	 eax
  00012	8b 4d 10	 mov	 ecx, DWORD PTR __Ptr$[ebp]
  00015	51		 push	 ecx
  00016	8b 55 0c	 mov	 edx, DWORD PTR __Last$[ebp]
  00019	52		 push	 edx
  0001a	8b 45 08	 mov	 eax, DWORD PTR __First$[ebp]
  0001d	50		 push	 eax
  0001e	e8 00 00 00 00	 call	 ??$_Uninitialized_copy@PAKPAKV?$allocator@K@std@@@std@@YAPAKPAK00AAV?$allocator@K@0@@Z ; std::_Uninitialized_copy<unsigned long *,unsigned long *,std::allocator<unsigned long> >
  00023	83 c4 10	 add	 esp, 16			; 00000010H

; 805  : 		}

  00026	83 c4 04	 add	 esp, 4
  00029	3b ec		 cmp	 ebp, esp
  0002b	e8 00 00 00 00	 call	 __RTC_CheckEsp
  00030	8b e5		 mov	 esp, ebp
  00032	5d		 pop	 ebp
  00033	c2 0c 00	 ret	 12			; 0000000cH
??$_Ucopy@PAK@?$vector@KV?$allocator@K@std@@@std@@IAEPAKPAK00@Z ENDP ; std::vector<unsigned long,std::allocator<unsigned long> >::_Ucopy<unsigned long *>
; Function compile flags: /Odt /RTCsu
; File d:\program files (x86)\microsoft visual studio .net 2003\vc7\include\xutility
_TEXT	ENDS
;	COMDAT ??$fill@PAKK@std@@YAXPAK0ABK@Z
_TEXT	SEGMENT
__First$ = 8						; size = 4
__Last$ = 12						; size = 4
__Val$ = 16						; size = 4
??$fill@PAKK@std@@YAXPAK0ABK@Z PROC NEAR		; std::fill<unsigned long *,unsigned long>, COMDAT

; 1134 : 	{	// copy _Val through [_First, _Last)

  00000	55		 push	 ebp
  00001	8b ec		 mov	 ebp, esp

; 1135 : 	for (; _First != _Last; ++_First)

  00003	eb 09		 jmp	 SHORT $L193472
$L193473:
  00005	8b 45 08	 mov	 eax, DWORD PTR __First$[ebp]
  00008	83 c0 04	 add	 eax, 4
  0000b	89 45 08	 mov	 DWORD PTR __First$[ebp], eax
$L193472:
  0000e	8b 4d 08	 mov	 ecx, DWORD PTR __First$[ebp]
  00011	3b 4d 0c	 cmp	 ecx, DWORD PTR __Last$[ebp]
  00014	74 0c		 je	 SHORT $L193471

; 1136 : 		*_First = _Val;

  00016	8b 55 08	 mov	 edx, DWORD PTR __First$[ebp]
  00019	8b 45 10	 mov	 eax, DWORD PTR __Val$[ebp]
  0001c	8b 08		 mov	 ecx, DWORD PTR [eax]
  0001e	89 0a		 mov	 DWORD PTR [edx], ecx
  00020	eb e3		 jmp	 SHORT $L193473
$L193471:

; 1137 : 	}

  00022	5d		 pop	 ebp
  00023	c3		 ret	 0
??$fill@PAKK@std@@YAXPAK0ABK@Z ENDP			; std::fill<unsigned long *,unsigned long>
_TEXT	ENDS
PUBLIC	??$_Copy_backward_opt@PAKPAK@std@@YAPAKPAK00U_Scalar_ptr_iterator_tag@0@@Z ; std::_Copy_backward_opt<unsigned long *,unsigned long *>
; Function compile flags: /Odt /RTCsu
;	COMDAT ??$copy_backward@PAKPAK@std@@YAPAKPAK00@Z
_TEXT	SEGMENT
$T194831 = -1						; size = 1
__First$ = 8						; size = 4
__Last$ = 12						; size = 4
__Dest$ = 16						; size = 4
??$copy_backward@PAKPAK@std@@YAPAKPAK00@Z PROC NEAR	; std::copy_backward<unsigned long *,unsigned long *>, COMDAT

; 1067 : 	{	// copy [_First, _Last) backwards to [..., _Dest)

  00000	55		 push	 ebp
  00001	8b ec		 mov	 ebp, esp
  00003	51		 push	 ecx
  00004	c7 45 fc cc cc
	cc cc		 mov	 DWORD PTR [ebp-4], -858993460 ; ccccccccH

; 1068 : 	return (_Copy_backward_opt(_First, _Last, _Dest,
; 1069 : 		_Ptr_cat(_First, _Dest)));

  0000b	8b 45 10	 mov	 eax, DWORD PTR __Dest$[ebp]
  0000e	50		 push	 eax
  0000f	8b 4d 08	 mov	 ecx, DWORD PTR __First$[ebp]
  00012	51		 push	 ecx
  00013	e8 00 00 00 00	 call	 ?_Ptr_cat@std@@YA?AU_Scalar_ptr_iterator_tag@1@PAK0@Z ; std::_Ptr_cat
  00018	83 c4 08	 add	 esp, 8
  0001b	88 45 ff	 mov	 BYTE PTR $T194831[ebp], al
  0001e	8a 55 ff	 mov	 dl, BYTE PTR $T194831[ebp]
  00021	52		 push	 edx
  00022	8b 45 10	 mov	 eax, DWORD PTR __Dest$[ebp]
  00025	50		 push	 eax
  00026	8b 4d 0c	 mov	 ecx, DWORD PTR __Last$[ebp]
  00029	51		 push	 ecx
  0002a	8b 55 08	 mov	 edx, DWORD PTR __First$[ebp]
  0002d	52		 push	 edx
  0002e	e8 00 00 00 00	 call	 ??$_Copy_backward_opt@PAKPAK@std@@YAPAKPAK00U_Scalar_ptr_iterator_tag@0@@Z ; std::_Copy_backward_opt<unsigned long *,unsigned long *>
  00033	83 c4 10	 add	 esp, 16			; 00000010H

; 1070 : 	}

  00036	83 c4 04	 add	 esp, 4
  00039	3b ec		 cmp	 ebp, esp
  0003b	e8 00 00 00 00	 call	 __RTC_CheckEsp
  00040	8b e5		 mov	 esp, ebp
  00042	5d		 pop	 ebp
  00043	c3		 ret	 0
??$copy_backward@PAKPAK@std@@YAPAKPAK00@Z ENDP		; std::copy_backward<unsigned long *,unsigned long *>
; Function compile flags: /Odt /RTCsu
; File d:\program files (x86)\microsoft visual studio .net 2003\vc7\include\xmemory
_TEXT	ENDS
;	COMDAT ??$_Allocate@K@std@@YAPAKIPAK@Z
_TEXT	SEGMENT
__Count$ = 8						; size = 4
___formal$ = 12						; size = 4
??$_Allocate@K@std@@YAPAKIPAK@Z PROC NEAR		; std::_Allocate<unsigned long>, COMDAT

; 33   : 	{	// allocate storage for _Count elements of type _Ty

  00000	55		 push	 ebp
  00001	8b ec		 mov	 ebp, esp

; 34   : 	return ((_Ty _FARQ *)operator new(_Count * sizeof (_Ty)));

  00003	8b 45 08	 mov	 eax, DWORD PTR __Count$[ebp]
  00006	c1 e0 02	 shl	 eax, 2
  00009	50		 push	 eax
  0000a	e8 00 00 00 00	 call	 ??2@YAPAXI@Z		; operator new
  0000f	83 c4 04	 add	 esp, 4

; 35   : 	}

  00012	3b ec		 cmp	 ebp, esp
  00014	e8 00 00 00 00	 call	 __RTC_CheckEsp
  00019	5d		 pop	 ebp
  0001a	c3		 ret	 0
??$_Allocate@K@std@@YAPAKIPAK@Z ENDP			; std::_Allocate<unsigned long>
; Function compile flags: /Odt /RTCsu
; File d:\program files (x86)\microsoft visual studio .net 2003\vc7\include\xutility
_TEXT	ENDS
;	COMDAT ??$_Ptr_cat@VCSkinButton2@@@std@@YA?AU_Scalar_ptr_iterator_tag@0@PAPAVCSkinButton2@@0@Z
_TEXT	SEGMENT
__Cat$ = -5						; size = 1
___formal$ = 8						; size = 4
___formal$ = 12						; size = 4
??$_Ptr_cat@VCSkinButton2@@@std@@YA?AU_Scalar_ptr_iterator_tag@0@PAPAVCSkinButton2@@0@Z PROC NEAR ; std::_Ptr_cat<CSkinButton2>, COMDAT

; 218  : 	{	// return pointer category from pointer to pointer arguments

  00000	55		 push	 ebp
  00001	8b ec		 mov	 ebp, esp
  00003	83 ec 0c	 sub	 esp, 12			; 0000000cH
  00006	c7 45 f4 cc cc
	cc cc		 mov	 DWORD PTR [ebp-12], -858993460 ; ccccccccH
  0000d	c7 45 f8 cc cc
	cc cc		 mov	 DWORD PTR [ebp-8], -858993460 ; ccccccccH
  00014	c7 45 fc cc cc
	cc cc		 mov	 DWORD PTR [ebp-4], -858993460 ; ccccccccH

; 219  : 	_Scalar_ptr_iterator_tag _Cat;
; 220  : 	return (_Cat);

  0001b	8a 45 fb	 mov	 al, BYTE PTR __Cat$[ebp]

; 221  : 	}

  0001e	52		 push	 edx
  0001f	8b cd		 mov	 ecx, ebp
  00021	50		 push	 eax
  00022	8d 15 00 00 00
	00		 lea	 edx, DWORD PTR $L194836
  00028	e8 00 00 00 00	 call	 @_RTC_CheckStackVars@8
  0002d	58		 pop	 eax
  0002e	5a		 pop	 edx
  0002f	8b e5		 mov	 esp, ebp
  00031	5d		 pop	 ebp
  00032	c3		 ret	 0
$L194836:
  00033	01 00 00 00	 DD	 1
  00037	00 00 00 00	 DD	 $L194835
$L194835:
  0003b	fb ff ff ff	 DD	 -5			; fffffffbH
  0003f	01 00 00 00	 DD	 1
  00043	00 00 00 00	 DD	 $L194834
$L194834:
  00047	5f		 DB	 95			; 0000005fH
  00048	43		 DB	 67			; 00000043H
  00049	61		 DB	 97			; 00000061H
  0004a	74		 DB	 116			; 00000074H
  0004b	00		 DB	 0
??$_Ptr_cat@VCSkinButton2@@@std@@YA?AU_Scalar_ptr_iterator_tag@0@PAPAVCSkinButton2@@0@Z ENDP ; std::_Ptr_cat<CSkinButton2>
_TEXT	ENDS
PUBLIC	??$fill_n@PAPAVCSkinButton2@@IPAV1@@std@@YAXPAPAVCSkinButton2@@IABQAV1@@Z ; std::fill_n<CSkinButton2 * *,unsigned int,CSkinButton2 *>
; Function compile flags: /Odt /RTCsu
; File d:\program files (x86)\microsoft visual studio .net 2003\vc7\include\memory
;	COMDAT ??$_Uninit_fill_n@PAVCSkinButton2@@IPAV1@@std@@YAXPAPAVCSkinButton2@@IABQAV1@AAV?$allocator@PAVCSkinButton2@@@0@U_Scalar_ptr_iterator_tag@0@@Z
_TEXT	SEGMENT
__First$ = 8						; size = 4
__Count$ = 12						; size = 4
__Val$ = 16						; size = 4
___formal$ = 20						; size = 4
___formal$ = 24						; size = 1
??$_Uninit_fill_n@PAVCSkinButton2@@IPAV1@@std@@YAXPAPAVCSkinButton2@@IABQAV1@AAV?$allocator@PAVCSkinButton2@@@0@U_Scalar_ptr_iterator_tag@0@@Z PROC NEAR ; std::_Uninit_fill_n<CSkinButton2 *,unsigned int,CSkinButton2 *>, COMDAT

; 236  : 	{	// copy _Count *_Val to raw _First, using _Al, scalar type

  00000	55		 push	 ebp
  00001	8b ec		 mov	 ebp, esp

; 237  : 	fill_n(_First, _Count, _Val);

  00003	8b 45 10	 mov	 eax, DWORD PTR __Val$[ebp]
  00006	50		 push	 eax
  00007	8b 4d 0c	 mov	 ecx, DWORD PTR __Count$[ebp]
  0000a	51		 push	 ecx
  0000b	8b 55 08	 mov	 edx, DWORD PTR __First$[ebp]
  0000e	52		 push	 edx
  0000f	e8 00 00 00 00	 call	 ??$fill_n@PAPAVCSkinButton2@@IPAV1@@std@@YAXPAPAVCSkinButton2@@IABQAV1@@Z ; std::fill_n<CSkinButton2 * *,unsigned int,CSkinButton2 *>
  00014	83 c4 0c	 add	 esp, 12			; 0000000cH

; 238  : 	}

  00017	3b ec		 cmp	 ebp, esp
  00019	e8 00 00 00 00	 call	 __RTC_CheckEsp
  0001e	5d		 pop	 ebp
  0001f	c3		 ret	 0
??$_Uninit_fill_n@PAVCSkinButton2@@IPAV1@@std@@YAXPAPAVCSkinButton2@@IABQAV1@AAV?$allocator@PAVCSkinButton2@@@0@U_Scalar_ptr_iterator_tag@0@@Z ENDP ; std::_Uninit_fill_n<CSkinButton2 *,unsigned int,CSkinButton2 *>
_TEXT	ENDS
PUBLIC	??$fill_n@PAKIK@std@@YAXPAKIABK@Z		; std::fill_n<unsigned long *,unsigned int,unsigned long>
; Function compile flags: /Odt /RTCsu
;	COMDAT ??$_Uninit_fill_n@KIK@std@@YAXPAKIABKAAV?$allocator@K@0@U_Scalar_ptr_iterator_tag@0@@Z
_TEXT	SEGMENT
__First$ = 8						; size = 4
__Count$ = 12						; size = 4
__Val$ = 16						; size = 4
___formal$ = 20						; size = 4
___formal$ = 24						; size = 1
??$_Uninit_fill_n@KIK@std@@YAXPAKIABKAAV?$allocator@K@0@U_Scalar_ptr_iterator_tag@0@@Z PROC NEAR ; std::_Uninit_fill_n<unsigned long,unsigned int,unsigned long>, COMDAT

; 236  : 	{	// copy _Count *_Val to raw _First, using _Al, scalar type

  00000	55		 push	 ebp
  00001	8b ec		 mov	 ebp, esp

; 237  : 	fill_n(_First, _Count, _Val);

  00003	8b 45 10	 mov	 eax, DWORD PTR __Val$[ebp]
  00006	50		 push	 eax
  00007	8b 4d 0c	 mov	 ecx, DWORD PTR __Count$[ebp]
  0000a	51		 push	 ecx
  0000b	8b 55 08	 mov	 edx, DWORD PTR __First$[ebp]
  0000e	52		 push	 edx
  0000f	e8 00 00 00 00	 call	 ??$fill_n@PAKIK@std@@YAXPAKIABK@Z ; std::fill_n<unsigned long *,unsigned int,unsigned long>
  00014	83 c4 0c	 add	 esp, 12			; 0000000cH

; 238  : 	}

  00017	3b ec		 cmp	 ebp, esp
  00019	e8 00 00 00 00	 call	 __RTC_CheckEsp
  0001e	5d		 pop	 ebp
  0001f	c3		 ret	 0
??$_Uninit_fill_n@KIK@std@@YAXPAKIABKAAV?$allocator@K@0@U_Scalar_ptr_iterator_tag@0@@Z ENDP ; std::_Uninit_fill_n<unsigned long,unsigned int,unsigned long>
; Function compile flags: /Odt /RTCsu
; File d:\program files (x86)\microsoft visual studio .net 2003\vc7\include\xmemory
_TEXT	ENDS
;	COMDAT ??$_Destroy_range@PAVCSkinButton2@@V?$allocator@PAVCSkinButton2@@@std@@@std@@YAXPAPAVCSkinButton2@@0AAV?$allocator@PAVCSkinButton2@@@0@U_Scalar_ptr_iterator_tag@0@@Z
_TEXT	SEGMENT
__First$ = 8						; size = 4
__Last$ = 12						; size = 4
__Al$ = 16						; size = 4
___formal$ = 20						; size = 1
??$_Destroy_range@PAVCSkinButton2@@V?$allocator@PAVCSkinButton2@@@std@@@std@@YAXPAPAVCSkinButton2@@0AAV?$allocator@PAVCSkinButton2@@@0@U_Scalar_ptr_iterator_tag@0@@Z PROC NEAR ; std::_Destroy_range<CSkinButton2 *,std::allocator<CSkinButton2 *> >, COMDAT

; 233  : 	{	// destroy [_First, _Last), scalar type (do nothing)

  00000	55		 push	 ebp
  00001	8b ec		 mov	 ebp, esp

; 234  : 	}

  00003	5d		 pop	 ebp
  00004	c3		 ret	 0
??$_Destroy_range@PAVCSkinButton2@@V?$allocator@PAVCSkinButton2@@@std@@@std@@YAXPAPAVCSkinButton2@@0AAV?$allocator@PAVCSkinButton2@@@0@U_Scalar_ptr_iterator_tag@0@@Z ENDP ; std::_Destroy_range<CSkinButton2 *,std::allocator<CSkinButton2 *> >
_TEXT	ENDS
PUBLIC	??$_Uninit_copy@PAVCSkinButton2@@PAV1@@std@@YAPAPAVCSkinButton2@@PAPAV1@00AAV?$allocator@PAVCSkinButton2@@@0@U_Scalar_ptr_iterator_tag@0@@Z ; std::_Uninit_copy<CSkinButton2 *,CSkinButton2 *>
; Function compile flags: /Odt /RTCsu
; File d:\program files (x86)\microsoft visual studio .net 2003\vc7\include\memory
;	COMDAT ??$_Uninitialized_copy@PAPAVCSkinButton2@@PAPAV1@V?$allocator@PAVCSkinButton2@@@std@@@std@@YAPAPAVCSkinButton2@@PAPAV1@00AAV?$allocator@PAVCSkinButton2@@@0@@Z
_TEXT	SEGMENT
$T194841 = -1						; size = 1
__First$ = 8						; size = 4
__Last$ = 12						; size = 4
__Dest$ = 16						; size = 4
__Al$ = 20						; size = 4
??$_Uninitialized_copy@PAPAVCSkinButton2@@PAPAV1@V?$allocator@PAVCSkinButton2@@@std@@@std@@YAPAPAVCSkinButton2@@PAPAV1@00AAV?$allocator@PAVCSkinButton2@@@0@@Z PROC NEAR ; std::_Uninitialized_copy<CSkinButton2 * *,CSkinButton2 * *,std::allocator<CSkinButton2 *> >, COMDAT

; 126  : 	{	// copy [_First, _Last) to raw _Dest, using _Al

  00000	55		 push	 ebp
  00001	8b ec		 mov	 ebp, esp
  00003	51		 push	 ecx
  00004	c7 45 fc cc cc
	cc cc		 mov	 DWORD PTR [ebp-4], -858993460 ; ccccccccH

; 127  : 	return (_Uninit_copy(_First, _Last, _Dest, _Al,
; 128  : 		_Ptr_cat(_First, _Dest)));

  0000b	8b 45 10	 mov	 eax, DWORD PTR __Dest$[ebp]
  0000e	50		 push	 eax
  0000f	8b 4d 08	 mov	 ecx, DWORD PTR __First$[ebp]
  00012	51		 push	 ecx
  00013	e8 00 00 00 00	 call	 ??$_Ptr_cat@VCSkinButton2@@@std@@YA?AU_Scalar_ptr_iterator_tag@0@PAPAVCSkinButton2@@0@Z ; std::_Ptr_cat<CSkinButton2>
  00018	83 c4 08	 add	 esp, 8
  0001b	88 45 ff	 mov	 BYTE PTR $T194841[ebp], al
  0001e	8a 55 ff	 mov	 dl, BYTE PTR $T194841[ebp]
  00021	52		 push	 edx
  00022	8b 45 14	 mov	 eax, DWORD PTR __Al$[ebp]
  00025	50		 push	 eax
  00026	8b 4d 10	 mov	 ecx, DWORD PTR __Dest$[ebp]
  00029	51		 push	 ecx
  0002a	8b 55 0c	 mov	 edx, DWORD PTR __Last$[ebp]
  0002d	52		 push	 edx
  0002e	8b 45 08	 mov	 eax, DWORD PTR __First$[ebp]
  00031	50		 push	 eax
  00032	e8 00 00 00 00	 call	 ??$_Uninit_copy@PAVCSkinButton2@@PAV1@@std@@YAPAPAVCSkinButton2@@PAPAV1@00AAV?$allocator@PAVCSkinButton2@@@0@U_Scalar_ptr_iterator_tag@0@@Z ; std::_Uninit_copy<CSkinButton2 *,CSkinButton2 *>
  00037	83 c4 14	 add	 esp, 20			; 00000014H

; 129  : 	}

  0003a	83 c4 04	 add	 esp, 4
  0003d	3b ec		 cmp	 ebp, esp
  0003f	e8 00 00 00 00	 call	 __RTC_CheckEsp
  00044	8b e5		 mov	 esp, ebp
  00046	5d		 pop	 ebp
  00047	c3		 ret	 0
??$_Uninitialized_copy@PAPAVCSkinButton2@@PAPAV1@V?$allocator@PAVCSkinButton2@@@std@@@std@@YAPAPAVCSkinButton2@@PAPAV1@00AAV?$allocator@PAVCSkinButton2@@@0@@Z ENDP ; std::_Uninitialized_copy<CSkinButton2 * *,CSkinButton2 * *,std::allocator<CSkinButton2 *> >
_TEXT	ENDS
EXTRN	__imp__memmove:NEAR
; Function compile flags: /Odt /RTCsu
; File d:\program files (x86)\microsoft visual studio .net 2003\vc7\include\xutility
;	COMDAT ??$_Copy_backward_opt@PAPAVCSkinButton2@@PAPAV1@@std@@YAPAPAVCSkinButton2@@PAPAV1@00U_Scalar_ptr_iterator_tag@0@@Z
_TEXT	SEGMENT
__Off$ = -4						; size = 4
__First$ = 8						; size = 4
__Last$ = 12						; size = 4
__Dest$ = 16						; size = 4
___formal$ = 20						; size = 1
??$_Copy_backward_opt@PAPAVCSkinButton2@@PAPAV1@@std@@YAPAPAVCSkinButton2@@PAPAV1@00U_Scalar_ptr_iterator_tag@0@@Z PROC NEAR ; std::_Copy_backward_opt<CSkinButton2 * *,CSkinButton2 * *>, COMDAT

; 1058 : 	{	// copy [_First, _Last) backwards to [..., _Dest), pointers to scalars

  00000	55		 push	 ebp
  00001	8b ec		 mov	 ebp, esp
  00003	51		 push	 ecx
  00004	56		 push	 esi
  00005	c7 45 fc cc cc
	cc cc		 mov	 DWORD PTR [ebp-4], -858993460 ; ccccccccH

; 1059 : 	ptrdiff_t _Off = _Last - _First;	// NB: non-overlapping move

  0000c	8b 45 0c	 mov	 eax, DWORD PTR __Last$[ebp]
  0000f	2b 45 08	 sub	 eax, DWORD PTR __First$[ebp]
  00012	c1 f8 02	 sar	 eax, 2
  00015	89 45 fc	 mov	 DWORD PTR __Off$[ebp], eax

; 1060 : 	return ((_OutIt)memmove(&*_Dest - _Off, &*_First,
; 1061 : 		_Off * sizeof (*_First)));

  00018	8b 4d fc	 mov	 ecx, DWORD PTR __Off$[ebp]
  0001b	c1 e1 02	 shl	 ecx, 2
  0001e	8b f4		 mov	 esi, esp
  00020	51		 push	 ecx
  00021	8b 55 08	 mov	 edx, DWORD PTR __First$[ebp]
  00024	52		 push	 edx
  00025	8b 45 fc	 mov	 eax, DWORD PTR __Off$[ebp]
  00028	c1 e0 02	 shl	 eax, 2
  0002b	8b 4d 10	 mov	 ecx, DWORD PTR __Dest$[ebp]
  0002e	2b c8		 sub	 ecx, eax
  00030	51		 push	 ecx
  00031	ff 15 00 00 00
	00		 call	 DWORD PTR __imp__memmove
  00037	83 c4 0c	 add	 esp, 12			; 0000000cH
  0003a	3b f4		 cmp	 esi, esp
  0003c	e8 00 00 00 00	 call	 __RTC_CheckEsp

; 1062 : 	}

  00041	5e		 pop	 esi
  00042	83 c4 04	 add	 esp, 4
  00045	3b ec		 cmp	 ebp, esp
  00047	e8 00 00 00 00	 call	 __RTC_CheckEsp
  0004c	8b e5		 mov	 esp, ebp
  0004e	5d		 pop	 ebp
  0004f	c3		 ret	 0
??$_Copy_backward_opt@PAPAVCSkinButton2@@PAPAV1@@std@@YAPAPAVCSkinButton2@@PAPAV1@00U_Scalar_ptr_iterator_tag@0@@Z ENDP ; std::_Copy_backward_opt<CSkinButton2 * *,CSkinButton2 * *>
; Function compile flags: /Odt /RTCsu
; File d:\program files (x86)\microsoft visual studio .net 2003\vc7\include\xmemory
_TEXT	ENDS
;	COMDAT ??$_Destroy_range@KV?$allocator@K@std@@@std@@YAXPAK0AAV?$allocator@K@0@U_Scalar_ptr_iterator_tag@0@@Z
_TEXT	SEGMENT
__First$ = 8						; size = 4
__Last$ = 12						; size = 4
__Al$ = 16						; size = 4
___formal$ = 20						; size = 1
??$_Destroy_range@KV?$allocator@K@std@@@std@@YAXPAK0AAV?$allocator@K@0@U_Scalar_ptr_iterator_tag@0@@Z PROC NEAR ; std::_Destroy_range<unsigned long,std::allocator<unsigned long> >, COMDAT

; 233  : 	{	// destroy [_First, _Last), scalar type (do nothing)

  00000	55		 push	 ebp
  00001	8b ec		 mov	 ebp, esp

; 234  : 	}

  00003	5d		 pop	 ebp
  00004	c3		 ret	 0
??$_Destroy_range@KV?$allocator@K@std@@@std@@YAXPAK0AAV?$allocator@K@0@U_Scalar_ptr_iterator_tag@0@@Z ENDP ; std::_Destroy_range<unsigned long,std::allocator<unsigned long> >
_TEXT	ENDS
PUBLIC	??$_Uninit_copy@KK@std@@YAPAKPAK00AAV?$allocator@K@0@U_Scalar_ptr_iterator_tag@0@@Z ; std::_Uninit_copy<unsigned long,unsigned long>
; Function compile flags: /Odt /RTCsu
; File d:\program files (x86)\microsoft visual studio .net 2003\vc7\include\memory
;	COMDAT ??$_Uninitialized_copy@PAKPAKV?$allocator@K@std@@@std@@YAPAKPAK00AAV?$allocator@K@0@@Z
_TEXT	SEGMENT
$T194845 = -1						; size = 1
__First$ = 8						; size = 4
__Last$ = 12						; size = 4
__Dest$ = 16						; size = 4
__Al$ = 20						; size = 4
??$_Uninitialized_copy@PAKPAKV?$allocator@K@std@@@std@@YAPAKPAK00AAV?$allocator@K@0@@Z PROC NEAR ; std::_Uninitialized_copy<unsigned long *,unsigned long *,std::allocator<unsigned long> >, COMDAT

; 126  : 	{	// copy [_First, _Last) to raw _Dest, using _Al

  00000	55		 push	 ebp
  00001	8b ec		 mov	 ebp, esp
  00003	51		 push	 ecx
  00004	c7 45 fc cc cc
	cc cc		 mov	 DWORD PTR [ebp-4], -858993460 ; ccccccccH

; 127  : 	return (_Uninit_copy(_First, _Last, _Dest, _Al,
; 128  : 		_Ptr_cat(_First, _Dest)));

  0000b	8b 45 10	 mov	 eax, DWORD PTR __Dest$[ebp]
  0000e	50		 push	 eax
  0000f	8b 4d 08	 mov	 ecx, DWORD PTR __First$[ebp]
  00012	51		 push	 ecx
  00013	e8 00 00 00 00	 call	 ?_Ptr_cat@std@@YA?AU_Scalar_ptr_iterator_tag@1@PAK0@Z ; std::_Ptr_cat
  00018	83 c4 08	 add	 esp, 8
  0001b	88 45 ff	 mov	 BYTE PTR $T194845[ebp], al
  0001e	8a 55 ff	 mov	 dl, BYTE PTR $T194845[ebp]
  00021	52		 push	 edx
  00022	8b 45 14	 mov	 eax, DWORD PTR __Al$[ebp]
  00025	50		 push	 eax
  00026	8b 4d 10	 mov	 ecx, DWORD PTR __Dest$[ebp]
  00029	51		 push	 ecx
  0002a	8b 55 0c	 mov	 edx, DWORD PTR __Last$[ebp]
  0002d	52		 push	 edx
  0002e	8b 45 08	 mov	 eax, DWORD PTR __First$[ebp]
  00031	50		 push	 eax
  00032	e8 00 00 00 00	 call	 ??$_Uninit_copy@KK@std@@YAPAKPAK00AAV?$allocator@K@0@U_Scalar_ptr_iterator_tag@0@@Z ; std::_Uninit_copy<unsigned long,unsigned long>
  00037	83 c4 14	 add	 esp, 20			; 00000014H

; 129  : 	}

  0003a	83 c4 04	 add	 esp, 4
  0003d	3b ec		 cmp	 ebp, esp
  0003f	e8 00 00 00 00	 call	 __RTC_CheckEsp
  00044	8b e5		 mov	 esp, ebp
  00046	5d		 pop	 ebp
  00047	c3		 ret	 0
??$_Uninitialized_copy@PAKPAKV?$allocator@K@std@@@std@@YAPAKPAK00AAV?$allocator@K@0@@Z ENDP ; std::_Uninitialized_copy<unsigned long *,unsigned long *,std::allocator<unsigned long> >
; Function compile flags: /Odt /RTCsu
; File d:\program files (x86)\microsoft visual studio .net 2003\vc7\include\xutility
_TEXT	ENDS
;	COMDAT ??$_Copy_backward_opt@PAKPAK@std@@YAPAKPAK00U_Scalar_ptr_iterator_tag@0@@Z
_TEXT	SEGMENT
__Off$ = -4						; size = 4
__First$ = 8						; size = 4
__Last$ = 12						; size = 4
__Dest$ = 16						; size = 4
___formal$ = 20						; size = 1
??$_Copy_backward_opt@PAKPAK@std@@YAPAKPAK00U_Scalar_ptr_iterator_tag@0@@Z PROC NEAR ; std::_Copy_backward_opt<unsigned long *,unsigned long *>, COMDAT

; 1058 : 	{	// copy [_First, _Last) backwards to [..., _Dest), pointers to scalars

  00000	55		 push	 ebp
  00001	8b ec		 mov	 ebp, esp
  00003	51		 push	 ecx
  00004	56		 push	 esi
  00005	c7 45 fc cc cc
	cc cc		 mov	 DWORD PTR [ebp-4], -858993460 ; ccccccccH

; 1059 : 	ptrdiff_t _Off = _Last - _First;	// NB: non-overlapping move

  0000c	8b 45 0c	 mov	 eax, DWORD PTR __Last$[ebp]
  0000f	2b 45 08	 sub	 eax, DWORD PTR __First$[ebp]
  00012	c1 f8 02	 sar	 eax, 2
  00015	89 45 fc	 mov	 DWORD PTR __Off$[ebp], eax

; 1060 : 	return ((_OutIt)memmove(&*_Dest - _Off, &*_First,
; 1061 : 		_Off * sizeof (*_First)));

  00018	8b 4d fc	 mov	 ecx, DWORD PTR __Off$[ebp]
  0001b	c1 e1 02	 shl	 ecx, 2
  0001e	8b f4		 mov	 esi, esp
  00020	51		 push	 ecx
  00021	8b 55 08	 mov	 edx, DWORD PTR __First$[ebp]
  00024	52		 push	 edx
  00025	8b 45 fc	 mov	 eax, DWORD PTR __Off$[ebp]
  00028	c1 e0 02	 shl	 eax, 2
  0002b	8b 4d 10	 mov	 ecx, DWORD PTR __Dest$[ebp]
  0002e	2b c8		 sub	 ecx, eax
  00030	51		 push	 ecx
  00031	ff 15 00 00 00
	00		 call	 DWORD PTR __imp__memmove
  00037	83 c4 0c	 add	 esp, 12			; 0000000cH
  0003a	3b f4		 cmp	 esi, esp
  0003c	e8 00 00 00 00	 call	 __RTC_CheckEsp

; 1062 : 	}

  00041	5e		 pop	 esi
  00042	83 c4 04	 add	 esp, 4
  00045	3b ec		 cmp	 ebp, esp
  00047	e8 00 00 00 00	 call	 __RTC_CheckEsp
  0004c	8b e5		 mov	 esp, ebp
  0004e	5d		 pop	 ebp
  0004f	c3		 ret	 0
??$_Copy_backward_opt@PAKPAK@std@@YAPAKPAK00U_Scalar_ptr_iterator_tag@0@@Z ENDP ; std::_Copy_backward_opt<unsigned long *,unsigned long *>
; Function compile flags: /Odt /RTCsu
_TEXT	ENDS
;	COMDAT ??$fill_n@PAPAVCSkinButton2@@IPAV1@@std@@YAXPAPAVCSkinButton2@@IABQAV1@@Z
_TEXT	SEGMENT
__First$ = 8						; size = 4
__Count$ = 12						; size = 4
__Val$ = 16						; size = 4
??$fill_n@PAPAVCSkinButton2@@IPAV1@@std@@YAXPAPAVCSkinButton2@@IABQAV1@@Z PROC NEAR ; std::fill_n<CSkinButton2 * *,unsigned int,CSkinButton2 *>, COMDAT

; 1159 : 	{	// copy _Val _Count times through [_First, ...)

  00000	55		 push	 ebp
  00001	8b ec		 mov	 ebp, esp

; 1160 : 	for (; 0 < _Count; --_Count, ++_First)

  00003	eb 12		 jmp	 SHORT $L193606
$L193607:
  00005	8b 45 0c	 mov	 eax, DWORD PTR __Count$[ebp]
  00008	83 e8 01	 sub	 eax, 1
  0000b	89 45 0c	 mov	 DWORD PTR __Count$[ebp], eax
  0000e	8b 4d 08	 mov	 ecx, DWORD PTR __First$[ebp]
  00011	83 c1 04	 add	 ecx, 4
  00014	89 4d 08	 mov	 DWORD PTR __First$[ebp], ecx
$L193606:
  00017	83 7d 0c 00	 cmp	 DWORD PTR __Count$[ebp], 0
  0001b	76 0c		 jbe	 SHORT $L193605

; 1161 : 		*_First = _Val;

  0001d	8b 55 08	 mov	 edx, DWORD PTR __First$[ebp]
  00020	8b 45 10	 mov	 eax, DWORD PTR __Val$[ebp]
  00023	8b 08		 mov	 ecx, DWORD PTR [eax]
  00025	89 0a		 mov	 DWORD PTR [edx], ecx
  00027	eb dc		 jmp	 SHORT $L193607
$L193605:

; 1162 : 	}

  00029	5d		 pop	 ebp
  0002a	c3		 ret	 0
??$fill_n@PAPAVCSkinButton2@@IPAV1@@std@@YAXPAPAVCSkinButton2@@IABQAV1@@Z ENDP ; std::fill_n<CSkinButton2 * *,unsigned int,CSkinButton2 *>
; Function compile flags: /Odt /RTCsu
_TEXT	ENDS
;	COMDAT ??$fill_n@PAKIK@std@@YAXPAKIABK@Z
_TEXT	SEGMENT
__First$ = 8						; size = 4
__Count$ = 12						; size = 4
__Val$ = 16						; size = 4
??$fill_n@PAKIK@std@@YAXPAKIABK@Z PROC NEAR		; std::fill_n<unsigned long *,unsigned int,unsigned long>, COMDAT

; 1159 : 	{	// copy _Val _Count times through [_First, ...)

  00000	55		 push	 ebp
  00001	8b ec		 mov	 ebp, esp

; 1160 : 	for (; 0 < _Count; --_Count, ++_First)

  00003	eb 12		 jmp	 SHORT $L193610
$L193611:
  00005	8b 45 0c	 mov	 eax, DWORD PTR __Count$[ebp]
  00008	83 e8 01	 sub	 eax, 1
  0000b	89 45 0c	 mov	 DWORD PTR __Count$[ebp], eax
  0000e	8b 4d 08	 mov	 ecx, DWORD PTR __First$[ebp]
  00011	83 c1 04	 add	 ecx, 4
  00014	89 4d 08	 mov	 DWORD PTR __First$[ebp], ecx
$L193610:
  00017	83 7d 0c 00	 cmp	 DWORD PTR __Count$[ebp], 0
  0001b	76 0c		 jbe	 SHORT $L193609

; 1161 : 		*_First = _Val;

  0001d	8b 55 08	 mov	 edx, DWORD PTR __First$[ebp]
  00020	8b 45 10	 mov	 eax, DWORD PTR __Val$[ebp]
  00023	8b 08		 mov	 ecx, DWORD PTR [eax]
  00025	89 0a		 mov	 DWORD PTR [edx], ecx
  00027	eb dc		 jmp	 SHORT $L193611
$L193609:

; 1162 : 	}

  00029	5d		 pop	 ebp
  0002a	c3		 ret	 0
??$fill_n@PAKIK@std@@YAXPAKIABK@Z ENDP			; std::fill_n<unsigned long *,unsigned int,unsigned long>
; Function compile flags: /Odt /RTCsu
; File d:\program files (x86)\microsoft visual studio .net 2003\vc7\include\memory
_TEXT	ENDS
;	COMDAT ??$_Uninit_copy@PAVCSkinButton2@@PAV1@@std@@YAPAPAVCSkinButton2@@PAPAV1@00AAV?$allocator@PAVCSkinButton2@@@0@U_Scalar_ptr_iterator_tag@0@@Z
_TEXT	SEGMENT
__Count$ = -4						; size = 4
__First$ = 8						; size = 4
__Last$ = 12						; size = 4
__Dest$ = 16						; size = 4
___formal$ = 20						; size = 4
___formal$ = 24						; size = 1
??$_Uninit_copy@PAVCSkinButton2@@PAV1@@std@@YAPAPAVCSkinButton2@@PAPAV1@00AAV?$allocator@PAVCSkinButton2@@@0@U_Scalar_ptr_iterator_tag@0@@Z PROC NEAR ; std::_Uninit_copy<CSkinButton2 *,CSkinButton2 *>, COMDAT

; 105  : 	{	// copy [_First, _Last) to raw _Dest, (const) scalar type

  00000	55		 push	 ebp
  00001	8b ec		 mov	 ebp, esp
  00003	51		 push	 ecx
  00004	56		 push	 esi
  00005	c7 45 fc cc cc
	cc cc		 mov	 DWORD PTR [ebp-4], -858993460 ; ccccccccH

; 106  : 	size_t _Count = (size_t)(_Last - _First);

  0000c	8b 45 0c	 mov	 eax, DWORD PTR __Last$[ebp]
  0000f	2b 45 08	 sub	 eax, DWORD PTR __First$[ebp]
  00012	c1 f8 02	 sar	 eax, 2
  00015	89 45 fc	 mov	 DWORD PTR __Count$[ebp], eax

; 107  : 	return ((_Ty2 *)memmove(&*_Dest, &*_First,
; 108  : 		_Count * sizeof (*_First)) + _Count);	// NB: non-overlapping move

  00018	8b 4d fc	 mov	 ecx, DWORD PTR __Count$[ebp]
  0001b	c1 e1 02	 shl	 ecx, 2
  0001e	8b f4		 mov	 esi, esp
  00020	51		 push	 ecx
  00021	8b 55 08	 mov	 edx, DWORD PTR __First$[ebp]
  00024	52		 push	 edx
  00025	8b 45 10	 mov	 eax, DWORD PTR __Dest$[ebp]
  00028	50		 push	 eax
  00029	ff 15 00 00 00
	00		 call	 DWORD PTR __imp__memmove
  0002f	83 c4 0c	 add	 esp, 12			; 0000000cH
  00032	3b f4		 cmp	 esi, esp
  00034	e8 00 00 00 00	 call	 __RTC_CheckEsp
  00039	8b 4d fc	 mov	 ecx, DWORD PTR __Count$[ebp]
  0003c	8d 04 88	 lea	 eax, DWORD PTR [eax+ecx*4]

; 109  : 	}

  0003f	5e		 pop	 esi
  00040	83 c4 04	 add	 esp, 4
  00043	3b ec		 cmp	 ebp, esp
  00045	e8 00 00 00 00	 call	 __RTC_CheckEsp
  0004a	8b e5		 mov	 esp, ebp
  0004c	5d		 pop	 ebp
  0004d	c3		 ret	 0
??$_Uninit_copy@PAVCSkinButton2@@PAV1@@std@@YAPAPAVCSkinButton2@@PAPAV1@00AAV?$allocator@PAVCSkinButton2@@@0@U_Scalar_ptr_iterator_tag@0@@Z ENDP ; std::_Uninit_copy<CSkinButton2 *,CSkinButton2 *>
; Function compile flags: /Odt /RTCsu
_TEXT	ENDS
;	COMDAT ??$_Uninit_copy@KK@std@@YAPAKPAK00AAV?$allocator@K@0@U_Scalar_ptr_iterator_tag@0@@Z
_TEXT	SEGMENT
__Count$ = -4						; size = 4
__First$ = 8						; size = 4
__Last$ = 12						; size = 4
__Dest$ = 16						; size = 4
___formal$ = 20						; size = 4
___formal$ = 24						; size = 1
??$_Uninit_copy@KK@std@@YAPAKPAK00AAV?$allocator@K@0@U_Scalar_ptr_iterator_tag@0@@Z PROC NEAR ; std::_Uninit_copy<unsigned long,unsigned long>, COMDAT

; 105  : 	{	// copy [_First, _Last) to raw _Dest, (const) scalar type

  00000	55		 push	 ebp
  00001	8b ec		 mov	 ebp, esp
  00003	51		 push	 ecx
  00004	56		 push	 esi
  00005	c7 45 fc cc cc
	cc cc		 mov	 DWORD PTR [ebp-4], -858993460 ; ccccccccH

; 106  : 	size_t _Count = (size_t)(_Last - _First);

  0000c	8b 45 0c	 mov	 eax, DWORD PTR __Last$[ebp]
  0000f	2b 45 08	 sub	 eax, DWORD PTR __First$[ebp]
  00012	c1 f8 02	 sar	 eax, 2
  00015	89 45 fc	 mov	 DWORD PTR __Count$[ebp], eax

; 107  : 	return ((_Ty2 *)memmove(&*_Dest, &*_First,
; 108  : 		_Count * sizeof (*_First)) + _Count);	// NB: non-overlapping move

  00018	8b 4d fc	 mov	 ecx, DWORD PTR __Count$[ebp]
  0001b	c1 e1 02	 shl	 ecx, 2
  0001e	8b f4		 mov	 esi, esp
  00020	51		 push	 ecx
  00021	8b 55 08	 mov	 edx, DWORD PTR __First$[ebp]
  00024	52		 push	 edx
  00025	8b 45 10	 mov	 eax, DWORD PTR __Dest$[ebp]
  00028	50		 push	 eax
  00029	ff 15 00 00 00
	00		 call	 DWORD PTR __imp__memmove
  0002f	83 c4 0c	 add	 esp, 12			; 0000000cH
  00032	3b f4		 cmp	 esi, esp
  00034	e8 00 00 00 00	 call	 __RTC_CheckEsp
  00039	8b 4d fc	 mov	 ecx, DWORD PTR __Count$[ebp]
  0003c	8d 04 88	 lea	 eax, DWORD PTR [eax+ecx*4]

; 109  : 	}

  0003f	5e		 pop	 esi
  00040	83 c4 04	 add	 esp, 4
  00043	3b ec		 cmp	 ebp, esp
  00045	e8 00 00 00 00	 call	 __RTC_CheckEsp
  0004a	8b e5		 mov	 esp, ebp
  0004c	5d		 pop	 ebp
  0004d	c3		 ret	 0
??$_Uninit_copy@KK@std@@YAPAKPAK00AAV?$allocator@K@0@U_Scalar_ptr_iterator_tag@0@@Z ENDP ; std::_Uninit_copy<unsigned long,unsigned long>
_TEXT	ENDS
PUBLIC	??_R4CCommonDialog@@6B@				; CCommonDialog::`RTTI Complete Object Locator'
PUBLIC	??_R0?AVCCommonDialog@@@8			; CCommonDialog `RTTI Type Descriptor'
PUBLIC	??_R3CCommonDialog@@8				; CCommonDialog::`RTTI Class Hierarchy Descriptor'
PUBLIC	??_R2CCommonDialog@@8				; CCommonDialog::`RTTI Base Class Array'
PUBLIC	??_R1A@?0A@A@CCommonDialog@@8			; CCommonDialog::`RTTI Base Class Descriptor at (0,-1,0,0)'
PUBLIC	??_R1A@?0A@A@CDialog@@8				; CDialog::`RTTI Base Class Descriptor at (0,-1,0,0)'
PUBLIC	??_R0?AVCDialog@@@8				; CDialog `RTTI Type Descriptor'
PUBLIC	??_7CCommonDialog@@6B@				; CCommonDialog::`vftable'
EXTRN	__purecall:NEAR
EXTRN	?OnCommand@CWnd@@MAEHIJ@Z:NEAR			; CWnd::OnCommand
EXTRN	?PreCreateWindow@CWnd@@UAEHAAUtagCREATESTRUCTA@@@Z:NEAR ; CWnd::PreCreateWindow
EXTRN	?BeginModalState@CWnd@@UAEXXZ:NEAR		; CWnd::BeginModalState
EXTRN	?EndModalState@CWnd@@UAEXXZ:NEAR		; CWnd::EndModalState
EXTRN	?PostNcDestroy@CWnd@@MAEXXZ:NEAR		; CWnd::PostNcDestroy
EXTRN	?IsFrameWnd@CWnd@@UBEHXZ:NEAR			; CWnd::IsFrameWnd
EXTRN	?GetRuntimeClass@CDialog@@UBEPAUCRuntimeClass@@XZ:NEAR ; CDialog::GetRuntimeClass
EXTRN	?Create@CDialog@@UAEHPBDPAVCWnd@@@Z:NEAR	; CDialog::Create
EXTRN	?Create@CDialog@@UAEHIPAVCWnd@@@Z:NEAR		; CDialog::Create
EXTRN	?CreateIndirect@CDialog@@UAEHPBUDLGTEMPLATE@@PAVCWnd@@PAX@Z:NEAR ; CDialog::CreateIndirect
EXTRN	?CreateIndirect@CDialog@@UAEHPAXPAVCWnd@@@Z:NEAR ; CDialog::CreateIndirect
EXTRN	?DoModal@CDialog@@UAEHXZ:NEAR			; CDialog::DoModal
EXTRN	?OnInitDialog@CDialog@@UAEHXZ:NEAR		; CDialog::OnInitDialog
EXTRN	?OnSetFont@CDialog@@UAEXPAVCFont@@@Z:NEAR	; CDialog::OnSetFont
EXTRN	??1CDialog@@UAE@XZ:NEAR				; CDialog::~CDialog
EXTRN	?AssertValid@CDialog@@UBEXXZ:NEAR		; CDialog::AssertValid
EXTRN	?Dump@CDialog@@UBEXAAVCDumpContext@@@Z:NEAR	; CDialog::Dump
EXTRN	?PreTranslateMessage@CDialog@@UAEHPAUtagMSG@@@Z:NEAR ; CDialog::PreTranslateMessage
EXTRN	?OnCmdMsg@CDialog@@UAEHIHPAXPAUAFX_CMDHANDLERINFO@@@Z:NEAR ; CDialog::OnCmdMsg
EXTRN	?CheckAutoCenter@CDialog@@UAEHXZ:NEAR		; CDialog::CheckAutoCenter
EXTRN	?SetOccDialogInfo@CDialog@@MAEHPAU_AFX_OCC_DIALOG_INFO@@@Z:NEAR ; CDialog::SetOccDialogInfo
EXTRN	?PreInitDialog@CDialog@@MAEXXZ:NEAR		; CDialog::PreInitDialog
EXTRN	?OnOK@CCommonDialog@@MAEXXZ:NEAR		; CCommonDialog::OnOK
EXTRN	?OnCancel@CCommonDialog@@MAEXXZ:NEAR		; CCommonDialog::OnCancel
EXTRN	?GetMessageMap@CCommonDialog@@MBEPBUAFX_MSGMAP@@XZ:NEAR ; CCommonDialog::GetMessageMap
;	COMDAT ??_7CCommonDialog@@6B@
; File d:\program files (x86)\microsoft visual studio .net 2003\vc7\atlmfc\include\afxdlgs.h
CONST	SEGMENT
??_7CCommonDialog@@6B@ DD FLAT:??_R4CCommonDialog@@6B@	; CCommonDialog::`vftable'
	DD	FLAT:?GetRuntimeClass@CDialog@@UBEPAUCRuntimeClass@@XZ
	DD	FLAT:__purecall
	DD	FLAT:?Serialize@CObject@@UAEXAAVCArchive@@@Z
	DD	FLAT:?AssertValid@CDialog@@UBEXXZ
	DD	FLAT:?Dump@CDialog@@UBEXAAVCDumpContext@@@Z
	DD	FLAT:?OnCmdMsg@CDialog@@UAEHIHPAXPAUAFX_CMDHANDLERINFO@@@Z
	DD	FLAT:?OnFinalRelease@CWnd@@UAEXXZ
	DD	FLAT:?IsInvokeAllowed@CCmdTarget@@UAEHJ@Z
	DD	FLAT:?GetDispatchIID@CCmdTarget@@UAEHPAU_GUID@@@Z
	DD	FLAT:?GetTypeInfoCount@CCmdTarget@@UAEIXZ
	DD	FLAT:?GetTypeLibCache@CCmdTarget@@UAEPAVCTypeLibCache@@XZ
	DD	FLAT:?GetTypeLib@CCmdTarget@@UAEJKPAPAUITypeLib@@@Z
	DD	FLAT:?GetMessageMap@CCommonDialog@@MBEPBUAFX_MSGMAP@@XZ
	DD	FLAT:?GetCommandMap@CCmdTarget@@MBEPBUAFX_OLECMDMAP@@XZ
	DD	FLAT:?GetDispatchMap@CCmdTarget@@MBEPBUAFX_DISPMAP@@XZ
	DD	FLAT:?GetConnectionMap@CCmdTarget@@MBEPBUAFX_CONNECTIONMAP@@XZ
	DD	FLAT:?GetInterfaceMap@CWnd@@MBEPBUAFX_INTERFACEMAP@@XZ
	DD	FLAT:?GetEventSinkMap@CCmdTarget@@MBEPBUAFX_EVENTSINKMAP@@XZ
	DD	FLAT:?OnCreateAggregates@CCmdTarget@@UAEHXZ
	DD	FLAT:?GetInterfaceHook@CCmdTarget@@UAEPAUIUnknown@@PBX@Z
	DD	FLAT:?GetExtraConnectionPoints@CCmdTarget@@MAEHPAVCPtrArray@@@Z
	DD	FLAT:?GetConnectionHook@CCmdTarget@@MAEPAUIConnectionPoint@@ABU_GUID@@@Z
	DD	FLAT:?PreSubclassWindow@CWnd@@UAEXXZ
	DD	FLAT:?Create@CWnd@@UAEHPBD0KABUtagRECT@@PAV1@IPAUCCreateContext@@@Z
	DD	FLAT:?CreateEx@CWnd@@UAEHKPBD0KABUtagRECT@@PAV1@IPAX@Z
	DD	FLAT:?CreateEx@CWnd@@UAEHKPBD0KHHHHPAUHWND__@@PAUHMENU__@@PAX@Z
	DD	FLAT:?DestroyWindow@CWnd@@UAEHXZ
	DD	FLAT:?PreCreateWindow@CWnd@@UAEHAAUtagCREATESTRUCTA@@@Z
	DD	FLAT:?CalcWindowRect@CWnd@@UAEXPAUtagRECT@@I@Z
	DD	FLAT:?OnToolHitTest@CWnd@@UBEHVCPoint@@PAUtagTOOLINFOA@@@Z
	DD	FLAT:?GetScrollBarCtrl@CWnd@@UBEPAVCScrollBar@@H@Z
	DD	FLAT:?WinHelpA@CWnd@@UAEXKI@Z
	DD	FLAT:?HtmlHelpA@CWnd@@UAEXKI@Z
	DD	FLAT:?WinHelpInternal@CWnd@@UAEXKI@Z
	DD	FLAT:?ContinueModal@CWnd@@UAEHXZ
	DD	FLAT:?EndModalLoop@CWnd@@UAEXH@Z
	DD	FLAT:?EnsureStdObj@CWnd@@UAEJXZ
	DD	FLAT:?get_accParent@CWnd@@UAEJPAPAUIDispatch@@@Z
	DD	FLAT:?get_accChildCount@CWnd@@UAEJPAJ@Z
	DD	FLAT:?get_accChild@CWnd@@UAEJUtagVARIANT@@PAPAUIDispatch@@@Z
	DD	FLAT:?get_accName@CWnd@@UAEJUtagVARIANT@@PAPA_W@Z
	DD	FLAT:?get_accValue@CWnd@@UAEJUtagVARIANT@@PAPA_W@Z
	DD	FLAT:?get_accDescription@CWnd@@UAEJUtagVARIANT@@PAPA_W@Z
	DD	FLAT:?get_accRole@CWnd@@UAEJUtagVARIANT@@PAU2@@Z
	DD	FLAT:?get_accState@CWnd@@UAEJUtagVARIANT@@PAU2@@Z
	DD	FLAT:?get_accHelp@CWnd@@UAEJUtagVARIANT@@PAPA_W@Z
	DD	FLAT:?get_accHelpTopic@CWnd@@UAEJPAPA_WUtagVARIANT@@PAJ@Z
	DD	FLAT:?get_accKeyboardShortcut@CWnd@@UAEJUtagVARIANT@@PAPA_W@Z
	DD	FLAT:?get_accFocus@CWnd@@UAEJPAUtagVARIANT@@@Z
	DD	FLAT:?get_accSelection@CWnd@@UAEJPAUtagVARIANT@@@Z
	DD	FLAT:?get_accDefaultAction@CWnd@@UAEJUtagVARIANT@@PAPA_W@Z
	DD	FLAT:?accSelect@CWnd@@UAEJJUtagVARIANT@@@Z
	DD	FLAT:?accLocation@CWnd@@UAEJPAJ000UtagVARIANT@@@Z
	DD	FLAT:?accNavigate@CWnd@@UAEJJUtagVARIANT@@PAU2@@Z
	DD	FLAT:?accHitTest@CWnd@@UAEJJJPAUtagVARIANT@@@Z
	DD	FLAT:?accDoDefaultAction@CWnd@@UAEJUtagVARIANT@@@Z
	DD	FLAT:?put_accName@CWnd@@UAEJUtagVARIANT@@PA_W@Z
	DD	FLAT:?put_accValue@CWnd@@UAEJUtagVARIANT@@PA_W@Z
	DD	FLAT:?SetProxy@CWnd@@UAEJPAUIAccessibleProxy@@@Z
	DD	FLAT:?CreateAccessibleProxy@CWnd@@UAEJIJPAJ@Z
	DD	FLAT:?OnCommand@CWnd@@MAEHIJ@Z
	DD	FLAT:?OnNotify@CWnd@@MAEHIJPAJ@Z
	DD	FLAT:?GetSuperWndProcAddr@CWnd@@MAEPAP6GJPAUHWND__@@IIJ@ZXZ
	DD	FLAT:?DoDataExchange@CWnd@@MAEXPAVCDataExchange@@@Z
	DD	FLAT:?BeginModalState@CWnd@@UAEXXZ
	DD	FLAT:?EndModalState@CWnd@@UAEXXZ
	DD	FLAT:?PreTranslateMessage@CDialog@@UAEHPAUtagMSG@@@Z
	DD	FLAT:?OnAmbientProperty@CWnd@@UAEHPAVCOleControlSite@@JPAUtagVARIANT@@@Z
	DD	FLAT:?WindowProc@CWnd@@MAEJIIJ@Z
	DD	FLAT:?OnWndMsg@CWnd@@MAEHIIJPAJ@Z
	DD	FLAT:?DefWindowProcA@CWnd@@MAEJIIJ@Z
	DD	FLAT:?PostNcDestroy@CWnd@@MAEXXZ
	DD	FLAT:?OnChildNotify@CWnd@@MAEHIIJPAJ@Z
	DD	FLAT:?CheckAutoCenter@CDialog@@UAEHXZ
	DD	FLAT:?IsFrameWnd@CWnd@@UBEHXZ
	DD	FLAT:?CreateControlContainer@CWnd@@MAEHPAPAVCOleControlContainer@@@Z
	DD	FLAT:?CreateControlSite@CWnd@@MAEHPAVCOleControlContainer@@PAPAVCOleControlSite@@IABU_GUID@@@Z
	DD	FLAT:?SetOccDialogInfo@CDialog@@MAEHPAU_AFX_OCC_DIALOG_INFO@@@Z
	DD	FLAT:?Create@CDialog@@UAEHIPAVCWnd@@@Z
	DD	FLAT:?Create@CDialog@@UAEHPBDPAVCWnd@@@Z
	DD	FLAT:?CreateIndirect@CDialog@@UAEHPAXPAVCWnd@@@Z
	DD	FLAT:?CreateIndirect@CDialog@@UAEHPBUDLGTEMPLATE@@PAVCWnd@@PAX@Z
	DD	FLAT:?DoModal@CDialog@@UAEHXZ
	DD	FLAT:?OnInitDialog@CDialog@@UAEHXZ
	DD	FLAT:?OnSetFont@CDialog@@UAEXPAVCFont@@@Z
	DD	FLAT:?OnOK@CCommonDialog@@MAEXXZ
	DD	FLAT:?OnCancel@CCommonDialog@@MAEXXZ
	DD	FLAT:?PreInitDialog@CDialog@@MAEXXZ
CONST	ENDS
;	COMDAT ??_R4CCommonDialog@@6B@
rdata$r	SEGMENT
??_R4CCommonDialog@@6B@ DD 00H				; CCommonDialog::`RTTI Complete Object Locator'
	DD	00H
	DD	00H
	DD	FLAT:??_R0?AVCCommonDialog@@@8
	DD	FLAT:??_R3CCommonDialog@@8
rdata$r	ENDS
;	COMDAT ??_R0?AVCCommonDialog@@@8
_DATA	SEGMENT
??_R0?AVCCommonDialog@@@8 DD FLAT:??_7type_info@@6B@	; CCommonDialog `RTTI Type Descriptor'
	DD	00H
	DB	'.?AVCCommonDialog@@', 00H
_DATA	ENDS
;	COMDAT ??_R3CCommonDialog@@8
rdata$r	SEGMENT
??_R3CCommonDialog@@8 DD 00H				; CCommonDialog::`RTTI Class Hierarchy Descriptor'
	DD	00H
	DD	05H
	DD	FLAT:??_R2CCommonDialog@@8
rdata$r	ENDS
;	COMDAT ??_R2CCommonDialog@@8
rdata$r	SEGMENT
??_R2CCommonDialog@@8 DD FLAT:??_R1A@?0A@A@CCommonDialog@@8 ; CCommonDialog::`RTTI Base Class Array'
	DD	FLAT:??_R1A@?0A@A@CDialog@@8
	DD	FLAT:??_R1A@?0A@A@CWnd@@8
	DD	FLAT:??_R1A@?0A@A@CCmdTarget@@8
	DD	FLAT:??_R1A@?0A@A@CObject@@8
rdata$r	ENDS
;	COMDAT ??_R1A@?0A@A@CCommonDialog@@8
rdata$r	SEGMENT
??_R1A@?0A@A@CCommonDialog@@8 DD FLAT:??_R0?AVCCommonDialog@@@8 ; CCommonDialog::`RTTI Base Class Descriptor at (0,-1,0,0)'
	DD	04H
	DD	00H
	DD	0ffffffffH
	DD	00H
	DD	00H
rdata$r	ENDS
;	COMDAT ??_R1A@?0A@A@CDialog@@8
rdata$r	SEGMENT
??_R1A@?0A@A@CDialog@@8 DD FLAT:??_R0?AVCDialog@@@8	; CDialog::`RTTI Base Class Descriptor at (0,-1,0,0)'
	DD	03H
	DD	00H
	DD	0ffffffffH
	DD	00H
	DD	00H
rdata$r	ENDS
;	COMDAT ??_R0?AVCDialog@@@8
_DATA	SEGMENT
??_R0?AVCDialog@@@8 DD FLAT:??_7type_info@@6B@		; CDialog `RTTI Type Descriptor'
	DD	00H
	DB	'.?AVCDialog@@', 00H
; Function compile flags: /Odt /RTCsu
_DATA	ENDS
;	COMDAT ??1CCommonDialog@@UAE@XZ
_TEXT	SEGMENT
_this$ = -4						; size = 4
??1CCommonDialog@@UAE@XZ PROC NEAR			; CCommonDialog::~CCommonDialog, COMDAT
; _this$ = ecx

; 107  : 	virtual ~CCommonDialog() = 0 { }

  00000	55		 push	 ebp
  00001	8b ec		 mov	 ebp, esp
  00003	51		 push	 ecx
  00004	c7 45 fc cc cc
	cc cc		 mov	 DWORD PTR [ebp-4], -858993460 ; ccccccccH
  0000b	89 4d fc	 mov	 DWORD PTR _this$[ebp], ecx
  0000e	8b 45 fc	 mov	 eax, DWORD PTR _this$[ebp]
  00011	c7 00 00 00 00
	00		 mov	 DWORD PTR [eax], OFFSET FLAT:??_7CCommonDialog@@6B@
  00017	8b 4d fc	 mov	 ecx, DWORD PTR _this$[ebp]
  0001a	e8 00 00 00 00	 call	 ??1CDialog@@UAE@XZ	; CDialog::~CDialog
  0001f	83 c4 04	 add	 esp, 4
  00022	3b ec		 cmp	 ebp, esp
  00024	e8 00 00 00 00	 call	 __RTC_CheckEsp
  00029	8b e5		 mov	 esp, ebp
  0002b	5d		 pop	 ebp
  0002c	c3		 ret	 0
??1CCommonDialog@@UAE@XZ ENDP				; CCommonDialog::~CCommonDialog
; Function compile flags: /Odt /RTCsu
; File d:\program files (x86)\microsoft visual studio .net 2003\vc7\include\xutility
_TEXT	ENDS
;	COMDAT ?_Ptr_cat@std@@YA?AU_Scalar_ptr_iterator_tag@1@PAK0@Z
_TEXT	SEGMENT
__Cat$ = -5						; size = 1
___formal$ = 8						; size = 4
___formal$ = 12						; size = 4
?_Ptr_cat@std@@YA?AU_Scalar_ptr_iterator_tag@1@PAK0@Z PROC NEAR ; std::_Ptr_cat, COMDAT

; 371  : 	{	// return pointer category from pointer to unsigned long arguments

  00000	55		 push	 ebp
  00001	8b ec		 mov	 ebp, esp
  00003	83 ec 0c	 sub	 esp, 12			; 0000000cH
  00006	c7 45 f4 cc cc
	cc cc		 mov	 DWORD PTR [ebp-12], -858993460 ; ccccccccH
  0000d	c7 45 f8 cc cc
	cc cc		 mov	 DWORD PTR [ebp-8], -858993460 ; ccccccccH
  00014	c7 45 fc cc cc
	cc cc		 mov	 DWORD PTR [ebp-4], -858993460 ; ccccccccH

; 372  : 	_Scalar_ptr_iterator_tag _Cat;
; 373  : 	return (_Cat);

  0001b	8a 45 fb	 mov	 al, BYTE PTR __Cat$[ebp]

; 374  : 	}

  0001e	52		 push	 edx
  0001f	8b cd		 mov	 ecx, ebp
  00021	50		 push	 eax
  00022	8d 15 00 00 00
	00		 lea	 edx, DWORD PTR $L194856
  00028	e8 00 00 00 00	 call	 @_RTC_CheckStackVars@8
  0002d	58		 pop	 eax
  0002e	5a		 pop	 edx
  0002f	8b e5		 mov	 esp, ebp
  00031	5d		 pop	 ebp
  00032	c3		 ret	 0
$L194856:
  00033	01 00 00 00	 DD	 1
  00037	00 00 00 00	 DD	 $L194855
$L194855:
  0003b	fb ff ff ff	 DD	 -5			; fffffffbH
  0003f	01 00 00 00	 DD	 1
  00043	00 00 00 00	 DD	 $L194854
$L194854:
  00047	5f		 DB	 95			; 0000005fH
  00048	43		 DB	 67			; 00000043H
  00049	61		 DB	 97			; 00000061H
  0004a	74		 DB	 116			; 00000074H
  0004b	00		 DB	 0
?_Ptr_cat@std@@YA?AU_Scalar_ptr_iterator_tag@1@PAK0@Z ENDP ; std::_Ptr_cat
; Function compile flags: /Odt /RTCsu
; File d:\program files (x86)\microsoft visual studio .net 2003\vc7\include\stdexcept
_TEXT	ENDS
;	COMDAT ?what@logic_error@std@@UBEPBDXZ
_TEXT	SEGMENT
_this$ = -4						; size = 4
?what@logic_error@std@@UBEPBDXZ PROC NEAR		; std::logic_error::what, COMDAT
; _this$ = ecx

; 26   : 		{	// return pointer to message string

  00000	55		 push	 ebp
  00001	8b ec		 mov	 ebp, esp
  00003	51		 push	 ecx
  00004	56		 push	 esi
  00005	c7 45 fc cc cc
	cc cc		 mov	 DWORD PTR [ebp-4], -858993460 ; ccccccccH
  0000c	89 4d fc	 mov	 DWORD PTR _this$[ebp], ecx

; 27   : 		return (_Str.c_str());

  0000f	8b 4d fc	 mov	 ecx, DWORD PTR _this$[ebp]
  00012	83 c1 0c	 add	 ecx, 12			; 0000000cH
  00015	8b f4		 mov	 esi, esp
  00017	ff 15 00 00 00
	00		 call	 DWORD PTR __imp_?c_str@?$basic_string@DU?$char_traits@D@std@@V?$allocator@D@2@@std@@QBEPBDXZ
  0001d	3b f4		 cmp	 esi, esp
  0001f	e8 00 00 00 00	 call	 __RTC_CheckEsp

; 28   : 		}

  00024	5e		 pop	 esi
  00025	83 c4 04	 add	 esp, 4
  00028	3b ec		 cmp	 ebp, esp
  0002a	e8 00 00 00 00	 call	 __RTC_CheckEsp
  0002f	8b e5		 mov	 esp, ebp
  00031	5d		 pop	 ebp
  00032	c3		 ret	 0
?what@logic_error@std@@UBEPBDXZ ENDP			; std::logic_error::what
_TEXT	ENDS
PUBLIC	??0logic_error@std@@QAE@ABV?$basic_string@DU?$char_traits@D@std@@V?$allocator@D@2@@1@@Z ; std::logic_error::logic_error
; Function compile flags: /Odt /RTCsu
;	COMDAT ??0length_error@std@@QAE@ABV?$basic_string@DU?$char_traits@D@std@@V?$allocator@D@2@@1@@Z
_TEXT	SEGMENT
_this$ = -4						; size = 4
__Message$ = 8						; size = 4
??0length_error@std@@QAE@ABV?$basic_string@DU?$char_traits@D@std@@V?$allocator@D@2@@1@@Z PROC NEAR ; std::length_error::length_error, COMDAT
; _this$ = ecx

; 95   : 		{	// construct from message string

  00000	55		 push	 ebp
  00001	8b ec		 mov	 ebp, esp
  00003	51		 push	 ecx
  00004	c7 45 fc cc cc
	cc cc		 mov	 DWORD PTR [ebp-4], -858993460 ; ccccccccH
  0000b	89 4d fc	 mov	 DWORD PTR _this$[ebp], ecx
  0000e	8b 45 08	 mov	 eax, DWORD PTR __Message$[ebp]
  00011	50		 push	 eax
  00012	8b 4d fc	 mov	 ecx, DWORD PTR _this$[ebp]
  00015	e8 00 00 00 00	 call	 ??0logic_error@std@@QAE@ABV?$basic_string@DU?$char_traits@D@std@@V?$allocator@D@2@@1@@Z ; std::logic_error::logic_error
  0001a	8b 4d fc	 mov	 ecx, DWORD PTR _this$[ebp]
  0001d	c7 01 00 00 00
	00		 mov	 DWORD PTR [ecx], OFFSET FLAT:??_7length_error@std@@6B@

; 96   : 		}

  00023	8b 45 fc	 mov	 eax, DWORD PTR _this$[ebp]
  00026	83 c4 04	 add	 esp, 4
  00029	3b ec		 cmp	 ebp, esp
  0002b	e8 00 00 00 00	 call	 __RTC_CheckEsp
  00030	8b e5		 mov	 esp, ebp
  00032	5d		 pop	 ebp
  00033	c2 04 00	 ret	 4
??0length_error@std@@QAE@ABV?$basic_string@DU?$char_traits@D@std@@V?$allocator@D@2@@1@@Z ENDP ; std::length_error::length_error
_TEXT	ENDS
PUBLIC	??_7logic_error@std@@6B@			; std::logic_error::`vftable'
PUBLIC	??_Glogic_error@std@@UAEPAXI@Z			; std::logic_error::`scalar deleting destructor'
PUBLIC	??_R4logic_error@std@@6B@			; std::logic_error::`RTTI Complete Object Locator'
PUBLIC	??_R3logic_error@std@@8				; std::logic_error::`RTTI Class Hierarchy Descriptor'
PUBLIC	??_R2logic_error@std@@8				; std::logic_error::`RTTI Base Class Array'
EXTRN	__imp_??0exception@@QAE@XZ:NEAR
EXTRN	__imp_??1exception@@UAE@XZ:NEAR
EXTRN	__imp_??0?$basic_string@DU?$char_traits@D@std@@V?$allocator@D@2@@std@@QAE@ABV01@@Z:NEAR
EXTRN	??_Elogic_error@std@@UAEPAXI@Z:NEAR		; std::logic_error::`vector deleting destructor'
;	COMDAT xdata$x
xdata$x	SEGMENT
$T194866 DD	0ffffffffH
	DD	FLAT:$L194861
$T194864 DD	019930520H
	DD	01H
	DD	FLAT:$T194866
	DD	2 DUP(00H)
	DD	2 DUP(00H)
xdata$x	ENDS
;	COMDAT ??_7logic_error@std@@6B@
CONST	SEGMENT
??_7logic_error@std@@6B@ DD FLAT:??_R4logic_error@std@@6B@ ; std::logic_error::`vftable'
	DD	FLAT:??_Elogic_error@std@@UAEPAXI@Z
	DD	FLAT:?what@logic_error@std@@UBEPBDXZ
CONST	ENDS
;	COMDAT ??_R4logic_error@std@@6B@
rdata$r	SEGMENT
??_R4logic_error@std@@6B@ DD 00H			; std::logic_error::`RTTI Complete Object Locator'
	DD	00H
	DD	00H
	DD	FLAT:??_R0?AVlogic_error@std@@@8
	DD	FLAT:??_R3logic_error@std@@8
rdata$r	ENDS
;	COMDAT ??_R3logic_error@std@@8
rdata$r	SEGMENT
??_R3logic_error@std@@8 DD 00H				; std::logic_error::`RTTI Class Hierarchy Descriptor'
	DD	00H
	DD	02H
	DD	FLAT:??_R2logic_error@std@@8
rdata$r	ENDS
;	COMDAT ??_R2logic_error@std@@8
rdata$r	SEGMENT
??_R2logic_error@std@@8 DD FLAT:??_R1A@?0A@A@logic_error@std@@8 ; std::logic_error::`RTTI Base Class Array'
	DD	FLAT:??_R1A@?0A@A@exception@@8
; Function compile flags: /Odt /RTCsu
rdata$r	ENDS
;	COMDAT ??0logic_error@std@@QAE@ABV?$basic_string@DU?$char_traits@D@std@@V?$allocator@D@2@@1@@Z
_TEXT	SEGMENT
_this$ = -16						; size = 4
__$EHRec$ = -12						; size = 12
__Message$ = 8						; size = 4
??0logic_error@std@@QAE@ABV?$basic_string@DU?$char_traits@D@std@@V?$allocator@D@2@@1@@Z PROC NEAR ; std::logic_error::logic_error, COMDAT
; _this$ = ecx

; 19   : 		{	// construct from message string

  00000	55		 push	 ebp
  00001	8b ec		 mov	 ebp, esp
  00003	6a ff		 push	 -1
  00005	68 00 00 00 00	 push	 __ehhandler$??0logic_error@std@@QAE@ABV?$basic_string@DU?$char_traits@D@std@@V?$allocator@D@2@@1@@Z
  0000a	64 a1 00 00 00
	00		 mov	 eax, DWORD PTR fs:__except_list
  00010	50		 push	 eax
  00011	64 89 25 00 00
	00 00		 mov	 DWORD PTR fs:__except_list, esp
  00018	51		 push	 ecx
  00019	56		 push	 esi
  0001a	c7 45 f0 cc cc
	cc cc		 mov	 DWORD PTR [ebp-16], -858993460 ; ccccccccH
  00021	89 4d f0	 mov	 DWORD PTR _this$[ebp], ecx
  00024	8b f4		 mov	 esi, esp
  00026	8b 4d f0	 mov	 ecx, DWORD PTR _this$[ebp]
  00029	ff 15 00 00 00
	00		 call	 DWORD PTR __imp_??0exception@@QAE@XZ
  0002f	3b f4		 cmp	 esi, esp
  00031	e8 00 00 00 00	 call	 __RTC_CheckEsp
  00036	c7 45 fc 00 00
	00 00		 mov	 DWORD PTR __$EHRec$[ebp+8], 0
  0003d	8b 45 f0	 mov	 eax, DWORD PTR _this$[ebp]
  00040	c7 00 00 00 00
	00		 mov	 DWORD PTR [eax], OFFSET FLAT:??_7logic_error@std@@6B@
  00046	8b f4		 mov	 esi, esp
  00048	8b 4d 08	 mov	 ecx, DWORD PTR __Message$[ebp]
  0004b	51		 push	 ecx
  0004c	8b 4d f0	 mov	 ecx, DWORD PTR _this$[ebp]
  0004f	83 c1 0c	 add	 ecx, 12			; 0000000cH
  00052	ff 15 00 00 00
	00		 call	 DWORD PTR __imp_??0?$basic_string@DU?$char_traits@D@std@@V?$allocator@D@2@@std@@QAE@ABV01@@Z
  00058	3b f4		 cmp	 esi, esp
  0005a	e8 00 00 00 00	 call	 __RTC_CheckEsp

; 20   : 		}

  0005f	c7 45 fc ff ff
	ff ff		 mov	 DWORD PTR __$EHRec$[ebp+8], -1
  00066	8b 45 f0	 mov	 eax, DWORD PTR _this$[ebp]
  00069	8b 4d f4	 mov	 ecx, DWORD PTR __$EHRec$[ebp]
  0006c	64 89 0d 00 00
	00 00		 mov	 DWORD PTR fs:__except_list, ecx
  00073	5e		 pop	 esi
  00074	83 c4 10	 add	 esp, 16			; 00000010H
  00077	3b ec		 cmp	 ebp, esp
  00079	e8 00 00 00 00	 call	 __RTC_CheckEsp
  0007e	8b e5		 mov	 esp, ebp
  00080	5d		 pop	 ebp
  00081	c2 04 00	 ret	 4
_TEXT	ENDS
;	COMDAT text$x
text$x	SEGMENT
$L194861:
  00000	8b f4		 mov	 esi, esp
  00002	8b 4d f0	 mov	 ecx, DWORD PTR _this$[ebp]
  00005	ff 15 00 00 00
	00		 call	 DWORD PTR __imp_??1exception@@UAE@XZ
  0000b	3b f4		 cmp	 esi, esp
  0000d	e9 00 00 00 00	 jmp	 __RTC_CheckEsp
__ehhandler$??0logic_error@std@@QAE@ABV?$basic_string@DU?$char_traits@D@std@@V?$allocator@D@2@@1@@Z:
  00012	b8 00 00 00 00	 mov	 eax, OFFSET FLAT:$T194864
  00017	e9 00 00 00 00	 jmp	 ___CxxFrameHandler
text$x	ENDS
??0logic_error@std@@QAE@ABV?$basic_string@DU?$char_traits@D@std@@V?$allocator@D@2@@1@@Z ENDP ; std::logic_error::logic_error
PUBLIC	??1logic_error@std@@UAE@XZ			; std::logic_error::~logic_error
; Function compile flags: /Odt /RTCsu
;	COMDAT ??_Glogic_error@std@@UAEPAXI@Z
_TEXT	SEGMENT
_this$ = -4						; size = 4
___flags$ = 8						; size = 4
??_Glogic_error@std@@UAEPAXI@Z PROC NEAR		; std::logic_error::`scalar deleting destructor', COMDAT
; _this$ = ecx
  00000	55		 push	 ebp
  00001	8b ec		 mov	 ebp, esp
  00003	51		 push	 ecx
  00004	c7 45 fc cc cc
	cc cc		 mov	 DWORD PTR [ebp-4], -858993460 ; ccccccccH
  0000b	89 4d fc	 mov	 DWORD PTR _this$[ebp], ecx
  0000e	8b 4d fc	 mov	 ecx, DWORD PTR _this$[ebp]
  00011	e8 00 00 00 00	 call	 ??1logic_error@std@@UAE@XZ ; std::logic_error::~logic_error
  00016	8b 45 08	 mov	 eax, DWORD PTR ___flags$[ebp]
  00019	83 e0 01	 and	 eax, 1
  0001c	74 0c		 je	 SHORT $L91647
  0001e	8b 4d fc	 mov	 ecx, DWORD PTR _this$[ebp]
  00021	51		 push	 ecx
  00022	e8 00 00 00 00	 call	 ??3@YAXPAX@Z		; operator delete
  00027	83 c4 04	 add	 esp, 4
$L91647:
  0002a	8b 45 fc	 mov	 eax, DWORD PTR _this$[ebp]
  0002d	83 c4 04	 add	 esp, 4
  00030	3b ec		 cmp	 ebp, esp
  00032	e8 00 00 00 00	 call	 __RTC_CheckEsp
  00037	8b e5		 mov	 esp, ebp
  00039	5d		 pop	 ebp
  0003a	c2 04 00	 ret	 4
??_Glogic_error@std@@UAEPAXI@Z ENDP			; std::logic_error::`scalar deleting destructor'
_TEXT	ENDS
;	COMDAT xdata$x
xdata$x	SEGMENT
$T194876 DD	0ffffffffH
	DD	FLAT:$L194871
$T194874 DD	019930520H
	DD	01H
	DD	FLAT:$T194876
	DD	2 DUP(00H)
	DD	2 DUP(00H)
; Function compile flags: /Odt /RTCsu
xdata$x	ENDS
;	COMDAT ??1logic_error@std@@UAE@XZ
_TEXT	SEGMENT
_this$ = -16						; size = 4
__$EHRec$ = -12						; size = 12
??1logic_error@std@@UAE@XZ PROC NEAR			; std::logic_error::~logic_error, COMDAT
; _this$ = ecx

; 23   : 		{}	// destroy the object

  00000	55		 push	 ebp
  00001	8b ec		 mov	 ebp, esp
  00003	6a ff		 push	 -1
  00005	68 00 00 00 00	 push	 __ehhandler$??1logic_error@std@@UAE@XZ
  0000a	64 a1 00 00 00
	00		 mov	 eax, DWORD PTR fs:__except_list
  00010	50		 push	 eax
  00011	64 89 25 00 00
	00 00		 mov	 DWORD PTR fs:__except_list, esp
  00018	51		 push	 ecx
  00019	56		 push	 esi
  0001a	c7 45 f0 cc cc
	cc cc		 mov	 DWORD PTR [ebp-16], -858993460 ; ccccccccH
  00021	89 4d f0	 mov	 DWORD PTR _this$[ebp], ecx
  00024	8b 45 f0	 mov	 eax, DWORD PTR _this$[ebp]
  00027	c7 00 00 00 00
	00		 mov	 DWORD PTR [eax], OFFSET FLAT:??_7logic_error@std@@6B@
  0002d	c7 45 fc 00 00
	00 00		 mov	 DWORD PTR __$EHRec$[ebp+8], 0
  00034	8b 4d f0	 mov	 ecx, DWORD PTR _this$[ebp]
  00037	83 c1 0c	 add	 ecx, 12			; 0000000cH
  0003a	8b f4		 mov	 esi, esp
  0003c	ff 15 00 00 00
	00		 call	 DWORD PTR __imp_??1?$basic_string@DU?$char_traits@D@std@@V?$allocator@D@2@@std@@QAE@XZ
  00042	3b f4		 cmp	 esi, esp
  00044	e8 00 00 00 00	 call	 __RTC_CheckEsp
  00049	c7 45 fc ff ff
	ff ff		 mov	 DWORD PTR __$EHRec$[ebp+8], -1
  00050	8b f4		 mov	 esi, esp
  00052	8b 4d f0	 mov	 ecx, DWORD PTR _this$[ebp]
  00055	ff 15 00 00 00
	00		 call	 DWORD PTR __imp_??1exception@@UAE@XZ
  0005b	3b f4		 cmp	 esi, esp
  0005d	e8 00 00 00 00	 call	 __RTC_CheckEsp
  00062	8b 4d f4	 mov	 ecx, DWORD PTR __$EHRec$[ebp]
  00065	64 89 0d 00 00
	00 00		 mov	 DWORD PTR fs:__except_list, ecx
  0006c	5e		 pop	 esi
  0006d	83 c4 10	 add	 esp, 16			; 00000010H
  00070	3b ec		 cmp	 ebp, esp
  00072	e8 00 00 00 00	 call	 __RTC_CheckEsp
  00077	8b e5		 mov	 esp, ebp
  00079	5d		 pop	 ebp
  0007a	c3		 ret	 0
_TEXT	ENDS
;	COMDAT text$x
text$x	SEGMENT
$L194871:
  00000	8b f4		 mov	 esi, esp
  00002	8b 4d f0	 mov	 ecx, DWORD PTR _this$[ebp]
  00005	ff 15 00 00 00
	00		 call	 DWORD PTR __imp_??1exception@@UAE@XZ
  0000b	3b f4		 cmp	 esi, esp
  0000d	e9 00 00 00 00	 jmp	 __RTC_CheckEsp
__ehhandler$??1logic_error@std@@UAE@XZ:
  00012	b8 00 00 00 00	 mov	 eax, OFFSET FLAT:$T194874
  00017	e9 00 00 00 00	 jmp	 ___CxxFrameHandler
text$x	ENDS
??1logic_error@std@@UAE@XZ ENDP				; std::logic_error::~logic_error
; Function compile flags: /Odt /RTCsu
;	COMDAT ??1length_error@std@@UAE@XZ
_TEXT	SEGMENT
_this$ = -4						; size = 4
??1length_error@std@@UAE@XZ PROC NEAR			; std::length_error::~length_error, COMDAT
; _this$ = ecx

; 99   : 		{}	// destroy the object

  00000	55		 push	 ebp
  00001	8b ec		 mov	 ebp, esp
  00003	51		 push	 ecx
  00004	c7 45 fc cc cc
	cc cc		 mov	 DWORD PTR [ebp-4], -858993460 ; ccccccccH
  0000b	89 4d fc	 mov	 DWORD PTR _this$[ebp], ecx
  0000e	8b 45 fc	 mov	 eax, DWORD PTR _this$[ebp]
  00011	c7 00 00 00 00
	00		 mov	 DWORD PTR [eax], OFFSET FLAT:??_7length_error@std@@6B@
  00017	8b 4d fc	 mov	 ecx, DWORD PTR _this$[ebp]
  0001a	e8 00 00 00 00	 call	 ??1logic_error@std@@UAE@XZ ; std::logic_error::~logic_error
  0001f	83 c4 04	 add	 esp, 4
  00022	3b ec		 cmp	 ebp, esp
  00024	e8 00 00 00 00	 call	 __RTC_CheckEsp
  00029	8b e5		 mov	 esp, ebp
  0002b	5d		 pop	 ebp
  0002c	c3		 ret	 0
??1length_error@std@@UAE@XZ ENDP			; std::length_error::~length_error
; Function compile flags: /Odt /RTCsu
_TEXT	ENDS
;	COMDAT ??_Glength_error@std@@UAEPAXI@Z
_TEXT	SEGMENT
_this$ = -4						; size = 4
___flags$ = 8						; size = 4
??_Glength_error@std@@UAEPAXI@Z PROC NEAR		; std::length_error::`scalar deleting destructor', COMDAT
; _this$ = ecx
  00000	55		 push	 ebp
  00001	8b ec		 mov	 ebp, esp
  00003	51		 push	 ecx
  00004	c7 45 fc cc cc
	cc cc		 mov	 DWORD PTR [ebp-4], -858993460 ; ccccccccH
  0000b	89 4d fc	 mov	 DWORD PTR _this$[ebp], ecx
  0000e	8b 4d fc	 mov	 ecx, DWORD PTR _this$[ebp]
  00011	e8 00 00 00 00	 call	 ??1length_error@std@@UAE@XZ ; std::length_error::~length_error
  00016	8b 45 08	 mov	 eax, DWORD PTR ___flags$[ebp]
  00019	83 e0 01	 and	 eax, 1
  0001c	74 0c		 je	 SHORT $L91713
  0001e	8b 4d fc	 mov	 ecx, DWORD PTR _this$[ebp]
  00021	51		 push	 ecx
  00022	e8 00 00 00 00	 call	 ??3@YAXPAX@Z		; operator delete
  00027	83 c4 04	 add	 esp, 4
$L91713:
  0002a	8b 45 fc	 mov	 eax, DWORD PTR _this$[ebp]
  0002d	83 c4 04	 add	 esp, 4
  00030	3b ec		 cmp	 ebp, esp
  00032	e8 00 00 00 00	 call	 __RTC_CheckEsp
  00037	8b e5		 mov	 esp, ebp
  00039	5d		 pop	 ebp
  0003a	c2 04 00	 ret	 4
??_Glength_error@std@@UAEPAXI@Z ENDP			; std::length_error::`scalar deleting destructor'
_TEXT	ENDS
EXTRN	__imp_??0exception@@QAE@ABV0@@Z:NEAR
;	COMDAT xdata$x
xdata$x	SEGMENT
$T194888 DD	0ffffffffH
	DD	FLAT:$L194883
$T194886 DD	019930520H
	DD	01H
	DD	FLAT:$T194888
	DD	2 DUP(00H)
	DD	2 DUP(00H)
; Function compile flags: /Odt /RTCsu
xdata$x	ENDS
;	COMDAT ??0logic_error@std@@QAE@ABV01@@Z
_TEXT	SEGMENT
_this$ = -16						; size = 4
__$EHRec$ = -12						; size = 12
___that$ = 8						; size = 4
??0logic_error@std@@QAE@ABV01@@Z PROC NEAR		; std::logic_error::logic_error, COMDAT
; _this$ = ecx
  00000	55		 push	 ebp
  00001	8b ec		 mov	 ebp, esp
  00003	6a ff		 push	 -1
  00005	68 00 00 00 00	 push	 __ehhandler$??0logic_error@std@@QAE@ABV01@@Z
  0000a	64 a1 00 00 00
	00		 mov	 eax, DWORD PTR fs:__except_list
  00010	50		 push	 eax
  00011	64 89 25 00 00
	00 00		 mov	 DWORD PTR fs:__except_list, esp
  00018	51		 push	 ecx
  00019	56		 push	 esi
  0001a	c7 45 f0 cc cc
	cc cc		 mov	 DWORD PTR [ebp-16], -858993460 ; ccccccccH
  00021	89 4d f0	 mov	 DWORD PTR _this$[ebp], ecx
  00024	8b f4		 mov	 esi, esp
  00026	8b 45 08	 mov	 eax, DWORD PTR ___that$[ebp]
  00029	50		 push	 eax
  0002a	8b 4d f0	 mov	 ecx, DWORD PTR _this$[ebp]
  0002d	ff 15 00 00 00
	00		 call	 DWORD PTR __imp_??0exception@@QAE@ABV0@@Z
  00033	3b f4		 cmp	 esi, esp
  00035	e8 00 00 00 00	 call	 __RTC_CheckEsp
  0003a	c7 45 fc 00 00
	00 00		 mov	 DWORD PTR __$EHRec$[ebp+8], 0
  00041	8b 4d f0	 mov	 ecx, DWORD PTR _this$[ebp]
  00044	c7 01 00 00 00
	00		 mov	 DWORD PTR [ecx], OFFSET FLAT:??_7logic_error@std@@6B@
  0004a	8b 55 08	 mov	 edx, DWORD PTR ___that$[ebp]
  0004d	83 c2 0c	 add	 edx, 12			; 0000000cH
  00050	8b f4		 mov	 esi, esp
  00052	52		 push	 edx
  00053	8b 4d f0	 mov	 ecx, DWORD PTR _this$[ebp]
  00056	83 c1 0c	 add	 ecx, 12			; 0000000cH
  00059	ff 15 00 00 00
	00		 call	 DWORD PTR __imp_??0?$basic_string@DU?$char_traits@D@std@@V?$allocator@D@2@@std@@QAE@ABV01@@Z
  0005f	3b f4		 cmp	 esi, esp
  00061	e8 00 00 00 00	 call	 __RTC_CheckEsp
  00066	c7 45 fc ff ff
	ff ff		 mov	 DWORD PTR __$EHRec$[ebp+8], -1
  0006d	8b 45 f0	 mov	 eax, DWORD PTR _this$[ebp]
  00070	8b 4d f4	 mov	 ecx, DWORD PTR __$EHRec$[ebp]
  00073	64 89 0d 00 00
	00 00		 mov	 DWORD PTR fs:__except_list, ecx
  0007a	5e		 pop	 esi
  0007b	83 c4 10	 add	 esp, 16			; 00000010H
  0007e	3b ec		 cmp	 ebp, esp
  00080	e8 00 00 00 00	 call	 __RTC_CheckEsp
  00085	8b e5		 mov	 esp, ebp
  00087	5d		 pop	 ebp
  00088	c2 04 00	 ret	 4
_TEXT	ENDS
;	COMDAT text$x
text$x	SEGMENT
$L194883:
  00000	8b f4		 mov	 esi, esp
  00002	8b 4d f0	 mov	 ecx, DWORD PTR _this$[ebp]
  00005	ff 15 00 00 00
	00		 call	 DWORD PTR __imp_??1exception@@UAE@XZ
  0000b	3b f4		 cmp	 esi, esp
  0000d	e9 00 00 00 00	 jmp	 __RTC_CheckEsp
__ehhandler$??0logic_error@std@@QAE@ABV01@@Z:
  00012	b8 00 00 00 00	 mov	 eax, OFFSET FLAT:$T194886
  00017	e9 00 00 00 00	 jmp	 ___CxxFrameHandler
text$x	ENDS
??0logic_error@std@@QAE@ABV01@@Z ENDP			; std::logic_error::logic_error
CRT$XCU	SEGMENT
_$S6	DD	FLAT:_$E5
; Function compile flags: /Odt /RTCsu
; File d:\boxgit\playbox\playbox\dev\prj\playbox\src\appconfig\config\configsettingdef.h
CRT$XCU	ENDS
;	COMDAT _$E5
text$yc	SEGMENT
_$E5	PROC NEAR					; COMDAT

; 25   : 	CONF_SETTING_SKIN_IDX,				TYPE_CONFIG_STR,

  00000	55		 push	 ebp
  00001	8b ec		 mov	 ebp, esp
  00003	a1 00 00 00 00	 mov	 eax, DWORD PTR _CONF_SETTING_SKIN_IDX
  00008	a3 00 00 00 00	 mov	 DWORD PTR _CONF_SETTING, eax
  0000d	8b 0d 00 00 00
	00		 mov	 ecx, DWORD PTR _TYPE_CONFIG_STR
  00013	89 0d 04 00 00
	00		 mov	 DWORD PTR _CONF_SETTING+4, ecx

; 26   : 	CONF_SETTING_CONFIG_MAIN_PAGE,		TYPE_CONFIG_STR,

  00019	8b 15 00 00 00
	00		 mov	 edx, DWORD PTR _CONF_SETTING_CONFIG_MAIN_PAGE
  0001f	89 15 08 00 00
	00		 mov	 DWORD PTR _CONF_SETTING+8, edx
  00025	a1 00 00 00 00	 mov	 eax, DWORD PTR _TYPE_CONFIG_STR
  0002a	a3 0c 00 00 00	 mov	 DWORD PTR _CONF_SETTING+12, eax

; 27   : 	CONF_SETTING_CONFIG_PROBLEM_REPORT,	TYPE_CONFIG_STR,

  0002f	8b 0d 00 00 00
	00		 mov	 ecx, DWORD PTR _CONF_SETTING_CONFIG_PROBLEM_REPORT
  00035	89 0d 10 00 00
	00		 mov	 DWORD PTR _CONF_SETTING+16, ecx
  0003b	8b 15 00 00 00
	00		 mov	 edx, DWORD PTR _TYPE_CONFIG_STR
  00041	89 15 14 00 00
	00		 mov	 DWORD PTR _CONF_SETTING+20, edx

; 28   : 	CONF_SETTING_CONFIG_HOME_PAGE,		TYPE_CONFIG_STR,

  00047	a1 00 00 00 00	 mov	 eax, DWORD PTR _CONF_SETTING_CONFIG_HOME_PAGE
  0004c	a3 18 00 00 00	 mov	 DWORD PTR _CONF_SETTING+24, eax
  00051	8b 0d 00 00 00
	00		 mov	 ecx, DWORD PTR _TYPE_CONFIG_STR
  00057	89 0d 1c 00 00
	00		 mov	 DWORD PTR _CONF_SETTING+28, ecx

; 29   : 	CONF_SETTING_CONFIG_IFASKEXIT,		TYPE_CONFIG_BOOL,

  0005d	8b 15 00 00 00
	00		 mov	 edx, DWORD PTR _CONF_SETTING_CONFIG_IFASKEXIT
  00063	89 15 20 00 00
	00		 mov	 DWORD PTR _CONF_SETTING+32, edx
  00069	a1 00 00 00 00	 mov	 eax, DWORD PTR _TYPE_CONFIG_BOOL
  0006e	a3 24 00 00 00	 mov	 DWORD PTR _CONF_SETTING+36, eax

; 30   : 	CONF_SETTING_CONFIG_EXITCHOICE,		TYPE_CONFIG_BOOL,

  00073	8b 0d 00 00 00
	00		 mov	 ecx, DWORD PTR _CONF_SETTING_CONFIG_EXITCHOICE
  00079	89 0d 28 00 00
	00		 mov	 DWORD PTR _CONF_SETTING+40, ecx
  0007f	8b 15 00 00 00
	00		 mov	 edx, DWORD PTR _TYPE_CONFIG_BOOL
  00085	89 15 2c 00 00
	00		 mov	 DWORD PTR _CONF_SETTING+44, edx

; 31   : 	CONF_SETTING_LOGIN_USER_NAME,		TYPE_CONFIG_STR,

  0008b	a1 00 00 00 00	 mov	 eax, DWORD PTR _CONF_SETTING_LOGIN_USER_NAME
  00090	a3 30 00 00 00	 mov	 DWORD PTR _CONF_SETTING+48, eax
  00095	8b 0d 00 00 00
	00		 mov	 ecx, DWORD PTR _TYPE_CONFIG_STR
  0009b	89 0d 34 00 00
	00		 mov	 DWORD PTR _CONF_SETTING+52, ecx

; 32   : 	CONF_SETTING_LOGIN_PASSWORD,		TYPE_CONFIG_STR,

  000a1	8b 15 00 00 00
	00		 mov	 edx, DWORD PTR _CONF_SETTING_LOGIN_PASSWORD
  000a7	89 15 38 00 00
	00		 mov	 DWORD PTR _CONF_SETTING+56, edx
  000ad	a1 00 00 00 00	 mov	 eax, DWORD PTR _TYPE_CONFIG_STR
  000b2	a3 3c 00 00 00	 mov	 DWORD PTR _CONF_SETTING+60, eax

; 33   : 	CONF_SETTING_NETID,					TYPE_CONFIG_STR,

  000b7	8b 0d 00 00 00
	00		 mov	 ecx, DWORD PTR _CONF_SETTING_NETID
  000bd	89 0d 40 00 00
	00		 mov	 DWORD PTR _CONF_SETTING+64, ecx
  000c3	8b 15 00 00 00
	00		 mov	 edx, DWORD PTR _TYPE_CONFIG_STR
  000c9	89 15 44 00 00
	00		 mov	 DWORD PTR _CONF_SETTING+68, edx

; 34   : 	CONF_SETTING_COLOR,					TYPE_CONFIG_INT,

  000cf	a1 00 00 00 00	 mov	 eax, DWORD PTR _CONF_SETTING_COLOR
  000d4	a3 48 00 00 00	 mov	 DWORD PTR _CONF_SETTING+72, eax
  000d9	8b 0d 00 00 00
	00		 mov	 ecx, DWORD PTR _TYPE_CONFIG_INT
  000df	89 0d 4c 00 00
	00		 mov	 DWORD PTR _CONF_SETTING+76, ecx

; 35   : 	CONF_SETTING_LIGHT,					TYPE_CONFIG_INT,

  000e5	8b 15 00 00 00
	00		 mov	 edx, DWORD PTR _CONF_SETTING_LIGHT
  000eb	89 15 50 00 00
	00		 mov	 DWORD PTR _CONF_SETTING+80, edx
  000f1	a1 00 00 00 00	 mov	 eax, DWORD PTR _TYPE_CONFIG_INT
  000f6	a3 54 00 00 00	 mov	 DWORD PTR _CONF_SETTING+84, eax

; 36   : 	CONF_SETTING_COLOR_BTN_INDEX,		TYPE_CONFIG_INT,

  000fb	8b 0d 00 00 00
	00		 mov	 ecx, DWORD PTR _CONF_SETTING_COLOR_BTN_INDEX
  00101	89 0d 58 00 00
	00		 mov	 DWORD PTR _CONF_SETTING+88, ecx
  00107	8b 15 00 00 00
	00		 mov	 edx, DWORD PTR _TYPE_CONFIG_INT
  0010d	89 15 5c 00 00
	00		 mov	 DWORD PTR _CONF_SETTING+92, edx

; 37   : 	CONF_SETTING_COLOR_USER,			TYPE_CONFIG_INT,

  00113	a1 00 00 00 00	 mov	 eax, DWORD PTR _CONF_SETTING_COLOR_USER
  00118	a3 60 00 00 00	 mov	 DWORD PTR _CONF_SETTING+96, eax
  0011d	8b 0d 00 00 00
	00		 mov	 ecx, DWORD PTR _TYPE_CONFIG_INT
  00123	89 0d 64 00 00
	00		 mov	 DWORD PTR _CONF_SETTING+100, ecx

; 38   : 	CONF_SETTING_FIRST_TIME_CHANGESKIN, TYPE_CONFIG_BOOL

  00129	8b 15 00 00 00
	00		 mov	 edx, DWORD PTR _CONF_SETTING_FIRST_TIME_CHANGESKIN
  0012f	89 15 68 00 00
	00		 mov	 DWORD PTR _CONF_SETTING+104, edx

; 39   : };

  00135	a1 00 00 00 00	 mov	 eax, DWORD PTR _TYPE_CONFIG_BOOL
  0013a	a3 6c 00 00 00	 mov	 DWORD PTR _CONF_SETTING+108, eax
  0013f	5d		 pop	 ebp
  00140	c3		 ret	 0
_$E5	ENDP
text$yc	ENDS
_BSS	SEGMENT
_CONF_SETTING DD 01cH DUP (?)
_BSS	ENDS
END
