; Listing generated by Microsoft (R) Optimizing Compiler Version 13.10.3077 

	TITLE	.\src\LayoutMgr\SeperateMode\MainHostWnd.cpp
	.386P
include listing.inc
if @Version gt 510
.model FLAT
else
_TEXT	SEGMENT PARA USE32 PUBLIC 'CODE'
_TEXT	ENDS
_DATA	SEGMENT DWORD USE32 PUBLIC 'DATA'
_DATA	ENDS
CONST	SEGMENT DWORD USE32 PUBLIC 'CONST'
CONST	ENDS
_BSS	SEGMENT DWORD USE32 PUBLIC 'BSS'
_BSS	ENDS
$$SYMBOLS	SEGMENT BYTE USE32 'DEBSYM'
$$SYMBOLS	ENDS
_TLS	SEGMENT DWORD USE32 PUBLIC 'TLS'
_TLS	ENDS
;	COMDAT ??_C@_0EN@IBFBLEEG@D?3?2Program?5Files?5?$CIx86?$CJ?2Microsoft@
CONST	SEGMENT DWORD USE32 PUBLIC 'CONST'
CONST	ENDS
;	COMDAT ??_C@_0BI@GIMJKKKN@AtlIsValidString?$CI?5psz?5?$CJ?$AA@
CONST	SEGMENT DWORD USE32 PUBLIC 'CONST'
CONST	ENDS
;	COMDAT ??_C@_0BD@OLBABOEK@vector?$DMT?$DO?5too?5long?$AA@
CONST	SEGMENT DWORD USE32 PUBLIC 'CONST'
CONST	ENDS
rdata$r	SEGMENT DWORD USE32 PUBLIC 'CONST'
rdata$r	ENDS
xdata$x	SEGMENT DWORD USE32 PUBLIC 'CONST'
xdata$x	ENDS
text$AFX_COL1	SEGMENT PARA USE32 PUBLIC ''
text$AFX_COL1	ENDS
text$yc	SEGMENT PARA USE32 PUBLIC 'CODE'
text$yc	ENDS
CRT$XCA	SEGMENT DWORD USE32 PUBLIC 'DATA'
CRT$XCA	ENDS
CRT$XCU	SEGMENT DWORD USE32 PUBLIC 'DATA'
CRT$XCU	ENDS
CRT$XCL	SEGMENT DWORD USE32 PUBLIC 'DATA'
CRT$XCL	ENDS
CRT$XCC	SEGMENT DWORD USE32 PUBLIC 'DATA'
CRT$XCC	ENDS
CRT$XCZ	SEGMENT DWORD USE32 PUBLIC 'DATA'
CRT$XCZ	ENDS
text$yd	SEGMENT PARA USE32 PUBLIC 'CODE'
text$yd	ENDS
ATL$__m	SEGMENT DWORD USE32 PUBLIC ''
ATL$__m	ENDS
ATL$__z	SEGMENT DWORD USE32 PUBLIC ''
ATL$__z	ENDS
ATL$__a	SEGMENT DWORD USE32 PUBLIC ''
ATL$__a	ENDS
;	COMDAT ??1IData@@MAE@XZ
_TEXT	SEGMENT PARA USE32 PUBLIC 'CODE'
_TEXT	ENDS
;	COMDAT ?DataAppStart@IData@@UAEXXZ
_TEXT	SEGMENT PARA USE32 PUBLIC 'CODE'
_TEXT	ENDS
;	COMDAT ?DataAppExit@IData@@UAEXXZ
_TEXT	SEGMENT PARA USE32 PUBLIC 'CODE'
_TEXT	ENDS
;	COMDAT ??_GIData@@MAEPAXI@Z
_TEXT	SEGMENT PARA USE32 PUBLIC 'CODE'
_TEXT	ENDS
;	COMDAT _$E5
text$yc	SEGMENT PARA USE32 PUBLIC 'CODE'
text$yc	ENDS
;	COMDAT ??_GCMainHostWnd@@UAEPAXI@Z
_TEXT	SEGMENT PARA USE32 PUBLIC 'CODE'
_TEXT	ENDS
;	COMDAT ??8ATL@@YA_NABV?$CStringT@DV?$StrTraitMFC_DLL@DV?$ChTraitsCRT@D@ATL@@@@@0@PBD@Z
_TEXT	SEGMENT PARA USE32 PUBLIC 'CODE'
_TEXT	ENDS
;	COMDAT ??B?$CComPtrBase@UITypeInfo2@@@ATL@@QBEPAUITypeInfo2@@XZ
_TEXT	SEGMENT PARA USE32 PUBLIC 'CODE'
_TEXT	ENDS
;	COMDAT ?equal@?$istreambuf_iterator@DU?$char_traits@D@std@@@std@@QBE_NABV12@@Z
_TEXT	SEGMENT PARA USE32 PUBLIC 'CODE'
_TEXT	ENDS
;	COMDAT ?equal@?$istreambuf_iterator@_WU?$char_traits@_W@std@@@std@@QBE_NABV12@@Z
_TEXT	SEGMENT PARA USE32 PUBLIC 'CODE'
_TEXT	ENDS
;	COMDAT ?push_back@?$vector@PAVILyricPopupWndShowObserver@@V?$allocator@PAVILyricPopupWndShowObserver@@@std@@@std@@QAEXABQAVILyricPopupWndShowObserver@@@Z
_TEXT	SEGMENT PARA USE32 PUBLIC 'CODE'
_TEXT	ENDS
;	COMDAT ?capacity@?$vector@PAVILyricPopupWndShowObserver@@V?$allocator@PAVILyricPopupWndShowObserver@@@std@@@std@@QBEIXZ
_TEXT	SEGMENT PARA USE32 PUBLIC 'CODE'
_TEXT	ENDS
;	COMDAT ?end@?$vector@PAVILyricPopupWndShowObserver@@V?$allocator@PAVILyricPopupWndShowObserver@@@std@@@std@@QAE?AViterator@12@XZ
_TEXT	SEGMENT PARA USE32 PUBLIC 'CODE'
_TEXT	ENDS
;	COMDAT ?size@?$vector@PAVILyricPopupWndShowObserver@@V?$allocator@PAVILyricPopupWndShowObserver@@@std@@@std@@QBEIXZ
_TEXT	SEGMENT PARA USE32 PUBLIC 'CODE'
_TEXT	ENDS
;	COMDAT ?insert@?$vector@PAVILyricPopupWndShowObserver@@V?$allocator@PAVILyricPopupWndShowObserver@@@std@@@std@@QAE?AViterator@12@V312@ABQAVILyricPopupWndShowObserver@@@Z
_TEXT	SEGMENT PARA USE32 PUBLIC 'CODE'
_TEXT	ENDS
;	COMDAT ?_Ufill@?$vector@PAVILyricPopupWndShowObserver@@V?$allocator@PAVILyricPopupWndShowObserver@@@std@@@std@@IAEPAPAVILyricPopupWndShowObserver@@PAPAV3@IABQAV3@@Z
_TEXT	SEGMENT PARA USE32 PUBLIC 'CODE'
_TEXT	ENDS
;	COMDAT ?StringCompare@?$ChTraitsCRT@D@ATL@@SAHPBD0@Z
_TEXT	SEGMENT PARA USE32 PUBLIC 'CODE'
_TEXT	ENDS
;	COMDAT ?begin@?$vector@PAVILyricPopupWndShowObserver@@V?$allocator@PAVILyricPopupWndShowObserver@@@std@@@std@@QAE?AViterator@12@XZ
_TEXT	SEGMENT PARA USE32 PUBLIC 'CODE'
_TEXT	ENDS
;	COMDAT ?_Insert_n@?$vector@PAVILyricPopupWndShowObserver@@V?$allocator@PAVILyricPopupWndShowObserver@@@std@@@std@@IAEXViterator@12@IABQAVILyricPopupWndShowObserver@@@Z
_TEXT	SEGMENT PARA USE32 PUBLIC 'CODE'
_TEXT	ENDS
;	COMDAT ??0iterator@?$vector@PAVILyricPopupWndShowObserver@@V?$allocator@PAVILyricPopupWndShowObserver@@@std@@@std@@QAE@PAPAVILyricPopupWndShowObserver@@@Z
_TEXT	SEGMENT PARA USE32 PUBLIC 'CODE'
_TEXT	ENDS
;	COMDAT ??Hiterator@?$vector@PAVILyricPopupWndShowObserver@@V?$allocator@PAVILyricPopupWndShowObserver@@@std@@@std@@QBE?AV012@H@Z
_TEXT	SEGMENT PARA USE32 PUBLIC 'CODE'
_TEXT	ENDS
;	COMDAT ??Giterator@?$vector@PAVILyricPopupWndShowObserver@@V?$allocator@PAVILyricPopupWndShowObserver@@@std@@@std@@QBEHABVconst_iterator@12@@Z
_TEXT	SEGMENT PARA USE32 PUBLIC 'CODE'
_TEXT	ENDS
;	COMDAT ?max_size@?$vector@PAVILyricPopupWndShowObserver@@V?$allocator@PAVILyricPopupWndShowObserver@@@std@@@std@@QBEIXZ
_TEXT	SEGMENT PARA USE32 PUBLIC 'CODE'
_TEXT	ENDS
;	COMDAT ?_Destroy@?$vector@PAVILyricPopupWndShowObserver@@V?$allocator@PAVILyricPopupWndShowObserver@@@std@@@std@@IAEXPAPAVILyricPopupWndShowObserver@@0@Z
_TEXT	SEGMENT PARA USE32 PUBLIC 'CODE'
_TEXT	ENDS
;	COMDAT ?_Xlen@?$vector@PAVILyricPopupWndShowObserver@@V?$allocator@PAVILyricPopupWndShowObserver@@@std@@@std@@IBEXXZ
_TEXT	SEGMENT PARA USE32 PUBLIC 'CODE'
_TEXT	ENDS
;	COMDAT ?deallocate@?$allocator@PAVILyricPopupWndShowObserver@@@std@@QAEXPAPAVILyricPopupWndShowObserver@@I@Z
_TEXT	SEGMENT PARA USE32 PUBLIC 'CODE'
_TEXT	ENDS
;	COMDAT ?allocate@?$allocator@PAVILyricPopupWndShowObserver@@@std@@QAEPAPAVILyricPopupWndShowObserver@@I@Z
_TEXT	SEGMENT PARA USE32 PUBLIC 'CODE'
_TEXT	ENDS
;	COMDAT ??Yiterator@?$vector@PAVILyricPopupWndShowObserver@@V?$allocator@PAVILyricPopupWndShowObserver@@@std@@@std@@QAEAAV012@H@Z
_TEXT	SEGMENT PARA USE32 PUBLIC 'CODE'
_TEXT	ENDS
;	COMDAT ??0const_iterator@?$vector@PAVILyricPopupWndShowObserver@@V?$allocator@PAVILyricPopupWndShowObserver@@@std@@@std@@QAE@PAPAVILyricPopupWndShowObserver@@@Z
_TEXT	SEGMENT PARA USE32 PUBLIC 'CODE'
_TEXT	ENDS
;	COMDAT ??Gconst_iterator@?$vector@PAVILyricPopupWndShowObserver@@V?$allocator@PAVILyricPopupWndShowObserver@@@std@@@std@@QBEHABV012@@Z
_TEXT	SEGMENT PARA USE32 PUBLIC 'CODE'
_TEXT	ENDS
;	COMDAT ??0length_error@std@@QAE@ABV01@@Z
_TEXT	SEGMENT PARA USE32 PUBLIC 'CODE'
_TEXT	ENDS
;	COMDAT ?max_size@?$allocator@PAVILyricPopupWndShowObserver@@@std@@QBEIXZ
_TEXT	SEGMENT PARA USE32 PUBLIC 'CODE'
_TEXT	ENDS
;	COMDAT ?Unlock@?$CComCritSecLock@VCComCriticalSection@ATL@@@ATL@@QAEXXZ
_TEXT	SEGMENT PARA USE32 PUBLIC 'CODE'
_TEXT	ENDS
;	COMDAT ??$_Uninitialized_fill_n@PAPAVILyricPopupWndShowObserver@@IPAV1@V?$allocator@PAVILyricPopupWndShowObserver@@@std@@@std@@YAXPAPAVILyricPopupWndShowObserver@@IABQAV1@AAV?$allocator@PAVILyricPopupWndShowObserver@@@0@@Z
_TEXT	SEGMENT PARA USE32 PUBLIC 'CODE'
_TEXT	ENDS
;	COMDAT ??$_Maklocstr@D@std@@YAPADPBDPADABU_Cvtvec@@@Z
_TEXT	SEGMENT PARA USE32 PUBLIC 'CODE'
_TEXT	ENDS
;	COMDAT ??$_Ucopy@PAPAVILyricPopupWndShowObserver@@@?$vector@PAVILyricPopupWndShowObserver@@V?$allocator@PAVILyricPopupWndShowObserver@@@std@@@std@@IAEPAPAVILyricPopupWndShowObserver@@PAPAV2@00@Z
_TEXT	SEGMENT PARA USE32 PUBLIC 'CODE'
_TEXT	ENDS
;	COMDAT ??$fill@PAPAVILyricPopupWndShowObserver@@PAV1@@std@@YAXPAPAVILyricPopupWndShowObserver@@0ABQAV1@@Z
_TEXT	SEGMENT PARA USE32 PUBLIC 'CODE'
_TEXT	ENDS
;	COMDAT ??$copy_backward@PAPAVILyricPopupWndShowObserver@@PAPAV1@@std@@YAPAPAVILyricPopupWndShowObserver@@PAPAV1@00@Z
_TEXT	SEGMENT PARA USE32 PUBLIC 'CODE'
_TEXT	ENDS
;	COMDAT ??$_Destroy_range@PAVILyricPopupWndShowObserver@@V?$allocator@PAVILyricPopupWndShowObserver@@@std@@@std@@YAXPAPAVILyricPopupWndShowObserver@@0AAV?$allocator@PAVILyricPopupWndShowObserver@@@0@@Z
_TEXT	SEGMENT PARA USE32 PUBLIC 'CODE'
_TEXT	ENDS
;	COMDAT ??$_Allocate@PAVILyricPopupWndShowObserver@@@std@@YAPAPAVILyricPopupWndShowObserver@@IPAPAV1@@Z
_TEXT	SEGMENT PARA USE32 PUBLIC 'CODE'
_TEXT	ENDS
;	COMDAT ??$_Ptr_cat@VILyricPopupWndShowObserver@@@std@@YA?AU_Scalar_ptr_iterator_tag@0@PAPAVILyricPopupWndShowObserver@@0@Z
_TEXT	SEGMENT PARA USE32 PUBLIC 'CODE'
_TEXT	ENDS
;	COMDAT ??$_Uninit_fill_n@PAVILyricPopupWndShowObserver@@IPAV1@@std@@YAXPAPAVILyricPopupWndShowObserver@@IABQAV1@AAV?$allocator@PAVILyricPopupWndShowObserver@@@0@U_Scalar_ptr_iterator_tag@0@@Z
_TEXT	SEGMENT PARA USE32 PUBLIC 'CODE'
_TEXT	ENDS
;	COMDAT ??$_Uninitialized_copy@PAPAVILyricPopupWndShowObserver@@PAPAV1@V?$allocator@PAVILyricPopupWndShowObserver@@@std@@@std@@YAPAPAVILyricPopupWndShowObserver@@PAPAV1@00AAV?$allocator@PAVILyricPopupWndShowObserver@@@0@@Z
_TEXT	SEGMENT PARA USE32 PUBLIC 'CODE'
_TEXT	ENDS
;	COMDAT ??$_Copy_backward_opt@PAPAVILyricPopupWndShowObserver@@PAPAV1@@std@@YAPAPAVILyricPopupWndShowObserver@@PAPAV1@00U_Scalar_ptr_iterator_tag@0@@Z
_TEXT	SEGMENT PARA USE32 PUBLIC 'CODE'
_TEXT	ENDS
;	COMDAT ??$_Destroy_range@PAVILyricPopupWndShowObserver@@V?$allocator@PAVILyricPopupWndShowObserver@@@std@@@std@@YAXPAPAVILyricPopupWndShowObserver@@0AAV?$allocator@PAVILyricPopupWndShowObserver@@@0@U_Scalar_ptr_iterator_tag@0@@Z
_TEXT	SEGMENT PARA USE32 PUBLIC 'CODE'
_TEXT	ENDS
;	COMDAT ??$fill_n@PAPAVILyricPopupWndShowObserver@@IPAV1@@std@@YAXPAPAVILyricPopupWndShowObserver@@IABQAV1@@Z
_TEXT	SEGMENT PARA USE32 PUBLIC 'CODE'
_TEXT	ENDS
;	COMDAT ??$_Uninit_copy@PAVILyricPopupWndShowObserver@@PAV1@@std@@YAPAPAVILyricPopupWndShowObserver@@PAPAV1@00AAV?$allocator@PAVILyricPopupWndShowObserver@@@0@U_Scalar_ptr_iterator_tag@0@@Z
_TEXT	SEGMENT PARA USE32 PUBLIC 'CODE'
_TEXT	ENDS
;	COMDAT ??_R3CMainHostWnd@@8
rdata$r	SEGMENT DWORD USE32 PUBLIC 'CONST'
rdata$r	ENDS
;	COMDAT ??_R3?$numpunct@_W@std@@8
rdata$r	SEGMENT DWORD USE32 PUBLIC 'CONST'
rdata$r	ENDS
;	COMDAT ??_R3?$numpunct@D@std@@8
rdata$r	SEGMENT DWORD USE32 PUBLIC 'CONST'
rdata$r	ENDS
;	COMDAT ??_R3IData@@8
rdata$r	SEGMENT DWORD USE32 PUBLIC 'CONST'
rdata$r	ENDS
;	COMDAT ??_R2CMainHostWnd@@8
rdata$r	SEGMENT DWORD USE32 PUBLIC 'CONST'
rdata$r	ENDS
;	COMDAT ??_R2?$numpunct@_W@std@@8
rdata$r	SEGMENT DWORD USE32 PUBLIC 'CONST'
rdata$r	ENDS
;	COMDAT ??_R2?$numpunct@D@std@@8
rdata$r	SEGMENT DWORD USE32 PUBLIC 'CONST'
rdata$r	ENDS
;	COMDAT ??_R2IData@@8
rdata$r	SEGMENT DWORD USE32 PUBLIC 'CONST'
rdata$r	ENDS
;	COMDAT ??_R1A@?0A@A@CObject@@8
rdata$r	SEGMENT DWORD USE32 PUBLIC 'CONST'
rdata$r	ENDS
;	COMDAT ??_R0?AVCObject@@@8
_DATA	SEGMENT DWORD USE32 PUBLIC 'DATA'
_DATA	ENDS
;	COMDAT ??_R1A@?0A@A@CCmdTarget@@8
rdata$r	SEGMENT DWORD USE32 PUBLIC 'CONST'
rdata$r	ENDS
;	COMDAT ??_R0?AVCCmdTarget@@@8
_DATA	SEGMENT DWORD USE32 PUBLIC 'DATA'
_DATA	ENDS
;	COMDAT ??_R1A@?0A@A@CWnd@@8
rdata$r	SEGMENT DWORD USE32 PUBLIC 'CONST'
rdata$r	ENDS
;	COMDAT ??_R0?AVCWnd@@@8
_DATA	SEGMENT DWORD USE32 PUBLIC 'DATA'
_DATA	ENDS
;	COMDAT ??_R1A@?0A@A@CDialog@@8
rdata$r	SEGMENT DWORD USE32 PUBLIC 'CONST'
rdata$r	ENDS
;	COMDAT ??_R0?AVCDialog@@@8
_DATA	SEGMENT DWORD USE32 PUBLIC 'DATA'
_DATA	ENDS
;	COMDAT ??_R1A@?0A@A@CHostWnd@@8
rdata$r	SEGMENT DWORD USE32 PUBLIC 'CONST'
rdata$r	ENDS
;	COMDAT ??_R1A@?0A@A@CMainHostWnd@@8
rdata$r	SEGMENT DWORD USE32 PUBLIC 'CONST'
rdata$r	ENDS
;	COMDAT ??_R1A@?0A@A@?$numpunct@_W@std@@8
rdata$r	SEGMENT DWORD USE32 PUBLIC 'CONST'
rdata$r	ENDS
;	COMDAT ??_R1A@?0A@A@facet@locale@std@@8
rdata$r	SEGMENT DWORD USE32 PUBLIC 'CONST'
rdata$r	ENDS
;	COMDAT ??_R0?AVfacet@locale@std@@@8
_DATA	SEGMENT DWORD USE32 PUBLIC 'DATA'
_DATA	ENDS
;	COMDAT ??_R1A@?0A@A@?$numpunct@D@std@@8
rdata$r	SEGMENT DWORD USE32 PUBLIC 'CONST'
rdata$r	ENDS
;	COMDAT ??_R1A@?0A@A@IData@@8
rdata$r	SEGMENT DWORD USE32 PUBLIC 'CONST'
rdata$r	ENDS
;	COMDAT ??_R0?AVCHostWnd@@@8
_DATA	SEGMENT DWORD USE32 PUBLIC 'DATA'
_DATA	ENDS
;	COMDAT ??_R0?AVCMainHostWnd@@@8
_DATA	SEGMENT DWORD USE32 PUBLIC 'DATA'
_DATA	ENDS
;	COMDAT ??_R0?AV?$numpunct@_W@std@@@8
_DATA	SEGMENT DWORD USE32 PUBLIC 'DATA'
_DATA	ENDS
;	COMDAT ??_R0?AV?$numpunct@D@std@@@8
_DATA	SEGMENT DWORD USE32 PUBLIC 'DATA'
_DATA	ENDS
;	COMDAT ??_R0?AVIData@@@8
_DATA	SEGMENT DWORD USE32 PUBLIC 'DATA'
_DATA	ENDS
;	COMDAT ??_R4CMainHostWnd@@6B@
rdata$r	SEGMENT DWORD USE32 PUBLIC 'CONST'
rdata$r	ENDS
;	COMDAT ??0?$allocator@_W@std@@QAE@XZ
_TEXT	SEGMENT PARA USE32 PUBLIC 'CODE'
_TEXT	ENDS
;	COMDAT ??_G?$numpunct@_W@std@@MAEPAXI@Z
_TEXT	SEGMENT PARA USE32 PUBLIC 'CODE'
_TEXT	ENDS
;	COMDAT ??_R4?$numpunct@_W@std@@6B@
rdata$r	SEGMENT DWORD USE32 PUBLIC 'CONST'
rdata$r	ENDS
;	COMDAT ??_G?$numpunct@D@std@@MAEPAXI@Z
_TEXT	SEGMENT PARA USE32 PUBLIC 'CODE'
_TEXT	ENDS
;	COMDAT ??_R4?$numpunct@D@std@@6B@
rdata$r	SEGMENT DWORD USE32 PUBLIC 'CONST'
rdata$r	ENDS
;	COMDAT ??_R4IData@@6B@
rdata$r	SEGMENT DWORD USE32 PUBLIC 'CONST'
rdata$r	ENDS
;	COMDAT ??_C@_0EN@CBMLGOH@D?3?2Program?5Files?5?$CIx86?$CJ?2Microsoft@
CONST	SEGMENT DWORD USE32 PUBLIC 'CONST'
CONST	ENDS
;	COMDAT ?_Psave@?$_Facetptr@V?$numpunct@_W@std@@@std@@2PBVfacet@locale@2@B
_DATA	SEGMENT DWORD USE32 PUBLIC 'DATA'
_DATA	ENDS
;	COMDAT ?_Psave@?$_Facetptr@V?$numpunct@D@std@@@std@@2PBVfacet@locale@2@B
_DATA	SEGMENT DWORD USE32 PUBLIC 'DATA'
_DATA	ENDS
;	COMDAT ?Unlock@CComCriticalSection@ATL@@QAEJXZ
_TEXT	SEGMENT PARA USE32 PUBLIC 'CODE'
_TEXT	ENDS
;	COMDAT ??_C@_0FG@LDNDNCJM@D?3?2Program?5Files?5?$CIx86?$CJ?2Microsoft@
CONST	SEGMENT DWORD USE32 PUBLIC 'CONST'
CONST	ENDS
;	COMDAT ??_C@_09HIEJFN@m_bLocked?$AA@
CONST	SEGMENT DWORD USE32 PUBLIC 'CONST'
CONST	ENDS
;	COMDAT ?_Psave@?$_Facetptr@V?$ctype@_W@std@@@std@@2PBVfacet@locale@2@B
_DATA	SEGMENT DWORD USE32 PUBLIC 'DATA'
_DATA	ENDS
;	COMDAT ?_Psave@?$_Facetptr@V?$ctype@D@std@@@std@@2PBVfacet@locale@2@B
_DATA	SEGMENT DWORD USE32 PUBLIC 'DATA'
_DATA	ENDS
;	COMDAT ??_7length_error@std@@6B@
CONST	SEGMENT DWORD USE32 PUBLIC 'CONST'
CONST	ENDS
;	COMDAT ??_R4length_error@std@@6B@
rdata$r	SEGMENT DWORD USE32 PUBLIC 'CONST'
rdata$r	ENDS
;	COMDAT ??_R3length_error@std@@8
rdata$r	SEGMENT DWORD USE32 PUBLIC 'CONST'
rdata$r	ENDS
;	COMDAT ??_R2length_error@std@@8
rdata$r	SEGMENT DWORD USE32 PUBLIC 'CONST'
rdata$r	ENDS
;	COMDAT ??_R1A@?0A@A@length_error@std@@8
rdata$r	SEGMENT DWORD USE32 PUBLIC 'CONST'
rdata$r	ENDS
;	COMDAT ??_R1A@?0A@A@logic_error@std@@8
rdata$r	SEGMENT DWORD USE32 PUBLIC 'CONST'
rdata$r	ENDS
;	COMDAT ??_R0?AVlogic_error@std@@@8
_DATA	SEGMENT DWORD USE32 PUBLIC 'DATA'
_DATA	ENDS
;	COMDAT ??_R1A@?0A@A@exception@@8
rdata$r	SEGMENT DWORD USE32 PUBLIC 'CONST'
rdata$r	ENDS
;	COMDAT ??_R0?AVexception@@@8
_DATA	SEGMENT DWORD USE32 PUBLIC 'DATA'
_DATA	ENDS
;	COMDAT ??_Glength_error@std@@UAEPAXI@Z
_TEXT	SEGMENT PARA USE32 PUBLIC 'CODE'
_TEXT	ENDS
;	COMDAT ?what@logic_error@std@@UBEPBDXZ
_TEXT	SEGMENT PARA USE32 PUBLIC 'CODE'
_TEXT	ENDS
;	COMDAT ??1logic_error@std@@UAE@XZ
_TEXT	SEGMENT PARA USE32 PUBLIC 'CODE'
_TEXT	ENDS
;	COMDAT ??_7logic_error@std@@6B@
CONST	SEGMENT DWORD USE32 PUBLIC 'CONST'
CONST	ENDS
;	COMDAT ??_R4logic_error@std@@6B@
rdata$r	SEGMENT DWORD USE32 PUBLIC 'CONST'
rdata$r	ENDS
;	COMDAT ??_R3logic_error@std@@8
rdata$r	SEGMENT DWORD USE32 PUBLIC 'CONST'
rdata$r	ENDS
;	COMDAT ??_R2logic_error@std@@8
rdata$r	SEGMENT DWORD USE32 PUBLIC 'CONST'
rdata$r	ENDS
;	COMDAT ??_Glogic_error@std@@UAEPAXI@Z
_TEXT	SEGMENT PARA USE32 PUBLIC 'CODE'
_TEXT	ENDS
;	COMDAT ??0logic_error@std@@QAE@ABV01@@Z
_TEXT	SEGMENT PARA USE32 PUBLIC 'CODE'
_TEXT	ENDS
;	COMDAT __CTA3?AVlength_error@std@@
xdata$x	SEGMENT DWORD USE32 PUBLIC 'CONST'
xdata$x	ENDS
;	COMDAT ??1length_error@std@@UAE@XZ
_TEXT	SEGMENT PARA USE32 PUBLIC 'CODE'
_TEXT	ENDS
;	COMDAT __CT??_R0?AVexception@@@8??0exception@@QAE@ABV0@@Z12
xdata$x	SEGMENT DWORD USE32 PUBLIC 'CONST'
xdata$x	ENDS
;	COMDAT __CT??_R0?AVlogic_error@std@@@8??0logic_error@std@@QAE@ABV01@@Z40
xdata$x	SEGMENT DWORD USE32 PUBLIC 'CONST'
xdata$x	ENDS
;	COMDAT __CT??_R0?AVlength_error@std@@@8??0length_error@std@@QAE@ABV01@@Z40
xdata$x	SEGMENT DWORD USE32 PUBLIC 'CONST'
xdata$x	ENDS
;	COMDAT ??_R0?AVlength_error@std@@@8
_DATA	SEGMENT DWORD USE32 PUBLIC 'DATA'
_DATA	ENDS
;	COMDAT __TI3?AVlength_error@std@@
xdata$x	SEGMENT DWORD USE32 PUBLIC 'CONST'
xdata$x	ENDS
;	COMDAT ??0length_error@std@@QAE@ABV?$basic_string@DU?$char_traits@D@std@@V?$allocator@D@2@@1@@Z
_TEXT	SEGMENT PARA USE32 PUBLIC 'CODE'
_TEXT	ENDS
;	COMDAT ??0logic_error@std@@QAE@ABV?$basic_string@DU?$char_traits@D@std@@V?$allocator@D@2@@1@@Z
_TEXT	SEGMENT PARA USE32 PUBLIC 'CODE'
_TEXT	ENDS
;	COMDAT ??$_Maklocchr@_W@std@@YA_WDPA_WABU_Cvtvec@@@Z
_TEXT	SEGMENT PARA USE32 PUBLIC 'CODE'
_TEXT	ENDS
;	COMDAT ??$_DebugHeapDelete@X@std@@YAXPAX@Z
_TEXT	SEGMENT PARA USE32 PUBLIC 'CODE'
_TEXT	ENDS
;	COMDAT ??$_Maklocstr@_W@std@@YAPA_WPBDPA_WABU_Cvtvec@@@Z
_TEXT	SEGMENT PARA USE32 PUBLIC 'CODE'
_TEXT	ENDS
;	COMDAT ??$_Maklocchr@D@std@@YADDPADABU_Cvtvec@@@Z
_TEXT	SEGMENT PARA USE32 PUBLIC 'CODE'
_TEXT	ENDS
;	COMDAT ??_C@_04LOAJBDKD@true?$AA@
CONST	SEGMENT DWORD USE32 PUBLIC 'CONST'
CONST	ENDS
;	COMDAT ??_C@_05LAPONLG@false?$AA@
CONST	SEGMENT DWORD USE32 PUBLIC 'CONST'
CONST	ENDS
;	COMDAT _wmemcpy
_TEXT	SEGMENT PARA USE32 PUBLIC 'CODE'
_TEXT	ENDS
;	COMDAT ?max_size@?$allocator@_W@std@@QBEIXZ
_TEXT	SEGMENT PARA USE32 PUBLIC 'CODE'
_TEXT	ENDS
;	COMDAT ?allocate@?$allocator@_W@std@@QAEPA_WI@Z
_TEXT	SEGMENT PARA USE32 PUBLIC 'CODE'
_TEXT	ENDS
;	COMDAT ??$_Allocate@_W@std@@YAPA_WIPA_W@Z
_TEXT	SEGMENT PARA USE32 PUBLIC 'CODE'
_TEXT	ENDS
;	COMDAT ??_C@_01GFHCPBMG@C?$AA@
CONST	SEGMENT DWORD USE32 PUBLIC 'CONST'
CONST	ENDS
;	COMDAT ?max_size@?$allocator@D@std@@QBEIXZ
_TEXT	SEGMENT PARA USE32 PUBLIC 'CODE'
_TEXT	ENDS
;	COMDAT ?allocate@?$allocator@D@std@@QAEPADI@Z
_TEXT	SEGMENT PARA USE32 PUBLIC 'CODE'
_TEXT	ENDS
;	COMDAT ??$_Allocate@D@std@@YAPADIPAD@Z
_TEXT	SEGMENT PARA USE32 PUBLIC 'CODE'
_TEXT	ENDS
;	COMDAT ?deallocate@?$allocator@D@std@@QAEXPADI@Z
_TEXT	SEGMENT PARA USE32 PUBLIC 'CODE'
_TEXT	ENDS
;	COMDAT ??_C@_0FH@KDPNIMBO@D?3?2Program?5Files?5?$CIx86?$CJ?2Microsoft@
CONST	SEGMENT DWORD USE32 PUBLIC 'CONST'
CONST	ENDS
;	COMDAT ?AtlIsValidString@ATL@@YAHPBDI@Z
_TEXT	SEGMENT PARA USE32 PUBLIC 'CODE'
_TEXT	ENDS
;	COMDAT ?_Peek@?$istreambuf_iterator@_WU?$char_traits@_W@std@@@std@@AAE_WXZ
_TEXT	SEGMENT PARA USE32 PUBLIC 'CODE'
_TEXT	ENDS
;	COMDAT ?_Peek@?$istreambuf_iterator@DU?$char_traits@D@std@@@std@@AAEDXZ
_TEXT	SEGMENT PARA USE32 PUBLIC 'CODE'
_TEXT	ENDS
;	COMDAT ??$use_facet@V?$ctype@_W@std@@@std@@YAABV?$ctype@_W@0@ABVlocale@0@@Z
_TEXT	SEGMENT PARA USE32 PUBLIC 'CODE'
_TEXT	ENDS
;	COMDAT ??_S?$ctype@_W@std@@6B@
CONST	SEGMENT DWORD USE32 PUBLIC 'CONST'
CONST	ENDS
;	COMDAT ??_R4?$ctype@_W@std@@6B@
rdata$r	SEGMENT DWORD USE32 PUBLIC 'CONST'
rdata$r	ENDS
;	COMDAT ??_R0?AV?$ctype@_W@std@@@8
_DATA	SEGMENT DWORD USE32 PUBLIC 'DATA'
_DATA	ENDS
;	COMDAT ??_R3?$ctype@_W@std@@8
rdata$r	SEGMENT DWORD USE32 PUBLIC 'CONST'
rdata$r	ENDS
;	COMDAT ??_R2?$ctype@_W@std@@8
rdata$r	SEGMENT DWORD USE32 PUBLIC 'CONST'
rdata$r	ENDS
;	COMDAT ??_R1A@?0A@A@?$ctype@_W@std@@8
rdata$r	SEGMENT DWORD USE32 PUBLIC 'CONST'
rdata$r	ENDS
;	COMDAT ??_R1A@?0A@A@ctype_base@std@@8
rdata$r	SEGMENT DWORD USE32 PUBLIC 'CONST'
rdata$r	ENDS
;	COMDAT ??_R0?AUctype_base@std@@@8
_DATA	SEGMENT DWORD USE32 PUBLIC 'DATA'
_DATA	ENDS
;	COMDAT ??_G?$ctype@_W@std@@MAEPAXI@Z
_TEXT	SEGMENT PARA USE32 PUBLIC 'CODE'
_TEXT	ENDS
;	COMDAT ??_C@_08EPJLHIJG@bad?5cast?$AA@
CONST	SEGMENT DWORD USE32 PUBLIC 'CONST'
CONST	ENDS
;	COMDAT __TI2?AVbad_cast@@
xdata$x	SEGMENT DWORD USE32 PUBLIC 'CONST'
xdata$x	ENDS
;	COMDAT __CTA2?AVbad_cast@@
xdata$x	SEGMENT DWORD USE32 PUBLIC 'CONST'
xdata$x	ENDS
;	COMDAT __CT??_R0?AVbad_cast@@@8??0bad_cast@@QAE@ABV0@@Z12
xdata$x	SEGMENT DWORD USE32 PUBLIC 'CONST'
xdata$x	ENDS
;	COMDAT ??_R0?AVbad_cast@@@8
_DATA	SEGMENT DWORD USE32 PUBLIC 'DATA'
_DATA	ENDS
;	COMDAT ??$_DebugHeapDelete@Vfacet@locale@std@@@std@@YAXPAVfacet@locale@0@@Z
_TEXT	SEGMENT PARA USE32 PUBLIC 'CODE'
_TEXT	ENDS
;	COMDAT ??$use_facet@V?$ctype@D@std@@@std@@YAABV?$ctype@D@0@ABVlocale@0@@Z
_TEXT	SEGMENT PARA USE32 PUBLIC 'CODE'
_TEXT	ENDS
;	COMDAT ??_S?$ctype@D@std@@6B@
CONST	SEGMENT DWORD USE32 PUBLIC 'CONST'
CONST	ENDS
;	COMDAT ??_R4?$ctype@D@std@@6B@
rdata$r	SEGMENT DWORD USE32 PUBLIC 'CONST'
rdata$r	ENDS
;	COMDAT ??_R0?AV?$ctype@D@std@@@8
_DATA	SEGMENT DWORD USE32 PUBLIC 'DATA'
_DATA	ENDS
;	COMDAT ??_R3?$ctype@D@std@@8
rdata$r	SEGMENT DWORD USE32 PUBLIC 'CONST'
rdata$r	ENDS
;	COMDAT ??_R2?$ctype@D@std@@8
rdata$r	SEGMENT DWORD USE32 PUBLIC 'CONST'
rdata$r	ENDS
;	COMDAT ??_R1A@?0A@A@?$ctype@D@std@@8
rdata$r	SEGMENT DWORD USE32 PUBLIC 'CONST'
rdata$r	ENDS
;	COMDAT ??_G?$ctype@D@std@@MAEPAXI@Z
_TEXT	SEGMENT PARA USE32 PUBLIC 'CODE'
_TEXT	ENDS
;	COMDAT ??_S?$numpunct@_W@std@@6B@
CONST	SEGMENT DWORD USE32 PUBLIC 'CONST'
CONST	ENDS
;	COMDAT ??_S?$numpunct@D@std@@6B@
CONST	SEGMENT DWORD USE32 PUBLIC 'CONST'
CONST	ENDS
;	COMDAT _wmemmove
_TEXT	SEGMENT PARA USE32 PUBLIC 'CODE'
_TEXT	ENDS
;	COMDAT ?deallocate@?$allocator@_W@std@@QAEXPA_WI@Z
_TEXT	SEGMENT PARA USE32 PUBLIC 'CODE'
_TEXT	ENDS
;	COMDAT ??0?$allocator@_W@std@@QAE@ABV01@@Z
_TEXT	SEGMENT PARA USE32 PUBLIC 'CODE'
_TEXT	ENDS
;	COMDAT ??0?$allocator@D@std@@QAE@ABV01@@Z
_TEXT	SEGMENT PARA USE32 PUBLIC 'CODE'
_TEXT	ENDS
;	COMDAT ??0?$allocator@D@std@@QAE@XZ
_TEXT	SEGMENT PARA USE32 PUBLIC 'CODE'
_TEXT	ENDS
;	COMDAT ?IsLocked@CStringData@ATL@@QBE_NXZ
_TEXT	SEGMENT PARA USE32 PUBLIC 'CODE'
_TEXT	ENDS
;	COMDAT ?AddRef@CStringData@ATL@@QAEXXZ
_TEXT	SEGMENT PARA USE32 PUBLIC 'CODE'
_TEXT	ENDS
;	COMDAT ??_C@_09EEBKLCFA@nRefs?5?$DO?50?$AA@
CONST	SEGMENT DWORD USE32 PUBLIC 'CONST'
CONST	ENDS
;	COMDAT ??_C@_0FJ@DMHPDOJC@D?3?2Program?5Files?5?$CIx86?$CJ?2Microsoft@
CONST	SEGMENT DWORD USE32 PUBLIC 'CONST'
CONST	ENDS
;	COMDAT ?AtlThrow@ATL@@YGXJ@Z
_TEXT	SEGMENT PARA USE32 PUBLIC 'CODE'
_TEXT	ENDS
;	COMDAT ??RCTraceFileAndLineInfo@ATL@@QBAXKIPBDZZ
_TEXT	SEGMENT PARA USE32 PUBLIC 'CODE'
_TEXT	ENDS
;	COMDAT ?TraceV@CTrace@ATL@@QBAXPBDHKI0PAD@Z
_TEXT	SEGMENT PARA USE32 PUBLIC 'CODE'
_TEXT	ENDS
;	COMDAT ??0CTraceFileAndLineInfo@ATL@@QAE@PBDH@Z
_TEXT	SEGMENT PARA USE32 PUBLIC 'CODE'
_TEXT	ENDS
;	COMDAT ??_C@_0FI@NHHJANPC@D?3?2Program?5Files?5?$CIx86?$CJ?2Microsoft@
CONST	SEGMENT DWORD USE32 PUBLIC 'CONST'
CONST	ENDS
;	COMDAT ??_C@_0BF@IAAKIJDJ@AtlThrow?3?5hr?5?$DN?50x?$CFx?6?$AA@
CONST	SEGMENT DWORD USE32 PUBLIC 'CONST'
CONST	ENDS
;	COMDAT ??BCTraceCategory@ATL@@QBEKXZ
_TEXT	SEGMENT PARA USE32 PUBLIC 'CODE'
_TEXT	ENDS
;	COMDAT ?data@CStringData@ATL@@QAEPAXXZ
_TEXT	SEGMENT PARA USE32 PUBLIC 'CODE'
_TEXT	ENDS
;	COMDAT ?Release@CStringData@ATL@@QAEXXZ
_TEXT	SEGMENT PARA USE32 PUBLIC 'CODE'
_TEXT	ENDS
;	COMDAT ??_C@_0L@OIIMFBNE@nRefs?5?$CB?$DN?50?$AA@
CONST	SEGMENT DWORD USE32 PUBLIC 'CONST'
CONST	ENDS
;	COMDAT ?_messageEntries@CMainHostWnd@@0QBUAFX_MSGMAP_ENTRY@@B
CONST	SEGMENT DWORD USE32 PUBLIC 'CONST'
CONST	ENDS
;	COMDAT ?messageMap@CMainHostWnd@@1UAFX_MSGMAP@@B
CONST	SEGMENT DWORD USE32 PUBLIC 'CONST'
CONST	ENDS
;	COMDAT ??_C@_0BA@GOIMFHNK@pStringMgr?5?$CB?$DN?50?$AA@
CONST	SEGMENT DWORD USE32 PUBLIC 'CONST'
CONST	ENDS
;	COMDAT ?GetDefaultManager@?$StrTraitMFC_DLL@DV?$ChTraitsCRT@D@ATL@@@@SAPAUIAtlStringMgr@ATL@@XZ
_TEXT	SEGMENT PARA USE32 PUBLIC 'CODE'
_TEXT	ENDS
;	COMDAT ?FindStringResourceInstance@?$StrTraitMFC_DLL@DV?$ChTraitsCRT@D@ATL@@@@SAPAUHINSTANCE__@@I@Z
_TEXT	SEGMENT PARA USE32 PUBLIC 'CODE'
_TEXT	ENDS
;	COMDAT ?AtlGetStringResourceImage@ATL@@YAPBUATLSTRINGRESOURCEIMAGE@1@PAUHINSTANCE__@@I@Z
_TEXT	SEGMENT PARA USE32 PUBLIC 'CODE'
_TEXT	ENDS
;	COMDAT ?_AtlGetStringResourceImage@ATL@@YAPBUATLSTRINGRESOURCEIMAGE@1@PAUHINSTANCE__@@PAUHRSRC__@@I@Z
_TEXT	SEGMENT PARA USE32 PUBLIC 'CODE'
_TEXT	ENDS
;	COMDAT ?GetBaseTypeLength@?$ChTraitsCRT@D@ATL@@SAHPB_WH@Z
_TEXT	SEGMENT PARA USE32 PUBLIC 'CODE'
_TEXT	ENDS
;	COMDAT ?_AtlGetConversionACP@ATL@@YGIXZ
_TEXT	SEGMENT PARA USE32 PUBLIC 'CODE'
_TEXT	ENDS
;	COMDAT ?g_pfnGetThreadACP@ATL@@3P6GIXZA
_DATA	SEGMENT DWORD USE32 PUBLIC 'DATA'
_DATA	ENDS
;	COMDAT ?_AtlGetThreadACPThunk@ATL@@YGIXZ
_TEXT	SEGMENT PARA USE32 PUBLIC 'CODE'
_TEXT	ENDS
;	COMDAT ?_AtlGetThreadACPReal@ATL@@YGIXZ
_TEXT	SEGMENT PARA USE32 PUBLIC 'CODE'
_TEXT	ENDS
;	COMDAT ?_AtlGetThreadACPFake@ATL@@YGIXZ
_TEXT	SEGMENT PARA USE32 PUBLIC 'CODE'
_TEXT	ENDS
;	COMDAT ?InterlockedExchangePointer@@YGPAXPAPAXPAX@Z
_TEXT	SEGMENT PARA USE32 PUBLIC 'CODE'
_TEXT	ENDS
;	COMDAT ?IsShared@CStringData@ATL@@QBE_NXZ
_TEXT	SEGMENT PARA USE32 PUBLIC 'CODE'
_TEXT	ENDS
;	COMDAT ??_C@_0CB@GFHAPKDK@pOldData?9?$DOnAllocLength?5?$DM?5nLength@
CONST	SEGMENT DWORD USE32 PUBLIC 'CONST'
CONST	ENDS
;	COMDAT ?ConvertToBaseType@?$ChTraitsCRT@D@ATL@@SAXPADHPB_WH@Z
_TEXT	SEGMENT PARA USE32 PUBLIC 'CODE'
_TEXT	ENDS
;	COMDAT ??_C@_0BA@GNIEOBOF@nNewLength?5?$DO?$DN?50?$AA@
CONST	SEGMENT DWORD USE32 PUBLIC 'CONST'
CONST	ENDS
;	COMDAT ??_C@_0N@ILOMLJGA@nLength?5?$DO?$DN?50?$AA@
CONST	SEGMENT DWORD USE32 PUBLIC 'CONST'
CONST	ENDS
;	COMDAT ??_C@_0CD@EEFFJEGJ@nLength?5?$DM?$DN?5GetData?$CI?$CJ?9?$DOnAllocLeng@
CONST	SEGMENT DWORD USE32 PUBLIC 'CONST'
CONST	ENDS
;	COMDAT ??_C@_0CJ@FJEKGMMD@Warning?3?5implicit?5LoadString?$CI?$CFu?$CJ@
CONST	SEGMENT DWORD USE32 PUBLIC 'CONST'
CONST	ENDS
;	COMDAT ??_7CMainHostWnd@@6B@
CONST	SEGMENT DWORD USE32 PUBLIC 'CONST'
CONST	ENDS
;	COMDAT ??_7IData@@6B@
CONST	SEGMENT DWORD USE32 PUBLIC 'CONST'
CONST	ENDS
sxdata	SEGMENT DWORD USE32 'SXDATA'
sxdata	ENDS
FLAT	GROUP _DATA, CONST, _BSS
	ASSUME	CS: FLAT, DS: FLAT, SS: FLAT
endif

INCLUDELIB MSVCRTD
INCLUDELIB OLDNAMES

PUBLIC	?_messageEntries@CMainHostWnd@@0QBUAFX_MSGMAP_ENTRY@@B ; CMainHostWnd::_messageEntries
PUBLIC	?messageMap@CMainHostWnd@@1UAFX_MSGMAP@@B	; CMainHostWnd::messageMap
PUBLIC	?OnLButtonDown@CMainHostWnd@@IAEXIVCPoint@@@Z	; CMainHostWnd::OnLButtonDown
PUBLIC	?OnLButtonUp@CMainHostWnd@@IAEXIVCPoint@@@Z	; CMainHostWnd::OnLButtonUp
PUBLIC	?OnMouseMove@CMainHostWnd@@IAEXIVCPoint@@@Z	; CMainHostWnd::OnMouseMove
PUBLIC	?OnSize@CMainHostWnd@@IAEXIHH@Z			; CMainHostWnd::OnSize
PUBLIC	?g_pfnGetThreadACP@ATL@@3P6GIXZA		; ATL::g_pfnGetThreadACP
PUBLIC	?_AtlGetThreadACPThunk@ATL@@YGIXZ		; ATL::_AtlGetThreadACPThunk
EXTRN	?GetThisMessageMap@CHostWnd@@KGPBUAFX_MSGMAP@@XZ:NEAR ; CHostWnd::GetThisMessageMap
CONST	SEGMENT
$SG188103 DB	'int', 00H
CONST	ENDS
_DATA	SEGMENT
_TYPE_CONFIG_INT DD FLAT:$SG188103
_DATA	ENDS
CONST	SEGMENT
$SG188105 DB	'str', 00H
CONST	ENDS
_DATA	SEGMENT
_TYPE_CONFIG_STR DD FLAT:$SG188105
_DATA	ENDS
CONST	SEGMENT
$SG188107 DB	'double', 00H
CONST	ENDS
_DATA	SEGMENT
_TYPE_CONFIG_DOUBLE DD FLAT:$SG188107
_DATA	ENDS
CONST	SEGMENT
	ORG $+1
$SG188109 DB	'bool', 00H
CONST	ENDS
_DATA	SEGMENT
_TYPE_CONFIG_BOOL DD FLAT:$SG188109
_DATA	ENDS
CONST	SEGMENT
	ORG $+3
$SG188111 DB	'sepint', 00H
CONST	ENDS
_DATA	SEGMENT
_TYPE_CONFIG_INT_HASSEP DD FLAT:$SG188111
_DATA	ENDS
CONST	SEGMENT
	ORG $+1
$SG188113 DB	'sepstr', 00H
CONST	ENDS
_DATA	SEGMENT
_TYPE_CONFIG_STR_HASSEP DD FLAT:$SG188113
_DATA	ENDS
CONST	SEGMENT
	ORG $+1
$SG188115 DB	'sepdouble', 00H
CONST	ENDS
_DATA	SEGMENT
_TYPE_CONFIG_DOUBLE_HASSEP DD FLAT:$SG188115
_DATA	ENDS
CONST	SEGMENT
	ORG $+2
$SG188117 DB	'sepbool', 00H
CONST	ENDS
_DATA	SEGMENT
_TYPE_CONFIG_BOOL_HASSEP DD FLAT:$SG188117
_DATA	ENDS
CONST	SEGMENT
$SG188119 DB	'App', 00H
CONST	ENDS
_DATA	SEGMENT
_CONF_APP_MODULE_NAME DD FLAT:$SG188119
_DATA	ENDS
CONST	SEGMENT
$SG188121 DB	'SwfPath', 00H
CONST	ENDS
_DATA	SEGMENT
_CONF_APP_SWF_PATH DD FLAT:$SG188121
_DATA	ENDS
CONST	SEGMENT
$SG188123 DB	'MainWndHold', 00H
CONST	ENDS
_DATA	SEGMENT
_CONF_APP_MAINWND_HOLD DD FLAT:$SG188123
_DATA	ENDS
CONST	SEGMENT
$SG188125 DB	'RunCount', 00H
CONST	ENDS
_DATA	SEGMENT
_CONF_APP_RUN_COUNT DD FLAT:$SG188125
_DATA	ENDS
CONST	SEGMENT
	ORG $+3
$SG188127 DB	'PlayedGame', 00H
CONST	ENDS
_DATA	SEGMENT
_CONF_APP_PLAYED_GAME DD FLAT:$SG188127
_DATA	ENDS
CONST	SEGMENT
	ORG $+1
$SG188129 DB	'playedPcGame', 00H
CONST	ENDS
_DATA	SEGMENT
_CONF_APP_PLAYED_PC_GAME DD FLAT:$SG188129
_DATA	ENDS
CONST	SEGMENT
	ORG $+3
$SG188131 DB	'PlayedIconSize', 00H
CONST	ENDS
_DATA	SEGMENT
_CONF_APP_PLAYED_ICON_SIZE DD FLAT:$SG188131
_DATA	ENDS
CONST	SEGMENT
	ORG $+1
$SG188133 DB	'PictureSavePath', 00H
CONST	ENDS
_DATA	SEGMENT
_CONF_APP_PIC_SAVE_PATH DD FLAT:$SG188133
_DATA	ENDS
CONST	SEGMENT
$SG189206 DB	'ControlPanel', 00H
	ORG $+3
$SG189208 DB	'SepPlayList', 00H
$SG189215 DB	'normal', 00H
CONST	ENDS
;	COMDAT ?_messageEntries@CMainHostWnd@@0QBUAFX_MSGMAP_ENTRY@@B
CONST	SEGMENT
?_messageEntries@CMainHostWnd@@0QBUAFX_MSGMAP_ENTRY@@B DD 0202H ; CMainHostWnd::_messageEntries
	DD	00H
	DD	00H
	DD	00H
	DD	032H
	DD	FLAT:?OnLButtonUp@CMainHostWnd@@IAEXIVCPoint@@@Z
	DD	0201H
	DD	00H
	DD	00H
	DD	00H
	DD	032H
	DD	FLAT:?OnLButtonDown@CMainHostWnd@@IAEXIVCPoint@@@Z
	DD	0200H
	DD	00H
	DD	00H
	DD	00H
	DD	032H
	DD	FLAT:?OnMouseMove@CMainHostWnd@@IAEXIVCPoint@@@Z
	DD	05H
	DD	00H
	DD	00H
	DD	00H
	DD	016H
	DD	FLAT:?OnSize@CMainHostWnd@@IAEXIHH@Z
	DD	00H
	DD	00H
	DD	00H
	DD	00H
	DD	00H
	DD	00H
CONST	ENDS
;	COMDAT ?messageMap@CMainHostWnd@@1UAFX_MSGMAP@@B
CONST	SEGMENT
?messageMap@CMainHostWnd@@1UAFX_MSGMAP@@B DD FLAT:?GetThisMessageMap@CHostWnd@@KGPBUAFX_MSGMAP@@XZ ; CMainHostWnd::messageMap
	DD	FLAT:?_messageEntries@CMainHostWnd@@0QBUAFX_MSGMAP_ENTRY@@B
CONST	ENDS
CONST	SEGMENT
	ORG $+1
$SG189332 DB	'ControlPanel', 00H
	ORG $+3
$SG189337 DB	'MultiNowPlaying', 00H
$SG189341 DB	'watchmode', 00H
	ORG $+2
$SG189342 DB	'ControlPanel', 00H
	ORG $+3
$SG189345 DB	'normal', 00H
	ORG $+1
$SG189346 DB	'ControlPanel', 00H
	ORG $+3
$SG189349 DB	'normal', 00H
	ORG $+1
$SG189350 DB	'ControlPanel', 00H
	ORG $+3
$SG189354 DB	'watchmode', 00H
	ORG $+2
$SG189355 DB	'ControlPanel', 00H
	ORG $+3
$SG189358 DB	'watchmode', 00H
	ORG $+2
$SG189359 DB	'ControlPanel', 00H
	ORG $+3
$SG189363 DB	'MultiNowPlaying', 00H
$SG189368 DB	'BTN:SHOW_MV', 00H
$SG189369 DB	'USRCLK', 00H
	ORG $+1
$SG189373 DB	'BTN:HIDE_MV', 00H
$SG189374 DB	'USRCLK', 00H
CONST	ENDS
;	COMDAT ?g_pfnGetThreadACP@ATL@@3P6GIXZA
_DATA	SEGMENT
?g_pfnGetThreadACP@ATL@@3P6GIXZA DD FLAT:?_AtlGetThreadACPThunk@ATL@@YGIXZ ; ATL::g_pfnGetThreadACP
_DATA	ENDS
PUBLIC	??0CMainHostWnd@@QAE@PAVCWnd@@@Z		; CMainHostWnd::CMainHostWnd
PUBLIC	?_needChangeCursor@CMainHostWnd@@UAE_NABVCPoint@@@Z ; CMainHostWnd::_needChangeCursor
PUBLIC	?GetMessageMap@CMainHostWnd@@MBEPBUAFX_MSGMAP@@XZ ; CMainHostWnd::GetMessageMap
PUBLIC	?OnInitDialog@CMainHostWnd@@MAEHXZ		; CMainHostWnd::OnInitDialog
PUBLIC	??_7CMainHostWnd@@6B@				; CMainHostWnd::`vftable'
PUBLIC	??_GCMainHostWnd@@UAEPAXI@Z			; CMainHostWnd::`scalar deleting destructor'
PUBLIC	??8ATL@@YA_NABV?$CStringT@DV?$StrTraitMFC_DLL@DV?$ChTraitsCRT@D@ATL@@@@@0@PBD@Z ; ATL::operator==
PUBLIC	??_R1A@?0A@A@CDialog@@8				; CDialog::`RTTI Base Class Descriptor at (0,-1,0,0)'
PUBLIC	??_R0?AVCDialog@@@8				; CDialog `RTTI Type Descriptor'
PUBLIC	??_R1A@?0A@A@CWnd@@8				; CWnd::`RTTI Base Class Descriptor at (0,-1,0,0)'
PUBLIC	??_R0?AVCWnd@@@8				; CWnd `RTTI Type Descriptor'
PUBLIC	??_R1A@?0A@A@CCmdTarget@@8			; CCmdTarget::`RTTI Base Class Descriptor at (0,-1,0,0)'
PUBLIC	??_R0?AVCCmdTarget@@@8				; CCmdTarget `RTTI Type Descriptor'
PUBLIC	??_R1A@?0A@A@CObject@@8				; CObject::`RTTI Base Class Descriptor at (0,-1,0,0)'
PUBLIC	??_R0?AVCObject@@@8				; CObject `RTTI Type Descriptor'
PUBLIC	??_R4CMainHostWnd@@6B@				; CMainHostWnd::`RTTI Complete Object Locator'
PUBLIC	??_R0?AVCMainHostWnd@@@8			; CMainHostWnd `RTTI Type Descriptor'
PUBLIC	??_R3CMainHostWnd@@8				; CMainHostWnd::`RTTI Class Hierarchy Descriptor'
PUBLIC	??_R2CMainHostWnd@@8				; CMainHostWnd::`RTTI Base Class Array'
PUBLIC	??_R1A@?0A@A@CMainHostWnd@@8			; CMainHostWnd::`RTTI Base Class Descriptor at (0,-1,0,0)'
PUBLIC	??_R1A@?0A@A@CHostWnd@@8			; CHostWnd::`RTTI Base Class Descriptor at (0,-1,0,0)'
PUBLIC	??_R0?AVCHostWnd@@@8				; CHostWnd `RTTI Type Descriptor'
EXTRN	?GetInterfaceMap@CWnd@@MBEPBUAFX_INTERFACEMAP@@XZ:NEAR ; CWnd::GetInterfaceMap
EXTRN	??_ECMainHostWnd@@UAEPAXI@Z:NEAR		; CMainHostWnd::`vector deleting destructor'
EXTRN	__RTC_InitBase:NEAR
EXTRN	__RTC_Shutdown:NEAR
EXTRN	__RTC_CheckEsp:NEAR
EXTRN	__except_list:DWORD
EXTRN	@_RTC_CheckStackVars@8:NEAR
EXTRN	___CxxFrameHandler:NEAR
EXTRN	?EnsureStdObj@CWnd@@UAEJXZ:NEAR			; CWnd::EnsureStdObj
EXTRN	?get_accParent@CWnd@@UAEJPAPAUIDispatch@@@Z:NEAR ; CWnd::get_accParent
EXTRN	?get_accChildCount@CWnd@@UAEJPAJ@Z:NEAR		; CWnd::get_accChildCount
EXTRN	?IsInvokeAllowed@CCmdTarget@@UAEHJ@Z:NEAR	; CCmdTarget::IsInvokeAllowed
EXTRN	?get_accChild@CWnd@@UAEJUtagVARIANT@@PAPAUIDispatch@@@Z:NEAR ; CWnd::get_accChild
EXTRN	?get_accName@CWnd@@UAEJUtagVARIANT@@PAPA_W@Z:NEAR ; CWnd::get_accName
EXTRN	?get_accValue@CWnd@@UAEJUtagVARIANT@@PAPA_W@Z:NEAR ; CWnd::get_accValue
EXTRN	?GetDispatchIID@CCmdTarget@@UAEHPAU_GUID@@@Z:NEAR ; CCmdTarget::GetDispatchIID
EXTRN	?GetTypeInfoCount@CCmdTarget@@UAEIXZ:NEAR	; CCmdTarget::GetTypeInfoCount
EXTRN	?GetTypeLibCache@CCmdTarget@@UAEPAVCTypeLibCache@@XZ:NEAR ; CCmdTarget::GetTypeLibCache
EXTRN	?get_accDescription@CWnd@@UAEJUtagVARIANT@@PAPA_W@Z:NEAR ; CWnd::get_accDescription
EXTRN	?AfxGetUIManager@@YAPAVIUIManager@@XZ:NEAR	; AfxGetUIManager
EXTRN	?GetTypeLib@CCmdTarget@@UAEJKPAPAUITypeLib@@@Z:NEAR ; CCmdTarget::GetTypeLib
EXTRN	?get_accRole@CWnd@@UAEJUtagVARIANT@@PAU2@@Z:NEAR ; CWnd::get_accRole
EXTRN	?get_accState@CWnd@@UAEJUtagVARIANT@@PAU2@@Z:NEAR ; CWnd::get_accState
EXTRN	?get_accHelp@CWnd@@UAEJUtagVARIANT@@PAPA_W@Z:NEAR ; CWnd::get_accHelp
EXTRN	?get_accHelpTopic@CWnd@@UAEJPAPA_WUtagVARIANT@@PAJ@Z:NEAR ; CWnd::get_accHelpTopic
EXTRN	?get_accKeyboardShortcut@CWnd@@UAEJUtagVARIANT@@PAPA_W@Z:NEAR ; CWnd::get_accKeyboardShortcut
EXTRN	?get_accFocus@CWnd@@UAEJPAUtagVARIANT@@@Z:NEAR	; CWnd::get_accFocus
EXTRN	?get_accSelection@CWnd@@UAEJPAUtagVARIANT@@@Z:NEAR ; CWnd::get_accSelection
EXTRN	?get_accDefaultAction@CWnd@@UAEJUtagVARIANT@@PAPA_W@Z:NEAR ; CWnd::get_accDefaultAction
EXTRN	?GetCommandMap@CCmdTarget@@MBEPBUAFX_OLECMDMAP@@XZ:NEAR ; CCmdTarget::GetCommandMap
EXTRN	?accSelect@CWnd@@UAEJJUtagVARIANT@@@Z:NEAR	; CWnd::accSelect
EXTRN	?accLocation@CWnd@@UAEJPAJ000UtagVARIANT@@@Z:NEAR ; CWnd::accLocation
EXTRN	?GetDispatchMap@CCmdTarget@@MBEPBUAFX_DISPMAP@@XZ:NEAR ; CCmdTarget::GetDispatchMap
EXTRN	?accNavigate@CWnd@@UAEJJUtagVARIANT@@PAU2@@Z:NEAR ; CWnd::accNavigate
EXTRN	?accHitTest@CWnd@@UAEJJJPAUtagVARIANT@@@Z:NEAR	; CWnd::accHitTest
EXTRN	?GetConnectionMap@CCmdTarget@@MBEPBUAFX_CONNECTIONMAP@@XZ:NEAR ; CCmdTarget::GetConnectionMap
EXTRN	?accDoDefaultAction@CWnd@@UAEJUtagVARIANT@@@Z:NEAR ; CWnd::accDoDefaultAction
EXTRN	?put_accName@CWnd@@UAEJUtagVARIANT@@PA_W@Z:NEAR	; CWnd::put_accName
EXTRN	?put_accValue@CWnd@@UAEJUtagVARIANT@@PA_W@Z:NEAR ; CWnd::put_accValue
EXTRN	?SetProxy@CWnd@@UAEJPAUIAccessibleProxy@@@Z:NEAR ; CWnd::SetProxy
EXTRN	?CreateAccessibleProxy@CWnd@@UAEJIJPAJ@Z:NEAR	; CWnd::CreateAccessibleProxy
EXTRN	?GetEventSinkMap@CCmdTarget@@MBEPBUAFX_EVENTSINKMAP@@XZ:NEAR ; CCmdTarget::GetEventSinkMap
EXTRN	?OnCreateAggregates@CCmdTarget@@UAEHXZ:NEAR	; CCmdTarget::OnCreateAggregates
EXTRN	?OnCommand@CWnd@@MAEHIJ@Z:NEAR			; CWnd::OnCommand
EXTRN	?GetInterfaceHook@CCmdTarget@@UAEPAUIUnknown@@PBX@Z:NEAR ; CCmdTarget::GetInterfaceHook
EXTRN	?OnNotify@CWnd@@MAEHIJPAJ@Z:NEAR		; CWnd::OnNotify
EXTRN	?GetExtraConnectionPoints@CCmdTarget@@MAEHPAVCPtrArray@@@Z:NEAR ; CCmdTarget::GetExtraConnectionPoints
EXTRN	?GetConnectionHook@CCmdTarget@@MAEPAUIConnectionPoint@@ABU_GUID@@@Z:NEAR ; CCmdTarget::GetConnectionHook
EXTRN	?PreSubclassWindow@CWnd@@UAEXXZ:NEAR		; CWnd::PreSubclassWindow
EXTRN	?Create@CWnd@@UAEHPBD0KABUtagRECT@@PAV1@IPAUCCreateContext@@@Z:NEAR ; CWnd::Create
EXTRN	?CreateEx@CWnd@@UAEHKPBD0KHHHHPAUHWND__@@PAUHMENU__@@PAX@Z:NEAR ; CWnd::CreateEx
EXTRN	?CreateEx@CWnd@@UAEHKPBD0KABUtagRECT@@PAV1@IPAX@Z:NEAR ; CWnd::CreateEx
EXTRN	?Serialize@CObject@@UAEXAAVCArchive@@@Z:NEAR	; CObject::Serialize
EXTRN	?DestroyWindow@CWnd@@UAEHXZ:NEAR		; CWnd::DestroyWindow
EXTRN	?PreCreateWindow@CWnd@@UAEHAAUtagCREATESTRUCTA@@@Z:NEAR ; CWnd::PreCreateWindow
EXTRN	?CalcWindowRect@CWnd@@UAEXPAUtagRECT@@I@Z:NEAR	; CWnd::CalcWindowRect
EXTRN	?GetSuperWndProcAddr@CWnd@@MAEPAP6GJPAUHWND__@@IIJ@ZXZ:NEAR ; CWnd::GetSuperWndProcAddr
EXTRN	?DoDataExchange@CWnd@@MAEXPAVCDataExchange@@@Z:NEAR ; CWnd::DoDataExchange
EXTRN	?BeginModalState@CWnd@@UAEXXZ:NEAR		; CWnd::BeginModalState
EXTRN	?EndModalState@CWnd@@UAEXXZ:NEAR		; CWnd::EndModalState
EXTRN	?OnAmbientProperty@CWnd@@UAEHPAVCOleControlSite@@JPAUtagVARIANT@@@Z:NEAR ; CWnd::OnAmbientProperty
EXTRN	?WindowProc@CWnd@@MAEJIIJ@Z:NEAR		; CWnd::WindowProc
EXTRN	?OnWndMsg@CWnd@@MAEHIIJPAJ@Z:NEAR		; CWnd::OnWndMsg
EXTRN	?DefWindowProcA@CWnd@@MAEJIIJ@Z:NEAR		; CWnd::DefWindowProcA
EXTRN	?PostNcDestroy@CWnd@@MAEXXZ:NEAR		; CWnd::PostNcDestroy
EXTRN	?OnChildNotify@CWnd@@MAEHIIJPAJ@Z:NEAR		; CWnd::OnChildNotify
EXTRN	?IsFrameWnd@CWnd@@UBEHXZ:NEAR			; CWnd::IsFrameWnd
EXTRN	?OnFinalRelease@CWnd@@UAEXXZ:NEAR		; CWnd::OnFinalRelease
EXTRN	?CreateControlContainer@CWnd@@MAEHPAPAVCOleControlContainer@@@Z:NEAR ; CWnd::CreateControlContainer
EXTRN	?CreateControlSite@CWnd@@MAEHPAVCOleControlContainer@@PAPAVCOleControlSite@@IABU_GUID@@@Z:NEAR ; CWnd::CreateControlSite
EXTRN	?GetRuntimeClass@CDialog@@UBEPAUCRuntimeClass@@XZ:NEAR ; CDialog::GetRuntimeClass
EXTRN	?Create@CDialog@@UAEHPBDPAVCWnd@@@Z:NEAR	; CDialog::Create
EXTRN	?Create@CDialog@@UAEHIPAVCWnd@@@Z:NEAR		; CDialog::Create
EXTRN	?CreateIndirect@CDialog@@UAEHPBUDLGTEMPLATE@@PAVCWnd@@PAX@Z:NEAR ; CDialog::CreateIndirect
EXTRN	?CreateIndirect@CDialog@@UAEHPAXPAVCWnd@@@Z:NEAR ; CDialog::CreateIndirect
EXTRN	?OnToolHitTest@CWnd@@UBEHVCPoint@@PAUtagTOOLINFOA@@@Z:NEAR ; CWnd::OnToolHitTest
EXTRN	__imp_??0?$CStringT@DV?$StrTraitMFC_DLL@DV?$ChTraitsCRT@D@ATL@@@@@ATL@@QAE@PBD@Z:NEAR
EXTRN	?DoModal@CDialog@@UAEHXZ:NEAR			; CDialog::DoModal
EXTRN	?OnSetFont@CDialog@@UAEXPAVCFont@@@Z:NEAR	; CDialog::OnSetFont
EXTRN	?AssertValid@CDialog@@UBEXXZ:NEAR		; CDialog::AssertValid
EXTRN	?Dump@CDialog@@UBEXAAVCDumpContext@@@Z:NEAR	; CDialog::Dump
EXTRN	__imp_??1?$CStringT@DV?$StrTraitMFC_DLL@DV?$ChTraitsCRT@D@ATL@@@@@ATL@@QAE@XZ:NEAR
EXTRN	?OnCmdMsg@CDialog@@UAEHIHPAXPAUAFX_CMDHANDLERINFO@@@Z:NEAR ; CDialog::OnCmdMsg
EXTRN	?CheckAutoCenter@CDialog@@UAEHXZ:NEAR		; CDialog::CheckAutoCenter
EXTRN	?SetOccDialogInfo@CDialog@@MAEHPAU_AFX_OCC_DIALOG_INFO@@@Z:NEAR ; CDialog::SetOccDialogInfo
EXTRN	?PreInitDialog@CDialog@@MAEXXZ:NEAR		; CDialog::PreInitDialog
EXTRN	?GetScrollBarCtrl@CWnd@@UBEPAVCScrollBar@@H@Z:NEAR ; CWnd::GetScrollBarCtrl
EXTRN	??0CHostWnd@@QAE@PAVCWnd@@@Z:NEAR		; CHostWnd::CHostWnd
EXTRN	??1CHostWnd@@UAE@XZ:NEAR			; CHostWnd::~CHostWnd
EXTRN	?OnOK@CHostWnd@@MAEXXZ:NEAR			; CHostWnd::OnOK
EXTRN	?OnCancel@CHostWnd@@MAEXXZ:NEAR			; CHostWnd::OnCancel
EXTRN	?PreTranslateMessage@CHostWnd@@UAEHPAUtagMSG@@@Z:NEAR ; CHostWnd::PreTranslateMessage
EXTRN	?WinHelpA@CWnd@@UAEXKI@Z:NEAR			; CWnd::WinHelpA
EXTRN	?HtmlHelpA@CWnd@@UAEXKI@Z:NEAR			; CWnd::HtmlHelpA
EXTRN	??_7type_info@@6B@:QWORD			; type_info::`vftable'
EXTRN	?WinHelpInternal@CWnd@@UAEXKI@Z:NEAR		; CWnd::WinHelpInternal
EXTRN	?ContinueModal@CWnd@@UAEHXZ:NEAR		; CWnd::ContinueModal
EXTRN	?EndModalLoop@CWnd@@UAEXH@Z:NEAR		; CWnd::EndModalLoop
;	COMDAT rtc$IMZ
; File d:\boxgit\playbox\playbox\dev\prj\playbox\src\layoutmgr\seperatemode\mainhostwnd.cpp
rtc$IMZ	SEGMENT
__RTC_InitBase.rtc$IMZ DD FLAT:__RTC_InitBase
rtc$IMZ	ENDS
;	COMDAT rtc$TMZ
rtc$TMZ	SEGMENT
__RTC_Shutdown.rtc$TMZ DD FLAT:__RTC_Shutdown
rtc$TMZ	ENDS
xdata$x	SEGMENT
$T190547 DD	0ffffffffH
	DD	FLAT:$L190532
	DD	00H
	DD	FLAT:$L190533
	DD	00H
	DD	FLAT:$L190534
$T190539 DD	019930520H
	DD	03H
	DD	FLAT:$T190547
	DD	2 DUP(00H)
	DD	2 DUP(00H)
xdata$x	ENDS
;	COMDAT ??_7CMainHostWnd@@6B@
CONST	SEGMENT
??_7CMainHostWnd@@6B@ DD FLAT:??_R4CMainHostWnd@@6B@	; CMainHostWnd::`vftable'
	DD	FLAT:?GetRuntimeClass@CDialog@@UBEPAUCRuntimeClass@@XZ
	DD	FLAT:??_ECMainHostWnd@@UAEPAXI@Z
	DD	FLAT:?Serialize@CObject@@UAEXAAVCArchive@@@Z
	DD	FLAT:?AssertValid@CDialog@@UBEXXZ
	DD	FLAT:?Dump@CDialog@@UBEXAAVCDumpContext@@@Z
	DD	FLAT:?OnCmdMsg@CDialog@@UAEHIHPAXPAUAFX_CMDHANDLERINFO@@@Z
	DD	FLAT:?OnFinalRelease@CWnd@@UAEXXZ
	DD	FLAT:?IsInvokeAllowed@CCmdTarget@@UAEHJ@Z
	DD	FLAT:?GetDispatchIID@CCmdTarget@@UAEHPAU_GUID@@@Z
	DD	FLAT:?GetTypeInfoCount@CCmdTarget@@UAEIXZ
	DD	FLAT:?GetTypeLibCache@CCmdTarget@@UAEPAVCTypeLibCache@@XZ
	DD	FLAT:?GetTypeLib@CCmdTarget@@UAEJKPAPAUITypeLib@@@Z
	DD	FLAT:?GetMessageMap@CMainHostWnd@@MBEPBUAFX_MSGMAP@@XZ
	DD	FLAT:?GetCommandMap@CCmdTarget@@MBEPBUAFX_OLECMDMAP@@XZ
	DD	FLAT:?GetDispatchMap@CCmdTarget@@MBEPBUAFX_DISPMAP@@XZ
	DD	FLAT:?GetConnectionMap@CCmdTarget@@MBEPBUAFX_CONNECTIONMAP@@XZ
	DD	FLAT:?GetInterfaceMap@CWnd@@MBEPBUAFX_INTERFACEMAP@@XZ
	DD	FLAT:?GetEventSinkMap@CCmdTarget@@MBEPBUAFX_EVENTSINKMAP@@XZ
	DD	FLAT:?OnCreateAggregates@CCmdTarget@@UAEHXZ
	DD	FLAT:?GetInterfaceHook@CCmdTarget@@UAEPAUIUnknown@@PBX@Z
	DD	FLAT:?GetExtraConnectionPoints@CCmdTarget@@MAEHPAVCPtrArray@@@Z
	DD	FLAT:?GetConnectionHook@CCmdTarget@@MAEPAUIConnectionPoint@@ABU_GUID@@@Z
	DD	FLAT:?PreSubclassWindow@CWnd@@UAEXXZ
	DD	FLAT:?Create@CWnd@@UAEHPBD0KABUtagRECT@@PAV1@IPAUCCreateContext@@@Z
	DD	FLAT:?CreateEx@CWnd@@UAEHKPBD0KABUtagRECT@@PAV1@IPAX@Z
	DD	FLAT:?CreateEx@CWnd@@UAEHKPBD0KHHHHPAUHWND__@@PAUHMENU__@@PAX@Z
	DD	FLAT:?DestroyWindow@CWnd@@UAEHXZ
	DD	FLAT:?PreCreateWindow@CWnd@@UAEHAAUtagCREATESTRUCTA@@@Z
	DD	FLAT:?CalcWindowRect@CWnd@@UAEXPAUtagRECT@@I@Z
	DD	FLAT:?OnToolHitTest@CWnd@@UBEHVCPoint@@PAUtagTOOLINFOA@@@Z
	DD	FLAT:?GetScrollBarCtrl@CWnd@@UBEPAVCScrollBar@@H@Z
	DD	FLAT:?WinHelpA@CWnd@@UAEXKI@Z
	DD	FLAT:?HtmlHelpA@CWnd@@UAEXKI@Z
	DD	FLAT:?WinHelpInternal@CWnd@@UAEXKI@Z
	DD	FLAT:?ContinueModal@CWnd@@UAEHXZ
	DD	FLAT:?EndModalLoop@CWnd@@UAEXH@Z
	DD	FLAT:?EnsureStdObj@CWnd@@UAEJXZ
	DD	FLAT:?get_accParent@CWnd@@UAEJPAPAUIDispatch@@@Z
	DD	FLAT:?get_accChildCount@CWnd@@UAEJPAJ@Z
	DD	FLAT:?get_accChild@CWnd@@UAEJUtagVARIANT@@PAPAUIDispatch@@@Z
	DD	FLAT:?get_accName@CWnd@@UAEJUtagVARIANT@@PAPA_W@Z
	DD	FLAT:?get_accValue@CWnd@@UAEJUtagVARIANT@@PAPA_W@Z
	DD	FLAT:?get_accDescription@CWnd@@UAEJUtagVARIANT@@PAPA_W@Z
	DD	FLAT:?get_accRole@CWnd@@UAEJUtagVARIANT@@PAU2@@Z
	DD	FLAT:?get_accState@CWnd@@UAEJUtagVARIANT@@PAU2@@Z
	DD	FLAT:?get_accHelp@CWnd@@UAEJUtagVARIANT@@PAPA_W@Z
	DD	FLAT:?get_accHelpTopic@CWnd@@UAEJPAPA_WUtagVARIANT@@PAJ@Z
	DD	FLAT:?get_accKeyboardShortcut@CWnd@@UAEJUtagVARIANT@@PAPA_W@Z
	DD	FLAT:?get_accFocus@CWnd@@UAEJPAUtagVARIANT@@@Z
	DD	FLAT:?get_accSelection@CWnd@@UAEJPAUtagVARIANT@@@Z
	DD	FLAT:?get_accDefaultAction@CWnd@@UAEJUtagVARIANT@@PAPA_W@Z
	DD	FLAT:?accSelect@CWnd@@UAEJJUtagVARIANT@@@Z
	DD	FLAT:?accLocation@CWnd@@UAEJPAJ000UtagVARIANT@@@Z
	DD	FLAT:?accNavigate@CWnd@@UAEJJUtagVARIANT@@PAU2@@Z
	DD	FLAT:?accHitTest@CWnd@@UAEJJJPAUtagVARIANT@@@Z
	DD	FLAT:?accDoDefaultAction@CWnd@@UAEJUtagVARIANT@@@Z
	DD	FLAT:?put_accName@CWnd@@UAEJUtagVARIANT@@PA_W@Z
	DD	FLAT:?put_accValue@CWnd@@UAEJUtagVARIANT@@PA_W@Z
	DD	FLAT:?SetProxy@CWnd@@UAEJPAUIAccessibleProxy@@@Z
	DD	FLAT:?CreateAccessibleProxy@CWnd@@UAEJIJPAJ@Z
	DD	FLAT:?OnCommand@CWnd@@MAEHIJ@Z
	DD	FLAT:?OnNotify@CWnd@@MAEHIJPAJ@Z
	DD	FLAT:?GetSuperWndProcAddr@CWnd@@MAEPAP6GJPAUHWND__@@IIJ@ZXZ
	DD	FLAT:?DoDataExchange@CWnd@@MAEXPAVCDataExchange@@@Z
	DD	FLAT:?BeginModalState@CWnd@@UAEXXZ
	DD	FLAT:?EndModalState@CWnd@@UAEXXZ
	DD	FLAT:?PreTranslateMessage@CHostWnd@@UAEHPAUtagMSG@@@Z
	DD	FLAT:?OnAmbientProperty@CWnd@@UAEHPAVCOleControlSite@@JPAUtagVARIANT@@@Z
	DD	FLAT:?WindowProc@CWnd@@MAEJIIJ@Z
	DD	FLAT:?OnWndMsg@CWnd@@MAEHIIJPAJ@Z
	DD	FLAT:?DefWindowProcA@CWnd@@MAEJIIJ@Z
	DD	FLAT:?PostNcDestroy@CWnd@@MAEXXZ
	DD	FLAT:?OnChildNotify@CWnd@@MAEHIIJPAJ@Z
	DD	FLAT:?CheckAutoCenter@CDialog@@UAEHXZ
	DD	FLAT:?IsFrameWnd@CWnd@@UBEHXZ
	DD	FLAT:?CreateControlContainer@CWnd@@MAEHPAPAVCOleControlContainer@@@Z
	DD	FLAT:?CreateControlSite@CWnd@@MAEHPAVCOleControlContainer@@PAPAVCOleControlSite@@IABU_GUID@@@Z
	DD	FLAT:?SetOccDialogInfo@CDialog@@MAEHPAU_AFX_OCC_DIALOG_INFO@@@Z
	DD	FLAT:?Create@CDialog@@UAEHIPAVCWnd@@@Z
	DD	FLAT:?Create@CDialog@@UAEHPBDPAVCWnd@@@Z
	DD	FLAT:?CreateIndirect@CDialog@@UAEHPAXPAVCWnd@@@Z
	DD	FLAT:?CreateIndirect@CDialog@@UAEHPBUDLGTEMPLATE@@PAVCWnd@@PAX@Z
	DD	FLAT:?DoModal@CDialog@@UAEHXZ
	DD	FLAT:?OnInitDialog@CMainHostWnd@@MAEHXZ
	DD	FLAT:?OnSetFont@CDialog@@UAEXPAVCFont@@@Z
	DD	FLAT:?OnOK@CHostWnd@@MAEXXZ
	DD	FLAT:?OnCancel@CHostWnd@@MAEXXZ
	DD	FLAT:?PreInitDialog@CDialog@@MAEXXZ
	DD	FLAT:?_needChangeCursor@CMainHostWnd@@UAE_NABVCPoint@@@Z
CONST	ENDS
;	COMDAT ??_R4CMainHostWnd@@6B@
rdata$r	SEGMENT
??_R4CMainHostWnd@@6B@ DD 00H				; CMainHostWnd::`RTTI Complete Object Locator'
	DD	00H
	DD	00H
	DD	FLAT:??_R0?AVCMainHostWnd@@@8
	DD	FLAT:??_R3CMainHostWnd@@8
rdata$r	ENDS
;	COMDAT ??_R0?AVCMainHostWnd@@@8
_DATA	SEGMENT
??_R0?AVCMainHostWnd@@@8 DD FLAT:??_7type_info@@6B@	; CMainHostWnd `RTTI Type Descriptor'
	DD	00H
	DB	'.?AVCMainHostWnd@@', 00H
_DATA	ENDS
;	COMDAT ??_R3CMainHostWnd@@8
rdata$r	SEGMENT
??_R3CMainHostWnd@@8 DD 00H				; CMainHostWnd::`RTTI Class Hierarchy Descriptor'
	DD	00H
	DD	06H
	DD	FLAT:??_R2CMainHostWnd@@8
rdata$r	ENDS
;	COMDAT ??_R2CMainHostWnd@@8
rdata$r	SEGMENT
??_R2CMainHostWnd@@8 DD FLAT:??_R1A@?0A@A@CMainHostWnd@@8 ; CMainHostWnd::`RTTI Base Class Array'
	DD	FLAT:??_R1A@?0A@A@CHostWnd@@8
	DD	FLAT:??_R1A@?0A@A@CDialog@@8
	DD	FLAT:??_R1A@?0A@A@CWnd@@8
	DD	FLAT:??_R1A@?0A@A@CCmdTarget@@8
	DD	FLAT:??_R1A@?0A@A@CObject@@8
rdata$r	ENDS
;	COMDAT ??_R1A@?0A@A@CMainHostWnd@@8
rdata$r	SEGMENT
??_R1A@?0A@A@CMainHostWnd@@8 DD FLAT:??_R0?AVCMainHostWnd@@@8 ; CMainHostWnd::`RTTI Base Class Descriptor at (0,-1,0,0)'
	DD	05H
	DD	00H
	DD	0ffffffffH
	DD	00H
	DD	00H
rdata$r	ENDS
;	COMDAT ??_R1A@?0A@A@CHostWnd@@8
rdata$r	SEGMENT
??_R1A@?0A@A@CHostWnd@@8 DD FLAT:??_R0?AVCHostWnd@@@8	; CHostWnd::`RTTI Base Class Descriptor at (0,-1,0,0)'
	DD	04H
	DD	00H
	DD	0ffffffffH
	DD	00H
	DD	00H
rdata$r	ENDS
;	COMDAT ??_R0?AVCHostWnd@@@8
_DATA	SEGMENT
??_R0?AVCHostWnd@@@8 DD FLAT:??_7type_info@@6B@		; CHostWnd `RTTI Type Descriptor'
	DD	00H
	DB	'.?AVCHostWnd@@', 00H
_DATA	ENDS
;	COMDAT ??_R1A@?0A@A@CDialog@@8
rdata$r	SEGMENT
??_R1A@?0A@A@CDialog@@8 DD FLAT:??_R0?AVCDialog@@@8	; CDialog::`RTTI Base Class Descriptor at (0,-1,0,0)'
	DD	03H
	DD	00H
	DD	0ffffffffH
	DD	00H
	DD	00H
rdata$r	ENDS
;	COMDAT ??_R0?AVCDialog@@@8
_DATA	SEGMENT
??_R0?AVCDialog@@@8 DD FLAT:??_7type_info@@6B@		; CDialog `RTTI Type Descriptor'
	DD	00H
	DB	'.?AVCDialog@@', 00H
_DATA	ENDS
;	COMDAT ??_R1A@?0A@A@CWnd@@8
rdata$r	SEGMENT
??_R1A@?0A@A@CWnd@@8 DD FLAT:??_R0?AVCWnd@@@8		; CWnd::`RTTI Base Class Descriptor at (0,-1,0,0)'
	DD	02H
	DD	00H
	DD	0ffffffffH
	DD	00H
	DD	00H
rdata$r	ENDS
;	COMDAT ??_R0?AVCWnd@@@8
_DATA	SEGMENT
??_R0?AVCWnd@@@8 DD FLAT:??_7type_info@@6B@		; CWnd `RTTI Type Descriptor'
	DD	00H
	DB	'.?AVCWnd@@', 00H
_DATA	ENDS
;	COMDAT ??_R1A@?0A@A@CCmdTarget@@8
rdata$r	SEGMENT
??_R1A@?0A@A@CCmdTarget@@8 DD FLAT:??_R0?AVCCmdTarget@@@8 ; CCmdTarget::`RTTI Base Class Descriptor at (0,-1,0,0)'
	DD	01H
	DD	00H
	DD	0ffffffffH
	DD	00H
	DD	00H
rdata$r	ENDS
;	COMDAT ??_R0?AVCCmdTarget@@@8
_DATA	SEGMENT
??_R0?AVCCmdTarget@@@8 DD FLAT:??_7type_info@@6B@	; CCmdTarget `RTTI Type Descriptor'
	DD	00H
	DB	'.?AVCCmdTarget@@', 00H
_DATA	ENDS
;	COMDAT ??_R1A@?0A@A@CObject@@8
rdata$r	SEGMENT
??_R1A@?0A@A@CObject@@8 DD FLAT:??_R0?AVCObject@@@8	; CObject::`RTTI Base Class Descriptor at (0,-1,0,0)'
	DD	00H
	DD	00H
	DD	0ffffffffH
	DD	00H
	DD	00H
rdata$r	ENDS
;	COMDAT ??_R0?AVCObject@@@8
_DATA	SEGMENT
??_R0?AVCObject@@@8 DD FLAT:??_7type_info@@6B@		; CObject `RTTI Type Descriptor'
	DD	00H
	DB	'.?AVCObject@@', 00H
; Function compile flags: /Odt /RTCsu
_DATA	ENDS
_TEXT	SEGMENT
tv160 = -88						; size = 4
tv155 = -84						; size = 4
tv185 = -80						; size = 4
tv135 = -76						; size = 4
tv130 = -72						; size = 4
tv184 = -68						; size = 4
tv188 = -64						; size = 4
tv182 = -60						; size = 4
tv77 = -56						; size = 4
tv72 = -52						; size = 4
tv181 = -48						; size = 4
tv65 = -44						; size = 4
$T190525 = -40						; size = 4
$T190524 = -36						; size = 4
_mode$ = -32						; size = 4
_strControlMode$ = -24					; size = 4
_this$ = -16						; size = 4
__$EHRec$ = -12						; size = 12
_pParent$ = 8						; size = 4
??0CMainHostWnd@@QAE@PAVCWnd@@@Z PROC NEAR		; CMainHostWnd::CMainHostWnd
; _this$ = ecx

; 16   : {

  00000	55		 push	 ebp
  00001	8b ec		 mov	 ebp, esp
  00003	6a ff		 push	 -1
  00005	68 00 00 00 00	 push	 __ehhandler$??0CMainHostWnd@@QAE@PAVCWnd@@@Z
  0000a	64 a1 00 00 00
	00		 mov	 eax, DWORD PTR fs:__except_list
  00010	50		 push	 eax
  00011	64 89 25 00 00
	00 00		 mov	 DWORD PTR fs:__except_list, esp
  00018	83 ec 4c	 sub	 esp, 76			; 0000004cH
  0001b	56		 push	 esi
  0001c	57		 push	 edi
  0001d	51		 push	 ecx
  0001e	8d 7d a8	 lea	 edi, DWORD PTR [ebp-88]
  00021	b9 13 00 00 00	 mov	 ecx, 19			; 00000013H
  00026	b8 cc cc cc cc	 mov	 eax, -858993460		; ccccccccH
  0002b	f3 ab		 rep stosd
  0002d	59		 pop	 ecx
  0002e	89 4d f0	 mov	 DWORD PTR _this$[ebp], ecx
  00031	8b 45 08	 mov	 eax, DWORD PTR _pParent$[ebp]
  00034	50		 push	 eax
  00035	8b 4d f0	 mov	 ecx, DWORD PTR _this$[ebp]
  00038	e8 00 00 00 00	 call	 ??0CHostWnd@@QAE@PAVCWnd@@@Z ; CHostWnd::CHostWnd
  0003d	c7 45 fc 00 00
	00 00		 mov	 DWORD PTR __$EHRec$[ebp+8], 0
  00044	8b 4d f0	 mov	 ecx, DWORD PTR _this$[ebp]
  00047	c7 01 00 00 00
	00		 mov	 DWORD PTR [ecx], OFFSET FLAT:??_7CMainHostWnd@@6B@

; 17   : 	m_nControlWndHeight = 0;

  0004d	8b 55 f0	 mov	 edx, DWORD PTR _this$[ebp]
  00050	c7 82 38 02 00
	00 00 00 00 00	 mov	 DWORD PTR [edx+568], 0

; 18   : 	m_pControlWnd = ::AfxGetUIManager()->UIGetLayoutMgr()->GetWnd("ControlPanel");

  0005a	51		 push	 ecx
  0005b	8b cc		 mov	 ecx, esp
  0005d	89 65 dc	 mov	 DWORD PTR $T190524[ebp], esp
  00060	8b f4		 mov	 esi, esp
  00062	68 00 00 00 00	 push	 OFFSET FLAT:$SG189206
  00067	ff 15 00 00 00
	00		 call	 DWORD PTR __imp_??0?$CStringT@DV?$StrTraitMFC_DLL@DV?$ChTraitsCRT@D@ATL@@@@@ATL@@QAE@PBD@Z
  0006d	3b f4		 cmp	 esi, esp
  0006f	e8 00 00 00 00	 call	 __RTC_CheckEsp
  00074	89 45 d4	 mov	 DWORD PTR tv65[ebp], eax
  00077	8b 45 d4	 mov	 eax, DWORD PTR tv65[ebp]
  0007a	89 45 d0	 mov	 DWORD PTR tv181[ebp], eax
  0007d	c6 45 fc 01	 mov	 BYTE PTR __$EHRec$[ebp+8], 1
  00081	e8 00 00 00 00	 call	 ?AfxGetUIManager@@YAPAVIUIManager@@XZ ; AfxGetUIManager
  00086	89 45 cc	 mov	 DWORD PTR tv72[ebp], eax
  00089	8b f4		 mov	 esi, esp
  0008b	8b 4d cc	 mov	 ecx, DWORD PTR tv72[ebp]
  0008e	8b 11		 mov	 edx, DWORD PTR [ecx]
  00090	8b 4d cc	 mov	 ecx, DWORD PTR tv72[ebp]
  00093	ff 52 24	 call	 DWORD PTR [edx+36]
  00096	3b f4		 cmp	 esi, esp
  00098	e8 00 00 00 00	 call	 __RTC_CheckEsp
  0009d	89 45 c8	 mov	 DWORD PTR tv77[ebp], eax
  000a0	8b 45 c8	 mov	 eax, DWORD PTR tv77[ebp]
  000a3	8b 10		 mov	 edx, DWORD PTR [eax]
  000a5	c6 45 fc 00	 mov	 BYTE PTR __$EHRec$[ebp+8], 0
  000a9	8b 4d c8	 mov	 ecx, DWORD PTR tv77[ebp]
  000ac	ff 52 2c	 call	 DWORD PTR [edx+44]
  000af	89 45 c4	 mov	 DWORD PTR tv182[ebp], eax
  000b2	8b 45 f0	 mov	 eax, DWORD PTR _this$[ebp]
  000b5	8b 4d c4	 mov	 ecx, DWORD PTR tv182[ebp]
  000b8	89 88 48 02 00
	00		 mov	 DWORD PTR [eax+584], ecx

; 19   : 	m_pPlistWnd = ::AfxGetUIManager()->UIGetLayoutMgr()->GetWnd("SepPlayList");

  000be	51		 push	 ecx
  000bf	8b cc		 mov	 ecx, esp
  000c1	89 65 d8	 mov	 DWORD PTR $T190525[ebp], esp
  000c4	8b f4		 mov	 esi, esp
  000c6	68 00 00 00 00	 push	 OFFSET FLAT:$SG189208
  000cb	ff 15 00 00 00
	00		 call	 DWORD PTR __imp_??0?$CStringT@DV?$StrTraitMFC_DLL@DV?$ChTraitsCRT@D@ATL@@@@@ATL@@QAE@PBD@Z
  000d1	3b f4		 cmp	 esi, esp
  000d3	e8 00 00 00 00	 call	 __RTC_CheckEsp
  000d8	89 45 c0	 mov	 DWORD PTR tv188[ebp], eax
  000db	8b 55 c0	 mov	 edx, DWORD PTR tv188[ebp]
  000de	89 55 bc	 mov	 DWORD PTR tv184[ebp], edx
  000e1	c6 45 fc 02	 mov	 BYTE PTR __$EHRec$[ebp+8], 2
  000e5	e8 00 00 00 00	 call	 ?AfxGetUIManager@@YAPAVIUIManager@@XZ ; AfxGetUIManager
  000ea	89 45 b8	 mov	 DWORD PTR tv130[ebp], eax
  000ed	8b f4		 mov	 esi, esp
  000ef	8b 45 b8	 mov	 eax, DWORD PTR tv130[ebp]
  000f2	8b 10		 mov	 edx, DWORD PTR [eax]
  000f4	8b 4d b8	 mov	 ecx, DWORD PTR tv130[ebp]
  000f7	ff 52 24	 call	 DWORD PTR [edx+36]
  000fa	3b f4		 cmp	 esi, esp
  000fc	e8 00 00 00 00	 call	 __RTC_CheckEsp
  00101	89 45 b4	 mov	 DWORD PTR tv135[ebp], eax
  00104	8b 45 b4	 mov	 eax, DWORD PTR tv135[ebp]
  00107	8b 10		 mov	 edx, DWORD PTR [eax]
  00109	c6 45 fc 00	 mov	 BYTE PTR __$EHRec$[ebp+8], 0
  0010d	8b 4d b4	 mov	 ecx, DWORD PTR tv135[ebp]
  00110	ff 52 2c	 call	 DWORD PTR [edx+44]
  00113	89 45 b0	 mov	 DWORD PTR tv185[ebp], eax
  00116	8b 45 f0	 mov	 eax, DWORD PTR _this$[ebp]
  00119	8b 4d b0	 mov	 ecx, DWORD PTR tv185[ebp]
  0011c	89 88 4c 02 00
	00		 mov	 DWORD PTR [eax+588], ecx

; 20   : 	
; 21   : 	CString strControlMode = ::AfxGetUIManager()->UIGetLayoutMgr()->GetWndPanelMode(m_pControlWnd);

  00122	e8 00 00 00 00	 call	 ?AfxGetUIManager@@YAPAVIUIManager@@XZ ; AfxGetUIManager
  00127	89 45 ac	 mov	 DWORD PTR tv155[ebp], eax
  0012a	8b f4		 mov	 esi, esp
  0012c	8b 55 ac	 mov	 edx, DWORD PTR tv155[ebp]
  0012f	8b 02		 mov	 eax, DWORD PTR [edx]
  00131	8b 4d ac	 mov	 ecx, DWORD PTR tv155[ebp]
  00134	ff 50 24	 call	 DWORD PTR [eax+36]
  00137	3b f4		 cmp	 esi, esp
  00139	e8 00 00 00 00	 call	 __RTC_CheckEsp
  0013e	89 45 a8	 mov	 DWORD PTR tv160[ebp], eax
  00141	8b f4		 mov	 esi, esp
  00143	8b 4d f0	 mov	 ecx, DWORD PTR _this$[ebp]
  00146	8b 91 48 02 00
	00		 mov	 edx, DWORD PTR [ecx+584]
  0014c	52		 push	 edx
  0014d	8d 45 e8	 lea	 eax, DWORD PTR _strControlMode$[ebp]
  00150	50		 push	 eax
  00151	8b 4d a8	 mov	 ecx, DWORD PTR tv160[ebp]
  00154	8b 11		 mov	 edx, DWORD PTR [ecx]
  00156	8b 4d a8	 mov	 ecx, DWORD PTR tv160[ebp]
  00159	ff 92 80 00 00
	00		 call	 DWORD PTR [edx+128]
  0015f	3b f4		 cmp	 esi, esp
  00161	e8 00 00 00 00	 call	 __RTC_CheckEsp

; 22   : 	int mode = 1;

  00166	c7 45 e0 01 00
	00 00		 mov	 DWORD PTR _mode$[ebp], 1

; 23   : 	//chaohua edit
; 24   : 	//AfxGetUserConfig()->GetConfigIntValue( CONF_APP_MODULE_NAME,CONF_APP_SEPMODE_START_MODE,mode );
; 25   : 	
; 26   : 	if(mode & SHOWLIST)

  0016d	8b 45 e0	 mov	 eax, DWORD PTR _mode$[ebp]
  00170	83 e0 01	 and	 eax, 1
  00173	74 0c		 je	 SHORT $L189212

; 27   : 		m_bShowPlaylist = true;

  00175	8b 4d f0	 mov	 ecx, DWORD PTR _this$[ebp]
  00178	c6 81 35 02 00
	00 01		 mov	 BYTE PTR [ecx+565], 1

; 28   : 	else

  0017f	eb 0a		 jmp	 SHORT $L189213
$L189212:

; 29   : 		m_bShowPlaylist = false;

  00181	8b 55 f0	 mov	 edx, DWORD PTR _this$[ebp]
  00184	c6 82 35 02 00
	00 00		 mov	 BYTE PTR [edx+565], 0
$L189213:

; 30   : 
; 31   : 	if(strControlMode == "normal")

  0018b	68 00 00 00 00	 push	 OFFSET FLAT:$SG189215
  00190	8d 45 e8	 lea	 eax, DWORD PTR _strControlMode$[ebp]
  00193	50		 push	 eax
  00194	e8 00 00 00 00	 call	 ??8ATL@@YA_NABV?$CStringT@DV?$StrTraitMFC_DLL@DV?$ChTraitsCRT@D@ATL@@@@@0@PBD@Z ; ATL::operator==
  00199	83 c4 08	 add	 esp, 8
  0019c	0f b6 c8	 movzx	 ecx, al
  0019f	85 c9		 test	 ecx, ecx
  001a1	74 0c		 je	 SHORT $L189214

; 32   : 		m_bShowMV = false;

  001a3	8b 55 f0	 mov	 edx, DWORD PTR _this$[ebp]
  001a6	c6 82 34 02 00
	00 00		 mov	 BYTE PTR [edx+564], 0

; 33   : 	else

  001ad	eb 0a		 jmp	 SHORT $L189216
$L189214:

; 34   : 		m_bShowMV = true;

  001af	8b 45 f0	 mov	 eax, DWORD PTR _this$[ebp]
  001b2	c6 80 34 02 00
	00 01		 mov	 BYTE PTR [eax+564], 1
$L189216:

; 35   : 
; 36   : }

  001b9	8b f4		 mov	 esi, esp
  001bb	8d 4d e8	 lea	 ecx, DWORD PTR _strControlMode$[ebp]
  001be	ff 15 00 00 00
	00		 call	 DWORD PTR __imp_??1?$CStringT@DV?$StrTraitMFC_DLL@DV?$ChTraitsCRT@D@ATL@@@@@ATL@@QAE@XZ
  001c4	3b f4		 cmp	 esi, esp
  001c6	e8 00 00 00 00	 call	 __RTC_CheckEsp
  001cb	c7 45 fc ff ff
	ff ff		 mov	 DWORD PTR __$EHRec$[ebp+8], -1
  001d2	8b 45 f0	 mov	 eax, DWORD PTR _this$[ebp]
  001d5	52		 push	 edx
  001d6	8b cd		 mov	 ecx, ebp
  001d8	50		 push	 eax
  001d9	8d 15 00 00 00
	00		 lea	 edx, DWORD PTR $L190545
  001df	e8 00 00 00 00	 call	 @_RTC_CheckStackVars@8
  001e4	58		 pop	 eax
  001e5	5a		 pop	 edx
  001e6	8b 4d f4	 mov	 ecx, DWORD PTR __$EHRec$[ebp]
  001e9	64 89 0d 00 00
	00 00		 mov	 DWORD PTR fs:__except_list, ecx
  001f0	5f		 pop	 edi
  001f1	5e		 pop	 esi
  001f2	83 c4 58	 add	 esp, 88			; 00000058H
  001f5	3b ec		 cmp	 ebp, esp
  001f7	e8 00 00 00 00	 call	 __RTC_CheckEsp
  001fc	8b e5		 mov	 esp, ebp
  001fe	5d		 pop	 ebp
  001ff	c2 04 00	 ret	 4
$L190545:
  00202	01 00 00 00	 DD	 1
  00206	00 00 00 00	 DD	 $L190544
$L190544:
  0020a	e8 ff ff ff	 DD	 -24			; ffffffe8H
  0020e	04 00 00 00	 DD	 4
  00212	00 00 00 00	 DD	 $L190541
$L190541:
  00216	73		 DB	 115			; 00000073H
  00217	74		 DB	 116			; 00000074H
  00218	72		 DB	 114			; 00000072H
  00219	43		 DB	 67			; 00000043H
  0021a	6f		 DB	 111			; 0000006fH
  0021b	6e		 DB	 110			; 0000006eH
  0021c	74		 DB	 116			; 00000074H
  0021d	72		 DB	 114			; 00000072H
  0021e	6f		 DB	 111			; 0000006fH
  0021f	6c		 DB	 108			; 0000006cH
  00220	4d		 DB	 77			; 0000004dH
  00221	6f		 DB	 111			; 0000006fH
  00222	64		 DB	 100			; 00000064H
  00223	65		 DB	 101			; 00000065H
  00224	00		 DB	 0
_TEXT	ENDS
text$x	SEGMENT
$L190532:
  00000	8b 4d f0	 mov	 ecx, DWORD PTR _this$[ebp]
  00003	e9 00 00 00 00	 jmp	 ??1CHostWnd@@UAE@XZ	; CHostWnd::~CHostWnd
$L190533:
  00008	8b f4		 mov	 esi, esp
  0000a	8b 4d dc	 mov	 ecx, DWORD PTR $T190524[ebp]
  0000d	ff 15 00 00 00
	00		 call	 DWORD PTR __imp_??1?$CStringT@DV?$StrTraitMFC_DLL@DV?$ChTraitsCRT@D@ATL@@@@@ATL@@QAE@XZ
  00013	3b f4		 cmp	 esi, esp
  00015	e9 00 00 00 00	 jmp	 __RTC_CheckEsp
$L190534:
  0001a	8b f4		 mov	 esi, esp
  0001c	8b 4d d8	 mov	 ecx, DWORD PTR $T190525[ebp]
  0001f	ff 15 00 00 00
	00		 call	 DWORD PTR __imp_??1?$CStringT@DV?$StrTraitMFC_DLL@DV?$ChTraitsCRT@D@ATL@@@@@ATL@@QAE@XZ
  00025	3b f4		 cmp	 esi, esp
  00027	e9 00 00 00 00	 jmp	 __RTC_CheckEsp
__ehhandler$??0CMainHostWnd@@QAE@PAVCWnd@@@Z:
  0002c	b8 00 00 00 00	 mov	 eax, OFFSET FLAT:$T190539
  00031	e9 00 00 00 00	 jmp	 ___CxxFrameHandler
text$x	ENDS
??0CMainHostWnd@@QAE@PAVCWnd@@@Z ENDP			; CMainHostWnd::CMainHostWnd
PUBLIC	??1CMainHostWnd@@UAE@XZ				; CMainHostWnd::~CMainHostWnd
EXTRN	??3CObject@@SGXPAX@Z:NEAR			; CObject::operator delete
; Function compile flags: /Odt /RTCsu
;	COMDAT ??_GCMainHostWnd@@UAEPAXI@Z
_TEXT	SEGMENT
_this$ = -4						; size = 4
___flags$ = 8						; size = 4
??_GCMainHostWnd@@UAEPAXI@Z PROC NEAR			; CMainHostWnd::`scalar deleting destructor', COMDAT
; _this$ = ecx
  00000	55		 push	 ebp
  00001	8b ec		 mov	 ebp, esp
  00003	51		 push	 ecx
  00004	c7 45 fc cc cc
	cc cc		 mov	 DWORD PTR [ebp-4], -858993460 ; ccccccccH
  0000b	89 4d fc	 mov	 DWORD PTR _this$[ebp], ecx
  0000e	8b 4d fc	 mov	 ecx, DWORD PTR _this$[ebp]
  00011	e8 00 00 00 00	 call	 ??1CMainHostWnd@@UAE@XZ	; CMainHostWnd::~CMainHostWnd
  00016	8b 45 08	 mov	 eax, DWORD PTR ___flags$[ebp]
  00019	83 e0 01	 and	 eax, 1
  0001c	74 09		 je	 SHORT $L189220
  0001e	8b 4d fc	 mov	 ecx, DWORD PTR _this$[ebp]
  00021	51		 push	 ecx
  00022	e8 00 00 00 00	 call	 ??3CObject@@SGXPAX@Z	; CObject::operator delete
$L189220:
  00027	8b 45 fc	 mov	 eax, DWORD PTR _this$[ebp]
  0002a	83 c4 04	 add	 esp, 4
  0002d	3b ec		 cmp	 ebp, esp
  0002f	e8 00 00 00 00	 call	 __RTC_CheckEsp
  00034	8b e5		 mov	 esp, ebp
  00036	5d		 pop	 ebp
  00037	c2 04 00	 ret	 4
??_GCMainHostWnd@@UAEPAXI@Z ENDP			; CMainHostWnd::`scalar deleting destructor'
_TEXT	ENDS
EXTRN	__imp__SetParent@8:NEAR
; Function compile flags: /Odt /RTCsu
_TEXT	SEGMENT
_this$ = -4						; size = 4
??1CMainHostWnd@@UAE@XZ PROC NEAR			; CMainHostWnd::~CMainHostWnd
; _this$ = ecx

; 39   : {

  00230	55		 push	 ebp
  00231	8b ec		 mov	 ebp, esp
  00233	51		 push	 ecx
  00234	56		 push	 esi
  00235	c7 45 fc cc cc
	cc cc		 mov	 DWORD PTR [ebp-4], -858993460 ; ccccccccH
  0023c	89 4d fc	 mov	 DWORD PTR _this$[ebp], ecx
  0023f	8b 45 fc	 mov	 eax, DWORD PTR _this$[ebp]
  00242	c7 00 00 00 00
	00		 mov	 DWORD PTR [eax], OFFSET FLAT:??_7CMainHostWnd@@6B@

; 40   : 	//CWnd* pWnd = CHostWndMgr::GetInstance()->GetHostWnd("sepSongLibrary");
; 41   : 	//CRect rc = this->GetWindowRect(&rc);
; 42   : 
; 43   : 	//if(CWindowsMover::GetInstance()->IsTwoWindowsAttached(pWnd, this))
; 44   : 	//	m_bSepWndsAttached = true;
; 45   : 	//else
; 46   : 	//	m_bSepWndsAttached = false;
; 47   : 
; 48   : 	//m_nSepMainWndPos = rc.left + (rc.top << 16);
; 49   : 	//AfxGetUserConfig()->SetConfigBoolValue( CONF_APP_MODULE_NAME,CONF_APP_SEPWINDOWS_ATTACHED,m_bSepWndsAttached , true);
; 50   : 	//AfxGetUserConfig()->SetConfigIntValue( CONF_APP_MODULE_NAME,CONF_APP_SEPWINDOW_DELTAPOS,m_nSepMainWndPos, true );
; 51   : 
; 52   : 	if(m_pWnd != NULL)

  00248	8b 4d fc	 mov	 ecx, DWORD PTR _this$[ebp]
  0024b	83 b9 88 00 00
	00 00		 cmp	 DWORD PTR [ecx+136], 0
  00252	74 26		 je	 SHORT $L189223

; 53   : 		::SetParent(m_pWnd->m_hWnd,m_hParentWnd);

  00254	8b f4		 mov	 esi, esp
  00256	8b 55 fc	 mov	 edx, DWORD PTR _this$[ebp]
  00259	8b 82 84 00 00
	00		 mov	 eax, DWORD PTR [edx+132]
  0025f	50		 push	 eax
  00260	8b 4d fc	 mov	 ecx, DWORD PTR _this$[ebp]
  00263	8b 91 88 00 00
	00		 mov	 edx, DWORD PTR [ecx+136]
  00269	8b 42 20	 mov	 eax, DWORD PTR [edx+32]
  0026c	50		 push	 eax
  0026d	ff 15 00 00 00
	00		 call	 DWORD PTR __imp__SetParent@8
  00273	3b f4		 cmp	 esi, esp
  00275	e8 00 00 00 00	 call	 __RTC_CheckEsp
$L189223:

; 54   : }

  0027a	8b 4d fc	 mov	 ecx, DWORD PTR _this$[ebp]
  0027d	e8 00 00 00 00	 call	 ??1CHostWnd@@UAE@XZ	; CHostWnd::~CHostWnd
  00282	5e		 pop	 esi
  00283	83 c4 04	 add	 esp, 4
  00286	3b ec		 cmp	 ebp, esp
  00288	e8 00 00 00 00	 call	 __RTC_CheckEsp
  0028d	8b e5		 mov	 esp, ebp
  0028f	5d		 pop	 ebp
  00290	c3		 ret	 0
??1CMainHostWnd@@UAE@XZ ENDP				; CMainHostWnd::~CMainHostWnd
_TEXT	ENDS
PUBLIC	?GetThisMessageMap@CMainHostWnd@@KGPBUAFX_MSGMAP@@XZ ; CMainHostWnd::GetThisMessageMap
; Function compile flags: /Odt /RTCsu
_TEXT	SEGMENT
?GetThisMessageMap@CMainHostWnd@@KGPBUAFX_MSGMAP@@XZ PROC NEAR ; CMainHostWnd::GetThisMessageMap

; 57   : BEGIN_MESSAGE_MAP(CMainHostWnd, CHostWnd)

  002a0	55		 push	 ebp
  002a1	8b ec		 mov	 ebp, esp
  002a3	b8 00 00 00 00	 mov	 eax, OFFSET FLAT:?messageMap@CMainHostWnd@@1UAFX_MSGMAP@@B ; CMainHostWnd::messageMap
  002a8	5d		 pop	 ebp
  002a9	c3		 ret	 0
?GetThisMessageMap@CMainHostWnd@@KGPBUAFX_MSGMAP@@XZ ENDP ; CMainHostWnd::GetThisMessageMap
; Function compile flags: /Odt /RTCsu
_this$ = -4						; size = 4
?GetMessageMap@CMainHostWnd@@MBEPBUAFX_MSGMAP@@XZ PROC NEAR ; CMainHostWnd::GetMessageMap
; _this$ = ecx

; 57   : BEGIN_MESSAGE_MAP(CMainHostWnd, CHostWnd)

  002b0	55		 push	 ebp
  002b1	8b ec		 mov	 ebp, esp
  002b3	51		 push	 ecx
  002b4	c7 45 fc cc cc
	cc cc		 mov	 DWORD PTR [ebp-4], -858993460 ; ccccccccH
  002bb	89 4d fc	 mov	 DWORD PTR _this$[ebp], ecx
  002be	b8 00 00 00 00	 mov	 eax, OFFSET FLAT:?messageMap@CMainHostWnd@@1UAFX_MSGMAP@@B ; CMainHostWnd::messageMap
  002c3	8b e5		 mov	 esp, ebp
  002c5	5d		 pop	 ebp
  002c6	c3		 ret	 0
?GetMessageMap@CMainHostWnd@@MBEPBUAFX_MSGMAP@@XZ ENDP	; CMainHostWnd::GetMessageMap
_TEXT	ENDS
PUBLIC	?SetMinSize@CMainHostWnd@@QAEXXZ		; CMainHostWnd::SetMinSize
EXTRN	?GetInstance@CWindowsMover@@SAPAV1@XZ:NEAR	; CWindowsMover::GetInstance
EXTRN	?AddWndindow@CWindowsMover@@QAEXPAVCWnd@@_N@Z:NEAR ; CWindowsMover::AddWndindow
EXTRN	?OnInitDialog@CDialog@@UAEHXZ:NEAR		; CDialog::OnInitDialog
EXTRN	?SetParent@CWnd@@QAEPAV1@PAV1@@Z:NEAR		; CWnd::SetParent
; Function compile flags: /Odt /RTCsu
_TEXT	SEGMENT
_this$ = -4						; size = 4
?OnInitDialog@CMainHostWnd@@MAEHXZ PROC NEAR		; CMainHostWnd::OnInitDialog
; _this$ = ecx

; 66   : {

  002d0	55		 push	 ebp
  002d1	8b ec		 mov	 ebp, esp
  002d3	51		 push	 ecx
  002d4	c7 45 fc cc cc
	cc cc		 mov	 DWORD PTR [ebp-4], -858993460 ; ccccccccH
  002db	89 4d fc	 mov	 DWORD PTR _this$[ebp], ecx

; 67   : 	CDialog::OnInitDialog();

  002de	8b 4d fc	 mov	 ecx, DWORD PTR _this$[ebp]
  002e1	e8 00 00 00 00	 call	 ?OnInitDialog@CDialog@@UAEHXZ ; CDialog::OnInitDialog

; 68   : 
; 69   : 	//m_bShowMV = true;
; 70   : 	CWindowsMover::GetInstance()->AddWndindow(this, m_isMainWnd);

  002e6	8b 45 fc	 mov	 eax, DWORD PTR _this$[ebp]
  002e9	83 b8 80 00 00
	00 00		 cmp	 DWORD PTR [eax+128], 0
  002f0	0f 95 c1	 setne	 cl
  002f3	51		 push	 ecx
  002f4	8b 55 fc	 mov	 edx, DWORD PTR _this$[ebp]
  002f7	52		 push	 edx
  002f8	e8 00 00 00 00	 call	 ?GetInstance@CWindowsMover@@SAPAV1@XZ ; CWindowsMover::GetInstance
  002fd	8b c8		 mov	 ecx, eax
  002ff	e8 00 00 00 00	 call	 ?AddWndindow@CWindowsMover@@QAEXPAVCWnd@@_N@Z ; CWindowsMover::AddWndindow

; 71   : 
; 72   : 	//m_bShowPlaylist = true;
; 73   : 	m_pControlWnd->SetParent(this);

  00304	8b 45 fc	 mov	 eax, DWORD PTR _this$[ebp]
  00307	50		 push	 eax
  00308	8b 4d fc	 mov	 ecx, DWORD PTR _this$[ebp]
  0030b	8b 89 48 02 00
	00		 mov	 ecx, DWORD PTR [ecx+584]
  00311	e8 00 00 00 00	 call	 ?SetParent@CWnd@@QAEPAV1@PAV1@@Z ; CWnd::SetParent

; 74   : 	m_pPlistWnd->SetParent(this);

  00316	8b 55 fc	 mov	 edx, DWORD PTR _this$[ebp]
  00319	52		 push	 edx
  0031a	8b 45 fc	 mov	 eax, DWORD PTR _this$[ebp]
  0031d	8b 88 4c 02 00
	00		 mov	 ecx, DWORD PTR [eax+588]
  00323	e8 00 00 00 00	 call	 ?SetParent@CWnd@@QAEPAV1@PAV1@@Z ; CWnd::SetParent

; 75   : 
; 76   : 	SetMinSize();

  00328	8b 4d fc	 mov	 ecx, DWORD PTR _this$[ebp]
  0032b	e8 00 00 00 00	 call	 ?SetMinSize@CMainHostWnd@@QAEXXZ ; CMainHostWnd::SetMinSize

; 77   : 	return TRUE;

  00330	b8 01 00 00 00	 mov	 eax, 1

; 78   : }

  00335	83 c4 04	 add	 esp, 4
  00338	3b ec		 cmp	 ebp, esp
  0033a	e8 00 00 00 00	 call	 __RTC_CheckEsp
  0033f	8b e5		 mov	 esp, ebp
  00341	5d		 pop	 ebp
  00342	c3		 ret	 0
?OnInitDialog@CMainHostWnd@@MAEHXZ ENDP			; CMainHostWnd::OnInitDialog
_TEXT	ENDS
EXTRN	?OnLButtonDown@CHostWnd@@IAEXIVCPoint@@@Z:NEAR	; CHostWnd::OnLButtonDown
; Function compile flags: /Odt /RTCsu
_TEXT	SEGMENT
_this$ = -4						; size = 4
_nFlags$ = 8						; size = 4
_point$ = 12						; size = 8
?OnLButtonDown@CMainHostWnd@@IAEXIVCPoint@@@Z PROC NEAR	; CMainHostWnd::OnLButtonDown
; _this$ = ecx

; 81   : {	

  00350	55		 push	 ebp
  00351	8b ec		 mov	 ebp, esp
  00353	51		 push	 ecx
  00354	c7 45 fc cc cc
	cc cc		 mov	 DWORD PTR [ebp-4], -858993460 ; ccccccccH
  0035b	89 4d fc	 mov	 DWORD PTR _this$[ebp], ecx

; 82   : 	__super::OnLButtonDown(nFlags, point);

  0035e	8b 45 10	 mov	 eax, DWORD PTR _point$[ebp+4]
  00361	50		 push	 eax
  00362	8b 4d 0c	 mov	 ecx, DWORD PTR _point$[ebp]
  00365	51		 push	 ecx
  00366	8b 55 08	 mov	 edx, DWORD PTR _nFlags$[ebp]
  00369	52		 push	 edx
  0036a	8b 4d fc	 mov	 ecx, DWORD PTR _this$[ebp]
  0036d	e8 00 00 00 00	 call	 ?OnLButtonDown@CHostWnd@@IAEXIVCPoint@@@Z ; CHostWnd::OnLButtonDown

; 83   : 
; 84   : }

  00372	83 c4 04	 add	 esp, 4
  00375	3b ec		 cmp	 ebp, esp
  00377	e8 00 00 00 00	 call	 __RTC_CheckEsp
  0037c	8b e5		 mov	 esp, ebp
  0037e	5d		 pop	 ebp
  0037f	c2 0c 00	 ret	 12			; 0000000cH
?OnLButtonDown@CMainHostWnd@@IAEXIVCPoint@@@Z ENDP	; CMainHostWnd::OnLButtonDown
_TEXT	ENDS
EXTRN	?OnLButtonUp@CHostWnd@@IAEXIVCPoint@@@Z:NEAR	; CHostWnd::OnLButtonUp
; Function compile flags: /Odt /RTCsu
_TEXT	SEGMENT
_this$ = -4						; size = 4
_nFlags$ = 8						; size = 4
_point$ = 12						; size = 8
?OnLButtonUp@CMainHostWnd@@IAEXIVCPoint@@@Z PROC NEAR	; CMainHostWnd::OnLButtonUp
; _this$ = ecx

; 87   : {

  00390	55		 push	 ebp
  00391	8b ec		 mov	 ebp, esp
  00393	51		 push	 ecx
  00394	c7 45 fc cc cc
	cc cc		 mov	 DWORD PTR [ebp-4], -858993460 ; ccccccccH
  0039b	89 4d fc	 mov	 DWORD PTR _this$[ebp], ecx

; 88   : 	__super::OnLButtonUp(nFlags, point);

  0039e	8b 45 10	 mov	 eax, DWORD PTR _point$[ebp+4]
  003a1	50		 push	 eax
  003a2	8b 4d 0c	 mov	 ecx, DWORD PTR _point$[ebp]
  003a5	51		 push	 ecx
  003a6	8b 55 08	 mov	 edx, DWORD PTR _nFlags$[ebp]
  003a9	52		 push	 edx
  003aa	8b 4d fc	 mov	 ecx, DWORD PTR _this$[ebp]
  003ad	e8 00 00 00 00	 call	 ?OnLButtonUp@CHostWnd@@IAEXIVCPoint@@@Z ; CHostWnd::OnLButtonUp

; 89   : }

  003b2	83 c4 04	 add	 esp, 4
  003b5	3b ec		 cmp	 ebp, esp
  003b7	e8 00 00 00 00	 call	 __RTC_CheckEsp
  003bc	8b e5		 mov	 esp, ebp
  003be	5d		 pop	 ebp
  003bf	c2 0c 00	 ret	 12			; 0000000cH
?OnLButtonUp@CMainHostWnd@@IAEXIVCPoint@@@Z ENDP	; CMainHostWnd::OnLButtonUp
_TEXT	ENDS
EXTRN	?OnMouseMove@CHostWnd@@IAEXIVCPoint@@@Z:NEAR	; CHostWnd::OnMouseMove
; Function compile flags: /Odt /RTCsu
_TEXT	SEGMENT
_this$ = -4						; size = 4
_nFlags$ = 8						; size = 4
_point$ = 12						; size = 8
?OnMouseMove@CMainHostWnd@@IAEXIVCPoint@@@Z PROC NEAR	; CMainHostWnd::OnMouseMove
; _this$ = ecx

; 92   : {

  003d0	55		 push	 ebp
  003d1	8b ec		 mov	 ebp, esp
  003d3	51		 push	 ecx
  003d4	c7 45 fc cc cc
	cc cc		 mov	 DWORD PTR [ebp-4], -858993460 ; ccccccccH
  003db	89 4d fc	 mov	 DWORD PTR _this$[ebp], ecx

; 93   : 	__super::OnMouseMove( nFlags,point );

  003de	8b 45 10	 mov	 eax, DWORD PTR _point$[ebp+4]
  003e1	50		 push	 eax
  003e2	8b 4d 0c	 mov	 ecx, DWORD PTR _point$[ebp]
  003e5	51		 push	 ecx
  003e6	8b 55 08	 mov	 edx, DWORD PTR _nFlags$[ebp]
  003e9	52		 push	 edx
  003ea	8b 4d fc	 mov	 ecx, DWORD PTR _this$[ebp]
  003ed	e8 00 00 00 00	 call	 ?OnMouseMove@CHostWnd@@IAEXIVCPoint@@@Z ; CHostWnd::OnMouseMove

; 94   : 
; 95   : }

  003f2	83 c4 04	 add	 esp, 4
  003f5	3b ec		 cmp	 ebp, esp
  003f7	e8 00 00 00 00	 call	 __RTC_CheckEsp
  003fc	8b e5		 mov	 esp, ebp
  003fe	5d		 pop	 ebp
  003ff	c2 0c 00	 ret	 12			; 0000000cH
?OnMouseMove@CMainHostWnd@@IAEXIVCPoint@@@Z ENDP	; CMainHostWnd::OnMouseMove
_TEXT	ENDS
PUBLIC	?MoveContent@CMainHostWnd@@AAEXXZ		; CMainHostWnd::MoveContent
EXTRN	?OnSize@CWnd@@IAEXIHH@Z:NEAR			; CWnd::OnSize
EXTRN	__imp__SetWindowRgn@12:NEAR
EXTRN	??0CRect@@QAE@XZ:NEAR				; CRect::CRect
EXTRN	?MoveWindow@CWnd@@QAEXPBUtagRECT@@H@Z:NEAR	; CWnd::MoveWindow
EXTRN	?GetClientRect@CWnd@@QBEXPAUtagRECT@@@Z:NEAR	; CWnd::GetClientRect
EXTRN	?GetDC@CWnd@@QAEPAVCDC@@XZ:NEAR			; CWnd::GetDC
EXTRN	?ReleaseDC@CWnd@@QAEHPAVCDC@@@Z:NEAR		; CWnd::ReleaseDC
EXTRN	?RedrawWindow@CWnd@@QAEHPBUtagRECT@@PAVCRgn@@I@Z:NEAR ; CWnd::RedrawWindow
EXTRN	__imp__GetTickCount@0:NEAR
; Function compile flags: /Odt /RTCsu
_TEXT	SEGMENT
tv137 = -60						; size = 4
tv132 = -56						; size = 4
tv85 = -52						; size = 4
tv80 = -48						; size = 4
tv70 = -44						; size = 4
_rc$189281 = -36					; size = 16
_hrgn$189279 = -16					; size = 4
_dc$189278 = -12					; size = 4
_count$189277 = -8					; size = 4
_this$ = -4						; size = 4
_nType$ = 8						; size = 4
_cx$ = 12						; size = 4
_cy$ = 16						; size = 4
?OnSize@CMainHostWnd@@IAEXIHH@Z PROC NEAR		; CMainHostWnd::OnSize
; _this$ = ecx

; 98   : {

  00410	55		 push	 ebp
  00411	8b ec		 mov	 ebp, esp
  00413	83 ec 3c	 sub	 esp, 60			; 0000003cH
  00416	56		 push	 esi
  00417	57		 push	 edi
  00418	51		 push	 ecx
  00419	8d 7d c4	 lea	 edi, DWORD PTR [ebp-60]
  0041c	b9 0f 00 00 00	 mov	 ecx, 15			; 0000000fH
  00421	b8 cc cc cc cc	 mov	 eax, -858993460		; ccccccccH
  00426	f3 ab		 rep stosd
  00428	59		 pop	 ecx
  00429	89 4d fc	 mov	 DWORD PTR _this$[ebp], ecx

; 99   : 	CDialog::OnSize(nType, cx,cy);

  0042c	8b 45 10	 mov	 eax, DWORD PTR _cy$[ebp]
  0042f	50		 push	 eax
  00430	8b 4d 0c	 mov	 ecx, DWORD PTR _cx$[ebp]
  00433	51		 push	 ecx
  00434	8b 55 08	 mov	 edx, DWORD PTR _nType$[ebp]
  00437	52		 push	 edx
  00438	8b 4d fc	 mov	 ecx, DWORD PTR _this$[ebp]
  0043b	e8 00 00 00 00	 call	 ?OnSize@CWnd@@IAEXIHH@Z	; CWnd::OnSize

; 100  : 
; 101  : 	if( AfxGetUIManager()->UIGetLayoutMgr() != NULL )

  00440	e8 00 00 00 00	 call	 ?AfxGetUIManager@@YAPAVIUIManager@@XZ ; AfxGetUIManager
  00445	89 45 d4	 mov	 DWORD PTR tv70[ebp], eax
  00448	8b 45 d4	 mov	 eax, DWORD PTR tv70[ebp]
  0044b	8b 10		 mov	 edx, DWORD PTR [eax]
  0044d	8b f4		 mov	 esi, esp
  0044f	8b 4d d4	 mov	 ecx, DWORD PTR tv70[ebp]
  00452	ff 52 24	 call	 DWORD PTR [edx+36]
  00455	3b f4		 cmp	 esi, esp
  00457	e8 00 00 00 00	 call	 __RTC_CheckEsp
  0045c	85 c0		 test	 eax, eax
  0045e	0f 84 c1 00 00
	00		 je	 $L189276

; 102  : 	{
; 103  : 		DWORD count = ::GetTickCount();

  00464	8b f4		 mov	 esi, esp
  00466	ff 15 00 00 00
	00		 call	 DWORD PTR __imp__GetTickCount@0
  0046c	3b f4		 cmp	 esi, esp
  0046e	e8 00 00 00 00	 call	 __RTC_CheckEsp
  00473	89 45 f8	 mov	 DWORD PTR _count$189277[ebp], eax

; 104  : 		CDC* dc = GetDC();

  00476	8b 4d fc	 mov	 ecx, DWORD PTR _this$[ebp]
  00479	e8 00 00 00 00	 call	 ?GetDC@CWnd@@QAEPAVCDC@@XZ ; CWnd::GetDC
  0047e	89 45 f4	 mov	 DWORD PTR _dc$189278[ebp], eax

; 105  : 		HRGN hrgn = AfxGetUIManager()->UIGetSkinMgr()->GetFrameRGN(cx, cy , dc);

  00481	e8 00 00 00 00	 call	 ?AfxGetUIManager@@YAPAVIUIManager@@XZ ; AfxGetUIManager
  00486	89 45 d0	 mov	 DWORD PTR tv80[ebp], eax
  00489	8b f4		 mov	 esi, esp
  0048b	8b 45 d0	 mov	 eax, DWORD PTR tv80[ebp]
  0048e	8b 10		 mov	 edx, DWORD PTR [eax]
  00490	8b 4d d0	 mov	 ecx, DWORD PTR tv80[ebp]
  00493	ff 52 28	 call	 DWORD PTR [edx+40]
  00496	3b f4		 cmp	 esi, esp
  00498	e8 00 00 00 00	 call	 __RTC_CheckEsp
  0049d	89 45 cc	 mov	 DWORD PTR tv85[ebp], eax
  004a0	8b f4		 mov	 esi, esp
  004a2	8b 45 f4	 mov	 eax, DWORD PTR _dc$189278[ebp]
  004a5	50		 push	 eax
  004a6	8b 4d 10	 mov	 ecx, DWORD PTR _cy$[ebp]
  004a9	51		 push	 ecx
  004aa	8b 55 0c	 mov	 edx, DWORD PTR _cx$[ebp]
  004ad	52		 push	 edx
  004ae	8b 45 cc	 mov	 eax, DWORD PTR tv85[ebp]
  004b1	8b 10		 mov	 edx, DWORD PTR [eax]
  004b3	8b 4d cc	 mov	 ecx, DWORD PTR tv85[ebp]
  004b6	ff 52 1c	 call	 DWORD PTR [edx+28]
  004b9	3b f4		 cmp	 esi, esp
  004bb	e8 00 00 00 00	 call	 __RTC_CheckEsp
  004c0	89 45 f0	 mov	 DWORD PTR _hrgn$189279[ebp], eax

; 106  : 		ReleaseDC(dc);

  004c3	8b 45 f4	 mov	 eax, DWORD PTR _dc$189278[ebp]
  004c6	50		 push	 eax
  004c7	8b 4d fc	 mov	 ecx, DWORD PTR _this$[ebp]
  004ca	e8 00 00 00 00	 call	 ?ReleaseDC@CWnd@@QAEHPAVCDC@@@Z ; CWnd::ReleaseDC

; 107  : 		::SetWindowRgn(m_hWnd, hrgn, true);

  004cf	8b f4		 mov	 esi, esp
  004d1	6a 01		 push	 1
  004d3	8b 4d f0	 mov	 ecx, DWORD PTR _hrgn$189279[ebp]
  004d6	51		 push	 ecx
  004d7	8b 55 fc	 mov	 edx, DWORD PTR _this$[ebp]
  004da	8b 42 20	 mov	 eax, DWORD PTR [edx+32]
  004dd	50		 push	 eax
  004de	ff 15 00 00 00
	00		 call	 DWORD PTR __imp__SetWindowRgn@12
  004e4	3b f4		 cmp	 esi, esp
  004e6	e8 00 00 00 00	 call	 __RTC_CheckEsp

; 108  : 		AfxGetUIManager()->UIGetLayoutMgr()->UpdateLayout(this->m_hWnd);

  004eb	e8 00 00 00 00	 call	 ?AfxGetUIManager@@YAPAVIUIManager@@XZ ; AfxGetUIManager
  004f0	89 45 c8	 mov	 DWORD PTR tv132[ebp], eax
  004f3	8b f4		 mov	 esi, esp
  004f5	8b 4d c8	 mov	 ecx, DWORD PTR tv132[ebp]
  004f8	8b 11		 mov	 edx, DWORD PTR [ecx]
  004fa	8b 4d c8	 mov	 ecx, DWORD PTR tv132[ebp]
  004fd	ff 52 24	 call	 DWORD PTR [edx+36]
  00500	3b f4		 cmp	 esi, esp
  00502	e8 00 00 00 00	 call	 __RTC_CheckEsp
  00507	89 45 c4	 mov	 DWORD PTR tv137[ebp], eax
  0050a	8b f4		 mov	 esi, esp
  0050c	8b 45 fc	 mov	 eax, DWORD PTR _this$[ebp]
  0050f	8b 48 20	 mov	 ecx, DWORD PTR [eax+32]
  00512	51		 push	 ecx
  00513	8b 55 c4	 mov	 edx, DWORD PTR tv137[ebp]
  00516	8b 02		 mov	 eax, DWORD PTR [edx]
  00518	8b 4d c4	 mov	 ecx, DWORD PTR tv137[ebp]
  0051b	ff 50 14	 call	 DWORD PTR [eax+20]
  0051e	3b f4		 cmp	 esi, esp
  00520	e8 00 00 00 00	 call	 __RTC_CheckEsp
$L189276:

; 109  : 	}
; 110  : 
; 111  : 	if(!m_bShowPlaylist)

  00525	8b 4d fc	 mov	 ecx, DWORD PTR _this$[ebp]
  00528	0f b6 91 35 02
	00 00		 movzx	 edx, BYTE PTR [ecx+565]
  0052f	85 d2		 test	 edx, edx
  00531	75 2a		 jne	 SHORT $L189280

; 112  : 	{
; 113  : 		CRect rc;

  00533	8d 4d dc	 lea	 ecx, DWORD PTR _rc$189281[ebp]
  00536	e8 00 00 00 00	 call	 ??0CRect@@QAE@XZ	; CRect::CRect

; 114  : 		GetClientRect(&rc);

  0053b	8d 45 dc	 lea	 eax, DWORD PTR _rc$189281[ebp]
  0053e	50		 push	 eax
  0053f	8b 4d fc	 mov	 ecx, DWORD PTR _this$[ebp]
  00542	e8 00 00 00 00	 call	 ?GetClientRect@CWnd@@QBEXPAUtagRECT@@@Z ; CWnd::GetClientRect

; 115  : 		m_pControlWnd->MoveWindow(&rc);

  00547	6a 01		 push	 1
  00549	8d 4d dc	 lea	 ecx, DWORD PTR _rc$189281[ebp]
  0054c	51		 push	 ecx
  0054d	8b 55 fc	 mov	 edx, DWORD PTR _this$[ebp]
  00550	8b 8a 48 02 00
	00		 mov	 ecx, DWORD PTR [edx+584]
  00556	e8 00 00 00 00	 call	 ?MoveWindow@CWnd@@QAEXPBUtagRECT@@H@Z ; CWnd::MoveWindow

; 116  : 	}
; 117  : 	else

  0055b	eb 08		 jmp	 SHORT $L189282
$L189280:

; 118  : 		MoveContent();

  0055d	8b 4d fc	 mov	 ecx, DWORD PTR _this$[ebp]
  00560	e8 00 00 00 00	 call	 ?MoveContent@CMainHostWnd@@AAEXXZ ; CMainHostWnd::MoveContent
$L189282:

; 119  : 
; 120  : 	RedrawWindow(NULL, NULL, RDW_INVALIDATE | RDW_UPDATENOW | RDW_ERASE | RDW_ALLCHILDREN);

  00565	68 85 01 00 00	 push	 389			; 00000185H
  0056a	6a 00		 push	 0
  0056c	6a 00		 push	 0
  0056e	8b 4d fc	 mov	 ecx, DWORD PTR _this$[ebp]
  00571	e8 00 00 00 00	 call	 ?RedrawWindow@CWnd@@QAEHPBUtagRECT@@PAVCRgn@@I@Z ; CWnd::RedrawWindow

; 121  : }

  00576	52		 push	 edx
  00577	8b cd		 mov	 ecx, ebp
  00579	50		 push	 eax
  0057a	8d 15 00 00 00
	00		 lea	 edx, DWORD PTR $L190561
  00580	e8 00 00 00 00	 call	 @_RTC_CheckStackVars@8
  00585	58		 pop	 eax
  00586	5a		 pop	 edx
  00587	5f		 pop	 edi
  00588	5e		 pop	 esi
  00589	83 c4 3c	 add	 esp, 60			; 0000003cH
  0058c	3b ec		 cmp	 ebp, esp
  0058e	e8 00 00 00 00	 call	 __RTC_CheckEsp
  00593	8b e5		 mov	 esp, ebp
  00595	5d		 pop	 ebp
  00596	c2 0c 00	 ret	 12			; 0000000cH
$L190561:
  00599	01 00 00 00	 DD	 1
  0059d	00 00 00 00	 DD	 $L190560
$L190560:
  005a1	dc ff ff ff	 DD	 -36			; ffffffdcH
  005a5	10 00 00 00	 DD	 16			; 00000010H
  005a9	00 00 00 00	 DD	 $L190559
$L190559:
  005ad	72		 DB	 114			; 00000072H
  005ae	63		 DB	 99			; 00000063H
  005af	00		 DB	 0
?OnSize@CMainHostWnd@@IAEXIHH@Z ENDP			; CMainHostWnd::OnSize
_TEXT	ENDS
PUBLIC	?CalResizingByMVRatio@CMainHostWnd@@QAEXAAVCRect@@0@Z ; CMainHostWnd::CalResizingByMVRatio
PUBLIC	__real@40400000
PUBLIC	__real@40800000
PUBLIC	__real@42fc0000
PUBLIC	__real@43ab0000
EXTRN	__ftol2:NEAR
EXTRN	__fltused:NEAR
EXTRN	?Width@CRect@@QBEHXZ:NEAR			; CRect::Width
EXTRN	?Height@CRect@@QBEHXZ:NEAR			; CRect::Height
EXTRN	?DeflateRect@CRect@@QAEXHHHH@Z:NEAR		; CRect::DeflateRect
;	COMDAT __real@40400000
CONST	SEGMENT
__real@40400000 DD 040400000r			; 3
CONST	ENDS
;	COMDAT __real@40800000
CONST	SEGMENT
__real@40800000 DD 040800000r			; 4
CONST	ENDS
;	COMDAT __real@42fc0000
CONST	SEGMENT
__real@42fc0000 DD 042fc0000r			; 126
CONST	ENDS
;	COMDAT __real@43ab0000
CONST	SEGMENT
__real@43ab0000 DD 043ab0000r			; 342
; Function compile flags: /Odt /RTCsu
CONST	ENDS
_TEXT	SEGMENT
tv179 = -64						; size = 4
tv176 = -60						; size = 4
tv173 = -56						; size = 4
tv171 = -52						; size = 4
_calheight$ = -48					; size = 4
_h$ = -44						; size = 4
_w$ = -40						; size = 4
_h1$ = -36						; size = 4
_w1$ = -32						; size = 4
_rc$ = -24						; size = 16
_this$ = -4						; size = 4
_rcControlWnd$ = 8					; size = 4
_rcPlaylist$ = 12					; size = 4
?CalResizingByMVRatio@CMainHostWnd@@QAEXAAVCRect@@0@Z PROC NEAR ; CMainHostWnd::CalResizingByMVRatio
; _this$ = ecx

; 124  : {

  005b0	55		 push	 ebp
  005b1	8b ec		 mov	 ebp, esp
  005b3	83 ec 40	 sub	 esp, 64			; 00000040H
  005b6	57		 push	 edi
  005b7	51		 push	 ecx
  005b8	8d 7d c0	 lea	 edi, DWORD PTR [ebp-64]
  005bb	b9 10 00 00 00	 mov	 ecx, 16			; 00000010H
  005c0	b8 cc cc cc cc	 mov	 eax, -858993460		; ccccccccH
  005c5	f3 ab		 rep stosd
  005c7	59		 pop	 ecx
  005c8	89 4d fc	 mov	 DWORD PTR _this$[ebp], ecx

; 125  : 	CRect rc = rcControlWnd;

  005cb	8b 45 08	 mov	 eax, DWORD PTR _rcControlWnd$[ebp]
  005ce	8b 08		 mov	 ecx, DWORD PTR [eax]
  005d0	89 4d e8	 mov	 DWORD PTR _rc$[ebp], ecx
  005d3	8b 50 04	 mov	 edx, DWORD PTR [eax+4]
  005d6	89 55 ec	 mov	 DWORD PTR _rc$[ebp+4], edx
  005d9	8b 48 08	 mov	 ecx, DWORD PTR [eax+8]
  005dc	89 4d f0	 mov	 DWORD PTR _rc$[ebp+8], ecx
  005df	8b 50 0c	 mov	 edx, DWORD PTR [eax+12]
  005e2	89 55 f4	 mov	 DWORD PTR _rc$[ebp+12], edx

; 126  : 	rc.DeflateRect(6, 42,6, 84);

  005e5	6a 54		 push	 84			; 00000054H
  005e7	6a 06		 push	 6
  005e9	6a 2a		 push	 42			; 0000002aH
  005eb	6a 06		 push	 6
  005ed	8d 4d e8	 lea	 ecx, DWORD PTR _rc$[ebp]
  005f0	e8 00 00 00 00	 call	 ?DeflateRect@CRect@@QAEXHHHH@Z ; CRect::DeflateRect

; 127  : 
; 128  : 	float w1 = rc.Width();

  005f5	8d 4d e8	 lea	 ecx, DWORD PTR _rc$[ebp]
  005f8	e8 00 00 00 00	 call	 ?Width@CRect@@QBEHXZ	; CRect::Width
  005fd	89 45 cc	 mov	 DWORD PTR tv171[ebp], eax
  00600	db 45 cc	 fild	 DWORD PTR tv171[ebp]
  00603	d9 5d e0	 fstp	 DWORD PTR _w1$[ebp]

; 129  : 	float h1 = rc.Height();

  00606	8d 4d e8	 lea	 ecx, DWORD PTR _rc$[ebp]
  00609	e8 00 00 00 00	 call	 ?Height@CRect@@QBEHXZ	; CRect::Height
  0060e	89 45 c8	 mov	 DWORD PTR tv173[ebp], eax
  00611	db 45 c8	 fild	 DWORD PTR tv173[ebp]
  00614	d9 5d dc	 fstp	 DWORD PTR _h1$[ebp]

; 130  : 	float w = rc.Width() - m_nDeltaWidth;

  00617	8d 4d e8	 lea	 ecx, DWORD PTR _rc$[ebp]
  0061a	e8 00 00 00 00	 call	 ?Width@CRect@@QBEHXZ	; CRect::Width
  0061f	8b 4d fc	 mov	 ecx, DWORD PTR _this$[ebp]
  00622	2b 41 78	 sub	 eax, DWORD PTR [ecx+120]
  00625	89 45 c4	 mov	 DWORD PTR tv176[ebp], eax
  00628	db 45 c4	 fild	 DWORD PTR tv176[ebp]
  0062b	d9 5d d8	 fstp	 DWORD PTR _w$[ebp]

; 131  : 	float h = rc.Height() - m_nDeltaHeight;

  0062e	8d 4d e8	 lea	 ecx, DWORD PTR _rc$[ebp]
  00631	e8 00 00 00 00	 call	 ?Height@CRect@@QBEHXZ	; CRect::Height
  00636	8b 55 fc	 mov	 edx, DWORD PTR _this$[ebp]
  00639	2b 42 74	 sub	 eax, DWORD PTR [edx+116]
  0063c	89 45 c0	 mov	 DWORD PTR tv179[ebp], eax
  0063f	db 45 c0	 fild	 DWORD PTR tv179[ebp]
  00642	d9 5d d4	 fstp	 DWORD PTR _h$[ebp]

; 132  : 	float calheight;
; 133  : 
; 134  : 	calheight = w1 * 3/4;

  00645	d9 45 e0	 fld	 DWORD PTR _w1$[ebp]
  00648	d8 0d 00 00 00
	00		 fmul	 DWORD PTR __real@40400000
  0064e	d8 35 00 00 00
	00		 fdiv	 DWORD PTR __real@40800000
  00654	d9 5d d0	 fstp	 DWORD PTR _calheight$[ebp]

; 135  : 
; 136  : 	if(calheight + 126 < DEFAULT_HEIGHT)

  00657	d9 45 d0	 fld	 DWORD PTR _calheight$[ebp]
  0065a	d8 05 00 00 00
	00		 fadd	 DWORD PTR __real@42fc0000
  00660	d8 1d 00 00 00
	00		 fcomp	 DWORD PTR __real@43ab0000
  00666	df e0		 fnstsw	 ax
  00668	f6 c4 05	 test	 ah, 5
  0066b	7a 07		 jp	 SHORT $L189294

; 137  : 		calheight = DEFAULT_HEIGHT - 126;

  0066d	c7 45 d0 00 00
	58 43		 mov	 DWORD PTR _calheight$[ebp], 1129840640 ; 43580000H
$L189294:

; 138  : 
; 139  : 	if (
; 140  : 		(h > h1 && calheight < h && calheight > h1) ||
; 141  : 		(h < h1 && calheight < h1 && calheight > h)
; 142  : 		)

  00674	d9 45 d4	 fld	 DWORD PTR _h$[ebp]
  00677	d8 5d dc	 fcomp	 DWORD PTR _h1$[ebp]
  0067a	df e0		 fnstsw	 ax
  0067c	f6 c4 41	 test	 ah, 65			; 00000041H
  0067f	75 1a		 jne	 SHORT $L189297
  00681	d9 45 d0	 fld	 DWORD PTR _calheight$[ebp]
  00684	d8 5d d4	 fcomp	 DWORD PTR _h$[ebp]
  00687	df e0		 fnstsw	 ax
  00689	f6 c4 05	 test	 ah, 5
  0068c	7a 0d		 jp	 SHORT $L189297
  0068e	d9 45 d0	 fld	 DWORD PTR _calheight$[ebp]
  00691	d8 5d dc	 fcomp	 DWORD PTR _h1$[ebp]
  00694	df e0		 fnstsw	 ax
  00696	f6 c4 41	 test	 ah, 65			; 00000041H
  00699	74 27		 je	 SHORT $L189296
$L189297:
  0069b	d9 45 d4	 fld	 DWORD PTR _h$[ebp]
  0069e	d8 5d dc	 fcomp	 DWORD PTR _h1$[ebp]
  006a1	df e0		 fnstsw	 ax
  006a3	f6 c4 05	 test	 ah, 5
  006a6	7a 45		 jp	 SHORT $L189295
  006a8	d9 45 d0	 fld	 DWORD PTR _calheight$[ebp]
  006ab	d8 5d dc	 fcomp	 DWORD PTR _h1$[ebp]
  006ae	df e0		 fnstsw	 ax
  006b0	f6 c4 05	 test	 ah, 5
  006b3	7a 38		 jp	 SHORT $L189295
  006b5	d9 45 d0	 fld	 DWORD PTR _calheight$[ebp]
  006b8	d8 5d d4	 fcomp	 DWORD PTR _h$[ebp]
  006bb	df e0		 fnstsw	 ax
  006bd	f6 c4 41	 test	 ah, 65			; 00000041H
  006c0	75 2b		 jne	 SHORT $L189295
$L189296:

; 143  : 	{
; 144  : 		rcControlWnd.bottom = rcControlWnd.top + calheight + 126;

  006c2	8b 45 08	 mov	 eax, DWORD PTR _rcControlWnd$[ebp]
  006c5	db 40 04	 fild	 DWORD PTR [eax+4]
  006c8	d8 45 d0	 fadd	 DWORD PTR _calheight$[ebp]
  006cb	d8 05 00 00 00
	00		 fadd	 DWORD PTR __real@42fc0000
  006d1	e8 00 00 00 00	 call	 __ftol2
  006d6	8b 4d 08	 mov	 ecx, DWORD PTR _rcControlWnd$[ebp]
  006d9	89 41 0c	 mov	 DWORD PTR [ecx+12], eax

; 145  : 		rcPlaylist.top = rcControlWnd.bottom;

  006dc	8b 55 0c	 mov	 edx, DWORD PTR _rcPlaylist$[ebp]
  006df	8b 45 08	 mov	 eax, DWORD PTR _rcControlWnd$[ebp]
  006e2	8b 48 0c	 mov	 ecx, DWORD PTR [eax+12]
  006e5	89 4a 04	 mov	 DWORD PTR [edx+4], ecx

; 146  : 	}
; 147  : 	//mvplaylist
; 148  : 	else if(h1 < h && calheight >= h && rcPlaylist.Height() > PLAYLIST_MIN_HEIGHT)

  006e8	e9 8d 00 00 00	 jmp	 $L189287
$L189295:
  006ed	d9 45 dc	 fld	 DWORD PTR _h1$[ebp]
  006f0	d8 5d d4	 fcomp	 DWORD PTR _h$[ebp]
  006f3	df e0		 fnstsw	 ax
  006f5	f6 c4 05	 test	 ah, 5
  006f8	7a 42		 jp	 SHORT $L189299
  006fa	d9 45 d0	 fld	 DWORD PTR _calheight$[ebp]
  006fd	d8 5d d4	 fcomp	 DWORD PTR _h$[ebp]
  00700	df e0		 fnstsw	 ax
  00702	f6 c4 01	 test	 ah, 1
  00705	75 35		 jne	 SHORT $L189299
  00707	8b 4d 0c	 mov	 ecx, DWORD PTR _rcPlaylist$[ebp]
  0070a	e8 00 00 00 00	 call	 ?Height@CRect@@QBEHXZ	; CRect::Height
  0070f	3d d2 00 00 00	 cmp	 eax, 210		; 000000d2H
  00714	7e 26		 jle	 SHORT $L189299

; 149  : 	{
; 150  : 		rcControlWnd.bottom = rcControlWnd.bottom - m_nDeltaHeight;

  00716	8b 55 08	 mov	 edx, DWORD PTR _rcControlWnd$[ebp]
  00719	8b 45 fc	 mov	 eax, DWORD PTR _this$[ebp]
  0071c	8b 4a 0c	 mov	 ecx, DWORD PTR [edx+12]
  0071f	2b 48 74	 sub	 ecx, DWORD PTR [eax+116]
  00722	8b 55 08	 mov	 edx, DWORD PTR _rcControlWnd$[ebp]
  00725	89 4a 0c	 mov	 DWORD PTR [edx+12], ecx

; 151  : 		rcPlaylist.top = rcPlaylist.top - m_nDeltaHeight;

  00728	8b 45 0c	 mov	 eax, DWORD PTR _rcPlaylist$[ebp]
  0072b	8b 4d fc	 mov	 ecx, DWORD PTR _this$[ebp]
  0072e	8b 50 04	 mov	 edx, DWORD PTR [eax+4]
  00731	2b 51 74	 sub	 edx, DWORD PTR [ecx+116]
  00734	8b 45 0c	 mov	 eax, DWORD PTR _rcPlaylist$[ebp]
  00737	89 50 04	 mov	 DWORD PTR [eax+4], edx

; 152  : 	}
; 153  : 	//mvplaylist
; 154  : 	else if(h1 > h && calheight <= h)

  0073a	eb 3e		 jmp	 SHORT $L189287
$L189299:
  0073c	d9 45 dc	 fld	 DWORD PTR _h1$[ebp]
  0073f	d8 5d d4	 fcomp	 DWORD PTR _h$[ebp]
  00742	df e0		 fnstsw	 ax
  00744	f6 c4 41	 test	 ah, 65			; 00000041H
  00747	75 31		 jne	 SHORT $L189287
  00749	d9 45 d0	 fld	 DWORD PTR _calheight$[ebp]
  0074c	d8 5d d4	 fcomp	 DWORD PTR _h$[ebp]
  0074f	df e0		 fnstsw	 ax
  00751	f6 c4 41	 test	 ah, 65			; 00000041H
  00754	7a 24		 jp	 SHORT $L189287

; 155  : 	{
; 156  : 		rcControlWnd.bottom = rcControlWnd.bottom - m_nDeltaHeight;

  00756	8b 4d 08	 mov	 ecx, DWORD PTR _rcControlWnd$[ebp]
  00759	8b 55 fc	 mov	 edx, DWORD PTR _this$[ebp]
  0075c	8b 41 0c	 mov	 eax, DWORD PTR [ecx+12]
  0075f	2b 42 74	 sub	 eax, DWORD PTR [edx+116]
  00762	8b 4d 08	 mov	 ecx, DWORD PTR _rcControlWnd$[ebp]
  00765	89 41 0c	 mov	 DWORD PTR [ecx+12], eax

; 157  : 		rcPlaylist.top = rcPlaylist.top - m_nDeltaHeight;

  00768	8b 55 0c	 mov	 edx, DWORD PTR _rcPlaylist$[ebp]
  0076b	8b 45 fc	 mov	 eax, DWORD PTR _this$[ebp]
  0076e	8b 4a 04	 mov	 ecx, DWORD PTR [edx+4]
  00771	2b 48 74	 sub	 ecx, DWORD PTR [eax+116]
  00774	8b 55 0c	 mov	 edx, DWORD PTR _rcPlaylist$[ebp]
  00777	89 4a 04	 mov	 DWORD PTR [edx+4], ecx
$L189287:

; 158  : 	}
; 159  : }

  0077a	52		 push	 edx
  0077b	8b cd		 mov	 ecx, ebp
  0077d	50		 push	 eax
  0077e	8d 15 00 00 00
	00		 lea	 edx, DWORD PTR $L190574
  00784	e8 00 00 00 00	 call	 @_RTC_CheckStackVars@8
  00789	58		 pop	 eax
  0078a	5a		 pop	 edx
  0078b	5f		 pop	 edi
  0078c	83 c4 40	 add	 esp, 64			; 00000040H
  0078f	3b ec		 cmp	 ebp, esp
  00791	e8 00 00 00 00	 call	 __RTC_CheckEsp
  00796	8b e5		 mov	 esp, ebp
  00798	5d		 pop	 ebp
  00799	c2 08 00	 ret	 8
$L190574:
  0079c	01 00 00 00	 DD	 1
  007a0	00 00 00 00	 DD	 $L190573
$L190573:
  007a4	e8 ff ff ff	 DD	 -24			; ffffffe8H
  007a8	10 00 00 00	 DD	 16			; 00000010H
  007ac	00 00 00 00	 DD	 $L190572
$L190572:
  007b0	72		 DB	 114			; 00000072H
  007b1	63		 DB	 99			; 00000063H
  007b2	00		 DB	 0
?CalResizingByMVRatio@CMainHostWnd@@QAEXAAVCRect@@0@Z ENDP ; CMainHostWnd::CalResizingByMVRatio
_TEXT	ENDS
EXTRN	??BCRect@@QAEPAUtagRECT@@XZ:NEAR		; CRect::operator tagRECT *
EXTRN	?GetWindowRect@CWnd@@QBEXPAUtagRECT@@@Z:NEAR	; CWnd::GetWindowRect
; Function compile flags: /Odt /RTCsu
_TEXT	SEGMENT
tv152 = -164						; size = 4
_nPlaylistHeight$189323 = -160				; size = 4
_rcControl$189321 = -152				; size = 16
_bottom$189318 = -132					; size = 4
_rect$189317 = -124					; size = 16
_rcPlaylist$189315 = -100				; size = 16
_rcControl$189314 = -76					; size = 16
_nControlWndHeight$189311 = -56				; size = 4
_rcList$189310 = -48					; size = 16
_rc$ = -24						; size = 16
_this$ = -4						; size = 4
?MoveContent@CMainHostWnd@@AAEXXZ PROC NEAR		; CMainHostWnd::MoveContent
; _this$ = ecx

; 162  : {

  007c0	55		 push	 ebp
  007c1	8b ec		 mov	 ebp, esp
  007c3	81 ec a4 00 00
	00		 sub	 esp, 164		; 000000a4H
  007c9	56		 push	 esi
  007ca	57		 push	 edi
  007cb	51		 push	 ecx
  007cc	8d bd 5c ff ff
	ff		 lea	 edi, DWORD PTR [ebp-164]
  007d2	b9 29 00 00 00	 mov	 ecx, 41			; 00000029H
  007d7	b8 cc cc cc cc	 mov	 eax, -858993460		; ccccccccH
  007dc	f3 ab		 rep stosd
  007de	59		 pop	 ecx
  007df	89 4d fc	 mov	 DWORD PTR _this$[ebp], ecx

; 163  : 	CRect rc;

  007e2	8d 4d e8	 lea	 ecx, DWORD PTR _rc$[ebp]
  007e5	e8 00 00 00 00	 call	 ??0CRect@@QAE@XZ	; CRect::CRect

; 164  : 	GetClientRect(&rc);

  007ea	8d 45 e8	 lea	 eax, DWORD PTR _rc$[ebp]
  007ed	50		 push	 eax
  007ee	8b 4d fc	 mov	 ecx, DWORD PTR _this$[ebp]
  007f1	e8 00 00 00 00	 call	 ?GetClientRect@CWnd@@QBEXPAUtagRECT@@@Z ; CWnd::GetClientRect

; 165  : 
; 166  : 	if( !m_bShowPlaylist)

  007f6	8b 4d fc	 mov	 ecx, DWORD PTR _this$[ebp]
  007f9	0f b6 91 35 02
	00 00		 movzx	 edx, BYTE PTR [ecx+565]
  00800	85 d2		 test	 edx, edx
  00802	75 25		 jne	 SHORT $L189306

; 167  : 	{
; 168  : 		m_pControlWnd->GetWindowRect(&rc);

  00804	8d 45 e8	 lea	 eax, DWORD PTR _rc$[ebp]
  00807	50		 push	 eax
  00808	8b 4d fc	 mov	 ecx, DWORD PTR _this$[ebp]
  0080b	8b 89 48 02 00
	00		 mov	 ecx, DWORD PTR [ecx+584]
  00811	e8 00 00 00 00	 call	 ?GetWindowRect@CWnd@@QBEXPAUtagRECT@@@Z ; CWnd::GetWindowRect

; 169  : 		MoveWindow(&rc);

  00816	6a 01		 push	 1
  00818	8d 55 e8	 lea	 edx, DWORD PTR _rc$[ebp]
  0081b	52		 push	 edx
  0081c	8b 4d fc	 mov	 ecx, DWORD PTR _this$[ebp]
  0081f	e8 00 00 00 00	 call	 ?MoveWindow@CWnd@@QAEXPBUtagRECT@@H@Z ; CWnd::MoveWindow

; 170  : 	}
; 171  : 	else

  00824	e9 b0 02 00 00	 jmp	 $L189304
$L189306:

; 172  : 	{
; 173  : 		//if(m_bShowMV)
; 174  : 		//{
; 175  : 		//	CRect rc1, rc2;
; 176  : 		//	m_pControlWnd->GetWindowRect(&rc1);
; 177  : 		//	m_pPlistWnd->GetWindowRect(&rc2);
; 178  : 		//	CalResizingByMVRatio(rc1, rc2);
; 179  : 		//	this->ScreenToClient(&rc1);
; 180  : 		//	this->ScreenToClient(&rc2);
; 181  : 		//	m_pControlWnd->MoveWindow(&rc1);
; 182  : 		//	m_pPlistWnd->MoveWindow(&rc2);
; 183  : 		//}
; 184  : 		if(
; 185  : 			(( m_iDirection & DIRECTION_TOP) || ( m_iDirection & DIRECTION_BOTTOM) )
; 186  : 			&&  m_bShowMV )

  00829	8b 45 fc	 mov	 eax, DWORD PTR _this$[ebp]
  0082c	8b 88 9c 00 00
	00		 mov	 ecx, DWORD PTR [eax+156]
  00832	83 e1 04	 and	 ecx, 4
  00835	75 12		 jne	 SHORT $L189309
  00837	8b 55 fc	 mov	 edx, DWORD PTR _this$[ebp]
  0083a	8b 82 9c 00 00
	00		 mov	 eax, DWORD PTR [edx+156]
  00840	83 e0 08	 and	 eax, 8
  00843	0f 84 94 01 00
	00		 je	 $L189308
$L189309:
  00849	8b 4d fc	 mov	 ecx, DWORD PTR _this$[ebp]
  0084c	0f b6 91 34 02
	00 00		 movzx	 edx, BYTE PTR [ecx+564]
  00853	85 d2		 test	 edx, edx
  00855	0f 84 82 01 00
	00		 je	 $L189308

; 187  : 		{
; 188  : 			CRect rcList;

  0085b	8d 4d d0	 lea	 ecx, DWORD PTR _rcList$189310[ebp]
  0085e	e8 00 00 00 00	 call	 ??0CRect@@QAE@XZ	; CRect::CRect

; 189  : 			m_pPlistWnd->GetWindowRect(&rcList);

  00863	8d 45 d0	 lea	 eax, DWORD PTR _rcList$189310[ebp]
  00866	50		 push	 eax
  00867	8b 4d fc	 mov	 ecx, DWORD PTR _this$[ebp]
  0086a	8b 89 4c 02 00
	00		 mov	 ecx, DWORD PTR [ecx+588]
  00870	e8 00 00 00 00	 call	 ?GetWindowRect@CWnd@@QBEXPAUtagRECT@@@Z ; CWnd::GetWindowRect

; 190  : 			int nControlWndHeight = rc.Height() - rcList.Height();

  00875	8d 4d e8	 lea	 ecx, DWORD PTR _rc$[ebp]
  00878	e8 00 00 00 00	 call	 ?Height@CRect@@QBEHXZ	; CRect::Height
  0087d	8b f0		 mov	 esi, eax
  0087f	8d 4d d0	 lea	 ecx, DWORD PTR _rcList$189310[ebp]
  00882	e8 00 00 00 00	 call	 ?Height@CRect@@QBEHXZ	; CRect::Height
  00887	2b f0		 sub	 esi, eax
  00889	89 75 c8	 mov	 DWORD PTR _nControlWndHeight$189311[ebp], esi

; 191  : 
; 192  : 			if(nControlWndHeight < DEFAULT_HEIGHT)

  0088c	81 7d c8 56 01
	00 00		 cmp	 DWORD PTR _nControlWndHeight$189311[ebp], 342 ; 00000156H
  00893	7d 23		 jge	 SHORT $L189312

; 193  : 			{
; 194  : 				//playlist
; 195  : 				rcList.bottom = rcList.top + (rc.Height() - DEFAULT_HEIGHT);

  00895	8d 4d e8	 lea	 ecx, DWORD PTR _rc$[ebp]
  00898	e8 00 00 00 00	 call	 ?Height@CRect@@QBEHXZ	; CRect::Height
  0089d	8b 55 d4	 mov	 edx, DWORD PTR _rcList$189310[ebp+4]
  008a0	8d 84 02 aa fe
	ff ff		 lea	 eax, DWORD PTR [edx+eax-342]
  008a7	89 45 dc	 mov	 DWORD PTR _rcList$189310[ebp+12], eax

; 196  : 				rc.bottom = rc.top + DEFAULT_HEIGHT;

  008aa	8b 4d ec	 mov	 ecx, DWORD PTR _rc$[ebp+4]
  008ad	81 c1 56 01 00
	00		 add	 ecx, 342		; 00000156H
  008b3	89 4d f4	 mov	 DWORD PTR _rc$[ebp+12], ecx

; 197  : 			}
; 198  : 			else

  008b6	eb 09		 jmp	 SHORT $L189313
$L189312:

; 199  : 				rc.bottom = rc.top + nControlWndHeight;

  008b8	8b 55 ec	 mov	 edx, DWORD PTR _rc$[ebp+4]
  008bb	03 55 c8	 add	 edx, DWORD PTR _nControlWndHeight$189311[ebp]
  008be	89 55 f4	 mov	 DWORD PTR _rc$[ebp+12], edx
$L189313:

; 200  : 
; 201  : 			CRect rcControl, rcPlaylist;

  008c1	8d 4d b4	 lea	 ecx, DWORD PTR _rcControl$189314[ebp]
  008c4	e8 00 00 00 00	 call	 ??0CRect@@QAE@XZ	; CRect::CRect
  008c9	8d 4d 9c	 lea	 ecx, DWORD PTR _rcPlaylist$189315[ebp]
  008cc	e8 00 00 00 00	 call	 ??0CRect@@QAE@XZ	; CRect::CRect

; 202  : 			rcControl = rc;

  008d1	8b 45 e8	 mov	 eax, DWORD PTR _rc$[ebp]
  008d4	89 45 b4	 mov	 DWORD PTR _rcControl$189314[ebp], eax
  008d7	8b 4d ec	 mov	 ecx, DWORD PTR _rc$[ebp+4]
  008da	89 4d b8	 mov	 DWORD PTR _rcControl$189314[ebp+4], ecx
  008dd	8b 55 f0	 mov	 edx, DWORD PTR _rc$[ebp+8]
  008e0	89 55 bc	 mov	 DWORD PTR _rcControl$189314[ebp+8], edx
  008e3	8b 45 f4	 mov	 eax, DWORD PTR _rc$[ebp+12]
  008e6	89 45 c0	 mov	 DWORD PTR _rcControl$189314[ebp+12], eax

; 203  : 			//
; 204  : 			rc.top = rc.Height();

  008e9	8d 4d e8	 lea	 ecx, DWORD PTR _rc$[ebp]
  008ec	e8 00 00 00 00	 call	 ?Height@CRect@@QBEHXZ	; CRect::Height
  008f1	89 45 ec	 mov	 DWORD PTR _rc$[ebp+4], eax

; 205  : 			rc.bottom = rc.top + rcList.Height();

  008f4	8d 4d d0	 lea	 ecx, DWORD PTR _rcList$189310[ebp]
  008f7	e8 00 00 00 00	 call	 ?Height@CRect@@QBEHXZ	; CRect::Height
  008fc	03 45 ec	 add	 eax, DWORD PTR _rc$[ebp+4]
  008ff	89 45 f4	 mov	 DWORD PTR _rc$[ebp+12], eax

; 206  : 			rcPlaylist = rc;

  00902	8b 4d e8	 mov	 ecx, DWORD PTR _rc$[ebp]
  00905	89 4d 9c	 mov	 DWORD PTR _rcPlaylist$189315[ebp], ecx
  00908	8b 55 ec	 mov	 edx, DWORD PTR _rc$[ebp+4]
  0090b	89 55 a0	 mov	 DWORD PTR _rcPlaylist$189315[ebp+4], edx
  0090e	8b 45 f0	 mov	 eax, DWORD PTR _rc$[ebp+8]
  00911	89 45 a4	 mov	 DWORD PTR _rcPlaylist$189315[ebp+8], eax
  00914	8b 4d f4	 mov	 ecx, DWORD PTR _rc$[ebp+12]
  00917	89 4d a8	 mov	 DWORD PTR _rcPlaylist$189315[ebp+12], ecx

; 207  : 			CalResizingByMVRatio(rcControl,rcPlaylist);

  0091a	8d 55 9c	 lea	 edx, DWORD PTR _rcPlaylist$189315[ebp]
  0091d	52		 push	 edx
  0091e	8d 45 b4	 lea	 eax, DWORD PTR _rcControl$189314[ebp]
  00921	50		 push	 eax
  00922	8b 4d fc	 mov	 ecx, DWORD PTR _this$[ebp]
  00925	e8 00 00 00 00	 call	 ?CalResizingByMVRatio@CMainHostWnd@@QAEXAAVCRect@@0@Z ; CMainHostWnd::CalResizingByMVRatio

; 208  : 			//play
; 209  : 			if(rcPlaylist.Height() < PLAYLIST_MIN_HEIGHT)

  0092a	8d 4d 9c	 lea	 ecx, DWORD PTR _rcPlaylist$189315[ebp]
  0092d	e8 00 00 00 00	 call	 ?Height@CRect@@QBEHXZ	; CRect::Height
  00932	3d d2 00 00 00	 cmp	 eax, 210		; 000000d2H
  00937	7d 77		 jge	 SHORT $L189316

; 210  : 			{
; 211  : 				CRect rect;

  00939	8d 4d 84	 lea	 ecx, DWORD PTR _rect$189317[ebp]
  0093c	e8 00 00 00 00	 call	 ??0CRect@@QAE@XZ	; CRect::CRect

; 212  : 				this->GetWindowRect(&rect);

  00941	8d 4d 84	 lea	 ecx, DWORD PTR _rect$189317[ebp]
  00944	51		 push	 ecx
  00945	8b 4d fc	 mov	 ecx, DWORD PTR _this$[ebp]
  00948	e8 00 00 00 00	 call	 ?GetWindowRect@CWnd@@QBEXPAUtagRECT@@@Z ; CWnd::GetWindowRect

; 213  : 
; 214  : 				int bottom = (rcControl.bottom < rcPlaylist.bottom) ? rcPlaylist.bottom: rcControl.bottom;

  0094d	8b 55 c0	 mov	 edx, DWORD PTR _rcControl$189314[ebp+12]
  00950	3b 55 a8	 cmp	 edx, DWORD PTR _rcPlaylist$189315[ebp+12]
  00953	7d 0b		 jge	 SHORT $L190577
  00955	8b 45 a8	 mov	 eax, DWORD PTR _rcPlaylist$189315[ebp+12]
  00958	89 85 5c ff ff
	ff		 mov	 DWORD PTR tv152[ebp], eax
  0095e	eb 09		 jmp	 SHORT $L190578
$L190577:
  00960	8b 4d c0	 mov	 ecx, DWORD PTR _rcControl$189314[ebp+12]
  00963	89 8d 5c ff ff
	ff		 mov	 DWORD PTR tv152[ebp], ecx
$L190578:
  00969	8b 95 5c ff ff
	ff		 mov	 edx, DWORD PTR tv152[ebp]
  0096f	89 95 7c ff ff
	ff		 mov	 DWORD PTR _bottom$189318[ebp], edx

; 215  : 				if(bottom > rect.Height())

  00975	8d 4d 84	 lea	 ecx, DWORD PTR _rect$189317[ebp]
  00978	e8 00 00 00 00	 call	 ?Height@CRect@@QBEHXZ	; CRect::Height
  0097d	39 85 7c ff ff
	ff		 cmp	 DWORD PTR _bottom$189318[ebp], eax
  00983	7e 0e		 jle	 SHORT $L189319

; 216  : 					bottom = rect.Height();

  00985	8d 4d 84	 lea	 ecx, DWORD PTR _rect$189317[ebp]
  00988	e8 00 00 00 00	 call	 ?Height@CRect@@QBEHXZ	; CRect::Height
  0098d	89 85 7c ff ff
	ff		 mov	 DWORD PTR _bottom$189318[ebp], eax
$L189319:

; 217  : 				rcControl.bottom = bottom - PLAYLIST_MIN_HEIGHT;

  00993	8b 85 7c ff ff
	ff		 mov	 eax, DWORD PTR _bottom$189318[ebp]
  00999	2d d2 00 00 00	 sub	 eax, 210		; 000000d2H
  0099e	89 45 c0	 mov	 DWORD PTR _rcControl$189314[ebp+12], eax

; 218  : 				rcPlaylist.top = rcControl.bottom;

  009a1	8b 4d c0	 mov	 ecx, DWORD PTR _rcControl$189314[ebp+12]
  009a4	89 4d a0	 mov	 DWORD PTR _rcPlaylist$189315[ebp+4], ecx

; 219  : 				rcPlaylist.bottom = bottom;

  009a7	8b 95 7c ff ff
	ff		 mov	 edx, DWORD PTR _bottom$189318[ebp]
  009ad	89 55 a8	 mov	 DWORD PTR _rcPlaylist$189315[ebp+12], edx
$L189316:

; 220  : 			}
; 221  : 			m_pControlWnd->MoveWindow(&rcControl);

  009b0	6a 01		 push	 1
  009b2	8d 45 b4	 lea	 eax, DWORD PTR _rcControl$189314[ebp]
  009b5	50		 push	 eax
  009b6	8b 4d fc	 mov	 ecx, DWORD PTR _this$[ebp]
  009b9	8b 89 48 02 00
	00		 mov	 ecx, DWORD PTR [ecx+584]
  009bf	e8 00 00 00 00	 call	 ?MoveWindow@CWnd@@QAEXPBUtagRECT@@H@Z ; CWnd::MoveWindow

; 222  : 			m_pPlistWnd->MoveWindow(&rcPlaylist);

  009c4	6a 01		 push	 1
  009c6	8d 55 9c	 lea	 edx, DWORD PTR _rcPlaylist$189315[ebp]
  009c9	52		 push	 edx
  009ca	8b 45 fc	 mov	 eax, DWORD PTR _this$[ebp]
  009cd	8b 88 4c 02 00
	00		 mov	 ecx, DWORD PTR [eax+588]
  009d3	e8 00 00 00 00	 call	 ?MoveWindow@CWnd@@QAEXPBUtagRECT@@H@Z ; CWnd::MoveWindow

; 223  : 		}
; 224  : 		else

  009d8	e9 fc 00 00 00	 jmp	 $L189304
$L189308:

; 225  : 		{
; 226  : 			CRect rcControl;

  009dd	8d 8d 68 ff ff
	ff		 lea	 ecx, DWORD PTR _rcControl$189321[ebp]
  009e3	e8 00 00 00 00	 call	 ??0CRect@@QAE@XZ	; CRect::CRect

; 227  : 			m_pControlWnd->GetClientRect(&rcControl);

  009e8	8d 8d 68 ff ff
	ff		 lea	 ecx, DWORD PTR _rcControl$189321[ebp]
  009ee	51		 push	 ecx
  009ef	8b 55 fc	 mov	 edx, DWORD PTR _this$[ebp]
  009f2	8b 8a 48 02 00
	00		 mov	 ecx, DWORD PTR [edx+584]
  009f8	e8 00 00 00 00	 call	 ?GetClientRect@CWnd@@QBEXPAUtagRECT@@@Z ; CWnd::GetClientRect

; 228  : 
; 229  : 			if(!m_bShowMV && rcControl.Height() < 127)

  009fd	8b 45 fc	 mov	 eax, DWORD PTR _this$[ebp]
  00a00	0f b6 88 34 02
	00 00		 movzx	 ecx, BYTE PTR [eax+564]
  00a07	85 c9		 test	 ecx, ecx
  00a09	75 1f		 jne	 SHORT $L189322
  00a0b	8d 8d 68 ff ff
	ff		 lea	 ecx, DWORD PTR _rcControl$189321[ebp]
  00a11	e8 00 00 00 00	 call	 ?Height@CRect@@QBEHXZ	; CRect::Height
  00a16	83 f8 7f	 cmp	 eax, 127		; 0000007fH
  00a19	7d 0f		 jge	 SHORT $L189322

; 230  : 				rcControl.bottom += 127;

  00a1b	8b 95 74 ff ff
	ff		 mov	 edx, DWORD PTR _rcControl$189321[ebp+12]
  00a21	83 c2 7f	 add	 edx, 127		; 0000007fH
  00a24	89 95 74 ff ff
	ff		 mov	 DWORD PTR _rcControl$189321[ebp+12], edx
$L189322:

; 231  : 
; 232  : 			int nPlaylistHeight = rc.Height() - rcControl.Height();

  00a2a	8d 4d e8	 lea	 ecx, DWORD PTR _rc$[ebp]
  00a2d	e8 00 00 00 00	 call	 ?Height@CRect@@QBEHXZ	; CRect::Height
  00a32	8b f0		 mov	 esi, eax
  00a34	8d 8d 68 ff ff
	ff		 lea	 ecx, DWORD PTR _rcControl$189321[ebp]
  00a3a	e8 00 00 00 00	 call	 ?Height@CRect@@QBEHXZ	; CRect::Height
  00a3f	2b f0		 sub	 esi, eax
  00a41	89 b5 60 ff ff
	ff		 mov	 DWORD PTR _nPlaylistHeight$189323[ebp], esi

; 233  : 
; 234  : 			if(nPlaylistHeight < PLAYLIST_MIN_HEIGHT)

  00a47	81 bd 60 ff ff
	ff d2 00 00 00	 cmp	 DWORD PTR _nPlaylistHeight$189323[ebp], 210 ; 000000d2H
  00a51	7d 0e		 jge	 SHORT $L189324

; 235  : 			{
; 236  : 				rcControl.bottom = rc.bottom - PLAYLIST_MIN_HEIGHT;

  00a53	8b 45 f4	 mov	 eax, DWORD PTR _rc$[ebp+12]
  00a56	2d d2 00 00 00	 sub	 eax, 210		; 000000d2H
  00a5b	89 85 74 ff ff
	ff		 mov	 DWORD PTR _rcControl$189321[ebp+12], eax
$L189324:

; 237  : 			}
; 238  : 			
; 239  : 
; 240  : 			//if(nPlaylistHeight < 0)
; 241  : 			//	return;
; 242  : 			if(m_bShowMV && rcControl.Height() < DEFAULT_HEIGHT)

  00a61	8b 4d fc	 mov	 ecx, DWORD PTR _this$[ebp]
  00a64	0f b6 91 34 02
	00 00		 movzx	 edx, BYTE PTR [ecx+564]
  00a6b	85 d2		 test	 edx, edx
  00a6d	74 23		 je	 SHORT $L189325
  00a6f	8d 8d 68 ff ff
	ff		 lea	 ecx, DWORD PTR _rcControl$189321[ebp]
  00a75	e8 00 00 00 00	 call	 ?Height@CRect@@QBEHXZ	; CRect::Height
  00a7a	3d 56 01 00 00	 cmp	 eax, 342		; 00000156H
  00a7f	7d 11		 jge	 SHORT $L189325

; 243  : 			{
; 244  : 				rcControl.bottom = rcControl.top + DEFAULT_HEIGHT;

  00a81	8b 85 6c ff ff
	ff		 mov	 eax, DWORD PTR _rcControl$189321[ebp+4]
  00a87	05 56 01 00 00	 add	 eax, 342		; 00000156H
  00a8c	89 85 74 ff ff
	ff		 mov	 DWORD PTR _rcControl$189321[ebp+12], eax
$L189325:

; 245  : 			}
; 246  : 			rc.top = rcControl.Height();

  00a92	8d 8d 68 ff ff
	ff		 lea	 ecx, DWORD PTR _rcControl$189321[ebp]
  00a98	e8 00 00 00 00	 call	 ?Height@CRect@@QBEHXZ	; CRect::Height
  00a9d	89 45 ec	 mov	 DWORD PTR _rc$[ebp+4], eax

; 247  : 			m_pPlistWnd->MoveWindow(rc);

  00aa0	6a 01		 push	 1
  00aa2	8d 4d e8	 lea	 ecx, DWORD PTR _rc$[ebp]
  00aa5	e8 00 00 00 00	 call	 ??BCRect@@QAEPAUtagRECT@@XZ ; CRect::operator tagRECT *
  00aaa	50		 push	 eax
  00aab	8b 4d fc	 mov	 ecx, DWORD PTR _this$[ebp]
  00aae	8b 89 4c 02 00
	00		 mov	 ecx, DWORD PTR [ecx+588]
  00ab4	e8 00 00 00 00	 call	 ?MoveWindow@CWnd@@QAEXPBUtagRECT@@H@Z ; CWnd::MoveWindow

; 248  : 
; 249  : 			rcControl.right = rc.right;

  00ab9	8b 55 f0	 mov	 edx, DWORD PTR _rc$[ebp+8]
  00abc	89 95 70 ff ff
	ff		 mov	 DWORD PTR _rcControl$189321[ebp+8], edx

; 250  : 			m_pControlWnd->MoveWindow(&rcControl);

  00ac2	6a 01		 push	 1
  00ac4	8d 85 68 ff ff
	ff		 lea	 eax, DWORD PTR _rcControl$189321[ebp]
  00aca	50		 push	 eax
  00acb	8b 4d fc	 mov	 ecx, DWORD PTR _this$[ebp]
  00ace	8b 89 48 02 00
	00		 mov	 ecx, DWORD PTR [ecx+584]
  00ad4	e8 00 00 00 00	 call	 ?MoveWindow@CWnd@@QAEXPBUtagRECT@@H@Z ; CWnd::MoveWindow
$L189304:

; 251  : 		}
; 252  : 	}
; 253  : }

  00ad9	52		 push	 edx
  00ada	8b cd		 mov	 ecx, ebp
  00adc	50		 push	 eax
  00add	8d 15 00 00 00
	00		 lea	 edx, DWORD PTR $L190586
  00ae3	e8 00 00 00 00	 call	 @_RTC_CheckStackVars@8
  00ae8	58		 pop	 eax
  00ae9	5a		 pop	 edx
  00aea	5f		 pop	 edi
  00aeb	5e		 pop	 esi
  00aec	81 c4 a4 00 00
	00		 add	 esp, 164		; 000000a4H
  00af2	3b ec		 cmp	 ebp, esp
  00af4	e8 00 00 00 00	 call	 __RTC_CheckEsp
  00af9	8b e5		 mov	 esp, ebp
  00afb	5d		 pop	 ebp
  00afc	c3		 ret	 0
$L190586:
  00afd	06 00 00 00	 DD	 6
  00b01	00 00 00 00	 DD	 $L190585
$L190585:
  00b05	e8 ff ff ff	 DD	 -24			; ffffffe8H
  00b09	10 00 00 00	 DD	 16			; 00000010H
  00b0d	00 00 00 00	 DD	 $L190579
  00b11	d0 ff ff ff	 DD	 -48			; ffffffd0H
  00b15	10 00 00 00	 DD	 16			; 00000010H
  00b19	00 00 00 00	 DD	 $L190580
  00b1d	b4 ff ff ff	 DD	 -76			; ffffffb4H
  00b21	10 00 00 00	 DD	 16			; 00000010H
  00b25	00 00 00 00	 DD	 $L190581
  00b29	9c ff ff ff	 DD	 -100			; ffffff9cH
  00b2d	10 00 00 00	 DD	 16			; 00000010H
  00b31	00 00 00 00	 DD	 $L190582
  00b35	84 ff ff ff	 DD	 -124			; ffffff84H
  00b39	10 00 00 00	 DD	 16			; 00000010H
  00b3d	00 00 00 00	 DD	 $L190583
  00b41	68 ff ff ff	 DD	 -152			; ffffff68H
  00b45	10 00 00 00	 DD	 16			; 00000010H
  00b49	00 00 00 00	 DD	 $L190584
$L190584:
  00b4d	72		 DB	 114			; 00000072H
  00b4e	63		 DB	 99			; 00000063H
  00b4f	43		 DB	 67			; 00000043H
  00b50	6f		 DB	 111			; 0000006fH
  00b51	6e		 DB	 110			; 0000006eH
  00b52	74		 DB	 116			; 00000074H
  00b53	72		 DB	 114			; 00000072H
  00b54	6f		 DB	 111			; 0000006fH
  00b55	6c		 DB	 108			; 0000006cH
  00b56	00		 DB	 0
$L190583:
  00b57	72		 DB	 114			; 00000072H
  00b58	65		 DB	 101			; 00000065H
  00b59	63		 DB	 99			; 00000063H
  00b5a	74		 DB	 116			; 00000074H
  00b5b	00		 DB	 0
$L190582:
  00b5c	72		 DB	 114			; 00000072H
  00b5d	63		 DB	 99			; 00000063H
  00b5e	50		 DB	 80			; 00000050H
  00b5f	6c		 DB	 108			; 0000006cH
  00b60	61		 DB	 97			; 00000061H
  00b61	79		 DB	 121			; 00000079H
  00b62	6c		 DB	 108			; 0000006cH
  00b63	69		 DB	 105			; 00000069H
  00b64	73		 DB	 115			; 00000073H
  00b65	74		 DB	 116			; 00000074H
  00b66	00		 DB	 0
$L190581:
  00b67	72		 DB	 114			; 00000072H
  00b68	63		 DB	 99			; 00000063H
  00b69	43		 DB	 67			; 00000043H
  00b6a	6f		 DB	 111			; 0000006fH
  00b6b	6e		 DB	 110			; 0000006eH
  00b6c	74		 DB	 116			; 00000074H
  00b6d	72		 DB	 114			; 00000072H
  00b6e	6f		 DB	 111			; 0000006fH
  00b6f	6c		 DB	 108			; 0000006cH
  00b70	00		 DB	 0
$L190580:
  00b71	72		 DB	 114			; 00000072H
  00b72	63		 DB	 99			; 00000063H
  00b73	4c		 DB	 76			; 0000004cH
  00b74	69		 DB	 105			; 00000069H
  00b75	73		 DB	 115			; 00000073H
  00b76	74		 DB	 116			; 00000074H
  00b77	00		 DB	 0
$L190579:
  00b78	72		 DB	 114			; 00000072H
  00b79	63		 DB	 99			; 00000063H
  00b7a	00		 DB	 0
?MoveContent@CMainHostWnd@@AAEXXZ ENDP			; CMainHostWnd::MoveContent
_TEXT	ENDS
PUBLIC	?ChangeWatchMode@CMainHostWnd@@QAEXXZ		; CMainHostWnd::ChangeWatchMode
PUBLIC	?MoveMvSize@CMainHostWnd@@QAEXHH@Z		; CMainHostWnd::MoveMvSize
EXTRN	__imp_??0?$basic_string@DU?$char_traits@D@std@@V?$allocator@D@2@@std@@QAE@PBD@Z:NEAR
EXTRN	__imp_??1?$basic_string@DU?$char_traits@D@std@@V?$allocator@D@2@@std@@QAE@XZ:NEAR
EXTRN	__imp_?LogUserActMsg@@YAXABV?$basic_string@DU?$char_traits@D@std@@V?$allocator@D@2@@std@@0@Z:NEAR
EXTRN	?GetInstance@CHostWndMgr@@SAPAV1@XZ:NEAR	; CHostWndMgr::GetInstance
EXTRN	?ShowPopupWndsBeforeMainChange@CHostWndMgr@@QAEXH@Z:NEAR ; CHostWndMgr::ShowPopupWndsBeforeMainChange
EXTRN	?ShowPopupWndsAfterMainChange@CHostWndMgr@@QAEXH@Z:NEAR ; CHostWndMgr::ShowPopupWndsAfterMainChange
EXTRN	__imp_??0?$CStringT@DV?$StrTraitMFC_DLL@DV?$ChTraitsCRT@D@ATL@@@@@ATL@@QAE@ABV01@@Z:NEAR
xdata$x	SEGMENT
$T190632 DD	0ffffffffH
	DD	FLAT:$L190606
	DD	0ffffffffH
	DD	FLAT:$L190607
	DD	0ffffffffH
	DD	FLAT:$L190608
	DD	02H
	DD	FLAT:$L190609
	DD	03H
	DD	FLAT:$L190610
	DD	02H
	DD	FLAT:$L190611
	DD	05H
	DD	FLAT:$L190612
	DD	02H
	DD	FLAT:$L190613
	DD	07H
	DD	FLAT:$L190614
	DD	02H
	DD	FLAT:$L190615
	DD	09H
	DD	FLAT:$L190616
	DD	02H
	DD	FLAT:$L190617
	DD	0bH
	DD	FLAT:$L190618
	DD	02H
	DD	FLAT:$L190619
	DD	0dH
	DD	FLAT:$L190620
	DD	02H
	DD	FLAT:$L190621
	DD	0fH
	DD	FLAT:$L190622
	DD	02H
	DD	FLAT:$L190623
	DD	011H
	DD	FLAT:$L190624
$T190626 DD	019930520H
	DD	013H
	DD	FLAT:$T190632
	DD	2 DUP(00H)
	DD	2 DUP(00H)
; Function compile flags: /Odt /RTCsu
xdata$x	ENDS
_TEXT	SEGMENT
tv371 = -412						; size = 4
tv366 = -408						; size = 4
tv479 = -404						; size = 4
tv525 = -400						; size = 4
tv476 = -396						; size = 4
tv522 = -392						; size = 4
tv325 = -388						; size = 4
tv320 = -384						; size = 4
tv474 = -380						; size = 4
tv519 = -376						; size = 4
tv471 = -372						; size = 4
tv516 = -368						; size = 4
tv287 = -364						; size = 4
tv282 = -360						; size = 4
tv469 = -356						; size = 4
tv513 = -352						; size = 4
tv466 = -348						; size = 4
tv510 = -344						; size = 4
tv243 = -340						; size = 4
tv238 = -336						; size = 4
tv464 = -332						; size = 4
tv507 = -328						; size = 4
tv461 = -324						; size = 4
tv504 = -320						; size = 4
tv205 = -316						; size = 4
tv200 = -312						; size = 4
tv459 = -308						; size = 4
tv501 = -304						; size = 4
tv456 = -300						; size = 4
tv498 = -296						; size = 4
tv165 = -292						; size = 4
tv160 = -288						; size = 4
tv454 = -284						; size = 4
tv495 = -280						; size = 4
tv451 = -276						; size = 4
tv492 = -272						; size = 4
tv448 = -268						; size = 4
tv131 = -264						; size = 4
tv94 = -260						; size = 4
tv447 = -256						; size = 4
tv487 = -252						; size = 4
tv445 = -248						; size = 4
tv74 = -244						; size = 4
tv69 = -240						; size = 4
tv444 = -236						; size = 4
tv484 = -232						; size = 4
$T190605 = -228						; size = 28
$T190604 = -200						; size = 28
$T190603 = -172						; size = 28
$T190602 = -144						; size = 28
$T190601 = -116						; size = 4
$T190600 = -112						; size = 4
$T190599 = -108						; size = 4
$T190598 = -104						; size = 4
$T190597 = -100						; size = 4
$T190596 = -96						; size = 4
$T190595 = -92						; size = 4
$T190594 = -88						; size = 4
$T190593 = -84						; size = 4
$T190592 = -80						; size = 4
$T190591 = -76						; size = 4
$T190590 = -72						; size = 4
$T190589 = -68						; size = 4
$T190588 = -64						; size = 4
_strCur$ = -56						; size = 4
_bKeepMVSize$ = -45					; size = 1
_pWnd$ = -44						; size = 4
_rc$ = -36						; size = 16
_this$ = -16						; size = 4
__$EHRec$ = -12						; size = 12
?ChangeWatchMode@CMainHostWnd@@QAEXXZ PROC NEAR		; CMainHostWnd::ChangeWatchMode
; _this$ = ecx

; 256  : {

  00b80	55		 push	 ebp
  00b81	8b ec		 mov	 ebp, esp
  00b83	6a ff		 push	 -1
  00b85	68 00 00 00 00	 push	 __ehhandler$?ChangeWatchMode@CMainHostWnd@@QAEXXZ
  00b8a	64 a1 00 00 00
	00		 mov	 eax, DWORD PTR fs:__except_list
  00b90	50		 push	 eax
  00b91	64 89 25 00 00
	00 00		 mov	 DWORD PTR fs:__except_list, esp
  00b98	81 ec 90 01 00
	00		 sub	 esp, 400		; 00000190H
  00b9e	56		 push	 esi
  00b9f	57		 push	 edi
  00ba0	51		 push	 ecx
  00ba1	8d bd 64 fe ff
	ff		 lea	 edi, DWORD PTR [ebp-412]
  00ba7	b9 64 00 00 00	 mov	 ecx, 100		; 00000064H
  00bac	b8 cc cc cc cc	 mov	 eax, -858993460		; ccccccccH
  00bb1	f3 ab		 rep stosd
  00bb3	59		 pop	 ecx
  00bb4	89 4d f0	 mov	 DWORD PTR _this$[ebp], ecx

; 257  : 	CRect rc;

  00bb7	8d 4d dc	 lea	 ecx, DWORD PTR _rc$[ebp]
  00bba	e8 00 00 00 00	 call	 ??0CRect@@QAE@XZ	; CRect::CRect

; 258  : 	this->GetWindowRect(&rc);

  00bbf	8d 45 dc	 lea	 eax, DWORD PTR _rc$[ebp]
  00bc2	50		 push	 eax
  00bc3	8b 4d f0	 mov	 ecx, DWORD PTR _this$[ebp]
  00bc6	e8 00 00 00 00	 call	 ?GetWindowRect@CWnd@@QBEXPAUtagRECT@@@Z ; CWnd::GetWindowRect

; 259  : 	CWnd *pWnd = ::AfxGetUIManager()->UIGetLayoutMgr()->GetWnd("ControlPanel");

  00bcb	51		 push	 ecx
  00bcc	8b cc		 mov	 ecx, esp
  00bce	89 65 c0	 mov	 DWORD PTR $T190588[ebp], esp
  00bd1	8b f4		 mov	 esi, esp
  00bd3	68 00 00 00 00	 push	 OFFSET FLAT:$SG189332
  00bd8	ff 15 00 00 00
	00		 call	 DWORD PTR __imp_??0?$CStringT@DV?$StrTraitMFC_DLL@DV?$ChTraitsCRT@D@ATL@@@@@ATL@@QAE@PBD@Z
  00bde	3b f4		 cmp	 esi, esp
  00be0	e8 00 00 00 00	 call	 __RTC_CheckEsp
  00be5	89 85 18 ff ff
	ff		 mov	 DWORD PTR tv484[ebp], eax
  00beb	8b 8d 18 ff ff
	ff		 mov	 ecx, DWORD PTR tv484[ebp]
  00bf1	89 8d 14 ff ff
	ff		 mov	 DWORD PTR tv444[ebp], ecx
  00bf7	c7 45 fc 00 00
	00 00		 mov	 DWORD PTR __$EHRec$[ebp+8], 0
  00bfe	e8 00 00 00 00	 call	 ?AfxGetUIManager@@YAPAVIUIManager@@XZ ; AfxGetUIManager
  00c03	89 85 10 ff ff
	ff		 mov	 DWORD PTR tv69[ebp], eax
  00c09	8b f4		 mov	 esi, esp
  00c0b	8b 95 10 ff ff
	ff		 mov	 edx, DWORD PTR tv69[ebp]
  00c11	8b 02		 mov	 eax, DWORD PTR [edx]
  00c13	8b 8d 10 ff ff
	ff		 mov	 ecx, DWORD PTR tv69[ebp]
  00c19	ff 50 24	 call	 DWORD PTR [eax+36]
  00c1c	3b f4		 cmp	 esi, esp
  00c1e	e8 00 00 00 00	 call	 __RTC_CheckEsp
  00c23	89 85 0c ff ff
	ff		 mov	 DWORD PTR tv74[ebp], eax
  00c29	8b 8d 0c ff ff
	ff		 mov	 ecx, DWORD PTR tv74[ebp]
  00c2f	8b 11		 mov	 edx, DWORD PTR [ecx]
  00c31	c7 45 fc ff ff
	ff ff		 mov	 DWORD PTR __$EHRec$[ebp+8], -1
  00c38	8b 8d 0c ff ff
	ff		 mov	 ecx, DWORD PTR tv74[ebp]
  00c3e	ff 52 2c	 call	 DWORD PTR [edx+44]
  00c41	89 85 08 ff ff
	ff		 mov	 DWORD PTR tv445[ebp], eax
  00c47	8b 85 08 ff ff
	ff		 mov	 eax, DWORD PTR tv445[ebp]
  00c4d	89 45 d4	 mov	 DWORD PTR _pWnd$[ebp], eax

; 260  : 	bool bKeepMVSize = false;

  00c50	c6 45 d3 00	 mov	 BYTE PTR _bKeepMVSize$[ebp], 0

; 261  : 	CString strCur = ::AfxGetUIManager()->UIGetLayoutMgr()->GetCurrentLayer("MultiNowPlaying");

  00c54	51		 push	 ecx
  00c55	8b cc		 mov	 ecx, esp
  00c57	89 65 bc	 mov	 DWORD PTR $T190589[ebp], esp
  00c5a	8b f4		 mov	 esi, esp
  00c5c	68 00 00 00 00	 push	 OFFSET FLAT:$SG189337
  00c61	ff 15 00 00 00
	00		 call	 DWORD PTR __imp_??0?$CStringT@DV?$StrTraitMFC_DLL@DV?$ChTraitsCRT@D@ATL@@@@@ATL@@QAE@PBD@Z
  00c67	3b f4		 cmp	 esi, esp
  00c69	e8 00 00 00 00	 call	 __RTC_CheckEsp
  00c6e	89 85 04 ff ff
	ff		 mov	 DWORD PTR tv487[ebp], eax
  00c74	8b 8d 04 ff ff
	ff		 mov	 ecx, DWORD PTR tv487[ebp]
  00c7a	89 8d 00 ff ff
	ff		 mov	 DWORD PTR tv447[ebp], ecx
  00c80	c7 45 fc 01 00
	00 00		 mov	 DWORD PTR __$EHRec$[ebp+8], 1
  00c87	e8 00 00 00 00	 call	 ?AfxGetUIManager@@YAPAVIUIManager@@XZ ; AfxGetUIManager
  00c8c	89 85 fc fe ff
	ff		 mov	 DWORD PTR tv94[ebp], eax
  00c92	8b f4		 mov	 esi, esp
  00c94	8b 95 fc fe ff
	ff		 mov	 edx, DWORD PTR tv94[ebp]
  00c9a	8b 02		 mov	 eax, DWORD PTR [edx]
  00c9c	8b 8d fc fe ff
	ff		 mov	 ecx, DWORD PTR tv94[ebp]
  00ca2	ff 50 24	 call	 DWORD PTR [eax+36]
  00ca5	3b f4		 cmp	 esi, esp
  00ca7	e8 00 00 00 00	 call	 __RTC_CheckEsp
  00cac	89 85 f8 fe ff
	ff		 mov	 DWORD PTR tv131[ebp], eax
  00cb2	8d 4d c8	 lea	 ecx, DWORD PTR _strCur$[ebp]
  00cb5	51		 push	 ecx
  00cb6	8b 95 f8 fe ff
	ff		 mov	 edx, DWORD PTR tv131[ebp]
  00cbc	8b 02		 mov	 eax, DWORD PTR [edx]
  00cbe	c7 45 fc ff ff
	ff ff		 mov	 DWORD PTR __$EHRec$[ebp+8], -1
  00cc5	8b 8d f8 fe ff
	ff		 mov	 ecx, DWORD PTR tv131[ebp]
  00ccb	ff 50 28	 call	 DWORD PTR [eax+40]
  00cce	89 85 f4 fe ff
	ff		 mov	 DWORD PTR tv448[ebp], eax
  00cd4	c7 45 fc 02 00
	00 00		 mov	 DWORD PTR __$EHRec$[ebp+8], 2

; 262  : 	if(m_bShowMV)

  00cdb	8b 4d f0	 mov	 ecx, DWORD PTR _this$[ebp]
  00cde	0f b6 91 34 02
	00 00		 movzx	 edx, BYTE PTR [ecx+564]
  00ce5	85 d2		 test	 edx, edx
  00ce7	0f 84 1e 02 00
	00		 je	 $L189338

; 263  : 	{
; 264  : 		m_pControlWnd->GetWindowRect(&rc);

  00ced	8d 45 dc	 lea	 eax, DWORD PTR _rc$[ebp]
  00cf0	50		 push	 eax
  00cf1	8b 4d f0	 mov	 ecx, DWORD PTR _this$[ebp]
  00cf4	8b 89 48 02 00
	00		 mov	 ecx, DWORD PTR [ecx+584]
  00cfa	e8 00 00 00 00	 call	 ?GetWindowRect@CWnd@@QBEXPAUtagRECT@@@Z ; CWnd::GetWindowRect

; 265  : 		::AfxGetUIManager()->UIGetLayoutMgr()->SaveWndPanel("ControlPanel", "watchmode");

  00cff	51		 push	 ecx
  00d00	8b cc		 mov	 ecx, esp
  00d02	89 65 b8	 mov	 DWORD PTR $T190590[ebp], esp
  00d05	8b f4		 mov	 esi, esp
  00d07	68 00 00 00 00	 push	 OFFSET FLAT:$SG189341
  00d0c	ff 15 00 00 00
	00		 call	 DWORD PTR __imp_??0?$CStringT@DV?$StrTraitMFC_DLL@DV?$ChTraitsCRT@D@ATL@@@@@ATL@@QAE@PBD@Z
  00d12	3b f4		 cmp	 esi, esp
  00d14	e8 00 00 00 00	 call	 __RTC_CheckEsp
  00d19	89 85 f0 fe ff
	ff		 mov	 DWORD PTR tv492[ebp], eax
  00d1f	8b 95 f0 fe ff
	ff		 mov	 edx, DWORD PTR tv492[ebp]
  00d25	89 95 ec fe ff
	ff		 mov	 DWORD PTR tv451[ebp], edx
  00d2b	c6 45 fc 03	 mov	 BYTE PTR __$EHRec$[ebp+8], 3
  00d2f	51		 push	 ecx
  00d30	8b cc		 mov	 ecx, esp
  00d32	89 65 b4	 mov	 DWORD PTR $T190591[ebp], esp
  00d35	8b f4		 mov	 esi, esp
  00d37	68 00 00 00 00	 push	 OFFSET FLAT:$SG189342
  00d3c	ff 15 00 00 00
	00		 call	 DWORD PTR __imp_??0?$CStringT@DV?$StrTraitMFC_DLL@DV?$ChTraitsCRT@D@ATL@@@@@ATL@@QAE@PBD@Z
  00d42	3b f4		 cmp	 esi, esp
  00d44	e8 00 00 00 00	 call	 __RTC_CheckEsp
  00d49	89 85 e8 fe ff
	ff		 mov	 DWORD PTR tv495[ebp], eax
  00d4f	8b 85 e8 fe ff
	ff		 mov	 eax, DWORD PTR tv495[ebp]
  00d55	89 85 e4 fe ff
	ff		 mov	 DWORD PTR tv454[ebp], eax
  00d5b	c6 45 fc 04	 mov	 BYTE PTR __$EHRec$[ebp+8], 4
  00d5f	e8 00 00 00 00	 call	 ?AfxGetUIManager@@YAPAVIUIManager@@XZ ; AfxGetUIManager
  00d64	89 85 e0 fe ff
	ff		 mov	 DWORD PTR tv160[ebp], eax
  00d6a	8b f4		 mov	 esi, esp
  00d6c	8b 8d e0 fe ff
	ff		 mov	 ecx, DWORD PTR tv160[ebp]
  00d72	8b 11		 mov	 edx, DWORD PTR [ecx]
  00d74	8b 8d e0 fe ff
	ff		 mov	 ecx, DWORD PTR tv160[ebp]
  00d7a	ff 52 24	 call	 DWORD PTR [edx+36]
  00d7d	3b f4		 cmp	 esi, esp
  00d7f	e8 00 00 00 00	 call	 __RTC_CheckEsp
  00d84	89 85 dc fe ff
	ff		 mov	 DWORD PTR tv165[ebp], eax
  00d8a	8b 85 dc fe ff
	ff		 mov	 eax, DWORD PTR tv165[ebp]
  00d90	8b 10		 mov	 edx, DWORD PTR [eax]
  00d92	c6 45 fc 02	 mov	 BYTE PTR __$EHRec$[ebp+8], 2
  00d96	8b 8d dc fe ff
	ff		 mov	 ecx, DWORD PTR tv165[ebp]
  00d9c	ff 52 30	 call	 DWORD PTR [edx+48]

; 266  : 		CHostWndMgr::GetInstance()->ShowPopupWndsBeforeMainChange(false);

  00d9f	6a 00		 push	 0
  00da1	e8 00 00 00 00	 call	 ?GetInstance@CHostWndMgr@@SAPAV1@XZ ; CHostWndMgr::GetInstance
  00da6	8b c8		 mov	 ecx, eax
  00da8	e8 00 00 00 00	 call	 ?ShowPopupWndsBeforeMainChange@CHostWndMgr@@QAEXH@Z ; CHostWndMgr::ShowPopupWndsBeforeMainChange

; 267  : 		::AfxGetUIManager()->UIGetLayoutMgr()->CreateControlPane( pWnd,"ControlPanel", "normal");

  00dad	51		 push	 ecx
  00dae	8b cc		 mov	 ecx, esp
  00db0	89 65 b0	 mov	 DWORD PTR $T190592[ebp], esp
  00db3	8b f4		 mov	 esi, esp
  00db5	68 00 00 00 00	 push	 OFFSET FLAT:$SG189345
  00dba	ff 15 00 00 00
	00		 call	 DWORD PTR __imp_??0?$CStringT@DV?$StrTraitMFC_DLL@DV?$ChTraitsCRT@D@ATL@@@@@ATL@@QAE@PBD@Z
  00dc0	3b f4		 cmp	 esi, esp
  00dc2	e8 00 00 00 00	 call	 __RTC_CheckEsp
  00dc7	89 85 d8 fe ff
	ff		 mov	 DWORD PTR tv498[ebp], eax
  00dcd	8b 85 d8 fe ff
	ff		 mov	 eax, DWORD PTR tv498[ebp]
  00dd3	89 85 d4 fe ff
	ff		 mov	 DWORD PTR tv456[ebp], eax
  00dd9	c6 45 fc 05	 mov	 BYTE PTR __$EHRec$[ebp+8], 5
  00ddd	51		 push	 ecx
  00dde	8b cc		 mov	 ecx, esp
  00de0	89 65 ac	 mov	 DWORD PTR $T190593[ebp], esp
  00de3	8b f4		 mov	 esi, esp
  00de5	68 00 00 00 00	 push	 OFFSET FLAT:$SG189346
  00dea	ff 15 00 00 00
	00		 call	 DWORD PTR __imp_??0?$CStringT@DV?$StrTraitMFC_DLL@DV?$ChTraitsCRT@D@ATL@@@@@ATL@@QAE@PBD@Z
  00df0	3b f4		 cmp	 esi, esp
  00df2	e8 00 00 00 00	 call	 __RTC_CheckEsp
  00df7	89 85 d0 fe ff
	ff		 mov	 DWORD PTR tv501[ebp], eax
  00dfd	8b 8d d0 fe ff
	ff		 mov	 ecx, DWORD PTR tv501[ebp]
  00e03	89 8d cc fe ff
	ff		 mov	 DWORD PTR tv459[ebp], ecx
  00e09	c6 45 fc 06	 mov	 BYTE PTR __$EHRec$[ebp+8], 6
  00e0d	e8 00 00 00 00	 call	 ?AfxGetUIManager@@YAPAVIUIManager@@XZ ; AfxGetUIManager
  00e12	89 85 c8 fe ff
	ff		 mov	 DWORD PTR tv200[ebp], eax
  00e18	8b f4		 mov	 esi, esp
  00e1a	8b 95 c8 fe ff
	ff		 mov	 edx, DWORD PTR tv200[ebp]
  00e20	8b 02		 mov	 eax, DWORD PTR [edx]
  00e22	8b 8d c8 fe ff
	ff		 mov	 ecx, DWORD PTR tv200[ebp]
  00e28	ff 50 24	 call	 DWORD PTR [eax+36]
  00e2b	3b f4		 cmp	 esi, esp
  00e2d	e8 00 00 00 00	 call	 __RTC_CheckEsp
  00e32	89 85 c4 fe ff
	ff		 mov	 DWORD PTR tv205[ebp], eax
  00e38	8b 4d d4	 mov	 ecx, DWORD PTR _pWnd$[ebp]
  00e3b	51		 push	 ecx
  00e3c	8b 95 c4 fe ff
	ff		 mov	 edx, DWORD PTR tv205[ebp]
  00e42	8b 02		 mov	 eax, DWORD PTR [edx]
  00e44	c6 45 fc 02	 mov	 BYTE PTR __$EHRec$[ebp+8], 2
  00e48	8b 8d c4 fe ff
	ff		 mov	 ecx, DWORD PTR tv205[ebp]
  00e4e	ff 50 38	 call	 DWORD PTR [eax+56]

; 268  : 		::AfxGetUIManager()->UIGetLayoutMgr()->CreateBmpPane( pWnd,"ControlPanel","normal");

  00e51	51		 push	 ecx
  00e52	8b cc		 mov	 ecx, esp
  00e54	89 65 a8	 mov	 DWORD PTR $T190594[ebp], esp
  00e57	8b f4		 mov	 esi, esp
  00e59	68 00 00 00 00	 push	 OFFSET FLAT:$SG189349
  00e5e	ff 15 00 00 00
	00		 call	 DWORD PTR __imp_??0?$CStringT@DV?$StrTraitMFC_DLL@DV?$ChTraitsCRT@D@ATL@@@@@ATL@@QAE@PBD@Z
  00e64	3b f4		 cmp	 esi, esp
  00e66	e8 00 00 00 00	 call	 __RTC_CheckEsp
  00e6b	89 85 c0 fe ff
	ff		 mov	 DWORD PTR tv504[ebp], eax
  00e71	8b 8d c0 fe ff
	ff		 mov	 ecx, DWORD PTR tv504[ebp]
  00e77	89 8d bc fe ff
	ff		 mov	 DWORD PTR tv461[ebp], ecx
  00e7d	c6 45 fc 07	 mov	 BYTE PTR __$EHRec$[ebp+8], 7
  00e81	51		 push	 ecx
  00e82	8b cc		 mov	 ecx, esp
  00e84	89 65 a4	 mov	 DWORD PTR $T190595[ebp], esp
  00e87	8b f4		 mov	 esi, esp
  00e89	68 00 00 00 00	 push	 OFFSET FLAT:$SG189350
  00e8e	ff 15 00 00 00
	00		 call	 DWORD PTR __imp_??0?$CStringT@DV?$StrTraitMFC_DLL@DV?$ChTraitsCRT@D@ATL@@@@@ATL@@QAE@PBD@Z
  00e94	3b f4		 cmp	 esi, esp
  00e96	e8 00 00 00 00	 call	 __RTC_CheckEsp
  00e9b	89 85 b8 fe ff
	ff		 mov	 DWORD PTR tv507[ebp], eax
  00ea1	8b 95 b8 fe ff
	ff		 mov	 edx, DWORD PTR tv507[ebp]
  00ea7	89 95 b4 fe ff
	ff		 mov	 DWORD PTR tv464[ebp], edx
  00ead	c6 45 fc 08	 mov	 BYTE PTR __$EHRec$[ebp+8], 8
  00eb1	e8 00 00 00 00	 call	 ?AfxGetUIManager@@YAPAVIUIManager@@XZ ; AfxGetUIManager
  00eb6	89 85 b0 fe ff
	ff		 mov	 DWORD PTR tv238[ebp], eax
  00ebc	8b f4		 mov	 esi, esp
  00ebe	8b 85 b0 fe ff
	ff		 mov	 eax, DWORD PTR tv238[ebp]
  00ec4	8b 10		 mov	 edx, DWORD PTR [eax]
  00ec6	8b 8d b0 fe ff
	ff		 mov	 ecx, DWORD PTR tv238[ebp]
  00ecc	ff 52 24	 call	 DWORD PTR [edx+36]
  00ecf	3b f4		 cmp	 esi, esp
  00ed1	e8 00 00 00 00	 call	 __RTC_CheckEsp
  00ed6	89 85 ac fe ff
	ff		 mov	 DWORD PTR tv243[ebp], eax
  00edc	8b 45 d4	 mov	 eax, DWORD PTR _pWnd$[ebp]
  00edf	50		 push	 eax
  00ee0	8b 8d ac fe ff
	ff		 mov	 ecx, DWORD PTR tv243[ebp]
  00ee6	8b 11		 mov	 edx, DWORD PTR [ecx]
  00ee8	c6 45 fc 02	 mov	 BYTE PTR __$EHRec$[ebp+8], 2
  00eec	8b 8d ac fe ff
	ff		 mov	 ecx, DWORD PTR tv243[ebp]
  00ef2	ff 52 58	 call	 DWORD PTR [edx+88]

; 269  : 		//mvmv
; 270  : 		m_nControlWndHeight = rc.Height();

  00ef5	8d 4d dc	 lea	 ecx, DWORD PTR _rc$[ebp]
  00ef8	e8 00 00 00 00	 call	 ?Height@CRect@@QBEHXZ	; CRect::Height
  00efd	8b 4d f0	 mov	 ecx, DWORD PTR _this$[ebp]
  00f00	89 81 38 02 00
	00		 mov	 DWORD PTR [ecx+568], eax

; 271  : 	}
; 272  : 	else

  00f06	e9 81 01 00 00	 jmp	 $L189351
$L189338:

; 273  : 	{
; 274  : 		CHostWndMgr::GetInstance()->ShowPopupWndsBeforeMainChange(true);

  00f0b	6a 01		 push	 1
  00f0d	e8 00 00 00 00	 call	 ?GetInstance@CHostWndMgr@@SAPAV1@XZ ; CHostWndMgr::GetInstance
  00f12	8b c8		 mov	 ecx, eax
  00f14	e8 00 00 00 00	 call	 ?ShowPopupWndsBeforeMainChange@CHostWndMgr@@QAEXH@Z ; CHostWndMgr::ShowPopupWndsBeforeMainChange

; 275  : 		::AfxGetUIManager()->UIGetLayoutMgr()->CreateControlPane( pWnd,"ControlPanel", "watchmode");

  00f19	51		 push	 ecx
  00f1a	8b cc		 mov	 ecx, esp
  00f1c	89 65 a0	 mov	 DWORD PTR $T190596[ebp], esp
  00f1f	8b f4		 mov	 esi, esp
  00f21	68 00 00 00 00	 push	 OFFSET FLAT:$SG189354
  00f26	ff 15 00 00 00
	00		 call	 DWORD PTR __imp_??0?$CStringT@DV?$StrTraitMFC_DLL@DV?$ChTraitsCRT@D@ATL@@@@@ATL@@QAE@PBD@Z
  00f2c	3b f4		 cmp	 esi, esp
  00f2e	e8 00 00 00 00	 call	 __RTC_CheckEsp
  00f33	89 85 a8 fe ff
	ff		 mov	 DWORD PTR tv510[ebp], eax
  00f39	8b 95 a8 fe ff
	ff		 mov	 edx, DWORD PTR tv510[ebp]
  00f3f	89 95 a4 fe ff
	ff		 mov	 DWORD PTR tv466[ebp], edx
  00f45	c6 45 fc 09	 mov	 BYTE PTR __$EHRec$[ebp+8], 9
  00f49	51		 push	 ecx
  00f4a	8b cc		 mov	 ecx, esp
  00f4c	89 65 9c	 mov	 DWORD PTR $T190597[ebp], esp
  00f4f	8b f4		 mov	 esi, esp
  00f51	68 00 00 00 00	 push	 OFFSET FLAT:$SG189355
  00f56	ff 15 00 00 00
	00		 call	 DWORD PTR __imp_??0?$CStringT@DV?$StrTraitMFC_DLL@DV?$ChTraitsCRT@D@ATL@@@@@ATL@@QAE@PBD@Z
  00f5c	3b f4		 cmp	 esi, esp
  00f5e	e8 00 00 00 00	 call	 __RTC_CheckEsp
  00f63	89 85 a0 fe ff
	ff		 mov	 DWORD PTR tv513[ebp], eax
  00f69	8b 85 a0 fe ff
	ff		 mov	 eax, DWORD PTR tv513[ebp]
  00f6f	89 85 9c fe ff
	ff		 mov	 DWORD PTR tv469[ebp], eax
  00f75	c6 45 fc 0a	 mov	 BYTE PTR __$EHRec$[ebp+8], 10 ; 0000000aH
  00f79	e8 00 00 00 00	 call	 ?AfxGetUIManager@@YAPAVIUIManager@@XZ ; AfxGetUIManager
  00f7e	89 85 98 fe ff
	ff		 mov	 DWORD PTR tv282[ebp], eax
  00f84	8b f4		 mov	 esi, esp
  00f86	8b 8d 98 fe ff
	ff		 mov	 ecx, DWORD PTR tv282[ebp]
  00f8c	8b 11		 mov	 edx, DWORD PTR [ecx]
  00f8e	8b 8d 98 fe ff
	ff		 mov	 ecx, DWORD PTR tv282[ebp]
  00f94	ff 52 24	 call	 DWORD PTR [edx+36]
  00f97	3b f4		 cmp	 esi, esp
  00f99	e8 00 00 00 00	 call	 __RTC_CheckEsp
  00f9e	89 85 94 fe ff
	ff		 mov	 DWORD PTR tv287[ebp], eax
  00fa4	8b 45 d4	 mov	 eax, DWORD PTR _pWnd$[ebp]
  00fa7	50		 push	 eax
  00fa8	8b 8d 94 fe ff
	ff		 mov	 ecx, DWORD PTR tv287[ebp]
  00fae	8b 11		 mov	 edx, DWORD PTR [ecx]
  00fb0	c6 45 fc 02	 mov	 BYTE PTR __$EHRec$[ebp+8], 2
  00fb4	8b 8d 94 fe ff
	ff		 mov	 ecx, DWORD PTR tv287[ebp]
  00fba	ff 52 38	 call	 DWORD PTR [edx+56]

; 276  : 		::AfxGetUIManager()->UIGetLayoutMgr()->CreateBmpPane( pWnd,"ControlPanel","watchmode");

  00fbd	51		 push	 ecx
  00fbe	8b cc		 mov	 ecx, esp
  00fc0	89 65 98	 mov	 DWORD PTR $T190598[ebp], esp
  00fc3	8b f4		 mov	 esi, esp
  00fc5	68 00 00 00 00	 push	 OFFSET FLAT:$SG189358
  00fca	ff 15 00 00 00
	00		 call	 DWORD PTR __imp_??0?$CStringT@DV?$StrTraitMFC_DLL@DV?$ChTraitsCRT@D@ATL@@@@@ATL@@QAE@PBD@Z
  00fd0	3b f4		 cmp	 esi, esp
  00fd2	e8 00 00 00 00	 call	 __RTC_CheckEsp
  00fd7	89 85 90 fe ff
	ff		 mov	 DWORD PTR tv516[ebp], eax
  00fdd	8b 85 90 fe ff
	ff		 mov	 eax, DWORD PTR tv516[ebp]
  00fe3	89 85 8c fe ff
	ff		 mov	 DWORD PTR tv471[ebp], eax
  00fe9	c6 45 fc 0b	 mov	 BYTE PTR __$EHRec$[ebp+8], 11 ; 0000000bH
  00fed	51		 push	 ecx
  00fee	8b cc		 mov	 ecx, esp
  00ff0	89 65 94	 mov	 DWORD PTR $T190599[ebp], esp
  00ff3	8b f4		 mov	 esi, esp
  00ff5	68 00 00 00 00	 push	 OFFSET FLAT:$SG189359
  00ffa	ff 15 00 00 00
	00		 call	 DWORD PTR __imp_??0?$CStringT@DV?$StrTraitMFC_DLL@DV?$ChTraitsCRT@D@ATL@@@@@ATL@@QAE@PBD@Z
  01000	3b f4		 cmp	 esi, esp
  01002	e8 00 00 00 00	 call	 __RTC_CheckEsp
  01007	89 85 88 fe ff
	ff		 mov	 DWORD PTR tv519[ebp], eax
  0100d	8b 8d 88 fe ff
	ff		 mov	 ecx, DWORD PTR tv519[ebp]
  01013	89 8d 84 fe ff
	ff		 mov	 DWORD PTR tv474[ebp], ecx
  01019	c6 45 fc 0c	 mov	 BYTE PTR __$EHRec$[ebp+8], 12 ; 0000000cH
  0101d	e8 00 00 00 00	 call	 ?AfxGetUIManager@@YAPAVIUIManager@@XZ ; AfxGetUIManager
  01022	89 85 80 fe ff
	ff		 mov	 DWORD PTR tv320[ebp], eax
  01028	8b f4		 mov	 esi, esp
  0102a	8b 95 80 fe ff
	ff		 mov	 edx, DWORD PTR tv320[ebp]
  01030	8b 02		 mov	 eax, DWORD PTR [edx]
  01032	8b 8d 80 fe ff
	ff		 mov	 ecx, DWORD PTR tv320[ebp]
  01038	ff 50 24	 call	 DWORD PTR [eax+36]
  0103b	3b f4		 cmp	 esi, esp
  0103d	e8 00 00 00 00	 call	 __RTC_CheckEsp
  01042	89 85 7c fe ff
	ff		 mov	 DWORD PTR tv325[ebp], eax
  01048	8b 4d d4	 mov	 ecx, DWORD PTR _pWnd$[ebp]
  0104b	51		 push	 ecx
  0104c	8b 95 7c fe ff
	ff		 mov	 edx, DWORD PTR tv325[ebp]
  01052	8b 02		 mov	 eax, DWORD PTR [edx]
  01054	c6 45 fc 02	 mov	 BYTE PTR __$EHRec$[ebp+8], 2
  01058	8b 8d 7c fe ff
	ff		 mov	 ecx, DWORD PTR tv325[ebp]
  0105e	ff 50 58	 call	 DWORD PTR [eax+88]

; 277  : 
; 278  : 		//mvmv
; 279  : 		if(m_nControlWndHeight != 0)

  01061	8b 4d f0	 mov	 ecx, DWORD PTR _this$[ebp]
  01064	83 b9 38 02 00
	00 00		 cmp	 DWORD PTR [ecx+568], 0
  0106b	74 1f		 je	 SHORT $L189351

; 280  : 		{
; 281  : 			MoveMvSize(m_nControlWndHeight, rc.Width());

  0106d	8d 4d dc	 lea	 ecx, DWORD PTR _rc$[ebp]
  01070	e8 00 00 00 00	 call	 ?Width@CRect@@QBEHXZ	; CRect::Width
  01075	50		 push	 eax
  01076	8b 55 f0	 mov	 edx, DWORD PTR _this$[ebp]
  01079	8b 82 38 02 00
	00		 mov	 eax, DWORD PTR [edx+568]
  0107f	50		 push	 eax
  01080	8b 4d f0	 mov	 ecx, DWORD PTR _this$[ebp]
  01083	e8 00 00 00 00	 call	 ?MoveMvSize@CMainHostWnd@@QAEXHH@Z ; CMainHostWnd::MoveMvSize

; 282  : 			bKeepMVSize = true;

  01088	c6 45 d3 01	 mov	 BYTE PTR _bKeepMVSize$[ebp], 1
$L189351:

; 283  : 		}
; 284  : 	}
; 285  : 	//
; 286  : 	::AfxGetUIManager()->UIGetLayoutMgr()->ShowLayer("MultiNowPlaying", strCur);

  0108c	51		 push	 ecx
  0108d	8b cc		 mov	 ecx, esp
  0108f	89 65 90	 mov	 DWORD PTR $T190600[ebp], esp
  01092	8b f4		 mov	 esi, esp
  01094	8d 55 c8	 lea	 edx, DWORD PTR _strCur$[ebp]
  01097	52		 push	 edx
  01098	ff 15 00 00 00
	00		 call	 DWORD PTR __imp_??0?$CStringT@DV?$StrTraitMFC_DLL@DV?$ChTraitsCRT@D@ATL@@@@@ATL@@QAE@ABV01@@Z
  0109e	3b f4		 cmp	 esi, esp
  010a0	e8 00 00 00 00	 call	 __RTC_CheckEsp
  010a5	89 85 78 fe ff
	ff		 mov	 DWORD PTR tv522[ebp], eax
  010ab	8b 85 78 fe ff
	ff		 mov	 eax, DWORD PTR tv522[ebp]
  010b1	89 85 74 fe ff
	ff		 mov	 DWORD PTR tv476[ebp], eax
  010b7	c6 45 fc 0d	 mov	 BYTE PTR __$EHRec$[ebp+8], 13 ; 0000000dH
  010bb	51		 push	 ecx
  010bc	8b cc		 mov	 ecx, esp
  010be	89 65 8c	 mov	 DWORD PTR $T190601[ebp], esp
  010c1	8b f4		 mov	 esi, esp
  010c3	68 00 00 00 00	 push	 OFFSET FLAT:$SG189363
  010c8	ff 15 00 00 00
	00		 call	 DWORD PTR __imp_??0?$CStringT@DV?$StrTraitMFC_DLL@DV?$ChTraitsCRT@D@ATL@@@@@ATL@@QAE@PBD@Z
  010ce	3b f4		 cmp	 esi, esp
  010d0	e8 00 00 00 00	 call	 __RTC_CheckEsp
  010d5	89 85 70 fe ff
	ff		 mov	 DWORD PTR tv525[ebp], eax
  010db	8b 8d 70 fe ff
	ff		 mov	 ecx, DWORD PTR tv525[ebp]
  010e1	89 8d 6c fe ff
	ff		 mov	 DWORD PTR tv479[ebp], ecx
  010e7	c6 45 fc 0e	 mov	 BYTE PTR __$EHRec$[ebp+8], 14 ; 0000000eH
  010eb	e8 00 00 00 00	 call	 ?AfxGetUIManager@@YAPAVIUIManager@@XZ ; AfxGetUIManager
  010f0	89 85 68 fe ff
	ff		 mov	 DWORD PTR tv366[ebp], eax
  010f6	8b f4		 mov	 esi, esp
  010f8	8b 95 68 fe ff
	ff		 mov	 edx, DWORD PTR tv366[ebp]
  010fe	8b 02		 mov	 eax, DWORD PTR [edx]
  01100	8b 8d 68 fe ff
	ff		 mov	 ecx, DWORD PTR tv366[ebp]
  01106	ff 50 24	 call	 DWORD PTR [eax+36]
  01109	3b f4		 cmp	 esi, esp
  0110b	e8 00 00 00 00	 call	 __RTC_CheckEsp
  01110	89 85 64 fe ff
	ff		 mov	 DWORD PTR tv371[ebp], eax
  01116	8b 8d 64 fe ff
	ff		 mov	 ecx, DWORD PTR tv371[ebp]
  0111c	8b 11		 mov	 edx, DWORD PTR [ecx]
  0111e	c6 45 fc 02	 mov	 BYTE PTR __$EHRec$[ebp+8], 2
  01122	8b 8d 64 fe ff
	ff		 mov	 ecx, DWORD PTR tv371[ebp]
  01128	ff 52 24	 call	 DWORD PTR [edx+36]

; 287  : 
; 288  : 	m_bShowMV = !m_bShowMV;

  0112b	8b 45 f0	 mov	 eax, DWORD PTR _this$[ebp]
  0112e	0f b6 88 34 02
	00 00		 movzx	 ecx, BYTE PTR [eax+564]
  01135	f7 d9		 neg	 ecx
  01137	1b c9		 sbb	 ecx, ecx
  01139	41		 inc	 ecx
  0113a	8b 55 f0	 mov	 edx, DWORD PTR _this$[ebp]
  0113d	88 8a 34 02 00
	00		 mov	 BYTE PTR [edx+564], cl

; 289  : 	SetMinSize();

  01143	8b 4d f0	 mov	 ecx, DWORD PTR _this$[ebp]
  01146	e8 00 00 00 00	 call	 ?SetMinSize@CMainHostWnd@@QAEXXZ ; CMainHostWnd::SetMinSize

; 290  : 
; 291  : 	if(!bKeepMVSize)

  0114b	0f b6 45 d3	 movzx	 eax, BYTE PTR _bKeepMVSize$[ebp]
  0114f	85 c0		 test	 eax, eax
  01151	75 08		 jne	 SHORT $L189364

; 292  : 		MoveContent();

  01153	8b 4d f0	 mov	 ecx, DWORD PTR _this$[ebp]
  01156	e8 00 00 00 00	 call	 ?MoveContent@CMainHostWnd@@AAEXXZ ; CMainHostWnd::MoveContent
$L189364:

; 293  : 
; 294  : 	if(m_bShowMV)

  0115b	8b 4d f0	 mov	 ecx, DWORD PTR _this$[ebp]
  0115e	0f b6 91 34 02
	00 00		 movzx	 edx, BYTE PTR [ecx+564]
  01165	85 d2		 test	 edx, edx
  01167	0f 84 93 00 00
	00		 je	 $L189365

; 295  : 		LogUserActMsg(STR_USER_CLICK, "BTN:SHOW_MV");

  0116d	8b f4		 mov	 esi, esp
  0116f	68 00 00 00 00	 push	 OFFSET FLAT:$SG189368
  01174	8d 8d 70 ff ff
	ff		 lea	 ecx, DWORD PTR $T190602[ebp]
  0117a	ff 15 00 00 00
	00		 call	 DWORD PTR __imp_??0?$basic_string@DU?$char_traits@D@std@@V?$allocator@D@2@@std@@QAE@PBD@Z
  01180	3b f4		 cmp	 esi, esp
  01182	e8 00 00 00 00	 call	 __RTC_CheckEsp
  01187	c6 45 fc 0f	 mov	 BYTE PTR __$EHRec$[ebp+8], 15 ; 0000000fH
  0118b	8b f4		 mov	 esi, esp
  0118d	68 00 00 00 00	 push	 OFFSET FLAT:$SG189369
  01192	8d 8d 54 ff ff
	ff		 lea	 ecx, DWORD PTR $T190603[ebp]
  01198	ff 15 00 00 00
	00		 call	 DWORD PTR __imp_??0?$basic_string@DU?$char_traits@D@std@@V?$allocator@D@2@@std@@QAE@PBD@Z
  0119e	3b f4		 cmp	 esi, esp
  011a0	e8 00 00 00 00	 call	 __RTC_CheckEsp
  011a5	c6 45 fc 10	 mov	 BYTE PTR __$EHRec$[ebp+8], 16 ; 00000010H
  011a9	8b f4		 mov	 esi, esp
  011ab	8d 85 70 ff ff
	ff		 lea	 eax, DWORD PTR $T190602[ebp]
  011b1	50		 push	 eax
  011b2	8d 8d 54 ff ff
	ff		 lea	 ecx, DWORD PTR $T190603[ebp]
  011b8	51		 push	 ecx
  011b9	ff 15 00 00 00
	00		 call	 DWORD PTR __imp_?LogUserActMsg@@YAXABV?$basic_string@DU?$char_traits@D@std@@V?$allocator@D@2@@std@@0@Z
  011bf	83 c4 08	 add	 esp, 8
  011c2	3b f4		 cmp	 esi, esp
  011c4	e8 00 00 00 00	 call	 __RTC_CheckEsp
  011c9	c6 45 fc 0f	 mov	 BYTE PTR __$EHRec$[ebp+8], 15 ; 0000000fH
  011cd	8b f4		 mov	 esi, esp
  011cf	8d 8d 54 ff ff
	ff		 lea	 ecx, DWORD PTR $T190603[ebp]
  011d5	ff 15 00 00 00
	00		 call	 DWORD PTR __imp_??1?$basic_string@DU?$char_traits@D@std@@V?$allocator@D@2@@std@@QAE@XZ
  011db	3b f4		 cmp	 esi, esp
  011dd	e8 00 00 00 00	 call	 __RTC_CheckEsp
  011e2	c6 45 fc 02	 mov	 BYTE PTR __$EHRec$[ebp+8], 2
  011e6	8b f4		 mov	 esi, esp
  011e8	8d 8d 70 ff ff
	ff		 lea	 ecx, DWORD PTR $T190602[ebp]
  011ee	ff 15 00 00 00
	00		 call	 DWORD PTR __imp_??1?$basic_string@DU?$char_traits@D@std@@V?$allocator@D@2@@std@@QAE@XZ
  011f4	3b f4		 cmp	 esi, esp
  011f6	e8 00 00 00 00	 call	 __RTC_CheckEsp

; 296  : 	else

  011fb	e9 8e 00 00 00	 jmp	 $L189370
$L189365:

; 297  : 		LogUserActMsg(STR_USER_CLICK, "BTN:HIDE_MV");

  01200	8b f4		 mov	 esi, esp
  01202	68 00 00 00 00	 push	 OFFSET FLAT:$SG189373
  01207	8d 8d 38 ff ff
	ff		 lea	 ecx, DWORD PTR $T190604[ebp]
  0120d	ff 15 00 00 00
	00		 call	 DWORD PTR __imp_??0?$basic_string@DU?$char_traits@D@std@@V?$allocator@D@2@@std@@QAE@PBD@Z
  01213	3b f4		 cmp	 esi, esp
  01215	e8 00 00 00 00	 call	 __RTC_CheckEsp
  0121a	c6 45 fc 11	 mov	 BYTE PTR __$EHRec$[ebp+8], 17 ; 00000011H
  0121e	8b f4		 mov	 esi, esp
  01220	68 00 00 00 00	 push	 OFFSET FLAT:$SG189374
  01225	8d 8d 1c ff ff
	ff		 lea	 ecx, DWORD PTR $T190605[ebp]
  0122b	ff 15 00 00 00
	00		 call	 DWORD PTR __imp_??0?$basic_string@DU?$char_traits@D@std@@V?$allocator@D@2@@std@@QAE@PBD@Z
  01231	3b f4		 cmp	 esi, esp
  01233	e8 00 00 00 00	 call	 __RTC_CheckEsp
  01238	c6 45 fc 12	 mov	 BYTE PTR __$EHRec$[ebp+8], 18 ; 00000012H
  0123c	8b f4		 mov	 esi, esp
  0123e	8d 95 38 ff ff
	ff		 lea	 edx, DWORD PTR $T190604[ebp]
  01244	52		 push	 edx
  01245	8d 85 1c ff ff
	ff		 lea	 eax, DWORD PTR $T190605[ebp]
  0124b	50		 push	 eax
  0124c	ff 15 00 00 00
	00		 call	 DWORD PTR __imp_?LogUserActMsg@@YAXABV?$basic_string@DU?$char_traits@D@std@@V?$allocator@D@2@@std@@0@Z
  01252	83 c4 08	 add	 esp, 8
  01255	3b f4		 cmp	 esi, esp
  01257	e8 00 00 00 00	 call	 __RTC_CheckEsp
  0125c	c6 45 fc 11	 mov	 BYTE PTR __$EHRec$[ebp+8], 17 ; 00000011H
  01260	8b f4		 mov	 esi, esp
  01262	8d 8d 1c ff ff
	ff		 lea	 ecx, DWORD PTR $T190605[ebp]
  01268	ff 15 00 00 00
	00		 call	 DWORD PTR __imp_??1?$basic_string@DU?$char_traits@D@std@@V?$allocator@D@2@@std@@QAE@XZ
  0126e	3b f4		 cmp	 esi, esp
  01270	e8 00 00 00 00	 call	 __RTC_CheckEsp
  01275	c6 45 fc 02	 mov	 BYTE PTR __$EHRec$[ebp+8], 2
  01279	8b f4		 mov	 esi, esp
  0127b	8d 8d 38 ff ff
	ff		 lea	 ecx, DWORD PTR $T190604[ebp]
  01281	ff 15 00 00 00
	00		 call	 DWORD PTR __imp_??1?$basic_string@DU?$char_traits@D@std@@V?$allocator@D@2@@std@@QAE@XZ
  01287	3b f4		 cmp	 esi, esp
  01289	e8 00 00 00 00	 call	 __RTC_CheckEsp
$L189370:

; 298  : 
; 299  : 	if(m_bShowMV)

  0128e	8b 4d f0	 mov	 ecx, DWORD PTR _this$[ebp]
  01291	0f b6 91 34 02
	00 00		 movzx	 edx, BYTE PTR [ecx+564]
  01298	85 d2		 test	 edx, edx
  0129a	74 10		 je	 SHORT $L189375

; 300  : 	{
; 301  : 		CHostWndMgr::GetInstance()->ShowPopupWndsAfterMainChange(true);

  0129c	6a 01		 push	 1
  0129e	e8 00 00 00 00	 call	 ?GetInstance@CHostWndMgr@@SAPAV1@XZ ; CHostWndMgr::GetInstance
  012a3	8b c8		 mov	 ecx, eax
  012a5	e8 00 00 00 00	 call	 ?ShowPopupWndsAfterMainChange@CHostWndMgr@@QAEXH@Z ; CHostWndMgr::ShowPopupWndsAfterMainChange

; 302  : 	}
; 303  : 	else

  012aa	eb 0e		 jmp	 SHORT $L189376
$L189375:

; 304  : 	{
; 305  : 		CHostWndMgr::GetInstance()->ShowPopupWndsAfterMainChange(false);

  012ac	6a 00		 push	 0
  012ae	e8 00 00 00 00	 call	 ?GetInstance@CHostWndMgr@@SAPAV1@XZ ; CHostWndMgr::GetInstance
  012b3	8b c8		 mov	 ecx, eax
  012b5	e8 00 00 00 00	 call	 ?ShowPopupWndsAfterMainChange@CHostWndMgr@@QAEXH@Z ; CHostWndMgr::ShowPopupWndsAfterMainChange
$L189376:

; 306  : 	}
; 307  : //	RedrawWindow(NULL, NULL, RDW_INVALIDATE | RDW_UPDATENOW | RDW_ERASE | RDW_ALLCHILDREN);
; 308  : 
; 309  : }

  012ba	c7 45 fc ff ff
	ff ff		 mov	 DWORD PTR __$EHRec$[ebp+8], -1
  012c1	8b f4		 mov	 esi, esp
  012c3	8d 4d c8	 lea	 ecx, DWORD PTR _strCur$[ebp]
  012c6	ff 15 00 00 00
	00		 call	 DWORD PTR __imp_??1?$CStringT@DV?$StrTraitMFC_DLL@DV?$ChTraitsCRT@D@ATL@@@@@ATL@@QAE@XZ
  012cc	3b f4		 cmp	 esi, esp
  012ce	e8 00 00 00 00	 call	 __RTC_CheckEsp
  012d3	52		 push	 edx
  012d4	8b cd		 mov	 ecx, ebp
  012d6	50		 push	 eax
  012d7	8d 15 00 00 00
	00		 lea	 edx, DWORD PTR $L190631
  012dd	e8 00 00 00 00	 call	 @_RTC_CheckStackVars@8
  012e2	58		 pop	 eax
  012e3	5a		 pop	 edx
  012e4	8b 4d f4	 mov	 ecx, DWORD PTR __$EHRec$[ebp]
  012e7	64 89 0d 00 00
	00 00		 mov	 DWORD PTR fs:__except_list, ecx
  012ee	5f		 pop	 edi
  012ef	5e		 pop	 esi
  012f0	81 c4 9c 01 00
	00		 add	 esp, 412		; 0000019cH
  012f6	3b ec		 cmp	 ebp, esp
  012f8	e8 00 00 00 00	 call	 __RTC_CheckEsp
  012fd	8b e5		 mov	 esp, ebp
  012ff	5d		 pop	 ebp
  01300	c3		 ret	 0
$L190631:
  01301	02 00 00 00	 DD	 2
  01305	00 00 00 00	 DD	 $L190630
$L190630:
  01309	dc ff ff ff	 DD	 -36			; ffffffdcH
  0130d	10 00 00 00	 DD	 16			; 00000010H
  01311	00 00 00 00	 DD	 $L190627
  01315	c8 ff ff ff	 DD	 -56			; ffffffc8H
  01319	04 00 00 00	 DD	 4
  0131d	00 00 00 00	 DD	 $L190628
$L190628:
  01321	73		 DB	 115			; 00000073H
  01322	74		 DB	 116			; 00000074H
  01323	72		 DB	 114			; 00000072H
  01324	43		 DB	 67			; 00000043H
  01325	75		 DB	 117			; 00000075H
  01326	72		 DB	 114			; 00000072H
  01327	00		 DB	 0
$L190627:
  01328	72		 DB	 114			; 00000072H
  01329	63		 DB	 99			; 00000063H
  0132a	00		 DB	 0
_TEXT	ENDS
text$x	SEGMENT
$L190606:
  00036	8b f4		 mov	 esi, esp
  00038	8b 4d c0	 mov	 ecx, DWORD PTR $T190588[ebp]
  0003b	ff 15 00 00 00
	00		 call	 DWORD PTR __imp_??1?$CStringT@DV?$StrTraitMFC_DLL@DV?$ChTraitsCRT@D@ATL@@@@@ATL@@QAE@XZ
  00041	3b f4		 cmp	 esi, esp
  00043	e9 00 00 00 00	 jmp	 __RTC_CheckEsp
$L190607:
  00048	8b f4		 mov	 esi, esp
  0004a	8b 4d bc	 mov	 ecx, DWORD PTR $T190589[ebp]
  0004d	ff 15 00 00 00
	00		 call	 DWORD PTR __imp_??1?$CStringT@DV?$StrTraitMFC_DLL@DV?$ChTraitsCRT@D@ATL@@@@@ATL@@QAE@XZ
  00053	3b f4		 cmp	 esi, esp
  00055	e9 00 00 00 00	 jmp	 __RTC_CheckEsp
$L190608:
  0005a	8b f4		 mov	 esi, esp
  0005c	8d 4d c8	 lea	 ecx, DWORD PTR _strCur$[ebp]
  0005f	ff 15 00 00 00
	00		 call	 DWORD PTR __imp_??1?$CStringT@DV?$StrTraitMFC_DLL@DV?$ChTraitsCRT@D@ATL@@@@@ATL@@QAE@XZ
  00065	3b f4		 cmp	 esi, esp
  00067	e9 00 00 00 00	 jmp	 __RTC_CheckEsp
$L190609:
  0006c	8b f4		 mov	 esi, esp
  0006e	8b 4d b8	 mov	 ecx, DWORD PTR $T190590[ebp]
  00071	ff 15 00 00 00
	00		 call	 DWORD PTR __imp_??1?$CStringT@DV?$StrTraitMFC_DLL@DV?$ChTraitsCRT@D@ATL@@@@@ATL@@QAE@XZ
  00077	3b f4		 cmp	 esi, esp
  00079	e9 00 00 00 00	 jmp	 __RTC_CheckEsp
$L190610:
  0007e	8b f4		 mov	 esi, esp
  00080	8b 4d b4	 mov	 ecx, DWORD PTR $T190591[ebp]
  00083	ff 15 00 00 00
	00		 call	 DWORD PTR __imp_??1?$CStringT@DV?$StrTraitMFC_DLL@DV?$ChTraitsCRT@D@ATL@@@@@ATL@@QAE@XZ
  00089	3b f4		 cmp	 esi, esp
  0008b	e9 00 00 00 00	 jmp	 __RTC_CheckEsp
$L190611:
  00090	8b f4		 mov	 esi, esp
  00092	8b 4d b0	 mov	 ecx, DWORD PTR $T190592[ebp]
  00095	ff 15 00 00 00
	00		 call	 DWORD PTR __imp_??1?$CStringT@DV?$StrTraitMFC_DLL@DV?$ChTraitsCRT@D@ATL@@@@@ATL@@QAE@XZ
  0009b	3b f4		 cmp	 esi, esp
  0009d	e9 00 00 00 00	 jmp	 __RTC_CheckEsp
$L190612:
  000a2	8b f4		 mov	 esi, esp
  000a4	8b 4d ac	 mov	 ecx, DWORD PTR $T190593[ebp]
  000a7	ff 15 00 00 00
	00		 call	 DWORD PTR __imp_??1?$CStringT@DV?$StrTraitMFC_DLL@DV?$ChTraitsCRT@D@ATL@@@@@ATL@@QAE@XZ
  000ad	3b f4		 cmp	 esi, esp
  000af	e9 00 00 00 00	 jmp	 __RTC_CheckEsp
$L190613:
  000b4	8b f4		 mov	 esi, esp
  000b6	8b 4d a8	 mov	 ecx, DWORD PTR $T190594[ebp]
  000b9	ff 15 00 00 00
	00		 call	 DWORD PTR __imp_??1?$CStringT@DV?$StrTraitMFC_DLL@DV?$ChTraitsCRT@D@ATL@@@@@ATL@@QAE@XZ
  000bf	3b f4		 cmp	 esi, esp
  000c1	e9 00 00 00 00	 jmp	 __RTC_CheckEsp
$L190614:
  000c6	8b f4		 mov	 esi, esp
  000c8	8b 4d a4	 mov	 ecx, DWORD PTR $T190595[ebp]
  000cb	ff 15 00 00 00
	00		 call	 DWORD PTR __imp_??1?$CStringT@DV?$StrTraitMFC_DLL@DV?$ChTraitsCRT@D@ATL@@@@@ATL@@QAE@XZ
  000d1	3b f4		 cmp	 esi, esp
  000d3	e9 00 00 00 00	 jmp	 __RTC_CheckEsp
$L190615:
  000d8	8b f4		 mov	 esi, esp
  000da	8b 4d a0	 mov	 ecx, DWORD PTR $T190596[ebp]
  000dd	ff 15 00 00 00
	00		 call	 DWORD PTR __imp_??1?$CStringT@DV?$StrTraitMFC_DLL@DV?$ChTraitsCRT@D@ATL@@@@@ATL@@QAE@XZ
  000e3	3b f4		 cmp	 esi, esp
  000e5	e9 00 00 00 00	 jmp	 __RTC_CheckEsp
$L190616:
  000ea	8b f4		 mov	 esi, esp
  000ec	8b 4d 9c	 mov	 ecx, DWORD PTR $T190597[ebp]
  000ef	ff 15 00 00 00
	00		 call	 DWORD PTR __imp_??1?$CStringT@DV?$StrTraitMFC_DLL@DV?$ChTraitsCRT@D@ATL@@@@@ATL@@QAE@XZ
  000f5	3b f4		 cmp	 esi, esp
  000f7	e9 00 00 00 00	 jmp	 __RTC_CheckEsp
$L190617:
  000fc	8b f4		 mov	 esi, esp
  000fe	8b 4d 98	 mov	 ecx, DWORD PTR $T190598[ebp]
  00101	ff 15 00 00 00
	00		 call	 DWORD PTR __imp_??1?$CStringT@DV?$StrTraitMFC_DLL@DV?$ChTraitsCRT@D@ATL@@@@@ATL@@QAE@XZ
  00107	3b f4		 cmp	 esi, esp
  00109	e9 00 00 00 00	 jmp	 __RTC_CheckEsp
$L190618:
  0010e	8b f4		 mov	 esi, esp
  00110	8b 4d 94	 mov	 ecx, DWORD PTR $T190599[ebp]
  00113	ff 15 00 00 00
	00		 call	 DWORD PTR __imp_??1?$CStringT@DV?$StrTraitMFC_DLL@DV?$ChTraitsCRT@D@ATL@@@@@ATL@@QAE@XZ
  00119	3b f4		 cmp	 esi, esp
  0011b	e9 00 00 00 00	 jmp	 __RTC_CheckEsp
$L190619:
  00120	8b f4		 mov	 esi, esp
  00122	8b 4d 90	 mov	 ecx, DWORD PTR $T190600[ebp]
  00125	ff 15 00 00 00
	00		 call	 DWORD PTR __imp_??1?$CStringT@DV?$StrTraitMFC_DLL@DV?$ChTraitsCRT@D@ATL@@@@@ATL@@QAE@XZ
  0012b	3b f4		 cmp	 esi, esp
  0012d	e9 00 00 00 00	 jmp	 __RTC_CheckEsp
$L190620:
  00132	8b f4		 mov	 esi, esp
  00134	8b 4d 8c	 mov	 ecx, DWORD PTR $T190601[ebp]
  00137	ff 15 00 00 00
	00		 call	 DWORD PTR __imp_??1?$CStringT@DV?$StrTraitMFC_DLL@DV?$ChTraitsCRT@D@ATL@@@@@ATL@@QAE@XZ
  0013d	3b f4		 cmp	 esi, esp
  0013f	e9 00 00 00 00	 jmp	 __RTC_CheckEsp
$L190621:
  00144	8b f4		 mov	 esi, esp
  00146	8d 8d 70 ff ff
	ff		 lea	 ecx, DWORD PTR $T190602[ebp]
  0014c	ff 15 00 00 00
	00		 call	 DWORD PTR __imp_??1?$basic_string@DU?$char_traits@D@std@@V?$allocator@D@2@@std@@QAE@XZ
  00152	3b f4		 cmp	 esi, esp
  00154	e9 00 00 00 00	 jmp	 __RTC_CheckEsp
$L190622:
  00159	8b f4		 mov	 esi, esp
  0015b	8d 8d 54 ff ff
	ff		 lea	 ecx, DWORD PTR $T190603[ebp]
  00161	ff 15 00 00 00
	00		 call	 DWORD PTR __imp_??1?$basic_string@DU?$char_traits@D@std@@V?$allocator@D@2@@std@@QAE@XZ
  00167	3b f4		 cmp	 esi, esp
  00169	e9 00 00 00 00	 jmp	 __RTC_CheckEsp
$L190623:
  0016e	8b f4		 mov	 esi, esp
  00170	8d 8d 38 ff ff
	ff		 lea	 ecx, DWORD PTR $T190604[ebp]
  00176	ff 15 00 00 00
	00		 call	 DWORD PTR __imp_??1?$basic_string@DU?$char_traits@D@std@@V?$allocator@D@2@@std@@QAE@XZ
  0017c	3b f4		 cmp	 esi, esp
  0017e	e9 00 00 00 00	 jmp	 __RTC_CheckEsp
$L190624:
  00183	8b f4		 mov	 esi, esp
  00185	8d 8d 1c ff ff
	ff		 lea	 ecx, DWORD PTR $T190605[ebp]
  0018b	ff 15 00 00 00
	00		 call	 DWORD PTR __imp_??1?$basic_string@DU?$char_traits@D@std@@V?$allocator@D@2@@std@@QAE@XZ
  00191	3b f4		 cmp	 esi, esp
  00193	e9 00 00 00 00	 jmp	 __RTC_CheckEsp
__ehhandler$?ChangeWatchMode@CMainHostWnd@@QAEXXZ:
  00198	b8 00 00 00 00	 mov	 eax, OFFSET FLAT:$T190626
  0019d	e9 00 00 00 00	 jmp	 ___CxxFrameHandler
text$x	ENDS
?ChangeWatchMode@CMainHostWnd@@QAEXXZ ENDP		; CMainHostWnd::ChangeWatchMode
PUBLIC	?InterlockedExchangePointer@@YGPAXPAPAXPAX@Z	; InterlockedExchangePointer
PUBLIC	?_AtlGetThreadACPFake@ATL@@YGIXZ		; ATL::_AtlGetThreadACPFake
PUBLIC	?_AtlGetThreadACPReal@ATL@@YGIXZ		; ATL::_AtlGetThreadACPReal
EXTRN	___security_cookie:DWORD
EXTRN	@__security_check_cookie@4:NEAR
EXTRN	__imp__GetVersionExA@4:NEAR
; Function compile flags: /Odt /RTCsu
; File d:\program files (x86)\microsoft visual studio .net 2003\vc7\atlmfc\include\atlconv.h
;	COMDAT ?_AtlGetThreadACPThunk@ATL@@YGIXZ
_TEXT	SEGMENT
_pfnGetThreadACP$ = -164				; size = 4
_ver$ = -156						; size = 148
__$ArrayPad$ = -4					; size = 4
__$ReturnAddr$ = 4					; size = 4
?_AtlGetThreadACPThunk@ATL@@YGIXZ PROC NEAR		; ATL::_AtlGetThreadACPThunk, COMDAT

; 134  : {

  00000	55		 push	 ebp
  00001	8b ec		 mov	 ebp, esp
  00003	81 ec a4 00 00
	00		 sub	 esp, 164		; 000000a4H
  00009	56		 push	 esi
  0000a	57		 push	 edi
  0000b	8d bd 5c ff ff
	ff		 lea	 edi, DWORD PTR [ebp-164]
  00011	b9 29 00 00 00	 mov	 ecx, 41			; 00000029H
  00016	b8 cc cc cc cc	 mov	 eax, -858993460		; ccccccccH
  0001b	f3 ab		 rep stosd
  0001d	a1 00 00 00 00	 mov	 eax, DWORD PTR ___security_cookie
  00022	89 45 fc	 mov	 DWORD PTR __$ArrayPad$[ebp], eax

; 135  : 	OSVERSIONINFO ver;
; 136  : 	ATLGETTHREADACP pfnGetThreadACP;
; 137  : 
; 138  : 	ver.dwOSVersionInfoSize = sizeof( ver );

  00025	c7 85 64 ff ff
	ff 94 00 00 00	 mov	 DWORD PTR _ver$[ebp], 148 ; 00000094H

; 139  : 	::GetVersionEx( &ver );

  0002f	8b f4		 mov	 esi, esp
  00031	8d 85 64 ff ff
	ff		 lea	 eax, DWORD PTR _ver$[ebp]
  00037	50		 push	 eax
  00038	ff 15 00 00 00
	00		 call	 DWORD PTR __imp__GetVersionExA@4
  0003e	3b f4		 cmp	 esi, esp
  00040	e8 00 00 00 00	 call	 __RTC_CheckEsp

; 140  : 	if( (ver.dwPlatformId == VER_PLATFORM_WIN32_NT) && (ver.dwMajorVersion >= 5) )

  00045	83 bd 74 ff ff
	ff 02		 cmp	 DWORD PTR _ver$[ebp+16], 2
  0004c	75 15		 jne	 SHORT $L24163
  0004e	83 bd 68 ff ff
	ff 05		 cmp	 DWORD PTR _ver$[ebp+4], 5
  00055	72 0c		 jb	 SHORT $L24163

; 141  : 	{
; 142  : 		// On Win2K, CP_THREAD_ACP is supported
; 143  : 		pfnGetThreadACP = _AtlGetThreadACPReal;

  00057	c7 85 5c ff ff
	ff 00 00 00 00	 mov	 DWORD PTR _pfnGetThreadACP$[ebp], OFFSET FLAT:?_AtlGetThreadACPReal@ATL@@YGIXZ ; ATL::_AtlGetThreadACPReal

; 144  : 	}
; 145  : 	else

  00061	eb 0a		 jmp	 SHORT $L24164
$L24163:

; 146  : 	{
; 147  : 		pfnGetThreadACP = _AtlGetThreadACPFake;

  00063	c7 85 5c ff ff
	ff 00 00 00 00	 mov	 DWORD PTR _pfnGetThreadACP$[ebp], OFFSET FLAT:?_AtlGetThreadACPFake@ATL@@YGIXZ ; ATL::_AtlGetThreadACPFake
$L24164:

; 148  : 	}
; 149  : 	InterlockedExchangePointer( reinterpret_cast< void** >(&g_pfnGetThreadACP), pfnGetThreadACP );

  0006d	8b 8d 5c ff ff
	ff		 mov	 ecx, DWORD PTR _pfnGetThreadACP$[ebp]
  00073	51		 push	 ecx
  00074	68 00 00 00 00	 push	 OFFSET FLAT:?g_pfnGetThreadACP@ATL@@3P6GIXZA ; ATL::g_pfnGetThreadACP
  00079	e8 00 00 00 00	 call	 ?InterlockedExchangePointer@@YGPAXPAPAXPAX@Z ; InterlockedExchangePointer

; 150  : 
; 151  : 	return( g_pfnGetThreadACP() );

  0007e	8b f4		 mov	 esi, esp
  00080	ff 15 00 00 00
	00		 call	 DWORD PTR ?g_pfnGetThreadACP@ATL@@3P6GIXZA ; ATL::g_pfnGetThreadACP
  00086	3b f4		 cmp	 esi, esp
  00088	e8 00 00 00 00	 call	 __RTC_CheckEsp

; 152  : }

  0008d	52		 push	 edx
  0008e	8b cd		 mov	 ecx, ebp
  00090	50		 push	 eax
  00091	8d 15 00 00 00
	00		 lea	 edx, DWORD PTR $L190639
  00097	e8 00 00 00 00	 call	 @_RTC_CheckStackVars@8
  0009c	58		 pop	 eax
  0009d	5a		 pop	 edx
  0009e	8b 4d fc	 mov	 ecx, DWORD PTR __$ArrayPad$[ebp]
  000a1	e8 00 00 00 00	 call	 @__security_check_cookie@4
  000a6	5f		 pop	 edi
  000a7	5e		 pop	 esi
  000a8	81 c4 a4 00 00
	00		 add	 esp, 164		; 000000a4H
  000ae	3b ec		 cmp	 ebp, esp
  000b0	e8 00 00 00 00	 call	 __RTC_CheckEsp
  000b5	8b e5		 mov	 esp, ebp
  000b7	5d		 pop	 ebp
  000b8	c3		 ret	 0
$L190639:
  000b9	01 00 00 00	 DD	 1
  000bd	00 00 00 00	 DD	 $L190638
$L190638:
  000c1	64 ff ff ff	 DD	 -156			; ffffff64H
  000c5	94 00 00 00	 DD	 148			; 00000094H
  000c9	00 00 00 00	 DD	 $L190635
$L190635:
  000cd	76		 DB	 118			; 00000076H
  000ce	65		 DB	 101			; 00000065H
  000cf	72		 DB	 114			; 00000072H
  000d0	00		 DB	 0
?_AtlGetThreadACPThunk@ATL@@YGIXZ ENDP			; ATL::_AtlGetThreadACPThunk
_TEXT	ENDS
EXTRN	__imp__InterlockedExchange@8:NEAR
; Function compile flags: /Odt /RTCsu
;	COMDAT ?InterlockedExchangePointer@@YGPAXPAPAXPAX@Z
_TEXT	SEGMENT
_pp$ = 8						; size = 4
_pNew$ = 12						; size = 4
?InterlockedExchangePointer@@YGPAXPAPAXPAX@Z PROC NEAR	; InterlockedExchangePointer, COMDAT

; 91   : {

  00000	55		 push	 ebp
  00001	8b ec		 mov	 ebp, esp
  00003	56		 push	 esi

; 92   : 	return( reinterpret_cast<void*>(static_cast<LONG_PTR>(::InterlockedExchange(reinterpret_cast<LONG*>(pp), static_cast<LONG>(reinterpret_cast<LONG_PTR>(pNew))))) );

  00004	8b f4		 mov	 esi, esp
  00006	8b 45 0c	 mov	 eax, DWORD PTR _pNew$[ebp]
  00009	50		 push	 eax
  0000a	8b 4d 08	 mov	 ecx, DWORD PTR _pp$[ebp]
  0000d	51		 push	 ecx
  0000e	ff 15 00 00 00
	00		 call	 DWORD PTR __imp__InterlockedExchange@8
  00014	3b f4		 cmp	 esi, esp
  00016	e8 00 00 00 00	 call	 __RTC_CheckEsp

; 93   : }

  0001b	5e		 pop	 esi
  0001c	3b ec		 cmp	 ebp, esp
  0001e	e8 00 00 00 00	 call	 __RTC_CheckEsp
  00023	5d		 pop	 ebp
  00024	c2 08 00	 ret	 8
?InterlockedExchangePointer@@YGPAXPAPAXPAX@Z ENDP	; InterlockedExchangePointer
_TEXT	ENDS
EXTRN	__imp__GetACP@0:NEAR
EXTRN	__imp__GetLocaleInfoA@16:NEAR
EXTRN	__imp__GetThreadLocale@0:NEAR
; Function compile flags: /Odt /RTCsu
;	COMDAT ?_AtlGetThreadACPFake@ATL@@YGIXZ
_TEXT	SEGMENT
_pch$24151 = -32					; size = 4
_szACP$ = -24						; size = 7
_lcidThread$ = -12					; size = 4
_nACP$ = -8						; size = 4
__$ArrayPad$ = -4					; size = 4
__$ReturnAddr$ = 4					; size = 4
?_AtlGetThreadACPFake@ATL@@YGIXZ PROC NEAR		; ATL::_AtlGetThreadACPFake, COMDAT

; 101  : {

  00000	55		 push	 ebp
  00001	8b ec		 mov	 ebp, esp
  00003	83 ec 20	 sub	 esp, 32			; 00000020H
  00006	56		 push	 esi
  00007	b8 cc cc cc cc	 mov	 eax, -858993460		; ccccccccH
  0000c	89 45 e0	 mov	 DWORD PTR [ebp-32], eax
  0000f	89 45 e4	 mov	 DWORD PTR [ebp-28], eax
  00012	89 45 e8	 mov	 DWORD PTR [ebp-24], eax
  00015	89 45 ec	 mov	 DWORD PTR [ebp-20], eax
  00018	89 45 f0	 mov	 DWORD PTR [ebp-16], eax
  0001b	89 45 f4	 mov	 DWORD PTR [ebp-12], eax
  0001e	89 45 f8	 mov	 DWORD PTR [ebp-8], eax
  00021	89 45 fc	 mov	 DWORD PTR [ebp-4], eax
  00024	a1 00 00 00 00	 mov	 eax, DWORD PTR ___security_cookie
  00029	89 45 fc	 mov	 DWORD PTR __$ArrayPad$[ebp], eax

; 102  : 	UINT nACP = 0;

  0002c	c7 45 f8 00 00
	00 00		 mov	 DWORD PTR _nACP$[ebp], 0

; 103  : 
; 104  : 	LCID lcidThread = ::GetThreadLocale();

  00033	8b f4		 mov	 esi, esp
  00035	ff 15 00 00 00
	00		 call	 DWORD PTR __imp__GetThreadLocale@0
  0003b	3b f4		 cmp	 esi, esp
  0003d	e8 00 00 00 00	 call	 __RTC_CheckEsp
  00042	89 45 f4	 mov	 DWORD PTR _lcidThread$[ebp], eax

; 105  : 
; 106  : 	char szACP[7];
; 107  : 	// GetLocaleInfoA will fail for a Unicode-only LCID, but those are only supported on 
; 108  : 	// Windows 2000.  Since Windows 2000 supports CP_THREAD_ACP, this code path is never
; 109  : 	// executed on Windows 2000.
; 110  : 	if (::GetLocaleInfoA(lcidThread, LOCALE_IDEFAULTANSICODEPAGE, szACP, 7) != 0)

  00045	8b f4		 mov	 esi, esp
  00047	6a 07		 push	 7
  00049	8d 45 e8	 lea	 eax, DWORD PTR _szACP$[ebp]
  0004c	50		 push	 eax
  0004d	68 04 10 00 00	 push	 4100			; 00001004H
  00052	8b 4d f4	 mov	 ecx, DWORD PTR _lcidThread$[ebp]
  00055	51		 push	 ecx
  00056	ff 15 00 00 00
	00		 call	 DWORD PTR __imp__GetLocaleInfoA@16
  0005c	3b f4		 cmp	 esi, esp
  0005e	e8 00 00 00 00	 call	 __RTC_CheckEsp
  00063	85 c0		 test	 eax, eax
  00065	74 34		 je	 SHORT $L24150

; 111  : 	{
; 112  : 		char* pch = szACP;

  00067	8d 55 e8	 lea	 edx, DWORD PTR _szACP$[ebp]
  0006a	89 55 e0	 mov	 DWORD PTR _pch$24151[ebp], edx
$L24153:

; 113  : 		while (*pch != '\0')

  0006d	8b 45 e0	 mov	 eax, DWORD PTR _pch$24151[ebp]
  00070	0f be 08	 movsx	 ecx, BYTE PTR [eax]
  00073	85 c9		 test	 ecx, ecx
  00075	74 24		 je	 SHORT $L24150

; 114  : 		{
; 115  : 			nACP *= 10;

  00077	8b 55 f8	 mov	 edx, DWORD PTR _nACP$[ebp]
  0007a	6b d2 0a	 imul	 edx, 10			; 0000000aH
  0007d	89 55 f8	 mov	 DWORD PTR _nACP$[ebp], edx

; 116  : 			nACP += *pch++ - '0';

  00080	8b 45 e0	 mov	 eax, DWORD PTR _pch$24151[ebp]
  00083	0f be 08	 movsx	 ecx, BYTE PTR [eax]
  00086	8b 55 f8	 mov	 edx, DWORD PTR _nACP$[ebp]
  00089	8d 44 0a d0	 lea	 eax, DWORD PTR [edx+ecx-48]
  0008d	89 45 f8	 mov	 DWORD PTR _nACP$[ebp], eax
  00090	8b 4d e0	 mov	 ecx, DWORD PTR _pch$24151[ebp]
  00093	83 c1 01	 add	 ecx, 1
  00096	89 4d e0	 mov	 DWORD PTR _pch$24151[ebp], ecx

; 117  : 		}

  00099	eb d2		 jmp	 SHORT $L24153
$L24150:

; 118  : 	}
; 119  : 	// Use the Default ANSI Code Page if we were unable to get the thread ACP or if one does not exist.
; 120  : 	if (nACP == 0)

  0009b	83 7d f8 00	 cmp	 DWORD PTR _nACP$[ebp], 0
  0009f	75 12		 jne	 SHORT $L24155

; 121  : 		nACP = ::GetACP();

  000a1	8b f4		 mov	 esi, esp
  000a3	ff 15 00 00 00
	00		 call	 DWORD PTR __imp__GetACP@0
  000a9	3b f4		 cmp	 esi, esp
  000ab	e8 00 00 00 00	 call	 __RTC_CheckEsp
  000b0	89 45 f8	 mov	 DWORD PTR _nACP$[ebp], eax
$L24155:

; 122  : 
; 123  : 	return nACP;

  000b3	8b 45 f8	 mov	 eax, DWORD PTR _nACP$[ebp]

; 124  : }

  000b6	52		 push	 edx
  000b7	8b cd		 mov	 ecx, ebp
  000b9	50		 push	 eax
  000ba	8d 15 00 00 00
	00		 lea	 edx, DWORD PTR $L190647
  000c0	e8 00 00 00 00	 call	 @_RTC_CheckStackVars@8
  000c5	58		 pop	 eax
  000c6	5a		 pop	 edx
  000c7	8b 4d fc	 mov	 ecx, DWORD PTR __$ArrayPad$[ebp]
  000ca	e8 00 00 00 00	 call	 @__security_check_cookie@4
  000cf	5e		 pop	 esi
  000d0	83 c4 20	 add	 esp, 32			; 00000020H
  000d3	3b ec		 cmp	 ebp, esp
  000d5	e8 00 00 00 00	 call	 __RTC_CheckEsp
  000da	8b e5		 mov	 esp, ebp
  000dc	5d		 pop	 ebp
  000dd	c3		 ret	 0
$L190647:
  000de	01 00 00 00	 DD	 1
  000e2	00 00 00 00	 DD	 $L190646
$L190646:
  000e6	e8 ff ff ff	 DD	 -24			; ffffffe8H
  000ea	07 00 00 00	 DD	 7
  000ee	00 00 00 00	 DD	 $L190644
$L190644:
  000f2	73		 DB	 115			; 00000073H
  000f3	7a		 DB	 122			; 0000007aH
  000f4	41		 DB	 65			; 00000041H
  000f5	43		 DB	 67			; 00000043H
  000f6	50		 DB	 80			; 00000050H
  000f7	00		 DB	 0
?_AtlGetThreadACPFake@ATL@@YGIXZ ENDP			; ATL::_AtlGetThreadACPFake
; Function compile flags: /Odt /RTCsu
_TEXT	ENDS
;	COMDAT ?_AtlGetThreadACPReal@ATL@@YGIXZ
_TEXT	SEGMENT
?_AtlGetThreadACPReal@ATL@@YGIXZ PROC NEAR		; ATL::_AtlGetThreadACPReal, COMDAT

; 127  : {

  00000	55		 push	 ebp
  00001	8b ec		 mov	 ebp, esp

; 128  : 	return( CP_THREAD_ACP );

  00003	b8 03 00 00 00	 mov	 eax, 3

; 129  : }

  00008	5d		 pop	 ebp
  00009	c3		 ret	 0
?_AtlGetThreadACPReal@ATL@@YGIXZ ENDP			; ATL::_AtlGetThreadACPReal
_TEXT	ENDS
PUBLIC	?ChangePlaylistMode@CMainHostWnd@@QAEXXZ	; CMainHostWnd::ChangePlaylistMode
EXTRN	?ShowWindow@CWnd@@QAEHH@Z:NEAR			; CWnd::ShowWindow
; Function compile flags: /Odt /RTCsu
; File d:\boxgit\playbox\playbox\dev\prj\playbox\src\layoutmgr\seperatemode\mainhostwnd.cpp
_TEXT	SEGMENT
_rcPlaylist$ = -72					; size = 16
_rcControl$ = -48					; size = 16
_rc$ = -24						; size = 16
_this$ = -4						; size = 4
?ChangePlaylistMode@CMainHostWnd@@QAEXXZ PROC NEAR	; CMainHostWnd::ChangePlaylistMode
; _this$ = ecx

; 313  : {

  01330	55		 push	 ebp
  01331	8b ec		 mov	 ebp, esp
  01333	83 ec 4c	 sub	 esp, 76			; 0000004cH
  01336	57		 push	 edi
  01337	51		 push	 ecx
  01338	8d 7d b4	 lea	 edi, DWORD PTR [ebp-76]
  0133b	b9 13 00 00 00	 mov	 ecx, 19			; 00000013H
  01340	b8 cc cc cc cc	 mov	 eax, -858993460		; ccccccccH
  01345	f3 ab		 rep stosd
  01347	59		 pop	 ecx
  01348	89 4d fc	 mov	 DWORD PTR _this$[ebp], ecx

; 314  : 	CRect rc;

  0134b	8d 4d e8	 lea	 ecx, DWORD PTR _rc$[ebp]
  0134e	e8 00 00 00 00	 call	 ??0CRect@@QAE@XZ	; CRect::CRect

; 315  : 	CRect rcControl;

  01353	8d 4d d0	 lea	 ecx, DWORD PTR _rcControl$[ebp]
  01356	e8 00 00 00 00	 call	 ??0CRect@@QAE@XZ	; CRect::CRect

; 316  : 
; 317  : 	GetWindowRect(&rc);

  0135b	8d 45 e8	 lea	 eax, DWORD PTR _rc$[ebp]
  0135e	50		 push	 eax
  0135f	8b 4d fc	 mov	 ecx, DWORD PTR _this$[ebp]
  01362	e8 00 00 00 00	 call	 ?GetWindowRect@CWnd@@QBEXPAUtagRECT@@@Z ; CWnd::GetWindowRect

; 318  : 	m_pControlWnd->GetWindowRect(&rcControl);

  01367	8d 4d d0	 lea	 ecx, DWORD PTR _rcControl$[ebp]
  0136a	51		 push	 ecx
  0136b	8b 55 fc	 mov	 edx, DWORD PTR _this$[ebp]
  0136e	8b 8a 48 02 00
	00		 mov	 ecx, DWORD PTR [edx+584]
  01374	e8 00 00 00 00	 call	 ?GetWindowRect@CWnd@@QBEXPAUtagRECT@@@Z ; CWnd::GetWindowRect

; 319  : //	CWnd *pWnd = ::AfxGetUIManager()->UIGetLayoutMgr()->GetWnd("ControlPanel");
; 320  : 
; 321  : 	m_bShowPlaylist = !m_bShowPlaylist;

  01379	8b 45 fc	 mov	 eax, DWORD PTR _this$[ebp]
  0137c	0f b6 88 35 02
	00 00		 movzx	 ecx, BYTE PTR [eax+565]
  01383	f7 d9		 neg	 ecx
  01385	1b c9		 sbb	 ecx, ecx
  01387	41		 inc	 ecx
  01388	8b 55 fc	 mov	 edx, DWORD PTR _this$[ebp]
  0138b	88 8a 35 02 00
	00		 mov	 BYTE PTR [edx+565], cl

; 322  : 
; 323  : 	SetMinSize();

  01391	8b 4d fc	 mov	 ecx, DWORD PTR _this$[ebp]
  01394	e8 00 00 00 00	 call	 ?SetMinSize@CMainHostWnd@@QAEXXZ ; CMainHostWnd::SetMinSize

; 324  : 	CRect rcPlaylist;

  01399	8d 4d b8	 lea	 ecx, DWORD PTR _rcPlaylist$[ebp]
  0139c	e8 00 00 00 00	 call	 ??0CRect@@QAE@XZ	; CRect::CRect

; 325  : 	m_pPlistWnd->GetWindowRect(rcPlaylist);

  013a1	8d 4d b8	 lea	 ecx, DWORD PTR _rcPlaylist$[ebp]
  013a4	e8 00 00 00 00	 call	 ??BCRect@@QAEPAUtagRECT@@XZ ; CRect::operator tagRECT *
  013a9	50		 push	 eax
  013aa	8b 45 fc	 mov	 eax, DWORD PTR _this$[ebp]
  013ad	8b 88 4c 02 00
	00		 mov	 ecx, DWORD PTR [eax+588]
  013b3	e8 00 00 00 00	 call	 ?GetWindowRect@CWnd@@QBEXPAUtagRECT@@@Z ; CWnd::GetWindowRect

; 326  : 
; 327  : 	if(m_bShowPlaylist)

  013b8	8b 4d fc	 mov	 ecx, DWORD PTR _this$[ebp]
  013bb	0f b6 91 35 02
	00 00		 movzx	 edx, BYTE PTR [ecx+565]
  013c2	85 d2		 test	 edx, edx
  013c4	74 7d		 je	 SHORT $L189383

; 328  : 	{
; 329  : 
; 330  : 		m_pPlistWnd->ShowWindow(SW_SHOW);

  013c6	6a 05		 push	 5
  013c8	8b 45 fc	 mov	 eax, DWORD PTR _this$[ebp]
  013cb	8b 88 4c 02 00
	00		 mov	 ecx, DWORD PTR [eax+588]
  013d1	e8 00 00 00 00	 call	 ?ShowWindow@CWnd@@QAEHH@Z ; CWnd::ShowWindow

; 331  : 		rc.bottom += rcPlaylist.Height();

  013d6	8d 4d b8	 lea	 ecx, DWORD PTR _rcPlaylist$[ebp]
  013d9	e8 00 00 00 00	 call	 ?Height@CRect@@QBEHXZ	; CRect::Height
  013de	03 45 f4	 add	 eax, DWORD PTR _rc$[ebp+12]
  013e1	89 45 f4	 mov	 DWORD PTR _rc$[ebp+12], eax

; 332  : 
; 333  : 		if(!m_isShowMVWhenClosePlaylist && m_bShowMV)

  013e4	8b 4d fc	 mov	 ecx, DWORD PTR _this$[ebp]
  013e7	83 b9 3c 02 00
	00 00		 cmp	 DWORD PTR [ecx+572], 0
  013ee	75 21		 jne	 SHORT $L189384
  013f0	8b 55 fc	 mov	 edx, DWORD PTR _this$[ebp]
  013f3	0f b6 82 34 02
	00 00		 movzx	 eax, BYTE PTR [edx+564]
  013fa	85 c0		 test	 eax, eax
  013fc	74 13		 je	 SHORT $L189384

; 334  : 			rc.bottom -= rcControl.Height() - 127;

  013fe	8d 4d d0	 lea	 ecx, DWORD PTR _rcControl$[ebp]
  01401	e8 00 00 00 00	 call	 ?Height@CRect@@QBEHXZ	; CRect::Height
  01406	83 e8 7f	 sub	 eax, 127		; 0000007fH
  01409	8b 4d f4	 mov	 ecx, DWORD PTR _rc$[ebp+12]
  0140c	2b c8		 sub	 ecx, eax
  0140e	89 4d f4	 mov	 DWORD PTR _rc$[ebp+12], ecx
$L189384:

; 335  : 
; 336  : 		if(rc.Height() < m_nMinCy)

  01411	8d 4d e8	 lea	 ecx, DWORD PTR _rc$[ebp]
  01414	e8 00 00 00 00	 call	 ?Height@CRect@@QBEHXZ	; CRect::Height
  01419	8b 55 fc	 mov	 edx, DWORD PTR _this$[ebp]
  0141c	3b 82 0c 01 00
	00		 cmp	 eax, DWORD PTR [edx+268]
  01422	7d 0f		 jge	 SHORT $L189385

; 337  : 			rc.bottom = rc.top + m_nMinCy;

  01424	8b 45 fc	 mov	 eax, DWORD PTR _this$[ebp]
  01427	8b 4d ec	 mov	 ecx, DWORD PTR _rc$[ebp+4]
  0142a	03 88 0c 01 00
	00		 add	 ecx, DWORD PTR [eax+268]
  01430	89 4d f4	 mov	 DWORD PTR _rc$[ebp+12], ecx
$L189385:

; 338  : 
; 339  : 
; 340  : 		MoveWindow(&rc);

  01433	6a 01		 push	 1
  01435	8d 55 e8	 lea	 edx, DWORD PTR _rc$[ebp]
  01438	52		 push	 edx
  01439	8b 4d fc	 mov	 ecx, DWORD PTR _this$[ebp]
  0143c	e8 00 00 00 00	 call	 ?MoveWindow@CWnd@@QAEXPBUtagRECT@@H@Z ; CWnd::MoveWindow

; 341  : 
; 342  : 	}
; 343  : 	else

  01441	eb 41		 jmp	 SHORT $L189386
$L189383:

; 344  : 	{
; 345  : 		m_pPlistWnd->ShowWindow(SW_HIDE);

  01443	6a 00		 push	 0
  01445	8b 45 fc	 mov	 eax, DWORD PTR _this$[ebp]
  01448	8b 88 4c 02 00
	00		 mov	 ecx, DWORD PTR [eax+588]
  0144e	e8 00 00 00 00	 call	 ?ShowWindow@CWnd@@QAEHH@Z ; CWnd::ShowWindow

; 346  : 		rc.bottom -= rcPlaylist.Height();

  01453	8d 4d b8	 lea	 ecx, DWORD PTR _rcPlaylist$[ebp]
  01456	e8 00 00 00 00	 call	 ?Height@CRect@@QBEHXZ	; CRect::Height
  0145b	8b 4d f4	 mov	 ecx, DWORD PTR _rc$[ebp+12]
  0145e	2b c8		 sub	 ecx, eax
  01460	89 4d f4	 mov	 DWORD PTR _rc$[ebp+12], ecx

; 347  : 		MoveWindow(&rc);

  01463	6a 01		 push	 1
  01465	8d 55 e8	 lea	 edx, DWORD PTR _rc$[ebp]
  01468	52		 push	 edx
  01469	8b 4d fc	 mov	 ecx, DWORD PTR _this$[ebp]
  0146c	e8 00 00 00 00	 call	 ?MoveWindow@CWnd@@QAEXPBUtagRECT@@H@Z ; CWnd::MoveWindow

; 348  : 		m_isShowMVWhenClosePlaylist = m_bShowMV;

  01471	8b 45 fc	 mov	 eax, DWORD PTR _this$[ebp]
  01474	0f b6 88 34 02
	00 00		 movzx	 ecx, BYTE PTR [eax+564]
  0147b	8b 55 fc	 mov	 edx, DWORD PTR _this$[ebp]
  0147e	89 8a 3c 02 00
	00		 mov	 DWORD PTR [edx+572], ecx
$L189386:

; 349  : 	}
; 350  : 
; 351  : 	//chaohua edit
; 352  : 	//if(m_bShowPlaylist)
; 353  : 	//	LogUserActMsg(STR_USER_CLICK, "BTN:SHOW_PLAYLIST");
; 354  : 	//else
; 355  : 	//	LogUserActMsg(STR_USER_CLICK, "BTN:HIDE_PLAYLIST");
; 356  : 
; 357  : 
; 358  : 	//if(m_bShowPlaylist)
; 359  : 	//	AfxGetUserConfig()->SetConfigIntValue( CONF_APP_MODULE_NAME,CONF_APP_SEPMODE_START_MODE,SHOWLIST,true );
; 360  : 	//else
; 361  : 	//	AfxGetUserConfig()->SetConfigIntValue( CONF_APP_MODULE_NAME,CONF_APP_SEPMODE_START_MODE,0,true );
; 362  : 	RedrawWindow(NULL, NULL, RDW_INVALIDATE | RDW_UPDATENOW | RDW_ERASE | RDW_ALLCHILDREN);

  01484	68 85 01 00 00	 push	 389			; 00000185H
  01489	6a 00		 push	 0
  0148b	6a 00		 push	 0
  0148d	8b 4d fc	 mov	 ecx, DWORD PTR _this$[ebp]
  01490	e8 00 00 00 00	 call	 ?RedrawWindow@CWnd@@QAEHPBUtagRECT@@PAVCRgn@@I@Z ; CWnd::RedrawWindow

; 363  : }

  01495	52		 push	 edx
  01496	8b cd		 mov	 ecx, ebp
  01498	50		 push	 eax
  01499	8d 15 00 00 00
	00		 lea	 edx, DWORD PTR $L190654
  0149f	e8 00 00 00 00	 call	 @_RTC_CheckStackVars@8
  014a4	58		 pop	 eax
  014a5	5a		 pop	 edx
  014a6	5f		 pop	 edi
  014a7	83 c4 4c	 add	 esp, 76			; 0000004cH
  014aa	3b ec		 cmp	 ebp, esp
  014ac	e8 00 00 00 00	 call	 __RTC_CheckEsp
  014b1	8b e5		 mov	 esp, ebp
  014b3	5d		 pop	 ebp
  014b4	c3		 ret	 0
$L190654:
  014b5	03 00 00 00	 DD	 3
  014b9	00 00 00 00	 DD	 $L190653
$L190653:
  014bd	e8 ff ff ff	 DD	 -24			; ffffffe8H
  014c1	10 00 00 00	 DD	 16			; 00000010H
  014c5	00 00 00 00	 DD	 $L190650
  014c9	d0 ff ff ff	 DD	 -48			; ffffffd0H
  014cd	10 00 00 00	 DD	 16			; 00000010H
  014d1	00 00 00 00	 DD	 $L190651
  014d5	b8 ff ff ff	 DD	 -72			; ffffffb8H
  014d9	10 00 00 00	 DD	 16			; 00000010H
  014dd	00 00 00 00	 DD	 $L190652
$L190652:
  014e1	72		 DB	 114			; 00000072H
  014e2	63		 DB	 99			; 00000063H
  014e3	50		 DB	 80			; 00000050H
  014e4	6c		 DB	 108			; 0000006cH
  014e5	61		 DB	 97			; 00000061H
  014e6	79		 DB	 121			; 00000079H
  014e7	6c		 DB	 108			; 0000006cH
  014e8	69		 DB	 105			; 00000069H
  014e9	73		 DB	 115			; 00000073H
  014ea	74		 DB	 116			; 00000074H
  014eb	00		 DB	 0
$L190651:
  014ec	72		 DB	 114			; 00000072H
  014ed	63		 DB	 99			; 00000063H
  014ee	43		 DB	 67			; 00000043H
  014ef	6f		 DB	 111			; 0000006fH
  014f0	6e		 DB	 110			; 0000006eH
  014f1	74		 DB	 116			; 00000074H
  014f2	72		 DB	 114			; 00000072H
  014f3	6f		 DB	 111			; 0000006fH
  014f4	6c		 DB	 108			; 0000006cH
  014f5	00		 DB	 0
$L190650:
  014f6	72		 DB	 114			; 00000072H
  014f7	63		 DB	 99			; 00000063H
  014f8	00		 DB	 0
?ChangePlaylistMode@CMainHostWnd@@QAEXXZ ENDP		; CMainHostWnd::ChangePlaylistMode
_TEXT	ENDS
EXTRN	?_needChangeCursor@CHostWnd@@MAE_NABVCPoint@@@Z:NEAR ; CHostWnd::_needChangeCursor
; Function compile flags: /Odt /RTCsu
_TEXT	SEGMENT
_ret$ = -5						; size = 1
_this$ = -4						; size = 4
_Pt$ = 8						; size = 4
?_needChangeCursor@CMainHostWnd@@UAE_NABVCPoint@@@Z PROC NEAR ; CMainHostWnd::_needChangeCursor
; _this$ = ecx

; 367  : {

  01500	55		 push	 ebp
  01501	8b ec		 mov	 ebp, esp
  01503	83 ec 08	 sub	 esp, 8
  01506	c7 45 f8 cc cc
	cc cc		 mov	 DWORD PTR [ebp-8], -858993460 ; ccccccccH
  0150d	c7 45 fc cc cc
	cc cc		 mov	 DWORD PTR [ebp-4], -858993460 ; ccccccccH
  01514	89 4d fc	 mov	 DWORD PTR _this$[ebp], ecx

; 368  : 
; 369  : 	bool ret = __super::_needChangeCursor(Pt);

  01517	8b 45 08	 mov	 eax, DWORD PTR _Pt$[ebp]
  0151a	50		 push	 eax
  0151b	8b 4d fc	 mov	 ecx, DWORD PTR _this$[ebp]
  0151e	e8 00 00 00 00	 call	 ?_needChangeCursor@CHostWnd@@MAE_NABVCPoint@@@Z ; CHostWnd::_needChangeCursor
  01523	88 45 fb	 mov	 BYTE PTR _ret$[ebp], al

; 370  : 	if(ret == true && !m_bShowPlaylist && !m_bShowMV)

  01526	0f b6 4d fb	 movzx	 ecx, BYTE PTR _ret$[ebp]
  0152a	83 f9 01	 cmp	 ecx, 1
  0152d	75 7c		 jne	 SHORT $L189392
  0152f	8b 55 fc	 mov	 edx, DWORD PTR _this$[ebp]
  01532	0f b6 82 35 02
	00 00		 movzx	 eax, BYTE PTR [edx+565]
  01539	85 c0		 test	 eax, eax
  0153b	75 6e		 jne	 SHORT $L189392
  0153d	8b 4d fc	 mov	 ecx, DWORD PTR _this$[ebp]
  01540	0f b6 91 34 02
	00 00		 movzx	 edx, BYTE PTR [ecx+564]
  01547	85 d2		 test	 edx, edx
  01549	75 60		 jne	 SHORT $L189392

; 371  : 	{
; 372  : 		if(m_iDirection & DIRECTION_TOP)

  0154b	8b 45 fc	 mov	 eax, DWORD PTR _this$[ebp]
  0154e	8b 88 9c 00 00
	00		 mov	 ecx, DWORD PTR [eax+156]
  01554	83 e1 04	 and	 ecx, 4
  01557	74 15		 je	 SHORT $L189393

; 373  : 			m_iDirection ^= DIRECTION_TOP;

  01559	8b 55 fc	 mov	 edx, DWORD PTR _this$[ebp]
  0155c	8b 82 9c 00 00
	00		 mov	 eax, DWORD PTR [edx+156]
  01562	83 f0 04	 xor	 eax, 4
  01565	8b 4d fc	 mov	 ecx, DWORD PTR _this$[ebp]
  01568	89 81 9c 00 00
	00		 mov	 DWORD PTR [ecx+156], eax
$L189393:

; 374  : 
; 375  : 		if(m_iDirection & DIRECTION_BOTTOM)

  0156e	8b 55 fc	 mov	 edx, DWORD PTR _this$[ebp]
  01571	8b 82 9c 00 00
	00		 mov	 eax, DWORD PTR [edx+156]
  01577	83 e0 08	 and	 eax, 8
  0157a	74 15		 je	 SHORT $L189394

; 376  : 			m_iDirection ^= DIRECTION_BOTTOM;

  0157c	8b 4d fc	 mov	 ecx, DWORD PTR _this$[ebp]
  0157f	8b 91 9c 00 00
	00		 mov	 edx, DWORD PTR [ecx+156]
  01585	83 f2 08	 xor	 edx, 8
  01588	8b 45 fc	 mov	 eax, DWORD PTR _this$[ebp]
  0158b	89 90 9c 00 00
	00		 mov	 DWORD PTR [eax+156], edx
$L189394:

; 377  : 
; 378  : 		if(m_iDirection == 0)

  01591	8b 4d fc	 mov	 ecx, DWORD PTR _this$[ebp]
  01594	83 b9 9c 00 00
	00 00		 cmp	 DWORD PTR [ecx+156], 0
  0159b	75 0e		 jne	 SHORT $L189392

; 379  : 		{
; 380  : 			m_bChangeCursor = true;

  0159d	8b 55 fc	 mov	 edx, DWORD PTR _this$[ebp]
  015a0	c6 82 a0 00 00
	00 01		 mov	 BYTE PTR [edx+160], 1

; 381  : 			return false;

  015a7	32 c0		 xor	 al, al
  015a9	eb 03		 jmp	 SHORT $L189390
$L189392:

; 382  : 		}
; 383  : 
; 384  : 	}
; 385  : 	return ret;

  015ab	8a 45 fb	 mov	 al, BYTE PTR _ret$[ebp]
$L189390:

; 386  : 
; 387  : }

  015ae	83 c4 08	 add	 esp, 8
  015b1	3b ec		 cmp	 ebp, esp
  015b3	e8 00 00 00 00	 call	 __RTC_CheckEsp
  015b8	8b e5		 mov	 esp, ebp
  015ba	5d		 pop	 ebp
  015bb	c2 04 00	 ret	 4
?_needChangeCursor@CMainHostWnd@@UAE_NABVCPoint@@@Z ENDP ; CMainHostWnd::_needChangeCursor
_TEXT	ENDS
PUBLIC	?SetTo1x@CMainHostWnd@@QAEXXZ			; CMainHostWnd::SetTo1x
EXTRN	?PopupWndsChangeTo1x@CHostWndMgr@@QAEXXZ:NEAR	; CHostWndMgr::PopupWndsChangeTo1x
; Function compile flags: /Odt /RTCsu
_TEXT	SEGMENT
_deltay$189404 = -60					; size = 4
_deltax$189403 = -56					; size = 4
_rcControl$ = -48					; size = 16
_rc$ = -24						; size = 16
_this$ = -4						; size = 4
?SetTo1x@CMainHostWnd@@QAEXXZ PROC NEAR			; CMainHostWnd::SetTo1x
; _this$ = ecx

; 390  : {

  015c0	55		 push	 ebp
  015c1	8b ec		 mov	 ebp, esp
  015c3	83 ec 3c	 sub	 esp, 60			; 0000003cH
  015c6	57		 push	 edi
  015c7	51		 push	 ecx
  015c8	8d 7d c4	 lea	 edi, DWORD PTR [ebp-60]
  015cb	b9 0f 00 00 00	 mov	 ecx, 15			; 0000000fH
  015d0	b8 cc cc cc cc	 mov	 eax, -858993460		; ccccccccH
  015d5	f3 ab		 rep stosd
  015d7	59		 pop	 ecx
  015d8	89 4d fc	 mov	 DWORD PTR _this$[ebp], ecx

; 391  : 	CRect rc, rcControl;

  015db	8d 4d e8	 lea	 ecx, DWORD PTR _rc$[ebp]
  015de	e8 00 00 00 00	 call	 ??0CRect@@QAE@XZ	; CRect::CRect
  015e3	8d 4d d0	 lea	 ecx, DWORD PTR _rcControl$[ebp]
  015e6	e8 00 00 00 00	 call	 ??0CRect@@QAE@XZ	; CRect::CRect

; 392  : 	GetWindowRect(&rc);

  015eb	8d 45 e8	 lea	 eax, DWORD PTR _rc$[ebp]
  015ee	50		 push	 eax
  015ef	8b 4d fc	 mov	 ecx, DWORD PTR _this$[ebp]
  015f2	e8 00 00 00 00	 call	 ?GetWindowRect@CWnd@@QBEXPAUtagRECT@@@Z ; CWnd::GetWindowRect

; 393  : 
; 394  : 	if(!m_bShowPlaylist)

  015f7	8b 4d fc	 mov	 ecx, DWORD PTR _this$[ebp]
  015fa	0f b6 91 35 02
	00 00		 movzx	 edx, BYTE PTR [ecx+565]
  01601	85 d2		 test	 edx, edx
  01603	75 19		 jne	 SHORT $L189401

; 395  : 	{
; 396  : 		rc.right = rc.left + DEFAULT_WIDTH;

  01605	8b 45 e8	 mov	 eax, DWORD PTR _rc$[ebp]
  01608	05 40 01 00 00	 add	 eax, 320		; 00000140H
  0160d	89 45 f0	 mov	 DWORD PTR _rc$[ebp+8], eax

; 397  : 		rc.bottom = rc.top + DEFAULT_HEIGHT;

  01610	8b 4d ec	 mov	 ecx, DWORD PTR _rc$[ebp+4]
  01613	81 c1 56 01 00
	00		 add	 ecx, 342		; 00000156H
  01619	89 4d f4	 mov	 DWORD PTR _rc$[ebp+12], ecx

; 398  : 	}
; 399  : 	else

  0161c	eb 54		 jmp	 SHORT $L189402
$L189401:

; 400  : 	{
; 401  : 		m_iDirection = DIRECTION_TOP;

  0161e	8b 55 fc	 mov	 edx, DWORD PTR _this$[ebp]
  01621	c7 82 9c 00 00
	00 04 00 00 00	 mov	 DWORD PTR [edx+156], 4

; 402  : 		m_pControlWnd->GetWindowRect(&rcControl);

  0162b	8d 45 d0	 lea	 eax, DWORD PTR _rcControl$[ebp]
  0162e	50		 push	 eax
  0162f	8b 4d fc	 mov	 ecx, DWORD PTR _this$[ebp]
  01632	8b 89 48 02 00
	00		 mov	 ecx, DWORD PTR [ecx+584]
  01638	e8 00 00 00 00	 call	 ?GetWindowRect@CWnd@@QBEXPAUtagRECT@@@Z ; CWnd::GetWindowRect

; 403  : 		int deltax = rcControl.Width() - DEFAULT_WIDTH;

  0163d	8d 4d d0	 lea	 ecx, DWORD PTR _rcControl$[ebp]
  01640	e8 00 00 00 00	 call	 ?Width@CRect@@QBEHXZ	; CRect::Width
  01645	2d 40 01 00 00	 sub	 eax, 320		; 00000140H
  0164a	89 45 c8	 mov	 DWORD PTR _deltax$189403[ebp], eax

; 404  : 		int deltay = rcControl.Height() - DEFAULT_HEIGHT;

  0164d	8d 4d d0	 lea	 ecx, DWORD PTR _rcControl$[ebp]
  01650	e8 00 00 00 00	 call	 ?Height@CRect@@QBEHXZ	; CRect::Height
  01655	2d 56 01 00 00	 sub	 eax, 342		; 00000156H
  0165a	89 45 c4	 mov	 DWORD PTR _deltay$189404[ebp], eax

; 405  : 
; 406  : 		rc.right = rc.left + DEFAULT_WIDTH;

  0165d	8b 55 e8	 mov	 edx, DWORD PTR _rc$[ebp]
  01660	81 c2 40 01 00
	00		 add	 edx, 320		; 00000140H
  01666	89 55 f0	 mov	 DWORD PTR _rc$[ebp+8], edx

; 407  : 		rc.bottom = rc.bottom - deltay;

  01669	8b 45 f4	 mov	 eax, DWORD PTR _rc$[ebp+12]
  0166c	2b 45 c4	 sub	 eax, DWORD PTR _deltay$189404[ebp]
  0166f	89 45 f4	 mov	 DWORD PTR _rc$[ebp+12], eax
$L189402:

; 408  : 	}
; 409  : 
; 410  : 	this->MoveWindow(&rc);

  01672	6a 01		 push	 1
  01674	8d 4d e8	 lea	 ecx, DWORD PTR _rc$[ebp]
  01677	51		 push	 ecx
  01678	8b 4d fc	 mov	 ecx, DWORD PTR _this$[ebp]
  0167b	e8 00 00 00 00	 call	 ?MoveWindow@CWnd@@QAEXPBUtagRECT@@H@Z ; CWnd::MoveWindow

; 411  : 
; 412  : 	CHostWndMgr::GetInstance()->PopupWndsChangeTo1x();

  01680	e8 00 00 00 00	 call	 ?GetInstance@CHostWndMgr@@SAPAV1@XZ ; CHostWndMgr::GetInstance
  01685	8b c8		 mov	 ecx, eax
  01687	e8 00 00 00 00	 call	 ?PopupWndsChangeTo1x@CHostWndMgr@@QAEXXZ ; CHostWndMgr::PopupWndsChangeTo1x

; 413  : }

  0168c	52		 push	 edx
  0168d	8b cd		 mov	 ecx, ebp
  0168f	50		 push	 eax
  01690	8d 15 00 00 00
	00		 lea	 edx, DWORD PTR $L190660
  01696	e8 00 00 00 00	 call	 @_RTC_CheckStackVars@8
  0169b	58		 pop	 eax
  0169c	5a		 pop	 edx
  0169d	5f		 pop	 edi
  0169e	83 c4 3c	 add	 esp, 60			; 0000003cH
  016a1	3b ec		 cmp	 ebp, esp
  016a3	e8 00 00 00 00	 call	 __RTC_CheckEsp
  016a8	8b e5		 mov	 esp, ebp
  016aa	5d		 pop	 ebp
  016ab	c3		 ret	 0
$L190660:
  016ac	02 00 00 00	 DD	 2
  016b0	00 00 00 00	 DD	 $L190659
$L190659:
  016b4	e8 ff ff ff	 DD	 -24			; ffffffe8H
  016b8	10 00 00 00	 DD	 16			; 00000010H
  016bc	00 00 00 00	 DD	 $L190657
  016c0	d0 ff ff ff	 DD	 -48			; ffffffd0H
  016c4	10 00 00 00	 DD	 16			; 00000010H
  016c8	00 00 00 00	 DD	 $L190658
$L190658:
  016cc	72		 DB	 114			; 00000072H
  016cd	63		 DB	 99			; 00000063H
  016ce	43		 DB	 67			; 00000043H
  016cf	6f		 DB	 111			; 0000006fH
  016d0	6e		 DB	 110			; 0000006eH
  016d1	74		 DB	 116			; 00000074H
  016d2	72		 DB	 114			; 00000072H
  016d3	6f		 DB	 111			; 0000006fH
  016d4	6c		 DB	 108			; 0000006cH
  016d5	00		 DB	 0
$L190657:
  016d6	72		 DB	 114			; 00000072H
  016d7	63		 DB	 99			; 00000063H
  016d8	00		 DB	 0
?SetTo1x@CMainHostWnd@@QAEXXZ ENDP			; CMainHostWnd::SetTo1x
_TEXT	ENDS
EXTRN	?ScreenToClient@CWnd@@QBEXPAUtagRECT@@@Z:NEAR	; CWnd::ScreenToClient
; Function compile flags: /Odt /RTCsu
_TEXT	SEGMENT
_deltax$189415 = -80					; size = 4
_rcPlaylist$ = -72					; size = 16
_rcControl$ = -48					; size = 16
_rc$ = -24						; size = 16
_this$ = -4						; size = 4
_height$ = 8						; size = 4
_width$ = 12						; size = 4
?MoveMvSize@CMainHostWnd@@QAEXHH@Z PROC NEAR		; CMainHostWnd::MoveMvSize
; _this$ = ecx

; 416  : {

  016e0	55		 push	 ebp
  016e1	8b ec		 mov	 ebp, esp
  016e3	83 ec 50	 sub	 esp, 80			; 00000050H
  016e6	57		 push	 edi
  016e7	51		 push	 ecx
  016e8	8d 7d b0	 lea	 edi, DWORD PTR [ebp-80]
  016eb	b9 14 00 00 00	 mov	 ecx, 20			; 00000014H
  016f0	b8 cc cc cc cc	 mov	 eax, -858993460		; ccccccccH
  016f5	f3 ab		 rep stosd
  016f7	59		 pop	 ecx
  016f8	89 4d fc	 mov	 DWORD PTR _this$[ebp], ecx

; 417  : 	CRect rc, rcControl, rcPlaylist;

  016fb	8d 4d e8	 lea	 ecx, DWORD PTR _rc$[ebp]
  016fe	e8 00 00 00 00	 call	 ??0CRect@@QAE@XZ	; CRect::CRect
  01703	8d 4d d0	 lea	 ecx, DWORD PTR _rcControl$[ebp]
  01706	e8 00 00 00 00	 call	 ??0CRect@@QAE@XZ	; CRect::CRect
  0170b	8d 4d b8	 lea	 ecx, DWORD PTR _rcPlaylist$[ebp]
  0170e	e8 00 00 00 00	 call	 ??0CRect@@QAE@XZ	; CRect::CRect

; 418  : 	GetWindowRect(&rc);

  01713	8d 45 e8	 lea	 eax, DWORD PTR _rc$[ebp]
  01716	50		 push	 eax
  01717	8b 4d fc	 mov	 ecx, DWORD PTR _this$[ebp]
  0171a	e8 00 00 00 00	 call	 ?GetWindowRect@CWnd@@QBEXPAUtagRECT@@@Z ; CWnd::GetWindowRect

; 419  : 
; 420  : 	if(!m_bShowPlaylist)

  0171f	8b 4d fc	 mov	 ecx, DWORD PTR _this$[ebp]
  01722	0f b6 91 35 02
	00 00		 movzx	 edx, BYTE PTR [ecx+565]
  01729	85 d2		 test	 edx, edx
  0172b	75 17		 jne	 SHORT $L189413

; 421  : 	{
; 422  : 		rc.right = rc.left + width;

  0172d	8b 45 e8	 mov	 eax, DWORD PTR _rc$[ebp]
  01730	03 45 0c	 add	 eax, DWORD PTR _width$[ebp]
  01733	89 45 f0	 mov	 DWORD PTR _rc$[ebp+8], eax

; 423  : 		rc.bottom = rc.top + height;

  01736	8b 4d ec	 mov	 ecx, DWORD PTR _rc$[ebp+4]
  01739	03 4d 08	 add	 ecx, DWORD PTR _height$[ebp]
  0173c	89 4d f4	 mov	 DWORD PTR _rc$[ebp+12], ecx

; 424  : 	}
; 425  : 	else

  0173f	e9 cb 00 00 00	 jmp	 $L189414
$L189413:

; 426  : 	{
; 427  : 		m_pPlistWnd->GetWindowRect(&rcPlaylist);

  01744	8d 55 b8	 lea	 edx, DWORD PTR _rcPlaylist$[ebp]
  01747	52		 push	 edx
  01748	8b 45 fc	 mov	 eax, DWORD PTR _this$[ebp]
  0174b	8b 88 4c 02 00
	00		 mov	 ecx, DWORD PTR [eax+588]
  01751	e8 00 00 00 00	 call	 ?GetWindowRect@CWnd@@QBEXPAUtagRECT@@@Z ; CWnd::GetWindowRect

; 428  : 		m_iDirection = DIRECTION_TOP;

  01756	8b 4d fc	 mov	 ecx, DWORD PTR _this$[ebp]
  01759	c7 81 9c 00 00
	00 04 00 00 00	 mov	 DWORD PTR [ecx+156], 4

; 429  : 		m_pControlWnd->GetWindowRect(&rcControl);

  01763	8d 55 d0	 lea	 edx, DWORD PTR _rcControl$[ebp]
  01766	52		 push	 edx
  01767	8b 45 fc	 mov	 eax, DWORD PTR _this$[ebp]
  0176a	8b 88 48 02 00
	00		 mov	 ecx, DWORD PTR [eax+584]
  01770	e8 00 00 00 00	 call	 ?GetWindowRect@CWnd@@QBEXPAUtagRECT@@@Z ; CWnd::GetWindowRect

; 430  : 		int deltax = rcControl.Width() - width;

  01775	8d 4d d0	 lea	 ecx, DWORD PTR _rcControl$[ebp]
  01778	e8 00 00 00 00	 call	 ?Width@CRect@@QBEHXZ	; CRect::Width
  0177d	2b 45 0c	 sub	 eax, DWORD PTR _width$[ebp]
  01780	89 45 b0	 mov	 DWORD PTR _deltax$189415[ebp], eax

; 431  : 		//int deltay = rcControl.Height() - 629;
; 432  : 		rcPlaylist.top = rc.top + height;

  01783	8b 4d ec	 mov	 ecx, DWORD PTR _rc$[ebp+4]
  01786	03 4d 08	 add	 ecx, DWORD PTR _height$[ebp]
  01789	89 4d bc	 mov	 DWORD PTR _rcPlaylist$[ebp+4], ecx

; 433  : 		rcControl.bottom = rc.top + height;

  0178c	8b 55 ec	 mov	 edx, DWORD PTR _rc$[ebp+4]
  0178f	03 55 08	 add	 edx, DWORD PTR _height$[ebp]
  01792	89 55 dc	 mov	 DWORD PTR _rcControl$[ebp+12], edx

; 434  : 
; 435  : 		if(rcPlaylist.bottom - rcPlaylist.top < PLAYLIST_MIN_HEIGHT)

  01795	8b 45 c4	 mov	 eax, DWORD PTR _rcPlaylist$[ebp+12]
  01798	2b 45 bc	 sub	 eax, DWORD PTR _rcPlaylist$[ebp+4]
  0179b	3d d2 00 00 00	 cmp	 eax, 210		; 000000d2H
  017a0	7d 0c		 jge	 SHORT $L189416

; 436  : 			rcPlaylist.bottom = rcPlaylist.top + PLAYLIST_MIN_HEIGHT;

  017a2	8b 4d bc	 mov	 ecx, DWORD PTR _rcPlaylist$[ebp+4]
  017a5	81 c1 d2 00 00
	00		 add	 ecx, 210		; 000000d2H
  017ab	89 4d c4	 mov	 DWORD PTR _rcPlaylist$[ebp+12], ecx
$L189416:

; 437  : 		if(rc.bottom < rcPlaylist.bottom)

  017ae	8b 55 f4	 mov	 edx, DWORD PTR _rc$[ebp+12]
  017b1	3b 55 c4	 cmp	 edx, DWORD PTR _rcPlaylist$[ebp+12]
  017b4	7d 06		 jge	 SHORT $L189417

; 438  : 			rc.bottom = rcPlaylist.bottom;

  017b6	8b 45 c4	 mov	 eax, DWORD PTR _rcPlaylist$[ebp+12]
  017b9	89 45 f4	 mov	 DWORD PTR _rc$[ebp+12], eax
$L189417:

; 439  : 
; 440  : 		ScreenToClient(rcPlaylist);

  017bc	8d 4d b8	 lea	 ecx, DWORD PTR _rcPlaylist$[ebp]
  017bf	e8 00 00 00 00	 call	 ??BCRect@@QAEPAUtagRECT@@XZ ; CRect::operator tagRECT *
  017c4	50		 push	 eax
  017c5	8b 4d fc	 mov	 ecx, DWORD PTR _this$[ebp]
  017c8	e8 00 00 00 00	 call	 ?ScreenToClient@CWnd@@QBEXPAUtagRECT@@@Z ; CWnd::ScreenToClient

; 441  : 		ScreenToClient(rcControl);

  017cd	8d 4d d0	 lea	 ecx, DWORD PTR _rcControl$[ebp]
  017d0	e8 00 00 00 00	 call	 ??BCRect@@QAEPAUtagRECT@@XZ ; CRect::operator tagRECT *
  017d5	50		 push	 eax
  017d6	8b 4d fc	 mov	 ecx, DWORD PTR _this$[ebp]
  017d9	e8 00 00 00 00	 call	 ?ScreenToClient@CWnd@@QBEXPAUtagRECT@@@Z ; CWnd::ScreenToClient

; 442  : 		m_pPlistWnd->MoveWindow(&rcPlaylist);

  017de	6a 01		 push	 1
  017e0	8d 4d b8	 lea	 ecx, DWORD PTR _rcPlaylist$[ebp]
  017e3	51		 push	 ecx
  017e4	8b 55 fc	 mov	 edx, DWORD PTR _this$[ebp]
  017e7	8b 8a 4c 02 00
	00		 mov	 ecx, DWORD PTR [edx+588]
  017ed	e8 00 00 00 00	 call	 ?MoveWindow@CWnd@@QAEXPBUtagRECT@@H@Z ; CWnd::MoveWindow

; 443  : 		m_pControlWnd->MoveWindow(&rcControl);

  017f2	6a 01		 push	 1
  017f4	8d 45 d0	 lea	 eax, DWORD PTR _rcControl$[ebp]
  017f7	50		 push	 eax
  017f8	8b 4d fc	 mov	 ecx, DWORD PTR _this$[ebp]
  017fb	8b 89 48 02 00
	00		 mov	 ecx, DWORD PTR [ecx+584]
  01801	e8 00 00 00 00	 call	 ?MoveWindow@CWnd@@QAEXPBUtagRECT@@H@Z ; CWnd::MoveWindow

; 444  : 
; 445  : 		rc.right = rc.left + width;

  01806	8b 55 e8	 mov	 edx, DWORD PTR _rc$[ebp]
  01809	03 55 0c	 add	 edx, DWORD PTR _width$[ebp]
  0180c	89 55 f0	 mov	 DWORD PTR _rc$[ebp+8], edx
$L189414:

; 446  : 		//rc.bottom = rc.bottom - deltay;
; 447  : 	}
; 448  : 
; 449  : 	this->MoveWindow(&rc);

  0180f	6a 01		 push	 1
  01811	8d 45 e8	 lea	 eax, DWORD PTR _rc$[ebp]
  01814	50		 push	 eax
  01815	8b 4d fc	 mov	 ecx, DWORD PTR _this$[ebp]
  01818	e8 00 00 00 00	 call	 ?MoveWindow@CWnd@@QAEXPBUtagRECT@@H@Z ; CWnd::MoveWindow

; 450  : 
; 451  : }

  0181d	52		 push	 edx
  0181e	8b cd		 mov	 ecx, ebp
  01820	50		 push	 eax
  01821	8d 15 00 00 00
	00		 lea	 edx, DWORD PTR $L190666
  01827	e8 00 00 00 00	 call	 @_RTC_CheckStackVars@8
  0182c	58		 pop	 eax
  0182d	5a		 pop	 edx
  0182e	5f		 pop	 edi
  0182f	83 c4 50	 add	 esp, 80			; 00000050H
  01832	3b ec		 cmp	 ebp, esp
  01834	e8 00 00 00 00	 call	 __RTC_CheckEsp
  01839	8b e5		 mov	 esp, ebp
  0183b	5d		 pop	 ebp
  0183c	c2 08 00	 ret	 8
$L190666:
  0183f	03 00 00 00	 DD	 3
  01843	00 00 00 00	 DD	 $L190665
$L190665:
  01847	e8 ff ff ff	 DD	 -24			; ffffffe8H
  0184b	10 00 00 00	 DD	 16			; 00000010H
  0184f	00 00 00 00	 DD	 $L190662
  01853	d0 ff ff ff	 DD	 -48			; ffffffd0H
  01857	10 00 00 00	 DD	 16			; 00000010H
  0185b	00 00 00 00	 DD	 $L190663
  0185f	b8 ff ff ff	 DD	 -72			; ffffffb8H
  01863	10 00 00 00	 DD	 16			; 00000010H
  01867	00 00 00 00	 DD	 $L190664
$L190664:
  0186b	72		 DB	 114			; 00000072H
  0186c	63		 DB	 99			; 00000063H
  0186d	50		 DB	 80			; 00000050H
  0186e	6c		 DB	 108			; 0000006cH
  0186f	61		 DB	 97			; 00000061H
  01870	79		 DB	 121			; 00000079H
  01871	6c		 DB	 108			; 0000006cH
  01872	69		 DB	 105			; 00000069H
  01873	73		 DB	 115			; 00000073H
  01874	74		 DB	 116			; 00000074H
  01875	00		 DB	 0
$L190663:
  01876	72		 DB	 114			; 00000072H
  01877	63		 DB	 99			; 00000063H
  01878	43		 DB	 67			; 00000043H
  01879	6f		 DB	 111			; 0000006fH
  0187a	6e		 DB	 110			; 0000006eH
  0187b	74		 DB	 116			; 00000074H
  0187c	72		 DB	 114			; 00000072H
  0187d	6f		 DB	 111			; 0000006fH
  0187e	6c		 DB	 108			; 0000006cH
  0187f	00		 DB	 0
$L190662:
  01880	72		 DB	 114			; 00000072H
  01881	63		 DB	 99			; 00000063H
  01882	00		 DB	 0
?MoveMvSize@CMainHostWnd@@QAEXHH@Z ENDP			; CMainHostWnd::MoveMvSize
_TEXT	ENDS
PUBLIC	?SetTo2x@CMainHostWnd@@QAEXXZ			; CMainHostWnd::SetTo2x
EXTRN	?PopupWndsChangeTo2x@CHostWndMgr@@QAEXXZ:NEAR	; CHostWndMgr::PopupWndsChangeTo2x
; Function compile flags: /Odt /RTCsu
_TEXT	SEGMENT
_this$ = -4						; size = 4
?SetTo2x@CMainHostWnd@@QAEXXZ PROC NEAR			; CMainHostWnd::SetTo2x
; _this$ = ecx

; 453  : {

  01890	55		 push	 ebp
  01891	8b ec		 mov	 ebp, esp
  01893	51		 push	 ecx
  01894	c7 45 fc cc cc
	cc cc		 mov	 DWORD PTR [ebp-4], -858993460 ; ccccccccH
  0189b	89 4d fc	 mov	 DWORD PTR _this$[ebp], ecx

; 454  : 	MoveMvSize(629 , 600);

  0189e	68 58 02 00 00	 push	 600			; 00000258H
  018a3	68 75 02 00 00	 push	 629			; 00000275H
  018a8	8b 4d fc	 mov	 ecx, DWORD PTR _this$[ebp]
  018ab	e8 00 00 00 00	 call	 ?MoveMvSize@CMainHostWnd@@QAEXHH@Z ; CMainHostWnd::MoveMvSize

; 455  : 	CHostWndMgr::GetInstance()->PopupWndsChangeTo2x();

  018b0	e8 00 00 00 00	 call	 ?GetInstance@CHostWndMgr@@SAPAV1@XZ ; CHostWndMgr::GetInstance
  018b5	8b c8		 mov	 ecx, eax
  018b7	e8 00 00 00 00	 call	 ?PopupWndsChangeTo2x@CHostWndMgr@@QAEXXZ ; CHostWndMgr::PopupWndsChangeTo2x

; 456  : }

  018bc	83 c4 04	 add	 esp, 4
  018bf	3b ec		 cmp	 ebp, esp
  018c1	e8 00 00 00 00	 call	 __RTC_CheckEsp
  018c6	8b e5		 mov	 esp, ebp
  018c8	5d		 pop	 ebp
  018c9	c3		 ret	 0
?SetTo2x@CMainHostWnd@@QAEXXZ ENDP			; CMainHostWnd::SetTo2x
; Function compile flags: /Odt /RTCsu
_this$ = -4						; size = 4
?SetMinSize@CMainHostWnd@@QAEXXZ PROC NEAR		; CMainHostWnd::SetMinSize
; _this$ = ecx

; 459  : {

  018d0	55		 push	 ebp
  018d1	8b ec		 mov	 ebp, esp
  018d3	51		 push	 ecx
  018d4	c7 45 fc cc cc
	cc cc		 mov	 DWORD PTR [ebp-4], -858993460 ; ccccccccH
  018db	89 4d fc	 mov	 DWORD PTR _this$[ebp], ecx

; 460  : 	//return;
; 461  : 	m_nMinCx = DEFAULT_WIDTH;

  018de	8b 45 fc	 mov	 eax, DWORD PTR _this$[ebp]
  018e1	c7 80 08 01 00
	00 40 01 00 00	 mov	 DWORD PTR [eax+264], 320 ; 00000140H

; 462  : 
; 463  : 	if(m_bShowPlaylist)

  018eb	8b 4d fc	 mov	 ecx, DWORD PTR _this$[ebp]
  018ee	0f b6 91 35 02
	00 00		 movzx	 edx, BYTE PTR [ecx+565]
  018f5	85 d2		 test	 edx, edx
  018f7	74 2c		 je	 SHORT $L189424

; 464  : 	{
; 465  : 		if(!m_bShowMV)

  018f9	8b 45 fc	 mov	 eax, DWORD PTR _this$[ebp]
  018fc	0f b6 88 34 02
	00 00		 movzx	 ecx, BYTE PTR [eax+564]
  01903	85 c9		 test	 ecx, ecx
  01905	75 0f		 jne	 SHORT $L189425

; 466  : 			m_nMinCy = 127*2 + PLAYLIST_MIN_HEIGHT;

  01907	8b 55 fc	 mov	 edx, DWORD PTR _this$[ebp]
  0190a	c7 82 0c 01 00
	00 d0 01 00 00	 mov	 DWORD PTR [edx+268], 464 ; 000001d0H

; 467  : 		else

  01914	eb 0d		 jmp	 SHORT $L189426
$L189425:

; 468  : 			m_nMinCy = DEFAULT_HEIGHT + PLAYLIST_MIN_HEIGHT;

  01916	8b 45 fc	 mov	 eax, DWORD PTR _this$[ebp]
  01919	c7 80 0c 01 00
	00 28 02 00 00	 mov	 DWORD PTR [eax+268], 552 ; 00000228H
$L189426:

; 469  : 	}
; 470  : 	else

  01923	eb 2a		 jmp	 SHORT $L189423
$L189424:

; 471  : 	{
; 472  : 		if(!m_bShowMV)

  01925	8b 4d fc	 mov	 ecx, DWORD PTR _this$[ebp]
  01928	0f b6 91 34 02
	00 00		 movzx	 edx, BYTE PTR [ecx+564]
  0192f	85 d2		 test	 edx, edx
  01931	75 0f		 jne	 SHORT $L189428

; 473  : 			m_nMinCy = 127;

  01933	8b 45 fc	 mov	 eax, DWORD PTR _this$[ebp]
  01936	c7 80 0c 01 00
	00 7f 00 00 00	 mov	 DWORD PTR [eax+268], 127 ; 0000007fH

; 474  : 		else

  01940	eb 0d		 jmp	 SHORT $L189423
$L189428:

; 475  : 			m_nMinCy = DEFAULT_HEIGHT;

  01942	8b 4d fc	 mov	 ecx, DWORD PTR _this$[ebp]
  01945	c7 81 0c 01 00
	00 56 01 00 00	 mov	 DWORD PTR [ecx+268], 342 ; 00000156H
$L189423:

; 476  : 	}
; 477  : }

  0194f	8b e5		 mov	 esp, ebp
  01951	5d		 pop	 ebp
  01952	c3		 ret	 0
?SetMinSize@CMainHostWnd@@QAEXXZ ENDP			; CMainHostWnd::SetMinSize
_TEXT	ENDS
EXTRN	__imp_?Compare@?$CStringT@DV?$StrTraitMFC_DLL@DV?$ChTraitsCRT@D@ATL@@@@@ATL@@QBEHPBD@Z:NEAR
; Function compile flags: /Odt /RTCsu
; File d:\program files (x86)\microsoft visual studio .net 2003\vc7\atlmfc\include\cstringt.h
;	COMDAT ??8ATL@@YA_NABV?$CStringT@DV?$StrTraitMFC_DLL@DV?$ChTraitsCRT@D@ATL@@@@@0@PBD@Z
_TEXT	SEGMENT
_str1$ = 8						; size = 4
_psz2$ = 12						; size = 4
??8ATL@@YA_NABV?$CStringT@DV?$StrTraitMFC_DLL@DV?$ChTraitsCRT@D@ATL@@@@@0@PBD@Z PROC NEAR ; ATL::operator==, COMDAT

; 2087 : 	{

  00000	55		 push	 ebp
  00001	8b ec		 mov	 ebp, esp
  00003	56		 push	 esi

; 2088 : 		return( str1.Compare( psz2 ) == 0 );

  00004	8b f4		 mov	 esi, esp
  00006	8b 45 0c	 mov	 eax, DWORD PTR _psz2$[ebp]
  00009	50		 push	 eax
  0000a	8b 4d 08	 mov	 ecx, DWORD PTR _str1$[ebp]
  0000d	ff 15 00 00 00
	00		 call	 DWORD PTR __imp_?Compare@?$CStringT@DV?$StrTraitMFC_DLL@DV?$ChTraitsCRT@D@ATL@@@@@ATL@@QBEHPBD@Z
  00013	3b f4		 cmp	 esi, esp
  00015	e8 00 00 00 00	 call	 __RTC_CheckEsp
  0001a	f7 d8		 neg	 eax
  0001c	1b c0		 sbb	 eax, eax
  0001e	40		 inc	 eax

; 2089 : 	}

  0001f	5e		 pop	 esi
  00020	3b ec		 cmp	 ebp, esp
  00022	e8 00 00 00 00	 call	 __RTC_CheckEsp
  00027	5d		 pop	 ebp
  00028	c3		 ret	 0
??8ATL@@YA_NABV?$CStringT@DV?$StrTraitMFC_DLL@DV?$ChTraitsCRT@D@ATL@@@@@0@PBD@Z ENDP ; ATL::operator==
_TEXT	ENDS
CRT$XCU	SEGMENT
_$S6	DD	FLAT:_$E5
; Function compile flags: /Odt /RTCsu
; File d:\boxgit\playbox\playbox\dev\prj\playbox\src\appconfig\config\configappdef.h
CRT$XCU	ENDS
;	COMDAT _$E5
text$yc	SEGMENT
_$E5	PROC NEAR					; COMDAT

; 19   : 	CONF_APP_SWF_PATH,			TYPE_CONFIG_STR,

  00000	55		 push	 ebp
  00001	8b ec		 mov	 ebp, esp
  00003	a1 00 00 00 00	 mov	 eax, DWORD PTR _CONF_APP_SWF_PATH
  00008	a3 00 00 00 00	 mov	 DWORD PTR _CONF_APP, eax
  0000d	8b 0d 00 00 00
	00		 mov	 ecx, DWORD PTR _TYPE_CONFIG_STR
  00013	89 0d 04 00 00
	00		 mov	 DWORD PTR _CONF_APP+4, ecx

; 20   : 	CONF_APP_MAINWND_HOLD,		TYPE_CONFIG_BOOL,

  00019	8b 15 00 00 00
	00		 mov	 edx, DWORD PTR _CONF_APP_MAINWND_HOLD
  0001f	89 15 08 00 00
	00		 mov	 DWORD PTR _CONF_APP+8, edx
  00025	a1 00 00 00 00	 mov	 eax, DWORD PTR _TYPE_CONFIG_BOOL
  0002a	a3 0c 00 00 00	 mov	 DWORD PTR _CONF_APP+12, eax

; 21   : 	CONF_APP_RUN_COUNT,			TYPE_CONFIG_INT,

  0002f	8b 0d 00 00 00
	00		 mov	 ecx, DWORD PTR _CONF_APP_RUN_COUNT
  00035	89 0d 10 00 00
	00		 mov	 DWORD PTR _CONF_APP+16, ecx
  0003b	8b 15 00 00 00
	00		 mov	 edx, DWORD PTR _TYPE_CONFIG_INT
  00041	89 15 14 00 00
	00		 mov	 DWORD PTR _CONF_APP+20, edx

; 22   : 	CONF_APP_PLAYED_GAME,		TYPE_CONFIG_INT,

  00047	a1 00 00 00 00	 mov	 eax, DWORD PTR _CONF_APP_PLAYED_GAME
  0004c	a3 18 00 00 00	 mov	 DWORD PTR _CONF_APP+24, eax
  00051	8b 0d 00 00 00
	00		 mov	 ecx, DWORD PTR _TYPE_CONFIG_INT
  00057	89 0d 1c 00 00
	00		 mov	 DWORD PTR _CONF_APP+28, ecx

; 23   : 	CONF_APP_PLAYED_PC_GAME,	TYPE_CONFIG_INT,

  0005d	8b 15 00 00 00
	00		 mov	 edx, DWORD PTR _CONF_APP_PLAYED_PC_GAME
  00063	89 15 20 00 00
	00		 mov	 DWORD PTR _CONF_APP+32, edx
  00069	a1 00 00 00 00	 mov	 eax, DWORD PTR _TYPE_CONFIG_INT
  0006e	a3 24 00 00 00	 mov	 DWORD PTR _CONF_APP+36, eax

; 24   : 	CONF_APP_PLAYED_ICON_SIZE,	TYPE_CONFIG_INT, //panelicon0,1,2

  00073	8b 0d 00 00 00
	00		 mov	 ecx, DWORD PTR _CONF_APP_PLAYED_ICON_SIZE
  00079	89 0d 28 00 00
	00		 mov	 DWORD PTR _CONF_APP+40, ecx
  0007f	8b 15 00 00 00
	00		 mov	 edx, DWORD PTR _TYPE_CONFIG_INT
  00085	89 15 2c 00 00
	00		 mov	 DWORD PTR _CONF_APP+44, edx

; 25   : 	CONF_APP_PIC_SAVE_PATH,		TYPE_CONFIG_STR

  0008b	a1 00 00 00 00	 mov	 eax, DWORD PTR _CONF_APP_PIC_SAVE_PATH
  00090	a3 30 00 00 00	 mov	 DWORD PTR _CONF_APP+48, eax

; 26   : };

  00095	8b 0d 00 00 00
	00		 mov	 ecx, DWORD PTR _TYPE_CONFIG_STR
  0009b	89 0d 34 00 00
	00		 mov	 DWORD PTR _CONF_APP+52, ecx
  000a1	5d		 pop	 ebp
  000a2	c3		 ret	 0
_$E5	ENDP
text$yc	ENDS
_BSS	SEGMENT
_CONF_APP DD	0eH DUP (?)
_BSS	ENDS
END
