; Listing generated by Microsoft (R) Optimizing Compiler Version 13.10.3077 

	TITLE	.\src\util\MarkupArchive.cpp
	.386P
include listing.inc
if @Version gt 510
.model FLAT
else
_TEXT	SEGMENT PARA USE32 PUBLIC 'CODE'
_TEXT	ENDS
_DATA	SEGMENT DWORD USE32 PUBLIC 'DATA'
_DATA	ENDS
CONST	SEGMENT DWORD USE32 PUBLIC 'CONST'
CONST	ENDS
_BSS	SEGMENT DWORD USE32 PUBLIC 'BSS'
_BSS	ENDS
$$SYMBOLS	SEGMENT BYTE USE32 'DEBSYM'
$$SYMBOLS	ENDS
_TLS	SEGMENT DWORD USE32 PUBLIC 'TLS'
_TLS	ENDS
;	COMDAT ??_C@_04JAADICNI@?5?$DN?1?$FL?$AA@
CONST	SEGMENT DWORD USE32 PUBLIC 'CONST'
CONST	ENDS
;	COMDAT ??_C@_0L@GJIJNDEK@ISO?98859?91?$AA@
CONST	SEGMENT DWORD USE32 PUBLIC 'CONST'
CONST	ENDS
;	COMDAT ??_C@_01JLIPDDHJ@?3?$AA@
CONST	SEGMENT DWORD USE32 PUBLIC 'CONST'
CONST	ENDS
;	COMDAT ??_C@_0EN@IBFBLEEG@D?3?2Program?5Files?5?$CIx86?$CJ?2Microsoft@
CONST	SEGMENT DWORD USE32 PUBLIC 'CONST'
CONST	ENDS
;	COMDAT ??_C@_0BI@GIMJKKKN@AtlIsValidString?$CI?5psz?5?$CJ?$AA@
CONST	SEGMENT DWORD USE32 PUBLIC 'CONST'
CONST	ENDS
;	COMDAT ??_C@_0FH@BMBEKJNI@D?3?2Program?5Files?5?$CIx86?$CJ?2Microsoft@
CONST	SEGMENT DWORD USE32 PUBLIC 'CONST'
CONST	ENDS
rdata$r	SEGMENT DWORD USE32 PUBLIC 'CONST'
rdata$r	ENDS
xdata$x	SEGMENT DWORD USE32 PUBLIC 'CONST'
xdata$x	ENDS
text$AFX_COL1	SEGMENT PARA USE32 PUBLIC ''
text$AFX_COL1	ENDS
text$yc	SEGMENT PARA USE32 PUBLIC 'CODE'
text$yc	ENDS
CRT$XCA	SEGMENT DWORD USE32 PUBLIC 'DATA'
CRT$XCA	ENDS
CRT$XCU	SEGMENT DWORD USE32 PUBLIC 'DATA'
CRT$XCU	ENDS
CRT$XCL	SEGMENT DWORD USE32 PUBLIC 'DATA'
CRT$XCL	ENDS
CRT$XCC	SEGMENT DWORD USE32 PUBLIC 'DATA'
CRT$XCC	ENDS
CRT$XCZ	SEGMENT DWORD USE32 PUBLIC 'DATA'
CRT$XCZ	ENDS
text$yd	SEGMENT PARA USE32 PUBLIC 'CODE'
text$yd	ENDS
ATL$__m	SEGMENT DWORD USE32 PUBLIC ''
ATL$__m	ENDS
ATL$__z	SEGMENT DWORD USE32 PUBLIC ''
ATL$__z	ENDS
ATL$__a	SEGMENT DWORD USE32 PUBLIC ''
ATL$__a	ENDS
;	COMDAT ??0CMarkup@@QAE@XZ
_TEXT	SEGMENT PARA USE32 PUBLIC 'CODE'
_TEXT	ENDS
;	COMDAT ??1CMarkup@@UAE@XZ
_TEXT	SEGMENT PARA USE32 PUBLIC 'CODE'
_TEXT	ENDS
;	COMDAT ?GetDoc@CMarkup@@QBE?AV?$CStringT@DV?$StrTraitMFC_DLL@DV?$ChTraitsCRT@D@ATL@@@@@ATL@@XZ
_TEXT	SEGMENT PARA USE32 PUBLIC 'CODE'
_TEXT	ENDS
;	COMDAT ?AddElem@CMarkup@@QAE_NPBD0@Z
_TEXT	SEGMENT PARA USE32 PUBLIC 'CODE'
_TEXT	ENDS
;	COMDAT ?AddChildElem@CMarkup@@QAE_NPBD0@Z
_TEXT	SEGMENT PARA USE32 PUBLIC 'CODE'
_TEXT	ENDS
;	COMDAT ??0ElemPos@CMarkup@@QAE@XZ
_TEXT	SEGMENT PARA USE32 PUBLIC 'CODE'
_TEXT	ENDS
;	COMDAT ?IsEmptyElement@ElemPos@CMarkup@@QBE_NXZ
_TEXT	SEGMENT PARA USE32 PUBLIC 'CODE'
_TEXT	ENDS
;	COMDAT ?Clear@ElemPos@CMarkup@@QAEXXZ
_TEXT	SEGMENT PARA USE32 PUBLIC 'CODE'
_TEXT	ENDS
;	COMDAT ?Clear@TokenPos@CMarkup@@QAEXXZ
_TEXT	SEGMENT PARA USE32 PUBLIC 'CODE'
_TEXT	ENDS
;	COMDAT ?x_SetPos@CMarkup@@IAEXHHH@Z
_TEXT	SEGMENT PARA USE32 PUBLIC 'CODE'
_TEXT	ENDS
;	COMDAT ??_GCMarkup@@UAEPAXI@Z
_TEXT	SEGMENT PARA USE32 PUBLIC 'CODE'
_TEXT	ENDS
;	COMDAT ?AddElem@CMarkupArchive@@UAE_NPBD0@Z
_TEXT	SEGMENT PARA USE32 PUBLIC 'CODE'
_TEXT	ENDS
;	COMDAT ?AddChildElem@CMarkupArchive@@UAE_NPBD0@Z
_TEXT	SEGMENT PARA USE32 PUBLIC 'CODE'
_TEXT	ENDS
;	COMDAT ?FindElem@CMarkupArchive@@UAE_NPBD@Z
_TEXT	SEGMENT PARA USE32 PUBLIC 'CODE'
_TEXT	ENDS
;	COMDAT ?FindChildElem@CMarkupArchive@@UAE_NPBD@Z
_TEXT	SEGMENT PARA USE32 PUBLIC 'CODE'
_TEXT	ENDS
;	COMDAT ??_GCMarkupArchive@@UAEPAXI@Z
_TEXT	SEGMENT PARA USE32 PUBLIC 'CODE'
_TEXT	ENDS
;	COMDAT ??HATL@@YA?AV?$CStringT@DV?$StrTraitMFC_DLL@DV?$ChTraitsCRT@D@ATL@@@@@0@ABV10@PBD@Z
_TEXT	SEGMENT PARA USE32 PUBLIC 'CODE'
_TEXT	ENDS
;	COMDAT ??HATL@@YA?AV?$CStringT@DV?$StrTraitMFC_DLL@DV?$ChTraitsCRT@D@ATL@@@@@0@PBDABV10@@Z
_TEXT	SEGMENT PARA USE32 PUBLIC 'CODE'
_TEXT	ENDS
;	COMDAT ??8ATL@@YA_NABV?$CStringT@DV?$StrTraitMFC_DLL@DV?$ChTraitsCRT@D@ATL@@@@@0@0@Z
_TEXT	SEGMENT PARA USE32 PUBLIC 'CODE'
_TEXT	ENDS
;	COMDAT ??8ATL@@YA_NABV?$CStringT@DV?$StrTraitMFC_DLL@DV?$ChTraitsCRT@D@ATL@@@@@0@PBD@Z
_TEXT	SEGMENT PARA USE32 PUBLIC 'CODE'
_TEXT	ENDS
;	COMDAT ??9ATL@@YA_NABV?$CStringT@DV?$StrTraitMFC_DLL@DV?$ChTraitsCRT@D@ATL@@@@@0@PBD@Z
_TEXT	SEGMENT PARA USE32 PUBLIC 'CODE'
_TEXT	ENDS
;	COMDAT ??B?$CComPtrBase@UITypeInfo2@@@ATL@@QBEPAUITypeInfo2@@XZ
_TEXT	SEGMENT PARA USE32 PUBLIC 'CODE'
_TEXT	ENDS
;	COMDAT ?equal@?$istreambuf_iterator@DU?$char_traits@D@std@@@std@@QBE_NABV12@@Z
_TEXT	SEGMENT PARA USE32 PUBLIC 'CODE'
_TEXT	ENDS
;	COMDAT ?equal@?$istreambuf_iterator@_WU?$char_traits@_W@std@@@std@@QBE_NABV12@@Z
_TEXT	SEGMENT PARA USE32 PUBLIC 'CODE'
_TEXT	ENDS
;	COMDAT ?StringCompare@?$ChTraitsCRT@D@ATL@@SAHPBD0@Z
_TEXT	SEGMENT PARA USE32 PUBLIC 'CODE'
_TEXT	ENDS
;	COMDAT ?Unlock@?$CComCritSecLock@VCComCriticalSection@ATL@@@ATL@@QAEXXZ
_TEXT	SEGMENT PARA USE32 PUBLIC 'CODE'
_TEXT	ENDS
;	COMDAT ??0?$CArray@UElemPos@CMarkup@@AAU12@@@QAE@XZ
_TEXT	SEGMENT PARA USE32 PUBLIC 'CODE'
_TEXT	ENDS
;	COMDAT ?GetSize@?$CArray@UElemPos@CMarkup@@AAU12@@@QBEHXZ
_TEXT	SEGMENT PARA USE32 PUBLIC 'CODE'
_TEXT	ENDS
;	COMDAT ??A?$CArray@UElemPos@CMarkup@@AAU12@@@QAEAAUElemPos@CMarkup@@H@Z
_TEXT	SEGMENT PARA USE32 PUBLIC 'CODE'
_TEXT	ENDS
;	COMDAT ??1?$CArray@UElemPos@CMarkup@@AAU12@@@UAE@XZ
_TEXT	SEGMENT PARA USE32 PUBLIC 'CODE'
_TEXT	ENDS
;	COMDAT ?Serialize@?$CArray@UElemPos@CMarkup@@AAU12@@@UAEXAAVCArchive@@@Z
_TEXT	SEGMENT PARA USE32 PUBLIC 'CODE'
_TEXT	ENDS
;	COMDAT ?Dump@?$CArray@UElemPos@CMarkup@@AAU12@@@UBEXAAVCDumpContext@@@Z
_TEXT	SEGMENT PARA USE32 PUBLIC 'CODE'
_TEXT	ENDS
;	COMDAT ?AssertValid@?$CArray@UElemPos@CMarkup@@AAU12@@@UBEXXZ
_TEXT	SEGMENT PARA USE32 PUBLIC 'CODE'
_TEXT	ENDS
;	COMDAT ??$_Maklocstr@D@std@@YAPADPBDPADABU_Cvtvec@@@Z
_TEXT	SEGMENT PARA USE32 PUBLIC 'CODE'
_TEXT	ENDS
;	COMDAT ??_G?$CArray@UElemPos@CMarkup@@AAU12@@@UAEPAXI@Z
_TEXT	SEGMENT PARA USE32 PUBLIC 'CODE'
_TEXT	ENDS
;	COMDAT ?SetSize@?$CArray@UElemPos@CMarkup@@AAU12@@@QAEXHH@Z
_TEXT	SEGMENT PARA USE32 PUBLIC 'CODE'
_TEXT	ENDS
;	COMDAT ?ElementAt@?$CArray@UElemPos@CMarkup@@AAU12@@@QAEAAUElemPos@CMarkup@@H@Z
_TEXT	SEGMENT PARA USE32 PUBLIC 'CODE'
_TEXT	ENDS
;	COMDAT ??$SerializeElements@UElemPos@CMarkup@@@@YGXAAVCArchive@@PAUElemPos@CMarkup@@H@Z
_TEXT	SEGMENT PARA USE32 PUBLIC 'CODE'
_TEXT	ENDS
;	COMDAT ??$DumpElements@UElemPos@CMarkup@@@@YGXAAVCDumpContext@@PBUElemPos@CMarkup@@H@Z
_TEXT	SEGMENT PARA USE32 PUBLIC 'CODE'
_TEXT	ENDS
;	COMDAT ??_R3CMarkup@@8
rdata$r	SEGMENT DWORD USE32 PUBLIC 'CONST'
rdata$r	ENDS
;	COMDAT ??_R3?$numpunct@_W@std@@8
rdata$r	SEGMENT DWORD USE32 PUBLIC 'CONST'
rdata$r	ENDS
;	COMDAT ??_R3?$numpunct@D@std@@8
rdata$r	SEGMENT DWORD USE32 PUBLIC 'CONST'
rdata$r	ENDS
;	COMDAT ??_R3CMarkupArchive@@8
rdata$r	SEGMENT DWORD USE32 PUBLIC 'CONST'
rdata$r	ENDS
;	COMDAT ??_R3?$CArray@UElemPos@CMarkup@@AAU12@@@8
rdata$r	SEGMENT DWORD USE32 PUBLIC 'CONST'
rdata$r	ENDS
;	COMDAT ??_R2CMarkup@@8
rdata$r	SEGMENT DWORD USE32 PUBLIC 'CONST'
rdata$r	ENDS
;	COMDAT ??_R2?$numpunct@_W@std@@8
rdata$r	SEGMENT DWORD USE32 PUBLIC 'CONST'
rdata$r	ENDS
;	COMDAT ??_R2?$numpunct@D@std@@8
rdata$r	SEGMENT DWORD USE32 PUBLIC 'CONST'
rdata$r	ENDS
;	COMDAT ??_R2CMarkupArchive@@8
rdata$r	SEGMENT DWORD USE32 PUBLIC 'CONST'
rdata$r	ENDS
;	COMDAT ??_R2?$CArray@UElemPos@CMarkup@@AAU12@@@8
rdata$r	SEGMENT DWORD USE32 PUBLIC 'CONST'
rdata$r	ENDS
;	COMDAT ??_R1A@?0A@A@?$numpunct@_W@std@@8
rdata$r	SEGMENT DWORD USE32 PUBLIC 'CONST'
rdata$r	ENDS
;	COMDAT ??_R1A@?0A@A@facet@locale@std@@8
rdata$r	SEGMENT DWORD USE32 PUBLIC 'CONST'
rdata$r	ENDS
;	COMDAT ??_R0?AVfacet@locale@std@@@8
_DATA	SEGMENT DWORD USE32 PUBLIC 'DATA'
_DATA	ENDS
;	COMDAT ??_R1A@?0A@A@?$numpunct@D@std@@8
rdata$r	SEGMENT DWORD USE32 PUBLIC 'CONST'
rdata$r	ENDS
;	COMDAT ??_R1A@?0A@A@CMarkup@@8
rdata$r	SEGMENT DWORD USE32 PUBLIC 'CONST'
rdata$r	ENDS
;	COMDAT ??_R1A@?0A@A@CMarkupArchive@@8
rdata$r	SEGMENT DWORD USE32 PUBLIC 'CONST'
rdata$r	ENDS
;	COMDAT ??_R1A@?0A@A@CObject@@8
rdata$r	SEGMENT DWORD USE32 PUBLIC 'CONST'
rdata$r	ENDS
;	COMDAT ??_R0?AVCObject@@@8
_DATA	SEGMENT DWORD USE32 PUBLIC 'DATA'
_DATA	ENDS
;	COMDAT ??_R1A@?0A@A@?$CArray@UElemPos@CMarkup@@AAU12@@@8
rdata$r	SEGMENT DWORD USE32 PUBLIC 'CONST'
rdata$r	ENDS
;	COMDAT ??_R0?AV?$numpunct@_W@std@@@8
_DATA	SEGMENT DWORD USE32 PUBLIC 'DATA'
_DATA	ENDS
;	COMDAT ??_R0?AV?$numpunct@D@std@@@8
_DATA	SEGMENT DWORD USE32 PUBLIC 'DATA'
_DATA	ENDS
;	COMDAT ??_R0?AVCMarkup@@@8
_DATA	SEGMENT DWORD USE32 PUBLIC 'DATA'
_DATA	ENDS
;	COMDAT ??_R0?AVCMarkupArchive@@@8
_DATA	SEGMENT DWORD USE32 PUBLIC 'DATA'
_DATA	ENDS
;	COMDAT ??_R0?AV?$CArray@UElemPos@CMarkup@@AAU12@@@@8
_DATA	SEGMENT DWORD USE32 PUBLIC 'DATA'
_DATA	ENDS
;	COMDAT ??_R4CMarkup@@6B@
rdata$r	SEGMENT DWORD USE32 PUBLIC 'CONST'
rdata$r	ENDS
;	COMDAT ??0?$allocator@_W@std@@QAE@XZ
_TEXT	SEGMENT PARA USE32 PUBLIC 'CODE'
_TEXT	ENDS
;	COMDAT ??_G?$numpunct@_W@std@@MAEPAXI@Z
_TEXT	SEGMENT PARA USE32 PUBLIC 'CODE'
_TEXT	ENDS
;	COMDAT ??_R4?$numpunct@_W@std@@6B@
rdata$r	SEGMENT DWORD USE32 PUBLIC 'CONST'
rdata$r	ENDS
;	COMDAT ??_G?$numpunct@D@std@@MAEPAXI@Z
_TEXT	SEGMENT PARA USE32 PUBLIC 'CODE'
_TEXT	ENDS
;	COMDAT ??_R4?$numpunct@D@std@@6B@
rdata$r	SEGMENT DWORD USE32 PUBLIC 'CONST'
rdata$r	ENDS
;	COMDAT ??_R4CMarkupArchive@@6B@
rdata$r	SEGMENT DWORD USE32 PUBLIC 'CONST'
rdata$r	ENDS
;	COMDAT ??_R4?$CArray@UElemPos@CMarkup@@AAU12@@@6B@
rdata$r	SEGMENT DWORD USE32 PUBLIC 'CONST'
rdata$r	ENDS
;	COMDAT ??3@YAXPAX0@Z
_TEXT	SEGMENT PARA USE32 PUBLIC 'CODE'
_TEXT	ENDS
;	COMDAT ??2@YAPAXIPAX@Z
_TEXT	SEGMENT PARA USE32 PUBLIC 'CODE'
_TEXT	ENDS
;	COMDAT ??_C@_0EN@CBMLGOH@D?3?2Program?5Files?5?$CIx86?$CJ?2Microsoft@
CONST	SEGMENT DWORD USE32 PUBLIC 'CONST'
CONST	ENDS
;	COMDAT ??_7?$CArray@UElemPos@CMarkup@@AAU12@@@6B@
CONST	SEGMENT DWORD USE32 PUBLIC 'CONST'
CONST	ENDS
;	COMDAT ?_Psave@?$_Facetptr@V?$numpunct@_W@std@@@std@@2PBVfacet@locale@2@B
_DATA	SEGMENT DWORD USE32 PUBLIC 'DATA'
_DATA	ENDS
;	COMDAT ?_Psave@?$_Facetptr@V?$numpunct@D@std@@@std@@2PBVfacet@locale@2@B
_DATA	SEGMENT DWORD USE32 PUBLIC 'DATA'
_DATA	ENDS
;	COMDAT ?Unlock@CComCriticalSection@ATL@@QAEJXZ
_TEXT	SEGMENT PARA USE32 PUBLIC 'CODE'
_TEXT	ENDS
;	COMDAT ??_C@_0FG@LDNDNCJM@D?3?2Program?5Files?5?$CIx86?$CJ?2Microsoft@
CONST	SEGMENT DWORD USE32 PUBLIC 'CONST'
CONST	ENDS
;	COMDAT ??_C@_09HIEJFN@m_bLocked?$AA@
CONST	SEGMENT DWORD USE32 PUBLIC 'CONST'
CONST	ENDS
;	COMDAT ?_Psave@?$_Facetptr@V?$ctype@_W@std@@@std@@2PBVfacet@locale@2@B
_DATA	SEGMENT DWORD USE32 PUBLIC 'DATA'
_DATA	ENDS
;	COMDAT ?_Psave@?$_Facetptr@V?$ctype@D@std@@@std@@2PBVfacet@locale@2@B
_DATA	SEGMENT DWORD USE32 PUBLIC 'DATA'
_DATA	ENDS
;	COMDAT ??$_Maklocchr@_W@std@@YA_WDPA_WABU_Cvtvec@@@Z
_TEXT	SEGMENT PARA USE32 PUBLIC 'CODE'
_TEXT	ENDS
;	COMDAT ??$_DebugHeapDelete@X@std@@YAXPAX@Z
_TEXT	SEGMENT PARA USE32 PUBLIC 'CODE'
_TEXT	ENDS
;	COMDAT ??$_Maklocstr@_W@std@@YAPA_WPBDPA_WABU_Cvtvec@@@Z
_TEXT	SEGMENT PARA USE32 PUBLIC 'CODE'
_TEXT	ENDS
;	COMDAT ??$_Maklocchr@D@std@@YADDPADABU_Cvtvec@@@Z
_TEXT	SEGMENT PARA USE32 PUBLIC 'CODE'
_TEXT	ENDS
;	COMDAT ??_C@_04LOAJBDKD@true?$AA@
CONST	SEGMENT DWORD USE32 PUBLIC 'CONST'
CONST	ENDS
;	COMDAT ??_C@_05LAPONLG@false?$AA@
CONST	SEGMENT DWORD USE32 PUBLIC 'CONST'
CONST	ENDS
;	COMDAT _wmemcpy
_TEXT	SEGMENT PARA USE32 PUBLIC 'CODE'
_TEXT	ENDS
;	COMDAT ?max_size@?$allocator@_W@std@@QBEIXZ
_TEXT	SEGMENT PARA USE32 PUBLIC 'CODE'
_TEXT	ENDS
;	COMDAT ?allocate@?$allocator@_W@std@@QAEPA_WI@Z
_TEXT	SEGMENT PARA USE32 PUBLIC 'CODE'
_TEXT	ENDS
;	COMDAT ??$_Allocate@_W@std@@YAPA_WIPA_W@Z
_TEXT	SEGMENT PARA USE32 PUBLIC 'CODE'
_TEXT	ENDS
;	COMDAT ??_C@_0N@ILOMLJGA@nLength?5?$DO?$DN?50?$AA@
CONST	SEGMENT DWORD USE32 PUBLIC 'CONST'
CONST	ENDS
;	COMDAT ??_C@_0CD@EEFFJEGJ@nLength?5?$DM?$DN?5GetData?$CI?$CJ?9?$DOnAllocLeng@
CONST	SEGMENT DWORD USE32 PUBLIC 'CONST'
CONST	ENDS
;	COMDAT ?data@CStringData@ATL@@QAEPAXXZ
_TEXT	SEGMENT PARA USE32 PUBLIC 'CODE'
_TEXT	ENDS
;	COMDAT ?AtlThrow@ATL@@YGXJ@Z
_TEXT	SEGMENT PARA USE32 PUBLIC 'CODE'
_TEXT	ENDS
;	COMDAT ??RCTraceFileAndLineInfo@ATL@@QBAXKIPBDZZ
_TEXT	SEGMENT PARA USE32 PUBLIC 'CODE'
_TEXT	ENDS
;	COMDAT ?TraceV@CTrace@ATL@@QBAXPBDHKI0PAD@Z
_TEXT	SEGMENT PARA USE32 PUBLIC 'CODE'
_TEXT	ENDS
;	COMDAT ??0CTraceFileAndLineInfo@ATL@@QAE@PBDH@Z
_TEXT	SEGMENT PARA USE32 PUBLIC 'CODE'
_TEXT	ENDS
;	COMDAT ??_C@_0FI@NHHJANPC@D?3?2Program?5Files?5?$CIx86?$CJ?2Microsoft@
CONST	SEGMENT DWORD USE32 PUBLIC 'CONST'
CONST	ENDS
;	COMDAT ??_C@_0BF@IAAKIJDJ@AtlThrow?3?5hr?5?$DN?50x?$CFx?6?$AA@
CONST	SEGMENT DWORD USE32 PUBLIC 'CONST'
CONST	ENDS
;	COMDAT ??BCTraceCategory@ATL@@QBEKXZ
_TEXT	SEGMENT PARA USE32 PUBLIC 'CODE'
_TEXT	ENDS
;	COMDAT ??_C@_0FJ@DMHPDOJC@D?3?2Program?5Files?5?$CIx86?$CJ?2Microsoft@
CONST	SEGMENT DWORD USE32 PUBLIC 'CONST'
CONST	ENDS
;	COMDAT ??_C@_0BA@GOIMFHNK@pStringMgr?5?$CB?$DN?50?$AA@
CONST	SEGMENT DWORD USE32 PUBLIC 'CONST'
CONST	ENDS
;	COMDAT ??_C@_01GFHCPBMG@C?$AA@
CONST	SEGMENT DWORD USE32 PUBLIC 'CONST'
CONST	ENDS
;	COMDAT ?max_size@?$allocator@D@std@@QBEIXZ
_TEXT	SEGMENT PARA USE32 PUBLIC 'CODE'
_TEXT	ENDS
;	COMDAT ?allocate@?$allocator@D@std@@QAEPADI@Z
_TEXT	SEGMENT PARA USE32 PUBLIC 'CODE'
_TEXT	ENDS
;	COMDAT ??$_Allocate@D@std@@YAPADIPAD@Z
_TEXT	SEGMENT PARA USE32 PUBLIC 'CODE'
_TEXT	ENDS
;	COMDAT ?deallocate@?$allocator@D@std@@QAEXPADI@Z
_TEXT	SEGMENT PARA USE32 PUBLIC 'CODE'
_TEXT	ENDS
;	COMDAT ??_C@_0FH@KDPNIMBO@D?3?2Program?5Files?5?$CIx86?$CJ?2Microsoft@
CONST	SEGMENT DWORD USE32 PUBLIC 'CONST'
CONST	ENDS
;	COMDAT ?AtlIsValidString@ATL@@YAHPBDI@Z
_TEXT	SEGMENT PARA USE32 PUBLIC 'CODE'
_TEXT	ENDS
;	COMDAT ?Release@CStringData@ATL@@QAEXXZ
_TEXT	SEGMENT PARA USE32 PUBLIC 'CODE'
_TEXT	ENDS
;	COMDAT ??_C@_0L@OIIMFBNE@nRefs?5?$CB?$DN?50?$AA@
CONST	SEGMENT DWORD USE32 PUBLIC 'CONST'
CONST	ENDS
;	COMDAT ??_C@_0BA@GNIEOBOF@nNewLength?5?$DO?$DN?50?$AA@
CONST	SEGMENT DWORD USE32 PUBLIC 'CONST'
CONST	ENDS
;	COMDAT ?IsShared@CStringData@ATL@@QBE_NXZ
_TEXT	SEGMENT PARA USE32 PUBLIC 'CODE'
_TEXT	ENDS
;	COMDAT ??_C@_0CB@GFHAPKDK@pOldData?9?$DOnAllocLength?5?$DM?5nLength@
CONST	SEGMENT DWORD USE32 PUBLIC 'CONST'
CONST	ENDS
;	COMDAT ?_Peek@?$istreambuf_iterator@_WU?$char_traits@_W@std@@@std@@AAE_WXZ
_TEXT	SEGMENT PARA USE32 PUBLIC 'CODE'
_TEXT	ENDS
;	COMDAT ?_Peek@?$istreambuf_iterator@DU?$char_traits@D@std@@@std@@AAEDXZ
_TEXT	SEGMENT PARA USE32 PUBLIC 'CODE'
_TEXT	ENDS
;	COMDAT ??$use_facet@V?$ctype@_W@std@@@std@@YAABV?$ctype@_W@0@ABVlocale@0@@Z
_TEXT	SEGMENT PARA USE32 PUBLIC 'CODE'
_TEXT	ENDS
;	COMDAT ??_S?$ctype@_W@std@@6B@
CONST	SEGMENT DWORD USE32 PUBLIC 'CONST'
CONST	ENDS
;	COMDAT ??_R4?$ctype@_W@std@@6B@
rdata$r	SEGMENT DWORD USE32 PUBLIC 'CONST'
rdata$r	ENDS
;	COMDAT ??_R0?AV?$ctype@_W@std@@@8
_DATA	SEGMENT DWORD USE32 PUBLIC 'DATA'
_DATA	ENDS
;	COMDAT ??_R3?$ctype@_W@std@@8
rdata$r	SEGMENT DWORD USE32 PUBLIC 'CONST'
rdata$r	ENDS
;	COMDAT ??_R2?$ctype@_W@std@@8
rdata$r	SEGMENT DWORD USE32 PUBLIC 'CONST'
rdata$r	ENDS
;	COMDAT ??_R1A@?0A@A@?$ctype@_W@std@@8
rdata$r	SEGMENT DWORD USE32 PUBLIC 'CONST'
rdata$r	ENDS
;	COMDAT ??_R1A@?0A@A@ctype_base@std@@8
rdata$r	SEGMENT DWORD USE32 PUBLIC 'CONST'
rdata$r	ENDS
;	COMDAT ??_R0?AUctype_base@std@@@8
_DATA	SEGMENT DWORD USE32 PUBLIC 'DATA'
_DATA	ENDS
;	COMDAT ??_G?$ctype@_W@std@@MAEPAXI@Z
_TEXT	SEGMENT PARA USE32 PUBLIC 'CODE'
_TEXT	ENDS
;	COMDAT ??_C@_08EPJLHIJG@bad?5cast?$AA@
CONST	SEGMENT DWORD USE32 PUBLIC 'CONST'
CONST	ENDS
;	COMDAT __TI2?AVbad_cast@@
xdata$x	SEGMENT DWORD USE32 PUBLIC 'CONST'
xdata$x	ENDS
;	COMDAT __CTA2?AVbad_cast@@
xdata$x	SEGMENT DWORD USE32 PUBLIC 'CONST'
xdata$x	ENDS
;	COMDAT __CT??_R0?AVbad_cast@@@8??0bad_cast@@QAE@ABV0@@Z12
xdata$x	SEGMENT DWORD USE32 PUBLIC 'CONST'
xdata$x	ENDS
;	COMDAT ??_R0?AVbad_cast@@@8
_DATA	SEGMENT DWORD USE32 PUBLIC 'DATA'
_DATA	ENDS
;	COMDAT __CT??_R0?AVexception@@@8??0exception@@QAE@ABV0@@Z12
xdata$x	SEGMENT DWORD USE32 PUBLIC 'CONST'
xdata$x	ENDS
;	COMDAT ??_R0?AVexception@@@8
_DATA	SEGMENT DWORD USE32 PUBLIC 'DATA'
_DATA	ENDS
;	COMDAT ??$_DebugHeapDelete@Vfacet@locale@std@@@std@@YAXPAVfacet@locale@0@@Z
_TEXT	SEGMENT PARA USE32 PUBLIC 'CODE'
_TEXT	ENDS
;	COMDAT ??$use_facet@V?$ctype@D@std@@@std@@YAABV?$ctype@D@0@ABVlocale@0@@Z
_TEXT	SEGMENT PARA USE32 PUBLIC 'CODE'
_TEXT	ENDS
;	COMDAT ??_S?$ctype@D@std@@6B@
CONST	SEGMENT DWORD USE32 PUBLIC 'CONST'
CONST	ENDS
;	COMDAT ??_R4?$ctype@D@std@@6B@
rdata$r	SEGMENT DWORD USE32 PUBLIC 'CONST'
rdata$r	ENDS
;	COMDAT ??_R0?AV?$ctype@D@std@@@8
_DATA	SEGMENT DWORD USE32 PUBLIC 'DATA'
_DATA	ENDS
;	COMDAT ??_R3?$ctype@D@std@@8
rdata$r	SEGMENT DWORD USE32 PUBLIC 'CONST'
rdata$r	ENDS
;	COMDAT ??_R2?$ctype@D@std@@8
rdata$r	SEGMENT DWORD USE32 PUBLIC 'CONST'
rdata$r	ENDS
;	COMDAT ??_R1A@?0A@A@?$ctype@D@std@@8
rdata$r	SEGMENT DWORD USE32 PUBLIC 'CONST'
rdata$r	ENDS
;	COMDAT ??_G?$ctype@D@std@@MAEPAXI@Z
_TEXT	SEGMENT PARA USE32 PUBLIC 'CODE'
_TEXT	ENDS
;	COMDAT ??_S?$numpunct@_W@std@@6B@
CONST	SEGMENT DWORD USE32 PUBLIC 'CONST'
CONST	ENDS
;	COMDAT ??_S?$numpunct@D@std@@6B@
CONST	SEGMENT DWORD USE32 PUBLIC 'CONST'
CONST	ENDS
;	COMDAT _wmemmove
_TEXT	SEGMENT PARA USE32 PUBLIC 'CODE'
_TEXT	ENDS
;	COMDAT ?deallocate@?$allocator@_W@std@@QAEXPA_WI@Z
_TEXT	SEGMENT PARA USE32 PUBLIC 'CODE'
_TEXT	ENDS
;	COMDAT ??0?$allocator@_W@std@@QAE@ABV01@@Z
_TEXT	SEGMENT PARA USE32 PUBLIC 'CODE'
_TEXT	ENDS
;	COMDAT ??0?$allocator@D@std@@QAE@ABV01@@Z
_TEXT	SEGMENT PARA USE32 PUBLIC 'CODE'
_TEXT	ENDS
;	COMDAT ??0?$allocator@D@std@@QAE@XZ
_TEXT	SEGMENT PARA USE32 PUBLIC 'CODE'
_TEXT	ENDS
;	COMDAT ?IsLocked@CStringData@ATL@@QBE_NXZ
_TEXT	SEGMENT PARA USE32 PUBLIC 'CODE'
_TEXT	ENDS
;	COMDAT ??_7CMarkupArchive@@6B@
CONST	SEGMENT DWORD USE32 PUBLIC 'CONST'
CONST	ENDS
;	COMDAT __tcschr
_TEXT	SEGMENT PARA USE32 PUBLIC 'CODE'
_TEXT	ENDS
;	COMDAT __tcsnccmp
_TEXT	SEGMENT PARA USE32 PUBLIC 'CODE'
_TEXT	ENDS
;	COMDAT ?AddRef@CStringData@ATL@@QAEXXZ
_TEXT	SEGMENT PARA USE32 PUBLIC 'CODE'
_TEXT	ENDS
;	COMDAT ??_C@_09EEBKLCFA@nRefs?5?$DO?50?$AA@
CONST	SEGMENT DWORD USE32 PUBLIC 'CONST'
CONST	ENDS
;	COMDAT ?GetDefaultManager@?$StrTraitMFC_DLL@DV?$ChTraitsCRT@D@ATL@@@@SAPAUIAtlStringMgr@ATL@@XZ
_TEXT	SEGMENT PARA USE32 PUBLIC 'CODE'
_TEXT	ENDS
;	COMDAT ??_7CMarkup@@6B@
CONST	SEGMENT DWORD USE32 PUBLIC 'CONST'
CONST	ENDS
sxdata	SEGMENT DWORD USE32 'SXDATA'
sxdata	ENDS
FLAT	GROUP _DATA, CONST, _BSS
	ASSUME	CS: FLAT, DS: FLAT, SS: FLAT
endif

INCLUDELIB MSVCRTD
INCLUDELIB OLDNAMES

CONST	SEGMENT
$SG187704 DB	'.\src\util\MarkupArchive.cpp', 00H
	ORG $+3
$SG187720 DB	'.temp', 00H
	ORG $+2
$SG187731 DB	'panel.xml.temp is 0 byte:', 00H
	ORG $+2
$SG187732 DB	'SAVEPANEL', 00H
	ORG $+2
$SG187738 DB	'Open panel.xml.temp file failed:', 00H
	ORG $+3
$SG187739 DB	'SAVEPANEL', 00H
	ORG $+2
$SG187746 DB	'Copy panel.xml.temp to panel.xml failed:', 00H
	ORG $+3
$SG187747 DB	'SAVEPANEL', 00H
$SG187754 DB	00H
$SG187778 DB	00H
$SG187808 DB	00H
	ORG $+7
$SG188000 DB	'D:\Program Files (x86)\Microsoft Visual Studio .NET 2003'
	DB	'\Vc7\atlmfc\include\afxtempl.h', 00H
	ORG $+1
$SG188014 DB	'D:\Program Files (x86)\Microsoft Visual Studio .NET 2003'
	DB	'\Vc7\atlmfc\include\afxtempl.h', 00H
	ORG $+1
$SG188030 DB	'with ', 00H
	ORG $+2
$SG188031 DB	' elements', 00H
	ORG $+2
$SG188033 DB	0aH, 00H
	ORG $+2
$SG188040 DB	0aH, 00H
	ORG $+6
$SG188048 DB	'D:\Program Files (x86)\Microsoft Visual Studio .NET 2003'
	DB	'\Vc7\atlmfc\include\afxtempl.h', 00H
	ORG $+1
$SG188050 DB	'D:\Program Files (x86)\Microsoft Visual Studio .NET 2003'
	DB	'\Vc7\atlmfc\include\afxtempl.h', 00H
	ORG $+1
$SG188053 DB	'D:\Program Files (x86)\Microsoft Visual Studio .NET 2003'
	DB	'\Vc7\atlmfc\include\afxtempl.h', 00H
	ORG $+1
$SG188055 DB	'D:\Program Files (x86)\Microsoft Visual Studio .NET 2003'
	DB	'\Vc7\atlmfc\include\afxtempl.h', 00H
	ORG $+1
$SG188057 DB	'D:\Program Files (x86)\Microsoft Visual Studio .NET 2003'
	DB	'\Vc7\atlmfc\include\afxtempl.h', 00H
	ORG $+1
$SG188060 DB	'D:\Program Files (x86)\Microsoft Visual Studio .NET 2003'
	DB	'\Vc7\atlmfc\include\afxtempl.h', 00H
	ORG $+1
$SG188083 DB	'D:\Program Files (x86)\Microsoft Visual Studio .NET 2003'
	DB	'\Vc7\atlmfc\include\afxtempl.h', 00H
	ORG $+1
$SG188085 DB	'D:\Program Files (x86)\Microsoft Visual Studio .NET 2003'
	DB	'\Vc7\atlmfc\include\afxtempl.h', 00H
	ORG $+1
$SG188100 DB	'D:\Program Files (x86)\Microsoft Visual Studio .NET 2003'
	DB	'\Vc7\atlmfc\include\afxtempl.h', 00H
	ORG $+1
$SG188107 DB	'D:\Program Files (x86)\Microsoft Visual Studio .NET 2003'
	DB	'\Vc7\atlmfc\include\afxtempl.h', 00H
	ORG $+1
$SG188149 DB	'D:\Program Files (x86)\Microsoft Visual Studio .NET 2003'
	DB	'\Vc7\atlmfc\include\afxtempl.h', 00H
	ORG $+1
$SG188153 DB	'D:\Program Files (x86)\Microsoft Visual Studio .NET 2003'
	DB	'\Vc7\atlmfc\include\afxtempl.h', 00H
	ORG $+1
$SG188163 DB	'D:\Program Files (x86)\Microsoft Visual Studio .NET 2003'
	DB	'\Vc7\atlmfc\include\afxtempl.h', 00H
	ORG $+1
$SG188192 DB	'D:\Program Files (x86)\Microsoft Visual Studio .NET 2003'
	DB	'\Vc7\atlmfc\include\afxtempl.h', 00H
	ORG $+1
$SG188217 DB	'D:\Program Files (x86)\Microsoft Visual Studio .NET 2003'
	DB	'\Vc7\atlmfc\include\afxtempl.h', 00H
CONST	ENDS
PUBLIC	??_7CMarkupArchive@@6B@				; CMarkupArchive::`vftable'
PUBLIC	??_GCMarkupArchive@@UAEPAXI@Z			; CMarkupArchive::`scalar deleting destructor'
PUBLIC	??1CMarkup@@UAE@XZ				; CMarkup::~CMarkup
PUBLIC	??_R4CMarkupArchive@@6B@			; CMarkupArchive::`RTTI Complete Object Locator'
PUBLIC	??_R0?AVCMarkupArchive@@@8			; CMarkupArchive `RTTI Type Descriptor'
PUBLIC	??_R3CMarkupArchive@@8				; CMarkupArchive::`RTTI Class Hierarchy Descriptor'
PUBLIC	??_R2CMarkupArchive@@8				; CMarkupArchive::`RTTI Base Class Array'
PUBLIC	??_R1A@?0A@A@CMarkupArchive@@8			; CMarkupArchive::`RTTI Base Class Descriptor at (0,-1,0,0)'
PUBLIC	??_R1A@?0A@A@CMarkup@@8				; CMarkup::`RTTI Base Class Descriptor at (0,-1,0,0)'
PUBLIC	??_R0?AVCMarkup@@@8				; CMarkup `RTTI Type Descriptor'
PUBLIC	??1CMarkupArchive@@UAE@XZ			; CMarkupArchive::~CMarkupArchive
PUBLIC	?Close@CMarkupArchive@@QAE_NXZ			; CMarkupArchive::Close
PUBLIC	?AddElem@CMarkupArchive@@UAE_NPBD0@Z		; CMarkupArchive::AddElem
PUBLIC	?AddChildElem@CMarkupArchive@@UAE_NPBD0@Z	; CMarkupArchive::AddChildElem
PUBLIC	?FindElem@CMarkupArchive@@UAE_NPBD@Z		; CMarkupArchive::FindElem
PUBLIC	?FindChildElem@CMarkupArchive@@UAE_NPBD@Z	; CMarkupArchive::FindChildElem
EXTRN	??_ECMarkupArchive@@UAEPAXI@Z:NEAR		; CMarkupArchive::`vector deleting destructor'
EXTRN	__RTC_InitBase:NEAR
EXTRN	__RTC_Shutdown:NEAR
EXTRN	__RTC_CheckEsp:NEAR
EXTRN	__except_list:DWORD
EXTRN	___CxxFrameHandler:NEAR
EXTRN	__imp_??1?$CStringT@DV?$StrTraitMFC_DLL@DV?$ChTraitsCRT@D@ATL@@@@@ATL@@QAE@XZ:NEAR
EXTRN	??_7type_info@@6B@:QWORD			; type_info::`vftable'
;	COMDAT rtc$IMZ
; File d:\boxgit\playbox\playbox\dev\prj\playbox\src\util\markuparchive.cpp
rtc$IMZ	SEGMENT
__RTC_InitBase.rtc$IMZ DD FLAT:__RTC_InitBase
rtc$IMZ	ENDS
;	COMDAT rtc$TMZ
rtc$TMZ	SEGMENT
__RTC_Shutdown.rtc$TMZ DD FLAT:__RTC_Shutdown
rtc$TMZ	ENDS
xdata$x	SEGMENT
$T188660 DD	0ffffffffH
	DD	FLAT:$L188648
	DD	00H
	DD	FLAT:$L188649
	DD	01H
	DD	FLAT:$L188650
	DD	02H
	DD	FLAT:$L188651
	DD	03H
	DD	FLAT:$L188652
$T188656 DD	019930520H
	DD	05H
	DD	FLAT:$T188660
	DD	2 DUP(00H)
	DD	2 DUP(00H)
xdata$x	ENDS
;	COMDAT ??_7CMarkupArchive@@6B@
CONST	SEGMENT
??_7CMarkupArchive@@6B@ DD FLAT:??_R4CMarkupArchive@@6B@ ; CMarkupArchive::`vftable'
	DD	FLAT:??_ECMarkupArchive@@UAEPAXI@Z
	DD	FLAT:?AddElem@CMarkupArchive@@UAE_NPBD0@Z
	DD	FLAT:?AddChildElem@CMarkupArchive@@UAE_NPBD0@Z
	DD	FLAT:?FindElem@CMarkupArchive@@UAE_NPBD@Z
	DD	FLAT:?FindChildElem@CMarkupArchive@@UAE_NPBD@Z
CONST	ENDS
;	COMDAT ??_R4CMarkupArchive@@6B@
rdata$r	SEGMENT
??_R4CMarkupArchive@@6B@ DD 00H				; CMarkupArchive::`RTTI Complete Object Locator'
	DD	00H
	DD	00H
	DD	FLAT:??_R0?AVCMarkupArchive@@@8
	DD	FLAT:??_R3CMarkupArchive@@8
rdata$r	ENDS
;	COMDAT ??_R0?AVCMarkupArchive@@@8
_DATA	SEGMENT
??_R0?AVCMarkupArchive@@@8 DD FLAT:??_7type_info@@6B@	; CMarkupArchive `RTTI Type Descriptor'
	DD	00H
	DB	'.?AVCMarkupArchive@@', 00H
_DATA	ENDS
;	COMDAT ??_R3CMarkupArchive@@8
rdata$r	SEGMENT
??_R3CMarkupArchive@@8 DD 00H				; CMarkupArchive::`RTTI Class Hierarchy Descriptor'
	DD	00H
	DD	02H
	DD	FLAT:??_R2CMarkupArchive@@8
rdata$r	ENDS
;	COMDAT ??_R2CMarkupArchive@@8
rdata$r	SEGMENT
??_R2CMarkupArchive@@8 DD FLAT:??_R1A@?0A@A@CMarkupArchive@@8 ; CMarkupArchive::`RTTI Base Class Array'
	DD	FLAT:??_R1A@?0A@A@CMarkup@@8
rdata$r	ENDS
;	COMDAT ??_R1A@?0A@A@CMarkupArchive@@8
rdata$r	SEGMENT
??_R1A@?0A@A@CMarkupArchive@@8 DD FLAT:??_R0?AVCMarkupArchive@@@8 ; CMarkupArchive::`RTTI Base Class Descriptor at (0,-1,0,0)'
	DD	01H
	DD	00H
	DD	0ffffffffH
	DD	00H
	DD	00H
rdata$r	ENDS
;	COMDAT ??_R1A@?0A@A@CMarkup@@8
rdata$r	SEGMENT
??_R1A@?0A@A@CMarkup@@8 DD FLAT:??_R0?AVCMarkup@@@8	; CMarkup::`RTTI Base Class Descriptor at (0,-1,0,0)'
	DD	00H
	DD	00H
	DD	0ffffffffH
	DD	00H
	DD	00H
rdata$r	ENDS
;	COMDAT ??_R0?AVCMarkup@@@8
_DATA	SEGMENT
??_R0?AVCMarkup@@@8 DD FLAT:??_7type_info@@6B@		; CMarkup `RTTI Type Descriptor'
	DD	00H
	DB	'.?AVCMarkup@@', 00H
; Function compile flags: /Odt /RTCsu
_DATA	ENDS
_TEXT	SEGMENT
_this$ = -16						; size = 4
__$EHRec$ = -12						; size = 12
??1CMarkupArchive@@UAE@XZ PROC NEAR			; CMarkupArchive::~CMarkupArchive
; _this$ = ecx

; 15   : {

  00000	55		 push	 ebp
  00001	8b ec		 mov	 ebp, esp
  00003	6a ff		 push	 -1
  00005	68 00 00 00 00	 push	 __ehhandler$??1CMarkupArchive@@UAE@XZ
  0000a	64 a1 00 00 00
	00		 mov	 eax, DWORD PTR fs:__except_list
  00010	50		 push	 eax
  00011	64 89 25 00 00
	00 00		 mov	 DWORD PTR fs:__except_list, esp
  00018	51		 push	 ecx
  00019	56		 push	 esi
  0001a	c7 45 f0 cc cc
	cc cc		 mov	 DWORD PTR [ebp-16], -858993460 ; ccccccccH
  00021	89 4d f0	 mov	 DWORD PTR _this$[ebp], ecx
  00024	8b 45 f0	 mov	 eax, DWORD PTR _this$[ebp]
  00027	c7 00 00 00 00
	00		 mov	 DWORD PTR [eax], OFFSET FLAT:??_7CMarkupArchive@@6B@
  0002d	c7 45 fc 04 00
	00 00		 mov	 DWORD PTR __$EHRec$[ebp+8], 4

; 16   : 	Close();

  00034	8b 4d f0	 mov	 ecx, DWORD PTR _this$[ebp]
  00037	e8 00 00 00 00	 call	 ?Close@CMarkupArchive@@QAE_NXZ ; CMarkupArchive::Close

; 17   : }

  0003c	c6 45 fc 03	 mov	 BYTE PTR __$EHRec$[ebp+8], 3
  00040	8b 4d f0	 mov	 ecx, DWORD PTR _this$[ebp]
  00043	83 c1 50	 add	 ecx, 80			; 00000050H
  00046	8b f4		 mov	 esi, esp
  00048	ff 15 00 00 00
	00		 call	 DWORD PTR __imp_??1?$CStringT@DV?$StrTraitMFC_DLL@DV?$ChTraitsCRT@D@ATL@@@@@ATL@@QAE@XZ
  0004e	3b f4		 cmp	 esi, esp
  00050	e8 00 00 00 00	 call	 __RTC_CheckEsp
  00055	c6 45 fc 02	 mov	 BYTE PTR __$EHRec$[ebp+8], 2
  00059	8b 4d f0	 mov	 ecx, DWORD PTR _this$[ebp]
  0005c	83 c1 4c	 add	 ecx, 76			; 0000004cH
  0005f	8b f4		 mov	 esi, esp
  00061	ff 15 00 00 00
	00		 call	 DWORD PTR __imp_??1?$CStringT@DV?$StrTraitMFC_DLL@DV?$ChTraitsCRT@D@ATL@@@@@ATL@@QAE@XZ
  00067	3b f4		 cmp	 esi, esp
  00069	e8 00 00 00 00	 call	 __RTC_CheckEsp
  0006e	c6 45 fc 01	 mov	 BYTE PTR __$EHRec$[ebp+8], 1
  00072	8b 4d f0	 mov	 ecx, DWORD PTR _this$[ebp]
  00075	83 c1 48	 add	 ecx, 72			; 00000048H
  00078	8b f4		 mov	 esi, esp
  0007a	ff 15 00 00 00
	00		 call	 DWORD PTR __imp_??1?$CStringT@DV?$StrTraitMFC_DLL@DV?$ChTraitsCRT@D@ATL@@@@@ATL@@QAE@XZ
  00080	3b f4		 cmp	 esi, esp
  00082	e8 00 00 00 00	 call	 __RTC_CheckEsp
  00087	c6 45 fc 00	 mov	 BYTE PTR __$EHRec$[ebp+8], 0
  0008b	8b 4d f0	 mov	 ecx, DWORD PTR _this$[ebp]
  0008e	83 c1 40	 add	 ecx, 64			; 00000040H
  00091	8b f4		 mov	 esi, esp
  00093	ff 15 00 00 00
	00		 call	 DWORD PTR __imp_??1?$CStringT@DV?$StrTraitMFC_DLL@DV?$ChTraitsCRT@D@ATL@@@@@ATL@@QAE@XZ
  00099	3b f4		 cmp	 esi, esp
  0009b	e8 00 00 00 00	 call	 __RTC_CheckEsp
  000a0	c7 45 fc ff ff
	ff ff		 mov	 DWORD PTR __$EHRec$[ebp+8], -1
  000a7	8b 4d f0	 mov	 ecx, DWORD PTR _this$[ebp]
  000aa	e8 00 00 00 00	 call	 ??1CMarkup@@UAE@XZ	; CMarkup::~CMarkup
  000af	8b 4d f4	 mov	 ecx, DWORD PTR __$EHRec$[ebp]
  000b2	64 89 0d 00 00
	00 00		 mov	 DWORD PTR fs:__except_list, ecx
  000b9	5e		 pop	 esi
  000ba	83 c4 10	 add	 esp, 16			; 00000010H
  000bd	3b ec		 cmp	 ebp, esp
  000bf	e8 00 00 00 00	 call	 __RTC_CheckEsp
  000c4	8b e5		 mov	 esp, ebp
  000c6	5d		 pop	 ebp
  000c7	c3		 ret	 0
_TEXT	ENDS
text$x	SEGMENT
$L188648:
  00000	8b 4d f0	 mov	 ecx, DWORD PTR _this$[ebp]
  00003	e9 00 00 00 00	 jmp	 ??1CMarkup@@UAE@XZ	; CMarkup::~CMarkup
$L188649:
  00008	8b 4d f0	 mov	 ecx, DWORD PTR _this$[ebp]
  0000b	83 c1 40	 add	 ecx, 64			; 00000040H
  0000e	8b f4		 mov	 esi, esp
  00010	ff 15 00 00 00
	00		 call	 DWORD PTR __imp_??1?$CStringT@DV?$StrTraitMFC_DLL@DV?$ChTraitsCRT@D@ATL@@@@@ATL@@QAE@XZ
  00016	3b f4		 cmp	 esi, esp
  00018	e9 00 00 00 00	 jmp	 __RTC_CheckEsp
$L188650:
  0001d	8b 4d f0	 mov	 ecx, DWORD PTR _this$[ebp]
  00020	83 c1 48	 add	 ecx, 72			; 00000048H
  00023	8b f4		 mov	 esi, esp
  00025	ff 15 00 00 00
	00		 call	 DWORD PTR __imp_??1?$CStringT@DV?$StrTraitMFC_DLL@DV?$ChTraitsCRT@D@ATL@@@@@ATL@@QAE@XZ
  0002b	3b f4		 cmp	 esi, esp
  0002d	e9 00 00 00 00	 jmp	 __RTC_CheckEsp
$L188651:
  00032	8b 4d f0	 mov	 ecx, DWORD PTR _this$[ebp]
  00035	83 c1 4c	 add	 ecx, 76			; 0000004cH
  00038	8b f4		 mov	 esi, esp
  0003a	ff 15 00 00 00
	00		 call	 DWORD PTR __imp_??1?$CStringT@DV?$StrTraitMFC_DLL@DV?$ChTraitsCRT@D@ATL@@@@@ATL@@QAE@XZ
  00040	3b f4		 cmp	 esi, esp
  00042	e9 00 00 00 00	 jmp	 __RTC_CheckEsp
$L188652:
  00047	8b 4d f0	 mov	 ecx, DWORD PTR _this$[ebp]
  0004a	83 c1 50	 add	 ecx, 80			; 00000050H
  0004d	8b f4		 mov	 esi, esp
  0004f	ff 15 00 00 00
	00		 call	 DWORD PTR __imp_??1?$CStringT@DV?$StrTraitMFC_DLL@DV?$ChTraitsCRT@D@ATL@@@@@ATL@@QAE@XZ
  00055	3b f4		 cmp	 esi, esp
  00057	e9 00 00 00 00	 jmp	 __RTC_CheckEsp
__ehhandler$??1CMarkupArchive@@UAE@XZ:
  0005c	b8 00 00 00 00	 mov	 eax, OFFSET FLAT:$T188656
  00061	e9 00 00 00 00	 jmp	 ___CxxFrameHandler
text$x	ENDS
??1CMarkupArchive@@UAE@XZ ENDP				; CMarkupArchive::~CMarkupArchive
PUBLIC	??1?$CArray@UElemPos@CMarkup@@AAU12@@@UAE@XZ	; CArray<CMarkup::ElemPos,CMarkup::ElemPos &>::~CArray<CMarkup::ElemPos,CMarkup::ElemPos &>
PUBLIC	??_R4CMarkup@@6B@				; CMarkup::`RTTI Complete Object Locator'
PUBLIC	??_R3CMarkup@@8					; CMarkup::`RTTI Class Hierarchy Descriptor'
PUBLIC	??_R2CMarkup@@8					; CMarkup::`RTTI Base Class Array'
PUBLIC	??_7CMarkup@@6B@				; CMarkup::`vftable'
PUBLIC	??_GCMarkup@@UAEPAXI@Z				; CMarkup::`scalar deleting destructor'
EXTRN	??_ECMarkup@@UAEPAXI@Z:NEAR			; CMarkup::`vector deleting destructor'
;	COMDAT xdata$x
; File d:\boxgit\playbox\playbox\dev\prj\playbox\src\util\markup.h
xdata$x	SEGMENT
$T188669 DD	0ffffffffH
	DD	FLAT:$L188663
	DD	00H
	DD	FLAT:$L188664
$T188667 DD	019930520H
	DD	02H
	DD	FLAT:$T188669
	DD	2 DUP(00H)
	DD	2 DUP(00H)
xdata$x	ENDS
;	COMDAT ??_7CMarkup@@6B@
CONST	SEGMENT
??_7CMarkup@@6B@ DD FLAT:??_R4CMarkup@@6B@		; CMarkup::`vftable'
	DD	FLAT:??_ECMarkup@@UAEPAXI@Z
CONST	ENDS
;	COMDAT ??_R4CMarkup@@6B@
rdata$r	SEGMENT
??_R4CMarkup@@6B@ DD 00H				; CMarkup::`RTTI Complete Object Locator'
	DD	00H
	DD	00H
	DD	FLAT:??_R0?AVCMarkup@@@8
	DD	FLAT:??_R3CMarkup@@8
rdata$r	ENDS
;	COMDAT ??_R3CMarkup@@8
rdata$r	SEGMENT
??_R3CMarkup@@8 DD 00H					; CMarkup::`RTTI Class Hierarchy Descriptor'
	DD	00H
	DD	01H
	DD	FLAT:??_R2CMarkup@@8
rdata$r	ENDS
;	COMDAT ??_R2CMarkup@@8
rdata$r	SEGMENT
??_R2CMarkup@@8 DD FLAT:??_R1A@?0A@A@CMarkup@@8		; CMarkup::`RTTI Base Class Array'
; Function compile flags: /Odt /RTCsu
rdata$r	ENDS
;	COMDAT ??1CMarkup@@UAE@XZ
_TEXT	SEGMENT
_this$ = -16						; size = 4
__$EHRec$ = -12						; size = 12
??1CMarkup@@UAE@XZ PROC NEAR				; CMarkup::~CMarkup, COMDAT
; _this$ = ecx

; 33   : 	virtual ~CMarkup() {};

  00000	55		 push	 ebp
  00001	8b ec		 mov	 ebp, esp
  00003	6a ff		 push	 -1
  00005	68 00 00 00 00	 push	 __ehhandler$??1CMarkup@@UAE@XZ
  0000a	64 a1 00 00 00
	00		 mov	 eax, DWORD PTR fs:__except_list
  00010	50		 push	 eax
  00011	64 89 25 00 00
	00 00		 mov	 DWORD PTR fs:__except_list, esp
  00018	51		 push	 ecx
  00019	56		 push	 esi
  0001a	c7 45 f0 cc cc
	cc cc		 mov	 DWORD PTR [ebp-16], -858993460 ; ccccccccH
  00021	89 4d f0	 mov	 DWORD PTR _this$[ebp], ecx
  00024	8b 45 f0	 mov	 eax, DWORD PTR _this$[ebp]
  00027	c7 00 00 00 00
	00		 mov	 DWORD PTR [eax], OFFSET FLAT:??_7CMarkup@@6B@
  0002d	c7 45 fc 01 00
	00 00		 mov	 DWORD PTR __$EHRec$[ebp+8], 1
  00034	8b 4d f0	 mov	 ecx, DWORD PTR _this$[ebp]
  00037	83 c1 14	 add	 ecx, 20			; 00000014H
  0003a	e8 00 00 00 00	 call	 ??1?$CArray@UElemPos@CMarkup@@AAU12@@@UAE@XZ ; CArray<CMarkup::ElemPos,CMarkup::ElemPos &>::~CArray<CMarkup::ElemPos,CMarkup::ElemPos &>
  0003f	c6 45 fc 00	 mov	 BYTE PTR __$EHRec$[ebp+8], 0
  00043	8b 4d f0	 mov	 ecx, DWORD PTR _this$[ebp]
  00046	83 c1 10	 add	 ecx, 16			; 00000010H
  00049	8b f4		 mov	 esi, esp
  0004b	ff 15 00 00 00
	00		 call	 DWORD PTR __imp_??1?$CStringT@DV?$StrTraitMFC_DLL@DV?$ChTraitsCRT@D@ATL@@@@@ATL@@QAE@XZ
  00051	3b f4		 cmp	 esi, esp
  00053	e8 00 00 00 00	 call	 __RTC_CheckEsp
  00058	c7 45 fc ff ff
	ff ff		 mov	 DWORD PTR __$EHRec$[ebp+8], -1
  0005f	8b 4d f0	 mov	 ecx, DWORD PTR _this$[ebp]
  00062	83 c1 0c	 add	 ecx, 12			; 0000000cH
  00065	8b f4		 mov	 esi, esp
  00067	ff 15 00 00 00
	00		 call	 DWORD PTR __imp_??1?$CStringT@DV?$StrTraitMFC_DLL@DV?$ChTraitsCRT@D@ATL@@@@@ATL@@QAE@XZ
  0006d	3b f4		 cmp	 esi, esp
  0006f	e8 00 00 00 00	 call	 __RTC_CheckEsp
  00074	8b 4d f4	 mov	 ecx, DWORD PTR __$EHRec$[ebp]
  00077	64 89 0d 00 00
	00 00		 mov	 DWORD PTR fs:__except_list, ecx
  0007e	5e		 pop	 esi
  0007f	83 c4 10	 add	 esp, 16			; 00000010H
  00082	3b ec		 cmp	 ebp, esp
  00084	e8 00 00 00 00	 call	 __RTC_CheckEsp
  00089	8b e5		 mov	 esp, ebp
  0008b	5d		 pop	 ebp
  0008c	c3		 ret	 0
_TEXT	ENDS
;	COMDAT text$x
text$x	SEGMENT
$L188663:
  00000	8b 4d f0	 mov	 ecx, DWORD PTR _this$[ebp]
  00003	83 c1 0c	 add	 ecx, 12			; 0000000cH
  00006	8b f4		 mov	 esi, esp
  00008	ff 15 00 00 00
	00		 call	 DWORD PTR __imp_??1?$CStringT@DV?$StrTraitMFC_DLL@DV?$ChTraitsCRT@D@ATL@@@@@ATL@@QAE@XZ
  0000e	3b f4		 cmp	 esi, esp
  00010	e9 00 00 00 00	 jmp	 __RTC_CheckEsp
$L188664:
  00015	8b 4d f0	 mov	 ecx, DWORD PTR _this$[ebp]
  00018	83 c1 10	 add	 ecx, 16			; 00000010H
  0001b	8b f4		 mov	 esi, esp
  0001d	ff 15 00 00 00
	00		 call	 DWORD PTR __imp_??1?$CStringT@DV?$StrTraitMFC_DLL@DV?$ChTraitsCRT@D@ATL@@@@@ATL@@QAE@XZ
  00023	3b f4		 cmp	 esi, esp
  00025	e9 00 00 00 00	 jmp	 __RTC_CheckEsp
__ehhandler$??1CMarkup@@UAE@XZ:
  0002a	b8 00 00 00 00	 mov	 eax, OFFSET FLAT:$T188667
  0002f	e9 00 00 00 00	 jmp	 ___CxxFrameHandler
text$x	ENDS
??1CMarkup@@UAE@XZ ENDP					; CMarkup::~CMarkup
EXTRN	??3@YAXPAX@Z:NEAR				; operator delete
; Function compile flags: /Odt /RTCsu
;	COMDAT ??_GCMarkup@@UAEPAXI@Z
_TEXT	SEGMENT
_this$ = -4						; size = 4
___flags$ = 8						; size = 4
??_GCMarkup@@UAEPAXI@Z PROC NEAR			; CMarkup::`scalar deleting destructor', COMDAT
; _this$ = ecx
  00000	55		 push	 ebp
  00001	8b ec		 mov	 ebp, esp
  00003	51		 push	 ecx
  00004	c7 45 fc cc cc
	cc cc		 mov	 DWORD PTR [ebp-4], -858993460 ; ccccccccH
  0000b	89 4d fc	 mov	 DWORD PTR _this$[ebp], ecx
  0000e	8b 4d fc	 mov	 ecx, DWORD PTR _this$[ebp]
  00011	e8 00 00 00 00	 call	 ??1CMarkup@@UAE@XZ	; CMarkup::~CMarkup
  00016	8b 45 08	 mov	 eax, DWORD PTR ___flags$[ebp]
  00019	83 e0 01	 and	 eax, 1
  0001c	74 0c		 je	 SHORT $L187342
  0001e	8b 4d fc	 mov	 ecx, DWORD PTR _this$[ebp]
  00021	51		 push	 ecx
  00022	e8 00 00 00 00	 call	 ??3@YAXPAX@Z		; operator delete
  00027	83 c4 04	 add	 esp, 4
$L187342:
  0002a	8b 45 fc	 mov	 eax, DWORD PTR _this$[ebp]
  0002d	83 c4 04	 add	 esp, 4
  00030	3b ec		 cmp	 ebp, esp
  00032	e8 00 00 00 00	 call	 __RTC_CheckEsp
  00037	8b e5		 mov	 esp, ebp
  00039	5d		 pop	 ebp
  0003a	c2 04 00	 ret	 4
??_GCMarkup@@UAEPAXI@Z ENDP				; CMarkup::`scalar deleting destructor'
_TEXT	ENDS
PUBLIC	??HATL@@YA?AV?$CStringT@DV?$StrTraitMFC_DLL@DV?$ChTraitsCRT@D@ATL@@@@@0@ABV10@PBD@Z ; ATL::operator+
PUBLIC	?AddElem@CMarkup@@QAE_NPBD0@Z			; CMarkup::AddElem
EXTRN	__imp_??B?$CSimpleStringT@D$00@ATL@@QBEPBDXZ:NEAR
EXTRN	__imp_?IsEmpty@?$CSimpleStringT@D$00@ATL@@QBE_NXZ:NEAR
;	COMDAT xdata$x
; File d:\boxgit\playbox\playbox\dev\prj\playbox\src\util\markuparchive.h
xdata$x	SEGMENT
$T188680 DD	0ffffffffH
	DD	FLAT:$L188676
$T188678 DD	019930520H
	DD	01H
	DD	FLAT:$T188680
	DD	2 DUP(00H)
	DD	2 DUP(00H)
; Function compile flags: /Odt /RTCsu
xdata$x	ENDS
;	COMDAT ?AddElem@CMarkupArchive@@UAE_NPBD0@Z
_TEXT	SEGMENT
tv88 = -32						; size = 4
tv89 = -28						; size = 4
$T188675 = -24						; size = 4
$T188674 = -17						; size = 1
_this$ = -16						; size = 4
__$EHRec$ = -12						; size = 12
_szName$ = 8						; size = 4
_szData$ = 12						; size = 4
?AddElem@CMarkupArchive@@UAE_NPBD0@Z PROC NEAR		; CMarkupArchive::AddElem, COMDAT
; _this$ = ecx

; 144  : 	{	

  00000	55		 push	 ebp
  00001	8b ec		 mov	 ebp, esp
  00003	6a ff		 push	 -1
  00005	68 00 00 00 00	 push	 __ehhandler$?AddElem@CMarkupArchive@@UAE_NPBD0@Z
  0000a	64 a1 00 00 00
	00		 mov	 eax, DWORD PTR fs:__except_list
  00010	50		 push	 eax
  00011	64 89 25 00 00
	00 00		 mov	 DWORD PTR fs:__except_list, esp
  00018	83 ec 14	 sub	 esp, 20			; 00000014H
  0001b	56		 push	 esi
  0001c	b8 cc cc cc cc	 mov	 eax, -858993460		; ccccccccH
  00021	89 45 e0	 mov	 DWORD PTR [ebp-32], eax
  00024	89 45 e4	 mov	 DWORD PTR [ebp-28], eax
  00027	89 45 e8	 mov	 DWORD PTR [ebp-24], eax
  0002a	89 45 ec	 mov	 DWORD PTR [ebp-20], eax
  0002d	89 45 f0	 mov	 DWORD PTR [ebp-16], eax
  00030	89 4d f0	 mov	 DWORD PTR _this$[ebp], ecx

; 145  : 		if (m_sNameSpace.IsEmpty()) 

  00033	8b 4d f0	 mov	 ecx, DWORD PTR _this$[ebp]
  00036	83 c1 4c	 add	 ecx, 76			; 0000004cH
  00039	8b f4		 mov	 esi, esp
  0003b	ff 15 00 00 00
	00		 call	 DWORD PTR __imp_?IsEmpty@?$CSimpleStringT@D$00@ATL@@QBE_NXZ
  00041	3b f4		 cmp	 esi, esp
  00043	e8 00 00 00 00	 call	 __RTC_CheckEsp
  00048	0f b6 c0	 movzx	 eax, al
  0004b	85 c0		 test	 eax, eax
  0004d	74 12		 je	 SHORT $L187444

; 146  : 			return CMarkup::AddElem( szName, szData); 

  0004f	8b 4d 0c	 mov	 ecx, DWORD PTR _szData$[ebp]
  00052	51		 push	 ecx
  00053	8b 55 08	 mov	 edx, DWORD PTR _szName$[ebp]
  00056	52		 push	 edx
  00057	8b 4d f0	 mov	 ecx, DWORD PTR _this$[ebp]
  0005a	e8 00 00 00 00	 call	 ?AddElem@CMarkup@@QAE_NPBD0@Z ; CMarkup::AddElem
  0005f	eb 65		 jmp	 SHORT $L187443
$L187444:

; 147  : 		else 
; 148  : 			return CMarkup::AddElem( m_sNameSpace+szName, szData);

  00061	8b 45 08	 mov	 eax, DWORD PTR _szName$[ebp]
  00064	50		 push	 eax
  00065	8b 4d f0	 mov	 ecx, DWORD PTR _this$[ebp]
  00068	83 c1 4c	 add	 ecx, 76			; 0000004cH
  0006b	51		 push	 ecx
  0006c	8d 55 e8	 lea	 edx, DWORD PTR $T188675[ebp]
  0006f	52		 push	 edx
  00070	e8 00 00 00 00	 call	 ??HATL@@YA?AV?$CStringT@DV?$StrTraitMFC_DLL@DV?$ChTraitsCRT@D@ATL@@@@@0@ABV10@PBD@Z ; ATL::operator+
  00075	83 c4 0c	 add	 esp, 12			; 0000000cH
  00078	89 45 e4	 mov	 DWORD PTR tv89[ebp], eax
  0007b	8b 45 e4	 mov	 eax, DWORD PTR tv89[ebp]
  0007e	89 45 e0	 mov	 DWORD PTR tv88[ebp], eax
  00081	c7 45 fc 00 00
	00 00		 mov	 DWORD PTR __$EHRec$[ebp+8], 0
  00088	8b 4d 0c	 mov	 ecx, DWORD PTR _szData$[ebp]
  0008b	51		 push	 ecx
  0008c	8b f4		 mov	 esi, esp
  0008e	8b 4d e0	 mov	 ecx, DWORD PTR tv88[ebp]
  00091	ff 15 00 00 00
	00		 call	 DWORD PTR __imp_??B?$CSimpleStringT@D$00@ATL@@QBEPBDXZ
  00097	3b f4		 cmp	 esi, esp
  00099	e8 00 00 00 00	 call	 __RTC_CheckEsp
  0009e	50		 push	 eax
  0009f	8b 4d f0	 mov	 ecx, DWORD PTR _this$[ebp]
  000a2	e8 00 00 00 00	 call	 ?AddElem@CMarkup@@QAE_NPBD0@Z ; CMarkup::AddElem
  000a7	88 45 ef	 mov	 BYTE PTR $T188674[ebp], al
  000aa	c7 45 fc ff ff
	ff ff		 mov	 DWORD PTR __$EHRec$[ebp+8], -1
  000b1	8b f4		 mov	 esi, esp
  000b3	8d 4d e8	 lea	 ecx, DWORD PTR $T188675[ebp]
  000b6	ff 15 00 00 00
	00		 call	 DWORD PTR __imp_??1?$CStringT@DV?$StrTraitMFC_DLL@DV?$ChTraitsCRT@D@ATL@@@@@ATL@@QAE@XZ
  000bc	3b f4		 cmp	 esi, esp
  000be	e8 00 00 00 00	 call	 __RTC_CheckEsp
  000c3	8a 45 ef	 mov	 al, BYTE PTR $T188674[ebp]
$L187443:

; 149  : 	};

  000c6	8b 4d f4	 mov	 ecx, DWORD PTR __$EHRec$[ebp]
  000c9	64 89 0d 00 00
	00 00		 mov	 DWORD PTR fs:__except_list, ecx
  000d0	5e		 pop	 esi
  000d1	83 c4 20	 add	 esp, 32			; 00000020H
  000d4	3b ec		 cmp	 ebp, esp
  000d6	e8 00 00 00 00	 call	 __RTC_CheckEsp
  000db	8b e5		 mov	 esp, ebp
  000dd	5d		 pop	 ebp
  000de	c2 08 00	 ret	 8
_TEXT	ENDS
;	COMDAT text$x
text$x	SEGMENT
$L188676:
  00000	8b f4		 mov	 esi, esp
  00002	8d 4d e8	 lea	 ecx, DWORD PTR $T188675[ebp]
  00005	ff 15 00 00 00
	00		 call	 DWORD PTR __imp_??1?$CStringT@DV?$StrTraitMFC_DLL@DV?$ChTraitsCRT@D@ATL@@@@@ATL@@QAE@XZ
  0000b	3b f4		 cmp	 esi, esp
  0000d	e9 00 00 00 00	 jmp	 __RTC_CheckEsp
__ehhandler$?AddElem@CMarkupArchive@@UAE_NPBD0@Z:
  00012	b8 00 00 00 00	 mov	 eax, OFFSET FLAT:$T188678
  00017	e9 00 00 00 00	 jmp	 ___CxxFrameHandler
text$x	ENDS
?AddElem@CMarkupArchive@@UAE_NPBD0@Z ENDP		; CMarkupArchive::AddElem
EXTRN	?x_AddElem@CMarkup@@IAE_NPBD0_N1@Z:NEAR		; CMarkup::x_AddElem
; Function compile flags: /Odt /RTCsu
; File d:\boxgit\playbox\playbox\dev\prj\playbox\src\util\markup.h
;	COMDAT ?AddElem@CMarkup@@QAE_NPBD0@Z
_TEXT	SEGMENT
_this$ = -4						; size = 4
_szName$ = 8						; size = 4
_szData$ = 12						; size = 4
?AddElem@CMarkup@@QAE_NPBD0@Z PROC NEAR			; CMarkup::AddElem, COMDAT
; _this$ = ecx

; 37   : 	bool AddElem( LPCTSTR szName, LPCTSTR szData=NULL ) { return x_AddElem(szName,szData,false,false); };

  00000	55		 push	 ebp
  00001	8b ec		 mov	 ebp, esp
  00003	51		 push	 ecx
  00004	c7 45 fc cc cc
	cc cc		 mov	 DWORD PTR [ebp-4], -858993460 ; ccccccccH
  0000b	89 4d fc	 mov	 DWORD PTR _this$[ebp], ecx
  0000e	6a 00		 push	 0
  00010	6a 00		 push	 0
  00012	8b 45 0c	 mov	 eax, DWORD PTR _szData$[ebp]
  00015	50		 push	 eax
  00016	8b 4d 08	 mov	 ecx, DWORD PTR _szName$[ebp]
  00019	51		 push	 ecx
  0001a	8b 4d fc	 mov	 ecx, DWORD PTR _this$[ebp]
  0001d	e8 00 00 00 00	 call	 ?x_AddElem@CMarkup@@IAE_NPBD0_N1@Z ; CMarkup::x_AddElem
  00022	83 c4 04	 add	 esp, 4
  00025	3b ec		 cmp	 ebp, esp
  00027	e8 00 00 00 00	 call	 __RTC_CheckEsp
  0002c	8b e5		 mov	 esp, ebp
  0002e	5d		 pop	 ebp
  0002f	c2 08 00	 ret	 8
?AddElem@CMarkup@@QAE_NPBD0@Z ENDP			; CMarkup::AddElem
_TEXT	ENDS
PUBLIC	?AddChildElem@CMarkup@@QAE_NPBD0@Z		; CMarkup::AddChildElem
;	COMDAT xdata$x
; File d:\boxgit\playbox\playbox\dev\prj\playbox\src\util\markuparchive.h
xdata$x	SEGMENT
$T188691 DD	0ffffffffH
	DD	FLAT:$L188687
$T188689 DD	019930520H
	DD	01H
	DD	FLAT:$T188691
	DD	2 DUP(00H)
	DD	2 DUP(00H)
; Function compile flags: /Odt /RTCsu
xdata$x	ENDS
;	COMDAT ?AddChildElem@CMarkupArchive@@UAE_NPBD0@Z
_TEXT	SEGMENT
tv88 = -32						; size = 4
tv89 = -28						; size = 4
$T188686 = -24						; size = 4
$T188685 = -17						; size = 1
_this$ = -16						; size = 4
__$EHRec$ = -12						; size = 12
_szName$ = 8						; size = 4
_szData$ = 12						; size = 4
?AddChildElem@CMarkupArchive@@UAE_NPBD0@Z PROC NEAR	; CMarkupArchive::AddChildElem, COMDAT
; _this$ = ecx

; 152  : 	{	

  00000	55		 push	 ebp
  00001	8b ec		 mov	 ebp, esp
  00003	6a ff		 push	 -1
  00005	68 00 00 00 00	 push	 __ehhandler$?AddChildElem@CMarkupArchive@@UAE_NPBD0@Z
  0000a	64 a1 00 00 00
	00		 mov	 eax, DWORD PTR fs:__except_list
  00010	50		 push	 eax
  00011	64 89 25 00 00
	00 00		 mov	 DWORD PTR fs:__except_list, esp
  00018	83 ec 14	 sub	 esp, 20			; 00000014H
  0001b	56		 push	 esi
  0001c	b8 cc cc cc cc	 mov	 eax, -858993460		; ccccccccH
  00021	89 45 e0	 mov	 DWORD PTR [ebp-32], eax
  00024	89 45 e4	 mov	 DWORD PTR [ebp-28], eax
  00027	89 45 e8	 mov	 DWORD PTR [ebp-24], eax
  0002a	89 45 ec	 mov	 DWORD PTR [ebp-20], eax
  0002d	89 45 f0	 mov	 DWORD PTR [ebp-16], eax
  00030	89 4d f0	 mov	 DWORD PTR _this$[ebp], ecx

; 153  : 		if (m_sNameSpace.IsEmpty()) 

  00033	8b 4d f0	 mov	 ecx, DWORD PTR _this$[ebp]
  00036	83 c1 4c	 add	 ecx, 76			; 0000004cH
  00039	8b f4		 mov	 esi, esp
  0003b	ff 15 00 00 00
	00		 call	 DWORD PTR __imp_?IsEmpty@?$CSimpleStringT@D$00@ATL@@QBE_NXZ
  00041	3b f4		 cmp	 esi, esp
  00043	e8 00 00 00 00	 call	 __RTC_CheckEsp
  00048	0f b6 c0	 movzx	 eax, al
  0004b	85 c0		 test	 eax, eax
  0004d	74 12		 je	 SHORT $L187450

; 154  : 			return CMarkup::AddChildElem( szName, szData); 

  0004f	8b 4d 0c	 mov	 ecx, DWORD PTR _szData$[ebp]
  00052	51		 push	 ecx
  00053	8b 55 08	 mov	 edx, DWORD PTR _szName$[ebp]
  00056	52		 push	 edx
  00057	8b 4d f0	 mov	 ecx, DWORD PTR _this$[ebp]
  0005a	e8 00 00 00 00	 call	 ?AddChildElem@CMarkup@@QAE_NPBD0@Z ; CMarkup::AddChildElem
  0005f	eb 65		 jmp	 SHORT $L187449
$L187450:

; 155  : 		else 
; 156  : 			return CMarkup::AddChildElem( m_sNameSpace+szName, szData);

  00061	8b 45 08	 mov	 eax, DWORD PTR _szName$[ebp]
  00064	50		 push	 eax
  00065	8b 4d f0	 mov	 ecx, DWORD PTR _this$[ebp]
  00068	83 c1 4c	 add	 ecx, 76			; 0000004cH
  0006b	51		 push	 ecx
  0006c	8d 55 e8	 lea	 edx, DWORD PTR $T188686[ebp]
  0006f	52		 push	 edx
  00070	e8 00 00 00 00	 call	 ??HATL@@YA?AV?$CStringT@DV?$StrTraitMFC_DLL@DV?$ChTraitsCRT@D@ATL@@@@@0@ABV10@PBD@Z ; ATL::operator+
  00075	83 c4 0c	 add	 esp, 12			; 0000000cH
  00078	89 45 e4	 mov	 DWORD PTR tv89[ebp], eax
  0007b	8b 45 e4	 mov	 eax, DWORD PTR tv89[ebp]
  0007e	89 45 e0	 mov	 DWORD PTR tv88[ebp], eax
  00081	c7 45 fc 00 00
	00 00		 mov	 DWORD PTR __$EHRec$[ebp+8], 0
  00088	8b 4d 0c	 mov	 ecx, DWORD PTR _szData$[ebp]
  0008b	51		 push	 ecx
  0008c	8b f4		 mov	 esi, esp
  0008e	8b 4d e0	 mov	 ecx, DWORD PTR tv88[ebp]
  00091	ff 15 00 00 00
	00		 call	 DWORD PTR __imp_??B?$CSimpleStringT@D$00@ATL@@QBEPBDXZ
  00097	3b f4		 cmp	 esi, esp
  00099	e8 00 00 00 00	 call	 __RTC_CheckEsp
  0009e	50		 push	 eax
  0009f	8b 4d f0	 mov	 ecx, DWORD PTR _this$[ebp]
  000a2	e8 00 00 00 00	 call	 ?AddChildElem@CMarkup@@QAE_NPBD0@Z ; CMarkup::AddChildElem
  000a7	88 45 ef	 mov	 BYTE PTR $T188685[ebp], al
  000aa	c7 45 fc ff ff
	ff ff		 mov	 DWORD PTR __$EHRec$[ebp+8], -1
  000b1	8b f4		 mov	 esi, esp
  000b3	8d 4d e8	 lea	 ecx, DWORD PTR $T188686[ebp]
  000b6	ff 15 00 00 00
	00		 call	 DWORD PTR __imp_??1?$CStringT@DV?$StrTraitMFC_DLL@DV?$ChTraitsCRT@D@ATL@@@@@ATL@@QAE@XZ
  000bc	3b f4		 cmp	 esi, esp
  000be	e8 00 00 00 00	 call	 __RTC_CheckEsp
  000c3	8a 45 ef	 mov	 al, BYTE PTR $T188685[ebp]
$L187449:

; 157  : 	};

  000c6	8b 4d f4	 mov	 ecx, DWORD PTR __$EHRec$[ebp]
  000c9	64 89 0d 00 00
	00 00		 mov	 DWORD PTR fs:__except_list, ecx
  000d0	5e		 pop	 esi
  000d1	83 c4 20	 add	 esp, 32			; 00000020H
  000d4	3b ec		 cmp	 ebp, esp
  000d6	e8 00 00 00 00	 call	 __RTC_CheckEsp
  000db	8b e5		 mov	 esp, ebp
  000dd	5d		 pop	 ebp
  000de	c2 08 00	 ret	 8
_TEXT	ENDS
;	COMDAT text$x
text$x	SEGMENT
$L188687:
  00000	8b f4		 mov	 esi, esp
  00002	8d 4d e8	 lea	 ecx, DWORD PTR $T188686[ebp]
  00005	ff 15 00 00 00
	00		 call	 DWORD PTR __imp_??1?$CStringT@DV?$StrTraitMFC_DLL@DV?$ChTraitsCRT@D@ATL@@@@@ATL@@QAE@XZ
  0000b	3b f4		 cmp	 esi, esp
  0000d	e9 00 00 00 00	 jmp	 __RTC_CheckEsp
__ehhandler$?AddChildElem@CMarkupArchive@@UAE_NPBD0@Z:
  00012	b8 00 00 00 00	 mov	 eax, OFFSET FLAT:$T188689
  00017	e9 00 00 00 00	 jmp	 ___CxxFrameHandler
text$x	ENDS
?AddChildElem@CMarkupArchive@@UAE_NPBD0@Z ENDP		; CMarkupArchive::AddChildElem
; Function compile flags: /Odt /RTCsu
; File d:\boxgit\playbox\playbox\dev\prj\playbox\src\util\markup.h
;	COMDAT ?AddChildElem@CMarkup@@QAE_NPBD0@Z
_TEXT	SEGMENT
_this$ = -4						; size = 4
_szName$ = 8						; size = 4
_szData$ = 12						; size = 4
?AddChildElem@CMarkup@@QAE_NPBD0@Z PROC NEAR		; CMarkup::AddChildElem, COMDAT
; _this$ = ecx

; 38   : 	bool AddChildElem( LPCTSTR szName, LPCTSTR szData=NULL ) { return x_AddElem(szName,szData,false,true); };

  00000	55		 push	 ebp
  00001	8b ec		 mov	 ebp, esp
  00003	51		 push	 ecx
  00004	c7 45 fc cc cc
	cc cc		 mov	 DWORD PTR [ebp-4], -858993460 ; ccccccccH
  0000b	89 4d fc	 mov	 DWORD PTR _this$[ebp], ecx
  0000e	6a 01		 push	 1
  00010	6a 00		 push	 0
  00012	8b 45 0c	 mov	 eax, DWORD PTR _szData$[ebp]
  00015	50		 push	 eax
  00016	8b 4d 08	 mov	 ecx, DWORD PTR _szName$[ebp]
  00019	51		 push	 ecx
  0001a	8b 4d fc	 mov	 ecx, DWORD PTR _this$[ebp]
  0001d	e8 00 00 00 00	 call	 ?x_AddElem@CMarkup@@IAE_NPBD0_N1@Z ; CMarkup::x_AddElem
  00022	83 c4 04	 add	 esp, 4
  00025	3b ec		 cmp	 ebp, esp
  00027	e8 00 00 00 00	 call	 __RTC_CheckEsp
  0002c	8b e5		 mov	 esp, ebp
  0002e	5d		 pop	 ebp
  0002f	c2 08 00	 ret	 8
?AddChildElem@CMarkup@@QAE_NPBD0@Z ENDP			; CMarkup::AddChildElem
_TEXT	ENDS
EXTRN	?FindElem@CMarkup@@QAE_NPBD@Z:NEAR		; CMarkup::FindElem
;	COMDAT xdata$x
; File d:\boxgit\playbox\playbox\dev\prj\playbox\src\util\markuparchive.h
xdata$x	SEGMENT
$T188702 DD	0ffffffffH
	DD	FLAT:$L188698
$T188700 DD	019930520H
	DD	01H
	DD	FLAT:$T188702
	DD	2 DUP(00H)
	DD	2 DUP(00H)
; Function compile flags: /Odt /RTCsu
xdata$x	ENDS
;	COMDAT ?FindElem@CMarkupArchive@@UAE_NPBD@Z
_TEXT	SEGMENT
tv90 = -32						; size = 4
tv91 = -28						; size = 4
$T188697 = -24						; size = 4
$T188696 = -17						; size = 1
_this$ = -16						; size = 4
__$EHRec$ = -12						; size = 12
_szName$ = 8						; size = 4
?FindElem@CMarkupArchive@@UAE_NPBD@Z PROC NEAR		; CMarkupArchive::FindElem, COMDAT
; _this$ = ecx

; 160  : 	{	

  00000	55		 push	 ebp
  00001	8b ec		 mov	 ebp, esp
  00003	6a ff		 push	 -1
  00005	68 00 00 00 00	 push	 __ehhandler$?FindElem@CMarkupArchive@@UAE_NPBD@Z
  0000a	64 a1 00 00 00
	00		 mov	 eax, DWORD PTR fs:__except_list
  00010	50		 push	 eax
  00011	64 89 25 00 00
	00 00		 mov	 DWORD PTR fs:__except_list, esp
  00018	83 ec 14	 sub	 esp, 20			; 00000014H
  0001b	56		 push	 esi
  0001c	b8 cc cc cc cc	 mov	 eax, -858993460		; ccccccccH
  00021	89 45 e0	 mov	 DWORD PTR [ebp-32], eax
  00024	89 45 e4	 mov	 DWORD PTR [ebp-28], eax
  00027	89 45 e8	 mov	 DWORD PTR [ebp-24], eax
  0002a	89 45 ec	 mov	 DWORD PTR [ebp-20], eax
  0002d	89 45 f0	 mov	 DWORD PTR [ebp-16], eax
  00030	89 4d f0	 mov	 DWORD PTR _this$[ebp], ecx

; 161  : 		if (szName==NULL) 

  00033	83 7d 08 00	 cmp	 DWORD PTR _szName$[ebp], 0
  00037	75 0f		 jne	 SHORT $L187456

; 162  : 			return CMarkup::FindElem( NULL); 

  00039	6a 00		 push	 0
  0003b	8b 4d f0	 mov	 ecx, DWORD PTR _this$[ebp]
  0003e	e8 00 00 00 00	 call	 ?FindElem@CMarkup@@QAE_NPBD@Z ; CMarkup::FindElem
  00043	e9 8b 00 00 00	 jmp	 $L187455
$L187456:

; 163  : 		else 
; 164  : 			if (m_sNameSpace.IsEmpty())

  00048	8b 4d f0	 mov	 ecx, DWORD PTR _this$[ebp]
  0004b	83 c1 4c	 add	 ecx, 76			; 0000004cH
  0004e	8b f4		 mov	 esi, esp
  00050	ff 15 00 00 00
	00		 call	 DWORD PTR __imp_?IsEmpty@?$CSimpleStringT@D$00@ATL@@QBE_NXZ
  00056	3b f4		 cmp	 esi, esp
  00058	e8 00 00 00 00	 call	 __RTC_CheckEsp
  0005d	0f b6 c0	 movzx	 eax, al
  00060	85 c0		 test	 eax, eax
  00062	74 0e		 je	 SHORT $L187458

; 165  : 				return CMarkup::FindElem(szName);

  00064	8b 4d 08	 mov	 ecx, DWORD PTR _szName$[ebp]
  00067	51		 push	 ecx
  00068	8b 4d f0	 mov	 ecx, DWORD PTR _this$[ebp]
  0006b	e8 00 00 00 00	 call	 ?FindElem@CMarkup@@QAE_NPBD@Z ; CMarkup::FindElem
  00070	eb 61		 jmp	 SHORT $L187455
$L187458:

; 166  : 			else
; 167  : 				return CMarkup::FindElem( m_sNameSpace+szName);

  00072	8b 55 08	 mov	 edx, DWORD PTR _szName$[ebp]
  00075	52		 push	 edx
  00076	8b 45 f0	 mov	 eax, DWORD PTR _this$[ebp]
  00079	83 c0 4c	 add	 eax, 76			; 0000004cH
  0007c	50		 push	 eax
  0007d	8d 4d e8	 lea	 ecx, DWORD PTR $T188697[ebp]
  00080	51		 push	 ecx
  00081	e8 00 00 00 00	 call	 ??HATL@@YA?AV?$CStringT@DV?$StrTraitMFC_DLL@DV?$ChTraitsCRT@D@ATL@@@@@0@ABV10@PBD@Z ; ATL::operator+
  00086	83 c4 0c	 add	 esp, 12			; 0000000cH
  00089	89 45 e4	 mov	 DWORD PTR tv91[ebp], eax
  0008c	8b 55 e4	 mov	 edx, DWORD PTR tv91[ebp]
  0008f	89 55 e0	 mov	 DWORD PTR tv90[ebp], edx
  00092	c7 45 fc 00 00
	00 00		 mov	 DWORD PTR __$EHRec$[ebp+8], 0
  00099	8b f4		 mov	 esi, esp
  0009b	8b 4d e0	 mov	 ecx, DWORD PTR tv90[ebp]
  0009e	ff 15 00 00 00
	00		 call	 DWORD PTR __imp_??B?$CSimpleStringT@D$00@ATL@@QBEPBDXZ
  000a4	3b f4		 cmp	 esi, esp
  000a6	e8 00 00 00 00	 call	 __RTC_CheckEsp
  000ab	50		 push	 eax
  000ac	8b 4d f0	 mov	 ecx, DWORD PTR _this$[ebp]
  000af	e8 00 00 00 00	 call	 ?FindElem@CMarkup@@QAE_NPBD@Z ; CMarkup::FindElem
  000b4	88 45 ef	 mov	 BYTE PTR $T188696[ebp], al
  000b7	c7 45 fc ff ff
	ff ff		 mov	 DWORD PTR __$EHRec$[ebp+8], -1
  000be	8b f4		 mov	 esi, esp
  000c0	8d 4d e8	 lea	 ecx, DWORD PTR $T188697[ebp]
  000c3	ff 15 00 00 00
	00		 call	 DWORD PTR __imp_??1?$CStringT@DV?$StrTraitMFC_DLL@DV?$ChTraitsCRT@D@ATL@@@@@ATL@@QAE@XZ
  000c9	3b f4		 cmp	 esi, esp
  000cb	e8 00 00 00 00	 call	 __RTC_CheckEsp
  000d0	8a 45 ef	 mov	 al, BYTE PTR $T188696[ebp]
$L187455:

; 168  : 	};

  000d3	8b 4d f4	 mov	 ecx, DWORD PTR __$EHRec$[ebp]
  000d6	64 89 0d 00 00
	00 00		 mov	 DWORD PTR fs:__except_list, ecx
  000dd	5e		 pop	 esi
  000de	83 c4 20	 add	 esp, 32			; 00000020H
  000e1	3b ec		 cmp	 ebp, esp
  000e3	e8 00 00 00 00	 call	 __RTC_CheckEsp
  000e8	8b e5		 mov	 esp, ebp
  000ea	5d		 pop	 ebp
  000eb	c2 04 00	 ret	 4
_TEXT	ENDS
;	COMDAT text$x
text$x	SEGMENT
$L188698:
  00000	8b f4		 mov	 esi, esp
  00002	8d 4d e8	 lea	 ecx, DWORD PTR $T188697[ebp]
  00005	ff 15 00 00 00
	00		 call	 DWORD PTR __imp_??1?$CStringT@DV?$StrTraitMFC_DLL@DV?$ChTraitsCRT@D@ATL@@@@@ATL@@QAE@XZ
  0000b	3b f4		 cmp	 esi, esp
  0000d	e9 00 00 00 00	 jmp	 __RTC_CheckEsp
__ehhandler$?FindElem@CMarkupArchive@@UAE_NPBD@Z:
  00012	b8 00 00 00 00	 mov	 eax, OFFSET FLAT:$T188700
  00017	e9 00 00 00 00	 jmp	 ___CxxFrameHandler
text$x	ENDS
?FindElem@CMarkupArchive@@UAE_NPBD@Z ENDP		; CMarkupArchive::FindElem
EXTRN	?FindChildElem@CMarkup@@QAE_NPBD@Z:NEAR		; CMarkup::FindChildElem
;	COMDAT xdata$x
xdata$x	SEGMENT
$T188712 DD	0ffffffffH
	DD	FLAT:$L188708
$T188710 DD	019930520H
	DD	01H
	DD	FLAT:$T188712
	DD	2 DUP(00H)
	DD	2 DUP(00H)
; Function compile flags: /Odt /RTCsu
xdata$x	ENDS
;	COMDAT ?FindChildElem@CMarkupArchive@@UAE_NPBD@Z
_TEXT	SEGMENT
tv90 = -32						; size = 4
tv91 = -28						; size = 4
$T188707 = -24						; size = 4
$T188706 = -17						; size = 1
_this$ = -16						; size = 4
__$EHRec$ = -12						; size = 12
_szName$ = 8						; size = 4
?FindChildElem@CMarkupArchive@@UAE_NPBD@Z PROC NEAR	; CMarkupArchive::FindChildElem, COMDAT
; _this$ = ecx

; 171  : 	{	

  00000	55		 push	 ebp
  00001	8b ec		 mov	 ebp, esp
  00003	6a ff		 push	 -1
  00005	68 00 00 00 00	 push	 __ehhandler$?FindChildElem@CMarkupArchive@@UAE_NPBD@Z
  0000a	64 a1 00 00 00
	00		 mov	 eax, DWORD PTR fs:__except_list
  00010	50		 push	 eax
  00011	64 89 25 00 00
	00 00		 mov	 DWORD PTR fs:__except_list, esp
  00018	83 ec 14	 sub	 esp, 20			; 00000014H
  0001b	56		 push	 esi
  0001c	b8 cc cc cc cc	 mov	 eax, -858993460		; ccccccccH
  00021	89 45 e0	 mov	 DWORD PTR [ebp-32], eax
  00024	89 45 e4	 mov	 DWORD PTR [ebp-28], eax
  00027	89 45 e8	 mov	 DWORD PTR [ebp-24], eax
  0002a	89 45 ec	 mov	 DWORD PTR [ebp-20], eax
  0002d	89 45 f0	 mov	 DWORD PTR [ebp-16], eax
  00030	89 4d f0	 mov	 DWORD PTR _this$[ebp], ecx

; 172  : 		if (szName==NULL) 

  00033	83 7d 08 00	 cmp	 DWORD PTR _szName$[ebp], 0
  00037	75 0f		 jne	 SHORT $L187464

; 173  : 			return CMarkup::FindElem( NULL); 

  00039	6a 00		 push	 0
  0003b	8b 4d f0	 mov	 ecx, DWORD PTR _this$[ebp]
  0003e	e8 00 00 00 00	 call	 ?FindElem@CMarkup@@QAE_NPBD@Z ; CMarkup::FindElem
  00043	e9 8b 00 00 00	 jmp	 $L187463
$L187464:

; 174  : 		else 
; 175  : 			if (m_sNameSpace.IsEmpty())

  00048	8b 4d f0	 mov	 ecx, DWORD PTR _this$[ebp]
  0004b	83 c1 4c	 add	 ecx, 76			; 0000004cH
  0004e	8b f4		 mov	 esi, esp
  00050	ff 15 00 00 00
	00		 call	 DWORD PTR __imp_?IsEmpty@?$CSimpleStringT@D$00@ATL@@QBE_NXZ
  00056	3b f4		 cmp	 esi, esp
  00058	e8 00 00 00 00	 call	 __RTC_CheckEsp
  0005d	0f b6 c0	 movzx	 eax, al
  00060	85 c0		 test	 eax, eax
  00062	74 0e		 je	 SHORT $L187466

; 176  : 				return CMarkup::FindChildElem(szName);

  00064	8b 4d 08	 mov	 ecx, DWORD PTR _szName$[ebp]
  00067	51		 push	 ecx
  00068	8b 4d f0	 mov	 ecx, DWORD PTR _this$[ebp]
  0006b	e8 00 00 00 00	 call	 ?FindChildElem@CMarkup@@QAE_NPBD@Z ; CMarkup::FindChildElem
  00070	eb 61		 jmp	 SHORT $L187463
$L187466:

; 177  : 			else
; 178  : 				return CMarkup::FindChildElem( m_sNameSpace+szName);

  00072	8b 55 08	 mov	 edx, DWORD PTR _szName$[ebp]
  00075	52		 push	 edx
  00076	8b 45 f0	 mov	 eax, DWORD PTR _this$[ebp]
  00079	83 c0 4c	 add	 eax, 76			; 0000004cH
  0007c	50		 push	 eax
  0007d	8d 4d e8	 lea	 ecx, DWORD PTR $T188707[ebp]
  00080	51		 push	 ecx
  00081	e8 00 00 00 00	 call	 ??HATL@@YA?AV?$CStringT@DV?$StrTraitMFC_DLL@DV?$ChTraitsCRT@D@ATL@@@@@0@ABV10@PBD@Z ; ATL::operator+
  00086	83 c4 0c	 add	 esp, 12			; 0000000cH
  00089	89 45 e4	 mov	 DWORD PTR tv91[ebp], eax
  0008c	8b 55 e4	 mov	 edx, DWORD PTR tv91[ebp]
  0008f	89 55 e0	 mov	 DWORD PTR tv90[ebp], edx
  00092	c7 45 fc 00 00
	00 00		 mov	 DWORD PTR __$EHRec$[ebp+8], 0
  00099	8b f4		 mov	 esi, esp
  0009b	8b 4d e0	 mov	 ecx, DWORD PTR tv90[ebp]
  0009e	ff 15 00 00 00
	00		 call	 DWORD PTR __imp_??B?$CSimpleStringT@D$00@ATL@@QBEPBDXZ
  000a4	3b f4		 cmp	 esi, esp
  000a6	e8 00 00 00 00	 call	 __RTC_CheckEsp
  000ab	50		 push	 eax
  000ac	8b 4d f0	 mov	 ecx, DWORD PTR _this$[ebp]
  000af	e8 00 00 00 00	 call	 ?FindChildElem@CMarkup@@QAE_NPBD@Z ; CMarkup::FindChildElem
  000b4	88 45 ef	 mov	 BYTE PTR $T188706[ebp], al
  000b7	c7 45 fc ff ff
	ff ff		 mov	 DWORD PTR __$EHRec$[ebp+8], -1
  000be	8b f4		 mov	 esi, esp
  000c0	8d 4d e8	 lea	 ecx, DWORD PTR $T188707[ebp]
  000c3	ff 15 00 00 00
	00		 call	 DWORD PTR __imp_??1?$CStringT@DV?$StrTraitMFC_DLL@DV?$ChTraitsCRT@D@ATL@@@@@ATL@@QAE@XZ
  000c9	3b f4		 cmp	 esi, esp
  000cb	e8 00 00 00 00	 call	 __RTC_CheckEsp
  000d0	8a 45 ef	 mov	 al, BYTE PTR $T188706[ebp]
$L187463:

; 179  : 	};

  000d3	8b 4d f4	 mov	 ecx, DWORD PTR __$EHRec$[ebp]
  000d6	64 89 0d 00 00
	00 00		 mov	 DWORD PTR fs:__except_list, ecx
  000dd	5e		 pop	 esi
  000de	83 c4 20	 add	 esp, 32			; 00000020H
  000e1	3b ec		 cmp	 ebp, esp
  000e3	e8 00 00 00 00	 call	 __RTC_CheckEsp
  000e8	8b e5		 mov	 esp, ebp
  000ea	5d		 pop	 ebp
  000eb	c2 04 00	 ret	 4
_TEXT	ENDS
;	COMDAT text$x
text$x	SEGMENT
$L188708:
  00000	8b f4		 mov	 esi, esp
  00002	8d 4d e8	 lea	 ecx, DWORD PTR $T188707[ebp]
  00005	ff 15 00 00 00
	00		 call	 DWORD PTR __imp_??1?$CStringT@DV?$StrTraitMFC_DLL@DV?$ChTraitsCRT@D@ATL@@@@@ATL@@QAE@XZ
  0000b	3b f4		 cmp	 esi, esp
  0000d	e9 00 00 00 00	 jmp	 __RTC_CheckEsp
__ehhandler$?FindChildElem@CMarkupArchive@@UAE_NPBD@Z:
  00012	b8 00 00 00 00	 mov	 eax, OFFSET FLAT:$T188710
  00017	e9 00 00 00 00	 jmp	 ___CxxFrameHandler
text$x	ENDS
?FindChildElem@CMarkupArchive@@UAE_NPBD@Z ENDP		; CMarkupArchive::FindChildElem
; Function compile flags: /Odt /RTCsu
;	COMDAT ??_GCMarkupArchive@@UAEPAXI@Z
_TEXT	SEGMENT
_this$ = -4						; size = 4
___flags$ = 8						; size = 4
??_GCMarkupArchive@@UAEPAXI@Z PROC NEAR			; CMarkupArchive::`scalar deleting destructor', COMDAT
; _this$ = ecx
  00000	55		 push	 ebp
  00001	8b ec		 mov	 ebp, esp
  00003	51		 push	 ecx
  00004	c7 45 fc cc cc
	cc cc		 mov	 DWORD PTR [ebp-4], -858993460 ; ccccccccH
  0000b	89 4d fc	 mov	 DWORD PTR _this$[ebp], ecx
  0000e	8b 4d fc	 mov	 ecx, DWORD PTR _this$[ebp]
  00011	e8 00 00 00 00	 call	 ??1CMarkupArchive@@UAE@XZ ; CMarkupArchive::~CMarkupArchive
  00016	8b 45 08	 mov	 eax, DWORD PTR ___flags$[ebp]
  00019	83 e0 01	 and	 eax, 1
  0001c	74 0c		 je	 SHORT $L187476
  0001e	8b 4d fc	 mov	 ecx, DWORD PTR _this$[ebp]
  00021	51		 push	 ecx
  00022	e8 00 00 00 00	 call	 ??3@YAXPAX@Z		; operator delete
  00027	83 c4 04	 add	 esp, 4
$L187476:
  0002a	8b 45 fc	 mov	 eax, DWORD PTR _this$[ebp]
  0002d	83 c4 04	 add	 esp, 4
  00030	3b ec		 cmp	 ebp, esp
  00032	e8 00 00 00 00	 call	 __RTC_CheckEsp
  00037	8b e5		 mov	 esp, ebp
  00039	5d		 pop	 ebp
  0003a	c2 04 00	 ret	 4
??_GCMarkupArchive@@UAEPAXI@Z ENDP			; CMarkupArchive::`scalar deleting destructor'
_TEXT	ENDS
PUBLIC	?OpenNewFile@CMarkupArchive@@QAE_NPBD@Z		; CMarkupArchive::OpenNewFile
EXTRN	?SetDoc@CMarkup@@QAE_NPBD@Z:NEAR		; CMarkup::SetDoc
EXTRN	__imp_??4?$CStringT@DV?$StrTraitMFC_DLL@DV?$ChTraitsCRT@D@ATL@@@@@ATL@@QAEAAV01@PBD@Z:NEAR
; Function compile flags: /Odt /RTCsu
; File d:\boxgit\playbox\playbox\dev\prj\playbox\src\util\markuparchive.cpp
_TEXT	SEGMENT
_this$ = -4						; size = 4
_szFileName$ = 8					; size = 4
?OpenNewFile@CMarkupArchive@@QAE_NPBD@Z PROC NEAR	; CMarkupArchive::OpenNewFile
; _this$ = ecx

; 20   : {

  000d0	55		 push	 ebp
  000d1	8b ec		 mov	 ebp, esp
  000d3	51		 push	 ecx
  000d4	56		 push	 esi
  000d5	c7 45 fc cc cc
	cc cc		 mov	 DWORD PTR [ebp-4], -858993460 ; ccccccccH
  000dc	89 4d fc	 mov	 DWORD PTR _this$[ebp], ecx

; 21   : 	m_sFileName = szFileName;

  000df	8b f4		 mov	 esi, esp
  000e1	8b 45 08	 mov	 eax, DWORD PTR _szFileName$[ebp]
  000e4	50		 push	 eax
  000e5	8b 4d fc	 mov	 ecx, DWORD PTR _this$[ebp]
  000e8	83 c1 48	 add	 ecx, 72			; 00000048H
  000eb	ff 15 00 00 00
	00		 call	 DWORD PTR __imp_??4?$CStringT@DV?$StrTraitMFC_DLL@DV?$ChTraitsCRT@D@ATL@@@@@ATL@@QAEAAV01@PBD@Z
  000f1	3b f4		 cmp	 esi, esp
  000f3	e8 00 00 00 00	 call	 __RTC_CheckEsp

; 22   : 	SetDoc(NULL);

  000f8	6a 00		 push	 0
  000fa	8b 4d fc	 mov	 ecx, DWORD PTR _this$[ebp]
  000fd	e8 00 00 00 00	 call	 ?SetDoc@CMarkup@@QAE_NPBD@Z ; CMarkup::SetDoc

; 23   : 	m_bOpened=true;

  00102	8b 4d fc	 mov	 ecx, DWORD PTR _this$[ebp]
  00105	c6 41 44 01	 mov	 BYTE PTR [ecx+68], 1

; 24   : 
; 25   : 	return true;

  00109	b0 01		 mov	 al, 1

; 26   : }

  0010b	5e		 pop	 esi
  0010c	83 c4 04	 add	 esp, 4
  0010f	3b ec		 cmp	 ebp, esp
  00111	e8 00 00 00 00	 call	 __RTC_CheckEsp
  00116	8b e5		 mov	 esp, ebp
  00118	5d		 pop	 ebp
  00119	c2 04 00	 ret	 4
?OpenNewFile@CMarkupArchive@@QAE_NPBD@Z ENDP		; CMarkupArchive::OpenNewFile
_TEXT	ENDS
PUBLIC	?GetDoc@CMarkup@@QBE?AV?$CStringT@DV?$StrTraitMFC_DLL@DV?$ChTraitsCRT@D@ATL@@@@@ATL@@XZ ; CMarkup::GetDoc
PUBLIC	?SaveNewFile@CMarkupArchive@@QAE_NXZ		; CMarkupArchive::SaveNewFile
EXTRN	@_RTC_CheckStackVars@8:NEAR
EXTRN	__imp_?GetLength@?$CSimpleStringT@D$00@ATL@@QBEHXZ:NEAR
EXTRN	??0CFile@@QAE@XZ:NEAR				; CFile::CFile
EXTRN	?Open@CFile@@UAEHPBDIPAVCFileException@@@Z:NEAR	; CFile::Open
EXTRN	?Write@CFile@@UAEXPBXI@Z:NEAR			; CFile::Write
EXTRN	?Close@CFile@@UAEXXZ:NEAR			; CFile::Close
EXTRN	??1CFile@@UAE@XZ:NEAR				; CFile::~CFile
xdata$x	SEGMENT
$T188730 DD	0ffffffffH
	DD	FLAT:$L188720
	DD	00H
	DD	FLAT:$L188721
$T188723 DD	019930520H
	DD	02H
	DD	FLAT:$T188730
	DD	2 DUP(00H)
	DD	2 DUP(00H)
; Function compile flags: /Odt /RTCsu
xdata$x	ENDS
_TEXT	SEGMENT
$T188719 = -54						; size = 1
$T188718 = -53						; size = 1
_doc$ = -48						; size = 4
_f$ = -36						; size = 16
_this$ = -16						; size = 4
__$EHRec$ = -12						; size = 12
?SaveNewFile@CMarkupArchive@@QAE_NXZ PROC NEAR		; CMarkupArchive::SaveNewFile
; _this$ = ecx

; 28   : {

  00120	55		 push	 ebp
  00121	8b ec		 mov	 ebp, esp
  00123	6a ff		 push	 -1
  00125	68 00 00 00 00	 push	 __ehhandler$?SaveNewFile@CMarkupArchive@@QAE_NXZ
  0012a	64 a1 00 00 00
	00		 mov	 eax, DWORD PTR fs:__except_list
  00130	50		 push	 eax
  00131	64 89 25 00 00
	00 00		 mov	 DWORD PTR fs:__except_list, esp
  00138	83 ec 2c	 sub	 esp, 44			; 0000002cH
  0013b	56		 push	 esi
  0013c	57		 push	 edi
  0013d	51		 push	 ecx
  0013e	8d 7d c8	 lea	 edi, DWORD PTR [ebp-56]
  00141	b9 0b 00 00 00	 mov	 ecx, 11			; 0000000bH
  00146	b8 cc cc cc cc	 mov	 eax, -858993460		; ccccccccH
  0014b	f3 ab		 rep stosd
  0014d	59		 pop	 ecx
  0014e	89 4d f0	 mov	 DWORD PTR _this$[ebp], ecx

; 29   : 	CFile			f;

  00151	8d 4d dc	 lea	 ecx, DWORD PTR _f$[ebp]
  00154	e8 00 00 00 00	 call	 ??0CFile@@QAE@XZ	; CFile::CFile
  00159	c7 45 fc 00 00
	00 00		 mov	 DWORD PTR __$EHRec$[ebp+8], 0

; 30   : 	if(!f.Open(m_sFileName, CFile::modeCreate| CFile::modeWrite|CFile::modeRead))

  00160	6a 00		 push	 0
  00162	68 01 10 00 00	 push	 4097			; 00001001H
  00167	8b 4d f0	 mov	 ecx, DWORD PTR _this$[ebp]
  0016a	83 c1 48	 add	 ecx, 72			; 00000048H
  0016d	8b f4		 mov	 esi, esp
  0016f	ff 15 00 00 00
	00		 call	 DWORD PTR __imp_??B?$CSimpleStringT@D$00@ATL@@QBEPBDXZ
  00175	3b f4		 cmp	 esi, esp
  00177	e8 00 00 00 00	 call	 __RTC_CheckEsp
  0017c	50		 push	 eax
  0017d	8d 4d dc	 lea	 ecx, DWORD PTR _f$[ebp]
  00180	e8 00 00 00 00	 call	 ?Open@CFile@@UAEHPBDIPAVCFileException@@@Z ; CFile::Open
  00185	85 c0		 test	 eax, eax
  00187	75 18		 jne	 SHORT $L187690

; 31   : 		return false;

  00189	c6 45 cb 00	 mov	 BYTE PTR $T188718[ebp], 0
  0018d	c7 45 fc ff ff
	ff ff		 mov	 DWORD PTR __$EHRec$[ebp+8], -1
  00194	8d 4d dc	 lea	 ecx, DWORD PTR _f$[ebp]
  00197	e8 00 00 00 00	 call	 ??1CFile@@UAE@XZ	; CFile::~CFile
  0019c	8a 45 cb	 mov	 al, BYTE PTR $T188718[ebp]
  0019f	eb 72		 jmp	 SHORT $L187688
$L187690:

; 32   : 	CString doc = GetDoc();

  001a1	8d 45 d0	 lea	 eax, DWORD PTR _doc$[ebp]
  001a4	50		 push	 eax
  001a5	8b 4d f0	 mov	 ecx, DWORD PTR _this$[ebp]
  001a8	e8 00 00 00 00	 call	 ?GetDoc@CMarkup@@QBE?AV?$CStringT@DV?$StrTraitMFC_DLL@DV?$ChTraitsCRT@D@ATL@@@@@ATL@@XZ ; CMarkup::GetDoc
  001ad	c6 45 fc 01	 mov	 BYTE PTR __$EHRec$[ebp+8], 1

; 33   : 	f.Write(doc, doc.GetLength());

  001b1	8b f4		 mov	 esi, esp
  001b3	8d 4d d0	 lea	 ecx, DWORD PTR _doc$[ebp]
  001b6	ff 15 00 00 00
	00		 call	 DWORD PTR __imp_?GetLength@?$CSimpleStringT@D$00@ATL@@QBEHXZ
  001bc	3b f4		 cmp	 esi, esp
  001be	e8 00 00 00 00	 call	 __RTC_CheckEsp
  001c3	50		 push	 eax
  001c4	8b f4		 mov	 esi, esp
  001c6	8d 4d d0	 lea	 ecx, DWORD PTR _doc$[ebp]
  001c9	ff 15 00 00 00
	00		 call	 DWORD PTR __imp_??B?$CSimpleStringT@D$00@ATL@@QBEPBDXZ
  001cf	3b f4		 cmp	 esi, esp
  001d1	e8 00 00 00 00	 call	 __RTC_CheckEsp
  001d6	50		 push	 eax
  001d7	8d 4d dc	 lea	 ecx, DWORD PTR _f$[ebp]
  001da	e8 00 00 00 00	 call	 ?Write@CFile@@UAEXPBXI@Z ; CFile::Write

; 34   : 	f.Close();

  001df	8d 4d dc	 lea	 ecx, DWORD PTR _f$[ebp]
  001e2	e8 00 00 00 00	 call	 ?Close@CFile@@UAEXXZ	; CFile::Close

; 35   : 	return true;

  001e7	c6 45 ca 01	 mov	 BYTE PTR $T188719[ebp], 1
  001eb	c6 45 fc 00	 mov	 BYTE PTR __$EHRec$[ebp+8], 0
  001ef	8b f4		 mov	 esi, esp
  001f1	8d 4d d0	 lea	 ecx, DWORD PTR _doc$[ebp]
  001f4	ff 15 00 00 00
	00		 call	 DWORD PTR __imp_??1?$CStringT@DV?$StrTraitMFC_DLL@DV?$ChTraitsCRT@D@ATL@@@@@ATL@@QAE@XZ
  001fa	3b f4		 cmp	 esi, esp
  001fc	e8 00 00 00 00	 call	 __RTC_CheckEsp
  00201	c7 45 fc ff ff
	ff ff		 mov	 DWORD PTR __$EHRec$[ebp+8], -1
  00208	8d 4d dc	 lea	 ecx, DWORD PTR _f$[ebp]
  0020b	e8 00 00 00 00	 call	 ??1CFile@@UAE@XZ	; CFile::~CFile
  00210	8a 45 ca	 mov	 al, BYTE PTR $T188719[ebp]
$L187688:

; 36   : }

  00213	52		 push	 edx
  00214	8b cd		 mov	 ecx, ebp
  00216	50		 push	 eax
  00217	8d 15 00 00 00
	00		 lea	 edx, DWORD PTR $L188728
  0021d	e8 00 00 00 00	 call	 @_RTC_CheckStackVars@8
  00222	58		 pop	 eax
  00223	5a		 pop	 edx
  00224	8b 4d f4	 mov	 ecx, DWORD PTR __$EHRec$[ebp]
  00227	64 89 0d 00 00
	00 00		 mov	 DWORD PTR fs:__except_list, ecx
  0022e	5f		 pop	 edi
  0022f	5e		 pop	 esi
  00230	83 c4 38	 add	 esp, 56			; 00000038H
  00233	3b ec		 cmp	 ebp, esp
  00235	e8 00 00 00 00	 call	 __RTC_CheckEsp
  0023a	8b e5		 mov	 esp, ebp
  0023c	5d		 pop	 ebp
  0023d	c3		 ret	 0
$L188728:
  0023e	02 00 00 00	 DD	 2
  00242	00 00 00 00	 DD	 $L188727
$L188727:
  00246	dc ff ff ff	 DD	 -36			; ffffffdcH
  0024a	10 00 00 00	 DD	 16			; 00000010H
  0024e	00 00 00 00	 DD	 $L188724
  00252	d0 ff ff ff	 DD	 -48			; ffffffd0H
  00256	04 00 00 00	 DD	 4
  0025a	00 00 00 00	 DD	 $L188725
$L188725:
  0025e	64		 DB	 100			; 00000064H
  0025f	6f		 DB	 111			; 0000006fH
  00260	63		 DB	 99			; 00000063H
  00261	00		 DB	 0
$L188724:
  00262	66		 DB	 102			; 00000066H
  00263	00		 DB	 0
_TEXT	ENDS
text$x	SEGMENT
$L188720:
  00066	8d 4d dc	 lea	 ecx, DWORD PTR _f$[ebp]
  00069	e9 00 00 00 00	 jmp	 ??1CFile@@UAE@XZ	; CFile::~CFile
$L188721:
  0006e	8b f4		 mov	 esi, esp
  00070	8d 4d d0	 lea	 ecx, DWORD PTR _doc$[ebp]
  00073	ff 15 00 00 00
	00		 call	 DWORD PTR __imp_??1?$CStringT@DV?$StrTraitMFC_DLL@DV?$ChTraitsCRT@D@ATL@@@@@ATL@@QAE@XZ
  00079	3b f4		 cmp	 esi, esp
  0007b	e9 00 00 00 00	 jmp	 __RTC_CheckEsp
__ehhandler$?SaveNewFile@CMarkupArchive@@QAE_NXZ:
  00080	b8 00 00 00 00	 mov	 eax, OFFSET FLAT:$T188723
  00085	e9 00 00 00 00	 jmp	 ___CxxFrameHandler
text$x	ENDS
?SaveNewFile@CMarkupArchive@@QAE_NXZ ENDP		; CMarkupArchive::SaveNewFile
EXTRN	__imp_??0?$CStringT@DV?$StrTraitMFC_DLL@DV?$ChTraitsCRT@D@ATL@@@@@ATL@@QAE@ABV01@@Z:NEAR
; Function compile flags: /Odt /RTCsu
; File d:\boxgit\playbox\playbox\dev\prj\playbox\src\util\markup.h
;	COMDAT ?GetDoc@CMarkup@@QBE?AV?$CStringT@DV?$StrTraitMFC_DLL@DV?$ChTraitsCRT@D@ATL@@@@@ATL@@XZ
_TEXT	SEGMENT
$T188733 = -8						; size = 4
_this$ = -4						; size = 4
___$ReturnUdt$ = 8					; size = 4
?GetDoc@CMarkup@@QBE?AV?$CStringT@DV?$StrTraitMFC_DLL@DV?$ChTraitsCRT@D@ATL@@@@@ATL@@XZ PROC NEAR ; CMarkup::GetDoc, COMDAT
; _this$ = ecx

; 36   : 	CString GetDoc() const { return m_csDoc; };

  00000	55		 push	 ebp
  00001	8b ec		 mov	 ebp, esp
  00003	83 ec 08	 sub	 esp, 8
  00006	56		 push	 esi
  00007	c7 45 f8 cc cc
	cc cc		 mov	 DWORD PTR [ebp-8], -858993460 ; ccccccccH
  0000e	c7 45 fc cc cc
	cc cc		 mov	 DWORD PTR [ebp-4], -858993460 ; ccccccccH
  00015	89 4d fc	 mov	 DWORD PTR _this$[ebp], ecx
  00018	c7 45 f8 00 00
	00 00		 mov	 DWORD PTR $T188733[ebp], 0
  0001f	8b 45 fc	 mov	 eax, DWORD PTR _this$[ebp]
  00022	83 c0 0c	 add	 eax, 12			; 0000000cH
  00025	8b f4		 mov	 esi, esp
  00027	50		 push	 eax
  00028	8b 4d 08	 mov	 ecx, DWORD PTR ___$ReturnUdt$[ebp]
  0002b	ff 15 00 00 00
	00		 call	 DWORD PTR __imp_??0?$CStringT@DV?$StrTraitMFC_DLL@DV?$ChTraitsCRT@D@ATL@@@@@ATL@@QAE@ABV01@@Z
  00031	3b f4		 cmp	 esi, esp
  00033	e8 00 00 00 00	 call	 __RTC_CheckEsp
  00038	8b 4d f8	 mov	 ecx, DWORD PTR $T188733[ebp]
  0003b	83 c9 01	 or	 ecx, 1
  0003e	89 4d f8	 mov	 DWORD PTR $T188733[ebp], ecx
  00041	8b 45 08	 mov	 eax, DWORD PTR ___$ReturnUdt$[ebp]
  00044	5e		 pop	 esi
  00045	83 c4 08	 add	 esp, 8
  00048	3b ec		 cmp	 ebp, esp
  0004a	e8 00 00 00 00	 call	 __RTC_CheckEsp
  0004f	8b e5		 mov	 esp, ebp
  00051	5d		 pop	 ebp
  00052	c2 04 00	 ret	 4
?GetDoc@CMarkup@@QBE?AV?$CStringT@DV?$StrTraitMFC_DLL@DV?$ChTraitsCRT@D@ATL@@@@@ATL@@XZ ENDP ; CMarkup::GetDoc
_TEXT	ENDS
PUBLIC	?Open@CMarkupArchive@@QAE_NPBD@Z		; CMarkupArchive::Open
EXTRN	??_U@YAPAXI@Z:NEAR				; operator new[]
EXTRN	??_V@YAXPAX@Z:NEAR				; operator delete[]
EXTRN	?AfxAssertFailedLine@@YGHPBDH@Z:NEAR		; AfxAssertFailedLine
EXTRN	__imp_??0?$CStringT@DV?$StrTraitMFC_DLL@DV?$ChTraitsCRT@D@ATL@@@@@ATL@@QAE@XZ:NEAR
EXTRN	__imp_??4?$CStringT@DV?$StrTraitMFC_DLL@DV?$ChTraitsCRT@D@ATL@@@@@ATL@@QAEAAV01@PBE@Z:NEAR
EXTRN	?GetLength@CFile@@UBE_KXZ:NEAR			; CFile::GetLength
EXTRN	?Read@CFile@@UAEIPAXI@Z:NEAR			; CFile::Read
xdata$x	SEGMENT
$T188750 DD	0ffffffffH
	DD	FLAT:$L188741
	DD	00H
	DD	FLAT:$L188742
$T188744 DD	019930520H
	DD	02H
	DD	FLAT:$T188750
	DD	2 DUP(00H)
	DD	2 DUP(00H)
; Function compile flags: /Odt /RTCsu
; File d:\boxgit\playbox\playbox\dev\prj\playbox\src\util\markuparchive.cpp
xdata$x	ENDS
_TEXT	SEGMENT
$T188740 = -73						; size = 1
$T188739 = -72						; size = 4
$T188738 = -68						; size = 4
$T188737 = -61						; size = 1
_pBuffer$ = -60						; size = 4
_nFileLen$ = -56					; size = 4
_strXMLContent$ = -48					; size = 4
_f$ = -36						; size = 16
_this$ = -16						; size = 4
__$EHRec$ = -12						; size = 12
_szFileName$ = 8					; size = 4
?Open@CMarkupArchive@@QAE_NPBD@Z PROC NEAR		; CMarkupArchive::Open
; _this$ = ecx

; 39   : {

  00270	55		 push	 ebp
  00271	8b ec		 mov	 ebp, esp
  00273	6a ff		 push	 -1
  00275	68 00 00 00 00	 push	 __ehhandler$?Open@CMarkupArchive@@QAE_NPBD@Z
  0027a	64 a1 00 00 00
	00		 mov	 eax, DWORD PTR fs:__except_list
  00280	50		 push	 eax
  00281	64 89 25 00 00
	00 00		 mov	 DWORD PTR fs:__except_list, esp
  00288	83 ec 40	 sub	 esp, 64			; 00000040H
  0028b	56		 push	 esi
  0028c	57		 push	 edi
  0028d	51		 push	 ecx
  0028e	8d 7d b4	 lea	 edi, DWORD PTR [ebp-76]
  00291	b9 10 00 00 00	 mov	 ecx, 16			; 00000010H
  00296	b8 cc cc cc cc	 mov	 eax, -858993460		; ccccccccH
  0029b	f3 ab		 rep stosd
  0029d	59		 pop	 ecx
  0029e	89 4d f0	 mov	 DWORD PTR _this$[ebp], ecx

; 40   : 	CFile			f;

  002a1	8d 4d dc	 lea	 ecx, DWORD PTR _f$[ebp]
  002a4	e8 00 00 00 00	 call	 ??0CFile@@QAE@XZ	; CFile::CFile
  002a9	c7 45 fc 00 00
	00 00		 mov	 DWORD PTR __$EHRec$[ebp+8], 0

; 41   : 	CString			strXMLContent;

  002b0	8b f4		 mov	 esi, esp
  002b2	8d 4d d0	 lea	 ecx, DWORD PTR _strXMLContent$[ebp]
  002b5	ff 15 00 00 00
	00		 call	 DWORD PTR __imp_??0?$CStringT@DV?$StrTraitMFC_DLL@DV?$ChTraitsCRT@D@ATL@@@@@ATL@@QAE@XZ
  002bb	3b f4		 cmp	 esi, esp
  002bd	e8 00 00 00 00	 call	 __RTC_CheckEsp
  002c2	c6 45 fc 01	 mov	 BYTE PTR __$EHRec$[ebp+8], 1

; 42   : 	int				nFileLen;
; 43   : 	unsigned char * pBuffer;
; 44   : 
; 45   : 	m_sFileName= szFileName;

  002c6	8b f4		 mov	 esi, esp
  002c8	8b 45 08	 mov	 eax, DWORD PTR _szFileName$[ebp]
  002cb	50		 push	 eax
  002cc	8b 4d f0	 mov	 ecx, DWORD PTR _this$[ebp]
  002cf	83 c1 48	 add	 ecx, 72			; 00000048H
  002d2	ff 15 00 00 00
	00		 call	 DWORD PTR __imp_??4?$CStringT@DV?$StrTraitMFC_DLL@DV?$ChTraitsCRT@D@ATL@@@@@ATL@@QAEAAV01@PBD@Z
  002d8	3b f4		 cmp	 esi, esp
  002da	e8 00 00 00 00	 call	 __RTC_CheckEsp

; 46   : 
; 47   : 	ASSERT(m_bOpened==false);

  002df	8b 4d f0	 mov	 ecx, DWORD PTR _this$[ebp]
  002e2	0f b6 51 44	 movzx	 edx, BYTE PTR [ecx+68]
  002e6	85 d2		 test	 edx, edx
  002e8	74 11		 je	 SHORT $L188736
  002ea	6a 2f		 push	 47			; 0000002fH
  002ec	68 00 00 00 00	 push	 OFFSET FLAT:$SG187704
  002f1	e8 00 00 00 00	 call	 ?AfxAssertFailedLine@@YGHPBDH@Z ; AfxAssertFailedLine
  002f6	85 c0		 test	 eax, eax
  002f8	74 01		 je	 SHORT $L188736
  002fa	cc		 int	 3
$L188736:

; 48   : 
; 49   : 	if(!f.Open(szFileName, CFile::modeRead))

  002fb	6a 00		 push	 0
  002fd	6a 00		 push	 0
  002ff	8b 4d 08	 mov	 ecx, DWORD PTR _szFileName$[ebp]
  00302	51		 push	 ecx
  00303	8d 4d dc	 lea	 ecx, DWORD PTR _f$[ebp]
  00306	e8 00 00 00 00	 call	 ?Open@CFile@@UAEHPBDIPAVCFileException@@@Z ; CFile::Open
  0030b	85 c0		 test	 eax, eax
  0030d	75 31		 jne	 SHORT $L187705

; 50   : 		return false;

  0030f	c6 45 c3 00	 mov	 BYTE PTR $T188737[ebp], 0
  00313	c6 45 fc 00	 mov	 BYTE PTR __$EHRec$[ebp+8], 0
  00317	8b f4		 mov	 esi, esp
  00319	8d 4d d0	 lea	 ecx, DWORD PTR _strXMLContent$[ebp]
  0031c	ff 15 00 00 00
	00		 call	 DWORD PTR __imp_??1?$CStringT@DV?$StrTraitMFC_DLL@DV?$ChTraitsCRT@D@ATL@@@@@ATL@@QAE@XZ
  00322	3b f4		 cmp	 esi, esp
  00324	e8 00 00 00 00	 call	 __RTC_CheckEsp
  00329	c7 45 fc ff ff
	ff ff		 mov	 DWORD PTR __$EHRec$[ebp+8], -1
  00330	8d 4d dc	 lea	 ecx, DWORD PTR _f$[ebp]
  00333	e8 00 00 00 00	 call	 ??1CFile@@UAE@XZ	; CFile::~CFile
  00338	8a 45 c3	 mov	 al, BYTE PTR $T188737[ebp]
  0033b	e9 c8 00 00 00	 jmp	 $L187698
$L187705:

; 51   : 
; 52   : 	nFileLen = (int)(f.GetLength());

  00340	8d 4d dc	 lea	 ecx, DWORD PTR _f$[ebp]
  00343	e8 00 00 00 00	 call	 ?GetLength@CFile@@UBE_KXZ ; CFile::GetLength
  00348	89 45 c8	 mov	 DWORD PTR _nFileLen$[ebp], eax

; 53   : 	pBuffer = new unsigned char[nFileLen + 2];

  0034b	8b 55 c8	 mov	 edx, DWORD PTR _nFileLen$[ebp]
  0034e	83 c2 02	 add	 edx, 2
  00351	52		 push	 edx
  00352	e8 00 00 00 00	 call	 ??_U@YAPAXI@Z		; operator new[]
  00357	83 c4 04	 add	 esp, 4
  0035a	89 45 bc	 mov	 DWORD PTR $T188738[ebp], eax
  0035d	8b 45 bc	 mov	 eax, DWORD PTR $T188738[ebp]
  00360	89 45 c4	 mov	 DWORD PTR _pBuffer$[ebp], eax

; 54   : 	f.Read(pBuffer, nFileLen);

  00363	8b 4d c8	 mov	 ecx, DWORD PTR _nFileLen$[ebp]
  00366	51		 push	 ecx
  00367	8b 55 c4	 mov	 edx, DWORD PTR _pBuffer$[ebp]
  0036a	52		 push	 edx
  0036b	8d 4d dc	 lea	 ecx, DWORD PTR _f$[ebp]
  0036e	e8 00 00 00 00	 call	 ?Read@CFile@@UAEIPAXI@Z	; CFile::Read

; 55   : 	f.Close();

  00373	8d 4d dc	 lea	 ecx, DWORD PTR _f$[ebp]
  00376	e8 00 00 00 00	 call	 ?Close@CFile@@UAEXXZ	; CFile::Close

; 56   : 
; 57   : 	pBuffer[nFileLen] = '\0';

  0037b	8b 45 c4	 mov	 eax, DWORD PTR _pBuffer$[ebp]
  0037e	03 45 c8	 add	 eax, DWORD PTR _nFileLen$[ebp]
  00381	c6 00 00	 mov	 BYTE PTR [eax], 0

; 58   : 	pBuffer[nFileLen+1] = '\0'; // in case 2-byte encoded

  00384	8b 4d c4	 mov	 ecx, DWORD PTR _pBuffer$[ebp]
  00387	03 4d c8	 add	 ecx, DWORD PTR _nFileLen$[ebp]
  0038a	c6 41 01 00	 mov	 BYTE PTR [ecx+1], 0

; 59   : 
; 60   : 	strXMLContent = pBuffer;

  0038e	8b f4		 mov	 esi, esp
  00390	8b 55 c4	 mov	 edx, DWORD PTR _pBuffer$[ebp]
  00393	52		 push	 edx
  00394	8d 4d d0	 lea	 ecx, DWORD PTR _strXMLContent$[ebp]
  00397	ff 15 00 00 00
	00		 call	 DWORD PTR __imp_??4?$CStringT@DV?$StrTraitMFC_DLL@DV?$ChTraitsCRT@D@ATL@@@@@ATL@@QAEAAV01@PBE@Z
  0039d	3b f4		 cmp	 esi, esp
  0039f	e8 00 00 00 00	 call	 __RTC_CheckEsp

; 61   : 	delete [] pBuffer;

  003a4	8b 45 c4	 mov	 eax, DWORD PTR _pBuffer$[ebp]
  003a7	89 45 b8	 mov	 DWORD PTR $T188739[ebp], eax
  003aa	8b 4d b8	 mov	 ecx, DWORD PTR $T188739[ebp]
  003ad	51		 push	 ecx
  003ae	e8 00 00 00 00	 call	 ??_V@YAXPAX@Z		; operator delete[]
  003b3	83 c4 04	 add	 esp, 4

; 62   : 	m_bOpened = SetDoc(strXMLContent);

  003b6	8b f4		 mov	 esi, esp
  003b8	8d 4d d0	 lea	 ecx, DWORD PTR _strXMLContent$[ebp]
  003bb	ff 15 00 00 00
	00		 call	 DWORD PTR __imp_??B?$CSimpleStringT@D$00@ATL@@QBEPBDXZ
  003c1	3b f4		 cmp	 esi, esp
  003c3	e8 00 00 00 00	 call	 __RTC_CheckEsp
  003c8	50		 push	 eax
  003c9	8b 4d f0	 mov	 ecx, DWORD PTR _this$[ebp]
  003cc	e8 00 00 00 00	 call	 ?SetDoc@CMarkup@@QAE_NPBD@Z ; CMarkup::SetDoc
  003d1	8b 55 f0	 mov	 edx, DWORD PTR _this$[ebp]
  003d4	88 42 44	 mov	 BYTE PTR [edx+68], al

; 63   : 
; 64   : 	return m_bOpened;

  003d7	8b 45 f0	 mov	 eax, DWORD PTR _this$[ebp]
  003da	8a 48 44	 mov	 cl, BYTE PTR [eax+68]
  003dd	88 4d b7	 mov	 BYTE PTR $T188740[ebp], cl
  003e0	c6 45 fc 00	 mov	 BYTE PTR __$EHRec$[ebp+8], 0
  003e4	8b f4		 mov	 esi, esp
  003e6	8d 4d d0	 lea	 ecx, DWORD PTR _strXMLContent$[ebp]
  003e9	ff 15 00 00 00
	00		 call	 DWORD PTR __imp_??1?$CStringT@DV?$StrTraitMFC_DLL@DV?$ChTraitsCRT@D@ATL@@@@@ATL@@QAE@XZ
  003ef	3b f4		 cmp	 esi, esp
  003f1	e8 00 00 00 00	 call	 __RTC_CheckEsp
  003f6	c7 45 fc ff ff
	ff ff		 mov	 DWORD PTR __$EHRec$[ebp+8], -1
  003fd	8d 4d dc	 lea	 ecx, DWORD PTR _f$[ebp]
  00400	e8 00 00 00 00	 call	 ??1CFile@@UAE@XZ	; CFile::~CFile
  00405	8a 45 b7	 mov	 al, BYTE PTR $T188740[ebp]
$L187698:

; 65   : }

  00408	52		 push	 edx
  00409	8b cd		 mov	 ecx, ebp
  0040b	50		 push	 eax
  0040c	8d 15 00 00 00
	00		 lea	 edx, DWORD PTR $L188749
  00412	e8 00 00 00 00	 call	 @_RTC_CheckStackVars@8
  00417	58		 pop	 eax
  00418	5a		 pop	 edx
  00419	8b 4d f4	 mov	 ecx, DWORD PTR __$EHRec$[ebp]
  0041c	64 89 0d 00 00
	00 00		 mov	 DWORD PTR fs:__except_list, ecx
  00423	5f		 pop	 edi
  00424	5e		 pop	 esi
  00425	83 c4 4c	 add	 esp, 76			; 0000004cH
  00428	3b ec		 cmp	 ebp, esp
  0042a	e8 00 00 00 00	 call	 __RTC_CheckEsp
  0042f	8b e5		 mov	 esp, ebp
  00431	5d		 pop	 ebp
  00432	c2 04 00	 ret	 4
$L188749:
  00435	02 00 00 00	 DD	 2
  00439	00 00 00 00	 DD	 $L188748
$L188748:
  0043d	dc ff ff ff	 DD	 -36			; ffffffdcH
  00441	10 00 00 00	 DD	 16			; 00000010H
  00445	00 00 00 00	 DD	 $L188745
  00449	d0 ff ff ff	 DD	 -48			; ffffffd0H
  0044d	04 00 00 00	 DD	 4
  00451	00 00 00 00	 DD	 $L188746
$L188746:
  00455	73		 DB	 115			; 00000073H
  00456	74		 DB	 116			; 00000074H
  00457	72		 DB	 114			; 00000072H
  00458	58		 DB	 88			; 00000058H
  00459	4d		 DB	 77			; 0000004dH
  0045a	4c		 DB	 76			; 0000004cH
  0045b	43		 DB	 67			; 00000043H
  0045c	6f		 DB	 111			; 0000006fH
  0045d	6e		 DB	 110			; 0000006eH
  0045e	74		 DB	 116			; 00000074H
  0045f	65		 DB	 101			; 00000065H
  00460	6e		 DB	 110			; 0000006eH
  00461	74		 DB	 116			; 00000074H
  00462	00		 DB	 0
$L188745:
  00463	66		 DB	 102			; 00000066H
  00464	00		 DB	 0
_TEXT	ENDS
text$x	SEGMENT
$L188741:
  0008a	8d 4d dc	 lea	 ecx, DWORD PTR _f$[ebp]
  0008d	e9 00 00 00 00	 jmp	 ??1CFile@@UAE@XZ	; CFile::~CFile
$L188742:
  00092	8b f4		 mov	 esi, esp
  00094	8d 4d d0	 lea	 ecx, DWORD PTR _strXMLContent$[ebp]
  00097	ff 15 00 00 00
	00		 call	 DWORD PTR __imp_??1?$CStringT@DV?$StrTraitMFC_DLL@DV?$ChTraitsCRT@D@ATL@@@@@ATL@@QAE@XZ
  0009d	3b f4		 cmp	 esi, esp
  0009f	e9 00 00 00 00	 jmp	 __RTC_CheckEsp
__ehhandler$?Open@CMarkupArchive@@QAE_NPBD@Z:
  000a4	b8 00 00 00 00	 mov	 eax, OFFSET FLAT:$T188744
  000a9	e9 00 00 00 00	 jmp	 ___CxxFrameHandler
text$x	ENDS
?Open@CMarkupArchive@@QAE_NPBD@Z ENDP			; CMarkupArchive::Open
PUBLIC	??HATL@@YA?AV?$CStringT@DV?$StrTraitMFC_DLL@DV?$ChTraitsCRT@D@ATL@@@@@0@PBDABV10@@Z ; ATL::operator+
PUBLIC	?Save@CMarkupArchive@@QAE_NXZ			; CMarkupArchive::Save
EXTRN	__imp__CopyFileA@12:NEAR
EXTRN	__imp_??0?$basic_string@DU?$char_traits@D@std@@V?$allocator@D@2@@std@@QAE@PBD@Z:NEAR
EXTRN	__imp_??1?$basic_string@DU?$char_traits@D@std@@V?$allocator@D@2@@std@@QAE@XZ:NEAR
EXTRN	__imp_?LogUserActMsg@@YAXABV?$basic_string@DU?$char_traits@D@std@@V?$allocator@D@2@@std@@0@Z:NEAR
xdata$x	SEGMENT
$T188789 DD	0ffffffffH
	DD	FLAT:$L188765
	DD	00H
	DD	FLAT:$L188766
	DD	01H
	DD	FLAT:$L188767
	DD	02H
	DD	FLAT:$L188768
	DD	03H
	DD	FLAT:$L188769
	DD	04H
	DD	FLAT:$L188770
	DD	05H
	DD	FLAT:$L188771
	DD	06H
	DD	FLAT:$L188772
	DD	04H
	DD	FLAT:$L188773
	DD	08H
	DD	FLAT:$L188774
	DD	09H
	DD	FLAT:$L188775
	DD	04H
	DD	FLAT:$L188776
	DD	0bH
	DD	FLAT:$L188777
	DD	0cH
	DD	FLAT:$L188778
$T188780 DD	019930520H
	DD	0eH
	DD	FLAT:$T188789
	DD	2 DUP(00H)
	DD	2 DUP(00H)
; Function compile flags: /Odt /RTCsu
xdata$x	ENDS
_TEXT	SEGMENT
tv254 = -336						; size = 4
tv281 = -332						; size = 4
tv252 = -328						; size = 4
tv278 = -324						; size = 4
tv244 = -320						; size = 4
tv274 = -316						; size = 4
tv242 = -312						; size = 4
tv271 = -308						; size = 4
tv234 = -304						; size = 4
tv267 = -300						; size = 4
tv232 = -296						; size = 4
tv264 = -292						; size = 4
$T188764 = -285						; size = 1
$T188763 = -284						; size = 28
$T188762 = -256						; size = 4
$T188761 = -252						; size = 28
$T188760 = -221						; size = 1
$T188759 = -220						; size = 28
$T188758 = -192						; size = 4
$T188757 = -188						; size = 28
$T188756 = -157						; size = 1
$T188755 = -156						; size = 28
$T188754 = -128						; size = 4
$T188753 = -124						; size = 28
$T188752 = -93						; size = 1
_len$187726 = -92					; size = 4
_doc$ = -84						; size = 4
_szFileName$ = -72					; size = 4
_m_strRealFileName$ = -60				; size = 4
_strXMLContent$ = -48					; size = 4
_f$ = -36						; size = 16
_this$ = -16						; size = 4
__$EHRec$ = -12						; size = 12
?Save@CMarkupArchive@@QAE_NXZ PROC NEAR			; CMarkupArchive::Save
; _this$ = ecx

; 68   : {

  00470	55		 push	 ebp
  00471	8b ec		 mov	 ebp, esp
  00473	6a ff		 push	 -1
  00475	68 00 00 00 00	 push	 __ehhandler$?Save@CMarkupArchive@@QAE_NXZ
  0047a	64 a1 00 00 00
	00		 mov	 eax, DWORD PTR fs:__except_list
  00480	50		 push	 eax
  00481	64 89 25 00 00
	00 00		 mov	 DWORD PTR fs:__except_list, esp
  00488	81 ec 44 01 00
	00		 sub	 esp, 324		; 00000144H
  0048e	56		 push	 esi
  0048f	57		 push	 edi
  00490	51		 push	 ecx
  00491	8d bd b0 fe ff
	ff		 lea	 edi, DWORD PTR [ebp-336]
  00497	b9 51 00 00 00	 mov	 ecx, 81			; 00000051H
  0049c	b8 cc cc cc cc	 mov	 eax, -858993460		; ccccccccH
  004a1	f3 ab		 rep stosd
  004a3	59		 pop	 ecx
  004a4	89 4d f0	 mov	 DWORD PTR _this$[ebp], ecx

; 69   : 	CFile			f;

  004a7	8d 4d dc	 lea	 ecx, DWORD PTR _f$[ebp]
  004aa	e8 00 00 00 00	 call	 ??0CFile@@QAE@XZ	; CFile::CFile
  004af	c7 45 fc 00 00
	00 00		 mov	 DWORD PTR __$EHRec$[ebp+8], 0

; 70   : 	CString			strXMLContent;

  004b6	8b f4		 mov	 esi, esp
  004b8	8d 4d d0	 lea	 ecx, DWORD PTR _strXMLContent$[ebp]
  004bb	ff 15 00 00 00
	00		 call	 DWORD PTR __imp_??0?$CStringT@DV?$StrTraitMFC_DLL@DV?$ChTraitsCRT@D@ATL@@@@@ATL@@QAE@XZ
  004c1	3b f4		 cmp	 esi, esp
  004c3	e8 00 00 00 00	 call	 __RTC_CheckEsp
  004c8	c6 45 fc 01	 mov	 BYTE PTR __$EHRec$[ebp+8], 1

; 71   : 	CString			m_strRealFileName  = m_sFileName;

  004cc	8b 45 f0	 mov	 eax, DWORD PTR _this$[ebp]
  004cf	83 c0 48	 add	 eax, 72			; 00000048H
  004d2	8b f4		 mov	 esi, esp
  004d4	50		 push	 eax
  004d5	8d 4d c4	 lea	 ecx, DWORD PTR _m_strRealFileName$[ebp]
  004d8	ff 15 00 00 00
	00		 call	 DWORD PTR __imp_??0?$CStringT@DV?$StrTraitMFC_DLL@DV?$ChTraitsCRT@D@ATL@@@@@ATL@@QAE@ABV01@@Z
  004de	3b f4		 cmp	 esi, esp
  004e0	e8 00 00 00 00	 call	 __RTC_CheckEsp
  004e5	c6 45 fc 02	 mov	 BYTE PTR __$EHRec$[ebp+8], 2

; 72   : 	CString			szFileName = m_sFileName + ".temp";

  004e9	68 00 00 00 00	 push	 OFFSET FLAT:$SG187720
  004ee	8b 4d f0	 mov	 ecx, DWORD PTR _this$[ebp]
  004f1	83 c1 48	 add	 ecx, 72			; 00000048H
  004f4	51		 push	 ecx
  004f5	8d 55 b8	 lea	 edx, DWORD PTR _szFileName$[ebp]
  004f8	52		 push	 edx
  004f9	e8 00 00 00 00	 call	 ??HATL@@YA?AV?$CStringT@DV?$StrTraitMFC_DLL@DV?$ChTraitsCRT@D@ATL@@@@@0@ABV10@PBD@Z ; ATL::operator+
  004fe	83 c4 0c	 add	 esp, 12			; 0000000cH
  00501	c6 45 fc 03	 mov	 BYTE PTR __$EHRec$[ebp+8], 3

; 73   : 
; 74   : 	if(!f.Open(szFileName, CFile::modeCreate| CFile::modeWrite|CFile::modeRead))

  00505	6a 00		 push	 0
  00507	68 01 10 00 00	 push	 4097			; 00001001H
  0050c	8b f4		 mov	 esi, esp
  0050e	8d 4d b8	 lea	 ecx, DWORD PTR _szFileName$[ebp]
  00511	ff 15 00 00 00
	00		 call	 DWORD PTR __imp_??B?$CSimpleStringT@D$00@ATL@@QBEPBDXZ
  00517	3b f4		 cmp	 esi, esp
  00519	e8 00 00 00 00	 call	 __RTC_CheckEsp
  0051e	50		 push	 eax
  0051f	8d 4d dc	 lea	 ecx, DWORD PTR _f$[ebp]
  00522	e8 00 00 00 00	 call	 ?Open@CFile@@UAEHPBDIPAVCFileException@@@Z ; CFile::Open
  00527	85 c0		 test	 eax, eax
  00529	75 5d		 jne	 SHORT $L187721

; 75   : 		return false;

  0052b	c6 45 a3 00	 mov	 BYTE PTR $T188752[ebp], 0
  0052f	c6 45 fc 02	 mov	 BYTE PTR __$EHRec$[ebp+8], 2
  00533	8b f4		 mov	 esi, esp
  00535	8d 4d b8	 lea	 ecx, DWORD PTR _szFileName$[ebp]
  00538	ff 15 00 00 00
	00		 call	 DWORD PTR __imp_??1?$CStringT@DV?$StrTraitMFC_DLL@DV?$ChTraitsCRT@D@ATL@@@@@ATL@@QAE@XZ
  0053e	3b f4		 cmp	 esi, esp
  00540	e8 00 00 00 00	 call	 __RTC_CheckEsp
  00545	c6 45 fc 01	 mov	 BYTE PTR __$EHRec$[ebp+8], 1
  00549	8b f4		 mov	 esi, esp
  0054b	8d 4d c4	 lea	 ecx, DWORD PTR _m_strRealFileName$[ebp]
  0054e	ff 15 00 00 00
	00		 call	 DWORD PTR __imp_??1?$CStringT@DV?$StrTraitMFC_DLL@DV?$ChTraitsCRT@D@ATL@@@@@ATL@@QAE@XZ
  00554	3b f4		 cmp	 esi, esp
  00556	e8 00 00 00 00	 call	 __RTC_CheckEsp
  0055b	c6 45 fc 00	 mov	 BYTE PTR __$EHRec$[ebp+8], 0
  0055f	8b f4		 mov	 esi, esp
  00561	8d 4d d0	 lea	 ecx, DWORD PTR _strXMLContent$[ebp]
  00564	ff 15 00 00 00
	00		 call	 DWORD PTR __imp_??1?$CStringT@DV?$StrTraitMFC_DLL@DV?$ChTraitsCRT@D@ATL@@@@@ATL@@QAE@XZ
  0056a	3b f4		 cmp	 esi, esp
  0056c	e8 00 00 00 00	 call	 __RTC_CheckEsp
  00571	c7 45 fc ff ff
	ff ff		 mov	 DWORD PTR __$EHRec$[ebp+8], -1
  00578	8d 4d dc	 lea	 ecx, DWORD PTR _f$[ebp]
  0057b	e8 00 00 00 00	 call	 ??1CFile@@UAE@XZ	; CFile::~CFile
  00580	8a 45 a3	 mov	 al, BYTE PTR $T188752[ebp]
  00583	e9 41 05 00 00	 jmp	 $L187714
$L187721:

; 76   : 	CString doc = GetDoc();

  00588	8d 45 ac	 lea	 eax, DWORD PTR _doc$[ebp]
  0058b	50		 push	 eax
  0058c	8b 4d f0	 mov	 ecx, DWORD PTR _this$[ebp]
  0058f	e8 00 00 00 00	 call	 ?GetDoc@CMarkup@@QBE?AV?$CStringT@DV?$StrTraitMFC_DLL@DV?$ChTraitsCRT@D@ATL@@@@@ATL@@XZ ; CMarkup::GetDoc
  00594	c6 45 fc 04	 mov	 BYTE PTR __$EHRec$[ebp+8], 4

; 77   : 	f.Write(doc, doc.GetLength());

  00598	8b f4		 mov	 esi, esp
  0059a	8d 4d ac	 lea	 ecx, DWORD PTR _doc$[ebp]
  0059d	ff 15 00 00 00
	00		 call	 DWORD PTR __imp_?GetLength@?$CSimpleStringT@D$00@ATL@@QBEHXZ
  005a3	3b f4		 cmp	 esi, esp
  005a5	e8 00 00 00 00	 call	 __RTC_CheckEsp
  005aa	50		 push	 eax
  005ab	8b f4		 mov	 esi, esp
  005ad	8d 4d ac	 lea	 ecx, DWORD PTR _doc$[ebp]
  005b0	ff 15 00 00 00
	00		 call	 DWORD PTR __imp_??B?$CSimpleStringT@D$00@ATL@@QBEPBDXZ
  005b6	3b f4		 cmp	 esi, esp
  005b8	e8 00 00 00 00	 call	 __RTC_CheckEsp
  005bd	50		 push	 eax
  005be	8d 4d dc	 lea	 ecx, DWORD PTR _f$[ebp]
  005c1	e8 00 00 00 00	 call	 ?Write@CFile@@UAEXPBXI@Z ; CFile::Write

; 78   : 	f.Close();

  005c6	8d 4d dc	 lea	 ecx, DWORD PTR _f$[ebp]
  005c9	e8 00 00 00 00	 call	 ?Close@CFile@@UAEXXZ	; CFile::Close

; 79   : 
; 80   : 	// panes.xml.temp, panes.xml, panes.xml.temp panes.xml
; 81   : 	if(f.Open(szFileName, CFile::modeRead))

  005ce	6a 00		 push	 0
  005d0	6a 00		 push	 0
  005d2	8b f4		 mov	 esi, esp
  005d4	8d 4d b8	 lea	 ecx, DWORD PTR _szFileName$[ebp]
  005d7	ff 15 00 00 00
	00		 call	 DWORD PTR __imp_??B?$CSimpleStringT@D$00@ATL@@QBEPBDXZ
  005dd	3b f4		 cmp	 esi, esp
  005df	e8 00 00 00 00	 call	 __RTC_CheckEsp
  005e4	50		 push	 eax
  005e5	8d 4d dc	 lea	 ecx, DWORD PTR _f$[ebp]
  005e8	e8 00 00 00 00	 call	 ?Open@CFile@@UAEHPBDIPAVCFileException@@@Z ; CFile::Open
  005ed	85 c0		 test	 eax, eax
  005ef	0f 84 60 04 00
	00		 je	 $L187725

; 82   : 	{
; 83   : 		int len = f.GetLength();

  005f5	8d 4d dc	 lea	 ecx, DWORD PTR _f$[ebp]
  005f8	e8 00 00 00 00	 call	 ?GetLength@CFile@@UBE_KXZ ; CFile::GetLength
  005fd	89 45 a4	 mov	 DWORD PTR _len$187726[ebp], eax

; 84   : 		f.Close();

  00600	8d 4d dc	 lea	 ecx, DWORD PTR _f$[ebp]
  00603	e8 00 00 00 00	 call	 ?Close@CFile@@UAEXXZ	; CFile::Close

; 85   : 
; 86   : 		if(len == 0)

  00608	83 7d a4 00	 cmp	 DWORD PTR _len$187726[ebp], 0
  0060c	0f 85 65 01 00
	00		 jne	 $L187727

; 87   : 		{
; 88   : 			LogUserActMsg("SAVEPANEL", string("panel.xml.temp is 0 byte:" + szFileName));

  00612	8b f4		 mov	 esi, esp
  00614	68 00 00 00 00	 push	 OFFSET FLAT:$SG187732
  00619	8d 8d 64 ff ff
	ff		 lea	 ecx, DWORD PTR $T188755[ebp]
  0061f	ff 15 00 00 00
	00		 call	 DWORD PTR __imp_??0?$basic_string@DU?$char_traits@D@std@@V?$allocator@D@2@@std@@QAE@PBD@Z
  00625	3b f4		 cmp	 esi, esp
  00627	e8 00 00 00 00	 call	 __RTC_CheckEsp
  0062c	c6 45 fc 05	 mov	 BYTE PTR __$EHRec$[ebp+8], 5
  00630	8d 4d b8	 lea	 ecx, DWORD PTR _szFileName$[ebp]
  00633	51		 push	 ecx
  00634	68 00 00 00 00	 push	 OFFSET FLAT:$SG187731
  00639	8d 55 80	 lea	 edx, DWORD PTR $T188754[ebp]
  0063c	52		 push	 edx
  0063d	e8 00 00 00 00	 call	 ??HATL@@YA?AV?$CStringT@DV?$StrTraitMFC_DLL@DV?$ChTraitsCRT@D@ATL@@@@@0@PBDABV10@@Z ; ATL::operator+
  00642	83 c4 0c	 add	 esp, 12			; 0000000cH
  00645	89 85 dc fe ff
	ff		 mov	 DWORD PTR tv264[ebp], eax
  0064b	8b 85 dc fe ff
	ff		 mov	 eax, DWORD PTR tv264[ebp]
  00651	89 85 d8 fe ff
	ff		 mov	 DWORD PTR tv232[ebp], eax
  00657	c6 45 fc 06	 mov	 BYTE PTR __$EHRec$[ebp+8], 6
  0065b	8b f4		 mov	 esi, esp
  0065d	8b 8d d8 fe ff
	ff		 mov	 ecx, DWORD PTR tv232[ebp]
  00663	ff 15 00 00 00
	00		 call	 DWORD PTR __imp_??B?$CSimpleStringT@D$00@ATL@@QBEPBDXZ
  00669	3b f4		 cmp	 esi, esp
  0066b	e8 00 00 00 00	 call	 __RTC_CheckEsp
  00670	8b f4		 mov	 esi, esp
  00672	50		 push	 eax
  00673	8d 4d 84	 lea	 ecx, DWORD PTR $T188753[ebp]
  00676	ff 15 00 00 00
	00		 call	 DWORD PTR __imp_??0?$basic_string@DU?$char_traits@D@std@@V?$allocator@D@2@@std@@QAE@PBD@Z
  0067c	3b f4		 cmp	 esi, esp
  0067e	e8 00 00 00 00	 call	 __RTC_CheckEsp
  00683	89 85 d4 fe ff
	ff		 mov	 DWORD PTR tv267[ebp], eax
  00689	8b 8d d4 fe ff
	ff		 mov	 ecx, DWORD PTR tv267[ebp]
  0068f	89 8d d0 fe ff
	ff		 mov	 DWORD PTR tv234[ebp], ecx
  00695	c6 45 fc 07	 mov	 BYTE PTR __$EHRec$[ebp+8], 7
  00699	8b f4		 mov	 esi, esp
  0069b	8b 95 d0 fe ff
	ff		 mov	 edx, DWORD PTR tv234[ebp]
  006a1	52		 push	 edx
  006a2	8d 85 64 ff ff
	ff		 lea	 eax, DWORD PTR $T188755[ebp]
  006a8	50		 push	 eax
  006a9	ff 15 00 00 00
	00		 call	 DWORD PTR __imp_?LogUserActMsg@@YAXABV?$basic_string@DU?$char_traits@D@std@@V?$allocator@D@2@@std@@0@Z
  006af	83 c4 08	 add	 esp, 8
  006b2	3b f4		 cmp	 esi, esp
  006b4	e8 00 00 00 00	 call	 __RTC_CheckEsp
  006b9	c6 45 fc 06	 mov	 BYTE PTR __$EHRec$[ebp+8], 6
  006bd	8b f4		 mov	 esi, esp
  006bf	8d 4d 84	 lea	 ecx, DWORD PTR $T188753[ebp]
  006c2	ff 15 00 00 00
	00		 call	 DWORD PTR __imp_??1?$basic_string@DU?$char_traits@D@std@@V?$allocator@D@2@@std@@QAE@XZ
  006c8	3b f4		 cmp	 esi, esp
  006ca	e8 00 00 00 00	 call	 __RTC_CheckEsp
  006cf	c6 45 fc 05	 mov	 BYTE PTR __$EHRec$[ebp+8], 5
  006d3	8b f4		 mov	 esi, esp
  006d5	8d 4d 80	 lea	 ecx, DWORD PTR $T188754[ebp]
  006d8	ff 15 00 00 00
	00		 call	 DWORD PTR __imp_??1?$CStringT@DV?$StrTraitMFC_DLL@DV?$ChTraitsCRT@D@ATL@@@@@ATL@@QAE@XZ
  006de	3b f4		 cmp	 esi, esp
  006e0	e8 00 00 00 00	 call	 __RTC_CheckEsp
  006e5	c6 45 fc 04	 mov	 BYTE PTR __$EHRec$[ebp+8], 4
  006e9	8b f4		 mov	 esi, esp
  006eb	8d 8d 64 ff ff
	ff		 lea	 ecx, DWORD PTR $T188755[ebp]
  006f1	ff 15 00 00 00
	00		 call	 DWORD PTR __imp_??1?$basic_string@DU?$char_traits@D@std@@V?$allocator@D@2@@std@@QAE@XZ
  006f7	3b f4		 cmp	 esi, esp
  006f9	e8 00 00 00 00	 call	 __RTC_CheckEsp

; 89   : 			return false;

  006fe	c6 85 63 ff ff
	ff 00		 mov	 BYTE PTR $T188756[ebp], 0
  00705	c6 45 fc 03	 mov	 BYTE PTR __$EHRec$[ebp+8], 3
  00709	8b f4		 mov	 esi, esp
  0070b	8d 4d ac	 lea	 ecx, DWORD PTR _doc$[ebp]
  0070e	ff 15 00 00 00
	00		 call	 DWORD PTR __imp_??1?$CStringT@DV?$StrTraitMFC_DLL@DV?$ChTraitsCRT@D@ATL@@@@@ATL@@QAE@XZ
  00714	3b f4		 cmp	 esi, esp
  00716	e8 00 00 00 00	 call	 __RTC_CheckEsp
  0071b	c6 45 fc 02	 mov	 BYTE PTR __$EHRec$[ebp+8], 2
  0071f	8b f4		 mov	 esi, esp
  00721	8d 4d b8	 lea	 ecx, DWORD PTR _szFileName$[ebp]
  00724	ff 15 00 00 00
	00		 call	 DWORD PTR __imp_??1?$CStringT@DV?$StrTraitMFC_DLL@DV?$ChTraitsCRT@D@ATL@@@@@ATL@@QAE@XZ
  0072a	3b f4		 cmp	 esi, esp
  0072c	e8 00 00 00 00	 call	 __RTC_CheckEsp
  00731	c6 45 fc 01	 mov	 BYTE PTR __$EHRec$[ebp+8], 1
  00735	8b f4		 mov	 esi, esp
  00737	8d 4d c4	 lea	 ecx, DWORD PTR _m_strRealFileName$[ebp]
  0073a	ff 15 00 00 00
	00		 call	 DWORD PTR __imp_??1?$CStringT@DV?$StrTraitMFC_DLL@DV?$ChTraitsCRT@D@ATL@@@@@ATL@@QAE@XZ
  00740	3b f4		 cmp	 esi, esp
  00742	e8 00 00 00 00	 call	 __RTC_CheckEsp
  00747	c6 45 fc 00	 mov	 BYTE PTR __$EHRec$[ebp+8], 0
  0074b	8b f4		 mov	 esi, esp
  0074d	8d 4d d0	 lea	 ecx, DWORD PTR _strXMLContent$[ebp]
  00750	ff 15 00 00 00
	00		 call	 DWORD PTR __imp_??1?$CStringT@DV?$StrTraitMFC_DLL@DV?$ChTraitsCRT@D@ATL@@@@@ATL@@QAE@XZ
  00756	3b f4		 cmp	 esi, esp
  00758	e8 00 00 00 00	 call	 __RTC_CheckEsp
  0075d	c7 45 fc ff ff
	ff ff		 mov	 DWORD PTR __$EHRec$[ebp+8], -1
  00764	8d 4d dc	 lea	 ecx, DWORD PTR _f$[ebp]
  00767	e8 00 00 00 00	 call	 ??1CFile@@UAE@XZ	; CFile::~CFile
  0076c	8a 85 63 ff ff
	ff		 mov	 al, BYTE PTR $T188756[ebp]
  00772	e9 52 03 00 00	 jmp	 $L187714
$L187727:

; 90   : 		}
; 91   : 		Close();

  00777	8b 4d f0	 mov	 ecx, DWORD PTR _this$[ebp]
  0077a	e8 00 00 00 00	 call	 ?Close@CMarkupArchive@@QAE_NXZ ; CMarkupArchive::Close

; 92   : 		if(!Open(szFileName))

  0077f	8b f4		 mov	 esi, esp
  00781	8d 4d b8	 lea	 ecx, DWORD PTR _szFileName$[ebp]
  00784	ff 15 00 00 00
	00		 call	 DWORD PTR __imp_??B?$CSimpleStringT@D$00@ATL@@QBEPBDXZ
  0078a	3b f4		 cmp	 esi, esp
  0078c	e8 00 00 00 00	 call	 __RTC_CheckEsp
  00791	50		 push	 eax
  00792	8b 4d f0	 mov	 ecx, DWORD PTR _this$[ebp]
  00795	e8 00 00 00 00	 call	 ?Open@CMarkupArchive@@QAE_NPBD@Z ; CMarkupArchive::Open
  0079a	0f b6 c8	 movzx	 ecx, al
  0079d	85 c9		 test	 ecx, ecx
  0079f	0f 85 71 01 00
	00		 jne	 $L187734

; 93   : 		{
; 94   : 			LogUserActMsg("SAVEPANEL", string("Open panel.xml.temp file failed:" + szFileName));

  007a5	8b f4		 mov	 esi, esp
  007a7	68 00 00 00 00	 push	 OFFSET FLAT:$SG187739
  007ac	8d 8d 24 ff ff
	ff		 lea	 ecx, DWORD PTR $T188759[ebp]
  007b2	ff 15 00 00 00
	00		 call	 DWORD PTR __imp_??0?$basic_string@DU?$char_traits@D@std@@V?$allocator@D@2@@std@@QAE@PBD@Z
  007b8	3b f4		 cmp	 esi, esp
  007ba	e8 00 00 00 00	 call	 __RTC_CheckEsp
  007bf	c6 45 fc 08	 mov	 BYTE PTR __$EHRec$[ebp+8], 8
  007c3	8d 55 b8	 lea	 edx, DWORD PTR _szFileName$[ebp]
  007c6	52		 push	 edx
  007c7	68 00 00 00 00	 push	 OFFSET FLAT:$SG187738
  007cc	8d 85 40 ff ff
	ff		 lea	 eax, DWORD PTR $T188758[ebp]
  007d2	50		 push	 eax
  007d3	e8 00 00 00 00	 call	 ??HATL@@YA?AV?$CStringT@DV?$StrTraitMFC_DLL@DV?$ChTraitsCRT@D@ATL@@@@@0@PBDABV10@@Z ; ATL::operator+
  007d8	83 c4 0c	 add	 esp, 12			; 0000000cH
  007db	89 85 cc fe ff
	ff		 mov	 DWORD PTR tv271[ebp], eax
  007e1	8b 8d cc fe ff
	ff		 mov	 ecx, DWORD PTR tv271[ebp]
  007e7	89 8d c8 fe ff
	ff		 mov	 DWORD PTR tv242[ebp], ecx
  007ed	c6 45 fc 09	 mov	 BYTE PTR __$EHRec$[ebp+8], 9
  007f1	8b f4		 mov	 esi, esp
  007f3	8b 8d c8 fe ff
	ff		 mov	 ecx, DWORD PTR tv242[ebp]
  007f9	ff 15 00 00 00
	00		 call	 DWORD PTR __imp_??B?$CSimpleStringT@D$00@ATL@@QBEPBDXZ
  007ff	3b f4		 cmp	 esi, esp
  00801	e8 00 00 00 00	 call	 __RTC_CheckEsp
  00806	8b f4		 mov	 esi, esp
  00808	50		 push	 eax
  00809	8d 8d 44 ff ff
	ff		 lea	 ecx, DWORD PTR $T188757[ebp]
  0080f	ff 15 00 00 00
	00		 call	 DWORD PTR __imp_??0?$basic_string@DU?$char_traits@D@std@@V?$allocator@D@2@@std@@QAE@PBD@Z
  00815	3b f4		 cmp	 esi, esp
  00817	e8 00 00 00 00	 call	 __RTC_CheckEsp
  0081c	89 85 c4 fe ff
	ff		 mov	 DWORD PTR tv274[ebp], eax
  00822	8b 95 c4 fe ff
	ff		 mov	 edx, DWORD PTR tv274[ebp]
  00828	89 95 c0 fe ff
	ff		 mov	 DWORD PTR tv244[ebp], edx
  0082e	c6 45 fc 0a	 mov	 BYTE PTR __$EHRec$[ebp+8], 10 ; 0000000aH
  00832	8b f4		 mov	 esi, esp
  00834	8b 85 c0 fe ff
	ff		 mov	 eax, DWORD PTR tv244[ebp]
  0083a	50		 push	 eax
  0083b	8d 8d 24 ff ff
	ff		 lea	 ecx, DWORD PTR $T188759[ebp]
  00841	51		 push	 ecx
  00842	ff 15 00 00 00
	00		 call	 DWORD PTR __imp_?LogUserActMsg@@YAXABV?$basic_string@DU?$char_traits@D@std@@V?$allocator@D@2@@std@@0@Z
  00848	83 c4 08	 add	 esp, 8
  0084b	3b f4		 cmp	 esi, esp
  0084d	e8 00 00 00 00	 call	 __RTC_CheckEsp
  00852	c6 45 fc 09	 mov	 BYTE PTR __$EHRec$[ebp+8], 9
  00856	8b f4		 mov	 esi, esp
  00858	8d 8d 44 ff ff
	ff		 lea	 ecx, DWORD PTR $T188757[ebp]
  0085e	ff 15 00 00 00
	00		 call	 DWORD PTR __imp_??1?$basic_string@DU?$char_traits@D@std@@V?$allocator@D@2@@std@@QAE@XZ
  00864	3b f4		 cmp	 esi, esp
  00866	e8 00 00 00 00	 call	 __RTC_CheckEsp
  0086b	c6 45 fc 08	 mov	 BYTE PTR __$EHRec$[ebp+8], 8
  0086f	8b f4		 mov	 esi, esp
  00871	8d 8d 40 ff ff
	ff		 lea	 ecx, DWORD PTR $T188758[ebp]
  00877	ff 15 00 00 00
	00		 call	 DWORD PTR __imp_??1?$CStringT@DV?$StrTraitMFC_DLL@DV?$ChTraitsCRT@D@ATL@@@@@ATL@@QAE@XZ
  0087d	3b f4		 cmp	 esi, esp
  0087f	e8 00 00 00 00	 call	 __RTC_CheckEsp
  00884	c6 45 fc 04	 mov	 BYTE PTR __$EHRec$[ebp+8], 4
  00888	8b f4		 mov	 esi, esp
  0088a	8d 8d 24 ff ff
	ff		 lea	 ecx, DWORD PTR $T188759[ebp]
  00890	ff 15 00 00 00
	00		 call	 DWORD PTR __imp_??1?$basic_string@DU?$char_traits@D@std@@V?$allocator@D@2@@std@@QAE@XZ
  00896	3b f4		 cmp	 esi, esp
  00898	e8 00 00 00 00	 call	 __RTC_CheckEsp

; 95   : 			return false;

  0089d	c6 85 23 ff ff
	ff 00		 mov	 BYTE PTR $T188760[ebp], 0
  008a4	c6 45 fc 03	 mov	 BYTE PTR __$EHRec$[ebp+8], 3
  008a8	8b f4		 mov	 esi, esp
  008aa	8d 4d ac	 lea	 ecx, DWORD PTR _doc$[ebp]
  008ad	ff 15 00 00 00
	00		 call	 DWORD PTR __imp_??1?$CStringT@DV?$StrTraitMFC_DLL@DV?$ChTraitsCRT@D@ATL@@@@@ATL@@QAE@XZ
  008b3	3b f4		 cmp	 esi, esp
  008b5	e8 00 00 00 00	 call	 __RTC_CheckEsp
  008ba	c6 45 fc 02	 mov	 BYTE PTR __$EHRec$[ebp+8], 2
  008be	8b f4		 mov	 esi, esp
  008c0	8d 4d b8	 lea	 ecx, DWORD PTR _szFileName$[ebp]
  008c3	ff 15 00 00 00
	00		 call	 DWORD PTR __imp_??1?$CStringT@DV?$StrTraitMFC_DLL@DV?$ChTraitsCRT@D@ATL@@@@@ATL@@QAE@XZ
  008c9	3b f4		 cmp	 esi, esp
  008cb	e8 00 00 00 00	 call	 __RTC_CheckEsp
  008d0	c6 45 fc 01	 mov	 BYTE PTR __$EHRec$[ebp+8], 1
  008d4	8b f4		 mov	 esi, esp
  008d6	8d 4d c4	 lea	 ecx, DWORD PTR _m_strRealFileName$[ebp]
  008d9	ff 15 00 00 00
	00		 call	 DWORD PTR __imp_??1?$CStringT@DV?$StrTraitMFC_DLL@DV?$ChTraitsCRT@D@ATL@@@@@ATL@@QAE@XZ
  008df	3b f4		 cmp	 esi, esp
  008e1	e8 00 00 00 00	 call	 __RTC_CheckEsp
  008e6	c6 45 fc 00	 mov	 BYTE PTR __$EHRec$[ebp+8], 0
  008ea	8b f4		 mov	 esi, esp
  008ec	8d 4d d0	 lea	 ecx, DWORD PTR _strXMLContent$[ebp]
  008ef	ff 15 00 00 00
	00		 call	 DWORD PTR __imp_??1?$CStringT@DV?$StrTraitMFC_DLL@DV?$ChTraitsCRT@D@ATL@@@@@ATL@@QAE@XZ
  008f5	3b f4		 cmp	 esi, esp
  008f7	e8 00 00 00 00	 call	 __RTC_CheckEsp
  008fc	c7 45 fc ff ff
	ff ff		 mov	 DWORD PTR __$EHRec$[ebp+8], -1
  00903	8d 4d dc	 lea	 ecx, DWORD PTR _f$[ebp]
  00906	e8 00 00 00 00	 call	 ??1CFile@@UAE@XZ	; CFile::~CFile
  0090b	8a 85 23 ff ff
	ff		 mov	 al, BYTE PTR $T188760[ebp]
  00911	e9 b3 01 00 00	 jmp	 $L187714
$L187734:

; 96   : 		}
; 97   : 		else
; 98   : 			Close();

  00916	8b 4d f0	 mov	 ecx, DWORD PTR _this$[ebp]
  00919	e8 00 00 00 00	 call	 ?Close@CMarkupArchive@@QAE_NXZ ; CMarkupArchive::Close

; 99   : 		//CFile::Remove(m_sFileName);
; 100  : 		//CFile::Rename(szFileName, m_sFileName);
; 101  : 		if(!CopyFile(szFileName, m_strRealFileName, FALSE))

  0091e	8b f4		 mov	 esi, esp
  00920	6a 00		 push	 0
  00922	8b fc		 mov	 edi, esp
  00924	8d 4d c4	 lea	 ecx, DWORD PTR _m_strRealFileName$[ebp]
  00927	ff 15 00 00 00
	00		 call	 DWORD PTR __imp_??B?$CSimpleStringT@D$00@ATL@@QBEPBDXZ
  0092d	3b fc		 cmp	 edi, esp
  0092f	e8 00 00 00 00	 call	 __RTC_CheckEsp
  00934	50		 push	 eax
  00935	8b fc		 mov	 edi, esp
  00937	8d 4d b8	 lea	 ecx, DWORD PTR _szFileName$[ebp]
  0093a	ff 15 00 00 00
	00		 call	 DWORD PTR __imp_??B?$CSimpleStringT@D$00@ATL@@QBEPBDXZ
  00940	3b fc		 cmp	 edi, esp
  00942	e8 00 00 00 00	 call	 __RTC_CheckEsp
  00947	50		 push	 eax
  00948	ff 15 00 00 00
	00		 call	 DWORD PTR __imp__CopyFileA@12
  0094e	3b f4		 cmp	 esi, esp
  00950	e8 00 00 00 00	 call	 __RTC_CheckEsp
  00955	85 c0		 test	 eax, eax
  00957	0f 85 f8 00 00
	00		 jne	 $L187725

; 102  : 		{
; 103  : 			LogUserActMsg("SAVEPANEL", string("Copy panel.xml.temp to panel.xml failed:" + szFileName));

  0095d	8b f4		 mov	 esi, esp
  0095f	68 00 00 00 00	 push	 OFFSET FLAT:$SG187747
  00964	8d 8d e4 fe ff
	ff		 lea	 ecx, DWORD PTR $T188763[ebp]
  0096a	ff 15 00 00 00
	00		 call	 DWORD PTR __imp_??0?$basic_string@DU?$char_traits@D@std@@V?$allocator@D@2@@std@@QAE@PBD@Z
  00970	3b f4		 cmp	 esi, esp
  00972	e8 00 00 00 00	 call	 __RTC_CheckEsp
  00977	c6 45 fc 0b	 mov	 BYTE PTR __$EHRec$[ebp+8], 11 ; 0000000bH
  0097b	8d 55 b8	 lea	 edx, DWORD PTR _szFileName$[ebp]
  0097e	52		 push	 edx
  0097f	68 00 00 00 00	 push	 OFFSET FLAT:$SG187746
  00984	8d 85 00 ff ff
	ff		 lea	 eax, DWORD PTR $T188762[ebp]
  0098a	50		 push	 eax
  0098b	e8 00 00 00 00	 call	 ??HATL@@YA?AV?$CStringT@DV?$StrTraitMFC_DLL@DV?$ChTraitsCRT@D@ATL@@@@@0@PBDABV10@@Z ; ATL::operator+
  00990	83 c4 0c	 add	 esp, 12			; 0000000cH
  00993	89 85 bc fe ff
	ff		 mov	 DWORD PTR tv278[ebp], eax
  00999	8b 8d bc fe ff
	ff		 mov	 ecx, DWORD PTR tv278[ebp]
  0099f	89 8d b8 fe ff
	ff		 mov	 DWORD PTR tv252[ebp], ecx
  009a5	c6 45 fc 0c	 mov	 BYTE PTR __$EHRec$[ebp+8], 12 ; 0000000cH
  009a9	8b f4		 mov	 esi, esp
  009ab	8b 8d b8 fe ff
	ff		 mov	 ecx, DWORD PTR tv252[ebp]
  009b1	ff 15 00 00 00
	00		 call	 DWORD PTR __imp_??B?$CSimpleStringT@D$00@ATL@@QBEPBDXZ
  009b7	3b f4		 cmp	 esi, esp
  009b9	e8 00 00 00 00	 call	 __RTC_CheckEsp
  009be	8b f4		 mov	 esi, esp
  009c0	50		 push	 eax
  009c1	8d 8d 04 ff ff
	ff		 lea	 ecx, DWORD PTR $T188761[ebp]
  009c7	ff 15 00 00 00
	00		 call	 DWORD PTR __imp_??0?$basic_string@DU?$char_traits@D@std@@V?$allocator@D@2@@std@@QAE@PBD@Z
  009cd	3b f4		 cmp	 esi, esp
  009cf	e8 00 00 00 00	 call	 __RTC_CheckEsp
  009d4	89 85 b4 fe ff
	ff		 mov	 DWORD PTR tv281[ebp], eax
  009da	8b 95 b4 fe ff
	ff		 mov	 edx, DWORD PTR tv281[ebp]
  009e0	89 95 b0 fe ff
	ff		 mov	 DWORD PTR tv254[ebp], edx
  009e6	c6 45 fc 0d	 mov	 BYTE PTR __$EHRec$[ebp+8], 13 ; 0000000dH
  009ea	8b f4		 mov	 esi, esp
  009ec	8b 85 b0 fe ff
	ff		 mov	 eax, DWORD PTR tv254[ebp]
  009f2	50		 push	 eax
  009f3	8d 8d e4 fe ff
	ff		 lea	 ecx, DWORD PTR $T188763[ebp]
  009f9	51		 push	 ecx
  009fa	ff 15 00 00 00
	00		 call	 DWORD PTR __imp_?LogUserActMsg@@YAXABV?$basic_string@DU?$char_traits@D@std@@V?$allocator@D@2@@std@@0@Z
  00a00	83 c4 08	 add	 esp, 8
  00a03	3b f4		 cmp	 esi, esp
  00a05	e8 00 00 00 00	 call	 __RTC_CheckEsp
  00a0a	c6 45 fc 0c	 mov	 BYTE PTR __$EHRec$[ebp+8], 12 ; 0000000cH
  00a0e	8b f4		 mov	 esi, esp
  00a10	8d 8d 04 ff ff
	ff		 lea	 ecx, DWORD PTR $T188761[ebp]
  00a16	ff 15 00 00 00
	00		 call	 DWORD PTR __imp_??1?$basic_string@DU?$char_traits@D@std@@V?$allocator@D@2@@std@@QAE@XZ
  00a1c	3b f4		 cmp	 esi, esp
  00a1e	e8 00 00 00 00	 call	 __RTC_CheckEsp
  00a23	c6 45 fc 0b	 mov	 BYTE PTR __$EHRec$[ebp+8], 11 ; 0000000bH
  00a27	8b f4		 mov	 esi, esp
  00a29	8d 8d 00 ff ff
	ff		 lea	 ecx, DWORD PTR $T188762[ebp]
  00a2f	ff 15 00 00 00
	00		 call	 DWORD PTR __imp_??1?$CStringT@DV?$StrTraitMFC_DLL@DV?$ChTraitsCRT@D@ATL@@@@@ATL@@QAE@XZ
  00a35	3b f4		 cmp	 esi, esp
  00a37	e8 00 00 00 00	 call	 __RTC_CheckEsp
  00a3c	c6 45 fc 04	 mov	 BYTE PTR __$EHRec$[ebp+8], 4
  00a40	8b f4		 mov	 esi, esp
  00a42	8d 8d e4 fe ff
	ff		 lea	 ecx, DWORD PTR $T188763[ebp]
  00a48	ff 15 00 00 00
	00		 call	 DWORD PTR __imp_??1?$basic_string@DU?$char_traits@D@std@@V?$allocator@D@2@@std@@QAE@XZ
  00a4e	3b f4		 cmp	 esi, esp
  00a50	e8 00 00 00 00	 call	 __RTC_CheckEsp
$L187725:

; 104  : 		}
; 105  : 	}
; 106  : 	return true;

  00a55	c6 85 e3 fe ff
	ff 01		 mov	 BYTE PTR $T188764[ebp], 1
  00a5c	c6 45 fc 03	 mov	 BYTE PTR __$EHRec$[ebp+8], 3
  00a60	8b f4		 mov	 esi, esp
  00a62	8d 4d ac	 lea	 ecx, DWORD PTR _doc$[ebp]
  00a65	ff 15 00 00 00
	00		 call	 DWORD PTR __imp_??1?$CStringT@DV?$StrTraitMFC_DLL@DV?$ChTraitsCRT@D@ATL@@@@@ATL@@QAE@XZ
  00a6b	3b f4		 cmp	 esi, esp
  00a6d	e8 00 00 00 00	 call	 __RTC_CheckEsp
  00a72	c6 45 fc 02	 mov	 BYTE PTR __$EHRec$[ebp+8], 2
  00a76	8b f4		 mov	 esi, esp
  00a78	8d 4d b8	 lea	 ecx, DWORD PTR _szFileName$[ebp]
  00a7b	ff 15 00 00 00
	00		 call	 DWORD PTR __imp_??1?$CStringT@DV?$StrTraitMFC_DLL@DV?$ChTraitsCRT@D@ATL@@@@@ATL@@QAE@XZ
  00a81	3b f4		 cmp	 esi, esp
  00a83	e8 00 00 00 00	 call	 __RTC_CheckEsp
  00a88	c6 45 fc 01	 mov	 BYTE PTR __$EHRec$[ebp+8], 1
  00a8c	8b f4		 mov	 esi, esp
  00a8e	8d 4d c4	 lea	 ecx, DWORD PTR _m_strRealFileName$[ebp]
  00a91	ff 15 00 00 00
	00		 call	 DWORD PTR __imp_??1?$CStringT@DV?$StrTraitMFC_DLL@DV?$ChTraitsCRT@D@ATL@@@@@ATL@@QAE@XZ
  00a97	3b f4		 cmp	 esi, esp
  00a99	e8 00 00 00 00	 call	 __RTC_CheckEsp
  00a9e	c6 45 fc 00	 mov	 BYTE PTR __$EHRec$[ebp+8], 0
  00aa2	8b f4		 mov	 esi, esp
  00aa4	8d 4d d0	 lea	 ecx, DWORD PTR _strXMLContent$[ebp]
  00aa7	ff 15 00 00 00
	00		 call	 DWORD PTR __imp_??1?$CStringT@DV?$StrTraitMFC_DLL@DV?$ChTraitsCRT@D@ATL@@@@@ATL@@QAE@XZ
  00aad	3b f4		 cmp	 esi, esp
  00aaf	e8 00 00 00 00	 call	 __RTC_CheckEsp
  00ab4	c7 45 fc ff ff
	ff ff		 mov	 DWORD PTR __$EHRec$[ebp+8], -1
  00abb	8d 4d dc	 lea	 ecx, DWORD PTR _f$[ebp]
  00abe	e8 00 00 00 00	 call	 ??1CFile@@UAE@XZ	; CFile::~CFile
  00ac3	8a 85 e3 fe ff
	ff		 mov	 al, BYTE PTR $T188764[ebp]
$L187714:

; 107  : }

  00ac9	52		 push	 edx
  00aca	8b cd		 mov	 ecx, ebp
  00acc	50		 push	 eax
  00acd	8d 15 00 00 00
	00		 lea	 edx, DWORD PTR $L188788
  00ad3	e8 00 00 00 00	 call	 @_RTC_CheckStackVars@8
  00ad8	58		 pop	 eax
  00ad9	5a		 pop	 edx
  00ada	8b 4d f4	 mov	 ecx, DWORD PTR __$EHRec$[ebp]
  00add	64 89 0d 00 00
	00 00		 mov	 DWORD PTR fs:__except_list, ecx
  00ae4	5f		 pop	 edi
  00ae5	5e		 pop	 esi
  00ae6	81 c4 50 01 00
	00		 add	 esp, 336		; 00000150H
  00aec	3b ec		 cmp	 ebp, esp
  00aee	e8 00 00 00 00	 call	 __RTC_CheckEsp
  00af3	8b e5		 mov	 esp, ebp
  00af5	5d		 pop	 ebp
  00af6	c3		 ret	 0
$L188788:
  00af7	05 00 00 00	 DD	 5
  00afb	00 00 00 00	 DD	 $L188787
$L188787:
  00aff	dc ff ff ff	 DD	 -36			; ffffffdcH
  00b03	10 00 00 00	 DD	 16			; 00000010H
  00b07	00 00 00 00	 DD	 $L188781
  00b0b	d0 ff ff ff	 DD	 -48			; ffffffd0H
  00b0f	04 00 00 00	 DD	 4
  00b13	00 00 00 00	 DD	 $L188782
  00b17	c4 ff ff ff	 DD	 -60			; ffffffc4H
  00b1b	04 00 00 00	 DD	 4
  00b1f	00 00 00 00	 DD	 $L188783
  00b23	b8 ff ff ff	 DD	 -72			; ffffffb8H
  00b27	04 00 00 00	 DD	 4
  00b2b	00 00 00 00	 DD	 $L188784
  00b2f	ac ff ff ff	 DD	 -84			; ffffffacH
  00b33	04 00 00 00	 DD	 4
  00b37	00 00 00 00	 DD	 $L188785
$L188785:
  00b3b	64		 DB	 100			; 00000064H
  00b3c	6f		 DB	 111			; 0000006fH
  00b3d	63		 DB	 99			; 00000063H
  00b3e	00		 DB	 0
$L188784:
  00b3f	73		 DB	 115			; 00000073H
  00b40	7a		 DB	 122			; 0000007aH
  00b41	46		 DB	 70			; 00000046H
  00b42	69		 DB	 105			; 00000069H
  00b43	6c		 DB	 108			; 0000006cH
  00b44	65		 DB	 101			; 00000065H
  00b45	4e		 DB	 78			; 0000004eH
  00b46	61		 DB	 97			; 00000061H
  00b47	6d		 DB	 109			; 0000006dH
  00b48	65		 DB	 101			; 00000065H
  00b49	00		 DB	 0
$L188783:
  00b4a	6d		 DB	 109			; 0000006dH
  00b4b	5f		 DB	 95			; 0000005fH
  00b4c	73		 DB	 115			; 00000073H
  00b4d	74		 DB	 116			; 00000074H
  00b4e	72		 DB	 114			; 00000072H
  00b4f	52		 DB	 82			; 00000052H
  00b50	65		 DB	 101			; 00000065H
  00b51	61		 DB	 97			; 00000061H
  00b52	6c		 DB	 108			; 0000006cH
  00b53	46		 DB	 70			; 00000046H
  00b54	69		 DB	 105			; 00000069H
  00b55	6c		 DB	 108			; 0000006cH
  00b56	65		 DB	 101			; 00000065H
  00b57	4e		 DB	 78			; 0000004eH
  00b58	61		 DB	 97			; 00000061H
  00b59	6d		 DB	 109			; 0000006dH
  00b5a	65		 DB	 101			; 00000065H
  00b5b	00		 DB	 0
$L188782:
  00b5c	73		 DB	 115			; 00000073H
  00b5d	74		 DB	 116			; 00000074H
  00b5e	72		 DB	 114			; 00000072H
  00b5f	58		 DB	 88			; 00000058H
  00b60	4d		 DB	 77			; 0000004dH
  00b61	4c		 DB	 76			; 0000004cH
  00b62	43		 DB	 67			; 00000043H
  00b63	6f		 DB	 111			; 0000006fH
  00b64	6e		 DB	 110			; 0000006eH
  00b65	74		 DB	 116			; 00000074H
  00b66	65		 DB	 101			; 00000065H
  00b67	6e		 DB	 110			; 0000006eH
  00b68	74		 DB	 116			; 00000074H
  00b69	00		 DB	 0
$L188781:
  00b6a	66		 DB	 102			; 00000066H
  00b6b	00		 DB	 0
_TEXT	ENDS
text$x	SEGMENT
$L188765:
  000ae	8d 4d dc	 lea	 ecx, DWORD PTR _f$[ebp]
  000b1	e9 00 00 00 00	 jmp	 ??1CFile@@UAE@XZ	; CFile::~CFile
$L188766:
  000b6	8b f4		 mov	 esi, esp
  000b8	8d 4d d0	 lea	 ecx, DWORD PTR _strXMLContent$[ebp]
  000bb	ff 15 00 00 00
	00		 call	 DWORD PTR __imp_??1?$CStringT@DV?$StrTraitMFC_DLL@DV?$ChTraitsCRT@D@ATL@@@@@ATL@@QAE@XZ
  000c1	3b f4		 cmp	 esi, esp
  000c3	e9 00 00 00 00	 jmp	 __RTC_CheckEsp
$L188767:
  000c8	8b f4		 mov	 esi, esp
  000ca	8d 4d c4	 lea	 ecx, DWORD PTR _m_strRealFileName$[ebp]
  000cd	ff 15 00 00 00
	00		 call	 DWORD PTR __imp_??1?$CStringT@DV?$StrTraitMFC_DLL@DV?$ChTraitsCRT@D@ATL@@@@@ATL@@QAE@XZ
  000d3	3b f4		 cmp	 esi, esp
  000d5	e9 00 00 00 00	 jmp	 __RTC_CheckEsp
$L188768:
  000da	8b f4		 mov	 esi, esp
  000dc	8d 4d b8	 lea	 ecx, DWORD PTR _szFileName$[ebp]
  000df	ff 15 00 00 00
	00		 call	 DWORD PTR __imp_??1?$CStringT@DV?$StrTraitMFC_DLL@DV?$ChTraitsCRT@D@ATL@@@@@ATL@@QAE@XZ
  000e5	3b f4		 cmp	 esi, esp
  000e7	e9 00 00 00 00	 jmp	 __RTC_CheckEsp
$L188769:
  000ec	8b f4		 mov	 esi, esp
  000ee	8d 4d ac	 lea	 ecx, DWORD PTR _doc$[ebp]
  000f1	ff 15 00 00 00
	00		 call	 DWORD PTR __imp_??1?$CStringT@DV?$StrTraitMFC_DLL@DV?$ChTraitsCRT@D@ATL@@@@@ATL@@QAE@XZ
  000f7	3b f4		 cmp	 esi, esp
  000f9	e9 00 00 00 00	 jmp	 __RTC_CheckEsp
$L188770:
  000fe	8b f4		 mov	 esi, esp
  00100	8d 8d 64 ff ff
	ff		 lea	 ecx, DWORD PTR $T188755[ebp]
  00106	ff 15 00 00 00
	00		 call	 DWORD PTR __imp_??1?$basic_string@DU?$char_traits@D@std@@V?$allocator@D@2@@std@@QAE@XZ
  0010c	3b f4		 cmp	 esi, esp
  0010e	e9 00 00 00 00	 jmp	 __RTC_CheckEsp
$L188771:
  00113	8b f4		 mov	 esi, esp
  00115	8d 4d 80	 lea	 ecx, DWORD PTR $T188754[ebp]
  00118	ff 15 00 00 00
	00		 call	 DWORD PTR __imp_??1?$CStringT@DV?$StrTraitMFC_DLL@DV?$ChTraitsCRT@D@ATL@@@@@ATL@@QAE@XZ
  0011e	3b f4		 cmp	 esi, esp
  00120	e9 00 00 00 00	 jmp	 __RTC_CheckEsp
$L188772:
  00125	8b f4		 mov	 esi, esp
  00127	8d 4d 84	 lea	 ecx, DWORD PTR $T188753[ebp]
  0012a	ff 15 00 00 00
	00		 call	 DWORD PTR __imp_??1?$basic_string@DU?$char_traits@D@std@@V?$allocator@D@2@@std@@QAE@XZ
  00130	3b f4		 cmp	 esi, esp
  00132	e9 00 00 00 00	 jmp	 __RTC_CheckEsp
$L188773:
  00137	8b f4		 mov	 esi, esp
  00139	8d 8d 24 ff ff
	ff		 lea	 ecx, DWORD PTR $T188759[ebp]
  0013f	ff 15 00 00 00
	00		 call	 DWORD PTR __imp_??1?$basic_string@DU?$char_traits@D@std@@V?$allocator@D@2@@std@@QAE@XZ
  00145	3b f4		 cmp	 esi, esp
  00147	e9 00 00 00 00	 jmp	 __RTC_CheckEsp
$L188774:
  0014c	8b f4		 mov	 esi, esp
  0014e	8d 8d 40 ff ff
	ff		 lea	 ecx, DWORD PTR $T188758[ebp]
  00154	ff 15 00 00 00
	00		 call	 DWORD PTR __imp_??1?$CStringT@DV?$StrTraitMFC_DLL@DV?$ChTraitsCRT@D@ATL@@@@@ATL@@QAE@XZ
  0015a	3b f4		 cmp	 esi, esp
  0015c	e9 00 00 00 00	 jmp	 __RTC_CheckEsp
$L188775:
  00161	8b f4		 mov	 esi, esp
  00163	8d 8d 44 ff ff
	ff		 lea	 ecx, DWORD PTR $T188757[ebp]
  00169	ff 15 00 00 00
	00		 call	 DWORD PTR __imp_??1?$basic_string@DU?$char_traits@D@std@@V?$allocator@D@2@@std@@QAE@XZ
  0016f	3b f4		 cmp	 esi, esp
  00171	e9 00 00 00 00	 jmp	 __RTC_CheckEsp
$L188776:
  00176	8b f4		 mov	 esi, esp
  00178	8d 8d e4 fe ff
	ff		 lea	 ecx, DWORD PTR $T188763[ebp]
  0017e	ff 15 00 00 00
	00		 call	 DWORD PTR __imp_??1?$basic_string@DU?$char_traits@D@std@@V?$allocator@D@2@@std@@QAE@XZ
  00184	3b f4		 cmp	 esi, esp
  00186	e9 00 00 00 00	 jmp	 __RTC_CheckEsp
$L188777:
  0018b	8b f4		 mov	 esi, esp
  0018d	8d 8d 00 ff ff
	ff		 lea	 ecx, DWORD PTR $T188762[ebp]
  00193	ff 15 00 00 00
	00		 call	 DWORD PTR __imp_??1?$CStringT@DV?$StrTraitMFC_DLL@DV?$ChTraitsCRT@D@ATL@@@@@ATL@@QAE@XZ
  00199	3b f4		 cmp	 esi, esp
  0019b	e9 00 00 00 00	 jmp	 __RTC_CheckEsp
$L188778:
  001a0	8b f4		 mov	 esi, esp
  001a2	8d 8d 04 ff ff
	ff		 lea	 ecx, DWORD PTR $T188761[ebp]
  001a8	ff 15 00 00 00
	00		 call	 DWORD PTR __imp_??1?$basic_string@DU?$char_traits@D@std@@V?$allocator@D@2@@std@@QAE@XZ
  001ae	3b f4		 cmp	 esi, esp
  001b0	e9 00 00 00 00	 jmp	 __RTC_CheckEsp
__ehhandler$?Save@CMarkupArchive@@QAE_NXZ:
  001b5	b8 00 00 00 00	 mov	 eax, OFFSET FLAT:$T188780
  001ba	e9 00 00 00 00	 jmp	 ___CxxFrameHandler
text$x	ENDS
?Save@CMarkupArchive@@QAE_NXZ ENDP			; CMarkupArchive::Save
PUBLIC	?OpenString@CMarkupArchive@@QAE_NPBD@Z		; CMarkupArchive::OpenString
; Function compile flags: /Odt /RTCsu
_TEXT	SEGMENT
_this$ = -4						; size = 4
_szXMLString$ = 8					; size = 4
?OpenString@CMarkupArchive@@QAE_NPBD@Z PROC NEAR	; CMarkupArchive::OpenString
; _this$ = ecx

; 110  : {

  00b70	55		 push	 ebp
  00b71	8b ec		 mov	 ebp, esp
  00b73	51		 push	 ecx
  00b74	56		 push	 esi
  00b75	c7 45 fc cc cc
	cc cc		 mov	 DWORD PTR [ebp-4], -858993460 ; ccccccccH
  00b7c	89 4d fc	 mov	 DWORD PTR _this$[ebp], ecx

; 111  : 	if (szXMLString==NULL)

  00b7f	83 7d 08 00	 cmp	 DWORD PTR _szXMLString$[ebp], 0
  00b83	75 04		 jne	 SHORT $L187753

; 112  : 		return false;

  00b85	32 c0		 xor	 al, al
  00b87	eb 40		 jmp	 SHORT $L187752
$L187753:

; 113  : 
; 114  : 	m_dwMode = ~(~m_dwMode | ArchiveModeStoring);

  00b89	8b 45 fc	 mov	 eax, DWORD PTR _this$[ebp]
  00b8c	8b 48 3c	 mov	 ecx, DWORD PTR [eax+60]
  00b8f	f7 d1		 not	 ecx
  00b91	83 c9 01	 or	 ecx, 1
  00b94	f7 d1		 not	 ecx
  00b96	8b 55 fc	 mov	 edx, DWORD PTR _this$[ebp]
  00b99	89 4a 3c	 mov	 DWORD PTR [edx+60], ecx

; 115  : 
; 116  : 	m_sFileName=_T("");

  00b9c	8b f4		 mov	 esi, esp
  00b9e	68 00 00 00 00	 push	 OFFSET FLAT:$SG187754
  00ba3	8b 4d fc	 mov	 ecx, DWORD PTR _this$[ebp]
  00ba6	83 c1 48	 add	 ecx, 72			; 00000048H
  00ba9	ff 15 00 00 00
	00		 call	 DWORD PTR __imp_??4?$CStringT@DV?$StrTraitMFC_DLL@DV?$ChTraitsCRT@D@ATL@@@@@ATL@@QAEAAV01@PBD@Z
  00baf	3b f4		 cmp	 esi, esp
  00bb1	e8 00 00 00 00	 call	 __RTC_CheckEsp

; 117  : 	m_bOpened=true;

  00bb6	8b 45 fc	 mov	 eax, DWORD PTR _this$[ebp]
  00bb9	c6 40 44 01	 mov	 BYTE PTR [eax+68], 1

; 118  : 
; 119  : 	return SetDoc(szXMLString);

  00bbd	8b 4d 08	 mov	 ecx, DWORD PTR _szXMLString$[ebp]
  00bc0	51		 push	 ecx
  00bc1	8b 4d fc	 mov	 ecx, DWORD PTR _this$[ebp]
  00bc4	e8 00 00 00 00	 call	 ?SetDoc@CMarkup@@QAE_NPBD@Z ; CMarkup::SetDoc
$L187752:

; 120  : }

  00bc9	5e		 pop	 esi
  00bca	83 c4 04	 add	 esp, 4
  00bcd	3b ec		 cmp	 ebp, esp
  00bcf	e8 00 00 00 00	 call	 __RTC_CheckEsp
  00bd4	8b e5		 mov	 esp, ebp
  00bd6	5d		 pop	 ebp
  00bd7	c2 04 00	 ret	 4
?OpenString@CMarkupArchive@@QAE_NPBD@Z ENDP		; CMarkupArchive::OpenString
; Function compile flags: /Odt /RTCsu
_this$ = -4						; size = 4
?Close@CMarkupArchive@@QAE_NXZ PROC NEAR		; CMarkupArchive::Close
; _this$ = ecx

; 124  : {

  00be0	55		 push	 ebp
  00be1	8b ec		 mov	 ebp, esp
  00be3	51		 push	 ecx
  00be4	c7 45 fc cc cc
	cc cc		 mov	 DWORD PTR [ebp-4], -858993460 ; ccccccccH
  00beb	89 4d fc	 mov	 DWORD PTR _this$[ebp], ecx

; 125  : 	m_bOpened = false;

  00bee	8b 45 fc	 mov	 eax, DWORD PTR _this$[ebp]
  00bf1	c6 40 44 00	 mov	 BYTE PTR [eax+68], 0

; 126  : 	//if (!m_bOpened)
; 127  : 	//	return false;
; 128  : 
; 129  : 	//CString str;
; 130  : 	//LPTSTR pBuffer;
; 131  : 	//int length;
; 132  : 
; 133  : 	//// --- start --- TMB! 29-08-2002 ** INSAD **
; 134  : 	//// Initialy fill str with the XML header ;)
; 135  : 	//str.Format(_T("<?xml version=\"1.0\" encoding=\"%s\" ?>\r\n"), m_strEncodingString);
; 136  : 	//// --- end --- TMB! 29-08-2002 ** INSAD **
; 137  : 
; 138  : 	//if (IsStoring())
; 139  : 	//{
; 140  : 	//	if (!( m_dwMode & ArchiveModeNotZipped))
; 141  : 	//	{
; 142  : 	//#ifdef _UNICODE
; 143  : 	//		char mbFileName[512];
; 144  : 	//		VERIFY( WideCharToMultiByte(CP_THREAD_ACP, // code page
; 145  : 	//			WC_SEPCHARS,            // performance and mapping flags
; 146  : 	//			m_sFileName,    // wide-character string
; 147  : 	//			-1,          // number of chars in string
; 148  : 	//			mbFileName,     // buffer for new string
; 149  : 	//			512*sizeof(TCHAR),          // size of buffer
; 150  : 	//			NULL,     // default for unmappable chars
; 151  : 	//			NULL  // set when default char used
; 152  : 	//			) );
; 153  : 	//		gzFile gzf = gzopen(mbFileName,"wb9");
; 154  : 	//#else
; 155  : 	//		gzFile gzf = gzopen( m_sFileName, "wb9");
; 156  : 	//#endif
; 157  : 
; 158  : 	//		// --- Old code --- TMB! 29-08-2002 ** INSAD ** Now already filled!
; 159  : 	//		//str=_T("<?xml version=\"1.0\" encoding=\"ISO-8859-1\" ?>\r\n");
; 160  : 	//		// --- end --- TMB! 29-08-2002 ** INSAD **
; 161  : 	//		length=str.GetLength()*sizeof(TCHAR);
; 162  : 	//		pBuffer=str.LockBuffer();
; 163  : 	//		gzwrite(gzf,pBuffer,length);
; 164  : 	//		str.UnlockBuffer();
; 165  : 
; 166  : 	//		// writing document
; 167  : 	//		str=GetDoc();
; 168  : 	//		length=str.GetLength();
; 169  : 	//		pBuffer=str.LockBuffer();
; 170  : 	//		gzwrite(gzf,pBuffer, length);
; 171  : 	//		str.UnlockBuffer();
; 172  : 	//		gzclose(gzf);
; 173  : 	//	}
; 174  : 	//	else
; 175  : 	//	{
; 176  : 	//		TRY
; 177  : 	//		{
; 178  : 	//			CStdioFile file(m_sFileName, CFile::modeWrite | CFile::modeCreate | CFile::typeText);
; 179  : 	//			// --- start --- TMB! 29-08-2002 ** INSAD ** // Already filled!
; 180  : 	//			file.WriteString(str);
; 181  : 	//			// --- Old code --- TMB! 29-08-2002 ** INSAD **
; 182  : 	//			//file.WriteString(_T("<?xml version=\"1.0\" encoding=\"ISO-8859-1\" ?>\r\n"));
; 183  : 	//			// --- end --- TMB! 29-08-2002 ** INSAD **
; 184  : 	//			file.WriteString(GetDoc());
; 185  : 	//			file.Close();
; 186  : 	//		}
; 187  : 	//		CATCH( CFileException, e )
; 188  : 	//		{
; 189  : 	//			AfxMessageBox(_T("File could not be opened ")+e->m_cause);
; 190  : 	//		}
; 191  : 	//		END_CATCH
; 192  : 	//	}
; 193  : 	//}
; 194  : 
; 195  : 	//m_bOpened=false;
; 196  : 
; 197  : 	return true;

  00bf5	b0 01		 mov	 al, 1

; 198  : }

  00bf7	8b e5		 mov	 esp, ebp
  00bf9	5d		 pop	 ebp
  00bfa	c3		 ret	 0
?Close@CMarkupArchive@@QAE_NXZ ENDP			; CMarkupArchive::Close
_TEXT	ENDS
PUBLIC	??8ATL@@YA_NABV?$CStringT@DV?$StrTraitMFC_DLL@DV?$ChTraitsCRT@D@ATL@@@@@0@0@Z ; ATL::operator==
PUBLIC	??8ATL@@YA_NABV?$CStringT@DV?$StrTraitMFC_DLL@DV?$ChTraitsCRT@D@ATL@@@@@0@PBD@Z ; ATL::operator==
PUBLIC	??9ATL@@YA_NABV?$CStringT@DV?$StrTraitMFC_DLL@DV?$ChTraitsCRT@D@ATL@@@@@0@PBD@Z ; ATL::operator!=
PUBLIC	?GetSize@?$CArray@UElemPos@CMarkup@@AAU12@@@QBEHXZ ; CArray<CMarkup::ElemPos,CMarkup::ElemPos &>::GetSize
PUBLIC	??A?$CArray@UElemPos@CMarkup@@AAU12@@@QAEAAUElemPos@CMarkup@@H@Z ; CArray<CMarkup::ElemPos,CMarkup::ElemPos &>::operator[]
PUBLIC	?FindElemAttrib@CMarkupArchive@@QAE_NPBD00@Z	; CMarkupArchive::FindElemAttrib
EXTRN	?x_GetTagName@CMarkup@@IBE?AV?$CStringT@DV?$StrTraitMFC_DLL@DV?$ChTraitsCRT@D@ATL@@@@@ATL@@H@Z:NEAR ; CMarkup::x_GetTagName
EXTRN	?x_GetAttrib@CMarkup@@IBE?AV?$CStringT@DV?$StrTraitMFC_DLL@DV?$ChTraitsCRT@D@ATL@@@@@ATL@@HPBD@Z:NEAR ; CMarkup::x_GetAttrib
xdata$x	SEGMENT
$T188808 DD	0ffffffffH
	DD	FLAT:$L188797
	DD	0ffffffffH
	DD	FLAT:$L188800
$T188803 DD	019930520H
	DD	02H
	DD	FLAT:$T188808
	DD	2 DUP(00H)
	DD	2 DUP(00H)
; Function compile flags: /Odt /RTCsu
xdata$x	ENDS
_TEXT	SEGMENT
tv182 = -72						; size = 4
tv179 = -68						; size = 4
tv177 = -64						; size = 4
tv175 = -60						; size = 4
tv183 = -56						; size = 4
$T188796 = -52						; size = 4
$T188795 = -48						; size = 4
$T188794 = -44						; size = 4
$T188793 = -40						; size = 4
_temp$187780 = -32					; size = 4
_bGotIt$ = -24						; size = 4
_iPos$ = -20						; size = 4
_this$ = -16						; size = 4
__$EHRec$ = -12						; size = 12
_szName$ = 8						; size = 4
_szAttrib$ = 12						; size = 4
_szAttribValue$ = 16					; size = 4
?FindElemAttrib@CMarkupArchive@@QAE_NPBD00@Z PROC NEAR	; CMarkupArchive::FindElemAttrib
; _this$ = ecx

; 201  : {

  00c00	55		 push	 ebp
  00c01	8b ec		 mov	 ebp, esp
  00c03	6a ff		 push	 -1
  00c05	68 00 00 00 00	 push	 __ehhandler$?FindElemAttrib@CMarkupArchive@@QAE_NPBD00@Z
  00c0a	64 a1 00 00 00
	00		 mov	 eax, DWORD PTR fs:__except_list
  00c10	50		 push	 eax
  00c11	64 89 25 00 00
	00 00		 mov	 DWORD PTR fs:__except_list, esp
  00c18	83 ec 3c	 sub	 esp, 60			; 0000003cH
  00c1b	56		 push	 esi
  00c1c	57		 push	 edi
  00c1d	51		 push	 ecx
  00c1e	8d 7d b8	 lea	 edi, DWORD PTR [ebp-72]
  00c21	b9 0f 00 00 00	 mov	 ecx, 15			; 0000000fH
  00c26	b8 cc cc cc cc	 mov	 eax, -858993460		; ccccccccH
  00c2b	f3 ab		 rep stosd
  00c2d	59		 pop	 ecx
  00c2e	89 4d f0	 mov	 DWORD PTR _this$[ebp], ecx

; 202  : 	if ( szName == NULL || !szName[0] || szAttrib == NULL || !szAttrib[0])

  00c31	83 7d 08 00	 cmp	 DWORD PTR _szName$[ebp], 0
  00c35	74 1a		 je	 SHORT $L187765
  00c37	8b 45 08	 mov	 eax, DWORD PTR _szName$[ebp]
  00c3a	0f be 08	 movsx	 ecx, BYTE PTR [eax]
  00c3d	85 c9		 test	 ecx, ecx
  00c3f	74 10		 je	 SHORT $L187765
  00c41	83 7d 0c 00	 cmp	 DWORD PTR _szAttrib$[ebp], 0
  00c45	74 0a		 je	 SHORT $L187765
  00c47	8b 55 0c	 mov	 edx, DWORD PTR _szAttrib$[ebp]
  00c4a	0f be 02	 movsx	 eax, BYTE PTR [edx]
  00c4d	85 c0		 test	 eax, eax
  00c4f	75 07		 jne	 SHORT $L187764
$L187765:

; 203  : 		return false;

  00c51	32 c0		 xor	 al, al
  00c53	e9 c7 01 00 00	 jmp	 $L187763
$L187764:

; 204  : 
; 205  : 	// Otherwise go to next sibling element with matching tag name and attrib value
; 206  : 	// If the current position is valid, start looking from next
; 207  : 	// Change current position only if found
; 208  : 	int iPos = m_iPos;

  00c58	8b 4d f0	 mov	 ecx, DWORD PTR _this$[ebp]
  00c5b	8b 51 2c	 mov	 edx, DWORD PTR [ecx+44]
  00c5e	89 55 ec	 mov	 DWORD PTR _iPos$[ebp], edx

; 209  : 	if ( ! iPos )

  00c61	83 7d ec 00	 cmp	 DWORD PTR _iPos$[ebp], 0
  00c65	75 24		 jne	 SHORT $L187767

; 210  : 	{
; 211  : 		if ( m_aPos.GetSize() )

  00c67	8b 4d f0	 mov	 ecx, DWORD PTR _this$[ebp]
  00c6a	83 c1 14	 add	 ecx, 20			; 00000014H
  00c6d	e8 00 00 00 00	 call	 ?GetSize@?$CArray@UElemPos@CMarkup@@AAU12@@@QBEHXZ ; CArray<CMarkup::ElemPos,CMarkup::ElemPos &>::GetSize
  00c72	85 c0		 test	 eax, eax
  00c74	74 13		 je	 SHORT $L187768

; 212  : 			iPos = m_aPos[0].iElemChild;

  00c76	6a 00		 push	 0
  00c78	8b 4d f0	 mov	 ecx, DWORD PTR _this$[ebp]
  00c7b	83 c1 14	 add	 ecx, 20			; 00000014H
  00c7e	e8 00 00 00 00	 call	 ??A?$CArray@UElemPos@CMarkup@@AAU12@@@QAEAAUElemPos@CMarkup@@H@Z ; CArray<CMarkup::ElemPos,CMarkup::ElemPos &>::operator[]
  00c83	8b 40 18	 mov	 eax, DWORD PTR [eax+24]
  00c86	89 45 ec	 mov	 DWORD PTR _iPos$[ebp], eax
$L187768:

; 213  : 	}
; 214  : 	else

  00c89	eb 15		 jmp	 SHORT $L187772
$L187767:

; 215  : 	{
; 216  : 		iPos = m_aPos[iPos].iElemNext;

  00c8b	8b 4d ec	 mov	 ecx, DWORD PTR _iPos$[ebp]
  00c8e	51		 push	 ecx
  00c8f	8b 4d f0	 mov	 ecx, DWORD PTR _this$[ebp]
  00c92	83 c1 14	 add	 ecx, 20			; 00000014H
  00c95	e8 00 00 00 00	 call	 ??A?$CArray@UElemPos@CMarkup@@AAU12@@@QAEAAUElemPos@CMarkup@@H@Z ; CArray<CMarkup::ElemPos,CMarkup::ElemPos &>::operator[]
  00c9a	8b 50 1c	 mov	 edx, DWORD PTR [eax+28]
  00c9d	89 55 ec	 mov	 DWORD PTR _iPos$[ebp], edx
$L187772:

; 217  : 	}
; 218  : 
; 219  : 	BOOL bGotIt;											// --- Added --- TMB! 22-08-2002 ** INSAD **
; 220  : 	while ( iPos )

  00ca0	83 7d ec 00	 cmp	 DWORD PTR _iPos$[ebp], 0
  00ca4	0f 84 73 01 00
	00		 je	 $L187773

; 221  : 	{
; 222  : 		// Compare tag name unless szName is not specified
; 223  : 		// --- start --- TMB! 22-08-2002 ** INSAD **
; 224  : 		bGotIt = (x_GetTagName(iPos) == m_sNameSpace+szName);

  00caa	8b 45 08	 mov	 eax, DWORD PTR _szName$[ebp]
  00cad	50		 push	 eax
  00cae	8b 4d f0	 mov	 ecx, DWORD PTR _this$[ebp]
  00cb1	83 c1 4c	 add	 ecx, 76			; 0000004cH
  00cb4	51		 push	 ecx
  00cb5	8d 55 d8	 lea	 edx, DWORD PTR $T188793[ebp]
  00cb8	52		 push	 edx
  00cb9	e8 00 00 00 00	 call	 ??HATL@@YA?AV?$CStringT@DV?$StrTraitMFC_DLL@DV?$ChTraitsCRT@D@ATL@@@@@0@ABV10@PBD@Z ; ATL::operator+
  00cbe	83 c4 0c	 add	 esp, 12			; 0000000cH
  00cc1	89 45 c8	 mov	 DWORD PTR tv183[ebp], eax
  00cc4	8b 45 c8	 mov	 eax, DWORD PTR tv183[ebp]
  00cc7	89 45 c4	 mov	 DWORD PTR tv175[ebp], eax
  00cca	c7 45 fc 00 00
	00 00		 mov	 DWORD PTR __$EHRec$[ebp+8], 0
  00cd1	8b 4d ec	 mov	 ecx, DWORD PTR _iPos$[ebp]
  00cd4	51		 push	 ecx
  00cd5	8d 55 d4	 lea	 edx, DWORD PTR $T188794[ebp]
  00cd8	52		 push	 edx
  00cd9	8b 4d f0	 mov	 ecx, DWORD PTR _this$[ebp]
  00cdc	e8 00 00 00 00	 call	 ?x_GetTagName@CMarkup@@IBE?AV?$CStringT@DV?$StrTraitMFC_DLL@DV?$ChTraitsCRT@D@ATL@@@@@ATL@@H@Z ; CMarkup::x_GetTagName
  00ce1	89 45 c0	 mov	 DWORD PTR tv177[ebp], eax
  00ce4	8b 45 c4	 mov	 eax, DWORD PTR tv175[ebp]
  00ce7	50		 push	 eax
  00ce8	8b 4d c0	 mov	 ecx, DWORD PTR tv177[ebp]
  00ceb	51		 push	 ecx
  00cec	e8 00 00 00 00	 call	 ??8ATL@@YA_NABV?$CStringT@DV?$StrTraitMFC_DLL@DV?$ChTraitsCRT@D@ATL@@@@@0@0@Z ; ATL::operator==
  00cf1	83 c4 08	 add	 esp, 8
  00cf4	0f b6 d0	 movzx	 edx, al
  00cf7	89 55 e8	 mov	 DWORD PTR _bGotIt$[ebp], edx
  00cfa	8b f4		 mov	 esi, esp
  00cfc	8d 4d d4	 lea	 ecx, DWORD PTR $T188794[ebp]
  00cff	ff 15 00 00 00
	00		 call	 DWORD PTR __imp_??1?$CStringT@DV?$StrTraitMFC_DLL@DV?$ChTraitsCRT@D@ATL@@@@@ATL@@QAE@XZ
  00d05	3b f4		 cmp	 esi, esp
  00d07	e8 00 00 00 00	 call	 __RTC_CheckEsp
  00d0c	c7 45 fc ff ff
	ff ff		 mov	 DWORD PTR __$EHRec$[ebp+8], -1
  00d13	8b f4		 mov	 esi, esp
  00d15	8d 4d d8	 lea	 ecx, DWORD PTR $T188793[ebp]
  00d18	ff 15 00 00 00
	00		 call	 DWORD PTR __imp_??1?$CStringT@DV?$StrTraitMFC_DLL@DV?$ChTraitsCRT@D@ATL@@@@@ATL@@QAE@XZ
  00d1e	3b f4		 cmp	 esi, esp
  00d20	e8 00 00 00 00	 call	 __RTC_CheckEsp

; 225  : 		if (bGotIt && szAttribValue == NULL) 

  00d25	83 7d e8 00	 cmp	 DWORD PTR _bGotIt$[ebp], 0
  00d29	74 48		 je	 SHORT $L187776
  00d2b	83 7d 10 00	 cmp	 DWORD PTR _szAttribValue$[ebp], 0
  00d2f	75 42		 jne	 SHORT $L187776

; 226  : 		{
; 227  : 			bGotIt = x_GetAttrib(iPos, szAttrib) != "";		// Assume empty value is same as attribute not there...

  00d31	8b 45 0c	 mov	 eax, DWORD PTR _szAttrib$[ebp]
  00d34	50		 push	 eax
  00d35	8b 4d ec	 mov	 ecx, DWORD PTR _iPos$[ebp]
  00d38	51		 push	 ecx
  00d39	8d 55 d0	 lea	 edx, DWORD PTR $T188795[ebp]
  00d3c	52		 push	 edx
  00d3d	8b 4d f0	 mov	 ecx, DWORD PTR _this$[ebp]
  00d40	e8 00 00 00 00	 call	 ?x_GetAttrib@CMarkup@@IBE?AV?$CStringT@DV?$StrTraitMFC_DLL@DV?$ChTraitsCRT@D@ATL@@@@@ATL@@HPBD@Z ; CMarkup::x_GetAttrib
  00d45	89 45 bc	 mov	 DWORD PTR tv179[ebp], eax
  00d48	68 00 00 00 00	 push	 OFFSET FLAT:$SG187778
  00d4d	8b 45 bc	 mov	 eax, DWORD PTR tv179[ebp]
  00d50	50		 push	 eax
  00d51	e8 00 00 00 00	 call	 ??9ATL@@YA_NABV?$CStringT@DV?$StrTraitMFC_DLL@DV?$ChTraitsCRT@D@ATL@@@@@0@PBD@Z ; ATL::operator!=
  00d56	83 c4 08	 add	 esp, 8
  00d59	0f b6 c8	 movzx	 ecx, al
  00d5c	89 4d e8	 mov	 DWORD PTR _bGotIt$[ebp], ecx
  00d5f	8b f4		 mov	 esi, esp
  00d61	8d 4d d0	 lea	 ecx, DWORD PTR $T188795[ebp]
  00d64	ff 15 00 00 00
	00		 call	 DWORD PTR __imp_??1?$CStringT@DV?$StrTraitMFC_DLL@DV?$ChTraitsCRT@D@ATL@@@@@ATL@@QAE@XZ
  00d6a	3b f4		 cmp	 esi, esp
  00d6c	e8 00 00 00 00	 call	 __RTC_CheckEsp

; 228  : 		}
; 229  : 		else 

  00d71	eb 73		 jmp	 SHORT $L187779
$L187776:

; 230  : 		{
; 231  : 			CString temp = x_GetAttrib(iPos, szAttrib);

  00d73	8b 55 0c	 mov	 edx, DWORD PTR _szAttrib$[ebp]
  00d76	52		 push	 edx
  00d77	8b 45 ec	 mov	 eax, DWORD PTR _iPos$[ebp]
  00d7a	50		 push	 eax
  00d7b	8d 4d e0	 lea	 ecx, DWORD PTR _temp$187780[ebp]
  00d7e	51		 push	 ecx
  00d7f	8b 4d f0	 mov	 ecx, DWORD PTR _this$[ebp]
  00d82	e8 00 00 00 00	 call	 ?x_GetAttrib@CMarkup@@IBE?AV?$CStringT@DV?$StrTraitMFC_DLL@DV?$ChTraitsCRT@D@ATL@@@@@ATL@@HPBD@Z ; CMarkup::x_GetAttrib
  00d87	c7 45 fc 01 00
	00 00		 mov	 DWORD PTR __$EHRec$[ebp+8], 1

; 232  : 			bGotIt = (x_GetAttrib(iPos, szAttrib) == szAttribValue);

  00d8e	8b 55 0c	 mov	 edx, DWORD PTR _szAttrib$[ebp]
  00d91	52		 push	 edx
  00d92	8b 45 ec	 mov	 eax, DWORD PTR _iPos$[ebp]
  00d95	50		 push	 eax
  00d96	8d 4d cc	 lea	 ecx, DWORD PTR $T188796[ebp]
  00d99	51		 push	 ecx
  00d9a	8b 4d f0	 mov	 ecx, DWORD PTR _this$[ebp]
  00d9d	e8 00 00 00 00	 call	 ?x_GetAttrib@CMarkup@@IBE?AV?$CStringT@DV?$StrTraitMFC_DLL@DV?$ChTraitsCRT@D@ATL@@@@@ATL@@HPBD@Z ; CMarkup::x_GetAttrib
  00da2	89 45 b8	 mov	 DWORD PTR tv182[ebp], eax
  00da5	8b 55 10	 mov	 edx, DWORD PTR _szAttribValue$[ebp]
  00da8	52		 push	 edx
  00da9	8b 45 b8	 mov	 eax, DWORD PTR tv182[ebp]
  00dac	50		 push	 eax
  00dad	e8 00 00 00 00	 call	 ??8ATL@@YA_NABV?$CStringT@DV?$StrTraitMFC_DLL@DV?$ChTraitsCRT@D@ATL@@@@@0@PBD@Z ; ATL::operator==
  00db2	83 c4 08	 add	 esp, 8
  00db5	0f b6 c8	 movzx	 ecx, al
  00db8	89 4d e8	 mov	 DWORD PTR _bGotIt$[ebp], ecx
  00dbb	8b f4		 mov	 esi, esp
  00dbd	8d 4d cc	 lea	 ecx, DWORD PTR $T188796[ebp]
  00dc0	ff 15 00 00 00
	00		 call	 DWORD PTR __imp_??1?$CStringT@DV?$StrTraitMFC_DLL@DV?$ChTraitsCRT@D@ATL@@@@@ATL@@QAE@XZ
  00dc6	3b f4		 cmp	 esi, esp
  00dc8	e8 00 00 00 00	 call	 __RTC_CheckEsp

; 233  : 		}

  00dcd	c7 45 fc ff ff
	ff ff		 mov	 DWORD PTR __$EHRec$[ebp+8], -1
  00dd4	8b f4		 mov	 esi, esp
  00dd6	8d 4d e0	 lea	 ecx, DWORD PTR _temp$187780[ebp]
  00dd9	ff 15 00 00 00
	00		 call	 DWORD PTR __imp_??1?$CStringT@DV?$StrTraitMFC_DLL@DV?$ChTraitsCRT@D@ATL@@@@@ATL@@QAE@XZ
  00ddf	3b f4		 cmp	 esi, esp
  00de1	e8 00 00 00 00	 call	 __RTC_CheckEsp
$L187779:

; 234  : 		if (bGotIt)

  00de6	83 7d e8 00	 cmp	 DWORD PTR _bGotIt$[ebp], 0
  00dea	74 17		 je	 SHORT $L187783

; 235  : 		// --- oldcode --- TMB! 22-08-2002 ** INSAD **
; 236  : 		//if ( x_GetTagName(iPos) == m_sNameSpace+szName && x_GetAttrib(iPos, szAttrib) )
; 237  : 		// --- end --- TMB! 22-08-2002 ** INSAD **
; 238  : 		{
; 239  : 			// Assign new position
; 240  : 			m_iPos = iPos;

  00dec	8b 55 f0	 mov	 edx, DWORD PTR _this$[ebp]
  00def	8b 45 ec	 mov	 eax, DWORD PTR _iPos$[ebp]
  00df2	89 42 2c	 mov	 DWORD PTR [edx+44], eax

; 241  : 			m_iPosChild = 0;

  00df5	8b 4d f0	 mov	 ecx, DWORD PTR _this$[ebp]
  00df8	c7 41 30 00 00
	00 00		 mov	 DWORD PTR [ecx+48], 0

; 242  : 			return true;

  00dff	b0 01		 mov	 al, 1
  00e01	eb 1c		 jmp	 SHORT $L187763
$L187783:

; 243  : 		}
; 244  : 		iPos = m_aPos[iPos].iElemNext;

  00e03	8b 55 ec	 mov	 edx, DWORD PTR _iPos$[ebp]
  00e06	52		 push	 edx
  00e07	8b 4d f0	 mov	 ecx, DWORD PTR _this$[ebp]
  00e0a	83 c1 14	 add	 ecx, 20			; 00000014H
  00e0d	e8 00 00 00 00	 call	 ??A?$CArray@UElemPos@CMarkup@@AAU12@@@QAEAAUElemPos@CMarkup@@H@Z ; CArray<CMarkup::ElemPos,CMarkup::ElemPos &>::operator[]
  00e12	8b 40 1c	 mov	 eax, DWORD PTR [eax+28]
  00e15	89 45 ec	 mov	 DWORD PTR _iPos$[ebp], eax

; 245  : 	}

  00e18	e9 83 fe ff ff	 jmp	 $L187772
$L187773:

; 246  : 	return false;

  00e1d	32 c0		 xor	 al, al
$L187763:

; 247  : }

  00e1f	52		 push	 edx
  00e20	8b cd		 mov	 ecx, ebp
  00e22	50		 push	 eax
  00e23	8d 15 00 00 00
	00		 lea	 edx, DWORD PTR $L188807
  00e29	e8 00 00 00 00	 call	 @_RTC_CheckStackVars@8
  00e2e	58		 pop	 eax
  00e2f	5a		 pop	 edx
  00e30	8b 4d f4	 mov	 ecx, DWORD PTR __$EHRec$[ebp]
  00e33	64 89 0d 00 00
	00 00		 mov	 DWORD PTR fs:__except_list, ecx
  00e3a	5f		 pop	 edi
  00e3b	5e		 pop	 esi
  00e3c	83 c4 48	 add	 esp, 72			; 00000048H
  00e3f	3b ec		 cmp	 ebp, esp
  00e41	e8 00 00 00 00	 call	 __RTC_CheckEsp
  00e46	8b e5		 mov	 esp, ebp
  00e48	5d		 pop	 ebp
  00e49	c2 0c 00	 ret	 12			; 0000000cH
$L188807:
  00e4c	01 00 00 00	 DD	 1
  00e50	00 00 00 00	 DD	 $L188806
$L188806:
  00e54	e0 ff ff ff	 DD	 -32			; ffffffe0H
  00e58	04 00 00 00	 DD	 4
  00e5c	00 00 00 00	 DD	 $L188804
$L188804:
  00e60	74		 DB	 116			; 00000074H
  00e61	65		 DB	 101			; 00000065H
  00e62	6d		 DB	 109			; 0000006dH
  00e63	70		 DB	 112			; 00000070H
  00e64	00		 DB	 0
_TEXT	ENDS
text$x	SEGMENT
$L188797:
  001bf	8b f4		 mov	 esi, esp
  001c1	8d 4d d8	 lea	 ecx, DWORD PTR $T188793[ebp]
  001c4	ff 15 00 00 00
	00		 call	 DWORD PTR __imp_??1?$CStringT@DV?$StrTraitMFC_DLL@DV?$ChTraitsCRT@D@ATL@@@@@ATL@@QAE@XZ
  001ca	3b f4		 cmp	 esi, esp
  001cc	e9 00 00 00 00	 jmp	 __RTC_CheckEsp
$L188800:
  001d1	8b f4		 mov	 esi, esp
  001d3	8d 4d e0	 lea	 ecx, DWORD PTR _temp$187780[ebp]
  001d6	ff 15 00 00 00
	00		 call	 DWORD PTR __imp_??1?$CStringT@DV?$StrTraitMFC_DLL@DV?$ChTraitsCRT@D@ATL@@@@@ATL@@QAE@XZ
  001dc	3b f4		 cmp	 esi, esp
  001de	e9 00 00 00 00	 jmp	 __RTC_CheckEsp
__ehhandler$?FindElemAttrib@CMarkupArchive@@QAE_NPBD00@Z:
  001e3	b8 00 00 00 00	 mov	 eax, OFFSET FLAT:$T188803
  001e8	e9 00 00 00 00	 jmp	 ___CxxFrameHandler
text$x	ENDS
?FindElemAttrib@CMarkupArchive@@QAE_NPBD00@Z ENDP	; CMarkupArchive::FindElemAttrib
PUBLIC	?FindChildElemAttrib@CMarkupArchive@@QAE_NPBD00@Z ; CMarkupArchive::FindChildElemAttrib
PUBLIC	?IsEmptyElement@ElemPos@CMarkup@@QBE_NXZ	; CMarkup::ElemPos::IsEmptyElement
xdata$x	SEGMENT
$T188826 DD	0ffffffffH
	DD	FLAT:$L188815
	DD	00H
	DD	FLAT:$L188816
$T188821 DD	019930520H
	DD	02H
	DD	FLAT:$T188826
	DD	2 DUP(00H)
	DD	2 DUP(00H)
; Function compile flags: /Odt /RTCsu
xdata$x	ENDS
_TEXT	SEGMENT
tv194 = -76						; size = 4
tv192 = -72						; size = 4
tv190 = -68						; size = 4
tv188 = -64						; size = 4
tv197 = -60						; size = 4
$T188814 = -53						; size = 1
$T188813 = -52						; size = 4
$T188812 = -48						; size = 4
$T188811 = -44						; size = 4
$T188810 = -40						; size = 4
_temp$187802 = -32					; size = 4
_bGotIt$ = -24						; size = 4
_iPosChild$ = -20					; size = 4
_this$ = -16						; size = 4
__$EHRec$ = -12						; size = 12
_szName$ = 8						; size = 4
_szAttrib$ = 12						; size = 4
_szAttribValue$ = 16					; size = 4
?FindChildElemAttrib@CMarkupArchive@@QAE_NPBD00@Z PROC NEAR ; CMarkupArchive::FindChildElemAttrib
; _this$ = ecx

; 252  : {

  00e70	55		 push	 ebp
  00e71	8b ec		 mov	 ebp, esp
  00e73	6a ff		 push	 -1
  00e75	68 00 00 00 00	 push	 __ehhandler$?FindChildElemAttrib@CMarkupArchive@@QAE_NPBD00@Z
  00e7a	64 a1 00 00 00
	00		 mov	 eax, DWORD PTR fs:__except_list
  00e80	50		 push	 eax
  00e81	64 89 25 00 00
	00 00		 mov	 DWORD PTR fs:__except_list, esp
  00e88	83 ec 40	 sub	 esp, 64			; 00000040H
  00e8b	56		 push	 esi
  00e8c	57		 push	 edi
  00e8d	51		 push	 ecx
  00e8e	8d 7d b4	 lea	 edi, DWORD PTR [ebp-76]
  00e91	b9 10 00 00 00	 mov	 ecx, 16			; 00000010H
  00e96	b8 cc cc cc cc	 mov	 eax, -858993460		; ccccccccH
  00e9b	f3 ab		 rep stosd
  00e9d	59		 pop	 ecx
  00e9e	89 4d f0	 mov	 DWORD PTR _this$[ebp], ecx

; 253  : 	if ( szName == NULL || !szName[0] || szAttrib == NULL || !szAttrib[0])

  00ea1	83 7d 08 00	 cmp	 DWORD PTR _szName$[ebp], 0
  00ea5	74 1a		 je	 SHORT $L187791
  00ea7	8b 45 08	 mov	 eax, DWORD PTR _szName$[ebp]
  00eaa	0f be 08	 movsx	 ecx, BYTE PTR [eax]
  00ead	85 c9		 test	 ecx, ecx
  00eaf	74 10		 je	 SHORT $L187791
  00eb1	83 7d 0c 00	 cmp	 DWORD PTR _szAttrib$[ebp], 0
  00eb5	74 0a		 je	 SHORT $L187791
  00eb7	8b 55 0c	 mov	 edx, DWORD PTR _szAttrib$[ebp]
  00eba	0f be 02	 movsx	 eax, BYTE PTR [edx]
  00ebd	85 c0		 test	 eax, eax
  00ebf	75 07		 jne	 SHORT $L187790
$L187791:

; 254  : 		return false;

  00ec1	32 c0		 xor	 al, al
  00ec3	e9 16 02 00 00	 jmp	 $L187789
$L187790:

; 255  : 
; 256  : 	// If szName is NULL or empty, go to next sibling child element
; 257  : 	// Otherwise go to next sibling child element with matching tag name
; 258  : 	// If the current child position is valid, start looking from next
; 259  : 	// Change current child position only if found
; 260  : 	//
; 261  : 	// Shorthand: call this with no current position means under root element
; 262  : 	if ( ! m_iPos )

  00ec8	8b 4d f0	 mov	 ecx, DWORD PTR _this$[ebp]
  00ecb	83 79 2c 00	 cmp	 DWORD PTR [ecx+44], 0
  00ecf	75 16		 jne	 SHORT $L187792

; 263  : 		FindElem();

  00ed1	8b f4		 mov	 esi, esp
  00ed3	6a 00		 push	 0
  00ed5	8b 55 f0	 mov	 edx, DWORD PTR _this$[ebp]
  00ed8	8b 02		 mov	 eax, DWORD PTR [edx]
  00eda	8b 4d f0	 mov	 ecx, DWORD PTR _this$[ebp]
  00edd	ff 50 0c	 call	 DWORD PTR [eax+12]
  00ee0	3b f4		 cmp	 esi, esp
  00ee2	e8 00 00 00 00	 call	 __RTC_CheckEsp
$L187792:

; 264  : 
; 265  : 	// Is main position valid and not empty?
; 266  : 	if ( ! m_iPos || m_aPos[m_iPos].IsEmptyElement() )

  00ee7	8b 4d f0	 mov	 ecx, DWORD PTR _this$[ebp]
  00eea	83 79 2c 00	 cmp	 DWORD PTR [ecx+44], 0
  00eee	74 20		 je	 SHORT $L187794
  00ef0	8b 55 f0	 mov	 edx, DWORD PTR _this$[ebp]
  00ef3	8b 42 2c	 mov	 eax, DWORD PTR [edx+44]
  00ef6	50		 push	 eax
  00ef7	8b 4d f0	 mov	 ecx, DWORD PTR _this$[ebp]
  00efa	83 c1 14	 add	 ecx, 20			; 00000014H
  00efd	e8 00 00 00 00	 call	 ??A?$CArray@UElemPos@CMarkup@@AAU12@@@QAEAAUElemPos@CMarkup@@H@Z ; CArray<CMarkup::ElemPos,CMarkup::ElemPos &>::operator[]
  00f02	8b c8		 mov	 ecx, eax
  00f04	e8 00 00 00 00	 call	 ?IsEmptyElement@ElemPos@CMarkup@@QBE_NXZ ; CMarkup::ElemPos::IsEmptyElement
  00f09	0f b6 c8	 movzx	 ecx, al
  00f0c	85 c9		 test	 ecx, ecx
  00f0e	74 07		 je	 SHORT $L187793
$L187794:

; 267  : 		return false;

  00f10	32 c0		 xor	 al, al
  00f12	e9 c7 01 00 00	 jmp	 $L187789
$L187793:

; 268  : 
; 269  : 	// Is current child position valid?
; 270  : 	int iPosChild = m_iPosChild;

  00f17	8b 55 f0	 mov	 edx, DWORD PTR _this$[ebp]
  00f1a	8b 42 30	 mov	 eax, DWORD PTR [edx+48]
  00f1d	89 45 ec	 mov	 DWORD PTR _iPosChild$[ebp], eax

; 271  : 	if ( iPosChild )

  00f20	83 7d ec 00	 cmp	 DWORD PTR _iPosChild$[ebp], 0
  00f24	74 17		 je	 SHORT $L187796

; 272  : 		iPosChild = m_aPos[iPosChild].iElemNext;

  00f26	8b 4d ec	 mov	 ecx, DWORD PTR _iPosChild$[ebp]
  00f29	51		 push	 ecx
  00f2a	8b 4d f0	 mov	 ecx, DWORD PTR _this$[ebp]
  00f2d	83 c1 14	 add	 ecx, 20			; 00000014H
  00f30	e8 00 00 00 00	 call	 ??A?$CArray@UElemPos@CMarkup@@AAU12@@@QAEAAUElemPos@CMarkup@@H@Z ; CArray<CMarkup::ElemPos,CMarkup::ElemPos &>::operator[]
  00f35	8b 50 1c	 mov	 edx, DWORD PTR [eax+28]
  00f38	89 55 ec	 mov	 DWORD PTR _iPosChild$[ebp], edx

; 273  : 	else

  00f3b	eb 18		 jmp	 SHORT $L187800
$L187796:

; 274  : 		iPosChild = m_aPos[m_iPos].iElemChild;

  00f3d	8b 45 f0	 mov	 eax, DWORD PTR _this$[ebp]
  00f40	8b 48 2c	 mov	 ecx, DWORD PTR [eax+44]
  00f43	51		 push	 ecx
  00f44	8b 4d f0	 mov	 ecx, DWORD PTR _this$[ebp]
  00f47	83 c1 14	 add	 ecx, 20			; 00000014H
  00f4a	e8 00 00 00 00	 call	 ??A?$CArray@UElemPos@CMarkup@@AAU12@@@QAEAAUElemPos@CMarkup@@H@Z ; CArray<CMarkup::ElemPos,CMarkup::ElemPos &>::operator[]
  00f4f	8b 50 18	 mov	 edx, DWORD PTR [eax+24]
  00f52	89 55 ec	 mov	 DWORD PTR _iPosChild$[ebp], edx
$L187800:

; 275  : 
; 276  : 	// Search
; 277  : 	BOOL bGotIt;											// --- Added --- TMB! 22-08-2002 ** INSAD **
; 278  : 	while ( iPosChild )

  00f55	83 7d ec 00	 cmp	 DWORD PTR _iPosChild$[ebp], 0
  00f59	0f 84 7d 01 00
	00		 je	 $L187801

; 279  : 	{
; 280  : 		// Compare tag name unless szName is not specified
; 281  : 		CString temp = x_GetTagName(iPosChild);

  00f5f	8b 45 ec	 mov	 eax, DWORD PTR _iPosChild$[ebp]
  00f62	50		 push	 eax
  00f63	8d 4d e0	 lea	 ecx, DWORD PTR _temp$187802[ebp]
  00f66	51		 push	 ecx
  00f67	8b 4d f0	 mov	 ecx, DWORD PTR _this$[ebp]
  00f6a	e8 00 00 00 00	 call	 ?x_GetTagName@CMarkup@@IBE?AV?$CStringT@DV?$StrTraitMFC_DLL@DV?$ChTraitsCRT@D@ATL@@@@@ATL@@H@Z ; CMarkup::x_GetTagName
  00f6f	c7 45 fc 00 00
	00 00		 mov	 DWORD PTR __$EHRec$[ebp+8], 0

; 282  : 		// --- start --- TMB! 22-08-2002 ** INSAD **
; 283  : 		bGotIt = (x_GetTagName(iPosChild) == m_sNameSpace+szName);

  00f76	8b 55 08	 mov	 edx, DWORD PTR _szName$[ebp]
  00f79	52		 push	 edx
  00f7a	8b 45 f0	 mov	 eax, DWORD PTR _this$[ebp]
  00f7d	83 c0 4c	 add	 eax, 76			; 0000004cH
  00f80	50		 push	 eax
  00f81	8d 4d d8	 lea	 ecx, DWORD PTR $T188810[ebp]
  00f84	51		 push	 ecx
  00f85	e8 00 00 00 00	 call	 ??HATL@@YA?AV?$CStringT@DV?$StrTraitMFC_DLL@DV?$ChTraitsCRT@D@ATL@@@@@0@ABV10@PBD@Z ; ATL::operator+
  00f8a	83 c4 0c	 add	 esp, 12			; 0000000cH
  00f8d	89 45 c4	 mov	 DWORD PTR tv197[ebp], eax
  00f90	8b 55 c4	 mov	 edx, DWORD PTR tv197[ebp]
  00f93	89 55 c0	 mov	 DWORD PTR tv188[ebp], edx
  00f96	c6 45 fc 01	 mov	 BYTE PTR __$EHRec$[ebp+8], 1
  00f9a	8b 45 ec	 mov	 eax, DWORD PTR _iPosChild$[ebp]
  00f9d	50		 push	 eax
  00f9e	8d 4d d4	 lea	 ecx, DWORD PTR $T188811[ebp]
  00fa1	51		 push	 ecx
  00fa2	8b 4d f0	 mov	 ecx, DWORD PTR _this$[ebp]
  00fa5	e8 00 00 00 00	 call	 ?x_GetTagName@CMarkup@@IBE?AV?$CStringT@DV?$StrTraitMFC_DLL@DV?$ChTraitsCRT@D@ATL@@@@@ATL@@H@Z ; CMarkup::x_GetTagName
  00faa	89 45 bc	 mov	 DWORD PTR tv190[ebp], eax
  00fad	8b 55 c0	 mov	 edx, DWORD PTR tv188[ebp]
  00fb0	52		 push	 edx
  00fb1	8b 45 bc	 mov	 eax, DWORD PTR tv190[ebp]
  00fb4	50		 push	 eax
  00fb5	e8 00 00 00 00	 call	 ??8ATL@@YA_NABV?$CStringT@DV?$StrTraitMFC_DLL@DV?$ChTraitsCRT@D@ATL@@@@@0@0@Z ; ATL::operator==
  00fba	83 c4 08	 add	 esp, 8
  00fbd	0f b6 c8	 movzx	 ecx, al
  00fc0	89 4d e8	 mov	 DWORD PTR _bGotIt$[ebp], ecx
  00fc3	8b f4		 mov	 esi, esp
  00fc5	8d 4d d4	 lea	 ecx, DWORD PTR $T188811[ebp]
  00fc8	ff 15 00 00 00
	00		 call	 DWORD PTR __imp_??1?$CStringT@DV?$StrTraitMFC_DLL@DV?$ChTraitsCRT@D@ATL@@@@@ATL@@QAE@XZ
  00fce	3b f4		 cmp	 esi, esp
  00fd0	e8 00 00 00 00	 call	 __RTC_CheckEsp
  00fd5	c6 45 fc 00	 mov	 BYTE PTR __$EHRec$[ebp+8], 0
  00fd9	8b f4		 mov	 esi, esp
  00fdb	8d 4d d8	 lea	 ecx, DWORD PTR $T188810[ebp]
  00fde	ff 15 00 00 00
	00		 call	 DWORD PTR __imp_??1?$CStringT@DV?$StrTraitMFC_DLL@DV?$ChTraitsCRT@D@ATL@@@@@ATL@@QAE@XZ
  00fe4	3b f4		 cmp	 esi, esp
  00fe6	e8 00 00 00 00	 call	 __RTC_CheckEsp

; 284  : 		if (bGotIt && szAttribValue == NULL) 

  00feb	83 7d e8 00	 cmp	 DWORD PTR _bGotIt$[ebp], 0
  00fef	74 48		 je	 SHORT $L187806
  00ff1	83 7d 10 00	 cmp	 DWORD PTR _szAttribValue$[ebp], 0
  00ff5	75 42		 jne	 SHORT $L187806

; 285  : 		{
; 286  : 			bGotIt = x_GetAttrib(iPosChild, szAttrib) != _T("");		// Assume empty value is same as attribute not there...

  00ff7	8b 55 0c	 mov	 edx, DWORD PTR _szAttrib$[ebp]
  00ffa	52		 push	 edx
  00ffb	8b 45 ec	 mov	 eax, DWORD PTR _iPosChild$[ebp]
  00ffe	50		 push	 eax
  00fff	8d 4d d0	 lea	 ecx, DWORD PTR $T188812[ebp]
  01002	51		 push	 ecx
  01003	8b 4d f0	 mov	 ecx, DWORD PTR _this$[ebp]
  01006	e8 00 00 00 00	 call	 ?x_GetAttrib@CMarkup@@IBE?AV?$CStringT@DV?$StrTraitMFC_DLL@DV?$ChTraitsCRT@D@ATL@@@@@ATL@@HPBD@Z ; CMarkup::x_GetAttrib
  0100b	89 45 b8	 mov	 DWORD PTR tv192[ebp], eax
  0100e	68 00 00 00 00	 push	 OFFSET FLAT:$SG187808
  01013	8b 55 b8	 mov	 edx, DWORD PTR tv192[ebp]
  01016	52		 push	 edx
  01017	e8 00 00 00 00	 call	 ??9ATL@@YA_NABV?$CStringT@DV?$StrTraitMFC_DLL@DV?$ChTraitsCRT@D@ATL@@@@@0@PBD@Z ; ATL::operator!=
  0101c	83 c4 08	 add	 esp, 8
  0101f	0f b6 c0	 movzx	 eax, al
  01022	89 45 e8	 mov	 DWORD PTR _bGotIt$[ebp], eax
  01025	8b f4		 mov	 esi, esp
  01027	8d 4d d0	 lea	 ecx, DWORD PTR $T188812[ebp]
  0102a	ff 15 00 00 00
	00		 call	 DWORD PTR __imp_??1?$CStringT@DV?$StrTraitMFC_DLL@DV?$ChTraitsCRT@D@ATL@@@@@ATL@@QAE@XZ
  01030	3b f4		 cmp	 esi, esp
  01032	e8 00 00 00 00	 call	 __RTC_CheckEsp

; 287  : 		}
; 288  : 		else 

  01037	eb 3f		 jmp	 SHORT $L187809
$L187806:

; 289  : 		{
; 290  : 			bGotIt = (x_GetAttrib(iPosChild, szAttrib) == szAttribValue);

  01039	8b 4d 0c	 mov	 ecx, DWORD PTR _szAttrib$[ebp]
  0103c	51		 push	 ecx
  0103d	8b 55 ec	 mov	 edx, DWORD PTR _iPosChild$[ebp]
  01040	52		 push	 edx
  01041	8d 45 cc	 lea	 eax, DWORD PTR $T188813[ebp]
  01044	50		 push	 eax
  01045	8b 4d f0	 mov	 ecx, DWORD PTR _this$[ebp]
  01048	e8 00 00 00 00	 call	 ?x_GetAttrib@CMarkup@@IBE?AV?$CStringT@DV?$StrTraitMFC_DLL@DV?$ChTraitsCRT@D@ATL@@@@@ATL@@HPBD@Z ; CMarkup::x_GetAttrib
  0104d	89 45 b4	 mov	 DWORD PTR tv194[ebp], eax
  01050	8b 4d 10	 mov	 ecx, DWORD PTR _szAttribValue$[ebp]
  01053	51		 push	 ecx
  01054	8b 55 b4	 mov	 edx, DWORD PTR tv194[ebp]
  01057	52		 push	 edx
  01058	e8 00 00 00 00	 call	 ??8ATL@@YA_NABV?$CStringT@DV?$StrTraitMFC_DLL@DV?$ChTraitsCRT@D@ATL@@@@@0@PBD@Z ; ATL::operator==
  0105d	83 c4 08	 add	 esp, 8
  01060	0f b6 c0	 movzx	 eax, al
  01063	89 45 e8	 mov	 DWORD PTR _bGotIt$[ebp], eax
  01066	8b f4		 mov	 esi, esp
  01068	8d 4d cc	 lea	 ecx, DWORD PTR $T188813[ebp]
  0106b	ff 15 00 00 00
	00		 call	 DWORD PTR __imp_??1?$CStringT@DV?$StrTraitMFC_DLL@DV?$ChTraitsCRT@D@ATL@@@@@ATL@@QAE@XZ
  01071	3b f4		 cmp	 esi, esp
  01073	e8 00 00 00 00	 call	 __RTC_CheckEsp
$L187809:

; 291  : 		}
; 292  : 		if (bGotIt)

  01078	83 7d e8 00	 cmp	 DWORD PTR _bGotIt$[ebp], 0
  0107c	74 2b		 je	 SHORT $L187811

; 293  : 		// --- oldcode --- TMB! 22-08-2002 ** INSAD **
; 294  : 		//if ((x_GetTagName(iPosChild) == m_sNameSpace+szName) && (x_GetAttrib(iPosChild, szAttrib) == szAttribValue))
; 295  : 		// --- end --- TMB! 22-08-2002 ** INSAD **
; 296  : 		{
; 297  : 			// Assign new position
; 298  : 			m_iPosChild = iPosChild;

  0107e	8b 4d f0	 mov	 ecx, DWORD PTR _this$[ebp]
  01081	8b 55 ec	 mov	 edx, DWORD PTR _iPosChild$[ebp]
  01084	89 51 30	 mov	 DWORD PTR [ecx+48], edx

; 299  : 			return true;

  01087	c6 45 cb 01	 mov	 BYTE PTR $T188814[ebp], 1
  0108b	c7 45 fc ff ff
	ff ff		 mov	 DWORD PTR __$EHRec$[ebp+8], -1
  01092	8b f4		 mov	 esi, esp
  01094	8d 4d e0	 lea	 ecx, DWORD PTR _temp$187802[ebp]
  01097	ff 15 00 00 00
	00		 call	 DWORD PTR __imp_??1?$CStringT@DV?$StrTraitMFC_DLL@DV?$ChTraitsCRT@D@ATL@@@@@ATL@@QAE@XZ
  0109d	3b f4		 cmp	 esi, esp
  0109f	e8 00 00 00 00	 call	 __RTC_CheckEsp
  010a4	8a 45 cb	 mov	 al, BYTE PTR $T188814[ebp]
  010a7	eb 35		 jmp	 SHORT $L187789
$L187811:

; 300  : 		}
; 301  : 		iPosChild = m_aPos[iPosChild].iElemNext;

  010a9	8b 45 ec	 mov	 eax, DWORD PTR _iPosChild$[ebp]
  010ac	50		 push	 eax
  010ad	8b 4d f0	 mov	 ecx, DWORD PTR _this$[ebp]
  010b0	83 c1 14	 add	 ecx, 20			; 00000014H
  010b3	e8 00 00 00 00	 call	 ??A?$CArray@UElemPos@CMarkup@@AAU12@@@QAEAAUElemPos@CMarkup@@H@Z ; CArray<CMarkup::ElemPos,CMarkup::ElemPos &>::operator[]
  010b8	8b 48 1c	 mov	 ecx, DWORD PTR [eax+28]
  010bb	89 4d ec	 mov	 DWORD PTR _iPosChild$[ebp], ecx

; 302  : 	}

  010be	c7 45 fc ff ff
	ff ff		 mov	 DWORD PTR __$EHRec$[ebp+8], -1
  010c5	8b f4		 mov	 esi, esp
  010c7	8d 4d e0	 lea	 ecx, DWORD PTR _temp$187802[ebp]
  010ca	ff 15 00 00 00
	00		 call	 DWORD PTR __imp_??1?$CStringT@DV?$StrTraitMFC_DLL@DV?$ChTraitsCRT@D@ATL@@@@@ATL@@QAE@XZ
  010d0	3b f4		 cmp	 esi, esp
  010d2	e8 00 00 00 00	 call	 __RTC_CheckEsp
  010d7	e9 79 fe ff ff	 jmp	 $L187800
$L187801:

; 303  : 	return false;

  010dc	32 c0		 xor	 al, al
$L187789:

; 304  : }

  010de	52		 push	 edx
  010df	8b cd		 mov	 ecx, ebp
  010e1	50		 push	 eax
  010e2	8d 15 00 00 00
	00		 lea	 edx, DWORD PTR $L188825
  010e8	e8 00 00 00 00	 call	 @_RTC_CheckStackVars@8
  010ed	58		 pop	 eax
  010ee	5a		 pop	 edx
  010ef	8b 4d f4	 mov	 ecx, DWORD PTR __$EHRec$[ebp]
  010f2	64 89 0d 00 00
	00 00		 mov	 DWORD PTR fs:__except_list, ecx
  010f9	5f		 pop	 edi
  010fa	5e		 pop	 esi
  010fb	83 c4 4c	 add	 esp, 76			; 0000004cH
  010fe	3b ec		 cmp	 ebp, esp
  01100	e8 00 00 00 00	 call	 __RTC_CheckEsp
  01105	8b e5		 mov	 esp, ebp
  01107	5d		 pop	 ebp
  01108	c2 0c 00	 ret	 12			; 0000000cH
$L188825:
  0110b	01 00 00 00	 DD	 1
  0110f	00 00 00 00	 DD	 $L188824
$L188824:
  01113	e0 ff ff ff	 DD	 -32			; ffffffe0H
  01117	04 00 00 00	 DD	 4
  0111b	00 00 00 00	 DD	 $L188822
$L188822:
  0111f	74		 DB	 116			; 00000074H
  01120	65		 DB	 101			; 00000065H
  01121	6d		 DB	 109			; 0000006dH
  01122	70		 DB	 112			; 00000070H
  01123	00		 DB	 0
_TEXT	ENDS
text$x	SEGMENT
$L188815:
  001ed	8b f4		 mov	 esi, esp
  001ef	8d 4d e0	 lea	 ecx, DWORD PTR _temp$187802[ebp]
  001f2	ff 15 00 00 00
	00		 call	 DWORD PTR __imp_??1?$CStringT@DV?$StrTraitMFC_DLL@DV?$ChTraitsCRT@D@ATL@@@@@ATL@@QAE@XZ
  001f8	3b f4		 cmp	 esi, esp
  001fa	e9 00 00 00 00	 jmp	 __RTC_CheckEsp
$L188816:
  001ff	8b f4		 mov	 esi, esp
  00201	8d 4d d8	 lea	 ecx, DWORD PTR $T188810[ebp]
  00204	ff 15 00 00 00
	00		 call	 DWORD PTR __imp_??1?$CStringT@DV?$StrTraitMFC_DLL@DV?$ChTraitsCRT@D@ATL@@@@@ATL@@QAE@XZ
  0020a	3b f4		 cmp	 esi, esp
  0020c	e9 00 00 00 00	 jmp	 __RTC_CheckEsp
__ehhandler$?FindChildElemAttrib@CMarkupArchive@@QAE_NPBD00@Z:
  00211	b8 00 00 00 00	 mov	 eax, OFFSET FLAT:$T188821
  00216	e9 00 00 00 00	 jmp	 ___CxxFrameHandler
text$x	ENDS
?FindChildElemAttrib@CMarkupArchive@@QAE_NPBD00@Z ENDP	; CMarkupArchive::FindChildElemAttrib
; Function compile flags: /Odt /RTCsu
; File d:\boxgit\playbox\playbox\dev\prj\playbox\src\util\markup.h
;	COMDAT ?IsEmptyElement@ElemPos@CMarkup@@QBE_NXZ
_TEXT	SEGMENT
_this$ = -4						; size = 4
?IsEmptyElement@ElemPos@CMarkup@@QBE_NXZ PROC NEAR	; CMarkup::ElemPos::IsEmptyElement, COMDAT
; _this$ = ecx

; 88   : 		bool IsEmptyElement() const { return (nStartR == nEndL + 1); };

  00000	55		 push	 ebp
  00001	8b ec		 mov	 ebp, esp
  00003	51		 push	 ecx
  00004	c7 45 fc cc cc
	cc cc		 mov	 DWORD PTR [ebp-4], -858993460 ; ccccccccH
  0000b	89 4d fc	 mov	 DWORD PTR _this$[ebp], ecx
  0000e	8b 45 fc	 mov	 eax, DWORD PTR _this$[ebp]
  00011	8b 48 08	 mov	 ecx, DWORD PTR [eax+8]
  00014	83 c1 01	 add	 ecx, 1
  00017	8b 55 fc	 mov	 edx, DWORD PTR _this$[ebp]
  0001a	33 c0		 xor	 eax, eax
  0001c	39 4a 04	 cmp	 DWORD PTR [edx+4], ecx
  0001f	0f 94 c0	 sete	 al
  00022	8b e5		 mov	 esp, ebp
  00024	5d		 pop	 ebp
  00025	c3		 ret	 0
?IsEmptyElement@ElemPos@CMarkup@@QBE_NXZ ENDP		; CMarkup::ElemPos::IsEmptyElement
_TEXT	ENDS
EXTRN	__imp_?GetManager@?$CSimpleStringT@D$00@ATL@@QBEPAUIAtlStringMgr@2@XZ:NEAR
EXTRN	__imp_?StringLength@?$CSimpleStringT@D$00@ATL@@SAHPBD@Z:NEAR
EXTRN	__imp_?Concatenate@?$CSimpleStringT@D$00@ATL@@KAXAAV12@PBDH1H@Z:NEAR
EXTRN	__imp_??0?$CStringT@DV?$StrTraitMFC_DLL@DV?$ChTraitsCRT@D@ATL@@@@@ATL@@QAE@PAUIAtlStringMgr@1@@Z:NEAR
;	COMDAT xdata$x
; File d:\program files (x86)\microsoft visual studio .net 2003\vc7\atlmfc\include\cstringt.h
xdata$x	SEGMENT
$T188839 DD	0ffffffffH
	DD	FLAT:$L188829
$T188834 DD	019930520H
	DD	01H
	DD	FLAT:$T188839
	DD	2 DUP(00H)
	DD	2 DUP(00H)
; Function compile flags: /Odt /RTCsu
xdata$x	ENDS
;	COMDAT ??HATL@@YA?AV?$CStringT@DV?$StrTraitMFC_DLL@DV?$ChTraitsCRT@D@ATL@@@@@0@ABV10@PBD@Z
_TEXT	SEGMENT
$T188831 = -28						; size = 4
_strResult$ = -20					; size = 4
__$EHRec$ = -12						; size = 12
___$ReturnUdt$ = 8					; size = 4
_str1$ = 12						; size = 4
_psz2$ = 16						; size = 4
??HATL@@YA?AV?$CStringT@DV?$StrTraitMFC_DLL@DV?$ChTraitsCRT@D@ATL@@@@@0@ABV10@PBD@Z PROC NEAR ; ATL::operator+, COMDAT

; 2023 : 	{

  00000	55		 push	 ebp
  00001	8b ec		 mov	 ebp, esp
  00003	6a ff		 push	 -1
  00005	68 00 00 00 00	 push	 __ehhandler$??HATL@@YA?AV?$CStringT@DV?$StrTraitMFC_DLL@DV?$ChTraitsCRT@D@ATL@@@@@0@ABV10@PBD@Z
  0000a	64 a1 00 00 00
	00		 mov	 eax, DWORD PTR fs:__except_list
  00010	50		 push	 eax
  00011	64 89 25 00 00
	00 00		 mov	 DWORD PTR fs:__except_list, esp
  00018	83 ec 10	 sub	 esp, 16			; 00000010H
  0001b	56		 push	 esi
  0001c	57		 push	 edi
  0001d	b8 cc cc cc cc	 mov	 eax, -858993460		; ccccccccH
  00022	89 45 e4	 mov	 DWORD PTR [ebp-28], eax
  00025	89 45 e8	 mov	 DWORD PTR [ebp-24], eax
  00028	89 45 ec	 mov	 DWORD PTR [ebp-20], eax
  0002b	89 45 f0	 mov	 DWORD PTR [ebp-16], eax
  0002e	c7 45 e4 00 00
	00 00		 mov	 DWORD PTR $T188831[ebp], 0

; 2024 : 		CStringT strResult( str1.GetManager() );

  00035	8b f4		 mov	 esi, esp
  00037	8b 4d 0c	 mov	 ecx, DWORD PTR _str1$[ebp]
  0003a	ff 15 00 00 00
	00		 call	 DWORD PTR __imp_?GetManager@?$CSimpleStringT@D$00@ATL@@QBEPAUIAtlStringMgr@2@XZ
  00040	3b f4		 cmp	 esi, esp
  00042	e8 00 00 00 00	 call	 __RTC_CheckEsp
  00047	8b f4		 mov	 esi, esp
  00049	50		 push	 eax
  0004a	8d 4d ec	 lea	 ecx, DWORD PTR _strResult$[ebp]
  0004d	ff 15 00 00 00
	00		 call	 DWORD PTR __imp_??0?$CStringT@DV?$StrTraitMFC_DLL@DV?$ChTraitsCRT@D@ATL@@@@@ATL@@QAE@PAUIAtlStringMgr@1@@Z
  00053	3b f4		 cmp	 esi, esp
  00055	e8 00 00 00 00	 call	 __RTC_CheckEsp
  0005a	c7 45 fc 00 00
	00 00		 mov	 DWORD PTR __$EHRec$[ebp+8], 0

; 2025 : 
; 2026 : 		Concatenate( strResult, str1, str1.GetLength(), psz2, StringLength( psz2 ) );

  00061	8b f4		 mov	 esi, esp
  00063	8b 45 10	 mov	 eax, DWORD PTR _psz2$[ebp]
  00066	50		 push	 eax
  00067	ff 15 00 00 00
	00		 call	 DWORD PTR __imp_?StringLength@?$CSimpleStringT@D$00@ATL@@SAHPBD@Z
  0006d	83 c4 04	 add	 esp, 4
  00070	3b f4		 cmp	 esi, esp
  00072	e8 00 00 00 00	 call	 __RTC_CheckEsp
  00077	8b f4		 mov	 esi, esp
  00079	50		 push	 eax
  0007a	8b 4d 10	 mov	 ecx, DWORD PTR _psz2$[ebp]
  0007d	51		 push	 ecx
  0007e	8b fc		 mov	 edi, esp
  00080	8b 4d 0c	 mov	 ecx, DWORD PTR _str1$[ebp]
  00083	ff 15 00 00 00
	00		 call	 DWORD PTR __imp_?GetLength@?$CSimpleStringT@D$00@ATL@@QBEHXZ
  00089	3b fc		 cmp	 edi, esp
  0008b	e8 00 00 00 00	 call	 __RTC_CheckEsp
  00090	50		 push	 eax
  00091	8b fc		 mov	 edi, esp
  00093	8b 4d 0c	 mov	 ecx, DWORD PTR _str1$[ebp]
  00096	ff 15 00 00 00
	00		 call	 DWORD PTR __imp_??B?$CSimpleStringT@D$00@ATL@@QBEPBDXZ
  0009c	3b fc		 cmp	 edi, esp
  0009e	e8 00 00 00 00	 call	 __RTC_CheckEsp
  000a3	50		 push	 eax
  000a4	8d 55 ec	 lea	 edx, DWORD PTR _strResult$[ebp]
  000a7	52		 push	 edx
  000a8	ff 15 00 00 00
	00		 call	 DWORD PTR __imp_?Concatenate@?$CSimpleStringT@D$00@ATL@@KAXAAV12@PBDH1H@Z
  000ae	83 c4 14	 add	 esp, 20			; 00000014H
  000b1	3b f4		 cmp	 esi, esp
  000b3	e8 00 00 00 00	 call	 __RTC_CheckEsp

; 2027 : 
; 2028 : 		return( strResult );

  000b8	8b f4		 mov	 esi, esp
  000ba	8d 45 ec	 lea	 eax, DWORD PTR _strResult$[ebp]
  000bd	50		 push	 eax
  000be	8b 4d 08	 mov	 ecx, DWORD PTR ___$ReturnUdt$[ebp]
  000c1	ff 15 00 00 00
	00		 call	 DWORD PTR __imp_??0?$CStringT@DV?$StrTraitMFC_DLL@DV?$ChTraitsCRT@D@ATL@@@@@ATL@@QAE@ABV01@@Z
  000c7	3b f4		 cmp	 esi, esp
  000c9	e8 00 00 00 00	 call	 __RTC_CheckEsp
  000ce	8b 4d e4	 mov	 ecx, DWORD PTR $T188831[ebp]
  000d1	83 c9 01	 or	 ecx, 1
  000d4	89 4d e4	 mov	 DWORD PTR $T188831[ebp], ecx
  000d7	c7 45 fc ff ff
	ff ff		 mov	 DWORD PTR __$EHRec$[ebp+8], -1
  000de	8b f4		 mov	 esi, esp
  000e0	8d 4d ec	 lea	 ecx, DWORD PTR _strResult$[ebp]
  000e3	ff 15 00 00 00
	00		 call	 DWORD PTR __imp_??1?$CStringT@DV?$StrTraitMFC_DLL@DV?$ChTraitsCRT@D@ATL@@@@@ATL@@QAE@XZ
  000e9	3b f4		 cmp	 esi, esp
  000eb	e8 00 00 00 00	 call	 __RTC_CheckEsp
  000f0	8b 45 08	 mov	 eax, DWORD PTR ___$ReturnUdt$[ebp]

; 2029 : 	}

  000f3	52		 push	 edx
  000f4	8b cd		 mov	 ecx, ebp
  000f6	50		 push	 eax
  000f7	8d 15 00 00 00
	00		 lea	 edx, DWORD PTR $L188838
  000fd	e8 00 00 00 00	 call	 @_RTC_CheckStackVars@8
  00102	58		 pop	 eax
  00103	5a		 pop	 edx
  00104	8b 4d f4	 mov	 ecx, DWORD PTR __$EHRec$[ebp]
  00107	64 89 0d 00 00
	00 00		 mov	 DWORD PTR fs:__except_list, ecx
  0010e	5f		 pop	 edi
  0010f	5e		 pop	 esi
  00110	83 c4 1c	 add	 esp, 28			; 0000001cH
  00113	3b ec		 cmp	 ebp, esp
  00115	e8 00 00 00 00	 call	 __RTC_CheckEsp
  0011a	8b e5		 mov	 esp, ebp
  0011c	5d		 pop	 ebp
  0011d	c3		 ret	 0
$L188838:
  0011e	01 00 00 00	 DD	 1
  00122	00 00 00 00	 DD	 $L188837
$L188837:
  00126	ec ff ff ff	 DD	 -20			; ffffffecH
  0012a	04 00 00 00	 DD	 4
  0012e	00 00 00 00	 DD	 $L188835
$L188835:
  00132	73		 DB	 115			; 00000073H
  00133	74		 DB	 116			; 00000074H
  00134	72		 DB	 114			; 00000072H
  00135	52		 DB	 82			; 00000052H
  00136	65		 DB	 101			; 00000065H
  00137	73		 DB	 115			; 00000073H
  00138	75		 DB	 117			; 00000075H
  00139	6c		 DB	 108			; 0000006cH
  0013a	74		 DB	 116			; 00000074H
  0013b	00		 DB	 0
_TEXT	ENDS
;	COMDAT text$x
text$x	SEGMENT
$L188829:
  00000	8b f4		 mov	 esi, esp
  00002	8d 4d ec	 lea	 ecx, DWORD PTR _strResult$[ebp]
  00005	ff 15 00 00 00
	00		 call	 DWORD PTR __imp_??1?$CStringT@DV?$StrTraitMFC_DLL@DV?$ChTraitsCRT@D@ATL@@@@@ATL@@QAE@XZ
  0000b	3b f4		 cmp	 esi, esp
  0000d	e9 00 00 00 00	 jmp	 __RTC_CheckEsp
__ehhandler$??HATL@@YA?AV?$CStringT@DV?$StrTraitMFC_DLL@DV?$ChTraitsCRT@D@ATL@@@@@0@ABV10@PBD@Z:
  00012	b8 00 00 00 00	 mov	 eax, OFFSET FLAT:$T188834
  00017	e9 00 00 00 00	 jmp	 ___CxxFrameHandler
text$x	ENDS
??HATL@@YA?AV?$CStringT@DV?$StrTraitMFC_DLL@DV?$ChTraitsCRT@D@ATL@@@@@0@ABV10@PBD@Z ENDP ; ATL::operator+
;	COMDAT xdata$x
xdata$x	SEGMENT
$T188853 DD	0ffffffffH
	DD	FLAT:$L188843
$T188848 DD	019930520H
	DD	01H
	DD	FLAT:$T188853
	DD	2 DUP(00H)
	DD	2 DUP(00H)
; Function compile flags: /Odt /RTCsu
xdata$x	ENDS
;	COMDAT ??HATL@@YA?AV?$CStringT@DV?$StrTraitMFC_DLL@DV?$ChTraitsCRT@D@ATL@@@@@0@PBDABV10@@Z
_TEXT	SEGMENT
$T188845 = -28						; size = 4
_strResult$ = -20					; size = 4
__$EHRec$ = -12						; size = 12
___$ReturnUdt$ = 8					; size = 4
_psz1$ = 12						; size = 4
_str2$ = 16						; size = 4
??HATL@@YA?AV?$CStringT@DV?$StrTraitMFC_DLL@DV?$ChTraitsCRT@D@ATL@@@@@0@PBDABV10@@Z PROC NEAR ; ATL::operator+, COMDAT

; 2032 : 	{

  00000	55		 push	 ebp
  00001	8b ec		 mov	 ebp, esp
  00003	6a ff		 push	 -1
  00005	68 00 00 00 00	 push	 __ehhandler$??HATL@@YA?AV?$CStringT@DV?$StrTraitMFC_DLL@DV?$ChTraitsCRT@D@ATL@@@@@0@PBDABV10@@Z
  0000a	64 a1 00 00 00
	00		 mov	 eax, DWORD PTR fs:__except_list
  00010	50		 push	 eax
  00011	64 89 25 00 00
	00 00		 mov	 DWORD PTR fs:__except_list, esp
  00018	83 ec 10	 sub	 esp, 16			; 00000010H
  0001b	56		 push	 esi
  0001c	57		 push	 edi
  0001d	b8 cc cc cc cc	 mov	 eax, -858993460		; ccccccccH
  00022	89 45 e4	 mov	 DWORD PTR [ebp-28], eax
  00025	89 45 e8	 mov	 DWORD PTR [ebp-24], eax
  00028	89 45 ec	 mov	 DWORD PTR [ebp-20], eax
  0002b	89 45 f0	 mov	 DWORD PTR [ebp-16], eax
  0002e	c7 45 e4 00 00
	00 00		 mov	 DWORD PTR $T188845[ebp], 0

; 2033 : 		CStringT strResult( str2.GetManager() );

  00035	8b f4		 mov	 esi, esp
  00037	8b 4d 10	 mov	 ecx, DWORD PTR _str2$[ebp]
  0003a	ff 15 00 00 00
	00		 call	 DWORD PTR __imp_?GetManager@?$CSimpleStringT@D$00@ATL@@QBEPAUIAtlStringMgr@2@XZ
  00040	3b f4		 cmp	 esi, esp
  00042	e8 00 00 00 00	 call	 __RTC_CheckEsp
  00047	8b f4		 mov	 esi, esp
  00049	50		 push	 eax
  0004a	8d 4d ec	 lea	 ecx, DWORD PTR _strResult$[ebp]
  0004d	ff 15 00 00 00
	00		 call	 DWORD PTR __imp_??0?$CStringT@DV?$StrTraitMFC_DLL@DV?$ChTraitsCRT@D@ATL@@@@@ATL@@QAE@PAUIAtlStringMgr@1@@Z
  00053	3b f4		 cmp	 esi, esp
  00055	e8 00 00 00 00	 call	 __RTC_CheckEsp
  0005a	c7 45 fc 00 00
	00 00		 mov	 DWORD PTR __$EHRec$[ebp+8], 0

; 2034 : 
; 2035 : 		Concatenate( strResult, psz1, StringLength( psz1 ), str2, str2.GetLength() );

  00061	8b f4		 mov	 esi, esp
  00063	8b 4d 10	 mov	 ecx, DWORD PTR _str2$[ebp]
  00066	ff 15 00 00 00
	00		 call	 DWORD PTR __imp_?GetLength@?$CSimpleStringT@D$00@ATL@@QBEHXZ
  0006c	3b f4		 cmp	 esi, esp
  0006e	e8 00 00 00 00	 call	 __RTC_CheckEsp
  00073	8b f4		 mov	 esi, esp
  00075	50		 push	 eax
  00076	8b fc		 mov	 edi, esp
  00078	8b 4d 10	 mov	 ecx, DWORD PTR _str2$[ebp]
  0007b	ff 15 00 00 00
	00		 call	 DWORD PTR __imp_??B?$CSimpleStringT@D$00@ATL@@QBEPBDXZ
  00081	3b fc		 cmp	 edi, esp
  00083	e8 00 00 00 00	 call	 __RTC_CheckEsp
  00088	50		 push	 eax
  00089	8b fc		 mov	 edi, esp
  0008b	8b 45 0c	 mov	 eax, DWORD PTR _psz1$[ebp]
  0008e	50		 push	 eax
  0008f	ff 15 00 00 00
	00		 call	 DWORD PTR __imp_?StringLength@?$CSimpleStringT@D$00@ATL@@SAHPBD@Z
  00095	83 c4 04	 add	 esp, 4
  00098	3b fc		 cmp	 edi, esp
  0009a	e8 00 00 00 00	 call	 __RTC_CheckEsp
  0009f	50		 push	 eax
  000a0	8b 4d 0c	 mov	 ecx, DWORD PTR _psz1$[ebp]
  000a3	51		 push	 ecx
  000a4	8d 55 ec	 lea	 edx, DWORD PTR _strResult$[ebp]
  000a7	52		 push	 edx
  000a8	ff 15 00 00 00
	00		 call	 DWORD PTR __imp_?Concatenate@?$CSimpleStringT@D$00@ATL@@KAXAAV12@PBDH1H@Z
  000ae	83 c4 14	 add	 esp, 20			; 00000014H
  000b1	3b f4		 cmp	 esi, esp
  000b3	e8 00 00 00 00	 call	 __RTC_CheckEsp

; 2036 : 
; 2037 : 		return( strResult );

  000b8	8b f4		 mov	 esi, esp
  000ba	8d 45 ec	 lea	 eax, DWORD PTR _strResult$[ebp]
  000bd	50		 push	 eax
  000be	8b 4d 08	 mov	 ecx, DWORD PTR ___$ReturnUdt$[ebp]
  000c1	ff 15 00 00 00
	00		 call	 DWORD PTR __imp_??0?$CStringT@DV?$StrTraitMFC_DLL@DV?$ChTraitsCRT@D@ATL@@@@@ATL@@QAE@ABV01@@Z
  000c7	3b f4		 cmp	 esi, esp
  000c9	e8 00 00 00 00	 call	 __RTC_CheckEsp
  000ce	8b 4d e4	 mov	 ecx, DWORD PTR $T188845[ebp]
  000d1	83 c9 01	 or	 ecx, 1
  000d4	89 4d e4	 mov	 DWORD PTR $T188845[ebp], ecx
  000d7	c7 45 fc ff ff
	ff ff		 mov	 DWORD PTR __$EHRec$[ebp+8], -1
  000de	8b f4		 mov	 esi, esp
  000e0	8d 4d ec	 lea	 ecx, DWORD PTR _strResult$[ebp]
  000e3	ff 15 00 00 00
	00		 call	 DWORD PTR __imp_??1?$CStringT@DV?$StrTraitMFC_DLL@DV?$ChTraitsCRT@D@ATL@@@@@ATL@@QAE@XZ
  000e9	3b f4		 cmp	 esi, esp
  000eb	e8 00 00 00 00	 call	 __RTC_CheckEsp
  000f0	8b 45 08	 mov	 eax, DWORD PTR ___$ReturnUdt$[ebp]

; 2038 : 	}

  000f3	52		 push	 edx
  000f4	8b cd		 mov	 ecx, ebp
  000f6	50		 push	 eax
  000f7	8d 15 00 00 00
	00		 lea	 edx, DWORD PTR $L188852
  000fd	e8 00 00 00 00	 call	 @_RTC_CheckStackVars@8
  00102	58		 pop	 eax
  00103	5a		 pop	 edx
  00104	8b 4d f4	 mov	 ecx, DWORD PTR __$EHRec$[ebp]
  00107	64 89 0d 00 00
	00 00		 mov	 DWORD PTR fs:__except_list, ecx
  0010e	5f		 pop	 edi
  0010f	5e		 pop	 esi
  00110	83 c4 1c	 add	 esp, 28			; 0000001cH
  00113	3b ec		 cmp	 ebp, esp
  00115	e8 00 00 00 00	 call	 __RTC_CheckEsp
  0011a	8b e5		 mov	 esp, ebp
  0011c	5d		 pop	 ebp
  0011d	c3		 ret	 0
$L188852:
  0011e	01 00 00 00	 DD	 1
  00122	00 00 00 00	 DD	 $L188851
$L188851:
  00126	ec ff ff ff	 DD	 -20			; ffffffecH
  0012a	04 00 00 00	 DD	 4
  0012e	00 00 00 00	 DD	 $L188849
$L188849:
  00132	73		 DB	 115			; 00000073H
  00133	74		 DB	 116			; 00000074H
  00134	72		 DB	 114			; 00000072H
  00135	52		 DB	 82			; 00000052H
  00136	65		 DB	 101			; 00000065H
  00137	73		 DB	 115			; 00000073H
  00138	75		 DB	 117			; 00000075H
  00139	6c		 DB	 108			; 0000006cH
  0013a	74		 DB	 116			; 00000074H
  0013b	00		 DB	 0
_TEXT	ENDS
;	COMDAT text$x
text$x	SEGMENT
$L188843:
  00000	8b f4		 mov	 esi, esp
  00002	8d 4d ec	 lea	 ecx, DWORD PTR _strResult$[ebp]
  00005	ff 15 00 00 00
	00		 call	 DWORD PTR __imp_??1?$CStringT@DV?$StrTraitMFC_DLL@DV?$ChTraitsCRT@D@ATL@@@@@ATL@@QAE@XZ
  0000b	3b f4		 cmp	 esi, esp
  0000d	e9 00 00 00 00	 jmp	 __RTC_CheckEsp
__ehhandler$??HATL@@YA?AV?$CStringT@DV?$StrTraitMFC_DLL@DV?$ChTraitsCRT@D@ATL@@@@@0@PBDABV10@@Z:
  00012	b8 00 00 00 00	 mov	 eax, OFFSET FLAT:$T188848
  00017	e9 00 00 00 00	 jmp	 ___CxxFrameHandler
text$x	ENDS
??HATL@@YA?AV?$CStringT@DV?$StrTraitMFC_DLL@DV?$ChTraitsCRT@D@ATL@@@@@0@PBDABV10@@Z ENDP ; ATL::operator+
EXTRN	__imp_?Compare@?$CStringT@DV?$StrTraitMFC_DLL@DV?$ChTraitsCRT@D@ATL@@@@@ATL@@QBEHPBD@Z:NEAR
; Function compile flags: /Odt /RTCsu
;	COMDAT ??8ATL@@YA_NABV?$CStringT@DV?$StrTraitMFC_DLL@DV?$ChTraitsCRT@D@ATL@@@@@0@0@Z
_TEXT	SEGMENT
_str1$ = 8						; size = 4
_str2$ = 12						; size = 4
??8ATL@@YA_NABV?$CStringT@DV?$StrTraitMFC_DLL@DV?$ChTraitsCRT@D@ATL@@@@@0@0@Z PROC NEAR ; ATL::operator==, COMDAT

; 2081 : 	{

  00000	55		 push	 ebp
  00001	8b ec		 mov	 ebp, esp
  00003	56		 push	 esi

; 2082 : 		return( str1.Compare( str2 ) == 0 );

  00004	8b f4		 mov	 esi, esp
  00006	8b 4d 0c	 mov	 ecx, DWORD PTR _str2$[ebp]
  00009	ff 15 00 00 00
	00		 call	 DWORD PTR __imp_??B?$CSimpleStringT@D$00@ATL@@QBEPBDXZ
  0000f	3b f4		 cmp	 esi, esp
  00011	e8 00 00 00 00	 call	 __RTC_CheckEsp
  00016	8b f4		 mov	 esi, esp
  00018	50		 push	 eax
  00019	8b 4d 08	 mov	 ecx, DWORD PTR _str1$[ebp]
  0001c	ff 15 00 00 00
	00		 call	 DWORD PTR __imp_?Compare@?$CStringT@DV?$StrTraitMFC_DLL@DV?$ChTraitsCRT@D@ATL@@@@@ATL@@QBEHPBD@Z
  00022	3b f4		 cmp	 esi, esp
  00024	e8 00 00 00 00	 call	 __RTC_CheckEsp
  00029	f7 d8		 neg	 eax
  0002b	1b c0		 sbb	 eax, eax
  0002d	40		 inc	 eax

; 2083 : 	}

  0002e	5e		 pop	 esi
  0002f	3b ec		 cmp	 ebp, esp
  00031	e8 00 00 00 00	 call	 __RTC_CheckEsp
  00036	5d		 pop	 ebp
  00037	c3		 ret	 0
??8ATL@@YA_NABV?$CStringT@DV?$StrTraitMFC_DLL@DV?$ChTraitsCRT@D@ATL@@@@@0@0@Z ENDP ; ATL::operator==
; Function compile flags: /Odt /RTCsu
_TEXT	ENDS
;	COMDAT ??8ATL@@YA_NABV?$CStringT@DV?$StrTraitMFC_DLL@DV?$ChTraitsCRT@D@ATL@@@@@0@PBD@Z
_TEXT	SEGMENT
_str1$ = 8						; size = 4
_psz2$ = 12						; size = 4
??8ATL@@YA_NABV?$CStringT@DV?$StrTraitMFC_DLL@DV?$ChTraitsCRT@D@ATL@@@@@0@PBD@Z PROC NEAR ; ATL::operator==, COMDAT

; 2087 : 	{

  00000	55		 push	 ebp
  00001	8b ec		 mov	 ebp, esp
  00003	56		 push	 esi

; 2088 : 		return( str1.Compare( psz2 ) == 0 );

  00004	8b f4		 mov	 esi, esp
  00006	8b 45 0c	 mov	 eax, DWORD PTR _psz2$[ebp]
  00009	50		 push	 eax
  0000a	8b 4d 08	 mov	 ecx, DWORD PTR _str1$[ebp]
  0000d	ff 15 00 00 00
	00		 call	 DWORD PTR __imp_?Compare@?$CStringT@DV?$StrTraitMFC_DLL@DV?$ChTraitsCRT@D@ATL@@@@@ATL@@QBEHPBD@Z
  00013	3b f4		 cmp	 esi, esp
  00015	e8 00 00 00 00	 call	 __RTC_CheckEsp
  0001a	f7 d8		 neg	 eax
  0001c	1b c0		 sbb	 eax, eax
  0001e	40		 inc	 eax

; 2089 : 	}

  0001f	5e		 pop	 esi
  00020	3b ec		 cmp	 ebp, esp
  00022	e8 00 00 00 00	 call	 __RTC_CheckEsp
  00027	5d		 pop	 ebp
  00028	c3		 ret	 0
??8ATL@@YA_NABV?$CStringT@DV?$StrTraitMFC_DLL@DV?$ChTraitsCRT@D@ATL@@@@@0@PBD@Z ENDP ; ATL::operator==
; Function compile flags: /Odt /RTCsu
_TEXT	ENDS
;	COMDAT ??9ATL@@YA_NABV?$CStringT@DV?$StrTraitMFC_DLL@DV?$ChTraitsCRT@D@ATL@@@@@0@PBD@Z
_TEXT	SEGMENT
_str1$ = 8						; size = 4
_psz2$ = 12						; size = 4
??9ATL@@YA_NABV?$CStringT@DV?$StrTraitMFC_DLL@DV?$ChTraitsCRT@D@ATL@@@@@0@PBD@Z PROC NEAR ; ATL::operator!=, COMDAT

; 2121 : 	{

  00000	55		 push	 ebp
  00001	8b ec		 mov	 ebp, esp
  00003	56		 push	 esi

; 2122 : 		return( str1.Compare( psz2 ) != 0 );

  00004	8b f4		 mov	 esi, esp
  00006	8b 45 0c	 mov	 eax, DWORD PTR _psz2$[ebp]
  00009	50		 push	 eax
  0000a	8b 4d 08	 mov	 ecx, DWORD PTR _str1$[ebp]
  0000d	ff 15 00 00 00
	00		 call	 DWORD PTR __imp_?Compare@?$CStringT@DV?$StrTraitMFC_DLL@DV?$ChTraitsCRT@D@ATL@@@@@ATL@@QBEHPBD@Z
  00013	3b f4		 cmp	 esi, esp
  00015	e8 00 00 00 00	 call	 __RTC_CheckEsp
  0001a	f7 d8		 neg	 eax
  0001c	1b c0		 sbb	 eax, eax
  0001e	f7 d8		 neg	 eax

; 2123 : 	}

  00020	5e		 pop	 esi
  00021	3b ec		 cmp	 ebp, esp
  00023	e8 00 00 00 00	 call	 __RTC_CheckEsp
  00028	5d		 pop	 ebp
  00029	c3		 ret	 0
??9ATL@@YA_NABV?$CStringT@DV?$StrTraitMFC_DLL@DV?$ChTraitsCRT@D@ATL@@@@@0@PBD@Z ENDP ; ATL::operator!=
; Function compile flags: /Odt /RTCsu
; File d:\program files (x86)\microsoft visual studio .net 2003\vc7\atlmfc\include\afxtempl.h
_TEXT	ENDS
;	COMDAT ?GetSize@?$CArray@UElemPos@CMarkup@@AAU12@@@QBEHXZ
_TEXT	SEGMENT
_this$ = -4						; size = 4
?GetSize@?$CArray@UElemPos@CMarkup@@AAU12@@@QBEHXZ PROC NEAR ; CArray<CMarkup::ElemPos,CMarkup::ElemPos &>::GetSize, COMDAT
; _this$ = ecx

; 272  : 	{ return m_nSize; }

  00000	55		 push	 ebp
  00001	8b ec		 mov	 ebp, esp
  00003	51		 push	 ecx
  00004	c7 45 fc cc cc
	cc cc		 mov	 DWORD PTR [ebp-4], -858993460 ; ccccccccH
  0000b	89 4d fc	 mov	 DWORD PTR _this$[ebp], ecx
  0000e	8b 45 fc	 mov	 eax, DWORD PTR _this$[ebp]
  00011	8b 40 08	 mov	 eax, DWORD PTR [eax+8]
  00014	8b e5		 mov	 esp, ebp
  00016	5d		 pop	 ebp
  00017	c3		 ret	 0
?GetSize@?$CArray@UElemPos@CMarkup@@AAU12@@@QBEHXZ ENDP	; CArray<CMarkup::ElemPos,CMarkup::ElemPos &>::GetSize
_TEXT	ENDS
PUBLIC	?ElementAt@?$CArray@UElemPos@CMarkup@@AAU12@@@QAEAAUElemPos@CMarkup@@H@Z ; CArray<CMarkup::ElemPos,CMarkup::ElemPos &>::ElementAt
; Function compile flags: /Odt /RTCsu
;	COMDAT ??A?$CArray@UElemPos@CMarkup@@AAU12@@@QAEAAUElemPos@CMarkup@@H@Z
_TEXT	SEGMENT
_this$ = -4						; size = 4
_nIndex$ = 8						; size = 4
??A?$CArray@UElemPos@CMarkup@@AAU12@@@QAEAAUElemPos@CMarkup@@H@Z PROC NEAR ; CArray<CMarkup::ElemPos,CMarkup::ElemPos &>::operator[], COMDAT
; _this$ = ecx

; 342  : 	{ return ElementAt(nIndex); }

  00000	55		 push	 ebp
  00001	8b ec		 mov	 ebp, esp
  00003	51		 push	 ecx
  00004	c7 45 fc cc cc
	cc cc		 mov	 DWORD PTR [ebp-4], -858993460 ; ccccccccH
  0000b	89 4d fc	 mov	 DWORD PTR _this$[ebp], ecx
  0000e	8b 45 08	 mov	 eax, DWORD PTR _nIndex$[ebp]
  00011	50		 push	 eax
  00012	8b 4d fc	 mov	 ecx, DWORD PTR _this$[ebp]
  00015	e8 00 00 00 00	 call	 ?ElementAt@?$CArray@UElemPos@CMarkup@@AAU12@@@QAEAAUElemPos@CMarkup@@H@Z ; CArray<CMarkup::ElemPos,CMarkup::ElemPos &>::ElementAt
  0001a	83 c4 04	 add	 esp, 4
  0001d	3b ec		 cmp	 ebp, esp
  0001f	e8 00 00 00 00	 call	 __RTC_CheckEsp
  00024	8b e5		 mov	 esp, ebp
  00026	5d		 pop	 ebp
  00027	c2 04 00	 ret	 4
??A?$CArray@UElemPos@CMarkup@@AAU12@@@QAEAAUElemPos@CMarkup@@H@Z ENDP ; CArray<CMarkup::ElemPos,CMarkup::ElemPos &>::operator[]
_TEXT	ENDS
PUBLIC	??_R1A@?0A@A@CObject@@8				; CObject::`RTTI Base Class Descriptor at (0,-1,0,0)'
PUBLIC	??_R0?AVCObject@@@8				; CObject `RTTI Type Descriptor'
PUBLIC	?Serialize@?$CArray@UElemPos@CMarkup@@AAU12@@@UAEXAAVCArchive@@@Z ; CArray<CMarkup::ElemPos,CMarkup::ElemPos &>::Serialize
PUBLIC	?Dump@?$CArray@UElemPos@CMarkup@@AAU12@@@UBEXAAVCDumpContext@@@Z ; CArray<CMarkup::ElemPos,CMarkup::ElemPos &>::Dump
PUBLIC	?AssertValid@?$CArray@UElemPos@CMarkup@@AAU12@@@UBEXXZ ; CArray<CMarkup::ElemPos,CMarkup::ElemPos &>::AssertValid
PUBLIC	??_7?$CArray@UElemPos@CMarkup@@AAU12@@@6B@	; CArray<CMarkup::ElemPos,CMarkup::ElemPos &>::`vftable'
PUBLIC	??_G?$CArray@UElemPos@CMarkup@@AAU12@@@UAEPAXI@Z ; CArray<CMarkup::ElemPos,CMarkup::ElemPos &>::`scalar deleting destructor'
PUBLIC	??_R4?$CArray@UElemPos@CMarkup@@AAU12@@@6B@	; CArray<CMarkup::ElemPos,CMarkup::ElemPos &>::`RTTI Complete Object Locator'
PUBLIC	??_R0?AV?$CArray@UElemPos@CMarkup@@AAU12@@@@8	; CArray<CMarkup::ElemPos,CMarkup::ElemPos &> `RTTI Type Descriptor'
PUBLIC	??_R3?$CArray@UElemPos@CMarkup@@AAU12@@@8	; CArray<CMarkup::ElemPos,CMarkup::ElemPos &>::`RTTI Class Hierarchy Descriptor'
PUBLIC	??_R2?$CArray@UElemPos@CMarkup@@AAU12@@@8	; CArray<CMarkup::ElemPos,CMarkup::ElemPos &>::`RTTI Base Class Array'
PUBLIC	??_R1A@?0A@A@?$CArray@UElemPos@CMarkup@@AAU12@@@8 ; CArray<CMarkup::ElemPos,CMarkup::ElemPos &>::`RTTI Base Class Descriptor at (0,-1,0,0)'
EXTRN	?AfxAssertValidObject@@YGXPBVCObject@@PBDH@Z:NEAR ; AfxAssertValidObject
EXTRN	?GetRuntimeClass@CObject@@UBEPAUCRuntimeClass@@XZ:NEAR ; CObject::GetRuntimeClass
EXTRN	??1CObject@@UAE@XZ:NEAR				; CObject::~CObject
EXTRN	??_E?$CArray@UElemPos@CMarkup@@AAU12@@@UAEPAXI@Z:NEAR ; CArray<CMarkup::ElemPos,CMarkup::ElemPos &>::`vector deleting destructor'
;	COMDAT xdata$x
xdata$x	SEGMENT
$T188867 DD	0ffffffffH
	DD	FLAT:$L188863
$T188865 DD	019930520H
	DD	01H
	DD	FLAT:$T188867
	DD	2 DUP(00H)
	DD	2 DUP(00H)
xdata$x	ENDS
;	COMDAT ??_7?$CArray@UElemPos@CMarkup@@AAU12@@@6B@
CONST	SEGMENT
??_7?$CArray@UElemPos@CMarkup@@AAU12@@@6B@ DD FLAT:??_R4?$CArray@UElemPos@CMarkup@@AAU12@@@6B@ ; CArray<CMarkup::ElemPos,CMarkup::ElemPos &>::`vftable'
	DD	FLAT:?GetRuntimeClass@CObject@@UBEPAUCRuntimeClass@@XZ
	DD	FLAT:??_E?$CArray@UElemPos@CMarkup@@AAU12@@@UAEPAXI@Z
	DD	FLAT:?Serialize@?$CArray@UElemPos@CMarkup@@AAU12@@@UAEXAAVCArchive@@@Z
	DD	FLAT:?AssertValid@?$CArray@UElemPos@CMarkup@@AAU12@@@UBEXXZ
	DD	FLAT:?Dump@?$CArray@UElemPos@CMarkup@@AAU12@@@UBEXAAVCDumpContext@@@Z
CONST	ENDS
;	COMDAT ??_R4?$CArray@UElemPos@CMarkup@@AAU12@@@6B@
rdata$r	SEGMENT
??_R4?$CArray@UElemPos@CMarkup@@AAU12@@@6B@ DD 00H	; CArray<CMarkup::ElemPos,CMarkup::ElemPos &>::`RTTI Complete Object Locator'
	DD	00H
	DD	00H
	DD	FLAT:??_R0?AV?$CArray@UElemPos@CMarkup@@AAU12@@@@8
	DD	FLAT:??_R3?$CArray@UElemPos@CMarkup@@AAU12@@@8
rdata$r	ENDS
;	COMDAT ??_R0?AV?$CArray@UElemPos@CMarkup@@AAU12@@@@8
_DATA	SEGMENT
??_R0?AV?$CArray@UElemPos@CMarkup@@AAU12@@@@8 DD FLAT:??_7type_info@@6B@ ; CArray<CMarkup::ElemPos,CMarkup::ElemPos &> `RTTI Type Descriptor'
	DD	00H
	DB	'.?AV?$CArray@UElemPos@CMarkup@@AAU12@@@', 00H
_DATA	ENDS
;	COMDAT ??_R3?$CArray@UElemPos@CMarkup@@AAU12@@@8
rdata$r	SEGMENT
??_R3?$CArray@UElemPos@CMarkup@@AAU12@@@8 DD 00H	; CArray<CMarkup::ElemPos,CMarkup::ElemPos &>::`RTTI Class Hierarchy Descriptor'
	DD	00H
	DD	02H
	DD	FLAT:??_R2?$CArray@UElemPos@CMarkup@@AAU12@@@8
rdata$r	ENDS
;	COMDAT ??_R2?$CArray@UElemPos@CMarkup@@AAU12@@@8
rdata$r	SEGMENT
??_R2?$CArray@UElemPos@CMarkup@@AAU12@@@8 DD FLAT:??_R1A@?0A@A@?$CArray@UElemPos@CMarkup@@AAU12@@@8 ; CArray<CMarkup::ElemPos,CMarkup::ElemPos &>::`RTTI Base Class Array'
	DD	FLAT:??_R1A@?0A@A@CObject@@8
rdata$r	ENDS
;	COMDAT ??_R1A@?0A@A@?$CArray@UElemPos@CMarkup@@AAU12@@@8
rdata$r	SEGMENT
??_R1A@?0A@A@?$CArray@UElemPos@CMarkup@@AAU12@@@8 DD FLAT:??_R0?AV?$CArray@UElemPos@CMarkup@@AAU12@@@@8 ; CArray<CMarkup::ElemPos,CMarkup::ElemPos &>::`RTTI Base Class Descriptor at (0,-1,0,0)'
	DD	01H
	DD	00H
	DD	0ffffffffH
	DD	00H
	DD	00H
rdata$r	ENDS
;	COMDAT ??_R1A@?0A@A@CObject@@8
rdata$r	SEGMENT
??_R1A@?0A@A@CObject@@8 DD FLAT:??_R0?AVCObject@@@8	; CObject::`RTTI Base Class Descriptor at (0,-1,0,0)'
	DD	00H
	DD	00H
	DD	0ffffffffH
	DD	00H
	DD	00H
rdata$r	ENDS
;	COMDAT ??_R0?AVCObject@@@8
_DATA	SEGMENT
??_R0?AVCObject@@@8 DD FLAT:??_7type_info@@6B@		; CObject `RTTI Type Descriptor'
	DD	00H
	DB	'.?AVCObject@@', 00H
; Function compile flags: /Odt /RTCsu
_DATA	ENDS
;	COMDAT ??1?$CArray@UElemPos@CMarkup@@AAU12@@@UAE@XZ
_TEXT	SEGMENT
$T188862 = -24						; size = 4
_i$188002 = -20						; size = 4
_this$ = -16						; size = 4
__$EHRec$ = -12						; size = 12
??1?$CArray@UElemPos@CMarkup@@AAU12@@@UAE@XZ PROC NEAR	; CArray<CMarkup::ElemPos,CMarkup::ElemPos &>::~CArray<CMarkup::ElemPos,CMarkup::ElemPos &>, COMDAT
; _this$ = ecx

; 356  : {

  00000	55		 push	 ebp
  00001	8b ec		 mov	 ebp, esp
  00003	6a ff		 push	 -1
  00005	68 00 00 00 00	 push	 __ehhandler$??1?$CArray@UElemPos@CMarkup@@AAU12@@@UAE@XZ
  0000a	64 a1 00 00 00
	00		 mov	 eax, DWORD PTR fs:__except_list
  00010	50		 push	 eax
  00011	64 89 25 00 00
	00 00		 mov	 DWORD PTR fs:__except_list, esp
  00018	83 ec 0c	 sub	 esp, 12			; 0000000cH
  0001b	c7 45 e8 cc cc
	cc cc		 mov	 DWORD PTR [ebp-24], -858993460 ; ccccccccH
  00022	c7 45 ec cc cc
	cc cc		 mov	 DWORD PTR [ebp-20], -858993460 ; ccccccccH
  00029	c7 45 f0 cc cc
	cc cc		 mov	 DWORD PTR [ebp-16], -858993460 ; ccccccccH
  00030	89 4d f0	 mov	 DWORD PTR _this$[ebp], ecx
  00033	8b 45 f0	 mov	 eax, DWORD PTR _this$[ebp]
  00036	c7 00 00 00 00
	00		 mov	 DWORD PTR [eax], OFFSET FLAT:??_7?$CArray@UElemPos@CMarkup@@AAU12@@@6B@
  0003c	c7 45 fc 00 00
	00 00		 mov	 DWORD PTR __$EHRec$[ebp+8], 0

; 357  : 	ASSERT_VALID(this);

  00043	68 65 01 00 00	 push	 357			; 00000165H
  00048	68 00 00 00 00	 push	 OFFSET FLAT:$SG188000
  0004d	8b 4d f0	 mov	 ecx, DWORD PTR _this$[ebp]
  00050	51		 push	 ecx
  00051	e8 00 00 00 00	 call	 ?AfxAssertValidObject@@YGXPBVCObject@@PBDH@Z ; AfxAssertValidObject

; 358  : 
; 359  : 	if (m_pData != NULL)

  00056	8b 55 f0	 mov	 edx, DWORD PTR _this$[ebp]
  00059	83 7a 04 00	 cmp	 DWORD PTR [edx+4], 0
  0005d	74 34		 je	 SHORT $L187999

; 360  : 	{
; 361  : 		for( int i = 0; i < m_nSize; i++ )

  0005f	c7 45 ec 00 00
	00 00		 mov	 DWORD PTR _i$188002[ebp], 0
  00066	eb 09		 jmp	 SHORT $L188003
$L188004:
  00068	8b 45 ec	 mov	 eax, DWORD PTR _i$188002[ebp]
  0006b	83 c0 01	 add	 eax, 1
  0006e	89 45 ec	 mov	 DWORD PTR _i$188002[ebp], eax
$L188003:
  00071	8b 4d f0	 mov	 ecx, DWORD PTR _this$[ebp]
  00074	8b 55 ec	 mov	 edx, DWORD PTR _i$188002[ebp]
  00077	3b 51 08	 cmp	 edx, DWORD PTR [ecx+8]
  0007a	7d 02		 jge	 SHORT $L188005

; 362  : 			(m_pData + i)->~TYPE();

  0007c	eb ea		 jmp	 SHORT $L188004
$L188005:

; 363  : 		delete[] (BYTE*)m_pData;

  0007e	8b 45 f0	 mov	 eax, DWORD PTR _this$[ebp]
  00081	8b 48 04	 mov	 ecx, DWORD PTR [eax+4]
  00084	89 4d e8	 mov	 DWORD PTR $T188862[ebp], ecx
  00087	8b 55 e8	 mov	 edx, DWORD PTR $T188862[ebp]
  0008a	52		 push	 edx
  0008b	e8 00 00 00 00	 call	 ??_V@YAXPAX@Z		; operator delete[]
  00090	83 c4 04	 add	 esp, 4
$L187999:

; 364  : 	}
; 365  : }

  00093	c7 45 fc ff ff
	ff ff		 mov	 DWORD PTR __$EHRec$[ebp+8], -1
  0009a	8b 4d f0	 mov	 ecx, DWORD PTR _this$[ebp]
  0009d	e8 00 00 00 00	 call	 ??1CObject@@UAE@XZ	; CObject::~CObject
  000a2	8b 4d f4	 mov	 ecx, DWORD PTR __$EHRec$[ebp]
  000a5	64 89 0d 00 00
	00 00		 mov	 DWORD PTR fs:__except_list, ecx
  000ac	83 c4 18	 add	 esp, 24			; 00000018H
  000af	3b ec		 cmp	 ebp, esp
  000b1	e8 00 00 00 00	 call	 __RTC_CheckEsp
  000b6	8b e5		 mov	 esp, ebp
  000b8	5d		 pop	 ebp
  000b9	c3		 ret	 0
_TEXT	ENDS
;	COMDAT text$x
text$x	SEGMENT
$L188863:
  00000	8b 4d f0	 mov	 ecx, DWORD PTR _this$[ebp]
  00003	e9 00 00 00 00	 jmp	 ??1CObject@@UAE@XZ	; CObject::~CObject
__ehhandler$??1?$CArray@UElemPos@CMarkup@@AAU12@@@UAE@XZ:
  00008	b8 00 00 00 00	 mov	 eax, OFFSET FLAT:$T188865
  0000d	e9 00 00 00 00	 jmp	 ___CxxFrameHandler
text$x	ENDS
??1?$CArray@UElemPos@CMarkup@@AAU12@@@UAE@XZ ENDP	; CArray<CMarkup::ElemPos,CMarkup::ElemPos &>::~CArray<CMarkup::ElemPos,CMarkup::ElemPos &>
PUBLIC	??$SerializeElements@UElemPos@CMarkup@@@@YGXAAVCArchive@@PAUElemPos@CMarkup@@H@Z ; SerializeElements<CMarkup::ElemPos>
PUBLIC	?SetSize@?$CArray@UElemPos@CMarkup@@AAU12@@@QAEXHH@Z ; CArray<CMarkup::ElemPos,CMarkup::ElemPos &>::SetSize
EXTRN	?Serialize@CObject@@UAEXAAVCArchive@@@Z:NEAR	; CObject::Serialize
EXTRN	?IsStoring@CArchive@@QBEHXZ:NEAR		; CArchive::IsStoring
EXTRN	?ReadCount@CArchive@@QAEKXZ:NEAR		; CArchive::ReadCount
EXTRN	?WriteCount@CArchive@@QAEXK@Z:NEAR		; CArchive::WriteCount
; Function compile flags: /Odt /RTCsu
;	COMDAT ?Serialize@?$CArray@UElemPos@CMarkup@@AAU12@@@UAEXAAVCArchive@@@Z
_TEXT	SEGMENT
_nOldSize$188017 = -8					; size = 4
_this$ = -4						; size = 4
_ar$ = 8						; size = 4
?Serialize@?$CArray@UElemPos@CMarkup@@AAU12@@@UAEXAAVCArchive@@@Z PROC NEAR ; CArray<CMarkup::ElemPos,CMarkup::ElemPos &>::Serialize, COMDAT
; _this$ = ecx

; 629  : {

  00000	55		 push	 ebp
  00001	8b ec		 mov	 ebp, esp
  00003	83 ec 08	 sub	 esp, 8
  00006	c7 45 f8 cc cc
	cc cc		 mov	 DWORD PTR [ebp-8], -858993460 ; ccccccccH
  0000d	c7 45 fc cc cc
	cc cc		 mov	 DWORD PTR [ebp-4], -858993460 ; ccccccccH
  00014	89 4d fc	 mov	 DWORD PTR _this$[ebp], ecx

; 630  : 	ASSERT_VALID(this);

  00017	68 76 02 00 00	 push	 630			; 00000276H
  0001c	68 00 00 00 00	 push	 OFFSET FLAT:$SG188014
  00021	8b 45 fc	 mov	 eax, DWORD PTR _this$[ebp]
  00024	50		 push	 eax
  00025	e8 00 00 00 00	 call	 ?AfxAssertValidObject@@YGXPBVCObject@@PBDH@Z ; AfxAssertValidObject

; 631  : 
; 632  : 	CObject::Serialize(ar);

  0002a	8b 4d 08	 mov	 ecx, DWORD PTR _ar$[ebp]
  0002d	51		 push	 ecx
  0002e	8b 4d fc	 mov	 ecx, DWORD PTR _this$[ebp]
  00031	e8 00 00 00 00	 call	 ?Serialize@CObject@@UAEXAAVCArchive@@@Z ; CObject::Serialize

; 633  : 	if (ar.IsStoring())

  00036	8b 4d 08	 mov	 ecx, DWORD PTR _ar$[ebp]
  00039	e8 00 00 00 00	 call	 ?IsStoring@CArchive@@QBEHXZ ; CArchive::IsStoring
  0003e	85 c0		 test	 eax, eax
  00040	74 11		 je	 SHORT $L188015

; 634  : 	{
; 635  : 		ar.WriteCount(m_nSize);

  00042	8b 55 fc	 mov	 edx, DWORD PTR _this$[ebp]
  00045	8b 42 08	 mov	 eax, DWORD PTR [edx+8]
  00048	50		 push	 eax
  00049	8b 4d 08	 mov	 ecx, DWORD PTR _ar$[ebp]
  0004c	e8 00 00 00 00	 call	 ?WriteCount@CArchive@@QAEXK@Z ; CArchive::WriteCount

; 636  : 	}
; 637  : 	else

  00051	eb 19		 jmp	 SHORT $L188016
$L188015:

; 638  : 	{
; 639  : 		DWORD_PTR nOldSize = ar.ReadCount();

  00053	8b 4d 08	 mov	 ecx, DWORD PTR _ar$[ebp]
  00056	e8 00 00 00 00	 call	 ?ReadCount@CArchive@@QAEKXZ ; CArchive::ReadCount
  0005b	89 45 f8	 mov	 DWORD PTR _nOldSize$188017[ebp], eax

; 640  : 		SetSize(nOldSize, -1);

  0005e	6a ff		 push	 -1
  00060	8b 4d f8	 mov	 ecx, DWORD PTR _nOldSize$188017[ebp]
  00063	51		 push	 ecx
  00064	8b 4d fc	 mov	 ecx, DWORD PTR _this$[ebp]
  00067	e8 00 00 00 00	 call	 ?SetSize@?$CArray@UElemPos@CMarkup@@AAU12@@@QAEXHH@Z ; CArray<CMarkup::ElemPos,CMarkup::ElemPos &>::SetSize
$L188016:

; 641  : 	}
; 642  : 	SerializeElements<TYPE>(ar, m_pData, m_nSize);

  0006c	8b 55 fc	 mov	 edx, DWORD PTR _this$[ebp]
  0006f	8b 42 08	 mov	 eax, DWORD PTR [edx+8]
  00072	50		 push	 eax
  00073	8b 4d fc	 mov	 ecx, DWORD PTR _this$[ebp]
  00076	8b 51 04	 mov	 edx, DWORD PTR [ecx+4]
  00079	52		 push	 edx
  0007a	8b 45 08	 mov	 eax, DWORD PTR _ar$[ebp]
  0007d	50		 push	 eax
  0007e	e8 00 00 00 00	 call	 ??$SerializeElements@UElemPos@CMarkup@@@@YGXAAVCArchive@@PAUElemPos@CMarkup@@H@Z ; SerializeElements<CMarkup::ElemPos>

; 643  : }

  00083	83 c4 08	 add	 esp, 8
  00086	3b ec		 cmp	 ebp, esp
  00088	e8 00 00 00 00	 call	 __RTC_CheckEsp
  0008d	8b e5		 mov	 esp, ebp
  0008f	5d		 pop	 ebp
  00090	c2 04 00	 ret	 4
?Serialize@?$CArray@UElemPos@CMarkup@@AAU12@@@UAEXAAVCArchive@@@Z ENDP ; CArray<CMarkup::ElemPos,CMarkup::ElemPos &>::Serialize
_TEXT	ENDS
PUBLIC	??$DumpElements@UElemPos@CMarkup@@@@YGXAAVCDumpContext@@PBUElemPos@CMarkup@@H@Z ; DumpElements<CMarkup::ElemPos>
EXTRN	?Dump@CObject@@UBEXAAVCDumpContext@@@Z:NEAR	; CObject::Dump
EXTRN	?GetDepth@CDumpContext@@QBEHXZ:NEAR		; CDumpContext::GetDepth
EXTRN	??6CDumpContext@@QAEAAV0@PBD@Z:NEAR		; CDumpContext::operator<<
EXTRN	??6CDumpContext@@QAEAAV0@H@Z:NEAR		; CDumpContext::operator<<
; Function compile flags: /Odt /RTCsu
;	COMDAT ?Dump@?$CArray@UElemPos@CMarkup@@AAU12@@@UBEXAAVCDumpContext@@@Z
_TEXT	SEGMENT
_this$ = -4						; size = 4
_dc$ = 8						; size = 4
?Dump@?$CArray@UElemPos@CMarkup@@AAU12@@@UBEXAAVCDumpContext@@@Z PROC NEAR ; CArray<CMarkup::ElemPos,CMarkup::ElemPos &>::Dump, COMDAT
; _this$ = ecx

; 648  : {

  00000	55		 push	 ebp
  00001	8b ec		 mov	 ebp, esp
  00003	51		 push	 ecx
  00004	c7 45 fc cc cc
	cc cc		 mov	 DWORD PTR [ebp-4], -858993460 ; ccccccccH
  0000b	89 4d fc	 mov	 DWORD PTR _this$[ebp], ecx

; 649  : 	CObject::Dump(dc);

  0000e	8b 45 08	 mov	 eax, DWORD PTR _dc$[ebp]
  00011	50		 push	 eax
  00012	8b 4d fc	 mov	 ecx, DWORD PTR _this$[ebp]
  00015	e8 00 00 00 00	 call	 ?Dump@CObject@@UBEXAAVCDumpContext@@@Z ; CObject::Dump

; 650  : 
; 651  : 	dc << "with " << m_nSize << " elements";

  0001a	68 00 00 00 00	 push	 OFFSET FLAT:$SG188031
  0001f	8b 4d fc	 mov	 ecx, DWORD PTR _this$[ebp]
  00022	8b 51 08	 mov	 edx, DWORD PTR [ecx+8]
  00025	52		 push	 edx
  00026	68 00 00 00 00	 push	 OFFSET FLAT:$SG188030
  0002b	8b 4d 08	 mov	 ecx, DWORD PTR _dc$[ebp]
  0002e	e8 00 00 00 00	 call	 ??6CDumpContext@@QAEAAV0@PBD@Z ; CDumpContext::operator<<
  00033	8b c8		 mov	 ecx, eax
  00035	e8 00 00 00 00	 call	 ??6CDumpContext@@QAEAAV0@H@Z ; CDumpContext::operator<<
  0003a	8b c8		 mov	 ecx, eax
  0003c	e8 00 00 00 00	 call	 ??6CDumpContext@@QAEAAV0@PBD@Z ; CDumpContext::operator<<

; 652  : 	if (dc.GetDepth() > 0)

  00041	8b 4d 08	 mov	 ecx, DWORD PTR _dc$[ebp]
  00044	e8 00 00 00 00	 call	 ?GetDepth@CDumpContext@@QBEHXZ ; CDumpContext::GetDepth
  00049	85 c0		 test	 eax, eax
  0004b	7e 24		 jle	 SHORT $L188032

; 653  : 	{
; 654  : 		dc << "\n";

  0004d	68 00 00 00 00	 push	 OFFSET FLAT:$SG188033
  00052	8b 4d 08	 mov	 ecx, DWORD PTR _dc$[ebp]
  00055	e8 00 00 00 00	 call	 ??6CDumpContext@@QAEAAV0@PBD@Z ; CDumpContext::operator<<

; 655  : 		DumpElements<TYPE>(dc, m_pData, m_nSize);

  0005a	8b 45 fc	 mov	 eax, DWORD PTR _this$[ebp]
  0005d	8b 48 08	 mov	 ecx, DWORD PTR [eax+8]
  00060	51		 push	 ecx
  00061	8b 55 fc	 mov	 edx, DWORD PTR _this$[ebp]
  00064	8b 42 04	 mov	 eax, DWORD PTR [edx+4]
  00067	50		 push	 eax
  00068	8b 4d 08	 mov	 ecx, DWORD PTR _dc$[ebp]
  0006b	51		 push	 ecx
  0006c	e8 00 00 00 00	 call	 ??$DumpElements@UElemPos@CMarkup@@@@YGXAAVCDumpContext@@PBUElemPos@CMarkup@@H@Z ; DumpElements<CMarkup::ElemPos>
$L188032:

; 656  : 	}
; 657  : 
; 658  : 	dc << "\n";

  00071	68 00 00 00 00	 push	 OFFSET FLAT:$SG188040
  00076	8b 4d 08	 mov	 ecx, DWORD PTR _dc$[ebp]
  00079	e8 00 00 00 00	 call	 ??6CDumpContext@@QAEAAV0@PBD@Z ; CDumpContext::operator<<

; 659  : }

  0007e	83 c4 04	 add	 esp, 4
  00081	3b ec		 cmp	 ebp, esp
  00083	e8 00 00 00 00	 call	 __RTC_CheckEsp
  00088	8b e5		 mov	 esp, ebp
  0008a	5d		 pop	 ebp
  0008b	c2 04 00	 ret	 4
?Dump@?$CArray@UElemPos@CMarkup@@AAU12@@@UBEXAAVCDumpContext@@@Z ENDP ; CArray<CMarkup::ElemPos,CMarkup::ElemPos &>::Dump
_TEXT	ENDS
EXTRN	?AssertValid@CObject@@UBEXXZ:NEAR		; CObject::AssertValid
EXTRN	?AfxIsValidAddress@@YGHPBXIH@Z:NEAR		; AfxIsValidAddress
; Function compile flags: /Odt /RTCsu
;	COMDAT ?AssertValid@?$CArray@UElemPos@CMarkup@@AAU12@@@UBEXXZ
_TEXT	SEGMENT
_this$ = -4						; size = 4
?AssertValid@?$CArray@UElemPos@CMarkup@@AAU12@@@UBEXXZ PROC NEAR ; CArray<CMarkup::ElemPos,CMarkup::ElemPos &>::AssertValid, COMDAT
; _this$ = ecx

; 663  : {

  00000	55		 push	 ebp
  00001	8b ec		 mov	 ebp, esp
  00003	51		 push	 ecx
  00004	c7 45 fc cc cc
	cc cc		 mov	 DWORD PTR [ebp-4], -858993460 ; ccccccccH
  0000b	89 4d fc	 mov	 DWORD PTR _this$[ebp], ecx

; 664  : 	CObject::AssertValid();

  0000e	8b 4d fc	 mov	 ecx, DWORD PTR _this$[ebp]
  00011	e8 00 00 00 00	 call	 ?AssertValid@CObject@@UBEXXZ ; CObject::AssertValid

; 665  : 
; 666  : 	if (m_pData == NULL)

  00016	8b 45 fc	 mov	 eax, DWORD PTR _this$[ebp]
  00019	83 78 04 00	 cmp	 DWORD PTR [eax+4], 0
  0001d	75 3f		 jne	 SHORT $L188046

; 667  : 	{
; 668  : 		ASSERT(m_nSize == 0);

  0001f	8b 4d fc	 mov	 ecx, DWORD PTR _this$[ebp]
  00022	83 79 08 00	 cmp	 DWORD PTR [ecx+8], 0
  00026	74 14		 je	 SHORT $L188873
  00028	68 9c 02 00 00	 push	 668			; 0000029cH
  0002d	68 00 00 00 00	 push	 OFFSET FLAT:$SG188048
  00032	e8 00 00 00 00	 call	 ?AfxAssertFailedLine@@YGHPBDH@Z ; AfxAssertFailedLine
  00037	85 c0		 test	 eax, eax
  00039	74 01		 je	 SHORT $L188873
  0003b	cc		 int	 3
$L188873:

; 669  : 		ASSERT(m_nMaxSize == 0);

  0003c	8b 45 fc	 mov	 eax, DWORD PTR _this$[ebp]
  0003f	83 78 0c 00	 cmp	 DWORD PTR [eax+12], 0
  00043	74 14		 je	 SHORT $L188874
  00045	68 9d 02 00 00	 push	 669			; 0000029dH
  0004a	68 00 00 00 00	 push	 OFFSET FLAT:$SG188050
  0004f	e8 00 00 00 00	 call	 ?AfxAssertFailedLine@@YGHPBDH@Z ; AfxAssertFailedLine
  00054	85 c0		 test	 eax, eax
  00056	74 01		 je	 SHORT $L188874
  00058	cc		 int	 3
$L188874:

; 670  : 	}
; 671  : 	else

  00059	e9 8c 00 00 00	 jmp	 $L188045
$L188046:

; 672  : 	{
; 673  : 		ASSERT(m_nSize >= 0);

  0005e	8b 55 fc	 mov	 edx, DWORD PTR _this$[ebp]
  00061	83 7a 08 00	 cmp	 DWORD PTR [edx+8], 0
  00065	7d 14		 jge	 SHORT $L188875
  00067	68 a1 02 00 00	 push	 673			; 000002a1H
  0006c	68 00 00 00 00	 push	 OFFSET FLAT:$SG188053
  00071	e8 00 00 00 00	 call	 ?AfxAssertFailedLine@@YGHPBDH@Z ; AfxAssertFailedLine
  00076	85 c0		 test	 eax, eax
  00078	74 01		 je	 SHORT $L188875
  0007a	cc		 int	 3
$L188875:

; 674  : 		ASSERT(m_nMaxSize >= 0);

  0007b	8b 4d fc	 mov	 ecx, DWORD PTR _this$[ebp]
  0007e	83 79 0c 00	 cmp	 DWORD PTR [ecx+12], 0
  00082	7d 14		 jge	 SHORT $L188876
  00084	68 a2 02 00 00	 push	 674			; 000002a2H
  00089	68 00 00 00 00	 push	 OFFSET FLAT:$SG188055
  0008e	e8 00 00 00 00	 call	 ?AfxAssertFailedLine@@YGHPBDH@Z ; AfxAssertFailedLine
  00093	85 c0		 test	 eax, eax
  00095	74 01		 je	 SHORT $L188876
  00097	cc		 int	 3
$L188876:

; 675  : 		ASSERT(m_nSize <= m_nMaxSize);

  00098	8b 45 fc	 mov	 eax, DWORD PTR _this$[ebp]
  0009b	8b 4d fc	 mov	 ecx, DWORD PTR _this$[ebp]
  0009e	8b 50 08	 mov	 edx, DWORD PTR [eax+8]
  000a1	3b 51 0c	 cmp	 edx, DWORD PTR [ecx+12]
  000a4	7e 14		 jle	 SHORT $L188877
  000a6	68 a3 02 00 00	 push	 675			; 000002a3H
  000ab	68 00 00 00 00	 push	 OFFSET FLAT:$SG188057
  000b0	e8 00 00 00 00	 call	 ?AfxAssertFailedLine@@YGHPBDH@Z ; AfxAssertFailedLine
  000b5	85 c0		 test	 eax, eax
  000b7	74 01		 je	 SHORT $L188877
  000b9	cc		 int	 3
$L188877:

; 676  : 		ASSERT(AfxIsValidAddress(m_pData, m_nMaxSize * sizeof(TYPE)));

  000ba	6a 01		 push	 1
  000bc	8b 4d fc	 mov	 ecx, DWORD PTR _this$[ebp]
  000bf	8b 51 0c	 mov	 edx, DWORD PTR [ecx+12]
  000c2	c1 e2 05	 shl	 edx, 5
  000c5	52		 push	 edx
  000c6	8b 45 fc	 mov	 eax, DWORD PTR _this$[ebp]
  000c9	8b 48 04	 mov	 ecx, DWORD PTR [eax+4]
  000cc	51		 push	 ecx
  000cd	e8 00 00 00 00	 call	 ?AfxIsValidAddress@@YGHPBXIH@Z ; AfxIsValidAddress
  000d2	85 c0		 test	 eax, eax
  000d4	75 14		 jne	 SHORT $L188045
  000d6	68 a4 02 00 00	 push	 676			; 000002a4H
  000db	68 00 00 00 00	 push	 OFFSET FLAT:$SG188060
  000e0	e8 00 00 00 00	 call	 ?AfxAssertFailedLine@@YGHPBDH@Z ; AfxAssertFailedLine
  000e5	85 c0		 test	 eax, eax
  000e7	74 01		 je	 SHORT $L188045
  000e9	cc		 int	 3
$L188045:

; 677  : 	}
; 678  : }

  000ea	83 c4 04	 add	 esp, 4
  000ed	3b ec		 cmp	 ebp, esp
  000ef	e8 00 00 00 00	 call	 __RTC_CheckEsp
  000f4	8b e5		 mov	 esp, ebp
  000f6	5d		 pop	 ebp
  000f7	c3		 ret	 0
?AssertValid@?$CArray@UElemPos@CMarkup@@AAU12@@@UBEXXZ ENDP ; CArray<CMarkup::ElemPos,CMarkup::ElemPos &>::AssertValid
_TEXT	ENDS
EXTRN	??3CObject@@SGXPAX@Z:NEAR			; CObject::operator delete
; Function compile flags: /Odt /RTCsu
;	COMDAT ??_G?$CArray@UElemPos@CMarkup@@AAU12@@@UAEPAXI@Z
_TEXT	SEGMENT
_this$ = -4						; size = 4
___flags$ = 8						; size = 4
??_G?$CArray@UElemPos@CMarkup@@AAU12@@@UAEPAXI@Z PROC NEAR ; CArray<CMarkup::ElemPos,CMarkup::ElemPos &>::`scalar deleting destructor', COMDAT
; _this$ = ecx
  00000	55		 push	 ebp
  00001	8b ec		 mov	 ebp, esp
  00003	51		 push	 ecx
  00004	c7 45 fc cc cc
	cc cc		 mov	 DWORD PTR [ebp-4], -858993460 ; ccccccccH
  0000b	89 4d fc	 mov	 DWORD PTR _this$[ebp], ecx
  0000e	8b 4d fc	 mov	 ecx, DWORD PTR _this$[ebp]
  00011	e8 00 00 00 00	 call	 ??1?$CArray@UElemPos@CMarkup@@AAU12@@@UAE@XZ ; CArray<CMarkup::ElemPos,CMarkup::ElemPos &>::~CArray<CMarkup::ElemPos,CMarkup::ElemPos &>
  00016	8b 45 08	 mov	 eax, DWORD PTR ___flags$[ebp]
  00019	83 e0 01	 and	 eax, 1
  0001c	74 09		 je	 SHORT $L188075
  0001e	8b 4d fc	 mov	 ecx, DWORD PTR _this$[ebp]
  00021	51		 push	 ecx
  00022	e8 00 00 00 00	 call	 ??3CObject@@SGXPAX@Z	; CObject::operator delete
$L188075:
  00027	8b 45 fc	 mov	 eax, DWORD PTR _this$[ebp]
  0002a	83 c4 04	 add	 esp, 4
  0002d	3b ec		 cmp	 ebp, esp
  0002f	e8 00 00 00 00	 call	 __RTC_CheckEsp
  00034	8b e5		 mov	 esp, ebp
  00036	5d		 pop	 ebp
  00037	c2 04 00	 ret	 4
??_G?$CArray@UElemPos@CMarkup@@AAU12@@@UAEPAXI@Z ENDP	; CArray<CMarkup::ElemPos,CMarkup::ElemPos &>::`scalar deleting destructor'
_TEXT	ENDS
PUBLIC	??2@YAPAXIPAX@Z					; operator new
PUBLIC	??3@YAXPAX0@Z					; operator delete
PUBLIC	??0ElemPos@CMarkup@@QAE@XZ			; CMarkup::ElemPos::ElemPos
EXTRN	?AfxThrowInvalidArgException@@YGXXZ:NEAR	; AfxThrowInvalidArgException
EXTRN	??_U@YAPAXIPBDH@Z:NEAR				; operator new[]
EXTRN	_memcpy:NEAR
EXTRN	_memset:NEAR
;	COMDAT xdata$x
xdata$x	SEGMENT
$T188914 DD	0ffffffffH
	DD	FLAT:$L188908
	DD	0ffffffffH
	DD	FLAT:$L188909
	DD	0ffffffffH
	DD	FLAT:$L188910
$T188912 DD	019930520H
	DD	03H
	DD	FLAT:$T188914
	DD	2 DUP(00H)
	DD	2 DUP(00H)
; Function compile flags: /Odt /RTCsu
xdata$x	ENDS
;	COMDAT ?SetSize@?$CArray@UElemPos@CMarkup@@AAU12@@@QAEXHH@Z
_TEXT	SEGMENT
tv283 = -112						; size = 4
tv213 = -108						; size = 4
tv214 = -104						; size = 4
tv200 = -100						; size = 4
tv159 = -96						; size = 4
tv130 = -92						; size = 4
$T188907 = -88						; size = 4
$T188904 = -84						; size = 4
$T188903 = -80						; size = 4
$T188901 = -76						; size = 4
$T188892 = -72						; size = 4
$T188891 = -68						; size = 4
$T188888 = -64						; size = 4
$T188887 = -60						; size = 4
$T188886 = -56						; size = 4
$T188882 = -52						; size = 4
_i$188167 = -48						; size = 4
_pNewData$188154 = -44					; size = 4
_nNewMax$188145 = -40					; size = 4
_i$188139 = -36						; size = 4
_i$188127 = -32						; size = 4
_i$188111 = -28						; size = 4
_nAllocSize$188101 = -24				; size = 4
_i$188090 = -20						; size = 4
_this$ = -16						; size = 4
__$EHRec$ = -12						; size = 12
_nNewSize$ = 8						; size = 4
_nGrowBy$ = 12						; size = 4
?SetSize@?$CArray@UElemPos@CMarkup@@AAU12@@@QAEXHH@Z PROC NEAR ; CArray<CMarkup::ElemPos,CMarkup::ElemPos &>::SetSize, COMDAT
; _this$ = ecx

; 369  : {

  00000	55		 push	 ebp
  00001	8b ec		 mov	 ebp, esp
  00003	6a ff		 push	 -1
  00005	68 00 00 00 00	 push	 __ehhandler$?SetSize@?$CArray@UElemPos@CMarkup@@AAU12@@@QAEXHH@Z
  0000a	64 a1 00 00 00
	00		 mov	 eax, DWORD PTR fs:__except_list
  00010	50		 push	 eax
  00011	64 89 25 00 00
	00 00		 mov	 DWORD PTR fs:__except_list, esp
  00018	83 ec 64	 sub	 esp, 100		; 00000064H
  0001b	57		 push	 edi
  0001c	51		 push	 ecx
  0001d	8d 7d 90	 lea	 edi, DWORD PTR [ebp-112]
  00020	b9 19 00 00 00	 mov	 ecx, 25			; 00000019H
  00025	b8 cc cc cc cc	 mov	 eax, -858993460		; ccccccccH
  0002a	f3 ab		 rep stosd
  0002c	59		 pop	 ecx
  0002d	89 4d f0	 mov	 DWORD PTR _this$[ebp], ecx

; 370  : 	ASSERT_VALID(this);

  00030	68 72 01 00 00	 push	 370			; 00000172H
  00035	68 00 00 00 00	 push	 OFFSET FLAT:$SG188083
  0003a	8b 45 f0	 mov	 eax, DWORD PTR _this$[ebp]
  0003d	50		 push	 eax
  0003e	e8 00 00 00 00	 call	 ?AfxAssertValidObject@@YGXPBVCObject@@PBDH@Z ; AfxAssertValidObject

; 371  : 	ASSERT(nNewSize >= 0);

  00043	83 7d 08 00	 cmp	 DWORD PTR _nNewSize$[ebp], 0
  00047	7d 14		 jge	 SHORT $L188881
  00049	68 73 01 00 00	 push	 371			; 00000173H
  0004e	68 00 00 00 00	 push	 OFFSET FLAT:$SG188085
  00053	e8 00 00 00 00	 call	 ?AfxAssertFailedLine@@YGHPBDH@Z ; AfxAssertFailedLine
  00058	85 c0		 test	 eax, eax
  0005a	74 01		 je	 SHORT $L188881
  0005c	cc		 int	 3
$L188881:

; 372  : 
; 373  : 	if(nNewSize < 0 )

  0005d	83 7d 08 00	 cmp	 DWORD PTR _nNewSize$[ebp], 0
  00061	7d 05		 jge	 SHORT $L188086

; 374  : 		AfxThrowInvalidArgException();

  00063	e8 00 00 00 00	 call	 ?AfxThrowInvalidArgException@@YGXXZ ; AfxThrowInvalidArgException
$L188086:

; 375  : 
; 376  : 	if (nGrowBy >= 0)

  00068	83 7d 0c 00	 cmp	 DWORD PTR _nGrowBy$[ebp], 0
  0006c	7c 09		 jl	 SHORT $L188087

; 377  : 		m_nGrowBy = nGrowBy;  // set new size

  0006e	8b 55 f0	 mov	 edx, DWORD PTR _this$[ebp]
  00071	8b 45 0c	 mov	 eax, DWORD PTR _nGrowBy$[ebp]
  00074	89 42 10	 mov	 DWORD PTR [edx+16], eax
$L188087:

; 378  : 
; 379  : 	if (nNewSize == 0)

  00077	83 7d 08 00	 cmp	 DWORD PTR _nNewSize$[ebp], 0
  0007b	75 60		 jne	 SHORT $L188088

; 380  : 	{
; 381  : 		// shrink to nothing
; 382  : 		if (m_pData != NULL)

  0007d	8b 4d f0	 mov	 ecx, DWORD PTR _this$[ebp]
  00080	83 79 04 00	 cmp	 DWORD PTR [ecx+4], 0
  00084	74 3e		 je	 SHORT $L188089

; 383  : 		{
; 384  : 			for( int i = 0; i < m_nSize; i++ )

  00086	c7 45 ec 00 00
	00 00		 mov	 DWORD PTR _i$188090[ebp], 0
  0008d	eb 09		 jmp	 SHORT $L188091
$L188092:
  0008f	8b 55 ec	 mov	 edx, DWORD PTR _i$188090[ebp]
  00092	83 c2 01	 add	 edx, 1
  00095	89 55 ec	 mov	 DWORD PTR _i$188090[ebp], edx
$L188091:
  00098	8b 45 f0	 mov	 eax, DWORD PTR _this$[ebp]
  0009b	8b 4d ec	 mov	 ecx, DWORD PTR _i$188090[ebp]
  0009e	3b 48 08	 cmp	 ecx, DWORD PTR [eax+8]
  000a1	7d 02		 jge	 SHORT $L188093

; 385  : 				(m_pData + i)->~TYPE();

  000a3	eb ea		 jmp	 SHORT $L188092
$L188093:

; 386  : 			delete[] (BYTE*)m_pData;

  000a5	8b 55 f0	 mov	 edx, DWORD PTR _this$[ebp]
  000a8	8b 42 04	 mov	 eax, DWORD PTR [edx+4]
  000ab	89 45 cc	 mov	 DWORD PTR $T188882[ebp], eax
  000ae	8b 4d cc	 mov	 ecx, DWORD PTR $T188882[ebp]
  000b1	51		 push	 ecx
  000b2	e8 00 00 00 00	 call	 ??_V@YAXPAX@Z		; operator delete[]
  000b7	83 c4 04	 add	 esp, 4

; 387  : 			m_pData = NULL;

  000ba	8b 55 f0	 mov	 edx, DWORD PTR _this$[ebp]
  000bd	c7 42 04 00 00
	00 00		 mov	 DWORD PTR [edx+4], 0
$L188089:

; 388  : 		}
; 389  : 		m_nSize = m_nMaxSize = 0;

  000c4	8b 45 f0	 mov	 eax, DWORD PTR _this$[ebp]
  000c7	c7 40 0c 00 00
	00 00		 mov	 DWORD PTR [eax+12], 0
  000ce	8b 4d f0	 mov	 ecx, DWORD PTR _this$[ebp]
  000d1	c7 41 08 00 00
	00 00		 mov	 DWORD PTR [ecx+8], 0

; 390  : 	}
; 391  : 	else if (m_pData == NULL)

  000d8	e9 d9 03 00 00	 jmp	 $L188880
$L188088:
  000dd	8b 55 f0	 mov	 edx, DWORD PTR _this$[ebp]
  000e0	83 7a 04 00	 cmp	 DWORD PTR [edx+4], 0
  000e4	0f 85 f7 00 00
	00		 jne	 $L188097

; 392  : 	{
; 393  : 		// create buffer big enough to hold number of requested elements or
; 394  : 		// m_nGrowBy elements, whichever is larger.
; 395  : #ifdef SIZE_T_MAX
; 396  : 		ASSERT(nNewSize <= SIZE_T_MAX/sizeof(TYPE));    // no overflow

  000ea	81 7d 08 ff ff
	ff 07		 cmp	 DWORD PTR _nNewSize$[ebp], 134217727 ; 07ffffffH
  000f1	76 14		 jbe	 SHORT $L188883
  000f3	68 8c 01 00 00	 push	 396			; 0000018cH
  000f8	68 00 00 00 00	 push	 OFFSET FLAT:$SG188100
  000fd	e8 00 00 00 00	 call	 ?AfxAssertFailedLine@@YGHPBDH@Z ; AfxAssertFailedLine
  00102	85 c0		 test	 eax, eax
  00104	74 01		 je	 SHORT $L188883
  00106	cc		 int	 3
$L188883:

; 397  : #endif
; 398  : 		size_t nAllocSize = max(nNewSize, m_nGrowBy);

  00107	8b 4d f0	 mov	 ecx, DWORD PTR _this$[ebp]
  0010a	8b 55 08	 mov	 edx, DWORD PTR _nNewSize$[ebp]
  0010d	3b 51 10	 cmp	 edx, DWORD PTR [ecx+16]
  00110	7e 08		 jle	 SHORT $L188884
  00112	8b 45 08	 mov	 eax, DWORD PTR _nNewSize$[ebp]
  00115	89 45 a4	 mov	 DWORD PTR tv130[ebp], eax
  00118	eb 09		 jmp	 SHORT $L188885
$L188884:
  0011a	8b 4d f0	 mov	 ecx, DWORD PTR _this$[ebp]
  0011d	8b 51 10	 mov	 edx, DWORD PTR [ecx+16]
  00120	89 55 a4	 mov	 DWORD PTR tv130[ebp], edx
$L188885:
  00123	8b 45 a4	 mov	 eax, DWORD PTR tv130[ebp]
  00126	89 45 e8	 mov	 DWORD PTR _nAllocSize$188101[ebp], eax

; 399  : 		m_pData = (TYPE*) new BYTE[(size_t)nAllocSize * sizeof(TYPE)];

  00129	68 8f 01 00 00	 push	 399			; 0000018fH
  0012e	68 00 00 00 00	 push	 OFFSET FLAT:$SG188107
  00133	8b 4d e8	 mov	 ecx, DWORD PTR _nAllocSize$188101[ebp]
  00136	c1 e1 05	 shl	 ecx, 5
  00139	51		 push	 ecx
  0013a	e8 00 00 00 00	 call	 ??_U@YAPAXIPBDH@Z	; operator new[]
  0013f	83 c4 0c	 add	 esp, 12			; 0000000cH
  00142	89 45 c8	 mov	 DWORD PTR $T188886[ebp], eax
  00145	8b 55 f0	 mov	 edx, DWORD PTR _this$[ebp]
  00148	8b 45 c8	 mov	 eax, DWORD PTR $T188886[ebp]
  0014b	89 42 04	 mov	 DWORD PTR [edx+4], eax

; 400  : 		memset((void*)m_pData, 0, (size_t)nAllocSize * sizeof(TYPE));

  0014e	8b 4d e8	 mov	 ecx, DWORD PTR _nAllocSize$188101[ebp]
  00151	c1 e1 05	 shl	 ecx, 5
  00154	51		 push	 ecx
  00155	6a 00		 push	 0
  00157	8b 55 f0	 mov	 edx, DWORD PTR _this$[ebp]
  0015a	8b 42 04	 mov	 eax, DWORD PTR [edx+4]
  0015d	50		 push	 eax
  0015e	e8 00 00 00 00	 call	 _memset
  00163	83 c4 0c	 add	 esp, 12			; 0000000cH

; 401  : 		for( int i = 0; i < nNewSize; i++ )

  00166	c7 45 e4 00 00
	00 00		 mov	 DWORD PTR _i$188111[ebp], 0
  0016d	eb 09		 jmp	 SHORT $L188112
$L188113:
  0016f	8b 4d e4	 mov	 ecx, DWORD PTR _i$188111[ebp]
  00172	83 c1 01	 add	 ecx, 1
  00175	89 4d e4	 mov	 DWORD PTR _i$188111[ebp], ecx
$L188112:
  00178	8b 55 e4	 mov	 edx, DWORD PTR _i$188111[ebp]
  0017b	3b 55 08	 cmp	 edx, DWORD PTR _nNewSize$[ebp]
  0017e	7d 4a		 jge	 SHORT $L188114

; 402  : #pragma push_macro("new")
; 403  : #undef new
; 404  : 			::new( (void*)( m_pData + i ) ) TYPE;

  00180	8b 45 e4	 mov	 eax, DWORD PTR _i$188111[ebp]
  00183	c1 e0 05	 shl	 eax, 5
  00186	8b 4d f0	 mov	 ecx, DWORD PTR _this$[ebp]
  00189	03 41 04	 add	 eax, DWORD PTR [ecx+4]
  0018c	50		 push	 eax
  0018d	6a 20		 push	 32			; 00000020H
  0018f	e8 00 00 00 00	 call	 ??2@YAPAXIPAX@Z		; operator new
  00194	83 c4 08	 add	 esp, 8
  00197	89 45 c0	 mov	 DWORD PTR $T188888[ebp], eax
  0019a	c7 45 fc 00 00
	00 00		 mov	 DWORD PTR __$EHRec$[ebp+8], 0
  001a1	83 7d c0 00	 cmp	 DWORD PTR $T188888[ebp], 0
  001a5	74 0d		 je	 SHORT $L188889
  001a7	8b 4d c0	 mov	 ecx, DWORD PTR $T188888[ebp]
  001aa	e8 00 00 00 00	 call	 ??0ElemPos@CMarkup@@QAE@XZ ; CMarkup::ElemPos::ElemPos
  001af	89 45 a0	 mov	 DWORD PTR tv159[ebp], eax
  001b2	eb 07		 jmp	 SHORT $L188890
$L188889:
  001b4	c7 45 a0 00 00
	00 00		 mov	 DWORD PTR tv159[ebp], 0
$L188890:
  001bb	8b 55 a0	 mov	 edx, DWORD PTR tv159[ebp]
  001be	89 55 c4	 mov	 DWORD PTR $T188887[ebp], edx
  001c1	c7 45 fc ff ff
	ff ff		 mov	 DWORD PTR __$EHRec$[ebp+8], -1
  001c8	eb a5		 jmp	 SHORT $L188113
$L188114:

; 405  : #pragma pop_macro("new")
; 406  : 		m_nSize = nNewSize;

  001ca	8b 45 f0	 mov	 eax, DWORD PTR _this$[ebp]
  001cd	8b 4d 08	 mov	 ecx, DWORD PTR _nNewSize$[ebp]
  001d0	89 48 08	 mov	 DWORD PTR [eax+8], ecx

; 407  : 		m_nMaxSize = nAllocSize;

  001d3	8b 55 f0	 mov	 edx, DWORD PTR _this$[ebp]
  001d6	8b 45 e8	 mov	 eax, DWORD PTR _nAllocSize$188101[ebp]
  001d9	89 42 0c	 mov	 DWORD PTR [edx+12], eax

; 408  : 	}
; 409  : 	else if (nNewSize <= m_nMaxSize)

  001dc	e9 d5 02 00 00	 jmp	 $L188880
$L188097:
  001e1	8b 4d f0	 mov	 ecx, DWORD PTR _this$[ebp]
  001e4	8b 55 08	 mov	 edx, DWORD PTR _nNewSize$[ebp]
  001e7	3b 51 0c	 cmp	 edx, DWORD PTR [ecx+12]
  001ea	0f 8f ea 00 00
	00		 jg	 $L188122

; 410  : 	{
; 411  : 		// it fits
; 412  : 		if (nNewSize > m_nSize)

  001f0	8b 45 f0	 mov	 eax, DWORD PTR _this$[ebp]
  001f3	8b 4d 08	 mov	 ecx, DWORD PTR _nNewSize$[ebp]
  001f6	3b 48 08	 cmp	 ecx, DWORD PTR [eax+8]
  001f9	0f 8e a0 00 00
	00		 jle	 $L188123

; 413  : 		{
; 414  : 			// initialize the new elements
; 415  : 			memset((void*)(m_pData + m_nSize), 0, (size_t)(nNewSize-m_nSize) * sizeof(TYPE));

  001ff	8b 55 f0	 mov	 edx, DWORD PTR _this$[ebp]
  00202	8b 45 08	 mov	 eax, DWORD PTR _nNewSize$[ebp]
  00205	2b 42 08	 sub	 eax, DWORD PTR [edx+8]
  00208	c1 e0 05	 shl	 eax, 5
  0020b	50		 push	 eax
  0020c	6a 00		 push	 0
  0020e	8b 4d f0	 mov	 ecx, DWORD PTR _this$[ebp]
  00211	8b 51 08	 mov	 edx, DWORD PTR [ecx+8]
  00214	c1 e2 05	 shl	 edx, 5
  00217	8b 45 f0	 mov	 eax, DWORD PTR _this$[ebp]
  0021a	03 50 04	 add	 edx, DWORD PTR [eax+4]
  0021d	52		 push	 edx
  0021e	e8 00 00 00 00	 call	 _memset
  00223	83 c4 0c	 add	 esp, 12			; 0000000cH

; 416  : 			for( int i = 0; i < nNewSize-m_nSize; i++ )

  00226	c7 45 e0 00 00
	00 00		 mov	 DWORD PTR _i$188127[ebp], 0
  0022d	eb 09		 jmp	 SHORT $L188128
$L188129:
  0022f	8b 4d e0	 mov	 ecx, DWORD PTR _i$188127[ebp]
  00232	83 c1 01	 add	 ecx, 1
  00235	89 4d e0	 mov	 DWORD PTR _i$188127[ebp], ecx
$L188128:
  00238	8b 55 f0	 mov	 edx, DWORD PTR _this$[ebp]
  0023b	8b 45 08	 mov	 eax, DWORD PTR _nNewSize$[ebp]
  0023e	2b 42 08	 sub	 eax, DWORD PTR [edx+8]
  00241	39 45 e0	 cmp	 DWORD PTR _i$188127[ebp], eax
  00244	7d 57		 jge	 SHORT $L188130

; 417  : #pragma push_macro("new")
; 418  : #undef new
; 419  : 				::new( (void*)( m_pData + m_nSize + i ) ) TYPE;

  00246	8b 4d f0	 mov	 ecx, DWORD PTR _this$[ebp]
  00249	8b 51 08	 mov	 edx, DWORD PTR [ecx+8]
  0024c	c1 e2 05	 shl	 edx, 5
  0024f	8b 45 f0	 mov	 eax, DWORD PTR _this$[ebp]
  00252	8b 48 04	 mov	 ecx, DWORD PTR [eax+4]
  00255	03 ca		 add	 ecx, edx
  00257	8b 55 e0	 mov	 edx, DWORD PTR _i$188127[ebp]
  0025a	c1 e2 05	 shl	 edx, 5
  0025d	03 ca		 add	 ecx, edx
  0025f	51		 push	 ecx
  00260	6a 20		 push	 32			; 00000020H
  00262	e8 00 00 00 00	 call	 ??2@YAPAXIPAX@Z		; operator new
  00267	83 c4 08	 add	 esp, 8
  0026a	89 45 b8	 mov	 DWORD PTR $T188892[ebp], eax
  0026d	c7 45 fc 01 00
	00 00		 mov	 DWORD PTR __$EHRec$[ebp+8], 1
  00274	83 7d b8 00	 cmp	 DWORD PTR $T188892[ebp], 0
  00278	74 0d		 je	 SHORT $L188893
  0027a	8b 4d b8	 mov	 ecx, DWORD PTR $T188892[ebp]
  0027d	e8 00 00 00 00	 call	 ??0ElemPos@CMarkup@@QAE@XZ ; CMarkup::ElemPos::ElemPos
  00282	89 45 9c	 mov	 DWORD PTR tv200[ebp], eax
  00285	eb 07		 jmp	 SHORT $L188894
$L188893:
  00287	c7 45 9c 00 00
	00 00		 mov	 DWORD PTR tv200[ebp], 0
$L188894:
  0028e	8b 45 9c	 mov	 eax, DWORD PTR tv200[ebp]
  00291	89 45 bc	 mov	 DWORD PTR $T188891[ebp], eax
  00294	c7 45 fc ff ff
	ff ff		 mov	 DWORD PTR __$EHRec$[ebp+8], -1
  0029b	eb 92		 jmp	 SHORT $L188129
$L188130:

; 420  : #pragma pop_macro("new")
; 421  : 		}
; 422  : 		else if (m_nSize > nNewSize)

  0029d	eb 2d		 jmp	 SHORT $L188137
$L188123:
  0029f	8b 4d f0	 mov	 ecx, DWORD PTR _this$[ebp]
  002a2	8b 51 08	 mov	 edx, DWORD PTR [ecx+8]
  002a5	3b 55 08	 cmp	 edx, DWORD PTR _nNewSize$[ebp]
  002a8	7e 22		 jle	 SHORT $L188137

; 423  : 		{
; 424  : 			// destroy the old elements
; 425  : 			for( int i = 0; i < m_nSize-nNewSize; i++ )

  002aa	c7 45 dc 00 00
	00 00		 mov	 DWORD PTR _i$188139[ebp], 0
  002b1	eb 09		 jmp	 SHORT $L188140
$L188141:
  002b3	8b 45 dc	 mov	 eax, DWORD PTR _i$188139[ebp]
  002b6	83 c0 01	 add	 eax, 1
  002b9	89 45 dc	 mov	 DWORD PTR _i$188139[ebp], eax
$L188140:
  002bc	8b 4d f0	 mov	 ecx, DWORD PTR _this$[ebp]
  002bf	8b 51 08	 mov	 edx, DWORD PTR [ecx+8]
  002c2	2b 55 08	 sub	 edx, DWORD PTR _nNewSize$[ebp]
  002c5	39 55 dc	 cmp	 DWORD PTR _i$188139[ebp], edx
  002c8	7d 02		 jge	 SHORT $L188137

; 426  : 				(m_pData + nNewSize + i)->~TYPE();

  002ca	eb e7		 jmp	 SHORT $L188141
$L188137:

; 427  : 		}
; 428  : 		m_nSize = nNewSize;

  002cc	8b 45 f0	 mov	 eax, DWORD PTR _this$[ebp]
  002cf	8b 4d 08	 mov	 ecx, DWORD PTR _nNewSize$[ebp]
  002d2	89 48 08	 mov	 DWORD PTR [eax+8], ecx

; 429  : 	}
; 430  : 	else

  002d5	e9 dc 01 00 00	 jmp	 $L188880
$L188122:

; 431  : 	{
; 432  : 		// otherwise, grow array
; 433  : 		nGrowBy = m_nGrowBy;

  002da	8b 55 f0	 mov	 edx, DWORD PTR _this$[ebp]
  002dd	8b 42 10	 mov	 eax, DWORD PTR [edx+16]
  002e0	89 45 0c	 mov	 DWORD PTR _nGrowBy$[ebp], eax

; 434  : 		if (nGrowBy == 0)

  002e3	83 7d 0c 00	 cmp	 DWORD PTR _nGrowBy$[ebp], 0
  002e7	75 45		 jne	 SHORT $L188144

; 435  : 		{
; 436  : 			// heuristically determine growth when nGrowBy == 0
; 437  : 			//  (this avoids heap fragmentation in many situations)
; 438  : 			nGrowBy = m_nSize / 8;

  002e9	8b 4d f0	 mov	 ecx, DWORD PTR _this$[ebp]
  002ec	8b 41 08	 mov	 eax, DWORD PTR [ecx+8]
  002ef	99		 cdq
  002f0	83 e2 07	 and	 edx, 7
  002f3	03 c2		 add	 eax, edx
  002f5	c1 f8 03	 sar	 eax, 3
  002f8	89 45 0c	 mov	 DWORD PTR _nGrowBy$[ebp], eax

; 439  : 			nGrowBy = (nGrowBy < 4) ? 4 : ((nGrowBy > 1024) ? 1024 : nGrowBy);

  002fb	83 7d 0c 04	 cmp	 DWORD PTR _nGrowBy$[ebp], 4
  002ff	7d 09		 jge	 SHORT $L188897
  00301	c7 45 98 04 00
	00 00		 mov	 DWORD PTR tv214[ebp], 4
  00308	eb 1e		 jmp	 SHORT $L188898
$L188897:
  0030a	81 7d 0c 00 04
	00 00		 cmp	 DWORD PTR _nGrowBy$[ebp], 1024 ; 00000400H
  00311	7e 09		 jle	 SHORT $L188895
  00313	c7 45 94 00 04
	00 00		 mov	 DWORD PTR tv213[ebp], 1024 ; 00000400H
  0031a	eb 06		 jmp	 SHORT $L188896
$L188895:
  0031c	8b 55 0c	 mov	 edx, DWORD PTR _nGrowBy$[ebp]
  0031f	89 55 94	 mov	 DWORD PTR tv213[ebp], edx
$L188896:
  00322	8b 45 94	 mov	 eax, DWORD PTR tv213[ebp]
  00325	89 45 98	 mov	 DWORD PTR tv214[ebp], eax
$L188898:
  00328	8b 4d 98	 mov	 ecx, DWORD PTR tv214[ebp]
  0032b	89 4d 0c	 mov	 DWORD PTR _nGrowBy$[ebp], ecx
$L188144:

; 440  : 		}
; 441  : 		INT_PTR nNewMax;
; 442  : 		if (nNewSize < m_nMaxSize + nGrowBy)

  0032e	8b 55 f0	 mov	 edx, DWORD PTR _this$[ebp]
  00331	8b 42 0c	 mov	 eax, DWORD PTR [edx+12]
  00334	03 45 0c	 add	 eax, DWORD PTR _nGrowBy$[ebp]
  00337	39 45 08	 cmp	 DWORD PTR _nNewSize$[ebp], eax
  0033a	7d 0e		 jge	 SHORT $L188146

; 443  : 			nNewMax = m_nMaxSize + nGrowBy;  // granularity

  0033c	8b 4d f0	 mov	 ecx, DWORD PTR _this$[ebp]
  0033f	8b 51 0c	 mov	 edx, DWORD PTR [ecx+12]
  00342	03 55 0c	 add	 edx, DWORD PTR _nGrowBy$[ebp]
  00345	89 55 d8	 mov	 DWORD PTR _nNewMax$188145[ebp], edx

; 444  : 		else

  00348	eb 06		 jmp	 SHORT $L188147
$L188146:

; 445  : 			nNewMax = nNewSize;  // no slush

  0034a	8b 45 08	 mov	 eax, DWORD PTR _nNewSize$[ebp]
  0034d	89 45 d8	 mov	 DWORD PTR _nNewMax$188145[ebp], eax
$L188147:

; 446  : 
; 447  : 		ASSERT(nNewMax >= m_nMaxSize);  // no wrap around

  00350	8b 4d f0	 mov	 ecx, DWORD PTR _this$[ebp]
  00353	8b 55 d8	 mov	 edx, DWORD PTR _nNewMax$188145[ebp]
  00356	3b 51 0c	 cmp	 edx, DWORD PTR [ecx+12]
  00359	7d 14		 jge	 SHORT $L188899
  0035b	68 bf 01 00 00	 push	 447			; 000001bfH
  00360	68 00 00 00 00	 push	 OFFSET FLAT:$SG188149
  00365	e8 00 00 00 00	 call	 ?AfxAssertFailedLine@@YGHPBDH@Z ; AfxAssertFailedLine
  0036a	85 c0		 test	 eax, eax
  0036c	74 01		 je	 SHORT $L188899
  0036e	cc		 int	 3
$L188899:

; 448  : 		
; 449  : 		if(nNewMax  < m_nMaxSize)

  0036f	8b 4d f0	 mov	 ecx, DWORD PTR _this$[ebp]
  00372	8b 55 d8	 mov	 edx, DWORD PTR _nNewMax$188145[ebp]
  00375	3b 51 0c	 cmp	 edx, DWORD PTR [ecx+12]
  00378	7d 05		 jge	 SHORT $L188150

; 450  : 			AfxThrowInvalidArgException();

  0037a	e8 00 00 00 00	 call	 ?AfxThrowInvalidArgException@@YGXXZ ; AfxThrowInvalidArgException
$L188150:

; 451  : 
; 452  : #ifdef SIZE_T_MAX
; 453  : 		ASSERT(nNewMax <= SIZE_T_MAX/sizeof(TYPE)); // no overflow

  0037f	81 7d d8 ff ff
	ff 07		 cmp	 DWORD PTR _nNewMax$188145[ebp], 134217727 ; 07ffffffH
  00386	76 14		 jbe	 SHORT $L188900
  00388	68 c5 01 00 00	 push	 453			; 000001c5H
  0038d	68 00 00 00 00	 push	 OFFSET FLAT:$SG188153
  00392	e8 00 00 00 00	 call	 ?AfxAssertFailedLine@@YGHPBDH@Z ; AfxAssertFailedLine
  00397	85 c0		 test	 eax, eax
  00399	74 01		 je	 SHORT $L188900
  0039b	cc		 int	 3
$L188900:

; 454  : #endif
; 455  : 		TYPE* pNewData = (TYPE*) new BYTE[(size_t)nNewMax * sizeof(TYPE)];

  0039c	8b 4d d8	 mov	 ecx, DWORD PTR _nNewMax$188145[ebp]
  0039f	c1 e1 05	 shl	 ecx, 5
  003a2	51		 push	 ecx
  003a3	e8 00 00 00 00	 call	 ??_U@YAPAXI@Z		; operator new[]
  003a8	83 c4 04	 add	 esp, 4
  003ab	89 45 b4	 mov	 DWORD PTR $T188901[ebp], eax
  003ae	8b 55 b4	 mov	 edx, DWORD PTR $T188901[ebp]
  003b1	89 55 d4	 mov	 DWORD PTR _pNewData$188154[ebp], edx

; 456  : 
; 457  : 		// copy new data from old
; 458  : 		memcpy(pNewData, m_pData, (size_t)m_nSize * sizeof(TYPE));

  003b4	8b 45 f0	 mov	 eax, DWORD PTR _this$[ebp]
  003b7	8b 48 08	 mov	 ecx, DWORD PTR [eax+8]
  003ba	c1 e1 05	 shl	 ecx, 5
  003bd	51		 push	 ecx
  003be	8b 55 f0	 mov	 edx, DWORD PTR _this$[ebp]
  003c1	8b 42 04	 mov	 eax, DWORD PTR [edx+4]
  003c4	50		 push	 eax
  003c5	8b 4d d4	 mov	 ecx, DWORD PTR _pNewData$188154[ebp]
  003c8	51		 push	 ecx
  003c9	e8 00 00 00 00	 call	 _memcpy
  003ce	83 c4 0c	 add	 esp, 12			; 0000000cH

; 459  : 
; 460  : 		// construct remaining elements
; 461  : 		ASSERT(nNewSize > m_nSize);

  003d1	8b 55 f0	 mov	 edx, DWORD PTR _this$[ebp]
  003d4	8b 45 08	 mov	 eax, DWORD PTR _nNewSize$[ebp]
  003d7	3b 42 08	 cmp	 eax, DWORD PTR [edx+8]
  003da	7f 14		 jg	 SHORT $L188902
  003dc	68 cd 01 00 00	 push	 461			; 000001cdH
  003e1	68 00 00 00 00	 push	 OFFSET FLAT:$SG188163
  003e6	e8 00 00 00 00	 call	 ?AfxAssertFailedLine@@YGHPBDH@Z ; AfxAssertFailedLine
  003eb	85 c0		 test	 eax, eax
  003ed	74 01		 je	 SHORT $L188902
  003ef	cc		 int	 3
$L188902:

; 462  : 		memset((void*)(pNewData + m_nSize), 0, (size_t)(nNewSize-m_nSize) * sizeof(TYPE));

  003f0	8b 55 f0	 mov	 edx, DWORD PTR _this$[ebp]
  003f3	8b 45 08	 mov	 eax, DWORD PTR _nNewSize$[ebp]
  003f6	2b 42 08	 sub	 eax, DWORD PTR [edx+8]
  003f9	c1 e0 05	 shl	 eax, 5
  003fc	50		 push	 eax
  003fd	6a 00		 push	 0
  003ff	8b 4d f0	 mov	 ecx, DWORD PTR _this$[ebp]
  00402	8b 51 08	 mov	 edx, DWORD PTR [ecx+8]
  00405	c1 e2 05	 shl	 edx, 5
  00408	03 55 d4	 add	 edx, DWORD PTR _pNewData$188154[ebp]
  0040b	52		 push	 edx
  0040c	e8 00 00 00 00	 call	 _memset
  00411	83 c4 0c	 add	 esp, 12			; 0000000cH

; 463  : 		for( int i = 0; i < nNewSize-m_nSize; i++ )

  00414	c7 45 d0 00 00
	00 00		 mov	 DWORD PTR _i$188167[ebp], 0
  0041b	eb 09		 jmp	 SHORT $L188168
$L188169:
  0041d	8b 45 d0	 mov	 eax, DWORD PTR _i$188167[ebp]
  00420	83 c0 01	 add	 eax, 1
  00423	89 45 d0	 mov	 DWORD PTR _i$188167[ebp], eax
$L188168:
  00426	8b 4d f0	 mov	 ecx, DWORD PTR _this$[ebp]
  00429	8b 55 08	 mov	 edx, DWORD PTR _nNewSize$[ebp]
  0042c	2b 51 08	 sub	 edx, DWORD PTR [ecx+8]
  0042f	39 55 d0	 cmp	 DWORD PTR _i$188167[ebp], edx
  00432	7d 52		 jge	 SHORT $L188170

; 464  : #pragma push_macro("new")
; 465  : #undef new
; 466  : 			::new( (void*)( pNewData + m_nSize + i ) ) TYPE;

  00434	8b 45 f0	 mov	 eax, DWORD PTR _this$[ebp]
  00437	8b 48 08	 mov	 ecx, DWORD PTR [eax+8]
  0043a	c1 e1 05	 shl	 ecx, 5
  0043d	03 4d d4	 add	 ecx, DWORD PTR _pNewData$188154[ebp]
  00440	8b 55 d0	 mov	 edx, DWORD PTR _i$188167[ebp]
  00443	c1 e2 05	 shl	 edx, 5
  00446	03 ca		 add	 ecx, edx
  00448	51		 push	 ecx
  00449	6a 20		 push	 32			; 00000020H
  0044b	e8 00 00 00 00	 call	 ??2@YAPAXIPAX@Z		; operator new
  00450	83 c4 08	 add	 esp, 8
  00453	89 45 ac	 mov	 DWORD PTR $T188904[ebp], eax
  00456	c7 45 fc 02 00
	00 00		 mov	 DWORD PTR __$EHRec$[ebp+8], 2
  0045d	83 7d ac 00	 cmp	 DWORD PTR $T188904[ebp], 0
  00461	74 0d		 je	 SHORT $L188905
  00463	8b 4d ac	 mov	 ecx, DWORD PTR $T188904[ebp]
  00466	e8 00 00 00 00	 call	 ??0ElemPos@CMarkup@@QAE@XZ ; CMarkup::ElemPos::ElemPos
  0046b	89 45 90	 mov	 DWORD PTR tv283[ebp], eax
  0046e	eb 07		 jmp	 SHORT $L188906
$L188905:
  00470	c7 45 90 00 00
	00 00		 mov	 DWORD PTR tv283[ebp], 0
$L188906:
  00477	8b 45 90	 mov	 eax, DWORD PTR tv283[ebp]
  0047a	89 45 b0	 mov	 DWORD PTR $T188903[ebp], eax
  0047d	c7 45 fc ff ff
	ff ff		 mov	 DWORD PTR __$EHRec$[ebp+8], -1
  00484	eb 97		 jmp	 SHORT $L188169
$L188170:

; 467  : #pragma pop_macro("new")
; 468  : 
; 469  : 		// get rid of old stuff (note: no destructors called)
; 470  : 		delete[] (BYTE*)m_pData;

  00486	8b 4d f0	 mov	 ecx, DWORD PTR _this$[ebp]
  00489	8b 51 04	 mov	 edx, DWORD PTR [ecx+4]
  0048c	89 55 a8	 mov	 DWORD PTR $T188907[ebp], edx
  0048f	8b 45 a8	 mov	 eax, DWORD PTR $T188907[ebp]
  00492	50		 push	 eax
  00493	e8 00 00 00 00	 call	 ??_V@YAXPAX@Z		; operator delete[]
  00498	83 c4 04	 add	 esp, 4

; 471  : 		m_pData = pNewData;

  0049b	8b 4d f0	 mov	 ecx, DWORD PTR _this$[ebp]
  0049e	8b 55 d4	 mov	 edx, DWORD PTR _pNewData$188154[ebp]
  004a1	89 51 04	 mov	 DWORD PTR [ecx+4], edx

; 472  : 		m_nSize = nNewSize;

  004a4	8b 45 f0	 mov	 eax, DWORD PTR _this$[ebp]
  004a7	8b 4d 08	 mov	 ecx, DWORD PTR _nNewSize$[ebp]
  004aa	89 48 08	 mov	 DWORD PTR [eax+8], ecx

; 473  : 		m_nMaxSize = nNewMax;

  004ad	8b 55 f0	 mov	 edx, DWORD PTR _this$[ebp]
  004b0	8b 45 d8	 mov	 eax, DWORD PTR _nNewMax$188145[ebp]
  004b3	89 42 0c	 mov	 DWORD PTR [edx+12], eax
$L188880:

; 474  : 	}
; 475  : }

  004b6	8b 4d f4	 mov	 ecx, DWORD PTR __$EHRec$[ebp]
  004b9	64 89 0d 00 00
	00 00		 mov	 DWORD PTR fs:__except_list, ecx
  004c0	5f		 pop	 edi
  004c1	83 c4 70	 add	 esp, 112		; 00000070H
  004c4	3b ec		 cmp	 ebp, esp
  004c6	e8 00 00 00 00	 call	 __RTC_CheckEsp
  004cb	8b e5		 mov	 esp, ebp
  004cd	5d		 pop	 ebp
  004ce	c2 08 00	 ret	 8
_TEXT	ENDS
;	COMDAT text$x
text$x	SEGMENT
$L188908:
  00000	8b 45 e4	 mov	 eax, DWORD PTR _i$188111[ebp]
  00003	c1 e0 05	 shl	 eax, 5
  00006	8b 4d f0	 mov	 ecx, DWORD PTR _this$[ebp]
  00009	03 41 04	 add	 eax, DWORD PTR [ecx+4]
  0000c	50		 push	 eax
  0000d	8b 55 c0	 mov	 edx, DWORD PTR $T188888[ebp]
  00010	52		 push	 edx
  00011	e8 00 00 00 00	 call	 ??3@YAXPAX0@Z		; operator delete
  00016	83 c4 08	 add	 esp, 8
  00019	c3		 ret	 0
$L188909:
  0001a	8b 45 f0	 mov	 eax, DWORD PTR _this$[ebp]
  0001d	8b 48 08	 mov	 ecx, DWORD PTR [eax+8]
  00020	c1 e1 05	 shl	 ecx, 5
  00023	8b 55 f0	 mov	 edx, DWORD PTR _this$[ebp]
  00026	8b 42 04	 mov	 eax, DWORD PTR [edx+4]
  00029	03 c1		 add	 eax, ecx
  0002b	8b 4d e0	 mov	 ecx, DWORD PTR _i$188127[ebp]
  0002e	c1 e1 05	 shl	 ecx, 5
  00031	03 c1		 add	 eax, ecx
  00033	50		 push	 eax
  00034	8b 55 b8	 mov	 edx, DWORD PTR $T188892[ebp]
  00037	52		 push	 edx
  00038	e8 00 00 00 00	 call	 ??3@YAXPAX0@Z		; operator delete
  0003d	83 c4 08	 add	 esp, 8
  00040	c3		 ret	 0
$L188910:
  00041	8b 45 f0	 mov	 eax, DWORD PTR _this$[ebp]
  00044	8b 48 08	 mov	 ecx, DWORD PTR [eax+8]
  00047	c1 e1 05	 shl	 ecx, 5
  0004a	03 4d d4	 add	 ecx, DWORD PTR _pNewData$188154[ebp]
  0004d	8b 55 d0	 mov	 edx, DWORD PTR _i$188167[ebp]
  00050	c1 e2 05	 shl	 edx, 5
  00053	03 ca		 add	 ecx, edx
  00055	51		 push	 ecx
  00056	8b 45 ac	 mov	 eax, DWORD PTR $T188904[ebp]
  00059	50		 push	 eax
  0005a	e8 00 00 00 00	 call	 ??3@YAXPAX0@Z		; operator delete
  0005f	83 c4 08	 add	 esp, 8
  00062	c3		 ret	 0
__ehhandler$?SetSize@?$CArray@UElemPos@CMarkup@@AAU12@@@QAEXHH@Z:
  00063	b8 00 00 00 00	 mov	 eax, OFFSET FLAT:$T188912
  00068	e9 00 00 00 00	 jmp	 ___CxxFrameHandler
text$x	ENDS
?SetSize@?$CArray@UElemPos@CMarkup@@AAU12@@@QAEXHH@Z ENDP ; CArray<CMarkup::ElemPos,CMarkup::ElemPos &>::SetSize
; Function compile flags: /Odt /RTCsu
; File d:\program files (x86)\microsoft visual studio .net 2003\vc7\include\new.h
;	COMDAT ??2@YAPAXIPAX@Z
_TEXT	SEGMENT
___formal$ = 8						; size = 4
__P$ = 12						; size = 4
??2@YAPAXIPAX@Z PROC NEAR				; operator new, COMDAT

; 109  :         {return (_P); }

  00000	55		 push	 ebp
  00001	8b ec		 mov	 ebp, esp
  00003	8b 45 0c	 mov	 eax, DWORD PTR __P$[ebp]
  00006	5d		 pop	 ebp
  00007	c3		 ret	 0
??2@YAPAXIPAX@Z ENDP					; operator new
; Function compile flags: /Odt /RTCsu
_TEXT	ENDS
;	COMDAT ??3@YAXPAX0@Z
_TEXT	SEGMENT
___formal$ = 8						; size = 4
___formal$ = 12						; size = 4
??3@YAXPAX0@Z PROC NEAR					; operator delete, COMDAT

; 112  :         {return; }

  00000	55		 push	 ebp
  00001	8b ec		 mov	 ebp, esp
  00003	5d		 pop	 ebp
  00004	c3		 ret	 0
??3@YAXPAX0@Z ENDP					; operator delete
_TEXT	ENDS
PUBLIC	?Clear@ElemPos@CMarkup@@QAEXXZ			; CMarkup::ElemPos::Clear
; Function compile flags: /Odt /RTCsu
; File d:\boxgit\playbox\playbox\dev\prj\playbox\src\util\markup.h
;	COMDAT ??0ElemPos@CMarkup@@QAE@XZ
_TEXT	SEGMENT
_this$ = -4						; size = 4
??0ElemPos@CMarkup@@QAE@XZ PROC NEAR			; CMarkup::ElemPos::ElemPos, COMDAT
; _this$ = ecx

; 86   : 		ElemPos() { Clear(); };

  00000	55		 push	 ebp
  00001	8b ec		 mov	 ebp, esp
  00003	51		 push	 ecx
  00004	c7 45 fc cc cc
	cc cc		 mov	 DWORD PTR [ebp-4], -858993460 ; ccccccccH
  0000b	89 4d fc	 mov	 DWORD PTR _this$[ebp], ecx
  0000e	8b 4d fc	 mov	 ecx, DWORD PTR _this$[ebp]
  00011	e8 00 00 00 00	 call	 ?Clear@ElemPos@CMarkup@@QAEXXZ ; CMarkup::ElemPos::Clear
  00016	8b 45 fc	 mov	 eax, DWORD PTR _this$[ebp]
  00019	83 c4 04	 add	 esp, 4
  0001c	3b ec		 cmp	 ebp, esp
  0001e	e8 00 00 00 00	 call	 __RTC_CheckEsp
  00023	8b e5		 mov	 esp, ebp
  00025	5d		 pop	 ebp
  00026	c3		 ret	 0
??0ElemPos@CMarkup@@QAE@XZ ENDP				; CMarkup::ElemPos::ElemPos
; Function compile flags: /Odt /RTCsu
_TEXT	ENDS
;	COMDAT ?Clear@ElemPos@CMarkup@@QAEXXZ
_TEXT	SEGMENT
_this$ = -4						; size = 4
?Clear@ElemPos@CMarkup@@QAEXXZ PROC NEAR		; CMarkup::ElemPos::Clear, COMDAT
; _this$ = ecx

; 90   : 		{

  00000	55		 push	 ebp
  00001	8b ec		 mov	 ebp, esp
  00003	51		 push	 ecx
  00004	c7 45 fc cc cc
	cc cc		 mov	 DWORD PTR [ebp-4], -858993460 ; ccccccccH
  0000b	89 4d fc	 mov	 DWORD PTR _this$[ebp], ecx

; 91   : 			nStartL=0; nStartR=0; nEndL=0; nEndR=0; nReserved=0;

  0000e	8b 45 fc	 mov	 eax, DWORD PTR _this$[ebp]
  00011	c7 00 00 00 00
	00		 mov	 DWORD PTR [eax], 0
  00017	8b 4d fc	 mov	 ecx, DWORD PTR _this$[ebp]
  0001a	c7 41 04 00 00
	00 00		 mov	 DWORD PTR [ecx+4], 0
  00021	8b 55 fc	 mov	 edx, DWORD PTR _this$[ebp]
  00024	c7 42 08 00 00
	00 00		 mov	 DWORD PTR [edx+8], 0
  0002b	8b 45 fc	 mov	 eax, DWORD PTR _this$[ebp]
  0002e	c7 40 0c 00 00
	00 00		 mov	 DWORD PTR [eax+12], 0
  00035	8b 4d fc	 mov	 ecx, DWORD PTR _this$[ebp]
  00038	c7 41 10 00 00
	00 00		 mov	 DWORD PTR [ecx+16], 0

; 92   : 			iElemParent=0; iElemChild=0; iElemNext=0;

  0003f	8b 55 fc	 mov	 edx, DWORD PTR _this$[ebp]
  00042	c7 42 14 00 00
	00 00		 mov	 DWORD PTR [edx+20], 0
  00049	8b 45 fc	 mov	 eax, DWORD PTR _this$[ebp]
  0004c	c7 40 18 00 00
	00 00		 mov	 DWORD PTR [eax+24], 0
  00053	8b 4d fc	 mov	 ecx, DWORD PTR _this$[ebp]
  00056	c7 41 1c 00 00
	00 00		 mov	 DWORD PTR [ecx+28], 0

; 93   : 		};

  0005d	8b e5		 mov	 esp, ebp
  0005f	5d		 pop	 ebp
  00060	c3		 ret	 0
?Clear@ElemPos@CMarkup@@QAEXXZ ENDP			; CMarkup::ElemPos::Clear
_TEXT	ENDS
PUBLIC	??_C@_0FH@BMBEKJNI@D?3?2Program?5Files?5?$CIx86?$CJ?2Microsoft@ ; `string'
;	COMDAT ??_C@_0FH@BMBEKJNI@D?3?2Program?5Files?5?$CIx86?$CJ?2Microsoft@
; File d:\program files (x86)\microsoft visual studio .net 2003\vc7\atlmfc\include\afxtempl.h
CONST	SEGMENT
??_C@_0FH@BMBEKJNI@D?3?2Program?5Files?5?$CIx86?$CJ?2Microsoft@ DB 'D:\Pr'
	DB	'ogram Files (x86)\Microsoft Visual Studio .NET 2003\Vc7\atlmf'
	DB	'c\include\afxtempl.h', 00H			; `string'
; Function compile flags: /Odt /RTCsu
CONST	ENDS
;	COMDAT ?ElementAt@?$CArray@UElemPos@CMarkup@@AAU12@@@QAEAAUElemPos@CMarkup@@H@Z
_TEXT	SEGMENT
_this$ = -4						; size = 4
_nIndex$ = 8						; size = 4
?ElementAt@?$CArray@UElemPos@CMarkup@@AAU12@@@QAEAAUElemPos@CMarkup@@H@Z PROC NEAR ; CArray<CMarkup::ElemPos,CMarkup::ElemPos &>::ElementAt, COMDAT
; _this$ = ecx

; 320  : { 

  00000	55		 push	 ebp
  00001	8b ec		 mov	 ebp, esp
  00003	51		 push	 ecx
  00004	c7 45 fc cc cc
	cc cc		 mov	 DWORD PTR [ebp-4], -858993460 ; ccccccccH
  0000b	89 4d fc	 mov	 DWORD PTR _this$[ebp], ecx

; 321  : 	ASSERT(nIndex >= 0 && nIndex < m_nSize);

  0000e	83 7d 08 00	 cmp	 DWORD PTR _nIndex$[ebp], 0
  00012	7c 0b		 jl	 SHORT $L188922
  00014	8b 45 fc	 mov	 eax, DWORD PTR _this$[ebp]
  00017	8b 4d 08	 mov	 ecx, DWORD PTR _nIndex$[ebp]
  0001a	3b 48 08	 cmp	 ecx, DWORD PTR [eax+8]
  0001d	7c 14		 jl	 SHORT $L188923
$L188922:
  0001f	68 41 01 00 00	 push	 321			; 00000141H
  00024	68 00 00 00 00	 push	 OFFSET FLAT:??_C@_0FH@BMBEKJNI@D?3?2Program?5Files?5?$CIx86?$CJ?2Microsoft@
  00029	e8 00 00 00 00	 call	 ?AfxAssertFailedLine@@YGHPBDH@Z ; AfxAssertFailedLine
  0002e	85 c0		 test	 eax, eax
  00030	74 01		 je	 SHORT $L188923
  00032	cc		 int	 3
$L188923:

; 322  : 	if(nIndex >= 0 && nIndex < m_nSize)

  00033	83 7d 08 00	 cmp	 DWORD PTR _nIndex$[ebp], 0
  00037	7c 19		 jl	 SHORT $L188187
  00039	8b 45 fc	 mov	 eax, DWORD PTR _this$[ebp]
  0003c	8b 4d 08	 mov	 ecx, DWORD PTR _nIndex$[ebp]
  0003f	3b 48 08	 cmp	 ecx, DWORD PTR [eax+8]
  00042	7d 0e		 jge	 SHORT $L188187

; 323  : 		return m_pData[nIndex]; 

  00044	8b 45 08	 mov	 eax, DWORD PTR _nIndex$[ebp]
  00047	c1 e0 05	 shl	 eax, 5
  0004a	8b 55 fc	 mov	 edx, DWORD PTR _this$[ebp]
  0004d	03 42 04	 add	 eax, DWORD PTR [edx+4]
  00050	eb 05		 jmp	 SHORT $L188921
$L188187:

; 324  : 	AfxThrowInvalidArgException();		

  00052	e8 00 00 00 00	 call	 ?AfxThrowInvalidArgException@@YGXXZ ; AfxThrowInvalidArgException
$L188921:

; 325  : }

  00057	83 c4 04	 add	 esp, 4
  0005a	3b ec		 cmp	 ebp, esp
  0005c	e8 00 00 00 00	 call	 __RTC_CheckEsp
  00061	8b e5		 mov	 esp, ebp
  00063	5d		 pop	 ebp
  00064	c2 04 00	 ret	 4
?ElementAt@?$CArray@UElemPos@CMarkup@@AAU12@@@QAEAAUElemPos@CMarkup@@H@Z ENDP ; CArray<CMarkup::ElemPos,CMarkup::ElemPos &>::ElementAt
_TEXT	ENDS
EXTRN	?Read@CArchive@@QAEIPAXI@Z:NEAR			; CArchive::Read
EXTRN	?Write@CArchive@@QAEXPBXI@Z:NEAR		; CArchive::Write
; Function compile flags: /Odt /RTCsu
;	COMDAT ??$SerializeElements@UElemPos@CMarkup@@@@YGXAAVCArchive@@PAUElemPos@CMarkup@@H@Z
_TEXT	SEGMENT
tv91 = -32						; size = 4
tv81 = -28						; size = 4
_nElementsToRead$188209 = -24				; size = 4
_nElementsLeft$188205 = -20				; size = 4
_pData$188204 = -16					; size = 4
_nElementsToWrite$188199 = -12				; size = 4
_nElementsLeft$188195 = -8				; size = 4
_pData$188194 = -4					; size = 4
_ar$ = 8						; size = 4
_pElements$ = 12					; size = 4
_nCount$ = 16						; size = 4
??$SerializeElements@UElemPos@CMarkup@@@@YGXAAVCArchive@@PAUElemPos@CMarkup@@H@Z PROC NEAR ; SerializeElements<CMarkup::ElemPos>, COMDAT

; 69   : {

  00000	55		 push	 ebp
  00001	8b ec		 mov	 ebp, esp
  00003	83 ec 20	 sub	 esp, 32			; 00000020H
  00006	b8 cc cc cc cc	 mov	 eax, -858993460		; ccccccccH
  0000b	89 45 e0	 mov	 DWORD PTR [ebp-32], eax
  0000e	89 45 e4	 mov	 DWORD PTR [ebp-28], eax
  00011	89 45 e8	 mov	 DWORD PTR [ebp-24], eax
  00014	89 45 ec	 mov	 DWORD PTR [ebp-20], eax
  00017	89 45 f0	 mov	 DWORD PTR [ebp-16], eax
  0001a	89 45 f4	 mov	 DWORD PTR [ebp-12], eax
  0001d	89 45 f8	 mov	 DWORD PTR [ebp-8], eax
  00020	89 45 fc	 mov	 DWORD PTR [ebp-4], eax

; 70   : 	ASSERT(nCount == 0 ||

  00023	83 7d 10 00	 cmp	 DWORD PTR _nCount$[ebp], 0
  00027	74 27		 je	 SHORT $L188925
  00029	6a 01		 push	 1
  0002b	8b 45 10	 mov	 eax, DWORD PTR _nCount$[ebp]
  0002e	c1 e0 05	 shl	 eax, 5
  00031	50		 push	 eax
  00032	8b 4d 0c	 mov	 ecx, DWORD PTR _pElements$[ebp]
  00035	51		 push	 ecx
  00036	e8 00 00 00 00	 call	 ?AfxIsValidAddress@@YGHPBXIH@Z ; AfxIsValidAddress
  0003b	85 c0		 test	 eax, eax
  0003d	75 11		 jne	 SHORT $L188925
  0003f	6a 47		 push	 71			; 00000047H
  00041	68 00 00 00 00	 push	 OFFSET FLAT:$SG188192
  00046	e8 00 00 00 00	 call	 ?AfxAssertFailedLine@@YGHPBDH@Z ; AfxAssertFailedLine
  0004b	85 c0		 test	 eax, eax
  0004d	74 01		 je	 SHORT $L188925
  0004f	cc		 int	 3
$L188925:

; 71   : 		AfxIsValidAddress(pElements, (size_t)nCount * sizeof(TYPE)));
; 72   : 
; 73   : 	// default is bit-wise read/write
; 74   : 	if (ar.IsStoring())

  00050	8b 4d 08	 mov	 ecx, DWORD PTR _ar$[ebp]
  00053	e8 00 00 00 00	 call	 ?IsStoring@CArchive@@QBEHXZ ; CArchive::IsStoring
  00058	85 c0		 test	 eax, eax
  0005a	74 5c		 je	 SHORT $L188193

; 75   :    {
; 76   : 	  TYPE* pData;
; 77   : 	  UINT_PTR nElementsLeft;
; 78   : 
; 79   : 	  nElementsLeft = nCount;

  0005c	8b 45 10	 mov	 eax, DWORD PTR _nCount$[ebp]
  0005f	89 45 f8	 mov	 DWORD PTR _nElementsLeft$188195[ebp], eax

; 80   : 	  pData = pElements;

  00062	8b 4d 0c	 mov	 ecx, DWORD PTR _pElements$[ebp]
  00065	89 4d fc	 mov	 DWORD PTR _pData$188194[ebp], ecx
$L188197:

; 81   : 	  while( nElementsLeft > 0 )

  00068	83 7d f8 00	 cmp	 DWORD PTR _nElementsLeft$188195[ebp], 0
  0006c	76 48		 jbe	 SHORT $L188198

; 82   : 	  {
; 83   : 		 UINT nElementsToWrite;
; 84   : 
; 85   : 		 nElementsToWrite = UINT(min(nElementsLeft, INT_MAX/sizeof(TYPE)));

  0006e	81 7d f8 ff ff
	ff 03		 cmp	 DWORD PTR _nElementsLeft$188195[ebp], 67108863 ; 03ffffffH
  00075	73 08		 jae	 SHORT $L188926
  00077	8b 55 f8	 mov	 edx, DWORD PTR _nElementsLeft$188195[ebp]
  0007a	89 55 e4	 mov	 DWORD PTR tv81[ebp], edx
  0007d	eb 07		 jmp	 SHORT $L188927
$L188926:
  0007f	c7 45 e4 ff ff
	ff 03		 mov	 DWORD PTR tv81[ebp], 67108863 ; 03ffffffH
$L188927:
  00086	8b 45 e4	 mov	 eax, DWORD PTR tv81[ebp]
  00089	89 45 f4	 mov	 DWORD PTR _nElementsToWrite$188199[ebp], eax

; 86   : 		 ar.Write(pData, nElementsToWrite*sizeof(TYPE));

  0008c	8b 4d f4	 mov	 ecx, DWORD PTR _nElementsToWrite$188199[ebp]
  0008f	c1 e1 05	 shl	 ecx, 5
  00092	51		 push	 ecx
  00093	8b 55 fc	 mov	 edx, DWORD PTR _pData$188194[ebp]
  00096	52		 push	 edx
  00097	8b 4d 08	 mov	 ecx, DWORD PTR _ar$[ebp]
  0009a	e8 00 00 00 00	 call	 ?Write@CArchive@@QAEXPBXI@Z ; CArchive::Write

; 87   : 		 nElementsLeft -= nElementsToWrite;

  0009f	8b 45 f8	 mov	 eax, DWORD PTR _nElementsLeft$188195[ebp]
  000a2	2b 45 f4	 sub	 eax, DWORD PTR _nElementsToWrite$188199[ebp]
  000a5	89 45 f8	 mov	 DWORD PTR _nElementsLeft$188195[ebp], eax

; 88   : 		 pData += nElementsToWrite;

  000a8	8b 4d f4	 mov	 ecx, DWORD PTR _nElementsToWrite$188199[ebp]
  000ab	c1 e1 05	 shl	 ecx, 5
  000ae	03 4d fc	 add	 ecx, DWORD PTR _pData$188194[ebp]
  000b1	89 4d fc	 mov	 DWORD PTR _pData$188194[ebp], ecx

; 89   : 	  }

  000b4	eb b2		 jmp	 SHORT $L188197
$L188198:

; 90   :    }
; 91   : 	else

  000b6	eb 5a		 jmp	 SHORT $L188188
$L188193:

; 92   :    {
; 93   : 	  TYPE* pData;
; 94   : 	  UINT_PTR nElementsLeft;
; 95   : 
; 96   : 	  nElementsLeft = nCount;

  000b8	8b 55 10	 mov	 edx, DWORD PTR _nCount$[ebp]
  000bb	89 55 ec	 mov	 DWORD PTR _nElementsLeft$188205[ebp], edx

; 97   : 	  pData = pElements;

  000be	8b 45 0c	 mov	 eax, DWORD PTR _pElements$[ebp]
  000c1	89 45 f0	 mov	 DWORD PTR _pData$188204[ebp], eax
$L188207:

; 98   : 	  while( nElementsLeft > 0 )

  000c4	83 7d ec 00	 cmp	 DWORD PTR _nElementsLeft$188205[ebp], 0
  000c8	76 48		 jbe	 SHORT $L188188

; 99   : 	  {
; 100  : 		 UINT nElementsToRead;
; 101  : 
; 102  : 		 nElementsToRead = UINT(min(nElementsLeft, INT_MAX/sizeof(TYPE)));

  000ca	81 7d ec ff ff
	ff 03		 cmp	 DWORD PTR _nElementsLeft$188205[ebp], 67108863 ; 03ffffffH
  000d1	73 08		 jae	 SHORT $L188928
  000d3	8b 4d ec	 mov	 ecx, DWORD PTR _nElementsLeft$188205[ebp]
  000d6	89 4d e0	 mov	 DWORD PTR tv91[ebp], ecx
  000d9	eb 07		 jmp	 SHORT $L188929
$L188928:
  000db	c7 45 e0 ff ff
	ff 03		 mov	 DWORD PTR tv91[ebp], 67108863 ; 03ffffffH
$L188929:
  000e2	8b 55 e0	 mov	 edx, DWORD PTR tv91[ebp]
  000e5	89 55 e8	 mov	 DWORD PTR _nElementsToRead$188209[ebp], edx

; 103  : 		 ar.Read(pData, nElementsToRead*sizeof(TYPE));

  000e8	8b 45 e8	 mov	 eax, DWORD PTR _nElementsToRead$188209[ebp]
  000eb	c1 e0 05	 shl	 eax, 5
  000ee	50		 push	 eax
  000ef	8b 4d f0	 mov	 ecx, DWORD PTR _pData$188204[ebp]
  000f2	51		 push	 ecx
  000f3	8b 4d 08	 mov	 ecx, DWORD PTR _ar$[ebp]
  000f6	e8 00 00 00 00	 call	 ?Read@CArchive@@QAEIPAXI@Z ; CArchive::Read

; 104  : 		 nElementsLeft -= nElementsToRead;

  000fb	8b 55 ec	 mov	 edx, DWORD PTR _nElementsLeft$188205[ebp]
  000fe	2b 55 e8	 sub	 edx, DWORD PTR _nElementsToRead$188209[ebp]
  00101	89 55 ec	 mov	 DWORD PTR _nElementsLeft$188205[ebp], edx

; 105  : 		 pData += nElementsToRead;

  00104	8b 45 e8	 mov	 eax, DWORD PTR _nElementsToRead$188209[ebp]
  00107	c1 e0 05	 shl	 eax, 5
  0010a	03 45 f0	 add	 eax, DWORD PTR _pData$188204[ebp]
  0010d	89 45 f0	 mov	 DWORD PTR _pData$188204[ebp], eax

; 106  : 	  }

  00110	eb b2		 jmp	 SHORT $L188207
$L188188:

; 107  :    }
; 108  : }

  00112	83 c4 20	 add	 esp, 32			; 00000020H
  00115	3b ec		 cmp	 ebp, esp
  00117	e8 00 00 00 00	 call	 __RTC_CheckEsp
  0011c	8b e5		 mov	 esp, ebp
  0011e	5d		 pop	 ebp
  0011f	c2 0c 00	 ret	 12			; 0000000cH
??$SerializeElements@UElemPos@CMarkup@@@@YGXAAVCArchive@@PAUElemPos@CMarkup@@H@Z ENDP ; SerializeElements<CMarkup::ElemPos>
; Function compile flags: /Odt /RTCsu
_TEXT	ENDS
;	COMDAT ??$DumpElements@UElemPos@CMarkup@@@@YGXAAVCDumpContext@@PBUElemPos@CMarkup@@H@Z
_TEXT	SEGMENT
_dc$ = 8						; size = 4
_pElements$ = 12					; size = 4
_nCount$ = 16						; size = 4
??$DumpElements@UElemPos@CMarkup@@@@YGXAAVCDumpContext@@PBUElemPos@CMarkup@@H@Z PROC NEAR ; DumpElements<CMarkup::ElemPos>, COMDAT

; 137  : {

  00000	55		 push	 ebp
  00001	8b ec		 mov	 ebp, esp

; 138  : 	ASSERT(nCount == 0 ||

  00003	83 7d 10 00	 cmp	 DWORD PTR _nCount$[ebp], 0
  00007	74 2a		 je	 SHORT $L188213
  00009	6a 00		 push	 0
  0000b	8b 45 10	 mov	 eax, DWORD PTR _nCount$[ebp]
  0000e	c1 e0 05	 shl	 eax, 5
  00011	50		 push	 eax
  00012	8b 4d 0c	 mov	 ecx, DWORD PTR _pElements$[ebp]
  00015	51		 push	 ecx
  00016	e8 00 00 00 00	 call	 ?AfxIsValidAddress@@YGHPBXIH@Z ; AfxIsValidAddress
  0001b	85 c0		 test	 eax, eax
  0001d	75 14		 jne	 SHORT $L188213
  0001f	68 8b 00 00 00	 push	 139			; 0000008bH
  00024	68 00 00 00 00	 push	 OFFSET FLAT:$SG188217
  00029	e8 00 00 00 00	 call	 ?AfxAssertFailedLine@@YGHPBDH@Z ; AfxAssertFailedLine
  0002e	85 c0		 test	 eax, eax
  00030	74 01		 je	 SHORT $L188213
  00032	cc		 int	 3
$L188213:

; 139  : 		AfxIsValidAddress(pElements, (size_t)nCount * sizeof(TYPE), FALSE));
; 140  : 	&dc; // not used
; 141  : 	pElements;  // not used
; 142  : 	nCount; // not used
; 143  : 
; 144  : 	// default does nothing
; 145  : }

  00033	3b ec		 cmp	 ebp, esp
  00035	e8 00 00 00 00	 call	 __RTC_CheckEsp
  0003a	5d		 pop	 ebp
  0003b	c2 0c 00	 ret	 12			; 0000000cH
??$DumpElements@UElemPos@CMarkup@@@@YGXAAVCDumpContext@@PBUElemPos@CMarkup@@H@Z ENDP ; DumpElements<CMarkup::ElemPos>
_TEXT	ENDS
END
