; Listing generated by Microsoft (R) Optimizing Compiler Version 13.10.3077 

	TITLE	.\src\module\TopPanel\MinOrExit.cpp
	.386P
include listing.inc
if @Version gt 510
.model FLAT
else
_TEXT	SEGMENT PARA USE32 PUBLIC 'CODE'
_TEXT	ENDS
_DATA	SEGMENT DWORD USE32 PUBLIC 'DATA'
_DATA	ENDS
CONST	SEGMENT DWORD USE32 PUBLIC 'CONST'
CONST	ENDS
_BSS	SEGMENT DWORD USE32 PUBLIC 'BSS'
_BSS	ENDS
$$SYMBOLS	SEGMENT BYTE USE32 'DEBSYM'
$$SYMBOLS	ENDS
_TLS	SEGMENT DWORD USE32 PUBLIC 'TLS'
_TLS	ENDS
;	COMDAT ??_C@_0EN@IBFBLEEG@D?3?2Program?5Files?5?$CIx86?$CJ?2Microsoft@
CONST	SEGMENT DWORD USE32 PUBLIC 'CONST'
CONST	ENDS
;	COMDAT ??_C@_0BD@OLBABOEK@vector?$DMT?$DO?5too?5long?$AA@
CONST	SEGMENT DWORD USE32 PUBLIC 'CONST'
CONST	ENDS
rdata$r	SEGMENT DWORD USE32 PUBLIC 'CONST'
rdata$r	ENDS
xdata$x	SEGMENT DWORD USE32 PUBLIC 'CONST'
xdata$x	ENDS
text$AFX_COL1	SEGMENT PARA USE32 PUBLIC ''
text$AFX_COL1	ENDS
text$yc	SEGMENT PARA USE32 PUBLIC 'CODE'
text$yc	ENDS
CRT$XCA	SEGMENT DWORD USE32 PUBLIC 'DATA'
CRT$XCA	ENDS
CRT$XCU	SEGMENT DWORD USE32 PUBLIC 'DATA'
CRT$XCU	ENDS
CRT$XCL	SEGMENT DWORD USE32 PUBLIC 'DATA'
CRT$XCL	ENDS
CRT$XCC	SEGMENT DWORD USE32 PUBLIC 'DATA'
CRT$XCC	ENDS
CRT$XCZ	SEGMENT DWORD USE32 PUBLIC 'DATA'
CRT$XCZ	ENDS
text$yd	SEGMENT PARA USE32 PUBLIC 'CODE'
text$yd	ENDS
ATL$__m	SEGMENT DWORD USE32 PUBLIC ''
ATL$__m	ENDS
ATL$__z	SEGMENT DWORD USE32 PUBLIC ''
ATL$__z	ENDS
ATL$__a	SEGMENT DWORD USE32 PUBLIC ''
ATL$__a	ENDS
;	COMDAT ??1IData@@MAE@XZ
_TEXT	SEGMENT PARA USE32 PUBLIC 'CODE'
_TEXT	ENDS
;	COMDAT ?DataAppStart@IData@@UAEXXZ
_TEXT	SEGMENT PARA USE32 PUBLIC 'CODE'
_TEXT	ENDS
;	COMDAT ?DataAppExit@IData@@UAEXXZ
_TEXT	SEGMENT PARA USE32 PUBLIC 'CODE'
_TEXT	ENDS
;	COMDAT ??_GIData@@MAEPAXI@Z
_TEXT	SEGMENT PARA USE32 PUBLIC 'CODE'
_TEXT	ENDS
;	COMDAT _$E5
text$yc	SEGMENT PARA USE32 PUBLIC 'CODE'
text$yc	ENDS
;	COMDAT ?GetMainWnd@CHostWndMgr@@QAEPAVCWnd@@XZ
_TEXT	SEGMENT PARA USE32 PUBLIC 'CODE'
_TEXT	ENDS
;	COMDAT ??_GCMinOrExit@@UAEPAXI@Z
_TEXT	SEGMENT PARA USE32 PUBLIC 'CODE'
_TEXT	ENDS
;	COMDAT ??B?$CComPtrBase@UITypeInfo2@@@ATL@@QBEPAUITypeInfo2@@XZ
_TEXT	SEGMENT PARA USE32 PUBLIC 'CODE'
_TEXT	ENDS
;	COMDAT ?equal@?$istreambuf_iterator@DU?$char_traits@D@std@@@std@@QBE_NABV12@@Z
_TEXT	SEGMENT PARA USE32 PUBLIC 'CODE'
_TEXT	ENDS
;	COMDAT ?equal@?$istreambuf_iterator@_WU?$char_traits@_W@std@@@std@@QBE_NABV12@@Z
_TEXT	SEGMENT PARA USE32 PUBLIC 'CODE'
_TEXT	ENDS
;	COMDAT ?push_back@?$vector@PAVILyricPopupWndShowObserver@@V?$allocator@PAVILyricPopupWndShowObserver@@@std@@@std@@QAEXABQAVILyricPopupWndShowObserver@@@Z
_TEXT	SEGMENT PARA USE32 PUBLIC 'CODE'
_TEXT	ENDS
;	COMDAT ?capacity@?$vector@PAVILyricPopupWndShowObserver@@V?$allocator@PAVILyricPopupWndShowObserver@@@std@@@std@@QBEIXZ
_TEXT	SEGMENT PARA USE32 PUBLIC 'CODE'
_TEXT	ENDS
;	COMDAT ?end@?$vector@PAVILyricPopupWndShowObserver@@V?$allocator@PAVILyricPopupWndShowObserver@@@std@@@std@@QAE?AViterator@12@XZ
_TEXT	SEGMENT PARA USE32 PUBLIC 'CODE'
_TEXT	ENDS
;	COMDAT ?size@?$vector@PAVILyricPopupWndShowObserver@@V?$allocator@PAVILyricPopupWndShowObserver@@@std@@@std@@QBEIXZ
_TEXT	SEGMENT PARA USE32 PUBLIC 'CODE'
_TEXT	ENDS
;	COMDAT ?insert@?$vector@PAVILyricPopupWndShowObserver@@V?$allocator@PAVILyricPopupWndShowObserver@@@std@@@std@@QAE?AViterator@12@V312@ABQAVILyricPopupWndShowObserver@@@Z
_TEXT	SEGMENT PARA USE32 PUBLIC 'CODE'
_TEXT	ENDS
;	COMDAT ?_Ufill@?$vector@PAVILyricPopupWndShowObserver@@V?$allocator@PAVILyricPopupWndShowObserver@@@std@@@std@@IAEPAPAVILyricPopupWndShowObserver@@PAPAV3@IABQAV3@@Z
_TEXT	SEGMENT PARA USE32 PUBLIC 'CODE'
_TEXT	ENDS
;	COMDAT ?begin@?$vector@PAVILyricPopupWndShowObserver@@V?$allocator@PAVILyricPopupWndShowObserver@@@std@@@std@@QAE?AViterator@12@XZ
_TEXT	SEGMENT PARA USE32 PUBLIC 'CODE'
_TEXT	ENDS
;	COMDAT ?_Insert_n@?$vector@PAVILyricPopupWndShowObserver@@V?$allocator@PAVILyricPopupWndShowObserver@@@std@@@std@@IAEXViterator@12@IABQAVILyricPopupWndShowObserver@@@Z
_TEXT	SEGMENT PARA USE32 PUBLIC 'CODE'
_TEXT	ENDS
;	COMDAT ??0iterator@?$vector@PAVILyricPopupWndShowObserver@@V?$allocator@PAVILyricPopupWndShowObserver@@@std@@@std@@QAE@PAPAVILyricPopupWndShowObserver@@@Z
_TEXT	SEGMENT PARA USE32 PUBLIC 'CODE'
_TEXT	ENDS
;	COMDAT ??Hiterator@?$vector@PAVILyricPopupWndShowObserver@@V?$allocator@PAVILyricPopupWndShowObserver@@@std@@@std@@QBE?AV012@H@Z
_TEXT	SEGMENT PARA USE32 PUBLIC 'CODE'
_TEXT	ENDS
;	COMDAT ??Giterator@?$vector@PAVILyricPopupWndShowObserver@@V?$allocator@PAVILyricPopupWndShowObserver@@@std@@@std@@QBEHABVconst_iterator@12@@Z
_TEXT	SEGMENT PARA USE32 PUBLIC 'CODE'
_TEXT	ENDS
;	COMDAT ?max_size@?$vector@PAVILyricPopupWndShowObserver@@V?$allocator@PAVILyricPopupWndShowObserver@@@std@@@std@@QBEIXZ
_TEXT	SEGMENT PARA USE32 PUBLIC 'CODE'
_TEXT	ENDS
;	COMDAT ?_Destroy@?$vector@PAVILyricPopupWndShowObserver@@V?$allocator@PAVILyricPopupWndShowObserver@@@std@@@std@@IAEXPAPAVILyricPopupWndShowObserver@@0@Z
_TEXT	SEGMENT PARA USE32 PUBLIC 'CODE'
_TEXT	ENDS
;	COMDAT ?_Xlen@?$vector@PAVILyricPopupWndShowObserver@@V?$allocator@PAVILyricPopupWndShowObserver@@@std@@@std@@IBEXXZ
_TEXT	SEGMENT PARA USE32 PUBLIC 'CODE'
_TEXT	ENDS
;	COMDAT ?deallocate@?$allocator@PAVILyricPopupWndShowObserver@@@std@@QAEXPAPAVILyricPopupWndShowObserver@@I@Z
_TEXT	SEGMENT PARA USE32 PUBLIC 'CODE'
_TEXT	ENDS
;	COMDAT ?allocate@?$allocator@PAVILyricPopupWndShowObserver@@@std@@QAEPAPAVILyricPopupWndShowObserver@@I@Z
_TEXT	SEGMENT PARA USE32 PUBLIC 'CODE'
_TEXT	ENDS
;	COMDAT ??Yiterator@?$vector@PAVILyricPopupWndShowObserver@@V?$allocator@PAVILyricPopupWndShowObserver@@@std@@@std@@QAEAAV012@H@Z
_TEXT	SEGMENT PARA USE32 PUBLIC 'CODE'
_TEXT	ENDS
;	COMDAT ??0const_iterator@?$vector@PAVILyricPopupWndShowObserver@@V?$allocator@PAVILyricPopupWndShowObserver@@@std@@@std@@QAE@PAPAVILyricPopupWndShowObserver@@@Z
_TEXT	SEGMENT PARA USE32 PUBLIC 'CODE'
_TEXT	ENDS
;	COMDAT ??Gconst_iterator@?$vector@PAVILyricPopupWndShowObserver@@V?$allocator@PAVILyricPopupWndShowObserver@@@std@@@std@@QBEHABV012@@Z
_TEXT	SEGMENT PARA USE32 PUBLIC 'CODE'
_TEXT	ENDS
;	COMDAT ??0length_error@std@@QAE@ABV01@@Z
_TEXT	SEGMENT PARA USE32 PUBLIC 'CODE'
_TEXT	ENDS
;	COMDAT ?max_size@?$allocator@PAVILyricPopupWndShowObserver@@@std@@QBEIXZ
_TEXT	SEGMENT PARA USE32 PUBLIC 'CODE'
_TEXT	ENDS
;	COMDAT ?Unlock@?$CComCritSecLock@VCComCriticalSection@ATL@@@ATL@@QAEXXZ
_TEXT	SEGMENT PARA USE32 PUBLIC 'CODE'
_TEXT	ENDS
;	COMDAT ??$_Uninitialized_fill_n@PAPAVILyricPopupWndShowObserver@@IPAV1@V?$allocator@PAVILyricPopupWndShowObserver@@@std@@@std@@YAXPAPAVILyricPopupWndShowObserver@@IABQAV1@AAV?$allocator@PAVILyricPopupWndShowObserver@@@0@@Z
_TEXT	SEGMENT PARA USE32 PUBLIC 'CODE'
_TEXT	ENDS
;	COMDAT ??$_Maklocstr@D@std@@YAPADPBDPADABU_Cvtvec@@@Z
_TEXT	SEGMENT PARA USE32 PUBLIC 'CODE'
_TEXT	ENDS
;	COMDAT ??$_Ucopy@PAPAVILyricPopupWndShowObserver@@@?$vector@PAVILyricPopupWndShowObserver@@V?$allocator@PAVILyricPopupWndShowObserver@@@std@@@std@@IAEPAPAVILyricPopupWndShowObserver@@PAPAV2@00@Z
_TEXT	SEGMENT PARA USE32 PUBLIC 'CODE'
_TEXT	ENDS
;	COMDAT ??$fill@PAPAVILyricPopupWndShowObserver@@PAV1@@std@@YAXPAPAVILyricPopupWndShowObserver@@0ABQAV1@@Z
_TEXT	SEGMENT PARA USE32 PUBLIC 'CODE'
_TEXT	ENDS
;	COMDAT ??$copy_backward@PAPAVILyricPopupWndShowObserver@@PAPAV1@@std@@YAPAPAVILyricPopupWndShowObserver@@PAPAV1@00@Z
_TEXT	SEGMENT PARA USE32 PUBLIC 'CODE'
_TEXT	ENDS
;	COMDAT ??$_Destroy_range@PAVILyricPopupWndShowObserver@@V?$allocator@PAVILyricPopupWndShowObserver@@@std@@@std@@YAXPAPAVILyricPopupWndShowObserver@@0AAV?$allocator@PAVILyricPopupWndShowObserver@@@0@@Z
_TEXT	SEGMENT PARA USE32 PUBLIC 'CODE'
_TEXT	ENDS
;	COMDAT ??$_Allocate@PAVILyricPopupWndShowObserver@@@std@@YAPAPAVILyricPopupWndShowObserver@@IPAPAV1@@Z
_TEXT	SEGMENT PARA USE32 PUBLIC 'CODE'
_TEXT	ENDS
;	COMDAT ??$_Ptr_cat@VILyricPopupWndShowObserver@@@std@@YA?AU_Scalar_ptr_iterator_tag@0@PAPAVILyricPopupWndShowObserver@@0@Z
_TEXT	SEGMENT PARA USE32 PUBLIC 'CODE'
_TEXT	ENDS
;	COMDAT ??$_Uninit_fill_n@PAVILyricPopupWndShowObserver@@IPAV1@@std@@YAXPAPAVILyricPopupWndShowObserver@@IABQAV1@AAV?$allocator@PAVILyricPopupWndShowObserver@@@0@U_Scalar_ptr_iterator_tag@0@@Z
_TEXT	SEGMENT PARA USE32 PUBLIC 'CODE'
_TEXT	ENDS
;	COMDAT ??$_Uninitialized_copy@PAPAVILyricPopupWndShowObserver@@PAPAV1@V?$allocator@PAVILyricPopupWndShowObserver@@@std@@@std@@YAPAPAVILyricPopupWndShowObserver@@PAPAV1@00AAV?$allocator@PAVILyricPopupWndShowObserver@@@0@@Z
_TEXT	SEGMENT PARA USE32 PUBLIC 'CODE'
_TEXT	ENDS
;	COMDAT ??$_Copy_backward_opt@PAPAVILyricPopupWndShowObserver@@PAPAV1@@std@@YAPAPAVILyricPopupWndShowObserver@@PAPAV1@00U_Scalar_ptr_iterator_tag@0@@Z
_TEXT	SEGMENT PARA USE32 PUBLIC 'CODE'
_TEXT	ENDS
;	COMDAT ??$_Destroy_range@PAVILyricPopupWndShowObserver@@V?$allocator@PAVILyricPopupWndShowObserver@@@std@@@std@@YAXPAPAVILyricPopupWndShowObserver@@0AAV?$allocator@PAVILyricPopupWndShowObserver@@@0@U_Scalar_ptr_iterator_tag@0@@Z
_TEXT	SEGMENT PARA USE32 PUBLIC 'CODE'
_TEXT	ENDS
;	COMDAT ??$fill_n@PAPAVILyricPopupWndShowObserver@@IPAV1@@std@@YAXPAPAVILyricPopupWndShowObserver@@IABQAV1@@Z
_TEXT	SEGMENT PARA USE32 PUBLIC 'CODE'
_TEXT	ENDS
;	COMDAT ??$_Uninit_copy@PAVILyricPopupWndShowObserver@@PAV1@@std@@YAPAPAVILyricPopupWndShowObserver@@PAPAV1@00AAV?$allocator@PAVILyricPopupWndShowObserver@@@0@U_Scalar_ptr_iterator_tag@0@@Z
_TEXT	SEGMENT PARA USE32 PUBLIC 'CODE'
_TEXT	ENDS
;	COMDAT ??_R3?$numpunct@_W@std@@8
rdata$r	SEGMENT DWORD USE32 PUBLIC 'CONST'
rdata$r	ENDS
;	COMDAT ??_R3?$numpunct@D@std@@8
rdata$r	SEGMENT DWORD USE32 PUBLIC 'CONST'
rdata$r	ENDS
;	COMDAT ??_R3IData@@8
rdata$r	SEGMENT DWORD USE32 PUBLIC 'CONST'
rdata$r	ENDS
;	COMDAT ??_R3CMinOrExit@@8
rdata$r	SEGMENT DWORD USE32 PUBLIC 'CONST'
rdata$r	ENDS
;	COMDAT ??_R2?$numpunct@_W@std@@8
rdata$r	SEGMENT DWORD USE32 PUBLIC 'CONST'
rdata$r	ENDS
;	COMDAT ??_R2?$numpunct@D@std@@8
rdata$r	SEGMENT DWORD USE32 PUBLIC 'CONST'
rdata$r	ENDS
;	COMDAT ??_R2IData@@8
rdata$r	SEGMENT DWORD USE32 PUBLIC 'CONST'
rdata$r	ENDS
;	COMDAT ??_R2CMinOrExit@@8
rdata$r	SEGMENT DWORD USE32 PUBLIC 'CONST'
rdata$r	ENDS
;	COMDAT ??_R1A@?0A@A@?$numpunct@_W@std@@8
rdata$r	SEGMENT DWORD USE32 PUBLIC 'CONST'
rdata$r	ENDS
;	COMDAT ??_R1A@?0A@A@facet@locale@std@@8
rdata$r	SEGMENT DWORD USE32 PUBLIC 'CONST'
rdata$r	ENDS
;	COMDAT ??_R0?AVfacet@locale@std@@@8
_DATA	SEGMENT DWORD USE32 PUBLIC 'DATA'
_DATA	ENDS
;	COMDAT ??_R1A@?0A@A@?$numpunct@D@std@@8
rdata$r	SEGMENT DWORD USE32 PUBLIC 'CONST'
rdata$r	ENDS
;	COMDAT ??_R1A@?0A@A@IData@@8
rdata$r	SEGMENT DWORD USE32 PUBLIC 'CONST'
rdata$r	ENDS
;	COMDAT ??_R1A@?0A@A@CObject@@8
rdata$r	SEGMENT DWORD USE32 PUBLIC 'CONST'
rdata$r	ENDS
;	COMDAT ??_R0?AVCObject@@@8
_DATA	SEGMENT DWORD USE32 PUBLIC 'DATA'
_DATA	ENDS
;	COMDAT ??_R1A@?0A@A@CCmdTarget@@8
rdata$r	SEGMENT DWORD USE32 PUBLIC 'CONST'
rdata$r	ENDS
;	COMDAT ??_R0?AVCCmdTarget@@@8
_DATA	SEGMENT DWORD USE32 PUBLIC 'DATA'
_DATA	ENDS
;	COMDAT ??_R1A@?0A@A@CWnd@@8
rdata$r	SEGMENT DWORD USE32 PUBLIC 'CONST'
rdata$r	ENDS
;	COMDAT ??_R0?AVCWnd@@@8
_DATA	SEGMENT DWORD USE32 PUBLIC 'DATA'
_DATA	ENDS
;	COMDAT ??_R1A@?0A@A@CDialog@@8
rdata$r	SEGMENT DWORD USE32 PUBLIC 'CONST'
rdata$r	ENDS
;	COMDAT ??_R0?AVCDialog@@@8
_DATA	SEGMENT DWORD USE32 PUBLIC 'DATA'
_DATA	ENDS
;	COMDAT ??_R1A@?0A@A@CMinOrExit@@8
rdata$r	SEGMENT DWORD USE32 PUBLIC 'CONST'
rdata$r	ENDS
;	COMDAT ??_R0?AV?$numpunct@_W@std@@@8
_DATA	SEGMENT DWORD USE32 PUBLIC 'DATA'
_DATA	ENDS
;	COMDAT ??_R0?AV?$numpunct@D@std@@@8
_DATA	SEGMENT DWORD USE32 PUBLIC 'DATA'
_DATA	ENDS
;	COMDAT ??_R0?AVIData@@@8
_DATA	SEGMENT DWORD USE32 PUBLIC 'DATA'
_DATA	ENDS
;	COMDAT ??_R0?AVCMinOrExit@@@8
_DATA	SEGMENT DWORD USE32 PUBLIC 'DATA'
_DATA	ENDS
;	COMDAT ??0?$allocator@_W@std@@QAE@XZ
_TEXT	SEGMENT PARA USE32 PUBLIC 'CODE'
_TEXT	ENDS
;	COMDAT ??_G?$numpunct@_W@std@@MAEPAXI@Z
_TEXT	SEGMENT PARA USE32 PUBLIC 'CODE'
_TEXT	ENDS
;	COMDAT ??_R4?$numpunct@_W@std@@6B@
rdata$r	SEGMENT DWORD USE32 PUBLIC 'CONST'
rdata$r	ENDS
;	COMDAT ??_G?$numpunct@D@std@@MAEPAXI@Z
_TEXT	SEGMENT PARA USE32 PUBLIC 'CODE'
_TEXT	ENDS
;	COMDAT ??_R4?$numpunct@D@std@@6B@
rdata$r	SEGMENT DWORD USE32 PUBLIC 'CONST'
rdata$r	ENDS
;	COMDAT ??_R4IData@@6B@
rdata$r	SEGMENT DWORD USE32 PUBLIC 'CONST'
rdata$r	ENDS
;	COMDAT ??_R4CMinOrExit@@6B@
rdata$r	SEGMENT DWORD USE32 PUBLIC 'CONST'
rdata$r	ENDS
;	COMDAT ??_C@_0EN@CBMLGOH@D?3?2Program?5Files?5?$CIx86?$CJ?2Microsoft@
CONST	SEGMENT DWORD USE32 PUBLIC 'CONST'
CONST	ENDS
;	COMDAT ?_Psave@?$_Facetptr@V?$numpunct@_W@std@@@std@@2PBVfacet@locale@2@B
_DATA	SEGMENT DWORD USE32 PUBLIC 'DATA'
_DATA	ENDS
;	COMDAT ?_Psave@?$_Facetptr@V?$numpunct@D@std@@@std@@2PBVfacet@locale@2@B
_DATA	SEGMENT DWORD USE32 PUBLIC 'DATA'
_DATA	ENDS
;	COMDAT ?Unlock@CComCriticalSection@ATL@@QAEJXZ
_TEXT	SEGMENT PARA USE32 PUBLIC 'CODE'
_TEXT	ENDS
;	COMDAT ??_C@_0FG@LDNDNCJM@D?3?2Program?5Files?5?$CIx86?$CJ?2Microsoft@
CONST	SEGMENT DWORD USE32 PUBLIC 'CONST'
CONST	ENDS
;	COMDAT ??_C@_09HIEJFN@m_bLocked?$AA@
CONST	SEGMENT DWORD USE32 PUBLIC 'CONST'
CONST	ENDS
;	COMDAT ?_Psave@?$_Facetptr@V?$ctype@_W@std@@@std@@2PBVfacet@locale@2@B
_DATA	SEGMENT DWORD USE32 PUBLIC 'DATA'
_DATA	ENDS
;	COMDAT ?_Psave@?$_Facetptr@V?$ctype@D@std@@@std@@2PBVfacet@locale@2@B
_DATA	SEGMENT DWORD USE32 PUBLIC 'DATA'
_DATA	ENDS
;	COMDAT ??_7length_error@std@@6B@
CONST	SEGMENT DWORD USE32 PUBLIC 'CONST'
CONST	ENDS
;	COMDAT ??_R4length_error@std@@6B@
rdata$r	SEGMENT DWORD USE32 PUBLIC 'CONST'
rdata$r	ENDS
;	COMDAT ??_R3length_error@std@@8
rdata$r	SEGMENT DWORD USE32 PUBLIC 'CONST'
rdata$r	ENDS
;	COMDAT ??_R2length_error@std@@8
rdata$r	SEGMENT DWORD USE32 PUBLIC 'CONST'
rdata$r	ENDS
;	COMDAT ??_R1A@?0A@A@length_error@std@@8
rdata$r	SEGMENT DWORD USE32 PUBLIC 'CONST'
rdata$r	ENDS
;	COMDAT ??_R1A@?0A@A@logic_error@std@@8
rdata$r	SEGMENT DWORD USE32 PUBLIC 'CONST'
rdata$r	ENDS
;	COMDAT ??_R0?AVlogic_error@std@@@8
_DATA	SEGMENT DWORD USE32 PUBLIC 'DATA'
_DATA	ENDS
;	COMDAT ??_R1A@?0A@A@exception@@8
rdata$r	SEGMENT DWORD USE32 PUBLIC 'CONST'
rdata$r	ENDS
;	COMDAT ??_R0?AVexception@@@8
_DATA	SEGMENT DWORD USE32 PUBLIC 'DATA'
_DATA	ENDS
;	COMDAT ??_Glength_error@std@@UAEPAXI@Z
_TEXT	SEGMENT PARA USE32 PUBLIC 'CODE'
_TEXT	ENDS
;	COMDAT ?what@logic_error@std@@UBEPBDXZ
_TEXT	SEGMENT PARA USE32 PUBLIC 'CODE'
_TEXT	ENDS
;	COMDAT ??1logic_error@std@@UAE@XZ
_TEXT	SEGMENT PARA USE32 PUBLIC 'CODE'
_TEXT	ENDS
;	COMDAT ??_7logic_error@std@@6B@
CONST	SEGMENT DWORD USE32 PUBLIC 'CONST'
CONST	ENDS
;	COMDAT ??_R4logic_error@std@@6B@
rdata$r	SEGMENT DWORD USE32 PUBLIC 'CONST'
rdata$r	ENDS
;	COMDAT ??_R3logic_error@std@@8
rdata$r	SEGMENT DWORD USE32 PUBLIC 'CONST'
rdata$r	ENDS
;	COMDAT ??_R2logic_error@std@@8
rdata$r	SEGMENT DWORD USE32 PUBLIC 'CONST'
rdata$r	ENDS
;	COMDAT ??_Glogic_error@std@@UAEPAXI@Z
_TEXT	SEGMENT PARA USE32 PUBLIC 'CODE'
_TEXT	ENDS
;	COMDAT ??0logic_error@std@@QAE@ABV01@@Z
_TEXT	SEGMENT PARA USE32 PUBLIC 'CODE'
_TEXT	ENDS
;	COMDAT __CTA3?AVlength_error@std@@
xdata$x	SEGMENT DWORD USE32 PUBLIC 'CONST'
xdata$x	ENDS
;	COMDAT ??1length_error@std@@UAE@XZ
_TEXT	SEGMENT PARA USE32 PUBLIC 'CODE'
_TEXT	ENDS
;	COMDAT __CT??_R0?AVexception@@@8??0exception@@QAE@ABV0@@Z12
xdata$x	SEGMENT DWORD USE32 PUBLIC 'CONST'
xdata$x	ENDS
;	COMDAT __CT??_R0?AVlogic_error@std@@@8??0logic_error@std@@QAE@ABV01@@Z40
xdata$x	SEGMENT DWORD USE32 PUBLIC 'CONST'
xdata$x	ENDS
;	COMDAT __CT??_R0?AVlength_error@std@@@8??0length_error@std@@QAE@ABV01@@Z40
xdata$x	SEGMENT DWORD USE32 PUBLIC 'CONST'
xdata$x	ENDS
;	COMDAT ??_R0?AVlength_error@std@@@8
_DATA	SEGMENT DWORD USE32 PUBLIC 'DATA'
_DATA	ENDS
;	COMDAT __TI3?AVlength_error@std@@
xdata$x	SEGMENT DWORD USE32 PUBLIC 'CONST'
xdata$x	ENDS
;	COMDAT ??0length_error@std@@QAE@ABV?$basic_string@DU?$char_traits@D@std@@V?$allocator@D@2@@1@@Z
_TEXT	SEGMENT PARA USE32 PUBLIC 'CODE'
_TEXT	ENDS
;	COMDAT ??0logic_error@std@@QAE@ABV?$basic_string@DU?$char_traits@D@std@@V?$allocator@D@2@@1@@Z
_TEXT	SEGMENT PARA USE32 PUBLIC 'CODE'
_TEXT	ENDS
;	COMDAT ??$_Maklocchr@_W@std@@YA_WDPA_WABU_Cvtvec@@@Z
_TEXT	SEGMENT PARA USE32 PUBLIC 'CODE'
_TEXT	ENDS
;	COMDAT ??$_DebugHeapDelete@X@std@@YAXPAX@Z
_TEXT	SEGMENT PARA USE32 PUBLIC 'CODE'
_TEXT	ENDS
;	COMDAT ??$_Maklocstr@_W@std@@YAPA_WPBDPA_WABU_Cvtvec@@@Z
_TEXT	SEGMENT PARA USE32 PUBLIC 'CODE'
_TEXT	ENDS
;	COMDAT ??$_Maklocchr@D@std@@YADDPADABU_Cvtvec@@@Z
_TEXT	SEGMENT PARA USE32 PUBLIC 'CODE'
_TEXT	ENDS
;	COMDAT ??_C@_04LOAJBDKD@true?$AA@
CONST	SEGMENT DWORD USE32 PUBLIC 'CONST'
CONST	ENDS
;	COMDAT ??_C@_05LAPONLG@false?$AA@
CONST	SEGMENT DWORD USE32 PUBLIC 'CONST'
CONST	ENDS
;	COMDAT _wmemcpy
_TEXT	SEGMENT PARA USE32 PUBLIC 'CODE'
_TEXT	ENDS
;	COMDAT ?max_size@?$allocator@_W@std@@QBEIXZ
_TEXT	SEGMENT PARA USE32 PUBLIC 'CODE'
_TEXT	ENDS
;	COMDAT ?allocate@?$allocator@_W@std@@QAEPA_WI@Z
_TEXT	SEGMENT PARA USE32 PUBLIC 'CODE'
_TEXT	ENDS
;	COMDAT ??$_Allocate@_W@std@@YAPA_WIPA_W@Z
_TEXT	SEGMENT PARA USE32 PUBLIC 'CODE'
_TEXT	ENDS
;	COMDAT ??_C@_01GFHCPBMG@C?$AA@
CONST	SEGMENT DWORD USE32 PUBLIC 'CONST'
CONST	ENDS
;	COMDAT ?max_size@?$allocator@D@std@@QBEIXZ
_TEXT	SEGMENT PARA USE32 PUBLIC 'CODE'
_TEXT	ENDS
;	COMDAT ?allocate@?$allocator@D@std@@QAEPADI@Z
_TEXT	SEGMENT PARA USE32 PUBLIC 'CODE'
_TEXT	ENDS
;	COMDAT ??$_Allocate@D@std@@YAPADIPAD@Z
_TEXT	SEGMENT PARA USE32 PUBLIC 'CODE'
_TEXT	ENDS
;	COMDAT ?deallocate@?$allocator@D@std@@QAEXPADI@Z
_TEXT	SEGMENT PARA USE32 PUBLIC 'CODE'
_TEXT	ENDS
;	COMDAT ?_Peek@?$istreambuf_iterator@_WU?$char_traits@_W@std@@@std@@AAE_WXZ
_TEXT	SEGMENT PARA USE32 PUBLIC 'CODE'
_TEXT	ENDS
;	COMDAT ?_Peek@?$istreambuf_iterator@DU?$char_traits@D@std@@@std@@AAEDXZ
_TEXT	SEGMENT PARA USE32 PUBLIC 'CODE'
_TEXT	ENDS
;	COMDAT ??$use_facet@V?$ctype@_W@std@@@std@@YAABV?$ctype@_W@0@ABVlocale@0@@Z
_TEXT	SEGMENT PARA USE32 PUBLIC 'CODE'
_TEXT	ENDS
;	COMDAT ??_S?$ctype@_W@std@@6B@
CONST	SEGMENT DWORD USE32 PUBLIC 'CONST'
CONST	ENDS
;	COMDAT ??_R4?$ctype@_W@std@@6B@
rdata$r	SEGMENT DWORD USE32 PUBLIC 'CONST'
rdata$r	ENDS
;	COMDAT ??_R0?AV?$ctype@_W@std@@@8
_DATA	SEGMENT DWORD USE32 PUBLIC 'DATA'
_DATA	ENDS
;	COMDAT ??_R3?$ctype@_W@std@@8
rdata$r	SEGMENT DWORD USE32 PUBLIC 'CONST'
rdata$r	ENDS
;	COMDAT ??_R2?$ctype@_W@std@@8
rdata$r	SEGMENT DWORD USE32 PUBLIC 'CONST'
rdata$r	ENDS
;	COMDAT ??_R1A@?0A@A@?$ctype@_W@std@@8
rdata$r	SEGMENT DWORD USE32 PUBLIC 'CONST'
rdata$r	ENDS
;	COMDAT ??_R1A@?0A@A@ctype_base@std@@8
rdata$r	SEGMENT DWORD USE32 PUBLIC 'CONST'
rdata$r	ENDS
;	COMDAT ??_R0?AUctype_base@std@@@8
_DATA	SEGMENT DWORD USE32 PUBLIC 'DATA'
_DATA	ENDS
;	COMDAT ??_G?$ctype@_W@std@@MAEPAXI@Z
_TEXT	SEGMENT PARA USE32 PUBLIC 'CODE'
_TEXT	ENDS
;	COMDAT ??_C@_08EPJLHIJG@bad?5cast?$AA@
CONST	SEGMENT DWORD USE32 PUBLIC 'CONST'
CONST	ENDS
;	COMDAT __TI2?AVbad_cast@@
xdata$x	SEGMENT DWORD USE32 PUBLIC 'CONST'
xdata$x	ENDS
;	COMDAT __CTA2?AVbad_cast@@
xdata$x	SEGMENT DWORD USE32 PUBLIC 'CONST'
xdata$x	ENDS
;	COMDAT __CT??_R0?AVbad_cast@@@8??0bad_cast@@QAE@ABV0@@Z12
xdata$x	SEGMENT DWORD USE32 PUBLIC 'CONST'
xdata$x	ENDS
;	COMDAT ??_R0?AVbad_cast@@@8
_DATA	SEGMENT DWORD USE32 PUBLIC 'DATA'
_DATA	ENDS
;	COMDAT ??$_DebugHeapDelete@Vfacet@locale@std@@@std@@YAXPAVfacet@locale@0@@Z
_TEXT	SEGMENT PARA USE32 PUBLIC 'CODE'
_TEXT	ENDS
;	COMDAT ??$use_facet@V?$ctype@D@std@@@std@@YAABV?$ctype@D@0@ABVlocale@0@@Z
_TEXT	SEGMENT PARA USE32 PUBLIC 'CODE'
_TEXT	ENDS
;	COMDAT ??_S?$ctype@D@std@@6B@
CONST	SEGMENT DWORD USE32 PUBLIC 'CONST'
CONST	ENDS
;	COMDAT ??_R4?$ctype@D@std@@6B@
rdata$r	SEGMENT DWORD USE32 PUBLIC 'CONST'
rdata$r	ENDS
;	COMDAT ??_R0?AV?$ctype@D@std@@@8
_DATA	SEGMENT DWORD USE32 PUBLIC 'DATA'
_DATA	ENDS
;	COMDAT ??_R3?$ctype@D@std@@8
rdata$r	SEGMENT DWORD USE32 PUBLIC 'CONST'
rdata$r	ENDS
;	COMDAT ??_R2?$ctype@D@std@@8
rdata$r	SEGMENT DWORD USE32 PUBLIC 'CONST'
rdata$r	ENDS
;	COMDAT ??_R1A@?0A@A@?$ctype@D@std@@8
rdata$r	SEGMENT DWORD USE32 PUBLIC 'CONST'
rdata$r	ENDS
;	COMDAT ??_G?$ctype@D@std@@MAEPAXI@Z
_TEXT	SEGMENT PARA USE32 PUBLIC 'CODE'
_TEXT	ENDS
;	COMDAT ??_S?$numpunct@_W@std@@6B@
CONST	SEGMENT DWORD USE32 PUBLIC 'CONST'
CONST	ENDS
;	COMDAT ??_S?$numpunct@D@std@@6B@
CONST	SEGMENT DWORD USE32 PUBLIC 'CONST'
CONST	ENDS
;	COMDAT _wmemmove
_TEXT	SEGMENT PARA USE32 PUBLIC 'CODE'
_TEXT	ENDS
;	COMDAT ?deallocate@?$allocator@_W@std@@QAEXPA_WI@Z
_TEXT	SEGMENT PARA USE32 PUBLIC 'CODE'
_TEXT	ENDS
;	COMDAT ??0?$allocator@_W@std@@QAE@ABV01@@Z
_TEXT	SEGMENT PARA USE32 PUBLIC 'CODE'
_TEXT	ENDS
;	COMDAT ??_C@_0BA@GOIMFHNK@pStringMgr?5?$CB?$DN?50?$AA@
CONST	SEGMENT DWORD USE32 PUBLIC 'CONST'
CONST	ENDS
;	COMDAT ??_C@_0FJ@DMHPDOJC@D?3?2Program?5Files?5?$CIx86?$CJ?2Microsoft@
CONST	SEGMENT DWORD USE32 PUBLIC 'CONST'
CONST	ENDS
;	COMDAT ?data@CStringData@ATL@@QAEPAXXZ
_TEXT	SEGMENT PARA USE32 PUBLIC 'CODE'
_TEXT	ENDS
;	COMDAT ?GetDefaultManager@?$StrTraitMFC_DLL@DV?$ChTraitsCRT@D@ATL@@@@SAPAUIAtlStringMgr@ATL@@XZ
_TEXT	SEGMENT PARA USE32 PUBLIC 'CODE'
_TEXT	ENDS
;	COMDAT ?Release@CStringData@ATL@@QAEXXZ
_TEXT	SEGMENT PARA USE32 PUBLIC 'CODE'
_TEXT	ENDS
;	COMDAT ??_C@_0L@OIIMFBNE@nRefs?5?$CB?$DN?50?$AA@
CONST	SEGMENT DWORD USE32 PUBLIC 'CONST'
CONST	ENDS
;	COMDAT ?FindStringResourceInstance@?$StrTraitMFC_DLL@DV?$ChTraitsCRT@D@ATL@@@@SAPAUHINSTANCE__@@I@Z
_TEXT	SEGMENT PARA USE32 PUBLIC 'CODE'
_TEXT	ENDS
;	COMDAT ?AtlGetStringResourceImage@ATL@@YAPBUATLSTRINGRESOURCEIMAGE@1@PAUHINSTANCE__@@I@Z
_TEXT	SEGMENT PARA USE32 PUBLIC 'CODE'
_TEXT	ENDS
;	COMDAT ?_AtlGetStringResourceImage@ATL@@YAPBUATLSTRINGRESOURCEIMAGE@1@PAUHINSTANCE__@@PAUHRSRC__@@I@Z
_TEXT	SEGMENT PARA USE32 PUBLIC 'CODE'
_TEXT	ENDS
;	COMDAT ?GetBaseTypeLength@?$ChTraitsCRT@D@ATL@@SAHPB_WH@Z
_TEXT	SEGMENT PARA USE32 PUBLIC 'CODE'
_TEXT	ENDS
;	COMDAT ?_AtlGetConversionACP@ATL@@YGIXZ
_TEXT	SEGMENT PARA USE32 PUBLIC 'CODE'
_TEXT	ENDS
;	COMDAT ?g_pfnGetThreadACP@ATL@@3P6GIXZA
_DATA	SEGMENT DWORD USE32 PUBLIC 'DATA'
_DATA	ENDS
;	COMDAT ?_AtlGetThreadACPThunk@ATL@@YGIXZ
_TEXT	SEGMENT PARA USE32 PUBLIC 'CODE'
_TEXT	ENDS
;	COMDAT ?_AtlGetThreadACPReal@ATL@@YGIXZ
_TEXT	SEGMENT PARA USE32 PUBLIC 'CODE'
_TEXT	ENDS
;	COMDAT ?_AtlGetThreadACPFake@ATL@@YGIXZ
_TEXT	SEGMENT PARA USE32 PUBLIC 'CODE'
_TEXT	ENDS
;	COMDAT ?InterlockedExchangePointer@@YGPAXPAPAXPAX@Z
_TEXT	SEGMENT PARA USE32 PUBLIC 'CODE'
_TEXT	ENDS
;	COMDAT ?IsShared@CStringData@ATL@@QBE_NXZ
_TEXT	SEGMENT PARA USE32 PUBLIC 'CODE'
_TEXT	ENDS
;	COMDAT ?AtlThrow@ATL@@YGXJ@Z
_TEXT	SEGMENT PARA USE32 PUBLIC 'CODE'
_TEXT	ENDS
;	COMDAT ??_C@_0FI@NHHJANPC@D?3?2Program?5Files?5?$CIx86?$CJ?2Microsoft@
CONST	SEGMENT DWORD USE32 PUBLIC 'CONST'
CONST	ENDS
;	COMDAT ??_C@_0BF@IAAKIJDJ@AtlThrow?3?5hr?5?$DN?50x?$CFx?6?$AA@
CONST	SEGMENT DWORD USE32 PUBLIC 'CONST'
CONST	ENDS
;	COMDAT ??_C@_0CB@GFHAPKDK@pOldData?9?$DOnAllocLength?5?$DM?5nLength@
CONST	SEGMENT DWORD USE32 PUBLIC 'CONST'
CONST	ENDS
;	COMDAT ?ConvertToBaseType@?$ChTraitsCRT@D@ATL@@SAXPADHPB_WH@Z
_TEXT	SEGMENT PARA USE32 PUBLIC 'CODE'
_TEXT	ENDS
;	COMDAT ??_C@_0BA@GNIEOBOF@nNewLength?5?$DO?$DN?50?$AA@
CONST	SEGMENT DWORD USE32 PUBLIC 'CONST'
CONST	ENDS
;	COMDAT ??_C@_0N@ILOMLJGA@nLength?5?$DO?$DN?50?$AA@
CONST	SEGMENT DWORD USE32 PUBLIC 'CONST'
CONST	ENDS
;	COMDAT ??_C@_0CD@EEFFJEGJ@nLength?5?$DM?$DN?5GetData?$CI?$CJ?9?$DOnAllocLeng@
CONST	SEGMENT DWORD USE32 PUBLIC 'CONST'
CONST	ENDS
;	COMDAT ??RCTraceFileAndLineInfo@ATL@@QBAXKIPBDZZ
_TEXT	SEGMENT PARA USE32 PUBLIC 'CODE'
_TEXT	ENDS
;	COMDAT ?TraceV@CTrace@ATL@@QBAXPBDHKI0PAD@Z
_TEXT	SEGMENT PARA USE32 PUBLIC 'CODE'
_TEXT	ENDS
;	COMDAT ??0CTraceFileAndLineInfo@ATL@@QAE@PBDH@Z
_TEXT	SEGMENT PARA USE32 PUBLIC 'CODE'
_TEXT	ENDS
;	COMDAT ??_C@_0FH@KDPNIMBO@D?3?2Program?5Files?5?$CIx86?$CJ?2Microsoft@
CONST	SEGMENT DWORD USE32 PUBLIC 'CONST'
CONST	ENDS
;	COMDAT ??_C@_0CJ@FJEKGMMD@Warning?3?5implicit?5LoadString?$CI?$CFu?$CJ@
CONST	SEGMENT DWORD USE32 PUBLIC 'CONST'
CONST	ENDS
;	COMDAT ??BCTraceCategory@ATL@@QBEKXZ
_TEXT	SEGMENT PARA USE32 PUBLIC 'CODE'
_TEXT	ENDS
;	COMDAT ?IsLocked@CStringData@ATL@@QBE_NXZ
_TEXT	SEGMENT PARA USE32 PUBLIC 'CODE'
_TEXT	ENDS
;	COMDAT ??0?$allocator@D@std@@QAE@ABV01@@Z
_TEXT	SEGMENT PARA USE32 PUBLIC 'CODE'
_TEXT	ENDS
;	COMDAT ??0?$allocator@D@std@@QAE@XZ
_TEXT	SEGMENT PARA USE32 PUBLIC 'CODE'
_TEXT	ENDS
;	COMDAT ?_messageEntries@CMinOrExit@@0QBUAFX_MSGMAP_ENTRY@@B
CONST	SEGMENT DWORD USE32 PUBLIC 'CONST'
CONST	ENDS
;	COMDAT ?messageMap@CMinOrExit@@1UAFX_MSGMAP@@B
CONST	SEGMENT DWORD USE32 PUBLIC 'CONST'
CONST	ENDS
;	COMDAT ??_7CMinOrExit@@6B@
CONST	SEGMENT DWORD USE32 PUBLIC 'CONST'
CONST	ENDS
;	COMDAT ?classCMinOrExit@CMinOrExit@@2UCRuntimeClass@@B
CONST	SEGMENT DWORD USE32 PUBLIC 'CONST'
CONST	ENDS
;	COMDAT ?AddRef@CStringData@ATL@@QAEXXZ
_TEXT	SEGMENT PARA USE32 PUBLIC 'CODE'
_TEXT	ENDS
;	COMDAT ??_C@_09EEBKLCFA@nRefs?5?$DO?50?$AA@
CONST	SEGMENT DWORD USE32 PUBLIC 'CONST'
CONST	ENDS
;	COMDAT ??_7IData@@6B@
CONST	SEGMENT DWORD USE32 PUBLIC 'CONST'
CONST	ENDS
sxdata	SEGMENT DWORD USE32 'SXDATA'
sxdata	ENDS
FLAT	GROUP _DATA, CONST, _BSS
	ASSUME	CS: FLAT, DS: FLAT, SS: FLAT
endif

INCLUDELIB MSVCRTD
INCLUDELIB OLDNAMES

PUBLIC	?g_pfnGetThreadACP@ATL@@3P6GIXZA		; ATL::g_pfnGetThreadACP
PUBLIC	?_AtlGetThreadACPThunk@ATL@@YGIXZ		; ATL::_AtlGetThreadACPThunk
PUBLIC	?classCMinOrExit@CMinOrExit@@2UCRuntimeClass@@B	; CMinOrExit::classCMinOrExit
PUBLIC	?_messageEntries@CMinOrExit@@0QBUAFX_MSGMAP_ENTRY@@B ; CMinOrExit::_messageEntries
PUBLIC	?messageMap@CMinOrExit@@1UAFX_MSGMAP@@B		; CMinOrExit::messageMap
PUBLIC	?OnPaint@CMinOrExit@@QAEXXZ			; CMinOrExit::OnPaint
PUBLIC	?OnLButtonUp@CMinOrExit@@QAEXIVCPoint@@@Z	; CMinOrExit::OnLButtonUp
PUBLIC	?OnNcHitTest@CMinOrExit@@QAEIVCPoint@@@Z	; CMinOrExit::OnNcHitTest
EXTRN	?GetThisClass@CDialog@@SGPAUCRuntimeClass@@XZ:NEAR ; CDialog::GetThisClass
EXTRN	?GetThisMessageMap@CDialog@@KGPBUAFX_MSGMAP@@XZ:NEAR ; CDialog::GetThisMessageMap
CONST	SEGMENT
$SG187323 DB	'int', 00H
CONST	ENDS
_DATA	SEGMENT
_TYPE_CONFIG_INT DD FLAT:$SG187323
_DATA	ENDS
CONST	SEGMENT
$SG187325 DB	'str', 00H
CONST	ENDS
_DATA	SEGMENT
_TYPE_CONFIG_STR DD FLAT:$SG187325
_DATA	ENDS
CONST	SEGMENT
$SG187327 DB	'double', 00H
CONST	ENDS
_DATA	SEGMENT
_TYPE_CONFIG_DOUBLE DD FLAT:$SG187327
_DATA	ENDS
CONST	SEGMENT
	ORG $+1
$SG187329 DB	'bool', 00H
CONST	ENDS
_DATA	SEGMENT
_TYPE_CONFIG_BOOL DD FLAT:$SG187329
_DATA	ENDS
CONST	SEGMENT
	ORG $+3
$SG187331 DB	'sepint', 00H
CONST	ENDS
_DATA	SEGMENT
_TYPE_CONFIG_INT_HASSEP DD FLAT:$SG187331
_DATA	ENDS
CONST	SEGMENT
	ORG $+1
$SG187333 DB	'sepstr', 00H
CONST	ENDS
_DATA	SEGMENT
_TYPE_CONFIG_STR_HASSEP DD FLAT:$SG187333
_DATA	ENDS
CONST	SEGMENT
	ORG $+1
$SG187335 DB	'sepdouble', 00H
CONST	ENDS
_DATA	SEGMENT
_TYPE_CONFIG_DOUBLE_HASSEP DD FLAT:$SG187335
_DATA	ENDS
CONST	SEGMENT
	ORG $+2
$SG187337 DB	'sepbool', 00H
CONST	ENDS
_DATA	SEGMENT
_TYPE_CONFIG_BOOL_HASSEP DD FLAT:$SG187337
_DATA	ENDS
CONST	SEGMENT
$SG187339 DB	'Setting', 00H
CONST	ENDS
_DATA	SEGMENT
_CONF_SETTING_MODULE_NAME DD FLAT:$SG187339
_DATA	ENDS
CONST	SEGMENT
$SG187341 DB	'skin', 00H
CONST	ENDS
_DATA	SEGMENT
_CONF_SETTING_SKIN_IDX DD FLAT:$SG187341
_DATA	ENDS
CONST	SEGMENT
	ORG $+3
$SG187343 DB	'MainPage', 00H
CONST	ENDS
_DATA	SEGMENT
_CONF_SETTING_CONFIG_MAIN_PAGE DD FLAT:$SG187343
_DATA	ENDS
CONST	SEGMENT
	ORG $+3
$SG187345 DB	'ProblemReport', 00H
CONST	ENDS
_DATA	SEGMENT
_CONF_SETTING_CONFIG_PROBLEM_REPORT DD FLAT:$SG187345
_DATA	ENDS
CONST	SEGMENT
	ORG $+2
$SG187347 DB	'HomePage', 00H
CONST	ENDS
_DATA	SEGMENT
_CONF_SETTING_CONFIG_HOME_PAGE DD FLAT:$SG187347
_DATA	ENDS
CONST	SEGMENT
	ORG $+3
$SG187349 DB	'askexit', 00H
CONST	ENDS
_DATA	SEGMENT
_CONF_SETTING_CONFIG_IFASKEXIT DD FLAT:$SG187349
_DATA	ENDS
CONST	SEGMENT
$SG187351 DB	'exitchoice', 00H
CONST	ENDS
_DATA	SEGMENT
_CONF_SETTING_CONFIG_EXITCHOICE DD FLAT:$SG187351
_DATA	ENDS
CONST	SEGMENT
	ORG $+1
$SG187353 DB	'UN', 00H
CONST	ENDS
_DATA	SEGMENT
_CONF_SETTING_LOGIN_USER_NAME DD FLAT:$SG187353
_DATA	ENDS
CONST	SEGMENT
	ORG $+1
$SG187355 DB	'PW', 00H
CONST	ENDS
_DATA	SEGMENT
_CONF_SETTING_LOGIN_PASSWORD DD FLAT:$SG187355
_DATA	ENDS
CONST	SEGMENT
	ORG $+1
$SG187357 DB	'NetID', 00H
CONST	ENDS
_DATA	SEGMENT
_CONF_SETTING_NETID DD FLAT:$SG187357
_DATA	ENDS
CONST	SEGMENT
	ORG $+2
$SG187359 DB	'ChangeColorValue', 00H
CONST	ENDS
_DATA	SEGMENT
_CONF_SETTING_COLOR DD FLAT:$SG187359
_DATA	ENDS
CONST	SEGMENT
	ORG $+3
$SG187361 DB	'changeColorLight', 00H
CONST	ENDS
_DATA	SEGMENT
_CONF_SETTING_LIGHT DD FLAT:$SG187361
_DATA	ENDS
CONST	SEGMENT
	ORG $+3
$SG187363 DB	'ColorIndex', 00H
CONST	ENDS
_DATA	SEGMENT
_CONF_SETTING_COLOR_BTN_INDEX DD FLAT:$SG187363
_DATA	ENDS
CONST	SEGMENT
	ORG $+1
$SG187365 DB	'ColorUser', 00H
CONST	ENDS
_DATA	SEGMENT
_CONF_SETTING_COLOR_USER DD FLAT:$SG187365
_DATA	ENDS
CONST	SEGMENT
	ORG $+2
$SG187367 DB	'FirstTimeChangeSkin', 00H
CONST	ENDS
_DATA	SEGMENT
_CONF_SETTING_FIRST_TIME_CHANGESKIN DD FLAT:$SG187367
_DATA	ENDS
CONST	SEGMENT
$SG188628 DB	'CMinOrExit', 00H
CONST	ENDS
;	COMDAT ?classCMinOrExit@CMinOrExit@@2UCRuntimeClass@@B
CONST	SEGMENT
?classCMinOrExit@CMinOrExit@@2UCRuntimeClass@@B DD FLAT:$SG188628 ; CMinOrExit::classCMinOrExit
	DD	0ac4H
	DD	0ffffH
	DD	00H
	DD	FLAT:?GetThisClass@CDialog@@SGPAUCRuntimeClass@@XZ
	DD	00H
	DD	00H
CONST	ENDS
CONST	SEGMENT
	ORG $+1
$SG188641 DB	'MinOrExitBkg', 00H
CONST	ENDS
;	COMDAT ?_messageEntries@CMinOrExit@@0QBUAFX_MSGMAP_ENTRY@@B
CONST	SEGMENT
?_messageEntries@CMinOrExit@@0QBUAFX_MSGMAP_ENTRY@@B DD 0fH ; CMinOrExit::_messageEntries
	DD	00H
	DD	00H
	DD	00H
	DD	010H
	DD	FLAT:?OnPaint@CMinOrExit@@QAEXXZ
	DD	0202H
	DD	00H
	DD	00H
	DD	00H
	DD	032H
	DD	FLAT:?OnLButtonUp@CMinOrExit@@QAEXIVCPoint@@@Z
	DD	084H
	DD	00H
	DD	00H
	DD	00H
	DD	02dH
	DD	FLAT:?OnNcHitTest@CMinOrExit@@QAEIVCPoint@@@Z
	DD	00H
	DD	00H
	DD	00H
	DD	00H
	DD	00H
	DD	00H
CONST	ENDS
;	COMDAT ?messageMap@CMinOrExit@@1UAFX_MSGMAP@@B
CONST	SEGMENT
?messageMap@CMinOrExit@@1UAFX_MSGMAP@@B DD FLAT:?GetThisMessageMap@CDialog@@KGPBUAFX_MSGMAP@@XZ ; CMinOrExit::messageMap
	DD	FLAT:?_messageEntries@CMinOrExit@@0QBUAFX_MSGMAP_ENTRY@@B
CONST	ENDS
CONST	SEGMENT
	ORG $+3
$SG188688 DB	'MinOrExit_close', 00H
$SG188690 DB	'MinOrExit_cancle', 00H
	ORG $+3
$SG188692 DB	'MinOrExit_ok', 00H
	ORG $+3
$SG188694 DB	'MinOrExit_rad1unCheck', 00H
	ORG $+2
$SG188696 DB	'MinOrExit_rad1Checked', 00H
	ORG $+2
$SG188698 DB	'MinOrExit_rad2unCheck', 00H
	ORG $+2
$SG188700 DB	'MinOrExit_rad2Checked', 00H
	ORG $+2
$SG188702 DB	'MinOrExit_m_boxunCheck', 00H
	ORG $+1
$SG188704 DB	'MinOrExit_m_boxChecked', 00H
	ORG $+1
$SG188707 DB	'normal', 00H
	ORG $+1
$SG188708 DB	'MinOrExit', 00H
	ORG $+2
$SG188711 DB	'normal', 00H
	ORG $+1
$SG188712 DB	'MinOrExit', 00H
	ORG $+2
$SG188724 DB	'win rect x: %d, y: %d, r: %d, b: %d.', 00H
	ORG $+3
$SG188725 DB	'OnInitDialog', 00H
	ORG $+3
$SG188726 DB	'MinOrExit.txt', 00H
CONST	ENDS
;	COMDAT ?g_pfnGetThreadACP@ATL@@3P6GIXZA
_DATA	SEGMENT
?g_pfnGetThreadACP@ATL@@3P6GIXZA DD FLAT:?_AtlGetThreadACPThunk@ATL@@YGIXZ ; ATL::g_pfnGetThreadACP
_DATA	ENDS
PUBLIC	?GetThisClass@CMinOrExit@@SGPAUCRuntimeClass@@XZ ; CMinOrExit::GetThisClass
EXTRN	__RTC_InitBase:NEAR
EXTRN	__RTC_Shutdown:NEAR
;	COMDAT rtc$IMZ
; File d:\boxgit\playbox\playbox\dev\prj\playbox\src\module\toppanel\minorexit.cpp
rtc$IMZ	SEGMENT
__RTC_InitBase.rtc$IMZ DD FLAT:__RTC_InitBase
rtc$IMZ	ENDS
;	COMDAT rtc$TMZ
rtc$TMZ	SEGMENT
__RTC_Shutdown.rtc$TMZ DD FLAT:__RTC_Shutdown
; Function compile flags: /Odt /RTCsu
rtc$TMZ	ENDS
_TEXT	SEGMENT
?GetThisClass@CMinOrExit@@SGPAUCRuntimeClass@@XZ PROC NEAR ; CMinOrExit::GetThisClass

; 13   : IMPLEMENT_DYNAMIC(CMinOrExit, CDialog)

  00000	55		 push	 ebp
  00001	8b ec		 mov	 ebp, esp
  00003	b8 00 00 00 00	 mov	 eax, OFFSET FLAT:?classCMinOrExit@CMinOrExit@@2UCRuntimeClass@@B ; CMinOrExit::classCMinOrExit
  00008	5d		 pop	 ebp
  00009	c3		 ret	 0
?GetThisClass@CMinOrExit@@SGPAUCRuntimeClass@@XZ ENDP	; CMinOrExit::GetThisClass
_TEXT	ENDS
PUBLIC	?GetRuntimeClass@CMinOrExit@@UBEPAUCRuntimeClass@@XZ ; CMinOrExit::GetRuntimeClass
; Function compile flags: /Odt /RTCsu
_TEXT	SEGMENT
_this$ = -4						; size = 4
?GetRuntimeClass@CMinOrExit@@UBEPAUCRuntimeClass@@XZ PROC NEAR ; CMinOrExit::GetRuntimeClass
; _this$ = ecx

; 13   : IMPLEMENT_DYNAMIC(CMinOrExit, CDialog)

  00010	55		 push	 ebp
  00011	8b ec		 mov	 ebp, esp
  00013	51		 push	 ecx
  00014	c7 45 fc cc cc
	cc cc		 mov	 DWORD PTR [ebp-4], -858993460 ; ccccccccH
  0001b	89 4d fc	 mov	 DWORD PTR _this$[ebp], ecx
  0001e	b8 00 00 00 00	 mov	 eax, OFFSET FLAT:?classCMinOrExit@CMinOrExit@@2UCRuntimeClass@@B ; CMinOrExit::classCMinOrExit
  00023	8b e5		 mov	 esp, ebp
  00025	5d		 pop	 ebp
  00026	c3		 ret	 0
?GetRuntimeClass@CMinOrExit@@UBEPAUCRuntimeClass@@XZ ENDP ; CMinOrExit::GetRuntimeClass
_TEXT	ENDS
PUBLIC	??_R1A@?0A@A@CDialog@@8				; CDialog::`RTTI Base Class Descriptor at (0,-1,0,0)'
PUBLIC	??_R0?AVCDialog@@@8				; CDialog `RTTI Type Descriptor'
PUBLIC	??_R1A@?0A@A@CWnd@@8				; CWnd::`RTTI Base Class Descriptor at (0,-1,0,0)'
PUBLIC	??_R0?AVCWnd@@@8				; CWnd `RTTI Type Descriptor'
PUBLIC	??_R1A@?0A@A@CCmdTarget@@8			; CCmdTarget::`RTTI Base Class Descriptor at (0,-1,0,0)'
PUBLIC	??_R0?AVCCmdTarget@@@8				; CCmdTarget `RTTI Type Descriptor'
PUBLIC	??_R1A@?0A@A@CObject@@8				; CObject::`RTTI Base Class Descriptor at (0,-1,0,0)'
PUBLIC	??_R0?AVCObject@@@8				; CObject `RTTI Type Descriptor'
PUBLIC	??0CMinOrExit@@QAE@PAVCWnd@@@Z			; CMinOrExit::CMinOrExit
PUBLIC	?DoDataExchange@CMinOrExit@@MAEXPAVCDataExchange@@@Z ; CMinOrExit::DoDataExchange
PUBLIC	?OnInitDialog@CMinOrExit@@MAEHXZ		; CMinOrExit::OnInitDialog
PUBLIC	?OnCommand@CMinOrExit@@MAEHIJ@Z			; CMinOrExit::OnCommand
PUBLIC	?GetMessageMap@CMinOrExit@@MBEPBUAFX_MSGMAP@@XZ	; CMinOrExit::GetMessageMap
PUBLIC	?OnOK@CMinOrExit@@MAEXXZ			; CMinOrExit::OnOK
PUBLIC	??_7CMinOrExit@@6B@				; CMinOrExit::`vftable'
PUBLIC	??_GCMinOrExit@@UAEPAXI@Z			; CMinOrExit::`scalar deleting destructor'
PUBLIC	??_R4CMinOrExit@@6B@				; CMinOrExit::`RTTI Complete Object Locator'
PUBLIC	??_R0?AVCMinOrExit@@@8				; CMinOrExit `RTTI Type Descriptor'
PUBLIC	??_R3CMinOrExit@@8				; CMinOrExit::`RTTI Class Hierarchy Descriptor'
PUBLIC	??_R2CMinOrExit@@8				; CMinOrExit::`RTTI Base Class Array'
PUBLIC	??_R1A@?0A@A@CMinOrExit@@8			; CMinOrExit::`RTTI Base Class Descriptor at (0,-1,0,0)'
EXTRN	?GetInterfaceMap@CWnd@@MBEPBUAFX_INTERFACEMAP@@XZ:NEAR ; CWnd::GetInterfaceMap
EXTRN	?EnsureStdObj@CWnd@@UAEJXZ:NEAR			; CWnd::EnsureStdObj
EXTRN	?get_accParent@CWnd@@UAEJPAPAUIDispatch@@@Z:NEAR ; CWnd::get_accParent
EXTRN	?get_accChildCount@CWnd@@UAEJPAJ@Z:NEAR		; CWnd::get_accChildCount
EXTRN	?IsInvokeAllowed@CCmdTarget@@UAEHJ@Z:NEAR	; CCmdTarget::IsInvokeAllowed
EXTRN	?get_accChild@CWnd@@UAEJUtagVARIANT@@PAPAUIDispatch@@@Z:NEAR ; CWnd::get_accChild
EXTRN	?get_accName@CWnd@@UAEJUtagVARIANT@@PAPA_W@Z:NEAR ; CWnd::get_accName
EXTRN	?get_accValue@CWnd@@UAEJUtagVARIANT@@PAPA_W@Z:NEAR ; CWnd::get_accValue
EXTRN	?GetDispatchIID@CCmdTarget@@UAEHPAU_GUID@@@Z:NEAR ; CCmdTarget::GetDispatchIID
EXTRN	?GetTypeInfoCount@CCmdTarget@@UAEIXZ:NEAR	; CCmdTarget::GetTypeInfoCount
EXTRN	?GetTypeLibCache@CCmdTarget@@UAEPAVCTypeLibCache@@XZ:NEAR ; CCmdTarget::GetTypeLibCache
EXTRN	?get_accDescription@CWnd@@UAEJUtagVARIANT@@PAPA_W@Z:NEAR ; CWnd::get_accDescription
EXTRN	?AfxGetUIManager@@YAPAVIUIManager@@XZ:NEAR	; AfxGetUIManager
EXTRN	?GetTypeLib@CCmdTarget@@UAEJKPAPAUITypeLib@@@Z:NEAR ; CCmdTarget::GetTypeLib
EXTRN	?get_accRole@CWnd@@UAEJUtagVARIANT@@PAU2@@Z:NEAR ; CWnd::get_accRole
EXTRN	?get_accState@CWnd@@UAEJUtagVARIANT@@PAU2@@Z:NEAR ; CWnd::get_accState
EXTRN	?get_accHelp@CWnd@@UAEJUtagVARIANT@@PAPA_W@Z:NEAR ; CWnd::get_accHelp
EXTRN	?get_accHelpTopic@CWnd@@UAEJPAPA_WUtagVARIANT@@PAJ@Z:NEAR ; CWnd::get_accHelpTopic
EXTRN	?get_accKeyboardShortcut@CWnd@@UAEJUtagVARIANT@@PAPA_W@Z:NEAR ; CWnd::get_accKeyboardShortcut
EXTRN	?get_accFocus@CWnd@@UAEJPAUtagVARIANT@@@Z:NEAR	; CWnd::get_accFocus
EXTRN	?get_accSelection@CWnd@@UAEJPAUtagVARIANT@@@Z:NEAR ; CWnd::get_accSelection
EXTRN	?get_accDefaultAction@CWnd@@UAEJUtagVARIANT@@PAPA_W@Z:NEAR ; CWnd::get_accDefaultAction
EXTRN	?GetCommandMap@CCmdTarget@@MBEPBUAFX_OLECMDMAP@@XZ:NEAR ; CCmdTarget::GetCommandMap
EXTRN	?accSelect@CWnd@@UAEJJUtagVARIANT@@@Z:NEAR	; CWnd::accSelect
EXTRN	?accLocation@CWnd@@UAEJPAJ000UtagVARIANT@@@Z:NEAR ; CWnd::accLocation
EXTRN	?GetDispatchMap@CCmdTarget@@MBEPBUAFX_DISPMAP@@XZ:NEAR ; CCmdTarget::GetDispatchMap
EXTRN	?accNavigate@CWnd@@UAEJJUtagVARIANT@@PAU2@@Z:NEAR ; CWnd::accNavigate
EXTRN	?accHitTest@CWnd@@UAEJJJPAUtagVARIANT@@@Z:NEAR	; CWnd::accHitTest
EXTRN	?GetConnectionMap@CCmdTarget@@MBEPBUAFX_CONNECTIONMAP@@XZ:NEAR ; CCmdTarget::GetConnectionMap
EXTRN	?accDoDefaultAction@CWnd@@UAEJUtagVARIANT@@@Z:NEAR ; CWnd::accDoDefaultAction
EXTRN	?put_accName@CWnd@@UAEJUtagVARIANT@@PA_W@Z:NEAR	; CWnd::put_accName
EXTRN	?put_accValue@CWnd@@UAEJUtagVARIANT@@PA_W@Z:NEAR ; CWnd::put_accValue
EXTRN	?SetProxy@CWnd@@UAEJPAUIAccessibleProxy@@@Z:NEAR ; CWnd::SetProxy
EXTRN	?CreateAccessibleProxy@CWnd@@UAEJIJPAJ@Z:NEAR	; CWnd::CreateAccessibleProxy
EXTRN	?GetEventSinkMap@CCmdTarget@@MBEPBUAFX_EVENTSINKMAP@@XZ:NEAR ; CCmdTarget::GetEventSinkMap
EXTRN	?OnCreateAggregates@CCmdTarget@@UAEHXZ:NEAR	; CCmdTarget::OnCreateAggregates
EXTRN	?GetInterfaceHook@CCmdTarget@@UAEPAUIUnknown@@PBX@Z:NEAR ; CCmdTarget::GetInterfaceHook
EXTRN	?OnNotify@CWnd@@MAEHIJPAJ@Z:NEAR		; CWnd::OnNotify
EXTRN	?GetExtraConnectionPoints@CCmdTarget@@MAEHPAVCPtrArray@@@Z:NEAR ; CCmdTarget::GetExtraConnectionPoints
EXTRN	?GetConnectionHook@CCmdTarget@@MAEPAUIConnectionPoint@@ABU_GUID@@@Z:NEAR ; CCmdTarget::GetConnectionHook
EXTRN	__RTC_CheckEsp:NEAR
EXTRN	__except_list:DWORD
EXTRN	___CxxFrameHandler:NEAR
EXTRN	?PreSubclassWindow@CWnd@@UAEXXZ:NEAR		; CWnd::PreSubclassWindow
EXTRN	?Create@CWnd@@UAEHPBD0KABUtagRECT@@PAV1@IPAUCCreateContext@@@Z:NEAR ; CWnd::Create
EXTRN	?CreateEx@CWnd@@UAEHKPBD0KHHHHPAUHWND__@@PAUHMENU__@@PAX@Z:NEAR ; CWnd::CreateEx
EXTRN	?CreateEx@CWnd@@UAEHKPBD0KABUtagRECT@@PAV1@IPAX@Z:NEAR ; CWnd::CreateEx
EXTRN	?Serialize@CObject@@UAEXAAVCArchive@@@Z:NEAR	; CObject::Serialize
EXTRN	?DestroyWindow@CWnd@@UAEHXZ:NEAR		; CWnd::DestroyWindow
EXTRN	?PreCreateWindow@CWnd@@UAEHAAUtagCREATESTRUCTA@@@Z:NEAR ; CWnd::PreCreateWindow
EXTRN	?CalcWindowRect@CWnd@@UAEXPAUtagRECT@@I@Z:NEAR	; CWnd::CalcWindowRect
EXTRN	?GetSuperWndProcAddr@CWnd@@MAEPAP6GJPAUHWND__@@IIJ@ZXZ:NEAR ; CWnd::GetSuperWndProcAddr
EXTRN	?BeginModalState@CWnd@@UAEXXZ:NEAR		; CWnd::BeginModalState
EXTRN	?EndModalState@CWnd@@UAEXXZ:NEAR		; CWnd::EndModalState
EXTRN	?OnAmbientProperty@CWnd@@UAEHPAVCOleControlSite@@JPAUtagVARIANT@@@Z:NEAR ; CWnd::OnAmbientProperty
EXTRN	?WindowProc@CWnd@@MAEJIIJ@Z:NEAR		; CWnd::WindowProc
EXTRN	?OnWndMsg@CWnd@@MAEHIIJPAJ@Z:NEAR		; CWnd::OnWndMsg
EXTRN	?DefWindowProcA@CWnd@@MAEJIIJ@Z:NEAR		; CWnd::DefWindowProcA
EXTRN	?PostNcDestroy@CWnd@@MAEXXZ:NEAR		; CWnd::PostNcDestroy
EXTRN	?OnChildNotify@CWnd@@MAEHIIJPAJ@Z:NEAR		; CWnd::OnChildNotify
EXTRN	?IsFrameWnd@CWnd@@UBEHXZ:NEAR			; CWnd::IsFrameWnd
EXTRN	?OnFinalRelease@CWnd@@UAEXXZ:NEAR		; CWnd::OnFinalRelease
EXTRN	?CreateControlContainer@CWnd@@MAEHPAPAVCOleControlContainer@@@Z:NEAR ; CWnd::CreateControlContainer
EXTRN	?CreateControlSite@CWnd@@MAEHPAVCOleControlContainer@@PAPAVCOleControlSite@@IABU_GUID@@@Z:NEAR ; CWnd::CreateControlSite
EXTRN	??0CxSkinButton@@QAE@XZ:NEAR			; CxSkinButton::CxSkinButton
EXTRN	?Create@CDialog@@UAEHPBDPAVCWnd@@@Z:NEAR	; CDialog::Create
EXTRN	?Create@CDialog@@UAEHIPAVCWnd@@@Z:NEAR		; CDialog::Create
EXTRN	?CreateIndirect@CDialog@@UAEHPBUDLGTEMPLATE@@PAVCWnd@@PAX@Z:NEAR ; CDialog::CreateIndirect
EXTRN	?CreateIndirect@CDialog@@UAEHPAXPAVCWnd@@@Z:NEAR ; CDialog::CreateIndirect
EXTRN	?OnToolHitTest@CWnd@@UBEHVCPoint@@PAUtagTOOLINFOA@@@Z:NEAR ; CWnd::OnToolHitTest
EXTRN	??0CDialog@@QAE@IPAVCWnd@@@Z:NEAR		; CDialog::CDialog
EXTRN	??1CxSkinButton@@UAE@XZ:NEAR			; CxSkinButton::~CxSkinButton
EXTRN	?DoModal@CDialog@@UAEHXZ:NEAR			; CDialog::DoModal
EXTRN	?OnSetFont@CDialog@@UAEXPAVCFont@@@Z:NEAR	; CDialog::OnSetFont
EXTRN	?OnCancel@CDialog@@MAEXXZ:NEAR			; CDialog::OnCancel
EXTRN	??1CDialog@@UAE@XZ:NEAR				; CDialog::~CDialog
EXTRN	?AssertValid@CDialog@@UBEXXZ:NEAR		; CDialog::AssertValid
EXTRN	?Dump@CDialog@@UBEXAAVCDumpContext@@@Z:NEAR	; CDialog::Dump
EXTRN	?PreTranslateMessage@CDialog@@UAEHPAUtagMSG@@@Z:NEAR ; CDialog::PreTranslateMessage
EXTRN	?OnCmdMsg@CDialog@@UAEHIHPAXPAUAFX_CMDHANDLERINFO@@@Z:NEAR ; CDialog::OnCmdMsg
EXTRN	?CheckAutoCenter@CDialog@@UAEHXZ:NEAR		; CDialog::CheckAutoCenter
EXTRN	?SetOccDialogInfo@CDialog@@MAEHPAU_AFX_OCC_DIALOG_INFO@@@Z:NEAR ; CDialog::SetOccDialogInfo
EXTRN	?PreInitDialog@CDialog@@MAEXXZ:NEAR		; CDialog::PreInitDialog
EXTRN	?GetScrollBarCtrl@CWnd@@UBEPAVCScrollBar@@H@Z:NEAR ; CWnd::GetScrollBarCtrl
EXTRN	??_ECMinOrExit@@UAEPAXI@Z:NEAR			; CMinOrExit::`vector deleting destructor'
EXTRN	?WinHelpA@CWnd@@UAEXKI@Z:NEAR			; CWnd::WinHelpA
EXTRN	?HtmlHelpA@CWnd@@UAEXKI@Z:NEAR			; CWnd::HtmlHelpA
EXTRN	??_7type_info@@6B@:QWORD			; type_info::`vftable'
EXTRN	?WinHelpInternal@CWnd@@UAEXKI@Z:NEAR		; CWnd::WinHelpInternal
EXTRN	?ContinueModal@CWnd@@UAEHXZ:NEAR		; CWnd::ContinueModal
EXTRN	?EndModalLoop@CWnd@@UAEXH@Z:NEAR		; CWnd::EndModalLoop
xdata$x	SEGMENT
$T189902 DD	0ffffffffH
	DD	FLAT:$L189885
	DD	00H
	DD	FLAT:$L189886
	DD	01H
	DD	FLAT:$L189887
	DD	02H
	DD	FLAT:$L189888
	DD	03H
	DD	FLAT:$L189889
	DD	04H
	DD	FLAT:$L189890
	DD	05H
	DD	FLAT:$L189891
	DD	06H
	DD	FLAT:$L189892
	DD	07H
	DD	FLAT:$L189893
	DD	08H
	DD	FLAT:$L189894
$T189898 DD	019930520H
	DD	0aH
	DD	FLAT:$T189902
	DD	2 DUP(00H)
	DD	2 DUP(00H)
xdata$x	ENDS
;	COMDAT ??_7CMinOrExit@@6B@
CONST	SEGMENT
??_7CMinOrExit@@6B@ DD FLAT:??_R4CMinOrExit@@6B@	; CMinOrExit::`vftable'
	DD	FLAT:?GetRuntimeClass@CMinOrExit@@UBEPAUCRuntimeClass@@XZ
	DD	FLAT:??_ECMinOrExit@@UAEPAXI@Z
	DD	FLAT:?Serialize@CObject@@UAEXAAVCArchive@@@Z
	DD	FLAT:?AssertValid@CDialog@@UBEXXZ
	DD	FLAT:?Dump@CDialog@@UBEXAAVCDumpContext@@@Z
	DD	FLAT:?OnCmdMsg@CDialog@@UAEHIHPAXPAUAFX_CMDHANDLERINFO@@@Z
	DD	FLAT:?OnFinalRelease@CWnd@@UAEXXZ
	DD	FLAT:?IsInvokeAllowed@CCmdTarget@@UAEHJ@Z
	DD	FLAT:?GetDispatchIID@CCmdTarget@@UAEHPAU_GUID@@@Z
	DD	FLAT:?GetTypeInfoCount@CCmdTarget@@UAEIXZ
	DD	FLAT:?GetTypeLibCache@CCmdTarget@@UAEPAVCTypeLibCache@@XZ
	DD	FLAT:?GetTypeLib@CCmdTarget@@UAEJKPAPAUITypeLib@@@Z
	DD	FLAT:?GetMessageMap@CMinOrExit@@MBEPBUAFX_MSGMAP@@XZ
	DD	FLAT:?GetCommandMap@CCmdTarget@@MBEPBUAFX_OLECMDMAP@@XZ
	DD	FLAT:?GetDispatchMap@CCmdTarget@@MBEPBUAFX_DISPMAP@@XZ
	DD	FLAT:?GetConnectionMap@CCmdTarget@@MBEPBUAFX_CONNECTIONMAP@@XZ
	DD	FLAT:?GetInterfaceMap@CWnd@@MBEPBUAFX_INTERFACEMAP@@XZ
	DD	FLAT:?GetEventSinkMap@CCmdTarget@@MBEPBUAFX_EVENTSINKMAP@@XZ
	DD	FLAT:?OnCreateAggregates@CCmdTarget@@UAEHXZ
	DD	FLAT:?GetInterfaceHook@CCmdTarget@@UAEPAUIUnknown@@PBX@Z
	DD	FLAT:?GetExtraConnectionPoints@CCmdTarget@@MAEHPAVCPtrArray@@@Z
	DD	FLAT:?GetConnectionHook@CCmdTarget@@MAEPAUIConnectionPoint@@ABU_GUID@@@Z
	DD	FLAT:?PreSubclassWindow@CWnd@@UAEXXZ
	DD	FLAT:?Create@CWnd@@UAEHPBD0KABUtagRECT@@PAV1@IPAUCCreateContext@@@Z
	DD	FLAT:?CreateEx@CWnd@@UAEHKPBD0KABUtagRECT@@PAV1@IPAX@Z
	DD	FLAT:?CreateEx@CWnd@@UAEHKPBD0KHHHHPAUHWND__@@PAUHMENU__@@PAX@Z
	DD	FLAT:?DestroyWindow@CWnd@@UAEHXZ
	DD	FLAT:?PreCreateWindow@CWnd@@UAEHAAUtagCREATESTRUCTA@@@Z
	DD	FLAT:?CalcWindowRect@CWnd@@UAEXPAUtagRECT@@I@Z
	DD	FLAT:?OnToolHitTest@CWnd@@UBEHVCPoint@@PAUtagTOOLINFOA@@@Z
	DD	FLAT:?GetScrollBarCtrl@CWnd@@UBEPAVCScrollBar@@H@Z
	DD	FLAT:?WinHelpA@CWnd@@UAEXKI@Z
	DD	FLAT:?HtmlHelpA@CWnd@@UAEXKI@Z
	DD	FLAT:?WinHelpInternal@CWnd@@UAEXKI@Z
	DD	FLAT:?ContinueModal@CWnd@@UAEHXZ
	DD	FLAT:?EndModalLoop@CWnd@@UAEXH@Z
	DD	FLAT:?EnsureStdObj@CWnd@@UAEJXZ
	DD	FLAT:?get_accParent@CWnd@@UAEJPAPAUIDispatch@@@Z
	DD	FLAT:?get_accChildCount@CWnd@@UAEJPAJ@Z
	DD	FLAT:?get_accChild@CWnd@@UAEJUtagVARIANT@@PAPAUIDispatch@@@Z
	DD	FLAT:?get_accName@CWnd@@UAEJUtagVARIANT@@PAPA_W@Z
	DD	FLAT:?get_accValue@CWnd@@UAEJUtagVARIANT@@PAPA_W@Z
	DD	FLAT:?get_accDescription@CWnd@@UAEJUtagVARIANT@@PAPA_W@Z
	DD	FLAT:?get_accRole@CWnd@@UAEJUtagVARIANT@@PAU2@@Z
	DD	FLAT:?get_accState@CWnd@@UAEJUtagVARIANT@@PAU2@@Z
	DD	FLAT:?get_accHelp@CWnd@@UAEJUtagVARIANT@@PAPA_W@Z
	DD	FLAT:?get_accHelpTopic@CWnd@@UAEJPAPA_WUtagVARIANT@@PAJ@Z
	DD	FLAT:?get_accKeyboardShortcut@CWnd@@UAEJUtagVARIANT@@PAPA_W@Z
	DD	FLAT:?get_accFocus@CWnd@@UAEJPAUtagVARIANT@@@Z
	DD	FLAT:?get_accSelection@CWnd@@UAEJPAUtagVARIANT@@@Z
	DD	FLAT:?get_accDefaultAction@CWnd@@UAEJUtagVARIANT@@PAPA_W@Z
	DD	FLAT:?accSelect@CWnd@@UAEJJUtagVARIANT@@@Z
	DD	FLAT:?accLocation@CWnd@@UAEJPAJ000UtagVARIANT@@@Z
	DD	FLAT:?accNavigate@CWnd@@UAEJJUtagVARIANT@@PAU2@@Z
	DD	FLAT:?accHitTest@CWnd@@UAEJJJPAUtagVARIANT@@@Z
	DD	FLAT:?accDoDefaultAction@CWnd@@UAEJUtagVARIANT@@@Z
	DD	FLAT:?put_accName@CWnd@@UAEJUtagVARIANT@@PA_W@Z
	DD	FLAT:?put_accValue@CWnd@@UAEJUtagVARIANT@@PA_W@Z
	DD	FLAT:?SetProxy@CWnd@@UAEJPAUIAccessibleProxy@@@Z
	DD	FLAT:?CreateAccessibleProxy@CWnd@@UAEJIJPAJ@Z
	DD	FLAT:?OnCommand@CMinOrExit@@MAEHIJ@Z
	DD	FLAT:?OnNotify@CWnd@@MAEHIJPAJ@Z
	DD	FLAT:?GetSuperWndProcAddr@CWnd@@MAEPAP6GJPAUHWND__@@IIJ@ZXZ
	DD	FLAT:?DoDataExchange@CMinOrExit@@MAEXPAVCDataExchange@@@Z
	DD	FLAT:?BeginModalState@CWnd@@UAEXXZ
	DD	FLAT:?EndModalState@CWnd@@UAEXXZ
	DD	FLAT:?PreTranslateMessage@CDialog@@UAEHPAUtagMSG@@@Z
	DD	FLAT:?OnAmbientProperty@CWnd@@UAEHPAVCOleControlSite@@JPAUtagVARIANT@@@Z
	DD	FLAT:?WindowProc@CWnd@@MAEJIIJ@Z
	DD	FLAT:?OnWndMsg@CWnd@@MAEHIIJPAJ@Z
	DD	FLAT:?DefWindowProcA@CWnd@@MAEJIIJ@Z
	DD	FLAT:?PostNcDestroy@CWnd@@MAEXXZ
	DD	FLAT:?OnChildNotify@CWnd@@MAEHIIJPAJ@Z
	DD	FLAT:?CheckAutoCenter@CDialog@@UAEHXZ
	DD	FLAT:?IsFrameWnd@CWnd@@UBEHXZ
	DD	FLAT:?CreateControlContainer@CWnd@@MAEHPAPAVCOleControlContainer@@@Z
	DD	FLAT:?CreateControlSite@CWnd@@MAEHPAVCOleControlContainer@@PAPAVCOleControlSite@@IABU_GUID@@@Z
	DD	FLAT:?SetOccDialogInfo@CDialog@@MAEHPAU_AFX_OCC_DIALOG_INFO@@@Z
	DD	FLAT:?Create@CDialog@@UAEHIPAVCWnd@@@Z
	DD	FLAT:?Create@CDialog@@UAEHPBDPAVCWnd@@@Z
	DD	FLAT:?CreateIndirect@CDialog@@UAEHPAXPAVCWnd@@@Z
	DD	FLAT:?CreateIndirect@CDialog@@UAEHPBUDLGTEMPLATE@@PAVCWnd@@PAX@Z
	DD	FLAT:?DoModal@CDialog@@UAEHXZ
	DD	FLAT:?OnInitDialog@CMinOrExit@@MAEHXZ
	DD	FLAT:?OnSetFont@CDialog@@UAEXPAVCFont@@@Z
	DD	FLAT:?OnOK@CMinOrExit@@MAEXXZ
	DD	FLAT:?OnCancel@CDialog@@MAEXXZ
	DD	FLAT:?PreInitDialog@CDialog@@MAEXXZ
CONST	ENDS
;	COMDAT ??_R4CMinOrExit@@6B@
rdata$r	SEGMENT
??_R4CMinOrExit@@6B@ DD 00H				; CMinOrExit::`RTTI Complete Object Locator'
	DD	00H
	DD	00H
	DD	FLAT:??_R0?AVCMinOrExit@@@8
	DD	FLAT:??_R3CMinOrExit@@8
rdata$r	ENDS
;	COMDAT ??_R0?AVCMinOrExit@@@8
_DATA	SEGMENT
??_R0?AVCMinOrExit@@@8 DD FLAT:??_7type_info@@6B@	; CMinOrExit `RTTI Type Descriptor'
	DD	00H
	DB	'.?AVCMinOrExit@@', 00H
_DATA	ENDS
;	COMDAT ??_R3CMinOrExit@@8
rdata$r	SEGMENT
??_R3CMinOrExit@@8 DD 00H				; CMinOrExit::`RTTI Class Hierarchy Descriptor'
	DD	00H
	DD	05H
	DD	FLAT:??_R2CMinOrExit@@8
rdata$r	ENDS
;	COMDAT ??_R2CMinOrExit@@8
rdata$r	SEGMENT
??_R2CMinOrExit@@8 DD FLAT:??_R1A@?0A@A@CMinOrExit@@8	; CMinOrExit::`RTTI Base Class Array'
	DD	FLAT:??_R1A@?0A@A@CDialog@@8
	DD	FLAT:??_R1A@?0A@A@CWnd@@8
	DD	FLAT:??_R1A@?0A@A@CCmdTarget@@8
	DD	FLAT:??_R1A@?0A@A@CObject@@8
rdata$r	ENDS
;	COMDAT ??_R1A@?0A@A@CMinOrExit@@8
rdata$r	SEGMENT
??_R1A@?0A@A@CMinOrExit@@8 DD FLAT:??_R0?AVCMinOrExit@@@8 ; CMinOrExit::`RTTI Base Class Descriptor at (0,-1,0,0)'
	DD	04H
	DD	00H
	DD	0ffffffffH
	DD	00H
	DD	00H
rdata$r	ENDS
;	COMDAT ??_R1A@?0A@A@CDialog@@8
rdata$r	SEGMENT
??_R1A@?0A@A@CDialog@@8 DD FLAT:??_R0?AVCDialog@@@8	; CDialog::`RTTI Base Class Descriptor at (0,-1,0,0)'
	DD	03H
	DD	00H
	DD	0ffffffffH
	DD	00H
	DD	00H
rdata$r	ENDS
;	COMDAT ??_R0?AVCDialog@@@8
_DATA	SEGMENT
??_R0?AVCDialog@@@8 DD FLAT:??_7type_info@@6B@		; CDialog `RTTI Type Descriptor'
	DD	00H
	DB	'.?AVCDialog@@', 00H
_DATA	ENDS
;	COMDAT ??_R1A@?0A@A@CWnd@@8
rdata$r	SEGMENT
??_R1A@?0A@A@CWnd@@8 DD FLAT:??_R0?AVCWnd@@@8		; CWnd::`RTTI Base Class Descriptor at (0,-1,0,0)'
	DD	02H
	DD	00H
	DD	0ffffffffH
	DD	00H
	DD	00H
rdata$r	ENDS
;	COMDAT ??_R0?AVCWnd@@@8
_DATA	SEGMENT
??_R0?AVCWnd@@@8 DD FLAT:??_7type_info@@6B@		; CWnd `RTTI Type Descriptor'
	DD	00H
	DB	'.?AVCWnd@@', 00H
_DATA	ENDS
;	COMDAT ??_R1A@?0A@A@CCmdTarget@@8
rdata$r	SEGMENT
??_R1A@?0A@A@CCmdTarget@@8 DD FLAT:??_R0?AVCCmdTarget@@@8 ; CCmdTarget::`RTTI Base Class Descriptor at (0,-1,0,0)'
	DD	01H
	DD	00H
	DD	0ffffffffH
	DD	00H
	DD	00H
rdata$r	ENDS
;	COMDAT ??_R0?AVCCmdTarget@@@8
_DATA	SEGMENT
??_R0?AVCCmdTarget@@@8 DD FLAT:??_7type_info@@6B@	; CCmdTarget `RTTI Type Descriptor'
	DD	00H
	DB	'.?AVCCmdTarget@@', 00H
_DATA	ENDS
;	COMDAT ??_R1A@?0A@A@CObject@@8
rdata$r	SEGMENT
??_R1A@?0A@A@CObject@@8 DD FLAT:??_R0?AVCObject@@@8	; CObject::`RTTI Base Class Descriptor at (0,-1,0,0)'
	DD	00H
	DD	00H
	DD	0ffffffffH
	DD	00H
	DD	00H
rdata$r	ENDS
;	COMDAT ??_R0?AVCObject@@@8
_DATA	SEGMENT
??_R0?AVCObject@@@8 DD FLAT:??_7type_info@@6B@		; CObject `RTTI Type Descriptor'
	DD	00H
	DB	'.?AVCObject@@', 00H
; Function compile flags: /Odt /RTCsu
_DATA	ENDS
_TEXT	SEGMENT
tv174 = -24						; size = 4
tv169 = -20						; size = 4
_this$ = -16						; size = 4
__$EHRec$ = -12						; size = 12
_pParent$ = 8						; size = 4
??0CMinOrExit@@QAE@PAVCWnd@@@Z PROC NEAR		; CMinOrExit::CMinOrExit
; _this$ = ecx

; 18   : {

  00030	55		 push	 ebp
  00031	8b ec		 mov	 ebp, esp
  00033	6a ff		 push	 -1
  00035	68 00 00 00 00	 push	 __ehhandler$??0CMinOrExit@@QAE@PAVCWnd@@@Z
  0003a	64 a1 00 00 00
	00		 mov	 eax, DWORD PTR fs:__except_list
  00040	50		 push	 eax
  00041	64 89 25 00 00
	00 00		 mov	 DWORD PTR fs:__except_list, esp
  00048	83 ec 0c	 sub	 esp, 12			; 0000000cH
  0004b	56		 push	 esi
  0004c	c7 45 e8 cc cc
	cc cc		 mov	 DWORD PTR [ebp-24], -858993460 ; ccccccccH
  00053	c7 45 ec cc cc
	cc cc		 mov	 DWORD PTR [ebp-20], -858993460 ; ccccccccH
  0005a	c7 45 f0 cc cc
	cc cc		 mov	 DWORD PTR [ebp-16], -858993460 ; ccccccccH
  00061	89 4d f0	 mov	 DWORD PTR _this$[ebp], ecx
  00064	8b 45 08	 mov	 eax, DWORD PTR _pParent$[ebp]
  00067	50		 push	 eax
  00068	6a 6b		 push	 107			; 0000006bH
  0006a	8b 4d f0	 mov	 ecx, DWORD PTR _this$[ebp]
  0006d	e8 00 00 00 00	 call	 ??0CDialog@@QAE@IPAVCWnd@@@Z ; CDialog::CDialog
  00072	c7 45 fc 00 00
	00 00		 mov	 DWORD PTR __$EHRec$[ebp+8], 0
  00079	8b 4d f0	 mov	 ecx, DWORD PTR _this$[ebp]
  0007c	c7 01 00 00 00
	00		 mov	 DWORD PTR [ecx], OFFSET FLAT:??_7CMinOrExit@@6B@
  00082	8b 4d f0	 mov	 ecx, DWORD PTR _this$[ebp]
  00085	83 c1 74	 add	 ecx, 116		; 00000074H
  00088	e8 00 00 00 00	 call	 ??0CxSkinButton@@QAE@XZ	; CxSkinButton::CxSkinButton
  0008d	c6 45 fc 01	 mov	 BYTE PTR __$EHRec$[ebp+8], 1
  00091	8b 4d f0	 mov	 ecx, DWORD PTR _this$[ebp]
  00094	81 c1 98 01 00
	00		 add	 ecx, 408		; 00000198H
  0009a	e8 00 00 00 00	 call	 ??0CxSkinButton@@QAE@XZ	; CxSkinButton::CxSkinButton
  0009f	c6 45 fc 02	 mov	 BYTE PTR __$EHRec$[ebp+8], 2
  000a3	8b 4d f0	 mov	 ecx, DWORD PTR _this$[ebp]
  000a6	81 c1 bc 02 00
	00		 add	 ecx, 700		; 000002bcH
  000ac	e8 00 00 00 00	 call	 ??0CxSkinButton@@QAE@XZ	; CxSkinButton::CxSkinButton
  000b1	c6 45 fc 03	 mov	 BYTE PTR __$EHRec$[ebp+8], 3
  000b5	8b 4d f0	 mov	 ecx, DWORD PTR _this$[ebp]
  000b8	81 c1 e0 03 00
	00		 add	 ecx, 992		; 000003e0H
  000be	e8 00 00 00 00	 call	 ??0CxSkinButton@@QAE@XZ	; CxSkinButton::CxSkinButton
  000c3	c6 45 fc 04	 mov	 BYTE PTR __$EHRec$[ebp+8], 4
  000c7	8b 4d f0	 mov	 ecx, DWORD PTR _this$[ebp]
  000ca	81 c1 04 05 00
	00		 add	 ecx, 1284		; 00000504H
  000d0	e8 00 00 00 00	 call	 ??0CxSkinButton@@QAE@XZ	; CxSkinButton::CxSkinButton
  000d5	c6 45 fc 05	 mov	 BYTE PTR __$EHRec$[ebp+8], 5
  000d9	8b 4d f0	 mov	 ecx, DWORD PTR _this$[ebp]
  000dc	81 c1 28 06 00
	00		 add	 ecx, 1576		; 00000628H
  000e2	e8 00 00 00 00	 call	 ??0CxSkinButton@@QAE@XZ	; CxSkinButton::CxSkinButton
  000e7	c6 45 fc 06	 mov	 BYTE PTR __$EHRec$[ebp+8], 6
  000eb	8b 4d f0	 mov	 ecx, DWORD PTR _this$[ebp]
  000ee	81 c1 4c 07 00
	00		 add	 ecx, 1868		; 0000074cH
  000f4	e8 00 00 00 00	 call	 ??0CxSkinButton@@QAE@XZ	; CxSkinButton::CxSkinButton
  000f9	c6 45 fc 07	 mov	 BYTE PTR __$EHRec$[ebp+8], 7
  000fd	8b 4d f0	 mov	 ecx, DWORD PTR _this$[ebp]
  00100	81 c1 70 08 00
	00		 add	 ecx, 2160		; 00000870H
  00106	e8 00 00 00 00	 call	 ??0CxSkinButton@@QAE@XZ	; CxSkinButton::CxSkinButton
  0010b	c6 45 fc 08	 mov	 BYTE PTR __$EHRec$[ebp+8], 8
  0010f	8b 4d f0	 mov	 ecx, DWORD PTR _this$[ebp]
  00112	81 c1 94 09 00
	00		 add	 ecx, 2452		; 00000994H
  00118	e8 00 00 00 00	 call	 ??0CxSkinButton@@QAE@XZ	; CxSkinButton::CxSkinButton
  0011d	c6 45 fc 09	 mov	 BYTE PTR __$EHRec$[ebp+8], 9
  00121	8b 55 f0	 mov	 edx, DWORD PTR _this$[ebp]
  00124	c7 82 b8 0a 00
	00 00 00 00 00	 mov	 DWORD PTR [edx+2744], 0
  0012e	8b 45 f0	 mov	 eax, DWORD PTR _this$[ebp]
  00131	c7 80 bc 0a 00
	00 00 00 00 00	 mov	 DWORD PTR [eax+2748], 0

; 19   : 	m_bkg= ::AfxGetUIManager()->UIGetSkinMgr()->GetDibBmp("MinOrExitBkg");

  0013b	e8 00 00 00 00	 call	 ?AfxGetUIManager@@YAPAVIUIManager@@XZ ; AfxGetUIManager
  00140	89 45 ec	 mov	 DWORD PTR tv169[ebp], eax
  00143	8b f4		 mov	 esi, esp
  00145	8b 4d ec	 mov	 ecx, DWORD PTR tv169[ebp]
  00148	8b 11		 mov	 edx, DWORD PTR [ecx]
  0014a	8b 4d ec	 mov	 ecx, DWORD PTR tv169[ebp]
  0014d	ff 52 28	 call	 DWORD PTR [edx+40]
  00150	3b f4		 cmp	 esi, esp
  00152	e8 00 00 00 00	 call	 __RTC_CheckEsp
  00157	89 45 e8	 mov	 DWORD PTR tv174[ebp], eax
  0015a	8b f4		 mov	 esi, esp
  0015c	68 00 00 00 00	 push	 OFFSET FLAT:$SG188641
  00161	8b 45 e8	 mov	 eax, DWORD PTR tv174[ebp]
  00164	8b 10		 mov	 edx, DWORD PTR [eax]
  00166	8b 4d e8	 mov	 ecx, DWORD PTR tv174[ebp]
  00169	ff 52 04	 call	 DWORD PTR [edx+4]
  0016c	3b f4		 cmp	 esi, esp
  0016e	e8 00 00 00 00	 call	 __RTC_CheckEsp
  00173	8b 4d f0	 mov	 ecx, DWORD PTR _this$[ebp]
  00176	89 81 c0 0a 00
	00		 mov	 DWORD PTR [ecx+2752], eax

; 20   : }

  0017c	c7 45 fc ff ff
	ff ff		 mov	 DWORD PTR __$EHRec$[ebp+8], -1
  00183	8b 45 f0	 mov	 eax, DWORD PTR _this$[ebp]
  00186	8b 4d f4	 mov	 ecx, DWORD PTR __$EHRec$[ebp]
  00189	64 89 0d 00 00
	00 00		 mov	 DWORD PTR fs:__except_list, ecx
  00190	5e		 pop	 esi
  00191	83 c4 18	 add	 esp, 24			; 00000018H
  00194	3b ec		 cmp	 ebp, esp
  00196	e8 00 00 00 00	 call	 __RTC_CheckEsp
  0019b	8b e5		 mov	 esp, ebp
  0019d	5d		 pop	 ebp
  0019e	c2 04 00	 ret	 4
_TEXT	ENDS
text$x	SEGMENT
$L189885:
  00000	8b 4d f0	 mov	 ecx, DWORD PTR _this$[ebp]
  00003	e9 00 00 00 00	 jmp	 ??1CDialog@@UAE@XZ	; CDialog::~CDialog
$L189886:
  00008	8b 4d f0	 mov	 ecx, DWORD PTR _this$[ebp]
  0000b	83 c1 74	 add	 ecx, 116		; 00000074H
  0000e	e9 00 00 00 00	 jmp	 ??1CxSkinButton@@UAE@XZ	; CxSkinButton::~CxSkinButton
$L189887:
  00013	8b 4d f0	 mov	 ecx, DWORD PTR _this$[ebp]
  00016	81 c1 98 01 00
	00		 add	 ecx, 408		; 00000198H
  0001c	e9 00 00 00 00	 jmp	 ??1CxSkinButton@@UAE@XZ	; CxSkinButton::~CxSkinButton
$L189888:
  00021	8b 4d f0	 mov	 ecx, DWORD PTR _this$[ebp]
  00024	81 c1 bc 02 00
	00		 add	 ecx, 700		; 000002bcH
  0002a	e9 00 00 00 00	 jmp	 ??1CxSkinButton@@UAE@XZ	; CxSkinButton::~CxSkinButton
$L189889:
  0002f	8b 4d f0	 mov	 ecx, DWORD PTR _this$[ebp]
  00032	81 c1 e0 03 00
	00		 add	 ecx, 992		; 000003e0H
  00038	e9 00 00 00 00	 jmp	 ??1CxSkinButton@@UAE@XZ	; CxSkinButton::~CxSkinButton
$L189890:
  0003d	8b 4d f0	 mov	 ecx, DWORD PTR _this$[ebp]
  00040	81 c1 04 05 00
	00		 add	 ecx, 1284		; 00000504H
  00046	e9 00 00 00 00	 jmp	 ??1CxSkinButton@@UAE@XZ	; CxSkinButton::~CxSkinButton
$L189891:
  0004b	8b 4d f0	 mov	 ecx, DWORD PTR _this$[ebp]
  0004e	81 c1 28 06 00
	00		 add	 ecx, 1576		; 00000628H
  00054	e9 00 00 00 00	 jmp	 ??1CxSkinButton@@UAE@XZ	; CxSkinButton::~CxSkinButton
$L189892:
  00059	8b 4d f0	 mov	 ecx, DWORD PTR _this$[ebp]
  0005c	81 c1 4c 07 00
	00		 add	 ecx, 1868		; 0000074cH
  00062	e9 00 00 00 00	 jmp	 ??1CxSkinButton@@UAE@XZ	; CxSkinButton::~CxSkinButton
$L189893:
  00067	8b 4d f0	 mov	 ecx, DWORD PTR _this$[ebp]
  0006a	81 c1 70 08 00
	00		 add	 ecx, 2160		; 00000870H
  00070	e9 00 00 00 00	 jmp	 ??1CxSkinButton@@UAE@XZ	; CxSkinButton::~CxSkinButton
$L189894:
  00075	8b 4d f0	 mov	 ecx, DWORD PTR _this$[ebp]
  00078	81 c1 94 09 00
	00		 add	 ecx, 2452		; 00000994H
  0007e	e9 00 00 00 00	 jmp	 ??1CxSkinButton@@UAE@XZ	; CxSkinButton::~CxSkinButton
__ehhandler$??0CMinOrExit@@QAE@PAVCWnd@@@Z:
  00083	b8 00 00 00 00	 mov	 eax, OFFSET FLAT:$T189898
  00088	e9 00 00 00 00	 jmp	 ___CxxFrameHandler
text$x	ENDS
??0CMinOrExit@@QAE@PAVCWnd@@@Z ENDP			; CMinOrExit::CMinOrExit
PUBLIC	??1CMinOrExit@@UAE@XZ				; CMinOrExit::~CMinOrExit
EXTRN	??3CObject@@SGXPAX@Z:NEAR			; CObject::operator delete
; Function compile flags: /Odt /RTCsu
;	COMDAT ??_GCMinOrExit@@UAEPAXI@Z
_TEXT	SEGMENT
_this$ = -4						; size = 4
___flags$ = 8						; size = 4
??_GCMinOrExit@@UAEPAXI@Z PROC NEAR			; CMinOrExit::`scalar deleting destructor', COMDAT
; _this$ = ecx
  00000	55		 push	 ebp
  00001	8b ec		 mov	 ebp, esp
  00003	51		 push	 ecx
  00004	c7 45 fc cc cc
	cc cc		 mov	 DWORD PTR [ebp-4], -858993460 ; ccccccccH
  0000b	89 4d fc	 mov	 DWORD PTR _this$[ebp], ecx
  0000e	8b 4d fc	 mov	 ecx, DWORD PTR _this$[ebp]
  00011	e8 00 00 00 00	 call	 ??1CMinOrExit@@UAE@XZ	; CMinOrExit::~CMinOrExit
  00016	8b 45 08	 mov	 eax, DWORD PTR ___flags$[ebp]
  00019	83 e0 01	 and	 eax, 1
  0001c	74 09		 je	 SHORT $L188645
  0001e	8b 4d fc	 mov	 ecx, DWORD PTR _this$[ebp]
  00021	51		 push	 ecx
  00022	e8 00 00 00 00	 call	 ??3CObject@@SGXPAX@Z	; CObject::operator delete
$L188645:
  00027	8b 45 fc	 mov	 eax, DWORD PTR _this$[ebp]
  0002a	83 c4 04	 add	 esp, 4
  0002d	3b ec		 cmp	 ebp, esp
  0002f	e8 00 00 00 00	 call	 __RTC_CheckEsp
  00034	8b e5		 mov	 esp, ebp
  00036	5d		 pop	 ebp
  00037	c2 04 00	 ret	 4
??_GCMinOrExit@@UAEPAXI@Z ENDP				; CMinOrExit::`scalar deleting destructor'
_TEXT	ENDS
xdata$x	SEGMENT
$T189919 DD	0ffffffffH
	DD	FLAT:$L189906
	DD	00H
	DD	FLAT:$L189907
	DD	01H
	DD	FLAT:$L189908
	DD	02H
	DD	FLAT:$L189909
	DD	03H
	DD	FLAT:$L189910
	DD	04H
	DD	FLAT:$L189911
	DD	05H
	DD	FLAT:$L189912
	DD	06H
	DD	FLAT:$L189913
	DD	07H
	DD	FLAT:$L189914
$T189917 DD	019930520H
	DD	09H
	DD	FLAT:$T189919
	DD	2 DUP(00H)
	DD	2 DUP(00H)
; Function compile flags: /Odt /RTCsu
xdata$x	ENDS
_TEXT	SEGMENT
_this$ = -16						; size = 4
__$EHRec$ = -12						; size = 12
??1CMinOrExit@@UAE@XZ PROC NEAR				; CMinOrExit::~CMinOrExit
; _this$ = ecx

; 23   : {

  001b0	55		 push	 ebp
  001b1	8b ec		 mov	 ebp, esp
  001b3	6a ff		 push	 -1
  001b5	68 00 00 00 00	 push	 __ehhandler$??1CMinOrExit@@UAE@XZ
  001ba	64 a1 00 00 00
	00		 mov	 eax, DWORD PTR fs:__except_list
  001c0	50		 push	 eax
  001c1	64 89 25 00 00
	00 00		 mov	 DWORD PTR fs:__except_list, esp
  001c8	51		 push	 ecx
  001c9	c7 45 f0 cc cc
	cc cc		 mov	 DWORD PTR [ebp-16], -858993460 ; ccccccccH
  001d0	89 4d f0	 mov	 DWORD PTR _this$[ebp], ecx
  001d3	8b 45 f0	 mov	 eax, DWORD PTR _this$[ebp]
  001d6	c7 00 00 00 00
	00		 mov	 DWORD PTR [eax], OFFSET FLAT:??_7CMinOrExit@@6B@
  001dc	c7 45 fc 08 00
	00 00		 mov	 DWORD PTR __$EHRec$[ebp+8], 8

; 24   : }

  001e3	8b 4d f0	 mov	 ecx, DWORD PTR _this$[ebp]
  001e6	81 c1 94 09 00
	00		 add	 ecx, 2452		; 00000994H
  001ec	e8 00 00 00 00	 call	 ??1CxSkinButton@@UAE@XZ	; CxSkinButton::~CxSkinButton
  001f1	c6 45 fc 07	 mov	 BYTE PTR __$EHRec$[ebp+8], 7
  001f5	8b 4d f0	 mov	 ecx, DWORD PTR _this$[ebp]
  001f8	81 c1 70 08 00
	00		 add	 ecx, 2160		; 00000870H
  001fe	e8 00 00 00 00	 call	 ??1CxSkinButton@@UAE@XZ	; CxSkinButton::~CxSkinButton
  00203	c6 45 fc 06	 mov	 BYTE PTR __$EHRec$[ebp+8], 6
  00207	8b 4d f0	 mov	 ecx, DWORD PTR _this$[ebp]
  0020a	81 c1 4c 07 00
	00		 add	 ecx, 1868		; 0000074cH
  00210	e8 00 00 00 00	 call	 ??1CxSkinButton@@UAE@XZ	; CxSkinButton::~CxSkinButton
  00215	c6 45 fc 05	 mov	 BYTE PTR __$EHRec$[ebp+8], 5
  00219	8b 4d f0	 mov	 ecx, DWORD PTR _this$[ebp]
  0021c	81 c1 28 06 00
	00		 add	 ecx, 1576		; 00000628H
  00222	e8 00 00 00 00	 call	 ??1CxSkinButton@@UAE@XZ	; CxSkinButton::~CxSkinButton
  00227	c6 45 fc 04	 mov	 BYTE PTR __$EHRec$[ebp+8], 4
  0022b	8b 4d f0	 mov	 ecx, DWORD PTR _this$[ebp]
  0022e	81 c1 04 05 00
	00		 add	 ecx, 1284		; 00000504H
  00234	e8 00 00 00 00	 call	 ??1CxSkinButton@@UAE@XZ	; CxSkinButton::~CxSkinButton
  00239	c6 45 fc 03	 mov	 BYTE PTR __$EHRec$[ebp+8], 3
  0023d	8b 4d f0	 mov	 ecx, DWORD PTR _this$[ebp]
  00240	81 c1 e0 03 00
	00		 add	 ecx, 992		; 000003e0H
  00246	e8 00 00 00 00	 call	 ??1CxSkinButton@@UAE@XZ	; CxSkinButton::~CxSkinButton
  0024b	c6 45 fc 02	 mov	 BYTE PTR __$EHRec$[ebp+8], 2
  0024f	8b 4d f0	 mov	 ecx, DWORD PTR _this$[ebp]
  00252	81 c1 bc 02 00
	00		 add	 ecx, 700		; 000002bcH
  00258	e8 00 00 00 00	 call	 ??1CxSkinButton@@UAE@XZ	; CxSkinButton::~CxSkinButton
  0025d	c6 45 fc 01	 mov	 BYTE PTR __$EHRec$[ebp+8], 1
  00261	8b 4d f0	 mov	 ecx, DWORD PTR _this$[ebp]
  00264	81 c1 98 01 00
	00		 add	 ecx, 408		; 00000198H
  0026a	e8 00 00 00 00	 call	 ??1CxSkinButton@@UAE@XZ	; CxSkinButton::~CxSkinButton
  0026f	c6 45 fc 00	 mov	 BYTE PTR __$EHRec$[ebp+8], 0
  00273	8b 4d f0	 mov	 ecx, DWORD PTR _this$[ebp]
  00276	83 c1 74	 add	 ecx, 116		; 00000074H
  00279	e8 00 00 00 00	 call	 ??1CxSkinButton@@UAE@XZ	; CxSkinButton::~CxSkinButton
  0027e	c7 45 fc ff ff
	ff ff		 mov	 DWORD PTR __$EHRec$[ebp+8], -1
  00285	8b 4d f0	 mov	 ecx, DWORD PTR _this$[ebp]
  00288	e8 00 00 00 00	 call	 ??1CDialog@@UAE@XZ	; CDialog::~CDialog
  0028d	8b 4d f4	 mov	 ecx, DWORD PTR __$EHRec$[ebp]
  00290	64 89 0d 00 00
	00 00		 mov	 DWORD PTR fs:__except_list, ecx
  00297	83 c4 10	 add	 esp, 16			; 00000010H
  0029a	3b ec		 cmp	 ebp, esp
  0029c	e8 00 00 00 00	 call	 __RTC_CheckEsp
  002a1	8b e5		 mov	 esp, ebp
  002a3	5d		 pop	 ebp
  002a4	c3		 ret	 0
_TEXT	ENDS
text$x	SEGMENT
$L189906:
  0008d	8b 4d f0	 mov	 ecx, DWORD PTR _this$[ebp]
  00090	e9 00 00 00 00	 jmp	 ??1CDialog@@UAE@XZ	; CDialog::~CDialog
$L189907:
  00095	8b 4d f0	 mov	 ecx, DWORD PTR _this$[ebp]
  00098	83 c1 74	 add	 ecx, 116		; 00000074H
  0009b	e9 00 00 00 00	 jmp	 ??1CxSkinButton@@UAE@XZ	; CxSkinButton::~CxSkinButton
$L189908:
  000a0	8b 4d f0	 mov	 ecx, DWORD PTR _this$[ebp]
  000a3	81 c1 98 01 00
	00		 add	 ecx, 408		; 00000198H
  000a9	e9 00 00 00 00	 jmp	 ??1CxSkinButton@@UAE@XZ	; CxSkinButton::~CxSkinButton
$L189909:
  000ae	8b 4d f0	 mov	 ecx, DWORD PTR _this$[ebp]
  000b1	81 c1 bc 02 00
	00		 add	 ecx, 700		; 000002bcH
  000b7	e9 00 00 00 00	 jmp	 ??1CxSkinButton@@UAE@XZ	; CxSkinButton::~CxSkinButton
$L189910:
  000bc	8b 4d f0	 mov	 ecx, DWORD PTR _this$[ebp]
  000bf	81 c1 e0 03 00
	00		 add	 ecx, 992		; 000003e0H
  000c5	e9 00 00 00 00	 jmp	 ??1CxSkinButton@@UAE@XZ	; CxSkinButton::~CxSkinButton
$L189911:
  000ca	8b 4d f0	 mov	 ecx, DWORD PTR _this$[ebp]
  000cd	81 c1 04 05 00
	00		 add	 ecx, 1284		; 00000504H
  000d3	e9 00 00 00 00	 jmp	 ??1CxSkinButton@@UAE@XZ	; CxSkinButton::~CxSkinButton
$L189912:
  000d8	8b 4d f0	 mov	 ecx, DWORD PTR _this$[ebp]
  000db	81 c1 28 06 00
	00		 add	 ecx, 1576		; 00000628H
  000e1	e9 00 00 00 00	 jmp	 ??1CxSkinButton@@UAE@XZ	; CxSkinButton::~CxSkinButton
$L189913:
  000e6	8b 4d f0	 mov	 ecx, DWORD PTR _this$[ebp]
  000e9	81 c1 4c 07 00
	00		 add	 ecx, 1868		; 0000074cH
  000ef	e9 00 00 00 00	 jmp	 ??1CxSkinButton@@UAE@XZ	; CxSkinButton::~CxSkinButton
$L189914:
  000f4	8b 4d f0	 mov	 ecx, DWORD PTR _this$[ebp]
  000f7	81 c1 70 08 00
	00		 add	 ecx, 2160		; 00000870H
  000fd	e9 00 00 00 00	 jmp	 ??1CxSkinButton@@UAE@XZ	; CxSkinButton::~CxSkinButton
__ehhandler$??1CMinOrExit@@UAE@XZ:
  00102	b8 00 00 00 00	 mov	 eax, OFFSET FLAT:$T189917
  00107	e9 00 00 00 00	 jmp	 ___CxxFrameHandler
text$x	ENDS
??1CMinOrExit@@UAE@XZ ENDP				; CMinOrExit::~CMinOrExit
EXTRN	?DoDataExchange@CWnd@@MAEXPAVCDataExchange@@@Z:NEAR ; CWnd::DoDataExchange
; Function compile flags: /Odt /RTCsu
_TEXT	SEGMENT
_this$ = -4						; size = 4
_pDX$ = 8						; size = 4
?DoDataExchange@CMinOrExit@@MAEXPAVCDataExchange@@@Z PROC NEAR ; CMinOrExit::DoDataExchange
; _this$ = ecx

; 27   : {

  002b0	55		 push	 ebp
  002b1	8b ec		 mov	 ebp, esp
  002b3	51		 push	 ecx
  002b4	c7 45 fc cc cc
	cc cc		 mov	 DWORD PTR [ebp-4], -858993460 ; ccccccccH
  002bb	89 4d fc	 mov	 DWORD PTR _this$[ebp], ecx

; 28   : 	CDialog::DoDataExchange(pDX);

  002be	8b 45 08	 mov	 eax, DWORD PTR _pDX$[ebp]
  002c1	50		 push	 eax
  002c2	8b 4d fc	 mov	 ecx, DWORD PTR _this$[ebp]
  002c5	e8 00 00 00 00	 call	 ?DoDataExchange@CWnd@@MAEXPAVCDataExchange@@@Z ; CWnd::DoDataExchange

; 29   : }

  002ca	83 c4 04	 add	 esp, 4
  002cd	3b ec		 cmp	 ebp, esp
  002cf	e8 00 00 00 00	 call	 __RTC_CheckEsp
  002d4	8b e5		 mov	 esp, ebp
  002d6	5d		 pop	 ebp
  002d7	c2 04 00	 ret	 4
?DoDataExchange@CMinOrExit@@MAEXPAVCDataExchange@@@Z ENDP ; CMinOrExit::DoDataExchange
_TEXT	ENDS
PUBLIC	?GetThisMessageMap@CMinOrExit@@KGPBUAFX_MSGMAP@@XZ ; CMinOrExit::GetThisMessageMap
; Function compile flags: /Odt /RTCsu
_TEXT	SEGMENT
?GetThisMessageMap@CMinOrExit@@KGPBUAFX_MSGMAP@@XZ PROC NEAR ; CMinOrExit::GetThisMessageMap

; 32   : BEGIN_MESSAGE_MAP(CMinOrExit, CDialog)

  002e0	55		 push	 ebp
  002e1	8b ec		 mov	 ebp, esp
  002e3	b8 00 00 00 00	 mov	 eax, OFFSET FLAT:?messageMap@CMinOrExit@@1UAFX_MSGMAP@@B ; CMinOrExit::messageMap
  002e8	5d		 pop	 ebp
  002e9	c3		 ret	 0
?GetThisMessageMap@CMinOrExit@@KGPBUAFX_MSGMAP@@XZ ENDP	; CMinOrExit::GetThisMessageMap
; Function compile flags: /Odt /RTCsu
_this$ = -4						; size = 4
?GetMessageMap@CMinOrExit@@MBEPBUAFX_MSGMAP@@XZ PROC NEAR ; CMinOrExit::GetMessageMap
; _this$ = ecx

; 32   : BEGIN_MESSAGE_MAP(CMinOrExit, CDialog)

  002f0	55		 push	 ebp
  002f1	8b ec		 mov	 ebp, esp
  002f3	51		 push	 ecx
  002f4	c7 45 fc cc cc
	cc cc		 mov	 DWORD PTR [ebp-4], -858993460 ; ccccccccH
  002fb	89 4d fc	 mov	 DWORD PTR _this$[ebp], ecx
  002fe	b8 00 00 00 00	 mov	 eax, OFFSET FLAT:?messageMap@CMinOrExit@@1UAFX_MSGMAP@@B ; CMinOrExit::messageMap
  00303	8b e5		 mov	 esp, ebp
  00305	5d		 pop	 ebp
  00306	c3		 ret	 0
?GetMessageMap@CMinOrExit@@MBEPBUAFX_MSGMAP@@XZ ENDP	; CMinOrExit::GetMessageMap
_TEXT	ENDS
PUBLIC	?GetMainWnd@CHostWndMgr@@QAEPAVCWnd@@XZ		; CHostWndMgr::GetMainWnd
PUBLIC	?CheckRad1@CMinOrExit@@AAEXXZ			; CMinOrExit::CheckRad1
PUBLIC	?CheckRad2@CMinOrExit@@AAEXXZ			; CMinOrExit::CheckRad2
EXTRN	?GetInstance@CHostWndMgr@@SAPAV1@XZ:NEAR	; CHostWndMgr::GetInstance
EXTRN	?AfxGetUserConfig@@YAPAVAfxUserConfig@@XZ:NEAR	; AfxGetUserConfig
EXTRN	??0CRect@@QAE@XZ:NEAR				; CRect::CRect
EXTRN	??0CRect@@QAE@HHHH@Z:NEAR			; CRect::CRect
EXTRN	??BCRect@@QAEPAUtagRECT@@XZ:NEAR		; CRect::operator tagRECT *
EXTRN	__imp_??0?$basic_string@DU?$char_traits@D@std@@V?$allocator@D@2@@std@@QAE@PBD@Z:NEAR
EXTRN	?CreateRgnFromBitmap@CDibBitmap@@QAEPAUHRGN__@@KPAVCWnd@@@Z:NEAR ; CDibBitmap::CreateRgnFromBitmap
EXTRN	@_RTC_CheckStackVars@8:NEAR
EXTRN	__imp_??1?$basic_string@DU?$char_traits@D@std@@V?$allocator@D@2@@std@@QAE@XZ:NEAR
EXTRN	?GetConfigBoolValue@AfxUserConfig@@QAEXABV?$basic_string@DU?$char_traits@D@std@@V?$allocator@D@2@@std@@0AA_N@Z:NEAR ; AfxUserConfig::GetConfigBoolValue
EXTRN	__imp_?YL_Log@@YAXABV?$basic_string@DU?$char_traits@D@std@@V?$allocator@D@2@@std@@H0PBDZZ:NEAR
EXTRN	?MoveWindow@CWnd@@QAEXPBUtagRECT@@H@Z:NEAR	; CWnd::MoveWindow
EXTRN	?SetWindowRgn@CWnd@@QAEHPAUHRGN__@@H@Z:NEAR	; CWnd::SetWindowRgn
EXTRN	?GetWindowRect@CWnd@@QBEXPAUtagRECT@@@Z:NEAR	; CWnd::GetWindowRect
EXTRN	?ShowWindow@CWnd@@QAEHH@Z:NEAR			; CWnd::ShowWindow
EXTRN	__imp_??0?$CStringT@DV?$StrTraitMFC_DLL@DV?$ChTraitsCRT@D@ATL@@@@@ATL@@QAE@PBD@Z:NEAR
EXTRN	?OnInitDialog@CDialog@@UAEHXZ:NEAR		; CDialog::OnInitDialog
EXTRN	__imp_??1?$CStringT@DV?$StrTraitMFC_DLL@DV?$ChTraitsCRT@D@ATL@@@@@ATL@@QAE@XZ:NEAR
EXTRN	__imp__GetSystemMetrics@4:NEAR
EXTRN	?GetParent@CWnd@@QBEPAV1@XZ:NEAR		; CWnd::GetParent
xdata$x	SEGMENT
$T189968 DD	0ffffffffH
	DD	FLAT:$L189941
	DD	00H
	DD	FLAT:$L189942
	DD	0ffffffffH
	DD	FLAT:$L189952
	DD	0ffffffffH
	DD	FLAT:$L189954
	DD	0ffffffffH
	DD	FLAT:$L189956
	DD	04H
	DD	FLAT:$L189957
$T189959 DD	019930520H
	DD	06H
	DD	FLAT:$T189968
	DD	2 DUP(00H)
	DD	2 DUP(00H)
; Function compile flags: /Odt /RTCsu
xdata$x	ENDS
_TEXT	SEGMENT
tv500 = -364						; size = 4
tv495 = -360						; size = 4
tv623 = -356						; size = 4
tv620 = -352						; size = 4
tv631 = -348						; size = 4
tv618 = -344						; size = 4
tv615 = -340						; size = 4
tv628 = -336						; size = 4
tv613 = -332						; size = 4
tv610 = -328						; size = 4
tv607 = -324						; size = 4
tv604 = -320						; size = 4
tv601 = -316						; size = 4
tv598 = -312						; size = 4
tv595 = -308						; size = 4
tv592 = -304						; size = 4
tv589 = -300						; size = 4
tv229 = -296						; size = 4
$T189940 = -292						; size = 28
$T189939 = -264						; size = 28
$T189938 = -236						; size = 4
$T189937 = -232						; size = 4
$T189936 = -228						; size = 4
$T189935 = -224						; size = 4
$T189934 = -220						; size = 4
$T189933 = -216						; size = 4
$T189932 = -212						; size = 4
$T189931 = -208						; size = 4
$T189930 = -204						; size = 4
$T189929 = -200						; size = 4
$T189928 = -196						; size = 4
$T189927 = -192						; size = 4
$T189926 = -188						; size = 4
$T189925 = -184						; size = 28
$T189924 = -156						; size = 28
_screenY$ = -128					; size = 4
_screenX$ = -124					; size = 4
_y$ = -120						; size = 4
_x$ = -116						; size = 4
_pWnd$ = -112						; size = 4
_wndRect$ = -104					; size = 16
_winPos$ = -80						; size = 16
_pLayoutMgr$ = -60					; size = 4
_rectNULL$ = -52					; size = 16
_exitchoice$ = -25					; size = 1
_m_color$ = -20						; size = 4
_this$ = -16						; size = 4
__$EHRec$ = -12						; size = 12
?OnInitDialog@CMinOrExit@@MAEHXZ PROC NEAR		; CMinOrExit::OnInitDialog
; _this$ = ecx

; 41   : {

  00310	55		 push	 ebp
  00311	8b ec		 mov	 ebp, esp
  00313	6a ff		 push	 -1
  00315	68 00 00 00 00	 push	 __ehhandler$?OnInitDialog@CMinOrExit@@MAEHXZ
  0031a	64 a1 00 00 00
	00		 mov	 eax, DWORD PTR fs:__except_list
  00320	50		 push	 eax
  00321	64 89 25 00 00
	00 00		 mov	 DWORD PTR fs:__except_list, esp
  00328	81 ec 60 01 00
	00		 sub	 esp, 352		; 00000160H
  0032e	56		 push	 esi
  0032f	57		 push	 edi
  00330	51		 push	 ecx
  00331	8d bd 94 fe ff
	ff		 lea	 edi, DWORD PTR [ebp-364]
  00337	b9 58 00 00 00	 mov	 ecx, 88			; 00000058H
  0033c	b8 cc cc cc cc	 mov	 eax, -858993460		; ccccccccH
  00341	f3 ab		 rep stosd
  00343	59		 pop	 ecx
  00344	89 4d f0	 mov	 DWORD PTR _this$[ebp], ecx

; 42   : 	CDialog::OnInitDialog();

  00347	8b 4d f0	 mov	 ecx, DWORD PTR _this$[ebp]
  0034a	e8 00 00 00 00	 call	 ?OnInitDialog@CDialog@@UAEHXZ ; CDialog::OnInitDialog

; 43   : 
; 44   : 	COLORREF m_color(RGB(255,0,255));

  0034f	c7 45 ec ff 00
	ff 00		 mov	 DWORD PTR _m_color$[ebp], 16711935 ; 00ff00ffH

; 45   : 	SetWindowRgn(m_bkg->CreateRgnFromBitmap(m_color,this),TRUE);

  00356	6a 01		 push	 1
  00358	8b 45 f0	 mov	 eax, DWORD PTR _this$[ebp]
  0035b	50		 push	 eax
  0035c	8b 4d ec	 mov	 ecx, DWORD PTR _m_color$[ebp]
  0035f	51		 push	 ecx
  00360	8b 55 f0	 mov	 edx, DWORD PTR _this$[ebp]
  00363	8b 8a c0 0a 00
	00		 mov	 ecx, DWORD PTR [edx+2752]
  00369	e8 00 00 00 00	 call	 ?CreateRgnFromBitmap@CDibBitmap@@QAEPAUHRGN__@@KPAVCWnd@@@Z ; CDibBitmap::CreateRgnFromBitmap
  0036e	50		 push	 eax
  0036f	8b 4d f0	 mov	 ecx, DWORD PTR _this$[ebp]
  00372	e8 00 00 00 00	 call	 ?SetWindowRgn@CWnd@@QAEHPAUHRGN__@@H@Z ; CWnd::SetWindowRgn

; 46   : 
; 47   : 	bool exitchoice;
; 48   : 	AfxGetUserConfig()->GetConfigBoolValue( CONF_SETTING_MODULE_NAME,CONF_SETTING_CONFIG_EXITCHOICE,exitchoice);

  00377	8b f4		 mov	 esi, esp
  00379	a1 00 00 00 00	 mov	 eax, DWORD PTR _CONF_SETTING_CONFIG_EXITCHOICE
  0037e	50		 push	 eax
  0037f	8d 8d 64 ff ff
	ff		 lea	 ecx, DWORD PTR $T189924[ebp]
  00385	ff 15 00 00 00
	00		 call	 DWORD PTR __imp_??0?$basic_string@DU?$char_traits@D@std@@V?$allocator@D@2@@std@@QAE@PBD@Z
  0038b	3b f4		 cmp	 esi, esp
  0038d	e8 00 00 00 00	 call	 __RTC_CheckEsp
  00392	c7 45 fc 00 00
	00 00		 mov	 DWORD PTR __$EHRec$[ebp+8], 0
  00399	8b f4		 mov	 esi, esp
  0039b	8b 0d 00 00 00
	00		 mov	 ecx, DWORD PTR _CONF_SETTING_MODULE_NAME
  003a1	51		 push	 ecx
  003a2	8d 8d 48 ff ff
	ff		 lea	 ecx, DWORD PTR $T189925[ebp]
  003a8	ff 15 00 00 00
	00		 call	 DWORD PTR __imp_??0?$basic_string@DU?$char_traits@D@std@@V?$allocator@D@2@@std@@QAE@PBD@Z
  003ae	3b f4		 cmp	 esi, esp
  003b0	e8 00 00 00 00	 call	 __RTC_CheckEsp
  003b5	c6 45 fc 01	 mov	 BYTE PTR __$EHRec$[ebp+8], 1
  003b9	8d 55 e7	 lea	 edx, DWORD PTR _exitchoice$[ebp]
  003bc	52		 push	 edx
  003bd	8d 85 64 ff ff
	ff		 lea	 eax, DWORD PTR $T189924[ebp]
  003c3	50		 push	 eax
  003c4	8d 8d 48 ff ff
	ff		 lea	 ecx, DWORD PTR $T189925[ebp]
  003ca	51		 push	 ecx
  003cb	e8 00 00 00 00	 call	 ?AfxGetUserConfig@@YAPAVAfxUserConfig@@XZ ; AfxGetUserConfig
  003d0	8b c8		 mov	 ecx, eax
  003d2	e8 00 00 00 00	 call	 ?GetConfigBoolValue@AfxUserConfig@@QAEXABV?$basic_string@DU?$char_traits@D@std@@V?$allocator@D@2@@std@@0AA_N@Z ; AfxUserConfig::GetConfigBoolValue
  003d7	c6 45 fc 00	 mov	 BYTE PTR __$EHRec$[ebp+8], 0
  003db	8b f4		 mov	 esi, esp
  003dd	8d 8d 48 ff ff
	ff		 lea	 ecx, DWORD PTR $T189925[ebp]
  003e3	ff 15 00 00 00
	00		 call	 DWORD PTR __imp_??1?$basic_string@DU?$char_traits@D@std@@V?$allocator@D@2@@std@@QAE@XZ
  003e9	3b f4		 cmp	 esi, esp
  003eb	e8 00 00 00 00	 call	 __RTC_CheckEsp
  003f0	c7 45 fc ff ff
	ff ff		 mov	 DWORD PTR __$EHRec$[ebp+8], -1
  003f7	8b f4		 mov	 esi, esp
  003f9	8d 8d 64 ff ff
	ff		 lea	 ecx, DWORD PTR $T189924[ebp]
  003ff	ff 15 00 00 00
	00		 call	 DWORD PTR __imp_??1?$basic_string@DU?$char_traits@D@std@@V?$allocator@D@2@@std@@QAE@XZ
  00405	3b f4		 cmp	 esi, esp
  00407	e8 00 00 00 00	 call	 __RTC_CheckEsp

; 49   : 	m_chkRad=exitchoice?TRUE:FALSE;

  0040c	0f b6 55 e7	 movzx	 edx, BYTE PTR _exitchoice$[ebp]
  00410	f7 da		 neg	 edx
  00412	1b d2		 sbb	 edx, edx
  00414	f7 da		 neg	 edx
  00416	8b 45 f0	 mov	 eax, DWORD PTR _this$[ebp]
  00419	89 90 b8 0a 00
	00		 mov	 DWORD PTR [eax+2744], edx

; 50   : 
; 51   : 	CRect rectNULL(0,0,0,0);

  0041f	6a 00		 push	 0
  00421	6a 00		 push	 0
  00423	6a 00		 push	 0
  00425	6a 00		 push	 0
  00427	8d 4d cc	 lea	 ecx, DWORD PTR _rectNULL$[ebp]
  0042a	e8 00 00 00 00	 call	 ??0CRect@@QAE@HHHH@Z	; CRect::CRect

; 52   : 	m_btnClose.Create(NULL,WS_VISIBLE,rectNULL,this,ID_BTN_MINORCLOSE_CANCLE);

  0042f	8b f4		 mov	 esi, esp
  00431	68 1d 27 00 00	 push	 10013			; 0000271dH
  00436	8b 4d f0	 mov	 ecx, DWORD PTR _this$[ebp]
  00439	51		 push	 ecx
  0043a	8d 55 cc	 lea	 edx, DWORD PTR _rectNULL$[ebp]
  0043d	52		 push	 edx
  0043e	68 00 00 00 10	 push	 268435456		; 10000000H
  00443	6a 00		 push	 0
  00445	8b 4d f0	 mov	 ecx, DWORD PTR _this$[ebp]
  00448	83 c1 74	 add	 ecx, 116		; 00000074H
  0044b	8b 45 f0	 mov	 eax, DWORD PTR _this$[ebp]
  0044e	8b 50 74	 mov	 edx, DWORD PTR [eax+116]
  00451	ff 92 38 01 00
	00		 call	 DWORD PTR [edx+312]
  00457	3b f4		 cmp	 esi, esp
  00459	e8 00 00 00 00	 call	 __RTC_CheckEsp

; 53   : 	m_btnCancle.Create(NULL,WS_VISIBLE,rectNULL,this,ID_BTN_MINORCLOSE_CANCLE);

  0045e	8b f4		 mov	 esi, esp
  00460	68 1d 27 00 00	 push	 10013			; 0000271dH
  00465	8b 45 f0	 mov	 eax, DWORD PTR _this$[ebp]
  00468	50		 push	 eax
  00469	8d 4d cc	 lea	 ecx, DWORD PTR _rectNULL$[ebp]
  0046c	51		 push	 ecx
  0046d	68 00 00 00 10	 push	 268435456		; 10000000H
  00472	6a 00		 push	 0
  00474	8b 4d f0	 mov	 ecx, DWORD PTR _this$[ebp]
  00477	81 c1 98 01 00
	00		 add	 ecx, 408		; 00000198H
  0047d	8b 55 f0	 mov	 edx, DWORD PTR _this$[ebp]
  00480	8b 82 98 01 00
	00		 mov	 eax, DWORD PTR [edx+408]
  00486	ff 90 38 01 00
	00		 call	 DWORD PTR [eax+312]
  0048c	3b f4		 cmp	 esi, esp
  0048e	e8 00 00 00 00	 call	 __RTC_CheckEsp

; 54   : 	m_btnOk.Create(NULL,WS_VISIBLE,rectNULL,this,ID_BTN_MINORCLOSE_OK);

  00493	8b f4		 mov	 esi, esp
  00495	68 19 27 00 00	 push	 10009			; 00002719H
  0049a	8b 4d f0	 mov	 ecx, DWORD PTR _this$[ebp]
  0049d	51		 push	 ecx
  0049e	8d 55 cc	 lea	 edx, DWORD PTR _rectNULL$[ebp]
  004a1	52		 push	 edx
  004a2	68 00 00 00 10	 push	 268435456		; 10000000H
  004a7	6a 00		 push	 0
  004a9	8b 4d f0	 mov	 ecx, DWORD PTR _this$[ebp]
  004ac	81 c1 bc 02 00
	00		 add	 ecx, 700		; 000002bcH
  004b2	8b 45 f0	 mov	 eax, DWORD PTR _this$[ebp]
  004b5	8b 90 bc 02 00
	00		 mov	 edx, DWORD PTR [eax+700]
  004bb	ff 92 38 01 00
	00		 call	 DWORD PTR [edx+312]
  004c1	3b f4		 cmp	 esi, esp
  004c3	e8 00 00 00 00	 call	 __RTC_CheckEsp

; 55   : 	m_rad1unCheck.Create(NULL,WS_VISIBLE,rectNULL,this,ID_BTN_MINORCLOSE_RAD1);

  004c8	8b f4		 mov	 esi, esp
  004ca	68 1a 27 00 00	 push	 10010			; 0000271aH
  004cf	8b 45 f0	 mov	 eax, DWORD PTR _this$[ebp]
  004d2	50		 push	 eax
  004d3	8d 4d cc	 lea	 ecx, DWORD PTR _rectNULL$[ebp]
  004d6	51		 push	 ecx
  004d7	68 00 00 00 10	 push	 268435456		; 10000000H
  004dc	6a 00		 push	 0
  004de	8b 4d f0	 mov	 ecx, DWORD PTR _this$[ebp]
  004e1	81 c1 e0 03 00
	00		 add	 ecx, 992		; 000003e0H
  004e7	8b 55 f0	 mov	 edx, DWORD PTR _this$[ebp]
  004ea	8b 82 e0 03 00
	00		 mov	 eax, DWORD PTR [edx+992]
  004f0	ff 90 38 01 00
	00		 call	 DWORD PTR [eax+312]
  004f6	3b f4		 cmp	 esi, esp
  004f8	e8 00 00 00 00	 call	 __RTC_CheckEsp

; 56   : 	m_rad1Checked.Create(NULL,WS_VISIBLE,rectNULL,this,ID_BTN_MINORCLOSE_RAD1);

  004fd	8b f4		 mov	 esi, esp
  004ff	68 1a 27 00 00	 push	 10010			; 0000271aH
  00504	8b 4d f0	 mov	 ecx, DWORD PTR _this$[ebp]
  00507	51		 push	 ecx
  00508	8d 55 cc	 lea	 edx, DWORD PTR _rectNULL$[ebp]
  0050b	52		 push	 edx
  0050c	68 00 00 00 10	 push	 268435456		; 10000000H
  00511	6a 00		 push	 0
  00513	8b 4d f0	 mov	 ecx, DWORD PTR _this$[ebp]
  00516	81 c1 04 05 00
	00		 add	 ecx, 1284		; 00000504H
  0051c	8b 45 f0	 mov	 eax, DWORD PTR _this$[ebp]
  0051f	8b 90 04 05 00
	00		 mov	 edx, DWORD PTR [eax+1284]
  00525	ff 92 38 01 00
	00		 call	 DWORD PTR [edx+312]
  0052b	3b f4		 cmp	 esi, esp
  0052d	e8 00 00 00 00	 call	 __RTC_CheckEsp

; 57   : 	m_rad2unCheck.Create(NULL,WS_VISIBLE,rectNULL,this,ID_BTN_MINORCLOSE_RAD2);

  00532	8b f4		 mov	 esi, esp
  00534	68 1b 27 00 00	 push	 10011			; 0000271bH
  00539	8b 45 f0	 mov	 eax, DWORD PTR _this$[ebp]
  0053c	50		 push	 eax
  0053d	8d 4d cc	 lea	 ecx, DWORD PTR _rectNULL$[ebp]
  00540	51		 push	 ecx
  00541	68 00 00 00 10	 push	 268435456		; 10000000H
  00546	6a 00		 push	 0
  00548	8b 4d f0	 mov	 ecx, DWORD PTR _this$[ebp]
  0054b	81 c1 28 06 00
	00		 add	 ecx, 1576		; 00000628H
  00551	8b 55 f0	 mov	 edx, DWORD PTR _this$[ebp]
  00554	8b 82 28 06 00
	00		 mov	 eax, DWORD PTR [edx+1576]
  0055a	ff 90 38 01 00
	00		 call	 DWORD PTR [eax+312]
  00560	3b f4		 cmp	 esi, esp
  00562	e8 00 00 00 00	 call	 __RTC_CheckEsp

; 58   : 	m_rad2Checked.Create(NULL,WS_VISIBLE,rectNULL,this,ID_BTN_MINORCLOSE_RAD2);

  00567	8b f4		 mov	 esi, esp
  00569	68 1b 27 00 00	 push	 10011			; 0000271bH
  0056e	8b 4d f0	 mov	 ecx, DWORD PTR _this$[ebp]
  00571	51		 push	 ecx
  00572	8d 55 cc	 lea	 edx, DWORD PTR _rectNULL$[ebp]
  00575	52		 push	 edx
  00576	68 00 00 00 10	 push	 268435456		; 10000000H
  0057b	6a 00		 push	 0
  0057d	8b 4d f0	 mov	 ecx, DWORD PTR _this$[ebp]
  00580	81 c1 4c 07 00
	00		 add	 ecx, 1868		; 0000074cH
  00586	8b 45 f0	 mov	 eax, DWORD PTR _this$[ebp]
  00589	8b 90 4c 07 00
	00		 mov	 edx, DWORD PTR [eax+1868]
  0058f	ff 92 38 01 00
	00		 call	 DWORD PTR [edx+312]
  00595	3b f4		 cmp	 esi, esp
  00597	e8 00 00 00 00	 call	 __RTC_CheckEsp

; 59   : 	m_boxunCheck.Create(NULL,WS_VISIBLE,rectNULL,this,ID_BTN_MINORCLOSE_BOX);

  0059c	8b f4		 mov	 esi, esp
  0059e	68 1c 27 00 00	 push	 10012			; 0000271cH
  005a3	8b 45 f0	 mov	 eax, DWORD PTR _this$[ebp]
  005a6	50		 push	 eax
  005a7	8d 4d cc	 lea	 ecx, DWORD PTR _rectNULL$[ebp]
  005aa	51		 push	 ecx
  005ab	68 00 00 00 10	 push	 268435456		; 10000000H
  005b0	6a 00		 push	 0
  005b2	8b 4d f0	 mov	 ecx, DWORD PTR _this$[ebp]
  005b5	81 c1 70 08 00
	00		 add	 ecx, 2160		; 00000870H
  005bb	8b 55 f0	 mov	 edx, DWORD PTR _this$[ebp]
  005be	8b 82 70 08 00
	00		 mov	 eax, DWORD PTR [edx+2160]
  005c4	ff 90 38 01 00
	00		 call	 DWORD PTR [eax+312]
  005ca	3b f4		 cmp	 esi, esp
  005cc	e8 00 00 00 00	 call	 __RTC_CheckEsp

; 60   : 	m_boxChecked.Create(NULL,WS_VISIBLE,rectNULL,this,ID_BTN_MINORCLOSE_BOX);

  005d1	8b f4		 mov	 esi, esp
  005d3	68 1c 27 00 00	 push	 10012			; 0000271cH
  005d8	8b 4d f0	 mov	 ecx, DWORD PTR _this$[ebp]
  005db	51		 push	 ecx
  005dc	8d 55 cc	 lea	 edx, DWORD PTR _rectNULL$[ebp]
  005df	52		 push	 edx
  005e0	68 00 00 00 10	 push	 268435456		; 10000000H
  005e5	6a 00		 push	 0
  005e7	8b 4d f0	 mov	 ecx, DWORD PTR _this$[ebp]
  005ea	81 c1 94 09 00
	00		 add	 ecx, 2452		; 00000994H
  005f0	8b 45 f0	 mov	 eax, DWORD PTR _this$[ebp]
  005f3	8b 90 94 09 00
	00		 mov	 edx, DWORD PTR [eax+2452]
  005f9	ff 92 38 01 00
	00		 call	 DWORD PTR [edx+312]
  005ff	3b f4		 cmp	 esi, esp
  00601	e8 00 00 00 00	 call	 __RTC_CheckEsp

; 61   : 
; 62   : 	ILayoutMgr* pLayoutMgr =  AfxGetUIManager()->UIGetLayoutMgr();

  00606	e8 00 00 00 00	 call	 ?AfxGetUIManager@@YAPAVIUIManager@@XZ ; AfxGetUIManager
  0060b	89 85 d8 fe ff
	ff		 mov	 DWORD PTR tv229[ebp], eax
  00611	8b 85 d8 fe ff
	ff		 mov	 eax, DWORD PTR tv229[ebp]
  00617	8b 10		 mov	 edx, DWORD PTR [eax]
  00619	8b f4		 mov	 esi, esp
  0061b	8b 8d d8 fe ff
	ff		 mov	 ecx, DWORD PTR tv229[ebp]
  00621	ff 52 24	 call	 DWORD PTR [edx+36]
  00624	3b f4		 cmp	 esi, esp
  00626	e8 00 00 00 00	 call	 __RTC_CheckEsp
  0062b	89 45 c4	 mov	 DWORD PTR _pLayoutMgr$[ebp], eax

; 63   : 	
; 64   : 	pLayoutMgr->RegisterCtrl( this,"MinOrExit_close",&m_btnClose);

  0062e	8b 45 f0	 mov	 eax, DWORD PTR _this$[ebp]
  00631	83 c0 74	 add	 eax, 116		; 00000074H
  00634	50		 push	 eax
  00635	51		 push	 ecx
  00636	8b cc		 mov	 ecx, esp
  00638	89 a5 44 ff ff
	ff		 mov	 DWORD PTR $T189926[ebp], esp
  0063e	8b f4		 mov	 esi, esp
  00640	68 00 00 00 00	 push	 OFFSET FLAT:$SG188688
  00645	ff 15 00 00 00
	00		 call	 DWORD PTR __imp_??0?$CStringT@DV?$StrTraitMFC_DLL@DV?$ChTraitsCRT@D@ATL@@@@@ATL@@QAE@PBD@Z
  0064b	3b f4		 cmp	 esi, esp
  0064d	e8 00 00 00 00	 call	 __RTC_CheckEsp
  00652	89 85 d4 fe ff
	ff		 mov	 DWORD PTR tv589[ebp], eax
  00658	8b 4d f0	 mov	 ecx, DWORD PTR _this$[ebp]
  0065b	51		 push	 ecx
  0065c	8b 55 c4	 mov	 edx, DWORD PTR _pLayoutMgr$[ebp]
  0065f	8b 02		 mov	 eax, DWORD PTR [edx]
  00661	8b 4d c4	 mov	 ecx, DWORD PTR _pLayoutMgr$[ebp]
  00664	ff 50 34	 call	 DWORD PTR [eax+52]

; 65   : 	pLayoutMgr->RegisterCtrl( this,"MinOrExit_cancle",&m_btnCancle);

  00667	8b 4d f0	 mov	 ecx, DWORD PTR _this$[ebp]
  0066a	81 c1 98 01 00
	00		 add	 ecx, 408		; 00000198H
  00670	51		 push	 ecx
  00671	51		 push	 ecx
  00672	8b cc		 mov	 ecx, esp
  00674	89 a5 40 ff ff
	ff		 mov	 DWORD PTR $T189927[ebp], esp
  0067a	8b f4		 mov	 esi, esp
  0067c	68 00 00 00 00	 push	 OFFSET FLAT:$SG188690
  00681	ff 15 00 00 00
	00		 call	 DWORD PTR __imp_??0?$CStringT@DV?$StrTraitMFC_DLL@DV?$ChTraitsCRT@D@ATL@@@@@ATL@@QAE@PBD@Z
  00687	3b f4		 cmp	 esi, esp
  00689	e8 00 00 00 00	 call	 __RTC_CheckEsp
  0068e	89 85 d0 fe ff
	ff		 mov	 DWORD PTR tv592[ebp], eax
  00694	8b 55 f0	 mov	 edx, DWORD PTR _this$[ebp]
  00697	52		 push	 edx
  00698	8b 45 c4	 mov	 eax, DWORD PTR _pLayoutMgr$[ebp]
  0069b	8b 10		 mov	 edx, DWORD PTR [eax]
  0069d	8b 4d c4	 mov	 ecx, DWORD PTR _pLayoutMgr$[ebp]
  006a0	ff 52 34	 call	 DWORD PTR [edx+52]

; 66   : 	pLayoutMgr->RegisterCtrl( this,"MinOrExit_ok",&m_btnOk);

  006a3	8b 45 f0	 mov	 eax, DWORD PTR _this$[ebp]
  006a6	05 bc 02 00 00	 add	 eax, 700		; 000002bcH
  006ab	50		 push	 eax
  006ac	51		 push	 ecx
  006ad	8b cc		 mov	 ecx, esp
  006af	89 a5 3c ff ff
	ff		 mov	 DWORD PTR $T189928[ebp], esp
  006b5	8b f4		 mov	 esi, esp
  006b7	68 00 00 00 00	 push	 OFFSET FLAT:$SG188692
  006bc	ff 15 00 00 00
	00		 call	 DWORD PTR __imp_??0?$CStringT@DV?$StrTraitMFC_DLL@DV?$ChTraitsCRT@D@ATL@@@@@ATL@@QAE@PBD@Z
  006c2	3b f4		 cmp	 esi, esp
  006c4	e8 00 00 00 00	 call	 __RTC_CheckEsp
  006c9	89 85 cc fe ff
	ff		 mov	 DWORD PTR tv595[ebp], eax
  006cf	8b 4d f0	 mov	 ecx, DWORD PTR _this$[ebp]
  006d2	51		 push	 ecx
  006d3	8b 55 c4	 mov	 edx, DWORD PTR _pLayoutMgr$[ebp]
  006d6	8b 02		 mov	 eax, DWORD PTR [edx]
  006d8	8b 4d c4	 mov	 ecx, DWORD PTR _pLayoutMgr$[ebp]
  006db	ff 50 34	 call	 DWORD PTR [eax+52]

; 67   : 	pLayoutMgr->RegisterCtrl( this,"MinOrExit_rad1unCheck",&m_rad1unCheck);

  006de	8b 4d f0	 mov	 ecx, DWORD PTR _this$[ebp]
  006e1	81 c1 e0 03 00
	00		 add	 ecx, 992		; 000003e0H
  006e7	51		 push	 ecx
  006e8	51		 push	 ecx
  006e9	8b cc		 mov	 ecx, esp
  006eb	89 a5 38 ff ff
	ff		 mov	 DWORD PTR $T189929[ebp], esp
  006f1	8b f4		 mov	 esi, esp
  006f3	68 00 00 00 00	 push	 OFFSET FLAT:$SG188694
  006f8	ff 15 00 00 00
	00		 call	 DWORD PTR __imp_??0?$CStringT@DV?$StrTraitMFC_DLL@DV?$ChTraitsCRT@D@ATL@@@@@ATL@@QAE@PBD@Z
  006fe	3b f4		 cmp	 esi, esp
  00700	e8 00 00 00 00	 call	 __RTC_CheckEsp
  00705	89 85 c8 fe ff
	ff		 mov	 DWORD PTR tv598[ebp], eax
  0070b	8b 55 f0	 mov	 edx, DWORD PTR _this$[ebp]
  0070e	52		 push	 edx
  0070f	8b 45 c4	 mov	 eax, DWORD PTR _pLayoutMgr$[ebp]
  00712	8b 10		 mov	 edx, DWORD PTR [eax]
  00714	8b 4d c4	 mov	 ecx, DWORD PTR _pLayoutMgr$[ebp]
  00717	ff 52 34	 call	 DWORD PTR [edx+52]

; 68   : 	pLayoutMgr->RegisterCtrl( this,"MinOrExit_rad1Checked",&m_rad1Checked);

  0071a	8b 45 f0	 mov	 eax, DWORD PTR _this$[ebp]
  0071d	05 04 05 00 00	 add	 eax, 1284		; 00000504H
  00722	50		 push	 eax
  00723	51		 push	 ecx
  00724	8b cc		 mov	 ecx, esp
  00726	89 a5 34 ff ff
	ff		 mov	 DWORD PTR $T189930[ebp], esp
  0072c	8b f4		 mov	 esi, esp
  0072e	68 00 00 00 00	 push	 OFFSET FLAT:$SG188696
  00733	ff 15 00 00 00
	00		 call	 DWORD PTR __imp_??0?$CStringT@DV?$StrTraitMFC_DLL@DV?$ChTraitsCRT@D@ATL@@@@@ATL@@QAE@PBD@Z
  00739	3b f4		 cmp	 esi, esp
  0073b	e8 00 00 00 00	 call	 __RTC_CheckEsp
  00740	89 85 c4 fe ff
	ff		 mov	 DWORD PTR tv601[ebp], eax
  00746	8b 4d f0	 mov	 ecx, DWORD PTR _this$[ebp]
  00749	51		 push	 ecx
  0074a	8b 55 c4	 mov	 edx, DWORD PTR _pLayoutMgr$[ebp]
  0074d	8b 02		 mov	 eax, DWORD PTR [edx]
  0074f	8b 4d c4	 mov	 ecx, DWORD PTR _pLayoutMgr$[ebp]
  00752	ff 50 34	 call	 DWORD PTR [eax+52]

; 69   : 	pLayoutMgr->RegisterCtrl( this,"MinOrExit_rad2unCheck",&m_rad2unCheck);

  00755	8b 4d f0	 mov	 ecx, DWORD PTR _this$[ebp]
  00758	81 c1 28 06 00
	00		 add	 ecx, 1576		; 00000628H
  0075e	51		 push	 ecx
  0075f	51		 push	 ecx
  00760	8b cc		 mov	 ecx, esp
  00762	89 a5 30 ff ff
	ff		 mov	 DWORD PTR $T189931[ebp], esp
  00768	8b f4		 mov	 esi, esp
  0076a	68 00 00 00 00	 push	 OFFSET FLAT:$SG188698
  0076f	ff 15 00 00 00
	00		 call	 DWORD PTR __imp_??0?$CStringT@DV?$StrTraitMFC_DLL@DV?$ChTraitsCRT@D@ATL@@@@@ATL@@QAE@PBD@Z
  00775	3b f4		 cmp	 esi, esp
  00777	e8 00 00 00 00	 call	 __RTC_CheckEsp
  0077c	89 85 c0 fe ff
	ff		 mov	 DWORD PTR tv604[ebp], eax
  00782	8b 55 f0	 mov	 edx, DWORD PTR _this$[ebp]
  00785	52		 push	 edx
  00786	8b 45 c4	 mov	 eax, DWORD PTR _pLayoutMgr$[ebp]
  00789	8b 10		 mov	 edx, DWORD PTR [eax]
  0078b	8b 4d c4	 mov	 ecx, DWORD PTR _pLayoutMgr$[ebp]
  0078e	ff 52 34	 call	 DWORD PTR [edx+52]

; 70   : 	pLayoutMgr->RegisterCtrl( this,"MinOrExit_rad2Checked",&m_rad2Checked);

  00791	8b 45 f0	 mov	 eax, DWORD PTR _this$[ebp]
  00794	05 4c 07 00 00	 add	 eax, 1868		; 0000074cH
  00799	50		 push	 eax
  0079a	51		 push	 ecx
  0079b	8b cc		 mov	 ecx, esp
  0079d	89 a5 2c ff ff
	ff		 mov	 DWORD PTR $T189932[ebp], esp
  007a3	8b f4		 mov	 esi, esp
  007a5	68 00 00 00 00	 push	 OFFSET FLAT:$SG188700
  007aa	ff 15 00 00 00
	00		 call	 DWORD PTR __imp_??0?$CStringT@DV?$StrTraitMFC_DLL@DV?$ChTraitsCRT@D@ATL@@@@@ATL@@QAE@PBD@Z
  007b0	3b f4		 cmp	 esi, esp
  007b2	e8 00 00 00 00	 call	 __RTC_CheckEsp
  007b7	89 85 bc fe ff
	ff		 mov	 DWORD PTR tv607[ebp], eax
  007bd	8b 4d f0	 mov	 ecx, DWORD PTR _this$[ebp]
  007c0	51		 push	 ecx
  007c1	8b 55 c4	 mov	 edx, DWORD PTR _pLayoutMgr$[ebp]
  007c4	8b 02		 mov	 eax, DWORD PTR [edx]
  007c6	8b 4d c4	 mov	 ecx, DWORD PTR _pLayoutMgr$[ebp]
  007c9	ff 50 34	 call	 DWORD PTR [eax+52]

; 71   : 	pLayoutMgr->RegisterCtrl( this,"MinOrExit_m_boxunCheck",&m_boxunCheck);

  007cc	8b 4d f0	 mov	 ecx, DWORD PTR _this$[ebp]
  007cf	81 c1 70 08 00
	00		 add	 ecx, 2160		; 00000870H
  007d5	51		 push	 ecx
  007d6	51		 push	 ecx
  007d7	8b cc		 mov	 ecx, esp
  007d9	89 a5 28 ff ff
	ff		 mov	 DWORD PTR $T189933[ebp], esp
  007df	8b f4		 mov	 esi, esp
  007e1	68 00 00 00 00	 push	 OFFSET FLAT:$SG188702
  007e6	ff 15 00 00 00
	00		 call	 DWORD PTR __imp_??0?$CStringT@DV?$StrTraitMFC_DLL@DV?$ChTraitsCRT@D@ATL@@@@@ATL@@QAE@PBD@Z
  007ec	3b f4		 cmp	 esi, esp
  007ee	e8 00 00 00 00	 call	 __RTC_CheckEsp
  007f3	89 85 b8 fe ff
	ff		 mov	 DWORD PTR tv610[ebp], eax
  007f9	8b 55 f0	 mov	 edx, DWORD PTR _this$[ebp]
  007fc	52		 push	 edx
  007fd	8b 45 c4	 mov	 eax, DWORD PTR _pLayoutMgr$[ebp]
  00800	8b 10		 mov	 edx, DWORD PTR [eax]
  00802	8b 4d c4	 mov	 ecx, DWORD PTR _pLayoutMgr$[ebp]
  00805	ff 52 34	 call	 DWORD PTR [edx+52]

; 72   : 	pLayoutMgr->RegisterCtrl( this,"MinOrExit_m_boxChecked",&m_boxChecked);

  00808	8b 45 f0	 mov	 eax, DWORD PTR _this$[ebp]
  0080b	05 94 09 00 00	 add	 eax, 2452		; 00000994H
  00810	50		 push	 eax
  00811	51		 push	 ecx
  00812	8b cc		 mov	 ecx, esp
  00814	89 a5 24 ff ff
	ff		 mov	 DWORD PTR $T189934[ebp], esp
  0081a	8b f4		 mov	 esi, esp
  0081c	68 00 00 00 00	 push	 OFFSET FLAT:$SG188704
  00821	ff 15 00 00 00
	00		 call	 DWORD PTR __imp_??0?$CStringT@DV?$StrTraitMFC_DLL@DV?$ChTraitsCRT@D@ATL@@@@@ATL@@QAE@PBD@Z
  00827	3b f4		 cmp	 esi, esp
  00829	e8 00 00 00 00	 call	 __RTC_CheckEsp
  0082e	89 85 b4 fe ff
	ff		 mov	 DWORD PTR tv613[ebp], eax
  00834	8b 4d f0	 mov	 ecx, DWORD PTR _this$[ebp]
  00837	51		 push	 ecx
  00838	8b 55 c4	 mov	 edx, DWORD PTR _pLayoutMgr$[ebp]
  0083b	8b 02		 mov	 eax, DWORD PTR [edx]
  0083d	8b 4d c4	 mov	 ecx, DWORD PTR _pLayoutMgr$[ebp]
  00840	ff 50 34	 call	 DWORD PTR [eax+52]

; 73   : 
; 74   : 	pLayoutMgr->CreateControlPane( this,"MinOrExit","normal" );

  00843	51		 push	 ecx
  00844	8b cc		 mov	 ecx, esp
  00846	89 a5 20 ff ff
	ff		 mov	 DWORD PTR $T189935[ebp], esp
  0084c	8b f4		 mov	 esi, esp
  0084e	68 00 00 00 00	 push	 OFFSET FLAT:$SG188707
  00853	ff 15 00 00 00
	00		 call	 DWORD PTR __imp_??0?$CStringT@DV?$StrTraitMFC_DLL@DV?$ChTraitsCRT@D@ATL@@@@@ATL@@QAE@PBD@Z
  00859	3b f4		 cmp	 esi, esp
  0085b	e8 00 00 00 00	 call	 __RTC_CheckEsp
  00860	89 85 b0 fe ff
	ff		 mov	 DWORD PTR tv628[ebp], eax
  00866	8b 8d b0 fe ff
	ff		 mov	 ecx, DWORD PTR tv628[ebp]
  0086c	89 8d ac fe ff
	ff		 mov	 DWORD PTR tv615[ebp], ecx
  00872	c7 45 fc 02 00
	00 00		 mov	 DWORD PTR __$EHRec$[ebp+8], 2
  00879	51		 push	 ecx
  0087a	8b cc		 mov	 ecx, esp
  0087c	89 a5 1c ff ff
	ff		 mov	 DWORD PTR $T189936[ebp], esp
  00882	8b f4		 mov	 esi, esp
  00884	68 00 00 00 00	 push	 OFFSET FLAT:$SG188708
  00889	ff 15 00 00 00
	00		 call	 DWORD PTR __imp_??0?$CStringT@DV?$StrTraitMFC_DLL@DV?$ChTraitsCRT@D@ATL@@@@@ATL@@QAE@PBD@Z
  0088f	3b f4		 cmp	 esi, esp
  00891	e8 00 00 00 00	 call	 __RTC_CheckEsp
  00896	89 85 a8 fe ff
	ff		 mov	 DWORD PTR tv618[ebp], eax
  0089c	8b 55 f0	 mov	 edx, DWORD PTR _this$[ebp]
  0089f	52		 push	 edx
  008a0	8b 45 c4	 mov	 eax, DWORD PTR _pLayoutMgr$[ebp]
  008a3	8b 10		 mov	 edx, DWORD PTR [eax]
  008a5	c7 45 fc ff ff
	ff ff		 mov	 DWORD PTR __$EHRec$[ebp+8], -1
  008ac	8b 4d c4	 mov	 ecx, DWORD PTR _pLayoutMgr$[ebp]
  008af	ff 52 38	 call	 DWORD PTR [edx+56]

; 75   : 	pLayoutMgr->CreateBmpPane( this,"MinOrExit","normal" );

  008b2	51		 push	 ecx
  008b3	8b cc		 mov	 ecx, esp
  008b5	89 a5 18 ff ff
	ff		 mov	 DWORD PTR $T189937[ebp], esp
  008bb	8b f4		 mov	 esi, esp
  008bd	68 00 00 00 00	 push	 OFFSET FLAT:$SG188711
  008c2	ff 15 00 00 00
	00		 call	 DWORD PTR __imp_??0?$CStringT@DV?$StrTraitMFC_DLL@DV?$ChTraitsCRT@D@ATL@@@@@ATL@@QAE@PBD@Z
  008c8	3b f4		 cmp	 esi, esp
  008ca	e8 00 00 00 00	 call	 __RTC_CheckEsp
  008cf	89 85 a4 fe ff
	ff		 mov	 DWORD PTR tv631[ebp], eax
  008d5	8b 85 a4 fe ff
	ff		 mov	 eax, DWORD PTR tv631[ebp]
  008db	89 85 a0 fe ff
	ff		 mov	 DWORD PTR tv620[ebp], eax
  008e1	c7 45 fc 03 00
	00 00		 mov	 DWORD PTR __$EHRec$[ebp+8], 3
  008e8	51		 push	 ecx
  008e9	8b cc		 mov	 ecx, esp
  008eb	89 a5 14 ff ff
	ff		 mov	 DWORD PTR $T189938[ebp], esp
  008f1	8b f4		 mov	 esi, esp
  008f3	68 00 00 00 00	 push	 OFFSET FLAT:$SG188712
  008f8	ff 15 00 00 00
	00		 call	 DWORD PTR __imp_??0?$CStringT@DV?$StrTraitMFC_DLL@DV?$ChTraitsCRT@D@ATL@@@@@ATL@@QAE@PBD@Z
  008fe	3b f4		 cmp	 esi, esp
  00900	e8 00 00 00 00	 call	 __RTC_CheckEsp
  00905	89 85 9c fe ff
	ff		 mov	 DWORD PTR tv623[ebp], eax
  0090b	8b 4d f0	 mov	 ecx, DWORD PTR _this$[ebp]
  0090e	51		 push	 ecx
  0090f	8b 55 c4	 mov	 edx, DWORD PTR _pLayoutMgr$[ebp]
  00912	8b 02		 mov	 eax, DWORD PTR [edx]
  00914	c7 45 fc ff ff
	ff ff		 mov	 DWORD PTR __$EHRec$[ebp+8], -1
  0091b	8b 4d c4	 mov	 ecx, DWORD PTR _pLayoutMgr$[ebp]
  0091e	ff 50 58	 call	 DWORD PTR [eax+88]

; 76   : 
; 77   : 	if (m_chkRad)

  00921	8b 4d f0	 mov	 ecx, DWORD PTR _this$[ebp]
  00924	83 b9 b8 0a 00
	00 00		 cmp	 DWORD PTR [ecx+2744], 0
  0092b	74 0a		 je	 SHORT $L188713

; 78   : 	{
; 79   : 		CheckRad2();

  0092d	8b 4d f0	 mov	 ecx, DWORD PTR _this$[ebp]
  00930	e8 00 00 00 00	 call	 ?CheckRad2@CMinOrExit@@AAEXXZ ; CMinOrExit::CheckRad2

; 80   : 	}
; 81   : 	else

  00935	eb 08		 jmp	 SHORT $L188714
$L188713:

; 82   : 	{
; 83   : 		CheckRad1();

  00937	8b 4d f0	 mov	 ecx, DWORD PTR _this$[ebp]
  0093a	e8 00 00 00 00	 call	 ?CheckRad1@CMinOrExit@@AAEXXZ ; CMinOrExit::CheckRad1
$L188714:

; 84   : 	}
; 85   : 	m_boxChecked.ShowWindow(SW_HIDE);

  0093f	6a 00		 push	 0
  00941	8b 4d f0	 mov	 ecx, DWORD PTR _this$[ebp]
  00944	81 c1 94 09 00
	00		 add	 ecx, 2452		; 00000994H
  0094a	e8 00 00 00 00	 call	 ?ShowWindow@CWnd@@QAEHH@Z ; CWnd::ShowWindow

; 86   : 	m_boxunCheck.ShowWindow(SW_SHOW);

  0094f	6a 05		 push	 5
  00951	8b 4d f0	 mov	 ecx, DWORD PTR _this$[ebp]
  00954	81 c1 70 08 00
	00		 add	 ecx, 2160		; 00000870H
  0095a	e8 00 00 00 00	 call	 ?ShowWindow@CWnd@@QAEHH@Z ; CWnd::ShowWindow

; 87   : 	CRect winPos(0,0,319,180);

  0095f	68 b4 00 00 00	 push	 180			; 000000b4H
  00964	68 3f 01 00 00	 push	 319			; 0000013fH
  00969	6a 00		 push	 0
  0096b	6a 00		 push	 0
  0096d	8d 4d b0	 lea	 ecx, DWORD PTR _winPos$[ebp]
  00970	e8 00 00 00 00	 call	 ??0CRect@@QAE@HHHH@Z	; CRect::CRect

; 88   : 	CRect wndRect;

  00975	8d 4d 98	 lea	 ecx, DWORD PTR _wndRect$[ebp]
  00978	e8 00 00 00 00	 call	 ??0CRect@@QAE@XZ	; CRect::CRect

; 89   : 	
; 90   : 	CWnd *pWnd = NULL;

  0097d	c7 45 90 00 00
	00 00		 mov	 DWORD PTR _pWnd$[ebp], 0

; 91   : 	if(AfxGetUIManager()->UIGetLayoutMgr()->GetDisplayMode() == DISPLAY_SEPERATE_MODE)

  00984	e8 00 00 00 00	 call	 ?AfxGetUIManager@@YAPAVIUIManager@@XZ ; AfxGetUIManager
  00989	89 85 98 fe ff
	ff		 mov	 DWORD PTR tv495[ebp], eax
  0098f	8b 95 98 fe ff
	ff		 mov	 edx, DWORD PTR tv495[ebp]
  00995	8b 02		 mov	 eax, DWORD PTR [edx]
  00997	8b f4		 mov	 esi, esp
  00999	8b 8d 98 fe ff
	ff		 mov	 ecx, DWORD PTR tv495[ebp]
  0099f	ff 50 24	 call	 DWORD PTR [eax+36]
  009a2	3b f4		 cmp	 esi, esp
  009a4	e8 00 00 00 00	 call	 __RTC_CheckEsp
  009a9	89 85 94 fe ff
	ff		 mov	 DWORD PTR tv500[ebp], eax
  009af	8b 8d 94 fe ff
	ff		 mov	 ecx, DWORD PTR tv500[ebp]
  009b5	8b 11		 mov	 edx, DWORD PTR [ecx]
  009b7	8b f4		 mov	 esi, esp
  009b9	8b 8d 94 fe ff
	ff		 mov	 ecx, DWORD PTR tv500[ebp]
  009bf	ff 52 7c	 call	 DWORD PTR [edx+124]
  009c2	3b f4		 cmp	 esi, esp
  009c4	e8 00 00 00 00	 call	 __RTC_CheckEsp
  009c9	85 c0		 test	 eax, eax
  009cb	75 11		 jne	 SHORT $L188718

; 92   : 	{
; 93   : 		pWnd = CHostWndMgr::GetInstance()->GetMainWnd();

  009cd	e8 00 00 00 00	 call	 ?GetInstance@CHostWndMgr@@SAPAV1@XZ ; CHostWndMgr::GetInstance
  009d2	8b c8		 mov	 ecx, eax
  009d4	e8 00 00 00 00	 call	 ?GetMainWnd@CHostWndMgr@@QAEPAVCWnd@@XZ ; CHostWndMgr::GetMainWnd
  009d9	89 45 90	 mov	 DWORD PTR _pWnd$[ebp], eax

; 94   : 	}
; 95   : 	else

  009dc	eb 0b		 jmp	 SHORT $L188719
$L188718:

; 96   : 		pWnd = GetParent();

  009de	8b 4d f0	 mov	 ecx, DWORD PTR _this$[ebp]
  009e1	e8 00 00 00 00	 call	 ?GetParent@CWnd@@QBEPAV1@XZ ; CWnd::GetParent
  009e6	89 45 90	 mov	 DWORD PTR _pWnd$[ebp], eax
$L188719:

; 97   : 	pWnd->GetWindowRect(&wndRect);

  009e9	8d 45 98	 lea	 eax, DWORD PTR _wndRect$[ebp]
  009ec	50		 push	 eax
  009ed	8b 4d 90	 mov	 ecx, DWORD PTR _pWnd$[ebp]
  009f0	e8 00 00 00 00	 call	 ?GetWindowRect@CWnd@@QBEXPAUtagRECT@@@Z ; CWnd::GetWindowRect

; 98   : 	int x,y;
; 99   : 	x=(wndRect.left+wndRect.right)/2-160;

  009f5	8b 45 98	 mov	 eax, DWORD PTR _wndRect$[ebp]
  009f8	03 45 a0	 add	 eax, DWORD PTR _wndRect$[ebp+8]
  009fb	99		 cdq
  009fc	2b c2		 sub	 eax, edx
  009fe	d1 f8		 sar	 eax, 1
  00a00	2d a0 00 00 00	 sub	 eax, 160		; 000000a0H
  00a05	89 45 8c	 mov	 DWORD PTR _x$[ebp], eax

; 100  : 	y=(wndRect.top+wndRect.bottom)/2-90;

  00a08	8b 45 9c	 mov	 eax, DWORD PTR _wndRect$[ebp+4]
  00a0b	03 45 a4	 add	 eax, DWORD PTR _wndRect$[ebp+12]
  00a0e	99		 cdq
  00a0f	2b c2		 sub	 eax, edx
  00a11	d1 f8		 sar	 eax, 1
  00a13	83 e8 5a	 sub	 eax, 90			; 0000005aH
  00a16	89 45 88	 mov	 DWORD PTR _y$[ebp], eax

; 101  : 	YL_Log("MinOrExit.txt",LOG_DEBUG,"OnInitDialog","win rect x: %d, y: %d, r: %d, b: %d.", wndRect.left, wndRect.top, wndRect.right, wndRect.bottom);

  00a19	8b f4		 mov	 esi, esp
  00a1b	68 00 00 00 00	 push	 OFFSET FLAT:$SG188725
  00a20	8d 8d f8 fe ff
	ff		 lea	 ecx, DWORD PTR $T189939[ebp]
  00a26	ff 15 00 00 00
	00		 call	 DWORD PTR __imp_??0?$basic_string@DU?$char_traits@D@std@@V?$allocator@D@2@@std@@QAE@PBD@Z
  00a2c	3b f4		 cmp	 esi, esp
  00a2e	e8 00 00 00 00	 call	 __RTC_CheckEsp
  00a33	c7 45 fc 04 00
	00 00		 mov	 DWORD PTR __$EHRec$[ebp+8], 4
  00a3a	8b f4		 mov	 esi, esp
  00a3c	68 00 00 00 00	 push	 OFFSET FLAT:$SG188726
  00a41	8d 8d dc fe ff
	ff		 lea	 ecx, DWORD PTR $T189940[ebp]
  00a47	ff 15 00 00 00
	00		 call	 DWORD PTR __imp_??0?$basic_string@DU?$char_traits@D@std@@V?$allocator@D@2@@std@@QAE@PBD@Z
  00a4d	3b f4		 cmp	 esi, esp
  00a4f	e8 00 00 00 00	 call	 __RTC_CheckEsp
  00a54	c6 45 fc 05	 mov	 BYTE PTR __$EHRec$[ebp+8], 5
  00a58	8b f4		 mov	 esi, esp
  00a5a	8b 4d a4	 mov	 ecx, DWORD PTR _wndRect$[ebp+12]
  00a5d	51		 push	 ecx
  00a5e	8b 55 a0	 mov	 edx, DWORD PTR _wndRect$[ebp+8]
  00a61	52		 push	 edx
  00a62	8b 45 9c	 mov	 eax, DWORD PTR _wndRect$[ebp+4]
  00a65	50		 push	 eax
  00a66	8b 4d 98	 mov	 ecx, DWORD PTR _wndRect$[ebp]
  00a69	51		 push	 ecx
  00a6a	68 00 00 00 00	 push	 OFFSET FLAT:$SG188724
  00a6f	8d 95 f8 fe ff
	ff		 lea	 edx, DWORD PTR $T189939[ebp]
  00a75	52		 push	 edx
  00a76	6a 00		 push	 0
  00a78	8d 85 dc fe ff
	ff		 lea	 eax, DWORD PTR $T189940[ebp]
  00a7e	50		 push	 eax
  00a7f	ff 15 00 00 00
	00		 call	 DWORD PTR __imp_?YL_Log@@YAXABV?$basic_string@DU?$char_traits@D@std@@V?$allocator@D@2@@std@@H0PBDZZ
  00a85	83 c4 20	 add	 esp, 32			; 00000020H
  00a88	3b f4		 cmp	 esi, esp
  00a8a	e8 00 00 00 00	 call	 __RTC_CheckEsp
  00a8f	c6 45 fc 04	 mov	 BYTE PTR __$EHRec$[ebp+8], 4
  00a93	8b f4		 mov	 esi, esp
  00a95	8d 8d dc fe ff
	ff		 lea	 ecx, DWORD PTR $T189940[ebp]
  00a9b	ff 15 00 00 00
	00		 call	 DWORD PTR __imp_??1?$basic_string@DU?$char_traits@D@std@@V?$allocator@D@2@@std@@QAE@XZ
  00aa1	3b f4		 cmp	 esi, esp
  00aa3	e8 00 00 00 00	 call	 __RTC_CheckEsp
  00aa8	c7 45 fc ff ff
	ff ff		 mov	 DWORD PTR __$EHRec$[ebp+8], -1
  00aaf	8b f4		 mov	 esi, esp
  00ab1	8d 8d f8 fe ff
	ff		 lea	 ecx, DWORD PTR $T189939[ebp]
  00ab7	ff 15 00 00 00
	00		 call	 DWORD PTR __imp_??1?$basic_string@DU?$char_traits@D@std@@V?$allocator@D@2@@std@@QAE@XZ
  00abd	3b f4		 cmp	 esi, esp
  00abf	e8 00 00 00 00	 call	 __RTC_CheckEsp

; 102  : 	int screenX=GetSystemMetrics(SM_CXSCREEN);

  00ac4	8b f4		 mov	 esi, esp
  00ac6	6a 00		 push	 0
  00ac8	ff 15 00 00 00
	00		 call	 DWORD PTR __imp__GetSystemMetrics@4
  00ace	3b f4		 cmp	 esi, esp
  00ad0	e8 00 00 00 00	 call	 __RTC_CheckEsp
  00ad5	89 45 84	 mov	 DWORD PTR _screenX$[ebp], eax

; 103  : 	int screenY=GetSystemMetrics(SM_CYSCREEN);

  00ad8	8b f4		 mov	 esi, esp
  00ada	6a 01		 push	 1
  00adc	ff 15 00 00 00
	00		 call	 DWORD PTR __imp__GetSystemMetrics@4
  00ae2	3b f4		 cmp	 esi, esp
  00ae4	e8 00 00 00 00	 call	 __RTC_CheckEsp
  00ae9	89 45 80	 mov	 DWORD PTR _screenY$[ebp], eax

; 104  : 	if (x>=0)

  00aec	83 7d 8c 00	 cmp	 DWORD PTR _x$[ebp], 0
  00af0	7c 08		 jl	 SHORT $L188729

; 105  : 	{
; 106  : 		winPos.left=x;

  00af2	8b 4d 8c	 mov	 ecx, DWORD PTR _x$[ebp]
  00af5	89 4d b0	 mov	 DWORD PTR _winPos$[ebp], ecx

; 107  : 	}
; 108  : 	else

  00af8	eb 07		 jmp	 SHORT $L188730
$L188729:

; 109  : 	{
; 110  : 		winPos.left=20;

  00afa	c7 45 b0 14 00
	00 00		 mov	 DWORD PTR _winPos$[ebp], 20 ; 00000014H
$L188730:

; 111  : 	}
; 112  : 	winPos.right=winPos.left+319;

  00b01	8b 55 b0	 mov	 edx, DWORD PTR _winPos$[ebp]
  00b04	81 c2 3f 01 00
	00		 add	 edx, 319		; 0000013fH
  00b0a	89 55 b8	 mov	 DWORD PTR _winPos$[ebp+8], edx

; 113  : 	
; 114  : 	if (winPos.right>screenX)

  00b0d	8b 45 b8	 mov	 eax, DWORD PTR _winPos$[ebp+8]
  00b10	3b 45 84	 cmp	 eax, DWORD PTR _screenX$[ebp]
  00b13	7e 15		 jle	 SHORT $L188731

; 115  : 	{
; 116  : 		winPos.right=screenX-20;

  00b15	8b 4d 84	 mov	 ecx, DWORD PTR _screenX$[ebp]
  00b18	83 e9 14	 sub	 ecx, 20			; 00000014H
  00b1b	89 4d b8	 mov	 DWORD PTR _winPos$[ebp+8], ecx

; 117  : 		winPos.left=winPos.right-319;

  00b1e	8b 55 b8	 mov	 edx, DWORD PTR _winPos$[ebp+8]
  00b21	81 ea 3f 01 00
	00		 sub	 edx, 319		; 0000013fH
  00b27	89 55 b0	 mov	 DWORD PTR _winPos$[ebp], edx
$L188731:

; 118  : 	}
; 119  : 	if (y>0)

  00b2a	83 7d 88 00	 cmp	 DWORD PTR _y$[ebp], 0
  00b2e	7e 08		 jle	 SHORT $L188732

; 120  : 	{
; 121  : 		winPos.top=y;

  00b30	8b 45 88	 mov	 eax, DWORD PTR _y$[ebp]
  00b33	89 45 b4	 mov	 DWORD PTR _winPos$[ebp+4], eax

; 122  : 	}
; 123  : 	else

  00b36	eb 07		 jmp	 SHORT $L188733
$L188732:

; 124  : 	{
; 125  : 		winPos.top=20;

  00b38	c7 45 b4 14 00
	00 00		 mov	 DWORD PTR _winPos$[ebp+4], 20 ; 00000014H
$L188733:

; 126  : 	}
; 127  : 	winPos.bottom=winPos.top+180;

  00b3f	8b 4d b4	 mov	 ecx, DWORD PTR _winPos$[ebp+4]
  00b42	81 c1 b4 00 00
	00		 add	 ecx, 180		; 000000b4H
  00b48	89 4d bc	 mov	 DWORD PTR _winPos$[ebp+12], ecx

; 128  : 	if (winPos.bottom>screenY)

  00b4b	8b 55 bc	 mov	 edx, DWORD PTR _winPos$[ebp+12]
  00b4e	3b 55 80	 cmp	 edx, DWORD PTR _screenY$[ebp]
  00b51	7e 15		 jle	 SHORT $L188734

; 129  : 	{
; 130  : 		winPos.bottom=screenY-20;

  00b53	8b 45 80	 mov	 eax, DWORD PTR _screenY$[ebp]
  00b56	83 e8 14	 sub	 eax, 20			; 00000014H
  00b59	89 45 bc	 mov	 DWORD PTR _winPos$[ebp+12], eax

; 131  : 		winPos.top=winPos.bottom-180;

  00b5c	8b 4d bc	 mov	 ecx, DWORD PTR _winPos$[ebp+12]
  00b5f	81 e9 b4 00 00
	00		 sub	 ecx, 180		; 000000b4H
  00b65	89 4d b4	 mov	 DWORD PTR _winPos$[ebp+4], ecx
$L188734:

; 132  : 	}
; 133  : 	MoveWindow(winPos);

  00b68	6a 01		 push	 1
  00b6a	8d 4d b0	 lea	 ecx, DWORD PTR _winPos$[ebp]
  00b6d	e8 00 00 00 00	 call	 ??BCRect@@QAEPAUtagRECT@@XZ ; CRect::operator tagRECT *
  00b72	50		 push	 eax
  00b73	8b 4d f0	 mov	 ecx, DWORD PTR _this$[ebp]
  00b76	e8 00 00 00 00	 call	 ?MoveWindow@CWnd@@QAEXPBUtagRECT@@H@Z ; CWnd::MoveWindow

; 134  : 	return TRUE;

  00b7b	b8 01 00 00 00	 mov	 eax, 1

; 135  : }

  00b80	52		 push	 edx
  00b81	8b cd		 mov	 ecx, ebp
  00b83	50		 push	 eax
  00b84	8d 15 00 00 00
	00		 lea	 edx, DWORD PTR $L189966
  00b8a	e8 00 00 00 00	 call	 @_RTC_CheckStackVars@8
  00b8f	58		 pop	 eax
  00b90	5a		 pop	 edx
  00b91	8b 4d f4	 mov	 ecx, DWORD PTR __$EHRec$[ebp]
  00b94	64 89 0d 00 00
	00 00		 mov	 DWORD PTR fs:__except_list, ecx
  00b9b	5f		 pop	 edi
  00b9c	5e		 pop	 esi
  00b9d	81 c4 6c 01 00
	00		 add	 esp, 364		; 0000016cH
  00ba3	3b ec		 cmp	 ebp, esp
  00ba5	e8 00 00 00 00	 call	 __RTC_CheckEsp
  00baa	8b e5		 mov	 esp, ebp
  00bac	5d		 pop	 ebp
  00bad	c3		 ret	 0
$L189966:
  00bae	04 00 00 00	 DD	 4
  00bb2	00 00 00 00	 DD	 $L189965
$L189965:
  00bb6	e7 ff ff ff	 DD	 -25			; ffffffe7H
  00bba	01 00 00 00	 DD	 1
  00bbe	00 00 00 00	 DD	 $L189960
  00bc2	cc ff ff ff	 DD	 -52			; ffffffccH
  00bc6	10 00 00 00	 DD	 16			; 00000010H
  00bca	00 00 00 00	 DD	 $L189961
  00bce	b0 ff ff ff	 DD	 -80			; ffffffb0H
  00bd2	10 00 00 00	 DD	 16			; 00000010H
  00bd6	00 00 00 00	 DD	 $L189962
  00bda	98 ff ff ff	 DD	 -104			; ffffff98H
  00bde	10 00 00 00	 DD	 16			; 00000010H
  00be2	00 00 00 00	 DD	 $L189963
$L189963:
  00be6	77		 DB	 119			; 00000077H
  00be7	6e		 DB	 110			; 0000006eH
  00be8	64		 DB	 100			; 00000064H
  00be9	52		 DB	 82			; 00000052H
  00bea	65		 DB	 101			; 00000065H
  00beb	63		 DB	 99			; 00000063H
  00bec	74		 DB	 116			; 00000074H
  00bed	00		 DB	 0
$L189962:
  00bee	77		 DB	 119			; 00000077H
  00bef	69		 DB	 105			; 00000069H
  00bf0	6e		 DB	 110			; 0000006eH
  00bf1	50		 DB	 80			; 00000050H
  00bf2	6f		 DB	 111			; 0000006fH
  00bf3	73		 DB	 115			; 00000073H
  00bf4	00		 DB	 0
$L189961:
  00bf5	72		 DB	 114			; 00000072H
  00bf6	65		 DB	 101			; 00000065H
  00bf7	63		 DB	 99			; 00000063H
  00bf8	74		 DB	 116			; 00000074H
  00bf9	4e		 DB	 78			; 0000004eH
  00bfa	55		 DB	 85			; 00000055H
  00bfb	4c		 DB	 76			; 0000004cH
  00bfc	4c		 DB	 76			; 0000004cH
  00bfd	00		 DB	 0
$L189960:
  00bfe	65		 DB	 101			; 00000065H
  00bff	78		 DB	 120			; 00000078H
  00c00	69		 DB	 105			; 00000069H
  00c01	74		 DB	 116			; 00000074H
  00c02	63		 DB	 99			; 00000063H
  00c03	68		 DB	 104			; 00000068H
  00c04	6f		 DB	 111			; 0000006fH
  00c05	69		 DB	 105			; 00000069H
  00c06	63		 DB	 99			; 00000063H
  00c07	65		 DB	 101			; 00000065H
  00c08	00		 DB	 0
_TEXT	ENDS
text$x	SEGMENT
$L189941:
  0010c	8b f4		 mov	 esi, esp
  0010e	8d 8d 64 ff ff
	ff		 lea	 ecx, DWORD PTR $T189924[ebp]
  00114	ff 15 00 00 00
	00		 call	 DWORD PTR __imp_??1?$basic_string@DU?$char_traits@D@std@@V?$allocator@D@2@@std@@QAE@XZ
  0011a	3b f4		 cmp	 esi, esp
  0011c	e9 00 00 00 00	 jmp	 __RTC_CheckEsp
$L189942:
  00121	8b f4		 mov	 esi, esp
  00123	8d 8d 48 ff ff
	ff		 lea	 ecx, DWORD PTR $T189925[ebp]
  00129	ff 15 00 00 00
	00		 call	 DWORD PTR __imp_??1?$basic_string@DU?$char_traits@D@std@@V?$allocator@D@2@@std@@QAE@XZ
  0012f	3b f4		 cmp	 esi, esp
  00131	e9 00 00 00 00	 jmp	 __RTC_CheckEsp
$L189952:
  00136	8b f4		 mov	 esi, esp
  00138	8b 8d 20 ff ff
	ff		 mov	 ecx, DWORD PTR $T189935[ebp]
  0013e	ff 15 00 00 00
	00		 call	 DWORD PTR __imp_??1?$CStringT@DV?$StrTraitMFC_DLL@DV?$ChTraitsCRT@D@ATL@@@@@ATL@@QAE@XZ
  00144	3b f4		 cmp	 esi, esp
  00146	e9 00 00 00 00	 jmp	 __RTC_CheckEsp
$L189954:
  0014b	8b f4		 mov	 esi, esp
  0014d	8b 8d 18 ff ff
	ff		 mov	 ecx, DWORD PTR $T189937[ebp]
  00153	ff 15 00 00 00
	00		 call	 DWORD PTR __imp_??1?$CStringT@DV?$StrTraitMFC_DLL@DV?$ChTraitsCRT@D@ATL@@@@@ATL@@QAE@XZ
  00159	3b f4		 cmp	 esi, esp
  0015b	e9 00 00 00 00	 jmp	 __RTC_CheckEsp
$L189956:
  00160	8b f4		 mov	 esi, esp
  00162	8d 8d f8 fe ff
	ff		 lea	 ecx, DWORD PTR $T189939[ebp]
  00168	ff 15 00 00 00
	00		 call	 DWORD PTR __imp_??1?$basic_string@DU?$char_traits@D@std@@V?$allocator@D@2@@std@@QAE@XZ
  0016e	3b f4		 cmp	 esi, esp
  00170	e9 00 00 00 00	 jmp	 __RTC_CheckEsp
$L189957:
  00175	8b f4		 mov	 esi, esp
  00177	8d 8d dc fe ff
	ff		 lea	 ecx, DWORD PTR $T189940[ebp]
  0017d	ff 15 00 00 00
	00		 call	 DWORD PTR __imp_??1?$basic_string@DU?$char_traits@D@std@@V?$allocator@D@2@@std@@QAE@XZ
  00183	3b f4		 cmp	 esi, esp
  00185	e9 00 00 00 00	 jmp	 __RTC_CheckEsp
__ehhandler$?OnInitDialog@CMinOrExit@@MAEHXZ:
  0018a	b8 00 00 00 00	 mov	 eax, OFFSET FLAT:$T189959
  0018f	e9 00 00 00 00	 jmp	 ___CxxFrameHandler
text$x	ENDS
?OnInitDialog@CMinOrExit@@MAEHXZ ENDP			; CMinOrExit::OnInitDialog
; Function compile flags: /Odt /RTCsu
; File d:\boxgit\playbox\playbox\dev\prj\playbox\src\layoutmgr\seperatemode\hostwndmgr.h
;	COMDAT ?GetMainWnd@CHostWndMgr@@QAEPAVCWnd@@XZ
_TEXT	SEGMENT
_this$ = -4						; size = 4
?GetMainWnd@CHostWndMgr@@QAEPAVCWnd@@XZ PROC NEAR	; CHostWndMgr::GetMainWnd, COMDAT
; _this$ = ecx

; 43   : 	CWnd*				GetMainWnd(){

  00000	55		 push	 ebp
  00001	8b ec		 mov	 ebp, esp
  00003	51		 push	 ecx
  00004	c7 45 fc cc cc
	cc cc		 mov	 DWORD PTR [ebp-4], -858993460 ; ccccccccH
  0000b	89 4d fc	 mov	 DWORD PTR _this$[ebp], ecx

; 44   : 		return m_pMainWnd;

  0000e	8b 45 fc	 mov	 eax, DWORD PTR _this$[ebp]
  00011	8b 40 3c	 mov	 eax, DWORD PTR [eax+60]

; 45   : 	};

  00014	8b e5		 mov	 esp, ebp
  00016	5d		 pop	 ebp
  00017	c3		 ret	 0
?GetMainWnd@CHostWndMgr@@QAEPAVCWnd@@XZ ENDP		; CHostWndMgr::GetMainWnd
; Function compile flags: /Odt /RTCsu
; File d:\boxgit\playbox\playbox\dev\prj\playbox\src\module\toppanel\minorexit.cpp
_TEXT	ENDS
_TEXT	SEGMENT
_this$ = -4						; size = 4
?CheckRad1@CMinOrExit@@AAEXXZ PROC NEAR			; CMinOrExit::CheckRad1
; _this$ = ecx

; 137  : {

  00c10	55		 push	 ebp
  00c11	8b ec		 mov	 ebp, esp
  00c13	51		 push	 ecx
  00c14	c7 45 fc cc cc
	cc cc		 mov	 DWORD PTR [ebp-4], -858993460 ; ccccccccH
  00c1b	89 4d fc	 mov	 DWORD PTR _this$[ebp], ecx

; 138  : 	m_chkRad=FALSE;

  00c1e	8b 45 fc	 mov	 eax, DWORD PTR _this$[ebp]
  00c21	c7 80 b8 0a 00
	00 00 00 00 00	 mov	 DWORD PTR [eax+2744], 0

; 139  : 	m_rad1Checked.ShowWindow(SW_SHOW);

  00c2b	6a 05		 push	 5
  00c2d	8b 4d fc	 mov	 ecx, DWORD PTR _this$[ebp]
  00c30	81 c1 04 05 00
	00		 add	 ecx, 1284		; 00000504H
  00c36	e8 00 00 00 00	 call	 ?ShowWindow@CWnd@@QAEHH@Z ; CWnd::ShowWindow

; 140  : 	m_rad1unCheck.ShowWindow(SW_HIDE);

  00c3b	6a 00		 push	 0
  00c3d	8b 4d fc	 mov	 ecx, DWORD PTR _this$[ebp]
  00c40	81 c1 e0 03 00
	00		 add	 ecx, 992		; 000003e0H
  00c46	e8 00 00 00 00	 call	 ?ShowWindow@CWnd@@QAEHH@Z ; CWnd::ShowWindow

; 141  : 	m_rad2Checked.ShowWindow(SW_HIDE);

  00c4b	6a 00		 push	 0
  00c4d	8b 4d fc	 mov	 ecx, DWORD PTR _this$[ebp]
  00c50	81 c1 4c 07 00
	00		 add	 ecx, 1868		; 0000074cH
  00c56	e8 00 00 00 00	 call	 ?ShowWindow@CWnd@@QAEHH@Z ; CWnd::ShowWindow

; 142  : 	m_rad2unCheck.ShowWindow(SW_SHOW);

  00c5b	6a 05		 push	 5
  00c5d	8b 4d fc	 mov	 ecx, DWORD PTR _this$[ebp]
  00c60	81 c1 28 06 00
	00		 add	 ecx, 1576		; 00000628H
  00c66	e8 00 00 00 00	 call	 ?ShowWindow@CWnd@@QAEHH@Z ; CWnd::ShowWindow

; 143  : }

  00c6b	83 c4 04	 add	 esp, 4
  00c6e	3b ec		 cmp	 ebp, esp
  00c70	e8 00 00 00 00	 call	 __RTC_CheckEsp
  00c75	8b e5		 mov	 esp, ebp
  00c77	5d		 pop	 ebp
  00c78	c3		 ret	 0
?CheckRad1@CMinOrExit@@AAEXXZ ENDP			; CMinOrExit::CheckRad1
; Function compile flags: /Odt /RTCsu
_this$ = -4						; size = 4
?CheckRad2@CMinOrExit@@AAEXXZ PROC NEAR			; CMinOrExit::CheckRad2
; _this$ = ecx

; 145  : {

  00c80	55		 push	 ebp
  00c81	8b ec		 mov	 ebp, esp
  00c83	51		 push	 ecx
  00c84	c7 45 fc cc cc
	cc cc		 mov	 DWORD PTR [ebp-4], -858993460 ; ccccccccH
  00c8b	89 4d fc	 mov	 DWORD PTR _this$[ebp], ecx

; 146  : 	m_chkRad=TRUE;

  00c8e	8b 45 fc	 mov	 eax, DWORD PTR _this$[ebp]
  00c91	c7 80 b8 0a 00
	00 01 00 00 00	 mov	 DWORD PTR [eax+2744], 1

; 147  : 	m_rad1Checked.ShowWindow(SW_HIDE);

  00c9b	6a 00		 push	 0
  00c9d	8b 4d fc	 mov	 ecx, DWORD PTR _this$[ebp]
  00ca0	81 c1 04 05 00
	00		 add	 ecx, 1284		; 00000504H
  00ca6	e8 00 00 00 00	 call	 ?ShowWindow@CWnd@@QAEHH@Z ; CWnd::ShowWindow

; 148  : 	m_rad1unCheck.ShowWindow(SW_SHOW);

  00cab	6a 05		 push	 5
  00cad	8b 4d fc	 mov	 ecx, DWORD PTR _this$[ebp]
  00cb0	81 c1 e0 03 00
	00		 add	 ecx, 992		; 000003e0H
  00cb6	e8 00 00 00 00	 call	 ?ShowWindow@CWnd@@QAEHH@Z ; CWnd::ShowWindow

; 149  : 	m_rad2Checked.ShowWindow(SW_SHOW);

  00cbb	6a 05		 push	 5
  00cbd	8b 4d fc	 mov	 ecx, DWORD PTR _this$[ebp]
  00cc0	81 c1 4c 07 00
	00		 add	 ecx, 1868		; 0000074cH
  00cc6	e8 00 00 00 00	 call	 ?ShowWindow@CWnd@@QAEHH@Z ; CWnd::ShowWindow

; 150  : 	m_rad2unCheck.ShowWindow(SW_HIDE);

  00ccb	6a 00		 push	 0
  00ccd	8b 4d fc	 mov	 ecx, DWORD PTR _this$[ebp]
  00cd0	81 c1 28 06 00
	00		 add	 ecx, 1576		; 00000628H
  00cd6	e8 00 00 00 00	 call	 ?ShowWindow@CWnd@@QAEHH@Z ; CWnd::ShowWindow

; 151  : }

  00cdb	83 c4 04	 add	 esp, 4
  00cde	3b ec		 cmp	 ebp, esp
  00ce0	e8 00 00 00 00	 call	 __RTC_CheckEsp
  00ce5	8b e5		 mov	 esp, ebp
  00ce7	5d		 pop	 ebp
  00ce8	c3		 ret	 0
?CheckRad2@CMinOrExit@@AAEXXZ ENDP			; CMinOrExit::CheckRad2
_TEXT	ENDS
PUBLIC	?CheckBox@CMinOrExit@@AAEXXZ			; CMinOrExit::CheckBox
; Function compile flags: /Odt /RTCsu
_TEXT	SEGMENT
_this$ = -4						; size = 4
?CheckBox@CMinOrExit@@AAEXXZ PROC NEAR			; CMinOrExit::CheckBox
; _this$ = ecx

; 153  : {

  00cf0	55		 push	 ebp
  00cf1	8b ec		 mov	 ebp, esp
  00cf3	51		 push	 ecx
  00cf4	c7 45 fc cc cc
	cc cc		 mov	 DWORD PTR [ebp-4], -858993460 ; ccccccccH
  00cfb	89 4d fc	 mov	 DWORD PTR _this$[ebp], ecx

; 154  : 	m_chkBox=TRUE;

  00cfe	8b 45 fc	 mov	 eax, DWORD PTR _this$[ebp]
  00d01	c7 80 bc 0a 00
	00 01 00 00 00	 mov	 DWORD PTR [eax+2748], 1

; 155  : 	m_boxChecked.ShowWindow(SW_SHOW);

  00d0b	6a 05		 push	 5
  00d0d	8b 4d fc	 mov	 ecx, DWORD PTR _this$[ebp]
  00d10	81 c1 94 09 00
	00		 add	 ecx, 2452		; 00000994H
  00d16	e8 00 00 00 00	 call	 ?ShowWindow@CWnd@@QAEHH@Z ; CWnd::ShowWindow

; 156  : 	m_boxunCheck.ShowWindow(SW_HIDE);

  00d1b	6a 00		 push	 0
  00d1d	8b 4d fc	 mov	 ecx, DWORD PTR _this$[ebp]
  00d20	81 c1 70 08 00
	00		 add	 ecx, 2160		; 00000870H
  00d26	e8 00 00 00 00	 call	 ?ShowWindow@CWnd@@QAEHH@Z ; CWnd::ShowWindow

; 157  : }

  00d2b	83 c4 04	 add	 esp, 4
  00d2e	3b ec		 cmp	 ebp, esp
  00d30	e8 00 00 00 00	 call	 __RTC_CheckEsp
  00d35	8b e5		 mov	 esp, ebp
  00d37	5d		 pop	 ebp
  00d38	c3		 ret	 0
?CheckBox@CMinOrExit@@AAEXXZ ENDP			; CMinOrExit::CheckBox
_TEXT	ENDS
PUBLIC	?UnCheckBox@CMinOrExit@@AAEXXZ			; CMinOrExit::UnCheckBox
; Function compile flags: /Odt /RTCsu
_TEXT	SEGMENT
_this$ = -4						; size = 4
?UnCheckBox@CMinOrExit@@AAEXXZ PROC NEAR		; CMinOrExit::UnCheckBox
; _this$ = ecx

; 159  : {

  00d40	55		 push	 ebp
  00d41	8b ec		 mov	 ebp, esp
  00d43	51		 push	 ecx
  00d44	c7 45 fc cc cc
	cc cc		 mov	 DWORD PTR [ebp-4], -858993460 ; ccccccccH
  00d4b	89 4d fc	 mov	 DWORD PTR _this$[ebp], ecx

; 160  : 	m_chkBox=FALSE;

  00d4e	8b 45 fc	 mov	 eax, DWORD PTR _this$[ebp]
  00d51	c7 80 bc 0a 00
	00 00 00 00 00	 mov	 DWORD PTR [eax+2748], 0

; 161  : 	m_boxChecked.ShowWindow(SW_HIDE);

  00d5b	6a 00		 push	 0
  00d5d	8b 4d fc	 mov	 ecx, DWORD PTR _this$[ebp]
  00d60	81 c1 94 09 00
	00		 add	 ecx, 2452		; 00000994H
  00d66	e8 00 00 00 00	 call	 ?ShowWindow@CWnd@@QAEHH@Z ; CWnd::ShowWindow

; 162  : 	m_boxunCheck.ShowWindow(SW_SHOW);

  00d6b	6a 05		 push	 5
  00d6d	8b 4d fc	 mov	 ecx, DWORD PTR _this$[ebp]
  00d70	81 c1 70 08 00
	00		 add	 ecx, 2160		; 00000870H
  00d76	e8 00 00 00 00	 call	 ?ShowWindow@CWnd@@QAEHH@Z ; CWnd::ShowWindow

; 163  : }

  00d7b	83 c4 04	 add	 esp, 4
  00d7e	3b ec		 cmp	 ebp, esp
  00d80	e8 00 00 00 00	 call	 __RTC_CheckEsp
  00d85	8b e5		 mov	 esp, ebp
  00d87	5d		 pop	 ebp
  00d88	c3		 ret	 0
?UnCheckBox@CMinOrExit@@AAEXXZ ENDP			; CMinOrExit::UnCheckBox
_TEXT	ENDS
EXTRN	?OnCommand@CWnd@@MAEHIJ@Z:NEAR			; CWnd::OnCommand
; Function compile flags: /Odt /RTCsu
_TEXT	SEGMENT
tv67 = -16						; size = 4
_lowWord$ = -12						; size = 2
_this$ = -4						; size = 4
_wParam$ = 8						; size = 4
_lParam$ = 12						; size = 4
?OnCommand@CMinOrExit@@MAEHIJ@Z PROC NEAR		; CMinOrExit::OnCommand
; _this$ = ecx

; 165  : {

  00d90	55		 push	 ebp
  00d91	8b ec		 mov	 ebp, esp
  00d93	83 ec 10	 sub	 esp, 16			; 00000010H
  00d96	56		 push	 esi
  00d97	b8 cc cc cc cc	 mov	 eax, -858993460		; ccccccccH
  00d9c	89 45 f0	 mov	 DWORD PTR [ebp-16], eax
  00d9f	89 45 f4	 mov	 DWORD PTR [ebp-12], eax
  00da2	89 45 f8	 mov	 DWORD PTR [ebp-8], eax
  00da5	89 45 fc	 mov	 DWORD PTR [ebp-4], eax
  00da8	89 4d fc	 mov	 DWORD PTR _this$[ebp], ecx

; 166  : 	bool askexit,exitchoice;
; 167  : 	WORD lowWord	= LOWORD( wParam );

  00dab	8b 45 08	 mov	 eax, DWORD PTR _wParam$[ebp]
  00dae	25 ff ff 00 00	 and	 eax, 65535		; 0000ffffH
  00db3	66 89 45 f4	 mov	 WORD PTR _lowWord$[ebp], ax

; 168  : 	switch (lowWord)

  00db7	0f b7 4d f4	 movzx	 ecx, WORD PTR _lowWord$[ebp]
  00dbb	89 4d f0	 mov	 DWORD PTR tv67[ebp], ecx
  00dbe	8b 55 f0	 mov	 edx, DWORD PTR tv67[ebp]
  00dc1	81 ea 19 27 00
	00		 sub	 edx, 10009		; 00002719H
  00dc7	89 55 f0	 mov	 DWORD PTR tv67[ebp], edx
  00dca	83 7d f0 04	 cmp	 DWORD PTR tv67[ebp], 4
  00dce	77 5f		 ja	 SHORT $L188758
  00dd0	8b 45 f0	 mov	 eax, DWORD PTR tv67[ebp]
  00dd3	ff 24 85 00 00
	00 00		 jmp	 DWORD PTR $L189975[eax*4]
$L188761:

; 169  : 	{
; 170  : 	case ID_BTN_MINORCLOSE_RAD1:
; 171  : 		CheckRad1();

  00dda	8b 4d fc	 mov	 ecx, DWORD PTR _this$[ebp]
  00ddd	e8 00 00 00 00	 call	 ?CheckRad1@CMinOrExit@@AAEXXZ ; CMinOrExit::CheckRad1

; 172  : 		break;

  00de2	eb 4b		 jmp	 SHORT $L188758
$L188762:

; 173  : 	case ID_BTN_MINORCLOSE_RAD2:
; 174  : 		CheckRad2();

  00de4	8b 4d fc	 mov	 ecx, DWORD PTR _this$[ebp]
  00de7	e8 00 00 00 00	 call	 ?CheckRad2@CMinOrExit@@AAEXXZ ; CMinOrExit::CheckRad2

; 175  : 		break;

  00dec	eb 41		 jmp	 SHORT $L188758
$L188763:

; 176  : 	case ID_BTN_MINORCLOSE_BOX:
; 177  : 		if (m_chkBox)

  00dee	8b 4d fc	 mov	 ecx, DWORD PTR _this$[ebp]
  00df1	83 b9 bc 0a 00
	00 00		 cmp	 DWORD PTR [ecx+2748], 0
  00df8	74 0a		 je	 SHORT $L188764

; 178  : 		{
; 179  : 			UnCheckBox();

  00dfa	8b 4d fc	 mov	 ecx, DWORD PTR _this$[ebp]
  00dfd	e8 00 00 00 00	 call	 ?UnCheckBox@CMinOrExit@@AAEXXZ ; CMinOrExit::UnCheckBox

; 180  : 		}
; 181  : 		else

  00e02	eb 08		 jmp	 SHORT $L188765
$L188764:

; 182  : 		{
; 183  : 			CheckBox();

  00e04	8b 4d fc	 mov	 ecx, DWORD PTR _this$[ebp]
  00e07	e8 00 00 00 00	 call	 ?CheckBox@CMinOrExit@@AAEXXZ ; CMinOrExit::CheckBox
$L188765:

; 184  : 		}
; 185  : 		break;

  00e0c	eb 21		 jmp	 SHORT $L188758
$L188766:

; 186  : 	case ID_BTN_MINORCLOSE_CANCLE:
; 187  : 		CDialog::OnCancel();

  00e0e	8b 4d fc	 mov	 ecx, DWORD PTR _this$[ebp]
  00e11	e8 00 00 00 00	 call	 ?OnCancel@CDialog@@MAEXXZ ; CDialog::OnCancel

; 188  : 		break;

  00e16	eb 17		 jmp	 SHORT $L188758
$L188767:

; 189  : 	case ID_BTN_MINORCLOSE_OK:
; 190  : 		OnOK();

  00e18	8b 55 fc	 mov	 edx, DWORD PTR _this$[ebp]
  00e1b	8b 02		 mov	 eax, DWORD PTR [edx]
  00e1d	8b f4		 mov	 esi, esp
  00e1f	8b 4d fc	 mov	 ecx, DWORD PTR _this$[ebp]
  00e22	ff 90 54 01 00
	00		 call	 DWORD PTR [eax+340]
  00e28	3b f4		 cmp	 esi, esp
  00e2a	e8 00 00 00 00	 call	 __RTC_CheckEsp
$L188758:

; 191  : 		break;
; 192  : 	}
; 193  : 	return CDialog::OnCommand(wParam,lParam);

  00e2f	8b 4d 0c	 mov	 ecx, DWORD PTR _lParam$[ebp]
  00e32	51		 push	 ecx
  00e33	8b 55 08	 mov	 edx, DWORD PTR _wParam$[ebp]
  00e36	52		 push	 edx
  00e37	8b 4d fc	 mov	 ecx, DWORD PTR _this$[ebp]
  00e3a	e8 00 00 00 00	 call	 ?OnCommand@CWnd@@MAEHIJ@Z ; CWnd::OnCommand

; 194  : }

  00e3f	5e		 pop	 esi
  00e40	83 c4 10	 add	 esp, 16			; 00000010H
  00e43	3b ec		 cmp	 ebp, esp
  00e45	e8 00 00 00 00	 call	 __RTC_CheckEsp
  00e4a	8b e5		 mov	 esp, ebp
  00e4c	5d		 pop	 ebp
  00e4d	c2 08 00	 ret	 8
$L189975:
  00e50	00 00 00 00	 DD	 $L188767
  00e54	00 00 00 00	 DD	 $L188761
  00e58	00 00 00 00	 DD	 $L188762
  00e5c	00 00 00 00	 DD	 $L188763
  00e60	00 00 00 00	 DD	 $L188766
?OnCommand@CMinOrExit@@MAEHIJ@Z ENDP			; CMinOrExit::OnCommand
_TEXT	ENDS
PUBLIC	?InterlockedExchangePointer@@YGPAXPAPAXPAX@Z	; InterlockedExchangePointer
PUBLIC	?_AtlGetThreadACPFake@ATL@@YGIXZ		; ATL::_AtlGetThreadACPFake
PUBLIC	?_AtlGetThreadACPReal@ATL@@YGIXZ		; ATL::_AtlGetThreadACPReal
EXTRN	__imp__GetVersionExA@4:NEAR
EXTRN	___security_cookie:DWORD
EXTRN	@__security_check_cookie@4:NEAR
; Function compile flags: /Odt /RTCsu
; File d:\program files (x86)\microsoft visual studio .net 2003\vc7\atlmfc\include\atlconv.h
;	COMDAT ?_AtlGetThreadACPThunk@ATL@@YGIXZ
_TEXT	SEGMENT
_pfnGetThreadACP$ = -164				; size = 4
_ver$ = -156						; size = 148
__$ArrayPad$ = -4					; size = 4
__$ReturnAddr$ = 4					; size = 4
?_AtlGetThreadACPThunk@ATL@@YGIXZ PROC NEAR		; ATL::_AtlGetThreadACPThunk, COMDAT

; 134  : {

  00000	55		 push	 ebp
  00001	8b ec		 mov	 ebp, esp
  00003	81 ec a4 00 00
	00		 sub	 esp, 164		; 000000a4H
  00009	56		 push	 esi
  0000a	57		 push	 edi
  0000b	8d bd 5c ff ff
	ff		 lea	 edi, DWORD PTR [ebp-164]
  00011	b9 29 00 00 00	 mov	 ecx, 41			; 00000029H
  00016	b8 cc cc cc cc	 mov	 eax, -858993460		; ccccccccH
  0001b	f3 ab		 rep stosd
  0001d	a1 00 00 00 00	 mov	 eax, DWORD PTR ___security_cookie
  00022	89 45 fc	 mov	 DWORD PTR __$ArrayPad$[ebp], eax

; 135  : 	OSVERSIONINFO ver;
; 136  : 	ATLGETTHREADACP pfnGetThreadACP;
; 137  : 
; 138  : 	ver.dwOSVersionInfoSize = sizeof( ver );

  00025	c7 85 64 ff ff
	ff 94 00 00 00	 mov	 DWORD PTR _ver$[ebp], 148 ; 00000094H

; 139  : 	::GetVersionEx( &ver );

  0002f	8b f4		 mov	 esi, esp
  00031	8d 85 64 ff ff
	ff		 lea	 eax, DWORD PTR _ver$[ebp]
  00037	50		 push	 eax
  00038	ff 15 00 00 00
	00		 call	 DWORD PTR __imp__GetVersionExA@4
  0003e	3b f4		 cmp	 esi, esp
  00040	e8 00 00 00 00	 call	 __RTC_CheckEsp

; 140  : 	if( (ver.dwPlatformId == VER_PLATFORM_WIN32_NT) && (ver.dwMajorVersion >= 5) )

  00045	83 bd 74 ff ff
	ff 02		 cmp	 DWORD PTR _ver$[ebp+16], 2
  0004c	75 15		 jne	 SHORT $L24163
  0004e	83 bd 68 ff ff
	ff 05		 cmp	 DWORD PTR _ver$[ebp+4], 5
  00055	72 0c		 jb	 SHORT $L24163

; 141  : 	{
; 142  : 		// On Win2K, CP_THREAD_ACP is supported
; 143  : 		pfnGetThreadACP = _AtlGetThreadACPReal;

  00057	c7 85 5c ff ff
	ff 00 00 00 00	 mov	 DWORD PTR _pfnGetThreadACP$[ebp], OFFSET FLAT:?_AtlGetThreadACPReal@ATL@@YGIXZ ; ATL::_AtlGetThreadACPReal

; 144  : 	}
; 145  : 	else

  00061	eb 0a		 jmp	 SHORT $L24164
$L24163:

; 146  : 	{
; 147  : 		pfnGetThreadACP = _AtlGetThreadACPFake;

  00063	c7 85 5c ff ff
	ff 00 00 00 00	 mov	 DWORD PTR _pfnGetThreadACP$[ebp], OFFSET FLAT:?_AtlGetThreadACPFake@ATL@@YGIXZ ; ATL::_AtlGetThreadACPFake
$L24164:

; 148  : 	}
; 149  : 	InterlockedExchangePointer( reinterpret_cast< void** >(&g_pfnGetThreadACP), pfnGetThreadACP );

  0006d	8b 8d 5c ff ff
	ff		 mov	 ecx, DWORD PTR _pfnGetThreadACP$[ebp]
  00073	51		 push	 ecx
  00074	68 00 00 00 00	 push	 OFFSET FLAT:?g_pfnGetThreadACP@ATL@@3P6GIXZA ; ATL::g_pfnGetThreadACP
  00079	e8 00 00 00 00	 call	 ?InterlockedExchangePointer@@YGPAXPAPAXPAX@Z ; InterlockedExchangePointer

; 150  : 
; 151  : 	return( g_pfnGetThreadACP() );

  0007e	8b f4		 mov	 esi, esp
  00080	ff 15 00 00 00
	00		 call	 DWORD PTR ?g_pfnGetThreadACP@ATL@@3P6GIXZA ; ATL::g_pfnGetThreadACP
  00086	3b f4		 cmp	 esi, esp
  00088	e8 00 00 00 00	 call	 __RTC_CheckEsp

; 152  : }

  0008d	52		 push	 edx
  0008e	8b cd		 mov	 ecx, ebp
  00090	50		 push	 eax
  00091	8d 15 00 00 00
	00		 lea	 edx, DWORD PTR $L189982
  00097	e8 00 00 00 00	 call	 @_RTC_CheckStackVars@8
  0009c	58		 pop	 eax
  0009d	5a		 pop	 edx
  0009e	8b 4d fc	 mov	 ecx, DWORD PTR __$ArrayPad$[ebp]
  000a1	e8 00 00 00 00	 call	 @__security_check_cookie@4
  000a6	5f		 pop	 edi
  000a7	5e		 pop	 esi
  000a8	81 c4 a4 00 00
	00		 add	 esp, 164		; 000000a4H
  000ae	3b ec		 cmp	 ebp, esp
  000b0	e8 00 00 00 00	 call	 __RTC_CheckEsp
  000b5	8b e5		 mov	 esp, ebp
  000b7	5d		 pop	 ebp
  000b8	c3		 ret	 0
$L189982:
  000b9	01 00 00 00	 DD	 1
  000bd	00 00 00 00	 DD	 $L189981
$L189981:
  000c1	64 ff ff ff	 DD	 -156			; ffffff64H
  000c5	94 00 00 00	 DD	 148			; 00000094H
  000c9	00 00 00 00	 DD	 $L189978
$L189978:
  000cd	76		 DB	 118			; 00000076H
  000ce	65		 DB	 101			; 00000065H
  000cf	72		 DB	 114			; 00000072H
  000d0	00		 DB	 0
?_AtlGetThreadACPThunk@ATL@@YGIXZ ENDP			; ATL::_AtlGetThreadACPThunk
_TEXT	ENDS
EXTRN	__imp__InterlockedExchange@8:NEAR
; Function compile flags: /Odt /RTCsu
;	COMDAT ?InterlockedExchangePointer@@YGPAXPAPAXPAX@Z
_TEXT	SEGMENT
_pp$ = 8						; size = 4
_pNew$ = 12						; size = 4
?InterlockedExchangePointer@@YGPAXPAPAXPAX@Z PROC NEAR	; InterlockedExchangePointer, COMDAT

; 91   : {

  00000	55		 push	 ebp
  00001	8b ec		 mov	 ebp, esp
  00003	56		 push	 esi

; 92   : 	return( reinterpret_cast<void*>(static_cast<LONG_PTR>(::InterlockedExchange(reinterpret_cast<LONG*>(pp), static_cast<LONG>(reinterpret_cast<LONG_PTR>(pNew))))) );

  00004	8b f4		 mov	 esi, esp
  00006	8b 45 0c	 mov	 eax, DWORD PTR _pNew$[ebp]
  00009	50		 push	 eax
  0000a	8b 4d 08	 mov	 ecx, DWORD PTR _pp$[ebp]
  0000d	51		 push	 ecx
  0000e	ff 15 00 00 00
	00		 call	 DWORD PTR __imp__InterlockedExchange@8
  00014	3b f4		 cmp	 esi, esp
  00016	e8 00 00 00 00	 call	 __RTC_CheckEsp

; 93   : }

  0001b	5e		 pop	 esi
  0001c	3b ec		 cmp	 ebp, esp
  0001e	e8 00 00 00 00	 call	 __RTC_CheckEsp
  00023	5d		 pop	 ebp
  00024	c2 08 00	 ret	 8
?InterlockedExchangePointer@@YGPAXPAPAXPAX@Z ENDP	; InterlockedExchangePointer
_TEXT	ENDS
EXTRN	__imp__GetACP@0:NEAR
EXTRN	__imp__GetLocaleInfoA@16:NEAR
EXTRN	__imp__GetThreadLocale@0:NEAR
; Function compile flags: /Odt /RTCsu
;	COMDAT ?_AtlGetThreadACPFake@ATL@@YGIXZ
_TEXT	SEGMENT
_pch$24151 = -32					; size = 4
_szACP$ = -24						; size = 7
_lcidThread$ = -12					; size = 4
_nACP$ = -8						; size = 4
__$ArrayPad$ = -4					; size = 4
__$ReturnAddr$ = 4					; size = 4
?_AtlGetThreadACPFake@ATL@@YGIXZ PROC NEAR		; ATL::_AtlGetThreadACPFake, COMDAT

; 101  : {

  00000	55		 push	 ebp
  00001	8b ec		 mov	 ebp, esp
  00003	83 ec 20	 sub	 esp, 32			; 00000020H
  00006	56		 push	 esi
  00007	b8 cc cc cc cc	 mov	 eax, -858993460		; ccccccccH
  0000c	89 45 e0	 mov	 DWORD PTR [ebp-32], eax
  0000f	89 45 e4	 mov	 DWORD PTR [ebp-28], eax
  00012	89 45 e8	 mov	 DWORD PTR [ebp-24], eax
  00015	89 45 ec	 mov	 DWORD PTR [ebp-20], eax
  00018	89 45 f0	 mov	 DWORD PTR [ebp-16], eax
  0001b	89 45 f4	 mov	 DWORD PTR [ebp-12], eax
  0001e	89 45 f8	 mov	 DWORD PTR [ebp-8], eax
  00021	89 45 fc	 mov	 DWORD PTR [ebp-4], eax
  00024	a1 00 00 00 00	 mov	 eax, DWORD PTR ___security_cookie
  00029	89 45 fc	 mov	 DWORD PTR __$ArrayPad$[ebp], eax

; 102  : 	UINT nACP = 0;

  0002c	c7 45 f8 00 00
	00 00		 mov	 DWORD PTR _nACP$[ebp], 0

; 103  : 
; 104  : 	LCID lcidThread = ::GetThreadLocale();

  00033	8b f4		 mov	 esi, esp
  00035	ff 15 00 00 00
	00		 call	 DWORD PTR __imp__GetThreadLocale@0
  0003b	3b f4		 cmp	 esi, esp
  0003d	e8 00 00 00 00	 call	 __RTC_CheckEsp
  00042	89 45 f4	 mov	 DWORD PTR _lcidThread$[ebp], eax

; 105  : 
; 106  : 	char szACP[7];
; 107  : 	// GetLocaleInfoA will fail for a Unicode-only LCID, but those are only supported on 
; 108  : 	// Windows 2000.  Since Windows 2000 supports CP_THREAD_ACP, this code path is never
; 109  : 	// executed on Windows 2000.
; 110  : 	if (::GetLocaleInfoA(lcidThread, LOCALE_IDEFAULTANSICODEPAGE, szACP, 7) != 0)

  00045	8b f4		 mov	 esi, esp
  00047	6a 07		 push	 7
  00049	8d 45 e8	 lea	 eax, DWORD PTR _szACP$[ebp]
  0004c	50		 push	 eax
  0004d	68 04 10 00 00	 push	 4100			; 00001004H
  00052	8b 4d f4	 mov	 ecx, DWORD PTR _lcidThread$[ebp]
  00055	51		 push	 ecx
  00056	ff 15 00 00 00
	00		 call	 DWORD PTR __imp__GetLocaleInfoA@16
  0005c	3b f4		 cmp	 esi, esp
  0005e	e8 00 00 00 00	 call	 __RTC_CheckEsp
  00063	85 c0		 test	 eax, eax
  00065	74 34		 je	 SHORT $L24150

; 111  : 	{
; 112  : 		char* pch = szACP;

  00067	8d 55 e8	 lea	 edx, DWORD PTR _szACP$[ebp]
  0006a	89 55 e0	 mov	 DWORD PTR _pch$24151[ebp], edx
$L24153:

; 113  : 		while (*pch != '\0')

  0006d	8b 45 e0	 mov	 eax, DWORD PTR _pch$24151[ebp]
  00070	0f be 08	 movsx	 ecx, BYTE PTR [eax]
  00073	85 c9		 test	 ecx, ecx
  00075	74 24		 je	 SHORT $L24150

; 114  : 		{
; 115  : 			nACP *= 10;

  00077	8b 55 f8	 mov	 edx, DWORD PTR _nACP$[ebp]
  0007a	6b d2 0a	 imul	 edx, 10			; 0000000aH
  0007d	89 55 f8	 mov	 DWORD PTR _nACP$[ebp], edx

; 116  : 			nACP += *pch++ - '0';

  00080	8b 45 e0	 mov	 eax, DWORD PTR _pch$24151[ebp]
  00083	0f be 08	 movsx	 ecx, BYTE PTR [eax]
  00086	8b 55 f8	 mov	 edx, DWORD PTR _nACP$[ebp]
  00089	8d 44 0a d0	 lea	 eax, DWORD PTR [edx+ecx-48]
  0008d	89 45 f8	 mov	 DWORD PTR _nACP$[ebp], eax
  00090	8b 4d e0	 mov	 ecx, DWORD PTR _pch$24151[ebp]
  00093	83 c1 01	 add	 ecx, 1
  00096	89 4d e0	 mov	 DWORD PTR _pch$24151[ebp], ecx

; 117  : 		}

  00099	eb d2		 jmp	 SHORT $L24153
$L24150:

; 118  : 	}
; 119  : 	// Use the Default ANSI Code Page if we were unable to get the thread ACP or if one does not exist.
; 120  : 	if (nACP == 0)

  0009b	83 7d f8 00	 cmp	 DWORD PTR _nACP$[ebp], 0
  0009f	75 12		 jne	 SHORT $L24155

; 121  : 		nACP = ::GetACP();

  000a1	8b f4		 mov	 esi, esp
  000a3	ff 15 00 00 00
	00		 call	 DWORD PTR __imp__GetACP@0
  000a9	3b f4		 cmp	 esi, esp
  000ab	e8 00 00 00 00	 call	 __RTC_CheckEsp
  000b0	89 45 f8	 mov	 DWORD PTR _nACP$[ebp], eax
$L24155:

; 122  : 
; 123  : 	return nACP;

  000b3	8b 45 f8	 mov	 eax, DWORD PTR _nACP$[ebp]

; 124  : }

  000b6	52		 push	 edx
  000b7	8b cd		 mov	 ecx, ebp
  000b9	50		 push	 eax
  000ba	8d 15 00 00 00
	00		 lea	 edx, DWORD PTR $L189990
  000c0	e8 00 00 00 00	 call	 @_RTC_CheckStackVars@8
  000c5	58		 pop	 eax
  000c6	5a		 pop	 edx
  000c7	8b 4d fc	 mov	 ecx, DWORD PTR __$ArrayPad$[ebp]
  000ca	e8 00 00 00 00	 call	 @__security_check_cookie@4
  000cf	5e		 pop	 esi
  000d0	83 c4 20	 add	 esp, 32			; 00000020H
  000d3	3b ec		 cmp	 ebp, esp
  000d5	e8 00 00 00 00	 call	 __RTC_CheckEsp
  000da	8b e5		 mov	 esp, ebp
  000dc	5d		 pop	 ebp
  000dd	c3		 ret	 0
$L189990:
  000de	01 00 00 00	 DD	 1
  000e2	00 00 00 00	 DD	 $L189989
$L189989:
  000e6	e8 ff ff ff	 DD	 -24			; ffffffe8H
  000ea	07 00 00 00	 DD	 7
  000ee	00 00 00 00	 DD	 $L189987
$L189987:
  000f2	73		 DB	 115			; 00000073H
  000f3	7a		 DB	 122			; 0000007aH
  000f4	41		 DB	 65			; 00000041H
  000f5	43		 DB	 67			; 00000043H
  000f6	50		 DB	 80			; 00000050H
  000f7	00		 DB	 0
?_AtlGetThreadACPFake@ATL@@YGIXZ ENDP			; ATL::_AtlGetThreadACPFake
; Function compile flags: /Odt /RTCsu
_TEXT	ENDS
;	COMDAT ?_AtlGetThreadACPReal@ATL@@YGIXZ
_TEXT	SEGMENT
?_AtlGetThreadACPReal@ATL@@YGIXZ PROC NEAR		; ATL::_AtlGetThreadACPReal, COMDAT

; 127  : {

  00000	55		 push	 ebp
  00001	8b ec		 mov	 ebp, esp

; 128  : 	return( CP_THREAD_ACP );

  00003	b8 03 00 00 00	 mov	 eax, 3

; 129  : }

  00008	5d		 pop	 ebp
  00009	c3		 ret	 0
?_AtlGetThreadACPReal@ATL@@YGIXZ ENDP			; ATL::_AtlGetThreadACPReal
_TEXT	ENDS
EXTRN	??0CPaintDC@@QAE@PAVCWnd@@@Z:NEAR		; CPaintDC::CPaintDC
EXTRN	??1CPaintDC@@UAE@XZ:NEAR			; CPaintDC::~CPaintDC
xdata$x	SEGMENT
$T190002 DD	0ffffffffH
	DD	FLAT:$L189994
$T189996 DD	019930520H
	DD	01H
	DD	FLAT:$T190002
	DD	2 DUP(00H)
	DD	2 DUP(00H)
; Function compile flags: /Odt /RTCsu
; File d:\boxgit\playbox\playbox\dev\prj\playbox\src\module\toppanel\minorexit.cpp
xdata$x	ENDS
_TEXT	SEGMENT
tv75 = -120						; size = 4
tv70 = -116						; size = 4
_dc$ = -108						; size = 84
_this$ = -20						; size = 4
__$ArrayPad$ = -16					; size = 4
__$EHRec$ = -12						; size = 12
__$ReturnAddr$ = 4					; size = 4
?OnPaint@CMinOrExit@@QAEXXZ PROC NEAR			; CMinOrExit::OnPaint
; _this$ = ecx

; 199  : {

  00e70	55		 push	 ebp
  00e71	8b ec		 mov	 ebp, esp
  00e73	6a ff		 push	 -1
  00e75	68 00 00 00 00	 push	 __ehhandler$?OnPaint@CMinOrExit@@QAEXXZ
  00e7a	64 a1 00 00 00
	00		 mov	 eax, DWORD PTR fs:__except_list
  00e80	50		 push	 eax
  00e81	64 89 25 00 00
	00 00		 mov	 DWORD PTR fs:__except_list, esp
  00e88	83 ec 6c	 sub	 esp, 108		; 0000006cH
  00e8b	56		 push	 esi
  00e8c	57		 push	 edi
  00e8d	51		 push	 ecx
  00e8e	8d 7d 88	 lea	 edi, DWORD PTR [ebp-120]
  00e91	b9 1b 00 00 00	 mov	 ecx, 27			; 0000001bH
  00e96	b8 cc cc cc cc	 mov	 eax, -858993460		; ccccccccH
  00e9b	f3 ab		 rep stosd
  00e9d	59		 pop	 ecx
  00e9e	a1 00 00 00 00	 mov	 eax, DWORD PTR ___security_cookie
  00ea3	89 45 f0	 mov	 DWORD PTR __$ArrayPad$[ebp], eax
  00ea6	89 4d ec	 mov	 DWORD PTR _this$[ebp], ecx

; 200  : 	CPaintDC dc(this); // device context for painting

  00ea9	8b 45 ec	 mov	 eax, DWORD PTR _this$[ebp]
  00eac	50		 push	 eax
  00ead	8d 4d 94	 lea	 ecx, DWORD PTR _dc$[ebp]
  00eb0	e8 00 00 00 00	 call	 ??0CPaintDC@@QAE@PAVCWnd@@@Z ; CPaintDC::CPaintDC
  00eb5	c7 45 fc 00 00
	00 00		 mov	 DWORD PTR __$EHRec$[ebp+8], 0

; 201  : 	AfxGetUIManager()->UIGetLayoutMgr()->PaintBkGround( m_hWnd ,&dc,false ) ;	

  00ebc	e8 00 00 00 00	 call	 ?AfxGetUIManager@@YAPAVIUIManager@@XZ ; AfxGetUIManager
  00ec1	89 45 8c	 mov	 DWORD PTR tv70[ebp], eax
  00ec4	8b f4		 mov	 esi, esp
  00ec6	8b 4d 8c	 mov	 ecx, DWORD PTR tv70[ebp]
  00ec9	8b 11		 mov	 edx, DWORD PTR [ecx]
  00ecb	8b 4d 8c	 mov	 ecx, DWORD PTR tv70[ebp]
  00ece	ff 52 24	 call	 DWORD PTR [edx+36]
  00ed1	3b f4		 cmp	 esi, esp
  00ed3	e8 00 00 00 00	 call	 __RTC_CheckEsp
  00ed8	89 45 88	 mov	 DWORD PTR tv75[ebp], eax
  00edb	8b f4		 mov	 esi, esp
  00edd	6a 00		 push	 0
  00edf	8d 45 94	 lea	 eax, DWORD PTR _dc$[ebp]
  00ee2	50		 push	 eax
  00ee3	8b 4d ec	 mov	 ecx, DWORD PTR _this$[ebp]
  00ee6	8b 51 20	 mov	 edx, DWORD PTR [ecx+32]
  00ee9	52		 push	 edx
  00eea	8b 45 88	 mov	 eax, DWORD PTR tv75[ebp]
  00eed	8b 10		 mov	 edx, DWORD PTR [eax]
  00eef	8b 4d 88	 mov	 ecx, DWORD PTR tv75[ebp]
  00ef2	ff 52 5c	 call	 DWORD PTR [edx+92]
  00ef5	3b f4		 cmp	 esi, esp
  00ef7	e8 00 00 00 00	 call	 __RTC_CheckEsp

; 202  : }

  00efc	c7 45 fc ff ff
	ff ff		 mov	 DWORD PTR __$EHRec$[ebp+8], -1
  00f03	8d 4d 94	 lea	 ecx, DWORD PTR _dc$[ebp]
  00f06	e8 00 00 00 00	 call	 ??1CPaintDC@@UAE@XZ	; CPaintDC::~CPaintDC
  00f0b	52		 push	 edx
  00f0c	8b cd		 mov	 ecx, ebp
  00f0e	50		 push	 eax
  00f0f	8d 15 00 00 00
	00		 lea	 edx, DWORD PTR $L190001
  00f15	e8 00 00 00 00	 call	 @_RTC_CheckStackVars@8
  00f1a	58		 pop	 eax
  00f1b	5a		 pop	 edx
  00f1c	8b 4d f4	 mov	 ecx, DWORD PTR __$EHRec$[ebp]
  00f1f	64 89 0d 00 00
	00 00		 mov	 DWORD PTR fs:__except_list, ecx
  00f26	8b 4d f0	 mov	 ecx, DWORD PTR __$ArrayPad$[ebp]
  00f29	e8 00 00 00 00	 call	 @__security_check_cookie@4
  00f2e	5f		 pop	 edi
  00f2f	5e		 pop	 esi
  00f30	83 c4 78	 add	 esp, 120		; 00000078H
  00f33	3b ec		 cmp	 ebp, esp
  00f35	e8 00 00 00 00	 call	 __RTC_CheckEsp
  00f3a	8b e5		 mov	 esp, ebp
  00f3c	5d		 pop	 ebp
  00f3d	c3		 ret	 0
$L190001:
  00f3e	01 00 00 00	 DD	 1
  00f42	00 00 00 00	 DD	 $L190000
$L190000:
  00f46	94 ff ff ff	 DD	 -108			; ffffff94H
  00f4a	54 00 00 00	 DD	 84			; 00000054H
  00f4e	00 00 00 00	 DD	 $L189997
$L189997:
  00f52	64		 DB	 100			; 00000064H
  00f53	63		 DB	 99			; 00000063H
  00f54	00		 DB	 0
_TEXT	ENDS
text$x	SEGMENT
$L189994:
  00194	8d 4d 94	 lea	 ecx, DWORD PTR _dc$[ebp]
  00197	e9 00 00 00 00	 jmp	 ??1CPaintDC@@UAE@XZ	; CPaintDC::~CPaintDC
__ehhandler$?OnPaint@CMinOrExit@@QAEXXZ:
  0019c	b8 00 00 00 00	 mov	 eax, OFFSET FLAT:$T189996
  001a1	e9 00 00 00 00	 jmp	 ___CxxFrameHandler
text$x	ENDS
?OnPaint@CMinOrExit@@QAEXXZ ENDP			; CMinOrExit::OnPaint
EXTRN	?OnLButtonUp@CWnd@@IAEXIVCPoint@@@Z:NEAR	; CWnd::OnLButtonUp
EXTRN	__imp__PtInRect@12:NEAR
; Function compile flags: /Odt /RTCsu
_TEXT	SEGMENT
tv129 = -104						; size = 4
$T190006 = -100						; size = 8
$T190005 = -92						; size = 8
$T190004 = -84						; size = 8
_boxRect$ = -72						; size = 16
_rad2Rect$ = -48					; size = 16
_rad1Rect$ = -24					; size = 16
_this$ = -4						; size = 4
_nFlags$ = 8						; size = 4
_point$ = 12						; size = 8
?OnLButtonUp@CMinOrExit@@QAEXIVCPoint@@@Z PROC NEAR	; CMinOrExit::OnLButtonUp
; _this$ = ecx

; 205  : {

  00f60	55		 push	 ebp
  00f61	8b ec		 mov	 ebp, esp
  00f63	83 ec 68	 sub	 esp, 104		; 00000068H
  00f66	56		 push	 esi
  00f67	57		 push	 edi
  00f68	51		 push	 ecx
  00f69	8d 7d 98	 lea	 edi, DWORD PTR [ebp-104]
  00f6c	b9 1a 00 00 00	 mov	 ecx, 26			; 0000001aH
  00f71	b8 cc cc cc cc	 mov	 eax, -858993460		; ccccccccH
  00f76	f3 ab		 rep stosd
  00f78	59		 pop	 ecx
  00f79	89 4d fc	 mov	 DWORD PTR _this$[ebp], ecx

; 206  : 	// TODO: /
; 207  : 
; 208  : 	CRect rad1Rect(24,83,296,95);

  00f7c	6a 5f		 push	 95			; 0000005fH
  00f7e	68 28 01 00 00	 push	 296			; 00000128H
  00f83	6a 53		 push	 83			; 00000053H
  00f85	6a 18		 push	 24			; 00000018H
  00f87	8d 4d e8	 lea	 ecx, DWORD PTR _rad1Rect$[ebp]
  00f8a	e8 00 00 00 00	 call	 ??0CRect@@QAE@HHHH@Z	; CRect::CRect

; 209  : 	CRect rad2Rect(24,104,162,118);

  00f8f	6a 76		 push	 118			; 00000076H
  00f91	68 a2 00 00 00	 push	 162			; 000000a2H
  00f96	6a 68		 push	 104			; 00000068H
  00f98	6a 18		 push	 24			; 00000018H
  00f9a	8d 4d d0	 lea	 ecx, DWORD PTR _rad2Rect$[ebp]
  00f9d	e8 00 00 00 00	 call	 ??0CRect@@QAE@HHHH@Z	; CRect::CRect

; 210  : 	CRect boxRect(10,152,84,170);

  00fa2	68 aa 00 00 00	 push	 170			; 000000aaH
  00fa7	6a 54		 push	 84			; 00000054H
  00fa9	68 98 00 00 00	 push	 152			; 00000098H
  00fae	6a 0a		 push	 10			; 0000000aH
  00fb0	8d 4d b8	 lea	 ecx, DWORD PTR _boxRect$[ebp]
  00fb3	e8 00 00 00 00	 call	 ??0CRect@@QAE@HHHH@Z	; CRect::CRect

; 211  : 	if (PtInRect(&rad1Rect,point))

  00fb8	8b 45 0c	 mov	 eax, DWORD PTR _point$[ebp]
  00fbb	89 45 ac	 mov	 DWORD PTR $T190004[ebp], eax
  00fbe	8b 4d 10	 mov	 ecx, DWORD PTR _point$[ebp+4]
  00fc1	89 4d b0	 mov	 DWORD PTR $T190004[ebp+4], ecx
  00fc4	8b f4		 mov	 esi, esp
  00fc6	8b 55 b0	 mov	 edx, DWORD PTR $T190004[ebp+4]
  00fc9	52		 push	 edx
  00fca	8b 45 ac	 mov	 eax, DWORD PTR $T190004[ebp]
  00fcd	50		 push	 eax
  00fce	8d 4d e8	 lea	 ecx, DWORD PTR _rad1Rect$[ebp]
  00fd1	51		 push	 ecx
  00fd2	ff 15 00 00 00
	00		 call	 DWORD PTR __imp__PtInRect@12
  00fd8	3b f4		 cmp	 esi, esp
  00fda	e8 00 00 00 00	 call	 __RTC_CheckEsp
  00fdf	85 c0		 test	 eax, eax
  00fe1	74 0d		 je	 SHORT $L188781

; 212  : 	{
; 213  : 		CheckRad1();

  00fe3	8b 4d fc	 mov	 ecx, DWORD PTR _this$[ebp]
  00fe6	e8 00 00 00 00	 call	 ?CheckRad1@CMinOrExit@@AAEXXZ ; CMinOrExit::CheckRad1

; 214  : 	}
; 215  : 	else if (PtInRect(&rad2Rect,point))

  00feb	e9 8c 00 00 00	 jmp	 $L188782
$L188781:
  00ff0	8b 55 0c	 mov	 edx, DWORD PTR _point$[ebp]
  00ff3	89 55 a4	 mov	 DWORD PTR $T190005[ebp], edx
  00ff6	8b 45 10	 mov	 eax, DWORD PTR _point$[ebp+4]
  00ff9	89 45 a8	 mov	 DWORD PTR $T190005[ebp+4], eax
  00ffc	8b f4		 mov	 esi, esp
  00ffe	8b 4d a8	 mov	 ecx, DWORD PTR $T190005[ebp+4]
  01001	51		 push	 ecx
  01002	8b 55 a4	 mov	 edx, DWORD PTR $T190005[ebp]
  01005	52		 push	 edx
  01006	8d 45 d0	 lea	 eax, DWORD PTR _rad2Rect$[ebp]
  01009	50		 push	 eax
  0100a	ff 15 00 00 00
	00		 call	 DWORD PTR __imp__PtInRect@12
  01010	3b f4		 cmp	 esi, esp
  01012	e8 00 00 00 00	 call	 __RTC_CheckEsp
  01017	85 c0		 test	 eax, eax
  01019	74 0a		 je	 SHORT $L188784

; 216  : 	{
; 217  : 		CheckRad2();

  0101b	8b 4d fc	 mov	 ecx, DWORD PTR _this$[ebp]
  0101e	e8 00 00 00 00	 call	 ?CheckRad2@CMinOrExit@@AAEXXZ ; CMinOrExit::CheckRad2

; 218  : 	}
; 219  : 	else if(PtInRect(&boxRect,point))

  01023	eb 57		 jmp	 SHORT $L188782
$L188784:
  01025	8b 4d 0c	 mov	 ecx, DWORD PTR _point$[ebp]
  01028	89 4d 9c	 mov	 DWORD PTR $T190006[ebp], ecx
  0102b	8b 55 10	 mov	 edx, DWORD PTR _point$[ebp+4]
  0102e	89 55 a0	 mov	 DWORD PTR $T190006[ebp+4], edx
  01031	8b f4		 mov	 esi, esp
  01033	8b 45 a0	 mov	 eax, DWORD PTR $T190006[ebp+4]
  01036	50		 push	 eax
  01037	8b 4d 9c	 mov	 ecx, DWORD PTR $T190006[ebp]
  0103a	51		 push	 ecx
  0103b	8d 55 b8	 lea	 edx, DWORD PTR _boxRect$[ebp]
  0103e	52		 push	 edx
  0103f	ff 15 00 00 00
	00		 call	 DWORD PTR __imp__PtInRect@12
  01045	3b f4		 cmp	 esi, esp
  01047	e8 00 00 00 00	 call	 __RTC_CheckEsp
  0104c	85 c0		 test	 eax, eax
  0104e	74 2c		 je	 SHORT $L188782

; 220  : 	{
; 221  : 		m_chkBox?UnCheckBox():CheckBox();

  01050	8b 45 fc	 mov	 eax, DWORD PTR _this$[ebp]
  01053	83 b8 bc 0a 00
	00 00		 cmp	 DWORD PTR [eax+2748], 0
  0105a	74 11		 je	 SHORT $L190007
  0105c	8b 4d fc	 mov	 ecx, DWORD PTR _this$[ebp]
  0105f	e8 00 00 00 00	 call	 ?UnCheckBox@CMinOrExit@@AAEXXZ ; CMinOrExit::UnCheckBox
  01064	c7 45 98 00 00
	00 00		 mov	 DWORD PTR tv129[ebp], 0
  0106b	eb 0f		 jmp	 SHORT $L188782
$L190007:
  0106d	8b 4d fc	 mov	 ecx, DWORD PTR _this$[ebp]
  01070	e8 00 00 00 00	 call	 ?CheckBox@CMinOrExit@@AAEXXZ ; CMinOrExit::CheckBox
  01075	c7 45 98 00 00
	00 00		 mov	 DWORD PTR tv129[ebp], 0
$L188782:

; 222  : 	}
; 223  : 
; 224  : 	CDialog::OnLButtonUp(nFlags, point);

  0107c	8b 4d 10	 mov	 ecx, DWORD PTR _point$[ebp+4]
  0107f	51		 push	 ecx
  01080	8b 55 0c	 mov	 edx, DWORD PTR _point$[ebp]
  01083	52		 push	 edx
  01084	8b 45 08	 mov	 eax, DWORD PTR _nFlags$[ebp]
  01087	50		 push	 eax
  01088	8b 4d fc	 mov	 ecx, DWORD PTR _this$[ebp]
  0108b	e8 00 00 00 00	 call	 ?OnLButtonUp@CWnd@@IAEXIVCPoint@@@Z ; CWnd::OnLButtonUp

; 225  : }

  01090	52		 push	 edx
  01091	8b cd		 mov	 ecx, ebp
  01093	50		 push	 eax
  01094	8d 15 00 00 00
	00		 lea	 edx, DWORD PTR $L190013
  0109a	e8 00 00 00 00	 call	 @_RTC_CheckStackVars@8
  0109f	58		 pop	 eax
  010a0	5a		 pop	 edx
  010a1	5f		 pop	 edi
  010a2	5e		 pop	 esi
  010a3	83 c4 68	 add	 esp, 104		; 00000068H
  010a6	3b ec		 cmp	 ebp, esp
  010a8	e8 00 00 00 00	 call	 __RTC_CheckEsp
  010ad	8b e5		 mov	 esp, ebp
  010af	5d		 pop	 ebp
  010b0	c2 0c 00	 ret	 12			; 0000000cH
$L190013:
  010b3	03 00 00 00	 DD	 3
  010b7	00 00 00 00	 DD	 $L190012
$L190012:
  010bb	e8 ff ff ff	 DD	 -24			; ffffffe8H
  010bf	10 00 00 00	 DD	 16			; 00000010H
  010c3	00 00 00 00	 DD	 $L190009
  010c7	d0 ff ff ff	 DD	 -48			; ffffffd0H
  010cb	10 00 00 00	 DD	 16			; 00000010H
  010cf	00 00 00 00	 DD	 $L190010
  010d3	b8 ff ff ff	 DD	 -72			; ffffffb8H
  010d7	10 00 00 00	 DD	 16			; 00000010H
  010db	00 00 00 00	 DD	 $L190011
$L190011:
  010df	62		 DB	 98			; 00000062H
  010e0	6f		 DB	 111			; 0000006fH
  010e1	78		 DB	 120			; 00000078H
  010e2	52		 DB	 82			; 00000052H
  010e3	65		 DB	 101			; 00000065H
  010e4	63		 DB	 99			; 00000063H
  010e5	74		 DB	 116			; 00000074H
  010e6	00		 DB	 0
$L190010:
  010e7	72		 DB	 114			; 00000072H
  010e8	61		 DB	 97			; 00000061H
  010e9	64		 DB	 100			; 00000064H
  010ea	32		 DB	 50			; 00000032H
  010eb	52		 DB	 82			; 00000052H
  010ec	65		 DB	 101			; 00000065H
  010ed	63		 DB	 99			; 00000063H
  010ee	74		 DB	 116			; 00000074H
  010ef	00		 DB	 0
$L190009:
  010f0	72		 DB	 114			; 00000072H
  010f1	61		 DB	 97			; 00000061H
  010f2	64		 DB	 100			; 00000064H
  010f3	31		 DB	 49			; 00000031H
  010f4	52		 DB	 82			; 00000052H
  010f5	65		 DB	 101			; 00000065H
  010f6	63		 DB	 99			; 00000063H
  010f7	74		 DB	 116			; 00000074H
  010f8	00		 DB	 0
?OnLButtonUp@CMinOrExit@@QAEXIVCPoint@@@Z ENDP		; CMinOrExit::OnLButtonUp
_TEXT	ENDS
EXTRN	?OnNcHitTest@CWnd@@IAEIVCPoint@@@Z:NEAR		; CWnd::OnNcHitTest
EXTRN	?PtInRect@CRect@@QBEHUtagPOINT@@@Z:NEAR		; CRect::PtInRect
EXTRN	?GetClientRect@CWnd@@QBEXPAUtagRECT@@@Z:NEAR	; CWnd::GetClientRect
EXTRN	?ClientToScreen@CWnd@@QBEXPAUtagRECT@@@Z:NEAR	; CWnd::ClientToScreen
; Function compile flags: /Odt /RTCsu
_TEXT	SEGMENT
tv77 = -40						; size = 4
$T190015 = -36						; size = 8
_rc$ = -24						; size = 16
_this$ = -4						; size = 4
_point$ = 8						; size = 8
?OnNcHitTest@CMinOrExit@@QAEIVCPoint@@@Z PROC NEAR	; CMinOrExit::OnNcHitTest
; _this$ = ecx

; 228  : {

  01100	55		 push	 ebp
  01101	8b ec		 mov	 ebp, esp
  01103	83 ec 28	 sub	 esp, 40			; 00000028H
  01106	57		 push	 edi
  01107	51		 push	 ecx
  01108	8d 7d d8	 lea	 edi, DWORD PTR [ebp-40]
  0110b	b9 0a 00 00 00	 mov	 ecx, 10			; 0000000aH
  01110	b8 cc cc cc cc	 mov	 eax, -858993460		; ccccccccH
  01115	f3 ab		 rep stosd
  01117	59		 pop	 ecx
  01118	89 4d fc	 mov	 DWORD PTR _this$[ebp], ecx

; 229  : 	// TODO: /
; 230  : 
; 231  : 	CRect rc;

  0111b	8d 4d e8	 lea	 ecx, DWORD PTR _rc$[ebp]
  0111e	e8 00 00 00 00	 call	 ??0CRect@@QAE@XZ	; CRect::CRect

; 232  : 	GetClientRect(&rc);

  01123	8d 45 e8	 lea	 eax, DWORD PTR _rc$[ebp]
  01126	50		 push	 eax
  01127	8b 4d fc	 mov	 ecx, DWORD PTR _this$[ebp]
  0112a	e8 00 00 00 00	 call	 ?GetClientRect@CWnd@@QBEXPAUtagRECT@@@Z ; CWnd::GetClientRect

; 233  : 	ClientToScreen(&rc);

  0112f	8d 4d e8	 lea	 ecx, DWORD PTR _rc$[ebp]
  01132	51		 push	 ecx
  01133	8b 4d fc	 mov	 ecx, DWORD PTR _this$[ebp]
  01136	e8 00 00 00 00	 call	 ?ClientToScreen@CWnd@@QBEXPAUtagRECT@@@Z ; CWnd::ClientToScreen

; 234  : 	rc.bottom=rc.top+29;

  0113b	8b 55 ec	 mov	 edx, DWORD PTR _rc$[ebp+4]
  0113e	83 c2 1d	 add	 edx, 29			; 0000001dH
  01141	89 55 f4	 mov	 DWORD PTR _rc$[ebp+12], edx

; 235  : 	return rc.PtInRect(point)?HTCAPTION:CDialog::OnNcHitTest(point);

  01144	8b 45 08	 mov	 eax, DWORD PTR _point$[ebp]
  01147	89 45 dc	 mov	 DWORD PTR $T190015[ebp], eax
  0114a	8b 4d 0c	 mov	 ecx, DWORD PTR _point$[ebp+4]
  0114d	89 4d e0	 mov	 DWORD PTR $T190015[ebp+4], ecx
  01150	8b 55 e0	 mov	 edx, DWORD PTR $T190015[ebp+4]
  01153	52		 push	 edx
  01154	8b 45 dc	 mov	 eax, DWORD PTR $T190015[ebp]
  01157	50		 push	 eax
  01158	8d 4d e8	 lea	 ecx, DWORD PTR _rc$[ebp]
  0115b	e8 00 00 00 00	 call	 ?PtInRect@CRect@@QBEHUtagPOINT@@@Z ; CRect::PtInRect
  01160	85 c0		 test	 eax, eax
  01162	74 09		 je	 SHORT $L190016
  01164	c7 45 d8 02 00
	00 00		 mov	 DWORD PTR tv77[ebp], 2
  0116b	eb 13		 jmp	 SHORT $L190017
$L190016:
  0116d	8b 4d 0c	 mov	 ecx, DWORD PTR _point$[ebp+4]
  01170	51		 push	 ecx
  01171	8b 55 08	 mov	 edx, DWORD PTR _point$[ebp]
  01174	52		 push	 edx
  01175	8b 4d fc	 mov	 ecx, DWORD PTR _this$[ebp]
  01178	e8 00 00 00 00	 call	 ?OnNcHitTest@CWnd@@IAEIVCPoint@@@Z ; CWnd::OnNcHitTest
  0117d	89 45 d8	 mov	 DWORD PTR tv77[ebp], eax
$L190017:
  01180	8b 45 d8	 mov	 eax, DWORD PTR tv77[ebp]

; 236  : }

  01183	52		 push	 edx
  01184	8b cd		 mov	 ecx, ebp
  01186	50		 push	 eax
  01187	8d 15 00 00 00
	00		 lea	 edx, DWORD PTR $L190020
  0118d	e8 00 00 00 00	 call	 @_RTC_CheckStackVars@8
  01192	58		 pop	 eax
  01193	5a		 pop	 edx
  01194	5f		 pop	 edi
  01195	83 c4 28	 add	 esp, 40			; 00000028H
  01198	3b ec		 cmp	 ebp, esp
  0119a	e8 00 00 00 00	 call	 __RTC_CheckEsp
  0119f	8b e5		 mov	 esp, ebp
  011a1	5d		 pop	 ebp
  011a2	c2 08 00	 ret	 8
$L190020:
  011a5	01 00 00 00	 DD	 1
  011a9	00 00 00 00	 DD	 $L190019
$L190019:
  011ad	e8 ff ff ff	 DD	 -24			; ffffffe8H
  011b1	10 00 00 00	 DD	 16			; 00000010H
  011b5	00 00 00 00	 DD	 $L190018
$L190018:
  011b9	72		 DB	 114			; 00000072H
  011ba	63		 DB	 99			; 00000063H
  011bb	00		 DB	 0
?OnNcHitTest@CMinOrExit@@QAEIVCPoint@@@Z ENDP		; CMinOrExit::OnNcHitTest
_TEXT	ENDS
EXTRN	?SetConfigBoolValue@AfxUserConfig@@QAEXABV?$basic_string@DU?$char_traits@D@std@@V?$allocator@D@2@@std@@0_N1@Z:NEAR ; AfxUserConfig::SetConfigBoolValue
EXTRN	?OnOK@CDialog@@MAEXXZ:NEAR			; CDialog::OnOK
xdata$x	SEGMENT
$T190033 DD	0ffffffffH
	DD	FLAT:$L190026
	DD	00H
	DD	FLAT:$L190027
	DD	0ffffffffH
	DD	FLAT:$L190028
	DD	02H
	DD	FLAT:$L190029
$T190031 DD	019930520H
	DD	04H
	DD	FLAT:$T190033
	DD	2 DUP(00H)
	DD	2 DUP(00H)
; Function compile flags: /Odt /RTCsu
xdata$x	ENDS
_TEXT	SEGMENT
$T190025 = -132						; size = 28
$T190024 = -104						; size = 28
$T190023 = -76						; size = 28
$T190022 = -48						; size = 28
_exitchoice$ = -18					; size = 1
_askexit$ = -17						; size = 1
_this$ = -16						; size = 4
__$EHRec$ = -12						; size = 12
?OnOK@CMinOrExit@@MAEXXZ PROC NEAR			; CMinOrExit::OnOK
; _this$ = ecx

; 239  : {

  011c0	55		 push	 ebp
  011c1	8b ec		 mov	 ebp, esp
  011c3	6a ff		 push	 -1
  011c5	68 00 00 00 00	 push	 __ehhandler$?OnOK@CMinOrExit@@MAEXXZ
  011ca	64 a1 00 00 00
	00		 mov	 eax, DWORD PTR fs:__except_list
  011d0	50		 push	 eax
  011d1	64 89 25 00 00
	00 00		 mov	 DWORD PTR fs:__except_list, esp
  011d8	83 ec 78	 sub	 esp, 120		; 00000078H
  011db	56		 push	 esi
  011dc	57		 push	 edi
  011dd	51		 push	 ecx
  011de	8d bd 7c ff ff
	ff		 lea	 edi, DWORD PTR [ebp-132]
  011e4	b9 1e 00 00 00	 mov	 ecx, 30			; 0000001eH
  011e9	b8 cc cc cc cc	 mov	 eax, -858993460		; ccccccccH
  011ee	f3 ab		 rep stosd
  011f0	59		 pop	 ecx
  011f1	89 4d f0	 mov	 DWORD PTR _this$[ebp], ecx

; 240  : 	// TODO: /
; 241  : 	bool askexit,exitchoice;
; 242  : 	ShowWindow(SW_HIDE);

  011f4	6a 00		 push	 0
  011f6	8b 4d f0	 mov	 ecx, DWORD PTR _this$[ebp]
  011f9	e8 00 00 00 00	 call	 ?ShowWindow@CWnd@@QAEHH@Z ; CWnd::ShowWindow

; 243  : 	askexit=m_chkBox;

  011fe	8b 45 f0	 mov	 eax, DWORD PTR _this$[ebp]
  01201	83 b8 bc 0a 00
	00 00		 cmp	 DWORD PTR [eax+2748], 0
  01208	0f 95 c1	 setne	 cl
  0120b	88 4d ef	 mov	 BYTE PTR _askexit$[ebp], cl

; 244  : 	exitchoice=m_chkRad;

  0120e	8b 55 f0	 mov	 edx, DWORD PTR _this$[ebp]
  01211	83 ba b8 0a 00
	00 00		 cmp	 DWORD PTR [edx+2744], 0
  01218	0f 95 c0	 setne	 al
  0121b	88 45 ee	 mov	 BYTE PTR _exitchoice$[ebp], al

; 245  : 	AfxGetUserConfig()->SetConfigBoolValue( CONF_SETTING_MODULE_NAME,CONF_SETTING_CONFIG_IFASKEXIT,askexit);

  0121e	8b f4		 mov	 esi, esp
  01220	8b 0d 00 00 00
	00		 mov	 ecx, DWORD PTR _CONF_SETTING_CONFIG_IFASKEXIT
  01226	51		 push	 ecx
  01227	8d 4d d0	 lea	 ecx, DWORD PTR $T190022[ebp]
  0122a	ff 15 00 00 00
	00		 call	 DWORD PTR __imp_??0?$basic_string@DU?$char_traits@D@std@@V?$allocator@D@2@@std@@QAE@PBD@Z
  01230	3b f4		 cmp	 esi, esp
  01232	e8 00 00 00 00	 call	 __RTC_CheckEsp
  01237	c7 45 fc 00 00
	00 00		 mov	 DWORD PTR __$EHRec$[ebp+8], 0
  0123e	8b f4		 mov	 esi, esp
  01240	8b 15 00 00 00
	00		 mov	 edx, DWORD PTR _CONF_SETTING_MODULE_NAME
  01246	52		 push	 edx
  01247	8d 4d b4	 lea	 ecx, DWORD PTR $T190023[ebp]
  0124a	ff 15 00 00 00
	00		 call	 DWORD PTR __imp_??0?$basic_string@DU?$char_traits@D@std@@V?$allocator@D@2@@std@@QAE@PBD@Z
  01250	3b f4		 cmp	 esi, esp
  01252	e8 00 00 00 00	 call	 __RTC_CheckEsp
  01257	c6 45 fc 01	 mov	 BYTE PTR __$EHRec$[ebp+8], 1
  0125b	6a 00		 push	 0
  0125d	8a 45 ef	 mov	 al, BYTE PTR _askexit$[ebp]
  01260	50		 push	 eax
  01261	8d 4d d0	 lea	 ecx, DWORD PTR $T190022[ebp]
  01264	51		 push	 ecx
  01265	8d 55 b4	 lea	 edx, DWORD PTR $T190023[ebp]
  01268	52		 push	 edx
  01269	e8 00 00 00 00	 call	 ?AfxGetUserConfig@@YAPAVAfxUserConfig@@XZ ; AfxGetUserConfig
  0126e	8b c8		 mov	 ecx, eax
  01270	e8 00 00 00 00	 call	 ?SetConfigBoolValue@AfxUserConfig@@QAEXABV?$basic_string@DU?$char_traits@D@std@@V?$allocator@D@2@@std@@0_N1@Z ; AfxUserConfig::SetConfigBoolValue
  01275	c6 45 fc 00	 mov	 BYTE PTR __$EHRec$[ebp+8], 0
  01279	8b f4		 mov	 esi, esp
  0127b	8d 4d b4	 lea	 ecx, DWORD PTR $T190023[ebp]
  0127e	ff 15 00 00 00
	00		 call	 DWORD PTR __imp_??1?$basic_string@DU?$char_traits@D@std@@V?$allocator@D@2@@std@@QAE@XZ
  01284	3b f4		 cmp	 esi, esp
  01286	e8 00 00 00 00	 call	 __RTC_CheckEsp
  0128b	c7 45 fc ff ff
	ff ff		 mov	 DWORD PTR __$EHRec$[ebp+8], -1
  01292	8b f4		 mov	 esi, esp
  01294	8d 4d d0	 lea	 ecx, DWORD PTR $T190022[ebp]
  01297	ff 15 00 00 00
	00		 call	 DWORD PTR __imp_??1?$basic_string@DU?$char_traits@D@std@@V?$allocator@D@2@@std@@QAE@XZ
  0129d	3b f4		 cmp	 esi, esp
  0129f	e8 00 00 00 00	 call	 __RTC_CheckEsp

; 246  : 	AfxGetUserConfig()->SetConfigBoolValue( CONF_SETTING_MODULE_NAME,CONF_SETTING_CONFIG_EXITCHOICE,exitchoice);

  012a4	8b f4		 mov	 esi, esp
  012a6	a1 00 00 00 00	 mov	 eax, DWORD PTR _CONF_SETTING_CONFIG_EXITCHOICE
  012ab	50		 push	 eax
  012ac	8d 4d 98	 lea	 ecx, DWORD PTR $T190024[ebp]
  012af	ff 15 00 00 00
	00		 call	 DWORD PTR __imp_??0?$basic_string@DU?$char_traits@D@std@@V?$allocator@D@2@@std@@QAE@PBD@Z
  012b5	3b f4		 cmp	 esi, esp
  012b7	e8 00 00 00 00	 call	 __RTC_CheckEsp
  012bc	c7 45 fc 02 00
	00 00		 mov	 DWORD PTR __$EHRec$[ebp+8], 2
  012c3	8b f4		 mov	 esi, esp
  012c5	8b 0d 00 00 00
	00		 mov	 ecx, DWORD PTR _CONF_SETTING_MODULE_NAME
  012cb	51		 push	 ecx
  012cc	8d 8d 7c ff ff
	ff		 lea	 ecx, DWORD PTR $T190025[ebp]
  012d2	ff 15 00 00 00
	00		 call	 DWORD PTR __imp_??0?$basic_string@DU?$char_traits@D@std@@V?$allocator@D@2@@std@@QAE@PBD@Z
  012d8	3b f4		 cmp	 esi, esp
  012da	e8 00 00 00 00	 call	 __RTC_CheckEsp
  012df	c6 45 fc 03	 mov	 BYTE PTR __$EHRec$[ebp+8], 3
  012e3	6a 00		 push	 0
  012e5	8a 55 ee	 mov	 dl, BYTE PTR _exitchoice$[ebp]
  012e8	52		 push	 edx
  012e9	8d 45 98	 lea	 eax, DWORD PTR $T190024[ebp]
  012ec	50		 push	 eax
  012ed	8d 8d 7c ff ff
	ff		 lea	 ecx, DWORD PTR $T190025[ebp]
  012f3	51		 push	 ecx
  012f4	e8 00 00 00 00	 call	 ?AfxGetUserConfig@@YAPAVAfxUserConfig@@XZ ; AfxGetUserConfig
  012f9	8b c8		 mov	 ecx, eax
  012fb	e8 00 00 00 00	 call	 ?SetConfigBoolValue@AfxUserConfig@@QAEXABV?$basic_string@DU?$char_traits@D@std@@V?$allocator@D@2@@std@@0_N1@Z ; AfxUserConfig::SetConfigBoolValue
  01300	c6 45 fc 02	 mov	 BYTE PTR __$EHRec$[ebp+8], 2
  01304	8b f4		 mov	 esi, esp
  01306	8d 8d 7c ff ff
	ff		 lea	 ecx, DWORD PTR $T190025[ebp]
  0130c	ff 15 00 00 00
	00		 call	 DWORD PTR __imp_??1?$basic_string@DU?$char_traits@D@std@@V?$allocator@D@2@@std@@QAE@XZ
  01312	3b f4		 cmp	 esi, esp
  01314	e8 00 00 00 00	 call	 __RTC_CheckEsp
  01319	c7 45 fc ff ff
	ff ff		 mov	 DWORD PTR __$EHRec$[ebp+8], -1
  01320	8b f4		 mov	 esi, esp
  01322	8d 4d 98	 lea	 ecx, DWORD PTR $T190024[ebp]
  01325	ff 15 00 00 00
	00		 call	 DWORD PTR __imp_??1?$basic_string@DU?$char_traits@D@std@@V?$allocator@D@2@@std@@QAE@XZ
  0132b	3b f4		 cmp	 esi, esp
  0132d	e8 00 00 00 00	 call	 __RTC_CheckEsp

; 247  : 
; 248  : 	CDialog::OnOK();

  01332	8b 4d f0	 mov	 ecx, DWORD PTR _this$[ebp]
  01335	e8 00 00 00 00	 call	 ?OnOK@CDialog@@MAEXXZ	; CDialog::OnOK

; 249  : }

  0133a	8b 4d f4	 mov	 ecx, DWORD PTR __$EHRec$[ebp]
  0133d	64 89 0d 00 00
	00 00		 mov	 DWORD PTR fs:__except_list, ecx
  01344	5f		 pop	 edi
  01345	5e		 pop	 esi
  01346	81 c4 84 00 00
	00		 add	 esp, 132		; 00000084H
  0134c	3b ec		 cmp	 ebp, esp
  0134e	e8 00 00 00 00	 call	 __RTC_CheckEsp
  01353	8b e5		 mov	 esp, ebp
  01355	5d		 pop	 ebp
  01356	c3		 ret	 0
_TEXT	ENDS
text$x	SEGMENT
$L190026:
  001a6	8b f4		 mov	 esi, esp
  001a8	8d 4d d0	 lea	 ecx, DWORD PTR $T190022[ebp]
  001ab	ff 15 00 00 00
	00		 call	 DWORD PTR __imp_??1?$basic_string@DU?$char_traits@D@std@@V?$allocator@D@2@@std@@QAE@XZ
  001b1	3b f4		 cmp	 esi, esp
  001b3	e9 00 00 00 00	 jmp	 __RTC_CheckEsp
$L190027:
  001b8	8b f4		 mov	 esi, esp
  001ba	8d 4d b4	 lea	 ecx, DWORD PTR $T190023[ebp]
  001bd	ff 15 00 00 00
	00		 call	 DWORD PTR __imp_??1?$basic_string@DU?$char_traits@D@std@@V?$allocator@D@2@@std@@QAE@XZ
  001c3	3b f4		 cmp	 esi, esp
  001c5	e9 00 00 00 00	 jmp	 __RTC_CheckEsp
$L190028:
  001ca	8b f4		 mov	 esi, esp
  001cc	8d 4d 98	 lea	 ecx, DWORD PTR $T190024[ebp]
  001cf	ff 15 00 00 00
	00		 call	 DWORD PTR __imp_??1?$basic_string@DU?$char_traits@D@std@@V?$allocator@D@2@@std@@QAE@XZ
  001d5	3b f4		 cmp	 esi, esp
  001d7	e9 00 00 00 00	 jmp	 __RTC_CheckEsp
$L190029:
  001dc	8b f4		 mov	 esi, esp
  001de	8d 8d 7c ff ff
	ff		 lea	 ecx, DWORD PTR $T190025[ebp]
  001e4	ff 15 00 00 00
	00		 call	 DWORD PTR __imp_??1?$basic_string@DU?$char_traits@D@std@@V?$allocator@D@2@@std@@QAE@XZ
  001ea	3b f4		 cmp	 esi, esp
  001ec	e9 00 00 00 00	 jmp	 __RTC_CheckEsp
__ehhandler$?OnOK@CMinOrExit@@MAEXXZ:
  001f1	b8 00 00 00 00	 mov	 eax, OFFSET FLAT:$T190031
  001f6	e9 00 00 00 00	 jmp	 ___CxxFrameHandler
text$x	ENDS
?OnOK@CMinOrExit@@MAEXXZ ENDP				; CMinOrExit::OnOK
CRT$XCU	SEGMENT
_$S6	DD	FLAT:_$E5
; Function compile flags: /Odt /RTCsu
; File d:\boxgit\playbox\playbox\dev\prj\playbox\src\appconfig\config\configsettingdef.h
CRT$XCU	ENDS
;	COMDAT _$E5
text$yc	SEGMENT
_$E5	PROC NEAR					; COMDAT

; 25   : 	CONF_SETTING_SKIN_IDX,				TYPE_CONFIG_STR,

  00000	55		 push	 ebp
  00001	8b ec		 mov	 ebp, esp
  00003	a1 00 00 00 00	 mov	 eax, DWORD PTR _CONF_SETTING_SKIN_IDX
  00008	a3 00 00 00 00	 mov	 DWORD PTR _CONF_SETTING, eax
  0000d	8b 0d 00 00 00
	00		 mov	 ecx, DWORD PTR _TYPE_CONFIG_STR
  00013	89 0d 04 00 00
	00		 mov	 DWORD PTR _CONF_SETTING+4, ecx

; 26   : 	CONF_SETTING_CONFIG_MAIN_PAGE,		TYPE_CONFIG_STR,

  00019	8b 15 00 00 00
	00		 mov	 edx, DWORD PTR _CONF_SETTING_CONFIG_MAIN_PAGE
  0001f	89 15 08 00 00
	00		 mov	 DWORD PTR _CONF_SETTING+8, edx
  00025	a1 00 00 00 00	 mov	 eax, DWORD PTR _TYPE_CONFIG_STR
  0002a	a3 0c 00 00 00	 mov	 DWORD PTR _CONF_SETTING+12, eax

; 27   : 	CONF_SETTING_CONFIG_PROBLEM_REPORT,	TYPE_CONFIG_STR,

  0002f	8b 0d 00 00 00
	00		 mov	 ecx, DWORD PTR _CONF_SETTING_CONFIG_PROBLEM_REPORT
  00035	89 0d 10 00 00
	00		 mov	 DWORD PTR _CONF_SETTING+16, ecx
  0003b	8b 15 00 00 00
	00		 mov	 edx, DWORD PTR _TYPE_CONFIG_STR
  00041	89 15 14 00 00
	00		 mov	 DWORD PTR _CONF_SETTING+20, edx

; 28   : 	CONF_SETTING_CONFIG_HOME_PAGE,		TYPE_CONFIG_STR,

  00047	a1 00 00 00 00	 mov	 eax, DWORD PTR _CONF_SETTING_CONFIG_HOME_PAGE
  0004c	a3 18 00 00 00	 mov	 DWORD PTR _CONF_SETTING+24, eax
  00051	8b 0d 00 00 00
	00		 mov	 ecx, DWORD PTR _TYPE_CONFIG_STR
  00057	89 0d 1c 00 00
	00		 mov	 DWORD PTR _CONF_SETTING+28, ecx

; 29   : 	CONF_SETTING_CONFIG_IFASKEXIT,		TYPE_CONFIG_BOOL,

  0005d	8b 15 00 00 00
	00		 mov	 edx, DWORD PTR _CONF_SETTING_CONFIG_IFASKEXIT
  00063	89 15 20 00 00
	00		 mov	 DWORD PTR _CONF_SETTING+32, edx
  00069	a1 00 00 00 00	 mov	 eax, DWORD PTR _TYPE_CONFIG_BOOL
  0006e	a3 24 00 00 00	 mov	 DWORD PTR _CONF_SETTING+36, eax

; 30   : 	CONF_SETTING_CONFIG_EXITCHOICE,		TYPE_CONFIG_BOOL,

  00073	8b 0d 00 00 00
	00		 mov	 ecx, DWORD PTR _CONF_SETTING_CONFIG_EXITCHOICE
  00079	89 0d 28 00 00
	00		 mov	 DWORD PTR _CONF_SETTING+40, ecx
  0007f	8b 15 00 00 00
	00		 mov	 edx, DWORD PTR _TYPE_CONFIG_BOOL
  00085	89 15 2c 00 00
	00		 mov	 DWORD PTR _CONF_SETTING+44, edx

; 31   : 	CONF_SETTING_LOGIN_USER_NAME,		TYPE_CONFIG_STR,

  0008b	a1 00 00 00 00	 mov	 eax, DWORD PTR _CONF_SETTING_LOGIN_USER_NAME
  00090	a3 30 00 00 00	 mov	 DWORD PTR _CONF_SETTING+48, eax
  00095	8b 0d 00 00 00
	00		 mov	 ecx, DWORD PTR _TYPE_CONFIG_STR
  0009b	89 0d 34 00 00
	00		 mov	 DWORD PTR _CONF_SETTING+52, ecx

; 32   : 	CONF_SETTING_LOGIN_PASSWORD,		TYPE_CONFIG_STR,

  000a1	8b 15 00 00 00
	00		 mov	 edx, DWORD PTR _CONF_SETTING_LOGIN_PASSWORD
  000a7	89 15 38 00 00
	00		 mov	 DWORD PTR _CONF_SETTING+56, edx
  000ad	a1 00 00 00 00	 mov	 eax, DWORD PTR _TYPE_CONFIG_STR
  000b2	a3 3c 00 00 00	 mov	 DWORD PTR _CONF_SETTING+60, eax

; 33   : 	CONF_SETTING_NETID,					TYPE_CONFIG_STR,

  000b7	8b 0d 00 00 00
	00		 mov	 ecx, DWORD PTR _CONF_SETTING_NETID
  000bd	89 0d 40 00 00
	00		 mov	 DWORD PTR _CONF_SETTING+64, ecx
  000c3	8b 15 00 00 00
	00		 mov	 edx, DWORD PTR _TYPE_CONFIG_STR
  000c9	89 15 44 00 00
	00		 mov	 DWORD PTR _CONF_SETTING+68, edx

; 34   : 	CONF_SETTING_COLOR,					TYPE_CONFIG_INT,

  000cf	a1 00 00 00 00	 mov	 eax, DWORD PTR _CONF_SETTING_COLOR
  000d4	a3 48 00 00 00	 mov	 DWORD PTR _CONF_SETTING+72, eax
  000d9	8b 0d 00 00 00
	00		 mov	 ecx, DWORD PTR _TYPE_CONFIG_INT
  000df	89 0d 4c 00 00
	00		 mov	 DWORD PTR _CONF_SETTING+76, ecx

; 35   : 	CONF_SETTING_LIGHT,					TYPE_CONFIG_INT,

  000e5	8b 15 00 00 00
	00		 mov	 edx, DWORD PTR _CONF_SETTING_LIGHT
  000eb	89 15 50 00 00
	00		 mov	 DWORD PTR _CONF_SETTING+80, edx
  000f1	a1 00 00 00 00	 mov	 eax, DWORD PTR _TYPE_CONFIG_INT
  000f6	a3 54 00 00 00	 mov	 DWORD PTR _CONF_SETTING+84, eax

; 36   : 	CONF_SETTING_COLOR_BTN_INDEX,		TYPE_CONFIG_INT,

  000fb	8b 0d 00 00 00
	00		 mov	 ecx, DWORD PTR _CONF_SETTING_COLOR_BTN_INDEX
  00101	89 0d 58 00 00
	00		 mov	 DWORD PTR _CONF_SETTING+88, ecx
  00107	8b 15 00 00 00
	00		 mov	 edx, DWORD PTR _TYPE_CONFIG_INT
  0010d	89 15 5c 00 00
	00		 mov	 DWORD PTR _CONF_SETTING+92, edx

; 37   : 	CONF_SETTING_COLOR_USER,			TYPE_CONFIG_INT,

  00113	a1 00 00 00 00	 mov	 eax, DWORD PTR _CONF_SETTING_COLOR_USER
  00118	a3 60 00 00 00	 mov	 DWORD PTR _CONF_SETTING+96, eax
  0011d	8b 0d 00 00 00
	00		 mov	 ecx, DWORD PTR _TYPE_CONFIG_INT
  00123	89 0d 64 00 00
	00		 mov	 DWORD PTR _CONF_SETTING+100, ecx

; 38   : 	CONF_SETTING_FIRST_TIME_CHANGESKIN, TYPE_CONFIG_BOOL

  00129	8b 15 00 00 00
	00		 mov	 edx, DWORD PTR _CONF_SETTING_FIRST_TIME_CHANGESKIN
  0012f	89 15 68 00 00
	00		 mov	 DWORD PTR _CONF_SETTING+104, edx

; 39   : };

  00135	a1 00 00 00 00	 mov	 eax, DWORD PTR _TYPE_CONFIG_BOOL
  0013a	a3 6c 00 00 00	 mov	 DWORD PTR _CONF_SETTING+108, eax
  0013f	5d		 pop	 ebp
  00140	c3		 ret	 0
_$E5	ENDP
text$yc	ENDS
_BSS	SEGMENT
_CONF_SETTING DD 01cH DUP (?)
_BSS	ENDS
END
