; Listing generated by Microsoft (R) Optimizing Compiler Version 13.10.3077 

	TITLE	.\src\util\Mixer.cpp
	.386P
include listing.inc
if @Version gt 510
.model FLAT
else
_TEXT	SEGMENT PARA USE32 PUBLIC 'CODE'
_TEXT	ENDS
_DATA	SEGMENT DWORD USE32 PUBLIC 'DATA'
_DATA	ENDS
CONST	SEGMENT DWORD USE32 PUBLIC 'CONST'
CONST	ENDS
_BSS	SEGMENT DWORD USE32 PUBLIC 'BSS'
_BSS	ENDS
$$SYMBOLS	SEGMENT BYTE USE32 'DEBSYM'
$$SYMBOLS	ENDS
_TLS	SEGMENT DWORD USE32 PUBLIC 'TLS'
_TLS	ENDS
;	COMDAT ??_C@_0EN@IBFBLEEG@D?3?2Program?5Files?5?$CIx86?$CJ?2Microsoft@
CONST	SEGMENT DWORD USE32 PUBLIC 'CONST'
CONST	ENDS
rdata$r	SEGMENT DWORD USE32 PUBLIC 'CONST'
rdata$r	ENDS
xdata$x	SEGMENT DWORD USE32 PUBLIC 'CONST'
xdata$x	ENDS
text$AFX_COL1	SEGMENT PARA USE32 PUBLIC ''
text$AFX_COL1	ENDS
text$yc	SEGMENT PARA USE32 PUBLIC 'CODE'
text$yc	ENDS
CRT$XCA	SEGMENT DWORD USE32 PUBLIC 'DATA'
CRT$XCA	ENDS
CRT$XCU	SEGMENT DWORD USE32 PUBLIC 'DATA'
CRT$XCU	ENDS
CRT$XCL	SEGMENT DWORD USE32 PUBLIC 'DATA'
CRT$XCL	ENDS
CRT$XCC	SEGMENT DWORD USE32 PUBLIC 'DATA'
CRT$XCC	ENDS
CRT$XCZ	SEGMENT DWORD USE32 PUBLIC 'DATA'
CRT$XCZ	ENDS
text$yd	SEGMENT PARA USE32 PUBLIC 'CODE'
text$yd	ENDS
ATL$__m	SEGMENT DWORD USE32 PUBLIC ''
ATL$__m	ENDS
ATL$__z	SEGMENT DWORD USE32 PUBLIC ''
ATL$__z	ENDS
ATL$__a	SEGMENT DWORD USE32 PUBLIC ''
ATL$__a	ENDS
;	COMDAT ??_GCMixer@@UAEPAXI@Z
_TEXT	SEGMENT PARA USE32 PUBLIC 'CODE'
_TEXT	ENDS
;	COMDAT ??B?$CComPtrBase@UITypeInfo2@@@ATL@@QBEPAUITypeInfo2@@XZ
_TEXT	SEGMENT PARA USE32 PUBLIC 'CODE'
_TEXT	ENDS
;	COMDAT ?equal@?$istreambuf_iterator@DU?$char_traits@D@std@@@std@@QBE_NABV12@@Z
_TEXT	SEGMENT PARA USE32 PUBLIC 'CODE'
_TEXT	ENDS
;	COMDAT ?equal@?$istreambuf_iterator@_WU?$char_traits@_W@std@@@std@@QBE_NABV12@@Z
_TEXT	SEGMENT PARA USE32 PUBLIC 'CODE'
_TEXT	ENDS
;	COMDAT ?Unlock@?$CComCritSecLock@VCComCriticalSection@ATL@@@ATL@@QAEXXZ
_TEXT	SEGMENT PARA USE32 PUBLIC 'CODE'
_TEXT	ENDS
;	COMDAT ??$_Maklocstr@D@std@@YAPADPBDPADABU_Cvtvec@@@Z
_TEXT	SEGMENT PARA USE32 PUBLIC 'CODE'
_TEXT	ENDS
;	COMDAT ??_R3?$numpunct@_W@std@@8
rdata$r	SEGMENT DWORD USE32 PUBLIC 'CONST'
rdata$r	ENDS
;	COMDAT ??_R3?$numpunct@D@std@@8
rdata$r	SEGMENT DWORD USE32 PUBLIC 'CONST'
rdata$r	ENDS
;	COMDAT ??_R3CMixer@@8
rdata$r	SEGMENT DWORD USE32 PUBLIC 'CONST'
rdata$r	ENDS
;	COMDAT ??_R2?$numpunct@_W@std@@8
rdata$r	SEGMENT DWORD USE32 PUBLIC 'CONST'
rdata$r	ENDS
;	COMDAT ??_R2?$numpunct@D@std@@8
rdata$r	SEGMENT DWORD USE32 PUBLIC 'CONST'
rdata$r	ENDS
;	COMDAT ??_R2CMixer@@8
rdata$r	SEGMENT DWORD USE32 PUBLIC 'CONST'
rdata$r	ENDS
;	COMDAT ??_R1A@?0A@A@?$numpunct@_W@std@@8
rdata$r	SEGMENT DWORD USE32 PUBLIC 'CONST'
rdata$r	ENDS
;	COMDAT ??_R1A@?0A@A@facet@locale@std@@8
rdata$r	SEGMENT DWORD USE32 PUBLIC 'CONST'
rdata$r	ENDS
;	COMDAT ??_R0?AVfacet@locale@std@@@8
_DATA	SEGMENT DWORD USE32 PUBLIC 'DATA'
_DATA	ENDS
;	COMDAT ??_R1A@?0A@A@?$numpunct@D@std@@8
rdata$r	SEGMENT DWORD USE32 PUBLIC 'CONST'
rdata$r	ENDS
;	COMDAT ??_R1A@?0A@A@CMixer@@8
rdata$r	SEGMENT DWORD USE32 PUBLIC 'CONST'
rdata$r	ENDS
;	COMDAT ??_R0?AV?$numpunct@_W@std@@@8
_DATA	SEGMENT DWORD USE32 PUBLIC 'DATA'
_DATA	ENDS
;	COMDAT ??_R0?AV?$numpunct@D@std@@@8
_DATA	SEGMENT DWORD USE32 PUBLIC 'DATA'
_DATA	ENDS
;	COMDAT ??_R0?AVCMixer@@@8
_DATA	SEGMENT DWORD USE32 PUBLIC 'DATA'
_DATA	ENDS
;	COMDAT ??0?$allocator@_W@std@@QAE@XZ
_TEXT	SEGMENT PARA USE32 PUBLIC 'CODE'
_TEXT	ENDS
;	COMDAT ??0?$allocator@D@std@@QAE@ABV01@@Z
_TEXT	SEGMENT PARA USE32 PUBLIC 'CODE'
_TEXT	ENDS
;	COMDAT ??0?$allocator@D@std@@QAE@XZ
_TEXT	SEGMENT PARA USE32 PUBLIC 'CODE'
_TEXT	ENDS
;	COMDAT ?deallocate@?$allocator@D@std@@QAEXPADI@Z
_TEXT	SEGMENT PARA USE32 PUBLIC 'CODE'
_TEXT	ENDS
;	COMDAT ?max_size@?$allocator@D@std@@QBEIXZ
_TEXT	SEGMENT PARA USE32 PUBLIC 'CODE'
_TEXT	ENDS
;	COMDAT ?allocate@?$allocator@D@std@@QAEPADI@Z
_TEXT	SEGMENT PARA USE32 PUBLIC 'CODE'
_TEXT	ENDS
;	COMDAT ??$_Allocate@D@std@@YAPADIPAD@Z
_TEXT	SEGMENT PARA USE32 PUBLIC 'CODE'
_TEXT	ENDS
;	COMDAT ??_G?$numpunct@_W@std@@MAEPAXI@Z
_TEXT	SEGMENT PARA USE32 PUBLIC 'CODE'
_TEXT	ENDS
;	COMDAT ??_R4?$numpunct@_W@std@@6B@
rdata$r	SEGMENT DWORD USE32 PUBLIC 'CONST'
rdata$r	ENDS
;	COMDAT ??_G?$numpunct@D@std@@MAEPAXI@Z
_TEXT	SEGMENT PARA USE32 PUBLIC 'CODE'
_TEXT	ENDS
;	COMDAT ??_R4?$numpunct@D@std@@6B@
rdata$r	SEGMENT DWORD USE32 PUBLIC 'CONST'
rdata$r	ENDS
;	COMDAT ??_R4CMixer@@6B@
rdata$r	SEGMENT DWORD USE32 PUBLIC 'CONST'
rdata$r	ENDS
;	COMDAT ??_C@_0EN@CBMLGOH@D?3?2Program?5Files?5?$CIx86?$CJ?2Microsoft@
CONST	SEGMENT DWORD USE32 PUBLIC 'CONST'
CONST	ENDS
;	COMDAT ?_Psave@?$_Facetptr@V?$numpunct@_W@std@@@std@@2PBVfacet@locale@2@B
_DATA	SEGMENT DWORD USE32 PUBLIC 'DATA'
_DATA	ENDS
;	COMDAT ?_Psave@?$_Facetptr@V?$numpunct@D@std@@@std@@2PBVfacet@locale@2@B
_DATA	SEGMENT DWORD USE32 PUBLIC 'DATA'
_DATA	ENDS
;	COMDAT ?Unlock@CComCriticalSection@ATL@@QAEJXZ
_TEXT	SEGMENT PARA USE32 PUBLIC 'CODE'
_TEXT	ENDS
;	COMDAT ??_C@_0FG@LDNDNCJM@D?3?2Program?5Files?5?$CIx86?$CJ?2Microsoft@
CONST	SEGMENT DWORD USE32 PUBLIC 'CONST'
CONST	ENDS
;	COMDAT ??_C@_09HIEJFN@m_bLocked?$AA@
CONST	SEGMENT DWORD USE32 PUBLIC 'CONST'
CONST	ENDS
;	COMDAT ?_Psave@?$_Facetptr@V?$ctype@_W@std@@@std@@2PBVfacet@locale@2@B
_DATA	SEGMENT DWORD USE32 PUBLIC 'DATA'
_DATA	ENDS
;	COMDAT ?_Psave@?$_Facetptr@V?$ctype@D@std@@@std@@2PBVfacet@locale@2@B
_DATA	SEGMENT DWORD USE32 PUBLIC 'DATA'
_DATA	ENDS
;	COMDAT ??$_Maklocchr@_W@std@@YA_WDPA_WABU_Cvtvec@@@Z
_TEXT	SEGMENT PARA USE32 PUBLIC 'CODE'
_TEXT	ENDS
;	COMDAT ??$_DebugHeapDelete@X@std@@YAXPAX@Z
_TEXT	SEGMENT PARA USE32 PUBLIC 'CODE'
_TEXT	ENDS
;	COMDAT ??$_Maklocstr@_W@std@@YAPA_WPBDPA_WABU_Cvtvec@@@Z
_TEXT	SEGMENT PARA USE32 PUBLIC 'CODE'
_TEXT	ENDS
;	COMDAT ??$_Maklocchr@D@std@@YADDPADABU_Cvtvec@@@Z
_TEXT	SEGMENT PARA USE32 PUBLIC 'CODE'
_TEXT	ENDS
;	COMDAT ??_C@_04LOAJBDKD@true?$AA@
CONST	SEGMENT DWORD USE32 PUBLIC 'CONST'
CONST	ENDS
;	COMDAT ??_C@_05LAPONLG@false?$AA@
CONST	SEGMENT DWORD USE32 PUBLIC 'CONST'
CONST	ENDS
;	COMDAT _wmemcpy
_TEXT	SEGMENT PARA USE32 PUBLIC 'CODE'
_TEXT	ENDS
;	COMDAT ?max_size@?$allocator@_W@std@@QBEIXZ
_TEXT	SEGMENT PARA USE32 PUBLIC 'CODE'
_TEXT	ENDS
;	COMDAT ?allocate@?$allocator@_W@std@@QAEPA_WI@Z
_TEXT	SEGMENT PARA USE32 PUBLIC 'CODE'
_TEXT	ENDS
;	COMDAT ??$_Allocate@_W@std@@YAPA_WIPA_W@Z
_TEXT	SEGMENT PARA USE32 PUBLIC 'CODE'
_TEXT	ENDS
;	COMDAT ??_C@_01GFHCPBMG@C?$AA@
CONST	SEGMENT DWORD USE32 PUBLIC 'CONST'
CONST	ENDS
;	COMDAT ?_Peek@?$istreambuf_iterator@_WU?$char_traits@_W@std@@@std@@AAE_WXZ
_TEXT	SEGMENT PARA USE32 PUBLIC 'CODE'
_TEXT	ENDS
;	COMDAT ?_Peek@?$istreambuf_iterator@DU?$char_traits@D@std@@@std@@AAEDXZ
_TEXT	SEGMENT PARA USE32 PUBLIC 'CODE'
_TEXT	ENDS
;	COMDAT ??$use_facet@V?$ctype@_W@std@@@std@@YAABV?$ctype@_W@0@ABVlocale@0@@Z
_TEXT	SEGMENT PARA USE32 PUBLIC 'CODE'
_TEXT	ENDS
;	COMDAT ??_S?$ctype@_W@std@@6B@
CONST	SEGMENT DWORD USE32 PUBLIC 'CONST'
CONST	ENDS
;	COMDAT ??_R4?$ctype@_W@std@@6B@
rdata$r	SEGMENT DWORD USE32 PUBLIC 'CONST'
rdata$r	ENDS
;	COMDAT ??_R0?AV?$ctype@_W@std@@@8
_DATA	SEGMENT DWORD USE32 PUBLIC 'DATA'
_DATA	ENDS
;	COMDAT ??_R3?$ctype@_W@std@@8
rdata$r	SEGMENT DWORD USE32 PUBLIC 'CONST'
rdata$r	ENDS
;	COMDAT ??_R2?$ctype@_W@std@@8
rdata$r	SEGMENT DWORD USE32 PUBLIC 'CONST'
rdata$r	ENDS
;	COMDAT ??_R1A@?0A@A@?$ctype@_W@std@@8
rdata$r	SEGMENT DWORD USE32 PUBLIC 'CONST'
rdata$r	ENDS
;	COMDAT ??_R1A@?0A@A@ctype_base@std@@8
rdata$r	SEGMENT DWORD USE32 PUBLIC 'CONST'
rdata$r	ENDS
;	COMDAT ??_R0?AUctype_base@std@@@8
_DATA	SEGMENT DWORD USE32 PUBLIC 'DATA'
_DATA	ENDS
;	COMDAT ??_G?$ctype@_W@std@@MAEPAXI@Z
_TEXT	SEGMENT PARA USE32 PUBLIC 'CODE'
_TEXT	ENDS
;	COMDAT ??_C@_08EPJLHIJG@bad?5cast?$AA@
CONST	SEGMENT DWORD USE32 PUBLIC 'CONST'
CONST	ENDS
;	COMDAT __TI2?AVbad_cast@@
xdata$x	SEGMENT DWORD USE32 PUBLIC 'CONST'
xdata$x	ENDS
;	COMDAT __CTA2?AVbad_cast@@
xdata$x	SEGMENT DWORD USE32 PUBLIC 'CONST'
xdata$x	ENDS
;	COMDAT __CT??_R0?AVbad_cast@@@8??0bad_cast@@QAE@ABV0@@Z12
xdata$x	SEGMENT DWORD USE32 PUBLIC 'CONST'
xdata$x	ENDS
;	COMDAT ??_R0?AVbad_cast@@@8
_DATA	SEGMENT DWORD USE32 PUBLIC 'DATA'
_DATA	ENDS
;	COMDAT __CT??_R0?AVexception@@@8??0exception@@QAE@ABV0@@Z12
xdata$x	SEGMENT DWORD USE32 PUBLIC 'CONST'
xdata$x	ENDS
;	COMDAT ??_R0?AVexception@@@8
_DATA	SEGMENT DWORD USE32 PUBLIC 'DATA'
_DATA	ENDS
;	COMDAT ??$_DebugHeapDelete@Vfacet@locale@std@@@std@@YAXPAVfacet@locale@0@@Z
_TEXT	SEGMENT PARA USE32 PUBLIC 'CODE'
_TEXT	ENDS
;	COMDAT ??$use_facet@V?$ctype@D@std@@@std@@YAABV?$ctype@D@0@ABVlocale@0@@Z
_TEXT	SEGMENT PARA USE32 PUBLIC 'CODE'
_TEXT	ENDS
;	COMDAT ??_S?$ctype@D@std@@6B@
CONST	SEGMENT DWORD USE32 PUBLIC 'CONST'
CONST	ENDS
;	COMDAT ??_R4?$ctype@D@std@@6B@
rdata$r	SEGMENT DWORD USE32 PUBLIC 'CONST'
rdata$r	ENDS
;	COMDAT ??_R0?AV?$ctype@D@std@@@8
_DATA	SEGMENT DWORD USE32 PUBLIC 'DATA'
_DATA	ENDS
;	COMDAT ??_R3?$ctype@D@std@@8
rdata$r	SEGMENT DWORD USE32 PUBLIC 'CONST'
rdata$r	ENDS
;	COMDAT ??_R2?$ctype@D@std@@8
rdata$r	SEGMENT DWORD USE32 PUBLIC 'CONST'
rdata$r	ENDS
;	COMDAT ??_R1A@?0A@A@?$ctype@D@std@@8
rdata$r	SEGMENT DWORD USE32 PUBLIC 'CONST'
rdata$r	ENDS
;	COMDAT ??_G?$ctype@D@std@@MAEPAXI@Z
_TEXT	SEGMENT PARA USE32 PUBLIC 'CODE'
_TEXT	ENDS
;	COMDAT ??_S?$numpunct@_W@std@@6B@
CONST	SEGMENT DWORD USE32 PUBLIC 'CONST'
CONST	ENDS
;	COMDAT ??_S?$numpunct@D@std@@6B@
CONST	SEGMENT DWORD USE32 PUBLIC 'CONST'
CONST	ENDS
;	COMDAT _wmemmove
_TEXT	SEGMENT PARA USE32 PUBLIC 'CODE'
_TEXT	ENDS
;	COMDAT ?deallocate@?$allocator@_W@std@@QAEXPA_WI@Z
_TEXT	SEGMENT PARA USE32 PUBLIC 'CODE'
_TEXT	ENDS
;	COMDAT ??0?$allocator@_W@std@@QAE@ABV01@@Z
_TEXT	SEGMENT PARA USE32 PUBLIC 'CODE'
_TEXT	ENDS
;	COMDAT ??_7CMixer@@6B@
CONST	SEGMENT DWORD USE32 PUBLIC 'CONST'
CONST	ENDS
sxdata	SEGMENT DWORD USE32 'SXDATA'
sxdata	ENDS
FLAT	GROUP _DATA, CONST, _BSS
	ASSUME	CS: FLAT, DS: FLAT, SS: FLAT
endif

INCLUDELIB MSVCRTD
INCLUDELIB OLDNAMES

PUBLIC	?m_self@CMixer@@2PAV1@A				; CMixer::m_self
_BSS	SEGMENT
?m_self@CMixer@@2PAV1@A DD 01H DUP (?)			; CMixer::m_self
_BSS	ENDS
PUBLIC	?GetInstance@CMixer@@SAPAV1@XZ			; CMixer::GetInstance
PUBLIC	??0CMixer@@QAE@XZ				; CMixer::CMixer
EXTRN	??2@YAPAXI@Z:NEAR				; operator new
EXTRN	??3@YAXPAX@Z:NEAR				; operator delete
EXTRN	__RTC_InitBase:NEAR
EXTRN	__RTC_Shutdown:NEAR
EXTRN	__except_list:DWORD
EXTRN	__RTC_CheckEsp:NEAR
EXTRN	___CxxFrameHandler:NEAR
;	COMDAT rtc$IMZ
; File d:\boxgit\playbox\playbox\dev\prj\playbox\src\util\mixer.cpp
rtc$IMZ	SEGMENT
__RTC_InitBase.rtc$IMZ DD FLAT:__RTC_InitBase
rtc$IMZ	ENDS
;	COMDAT rtc$TMZ
rtc$TMZ	SEGMENT
__RTC_Shutdown.rtc$TMZ DD FLAT:__RTC_Shutdown
rtc$TMZ	ENDS
xdata$x	SEGMENT
$T190354 DD	0ffffffffH
	DD	FLAT:$L190346
$T190350 DD	019930520H
	DD	01H
	DD	FLAT:$T190354
	DD	2 DUP(00H)
	DD	2 DUP(00H)
; Function compile flags: /Odt /RTCsu
xdata$x	ENDS
_TEXT	SEGMENT
tv72 = -24						; size = 4
$T190337 = -20						; size = 4
$T190336 = -16						; size = 4
__$EHRec$ = -12						; size = 12
?GetInstance@CMixer@@SAPAV1@XZ PROC NEAR		; CMixer::GetInstance

; 10   : {

  00000	55		 push	 ebp
  00001	8b ec		 mov	 ebp, esp
  00003	6a ff		 push	 -1
  00005	68 00 00 00 00	 push	 __ehhandler$?GetInstance@CMixer@@SAPAV1@XZ
  0000a	64 a1 00 00 00
	00		 mov	 eax, DWORD PTR fs:__except_list
  00010	50		 push	 eax
  00011	64 89 25 00 00
	00 00		 mov	 DWORD PTR fs:__except_list, esp
  00018	83 ec 0c	 sub	 esp, 12			; 0000000cH
  0001b	c7 45 e8 cc cc
	cc cc		 mov	 DWORD PTR [ebp-24], -858993460 ; ccccccccH
  00022	c7 45 ec cc cc
	cc cc		 mov	 DWORD PTR [ebp-20], -858993460 ; ccccccccH
  00029	c7 45 f0 cc cc
	cc cc		 mov	 DWORD PTR [ebp-16], -858993460 ; ccccccccH

; 11   : 	if( m_self == NULL )

  00030	83 3d 00 00 00
	00 00		 cmp	 DWORD PTR ?m_self@CMixer@@2PAV1@A, 0 ; CMixer::m_self
  00037	75 44		 jne	 SHORT $L189747

; 12   : 	{
; 13   : 		m_self = new CMixer();

  00039	6a 08		 push	 8
  0003b	e8 00 00 00 00	 call	 ??2@YAPAXI@Z		; operator new
  00040	83 c4 04	 add	 esp, 4
  00043	89 45 ec	 mov	 DWORD PTR $T190337[ebp], eax
  00046	c7 45 fc 00 00
	00 00		 mov	 DWORD PTR __$EHRec$[ebp+8], 0
  0004d	83 7d ec 00	 cmp	 DWORD PTR $T190337[ebp], 0
  00051	74 0d		 je	 SHORT $L190338
  00053	8b 4d ec	 mov	 ecx, DWORD PTR $T190337[ebp]
  00056	e8 00 00 00 00	 call	 ??0CMixer@@QAE@XZ	; CMixer::CMixer
  0005b	89 45 e8	 mov	 DWORD PTR tv72[ebp], eax
  0005e	eb 07		 jmp	 SHORT $L190339
$L190338:
  00060	c7 45 e8 00 00
	00 00		 mov	 DWORD PTR tv72[ebp], 0
$L190339:
  00067	8b 45 e8	 mov	 eax, DWORD PTR tv72[ebp]
  0006a	89 45 f0	 mov	 DWORD PTR $T190336[ebp], eax
  0006d	c7 45 fc ff ff
	ff ff		 mov	 DWORD PTR __$EHRec$[ebp+8], -1
  00074	8b 4d f0	 mov	 ecx, DWORD PTR $T190336[ebp]
  00077	89 0d 00 00 00
	00		 mov	 DWORD PTR ?m_self@CMixer@@2PAV1@A, ecx ; CMixer::m_self
$L189747:

; 14   : 	}
; 15   : 	return m_self;

  0007d	a1 00 00 00 00	 mov	 eax, DWORD PTR ?m_self@CMixer@@2PAV1@A ; CMixer::m_self

; 16   : }

  00082	8b 4d f4	 mov	 ecx, DWORD PTR __$EHRec$[ebp]
  00085	64 89 0d 00 00
	00 00		 mov	 DWORD PTR fs:__except_list, ecx
  0008c	83 c4 18	 add	 esp, 24			; 00000018H
  0008f	3b ec		 cmp	 ebp, esp
  00091	e8 00 00 00 00	 call	 __RTC_CheckEsp
  00096	8b e5		 mov	 esp, ebp
  00098	5d		 pop	 ebp
  00099	c3		 ret	 0
_TEXT	ENDS
text$x	SEGMENT
$L190346:
  00000	8b 45 ec	 mov	 eax, DWORD PTR $T190337[ebp]
  00003	50		 push	 eax
  00004	e8 00 00 00 00	 call	 ??3@YAXPAX@Z		; operator delete
  00009	59		 pop	 ecx
  0000a	c3		 ret	 0
__ehhandler$?GetInstance@CMixer@@SAPAV1@XZ:
  0000b	b8 00 00 00 00	 mov	 eax, OFFSET FLAT:$T190350
  00010	e9 00 00 00 00	 jmp	 ___CxxFrameHandler
text$x	ENDS
?GetInstance@CMixer@@SAPAV1@XZ ENDP			; CMixer::GetInstance
PUBLIC	?DelInstance@CMixer@@SAXXZ			; CMixer::DelInstance
; Function compile flags: /Odt /RTCsu
_TEXT	SEGMENT
tv71 = -12						; size = 4
$T190358 = -8						; size = 4
$T190357 = -4						; size = 4
?DelInstance@CMixer@@SAXXZ PROC NEAR			; CMixer::DelInstance

; 19   : {

  000a0	55		 push	 ebp
  000a1	8b ec		 mov	 ebp, esp
  000a3	83 ec 0c	 sub	 esp, 12			; 0000000cH
  000a6	56		 push	 esi
  000a7	c7 45 f4 cc cc
	cc cc		 mov	 DWORD PTR [ebp-12], -858993460 ; ccccccccH
  000ae	c7 45 f8 cc cc
	cc cc		 mov	 DWORD PTR [ebp-8], -858993460 ; ccccccccH
  000b5	c7 45 fc cc cc
	cc cc		 mov	 DWORD PTR [ebp-4], -858993460 ; ccccccccH

; 20   : 	if( m_self != NULL )

  000bc	83 3d 00 00 00
	00 00		 cmp	 DWORD PTR ?m_self@CMixer@@2PAV1@A, 0 ; CMixer::m_self
  000c3	74 35		 je	 SHORT $L189754

; 21   : 	{
; 22   : 		delete m_self;

  000c5	a1 00 00 00 00	 mov	 eax, DWORD PTR ?m_self@CMixer@@2PAV1@A ; CMixer::m_self
  000ca	89 45 f8	 mov	 DWORD PTR $T190358[ebp], eax
  000cd	8b 4d f8	 mov	 ecx, DWORD PTR $T190358[ebp]
  000d0	89 4d fc	 mov	 DWORD PTR $T190357[ebp], ecx
  000d3	83 7d fc 00	 cmp	 DWORD PTR $T190357[ebp], 0
  000d7	74 1a		 je	 SHORT $L190359
  000d9	8b f4		 mov	 esi, esp
  000db	6a 01		 push	 1
  000dd	8b 55 fc	 mov	 edx, DWORD PTR $T190357[ebp]
  000e0	8b 02		 mov	 eax, DWORD PTR [edx]
  000e2	8b 4d fc	 mov	 ecx, DWORD PTR $T190357[ebp]
  000e5	ff 10		 call	 DWORD PTR [eax]
  000e7	3b f4		 cmp	 esi, esp
  000e9	e8 00 00 00 00	 call	 __RTC_CheckEsp
  000ee	89 45 f4	 mov	 DWORD PTR tv71[ebp], eax
  000f1	eb 07		 jmp	 SHORT $L189754
$L190359:
  000f3	c7 45 f4 00 00
	00 00		 mov	 DWORD PTR tv71[ebp], 0
$L189754:

; 23   : 	}
; 24   : 	m_self = NULL;

  000fa	c7 05 00 00 00
	00 00 00 00 00	 mov	 DWORD PTR ?m_self@CMixer@@2PAV1@A, 0 ; CMixer::m_self

; 25   : }

  00104	5e		 pop	 esi
  00105	83 c4 0c	 add	 esp, 12			; 0000000cH
  00108	3b ec		 cmp	 ebp, esp
  0010a	e8 00 00 00 00	 call	 __RTC_CheckEsp
  0010f	8b e5		 mov	 esp, ebp
  00111	5d		 pop	 ebp
  00112	c3		 ret	 0
?DelInstance@CMixer@@SAXXZ ENDP				; CMixer::DelInstance
_TEXT	ENDS
PUBLIC	??_7CMixer@@6B@					; CMixer::`vftable'
PUBLIC	??_GCMixer@@UAEPAXI@Z				; CMixer::`scalar deleting destructor'
PUBLIC	??_R4CMixer@@6B@				; CMixer::`RTTI Complete Object Locator'
PUBLIC	??_R0?AVCMixer@@@8				; CMixer `RTTI Type Descriptor'
PUBLIC	??_R3CMixer@@8					; CMixer::`RTTI Class Hierarchy Descriptor'
PUBLIC	??_R2CMixer@@8					; CMixer::`RTTI Base Class Array'
PUBLIC	??_R1A@?0A@A@CMixer@@8				; CMixer::`RTTI Base Class Descriptor at (0,-1,0,0)'
EXTRN	??_ECMixer@@UAEPAXI@Z:NEAR			; CMixer::`vector deleting destructor'
EXTRN	??_7type_info@@6B@:QWORD			; type_info::`vftable'
;	COMDAT ??_7CMixer@@6B@
CONST	SEGMENT
??_7CMixer@@6B@ DD FLAT:??_R4CMixer@@6B@		; CMixer::`vftable'
	DD	FLAT:??_ECMixer@@UAEPAXI@Z
CONST	ENDS
;	COMDAT ??_R4CMixer@@6B@
rdata$r	SEGMENT
??_R4CMixer@@6B@ DD 00H					; CMixer::`RTTI Complete Object Locator'
	DD	00H
	DD	00H
	DD	FLAT:??_R0?AVCMixer@@@8
	DD	FLAT:??_R3CMixer@@8
rdata$r	ENDS
;	COMDAT ??_R0?AVCMixer@@@8
_DATA	SEGMENT
??_R0?AVCMixer@@@8 DD FLAT:??_7type_info@@6B@		; CMixer `RTTI Type Descriptor'
	DD	00H
	DB	'.?AVCMixer@@', 00H
_DATA	ENDS
;	COMDAT ??_R3CMixer@@8
rdata$r	SEGMENT
??_R3CMixer@@8 DD 00H					; CMixer::`RTTI Class Hierarchy Descriptor'
	DD	00H
	DD	01H
	DD	FLAT:??_R2CMixer@@8
rdata$r	ENDS
;	COMDAT ??_R2CMixer@@8
rdata$r	SEGMENT
??_R2CMixer@@8 DD FLAT:??_R1A@?0A@A@CMixer@@8		; CMixer::`RTTI Base Class Array'
rdata$r	ENDS
;	COMDAT ??_R1A@?0A@A@CMixer@@8
rdata$r	SEGMENT
??_R1A@?0A@A@CMixer@@8 DD FLAT:??_R0?AVCMixer@@@8	; CMixer::`RTTI Base Class Descriptor at (0,-1,0,0)'
	DD	00H
	DD	00H
	DD	0ffffffffH
	DD	00H
	DD	00H
; Function compile flags: /Odt /RTCsu
rdata$r	ENDS
_TEXT	SEGMENT
_this$ = -4						; size = 4
??0CMixer@@QAE@XZ PROC NEAR				; CMixer::CMixer
; _this$ = ecx

; 32   : {

  00120	55		 push	 ebp
  00121	8b ec		 mov	 ebp, esp
  00123	51		 push	 ecx
  00124	c7 45 fc cc cc
	cc cc		 mov	 DWORD PTR [ebp-4], -858993460 ; ccccccccH
  0012b	89 4d fc	 mov	 DWORD PTR _this$[ebp], ecx
  0012e	8b 45 fc	 mov	 eax, DWORD PTR _this$[ebp]
  00131	c7 00 00 00 00
	00		 mov	 DWORD PTR [eax], OFFSET FLAT:??_7CMixer@@6B@

; 33   : 	m_VolRange = 100;

  00137	8b 4d fc	 mov	 ecx, DWORD PTR _this$[ebp]
  0013a	c7 41 04 64 00
	00 00		 mov	 DWORD PTR [ecx+4], 100	; 00000064H

; 34   : }

  00141	8b 45 fc	 mov	 eax, DWORD PTR _this$[ebp]
  00144	8b e5		 mov	 esp, ebp
  00146	5d		 pop	 ebp
  00147	c3		 ret	 0
??0CMixer@@QAE@XZ ENDP					; CMixer::CMixer
_TEXT	ENDS
PUBLIC	??1CMixer@@UAE@XZ				; CMixer::~CMixer
; Function compile flags: /Odt /RTCsu
;	COMDAT ??_GCMixer@@UAEPAXI@Z
_TEXT	SEGMENT
_this$ = -4						; size = 4
___flags$ = 8						; size = 4
??_GCMixer@@UAEPAXI@Z PROC NEAR				; CMixer::`scalar deleting destructor', COMDAT
; _this$ = ecx
  00000	55		 push	 ebp
  00001	8b ec		 mov	 ebp, esp
  00003	51		 push	 ecx
  00004	c7 45 fc cc cc
	cc cc		 mov	 DWORD PTR [ebp-4], -858993460 ; ccccccccH
  0000b	89 4d fc	 mov	 DWORD PTR _this$[ebp], ecx
  0000e	8b 4d fc	 mov	 ecx, DWORD PTR _this$[ebp]
  00011	e8 00 00 00 00	 call	 ??1CMixer@@UAE@XZ	; CMixer::~CMixer
  00016	8b 45 08	 mov	 eax, DWORD PTR ___flags$[ebp]
  00019	83 e0 01	 and	 eax, 1
  0001c	74 0c		 je	 SHORT $L189763
  0001e	8b 4d fc	 mov	 ecx, DWORD PTR _this$[ebp]
  00021	51		 push	 ecx
  00022	e8 00 00 00 00	 call	 ??3@YAXPAX@Z		; operator delete
  00027	83 c4 04	 add	 esp, 4
$L189763:
  0002a	8b 45 fc	 mov	 eax, DWORD PTR _this$[ebp]
  0002d	83 c4 04	 add	 esp, 4
  00030	3b ec		 cmp	 ebp, esp
  00032	e8 00 00 00 00	 call	 __RTC_CheckEsp
  00037	8b e5		 mov	 esp, ebp
  00039	5d		 pop	 ebp
  0003a	c2 04 00	 ret	 4
??_GCMixer@@UAEPAXI@Z ENDP				; CMixer::`scalar deleting destructor'
; Function compile flags: /Odt /RTCsu
_TEXT	ENDS
_TEXT	SEGMENT
_this$ = -4						; size = 4
??1CMixer@@UAE@XZ PROC NEAR				; CMixer::~CMixer
; _this$ = ecx

; 37   : {

  00150	55		 push	 ebp
  00151	8b ec		 mov	 ebp, esp
  00153	51		 push	 ecx
  00154	c7 45 fc cc cc
	cc cc		 mov	 DWORD PTR [ebp-4], -858993460 ; ccccccccH
  0015b	89 4d fc	 mov	 DWORD PTR _this$[ebp], ecx
  0015e	8b 45 fc	 mov	 eax, DWORD PTR _this$[ebp]
  00161	c7 00 00 00 00
	00		 mov	 DWORD PTR [eax], OFFSET FLAT:??_7CMixer@@6B@

; 38   : 
; 39   : }

  00167	8b e5		 mov	 esp, ebp
  00169	5d		 pop	 ebp
  0016a	c3		 ret	 0
??1CMixer@@UAE@XZ ENDP					; CMixer::~CMixer
_TEXT	ENDS
PUBLIC	??0CMixer@@QAE@H@Z				; CMixer::CMixer
; Function compile flags: /Odt /RTCsu
_TEXT	SEGMENT
_this$ = -4						; size = 4
_VolRange$ = 8						; size = 4
??0CMixer@@QAE@H@Z PROC NEAR				; CMixer::CMixer
; _this$ = ecx

; 42   : {

  00170	55		 push	 ebp
  00171	8b ec		 mov	 ebp, esp
  00173	51		 push	 ecx
  00174	c7 45 fc cc cc
	cc cc		 mov	 DWORD PTR [ebp-4], -858993460 ; ccccccccH
  0017b	89 4d fc	 mov	 DWORD PTR _this$[ebp], ecx
  0017e	8b 45 fc	 mov	 eax, DWORD PTR _this$[ebp]
  00181	c7 00 00 00 00
	00		 mov	 DWORD PTR [eax], OFFSET FLAT:??_7CMixer@@6B@

; 43   : 	m_VolRange = VolRange;

  00187	8b 4d fc	 mov	 ecx, DWORD PTR _this$[ebp]
  0018a	8b 55 08	 mov	 edx, DWORD PTR _VolRange$[ebp]
  0018d	89 51 04	 mov	 DWORD PTR [ecx+4], edx

; 44   : }

  00190	8b 45 fc	 mov	 eax, DWORD PTR _this$[ebp]
  00193	8b e5		 mov	 esp, ebp
  00195	5d		 pop	 ebp
  00196	c2 04 00	 ret	 4
??0CMixer@@QAE@H@Z ENDP					; CMixer::CMixer
_TEXT	ENDS
PUBLIC	?GetVolumeControl@CMixer@@AAE_NPAUHMIXER__@@JJPAUtagMIXERCONTROLA@@@Z ; CMixer::GetVolumeControl
EXTRN	__imp__mixerGetLineControlsA@12:NEAR
EXTRN	__imp__mixerGetLineInfoA@12:NEAR
EXTRN	___security_cookie:DWORD
EXTRN	@_RTC_CheckStackVars@8:NEAR
EXTRN	@__security_check_cookie@4:NEAR
; Function compile flags: /Odt /RTCsu
_TEXT	SEGMENT
_mr$189789 = -236					; size = 4
_i$189785 = -232					; size = 4
_dwLineID$189784 = -228					; size = 4
_dwConnections$189783 = -224				; size = 4
_exist$ = -217						; size = 1
_mxl$ = -212						; size = 168
_mxlc$ = -36						; size = 24
_this$ = -8						; size = 4
__$ArrayPad$ = -4					; size = 4
__$ReturnAddr$ = 4					; size = 4
_hmixer$ = 8						; size = 4
_componentType$ = 12					; size = 4
_ctrlType$ = 16						; size = 4
_mxc$ = 20						; size = 4
?GetVolumeControl@CMixer@@AAE_NPAUHMIXER__@@JJPAUtagMIXERCONTROLA@@@Z PROC NEAR ; CMixer::GetVolumeControl
; _this$ = ecx

; 48   : {

  001a0	55		 push	 ebp
  001a1	8b ec		 mov	 ebp, esp
  001a3	81 ec ec 00 00
	00		 sub	 esp, 236		; 000000ecH
  001a9	56		 push	 esi
  001aa	57		 push	 edi
  001ab	51		 push	 ecx
  001ac	8d bd 14 ff ff
	ff		 lea	 edi, DWORD PTR [ebp-236]
  001b2	b9 3b 00 00 00	 mov	 ecx, 59			; 0000003bH
  001b7	b8 cc cc cc cc	 mov	 eax, -858993460		; ccccccccH
  001bc	f3 ab		 rep stosd
  001be	59		 pop	 ecx
  001bf	a1 00 00 00 00	 mov	 eax, DWORD PTR ___security_cookie
  001c4	89 45 fc	 mov	 DWORD PTR __$ArrayPad$[ebp], eax
  001c7	89 4d f8	 mov	 DWORD PTR _this$[ebp], ecx

; 49   : 	MIXERLINECONTROLS mxlc;
; 50   : 	MIXERLINE mxl;
; 51   : 	bool exist = false;

  001ca	c6 85 27 ff ff
	ff 00		 mov	 BYTE PTR _exist$[ebp], 0

; 52   : 	mxl.cbStruct = sizeof(mxl);

  001d1	c7 85 2c ff ff
	ff a8 00 00 00	 mov	 DWORD PTR _mxl$[ebp], 168 ; 000000a8H

; 53   : 	mxl.dwComponentType = componentType;

  001db	8b 45 0c	 mov	 eax, DWORD PTR _componentType$[ebp]
  001de	89 85 44 ff ff
	ff		 mov	 DWORD PTR _mxl$[ebp+24], eax

; 54   : 
; 55   : 	if (componentType == MIXERLINE_COMPONENTTYPE_SRC_MICROPHONE)

  001e4	81 7d 0c 03 10
	00 00		 cmp	 DWORD PTR _componentType$[ebp], 4099 ; 00001003H
  001eb	0f 85 bd 00 00
	00		 jne	 $L189781

; 56   : 	{//获取录音麦克风设备
; 57   : 		mxl.dwComponentType   =   MIXERLINE_COMPONENTTYPE_DST_WAVEIN;   

  001f1	c7 85 44 ff ff
	ff 07 00 00 00	 mov	 DWORD PTR _mxl$[ebp+24], 7

; 58   : 		//   得到录制总线中的连接数   
; 59   : 		mixerGetLineInfo(   (HMIXEROBJ)hmixer,   &mxl,   
; 60   : 			MIXER_OBJECTF_HMIXER   |   MIXER_GETLINEINFOF_COMPONENTTYPE   );   

  001fb	8b f4		 mov	 esi, esp
  001fd	68 03 00 00 80	 push	 -2147483645		; 80000003H
  00202	8d 8d 2c ff ff
	ff		 lea	 ecx, DWORD PTR _mxl$[ebp]
  00208	51		 push	 ecx
  00209	8b 55 08	 mov	 edx, DWORD PTR _hmixer$[ebp]
  0020c	52		 push	 edx
  0020d	ff 15 00 00 00
	00		 call	 DWORD PTR __imp__mixerGetLineInfoA@12
  00213	3b f4		 cmp	 esi, esp
  00215	e8 00 00 00 00	 call	 __RTC_CheckEsp

; 61   : 		//   将连接数保存   
; 62   : 		DWORD   dwConnections   =   mxl.cConnections;   

  0021a	8b 85 4c ff ff
	ff		 mov	 eax, DWORD PTR _mxl$[ebp+32]
  00220	89 85 20 ff ff
	ff		 mov	 DWORD PTR _dwConnections$189783[ebp], eax

; 63   : 		//   准备获取麦克风设备的ID   
; 64   : 		DWORD   dwLineID   =   0;   

  00226	c7 85 1c ff ff
	ff 00 00 00 00	 mov	 DWORD PTR _dwLineID$189784[ebp], 0

; 65   : 		for   (   DWORD   i   =   0;   i   <   dwConnections;   i++   )   

  00230	c7 85 18 ff ff
	ff 00 00 00 00	 mov	 DWORD PTR _i$189785[ebp], 0
  0023a	eb 0f		 jmp	 SHORT $L189786
$L189787:
  0023c	8b 8d 18 ff ff
	ff		 mov	 ecx, DWORD PTR _i$189785[ebp]
  00242	83 c1 01	 add	 ecx, 1
  00245	89 8d 18 ff ff
	ff		 mov	 DWORD PTR _i$189785[ebp], ecx
$L189786:
  0024b	8b 95 18 ff ff
	ff		 mov	 edx, DWORD PTR _i$189785[ebp]
  00251	3b 95 20 ff ff
	ff		 cmp	 edx, DWORD PTR _dwConnections$189783[ebp]
  00257	73 53		 jae	 SHORT $L189788

; 66   : 		{   
; 67   : 			//   枚举每一个设备，当Source的ID等于当前的迭代记数   
; 68   : 			mxl.dwSource   =   i;   

  00259	8b 85 18 ff ff
	ff		 mov	 eax, DWORD PTR _i$189785[ebp]
  0025f	89 85 34 ff ff
	ff		 mov	 DWORD PTR _mxl$[ebp+8], eax

; 69   : 			//   根据SourceID获得连接的信息   
; 70   : 			MMRESULT mr   =   mixerGetLineInfo(   (HMIXEROBJ)hmixer,   &mxl,   
; 71   : 				MIXER_OBJECTF_HMIXER   |   MIXER_GETLINEINFOF_SOURCE   );   

  00265	8b f4		 mov	 esi, esp
  00267	68 01 00 00 80	 push	 -2147483647		; 80000001H
  0026c	8d 8d 2c ff ff
	ff		 lea	 ecx, DWORD PTR _mxl$[ebp]
  00272	51		 push	 ecx
  00273	8b 55 08	 mov	 edx, DWORD PTR _hmixer$[ebp]
  00276	52		 push	 edx
  00277	ff 15 00 00 00
	00		 call	 DWORD PTR __imp__mixerGetLineInfoA@12
  0027d	3b f4		 cmp	 esi, esp
  0027f	e8 00 00 00 00	 call	 __RTC_CheckEsp
  00284	89 85 14 ff ff
	ff		 mov	 DWORD PTR _mr$189789[ebp], eax

; 72   : 			//   判断函数执行错误   
; 73   : 			if   (   mr   !=   0   )   

  0028a	83 bd 14 ff ff
	ff 00		 cmp	 DWORD PTR _mr$189789[ebp], 0
  00291	74 02		 je	 SHORT $L189791

; 74   : 			{   
; 75   : 				break;   

  00293	eb 17		 jmp	 SHORT $L189788
$L189791:

; 76   : 			}   
; 77   : 			//   如果当前设备类型是麦克风，则跳出循环。   
; 78   : 			if   (   mxl.dwComponentType   ==   
; 79   : 				MIXERLINE_COMPONENTTYPE_SRC_MICROPHONE   )   

  00295	81 bd 44 ff ff
	ff 03 10 00 00	 cmp	 DWORD PTR _mxl$[ebp+24], 4099 ; 00001003H
  0029f	75 09		 jne	 SHORT $L189792

; 80   : 			{   
; 81   : 				exist = true;

  002a1	c6 85 27 ff ff
	ff 01		 mov	 BYTE PTR _exist$[ebp], 1

; 82   : 				break;   

  002a8	eb 02		 jmp	 SHORT $L189788
$L189792:

; 83   : 			}   
; 84   : 		} 

  002aa	eb 90		 jmp	 SHORT $L189787
$L189788:
  002ac	eb 27		 jmp	 SHORT $L189793
$L189781:

; 85   : 	}else if(!mixerGetLineInfo((HMIXEROBJ)hmixer, &mxl, MIXER_GETLINEINFOF_COMPONENTTYPE))

  002ae	8b f4		 mov	 esi, esp
  002b0	6a 03		 push	 3
  002b2	8d 85 2c ff ff
	ff		 lea	 eax, DWORD PTR _mxl$[ebp]
  002b8	50		 push	 eax
  002b9	8b 4d 08	 mov	 ecx, DWORD PTR _hmixer$[ebp]
  002bc	51		 push	 ecx
  002bd	ff 15 00 00 00
	00		 call	 DWORD PTR __imp__mixerGetLineInfoA@12
  002c3	3b f4		 cmp	 esi, esp
  002c5	e8 00 00 00 00	 call	 __RTC_CheckEsp
  002ca	85 c0		 test	 eax, eax
  002cc	75 07		 jne	 SHORT $L189793

; 86   : 	{
; 87   : 		exist = true;

  002ce	c6 85 27 ff ff
	ff 01		 mov	 BYTE PTR _exist$[ebp], 1
$L189793:

; 88   : 	}
; 89   : 
; 90   : 	if (exist)

  002d5	0f b6 95 27 ff
	ff ff		 movzx	 edx, BYTE PTR _exist$[ebp]
  002dc	85 d2		 test	 edx, edx
  002de	74 4f		 je	 SHORT $L189796

; 91   : 	{
; 92   : 		mxlc.cbStruct = sizeof(mxlc);

  002e0	c7 45 dc 18 00
	00 00		 mov	 DWORD PTR _mxlc$[ebp], 24 ; 00000018H

; 93   : 		mxlc.dwLineID = mxl.dwLineID;

  002e7	8b 85 38 ff ff
	ff		 mov	 eax, DWORD PTR _mxl$[ebp+12]
  002ed	89 45 e0	 mov	 DWORD PTR _mxlc$[ebp+4], eax

; 94   : 		mxlc.dwControlType = ctrlType;

  002f0	8b 4d 10	 mov	 ecx, DWORD PTR _ctrlType$[ebp]
  002f3	89 4d e4	 mov	 DWORD PTR _mxlc$[ebp+8], ecx

; 95   : 		mxlc.cControls = 1;

  002f6	c7 45 e8 01 00
	00 00		 mov	 DWORD PTR _mxlc$[ebp+12], 1

; 96   : 		mxlc.cbmxctrl = sizeof(MIXERCONTROL);

  002fd	c7 45 ec 94 00
	00 00		 mov	 DWORD PTR _mxlc$[ebp+16], 148 ; 00000094H

; 97   : 		mxlc.pamxctrl = mxc;

  00304	8b 55 14	 mov	 edx, DWORD PTR _mxc$[ebp]
  00307	89 55 f0	 mov	 DWORD PTR _mxlc$[ebp+20], edx

; 98   : 		if(mixerGetLineControls((HMIXEROBJ)hmixer,&mxlc,MIXER_GETLINECONTROLSF_ONEBYTYPE))

  0030a	8b f4		 mov	 esi, esp
  0030c	6a 02		 push	 2
  0030e	8d 45 dc	 lea	 eax, DWORD PTR _mxlc$[ebp]
  00311	50		 push	 eax
  00312	8b 4d 08	 mov	 ecx, DWORD PTR _hmixer$[ebp]
  00315	51		 push	 ecx
  00316	ff 15 00 00 00
	00		 call	 DWORD PTR __imp__mixerGetLineControlsA@12
  0031c	3b f4		 cmp	 esi, esp
  0031e	e8 00 00 00 00	 call	 __RTC_CheckEsp
  00323	85 c0		 test	 eax, eax
  00325	74 04		 je	 SHORT $L189799

; 99   : 			return 0;

  00327	32 c0		 xor	 al, al
  00329	eb 06		 jmp	 SHORT $L189777
$L189799:

; 100  : 		else
; 101  : 			return 1;

  0032b	b0 01		 mov	 al, 1
  0032d	eb 02		 jmp	 SHORT $L189777
$L189796:

; 102  : 	}
; 103  : 	return 0;

  0032f	32 c0		 xor	 al, al
$L189777:

; 104  : }

  00331	52		 push	 edx
  00332	8b cd		 mov	 ecx, ebp
  00334	50		 push	 eax
  00335	8d 15 00 00 00
	00		 lea	 edx, DWORD PTR $L190372
  0033b	e8 00 00 00 00	 call	 @_RTC_CheckStackVars@8
  00340	58		 pop	 eax
  00341	5a		 pop	 edx
  00342	8b 4d fc	 mov	 ecx, DWORD PTR __$ArrayPad$[ebp]
  00345	e8 00 00 00 00	 call	 @__security_check_cookie@4
  0034a	5f		 pop	 edi
  0034b	5e		 pop	 esi
  0034c	81 c4 ec 00 00
	00		 add	 esp, 236		; 000000ecH
  00352	3b ec		 cmp	 ebp, esp
  00354	e8 00 00 00 00	 call	 __RTC_CheckEsp
  00359	8b e5		 mov	 esp, ebp
  0035b	5d		 pop	 ebp
  0035c	c2 10 00	 ret	 16			; 00000010H
$L190372:
  0035f	02 00 00 00	 DD	 2
  00363	00 00 00 00	 DD	 $L190371
$L190371:
  00367	dc ff ff ff	 DD	 -36			; ffffffdcH
  0036b	18 00 00 00	 DD	 24			; 00000018H
  0036f	00 00 00 00	 DD	 $L190367
  00373	2c ff ff ff	 DD	 -212			; ffffff2cH
  00377	a8 00 00 00	 DD	 168			; 000000a8H
  0037b	00 00 00 00	 DD	 $L190368
$L190368:
  0037f	6d		 DB	 109			; 0000006dH
  00380	78		 DB	 120			; 00000078H
  00381	6c		 DB	 108			; 0000006cH
  00382	00		 DB	 0
$L190367:
  00383	6d		 DB	 109			; 0000006dH
  00384	78		 DB	 120			; 00000078H
  00385	6c		 DB	 108			; 0000006cH
  00386	63		 DB	 99			; 00000063H
  00387	00		 DB	 0
?GetVolumeControl@CMixer@@AAE_NPAUHMIXER__@@JJPAUtagMIXERCONTROLA@@@Z ENDP ; CMixer::GetVolumeControl
_TEXT	ENDS
PUBLIC	?GetMuteValue@CMixer@@AAEJPAUHMIXER__@@PAUtagMIXERCONTROLA@@@Z ; CMixer::GetMuteValue
EXTRN	__imp__mixerGetControlDetailsA@12:NEAR
; Function compile flags: /Odt /RTCsu
_TEXT	SEGMENT
_mxcdMute$ = -44					; size = 4
_mxcd$ = -32						; size = 24
_this$ = -4						; size = 4
_hmixer$ = 8						; size = 4
_mxc$ = 12						; size = 4
?GetMuteValue@CMixer@@AAEJPAUHMIXER__@@PAUtagMIXERCONTROLA@@@Z PROC NEAR ; CMixer::GetMuteValue
; _this$ = ecx

; 107  : {

  00390	55		 push	 ebp
  00391	8b ec		 mov	 ebp, esp
  00393	83 ec 30	 sub	 esp, 48			; 00000030H
  00396	56		 push	 esi
  00397	57		 push	 edi
  00398	51		 push	 ecx
  00399	8d 7d d0	 lea	 edi, DWORD PTR [ebp-48]
  0039c	b9 0c 00 00 00	 mov	 ecx, 12			; 0000000cH
  003a1	b8 cc cc cc cc	 mov	 eax, -858993460		; ccccccccH
  003a6	f3 ab		 rep stosd
  003a8	59		 pop	 ecx
  003a9	89 4d fc	 mov	 DWORD PTR _this$[ebp], ecx

; 108  : 	MIXERCONTROLDETAILS mxcd;
; 109  : 	MIXERCONTROLDETAILS_BOOLEAN mxcdMute;
; 110  : 	mxcd.hwndOwner = 0;

  003ac	c7 45 ec 00 00
	00 00		 mov	 DWORD PTR _mxcd$[ebp+12], 0

; 111  : 	mxcd.cbStruct = sizeof(mxcd);

  003b3	c7 45 e0 18 00
	00 00		 mov	 DWORD PTR _mxcd$[ebp], 24 ; 00000018H

; 112  : 	mxcd.dwControlID = mxc->dwControlID;

  003ba	8b 45 0c	 mov	 eax, DWORD PTR _mxc$[ebp]
  003bd	8b 48 04	 mov	 ecx, DWORD PTR [eax+4]
  003c0	89 4d e4	 mov	 DWORD PTR _mxcd$[ebp+4], ecx

; 113  : 	mxcd.cbDetails = sizeof(mxcdMute);

  003c3	c7 45 f0 04 00
	00 00		 mov	 DWORD PTR _mxcd$[ebp+16], 4

; 114  : 	mxcd.paDetails = &mxcdMute;

  003ca	8d 55 d4	 lea	 edx, DWORD PTR _mxcdMute$[ebp]
  003cd	89 55 f4	 mov	 DWORD PTR _mxcd$[ebp+20], edx

; 115  : 	mxcd.cChannels = 1;

  003d0	c7 45 e8 01 00
	00 00		 mov	 DWORD PTR _mxcd$[ebp+8], 1

; 116  : 	mxcd.cMultipleItems = 0;

  003d7	c7 45 ec 00 00
	00 00		 mov	 DWORD PTR _mxcd$[ebp+12], 0

; 117  : 	if (mixerGetControlDetails((HMIXEROBJ)hmixer, &mxcd,MIXER_OBJECTF_HMIXER|MIXER_GETCONTROLDETAILSF_VALUE))

  003de	8b f4		 mov	 esi, esp
  003e0	68 00 00 00 80	 push	 -2147483648		; 80000000H
  003e5	8d 45 e0	 lea	 eax, DWORD PTR _mxcd$[ebp]
  003e8	50		 push	 eax
  003e9	8b 4d 08	 mov	 ecx, DWORD PTR _hmixer$[ebp]
  003ec	51		 push	 ecx
  003ed	ff 15 00 00 00
	00		 call	 DWORD PTR __imp__mixerGetControlDetailsA@12
  003f3	3b f4		 cmp	 esi, esp
  003f5	e8 00 00 00 00	 call	 __RTC_CheckEsp
  003fa	85 c0		 test	 eax, eax
  003fc	74 05		 je	 SHORT $L189809

; 118  : 		return -1;

  003fe	83 c8 ff	 or	 eax, -1
  00401	eb 03		 jmp	 SHORT $L189805
$L189809:

; 119  : 	return mxcdMute.fValue;

  00403	8b 45 d4	 mov	 eax, DWORD PTR _mxcdMute$[ebp]
$L189805:

; 120  : }

  00406	52		 push	 edx
  00407	8b cd		 mov	 ecx, ebp
  00409	50		 push	 eax
  0040a	8d 15 00 00 00
	00		 lea	 edx, DWORD PTR $L190379
  00410	e8 00 00 00 00	 call	 @_RTC_CheckStackVars@8
  00415	58		 pop	 eax
  00416	5a		 pop	 edx
  00417	5f		 pop	 edi
  00418	5e		 pop	 esi
  00419	83 c4 30	 add	 esp, 48			; 00000030H
  0041c	3b ec		 cmp	 ebp, esp
  0041e	e8 00 00 00 00	 call	 __RTC_CheckEsp
  00423	8b e5		 mov	 esp, ebp
  00425	5d		 pop	 ebp
  00426	c2 08 00	 ret	 8
$L190379:
  00429	02 00 00 00	 DD	 2
  0042d	00 00 00 00	 DD	 $L190378
$L190378:
  00431	e0 ff ff ff	 DD	 -32			; ffffffe0H
  00435	18 00 00 00	 DD	 24			; 00000018H
  00439	00 00 00 00	 DD	 $L190376
  0043d	d4 ff ff ff	 DD	 -44			; ffffffd4H
  00441	04 00 00 00	 DD	 4
  00445	00 00 00 00	 DD	 $L190377
$L190377:
  00449	6d		 DB	 109			; 0000006dH
  0044a	78		 DB	 120			; 00000078H
  0044b	63		 DB	 99			; 00000063H
  0044c	64		 DB	 100			; 00000064H
  0044d	4d		 DB	 77			; 0000004dH
  0044e	75		 DB	 117			; 00000075H
  0044f	74		 DB	 116			; 00000074H
  00450	65		 DB	 101			; 00000065H
  00451	00		 DB	 0
$L190376:
  00452	6d		 DB	 109			; 0000006dH
  00453	78		 DB	 120			; 00000078H
  00454	63		 DB	 99			; 00000063H
  00455	64		 DB	 100			; 00000064H
  00456	00		 DB	 0
?GetMuteValue@CMixer@@AAEJPAUHMIXER__@@PAUtagMIXERCONTROLA@@@Z ENDP ; CMixer::GetMuteValue
_TEXT	ENDS
PUBLIC	?GetVolumeValue@CMixer@@AAEIPAUHMIXER__@@PAUtagMIXERCONTROLA@@@Z ; CMixer::GetVolumeValue
; Function compile flags: /Odt /RTCsu
_TEXT	SEGMENT
_vol$ = -44						; size = 4
_mxcd$ = -32						; size = 24
_this$ = -4						; size = 4
_hmixer$ = 8						; size = 4
_mxc$ = 12						; size = 4
?GetVolumeValue@CMixer@@AAEIPAUHMIXER__@@PAUtagMIXERCONTROLA@@@Z PROC NEAR ; CMixer::GetVolumeValue
; _this$ = ecx

; 124  : {

  00460	55		 push	 ebp
  00461	8b ec		 mov	 ebp, esp
  00463	83 ec 30	 sub	 esp, 48			; 00000030H
  00466	56		 push	 esi
  00467	57		 push	 edi
  00468	51		 push	 ecx
  00469	8d 7d d0	 lea	 edi, DWORD PTR [ebp-48]
  0046c	b9 0c 00 00 00	 mov	 ecx, 12			; 0000000cH
  00471	b8 cc cc cc cc	 mov	 eax, -858993460		; ccccccccH
  00476	f3 ab		 rep stosd
  00478	59		 pop	 ecx
  00479	89 4d fc	 mov	 DWORD PTR _this$[ebp], ecx

; 125  : 	MIXERCONTROLDETAILS mxcd;
; 126  : 	MIXERCONTROLDETAILS_UNSIGNED vol; 
; 127  : 	vol.dwValue=0;

  0047c	c7 45 d4 00 00
	00 00		 mov	 DWORD PTR _vol$[ebp], 0

; 128  : 	mxcd.hwndOwner = 0;

  00483	c7 45 ec 00 00
	00 00		 mov	 DWORD PTR _mxcd$[ebp+12], 0

; 129  : 	mxcd.cbStruct = sizeof(mxcd);

  0048a	c7 45 e0 18 00
	00 00		 mov	 DWORD PTR _mxcd$[ebp], 24 ; 00000018H

; 130  : 	mxcd.dwControlID = mxc->dwControlID;

  00491	8b 45 0c	 mov	 eax, DWORD PTR _mxc$[ebp]
  00494	8b 48 04	 mov	 ecx, DWORD PTR [eax+4]
  00497	89 4d e4	 mov	 DWORD PTR _mxcd$[ebp+4], ecx

; 131  : 	mxcd.cbDetails = sizeof(vol);

  0049a	c7 45 f0 04 00
	00 00		 mov	 DWORD PTR _mxcd$[ebp+16], 4

; 132  : 	mxcd.paDetails = &vol;

  004a1	8d 55 d4	 lea	 edx, DWORD PTR _vol$[ebp]
  004a4	89 55 f4	 mov	 DWORD PTR _mxcd$[ebp+20], edx

; 133  : 	mxcd.cChannels = 1;

  004a7	c7 45 e8 01 00
	00 00		 mov	 DWORD PTR _mxcd$[ebp+8], 1

; 134  : 	if(mixerGetControlDetails((HMIXEROBJ)hmixer, &mxcd, MIXER_OBJECTF_HMIXER|MIXER_GETCONTROLDETAILSF_VALUE))

  004ae	8b f4		 mov	 esi, esp
  004b0	68 00 00 00 80	 push	 -2147483648		; 80000000H
  004b5	8d 45 e0	 lea	 eax, DWORD PTR _mxcd$[ebp]
  004b8	50		 push	 eax
  004b9	8b 4d 08	 mov	 ecx, DWORD PTR _hmixer$[ebp]
  004bc	51		 push	 ecx
  004bd	ff 15 00 00 00
	00		 call	 DWORD PTR __imp__mixerGetControlDetailsA@12
  004c3	3b f4		 cmp	 esi, esp
  004c5	e8 00 00 00 00	 call	 __RTC_CheckEsp
  004ca	85 c0		 test	 eax, eax
  004cc	74 05		 je	 SHORT $L189818

; 135  : 		return -1;

  004ce	83 c8 ff	 or	 eax, -1
  004d1	eb 03		 jmp	 SHORT $L189814
$L189818:

; 136  : 	return vol.dwValue;

  004d3	8b 45 d4	 mov	 eax, DWORD PTR _vol$[ebp]
$L189814:

; 137  : }

  004d6	52		 push	 edx
  004d7	8b cd		 mov	 ecx, ebp
  004d9	50		 push	 eax
  004da	8d 15 00 00 00
	00		 lea	 edx, DWORD PTR $L190384
  004e0	e8 00 00 00 00	 call	 @_RTC_CheckStackVars@8
  004e5	58		 pop	 eax
  004e6	5a		 pop	 edx
  004e7	5f		 pop	 edi
  004e8	5e		 pop	 esi
  004e9	83 c4 30	 add	 esp, 48			; 00000030H
  004ec	3b ec		 cmp	 ebp, esp
  004ee	e8 00 00 00 00	 call	 __RTC_CheckEsp
  004f3	8b e5		 mov	 esp, ebp
  004f5	5d		 pop	 ebp
  004f6	c2 08 00	 ret	 8
$L190384:
  004f9	02 00 00 00	 DD	 2
  004fd	00 00 00 00	 DD	 $L190383
$L190383:
  00501	e0 ff ff ff	 DD	 -32			; ffffffe0H
  00505	18 00 00 00	 DD	 24			; 00000018H
  00509	00 00 00 00	 DD	 $L190381
  0050d	d4 ff ff ff	 DD	 -44			; ffffffd4H
  00511	04 00 00 00	 DD	 4
  00515	00 00 00 00	 DD	 $L190382
$L190382:
  00519	76		 DB	 118			; 00000076H
  0051a	6f		 DB	 111			; 0000006fH
  0051b	6c		 DB	 108			; 0000006cH
  0051c	00		 DB	 0
$L190381:
  0051d	6d		 DB	 109			; 0000006dH
  0051e	78		 DB	 120			; 00000078H
  0051f	63		 DB	 99			; 00000063H
  00520	64		 DB	 100			; 00000064H
  00521	00		 DB	 0
?GetVolumeValue@CMixer@@AAEIPAUHMIXER__@@PAUtagMIXERCONTROLA@@@Z ENDP ; CMixer::GetVolumeValue
_TEXT	ENDS
PUBLIC	?SetMuteValue@CMixer@@AAE_NPAUHMIXER__@@PAUtagMIXERCONTROLA@@_N@Z ; CMixer::SetMuteValue
EXTRN	__imp__mixerSetControlDetails@12:NEAR
; Function compile flags: /Odt /RTCsu
_TEXT	SEGMENT
_mxcdMute$ = -44					; size = 4
_mxcd$ = -32						; size = 24
_this$ = -4						; size = 4
_hmixer$ = 8						; size = 4
_mxc$ = 12						; size = 4
_mute$ = 16						; size = 1
?SetMuteValue@CMixer@@AAE_NPAUHMIXER__@@PAUtagMIXERCONTROLA@@_N@Z PROC NEAR ; CMixer::SetMuteValue
; _this$ = ecx

; 141  : {

  00530	55		 push	 ebp
  00531	8b ec		 mov	 ebp, esp
  00533	83 ec 30	 sub	 esp, 48			; 00000030H
  00536	56		 push	 esi
  00537	57		 push	 edi
  00538	51		 push	 ecx
  00539	8d 7d d0	 lea	 edi, DWORD PTR [ebp-48]
  0053c	b9 0c 00 00 00	 mov	 ecx, 12			; 0000000cH
  00541	b8 cc cc cc cc	 mov	 eax, -858993460		; ccccccccH
  00546	f3 ab		 rep stosd
  00548	59		 pop	 ecx
  00549	89 4d fc	 mov	 DWORD PTR _this$[ebp], ecx

; 142  : 	MIXERCONTROLDETAILS mxcd;
; 143  : 	MIXERCONTROLDETAILS_BOOLEAN mxcdMute;
; 144  : 	mxcdMute.fValue=mute;

  0054c	0f b6 45 10	 movzx	 eax, BYTE PTR _mute$[ebp]
  00550	89 45 d4	 mov	 DWORD PTR _mxcdMute$[ebp], eax

; 145  : 	mxcd.hwndOwner = 0;

  00553	c7 45 ec 00 00
	00 00		 mov	 DWORD PTR _mxcd$[ebp+12], 0

; 146  : 	mxcd.dwControlID = mxc->dwControlID;

  0055a	8b 4d 0c	 mov	 ecx, DWORD PTR _mxc$[ebp]
  0055d	8b 51 04	 mov	 edx, DWORD PTR [ecx+4]
  00560	89 55 e4	 mov	 DWORD PTR _mxcd$[ebp+4], edx

; 147  : 	mxcd.cbStruct = sizeof(mxcd);

  00563	c7 45 e0 18 00
	00 00		 mov	 DWORD PTR _mxcd$[ebp], 24 ; 00000018H

; 148  : 	mxcd.cbDetails = sizeof(mxcdMute);

  0056a	c7 45 f0 04 00
	00 00		 mov	 DWORD PTR _mxcd$[ebp+16], 4

; 149  : 	mxcd.paDetails = &mxcdMute;

  00571	8d 45 d4	 lea	 eax, DWORD PTR _mxcdMute$[ebp]
  00574	89 45 f4	 mov	 DWORD PTR _mxcd$[ebp+20], eax

; 150  : 	mxcd.cChannels = 1;

  00577	c7 45 e8 01 00
	00 00		 mov	 DWORD PTR _mxcd$[ebp+8], 1

; 151  : 	mxcd.cMultipleItems = 0;

  0057e	c7 45 ec 00 00
	00 00		 mov	 DWORD PTR _mxcd$[ebp+12], 0

; 152  : 	if (mixerSetControlDetails((HMIXEROBJ)hmixer, &mxcd, MIXER_OBJECTF_HMIXER|MIXER_SETCONTROLDETAILSF_VALUE))

  00585	8b f4		 mov	 esi, esp
  00587	68 00 00 00 80	 push	 -2147483648		; 80000000H
  0058c	8d 4d e0	 lea	 ecx, DWORD PTR _mxcd$[ebp]
  0058f	51		 push	 ecx
  00590	8b 55 08	 mov	 edx, DWORD PTR _hmixer$[ebp]
  00593	52		 push	 edx
  00594	ff 15 00 00 00
	00		 call	 DWORD PTR __imp__mixerSetControlDetails@12
  0059a	3b f4		 cmp	 esi, esp
  0059c	e8 00 00 00 00	 call	 __RTC_CheckEsp
  005a1	85 c0		 test	 eax, eax
  005a3	74 04		 je	 SHORT $L189828

; 153  : 		return 0;

  005a5	32 c0		 xor	 al, al
  005a7	eb 02		 jmp	 SHORT $L189824
$L189828:

; 154  : 	return 1;

  005a9	b0 01		 mov	 al, 1
$L189824:

; 155  : }

  005ab	52		 push	 edx
  005ac	8b cd		 mov	 ecx, ebp
  005ae	50		 push	 eax
  005af	8d 15 00 00 00
	00		 lea	 edx, DWORD PTR $L190389
  005b5	e8 00 00 00 00	 call	 @_RTC_CheckStackVars@8
  005ba	58		 pop	 eax
  005bb	5a		 pop	 edx
  005bc	5f		 pop	 edi
  005bd	5e		 pop	 esi
  005be	83 c4 30	 add	 esp, 48			; 00000030H
  005c1	3b ec		 cmp	 ebp, esp
  005c3	e8 00 00 00 00	 call	 __RTC_CheckEsp
  005c8	8b e5		 mov	 esp, ebp
  005ca	5d		 pop	 ebp
  005cb	c2 0c 00	 ret	 12			; 0000000cH
$L190389:
  005ce	02 00 00 00	 DD	 2
  005d2	00 00 00 00	 DD	 $L190388
$L190388:
  005d6	e0 ff ff ff	 DD	 -32			; ffffffe0H
  005da	18 00 00 00	 DD	 24			; 00000018H
  005de	00 00 00 00	 DD	 $L190386
  005e2	d4 ff ff ff	 DD	 -44			; ffffffd4H
  005e6	04 00 00 00	 DD	 4
  005ea	00 00 00 00	 DD	 $L190387
$L190387:
  005ee	6d		 DB	 109			; 0000006dH
  005ef	78		 DB	 120			; 00000078H
  005f0	63		 DB	 99			; 00000063H
  005f1	64		 DB	 100			; 00000064H
  005f2	4d		 DB	 77			; 0000004dH
  005f3	75		 DB	 117			; 00000075H
  005f4	74		 DB	 116			; 00000074H
  005f5	65		 DB	 101			; 00000065H
  005f6	00		 DB	 0
$L190386:
  005f7	6d		 DB	 109			; 0000006dH
  005f8	78		 DB	 120			; 00000078H
  005f9	63		 DB	 99			; 00000063H
  005fa	64		 DB	 100			; 00000064H
  005fb	00		 DB	 0
?SetMuteValue@CMixer@@AAE_NPAUHMIXER__@@PAUtagMIXERCONTROLA@@_N@Z ENDP ; CMixer::SetMuteValue
_TEXT	ENDS
PUBLIC	?SetVolumeValue@CMixer@@AAE_NPAUHMIXER__@@PAUtagMIXERCONTROLA@@J@Z ; CMixer::SetVolumeValue
; Function compile flags: /Odt /RTCsu
_TEXT	SEGMENT
_vol$ = -44						; size = 4
_mxcd$ = -32						; size = 24
_this$ = -4						; size = 4
_hmixer$ = 8						; size = 4
_mxc$ = 12						; size = 4
_volume$ = 16						; size = 4
?SetVolumeValue@CMixer@@AAE_NPAUHMIXER__@@PAUtagMIXERCONTROLA@@J@Z PROC NEAR ; CMixer::SetVolumeValue
; _this$ = ecx

; 160  : {

  00600	55		 push	 ebp
  00601	8b ec		 mov	 ebp, esp
  00603	83 ec 30	 sub	 esp, 48			; 00000030H
  00606	56		 push	 esi
  00607	57		 push	 edi
  00608	51		 push	 ecx
  00609	8d 7d d0	 lea	 edi, DWORD PTR [ebp-48]
  0060c	b9 0c 00 00 00	 mov	 ecx, 12			; 0000000cH
  00611	b8 cc cc cc cc	 mov	 eax, -858993460		; ccccccccH
  00616	f3 ab		 rep stosd
  00618	59		 pop	 ecx
  00619	89 4d fc	 mov	 DWORD PTR _this$[ebp], ecx

; 161  : 	MIXERCONTROLDETAILS mxcd;
; 162  : 	MIXERCONTROLDETAILS_UNSIGNED vol;
; 163  : 	vol.dwValue = volume;

  0061c	8b 45 10	 mov	 eax, DWORD PTR _volume$[ebp]
  0061f	89 45 d4	 mov	 DWORD PTR _vol$[ebp], eax

; 164  : 	mxcd.hwndOwner = 0;

  00622	c7 45 ec 00 00
	00 00		 mov	 DWORD PTR _mxcd$[ebp+12], 0

; 165  : 	mxcd.dwControlID = mxc->dwControlID;

  00629	8b 4d 0c	 mov	 ecx, DWORD PTR _mxc$[ebp]
  0062c	8b 51 04	 mov	 edx, DWORD PTR [ecx+4]
  0062f	89 55 e4	 mov	 DWORD PTR _mxcd$[ebp+4], edx

; 166  : 	mxcd.cbStruct = sizeof(mxcd);

  00632	c7 45 e0 18 00
	00 00		 mov	 DWORD PTR _mxcd$[ebp], 24 ; 00000018H

; 167  : 	mxcd.cbDetails = sizeof(vol);

  00639	c7 45 f0 04 00
	00 00		 mov	 DWORD PTR _mxcd$[ebp+16], 4

; 168  : 	mxcd.paDetails = &vol;

  00640	8d 45 d4	 lea	 eax, DWORD PTR _vol$[ebp]
  00643	89 45 f4	 mov	 DWORD PTR _mxcd$[ebp+20], eax

; 169  : 	mxcd.cChannels = 1;

  00646	c7 45 e8 01 00
	00 00		 mov	 DWORD PTR _mxcd$[ebp+8], 1

; 170  : 	if(mixerSetControlDetails((HMIXEROBJ)hmixer, &mxcd, MIXER_OBJECTF_HMIXER|MIXER_SETCONTROLDETAILSF_VALUE))

  0064d	8b f4		 mov	 esi, esp
  0064f	68 00 00 00 80	 push	 -2147483648		; 80000000H
  00654	8d 4d e0	 lea	 ecx, DWORD PTR _mxcd$[ebp]
  00657	51		 push	 ecx
  00658	8b 55 08	 mov	 edx, DWORD PTR _hmixer$[ebp]
  0065b	52		 push	 edx
  0065c	ff 15 00 00 00
	00		 call	 DWORD PTR __imp__mixerSetControlDetails@12
  00662	3b f4		 cmp	 esi, esp
  00664	e8 00 00 00 00	 call	 __RTC_CheckEsp
  00669	85 c0		 test	 eax, eax
  0066b	74 04		 je	 SHORT $L189838

; 171  : 		return 0;

  0066d	32 c0		 xor	 al, al
  0066f	eb 02		 jmp	 SHORT $L189834
$L189838:

; 172  : 	return 1;

  00671	b0 01		 mov	 al, 1
$L189834:

; 173  : }

  00673	52		 push	 edx
  00674	8b cd		 mov	 ecx, ebp
  00676	50		 push	 eax
  00677	8d 15 00 00 00
	00		 lea	 edx, DWORD PTR $L190394
  0067d	e8 00 00 00 00	 call	 @_RTC_CheckStackVars@8
  00682	58		 pop	 eax
  00683	5a		 pop	 edx
  00684	5f		 pop	 edi
  00685	5e		 pop	 esi
  00686	83 c4 30	 add	 esp, 48			; 00000030H
  00689	3b ec		 cmp	 ebp, esp
  0068b	e8 00 00 00 00	 call	 __RTC_CheckEsp
  00690	8b e5		 mov	 esp, ebp
  00692	5d		 pop	 ebp
  00693	c2 0c 00	 ret	 12			; 0000000cH
$L190394:
  00696	02 00 00 00	 DD	 2
  0069a	00 00 00 00	 DD	 $L190393
$L190393:
  0069e	e0 ff ff ff	 DD	 -32			; ffffffe0H
  006a2	18 00 00 00	 DD	 24			; 00000018H
  006a6	00 00 00 00	 DD	 $L190391
  006aa	d4 ff ff ff	 DD	 -44			; ffffffd4H
  006ae	04 00 00 00	 DD	 4
  006b2	00 00 00 00	 DD	 $L190392
$L190392:
  006b6	76		 DB	 118			; 00000076H
  006b7	6f		 DB	 111			; 0000006fH
  006b8	6c		 DB	 108			; 0000006cH
  006b9	00		 DB	 0
$L190391:
  006ba	6d		 DB	 109			; 0000006dH
  006bb	78		 DB	 120			; 00000078H
  006bc	63		 DB	 99			; 00000063H
  006bd	64		 DB	 100			; 00000064H
  006be	00		 DB	 0
?SetVolumeValue@CMixer@@AAE_NPAUHMIXER__@@PAUtagMIXERCONTROLA@@J@Z ENDP ; CMixer::SetVolumeValue
_TEXT	ENDS
PUBLIC	?GetVolume@CMixer@@QAEIW4MixerDeice@1@@Z	; CMixer::GetVolume
EXTRN	__imp__mixerOpen@20:NEAR
EXTRN	__imp__mixerClose@4:NEAR
; Function compile flags: /Odt /RTCsu
_TEXT	SEGMENT
tv64 = -188						; size = 4
_hmixer$ = -180						; size = 4
_volCtrl$ = -168					; size = 148
_rt$ = -16						; size = 4
_device$ = -12						; size = 4
_this$ = -8						; size = 4
__$ArrayPad$ = -4					; size = 4
__$ReturnAddr$ = 4					; size = 4
_dev$ = 8						; size = 4
?GetVolume@CMixer@@QAEIW4MixerDeice@1@@Z PROC NEAR	; CMixer::GetVolume
; _this$ = ecx

; 178  : {

  006c0	55		 push	 ebp
  006c1	8b ec		 mov	 ebp, esp
  006c3	81 ec bc 00 00
	00		 sub	 esp, 188		; 000000bcH
  006c9	56		 push	 esi
  006ca	57		 push	 edi
  006cb	51		 push	 ecx
  006cc	8d bd 44 ff ff
	ff		 lea	 edi, DWORD PTR [ebp-188]
  006d2	b9 2f 00 00 00	 mov	 ecx, 47			; 0000002fH
  006d7	b8 cc cc cc cc	 mov	 eax, -858993460		; ccccccccH
  006dc	f3 ab		 rep stosd
  006de	59		 pop	 ecx
  006df	a1 00 00 00 00	 mov	 eax, DWORD PTR ___security_cookie
  006e4	89 45 fc	 mov	 DWORD PTR __$ArrayPad$[ebp], eax
  006e7	89 4d f8	 mov	 DWORD PTR _this$[ebp], ecx

; 179  : 
; 180  : 	long device;
; 181  : 	unsigned rt=0;

  006ea	c7 45 f0 00 00
	00 00		 mov	 DWORD PTR _rt$[ebp], 0

; 182  : 	MIXERCONTROL volCtrl;
; 183  : 	HMIXER hmixer;
; 184  : 	switch (dev)

  006f1	8b 45 08	 mov	 eax, DWORD PTR _dev$[ebp]
  006f4	89 85 44 ff ff
	ff		 mov	 DWORD PTR tv64[ebp], eax
  006fa	83 bd 44 ff ff
	ff 01		 cmp	 DWORD PTR tv64[ebp], 1
  00701	74 14		 je	 SHORT $L189851
  00703	83 bd 44 ff ff
	ff 02		 cmp	 DWORD PTR tv64[ebp], 2
  0070a	74 14		 je	 SHORT $L189852
  0070c	83 bd 44 ff ff
	ff 03		 cmp	 DWORD PTR tv64[ebp], 3
  00713	74 14		 je	 SHORT $L189853
  00715	eb 1b		 jmp	 SHORT $L189854
$L189851:

; 185  : 	{
; 186  : 	case WAVEOUT:
; 187  : 		device=MIXERLINE_COMPONENTTYPE_SRC_WAVEOUT; break;

  00717	c7 45 f4 08 10
	00 00		 mov	 DWORD PTR _device$[ebp], 4104 ; 00001008H
  0071e	eb 19		 jmp	 SHORT $L189848
$L189852:

; 188  : 	case SYNTHESIZER:
; 189  : 		device=MIXERLINE_COMPONENTTYPE_SRC_SYNTHESIZER; break;

  00720	c7 45 f4 04 10
	00 00		 mov	 DWORD PTR _device$[ebp], 4100 ; 00001004H
  00727	eb 10		 jmp	 SHORT $L189848
$L189853:

; 190  : 	case MICROPHONE:
; 191  : 		// device=MIXERLINE_COMPONENTTYPE_SRC_COMPACTDISC; break; // cd 音量
; 192  : 		device=MIXERLINE_COMPONENTTYPE_SRC_MICROPHONE; break;   //麦克风音量

  00729	c7 45 f4 03 10
	00 00		 mov	 DWORD PTR _device$[ebp], 4099 ; 00001003H
  00730	eb 07		 jmp	 SHORT $L189848
$L189854:

; 193  : 		// device=MIXERLINE_COMPONENTTYPE_SRC_LINE; break;         //PC 扬声器音量
; 194  : 		//device=MIXERLINE_COMPONENTTYPE_SRC_COMPACTDISC; break;
; 195  : 
; 196  : 	default:
; 197  : 		device=MIXERLINE_COMPONENTTYPE_DST_SPEAKERS;

  00732	c7 45 f4 04 00
	00 00		 mov	 DWORD PTR _device$[ebp], 4
$L189848:

; 198  : 	}
; 199  : 
; 200  : 	if(mixerOpen(&hmixer, 0, 0, 0, 0)) return 0;

  00739	8b f4		 mov	 esi, esp
  0073b	6a 00		 push	 0
  0073d	6a 00		 push	 0
  0073f	6a 00		 push	 0
  00741	6a 00		 push	 0
  00743	8d 8d 4c ff ff
	ff		 lea	 ecx, DWORD PTR _hmixer$[ebp]
  00749	51		 push	 ecx
  0074a	ff 15 00 00 00
	00		 call	 DWORD PTR __imp__mixerOpen@20
  00750	3b f4		 cmp	 esi, esp
  00752	e8 00 00 00 00	 call	 __RTC_CheckEsp
  00757	85 c0		 test	 eax, eax
  00759	74 04		 je	 SHORT $L189855
  0075b	33 c0		 xor	 eax, eax
  0075d	eb 7e		 jmp	 SHORT $L189842
$L189855:

; 201  : 	if(!GetVolumeControl(hmixer,device,MIXERCONTROL_CONTROLTYPE_VOLUME,&volCtrl))

  0075f	8d 95 58 ff ff
	ff		 lea	 edx, DWORD PTR _volCtrl$[ebp]
  00765	52		 push	 edx
  00766	68 01 00 03 50	 push	 1342373889		; 50030001H
  0076b	8b 45 f4	 mov	 eax, DWORD PTR _device$[ebp]
  0076e	50		 push	 eax
  0076f	8b 8d 4c ff ff
	ff		 mov	 ecx, DWORD PTR _hmixer$[ebp]
  00775	51		 push	 ecx
  00776	8b 4d f8	 mov	 ecx, DWORD PTR _this$[ebp]
  00779	e8 00 00 00 00	 call	 ?GetVolumeControl@CMixer@@AAE_NPAUHMIXER__@@JJPAUtagMIXERCONTROLA@@@Z ; CMixer::GetVolumeControl
  0077e	0f b6 d0	 movzx	 edx, al
  00781	85 d2		 test	 edx, edx
  00783	75 1a		 jne	 SHORT $L189856

; 202  : 	{
; 203  : 
; 204  : 		mixerClose(hmixer);

  00785	8b f4		 mov	 esi, esp
  00787	8b 85 4c ff ff
	ff		 mov	 eax, DWORD PTR _hmixer$[ebp]
  0078d	50		 push	 eax
  0078e	ff 15 00 00 00
	00		 call	 DWORD PTR __imp__mixerClose@4
  00794	3b f4		 cmp	 esi, esp
  00796	e8 00 00 00 00	 call	 __RTC_CheckEsp

; 205  : 
; 206  : 		return 0;

  0079b	33 c0		 xor	 eax, eax
  0079d	eb 3e		 jmp	 SHORT $L189842
$L189856:

; 207  : 
; 208  : 	}
; 209  : 	rt=GetVolumeValue(hmixer,&volCtrl)*m_VolRange /volCtrl.Bounds.lMaximum;

  0079f	8d 8d 58 ff ff
	ff		 lea	 ecx, DWORD PTR _volCtrl$[ebp]
  007a5	51		 push	 ecx
  007a6	8b 95 4c ff ff
	ff		 mov	 edx, DWORD PTR _hmixer$[ebp]
  007ac	52		 push	 edx
  007ad	8b 4d f8	 mov	 ecx, DWORD PTR _this$[ebp]
  007b0	e8 00 00 00 00	 call	 ?GetVolumeValue@CMixer@@AAEIPAUHMIXER__@@PAUtagMIXERCONTROLA@@@Z ; CMixer::GetVolumeValue
  007b5	8b 4d f8	 mov	 ecx, DWORD PTR _this$[ebp]
  007b8	0f af 41 04	 imul	 eax, DWORD PTR [ecx+4]
  007bc	33 d2		 xor	 edx, edx
  007be	f7 75 c0	 div	 DWORD PTR _volCtrl$[ebp+104]
  007c1	89 45 f0	 mov	 DWORD PTR _rt$[ebp], eax

; 210  : 	mixerClose(hmixer);

  007c4	8b f4		 mov	 esi, esp
  007c6	8b 95 4c ff ff
	ff		 mov	 edx, DWORD PTR _hmixer$[ebp]
  007cc	52		 push	 edx
  007cd	ff 15 00 00 00
	00		 call	 DWORD PTR __imp__mixerClose@4
  007d3	3b f4		 cmp	 esi, esp
  007d5	e8 00 00 00 00	 call	 __RTC_CheckEsp

; 211  : 	return rt;

  007da	8b 45 f0	 mov	 eax, DWORD PTR _rt$[ebp]
$L189842:

; 212  : 
; 213  : }

  007dd	52		 push	 edx
  007de	8b cd		 mov	 ecx, ebp
  007e0	50		 push	 eax
  007e1	8d 15 00 00 00
	00		 lea	 edx, DWORD PTR $L190401
  007e7	e8 00 00 00 00	 call	 @_RTC_CheckStackVars@8
  007ec	58		 pop	 eax
  007ed	5a		 pop	 edx
  007ee	8b 4d fc	 mov	 ecx, DWORD PTR __$ArrayPad$[ebp]
  007f1	e8 00 00 00 00	 call	 @__security_check_cookie@4
  007f6	5f		 pop	 edi
  007f7	5e		 pop	 esi
  007f8	81 c4 bc 00 00
	00		 add	 esp, 188		; 000000bcH
  007fe	3b ec		 cmp	 ebp, esp
  00800	e8 00 00 00 00	 call	 __RTC_CheckEsp
  00805	8b e5		 mov	 esp, ebp
  00807	5d		 pop	 ebp
  00808	c2 04 00	 ret	 4
$L190401:
  0080b	02 00 00 00	 DD	 2
  0080f	00 00 00 00	 DD	 $L190400
$L190400:
  00813	58 ff ff ff	 DD	 -168			; ffffff58H
  00817	94 00 00 00	 DD	 148			; 00000094H
  0081b	00 00 00 00	 DD	 $L190397
  0081f	4c ff ff ff	 DD	 -180			; ffffff4cH
  00823	04 00 00 00	 DD	 4
  00827	00 00 00 00	 DD	 $L190398
$L190398:
  0082b	68		 DB	 104			; 00000068H
  0082c	6d		 DB	 109			; 0000006dH
  0082d	69		 DB	 105			; 00000069H
  0082e	78		 DB	 120			; 00000078H
  0082f	65		 DB	 101			; 00000065H
  00830	72		 DB	 114			; 00000072H
  00831	00		 DB	 0
$L190397:
  00832	76		 DB	 118			; 00000076H
  00833	6f		 DB	 111			; 0000006fH
  00834	6c		 DB	 108			; 0000006cH
  00835	43		 DB	 67			; 00000043H
  00836	74		 DB	 116			; 00000074H
  00837	72		 DB	 114			; 00000072H
  00838	6c		 DB	 108			; 0000006cH
  00839	00		 DB	 0
?GetVolume@CMixer@@QAEIW4MixerDeice@1@@Z ENDP		; CMixer::GetVolume
_TEXT	ENDS
PUBLIC	?SetVolume@CMixer@@QAE_NW4MixerDeice@1@J@Z	; CMixer::SetVolume
; Function compile flags: /Odt /RTCsu
_TEXT	SEGMENT
tv64 = -188						; size = 4
_hmixer$ = -180						; size = 4
_volCtrl$ = -168					; size = 148
_rc$ = -13						; size = 1
_device$ = -12						; size = 4
_this$ = -8						; size = 4
__$ArrayPad$ = -4					; size = 4
__$ReturnAddr$ = 4					; size = 4
_dev$ = 8						; size = 4
_vol$ = 12						; size = 4
?SetVolume@CMixer@@QAE_NW4MixerDeice@1@J@Z PROC NEAR	; CMixer::SetVolume
; _this$ = ecx

; 218  : {

  00840	55		 push	 ebp
  00841	8b ec		 mov	 ebp, esp
  00843	81 ec bc 00 00
	00		 sub	 esp, 188		; 000000bcH
  00849	56		 push	 esi
  0084a	57		 push	 edi
  0084b	51		 push	 ecx
  0084c	8d bd 44 ff ff
	ff		 lea	 edi, DWORD PTR [ebp-188]
  00852	b9 2f 00 00 00	 mov	 ecx, 47			; 0000002fH
  00857	b8 cc cc cc cc	 mov	 eax, -858993460		; ccccccccH
  0085c	f3 ab		 rep stosd
  0085e	59		 pop	 ecx
  0085f	a1 00 00 00 00	 mov	 eax, DWORD PTR ___security_cookie
  00864	89 45 fc	 mov	 DWORD PTR __$ArrayPad$[ebp], eax
  00867	89 4d f8	 mov	 DWORD PTR _this$[ebp], ecx

; 219  : 	// dev =0,1,2   分别表示主音量,波形,MIDI ,LINE IN
; 220  : 	// vol=0-m_VolRange      表示音量的大小 , 设置与返回音量的值用的是百分比，即音量从0 - m_VolRange ，而不是设备的绝对值
; 221  : 	// retrun false 表示设置音量的大小的操作不成功
; 222  : 	// retrun true 表示设置音量的大小的操作成功
; 223  : 
; 224  : 	long device;
; 225  : 	bool rc=false;

  0086a	c6 45 f3 00	 mov	 BYTE PTR _rc$[ebp], 0

; 226  : 	MIXERCONTROL volCtrl;
; 227  : 	HMIXER hmixer;
; 228  : 	switch (dev)

  0086e	8b 45 08	 mov	 eax, DWORD PTR _dev$[ebp]
  00871	89 85 44 ff ff
	ff		 mov	 DWORD PTR tv64[ebp], eax
  00877	83 bd 44 ff ff
	ff 01		 cmp	 DWORD PTR tv64[ebp], 1
  0087e	74 14		 je	 SHORT $L189870
  00880	83 bd 44 ff ff
	ff 02		 cmp	 DWORD PTR tv64[ebp], 2
  00887	74 14		 je	 SHORT $L189871
  00889	83 bd 44 ff ff
	ff 03		 cmp	 DWORD PTR tv64[ebp], 3
  00890	74 14		 je	 SHORT $L189872
  00892	eb 1b		 jmp	 SHORT $L189873
$L189870:

; 229  : 	{
; 230  : 	case WAVEOUT:
; 231  : 		device=MIXERLINE_COMPONENTTYPE_SRC_WAVEOUT; break;

  00894	c7 45 f4 08 10
	00 00		 mov	 DWORD PTR _device$[ebp], 4104 ; 00001008H
  0089b	eb 19		 jmp	 SHORT $L189867
$L189871:

; 232  : 	case SYNTHESIZER:
; 233  : 		device=MIXERLINE_COMPONENTTYPE_SRC_SYNTHESIZER; break;

  0089d	c7 45 f4 04 10
	00 00		 mov	 DWORD PTR _device$[ebp], 4100 ; 00001004H
  008a4	eb 10		 jmp	 SHORT $L189867
$L189872:

; 234  : 	case MICROPHONE:
; 235  : 
; 236  : 		// device=MIXERLINE_COMPONENTTYPE_SRC_COMPACTDISC; break; // cd 音量
; 237  : 		device=MIXERLINE_COMPONENTTYPE_SRC_MICROPHONE; break;   //麦克风音量

  008a6	c7 45 f4 03 10
	00 00		 mov	 DWORD PTR _device$[ebp], 4099 ; 00001003H
  008ad	eb 07		 jmp	 SHORT $L189867
$L189873:

; 238  : 		// device=MIXERLINE_COMPONENTTYPE_SRC_LINE; break;         //PC 扬声器音量
; 239  : 		//device=MIXERLINE_COMPONENTTYPE_SRC_COMPACTDISC; break;
; 240  : 	default:
; 241  : 		device=MIXERLINE_COMPONENTTYPE_DST_SPEAKERS;

  008af	c7 45 f4 04 00
	00 00		 mov	 DWORD PTR _device$[ebp], 4
$L189867:

; 242  : 	}
; 243  : 
; 244  : 	if(mixerOpen(&hmixer, 0, 0, 0, 0)) return 0;

  008b6	8b f4		 mov	 esi, esp
  008b8	6a 00		 push	 0
  008ba	6a 00		 push	 0
  008bc	6a 00		 push	 0
  008be	6a 00		 push	 0
  008c0	8d 8d 4c ff ff
	ff		 lea	 ecx, DWORD PTR _hmixer$[ebp]
  008c6	51		 push	 ecx
  008c7	ff 15 00 00 00
	00		 call	 DWORD PTR __imp__mixerOpen@20
  008cd	3b f4		 cmp	 esi, esp
  008cf	e8 00 00 00 00	 call	 __RTC_CheckEsp
  008d4	85 c0		 test	 eax, eax
  008d6	74 04		 je	 SHORT $L189874
  008d8	32 c0		 xor	 al, al
  008da	eb 75		 jmp	 SHORT $L189861
$L189874:

; 245  : 
; 246  : 	if(GetVolumeControl(hmixer,device,MIXERCONTROL_CONTROLTYPE_VOLUME,&volCtrl))

  008dc	8d 95 58 ff ff
	ff		 lea	 edx, DWORD PTR _volCtrl$[ebp]
  008e2	52		 push	 edx
  008e3	68 01 00 03 50	 push	 1342373889		; 50030001H
  008e8	8b 45 f4	 mov	 eax, DWORD PTR _device$[ebp]
  008eb	50		 push	 eax
  008ec	8b 8d 4c ff ff
	ff		 mov	 ecx, DWORD PTR _hmixer$[ebp]
  008f2	51		 push	 ecx
  008f3	8b 4d f8	 mov	 ecx, DWORD PTR _this$[ebp]
  008f6	e8 00 00 00 00	 call	 ?GetVolumeControl@CMixer@@AAE_NPAUHMIXER__@@JJPAUtagMIXERCONTROLA@@@Z ; CMixer::GetVolumeControl
  008fb	0f b6 d0	 movzx	 edx, al
  008fe	85 d2		 test	 edx, edx
  00900	74 36		 je	 SHORT $L189875

; 247  : 	{
; 248  : 		vol=vol*volCtrl.Bounds.lMaximum/m_VolRange ;

  00902	8b 45 0c	 mov	 eax, DWORD PTR _vol$[ebp]
  00905	0f af 45 c0	 imul	 eax, DWORD PTR _volCtrl$[ebp+104]
  00909	8b 4d f8	 mov	 ecx, DWORD PTR _this$[ebp]
  0090c	99		 cdq
  0090d	f7 79 04	 idiv	 DWORD PTR [ecx+4]
  00910	89 45 0c	 mov	 DWORD PTR _vol$[ebp], eax

; 249  : 		if(SetVolumeValue(hmixer,&volCtrl,vol))

  00913	8b 55 0c	 mov	 edx, DWORD PTR _vol$[ebp]
  00916	52		 push	 edx
  00917	8d 85 58 ff ff
	ff		 lea	 eax, DWORD PTR _volCtrl$[ebp]
  0091d	50		 push	 eax
  0091e	8b 8d 4c ff ff
	ff		 mov	 ecx, DWORD PTR _hmixer$[ebp]
  00924	51		 push	 ecx
  00925	8b 4d f8	 mov	 ecx, DWORD PTR _this$[ebp]
  00928	e8 00 00 00 00	 call	 ?SetVolumeValue@CMixer@@AAE_NPAUHMIXER__@@PAUtagMIXERCONTROLA@@J@Z ; CMixer::SetVolumeValue
  0092d	0f b6 d0	 movzx	 edx, al
  00930	85 d2		 test	 edx, edx
  00932	74 04		 je	 SHORT $L189875

; 250  : 			rc=true;

  00934	c6 45 f3 01	 mov	 BYTE PTR _rc$[ebp], 1
$L189875:

; 251  : 	}
; 252  : 	mixerClose(hmixer);

  00938	8b f4		 mov	 esi, esp
  0093a	8b 85 4c ff ff
	ff		 mov	 eax, DWORD PTR _hmixer$[ebp]
  00940	50		 push	 eax
  00941	ff 15 00 00 00
	00		 call	 DWORD PTR __imp__mixerClose@4
  00947	3b f4		 cmp	 esi, esp
  00949	e8 00 00 00 00	 call	 __RTC_CheckEsp

; 253  : 	return rc;

  0094e	8a 45 f3	 mov	 al, BYTE PTR _rc$[ebp]
$L189861:

; 254  : }

  00951	52		 push	 edx
  00952	8b cd		 mov	 ecx, ebp
  00954	50		 push	 eax
  00955	8d 15 00 00 00
	00		 lea	 edx, DWORD PTR $L190408
  0095b	e8 00 00 00 00	 call	 @_RTC_CheckStackVars@8
  00960	58		 pop	 eax
  00961	5a		 pop	 edx
  00962	8b 4d fc	 mov	 ecx, DWORD PTR __$ArrayPad$[ebp]
  00965	e8 00 00 00 00	 call	 @__security_check_cookie@4
  0096a	5f		 pop	 edi
  0096b	5e		 pop	 esi
  0096c	81 c4 bc 00 00
	00		 add	 esp, 188		; 000000bcH
  00972	3b ec		 cmp	 ebp, esp
  00974	e8 00 00 00 00	 call	 __RTC_CheckEsp
  00979	8b e5		 mov	 esp, ebp
  0097b	5d		 pop	 ebp
  0097c	c2 08 00	 ret	 8
$L190408:
  0097f	02 00 00 00	 DD	 2
  00983	00 00 00 00	 DD	 $L190407
$L190407:
  00987	58 ff ff ff	 DD	 -168			; ffffff58H
  0098b	94 00 00 00	 DD	 148			; 00000094H
  0098f	00 00 00 00	 DD	 $L190404
  00993	4c ff ff ff	 DD	 -180			; ffffff4cH
  00997	04 00 00 00	 DD	 4
  0099b	00 00 00 00	 DD	 $L190405
$L190405:
  0099f	68		 DB	 104			; 00000068H
  009a0	6d		 DB	 109			; 0000006dH
  009a1	69		 DB	 105			; 00000069H
  009a2	78		 DB	 120			; 00000078H
  009a3	65		 DB	 101			; 00000065H
  009a4	72		 DB	 114			; 00000072H
  009a5	00		 DB	 0
$L190404:
  009a6	76		 DB	 118			; 00000076H
  009a7	6f		 DB	 111			; 0000006fH
  009a8	6c		 DB	 108			; 0000006cH
  009a9	43		 DB	 67			; 00000043H
  009aa	74		 DB	 116			; 00000074H
  009ab	72		 DB	 114			; 00000072H
  009ac	6c		 DB	 108			; 0000006cH
  009ad	00		 DB	 0
?SetVolume@CMixer@@QAE_NW4MixerDeice@1@J@Z ENDP		; CMixer::SetVolume
_TEXT	ENDS
PUBLIC	?SetMute@CMixer@@QAE_NW4MixerDeice@1@_N@Z	; CMixer::SetMute
; Function compile flags: /Odt /RTCsu
_TEXT	SEGMENT
tv64 = -188						; size = 4
_hmixer$ = -180						; size = 4
_volCtrl$ = -168					; size = 148
_rc$ = -13						; size = 1
_device$ = -12						; size = 4
_this$ = -8						; size = 4
__$ArrayPad$ = -4					; size = 4
__$ReturnAddr$ = 4					; size = 4
_dev$ = 8						; size = 4
_vol$ = 12						; size = 1
?SetMute@CMixer@@QAE_NW4MixerDeice@1@_N@Z PROC NEAR	; CMixer::SetMute
; _this$ = ecx

; 259  : {

  009b0	55		 push	 ebp
  009b1	8b ec		 mov	 ebp, esp
  009b3	81 ec bc 00 00
	00		 sub	 esp, 188		; 000000bcH
  009b9	56		 push	 esi
  009ba	57		 push	 edi
  009bb	51		 push	 ecx
  009bc	8d bd 44 ff ff
	ff		 lea	 edi, DWORD PTR [ebp-188]
  009c2	b9 2f 00 00 00	 mov	 ecx, 47			; 0000002fH
  009c7	b8 cc cc cc cc	 mov	 eax, -858993460		; ccccccccH
  009cc	f3 ab		 rep stosd
  009ce	59		 pop	 ecx
  009cf	a1 00 00 00 00	 mov	 eax, DWORD PTR ___security_cookie
  009d4	89 45 fc	 mov	 DWORD PTR __$ArrayPad$[ebp], eax
  009d7	89 4d f8	 mov	 DWORD PTR _this$[ebp], ecx

; 260  : 	// dev =0,1,2   分别表示主音量,波形,MIDI ,LINE IN
; 261  : 	// vol=0,1      分别表示取消静音,设置静音
; 262  : 	// retrun false 表示取消或设置静音操作不成功
; 263  : 	// retrun true 表示取消或设置静音操作成功
; 264  : 
; 265  : 	long device;
; 266  : 	bool rc=false;

  009da	c6 45 f3 00	 mov	 BYTE PTR _rc$[ebp], 0

; 267  : 	MIXERCONTROL volCtrl;
; 268  : 	HMIXER hmixer;
; 269  : 	switch (dev)

  009de	8b 45 08	 mov	 eax, DWORD PTR _dev$[ebp]
  009e1	89 85 44 ff ff
	ff		 mov	 DWORD PTR tv64[ebp], eax
  009e7	83 bd 44 ff ff
	ff 01		 cmp	 DWORD PTR tv64[ebp], 1
  009ee	74 14		 je	 SHORT $L189890
  009f0	83 bd 44 ff ff
	ff 02		 cmp	 DWORD PTR tv64[ebp], 2
  009f7	74 14		 je	 SHORT $L189891
  009f9	83 bd 44 ff ff
	ff 03		 cmp	 DWORD PTR tv64[ebp], 3
  00a00	74 14		 je	 SHORT $L189892
  00a02	eb 1b		 jmp	 SHORT $L189893
$L189890:

; 270  : 	{
; 271  : 	case WAVEOUT:
; 272  : 		device=MIXERLINE_COMPONENTTYPE_SRC_WAVEOUT; break;

  00a04	c7 45 f4 08 10
	00 00		 mov	 DWORD PTR _device$[ebp], 4104 ; 00001008H
  00a0b	eb 19		 jmp	 SHORT $L189887
$L189891:

; 273  : 	case SYNTHESIZER:
; 274  : 		device=MIXERLINE_COMPONENTTYPE_SRC_SYNTHESIZER; break;

  00a0d	c7 45 f4 04 10
	00 00		 mov	 DWORD PTR _device$[ebp], 4100 ; 00001004H
  00a14	eb 10		 jmp	 SHORT $L189887
$L189892:

; 275  : 	case MICROPHONE:
; 276  : 		// device=MIXERLINE_COMPONENTTYPE_SRC_COMPACTDISC; break; // cd 音量
; 277  : 		device=MIXERLINE_COMPONENTTYPE_SRC_MICROPHONE; break;   //麦克风音量

  00a16	c7 45 f4 03 10
	00 00		 mov	 DWORD PTR _device$[ebp], 4099 ; 00001003H
  00a1d	eb 07		 jmp	 SHORT $L189887
$L189893:

; 278  : 		// device=MIXERLINE_COMPONENTTYPE_SRC_LINE; break;         //PC 扬声器音量
; 279  : 		//device=MIXERLINE_COMPONENTTYPE_SRC_COMPACTDISC; break;
; 280  : 
; 281  : 	default:
; 282  : 		device=MIXERLINE_COMPONENTTYPE_DST_SPEAKERS;

  00a1f	c7 45 f4 04 00
	00 00		 mov	 DWORD PTR _device$[ebp], 4
$L189887:

; 283  : 	}
; 284  : 
; 285  : 	if(mixerOpen(&hmixer, 0, 0, 0, 0)) return 0;

  00a26	8b f4		 mov	 esi, esp
  00a28	6a 00		 push	 0
  00a2a	6a 00		 push	 0
  00a2c	6a 00		 push	 0
  00a2e	6a 00		 push	 0
  00a30	8d 8d 4c ff ff
	ff		 lea	 ecx, DWORD PTR _hmixer$[ebp]
  00a36	51		 push	 ecx
  00a37	ff 15 00 00 00
	00		 call	 DWORD PTR __imp__mixerOpen@20
  00a3d	3b f4		 cmp	 esi, esp
  00a3f	e8 00 00 00 00	 call	 __RTC_CheckEsp
  00a44	85 c0		 test	 eax, eax
  00a46	74 04		 je	 SHORT $L189894
  00a48	32 c0		 xor	 al, al
  00a4a	eb 64		 jmp	 SHORT $L189881
$L189894:

; 286  : 	if(GetVolumeControl(hmixer,device,MIXERCONTROL_CONTROLTYPE_MUTE,&volCtrl))

  00a4c	8d 95 58 ff ff
	ff		 lea	 edx, DWORD PTR _volCtrl$[ebp]
  00a52	52		 push	 edx
  00a53	68 02 00 01 20	 push	 536936450		; 20010002H
  00a58	8b 45 f4	 mov	 eax, DWORD PTR _device$[ebp]
  00a5b	50		 push	 eax
  00a5c	8b 8d 4c ff ff
	ff		 mov	 ecx, DWORD PTR _hmixer$[ebp]
  00a62	51		 push	 ecx
  00a63	8b 4d f8	 mov	 ecx, DWORD PTR _this$[ebp]
  00a66	e8 00 00 00 00	 call	 ?GetVolumeControl@CMixer@@AAE_NPAUHMIXER__@@JJPAUtagMIXERCONTROLA@@@Z ; CMixer::GetVolumeControl
  00a6b	0f b6 d0	 movzx	 edx, al
  00a6e	85 d2		 test	 edx, edx
  00a70	74 25		 je	 SHORT $L189895

; 287  : 		if(SetMuteValue(hmixer,&volCtrl,(bool)vol))

  00a72	8a 45 0c	 mov	 al, BYTE PTR _vol$[ebp]
  00a75	50		 push	 eax
  00a76	8d 8d 58 ff ff
	ff		 lea	 ecx, DWORD PTR _volCtrl$[ebp]
  00a7c	51		 push	 ecx
  00a7d	8b 95 4c ff ff
	ff		 mov	 edx, DWORD PTR _hmixer$[ebp]
  00a83	52		 push	 edx
  00a84	8b 4d f8	 mov	 ecx, DWORD PTR _this$[ebp]
  00a87	e8 00 00 00 00	 call	 ?SetMuteValue@CMixer@@AAE_NPAUHMIXER__@@PAUtagMIXERCONTROLA@@_N@Z ; CMixer::SetMuteValue
  00a8c	0f b6 c0	 movzx	 eax, al
  00a8f	85 c0		 test	 eax, eax
  00a91	74 04		 je	 SHORT $L189895

; 288  : 			rc=true;

  00a93	c6 45 f3 01	 mov	 BYTE PTR _rc$[ebp], 1
$L189895:

; 289  : 	mixerClose(hmixer);

  00a97	8b f4		 mov	 esi, esp
  00a99	8b 8d 4c ff ff
	ff		 mov	 ecx, DWORD PTR _hmixer$[ebp]
  00a9f	51		 push	 ecx
  00aa0	ff 15 00 00 00
	00		 call	 DWORD PTR __imp__mixerClose@4
  00aa6	3b f4		 cmp	 esi, esp
  00aa8	e8 00 00 00 00	 call	 __RTC_CheckEsp

; 290  : 	return rc;

  00aad	8a 45 f3	 mov	 al, BYTE PTR _rc$[ebp]
$L189881:

; 291  : }

  00ab0	52		 push	 edx
  00ab1	8b cd		 mov	 ecx, ebp
  00ab3	50		 push	 eax
  00ab4	8d 15 00 00 00
	00		 lea	 edx, DWORD PTR $L190415
  00aba	e8 00 00 00 00	 call	 @_RTC_CheckStackVars@8
  00abf	58		 pop	 eax
  00ac0	5a		 pop	 edx
  00ac1	8b 4d fc	 mov	 ecx, DWORD PTR __$ArrayPad$[ebp]
  00ac4	e8 00 00 00 00	 call	 @__security_check_cookie@4
  00ac9	5f		 pop	 edi
  00aca	5e		 pop	 esi
  00acb	81 c4 bc 00 00
	00		 add	 esp, 188		; 000000bcH
  00ad1	3b ec		 cmp	 ebp, esp
  00ad3	e8 00 00 00 00	 call	 __RTC_CheckEsp
  00ad8	8b e5		 mov	 esp, ebp
  00ada	5d		 pop	 ebp
  00adb	c2 08 00	 ret	 8
$L190415:
  00ade	02 00 00 00	 DD	 2
  00ae2	00 00 00 00	 DD	 $L190414
$L190414:
  00ae6	58 ff ff ff	 DD	 -168			; ffffff58H
  00aea	94 00 00 00	 DD	 148			; 00000094H
  00aee	00 00 00 00	 DD	 $L190411
  00af2	4c ff ff ff	 DD	 -180			; ffffff4cH
  00af6	04 00 00 00	 DD	 4
  00afa	00 00 00 00	 DD	 $L190412
$L190412:
  00afe	68		 DB	 104			; 00000068H
  00aff	6d		 DB	 109			; 0000006dH
  00b00	69		 DB	 105			; 00000069H
  00b01	78		 DB	 120			; 00000078H
  00b02	65		 DB	 101			; 00000065H
  00b03	72		 DB	 114			; 00000072H
  00b04	00		 DB	 0
$L190411:
  00b05	76		 DB	 118			; 00000076H
  00b06	6f		 DB	 111			; 0000006fH
  00b07	6c		 DB	 108			; 0000006cH
  00b08	43		 DB	 67			; 00000043H
  00b09	74		 DB	 116			; 00000074H
  00b0a	72		 DB	 114			; 00000072H
  00b0b	6c		 DB	 108			; 0000006cH
  00b0c	00		 DB	 0
?SetMute@CMixer@@QAE_NW4MixerDeice@1@_N@Z ENDP		; CMixer::SetMute
_TEXT	ENDS
PUBLIC	?GetMute@CMixer@@QAE_NW4MixerDeice@1@@Z		; CMixer::GetMute
; Function compile flags: /Odt /RTCsu
_TEXT	SEGMENT
tv64 = -188						; size = 4
_hmixer$ = -180						; size = 4
_volCtrl$ = -168					; size = 148
_rc$ = -13						; size = 1
_device$ = -12						; size = 4
_this$ = -8						; size = 4
__$ArrayPad$ = -4					; size = 4
__$ReturnAddr$ = 4					; size = 4
_dev$ = 8						; size = 4
?GetMute@CMixer@@QAE_NW4MixerDeice@1@@Z PROC NEAR	; CMixer::GetMute
; _this$ = ecx

; 296  : {

  00b10	55		 push	 ebp
  00b11	8b ec		 mov	 ebp, esp
  00b13	81 ec bc 00 00
	00		 sub	 esp, 188		; 000000bcH
  00b19	56		 push	 esi
  00b1a	57		 push	 edi
  00b1b	51		 push	 ecx
  00b1c	8d bd 44 ff ff
	ff		 lea	 edi, DWORD PTR [ebp-188]
  00b22	b9 2f 00 00 00	 mov	 ecx, 47			; 0000002fH
  00b27	b8 cc cc cc cc	 mov	 eax, -858993460		; ccccccccH
  00b2c	f3 ab		 rep stosd
  00b2e	59		 pop	 ecx
  00b2f	a1 00 00 00 00	 mov	 eax, DWORD PTR ___security_cookie
  00b34	89 45 fc	 mov	 DWORD PTR __$ArrayPad$[ebp], eax
  00b37	89 4d f8	 mov	 DWORD PTR _this$[ebp], ecx

; 297  : 	//dev =0,1,2 分别表示主音量，波形,MIDI ,LINE IN
; 298  : 	// retrun false 表示没有静音
; 299  : 	// retrun true 表示静音
; 300  : 	long device;
; 301  : 	bool rc=false;

  00b3a	c6 45 f3 00	 mov	 BYTE PTR _rc$[ebp], 0

; 302  : 	MIXERCONTROL volCtrl;
; 303  : 	HMIXER hmixer;
; 304  : 	switch (dev)

  00b3e	8b 45 08	 mov	 eax, DWORD PTR _dev$[ebp]
  00b41	89 85 44 ff ff
	ff		 mov	 DWORD PTR tv64[ebp], eax
  00b47	83 bd 44 ff ff
	ff 01		 cmp	 DWORD PTR tv64[ebp], 1
  00b4e	74 14		 je	 SHORT $L189910
  00b50	83 bd 44 ff ff
	ff 02		 cmp	 DWORD PTR tv64[ebp], 2
  00b57	74 14		 je	 SHORT $L189911
  00b59	83 bd 44 ff ff
	ff 03		 cmp	 DWORD PTR tv64[ebp], 3
  00b60	74 14		 je	 SHORT $L189912
  00b62	eb 1b		 jmp	 SHORT $L189913
$L189910:

; 305  : 	{
; 306  : 	case WAVEOUT:
; 307  : 		device=MIXERLINE_COMPONENTTYPE_SRC_WAVEOUT; break;

  00b64	c7 45 f4 08 10
	00 00		 mov	 DWORD PTR _device$[ebp], 4104 ; 00001008H
  00b6b	eb 19		 jmp	 SHORT $L189907
$L189911:

; 308  : 	case SYNTHESIZER:
; 309  : 		device=MIXERLINE_COMPONENTTYPE_SRC_SYNTHESIZER; break;

  00b6d	c7 45 f4 04 10
	00 00		 mov	 DWORD PTR _device$[ebp], 4100 ; 00001004H
  00b74	eb 10		 jmp	 SHORT $L189907
$L189912:

; 310  : 	case MICROPHONE:  
; 311  : 		// device=MIXERLINE_COMPONENTTYPE_SRC_COMPACTDISC; break; // cd 音量
; 312  : 		//device=MIXERLINE_COMPONENTTYPE_SRC_MICROPHONE; break;   //麦克风音量
; 313  : 		// device=MIXERLINE_COMPONENTTYPE_SRC_LINE; break;         //PC 扬声器音量
; 314  : 		//device=MIXERLINE_COMPONENTTYPE_SRC_COMPACTDISC; break;
; 315  : 		device=MIXERLINE_COMPONENTTYPE_DST_WAVEIN; break;

  00b76	c7 45 f4 07 00
	00 00		 mov	 DWORD PTR _device$[ebp], 7
  00b7d	eb 07		 jmp	 SHORT $L189907
$L189913:

; 316  : 	default:
; 317  : 		device=MIXERLINE_COMPONENTTYPE_DST_SPEAKERS;

  00b7f	c7 45 f4 04 00
	00 00		 mov	 DWORD PTR _device$[ebp], 4
$L189907:

; 318  : 	}
; 319  : 
; 320  : 	if(mixerOpen(&hmixer, 0, 0, 0, 0)) return 0;

  00b86	8b f4		 mov	 esi, esp
  00b88	6a 00		 push	 0
  00b8a	6a 00		 push	 0
  00b8c	6a 00		 push	 0
  00b8e	6a 00		 push	 0
  00b90	8d 8d 4c ff ff
	ff		 lea	 ecx, DWORD PTR _hmixer$[ebp]
  00b96	51		 push	 ecx
  00b97	ff 15 00 00 00
	00		 call	 DWORD PTR __imp__mixerOpen@20
  00b9d	3b f4		 cmp	 esi, esp
  00b9f	e8 00 00 00 00	 call	 __RTC_CheckEsp
  00ba4	85 c0		 test	 eax, eax
  00ba6	74 04		 je	 SHORT $L189914
  00ba8	32 c0		 xor	 al, al
  00baa	eb 5d		 jmp	 SHORT $L189901
$L189914:

; 321  : 
; 322  : 	if(GetVolumeControl(hmixer,device,MIXERCONTROL_CONTROLTYPE_MUTE,&volCtrl))

  00bac	8d 95 58 ff ff
	ff		 lea	 edx, DWORD PTR _volCtrl$[ebp]
  00bb2	52		 push	 edx
  00bb3	68 02 00 01 20	 push	 536936450		; 20010002H
  00bb8	8b 45 f4	 mov	 eax, DWORD PTR _device$[ebp]
  00bbb	50		 push	 eax
  00bbc	8b 8d 4c ff ff
	ff		 mov	 ecx, DWORD PTR _hmixer$[ebp]
  00bc2	51		 push	 ecx
  00bc3	8b 4d f8	 mov	 ecx, DWORD PTR _this$[ebp]
  00bc6	e8 00 00 00 00	 call	 ?GetVolumeControl@CMixer@@AAE_NPAUHMIXER__@@JJPAUtagMIXERCONTROLA@@@Z ; CMixer::GetVolumeControl
  00bcb	0f b6 d0	 movzx	 edx, al
  00bce	85 d2		 test	 edx, edx
  00bd0	74 1e		 je	 SHORT $L189915

; 323  : 		rc=GetMuteValue(hmixer,&volCtrl);

  00bd2	8d 85 58 ff ff
	ff		 lea	 eax, DWORD PTR _volCtrl$[ebp]
  00bd8	50		 push	 eax
  00bd9	8b 8d 4c ff ff
	ff		 mov	 ecx, DWORD PTR _hmixer$[ebp]
  00bdf	51		 push	 ecx
  00be0	8b 4d f8	 mov	 ecx, DWORD PTR _this$[ebp]
  00be3	e8 00 00 00 00	 call	 ?GetMuteValue@CMixer@@AAEJPAUHMIXER__@@PAUtagMIXERCONTROLA@@@Z ; CMixer::GetMuteValue
  00be8	85 c0		 test	 eax, eax
  00bea	0f 95 c2	 setne	 dl
  00bed	88 55 f3	 mov	 BYTE PTR _rc$[ebp], dl
$L189915:

; 324  : 	mixerClose(hmixer);

  00bf0	8b f4		 mov	 esi, esp
  00bf2	8b 85 4c ff ff
	ff		 mov	 eax, DWORD PTR _hmixer$[ebp]
  00bf8	50		 push	 eax
  00bf9	ff 15 00 00 00
	00		 call	 DWORD PTR __imp__mixerClose@4
  00bff	3b f4		 cmp	 esi, esp
  00c01	e8 00 00 00 00	 call	 __RTC_CheckEsp

; 325  : 	return rc;

  00c06	8a 45 f3	 mov	 al, BYTE PTR _rc$[ebp]
$L189901:

; 326  : 
; 327  : }

  00c09	52		 push	 edx
  00c0a	8b cd		 mov	 ecx, ebp
  00c0c	50		 push	 eax
  00c0d	8d 15 00 00 00
	00		 lea	 edx, DWORD PTR $L190422
  00c13	e8 00 00 00 00	 call	 @_RTC_CheckStackVars@8
  00c18	58		 pop	 eax
  00c19	5a		 pop	 edx
  00c1a	8b 4d fc	 mov	 ecx, DWORD PTR __$ArrayPad$[ebp]
  00c1d	e8 00 00 00 00	 call	 @__security_check_cookie@4
  00c22	5f		 pop	 edi
  00c23	5e		 pop	 esi
  00c24	81 c4 bc 00 00
	00		 add	 esp, 188		; 000000bcH
  00c2a	3b ec		 cmp	 ebp, esp
  00c2c	e8 00 00 00 00	 call	 __RTC_CheckEsp
  00c31	8b e5		 mov	 esp, ebp
  00c33	5d		 pop	 ebp
  00c34	c2 04 00	 ret	 4
$L190422:
  00c37	02 00 00 00	 DD	 2
  00c3b	00 00 00 00	 DD	 $L190421
$L190421:
  00c3f	58 ff ff ff	 DD	 -168			; ffffff58H
  00c43	94 00 00 00	 DD	 148			; 00000094H
  00c47	00 00 00 00	 DD	 $L190418
  00c4b	4c ff ff ff	 DD	 -180			; ffffff4cH
  00c4f	04 00 00 00	 DD	 4
  00c53	00 00 00 00	 DD	 $L190419
$L190419:
  00c57	68		 DB	 104			; 00000068H
  00c58	6d		 DB	 109			; 0000006dH
  00c59	69		 DB	 105			; 00000069H
  00c5a	78		 DB	 120			; 00000078H
  00c5b	65		 DB	 101			; 00000065H
  00c5c	72		 DB	 114			; 00000072H
  00c5d	00		 DB	 0
$L190418:
  00c5e	76		 DB	 118			; 00000076H
  00c5f	6f		 DB	 111			; 0000006fH
  00c60	6c		 DB	 108			; 0000006cH
  00c61	43		 DB	 67			; 00000043H
  00c62	74		 DB	 116			; 00000074H
  00c63	72		 DB	 114			; 00000072H
  00c64	6c		 DB	 108			; 0000006cH
  00c65	00		 DB	 0
?GetMute@CMixer@@QAE_NW4MixerDeice@1@@Z ENDP		; CMixer::GetMute
_TEXT	ENDS
END
