; Listing generated by Microsoft (R) Optimizing Compiler Version 13.10.3077 

	TITLE	.\src\Gui\CommonControl\MyBtnTreeCtrl.cpp
	.386P
include listing.inc
if @Version gt 510
.model FLAT
else
_TEXT	SEGMENT PARA USE32 PUBLIC 'CODE'
_TEXT	ENDS
_DATA	SEGMENT DWORD USE32 PUBLIC 'DATA'
_DATA	ENDS
CONST	SEGMENT DWORD USE32 PUBLIC 'CONST'
CONST	ENDS
_BSS	SEGMENT DWORD USE32 PUBLIC 'BSS'
_BSS	ENDS
$$SYMBOLS	SEGMENT BYTE USE32 'DEBSYM'
$$SYMBOLS	ENDS
_TLS	SEGMENT DWORD USE32 PUBLIC 'TLS'
_TLS	ENDS
;	COMDAT ??_C@_0EN@IBFBLEEG@D?3?2Program?5Files?5?$CIx86?$CJ?2Microsoft@
CONST	SEGMENT DWORD USE32 PUBLIC 'CONST'
CONST	ENDS
rdata$r	SEGMENT DWORD USE32 PUBLIC 'CONST'
rdata$r	ENDS
xdata$x	SEGMENT DWORD USE32 PUBLIC 'CONST'
xdata$x	ENDS
text$AFX_COL1	SEGMENT PARA USE32 PUBLIC ''
text$AFX_COL1	ENDS
text$yc	SEGMENT PARA USE32 PUBLIC 'CODE'
text$yc	ENDS
CRT$XCA	SEGMENT DWORD USE32 PUBLIC 'DATA'
CRT$XCA	ENDS
CRT$XCU	SEGMENT DWORD USE32 PUBLIC 'DATA'
CRT$XCU	ENDS
CRT$XCL	SEGMENT DWORD USE32 PUBLIC 'DATA'
CRT$XCL	ENDS
CRT$XCC	SEGMENT DWORD USE32 PUBLIC 'DATA'
CRT$XCC	ENDS
CRT$XCZ	SEGMENT DWORD USE32 PUBLIC 'DATA'
CRT$XCZ	ENDS
text$yd	SEGMENT PARA USE32 PUBLIC 'CODE'
text$yd	ENDS
ATL$__m	SEGMENT DWORD USE32 PUBLIC ''
ATL$__m	ENDS
ATL$__z	SEGMENT DWORD USE32 PUBLIC ''
ATL$__z	ENDS
ATL$__a	SEGMENT DWORD USE32 PUBLIC ''
ATL$__a	ENDS
;	COMDAT ?ClickTreeItem@CMyTreeCtrl@@UAEXPAU_TREEITEM@@@Z
_TEXT	SEGMENT PARA USE32 PUBLIC 'CODE'
_TEXT	ENDS
;	COMDAT ?RClickTreeItem@CMyTreeCtrl@@UAEXPAU_TREEITEM@@@Z
_TEXT	SEGMENT PARA USE32 PUBLIC 'CODE'
_TEXT	ENDS
;	COMDAT ?DClickTreeItem@CMyTreeCtrl@@UAEXPAU_TREEITEM@@@Z
_TEXT	SEGMENT PARA USE32 PUBLIC 'CODE'
_TEXT	ENDS
;	COMDAT ??_GCMyBtnTreeCtrl@@UAEPAXI@Z
_TEXT	SEGMENT PARA USE32 PUBLIC 'CODE'
_TEXT	ENDS
;	COMDAT ??B?$CComPtrBase@UITypeInfo2@@@ATL@@QBEPAUITypeInfo2@@XZ
_TEXT	SEGMENT PARA USE32 PUBLIC 'CODE'
_TEXT	ENDS
;	COMDAT ?equal@?$istreambuf_iterator@DU?$char_traits@D@std@@@std@@QBE_NABV12@@Z
_TEXT	SEGMENT PARA USE32 PUBLIC 'CODE'
_TEXT	ENDS
;	COMDAT ?equal@?$istreambuf_iterator@_WU?$char_traits@_W@std@@@std@@QBE_NABV12@@Z
_TEXT	SEGMENT PARA USE32 PUBLIC 'CODE'
_TEXT	ENDS
;	COMDAT ?Unlock@?$CComCritSecLock@VCComCriticalSection@ATL@@@ATL@@QAEXXZ
_TEXT	SEGMENT PARA USE32 PUBLIC 'CODE'
_TEXT	ENDS
;	COMDAT ??$_Maklocstr@D@std@@YAPADPBDPADABU_Cvtvec@@@Z
_TEXT	SEGMENT PARA USE32 PUBLIC 'CODE'
_TEXT	ENDS
;	COMDAT ??_R3?$numpunct@_W@std@@8
rdata$r	SEGMENT DWORD USE32 PUBLIC 'CONST'
rdata$r	ENDS
;	COMDAT ??_R3?$numpunct@D@std@@8
rdata$r	SEGMENT DWORD USE32 PUBLIC 'CONST'
rdata$r	ENDS
;	COMDAT ??_R3CMyBtnTreeCtrl@@8
rdata$r	SEGMENT DWORD USE32 PUBLIC 'CONST'
rdata$r	ENDS
;	COMDAT ??_R2?$numpunct@_W@std@@8
rdata$r	SEGMENT DWORD USE32 PUBLIC 'CONST'
rdata$r	ENDS
;	COMDAT ??_R2?$numpunct@D@std@@8
rdata$r	SEGMENT DWORD USE32 PUBLIC 'CONST'
rdata$r	ENDS
;	COMDAT ??_R2CMyBtnTreeCtrl@@8
rdata$r	SEGMENT DWORD USE32 PUBLIC 'CONST'
rdata$r	ENDS
;	COMDAT ??_R1A@?0A@A@?$numpunct@_W@std@@8
rdata$r	SEGMENT DWORD USE32 PUBLIC 'CONST'
rdata$r	ENDS
;	COMDAT ??_R1A@?0A@A@facet@locale@std@@8
rdata$r	SEGMENT DWORD USE32 PUBLIC 'CONST'
rdata$r	ENDS
;	COMDAT ??_R0?AVfacet@locale@std@@@8
_DATA	SEGMENT DWORD USE32 PUBLIC 'DATA'
_DATA	ENDS
;	COMDAT ??_R1A@?0A@A@?$numpunct@D@std@@8
rdata$r	SEGMENT DWORD USE32 PUBLIC 'CONST'
rdata$r	ENDS
;	COMDAT ??_R1A@?0A@A@CObject@@8
rdata$r	SEGMENT DWORD USE32 PUBLIC 'CONST'
rdata$r	ENDS
;	COMDAT ??_R0?AVCObject@@@8
_DATA	SEGMENT DWORD USE32 PUBLIC 'DATA'
_DATA	ENDS
;	COMDAT ??_R1A@?0A@A@CCmdTarget@@8
rdata$r	SEGMENT DWORD USE32 PUBLIC 'CONST'
rdata$r	ENDS
;	COMDAT ??_R0?AVCCmdTarget@@@8
_DATA	SEGMENT DWORD USE32 PUBLIC 'DATA'
_DATA	ENDS
;	COMDAT ??_R1A@?0A@A@CWnd@@8
rdata$r	SEGMENT DWORD USE32 PUBLIC 'CONST'
rdata$r	ENDS
;	COMDAT ??_R0?AVCWnd@@@8
_DATA	SEGMENT DWORD USE32 PUBLIC 'DATA'
_DATA	ENDS
;	COMDAT ??_R1A@?0A@A@CTreeCtrl@@8
rdata$r	SEGMENT DWORD USE32 PUBLIC 'CONST'
rdata$r	ENDS
;	COMDAT ??_R1A@?0A@A@CMyTreeCtrl@@8
rdata$r	SEGMENT DWORD USE32 PUBLIC 'CONST'
rdata$r	ENDS
;	COMDAT ??_R1A@?0A@A@CMyBtnTreeCtrl@@8
rdata$r	SEGMENT DWORD USE32 PUBLIC 'CONST'
rdata$r	ENDS
;	COMDAT ??_R0?AV?$numpunct@_W@std@@@8
_DATA	SEGMENT DWORD USE32 PUBLIC 'DATA'
_DATA	ENDS
;	COMDAT ??_R0?AV?$numpunct@D@std@@@8
_DATA	SEGMENT DWORD USE32 PUBLIC 'DATA'
_DATA	ENDS
;	COMDAT ??_R0?AVCTreeCtrl@@@8
_DATA	SEGMENT DWORD USE32 PUBLIC 'DATA'
_DATA	ENDS
;	COMDAT ??_R0?AVCMyTreeCtrl@@@8
_DATA	SEGMENT DWORD USE32 PUBLIC 'DATA'
_DATA	ENDS
;	COMDAT ??_R0?AVCMyBtnTreeCtrl@@@8
_DATA	SEGMENT DWORD USE32 PUBLIC 'DATA'
_DATA	ENDS
;	COMDAT ??0?$allocator@_W@std@@QAE@XZ
_TEXT	SEGMENT PARA USE32 PUBLIC 'CODE'
_TEXT	ENDS
;	COMDAT ??0?$allocator@D@std@@QAE@ABV01@@Z
_TEXT	SEGMENT PARA USE32 PUBLIC 'CODE'
_TEXT	ENDS
;	COMDAT ??0?$allocator@D@std@@QAE@XZ
_TEXT	SEGMENT PARA USE32 PUBLIC 'CODE'
_TEXT	ENDS
;	COMDAT ?deallocate@?$allocator@D@std@@QAEXPADI@Z
_TEXT	SEGMENT PARA USE32 PUBLIC 'CODE'
_TEXT	ENDS
;	COMDAT ?max_size@?$allocator@D@std@@QBEIXZ
_TEXT	SEGMENT PARA USE32 PUBLIC 'CODE'
_TEXT	ENDS
;	COMDAT ?allocate@?$allocator@D@std@@QAEPADI@Z
_TEXT	SEGMENT PARA USE32 PUBLIC 'CODE'
_TEXT	ENDS
;	COMDAT ??$_Allocate@D@std@@YAPADIPAD@Z
_TEXT	SEGMENT PARA USE32 PUBLIC 'CODE'
_TEXT	ENDS
;	COMDAT ??_G?$numpunct@_W@std@@MAEPAXI@Z
_TEXT	SEGMENT PARA USE32 PUBLIC 'CODE'
_TEXT	ENDS
;	COMDAT ??_R4?$numpunct@_W@std@@6B@
rdata$r	SEGMENT DWORD USE32 PUBLIC 'CONST'
rdata$r	ENDS
;	COMDAT ??_G?$numpunct@D@std@@MAEPAXI@Z
_TEXT	SEGMENT PARA USE32 PUBLIC 'CODE'
_TEXT	ENDS
;	COMDAT ??_R4?$numpunct@D@std@@6B@
rdata$r	SEGMENT DWORD USE32 PUBLIC 'CONST'
rdata$r	ENDS
;	COMDAT ??_R4CMyBtnTreeCtrl@@6B@
rdata$r	SEGMENT DWORD USE32 PUBLIC 'CONST'
rdata$r	ENDS
;	COMDAT ??_C@_0EN@CBMLGOH@D?3?2Program?5Files?5?$CIx86?$CJ?2Microsoft@
CONST	SEGMENT DWORD USE32 PUBLIC 'CONST'
CONST	ENDS
;	COMDAT ?_Psave@?$_Facetptr@V?$numpunct@_W@std@@@std@@2PBVfacet@locale@2@B
_DATA	SEGMENT DWORD USE32 PUBLIC 'DATA'
_DATA	ENDS
;	COMDAT ?_Psave@?$_Facetptr@V?$numpunct@D@std@@@std@@2PBVfacet@locale@2@B
_DATA	SEGMENT DWORD USE32 PUBLIC 'DATA'
_DATA	ENDS
;	COMDAT ?Unlock@CComCriticalSection@ATL@@QAEJXZ
_TEXT	SEGMENT PARA USE32 PUBLIC 'CODE'
_TEXT	ENDS
;	COMDAT ??_C@_0FG@LDNDNCJM@D?3?2Program?5Files?5?$CIx86?$CJ?2Microsoft@
CONST	SEGMENT DWORD USE32 PUBLIC 'CONST'
CONST	ENDS
;	COMDAT ??_C@_09HIEJFN@m_bLocked?$AA@
CONST	SEGMENT DWORD USE32 PUBLIC 'CONST'
CONST	ENDS
;	COMDAT ?_Psave@?$_Facetptr@V?$ctype@_W@std@@@std@@2PBVfacet@locale@2@B
_DATA	SEGMENT DWORD USE32 PUBLIC 'DATA'
_DATA	ENDS
;	COMDAT ?_Psave@?$_Facetptr@V?$ctype@D@std@@@std@@2PBVfacet@locale@2@B
_DATA	SEGMENT DWORD USE32 PUBLIC 'DATA'
_DATA	ENDS
;	COMDAT ??$_Maklocchr@_W@std@@YA_WDPA_WABU_Cvtvec@@@Z
_TEXT	SEGMENT PARA USE32 PUBLIC 'CODE'
_TEXT	ENDS
;	COMDAT ??$_DebugHeapDelete@X@std@@YAXPAX@Z
_TEXT	SEGMENT PARA USE32 PUBLIC 'CODE'
_TEXT	ENDS
;	COMDAT ??$_Maklocstr@_W@std@@YAPA_WPBDPA_WABU_Cvtvec@@@Z
_TEXT	SEGMENT PARA USE32 PUBLIC 'CODE'
_TEXT	ENDS
;	COMDAT ??$_Maklocchr@D@std@@YADDPADABU_Cvtvec@@@Z
_TEXT	SEGMENT PARA USE32 PUBLIC 'CODE'
_TEXT	ENDS
;	COMDAT ??_C@_04LOAJBDKD@true?$AA@
CONST	SEGMENT DWORD USE32 PUBLIC 'CONST'
CONST	ENDS
;	COMDAT ??_C@_05LAPONLG@false?$AA@
CONST	SEGMENT DWORD USE32 PUBLIC 'CONST'
CONST	ENDS
;	COMDAT _wmemcpy
_TEXT	SEGMENT PARA USE32 PUBLIC 'CODE'
_TEXT	ENDS
;	COMDAT ?max_size@?$allocator@_W@std@@QBEIXZ
_TEXT	SEGMENT PARA USE32 PUBLIC 'CODE'
_TEXT	ENDS
;	COMDAT ?allocate@?$allocator@_W@std@@QAEPA_WI@Z
_TEXT	SEGMENT PARA USE32 PUBLIC 'CODE'
_TEXT	ENDS
;	COMDAT ??$_Allocate@_W@std@@YAPA_WIPA_W@Z
_TEXT	SEGMENT PARA USE32 PUBLIC 'CODE'
_TEXT	ENDS
;	COMDAT ??_C@_01GFHCPBMG@C?$AA@
CONST	SEGMENT DWORD USE32 PUBLIC 'CONST'
CONST	ENDS
;	COMDAT ?_Peek@?$istreambuf_iterator@_WU?$char_traits@_W@std@@@std@@AAE_WXZ
_TEXT	SEGMENT PARA USE32 PUBLIC 'CODE'
_TEXT	ENDS
;	COMDAT ?_Peek@?$istreambuf_iterator@DU?$char_traits@D@std@@@std@@AAEDXZ
_TEXT	SEGMENT PARA USE32 PUBLIC 'CODE'
_TEXT	ENDS
;	COMDAT ??$use_facet@V?$ctype@_W@std@@@std@@YAABV?$ctype@_W@0@ABVlocale@0@@Z
_TEXT	SEGMENT PARA USE32 PUBLIC 'CODE'
_TEXT	ENDS
;	COMDAT ??_S?$ctype@_W@std@@6B@
CONST	SEGMENT DWORD USE32 PUBLIC 'CONST'
CONST	ENDS
;	COMDAT ??_R4?$ctype@_W@std@@6B@
rdata$r	SEGMENT DWORD USE32 PUBLIC 'CONST'
rdata$r	ENDS
;	COMDAT ??_R0?AV?$ctype@_W@std@@@8
_DATA	SEGMENT DWORD USE32 PUBLIC 'DATA'
_DATA	ENDS
;	COMDAT ??_R3?$ctype@_W@std@@8
rdata$r	SEGMENT DWORD USE32 PUBLIC 'CONST'
rdata$r	ENDS
;	COMDAT ??_R2?$ctype@_W@std@@8
rdata$r	SEGMENT DWORD USE32 PUBLIC 'CONST'
rdata$r	ENDS
;	COMDAT ??_R1A@?0A@A@?$ctype@_W@std@@8
rdata$r	SEGMENT DWORD USE32 PUBLIC 'CONST'
rdata$r	ENDS
;	COMDAT ??_R1A@?0A@A@ctype_base@std@@8
rdata$r	SEGMENT DWORD USE32 PUBLIC 'CONST'
rdata$r	ENDS
;	COMDAT ??_R0?AUctype_base@std@@@8
_DATA	SEGMENT DWORD USE32 PUBLIC 'DATA'
_DATA	ENDS
;	COMDAT ??_G?$ctype@_W@std@@MAEPAXI@Z
_TEXT	SEGMENT PARA USE32 PUBLIC 'CODE'
_TEXT	ENDS
;	COMDAT ??_C@_08EPJLHIJG@bad?5cast?$AA@
CONST	SEGMENT DWORD USE32 PUBLIC 'CONST'
CONST	ENDS
;	COMDAT __TI2?AVbad_cast@@
xdata$x	SEGMENT DWORD USE32 PUBLIC 'CONST'
xdata$x	ENDS
;	COMDAT __CTA2?AVbad_cast@@
xdata$x	SEGMENT DWORD USE32 PUBLIC 'CONST'
xdata$x	ENDS
;	COMDAT __CT??_R0?AVbad_cast@@@8??0bad_cast@@QAE@ABV0@@Z12
xdata$x	SEGMENT DWORD USE32 PUBLIC 'CONST'
xdata$x	ENDS
;	COMDAT ??_R0?AVbad_cast@@@8
_DATA	SEGMENT DWORD USE32 PUBLIC 'DATA'
_DATA	ENDS
;	COMDAT __CT??_R0?AVexception@@@8??0exception@@QAE@ABV0@@Z12
xdata$x	SEGMENT DWORD USE32 PUBLIC 'CONST'
xdata$x	ENDS
;	COMDAT ??_R0?AVexception@@@8
_DATA	SEGMENT DWORD USE32 PUBLIC 'DATA'
_DATA	ENDS
;	COMDAT ??$_DebugHeapDelete@Vfacet@locale@std@@@std@@YAXPAVfacet@locale@0@@Z
_TEXT	SEGMENT PARA USE32 PUBLIC 'CODE'
_TEXT	ENDS
;	COMDAT ??$use_facet@V?$ctype@D@std@@@std@@YAABV?$ctype@D@0@ABVlocale@0@@Z
_TEXT	SEGMENT PARA USE32 PUBLIC 'CODE'
_TEXT	ENDS
;	COMDAT ??_S?$ctype@D@std@@6B@
CONST	SEGMENT DWORD USE32 PUBLIC 'CONST'
CONST	ENDS
;	COMDAT ??_R4?$ctype@D@std@@6B@
rdata$r	SEGMENT DWORD USE32 PUBLIC 'CONST'
rdata$r	ENDS
;	COMDAT ??_R0?AV?$ctype@D@std@@@8
_DATA	SEGMENT DWORD USE32 PUBLIC 'DATA'
_DATA	ENDS
;	COMDAT ??_R3?$ctype@D@std@@8
rdata$r	SEGMENT DWORD USE32 PUBLIC 'CONST'
rdata$r	ENDS
;	COMDAT ??_R2?$ctype@D@std@@8
rdata$r	SEGMENT DWORD USE32 PUBLIC 'CONST'
rdata$r	ENDS
;	COMDAT ??_R1A@?0A@A@?$ctype@D@std@@8
rdata$r	SEGMENT DWORD USE32 PUBLIC 'CONST'
rdata$r	ENDS
;	COMDAT ??_G?$ctype@D@std@@MAEPAXI@Z
_TEXT	SEGMENT PARA USE32 PUBLIC 'CODE'
_TEXT	ENDS
;	COMDAT ??_S?$numpunct@_W@std@@6B@
CONST	SEGMENT DWORD USE32 PUBLIC 'CONST'
CONST	ENDS
;	COMDAT ??_S?$numpunct@D@std@@6B@
CONST	SEGMENT DWORD USE32 PUBLIC 'CONST'
CONST	ENDS
;	COMDAT _wmemmove
_TEXT	SEGMENT PARA USE32 PUBLIC 'CODE'
_TEXT	ENDS
;	COMDAT ?deallocate@?$allocator@_W@std@@QAEXPA_WI@Z
_TEXT	SEGMENT PARA USE32 PUBLIC 'CODE'
_TEXT	ENDS
;	COMDAT ??0?$allocator@_W@std@@QAE@ABV01@@Z
_TEXT	SEGMENT PARA USE32 PUBLIC 'CODE'
_TEXT	ENDS
;	COMDAT ?Release@CStringData@ATL@@QAEXXZ
_TEXT	SEGMENT PARA USE32 PUBLIC 'CODE'
_TEXT	ENDS
;	COMDAT ??_C@_0L@OIIMFBNE@nRefs?5?$CB?$DN?50?$AA@
CONST	SEGMENT DWORD USE32 PUBLIC 'CONST'
CONST	ENDS
;	COMDAT ??_C@_0FJ@DMHPDOJC@D?3?2Program?5Files?5?$CIx86?$CJ?2Microsoft@
CONST	SEGMENT DWORD USE32 PUBLIC 'CONST'
CONST	ENDS
;	COMDAT ?_messageEntries@CMyBtnTreeCtrl@@0QBUAFX_MSGMAP_ENTRY@@B
CONST	SEGMENT DWORD USE32 PUBLIC 'CONST'
CONST	ENDS
;	COMDAT ?messageMap@CMyBtnTreeCtrl@@1UAFX_MSGMAP@@B
CONST	SEGMENT DWORD USE32 PUBLIC 'CONST'
CONST	ENDS
;	COMDAT ??_7CMyBtnTreeCtrl@@6B@
CONST	SEGMENT DWORD USE32 PUBLIC 'CONST'
CONST	ENDS
;	COMDAT ?classCMyBtnTreeCtrl@CMyBtnTreeCtrl@@2UCRuntimeClass@@B
CONST	SEGMENT DWORD USE32 PUBLIC 'CONST'
CONST	ENDS
sxdata	SEGMENT DWORD USE32 'SXDATA'
sxdata	ENDS
FLAT	GROUP _DATA, CONST, _BSS
	ASSUME	CS: FLAT, DS: FLAT, SS: FLAT
endif

INCLUDELIB MSVCRTD
INCLUDELIB OLDNAMES

PUBLIC	?classCMyBtnTreeCtrl@CMyBtnTreeCtrl@@2UCRuntimeClass@@B ; CMyBtnTreeCtrl::classCMyBtnTreeCtrl
PUBLIC	?_messageEntries@CMyBtnTreeCtrl@@0QBUAFX_MSGMAP_ENTRY@@B ; CMyBtnTreeCtrl::_messageEntries
PUBLIC	?messageMap@CMyBtnTreeCtrl@@1UAFX_MSGMAP@@B	; CMyBtnTreeCtrl::messageMap
PUBLIC	?OnCustomdraw@CMyBtnTreeCtrl@@QAEXPAUtagNMHDR@@PAJ@Z ; CMyBtnTreeCtrl::OnCustomdraw
PUBLIC	?OnMouseMove@CMyBtnTreeCtrl@@QAEXIVCPoint@@@Z	; CMyBtnTreeCtrl::OnMouseMove
PUBLIC	?OnMouseLeave@CMyBtnTreeCtrl@@QAEJIJ@Z		; CMyBtnTreeCtrl::OnMouseLeave
PUBLIC	?OnEraseBkgnd@CMyBtnTreeCtrl@@QAEHPAVCDC@@@Z	; CMyBtnTreeCtrl::OnEraseBkgnd
EXTRN	?OnLButtonUp@CWnd@@IAEXIVCPoint@@@Z:NEAR	; CWnd::OnLButtonUp
EXTRN	?OnDrawItem@CWnd@@IAEXHPAUtagDRAWITEMSTRUCT@@@Z:NEAR ; CWnd::OnDrawItem
EXTRN	?GetThisClass@CMyTreeCtrl@@SGPAUCRuntimeClass@@XZ:NEAR ; CMyTreeCtrl::GetThisClass
EXTRN	?GetThisMessageMap@CMyTreeCtrl@@KGPBUAFX_MSGMAP@@XZ:NEAR ; CMyTreeCtrl::GetThisMessageMap
EXTRN	?OnPaint@CMyTreeCtrl@@QAEXXZ:NEAR		; CMyTreeCtrl::OnPaint
EXTRN	?OnSize@CMyTreeCtrl@@QAEXIHH@Z:NEAR		; CMyTreeCtrl::OnSize
CONST	SEGMENT
$SG187468 DB	'CMyBtnTreeCtrl', 00H
CONST	ENDS
;	COMDAT ?classCMyBtnTreeCtrl@CMyBtnTreeCtrl@@2UCRuntimeClass@@B
CONST	SEGMENT
?classCMyBtnTreeCtrl@CMyBtnTreeCtrl@@2UCRuntimeClass@@B DD FLAT:$SG187468 ; CMyBtnTreeCtrl::classCMyBtnTreeCtrl
	DD	0bcH
	DD	0ffffH
	DD	00H
	DD	FLAT:?GetThisClass@CMyTreeCtrl@@SGPAUCRuntimeClass@@XZ
	DD	00H
	DD	00H
CONST	ENDS
;	COMDAT ?_messageEntries@CMyBtnTreeCtrl@@0QBUAFX_MSGMAP_ENTRY@@B
CONST	SEGMENT
?_messageEntries@CMyBtnTreeCtrl@@0QBUAFX_MSGMAP_ENTRY@@B DD 014H ; CMyBtnTreeCtrl::_messageEntries
	DD	00H
	DD	00H
	DD	00H
	DD	01H
	DD	FLAT:?OnEraseBkgnd@CMyBtnTreeCtrl@@QAEHPAVCDC@@@Z
	DD	0fH
	DD	00H
	DD	00H
	DD	00H
	DD	010H
	DD	FLAT:?OnPaint@CMyTreeCtrl@@QAEXXZ
	DD	05H
	DD	00H
	DD	00H
	DD	00H
	DD	016H
	DD	FLAT:?OnSize@CMyTreeCtrl@@QAEXIHH@Z
	DD	02bH
	DD	00H
	DD	00H
	DD	00H
	DD	02bH
	DD	FLAT:?OnDrawItem@CWnd@@IAEXHPAUtagDRAWITEMSTRUCT@@@Z
	DD	0202H
	DD	00H
	DD	00H
	DD	00H
	DD	032H
	DD	FLAT:?OnLButtonUp@CWnd@@IAEXIVCPoint@@@Z
	DD	0200H
	DD	00H
	DD	00H
	DD	00H
	DD	032H
	DD	FLAT:?OnMouseMove@CMyBtnTreeCtrl@@QAEXIVCPoint@@@Z
	DD	02a3H
	DD	00H
	DD	00H
	DD	00H
	DD	0eH
	DD	FLAT:?OnMouseLeave@CMyBtnTreeCtrl@@QAEJIJ@Z
	DD	0bc4eH
	DD	0fff4H
	DD	00H
	DD	00H
	DD	039H
	DD	FLAT:?OnCustomdraw@CMyBtnTreeCtrl@@QAEXPAUtagNMHDR@@PAJ@Z
	DD	00H
	DD	00H
	DD	00H
	DD	00H
	DD	00H
	DD	00H
CONST	ENDS
;	COMDAT ?messageMap@CMyBtnTreeCtrl@@1UAFX_MSGMAP@@B
CONST	SEGMENT
?messageMap@CMyBtnTreeCtrl@@1UAFX_MSGMAP@@B DD FLAT:?GetThisMessageMap@CMyTreeCtrl@@KGPBUAFX_MSGMAP@@XZ ; CMyBtnTreeCtrl::messageMap
	DD	FLAT:?_messageEntries@CMyBtnTreeCtrl@@0QBUAFX_MSGMAP_ENTRY@@B
CONST	ENDS
CONST	SEGMENT
	ORG $+1
$SG187570 DB	'ListBkTop', 00H
	ORG $+2
$SG187577 DB	'ListHoverBK', 00H
CONST	ENDS
PUBLIC	?GetThisClass@CMyBtnTreeCtrl@@SGPAUCRuntimeClass@@XZ ; CMyBtnTreeCtrl::GetThisClass
EXTRN	__RTC_InitBase:NEAR
EXTRN	__RTC_Shutdown:NEAR
;	COMDAT rtc$IMZ
; File d:\boxgit\playbox\playbox\dev\prj\playbox\src\gui\commoncontrol\mybtntreectrl.cpp
rtc$IMZ	SEGMENT
__RTC_InitBase.rtc$IMZ DD FLAT:__RTC_InitBase
rtc$IMZ	ENDS
;	COMDAT rtc$TMZ
rtc$TMZ	SEGMENT
__RTC_Shutdown.rtc$TMZ DD FLAT:__RTC_Shutdown
; Function compile flags: /Odt /RTCsu
rtc$TMZ	ENDS
_TEXT	SEGMENT
?GetThisClass@CMyBtnTreeCtrl@@SGPAUCRuntimeClass@@XZ PROC NEAR ; CMyBtnTreeCtrl::GetThisClass

; 5    : IMPLEMENT_DYNAMIC(CMyBtnTreeCtrl, CMyTreeCtrl)

  00000	55		 push	 ebp
  00001	8b ec		 mov	 ebp, esp
  00003	b8 00 00 00 00	 mov	 eax, OFFSET FLAT:?classCMyBtnTreeCtrl@CMyBtnTreeCtrl@@2UCRuntimeClass@@B ; CMyBtnTreeCtrl::classCMyBtnTreeCtrl
  00008	5d		 pop	 ebp
  00009	c3		 ret	 0
?GetThisClass@CMyBtnTreeCtrl@@SGPAUCRuntimeClass@@XZ ENDP ; CMyBtnTreeCtrl::GetThisClass
_TEXT	ENDS
PUBLIC	?GetRuntimeClass@CMyBtnTreeCtrl@@UBEPAUCRuntimeClass@@XZ ; CMyBtnTreeCtrl::GetRuntimeClass
; Function compile flags: /Odt /RTCsu
_TEXT	SEGMENT
_this$ = -4						; size = 4
?GetRuntimeClass@CMyBtnTreeCtrl@@UBEPAUCRuntimeClass@@XZ PROC NEAR ; CMyBtnTreeCtrl::GetRuntimeClass
; _this$ = ecx

; 5    : IMPLEMENT_DYNAMIC(CMyBtnTreeCtrl, CMyTreeCtrl)

  00010	55		 push	 ebp
  00011	8b ec		 mov	 ebp, esp
  00013	51		 push	 ecx
  00014	c7 45 fc cc cc
	cc cc		 mov	 DWORD PTR [ebp-4], -858993460 ; ccccccccH
  0001b	89 4d fc	 mov	 DWORD PTR _this$[ebp], ecx
  0001e	b8 00 00 00 00	 mov	 eax, OFFSET FLAT:?classCMyBtnTreeCtrl@CMyBtnTreeCtrl@@2UCRuntimeClass@@B ; CMyBtnTreeCtrl::classCMyBtnTreeCtrl
  00023	8b e5		 mov	 esp, ebp
  00025	5d		 pop	 ebp
  00026	c3		 ret	 0
?GetRuntimeClass@CMyBtnTreeCtrl@@UBEPAUCRuntimeClass@@XZ ENDP ; CMyBtnTreeCtrl::GetRuntimeClass
_TEXT	ENDS
PUBLIC	??0CMyBtnTreeCtrl@@QAE@XZ			; CMyBtnTreeCtrl::CMyBtnTreeCtrl
PUBLIC	?GetMessageMap@CMyBtnTreeCtrl@@MBEPBUAFX_MSGMAP@@XZ ; CMyBtnTreeCtrl::GetMessageMap
PUBLIC	??_7CMyBtnTreeCtrl@@6B@				; CMyBtnTreeCtrl::`vftable'
PUBLIC	??_GCMyBtnTreeCtrl@@UAEPAXI@Z			; CMyBtnTreeCtrl::`scalar deleting destructor'
PUBLIC	??_R1A@?0A@A@CWnd@@8				; CWnd::`RTTI Base Class Descriptor at (0,-1,0,0)'
PUBLIC	??_R0?AVCWnd@@@8				; CWnd `RTTI Type Descriptor'
PUBLIC	??_R1A@?0A@A@CCmdTarget@@8			; CCmdTarget::`RTTI Base Class Descriptor at (0,-1,0,0)'
PUBLIC	??_R0?AVCCmdTarget@@@8				; CCmdTarget `RTTI Type Descriptor'
PUBLIC	??_R1A@?0A@A@CObject@@8				; CObject::`RTTI Base Class Descriptor at (0,-1,0,0)'
PUBLIC	??_R0?AVCObject@@@8				; CObject `RTTI Type Descriptor'
PUBLIC	??_R4CMyBtnTreeCtrl@@6B@			; CMyBtnTreeCtrl::`RTTI Complete Object Locator'
PUBLIC	??_R0?AVCMyBtnTreeCtrl@@@8			; CMyBtnTreeCtrl `RTTI Type Descriptor'
PUBLIC	??_R3CMyBtnTreeCtrl@@8				; CMyBtnTreeCtrl::`RTTI Class Hierarchy Descriptor'
PUBLIC	??_R2CMyBtnTreeCtrl@@8				; CMyBtnTreeCtrl::`RTTI Base Class Array'
PUBLIC	??_R1A@?0A@A@CMyBtnTreeCtrl@@8			; CMyBtnTreeCtrl::`RTTI Base Class Descriptor at (0,-1,0,0)'
PUBLIC	??_R1A@?0A@A@CMyTreeCtrl@@8			; CMyTreeCtrl::`RTTI Base Class Descriptor at (0,-1,0,0)'
PUBLIC	??_R0?AVCMyTreeCtrl@@@8				; CMyTreeCtrl `RTTI Type Descriptor'
PUBLIC	??_R1A@?0A@A@CTreeCtrl@@8			; CTreeCtrl::`RTTI Base Class Descriptor at (0,-1,0,0)'
PUBLIC	??_R0?AVCTreeCtrl@@@8				; CTreeCtrl `RTTI Type Descriptor'
PUBLIC	?ClickTreeItem@CMyTreeCtrl@@UAEXPAU_TREEITEM@@@Z ; CMyTreeCtrl::ClickTreeItem
PUBLIC	?RClickTreeItem@CMyTreeCtrl@@UAEXPAU_TREEITEM@@@Z ; CMyTreeCtrl::RClickTreeItem
PUBLIC	?DClickTreeItem@CMyTreeCtrl@@UAEXPAU_TREEITEM@@@Z ; CMyTreeCtrl::DClickTreeItem
EXTRN	?GetInterfaceMap@CWnd@@MBEPBUAFX_INTERFACEMAP@@XZ:NEAR ; CWnd::GetInterfaceMap
EXTRN	??_ECMyBtnTreeCtrl@@UAEPAXI@Z:NEAR		; CMyBtnTreeCtrl::`vector deleting destructor'
EXTRN	?Create@CTreeCtrl@@UAEHKABUtagRECT@@PAVCWnd@@I@Z:NEAR ; CTreeCtrl::Create
EXTRN	?CreateEx@CTreeCtrl@@UAEHKKABUtagRECT@@PAVCWnd@@I@Z:NEAR ; CTreeCtrl::CreateEx
EXTRN	?EnsureStdObj@CWnd@@UAEJXZ:NEAR			; CWnd::EnsureStdObj
EXTRN	?get_accParent@CWnd@@UAEJPAPAUIDispatch@@@Z:NEAR ; CWnd::get_accParent
EXTRN	?OnCmdMsg@CCmdTarget@@UAEHIHPAXPAUAFX_CMDHANDLERINFO@@@Z:NEAR ; CCmdTarget::OnCmdMsg
EXTRN	?get_accChildCount@CWnd@@UAEJPAJ@Z:NEAR		; CWnd::get_accChildCount
EXTRN	?IsInvokeAllowed@CCmdTarget@@UAEHJ@Z:NEAR	; CCmdTarget::IsInvokeAllowed
EXTRN	?get_accChild@CWnd@@UAEJUtagVARIANT@@PAPAUIDispatch@@@Z:NEAR ; CWnd::get_accChild
EXTRN	?get_accName@CWnd@@UAEJUtagVARIANT@@PAPA_W@Z:NEAR ; CWnd::get_accName
EXTRN	?get_accValue@CWnd@@UAEJUtagVARIANT@@PAPA_W@Z:NEAR ; CWnd::get_accValue
EXTRN	?GetDispatchIID@CCmdTarget@@UAEHPAU_GUID@@@Z:NEAR ; CCmdTarget::GetDispatchIID
EXTRN	?GetTypeInfoCount@CCmdTarget@@UAEIXZ:NEAR	; CCmdTarget::GetTypeInfoCount
EXTRN	?GetTypeLibCache@CCmdTarget@@UAEPAVCTypeLibCache@@XZ:NEAR ; CCmdTarget::GetTypeLibCache
EXTRN	?get_accDescription@CWnd@@UAEJUtagVARIANT@@PAPA_W@Z:NEAR ; CWnd::get_accDescription
EXTRN	?GetTypeLib@CCmdTarget@@UAEJKPAPAUITypeLib@@@Z:NEAR ; CCmdTarget::GetTypeLib
EXTRN	?get_accRole@CWnd@@UAEJUtagVARIANT@@PAU2@@Z:NEAR ; CWnd::get_accRole
EXTRN	?get_accState@CWnd@@UAEJUtagVARIANT@@PAU2@@Z:NEAR ; CWnd::get_accState
EXTRN	?get_accHelp@CWnd@@UAEJUtagVARIANT@@PAPA_W@Z:NEAR ; CWnd::get_accHelp
EXTRN	?get_accHelpTopic@CWnd@@UAEJPAPA_WUtagVARIANT@@PAJ@Z:NEAR ; CWnd::get_accHelpTopic
EXTRN	?get_accKeyboardShortcut@CWnd@@UAEJUtagVARIANT@@PAPA_W@Z:NEAR ; CWnd::get_accKeyboardShortcut
EXTRN	?get_accFocus@CWnd@@UAEJPAUtagVARIANT@@@Z:NEAR	; CWnd::get_accFocus
EXTRN	?get_accSelection@CWnd@@UAEJPAUtagVARIANT@@@Z:NEAR ; CWnd::get_accSelection
EXTRN	?get_accDefaultAction@CWnd@@UAEJUtagVARIANT@@PAPA_W@Z:NEAR ; CWnd::get_accDefaultAction
EXTRN	?GetCommandMap@CCmdTarget@@MBEPBUAFX_OLECMDMAP@@XZ:NEAR ; CCmdTarget::GetCommandMap
EXTRN	?accSelect@CWnd@@UAEJJUtagVARIANT@@@Z:NEAR	; CWnd::accSelect
EXTRN	?accLocation@CWnd@@UAEJPAJ000UtagVARIANT@@@Z:NEAR ; CWnd::accLocation
EXTRN	?GetDispatchMap@CCmdTarget@@MBEPBUAFX_DISPMAP@@XZ:NEAR ; CCmdTarget::GetDispatchMap
EXTRN	?accNavigate@CWnd@@UAEJJUtagVARIANT@@PAU2@@Z:NEAR ; CWnd::accNavigate
EXTRN	?accHitTest@CWnd@@UAEJJJPAUtagVARIANT@@@Z:NEAR	; CWnd::accHitTest
EXTRN	?GetConnectionMap@CCmdTarget@@MBEPBUAFX_CONNECTIONMAP@@XZ:NEAR ; CCmdTarget::GetConnectionMap
EXTRN	?accDoDefaultAction@CWnd@@UAEJUtagVARIANT@@@Z:NEAR ; CWnd::accDoDefaultAction
EXTRN	?put_accName@CWnd@@UAEJUtagVARIANT@@PA_W@Z:NEAR	; CWnd::put_accName
EXTRN	?put_accValue@CWnd@@UAEJUtagVARIANT@@PA_W@Z:NEAR ; CWnd::put_accValue
EXTRN	?SetProxy@CWnd@@UAEJPAUIAccessibleProxy@@@Z:NEAR ; CWnd::SetProxy
EXTRN	?CreateAccessibleProxy@CWnd@@UAEJIJPAJ@Z:NEAR	; CWnd::CreateAccessibleProxy
EXTRN	?GetEventSinkMap@CCmdTarget@@MBEPBUAFX_EVENTSINKMAP@@XZ:NEAR ; CCmdTarget::GetEventSinkMap
EXTRN	?OnCreateAggregates@CCmdTarget@@UAEHXZ:NEAR	; CCmdTarget::OnCreateAggregates
EXTRN	?OnCommand@CWnd@@MAEHIJ@Z:NEAR			; CWnd::OnCommand
EXTRN	?GetInterfaceHook@CCmdTarget@@UAEPAUIUnknown@@PBX@Z:NEAR ; CCmdTarget::GetInterfaceHook
EXTRN	?OnNotify@CWnd@@MAEHIJPAJ@Z:NEAR		; CWnd::OnNotify
EXTRN	?GetExtraConnectionPoints@CCmdTarget@@MAEHPAVCPtrArray@@@Z:NEAR ; CCmdTarget::GetExtraConnectionPoints
EXTRN	?GetConnectionHook@CCmdTarget@@MAEPAUIConnectionPoint@@ABU_GUID@@@Z:NEAR ; CCmdTarget::GetConnectionHook
EXTRN	??0CRect@@QAE@XZ:NEAR				; CRect::CRect
EXTRN	?PreSubclassWindow@CWnd@@UAEXXZ:NEAR		; CWnd::PreSubclassWindow
EXTRN	?Create@CWnd@@UAEHPBD0KABUtagRECT@@PAV1@IPAUCCreateContext@@@Z:NEAR ; CWnd::Create
EXTRN	?CreateEx@CWnd@@UAEHKPBD0KHHHHPAUHWND__@@PAUHMENU__@@PAX@Z:NEAR ; CWnd::CreateEx
EXTRN	?CreateEx@CWnd@@UAEHKPBD0KABUtagRECT@@PAV1@IPAX@Z:NEAR ; CWnd::CreateEx
EXTRN	?Serialize@CObject@@UAEXAAVCArchive@@@Z:NEAR	; CObject::Serialize
EXTRN	?DestroyWindow@CWnd@@UAEHXZ:NEAR		; CWnd::DestroyWindow
EXTRN	?PreCreateWindow@CWnd@@UAEHAAUtagCREATESTRUCTA@@@Z:NEAR ; CWnd::PreCreateWindow
EXTRN	?CalcWindowRect@CWnd@@UAEXPAUtagRECT@@I@Z:NEAR	; CWnd::CalcWindowRect
EXTRN	?GetSuperWndProcAddr@CWnd@@MAEPAP6GJPAUHWND__@@IIJ@ZXZ:NEAR ; CWnd::GetSuperWndProcAddr
EXTRN	?DoDataExchange@CWnd@@MAEXPAVCDataExchange@@@Z:NEAR ; CWnd::DoDataExchange
EXTRN	?BeginModalState@CWnd@@UAEXXZ:NEAR		; CWnd::BeginModalState
EXTRN	?EndModalState@CWnd@@UAEXXZ:NEAR		; CWnd::EndModalState
EXTRN	?PreTranslateMessage@CWnd@@UAEHPAUtagMSG@@@Z:NEAR ; CWnd::PreTranslateMessage
EXTRN	?OnAmbientProperty@CWnd@@UAEHPAVCOleControlSite@@JPAUtagVARIANT@@@Z:NEAR ; CWnd::OnAmbientProperty
EXTRN	?WindowProc@CWnd@@MAEJIIJ@Z:NEAR		; CWnd::WindowProc
EXTRN	?OnWndMsg@CWnd@@MAEHIIJPAJ@Z:NEAR		; CWnd::OnWndMsg
EXTRN	?DefWindowProcA@CWnd@@MAEJIIJ@Z:NEAR		; CWnd::DefWindowProcA
EXTRN	?PostNcDestroy@CWnd@@MAEXXZ:NEAR		; CWnd::PostNcDestroy
EXTRN	?OnChildNotify@CWnd@@MAEHIIJPAJ@Z:NEAR		; CWnd::OnChildNotify
EXTRN	?CheckAutoCenter@CWnd@@UAEHXZ:NEAR		; CWnd::CheckAutoCenter
EXTRN	?AssertValid@CWnd@@UBEXXZ:NEAR			; CWnd::AssertValid
EXTRN	?Dump@CWnd@@UBEXAAVCDumpContext@@@Z:NEAR	; CWnd::Dump
EXTRN	?IsFrameWnd@CWnd@@UBEHXZ:NEAR			; CWnd::IsFrameWnd
EXTRN	?OnFinalRelease@CWnd@@UAEXXZ:NEAR		; CWnd::OnFinalRelease
EXTRN	?CreateControlContainer@CWnd@@MAEHPAPAVCOleControlContainer@@@Z:NEAR ; CWnd::CreateControlContainer
EXTRN	?CreateControlSite@CWnd@@MAEHPAVCOleControlContainer@@PAPAVCOleControlSite@@IABU_GUID@@@Z:NEAR ; CWnd::CreateControlSite
EXTRN	?SetOccDialogInfo@CWnd@@MAEHPAU_AFX_OCC_DIALOG_INFO@@@Z:NEAR ; CWnd::SetOccDialogInfo
EXTRN	__RTC_CheckEsp:NEAR
EXTRN	?OnToolHitTest@CWnd@@UBEHVCPoint@@PAUtagTOOLINFOA@@@Z:NEAR ; CWnd::OnToolHitTest
EXTRN	?GetScrollBarCtrl@CWnd@@UBEPAVCScrollBar@@H@Z:NEAR ; CWnd::GetScrollBarCtrl
EXTRN	??0CMyTreeCtrl@@QAE@PAVCDibBitmap@@0@Z:NEAR	; CMyTreeCtrl::CMyTreeCtrl
EXTRN	?ClearData@CMyTreeCtrl@@UAEXXZ:NEAR		; CMyTreeCtrl::ClearData
EXTRN	?WinHelpA@CWnd@@UAEXKI@Z:NEAR			; CWnd::WinHelpA
EXTRN	?HtmlHelpA@CWnd@@UAEXKI@Z:NEAR			; CWnd::HtmlHelpA
EXTRN	??_7type_info@@6B@:QWORD			; type_info::`vftable'
EXTRN	?WinHelpInternal@CWnd@@UAEXKI@Z:NEAR		; CWnd::WinHelpInternal
EXTRN	?ContinueModal@CWnd@@UAEHXZ:NEAR		; CWnd::ContinueModal
EXTRN	?EndModalLoop@CWnd@@UAEXH@Z:NEAR		; CWnd::EndModalLoop
;	COMDAT ??_7CMyBtnTreeCtrl@@6B@
CONST	SEGMENT
??_7CMyBtnTreeCtrl@@6B@ DD FLAT:??_R4CMyBtnTreeCtrl@@6B@ ; CMyBtnTreeCtrl::`vftable'
	DD	FLAT:?GetRuntimeClass@CMyBtnTreeCtrl@@UBEPAUCRuntimeClass@@XZ
	DD	FLAT:??_ECMyBtnTreeCtrl@@UAEPAXI@Z
	DD	FLAT:?Serialize@CObject@@UAEXAAVCArchive@@@Z
	DD	FLAT:?AssertValid@CWnd@@UBEXXZ
	DD	FLAT:?Dump@CWnd@@UBEXAAVCDumpContext@@@Z
	DD	FLAT:?OnCmdMsg@CCmdTarget@@UAEHIHPAXPAUAFX_CMDHANDLERINFO@@@Z
	DD	FLAT:?OnFinalRelease@CWnd@@UAEXXZ
	DD	FLAT:?IsInvokeAllowed@CCmdTarget@@UAEHJ@Z
	DD	FLAT:?GetDispatchIID@CCmdTarget@@UAEHPAU_GUID@@@Z
	DD	FLAT:?GetTypeInfoCount@CCmdTarget@@UAEIXZ
	DD	FLAT:?GetTypeLibCache@CCmdTarget@@UAEPAVCTypeLibCache@@XZ
	DD	FLAT:?GetTypeLib@CCmdTarget@@UAEJKPAPAUITypeLib@@@Z
	DD	FLAT:?GetMessageMap@CMyBtnTreeCtrl@@MBEPBUAFX_MSGMAP@@XZ
	DD	FLAT:?GetCommandMap@CCmdTarget@@MBEPBUAFX_OLECMDMAP@@XZ
	DD	FLAT:?GetDispatchMap@CCmdTarget@@MBEPBUAFX_DISPMAP@@XZ
	DD	FLAT:?GetConnectionMap@CCmdTarget@@MBEPBUAFX_CONNECTIONMAP@@XZ
	DD	FLAT:?GetInterfaceMap@CWnd@@MBEPBUAFX_INTERFACEMAP@@XZ
	DD	FLAT:?GetEventSinkMap@CCmdTarget@@MBEPBUAFX_EVENTSINKMAP@@XZ
	DD	FLAT:?OnCreateAggregates@CCmdTarget@@UAEHXZ
	DD	FLAT:?GetInterfaceHook@CCmdTarget@@UAEPAUIUnknown@@PBX@Z
	DD	FLAT:?GetExtraConnectionPoints@CCmdTarget@@MAEHPAVCPtrArray@@@Z
	DD	FLAT:?GetConnectionHook@CCmdTarget@@MAEPAUIConnectionPoint@@ABU_GUID@@@Z
	DD	FLAT:?PreSubclassWindow@CWnd@@UAEXXZ
	DD	FLAT:?Create@CWnd@@UAEHPBD0KABUtagRECT@@PAV1@IPAUCCreateContext@@@Z
	DD	FLAT:?CreateEx@CWnd@@UAEHKPBD0KABUtagRECT@@PAV1@IPAX@Z
	DD	FLAT:?CreateEx@CWnd@@UAEHKPBD0KHHHHPAUHWND__@@PAUHMENU__@@PAX@Z
	DD	FLAT:?DestroyWindow@CWnd@@UAEHXZ
	DD	FLAT:?PreCreateWindow@CWnd@@UAEHAAUtagCREATESTRUCTA@@@Z
	DD	FLAT:?CalcWindowRect@CWnd@@UAEXPAUtagRECT@@I@Z
	DD	FLAT:?OnToolHitTest@CWnd@@UBEHVCPoint@@PAUtagTOOLINFOA@@@Z
	DD	FLAT:?GetScrollBarCtrl@CWnd@@UBEPAVCScrollBar@@H@Z
	DD	FLAT:?WinHelpA@CWnd@@UAEXKI@Z
	DD	FLAT:?HtmlHelpA@CWnd@@UAEXKI@Z
	DD	FLAT:?WinHelpInternal@CWnd@@UAEXKI@Z
	DD	FLAT:?ContinueModal@CWnd@@UAEHXZ
	DD	FLAT:?EndModalLoop@CWnd@@UAEXH@Z
	DD	FLAT:?EnsureStdObj@CWnd@@UAEJXZ
	DD	FLAT:?get_accParent@CWnd@@UAEJPAPAUIDispatch@@@Z
	DD	FLAT:?get_accChildCount@CWnd@@UAEJPAJ@Z
	DD	FLAT:?get_accChild@CWnd@@UAEJUtagVARIANT@@PAPAUIDispatch@@@Z
	DD	FLAT:?get_accName@CWnd@@UAEJUtagVARIANT@@PAPA_W@Z
	DD	FLAT:?get_accValue@CWnd@@UAEJUtagVARIANT@@PAPA_W@Z
	DD	FLAT:?get_accDescription@CWnd@@UAEJUtagVARIANT@@PAPA_W@Z
	DD	FLAT:?get_accRole@CWnd@@UAEJUtagVARIANT@@PAU2@@Z
	DD	FLAT:?get_accState@CWnd@@UAEJUtagVARIANT@@PAU2@@Z
	DD	FLAT:?get_accHelp@CWnd@@UAEJUtagVARIANT@@PAPA_W@Z
	DD	FLAT:?get_accHelpTopic@CWnd@@UAEJPAPA_WUtagVARIANT@@PAJ@Z
	DD	FLAT:?get_accKeyboardShortcut@CWnd@@UAEJUtagVARIANT@@PAPA_W@Z
	DD	FLAT:?get_accFocus@CWnd@@UAEJPAUtagVARIANT@@@Z
	DD	FLAT:?get_accSelection@CWnd@@UAEJPAUtagVARIANT@@@Z
	DD	FLAT:?get_accDefaultAction@CWnd@@UAEJUtagVARIANT@@PAPA_W@Z
	DD	FLAT:?accSelect@CWnd@@UAEJJUtagVARIANT@@@Z
	DD	FLAT:?accLocation@CWnd@@UAEJPAJ000UtagVARIANT@@@Z
	DD	FLAT:?accNavigate@CWnd@@UAEJJUtagVARIANT@@PAU2@@Z
	DD	FLAT:?accHitTest@CWnd@@UAEJJJPAUtagVARIANT@@@Z
	DD	FLAT:?accDoDefaultAction@CWnd@@UAEJUtagVARIANT@@@Z
	DD	FLAT:?put_accName@CWnd@@UAEJUtagVARIANT@@PA_W@Z
	DD	FLAT:?put_accValue@CWnd@@UAEJUtagVARIANT@@PA_W@Z
	DD	FLAT:?SetProxy@CWnd@@UAEJPAUIAccessibleProxy@@@Z
	DD	FLAT:?CreateAccessibleProxy@CWnd@@UAEJIJPAJ@Z
	DD	FLAT:?OnCommand@CWnd@@MAEHIJ@Z
	DD	FLAT:?OnNotify@CWnd@@MAEHIJPAJ@Z
	DD	FLAT:?GetSuperWndProcAddr@CWnd@@MAEPAP6GJPAUHWND__@@IIJ@ZXZ
	DD	FLAT:?DoDataExchange@CWnd@@MAEXPAVCDataExchange@@@Z
	DD	FLAT:?BeginModalState@CWnd@@UAEXXZ
	DD	FLAT:?EndModalState@CWnd@@UAEXXZ
	DD	FLAT:?PreTranslateMessage@CWnd@@UAEHPAUtagMSG@@@Z
	DD	FLAT:?OnAmbientProperty@CWnd@@UAEHPAVCOleControlSite@@JPAUtagVARIANT@@@Z
	DD	FLAT:?WindowProc@CWnd@@MAEJIIJ@Z
	DD	FLAT:?OnWndMsg@CWnd@@MAEHIIJPAJ@Z
	DD	FLAT:?DefWindowProcA@CWnd@@MAEJIIJ@Z
	DD	FLAT:?PostNcDestroy@CWnd@@MAEXXZ
	DD	FLAT:?OnChildNotify@CWnd@@MAEHIIJPAJ@Z
	DD	FLAT:?CheckAutoCenter@CWnd@@UAEHXZ
	DD	FLAT:?IsFrameWnd@CWnd@@UBEHXZ
	DD	FLAT:?CreateControlContainer@CWnd@@MAEHPAPAVCOleControlContainer@@@Z
	DD	FLAT:?CreateControlSite@CWnd@@MAEHPAVCOleControlContainer@@PAPAVCOleControlSite@@IABU_GUID@@@Z
	DD	FLAT:?SetOccDialogInfo@CWnd@@MAEHPAU_AFX_OCC_DIALOG_INFO@@@Z
	DD	FLAT:?Create@CTreeCtrl@@UAEHKABUtagRECT@@PAVCWnd@@I@Z
	DD	FLAT:?CreateEx@CTreeCtrl@@UAEHKKABUtagRECT@@PAVCWnd@@I@Z
	DD	FLAT:?ClickTreeItem@CMyTreeCtrl@@UAEXPAU_TREEITEM@@@Z
	DD	FLAT:?RClickTreeItem@CMyTreeCtrl@@UAEXPAU_TREEITEM@@@Z
	DD	FLAT:?DClickTreeItem@CMyTreeCtrl@@UAEXPAU_TREEITEM@@@Z
	DD	FLAT:?ClearData@CMyTreeCtrl@@UAEXXZ
CONST	ENDS
;	COMDAT ??_R4CMyBtnTreeCtrl@@6B@
rdata$r	SEGMENT
??_R4CMyBtnTreeCtrl@@6B@ DD 00H				; CMyBtnTreeCtrl::`RTTI Complete Object Locator'
	DD	00H
	DD	00H
	DD	FLAT:??_R0?AVCMyBtnTreeCtrl@@@8
	DD	FLAT:??_R3CMyBtnTreeCtrl@@8
rdata$r	ENDS
;	COMDAT ??_R0?AVCMyBtnTreeCtrl@@@8
_DATA	SEGMENT
??_R0?AVCMyBtnTreeCtrl@@@8 DD FLAT:??_7type_info@@6B@	; CMyBtnTreeCtrl `RTTI Type Descriptor'
	DD	00H
	DB	'.?AVCMyBtnTreeCtrl@@', 00H
_DATA	ENDS
;	COMDAT ??_R3CMyBtnTreeCtrl@@8
rdata$r	SEGMENT
??_R3CMyBtnTreeCtrl@@8 DD 00H				; CMyBtnTreeCtrl::`RTTI Class Hierarchy Descriptor'
	DD	00H
	DD	06H
	DD	FLAT:??_R2CMyBtnTreeCtrl@@8
rdata$r	ENDS
;	COMDAT ??_R2CMyBtnTreeCtrl@@8
rdata$r	SEGMENT
??_R2CMyBtnTreeCtrl@@8 DD FLAT:??_R1A@?0A@A@CMyBtnTreeCtrl@@8 ; CMyBtnTreeCtrl::`RTTI Base Class Array'
	DD	FLAT:??_R1A@?0A@A@CMyTreeCtrl@@8
	DD	FLAT:??_R1A@?0A@A@CTreeCtrl@@8
	DD	FLAT:??_R1A@?0A@A@CWnd@@8
	DD	FLAT:??_R1A@?0A@A@CCmdTarget@@8
	DD	FLAT:??_R1A@?0A@A@CObject@@8
rdata$r	ENDS
;	COMDAT ??_R1A@?0A@A@CMyBtnTreeCtrl@@8
rdata$r	SEGMENT
??_R1A@?0A@A@CMyBtnTreeCtrl@@8 DD FLAT:??_R0?AVCMyBtnTreeCtrl@@@8 ; CMyBtnTreeCtrl::`RTTI Base Class Descriptor at (0,-1,0,0)'
	DD	05H
	DD	00H
	DD	0ffffffffH
	DD	00H
	DD	00H
rdata$r	ENDS
;	COMDAT ??_R1A@?0A@A@CMyTreeCtrl@@8
rdata$r	SEGMENT
??_R1A@?0A@A@CMyTreeCtrl@@8 DD FLAT:??_R0?AVCMyTreeCtrl@@@8 ; CMyTreeCtrl::`RTTI Base Class Descriptor at (0,-1,0,0)'
	DD	04H
	DD	00H
	DD	0ffffffffH
	DD	00H
	DD	00H
rdata$r	ENDS
;	COMDAT ??_R0?AVCMyTreeCtrl@@@8
_DATA	SEGMENT
??_R0?AVCMyTreeCtrl@@@8 DD FLAT:??_7type_info@@6B@	; CMyTreeCtrl `RTTI Type Descriptor'
	DD	00H
	DB	'.?AVCMyTreeCtrl@@', 00H
_DATA	ENDS
;	COMDAT ??_R1A@?0A@A@CTreeCtrl@@8
rdata$r	SEGMENT
??_R1A@?0A@A@CTreeCtrl@@8 DD FLAT:??_R0?AVCTreeCtrl@@@8	; CTreeCtrl::`RTTI Base Class Descriptor at (0,-1,0,0)'
	DD	03H
	DD	00H
	DD	0ffffffffH
	DD	00H
	DD	00H
rdata$r	ENDS
;	COMDAT ??_R0?AVCTreeCtrl@@@8
_DATA	SEGMENT
??_R0?AVCTreeCtrl@@@8 DD FLAT:??_7type_info@@6B@	; CTreeCtrl `RTTI Type Descriptor'
	DD	00H
	DB	'.?AVCTreeCtrl@@', 00H
_DATA	ENDS
;	COMDAT ??_R1A@?0A@A@CWnd@@8
rdata$r	SEGMENT
??_R1A@?0A@A@CWnd@@8 DD FLAT:??_R0?AVCWnd@@@8		; CWnd::`RTTI Base Class Descriptor at (0,-1,0,0)'
	DD	02H
	DD	00H
	DD	0ffffffffH
	DD	00H
	DD	00H
rdata$r	ENDS
;	COMDAT ??_R0?AVCWnd@@@8
_DATA	SEGMENT
??_R0?AVCWnd@@@8 DD FLAT:??_7type_info@@6B@		; CWnd `RTTI Type Descriptor'
	DD	00H
	DB	'.?AVCWnd@@', 00H
_DATA	ENDS
;	COMDAT ??_R1A@?0A@A@CCmdTarget@@8
rdata$r	SEGMENT
??_R1A@?0A@A@CCmdTarget@@8 DD FLAT:??_R0?AVCCmdTarget@@@8 ; CCmdTarget::`RTTI Base Class Descriptor at (0,-1,0,0)'
	DD	01H
	DD	00H
	DD	0ffffffffH
	DD	00H
	DD	00H
rdata$r	ENDS
;	COMDAT ??_R0?AVCCmdTarget@@@8
_DATA	SEGMENT
??_R0?AVCCmdTarget@@@8 DD FLAT:??_7type_info@@6B@	; CCmdTarget `RTTI Type Descriptor'
	DD	00H
	DB	'.?AVCCmdTarget@@', 00H
_DATA	ENDS
;	COMDAT ??_R1A@?0A@A@CObject@@8
rdata$r	SEGMENT
??_R1A@?0A@A@CObject@@8 DD FLAT:??_R0?AVCObject@@@8	; CObject::`RTTI Base Class Descriptor at (0,-1,0,0)'
	DD	00H
	DD	00H
	DD	0ffffffffH
	DD	00H
	DD	00H
rdata$r	ENDS
;	COMDAT ??_R0?AVCObject@@@8
_DATA	SEGMENT
??_R0?AVCObject@@@8 DD FLAT:??_7type_info@@6B@		; CObject `RTTI Type Descriptor'
	DD	00H
	DB	'.?AVCObject@@', 00H
; Function compile flags: /Odt /RTCsu
_DATA	ENDS
_TEXT	SEGMENT
_this$ = -4						; size = 4
??0CMyBtnTreeCtrl@@QAE@XZ PROC NEAR			; CMyBtnTreeCtrl::CMyBtnTreeCtrl
; _this$ = ecx

; 11   : {

  00030	55		 push	 ebp
  00031	8b ec		 mov	 ebp, esp
  00033	51		 push	 ecx
  00034	c7 45 fc cc cc
	cc cc		 mov	 DWORD PTR [ebp-4], -858993460 ; ccccccccH
  0003b	89 4d fc	 mov	 DWORD PTR _this$[ebp], ecx
  0003e	6a 00		 push	 0
  00040	6a 00		 push	 0
  00042	8b 4d fc	 mov	 ecx, DWORD PTR _this$[ebp]
  00045	e8 00 00 00 00	 call	 ??0CMyTreeCtrl@@QAE@PAVCDibBitmap@@0@Z ; CMyTreeCtrl::CMyTreeCtrl
  0004a	8b 45 fc	 mov	 eax, DWORD PTR _this$[ebp]
  0004d	c7 00 00 00 00
	00		 mov	 DWORD PTR [eax], OFFSET FLAT:??_7CMyBtnTreeCtrl@@6B@
  00053	8b 4d fc	 mov	 ecx, DWORD PTR _this$[ebp]
  00056	c7 81 9c 00 00
	00 00 00 00 00	 mov	 DWORD PTR [ecx+156], 0
  00060	8b 55 fc	 mov	 edx, DWORD PTR _this$[ebp]
  00063	c7 82 a0 00 00
	00 00 00 00 00	 mov	 DWORD PTR [edx+160], 0
  0006d	8b 45 fc	 mov	 eax, DWORD PTR _this$[ebp]
  00070	c7 80 a4 00 00
	00 00 00 00 00	 mov	 DWORD PTR [eax+164], 0
  0007a	8b 4d fc	 mov	 ecx, DWORD PTR _this$[ebp]
  0007d	81 c1 a8 00 00
	00		 add	 ecx, 168		; 000000a8H
  00083	e8 00 00 00 00	 call	 ??0CRect@@QAE@XZ	; CRect::CRect
  00088	8b 4d fc	 mov	 ecx, DWORD PTR _this$[ebp]
  0008b	c6 81 b8 00 00
	00 00		 mov	 BYTE PTR [ecx+184], 0
  00092	8b 55 fc	 mov	 edx, DWORD PTR _this$[ebp]
  00095	c6 82 ba 00 00
	00 01		 mov	 BYTE PTR [edx+186], 1

; 12   : 	m_bTrackMouse = false;

  0009c	8b 45 fc	 mov	 eax, DWORD PTR _this$[ebp]
  0009f	c6 80 b9 00 00
	00 00		 mov	 BYTE PTR [eax+185], 0

; 13   : }

  000a6	8b 45 fc	 mov	 eax, DWORD PTR _this$[ebp]
  000a9	83 c4 04	 add	 esp, 4
  000ac	3b ec		 cmp	 ebp, esp
  000ae	e8 00 00 00 00	 call	 __RTC_CheckEsp
  000b3	8b e5		 mov	 esp, ebp
  000b5	5d		 pop	 ebp
  000b6	c3		 ret	 0
??0CMyBtnTreeCtrl@@QAE@XZ ENDP				; CMyBtnTreeCtrl::CMyBtnTreeCtrl
; Function compile flags: /Odt /RTCsu
; File d:\boxgit\playbox\playbox\dev\prj\playbox\src\gui\commoncontrol\mytreectrl.h
_TEXT	ENDS
;	COMDAT ?ClickTreeItem@CMyTreeCtrl@@UAEXPAU_TREEITEM@@@Z
_TEXT	SEGMENT
_this$ = -4						; size = 4
___formal$ = 8						; size = 4
?ClickTreeItem@CMyTreeCtrl@@UAEXPAU_TREEITEM@@@Z PROC NEAR ; CMyTreeCtrl::ClickTreeItem, COMDAT
; _this$ = ecx

; 65   : 	virtual void	ClickTreeItem( HTREEITEM ){};

  00000	55		 push	 ebp
  00001	8b ec		 mov	 ebp, esp
  00003	51		 push	 ecx
  00004	c7 45 fc cc cc
	cc cc		 mov	 DWORD PTR [ebp-4], -858993460 ; ccccccccH
  0000b	89 4d fc	 mov	 DWORD PTR _this$[ebp], ecx
  0000e	8b e5		 mov	 esp, ebp
  00010	5d		 pop	 ebp
  00011	c2 04 00	 ret	 4
?ClickTreeItem@CMyTreeCtrl@@UAEXPAU_TREEITEM@@@Z ENDP	; CMyTreeCtrl::ClickTreeItem
; Function compile flags: /Odt /RTCsu
_TEXT	ENDS
;	COMDAT ?RClickTreeItem@CMyTreeCtrl@@UAEXPAU_TREEITEM@@@Z
_TEXT	SEGMENT
_this$ = -4						; size = 4
___formal$ = 8						; size = 4
?RClickTreeItem@CMyTreeCtrl@@UAEXPAU_TREEITEM@@@Z PROC NEAR ; CMyTreeCtrl::RClickTreeItem, COMDAT
; _this$ = ecx

; 66   : 	virtual void	RClickTreeItem( HTREEITEM ){};

  00000	55		 push	 ebp
  00001	8b ec		 mov	 ebp, esp
  00003	51		 push	 ecx
  00004	c7 45 fc cc cc
	cc cc		 mov	 DWORD PTR [ebp-4], -858993460 ; ccccccccH
  0000b	89 4d fc	 mov	 DWORD PTR _this$[ebp], ecx
  0000e	8b e5		 mov	 esp, ebp
  00010	5d		 pop	 ebp
  00011	c2 04 00	 ret	 4
?RClickTreeItem@CMyTreeCtrl@@UAEXPAU_TREEITEM@@@Z ENDP	; CMyTreeCtrl::RClickTreeItem
; Function compile flags: /Odt /RTCsu
_TEXT	ENDS
;	COMDAT ?DClickTreeItem@CMyTreeCtrl@@UAEXPAU_TREEITEM@@@Z
_TEXT	SEGMENT
_this$ = -4						; size = 4
___formal$ = 8						; size = 4
?DClickTreeItem@CMyTreeCtrl@@UAEXPAU_TREEITEM@@@Z PROC NEAR ; CMyTreeCtrl::DClickTreeItem, COMDAT
; _this$ = ecx

; 67   : 	virtual void	DClickTreeItem( HTREEITEM ){};

  00000	55		 push	 ebp
  00001	8b ec		 mov	 ebp, esp
  00003	51		 push	 ecx
  00004	c7 45 fc cc cc
	cc cc		 mov	 DWORD PTR [ebp-4], -858993460 ; ccccccccH
  0000b	89 4d fc	 mov	 DWORD PTR _this$[ebp], ecx
  0000e	8b e5		 mov	 esp, ebp
  00010	5d		 pop	 ebp
  00011	c2 04 00	 ret	 4
?DClickTreeItem@CMyTreeCtrl@@UAEXPAU_TREEITEM@@@Z ENDP	; CMyTreeCtrl::DClickTreeItem
_TEXT	ENDS
PUBLIC	??1CMyBtnTreeCtrl@@UAE@XZ			; CMyBtnTreeCtrl::~CMyBtnTreeCtrl
EXTRN	??3CObject@@SGXPAX@Z:NEAR			; CObject::operator delete
; Function compile flags: /Odt /RTCsu
;	COMDAT ??_GCMyBtnTreeCtrl@@UAEPAXI@Z
_TEXT	SEGMENT
_this$ = -4						; size = 4
___flags$ = 8						; size = 4
??_GCMyBtnTreeCtrl@@UAEPAXI@Z PROC NEAR			; CMyBtnTreeCtrl::`scalar deleting destructor', COMDAT
; _this$ = ecx
  00000	55		 push	 ebp
  00001	8b ec		 mov	 ebp, esp
  00003	51		 push	 ecx
  00004	c7 45 fc cc cc
	cc cc		 mov	 DWORD PTR [ebp-4], -858993460 ; ccccccccH
  0000b	89 4d fc	 mov	 DWORD PTR _this$[ebp], ecx
  0000e	8b 4d fc	 mov	 ecx, DWORD PTR _this$[ebp]
  00011	e8 00 00 00 00	 call	 ??1CMyBtnTreeCtrl@@UAE@XZ ; CMyBtnTreeCtrl::~CMyBtnTreeCtrl
  00016	8b 45 08	 mov	 eax, DWORD PTR ___flags$[ebp]
  00019	83 e0 01	 and	 eax, 1
  0001c	74 09		 je	 SHORT $L187483
  0001e	8b 4d fc	 mov	 ecx, DWORD PTR _this$[ebp]
  00021	51		 push	 ecx
  00022	e8 00 00 00 00	 call	 ??3CObject@@SGXPAX@Z	; CObject::operator delete
$L187483:
  00027	8b 45 fc	 mov	 eax, DWORD PTR _this$[ebp]
  0002a	83 c4 04	 add	 esp, 4
  0002d	3b ec		 cmp	 ebp, esp
  0002f	e8 00 00 00 00	 call	 __RTC_CheckEsp
  00034	8b e5		 mov	 esp, ebp
  00036	5d		 pop	 ebp
  00037	c2 04 00	 ret	 4
??_GCMyBtnTreeCtrl@@UAEPAXI@Z ENDP			; CMyBtnTreeCtrl::`scalar deleting destructor'
_TEXT	ENDS
EXTRN	??1CMyTreeCtrl@@UAE@XZ:NEAR			; CMyTreeCtrl::~CMyTreeCtrl
; Function compile flags: /Odt /RTCsu
; File d:\boxgit\playbox\playbox\dev\prj\playbox\src\gui\commoncontrol\mybtntreectrl.cpp
_TEXT	SEGMENT
_this$ = -4						; size = 4
??1CMyBtnTreeCtrl@@UAE@XZ PROC NEAR			; CMyBtnTreeCtrl::~CMyBtnTreeCtrl
; _this$ = ecx

; 16   : {

  000c0	55		 push	 ebp
  000c1	8b ec		 mov	 ebp, esp
  000c3	51		 push	 ecx
  000c4	c7 45 fc cc cc
	cc cc		 mov	 DWORD PTR [ebp-4], -858993460 ; ccccccccH
  000cb	89 4d fc	 mov	 DWORD PTR _this$[ebp], ecx
  000ce	8b 45 fc	 mov	 eax, DWORD PTR _this$[ebp]
  000d1	c7 00 00 00 00
	00		 mov	 DWORD PTR [eax], OFFSET FLAT:??_7CMyBtnTreeCtrl@@6B@

; 17   : }

  000d7	8b 4d fc	 mov	 ecx, DWORD PTR _this$[ebp]
  000da	e8 00 00 00 00	 call	 ??1CMyTreeCtrl@@UAE@XZ	; CMyTreeCtrl::~CMyTreeCtrl
  000df	83 c4 04	 add	 esp, 4
  000e2	3b ec		 cmp	 ebp, esp
  000e4	e8 00 00 00 00	 call	 __RTC_CheckEsp
  000e9	8b e5		 mov	 esp, ebp
  000eb	5d		 pop	 ebp
  000ec	c3		 ret	 0
??1CMyBtnTreeCtrl@@UAE@XZ ENDP				; CMyBtnTreeCtrl::~CMyBtnTreeCtrl
_TEXT	ENDS
PUBLIC	?GetThisMessageMap@CMyBtnTreeCtrl@@KGPBUAFX_MSGMAP@@XZ ; CMyBtnTreeCtrl::GetThisMessageMap
; Function compile flags: /Odt /RTCsu
_TEXT	SEGMENT
?GetThisMessageMap@CMyBtnTreeCtrl@@KGPBUAFX_MSGMAP@@XZ PROC NEAR ; CMyBtnTreeCtrl::GetThisMessageMap

; 20   : BEGIN_MESSAGE_MAP(CMyBtnTreeCtrl, CMyTreeCtrl)

  000f0	55		 push	 ebp
  000f1	8b ec		 mov	 ebp, esp
  000f3	b8 00 00 00 00	 mov	 eax, OFFSET FLAT:?messageMap@CMyBtnTreeCtrl@@1UAFX_MSGMAP@@B ; CMyBtnTreeCtrl::messageMap
  000f8	5d		 pop	 ebp
  000f9	c3		 ret	 0
?GetThisMessageMap@CMyBtnTreeCtrl@@KGPBUAFX_MSGMAP@@XZ ENDP ; CMyBtnTreeCtrl::GetThisMessageMap
; Function compile flags: /Odt /RTCsu
_this$ = -4						; size = 4
?GetMessageMap@CMyBtnTreeCtrl@@MBEPBUAFX_MSGMAP@@XZ PROC NEAR ; CMyBtnTreeCtrl::GetMessageMap
; _this$ = ecx

; 20   : BEGIN_MESSAGE_MAP(CMyBtnTreeCtrl, CMyTreeCtrl)

  00100	55		 push	 ebp
  00101	8b ec		 mov	 ebp, esp
  00103	51		 push	 ecx
  00104	c7 45 fc cc cc
	cc cc		 mov	 DWORD PTR [ebp-4], -858993460 ; ccccccccH
  0010b	89 4d fc	 mov	 DWORD PTR _this$[ebp], ecx
  0010e	b8 00 00 00 00	 mov	 eax, OFFSET FLAT:?messageMap@CMyBtnTreeCtrl@@1UAFX_MSGMAP@@B ; CMyBtnTreeCtrl::messageMap
  00113	8b e5		 mov	 esp, ebp
  00115	5d		 pop	 ebp
  00116	c3		 ret	 0
?GetMessageMap@CMyBtnTreeCtrl@@MBEPBUAFX_MSGMAP@@XZ ENDP ; CMyBtnTreeCtrl::GetMessageMap
; Function compile flags: /Odt /RTCsu
_this$ = -4						; size = 4
_pDC$ = 8						; size = 4
?OnEraseBkgnd@CMyBtnTreeCtrl@@QAEHPAVCDC@@@Z PROC NEAR	; CMyBtnTreeCtrl::OnEraseBkgnd
; _this$ = ecx

; 32   : {

  00120	55		 push	 ebp
  00121	8b ec		 mov	 ebp, esp
  00123	51		 push	 ecx
  00124	c7 45 fc cc cc
	cc cc		 mov	 DWORD PTR [ebp-4], -858993460 ; ccccccccH
  0012b	89 4d fc	 mov	 DWORD PTR _this$[ebp], ecx

; 33   : 	return 0;

  0012e	33 c0		 xor	 eax, eax

; 34   : }

  00130	8b e5		 mov	 esp, ebp
  00132	5d		 pop	 ebp
  00133	c2 04 00	 ret	 4
?OnEraseBkgnd@CMyBtnTreeCtrl@@QAEHPAVCDC@@@Z ENDP	; CMyBtnTreeCtrl::OnEraseBkgnd
_TEXT	ENDS
PUBLIC	?DrawImage@CMyBtnTreeCtrl@@QAEXPAVCDibBitmap@@AAVCRect@@AAVCDC@@@Z ; CMyBtnTreeCtrl::DrawImage
EXTRN	?DrawIndirect@CImageList@@QAEHPAVCDC@@HUtagPOINT@@UtagSIZE@@1IKKKKKK@Z:NEAR ; CImageList::DrawIndirect
EXTRN	?GetItemRect@CTreeCtrl@@QBEHPAU_TREEITEM@@PAUtagRECT@@H@Z:NEAR ; CTreeCtrl::GetItemRect
EXTRN	?GetSelectedItem@CTreeCtrl@@QBEPAU_TREEITEM@@XZ:NEAR ; CTreeCtrl::GetSelectedItem
EXTRN	?GetItemText@CTreeCtrl@@QBE?AV?$CStringT@DV?$StrTraitMFC_DLL@DV?$ChTraitsCRT@D@ATL@@@@@ATL@@PAU_TREEITEM@@@Z:NEAR ; CTreeCtrl::GetItemText
EXTRN	?GetItemImage@CTreeCtrl@@QBEHPAU_TREEITEM@@AAH1@Z:NEAR ; CTreeCtrl::GetItemImage
EXTRN	?GetItemState@CTreeCtrl@@QBEIPAU_TREEITEM@@I@Z:NEAR ; CTreeCtrl::GetItemState
EXTRN	?DrawTextA@CDC@@QAEHABV?$CStringT@DV?$StrTraitMFC_DLL@DV?$ChTraitsCRT@D@ATL@@@@@ATL@@PAUtagRECT@@I@Z:NEAR ; CDC::DrawTextA
EXTRN	?AfxGetUIManager@@YAPAVIUIManager@@XZ:NEAR	; AfxGetUIManager
EXTRN	?GetItemHeight@CTreeCtrl@@QBEFXZ:NEAR		; CTreeCtrl::GetItemHeight
EXTRN	?FillSolidRect@CDC@@QAEXPBUtagRECT@@K@Z:NEAR	; CDC::FillSolidRect
EXTRN	?Draw@CDibBitmap@@QAEHPAVCDC@@HKH@Z:NEAR	; CDibBitmap::Draw
EXTRN	?SetCDibRect@CDibBitmap@@QAEXVCRect@@@Z:NEAR	; CDibBitmap::SetCDibRect
EXTRN	?GetHeight@CDibBitmap@@QAEHXZ:NEAR		; CDibBitmap::GetHeight
EXTRN	??8CRect@@QBEHABUtagRECT@@@Z:NEAR		; CRect::operator==
EXTRN	?GetFont@CWnd@@QBEPAVCFont@@XZ:NEAR		; CWnd::GetFont
EXTRN	?FromHandle@CDC@@SGPAV1@PAUHDC__@@@Z:NEAR	; CDC::FromHandle
EXTRN	?GetTextColor@CDC@@QBEKXZ:NEAR			; CDC::GetTextColor
EXTRN	?SetBkMode@CDC@@QAEHH@Z:NEAR			; CDC::SetBkMode
EXTRN	__except_list:DWORD
EXTRN	@_RTC_CheckStackVars@8:NEAR
EXTRN	___CxxFrameHandler:NEAR
EXTRN	__imp_??1?$CStringT@DV?$StrTraitMFC_DLL@DV?$ChTraitsCRT@D@ATL@@@@@ATL@@QAE@XZ:NEAR
EXTRN	?GetImageInfo@CImageList@@QBEHHPAU_IMAGEINFO@@@Z:NEAR ; CImageList::GetImageInfo
xdata$x	SEGMENT
$T188140 DD	0ffffffffH
	DD	FLAT:$L188117
$T188121 DD	019930520H
	DD	01H
	DD	FLAT:$T188140
	DD	2 DUP(00H)
	DD	2 DUP(00H)
; Function compile flags: /Odt /RTCsu
xdata$x	ENDS
_TEXT	SEGMENT
tv215 = -348						; size = 4
tv210 = -344						; size = 4
tv151 = -340						; size = 4
tv146 = -336						; size = 4
tv143 = -332						; size = 4
_pSrc$187581 = -324					; size = 8
_pDes$187580 = -308					; size = 8
_size$187579 = -292					; size = 8
_imageInfo$187578 = -276				; size = 32
_pDib$187576 = -240					; size = 4
_rcTop$187572 = -232					; size = 16
_pDibTopLine$ = -212					; size = 4
_rcDrawTextReal$ = -204					; size = 16
_rcDrawText$ = -180					; size = 16
_nFormat$ = -160					; size = 4
_nSelectedImage$ = -152					; size = 4
_nImage$ = -140						; size = 4
_pOldFont$ = -132					; size = 4
_colorOld$ = -128					; size = 4
_pDC$ = -124						; size = 4
_bHover$ = -118						; size = 1
_bSelect$ = -117					; size = 1
_newRc$ = -112						; size = 16
_text$ = -88						; size = 4
_rctext$ = -76						; size = 16
_rc$ = -52						; size = 16
_hCurTreeItem$ = -32					; size = 4
_bDrop$ = -25						; size = 1
_item$ = -24						; size = 4
_pLVCD$ = -20						; size = 4
_this$ = -16						; size = 4
__$EHRec$ = -12						; size = 12
_pNMHDR$ = 8						; size = 4
_pResult$ = 12						; size = 4
?OnCustomdraw@CMyBtnTreeCtrl@@QAEXPAUtagNMHDR@@PAJ@Z PROC NEAR ; CMyBtnTreeCtrl::OnCustomdraw
; _this$ = ecx

; 42   : {

  00140	55		 push	 ebp
  00141	8b ec		 mov	 ebp, esp
  00143	6a ff		 push	 -1
  00145	68 00 00 00 00	 push	 __ehhandler$?OnCustomdraw@CMyBtnTreeCtrl@@QAEXPAUtagNMHDR@@PAJ@Z
  0014a	64 a1 00 00 00
	00		 mov	 eax, DWORD PTR fs:__except_list
  00150	50		 push	 eax
  00151	64 89 25 00 00
	00 00		 mov	 DWORD PTR fs:__except_list, esp
  00158	81 ec 50 01 00
	00		 sub	 esp, 336		; 00000150H
  0015e	56		 push	 esi
  0015f	57		 push	 edi
  00160	51		 push	 ecx
  00161	8d bd a4 fe ff
	ff		 lea	 edi, DWORD PTR [ebp-348]
  00167	b9 54 00 00 00	 mov	 ecx, 84			; 00000054H
  0016c	b8 cc cc cc cc	 mov	 eax, -858993460		; ccccccccH
  00171	f3 ab		 rep stosd
  00173	59		 pop	 ecx
  00174	89 4d f0	 mov	 DWORD PTR _this$[ebp], ecx

; 43   : 	NMTVCUSTOMDRAW* pLVCD = reinterpret_cast<NMTVCUSTOMDRAW*>(pNMHDR);

  00177	8b 45 08	 mov	 eax, DWORD PTR _pNMHDR$[ebp]
  0017a	89 45 ec	 mov	 DWORD PTR _pLVCD$[ebp], eax

; 44   : 	*pResult = CDRF_DODEFAULT;

  0017d	8b 4d 0c	 mov	 ecx, DWORD PTR _pResult$[ebp]
  00180	c7 01 00 00 00
	00		 mov	 DWORD PTR [ecx], 0

; 45   : 	HTREEITEM item = GetSelectedItem();

  00186	8b 4d f0	 mov	 ecx, DWORD PTR _this$[ebp]
  00189	e8 00 00 00 00	 call	 ?GetSelectedItem@CTreeCtrl@@QBEPAU_TREEITEM@@XZ ; CTreeCtrl::GetSelectedItem
  0018e	89 45 e8	 mov	 DWORD PTR _item$[ebp], eax

; 46   : 
; 47   : 	bool bDrop = false;

  00191	c6 45 e7 00	 mov	 BYTE PTR _bDrop$[ebp], 0

; 48   : 	if( item )

  00195	83 7d e8 00	 cmp	 DWORD PTR _item$[ebp], 0
  00199	74 17		 je	 SHORT $L187546

; 49   : 	{
; 50   : 		bDrop = (GetItemState( item,TVIS_DROPHILITED ) & TVIS_DROPHILITED);

  0019b	6a 08		 push	 8
  0019d	8b 55 e8	 mov	 edx, DWORD PTR _item$[ebp]
  001a0	52		 push	 edx
  001a1	8b 4d f0	 mov	 ecx, DWORD PTR _this$[ebp]
  001a4	e8 00 00 00 00	 call	 ?GetItemState@CTreeCtrl@@QBEIPAU_TREEITEM@@I@Z ; CTreeCtrl::GetItemState
  001a9	83 e0 08	 and	 eax, 8
  001ac	0f 95 c0	 setne	 al
  001af	88 45 e7	 mov	 BYTE PTR _bDrop$[ebp], al
$L187546:

; 51   : 	}
; 52   : 	//当前所画的item的状况
; 53   : 	HTREEITEM hCurTreeItem = (HTREEITEM)(pLVCD->nmcd.dwItemSpec);

  001b2	8b 4d ec	 mov	 ecx, DWORD PTR _pLVCD$[ebp]
  001b5	8b 51 24	 mov	 edx, DWORD PTR [ecx+36]
  001b8	89 55 e0	 mov	 DWORD PTR _hCurTreeItem$[ebp], edx

; 54   : 	CRect rc, rctext;

  001bb	8d 4d cc	 lea	 ecx, DWORD PTR _rc$[ebp]
  001be	e8 00 00 00 00	 call	 ??0CRect@@QAE@XZ	; CRect::CRect
  001c3	8d 4d b4	 lea	 ecx, DWORD PTR _rctext$[ebp]
  001c6	e8 00 00 00 00	 call	 ??0CRect@@QAE@XZ	; CRect::CRect

; 55   : 	GetItemRect(hCurTreeItem, &rctext, true);

  001cb	6a 01		 push	 1
  001cd	8d 45 b4	 lea	 eax, DWORD PTR _rctext$[ebp]
  001d0	50		 push	 eax
  001d1	8b 4d e0	 mov	 ecx, DWORD PTR _hCurTreeItem$[ebp]
  001d4	51		 push	 ecx
  001d5	8b 4d f0	 mov	 ecx, DWORD PTR _this$[ebp]
  001d8	e8 00 00 00 00	 call	 ?GetItemRect@CTreeCtrl@@QBEHPAU_TREEITEM@@PAUtagRECT@@H@Z ; CTreeCtrl::GetItemRect

; 56   : 	GetItemRect(hCurTreeItem, &rc, false);

  001dd	6a 00		 push	 0
  001df	8d 55 cc	 lea	 edx, DWORD PTR _rc$[ebp]
  001e2	52		 push	 edx
  001e3	8b 45 e0	 mov	 eax, DWORD PTR _hCurTreeItem$[ebp]
  001e6	50		 push	 eax
  001e7	8b 4d f0	 mov	 ecx, DWORD PTR _this$[ebp]
  001ea	e8 00 00 00 00	 call	 ?GetItemRect@CTreeCtrl@@QBEHPAU_TREEITEM@@PAUtagRECT@@H@Z ; CTreeCtrl::GetItemRect

; 57   : 	CString text = GetItemText(hCurTreeItem);

  001ef	8b 4d e0	 mov	 ecx, DWORD PTR _hCurTreeItem$[ebp]
  001f2	51		 push	 ecx
  001f3	8d 55 a8	 lea	 edx, DWORD PTR _text$[ebp]
  001f6	52		 push	 edx
  001f7	8b 4d f0	 mov	 ecx, DWORD PTR _this$[ebp]
  001fa	e8 00 00 00 00	 call	 ?GetItemText@CTreeCtrl@@QBE?AV?$CStringT@DV?$StrTraitMFC_DLL@DV?$ChTraitsCRT@D@ATL@@@@@ATL@@PAU_TREEITEM@@@Z ; CTreeCtrl::GetItemText
  001ff	c7 45 fc 00 00
	00 00		 mov	 DWORD PTR __$EHRec$[ebp+8], 0

; 58   : 	CRect newRc(rctext);

  00206	8b 45 b4	 mov	 eax, DWORD PTR _rctext$[ebp]
  00209	89 45 90	 mov	 DWORD PTR _newRc$[ebp], eax
  0020c	8b 4d b8	 mov	 ecx, DWORD PTR _rctext$[ebp+4]
  0020f	89 4d 94	 mov	 DWORD PTR _newRc$[ebp+4], ecx
  00212	8b 55 bc	 mov	 edx, DWORD PTR _rctext$[ebp+8]
  00215	89 55 98	 mov	 DWORD PTR _newRc$[ebp+8], edx
  00218	8b 45 c0	 mov	 eax, DWORD PTR _rctext$[ebp+12]
  0021b	89 45 9c	 mov	 DWORD PTR _newRc$[ebp+12], eax

; 59   : 
; 60   : 	bool bSelect = (item==hCurTreeItem);

  0021e	8b 4d e8	 mov	 ecx, DWORD PTR _item$[ebp]
  00221	2b 4d e0	 sub	 ecx, DWORD PTR _hCurTreeItem$[ebp]
  00224	f7 d9		 neg	 ecx
  00226	1b c9		 sbb	 ecx, ecx
  00228	41		 inc	 ecx
  00229	88 4d 8b	 mov	 BYTE PTR _bSelect$[ebp], cl

; 61   : 	bool bHover = (hCurTreeItem==m_iHoverItem);

  0022c	8b 55 f0	 mov	 edx, DWORD PTR _this$[ebp]
  0022f	8b 45 e0	 mov	 eax, DWORD PTR _hCurTreeItem$[ebp]
  00232	2b 82 98 00 00
	00		 sub	 eax, DWORD PTR [edx+152]
  00238	f7 d8		 neg	 eax
  0023a	1b c0		 sbb	 eax, eax
  0023c	40		 inc	 eax
  0023d	88 45 8a	 mov	 BYTE PTR _bHover$[ebp], al

; 62   : 	CDC* pDC = CDC::FromHandle(pLVCD->nmcd.hdc);

  00240	8b 4d ec	 mov	 ecx, DWORD PTR _pLVCD$[ebp]
  00243	8b 51 10	 mov	 edx, DWORD PTR [ecx+16]
  00246	52		 push	 edx
  00247	e8 00 00 00 00	 call	 ?FromHandle@CDC@@SGPAV1@PAUHDC__@@@Z ; CDC::FromHandle
  0024c	89 45 84	 mov	 DWORD PTR _pDC$[ebp], eax

; 63   : 	COLORREF colorOld = pDC->GetTextColor();

  0024f	8b 4d 84	 mov	 ecx, DWORD PTR _pDC$[ebp]
  00252	e8 00 00 00 00	 call	 ?GetTextColor@CDC@@QBEKXZ ; CDC::GetTextColor
  00257	89 45 80	 mov	 DWORD PTR _colorOld$[ebp], eax

; 64   : 	CFont* pOldFont = GetFont();

  0025a	8b 4d f0	 mov	 ecx, DWORD PTR _this$[ebp]
  0025d	e8 00 00 00 00	 call	 ?GetFont@CWnd@@QBEPAVCFont@@XZ ; CWnd::GetFont
  00262	89 85 7c ff ff
	ff		 mov	 DWORD PTR _pOldFont$[ebp], eax

; 65   : 	int nImage, nSelectedImage;
; 66   : 	GetItemImage( hCurTreeItem, nImage, nSelectedImage );

  00268	8d 85 68 ff ff
	ff		 lea	 eax, DWORD PTR _nSelectedImage$[ebp]
  0026e	50		 push	 eax
  0026f	8d 8d 74 ff ff
	ff		 lea	 ecx, DWORD PTR _nImage$[ebp]
  00275	51		 push	 ecx
  00276	8b 55 e0	 mov	 edx, DWORD PTR _hCurTreeItem$[ebp]
  00279	52		 push	 edx
  0027a	8b 4d f0	 mov	 ecx, DWORD PTR _this$[ebp]
  0027d	e8 00 00 00 00	 call	 ?GetItemImage@CTreeCtrl@@QBEHPAU_TREEITEM@@AAH1@Z ; CTreeCtrl::GetItemImage

; 67   : 	UINT nFormat = DT_LEFT|DT_VCENTER|DT_SINGLELINE|DT_NOPREFIX;

  00282	c7 85 60 ff ff
	ff 24 08 00 00	 mov	 DWORD PTR _nFormat$[ebp], 2084 ; 00000824H

; 68   : 
; 69   : 	CRect rcDrawText;//写字的范围

  0028c	8d 8d 4c ff ff
	ff		 lea	 ecx, DWORD PTR _rcDrawText$[ebp]
  00292	e8 00 00 00 00	 call	 ??0CRect@@QAE@XZ	; CRect::CRect

; 70   : 	CRect rcDrawTextReal; //实际写出的字的范围

  00297	8d 8d 34 ff ff
	ff		 lea	 ecx, DWORD PTR _rcDrawTextReal$[ebp]
  0029d	e8 00 00 00 00	 call	 ??0CRect@@QAE@XZ	; CRect::CRect

; 71   : 	CDibBitmap *pDibTopLine = NULL;

  002a2	c7 85 2c ff ff
	ff 00 00 00 00	 mov	 DWORD PTR _pDibTopLine$[ebp], 0

; 72   : 
; 73   : 	switch (pLVCD->nmcd.dwDrawStage)

  002ac	8b 45 ec	 mov	 eax, DWORD PTR _pLVCD$[ebp]
  002af	8b 48 0c	 mov	 ecx, DWORD PTR [eax+12]
  002b2	89 8d b4 fe ff
	ff		 mov	 DWORD PTR tv143[ebp], ecx
  002b8	83 bd b4 fe ff
	ff 01		 cmp	 DWORD PTR tv143[ebp], 1
  002bf	0f 84 b4 04 00
	00		 je	 $L187589
  002c5	81 bd b4 fe ff
	ff 01 00 01 00	 cmp	 DWORD PTR tv143[ebp], 65537 ; 00010001H
  002cf	74 05		 je	 SHORT $L187569
  002d1	e9 41 05 00 00	 jmp	 $L187594
$L187569:

; 74   : 	{
; 75   : 	case CDDS_ITEMPREPAINT:
; 76   : 		//画出每个item上边的横道
; 77   : 		pDibTopLine = ::AfxGetUIManager()->UIGetSkinMgr()->GetDibBmp("ListBkTop");

  002d6	e8 00 00 00 00	 call	 ?AfxGetUIManager@@YAPAVIUIManager@@XZ ; AfxGetUIManager
  002db	89 85 b0 fe ff
	ff		 mov	 DWORD PTR tv146[ebp], eax
  002e1	8b f4		 mov	 esi, esp
  002e3	8b 95 b0 fe ff
	ff		 mov	 edx, DWORD PTR tv146[ebp]
  002e9	8b 02		 mov	 eax, DWORD PTR [edx]
  002eb	8b 8d b0 fe ff
	ff		 mov	 ecx, DWORD PTR tv146[ebp]
  002f1	ff 50 28	 call	 DWORD PTR [eax+40]
  002f4	3b f4		 cmp	 esi, esp
  002f6	e8 00 00 00 00	 call	 __RTC_CheckEsp
  002fb	89 85 ac fe ff
	ff		 mov	 DWORD PTR tv151[ebp], eax
  00301	8b f4		 mov	 esi, esp
  00303	68 00 00 00 00	 push	 OFFSET FLAT:$SG187570
  00308	8b 8d ac fe ff
	ff		 mov	 ecx, DWORD PTR tv151[ebp]
  0030e	8b 11		 mov	 edx, DWORD PTR [ecx]
  00310	8b 8d ac fe ff
	ff		 mov	 ecx, DWORD PTR tv151[ebp]
  00316	ff 52 04	 call	 DWORD PTR [edx+4]
  00319	3b f4		 cmp	 esi, esp
  0031b	e8 00 00 00 00	 call	 __RTC_CheckEsp
  00320	89 85 2c ff ff
	ff		 mov	 DWORD PTR _pDibTopLine$[ebp], eax

; 78   : 		if( pDibTopLine != NULL )

  00326	83 bd 2c ff ff
	ff 00		 cmp	 DWORD PTR _pDibTopLine$[ebp], 0
  0032d	0f 84 9c 00 00
	00		 je	 $L187571

; 79   : 		{
; 80   : 			CRect rcTop(rc);

  00333	8b 45 cc	 mov	 eax, DWORD PTR _rc$[ebp]
  00336	89 85 18 ff ff
	ff		 mov	 DWORD PTR _rcTop$187572[ebp], eax
  0033c	8b 4d d0	 mov	 ecx, DWORD PTR _rc$[ebp+4]
  0033f	89 8d 1c ff ff
	ff		 mov	 DWORD PTR _rcTop$187572[ebp+4], ecx
  00345	8b 55 d4	 mov	 edx, DWORD PTR _rc$[ebp+8]
  00348	89 95 20 ff ff
	ff		 mov	 DWORD PTR _rcTop$187572[ebp+8], edx
  0034e	8b 45 d8	 mov	 eax, DWORD PTR _rc$[ebp+12]
  00351	89 85 24 ff ff
	ff		 mov	 DWORD PTR _rcTop$187572[ebp+12], eax

; 81   : 			rcTop.bottom = rcTop.top + pDibTopLine->GetHeight();

  00357	8b 8d 2c ff ff
	ff		 mov	 ecx, DWORD PTR _pDibTopLine$[ebp]
  0035d	e8 00 00 00 00	 call	 ?GetHeight@CDibBitmap@@QAEHXZ ; CDibBitmap::GetHeight
  00362	03 85 1c ff ff
	ff		 add	 eax, DWORD PTR _rcTop$187572[ebp+4]
  00368	89 85 24 ff ff
	ff		 mov	 DWORD PTR _rcTop$187572[ebp+12], eax

; 82   : 			rcTop.left   = 8;

  0036e	c7 85 18 ff ff
	ff 08 00 00 00	 mov	 DWORD PTR _rcTop$187572[ebp], 8

; 83   : 			rcTop.right  = rcTop.right - 8;

  00378	8b 8d 20 ff ff
	ff		 mov	 ecx, DWORD PTR _rcTop$187572[ebp+8]
  0037e	83 e9 08	 sub	 ecx, 8
  00381	89 8d 20 ff ff
	ff		 mov	 DWORD PTR _rcTop$187572[ebp+8], ecx

; 84   : 			pDibTopLine->SetCDibRect(rcTop);

  00387	83 ec 10	 sub	 esp, 16			; 00000010H
  0038a	8b d4		 mov	 edx, esp
  0038c	8b 85 18 ff ff
	ff		 mov	 eax, DWORD PTR _rcTop$187572[ebp]
  00392	89 02		 mov	 DWORD PTR [edx], eax
  00394	8b 8d 1c ff ff
	ff		 mov	 ecx, DWORD PTR _rcTop$187572[ebp+4]
  0039a	89 4a 04	 mov	 DWORD PTR [edx+4], ecx
  0039d	8b 85 20 ff ff
	ff		 mov	 eax, DWORD PTR _rcTop$187572[ebp+8]
  003a3	89 42 08	 mov	 DWORD PTR [edx+8], eax
  003a6	8b 8d 24 ff ff
	ff		 mov	 ecx, DWORD PTR _rcTop$187572[ebp+12]
  003ac	89 4a 0c	 mov	 DWORD PTR [edx+12], ecx
  003af	8b 8d 2c ff ff
	ff		 mov	 ecx, DWORD PTR _pDibTopLine$[ebp]
  003b5	e8 00 00 00 00	 call	 ?SetCDibRect@CDibBitmap@@QAEXVCRect@@@Z ; CDibBitmap::SetCDibRect

; 85   : 			pDibTopLine->Draw(pDC, true);

  003ba	6a 01		 push	 1
  003bc	6a 00		 push	 0
  003be	6a 01		 push	 1
  003c0	8b 55 84	 mov	 edx, DWORD PTR _pDC$[ebp]
  003c3	52		 push	 edx
  003c4	8b 8d 2c ff ff
	ff		 mov	 ecx, DWORD PTR _pDibTopLine$[ebp]
  003ca	e8 00 00 00 00	 call	 ?Draw@CDibBitmap@@QAEHPAVCDC@@HKH@Z ; CDibBitmap::Draw
$L187571:

; 86   : 		}
; 87   : 		//画背景/////////////////////////////////////////////////////////////
; 88   : 		if( bSelect )

  003cf	0f b6 45 8b	 movzx	 eax, BYTE PTR _bSelect$[ebp]
  003d3	85 c0		 test	 eax, eax
  003d5	74 18		 je	 SHORT $L187573

; 89   : 		{
; 90   : 			pDC->FillSolidRect(&rc,m_colorSelectItemBK);

  003d7	8b 4d f0	 mov	 ecx, DWORD PTR _this$[ebp]
  003da	8b 51 78	 mov	 edx, DWORD PTR [ecx+120]
  003dd	52		 push	 edx
  003de	8d 45 cc	 lea	 eax, DWORD PTR _rc$[ebp]
  003e1	50		 push	 eax
  003e2	8b 4d 84	 mov	 ecx, DWORD PTR _pDC$[ebp]
  003e5	e8 00 00 00 00	 call	 ?FillSolidRect@CDC@@QAEXPBUtagRECT@@K@Z ; CDC::FillSolidRect

; 91   : 		}else

  003ea	e9 98 00 00 00	 jmp	 $L187574
$L187573:

; 92   : 		if( bHover )

  003ef	0f b6 4d 8a	 movzx	 ecx, BYTE PTR _bHover$[ebp]
  003f3	85 c9		 test	 ecx, ecx
  003f5	0f 84 8c 00 00
	00		 je	 $L187574

; 93   : 		{
; 94   : 			CDibBitmap *pDib = ::AfxGetUIManager()->UIGetSkinMgr()->GetDibBmp("ListHoverBK");

  003fb	e8 00 00 00 00	 call	 ?AfxGetUIManager@@YAPAVIUIManager@@XZ ; AfxGetUIManager
  00400	89 85 a8 fe ff
	ff		 mov	 DWORD PTR tv210[ebp], eax
  00406	8b f4		 mov	 esi, esp
  00408	8b 95 a8 fe ff
	ff		 mov	 edx, DWORD PTR tv210[ebp]
  0040e	8b 02		 mov	 eax, DWORD PTR [edx]
  00410	8b 8d a8 fe ff
	ff		 mov	 ecx, DWORD PTR tv210[ebp]
  00416	ff 50 28	 call	 DWORD PTR [eax+40]
  00419	3b f4		 cmp	 esi, esp
  0041b	e8 00 00 00 00	 call	 __RTC_CheckEsp
  00420	89 85 a4 fe ff
	ff		 mov	 DWORD PTR tv215[ebp], eax
  00426	8b f4		 mov	 esi, esp
  00428	68 00 00 00 00	 push	 OFFSET FLAT:$SG187577
  0042d	8b 8d a4 fe ff
	ff		 mov	 ecx, DWORD PTR tv215[ebp]
  00433	8b 11		 mov	 edx, DWORD PTR [ecx]
  00435	8b 8d a4 fe ff
	ff		 mov	 ecx, DWORD PTR tv215[ebp]
  0043b	ff 52 04	 call	 DWORD PTR [edx+4]
  0043e	3b f4		 cmp	 esi, esp
  00440	e8 00 00 00 00	 call	 __RTC_CheckEsp
  00445	89 85 10 ff ff
	ff		 mov	 DWORD PTR _pDib$187576[ebp], eax

; 95   : 			pDib->SetCDibRect(rc);

  0044b	83 ec 10	 sub	 esp, 16			; 00000010H
  0044e	8b c4		 mov	 eax, esp
  00450	8b 4d cc	 mov	 ecx, DWORD PTR _rc$[ebp]
  00453	89 08		 mov	 DWORD PTR [eax], ecx
  00455	8b 55 d0	 mov	 edx, DWORD PTR _rc$[ebp+4]
  00458	89 50 04	 mov	 DWORD PTR [eax+4], edx
  0045b	8b 4d d4	 mov	 ecx, DWORD PTR _rc$[ebp+8]
  0045e	89 48 08	 mov	 DWORD PTR [eax+8], ecx
  00461	8b 55 d8	 mov	 edx, DWORD PTR _rc$[ebp+12]
  00464	89 50 0c	 mov	 DWORD PTR [eax+12], edx
  00467	8b 8d 10 ff ff
	ff		 mov	 ecx, DWORD PTR _pDib$187576[ebp]
  0046d	e8 00 00 00 00	 call	 ?SetCDibRect@CDibBitmap@@QAEXVCRect@@@Z ; CDibBitmap::SetCDibRect

; 96   : 			pDib->Draw(pDC, true);

  00472	6a 01		 push	 1
  00474	6a 00		 push	 0
  00476	6a 01		 push	 1
  00478	8b 45 84	 mov	 eax, DWORD PTR _pDC$[ebp]
  0047b	50		 push	 eax
  0047c	8b 8d 10 ff ff
	ff		 mov	 ecx, DWORD PTR _pDib$187576[ebp]
  00482	e8 00 00 00 00	 call	 ?Draw@CDibBitmap@@QAEHPAVCDC@@HKH@Z ; CDibBitmap::Draw
$L187574:

; 97   : 		}
; 98   : 		//字前的图/////////////////////////////////////////////////////////////
; 99   : 		IMAGEINFO imageInfo;
; 100  : 		m_ImageList.GetImageInfo( nImage, &imageInfo );

  00487	8d 8d ec fe ff
	ff		 lea	 ecx, DWORD PTR _imageInfo$187578[ebp]
  0048d	51		 push	 ecx
  0048e	8b 95 74 ff ff
	ff		 mov	 edx, DWORD PTR _nImage$[ebp]
  00494	52		 push	 edx
  00495	8b 4d f0	 mov	 ecx, DWORD PTR _this$[ebp]
  00498	83 c1 54	 add	 ecx, 84			; 00000054H
  0049b	e8 00 00 00 00	 call	 ?GetImageInfo@CImageList@@QBEHHPAU_IMAGEINFO@@@Z ; CImageList::GetImageInfo

; 101  : 					
; 102  : 		SIZE size;
; 103  : 		size.cx = size.cy = imageInfo.rcImage.right-imageInfo.rcImage.left;

  004a0	8b 85 04 ff ff
	ff		 mov	 eax, DWORD PTR _imageInfo$187578[ebp+24]
  004a6	2b 85 fc fe ff
	ff		 sub	 eax, DWORD PTR _imageInfo$187578[ebp+16]
  004ac	89 85 e0 fe ff
	ff		 mov	 DWORD PTR _size$187579[ebp+4], eax
  004b2	8b 8d e0 fe ff
	ff		 mov	 ecx, DWORD PTR _size$187579[ebp+4]
  004b8	89 8d dc fe ff
	ff		 mov	 DWORD PTR _size$187579[ebp], ecx

; 104  : 		POINT pDes, pSrc;
; 105  : 		pDes.x = rctext.left - GetItemHeight() + ( GetItemHeight()-size.cx )/2;

  004be	8b 4d f0	 mov	 ecx, DWORD PTR _this$[ebp]
  004c1	e8 00 00 00 00	 call	 ?GetItemHeight@CTreeCtrl@@QBEFXZ ; CTreeCtrl::GetItemHeight
  004c6	0f bf d0	 movsx	 edx, ax
  004c9	8b 75 b4	 mov	 esi, DWORD PTR _rctext$[ebp]
  004cc	2b f2		 sub	 esi, edx
  004ce	8b 4d f0	 mov	 ecx, DWORD PTR _this$[ebp]
  004d1	e8 00 00 00 00	 call	 ?GetItemHeight@CTreeCtrl@@QBEFXZ ; CTreeCtrl::GetItemHeight
  004d6	0f bf c0	 movsx	 eax, ax
  004d9	2b 85 dc fe ff
	ff		 sub	 eax, DWORD PTR _size$187579[ebp]
  004df	99		 cdq
  004e0	2b c2		 sub	 eax, edx
  004e2	d1 f8		 sar	 eax, 1
  004e4	03 f0		 add	 esi, eax
  004e6	89 b5 cc fe ff
	ff		 mov	 DWORD PTR _pDes$187580[ebp], esi

; 106  : 		pDes.y = rctext.top + ( GetItemHeight()-size.cy )/2;

  004ec	8b 4d f0	 mov	 ecx, DWORD PTR _this$[ebp]
  004ef	e8 00 00 00 00	 call	 ?GetItemHeight@CTreeCtrl@@QBEFXZ ; CTreeCtrl::GetItemHeight
  004f4	0f bf c0	 movsx	 eax, ax
  004f7	2b 85 e0 fe ff
	ff		 sub	 eax, DWORD PTR _size$187579[ebp+4]
  004fd	99		 cdq
  004fe	2b c2		 sub	 eax, edx
  00500	d1 f8		 sar	 eax, 1
  00502	03 45 b8	 add	 eax, DWORD PTR _rctext$[ebp+4]
  00505	89 85 d0 fe ff
	ff		 mov	 DWORD PTR _pDes$187580[ebp+4], eax

; 107  : 		pSrc.x = pSrc.y = 0;

  0050b	c7 85 c0 fe ff
	ff 00 00 00 00	 mov	 DWORD PTR _pSrc$187581[ebp+4], 0
  00515	8b 85 c0 fe ff
	ff		 mov	 eax, DWORD PTR _pSrc$187581[ebp+4]
  0051b	89 85 bc fe ff
	ff		 mov	 DWORD PTR _pSrc$187581[ebp], eax

; 108  : 		m_ImageList.DrawIndirect(pDC, nImage, pDes, size, pSrc );

  00521	68 00 00 00 ff	 push	 -16777216		; ff000000H
  00526	6a 00		 push	 0
  00528	6a 00		 push	 0
  0052a	68 00 00 00 ff	 push	 -16777216		; ff000000H
  0052f	68 00 00 00 ff	 push	 -16777216		; ff000000H
  00534	68 20 00 cc 00	 push	 13369376		; 00cc0020H
  00539	6a 00		 push	 0
  0053b	8b 8d c0 fe ff
	ff		 mov	 ecx, DWORD PTR _pSrc$187581[ebp+4]
  00541	51		 push	 ecx
  00542	8b 95 bc fe ff
	ff		 mov	 edx, DWORD PTR _pSrc$187581[ebp]
  00548	52		 push	 edx
  00549	8b 85 e0 fe ff
	ff		 mov	 eax, DWORD PTR _size$187579[ebp+4]
  0054f	50		 push	 eax
  00550	8b 8d dc fe ff
	ff		 mov	 ecx, DWORD PTR _size$187579[ebp]
  00556	51		 push	 ecx
  00557	8b 95 d0 fe ff
	ff		 mov	 edx, DWORD PTR _pDes$187580[ebp+4]
  0055d	52		 push	 edx
  0055e	8b 85 cc fe ff
	ff		 mov	 eax, DWORD PTR _pDes$187580[ebp]
  00564	50		 push	 eax
  00565	8b 8d 74 ff ff
	ff		 mov	 ecx, DWORD PTR _nImage$[ebp]
  0056b	51		 push	 ecx
  0056c	8b 55 84	 mov	 edx, DWORD PTR _pDC$[ebp]
  0056f	52		 push	 edx
  00570	8b 4d f0	 mov	 ecx, DWORD PTR _this$[ebp]
  00573	83 c1 54	 add	 ecx, 84			; 00000054H
  00576	e8 00 00 00 00	 call	 ?DrawIndirect@CImageList@@QAEHPAVCDC@@HUtagPOINT@@UtagSIZE@@1IKKKKKK@Z ; CImageList::DrawIndirect

; 109  : 		//画字后面的btn/////////////////////////////
; 110  : 		m_BtnRect = rc;

  0057b	8b 45 f0	 mov	 eax, DWORD PTR _this$[ebp]
  0057e	05 a8 00 00 00	 add	 eax, 168		; 000000a8H
  00583	8b 4d cc	 mov	 ecx, DWORD PTR _rc$[ebp]
  00586	89 08		 mov	 DWORD PTR [eax], ecx
  00588	8b 55 d0	 mov	 edx, DWORD PTR _rc$[ebp+4]
  0058b	89 50 04	 mov	 DWORD PTR [eax+4], edx
  0058e	8b 4d d4	 mov	 ecx, DWORD PTR _rc$[ebp+8]
  00591	89 48 08	 mov	 DWORD PTR [eax+8], ecx
  00594	8b 55 d8	 mov	 edx, DWORD PTR _rc$[ebp+12]
  00597	89 50 0c	 mov	 DWORD PTR [eax+12], edx

; 111  : 		if( bSelect && !m_bHideBtn && pLVCD->iLevel == 1 )

  0059a	0f b6 45 8b	 movzx	 eax, BYTE PTR _bSelect$[ebp]
  0059e	85 c0		 test	 eax, eax
  005a0	74 2e		 je	 SHORT $L187582
  005a2	8b 4d f0	 mov	 ecx, DWORD PTR _this$[ebp]
  005a5	0f b6 91 ba 00
	00 00		 movzx	 edx, BYTE PTR [ecx+186]
  005ac	85 d2		 test	 edx, edx
  005ae	75 20		 jne	 SHORT $L187582
  005b0	8b 45 ec	 mov	 eax, DWORD PTR _pLVCD$[ebp]
  005b3	83 78 38 01	 cmp	 DWORD PTR [eax+56], 1
  005b7	75 17		 jne	 SHORT $L187582

; 112  : 		{
; 113  : 			m_BtnRect.left = m_BtnRect.right - 30;			

  005b9	8b 4d f0	 mov	 ecx, DWORD PTR _this$[ebp]
  005bc	8b 91 b0 00 00
	00		 mov	 edx, DWORD PTR [ecx+176]
  005c2	83 ea 1e	 sub	 edx, 30			; 0000001eH
  005c5	8b 45 f0	 mov	 eax, DWORD PTR _this$[ebp]
  005c8	89 90 a8 00 00
	00		 mov	 DWORD PTR [eax+168], edx

; 114  : 		}else

  005ce	eb 12		 jmp	 SHORT $L187583
$L187582:

; 115  : 		{
; 116  : 			m_BtnRect.left = m_BtnRect.right;

  005d0	8b 4d f0	 mov	 ecx, DWORD PTR _this$[ebp]
  005d3	8b 55 f0	 mov	 edx, DWORD PTR _this$[ebp]
  005d6	8b 82 b0 00 00
	00		 mov	 eax, DWORD PTR [edx+176]
  005dc	89 81 a8 00 00
	00		 mov	 DWORD PTR [ecx+168], eax
$L187583:

; 117  : 		}
; 118  : 		newRc = rctext;

  005e2	8b 4d b4	 mov	 ecx, DWORD PTR _rctext$[ebp]
  005e5	89 4d 90	 mov	 DWORD PTR _newRc$[ebp], ecx
  005e8	8b 55 b8	 mov	 edx, DWORD PTR _rctext$[ebp+4]
  005eb	89 55 94	 mov	 DWORD PTR _newRc$[ebp+4], edx
  005ee	8b 45 bc	 mov	 eax, DWORD PTR _rctext$[ebp+8]
  005f1	89 45 98	 mov	 DWORD PTR _newRc$[ebp+8], eax
  005f4	8b 4d c0	 mov	 ecx, DWORD PTR _rctext$[ebp+12]
  005f7	89 4d 9c	 mov	 DWORD PTR _newRc$[ebp+12], ecx

; 119  : 		if(pLVCD->iLevel == 1)

  005fa	8b 55 ec	 mov	 edx, DWORD PTR _pLVCD$[ebp]
  005fd	83 7a 38 01	 cmp	 DWORD PTR [edx+56], 1
  00601	75 5b		 jne	 SHORT $L187584

; 120  : 		{
; 121  : 			newRc.right = m_BtnRect.left;

  00603	8b 45 f0	 mov	 eax, DWORD PTR _this$[ebp]
  00606	8b 88 a8 00 00
	00		 mov	 ecx, DWORD PTR [eax+168]
  0060c	89 4d 98	 mov	 DWORD PTR _newRc$[ebp+8], ecx

; 122  : 			if( m_bMouseOverBtn )

  0060f	8b 55 f0	 mov	 edx, DWORD PTR _this$[ebp]
  00612	0f b6 82 b8 00
	00 00		 movzx	 eax, BYTE PTR [edx+184]
  00619	85 c0		 test	 eax, eax
  0061b	74 22		 je	 SHORT $L187585

; 123  : 			{
; 124  : 				DrawImage( m_pBitmapOver, m_BtnRect, *pDC );

  0061d	8b 4d 84	 mov	 ecx, DWORD PTR _pDC$[ebp]
  00620	51		 push	 ecx
  00621	8b 55 f0	 mov	 edx, DWORD PTR _this$[ebp]
  00624	81 c2 a8 00 00
	00		 add	 edx, 168		; 000000a8H
  0062a	52		 push	 edx
  0062b	8b 45 f0	 mov	 eax, DWORD PTR _this$[ebp]
  0062e	8b 88 9c 00 00
	00		 mov	 ecx, DWORD PTR [eax+156]
  00634	51		 push	 ecx
  00635	8b 4d f0	 mov	 ecx, DWORD PTR _this$[ebp]
  00638	e8 00 00 00 00	 call	 ?DrawImage@CMyBtnTreeCtrl@@QAEXPAVCDibBitmap@@AAVCRect@@AAVCDC@@@Z ; CMyBtnTreeCtrl::DrawImage

; 125  : 			}else

  0063d	eb 1f		 jmp	 SHORT $L187584
$L187585:

; 126  : 			{
; 127  : 				DrawImage( m_pBitmapNormal, m_BtnRect, *pDC );

  0063f	8b 55 84	 mov	 edx, DWORD PTR _pDC$[ebp]
  00642	52		 push	 edx
  00643	8b 45 f0	 mov	 eax, DWORD PTR _this$[ebp]
  00646	05 a8 00 00 00	 add	 eax, 168		; 000000a8H
  0064b	50		 push	 eax
  0064c	8b 4d f0	 mov	 ecx, DWORD PTR _this$[ebp]
  0064f	8b 91 a0 00 00
	00		 mov	 edx, DWORD PTR [ecx+160]
  00655	52		 push	 edx
  00656	8b 4d f0	 mov	 ecx, DWORD PTR _this$[ebp]
  00659	e8 00 00 00 00	 call	 ?DrawImage@CMyBtnTreeCtrl@@QAEXPAVCDibBitmap@@AAVCRect@@AAVCDC@@@Z ; CMyBtnTreeCtrl::DrawImage
$L187584:

; 128  : 			}
; 129  : 		}
; 130  : 		//写字/////////////////////////////////////////////////////////////
; 131  : 		pDC->SetBkMode( TRANSPARENT );

  0065e	6a 01		 push	 1
  00660	8b 4d 84	 mov	 ecx, DWORD PTR _pDC$[ebp]
  00663	e8 00 00 00 00	 call	 ?SetBkMode@CDC@@QAEHH@Z	; CDC::SetBkMode

; 132  : 		if( bSelect )//选中时的写字颜色

  00668	0f b6 45 8b	 movzx	 eax, BYTE PTR _bSelect$[ebp]
  0066c	85 c0		 test	 eax, eax
  0066e	74 1d		 je	 SHORT $L187587

; 133  : 		{
; 134  : 			pDC->SetTextColor(m_colorSelectItemText);

  00670	8b f4		 mov	 esi, esp
  00672	8b 4d f0	 mov	 ecx, DWORD PTR _this$[ebp]
  00675	8b 51 7c	 mov	 edx, DWORD PTR [ecx+124]
  00678	52		 push	 edx
  00679	8b 45 84	 mov	 eax, DWORD PTR _pDC$[ebp]
  0067c	8b 10		 mov	 edx, DWORD PTR [eax]
  0067e	8b 4d 84	 mov	 ecx, DWORD PTR _pDC$[ebp]
  00681	ff 52 38	 call	 DWORD PTR [edx+56]
  00684	3b f4		 cmp	 esi, esp
  00686	e8 00 00 00 00	 call	 __RTC_CheckEsp

; 135  : 		}
; 136  : 		else

  0068b	eb 1e		 jmp	 SHORT $L187588
$L187587:

; 137  : 		{
; 138  : 			pDC->SetTextColor(m_colorNormalItemText);

  0068d	8b f4		 mov	 esi, esp
  0068f	8b 45 f0	 mov	 eax, DWORD PTR _this$[ebp]
  00692	8b 88 80 00 00
	00		 mov	 ecx, DWORD PTR [eax+128]
  00698	51		 push	 ecx
  00699	8b 55 84	 mov	 edx, DWORD PTR _pDC$[ebp]
  0069c	8b 02		 mov	 eax, DWORD PTR [edx]
  0069e	8b 4d 84	 mov	 ecx, DWORD PTR _pDC$[ebp]
  006a1	ff 50 38	 call	 DWORD PTR [eax+56]
  006a4	3b f4		 cmp	 esi, esp
  006a6	e8 00 00 00 00	 call	 __RTC_CheckEsp
$L187588:

; 139  : 		}
; 140  : 
; 141  : 		rcDrawText = newRc;

  006ab	8b 4d 90	 mov	 ecx, DWORD PTR _newRc$[ebp]
  006ae	89 8d 4c ff ff
	ff		 mov	 DWORD PTR _rcDrawText$[ebp], ecx
  006b4	8b 55 94	 mov	 edx, DWORD PTR _newRc$[ebp+4]
  006b7	89 95 50 ff ff
	ff		 mov	 DWORD PTR _rcDrawText$[ebp+4], edx
  006bd	8b 45 98	 mov	 eax, DWORD PTR _newRc$[ebp+8]
  006c0	89 85 54 ff ff
	ff		 mov	 DWORD PTR _rcDrawText$[ebp+8], eax
  006c6	8b 4d 9c	 mov	 ecx, DWORD PTR _newRc$[ebp+12]
  006c9	89 8d 58 ff ff
	ff		 mov	 DWORD PTR _rcDrawText$[ebp+12], ecx

; 142  : 		pDC->DrawText(text,&rcDrawText,nFormat);

  006cf	8b 95 60 ff ff
	ff		 mov	 edx, DWORD PTR _nFormat$[ebp]
  006d5	52		 push	 edx
  006d6	8d 85 4c ff ff
	ff		 lea	 eax, DWORD PTR _rcDrawText$[ebp]
  006dc	50		 push	 eax
  006dd	8d 4d a8	 lea	 ecx, DWORD PTR _text$[ebp]
  006e0	51		 push	 ecx
  006e1	8b 4d 84	 mov	 ecx, DWORD PTR _pDC$[ebp]
  006e4	e8 00 00 00 00	 call	 ?DrawTextA@CDC@@QAEHABV?$CStringT@DV?$StrTraitMFC_DLL@DV?$ChTraitsCRT@D@ATL@@@@@ATL@@PAUtagRECT@@I@Z ; CDC::DrawTextA

; 143  : 		rcDrawTextReal = rcDrawText;

  006e9	8b 95 4c ff ff
	ff		 mov	 edx, DWORD PTR _rcDrawText$[ebp]
  006ef	89 95 34 ff ff
	ff		 mov	 DWORD PTR _rcDrawTextReal$[ebp], edx
  006f5	8b 85 50 ff ff
	ff		 mov	 eax, DWORD PTR _rcDrawText$[ebp+4]
  006fb	89 85 38 ff ff
	ff		 mov	 DWORD PTR _rcDrawTextReal$[ebp+4], eax
  00701	8b 8d 54 ff ff
	ff		 mov	 ecx, DWORD PTR _rcDrawText$[ebp+8]
  00707	89 8d 3c ff ff
	ff		 mov	 DWORD PTR _rcDrawTextReal$[ebp+8], ecx
  0070d	8b 95 58 ff ff
	ff		 mov	 edx, DWORD PTR _rcDrawText$[ebp+12]
  00713	89 95 40 ff ff
	ff		 mov	 DWORD PTR _rcDrawTextReal$[ebp+12], edx

; 144  : 		pDC->DrawText(text,&rcDrawTextReal,nFormat|DT_CALCRECT);

  00719	8b 85 60 ff ff
	ff		 mov	 eax, DWORD PTR _nFormat$[ebp]
  0071f	0d 00 04 00 00	 or	 eax, 1024		; 00000400H
  00724	50		 push	 eax
  00725	8d 8d 34 ff ff
	ff		 lea	 ecx, DWORD PTR _rcDrawTextReal$[ebp]
  0072b	51		 push	 ecx
  0072c	8d 55 a8	 lea	 edx, DWORD PTR _text$[ebp]
  0072f	52		 push	 edx
  00730	8b 4d 84	 mov	 ecx, DWORD PTR _pDC$[ebp]
  00733	e8 00 00 00 00	 call	 ?DrawTextA@CDC@@QAEHABV?$CStringT@DV?$StrTraitMFC_DLL@DV?$ChTraitsCRT@D@ATL@@@@@ATL@@PAUtagRECT@@I@Z ; CDC::DrawTextA

; 145  : 
; 146  : 		pDC->SetTextColor(colorOld);

  00738	8b f4		 mov	 esi, esp
  0073a	8b 45 80	 mov	 eax, DWORD PTR _colorOld$[ebp]
  0073d	50		 push	 eax
  0073e	8b 4d 84	 mov	 ecx, DWORD PTR _pDC$[ebp]
  00741	8b 11		 mov	 edx, DWORD PTR [ecx]
  00743	8b 4d 84	 mov	 ecx, DWORD PTR _pDC$[ebp]
  00746	ff 52 38	 call	 DWORD PTR [edx+56]
  00749	3b f4		 cmp	 esi, esp
  0074b	e8 00 00 00 00	 call	 __RTC_CheckEsp

; 147  : 		pDC->SelectObject(pOldFont);

  00750	8b f4		 mov	 esi, esp
  00752	8b 85 7c ff ff
	ff		 mov	 eax, DWORD PTR _pOldFont$[ebp]
  00758	50		 push	 eax
  00759	8b 4d 84	 mov	 ecx, DWORD PTR _pDC$[ebp]
  0075c	8b 11		 mov	 edx, DWORD PTR [ecx]
  0075e	8b 4d 84	 mov	 ecx, DWORD PTR _pDC$[ebp]
  00761	ff 52 30	 call	 DWORD PTR [edx+48]
  00764	3b f4		 cmp	 esi, esp
  00766	e8 00 00 00 00	 call	 __RTC_CheckEsp

; 148  : 		/////////////////////////////////////////////////////////////
; 149  : 		*pResult = CDRF_SKIPDEFAULT;

  0076b	8b 45 0c	 mov	 eax, DWORD PTR _pResult$[ebp]
  0076e	c7 00 04 00 00
	00		 mov	 DWORD PTR [eax], 4

; 150  : 		break;

  00774	e9 a7 00 00 00	 jmp	 $L187566
$L187589:

; 151  : 	case CDDS_PREPAINT :
; 152  : 		if ( rc == pLVCD->nmcd.rc /*|| bDrop*/ )

  00779	8b 4d ec	 mov	 ecx, DWORD PTR _pLVCD$[ebp]
  0077c	83 c1 14	 add	 ecx, 20			; 00000014H
  0077f	51		 push	 ecx
  00780	8d 4d cc	 lea	 ecx, DWORD PTR _rc$[ebp]
  00783	e8 00 00 00 00	 call	 ??8CRect@@QBEHABUtagRECT@@@Z ; CRect::operator==
  00788	85 c0		 test	 eax, eax
  0078a	74 71		 je	 SHORT $L187590

; 153  : 		{
; 154  : 			pLVCD->clrTextBk = m_colorSelectItemBK;//RGB(0x0,0x0,0xFF);

  0078c	8b 55 ec	 mov	 edx, DWORD PTR _pLVCD$[ebp]
  0078f	8b 45 f0	 mov	 eax, DWORD PTR _this$[ebp]
  00792	8b 48 78	 mov	 ecx, DWORD PTR [eax+120]
  00795	89 4a 34	 mov	 DWORD PTR [edx+52], ecx

; 155  : 			pLVCD->clrText   = m_colorSelectItemText;			

  00798	8b 55 ec	 mov	 edx, DWORD PTR _pLVCD$[ebp]
  0079b	8b 45 f0	 mov	 eax, DWORD PTR _this$[ebp]
  0079e	8b 48 7c	 mov	 ecx, DWORD PTR [eax+124]
  007a1	89 4a 30	 mov	 DWORD PTR [edx+48], ecx

; 156  : 			m_BtnRect = rc;

  007a4	8b 55 f0	 mov	 edx, DWORD PTR _this$[ebp]
  007a7	81 c2 a8 00 00
	00		 add	 edx, 168		; 000000a8H
  007ad	8b 45 cc	 mov	 eax, DWORD PTR _rc$[ebp]
  007b0	89 02		 mov	 DWORD PTR [edx], eax
  007b2	8b 4d d0	 mov	 ecx, DWORD PTR _rc$[ebp+4]
  007b5	89 4a 04	 mov	 DWORD PTR [edx+4], ecx
  007b8	8b 45 d4	 mov	 eax, DWORD PTR _rc$[ebp+8]
  007bb	89 42 08	 mov	 DWORD PTR [edx+8], eax
  007be	8b 4d d8	 mov	 ecx, DWORD PTR _rc$[ebp+12]
  007c1	89 4a 0c	 mov	 DWORD PTR [edx+12], ecx

; 157  : 			if(m_bHideBtn)

  007c4	8b 55 f0	 mov	 edx, DWORD PTR _this$[ebp]
  007c7	0f b6 82 ba 00
	00 00		 movzx	 eax, BYTE PTR [edx+186]
  007ce	85 c0		 test	 eax, eax
  007d0	74 14		 je	 SHORT $L187591

; 158  : 				m_BtnRect.left = m_BtnRect.right;// - 30;

  007d2	8b 4d f0	 mov	 ecx, DWORD PTR _this$[ebp]
  007d5	8b 55 f0	 mov	 edx, DWORD PTR _this$[ebp]
  007d8	8b 82 b0 00 00
	00		 mov	 eax, DWORD PTR [edx+176]
  007de	89 81 a8 00 00
	00		 mov	 DWORD PTR [ecx+168], eax

; 159  : 			else

  007e4	eb 15		 jmp	 SHORT $L187592
$L187591:

; 160  : 			m_BtnRect.left = m_BtnRect.right - 30;

  007e6	8b 4d f0	 mov	 ecx, DWORD PTR _this$[ebp]
  007e9	8b 91 b0 00 00
	00		 mov	 edx, DWORD PTR [ecx+176]
  007ef	83 ea 1e	 sub	 edx, 30			; 0000001eH
  007f2	8b 45 f0	 mov	 eax, DWORD PTR _this$[ebp]
  007f5	89 90 a8 00 00
	00		 mov	 DWORD PTR [eax+168], edx
$L187592:

; 161  : 		}
; 162  : 		else

  007fb	eb 0f		 jmp	 SHORT $L187593
$L187590:

; 163  : 		{
; 164  : 			pLVCD->clrText   = m_colorNormalItemText;

  007fd	8b 4d ec	 mov	 ecx, DWORD PTR _pLVCD$[ebp]
  00800	8b 55 f0	 mov	 edx, DWORD PTR _this$[ebp]
  00803	8b 82 80 00 00
	00		 mov	 eax, DWORD PTR [edx+128]
  00809	89 41 30	 mov	 DWORD PTR [ecx+48], eax
$L187593:

; 165  : 		}
; 166  : 
; 167  : 		*pResult = CDRF_NOTIFYITEMDRAW  ;

  0080c	8b 4d 0c	 mov	 ecx, DWORD PTR _pResult$[ebp]
  0080f	c7 01 20 00 00
	00		 mov	 DWORD PTR [ecx], 32	; 00000020H

; 168  : 		break ;

  00815	eb 09		 jmp	 SHORT $L187566
$L187594:

; 169  : 	default:
; 170  : 		*pResult = CDRF_DODEFAULT;

  00817	8b 55 0c	 mov	 edx, DWORD PTR _pResult$[ebp]
  0081a	c7 02 00 00 00
	00		 mov	 DWORD PTR [edx], 0
$L187566:

; 171  : 	}
; 172  : }

  00820	c7 45 fc ff ff
	ff ff		 mov	 DWORD PTR __$EHRec$[ebp+8], -1
  00827	8b f4		 mov	 esi, esp
  00829	8d 4d a8	 lea	 ecx, DWORD PTR _text$[ebp]
  0082c	ff 15 00 00 00
	00		 call	 DWORD PTR __imp_??1?$CStringT@DV?$StrTraitMFC_DLL@DV?$ChTraitsCRT@D@ATL@@@@@ATL@@QAE@XZ
  00832	3b f4		 cmp	 esi, esp
  00834	e8 00 00 00 00	 call	 __RTC_CheckEsp
  00839	52		 push	 edx
  0083a	8b cd		 mov	 ecx, ebp
  0083c	50		 push	 eax
  0083d	8d 15 00 00 00
	00		 lea	 edx, DWORD PTR $L188138
  00843	e8 00 00 00 00	 call	 @_RTC_CheckStackVars@8
  00848	58		 pop	 eax
  00849	5a		 pop	 edx
  0084a	8b 4d f4	 mov	 ecx, DWORD PTR __$EHRec$[ebp]
  0084d	64 89 0d 00 00
	00 00		 mov	 DWORD PTR fs:__except_list, ecx
  00854	5f		 pop	 edi
  00855	5e		 pop	 esi
  00856	81 c4 5c 01 00
	00		 add	 esp, 348		; 0000015cH
  0085c	3b ec		 cmp	 ebp, esp
  0085e	e8 00 00 00 00	 call	 __RTC_CheckEsp
  00863	8b e5		 mov	 esp, ebp
  00865	5d		 pop	 ebp
  00866	c2 08 00	 ret	 8
$L188138:
  00869	0d 00 00 00	 DD	 13			; 0000000dH
  0086d	00 00 00 00	 DD	 $L188137
$L188137:
  00871	cc ff ff ff	 DD	 -52			; ffffffccH
  00875	10 00 00 00	 DD	 16			; 00000010H
  00879	00 00 00 00	 DD	 $L188122
  0087d	b4 ff ff ff	 DD	 -76			; ffffffb4H
  00881	10 00 00 00	 DD	 16			; 00000010H
  00885	00 00 00 00	 DD	 $L188123
  00889	a8 ff ff ff	 DD	 -88			; ffffffa8H
  0088d	04 00 00 00	 DD	 4
  00891	00 00 00 00	 DD	 $L188124
  00895	90 ff ff ff	 DD	 -112			; ffffff90H
  00899	10 00 00 00	 DD	 16			; 00000010H
  0089d	00 00 00 00	 DD	 $L188125
  008a1	74 ff ff ff	 DD	 -140			; ffffff74H
  008a5	04 00 00 00	 DD	 4
  008a9	00 00 00 00	 DD	 $L188126
  008ad	68 ff ff ff	 DD	 -152			; ffffff68H
  008b1	04 00 00 00	 DD	 4
  008b5	00 00 00 00	 DD	 $L188127
  008b9	4c ff ff ff	 DD	 -180			; ffffff4cH
  008bd	10 00 00 00	 DD	 16			; 00000010H
  008c1	00 00 00 00	 DD	 $L188128
  008c5	34 ff ff ff	 DD	 -204			; ffffff34H
  008c9	10 00 00 00	 DD	 16			; 00000010H
  008cd	00 00 00 00	 DD	 $L188129
  008d1	18 ff ff ff	 DD	 -232			; ffffff18H
  008d5	10 00 00 00	 DD	 16			; 00000010H
  008d9	00 00 00 00	 DD	 $L188130
  008dd	ec fe ff ff	 DD	 -276			; fffffeecH
  008e1	20 00 00 00	 DD	 32			; 00000020H
  008e5	00 00 00 00	 DD	 $L188131
  008e9	dc fe ff ff	 DD	 -292			; fffffedcH
  008ed	08 00 00 00	 DD	 8
  008f1	00 00 00 00	 DD	 $L188132
  008f5	cc fe ff ff	 DD	 -308			; fffffeccH
  008f9	08 00 00 00	 DD	 8
  008fd	00 00 00 00	 DD	 $L188133
  00901	bc fe ff ff	 DD	 -324			; fffffebcH
  00905	08 00 00 00	 DD	 8
  00909	00 00 00 00	 DD	 $L188134
$L188134:
  0090d	70		 DB	 112			; 00000070H
  0090e	53		 DB	 83			; 00000053H
  0090f	72		 DB	 114			; 00000072H
  00910	63		 DB	 99			; 00000063H
  00911	00		 DB	 0
$L188133:
  00912	70		 DB	 112			; 00000070H
  00913	44		 DB	 68			; 00000044H
  00914	65		 DB	 101			; 00000065H
  00915	73		 DB	 115			; 00000073H
  00916	00		 DB	 0
$L188132:
  00917	73		 DB	 115			; 00000073H
  00918	69		 DB	 105			; 00000069H
  00919	7a		 DB	 122			; 0000007aH
  0091a	65		 DB	 101			; 00000065H
  0091b	00		 DB	 0
$L188131:
  0091c	69		 DB	 105			; 00000069H
  0091d	6d		 DB	 109			; 0000006dH
  0091e	61		 DB	 97			; 00000061H
  0091f	67		 DB	 103			; 00000067H
  00920	65		 DB	 101			; 00000065H
  00921	49		 DB	 73			; 00000049H
  00922	6e		 DB	 110			; 0000006eH
  00923	66		 DB	 102			; 00000066H
  00924	6f		 DB	 111			; 0000006fH
  00925	00		 DB	 0
$L188130:
  00926	72		 DB	 114			; 00000072H
  00927	63		 DB	 99			; 00000063H
  00928	54		 DB	 84			; 00000054H
  00929	6f		 DB	 111			; 0000006fH
  0092a	70		 DB	 112			; 00000070H
  0092b	00		 DB	 0
$L188129:
  0092c	72		 DB	 114			; 00000072H
  0092d	63		 DB	 99			; 00000063H
  0092e	44		 DB	 68			; 00000044H
  0092f	72		 DB	 114			; 00000072H
  00930	61		 DB	 97			; 00000061H
  00931	77		 DB	 119			; 00000077H
  00932	54		 DB	 84			; 00000054H
  00933	65		 DB	 101			; 00000065H
  00934	78		 DB	 120			; 00000078H
  00935	74		 DB	 116			; 00000074H
  00936	52		 DB	 82			; 00000052H
  00937	65		 DB	 101			; 00000065H
  00938	61		 DB	 97			; 00000061H
  00939	6c		 DB	 108			; 0000006cH
  0093a	00		 DB	 0
$L188128:
  0093b	72		 DB	 114			; 00000072H
  0093c	63		 DB	 99			; 00000063H
  0093d	44		 DB	 68			; 00000044H
  0093e	72		 DB	 114			; 00000072H
  0093f	61		 DB	 97			; 00000061H
  00940	77		 DB	 119			; 00000077H
  00941	54		 DB	 84			; 00000054H
  00942	65		 DB	 101			; 00000065H
  00943	78		 DB	 120			; 00000078H
  00944	74		 DB	 116			; 00000074H
  00945	00		 DB	 0
$L188127:
  00946	6e		 DB	 110			; 0000006eH
  00947	53		 DB	 83			; 00000053H
  00948	65		 DB	 101			; 00000065H
  00949	6c		 DB	 108			; 0000006cH
  0094a	65		 DB	 101			; 00000065H
  0094b	63		 DB	 99			; 00000063H
  0094c	74		 DB	 116			; 00000074H
  0094d	65		 DB	 101			; 00000065H
  0094e	64		 DB	 100			; 00000064H
  0094f	49		 DB	 73			; 00000049H
  00950	6d		 DB	 109			; 0000006dH
  00951	61		 DB	 97			; 00000061H
  00952	67		 DB	 103			; 00000067H
  00953	65		 DB	 101			; 00000065H
  00954	00		 DB	 0
$L188126:
  00955	6e		 DB	 110			; 0000006eH
  00956	49		 DB	 73			; 00000049H
  00957	6d		 DB	 109			; 0000006dH
  00958	61		 DB	 97			; 00000061H
  00959	67		 DB	 103			; 00000067H
  0095a	65		 DB	 101			; 00000065H
  0095b	00		 DB	 0
$L188125:
  0095c	6e		 DB	 110			; 0000006eH
  0095d	65		 DB	 101			; 00000065H
  0095e	77		 DB	 119			; 00000077H
  0095f	52		 DB	 82			; 00000052H
  00960	63		 DB	 99			; 00000063H
  00961	00		 DB	 0
$L188124:
  00962	74		 DB	 116			; 00000074H
  00963	65		 DB	 101			; 00000065H
  00964	78		 DB	 120			; 00000078H
  00965	74		 DB	 116			; 00000074H
  00966	00		 DB	 0
$L188123:
  00967	72		 DB	 114			; 00000072H
  00968	63		 DB	 99			; 00000063H
  00969	74		 DB	 116			; 00000074H
  0096a	65		 DB	 101			; 00000065H
  0096b	78		 DB	 120			; 00000078H
  0096c	74		 DB	 116			; 00000074H
  0096d	00		 DB	 0
$L188122:
  0096e	72		 DB	 114			; 00000072H
  0096f	63		 DB	 99			; 00000063H
  00970	00		 DB	 0
_TEXT	ENDS
text$x	SEGMENT
$L188117:
  00000	8b f4		 mov	 esi, esp
  00002	8d 4d a8	 lea	 ecx, DWORD PTR _text$[ebp]
  00005	ff 15 00 00 00
	00		 call	 DWORD PTR __imp_??1?$CStringT@DV?$StrTraitMFC_DLL@DV?$ChTraitsCRT@D@ATL@@@@@ATL@@QAE@XZ
  0000b	3b f4		 cmp	 esi, esp
  0000d	e9 00 00 00 00	 jmp	 __RTC_CheckEsp
__ehhandler$?OnCustomdraw@CMyBtnTreeCtrl@@QAEXPAUtagNMHDR@@PAJ@Z:
  00012	b8 00 00 00 00	 mov	 eax, OFFSET FLAT:$T188121
  00017	e9 00 00 00 00	 jmp	 ___CxxFrameHandler
text$x	ENDS
?OnCustomdraw@CMyBtnTreeCtrl@@QAEXPAUtagNMHDR@@PAJ@Z ENDP ; CMyBtnTreeCtrl::OnCustomdraw
EXTRN	??0CRect@@QAE@HHHH@Z:NEAR			; CRect::CRect
EXTRN	?Width@CRect@@QBEHXZ:NEAR			; CRect::Width
EXTRN	?CenterPoint@CRect@@QBE?AVCPoint@@XZ:NEAR	; CRect::CenterPoint
EXTRN	?GetWidth@CDibBitmap@@QAEHXZ:NEAR		; CDibBitmap::GetWidth
; Function compile flags: /Odt /RTCsu
_TEXT	SEGMENT
$T188143 = -36						; size = 16
_pt$ = -16						; size = 8
_this$ = -4						; size = 4
_pDibBitmap$ = 8					; size = 4
_r$ = 12						; size = 4
_memDC$ = 16						; size = 4
?DrawImage@CMyBtnTreeCtrl@@QAEXPAVCDibBitmap@@AAVCRect@@AAVCDC@@@Z PROC NEAR ; CMyBtnTreeCtrl::DrawImage
; _this$ = ecx

; 174  : {		

  00980	55		 push	 ebp
  00981	8b ec		 mov	 ebp, esp
  00983	83 ec 24	 sub	 esp, 36			; 00000024H
  00986	b8 cc cc cc cc	 mov	 eax, -858993460		; ccccccccH
  0098b	89 45 dc	 mov	 DWORD PTR [ebp-36], eax
  0098e	89 45 e0	 mov	 DWORD PTR [ebp-32], eax
  00991	89 45 e4	 mov	 DWORD PTR [ebp-28], eax
  00994	89 45 e8	 mov	 DWORD PTR [ebp-24], eax
  00997	89 45 ec	 mov	 DWORD PTR [ebp-20], eax
  0099a	89 45 f0	 mov	 DWORD PTR [ebp-16], eax
  0099d	89 45 f4	 mov	 DWORD PTR [ebp-12], eax
  009a0	89 45 f8	 mov	 DWORD PTR [ebp-8], eax
  009a3	89 45 fc	 mov	 DWORD PTR [ebp-4], eax
  009a6	89 4d fc	 mov	 DWORD PTR _this$[ebp], ecx

; 175  : 	if(r.Width() == 0)

  009a9	8b 4d 0c	 mov	 ecx, DWORD PTR _r$[ebp]
  009ac	e8 00 00 00 00	 call	 ?Width@CRect@@QBEHXZ	; CRect::Width
  009b1	85 c0		 test	 eax, eax
  009b3	75 05		 jne	 SHORT $L187601

; 176  : 		return ;

  009b5	e9 93 00 00 00	 jmp	 $L187600
$L187601:

; 177  : 	CPoint pt = r.CenterPoint();

  009ba	8d 45 f0	 lea	 eax, DWORD PTR _pt$[ebp]
  009bd	50		 push	 eax
  009be	8b 4d 0c	 mov	 ecx, DWORD PTR _r$[ebp]
  009c1	e8 00 00 00 00	 call	 ?CenterPoint@CRect@@QBE?AVCPoint@@XZ ; CRect::CenterPoint

; 178  : 	pt.x = pt.x - pDibBitmap->GetWidth() /2;

  009c6	8b 4d 08	 mov	 ecx, DWORD PTR _pDibBitmap$[ebp]
  009c9	e8 00 00 00 00	 call	 ?GetWidth@CDibBitmap@@QAEHXZ ; CDibBitmap::GetWidth
  009ce	99		 cdq
  009cf	2b c2		 sub	 eax, edx
  009d1	d1 f8		 sar	 eax, 1
  009d3	8b 4d f0	 mov	 ecx, DWORD PTR _pt$[ebp]
  009d6	2b c8		 sub	 ecx, eax
  009d8	89 4d f0	 mov	 DWORD PTR _pt$[ebp], ecx

; 179  : 	pt.y = pt.y - pDibBitmap->GetHeight() /2;

  009db	8b 4d 08	 mov	 ecx, DWORD PTR _pDibBitmap$[ebp]
  009de	e8 00 00 00 00	 call	 ?GetHeight@CDibBitmap@@QAEHXZ ; CDibBitmap::GetHeight
  009e3	99		 cdq
  009e4	2b c2		 sub	 eax, edx
  009e6	d1 f8		 sar	 eax, 1
  009e8	8b 55 f4	 mov	 edx, DWORD PTR _pt$[ebp+4]
  009eb	2b d0		 sub	 edx, eax
  009ed	89 55 f4	 mov	 DWORD PTR _pt$[ebp+4], edx

; 180  : 	pDibBitmap->SetCDibRect(CRect(pt.x, pt.y, pt.x + pDibBitmap->GetWidth() , pt.y + pDibBitmap->GetHeight()));

  009f0	8b 4d 08	 mov	 ecx, DWORD PTR _pDibBitmap$[ebp]
  009f3	e8 00 00 00 00	 call	 ?GetHeight@CDibBitmap@@QAEHXZ ; CDibBitmap::GetHeight
  009f8	03 45 f4	 add	 eax, DWORD PTR _pt$[ebp+4]
  009fb	50		 push	 eax
  009fc	8b 4d 08	 mov	 ecx, DWORD PTR _pDibBitmap$[ebp]
  009ff	e8 00 00 00 00	 call	 ?GetWidth@CDibBitmap@@QAEHXZ ; CDibBitmap::GetWidth
  00a04	03 45 f0	 add	 eax, DWORD PTR _pt$[ebp]
  00a07	50		 push	 eax
  00a08	8b 45 f4	 mov	 eax, DWORD PTR _pt$[ebp+4]
  00a0b	50		 push	 eax
  00a0c	8b 4d f0	 mov	 ecx, DWORD PTR _pt$[ebp]
  00a0f	51		 push	 ecx
  00a10	8d 4d dc	 lea	 ecx, DWORD PTR $T188143[ebp]
  00a13	e8 00 00 00 00	 call	 ??0CRect@@QAE@HHHH@Z	; CRect::CRect
  00a18	83 ec 10	 sub	 esp, 16			; 00000010H
  00a1b	8b d4		 mov	 edx, esp
  00a1d	8b 08		 mov	 ecx, DWORD PTR [eax]
  00a1f	89 0a		 mov	 DWORD PTR [edx], ecx
  00a21	8b 48 04	 mov	 ecx, DWORD PTR [eax+4]
  00a24	89 4a 04	 mov	 DWORD PTR [edx+4], ecx
  00a27	8b 48 08	 mov	 ecx, DWORD PTR [eax+8]
  00a2a	89 4a 08	 mov	 DWORD PTR [edx+8], ecx
  00a2d	8b 40 0c	 mov	 eax, DWORD PTR [eax+12]
  00a30	89 42 0c	 mov	 DWORD PTR [edx+12], eax
  00a33	8b 4d 08	 mov	 ecx, DWORD PTR _pDibBitmap$[ebp]
  00a36	e8 00 00 00 00	 call	 ?SetCDibRect@CDibBitmap@@QAEXVCRect@@@Z ; CDibBitmap::SetCDibRect

; 181  : 	pDibBitmap->Draw(&memDC, true);	

  00a3b	6a 01		 push	 1
  00a3d	6a 00		 push	 0
  00a3f	6a 01		 push	 1
  00a41	8b 4d 10	 mov	 ecx, DWORD PTR _memDC$[ebp]
  00a44	51		 push	 ecx
  00a45	8b 4d 08	 mov	 ecx, DWORD PTR _pDibBitmap$[ebp]
  00a48	e8 00 00 00 00	 call	 ?Draw@CDibBitmap@@QAEHPAVCDC@@HKH@Z ; CDibBitmap::Draw
$L187600:

; 182  : }

  00a4d	52		 push	 edx
  00a4e	8b cd		 mov	 ecx, ebp
  00a50	50		 push	 eax
  00a51	8d 15 00 00 00
	00		 lea	 edx, DWORD PTR $L188146
  00a57	e8 00 00 00 00	 call	 @_RTC_CheckStackVars@8
  00a5c	58		 pop	 eax
  00a5d	5a		 pop	 edx
  00a5e	83 c4 24	 add	 esp, 36			; 00000024H
  00a61	3b ec		 cmp	 ebp, esp
  00a63	e8 00 00 00 00	 call	 __RTC_CheckEsp
  00a68	8b e5		 mov	 esp, ebp
  00a6a	5d		 pop	 ebp
  00a6b	c2 0c 00	 ret	 12			; 0000000cH
$L188146:
  00a6e	01 00 00 00	 DD	 1
  00a72	00 00 00 00	 DD	 $L188145
$L188145:
  00a76	f0 ff ff ff	 DD	 -16			; fffffff0H
  00a7a	08 00 00 00	 DD	 8
  00a7e	00 00 00 00	 DD	 $L188144
$L188144:
  00a82	70		 DB	 112			; 00000070H
  00a83	74		 DB	 116			; 00000074H
  00a84	00		 DB	 0
?DrawImage@CMyBtnTreeCtrl@@QAEXPAVCDibBitmap@@AAVCRect@@AAVCDC@@@Z ENDP ; CMyBtnTreeCtrl::DrawImage
_TEXT	ENDS
PUBLIC	?SetButtonBitmap@CMyBtnTreeCtrl@@QAEXPAVCDibBitmap@@00@Z ; CMyBtnTreeCtrl::SetButtonBitmap
; Function compile flags: /Odt /RTCsu
_TEXT	SEGMENT
_this$ = -4						; size = 4
_pBitNormal$ = 8					; size = 4
_pBitOver$ = 12						; size = 4
_pBitDown$ = 16						; size = 4
?SetButtonBitmap@CMyBtnTreeCtrl@@QAEXPAVCDibBitmap@@00@Z PROC NEAR ; CMyBtnTreeCtrl::SetButtonBitmap
; _this$ = ecx

; 185  : {

  00a90	55		 push	 ebp
  00a91	8b ec		 mov	 ebp, esp
  00a93	51		 push	 ecx
  00a94	c7 45 fc cc cc
	cc cc		 mov	 DWORD PTR [ebp-4], -858993460 ; ccccccccH
  00a9b	89 4d fc	 mov	 DWORD PTR _this$[ebp], ecx

; 186  : 	m_pBitmapNormal = pBitNormal;

  00a9e	8b 45 fc	 mov	 eax, DWORD PTR _this$[ebp]
  00aa1	8b 4d 08	 mov	 ecx, DWORD PTR _pBitNormal$[ebp]
  00aa4	89 88 a0 00 00
	00		 mov	 DWORD PTR [eax+160], ecx

; 187  : 	m_pBitmapDown	= pBitDown;

  00aaa	8b 55 fc	 mov	 edx, DWORD PTR _this$[ebp]
  00aad	8b 45 10	 mov	 eax, DWORD PTR _pBitDown$[ebp]
  00ab0	89 82 a4 00 00
	00		 mov	 DWORD PTR [edx+164], eax

; 188  : 	m_pBitmapOver	= pBitOver;

  00ab6	8b 4d fc	 mov	 ecx, DWORD PTR _this$[ebp]
  00ab9	8b 55 0c	 mov	 edx, DWORD PTR _pBitOver$[ebp]
  00abc	89 91 9c 00 00
	00		 mov	 DWORD PTR [ecx+156], edx

; 189  : }

  00ac2	8b e5		 mov	 esp, ebp
  00ac4	5d		 pop	 ebp
  00ac5	c2 0c 00	 ret	 12			; 0000000cH
?SetButtonBitmap@CMyBtnTreeCtrl@@QAEXPAVCDibBitmap@@00@Z ENDP ; CMyBtnTreeCtrl::SetButtonBitmap
_TEXT	ENDS
EXTRN	??BCRect@@QAEPAUtagRECT@@XZ:NEAR		; CRect::operator tagRECT *
EXTRN	?InvalidateRect@CWnd@@QAEXPBUtagRECT@@H@Z:NEAR	; CWnd::InvalidateRect
; Function compile flags: /Odt /RTCsu
_TEXT	SEGMENT
_rcHover$187617 = -24					; size = 16
_this$ = -4						; size = 4
_wp$ = 8						; size = 4
_lp$ = 12						; size = 4
?OnMouseLeave@CMyBtnTreeCtrl@@QAEJIJ@Z PROC NEAR	; CMyBtnTreeCtrl::OnMouseLeave
; _this$ = ecx

; 192  : {

  00ad0	55		 push	 ebp
  00ad1	8b ec		 mov	 ebp, esp
  00ad3	83 ec 1c	 sub	 esp, 28			; 0000001cH
  00ad6	b8 cc cc cc cc	 mov	 eax, -858993460		; ccccccccH
  00adb	89 45 e4	 mov	 DWORD PTR [ebp-28], eax
  00ade	89 45 e8	 mov	 DWORD PTR [ebp-24], eax
  00ae1	89 45 ec	 mov	 DWORD PTR [ebp-20], eax
  00ae4	89 45 f0	 mov	 DWORD PTR [ebp-16], eax
  00ae7	89 45 f4	 mov	 DWORD PTR [ebp-12], eax
  00aea	89 45 f8	 mov	 DWORD PTR [ebp-8], eax
  00aed	89 45 fc	 mov	 DWORD PTR [ebp-4], eax
  00af0	89 4d fc	 mov	 DWORD PTR _this$[ebp], ecx

; 193  : 	m_bTrackMouse = FALSE;

  00af3	8b 45 fc	 mov	 eax, DWORD PTR _this$[ebp]
  00af6	c6 80 b9 00 00
	00 00		 mov	 BYTE PTR [eax+185], 0

; 194  : 
; 195  : 	if( m_iHoverItem != NULL )

  00afd	8b 4d fc	 mov	 ecx, DWORD PTR _this$[ebp]
  00b00	83 b9 98 00 00
	00 00		 cmp	 DWORD PTR [ecx+152], 0
  00b07	74 40		 je	 SHORT $L187616

; 196  : 	{
; 197  : 		CRect rcHover;

  00b09	8d 4d e8	 lea	 ecx, DWORD PTR _rcHover$187617[ebp]
  00b0c	e8 00 00 00 00	 call	 ??0CRect@@QAE@XZ	; CRect::CRect

; 198  : 		GetItemRect( m_iHoverItem, &rcHover, FALSE );

  00b11	6a 00		 push	 0
  00b13	8d 55 e8	 lea	 edx, DWORD PTR _rcHover$187617[ebp]
  00b16	52		 push	 edx
  00b17	8b 45 fc	 mov	 eax, DWORD PTR _this$[ebp]
  00b1a	8b 88 98 00 00
	00		 mov	 ecx, DWORD PTR [eax+152]
  00b20	51		 push	 ecx
  00b21	8b 4d fc	 mov	 ecx, DWORD PTR _this$[ebp]
  00b24	e8 00 00 00 00	 call	 ?GetItemRect@CTreeCtrl@@QBEHPAU_TREEITEM@@PAUtagRECT@@H@Z ; CTreeCtrl::GetItemRect

; 199  : 		InvalidateRect(rcHover);

  00b29	6a 01		 push	 1
  00b2b	8d 4d e8	 lea	 ecx, DWORD PTR _rcHover$187617[ebp]
  00b2e	e8 00 00 00 00	 call	 ??BCRect@@QAEPAUtagRECT@@XZ ; CRect::operator tagRECT *
  00b33	50		 push	 eax
  00b34	8b 4d fc	 mov	 ecx, DWORD PTR _this$[ebp]
  00b37	e8 00 00 00 00	 call	 ?InvalidateRect@CWnd@@QAEXPBUtagRECT@@H@Z ; CWnd::InvalidateRect

; 200  : 		m_iHoverItem = NULL;

  00b3c	8b 55 fc	 mov	 edx, DWORD PTR _this$[ebp]
  00b3f	c7 82 98 00 00
	00 00 00 00 00	 mov	 DWORD PTR [edx+152], 0
$L187616:

; 201  : 	}
; 202  : 
; 203  : 	if( m_bMouseOverBtn )

  00b49	8b 45 fc	 mov	 eax, DWORD PTR _this$[ebp]
  00b4c	0f b6 88 b8 00
	00 00		 movzx	 ecx, BYTE PTR [eax+184]
  00b53	85 c9		 test	 ecx, ecx
  00b55	74 23		 je	 SHORT $L187618

; 204  : 	{
; 205  : 		m_bMouseOverBtn = false;

  00b57	8b 55 fc	 mov	 edx, DWORD PTR _this$[ebp]
  00b5a	c6 82 b8 00 00
	00 00		 mov	 BYTE PTR [edx+184], 0

; 206  : 		InvalidateRect(m_BtnRect);

  00b61	6a 01		 push	 1
  00b63	8b 4d fc	 mov	 ecx, DWORD PTR _this$[ebp]
  00b66	81 c1 a8 00 00
	00		 add	 ecx, 168		; 000000a8H
  00b6c	e8 00 00 00 00	 call	 ??BCRect@@QAEPAUtagRECT@@XZ ; CRect::operator tagRECT *
  00b71	50		 push	 eax
  00b72	8b 4d fc	 mov	 ecx, DWORD PTR _this$[ebp]
  00b75	e8 00 00 00 00	 call	 ?InvalidateRect@CWnd@@QAEXPBUtagRECT@@H@Z ; CWnd::InvalidateRect
$L187618:

; 207  : 	}
; 208  : 	return 0;

  00b7a	33 c0		 xor	 eax, eax

; 209  : }

  00b7c	52		 push	 edx
  00b7d	8b cd		 mov	 ecx, ebp
  00b7f	50		 push	 eax
  00b80	8d 15 00 00 00
	00		 lea	 edx, DWORD PTR $L188151
  00b86	e8 00 00 00 00	 call	 @_RTC_CheckStackVars@8
  00b8b	58		 pop	 eax
  00b8c	5a		 pop	 edx
  00b8d	83 c4 1c	 add	 esp, 28			; 0000001cH
  00b90	3b ec		 cmp	 ebp, esp
  00b92	e8 00 00 00 00	 call	 __RTC_CheckEsp
  00b97	8b e5		 mov	 esp, ebp
  00b99	5d		 pop	 ebp
  00b9a	c2 08 00	 ret	 8
$L188151:
  00b9d	01 00 00 00	 DD	 1
  00ba1	00 00 00 00	 DD	 $L188150
$L188150:
  00ba5	e8 ff ff ff	 DD	 -24			; ffffffe8H
  00ba9	10 00 00 00	 DD	 16			; 00000010H
  00bad	00 00 00 00	 DD	 $L188149
$L188149:
  00bb1	72		 DB	 114			; 00000072H
  00bb2	63		 DB	 99			; 00000063H
  00bb3	48		 DB	 72			; 00000048H
  00bb4	6f		 DB	 111			; 0000006fH
  00bb5	76		 DB	 118			; 00000076H
  00bb6	65		 DB	 101			; 00000065H
  00bb7	72		 DB	 114			; 00000072H
  00bb8	00		 DB	 0
?OnMouseLeave@CMyBtnTreeCtrl@@QAEJIJ@Z ENDP		; CMyBtnTreeCtrl::OnMouseLeave
_TEXT	ENDS
EXTRN	?ItemHasChildren@CTreeCtrl@@QBEHPAU_TREEITEM@@@Z:NEAR ; CTreeCtrl::ItemHasChildren
EXTRN	?HitTest@CTreeCtrl@@QBEPAU_TREEITEM@@VCPoint@@PAI@Z:NEAR ; CTreeCtrl::HitTest
EXTRN	?PtInRect@CRect@@QBEHUtagPOINT@@@Z:NEAR		; CRect::PtInRect
EXTRN	__imp__SetCursor@4:NEAR
EXTRN	__imp___TrackMouseEvent@4:NEAR
EXTRN	__imp__LoadCursorA@8:NEAR
EXTRN	?OnMouseMove@CMyTreeCtrl@@QAEXIVCPoint@@@Z:NEAR	; CMyTreeCtrl::OnMouseMove
; Function compile flags: /Odt /RTCsu
_TEXT	SEGMENT
$T188154 = -144						; size = 8
$T188153 = -136						; size = 8
_rectAll$187644 = -124					; size = 16
_rectText$187643 = -100					; size = 16
_rcHover$187633 = -76					; size = 16
_rcHover$187630 = -52					; size = 16
_tme$187626 = -28					; size = 16
_htree$ = -8						; size = 4
_this$ = -4						; size = 4
_nFlags$ = 8						; size = 4
_point$ = 12						; size = 8
?OnMouseMove@CMyBtnTreeCtrl@@QAEXIVCPoint@@@Z PROC NEAR	; CMyBtnTreeCtrl::OnMouseMove
; _this$ = ecx

; 212  : {

  00bc0	55		 push	 ebp
  00bc1	8b ec		 mov	 ebp, esp
  00bc3	81 ec 90 00 00
	00		 sub	 esp, 144		; 00000090H
  00bc9	56		 push	 esi
  00bca	57		 push	 edi
  00bcb	51		 push	 ecx
  00bcc	8d bd 70 ff ff
	ff		 lea	 edi, DWORD PTR [ebp-144]
  00bd2	b9 24 00 00 00	 mov	 ecx, 36			; 00000024H
  00bd7	b8 cc cc cc cc	 mov	 eax, -858993460		; ccccccccH
  00bdc	f3 ab		 rep stosd
  00bde	59		 pop	 ecx
  00bdf	89 4d fc	 mov	 DWORD PTR _this$[ebp], ecx

; 213  : 	HTREEITEM htree = HitTest(point);

  00be2	6a 00		 push	 0
  00be4	8b 45 10	 mov	 eax, DWORD PTR _point$[ebp+4]
  00be7	50		 push	 eax
  00be8	8b 4d 0c	 mov	 ecx, DWORD PTR _point$[ebp]
  00beb	51		 push	 ecx
  00bec	8b 4d fc	 mov	 ecx, DWORD PTR _this$[ebp]
  00bef	e8 00 00 00 00	 call	 ?HitTest@CTreeCtrl@@QBEPAU_TREEITEM@@VCPoint@@PAI@Z ; CTreeCtrl::HitTest
  00bf4	89 45 f8	 mov	 DWORD PTR _htree$[ebp], eax

; 214  : 	
; 215  : 	if (!m_bTrackMouse)

  00bf7	8b 55 fc	 mov	 edx, DWORD PTR _this$[ebp]
  00bfa	0f b6 82 b9 00
	00 00		 movzx	 eax, BYTE PTR [edx+185]
  00c01	85 c0		 test	 eax, eax
  00c03	75 34		 jne	 SHORT $L187625

; 216  : 	{
; 217  : 		TRACKMOUSEEVENT tme;
; 218  : 		tme.cbSize = sizeof(tme);

  00c05	c7 45 e4 10 00
	00 00		 mov	 DWORD PTR _tme$187626[ebp], 16 ; 00000010H

; 219  : 		tme.hwndTrack = m_hWnd;

  00c0c	8b 4d fc	 mov	 ecx, DWORD PTR _this$[ebp]
  00c0f	8b 51 20	 mov	 edx, DWORD PTR [ecx+32]
  00c12	89 55 ec	 mov	 DWORD PTR _tme$187626[ebp+8], edx

; 220  : 		tme.dwFlags = TME_LEAVE;

  00c15	c7 45 e8 02 00
	00 00		 mov	 DWORD PTR _tme$187626[ebp+4], 2

; 221  : 		_TrackMouseEvent(&tme);

  00c1c	8b f4		 mov	 esi, esp
  00c1e	8d 45 e4	 lea	 eax, DWORD PTR _tme$187626[ebp]
  00c21	50		 push	 eax
  00c22	ff 15 00 00 00
	00		 call	 DWORD PTR __imp___TrackMouseEvent@4
  00c28	3b f4		 cmp	 esi, esp
  00c2a	e8 00 00 00 00	 call	 __RTC_CheckEsp

; 222  : 		m_bTrackMouse = TRUE;

  00c2f	8b 4d fc	 mov	 ecx, DWORD PTR _this$[ebp]
  00c32	c6 81 b9 00 00
	00 01		 mov	 BYTE PTR [ecx+185], 1
$L187625:

; 223  : 	}
; 224  : 
; 225  : 	if( htree == NULL )

  00c39	83 7d f8 00	 cmp	 DWORD PTR _htree$[ebp], 0
  00c3d	0f 85 96 00 00
	00		 jne	 $L187627

; 226  : 	{
; 227  : 		if( m_bMouseOverBtn )

  00c43	8b 55 fc	 mov	 edx, DWORD PTR _this$[ebp]
  00c46	0f b6 82 b8 00
	00 00		 movzx	 eax, BYTE PTR [edx+184]
  00c4d	85 c0		 test	 eax, eax
  00c4f	74 23		 je	 SHORT $L187628

; 228  : 		{
; 229  : 			m_bMouseOverBtn = false;

  00c51	8b 4d fc	 mov	 ecx, DWORD PTR _this$[ebp]
  00c54	c6 81 b8 00 00
	00 00		 mov	 BYTE PTR [ecx+184], 0

; 230  : 			InvalidateRect(m_BtnRect);

  00c5b	6a 01		 push	 1
  00c5d	8b 4d fc	 mov	 ecx, DWORD PTR _this$[ebp]
  00c60	81 c1 a8 00 00
	00		 add	 ecx, 168		; 000000a8H
  00c66	e8 00 00 00 00	 call	 ??BCRect@@QAEPAUtagRECT@@XZ ; CRect::operator tagRECT *
  00c6b	50		 push	 eax
  00c6c	8b 4d fc	 mov	 ecx, DWORD PTR _this$[ebp]
  00c6f	e8 00 00 00 00	 call	 ?InvalidateRect@CWnd@@QAEXPBUtagRECT@@H@Z ; CWnd::InvalidateRect
$L187628:

; 231  : 		}
; 232  : 		if(	m_iHoverItem != NULL )

  00c74	8b 55 fc	 mov	 edx, DWORD PTR _this$[ebp]
  00c77	83 ba 98 00 00
	00 00		 cmp	 DWORD PTR [edx+152], 0
  00c7e	74 40		 je	 SHORT $L187629

; 233  : 		{
; 234  : 			CRect rcHover;

  00c80	8d 4d cc	 lea	 ecx, DWORD PTR _rcHover$187630[ebp]
  00c83	e8 00 00 00 00	 call	 ??0CRect@@QAE@XZ	; CRect::CRect

; 235  : 			GetItemRect( m_iHoverItem, &rcHover, FALSE );

  00c88	6a 00		 push	 0
  00c8a	8d 45 cc	 lea	 eax, DWORD PTR _rcHover$187630[ebp]
  00c8d	50		 push	 eax
  00c8e	8b 4d fc	 mov	 ecx, DWORD PTR _this$[ebp]
  00c91	8b 91 98 00 00
	00		 mov	 edx, DWORD PTR [ecx+152]
  00c97	52		 push	 edx
  00c98	8b 4d fc	 mov	 ecx, DWORD PTR _this$[ebp]
  00c9b	e8 00 00 00 00	 call	 ?GetItemRect@CTreeCtrl@@QBEHPAU_TREEITEM@@PAUtagRECT@@H@Z ; CTreeCtrl::GetItemRect

; 236  : 			InvalidateRect(rcHover);

  00ca0	6a 01		 push	 1
  00ca2	8d 4d cc	 lea	 ecx, DWORD PTR _rcHover$187630[ebp]
  00ca5	e8 00 00 00 00	 call	 ??BCRect@@QAEPAUtagRECT@@XZ ; CRect::operator tagRECT *
  00caa	50		 push	 eax
  00cab	8b 4d fc	 mov	 ecx, DWORD PTR _this$[ebp]
  00cae	e8 00 00 00 00	 call	 ?InvalidateRect@CWnd@@QAEXPBUtagRECT@@H@Z ; CWnd::InvalidateRect

; 237  : 			m_iHoverItem = NULL;

  00cb3	8b 45 fc	 mov	 eax, DWORD PTR _this$[ebp]
  00cb6	c7 80 98 00 00
	00 00 00 00 00	 mov	 DWORD PTR [eax+152], 0
$L187629:

; 238  : 		}
; 239  : 		return __super::OnMouseMove( nFlags,point );

  00cc0	8b 4d 10	 mov	 ecx, DWORD PTR _point$[ebp+4]
  00cc3	51		 push	 ecx
  00cc4	8b 55 0c	 mov	 edx, DWORD PTR _point$[ebp]
  00cc7	52		 push	 edx
  00cc8	8b 45 08	 mov	 eax, DWORD PTR _nFlags$[ebp]
  00ccb	50		 push	 eax
  00ccc	8b 4d fc	 mov	 ecx, DWORD PTR _this$[ebp]
  00ccf	e8 00 00 00 00	 call	 ?OnMouseMove@CMyTreeCtrl@@QAEXIVCPoint@@@Z ; CMyTreeCtrl::OnMouseMove
  00cd4	e9 47 02 00 00	 jmp	 $L187623
$L187627:

; 240  : 	}else
; 241  : 	{
; 242  : 		if( m_iHoverItem != htree )

  00cd9	8b 4d fc	 mov	 ecx, DWORD PTR _this$[ebp]
  00cdc	8b 91 98 00 00
	00		 mov	 edx, DWORD PTR [ecx+152]
  00ce2	3b 55 f8	 cmp	 edx, DWORD PTR _htree$[ebp]
  00ce5	74 6a		 je	 SHORT $L187631

; 243  : 		{
; 244  : 			//更新原来的item
; 245  : 			CRect rcHover;

  00ce7	8d 4d b4	 lea	 ecx, DWORD PTR _rcHover$187633[ebp]
  00cea	e8 00 00 00 00	 call	 ??0CRect@@QAE@XZ	; CRect::CRect

; 246  : 			GetItemRect( m_iHoverItem, &rcHover, FALSE );

  00cef	6a 00		 push	 0
  00cf1	8d 45 b4	 lea	 eax, DWORD PTR _rcHover$187633[ebp]
  00cf4	50		 push	 eax
  00cf5	8b 4d fc	 mov	 ecx, DWORD PTR _this$[ebp]
  00cf8	8b 91 98 00 00
	00		 mov	 edx, DWORD PTR [ecx+152]
  00cfe	52		 push	 edx
  00cff	8b 4d fc	 mov	 ecx, DWORD PTR _this$[ebp]
  00d02	e8 00 00 00 00	 call	 ?GetItemRect@CTreeCtrl@@QBEHPAU_TREEITEM@@PAUtagRECT@@H@Z ; CTreeCtrl::GetItemRect

; 247  : 			InvalidateRect(rcHover);

  00d07	6a 01		 push	 1
  00d09	8d 4d b4	 lea	 ecx, DWORD PTR _rcHover$187633[ebp]
  00d0c	e8 00 00 00 00	 call	 ??BCRect@@QAEPAUtagRECT@@XZ ; CRect::operator tagRECT *
  00d11	50		 push	 eax
  00d12	8b 4d fc	 mov	 ecx, DWORD PTR _this$[ebp]
  00d15	e8 00 00 00 00	 call	 ?InvalidateRect@CWnd@@QAEXPBUtagRECT@@H@Z ; CWnd::InvalidateRect

; 248  : 			//更新现在的item
; 249  : 			m_iHoverItem = htree;

  00d1a	8b 45 fc	 mov	 eax, DWORD PTR _this$[ebp]
  00d1d	8b 4d f8	 mov	 ecx, DWORD PTR _htree$[ebp]
  00d20	89 88 98 00 00
	00		 mov	 DWORD PTR [eax+152], ecx

; 250  : 			GetItemRect( m_iHoverItem, &rcHover, FALSE );

  00d26	6a 00		 push	 0
  00d28	8d 55 b4	 lea	 edx, DWORD PTR _rcHover$187633[ebp]
  00d2b	52		 push	 edx
  00d2c	8b 45 fc	 mov	 eax, DWORD PTR _this$[ebp]
  00d2f	8b 88 98 00 00
	00		 mov	 ecx, DWORD PTR [eax+152]
  00d35	51		 push	 ecx
  00d36	8b 4d fc	 mov	 ecx, DWORD PTR _this$[ebp]
  00d39	e8 00 00 00 00	 call	 ?GetItemRect@CTreeCtrl@@QBEHPAU_TREEITEM@@PAUtagRECT@@H@Z ; CTreeCtrl::GetItemRect

; 251  : 			InvalidateRect(rcHover);

  00d3e	6a 01		 push	 1
  00d40	8d 4d b4	 lea	 ecx, DWORD PTR _rcHover$187633[ebp]
  00d43	e8 00 00 00 00	 call	 ??BCRect@@QAEPAUtagRECT@@XZ ; CRect::operator tagRECT *
  00d48	50		 push	 eax
  00d49	8b 4d fc	 mov	 ecx, DWORD PTR _this$[ebp]
  00d4c	e8 00 00 00 00	 call	 ?InvalidateRect@CWnd@@QAEXPBUtagRECT@@H@Z ; CWnd::InvalidateRect
$L187631:

; 252  : 		}
; 253  : 	}
; 254  : 
; 255  : 	if(m_BtnRect.PtInRect(point) && point.x < m_BtnRect.right - 2)

  00d51	8b 55 0c	 mov	 edx, DWORD PTR _point$[ebp]
  00d54	89 95 78 ff ff
	ff		 mov	 DWORD PTR $T188153[ebp], edx
  00d5a	8b 45 10	 mov	 eax, DWORD PTR _point$[ebp+4]
  00d5d	89 85 7c ff ff
	ff		 mov	 DWORD PTR $T188153[ebp+4], eax
  00d63	8b 8d 7c ff ff
	ff		 mov	 ecx, DWORD PTR $T188153[ebp+4]
  00d69	51		 push	 ecx
  00d6a	8b 95 78 ff ff
	ff		 mov	 edx, DWORD PTR $T188153[ebp]
  00d70	52		 push	 edx
  00d71	8b 4d fc	 mov	 ecx, DWORD PTR _this$[ebp]
  00d74	81 c1 a8 00 00
	00		 add	 ecx, 168		; 000000a8H
  00d7a	e8 00 00 00 00	 call	 ?PtInRect@CRect@@QBEHUtagPOINT@@@Z ; CRect::PtInRect
  00d7f	85 c0		 test	 eax, eax
  00d81	74 6d		 je	 SHORT $L187635
  00d83	8b 45 fc	 mov	 eax, DWORD PTR _this$[ebp]
  00d86	8b 88 b0 00 00
	00		 mov	 ecx, DWORD PTR [eax+176]
  00d8c	83 e9 02	 sub	 ecx, 2
  00d8f	39 4d 0c	 cmp	 DWORD PTR _point$[ebp], ecx
  00d92	7d 5c		 jge	 SHORT $L187635

; 256  : 	{
; 257  : 		::SetCursor(::LoadCursor(NULL, MAKEINTRESOURCE(32649)));

  00d94	8b f4		 mov	 esi, esp
  00d96	68 89 7f 00 00	 push	 32649			; 00007f89H
  00d9b	6a 00		 push	 0
  00d9d	ff 15 00 00 00
	00		 call	 DWORD PTR __imp__LoadCursorA@8
  00da3	3b f4		 cmp	 esi, esp
  00da5	e8 00 00 00 00	 call	 __RTC_CheckEsp
  00daa	8b f4		 mov	 esi, esp
  00dac	50		 push	 eax
  00dad	ff 15 00 00 00
	00		 call	 DWORD PTR __imp__SetCursor@4
  00db3	3b f4		 cmp	 esi, esp
  00db5	e8 00 00 00 00	 call	 __RTC_CheckEsp

; 258  : 		if( !m_bMouseOverBtn )

  00dba	8b 55 fc	 mov	 edx, DWORD PTR _this$[ebp]
  00dbd	0f b6 82 b8 00
	00 00		 movzx	 eax, BYTE PTR [edx+184]
  00dc4	85 c0		 test	 eax, eax
  00dc6	75 23		 jne	 SHORT $L187639

; 259  : 		{
; 260  : 			m_bMouseOverBtn = true;

  00dc8	8b 4d fc	 mov	 ecx, DWORD PTR _this$[ebp]
  00dcb	c6 81 b8 00 00
	00 01		 mov	 BYTE PTR [ecx+184], 1

; 261  : 			InvalidateRect(m_BtnRect);

  00dd2	6a 01		 push	 1
  00dd4	8b 4d fc	 mov	 ecx, DWORD PTR _this$[ebp]
  00dd7	81 c1 a8 00 00
	00		 add	 ecx, 168		; 000000a8H
  00ddd	e8 00 00 00 00	 call	 ??BCRect@@QAEPAUtagRECT@@XZ ; CRect::operator tagRECT *
  00de2	50		 push	 eax
  00de3	8b 4d fc	 mov	 ecx, DWORD PTR _this$[ebp]
  00de6	e8 00 00 00 00	 call	 ?InvalidateRect@CWnd@@QAEXPBUtagRECT@@H@Z ; CWnd::InvalidateRect
$L187639:

; 262  : 		}
; 263  : 	}
; 264  : 	else 

  00deb	e9 1c 01 00 00	 jmp	 $L187640
$L187635:

; 265  : 	{
; 266  : 		if( m_bMouseOverBtn )

  00df0	8b 55 fc	 mov	 edx, DWORD PTR _this$[ebp]
  00df3	0f b6 82 b8 00
	00 00		 movzx	 eax, BYTE PTR [edx+184]
  00dfa	85 c0		 test	 eax, eax
  00dfc	74 23		 je	 SHORT $L187641

; 267  : 		{
; 268  : 			m_bMouseOverBtn = false;

  00dfe	8b 4d fc	 mov	 ecx, DWORD PTR _this$[ebp]
  00e01	c6 81 b8 00 00
	00 00		 mov	 BYTE PTR [ecx+184], 0

; 269  : 			InvalidateRect(m_BtnRect);

  00e08	6a 01		 push	 1
  00e0a	8b 4d fc	 mov	 ecx, DWORD PTR _this$[ebp]
  00e0d	81 c1 a8 00 00
	00		 add	 ecx, 168		; 000000a8H
  00e13	e8 00 00 00 00	 call	 ??BCRect@@QAEPAUtagRECT@@XZ ; CRect::operator tagRECT *
  00e18	50		 push	 eax
  00e19	8b 4d fc	 mov	 ecx, DWORD PTR _this$[ebp]
  00e1c	e8 00 00 00 00	 call	 ?InvalidateRect@CWnd@@QAEXPBUtagRECT@@H@Z ; CWnd::InvalidateRect
$L187641:

; 270  : 		}
; 271  : 
; 272  : 		if( ItemHasChildren( htree ) )

  00e21	8b 55 f8	 mov	 edx, DWORD PTR _htree$[ebp]
  00e24	52		 push	 edx
  00e25	8b 4d fc	 mov	 ecx, DWORD PTR _this$[ebp]
  00e28	e8 00 00 00 00	 call	 ?ItemHasChildren@CTreeCtrl@@QBEHPAU_TREEITEM@@@Z ; CTreeCtrl::ItemHasChildren
  00e2d	85 c0		 test	 eax, eax
  00e2f	0f 84 b1 00 00
	00		 je	 $L187642

; 273  : 		{
; 274  : 			CRect rectText;

  00e35	8d 4d 9c	 lea	 ecx, DWORD PTR _rectText$187643[ebp]
  00e38	e8 00 00 00 00	 call	 ??0CRect@@QAE@XZ	; CRect::CRect

; 275  : 			CRect rectAll;

  00e3d	8d 4d 84	 lea	 ecx, DWORD PTR _rectAll$187644[ebp]
  00e40	e8 00 00 00 00	 call	 ??0CRect@@QAE@XZ	; CRect::CRect

; 276  : 			GetItemRect( htree,rectText,true);

  00e45	6a 01		 push	 1
  00e47	8d 4d 9c	 lea	 ecx, DWORD PTR _rectText$187643[ebp]
  00e4a	e8 00 00 00 00	 call	 ??BCRect@@QAEPAUtagRECT@@XZ ; CRect::operator tagRECT *
  00e4f	50		 push	 eax
  00e50	8b 45 f8	 mov	 eax, DWORD PTR _htree$[ebp]
  00e53	50		 push	 eax
  00e54	8b 4d fc	 mov	 ecx, DWORD PTR _this$[ebp]
  00e57	e8 00 00 00 00	 call	 ?GetItemRect@CTreeCtrl@@QBEHPAU_TREEITEM@@PAUtagRECT@@H@Z ; CTreeCtrl::GetItemRect

; 277  : 			GetItemRect( htree,rectAll,false);

  00e5c	6a 00		 push	 0
  00e5e	8d 4d 84	 lea	 ecx, DWORD PTR _rectAll$187644[ebp]
  00e61	e8 00 00 00 00	 call	 ??BCRect@@QAEPAUtagRECT@@XZ ; CRect::operator tagRECT *
  00e66	50		 push	 eax
  00e67	8b 4d f8	 mov	 ecx, DWORD PTR _htree$[ebp]
  00e6a	51		 push	 ecx
  00e6b	8b 4d fc	 mov	 ecx, DWORD PTR _this$[ebp]
  00e6e	e8 00 00 00 00	 call	 ?GetItemRect@CTreeCtrl@@QBEHPAU_TREEITEM@@PAUtagRECT@@H@Z ; CTreeCtrl::GetItemRect

; 278  : 			rectAll.right = rectText.left - 3;

  00e73	8b 55 9c	 mov	 edx, DWORD PTR _rectText$187643[ebp]
  00e76	83 ea 03	 sub	 edx, 3
  00e79	89 55 8c	 mov	 DWORD PTR _rectAll$187644[ebp+8], edx

; 279  : 			if( rectAll.PtInRect(point) )

  00e7c	8b 45 0c	 mov	 eax, DWORD PTR _point$[ebp]
  00e7f	89 85 70 ff ff
	ff		 mov	 DWORD PTR $T188154[ebp], eax
  00e85	8b 4d 10	 mov	 ecx, DWORD PTR _point$[ebp+4]
  00e88	89 8d 74 ff ff
	ff		 mov	 DWORD PTR $T188154[ebp+4], ecx
  00e8e	8b 95 74 ff ff
	ff		 mov	 edx, DWORD PTR $T188154[ebp+4]
  00e94	52		 push	 edx
  00e95	8b 85 70 ff ff
	ff		 mov	 eax, DWORD PTR $T188154[ebp]
  00e9b	50		 push	 eax
  00e9c	8d 4d 84	 lea	 ecx, DWORD PTR _rectAll$187644[ebp]
  00e9f	e8 00 00 00 00	 call	 ?PtInRect@CRect@@QBEHUtagPOINT@@@Z ; CRect::PtInRect
  00ea4	85 c0		 test	 eax, eax
  00ea6	74 3c		 je	 SHORT $L187646

; 280  : 			{
; 281  : 				::SetCursor(::LoadCursor(NULL, MAKEINTRESOURCE(32649)));

  00ea8	8b f4		 mov	 esi, esp
  00eaa	68 89 7f 00 00	 push	 32649			; 00007f89H
  00eaf	6a 00		 push	 0
  00eb1	ff 15 00 00 00
	00		 call	 DWORD PTR __imp__LoadCursorA@8
  00eb7	3b f4		 cmp	 esi, esp
  00eb9	e8 00 00 00 00	 call	 __RTC_CheckEsp
  00ebe	8b f4		 mov	 esi, esp
  00ec0	50		 push	 eax
  00ec1	ff 15 00 00 00
	00		 call	 DWORD PTR __imp__SetCursor@4
  00ec7	3b f4		 cmp	 esi, esp
  00ec9	e8 00 00 00 00	 call	 __RTC_CheckEsp

; 282  : 				return __super::OnMouseMove( nFlags,point );

  00ece	8b 4d 10	 mov	 ecx, DWORD PTR _point$[ebp+4]
  00ed1	51		 push	 ecx
  00ed2	8b 55 0c	 mov	 edx, DWORD PTR _point$[ebp]
  00ed5	52		 push	 edx
  00ed6	8b 45 08	 mov	 eax, DWORD PTR _nFlags$[ebp]
  00ed9	50		 push	 eax
  00eda	8b 4d fc	 mov	 ecx, DWORD PTR _this$[ebp]
  00edd	e8 00 00 00 00	 call	 ?OnMouseMove@CMyTreeCtrl@@QAEXIVCPoint@@@Z ; CMyTreeCtrl::OnMouseMove
  00ee2	eb 3c		 jmp	 SHORT $L187623
$L187646:

; 283  : 			}
; 284  : 		}
; 285  : 		else

  00ee4	eb 26		 jmp	 SHORT $L187640
$L187642:

; 286  : 		{
; 287  : 			::SetCursor(::LoadCursor(NULL, IDC_ARROW));			

  00ee6	8b f4		 mov	 esi, esp
  00ee8	68 00 7f 00 00	 push	 32512			; 00007f00H
  00eed	6a 00		 push	 0
  00eef	ff 15 00 00 00
	00		 call	 DWORD PTR __imp__LoadCursorA@8
  00ef5	3b f4		 cmp	 esi, esp
  00ef7	e8 00 00 00 00	 call	 __RTC_CheckEsp
  00efc	8b f4		 mov	 esi, esp
  00efe	50		 push	 eax
  00eff	ff 15 00 00 00
	00		 call	 DWORD PTR __imp__SetCursor@4
  00f05	3b f4		 cmp	 esi, esp
  00f07	e8 00 00 00 00	 call	 __RTC_CheckEsp
$L187640:

; 288  : 		}
; 289  : 	}	
; 290  : 	__super::OnMouseMove(nFlags, point);

  00f0c	8b 4d 10	 mov	 ecx, DWORD PTR _point$[ebp+4]
  00f0f	51		 push	 ecx
  00f10	8b 55 0c	 mov	 edx, DWORD PTR _point$[ebp]
  00f13	52		 push	 edx
  00f14	8b 45 08	 mov	 eax, DWORD PTR _nFlags$[ebp]
  00f17	50		 push	 eax
  00f18	8b 4d fc	 mov	 ecx, DWORD PTR _this$[ebp]
  00f1b	e8 00 00 00 00	 call	 ?OnMouseMove@CMyTreeCtrl@@QAEXIVCPoint@@@Z ; CMyTreeCtrl::OnMouseMove
$L187623:

; 291  : }

  00f20	52		 push	 edx
  00f21	8b cd		 mov	 ecx, ebp
  00f23	50		 push	 eax
  00f24	8d 15 00 00 00
	00		 lea	 edx, DWORD PTR $L188161
  00f2a	e8 00 00 00 00	 call	 @_RTC_CheckStackVars@8
  00f2f	58		 pop	 eax
  00f30	5a		 pop	 edx
  00f31	5f		 pop	 edi
  00f32	5e		 pop	 esi
  00f33	81 c4 90 00 00
	00		 add	 esp, 144		; 00000090H
  00f39	3b ec		 cmp	 ebp, esp
  00f3b	e8 00 00 00 00	 call	 __RTC_CheckEsp
  00f40	8b e5		 mov	 esp, ebp
  00f42	5d		 pop	 ebp
  00f43	c2 0c 00	 ret	 12			; 0000000cH
$L188161:
  00f46	05 00 00 00	 DD	 5
  00f4a	00 00 00 00	 DD	 $L188160
$L188160:
  00f4e	e4 ff ff ff	 DD	 -28			; ffffffe4H
  00f52	10 00 00 00	 DD	 16			; 00000010H
  00f56	00 00 00 00	 DD	 $L188155
  00f5a	cc ff ff ff	 DD	 -52			; ffffffccH
  00f5e	10 00 00 00	 DD	 16			; 00000010H
  00f62	00 00 00 00	 DD	 $L188156
  00f66	b4 ff ff ff	 DD	 -76			; ffffffb4H
  00f6a	10 00 00 00	 DD	 16			; 00000010H
  00f6e	00 00 00 00	 DD	 $L188157
  00f72	9c ff ff ff	 DD	 -100			; ffffff9cH
  00f76	10 00 00 00	 DD	 16			; 00000010H
  00f7a	00 00 00 00	 DD	 $L188158
  00f7e	84 ff ff ff	 DD	 -124			; ffffff84H
  00f82	10 00 00 00	 DD	 16			; 00000010H
  00f86	00 00 00 00	 DD	 $L188159
$L188159:
  00f8a	72		 DB	 114			; 00000072H
  00f8b	65		 DB	 101			; 00000065H
  00f8c	63		 DB	 99			; 00000063H
  00f8d	74		 DB	 116			; 00000074H
  00f8e	41		 DB	 65			; 00000041H
  00f8f	6c		 DB	 108			; 0000006cH
  00f90	6c		 DB	 108			; 0000006cH
  00f91	00		 DB	 0
$L188158:
  00f92	72		 DB	 114			; 00000072H
  00f93	65		 DB	 101			; 00000065H
  00f94	63		 DB	 99			; 00000063H
  00f95	74		 DB	 116			; 00000074H
  00f96	54		 DB	 84			; 00000054H
  00f97	65		 DB	 101			; 00000065H
  00f98	78		 DB	 120			; 00000078H
  00f99	74		 DB	 116			; 00000074H
  00f9a	00		 DB	 0
$L188157:
  00f9b	72		 DB	 114			; 00000072H
  00f9c	63		 DB	 99			; 00000063H
  00f9d	48		 DB	 72			; 00000048H
  00f9e	6f		 DB	 111			; 0000006fH
  00f9f	76		 DB	 118			; 00000076H
  00fa0	65		 DB	 101			; 00000065H
  00fa1	72		 DB	 114			; 00000072H
  00fa2	00		 DB	 0
$L188156:
  00fa3	72		 DB	 114			; 00000072H
  00fa4	63		 DB	 99			; 00000063H
  00fa5	48		 DB	 72			; 00000048H
  00fa6	6f		 DB	 111			; 0000006fH
  00fa7	76		 DB	 118			; 00000076H
  00fa8	65		 DB	 101			; 00000065H
  00fa9	72		 DB	 114			; 00000072H
  00faa	00		 DB	 0
$L188155:
  00fab	74		 DB	 116			; 00000074H
  00fac	6d		 DB	 109			; 0000006dH
  00fad	65		 DB	 101			; 00000065H
  00fae	00		 DB	 0
?OnMouseMove@CMyBtnTreeCtrl@@QAEXIVCPoint@@@Z ENDP	; CMyBtnTreeCtrl::OnMouseMove
_TEXT	ENDS
END
