; Listing generated by Microsoft (R) Optimizing Compiler Version 13.10.3077 

	TITLE	.\src\Gui\CommonControl\MyHeaderCtrl.cpp
	.386P
include listing.inc
if @Version gt 510
.model FLAT
else
_TEXT	SEGMENT PARA USE32 PUBLIC 'CODE'
_TEXT	ENDS
_DATA	SEGMENT DWORD USE32 PUBLIC 'DATA'
_DATA	ENDS
CONST	SEGMENT DWORD USE32 PUBLIC 'CONST'
CONST	ENDS
_BSS	SEGMENT DWORD USE32 PUBLIC 'BSS'
_BSS	ENDS
$$SYMBOLS	SEGMENT BYTE USE32 'DEBSYM'
$$SYMBOLS	ENDS
_TLS	SEGMENT DWORD USE32 PUBLIC 'TLS'
_TLS	ENDS
;	COMDAT ??_C@_0EN@IBFBLEEG@D?3?2Program?5Files?5?$CIx86?$CJ?2Microsoft@
CONST	SEGMENT DWORD USE32 PUBLIC 'CONST'
CONST	ENDS
rdata$r	SEGMENT DWORD USE32 PUBLIC 'CONST'
rdata$r	ENDS
xdata$x	SEGMENT DWORD USE32 PUBLIC 'CONST'
xdata$x	ENDS
text$AFX_COL1	SEGMENT PARA USE32 PUBLIC ''
text$AFX_COL1	ENDS
text$yc	SEGMENT PARA USE32 PUBLIC 'CODE'
text$yc	ENDS
CRT$XCA	SEGMENT DWORD USE32 PUBLIC 'DATA'
CRT$XCA	ENDS
CRT$XCU	SEGMENT DWORD USE32 PUBLIC 'DATA'
CRT$XCU	ENDS
CRT$XCL	SEGMENT DWORD USE32 PUBLIC 'DATA'
CRT$XCL	ENDS
CRT$XCC	SEGMENT DWORD USE32 PUBLIC 'DATA'
CRT$XCC	ENDS
CRT$XCZ	SEGMENT DWORD USE32 PUBLIC 'DATA'
CRT$XCZ	ENDS
text$yd	SEGMENT PARA USE32 PUBLIC 'CODE'
text$yd	ENDS
ATL$__m	SEGMENT DWORD USE32 PUBLIC ''
ATL$__m	ENDS
ATL$__z	SEGMENT DWORD USE32 PUBLIC ''
ATL$__z	ENDS
ATL$__a	SEGMENT DWORD USE32 PUBLIC ''
ATL$__a	ENDS
;	COMDAT ??0MYLIST_COLUMN_IMAGE@@QAE@XZ
_TEXT	SEGMENT PARA USE32 PUBLIC 'CODE'
_TEXT	ENDS
;	COMDAT ??_GCMyHeaderCtrl@@UAEPAXI@Z
_TEXT	SEGMENT PARA USE32 PUBLIC 'CODE'
_TEXT	ENDS
;	COMDAT ??B?$CComPtrBase@UITypeInfo2@@@ATL@@QBEPAUITypeInfo2@@XZ
_TEXT	SEGMENT PARA USE32 PUBLIC 'CODE'
_TEXT	ENDS
;	COMDAT ?equal@?$istreambuf_iterator@DU?$char_traits@D@std@@@std@@QBE_NABV12@@Z
_TEXT	SEGMENT PARA USE32 PUBLIC 'CODE'
_TEXT	ENDS
;	COMDAT ?equal@?$istreambuf_iterator@_WU?$char_traits@_W@std@@@std@@QBE_NABV12@@Z
_TEXT	SEGMENT PARA USE32 PUBLIC 'CODE'
_TEXT	ENDS
;	COMDAT ?Unlock@?$CComCritSecLock@VCComCriticalSection@ATL@@@ATL@@QAEXXZ
_TEXT	SEGMENT PARA USE32 PUBLIC 'CODE'
_TEXT	ENDS
;	COMDAT ??$_Maklocstr@D@std@@YAPADPBDPADABU_Cvtvec@@@Z
_TEXT	SEGMENT PARA USE32 PUBLIC 'CODE'
_TEXT	ENDS
;	COMDAT ??_R3CMyHeaderCtrl@@8
rdata$r	SEGMENT DWORD USE32 PUBLIC 'CONST'
rdata$r	ENDS
;	COMDAT ??_R3?$numpunct@_W@std@@8
rdata$r	SEGMENT DWORD USE32 PUBLIC 'CONST'
rdata$r	ENDS
;	COMDAT ??_R3?$numpunct@D@std@@8
rdata$r	SEGMENT DWORD USE32 PUBLIC 'CONST'
rdata$r	ENDS
;	COMDAT ??_R2CMyHeaderCtrl@@8
rdata$r	SEGMENT DWORD USE32 PUBLIC 'CONST'
rdata$r	ENDS
;	COMDAT ??_R2?$numpunct@_W@std@@8
rdata$r	SEGMENT DWORD USE32 PUBLIC 'CONST'
rdata$r	ENDS
;	COMDAT ??_R2?$numpunct@D@std@@8
rdata$r	SEGMENT DWORD USE32 PUBLIC 'CONST'
rdata$r	ENDS
;	COMDAT ??_R1A@?0A@A@CObject@@8
rdata$r	SEGMENT DWORD USE32 PUBLIC 'CONST'
rdata$r	ENDS
;	COMDAT ??_R0?AVCObject@@@8
_DATA	SEGMENT DWORD USE32 PUBLIC 'DATA'
_DATA	ENDS
;	COMDAT ??_R1A@?0A@A@CCmdTarget@@8
rdata$r	SEGMENT DWORD USE32 PUBLIC 'CONST'
rdata$r	ENDS
;	COMDAT ??_R0?AVCCmdTarget@@@8
_DATA	SEGMENT DWORD USE32 PUBLIC 'DATA'
_DATA	ENDS
;	COMDAT ??_R1A@?0A@A@CWnd@@8
rdata$r	SEGMENT DWORD USE32 PUBLIC 'CONST'
rdata$r	ENDS
;	COMDAT ??_R0?AVCWnd@@@8
_DATA	SEGMENT DWORD USE32 PUBLIC 'DATA'
_DATA	ENDS
;	COMDAT ??_R1A@?0A@A@CHeaderCtrl@@8
rdata$r	SEGMENT DWORD USE32 PUBLIC 'CONST'
rdata$r	ENDS
;	COMDAT ??_R1A@?0A@A@CMyHeaderCtrl@@8
rdata$r	SEGMENT DWORD USE32 PUBLIC 'CONST'
rdata$r	ENDS
;	COMDAT ??_R1A@?0A@A@?$numpunct@_W@std@@8
rdata$r	SEGMENT DWORD USE32 PUBLIC 'CONST'
rdata$r	ENDS
;	COMDAT ??_R1A@?0A@A@facet@locale@std@@8
rdata$r	SEGMENT DWORD USE32 PUBLIC 'CONST'
rdata$r	ENDS
;	COMDAT ??_R0?AVfacet@locale@std@@@8
_DATA	SEGMENT DWORD USE32 PUBLIC 'DATA'
_DATA	ENDS
;	COMDAT ??_R1A@?0A@A@?$numpunct@D@std@@8
rdata$r	SEGMENT DWORD USE32 PUBLIC 'CONST'
rdata$r	ENDS
;	COMDAT ??_R0?AVCHeaderCtrl@@@8
_DATA	SEGMENT DWORD USE32 PUBLIC 'DATA'
_DATA	ENDS
;	COMDAT ??_R0?AVCMyHeaderCtrl@@@8
_DATA	SEGMENT DWORD USE32 PUBLIC 'DATA'
_DATA	ENDS
;	COMDAT ??_R0?AV?$numpunct@_W@std@@@8
_DATA	SEGMENT DWORD USE32 PUBLIC 'DATA'
_DATA	ENDS
;	COMDAT ??_R0?AV?$numpunct@D@std@@@8
_DATA	SEGMENT DWORD USE32 PUBLIC 'DATA'
_DATA	ENDS
;	COMDAT ??_R4CMyHeaderCtrl@@6B@
rdata$r	SEGMENT DWORD USE32 PUBLIC 'CONST'
rdata$r	ENDS
;	COMDAT ??0?$allocator@_W@std@@QAE@XZ
_TEXT	SEGMENT PARA USE32 PUBLIC 'CODE'
_TEXT	ENDS
;	COMDAT ??_G?$numpunct@_W@std@@MAEPAXI@Z
_TEXT	SEGMENT PARA USE32 PUBLIC 'CODE'
_TEXT	ENDS
;	COMDAT ??_R4?$numpunct@_W@std@@6B@
rdata$r	SEGMENT DWORD USE32 PUBLIC 'CONST'
rdata$r	ENDS
;	COMDAT ??_G?$numpunct@D@std@@MAEPAXI@Z
_TEXT	SEGMENT PARA USE32 PUBLIC 'CODE'
_TEXT	ENDS
;	COMDAT ??_R4?$numpunct@D@std@@6B@
rdata$r	SEGMENT DWORD USE32 PUBLIC 'CONST'
rdata$r	ENDS
;	COMDAT ??_C@_0EN@CBMLGOH@D?3?2Program?5Files?5?$CIx86?$CJ?2Microsoft@
CONST	SEGMENT DWORD USE32 PUBLIC 'CONST'
CONST	ENDS
;	COMDAT ?_Psave@?$_Facetptr@V?$numpunct@_W@std@@@std@@2PBVfacet@locale@2@B
_DATA	SEGMENT DWORD USE32 PUBLIC 'DATA'
_DATA	ENDS
;	COMDAT ?_Psave@?$_Facetptr@V?$numpunct@D@std@@@std@@2PBVfacet@locale@2@B
_DATA	SEGMENT DWORD USE32 PUBLIC 'DATA'
_DATA	ENDS
;	COMDAT ?Unlock@CComCriticalSection@ATL@@QAEJXZ
_TEXT	SEGMENT PARA USE32 PUBLIC 'CODE'
_TEXT	ENDS
;	COMDAT ??_C@_0FG@LDNDNCJM@D?3?2Program?5Files?5?$CIx86?$CJ?2Microsoft@
CONST	SEGMENT DWORD USE32 PUBLIC 'CONST'
CONST	ENDS
;	COMDAT ??_C@_09HIEJFN@m_bLocked?$AA@
CONST	SEGMENT DWORD USE32 PUBLIC 'CONST'
CONST	ENDS
;	COMDAT ?_Psave@?$_Facetptr@V?$ctype@_W@std@@@std@@2PBVfacet@locale@2@B
_DATA	SEGMENT DWORD USE32 PUBLIC 'DATA'
_DATA	ENDS
;	COMDAT ?_Psave@?$_Facetptr@V?$ctype@D@std@@@std@@2PBVfacet@locale@2@B
_DATA	SEGMENT DWORD USE32 PUBLIC 'DATA'
_DATA	ENDS
;	COMDAT ??$_Maklocchr@_W@std@@YA_WDPA_WABU_Cvtvec@@@Z
_TEXT	SEGMENT PARA USE32 PUBLIC 'CODE'
_TEXT	ENDS
;	COMDAT ??$_DebugHeapDelete@X@std@@YAXPAX@Z
_TEXT	SEGMENT PARA USE32 PUBLIC 'CODE'
_TEXT	ENDS
;	COMDAT ??$_Maklocstr@_W@std@@YAPA_WPBDPA_WABU_Cvtvec@@@Z
_TEXT	SEGMENT PARA USE32 PUBLIC 'CODE'
_TEXT	ENDS
;	COMDAT ??$_Maklocchr@D@std@@YADDPADABU_Cvtvec@@@Z
_TEXT	SEGMENT PARA USE32 PUBLIC 'CODE'
_TEXT	ENDS
;	COMDAT ??_C@_04LOAJBDKD@true?$AA@
CONST	SEGMENT DWORD USE32 PUBLIC 'CONST'
CONST	ENDS
;	COMDAT ??_C@_05LAPONLG@false?$AA@
CONST	SEGMENT DWORD USE32 PUBLIC 'CONST'
CONST	ENDS
;	COMDAT _wmemcpy
_TEXT	SEGMENT PARA USE32 PUBLIC 'CODE'
_TEXT	ENDS
;	COMDAT ?max_size@?$allocator@_W@std@@QBEIXZ
_TEXT	SEGMENT PARA USE32 PUBLIC 'CODE'
_TEXT	ENDS
;	COMDAT ?allocate@?$allocator@_W@std@@QAEPA_WI@Z
_TEXT	SEGMENT PARA USE32 PUBLIC 'CODE'
_TEXT	ENDS
;	COMDAT ??$_Allocate@_W@std@@YAPA_WIPA_W@Z
_TEXT	SEGMENT PARA USE32 PUBLIC 'CODE'
_TEXT	ENDS
;	COMDAT ??_C@_01GFHCPBMG@C?$AA@
CONST	SEGMENT DWORD USE32 PUBLIC 'CONST'
CONST	ENDS
;	COMDAT ?max_size@?$allocator@D@std@@QBEIXZ
_TEXT	SEGMENT PARA USE32 PUBLIC 'CODE'
_TEXT	ENDS
;	COMDAT ?allocate@?$allocator@D@std@@QAEPADI@Z
_TEXT	SEGMENT PARA USE32 PUBLIC 'CODE'
_TEXT	ENDS
;	COMDAT ??$_Allocate@D@std@@YAPADIPAD@Z
_TEXT	SEGMENT PARA USE32 PUBLIC 'CODE'
_TEXT	ENDS
;	COMDAT ?deallocate@?$allocator@D@std@@QAEXPADI@Z
_TEXT	SEGMENT PARA USE32 PUBLIC 'CODE'
_TEXT	ENDS
;	COMDAT ?_Peek@?$istreambuf_iterator@_WU?$char_traits@_W@std@@@std@@AAE_WXZ
_TEXT	SEGMENT PARA USE32 PUBLIC 'CODE'
_TEXT	ENDS
;	COMDAT ?_Peek@?$istreambuf_iterator@DU?$char_traits@D@std@@@std@@AAEDXZ
_TEXT	SEGMENT PARA USE32 PUBLIC 'CODE'
_TEXT	ENDS
;	COMDAT ??$use_facet@V?$ctype@_W@std@@@std@@YAABV?$ctype@_W@0@ABVlocale@0@@Z
_TEXT	SEGMENT PARA USE32 PUBLIC 'CODE'
_TEXT	ENDS
;	COMDAT ??_S?$ctype@_W@std@@6B@
CONST	SEGMENT DWORD USE32 PUBLIC 'CONST'
CONST	ENDS
;	COMDAT ??_R4?$ctype@_W@std@@6B@
rdata$r	SEGMENT DWORD USE32 PUBLIC 'CONST'
rdata$r	ENDS
;	COMDAT ??_R0?AV?$ctype@_W@std@@@8
_DATA	SEGMENT DWORD USE32 PUBLIC 'DATA'
_DATA	ENDS
;	COMDAT ??_R3?$ctype@_W@std@@8
rdata$r	SEGMENT DWORD USE32 PUBLIC 'CONST'
rdata$r	ENDS
;	COMDAT ??_R2?$ctype@_W@std@@8
rdata$r	SEGMENT DWORD USE32 PUBLIC 'CONST'
rdata$r	ENDS
;	COMDAT ??_R1A@?0A@A@?$ctype@_W@std@@8
rdata$r	SEGMENT DWORD USE32 PUBLIC 'CONST'
rdata$r	ENDS
;	COMDAT ??_R1A@?0A@A@ctype_base@std@@8
rdata$r	SEGMENT DWORD USE32 PUBLIC 'CONST'
rdata$r	ENDS
;	COMDAT ??_R0?AUctype_base@std@@@8
_DATA	SEGMENT DWORD USE32 PUBLIC 'DATA'
_DATA	ENDS
;	COMDAT ??_G?$ctype@_W@std@@MAEPAXI@Z
_TEXT	SEGMENT PARA USE32 PUBLIC 'CODE'
_TEXT	ENDS
;	COMDAT ??_C@_08EPJLHIJG@bad?5cast?$AA@
CONST	SEGMENT DWORD USE32 PUBLIC 'CONST'
CONST	ENDS
;	COMDAT __TI2?AVbad_cast@@
xdata$x	SEGMENT DWORD USE32 PUBLIC 'CONST'
xdata$x	ENDS
;	COMDAT __CTA2?AVbad_cast@@
xdata$x	SEGMENT DWORD USE32 PUBLIC 'CONST'
xdata$x	ENDS
;	COMDAT __CT??_R0?AVbad_cast@@@8??0bad_cast@@QAE@ABV0@@Z12
xdata$x	SEGMENT DWORD USE32 PUBLIC 'CONST'
xdata$x	ENDS
;	COMDAT ??_R0?AVbad_cast@@@8
_DATA	SEGMENT DWORD USE32 PUBLIC 'DATA'
_DATA	ENDS
;	COMDAT __CT??_R0?AVexception@@@8??0exception@@QAE@ABV0@@Z12
xdata$x	SEGMENT DWORD USE32 PUBLIC 'CONST'
xdata$x	ENDS
;	COMDAT ??_R0?AVexception@@@8
_DATA	SEGMENT DWORD USE32 PUBLIC 'DATA'
_DATA	ENDS
;	COMDAT ??$_DebugHeapDelete@Vfacet@locale@std@@@std@@YAXPAVfacet@locale@0@@Z
_TEXT	SEGMENT PARA USE32 PUBLIC 'CODE'
_TEXT	ENDS
;	COMDAT ??$use_facet@V?$ctype@D@std@@@std@@YAABV?$ctype@D@0@ABVlocale@0@@Z
_TEXT	SEGMENT PARA USE32 PUBLIC 'CODE'
_TEXT	ENDS
;	COMDAT ??_S?$ctype@D@std@@6B@
CONST	SEGMENT DWORD USE32 PUBLIC 'CONST'
CONST	ENDS
;	COMDAT ??_R4?$ctype@D@std@@6B@
rdata$r	SEGMENT DWORD USE32 PUBLIC 'CONST'
rdata$r	ENDS
;	COMDAT ??_R0?AV?$ctype@D@std@@@8
_DATA	SEGMENT DWORD USE32 PUBLIC 'DATA'
_DATA	ENDS
;	COMDAT ??_R3?$ctype@D@std@@8
rdata$r	SEGMENT DWORD USE32 PUBLIC 'CONST'
rdata$r	ENDS
;	COMDAT ??_R2?$ctype@D@std@@8
rdata$r	SEGMENT DWORD USE32 PUBLIC 'CONST'
rdata$r	ENDS
;	COMDAT ??_R1A@?0A@A@?$ctype@D@std@@8
rdata$r	SEGMENT DWORD USE32 PUBLIC 'CONST'
rdata$r	ENDS
;	COMDAT ??_G?$ctype@D@std@@MAEPAXI@Z
_TEXT	SEGMENT PARA USE32 PUBLIC 'CODE'
_TEXT	ENDS
;	COMDAT ??_S?$numpunct@_W@std@@6B@
CONST	SEGMENT DWORD USE32 PUBLIC 'CONST'
CONST	ENDS
;	COMDAT ??_S?$numpunct@D@std@@6B@
CONST	SEGMENT DWORD USE32 PUBLIC 'CONST'
CONST	ENDS
;	COMDAT _wmemmove
_TEXT	SEGMENT PARA USE32 PUBLIC 'CODE'
_TEXT	ENDS
;	COMDAT ?deallocate@?$allocator@_W@std@@QAEXPA_WI@Z
_TEXT	SEGMENT PARA USE32 PUBLIC 'CODE'
_TEXT	ENDS
;	COMDAT ??0?$allocator@_W@std@@QAE@ABV01@@Z
_TEXT	SEGMENT PARA USE32 PUBLIC 'CODE'
_TEXT	ENDS
;	COMDAT ?Release@CStringData@ATL@@QAEXXZ
_TEXT	SEGMENT PARA USE32 PUBLIC 'CODE'
_TEXT	ENDS
;	COMDAT ??_C@_0L@OIIMFBNE@nRefs?5?$CB?$DN?50?$AA@
CONST	SEGMENT DWORD USE32 PUBLIC 'CONST'
CONST	ENDS
;	COMDAT ??_C@_0FJ@DMHPDOJC@D?3?2Program?5Files?5?$CIx86?$CJ?2Microsoft@
CONST	SEGMENT DWORD USE32 PUBLIC 'CONST'
CONST	ENDS
;	COMDAT ??_C@_0BA@GOIMFHNK@pStringMgr?5?$CB?$DN?50?$AA@
CONST	SEGMENT DWORD USE32 PUBLIC 'CONST'
CONST	ENDS
;	COMDAT ?data@CStringData@ATL@@QAEPAXXZ
_TEXT	SEGMENT PARA USE32 PUBLIC 'CODE'
_TEXT	ENDS
;	COMDAT ?GetDefaultManager@?$StrTraitMFC_DLL@DV?$ChTraitsCRT@D@ATL@@@@SAPAUIAtlStringMgr@ATL@@XZ
_TEXT	SEGMENT PARA USE32 PUBLIC 'CODE'
_TEXT	ENDS
;	COMDAT ?FindStringResourceInstance@?$StrTraitMFC_DLL@DV?$ChTraitsCRT@D@ATL@@@@SAPAUHINSTANCE__@@I@Z
_TEXT	SEGMENT PARA USE32 PUBLIC 'CODE'
_TEXT	ENDS
;	COMDAT ?AtlGetStringResourceImage@ATL@@YAPBUATLSTRINGRESOURCEIMAGE@1@PAUHINSTANCE__@@I@Z
_TEXT	SEGMENT PARA USE32 PUBLIC 'CODE'
_TEXT	ENDS
;	COMDAT ?_AtlGetStringResourceImage@ATL@@YAPBUATLSTRINGRESOURCEIMAGE@1@PAUHINSTANCE__@@PAUHRSRC__@@I@Z
_TEXT	SEGMENT PARA USE32 PUBLIC 'CODE'
_TEXT	ENDS
;	COMDAT ?GetBaseTypeLength@?$ChTraitsCRT@D@ATL@@SAHPB_WH@Z
_TEXT	SEGMENT PARA USE32 PUBLIC 'CODE'
_TEXT	ENDS
;	COMDAT ?_AtlGetConversionACP@ATL@@YGIXZ
_TEXT	SEGMENT PARA USE32 PUBLIC 'CODE'
_TEXT	ENDS
;	COMDAT ?g_pfnGetThreadACP@ATL@@3P6GIXZA
_DATA	SEGMENT DWORD USE32 PUBLIC 'DATA'
_DATA	ENDS
;	COMDAT ?_AtlGetThreadACPThunk@ATL@@YGIXZ
_TEXT	SEGMENT PARA USE32 PUBLIC 'CODE'
_TEXT	ENDS
;	COMDAT ?_AtlGetThreadACPReal@ATL@@YGIXZ
_TEXT	SEGMENT PARA USE32 PUBLIC 'CODE'
_TEXT	ENDS
;	COMDAT ?_AtlGetThreadACPFake@ATL@@YGIXZ
_TEXT	SEGMENT PARA USE32 PUBLIC 'CODE'
_TEXT	ENDS
;	COMDAT ?InterlockedExchangePointer@@YGPAXPAPAXPAX@Z
_TEXT	SEGMENT PARA USE32 PUBLIC 'CODE'
_TEXT	ENDS
;	COMDAT ?IsShared@CStringData@ATL@@QBE_NXZ
_TEXT	SEGMENT PARA USE32 PUBLIC 'CODE'
_TEXT	ENDS
;	COMDAT ?AtlThrow@ATL@@YGXJ@Z
_TEXT	SEGMENT PARA USE32 PUBLIC 'CODE'
_TEXT	ENDS
;	COMDAT ??_C@_0FI@NHHJANPC@D?3?2Program?5Files?5?$CIx86?$CJ?2Microsoft@
CONST	SEGMENT DWORD USE32 PUBLIC 'CONST'
CONST	ENDS
;	COMDAT ??_C@_0BF@IAAKIJDJ@AtlThrow?3?5hr?5?$DN?50x?$CFx?6?$AA@
CONST	SEGMENT DWORD USE32 PUBLIC 'CONST'
CONST	ENDS
;	COMDAT ??_C@_0CB@GFHAPKDK@pOldData?9?$DOnAllocLength?5?$DM?5nLength@
CONST	SEGMENT DWORD USE32 PUBLIC 'CONST'
CONST	ENDS
;	COMDAT ?ConvertToBaseType@?$ChTraitsCRT@D@ATL@@SAXPADHPB_WH@Z
_TEXT	SEGMENT PARA USE32 PUBLIC 'CODE'
_TEXT	ENDS
;	COMDAT ??_C@_0BA@GNIEOBOF@nNewLength?5?$DO?$DN?50?$AA@
CONST	SEGMENT DWORD USE32 PUBLIC 'CONST'
CONST	ENDS
;	COMDAT ??_C@_0N@ILOMLJGA@nLength?5?$DO?$DN?50?$AA@
CONST	SEGMENT DWORD USE32 PUBLIC 'CONST'
CONST	ENDS
;	COMDAT ??_C@_0CD@EEFFJEGJ@nLength?5?$DM?$DN?5GetData?$CI?$CJ?9?$DOnAllocLeng@
CONST	SEGMENT DWORD USE32 PUBLIC 'CONST'
CONST	ENDS
;	COMDAT ??RCTraceFileAndLineInfo@ATL@@QBAXKIPBDZZ
_TEXT	SEGMENT PARA USE32 PUBLIC 'CODE'
_TEXT	ENDS
;	COMDAT ?TraceV@CTrace@ATL@@QBAXPBDHKI0PAD@Z
_TEXT	SEGMENT PARA USE32 PUBLIC 'CODE'
_TEXT	ENDS
;	COMDAT ??0CTraceFileAndLineInfo@ATL@@QAE@PBDH@Z
_TEXT	SEGMENT PARA USE32 PUBLIC 'CODE'
_TEXT	ENDS
;	COMDAT ??_C@_0FH@KDPNIMBO@D?3?2Program?5Files?5?$CIx86?$CJ?2Microsoft@
CONST	SEGMENT DWORD USE32 PUBLIC 'CONST'
CONST	ENDS
;	COMDAT ??_C@_0CJ@FJEKGMMD@Warning?3?5implicit?5LoadString?$CI?$CFu?$CJ@
CONST	SEGMENT DWORD USE32 PUBLIC 'CONST'
CONST	ENDS
;	COMDAT ??BCTraceCategory@ATL@@QBEKXZ
_TEXT	SEGMENT PARA USE32 PUBLIC 'CODE'
_TEXT	ENDS
;	COMDAT ?IsLocked@CStringData@ATL@@QBE_NXZ
_TEXT	SEGMENT PARA USE32 PUBLIC 'CODE'
_TEXT	ENDS
;	COMDAT ?s_pt@?1??OnMouseMove@CMyHeaderCtrl@@QAEXIVCPoint@@@Z@4V3@A
_BSS	SEGMENT DWORD USE32 PUBLIC 'BSS'
_BSS	ENDS
;	COMDAT ?$S5@?1??OnMouseMove@CMyHeaderCtrl@@QAEXIVCPoint@@@Z@4IA
_BSS	SEGMENT DWORD USE32 PUBLIC 'BSS'
_BSS	ENDS
;	COMDAT ?_messageEntries@CMyHeaderCtrl@@0QBUAFX_MSGMAP_ENTRY@@B
CONST	SEGMENT DWORD USE32 PUBLIC 'CONST'
CONST	ENDS
;	COMDAT ?messageMap@CMyHeaderCtrl@@1UAFX_MSGMAP@@B
CONST	SEGMENT DWORD USE32 PUBLIC 'CONST'
CONST	ENDS
;	COMDAT ??_7CMyHeaderCtrl@@6B@
CONST	SEGMENT DWORD USE32 PUBLIC 'CONST'
CONST	ENDS
;	COMDAT ?classCMyHeaderCtrl@CMyHeaderCtrl@@2UCRuntimeClass@@B
CONST	SEGMENT DWORD USE32 PUBLIC 'CONST'
CONST	ENDS
;	COMDAT ??_C@_00CNPNBAHC@?$AA@
CONST	SEGMENT DWORD USE32 PUBLIC 'CONST'
CONST	ENDS
;	COMDAT ??0?$allocator@D@std@@QAE@ABV01@@Z
_TEXT	SEGMENT PARA USE32 PUBLIC 'CODE'
_TEXT	ENDS
;	COMDAT ??0?$allocator@D@std@@QAE@XZ
_TEXT	SEGMENT PARA USE32 PUBLIC 'CODE'
_TEXT	ENDS
sxdata	SEGMENT DWORD USE32 'SXDATA'
sxdata	ENDS
FLAT	GROUP _DATA, CONST, _BSS
	ASSUME	CS: FLAT, DS: FLAT, SS: FLAT
endif

INCLUDELIB MSVCRTD
INCLUDELIB OLDNAMES

PUBLIC	?g_pfnGetThreadACP@ATL@@3P6GIXZA		; ATL::g_pfnGetThreadACP
PUBLIC	?_AtlGetThreadACPThunk@ATL@@YGIXZ		; ATL::_AtlGetThreadACPThunk
PUBLIC	?classCMyHeaderCtrl@CMyHeaderCtrl@@2UCRuntimeClass@@B ; CMyHeaderCtrl::classCMyHeaderCtrl
PUBLIC	?_messageEntries@CMyHeaderCtrl@@0QBUAFX_MSGMAP_ENTRY@@B ; CMyHeaderCtrl::_messageEntries
PUBLIC	?messageMap@CMyHeaderCtrl@@1UAFX_MSGMAP@@B	; CMyHeaderCtrl::messageMap
PUBLIC	?OnPaint@CMyHeaderCtrl@@QAEXXZ			; CMyHeaderCtrl::OnPaint
PUBLIC	?OnCreate@CMyHeaderCtrl@@QAEHPAUtagCREATESTRUCTA@@@Z ; CMyHeaderCtrl::OnCreate
PUBLIC	?OnEraseBkgnd@CMyHeaderCtrl@@QAEHPAVCDC@@@Z	; CMyHeaderCtrl::OnEraseBkgnd
PUBLIC	?OnMouseLeave@CMyHeaderCtrl@@QAEJIJ@Z		; CMyHeaderCtrl::OnMouseLeave
PUBLIC	?OnMouseMove@CMyHeaderCtrl@@QAEXIVCPoint@@@Z	; CMyHeaderCtrl::OnMouseMove
PUBLIC	?OnLButtonDown@CMyHeaderCtrl@@QAEXIVCPoint@@@Z	; CMyHeaderCtrl::OnLButtonDown
PUBLIC	?OnLButtonUp@CMyHeaderCtrl@@QAEXIVCPoint@@@Z	; CMyHeaderCtrl::OnLButtonUp
PUBLIC	?OnLayOut@CMyHeaderCtrl@@QAEJIJ@Z		; CMyHeaderCtrl::OnLayOut
EXTRN	?GetThisClass@CHeaderCtrl@@SGPAUCRuntimeClass@@XZ:NEAR ; CHeaderCtrl::GetThisClass
EXTRN	?GetThisMessageMap@CWnd@@KGPBUAFX_MSGMAP@@XZ:NEAR ; CWnd::GetThisMessageMap
CONST	SEGMENT
$SG188086 DB	'CMyHeaderCtrl', 00H
CONST	ENDS
;	COMDAT ?classCMyHeaderCtrl@CMyHeaderCtrl@@2UCRuntimeClass@@B
CONST	SEGMENT
?classCMyHeaderCtrl@CMyHeaderCtrl@@2UCRuntimeClass@@B DD FLAT:$SG188086 ; CMyHeaderCtrl::classCMyHeaderCtrl
	DD	088H
	DD	0ffffH
	DD	00H
	DD	FLAT:?GetThisClass@CHeaderCtrl@@SGPAUCRuntimeClass@@XZ
	DD	00H
	DD	00H
CONST	ENDS
;	COMDAT ?_messageEntries@CMyHeaderCtrl@@0QBUAFX_MSGMAP_ENTRY@@B
CONST	SEGMENT
?_messageEntries@CMyHeaderCtrl@@0QBUAFX_MSGMAP_ENTRY@@B DD 01H ; CMyHeaderCtrl::_messageEntries
	DD	00H
	DD	00H
	DD	00H
	DD	0dH
	DD	FLAT:?OnCreate@CMyHeaderCtrl@@QAEHPAUtagCREATESTRUCTA@@@Z
	DD	0fH
	DD	00H
	DD	00H
	DD	00H
	DD	010H
	DD	FLAT:?OnPaint@CMyHeaderCtrl@@QAEXXZ
	DD	0200H
	DD	00H
	DD	00H
	DD	00H
	DD	032H
	DD	FLAT:?OnMouseMove@CMyHeaderCtrl@@QAEXIVCPoint@@@Z
	DD	0202H
	DD	00H
	DD	00H
	DD	00H
	DD	032H
	DD	FLAT:?OnLButtonUp@CMyHeaderCtrl@@QAEXIVCPoint@@@Z
	DD	0201H
	DD	00H
	DD	00H
	DD	00H
	DD	032H
	DD	FLAT:?OnLButtonDown@CMyHeaderCtrl@@QAEXIVCPoint@@@Z
	DD	02a3H
	DD	00H
	DD	00H
	DD	00H
	DD	0eH
	DD	FLAT:?OnMouseLeave@CMyHeaderCtrl@@QAEJIJ@Z
	DD	014H
	DD	00H
	DD	00H
	DD	00H
	DD	01H
	DD	FLAT:?OnEraseBkgnd@CMyHeaderCtrl@@QAEHPAVCDC@@@Z
	DD	01205H
	DD	00H
	DD	00H
	DD	00H
	DD	0eH
	DD	FLAT:?OnLayOut@CMyHeaderCtrl@@QAEJIJ@Z
	DD	00H
	DD	00H
	DD	00H
	DD	00H
	DD	00H
	DD	00H
CONST	ENDS
;	COMDAT ?messageMap@CMyHeaderCtrl@@1UAFX_MSGMAP@@B
CONST	SEGMENT
?messageMap@CMyHeaderCtrl@@1UAFX_MSGMAP@@B DD FLAT:?GetThisMessageMap@CWnd@@KGPBUAFX_MSGMAP@@XZ ; CMyHeaderCtrl::messageMap
	DD	FLAT:?_messageEntries@CMyHeaderCtrl@@0QBUAFX_MSGMAP_ENTRY@@B
CONST	ENDS
CONST	SEGMENT
	ORG $+2
$SG188160 DB	0cbH, 0ceH, 0ccH, 0e5H, 00H
	ORG $+3
$SG188192 DB	0cbH, 0ceH, 0ccH, 0e5H, 00H
	ORG $+3
$SG188201 DB	'ListHeaderBK', 00H
	ORG $+3
$SG188202 DB	'ListHeaderMidLine', 00H
	ORG $+2
$SG188203 DB	'ListHeaderBK', 00H
	ORG $+3
$SG188218 DB	0cbH, 0ceH, 0ccH, 0e5H, 00H
CONST	ENDS
;	COMDAT ?g_pfnGetThreadACP@ATL@@3P6GIXZA
_DATA	SEGMENT
?g_pfnGetThreadACP@ATL@@3P6GIXZA DD FLAT:?_AtlGetThreadACPThunk@ATL@@YGIXZ ; ATL::g_pfnGetThreadACP
_DATA	ENDS
PUBLIC	?GetThisClass@CMyHeaderCtrl@@SGPAUCRuntimeClass@@XZ ; CMyHeaderCtrl::GetThisClass
EXTRN	__RTC_InitBase:NEAR
EXTRN	__RTC_Shutdown:NEAR
;	COMDAT rtc$IMZ
; File d:\boxgit\playbox\playbox\dev\prj\playbox\src\gui\commoncontrol\myheaderctrl.cpp
rtc$IMZ	SEGMENT
__RTC_InitBase.rtc$IMZ DD FLAT:__RTC_InitBase
rtc$IMZ	ENDS
;	COMDAT rtc$TMZ
rtc$TMZ	SEGMENT
__RTC_Shutdown.rtc$TMZ DD FLAT:__RTC_Shutdown
; Function compile flags: /Odt /RTCsu
rtc$TMZ	ENDS
_TEXT	SEGMENT
?GetThisClass@CMyHeaderCtrl@@SGPAUCRuntimeClass@@XZ PROC NEAR ; CMyHeaderCtrl::GetThisClass

; 11   : IMPLEMENT_DYNAMIC(CMyHeaderCtrl, CHeaderCtrl)

  00000	55		 push	 ebp
  00001	8b ec		 mov	 ebp, esp
  00003	b8 00 00 00 00	 mov	 eax, OFFSET FLAT:?classCMyHeaderCtrl@CMyHeaderCtrl@@2UCRuntimeClass@@B ; CMyHeaderCtrl::classCMyHeaderCtrl
  00008	5d		 pop	 ebp
  00009	c3		 ret	 0
?GetThisClass@CMyHeaderCtrl@@SGPAUCRuntimeClass@@XZ ENDP ; CMyHeaderCtrl::GetThisClass
_TEXT	ENDS
PUBLIC	?GetRuntimeClass@CMyHeaderCtrl@@UBEPAUCRuntimeClass@@XZ ; CMyHeaderCtrl::GetRuntimeClass
; Function compile flags: /Odt /RTCsu
_TEXT	SEGMENT
_this$ = -4						; size = 4
?GetRuntimeClass@CMyHeaderCtrl@@UBEPAUCRuntimeClass@@XZ PROC NEAR ; CMyHeaderCtrl::GetRuntimeClass
; _this$ = ecx

; 11   : IMPLEMENT_DYNAMIC(CMyHeaderCtrl, CHeaderCtrl)

  00010	55		 push	 ebp
  00011	8b ec		 mov	 ebp, esp
  00013	51		 push	 ecx
  00014	c7 45 fc cc cc
	cc cc		 mov	 DWORD PTR [ebp-4], -858993460 ; ccccccccH
  0001b	89 4d fc	 mov	 DWORD PTR _this$[ebp], ecx
  0001e	b8 00 00 00 00	 mov	 eax, OFFSET FLAT:?classCMyHeaderCtrl@CMyHeaderCtrl@@2UCRuntimeClass@@B ; CMyHeaderCtrl::classCMyHeaderCtrl
  00023	8b e5		 mov	 esp, ebp
  00025	5d		 pop	 ebp
  00026	c3		 ret	 0
?GetRuntimeClass@CMyHeaderCtrl@@UBEPAUCRuntimeClass@@XZ ENDP ; CMyHeaderCtrl::GetRuntimeClass
_TEXT	ENDS
PUBLIC	??_R4CMyHeaderCtrl@@6B@				; CMyHeaderCtrl::`RTTI Complete Object Locator'
PUBLIC	??_R0?AVCMyHeaderCtrl@@@8			; CMyHeaderCtrl `RTTI Type Descriptor'
PUBLIC	??_R3CMyHeaderCtrl@@8				; CMyHeaderCtrl::`RTTI Class Hierarchy Descriptor'
PUBLIC	??_R2CMyHeaderCtrl@@8				; CMyHeaderCtrl::`RTTI Base Class Array'
PUBLIC	??_R1A@?0A@A@CMyHeaderCtrl@@8			; CMyHeaderCtrl::`RTTI Base Class Descriptor at (0,-1,0,0)'
PUBLIC	??_R1A@?0A@A@CHeaderCtrl@@8			; CHeaderCtrl::`RTTI Base Class Descriptor at (0,-1,0,0)'
PUBLIC	??_R0?AVCHeaderCtrl@@@8				; CHeaderCtrl `RTTI Type Descriptor'
PUBLIC	??_R1A@?0A@A@CWnd@@8				; CWnd::`RTTI Base Class Descriptor at (0,-1,0,0)'
PUBLIC	??_R0?AVCWnd@@@8				; CWnd `RTTI Type Descriptor'
PUBLIC	??_R1A@?0A@A@CCmdTarget@@8			; CCmdTarget::`RTTI Base Class Descriptor at (0,-1,0,0)'
PUBLIC	??_R0?AVCCmdTarget@@@8				; CCmdTarget `RTTI Type Descriptor'
PUBLIC	??_R1A@?0A@A@CObject@@8				; CObject::`RTTI Base Class Descriptor at (0,-1,0,0)'
PUBLIC	??_R0?AVCObject@@@8				; CObject `RTTI Type Descriptor'
PUBLIC	??0CMyHeaderCtrl@@QAE@XZ			; CMyHeaderCtrl::CMyHeaderCtrl
PUBLIC	?SubclassWindow@CMyHeaderCtrl@@UAEHPAUHWND__@@@Z ; CMyHeaderCtrl::SubclassWindow
PUBLIC	?GetMessageMap@CMyHeaderCtrl@@MBEPBUAFX_MSGMAP@@XZ ; CMyHeaderCtrl::GetMessageMap
PUBLIC	??_7CMyHeaderCtrl@@6B@				; CMyHeaderCtrl::`vftable'
PUBLIC	??_GCMyHeaderCtrl@@UAEPAXI@Z			; CMyHeaderCtrl::`scalar deleting destructor'
EXTRN	?GetInterfaceMap@CWnd@@MBEPBUAFX_INTERFACEMAP@@XZ:NEAR ; CWnd::GetInterfaceMap
EXTRN	?EnsureStdObj@CWnd@@UAEJXZ:NEAR			; CWnd::EnsureStdObj
EXTRN	?get_accParent@CWnd@@UAEJPAPAUIDispatch@@@Z:NEAR ; CWnd::get_accParent
EXTRN	?OnCmdMsg@CCmdTarget@@UAEHIHPAXPAUAFX_CMDHANDLERINFO@@@Z:NEAR ; CCmdTarget::OnCmdMsg
EXTRN	?get_accChildCount@CWnd@@UAEJPAJ@Z:NEAR		; CWnd::get_accChildCount
EXTRN	?IsInvokeAllowed@CCmdTarget@@UAEHJ@Z:NEAR	; CCmdTarget::IsInvokeAllowed
EXTRN	?get_accChild@CWnd@@UAEJUtagVARIANT@@PAPAUIDispatch@@@Z:NEAR ; CWnd::get_accChild
EXTRN	?get_accName@CWnd@@UAEJUtagVARIANT@@PAPA_W@Z:NEAR ; CWnd::get_accName
EXTRN	?get_accValue@CWnd@@UAEJUtagVARIANT@@PAPA_W@Z:NEAR ; CWnd::get_accValue
EXTRN	?GetDispatchIID@CCmdTarget@@UAEHPAU_GUID@@@Z:NEAR ; CCmdTarget::GetDispatchIID
EXTRN	?GetTypeInfoCount@CCmdTarget@@UAEIXZ:NEAR	; CCmdTarget::GetTypeInfoCount
EXTRN	?GetTypeLibCache@CCmdTarget@@UAEPAVCTypeLibCache@@XZ:NEAR ; CCmdTarget::GetTypeLibCache
EXTRN	?get_accDescription@CWnd@@UAEJUtagVARIANT@@PAPA_W@Z:NEAR ; CWnd::get_accDescription
EXTRN	?GetTypeLib@CCmdTarget@@UAEJKPAPAUITypeLib@@@Z:NEAR ; CCmdTarget::GetTypeLib
EXTRN	?get_accRole@CWnd@@UAEJUtagVARIANT@@PAU2@@Z:NEAR ; CWnd::get_accRole
EXTRN	?get_accState@CWnd@@UAEJUtagVARIANT@@PAU2@@Z:NEAR ; CWnd::get_accState
EXTRN	?get_accHelp@CWnd@@UAEJUtagVARIANT@@PAPA_W@Z:NEAR ; CWnd::get_accHelp
EXTRN	?get_accHelpTopic@CWnd@@UAEJPAPA_WUtagVARIANT@@PAJ@Z:NEAR ; CWnd::get_accHelpTopic
EXTRN	?get_accKeyboardShortcut@CWnd@@UAEJUtagVARIANT@@PAPA_W@Z:NEAR ; CWnd::get_accKeyboardShortcut
EXTRN	?get_accFocus@CWnd@@UAEJPAUtagVARIANT@@@Z:NEAR	; CWnd::get_accFocus
EXTRN	?get_accSelection@CWnd@@UAEJPAUtagVARIANT@@@Z:NEAR ; CWnd::get_accSelection
EXTRN	?get_accDefaultAction@CWnd@@UAEJUtagVARIANT@@PAPA_W@Z:NEAR ; CWnd::get_accDefaultAction
EXTRN	?GetCommandMap@CCmdTarget@@MBEPBUAFX_OLECMDMAP@@XZ:NEAR ; CCmdTarget::GetCommandMap
EXTRN	?accSelect@CWnd@@UAEJJUtagVARIANT@@@Z:NEAR	; CWnd::accSelect
EXTRN	?accLocation@CWnd@@UAEJPAJ000UtagVARIANT@@@Z:NEAR ; CWnd::accLocation
EXTRN	?GetDispatchMap@CCmdTarget@@MBEPBUAFX_DISPMAP@@XZ:NEAR ; CCmdTarget::GetDispatchMap
EXTRN	?accNavigate@CWnd@@UAEJJUtagVARIANT@@PAU2@@Z:NEAR ; CWnd::accNavigate
EXTRN	?accHitTest@CWnd@@UAEJJJPAUtagVARIANT@@@Z:NEAR	; CWnd::accHitTest
EXTRN	?GetConnectionMap@CCmdTarget@@MBEPBUAFX_CONNECTIONMAP@@XZ:NEAR ; CCmdTarget::GetConnectionMap
EXTRN	?accDoDefaultAction@CWnd@@UAEJUtagVARIANT@@@Z:NEAR ; CWnd::accDoDefaultAction
EXTRN	?put_accName@CWnd@@UAEJUtagVARIANT@@PA_W@Z:NEAR	; CWnd::put_accName
EXTRN	?put_accValue@CWnd@@UAEJUtagVARIANT@@PA_W@Z:NEAR ; CWnd::put_accValue
EXTRN	?SetProxy@CWnd@@UAEJPAUIAccessibleProxy@@@Z:NEAR ; CWnd::SetProxy
EXTRN	?CreateAccessibleProxy@CWnd@@UAEJIJPAJ@Z:NEAR	; CWnd::CreateAccessibleProxy
EXTRN	?GetEventSinkMap@CCmdTarget@@MBEPBUAFX_EVENTSINKMAP@@XZ:NEAR ; CCmdTarget::GetEventSinkMap
EXTRN	?OnCreateAggregates@CCmdTarget@@UAEHXZ:NEAR	; CCmdTarget::OnCreateAggregates
EXTRN	?OnCommand@CWnd@@MAEHIJ@Z:NEAR			; CWnd::OnCommand
EXTRN	?GetInterfaceHook@CCmdTarget@@UAEPAUIUnknown@@PBX@Z:NEAR ; CCmdTarget::GetInterfaceHook
EXTRN	?OnNotify@CWnd@@MAEHIJPAJ@Z:NEAR		; CWnd::OnNotify
EXTRN	?GetExtraConnectionPoints@CCmdTarget@@MAEHPAVCPtrArray@@@Z:NEAR ; CCmdTarget::GetExtraConnectionPoints
EXTRN	?GetConnectionHook@CCmdTarget@@MAEPAUIConnectionPoint@@ABU_GUID@@@Z:NEAR ; CCmdTarget::GetConnectionHook
EXTRN	__except_list:DWORD
EXTRN	__RTC_CheckEsp:NEAR
EXTRN	___CxxFrameHandler:NEAR
EXTRN	??0CFont@@QAE@XZ:NEAR				; CFont::CFont
EXTRN	?PreSubclassWindow@CWnd@@UAEXXZ:NEAR		; CWnd::PreSubclassWindow
EXTRN	?Create@CWnd@@UAEHPBD0KABUtagRECT@@PAV1@IPAUCCreateContext@@@Z:NEAR ; CWnd::Create
EXTRN	?CreateEx@CWnd@@UAEHKPBD0KHHHHPAUHWND__@@PAUHMENU__@@PAX@Z:NEAR ; CWnd::CreateEx
EXTRN	?CreateEx@CWnd@@UAEHKPBD0KABUtagRECT@@PAV1@IPAX@Z:NEAR ; CWnd::CreateEx
EXTRN	?Serialize@CObject@@UAEXAAVCArchive@@@Z:NEAR	; CObject::Serialize
EXTRN	?DestroyWindow@CWnd@@UAEHXZ:NEAR		; CWnd::DestroyWindow
EXTRN	?PreCreateWindow@CWnd@@UAEHAAUtagCREATESTRUCTA@@@Z:NEAR ; CWnd::PreCreateWindow
EXTRN	?CalcWindowRect@CWnd@@UAEXPAUtagRECT@@I@Z:NEAR	; CWnd::CalcWindowRect
EXTRN	??0CHeaderCtrl@@QAE@XZ:NEAR			; CHeaderCtrl::CHeaderCtrl
EXTRN	?Create@CHeaderCtrl@@UAEHKABUtagRECT@@PAVCWnd@@I@Z:NEAR ; CHeaderCtrl::Create
EXTRN	?CreateEx@CHeaderCtrl@@UAEHKKABUtagRECT@@PAVCWnd@@I@Z:NEAR ; CHeaderCtrl::CreateEx
EXTRN	?GetSuperWndProcAddr@CWnd@@MAEPAP6GJPAUHWND__@@IIJ@ZXZ:NEAR ; CWnd::GetSuperWndProcAddr
EXTRN	?DoDataExchange@CWnd@@MAEXPAVCDataExchange@@@Z:NEAR ; CWnd::DoDataExchange
EXTRN	?BeginModalState@CWnd@@UAEXXZ:NEAR		; CWnd::BeginModalState
EXTRN	?EndModalState@CWnd@@UAEXXZ:NEAR		; CWnd::EndModalState
EXTRN	?PreTranslateMessage@CWnd@@UAEHPAUtagMSG@@@Z:NEAR ; CWnd::PreTranslateMessage
EXTRN	?OnAmbientProperty@CWnd@@UAEHPAVCOleControlSite@@JPAUtagVARIANT@@@Z:NEAR ; CWnd::OnAmbientProperty
EXTRN	?WindowProc@CWnd@@MAEJIIJ@Z:NEAR		; CWnd::WindowProc
EXTRN	?OnWndMsg@CWnd@@MAEHIIJPAJ@Z:NEAR		; CWnd::OnWndMsg
EXTRN	?DefWindowProcA@CWnd@@MAEJIIJ@Z:NEAR		; CWnd::DefWindowProcA
EXTRN	?PostNcDestroy@CWnd@@MAEXXZ:NEAR		; CWnd::PostNcDestroy
EXTRN	?DrawItem@CHeaderCtrl@@UAEXPAUtagDRAWITEMSTRUCT@@@Z:NEAR ; CHeaderCtrl::DrawItem
EXTRN	??1CHeaderCtrl@@UAE@XZ:NEAR			; CHeaderCtrl::~CHeaderCtrl
EXTRN	?OnChildNotify@CHeaderCtrl@@MAEHIIJPAJ@Z:NEAR	; CHeaderCtrl::OnChildNotify
EXTRN	?CheckAutoCenter@CWnd@@UAEHXZ:NEAR		; CWnd::CheckAutoCenter
EXTRN	?AssertValid@CWnd@@UBEXXZ:NEAR			; CWnd::AssertValid
EXTRN	?Dump@CWnd@@UBEXAAVCDumpContext@@@Z:NEAR	; CWnd::Dump
EXTRN	?IsFrameWnd@CWnd@@UBEHXZ:NEAR			; CWnd::IsFrameWnd
EXTRN	?OnFinalRelease@CWnd@@UAEXXZ:NEAR		; CWnd::OnFinalRelease
EXTRN	?CreateControlContainer@CWnd@@MAEHPAPAVCOleControlContainer@@@Z:NEAR ; CWnd::CreateControlContainer
EXTRN	?CreateControlSite@CWnd@@MAEHPAVCOleControlContainer@@PAPAVCOleControlSite@@IABU_GUID@@@Z:NEAR ; CWnd::CreateControlSite
EXTRN	?SetOccDialogInfo@CWnd@@MAEHPAU_AFX_OCC_DIALOG_INFO@@@Z:NEAR ; CWnd::SetOccDialogInfo
EXTRN	??_ECMyHeaderCtrl@@UAEPAXI@Z:NEAR		; CMyHeaderCtrl::`vector deleting destructor'
EXTRN	?OnToolHitTest@CWnd@@UBEHVCPoint@@PAUtagTOOLINFOA@@@Z:NEAR ; CWnd::OnToolHitTest
EXTRN	?GetScrollBarCtrl@CWnd@@UBEPAVCScrollBar@@H@Z:NEAR ; CWnd::GetScrollBarCtrl
EXTRN	?WinHelpA@CWnd@@UAEXKI@Z:NEAR			; CWnd::WinHelpA
EXTRN	?HtmlHelpA@CWnd@@UAEXKI@Z:NEAR			; CWnd::HtmlHelpA
EXTRN	??_7type_info@@6B@:QWORD			; type_info::`vftable'
EXTRN	?WinHelpInternal@CWnd@@UAEXKI@Z:NEAR		; CWnd::WinHelpInternal
EXTRN	?ContinueModal@CWnd@@UAEHXZ:NEAR		; CWnd::ContinueModal
EXTRN	?EndModalLoop@CWnd@@UAEXH@Z:NEAR		; CWnd::EndModalLoop
xdata$x	SEGMENT
$T188805 DD	0ffffffffH
	DD	FLAT:$L188796
$T188801 DD	019930520H
	DD	01H
	DD	FLAT:$T188805
	DD	2 DUP(00H)
	DD	2 DUP(00H)
xdata$x	ENDS
;	COMDAT ??_7CMyHeaderCtrl@@6B@
CONST	SEGMENT
??_7CMyHeaderCtrl@@6B@ DD FLAT:??_R4CMyHeaderCtrl@@6B@	; CMyHeaderCtrl::`vftable'
	DD	FLAT:?GetRuntimeClass@CMyHeaderCtrl@@UBEPAUCRuntimeClass@@XZ
	DD	FLAT:??_ECMyHeaderCtrl@@UAEPAXI@Z
	DD	FLAT:?Serialize@CObject@@UAEXAAVCArchive@@@Z
	DD	FLAT:?AssertValid@CWnd@@UBEXXZ
	DD	FLAT:?Dump@CWnd@@UBEXAAVCDumpContext@@@Z
	DD	FLAT:?OnCmdMsg@CCmdTarget@@UAEHIHPAXPAUAFX_CMDHANDLERINFO@@@Z
	DD	FLAT:?OnFinalRelease@CWnd@@UAEXXZ
	DD	FLAT:?IsInvokeAllowed@CCmdTarget@@UAEHJ@Z
	DD	FLAT:?GetDispatchIID@CCmdTarget@@UAEHPAU_GUID@@@Z
	DD	FLAT:?GetTypeInfoCount@CCmdTarget@@UAEIXZ
	DD	FLAT:?GetTypeLibCache@CCmdTarget@@UAEPAVCTypeLibCache@@XZ
	DD	FLAT:?GetTypeLib@CCmdTarget@@UAEJKPAPAUITypeLib@@@Z
	DD	FLAT:?GetMessageMap@CMyHeaderCtrl@@MBEPBUAFX_MSGMAP@@XZ
	DD	FLAT:?GetCommandMap@CCmdTarget@@MBEPBUAFX_OLECMDMAP@@XZ
	DD	FLAT:?GetDispatchMap@CCmdTarget@@MBEPBUAFX_DISPMAP@@XZ
	DD	FLAT:?GetConnectionMap@CCmdTarget@@MBEPBUAFX_CONNECTIONMAP@@XZ
	DD	FLAT:?GetInterfaceMap@CWnd@@MBEPBUAFX_INTERFACEMAP@@XZ
	DD	FLAT:?GetEventSinkMap@CCmdTarget@@MBEPBUAFX_EVENTSINKMAP@@XZ
	DD	FLAT:?OnCreateAggregates@CCmdTarget@@UAEHXZ
	DD	FLAT:?GetInterfaceHook@CCmdTarget@@UAEPAUIUnknown@@PBX@Z
	DD	FLAT:?GetExtraConnectionPoints@CCmdTarget@@MAEHPAVCPtrArray@@@Z
	DD	FLAT:?GetConnectionHook@CCmdTarget@@MAEPAUIConnectionPoint@@ABU_GUID@@@Z
	DD	FLAT:?PreSubclassWindow@CWnd@@UAEXXZ
	DD	FLAT:?Create@CWnd@@UAEHPBD0KABUtagRECT@@PAV1@IPAUCCreateContext@@@Z
	DD	FLAT:?CreateEx@CWnd@@UAEHKPBD0KABUtagRECT@@PAV1@IPAX@Z
	DD	FLAT:?CreateEx@CWnd@@UAEHKPBD0KHHHHPAUHWND__@@PAUHMENU__@@PAX@Z
	DD	FLAT:?DestroyWindow@CWnd@@UAEHXZ
	DD	FLAT:?PreCreateWindow@CWnd@@UAEHAAUtagCREATESTRUCTA@@@Z
	DD	FLAT:?CalcWindowRect@CWnd@@UAEXPAUtagRECT@@I@Z
	DD	FLAT:?OnToolHitTest@CWnd@@UBEHVCPoint@@PAUtagTOOLINFOA@@@Z
	DD	FLAT:?GetScrollBarCtrl@CWnd@@UBEPAVCScrollBar@@H@Z
	DD	FLAT:?WinHelpA@CWnd@@UAEXKI@Z
	DD	FLAT:?HtmlHelpA@CWnd@@UAEXKI@Z
	DD	FLAT:?WinHelpInternal@CWnd@@UAEXKI@Z
	DD	FLAT:?ContinueModal@CWnd@@UAEHXZ
	DD	FLAT:?EndModalLoop@CWnd@@UAEXH@Z
	DD	FLAT:?EnsureStdObj@CWnd@@UAEJXZ
	DD	FLAT:?get_accParent@CWnd@@UAEJPAPAUIDispatch@@@Z
	DD	FLAT:?get_accChildCount@CWnd@@UAEJPAJ@Z
	DD	FLAT:?get_accChild@CWnd@@UAEJUtagVARIANT@@PAPAUIDispatch@@@Z
	DD	FLAT:?get_accName@CWnd@@UAEJUtagVARIANT@@PAPA_W@Z
	DD	FLAT:?get_accValue@CWnd@@UAEJUtagVARIANT@@PAPA_W@Z
	DD	FLAT:?get_accDescription@CWnd@@UAEJUtagVARIANT@@PAPA_W@Z
	DD	FLAT:?get_accRole@CWnd@@UAEJUtagVARIANT@@PAU2@@Z
	DD	FLAT:?get_accState@CWnd@@UAEJUtagVARIANT@@PAU2@@Z
	DD	FLAT:?get_accHelp@CWnd@@UAEJUtagVARIANT@@PAPA_W@Z
	DD	FLAT:?get_accHelpTopic@CWnd@@UAEJPAPA_WUtagVARIANT@@PAJ@Z
	DD	FLAT:?get_accKeyboardShortcut@CWnd@@UAEJUtagVARIANT@@PAPA_W@Z
	DD	FLAT:?get_accFocus@CWnd@@UAEJPAUtagVARIANT@@@Z
	DD	FLAT:?get_accSelection@CWnd@@UAEJPAUtagVARIANT@@@Z
	DD	FLAT:?get_accDefaultAction@CWnd@@UAEJUtagVARIANT@@PAPA_W@Z
	DD	FLAT:?accSelect@CWnd@@UAEJJUtagVARIANT@@@Z
	DD	FLAT:?accLocation@CWnd@@UAEJPAJ000UtagVARIANT@@@Z
	DD	FLAT:?accNavigate@CWnd@@UAEJJUtagVARIANT@@PAU2@@Z
	DD	FLAT:?accHitTest@CWnd@@UAEJJJPAUtagVARIANT@@@Z
	DD	FLAT:?accDoDefaultAction@CWnd@@UAEJUtagVARIANT@@@Z
	DD	FLAT:?put_accName@CWnd@@UAEJUtagVARIANT@@PA_W@Z
	DD	FLAT:?put_accValue@CWnd@@UAEJUtagVARIANT@@PA_W@Z
	DD	FLAT:?SetProxy@CWnd@@UAEJPAUIAccessibleProxy@@@Z
	DD	FLAT:?CreateAccessibleProxy@CWnd@@UAEJIJPAJ@Z
	DD	FLAT:?OnCommand@CWnd@@MAEHIJ@Z
	DD	FLAT:?OnNotify@CWnd@@MAEHIJPAJ@Z
	DD	FLAT:?GetSuperWndProcAddr@CWnd@@MAEPAP6GJPAUHWND__@@IIJ@ZXZ
	DD	FLAT:?DoDataExchange@CWnd@@MAEXPAVCDataExchange@@@Z
	DD	FLAT:?BeginModalState@CWnd@@UAEXXZ
	DD	FLAT:?EndModalState@CWnd@@UAEXXZ
	DD	FLAT:?PreTranslateMessage@CWnd@@UAEHPAUtagMSG@@@Z
	DD	FLAT:?OnAmbientProperty@CWnd@@UAEHPAVCOleControlSite@@JPAUtagVARIANT@@@Z
	DD	FLAT:?WindowProc@CWnd@@MAEJIIJ@Z
	DD	FLAT:?OnWndMsg@CWnd@@MAEHIIJPAJ@Z
	DD	FLAT:?DefWindowProcA@CWnd@@MAEJIIJ@Z
	DD	FLAT:?PostNcDestroy@CWnd@@MAEXXZ
	DD	FLAT:?OnChildNotify@CHeaderCtrl@@MAEHIIJPAJ@Z
	DD	FLAT:?CheckAutoCenter@CWnd@@UAEHXZ
	DD	FLAT:?IsFrameWnd@CWnd@@UBEHXZ
	DD	FLAT:?CreateControlContainer@CWnd@@MAEHPAPAVCOleControlContainer@@@Z
	DD	FLAT:?CreateControlSite@CWnd@@MAEHPAVCOleControlContainer@@PAPAVCOleControlSite@@IABU_GUID@@@Z
	DD	FLAT:?SetOccDialogInfo@CWnd@@MAEHPAU_AFX_OCC_DIALOG_INFO@@@Z
	DD	FLAT:?Create@CHeaderCtrl@@UAEHKABUtagRECT@@PAVCWnd@@I@Z
	DD	FLAT:?CreateEx@CHeaderCtrl@@UAEHKKABUtagRECT@@PAVCWnd@@I@Z
	DD	FLAT:?DrawItem@CHeaderCtrl@@UAEXPAUtagDRAWITEMSTRUCT@@@Z
	DD	FLAT:?SubclassWindow@CMyHeaderCtrl@@UAEHPAUHWND__@@@Z
CONST	ENDS
;	COMDAT ??_R4CMyHeaderCtrl@@6B@
rdata$r	SEGMENT
??_R4CMyHeaderCtrl@@6B@ DD 00H				; CMyHeaderCtrl::`RTTI Complete Object Locator'
	DD	00H
	DD	00H
	DD	FLAT:??_R0?AVCMyHeaderCtrl@@@8
	DD	FLAT:??_R3CMyHeaderCtrl@@8
rdata$r	ENDS
;	COMDAT ??_R0?AVCMyHeaderCtrl@@@8
_DATA	SEGMENT
??_R0?AVCMyHeaderCtrl@@@8 DD FLAT:??_7type_info@@6B@	; CMyHeaderCtrl `RTTI Type Descriptor'
	DD	00H
	DB	'.?AVCMyHeaderCtrl@@', 00H
_DATA	ENDS
;	COMDAT ??_R3CMyHeaderCtrl@@8
rdata$r	SEGMENT
??_R3CMyHeaderCtrl@@8 DD 00H				; CMyHeaderCtrl::`RTTI Class Hierarchy Descriptor'
	DD	00H
	DD	05H
	DD	FLAT:??_R2CMyHeaderCtrl@@8
rdata$r	ENDS
;	COMDAT ??_R2CMyHeaderCtrl@@8
rdata$r	SEGMENT
??_R2CMyHeaderCtrl@@8 DD FLAT:??_R1A@?0A@A@CMyHeaderCtrl@@8 ; CMyHeaderCtrl::`RTTI Base Class Array'
	DD	FLAT:??_R1A@?0A@A@CHeaderCtrl@@8
	DD	FLAT:??_R1A@?0A@A@CWnd@@8
	DD	FLAT:??_R1A@?0A@A@CCmdTarget@@8
	DD	FLAT:??_R1A@?0A@A@CObject@@8
rdata$r	ENDS
;	COMDAT ??_R1A@?0A@A@CMyHeaderCtrl@@8
rdata$r	SEGMENT
??_R1A@?0A@A@CMyHeaderCtrl@@8 DD FLAT:??_R0?AVCMyHeaderCtrl@@@8 ; CMyHeaderCtrl::`RTTI Base Class Descriptor at (0,-1,0,0)'
	DD	04H
	DD	00H
	DD	0ffffffffH
	DD	00H
	DD	00H
rdata$r	ENDS
;	COMDAT ??_R1A@?0A@A@CHeaderCtrl@@8
rdata$r	SEGMENT
??_R1A@?0A@A@CHeaderCtrl@@8 DD FLAT:??_R0?AVCHeaderCtrl@@@8 ; CHeaderCtrl::`RTTI Base Class Descriptor at (0,-1,0,0)'
	DD	03H
	DD	00H
	DD	0ffffffffH
	DD	00H
	DD	00H
rdata$r	ENDS
;	COMDAT ??_R0?AVCHeaderCtrl@@@8
_DATA	SEGMENT
??_R0?AVCHeaderCtrl@@@8 DD FLAT:??_7type_info@@6B@	; CHeaderCtrl `RTTI Type Descriptor'
	DD	00H
	DB	'.?AVCHeaderCtrl@@', 00H
_DATA	ENDS
;	COMDAT ??_R1A@?0A@A@CWnd@@8
rdata$r	SEGMENT
??_R1A@?0A@A@CWnd@@8 DD FLAT:??_R0?AVCWnd@@@8		; CWnd::`RTTI Base Class Descriptor at (0,-1,0,0)'
	DD	02H
	DD	00H
	DD	0ffffffffH
	DD	00H
	DD	00H
rdata$r	ENDS
;	COMDAT ??_R0?AVCWnd@@@8
_DATA	SEGMENT
??_R0?AVCWnd@@@8 DD FLAT:??_7type_info@@6B@		; CWnd `RTTI Type Descriptor'
	DD	00H
	DB	'.?AVCWnd@@', 00H
_DATA	ENDS
;	COMDAT ??_R1A@?0A@A@CCmdTarget@@8
rdata$r	SEGMENT
??_R1A@?0A@A@CCmdTarget@@8 DD FLAT:??_R0?AVCCmdTarget@@@8 ; CCmdTarget::`RTTI Base Class Descriptor at (0,-1,0,0)'
	DD	01H
	DD	00H
	DD	0ffffffffH
	DD	00H
	DD	00H
rdata$r	ENDS
;	COMDAT ??_R0?AVCCmdTarget@@@8
_DATA	SEGMENT
??_R0?AVCCmdTarget@@@8 DD FLAT:??_7type_info@@6B@	; CCmdTarget `RTTI Type Descriptor'
	DD	00H
	DB	'.?AVCCmdTarget@@', 00H
_DATA	ENDS
;	COMDAT ??_R1A@?0A@A@CObject@@8
rdata$r	SEGMENT
??_R1A@?0A@A@CObject@@8 DD FLAT:??_R0?AVCObject@@@8	; CObject::`RTTI Base Class Descriptor at (0,-1,0,0)'
	DD	00H
	DD	00H
	DD	0ffffffffH
	DD	00H
	DD	00H
rdata$r	ENDS
;	COMDAT ??_R0?AVCObject@@@8
_DATA	SEGMENT
??_R0?AVCObject@@@8 DD FLAT:??_7type_info@@6B@		; CObject `RTTI Type Descriptor'
	DD	00H
	DB	'.?AVCObject@@', 00H
; Function compile flags: /Odt /RTCsu
_DATA	ENDS
_TEXT	SEGMENT
_this$ = -16						; size = 4
__$EHRec$ = -12						; size = 12
??0CMyHeaderCtrl@@QAE@XZ PROC NEAR			; CMyHeaderCtrl::CMyHeaderCtrl
; _this$ = ecx

; 16   : {	

  00030	55		 push	 ebp
  00031	8b ec		 mov	 ebp, esp
  00033	6a ff		 push	 -1
  00035	68 00 00 00 00	 push	 __ehhandler$??0CMyHeaderCtrl@@QAE@XZ
  0003a	64 a1 00 00 00
	00		 mov	 eax, DWORD PTR fs:__except_list
  00040	50		 push	 eax
  00041	64 89 25 00 00
	00 00		 mov	 DWORD PTR fs:__except_list, esp
  00048	51		 push	 ecx
  00049	c7 45 f0 cc cc
	cc cc		 mov	 DWORD PTR [ebp-16], -858993460 ; ccccccccH
  00050	89 4d f0	 mov	 DWORD PTR _this$[ebp], ecx
  00053	8b 4d f0	 mov	 ecx, DWORD PTR _this$[ebp]
  00056	e8 00 00 00 00	 call	 ??0CHeaderCtrl@@QAE@XZ	; CHeaderCtrl::CHeaderCtrl
  0005b	c7 45 fc 00 00
	00 00		 mov	 DWORD PTR __$EHRec$[ebp+8], 0
  00062	8b 45 f0	 mov	 eax, DWORD PTR _this$[ebp]
  00065	c7 00 00 00 00
	00		 mov	 DWORD PTR [eax], OFFSET FLAT:??_7CMyHeaderCtrl@@6B@
  0006b	8b 4d f0	 mov	 ecx, DWORD PTR _this$[ebp]
  0006e	c7 41 54 00 00
	00 00		 mov	 DWORD PTR [ecx+84], 0
  00075	8b 55 f0	 mov	 edx, DWORD PTR _this$[ebp]
  00078	c7 42 58 00 00
	00 00		 mov	 DWORD PTR [edx+88], 0
  0007f	8b 45 f0	 mov	 eax, DWORD PTR _this$[ebp]
  00082	c7 40 5c 00 00
	00 00		 mov	 DWORD PTR [eax+92], 0
  00089	8b 4d f0	 mov	 ecx, DWORD PTR _this$[ebp]
  0008c	c7 41 6c 00 00
	00 00		 mov	 DWORD PTR [ecx+108], 0
  00093	8b 4d f0	 mov	 ecx, DWORD PTR _this$[ebp]
  00096	83 c1 78	 add	 ecx, 120		; 00000078H
  00099	e8 00 00 00 00	 call	 ??0CFont@@QAE@XZ	; CFont::CFont

; 17   : 	m_fontColor			= RGB(0x00,0x00,0x00);

  0009e	8b 55 f0	 mov	 edx, DWORD PTR _this$[ebp]
  000a1	c7 82 80 00 00
	00 00 00 00 00	 mov	 DWORD PTR [edx+128], 0

; 18   : 	m_bTrackMouse		= false;

  000ab	8b 45 f0	 mov	 eax, DWORD PTR _this$[ebp]
  000ae	c6 40 74 00	 mov	 BYTE PTR [eax+116], 0

; 19   : 	m_nHoverItem		= -1;

  000b2	8b 4d f0	 mov	 ecx, DWORD PTR _this$[ebp]
  000b5	c7 41 70 ff ff
	ff ff		 mov	 DWORD PTR [ecx+112], -1

; 20   : 	m_bLButtonDown		= false;

  000bc	8b 55 f0	 mov	 edx, DWORD PTR _this$[ebp]
  000bf	c6 42 75 00	 mov	 BYTE PTR [edx+117], 0

; 21   : }

  000c3	c7 45 fc ff ff
	ff ff		 mov	 DWORD PTR __$EHRec$[ebp+8], -1
  000ca	8b 45 f0	 mov	 eax, DWORD PTR _this$[ebp]
  000cd	8b 4d f4	 mov	 ecx, DWORD PTR __$EHRec$[ebp]
  000d0	64 89 0d 00 00
	00 00		 mov	 DWORD PTR fs:__except_list, ecx
  000d7	83 c4 10	 add	 esp, 16			; 00000010H
  000da	3b ec		 cmp	 ebp, esp
  000dc	e8 00 00 00 00	 call	 __RTC_CheckEsp
  000e1	8b e5		 mov	 esp, ebp
  000e3	5d		 pop	 ebp
  000e4	c3		 ret	 0
_TEXT	ENDS
text$x	SEGMENT
$L188796:
  00000	8b 4d f0	 mov	 ecx, DWORD PTR _this$[ebp]
  00003	e9 00 00 00 00	 jmp	 ??1CHeaderCtrl@@UAE@XZ	; CHeaderCtrl::~CHeaderCtrl
__ehhandler$??0CMyHeaderCtrl@@QAE@XZ:
  00008	b8 00 00 00 00	 mov	 eax, OFFSET FLAT:$T188801
  0000d	e9 00 00 00 00	 jmp	 ___CxxFrameHandler
text$x	ENDS
??0CMyHeaderCtrl@@QAE@XZ ENDP				; CMyHeaderCtrl::CMyHeaderCtrl
PUBLIC	??1CMyHeaderCtrl@@UAE@XZ			; CMyHeaderCtrl::~CMyHeaderCtrl
EXTRN	??3CObject@@SGXPAX@Z:NEAR			; CObject::operator delete
; Function compile flags: /Odt /RTCsu
;	COMDAT ??_GCMyHeaderCtrl@@UAEPAXI@Z
_TEXT	SEGMENT
_this$ = -4						; size = 4
___flags$ = 8						; size = 4
??_GCMyHeaderCtrl@@UAEPAXI@Z PROC NEAR			; CMyHeaderCtrl::`scalar deleting destructor', COMDAT
; _this$ = ecx
  00000	55		 push	 ebp
  00001	8b ec		 mov	 ebp, esp
  00003	51		 push	 ecx
  00004	c7 45 fc cc cc
	cc cc		 mov	 DWORD PTR [ebp-4], -858993460 ; ccccccccH
  0000b	89 4d fc	 mov	 DWORD PTR _this$[ebp], ecx
  0000e	8b 4d fc	 mov	 ecx, DWORD PTR _this$[ebp]
  00011	e8 00 00 00 00	 call	 ??1CMyHeaderCtrl@@UAE@XZ ; CMyHeaderCtrl::~CMyHeaderCtrl
  00016	8b 45 08	 mov	 eax, DWORD PTR ___flags$[ebp]
  00019	83 e0 01	 and	 eax, 1
  0001c	74 09		 je	 SHORT $L188107
  0001e	8b 4d fc	 mov	 ecx, DWORD PTR _this$[ebp]
  00021	51		 push	 ecx
  00022	e8 00 00 00 00	 call	 ??3CObject@@SGXPAX@Z	; CObject::operator delete
$L188107:
  00027	8b 45 fc	 mov	 eax, DWORD PTR _this$[ebp]
  0002a	83 c4 04	 add	 esp, 4
  0002d	3b ec		 cmp	 ebp, esp
  0002f	e8 00 00 00 00	 call	 __RTC_CheckEsp
  00034	8b e5		 mov	 esp, ebp
  00036	5d		 pop	 ebp
  00037	c2 04 00	 ret	 4
??_GCMyHeaderCtrl@@UAEPAXI@Z ENDP			; CMyHeaderCtrl::`scalar deleting destructor'
_TEXT	ENDS
EXTRN	?DeleteObject@CGdiObject@@QAEHXZ:NEAR		; CGdiObject::DeleteObject
EXTRN	??1CFont@@UAE@XZ:NEAR				; CFont::~CFont
xdata$x	SEGMENT
$T188814 DD	0ffffffffH
	DD	FLAT:$L188809
	DD	00H
	DD	FLAT:$L188810
$T188812 DD	019930520H
	DD	02H
	DD	FLAT:$T188814
	DD	2 DUP(00H)
	DD	2 DUP(00H)
; Function compile flags: /Odt /RTCsu
xdata$x	ENDS
_TEXT	SEGMENT
_this$ = -16						; size = 4
__$EHRec$ = -12						; size = 12
??1CMyHeaderCtrl@@UAE@XZ PROC NEAR			; CMyHeaderCtrl::~CMyHeaderCtrl
; _this$ = ecx

; 24   : {

  000f0	55		 push	 ebp
  000f1	8b ec		 mov	 ebp, esp
  000f3	6a ff		 push	 -1
  000f5	68 00 00 00 00	 push	 __ehhandler$??1CMyHeaderCtrl@@UAE@XZ
  000fa	64 a1 00 00 00
	00		 mov	 eax, DWORD PTR fs:__except_list
  00100	50		 push	 eax
  00101	64 89 25 00 00
	00 00		 mov	 DWORD PTR fs:__except_list, esp
  00108	51		 push	 ecx
  00109	c7 45 f0 cc cc
	cc cc		 mov	 DWORD PTR [ebp-16], -858993460 ; ccccccccH
  00110	89 4d f0	 mov	 DWORD PTR _this$[ebp], ecx
  00113	8b 45 f0	 mov	 eax, DWORD PTR _this$[ebp]
  00116	c7 00 00 00 00
	00		 mov	 DWORD PTR [eax], OFFSET FLAT:??_7CMyHeaderCtrl@@6B@
  0011c	c7 45 fc 01 00
	00 00		 mov	 DWORD PTR __$EHRec$[ebp+8], 1

; 25   : 	if( m_fHeaderFont.m_hObject != NULL )

  00123	8b 4d f0	 mov	 ecx, DWORD PTR _this$[ebp]
  00126	83 79 7c 00	 cmp	 DWORD PTR [ecx+124], 0
  0012a	74 0b		 je	 SHORT $L188110

; 26   : 	{
; 27   : 		m_fHeaderFont.DeleteObject();

  0012c	8b 4d f0	 mov	 ecx, DWORD PTR _this$[ebp]
  0012f	83 c1 78	 add	 ecx, 120		; 00000078H
  00132	e8 00 00 00 00	 call	 ?DeleteObject@CGdiObject@@QAEHXZ ; CGdiObject::DeleteObject
$L188110:

; 28   : 	}
; 29   : }

  00137	c6 45 fc 00	 mov	 BYTE PTR __$EHRec$[ebp+8], 0
  0013b	8b 4d f0	 mov	 ecx, DWORD PTR _this$[ebp]
  0013e	83 c1 78	 add	 ecx, 120		; 00000078H
  00141	e8 00 00 00 00	 call	 ??1CFont@@UAE@XZ	; CFont::~CFont
  00146	c7 45 fc ff ff
	ff ff		 mov	 DWORD PTR __$EHRec$[ebp+8], -1
  0014d	8b 4d f0	 mov	 ecx, DWORD PTR _this$[ebp]
  00150	e8 00 00 00 00	 call	 ??1CHeaderCtrl@@UAE@XZ	; CHeaderCtrl::~CHeaderCtrl
  00155	8b 4d f4	 mov	 ecx, DWORD PTR __$EHRec$[ebp]
  00158	64 89 0d 00 00
	00 00		 mov	 DWORD PTR fs:__except_list, ecx
  0015f	83 c4 10	 add	 esp, 16			; 00000010H
  00162	3b ec		 cmp	 ebp, esp
  00164	e8 00 00 00 00	 call	 __RTC_CheckEsp
  00169	8b e5		 mov	 esp, ebp
  0016b	5d		 pop	 ebp
  0016c	c3		 ret	 0
_TEXT	ENDS
text$x	SEGMENT
$L188809:
  00012	8b 4d f0	 mov	 ecx, DWORD PTR _this$[ebp]
  00015	e9 00 00 00 00	 jmp	 ??1CHeaderCtrl@@UAE@XZ	; CHeaderCtrl::~CHeaderCtrl
$L188810:
  0001a	8b 4d f0	 mov	 ecx, DWORD PTR _this$[ebp]
  0001d	83 c1 78	 add	 ecx, 120		; 00000078H
  00020	e9 00 00 00 00	 jmp	 ??1CFont@@UAE@XZ	; CFont::~CFont
__ehhandler$??1CMyHeaderCtrl@@UAE@XZ:
  00025	b8 00 00 00 00	 mov	 eax, OFFSET FLAT:$T188812
  0002a	e9 00 00 00 00	 jmp	 ___CxxFrameHandler
text$x	ENDS
??1CMyHeaderCtrl@@UAE@XZ ENDP				; CMyHeaderCtrl::~CMyHeaderCtrl
PUBLIC	?GetThisMessageMap@CMyHeaderCtrl@@KGPBUAFX_MSGMAP@@XZ ; CMyHeaderCtrl::GetThisMessageMap
; Function compile flags: /Odt /RTCsu
_TEXT	SEGMENT
?GetThisMessageMap@CMyHeaderCtrl@@KGPBUAFX_MSGMAP@@XZ PROC NEAR ; CMyHeaderCtrl::GetThisMessageMap

; 32   : BEGIN_MESSAGE_MAP(CMyHeaderCtrl, CHeaderCtrl)

  00170	55		 push	 ebp
  00171	8b ec		 mov	 ebp, esp
  00173	b8 00 00 00 00	 mov	 eax, OFFSET FLAT:?messageMap@CMyHeaderCtrl@@1UAFX_MSGMAP@@B ; CMyHeaderCtrl::messageMap
  00178	5d		 pop	 ebp
  00179	c3		 ret	 0
?GetThisMessageMap@CMyHeaderCtrl@@KGPBUAFX_MSGMAP@@XZ ENDP ; CMyHeaderCtrl::GetThisMessageMap
; Function compile flags: /Odt /RTCsu
_this$ = -4						; size = 4
?GetMessageMap@CMyHeaderCtrl@@MBEPBUAFX_MSGMAP@@XZ PROC NEAR ; CMyHeaderCtrl::GetMessageMap
; _this$ = ecx

; 32   : BEGIN_MESSAGE_MAP(CMyHeaderCtrl, CHeaderCtrl)

  00180	55		 push	 ebp
  00181	8b ec		 mov	 ebp, esp
  00183	51		 push	 ecx
  00184	c7 45 fc cc cc
	cc cc		 mov	 DWORD PTR [ebp-4], -858993460 ; ccccccccH
  0018b	89 4d fc	 mov	 DWORD PTR _this$[ebp], ecx
  0018e	b8 00 00 00 00	 mov	 eax, OFFSET FLAT:?messageMap@CMyHeaderCtrl@@1UAFX_MSGMAP@@B ; CMyHeaderCtrl::messageMap
  00193	8b e5		 mov	 esp, ebp
  00195	5d		 pop	 ebp
  00196	c3		 ret	 0
?GetMessageMap@CMyHeaderCtrl@@MBEPBUAFX_MSGMAP@@XZ ENDP	; CMyHeaderCtrl::GetMessageMap
_TEXT	ENDS
EXTRN	?OnCreate@CWnd@@IAEHPAUtagCREATESTRUCTA@@@Z:NEAR ; CWnd::OnCreate
EXTRN	?CreateFontA@CFont@@QAEHHHHHHEEEEEEEEPBD@Z:NEAR	; CFont::CreateFontA
EXTRN	?SetFont@CWnd@@QAEXPAVCFont@@H@Z:NEAR		; CWnd::SetFont
; Function compile flags: /Odt /RTCsu
_TEXT	SEGMENT
_this$ = -4						; size = 4
_lpCreateStruct$ = 8					; size = 4
?OnCreate@CMyHeaderCtrl@@QAEHPAUtagCREATESTRUCTA@@@Z PROC NEAR ; CMyHeaderCtrl::OnCreate
; _this$ = ecx

; 44   : {

  001a0	55		 push	 ebp
  001a1	8b ec		 mov	 ebp, esp
  001a3	51		 push	 ecx
  001a4	c7 45 fc cc cc
	cc cc		 mov	 DWORD PTR [ebp-4], -858993460 ; ccccccccH
  001ab	89 4d fc	 mov	 DWORD PTR _this$[ebp], ecx

; 45   : 	if( m_fHeaderFont.m_hObject != NULL )

  001ae	8b 45 fc	 mov	 eax, DWORD PTR _this$[ebp]
  001b1	83 78 7c 00	 cmp	 DWORD PTR [eax+124], 0
  001b5	74 3e		 je	 SHORT $L188159

; 46   : 	{
; 47   : 		m_fHeaderFont.CreateFont(
; 48   : 		14,                        // nHeight
; 49   : 		0,                         // nWidth
; 50   : 		0,                         // nEscapement
; 51   : 		0,                         // nOrientation
; 52   : 		FW_NORMAL,                 // nWeight
; 53   : 		FALSE,                     // bItalic
; 54   : 		FALSE,                     // bUnderline
; 55   : 		0,                         // cStrikeOut
; 56   : 		ANSI_CHARSET,              // nCharSet
; 57   : 		OUT_DEFAULT_PRECIS,        // nOutPrecision
; 58   : 		CLIP_DEFAULT_PRECIS,       // nClipPrecision
; 59   : 		DEFAULT_QUALITY,           // nQuality
; 60   : 		DEFAULT_PITCH | FF_SWISS,  // nPitchAndFamily
; 61   : 		"ו");                 // lpszFacename

  001b7	68 00 00 00 00	 push	 OFFSET FLAT:$SG188160
  001bc	6a 20		 push	 32			; 00000020H
  001be	6a 00		 push	 0
  001c0	6a 00		 push	 0
  001c2	6a 00		 push	 0
  001c4	6a 00		 push	 0
  001c6	6a 00		 push	 0
  001c8	6a 00		 push	 0
  001ca	6a 00		 push	 0
  001cc	68 90 01 00 00	 push	 400			; 00000190H
  001d1	6a 00		 push	 0
  001d3	6a 00		 push	 0
  001d5	6a 00		 push	 0
  001d7	6a 0e		 push	 14			; 0000000eH
  001d9	8b 4d fc	 mov	 ecx, DWORD PTR _this$[ebp]
  001dc	83 c1 78	 add	 ecx, 120		; 00000078H
  001df	e8 00 00 00 00	 call	 ?CreateFontA@CFont@@QAEHHHHHHEEEEEEEEPBD@Z ; CFont::CreateFontA

; 62   : 	//A BIGGER FONT MAKES THE CONTROL BIGGER
; 63   : 		SetFont(&m_fHeaderFont);

  001e4	6a 01		 push	 1
  001e6	8b 4d fc	 mov	 ecx, DWORD PTR _this$[ebp]
  001e9	83 c1 78	 add	 ecx, 120		; 00000078H
  001ec	51		 push	 ecx
  001ed	8b 4d fc	 mov	 ecx, DWORD PTR _this$[ebp]
  001f0	e8 00 00 00 00	 call	 ?SetFont@CWnd@@QAEXPAVCFont@@H@Z ; CWnd::SetFont
$L188159:

; 64   : 	}
; 65   : 
; 66   : 	return CHeaderCtrl::OnCreate( lpCreateStruct );

  001f5	8b 55 08	 mov	 edx, DWORD PTR _lpCreateStruct$[ebp]
  001f8	52		 push	 edx
  001f9	8b 4d fc	 mov	 ecx, DWORD PTR _this$[ebp]
  001fc	e8 00 00 00 00	 call	 ?OnCreate@CWnd@@IAEHPAUtagCREATESTRUCTA@@@Z ; CWnd::OnCreate

; 67   : }

  00201	83 c4 04	 add	 esp, 4
  00204	3b ec		 cmp	 ebp, esp
  00206	e8 00 00 00 00	 call	 __RTC_CheckEsp
  0020b	8b e5		 mov	 esp, ebp
  0020d	5d		 pop	 ebp
  0020e	c2 04 00	 ret	 4
?OnCreate@CMyHeaderCtrl@@QAEHPAUtagCREATESTRUCTA@@@Z ENDP ; CMyHeaderCtrl::OnCreate
_TEXT	ENDS
PUBLIC	?SetHeaderColor@CMyHeaderCtrl@@QAEXK@Z		; CMyHeaderCtrl::SetHeaderColor
; Function compile flags: /Odt /RTCsu
_TEXT	SEGMENT
_this$ = -4						; size = 4
_colorfont$ = 8						; size = 4
?SetHeaderColor@CMyHeaderCtrl@@QAEXK@Z PROC NEAR	; CMyHeaderCtrl::SetHeaderColor
; _this$ = ecx

; 70   : {

  00220	55		 push	 ebp
  00221	8b ec		 mov	 ebp, esp
  00223	51		 push	 ecx
  00224	c7 45 fc cc cc
	cc cc		 mov	 DWORD PTR [ebp-4], -858993460 ; ccccccccH
  0022b	89 4d fc	 mov	 DWORD PTR _this$[ebp], ecx

; 71   : 	m_fontColor = colorfont;

  0022e	8b 45 fc	 mov	 eax, DWORD PTR _this$[ebp]
  00231	8b 4d 08	 mov	 ecx, DWORD PTR _colorfont$[ebp]
  00234	89 88 80 00 00
	00		 mov	 DWORD PTR [eax+128], ecx

; 72   : }

  0023a	8b e5		 mov	 esp, ebp
  0023c	5d		 pop	 ebp
  0023d	c2 04 00	 ret	 4
?SetHeaderColor@CMyHeaderCtrl@@QAEXK@Z ENDP		; CMyHeaderCtrl::SetHeaderColor
_TEXT	ENDS
EXTRN	@_RTC_CheckStackVars@8:NEAR
EXTRN	??0CPoint@@QAE@HH@Z:NEAR			; CPoint::CPoint
EXTRN	??8CPoint@@QBEHUtagPOINT@@@Z:NEAR		; CPoint::operator==
EXTRN	??0CRect@@QAE@XZ:NEAR				; CRect::CRect
EXTRN	?OnMouseMove@CWnd@@IAEXIVCPoint@@@Z:NEAR	; CWnd::OnMouseMove
EXTRN	?PtInRect@CRect@@QBEHUtagPOINT@@@Z:NEAR		; CRect::PtInRect
EXTRN	?GetItemCount@CHeaderCtrl@@QBEHXZ:NEAR		; CHeaderCtrl::GetItemCount
EXTRN	?GetItemRect@CHeaderCtrl@@QBEHHPAUtagRECT@@@Z:NEAR ; CHeaderCtrl::GetItemRect
EXTRN	?Invalidate@CWnd@@QAEXH@Z:NEAR			; CWnd::Invalidate
EXTRN	__imp___TrackMouseEvent@4:NEAR
;	COMDAT ?s_pt@?1??OnMouseMove@CMyHeaderCtrl@@QAEXIVCPoint@@@Z@4V3@A
_BSS	SEGMENT
?s_pt@?1??OnMouseMove@CMyHeaderCtrl@@QAEXIVCPoint@@@Z@4V3@A DQ 01H DUP (?) ; `CMyHeaderCtrl::OnMouseMove'::`2'::s_pt
_BSS	ENDS
;	COMDAT ?$S5@?1??OnMouseMove@CMyHeaderCtrl@@QAEXIVCPoint@@@Z@4IA
_BSS	SEGMENT
?$S5@?1??OnMouseMove@CMyHeaderCtrl@@QAEXIVCPoint@@@Z@4IA DD 01H DUP (?) ; `CMyHeaderCtrl::OnMouseMove'::`2'::$S5
; Function compile flags: /Odt /RTCsu
_BSS	ENDS
_TEXT	SEGMENT
$T188821 = -76						; size = 8
$T188820 = -68						; size = 8
_i$188181 = -60						; size = 4
_rect$ = -52						; size = 16
_nItems$ = -32						; size = 4
_tme$188178 = -24					; size = 16
_this$ = -4						; size = 4
_nFlags$ = 8						; size = 4
_point$ = 12						; size = 8
?OnMouseMove@CMyHeaderCtrl@@QAEXIVCPoint@@@Z PROC NEAR	; CMyHeaderCtrl::OnMouseMove
; _this$ = ecx

; 75   : {

  00240	55		 push	 ebp
  00241	8b ec		 mov	 ebp, esp
  00243	83 ec 4c	 sub	 esp, 76			; 0000004cH
  00246	56		 push	 esi
  00247	57		 push	 edi
  00248	51		 push	 ecx
  00249	8d 7d b4	 lea	 edi, DWORD PTR [ebp-76]
  0024c	b9 13 00 00 00	 mov	 ecx, 19			; 00000013H
  00251	b8 cc cc cc cc	 mov	 eax, -858993460		; ccccccccH
  00256	f3 ab		 rep stosd
  00258	59		 pop	 ecx
  00259	89 4d fc	 mov	 DWORD PTR _this$[ebp], ecx

; 76   : 	static CPoint s_pt(0,0);

  0025c	a1 00 00 00 00	 mov	 eax, DWORD PTR ?$S5@?1??OnMouseMove@CMyHeaderCtrl@@QAEXIVCPoint@@@Z@4IA
  00261	83 e0 01	 and	 eax, 1
  00264	75 1d		 jne	 SHORT $L188174
  00266	8b 0d 00 00 00
	00		 mov	 ecx, DWORD PTR ?$S5@?1??OnMouseMove@CMyHeaderCtrl@@QAEXIVCPoint@@@Z@4IA
  0026c	83 c9 01	 or	 ecx, 1
  0026f	89 0d 00 00 00
	00		 mov	 DWORD PTR ?$S5@?1??OnMouseMove@CMyHeaderCtrl@@QAEXIVCPoint@@@Z@4IA, ecx
  00275	6a 00		 push	 0
  00277	6a 00		 push	 0
  00279	b9 00 00 00 00	 mov	 ecx, OFFSET FLAT:?s_pt@?1??OnMouseMove@CMyHeaderCtrl@@QAEXIVCPoint@@@Z@4V3@A
  0027e	e8 00 00 00 00	 call	 ??0CPoint@@QAE@HH@Z	; CPoint::CPoint
$L188174:

; 77   : 
; 78   : 	if( s_pt == point )

  00283	8b 55 0c	 mov	 edx, DWORD PTR _point$[ebp]
  00286	89 55 bc	 mov	 DWORD PTR $T188820[ebp], edx
  00289	8b 45 10	 mov	 eax, DWORD PTR _point$[ebp+4]
  0028c	89 45 c0	 mov	 DWORD PTR $T188820[ebp+4], eax
  0028f	8b 4d c0	 mov	 ecx, DWORD PTR $T188820[ebp+4]
  00292	51		 push	 ecx
  00293	8b 55 bc	 mov	 edx, DWORD PTR $T188820[ebp]
  00296	52		 push	 edx
  00297	b9 00 00 00 00	 mov	 ecx, OFFSET FLAT:?s_pt@?1??OnMouseMove@CMyHeaderCtrl@@QAEXIVCPoint@@@Z@4V3@A
  0029c	e8 00 00 00 00	 call	 ??8CPoint@@QBEHUtagPOINT@@@Z ; CPoint::operator==
  002a1	85 c0		 test	 eax, eax
  002a3	74 19		 je	 SHORT $L188176

; 79   : 	{
; 80   : 		return __super::OnMouseMove(nFlags,point);

  002a5	8b 45 10	 mov	 eax, DWORD PTR _point$[ebp+4]
  002a8	50		 push	 eax
  002a9	8b 4d 0c	 mov	 ecx, DWORD PTR _point$[ebp]
  002ac	51		 push	 ecx
  002ad	8b 55 08	 mov	 edx, DWORD PTR _nFlags$[ebp]
  002b0	52		 push	 edx
  002b1	8b 4d fc	 mov	 ecx, DWORD PTR _this$[ebp]
  002b4	e8 00 00 00 00	 call	 ?OnMouseMove@CWnd@@IAEXIVCPoint@@@Z ; CWnd::OnMouseMove
  002b9	e9 e0 00 00 00	 jmp	 $L188169
$L188176:

; 81   : 	}
; 82   : 	s_pt = point;

  002be	8b 45 0c	 mov	 eax, DWORD PTR _point$[ebp]
  002c1	a3 00 00 00 00	 mov	 DWORD PTR ?s_pt@?1??OnMouseMove@CMyHeaderCtrl@@QAEXIVCPoint@@@Z@4V3@A, eax
  002c6	8b 4d 10	 mov	 ecx, DWORD PTR _point$[ebp+4]
  002c9	89 0d 04 00 00
	00		 mov	 DWORD PTR ?s_pt@?1??OnMouseMove@CMyHeaderCtrl@@QAEXIVCPoint@@@Z@4V3@A+4, ecx

; 83   : 
; 84   : 	if (!m_bTrackMouse)

  002cf	8b 55 fc	 mov	 edx, DWORD PTR _this$[ebp]
  002d2	0f b6 42 74	 movzx	 eax, BYTE PTR [edx+116]
  002d6	85 c0		 test	 eax, eax
  002d8	75 31		 jne	 SHORT $L188177

; 85   : 	{
; 86   : 		TRACKMOUSEEVENT tme;
; 87   : 		tme.cbSize = sizeof(tme);

  002da	c7 45 e8 10 00
	00 00		 mov	 DWORD PTR _tme$188178[ebp], 16 ; 00000010H

; 88   : 		tme.hwndTrack = m_hWnd;

  002e1	8b 4d fc	 mov	 ecx, DWORD PTR _this$[ebp]
  002e4	8b 51 20	 mov	 edx, DWORD PTR [ecx+32]
  002e7	89 55 f0	 mov	 DWORD PTR _tme$188178[ebp+8], edx

; 89   : 		tme.dwFlags = TME_LEAVE;

  002ea	c7 45 ec 02 00
	00 00		 mov	 DWORD PTR _tme$188178[ebp+4], 2

; 90   : 		_TrackMouseEvent(&tme);

  002f1	8b f4		 mov	 esi, esp
  002f3	8d 45 e8	 lea	 eax, DWORD PTR _tme$188178[ebp]
  002f6	50		 push	 eax
  002f7	ff 15 00 00 00
	00		 call	 DWORD PTR __imp___TrackMouseEvent@4
  002fd	3b f4		 cmp	 esi, esp
  002ff	e8 00 00 00 00	 call	 __RTC_CheckEsp

; 91   : 		m_bTrackMouse = TRUE;

  00304	8b 4d fc	 mov	 ecx, DWORD PTR _this$[ebp]
  00307	c6 41 74 01	 mov	 BYTE PTR [ecx+116], 1
$L188177:

; 92   : 	}
; 93   : 
; 94   : 	int nItems = GetItemCount();

  0030b	8b 4d fc	 mov	 ecx, DWORD PTR _this$[ebp]
  0030e	e8 00 00 00 00	 call	 ?GetItemCount@CHeaderCtrl@@QBEHXZ ; CHeaderCtrl::GetItemCount
  00313	89 45 e0	 mov	 DWORD PTR _nItems$[ebp], eax

; 95   : 	CRect rect;

  00316	8d 4d cc	 lea	 ecx, DWORD PTR _rect$[ebp]
  00319	e8 00 00 00 00	 call	 ??0CRect@@QAE@XZ	; CRect::CRect

; 96   : 	for(int i = 0; i <nItems; i++)

  0031e	c7 45 c4 00 00
	00 00		 mov	 DWORD PTR _i$188181[ebp], 0
  00325	eb 09		 jmp	 SHORT $L188182
$L188183:
  00327	8b 55 c4	 mov	 edx, DWORD PTR _i$188181[ebp]
  0032a	83 c2 01	 add	 edx, 1
  0032d	89 55 c4	 mov	 DWORD PTR _i$188181[ebp], edx
$L188182:
  00330	8b 45 c4	 mov	 eax, DWORD PTR _i$188181[ebp]
  00333	3b 45 e0	 cmp	 eax, DWORD PTR _nItems$[ebp]
  00336	7d 52		 jge	 SHORT $L188184

; 97   : 	{
; 98   : 		GetItemRect(i, &rect);

  00338	8d 4d cc	 lea	 ecx, DWORD PTR _rect$[ebp]
  0033b	51		 push	 ecx
  0033c	8b 55 c4	 mov	 edx, DWORD PTR _i$188181[ebp]
  0033f	52		 push	 edx
  00340	8b 4d fc	 mov	 ecx, DWORD PTR _this$[ebp]
  00343	e8 00 00 00 00	 call	 ?GetItemRect@CHeaderCtrl@@QBEHHPAUtagRECT@@@Z ; CHeaderCtrl::GetItemRect

; 99   : 		if(rect.PtInRect(point))

  00348	8b 45 0c	 mov	 eax, DWORD PTR _point$[ebp]
  0034b	89 45 b4	 mov	 DWORD PTR $T188821[ebp], eax
  0034e	8b 4d 10	 mov	 ecx, DWORD PTR _point$[ebp+4]
  00351	89 4d b8	 mov	 DWORD PTR $T188821[ebp+4], ecx
  00354	8b 55 b8	 mov	 edx, DWORD PTR $T188821[ebp+4]
  00357	52		 push	 edx
  00358	8b 45 b4	 mov	 eax, DWORD PTR $T188821[ebp]
  0035b	50		 push	 eax
  0035c	8d 4d cc	 lea	 ecx, DWORD PTR _rect$[ebp]
  0035f	e8 00 00 00 00	 call	 ?PtInRect@CRect@@QBEHUtagPOINT@@@Z ; CRect::PtInRect
  00364	85 c0		 test	 eax, eax
  00366	74 20		 je	 SHORT $L188186

; 100  : 		{
; 101  : 			if(i != m_nHoverItem)

  00368	8b 4d fc	 mov	 ecx, DWORD PTR _this$[ebp]
  0036b	8b 55 c4	 mov	 edx, DWORD PTR _i$188181[ebp]
  0036e	3b 51 70	 cmp	 edx, DWORD PTR [ecx+112]
  00371	74 15		 je	 SHORT $L188186

; 102  : 			{	
; 103  : 				 m_nHoverItem = i;

  00373	8b 45 fc	 mov	 eax, DWORD PTR _this$[ebp]
  00376	8b 4d c4	 mov	 ecx, DWORD PTR _i$188181[ebp]
  00379	89 48 70	 mov	 DWORD PTR [eax+112], ecx

; 104  : 				 Invalidate();

  0037c	6a 01		 push	 1
  0037e	8b 4d fc	 mov	 ecx, DWORD PTR _this$[ebp]
  00381	e8 00 00 00 00	 call	 ?Invalidate@CWnd@@QAEXH@Z ; CWnd::Invalidate

; 105  : 				 break;

  00386	eb 02		 jmp	 SHORT $L188184
$L188186:

; 106  : 			}
; 107  : 		}
; 108  : 	}

  00388	eb 9d		 jmp	 SHORT $L188183
$L188184:

; 109  : 
; 110  : 	__super::OnMouseMove(nFlags, point);

  0038a	8b 55 10	 mov	 edx, DWORD PTR _point$[ebp+4]
  0038d	52		 push	 edx
  0038e	8b 45 0c	 mov	 eax, DWORD PTR _point$[ebp]
  00391	50		 push	 eax
  00392	8b 4d 08	 mov	 ecx, DWORD PTR _nFlags$[ebp]
  00395	51		 push	 ecx
  00396	8b 4d fc	 mov	 ecx, DWORD PTR _this$[ebp]
  00399	e8 00 00 00 00	 call	 ?OnMouseMove@CWnd@@IAEXIVCPoint@@@Z ; CWnd::OnMouseMove
$L188169:

; 111  : }

  0039e	52		 push	 edx
  0039f	8b cd		 mov	 ecx, ebp
  003a1	50		 push	 eax
  003a2	8d 15 00 00 00
	00		 lea	 edx, DWORD PTR $L188826
  003a8	e8 00 00 00 00	 call	 @_RTC_CheckStackVars@8
  003ad	58		 pop	 eax
  003ae	5a		 pop	 edx
  003af	5f		 pop	 edi
  003b0	5e		 pop	 esi
  003b1	83 c4 4c	 add	 esp, 76			; 0000004cH
  003b4	3b ec		 cmp	 ebp, esp
  003b6	e8 00 00 00 00	 call	 __RTC_CheckEsp
  003bb	8b e5		 mov	 esp, ebp
  003bd	5d		 pop	 ebp
  003be	c2 0c 00	 ret	 12			; 0000000cH
$L188826:
  003c1	02 00 00 00	 DD	 2
  003c5	00 00 00 00	 DD	 $L188825
$L188825:
  003c9	e8 ff ff ff	 DD	 -24			; ffffffe8H
  003cd	10 00 00 00	 DD	 16			; 00000010H
  003d1	00 00 00 00	 DD	 $L188823
  003d5	cc ff ff ff	 DD	 -52			; ffffffccH
  003d9	10 00 00 00	 DD	 16			; 00000010H
  003dd	00 00 00 00	 DD	 $L188824
$L188824:
  003e1	72		 DB	 114			; 00000072H
  003e2	65		 DB	 101			; 00000065H
  003e3	63		 DB	 99			; 00000063H
  003e4	74		 DB	 116			; 00000074H
  003e5	00		 DB	 0
$L188823:
  003e6	74		 DB	 116			; 00000074H
  003e7	6d		 DB	 109			; 0000006dH
  003e8	65		 DB	 101			; 00000065H
  003e9	00		 DB	 0
?OnMouseMove@CMyHeaderCtrl@@QAEXIVCPoint@@@Z ENDP	; CMyHeaderCtrl::OnMouseMove
_TEXT	ENDS
EXTRN	?SubclassWindow@CWnd@@QAEHPAUHWND__@@@Z:NEAR	; CWnd::SubclassWindow
; Function compile flags: /Odt /RTCsu
_TEXT	SEGMENT
_this$ = -4						; size = 4
_hwnd$ = 8						; size = 4
?SubclassWindow@CMyHeaderCtrl@@UAEHPAUHWND__@@@Z PROC NEAR ; CMyHeaderCtrl::SubclassWindow
; _this$ = ecx

; 113  : {

  003f0	55		 push	 ebp
  003f1	8b ec		 mov	 ebp, esp
  003f3	51		 push	 ecx
  003f4	c7 45 fc cc cc
	cc cc		 mov	 DWORD PTR [ebp-4], -858993460 ; ccccccccH
  003fb	89 4d fc	 mov	 DWORD PTR _this$[ebp], ecx

; 114  : 	//m_imgList.Add(&(theApp.skin.m_bListBtnListen),RGB(0,0,0));
; 115  : 	//m_imgList.Add(&(theApp.skin.m_bListBtnDownload),RGB(0,0,0));
; 116  : 
; 117  : 	CHeaderCtrl::SubclassWindow(hwnd);

  003fe	8b 45 08	 mov	 eax, DWORD PTR _hwnd$[ebp]
  00401	50		 push	 eax
  00402	8b 4d fc	 mov	 ecx, DWORD PTR _this$[ebp]
  00405	e8 00 00 00 00	 call	 ?SubclassWindow@CWnd@@QAEHPAUHWND__@@@Z ; CWnd::SubclassWindow

; 118  : 	m_fHeaderFont.CreateFont(
; 119  : 			14,                        // nHeight
; 120  : 			0,                         // nWidth
; 121  : 			0,                         // nEscapement
; 122  : 			0,                         // nOrientation
; 123  : 			FW_NORMAL,                 // nWeight
; 124  : 			FALSE,                     // bItalic
; 125  : 			FALSE,                     // bUnderline
; 126  : 			0,                         // cStrikeOut
; 127  : 			ANSI_CHARSET,              // nCharSet
; 128  : 			OUT_DEFAULT_PRECIS,        // nOutPrecision
; 129  : 			CLIP_DEFAULT_PRECIS,       // nClipPrecision
; 130  : 			DEFAULT_QUALITY,           // nQuality
; 131  : 			DEFAULT_PITCH | FF_SWISS,  // nPitchAndFamily
; 132  : 			"ו");                 // lpszFacename

  0040a	68 00 00 00 00	 push	 OFFSET FLAT:$SG188192
  0040f	6a 20		 push	 32			; 00000020H
  00411	6a 00		 push	 0
  00413	6a 00		 push	 0
  00415	6a 00		 push	 0
  00417	6a 00		 push	 0
  00419	6a 00		 push	 0
  0041b	6a 00		 push	 0
  0041d	6a 00		 push	 0
  0041f	68 90 01 00 00	 push	 400			; 00000190H
  00424	6a 00		 push	 0
  00426	6a 00		 push	 0
  00428	6a 00		 push	 0
  0042a	6a 0e		 push	 14			; 0000000eH
  0042c	8b 4d fc	 mov	 ecx, DWORD PTR _this$[ebp]
  0042f	83 c1 78	 add	 ecx, 120		; 00000078H
  00432	e8 00 00 00 00	 call	 ?CreateFontA@CFont@@QAEHHHHHHEEEEEEEEPBD@Z ; CFont::CreateFontA

; 133  : 		//A BIGGER FONT MAKES THE CONTROL BIGGER
; 134  : 		SetFont(&m_fHeaderFont);

  00437	6a 01		 push	 1
  00439	8b 4d fc	 mov	 ecx, DWORD PTR _this$[ebp]
  0043c	83 c1 78	 add	 ecx, 120		; 00000078H
  0043f	51		 push	 ecx
  00440	8b 4d fc	 mov	 ecx, DWORD PTR _this$[ebp]
  00443	e8 00 00 00 00	 call	 ?SetFont@CWnd@@QAEXPAVCFont@@H@Z ; CWnd::SetFont

; 135  : 		return TRUE;

  00448	b8 01 00 00 00	 mov	 eax, 1

; 136  : }

  0044d	83 c4 04	 add	 esp, 4
  00450	3b ec		 cmp	 ebp, esp
  00452	e8 00 00 00 00	 call	 __RTC_CheckEsp
  00457	8b e5		 mov	 esp, ebp
  00459	5d		 pop	 ebp
  0045a	c2 04 00	 ret	 4
?SubclassWindow@CMyHeaderCtrl@@UAEHPAUHWND__@@@Z ENDP	; CMyHeaderCtrl::SubclassWindow
_TEXT	ENDS
PUBLIC	?SetBitmap@CMyHeaderCtrl@@QAEXPAVCDibBitmap@@000@Z ; CMyHeaderCtrl::SetBitmap
EXTRN	?AfxGetUIManager@@YAPAVIUIManager@@XZ:NEAR	; AfxGetUIManager
; Function compile flags: /Odt /RTCsu
_TEXT	SEGMENT
tv70 = -12						; size = 4
_pSkinMgr$ = -8						; size = 4
_this$ = -4						; size = 4
_pBk$ = 8						; size = 4
_pMidLine$ = 12						; size = 4
_pAsc$ = 16						; size = 4
_pDesc$ = 20						; size = 4
?SetBitmap@CMyHeaderCtrl@@QAEXPAVCDibBitmap@@000@Z PROC NEAR ; CMyHeaderCtrl::SetBitmap
; _this$ = ecx

; 139  : {

  00460	55		 push	 ebp
  00461	8b ec		 mov	 ebp, esp
  00463	83 ec 0c	 sub	 esp, 12			; 0000000cH
  00466	56		 push	 esi
  00467	c7 45 f4 cc cc
	cc cc		 mov	 DWORD PTR [ebp-12], -858993460 ; ccccccccH
  0046e	c7 45 f8 cc cc
	cc cc		 mov	 DWORD PTR [ebp-8], -858993460 ; ccccccccH
  00475	c7 45 fc cc cc
	cc cc		 mov	 DWORD PTR [ebp-4], -858993460 ; ccccccccH
  0047c	89 4d fc	 mov	 DWORD PTR _this$[ebp], ecx

; 140  : 	m_pBitmapBk			= pBk;

  0047f	8b 45 fc	 mov	 eax, DWORD PTR _this$[ebp]
  00482	8b 4d 08	 mov	 ecx, DWORD PTR _pBk$[ebp]
  00485	89 48 54	 mov	 DWORD PTR [eax+84], ecx

; 141  : 	m_pBitmapAsc		= pAsc;

  00488	8b 55 fc	 mov	 edx, DWORD PTR _this$[ebp]
  0048b	8b 45 10	 mov	 eax, DWORD PTR _pAsc$[ebp]
  0048e	89 42 5c	 mov	 DWORD PTR [edx+92], eax

; 142  : 	m_pBitmapDesc		= pDesc;

  00491	8b 4d fc	 mov	 ecx, DWORD PTR _this$[ebp]
  00494	8b 55 14	 mov	 edx, DWORD PTR _pDesc$[ebp]
  00497	89 51 6c	 mov	 DWORD PTR [ecx+108], edx

; 143  : 	m_pBitmapMidLine	= pMidLine;

  0049a	8b 45 fc	 mov	 eax, DWORD PTR _this$[ebp]
  0049d	8b 4d 0c	 mov	 ecx, DWORD PTR _pMidLine$[ebp]
  004a0	89 48 58	 mov	 DWORD PTR [eax+88], ecx

; 144  : 	ISkinMgr* pSkinMgr	= AfxGetUIManager()->UIGetSkinMgr();

  004a3	e8 00 00 00 00	 call	 ?AfxGetUIManager@@YAPAVIUIManager@@XZ ; AfxGetUIManager
  004a8	89 45 f4	 mov	 DWORD PTR tv70[ebp], eax
  004ab	8b 55 f4	 mov	 edx, DWORD PTR tv70[ebp]
  004ae	8b 02		 mov	 eax, DWORD PTR [edx]
  004b0	8b f4		 mov	 esi, esp
  004b2	8b 4d f4	 mov	 ecx, DWORD PTR tv70[ebp]
  004b5	ff 50 28	 call	 DWORD PTR [eax+40]
  004b8	3b f4		 cmp	 esi, esp
  004ba	e8 00 00 00 00	 call	 __RTC_CheckEsp
  004bf	89 45 f8	 mov	 DWORD PTR _pSkinMgr$[ebp], eax

; 145  : 	m_pBitmapBkOver		= pSkinMgr->GetDibBmp("ListHeaderBK");//Over");

  004c2	8b f4		 mov	 esi, esp
  004c4	68 00 00 00 00	 push	 OFFSET FLAT:$SG188201
  004c9	8b 4d f8	 mov	 ecx, DWORD PTR _pSkinMgr$[ebp]
  004cc	8b 11		 mov	 edx, DWORD PTR [ecx]
  004ce	8b 4d f8	 mov	 ecx, DWORD PTR _pSkinMgr$[ebp]
  004d1	ff 52 04	 call	 DWORD PTR [edx+4]
  004d4	3b f4		 cmp	 esi, esp
  004d6	e8 00 00 00 00	 call	 __RTC_CheckEsp
  004db	8b 4d fc	 mov	 ecx, DWORD PTR _this$[ebp]
  004de	89 41 60	 mov	 DWORD PTR [ecx+96], eax

; 146  : 	m_pBitmapMidLineOver= pSkinMgr->GetDibBmp("ListHeaderMidLine");//Over");

  004e1	8b f4		 mov	 esi, esp
  004e3	68 00 00 00 00	 push	 OFFSET FLAT:$SG188202
  004e8	8b 55 f8	 mov	 edx, DWORD PTR _pSkinMgr$[ebp]
  004eb	8b 02		 mov	 eax, DWORD PTR [edx]
  004ed	8b 4d f8	 mov	 ecx, DWORD PTR _pSkinMgr$[ebp]
  004f0	ff 50 04	 call	 DWORD PTR [eax+4]
  004f3	3b f4		 cmp	 esi, esp
  004f5	e8 00 00 00 00	 call	 __RTC_CheckEsp
  004fa	8b 4d fc	 mov	 ecx, DWORD PTR _this$[ebp]
  004fd	89 41 64	 mov	 DWORD PTR [ecx+100], eax

; 147  : 	m_pBitmapBkDown		= pSkinMgr->GetDibBmp("ListHeaderBK");//Down");

  00500	8b f4		 mov	 esi, esp
  00502	68 00 00 00 00	 push	 OFFSET FLAT:$SG188203
  00507	8b 55 f8	 mov	 edx, DWORD PTR _pSkinMgr$[ebp]
  0050a	8b 02		 mov	 eax, DWORD PTR [edx]
  0050c	8b 4d f8	 mov	 ecx, DWORD PTR _pSkinMgr$[ebp]
  0050f	ff 50 04	 call	 DWORD PTR [eax+4]
  00512	3b f4		 cmp	 esi, esp
  00514	e8 00 00 00 00	 call	 __RTC_CheckEsp
  00519	8b 4d fc	 mov	 ecx, DWORD PTR _this$[ebp]
  0051c	89 41 68	 mov	 DWORD PTR [ecx+104], eax

; 148  : }

  0051f	5e		 pop	 esi
  00520	83 c4 0c	 add	 esp, 12			; 0000000cH
  00523	3b ec		 cmp	 ebp, esp
  00525	e8 00 00 00 00	 call	 __RTC_CheckEsp
  0052a	8b e5		 mov	 esp, ebp
  0052c	5d		 pop	 ebp
  0052d	c2 10 00	 ret	 16			; 00000010H
?SetBitmap@CMyHeaderCtrl@@QAEXPAVCDibBitmap@@000@Z ENDP	; CMyHeaderCtrl::SetBitmap
_TEXT	ENDS
EXTRN	?BitBlt@CDC@@QAEHHHHHPAV1@HHK@Z:NEAR		; CDC::BitBlt
EXTRN	?DrawTextA@CDC@@QAEHABV?$CStringT@DV?$StrTraitMFC_DLL@DV?$ChTraitsCRT@D@ATL@@@@@ATL@@PAUtagRECT@@I@Z:NEAR ; CDC::DrawTextA
EXTRN	?GetDimensions@CDib@@QAE?AVCSize@@XZ:NEAR	; CDib::GetDimensions
EXTRN	??0CSize@@QAE@XZ:NEAR				; CSize::CSize
EXTRN	??0CPoint@@QAE@XZ:NEAR				; CPoint::CPoint
EXTRN	?CreateFontIndirectA@CFont@@QAEHPBUtagLOGFONTA@@@Z:NEAR ; CFont::CreateFontIndirectA
EXTRN	??1CDC@@UAE@XZ:NEAR				; CDC::~CDC
EXTRN	___security_cookie:DWORD
EXTRN	??0CPaintDC@@QAE@PAVCWnd@@@Z:NEAR		; CPaintDC::CPaintDC
EXTRN	@__security_check_cookie@4:NEAR
EXTRN	??1CPaintDC@@UAE@XZ:NEAR			; CPaintDC::~CPaintDC
EXTRN	??0CBitmap@@QAE@XZ:NEAR				; CBitmap::CBitmap
EXTRN	??0CRect@@QAE@HHHH@Z:NEAR			; CRect::CRect
EXTRN	??0CRect@@QAE@UtagPOINT@@UtagSIZE@@@Z:NEAR	; CRect::CRect
EXTRN	?Width@CRect@@QBEHXZ:NEAR			; CRect::Width
EXTRN	?Height@CRect@@QBEHXZ:NEAR			; CRect::Height
EXTRN	?TopLeft@CRect@@QAEAAVCPoint@@XZ:NEAR		; CRect::TopLeft
EXTRN	?BottomRight@CRect@@QAEAAVCPoint@@XZ:NEAR	; CRect::BottomRight
EXTRN	?CenterPoint@CRect@@QBE?AVCPoint@@XZ:NEAR	; CRect::CenterPoint
EXTRN	?CreateCompatibleBitmap@CBitmap@@QAEHPAVCDC@@HH@Z:NEAR ; CBitmap::CreateCompatibleBitmap
EXTRN	?Draw@CDibBitmap@@QAEHPAVCDC@@HKH@Z:NEAR	; CDibBitmap::Draw
EXTRN	??1CBitmap@@UAE@XZ:NEAR				; CBitmap::~CBitmap
EXTRN	?SetCDibRect@CDibBitmap@@QAEXVCRect@@@Z:NEAR	; CDibBitmap::SetCDibRect
EXTRN	?DeflateRect@CRect@@QAEXHHHH@Z:NEAR		; CRect::DeflateRect
EXTRN	?GetItem@CHeaderCtrl@@QBEHHPAU_HD_ITEMA@@@Z:NEAR ; CHeaderCtrl::GetItem
EXTRN	?GetClientRect@CWnd@@QBEXPAUtagRECT@@@Z:NEAR	; CWnd::GetClientRect
EXTRN	??0CDC@@QAE@XZ:NEAR				; CDC::CDC
EXTRN	?CreateCompatibleDC@CDC@@QAEHPAV1@@Z:NEAR	; CDC::CreateCompatibleDC
EXTRN	?SelectObject@CDC@@UAEPAVCFont@@PAV2@@Z:NEAR	; CDC::SelectObject
EXTRN	?SelectObject@CDC@@QAEPAVCBitmap@@PAV2@@Z:NEAR	; CDC::SelectObject
EXTRN	?SetBkMode@CDC@@QAEHH@Z:NEAR			; CDC::SetBkMode
EXTRN	?SetTextColor@CDC@@UAEKK@Z:NEAR			; CDC::SetTextColor
EXTRN	_memset:NEAR
EXTRN	_strcpy:NEAR
EXTRN	__imp_??0?$CStringT@DV?$StrTraitMFC_DLL@DV?$ChTraitsCRT@D@ATL@@@@@ATL@@QAE@PBD@Z:NEAR
EXTRN	__imp_??1?$CStringT@DV?$StrTraitMFC_DLL@DV?$ChTraitsCRT@D@ATL@@@@@ATL@@QAE@XZ:NEAR
xdata$x	SEGMENT
$T188869 DD	0ffffffffH
	DD	FLAT:$L188841
	DD	00H
	DD	FLAT:$L188842
	DD	01H
	DD	FLAT:$L188843
	DD	02H
	DD	FLAT:$L188844
	DD	03H
	DD	FLAT:$L188845
	DD	03H
	DD	FLAT:$L188846
$T188848 DD	019930520H
	DD	06H
	DD	FLAT:$T188869
	DD	2 DUP(00H)
	DD	2 DUP(00H)
; Function compile flags: /Odt /RTCsu
xdata$x	ENDS
_TEXT	SEGMENT
$T188840 = -1080					; size = 8
$T188839 = -1072					; size = 8
$T188838 = -1064					; size = 16
$T188837 = -1048					; size = 8
$T188836 = -1040					; size = 8
$T188835 = -1032					; size = 4
$T188834 = -1028					; size = 4
$T188833 = -1024					; size = 16
$T188832 = -1008					; size = 16
_p$188244 = -988					; size = 8
_imaSize$188243 = -972					; size = 8
_pBmp$188240 = -960					; size = 4
_calRect$188236 = -952					; size = 16
_hditem$188235 = -928					; size = 44
_buf$188234 = -876					; size = 256
_uFormat$188233 = -616					; size = 4
_hditem1$188224 = -608					; size = 44
_buf1$188223 = -556					; size = 256
_i$188219 = -296					; size = 4
_lf$ = -288						; size = 60
_font$ = -220						; size = 8
_def_font$ = -208					; size = 4
_nItems$ = -204						; size = 4
_hBitmap$ = -196					; size = 8
_hdcMem$ = -180						; size = 16
_rectItem$ = -156					; size = 16
_rect$ = -132						; size = 16
_dc$ = -108						; size = 84
_this$ = -20						; size = 4
__$ArrayPad$ = -16					; size = 4
__$EHRec$ = -12						; size = 12
__$ReturnAddr$ = 4					; size = 4
?OnPaint@CMyHeaderCtrl@@QAEXXZ PROC NEAR		; CMyHeaderCtrl::OnPaint
; _this$ = ecx

; 151  : {

  00530	55		 push	 ebp
  00531	8b ec		 mov	 ebp, esp
  00533	6a ff		 push	 -1
  00535	68 00 00 00 00	 push	 __ehhandler$?OnPaint@CMyHeaderCtrl@@QAEXXZ
  0053a	64 a1 00 00 00
	00		 mov	 eax, DWORD PTR fs:__except_list
  00540	50		 push	 eax
  00541	64 89 25 00 00
	00 00		 mov	 DWORD PTR fs:__except_list, esp
  00548	81 ec 2c 04 00
	00		 sub	 esp, 1068		; 0000042cH
  0054e	56		 push	 esi
  0054f	57		 push	 edi
  00550	51		 push	 ecx
  00551	8d bd c8 fb ff
	ff		 lea	 edi, DWORD PTR [ebp-1080]
  00557	b9 0b 01 00 00	 mov	 ecx, 267		; 0000010bH
  0055c	b8 cc cc cc cc	 mov	 eax, -858993460		; ccccccccH
  00561	f3 ab		 rep stosd
  00563	59		 pop	 ecx
  00564	a1 00 00 00 00	 mov	 eax, DWORD PTR ___security_cookie
  00569	89 45 f0	 mov	 DWORD PTR __$ArrayPad$[ebp], eax
  0056c	89 4d ec	 mov	 DWORD PTR _this$[ebp], ecx

; 152  : 	CPaintDC dc(this); 

  0056f	8b 45 ec	 mov	 eax, DWORD PTR _this$[ebp]
  00572	50		 push	 eax
  00573	8d 4d 94	 lea	 ecx, DWORD PTR _dc$[ebp]
  00576	e8 00 00 00 00	 call	 ??0CPaintDC@@QAE@PAVCWnd@@@Z ; CPaintDC::CPaintDC
  0057b	c7 45 fc 00 00
	00 00		 mov	 DWORD PTR __$EHRec$[ebp+8], 0

; 153  : 	CRect rect,rectItem;

  00582	8d 8d 7c ff ff
	ff		 lea	 ecx, DWORD PTR _rect$[ebp]
  00588	e8 00 00 00 00	 call	 ??0CRect@@QAE@XZ	; CRect::CRect
  0058d	8d 8d 64 ff ff
	ff		 lea	 ecx, DWORD PTR _rectItem$[ebp]
  00593	e8 00 00 00 00	 call	 ??0CRect@@QAE@XZ	; CRect::CRect

; 154  : 	GetClientRect(&rect);

  00598	8d 8d 7c ff ff
	ff		 lea	 ecx, DWORD PTR _rect$[ebp]
  0059e	51		 push	 ecx
  0059f	8b 4d ec	 mov	 ecx, DWORD PTR _this$[ebp]
  005a2	e8 00 00 00 00	 call	 ?GetClientRect@CWnd@@QBEXPAUtagRECT@@@Z ; CWnd::GetClientRect

; 155  : 
; 156  : 	CDC hdcMem;

  005a7	8d 8d 4c ff ff
	ff		 lea	 ecx, DWORD PTR _hdcMem$[ebp]
  005ad	e8 00 00 00 00	 call	 ??0CDC@@QAE@XZ		; CDC::CDC
  005b2	c6 45 fc 01	 mov	 BYTE PTR __$EHRec$[ebp+8], 1

; 157  : 	hdcMem.CreateCompatibleDC(NULL);

  005b6	6a 00		 push	 0
  005b8	8d 8d 4c ff ff
	ff		 lea	 ecx, DWORD PTR _hdcMem$[ebp]
  005be	e8 00 00 00 00	 call	 ?CreateCompatibleDC@CDC@@QAEHPAV1@@Z ; CDC::CreateCompatibleDC

; 158  : 	CBitmap hBitmap;

  005c3	8d 8d 3c ff ff
	ff		 lea	 ecx, DWORD PTR _hBitmap$[ebp]
  005c9	e8 00 00 00 00	 call	 ??0CBitmap@@QAE@XZ	; CBitmap::CBitmap
  005ce	c6 45 fc 02	 mov	 BYTE PTR __$EHRec$[ebp+8], 2

; 159  : 	hBitmap.CreateCompatibleBitmap(&dc,rect.Width(),rect.Height());

  005d2	8d 8d 7c ff ff
	ff		 lea	 ecx, DWORD PTR _rect$[ebp]
  005d8	e8 00 00 00 00	 call	 ?Height@CRect@@QBEHXZ	; CRect::Height
  005dd	50		 push	 eax
  005de	8d 8d 7c ff ff
	ff		 lea	 ecx, DWORD PTR _rect$[ebp]
  005e4	e8 00 00 00 00	 call	 ?Width@CRect@@QBEHXZ	; CRect::Width
  005e9	50		 push	 eax
  005ea	8d 55 94	 lea	 edx, DWORD PTR _dc$[ebp]
  005ed	52		 push	 edx
  005ee	8d 8d 3c ff ff
	ff		 lea	 ecx, DWORD PTR _hBitmap$[ebp]
  005f4	e8 00 00 00 00	 call	 ?CreateCompatibleBitmap@CBitmap@@QAEHPAVCDC@@HH@Z ; CBitmap::CreateCompatibleBitmap

; 160  : 	hdcMem.SelectObject(&hBitmap);

  005f9	8d 85 3c ff ff
	ff		 lea	 eax, DWORD PTR _hBitmap$[ebp]
  005ff	50		 push	 eax
  00600	8d 8d 4c ff ff
	ff		 lea	 ecx, DWORD PTR _hdcMem$[ebp]
  00606	e8 00 00 00 00	 call	 ?SelectObject@CDC@@QAEPAVCBitmap@@PAV2@@Z ; CDC::SelectObject

; 161  : 
; 162  : 	//CMemDC memDC(&dc, rect);
; 163  : 	int nItems = GetItemCount();

  0060b	8b 4d ec	 mov	 ecx, DWORD PTR _this$[ebp]
  0060e	e8 00 00 00 00	 call	 ?GetItemCount@CHeaderCtrl@@QBEHXZ ; CHeaderCtrl::GetItemCount
  00613	89 85 34 ff ff
	ff		 mov	 DWORD PTR _nItems$[ebp], eax

; 164  : 
; 165  : 	if( m_pBitmapBk != NULL )

  00619	8b 4d ec	 mov	 ecx, DWORD PTR _this$[ebp]
  0061c	83 79 54 00	 cmp	 DWORD PTR [ecx+84], 0
  00620	74 42		 je	 SHORT $L188213

; 166  : 	{
; 167  : 		m_pBitmapBk->SetCDibRect( rect );

  00622	83 ec 10	 sub	 esp, 16			; 00000010H
  00625	8b d4		 mov	 edx, esp
  00627	8b 85 7c ff ff
	ff		 mov	 eax, DWORD PTR _rect$[ebp]
  0062d	89 02		 mov	 DWORD PTR [edx], eax
  0062f	8b 4d 80	 mov	 ecx, DWORD PTR _rect$[ebp+4]
  00632	89 4a 04	 mov	 DWORD PTR [edx+4], ecx
  00635	8b 45 84	 mov	 eax, DWORD PTR _rect$[ebp+8]
  00638	89 42 08	 mov	 DWORD PTR [edx+8], eax
  0063b	8b 4d 88	 mov	 ecx, DWORD PTR _rect$[ebp+12]
  0063e	89 4a 0c	 mov	 DWORD PTR [edx+12], ecx
  00641	8b 55 ec	 mov	 edx, DWORD PTR _this$[ebp]
  00644	8b 4a 54	 mov	 ecx, DWORD PTR [edx+84]
  00647	e8 00 00 00 00	 call	 ?SetCDibRect@CDibBitmap@@QAEXVCRect@@@Z ; CDibBitmap::SetCDibRect

; 168  : 		m_pBitmapBk->Draw( &hdcMem,FALSE );

  0064c	6a 01		 push	 1
  0064e	6a 00		 push	 0
  00650	6a 00		 push	 0
  00652	8d 85 4c ff ff
	ff		 lea	 eax, DWORD PTR _hdcMem$[ebp]
  00658	50		 push	 eax
  00659	8b 4d ec	 mov	 ecx, DWORD PTR _this$[ebp]
  0065c	8b 49 54	 mov	 ecx, DWORD PTR [ecx+84]
  0065f	e8 00 00 00 00	 call	 ?Draw@CDibBitmap@@QAEHPAVCDC@@HKH@Z ; CDibBitmap::Draw
$L188213:

; 169  : 	}
; 170  : 
; 171  : 	
; 172  : 	CFont* def_font;
; 173  : 	CFont font;

  00664	8d 8d 24 ff ff
	ff		 lea	 ecx, DWORD PTR _font$[ebp]
  0066a	e8 00 00 00 00	 call	 ??0CFont@@QAE@XZ	; CFont::CFont
  0066f	c6 45 fc 03	 mov	 BYTE PTR __$EHRec$[ebp+8], 3

; 174  : 	LOGFONT lf;
; 175  : 	memset(&lf, 0, sizeof(LOGFONT));

  00673	6a 3c		 push	 60			; 0000003cH
  00675	6a 00		 push	 0
  00677	8d 95 e0 fe ff
	ff		 lea	 edx, DWORD PTR _lf$[ebp]
  0067d	52		 push	 edx
  0067e	e8 00 00 00 00	 call	 _memset
  00683	83 c4 0c	 add	 esp, 12			; 0000000cH

; 176  : 	lf.lfHeight = 12;

  00686	c7 85 e0 fe ff
	ff 0c 00 00 00	 mov	 DWORD PTR _lf$[ebp], 12	; 0000000cH

; 177  : 	strcpy(lf.lfFaceName, "ו");

  00690	68 00 00 00 00	 push	 OFFSET FLAT:$SG188218
  00695	8d 85 fc fe ff
	ff		 lea	 eax, DWORD PTR _lf$[ebp+28]
  0069b	50		 push	 eax
  0069c	e8 00 00 00 00	 call	 _strcpy
  006a1	83 c4 08	 add	 esp, 8

; 178  : 	font.CreateFontIndirect(&lf);

  006a4	8d 8d e0 fe ff
	ff		 lea	 ecx, DWORD PTR _lf$[ebp]
  006aa	51		 push	 ecx
  006ab	8d 8d 24 ff ff
	ff		 lea	 ecx, DWORD PTR _font$[ebp]
  006b1	e8 00 00 00 00	 call	 ?CreateFontIndirectA@CFont@@QAEHPBUtagLOGFONTA@@@Z ; CFont::CreateFontIndirectA

; 179  : 	def_font = hdcMem.SelectObject(&font);	

  006b6	8d 95 24 ff ff
	ff		 lea	 edx, DWORD PTR _font$[ebp]
  006bc	52		 push	 edx
  006bd	8d 8d 4c ff ff
	ff		 lea	 ecx, DWORD PTR _hdcMem$[ebp]
  006c3	e8 00 00 00 00	 call	 ?SelectObject@CDC@@UAEPAVCFont@@PAV2@@Z ; CDC::SelectObject
  006c8	89 85 30 ff ff
	ff		 mov	 DWORD PTR _def_font$[ebp], eax

; 180  : 
; 181  : 
; 182  : 	hdcMem.SetBkMode(TRANSPARENT);

  006ce	6a 01		 push	 1
  006d0	8d 8d 4c ff ff
	ff		 lea	 ecx, DWORD PTR _hdcMem$[ebp]
  006d6	e8 00 00 00 00	 call	 ?SetBkMode@CDC@@QAEHH@Z	; CDC::SetBkMode

; 183  : 	hdcMem.SetTextColor(m_fontColor) ;

  006db	8b 45 ec	 mov	 eax, DWORD PTR _this$[ebp]
  006de	8b 88 80 00 00
	00		 mov	 ecx, DWORD PTR [eax+128]
  006e4	51		 push	 ecx
  006e5	8d 8d 4c ff ff
	ff		 lea	 ecx, DWORD PTR _hdcMem$[ebp]
  006eb	e8 00 00 00 00	 call	 ?SetTextColor@CDC@@UAEKK@Z ; CDC::SetTextColor

; 184  : 			
; 185  : 	for(int i = 0; i <nItems; i++)

  006f0	c7 85 d8 fe ff
	ff 00 00 00 00	 mov	 DWORD PTR _i$188219[ebp], 0
  006fa	eb 0f		 jmp	 SHORT $L188220
$L188221:
  006fc	8b 95 d8 fe ff
	ff		 mov	 edx, DWORD PTR _i$188219[ebp]
  00702	83 c2 01	 add	 edx, 1
  00705	89 95 d8 fe ff
	ff		 mov	 DWORD PTR _i$188219[ebp], edx
$L188220:
  0070b	8b 85 d8 fe ff
	ff		 mov	 eax, DWORD PTR _i$188219[ebp]
  00711	3b 85 34 ff ff
	ff		 cmp	 eax, DWORD PTR _nItems$[ebp]
  00717	0f 8d 22 05 00
	00		 jge	 $L188222

; 186  : 	{
; 187  : 		TCHAR buf1[256];
; 188  : 		HD_ITEM hditem1;
; 189  : 		
; 190  : 		hditem1.mask = HDI_TEXT | HDI_FORMAT | HDI_ORDER;

  0071d	c7 85 a0 fd ff
	ff 86 00 00 00	 mov	 DWORD PTR _hditem1$188224[ebp], 134 ; 00000086H

; 191  : 		hditem1.pszText = buf1;

  00727	8d 8d d4 fd ff
	ff		 lea	 ecx, DWORD PTR _buf1$188223[ebp]
  0072d	89 8d a8 fd ff
	ff		 mov	 DWORD PTR _hditem1$188224[ebp+8], ecx

; 192  : 		hditem1.cchTextMax = 255;

  00733	c7 85 b0 fd ff
	ff ff 00 00 00	 mov	 DWORD PTR _hditem1$188224[ebp+16], 255 ; 000000ffH

; 193  : 		GetItem( i, &hditem1 );	

  0073d	8d 95 a0 fd ff
	ff		 lea	 edx, DWORD PTR _hditem1$188224[ebp]
  00743	52		 push	 edx
  00744	8b 85 d8 fe ff
	ff		 mov	 eax, DWORD PTR _i$188219[ebp]
  0074a	50		 push	 eax
  0074b	8b 4d ec	 mov	 ecx, DWORD PTR _this$[ebp]
  0074e	e8 00 00 00 00	 call	 ?GetItem@CHeaderCtrl@@QBEHHPAU_HD_ITEMA@@@Z ; CHeaderCtrl::GetItem

; 194  : 		GetItemRect(i, &rect);

  00753	8d 8d 7c ff ff
	ff		 lea	 ecx, DWORD PTR _rect$[ebp]
  00759	51		 push	 ecx
  0075a	8b 95 d8 fe ff
	ff		 mov	 edx, DWORD PTR _i$188219[ebp]
  00760	52		 push	 edx
  00761	8b 4d ec	 mov	 ecx, DWORD PTR _this$[ebp]
  00764	e8 00 00 00 00	 call	 ?GetItemRect@CHeaderCtrl@@QBEHHPAUtagRECT@@@Z ; CHeaderCtrl::GetItemRect

; 195  : 
; 196  : 		if( m_nHoverItem == i )

  00769	8b 45 ec	 mov	 eax, DWORD PTR _this$[ebp]
  0076c	8b 48 70	 mov	 ecx, DWORD PTR [eax+112]
  0076f	3b 8d d8 fe ff
	ff		 cmp	 ecx, DWORD PTR _i$188219[ebp]
  00775	0f 85 91 00 00
	00		 jne	 $L188225

; 197  : 		{
; 198  : 			if(this->m_bLButtonDown)

  0077b	8b 55 ec	 mov	 edx, DWORD PTR _this$[ebp]
  0077e	0f b6 42 75	 movzx	 eax, BYTE PTR [edx+117]
  00782	85 c0		 test	 eax, eax
  00784	74 44		 je	 SHORT $L188226

; 199  : 			{
; 200  : 				m_pBitmapBkDown->SetCDibRect( rect );

  00786	83 ec 10	 sub	 esp, 16			; 00000010H
  00789	8b cc		 mov	 ecx, esp
  0078b	8b 95 7c ff ff
	ff		 mov	 edx, DWORD PTR _rect$[ebp]
  00791	89 11		 mov	 DWORD PTR [ecx], edx
  00793	8b 45 80	 mov	 eax, DWORD PTR _rect$[ebp+4]
  00796	89 41 04	 mov	 DWORD PTR [ecx+4], eax
  00799	8b 55 84	 mov	 edx, DWORD PTR _rect$[ebp+8]
  0079c	89 51 08	 mov	 DWORD PTR [ecx+8], edx
  0079f	8b 45 88	 mov	 eax, DWORD PTR _rect$[ebp+12]
  007a2	89 41 0c	 mov	 DWORD PTR [ecx+12], eax
  007a5	8b 4d ec	 mov	 ecx, DWORD PTR _this$[ebp]
  007a8	8b 49 68	 mov	 ecx, DWORD PTR [ecx+104]
  007ab	e8 00 00 00 00	 call	 ?SetCDibRect@CDibBitmap@@QAEXVCRect@@@Z ; CDibBitmap::SetCDibRect

; 201  : 				m_pBitmapBkDown->Draw( &hdcMem,FALSE );

  007b0	6a 01		 push	 1
  007b2	6a 00		 push	 0
  007b4	6a 00		 push	 0
  007b6	8d 95 4c ff ff
	ff		 lea	 edx, DWORD PTR _hdcMem$[ebp]
  007bc	52		 push	 edx
  007bd	8b 45 ec	 mov	 eax, DWORD PTR _this$[ebp]
  007c0	8b 48 68	 mov	 ecx, DWORD PTR [eax+104]
  007c3	e8 00 00 00 00	 call	 ?Draw@CDibBitmap@@QAEHPAVCDC@@HKH@Z ; CDibBitmap::Draw

; 202  : 			}
; 203  : 			else

  007c8	eb 42		 jmp	 SHORT $L188225
$L188226:

; 204  : 			{
; 205  : 				m_pBitmapBkOver->SetCDibRect( rect );

  007ca	83 ec 10	 sub	 esp, 16			; 00000010H
  007cd	8b cc		 mov	 ecx, esp
  007cf	8b 95 7c ff ff
	ff		 mov	 edx, DWORD PTR _rect$[ebp]
  007d5	89 11		 mov	 DWORD PTR [ecx], edx
  007d7	8b 45 80	 mov	 eax, DWORD PTR _rect$[ebp+4]
  007da	89 41 04	 mov	 DWORD PTR [ecx+4], eax
  007dd	8b 55 84	 mov	 edx, DWORD PTR _rect$[ebp+8]
  007e0	89 51 08	 mov	 DWORD PTR [ecx+8], edx
  007e3	8b 45 88	 mov	 eax, DWORD PTR _rect$[ebp+12]
  007e6	89 41 0c	 mov	 DWORD PTR [ecx+12], eax
  007e9	8b 4d ec	 mov	 ecx, DWORD PTR _this$[ebp]
  007ec	8b 49 60	 mov	 ecx, DWORD PTR [ecx+96]
  007ef	e8 00 00 00 00	 call	 ?SetCDibRect@CDibBitmap@@QAEXVCRect@@@Z ; CDibBitmap::SetCDibRect

; 206  : 				m_pBitmapBkOver->Draw( &hdcMem,FALSE );

  007f4	6a 01		 push	 1
  007f6	6a 00		 push	 0
  007f8	6a 00		 push	 0
  007fa	8d 95 4c ff ff
	ff		 lea	 edx, DWORD PTR _hdcMem$[ebp]
  00800	52		 push	 edx
  00801	8b 45 ec	 mov	 eax, DWORD PTR _this$[ebp]
  00804	8b 48 60	 mov	 ecx, DWORD PTR [eax+96]
  00807	e8 00 00 00 00	 call	 ?Draw@CDibBitmap@@QAEHPAVCDC@@HKH@Z ; CDibBitmap::Draw
$L188225:

; 207  : 			}
; 208  : 		}
; 209  : 		if( m_pBitmapMidLine != NULL )

  0080c	8b 4d ec	 mov	 ecx, DWORD PTR _this$[ebp]
  0080f	83 79 58 00	 cmp	 DWORD PTR [ecx+88], 0
  00813	0f 84 23 01 00
	00		 je	 $L188228

; 210  : 		{
; 211  : 			if(m_nHoverItem == i)

  00819	8b 55 ec	 mov	 edx, DWORD PTR _this$[ebp]
  0081c	8b 42 70	 mov	 eax, DWORD PTR [edx+112]
  0081f	3b 85 d8 fe ff
	ff		 cmp	 eax, DWORD PTR _i$188219[ebp]
  00825	0f 85 8b 00 00
	00		 jne	 $L188229

; 212  : 			{
; 213  : 				m_pBitmapMidLineOver->SetCDibRect(CRect(rect.BottomRight().x-1,rect.TopLeft().y,rect.BottomRight().x,rect.BottomRight().y));

  0082b	8d 8d 7c ff ff
	ff		 lea	 ecx, DWORD PTR _rect$[ebp]
  00831	e8 00 00 00 00	 call	 ?BottomRight@CRect@@QAEAAVCPoint@@XZ ; CRect::BottomRight
  00836	8b 48 04	 mov	 ecx, DWORD PTR [eax+4]
  00839	51		 push	 ecx
  0083a	8d 8d 7c ff ff
	ff		 lea	 ecx, DWORD PTR _rect$[ebp]
  00840	e8 00 00 00 00	 call	 ?BottomRight@CRect@@QAEAAVCPoint@@XZ ; CRect::BottomRight
  00845	8b 10		 mov	 edx, DWORD PTR [eax]
  00847	52		 push	 edx
  00848	8d 8d 7c ff ff
	ff		 lea	 ecx, DWORD PTR _rect$[ebp]
  0084e	e8 00 00 00 00	 call	 ?TopLeft@CRect@@QAEAAVCPoint@@XZ ; CRect::TopLeft
  00853	8b 40 04	 mov	 eax, DWORD PTR [eax+4]
  00856	50		 push	 eax
  00857	8d 8d 7c ff ff
	ff		 lea	 ecx, DWORD PTR _rect$[ebp]
  0085d	e8 00 00 00 00	 call	 ?BottomRight@CRect@@QAEAAVCPoint@@XZ ; CRect::BottomRight
  00862	8b 08		 mov	 ecx, DWORD PTR [eax]
  00864	83 e9 01	 sub	 ecx, 1
  00867	51		 push	 ecx
  00868	8d 8d 10 fc ff
	ff		 lea	 ecx, DWORD PTR $T188832[ebp]
  0086e	e8 00 00 00 00	 call	 ??0CRect@@QAE@HHHH@Z	; CRect::CRect
  00873	83 ec 10	 sub	 esp, 16			; 00000010H
  00876	8b d4		 mov	 edx, esp
  00878	8b 08		 mov	 ecx, DWORD PTR [eax]
  0087a	89 0a		 mov	 DWORD PTR [edx], ecx
  0087c	8b 48 04	 mov	 ecx, DWORD PTR [eax+4]
  0087f	89 4a 04	 mov	 DWORD PTR [edx+4], ecx
  00882	8b 48 08	 mov	 ecx, DWORD PTR [eax+8]
  00885	89 4a 08	 mov	 DWORD PTR [edx+8], ecx
  00888	8b 40 0c	 mov	 eax, DWORD PTR [eax+12]
  0088b	89 42 0c	 mov	 DWORD PTR [edx+12], eax
  0088e	8b 4d ec	 mov	 ecx, DWORD PTR _this$[ebp]
  00891	8b 49 64	 mov	 ecx, DWORD PTR [ecx+100]
  00894	e8 00 00 00 00	 call	 ?SetCDibRect@CDibBitmap@@QAEXVCRect@@@Z ; CDibBitmap::SetCDibRect

; 214  : 				m_pBitmapMidLineOver->Draw(&hdcMem,FALSE);

  00899	6a 01		 push	 1
  0089b	6a 00		 push	 0
  0089d	6a 00		 push	 0
  0089f	8d 95 4c ff ff
	ff		 lea	 edx, DWORD PTR _hdcMem$[ebp]
  008a5	52		 push	 edx
  008a6	8b 45 ec	 mov	 eax, DWORD PTR _this$[ebp]
  008a9	8b 48 64	 mov	 ecx, DWORD PTR [eax+100]
  008ac	e8 00 00 00 00	 call	 ?Draw@CDibBitmap@@QAEHPAVCDC@@HKH@Z ; CDibBitmap::Draw

; 215  : // 				int start = rect.TopLeft().x == 0 ? 0 : rect.TopLeft().x - 1;
; 216  : // 				m_pBitmapMidLineOver->SetCDibRect(CRect(start ,rect.TopLeft().y,start + 1,rect.BottomRight().y));
; 217  : // 				m_pBitmapMidLineOver->Draw(&hdcMem,FALSE);
; 218  : 			}
; 219  : 			else

  008b1	e9 86 00 00 00	 jmp	 $L188228
$L188229:

; 220  : 			{
; 221  : // 				m_pBitmapMidLine->SetCDibRect(CRect(rect.BottomRight().x-1,rect.TopLeft().y,rect.BottomRight().x+2,rect.BottomRight().y));
; 222  : // 				m_pBitmapMidLine->Draw(&hdcMem,FALSE);
; 223  : 
; 224  : 				m_pBitmapMidLineOver->SetCDibRect(CRect(rect.BottomRight().x-1,rect.TopLeft().y,rect.BottomRight().x,rect.BottomRight().y));

  008b6	8d 8d 7c ff ff
	ff		 lea	 ecx, DWORD PTR _rect$[ebp]
  008bc	e8 00 00 00 00	 call	 ?BottomRight@CRect@@QAEAAVCPoint@@XZ ; CRect::BottomRight
  008c1	8b 48 04	 mov	 ecx, DWORD PTR [eax+4]
  008c4	51		 push	 ecx
  008c5	8d 8d 7c ff ff
	ff		 lea	 ecx, DWORD PTR _rect$[ebp]
  008cb	e8 00 00 00 00	 call	 ?BottomRight@CRect@@QAEAAVCPoint@@XZ ; CRect::BottomRight
  008d0	8b 10		 mov	 edx, DWORD PTR [eax]
  008d2	52		 push	 edx
  008d3	8d 8d 7c ff ff
	ff		 lea	 ecx, DWORD PTR _rect$[ebp]
  008d9	e8 00 00 00 00	 call	 ?TopLeft@CRect@@QAEAAVCPoint@@XZ ; CRect::TopLeft
  008de	8b 40 04	 mov	 eax, DWORD PTR [eax+4]
  008e1	50		 push	 eax
  008e2	8d 8d 7c ff ff
	ff		 lea	 ecx, DWORD PTR _rect$[ebp]
  008e8	e8 00 00 00 00	 call	 ?BottomRight@CRect@@QAEAAVCPoint@@XZ ; CRect::BottomRight
  008ed	8b 08		 mov	 ecx, DWORD PTR [eax]
  008ef	83 e9 01	 sub	 ecx, 1
  008f2	51		 push	 ecx
  008f3	8d 8d 00 fc ff
	ff		 lea	 ecx, DWORD PTR $T188833[ebp]
  008f9	e8 00 00 00 00	 call	 ??0CRect@@QAE@HHHH@Z	; CRect::CRect
  008fe	83 ec 10	 sub	 esp, 16			; 00000010H
  00901	8b d4		 mov	 edx, esp
  00903	8b 08		 mov	 ecx, DWORD PTR [eax]
  00905	89 0a		 mov	 DWORD PTR [edx], ecx
  00907	8b 48 04	 mov	 ecx, DWORD PTR [eax+4]
  0090a	89 4a 04	 mov	 DWORD PTR [edx+4], ecx
  0090d	8b 48 08	 mov	 ecx, DWORD PTR [eax+8]
  00910	89 4a 08	 mov	 DWORD PTR [edx+8], ecx
  00913	8b 40 0c	 mov	 eax, DWORD PTR [eax+12]
  00916	89 42 0c	 mov	 DWORD PTR [edx+12], eax
  00919	8b 4d ec	 mov	 ecx, DWORD PTR _this$[ebp]
  0091c	8b 49 64	 mov	 ecx, DWORD PTR [ecx+100]
  0091f	e8 00 00 00 00	 call	 ?SetCDibRect@CDibBitmap@@QAEXVCRect@@@Z ; CDibBitmap::SetCDibRect

; 225  : 				m_pBitmapMidLineOver->Draw(&hdcMem,FALSE);

  00924	6a 01		 push	 1
  00926	6a 00		 push	 0
  00928	6a 00		 push	 0
  0092a	8d 95 4c ff ff
	ff		 lea	 edx, DWORD PTR _hdcMem$[ebp]
  00930	52		 push	 edx
  00931	8b 45 ec	 mov	 eax, DWORD PTR _this$[ebp]
  00934	8b 48 64	 mov	 ecx, DWORD PTR [eax+100]
  00937	e8 00 00 00 00	 call	 ?Draw@CDibBitmap@@QAEHPAVCDC@@HKH@Z ; CDibBitmap::Draw
$L188228:

; 226  : 			}
; 227  : 		}
; 228  : 
; 229  : 		GetItemRect(i, &rectItem);

  0093c	8d 8d 64 ff ff
	ff		 lea	 ecx, DWORD PTR _rectItem$[ebp]
  00942	51		 push	 ecx
  00943	8b 95 d8 fe ff
	ff		 mov	 edx, DWORD PTR _i$188219[ebp]
  00949	52		 push	 edx
  0094a	8b 4d ec	 mov	 ecx, DWORD PTR _this$[ebp]
  0094d	e8 00 00 00 00	 call	 ?GetItemRect@CHeaderCtrl@@QBEHHPAUtagRECT@@@Z ; CHeaderCtrl::GetItemRect

; 230  : 		//DRAWITEMSTRUCT	DrawItemStruct;
; 231  : 		//		
; 232  : 		//DrawItemStruct.CtlType		= ODT_HEADER;
; 233  : 		//DrawItemStruct.hDC			= dc.GetSafeHdc();
; 234  : 		//DrawItemStruct.itemAction	= ODA_DRAWENTIRE; 
; 235  : 		//DrawItemStruct.hwndItem 	= GetSafeHwnd(); 
; 236  : 		//DrawItemStruct.rcItem	= rectItem;
; 237  : 		//DrawItemStruct.itemID	= i;*/
; 238  : ////		DrawItem(&DrawItemStruct);
; 239  : 		
; 240  : 		UINT uFormat = DT_SINGLELINE | DT_NOPREFIX | DT_TOP |DT_CENTER | DT_END_ELLIPSIS | DT_VCENTER;

  00952	c7 85 98 fd ff
	ff 25 88 00 00	 mov	 DWORD PTR _uFormat$188233[ebp], 34853 ; 00008825H

; 241  : 
; 242  : 		rectItem.DeflateRect(2,2,2,2);

  0095c	6a 02		 push	 2
  0095e	6a 02		 push	 2
  00960	6a 02		 push	 2
  00962	6a 02		 push	 2
  00964	8d 8d 64 ff ff
	ff		 lea	 ecx, DWORD PTR _rectItem$[ebp]
  0096a	e8 00 00 00 00	 call	 ?DeflateRect@CRect@@QAEXHHHH@Z ; CRect::DeflateRect

; 243  : 		
; 244  : 		TCHAR buf[256];
; 245  : 		HD_ITEM hditem;
; 246  : 		
; 247  : 		hditem.mask = HDI_TEXT | HDI_FORMAT | HDI_ORDER ;

  0096f	c7 85 60 fc ff
	ff 86 00 00 00	 mov	 DWORD PTR _hditem$188235[ebp], 134 ; 00000086H

; 248  : 		hditem.pszText = buf;

  00979	8d 85 94 fc ff
	ff		 lea	 eax, DWORD PTR _buf$188234[ebp]
  0097f	89 85 68 fc ff
	ff		 mov	 DWORD PTR _hditem$188235[ebp+8], eax

; 249  : 		hditem.cchTextMax = 255;

  00985	c7 85 70 fc ff
	ff ff 00 00 00	 mov	 DWORD PTR _hditem$188235[ebp+16], 255 ; 000000ffH

; 250  : 		GetItem( i, &hditem );

  0098f	8d 8d 60 fc ff
	ff		 lea	 ecx, DWORD PTR _hditem$188235[ebp]
  00995	51		 push	 ecx
  00996	8b 95 d8 fe ff
	ff		 mov	 edx, DWORD PTR _i$188219[ebp]
  0099c	52		 push	 edx
  0099d	8b 4d ec	 mov	 ecx, DWORD PTR _this$[ebp]
  009a0	e8 00 00 00 00	 call	 ?GetItem@CHeaderCtrl@@QBEHHPAU_HD_ITEMA@@@Z ; CHeaderCtrl::GetItem

; 251  : 		
; 252  : 		CRect calRect = rectItem;

  009a5	8b 85 64 ff ff
	ff		 mov	 eax, DWORD PTR _rectItem$[ebp]
  009ab	89 85 48 fc ff
	ff		 mov	 DWORD PTR _calRect$188236[ebp], eax
  009b1	8b 8d 68 ff ff
	ff		 mov	 ecx, DWORD PTR _rectItem$[ebp+4]
  009b7	89 8d 4c fc ff
	ff		 mov	 DWORD PTR _calRect$188236[ebp+4], ecx
  009bd	8b 95 6c ff ff
	ff		 mov	 edx, DWORD PTR _rectItem$[ebp+8]
  009c3	89 95 50 fc ff
	ff		 mov	 DWORD PTR _calRect$188236[ebp+8], edx
  009c9	8b 85 70 ff ff
	ff		 mov	 eax, DWORD PTR _rectItem$[ebp+12]
  009cf	89 85 54 fc ff
	ff		 mov	 DWORD PTR _calRect$188236[ebp+12], eax

; 253  : 		hdcMem.DrawText(buf, &calRect, DT_CALCRECT | DT_CENTER |DT_VCENTER);

  009d5	8b f4		 mov	 esi, esp
  009d7	8d 8d 94 fc ff
	ff		 lea	 ecx, DWORD PTR _buf$188234[ebp]
  009dd	51		 push	 ecx
  009de	8d 8d fc fb ff
	ff		 lea	 ecx, DWORD PTR $T188834[ebp]
  009e4	ff 15 00 00 00
	00		 call	 DWORD PTR __imp_??0?$CStringT@DV?$StrTraitMFC_DLL@DV?$ChTraitsCRT@D@ATL@@@@@ATL@@QAE@PBD@Z
  009ea	3b f4		 cmp	 esi, esp
  009ec	e8 00 00 00 00	 call	 __RTC_CheckEsp
  009f1	c6 45 fc 04	 mov	 BYTE PTR __$EHRec$[ebp+8], 4
  009f5	68 05 04 00 00	 push	 1029			; 00000405H
  009fa	8d 95 48 fc ff
	ff		 lea	 edx, DWORD PTR _calRect$188236[ebp]
  00a00	52		 push	 edx
  00a01	8d 85 fc fb ff
	ff		 lea	 eax, DWORD PTR $T188834[ebp]
  00a07	50		 push	 eax
  00a08	8d 8d 4c ff ff
	ff		 lea	 ecx, DWORD PTR _hdcMem$[ebp]
  00a0e	e8 00 00 00 00	 call	 ?DrawTextA@CDC@@QAEHABV?$CStringT@DV?$StrTraitMFC_DLL@DV?$ChTraitsCRT@D@ATL@@@@@ATL@@PAUtagRECT@@I@Z ; CDC::DrawTextA
  00a13	c6 45 fc 03	 mov	 BYTE PTR __$EHRec$[ebp+8], 3
  00a17	8b f4		 mov	 esi, esp
  00a19	8d 8d fc fb ff
	ff		 lea	 ecx, DWORD PTR $T188834[ebp]
  00a1f	ff 15 00 00 00
	00		 call	 DWORD PTR __imp_??1?$CStringT@DV?$StrTraitMFC_DLL@DV?$ChTraitsCRT@D@ATL@@@@@ATL@@QAE@XZ
  00a25	3b f4		 cmp	 esi, esp
  00a27	e8 00 00 00 00	 call	 __RTC_CheckEsp

; 254  : 		hdcMem.DrawText(buf, &rectItem, uFormat);

  00a2c	8b f4		 mov	 esi, esp
  00a2e	8d 8d 94 fc ff
	ff		 lea	 ecx, DWORD PTR _buf$188234[ebp]
  00a34	51		 push	 ecx
  00a35	8d 8d f8 fb ff
	ff		 lea	 ecx, DWORD PTR $T188835[ebp]
  00a3b	ff 15 00 00 00
	00		 call	 DWORD PTR __imp_??0?$CStringT@DV?$StrTraitMFC_DLL@DV?$ChTraitsCRT@D@ATL@@@@@ATL@@QAE@PBD@Z
  00a41	3b f4		 cmp	 esi, esp
  00a43	e8 00 00 00 00	 call	 __RTC_CheckEsp
  00a48	c6 45 fc 05	 mov	 BYTE PTR __$EHRec$[ebp+8], 5
  00a4c	8b 95 98 fd ff
	ff		 mov	 edx, DWORD PTR _uFormat$188233[ebp]
  00a52	52		 push	 edx
  00a53	8d 85 64 ff ff
	ff		 lea	 eax, DWORD PTR _rectItem$[ebp]
  00a59	50		 push	 eax
  00a5a	8d 8d f8 fb ff
	ff		 lea	 ecx, DWORD PTR $T188835[ebp]
  00a60	51		 push	 ecx
  00a61	8d 8d 4c ff ff
	ff		 lea	 ecx, DWORD PTR _hdcMem$[ebp]
  00a67	e8 00 00 00 00	 call	 ?DrawTextA@CDC@@QAEHABV?$CStringT@DV?$StrTraitMFC_DLL@DV?$ChTraitsCRT@D@ATL@@@@@ATL@@PAUtagRECT@@I@Z ; CDC::DrawTextA
  00a6c	c6 45 fc 03	 mov	 BYTE PTR __$EHRec$[ebp+8], 3
  00a70	8b f4		 mov	 esi, esp
  00a72	8d 8d f8 fb ff
	ff		 lea	 ecx, DWORD PTR $T188835[ebp]
  00a78	ff 15 00 00 00
	00		 call	 DWORD PTR __imp_??1?$CStringT@DV?$StrTraitMFC_DLL@DV?$ChTraitsCRT@D@ATL@@@@@ATL@@QAE@XZ
  00a7e	3b f4		 cmp	 esi, esp
  00a80	e8 00 00 00 00	 call	 __RTC_CheckEsp

; 255  : 		
; 256  : 
; 257  : 		if( i == m_pList->m_iSortItem )

  00a85	8b 55 ec	 mov	 edx, DWORD PTR _this$[ebp]
  00a88	8b 82 84 00 00
	00		 mov	 eax, DWORD PTR [edx+132]
  00a8e	8b 8d d8 fe ff
	ff		 mov	 ecx, DWORD PTR _i$188219[ebp]
  00a94	3b 88 34 01 00
	00		 cmp	 ecx, DWORD PTR [eax+308]
  00a9a	0f 85 9a 01 00
	00		 jne	 $L188239

; 258  : 		{
; 259  : 			CDibBitmap * pBmp = NULL;

  00aa0	c7 85 40 fc ff
	ff 00 00 00 00	 mov	 DWORD PTR _pBmp$188240[ebp], 0

; 260  : 
; 261  : 			if( !m_pList->m_bAsc )

  00aaa	8b 55 ec	 mov	 edx, DWORD PTR _this$[ebp]
  00aad	8b 82 84 00 00
	00		 mov	 eax, DWORD PTR [edx+132]
  00ab3	0f b6 88 30 01
	00 00		 movzx	 ecx, BYTE PTR [eax+304]
  00aba	85 c9		 test	 ecx, ecx
  00abc	75 0e		 jne	 SHORT $L188241

; 262  : 			{
; 263  : 				pBmp = m_pBitmapAsc;

  00abe	8b 55 ec	 mov	 edx, DWORD PTR _this$[ebp]
  00ac1	8b 42 5c	 mov	 eax, DWORD PTR [edx+92]
  00ac4	89 85 40 fc ff
	ff		 mov	 DWORD PTR _pBmp$188240[ebp], eax

; 264  : 			}
; 265  : 			else

  00aca	eb 0c		 jmp	 SHORT $L188242
$L188241:

; 266  : 			{
; 267  : 				pBmp = m_pBitmapDesc;

  00acc	8b 4d ec	 mov	 ecx, DWORD PTR _this$[ebp]
  00acf	8b 51 6c	 mov	 edx, DWORD PTR [ecx+108]
  00ad2	89 95 40 fc ff
	ff		 mov	 DWORD PTR _pBmp$188240[ebp], edx
$L188242:

; 268  : 			}
; 269  : 
; 270  : 			CSize imaSize;

  00ad8	8d 8d 34 fc ff
	ff		 lea	 ecx, DWORD PTR _imaSize$188243[ebp]
  00ade	e8 00 00 00 00	 call	 ??0CSize@@QAE@XZ	; CSize::CSize

; 271  : 			CPoint p;

  00ae3	8d 8d 24 fc ff
	ff		 lea	 ecx, DWORD PTR _p$188244[ebp]
  00ae9	e8 00 00 00 00	 call	 ??0CPoint@@QAE@XZ	; CPoint::CPoint

; 272  : 
; 273  : 			imaSize = pBmp->GetDimensions();

  00aee	8d 85 f0 fb ff
	ff		 lea	 eax, DWORD PTR $T188836[ebp]
  00af4	50		 push	 eax
  00af5	8b 8d 40 fc ff
	ff		 mov	 ecx, DWORD PTR _pBmp$188240[ebp]
  00afb	e8 00 00 00 00	 call	 ?GetDimensions@CDib@@QAE?AVCSize@@XZ ; CDib::GetDimensions
  00b00	8b 08		 mov	 ecx, DWORD PTR [eax]
  00b02	8b 50 04	 mov	 edx, DWORD PTR [eax+4]
  00b05	89 8d 34 fc ff
	ff		 mov	 DWORD PTR _imaSize$188243[ebp], ecx
  00b0b	89 95 38 fc ff
	ff		 mov	 DWORD PTR _imaSize$188243[ebp+4], edx

; 274  : 			p.x = calRect.right + 2 + rectItem.Width() / 2 - calRect.Width() / 2;

  00b11	8d 8d 64 ff ff
	ff		 lea	 ecx, DWORD PTR _rectItem$[ebp]
  00b17	e8 00 00 00 00	 call	 ?Width@CRect@@QBEHXZ	; CRect::Width
  00b1c	99		 cdq
  00b1d	2b c2		 sub	 eax, edx
  00b1f	d1 f8		 sar	 eax, 1
  00b21	8b 8d 50 fc ff
	ff		 mov	 ecx, DWORD PTR _calRect$188236[ebp+8]
  00b27	8d 74 01 02	 lea	 esi, DWORD PTR [ecx+eax+2]
  00b2b	8d 8d 48 fc ff
	ff		 lea	 ecx, DWORD PTR _calRect$188236[ebp]
  00b31	e8 00 00 00 00	 call	 ?Width@CRect@@QBEHXZ	; CRect::Width
  00b36	99		 cdq
  00b37	2b c2		 sub	 eax, edx
  00b39	d1 f8		 sar	 eax, 1
  00b3b	2b f0		 sub	 esi, eax
  00b3d	89 b5 24 fc ff
	ff		 mov	 DWORD PTR _p$188244[ebp], esi

; 275  : 			p.y = rectItem.CenterPoint().y - imaSize.cy / 2;

  00b43	8d 95 e8 fb ff
	ff		 lea	 edx, DWORD PTR $T188837[ebp]
  00b49	52		 push	 edx
  00b4a	8d 8d 64 ff ff
	ff		 lea	 ecx, DWORD PTR _rectItem$[ebp]
  00b50	e8 00 00 00 00	 call	 ?CenterPoint@CRect@@QBE?AVCPoint@@XZ ; CRect::CenterPoint
  00b55	8b c8		 mov	 ecx, eax
  00b57	8b 85 38 fc ff
	ff		 mov	 eax, DWORD PTR _imaSize$188243[ebp+4]
  00b5d	99		 cdq
  00b5e	2b c2		 sub	 eax, edx
  00b60	d1 f8		 sar	 eax, 1
  00b62	8b 51 04	 mov	 edx, DWORD PTR [ecx+4]
  00b65	2b d0		 sub	 edx, eax
  00b67	89 95 28 fc ff
	ff		 mov	 DWORD PTR _p$188244[ebp+4], edx

; 276  : 			
; 277  : 			if(p.x  < rectItem.right)

  00b6d	8b 85 24 fc ff
	ff		 mov	 eax, DWORD PTR _p$188244[ebp]
  00b73	3b 85 6c ff ff
	ff		 cmp	 eax, DWORD PTR _rectItem$[ebp+8]
  00b79	0f 8d bb 00 00
	00		 jge	 $L188239

; 278  : 			{
; 279  : 				if(p.x + imaSize.cx > rectItem.right)

  00b7f	8b 8d 24 fc ff
	ff		 mov	 ecx, DWORD PTR _p$188244[ebp]
  00b85	03 8d 34 fc ff
	ff		 add	 ecx, DWORD PTR _imaSize$188243[ebp]
  00b8b	3b 8d 6c ff ff
	ff		 cmp	 ecx, DWORD PTR _rectItem$[ebp+8]
  00b91	7e 12		 jle	 SHORT $L188248

; 280  : 				{
; 281  : 					imaSize.cx = rectItem.right - p.x;

  00b93	8b 95 6c ff ff
	ff		 mov	 edx, DWORD PTR _rectItem$[ebp+8]
  00b99	2b 95 24 fc ff
	ff		 sub	 edx, DWORD PTR _p$188244[ebp]
  00b9f	89 95 34 fc ff
	ff		 mov	 DWORD PTR _imaSize$188243[ebp], edx
$L188248:

; 282  : 				}
; 283  : 				pBmp->SetCDibRect(CRect(p, imaSize));

  00ba5	8b 85 34 fc ff
	ff		 mov	 eax, DWORD PTR _imaSize$188243[ebp]
  00bab	89 85 d0 fb ff
	ff		 mov	 DWORD PTR $T188839[ebp], eax
  00bb1	8b 8d 38 fc ff
	ff		 mov	 ecx, DWORD PTR _imaSize$188243[ebp+4]
  00bb7	89 8d d4 fb ff
	ff		 mov	 DWORD PTR $T188839[ebp+4], ecx
  00bbd	8b 95 24 fc ff
	ff		 mov	 edx, DWORD PTR _p$188244[ebp]
  00bc3	89 95 c8 fb ff
	ff		 mov	 DWORD PTR $T188840[ebp], edx
  00bc9	8b 85 28 fc ff
	ff		 mov	 eax, DWORD PTR _p$188244[ebp+4]
  00bcf	89 85 cc fb ff
	ff		 mov	 DWORD PTR $T188840[ebp+4], eax
  00bd5	8b 8d d4 fb ff
	ff		 mov	 ecx, DWORD PTR $T188839[ebp+4]
  00bdb	51		 push	 ecx
  00bdc	8b 95 d0 fb ff
	ff		 mov	 edx, DWORD PTR $T188839[ebp]
  00be2	52		 push	 edx
  00be3	8b 85 cc fb ff
	ff		 mov	 eax, DWORD PTR $T188840[ebp+4]
  00be9	50		 push	 eax
  00bea	8b 8d c8 fb ff
	ff		 mov	 ecx, DWORD PTR $T188840[ebp]
  00bf0	51		 push	 ecx
  00bf1	8d 8d d8 fb ff
	ff		 lea	 ecx, DWORD PTR $T188838[ebp]
  00bf7	e8 00 00 00 00	 call	 ??0CRect@@QAE@UtagPOINT@@UtagSIZE@@@Z ; CRect::CRect
  00bfc	83 ec 10	 sub	 esp, 16			; 00000010H
  00bff	8b d4		 mov	 edx, esp
  00c01	8b 08		 mov	 ecx, DWORD PTR [eax]
  00c03	89 0a		 mov	 DWORD PTR [edx], ecx
  00c05	8b 48 04	 mov	 ecx, DWORD PTR [eax+4]
  00c08	89 4a 04	 mov	 DWORD PTR [edx+4], ecx
  00c0b	8b 48 08	 mov	 ecx, DWORD PTR [eax+8]
  00c0e	89 4a 08	 mov	 DWORD PTR [edx+8], ecx
  00c11	8b 40 0c	 mov	 eax, DWORD PTR [eax+12]
  00c14	89 42 0c	 mov	 DWORD PTR [edx+12], eax
  00c17	8b 8d 40 fc ff
	ff		 mov	 ecx, DWORD PTR _pBmp$188240[ebp]
  00c1d	e8 00 00 00 00	 call	 ?SetCDibRect@CDibBitmap@@QAEXVCRect@@@Z ; CDibBitmap::SetCDibRect

; 284  : 				pBmp->Draw(&hdcMem,  true);

  00c22	6a 01		 push	 1
  00c24	6a 00		 push	 0
  00c26	6a 01		 push	 1
  00c28	8d 8d 4c ff ff
	ff		 lea	 ecx, DWORD PTR _hdcMem$[ebp]
  00c2e	51		 push	 ecx
  00c2f	8b 8d 40 fc ff
	ff		 mov	 ecx, DWORD PTR _pBmp$188240[ebp]
  00c35	e8 00 00 00 00	 call	 ?Draw@CDibBitmap@@QAEHPAVCDC@@HKH@Z ; CDibBitmap::Draw
$L188239:

; 285  : 			}
; 286  : 		}
; 287  : 	}

  00c3a	e9 bd fa ff ff	 jmp	 $L188221
$L188222:

; 288  : 
; 289  : 	GetClientRect(&rect);

  00c3f	8d 95 7c ff ff
	ff		 lea	 edx, DWORD PTR _rect$[ebp]
  00c45	52		 push	 edx
  00c46	8b 4d ec	 mov	 ecx, DWORD PTR _this$[ebp]
  00c49	e8 00 00 00 00	 call	 ?GetClientRect@CWnd@@QBEXPAUtagRECT@@@Z ; CWnd::GetClientRect

; 290  : 	dc.BitBlt(rect.TopLeft().x,rect.TopLeft().y,rect.Width(),rect.Height(),&hdcMem,0,0,SRCCOPY);

  00c4e	68 20 00 cc 00	 push	 13369376		; 00cc0020H
  00c53	6a 00		 push	 0
  00c55	6a 00		 push	 0
  00c57	8d 85 4c ff ff
	ff		 lea	 eax, DWORD PTR _hdcMem$[ebp]
  00c5d	50		 push	 eax
  00c5e	8d 8d 7c ff ff
	ff		 lea	 ecx, DWORD PTR _rect$[ebp]
  00c64	e8 00 00 00 00	 call	 ?Height@CRect@@QBEHXZ	; CRect::Height
  00c69	50		 push	 eax
  00c6a	8d 8d 7c ff ff
	ff		 lea	 ecx, DWORD PTR _rect$[ebp]
  00c70	e8 00 00 00 00	 call	 ?Width@CRect@@QBEHXZ	; CRect::Width
  00c75	50		 push	 eax
  00c76	8d 8d 7c ff ff
	ff		 lea	 ecx, DWORD PTR _rect$[ebp]
  00c7c	e8 00 00 00 00	 call	 ?TopLeft@CRect@@QAEAAVCPoint@@XZ ; CRect::TopLeft
  00c81	8b 48 04	 mov	 ecx, DWORD PTR [eax+4]
  00c84	51		 push	 ecx
  00c85	8d 8d 7c ff ff
	ff		 lea	 ecx, DWORD PTR _rect$[ebp]
  00c8b	e8 00 00 00 00	 call	 ?TopLeft@CRect@@QAEAAVCPoint@@XZ ; CRect::TopLeft
  00c90	8b 10		 mov	 edx, DWORD PTR [eax]
  00c92	52		 push	 edx
  00c93	8d 4d 94	 lea	 ecx, DWORD PTR _dc$[ebp]
  00c96	e8 00 00 00 00	 call	 ?BitBlt@CDC@@QAEHHHHHPAV1@HHK@Z ; CDC::BitBlt

; 291  : 
; 292  : 	hdcMem.SelectObject(def_font);

  00c9b	8b 85 30 ff ff
	ff		 mov	 eax, DWORD PTR _def_font$[ebp]
  00ca1	50		 push	 eax
  00ca2	8d 8d 4c ff ff
	ff		 lea	 ecx, DWORD PTR _hdcMem$[ebp]
  00ca8	e8 00 00 00 00	 call	 ?SelectObject@CDC@@UAEPAVCFont@@PAV2@@Z ; CDC::SelectObject

; 293  : 	font.DeleteObject();

  00cad	8d 8d 24 ff ff
	ff		 lea	 ecx, DWORD PTR _font$[ebp]
  00cb3	e8 00 00 00 00	 call	 ?DeleteObject@CGdiObject@@QAEHXZ ; CGdiObject::DeleteObject

; 294  : }

  00cb8	c6 45 fc 02	 mov	 BYTE PTR __$EHRec$[ebp+8], 2
  00cbc	8d 8d 24 ff ff
	ff		 lea	 ecx, DWORD PTR _font$[ebp]
  00cc2	e8 00 00 00 00	 call	 ??1CFont@@UAE@XZ	; CFont::~CFont
  00cc7	c6 45 fc 01	 mov	 BYTE PTR __$EHRec$[ebp+8], 1
  00ccb	8d 8d 3c ff ff
	ff		 lea	 ecx, DWORD PTR _hBitmap$[ebp]
  00cd1	e8 00 00 00 00	 call	 ??1CBitmap@@UAE@XZ	; CBitmap::~CBitmap
  00cd6	c6 45 fc 00	 mov	 BYTE PTR __$EHRec$[ebp+8], 0
  00cda	8d 8d 4c ff ff
	ff		 lea	 ecx, DWORD PTR _hdcMem$[ebp]
  00ce0	e8 00 00 00 00	 call	 ??1CDC@@UAE@XZ		; CDC::~CDC
  00ce5	c7 45 fc ff ff
	ff ff		 mov	 DWORD PTR __$EHRec$[ebp+8], -1
  00cec	8d 4d 94	 lea	 ecx, DWORD PTR _dc$[ebp]
  00cef	e8 00 00 00 00	 call	 ??1CPaintDC@@UAE@XZ	; CPaintDC::~CPaintDC
  00cf4	52		 push	 edx
  00cf5	8b cd		 mov	 ecx, ebp
  00cf7	50		 push	 eax
  00cf8	8d 15 00 00 00
	00		 lea	 edx, DWORD PTR $L188867
  00cfe	e8 00 00 00 00	 call	 @_RTC_CheckStackVars@8
  00d03	58		 pop	 eax
  00d04	5a		 pop	 edx
  00d05	8b 4d f4	 mov	 ecx, DWORD PTR __$EHRec$[ebp]
  00d08	64 89 0d 00 00
	00 00		 mov	 DWORD PTR fs:__except_list, ecx
  00d0f	8b 4d f0	 mov	 ecx, DWORD PTR __$ArrayPad$[ebp]
  00d12	e8 00 00 00 00	 call	 @__security_check_cookie@4
  00d17	5f		 pop	 edi
  00d18	5e		 pop	 esi
  00d19	81 c4 38 04 00
	00		 add	 esp, 1080		; 00000438H
  00d1f	3b ec		 cmp	 ebp, esp
  00d21	e8 00 00 00 00	 call	 __RTC_CheckEsp
  00d26	8b e5		 mov	 esp, ebp
  00d28	5d		 pop	 ebp
  00d29	c3		 ret	 0
$L188867:
  00d2a	0e 00 00 00	 DD	 14			; 0000000eH
  00d2e	00 00 00 00	 DD	 $L188866
$L188866:
  00d32	94 ff ff ff	 DD	 -108			; ffffff94H
  00d36	54 00 00 00	 DD	 84			; 00000054H
  00d3a	00 00 00 00	 DD	 $L188849
  00d3e	7c ff ff ff	 DD	 -132			; ffffff7cH
  00d42	10 00 00 00	 DD	 16			; 00000010H
  00d46	00 00 00 00	 DD	 $L188850
  00d4a	64 ff ff ff	 DD	 -156			; ffffff64H
  00d4e	10 00 00 00	 DD	 16			; 00000010H
  00d52	00 00 00 00	 DD	 $L188851
  00d56	4c ff ff ff	 DD	 -180			; ffffff4cH
  00d5a	10 00 00 00	 DD	 16			; 00000010H
  00d5e	00 00 00 00	 DD	 $L188852
  00d62	3c ff ff ff	 DD	 -196			; ffffff3cH
  00d66	08 00 00 00	 DD	 8
  00d6a	00 00 00 00	 DD	 $L188853
  00d6e	24 ff ff ff	 DD	 -220			; ffffff24H
  00d72	08 00 00 00	 DD	 8
  00d76	00 00 00 00	 DD	 $L188854
  00d7a	e0 fe ff ff	 DD	 -288			; fffffee0H
  00d7e	3c 00 00 00	 DD	 60			; 0000003cH
  00d82	00 00 00 00	 DD	 $L188855
  00d86	d4 fd ff ff	 DD	 -556			; fffffdd4H
  00d8a	00 01 00 00	 DD	 256			; 00000100H
  00d8e	00 00 00 00	 DD	 $L188856
  00d92	a0 fd ff ff	 DD	 -608			; fffffda0H
  00d96	2c 00 00 00	 DD	 44			; 0000002cH
  00d9a	00 00 00 00	 DD	 $L188857
  00d9e	94 fc ff ff	 DD	 -876			; fffffc94H
  00da2	00 01 00 00	 DD	 256			; 00000100H
  00da6	00 00 00 00	 DD	 $L188858
  00daa	60 fc ff ff	 DD	 -928			; fffffc60H
  00dae	2c 00 00 00	 DD	 44			; 0000002cH
  00db2	00 00 00 00	 DD	 $L188859
  00db6	48 fc ff ff	 DD	 -952			; fffffc48H
  00dba	10 00 00 00	 DD	 16			; 00000010H
  00dbe	00 00 00 00	 DD	 $L188860
  00dc2	34 fc ff ff	 DD	 -972			; fffffc34H
  00dc6	08 00 00 00	 DD	 8
  00dca	00 00 00 00	 DD	 $L188861
  00dce	24 fc ff ff	 DD	 -988			; fffffc24H
  00dd2	08 00 00 00	 DD	 8
  00dd6	00 00 00 00	 DD	 $L188862
$L188862:
  00dda	70		 DB	 112			; 00000070H
  00ddb	00		 DB	 0
$L188861:
  00ddc	69		 DB	 105			; 00000069H
  00ddd	6d		 DB	 109			; 0000006dH
  00dde	61		 DB	 97			; 00000061H
  00ddf	53		 DB	 83			; 00000053H
  00de0	69		 DB	 105			; 00000069H
  00de1	7a		 DB	 122			; 0000007aH
  00de2	65		 DB	 101			; 00000065H
  00de3	00		 DB	 0
$L188860:
  00de4	63		 DB	 99			; 00000063H
  00de5	61		 DB	 97			; 00000061H
  00de6	6c		 DB	 108			; 0000006cH
  00de7	52		 DB	 82			; 00000052H
  00de8	65		 DB	 101			; 00000065H
  00de9	63		 DB	 99			; 00000063H
  00dea	74		 DB	 116			; 00000074H
  00deb	00		 DB	 0
$L188859:
  00dec	68		 DB	 104			; 00000068H
  00ded	64		 DB	 100			; 00000064H
  00dee	69		 DB	 105			; 00000069H
  00def	74		 DB	 116			; 00000074H
  00df0	65		 DB	 101			; 00000065H
  00df1	6d		 DB	 109			; 0000006dH
  00df2	00		 DB	 0
$L188858:
  00df3	62		 DB	 98			; 00000062H
  00df4	75		 DB	 117			; 00000075H
  00df5	66		 DB	 102			; 00000066H
  00df6	00		 DB	 0
$L188857:
  00df7	68		 DB	 104			; 00000068H
  00df8	64		 DB	 100			; 00000064H
  00df9	69		 DB	 105			; 00000069H
  00dfa	74		 DB	 116			; 00000074H
  00dfb	65		 DB	 101			; 00000065H
  00dfc	6d		 DB	 109			; 0000006dH
  00dfd	31		 DB	 49			; 00000031H
  00dfe	00		 DB	 0
$L188856:
  00dff	62		 DB	 98			; 00000062H
  00e00	75		 DB	 117			; 00000075H
  00e01	66		 DB	 102			; 00000066H
  00e02	31		 DB	 49			; 00000031H
  00e03	00		 DB	 0
$L188855:
  00e04	6c		 DB	 108			; 0000006cH
  00e05	66		 DB	 102			; 00000066H
  00e06	00		 DB	 0
$L188854:
  00e07	66		 DB	 102			; 00000066H
  00e08	6f		 DB	 111			; 0000006fH
  00e09	6e		 DB	 110			; 0000006eH
  00e0a	74		 DB	 116			; 00000074H
  00e0b	00		 DB	 0
$L188853:
  00e0c	68		 DB	 104			; 00000068H
  00e0d	42		 DB	 66			; 00000042H
  00e0e	69		 DB	 105			; 00000069H
  00e0f	74		 DB	 116			; 00000074H
  00e10	6d		 DB	 109			; 0000006dH
  00e11	61		 DB	 97			; 00000061H
  00e12	70		 DB	 112			; 00000070H
  00e13	00		 DB	 0
$L188852:
  00e14	68		 DB	 104			; 00000068H
  00e15	64		 DB	 100			; 00000064H
  00e16	63		 DB	 99			; 00000063H
  00e17	4d		 DB	 77			; 0000004dH
  00e18	65		 DB	 101			; 00000065H
  00e19	6d		 DB	 109			; 0000006dH
  00e1a	00		 DB	 0
$L188851:
  00e1b	72		 DB	 114			; 00000072H
  00e1c	65		 DB	 101			; 00000065H
  00e1d	63		 DB	 99			; 00000063H
  00e1e	74		 DB	 116			; 00000074H
  00e1f	49		 DB	 73			; 00000049H
  00e20	74		 DB	 116			; 00000074H
  00e21	65		 DB	 101			; 00000065H
  00e22	6d		 DB	 109			; 0000006dH
  00e23	00		 DB	 0
$L188850:
  00e24	72		 DB	 114			; 00000072H
  00e25	65		 DB	 101			; 00000065H
  00e26	63		 DB	 99			; 00000063H
  00e27	74		 DB	 116			; 00000074H
  00e28	00		 DB	 0
$L188849:
  00e29	64		 DB	 100			; 00000064H
  00e2a	63		 DB	 99			; 00000063H
  00e2b	00		 DB	 0
_TEXT	ENDS
text$x	SEGMENT
$L188841:
  0002f	8d 4d 94	 lea	 ecx, DWORD PTR _dc$[ebp]
  00032	e9 00 00 00 00	 jmp	 ??1CPaintDC@@UAE@XZ	; CPaintDC::~CPaintDC
$L188842:
  00037	8d 8d 4c ff ff
	ff		 lea	 ecx, DWORD PTR _hdcMem$[ebp]
  0003d	e9 00 00 00 00	 jmp	 ??1CDC@@UAE@XZ		; CDC::~CDC
$L188843:
  00042	8d 8d 3c ff ff
	ff		 lea	 ecx, DWORD PTR _hBitmap$[ebp]
  00048	e9 00 00 00 00	 jmp	 ??1CBitmap@@UAE@XZ	; CBitmap::~CBitmap
$L188844:
  0004d	8d 8d 24 ff ff
	ff		 lea	 ecx, DWORD PTR _font$[ebp]
  00053	e9 00 00 00 00	 jmp	 ??1CFont@@UAE@XZ	; CFont::~CFont
$L188845:
  00058	8b f4		 mov	 esi, esp
  0005a	8d 8d fc fb ff
	ff		 lea	 ecx, DWORD PTR $T188834[ebp]
  00060	ff 15 00 00 00
	00		 call	 DWORD PTR __imp_??1?$CStringT@DV?$StrTraitMFC_DLL@DV?$ChTraitsCRT@D@ATL@@@@@ATL@@QAE@XZ
  00066	3b f4		 cmp	 esi, esp
  00068	e9 00 00 00 00	 jmp	 __RTC_CheckEsp
$L188846:
  0006d	8b f4		 mov	 esi, esp
  0006f	8d 8d f8 fb ff
	ff		 lea	 ecx, DWORD PTR $T188835[ebp]
  00075	ff 15 00 00 00
	00		 call	 DWORD PTR __imp_??1?$CStringT@DV?$StrTraitMFC_DLL@DV?$ChTraitsCRT@D@ATL@@@@@ATL@@QAE@XZ
  0007b	3b f4		 cmp	 esi, esp
  0007d	e9 00 00 00 00	 jmp	 __RTC_CheckEsp
__ehhandler$?OnPaint@CMyHeaderCtrl@@QAEXXZ:
  00082	b8 00 00 00 00	 mov	 eax, OFFSET FLAT:$T188848
  00087	e9 00 00 00 00	 jmp	 ___CxxFrameHandler
text$x	ENDS
?OnPaint@CMyHeaderCtrl@@QAEXXZ ENDP			; CMyHeaderCtrl::OnPaint
; Function compile flags: /Odt /RTCsu
_TEXT	SEGMENT
_this$ = -4						; size = 4
_pDC$ = 8						; size = 4
?OnEraseBkgnd@CMyHeaderCtrl@@QAEHPAVCDC@@@Z PROC NEAR	; CMyHeaderCtrl::OnEraseBkgnd
; _this$ = ecx

; 297  : {

  00e30	55		 push	 ebp
  00e31	8b ec		 mov	 ebp, esp
  00e33	51		 push	 ecx
  00e34	c7 45 fc cc cc
	cc cc		 mov	 DWORD PTR [ebp-4], -858993460 ; ccccccccH
  00e3b	89 4d fc	 mov	 DWORD PTR _this$[ebp], ecx

; 298  : 	return true;

  00e3e	b8 01 00 00 00	 mov	 eax, 1

; 299  : }

  00e43	8b e5		 mov	 esp, ebp
  00e45	5d		 pop	 ebp
  00e46	c2 04 00	 ret	 4
?OnEraseBkgnd@CMyHeaderCtrl@@QAEHPAVCDC@@@Z ENDP	; CMyHeaderCtrl::OnEraseBkgnd
; Function compile flags: /Odt /RTCsu
_this$ = -4						; size = 4
_wp$ = 8						; size = 4
_lp$ = 12						; size = 4
?OnMouseLeave@CMyHeaderCtrl@@QAEJIJ@Z PROC NEAR		; CMyHeaderCtrl::OnMouseLeave
; _this$ = ecx

; 302  : {

  00e50	55		 push	 ebp
  00e51	8b ec		 mov	 ebp, esp
  00e53	51		 push	 ecx
  00e54	c7 45 fc cc cc
	cc cc		 mov	 DWORD PTR [ebp-4], -858993460 ; ccccccccH
  00e5b	89 4d fc	 mov	 DWORD PTR _this$[ebp], ecx

; 303  : 	m_bTrackMouse = false;

  00e5e	8b 45 fc	 mov	 eax, DWORD PTR _this$[ebp]
  00e61	c6 40 74 00	 mov	 BYTE PTR [eax+116], 0

; 304  : 	
; 305  : 	m_nHoverItem = -1;

  00e65	8b 4d fc	 mov	 ecx, DWORD PTR _this$[ebp]
  00e68	c7 41 70 ff ff
	ff ff		 mov	 DWORD PTR [ecx+112], -1

; 306  : 	Invalidate();

  00e6f	6a 01		 push	 1
  00e71	8b 4d fc	 mov	 ecx, DWORD PTR _this$[ebp]
  00e74	e8 00 00 00 00	 call	 ?Invalidate@CWnd@@QAEXH@Z ; CWnd::Invalidate

; 307  : 	return 1;

  00e79	b8 01 00 00 00	 mov	 eax, 1

; 308  : }

  00e7e	83 c4 04	 add	 esp, 4
  00e81	3b ec		 cmp	 ebp, esp
  00e83	e8 00 00 00 00	 call	 __RTC_CheckEsp
  00e88	8b e5		 mov	 esp, ebp
  00e8a	5d		 pop	 ebp
  00e8b	c2 08 00	 ret	 8
?OnMouseLeave@CMyHeaderCtrl@@QAEJIJ@Z ENDP		; CMyHeaderCtrl::OnMouseLeave
_TEXT	ENDS
EXTRN	?OnLButtonDown@CWnd@@IAEXIVCPoint@@@Z:NEAR	; CWnd::OnLButtonDown
; Function compile flags: /Odt /RTCsu
_TEXT	SEGMENT
_this$ = -4						; size = 4
_nFlags$ = 8						; size = 4
_point$ = 12						; size = 8
?OnLButtonDown@CMyHeaderCtrl@@QAEXIVCPoint@@@Z PROC NEAR ; CMyHeaderCtrl::OnLButtonDown
; _this$ = ecx

; 311  : {

  00e90	55		 push	 ebp
  00e91	8b ec		 mov	 ebp, esp
  00e93	51		 push	 ecx
  00e94	c7 45 fc cc cc
	cc cc		 mov	 DWORD PTR [ebp-4], -858993460 ; ccccccccH
  00e9b	89 4d fc	 mov	 DWORD PTR _this$[ebp], ecx

; 312  : 	m_bLButtonDown = true;

  00e9e	8b 45 fc	 mov	 eax, DWORD PTR _this$[ebp]
  00ea1	c6 40 75 01	 mov	 BYTE PTR [eax+117], 1

; 313  : 	Invalidate();

  00ea5	6a 01		 push	 1
  00ea7	8b 4d fc	 mov	 ecx, DWORD PTR _this$[ebp]
  00eaa	e8 00 00 00 00	 call	 ?Invalidate@CWnd@@QAEXH@Z ; CWnd::Invalidate

; 314  : 	__super::OnLButtonDown(nFlags, point);

  00eaf	8b 4d 10	 mov	 ecx, DWORD PTR _point$[ebp+4]
  00eb2	51		 push	 ecx
  00eb3	8b 55 0c	 mov	 edx, DWORD PTR _point$[ebp]
  00eb6	52		 push	 edx
  00eb7	8b 45 08	 mov	 eax, DWORD PTR _nFlags$[ebp]
  00eba	50		 push	 eax
  00ebb	8b 4d fc	 mov	 ecx, DWORD PTR _this$[ebp]
  00ebe	e8 00 00 00 00	 call	 ?OnLButtonDown@CWnd@@IAEXIVCPoint@@@Z ; CWnd::OnLButtonDown

; 315  : }

  00ec3	83 c4 04	 add	 esp, 4
  00ec6	3b ec		 cmp	 ebp, esp
  00ec8	e8 00 00 00 00	 call	 __RTC_CheckEsp
  00ecd	8b e5		 mov	 esp, ebp
  00ecf	5d		 pop	 ebp
  00ed0	c2 0c 00	 ret	 12			; 0000000cH
?OnLButtonDown@CMyHeaderCtrl@@QAEXIVCPoint@@@Z ENDP	; CMyHeaderCtrl::OnLButtonDown
_TEXT	ENDS
EXTRN	?OnLButtonUp@CWnd@@IAEXIVCPoint@@@Z:NEAR	; CWnd::OnLButtonUp
; Function compile flags: /Odt /RTCsu
_TEXT	SEGMENT
_this$ = -4						; size = 4
_nFlags$ = 8						; size = 4
_point$ = 12						; size = 8
?OnLButtonUp@CMyHeaderCtrl@@QAEXIVCPoint@@@Z PROC NEAR	; CMyHeaderCtrl::OnLButtonUp
; _this$ = ecx

; 318  : {

  00ee0	55		 push	 ebp
  00ee1	8b ec		 mov	 ebp, esp
  00ee3	51		 push	 ecx
  00ee4	c7 45 fc cc cc
	cc cc		 mov	 DWORD PTR [ebp-4], -858993460 ; ccccccccH
  00eeb	89 4d fc	 mov	 DWORD PTR _this$[ebp], ecx

; 319  : 	m_bLButtonDown = false;

  00eee	8b 45 fc	 mov	 eax, DWORD PTR _this$[ebp]
  00ef1	c6 40 75 00	 mov	 BYTE PTR [eax+117], 0

; 320  : 	Invalidate();

  00ef5	6a 01		 push	 1
  00ef7	8b 4d fc	 mov	 ecx, DWORD PTR _this$[ebp]
  00efa	e8 00 00 00 00	 call	 ?Invalidate@CWnd@@QAEXH@Z ; CWnd::Invalidate

; 321  : 	__super::OnLButtonUp(nFlags, point);

  00eff	8b 4d 10	 mov	 ecx, DWORD PTR _point$[ebp+4]
  00f02	51		 push	 ecx
  00f03	8b 55 0c	 mov	 edx, DWORD PTR _point$[ebp]
  00f06	52		 push	 edx
  00f07	8b 45 08	 mov	 eax, DWORD PTR _nFlags$[ebp]
  00f0a	50		 push	 eax
  00f0b	8b 4d fc	 mov	 ecx, DWORD PTR _this$[ebp]
  00f0e	e8 00 00 00 00	 call	 ?OnLButtonUp@CWnd@@IAEXIVCPoint@@@Z ; CWnd::OnLButtonUp

; 322  : }

  00f13	83 c4 04	 add	 esp, 4
  00f16	3b ec		 cmp	 ebp, esp
  00f18	e8 00 00 00 00	 call	 __RTC_CheckEsp
  00f1d	8b e5		 mov	 esp, ebp
  00f1f	5d		 pop	 ebp
  00f20	c2 0c 00	 ret	 12			; 0000000cH
?OnLButtonUp@CMyHeaderCtrl@@QAEXIVCPoint@@@Z ENDP	; CMyHeaderCtrl::OnLButtonUp
; Function compile flags: /Odt /RTCsu
_nHeight$ = -24					; size = 4
_pwpos$ = -20						; size = 4
_prc$ = -16						; size = 4
_hdl$ = -12						; size = 4
_lResult$ = -8						; size = 4
_this$ = -4						; size = 4
_wParam$ = 8						; size = 4
_lParam$ = 12						; size = 4
?OnLayOut@CMyHeaderCtrl@@QAEJIJ@Z PROC NEAR		; CMyHeaderCtrl::OnLayOut
; _this$ = ecx

; 325  : {

  00f30	55		 push	 ebp
  00f31	8b ec		 mov	 ebp, esp
  00f33	83 ec 18	 sub	 esp, 24			; 00000018H
  00f36	b8 cc cc cc cc	 mov	 eax, -858993460		; ccccccccH
  00f3b	89 45 e8	 mov	 DWORD PTR [ebp-24], eax
  00f3e	89 45 ec	 mov	 DWORD PTR [ebp-20], eax
  00f41	89 45 f0	 mov	 DWORD PTR [ebp-16], eax
  00f44	89 45 f4	 mov	 DWORD PTR [ebp-12], eax
  00f47	89 45 f8	 mov	 DWORD PTR [ebp-8], eax
  00f4a	89 45 fc	 mov	 DWORD PTR [ebp-4], eax
  00f4d	89 4d fc	 mov	 DWORD PTR _this$[ebp], ecx

; 326  : 	LRESULT lResult = CHeaderCtrl::DefWindowProc(HDM_LAYOUT, 0, lParam);   

  00f50	8b 45 0c	 mov	 eax, DWORD PTR _lParam$[ebp]
  00f53	50		 push	 eax
  00f54	6a 00		 push	 0
  00f56	68 05 12 00 00	 push	 4613			; 00001205H
  00f5b	8b 4d fc	 mov	 ecx, DWORD PTR _this$[ebp]
  00f5e	e8 00 00 00 00	 call	 ?DefWindowProcA@CWnd@@MAEJIIJ@Z ; CWnd::DefWindowProcA
  00f63	89 45 f8	 mov	 DWORD PTR _lResult$[ebp], eax

; 327  : 
; 328  : 	HD_LAYOUT &hdl = *( HD_LAYOUT * ) lParam;   

  00f66	8b 4d 0c	 mov	 ecx, DWORD PTR _lParam$[ebp]
  00f69	89 4d f4	 mov	 DWORD PTR _hdl$[ebp], ecx

; 329  : 
; 330  : 	RECT *prc = hdl.prc;   

  00f6c	8b 55 f4	 mov	 edx, DWORD PTR _hdl$[ebp]
  00f6f	8b 02		 mov	 eax, DWORD PTR [edx]
  00f71	89 45 f0	 mov	 DWORD PTR _prc$[ebp], eax

; 331  : 	WINDOWPOS *pwpos = hdl.pwpos;   

  00f74	8b 4d f4	 mov	 ecx, DWORD PTR _hdl$[ebp]
  00f77	8b 51 04	 mov	 edx, DWORD PTR [ecx+4]
  00f7a	89 55 ec	 mov	 DWORD PTR _pwpos$[ebp], edx

; 332  : 
; 333  : 	const int nHeight = 20;

  00f7d	c7 45 e8 14 00
	00 00		 mov	 DWORD PTR _nHeight$[ebp], 20 ; 00000014H

; 334  : 	pwpos->cy = nHeight;

  00f84	8b 45 ec	 mov	 eax, DWORD PTR _pwpos$[ebp]
  00f87	c7 40 14 14 00
	00 00		 mov	 DWORD PTR [eax+20], 20	; 00000014H

; 335  : 	prc->bottom = nHeight;

  00f8e	8b 4d f0	 mov	 ecx, DWORD PTR _prc$[ebp]
  00f91	c7 41 0c 14 00
	00 00		 mov	 DWORD PTR [ecx+12], 20	; 00000014H

; 336  : 
; 337  : 	return lResult;

  00f98	8b 45 f8	 mov	 eax, DWORD PTR _lResult$[ebp]

; 338  : }

  00f9b	83 c4 18	 add	 esp, 24			; 00000018H
  00f9e	3b ec		 cmp	 ebp, esp
  00fa0	e8 00 00 00 00	 call	 __RTC_CheckEsp
  00fa5	8b e5		 mov	 esp, ebp
  00fa7	5d		 pop	 ebp
  00fa8	c2 08 00	 ret	 8
?OnLayOut@CMyHeaderCtrl@@QAEJIJ@Z ENDP			; CMyHeaderCtrl::OnLayOut
_TEXT	ENDS
PUBLIC	?InterlockedExchangePointer@@YGPAXPAPAXPAX@Z	; InterlockedExchangePointer
PUBLIC	?_AtlGetThreadACPFake@ATL@@YGIXZ		; ATL::_AtlGetThreadACPFake
PUBLIC	?_AtlGetThreadACPReal@ATL@@YGIXZ		; ATL::_AtlGetThreadACPReal
EXTRN	__imp__GetVersionExA@4:NEAR
; Function compile flags: /Odt /RTCsu
; File d:\program files (x86)\microsoft visual studio .net 2003\vc7\atlmfc\include\atlconv.h
;	COMDAT ?_AtlGetThreadACPThunk@ATL@@YGIXZ
_TEXT	SEGMENT
_pfnGetThreadACP$ = -164				; size = 4
_ver$ = -156						; size = 148
__$ArrayPad$ = -4					; size = 4
__$ReturnAddr$ = 4					; size = 4
?_AtlGetThreadACPThunk@ATL@@YGIXZ PROC NEAR		; ATL::_AtlGetThreadACPThunk, COMDAT

; 134  : {

  00000	55		 push	 ebp
  00001	8b ec		 mov	 ebp, esp
  00003	81 ec a4 00 00
	00		 sub	 esp, 164		; 000000a4H
  00009	56		 push	 esi
  0000a	57		 push	 edi
  0000b	8d bd 5c ff ff
	ff		 lea	 edi, DWORD PTR [ebp-164]
  00011	b9 29 00 00 00	 mov	 ecx, 41			; 00000029H
  00016	b8 cc cc cc cc	 mov	 eax, -858993460		; ccccccccH
  0001b	f3 ab		 rep stosd
  0001d	a1 00 00 00 00	 mov	 eax, DWORD PTR ___security_cookie
  00022	89 45 fc	 mov	 DWORD PTR __$ArrayPad$[ebp], eax

; 135  : 	OSVERSIONINFO ver;
; 136  : 	ATLGETTHREADACP pfnGetThreadACP;
; 137  : 
; 138  : 	ver.dwOSVersionInfoSize = sizeof( ver );

  00025	c7 85 64 ff ff
	ff 94 00 00 00	 mov	 DWORD PTR _ver$[ebp], 148 ; 00000094H

; 139  : 	::GetVersionEx( &ver );

  0002f	8b f4		 mov	 esi, esp
  00031	8d 85 64 ff ff
	ff		 lea	 eax, DWORD PTR _ver$[ebp]
  00037	50		 push	 eax
  00038	ff 15 00 00 00
	00		 call	 DWORD PTR __imp__GetVersionExA@4
  0003e	3b f4		 cmp	 esi, esp
  00040	e8 00 00 00 00	 call	 __RTC_CheckEsp

; 140  : 	if( (ver.dwPlatformId == VER_PLATFORM_WIN32_NT) && (ver.dwMajorVersion >= 5) )

  00045	83 bd 74 ff ff
	ff 02		 cmp	 DWORD PTR _ver$[ebp+16], 2
  0004c	75 15		 jne	 SHORT $L24163
  0004e	83 bd 68 ff ff
	ff 05		 cmp	 DWORD PTR _ver$[ebp+4], 5
  00055	72 0c		 jb	 SHORT $L24163

; 141  : 	{
; 142  : 		// On Win2K, CP_THREAD_ACP is supported
; 143  : 		pfnGetThreadACP = _AtlGetThreadACPReal;

  00057	c7 85 5c ff ff
	ff 00 00 00 00	 mov	 DWORD PTR _pfnGetThreadACP$[ebp], OFFSET FLAT:?_AtlGetThreadACPReal@ATL@@YGIXZ ; ATL::_AtlGetThreadACPReal

; 144  : 	}
; 145  : 	else

  00061	eb 0a		 jmp	 SHORT $L24164
$L24163:

; 146  : 	{
; 147  : 		pfnGetThreadACP = _AtlGetThreadACPFake;

  00063	c7 85 5c ff ff
	ff 00 00 00 00	 mov	 DWORD PTR _pfnGetThreadACP$[ebp], OFFSET FLAT:?_AtlGetThreadACPFake@ATL@@YGIXZ ; ATL::_AtlGetThreadACPFake
$L24164:

; 148  : 	}
; 149  : 	InterlockedExchangePointer( reinterpret_cast< void** >(&g_pfnGetThreadACP), pfnGetThreadACP );

  0006d	8b 8d 5c ff ff
	ff		 mov	 ecx, DWORD PTR _pfnGetThreadACP$[ebp]
  00073	51		 push	 ecx
  00074	68 00 00 00 00	 push	 OFFSET FLAT:?g_pfnGetThreadACP@ATL@@3P6GIXZA ; ATL::g_pfnGetThreadACP
  00079	e8 00 00 00 00	 call	 ?InterlockedExchangePointer@@YGPAXPAPAXPAX@Z ; InterlockedExchangePointer

; 150  : 
; 151  : 	return( g_pfnGetThreadACP() );

  0007e	8b f4		 mov	 esi, esp
  00080	ff 15 00 00 00
	00		 call	 DWORD PTR ?g_pfnGetThreadACP@ATL@@3P6GIXZA ; ATL::g_pfnGetThreadACP
  00086	3b f4		 cmp	 esi, esp
  00088	e8 00 00 00 00	 call	 __RTC_CheckEsp

; 152  : }

  0008d	52		 push	 edx
  0008e	8b cd		 mov	 ecx, ebp
  00090	50		 push	 eax
  00091	8d 15 00 00 00
	00		 lea	 edx, DWORD PTR $L188880
  00097	e8 00 00 00 00	 call	 @_RTC_CheckStackVars@8
  0009c	58		 pop	 eax
  0009d	5a		 pop	 edx
  0009e	8b 4d fc	 mov	 ecx, DWORD PTR __$ArrayPad$[ebp]
  000a1	e8 00 00 00 00	 call	 @__security_check_cookie@4
  000a6	5f		 pop	 edi
  000a7	5e		 pop	 esi
  000a8	81 c4 a4 00 00
	00		 add	 esp, 164		; 000000a4H
  000ae	3b ec		 cmp	 ebp, esp
  000b0	e8 00 00 00 00	 call	 __RTC_CheckEsp
  000b5	8b e5		 mov	 esp, ebp
  000b7	5d		 pop	 ebp
  000b8	c3		 ret	 0
$L188880:
  000b9	01 00 00 00	 DD	 1
  000bd	00 00 00 00	 DD	 $L188879
$L188879:
  000c1	64 ff ff ff	 DD	 -156			; ffffff64H
  000c5	94 00 00 00	 DD	 148			; 00000094H
  000c9	00 00 00 00	 DD	 $L188877
$L188877:
  000cd	76		 DB	 118			; 00000076H
  000ce	65		 DB	 101			; 00000065H
  000cf	72		 DB	 114			; 00000072H
  000d0	00		 DB	 0
?_AtlGetThreadACPThunk@ATL@@YGIXZ ENDP			; ATL::_AtlGetThreadACPThunk
_TEXT	ENDS
EXTRN	__imp__InterlockedExchange@8:NEAR
; Function compile flags: /Odt /RTCsu
;	COMDAT ?InterlockedExchangePointer@@YGPAXPAPAXPAX@Z
_TEXT	SEGMENT
_pp$ = 8						; size = 4
_pNew$ = 12						; size = 4
?InterlockedExchangePointer@@YGPAXPAPAXPAX@Z PROC NEAR	; InterlockedExchangePointer, COMDAT

; 91   : {

  00000	55		 push	 ebp
  00001	8b ec		 mov	 ebp, esp
  00003	56		 push	 esi

; 92   : 	return( reinterpret_cast<void*>(static_cast<LONG_PTR>(::InterlockedExchange(reinterpret_cast<LONG*>(pp), static_cast<LONG>(reinterpret_cast<LONG_PTR>(pNew))))) );

  00004	8b f4		 mov	 esi, esp
  00006	8b 45 0c	 mov	 eax, DWORD PTR _pNew$[ebp]
  00009	50		 push	 eax
  0000a	8b 4d 08	 mov	 ecx, DWORD PTR _pp$[ebp]
  0000d	51		 push	 ecx
  0000e	ff 15 00 00 00
	00		 call	 DWORD PTR __imp__InterlockedExchange@8
  00014	3b f4		 cmp	 esi, esp
  00016	e8 00 00 00 00	 call	 __RTC_CheckEsp

; 93   : }

  0001b	5e		 pop	 esi
  0001c	3b ec		 cmp	 ebp, esp
  0001e	e8 00 00 00 00	 call	 __RTC_CheckEsp
  00023	5d		 pop	 ebp
  00024	c2 08 00	 ret	 8
?InterlockedExchangePointer@@YGPAXPAPAXPAX@Z ENDP	; InterlockedExchangePointer
_TEXT	ENDS
EXTRN	__imp__GetACP@0:NEAR
EXTRN	__imp__GetLocaleInfoA@16:NEAR
EXTRN	__imp__GetThreadLocale@0:NEAR
; Function compile flags: /Odt /RTCsu
;	COMDAT ?_AtlGetThreadACPFake@ATL@@YGIXZ
_TEXT	SEGMENT
_pch$24151 = -32					; size = 4
_szACP$ = -24						; size = 7
_lcidThread$ = -12					; size = 4
_nACP$ = -8						; size = 4
__$ArrayPad$ = -4					; size = 4
__$ReturnAddr$ = 4					; size = 4
?_AtlGetThreadACPFake@ATL@@YGIXZ PROC NEAR		; ATL::_AtlGetThreadACPFake, COMDAT

; 101  : {

  00000	55		 push	 ebp
  00001	8b ec		 mov	 ebp, esp
  00003	83 ec 20	 sub	 esp, 32			; 00000020H
  00006	56		 push	 esi
  00007	b8 cc cc cc cc	 mov	 eax, -858993460		; ccccccccH
  0000c	89 45 e0	 mov	 DWORD PTR [ebp-32], eax
  0000f	89 45 e4	 mov	 DWORD PTR [ebp-28], eax
  00012	89 45 e8	 mov	 DWORD PTR [ebp-24], eax
  00015	89 45 ec	 mov	 DWORD PTR [ebp-20], eax
  00018	89 45 f0	 mov	 DWORD PTR [ebp-16], eax
  0001b	89 45 f4	 mov	 DWORD PTR [ebp-12], eax
  0001e	89 45 f8	 mov	 DWORD PTR [ebp-8], eax
  00021	89 45 fc	 mov	 DWORD PTR [ebp-4], eax
  00024	a1 00 00 00 00	 mov	 eax, DWORD PTR ___security_cookie
  00029	89 45 fc	 mov	 DWORD PTR __$ArrayPad$[ebp], eax

; 102  : 	UINT nACP = 0;

  0002c	c7 45 f8 00 00
	00 00		 mov	 DWORD PTR _nACP$[ebp], 0

; 103  : 
; 104  : 	LCID lcidThread = ::GetThreadLocale();

  00033	8b f4		 mov	 esi, esp
  00035	ff 15 00 00 00
	00		 call	 DWORD PTR __imp__GetThreadLocale@0
  0003b	3b f4		 cmp	 esi, esp
  0003d	e8 00 00 00 00	 call	 __RTC_CheckEsp
  00042	89 45 f4	 mov	 DWORD PTR _lcidThread$[ebp], eax

; 105  : 
; 106  : 	char szACP[7];
; 107  : 	// GetLocaleInfoA will fail for a Unicode-only LCID, but those are only supported on 
; 108  : 	// Windows 2000.  Since Windows 2000 supports CP_THREAD_ACP, this code path is never
; 109  : 	// executed on Windows 2000.
; 110  : 	if (::GetLocaleInfoA(lcidThread, LOCALE_IDEFAULTANSICODEPAGE, szACP, 7) != 0)

  00045	8b f4		 mov	 esi, esp
  00047	6a 07		 push	 7
  00049	8d 45 e8	 lea	 eax, DWORD PTR _szACP$[ebp]
  0004c	50		 push	 eax
  0004d	68 04 10 00 00	 push	 4100			; 00001004H
  00052	8b 4d f4	 mov	 ecx, DWORD PTR _lcidThread$[ebp]
  00055	51		 push	 ecx
  00056	ff 15 00 00 00
	00		 call	 DWORD PTR __imp__GetLocaleInfoA@16
  0005c	3b f4		 cmp	 esi, esp
  0005e	e8 00 00 00 00	 call	 __RTC_CheckEsp
  00063	85 c0		 test	 eax, eax
  00065	74 34		 je	 SHORT $L24150

; 111  : 	{
; 112  : 		char* pch = szACP;

  00067	8d 55 e8	 lea	 edx, DWORD PTR _szACP$[ebp]
  0006a	89 55 e0	 mov	 DWORD PTR _pch$24151[ebp], edx
$L24153:

; 113  : 		while (*pch != '\0')

  0006d	8b 45 e0	 mov	 eax, DWORD PTR _pch$24151[ebp]
  00070	0f be 08	 movsx	 ecx, BYTE PTR [eax]
  00073	85 c9		 test	 ecx, ecx
  00075	74 24		 je	 SHORT $L24150

; 114  : 		{
; 115  : 			nACP *= 10;

  00077	8b 55 f8	 mov	 edx, DWORD PTR _nACP$[ebp]
  0007a	6b d2 0a	 imul	 edx, 10			; 0000000aH
  0007d	89 55 f8	 mov	 DWORD PTR _nACP$[ebp], edx

; 116  : 			nACP += *pch++ - '0';

  00080	8b 45 e0	 mov	 eax, DWORD PTR _pch$24151[ebp]
  00083	0f be 08	 movsx	 ecx, BYTE PTR [eax]
  00086	8b 55 f8	 mov	 edx, DWORD PTR _nACP$[ebp]
  00089	8d 44 0a d0	 lea	 eax, DWORD PTR [edx+ecx-48]
  0008d	89 45 f8	 mov	 DWORD PTR _nACP$[ebp], eax
  00090	8b 4d e0	 mov	 ecx, DWORD PTR _pch$24151[ebp]
  00093	83 c1 01	 add	 ecx, 1
  00096	89 4d e0	 mov	 DWORD PTR _pch$24151[ebp], ecx

; 117  : 		}

  00099	eb d2		 jmp	 SHORT $L24153
$L24150:

; 118  : 	}
; 119  : 	// Use the Default ANSI Code Page if we were unable to get the thread ACP or if one does not exist.
; 120  : 	if (nACP == 0)

  0009b	83 7d f8 00	 cmp	 DWORD PTR _nACP$[ebp], 0
  0009f	75 12		 jne	 SHORT $L24155

; 121  : 		nACP = ::GetACP();

  000a1	8b f4		 mov	 esi, esp
  000a3	ff 15 00 00 00
	00		 call	 DWORD PTR __imp__GetACP@0
  000a9	3b f4		 cmp	 esi, esp
  000ab	e8 00 00 00 00	 call	 __RTC_CheckEsp
  000b0	89 45 f8	 mov	 DWORD PTR _nACP$[ebp], eax
$L24155:

; 122  : 
; 123  : 	return nACP;

  000b3	8b 45 f8	 mov	 eax, DWORD PTR _nACP$[ebp]

; 124  : }

  000b6	52		 push	 edx
  000b7	8b cd		 mov	 ecx, ebp
  000b9	50		 push	 eax
  000ba	8d 15 00 00 00
	00		 lea	 edx, DWORD PTR $L188887
  000c0	e8 00 00 00 00	 call	 @_RTC_CheckStackVars@8
  000c5	58		 pop	 eax
  000c6	5a		 pop	 edx
  000c7	8b 4d fc	 mov	 ecx, DWORD PTR __$ArrayPad$[ebp]
  000ca	e8 00 00 00 00	 call	 @__security_check_cookie@4
  000cf	5e		 pop	 esi
  000d0	83 c4 20	 add	 esp, 32			; 00000020H
  000d3	3b ec		 cmp	 ebp, esp
  000d5	e8 00 00 00 00	 call	 __RTC_CheckEsp
  000da	8b e5		 mov	 esp, ebp
  000dc	5d		 pop	 ebp
  000dd	c3		 ret	 0
$L188887:
  000de	01 00 00 00	 DD	 1
  000e2	00 00 00 00	 DD	 $L188886
$L188886:
  000e6	e8 ff ff ff	 DD	 -24			; ffffffe8H
  000ea	07 00 00 00	 DD	 7
  000ee	00 00 00 00	 DD	 $L188884
$L188884:
  000f2	73		 DB	 115			; 00000073H
  000f3	7a		 DB	 122			; 0000007aH
  000f4	41		 DB	 65			; 00000041H
  000f5	43		 DB	 67			; 00000043H
  000f6	50		 DB	 80			; 00000050H
  000f7	00		 DB	 0
?_AtlGetThreadACPFake@ATL@@YGIXZ ENDP			; ATL::_AtlGetThreadACPFake
; Function compile flags: /Odt /RTCsu
_TEXT	ENDS
;	COMDAT ?_AtlGetThreadACPReal@ATL@@YGIXZ
_TEXT	SEGMENT
?_AtlGetThreadACPReal@ATL@@YGIXZ PROC NEAR		; ATL::_AtlGetThreadACPReal, COMDAT

; 127  : {

  00000	55		 push	 ebp
  00001	8b ec		 mov	 ebp, esp

; 128  : 	return( CP_THREAD_ACP );

  00003	b8 03 00 00 00	 mov	 eax, 3

; 129  : }

  00008	5d		 pop	 ebp
  00009	c3		 ret	 0
?_AtlGetThreadACPReal@ATL@@YGIXZ ENDP			; ATL::_AtlGetThreadACPReal
_TEXT	ENDS
END
