; Listing generated by Microsoft (R) Optimizing Compiler Version 13.10.3077 

	TITLE	.\src\Gui\CommonControl\MyListCtrl.cpp
	.386P
include listing.inc
if @Version gt 510
.model FLAT
else
_TEXT	SEGMENT PARA USE32 PUBLIC 'CODE'
_TEXT	ENDS
_DATA	SEGMENT DWORD USE32 PUBLIC 'DATA'
_DATA	ENDS
CONST	SEGMENT DWORD USE32 PUBLIC 'CONST'
CONST	ENDS
_BSS	SEGMENT DWORD USE32 PUBLIC 'BSS'
_BSS	ENDS
$$SYMBOLS	SEGMENT BYTE USE32 'DEBSYM'
$$SYMBOLS	ENDS
_TLS	SEGMENT DWORD USE32 PUBLIC 'TLS'
_TLS	ENDS
;	COMDAT ??_C@_0EN@IBFBLEEG@D?3?2Program?5Files?5?$CIx86?$CJ?2Microsoft@
CONST	SEGMENT DWORD USE32 PUBLIC 'CONST'
CONST	ENDS
;	COMDAT ??_C@_0BE@JONHPENG@map?1set?$DMT?$DO?5too?5long?$AA@
CONST	SEGMENT DWORD USE32 PUBLIC 'CONST'
CONST	ENDS
;	COMDAT ??_C@_0BD@OLBABOEK@vector?$DMT?$DO?5too?5long?$AA@
CONST	SEGMENT DWORD USE32 PUBLIC 'CONST'
CONST	ENDS
rdata$r	SEGMENT DWORD USE32 PUBLIC 'CONST'
rdata$r	ENDS
xdata$x	SEGMENT DWORD USE32 PUBLIC 'CONST'
xdata$x	ENDS
text$AFX_COL1	SEGMENT PARA USE32 PUBLIC ''
text$AFX_COL1	ENDS
text$yc	SEGMENT PARA USE32 PUBLIC 'CODE'
text$yc	ENDS
CRT$XCA	SEGMENT DWORD USE32 PUBLIC 'DATA'
CRT$XCA	ENDS
CRT$XCU	SEGMENT DWORD USE32 PUBLIC 'DATA'
CRT$XCU	ENDS
CRT$XCL	SEGMENT DWORD USE32 PUBLIC 'DATA'
CRT$XCL	ENDS
CRT$XCC	SEGMENT DWORD USE32 PUBLIC 'DATA'
CRT$XCC	ENDS
CRT$XCZ	SEGMENT DWORD USE32 PUBLIC 'DATA'
CRT$XCZ	ENDS
text$yd	SEGMENT PARA USE32 PUBLIC 'CODE'
text$yd	ENDS
ATL$__m	SEGMENT DWORD USE32 PUBLIC ''
ATL$__m	ENDS
ATL$__z	SEGMENT DWORD USE32 PUBLIC ''
ATL$__z	ENDS
ATL$__a	SEGMENT DWORD USE32 PUBLIC ''
ATL$__a	ENDS
;	COMDAT ??0MYLIST_COLUMN_IMAGE@@QAE@XZ
_TEXT	SEGMENT PARA USE32 PUBLIC 'CODE'
_TEXT	ENDS
;	COMDAT ??0MYLIST_COLUMN_INFO@@QAE@XZ
_TEXT	SEGMENT PARA USE32 PUBLIC 'CODE'
_TEXT	ENDS
;	COMDAT ??4MYLIST_COLUMN_INFO@@QAEAAU0@ABU0@@Z
_TEXT	SEGMENT PARA USE32 PUBLIC 'CODE'
_TEXT	ENDS
;	COMDAT ?LoadSkin@CMyListCtrl@@UAEXXZ
_TEXT	SEGMENT PARA USE32 PUBLIC 'CODE'
_TEXT	ENDS
;	COMDAT ?ShowItemToolTip@CMyListCtrl@@UAEXHH@Z
_TEXT	SEGMENT PARA USE32 PUBLIC 'CODE'
_TEXT	ENDS
;	COMDAT ?ShowSubItemToolTip@CMyListCtrl@@UAEXHH@Z
_TEXT	SEGMENT PARA USE32 PUBLIC 'CODE'
_TEXT	ENDS
;	COMDAT ?SortFunction@CMyListCtrl@@UAEHHH@Z
_TEXT	SEGMENT PARA USE32 PUBLIC 'CODE'
_TEXT	ENDS
;	COMDAT ?GetItemIdxByKey@CMyListCtrl@@UAEXV?$basic_string@DU?$char_traits@D@std@@V?$allocator@D@2@@std@@AAV?$vector@HV?$allocator@H@std@@@3@@Z
_TEXT	SEGMENT PARA USE32 PUBLIC 'CODE'
_TEXT	ENDS
;	COMDAT ??_GCMyListCtrl@@UAEPAXI@Z
_TEXT	SEGMENT PARA USE32 PUBLIC 'CODE'
_TEXT	ENDS
;	COMDAT ??0CBasicSkinWnd@@QAE@XZ
_TEXT	SEGMENT PARA USE32 PUBLIC 'CODE'
_TEXT	ENDS
;	COMDAT ??1?$map@HUMYLIST_COLUMN_INFO@@U?$less@H@std@@V?$allocator@U?$pair@$$CBHUMYLIST_COLUMN_INFO@@@std@@@3@@std@@QAE@XZ
_TEXT	SEGMENT PARA USE32 PUBLIC 'CODE'
_TEXT	ENDS
;	COMDAT ??1MYLIST_COLUMN_INFO@@QAE@XZ
_TEXT	SEGMENT PARA USE32 PUBLIC 'CODE'
_TEXT	ENDS
;	COMDAT ??B?$CComPtrBase@UITypeInfo2@@@ATL@@QBEPAUITypeInfo2@@XZ
_TEXT	SEGMENT PARA USE32 PUBLIC 'CODE'
_TEXT	ENDS
;	COMDAT ?equal@?$istreambuf_iterator@DU?$char_traits@D@std@@@std@@QBE_NABV12@@Z
_TEXT	SEGMENT PARA USE32 PUBLIC 'CODE'
_TEXT	ENDS
;	COMDAT ?equal@?$istreambuf_iterator@_WU?$char_traits@_W@std@@@std@@QBE_NABV12@@Z
_TEXT	SEGMENT PARA USE32 PUBLIC 'CODE'
_TEXT	ENDS
;	COMDAT ??0?$map@HUMYLIST_COLUMN_INFO@@U?$less@H@std@@V?$allocator@U?$pair@$$CBHUMYLIST_COLUMN_INFO@@@std@@@3@@std@@QAE@XZ
_TEXT	SEGMENT PARA USE32 PUBLIC 'CODE'
_TEXT	ENDS
;	COMDAT ??A?$map@HUMYLIST_COLUMN_INFO@@U?$less@H@std@@V?$allocator@U?$pair@$$CBHUMYLIST_COLUMN_INFO@@@std@@@3@@std@@QAEAAUMYLIST_COLUMN_INFO@@ABH@Z
_TEXT	SEGMENT PARA USE32 PUBLIC 'CODE'
_TEXT	ENDS
;	COMDAT ??1?$_Tree@V?$_Tmap_traits@HUMYLIST_COLUMN_INFO@@U?$less@H@std@@V?$allocator@U?$pair@$$CBHUMYLIST_COLUMN_INFO@@@std@@@3@$0A@@std@@@std@@QAE@XZ
_TEXT	SEGMENT PARA USE32 PUBLIC 'CODE'
_TEXT	ENDS
;	COMDAT ?begin@?$_Tree@V?$_Tmap_traits@HUMYLIST_COLUMN_INFO@@U?$less@H@std@@V?$allocator@U?$pair@$$CBHUMYLIST_COLUMN_INFO@@@std@@@3@$0A@@std@@@std@@QAE?AViterator@12@XZ
_TEXT	SEGMENT PARA USE32 PUBLIC 'CODE'
_TEXT	ENDS
;	COMDAT ?end@?$_Tree@V?$_Tmap_traits@HUMYLIST_COLUMN_INFO@@U?$less@H@std@@V?$allocator@U?$pair@$$CBHUMYLIST_COLUMN_INFO@@@std@@@3@$0A@@std@@@std@@QAE?AViterator@12@XZ
_TEXT	SEGMENT PARA USE32 PUBLIC 'CODE'
_TEXT	ENDS
;	COMDAT ?size@?$_Tree@V?$_Tmap_traits@HUMYLIST_COLUMN_INFO@@U?$less@H@std@@V?$allocator@U?$pair@$$CBHUMYLIST_COLUMN_INFO@@@std@@@3@$0A@@std@@@std@@QBEIXZ
_TEXT	SEGMENT PARA USE32 PUBLIC 'CODE'
_TEXT	ENDS
;	COMDAT ?clear@?$_Tree@V?$_Tmap_traits@HUMYLIST_COLUMN_INFO@@U?$less@H@std@@V?$allocator@U?$pair@$$CBHUMYLIST_COLUMN_INFO@@@std@@@3@$0A@@std@@@std@@QAEXXZ
_TEXT	SEGMENT PARA USE32 PUBLIC 'CODE'
_TEXT	ENDS
;	COMDAT ??0?$vector@HV?$allocator@H@std@@@std@@QAE@XZ
_TEXT	SEGMENT PARA USE32 PUBLIC 'CODE'
_TEXT	ENDS
;	COMDAT ??1?$vector@HV?$allocator@H@std@@@std@@QAE@XZ
_TEXT	SEGMENT PARA USE32 PUBLIC 'CODE'
_TEXT	ENDS
;	COMDAT ?begin@?$vector@HV?$allocator@H@std@@@std@@QAE?AViterator@12@XZ
_TEXT	SEGMENT PARA USE32 PUBLIC 'CODE'
_TEXT	ENDS
;	COMDAT ?end@?$vector@HV?$allocator@H@std@@@std@@QAE?AViterator@12@XZ
_TEXT	SEGMENT PARA USE32 PUBLIC 'CODE'
_TEXT	ENDS
;	COMDAT ?clear@?$vector@HV?$allocator@H@std@@@std@@QAEXXZ
_TEXT	SEGMENT PARA USE32 PUBLIC 'CODE'
_TEXT	ENDS
;	COMDAT ?size@?$vector@UMYLIST_COLUMN_INFO@@V?$allocator@UMYLIST_COLUMN_INFO@@@std@@@std@@QBEIXZ
_TEXT	SEGMENT PARA USE32 PUBLIC 'CODE'
_TEXT	ENDS
;	COMDAT ??A?$vector@UMYLIST_COLUMN_INFO@@V?$allocator@UMYLIST_COLUMN_INFO@@@std@@@std@@QBEABUMYLIST_COLUMN_INFO@@I@Z
_TEXT	SEGMENT PARA USE32 PUBLIC 'CODE'
_TEXT	ENDS
;	COMDAT ??Citerator@?$_Tree@V?$_Tmap_traits@HUMYLIST_COLUMN_INFO@@U?$less@H@std@@V?$allocator@U?$pair@$$CBHUMYLIST_COLUMN_INFO@@@std@@@3@$0A@@std@@@std@@QBEPAU?$pair@$$CBHUMYLIST_COLUMN_INFO@@@2@XZ
_TEXT	SEGMENT PARA USE32 PUBLIC 'CODE'
_TEXT	ENDS
;	COMDAT ??Eiterator@?$_Tree@V?$_Tmap_traits@HUMYLIST_COLUMN_INFO@@U?$less@H@std@@V?$allocator@U?$pair@$$CBHUMYLIST_COLUMN_INFO@@@std@@@3@$0A@@std@@@std@@QAE?AV012@H@Z
_TEXT	SEGMENT PARA USE32 PUBLIC 'CODE'
_TEXT	ENDS
;	COMDAT ??9const_iterator@?$_Tree@V?$_Tmap_traits@HUMYLIST_COLUMN_INFO@@U?$less@H@std@@V?$allocator@U?$pair@$$CBHUMYLIST_COLUMN_INFO@@@std@@@3@$0A@@std@@@std@@QBE_NABV012@@Z
_TEXT	SEGMENT PARA USE32 PUBLIC 'CODE'
_TEXT	ENDS
;	COMDAT ??9const_iterator@?$vector@HV?$allocator@H@std@@@std@@QBE_NABV012@@Z
_TEXT	SEGMENT PARA USE32 PUBLIC 'CODE'
_TEXT	ENDS
;	COMDAT ??1?$pair@$$CBHUMYLIST_COLUMN_INFO@@@std@@QAE@XZ
_TEXT	SEGMENT PARA USE32 PUBLIC 'CODE'
_TEXT	ENDS
;	COMDAT ?_Key@?$_Tree@V?$_Tmap_traits@HUMYLIST_COLUMN_INFO@@U?$less@H@std@@V?$allocator@U?$pair@$$CBHUMYLIST_COLUMN_INFO@@@std@@@3@$0A@@std@@@std@@KAABHPAU_Node@?$_Tree_nod@V?$_Tmap_traits@HUMYLIST_COLUMN_INFO@@U?$less@H@std@@V?$allocator@U?$pair@$$CBHUMYLIST_COLUMN_INFO@@@std@@@3@$0A@@std@@@2@@Z
_TEXT	SEGMENT PARA USE32 PUBLIC 'CODE'
_TEXT	ENDS
;	COMDAT ??0?$_Tree@V?$_Tmap_traits@HUMYLIST_COLUMN_INFO@@U?$less@H@std@@V?$allocator@U?$pair@$$CBHUMYLIST_COLUMN_INFO@@@std@@@3@$0A@@std@@@std@@QAE@ABU?$less@H@1@ABV?$allocator@U?$pair@$$CBHUMYLIST_COLUMN_INFO@@@std@@@1@@Z
_TEXT	SEGMENT PARA USE32 PUBLIC 'CODE'
_TEXT	ENDS
;	COMDAT ?insert@?$_Tree@V?$_Tmap_traits@HUMYLIST_COLUMN_INFO@@U?$less@H@std@@V?$allocator@U?$pair@$$CBHUMYLIST_COLUMN_INFO@@@std@@@3@$0A@@std@@@std@@QAE?AViterator@12@V312@ABU?$pair@$$CBHUMYLIST_COLUMN_INFO@@@2@@Z
_TEXT	SEGMENT PARA USE32 PUBLIC 'CODE'
_TEXT	ENDS
;	COMDAT ?lower_bound@?$_Tree@V?$_Tmap_traits@HUMYLIST_COLUMN_INFO@@U?$less@H@std@@V?$allocator@U?$pair@$$CBHUMYLIST_COLUMN_INFO@@@std@@@3@$0A@@std@@@std@@QAE?AViterator@12@ABH@Z
_TEXT	SEGMENT PARA USE32 PUBLIC 'CODE'
_TEXT	ENDS
;	COMDAT ?_Erase@?$_Tree@V?$_Tmap_traits@HUMYLIST_COLUMN_INFO@@U?$less@H@std@@V?$allocator@U?$pair@$$CBHUMYLIST_COLUMN_INFO@@@std@@@3@$0A@@std@@@std@@IAEXPAU_Node@?$_Tree_nod@V?$_Tmap_traits@HUMYLIST_COLUMN_INFO@@U?$less@H@std@@V?$allocator@U?$pair@$$CBHUMYLIST_COLUMN_INFO@@@std@@@3@$0A@@std@@@2@@Z
_TEXT	SEGMENT PARA USE32 PUBLIC 'CODE'
_TEXT	ENDS
;	COMDAT ?_Lmost@?$_Tree@V?$_Tmap_traits@HUMYLIST_COLUMN_INFO@@U?$less@H@std@@V?$allocator@U?$pair@$$CBHUMYLIST_COLUMN_INFO@@@std@@@3@$0A@@std@@@std@@IAEAAPAU_Node@?$_Tree_nod@V?$_Tmap_traits@HUMYLIST_COLUMN_INFO@@U?$less@H@std@@V?$allocator@U?$pair@$$CBHUMYLIST_COLUMN_INFO@@@std@@@3@$0A@@std@@@2@XZ
_TEXT	SEGMENT PARA USE32 PUBLIC 'CODE'
_TEXT	ENDS
;	COMDAT ?_Rmost@?$_Tree@V?$_Tmap_traits@HUMYLIST_COLUMN_INFO@@U?$less@H@std@@V?$allocator@U?$pair@$$CBHUMYLIST_COLUMN_INFO@@@std@@@3@$0A@@std@@@std@@IAEAAPAU_Node@?$_Tree_nod@V?$_Tmap_traits@HUMYLIST_COLUMN_INFO@@U?$less@H@std@@V?$allocator@U?$pair@$$CBHUMYLIST_COLUMN_INFO@@@std@@@3@$0A@@std@@@2@XZ
_TEXT	SEGMENT PARA USE32 PUBLIC 'CODE'
_TEXT	ENDS
;	COMDAT ?_Root@?$_Tree@V?$_Tmap_traits@HUMYLIST_COLUMN_INFO@@U?$less@H@std@@V?$allocator@U?$pair@$$CBHUMYLIST_COLUMN_INFO@@@std@@@3@$0A@@std@@@std@@IAEAAPAU_Node@?$_Tree_nod@V?$_Tmap_traits@HUMYLIST_COLUMN_INFO@@U?$less@H@std@@V?$allocator@U?$pair@$$CBHUMYLIST_COLUMN_INFO@@@std@@@3@$0A@@std@@@2@XZ
_TEXT	SEGMENT PARA USE32 PUBLIC 'CODE'
_TEXT	ENDS
;	COMDAT ?_Tidy@?$_Tree@V?$_Tmap_traits@HUMYLIST_COLUMN_INFO@@U?$less@H@std@@V?$allocator@U?$pair@$$CBHUMYLIST_COLUMN_INFO@@@std@@@3@$0A@@std@@@std@@IAEXXZ
_TEXT	SEGMENT PARA USE32 PUBLIC 'CODE'
_TEXT	ENDS
;	COMDAT ??0?$allocator@U?$pair@$$CBHUMYLIST_COLUMN_INFO@@@std@@@std@@QAE@XZ
_TEXT	SEGMENT PARA USE32 PUBLIC 'CODE'
_TEXT	ENDS
;	COMDAT ??R?$less@H@std@@QBE_NABH0@Z
_TEXT	SEGMENT PARA USE32 PUBLIC 'CODE'
_TEXT	ENDS
;	COMDAT ??0?$allocator@H@std@@QAE@XZ
_TEXT	SEGMENT PARA USE32 PUBLIC 'CODE'
_TEXT	ENDS
;	COMDAT ?_Buy@?$vector@HV?$allocator@H@std@@@std@@IAE_NI@Z
_TEXT	SEGMENT PARA USE32 PUBLIC 'CODE'
_TEXT	ENDS
;	COMDAT ?_Tidy@?$vector@HV?$allocator@H@std@@@std@@IAEXXZ
_TEXT	SEGMENT PARA USE32 PUBLIC 'CODE'
_TEXT	ENDS
;	COMDAT ??0?$_Vector_val@HV?$allocator@H@std@@@std@@IAE@V?$allocator@H@1@@Z
_TEXT	SEGMENT PARA USE32 PUBLIC 'CODE'
_TEXT	ENDS
;	COMDAT ?begin@?$vector@UMYLIST_COLUMN_INFO@@V?$allocator@UMYLIST_COLUMN_INFO@@@std@@@std@@QBE?AVconst_iterator@12@XZ
_TEXT	SEGMENT PARA USE32 PUBLIC 'CODE'
_TEXT	ENDS
;	COMDAT ??0iterator@?$_Tree@V?$_Tmap_traits@HUMYLIST_COLUMN_INFO@@U?$less@H@std@@V?$allocator@U?$pair@$$CBHUMYLIST_COLUMN_INFO@@@std@@@3@$0A@@std@@@std@@QAE@PAU_Node@?$_Tree_nod@V?$_Tmap_traits@HUMYLIST_COLUMN_INFO@@U?$less@H@std@@V?$allocator@U?$pair@$$CBHUMYLIST_COLUMN_INFO@@@std@@@3@$0A@@std@@@2@@Z
_TEXT	SEGMENT PARA USE32 PUBLIC 'CODE'
_TEXT	ENDS
;	COMDAT ??Diterator@?$_Tree@V?$_Tmap_traits@HUMYLIST_COLUMN_INFO@@U?$less@H@std@@V?$allocator@U?$pair@$$CBHUMYLIST_COLUMN_INFO@@@std@@@3@$0A@@std@@@std@@QBEAAU?$pair@$$CBHUMYLIST_COLUMN_INFO@@@2@XZ
_TEXT	SEGMENT PARA USE32 PUBLIC 'CODE'
_TEXT	ENDS
;	COMDAT ??Eiterator@?$_Tree@V?$_Tmap_traits@HUMYLIST_COLUMN_INFO@@U?$less@H@std@@V?$allocator@U?$pair@$$CBHUMYLIST_COLUMN_INFO@@@std@@@3@$0A@@std@@@std@@QAEAAV012@XZ
_TEXT	SEGMENT PARA USE32 PUBLIC 'CODE'
_TEXT	ENDS
;	COMDAT ??8const_iterator@?$_Tree@V?$_Tmap_traits@HUMYLIST_COLUMN_INFO@@U?$less@H@std@@V?$allocator@U?$pair@$$CBHUMYLIST_COLUMN_INFO@@@std@@@3@$0A@@std@@@std@@QBE_NABV012@@Z
_TEXT	SEGMENT PARA USE32 PUBLIC 'CODE'
_TEXT	ENDS
;	COMDAT ?_Mynode@const_iterator@?$_Tree@V?$_Tmap_traits@HUMYLIST_COLUMN_INFO@@U?$less@H@std@@V?$allocator@U?$pair@$$CBHUMYLIST_COLUMN_INFO@@@std@@@3@$0A@@std@@@std@@QBEPAU_Node@?$_Tree_nod@V?$_Tmap_traits@HUMYLIST_COLUMN_INFO@@U?$less@H@std@@V?$allocator@U?$pair@$$CBHUMYLIST_COLUMN_INFO@@@std@@@3@$0A@@std@@@3@XZ
_TEXT	SEGMENT PARA USE32 PUBLIC 'CODE'
_TEXT	ENDS
;	COMDAT ??0?$pair@$$CBHUMYLIST_COLUMN_INFO@@@std@@QAE@ABHABUMYLIST_COLUMN_INFO@@@Z
_TEXT	SEGMENT PARA USE32 PUBLIC 'CODE'
_TEXT	ENDS
;	COMDAT ??0iterator@?$vector@HV?$allocator@H@std@@@std@@QAE@PAH@Z
_TEXT	SEGMENT PARA USE32 PUBLIC 'CODE'
_TEXT	ENDS
;	COMDAT ??8const_iterator@?$vector@HV?$allocator@H@std@@@std@@QBE_NABV012@@Z
_TEXT	SEGMENT PARA USE32 PUBLIC 'CODE'
_TEXT	ENDS
;	COMDAT ??Dconst_iterator@?$vector@UMYLIST_COLUMN_INFO@@V?$allocator@UMYLIST_COLUMN_INFO@@@std@@@std@@QBEABUMYLIST_COLUMN_INFO@@XZ
_TEXT	SEGMENT PARA USE32 PUBLIC 'CODE'
_TEXT	ENDS
;	COMDAT ??Hconst_iterator@?$vector@UMYLIST_COLUMN_INFO@@V?$allocator@UMYLIST_COLUMN_INFO@@@std@@@std@@QBE?AV012@H@Z
_TEXT	SEGMENT PARA USE32 PUBLIC 'CODE'
_TEXT	ENDS
;	COMDAT ??0MYLIST_COLUMN_INFO@@QAE@ABU0@@Z
_TEXT	SEGMENT PARA USE32 PUBLIC 'CODE'
_TEXT	ENDS
;	COMDAT ?_Isnil@?$_Tree@V?$_Tmap_traits@HUMYLIST_COLUMN_INFO@@U?$less@H@std@@V?$allocator@U?$pair@$$CBHUMYLIST_COLUMN_INFO@@@std@@@3@$0A@@std@@@std@@KAAADPAU_Node@?$_Tree_nod@V?$_Tmap_traits@HUMYLIST_COLUMN_INFO@@U?$less@H@std@@V?$allocator@U?$pair@$$CBHUMYLIST_COLUMN_INFO@@@std@@@3@$0A@@std@@@2@@Z
_TEXT	SEGMENT PARA USE32 PUBLIC 'CODE'
_TEXT	ENDS
;	COMDAT ?_Left@?$_Tree@V?$_Tmap_traits@HUMYLIST_COLUMN_INFO@@U?$less@H@std@@V?$allocator@U?$pair@$$CBHUMYLIST_COLUMN_INFO@@@std@@@3@$0A@@std@@@std@@KAAAPAU_Node@?$_Tree_nod@V?$_Tmap_traits@HUMYLIST_COLUMN_INFO@@U?$less@H@std@@V?$allocator@U?$pair@$$CBHUMYLIST_COLUMN_INFO@@@std@@@3@$0A@@std@@@2@PAU342@@Z
_TEXT	SEGMENT PARA USE32 PUBLIC 'CODE'
_TEXT	ENDS
;	COMDAT ?_Parent@?$_Tree@V?$_Tmap_traits@HUMYLIST_COLUMN_INFO@@U?$less@H@std@@V?$allocator@U?$pair@$$CBHUMYLIST_COLUMN_INFO@@@std@@@3@$0A@@std@@@std@@KAAAPAU_Node@?$_Tree_nod@V?$_Tmap_traits@HUMYLIST_COLUMN_INFO@@U?$less@H@std@@V?$allocator@U?$pair@$$CBHUMYLIST_COLUMN_INFO@@@std@@@3@$0A@@std@@@2@PAU342@@Z
_TEXT	SEGMENT PARA USE32 PUBLIC 'CODE'
_TEXT	ENDS
;	COMDAT ?_Right@?$_Tree@V?$_Tmap_traits@HUMYLIST_COLUMN_INFO@@U?$less@H@std@@V?$allocator@U?$pair@$$CBHUMYLIST_COLUMN_INFO@@@std@@@3@$0A@@std@@@std@@KAAAPAU_Node@?$_Tree_nod@V?$_Tmap_traits@HUMYLIST_COLUMN_INFO@@U?$less@H@std@@V?$allocator@U?$pair@$$CBHUMYLIST_COLUMN_INFO@@@std@@@3@$0A@@std@@@2@PAU342@@Z
_TEXT	SEGMENT PARA USE32 PUBLIC 'CODE'
_TEXT	ENDS
;	COMDAT ?_Myval@?$_Tree@V?$_Tmap_traits@HUMYLIST_COLUMN_INFO@@U?$less@H@std@@V?$allocator@U?$pair@$$CBHUMYLIST_COLUMN_INFO@@@std@@@3@$0A@@std@@@std@@KAAAU?$pair@$$CBHUMYLIST_COLUMN_INFO@@@2@PAU_Node@?$_Tree_nod@V?$_Tmap_traits@HUMYLIST_COLUMN_INFO@@U?$less@H@std@@V?$allocator@U?$pair@$$CBHUMYLIST_COLUMN_INFO@@@std@@@3@$0A@@std@@@2@@Z
_TEXT	SEGMENT PARA USE32 PUBLIC 'CODE'
_TEXT	ENDS
;	COMDAT ?insert@?$_Tree@V?$_Tmap_traits@HUMYLIST_COLUMN_INFO@@U?$less@H@std@@V?$allocator@U?$pair@$$CBHUMYLIST_COLUMN_INFO@@@std@@@3@$0A@@std@@@std@@QAE?AU?$pair@Viterator@?$_Tree@V?$_Tmap_traits@HUMYLIST_COLUMN_INFO@@U?$less@H@std@@V?$allocator@U?$pair@$$CBHUMYLIST_COLUMN_INFO@@@std@@@3@$0A@@std@@@std@@_N@2@ABU?$pair@$$CBHUMYLIST_COLUMN_INFO@@@2@@Z
_TEXT	SEGMENT PARA USE32 PUBLIC 'CODE'
_TEXT	ENDS
;	COMDAT ?erase@?$_Tree@V?$_Tmap_traits@HUMYLIST_COLUMN_INFO@@U?$less@H@std@@V?$allocator@U?$pair@$$CBHUMYLIST_COLUMN_INFO@@@std@@@3@$0A@@std@@@std@@QAE?AViterator@12@V312@0@Z
_TEXT	SEGMENT PARA USE32 PUBLIC 'CODE'
_TEXT	ENDS
;	COMDAT ?_Init@?$_Tree@V?$_Tmap_traits@HUMYLIST_COLUMN_INFO@@U?$less@H@std@@V?$allocator@U?$pair@$$CBHUMYLIST_COLUMN_INFO@@@std@@@3@$0A@@std@@@std@@IAEXXZ
_TEXT	SEGMENT PARA USE32 PUBLIC 'CODE'
_TEXT	ENDS
;	COMDAT ?_Insert@?$_Tree@V?$_Tmap_traits@HUMYLIST_COLUMN_INFO@@U?$less@H@std@@V?$allocator@U?$pair@$$CBHUMYLIST_COLUMN_INFO@@@std@@@3@$0A@@std@@@std@@IAE?AViterator@12@_NPAU_Node@?$_Tree_nod@V?$_Tmap_traits@HUMYLIST_COLUMN_INFO@@U?$less@H@std@@V?$allocator@U?$pair@$$CBHUMYLIST_COLUMN_INFO@@@std@@@3@$0A@@std@@@2@ABU?$pair@$$CBHUMYLIST_COLUMN_INFO@@@2@@Z
_TEXT	SEGMENT PARA USE32 PUBLIC 'CODE'
_TEXT	ENDS
;	COMDAT ?_Lbound@?$_Tree@V?$_Tmap_traits@HUMYLIST_COLUMN_INFO@@U?$less@H@std@@V?$allocator@U?$pair@$$CBHUMYLIST_COLUMN_INFO@@@std@@@3@$0A@@std@@@std@@IBEPAU_Node@?$_Tree_nod@V?$_Tmap_traits@HUMYLIST_COLUMN_INFO@@U?$less@H@std@@V?$allocator@U?$pair@$$CBHUMYLIST_COLUMN_INFO@@@std@@@3@$0A@@std@@@2@ABH@Z
_TEXT	SEGMENT PARA USE32 PUBLIC 'CODE'
_TEXT	ENDS
;	COMDAT ??0?$_Tree_val@V?$_Tmap_traits@HUMYLIST_COLUMN_INFO@@U?$less@H@std@@V?$allocator@U?$pair@$$CBHUMYLIST_COLUMN_INFO@@@std@@@3@$0A@@std@@@std@@IAE@ABU?$less@H@1@V?$allocator@U?$pair@$$CBHUMYLIST_COLUMN_INFO@@@std@@@1@@Z
_TEXT	SEGMENT PARA USE32 PUBLIC 'CODE'
_TEXT	ENDS
;	COMDAT ?_Kfn@?$_Tmap_traits@HUMYLIST_COLUMN_INFO@@U?$less@H@std@@V?$allocator@U?$pair@$$CBHUMYLIST_COLUMN_INFO@@@std@@@3@$0A@@std@@SAABHABU?$pair@$$CBHUMYLIST_COLUMN_INFO@@@2@@Z
_TEXT	SEGMENT PARA USE32 PUBLIC 'CODE'
_TEXT	ENDS
;	COMDAT ??0?$allocator@U?$pair@$$CBHUMYLIST_COLUMN_INFO@@@std@@@std@@QAE@ABV01@@Z
_TEXT	SEGMENT PARA USE32 PUBLIC 'CODE'
_TEXT	ENDS
;	COMDAT ?deallocate@?$allocator@U_Node@?$_Tree_nod@V?$_Tmap_traits@HUMYLIST_COLUMN_INFO@@U?$less@H@std@@V?$allocator@U?$pair@$$CBHUMYLIST_COLUMN_INFO@@@std@@@3@$0A@@std@@@std@@@std@@QAEXPAU_Node@?$_Tree_nod@V?$_Tmap_traits@HUMYLIST_COLUMN_INFO@@U?$less@H@std@@V?$allocator@U?$pair@$$CBHUMYLIST_COLUMN_INFO@@@std@@@3@$0A@@std@@@2@I@Z
_TEXT	SEGMENT PARA USE32 PUBLIC 'CODE'
_TEXT	ENDS
;	COMDAT ?destroy@?$allocator@U_Node@?$_Tree_nod@V?$_Tmap_traits@HUMYLIST_COLUMN_INFO@@U?$less@H@std@@V?$allocator@U?$pair@$$CBHUMYLIST_COLUMN_INFO@@@std@@@3@$0A@@std@@@std@@@std@@QAEXPAU_Node@?$_Tree_nod@V?$_Tmap_traits@HUMYLIST_COLUMN_INFO@@U?$less@H@std@@V?$allocator@U?$pair@$$CBHUMYLIST_COLUMN_INFO@@@std@@@3@$0A@@std@@@2@@Z
_TEXT	SEGMENT PARA USE32 PUBLIC 'CODE'
_TEXT	ENDS
;	COMDAT ?destroy@?$allocator@PAU_Node@?$_Tree_nod@V?$_Tmap_traits@HUMYLIST_COLUMN_INFO@@U?$less@H@std@@V?$allocator@U?$pair@$$CBHUMYLIST_COLUMN_INFO@@@std@@@3@$0A@@std@@@std@@@std@@QAEXPAPAU_Node@?$_Tree_nod@V?$_Tmap_traits@HUMYLIST_COLUMN_INFO@@U?$less@H@std@@V?$allocator@U?$pair@$$CBHUMYLIST_COLUMN_INFO@@@std@@@3@$0A@@std@@@2@@Z
_TEXT	SEGMENT PARA USE32 PUBLIC 'CODE'
_TEXT	ENDS
;	COMDAT ??0?$allocator@H@std@@QAE@ABV01@@Z
_TEXT	SEGMENT PARA USE32 PUBLIC 'CODE'
_TEXT	ENDS
;	COMDAT ?deallocate@?$allocator@H@std@@QAEXPAHI@Z
_TEXT	SEGMENT PARA USE32 PUBLIC 'CODE'
_TEXT	ENDS
;	COMDAT ?allocate@?$allocator@H@std@@QAEPAHI@Z
_TEXT	SEGMENT PARA USE32 PUBLIC 'CODE'
_TEXT	ENDS
;	COMDAT ?max_size@?$vector@HV?$allocator@H@std@@@std@@QBEIXZ
_TEXT	SEGMENT PARA USE32 PUBLIC 'CODE'
_TEXT	ENDS
;	COMDAT ?_Destroy@?$vector@HV?$allocator@H@std@@@std@@IAEXPAH0@Z
_TEXT	SEGMENT PARA USE32 PUBLIC 'CODE'
_TEXT	ENDS
;	COMDAT ?_Xlen@?$vector@HV?$allocator@H@std@@@std@@IBEXXZ
_TEXT	SEGMENT PARA USE32 PUBLIC 'CODE'
_TEXT	ENDS
;	COMDAT ??0iterator@?$_Tree@V?$_Tmap_traits@HUMYLIST_COLUMN_INFO@@U?$less@H@std@@V?$allocator@U?$pair@$$CBHUMYLIST_COLUMN_INFO@@@std@@@3@$0A@@std@@@std@@QAE@XZ
_TEXT	SEGMENT PARA USE32 PUBLIC 'CODE'
_TEXT	ENDS
;	COMDAT ??Fiterator@?$_Tree@V?$_Tmap_traits@HUMYLIST_COLUMN_INFO@@U?$less@H@std@@V?$allocator@U?$pair@$$CBHUMYLIST_COLUMN_INFO@@@std@@@3@$0A@@std@@@std@@QAEAAV012@XZ
_TEXT	SEGMENT PARA USE32 PUBLIC 'CODE'
_TEXT	ENDS
;	COMDAT ??0const_iterator@?$_Tree@V?$_Tmap_traits@HUMYLIST_COLUMN_INFO@@U?$less@H@std@@V?$allocator@U?$pair@$$CBHUMYLIST_COLUMN_INFO@@@std@@@3@$0A@@std@@@std@@QAE@PAU_Node@?$_Tree_nod@V?$_Tmap_traits@HUMYLIST_COLUMN_INFO@@U?$less@H@std@@V?$allocator@U?$pair@$$CBHUMYLIST_COLUMN_INFO@@@std@@@3@$0A@@std@@@2@@Z
_TEXT	SEGMENT PARA USE32 PUBLIC 'CODE'
_TEXT	ENDS
;	COMDAT ??Dconst_iterator@?$_Tree@V?$_Tmap_traits@HUMYLIST_COLUMN_INFO@@U?$less@H@std@@V?$allocator@U?$pair@$$CBHUMYLIST_COLUMN_INFO@@@std@@@3@$0A@@std@@@std@@QBEABU?$pair@$$CBHUMYLIST_COLUMN_INFO@@@2@XZ
_TEXT	SEGMENT PARA USE32 PUBLIC 'CODE'
_TEXT	ENDS
;	COMDAT ??Econst_iterator@?$_Tree@V?$_Tmap_traits@HUMYLIST_COLUMN_INFO@@U?$less@H@std@@V?$allocator@U?$pair@$$CBHUMYLIST_COLUMN_INFO@@@std@@@3@$0A@@std@@@std@@QAEAAV012@XZ
_TEXT	SEGMENT PARA USE32 PUBLIC 'CODE'
_TEXT	ENDS
;	COMDAT ??0const_iterator@?$vector@HV?$allocator@H@std@@@std@@QAE@PAH@Z
_TEXT	SEGMENT PARA USE32 PUBLIC 'CODE'
_TEXT	ENDS
;	COMDAT ??0const_iterator@?$vector@UMYLIST_COLUMN_INFO@@V?$allocator@UMYLIST_COLUMN_INFO@@@std@@@std@@QAE@PAUMYLIST_COLUMN_INFO@@@Z
_TEXT	SEGMENT PARA USE32 PUBLIC 'CODE'
_TEXT	ENDS
;	COMDAT ??Yconst_iterator@?$vector@UMYLIST_COLUMN_INFO@@V?$allocator@UMYLIST_COLUMN_INFO@@@std@@@std@@QAEAAV012@H@Z
_TEXT	SEGMENT PARA USE32 PUBLIC 'CODE'
_TEXT	ENDS
;	COMDAT ??0length_error@std@@QAE@ABV01@@Z
_TEXT	SEGMENT PARA USE32 PUBLIC 'CODE'
_TEXT	ENDS
;	COMDAT ?_Color@?$_Tree@V?$_Tmap_traits@HUMYLIST_COLUMN_INFO@@U?$less@H@std@@V?$allocator@U?$pair@$$CBHUMYLIST_COLUMN_INFO@@@std@@@3@$0A@@std@@@std@@KAAADPAU_Node@?$_Tree_nod@V?$_Tmap_traits@HUMYLIST_COLUMN_INFO@@U?$less@H@std@@V?$allocator@U?$pair@$$CBHUMYLIST_COLUMN_INFO@@@std@@@3@$0A@@std@@@2@@Z
_TEXT	SEGMENT PARA USE32 PUBLIC 'CODE'
_TEXT	ENDS
;	COMDAT ?max_size@?$_Tree@V?$_Tmap_traits@HUMYLIST_COLUMN_INFO@@U?$less@H@std@@V?$allocator@U?$pair@$$CBHUMYLIST_COLUMN_INFO@@@std@@@3@$0A@@std@@@std@@QBEIXZ
_TEXT	SEGMENT PARA USE32 PUBLIC 'CODE'
_TEXT	ENDS
;	COMDAT ?erase@?$_Tree@V?$_Tmap_traits@HUMYLIST_COLUMN_INFO@@U?$less@H@std@@V?$allocator@U?$pair@$$CBHUMYLIST_COLUMN_INFO@@@std@@@3@$0A@@std@@@std@@QAE?AViterator@12@V312@@Z
_TEXT	SEGMENT PARA USE32 PUBLIC 'CODE'
_TEXT	ENDS
;	COMDAT ?_Lrotate@?$_Tree@V?$_Tmap_traits@HUMYLIST_COLUMN_INFO@@U?$less@H@std@@V?$allocator@U?$pair@$$CBHUMYLIST_COLUMN_INFO@@@std@@@3@$0A@@std@@@std@@IAEXPAU_Node@?$_Tree_nod@V?$_Tmap_traits@HUMYLIST_COLUMN_INFO@@U?$less@H@std@@V?$allocator@U?$pair@$$CBHUMYLIST_COLUMN_INFO@@@std@@@3@$0A@@std@@@2@@Z
_TEXT	SEGMENT PARA USE32 PUBLIC 'CODE'
_TEXT	ENDS
;	COMDAT ?_Root@?$_Tree@V?$_Tmap_traits@HUMYLIST_COLUMN_INFO@@U?$less@H@std@@V?$allocator@U?$pair@$$CBHUMYLIST_COLUMN_INFO@@@std@@@3@$0A@@std@@@std@@IBEAAPAU_Node@?$_Tree_nod@V?$_Tmap_traits@HUMYLIST_COLUMN_INFO@@U?$less@H@std@@V?$allocator@U?$pair@$$CBHUMYLIST_COLUMN_INFO@@@std@@@3@$0A@@std@@@2@XZ
_TEXT	SEGMENT PARA USE32 PUBLIC 'CODE'
_TEXT	ENDS
;	COMDAT ?_Rrotate@?$_Tree@V?$_Tmap_traits@HUMYLIST_COLUMN_INFO@@U?$less@H@std@@V?$allocator@U?$pair@$$CBHUMYLIST_COLUMN_INFO@@@std@@@3@$0A@@std@@@std@@IAEXPAU_Node@?$_Tree_nod@V?$_Tmap_traits@HUMYLIST_COLUMN_INFO@@U?$less@H@std@@V?$allocator@U?$pair@$$CBHUMYLIST_COLUMN_INFO@@@std@@@3@$0A@@std@@@2@@Z
_TEXT	SEGMENT PARA USE32 PUBLIC 'CODE'
_TEXT	ENDS
;	COMDAT ?_Buynode@?$_Tree@V?$_Tmap_traits@HUMYLIST_COLUMN_INFO@@U?$less@H@std@@V?$allocator@U?$pair@$$CBHUMYLIST_COLUMN_INFO@@@std@@@3@$0A@@std@@@std@@IAEPAU_Node@?$_Tree_nod@V?$_Tmap_traits@HUMYLIST_COLUMN_INFO@@U?$less@H@std@@V?$allocator@U?$pair@$$CBHUMYLIST_COLUMN_INFO@@@std@@@3@$0A@@std@@@2@XZ
_TEXT	SEGMENT PARA USE32 PUBLIC 'CODE'
_TEXT	ENDS
;	COMDAT ?_Buynode@?$_Tree@V?$_Tmap_traits@HUMYLIST_COLUMN_INFO@@U?$less@H@std@@V?$allocator@U?$pair@$$CBHUMYLIST_COLUMN_INFO@@@std@@@3@$0A@@std@@@std@@IAEPAU_Node@?$_Tree_nod@V?$_Tmap_traits@HUMYLIST_COLUMN_INFO@@U?$less@H@std@@V?$allocator@U?$pair@$$CBHUMYLIST_COLUMN_INFO@@@std@@@3@$0A@@std@@@2@PAU342@00ABU?$pair@$$CBHUMYLIST_COLUMN_INFO@@@2@D@Z
_TEXT	SEGMENT PARA USE32 PUBLIC 'CODE'
_TEXT	ENDS
;	COMDAT ??0?$_Tree_ptr@V?$_Tmap_traits@HUMYLIST_COLUMN_INFO@@U?$less@H@std@@V?$allocator@U?$pair@$$CBHUMYLIST_COLUMN_INFO@@@std@@@3@$0A@@std@@@std@@IAE@ABU?$less@H@1@V?$allocator@U?$pair@$$CBHUMYLIST_COLUMN_INFO@@@std@@@1@@Z
_TEXT	SEGMENT PARA USE32 PUBLIC 'CODE'
_TEXT	ENDS
;	COMDAT ?max_size@?$allocator@H@std@@QBEIXZ
_TEXT	SEGMENT PARA USE32 PUBLIC 'CODE'
_TEXT	ENDS
;	COMDAT ??0const_iterator@?$_Tree@V?$_Tmap_traits@HUMYLIST_COLUMN_INFO@@U?$less@H@std@@V?$allocator@U?$pair@$$CBHUMYLIST_COLUMN_INFO@@@std@@@3@$0A@@std@@@std@@QAE@XZ
_TEXT	SEGMENT PARA USE32 PUBLIC 'CODE'
_TEXT	ENDS
;	COMDAT ??Fconst_iterator@?$_Tree@V?$_Tmap_traits@HUMYLIST_COLUMN_INFO@@U?$less@H@std@@V?$allocator@U?$pair@$$CBHUMYLIST_COLUMN_INFO@@@std@@@3@$0A@@std@@@std@@QAEAAV012@XZ
_TEXT	SEGMENT PARA USE32 PUBLIC 'CODE'
_TEXT	ENDS
;	COMDAT ?_Inc@const_iterator@?$_Tree@V?$_Tmap_traits@HUMYLIST_COLUMN_INFO@@U?$less@H@std@@V?$allocator@U?$pair@$$CBHUMYLIST_COLUMN_INFO@@@std@@@3@$0A@@std@@@std@@QAEXXZ
_TEXT	SEGMENT PARA USE32 PUBLIC 'CODE'
_TEXT	ENDS
;	COMDAT ??0?$pair@Viterator@?$_Tree@V?$_Tmap_traits@HUMYLIST_COLUMN_INFO@@U?$less@H@std@@V?$allocator@U?$pair@$$CBHUMYLIST_COLUMN_INFO@@@std@@@3@$0A@@std@@@std@@_N@std@@QAE@ABViterator@?$_Tree@V?$_Tmap_traits@HUMYLIST_COLUMN_INFO@@U?$less@H@std@@V?$allocator@U?$pair@$$CBHUMYLIST_COLUMN_INFO@@@std@@@3@$0A@@std@@@1@AB_N@Z
_TEXT	SEGMENT PARA USE32 PUBLIC 'CODE'
_TEXT	ENDS
;	COMDAT ?_Max@?$_Tree@V?$_Tmap_traits@HUMYLIST_COLUMN_INFO@@U?$less@H@std@@V?$allocator@U?$pair@$$CBHUMYLIST_COLUMN_INFO@@@std@@@3@$0A@@std@@@std@@KAPAU_Node@?$_Tree_nod@V?$_Tmap_traits@HUMYLIST_COLUMN_INFO@@U?$less@H@std@@V?$allocator@U?$pair@$$CBHUMYLIST_COLUMN_INFO@@@std@@@3@$0A@@std@@@2@PAU342@@Z
_TEXT	SEGMENT PARA USE32 PUBLIC 'CODE'
_TEXT	ENDS
;	COMDAT ?_Min@?$_Tree@V?$_Tmap_traits@HUMYLIST_COLUMN_INFO@@U?$less@H@std@@V?$allocator@U?$pair@$$CBHUMYLIST_COLUMN_INFO@@@std@@@3@$0A@@std@@@std@@KAPAU_Node@?$_Tree_nod@V?$_Tmap_traits@HUMYLIST_COLUMN_INFO@@U?$less@H@std@@V?$allocator@U?$pair@$$CBHUMYLIST_COLUMN_INFO@@@std@@@3@$0A@@std@@@2@PAU342@@Z
_TEXT	SEGMENT PARA USE32 PUBLIC 'CODE'
_TEXT	ENDS
;	COMDAT ??0?$_Tree_nod@V?$_Tmap_traits@HUMYLIST_COLUMN_INFO@@U?$less@H@std@@V?$allocator@U?$pair@$$CBHUMYLIST_COLUMN_INFO@@@std@@@3@$0A@@std@@@std@@IAE@ABU?$less@H@1@V?$allocator@U?$pair@$$CBHUMYLIST_COLUMN_INFO@@@std@@@1@@Z
_TEXT	SEGMENT PARA USE32 PUBLIC 'CODE'
_TEXT	ENDS
;	COMDAT ?max_size@?$allocator@U?$pair@$$CBHUMYLIST_COLUMN_INFO@@@std@@@std@@QBEIXZ
_TEXT	SEGMENT PARA USE32 PUBLIC 'CODE'
_TEXT	ENDS
;	COMDAT ?allocate@?$allocator@U_Node@?$_Tree_nod@V?$_Tmap_traits@HUMYLIST_COLUMN_INFO@@U?$less@H@std@@V?$allocator@U?$pair@$$CBHUMYLIST_COLUMN_INFO@@@std@@@3@$0A@@std@@@std@@@std@@QAEPAU_Node@?$_Tree_nod@V?$_Tmap_traits@HUMYLIST_COLUMN_INFO@@U?$less@H@std@@V?$allocator@U?$pair@$$CBHUMYLIST_COLUMN_INFO@@@std@@@3@$0A@@std@@@2@I@Z
_TEXT	SEGMENT PARA USE32 PUBLIC 'CODE'
_TEXT	ENDS
;	COMDAT ?construct@?$allocator@PAU_Node@?$_Tree_nod@V?$_Tmap_traits@HUMYLIST_COLUMN_INFO@@U?$less@H@std@@V?$allocator@U?$pair@$$CBHUMYLIST_COLUMN_INFO@@@std@@@3@$0A@@std@@@std@@@std@@QAEXPAPAU_Node@?$_Tree_nod@V?$_Tmap_traits@HUMYLIST_COLUMN_INFO@@U?$less@H@std@@V?$allocator@U?$pair@$$CBHUMYLIST_COLUMN_INFO@@@std@@@3@$0A@@std@@@2@ABQAU342@@Z
_TEXT	SEGMENT PARA USE32 PUBLIC 'CODE'
_TEXT	ENDS
;	COMDAT ?_Dec@const_iterator@?$_Tree@V?$_Tmap_traits@HUMYLIST_COLUMN_INFO@@U?$less@H@std@@V?$allocator@U?$pair@$$CBHUMYLIST_COLUMN_INFO@@@std@@@3@$0A@@std@@@std@@QAEXXZ
_TEXT	SEGMENT PARA USE32 PUBLIC 'CODE'
_TEXT	ENDS
;	COMDAT ??0_Node@?$_Tree_nod@V?$_Tmap_traits@HUMYLIST_COLUMN_INFO@@U?$less@H@std@@V?$allocator@U?$pair@$$CBHUMYLIST_COLUMN_INFO@@@std@@@3@$0A@@std@@@std@@QAE@PAU012@00ABU?$pair@$$CBHUMYLIST_COLUMN_INFO@@@2@D@Z
_TEXT	SEGMENT PARA USE32 PUBLIC 'CODE'
_TEXT	ENDS
;	COMDAT ??0?$pair@$$CBHUMYLIST_COLUMN_INFO@@@std@@QAE@ABU01@@Z
_TEXT	SEGMENT PARA USE32 PUBLIC 'CODE'
_TEXT	ENDS
;	COMDAT ??0?$_Tmap_traits@HUMYLIST_COLUMN_INFO@@U?$less@H@std@@V?$allocator@U?$pair@$$CBHUMYLIST_COLUMN_INFO@@@std@@@3@$0A@@std@@QAE@U?$less@H@1@@Z
_TEXT	SEGMENT PARA USE32 PUBLIC 'CODE'
_TEXT	ENDS
;	COMDAT ?Unlock@?$CComCritSecLock@VCComCriticalSection@ATL@@@ATL@@QAEXXZ
_TEXT	SEGMENT PARA USE32 PUBLIC 'CODE'
_TEXT	ENDS
;	COMDAT ??$find@Viterator@?$vector@HV?$allocator@H@std@@@std@@H@std@@YA?AViterator@?$vector@HV?$allocator@H@std@@@0@V120@0ABH@Z
_TEXT	SEGMENT PARA USE32 PUBLIC 'CODE'
_TEXT	ENDS
;	COMDAT ??$back_inserter@V?$vector@HV?$allocator@H@std@@@std@@@std@@YA?AV?$back_insert_iterator@V?$vector@HV?$allocator@H@std@@@std@@@0@AAV?$vector@HV?$allocator@H@std@@@0@@Z
_TEXT	SEGMENT PARA USE32 PUBLIC 'CODE'
_TEXT	ENDS
;	COMDAT ??$copy@Viterator@?$vector@HV?$allocator@H@std@@@std@@V?$back_insert_iterator@V?$vector@HV?$allocator@H@std@@@std@@@3@@std@@YA?AV?$back_insert_iterator@V?$vector@HV?$allocator@H@std@@@std@@@0@Viterator@?$vector@HV?$allocator@H@std@@@0@0V10@@Z
_TEXT	SEGMENT PARA USE32 PUBLIC 'CODE'
_TEXT	ENDS
;	COMDAT ??$_Maklocstr@D@std@@YAPADPBDPADABU_Cvtvec@@@Z
_TEXT	SEGMENT PARA USE32 PUBLIC 'CODE'
_TEXT	ENDS
;	COMDAT ??$_Destroy@U_Node@?$_Tree_nod@V?$_Tmap_traits@HUMYLIST_COLUMN_INFO@@U?$less@H@std@@V?$allocator@U?$pair@$$CBHUMYLIST_COLUMN_INFO@@@std@@@3@$0A@@std@@@std@@@std@@YAXPAU_Node@?$_Tree_nod@V?$_Tmap_traits@HUMYLIST_COLUMN_INFO@@U?$less@H@std@@V?$allocator@U?$pair@$$CBHUMYLIST_COLUMN_INFO@@@std@@@3@$0A@@std@@@0@@Z
_TEXT	SEGMENT PARA USE32 PUBLIC 'CODE'
_TEXT	ENDS
;	COMDAT ??$_Destroy@PAU_Node@?$_Tree_nod@V?$_Tmap_traits@HUMYLIST_COLUMN_INFO@@U?$less@H@std@@V?$allocator@U?$pair@$$CBHUMYLIST_COLUMN_INFO@@@std@@@3@$0A@@std@@@std@@@std@@YAXPAPAU_Node@?$_Tree_nod@V?$_Tmap_traits@HUMYLIST_COLUMN_INFO@@U?$less@H@std@@V?$allocator@U?$pair@$$CBHUMYLIST_COLUMN_INFO@@@std@@@3@$0A@@std@@@0@@Z
_TEXT	SEGMENT PARA USE32 PUBLIC 'CODE'
_TEXT	ENDS
;	COMDAT ??$_Allocate@H@std@@YAPAHIPAH@Z
_TEXT	SEGMENT PARA USE32 PUBLIC 'CODE'
_TEXT	ENDS
;	COMDAT ??$_Destroy_range@HV?$allocator@H@std@@@std@@YAXPAH0AAV?$allocator@H@0@@Z
_TEXT	SEGMENT PARA USE32 PUBLIC 'CODE'
_TEXT	ENDS
;	COMDAT ??$?0U?$pair@$$CBHUMYLIST_COLUMN_INFO@@@std@@@?$allocator@PAU_Node@?$_Tree_nod@V?$_Tmap_traits@HUMYLIST_COLUMN_INFO@@U?$less@H@std@@V?$allocator@U?$pair@$$CBHUMYLIST_COLUMN_INFO@@@std@@@3@$0A@@std@@@std@@@std@@QAE@ABV?$allocator@U?$pair@$$CBHUMYLIST_COLUMN_INFO@@@std@@@1@@Z
_TEXT	SEGMENT PARA USE32 PUBLIC 'CODE'
_TEXT	ENDS
;	COMDAT ??$?0U?$pair@$$CBHUMYLIST_COLUMN_INFO@@@std@@@?$allocator@U_Node@?$_Tree_nod@V?$_Tmap_traits@HUMYLIST_COLUMN_INFO@@U?$less@H@std@@V?$allocator@U?$pair@$$CBHUMYLIST_COLUMN_INFO@@@std@@@3@$0A@@std@@@std@@@std@@QAE@ABV?$allocator@U?$pair@$$CBHUMYLIST_COLUMN_INFO@@@std@@@1@@Z
_TEXT	SEGMENT PARA USE32 PUBLIC 'CODE'
_TEXT	ENDS
;	COMDAT ??$_Allocate@U_Node@?$_Tree_nod@V?$_Tmap_traits@HUMYLIST_COLUMN_INFO@@U?$less@H@std@@V?$allocator@U?$pair@$$CBHUMYLIST_COLUMN_INFO@@@std@@@3@$0A@@std@@@std@@@std@@YAPAU_Node@?$_Tree_nod@V?$_Tmap_traits@HUMYLIST_COLUMN_INFO@@U?$less@H@std@@V?$allocator@U?$pair@$$CBHUMYLIST_COLUMN_INFO@@@std@@@3@$0A@@std@@@0@IPAU120@@Z
_TEXT	SEGMENT PARA USE32 PUBLIC 'CODE'
_TEXT	ENDS
;	COMDAT ??$_Construct@PAU_Node@?$_Tree_nod@V?$_Tmap_traits@HUMYLIST_COLUMN_INFO@@U?$less@H@std@@V?$allocator@U?$pair@$$CBHUMYLIST_COLUMN_INFO@@@std@@@3@$0A@@std@@@std@@PAU123@@std@@YAXPAPAU_Node@?$_Tree_nod@V?$_Tmap_traits@HUMYLIST_COLUMN_INFO@@U?$less@H@std@@V?$allocator@U?$pair@$$CBHUMYLIST_COLUMN_INFO@@@std@@@3@$0A@@std@@@0@ABQAU120@@Z
_TEXT	SEGMENT PARA USE32 PUBLIC 'CODE'
_TEXT	ENDS
;	COMDAT ??_G_Node@?$_Tree_nod@V?$_Tmap_traits@HUMYLIST_COLUMN_INFO@@U?$less@H@std@@V?$allocator@U?$pair@$$CBHUMYLIST_COLUMN_INFO@@@std@@@3@$0A@@std@@@std@@QAEPAXI@Z
_TEXT	SEGMENT PARA USE32 PUBLIC 'CODE'
_TEXT	ENDS
;	COMDAT ??1_Node@?$_Tree_nod@V?$_Tmap_traits@HUMYLIST_COLUMN_INFO@@U?$less@H@std@@V?$allocator@U?$pair@$$CBHUMYLIST_COLUMN_INFO@@@std@@@3@$0A@@std@@@std@@QAE@XZ
_TEXT	SEGMENT PARA USE32 PUBLIC 'CODE'
_TEXT	ENDS
;	COMDAT ??Diterator@?$vector@HV?$allocator@H@std@@@std@@QBEAAHXZ
_TEXT	SEGMENT PARA USE32 PUBLIC 'CODE'
_TEXT	ENDS
;	COMDAT ??Eiterator@?$vector@HV?$allocator@H@std@@@std@@QAEAAV012@XZ
_TEXT	SEGMENT PARA USE32 PUBLIC 'CODE'
_TEXT	ENDS
;	COMDAT ??0?$back_insert_iterator@V?$vector@HV?$allocator@H@std@@@std@@@std@@QAE@AAV?$vector@HV?$allocator@H@std@@@1@@Z
_TEXT	SEGMENT PARA USE32 PUBLIC 'CODE'
_TEXT	ENDS
;	COMDAT ??Dconst_iterator@?$vector@HV?$allocator@H@std@@@std@@QBEABHXZ
_TEXT	SEGMENT PARA USE32 PUBLIC 'CODE'
_TEXT	ENDS
;	COMDAT ??$_Ptr_cat@Viterator@?$vector@HV?$allocator@H@std@@@std@@V?$back_insert_iterator@V?$vector@HV?$allocator@H@std@@@std@@@3@@std@@YA?AU_Nonscalar_ptr_iterator_tag@0@AAViterator@?$vector@HV?$allocator@H@std@@@0@AAV?$back_insert_iterator@V?$vector@HV?$allocator@H@std@@@std@@@0@@Z
_TEXT	SEGMENT PARA USE32 PUBLIC 'CODE'
_TEXT	ENDS
;	COMDAT ??$_Copy_opt@Viterator@?$vector@HV?$allocator@H@std@@@std@@V?$back_insert_iterator@V?$vector@HV?$allocator@H@std@@@std@@@3@@std@@YA?AV?$back_insert_iterator@V?$vector@HV?$allocator@H@std@@@std@@@0@Viterator@?$vector@HV?$allocator@H@std@@@0@0V10@U_Nonscalar_ptr_iterator_tag@0@@Z
_TEXT	SEGMENT PARA USE32 PUBLIC 'CODE'
_TEXT	ENDS
;	COMDAT ??$_Destroy_range@HV?$allocator@H@std@@@std@@YAXPAH0AAV?$allocator@H@0@U_Scalar_ptr_iterator_tag@0@@Z
_TEXT	SEGMENT PARA USE32 PUBLIC 'CODE'
_TEXT	ENDS
;	COMDAT ??4?$back_insert_iterator@V?$vector@HV?$allocator@H@std@@@std@@@std@@QAEAAV01@ABH@Z
_TEXT	SEGMENT PARA USE32 PUBLIC 'CODE'
_TEXT	ENDS
;	COMDAT ??D?$back_insert_iterator@V?$vector@HV?$allocator@H@std@@@std@@@std@@QAEAAV01@XZ
_TEXT	SEGMENT PARA USE32 PUBLIC 'CODE'
_TEXT	ENDS
;	COMDAT ??E?$back_insert_iterator@V?$vector@HV?$allocator@H@std@@@std@@@std@@QAEAAV01@XZ
_TEXT	SEGMENT PARA USE32 PUBLIC 'CODE'
_TEXT	ENDS
;	COMDAT ?push_back@?$vector@HV?$allocator@H@std@@@std@@QAEXABH@Z
_TEXT	SEGMENT PARA USE32 PUBLIC 'CODE'
_TEXT	ENDS
;	COMDAT ?capacity@?$vector@HV?$allocator@H@std@@@std@@QBEIXZ
_TEXT	SEGMENT PARA USE32 PUBLIC 'CODE'
_TEXT	ENDS
;	COMDAT ?size@?$vector@HV?$allocator@H@std@@@std@@QBEIXZ
_TEXT	SEGMENT PARA USE32 PUBLIC 'CODE'
_TEXT	ENDS
;	COMDAT ?insert@?$vector@HV?$allocator@H@std@@@std@@QAE?AViterator@12@V312@ABH@Z
_TEXT	SEGMENT PARA USE32 PUBLIC 'CODE'
_TEXT	ENDS
;	COMDAT ?_Ufill@?$vector@HV?$allocator@H@std@@@std@@IAEPAHPAHIABH@Z
_TEXT	SEGMENT PARA USE32 PUBLIC 'CODE'
_TEXT	ENDS
;	COMDAT ?_Insert_n@?$vector@HV?$allocator@H@std@@@std@@IAEXViterator@12@IABH@Z
_TEXT	SEGMENT PARA USE32 PUBLIC 'CODE'
_TEXT	ENDS
;	COMDAT ??Hiterator@?$vector@HV?$allocator@H@std@@@std@@QBE?AV012@H@Z
_TEXT	SEGMENT PARA USE32 PUBLIC 'CODE'
_TEXT	ENDS
;	COMDAT ??Giterator@?$vector@HV?$allocator@H@std@@@std@@QBEHABVconst_iterator@12@@Z
_TEXT	SEGMENT PARA USE32 PUBLIC 'CODE'
_TEXT	ENDS
;	COMDAT ??Yiterator@?$vector@HV?$allocator@H@std@@@std@@QAEAAV012@H@Z
_TEXT	SEGMENT PARA USE32 PUBLIC 'CODE'
_TEXT	ENDS
;	COMDAT ??Gconst_iterator@?$vector@HV?$allocator@H@std@@@std@@QBEHABV012@@Z
_TEXT	SEGMENT PARA USE32 PUBLIC 'CODE'
_TEXT	ENDS
;	COMDAT ??$_Uninitialized_fill_n@PAHIHV?$allocator@H@std@@@std@@YAXPAHIABHAAV?$allocator@H@0@@Z
_TEXT	SEGMENT PARA USE32 PUBLIC 'CODE'
_TEXT	ENDS
;	COMDAT ??$_Ucopy@PAH@?$vector@HV?$allocator@H@std@@@std@@IAEPAHPAH00@Z
_TEXT	SEGMENT PARA USE32 PUBLIC 'CODE'
_TEXT	ENDS
;	COMDAT ??$fill@PAHH@std@@YAXPAH0ABH@Z
_TEXT	SEGMENT PARA USE32 PUBLIC 'CODE'
_TEXT	ENDS
;	COMDAT ??$copy_backward@PAHPAH@std@@YAPAHPAH00@Z
_TEXT	SEGMENT PARA USE32 PUBLIC 'CODE'
_TEXT	ENDS
;	COMDAT ??$_Uninit_fill_n@HIH@std@@YAXPAHIABHAAV?$allocator@H@0@U_Scalar_ptr_iterator_tag@0@@Z
_TEXT	SEGMENT PARA USE32 PUBLIC 'CODE'
_TEXT	ENDS
;	COMDAT ??$_Uninitialized_copy@PAHPAHV?$allocator@H@std@@@std@@YAPAHPAH00AAV?$allocator@H@0@@Z
_TEXT	SEGMENT PARA USE32 PUBLIC 'CODE'
_TEXT	ENDS
;	COMDAT ??$_Copy_backward_opt@PAHPAH@std@@YAPAHPAH00U_Scalar_ptr_iterator_tag@0@@Z
_TEXT	SEGMENT PARA USE32 PUBLIC 'CODE'
_TEXT	ENDS
;	COMDAT ??$fill_n@PAHIH@std@@YAXPAHIABH@Z
_TEXT	SEGMENT PARA USE32 PUBLIC 'CODE'
_TEXT	ENDS
;	COMDAT ??$_Uninit_copy@HH@std@@YAPAHPAH00AAV?$allocator@H@0@U_Scalar_ptr_iterator_tag@0@@Z
_TEXT	SEGMENT PARA USE32 PUBLIC 'CODE'
_TEXT	ENDS
;	COMDAT ??_ECMyListCtrl@@WFE@AEPAXI@Z
_TEXT	SEGMENT PARA USE32 PUBLIC 'CODE'
_TEXT	ENDS
;	COMDAT ??_R3?$numpunct@_W@std@@8
rdata$r	SEGMENT DWORD USE32 PUBLIC 'CONST'
rdata$r	ENDS
;	COMDAT ??_R3?$numpunct@D@std@@8
rdata$r	SEGMENT DWORD USE32 PUBLIC 'CONST'
rdata$r	ENDS
;	COMDAT ??_R3CMyListCtrl@@8
rdata$r	SEGMENT DWORD USE32 PUBLIC 'CONST'
rdata$r	ENDS
;	COMDAT ??_R2?$numpunct@_W@std@@8
rdata$r	SEGMENT DWORD USE32 PUBLIC 'CONST'
rdata$r	ENDS
;	COMDAT ??_R2?$numpunct@D@std@@8
rdata$r	SEGMENT DWORD USE32 PUBLIC 'CONST'
rdata$r	ENDS
;	COMDAT ??_R2CMyListCtrl@@8
rdata$r	SEGMENT DWORD USE32 PUBLIC 'CONST'
rdata$r	ENDS
;	COMDAT ??_R1A@?0A@A@?$numpunct@_W@std@@8
rdata$r	SEGMENT DWORD USE32 PUBLIC 'CONST'
rdata$r	ENDS
;	COMDAT ??_R1A@?0A@A@facet@locale@std@@8
rdata$r	SEGMENT DWORD USE32 PUBLIC 'CONST'
rdata$r	ENDS
;	COMDAT ??_R0?AVfacet@locale@std@@@8
_DATA	SEGMENT DWORD USE32 PUBLIC 'DATA'
_DATA	ENDS
;	COMDAT ??_R1A@?0A@A@?$numpunct@D@std@@8
rdata$r	SEGMENT DWORD USE32 PUBLIC 'CONST'
rdata$r	ENDS
;	COMDAT ??_R1FE@?0A@A@CBasicSkinWnd@@8
rdata$r	SEGMENT DWORD USE32 PUBLIC 'CONST'
rdata$r	ENDS
;	COMDAT ??_R1A@?0A@A@CObject@@8
rdata$r	SEGMENT DWORD USE32 PUBLIC 'CONST'
rdata$r	ENDS
;	COMDAT ??_R0?AVCObject@@@8
_DATA	SEGMENT DWORD USE32 PUBLIC 'DATA'
_DATA	ENDS
;	COMDAT ??_R1A@?0A@A@CCmdTarget@@8
rdata$r	SEGMENT DWORD USE32 PUBLIC 'CONST'
rdata$r	ENDS
;	COMDAT ??_R0?AVCCmdTarget@@@8
_DATA	SEGMENT DWORD USE32 PUBLIC 'DATA'
_DATA	ENDS
;	COMDAT ??_R1A@?0A@A@CWnd@@8
rdata$r	SEGMENT DWORD USE32 PUBLIC 'CONST'
rdata$r	ENDS
;	COMDAT ??_R0?AVCWnd@@@8
_DATA	SEGMENT DWORD USE32 PUBLIC 'DATA'
_DATA	ENDS
;	COMDAT ??_R1A@?0A@A@CListCtrl@@8
rdata$r	SEGMENT DWORD USE32 PUBLIC 'CONST'
rdata$r	ENDS
;	COMDAT ??_R1A@?0A@A@CMyListCtrl@@8
rdata$r	SEGMENT DWORD USE32 PUBLIC 'CONST'
rdata$r	ENDS
;	COMDAT ??_R0?AV?$numpunct@_W@std@@@8
_DATA	SEGMENT DWORD USE32 PUBLIC 'DATA'
_DATA	ENDS
;	COMDAT ??_R0?AV?$numpunct@D@std@@@8
_DATA	SEGMENT DWORD USE32 PUBLIC 'DATA'
_DATA	ENDS
;	COMDAT ??_R0?AVCBasicSkinWnd@@@8
_DATA	SEGMENT DWORD USE32 PUBLIC 'DATA'
_DATA	ENDS
;	COMDAT ??_R0?AVCListCtrl@@@8
_DATA	SEGMENT DWORD USE32 PUBLIC 'DATA'
_DATA	ENDS
;	COMDAT ??_R0?AVCMyListCtrl@@@8
_DATA	SEGMENT DWORD USE32 PUBLIC 'DATA'
_DATA	ENDS
;	COMDAT ??0?$allocator@_W@std@@QAE@XZ
_TEXT	SEGMENT PARA USE32 PUBLIC 'CODE'
_TEXT	ENDS
;	COMDAT ??_G?$numpunct@_W@std@@MAEPAXI@Z
_TEXT	SEGMENT PARA USE32 PUBLIC 'CODE'
_TEXT	ENDS
;	COMDAT ??_R4?$numpunct@_W@std@@6B@
rdata$r	SEGMENT DWORD USE32 PUBLIC 'CONST'
rdata$r	ENDS
;	COMDAT ??_G?$numpunct@D@std@@MAEPAXI@Z
_TEXT	SEGMENT PARA USE32 PUBLIC 'CODE'
_TEXT	ENDS
;	COMDAT ??_R4?$numpunct@D@std@@6B@
rdata$r	SEGMENT DWORD USE32 PUBLIC 'CONST'
rdata$r	ENDS
;	COMDAT ??_R4CMyListCtrl@@6BCBasicSkinWnd@@@
rdata$r	SEGMENT DWORD USE32 PUBLIC 'CONST'
rdata$r	ENDS
;	COMDAT ??_R4CMyListCtrl@@6BCListCtrl@@@
rdata$r	SEGMENT DWORD USE32 PUBLIC 'CONST'
rdata$r	ENDS
;	COMDAT ?_Ptr_cat@std@@YA?AU_Scalar_ptr_iterator_tag@1@PAH0@Z
_TEXT	SEGMENT PARA USE32 PUBLIC 'CODE'
_TEXT	ENDS
;	COMDAT ??_C@_0EN@CBMLGOH@D?3?2Program?5Files?5?$CIx86?$CJ?2Microsoft@
CONST	SEGMENT DWORD USE32 PUBLIC 'CONST'
CONST	ENDS
;	COMDAT ?_Psave@?$_Facetptr@V?$numpunct@_W@std@@@std@@2PBVfacet@locale@2@B
_DATA	SEGMENT DWORD USE32 PUBLIC 'DATA'
_DATA	ENDS
;	COMDAT ?_Psave@?$_Facetptr@V?$numpunct@D@std@@@std@@2PBVfacet@locale@2@B
_DATA	SEGMENT DWORD USE32 PUBLIC 'DATA'
_DATA	ENDS
;	COMDAT ?Unlock@CComCriticalSection@ATL@@QAEJXZ
_TEXT	SEGMENT PARA USE32 PUBLIC 'CODE'
_TEXT	ENDS
;	COMDAT ??_C@_0FG@LDNDNCJM@D?3?2Program?5Files?5?$CIx86?$CJ?2Microsoft@
CONST	SEGMENT DWORD USE32 PUBLIC 'CONST'
CONST	ENDS
;	COMDAT ??_C@_09HIEJFN@m_bLocked?$AA@
CONST	SEGMENT DWORD USE32 PUBLIC 'CONST'
CONST	ENDS
;	COMDAT ?_Psave@?$_Facetptr@V?$ctype@_W@std@@@std@@2PBVfacet@locale@2@B
_DATA	SEGMENT DWORD USE32 PUBLIC 'DATA'
_DATA	ENDS
;	COMDAT ?_Psave@?$_Facetptr@V?$ctype@D@std@@@std@@2PBVfacet@locale@2@B
_DATA	SEGMENT DWORD USE32 PUBLIC 'DATA'
_DATA	ENDS
;	COMDAT ??3@YAXPAX0@Z
_TEXT	SEGMENT PARA USE32 PUBLIC 'CODE'
_TEXT	ENDS
;	COMDAT ??2@YAPAXIPAX@Z
_TEXT	SEGMENT PARA USE32 PUBLIC 'CODE'
_TEXT	ENDS
;	COMDAT ??$swap@D@std@@YAXAAD0@Z
_TEXT	SEGMENT PARA USE32 PUBLIC 'CODE'
_TEXT	ENDS
;	COMDAT __TI3?AVout_of_range@std@@
xdata$x	SEGMENT DWORD USE32 PUBLIC 'CONST'
xdata$x	ENDS
;	COMDAT ??1out_of_range@std@@UAE@XZ
_TEXT	SEGMENT PARA USE32 PUBLIC 'CODE'
_TEXT	ENDS
;	COMDAT ??_7out_of_range@std@@6B@
CONST	SEGMENT DWORD USE32 PUBLIC 'CONST'
CONST	ENDS
;	COMDAT ??_R4out_of_range@std@@6B@
rdata$r	SEGMENT DWORD USE32 PUBLIC 'CONST'
rdata$r	ENDS
;	COMDAT ??_R0?AVout_of_range@std@@@8
_DATA	SEGMENT DWORD USE32 PUBLIC 'DATA'
_DATA	ENDS
;	COMDAT ??_R3out_of_range@std@@8
rdata$r	SEGMENT DWORD USE32 PUBLIC 'CONST'
rdata$r	ENDS
;	COMDAT ??_R2out_of_range@std@@8
rdata$r	SEGMENT DWORD USE32 PUBLIC 'CONST'
rdata$r	ENDS
;	COMDAT ??_R1A@?0A@A@out_of_range@std@@8
rdata$r	SEGMENT DWORD USE32 PUBLIC 'CONST'
rdata$r	ENDS
;	COMDAT ??_R1A@?0A@A@logic_error@std@@8
rdata$r	SEGMENT DWORD USE32 PUBLIC 'CONST'
rdata$r	ENDS
;	COMDAT ??_R0?AVlogic_error@std@@@8
_DATA	SEGMENT DWORD USE32 PUBLIC 'DATA'
_DATA	ENDS
;	COMDAT ??_R1A@?0A@A@exception@@8
rdata$r	SEGMENT DWORD USE32 PUBLIC 'CONST'
rdata$r	ENDS
;	COMDAT ??_R0?AVexception@@@8
_DATA	SEGMENT DWORD USE32 PUBLIC 'DATA'
_DATA	ENDS
;	COMDAT ??_Gout_of_range@std@@UAEPAXI@Z
_TEXT	SEGMENT PARA USE32 PUBLIC 'CODE'
_TEXT	ENDS
;	COMDAT ?what@logic_error@std@@UBEPBDXZ
_TEXT	SEGMENT PARA USE32 PUBLIC 'CODE'
_TEXT	ENDS
;	COMDAT __CTA3?AVout_of_range@std@@
xdata$x	SEGMENT DWORD USE32 PUBLIC 'CONST'
xdata$x	ENDS
;	COMDAT __CT??_R0?AVout_of_range@std@@@8??0out_of_range@std@@QAE@ABV01@@Z40
xdata$x	SEGMENT DWORD USE32 PUBLIC 'CONST'
xdata$x	ENDS
;	COMDAT ??0out_of_range@std@@QAE@ABV01@@Z
_TEXT	SEGMENT PARA USE32 PUBLIC 'CODE'
_TEXT	ENDS
;	COMDAT ??_C@_0BM@PAPJHAGI@invalid?5map?1set?$DMT?$DO?5iterator?$AA@
CONST	SEGMENT DWORD USE32 PUBLIC 'CONST'
CONST	ENDS
;	COMDAT ??0out_of_range@std@@QAE@ABV?$basic_string@DU?$char_traits@D@std@@V?$allocator@D@2@@1@@Z
_TEXT	SEGMENT PARA USE32 PUBLIC 'CODE'
_TEXT	ENDS
;	COMDAT ??0logic_error@std@@QAE@ABV?$basic_string@DU?$char_traits@D@std@@V?$allocator@D@2@@1@@Z
_TEXT	SEGMENT PARA USE32 PUBLIC 'CODE'
_TEXT	ENDS
;	COMDAT ??_7logic_error@std@@6B@
CONST	SEGMENT DWORD USE32 PUBLIC 'CONST'
CONST	ENDS
;	COMDAT ??_R4logic_error@std@@6B@
rdata$r	SEGMENT DWORD USE32 PUBLIC 'CONST'
rdata$r	ENDS
;	COMDAT ??_R3logic_error@std@@8
rdata$r	SEGMENT DWORD USE32 PUBLIC 'CONST'
rdata$r	ENDS
;	COMDAT ??_R2logic_error@std@@8
rdata$r	SEGMENT DWORD USE32 PUBLIC 'CONST'
rdata$r	ENDS
;	COMDAT ??_Glogic_error@std@@UAEPAXI@Z
_TEXT	SEGMENT PARA USE32 PUBLIC 'CODE'
_TEXT	ENDS
;	COMDAT ??_7length_error@std@@6B@
CONST	SEGMENT DWORD USE32 PUBLIC 'CONST'
CONST	ENDS
;	COMDAT ??_R4length_error@std@@6B@
rdata$r	SEGMENT DWORD USE32 PUBLIC 'CONST'
rdata$r	ENDS
;	COMDAT ??_R3length_error@std@@8
rdata$r	SEGMENT DWORD USE32 PUBLIC 'CONST'
rdata$r	ENDS
;	COMDAT ??_R2length_error@std@@8
rdata$r	SEGMENT DWORD USE32 PUBLIC 'CONST'
rdata$r	ENDS
;	COMDAT ??_R1A@?0A@A@length_error@std@@8
rdata$r	SEGMENT DWORD USE32 PUBLIC 'CONST'
rdata$r	ENDS
;	COMDAT ??_Glength_error@std@@UAEPAXI@Z
_TEXT	SEGMENT PARA USE32 PUBLIC 'CODE'
_TEXT	ENDS
;	COMDAT ??1logic_error@std@@UAE@XZ
_TEXT	SEGMENT PARA USE32 PUBLIC 'CODE'
_TEXT	ENDS
;	COMDAT ??0logic_error@std@@QAE@ABV01@@Z
_TEXT	SEGMENT PARA USE32 PUBLIC 'CODE'
_TEXT	ENDS
;	COMDAT __CTA3?AVlength_error@std@@
xdata$x	SEGMENT DWORD USE32 PUBLIC 'CONST'
xdata$x	ENDS
;	COMDAT ??1length_error@std@@UAE@XZ
_TEXT	SEGMENT PARA USE32 PUBLIC 'CODE'
_TEXT	ENDS
;	COMDAT __CT??_R0?AVexception@@@8??0exception@@QAE@ABV0@@Z12
xdata$x	SEGMENT DWORD USE32 PUBLIC 'CONST'
xdata$x	ENDS
;	COMDAT __CT??_R0?AVlogic_error@std@@@8??0logic_error@std@@QAE@ABV01@@Z40
xdata$x	SEGMENT DWORD USE32 PUBLIC 'CONST'
xdata$x	ENDS
;	COMDAT __CT??_R0?AVlength_error@std@@@8??0length_error@std@@QAE@ABV01@@Z40
xdata$x	SEGMENT DWORD USE32 PUBLIC 'CONST'
xdata$x	ENDS
;	COMDAT ??_R0?AVlength_error@std@@@8
_DATA	SEGMENT DWORD USE32 PUBLIC 'DATA'
_DATA	ENDS
;	COMDAT __TI3?AVlength_error@std@@
xdata$x	SEGMENT DWORD USE32 PUBLIC 'CONST'
xdata$x	ENDS
;	COMDAT ??0length_error@std@@QAE@ABV?$basic_string@DU?$char_traits@D@std@@V?$allocator@D@2@@1@@Z
_TEXT	SEGMENT PARA USE32 PUBLIC 'CODE'
_TEXT	ENDS
;	COMDAT ??$_Maklocchr@_W@std@@YA_WDPA_WABU_Cvtvec@@@Z
_TEXT	SEGMENT PARA USE32 PUBLIC 'CODE'
_TEXT	ENDS
;	COMDAT ??$_DebugHeapDelete@X@std@@YAXPAX@Z
_TEXT	SEGMENT PARA USE32 PUBLIC 'CODE'
_TEXT	ENDS
;	COMDAT ??$_Maklocstr@_W@std@@YAPA_WPBDPA_WABU_Cvtvec@@@Z
_TEXT	SEGMENT PARA USE32 PUBLIC 'CODE'
_TEXT	ENDS
;	COMDAT ??$_Maklocchr@D@std@@YADDPADABU_Cvtvec@@@Z
_TEXT	SEGMENT PARA USE32 PUBLIC 'CODE'
_TEXT	ENDS
;	COMDAT ??_C@_04LOAJBDKD@true?$AA@
CONST	SEGMENT DWORD USE32 PUBLIC 'CONST'
CONST	ENDS
;	COMDAT ??_C@_05LAPONLG@false?$AA@
CONST	SEGMENT DWORD USE32 PUBLIC 'CONST'
CONST	ENDS
;	COMDAT _wmemcpy
_TEXT	SEGMENT PARA USE32 PUBLIC 'CODE'
_TEXT	ENDS
;	COMDAT ?max_size@?$allocator@_W@std@@QBEIXZ
_TEXT	SEGMENT PARA USE32 PUBLIC 'CODE'
_TEXT	ENDS
;	COMDAT ?allocate@?$allocator@_W@std@@QAEPA_WI@Z
_TEXT	SEGMENT PARA USE32 PUBLIC 'CODE'
_TEXT	ENDS
;	COMDAT ??$_Allocate@_W@std@@YAPA_WIPA_W@Z
_TEXT	SEGMENT PARA USE32 PUBLIC 'CODE'
_TEXT	ENDS
;	COMDAT ??0?$allocator@D@std@@QAE@ABV01@@Z
_TEXT	SEGMENT PARA USE32 PUBLIC 'CODE'
_TEXT	ENDS
;	COMDAT ?deallocate@?$allocator@D@std@@QAEXPADI@Z
_TEXT	SEGMENT PARA USE32 PUBLIC 'CODE'
_TEXT	ENDS
;	COMDAT ?max_size@?$allocator@D@std@@QBEIXZ
_TEXT	SEGMENT PARA USE32 PUBLIC 'CODE'
_TEXT	ENDS
;	COMDAT ?allocate@?$allocator@D@std@@QAEPADI@Z
_TEXT	SEGMENT PARA USE32 PUBLIC 'CODE'
_TEXT	ENDS
;	COMDAT ??$_Allocate@D@std@@YAPADIPAD@Z
_TEXT	SEGMENT PARA USE32 PUBLIC 'CODE'
_TEXT	ENDS
;	COMDAT ??_C@_01GFHCPBMG@C?$AA@
CONST	SEGMENT DWORD USE32 PUBLIC 'CONST'
CONST	ENDS
;	COMDAT ?_Peek@?$istreambuf_iterator@_WU?$char_traits@_W@std@@@std@@AAE_WXZ
_TEXT	SEGMENT PARA USE32 PUBLIC 'CODE'
_TEXT	ENDS
;	COMDAT ?_Peek@?$istreambuf_iterator@DU?$char_traits@D@std@@@std@@AAEDXZ
_TEXT	SEGMENT PARA USE32 PUBLIC 'CODE'
_TEXT	ENDS
;	COMDAT ??$use_facet@V?$ctype@_W@std@@@std@@YAABV?$ctype@_W@0@ABVlocale@0@@Z
_TEXT	SEGMENT PARA USE32 PUBLIC 'CODE'
_TEXT	ENDS
;	COMDAT ??_S?$ctype@_W@std@@6B@
CONST	SEGMENT DWORD USE32 PUBLIC 'CONST'
CONST	ENDS
;	COMDAT ??_R4?$ctype@_W@std@@6B@
rdata$r	SEGMENT DWORD USE32 PUBLIC 'CONST'
rdata$r	ENDS
;	COMDAT ??_R0?AV?$ctype@_W@std@@@8
_DATA	SEGMENT DWORD USE32 PUBLIC 'DATA'
_DATA	ENDS
;	COMDAT ??_R3?$ctype@_W@std@@8
rdata$r	SEGMENT DWORD USE32 PUBLIC 'CONST'
rdata$r	ENDS
;	COMDAT ??_R2?$ctype@_W@std@@8
rdata$r	SEGMENT DWORD USE32 PUBLIC 'CONST'
rdata$r	ENDS
;	COMDAT ??_R1A@?0A@A@?$ctype@_W@std@@8
rdata$r	SEGMENT DWORD USE32 PUBLIC 'CONST'
rdata$r	ENDS
;	COMDAT ??_R1A@?0A@A@ctype_base@std@@8
rdata$r	SEGMENT DWORD USE32 PUBLIC 'CONST'
rdata$r	ENDS
;	COMDAT ??_R0?AUctype_base@std@@@8
_DATA	SEGMENT DWORD USE32 PUBLIC 'DATA'
_DATA	ENDS
;	COMDAT ??_G?$ctype@_W@std@@MAEPAXI@Z
_TEXT	SEGMENT PARA USE32 PUBLIC 'CODE'
_TEXT	ENDS
;	COMDAT ??_C@_08EPJLHIJG@bad?5cast?$AA@
CONST	SEGMENT DWORD USE32 PUBLIC 'CONST'
CONST	ENDS
;	COMDAT __TI2?AVbad_cast@@
xdata$x	SEGMENT DWORD USE32 PUBLIC 'CONST'
xdata$x	ENDS
;	COMDAT __CTA2?AVbad_cast@@
xdata$x	SEGMENT DWORD USE32 PUBLIC 'CONST'
xdata$x	ENDS
;	COMDAT __CT??_R0?AVbad_cast@@@8??0bad_cast@@QAE@ABV0@@Z12
xdata$x	SEGMENT DWORD USE32 PUBLIC 'CONST'
xdata$x	ENDS
;	COMDAT ??_R0?AVbad_cast@@@8
_DATA	SEGMENT DWORD USE32 PUBLIC 'DATA'
_DATA	ENDS
;	COMDAT ??$_DebugHeapDelete@Vfacet@locale@std@@@std@@YAXPAVfacet@locale@0@@Z
_TEXT	SEGMENT PARA USE32 PUBLIC 'CODE'
_TEXT	ENDS
;	COMDAT ??$use_facet@V?$ctype@D@std@@@std@@YAABV?$ctype@D@0@ABVlocale@0@@Z
_TEXT	SEGMENT PARA USE32 PUBLIC 'CODE'
_TEXT	ENDS
;	COMDAT ??_S?$ctype@D@std@@6B@
CONST	SEGMENT DWORD USE32 PUBLIC 'CONST'
CONST	ENDS
;	COMDAT ??_R4?$ctype@D@std@@6B@
rdata$r	SEGMENT DWORD USE32 PUBLIC 'CONST'
rdata$r	ENDS
;	COMDAT ??_R0?AV?$ctype@D@std@@@8
_DATA	SEGMENT DWORD USE32 PUBLIC 'DATA'
_DATA	ENDS
;	COMDAT ??_R3?$ctype@D@std@@8
rdata$r	SEGMENT DWORD USE32 PUBLIC 'CONST'
rdata$r	ENDS
;	COMDAT ??_R2?$ctype@D@std@@8
rdata$r	SEGMENT DWORD USE32 PUBLIC 'CONST'
rdata$r	ENDS
;	COMDAT ??_R1A@?0A@A@?$ctype@D@std@@8
rdata$r	SEGMENT DWORD USE32 PUBLIC 'CONST'
rdata$r	ENDS
;	COMDAT ??_G?$ctype@D@std@@MAEPAXI@Z
_TEXT	SEGMENT PARA USE32 PUBLIC 'CODE'
_TEXT	ENDS
;	COMDAT ??_S?$numpunct@_W@std@@6B@
CONST	SEGMENT DWORD USE32 PUBLIC 'CONST'
CONST	ENDS
;	COMDAT ??_S?$numpunct@D@std@@6B@
CONST	SEGMENT DWORD USE32 PUBLIC 'CONST'
CONST	ENDS
;	COMDAT _wmemmove
_TEXT	SEGMENT PARA USE32 PUBLIC 'CODE'
_TEXT	ENDS
;	COMDAT ?deallocate@?$allocator@_W@std@@QAEXPA_WI@Z
_TEXT	SEGMENT PARA USE32 PUBLIC 'CODE'
_TEXT	ENDS
;	COMDAT ??0?$allocator@_W@std@@QAE@ABV01@@Z
_TEXT	SEGMENT PARA USE32 PUBLIC 'CODE'
_TEXT	ENDS
;	COMDAT ?Release@CStringData@ATL@@QAEXXZ
_TEXT	SEGMENT PARA USE32 PUBLIC 'CODE'
_TEXT	ENDS
;	COMDAT ??_C@_0L@OIIMFBNE@nRefs?5?$CB?$DN?50?$AA@
CONST	SEGMENT DWORD USE32 PUBLIC 'CONST'
CONST	ENDS
;	COMDAT ??_C@_0FJ@DMHPDOJC@D?3?2Program?5Files?5?$CIx86?$CJ?2Microsoft@
CONST	SEGMENT DWORD USE32 PUBLIC 'CONST'
CONST	ENDS
;	COMDAT ?s_pt@?1??OnMouseMove@CMyListCtrl@@IAEXIVCPoint@@@Z@4V3@A
_BSS	SEGMENT DWORD USE32 PUBLIC 'BSS'
_BSS	ENDS
;	COMDAT ?$S5@?1??OnMouseMove@CMyListCtrl@@IAEXIVCPoint@@@Z@4IA
_BSS	SEGMENT DWORD USE32 PUBLIC 'BSS'
_BSS	ENDS
;	COMDAT ?_messageEntries@CMyListCtrl@@0QBUAFX_MSGMAP_ENTRY@@B
CONST	SEGMENT DWORD USE32 PUBLIC 'CONST'
CONST	ENDS
;	COMDAT ?messageMap@CMyListCtrl@@1UAFX_MSGMAP@@B
CONST	SEGMENT DWORD USE32 PUBLIC 'CONST'
CONST	ENDS
;	COMDAT ??_7CBasicSkinWnd@@6B@
CONST	SEGMENT DWORD USE32 PUBLIC 'CONST'
CONST	ENDS
;	COMDAT ??_R4CBasicSkinWnd@@6B@
rdata$r	SEGMENT DWORD USE32 PUBLIC 'CONST'
rdata$r	ENDS
;	COMDAT ??_R3CBasicSkinWnd@@8
rdata$r	SEGMENT DWORD USE32 PUBLIC 'CONST'
rdata$r	ENDS
;	COMDAT ??_R2CBasicSkinWnd@@8
rdata$r	SEGMENT DWORD USE32 PUBLIC 'CONST'
rdata$r	ENDS
;	COMDAT ??_R1A@?0A@A@CBasicSkinWnd@@8
rdata$r	SEGMENT DWORD USE32 PUBLIC 'CONST'
rdata$r	ENDS
;	COMDAT ??_GCBasicSkinWnd@@UAEPAXI@Z
_TEXT	SEGMENT PARA USE32 PUBLIC 'CODE'
_TEXT	ENDS
;	COMDAT ??_7CMyListCtrl@@6BCBasicSkinWnd@@@
CONST	SEGMENT DWORD USE32 PUBLIC 'CONST'
CONST	ENDS
;	COMDAT ??_7CMyListCtrl@@6BCListCtrl@@@
CONST	SEGMENT DWORD USE32 PUBLIC 'CONST'
CONST	ENDS
;	COMDAT ??1CBasicSkinWnd@@UAE@XZ
_TEXT	SEGMENT PARA USE32 PUBLIC 'CODE'
_TEXT	ENDS
;	COMDAT ??_C@_00CNPNBAHC@?$AA@
CONST	SEGMENT DWORD USE32 PUBLIC 'CONST'
CONST	ENDS
;	COMDAT ??0?$allocator@D@std@@QAE@XZ
_TEXT	SEGMENT PARA USE32 PUBLIC 'CODE'
_TEXT	ENDS
sxdata	SEGMENT DWORD USE32 'SXDATA'
sxdata	ENDS
FLAT	GROUP _DATA, CONST, _BSS
	ASSUME	CS: FLAT, DS: FLAT, SS: FLAT
endif

INCLUDELIB MSVCRTD
INCLUDELIB OLDNAMES

PUBLIC	?_messageEntries@CMyListCtrl@@0QBUAFX_MSGMAP_ENTRY@@B ; CMyListCtrl::_messageEntries
PUBLIC	?messageMap@CMyListCtrl@@1UAFX_MSGMAP@@B	; CMyListCtrl::messageMap
PUBLIC	?OnDestroy@CMyListCtrl@@IAEXXZ			; CMyListCtrl::OnDestroy
PUBLIC	?OnCreate@CMyListCtrl@@IAEHPAUtagCREATESTRUCTA@@@Z ; CMyListCtrl::OnCreate
PUBLIC	?OnEraseBkgnd@CMyListCtrl@@IAEHPAVCDC@@@Z	; CMyListCtrl::OnEraseBkgnd
PUBLIC	?MeasureItem@CMyListCtrl@@IAEXPAUtagMEASUREITEMSTRUCT@@@Z ; CMyListCtrl::MeasureItem
PUBLIC	?OnMouseMove@CMyListCtrl@@IAEXIVCPoint@@@Z	; CMyListCtrl::OnMouseMove
PUBLIC	?OnMouseLeave@CMyListCtrl@@IAEJIJ@Z		; CMyListCtrl::OnMouseLeave
PUBLIC	?OnPaint@CMyListCtrl@@IAEXXZ			; CMyListCtrl::OnPaint
PUBLIC	?OnColumnclickList@CMyListCtrl@@IAEXPAUtagNMHDR@@PAJ@Z ; CMyListCtrl::OnColumnclickList
PUBLIC	?OnCoolSBCustomdraw@CMyListCtrl@@IAEXPAUtagNMHDR@@PAJ@Z ; CMyListCtrl::OnCoolSBCustomdraw
EXTRN	?GetThisMessageMap@CListCtrl@@KGPBUAFX_MSGMAP@@XZ:NEAR ; CListCtrl::GetThisMessageMap
_BSS	SEGMENT
_mkey1	DD	01H DUP (?)
_mkey2	DD	01H DUP (?)
_BSS	ENDS
_DATA	SEGMENT
_clrOddItemBK DD 0333333H
_clrEvenItemBK DD 02c2c2dH
_DATA	ENDS
CONST	SEGMENT
$SG189173 DB	0cbH, 0ceH, 0ccH, 0e5H, 00H
CONST	ENDS
;	COMDAT ?_messageEntries@CMyListCtrl@@0QBUAFX_MSGMAP_ENTRY@@B
CONST	SEGMENT
?_messageEntries@CMyListCtrl@@0QBUAFX_MSGMAP_ENTRY@@B DD 01H ; CMyListCtrl::_messageEntries
	DD	00H
	DD	00H
	DD	00H
	DD	0dH
	DD	FLAT:?OnCreate@CMyListCtrl@@IAEHPAUtagCREATESTRUCTA@@@Z
	DD	0bc2cH
	DD	00H
	DD	00H
	DD	00H
	DD	029H
	DD	FLAT:?MeasureItem@CMyListCtrl@@IAEXPAUtagMEASUREITEMSTRUCT@@@Z
	DD	0200H
	DD	00H
	DD	00H
	DD	00H
	DD	032H
	DD	FLAT:?OnMouseMove@CMyListCtrl@@IAEXIVCPoint@@@Z
	DD	02a3H
	DD	00H
	DD	00H
	DD	00H
	DD	0eH
	DD	FLAT:?OnMouseLeave@CMyListCtrl@@IAEJIJ@Z
	DD	0bc4eH
	DD	0ff94H
	DD	00H
	DD	00H
	DD	039H
	DD	FLAT:?OnColumnclickList@CMyListCtrl@@IAEXPAUtagNMHDR@@PAJ@Z
	DD	0bc4eH
	DD	0f001H
	DD	00H
	DD	00H
	DD	039H
	DD	FLAT:?OnCoolSBCustomdraw@CMyListCtrl@@IAEXPAUtagNMHDR@@PAJ@Z
	DD	014H
	DD	00H
	DD	00H
	DD	00H
	DD	01H
	DD	FLAT:?OnEraseBkgnd@CMyListCtrl@@IAEHPAVCDC@@@Z
	DD	0fH
	DD	00H
	DD	00H
	DD	00H
	DD	010H
	DD	FLAT:?OnPaint@CMyListCtrl@@IAEXXZ
	DD	02H
	DD	00H
	DD	00H
	DD	00H
	DD	010H
	DD	FLAT:?OnDestroy@CMyListCtrl@@IAEXXZ
	DD	00H
	DD	00H
	DD	00H
	DD	00H
	DD	00H
	DD	00H
CONST	ENDS
;	COMDAT ?messageMap@CMyListCtrl@@1UAFX_MSGMAP@@B
CONST	SEGMENT
?messageMap@CMyListCtrl@@1UAFX_MSGMAP@@B DD FLAT:?GetThisMessageMap@CListCtrl@@KGPBUAFX_MSGMAP@@XZ ; CMyListCtrl::messageMap
	DD	FLAT:?_messageEntries@CMyListCtrl@@0QBUAFX_MSGMAP_ENTRY@@B
CONST	ENDS
CONST	SEGMENT
$SG189521 DB	00H
	ORG $+2
$SG189522 DB	'tooltips_class32', 00H
	ORG $+3
$SG189911 DB	'ListHoverBK', 00H
CONST	ENDS
PUBLIC	??0?$map@HUMYLIST_COLUMN_INFO@@U?$less@H@std@@V?$allocator@U?$pair@$$CBHUMYLIST_COLUMN_INFO@@@std@@@3@@std@@QAE@XZ ; std::map<int,MYLIST_COLUMN_INFO,std::less<int>,std::allocator<std::pair<int const ,MYLIST_COLUMN_INFO> > >::map<int,MYLIST_COLUMN_INFO,std::less<int>,std::allocator<std::pair<int const ,MYLIST_COLUMN_INFO> > >
PUBLIC	??1?$map@HUMYLIST_COLUMN_INFO@@U?$less@H@std@@V?$allocator@U?$pair@$$CBHUMYLIST_COLUMN_INFO@@@std@@@3@@std@@QAE@XZ ; std::map<int,MYLIST_COLUMN_INFO,std::less<int>,std::allocator<std::pair<int const ,MYLIST_COLUMN_INFO> > >::~map<int,MYLIST_COLUMN_INFO,std::less<int>,std::allocator<std::pair<int const ,MYLIST_COLUMN_INFO> > >
PUBLIC	??_R1A@?0A@A@CWnd@@8				; CWnd::`RTTI Base Class Descriptor at (0,-1,0,0)'
PUBLIC	??_R0?AVCWnd@@@8				; CWnd `RTTI Type Descriptor'
PUBLIC	??_R1A@?0A@A@CCmdTarget@@8			; CCmdTarget::`RTTI Base Class Descriptor at (0,-1,0,0)'
PUBLIC	??_R0?AVCCmdTarget@@@8				; CCmdTarget `RTTI Type Descriptor'
PUBLIC	??_R1A@?0A@A@CObject@@8				; CObject::`RTTI Base Class Descriptor at (0,-1,0,0)'
PUBLIC	??_R0?AVCObject@@@8				; CObject `RTTI Type Descriptor'
PUBLIC	??0?$vector@HV?$allocator@H@std@@@std@@QAE@XZ	; std::vector<int,std::allocator<int> >::vector<int,std::allocator<int> >
PUBLIC	??1?$vector@HV?$allocator@H@std@@@std@@QAE@XZ	; std::vector<int,std::allocator<int> >::~vector<int,std::allocator<int> >
PUBLIC	??0CMyListCtrl@@QAE@XZ				; CMyListCtrl::CMyListCtrl
PUBLIC	?GetMessageMap@CMyListCtrl@@MBEPBUAFX_MSGMAP@@XZ ; CMyListCtrl::GetMessageMap
PUBLIC	?DrawItem@CMyListCtrl@@MAEXPAUtagDRAWITEMSTRUCT@@@Z ; CMyListCtrl::DrawItem
PUBLIC	??1CBasicSkinWnd@@UAE@XZ			; CBasicSkinWnd::~CBasicSkinWnd
PUBLIC	??0CBasicSkinWnd@@QAE@XZ			; CBasicSkinWnd::CBasicSkinWnd
PUBLIC	?LoadSkin@CMyListCtrl@@UAEXXZ			; CMyListCtrl::LoadSkin
PUBLIC	?CreateControl@CMyListCtrl@@UAEXHPAVCWnd@@@Z	; CMyListCtrl::CreateControl
PUBLIC	?DrawTextColumn@CMyListCtrl@@UAEXPAVCDC@@HHABVCRect@@@Z ; CMyListCtrl::DrawTextColumn
PUBLIC	?DrawImageColumn@CMyListCtrl@@UAEXPAVCDC@@HHABVCRect@@H@Z ; CMyListCtrl::DrawImageColumn
PUBLIC	?NeedChangeCursor@CMyListCtrl@@UAEHAAVCPoint@@@Z ; CMyListCtrl::NeedChangeCursor
PUBLIC	?SetItemTextColor@CMyListCtrl@@UAEXPAVCDC@@HH@Z	; CMyListCtrl::SetItemTextColor
PUBLIC	??_R0?AVCBasicSkinWnd@@@8			; CBasicSkinWnd `RTTI Type Descriptor'
PUBLIC	?SetItemBkColor@CMyListCtrl@@UAEXPAVCDC@@HHABVCRect@@@Z ; CMyListCtrl::SetItemBkColor
PUBLIC	?ShowItemToolTip@CMyListCtrl@@UAEXHH@Z		; CMyListCtrl::ShowItemToolTip
PUBLIC	?ShowSubItemToolTip@CMyListCtrl@@UAEXHH@Z	; CMyListCtrl::ShowSubItemToolTip
PUBLIC	?HideToolTip@CMyListCtrl@@UAEXXZ		; CMyListCtrl::HideToolTip
PUBLIC	?SortFunction@CMyListCtrl@@UAEHHH@Z		; CMyListCtrl::SortFunction
PUBLIC	?SetKeySubItem@CMyListCtrl@@UAEXH@Z		; CMyListCtrl::SetKeySubItem
PUBLIC	?GetItemIdxByKey@CMyListCtrl@@UAEXV?$basic_string@DU?$char_traits@D@std@@V?$allocator@D@2@@std@@AAV?$vector@HV?$allocator@H@std@@@3@@Z ; CMyListCtrl::GetItemIdxByKey
PUBLIC	?PreTranslateMessage@CMyListCtrl@@UAEHPAUtagMSG@@@Z ; CMyListCtrl::PreTranslateMessage
PUBLIC	??_7CMyListCtrl@@6BCListCtrl@@@			; CMyListCtrl::`vftable'
PUBLIC	??_7CMyListCtrl@@6BCBasicSkinWnd@@@		; CMyListCtrl::`vftable'
PUBLIC	??_GCMyListCtrl@@UAEPAXI@Z			; CMyListCtrl::`scalar deleting destructor'
PUBLIC	??_R4CMyListCtrl@@6BCListCtrl@@@		; CMyListCtrl::`RTTI Complete Object Locator'
PUBLIC	??_R0?AVCMyListCtrl@@@8				; CMyListCtrl `RTTI Type Descriptor'
PUBLIC	??_R3CMyListCtrl@@8				; CMyListCtrl::`RTTI Class Hierarchy Descriptor'
PUBLIC	??_R2CMyListCtrl@@8				; CMyListCtrl::`RTTI Base Class Array'
PUBLIC	??_R1A@?0A@A@CMyListCtrl@@8			; CMyListCtrl::`RTTI Base Class Descriptor at (0,-1,0,0)'
PUBLIC	??_R1A@?0A@A@CListCtrl@@8			; CListCtrl::`RTTI Base Class Descriptor at (0,-1,0,0)'
PUBLIC	??_R0?AVCListCtrl@@@8				; CListCtrl `RTTI Type Descriptor'
PUBLIC	??_R1FE@?0A@A@CBasicSkinWnd@@8			; CBasicSkinWnd::`RTTI Base Class Descriptor at (84,-1,0,0)'
PUBLIC	??_ECMyListCtrl@@WFE@AEPAXI@Z			; [thunk]:CMyListCtrl::`vector deleting destructor'
PUBLIC	??_R4CMyListCtrl@@6BCBasicSkinWnd@@@		; CMyListCtrl::`RTTI Complete Object Locator'
EXTRN	?GetInterfaceMap@CWnd@@MBEPBUAFX_INTERFACEMAP@@XZ:NEAR ; CWnd::GetInterfaceMap
EXTRN	??1CListCtrl@@UAE@XZ:NEAR			; CListCtrl::~CListCtrl
EXTRN	?OnChildNotify@CListCtrl@@MAEHIIJPAJ@Z:NEAR	; CListCtrl::OnChildNotify
EXTRN	__purecall:NEAR
EXTRN	?EnsureStdObj@CWnd@@UAEJXZ:NEAR			; CWnd::EnsureStdObj
EXTRN	?get_accParent@CWnd@@UAEJPAPAUIDispatch@@@Z:NEAR ; CWnd::get_accParent
EXTRN	?OnCmdMsg@CCmdTarget@@UAEHIHPAXPAUAFX_CMDHANDLERINFO@@@Z:NEAR ; CCmdTarget::OnCmdMsg
EXTRN	?get_accChildCount@CWnd@@UAEJPAJ@Z:NEAR		; CWnd::get_accChildCount
EXTRN	?IsInvokeAllowed@CCmdTarget@@UAEHJ@Z:NEAR	; CCmdTarget::IsInvokeAllowed
EXTRN	?get_accChild@CWnd@@UAEJUtagVARIANT@@PAPAUIDispatch@@@Z:NEAR ; CWnd::get_accChild
EXTRN	?get_accName@CWnd@@UAEJUtagVARIANT@@PAPA_W@Z:NEAR ; CWnd::get_accName
EXTRN	?get_accValue@CWnd@@UAEJUtagVARIANT@@PAPA_W@Z:NEAR ; CWnd::get_accValue
EXTRN	?GetDispatchIID@CCmdTarget@@UAEHPAU_GUID@@@Z:NEAR ; CCmdTarget::GetDispatchIID
EXTRN	?GetTypeInfoCount@CCmdTarget@@UAEIXZ:NEAR	; CCmdTarget::GetTypeInfoCount
EXTRN	?GetTypeLibCache@CCmdTarget@@UAEPAVCTypeLibCache@@XZ:NEAR ; CCmdTarget::GetTypeLibCache
EXTRN	?get_accDescription@CWnd@@UAEJUtagVARIANT@@PAPA_W@Z:NEAR ; CWnd::get_accDescription
EXTRN	?GetTypeLib@CCmdTarget@@UAEJKPAPAUITypeLib@@@Z:NEAR ; CCmdTarget::GetTypeLib
EXTRN	?get_accRole@CWnd@@UAEJUtagVARIANT@@PAU2@@Z:NEAR ; CWnd::get_accRole
EXTRN	?get_accState@CWnd@@UAEJUtagVARIANT@@PAU2@@Z:NEAR ; CWnd::get_accState
EXTRN	?get_accHelp@CWnd@@UAEJUtagVARIANT@@PAPA_W@Z:NEAR ; CWnd::get_accHelp
EXTRN	?get_accHelpTopic@CWnd@@UAEJPAPA_WUtagVARIANT@@PAJ@Z:NEAR ; CWnd::get_accHelpTopic
EXTRN	?get_accKeyboardShortcut@CWnd@@UAEJUtagVARIANT@@PAPA_W@Z:NEAR ; CWnd::get_accKeyboardShortcut
EXTRN	?get_accFocus@CWnd@@UAEJPAUtagVARIANT@@@Z:NEAR	; CWnd::get_accFocus
EXTRN	?get_accSelection@CWnd@@UAEJPAUtagVARIANT@@@Z:NEAR ; CWnd::get_accSelection
EXTRN	?get_accDefaultAction@CWnd@@UAEJUtagVARIANT@@PAPA_W@Z:NEAR ; CWnd::get_accDefaultAction
EXTRN	?GetCommandMap@CCmdTarget@@MBEPBUAFX_OLECMDMAP@@XZ:NEAR ; CCmdTarget::GetCommandMap
EXTRN	?accSelect@CWnd@@UAEJJUtagVARIANT@@@Z:NEAR	; CWnd::accSelect
EXTRN	?accLocation@CWnd@@UAEJPAJ000UtagVARIANT@@@Z:NEAR ; CWnd::accLocation
EXTRN	?GetDispatchMap@CCmdTarget@@MBEPBUAFX_DISPMAP@@XZ:NEAR ; CCmdTarget::GetDispatchMap
EXTRN	?accNavigate@CWnd@@UAEJJUtagVARIANT@@PAU2@@Z:NEAR ; CWnd::accNavigate
EXTRN	?accHitTest@CWnd@@UAEJJJPAUtagVARIANT@@@Z:NEAR	; CWnd::accHitTest
EXTRN	?GetConnectionMap@CCmdTarget@@MBEPBUAFX_CONNECTIONMAP@@XZ:NEAR ; CCmdTarget::GetConnectionMap
EXTRN	?accDoDefaultAction@CWnd@@UAEJUtagVARIANT@@@Z:NEAR ; CWnd::accDoDefaultAction
EXTRN	?put_accName@CWnd@@UAEJUtagVARIANT@@PA_W@Z:NEAR	; CWnd::put_accName
EXTRN	?put_accValue@CWnd@@UAEJUtagVARIANT@@PA_W@Z:NEAR ; CWnd::put_accValue
EXTRN	?SetProxy@CWnd@@UAEJPAUIAccessibleProxy@@@Z:NEAR ; CWnd::SetProxy
EXTRN	?CreateAccessibleProxy@CWnd@@UAEJIJPAJ@Z:NEAR	; CWnd::CreateAccessibleProxy
EXTRN	?GetEventSinkMap@CCmdTarget@@MBEPBUAFX_EVENTSINKMAP@@XZ:NEAR ; CCmdTarget::GetEventSinkMap
EXTRN	?OnCreateAggregates@CCmdTarget@@UAEHXZ:NEAR	; CCmdTarget::OnCreateAggregates
EXTRN	?OnCommand@CWnd@@MAEHIJ@Z:NEAR			; CWnd::OnCommand
EXTRN	?GetInterfaceHook@CCmdTarget@@UAEPAUIUnknown@@PBX@Z:NEAR ; CCmdTarget::GetInterfaceHook
EXTRN	?OnNotify@CWnd@@MAEHIJPAJ@Z:NEAR		; CWnd::OnNotify
EXTRN	__RTC_InitBase:NEAR
EXTRN	__RTC_Shutdown:NEAR
EXTRN	__except_list:DWORD
EXTRN	__RTC_CheckEsp:NEAR
EXTRN	___CxxFrameHandler:NEAR
EXTRN	?GetExtraConnectionPoints@CCmdTarget@@MAEHPAVCPtrArray@@@Z:NEAR ; CCmdTarget::GetExtraConnectionPoints
EXTRN	?GetConnectionHook@CCmdTarget@@MAEPAUIConnectionPoint@@ABU_GUID@@@Z:NEAR ; CCmdTarget::GetConnectionHook
EXTRN	??0CFont@@QAE@XZ:NEAR				; CFont::CFont
EXTRN	?CreatePointFont@CFont@@QAEHHPBDPAVCDC@@@Z:NEAR	; CFont::CreatePointFont
EXTRN	??1CFont@@UAE@XZ:NEAR				; CFont::~CFont
EXTRN	?PreSubclassWindow@CWnd@@UAEXXZ:NEAR		; CWnd::PreSubclassWindow
EXTRN	?Create@CWnd@@UAEHPBD0KABUtagRECT@@PAV1@IPAUCCreateContext@@@Z:NEAR ; CWnd::Create
EXTRN	?CreateEx@CWnd@@UAEHKPBD0KHHHHPAUHWND__@@PAUHMENU__@@PAX@Z:NEAR ; CWnd::CreateEx
EXTRN	?CreateEx@CWnd@@UAEHKPBD0KABUtagRECT@@PAV1@IPAX@Z:NEAR ; CWnd::CreateEx
EXTRN	?Serialize@CObject@@UAEXAAVCArchive@@@Z:NEAR	; CObject::Serialize
EXTRN	?DestroyWindow@CWnd@@UAEHXZ:NEAR		; CWnd::DestroyWindow
EXTRN	?PreCreateWindow@CWnd@@UAEHAAUtagCREATESTRUCTA@@@Z:NEAR ; CWnd::PreCreateWindow
EXTRN	?CalcWindowRect@CWnd@@UAEXPAUtagRECT@@I@Z:NEAR	; CWnd::CalcWindowRect
EXTRN	?GetSuperWndProcAddr@CWnd@@MAEPAP6GJPAUHWND__@@IIJ@ZXZ:NEAR ; CWnd::GetSuperWndProcAddr
EXTRN	?DoDataExchange@CWnd@@MAEXPAVCDataExchange@@@Z:NEAR ; CWnd::DoDataExchange
EXTRN	?BeginModalState@CWnd@@UAEXXZ:NEAR		; CWnd::BeginModalState
EXTRN	?EndModalState@CWnd@@UAEXXZ:NEAR		; CWnd::EndModalState
EXTRN	?OnAmbientProperty@CWnd@@UAEHPAVCOleControlSite@@JPAUtagVARIANT@@@Z:NEAR ; CWnd::OnAmbientProperty
EXTRN	?WindowProc@CWnd@@MAEJIIJ@Z:NEAR		; CWnd::WindowProc
EXTRN	?OnWndMsg@CWnd@@MAEHIIJPAJ@Z:NEAR		; CWnd::OnWndMsg
EXTRN	?DefWindowProcA@CWnd@@MAEJIIJ@Z:NEAR		; CWnd::DefWindowProcA
EXTRN	?PostNcDestroy@CWnd@@MAEXXZ:NEAR		; CWnd::PostNcDestroy
EXTRN	??_ECMyListCtrl@@UAEPAXI@Z:NEAR			; CMyListCtrl::`vector deleting destructor'
EXTRN	?CheckAutoCenter@CWnd@@UAEHXZ:NEAR		; CWnd::CheckAutoCenter
EXTRN	?AssertValid@CWnd@@UBEXXZ:NEAR			; CWnd::AssertValid
EXTRN	?Dump@CWnd@@UBEXAAVCDumpContext@@@Z:NEAR	; CWnd::Dump
EXTRN	?IsFrameWnd@CWnd@@UBEHXZ:NEAR			; CWnd::IsFrameWnd
EXTRN	?OnFinalRelease@CWnd@@UAEXXZ:NEAR		; CWnd::OnFinalRelease
EXTRN	??0CCWToolTips@@QAE@XZ:NEAR			; CCWToolTips::CCWToolTips
EXTRN	??1CCWToolTips@@UAE@XZ:NEAR			; CCWToolTips::~CCWToolTips
EXTRN	?CreateControlContainer@CWnd@@MAEHPAPAVCOleControlContainer@@@Z:NEAR ; CWnd::CreateControlContainer
EXTRN	?CreateControlSite@CWnd@@MAEHPAVCOleControlContainer@@PAPAVCOleControlSite@@IABU_GUID@@@Z:NEAR ; CWnd::CreateControlSite
EXTRN	?SetOccDialogInfo@CWnd@@MAEHPAU_AFX_OCC_DIALOG_INFO@@@Z:NEAR ; CWnd::SetOccDialogInfo
EXTRN	?OnToolHitTest@CWnd@@UBEHVCPoint@@PAUtagTOOLINFOA@@@Z:NEAR ; CWnd::OnToolHitTest
EXTRN	?GetRuntimeClass@CListCtrl@@UBEPAUCRuntimeClass@@XZ:NEAR ; CListCtrl::GetRuntimeClass
EXTRN	??0CListCtrl@@QAE@XZ:NEAR			; CListCtrl::CListCtrl
EXTRN	?Create@CListCtrl@@UAEHKABUtagRECT@@PAVCWnd@@I@Z:NEAR ; CListCtrl::Create
EXTRN	?CreateEx@CListCtrl@@UAEHKKABUtagRECT@@PAVCWnd@@I@Z:NEAR ; CListCtrl::CreateEx
EXTRN	?GetScrollBarCtrl@CWnd@@UBEPAVCScrollBar@@H@Z:NEAR ; CWnd::GetScrollBarCtrl
EXTRN	?WinHelpA@CWnd@@UAEXKI@Z:NEAR			; CWnd::WinHelpA
EXTRN	?HtmlHelpA@CWnd@@UAEXKI@Z:NEAR			; CWnd::HtmlHelpA
EXTRN	??_7type_info@@6B@:QWORD			; type_info::`vftable'
EXTRN	?WinHelpInternal@CWnd@@UAEXKI@Z:NEAR		; CWnd::WinHelpInternal
EXTRN	?ContinueModal@CWnd@@UAEHXZ:NEAR		; CWnd::ContinueModal
EXTRN	?EndModalLoop@CWnd@@UAEXH@Z:NEAR		; CWnd::EndModalLoop
;	COMDAT rtc$IMZ
; File d:\boxgit\playbox\playbox\dev\prj\playbox\src\gui\commoncontrol\mylistctrl.cpp
rtc$IMZ	SEGMENT
__RTC_InitBase.rtc$IMZ DD FLAT:__RTC_InitBase
rtc$IMZ	ENDS
;	COMDAT rtc$TMZ
rtc$TMZ	SEGMENT
__RTC_Shutdown.rtc$TMZ DD FLAT:__RTC_Shutdown
rtc$TMZ	ENDS
xdata$x	SEGMENT
$T191790 DD	0ffffffffH
	DD	FLAT:$L191777
	DD	00H
	DD	FLAT:$L191778
	DD	01H
	DD	FLAT:$L191779
	DD	02H
	DD	FLAT:$L191780
	DD	03H
	DD	FLAT:$L191781
	DD	04H
	DD	FLAT:$L191782
$T191786 DD	019930520H
	DD	06H
	DD	FLAT:$T191790
	DD	2 DUP(00H)
	DD	2 DUP(00H)
xdata$x	ENDS
;	COMDAT ??_7CMyListCtrl@@6BCListCtrl@@@
CONST	SEGMENT
??_7CMyListCtrl@@6BCListCtrl@@@ DD FLAT:??_R4CMyListCtrl@@6BCListCtrl@@@ ; CMyListCtrl::`vftable'
	DD	FLAT:?GetRuntimeClass@CListCtrl@@UBEPAUCRuntimeClass@@XZ
	DD	FLAT:??_ECMyListCtrl@@UAEPAXI@Z
	DD	FLAT:?Serialize@CObject@@UAEXAAVCArchive@@@Z
	DD	FLAT:?AssertValid@CWnd@@UBEXXZ
	DD	FLAT:?Dump@CWnd@@UBEXAAVCDumpContext@@@Z
	DD	FLAT:?OnCmdMsg@CCmdTarget@@UAEHIHPAXPAUAFX_CMDHANDLERINFO@@@Z
	DD	FLAT:?OnFinalRelease@CWnd@@UAEXXZ
	DD	FLAT:?IsInvokeAllowed@CCmdTarget@@UAEHJ@Z
	DD	FLAT:?GetDispatchIID@CCmdTarget@@UAEHPAU_GUID@@@Z
	DD	FLAT:?GetTypeInfoCount@CCmdTarget@@UAEIXZ
	DD	FLAT:?GetTypeLibCache@CCmdTarget@@UAEPAVCTypeLibCache@@XZ
	DD	FLAT:?GetTypeLib@CCmdTarget@@UAEJKPAPAUITypeLib@@@Z
	DD	FLAT:?GetMessageMap@CMyListCtrl@@MBEPBUAFX_MSGMAP@@XZ
	DD	FLAT:?GetCommandMap@CCmdTarget@@MBEPBUAFX_OLECMDMAP@@XZ
	DD	FLAT:?GetDispatchMap@CCmdTarget@@MBEPBUAFX_DISPMAP@@XZ
	DD	FLAT:?GetConnectionMap@CCmdTarget@@MBEPBUAFX_CONNECTIONMAP@@XZ
	DD	FLAT:?GetInterfaceMap@CWnd@@MBEPBUAFX_INTERFACEMAP@@XZ
	DD	FLAT:?GetEventSinkMap@CCmdTarget@@MBEPBUAFX_EVENTSINKMAP@@XZ
	DD	FLAT:?OnCreateAggregates@CCmdTarget@@UAEHXZ
	DD	FLAT:?GetInterfaceHook@CCmdTarget@@UAEPAUIUnknown@@PBX@Z
	DD	FLAT:?GetExtraConnectionPoints@CCmdTarget@@MAEHPAVCPtrArray@@@Z
	DD	FLAT:?GetConnectionHook@CCmdTarget@@MAEPAUIConnectionPoint@@ABU_GUID@@@Z
	DD	FLAT:?PreSubclassWindow@CWnd@@UAEXXZ
	DD	FLAT:?Create@CWnd@@UAEHPBD0KABUtagRECT@@PAV1@IPAUCCreateContext@@@Z
	DD	FLAT:?CreateEx@CWnd@@UAEHKPBD0KABUtagRECT@@PAV1@IPAX@Z
	DD	FLAT:?CreateEx@CWnd@@UAEHKPBD0KHHHHPAUHWND__@@PAUHMENU__@@PAX@Z
	DD	FLAT:?DestroyWindow@CWnd@@UAEHXZ
	DD	FLAT:?PreCreateWindow@CWnd@@UAEHAAUtagCREATESTRUCTA@@@Z
	DD	FLAT:?CalcWindowRect@CWnd@@UAEXPAUtagRECT@@I@Z
	DD	FLAT:?OnToolHitTest@CWnd@@UBEHVCPoint@@PAUtagTOOLINFOA@@@Z
	DD	FLAT:?GetScrollBarCtrl@CWnd@@UBEPAVCScrollBar@@H@Z
	DD	FLAT:?WinHelpA@CWnd@@UAEXKI@Z
	DD	FLAT:?HtmlHelpA@CWnd@@UAEXKI@Z
	DD	FLAT:?WinHelpInternal@CWnd@@UAEXKI@Z
	DD	FLAT:?ContinueModal@CWnd@@UAEHXZ
	DD	FLAT:?EndModalLoop@CWnd@@UAEXH@Z
	DD	FLAT:?EnsureStdObj@CWnd@@UAEJXZ
	DD	FLAT:?get_accParent@CWnd@@UAEJPAPAUIDispatch@@@Z
	DD	FLAT:?get_accChildCount@CWnd@@UAEJPAJ@Z
	DD	FLAT:?get_accChild@CWnd@@UAEJUtagVARIANT@@PAPAUIDispatch@@@Z
	DD	FLAT:?get_accName@CWnd@@UAEJUtagVARIANT@@PAPA_W@Z
	DD	FLAT:?get_accValue@CWnd@@UAEJUtagVARIANT@@PAPA_W@Z
	DD	FLAT:?get_accDescription@CWnd@@UAEJUtagVARIANT@@PAPA_W@Z
	DD	FLAT:?get_accRole@CWnd@@UAEJUtagVARIANT@@PAU2@@Z
	DD	FLAT:?get_accState@CWnd@@UAEJUtagVARIANT@@PAU2@@Z
	DD	FLAT:?get_accHelp@CWnd@@UAEJUtagVARIANT@@PAPA_W@Z
	DD	FLAT:?get_accHelpTopic@CWnd@@UAEJPAPA_WUtagVARIANT@@PAJ@Z
	DD	FLAT:?get_accKeyboardShortcut@CWnd@@UAEJUtagVARIANT@@PAPA_W@Z
	DD	FLAT:?get_accFocus@CWnd@@UAEJPAUtagVARIANT@@@Z
	DD	FLAT:?get_accSelection@CWnd@@UAEJPAUtagVARIANT@@@Z
	DD	FLAT:?get_accDefaultAction@CWnd@@UAEJUtagVARIANT@@PAPA_W@Z
	DD	FLAT:?accSelect@CWnd@@UAEJJUtagVARIANT@@@Z
	DD	FLAT:?accLocation@CWnd@@UAEJPAJ000UtagVARIANT@@@Z
	DD	FLAT:?accNavigate@CWnd@@UAEJJUtagVARIANT@@PAU2@@Z
	DD	FLAT:?accHitTest@CWnd@@UAEJJJPAUtagVARIANT@@@Z
	DD	FLAT:?accDoDefaultAction@CWnd@@UAEJUtagVARIANT@@@Z
	DD	FLAT:?put_accName@CWnd@@UAEJUtagVARIANT@@PA_W@Z
	DD	FLAT:?put_accValue@CWnd@@UAEJUtagVARIANT@@PA_W@Z
	DD	FLAT:?SetProxy@CWnd@@UAEJPAUIAccessibleProxy@@@Z
	DD	FLAT:?CreateAccessibleProxy@CWnd@@UAEJIJPAJ@Z
	DD	FLAT:?OnCommand@CWnd@@MAEHIJ@Z
	DD	FLAT:?OnNotify@CWnd@@MAEHIJPAJ@Z
	DD	FLAT:?GetSuperWndProcAddr@CWnd@@MAEPAP6GJPAUHWND__@@IIJ@ZXZ
	DD	FLAT:?DoDataExchange@CWnd@@MAEXPAVCDataExchange@@@Z
	DD	FLAT:?BeginModalState@CWnd@@UAEXXZ
	DD	FLAT:?EndModalState@CWnd@@UAEXXZ
	DD	FLAT:?PreTranslateMessage@CMyListCtrl@@UAEHPAUtagMSG@@@Z
	DD	FLAT:?OnAmbientProperty@CWnd@@UAEHPAVCOleControlSite@@JPAUtagVARIANT@@@Z
	DD	FLAT:?WindowProc@CWnd@@MAEJIIJ@Z
	DD	FLAT:?OnWndMsg@CWnd@@MAEHIIJPAJ@Z
	DD	FLAT:?DefWindowProcA@CWnd@@MAEJIIJ@Z
	DD	FLAT:?PostNcDestroy@CWnd@@MAEXXZ
	DD	FLAT:?OnChildNotify@CListCtrl@@MAEHIIJPAJ@Z
	DD	FLAT:?CheckAutoCenter@CWnd@@UAEHXZ
	DD	FLAT:?IsFrameWnd@CWnd@@UBEHXZ
	DD	FLAT:?CreateControlContainer@CWnd@@MAEHPAPAVCOleControlContainer@@@Z
	DD	FLAT:?CreateControlSite@CWnd@@MAEHPAVCOleControlContainer@@PAPAVCOleControlSite@@IABU_GUID@@@Z
	DD	FLAT:?SetOccDialogInfo@CWnd@@MAEHPAU_AFX_OCC_DIALOG_INFO@@@Z
	DD	FLAT:?Create@CListCtrl@@UAEHKABUtagRECT@@PAVCWnd@@I@Z
	DD	FLAT:?CreateEx@CListCtrl@@UAEHKKABUtagRECT@@PAVCWnd@@I@Z
	DD	FLAT:?DrawItem@CMyListCtrl@@MAEXPAUtagDRAWITEMSTRUCT@@@Z
	DD	FLAT:?CreateControl@CMyListCtrl@@UAEXHPAVCWnd@@@Z
	DD	FLAT:?DrawTextColumn@CMyListCtrl@@UAEXPAVCDC@@HHABVCRect@@@Z
	DD	FLAT:?DrawImageColumn@CMyListCtrl@@UAEXPAVCDC@@HHABVCRect@@H@Z
	DD	FLAT:?NeedChangeCursor@CMyListCtrl@@UAEHAAVCPoint@@@Z
	DD	FLAT:__purecall
	DD	FLAT:?SetItemTextColor@CMyListCtrl@@UAEXPAVCDC@@HH@Z
	DD	FLAT:?SetItemBkColor@CMyListCtrl@@UAEXPAVCDC@@HHABVCRect@@@Z
	DD	FLAT:?ShowItemToolTip@CMyListCtrl@@UAEXHH@Z
	DD	FLAT:?ShowSubItemToolTip@CMyListCtrl@@UAEXHH@Z
	DD	FLAT:?HideToolTip@CMyListCtrl@@UAEXXZ
	DD	FLAT:?SortFunction@CMyListCtrl@@UAEHHH@Z
	DD	FLAT:?SetKeySubItem@CMyListCtrl@@UAEXH@Z
	DD	FLAT:?GetItemIdxByKey@CMyListCtrl@@UAEXV?$basic_string@DU?$char_traits@D@std@@V?$allocator@D@2@@std@@AAV?$vector@HV?$allocator@H@std@@@3@@Z
CONST	ENDS
;	COMDAT ??_7CMyListCtrl@@6BCBasicSkinWnd@@@
CONST	SEGMENT
??_7CMyListCtrl@@6BCBasicSkinWnd@@@ DD FLAT:??_R4CMyListCtrl@@6BCBasicSkinWnd@@@ ; CMyListCtrl::`vftable'
	DD	FLAT:??_ECMyListCtrl@@WFE@AEPAXI@Z
	DD	FLAT:?LoadSkin@CMyListCtrl@@UAEXXZ
CONST	ENDS
;	COMDAT ??_R4CMyListCtrl@@6BCListCtrl@@@
rdata$r	SEGMENT
??_R4CMyListCtrl@@6BCListCtrl@@@ DD 00H			; CMyListCtrl::`RTTI Complete Object Locator'
	DD	00H
	DD	00H
	DD	FLAT:??_R0?AVCMyListCtrl@@@8
	DD	FLAT:??_R3CMyListCtrl@@8
rdata$r	ENDS
;	COMDAT ??_R0?AVCMyListCtrl@@@8
_DATA	SEGMENT
??_R0?AVCMyListCtrl@@@8 DD FLAT:??_7type_info@@6B@	; CMyListCtrl `RTTI Type Descriptor'
	DD	00H
	DB	'.?AVCMyListCtrl@@', 00H
_DATA	ENDS
;	COMDAT ??_R3CMyListCtrl@@8
rdata$r	SEGMENT
??_R3CMyListCtrl@@8 DD 00H				; CMyListCtrl::`RTTI Class Hierarchy Descriptor'
	DD	01H
	DD	06H
	DD	FLAT:??_R2CMyListCtrl@@8
rdata$r	ENDS
;	COMDAT ??_R2CMyListCtrl@@8
rdata$r	SEGMENT
??_R2CMyListCtrl@@8 DD FLAT:??_R1A@?0A@A@CMyListCtrl@@8	; CMyListCtrl::`RTTI Base Class Array'
	DD	FLAT:??_R1A@?0A@A@CListCtrl@@8
	DD	FLAT:??_R1A@?0A@A@CWnd@@8
	DD	FLAT:??_R1A@?0A@A@CCmdTarget@@8
	DD	FLAT:??_R1A@?0A@A@CObject@@8
	DD	FLAT:??_R1FE@?0A@A@CBasicSkinWnd@@8
rdata$r	ENDS
;	COMDAT ??_R1A@?0A@A@CMyListCtrl@@8
rdata$r	SEGMENT
??_R1A@?0A@A@CMyListCtrl@@8 DD FLAT:??_R0?AVCMyListCtrl@@@8 ; CMyListCtrl::`RTTI Base Class Descriptor at (0,-1,0,0)'
	DD	05H
	DD	00H
	DD	0ffffffffH
	DD	00H
	DD	00H
rdata$r	ENDS
;	COMDAT ??_R1A@?0A@A@CListCtrl@@8
rdata$r	SEGMENT
??_R1A@?0A@A@CListCtrl@@8 DD FLAT:??_R0?AVCListCtrl@@@8	; CListCtrl::`RTTI Base Class Descriptor at (0,-1,0,0)'
	DD	03H
	DD	00H
	DD	0ffffffffH
	DD	00H
	DD	00H
rdata$r	ENDS
;	COMDAT ??_R0?AVCListCtrl@@@8
_DATA	SEGMENT
??_R0?AVCListCtrl@@@8 DD FLAT:??_7type_info@@6B@	; CListCtrl `RTTI Type Descriptor'
	DD	00H
	DB	'.?AVCListCtrl@@', 00H
_DATA	ENDS
;	COMDAT ??_R1A@?0A@A@CWnd@@8
rdata$r	SEGMENT
??_R1A@?0A@A@CWnd@@8 DD FLAT:??_R0?AVCWnd@@@8		; CWnd::`RTTI Base Class Descriptor at (0,-1,0,0)'
	DD	02H
	DD	00H
	DD	0ffffffffH
	DD	00H
	DD	00H
rdata$r	ENDS
;	COMDAT ??_R0?AVCWnd@@@8
_DATA	SEGMENT
??_R0?AVCWnd@@@8 DD FLAT:??_7type_info@@6B@		; CWnd `RTTI Type Descriptor'
	DD	00H
	DB	'.?AVCWnd@@', 00H
_DATA	ENDS
;	COMDAT ??_R1A@?0A@A@CCmdTarget@@8
rdata$r	SEGMENT
??_R1A@?0A@A@CCmdTarget@@8 DD FLAT:??_R0?AVCCmdTarget@@@8 ; CCmdTarget::`RTTI Base Class Descriptor at (0,-1,0,0)'
	DD	01H
	DD	00H
	DD	0ffffffffH
	DD	00H
	DD	00H
rdata$r	ENDS
;	COMDAT ??_R0?AVCCmdTarget@@@8
_DATA	SEGMENT
??_R0?AVCCmdTarget@@@8 DD FLAT:??_7type_info@@6B@	; CCmdTarget `RTTI Type Descriptor'
	DD	00H
	DB	'.?AVCCmdTarget@@', 00H
_DATA	ENDS
;	COMDAT ??_R1A@?0A@A@CObject@@8
rdata$r	SEGMENT
??_R1A@?0A@A@CObject@@8 DD FLAT:??_R0?AVCObject@@@8	; CObject::`RTTI Base Class Descriptor at (0,-1,0,0)'
	DD	00H
	DD	00H
	DD	0ffffffffH
	DD	00H
	DD	00H
rdata$r	ENDS
;	COMDAT ??_R0?AVCObject@@@8
_DATA	SEGMENT
??_R0?AVCObject@@@8 DD FLAT:??_7type_info@@6B@		; CObject `RTTI Type Descriptor'
	DD	00H
	DB	'.?AVCObject@@', 00H
_DATA	ENDS
;	COMDAT ??_R1FE@?0A@A@CBasicSkinWnd@@8
rdata$r	SEGMENT
??_R1FE@?0A@A@CBasicSkinWnd@@8 DD FLAT:??_R0?AVCBasicSkinWnd@@@8 ; CBasicSkinWnd::`RTTI Base Class Descriptor at (84,-1,0,0)'
	DD	00H
	DD	054H
	DD	0ffffffffH
	DD	00H
	DD	00H
rdata$r	ENDS
;	COMDAT ??_R0?AVCBasicSkinWnd@@@8
_DATA	SEGMENT
??_R0?AVCBasicSkinWnd@@@8 DD FLAT:??_7type_info@@6B@	; CBasicSkinWnd `RTTI Type Descriptor'
	DD	00H
	DB	'.?AVCBasicSkinWnd@@', 00H
	ORG $-28
	DD	FLAT:??_7type_info@@6B@
	DD	00H
	DB	'.?AVCBasicSkinWnd@@', 00H
_DATA	ENDS
;	COMDAT ??_R4CMyListCtrl@@6BCBasicSkinWnd@@@
rdata$r	SEGMENT
??_R4CMyListCtrl@@6BCBasicSkinWnd@@@ DD 00H		; CMyListCtrl::`RTTI Complete Object Locator'
	DD	054H
	DD	00H
	DD	FLAT:??_R0?AVCMyListCtrl@@@8
	DD	FLAT:??_R3CMyListCtrl@@8
; Function compile flags: /Odt /RTCsu
rdata$r	ENDS
_TEXT	SEGMENT
_this$ = -16						; size = 4
__$EHRec$ = -12						; size = 12
??0CMyListCtrl@@QAE@XZ PROC NEAR			; CMyListCtrl::CMyListCtrl
; _this$ = ecx

; 29   : {

  00000	55		 push	 ebp
  00001	8b ec		 mov	 ebp, esp
  00003	6a ff		 push	 -1
  00005	68 00 00 00 00	 push	 __ehhandler$??0CMyListCtrl@@QAE@XZ
  0000a	64 a1 00 00 00
	00		 mov	 eax, DWORD PTR fs:__except_list
  00010	50		 push	 eax
  00011	64 89 25 00 00
	00 00		 mov	 DWORD PTR fs:__except_list, esp
  00018	51		 push	 ecx
  00019	c7 45 f0 cc cc
	cc cc		 mov	 DWORD PTR [ebp-16], -858993460 ; ccccccccH
  00020	89 4d f0	 mov	 DWORD PTR _this$[ebp], ecx
  00023	8b 4d f0	 mov	 ecx, DWORD PTR _this$[ebp]
  00026	e8 00 00 00 00	 call	 ??0CListCtrl@@QAE@XZ	; CListCtrl::CListCtrl
  0002b	c7 45 fc 00 00
	00 00		 mov	 DWORD PTR __$EHRec$[ebp+8], 0
  00032	8b 4d f0	 mov	 ecx, DWORD PTR _this$[ebp]
  00035	83 c1 54	 add	 ecx, 84			; 00000054H
  00038	e8 00 00 00 00	 call	 ??0CBasicSkinWnd@@QAE@XZ
  0003d	c6 45 fc 01	 mov	 BYTE PTR __$EHRec$[ebp+8], 1
  00041	8b 45 f0	 mov	 eax, DWORD PTR _this$[ebp]
  00044	c7 00 00 00 00
	00		 mov	 DWORD PTR [eax], OFFSET FLAT:??_7CMyListCtrl@@6BCListCtrl@@@
  0004a	8b 4d f0	 mov	 ecx, DWORD PTR _this$[ebp]
  0004d	c7 41 54 00 00
	00 00		 mov	 DWORD PTR [ecx+84], OFFSET FLAT:??_7CMyListCtrl@@6BCBasicSkinWnd@@@
  00054	8b 55 f0	 mov	 edx, DWORD PTR _this$[ebp]
  00057	c7 42 6c 00 00
	00 00		 mov	 DWORD PTR [edx+108], 0
  0005e	8b 45 f0	 mov	 eax, DWORD PTR _this$[ebp]
  00061	c7 40 70 00 00
	00 00		 mov	 DWORD PTR [eax+112], 0
  00068	8b 4d f0	 mov	 ecx, DWORD PTR _this$[ebp]
  0006b	83 c1 74	 add	 ecx, 116		; 00000074H
  0006e	e8 00 00 00 00	 call	 ??0CFont@@QAE@XZ	; CFont::CFont
  00073	c6 45 fc 02	 mov	 BYTE PTR __$EHRec$[ebp+8], 2
  00077	8b 4d f0	 mov	 ecx, DWORD PTR _this$[ebp]
  0007a	c7 41 7c 00 00
	00 00		 mov	 DWORD PTR [ecx+124], 0
  00081	8b 55 f0	 mov	 edx, DWORD PTR _this$[ebp]
  00084	c7 82 80 00 00
	00 ff ff ff ff	 mov	 DWORD PTR [edx+128], -1
  0008e	8b 45 f0	 mov	 eax, DWORD PTR _this$[ebp]
  00091	c7 80 84 00 00
	00 ff ff ff ff	 mov	 DWORD PTR [eax+132], -1
  0009b	8b 4d f0	 mov	 ecx, DWORD PTR _this$[ebp]
  0009e	c7 81 88 00 00
	00 ff ff ff ff	 mov	 DWORD PTR [ecx+136], -1
  000a8	8b 55 f0	 mov	 edx, DWORD PTR _this$[ebp]
  000ab	c7 82 8c 00 00
	00 ff ff ff ff	 mov	 DWORD PTR [edx+140], -1
  000b5	8b 45 f0	 mov	 eax, DWORD PTR _this$[ebp]
  000b8	c7 80 90 00 00
	00 00 00 00 00	 mov	 DWORD PTR [eax+144], 0
  000c2	8b 4d f0	 mov	 ecx, DWORD PTR _this$[ebp]
  000c5	81 c1 94 00 00
	00		 add	 ecx, 148		; 00000094H
  000cb	e8 00 00 00 00	 call	 ??0?$map@HUMYLIST_COLUMN_INFO@@U?$less@H@std@@V?$allocator@U?$pair@$$CBHUMYLIST_COLUMN_INFO@@@std@@@3@@std@@QAE@XZ ; std::map<int,MYLIST_COLUMN_INFO,std::less<int>,std::allocator<std::pair<int const ,MYLIST_COLUMN_INFO> > >::map<int,MYLIST_COLUMN_INFO,std::less<int>,std::allocator<std::pair<int const ,MYLIST_COLUMN_INFO> > >
  000d0	c6 45 fc 03	 mov	 BYTE PTR __$EHRec$[ebp+8], 3
  000d4	8b 4d f0	 mov	 ecx, DWORD PTR _this$[ebp]
  000d7	81 c1 a0 00 00
	00		 add	 ecx, 160		; 000000a0H
  000dd	e8 00 00 00 00	 call	 ??0CCWToolTips@@QAE@XZ	; CCWToolTips::CCWToolTips
  000e2	c6 45 fc 04	 mov	 BYTE PTR __$EHRec$[ebp+8], 4
  000e6	8b 4d f0	 mov	 ecx, DWORD PTR _this$[ebp]
  000e9	c6 81 30 01 00
	00 00		 mov	 BYTE PTR [ecx+304], 0
  000f0	8b 55 f0	 mov	 edx, DWORD PTR _this$[ebp]
  000f3	c7 82 34 01 00
	00 ff ff ff ff	 mov	 DWORD PTR [edx+308], -1
  000fd	8b 4d f0	 mov	 ecx, DWORD PTR _this$[ebp]
  00100	81 c1 3c 01 00
	00		 add	 ecx, 316		; 0000013cH
  00106	e8 00 00 00 00	 call	 ??0?$vector@HV?$allocator@H@std@@@std@@QAE@XZ ; std::vector<int,std::allocator<int> >::vector<int,std::allocator<int> >
  0010b	c6 45 fc 05	 mov	 BYTE PTR __$EHRec$[ebp+8], 5
  0010f	8b 45 f0	 mov	 eax, DWORD PTR _this$[ebp]
  00112	c7 80 58 01 00
	00 01 00 00 00	 mov	 DWORD PTR [eax+344], 1

; 30   : // 	m_bDrawItemTopLine	= false;
; 31   : 	m_clrOddItemBK		= RGB(51,51,51);		

  0011c	8b 4d f0	 mov	 ecx, DWORD PTR _this$[ebp]
  0011f	c7 41 58 33 33
	33 00		 mov	 DWORD PTR [ecx+88], 3355443 ; 00333333H

; 32   : 	m_clrEvenItemBK		= RGB(45,44,44);		

  00126	8b 55 f0	 mov	 edx, DWORD PTR _this$[ebp]
  00129	c7 42 5c 2d 2c
	2c 00		 mov	 DWORD PTR [edx+92], 2894893 ; 002c2c2dH

; 33   : 	m_clrNormalItemText = RGB(255,0,0);

  00130	8b 45 f0	 mov	 eax, DWORD PTR _this$[ebp]
  00133	c7 40 60 ff 00
	00 00		 mov	 DWORD PTR [eax+96], 255	; 000000ffH

; 34   : 	m_clrSelItemBK		= RGB(128,128,128);

  0013a	8b 4d f0	 mov	 ecx, DWORD PTR _this$[ebp]
  0013d	c7 41 64 80 80
	80 00		 mov	 DWORD PTR [ecx+100], 8421504 ; 00808080H

; 35   : 	m_clrSelItemText	= RGB(255,0,0);

  00144	8b 55 f0	 mov	 edx, DWORD PTR _this$[ebp]
  00147	c7 42 68 ff 00
	00 00		 mov	 DWORD PTR [edx+104], 255 ; 000000ffH

; 36   : 	
; 37   : 	m_font.CreatePointFont(90,_T(""));

  0014e	6a 00		 push	 0
  00150	68 00 00 00 00	 push	 OFFSET FLAT:$SG189173
  00155	6a 5a		 push	 90			; 0000005aH
  00157	8b 4d f0	 mov	 ecx, DWORD PTR _this$[ebp]
  0015a	83 c1 74	 add	 ecx, 116		; 00000074H
  0015d	e8 00 00 00 00	 call	 ?CreatePointFont@CFont@@QAEHHPBDPAVCDC@@@Z ; CFont::CreatePointFont

; 38   : 	m_bDrawHoverRow = true;

  00162	8b 45 f0	 mov	 eax, DWORD PTR _this$[ebp]
  00165	c6 80 54 01 00
	00 01		 mov	 BYTE PTR [eax+340], 1

; 39   : 	m_bInit = false;

  0016c	8b 4d f0	 mov	 ecx, DWORD PTR _this$[ebp]
  0016f	c6 81 38 01 00
	00 00		 mov	 BYTE PTR [ecx+312], 0

; 40   : }

  00176	c7 45 fc ff ff
	ff ff		 mov	 DWORD PTR __$EHRec$[ebp+8], -1
  0017d	8b 45 f0	 mov	 eax, DWORD PTR _this$[ebp]
  00180	8b 4d f4	 mov	 ecx, DWORD PTR __$EHRec$[ebp]
  00183	64 89 0d 00 00
	00 00		 mov	 DWORD PTR fs:__except_list, ecx
  0018a	83 c4 10	 add	 esp, 16			; 00000010H
  0018d	3b ec		 cmp	 ebp, esp
  0018f	e8 00 00 00 00	 call	 __RTC_CheckEsp
  00194	8b e5		 mov	 esp, ebp
  00196	5d		 pop	 ebp
  00197	c3		 ret	 0
_TEXT	ENDS
text$x	SEGMENT
$L191777:
  00000	8b 4d f0	 mov	 ecx, DWORD PTR _this$[ebp]
  00003	e9 00 00 00 00	 jmp	 ??1CListCtrl@@UAE@XZ	; CListCtrl::~CListCtrl
$L191778:
  00008	8b 4d f0	 mov	 ecx, DWORD PTR _this$[ebp]
  0000b	83 c1 54	 add	 ecx, 84			; 00000054H
  0000e	e9 00 00 00 00	 jmp	 ??1CBasicSkinWnd@@UAE@XZ ; CBasicSkinWnd::~CBasicSkinWnd
$L191779:
  00013	8b 4d f0	 mov	 ecx, DWORD PTR _this$[ebp]
  00016	83 c1 74	 add	 ecx, 116		; 00000074H
  00019	e9 00 00 00 00	 jmp	 ??1CFont@@UAE@XZ	; CFont::~CFont
$L191780:
  0001e	8b 4d f0	 mov	 ecx, DWORD PTR _this$[ebp]
  00021	81 c1 94 00 00
	00		 add	 ecx, 148		; 00000094H
  00027	e9 00 00 00 00	 jmp	 ??1?$map@HUMYLIST_COLUMN_INFO@@U?$less@H@std@@V?$allocator@U?$pair@$$CBHUMYLIST_COLUMN_INFO@@@std@@@3@@std@@QAE@XZ
$L191781:
  0002c	8b 4d f0	 mov	 ecx, DWORD PTR _this$[ebp]
  0002f	81 c1 a0 00 00
	00		 add	 ecx, 160		; 000000a0H
  00035	e9 00 00 00 00	 jmp	 ??1CCWToolTips@@UAE@XZ	; CCWToolTips::~CCWToolTips
$L191782:
  0003a	8b 4d f0	 mov	 ecx, DWORD PTR _this$[ebp]
  0003d	81 c1 3c 01 00
	00		 add	 ecx, 316		; 0000013cH
  00043	e9 00 00 00 00	 jmp	 ??1?$vector@HV?$allocator@H@std@@@std@@QAE@XZ ; std::vector<int,std::allocator<int> >::~vector<int,std::allocator<int> >
__ehhandler$??0CMyListCtrl@@QAE@XZ:
  00048	b8 00 00 00 00	 mov	 eax, OFFSET FLAT:$T191786
  0004d	e9 00 00 00 00	 jmp	 ___CxxFrameHandler
text$x	ENDS
??0CMyListCtrl@@QAE@XZ ENDP				; CMyListCtrl::CMyListCtrl
; Function compile flags: /Odt /RTCsu
; File d:\boxgit\playbox\playbox\dev\prj\playbox\src\gui\commoncontrol\mylistctrl.h
;	COMDAT ?LoadSkin@CMyListCtrl@@UAEXXZ
_TEXT	SEGMENT
_this$ = -4						; size = 4
?LoadSkin@CMyListCtrl@@UAEXXZ PROC NEAR			; CMyListCtrl::LoadSkin, COMDAT
; _this$ = ecx

; 75   : 	virtual void	LoadSkin(){};

  00000	55		 push	 ebp
  00001	8b ec		 mov	 ebp, esp
  00003	51		 push	 ecx
  00004	c7 45 fc cc cc
	cc cc		 mov	 DWORD PTR [ebp-4], -858993460 ; ccccccccH
  0000b	89 4d fc	 mov	 DWORD PTR _this$[ebp], ecx
  0000e	8b e5		 mov	 esp, ebp
  00010	5d		 pop	 ebp
  00011	c3		 ret	 0
?LoadSkin@CMyListCtrl@@UAEXXZ ENDP			; CMyListCtrl::LoadSkin
; Function compile flags: /Odt /RTCsu
_TEXT	ENDS
;	COMDAT ?ShowItemToolTip@CMyListCtrl@@UAEXHH@Z
_TEXT	SEGMENT
_this$ = -4						; size = 4
_iItem$ = 8						; size = 4
_iSubItem$ = 12						; size = 4
?ShowItemToolTip@CMyListCtrl@@UAEXHH@Z PROC NEAR	; CMyListCtrl::ShowItemToolTip, COMDAT
; _this$ = ecx

; 84   : 	virtual void	ShowItemToolTip( int iItem,int iSubItem ){};

  00000	55		 push	 ebp
  00001	8b ec		 mov	 ebp, esp
  00003	51		 push	 ecx
  00004	c7 45 fc cc cc
	cc cc		 mov	 DWORD PTR [ebp-4], -858993460 ; ccccccccH
  0000b	89 4d fc	 mov	 DWORD PTR _this$[ebp], ecx
  0000e	8b e5		 mov	 esp, ebp
  00010	5d		 pop	 ebp
  00011	c2 08 00	 ret	 8
?ShowItemToolTip@CMyListCtrl@@UAEXHH@Z ENDP		; CMyListCtrl::ShowItemToolTip
; Function compile flags: /Odt /RTCsu
_TEXT	ENDS
;	COMDAT ?ShowSubItemToolTip@CMyListCtrl@@UAEXHH@Z
_TEXT	SEGMENT
_this$ = -4						; size = 4
_iItem$ = 8						; size = 4
_iSubItem$ = 12						; size = 4
?ShowSubItemToolTip@CMyListCtrl@@UAEXHH@Z PROC NEAR	; CMyListCtrl::ShowSubItemToolTip, COMDAT
; _this$ = ecx

; 85   : 	virtual void	ShowSubItemToolTip(int iItem,int iSubItem ){};

  00000	55		 push	 ebp
  00001	8b ec		 mov	 ebp, esp
  00003	51		 push	 ecx
  00004	c7 45 fc cc cc
	cc cc		 mov	 DWORD PTR [ebp-4], -858993460 ; ccccccccH
  0000b	89 4d fc	 mov	 DWORD PTR _this$[ebp], ecx
  0000e	8b e5		 mov	 esp, ebp
  00010	5d		 pop	 ebp
  00011	c2 08 00	 ret	 8
?ShowSubItemToolTip@CMyListCtrl@@UAEXHH@Z ENDP		; CMyListCtrl::ShowSubItemToolTip
; Function compile flags: /Odt /RTCsu
_TEXT	ENDS
;	COMDAT ?SortFunction@CMyListCtrl@@UAEHHH@Z
_TEXT	SEGMENT
_this$ = -4						; size = 4
_iItem1$ = 8						; size = 4
_iItem2$ = 12						; size = 4
?SortFunction@CMyListCtrl@@UAEHHH@Z PROC NEAR		; CMyListCtrl::SortFunction, COMDAT
; _this$ = ecx

; 87   : 	virtual int		SortFunction(int iItem1,int iItem2){return 0;}; 

  00000	55		 push	 ebp
  00001	8b ec		 mov	 ebp, esp
  00003	51		 push	 ecx
  00004	c7 45 fc cc cc
	cc cc		 mov	 DWORD PTR [ebp-4], -858993460 ; ccccccccH
  0000b	89 4d fc	 mov	 DWORD PTR _this$[ebp], ecx
  0000e	33 c0		 xor	 eax, eax
  00010	8b e5		 mov	 esp, ebp
  00012	5d		 pop	 ebp
  00013	c2 08 00	 ret	 8
?SortFunction@CMyListCtrl@@UAEHHH@Z ENDP		; CMyListCtrl::SortFunction
_TEXT	ENDS
EXTRN	__imp_??1?$basic_string@DU?$char_traits@D@std@@V?$allocator@D@2@@std@@QAE@XZ:NEAR
; Function compile flags: /Odt /RTCsu
;	COMDAT ?GetItemIdxByKey@CMyListCtrl@@UAEXV?$basic_string@DU?$char_traits@D@std@@V?$allocator@D@2@@std@@AAV?$vector@HV?$allocator@H@std@@@3@@Z
_TEXT	SEGMENT
_this$ = -4						; size = 4
_strKey$ = 8						; size = 28
_vecIdx$ = 36						; size = 4
?GetItemIdxByKey@CMyListCtrl@@UAEXV?$basic_string@DU?$char_traits@D@std@@V?$allocator@D@2@@std@@AAV?$vector@HV?$allocator@H@std@@@3@@Z PROC NEAR ; CMyListCtrl::GetItemIdxByKey, COMDAT
; _this$ = ecx

; 89   : 	virtual void	GetItemIdxByKey(string strKey,vector<int> &vecIdx){};

  00000	55		 push	 ebp
  00001	8b ec		 mov	 ebp, esp
  00003	51		 push	 ecx
  00004	56		 push	 esi
  00005	c7 45 fc cc cc
	cc cc		 mov	 DWORD PTR [ebp-4], -858993460 ; ccccccccH
  0000c	89 4d fc	 mov	 DWORD PTR _this$[ebp], ecx
  0000f	8b f4		 mov	 esi, esp
  00011	8d 4d 08	 lea	 ecx, DWORD PTR _strKey$[ebp]
  00014	ff 15 00 00 00
	00		 call	 DWORD PTR __imp_??1?$basic_string@DU?$char_traits@D@std@@V?$allocator@D@2@@std@@QAE@XZ
  0001a	3b f4		 cmp	 esi, esp
  0001c	e8 00 00 00 00	 call	 __RTC_CheckEsp
  00021	5e		 pop	 esi
  00022	83 c4 04	 add	 esp, 4
  00025	3b ec		 cmp	 ebp, esp
  00027	e8 00 00 00 00	 call	 __RTC_CheckEsp
  0002c	8b e5		 mov	 esp, ebp
  0002e	5d		 pop	 ebp
  0002f	c2 20 00	 ret	 32			; 00000020H
?GetItemIdxByKey@CMyListCtrl@@UAEXV?$basic_string@DU?$char_traits@D@std@@V?$allocator@D@2@@std@@AAV?$vector@HV?$allocator@H@std@@@3@@Z ENDP ; CMyListCtrl::GetItemIdxByKey
_TEXT	ENDS
PUBLIC	??1CMyListCtrl@@UAE@XZ				; CMyListCtrl::~CMyListCtrl
EXTRN	??3CObject@@SGXPAX@Z:NEAR			; CObject::operator delete
; Function compile flags: /Odt /RTCsu
;	COMDAT ??_GCMyListCtrl@@UAEPAXI@Z
_TEXT	SEGMENT
_this$ = -4						; size = 4
___flags$ = 8						; size = 4
??_GCMyListCtrl@@UAEPAXI@Z PROC NEAR			; CMyListCtrl::`scalar deleting destructor', COMDAT
; _this$ = ecx
  00000	55		 push	 ebp
  00001	8b ec		 mov	 ebp, esp
  00003	51		 push	 ecx
  00004	c7 45 fc cc cc
	cc cc		 mov	 DWORD PTR [ebp-4], -858993460 ; ccccccccH
  0000b	89 4d fc	 mov	 DWORD PTR _this$[ebp], ecx
  0000e	8b 4d fc	 mov	 ecx, DWORD PTR _this$[ebp]
  00011	e8 00 00 00 00	 call	 ??1CMyListCtrl@@UAE@XZ	; CMyListCtrl::~CMyListCtrl
  00016	8b 45 08	 mov	 eax, DWORD PTR ___flags$[ebp]
  00019	83 e0 01	 and	 eax, 1
  0001c	74 09		 je	 SHORT $L189177
  0001e	8b 4d fc	 mov	 ecx, DWORD PTR _this$[ebp]
  00021	51		 push	 ecx
  00022	e8 00 00 00 00	 call	 ??3CObject@@SGXPAX@Z	; CObject::operator delete
$L189177:
  00027	8b 45 fc	 mov	 eax, DWORD PTR _this$[ebp]
  0002a	83 c4 04	 add	 esp, 4
  0002d	3b ec		 cmp	 ebp, esp
  0002f	e8 00 00 00 00	 call	 __RTC_CheckEsp
  00034	8b e5		 mov	 esp, ebp
  00036	5d		 pop	 ebp
  00037	c2 04 00	 ret	 4
??_GCMyListCtrl@@UAEPAXI@Z ENDP				; CMyListCtrl::`scalar deleting destructor'
_TEXT	ENDS
PUBLIC	??_7CBasicSkinWnd@@6B@				; CBasicSkinWnd::`vftable'
PUBLIC	??_GCBasicSkinWnd@@UAEPAXI@Z			; CBasicSkinWnd::`scalar deleting destructor'
PUBLIC	??_R4CBasicSkinWnd@@6B@				; CBasicSkinWnd::`RTTI Complete Object Locator'
PUBLIC	??_R3CBasicSkinWnd@@8				; CBasicSkinWnd::`RTTI Class Hierarchy Descriptor'
PUBLIC	??_R2CBasicSkinWnd@@8				; CBasicSkinWnd::`RTTI Base Class Array'
PUBLIC	??_R1A@?0A@A@CBasicSkinWnd@@8			; CBasicSkinWnd::`RTTI Base Class Descriptor at (0,-1,0,0)'
EXTRN	??_ECBasicSkinWnd@@UAEPAXI@Z:NEAR		; CBasicSkinWnd::`vector deleting destructor'
;	COMDAT ??_7CBasicSkinWnd@@6B@
CONST	SEGMENT
??_7CBasicSkinWnd@@6B@ DD FLAT:??_R4CBasicSkinWnd@@6B@	; CBasicSkinWnd::`vftable'
	DD	FLAT:??_ECBasicSkinWnd@@UAEPAXI@Z
	DD	FLAT:__purecall
CONST	ENDS
;	COMDAT ??_R4CBasicSkinWnd@@6B@
rdata$r	SEGMENT
??_R4CBasicSkinWnd@@6B@ DD 00H				; CBasicSkinWnd::`RTTI Complete Object Locator'
	DD	00H
	DD	00H
	DD	FLAT:??_R0?AVCBasicSkinWnd@@@8
	DD	FLAT:??_R3CBasicSkinWnd@@8
rdata$r	ENDS
;	COMDAT ??_R3CBasicSkinWnd@@8
rdata$r	SEGMENT
??_R3CBasicSkinWnd@@8 DD 00H				; CBasicSkinWnd::`RTTI Class Hierarchy Descriptor'
	DD	00H
	DD	01H
	DD	FLAT:??_R2CBasicSkinWnd@@8
rdata$r	ENDS
;	COMDAT ??_R2CBasicSkinWnd@@8
rdata$r	SEGMENT
??_R2CBasicSkinWnd@@8 DD FLAT:??_R1A@?0A@A@CBasicSkinWnd@@8 ; CBasicSkinWnd::`RTTI Base Class Array'
rdata$r	ENDS
;	COMDAT ??_R1A@?0A@A@CBasicSkinWnd@@8
rdata$r	SEGMENT
??_R1A@?0A@A@CBasicSkinWnd@@8 DD FLAT:??_R0?AVCBasicSkinWnd@@@8 ; CBasicSkinWnd::`RTTI Base Class Descriptor at (0,-1,0,0)'
	DD	00H
	DD	00H
	DD	0ffffffffH
	DD	00H
	DD	00H
; Function compile flags: /Odt /RTCsu
rdata$r	ENDS
;	COMDAT ??0CBasicSkinWnd@@QAE@XZ
_TEXT	SEGMENT
_this$ = -4						; size = 4
??0CBasicSkinWnd@@QAE@XZ PROC NEAR			; CBasicSkinWnd::CBasicSkinWnd, COMDAT
; _this$ = ecx
  00000	55		 push	 ebp
  00001	8b ec		 mov	 ebp, esp
  00003	51		 push	 ecx
  00004	c7 45 fc cc cc
	cc cc		 mov	 DWORD PTR [ebp-4], -858993460 ; ccccccccH
  0000b	89 4d fc	 mov	 DWORD PTR _this$[ebp], ecx
  0000e	8b 45 fc	 mov	 eax, DWORD PTR _this$[ebp]
  00011	c7 00 00 00 00
	00		 mov	 DWORD PTR [eax], OFFSET FLAT:??_7CBasicSkinWnd@@6B@
  00017	8b 45 fc	 mov	 eax, DWORD PTR _this$[ebp]
  0001a	8b e5		 mov	 esp, ebp
  0001c	5d		 pop	 ebp
  0001d	c3		 ret	 0
??0CBasicSkinWnd@@QAE@XZ ENDP				; CBasicSkinWnd::CBasicSkinWnd
_TEXT	ENDS
PUBLIC	??1?$_Tree@V?$_Tmap_traits@HUMYLIST_COLUMN_INFO@@U?$less@H@std@@V?$allocator@U?$pair@$$CBHUMYLIST_COLUMN_INFO@@@std@@@3@$0A@@std@@@std@@QAE@XZ ; std::_Tree<std::_Tmap_traits<int,MYLIST_COLUMN_INFO,std::less<int>,std::allocator<std::pair<int const ,MYLIST_COLUMN_INFO> >,0> >::~_Tree<std::_Tmap_traits<int,MYLIST_COLUMN_INFO,std::less<int>,std::allocator<std::pair<int const ,MYLIST_COLUMN_INFO> >,0> >
; Function compile flags: /Odt /RTCsu
;	COMDAT ??1?$map@HUMYLIST_COLUMN_INFO@@U?$less@H@std@@V?$allocator@U?$pair@$$CBHUMYLIST_COLUMN_INFO@@@std@@@3@@std@@QAE@XZ
_TEXT	SEGMENT
_this$ = -4						; size = 4
??1?$map@HUMYLIST_COLUMN_INFO@@U?$less@H@std@@V?$allocator@U?$pair@$$CBHUMYLIST_COLUMN_INFO@@@std@@@3@@std@@QAE@XZ PROC NEAR ; std::map<int,MYLIST_COLUMN_INFO,std::less<int>,std::allocator<std::pair<int const ,MYLIST_COLUMN_INFO> > >::~map<int,MYLIST_COLUMN_INFO,std::less<int>,std::allocator<std::pair<int const ,MYLIST_COLUMN_INFO> > >, COMDAT
; _this$ = ecx
  00000	55		 push	 ebp
  00001	8b ec		 mov	 ebp, esp
  00003	51		 push	 ecx
  00004	c7 45 fc cc cc
	cc cc		 mov	 DWORD PTR [ebp-4], -858993460 ; ccccccccH
  0000b	89 4d fc	 mov	 DWORD PTR _this$[ebp], ecx
  0000e	8b 4d fc	 mov	 ecx, DWORD PTR _this$[ebp]
  00011	e8 00 00 00 00	 call	 ??1?$_Tree@V?$_Tmap_traits@HUMYLIST_COLUMN_INFO@@U?$less@H@std@@V?$allocator@U?$pair@$$CBHUMYLIST_COLUMN_INFO@@@std@@@3@$0A@@std@@@std@@QAE@XZ ; std::_Tree<std::_Tmap_traits<int,MYLIST_COLUMN_INFO,std::less<int>,std::allocator<std::pair<int const ,MYLIST_COLUMN_INFO> >,0> >::~_Tree<std::_Tmap_traits<int,MYLIST_COLUMN_INFO,std::less<int>,std::allocator<std::pair<int const ,MYLIST_COLUMN_INFO> >,0> >
  00016	83 c4 04	 add	 esp, 4
  00019	3b ec		 cmp	 ebp, esp
  0001b	e8 00 00 00 00	 call	 __RTC_CheckEsp
  00020	8b e5		 mov	 esp, ebp
  00022	5d		 pop	 ebp
  00023	c3		 ret	 0
??1?$map@HUMYLIST_COLUMN_INFO@@U?$less@H@std@@V?$allocator@U?$pair@$$CBHUMYLIST_COLUMN_INFO@@@std@@@3@@std@@QAE@XZ ENDP ; std::map<int,MYLIST_COLUMN_INFO,std::less<int>,std::allocator<std::pair<int const ,MYLIST_COLUMN_INFO> > >::~map<int,MYLIST_COLUMN_INFO,std::less<int>,std::allocator<std::pair<int const ,MYLIST_COLUMN_INFO> > >
_TEXT	ENDS
EXTRN	?DeleteObject@CGdiObject@@QAEHXZ:NEAR		; CGdiObject::DeleteObject
xdata$x	SEGMENT
$T191816 DD	0ffffffffH
	DD	FLAT:$L191805
	DD	00H
	DD	FLAT:$L191808
	DD	01H
	DD	FLAT:$L191809
	DD	02H
	DD	FLAT:$L191810
	DD	03H
	DD	FLAT:$L191811
	DD	04H
	DD	FLAT:$L191812
$T191814 DD	019930520H
	DD	06H
	DD	FLAT:$T191816
	DD	2 DUP(00H)
	DD	2 DUP(00H)
; Function compile flags: /Odt /RTCsu
; File d:\boxgit\playbox\playbox\dev\prj\playbox\src\gui\commoncontrol\mylistctrl.cpp
xdata$x	ENDS
_TEXT	SEGMENT
tv68 = -20						; size = 4
_this$ = -16						; size = 4
__$EHRec$ = -12						; size = 12
??1CMyListCtrl@@UAE@XZ PROC NEAR			; CMyListCtrl::~CMyListCtrl
; _this$ = ecx

; 43   : {

  001a0	55		 push	 ebp
  001a1	8b ec		 mov	 ebp, esp
  001a3	6a ff		 push	 -1
  001a5	68 00 00 00 00	 push	 __ehhandler$??1CMyListCtrl@@UAE@XZ
  001aa	64 a1 00 00 00
	00		 mov	 eax, DWORD PTR fs:__except_list
  001b0	50		 push	 eax
  001b1	64 89 25 00 00
	00 00		 mov	 DWORD PTR fs:__except_list, esp
  001b8	83 ec 08	 sub	 esp, 8
  001bb	c7 45 ec cc cc
	cc cc		 mov	 DWORD PTR [ebp-20], -858993460 ; ccccccccH
  001c2	c7 45 f0 cc cc
	cc cc		 mov	 DWORD PTR [ebp-16], -858993460 ; ccccccccH
  001c9	89 4d f0	 mov	 DWORD PTR _this$[ebp], ecx
  001cc	8b 45 f0	 mov	 eax, DWORD PTR _this$[ebp]
  001cf	c7 00 00 00 00
	00		 mov	 DWORD PTR [eax], OFFSET FLAT:??_7CMyListCtrl@@6BCListCtrl@@@
  001d5	8b 4d f0	 mov	 ecx, DWORD PTR _this$[ebp]
  001d8	c7 41 54 00 00
	00 00		 mov	 DWORD PTR [ecx+84], OFFSET FLAT:??_7CMyListCtrl@@6BCBasicSkinWnd@@@
  001df	c7 45 fc 05 00
	00 00		 mov	 DWORD PTR __$EHRec$[ebp+8], 5

; 44   : 	m_font.DeleteObject();

  001e6	8b 4d f0	 mov	 ecx, DWORD PTR _this$[ebp]
  001e9	83 c1 74	 add	 ecx, 116		; 00000074H
  001ec	e8 00 00 00 00	 call	 ?DeleteObject@CGdiObject@@QAEHXZ ; CGdiObject::DeleteObject

; 45   : }

  001f1	c6 45 fc 04	 mov	 BYTE PTR __$EHRec$[ebp+8], 4
  001f5	8b 4d f0	 mov	 ecx, DWORD PTR _this$[ebp]
  001f8	81 c1 3c 01 00
	00		 add	 ecx, 316		; 0000013cH
  001fe	e8 00 00 00 00	 call	 ??1?$vector@HV?$allocator@H@std@@@std@@QAE@XZ ; std::vector<int,std::allocator<int> >::~vector<int,std::allocator<int> >
  00203	c6 45 fc 03	 mov	 BYTE PTR __$EHRec$[ebp+8], 3
  00207	8b 4d f0	 mov	 ecx, DWORD PTR _this$[ebp]
  0020a	81 c1 a0 00 00
	00		 add	 ecx, 160		; 000000a0H
  00210	e8 00 00 00 00	 call	 ??1CCWToolTips@@UAE@XZ	; CCWToolTips::~CCWToolTips
  00215	c6 45 fc 02	 mov	 BYTE PTR __$EHRec$[ebp+8], 2
  00219	8b 4d f0	 mov	 ecx, DWORD PTR _this$[ebp]
  0021c	81 c1 94 00 00
	00		 add	 ecx, 148		; 00000094H
  00222	e8 00 00 00 00	 call	 ??1?$map@HUMYLIST_COLUMN_INFO@@U?$less@H@std@@V?$allocator@U?$pair@$$CBHUMYLIST_COLUMN_INFO@@@std@@@3@@std@@QAE@XZ
  00227	c6 45 fc 01	 mov	 BYTE PTR __$EHRec$[ebp+8], 1
  0022b	8b 4d f0	 mov	 ecx, DWORD PTR _this$[ebp]
  0022e	83 c1 74	 add	 ecx, 116		; 00000074H
  00231	e8 00 00 00 00	 call	 ??1CFont@@UAE@XZ	; CFont::~CFont
  00236	c6 45 fc 00	 mov	 BYTE PTR __$EHRec$[ebp+8], 0
  0023a	83 7d f0 00	 cmp	 DWORD PTR _this$[ebp], 0
  0023e	74 0b		 je	 SHORT $L191803
  00240	8b 55 f0	 mov	 edx, DWORD PTR _this$[ebp]
  00243	83 c2 54	 add	 edx, 84			; 00000054H
  00246	89 55 ec	 mov	 DWORD PTR tv68[ebp], edx
  00249	eb 07		 jmp	 SHORT $L191804
$L191803:
  0024b	c7 45 ec 00 00
	00 00		 mov	 DWORD PTR tv68[ebp], 0
$L191804:
  00252	8b 4d ec	 mov	 ecx, DWORD PTR tv68[ebp]
  00255	e8 00 00 00 00	 call	 ??1CBasicSkinWnd@@UAE@XZ ; CBasicSkinWnd::~CBasicSkinWnd
  0025a	c7 45 fc ff ff
	ff ff		 mov	 DWORD PTR __$EHRec$[ebp+8], -1
  00261	8b 4d f0	 mov	 ecx, DWORD PTR _this$[ebp]
  00264	e8 00 00 00 00	 call	 ??1CListCtrl@@UAE@XZ	; CListCtrl::~CListCtrl
  00269	8b 4d f4	 mov	 ecx, DWORD PTR __$EHRec$[ebp]
  0026c	64 89 0d 00 00
	00 00		 mov	 DWORD PTR fs:__except_list, ecx
  00273	83 c4 14	 add	 esp, 20			; 00000014H
  00276	3b ec		 cmp	 ebp, esp
  00278	e8 00 00 00 00	 call	 __RTC_CheckEsp
  0027d	8b e5		 mov	 esp, ebp
  0027f	5d		 pop	 ebp
  00280	c3		 ret	 0
_TEXT	ENDS
text$x	SEGMENT
$L191805:
  00052	8b 4d f0	 mov	 ecx, DWORD PTR _this$[ebp]
  00055	e9 00 00 00 00	 jmp	 ??1CListCtrl@@UAE@XZ	; CListCtrl::~CListCtrl
$L191808:
  0005a	83 7d f0 00	 cmp	 DWORD PTR _this$[ebp], 0
  0005e	0f 84 0e 00 00
	00		 je	 $L191806
  00064	8b 45 f0	 mov	 eax, DWORD PTR _this$[ebp]
  00067	83 c0 54	 add	 eax, 84			; 00000054H
  0006a	89 45 ec	 mov	 DWORD PTR tv68[ebp], eax
  0006d	e9 07 00 00 00	 jmp	 $L191807
$L191806:
  00072	c7 45 ec 00 00
	00 00		 mov	 DWORD PTR tv68[ebp], 0
$L191807:
  00079	8b 4d ec	 mov	 ecx, DWORD PTR tv68[ebp]
  0007c	e9 00 00 00 00	 jmp	 ??1CBasicSkinWnd@@UAE@XZ ; CBasicSkinWnd::~CBasicSkinWnd
$L191809:
  00081	8b 4d f0	 mov	 ecx, DWORD PTR _this$[ebp]
  00084	83 c1 74	 add	 ecx, 116		; 00000074H
  00087	e9 00 00 00 00	 jmp	 ??1CFont@@UAE@XZ	; CFont::~CFont
$L191810:
  0008c	8b 4d f0	 mov	 ecx, DWORD PTR _this$[ebp]
  0008f	81 c1 94 00 00
	00		 add	 ecx, 148		; 00000094H
  00095	e9 00 00 00 00	 jmp	 ??1?$map@HUMYLIST_COLUMN_INFO@@U?$less@H@std@@V?$allocator@U?$pair@$$CBHUMYLIST_COLUMN_INFO@@@std@@@3@@std@@QAE@XZ
$L191811:
  0009a	8b 4d f0	 mov	 ecx, DWORD PTR _this$[ebp]
  0009d	81 c1 a0 00 00
	00		 add	 ecx, 160		; 000000a0H
  000a3	e9 00 00 00 00	 jmp	 ??1CCWToolTips@@UAE@XZ	; CCWToolTips::~CCWToolTips
$L191812:
  000a8	8b 4d f0	 mov	 ecx, DWORD PTR _this$[ebp]
  000ab	81 c1 3c 01 00
	00		 add	 ecx, 316		; 0000013cH
  000b1	e9 00 00 00 00	 jmp	 ??1?$vector@HV?$allocator@H@std@@@std@@QAE@XZ ; std::vector<int,std::allocator<int> >::~vector<int,std::allocator<int> >
__ehhandler$??1CMyListCtrl@@UAE@XZ:
  000b6	b8 00 00 00 00	 mov	 eax, OFFSET FLAT:$T191814
  000bb	e9 00 00 00 00	 jmp	 ___CxxFrameHandler
text$x	ENDS
??1CMyListCtrl@@UAE@XZ ENDP				; CMyListCtrl::~CMyListCtrl
PUBLIC	?GetThisMessageMap@CMyListCtrl@@KGPBUAFX_MSGMAP@@XZ ; CMyListCtrl::GetThisMessageMap
; Function compile flags: /Odt /RTCsu
_TEXT	SEGMENT
?GetThisMessageMap@CMyListCtrl@@KGPBUAFX_MSGMAP@@XZ PROC NEAR ; CMyListCtrl::GetThisMessageMap

; 47   : BEGIN_MESSAGE_MAP(CMyListCtrl, CListCtrl)

  00290	55		 push	 ebp
  00291	8b ec		 mov	 ebp, esp
  00293	b8 00 00 00 00	 mov	 eax, OFFSET FLAT:?messageMap@CMyListCtrl@@1UAFX_MSGMAP@@B ; CMyListCtrl::messageMap
  00298	5d		 pop	 ebp
  00299	c3		 ret	 0
?GetThisMessageMap@CMyListCtrl@@KGPBUAFX_MSGMAP@@XZ ENDP ; CMyListCtrl::GetThisMessageMap
; Function compile flags: /Odt /RTCsu
_this$ = -4						; size = 4
?GetMessageMap@CMyListCtrl@@MBEPBUAFX_MSGMAP@@XZ PROC NEAR ; CMyListCtrl::GetMessageMap
; _this$ = ecx

; 47   : BEGIN_MESSAGE_MAP(CMyListCtrl, CListCtrl)

  002a0	55		 push	 ebp
  002a1	8b ec		 mov	 ebp, esp
  002a3	51		 push	 ecx
  002a4	c7 45 fc cc cc
	cc cc		 mov	 DWORD PTR [ebp-4], -858993460 ; ccccccccH
  002ab	89 4d fc	 mov	 DWORD PTR _this$[ebp], ecx
  002ae	b8 00 00 00 00	 mov	 eax, OFFSET FLAT:?messageMap@CMyListCtrl@@1UAFX_MSGMAP@@B ; CMyListCtrl::messageMap
  002b3	8b e5		 mov	 esp, ebp
  002b5	5d		 pop	 ebp
  002b6	c3		 ret	 0
?GetMessageMap@CMyListCtrl@@MBEPBUAFX_MSGMAP@@XZ ENDP	; CMyListCtrl::GetMessageMap
_TEXT	ENDS
EXTRN	?OnDestroy@CWnd@@IAEXXZ:NEAR			; CWnd::OnDestroy
EXTRN	_UninitializeCoolSB@4:NEAR
; Function compile flags: /Odt /RTCsu
_TEXT	SEGMENT
_this$ = -4						; size = 4
?OnDestroy@CMyListCtrl@@IAEXXZ PROC NEAR		; CMyListCtrl::OnDestroy
; _this$ = ecx

; 60   : {

  002c0	55		 push	 ebp
  002c1	8b ec		 mov	 ebp, esp
  002c3	51		 push	 ecx
  002c4	56		 push	 esi
  002c5	c7 45 fc cc cc
	cc cc		 mov	 DWORD PTR [ebp-4], -858993460 ; ccccccccH
  002cc	89 4d fc	 mov	 DWORD PTR _this$[ebp], ecx

; 61   : 	m_tooltip.DestroyWindow();

  002cf	8b 4d fc	 mov	 ecx, DWORD PTR _this$[ebp]
  002d2	81 c1 a0 00 00
	00		 add	 ecx, 160		; 000000a0H
  002d8	8b 45 fc	 mov	 eax, DWORD PTR _this$[ebp]
  002db	8b 90 a0 00 00
	00		 mov	 edx, DWORD PTR [eax+160]
  002e1	8b f4		 mov	 esi, esp
  002e3	ff 52 68	 call	 DWORD PTR [edx+104]
  002e6	3b f4		 cmp	 esi, esp
  002e8	e8 00 00 00 00	 call	 __RTC_CheckEsp

; 62   : 	if( m_bInit )

  002ed	8b 45 fc	 mov	 eax, DWORD PTR _this$[ebp]
  002f0	0f b6 88 38 01
	00 00		 movzx	 ecx, BYTE PTR [eax+312]
  002f7	85 c9		 test	 ecx, ecx
  002f9	74 0c		 je	 SHORT $L189246

; 63   : 	{
; 64   : 		UninitializeCoolSB( m_hWnd );

  002fb	8b 55 fc	 mov	 edx, DWORD PTR _this$[ebp]
  002fe	8b 42 20	 mov	 eax, DWORD PTR [edx+32]
  00301	50		 push	 eax
  00302	e8 00 00 00 00	 call	 _UninitializeCoolSB@4
$L189246:

; 65   : 	}
; 66   : 	__super::OnDestroy();

  00307	8b 4d fc	 mov	 ecx, DWORD PTR _this$[ebp]
  0030a	e8 00 00 00 00	 call	 ?OnDestroy@CWnd@@IAEXXZ	; CWnd::OnDestroy

; 67   : }

  0030f	5e		 pop	 esi
  00310	83 c4 04	 add	 esp, 4
  00313	3b ec		 cmp	 ebp, esp
  00315	e8 00 00 00 00	 call	 __RTC_CheckEsp
  0031a	8b e5		 mov	 esp, ebp
  0031c	5d		 pop	 ebp
  0031d	c3		 ret	 0
?OnDestroy@CMyListCtrl@@IAEXXZ ENDP			; CMyListCtrl::OnDestroy
_TEXT	ENDS
PUBLIC	?clear@?$_Tree@V?$_Tmap_traits@HUMYLIST_COLUMN_INFO@@U?$less@H@std@@V?$allocator@U?$pair@$$CBHUMYLIST_COLUMN_INFO@@@std@@@3@$0A@@std@@@std@@QAEXXZ ; std::_Tree<std::_Tmap_traits<int,MYLIST_COLUMN_INFO,std::less<int>,std::allocator<std::pair<int const ,MYLIST_COLUMN_INFO> >,0> >::clear
PUBLIC	??A?$map@HUMYLIST_COLUMN_INFO@@U?$less@H@std@@V?$allocator@U?$pair@$$CBHUMYLIST_COLUMN_INFO@@@std@@@3@@std@@QAEAAUMYLIST_COLUMN_INFO@@ABH@Z ; std::map<int,MYLIST_COLUMN_INFO,std::less<int>,std::allocator<std::pair<int const ,MYLIST_COLUMN_INFO> > >::operator[]
PUBLIC	?SetColumnInfo@CMyListCtrl@@QAEXABV?$vector@UMYLIST_COLUMN_INFO@@V?$allocator@UMYLIST_COLUMN_INFO@@@std@@@std@@@Z ; CMyListCtrl::SetColumnInfo
PUBLIC	??4MYLIST_COLUMN_INFO@@QAEAAU0@ABU0@@Z		; MYLIST_COLUMN_INFO::operator=
PUBLIC	?size@?$vector@UMYLIST_COLUMN_INFO@@V?$allocator@UMYLIST_COLUMN_INFO@@@std@@@std@@QBEIXZ ; std::vector<MYLIST_COLUMN_INFO,std::allocator<MYLIST_COLUMN_INFO> >::size
PUBLIC	??A?$vector@UMYLIST_COLUMN_INFO@@V?$allocator@UMYLIST_COLUMN_INFO@@@std@@@std@@QBEABUMYLIST_COLUMN_INFO@@I@Z ; std::vector<MYLIST_COLUMN_INFO,std::allocator<MYLIST_COLUMN_INFO> >::operator[]
; Function compile flags: /Odt /RTCsu
_TEXT	SEGMENT
_idx$189252 = -8					; size = 4
_this$ = -4						; size = 4
_vecColumn$ = 8						; size = 4
?SetColumnInfo@CMyListCtrl@@QAEXABV?$vector@UMYLIST_COLUMN_INFO@@V?$allocator@UMYLIST_COLUMN_INFO@@@std@@@std@@@Z PROC NEAR ; CMyListCtrl::SetColumnInfo
; _this$ = ecx

; 71   : {

  00320	55		 push	 ebp
  00321	8b ec		 mov	 ebp, esp
  00323	83 ec 08	 sub	 esp, 8
  00326	c7 45 f8 cc cc
	cc cc		 mov	 DWORD PTR [ebp-8], -858993460 ; ccccccccH
  0032d	c7 45 fc cc cc
	cc cc		 mov	 DWORD PTR [ebp-4], -858993460 ; ccccccccH
  00334	89 4d fc	 mov	 DWORD PTR _this$[ebp], ecx

; 72   : 	m_mapColumnInfo.clear();

  00337	8b 4d fc	 mov	 ecx, DWORD PTR _this$[ebp]
  0033a	81 c1 94 00 00
	00		 add	 ecx, 148		; 00000094H
  00340	e8 00 00 00 00	 call	 ?clear@?$_Tree@V?$_Tmap_traits@HUMYLIST_COLUMN_INFO@@U?$less@H@std@@V?$allocator@U?$pair@$$CBHUMYLIST_COLUMN_INFO@@@std@@@3@$0A@@std@@@std@@QAEXXZ ; std::_Tree<std::_Tmap_traits<int,MYLIST_COLUMN_INFO,std::less<int>,std::allocator<std::pair<int const ,MYLIST_COLUMN_INFO> >,0> >::clear

; 73   : 	for( size_t idx = 0;idx <vecColumn.size();idx++ )

  00345	c7 45 f8 00 00
	00 00		 mov	 DWORD PTR _idx$189252[ebp], 0
  0034c	eb 09		 jmp	 SHORT $L189494
$L189495:
  0034e	8b 45 f8	 mov	 eax, DWORD PTR _idx$189252[ebp]
  00351	83 c0 01	 add	 eax, 1
  00354	89 45 f8	 mov	 DWORD PTR _idx$189252[ebp], eax
$L189494:
  00357	8b 4d 08	 mov	 ecx, DWORD PTR _vecColumn$[ebp]
  0035a	e8 00 00 00 00	 call	 ?size@?$vector@UMYLIST_COLUMN_INFO@@V?$allocator@UMYLIST_COLUMN_INFO@@@std@@@std@@QBEIXZ ; std::vector<MYLIST_COLUMN_INFO,std::allocator<MYLIST_COLUMN_INFO> >::size
  0035f	39 45 f8	 cmp	 DWORD PTR _idx$189252[ebp], eax
  00362	73 34		 jae	 SHORT $L189251

; 74   : 	{
; 75   : 		m_mapColumnInfo[vecColumn[idx].iColumnIndex] = vecColumn[idx];

  00364	8b 4d f8	 mov	 ecx, DWORD PTR _idx$189252[ebp]
  00367	51		 push	 ecx
  00368	8b 4d 08	 mov	 ecx, DWORD PTR _vecColumn$[ebp]
  0036b	e8 00 00 00 00	 call	 ??A?$vector@UMYLIST_COLUMN_INFO@@V?$allocator@UMYLIST_COLUMN_INFO@@@std@@@std@@QBEABUMYLIST_COLUMN_INFO@@I@Z ; std::vector<MYLIST_COLUMN_INFO,std::allocator<MYLIST_COLUMN_INFO> >::operator[]
  00370	50		 push	 eax
  00371	8b 55 f8	 mov	 edx, DWORD PTR _idx$189252[ebp]
  00374	52		 push	 edx
  00375	8b 4d 08	 mov	 ecx, DWORD PTR _vecColumn$[ebp]
  00378	e8 00 00 00 00	 call	 ??A?$vector@UMYLIST_COLUMN_INFO@@V?$allocator@UMYLIST_COLUMN_INFO@@@std@@@std@@QBEABUMYLIST_COLUMN_INFO@@I@Z ; std::vector<MYLIST_COLUMN_INFO,std::allocator<MYLIST_COLUMN_INFO> >::operator[]
  0037d	83 c0 20	 add	 eax, 32			; 00000020H
  00380	50		 push	 eax
  00381	8b 4d fc	 mov	 ecx, DWORD PTR _this$[ebp]
  00384	81 c1 94 00 00
	00		 add	 ecx, 148		; 00000094H
  0038a	e8 00 00 00 00	 call	 ??A?$map@HUMYLIST_COLUMN_INFO@@U?$less@H@std@@V?$allocator@U?$pair@$$CBHUMYLIST_COLUMN_INFO@@@std@@@3@@std@@QAEAAUMYLIST_COLUMN_INFO@@ABH@Z ; std::map<int,MYLIST_COLUMN_INFO,std::less<int>,std::allocator<std::pair<int const ,MYLIST_COLUMN_INFO> > >::operator[]
  0038f	8b c8		 mov	 ecx, eax
  00391	e8 00 00 00 00	 call	 ??4MYLIST_COLUMN_INFO@@QAEAAU0@ABU0@@Z ; MYLIST_COLUMN_INFO::operator=

; 76   : 	}

  00396	eb b6		 jmp	 SHORT $L189495
$L189251:

; 77   : }

  00398	83 c4 08	 add	 esp, 8
  0039b	3b ec		 cmp	 ebp, esp
  0039d	e8 00 00 00 00	 call	 __RTC_CheckEsp
  003a2	8b e5		 mov	 esp, ebp
  003a4	5d		 pop	 ebp
  003a5	c2 04 00	 ret	 4
?SetColumnInfo@CMyListCtrl@@QAEXABV?$vector@UMYLIST_COLUMN_INFO@@V?$allocator@UMYLIST_COLUMN_INFO@@@std@@@std@@@Z ENDP ; CMyListCtrl::SetColumnInfo
_TEXT	ENDS
EXTRN	__imp_??4?$basic_string@DU?$char_traits@D@std@@V?$allocator@D@2@@std@@QAEAAV01@ABV01@@Z:NEAR
; Function compile flags: /Odt /RTCsu
; File d:\boxgit\playbox\playbox\dev\prj\playbox\src\gui\commoncontrol\mylistctrldata.h
;	COMDAT ??4MYLIST_COLUMN_INFO@@QAEAAU0@ABU0@@Z
_TEXT	SEGMENT
_this$ = -4						; size = 4
_columnInfo$ = 8					; size = 4
??4MYLIST_COLUMN_INFO@@QAEAAU0@ABU0@@Z PROC NEAR	; MYLIST_COLUMN_INFO::operator=, COMDAT
; _this$ = ecx

; 50   : 	{

  00000	55		 push	 ebp
  00001	8b ec		 mov	 ebp, esp
  00003	51		 push	 ecx
  00004	56		 push	 esi
  00005	c7 45 fc cc cc
	cc cc		 mov	 DWORD PTR [ebp-4], -858993460 ; ccccccccH
  0000c	89 4d fc	 mov	 DWORD PTR _this$[ebp], ecx

; 51   : 		strColumnName	= columnInfo.strColumnName;

  0000f	8b f4		 mov	 esi, esp
  00011	8b 45 08	 mov	 eax, DWORD PTR _columnInfo$[ebp]
  00014	50		 push	 eax
  00015	8b 4d fc	 mov	 ecx, DWORD PTR _this$[ebp]
  00018	ff 15 00 00 00
	00		 call	 DWORD PTR __imp_??4?$basic_string@DU?$char_traits@D@std@@V?$allocator@D@2@@std@@QAEAAV01@ABV01@@Z
  0001e	3b f4		 cmp	 esi, esp
  00020	e8 00 00 00 00	 call	 __RTC_CheckEsp

; 52   : 		enumColumnType	= columnInfo.enumColumnType;

  00025	8b 4d fc	 mov	 ecx, DWORD PTR _this$[ebp]
  00028	8b 55 08	 mov	 edx, DWORD PTR _columnInfo$[ebp]
  0002b	8b 42 1c	 mov	 eax, DWORD PTR [edx+28]
  0002e	89 41 1c	 mov	 DWORD PTR [ecx+28], eax

; 53   : 		iColumnIndex	= columnInfo.iColumnIndex;

  00031	8b 4d fc	 mov	 ecx, DWORD PTR _this$[ebp]
  00034	8b 55 08	 mov	 edx, DWORD PTR _columnInfo$[ebp]
  00037	8b 42 20	 mov	 eax, DWORD PTR [edx+32]
  0003a	89 41 20	 mov	 DWORD PTR [ecx+32], eax

; 54   : 		iColumnWidth	= columnInfo.iColumnWidth;

  0003d	8b 4d fc	 mov	 ecx, DWORD PTR _this$[ebp]
  00040	8b 55 08	 mov	 edx, DWORD PTR _columnInfo$[ebp]
  00043	8b 42 24	 mov	 eax, DWORD PTR [edx+36]
  00046	89 41 24	 mov	 DWORD PTR [ecx+36], eax

; 55   : 		bOperatorBtn	= columnInfo.bOperatorBtn;

  00049	8b 4d fc	 mov	 ecx, DWORD PTR _this$[ebp]
  0004c	8b 55 08	 mov	 edx, DWORD PTR _columnInfo$[ebp]
  0004f	8a 42 28	 mov	 al, BYTE PTR [edx+40]
  00052	88 41 28	 mov	 BYTE PTR [ecx+40], al

; 56   : 		ColumnImage		= columnInfo.ColumnImage;	

  00055	8b 4d 08	 mov	 ecx, DWORD PTR _columnInfo$[ebp]
  00058	83 c1 2c	 add	 ecx, 44			; 0000002cH
  0005b	8b 55 fc	 mov	 edx, DWORD PTR _this$[ebp]
  0005e	83 c2 2c	 add	 edx, 44			; 0000002cH
  00061	8b 01		 mov	 eax, DWORD PTR [ecx]
  00063	89 02		 mov	 DWORD PTR [edx], eax
  00065	8b 41 04	 mov	 eax, DWORD PTR [ecx+4]
  00068	89 42 04	 mov	 DWORD PTR [edx+4], eax
  0006b	8b 41 08	 mov	 eax, DWORD PTR [ecx+8]
  0006e	89 42 08	 mov	 DWORD PTR [edx+8], eax
  00071	8b 49 0c	 mov	 ecx, DWORD PTR [ecx+12]
  00074	89 4a 0c	 mov	 DWORD PTR [edx+12], ecx

; 57   : 		ColumnOperatorImage = columnInfo.ColumnOperatorImage;

  00077	8b 55 08	 mov	 edx, DWORD PTR _columnInfo$[ebp]
  0007a	83 c2 3c	 add	 edx, 60			; 0000003cH
  0007d	8b 45 fc	 mov	 eax, DWORD PTR _this$[ebp]
  00080	83 c0 3c	 add	 eax, 60			; 0000003cH
  00083	8b 0a		 mov	 ecx, DWORD PTR [edx]
  00085	89 08		 mov	 DWORD PTR [eax], ecx
  00087	8b 4a 04	 mov	 ecx, DWORD PTR [edx+4]
  0008a	89 48 04	 mov	 DWORD PTR [eax+4], ecx
  0008d	8b 4a 08	 mov	 ecx, DWORD PTR [edx+8]
  00090	89 48 08	 mov	 DWORD PTR [eax+8], ecx
  00093	8b 52 0c	 mov	 edx, DWORD PTR [edx+12]
  00096	89 50 0c	 mov	 DWORD PTR [eax+12], edx

; 58   : 		return *this;

  00099	8b 45 fc	 mov	 eax, DWORD PTR _this$[ebp]

; 59   : 	}

  0009c	5e		 pop	 esi
  0009d	83 c4 04	 add	 esp, 4
  000a0	3b ec		 cmp	 ebp, esp
  000a2	e8 00 00 00 00	 call	 __RTC_CheckEsp
  000a7	8b e5		 mov	 esp, ebp
  000a9	5d		 pop	 ebp
  000aa	c2 04 00	 ret	 4
??4MYLIST_COLUMN_INFO@@QAEAAU0@ABU0@@Z ENDP		; MYLIST_COLUMN_INFO::operator=
_TEXT	ENDS
PUBLIC	?SetColor@CMyListCtrl@@QAEXKKKKK@Z		; CMyListCtrl::SetColor
; Function compile flags: /Odt /RTCsu
; File d:\boxgit\playbox\playbox\dev\prj\playbox\src\gui\commoncontrol\mylistctrl.cpp
_TEXT	SEGMENT
_this$ = -4						; size = 4
_clrOddItemBK$ = 8					; size = 4
_clrEvenItemBK$ = 12					; size = 4
_clrNormalItemText$ = 16				; size = 4
_clrSelItemBK$ = 20					; size = 4
_clrSelItemText$ = 24					; size = 4
?SetColor@CMyListCtrl@@QAEXKKKKK@Z PROC NEAR		; CMyListCtrl::SetColor
; _this$ = ecx

; 80   : {

  003b0	55		 push	 ebp
  003b1	8b ec		 mov	 ebp, esp
  003b3	51		 push	 ecx
  003b4	c7 45 fc cc cc
	cc cc		 mov	 DWORD PTR [ebp-4], -858993460 ; ccccccccH
  003bb	89 4d fc	 mov	 DWORD PTR _this$[ebp], ecx

; 81   : 	m_clrOddItemBK		= clrOddItemBK;

  003be	8b 45 fc	 mov	 eax, DWORD PTR _this$[ebp]
  003c1	8b 4d 08	 mov	 ecx, DWORD PTR _clrOddItemBK$[ebp]
  003c4	89 48 58	 mov	 DWORD PTR [eax+88], ecx

; 82   : 	m_clrEvenItemBK		= clrEvenItemBK;

  003c7	8b 55 fc	 mov	 edx, DWORD PTR _this$[ebp]
  003ca	8b 45 0c	 mov	 eax, DWORD PTR _clrEvenItemBK$[ebp]
  003cd	89 42 5c	 mov	 DWORD PTR [edx+92], eax

; 83   : 	m_clrNormalItemText = clrNormalItemText;

  003d0	8b 4d fc	 mov	 ecx, DWORD PTR _this$[ebp]
  003d3	8b 55 10	 mov	 edx, DWORD PTR _clrNormalItemText$[ebp]
  003d6	89 51 60	 mov	 DWORD PTR [ecx+96], edx

; 84   : 	m_clrSelItemBK		= clrSelItemBK;

  003d9	8b 45 fc	 mov	 eax, DWORD PTR _this$[ebp]
  003dc	8b 4d 14	 mov	 ecx, DWORD PTR _clrSelItemBK$[ebp]
  003df	89 48 64	 mov	 DWORD PTR [eax+100], ecx

; 85   : 	m_clrSelItemText	= clrSelItemText;

  003e2	8b 55 fc	 mov	 edx, DWORD PTR _this$[ebp]
  003e5	8b 45 18	 mov	 eax, DWORD PTR _clrSelItemText$[ebp]
  003e8	89 42 68	 mov	 DWORD PTR [edx+104], eax

; 86   : }

  003eb	8b e5		 mov	 esp, ebp
  003ed	5d		 pop	 ebp
  003ee	c2 14 00	 ret	 20			; 00000014H
?SetColor@CMyListCtrl@@QAEXKKKKK@Z ENDP			; CMyListCtrl::SetColor
_TEXT	ENDS
PUBLIC	?SetScrollBitmap@CMyListCtrl@@QAEXPAVCDibBitmap@@0@Z ; CMyListCtrl::SetScrollBitmap
EXTRN	?GetWidth@CDibBitmap@@QAEHXZ:NEAR		; CDibBitmap::GetWidth
EXTRN	?GetHeight@CDibBitmap@@QAEHXZ:NEAR		; CDibBitmap::GetHeight
EXTRN	_CoolSB_SetMinThumbSize@12:NEAR
EXTRN	_CoolSB_SetSize@16:NEAR
; Function compile flags: /Odt /RTCsu
_TEXT	SEGMENT
_h$ = -12						; size = 4
_w$ = -8						; size = 4
_this$ = -4						; size = 4
_pBitmapVert$ = 8					; size = 4
_pBitmapHorz$ = 12					; size = 4
?SetScrollBitmap@CMyListCtrl@@QAEXPAVCDibBitmap@@0@Z PROC NEAR ; CMyListCtrl::SetScrollBitmap
; _this$ = ecx

; 89   : {

  00400	55		 push	 ebp
  00401	8b ec		 mov	 ebp, esp
  00403	83 ec 0c	 sub	 esp, 12			; 0000000cH
  00406	c7 45 f4 cc cc
	cc cc		 mov	 DWORD PTR [ebp-12], -858993460 ; ccccccccH
  0040d	c7 45 f8 cc cc
	cc cc		 mov	 DWORD PTR [ebp-8], -858993460 ; ccccccccH
  00414	c7 45 fc cc cc
	cc cc		 mov	 DWORD PTR [ebp-4], -858993460 ; ccccccccH
  0041b	89 4d fc	 mov	 DWORD PTR _this$[ebp], ecx

; 90   : 	m_pBitmapScrollHorz = pBitmapHorz;

  0041e	8b 45 fc	 mov	 eax, DWORD PTR _this$[ebp]
  00421	8b 4d 0c	 mov	 ecx, DWORD PTR _pBitmapHorz$[ebp]
  00424	89 48 70	 mov	 DWORD PTR [eax+112], ecx

; 91   : 	m_pBitmapScrollVert = pBitmapVert;

  00427	8b 55 fc	 mov	 edx, DWORD PTR _this$[ebp]
  0042a	8b 45 08	 mov	 eax, DWORD PTR _pBitmapVert$[ebp]
  0042d	89 42 6c	 mov	 DWORD PTR [edx+108], eax

; 92   : 
; 93   : 	int w,h;
; 94   : 	w = h = 15;

  00430	c7 45 f4 0f 00
	00 00		 mov	 DWORD PTR _h$[ebp], 15	; 0000000fH
  00437	8b 4d f4	 mov	 ecx, DWORD PTR _h$[ebp]
  0043a	89 4d f8	 mov	 DWORD PTR _w$[ebp], ecx

; 95   : 	if( m_pBitmapScrollHorz && m_pBitmapScrollVert )

  0043d	8b 55 fc	 mov	 edx, DWORD PTR _this$[ebp]
  00440	83 7a 70 00	 cmp	 DWORD PTR [edx+112], 0
  00444	74 35		 je	 SHORT $L189512
  00446	8b 45 fc	 mov	 eax, DWORD PTR _this$[ebp]
  00449	83 78 6c 00	 cmp	 DWORD PTR [eax+108], 0
  0044d	74 2c		 je	 SHORT $L189512

; 96   : 	{
; 97   : 		h = m_pBitmapScrollVert->GetHeight() / 3;

  0044f	8b 4d fc	 mov	 ecx, DWORD PTR _this$[ebp]
  00452	8b 49 6c	 mov	 ecx, DWORD PTR [ecx+108]
  00455	e8 00 00 00 00	 call	 ?GetHeight@CDibBitmap@@QAEHXZ ; CDibBitmap::GetHeight
  0045a	99		 cdq
  0045b	b9 03 00 00 00	 mov	 ecx, 3
  00460	f7 f9		 idiv	 ecx
  00462	89 45 f4	 mov	 DWORD PTR _h$[ebp], eax

; 98   : 		w = m_pBitmapScrollVert->GetWidth() / 6;

  00465	8b 55 fc	 mov	 edx, DWORD PTR _this$[ebp]
  00468	8b 4a 6c	 mov	 ecx, DWORD PTR [edx+108]
  0046b	e8 00 00 00 00	 call	 ?GetWidth@CDibBitmap@@QAEHXZ ; CDibBitmap::GetWidth
  00470	99		 cdq
  00471	b9 06 00 00 00	 mov	 ecx, 6
  00476	f7 f9		 idiv	 ecx
  00478	89 45 f8	 mov	 DWORD PTR _w$[ebp], eax
$L189512:

; 99   : 	}
; 100  : 	//InitializeCoolSB(m_hWnd);
; 101  : 	//CoolSB_SetStyle(m_hWnd, SB_BOTH, CSBS_HOTTRACKED);
; 102  : 	CoolSB_SetSize(m_hWnd, SB_BOTH, h, w);

  0047b	8b 55 f8	 mov	 edx, DWORD PTR _w$[ebp]
  0047e	52		 push	 edx
  0047f	8b 45 f4	 mov	 eax, DWORD PTR _h$[ebp]
  00482	50		 push	 eax
  00483	6a 03		 push	 3
  00485	8b 4d fc	 mov	 ecx, DWORD PTR _this$[ebp]
  00488	8b 51 20	 mov	 edx, DWORD PTR [ecx+32]
  0048b	52		 push	 edx
  0048c	e8 00 00 00 00	 call	 _CoolSB_SetSize@16

; 103  : 	::CoolSB_SetMinThumbSize(m_hWnd, SB_BOTH, 8);

  00491	6a 08		 push	 8
  00493	6a 03		 push	 3
  00495	8b 45 fc	 mov	 eax, DWORD PTR _this$[ebp]
  00498	8b 48 20	 mov	 ecx, DWORD PTR [eax+32]
  0049b	51		 push	 ecx
  0049c	e8 00 00 00 00	 call	 _CoolSB_SetMinThumbSize@12

; 104  : 
; 105  : }

  004a1	83 c4 0c	 add	 esp, 12			; 0000000cH
  004a4	3b ec		 cmp	 ebp, esp
  004a6	e8 00 00 00 00	 call	 __RTC_CheckEsp
  004ab	8b e5		 mov	 esp, ebp
  004ad	5d		 pop	 ebp
  004ae	c2 08 00	 ret	 8
?SetScrollBitmap@CMyListCtrl@@QAEXPAVCDibBitmap@@0@Z ENDP ; CMyListCtrl::SetScrollBitmap
_TEXT	ENDS
EXTRN	__imp__SendMessageA@16:NEAR
EXTRN	??0CRect@@QAE@HHHH@Z:NEAR			; CRect::CRect
EXTRN	?GetParent@CWnd@@QBEPAV1@XZ:NEAR		; CWnd::GetParent
; Function compile flags: /Odt /RTCsu
_TEXT	SEGMENT
$T191826 = -36						; size = 16
$T191825 = -20						; size = 16
_this$ = -4						; size = 4
_iID$ = 8						; size = 4
_pParent$ = 12						; size = 4
?CreateControl@CMyListCtrl@@UAEXHPAVCWnd@@@Z PROC NEAR	; CMyListCtrl::CreateControl
; _this$ = ecx

; 108  : {

  004c0	55		 push	 ebp
  004c1	8b ec		 mov	 ebp, esp
  004c3	83 ec 24	 sub	 esp, 36			; 00000024H
  004c6	56		 push	 esi
  004c7	b8 cc cc cc cc	 mov	 eax, -858993460		; ccccccccH
  004cc	89 45 dc	 mov	 DWORD PTR [ebp-36], eax
  004cf	89 45 e0	 mov	 DWORD PTR [ebp-32], eax
  004d2	89 45 e4	 mov	 DWORD PTR [ebp-28], eax
  004d5	89 45 e8	 mov	 DWORD PTR [ebp-24], eax
  004d8	89 45 ec	 mov	 DWORD PTR [ebp-20], eax
  004db	89 45 f0	 mov	 DWORD PTR [ebp-16], eax
  004de	89 45 f4	 mov	 DWORD PTR [ebp-12], eax
  004e1	89 45 f8	 mov	 DWORD PTR [ebp-8], eax
  004e4	89 45 fc	 mov	 DWORD PTR [ebp-4], eax
  004e7	89 4d fc	 mov	 DWORD PTR _this$[ebp], ecx

; 109  : 	Create(WS_CHILD|WS_VISIBLE|WS_VSCROLL|LVS_SHOWSELALWAYS|LVS_REPORT|LVS_OWNERDRAWFIXED,CRect(0,0,0,0),pParent,iID);

  004ea	8b f4		 mov	 esi, esp
  004ec	8b 45 08	 mov	 eax, DWORD PTR _iID$[ebp]
  004ef	50		 push	 eax
  004f0	8b 4d 0c	 mov	 ecx, DWORD PTR _pParent$[ebp]
  004f3	51		 push	 ecx
  004f4	6a 00		 push	 0
  004f6	6a 00		 push	 0
  004f8	6a 00		 push	 0
  004fa	6a 00		 push	 0
  004fc	8d 4d ec	 lea	 ecx, DWORD PTR $T191825[ebp]
  004ff	e8 00 00 00 00	 call	 ??0CRect@@QAE@HHHH@Z	; CRect::CRect
  00504	50		 push	 eax
  00505	68 09 04 20 50	 push	 1344275465		; 50200409H
  0050a	8b 55 fc	 mov	 edx, DWORD PTR _this$[ebp]
  0050d	8b 02		 mov	 eax, DWORD PTR [edx]
  0050f	8b 4d fc	 mov	 ecx, DWORD PTR _this$[ebp]
  00512	ff 90 38 01 00
	00		 call	 DWORD PTR [eax+312]
  00518	3b f4		 cmp	 esi, esp
  0051a	e8 00 00 00 00	 call	 __RTC_CheckEsp

; 110  : 	ListView_SetExtendedListViewStyleEx ( m_hWnd,LVS_EX_FULLROWSELECT, LVS_EX_FULLROWSELECT );

  0051f	8b f4		 mov	 esi, esp
  00521	6a 20		 push	 32			; 00000020H
  00523	6a 20		 push	 32			; 00000020H
  00525	68 36 10 00 00	 push	 4150			; 00001036H
  0052a	8b 4d fc	 mov	 ecx, DWORD PTR _this$[ebp]
  0052d	8b 51 20	 mov	 edx, DWORD PTR [ecx+32]
  00530	52		 push	 edx
  00531	ff 15 00 00 00
	00		 call	 DWORD PTR __imp__SendMessageA@16
  00537	3b f4		 cmp	 esi, esp
  00539	e8 00 00 00 00	 call	 __RTC_CheckEsp

; 111  : 
; 112  : 	m_tooltip.m_pClientWnd = this->GetParent();//AfxGetMainWindow();

  0053e	8b 4d fc	 mov	 ecx, DWORD PTR _this$[ebp]
  00541	e8 00 00 00 00	 call	 ?GetParent@CWnd@@QBEPAV1@XZ ; CWnd::GetParent
  00546	8b 4d fc	 mov	 ecx, DWORD PTR _this$[ebp]
  00549	89 81 00 01 00
	00		 mov	 DWORD PTR [ecx+256], eax

; 113  : 	m_tooltip.m_hParent	 = m_hWnd;

  0054f	8b 55 fc	 mov	 edx, DWORD PTR _this$[ebp]
  00552	8b 45 fc	 mov	 eax, DWORD PTR _this$[ebp]
  00555	8b 48 20	 mov	 ecx, DWORD PTR [eax+32]
  00558	89 8a 28 01 00
	00		 mov	 DWORD PTR [edx+296], ecx

; 114  : 	m_tooltip.CreateEx(WS_EX_TOOLWINDOW|WS_EX_TOPMOST,TOOLTIPS_CLASS,"",TTS_ALWAYSTIP,CRect(0,0,0,0),NULL,0);	

  0055e	8b f4		 mov	 esi, esp
  00560	6a 00		 push	 0
  00562	6a 00		 push	 0
  00564	6a 00		 push	 0
  00566	6a 00		 push	 0
  00568	6a 00		 push	 0
  0056a	6a 00		 push	 0
  0056c	6a 00		 push	 0
  0056e	8d 4d dc	 lea	 ecx, DWORD PTR $T191826[ebp]
  00571	e8 00 00 00 00	 call	 ??0CRect@@QAE@HHHH@Z	; CRect::CRect
  00576	50		 push	 eax
  00577	6a 01		 push	 1
  00579	68 00 00 00 00	 push	 OFFSET FLAT:$SG189521
  0057e	68 00 00 00 00	 push	 OFFSET FLAT:$SG189522
  00583	68 88 00 00 00	 push	 136			; 00000088H
  00588	8b 4d fc	 mov	 ecx, DWORD PTR _this$[ebp]
  0058b	81 c1 a0 00 00
	00		 add	 ecx, 160		; 000000a0H
  00591	8b 55 fc	 mov	 edx, DWORD PTR _this$[ebp]
  00594	8b 82 a0 00 00
	00		 mov	 eax, DWORD PTR [edx+160]
  0059a	ff 50 60	 call	 DWORD PTR [eax+96]
  0059d	3b f4		 cmp	 esi, esp
  0059f	e8 00 00 00 00	 call	 __RTC_CheckEsp

; 115  : 	m_tooltip.m_clrBK = RGB(255, 255, 225);

  005a4	8b 4d fc	 mov	 ecx, DWORD PTR _this$[ebp]
  005a7	c7 81 fc 00 00
	00 ff ff e1 00	 mov	 DWORD PTR [ecx+252], 14811135 ; 00e1ffffH

; 116  : }

  005b1	5e		 pop	 esi
  005b2	83 c4 24	 add	 esp, 36			; 00000024H
  005b5	3b ec		 cmp	 ebp, esp
  005b7	e8 00 00 00 00	 call	 __RTC_CheckEsp
  005bc	8b e5		 mov	 esp, ebp
  005be	5d		 pop	 ebp
  005bf	c2 08 00	 ret	 8
?CreateControl@CMyListCtrl@@UAEXHPAVCWnd@@@Z ENDP	; CMyListCtrl::CreateControl
_TEXT	ENDS
PUBLIC	??9const_iterator@?$_Tree@V?$_Tmap_traits@HUMYLIST_COLUMN_INFO@@U?$less@H@std@@V?$allocator@U?$pair@$$CBHUMYLIST_COLUMN_INFO@@@std@@@3@$0A@@std@@@std@@QBE_NABV012@@Z ; std::_Tree<std::_Tmap_traits<int,MYLIST_COLUMN_INFO,std::less<int>,std::allocator<std::pair<int const ,MYLIST_COLUMN_INFO> >,0> >::const_iterator::operator!=
PUBLIC	?begin@?$_Tree@V?$_Tmap_traits@HUMYLIST_COLUMN_INFO@@U?$less@H@std@@V?$allocator@U?$pair@$$CBHUMYLIST_COLUMN_INFO@@@std@@@3@$0A@@std@@@std@@QAE?AViterator@12@XZ ; std::_Tree<std::_Tmap_traits<int,MYLIST_COLUMN_INFO,std::less<int>,std::allocator<std::pair<int const ,MYLIST_COLUMN_INFO> >,0> >::begin
PUBLIC	?end@?$_Tree@V?$_Tmap_traits@HUMYLIST_COLUMN_INFO@@U?$less@H@std@@V?$allocator@U?$pair@$$CBHUMYLIST_COLUMN_INFO@@@std@@@3@$0A@@std@@@std@@QAE?AViterator@12@XZ ; std::_Tree<std::_Tmap_traits<int,MYLIST_COLUMN_INFO,std::less<int>,std::allocator<std::pair<int const ,MYLIST_COLUMN_INFO> >,0> >::end
PUBLIC	??Citerator@?$_Tree@V?$_Tmap_traits@HUMYLIST_COLUMN_INFO@@U?$less@H@std@@V?$allocator@U?$pair@$$CBHUMYLIST_COLUMN_INFO@@@std@@@3@$0A@@std@@@std@@QBEPAU?$pair@$$CBHUMYLIST_COLUMN_INFO@@@2@XZ ; std::_Tree<std::_Tmap_traits<int,MYLIST_COLUMN_INFO,std::less<int>,std::allocator<std::pair<int const ,MYLIST_COLUMN_INFO> >,0> >::iterator::operator->
PUBLIC	??Eiterator@?$_Tree@V?$_Tmap_traits@HUMYLIST_COLUMN_INFO@@U?$less@H@std@@V?$allocator@U?$pair@$$CBHUMYLIST_COLUMN_INFO@@@std@@@3@$0A@@std@@@std@@QAE?AV012@H@Z ; std::_Tree<std::_Tmap_traits<int,MYLIST_COLUMN_INFO,std::less<int>,std::allocator<std::pair<int const ,MYLIST_COLUMN_INFO> >,0> >::iterator::operator++
EXTRN	?InsertColumn@CListCtrl@@QAEHHPBUtagLVCOLUMNA@@@Z:NEAR ; CListCtrl::InsertColumn
EXTRN	?InsertColumn@CListCtrl@@QAEHHPBDHHH@Z:NEAR	; CListCtrl::InsertColumn
EXTRN	?AfxGetUIManager@@YAPAVIUIManager@@XZ:NEAR	; AfxGetUIManager
EXTRN	?OnCreate@CWnd@@IAEHPAUtagCREATESTRUCTA@@@Z:NEAR ; CWnd::OnCreate
EXTRN	@_RTC_CheckStackVars@8:NEAR
EXTRN	__imp_?c_str@?$basic_string@DU?$char_traits@D@std@@V?$allocator@D@2@@std@@QBEPBDXZ:NEAR
; Function compile flags: /Odt /RTCsu
_TEXT	SEGMENT
tv154 = -80						; size = 4
tv149 = -76						; size = 4
tv159 = -72						; size = 4
$T191829 = -68						; size = 4
$T191828 = -64						; size = 4
_lvColumn$189648 = -56					; size = 32
_columnInfo$189623 = -20				; size = 4
_it$189616 = -12					; size = 4
_this$ = -4						; size = 4
_lp$ = 8						; size = 4
?OnCreate@CMyListCtrl@@IAEHPAUtagCREATESTRUCTA@@@Z PROC NEAR ; CMyListCtrl::OnCreate
; _this$ = ecx

; 119  : {

  005d0	55		 push	 ebp
  005d1	8b ec		 mov	 ebp, esp
  005d3	83 ec 50	 sub	 esp, 80			; 00000050H
  005d6	56		 push	 esi
  005d7	57		 push	 edi
  005d8	51		 push	 ecx
  005d9	8d 7d b0	 lea	 edi, DWORD PTR [ebp-80]
  005dc	b9 14 00 00 00	 mov	 ecx, 20			; 00000014H
  005e1	b8 cc cc cc cc	 mov	 eax, -858993460		; ccccccccH
  005e6	f3 ab		 rep stosd
  005e8	59		 pop	 ecx
  005e9	89 4d fc	 mov	 DWORD PTR _this$[ebp], ecx

; 120  : 	InitColumnInfo();

  005ec	8b 45 fc	 mov	 eax, DWORD PTR _this$[ebp]
  005ef	8b 10		 mov	 edx, DWORD PTR [eax]
  005f1	8b f4		 mov	 esi, esp
  005f3	8b 4d fc	 mov	 ecx, DWORD PTR _this$[ebp]
  005f6	ff 92 54 01 00
	00		 call	 DWORD PTR [edx+340]
  005fc	3b f4		 cmp	 esi, esp
  005fe	e8 00 00 00 00	 call	 __RTC_CheckEsp

; 121  : 	LoadSkin();

  00603	8b 4d fc	 mov	 ecx, DWORD PTR _this$[ebp]
  00606	83 c1 54	 add	 ecx, 84			; 00000054H
  00609	8b 45 fc	 mov	 eax, DWORD PTR _this$[ebp]
  0060c	8b 50 54	 mov	 edx, DWORD PTR [eax+84]
  0060f	8b f4		 mov	 esi, esp
  00611	ff 52 04	 call	 DWORD PTR [edx+4]
  00614	3b f4		 cmp	 esi, esp
  00616	e8 00 00 00 00	 call	 __RTC_CheckEsp

; 122  : 
; 123  : 	if( __super::OnCreate(lp) == -1 )

  0061b	8b 45 08	 mov	 eax, DWORD PTR _lp$[ebp]
  0061e	50		 push	 eax
  0061f	8b 4d fc	 mov	 ecx, DWORD PTR _this$[ebp]
  00622	e8 00 00 00 00	 call	 ?OnCreate@CWnd@@IAEHPAUtagCREATESTRUCTA@@@Z ; CWnd::OnCreate
  00627	83 f8 ff	 cmp	 eax, -1
  0062a	75 08		 jne	 SHORT $L189533

; 124  : 	{
; 125  : 		return -1;

  0062c	83 c8 ff	 or	 eax, -1
  0062f	e9 29 01 00 00	 jmp	 $L189532
$L189533:

; 126  : 	}
; 127  : 
; 128  : 	for(map<int,MYLIST_COLUMN_INFO>::iterator it = m_mapColumnInfo.begin();

  00634	8d 4d f4	 lea	 ecx, DWORD PTR _it$189616[ebp]
  00637	51		 push	 ecx
  00638	8b 4d fc	 mov	 ecx, DWORD PTR _this$[ebp]
  0063b	81 c1 94 00 00
	00		 add	 ecx, 148		; 00000094H
  00641	e8 00 00 00 00	 call	 ?begin@?$_Tree@V?$_Tmap_traits@HUMYLIST_COLUMN_INFO@@U?$less@H@std@@V?$allocator@U?$pair@$$CBHUMYLIST_COLUMN_INFO@@@std@@@3@$0A@@std@@@std@@QAE?AViterator@12@XZ ; std::_Tree<std::_Tmap_traits<int,MYLIST_COLUMN_INFO,std::less<int>,std::allocator<std::pair<int const ,MYLIST_COLUMN_INFO> >,0> >::begin

; 129  : 		it != m_mapColumnInfo.end();

  00646	eb 0e		 jmp	 SHORT $L189620
$L189621:

; 130  : 		it++)

  00648	6a 00		 push	 0
  0064a	8d 55 c0	 lea	 edx, DWORD PTR $T191828[ebp]
  0064d	52		 push	 edx
  0064e	8d 4d f4	 lea	 ecx, DWORD PTR _it$189616[ebp]
  00651	e8 00 00 00 00	 call	 ??Eiterator@?$_Tree@V?$_Tmap_traits@HUMYLIST_COLUMN_INFO@@U?$less@H@std@@V?$allocator@U?$pair@$$CBHUMYLIST_COLUMN_INFO@@@std@@@3@$0A@@std@@@std@@QAE?AV012@H@Z ; std::_Tree<std::_Tmap_traits<int,MYLIST_COLUMN_INFO,std::less<int>,std::allocator<std::pair<int const ,MYLIST_COLUMN_INFO> >,0> >::iterator::operator++
$L189620:
  00656	8d 45 bc	 lea	 eax, DWORD PTR $T191829[ebp]
  00659	50		 push	 eax
  0065a	8b 4d fc	 mov	 ecx, DWORD PTR _this$[ebp]
  0065d	81 c1 94 00 00
	00		 add	 ecx, 148		; 00000094H
  00663	e8 00 00 00 00	 call	 ?end@?$_Tree@V?$_Tmap_traits@HUMYLIST_COLUMN_INFO@@U?$less@H@std@@V?$allocator@U?$pair@$$CBHUMYLIST_COLUMN_INFO@@@std@@@3@$0A@@std@@@std@@QAE?AViterator@12@XZ ; std::_Tree<std::_Tmap_traits<int,MYLIST_COLUMN_INFO,std::less<int>,std::allocator<std::pair<int const ,MYLIST_COLUMN_INFO> >,0> >::end
  00668	50		 push	 eax
  00669	8d 4d f4	 lea	 ecx, DWORD PTR _it$189616[ebp]
  0066c	e8 00 00 00 00	 call	 ??9const_iterator@?$_Tree@V?$_Tmap_traits@HUMYLIST_COLUMN_INFO@@U?$less@H@std@@V?$allocator@U?$pair@$$CBHUMYLIST_COLUMN_INFO@@@std@@@3@$0A@@std@@@std@@QBE_NABV012@@Z ; std::_Tree<std::_Tmap_traits<int,MYLIST_COLUMN_INFO,std::less<int>,std::allocator<std::pair<int const ,MYLIST_COLUMN_INFO> >,0> >::const_iterator::operator!=
  00671	0f b6 c8	 movzx	 ecx, al
  00674	85 c9		 test	 ecx, ecx
  00676	0f 84 8d 00 00
	00		 je	 $L189622

; 131  : 	{
; 132  : 		MYLIST_COLUMN_INFO& columnInfo = it->second;

  0067c	8d 4d f4	 lea	 ecx, DWORD PTR _it$189616[ebp]
  0067f	e8 00 00 00 00	 call	 ??Citerator@?$_Tree@V?$_Tmap_traits@HUMYLIST_COLUMN_INFO@@U?$less@H@std@@V?$allocator@U?$pair@$$CBHUMYLIST_COLUMN_INFO@@@std@@@3@$0A@@std@@@std@@QBEPAU?$pair@$$CBHUMYLIST_COLUMN_INFO@@@2@XZ ; std::_Tree<std::_Tmap_traits<int,MYLIST_COLUMN_INFO,std::less<int>,std::allocator<std::pair<int const ,MYLIST_COLUMN_INFO> >,0> >::iterator::operator->
  00684	83 c0 04	 add	 eax, 4
  00687	89 45 ec	 mov	 DWORD PTR _columnInfo$189623[ebp], eax

; 133  : 		if( columnInfo.enumColumnType == MYLIST_COLUMN_INFO::COLUMN_TYPE_IMAGE)

  0068a	8b 55 ec	 mov	 edx, DWORD PTR _columnInfo$189623[ebp]
  0068d	83 7a 1c 01	 cmp	 DWORD PTR [edx+28], 1
  00691	75 32		 jne	 SHORT $L189646

; 134  : 		{
; 135  : 			InsertColumn( columnInfo.iColumnIndex, columnInfo.strColumnName.c_str(), LVCFMT_IMAGE,columnInfo.iColumnWidth  );

  00693	6a ff		 push	 -1
  00695	8b 45 ec	 mov	 eax, DWORD PTR _columnInfo$189623[ebp]
  00698	8b 48 24	 mov	 ecx, DWORD PTR [eax+36]
  0069b	51		 push	 ecx
  0069c	68 00 08 00 00	 push	 2048			; 00000800H
  006a1	8b f4		 mov	 esi, esp
  006a3	8b 4d ec	 mov	 ecx, DWORD PTR _columnInfo$189623[ebp]
  006a6	ff 15 00 00 00
	00		 call	 DWORD PTR __imp_?c_str@?$basic_string@DU?$char_traits@D@std@@V?$allocator@D@2@@std@@QBEPBDXZ
  006ac	3b f4		 cmp	 esi, esp
  006ae	e8 00 00 00 00	 call	 __RTC_CheckEsp
  006b3	50		 push	 eax
  006b4	8b 55 ec	 mov	 edx, DWORD PTR _columnInfo$189623[ebp]
  006b7	8b 42 20	 mov	 eax, DWORD PTR [edx+32]
  006ba	50		 push	 eax
  006bb	8b 4d fc	 mov	 ecx, DWORD PTR _this$[ebp]
  006be	e8 00 00 00 00	 call	 ?InsertColumn@CListCtrl@@QAEHHPBDHHH@Z ; CListCtrl::InsertColumn

; 136  : 		}
; 137  : 		else

  006c3	eb 3f		 jmp	 SHORT $L189647
$L189646:

; 138  : 		{
; 139  : 			LVCOLUMN lvColumn;
; 140  : 			lvColumn.mask		= LVCF_IMAGE | LVCF_TEXT | LVCF_FMT | LVCF_WIDTH;

  006c5	c7 45 c8 17 00
	00 00		 mov	 DWORD PTR _lvColumn$189648[ebp], 23 ; 00000017H

; 141  : 			lvColumn.fmt		= LVCFMT_LEFT; //LVCFMT_IMAGE | LVCF_TEXT;

  006cc	c7 45 cc 00 00
	00 00		 mov	 DWORD PTR _lvColumn$189648[ebp+4], 0

; 142  : 			//lvColumn.iSubItem	= columnInfo.iColumnIndex;
; 143  : 			lvColumn.cx			= columnInfo.iColumnWidth;

  006d3	8b 4d ec	 mov	 ecx, DWORD PTR _columnInfo$189623[ebp]
  006d6	8b 51 24	 mov	 edx, DWORD PTR [ecx+36]
  006d9	89 55 d0	 mov	 DWORD PTR _lvColumn$189648[ebp+8], edx

; 144  : 			lvColumn.pszText	= (char*) columnInfo.strColumnName.c_str();

  006dc	8b f4		 mov	 esi, esp
  006de	8b 4d ec	 mov	 ecx, DWORD PTR _columnInfo$189623[ebp]
  006e1	ff 15 00 00 00
	00		 call	 DWORD PTR __imp_?c_str@?$basic_string@DU?$char_traits@D@std@@V?$allocator@D@2@@std@@QBEPBDXZ
  006e7	3b f4		 cmp	 esi, esp
  006e9	e8 00 00 00 00	 call	 __RTC_CheckEsp
  006ee	89 45 d4	 mov	 DWORD PTR _lvColumn$189648[ebp+12], eax

; 145  : 
; 146  : 			InsertColumn( columnInfo.iColumnIndex,&lvColumn);

  006f1	8d 45 c8	 lea	 eax, DWORD PTR _lvColumn$189648[ebp]
  006f4	50		 push	 eax
  006f5	8b 4d ec	 mov	 ecx, DWORD PTR _columnInfo$189623[ebp]
  006f8	8b 51 20	 mov	 edx, DWORD PTR [ecx+32]
  006fb	52		 push	 edx
  006fc	8b 4d fc	 mov	 ecx, DWORD PTR _this$[ebp]
  006ff	e8 00 00 00 00	 call	 ?InsertColumn@CListCtrl@@QAEHHPBUtagLVCOLUMNA@@@Z ; CListCtrl::InsertColumn
$L189647:

; 147  : 		}
; 148  : 	}

  00704	e9 3f ff ff ff	 jmp	 $L189621
$L189622:

; 149  : 	AfxGetUIManager()->UIGetSkinMgr()->AddSkinWnd( this );

  00709	83 7d fc 00	 cmp	 DWORD PTR _this$[ebp], 0
  0070d	74 0b		 je	 SHORT $L191830
  0070f	8b 45 fc	 mov	 eax, DWORD PTR _this$[ebp]
  00712	83 c0 54	 add	 eax, 84			; 00000054H
  00715	89 45 b8	 mov	 DWORD PTR tv159[ebp], eax
  00718	eb 07		 jmp	 SHORT $L191831
$L191830:
  0071a	c7 45 b8 00 00
	00 00		 mov	 DWORD PTR tv159[ebp], 0
$L191831:
  00721	e8 00 00 00 00	 call	 ?AfxGetUIManager@@YAPAVIUIManager@@XZ ; AfxGetUIManager
  00726	89 45 b4	 mov	 DWORD PTR tv149[ebp], eax
  00729	8b f4		 mov	 esi, esp
  0072b	8b 4d b4	 mov	 ecx, DWORD PTR tv149[ebp]
  0072e	8b 11		 mov	 edx, DWORD PTR [ecx]
  00730	8b 4d b4	 mov	 ecx, DWORD PTR tv149[ebp]
  00733	ff 52 28	 call	 DWORD PTR [edx+40]
  00736	3b f4		 cmp	 esi, esp
  00738	e8 00 00 00 00	 call	 __RTC_CheckEsp
  0073d	89 45 b0	 mov	 DWORD PTR tv154[ebp], eax
  00740	8b f4		 mov	 esi, esp
  00742	8b 45 b8	 mov	 eax, DWORD PTR tv159[ebp]
  00745	50		 push	 eax
  00746	8b 4d b0	 mov	 ecx, DWORD PTR tv154[ebp]
  00749	8b 11		 mov	 edx, DWORD PTR [ecx]
  0074b	8b 4d b0	 mov	 ecx, DWORD PTR tv154[ebp]
  0074e	ff 52 14	 call	 DWORD PTR [edx+20]
  00751	3b f4		 cmp	 esi, esp
  00753	e8 00 00 00 00	 call	 __RTC_CheckEsp

; 150  : 	return 1;

  00758	b8 01 00 00 00	 mov	 eax, 1
$L189532:

; 151  : }

  0075d	52		 push	 edx
  0075e	8b cd		 mov	 ecx, ebp
  00760	50		 push	 eax
  00761	8d 15 00 00 00
	00		 lea	 edx, DWORD PTR $L191835
  00767	e8 00 00 00 00	 call	 @_RTC_CheckStackVars@8
  0076c	58		 pop	 eax
  0076d	5a		 pop	 edx
  0076e	5f		 pop	 edi
  0076f	5e		 pop	 esi
  00770	83 c4 50	 add	 esp, 80			; 00000050H
  00773	3b ec		 cmp	 ebp, esp
  00775	e8 00 00 00 00	 call	 __RTC_CheckEsp
  0077a	8b e5		 mov	 esp, ebp
  0077c	5d		 pop	 ebp
  0077d	c2 04 00	 ret	 4
$L191835:
  00780	02 00 00 00	 DD	 2
  00784	00 00 00 00	 DD	 $L191834
$L191834:
  00788	f4 ff ff ff	 DD	 -12			; fffffff4H
  0078c	04 00 00 00	 DD	 4
  00790	00 00 00 00	 DD	 $L191832
  00794	c8 ff ff ff	 DD	 -56			; ffffffc8H
  00798	20 00 00 00	 DD	 32			; 00000020H
  0079c	00 00 00 00	 DD	 $L191833
$L191833:
  007a0	6c		 DB	 108			; 0000006cH
  007a1	76		 DB	 118			; 00000076H
  007a2	43		 DB	 67			; 00000043H
  007a3	6f		 DB	 111			; 0000006fH
  007a4	6c		 DB	 108			; 0000006cH
  007a5	75		 DB	 117			; 00000075H
  007a6	6d		 DB	 109			; 0000006dH
  007a7	6e		 DB	 110			; 0000006eH
  007a8	00		 DB	 0
$L191832:
  007a9	69		 DB	 105			; 00000069H
  007aa	74		 DB	 116			; 00000074H
  007ab	00		 DB	 0
?OnCreate@CMyListCtrl@@IAEHPAUtagCREATESTRUCTA@@@Z ENDP	; CMyListCtrl::OnCreate
_TEXT	ENDS
PUBLIC	?size@?$_Tree@V?$_Tmap_traits@HUMYLIST_COLUMN_INFO@@U?$less@H@std@@V?$allocator@U?$pair@$$CBHUMYLIST_COLUMN_INFO@@@std@@@3@$0A@@std@@@std@@QBEIXZ ; std::_Tree<std::_Tmap_traits<int,MYLIST_COLUMN_INFO,std::less<int>,std::allocator<std::pair<int const ,MYLIST_COLUMN_INFO> >,0> >::size
EXTRN	?OnPaint@CWnd@@IAEXXZ:NEAR			; CWnd::OnPaint
EXTRN	??0CRect@@QAE@XZ:NEAR				; CRect::CRect
EXTRN	??BCRect@@QAEPAUtagRECT@@XZ:NEAR		; CRect::operator tagRECT *
EXTRN	_InitializeCoolSB@4:NEAR
EXTRN	?GetClientRect@CWnd@@QBEXPAUtagRECT@@@Z:NEAR	; CWnd::GetClientRect
EXTRN	_CoolSB_SetStyle@12:NEAR
EXTRN	?GetUpdateRect@CWnd@@QAEHPAUtagRECT@@H@Z:NEAR	; CWnd::GetUpdateRect
EXTRN	?InvalidateRect@CWnd@@QAEXPBUtagRECT@@H@Z:NEAR	; CWnd::InvalidateRect
EXTRN	?GetColumnWidth@CListCtrl@@QBEHH@Z:NEAR		; CListCtrl::GetColumnWidth
; Function compile flags: /Odt /RTCsu
_TEXT	SEGMENT
_i$189661 = -68						; size = 4
_width$ = -64						; size = 4
_rectClip$ = -56					; size = 16
_rectClient$ = -32					; size = 16
_h$189655 = -12						; size = 4
_w$189654 = -8						; size = 4
_this$ = -4						; size = 4
?OnPaint@CMyListCtrl@@IAEXXZ PROC NEAR			; CMyListCtrl::OnPaint
; _this$ = ecx

; 154  : {

  007b0	55		 push	 ebp
  007b1	8b ec		 mov	 ebp, esp
  007b3	83 ec 44	 sub	 esp, 68			; 00000044H
  007b6	57		 push	 edi
  007b7	51		 push	 ecx
  007b8	8d 7d bc	 lea	 edi, DWORD PTR [ebp-68]
  007bb	b9 11 00 00 00	 mov	 ecx, 17			; 00000011H
  007c0	b8 cc cc cc cc	 mov	 eax, -858993460		; ccccccccH
  007c5	f3 ab		 rep stosd
  007c7	59		 pop	 ecx
  007c8	89 4d fc	 mov	 DWORD PTR _this$[ebp], ecx

; 155  : 	if(!m_bInit )

  007cb	8b 45 fc	 mov	 eax, DWORD PTR _this$[ebp]
  007ce	0f b6 88 38 01
	00 00		 movzx	 ecx, BYTE PTR [eax+312]
  007d5	85 c9		 test	 ecx, ecx
  007d7	0f 85 97 00 00
	00		 jne	 $L189653

; 156  : 	{
; 157  : 		int w,h;
; 158  : 		w = h = 15;

  007dd	c7 45 f4 0f 00
	00 00		 mov	 DWORD PTR _h$189655[ebp], 15 ; 0000000fH
  007e4	8b 55 f4	 mov	 edx, DWORD PTR _h$189655[ebp]
  007e7	89 55 f8	 mov	 DWORD PTR _w$189654[ebp], edx

; 159  : 
; 160  : 		if( m_pBitmapScrollHorz && m_pBitmapScrollVert )

  007ea	8b 45 fc	 mov	 eax, DWORD PTR _this$[ebp]
  007ed	83 78 70 00	 cmp	 DWORD PTR [eax+112], 0
  007f1	74 35		 je	 SHORT $L189656
  007f3	8b 4d fc	 mov	 ecx, DWORD PTR _this$[ebp]
  007f6	83 79 6c 00	 cmp	 DWORD PTR [ecx+108], 0
  007fa	74 2c		 je	 SHORT $L189656

; 161  : 		{
; 162  : 			h = m_pBitmapScrollVert->GetHeight() / 3;

  007fc	8b 55 fc	 mov	 edx, DWORD PTR _this$[ebp]
  007ff	8b 4a 6c	 mov	 ecx, DWORD PTR [edx+108]
  00802	e8 00 00 00 00	 call	 ?GetHeight@CDibBitmap@@QAEHXZ ; CDibBitmap::GetHeight
  00807	99		 cdq
  00808	b9 03 00 00 00	 mov	 ecx, 3
  0080d	f7 f9		 idiv	 ecx
  0080f	89 45 f4	 mov	 DWORD PTR _h$189655[ebp], eax

; 163  : 			w = m_pBitmapScrollVert->GetWidth() / 6;

  00812	8b 55 fc	 mov	 edx, DWORD PTR _this$[ebp]
  00815	8b 4a 6c	 mov	 ecx, DWORD PTR [edx+108]
  00818	e8 00 00 00 00	 call	 ?GetWidth@CDibBitmap@@QAEHXZ ; CDibBitmap::GetWidth
  0081d	99		 cdq
  0081e	b9 06 00 00 00	 mov	 ecx, 6
  00823	f7 f9		 idiv	 ecx
  00825	89 45 f8	 mov	 DWORD PTR _w$189654[ebp], eax
$L189656:

; 164  : 		}
; 165  : 
; 166  : 		InitializeCoolSB(m_hWnd);

  00828	8b 55 fc	 mov	 edx, DWORD PTR _this$[ebp]
  0082b	8b 42 20	 mov	 eax, DWORD PTR [edx+32]
  0082e	50		 push	 eax
  0082f	e8 00 00 00 00	 call	 _InitializeCoolSB@4

; 167  : 		CoolSB_SetStyle(m_hWnd, SB_BOTH, CSBS_HOTTRACKED);

  00834	6a 02		 push	 2
  00836	6a 03		 push	 3
  00838	8b 4d fc	 mov	 ecx, DWORD PTR _this$[ebp]
  0083b	8b 51 20	 mov	 edx, DWORD PTR [ecx+32]
  0083e	52		 push	 edx
  0083f	e8 00 00 00 00	 call	 _CoolSB_SetStyle@12

; 168  : 		CoolSB_SetSize(m_hWnd, SB_BOTH, h, w);

  00844	8b 45 f8	 mov	 eax, DWORD PTR _w$189654[ebp]
  00847	50		 push	 eax
  00848	8b 4d f4	 mov	 ecx, DWORD PTR _h$189655[ebp]
  0084b	51		 push	 ecx
  0084c	6a 03		 push	 3
  0084e	8b 55 fc	 mov	 edx, DWORD PTR _this$[ebp]
  00851	8b 42 20	 mov	 eax, DWORD PTR [edx+32]
  00854	50		 push	 eax
  00855	e8 00 00 00 00	 call	 _CoolSB_SetSize@16

; 169  : 		::CoolSB_SetMinThumbSize(m_hWnd, SB_BOTH, 8);

  0085a	6a 08		 push	 8
  0085c	6a 03		 push	 3
  0085e	8b 4d fc	 mov	 ecx, DWORD PTR _this$[ebp]
  00861	8b 51 20	 mov	 edx, DWORD PTR [ecx+32]
  00864	52		 push	 edx
  00865	e8 00 00 00 00	 call	 _CoolSB_SetMinThumbSize@12

; 170  : 		m_bInit = true;

  0086a	8b 45 fc	 mov	 eax, DWORD PTR _this$[ebp]
  0086d	c6 80 38 01 00
	00 01		 mov	 BYTE PTR [eax+312], 1
$L189653:

; 171  : 	}
; 172  : 
; 173  :     CRect rectClient;

  00874	8d 4d e0	 lea	 ecx, DWORD PTR _rectClient$[ebp]
  00877	e8 00 00 00 00	 call	 ??0CRect@@QAE@XZ	; CRect::CRect

; 174  : 	GetClientRect(rectClient);

  0087c	8d 4d e0	 lea	 ecx, DWORD PTR _rectClient$[ebp]
  0087f	e8 00 00 00 00	 call	 ??BCRect@@QAEPAUtagRECT@@XZ ; CRect::operator tagRECT *
  00884	50		 push	 eax
  00885	8b 4d fc	 mov	 ecx, DWORD PTR _this$[ebp]
  00888	e8 00 00 00 00	 call	 ?GetClientRect@CWnd@@QBEXPAUtagRECT@@@Z ; CWnd::GetClientRect

; 175  : 	CRect rectClip;

  0088d	8d 4d c8	 lea	 ecx, DWORD PTR _rectClip$[ebp]
  00890	e8 00 00 00 00	 call	 ??0CRect@@QAE@XZ	; CRect::CRect

; 176  : 	GetUpdateRect(rectClip,FALSE);

  00895	6a 00		 push	 0
  00897	8d 4d c8	 lea	 ecx, DWORD PTR _rectClip$[ebp]
  0089a	e8 00 00 00 00	 call	 ??BCRect@@QAEPAUtagRECT@@XZ ; CRect::operator tagRECT *
  0089f	50		 push	 eax
  008a0	8b 4d fc	 mov	 ecx, DWORD PTR _this$[ebp]
  008a3	e8 00 00 00 00	 call	 ?GetUpdateRect@CWnd@@QAEHPAUtagRECT@@H@Z ; CWnd::GetUpdateRect

; 177  : 	if( rectClip.right < rectClient.right )

  008a8	8b 4d d0	 mov	 ecx, DWORD PTR _rectClip$[ebp+8]
  008ab	3b 4d e8	 cmp	 ecx, DWORD PTR _rectClient$[ebp+8]
  008ae	7d 06		 jge	 SHORT $L189659

; 178  : 	{
; 179  : 		rectClip.right = rectClient.right;

  008b0	8b 55 e8	 mov	 edx, DWORD PTR _rectClient$[ebp+8]
  008b3	89 55 d0	 mov	 DWORD PTR _rectClip$[ebp+8], edx
$L189659:

; 180  : 	}
; 181  : 
; 182  : 	int width = 0;

  008b6	c7 45 c0 00 00
	00 00		 mov	 DWORD PTR _width$[ebp], 0

; 183  : 	for(int i = 0 ; i<m_mapColumnInfo.size(); i++)

  008bd	c7 45 bc 00 00
	00 00		 mov	 DWORD PTR _i$189661[ebp], 0
  008c4	eb 09		 jmp	 SHORT $L189662
$L189663:
  008c6	8b 45 bc	 mov	 eax, DWORD PTR _i$189661[ebp]
  008c9	83 c0 01	 add	 eax, 1
  008cc	89 45 bc	 mov	 DWORD PTR _i$189661[ebp], eax
$L189662:
  008cf	8b 4d fc	 mov	 ecx, DWORD PTR _this$[ebp]
  008d2	81 c1 94 00 00
	00		 add	 ecx, 148		; 00000094H
  008d8	e8 00 00 00 00	 call	 ?size@?$_Tree@V?$_Tmap_traits@HUMYLIST_COLUMN_INFO@@U?$less@H@std@@V?$allocator@U?$pair@$$CBHUMYLIST_COLUMN_INFO@@@std@@@3@$0A@@std@@@std@@QBEIXZ ; std::_Tree<std::_Tmap_traits<int,MYLIST_COLUMN_INFO,std::less<int>,std::allocator<std::pair<int const ,MYLIST_COLUMN_INFO> >,0> >::size
  008dd	39 45 bc	 cmp	 DWORD PTR _i$189661[ebp], eax
  008e0	73 14		 jae	 SHORT $L189664

; 184  : 		width += GetColumnWidth(i);

  008e2	8b 4d bc	 mov	 ecx, DWORD PTR _i$189661[ebp]
  008e5	51		 push	 ecx
  008e6	8b 4d fc	 mov	 ecx, DWORD PTR _this$[ebp]
  008e9	e8 00 00 00 00	 call	 ?GetColumnWidth@CListCtrl@@QBEHH@Z ; CListCtrl::GetColumnWidth
  008ee	03 45 c0	 add	 eax, DWORD PTR _width$[ebp]
  008f1	89 45 c0	 mov	 DWORD PTR _width$[ebp], eax
  008f4	eb d0		 jmp	 SHORT $L189663
$L189664:

; 185  : 
; 186  : 	if(rectClip.left >= width)

  008f6	8b 55 c8	 mov	 edx, DWORD PTR _rectClip$[ebp]
  008f9	3b 55 c0	 cmp	 edx, DWORD PTR _width$[ebp]
  008fc	7c 09		 jl	 SHORT $L189665

; 187  : 		rectClip.left = width -1;

  008fe	8b 45 c0	 mov	 eax, DWORD PTR _width$[ebp]
  00901	83 e8 01	 sub	 eax, 1
  00904	89 45 c8	 mov	 DWORD PTR _rectClip$[ebp], eax
$L189665:

; 188  : 
; 189  : 	InvalidateRect( rectClip );

  00907	6a 01		 push	 1
  00909	8d 4d c8	 lea	 ecx, DWORD PTR _rectClip$[ebp]
  0090c	e8 00 00 00 00	 call	 ??BCRect@@QAEPAUtagRECT@@XZ ; CRect::operator tagRECT *
  00911	50		 push	 eax
  00912	8b 4d fc	 mov	 ecx, DWORD PTR _this$[ebp]
  00915	e8 00 00 00 00	 call	 ?InvalidateRect@CWnd@@QAEXPBUtagRECT@@H@Z ; CWnd::InvalidateRect

; 190  : 
; 191  : 	__super::OnPaint();

  0091a	8b 4d fc	 mov	 ecx, DWORD PTR _this$[ebp]
  0091d	e8 00 00 00 00	 call	 ?OnPaint@CWnd@@IAEXXZ	; CWnd::OnPaint

; 192  : }

  00922	52		 push	 edx
  00923	8b cd		 mov	 ecx, ebp
  00925	50		 push	 eax
  00926	8d 15 00 00 00
	00		 lea	 edx, DWORD PTR $L191841
  0092c	e8 00 00 00 00	 call	 @_RTC_CheckStackVars@8
  00931	58		 pop	 eax
  00932	5a		 pop	 edx
  00933	5f		 pop	 edi
  00934	83 c4 44	 add	 esp, 68			; 00000044H
  00937	3b ec		 cmp	 ebp, esp
  00939	e8 00 00 00 00	 call	 __RTC_CheckEsp
  0093e	8b e5		 mov	 esp, ebp
  00940	5d		 pop	 ebp
  00941	c3		 ret	 0
$L191841:
  00942	02 00 00 00	 DD	 2
  00946	00 00 00 00	 DD	 $L191840
$L191840:
  0094a	e0 ff ff ff	 DD	 -32			; ffffffe0H
  0094e	10 00 00 00	 DD	 16			; 00000010H
  00952	00 00 00 00	 DD	 $L191838
  00956	c8 ff ff ff	 DD	 -56			; ffffffc8H
  0095a	10 00 00 00	 DD	 16			; 00000010H
  0095e	00 00 00 00	 DD	 $L191839
$L191839:
  00962	72		 DB	 114			; 00000072H
  00963	65		 DB	 101			; 00000065H
  00964	63		 DB	 99			; 00000063H
  00965	74		 DB	 116			; 00000074H
  00966	43		 DB	 67			; 00000043H
  00967	6c		 DB	 108			; 0000006cH
  00968	69		 DB	 105			; 00000069H
  00969	70		 DB	 112			; 00000070H
  0096a	00		 DB	 0
$L191838:
  0096b	72		 DB	 114			; 00000072H
  0096c	65		 DB	 101			; 00000065H
  0096d	63		 DB	 99			; 00000063H
  0096e	74		 DB	 116			; 00000074H
  0096f	43		 DB	 67			; 00000043H
  00970	6c		 DB	 108			; 0000006cH
  00971	69		 DB	 105			; 00000069H
  00972	65		 DB	 101			; 00000065H
  00973	6e		 DB	 110			; 0000006eH
  00974	74		 DB	 116			; 00000074H
  00975	00		 DB	 0
?OnPaint@CMyListCtrl@@IAEXXZ ENDP			; CMyListCtrl::OnPaint
_TEXT	ENDS
EXTRN	?FillSolidRect@CDC@@QAEXPBUtagRECT@@K@Z:NEAR	; CDC::FillSolidRect
EXTRN	?GetWindowRect@CWnd@@QBEXPAUtagRECT@@@Z:NEAR	; CWnd::GetWindowRect
EXTRN	?GetItemCount@CListCtrl@@QBEHXZ:NEAR		; CListCtrl::GetItemCount
EXTRN	?GetItemRect@CListCtrl@@QBEHHPAUtagRECT@@I@Z:NEAR ; CListCtrl::GetItemRect
EXTRN	?GetHeaderCtrl@CListCtrl@@QAEPAVCHeaderCtrl@@XZ:NEAR ; CListCtrl::GetHeaderCtrl
; Function compile flags: /Odt /RTCsu
_TEXT	SEGMENT
_clr$189676 = -88					; size = 4
_rectItem$189675 = -80					; size = 16
_iItemCount$ = -60					; size = 4
_bNeedDraw$ = -53					; size = 1
_rectHeader$ = -48					; size = 16
_rcClient$ = -24					; size = 16
_this$ = -4						; size = 4
_pDC$ = 8						; size = 4
?OnEraseBkgnd@CMyListCtrl@@IAEHPAVCDC@@@Z PROC NEAR	; CMyListCtrl::OnEraseBkgnd
; _this$ = ecx

; 196  : {

  00980	55		 push	 ebp
  00981	8b ec		 mov	 ebp, esp
  00983	83 ec 58	 sub	 esp, 88			; 00000058H
  00986	57		 push	 edi
  00987	51		 push	 ecx
  00988	8d 7d a8	 lea	 edi, DWORD PTR [ebp-88]
  0098b	b9 16 00 00 00	 mov	 ecx, 22			; 00000016H
  00990	b8 cc cc cc cc	 mov	 eax, -858993460		; ccccccccH
  00995	f3 ab		 rep stosd
  00997	59		 pop	 ecx
  00998	89 4d fc	 mov	 DWORD PTR _this$[ebp], ecx

; 197  : 	CRect rcClient;

  0099b	8d 4d e8	 lea	 ecx, DWORD PTR _rcClient$[ebp]
  0099e	e8 00 00 00 00	 call	 ??0CRect@@QAE@XZ	; CRect::CRect

; 198  : 	GetClientRect(rcClient);

  009a3	8d 4d e8	 lea	 ecx, DWORD PTR _rcClient$[ebp]
  009a6	e8 00 00 00 00	 call	 ??BCRect@@QAEPAUtagRECT@@XZ ; CRect::operator tagRECT *
  009ab	50		 push	 eax
  009ac	8b 4d fc	 mov	 ecx, DWORD PTR _this$[ebp]
  009af	e8 00 00 00 00	 call	 ?GetClientRect@CWnd@@QBEXPAUtagRECT@@@Z ; CWnd::GetClientRect

; 199  : 	CRect rectHeader;

  009b4	8d 4d d0	 lea	 ecx, DWORD PTR _rectHeader$[ebp]
  009b7	e8 00 00 00 00	 call	 ??0CRect@@QAE@XZ	; CRect::CRect

; 200  : 	GetHeaderCtrl()->GetWindowRect(rectHeader);

  009bc	8d 4d d0	 lea	 ecx, DWORD PTR _rectHeader$[ebp]
  009bf	e8 00 00 00 00	 call	 ??BCRect@@QAEPAUtagRECT@@XZ ; CRect::operator tagRECT *
  009c4	50		 push	 eax
  009c5	8b 4d fc	 mov	 ecx, DWORD PTR _this$[ebp]
  009c8	e8 00 00 00 00	 call	 ?GetHeaderCtrl@CListCtrl@@QAEPAVCHeaderCtrl@@XZ ; CListCtrl::GetHeaderCtrl
  009cd	8b c8		 mov	 ecx, eax
  009cf	e8 00 00 00 00	 call	 ?GetWindowRect@CWnd@@QBEXPAUtagRECT@@@Z ; CWnd::GetWindowRect

; 201  : 	bool bNeedDraw = true;

  009d4	c6 45 cb 01	 mov	 BYTE PTR _bNeedDraw$[ebp], 1

; 202  : 
; 203  : 	int iItemCount = GetItemCount();

  009d8	8b 4d fc	 mov	 ecx, DWORD PTR _this$[ebp]
  009db	e8 00 00 00 00	 call	 ?GetItemCount@CListCtrl@@QBEHXZ ; CListCtrl::GetItemCount
  009e0	89 45 c4	 mov	 DWORD PTR _iItemCount$[ebp], eax

; 204  : 
; 205  : 	if (iItemCount > 0)

  009e3	83 7d c4 00	 cmp	 DWORD PTR _iItemCount$[ebp], 0
  009e7	7e 66		 jle	 SHORT $L189674

; 206  : 	{
; 207  : 		CRect rectItem;

  009e9	8d 4d b0	 lea	 ecx, DWORD PTR _rectItem$189675[ebp]
  009ec	e8 00 00 00 00	 call	 ??0CRect@@QAE@XZ	; CRect::CRect

; 208  : 		GetItemRect(iItemCount-1,rectItem,LVIR_BOUNDS);

  009f1	6a 00		 push	 0
  009f3	8d 4d b0	 lea	 ecx, DWORD PTR _rectItem$189675[ebp]
  009f6	e8 00 00 00 00	 call	 ??BCRect@@QAEPAUtagRECT@@XZ ; CRect::operator tagRECT *
  009fb	50		 push	 eax
  009fc	8b 45 c4	 mov	 eax, DWORD PTR _iItemCount$[ebp]
  009ff	83 e8 01	 sub	 eax, 1
  00a02	50		 push	 eax
  00a03	8b 4d fc	 mov	 ecx, DWORD PTR _this$[ebp]
  00a06	e8 00 00 00 00	 call	 ?GetItemRect@CListCtrl@@QBEHHPAUtagRECT@@I@Z ; CListCtrl::GetItemRect

; 209  : 		rcClient.top = rectItem.bottom;

  00a0b	8b 4d bc	 mov	 ecx, DWORD PTR _rectItem$189675[ebp+12]
  00a0e	89 4d ec	 mov	 DWORD PTR _rcClient$[ebp+4], ecx

; 210  : 
; 211  : 		COLORREF clr;
; 212  : 		if (iItemCount % 2)

  00a11	8b 55 c4	 mov	 edx, DWORD PTR _iItemCount$[ebp]
  00a14	81 e2 01 00 00
	80		 and	 edx, -2147483647	; 80000001H
  00a1a	79 05		 jns	 SHORT $L191848
  00a1c	4a		 dec	 edx
  00a1d	83 ca fe	 or	 edx, -2			; fffffffeH
  00a20	42		 inc	 edx
$L191848:
  00a21	85 d2		 test	 edx, edx
  00a23	74 0a		 je	 SHORT $L189677

; 213  : 			clr = clrOddItemBK;

  00a25	a1 00 00 00 00	 mov	 eax, DWORD PTR _clrOddItemBK
  00a2a	89 45 a8	 mov	 DWORD PTR _clr$189676[ebp], eax

; 214  : 		else

  00a2d	eb 09		 jmp	 SHORT $L189678
$L189677:

; 215  : 			clr = clrEvenItemBK;

  00a2f	8b 0d 00 00 00
	00		 mov	 ecx, DWORD PTR _clrEvenItemBK
  00a35	89 4d a8	 mov	 DWORD PTR _clr$189676[ebp], ecx
$L189678:

; 216  : 
; 217  : 		pDC->FillSolidRect (&rcClient, clr);//RGB(45,44,44));

  00a38	8b 55 a8	 mov	 edx, DWORD PTR _clr$189676[ebp]
  00a3b	52		 push	 edx
  00a3c	8d 45 e8	 lea	 eax, DWORD PTR _rcClient$[ebp]
  00a3f	50		 push	 eax
  00a40	8b 4d 08	 mov	 ecx, DWORD PTR _pDC$[ebp]
  00a43	e8 00 00 00 00	 call	 ?FillSolidRect@CDC@@QAEXPBUtagRECT@@K@Z ; CDC::FillSolidRect

; 218  : 
; 219  : 		return TRUE;

  00a48	b8 01 00 00 00	 mov	 eax, 1
  00a4d	eb 05		 jmp	 SHORT $L189669
$L189674:

; 220  : 	}
; 221  : /*  
; 222  : 	if( iItemCount > 0 )
; 223  : 	{
; 224  : 		CRect rectItem;
; 225  : 		GetItemRect(iItemCount-1,rectItem,LVIR_BOUNDS);
; 226  : 		if( rectItem.bottom < rcClient.bottom )
; 227  : 		{
; 228  : 			rcClient.top = rectItem.bottom;			
; 229  : 		}
; 230  : 		else
; 231  : 		{
; 232  : 			bNeedDraw = false;
; 233  : 		}
; 234  : 	}	
; 235  : 	else
; 236  : 	{
; 237  : 		rcClient.top = rectHeader.Height();
; 238  : 	}
; 239  : 
; 240  : 	if( bNeedDraw )
; 241  : 	{
; 242  : 		int id =iItemCount+1;
; 243  : 		for(int btop=rcClient.top ;btop<rcClient.bottom;btop+=ITEM_HEIGHT)
; 244  : 		{
; 245  : 			if(id%2)
; 246  : 			{
; 247  : 				pDC->FillSolidRect(CRect(rcClient.left,btop, rcClient.right ,btop+ITEM_HEIGHT),m_clrEvenItemBK);
; 248  : 			}else
; 249  : 			{
; 250  : 				pDC->FillSolidRect(CRect(rcClient.left,btop, rcClient.right ,btop+ITEM_HEIGHT),m_clrOddItemBK);
; 251  : 			}
; 252  : 			id++;
; 253  : 		}
; 254  : 	}
; 255  : */
; 256  : // 	rcClient.top = 0;
; 257  : // 	rcClient.top += (rectHeader.bottom - rectHeader.top );
; 258  : // 	rcClient.bottom = rcClient.top/* + 2*/;
; 259  : // 	pDC->FillSolidRect(rcClient, m_clrOddItemBK );
; 260  : 
; 261  : 	return TRUE;

  00a4f	b8 01 00 00 00	 mov	 eax, 1
$L189669:

; 262  : }

  00a54	52		 push	 edx
  00a55	8b cd		 mov	 ecx, ebp
  00a57	50		 push	 eax
  00a58	8d 15 00 00 00
	00		 lea	 edx, DWORD PTR $L191847
  00a5e	e8 00 00 00 00	 call	 @_RTC_CheckStackVars@8
  00a63	58		 pop	 eax
  00a64	5a		 pop	 edx
  00a65	5f		 pop	 edi
  00a66	83 c4 58	 add	 esp, 88			; 00000058H
  00a69	3b ec		 cmp	 ebp, esp
  00a6b	e8 00 00 00 00	 call	 __RTC_CheckEsp
  00a70	8b e5		 mov	 esp, ebp
  00a72	5d		 pop	 ebp
  00a73	c2 04 00	 ret	 4
$L191847:
  00a76	03 00 00 00	 DD	 3
  00a7a	00 00 00 00	 DD	 $L191846
$L191846:
  00a7e	e8 ff ff ff	 DD	 -24			; ffffffe8H
  00a82	10 00 00 00	 DD	 16			; 00000010H
  00a86	00 00 00 00	 DD	 $L191843
  00a8a	d0 ff ff ff	 DD	 -48			; ffffffd0H
  00a8e	10 00 00 00	 DD	 16			; 00000010H
  00a92	00 00 00 00	 DD	 $L191844
  00a96	b0 ff ff ff	 DD	 -80			; ffffffb0H
  00a9a	10 00 00 00	 DD	 16			; 00000010H
  00a9e	00 00 00 00	 DD	 $L191845
$L191845:
  00aa2	72		 DB	 114			; 00000072H
  00aa3	65		 DB	 101			; 00000065H
  00aa4	63		 DB	 99			; 00000063H
  00aa5	74		 DB	 116			; 00000074H
  00aa6	49		 DB	 73			; 00000049H
  00aa7	74		 DB	 116			; 00000074H
  00aa8	65		 DB	 101			; 00000065H
  00aa9	6d		 DB	 109			; 0000006dH
  00aaa	00		 DB	 0
$L191844:
  00aab	72		 DB	 114			; 00000072H
  00aac	65		 DB	 101			; 00000065H
  00aad	63		 DB	 99			; 00000063H
  00aae	74		 DB	 116			; 00000074H
  00aaf	48		 DB	 72			; 00000048H
  00ab0	65		 DB	 101			; 00000065H
  00ab1	61		 DB	 97			; 00000061H
  00ab2	64		 DB	 100			; 00000064H
  00ab3	65		 DB	 101			; 00000065H
  00ab4	72		 DB	 114			; 00000072H
  00ab5	00		 DB	 0
$L191843:
  00ab6	72		 DB	 114			; 00000072H
  00ab7	63		 DB	 99			; 00000063H
  00ab8	43		 DB	 67			; 00000043H
  00ab9	6c		 DB	 108			; 0000006cH
  00aba	69		 DB	 105			; 00000069H
  00abb	65		 DB	 101			; 00000065H
  00abc	6e		 DB	 110			; 0000006eH
  00abd	74		 DB	 116			; 00000074H
  00abe	00		 DB	 0
?OnEraseBkgnd@CMyListCtrl@@IAEHPAVCDC@@@Z ENDP		; CMyListCtrl::OnEraseBkgnd
; Function compile flags: /Odt /RTCsu
_this$ = -4						; size = 4
_lpmis$ = 8						; size = 4
?MeasureItem@CMyListCtrl@@IAEXPAUtagMEASUREITEMSTRUCT@@@Z PROC NEAR ; CMyListCtrl::MeasureItem
; _this$ = ecx

; 265  : {

  00ac0	55		 push	 ebp
  00ac1	8b ec		 mov	 ebp, esp
  00ac3	51		 push	 ecx
  00ac4	c7 45 fc cc cc
	cc cc		 mov	 DWORD PTR [ebp-4], -858993460 ; ccccccccH
  00acb	89 4d fc	 mov	 DWORD PTR _this$[ebp], ecx

; 266  : 	lpmis->itemHeight = ITEM_HEIGHT;

  00ace	8b 45 08	 mov	 eax, DWORD PTR _lpmis$[ebp]
  00ad1	c7 40 10 50 00
	00 00		 mov	 DWORD PTR [eax+16], 80	; 00000050H

; 267  : }

  00ad8	8b e5		 mov	 esp, ebp
  00ada	5d		 pop	 ebp
  00adb	c2 04 00	 ret	 4
?MeasureItem@CMyListCtrl@@IAEXPAUtagMEASUREITEMSTRUCT@@@Z ENDP ; CMyListCtrl::MeasureItem
_TEXT	ENDS
EXTRN	?HideTooTips@CCWToolTips@@QAEXXZ:NEAR		; CCWToolTips::HideTooTips
; Function compile flags: /Odt /RTCsu
_TEXT	SEGMENT
_this$ = -4						; size = 4
?HideToolTip@CMyListCtrl@@UAEXXZ PROC NEAR		; CMyListCtrl::HideToolTip
; _this$ = ecx

; 271  : {

  00ae0	55		 push	 ebp
  00ae1	8b ec		 mov	 ebp, esp
  00ae3	51		 push	 ecx
  00ae4	c7 45 fc cc cc
	cc cc		 mov	 DWORD PTR [ebp-4], -858993460 ; ccccccccH
  00aeb	89 4d fc	 mov	 DWORD PTR _this$[ebp], ecx

; 272  : 	m_tooltip.HideTooTips();

  00aee	8b 4d fc	 mov	 ecx, DWORD PTR _this$[ebp]
  00af1	81 c1 a0 00 00
	00		 add	 ecx, 160		; 000000a0H
  00af7	e8 00 00 00 00	 call	 ?HideTooTips@CCWToolTips@@QAEXXZ ; CCWToolTips::HideTooTips

; 273  : }

  00afc	83 c4 04	 add	 esp, 4
  00aff	3b ec		 cmp	 ebp, esp
  00b01	e8 00 00 00 00	 call	 __RTC_CheckEsp
  00b06	8b e5		 mov	 esp, ebp
  00b08	5d		 pop	 ebp
  00b09	c3		 ret	 0
?HideToolTip@CMyListCtrl@@UAEXXZ ENDP			; CMyListCtrl::HideToolTip
_TEXT	ENDS
EXTRN	??0CPoint@@QAE@HH@Z:NEAR			; CPoint::CPoint
EXTRN	??8CPoint@@QBEHUtagPOINT@@@Z:NEAR		; CPoint::operator==
EXTRN	?OnMouseMove@CWnd@@IAEXIVCPoint@@@Z:NEAR	; CWnd::OnMouseMove
EXTRN	__imp__SetCursor@4:NEAR
EXTRN	__imp___TrackMouseEvent@4:NEAR
EXTRN	__imp__LoadCursorA@8:NEAR
EXTRN	?GetSubItemRect@CListCtrl@@QAEHHHHAAVCRect@@@Z:NEAR ; CListCtrl::GetSubItemRect
EXTRN	?SubItemHitTest@CListCtrl@@QAEHPAUtagLVHITTESTINFO@@@Z:NEAR ; CListCtrl::SubItemHitTest
;	COMDAT ?s_pt@?1??OnMouseMove@CMyListCtrl@@IAEXIVCPoint@@@Z@4V3@A
_BSS	SEGMENT
?s_pt@?1??OnMouseMove@CMyListCtrl@@IAEXIVCPoint@@@Z@4V3@A DQ 01H DUP (?) ; `CMyListCtrl::OnMouseMove'::`2'::s_pt
_BSS	ENDS
;	COMDAT ?$S5@?1??OnMouseMove@CMyListCtrl@@IAEXIVCPoint@@@Z@4IA
_BSS	SEGMENT
?$S5@?1??OnMouseMove@CMyListCtrl@@IAEXIVCPoint@@@Z@4IA DD 01H DUP (?) ; `CMyListCtrl::OnMouseMove'::`2'::$S5
; Function compile flags: /Odt /RTCsu
_BSS	ENDS
_TEXT	SEGMENT
$T191852 = -164						; size = 8
_tme$189721 = -152					; size = 16
_rectSubItem$ = -128					; size = 16
_r$189706 = -104					; size = 16
_r$189704 = -80						; size = 16
_r$189702 = -56						; size = 16
_ret$ = -36						; size = 4
_lvhti$ = -28						; size = 20
_this$ = -4						; size = 4
_nFlags$ = 8						; size = 4
_point$ = 12						; size = 8
?OnMouseMove@CMyListCtrl@@IAEXIVCPoint@@@Z PROC NEAR	; CMyListCtrl::OnMouseMove
; _this$ = ecx

; 277  : {

  00b10	55		 push	 ebp
  00b11	8b ec		 mov	 ebp, esp
  00b13	81 ec a4 00 00
	00		 sub	 esp, 164		; 000000a4H
  00b19	56		 push	 esi
  00b1a	57		 push	 edi
  00b1b	51		 push	 ecx
  00b1c	8d bd 5c ff ff
	ff		 lea	 edi, DWORD PTR [ebp-164]
  00b22	b9 29 00 00 00	 mov	 ecx, 41			; 00000029H
  00b27	b8 cc cc cc cc	 mov	 eax, -858993460		; ccccccccH
  00b2c	f3 ab		 rep stosd
  00b2e	59		 pop	 ecx
  00b2f	89 4d fc	 mov	 DWORD PTR _this$[ebp], ecx

; 278  : 	static CPoint s_pt(0,0);

  00b32	a1 00 00 00 00	 mov	 eax, DWORD PTR ?$S5@?1??OnMouseMove@CMyListCtrl@@IAEXIVCPoint@@@Z@4IA
  00b37	83 e0 01	 and	 eax, 1
  00b3a	75 1d		 jne	 SHORT $L189695
  00b3c	8b 0d 00 00 00
	00		 mov	 ecx, DWORD PTR ?$S5@?1??OnMouseMove@CMyListCtrl@@IAEXIVCPoint@@@Z@4IA
  00b42	83 c9 01	 or	 ecx, 1
  00b45	89 0d 00 00 00
	00		 mov	 DWORD PTR ?$S5@?1??OnMouseMove@CMyListCtrl@@IAEXIVCPoint@@@Z@4IA, ecx
  00b4b	6a 00		 push	 0
  00b4d	6a 00		 push	 0
  00b4f	b9 00 00 00 00	 mov	 ecx, OFFSET FLAT:?s_pt@?1??OnMouseMove@CMyListCtrl@@IAEXIVCPoint@@@Z@4V3@A
  00b54	e8 00 00 00 00	 call	 ??0CPoint@@QAE@HH@Z	; CPoint::CPoint
$L189695:

; 279  : 
; 280  : //	TRACE("%d,%d",point.x,point.y);
; 281  : 
; 282  : 	if( s_pt == point )

  00b59	8b 55 0c	 mov	 edx, DWORD PTR _point$[ebp]
  00b5c	89 95 5c ff ff
	ff		 mov	 DWORD PTR $T191852[ebp], edx
  00b62	8b 45 10	 mov	 eax, DWORD PTR _point$[ebp+4]
  00b65	89 85 60 ff ff
	ff		 mov	 DWORD PTR $T191852[ebp+4], eax
  00b6b	8b 8d 60 ff ff
	ff		 mov	 ecx, DWORD PTR $T191852[ebp+4]
  00b71	51		 push	 ecx
  00b72	8b 95 5c ff ff
	ff		 mov	 edx, DWORD PTR $T191852[ebp]
  00b78	52		 push	 edx
  00b79	b9 00 00 00 00	 mov	 ecx, OFFSET FLAT:?s_pt@?1??OnMouseMove@CMyListCtrl@@IAEXIVCPoint@@@Z@4V3@A
  00b7e	e8 00 00 00 00	 call	 ??8CPoint@@QBEHUtagPOINT@@@Z ; CPoint::operator==
  00b83	85 c0		 test	 eax, eax
  00b85	74 05		 je	 SHORT $L189697

; 283  : 	{
; 284  : //		__super::OnMouseMove( nFlags,point );
; 285  : 		return;

  00b87	e9 a7 03 00 00	 jmp	 $L189690
$L189697:

; 286  : 	}
; 287  : 	s_pt = point;

  00b8c	8b 45 0c	 mov	 eax, DWORD PTR _point$[ebp]
  00b8f	a3 00 00 00 00	 mov	 DWORD PTR ?s_pt@?1??OnMouseMove@CMyListCtrl@@IAEXIVCPoint@@@Z@4V3@A, eax
  00b94	8b 4d 10	 mov	 ecx, DWORD PTR _point$[ebp+4]
  00b97	89 0d 04 00 00
	00		 mov	 DWORD PTR ?s_pt@?1??OnMouseMove@CMyListCtrl@@IAEXIVCPoint@@@Z@4V3@A+4, ecx

; 288  : 
; 289  : 	HideToolTip();

  00b9d	8b 55 fc	 mov	 edx, DWORD PTR _this$[ebp]
  00ba0	8b 02		 mov	 eax, DWORD PTR [edx]
  00ba2	8b f4		 mov	 esi, esp
  00ba4	8b 4d fc	 mov	 ecx, DWORD PTR _this$[ebp]
  00ba7	ff 90 68 01 00
	00		 call	 DWORD PTR [eax+360]
  00bad	3b f4		 cmp	 esi, esp
  00baf	e8 00 00 00 00	 call	 __RTC_CheckEsp

; 290  : 
; 291  : 	LVHITTESTINFO lvhti;
; 292  : 	lvhti.pt = point;

  00bb4	8b 4d 0c	 mov	 ecx, DWORD PTR _point$[ebp]
  00bb7	89 4d e4	 mov	 DWORD PTR _lvhti$[ebp], ecx
  00bba	8b 55 10	 mov	 edx, DWORD PTR _point$[ebp+4]
  00bbd	89 55 e8	 mov	 DWORD PTR _lvhti$[ebp+4], edx

; 293  : 	int ret = SubItemHitTest(&lvhti);

  00bc0	8d 45 e4	 lea	 eax, DWORD PTR _lvhti$[ebp]
  00bc3	50		 push	 eax
  00bc4	8b 4d fc	 mov	 ecx, DWORD PTR _this$[ebp]
  00bc7	e8 00 00 00 00	 call	 ?SubItemHitTest@CListCtrl@@QAEHPAUtagLVHITTESTINFO@@@Z ; CListCtrl::SubItemHitTest
  00bcc	89 45 dc	 mov	 DWORD PTR _ret$[ebp], eax

; 294  : 	if( ret == -1 )

  00bcf	83 7d dc ff	 cmp	 DWORD PTR _ret$[ebp], -1
  00bd3	0f 85 87 00 00
	00		 jne	 $L189700

; 295  : 	{
; 296  : 		if( m_iCurrentCursorItem != -1 )

  00bd9	8b 4d fc	 mov	 ecx, DWORD PTR _this$[ebp]
  00bdc	83 b9 80 00 00
	00 ff		 cmp	 DWORD PTR [ecx+128], -1
  00be3	74 2e		 je	 SHORT $L189701

; 297  : 		{
; 298  : 			CRect r;

  00be5	8d 4d c8	 lea	 ecx, DWORD PTR _r$189702[ebp]
  00be8	e8 00 00 00 00	 call	 ??0CRect@@QAE@XZ	; CRect::CRect

; 299  : 			GetItemRect(m_iCurrentCursorItem, &r,LVIR_BOUNDS);

  00bed	6a 00		 push	 0
  00bef	8d 55 c8	 lea	 edx, DWORD PTR _r$189702[ebp]
  00bf2	52		 push	 edx
  00bf3	8b 45 fc	 mov	 eax, DWORD PTR _this$[ebp]
  00bf6	8b 88 80 00 00
	00		 mov	 ecx, DWORD PTR [eax+128]
  00bfc	51		 push	 ecx
  00bfd	8b 4d fc	 mov	 ecx, DWORD PTR _this$[ebp]
  00c00	e8 00 00 00 00	 call	 ?GetItemRect@CListCtrl@@QBEHHPAUtagRECT@@I@Z ; CListCtrl::GetItemRect

; 300  : 			InvalidateRect(&r, true);

  00c05	6a 01		 push	 1
  00c07	8d 55 c8	 lea	 edx, DWORD PTR _r$189702[ebp]
  00c0a	52		 push	 edx
  00c0b	8b 4d fc	 mov	 ecx, DWORD PTR _this$[ebp]
  00c0e	e8 00 00 00 00	 call	 ?InvalidateRect@CWnd@@QAEXPBUtagRECT@@H@Z ; CWnd::InvalidateRect
$L189701:

; 301  : 		}
; 302  : 		m_iCurrentCursorItem = m_iCurrentCursorSubItem = -1;

  00c13	8b 45 fc	 mov	 eax, DWORD PTR _this$[ebp]
  00c16	c7 80 84 00 00
	00 ff ff ff ff	 mov	 DWORD PTR [eax+132], -1
  00c20	8b 4d fc	 mov	 ecx, DWORD PTR _this$[ebp]
  00c23	c7 81 80 00 00
	00 ff ff ff ff	 mov	 DWORD PTR [ecx+128], -1

; 303  : 		m_iOverImageItem	= -1;

  00c2d	8b 55 fc	 mov	 edx, DWORD PTR _this$[ebp]
  00c30	c7 82 88 00 00
	00 ff ff ff ff	 mov	 DWORD PTR [edx+136], -1

; 304  : 		m_iOverImageSubItem	= -1;

  00c3a	8b 45 fc	 mov	 eax, DWORD PTR _this$[ebp]
  00c3d	c7 80 8c 00 00
	00 ff ff ff ff	 mov	 DWORD PTR [eax+140], -1

; 305  : 		__super::OnMouseMove( nFlags,point );

  00c47	8b 4d 10	 mov	 ecx, DWORD PTR _point$[ebp+4]
  00c4a	51		 push	 ecx
  00c4b	8b 55 0c	 mov	 edx, DWORD PTR _point$[ebp]
  00c4e	52		 push	 edx
  00c4f	8b 45 08	 mov	 eax, DWORD PTR _nFlags$[ebp]
  00c52	50		 push	 eax
  00c53	8b 4d fc	 mov	 ecx, DWORD PTR _this$[ebp]
  00c56	e8 00 00 00 00	 call	 ?OnMouseMove@CWnd@@IAEXIVCPoint@@@Z ; CWnd::OnMouseMove

; 306  : 		return;

  00c5b	e9 d3 02 00 00	 jmp	 $L189690
$L189700:

; 307  : 	}
; 308  : 
; 309  : 	if( m_iCurrentCursorItem != -1 )

  00c60	8b 4d fc	 mov	 ecx, DWORD PTR _this$[ebp]
  00c63	83 b9 80 00 00
	00 ff		 cmp	 DWORD PTR [ecx+128], -1
  00c6a	74 2e		 je	 SHORT $L189703

; 310  : 	{
; 311  : 		CRect r;

  00c6c	8d 4d b0	 lea	 ecx, DWORD PTR _r$189704[ebp]
  00c6f	e8 00 00 00 00	 call	 ??0CRect@@QAE@XZ	; CRect::CRect

; 312  : 		GetItemRect(m_iCurrentCursorItem, &r,LVIR_BOUNDS);

  00c74	6a 00		 push	 0
  00c76	8d 55 b0	 lea	 edx, DWORD PTR _r$189704[ebp]
  00c79	52		 push	 edx
  00c7a	8b 45 fc	 mov	 eax, DWORD PTR _this$[ebp]
  00c7d	8b 88 80 00 00
	00		 mov	 ecx, DWORD PTR [eax+128]
  00c83	51		 push	 ecx
  00c84	8b 4d fc	 mov	 ecx, DWORD PTR _this$[ebp]
  00c87	e8 00 00 00 00	 call	 ?GetItemRect@CListCtrl@@QBEHHPAUtagRECT@@I@Z ; CListCtrl::GetItemRect

; 313  : 		InvalidateRect(&r, true);

  00c8c	6a 01		 push	 1
  00c8e	8d 55 b0	 lea	 edx, DWORD PTR _r$189704[ebp]
  00c91	52		 push	 edx
  00c92	8b 4d fc	 mov	 ecx, DWORD PTR _this$[ebp]
  00c95	e8 00 00 00 00	 call	 ?InvalidateRect@CWnd@@QAEXPBUtagRECT@@H@Z ; CWnd::InvalidateRect
$L189703:

; 314  : 	}
; 315  : 	m_iCurrentCursorItem	= lvhti.iItem;

  00c9a	8b 45 fc	 mov	 eax, DWORD PTR _this$[ebp]
  00c9d	8b 4d f0	 mov	 ecx, DWORD PTR _lvhti$[ebp+12]
  00ca0	89 88 80 00 00
	00		 mov	 DWORD PTR [eax+128], ecx

; 316  : 	m_iCurrentCursorSubItem	= lvhti.iSubItem;

  00ca6	8b 55 fc	 mov	 edx, DWORD PTR _this$[ebp]
  00ca9	8b 45 f4	 mov	 eax, DWORD PTR _lvhti$[ebp+16]
  00cac	89 82 84 00 00
	00		 mov	 DWORD PTR [edx+132], eax

; 317  : 	if( m_iCurrentCursorItem != -1 )

  00cb2	8b 4d fc	 mov	 ecx, DWORD PTR _this$[ebp]
  00cb5	83 b9 80 00 00
	00 ff		 cmp	 DWORD PTR [ecx+128], -1
  00cbc	74 2e		 je	 SHORT $L189705

; 318  : 	{
; 319  : 		CRect r;

  00cbe	8d 4d 98	 lea	 ecx, DWORD PTR _r$189706[ebp]
  00cc1	e8 00 00 00 00	 call	 ??0CRect@@QAE@XZ	; CRect::CRect

; 320  : 		GetItemRect(m_iCurrentCursorItem, &r,LVIR_BOUNDS);

  00cc6	6a 00		 push	 0
  00cc8	8d 55 98	 lea	 edx, DWORD PTR _r$189706[ebp]
  00ccb	52		 push	 edx
  00ccc	8b 45 fc	 mov	 eax, DWORD PTR _this$[ebp]
  00ccf	8b 88 80 00 00
	00		 mov	 ecx, DWORD PTR [eax+128]
  00cd5	51		 push	 ecx
  00cd6	8b 4d fc	 mov	 ecx, DWORD PTR _this$[ebp]
  00cd9	e8 00 00 00 00	 call	 ?GetItemRect@CListCtrl@@QBEHHPAUtagRECT@@I@Z ; CListCtrl::GetItemRect

; 321  : 		InvalidateRect(&r, true);

  00cde	6a 01		 push	 1
  00ce0	8d 55 98	 lea	 edx, DWORD PTR _r$189706[ebp]
  00ce3	52		 push	 edx
  00ce4	8b 4d fc	 mov	 ecx, DWORD PTR _this$[ebp]
  00ce7	e8 00 00 00 00	 call	 ?InvalidateRect@CWnd@@QAEXPBUtagRECT@@H@Z ; CWnd::InvalidateRect
$L189705:

; 322  : 	}
; 323  : 
; 324  : 	CRect rectSubItem;

  00cec	8d 4d 80	 lea	 ecx, DWORD PTR _rectSubItem$[ebp]
  00cef	e8 00 00 00 00	 call	 ??0CRect@@QAE@XZ	; CRect::CRect

; 325  : 	GetSubItemRect( m_iCurrentCursorItem,m_iCurrentCursorSubItem,LVIR_BOUNDS,rectSubItem);

  00cf4	8d 45 80	 lea	 eax, DWORD PTR _rectSubItem$[ebp]
  00cf7	50		 push	 eax
  00cf8	6a 00		 push	 0
  00cfa	8b 4d fc	 mov	 ecx, DWORD PTR _this$[ebp]
  00cfd	8b 91 84 00 00
	00		 mov	 edx, DWORD PTR [ecx+132]
  00d03	52		 push	 edx
  00d04	8b 45 fc	 mov	 eax, DWORD PTR _this$[ebp]
  00d07	8b 88 80 00 00
	00		 mov	 ecx, DWORD PTR [eax+128]
  00d0d	51		 push	 ecx
  00d0e	8b 4d fc	 mov	 ecx, DWORD PTR _this$[ebp]
  00d11	e8 00 00 00 00	 call	 ?GetSubItemRect@CListCtrl@@QAEHHHHAAVCRect@@@Z ; CListCtrl::GetSubItemRect

; 326  : 
; 327  : 	if( NeedChangeCursor( point ) )

  00d16	8b f4		 mov	 esi, esp
  00d18	8d 55 0c	 lea	 edx, DWORD PTR _point$[ebp]
  00d1b	52		 push	 edx
  00d1c	8b 45 fc	 mov	 eax, DWORD PTR _this$[ebp]
  00d1f	8b 10		 mov	 edx, DWORD PTR [eax]
  00d21	8b 4d fc	 mov	 ecx, DWORD PTR _this$[ebp]
  00d24	ff 92 50 01 00
	00		 call	 DWORD PTR [edx+336]
  00d2a	3b f4		 cmp	 esi, esp
  00d2c	e8 00 00 00 00	 call	 __RTC_CheckEsp
  00d31	85 c0		 test	 eax, eax
  00d33	0f 84 b5 00 00
	00		 je	 $L189708

; 328  : 	{
; 329  : 		::SetCursor(::LoadCursor(NULL, MAKEINTRESOURCE(32649)));			

  00d39	8b f4		 mov	 esi, esp
  00d3b	68 89 7f 00 00	 push	 32649			; 00007f89H
  00d40	6a 00		 push	 0
  00d42	ff 15 00 00 00
	00		 call	 DWORD PTR __imp__LoadCursorA@8
  00d48	3b f4		 cmp	 esi, esp
  00d4a	e8 00 00 00 00	 call	 __RTC_CheckEsp
  00d4f	8b f4		 mov	 esi, esp
  00d51	50		 push	 eax
  00d52	ff 15 00 00 00
	00		 call	 DWORD PTR __imp__SetCursor@4
  00d58	3b f4		 cmp	 esi, esp
  00d5a	e8 00 00 00 00	 call	 __RTC_CheckEsp

; 330  : 		if( m_iOverImageItem == -1 && m_iOverImageSubItem == -1 )

  00d5f	8b 45 fc	 mov	 eax, DWORD PTR _this$[ebp]
  00d62	83 b8 88 00 00
	00 ff		 cmp	 DWORD PTR [eax+136], -1
  00d69	75 53		 jne	 SHORT $L189712
  00d6b	8b 4d fc	 mov	 ecx, DWORD PTR _this$[ebp]
  00d6e	83 b9 8c 00 00
	00 ff		 cmp	 DWORD PTR [ecx+140], -1
  00d75	75 47		 jne	 SHORT $L189712

; 331  : 		{
; 332  : 			if( m_iCurrentCursorSubItem == 0 )

  00d77	8b 55 fc	 mov	 edx, DWORD PTR _this$[ebp]
  00d7a	83 ba 84 00 00
	00 00		 cmp	 DWORD PTR [edx+132], 0
  00d81	75 10		 jne	 SHORT $L189713

; 333  : 			{
; 334  : 				rectSubItem.right = rectSubItem.left + GetColumnWidth(0);

  00d83	6a 00		 push	 0
  00d85	8b 4d fc	 mov	 ecx, DWORD PTR _this$[ebp]
  00d88	e8 00 00 00 00	 call	 ?GetColumnWidth@CListCtrl@@QBEHH@Z ; CListCtrl::GetColumnWidth
  00d8d	03 45 80	 add	 eax, DWORD PTR _rectSubItem$[ebp]
  00d90	89 45 88	 mov	 DWORD PTR _rectSubItem$[ebp+8], eax
$L189713:

; 335  : 			}
; 336  : 
; 337  : 			InvalidateRect( rectSubItem );

  00d93	6a 01		 push	 1
  00d95	8d 4d 80	 lea	 ecx, DWORD PTR _rectSubItem$[ebp]
  00d98	e8 00 00 00 00	 call	 ??BCRect@@QAEPAUtagRECT@@XZ ; CRect::operator tagRECT *
  00d9d	50		 push	 eax
  00d9e	8b 4d fc	 mov	 ecx, DWORD PTR _this$[ebp]
  00da1	e8 00 00 00 00	 call	 ?InvalidateRect@CWnd@@QAEXPBUtagRECT@@H@Z ; CWnd::InvalidateRect

; 338  : 			m_iOverImageItem	= lvhti.iItem;

  00da6	8b 45 fc	 mov	 eax, DWORD PTR _this$[ebp]
  00da9	8b 4d f0	 mov	 ecx, DWORD PTR _lvhti$[ebp+12]
  00dac	89 88 88 00 00
	00		 mov	 DWORD PTR [eax+136], ecx

; 339  : 			m_iOverImageSubItem	= lvhti.iSubItem;

  00db2	8b 55 fc	 mov	 edx, DWORD PTR _this$[ebp]
  00db5	8b 45 f4	 mov	 eax, DWORD PTR _lvhti$[ebp+16]
  00db8	89 82 8c 00 00
	00		 mov	 DWORD PTR [edx+140], eax
$L189712:

; 340  : 		}
; 341  : 		ShowSubItemToolTip( m_iOverImageItem,m_iOverImageSubItem);

  00dbe	8b f4		 mov	 esi, esp
  00dc0	8b 4d fc	 mov	 ecx, DWORD PTR _this$[ebp]
  00dc3	8b 91 8c 00 00
	00		 mov	 edx, DWORD PTR [ecx+140]
  00dc9	52		 push	 edx
  00dca	8b 45 fc	 mov	 eax, DWORD PTR _this$[ebp]
  00dcd	8b 88 88 00 00
	00		 mov	 ecx, DWORD PTR [eax+136]
  00dd3	51		 push	 ecx
  00dd4	8b 55 fc	 mov	 edx, DWORD PTR _this$[ebp]
  00dd7	8b 02		 mov	 eax, DWORD PTR [edx]
  00dd9	8b 4d fc	 mov	 ecx, DWORD PTR _this$[ebp]
  00ddc	ff 90 64 01 00
	00		 call	 DWORD PTR [eax+356]
  00de2	3b f4		 cmp	 esi, esp
  00de4	e8 00 00 00 00	 call	 __RTC_CheckEsp

; 342  : 	}
; 343  : 	else

  00de9	e9 dc 00 00 00	 jmp	 $L189714
$L189708:

; 344  : 	{
; 345  : 		if( m_iOverImageItem != -1 && m_iOverImageSubItem != -1 )

  00dee	8b 4d fc	 mov	 ecx, DWORD PTR _this$[ebp]
  00df1	83 b9 88 00 00
	00 ff		 cmp	 DWORD PTR [ecx+136], -1
  00df8	0f 84 a1 00 00
	00		 je	 $L189715
  00dfe	8b 55 fc	 mov	 edx, DWORD PTR _this$[ebp]
  00e01	83 ba 8c 00 00
	00 ff		 cmp	 DWORD PTR [edx+140], -1
  00e08	0f 84 91 00 00
	00		 je	 $L189715

; 346  : 		{
; 347  : 			GetSubItemRect( m_iOverImageItem,m_iOverImageSubItem,LVIR_BOUNDS,rectSubItem);

  00e0e	8d 45 80	 lea	 eax, DWORD PTR _rectSubItem$[ebp]
  00e11	50		 push	 eax
  00e12	6a 00		 push	 0
  00e14	8b 4d fc	 mov	 ecx, DWORD PTR _this$[ebp]
  00e17	8b 91 8c 00 00
	00		 mov	 edx, DWORD PTR [ecx+140]
  00e1d	52		 push	 edx
  00e1e	8b 45 fc	 mov	 eax, DWORD PTR _this$[ebp]
  00e21	8b 88 88 00 00
	00		 mov	 ecx, DWORD PTR [eax+136]
  00e27	51		 push	 ecx
  00e28	8b 4d fc	 mov	 ecx, DWORD PTR _this$[ebp]
  00e2b	e8 00 00 00 00	 call	 ?GetSubItemRect@CListCtrl@@QAEHHHHAAVCRect@@@Z ; CListCtrl::GetSubItemRect

; 348  : 			if( m_iCurrentCursorSubItem == 0 )

  00e30	8b 55 fc	 mov	 edx, DWORD PTR _this$[ebp]
  00e33	83 ba 84 00 00
	00 00		 cmp	 DWORD PTR [edx+132], 0
  00e3a	75 10		 jne	 SHORT $L189716

; 349  : 			{
; 350  : 				rectSubItem.right = rectSubItem.left + GetColumnWidth(0);

  00e3c	6a 00		 push	 0
  00e3e	8b 4d fc	 mov	 ecx, DWORD PTR _this$[ebp]
  00e41	e8 00 00 00 00	 call	 ?GetColumnWidth@CListCtrl@@QBEHH@Z ; CListCtrl::GetColumnWidth
  00e46	03 45 80	 add	 eax, DWORD PTR _rectSubItem$[ebp]
  00e49	89 45 88	 mov	 DWORD PTR _rectSubItem$[ebp+8], eax
$L189716:

; 351  : 			}
; 352  : 			InvalidateRect( rectSubItem );			

  00e4c	6a 01		 push	 1
  00e4e	8d 4d 80	 lea	 ecx, DWORD PTR _rectSubItem$[ebp]
  00e51	e8 00 00 00 00	 call	 ??BCRect@@QAEPAUtagRECT@@XZ ; CRect::operator tagRECT *
  00e56	50		 push	 eax
  00e57	8b 4d fc	 mov	 ecx, DWORD PTR _this$[ebp]
  00e5a	e8 00 00 00 00	 call	 ?InvalidateRect@CWnd@@QAEXPBUtagRECT@@H@Z ; CWnd::InvalidateRect

; 353  : 			m_iOverImageItem	= -1;

  00e5f	8b 45 fc	 mov	 eax, DWORD PTR _this$[ebp]
  00e62	c7 80 88 00 00
	00 ff ff ff ff	 mov	 DWORD PTR [eax+136], -1

; 354  : 			m_iOverImageSubItem	= -1;

  00e6c	8b 4d fc	 mov	 ecx, DWORD PTR _this$[ebp]
  00e6f	c7 81 8c 00 00
	00 ff ff ff ff	 mov	 DWORD PTR [ecx+140], -1

; 355  : 			::SetCursor(::LoadCursor(NULL, IDC_ARROW));	

  00e79	8b f4		 mov	 esi, esp
  00e7b	68 00 7f 00 00	 push	 32512			; 00007f00H
  00e80	6a 00		 push	 0
  00e82	ff 15 00 00 00
	00		 call	 DWORD PTR __imp__LoadCursorA@8
  00e88	3b f4		 cmp	 esi, esp
  00e8a	e8 00 00 00 00	 call	 __RTC_CheckEsp
  00e8f	8b f4		 mov	 esi, esp
  00e91	50		 push	 eax
  00e92	ff 15 00 00 00
	00		 call	 DWORD PTR __imp__SetCursor@4
  00e98	3b f4		 cmp	 esi, esp
  00e9a	e8 00 00 00 00	 call	 __RTC_CheckEsp
$L189715:

; 356  : 		}	
; 357  : 		ShowItemToolTip( m_iCurrentCursorItem,m_iCurrentCursorSubItem);

  00e9f	8b f4		 mov	 esi, esp
  00ea1	8b 55 fc	 mov	 edx, DWORD PTR _this$[ebp]
  00ea4	8b 82 84 00 00
	00		 mov	 eax, DWORD PTR [edx+132]
  00eaa	50		 push	 eax
  00eab	8b 4d fc	 mov	 ecx, DWORD PTR _this$[ebp]
  00eae	8b 91 80 00 00
	00		 mov	 edx, DWORD PTR [ecx+128]
  00eb4	52		 push	 edx
  00eb5	8b 45 fc	 mov	 eax, DWORD PTR _this$[ebp]
  00eb8	8b 10		 mov	 edx, DWORD PTR [eax]
  00eba	8b 4d fc	 mov	 ecx, DWORD PTR _this$[ebp]
  00ebd	ff 92 60 01 00
	00		 call	 DWORD PTR [edx+352]
  00ec3	3b f4		 cmp	 esi, esp
  00ec5	e8 00 00 00 00	 call	 __RTC_CheckEsp
$L189714:

; 358  : 	}
; 359  : 	if(!m_bTrackMouseEvent) 

  00eca	8b 45 fc	 mov	 eax, DWORD PTR _this$[ebp]
  00ecd	83 b8 90 00 00
	00 00		 cmp	 DWORD PTR [eax+144], 0
  00ed4	75 49		 jne	 SHORT $L189720

; 360  : 	{
; 361  : 		TRACKMOUSEEVENT tme;
; 362  : 		tme.cbSize = sizeof(tme);

  00ed6	c7 85 68 ff ff
	ff 10 00 00 00	 mov	 DWORD PTR _tme$189721[ebp], 16 ; 00000010H

; 363  : 		tme.hwndTrack = m_hWnd;

  00ee0	8b 4d fc	 mov	 ecx, DWORD PTR _this$[ebp]
  00ee3	8b 51 20	 mov	 edx, DWORD PTR [ecx+32]
  00ee6	89 95 70 ff ff
	ff		 mov	 DWORD PTR _tme$189721[ebp+8], edx

; 364  : 		tme.dwFlags = TME_LEAVE; 

  00eec	c7 85 6c ff ff
	ff 02 00 00 00	 mov	 DWORD PTR _tme$189721[ebp+4], 2

; 365  : 		tme.dwHoverTime = 1;

  00ef6	c7 85 74 ff ff
	ff 01 00 00 00	 mov	 DWORD PTR _tme$189721[ebp+12], 1

; 366  : 		m_bTrackMouseEvent = _TrackMouseEvent(&tme); 

  00f00	8b f4		 mov	 esi, esp
  00f02	8d 85 68 ff ff
	ff		 lea	 eax, DWORD PTR _tme$189721[ebp]
  00f08	50		 push	 eax
  00f09	ff 15 00 00 00
	00		 call	 DWORD PTR __imp___TrackMouseEvent@4
  00f0f	3b f4		 cmp	 esi, esp
  00f11	e8 00 00 00 00	 call	 __RTC_CheckEsp
  00f16	8b 4d fc	 mov	 ecx, DWORD PTR _this$[ebp]
  00f19	89 81 90 00 00
	00		 mov	 DWORD PTR [ecx+144], eax
$L189720:

; 367  : 	}
; 368  : 	__super::OnMouseMove( nFlags,point );

  00f1f	8b 55 10	 mov	 edx, DWORD PTR _point$[ebp+4]
  00f22	52		 push	 edx
  00f23	8b 45 0c	 mov	 eax, DWORD PTR _point$[ebp]
  00f26	50		 push	 eax
  00f27	8b 4d 08	 mov	 ecx, DWORD PTR _nFlags$[ebp]
  00f2a	51		 push	 ecx
  00f2b	8b 4d fc	 mov	 ecx, DWORD PTR _this$[ebp]
  00f2e	e8 00 00 00 00	 call	 ?OnMouseMove@CWnd@@IAEXIVCPoint@@@Z ; CWnd::OnMouseMove
$L189690:

; 369  : 
; 370  : }

  00f33	52		 push	 edx
  00f34	8b cd		 mov	 ecx, ebp
  00f36	50		 push	 eax
  00f37	8d 15 00 00 00
	00		 lea	 edx, DWORD PTR $L191861
  00f3d	e8 00 00 00 00	 call	 @_RTC_CheckStackVars@8
  00f42	58		 pop	 eax
  00f43	5a		 pop	 edx
  00f44	5f		 pop	 edi
  00f45	5e		 pop	 esi
  00f46	81 c4 a4 00 00
	00		 add	 esp, 164		; 000000a4H
  00f4c	3b ec		 cmp	 ebp, esp
  00f4e	e8 00 00 00 00	 call	 __RTC_CheckEsp
  00f53	8b e5		 mov	 esp, ebp
  00f55	5d		 pop	 ebp
  00f56	c2 0c 00	 ret	 12			; 0000000cH
$L191861:
  00f59	06 00 00 00	 DD	 6
  00f5d	00 00 00 00	 DD	 $L191860
$L191860:
  00f61	e4 ff ff ff	 DD	 -28			; ffffffe4H
  00f65	14 00 00 00	 DD	 20			; 00000014H
  00f69	00 00 00 00	 DD	 $L191854
  00f6d	c8 ff ff ff	 DD	 -56			; ffffffc8H
  00f71	10 00 00 00	 DD	 16			; 00000010H
  00f75	00 00 00 00	 DD	 $L191855
  00f79	b0 ff ff ff	 DD	 -80			; ffffffb0H
  00f7d	10 00 00 00	 DD	 16			; 00000010H
  00f81	00 00 00 00	 DD	 $L191856
  00f85	98 ff ff ff	 DD	 -104			; ffffff98H
  00f89	10 00 00 00	 DD	 16			; 00000010H
  00f8d	00 00 00 00	 DD	 $L191857
  00f91	80 ff ff ff	 DD	 -128			; ffffff80H
  00f95	10 00 00 00	 DD	 16			; 00000010H
  00f99	00 00 00 00	 DD	 $L191858
  00f9d	68 ff ff ff	 DD	 -152			; ffffff68H
  00fa1	10 00 00 00	 DD	 16			; 00000010H
  00fa5	00 00 00 00	 DD	 $L191859
$L191859:
  00fa9	74		 DB	 116			; 00000074H
  00faa	6d		 DB	 109			; 0000006dH
  00fab	65		 DB	 101			; 00000065H
  00fac	00		 DB	 0
$L191858:
  00fad	72		 DB	 114			; 00000072H
  00fae	65		 DB	 101			; 00000065H
  00faf	63		 DB	 99			; 00000063H
  00fb0	74		 DB	 116			; 00000074H
  00fb1	53		 DB	 83			; 00000053H
  00fb2	75		 DB	 117			; 00000075H
  00fb3	62		 DB	 98			; 00000062H
  00fb4	49		 DB	 73			; 00000049H
  00fb5	74		 DB	 116			; 00000074H
  00fb6	65		 DB	 101			; 00000065H
  00fb7	6d		 DB	 109			; 0000006dH
  00fb8	00		 DB	 0
$L191857:
  00fb9	72		 DB	 114			; 00000072H
  00fba	00		 DB	 0
$L191856:
  00fbb	72		 DB	 114			; 00000072H
  00fbc	00		 DB	 0
$L191855:
  00fbd	72		 DB	 114			; 00000072H
  00fbe	00		 DB	 0
$L191854:
  00fbf	6c		 DB	 108			; 0000006cH
  00fc0	76		 DB	 118			; 00000076H
  00fc1	68		 DB	 104			; 00000068H
  00fc2	74		 DB	 116			; 00000074H
  00fc3	69		 DB	 105			; 00000069H
  00fc4	00		 DB	 0
?OnMouseMove@CMyListCtrl@@IAEXIVCPoint@@@Z ENDP		; CMyListCtrl::OnMouseMove
; Function compile flags: /Odt /RTCsu
_r$189728 = -24					; size = 16
_this$ = -4						; size = 4
_wparam$ = 8						; size = 4
_lparam$ = 12						; size = 4
?OnMouseLeave@CMyListCtrl@@IAEJIJ@Z PROC NEAR		; CMyListCtrl::OnMouseLeave
; _this$ = ecx

; 373  : {

  00fd0	55		 push	 ebp
  00fd1	8b ec		 mov	 ebp, esp
  00fd3	83 ec 1c	 sub	 esp, 28			; 0000001cH
  00fd6	56		 push	 esi
  00fd7	b8 cc cc cc cc	 mov	 eax, -858993460		; ccccccccH
  00fdc	89 45 e4	 mov	 DWORD PTR [ebp-28], eax
  00fdf	89 45 e8	 mov	 DWORD PTR [ebp-24], eax
  00fe2	89 45 ec	 mov	 DWORD PTR [ebp-20], eax
  00fe5	89 45 f0	 mov	 DWORD PTR [ebp-16], eax
  00fe8	89 45 f4	 mov	 DWORD PTR [ebp-12], eax
  00feb	89 45 f8	 mov	 DWORD PTR [ebp-8], eax
  00fee	89 45 fc	 mov	 DWORD PTR [ebp-4], eax
  00ff1	89 4d fc	 mov	 DWORD PTR _this$[ebp], ecx

; 374  : 	m_bTrackMouseEvent = FALSE;

  00ff4	8b 45 fc	 mov	 eax, DWORD PTR _this$[ebp]
  00ff7	c7 80 90 00 00
	00 00 00 00 00	 mov	 DWORD PTR [eax+144], 0

; 375  : 	if( m_iCurrentCursorItem != -1 )

  01001	8b 4d fc	 mov	 ecx, DWORD PTR _this$[ebp]
  01004	83 b9 80 00 00
	00 ff		 cmp	 DWORD PTR [ecx+128], -1
  0100b	74 2e		 je	 SHORT $L189727

; 376  : 	{
; 377  : 		CRect r;

  0100d	8d 4d e8	 lea	 ecx, DWORD PTR _r$189728[ebp]
  01010	e8 00 00 00 00	 call	 ??0CRect@@QAE@XZ	; CRect::CRect

; 378  : 		GetItemRect(m_iCurrentCursorItem, &r,LVIR_BOUNDS);

  01015	6a 00		 push	 0
  01017	8d 55 e8	 lea	 edx, DWORD PTR _r$189728[ebp]
  0101a	52		 push	 edx
  0101b	8b 45 fc	 mov	 eax, DWORD PTR _this$[ebp]
  0101e	8b 88 80 00 00
	00		 mov	 ecx, DWORD PTR [eax+128]
  01024	51		 push	 ecx
  01025	8b 4d fc	 mov	 ecx, DWORD PTR _this$[ebp]
  01028	e8 00 00 00 00	 call	 ?GetItemRect@CListCtrl@@QBEHHPAUtagRECT@@I@Z ; CListCtrl::GetItemRect

; 379  : 		InvalidateRect(&r, true);

  0102d	6a 01		 push	 1
  0102f	8d 55 e8	 lea	 edx, DWORD PTR _r$189728[ebp]
  01032	52		 push	 edx
  01033	8b 4d fc	 mov	 ecx, DWORD PTR _this$[ebp]
  01036	e8 00 00 00 00	 call	 ?InvalidateRect@CWnd@@QAEXPBUtagRECT@@H@Z ; CWnd::InvalidateRect
$L189727:

; 380  : 	}
; 381  : 	m_iCurrentCursorItem = -1;

  0103b	8b 45 fc	 mov	 eax, DWORD PTR _this$[ebp]
  0103e	c7 80 80 00 00
	00 ff ff ff ff	 mov	 DWORD PTR [eax+128], -1

; 382  : 	m_iCurrentCursorSubItem = -1;

  01048	8b 4d fc	 mov	 ecx, DWORD PTR _this$[ebp]
  0104b	c7 81 84 00 00
	00 ff ff ff ff	 mov	 DWORD PTR [ecx+132], -1

; 383  : 	m_iOverImageItem = -1;

  01055	8b 55 fc	 mov	 edx, DWORD PTR _this$[ebp]
  01058	c7 82 88 00 00
	00 ff ff ff ff	 mov	 DWORD PTR [edx+136], -1

; 384  : 	m_iOverImageSubItem = -1;

  01062	8b 45 fc	 mov	 eax, DWORD PTR _this$[ebp]
  01065	c7 80 8c 00 00
	00 ff ff ff ff	 mov	 DWORD PTR [eax+140], -1

; 385  : 
; 386  : 	HideToolTip();

  0106f	8b 4d fc	 mov	 ecx, DWORD PTR _this$[ebp]
  01072	8b 11		 mov	 edx, DWORD PTR [ecx]
  01074	8b f4		 mov	 esi, esp
  01076	8b 4d fc	 mov	 ecx, DWORD PTR _this$[ebp]
  01079	ff 92 68 01 00
	00		 call	 DWORD PTR [edx+360]
  0107f	3b f4		 cmp	 esi, esp
  01081	e8 00 00 00 00	 call	 __RTC_CheckEsp

; 387  : 	return DefWindowProc(WM_MOUSELEAVE, wparam, lparam); 

  01086	8b f4		 mov	 esi, esp
  01088	8b 45 0c	 mov	 eax, DWORD PTR _lparam$[ebp]
  0108b	50		 push	 eax
  0108c	8b 4d 08	 mov	 ecx, DWORD PTR _wparam$[ebp]
  0108f	51		 push	 ecx
  01090	68 a3 02 00 00	 push	 675			; 000002a3H
  01095	8b 55 fc	 mov	 edx, DWORD PTR _this$[ebp]
  01098	8b 02		 mov	 eax, DWORD PTR [edx]
  0109a	8b 4d fc	 mov	 ecx, DWORD PTR _this$[ebp]
  0109d	ff 90 18 01 00
	00		 call	 DWORD PTR [eax+280]
  010a3	3b f4		 cmp	 esi, esp
  010a5	e8 00 00 00 00	 call	 __RTC_CheckEsp

; 388  : }

  010aa	52		 push	 edx
  010ab	8b cd		 mov	 ecx, ebp
  010ad	50		 push	 eax
  010ae	8d 15 00 00 00
	00		 lea	 edx, DWORD PTR $L191865
  010b4	e8 00 00 00 00	 call	 @_RTC_CheckStackVars@8
  010b9	58		 pop	 eax
  010ba	5a		 pop	 edx
  010bb	5e		 pop	 esi
  010bc	83 c4 1c	 add	 esp, 28			; 0000001cH
  010bf	3b ec		 cmp	 ebp, esp
  010c1	e8 00 00 00 00	 call	 __RTC_CheckEsp
  010c6	8b e5		 mov	 esp, ebp
  010c8	5d		 pop	 ebp
  010c9	c2 08 00	 ret	 8
$L191865:
  010cc	01 00 00 00	 DD	 1
  010d0	00 00 00 00	 DD	 $L191864
$L191864:
  010d4	e8 ff ff ff	 DD	 -24			; ffffffe8H
  010d8	10 00 00 00	 DD	 16			; 00000010H
  010dc	00 00 00 00	 DD	 $L191863
$L191863:
  010e0	72		 DB	 114			; 00000072H
  010e1	00		 DB	 0
?OnMouseLeave@CMyListCtrl@@IAEJIJ@Z ENDP		; CMyListCtrl::OnMouseLeave
_TEXT	ENDS
PUBLIC	?MyCompareProc@CMyListCtrl@@SGHJJJ@Z		; CMyListCtrl::MyCompareProc
EXTRN	?SortItems@CListCtrl@@QAEHP6GHJJJ@ZK@Z:NEAR	; CListCtrl::SortItems
EXTRN	?SetItemData@CListCtrl@@QAEHHK@Z:NEAR		; CListCtrl::SetItemData
; Function compile flags: /Odt /RTCsu
_TEXT	SEGMENT
_i$189737 = -12						; size = 4
_pNMListView$ = -8					; size = 4
_this$ = -4						; size = 4
_pNMHDR$ = 8						; size = 4
_pResult$ = 12						; size = 4
?OnColumnclickList@CMyListCtrl@@IAEXPAUtagNMHDR@@PAJ@Z PROC NEAR ; CMyListCtrl::OnColumnclickList
; _this$ = ecx

; 391  : {

  010f0	55		 push	 ebp
  010f1	8b ec		 mov	 ebp, esp
  010f3	83 ec 0c	 sub	 esp, 12			; 0000000cH
  010f6	c7 45 f4 cc cc
	cc cc		 mov	 DWORD PTR [ebp-12], -858993460 ; ccccccccH
  010fd	c7 45 f8 cc cc
	cc cc		 mov	 DWORD PTR [ebp-8], -858993460 ; ccccccccH
  01104	c7 45 fc cc cc
	cc cc		 mov	 DWORD PTR [ebp-4], -858993460 ; ccccccccH
  0110b	89 4d fc	 mov	 DWORD PTR _this$[ebp], ecx

; 392  : 	NM_LISTVIEW* pNMListView = (NM_LISTVIEW*)pNMHDR;

  0110e	8b 45 08	 mov	 eax, DWORD PTR _pNMHDR$[ebp]
  01111	89 45 f8	 mov	 DWORD PTR _pNMListView$[ebp], eax

; 393  : 
; 394  : 	m_bAsc		= !m_bAsc;

  01114	8b 4d fc	 mov	 ecx, DWORD PTR _this$[ebp]
  01117	0f b6 91 30 01
	00 00		 movzx	 edx, BYTE PTR [ecx+304]
  0111e	f7 da		 neg	 edx
  01120	1b d2		 sbb	 edx, edx
  01122	42		 inc	 edx
  01123	8b 45 fc	 mov	 eax, DWORD PTR _this$[ebp]
  01126	88 90 30 01 00
	00		 mov	 BYTE PTR [eax+304], dl

; 395  : 	m_iSortItem = pNMListView->iSubItem;

  0112c	8b 4d fc	 mov	 ecx, DWORD PTR _this$[ebp]
  0112f	8b 55 f8	 mov	 edx, DWORD PTR _pNMListView$[ebp]
  01132	8b 42 10	 mov	 eax, DWORD PTR [edx+16]
  01135	89 81 34 01 00
	00		 mov	 DWORD PTR [ecx+308], eax

; 396  : 
; 397  : 	SortItems(MyCompareProc, (LPARAM)this);

  0113b	8b 4d fc	 mov	 ecx, DWORD PTR _this$[ebp]
  0113e	51		 push	 ecx
  0113f	68 00 00 00 00	 push	 OFFSET FLAT:?MyCompareProc@CMyListCtrl@@SGHJJJ@Z ; CMyListCtrl::MyCompareProc
  01144	8b 4d fc	 mov	 ecx, DWORD PTR _this$[ebp]
  01147	e8 00 00 00 00	 call	 ?SortItems@CListCtrl@@QAEHP6GHJJJ@ZK@Z ; CListCtrl::SortItems

; 398  : 	for(int i = 0 ; i<GetItemCount(); i++)

  0114c	c7 45 f4 00 00
	00 00		 mov	 DWORD PTR _i$189737[ebp], 0
  01153	eb 09		 jmp	 SHORT $L189738
$L189739:
  01155	8b 55 f4	 mov	 edx, DWORD PTR _i$189737[ebp]
  01158	83 c2 01	 add	 edx, 1
  0115b	89 55 f4	 mov	 DWORD PTR _i$189737[ebp], edx
$L189738:
  0115e	8b 4d fc	 mov	 ecx, DWORD PTR _this$[ebp]
  01161	e8 00 00 00 00	 call	 ?GetItemCount@CListCtrl@@QBEHXZ ; CListCtrl::GetItemCount
  01166	39 45 f4	 cmp	 DWORD PTR _i$189737[ebp], eax
  01169	7d 12		 jge	 SHORT $L189740

; 399  : 	{
; 400  : 		SetItemData(i, i);

  0116b	8b 45 f4	 mov	 eax, DWORD PTR _i$189737[ebp]
  0116e	50		 push	 eax
  0116f	8b 4d f4	 mov	 ecx, DWORD PTR _i$189737[ebp]
  01172	51		 push	 ecx
  01173	8b 4d fc	 mov	 ecx, DWORD PTR _this$[ebp]
  01176	e8 00 00 00 00	 call	 ?SetItemData@CListCtrl@@QAEHHK@Z ; CListCtrl::SetItemData

; 401  : 	}

  0117b	eb d8		 jmp	 SHORT $L189739
$L189740:

; 402  : 
; 403  : 	*pResult = 0;

  0117d	8b 55 0c	 mov	 edx, DWORD PTR _pResult$[ebp]
  01180	c7 02 00 00 00
	00		 mov	 DWORD PTR [edx], 0

; 404  : }

  01186	83 c4 0c	 add	 esp, 12			; 0000000cH
  01189	3b ec		 cmp	 ebp, esp
  0118b	e8 00 00 00 00	 call	 __RTC_CheckEsp
  01190	8b e5		 mov	 esp, ebp
  01192	5d		 pop	 ebp
  01193	c2 08 00	 ret	 8
?OnColumnclickList@CMyListCtrl@@IAEXPAUtagNMHDR@@PAJ@Z ENDP ; CMyListCtrl::OnColumnclickList
; Function compile flags: /Odt /RTCsu
_pWnd$ = -4						; size = 4
_lParam1$ = 8						; size = 4
_lParam2$ = 12						; size = 4
_lParamSort$ = 16					; size = 4
?MyCompareProc@CMyListCtrl@@SGHJJJ@Z PROC NEAR		; CMyListCtrl::MyCompareProc

; 407  : {

  011a0	55		 push	 ebp
  011a1	8b ec		 mov	 ebp, esp
  011a3	51		 push	 ecx
  011a4	56		 push	 esi
  011a5	c7 45 fc cc cc
	cc cc		 mov	 DWORD PTR [ebp-4], -858993460 ; ccccccccH

; 408  : 	CMyListCtrl * pWnd = (CMyListCtrl *)lParamSort;

  011ac	8b 45 10	 mov	 eax, DWORD PTR _lParamSort$[ebp]
  011af	89 45 fc	 mov	 DWORD PTR _pWnd$[ebp], eax

; 409  : 	if(pWnd == NULL)

  011b2	83 7d fc 00	 cmp	 DWORD PTR _pWnd$[ebp], 0
  011b6	75 04		 jne	 SHORT $L189748

; 410  : 		return 0;

  011b8	33 c0		 xor	 eax, eax
  011ba	eb 1f		 jmp	 SHORT $L189745
$L189748:

; 411  : 	return pWnd->SortFunction( (int)lParam1,(int)lParam2);

  011bc	8b f4		 mov	 esi, esp
  011be	8b 4d 0c	 mov	 ecx, DWORD PTR _lParam2$[ebp]
  011c1	51		 push	 ecx
  011c2	8b 55 08	 mov	 edx, DWORD PTR _lParam1$[ebp]
  011c5	52		 push	 edx
  011c6	8b 45 fc	 mov	 eax, DWORD PTR _pWnd$[ebp]
  011c9	8b 10		 mov	 edx, DWORD PTR [eax]
  011cb	8b 4d fc	 mov	 ecx, DWORD PTR _pWnd$[ebp]
  011ce	ff 92 6c 01 00
	00		 call	 DWORD PTR [edx+364]
  011d4	3b f4		 cmp	 esi, esp
  011d6	e8 00 00 00 00	 call	 __RTC_CheckEsp
$L189745:

; 412  : }

  011db	5e		 pop	 esi
  011dc	83 c4 04	 add	 esp, 4
  011df	3b ec		 cmp	 ebp, esp
  011e1	e8 00 00 00 00	 call	 __RTC_CheckEsp
  011e6	8b e5		 mov	 esp, ebp
  011e8	5d		 pop	 ebp
  011e9	c2 0c 00	 ret	 12			; 0000000cH
?MyCompareProc@CMyListCtrl@@SGHJJJ@Z ENDP		; CMyListCtrl::MyCompareProc
; Function compile flags: /Odt /RTCsu
_this$ = -4						; size = 4
_lpDrawItemStruct$ = 8					; size = 4
?DrawItem@CMyListCtrl@@MAEXPAUtagDRAWITEMSTRUCT@@@Z PROC NEAR ; CMyListCtrl::DrawItem
; _this$ = ecx

; 415  : {

  011f0	55		 push	 ebp
  011f1	8b ec		 mov	 ebp, esp
  011f3	51		 push	 ecx
  011f4	c7 45 fc cc cc
	cc cc		 mov	 DWORD PTR [ebp-4], -858993460 ; ccccccccH
  011fb	89 4d fc	 mov	 DWORD PTR _this$[ebp], ecx

; 416  : /*
; 417  : 	CRect rcWnd;
; 418  : 	GetClientRect(&rcWnd);
; 419  : 	
; 420  : 	CRect rcItem(lpDrawItemStruct->rcItem);
; 421  : 	rcItem.right = rcWnd.right;
; 422  : 	CBufferDC* pDC = new CBufferDC( lpDrawItemStruct->hDC,rcItem);
; 423  : 
; 424  : 	int nItem = lpDrawItemStruct->itemID;
; 425  : 
; 426  : 	// Save dc state
; 427  : 	int nSavedDC = pDC->SaveDC();
; 428  : 
; 429  : 	LV_ITEM lvi;
; 430  : 	lvi.mask = LVIF_STATE;
; 431  : 	lvi.iItem = nItem;
; 432  : 	lvi.iSubItem = 0;
; 433  : 	lvi.stateMask = 0xFFFF;     // get all state flags
; 434  : 	GetItem(&lvi);
; 435  : 
; 436  : 	// Should the item be highlighted
; 437  : 	BOOL bHighlight =( (lvi.state & LVIS_DROPHILITED) || ( (lvi.state & LVIS_SELECTED)&& ((GetFocus() == this)|| (GetStyle() & LVS_SHOWSELALWAYS)	)	)		);
; 438  : 
; 439  : 	// Get rectangles for drawing
; 440  : 	CRect rcBounds;
; 441  : 	GetItemRect(nItem, rcBounds, LVIR_BOUNDS);
; 442  : 		
; 443  : 	CRect rcHighlight;
; 444  : 
; 445  : 	rcHighlight = rcBounds;
; 446  : 	rcHighlight.left = rcWnd.left;
; 447  : 	rcHighlight.right = rcWnd.right;
; 448  : 
; 449  : 	// Draw the background color
; 450  : 	SetItemTextColor( pDC,bHighlight,nItem );
; 451  : 	SetItemBkColor( pDC,bHighlight,nItem ,rcHighlight );
; 452  : 	
; 453  : 	int iColumnCount = GetHeaderCtrl()->GetItemCount();	
; 454  : 
; 455  : 	LV_COLUMN lvc;
; 456  : 	lvc.mask = LVCF_FMT | LVCF_WIDTH;
; 457  : 	
; 458  : 	CFont* pFont = pDC->SelectObject(&m_font);
; 459  : 	m_iOffset = pDC->GetTextExtent(_T(" "), 1 ).cx / 2;
; 460  : 
; 461  : 	for( int i = 0;i < iColumnCount;i++ )
; 462  : 	{
; 463  : 		GetColumn( i,&lvc );
; 464  : 		rcBounds.right = rcBounds.left + lvc.cx;
; 465  : 		if( m_mapColumnInfo[i].enumColumnType == MYLIST_COLUMN_INFO::COLUMN_TYPE_IMAGE )
; 466  : 		{
; 467  : 			DrawImageColumn( pDC,nItem,i,rcBounds,bHighlight);
; 468  : 		}
; 469  : 		else
; 470  : 		{
; 471  : 			DrawTextColumn( pDC,nItem,i,rcBounds );
; 472  : 		}
; 473  : 		rcBounds.left = rcBounds.right;
; 474  : 	}
; 475  : 
; 476  : 	pDC->SelectObject(pFont);
; 477  : 	// Restore dc
; 478  : 
; 479  : 	pDC->RestoreDC( nSavedDC );
; 480  : 
; 481  : 	delete pDC;
; 482  : */
; 483  : }

  011fe	8b e5		 mov	 esp, ebp
  01200	5d		 pop	 ebp
  01201	c2 04 00	 ret	 4
?DrawItem@CMyListCtrl@@MAEXPAUtagDRAWITEMSTRUCT@@@Z ENDP ; CMyListCtrl::DrawItem
; Function compile flags: /Odt /RTCsu
_this$ = -4						; size = 4
_pDC$ = 8						; size = 4
_bHighlight$ = 12					; size = 4
_iItem$ = 16						; size = 4
?SetItemTextColor@CMyListCtrl@@UAEXPAVCDC@@HH@Z PROC NEAR ; CMyListCtrl::SetItemTextColor
; _this$ = ecx

; 487  : {

  01210	55		 push	 ebp
  01211	8b ec		 mov	 ebp, esp
  01213	51		 push	 ecx
  01214	56		 push	 esi
  01215	c7 45 fc cc cc
	cc cc		 mov	 DWORD PTR [ebp-4], -858993460 ; ccccccccH
  0121c	89 4d fc	 mov	 DWORD PTR _this$[ebp], ecx

; 488  : 	// Draw the background color
; 489  : 	if( bHighlight )

  0121f	83 7d 0c 00	 cmp	 DWORD PTR _bHighlight$[ebp], 0
  01223	74 1d		 je	 SHORT $L189761

; 490  : 	{
; 491  : 		pDC->SetTextColor( m_clrSelItemText);

  01225	8b f4		 mov	 esi, esp
  01227	8b 45 fc	 mov	 eax, DWORD PTR _this$[ebp]
  0122a	8b 48 68	 mov	 ecx, DWORD PTR [eax+104]
  0122d	51		 push	 ecx
  0122e	8b 55 08	 mov	 edx, DWORD PTR _pDC$[ebp]
  01231	8b 02		 mov	 eax, DWORD PTR [edx]
  01233	8b 4d 08	 mov	 ecx, DWORD PTR _pDC$[ebp]
  01236	ff 50 38	 call	 DWORD PTR [eax+56]
  01239	3b f4		 cmp	 esi, esp
  0123b	e8 00 00 00 00	 call	 __RTC_CheckEsp

; 492  : 	}
; 493  : 	else

  01240	eb 1b		 jmp	 SHORT $L189760
$L189761:

; 494  : 	{
; 495  : 		pDC->SetTextColor( m_clrNormalItemText);	

  01242	8b f4		 mov	 esi, esp
  01244	8b 4d fc	 mov	 ecx, DWORD PTR _this$[ebp]
  01247	8b 51 60	 mov	 edx, DWORD PTR [ecx+96]
  0124a	52		 push	 edx
  0124b	8b 45 08	 mov	 eax, DWORD PTR _pDC$[ebp]
  0124e	8b 10		 mov	 edx, DWORD PTR [eax]
  01250	8b 4d 08	 mov	 ecx, DWORD PTR _pDC$[ebp]
  01253	ff 52 38	 call	 DWORD PTR [edx+56]
  01256	3b f4		 cmp	 esi, esp
  01258	e8 00 00 00 00	 call	 __RTC_CheckEsp
$L189760:

; 496  : 	}
; 497  : }

  0125d	5e		 pop	 esi
  0125e	83 c4 04	 add	 esp, 4
  01261	3b ec		 cmp	 ebp, esp
  01263	e8 00 00 00 00	 call	 __RTC_CheckEsp
  01268	8b e5		 mov	 esp, ebp
  0126a	5d		 pop	 ebp
  0126b	c2 0c 00	 ret	 12			; 0000000cH
?SetItemTextColor@CMyListCtrl@@UAEXPAVCDC@@HH@Z ENDP	; CMyListCtrl::SetItemTextColor
_TEXT	ENDS
PUBLIC	?begin@?$vector@HV?$allocator@H@std@@@std@@QAE?AViterator@12@XZ ; std::vector<int,std::allocator<int> >::begin
PUBLIC	?end@?$vector@HV?$allocator@H@std@@@std@@QAE?AViterator@12@XZ ; std::vector<int,std::allocator<int> >::end
PUBLIC	??9const_iterator@?$vector@HV?$allocator@H@std@@@std@@QBE_NABV012@@Z ; std::vector<int,std::allocator<int> >::const_iterator::operator!=
PUBLIC	??$find@Viterator@?$vector@HV?$allocator@H@std@@@std@@H@std@@YA?AViterator@?$vector@HV?$allocator@H@std@@@0@V120@0ABH@Z ; std::find<std::vector<int,std::allocator<int> >::iterator,int>
EXTRN	??0CBrush@@QAE@K@Z:NEAR				; CBrush::CBrush
EXTRN	??1CBrush@@UAE@XZ:NEAR				; CBrush::~CBrush
EXTRN	?Draw@CDibBitmap@@QAEHPAVCDC@@HKH@Z:NEAR	; CDibBitmap::Draw
EXTRN	??BCRect@@QBEPBUtagRECT@@XZ:NEAR		; CRect::operator tagRECT const *
EXTRN	?SetCDibRect@CDibBitmap@@QAEXVCRect@@@Z:NEAR	; CDibBitmap::SetCDibRect
EXTRN	?FillRect@CDC@@QAEXPBUtagRECT@@PAVCBrush@@@Z:NEAR ; CDC::FillRect
xdata$x	SEGMENT
$T191889 DD	0ffffffffH
	DD	FLAT:$L191878
	DD	0ffffffffH
	DD	FLAT:$L191879
	DD	0ffffffffH
	DD	FLAT:$L191880
	DD	0ffffffffH
	DD	FLAT:$L191881
$T191883 DD	019930520H
	DD	04H
	DD	FLAT:$T191889
	DD	2 DUP(00H)
	DD	2 DUP(00H)
; Function compile flags: /Odt /RTCsu
xdata$x	ENDS
_TEXT	SEGMENT
tv197 = -116						; size = 4
tv192 = -112						; size = 4
tv216 = -108						; size = 4
tv220 = -104						; size = 4
tv214 = -100						; size = 4
tv219 = -96						; size = 4
tv212 = -92						; size = 4
tv218 = -88						; size = 4
tv210 = -84						; size = 4
tv217 = -80						; size = 4
$T191877 = -76						; size = 8
$T191876 = -68						; size = 8
$T191875 = -60						; size = 8
$T191874 = -52						; size = 4
$T191873 = -48						; size = 4
$T191872 = -44						; size = 4
$T191871 = -40						; size = 8
_pDib$189910 = -32					; size = 4
_ite$189890 = -24					; size = 4
_this$ = -16						; size = 4
__$EHRec$ = -12						; size = 12
_pDC$ = 8						; size = 4
_bHighlight$ = 12					; size = 4
_iItem$ = 16						; size = 4
_rect$ = 20						; size = 4
?SetItemBkColor@CMyListCtrl@@UAEXPAVCDC@@HHABVCRect@@@Z PROC NEAR ; CMyListCtrl::SetItemBkColor
; _this$ = ecx

; 500  : {

  01270	55		 push	 ebp
  01271	8b ec		 mov	 ebp, esp
  01273	6a ff		 push	 -1
  01275	68 00 00 00 00	 push	 __ehhandler$?SetItemBkColor@CMyListCtrl@@UAEXPAVCDC@@HHABVCRect@@@Z
  0127a	64 a1 00 00 00
	00		 mov	 eax, DWORD PTR fs:__except_list
  01280	50		 push	 eax
  01281	64 89 25 00 00
	00 00		 mov	 DWORD PTR fs:__except_list, esp
  01288	83 ec 68	 sub	 esp, 104		; 00000068H
  0128b	56		 push	 esi
  0128c	57		 push	 edi
  0128d	51		 push	 ecx
  0128e	8d 7d 8c	 lea	 edi, DWORD PTR [ebp-116]
  01291	b9 1a 00 00 00	 mov	 ecx, 26			; 0000001aH
  01296	b8 cc cc cc cc	 mov	 eax, -858993460		; ccccccccH
  0129b	f3 ab		 rep stosd
  0129d	59		 pop	 ecx
  0129e	89 4d f0	 mov	 DWORD PTR _this$[ebp], ecx

; 501  : 	// Draw the background color
; 502  : 	if( bHighlight )

  012a1	83 7d 0c 00	 cmp	 DWORD PTR _bHighlight$[ebp], 0
  012a5	74 63		 je	 SHORT $L189770

; 503  : 	{
; 504  : 		pDC->SetBkColor( m_clrSelItemBK);

  012a7	8b f4		 mov	 esi, esp
  012a9	8b 45 f0	 mov	 eax, DWORD PTR _this$[ebp]
  012ac	8b 48 64	 mov	 ecx, DWORD PTR [eax+100]
  012af	51		 push	 ecx
  012b0	8b 55 08	 mov	 edx, DWORD PTR _pDC$[ebp]
  012b3	8b 02		 mov	 eax, DWORD PTR [edx]
  012b5	8b 4d 08	 mov	 ecx, DWORD PTR _pDC$[ebp]
  012b8	ff 50 34	 call	 DWORD PTR [eax+52]
  012bb	3b f4		 cmp	 esi, esp
  012bd	e8 00 00 00 00	 call	 __RTC_CheckEsp

; 505  : 		pDC->FillRect(rect, &CBrush( m_clrSelItemBK));

  012c2	8b 4d f0	 mov	 ecx, DWORD PTR _this$[ebp]
  012c5	8b 51 64	 mov	 edx, DWORD PTR [ecx+100]
  012c8	52		 push	 edx
  012c9	8d 4d d8	 lea	 ecx, DWORD PTR $T191871[ebp]
  012cc	e8 00 00 00 00	 call	 ??0CBrush@@QAE@K@Z	; CBrush::CBrush
  012d1	89 45 b0	 mov	 DWORD PTR tv217[ebp], eax
  012d4	8b 45 b0	 mov	 eax, DWORD PTR tv217[ebp]
  012d7	89 45 ac	 mov	 DWORD PTR tv210[ebp], eax
  012da	c7 45 fc 00 00
	00 00		 mov	 DWORD PTR __$EHRec$[ebp+8], 0
  012e1	8b 4d ac	 mov	 ecx, DWORD PTR tv210[ebp]
  012e4	51		 push	 ecx
  012e5	8b 4d 14	 mov	 ecx, DWORD PTR _rect$[ebp]
  012e8	e8 00 00 00 00	 call	 ??BCRect@@QBEPBUtagRECT@@XZ ; CRect::operator tagRECT const *
  012ed	50		 push	 eax
  012ee	8b 4d 08	 mov	 ecx, DWORD PTR _pDC$[ebp]
  012f1	e8 00 00 00 00	 call	 ?FillRect@CDC@@QAEXPBUtagRECT@@PAVCBrush@@@Z ; CDC::FillRect
  012f6	c7 45 fc ff ff
	ff ff		 mov	 DWORD PTR __$EHRec$[ebp+8], -1
  012fd	8d 4d d8	 lea	 ecx, DWORD PTR $T191871[ebp]
  01300	e8 00 00 00 00	 call	 ??1CBrush@@UAE@XZ	; CBrush::~CBrush

; 506  : 	}
; 507  : 	else

  01305	e9 97 01 00 00	 jmp	 $L189772
$L189770:

; 508  : 	{
; 509  : 		vector<int>::iterator ite=find(m_vecSearchedItems.begin(),m_vecSearchedItems.end(),iItem);

  0130a	8d 55 10	 lea	 edx, DWORD PTR _iItem$[ebp]
  0130d	52		 push	 edx
  0130e	8d 45 d4	 lea	 eax, DWORD PTR $T191872[ebp]
  01311	50		 push	 eax
  01312	8b 4d f0	 mov	 ecx, DWORD PTR _this$[ebp]
  01315	81 c1 3c 01 00
	00		 add	 ecx, 316		; 0000013cH
  0131b	e8 00 00 00 00	 call	 ?end@?$vector@HV?$allocator@H@std@@@std@@QAE?AViterator@12@XZ ; std::vector<int,std::allocator<int> >::end
  01320	8b 08		 mov	 ecx, DWORD PTR [eax]
  01322	51		 push	 ecx
  01323	8d 55 d0	 lea	 edx, DWORD PTR $T191873[ebp]
  01326	52		 push	 edx
  01327	8b 4d f0	 mov	 ecx, DWORD PTR _this$[ebp]
  0132a	81 c1 3c 01 00
	00		 add	 ecx, 316		; 0000013cH
  01330	e8 00 00 00 00	 call	 ?begin@?$vector@HV?$allocator@H@std@@@std@@QAE?AViterator@12@XZ ; std::vector<int,std::allocator<int> >::begin
  01335	8b 00		 mov	 eax, DWORD PTR [eax]
  01337	50		 push	 eax
  01338	8d 4d e8	 lea	 ecx, DWORD PTR _ite$189890[ebp]
  0133b	51		 push	 ecx
  0133c	e8 00 00 00 00	 call	 ??$find@Viterator@?$vector@HV?$allocator@H@std@@@std@@H@std@@YA?AViterator@?$vector@HV?$allocator@H@std@@@0@V120@0ABH@Z ; std::find<std::vector<int,std::allocator<int> >::iterator,int>
  01341	83 c4 10	 add	 esp, 16			; 00000010H

; 510  : 		if (ite!=m_vecSearchedItems.end())

  01344	8d 55 cc	 lea	 edx, DWORD PTR $T191874[ebp]
  01347	52		 push	 edx
  01348	8b 4d f0	 mov	 ecx, DWORD PTR _this$[ebp]
  0134b	81 c1 3c 01 00
	00		 add	 ecx, 316		; 0000013cH
  01351	e8 00 00 00 00	 call	 ?end@?$vector@HV?$allocator@H@std@@@std@@QAE?AViterator@12@XZ ; std::vector<int,std::allocator<int> >::end
  01356	50		 push	 eax
  01357	8d 4d e8	 lea	 ecx, DWORD PTR _ite$189890[ebp]
  0135a	e8 00 00 00 00	 call	 ??9const_iterator@?$vector@HV?$allocator@H@std@@@std@@QBE_NABV012@@Z ; std::vector<int,std::allocator<int> >::const_iterator::operator!=
  0135f	0f b6 c0	 movzx	 eax, al
  01362	85 c0		 test	 eax, eax
  01364	74 69		 je	 SHORT $L189902

; 511  : 		{
; 512  : 			pDC->SetBkColor( m_colorSearchHightLight);

  01366	8b f4		 mov	 esi, esp
  01368	8b 4d f0	 mov	 ecx, DWORD PTR _this$[ebp]
  0136b	8b 91 4c 01 00
	00		 mov	 edx, DWORD PTR [ecx+332]
  01371	52		 push	 edx
  01372	8b 45 08	 mov	 eax, DWORD PTR _pDC$[ebp]
  01375	8b 10		 mov	 edx, DWORD PTR [eax]
  01377	8b 4d 08	 mov	 ecx, DWORD PTR _pDC$[ebp]
  0137a	ff 52 34	 call	 DWORD PTR [edx+52]
  0137d	3b f4		 cmp	 esi, esp
  0137f	e8 00 00 00 00	 call	 __RTC_CheckEsp

; 513  : 			pDC->FillRect(rect, &CBrush( m_colorSearchHightLight));

  01384	8b 45 f0	 mov	 eax, DWORD PTR _this$[ebp]
  01387	8b 88 4c 01 00
	00		 mov	 ecx, DWORD PTR [eax+332]
  0138d	51		 push	 ecx
  0138e	8d 4d c4	 lea	 ecx, DWORD PTR $T191875[ebp]
  01391	e8 00 00 00 00	 call	 ??0CBrush@@QAE@K@Z	; CBrush::CBrush
  01396	89 45 a8	 mov	 DWORD PTR tv218[ebp], eax
  01399	8b 55 a8	 mov	 edx, DWORD PTR tv218[ebp]
  0139c	89 55 a4	 mov	 DWORD PTR tv212[ebp], edx
  0139f	c7 45 fc 01 00
	00 00		 mov	 DWORD PTR __$EHRec$[ebp+8], 1
  013a6	8b 45 a4	 mov	 eax, DWORD PTR tv212[ebp]
  013a9	50		 push	 eax
  013aa	8b 4d 14	 mov	 ecx, DWORD PTR _rect$[ebp]
  013ad	e8 00 00 00 00	 call	 ??BCRect@@QBEPBUtagRECT@@XZ ; CRect::operator tagRECT const *
  013b2	50		 push	 eax
  013b3	8b 4d 08	 mov	 ecx, DWORD PTR _pDC$[ebp]
  013b6	e8 00 00 00 00	 call	 ?FillRect@CDC@@QAEXPBUtagRECT@@PAVCBrush@@@Z ; CDC::FillRect
  013bb	c7 45 fc ff ff
	ff ff		 mov	 DWORD PTR __$EHRec$[ebp+8], -1
  013c2	8d 4d c4	 lea	 ecx, DWORD PTR $T191875[ebp]
  013c5	e8 00 00 00 00	 call	 ??1CBrush@@UAE@XZ	; CBrush::~CBrush

; 514  : 		}
; 515  : 		else

  013ca	e9 d2 00 00 00	 jmp	 $L189772
$L189902:

; 516  : 		{
; 517  : 			if( iItem % 2 )

  013cf	8b 4d 10	 mov	 ecx, DWORD PTR _iItem$[ebp]
  013d2	81 e1 01 00 00
	80		 and	 ecx, -2147483647	; 80000001H
  013d8	79 05		 jns	 SHORT $L191888
  013da	49		 dec	 ecx
  013db	83 c9 fe	 or	 ecx, -2			; fffffffeH
  013de	41		 inc	 ecx
$L191888:
  013df	85 c9		 test	 ecx, ecx
  013e1	74 60		 je	 SHORT $L189905

; 518  : 			{
; 519  : 				pDC->SetBkColor( m_clrOddItemBK);

  013e3	8b f4		 mov	 esi, esp
  013e5	8b 55 f0	 mov	 edx, DWORD PTR _this$[ebp]
  013e8	8b 42 58	 mov	 eax, DWORD PTR [edx+88]
  013eb	50		 push	 eax
  013ec	8b 4d 08	 mov	 ecx, DWORD PTR _pDC$[ebp]
  013ef	8b 11		 mov	 edx, DWORD PTR [ecx]
  013f1	8b 4d 08	 mov	 ecx, DWORD PTR _pDC$[ebp]
  013f4	ff 52 34	 call	 DWORD PTR [edx+52]
  013f7	3b f4		 cmp	 esi, esp
  013f9	e8 00 00 00 00	 call	 __RTC_CheckEsp

; 520  : 				pDC->FillRect(rect, &CBrush( m_clrOddItemBK));

  013fe	8b 45 f0	 mov	 eax, DWORD PTR _this$[ebp]
  01401	8b 48 58	 mov	 ecx, DWORD PTR [eax+88]
  01404	51		 push	 ecx
  01405	8d 4d bc	 lea	 ecx, DWORD PTR $T191876[ebp]
  01408	e8 00 00 00 00	 call	 ??0CBrush@@QAE@K@Z	; CBrush::CBrush
  0140d	89 45 a0	 mov	 DWORD PTR tv219[ebp], eax
  01410	8b 55 a0	 mov	 edx, DWORD PTR tv219[ebp]
  01413	89 55 9c	 mov	 DWORD PTR tv214[ebp], edx
  01416	c7 45 fc 02 00
	00 00		 mov	 DWORD PTR __$EHRec$[ebp+8], 2
  0141d	8b 45 9c	 mov	 eax, DWORD PTR tv214[ebp]
  01420	50		 push	 eax
  01421	8b 4d 14	 mov	 ecx, DWORD PTR _rect$[ebp]
  01424	e8 00 00 00 00	 call	 ??BCRect@@QBEPBUtagRECT@@XZ ; CRect::operator tagRECT const *
  01429	50		 push	 eax
  0142a	8b 4d 08	 mov	 ecx, DWORD PTR _pDC$[ebp]
  0142d	e8 00 00 00 00	 call	 ?FillRect@CDC@@QAEXPBUtagRECT@@PAVCBrush@@@Z ; CDC::FillRect
  01432	c7 45 fc ff ff
	ff ff		 mov	 DWORD PTR __$EHRec$[ebp+8], -1
  01439	8d 4d bc	 lea	 ecx, DWORD PTR $T191876[ebp]
  0143c	e8 00 00 00 00	 call	 ??1CBrush@@UAE@XZ	; CBrush::~CBrush

; 521  : 			}
; 522  : 			else

  01441	eb 5e		 jmp	 SHORT $L189772
$L189905:

; 523  : 			{
; 524  : 				pDC->SetBkColor( m_clrEvenItemBK );

  01443	8b f4		 mov	 esi, esp
  01445	8b 4d f0	 mov	 ecx, DWORD PTR _this$[ebp]
  01448	8b 51 5c	 mov	 edx, DWORD PTR [ecx+92]
  0144b	52		 push	 edx
  0144c	8b 45 08	 mov	 eax, DWORD PTR _pDC$[ebp]
  0144f	8b 10		 mov	 edx, DWORD PTR [eax]
  01451	8b 4d 08	 mov	 ecx, DWORD PTR _pDC$[ebp]
  01454	ff 52 34	 call	 DWORD PTR [edx+52]
  01457	3b f4		 cmp	 esi, esp
  01459	e8 00 00 00 00	 call	 __RTC_CheckEsp

; 525  : 				pDC->FillRect(rect, &CBrush( m_clrEvenItemBK ));

  0145e	8b 45 f0	 mov	 eax, DWORD PTR _this$[ebp]
  01461	8b 48 5c	 mov	 ecx, DWORD PTR [eax+92]
  01464	51		 push	 ecx
  01465	8d 4d b4	 lea	 ecx, DWORD PTR $T191877[ebp]
  01468	e8 00 00 00 00	 call	 ??0CBrush@@QAE@K@Z	; CBrush::CBrush
  0146d	89 45 98	 mov	 DWORD PTR tv220[ebp], eax
  01470	8b 55 98	 mov	 edx, DWORD PTR tv220[ebp]
  01473	89 55 94	 mov	 DWORD PTR tv216[ebp], edx
  01476	c7 45 fc 03 00
	00 00		 mov	 DWORD PTR __$EHRec$[ebp+8], 3
  0147d	8b 45 94	 mov	 eax, DWORD PTR tv216[ebp]
  01480	50		 push	 eax
  01481	8b 4d 14	 mov	 ecx, DWORD PTR _rect$[ebp]
  01484	e8 00 00 00 00	 call	 ??BCRect@@QBEPBUtagRECT@@XZ ; CRect::operator tagRECT const *
  01489	50		 push	 eax
  0148a	8b 4d 08	 mov	 ecx, DWORD PTR _pDC$[ebp]
  0148d	e8 00 00 00 00	 call	 ?FillRect@CDC@@QAEXPBUtagRECT@@PAVCBrush@@@Z ; CDC::FillRect
  01492	c7 45 fc ff ff
	ff ff		 mov	 DWORD PTR __$EHRec$[ebp+8], -1
  01499	8d 4d b4	 lea	 ecx, DWORD PTR $T191877[ebp]
  0149c	e8 00 00 00 00	 call	 ??1CBrush@@UAE@XZ	; CBrush::~CBrush
$L189772:

; 526  : 			}
; 527  : 		}
; 528  : 	}
; 529  : /*
; 530  : 	if( m_bDrawItemTopLine )
; 531  : 	{
; 532  : 		//Item
; 533  : 		CRect rcTopLine = rect;
; 534  : 		rcTopLine.bottom = rcTopLine.top + 1;
; 535  : 		pDC->FillRect(rcTopLine, &CBrush(RGB(241,246,249)));
; 536  : 	}
; 537  : */
; 538  : 	if( !bHighlight && m_bDrawHoverRow && m_iCurrentCursorItem == iItem )

  014a1	83 7d 0c 00	 cmp	 DWORD PTR _bHighlight$[ebp], 0
  014a5	0f 85 93 00 00
	00		 jne	 $L189769
  014ab	8b 4d f0	 mov	 ecx, DWORD PTR _this$[ebp]
  014ae	0f b6 91 54 01
	00 00		 movzx	 edx, BYTE PTR [ecx+340]
  014b5	85 d2		 test	 edx, edx
  014b7	0f 84 81 00 00
	00		 je	 $L189769
  014bd	8b 45 f0	 mov	 eax, DWORD PTR _this$[ebp]
  014c0	8b 88 80 00 00
	00		 mov	 ecx, DWORD PTR [eax+128]
  014c6	3b 4d 10	 cmp	 ecx, DWORD PTR _iItem$[ebp]
  014c9	75 73		 jne	 SHORT $L189769

; 539  : 	{
; 540  : 		CDibBitmap *pDib = ::AfxGetUIManager()->UIGetSkinMgr()->GetDibBmp("ListHoverBK");

  014cb	e8 00 00 00 00	 call	 ?AfxGetUIManager@@YAPAVIUIManager@@XZ ; AfxGetUIManager
  014d0	89 45 90	 mov	 DWORD PTR tv192[ebp], eax
  014d3	8b f4		 mov	 esi, esp
  014d5	8b 55 90	 mov	 edx, DWORD PTR tv192[ebp]
  014d8	8b 02		 mov	 eax, DWORD PTR [edx]
  014da	8b 4d 90	 mov	 ecx, DWORD PTR tv192[ebp]
  014dd	ff 50 28	 call	 DWORD PTR [eax+40]
  014e0	3b f4		 cmp	 esi, esp
  014e2	e8 00 00 00 00	 call	 __RTC_CheckEsp
  014e7	89 45 8c	 mov	 DWORD PTR tv197[ebp], eax
  014ea	8b f4		 mov	 esi, esp
  014ec	68 00 00 00 00	 push	 OFFSET FLAT:$SG189911
  014f1	8b 4d 8c	 mov	 ecx, DWORD PTR tv197[ebp]
  014f4	8b 11		 mov	 edx, DWORD PTR [ecx]
  014f6	8b 4d 8c	 mov	 ecx, DWORD PTR tv197[ebp]
  014f9	ff 52 04	 call	 DWORD PTR [edx+4]
  014fc	3b f4		 cmp	 esi, esp
  014fe	e8 00 00 00 00	 call	 __RTC_CheckEsp
  01503	89 45 e0	 mov	 DWORD PTR _pDib$189910[ebp], eax

; 541  : 		pDib->SetCDibRect(rect);

  01506	8b 45 14	 mov	 eax, DWORD PTR _rect$[ebp]
  01509	83 ec 10	 sub	 esp, 16			; 00000010H
  0150c	8b cc		 mov	 ecx, esp
  0150e	8b 10		 mov	 edx, DWORD PTR [eax]
  01510	89 11		 mov	 DWORD PTR [ecx], edx
  01512	8b 50 04	 mov	 edx, DWORD PTR [eax+4]
  01515	89 51 04	 mov	 DWORD PTR [ecx+4], edx
  01518	8b 50 08	 mov	 edx, DWORD PTR [eax+8]
  0151b	89 51 08	 mov	 DWORD PTR [ecx+8], edx
  0151e	8b 40 0c	 mov	 eax, DWORD PTR [eax+12]
  01521	89 41 0c	 mov	 DWORD PTR [ecx+12], eax
  01524	8b 4d e0	 mov	 ecx, DWORD PTR _pDib$189910[ebp]
  01527	e8 00 00 00 00	 call	 ?SetCDibRect@CDibBitmap@@QAEXVCRect@@@Z ; CDibBitmap::SetCDibRect

; 542  : 		pDib->Draw(pDC, true);

  0152c	6a 01		 push	 1
  0152e	6a 00		 push	 0
  01530	6a 01		 push	 1
  01532	8b 4d 08	 mov	 ecx, DWORD PTR _pDC$[ebp]
  01535	51		 push	 ecx
  01536	8b 4d e0	 mov	 ecx, DWORD PTR _pDib$189910[ebp]
  01539	e8 00 00 00 00	 call	 ?Draw@CDibBitmap@@QAEHPAVCDC@@HKH@Z ; CDibBitmap::Draw
$L189769:

; 543  : 	}
; 544  : }

  0153e	52		 push	 edx
  0153f	8b cd		 mov	 ecx, ebp
  01541	50		 push	 eax
  01542	8d 15 00 00 00
	00		 lea	 edx, DWORD PTR $L191887
  01548	e8 00 00 00 00	 call	 @_RTC_CheckStackVars@8
  0154d	58		 pop	 eax
  0154e	5a		 pop	 edx
  0154f	8b 4d f4	 mov	 ecx, DWORD PTR __$EHRec$[ebp]
  01552	64 89 0d 00 00
	00 00		 mov	 DWORD PTR fs:__except_list, ecx
  01559	5f		 pop	 edi
  0155a	5e		 pop	 esi
  0155b	83 c4 74	 add	 esp, 116		; 00000074H
  0155e	3b ec		 cmp	 ebp, esp
  01560	e8 00 00 00 00	 call	 __RTC_CheckEsp
  01565	8b e5		 mov	 esp, ebp
  01567	5d		 pop	 ebp
  01568	c2 10 00	 ret	 16			; 00000010H
$L191887:
  0156b	01 00 00 00	 DD	 1
  0156f	00 00 00 00	 DD	 $L191886
$L191886:
  01573	e8 ff ff ff	 DD	 -24			; ffffffe8H
  01577	04 00 00 00	 DD	 4
  0157b	00 00 00 00	 DD	 $L191884
$L191884:
  0157f	69		 DB	 105			; 00000069H
  01580	74		 DB	 116			; 00000074H
  01581	65		 DB	 101			; 00000065H
  01582	00		 DB	 0
_TEXT	ENDS
text$x	SEGMENT
$L191878:
  000c0	8d 4d d8	 lea	 ecx, DWORD PTR $T191871[ebp]
  000c3	e9 00 00 00 00	 jmp	 ??1CBrush@@UAE@XZ	; CBrush::~CBrush
$L191879:
  000c8	8d 4d c4	 lea	 ecx, DWORD PTR $T191875[ebp]
  000cb	e9 00 00 00 00	 jmp	 ??1CBrush@@UAE@XZ	; CBrush::~CBrush
$L191880:
  000d0	8d 4d bc	 lea	 ecx, DWORD PTR $T191876[ebp]
  000d3	e9 00 00 00 00	 jmp	 ??1CBrush@@UAE@XZ	; CBrush::~CBrush
$L191881:
  000d8	8d 4d b4	 lea	 ecx, DWORD PTR $T191877[ebp]
  000db	e9 00 00 00 00	 jmp	 ??1CBrush@@UAE@XZ	; CBrush::~CBrush
__ehhandler$?SetItemBkColor@CMyListCtrl@@UAEXPAVCDC@@HHABVCRect@@@Z:
  000e0	b8 00 00 00 00	 mov	 eax, OFFSET FLAT:$T191883
  000e5	e9 00 00 00 00	 jmp	 ___CxxFrameHandler
text$x	ENDS
?SetItemBkColor@CMyListCtrl@@UAEXPAVCDC@@HHABVCRect@@@Z ENDP ; CMyListCtrl::SetItemBkColor
PUBLIC	?DrawImage@CMyListCtrl@@IAEXPAVCDibBitmap@@ABVCRect@@PAVCDC@@@Z ; CMyListCtrl::DrawImage
EXTRN	?GetStyle@CWnd@@QBEKXZ:NEAR			; CWnd::GetStyle
EXTRN	__imp_??B?$CSimpleStringT@D$00@ATL@@QBEPBDXZ:NEAR
EXTRN	__imp_?GetLength@?$CSimpleStringT@D$00@ATL@@QBEHXZ:NEAR
EXTRN	?SetBkMode@CDC@@QAEHH@Z:NEAR			; CDC::SetBkMode
EXTRN	?GetFocus@CWnd@@SGPAV1@XZ:NEAR			; CWnd::GetFocus
EXTRN	__imp_??1?$CStringT@DV?$StrTraitMFC_DLL@DV?$ChTraitsCRT@D@ATL@@@@@ATL@@QAE@XZ:NEAR
EXTRN	?GetItem@CListCtrl@@QBEHPAUtagLVITEMA@@@Z:NEAR	; CListCtrl::GetItem
EXTRN	?GetItemText@CListCtrl@@QBE?AV?$CStringT@DV?$StrTraitMFC_DLL@DV?$ChTraitsCRT@D@ATL@@@@@ATL@@HH@Z:NEAR ; CListCtrl::GetItemText
xdata$x	SEGMENT
$T191905 DD	0ffffffffH
	DD	FLAT:$L191895
$T191897 DD	019930520H
	DD	01H
	DD	FLAT:$T191905
	DD	2 DUP(00H)
	DD	2 DUP(00H)
; Function compile flags: /Odt /RTCsu
xdata$x	ENDS
_TEXT	SEGMENT
tv146 = -148						; size = 4
_rc$189928 = -140					; size = 16
_bHighlight$189926 = -120				; size = 4
_lvi$189925 = -112					; size = 52
_rcLabel$ = -52						; size = 16
_nJustify$ = -32					; size = 4
_sLabel$ = -24						; size = 4
_this$ = -16						; size = 4
__$EHRec$ = -12						; size = 12
_pDC$ = 8						; size = 4
_iItem$ = 12						; size = 4
_iColumn$ = 16						; size = 4
_rectColumn$ = 20					; size = 4
?DrawTextColumn@CMyListCtrl@@UAEXPAVCDC@@HHABVCRect@@@Z PROC NEAR ; CMyListCtrl::DrawTextColumn
; _this$ = ecx

; 547  : {

  01590	55		 push	 ebp
  01591	8b ec		 mov	 ebp, esp
  01593	6a ff		 push	 -1
  01595	68 00 00 00 00	 push	 __ehhandler$?DrawTextColumn@CMyListCtrl@@UAEXPAVCDC@@HHABVCRect@@@Z
  0159a	64 a1 00 00 00
	00		 mov	 eax, DWORD PTR fs:__except_list
  015a0	50		 push	 eax
  015a1	64 89 25 00 00
	00 00		 mov	 DWORD PTR fs:__except_list, esp
  015a8	81 ec 88 00 00
	00		 sub	 esp, 136		; 00000088H
  015ae	56		 push	 esi
  015af	57		 push	 edi
  015b0	51		 push	 ecx
  015b1	8d bd 6c ff ff
	ff		 lea	 edi, DWORD PTR [ebp-148]
  015b7	b9 22 00 00 00	 mov	 ecx, 34			; 00000022H
  015bc	b8 cc cc cc cc	 mov	 eax, -858993460		; ccccccccH
  015c1	f3 ab		 rep stosd
  015c3	59		 pop	 ecx
  015c4	89 4d f0	 mov	 DWORD PTR _this$[ebp], ecx

; 548  : 	CString sLabel = GetItemText(iItem, iColumn);

  015c7	8b 45 10	 mov	 eax, DWORD PTR _iColumn$[ebp]
  015ca	50		 push	 eax
  015cb	8b 4d 0c	 mov	 ecx, DWORD PTR _iItem$[ebp]
  015ce	51		 push	 ecx
  015cf	8d 55 e8	 lea	 edx, DWORD PTR _sLabel$[ebp]
  015d2	52		 push	 edx
  015d3	8b 4d f0	 mov	 ecx, DWORD PTR _this$[ebp]
  015d6	e8 00 00 00 00	 call	 ?GetItemText@CListCtrl@@QBE?AV?$CStringT@DV?$StrTraitMFC_DLL@DV?$ChTraitsCRT@D@ATL@@@@@ATL@@HH@Z ; CListCtrl::GetItemText
  015db	c7 45 fc 00 00
	00 00		 mov	 DWORD PTR __$EHRec$[ebp+8], 0

; 549  : 	if (sLabel.GetLength() == 0)

  015e2	8b f4		 mov	 esi, esp
  015e4	8d 4d e8	 lea	 ecx, DWORD PTR _sLabel$[ebp]
  015e7	ff 15 00 00 00
	00		 call	 DWORD PTR __imp_?GetLength@?$CSimpleStringT@D$00@ATL@@QBEHXZ
  015ed	3b f4		 cmp	 esi, esp
  015ef	e8 00 00 00 00	 call	 __RTC_CheckEsp
  015f4	85 c0		 test	 eax, eax
  015f6	75 1e		 jne	 SHORT $L189921

; 550  : 	{
; 551  : 		return;

  015f8	c7 45 fc ff ff
	ff ff		 mov	 DWORD PTR __$EHRec$[ebp+8], -1
  015ff	8b f4		 mov	 esi, esp
  01601	8d 4d e8	 lea	 ecx, DWORD PTR _sLabel$[ebp]
  01604	ff 15 00 00 00
	00		 call	 DWORD PTR __imp_??1?$CStringT@DV?$StrTraitMFC_DLL@DV?$ChTraitsCRT@D@ATL@@@@@ATL@@QAE@XZ
  0160a	3b f4		 cmp	 esi, esp
  0160c	e8 00 00 00 00	 call	 __RTC_CheckEsp
  01611	e9 ed 01 00 00	 jmp	 $L189918
$L189921:

; 552  : 	}
; 553  : 
; 554  : 	// Get the text justification
; 555  : 	UINT nJustify = DT_LEFT;

  01616	c7 45 e0 00 00
	00 00		 mov	 DWORD PTR _nJustify$[ebp], 0

; 556  : 	CRect rcLabel = rectColumn;

  0161d	8b 45 14	 mov	 eax, DWORD PTR _rectColumn$[ebp]
  01620	8b 08		 mov	 ecx, DWORD PTR [eax]
  01622	89 4d cc	 mov	 DWORD PTR _rcLabel$[ebp], ecx
  01625	8b 50 04	 mov	 edx, DWORD PTR [eax+4]
  01628	89 55 d0	 mov	 DWORD PTR _rcLabel$[ebp+4], edx
  0162b	8b 48 08	 mov	 ecx, DWORD PTR [eax+8]
  0162e	89 4d d4	 mov	 DWORD PTR _rcLabel$[ebp+8], ecx
  01631	8b 50 0c	 mov	 edx, DWORD PTR [eax+12]
  01634	89 55 d8	 mov	 DWORD PTR _rcLabel$[ebp+12], edx

; 557  : 	rcLabel.left += m_iOffset;

  01637	8b 45 f0	 mov	 eax, DWORD PTR _this$[ebp]
  0163a	8b 4d cc	 mov	 ecx, DWORD PTR _rcLabel$[ebp]
  0163d	03 48 7c	 add	 ecx, DWORD PTR [eax+124]
  01640	89 4d cc	 mov	 DWORD PTR _rcLabel$[ebp], ecx

; 558  : 	rcLabel.right -= m_iOffset;

  01643	8b 55 f0	 mov	 edx, DWORD PTR _this$[ebp]
  01646	8b 45 d4	 mov	 eax, DWORD PTR _rcLabel$[ebp+8]
  01649	2b 42 7c	 sub	 eax, DWORD PTR [edx+124]
  0164c	89 45 d4	 mov	 DWORD PTR _rcLabel$[ebp+8], eax

; 559  : 
; 560  : 	pDC->SetBkMode(TRANSPARENT);

  0164f	6a 01		 push	 1
  01651	8b 4d 08	 mov	 ecx, DWORD PTR _pDC$[ebp]
  01654	e8 00 00 00 00	 call	 ?SetBkMode@CDC@@QAEHH@Z	; CDC::SetBkMode

; 561  : 
; 562  : 	pDC->DrawText(sLabel, -1, rcLabel, nJustify | DT_SINGLELINE | DT_NOPREFIX | DT_VCENTER | DT_END_ELLIPSIS);

  01659	8b 4d e0	 mov	 ecx, DWORD PTR _nJustify$[ebp]
  0165c	83 c9 20	 or	 ecx, 32			; 00000020H
  0165f	81 c9 00 08 00
	00		 or	 ecx, 2048		; 00000800H
  01665	83 c9 04	 or	 ecx, 4
  01668	81 c9 00 80 00
	00		 or	 ecx, 32768		; 00008000H
  0166e	8b f4		 mov	 esi, esp
  01670	51		 push	 ecx
  01671	8d 4d cc	 lea	 ecx, DWORD PTR _rcLabel$[ebp]
  01674	e8 00 00 00 00	 call	 ??BCRect@@QAEPAUtagRECT@@XZ ; CRect::operator tagRECT *
  01679	50		 push	 eax
  0167a	6a ff		 push	 -1
  0167c	8b fc		 mov	 edi, esp
  0167e	8d 4d e8	 lea	 ecx, DWORD PTR _sLabel$[ebp]
  01681	ff 15 00 00 00
	00		 call	 DWORD PTR __imp_??B?$CSimpleStringT@D$00@ATL@@QBEPBDXZ
  01687	3b fc		 cmp	 edi, esp
  01689	e8 00 00 00 00	 call	 __RTC_CheckEsp
  0168e	50		 push	 eax
  0168f	8b 55 08	 mov	 edx, DWORD PTR _pDC$[ebp]
  01692	8b 02		 mov	 eax, DWORD PTR [edx]
  01694	8b 4d 08	 mov	 ecx, DWORD PTR _pDC$[ebp]
  01697	ff 50 70	 call	 DWORD PTR [eax+112]
  0169a	3b f4		 cmp	 esi, esp
  0169c	e8 00 00 00 00	 call	 __RTC_CheckEsp

; 563  : 
; 564  : 	if( m_mapColumnInfo[iColumn].bOperatorBtn )

  016a1	8d 4d 10	 lea	 ecx, DWORD PTR _iColumn$[ebp]
  016a4	51		 push	 ecx
  016a5	8b 4d f0	 mov	 ecx, DWORD PTR _this$[ebp]
  016a8	81 c1 94 00 00
	00		 add	 ecx, 148		; 00000094H
  016ae	e8 00 00 00 00	 call	 ??A?$map@HUMYLIST_COLUMN_INFO@@U?$less@H@std@@V?$allocator@U?$pair@$$CBHUMYLIST_COLUMN_INFO@@@std@@@3@@std@@QAEAAUMYLIST_COLUMN_INFO@@ABH@Z ; std::map<int,MYLIST_COLUMN_INFO,std::less<int>,std::allocator<std::pair<int const ,MYLIST_COLUMN_INFO> > >::operator[]
  016b3	0f b6 50 28	 movzx	 edx, BYTE PTR [eax+40]
  016b7	85 d2		 test	 edx, edx
  016b9	0f 84 2b 01 00
	00		 je	 $L189924

; 565  : 	{
; 566  : 		LV_ITEM lvi;
; 567  : 		lvi.mask		= LVIF_STATE;

  016bf	c7 45 90 08 00
	00 00		 mov	 DWORD PTR _lvi$189925[ebp], 8

; 568  : 		lvi.iItem		= iItem;

  016c6	8b 45 0c	 mov	 eax, DWORD PTR _iItem$[ebp]
  016c9	89 45 94	 mov	 DWORD PTR _lvi$189925[ebp+4], eax

; 569  : 		lvi.iSubItem	= 0;

  016cc	c7 45 98 00 00
	00 00		 mov	 DWORD PTR _lvi$189925[ebp+8], 0

; 570  : 		lvi.stateMask	= 0xFFFF;   

  016d3	c7 45 a0 ff ff
	00 00		 mov	 DWORD PTR _lvi$189925[ebp+16], 65535 ; 0000ffffH

; 571  : 		GetItem(&lvi);

  016da	8d 4d 90	 lea	 ecx, DWORD PTR _lvi$189925[ebp]
  016dd	51		 push	 ecx
  016de	8b 4d f0	 mov	 ecx, DWORD PTR _this$[ebp]
  016e1	e8 00 00 00 00	 call	 ?GetItem@CListCtrl@@QBEHPAUtagLVITEMA@@@Z ; CListCtrl::GetItem

; 572  : 
; 573  : 		BOOL bHighlight =( (lvi.state & LVIS_DROPHILITED) || ( (lvi.state & LVIS_SELECTED)&& ((GetFocus() == this)|| (GetStyle() & LVS_SHOWSELALWAYS)	)	)		);

  016e6	8b 55 9c	 mov	 edx, DWORD PTR _lvi$189925[ebp+12]
  016e9	83 e2 08	 and	 edx, 8
  016ec	75 2b		 jne	 SHORT $L191891
  016ee	8b 45 9c	 mov	 eax, DWORD PTR _lvi$189925[ebp+12]
  016f1	83 e0 02	 and	 eax, 2
  016f4	74 17		 je	 SHORT $L191892
  016f6	e8 00 00 00 00	 call	 ?GetFocus@CWnd@@SGPAV1@XZ ; CWnd::GetFocus
  016fb	3b 45 f0	 cmp	 eax, DWORD PTR _this$[ebp]
  016fe	74 19		 je	 SHORT $L191891
  01700	8b 4d f0	 mov	 ecx, DWORD PTR _this$[ebp]
  01703	e8 00 00 00 00	 call	 ?GetStyle@CWnd@@QBEKXZ	; CWnd::GetStyle
  01708	83 e0 08	 and	 eax, 8
  0170b	75 0c		 jne	 SHORT $L191891
$L191892:
  0170d	c7 85 6c ff ff
	ff 00 00 00 00	 mov	 DWORD PTR tv146[ebp], 0
  01717	eb 0a		 jmp	 SHORT $L191894
$L191891:
  01719	c7 85 6c ff ff
	ff 01 00 00 00	 mov	 DWORD PTR tv146[ebp], 1
$L191894:
  01723	8b 8d 6c ff ff
	ff		 mov	 ecx, DWORD PTR tv146[ebp]
  01729	89 4d 88	 mov	 DWORD PTR _bHighlight$189926[ebp], ecx

; 574  : 
; 575  : 		if( !bHighlight )

  0172c	83 7d 88 00	 cmp	 DWORD PTR _bHighlight$189926[ebp], 0
  01730	75 1e		 jne	 SHORT $L189927

; 576  : 		{
; 577  : 			return;

  01732	c7 45 fc ff ff
	ff ff		 mov	 DWORD PTR __$EHRec$[ebp+8], -1
  01739	8b f4		 mov	 esi, esp
  0173b	8d 4d e8	 lea	 ecx, DWORD PTR _sLabel$[ebp]
  0173e	ff 15 00 00 00
	00		 call	 DWORD PTR __imp_??1?$CStringT@DV?$StrTraitMFC_DLL@DV?$ChTraitsCRT@D@ATL@@@@@ATL@@QAE@XZ
  01744	3b f4		 cmp	 esi, esp
  01746	e8 00 00 00 00	 call	 __RTC_CheckEsp
  0174b	e9 b3 00 00 00	 jmp	 $L189918
$L189927:

; 578  : 		}
; 579  : 
; 580  : 		CRect rc = CRect(rectColumn.right-20, rectColumn.top, rectColumn.right, rectColumn.bottom);

  01750	8b 55 14	 mov	 edx, DWORD PTR _rectColumn$[ebp]
  01753	8b 42 0c	 mov	 eax, DWORD PTR [edx+12]
  01756	50		 push	 eax
  01757	8b 4d 14	 mov	 ecx, DWORD PTR _rectColumn$[ebp]
  0175a	8b 51 08	 mov	 edx, DWORD PTR [ecx+8]
  0175d	52		 push	 edx
  0175e	8b 45 14	 mov	 eax, DWORD PTR _rectColumn$[ebp]
  01761	8b 48 04	 mov	 ecx, DWORD PTR [eax+4]
  01764	51		 push	 ecx
  01765	8b 55 14	 mov	 edx, DWORD PTR _rectColumn$[ebp]
  01768	8b 42 08	 mov	 eax, DWORD PTR [edx+8]
  0176b	83 e8 14	 sub	 eax, 20			; 00000014H
  0176e	50		 push	 eax
  0176f	8d 8d 74 ff ff
	ff		 lea	 ecx, DWORD PTR _rc$189928[ebp]
  01775	e8 00 00 00 00	 call	 ??0CRect@@QAE@HHHH@Z	; CRect::CRect

; 581  : 		if( m_iOverImageItem == iItem && m_iOverImageSubItem == iColumn )

  0177a	8b 4d f0	 mov	 ecx, DWORD PTR _this$[ebp]
  0177d	8b 91 88 00 00
	00		 mov	 edx, DWORD PTR [ecx+136]
  01783	3b 55 0c	 cmp	 edx, DWORD PTR _iItem$[ebp]
  01786	75 39		 jne	 SHORT $L189930
  01788	8b 45 f0	 mov	 eax, DWORD PTR _this$[ebp]
  0178b	8b 88 8c 00 00
	00		 mov	 ecx, DWORD PTR [eax+140]
  01791	3b 4d 10	 cmp	 ecx, DWORD PTR _iColumn$[ebp]
  01794	75 2b		 jne	 SHORT $L189930

; 582  : 		{
; 583  : 			DrawImage(  m_mapColumnInfo[iColumn].ColumnOperatorImage.pBitmapOver,rc,pDC );

  01796	8b 55 08	 mov	 edx, DWORD PTR _pDC$[ebp]
  01799	52		 push	 edx
  0179a	8d 85 74 ff ff
	ff		 lea	 eax, DWORD PTR _rc$189928[ebp]
  017a0	50		 push	 eax
  017a1	8d 4d 10	 lea	 ecx, DWORD PTR _iColumn$[ebp]
  017a4	51		 push	 ecx
  017a5	8b 4d f0	 mov	 ecx, DWORD PTR _this$[ebp]
  017a8	81 c1 94 00 00
	00		 add	 ecx, 148		; 00000094H
  017ae	e8 00 00 00 00	 call	 ??A?$map@HUMYLIST_COLUMN_INFO@@U?$less@H@std@@V?$allocator@U?$pair@$$CBHUMYLIST_COLUMN_INFO@@@std@@@3@@std@@QAEAAUMYLIST_COLUMN_INFO@@ABH@Z ; std::map<int,MYLIST_COLUMN_INFO,std::less<int>,std::allocator<std::pair<int const ,MYLIST_COLUMN_INFO> > >::operator[]
  017b3	8b 50 44	 mov	 edx, DWORD PTR [eax+68]
  017b6	52		 push	 edx
  017b7	8b 4d f0	 mov	 ecx, DWORD PTR _this$[ebp]
  017ba	e8 00 00 00 00	 call	 ?DrawImage@CMyListCtrl@@IAEXPAVCDibBitmap@@ABVCRect@@PAVCDC@@@Z ; CMyListCtrl::DrawImage

; 584  : 		}
; 585  : 		else

  017bf	eb 29		 jmp	 SHORT $L189924
$L189930:

; 586  : 		{
; 587  : 			DrawImage(  m_mapColumnInfo[iColumn].ColumnOperatorImage.pBitmapNormal,rc,pDC );

  017c1	8b 45 08	 mov	 eax, DWORD PTR _pDC$[ebp]
  017c4	50		 push	 eax
  017c5	8d 8d 74 ff ff
	ff		 lea	 ecx, DWORD PTR _rc$189928[ebp]
  017cb	51		 push	 ecx
  017cc	8d 55 10	 lea	 edx, DWORD PTR _iColumn$[ebp]
  017cf	52		 push	 edx
  017d0	8b 4d f0	 mov	 ecx, DWORD PTR _this$[ebp]
  017d3	81 c1 94 00 00
	00		 add	 ecx, 148		; 00000094H
  017d9	e8 00 00 00 00	 call	 ??A?$map@HUMYLIST_COLUMN_INFO@@U?$less@H@std@@V?$allocator@U?$pair@$$CBHUMYLIST_COLUMN_INFO@@@std@@@3@@std@@QAEAAUMYLIST_COLUMN_INFO@@ABH@Z ; std::map<int,MYLIST_COLUMN_INFO,std::less<int>,std::allocator<std::pair<int const ,MYLIST_COLUMN_INFO> > >::operator[]
  017de	8b 40 3c	 mov	 eax, DWORD PTR [eax+60]
  017e1	50		 push	 eax
  017e2	8b 4d f0	 mov	 ecx, DWORD PTR _this$[ebp]
  017e5	e8 00 00 00 00	 call	 ?DrawImage@CMyListCtrl@@IAEXPAVCDibBitmap@@ABVCRect@@PAVCDC@@@Z ; CMyListCtrl::DrawImage
$L189924:

; 588  : 		}
; 589  : 	}
; 590  : }

  017ea	c7 45 fc ff ff
	ff ff		 mov	 DWORD PTR __$EHRec$[ebp+8], -1
  017f1	8b f4		 mov	 esi, esp
  017f3	8d 4d e8	 lea	 ecx, DWORD PTR _sLabel$[ebp]
  017f6	ff 15 00 00 00
	00		 call	 DWORD PTR __imp_??1?$CStringT@DV?$StrTraitMFC_DLL@DV?$ChTraitsCRT@D@ATL@@@@@ATL@@QAE@XZ
  017fc	3b f4		 cmp	 esi, esp
  017fe	e8 00 00 00 00	 call	 __RTC_CheckEsp
$L189918:
  01803	52		 push	 edx
  01804	8b cd		 mov	 ecx, ebp
  01806	50		 push	 eax
  01807	8d 15 00 00 00
	00		 lea	 edx, DWORD PTR $L191904
  0180d	e8 00 00 00 00	 call	 @_RTC_CheckStackVars@8
  01812	58		 pop	 eax
  01813	5a		 pop	 edx
  01814	8b 4d f4	 mov	 ecx, DWORD PTR __$EHRec$[ebp]
  01817	64 89 0d 00 00
	00 00		 mov	 DWORD PTR fs:__except_list, ecx
  0181e	5f		 pop	 edi
  0181f	5e		 pop	 esi
  01820	81 c4 94 00 00
	00		 add	 esp, 148		; 00000094H
  01826	3b ec		 cmp	 ebp, esp
  01828	e8 00 00 00 00	 call	 __RTC_CheckEsp
  0182d	8b e5		 mov	 esp, ebp
  0182f	5d		 pop	 ebp
  01830	c2 10 00	 ret	 16			; 00000010H
$L191904:
  01833	04 00 00 00	 DD	 4
  01837	00 00 00 00	 DD	 $L191903
$L191903:
  0183b	e8 ff ff ff	 DD	 -24			; ffffffe8H
  0183f	04 00 00 00	 DD	 4
  01843	00 00 00 00	 DD	 $L191898
  01847	cc ff ff ff	 DD	 -52			; ffffffccH
  0184b	10 00 00 00	 DD	 16			; 00000010H
  0184f	00 00 00 00	 DD	 $L191899
  01853	90 ff ff ff	 DD	 -112			; ffffff90H
  01857	34 00 00 00	 DD	 52			; 00000034H
  0185b	00 00 00 00	 DD	 $L191900
  0185f	74 ff ff ff	 DD	 -140			; ffffff74H
  01863	10 00 00 00	 DD	 16			; 00000010H
  01867	00 00 00 00	 DD	 $L191901
$L191901:
  0186b	72		 DB	 114			; 00000072H
  0186c	63		 DB	 99			; 00000063H
  0186d	00		 DB	 0
$L191900:
  0186e	6c		 DB	 108			; 0000006cH
  0186f	76		 DB	 118			; 00000076H
  01870	69		 DB	 105			; 00000069H
  01871	00		 DB	 0
$L191899:
  01872	72		 DB	 114			; 00000072H
  01873	63		 DB	 99			; 00000063H
  01874	4c		 DB	 76			; 0000004cH
  01875	61		 DB	 97			; 00000061H
  01876	62		 DB	 98			; 00000062H
  01877	65		 DB	 101			; 00000065H
  01878	6c		 DB	 108			; 0000006cH
  01879	00		 DB	 0
$L191898:
  0187a	73		 DB	 115			; 00000073H
  0187b	4c		 DB	 76			; 0000004cH
  0187c	61		 DB	 97			; 00000061H
  0187d	62		 DB	 98			; 00000062H
  0187e	65		 DB	 101			; 00000065H
  0187f	6c		 DB	 108			; 0000006cH
  01880	00		 DB	 0
_TEXT	ENDS
text$x	SEGMENT
$L191895:
  000ea	8b f4		 mov	 esi, esp
  000ec	8d 4d e8	 lea	 ecx, DWORD PTR _sLabel$[ebp]
  000ef	ff 15 00 00 00
	00		 call	 DWORD PTR __imp_??1?$CStringT@DV?$StrTraitMFC_DLL@DV?$ChTraitsCRT@D@ATL@@@@@ATL@@QAE@XZ
  000f5	3b f4		 cmp	 esi, esp
  000f7	e9 00 00 00 00	 jmp	 __RTC_CheckEsp
__ehhandler$?DrawTextColumn@CMyListCtrl@@UAEXPAVCDC@@HHABVCRect@@@Z:
  000fc	b8 00 00 00 00	 mov	 eax, OFFSET FLAT:$T191897
  00101	e9 00 00 00 00	 jmp	 ___CxxFrameHandler
text$x	ENDS
?DrawTextColumn@CMyListCtrl@@UAEXPAVCDC@@HHABVCRect@@@Z ENDP ; CMyListCtrl::DrawTextColumn
; Function compile flags: /Odt /RTCsu
_TEXT	SEGMENT
_this$ = -4						; size = 4
_pt$ = 8						; size = 4
?NeedChangeCursor@CMyListCtrl@@UAEHAAVCPoint@@@Z PROC NEAR ; CMyListCtrl::NeedChangeCursor
; _this$ = ecx

; 593  : {

  01890	55		 push	 ebp
  01891	8b ec		 mov	 ebp, esp
  01893	51		 push	 ecx
  01894	c7 45 fc cc cc
	cc cc		 mov	 DWORD PTR [ebp-4], -858993460 ; ccccccccH
  0189b	89 4d fc	 mov	 DWORD PTR _this$[ebp], ecx

; 594  : 	return FALSE;

  0189e	33 c0		 xor	 eax, eax

; 595  : }

  018a0	8b e5		 mov	 esp, ebp
  018a2	5d		 pop	 ebp
  018a3	c2 04 00	 ret	 4
?NeedChangeCursor@CMyListCtrl@@UAEHAAVCPoint@@@Z ENDP	; CMyListCtrl::NeedChangeCursor
; Function compile flags: /Odt /RTCsu
_this$ = -4						; size = 4
_pDC$ = 8						; size = 4
_iItem$ = 12						; size = 4
_iColumn$ = 16						; size = 4
_rect$ = 20						; size = 4
_bSelected$ = 24					; size = 4
?DrawImageColumn@CMyListCtrl@@UAEXPAVCDC@@HHABVCRect@@H@Z PROC NEAR ; CMyListCtrl::DrawImageColumn
; _this$ = ecx

; 598  : {

  018b0	55		 push	 ebp
  018b1	8b ec		 mov	 ebp, esp
  018b3	51		 push	 ecx
  018b4	c7 45 fc cc cc
	cc cc		 mov	 DWORD PTR [ebp-4], -858993460 ; ccccccccH
  018bb	89 4d fc	 mov	 DWORD PTR _this$[ebp], ecx

; 599  : 	if( m_iOverImageItem == iItem && m_iOverImageSubItem == iColumn )

  018be	8b 45 fc	 mov	 eax, DWORD PTR _this$[ebp]
  018c1	8b 88 88 00 00
	00		 mov	 ecx, DWORD PTR [eax+136]
  018c7	3b 4d 0c	 cmp	 ecx, DWORD PTR _iItem$[ebp]
  018ca	75 36		 jne	 SHORT $L189944
  018cc	8b 55 fc	 mov	 edx, DWORD PTR _this$[ebp]
  018cf	8b 82 8c 00 00
	00		 mov	 eax, DWORD PTR [edx+140]
  018d5	3b 45 10	 cmp	 eax, DWORD PTR _iColumn$[ebp]
  018d8	75 28		 jne	 SHORT $L189944

; 600  : 	{
; 601  : 		DrawImage( m_mapColumnInfo[iColumn].ColumnImage.pBitmapOver,rect,pDC);

  018da	8b 4d 08	 mov	 ecx, DWORD PTR _pDC$[ebp]
  018dd	51		 push	 ecx
  018de	8b 55 14	 mov	 edx, DWORD PTR _rect$[ebp]
  018e1	52		 push	 edx
  018e2	8d 45 10	 lea	 eax, DWORD PTR _iColumn$[ebp]
  018e5	50		 push	 eax
  018e6	8b 4d fc	 mov	 ecx, DWORD PTR _this$[ebp]
  018e9	81 c1 94 00 00
	00		 add	 ecx, 148		; 00000094H
  018ef	e8 00 00 00 00	 call	 ??A?$map@HUMYLIST_COLUMN_INFO@@U?$less@H@std@@V?$allocator@U?$pair@$$CBHUMYLIST_COLUMN_INFO@@@std@@@3@@std@@QAEAAUMYLIST_COLUMN_INFO@@ABH@Z ; std::map<int,MYLIST_COLUMN_INFO,std::less<int>,std::allocator<std::pair<int const ,MYLIST_COLUMN_INFO> > >::operator[]
  018f4	8b 48 34	 mov	 ecx, DWORD PTR [eax+52]
  018f7	51		 push	 ecx
  018f8	8b 4d fc	 mov	 ecx, DWORD PTR _this$[ebp]
  018fb	e8 00 00 00 00	 call	 ?DrawImage@CMyListCtrl@@IAEXPAVCDibBitmap@@ABVCRect@@PAVCDC@@@Z ; CMyListCtrl::DrawImage

; 602  : 		return;

  01900	eb 54		 jmp	 SHORT $L189943
$L189944:

; 603  : 	}
; 604  : 
; 605  : 	if( bSelected )

  01902	83 7d 18 00	 cmp	 DWORD PTR _bSelected$[ebp], 0
  01906	74 28		 je	 SHORT $L189945

; 606  : 	{
; 607  : 		DrawImage( m_mapColumnInfo[iColumn].ColumnImage.pBitmapSelected,rect,pDC);

  01908	8b 55 08	 mov	 edx, DWORD PTR _pDC$[ebp]
  0190b	52		 push	 edx
  0190c	8b 45 14	 mov	 eax, DWORD PTR _rect$[ebp]
  0190f	50		 push	 eax
  01910	8d 4d 10	 lea	 ecx, DWORD PTR _iColumn$[ebp]
  01913	51		 push	 ecx
  01914	8b 4d fc	 mov	 ecx, DWORD PTR _this$[ebp]
  01917	81 c1 94 00 00
	00		 add	 ecx, 148		; 00000094H
  0191d	e8 00 00 00 00	 call	 ??A?$map@HUMYLIST_COLUMN_INFO@@U?$less@H@std@@V?$allocator@U?$pair@$$CBHUMYLIST_COLUMN_INFO@@@std@@@3@@std@@QAEAAUMYLIST_COLUMN_INFO@@ABH@Z ; std::map<int,MYLIST_COLUMN_INFO,std::less<int>,std::allocator<std::pair<int const ,MYLIST_COLUMN_INFO> > >::operator[]
  01922	8b 50 30	 mov	 edx, DWORD PTR [eax+48]
  01925	52		 push	 edx
  01926	8b 4d fc	 mov	 ecx, DWORD PTR _this$[ebp]
  01929	e8 00 00 00 00	 call	 ?DrawImage@CMyListCtrl@@IAEXPAVCDibBitmap@@ABVCRect@@PAVCDC@@@Z ; CMyListCtrl::DrawImage

; 608  : 		return;

  0192e	eb 26		 jmp	 SHORT $L189943
$L189945:

; 609  : 	}	
; 610  : 	DrawImage( m_mapColumnInfo[iColumn].ColumnImage.pBitmapNormal,rect,pDC);

  01930	8b 45 08	 mov	 eax, DWORD PTR _pDC$[ebp]
  01933	50		 push	 eax
  01934	8b 4d 14	 mov	 ecx, DWORD PTR _rect$[ebp]
  01937	51		 push	 ecx
  01938	8d 55 10	 lea	 edx, DWORD PTR _iColumn$[ebp]
  0193b	52		 push	 edx
  0193c	8b 4d fc	 mov	 ecx, DWORD PTR _this$[ebp]
  0193f	81 c1 94 00 00
	00		 add	 ecx, 148		; 00000094H
  01945	e8 00 00 00 00	 call	 ??A?$map@HUMYLIST_COLUMN_INFO@@U?$less@H@std@@V?$allocator@U?$pair@$$CBHUMYLIST_COLUMN_INFO@@@std@@@3@@std@@QAEAAUMYLIST_COLUMN_INFO@@ABH@Z ; std::map<int,MYLIST_COLUMN_INFO,std::less<int>,std::allocator<std::pair<int const ,MYLIST_COLUMN_INFO> > >::operator[]
  0194a	8b 40 2c	 mov	 eax, DWORD PTR [eax+44]
  0194d	50		 push	 eax
  0194e	8b 4d fc	 mov	 ecx, DWORD PTR _this$[ebp]
  01951	e8 00 00 00 00	 call	 ?DrawImage@CMyListCtrl@@IAEXPAVCDibBitmap@@ABVCRect@@PAVCDC@@@Z ; CMyListCtrl::DrawImage
$L189943:

; 611  : }

  01956	83 c4 04	 add	 esp, 4
  01959	3b ec		 cmp	 ebp, esp
  0195b	e8 00 00 00 00	 call	 __RTC_CheckEsp
  01960	8b e5		 mov	 esp, ebp
  01962	5d		 pop	 ebp
  01963	c2 14 00	 ret	 20			; 00000014H
?DrawImageColumn@CMyListCtrl@@UAEXPAVCDC@@HHABVCRect@@H@Z ENDP ; CMyListCtrl::DrawImageColumn
_TEXT	ENDS
PUBLIC	?PointInSubitemImage@CMyListCtrl@@IAEHAAVCPoint@@@Z ; CMyListCtrl::PointInSubitemImage
PUBLIC	??0MYLIST_COLUMN_INFO@@QAE@XZ			; MYLIST_COLUMN_INFO::MYLIST_COLUMN_INFO
PUBLIC	??1MYLIST_COLUMN_INFO@@QAE@XZ			; MYLIST_COLUMN_INFO::~MYLIST_COLUMN_INFO
EXTRN	??0CSize@@QAE@HH@Z:NEAR				; CSize::CSize
EXTRN	??0CPoint@@QAE@XZ:NEAR				; CPoint::CPoint
EXTRN	___security_cookie:DWORD
EXTRN	@__security_check_cookie@4:NEAR
EXTRN	??0CRect@@QAE@UtagPOINT@@UtagSIZE@@@Z:NEAR	; CRect::CRect
EXTRN	?CenterPoint@CRect@@QBE?AVCPoint@@XZ:NEAR	; CRect::CenterPoint
EXTRN	__imp__PtInRect@12:NEAR
xdata$x	SEGMENT
$T191931 DD	0ffffffffH
	DD	FLAT:$L191919
$T191921 DD	019930520H
	DD	01H
	DD	FLAT:$T191931
	DD	2 DUP(00H)
	DD	2 DUP(00H)
; Function compile flags: /Odt /RTCsu
xdata$x	ENDS
_TEXT	SEGMENT
$T191918 = -212						; size = 4
$T191917 = -208						; size = 4
$T191916 = -204						; size = 8
$T191915 = -196						; size = 8
$T191914 = -188						; size = 8
$T191913 = -180						; size = 16
$T191912 = -164						; size = 8
$T191911 = -156						; size = 8
$T191910 = -148						; size = 4
_rectSubItem$ = -140					; size = 16
_pointImage$ = -116					; size = 8
_columnInfo$ = -100					; size = 76
_this$ = -20						; size = 4
__$ArrayPad$ = -16					; size = 4
__$EHRec$ = -12						; size = 12
__$ReturnAddr$ = 4					; size = 4
_pt$ = 8						; size = 4
?PointInSubitemImage@CMyListCtrl@@IAEHAAVCPoint@@@Z PROC NEAR ; CMyListCtrl::PointInSubitemImage
; _this$ = ecx

; 614  : {

  01970	55		 push	 ebp
  01971	8b ec		 mov	 ebp, esp
  01973	6a ff		 push	 -1
  01975	68 00 00 00 00	 push	 __ehhandler$?PointInSubitemImage@CMyListCtrl@@IAEHAAVCPoint@@@Z
  0197a	64 a1 00 00 00
	00		 mov	 eax, DWORD PTR fs:__except_list
  01980	50		 push	 eax
  01981	64 89 25 00 00
	00 00		 mov	 DWORD PTR fs:__except_list, esp
  01988	81 ec c8 00 00
	00		 sub	 esp, 200		; 000000c8H
  0198e	56		 push	 esi
  0198f	57		 push	 edi
  01990	51		 push	 ecx
  01991	8d bd 2c ff ff
	ff		 lea	 edi, DWORD PTR [ebp-212]
  01997	b9 32 00 00 00	 mov	 ecx, 50			; 00000032H
  0199c	b8 cc cc cc cc	 mov	 eax, -858993460		; ccccccccH
  019a1	f3 ab		 rep stosd
  019a3	59		 pop	 ecx
  019a4	a1 00 00 00 00	 mov	 eax, DWORD PTR ___security_cookie
  019a9	89 45 f0	 mov	 DWORD PTR __$ArrayPad$[ebp], eax
  019ac	89 4d ec	 mov	 DWORD PTR _this$[ebp], ecx

; 615  : 	MYLIST_COLUMN_INFO columnInfo;

  019af	8d 4d 9c	 lea	 ecx, DWORD PTR _columnInfo$[ebp]
  019b2	e8 00 00 00 00	 call	 ??0MYLIST_COLUMN_INFO@@QAE@XZ ; MYLIST_COLUMN_INFO::MYLIST_COLUMN_INFO
  019b7	c7 45 fc 00 00
	00 00		 mov	 DWORD PTR __$EHRec$[ebp+8], 0

; 616  : 	CPoint pointImage;

  019be	8d 4d 8c	 lea	 ecx, DWORD PTR _pointImage$[ebp]
  019c1	e8 00 00 00 00	 call	 ??0CPoint@@QAE@XZ	; CPoint::CPoint

; 617  : 	CRect  rectSubItem;

  019c6	8d 8d 74 ff ff
	ff		 lea	 ecx, DWORD PTR _rectSubItem$[ebp]
  019cc	e8 00 00 00 00	 call	 ??0CRect@@QAE@XZ	; CRect::CRect

; 618  : 
; 619  : 	if( m_iCurrentCursorItem == -1 || m_iCurrentCursorSubItem == -1 )

  019d1	8b 45 ec	 mov	 eax, DWORD PTR _this$[ebp]
  019d4	83 b8 80 00 00
	00 ff		 cmp	 DWORD PTR [eax+128], -1
  019db	74 0c		 je	 SHORT $L189954
  019dd	8b 4d ec	 mov	 ecx, DWORD PTR _this$[ebp]
  019e0	83 b9 84 00 00
	00 ff		 cmp	 DWORD PTR [ecx+132], -1
  019e7	75 24		 jne	 SHORT $L189953
$L189954:

; 620  : 	{
; 621  : 		return FALSE;

  019e9	c7 85 6c ff ff
	ff 00 00 00 00	 mov	 DWORD PTR $T191910[ebp], 0
  019f3	c7 45 fc ff ff
	ff ff		 mov	 DWORD PTR __$EHRec$[ebp+8], -1
  019fa	8d 4d 9c	 lea	 ecx, DWORD PTR _columnInfo$[ebp]
  019fd	e8 00 00 00 00	 call	 ??1MYLIST_COLUMN_INFO@@QAE@XZ
  01a02	8b 85 6c ff ff
	ff		 mov	 eax, DWORD PTR $T191910[ebp]
  01a08	e9 a8 01 00 00	 jmp	 $L189949
$L189953:

; 622  : 	}
; 623  : 
; 624  : 	GetSubItemRect( m_iCurrentCursorItem,m_iCurrentCursorSubItem,LVIR_BOUNDS,rectSubItem);

  01a0d	8d 95 74 ff ff
	ff		 lea	 edx, DWORD PTR _rectSubItem$[ebp]
  01a13	52		 push	 edx
  01a14	6a 00		 push	 0
  01a16	8b 45 ec	 mov	 eax, DWORD PTR _this$[ebp]
  01a19	8b 88 84 00 00
	00		 mov	 ecx, DWORD PTR [eax+132]
  01a1f	51		 push	 ecx
  01a20	8b 55 ec	 mov	 edx, DWORD PTR _this$[ebp]
  01a23	8b 82 80 00 00
	00		 mov	 eax, DWORD PTR [edx+128]
  01a29	50		 push	 eax
  01a2a	8b 4d ec	 mov	 ecx, DWORD PTR _this$[ebp]
  01a2d	e8 00 00 00 00	 call	 ?GetSubItemRect@CListCtrl@@QAEHHHHAAVCRect@@@Z ; CListCtrl::GetSubItemRect

; 625  : 
; 626  : 	columnInfo			= m_mapColumnInfo[m_iCurrentCursorSubItem];

  01a32	8b 4d ec	 mov	 ecx, DWORD PTR _this$[ebp]
  01a35	81 c1 84 00 00
	00		 add	 ecx, 132		; 00000084H
  01a3b	51		 push	 ecx
  01a3c	8b 4d ec	 mov	 ecx, DWORD PTR _this$[ebp]
  01a3f	81 c1 94 00 00
	00		 add	 ecx, 148		; 00000094H
  01a45	e8 00 00 00 00	 call	 ??A?$map@HUMYLIST_COLUMN_INFO@@U?$less@H@std@@V?$allocator@U?$pair@$$CBHUMYLIST_COLUMN_INFO@@@std@@@3@@std@@QAEAAUMYLIST_COLUMN_INFO@@ABH@Z ; std::map<int,MYLIST_COLUMN_INFO,std::less<int>,std::allocator<std::pair<int const ,MYLIST_COLUMN_INFO> > >::operator[]
  01a4a	50		 push	 eax
  01a4b	8d 4d 9c	 lea	 ecx, DWORD PTR _columnInfo$[ebp]
  01a4e	e8 00 00 00 00	 call	 ??4MYLIST_COLUMN_INFO@@QAEAAU0@ABU0@@Z ; MYLIST_COLUMN_INFO::operator=

; 627  : 	rectSubItem.right	= rectSubItem.left + GetColumnWidth(m_iCurrentCursorSubItem);

  01a53	8b 55 ec	 mov	 edx, DWORD PTR _this$[ebp]
  01a56	8b 82 84 00 00
	00		 mov	 eax, DWORD PTR [edx+132]
  01a5c	50		 push	 eax
  01a5d	8b 4d ec	 mov	 ecx, DWORD PTR _this$[ebp]
  01a60	e8 00 00 00 00	 call	 ?GetColumnWidth@CListCtrl@@QBEHH@Z ; CListCtrl::GetColumnWidth
  01a65	03 85 74 ff ff
	ff		 add	 eax, DWORD PTR _rectSubItem$[ebp]
  01a6b	89 85 7c ff ff
	ff		 mov	 DWORD PTR _rectSubItem$[ebp+8], eax

; 628  : 	pointImage			= rectSubItem.CenterPoint();

  01a71	8d 8d 64 ff ff
	ff		 lea	 ecx, DWORD PTR $T191911[ebp]
  01a77	51		 push	 ecx
  01a78	8d 8d 74 ff ff
	ff		 lea	 ecx, DWORD PTR _rectSubItem$[ebp]
  01a7e	e8 00 00 00 00	 call	 ?CenterPoint@CRect@@QBE?AVCPoint@@XZ ; CRect::CenterPoint
  01a83	8b 10		 mov	 edx, DWORD PTR [eax]
  01a85	8b 40 04	 mov	 eax, DWORD PTR [eax+4]
  01a88	89 55 8c	 mov	 DWORD PTR _pointImage$[ebp], edx
  01a8b	89 45 90	 mov	 DWORD PTR _pointImage$[ebp+4], eax

; 629  : 	pointImage.x		= pointImage.x - columnInfo.ColumnImage.pBitmapNormal->GetWidth() /2;

  01a8e	8b 4d c8	 mov	 ecx, DWORD PTR _columnInfo$[ebp+44]
  01a91	e8 00 00 00 00	 call	 ?GetWidth@CDibBitmap@@QAEHXZ ; CDibBitmap::GetWidth
  01a96	99		 cdq
  01a97	2b c2		 sub	 eax, edx
  01a99	d1 f8		 sar	 eax, 1
  01a9b	8b 4d 8c	 mov	 ecx, DWORD PTR _pointImage$[ebp]
  01a9e	2b c8		 sub	 ecx, eax
  01aa0	89 4d 8c	 mov	 DWORD PTR _pointImage$[ebp], ecx

; 630  : 	pointImage.y		= pointImage.y - columnInfo.ColumnImage.pBitmapNormal->GetHeight() /2;

  01aa3	8b 4d c8	 mov	 ecx, DWORD PTR _columnInfo$[ebp+44]
  01aa6	e8 00 00 00 00	 call	 ?GetHeight@CDibBitmap@@QAEHXZ ; CDibBitmap::GetHeight
  01aab	99		 cdq
  01aac	2b c2		 sub	 eax, edx
  01aae	d1 f8		 sar	 eax, 1
  01ab0	8b 55 90	 mov	 edx, DWORD PTR _pointImage$[ebp+4]
  01ab3	2b d0		 sub	 edx, eax
  01ab5	89 55 90	 mov	 DWORD PTR _pointImage$[ebp+4], edx

; 631  : 
; 632  : 	if( PtInRect( CRect(pointImage,CSize(columnInfo.ColumnImage.pBitmapNormal->GetWidth(),columnInfo.ColumnImage.pBitmapNormal->GetHeight() ) ),pt))

  01ab8	8b 45 08	 mov	 eax, DWORD PTR _pt$[ebp]
  01abb	8b 08		 mov	 ecx, DWORD PTR [eax]
  01abd	8b 50 04	 mov	 edx, DWORD PTR [eax+4]
  01ac0	89 8d 5c ff ff
	ff		 mov	 DWORD PTR $T191912[ebp], ecx
  01ac6	89 95 60 ff ff
	ff		 mov	 DWORD PTR $T191912[ebp+4], edx
  01acc	8b 4d c8	 mov	 ecx, DWORD PTR _columnInfo$[ebp+44]
  01acf	e8 00 00 00 00	 call	 ?GetHeight@CDibBitmap@@QAEHXZ ; CDibBitmap::GetHeight
  01ad4	50		 push	 eax
  01ad5	8b 4d c8	 mov	 ecx, DWORD PTR _columnInfo$[ebp+44]
  01ad8	e8 00 00 00 00	 call	 ?GetWidth@CDibBitmap@@QAEHXZ ; CDibBitmap::GetWidth
  01add	50		 push	 eax
  01ade	8d 8d 3c ff ff
	ff		 lea	 ecx, DWORD PTR $T191915[ebp]
  01ae4	e8 00 00 00 00	 call	 ??0CSize@@QAE@HH@Z	; CSize::CSize
  01ae9	8b 08		 mov	 ecx, DWORD PTR [eax]
  01aeb	8b 50 04	 mov	 edx, DWORD PTR [eax+4]
  01aee	89 8d 44 ff ff
	ff		 mov	 DWORD PTR $T191914[ebp], ecx
  01af4	89 95 48 ff ff
	ff		 mov	 DWORD PTR $T191914[ebp+4], edx
  01afa	8b 45 8c	 mov	 eax, DWORD PTR _pointImage$[ebp]
  01afd	89 85 34 ff ff
	ff		 mov	 DWORD PTR $T191916[ebp], eax
  01b03	8b 4d 90	 mov	 ecx, DWORD PTR _pointImage$[ebp+4]
  01b06	89 8d 38 ff ff
	ff		 mov	 DWORD PTR $T191916[ebp+4], ecx
  01b0c	8b f4		 mov	 esi, esp
  01b0e	8b 95 60 ff ff
	ff		 mov	 edx, DWORD PTR $T191912[ebp+4]
  01b14	52		 push	 edx
  01b15	8b 85 5c ff ff
	ff		 mov	 eax, DWORD PTR $T191912[ebp]
  01b1b	50		 push	 eax
  01b1c	8b 8d 48 ff ff
	ff		 mov	 ecx, DWORD PTR $T191914[ebp+4]
  01b22	51		 push	 ecx
  01b23	8b 95 44 ff ff
	ff		 mov	 edx, DWORD PTR $T191914[ebp]
  01b29	52		 push	 edx
  01b2a	8b 85 38 ff ff
	ff		 mov	 eax, DWORD PTR $T191916[ebp+4]
  01b30	50		 push	 eax
  01b31	8b 8d 34 ff ff
	ff		 mov	 ecx, DWORD PTR $T191916[ebp]
  01b37	51		 push	 ecx
  01b38	8d 8d 4c ff ff
	ff		 lea	 ecx, DWORD PTR $T191913[ebp]
  01b3e	e8 00 00 00 00	 call	 ??0CRect@@QAE@UtagPOINT@@UtagSIZE@@@Z ; CRect::CRect
  01b43	8b c8		 mov	 ecx, eax
  01b45	e8 00 00 00 00	 call	 ??BCRect@@QAEPAUtagRECT@@XZ ; CRect::operator tagRECT *
  01b4a	50		 push	 eax
  01b4b	ff 15 00 00 00
	00		 call	 DWORD PTR __imp__PtInRect@12
  01b51	3b f4		 cmp	 esi, esp
  01b53	e8 00 00 00 00	 call	 __RTC_CheckEsp
  01b58	85 c0		 test	 eax, eax
  01b5a	74 3a		 je	 SHORT $L189962

; 633  : 	{
; 634  : 		pt.x = pointImage.x;

  01b5c	8b 55 08	 mov	 edx, DWORD PTR _pt$[ebp]
  01b5f	8b 45 8c	 mov	 eax, DWORD PTR _pointImage$[ebp]
  01b62	89 02		 mov	 DWORD PTR [edx], eax

; 635  : 		pt.y = pointImage.y + columnInfo.ColumnImage.pBitmapNormal->GetHeight();

  01b64	8b 4d c8	 mov	 ecx, DWORD PTR _columnInfo$[ebp+44]
  01b67	e8 00 00 00 00	 call	 ?GetHeight@CDibBitmap@@QAEHXZ ; CDibBitmap::GetHeight
  01b6c	03 45 90	 add	 eax, DWORD PTR _pointImage$[ebp+4]
  01b6f	8b 4d 08	 mov	 ecx, DWORD PTR _pt$[ebp]
  01b72	89 41 04	 mov	 DWORD PTR [ecx+4], eax

; 636  : 		return TRUE;

  01b75	c7 85 30 ff ff
	ff 01 00 00 00	 mov	 DWORD PTR $T191917[ebp], 1
  01b7f	c7 45 fc ff ff
	ff ff		 mov	 DWORD PTR __$EHRec$[ebp+8], -1
  01b86	8d 4d 9c	 lea	 ecx, DWORD PTR _columnInfo$[ebp]
  01b89	e8 00 00 00 00	 call	 ??1MYLIST_COLUMN_INFO@@QAE@XZ
  01b8e	8b 85 30 ff ff
	ff		 mov	 eax, DWORD PTR $T191917[ebp]
  01b94	eb 1f		 jmp	 SHORT $L189949
$L189962:

; 637  : 	}
; 638  : 	return FALSE;

  01b96	c7 85 2c ff ff
	ff 00 00 00 00	 mov	 DWORD PTR $T191918[ebp], 0
  01ba0	c7 45 fc ff ff
	ff ff		 mov	 DWORD PTR __$EHRec$[ebp+8], -1
  01ba7	8d 4d 9c	 lea	 ecx, DWORD PTR _columnInfo$[ebp]
  01baa	e8 00 00 00 00	 call	 ??1MYLIST_COLUMN_INFO@@QAE@XZ
  01baf	8b 85 2c ff ff
	ff		 mov	 eax, DWORD PTR $T191918[ebp]
$L189949:

; 639  : }

  01bb5	52		 push	 edx
  01bb6	8b cd		 mov	 ecx, ebp
  01bb8	50		 push	 eax
  01bb9	8d 15 00 00 00
	00		 lea	 edx, DWORD PTR $L191929
  01bbf	e8 00 00 00 00	 call	 @_RTC_CheckStackVars@8
  01bc4	58		 pop	 eax
  01bc5	5a		 pop	 edx
  01bc6	8b 4d f4	 mov	 ecx, DWORD PTR __$EHRec$[ebp]
  01bc9	64 89 0d 00 00
	00 00		 mov	 DWORD PTR fs:__except_list, ecx
  01bd0	8b 4d f0	 mov	 ecx, DWORD PTR __$ArrayPad$[ebp]
  01bd3	e8 00 00 00 00	 call	 @__security_check_cookie@4
  01bd8	5f		 pop	 edi
  01bd9	5e		 pop	 esi
  01bda	81 c4 d4 00 00
	00		 add	 esp, 212		; 000000d4H
  01be0	3b ec		 cmp	 ebp, esp
  01be2	e8 00 00 00 00	 call	 __RTC_CheckEsp
  01be7	8b e5		 mov	 esp, ebp
  01be9	5d		 pop	 ebp
  01bea	c2 04 00	 ret	 4
$L191929:
  01bed	03 00 00 00	 DD	 3
  01bf1	00 00 00 00	 DD	 $L191928
$L191928:
  01bf5	9c ff ff ff	 DD	 -100			; ffffff9cH
  01bf9	4c 00 00 00	 DD	 76			; 0000004cH
  01bfd	00 00 00 00	 DD	 $L191922
  01c01	8c ff ff ff	 DD	 -116			; ffffff8cH
  01c05	08 00 00 00	 DD	 8
  01c09	00 00 00 00	 DD	 $L191923
  01c0d	74 ff ff ff	 DD	 -140			; ffffff74H
  01c11	10 00 00 00	 DD	 16			; 00000010H
  01c15	00 00 00 00	 DD	 $L191924
$L191924:
  01c19	72		 DB	 114			; 00000072H
  01c1a	65		 DB	 101			; 00000065H
  01c1b	63		 DB	 99			; 00000063H
  01c1c	74		 DB	 116			; 00000074H
  01c1d	53		 DB	 83			; 00000053H
  01c1e	75		 DB	 117			; 00000075H
  01c1f	62		 DB	 98			; 00000062H
  01c20	49		 DB	 73			; 00000049H
  01c21	74		 DB	 116			; 00000074H
  01c22	65		 DB	 101			; 00000065H
  01c23	6d		 DB	 109			; 0000006dH
  01c24	00		 DB	 0
$L191923:
  01c25	70		 DB	 112			; 00000070H
  01c26	6f		 DB	 111			; 0000006fH
  01c27	69		 DB	 105			; 00000069H
  01c28	6e		 DB	 110			; 0000006eH
  01c29	74		 DB	 116			; 00000074H
  01c2a	49		 DB	 73			; 00000049H
  01c2b	6d		 DB	 109			; 0000006dH
  01c2c	61		 DB	 97			; 00000061H
  01c2d	67		 DB	 103			; 00000067H
  01c2e	65		 DB	 101			; 00000065H
  01c2f	00		 DB	 0
$L191922:
  01c30	63		 DB	 99			; 00000063H
  01c31	6f		 DB	 111			; 0000006fH
  01c32	6c		 DB	 108			; 0000006cH
  01c33	75		 DB	 117			; 00000075H
  01c34	6d		 DB	 109			; 0000006dH
  01c35	6e		 DB	 110			; 0000006eH
  01c36	49		 DB	 73			; 00000049H
  01c37	6e		 DB	 110			; 0000006eH
  01c38	66		 DB	 102			; 00000066H
  01c39	6f		 DB	 111			; 0000006fH
  01c3a	00		 DB	 0
_TEXT	ENDS
text$x	SEGMENT
$L191919:
  00106	8d 4d 9c	 lea	 ecx, DWORD PTR _columnInfo$[ebp]
  00109	e9 00 00 00 00	 jmp	 ??1MYLIST_COLUMN_INFO@@QAE@XZ
__ehhandler$?PointInSubitemImage@CMyListCtrl@@IAEHAAVCPoint@@@Z:
  0010e	b8 00 00 00 00	 mov	 eax, OFFSET FLAT:$T191921
  00113	e9 00 00 00 00	 jmp	 ___CxxFrameHandler
text$x	ENDS
?PointInSubitemImage@CMyListCtrl@@IAEHAAVCPoint@@@Z ENDP ; CMyListCtrl::PointInSubitemImage
PUBLIC	??_C@_00CNPNBAHC@?$AA@				; `string'
PUBLIC	??0MYLIST_COLUMN_IMAGE@@QAE@XZ			; MYLIST_COLUMN_IMAGE::MYLIST_COLUMN_IMAGE
EXTRN	__imp_??0?$basic_string@DU?$char_traits@D@std@@V?$allocator@D@2@@std@@QAE@PBD@Z:NEAR
;	COMDAT xdata$x
; File d:\boxgit\playbox\playbox\dev\prj\playbox\src\gui\commoncontrol\mylistctrldata.h
xdata$x	SEGMENT
$T191937 DD	0ffffffffH
	DD	FLAT:$L191933
$T191935 DD	019930520H
	DD	01H
	DD	FLAT:$T191937
	DD	2 DUP(00H)
	DD	2 DUP(00H)
xdata$x	ENDS
;	COMDAT ??_C@_00CNPNBAHC@?$AA@
CONST	SEGMENT
??_C@_00CNPNBAHC@?$AA@ DB 00H				; `string'
; Function compile flags: /Odt /RTCsu
CONST	ENDS
;	COMDAT ??0MYLIST_COLUMN_INFO@@QAE@XZ
_TEXT	SEGMENT
_this$ = -16						; size = 4
__$EHRec$ = -12						; size = 12
??0MYLIST_COLUMN_INFO@@QAE@XZ PROC NEAR			; MYLIST_COLUMN_INFO::MYLIST_COLUMN_INFO, COMDAT
; _this$ = ecx

; 35   : 	{}

  00000	55		 push	 ebp
  00001	8b ec		 mov	 ebp, esp
  00003	6a ff		 push	 -1
  00005	68 00 00 00 00	 push	 __ehhandler$??0MYLIST_COLUMN_INFO@@QAE@XZ
  0000a	64 a1 00 00 00
	00		 mov	 eax, DWORD PTR fs:__except_list
  00010	50		 push	 eax
  00011	64 89 25 00 00
	00 00		 mov	 DWORD PTR fs:__except_list, esp
  00018	51		 push	 ecx
  00019	56		 push	 esi
  0001a	c7 45 f0 cc cc
	cc cc		 mov	 DWORD PTR [ebp-16], -858993460 ; ccccccccH
  00021	89 4d f0	 mov	 DWORD PTR _this$[ebp], ecx
  00024	8b f4		 mov	 esi, esp
  00026	68 00 00 00 00	 push	 OFFSET FLAT:??_C@_00CNPNBAHC@?$AA@
  0002b	8b 4d f0	 mov	 ecx, DWORD PTR _this$[ebp]
  0002e	ff 15 00 00 00
	00		 call	 DWORD PTR __imp_??0?$basic_string@DU?$char_traits@D@std@@V?$allocator@D@2@@std@@QAE@PBD@Z
  00034	3b f4		 cmp	 esi, esp
  00036	e8 00 00 00 00	 call	 __RTC_CheckEsp
  0003b	c7 45 fc 00 00
	00 00		 mov	 DWORD PTR __$EHRec$[ebp+8], 0
  00042	8b 45 f0	 mov	 eax, DWORD PTR _this$[ebp]
  00045	c7 40 1c 00 00
	00 00		 mov	 DWORD PTR [eax+28], 0
  0004c	8b 4d f0	 mov	 ecx, DWORD PTR _this$[ebp]
  0004f	c7 41 20 ff ff
	ff ff		 mov	 DWORD PTR [ecx+32], -1
  00056	8b 55 f0	 mov	 edx, DWORD PTR _this$[ebp]
  00059	c7 42 24 00 00
	00 00		 mov	 DWORD PTR [edx+36], 0
  00060	8b 45 f0	 mov	 eax, DWORD PTR _this$[ebp]
  00063	c6 40 28 00	 mov	 BYTE PTR [eax+40], 0
  00067	8b 4d f0	 mov	 ecx, DWORD PTR _this$[ebp]
  0006a	83 c1 2c	 add	 ecx, 44			; 0000002cH
  0006d	e8 00 00 00 00	 call	 ??0MYLIST_COLUMN_IMAGE@@QAE@XZ ; MYLIST_COLUMN_IMAGE::MYLIST_COLUMN_IMAGE
  00072	8b 4d f0	 mov	 ecx, DWORD PTR _this$[ebp]
  00075	83 c1 3c	 add	 ecx, 60			; 0000003cH
  00078	e8 00 00 00 00	 call	 ??0MYLIST_COLUMN_IMAGE@@QAE@XZ ; MYLIST_COLUMN_IMAGE::MYLIST_COLUMN_IMAGE
  0007d	c7 45 fc ff ff
	ff ff		 mov	 DWORD PTR __$EHRec$[ebp+8], -1
  00084	8b 45 f0	 mov	 eax, DWORD PTR _this$[ebp]
  00087	8b 4d f4	 mov	 ecx, DWORD PTR __$EHRec$[ebp]
  0008a	64 89 0d 00 00
	00 00		 mov	 DWORD PTR fs:__except_list, ecx
  00091	5e		 pop	 esi
  00092	83 c4 10	 add	 esp, 16			; 00000010H
  00095	3b ec		 cmp	 ebp, esp
  00097	e8 00 00 00 00	 call	 __RTC_CheckEsp
  0009c	8b e5		 mov	 esp, ebp
  0009e	5d		 pop	 ebp
  0009f	c3		 ret	 0
_TEXT	ENDS
;	COMDAT text$x
text$x	SEGMENT
$L191933:
  00000	8b f4		 mov	 esi, esp
  00002	8b 4d f0	 mov	 ecx, DWORD PTR _this$[ebp]
  00005	ff 15 00 00 00
	00		 call	 DWORD PTR __imp_??1?$basic_string@DU?$char_traits@D@std@@V?$allocator@D@2@@std@@QAE@XZ
  0000b	3b f4		 cmp	 esi, esp
  0000d	e9 00 00 00 00	 jmp	 __RTC_CheckEsp
__ehhandler$??0MYLIST_COLUMN_INFO@@QAE@XZ:
  00012	b8 00 00 00 00	 mov	 eax, OFFSET FLAT:$T191935
  00017	e9 00 00 00 00	 jmp	 ___CxxFrameHandler
text$x	ENDS
??0MYLIST_COLUMN_INFO@@QAE@XZ ENDP			; MYLIST_COLUMN_INFO::MYLIST_COLUMN_INFO
; Function compile flags: /Odt /RTCsu
;	COMDAT ??0MYLIST_COLUMN_IMAGE@@QAE@XZ
_TEXT	SEGMENT
_this$ = -4						; size = 4
??0MYLIST_COLUMN_IMAGE@@QAE@XZ PROC NEAR		; MYLIST_COLUMN_IMAGE::MYLIST_COLUMN_IMAGE, COMDAT
; _this$ = ecx

; 12   : 	{}

  00000	55		 push	 ebp
  00001	8b ec		 mov	 ebp, esp
  00003	51		 push	 ecx
  00004	c7 45 fc cc cc
	cc cc		 mov	 DWORD PTR [ebp-4], -858993460 ; ccccccccH
  0000b	89 4d fc	 mov	 DWORD PTR _this$[ebp], ecx
  0000e	8b 45 fc	 mov	 eax, DWORD PTR _this$[ebp]
  00011	c7 00 00 00 00
	00		 mov	 DWORD PTR [eax], 0
  00017	8b 4d fc	 mov	 ecx, DWORD PTR _this$[ebp]
  0001a	c7 41 04 00 00
	00 00		 mov	 DWORD PTR [ecx+4], 0
  00021	8b 55 fc	 mov	 edx, DWORD PTR _this$[ebp]
  00024	c7 42 08 00 00
	00 00		 mov	 DWORD PTR [edx+8], 0
  0002b	8b 45 fc	 mov	 eax, DWORD PTR _this$[ebp]
  0002e	c7 40 0c 00 00
	00 00		 mov	 DWORD PTR [eax+12], 0
  00035	8b 45 fc	 mov	 eax, DWORD PTR _this$[ebp]
  00038	8b e5		 mov	 esp, ebp
  0003a	5d		 pop	 ebp
  0003b	c3		 ret	 0
??0MYLIST_COLUMN_IMAGE@@QAE@XZ ENDP			; MYLIST_COLUMN_IMAGE::MYLIST_COLUMN_IMAGE
; Function compile flags: /Odt /RTCsu
_TEXT	ENDS
;	COMDAT ??1MYLIST_COLUMN_INFO@@QAE@XZ
_TEXT	SEGMENT
_this$ = -4						; size = 4
??1MYLIST_COLUMN_INFO@@QAE@XZ PROC NEAR			; MYLIST_COLUMN_INFO::~MYLIST_COLUMN_INFO, COMDAT
; _this$ = ecx
  00000	55		 push	 ebp
  00001	8b ec		 mov	 ebp, esp
  00003	51		 push	 ecx
  00004	56		 push	 esi
  00005	c7 45 fc cc cc
	cc cc		 mov	 DWORD PTR [ebp-4], -858993460 ; ccccccccH
  0000c	89 4d fc	 mov	 DWORD PTR _this$[ebp], ecx
  0000f	8b f4		 mov	 esi, esp
  00011	8b 4d fc	 mov	 ecx, DWORD PTR _this$[ebp]
  00014	ff 15 00 00 00
	00		 call	 DWORD PTR __imp_??1?$basic_string@DU?$char_traits@D@std@@V?$allocator@D@2@@std@@QAE@XZ
  0001a	3b f4		 cmp	 esi, esp
  0001c	e8 00 00 00 00	 call	 __RTC_CheckEsp
  00021	5e		 pop	 esi
  00022	83 c4 04	 add	 esp, 4
  00025	3b ec		 cmp	 ebp, esp
  00027	e8 00 00 00 00	 call	 __RTC_CheckEsp
  0002c	8b e5		 mov	 esp, ebp
  0002e	5d		 pop	 ebp
  0002f	c3		 ret	 0
??1MYLIST_COLUMN_INFO@@QAE@XZ ENDP			; MYLIST_COLUMN_INFO::~MYLIST_COLUMN_INFO
_TEXT	ENDS
PUBLIC	?PointInOperatorBtn@CMyListCtrl@@IAEHAAVCPoint@@@Z ; CMyListCtrl::PointInOperatorBtn
xdata$x	SEGMENT
$T191969 DD	0ffffffffH
	DD	FLAT:$L191958
$T191960 DD	019930520H
	DD	01H
	DD	FLAT:$T191969
	DD	2 DUP(00H)
	DD	2 DUP(00H)
; Function compile flags: /Odt /RTCsu
; File d:\boxgit\playbox\playbox\dev\prj\playbox\src\gui\commoncontrol\mylistctrl.cpp
xdata$x	ENDS
_TEXT	SEGMENT
tv78 = -280						; size = 4
$T191957 = -276						; size = 4
$T191956 = -272						; size = 4
$T191955 = -268						; size = 8
$T191954 = -260						; size = 8
$T191953 = -252						; size = 8
$T191952 = -244						; size = 16
$T191951 = -228						; size = 8
$T191950 = -220						; size = 8
$T191949 = -212						; size = 4
_rectSubItem$ = -204					; size = 16
_pointImage$ = -180					; size = 8
_columnInfo$ = -164					; size = 76
_bHighlight$ = -84					; size = 4
_lvi$ = -76						; size = 52
_this$ = -20						; size = 4
__$ArrayPad$ = -16					; size = 4
__$EHRec$ = -12						; size = 12
__$ReturnAddr$ = 4					; size = 4
_pt$ = 8						; size = 4
?PointInOperatorBtn@CMyListCtrl@@IAEHAAVCPoint@@@Z PROC NEAR ; CMyListCtrl::PointInOperatorBtn
; _this$ = ecx

; 642  : {

  01c40	55		 push	 ebp
  01c41	8b ec		 mov	 ebp, esp
  01c43	6a ff		 push	 -1
  01c45	68 00 00 00 00	 push	 __ehhandler$?PointInOperatorBtn@CMyListCtrl@@IAEHAAVCPoint@@@Z
  01c4a	64 a1 00 00 00
	00		 mov	 eax, DWORD PTR fs:__except_list
  01c50	50		 push	 eax
  01c51	64 89 25 00 00
	00 00		 mov	 DWORD PTR fs:__except_list, esp
  01c58	81 ec 0c 01 00
	00		 sub	 esp, 268		; 0000010cH
  01c5e	56		 push	 esi
  01c5f	57		 push	 edi
  01c60	51		 push	 ecx
  01c61	8d bd e8 fe ff
	ff		 lea	 edi, DWORD PTR [ebp-280]
  01c67	b9 43 00 00 00	 mov	 ecx, 67			; 00000043H
  01c6c	b8 cc cc cc cc	 mov	 eax, -858993460		; ccccccccH
  01c71	f3 ab		 rep stosd
  01c73	59		 pop	 ecx
  01c74	a1 00 00 00 00	 mov	 eax, DWORD PTR ___security_cookie
  01c79	89 45 f0	 mov	 DWORD PTR __$ArrayPad$[ebp], eax
  01c7c	89 4d ec	 mov	 DWORD PTR _this$[ebp], ecx

; 643  : 	LV_ITEM lvi;
; 644  : 	lvi.mask		= LVIF_STATE;

  01c7f	c7 45 b4 08 00
	00 00		 mov	 DWORD PTR _lvi$[ebp], 8

; 645  : 	lvi.iItem		= m_iCurrentCursorItem;

  01c86	8b 45 ec	 mov	 eax, DWORD PTR _this$[ebp]
  01c89	8b 88 80 00 00
	00		 mov	 ecx, DWORD PTR [eax+128]
  01c8f	89 4d b8	 mov	 DWORD PTR _lvi$[ebp+4], ecx

; 646  : 	lvi.iSubItem	= m_iCurrentCursorSubItem;

  01c92	8b 55 ec	 mov	 edx, DWORD PTR _this$[ebp]
  01c95	8b 82 84 00 00
	00		 mov	 eax, DWORD PTR [edx+132]
  01c9b	89 45 bc	 mov	 DWORD PTR _lvi$[ebp+8], eax

; 647  : 	lvi.stateMask	= 0xFFFF;   

  01c9e	c7 45 c4 ff ff
	00 00		 mov	 DWORD PTR _lvi$[ebp+16], 65535 ; 0000ffffH

; 648  : 	GetItem(&lvi);

  01ca5	8d 4d b4	 lea	 ecx, DWORD PTR _lvi$[ebp]
  01ca8	51		 push	 ecx
  01ca9	8b 4d ec	 mov	 ecx, DWORD PTR _this$[ebp]
  01cac	e8 00 00 00 00	 call	 ?GetItem@CListCtrl@@QBEHPAUtagLVITEMA@@@Z ; CListCtrl::GetItem

; 649  : 
; 650  : 	BOOL bHighlight =( (lvi.state & LVIS_DROPHILITED) || ( (lvi.state & LVIS_SELECTED)&& ((GetFocus() == this)|| (GetStyle() & LVS_SHOWSELALWAYS)	)	)		);

  01cb1	8b 55 c0	 mov	 edx, DWORD PTR _lvi$[ebp+12]
  01cb4	83 e2 08	 and	 edx, 8
  01cb7	75 2b		 jne	 SHORT $L191945
  01cb9	8b 45 c0	 mov	 eax, DWORD PTR _lvi$[ebp+12]
  01cbc	83 e0 02	 and	 eax, 2
  01cbf	74 17		 je	 SHORT $L191946
  01cc1	e8 00 00 00 00	 call	 ?GetFocus@CWnd@@SGPAV1@XZ ; CWnd::GetFocus
  01cc6	3b 45 ec	 cmp	 eax, DWORD PTR _this$[ebp]
  01cc9	74 19		 je	 SHORT $L191945
  01ccb	8b 4d ec	 mov	 ecx, DWORD PTR _this$[ebp]
  01cce	e8 00 00 00 00	 call	 ?GetStyle@CWnd@@QBEKXZ	; CWnd::GetStyle
  01cd3	83 e0 08	 and	 eax, 8
  01cd6	75 0c		 jne	 SHORT $L191945
$L191946:
  01cd8	c7 85 e8 fe ff
	ff 00 00 00 00	 mov	 DWORD PTR tv78[ebp], 0
  01ce2	eb 0a		 jmp	 SHORT $L191948
$L191945:
  01ce4	c7 85 e8 fe ff
	ff 01 00 00 00	 mov	 DWORD PTR tv78[ebp], 1
$L191948:
  01cee	8b 8d e8 fe ff
	ff		 mov	 ecx, DWORD PTR tv78[ebp]
  01cf4	89 4d ac	 mov	 DWORD PTR _bHighlight$[ebp], ecx

; 651  : 
; 652  : 	if( !bHighlight )

  01cf7	83 7d ac 00	 cmp	 DWORD PTR _bHighlight$[ebp], 0
  01cfb	75 07		 jne	 SHORT $L189973

; 653  : 	{
; 654  : 		return FALSE;

  01cfd	33 c0		 xor	 eax, eax
  01cff	e9 54 02 00 00	 jmp	 $L189970
$L189973:

; 655  : 	}
; 656  : 
; 657  : 	if( m_iCurrentCursorItem == -1 || m_iCurrentCursorSubItem == -1 )

  01d04	8b 55 ec	 mov	 edx, DWORD PTR _this$[ebp]
  01d07	83 ba 80 00 00
	00 ff		 cmp	 DWORD PTR [edx+128], -1
  01d0e	74 0c		 je	 SHORT $L189975
  01d10	8b 45 ec	 mov	 eax, DWORD PTR _this$[ebp]
  01d13	83 b8 84 00 00
	00 ff		 cmp	 DWORD PTR [eax+132], -1
  01d1a	75 07		 jne	 SHORT $L189974
$L189975:

; 658  : 	{
; 659  : 		return FALSE;

  01d1c	33 c0		 xor	 eax, eax
  01d1e	e9 35 02 00 00	 jmp	 $L189970
$L189974:

; 660  : 	}	
; 661  : 
; 662  : 	MYLIST_COLUMN_INFO columnInfo;

  01d23	8d 8d 5c ff ff
	ff		 lea	 ecx, DWORD PTR _columnInfo$[ebp]
  01d29	e8 00 00 00 00	 call	 ??0MYLIST_COLUMN_INFO@@QAE@XZ ; MYLIST_COLUMN_INFO::MYLIST_COLUMN_INFO
  01d2e	c7 45 fc 00 00
	00 00		 mov	 DWORD PTR __$EHRec$[ebp+8], 0

; 663  : 	columnInfo			= m_mapColumnInfo[m_iCurrentCursorSubItem];

  01d35	8b 4d ec	 mov	 ecx, DWORD PTR _this$[ebp]
  01d38	81 c1 84 00 00
	00		 add	 ecx, 132		; 00000084H
  01d3e	51		 push	 ecx
  01d3f	8b 4d ec	 mov	 ecx, DWORD PTR _this$[ebp]
  01d42	81 c1 94 00 00
	00		 add	 ecx, 148		; 00000094H
  01d48	e8 00 00 00 00	 call	 ??A?$map@HUMYLIST_COLUMN_INFO@@U?$less@H@std@@V?$allocator@U?$pair@$$CBHUMYLIST_COLUMN_INFO@@@std@@@3@@std@@QAEAAUMYLIST_COLUMN_INFO@@ABH@Z ; std::map<int,MYLIST_COLUMN_INFO,std::less<int>,std::allocator<std::pair<int const ,MYLIST_COLUMN_INFO> > >::operator[]
  01d4d	50		 push	 eax
  01d4e	8d 8d 5c ff ff
	ff		 lea	 ecx, DWORD PTR _columnInfo$[ebp]
  01d54	e8 00 00 00 00	 call	 ??4MYLIST_COLUMN_INFO@@QAEAAU0@ABU0@@Z ; MYLIST_COLUMN_INFO::operator=

; 664  : 	if( !columnInfo.bOperatorBtn )

  01d59	0f b6 55 84	 movzx	 edx, BYTE PTR _columnInfo$[ebp+40]
  01d5d	85 d2		 test	 edx, edx
  01d5f	75 27		 jne	 SHORT $L189977

; 665  : 	{
; 666  : 		return FALSE;

  01d61	c7 85 2c ff ff
	ff 00 00 00 00	 mov	 DWORD PTR $T191949[ebp], 0
  01d6b	c7 45 fc ff ff
	ff ff		 mov	 DWORD PTR __$EHRec$[ebp+8], -1
  01d72	8d 8d 5c ff ff
	ff		 lea	 ecx, DWORD PTR _columnInfo$[ebp]
  01d78	e8 00 00 00 00	 call	 ??1MYLIST_COLUMN_INFO@@QAE@XZ
  01d7d	8b 85 2c ff ff
	ff		 mov	 eax, DWORD PTR $T191949[ebp]
  01d83	e9 d0 01 00 00	 jmp	 $L189970
$L189977:

; 667  : 	}
; 668  : 
; 669  : 	CPoint pointImage;

  01d88	8d 8d 4c ff ff
	ff		 lea	 ecx, DWORD PTR _pointImage$[ebp]
  01d8e	e8 00 00 00 00	 call	 ??0CPoint@@QAE@XZ	; CPoint::CPoint

; 670  : 	CRect  rectSubItem;

  01d93	8d 8d 34 ff ff
	ff		 lea	 ecx, DWORD PTR _rectSubItem$[ebp]
  01d99	e8 00 00 00 00	 call	 ??0CRect@@QAE@XZ	; CRect::CRect

; 671  : 
; 672  : 	GetSubItemRect( m_iCurrentCursorItem,m_iCurrentCursorSubItem,LVIR_BOUNDS,rectSubItem);

  01d9e	8d 85 34 ff ff
	ff		 lea	 eax, DWORD PTR _rectSubItem$[ebp]
  01da4	50		 push	 eax
  01da5	6a 00		 push	 0
  01da7	8b 4d ec	 mov	 ecx, DWORD PTR _this$[ebp]
  01daa	8b 91 84 00 00
	00		 mov	 edx, DWORD PTR [ecx+132]
  01db0	52		 push	 edx
  01db1	8b 45 ec	 mov	 eax, DWORD PTR _this$[ebp]
  01db4	8b 88 80 00 00
	00		 mov	 ecx, DWORD PTR [eax+128]
  01dba	51		 push	 ecx
  01dbb	8b 4d ec	 mov	 ecx, DWORD PTR _this$[ebp]
  01dbe	e8 00 00 00 00	 call	 ?GetSubItemRect@CListCtrl@@QAEHHHHAAVCRect@@@Z ; CListCtrl::GetSubItemRect

; 673  : 	
; 674  : 	rectSubItem.right	= rectSubItem.left + GetColumnWidth(m_iCurrentCursorSubItem);

  01dc3	8b 55 ec	 mov	 edx, DWORD PTR _this$[ebp]
  01dc6	8b 82 84 00 00
	00		 mov	 eax, DWORD PTR [edx+132]
  01dcc	50		 push	 eax
  01dcd	8b 4d ec	 mov	 ecx, DWORD PTR _this$[ebp]
  01dd0	e8 00 00 00 00	 call	 ?GetColumnWidth@CListCtrl@@QBEHH@Z ; CListCtrl::GetColumnWidth
  01dd5	03 85 34 ff ff
	ff		 add	 eax, DWORD PTR _rectSubItem$[ebp]
  01ddb	89 85 3c ff ff
	ff		 mov	 DWORD PTR _rectSubItem$[ebp+8], eax

; 675  : 	rectSubItem.left	= rectSubItem.right - 20;

  01de1	8b 8d 3c ff ff
	ff		 mov	 ecx, DWORD PTR _rectSubItem$[ebp+8]
  01de7	83 e9 14	 sub	 ecx, 20			; 00000014H
  01dea	89 8d 34 ff ff
	ff		 mov	 DWORD PTR _rectSubItem$[ebp], ecx

; 676  : 	pointImage			= rectSubItem.CenterPoint();

  01df0	8d 95 24 ff ff
	ff		 lea	 edx, DWORD PTR $T191950[ebp]
  01df6	52		 push	 edx
  01df7	8d 8d 34 ff ff
	ff		 lea	 ecx, DWORD PTR _rectSubItem$[ebp]
  01dfd	e8 00 00 00 00	 call	 ?CenterPoint@CRect@@QBE?AVCPoint@@XZ ; CRect::CenterPoint
  01e02	8b 08		 mov	 ecx, DWORD PTR [eax]
  01e04	8b 50 04	 mov	 edx, DWORD PTR [eax+4]
  01e07	89 8d 4c ff ff
	ff		 mov	 DWORD PTR _pointImage$[ebp], ecx
  01e0d	89 95 50 ff ff
	ff		 mov	 DWORD PTR _pointImage$[ebp+4], edx

; 677  : 	pointImage.x		= pointImage.x - columnInfo.ColumnOperatorImage.pBitmapNormal->GetWidth() /2;

  01e13	8b 4d 98	 mov	 ecx, DWORD PTR _columnInfo$[ebp+60]
  01e16	e8 00 00 00 00	 call	 ?GetWidth@CDibBitmap@@QAEHXZ ; CDibBitmap::GetWidth
  01e1b	99		 cdq
  01e1c	2b c2		 sub	 eax, edx
  01e1e	d1 f8		 sar	 eax, 1
  01e20	8b 8d 4c ff ff
	ff		 mov	 ecx, DWORD PTR _pointImage$[ebp]
  01e26	2b c8		 sub	 ecx, eax
  01e28	89 8d 4c ff ff
	ff		 mov	 DWORD PTR _pointImage$[ebp], ecx

; 678  : 	pointImage.y		= pointImage.y - columnInfo.ColumnOperatorImage.pBitmapNormal->GetHeight() /2;

  01e2e	8b 4d 98	 mov	 ecx, DWORD PTR _columnInfo$[ebp+60]
  01e31	e8 00 00 00 00	 call	 ?GetHeight@CDibBitmap@@QAEHXZ ; CDibBitmap::GetHeight
  01e36	99		 cdq
  01e37	2b c2		 sub	 eax, edx
  01e39	d1 f8		 sar	 eax, 1
  01e3b	8b 95 50 ff ff
	ff		 mov	 edx, DWORD PTR _pointImage$[ebp+4]
  01e41	2b d0		 sub	 edx, eax
  01e43	89 95 50 ff ff
	ff		 mov	 DWORD PTR _pointImage$[ebp+4], edx

; 679  : 
; 680  : 	if( PtInRect( CRect(pointImage,CSize(columnInfo.ColumnOperatorImage.pBitmapNormal->GetWidth(),columnInfo.ColumnOperatorImage.pBitmapNormal->GetHeight() ) ),pt))

  01e49	8b 45 08	 mov	 eax, DWORD PTR _pt$[ebp]
  01e4c	8b 08		 mov	 ecx, DWORD PTR [eax]
  01e4e	8b 50 04	 mov	 edx, DWORD PTR [eax+4]
  01e51	89 8d 1c ff ff
	ff		 mov	 DWORD PTR $T191951[ebp], ecx
  01e57	89 95 20 ff ff
	ff		 mov	 DWORD PTR $T191951[ebp+4], edx
  01e5d	8b 4d 98	 mov	 ecx, DWORD PTR _columnInfo$[ebp+60]
  01e60	e8 00 00 00 00	 call	 ?GetHeight@CDibBitmap@@QAEHXZ ; CDibBitmap::GetHeight
  01e65	50		 push	 eax
  01e66	8b 4d 98	 mov	 ecx, DWORD PTR _columnInfo$[ebp+60]
  01e69	e8 00 00 00 00	 call	 ?GetWidth@CDibBitmap@@QAEHXZ ; CDibBitmap::GetWidth
  01e6e	50		 push	 eax
  01e6f	8d 8d fc fe ff
	ff		 lea	 ecx, DWORD PTR $T191954[ebp]
  01e75	e8 00 00 00 00	 call	 ??0CSize@@QAE@HH@Z	; CSize::CSize
  01e7a	8b 08		 mov	 ecx, DWORD PTR [eax]
  01e7c	8b 50 04	 mov	 edx, DWORD PTR [eax+4]
  01e7f	89 8d 04 ff ff
	ff		 mov	 DWORD PTR $T191953[ebp], ecx
  01e85	89 95 08 ff ff
	ff		 mov	 DWORD PTR $T191953[ebp+4], edx
  01e8b	8b 85 4c ff ff
	ff		 mov	 eax, DWORD PTR _pointImage$[ebp]
  01e91	89 85 f4 fe ff
	ff		 mov	 DWORD PTR $T191955[ebp], eax
  01e97	8b 8d 50 ff ff
	ff		 mov	 ecx, DWORD PTR _pointImage$[ebp+4]
  01e9d	89 8d f8 fe ff
	ff		 mov	 DWORD PTR $T191955[ebp+4], ecx
  01ea3	8b f4		 mov	 esi, esp
  01ea5	8b 95 20 ff ff
	ff		 mov	 edx, DWORD PTR $T191951[ebp+4]
  01eab	52		 push	 edx
  01eac	8b 85 1c ff ff
	ff		 mov	 eax, DWORD PTR $T191951[ebp]
  01eb2	50		 push	 eax
  01eb3	8b 8d 08 ff ff
	ff		 mov	 ecx, DWORD PTR $T191953[ebp+4]
  01eb9	51		 push	 ecx
  01eba	8b 95 04 ff ff
	ff		 mov	 edx, DWORD PTR $T191953[ebp]
  01ec0	52		 push	 edx
  01ec1	8b 85 f8 fe ff
	ff		 mov	 eax, DWORD PTR $T191955[ebp+4]
  01ec7	50		 push	 eax
  01ec8	8b 8d f4 fe ff
	ff		 mov	 ecx, DWORD PTR $T191955[ebp]
  01ece	51		 push	 ecx
  01ecf	8d 8d 0c ff ff
	ff		 lea	 ecx, DWORD PTR $T191952[ebp]
  01ed5	e8 00 00 00 00	 call	 ??0CRect@@QAE@UtagPOINT@@UtagSIZE@@@Z ; CRect::CRect
  01eda	8b c8		 mov	 ecx, eax
  01edc	e8 00 00 00 00	 call	 ??BCRect@@QAEPAUtagRECT@@XZ ; CRect::operator tagRECT *
  01ee1	50		 push	 eax
  01ee2	ff 15 00 00 00
	00		 call	 DWORD PTR __imp__PtInRect@12
  01ee8	3b f4		 cmp	 esi, esp
  01eea	e8 00 00 00 00	 call	 __RTC_CheckEsp
  01eef	85 c0		 test	 eax, eax
  01ef1	74 43		 je	 SHORT $L189987

; 681  : 	{
; 682  : 		pt.x = pointImage.x;

  01ef3	8b 55 08	 mov	 edx, DWORD PTR _pt$[ebp]
  01ef6	8b 85 4c ff ff
	ff		 mov	 eax, DWORD PTR _pointImage$[ebp]
  01efc	89 02		 mov	 DWORD PTR [edx], eax

; 683  : 		pt.y = pointImage.y + columnInfo.ColumnOperatorImage.pBitmapNormal->GetHeight();

  01efe	8b 4d 98	 mov	 ecx, DWORD PTR _columnInfo$[ebp+60]
  01f01	e8 00 00 00 00	 call	 ?GetHeight@CDibBitmap@@QAEHXZ ; CDibBitmap::GetHeight
  01f06	03 85 50 ff ff
	ff		 add	 eax, DWORD PTR _pointImage$[ebp+4]
  01f0c	8b 4d 08	 mov	 ecx, DWORD PTR _pt$[ebp]
  01f0f	89 41 04	 mov	 DWORD PTR [ecx+4], eax

; 684  : 		return TRUE;

  01f12	c7 85 f0 fe ff
	ff 01 00 00 00	 mov	 DWORD PTR $T191956[ebp], 1
  01f1c	c7 45 fc ff ff
	ff ff		 mov	 DWORD PTR __$EHRec$[ebp+8], -1
  01f23	8d 8d 5c ff ff
	ff		 lea	 ecx, DWORD PTR _columnInfo$[ebp]
  01f29	e8 00 00 00 00	 call	 ??1MYLIST_COLUMN_INFO@@QAE@XZ
  01f2e	8b 85 f0 fe ff
	ff		 mov	 eax, DWORD PTR $T191956[ebp]
  01f34	eb 22		 jmp	 SHORT $L189970
$L189987:

; 685  : 	}
; 686  : 	return FALSE;

  01f36	c7 85 ec fe ff
	ff 00 00 00 00	 mov	 DWORD PTR $T191957[ebp], 0
  01f40	c7 45 fc ff ff
	ff ff		 mov	 DWORD PTR __$EHRec$[ebp+8], -1
  01f47	8d 8d 5c ff ff
	ff		 lea	 ecx, DWORD PTR _columnInfo$[ebp]
  01f4d	e8 00 00 00 00	 call	 ??1MYLIST_COLUMN_INFO@@QAE@XZ
  01f52	8b 85 ec fe ff
	ff		 mov	 eax, DWORD PTR $T191957[ebp]
$L189970:

; 687  : }

  01f58	52		 push	 edx
  01f59	8b cd		 mov	 ecx, ebp
  01f5b	50		 push	 eax
  01f5c	8d 15 00 00 00
	00		 lea	 edx, DWORD PTR $L191968
  01f62	e8 00 00 00 00	 call	 @_RTC_CheckStackVars@8
  01f67	58		 pop	 eax
  01f68	5a		 pop	 edx
  01f69	8b 4d f4	 mov	 ecx, DWORD PTR __$EHRec$[ebp]
  01f6c	64 89 0d 00 00
	00 00		 mov	 DWORD PTR fs:__except_list, ecx
  01f73	8b 4d f0	 mov	 ecx, DWORD PTR __$ArrayPad$[ebp]
  01f76	e8 00 00 00 00	 call	 @__security_check_cookie@4
  01f7b	5f		 pop	 edi
  01f7c	5e		 pop	 esi
  01f7d	81 c4 18 01 00
	00		 add	 esp, 280		; 00000118H
  01f83	3b ec		 cmp	 ebp, esp
  01f85	e8 00 00 00 00	 call	 __RTC_CheckEsp
  01f8a	8b e5		 mov	 esp, ebp
  01f8c	5d		 pop	 ebp
  01f8d	c2 04 00	 ret	 4
$L191968:
  01f90	04 00 00 00	 DD	 4
  01f94	00 00 00 00	 DD	 $L191967
$L191967:
  01f98	b4 ff ff ff	 DD	 -76			; ffffffb4H
  01f9c	34 00 00 00	 DD	 52			; 00000034H
  01fa0	00 00 00 00	 DD	 $L191961
  01fa4	5c ff ff ff	 DD	 -164			; ffffff5cH
  01fa8	4c 00 00 00	 DD	 76			; 0000004cH
  01fac	00 00 00 00	 DD	 $L191962
  01fb0	4c ff ff ff	 DD	 -180			; ffffff4cH
  01fb4	08 00 00 00	 DD	 8
  01fb8	00 00 00 00	 DD	 $L191963
  01fbc	34 ff ff ff	 DD	 -204			; ffffff34H
  01fc0	10 00 00 00	 DD	 16			; 00000010H
  01fc4	00 00 00 00	 DD	 $L191964
$L191964:
  01fc8	72		 DB	 114			; 00000072H
  01fc9	65		 DB	 101			; 00000065H
  01fca	63		 DB	 99			; 00000063H
  01fcb	74		 DB	 116			; 00000074H
  01fcc	53		 DB	 83			; 00000053H
  01fcd	75		 DB	 117			; 00000075H
  01fce	62		 DB	 98			; 00000062H
  01fcf	49		 DB	 73			; 00000049H
  01fd0	74		 DB	 116			; 00000074H
  01fd1	65		 DB	 101			; 00000065H
  01fd2	6d		 DB	 109			; 0000006dH
  01fd3	00		 DB	 0
$L191963:
  01fd4	70		 DB	 112			; 00000070H
  01fd5	6f		 DB	 111			; 0000006fH
  01fd6	69		 DB	 105			; 00000069H
  01fd7	6e		 DB	 110			; 0000006eH
  01fd8	74		 DB	 116			; 00000074H
  01fd9	49		 DB	 73			; 00000049H
  01fda	6d		 DB	 109			; 0000006dH
  01fdb	61		 DB	 97			; 00000061H
  01fdc	67		 DB	 103			; 00000067H
  01fdd	65		 DB	 101			; 00000065H
  01fde	00		 DB	 0
$L191962:
  01fdf	63		 DB	 99			; 00000063H
  01fe0	6f		 DB	 111			; 0000006fH
  01fe1	6c		 DB	 108			; 0000006cH
  01fe2	75		 DB	 117			; 00000075H
  01fe3	6d		 DB	 109			; 0000006dH
  01fe4	6e		 DB	 110			; 0000006eH
  01fe5	49		 DB	 73			; 00000049H
  01fe6	6e		 DB	 110			; 0000006eH
  01fe7	66		 DB	 102			; 00000066H
  01fe8	6f		 DB	 111			; 0000006fH
  01fe9	00		 DB	 0
$L191961:
  01fea	6c		 DB	 108			; 0000006cH
  01feb	76		 DB	 118			; 00000076H
  01fec	69		 DB	 105			; 00000069H
  01fed	00		 DB	 0
_TEXT	ENDS
text$x	SEGMENT
$L191958:
  00118	8d 8d 5c ff ff
	ff		 lea	 ecx, DWORD PTR _columnInfo$[ebp]
  0011e	e9 00 00 00 00	 jmp	 ??1MYLIST_COLUMN_INFO@@QAE@XZ
__ehhandler$?PointInOperatorBtn@CMyListCtrl@@IAEHAAVCPoint@@@Z:
  00123	b8 00 00 00 00	 mov	 eax, OFFSET FLAT:$T191960
  00128	e9 00 00 00 00	 jmp	 ___CxxFrameHandler
text$x	ENDS
?PointInOperatorBtn@CMyListCtrl@@IAEHAAVCPoint@@@Z ENDP	; CMyListCtrl::PointInOperatorBtn
EXTRN	?Width@CRect@@QBEHXZ:NEAR			; CRect::Width
EXTRN	?Height@CRect@@QBEHXZ:NEAR			; CRect::Height
; Function compile flags: /Odt /RTCsu
_TEXT	SEGMENT
$T191971 = -36						; size = 16
_pt$ = -16						; size = 8
_this$ = -4						; size = 4
_pDibBitmap$ = 8					; size = 4
_r$ = 12						; size = 4
_memDC$ = 16						; size = 4
?DrawImage@CMyListCtrl@@IAEXPAVCDibBitmap@@ABVCRect@@PAVCDC@@@Z PROC NEAR ; CMyListCtrl::DrawImage
; _this$ = ecx

; 690  : {		

  01ff0	55		 push	 ebp
  01ff1	8b ec		 mov	 ebp, esp
  01ff3	83 ec 24	 sub	 esp, 36			; 00000024H
  01ff6	56		 push	 esi
  01ff7	b8 cc cc cc cc	 mov	 eax, -858993460		; ccccccccH
  01ffc	89 45 dc	 mov	 DWORD PTR [ebp-36], eax
  01fff	89 45 e0	 mov	 DWORD PTR [ebp-32], eax
  02002	89 45 e4	 mov	 DWORD PTR [ebp-28], eax
  02005	89 45 e8	 mov	 DWORD PTR [ebp-24], eax
  02008	89 45 ec	 mov	 DWORD PTR [ebp-20], eax
  0200b	89 45 f0	 mov	 DWORD PTR [ebp-16], eax
  0200e	89 45 f4	 mov	 DWORD PTR [ebp-12], eax
  02011	89 45 f8	 mov	 DWORD PTR [ebp-8], eax
  02014	89 45 fc	 mov	 DWORD PTR [ebp-4], eax
  02017	89 4d fc	 mov	 DWORD PTR _this$[ebp], ecx

; 691  : 	if( !pDibBitmap )

  0201a	83 7d 08 00	 cmp	 DWORD PTR _pDibBitmap$[ebp], 0
  0201e	75 05		 jne	 SHORT $L189996

; 692  : 	{
; 693  : 		return;

  02020	e9 bf 00 00 00	 jmp	 $L189995
$L189996:

; 694  : 	}
; 695  : 	CPoint pt = r.CenterPoint();

  02025	8d 45 f0	 lea	 eax, DWORD PTR _pt$[ebp]
  02028	50		 push	 eax
  02029	8b 4d 0c	 mov	 ecx, DWORD PTR _r$[ebp]
  0202c	e8 00 00 00 00	 call	 ?CenterPoint@CRect@@QBE?AVCPoint@@XZ ; CRect::CenterPoint

; 696  : 	pt.x = pt.x - pDibBitmap->GetWidth() /2;

  02031	8b 4d 08	 mov	 ecx, DWORD PTR _pDibBitmap$[ebp]
  02034	e8 00 00 00 00	 call	 ?GetWidth@CDibBitmap@@QAEHXZ ; CDibBitmap::GetWidth
  02039	99		 cdq
  0203a	2b c2		 sub	 eax, edx
  0203c	d1 f8		 sar	 eax, 1
  0203e	8b 4d f0	 mov	 ecx, DWORD PTR _pt$[ebp]
  02041	2b c8		 sub	 ecx, eax
  02043	89 4d f0	 mov	 DWORD PTR _pt$[ebp], ecx

; 697  : 	pt.y = pt.y - pDibBitmap->GetHeight() /2;

  02046	8b 4d 08	 mov	 ecx, DWORD PTR _pDibBitmap$[ebp]
  02049	e8 00 00 00 00	 call	 ?GetHeight@CDibBitmap@@QAEHXZ ; CDibBitmap::GetHeight
  0204e	99		 cdq
  0204f	2b c2		 sub	 eax, edx
  02051	d1 f8		 sar	 eax, 1
  02053	8b 55 f4	 mov	 edx, DWORD PTR _pt$[ebp+4]
  02056	2b d0		 sub	 edx, eax
  02058	89 55 f4	 mov	 DWORD PTR _pt$[ebp+4], edx

; 698  : 	//
; 699  : 	if( r.Width() >= pDibBitmap->GetWidth()
; 700  : 		&& r.Height() >= pDibBitmap->GetHeight() )

  0205b	8b 4d 0c	 mov	 ecx, DWORD PTR _r$[ebp]
  0205e	e8 00 00 00 00	 call	 ?Width@CRect@@QBEHXZ	; CRect::Width
  02063	8b f0		 mov	 esi, eax
  02065	8b 4d 08	 mov	 ecx, DWORD PTR _pDibBitmap$[ebp]
  02068	e8 00 00 00 00	 call	 ?GetWidth@CDibBitmap@@QAEHXZ ; CDibBitmap::GetWidth
  0206d	3b f0		 cmp	 esi, eax
  0206f	7c 73		 jl	 SHORT $L189995
  02071	8b 4d 0c	 mov	 ecx, DWORD PTR _r$[ebp]
  02074	e8 00 00 00 00	 call	 ?Height@CRect@@QBEHXZ	; CRect::Height
  02079	8b f0		 mov	 esi, eax
  0207b	8b 4d 08	 mov	 ecx, DWORD PTR _pDibBitmap$[ebp]
  0207e	e8 00 00 00 00	 call	 ?GetHeight@CDibBitmap@@QAEHXZ ; CDibBitmap::GetHeight
  02083	3b f0		 cmp	 esi, eax
  02085	7c 5d		 jl	 SHORT $L189995

; 701  : 	{
; 702  : 		pDibBitmap->SetCDibRect(CRect(pt.x, pt.y, pt.x + pDibBitmap->GetWidth() , pt.y + pDibBitmap->GetHeight()));

  02087	8b 4d 08	 mov	 ecx, DWORD PTR _pDibBitmap$[ebp]
  0208a	e8 00 00 00 00	 call	 ?GetHeight@CDibBitmap@@QAEHXZ ; CDibBitmap::GetHeight
  0208f	03 45 f4	 add	 eax, DWORD PTR _pt$[ebp+4]
  02092	50		 push	 eax
  02093	8b 4d 08	 mov	 ecx, DWORD PTR _pDibBitmap$[ebp]
  02096	e8 00 00 00 00	 call	 ?GetWidth@CDibBitmap@@QAEHXZ ; CDibBitmap::GetWidth
  0209b	03 45 f0	 add	 eax, DWORD PTR _pt$[ebp]
  0209e	50		 push	 eax
  0209f	8b 45 f4	 mov	 eax, DWORD PTR _pt$[ebp+4]
  020a2	50		 push	 eax
  020a3	8b 4d f0	 mov	 ecx, DWORD PTR _pt$[ebp]
  020a6	51		 push	 ecx
  020a7	8d 4d dc	 lea	 ecx, DWORD PTR $T191971[ebp]
  020aa	e8 00 00 00 00	 call	 ??0CRect@@QAE@HHHH@Z	; CRect::CRect
  020af	83 ec 10	 sub	 esp, 16			; 00000010H
  020b2	8b d4		 mov	 edx, esp
  020b4	8b 08		 mov	 ecx, DWORD PTR [eax]
  020b6	89 0a		 mov	 DWORD PTR [edx], ecx
  020b8	8b 48 04	 mov	 ecx, DWORD PTR [eax+4]
  020bb	89 4a 04	 mov	 DWORD PTR [edx+4], ecx
  020be	8b 48 08	 mov	 ecx, DWORD PTR [eax+8]
  020c1	89 4a 08	 mov	 DWORD PTR [edx+8], ecx
  020c4	8b 40 0c	 mov	 eax, DWORD PTR [eax+12]
  020c7	89 42 0c	 mov	 DWORD PTR [edx+12], eax
  020ca	8b 4d 08	 mov	 ecx, DWORD PTR _pDibBitmap$[ebp]
  020cd	e8 00 00 00 00	 call	 ?SetCDibRect@CDibBitmap@@QAEXVCRect@@@Z ; CDibBitmap::SetCDibRect

; 703  : 		pDibBitmap->Draw(memDC, true);	

  020d2	6a 01		 push	 1
  020d4	6a 00		 push	 0
  020d6	6a 01		 push	 1
  020d8	8b 4d 10	 mov	 ecx, DWORD PTR _memDC$[ebp]
  020db	51		 push	 ecx
  020dc	8b 4d 08	 mov	 ecx, DWORD PTR _pDibBitmap$[ebp]
  020df	e8 00 00 00 00	 call	 ?Draw@CDibBitmap@@QAEHPAVCDC@@HKH@Z ; CDibBitmap::Draw
$L189995:

; 704  : 	}
; 705  : }

  020e4	52		 push	 edx
  020e5	8b cd		 mov	 ecx, ebp
  020e7	50		 push	 eax
  020e8	8d 15 00 00 00
	00		 lea	 edx, DWORD PTR $L191974
  020ee	e8 00 00 00 00	 call	 @_RTC_CheckStackVars@8
  020f3	58		 pop	 eax
  020f4	5a		 pop	 edx
  020f5	5e		 pop	 esi
  020f6	83 c4 24	 add	 esp, 36			; 00000024H
  020f9	3b ec		 cmp	 ebp, esp
  020fb	e8 00 00 00 00	 call	 __RTC_CheckEsp
  02100	8b e5		 mov	 esp, ebp
  02102	5d		 pop	 ebp
  02103	c2 0c 00	 ret	 12			; 0000000cH
$L191974:
  02106	01 00 00 00	 DD	 1
  0210a	00 00 00 00	 DD	 $L191973
$L191973:
  0210e	f0 ff ff ff	 DD	 -16			; fffffff0H
  02112	08 00 00 00	 DD	 8
  02116	00 00 00 00	 DD	 $L191972
$L191972:
  0211a	70		 DB	 112			; 00000070H
  0211b	74		 DB	 116			; 00000074H
  0211c	00		 DB	 0
?DrawImage@CMyListCtrl@@IAEXPAVCDibBitmap@@ABVCRect@@PAVCDC@@@Z ENDP ; CMyListCtrl::DrawImage
_TEXT	ENDS
EXTRN	?HandleCustomDraw@@YAJIPAUNMCSBCUSTOMDRAW@@PAVCDibBitmap@@1@Z:NEAR ; HandleCustomDraw
; Function compile flags: /Odt /RTCsu
_TEXT	SEGMENT
_pNMCD$ = -8						; size = 4
_this$ = -4						; size = 4
_pNMHDR$ = 8						; size = 4
_pResult$ = 12						; size = 4
?OnCoolSBCustomdraw@CMyListCtrl@@IAEXPAUtagNMHDR@@PAJ@Z PROC NEAR ; CMyListCtrl::OnCoolSBCustomdraw
; _this$ = ecx

; 708  : {

  02120	55		 push	 ebp
  02121	8b ec		 mov	 ebp, esp
  02123	83 ec 08	 sub	 esp, 8
  02126	c7 45 f8 cc cc
	cc cc		 mov	 DWORD PTR [ebp-8], -858993460 ; ccccccccH
  0212d	c7 45 fc cc cc
	cc cc		 mov	 DWORD PTR [ebp-4], -858993460 ; ccccccccH
  02134	89 4d fc	 mov	 DWORD PTR _this$[ebp], ecx

; 709  : 	NMCSBCUSTOMDRAW* pNMCD = reinterpret_cast<NMCSBCUSTOMDRAW*>(pNMHDR);	

  02137	8b 45 08	 mov	 eax, DWORD PTR _pNMHDR$[ebp]
  0213a	89 45 f8	 mov	 DWORD PTR _pNMCD$[ebp], eax

; 710  : 	if( m_pBitmapScrollHorz != NULL && m_pBitmapScrollVert != NULL )

  0213d	8b 4d fc	 mov	 ecx, DWORD PTR _this$[ebp]
  02140	83 79 70 00	 cmp	 DWORD PTR [ecx+112], 0
  02144	74 2a		 je	 SHORT $L190005
  02146	8b 55 fc	 mov	 edx, DWORD PTR _this$[ebp]
  02149	83 7a 6c 00	 cmp	 DWORD PTR [edx+108], 0
  0214d	74 21		 je	 SHORT $L190005

; 711  : 	{
; 712  : 		*pResult = HandleCustomDraw(0, (NMCSBCUSTOMDRAW*)pNMHDR, m_pBitmapScrollVert,m_pBitmapScrollHorz );

  0214f	8b 45 fc	 mov	 eax, DWORD PTR _this$[ebp]
  02152	8b 48 70	 mov	 ecx, DWORD PTR [eax+112]
  02155	51		 push	 ecx
  02156	8b 55 fc	 mov	 edx, DWORD PTR _this$[ebp]
  02159	8b 42 6c	 mov	 eax, DWORD PTR [edx+108]
  0215c	50		 push	 eax
  0215d	8b 4d 08	 mov	 ecx, DWORD PTR _pNMHDR$[ebp]
  02160	51		 push	 ecx
  02161	6a 00		 push	 0
  02163	e8 00 00 00 00	 call	 ?HandleCustomDraw@@YAJIPAUNMCSBCUSTOMDRAW@@PAVCDibBitmap@@1@Z ; HandleCustomDraw
  02168	83 c4 10	 add	 esp, 16			; 00000010H
  0216b	8b 55 0c	 mov	 edx, DWORD PTR _pResult$[ebp]
  0216e	89 02		 mov	 DWORD PTR [edx], eax
$L190005:

; 713  : 	}
; 714  : }

  02170	83 c4 08	 add	 esp, 8
  02173	3b ec		 cmp	 ebp, esp
  02175	e8 00 00 00 00	 call	 __RTC_CheckEsp
  0217a	8b e5		 mov	 esp, ebp
  0217c	5d		 pop	 ebp
  0217d	c2 08 00	 ret	 8
?OnCoolSBCustomdraw@CMyListCtrl@@IAEXPAUtagNMHDR@@PAJ@Z ENDP ; CMyListCtrl::OnCoolSBCustomdraw
_TEXT	ENDS
PUBLIC	?clear@?$vector@HV?$allocator@H@std@@@std@@QAEXXZ ; std::vector<int,std::allocator<int> >::clear
PUBLIC	?SearchHighLight@CMyListCtrl@@QAEXAAV?$vector@HV?$allocator@H@std@@@std@@AAK@Z ; CMyListCtrl::SearchHighLight
PUBLIC	??$back_inserter@V?$vector@HV?$allocator@H@std@@@std@@@std@@YA?AV?$back_insert_iterator@V?$vector@HV?$allocator@H@std@@@std@@@0@AAV?$vector@HV?$allocator@H@std@@@0@@Z ; std::back_inserter<std::vector<int,std::allocator<int> > >
PUBLIC	??$copy@Viterator@?$vector@HV?$allocator@H@std@@@std@@V?$back_insert_iterator@V?$vector@HV?$allocator@H@std@@@std@@@3@@std@@YA?AV?$back_insert_iterator@V?$vector@HV?$allocator@H@std@@@std@@@0@Viterator@?$vector@HV?$allocator@H@std@@@0@0V10@@Z ; std::copy<std::vector<int,std::allocator<int> >::iterator,std::back_insert_iterator<std::vector<int,std::allocator<int> > > >
EXTRN	?Invalidate@CWnd@@QAEXH@Z:NEAR			; CWnd::Invalidate
; Function compile flags: /Odt /RTCsu
_TEXT	SEGMENT
$T191980 = -20						; size = 4
$T191979 = -16						; size = 4
$T191978 = -12						; size = 4
$T191977 = -8						; size = 4
_this$ = -4						; size = 4
_vecItems$ = 8						; size = 4
_colorHighLight$ = 12					; size = 4
?SearchHighLight@CMyListCtrl@@QAEXAAV?$vector@HV?$allocator@H@std@@@std@@AAK@Z PROC NEAR ; CMyListCtrl::SearchHighLight
; _this$ = ecx

; 717  : {

  02180	55		 push	 ebp
  02181	8b ec		 mov	 ebp, esp
  02183	83 ec 14	 sub	 esp, 20			; 00000014H
  02186	b8 cc cc cc cc	 mov	 eax, -858993460		; ccccccccH
  0218b	89 45 ec	 mov	 DWORD PTR [ebp-20], eax
  0218e	89 45 f0	 mov	 DWORD PTR [ebp-16], eax
  02191	89 45 f4	 mov	 DWORD PTR [ebp-12], eax
  02194	89 45 f8	 mov	 DWORD PTR [ebp-8], eax
  02197	89 45 fc	 mov	 DWORD PTR [ebp-4], eax
  0219a	89 4d fc	 mov	 DWORD PTR _this$[ebp], ecx

; 718  : 	m_colorSearchHightLight=colorHighLight;

  0219d	8b 45 fc	 mov	 eax, DWORD PTR _this$[ebp]
  021a0	8b 4d 0c	 mov	 ecx, DWORD PTR _colorHighLight$[ebp]
  021a3	8b 11		 mov	 edx, DWORD PTR [ecx]
  021a5	89 90 4c 01 00
	00		 mov	 DWORD PTR [eax+332], edx

; 719  : 	m_vecSearchedItems.clear();

  021ab	8b 4d fc	 mov	 ecx, DWORD PTR _this$[ebp]
  021ae	81 c1 3c 01 00
	00		 add	 ecx, 316		; 0000013cH
  021b4	e8 00 00 00 00	 call	 ?clear@?$vector@HV?$allocator@H@std@@@std@@QAEXXZ ; std::vector<int,std::allocator<int> >::clear

; 720  : 	copy(vecItems.begin(),vecItems.end(),back_inserter(m_vecSearchedItems));

  021b9	8b 45 fc	 mov	 eax, DWORD PTR _this$[ebp]
  021bc	05 3c 01 00 00	 add	 eax, 316		; 0000013cH
  021c1	50		 push	 eax
  021c2	8d 4d f8	 lea	 ecx, DWORD PTR $T191977[ebp]
  021c5	51		 push	 ecx
  021c6	e8 00 00 00 00	 call	 ??$back_inserter@V?$vector@HV?$allocator@H@std@@@std@@@std@@YA?AV?$back_insert_iterator@V?$vector@HV?$allocator@H@std@@@std@@@0@AAV?$vector@HV?$allocator@H@std@@@0@@Z ; std::back_inserter<std::vector<int,std::allocator<int> > >
  021cb	83 c4 08	 add	 esp, 8
  021ce	8b 10		 mov	 edx, DWORD PTR [eax]
  021d0	52		 push	 edx
  021d1	8d 45 f4	 lea	 eax, DWORD PTR $T191978[ebp]
  021d4	50		 push	 eax
  021d5	8b 4d 08	 mov	 ecx, DWORD PTR _vecItems$[ebp]
  021d8	e8 00 00 00 00	 call	 ?end@?$vector@HV?$allocator@H@std@@@std@@QAE?AViterator@12@XZ ; std::vector<int,std::allocator<int> >::end
  021dd	8b 08		 mov	 ecx, DWORD PTR [eax]
  021df	51		 push	 ecx
  021e0	8d 55 f0	 lea	 edx, DWORD PTR $T191979[ebp]
  021e3	52		 push	 edx
  021e4	8b 4d 08	 mov	 ecx, DWORD PTR _vecItems$[ebp]
  021e7	e8 00 00 00 00	 call	 ?begin@?$vector@HV?$allocator@H@std@@@std@@QAE?AViterator@12@XZ ; std::vector<int,std::allocator<int> >::begin
  021ec	8b 00		 mov	 eax, DWORD PTR [eax]
  021ee	50		 push	 eax
  021ef	8d 4d ec	 lea	 ecx, DWORD PTR $T191980[ebp]
  021f2	51		 push	 ecx
  021f3	e8 00 00 00 00	 call	 ??$copy@Viterator@?$vector@HV?$allocator@H@std@@@std@@V?$back_insert_iterator@V?$vector@HV?$allocator@H@std@@@std@@@3@@std@@YA?AV?$back_insert_iterator@V?$vector@HV?$allocator@H@std@@@std@@@0@Viterator@?$vector@HV?$allocator@H@std@@@0@0V10@@Z ; std::copy<std::vector<int,std::allocator<int> >::iterator,std::back_insert_iterator<std::vector<int,std::allocator<int> > > >
  021f8	83 c4 10	 add	 esp, 16			; 00000010H

; 721  : 	Invalidate(FALSE);

  021fb	6a 00		 push	 0
  021fd	8b 4d fc	 mov	 ecx, DWORD PTR _this$[ebp]
  02200	e8 00 00 00 00	 call	 ?Invalidate@CWnd@@QAEXH@Z ; CWnd::Invalidate

; 722  : }

  02205	83 c4 14	 add	 esp, 20			; 00000014H
  02208	3b ec		 cmp	 ebp, esp
  0220a	e8 00 00 00 00	 call	 __RTC_CheckEsp
  0220f	8b e5		 mov	 esp, ebp
  02211	5d		 pop	 ebp
  02212	c2 08 00	 ret	 8
?SearchHighLight@CMyListCtrl@@QAEXAAV?$vector@HV?$allocator@H@std@@@std@@AAK@Z ENDP ; CMyListCtrl::SearchHighLight
_TEXT	ENDS
EXTRN	?PreTranslateMessage@CWnd@@UAEHPAUtagMSG@@@Z:NEAR ; CWnd::PreTranslateMessage
EXTRN	?SetItemState@CListCtrl@@QAEHHII@Z:NEAR		; CListCtrl::SetItemState
; Function compile flags: /Odt /RTCsu
_TEXT	SEGMENT
_i$190059 = -8						; size = 4
_this$ = -4						; size = 4
_pMsg$ = 8						; size = 4
?PreTranslateMessage@CMyListCtrl@@UAEHPAUtagMSG@@@Z PROC NEAR ; CMyListCtrl::PreTranslateMessage
; _this$ = ecx

; 727  : {

  02220	55		 push	 ebp
  02221	8b ec		 mov	 ebp, esp
  02223	83 ec 08	 sub	 esp, 8
  02226	c7 45 f8 cc cc
	cc cc		 mov	 DWORD PTR [ebp-8], -858993460 ; ccccccccH
  0222d	c7 45 fc cc cc
	cc cc		 mov	 DWORD PTR [ebp-4], -858993460 ; ccccccccH
  02234	89 4d fc	 mov	 DWORD PTR _this$[ebp], ecx

; 728  : 	if( pMsg->message == WM_KEYDOWN && pMsg->wParam == VK_CONTROL )

  02237	8b 45 08	 mov	 eax, DWORD PTR _pMsg$[ebp]
  0223a	81 78 04 00 01
	00 00		 cmp	 DWORD PTR [eax+4], 256	; 00000100H
  02241	75 13		 jne	 SHORT $L190055
  02243	8b 4d 08	 mov	 ecx, DWORD PTR _pMsg$[ebp]
  02246	83 79 08 11	 cmp	 DWORD PTR [ecx+8], 17	; 00000011H
  0224a	75 0a		 jne	 SHORT $L190055

; 729  : 	{
; 730  : 		mkey1 = VK_CONTROL;

  0224c	c7 05 00 00 00
	00 11 00 00 00	 mov	 DWORD PTR _mkey1, 17	; 00000011H
$L190055:

; 731  : 	}
; 732  : 	if( pMsg->message == WM_KEYDOWN && pMsg->wParam == 'A' )

  02256	8b 55 08	 mov	 edx, DWORD PTR _pMsg$[ebp]
  02259	81 7a 04 00 01
	00 00		 cmp	 DWORD PTR [edx+4], 256	; 00000100H
  02260	75 60		 jne	 SHORT $L190056
  02262	8b 45 08	 mov	 eax, DWORD PTR _pMsg$[ebp]
  02265	83 78 08 41	 cmp	 DWORD PTR [eax+8], 65	; 00000041H
  02269	75 57		 jne	 SHORT $L190056

; 733  : 	{
; 734  : 		if( mkey1 != 0 )

  0226b	83 3d 00 00 00
	00 00		 cmp	 DWORD PTR _mkey1, 0
  02272	74 4e		 je	 SHORT $L190056

; 735  : 		{
; 736  : 			if( mkey2 == 0 )

  02274	83 3d 00 00 00
	00 00		 cmp	 DWORD PTR _mkey2, 0
  0227b	75 45		 jne	 SHORT $L190056

; 737  : 			{
; 738  : 				mkey2 = 'A';

  0227d	c7 05 00 00 00
	00 41 00 00 00	 mov	 DWORD PTR _mkey2, 65	; 00000041H

; 739  : 				for (int i=0;i<GetItemCount();++i)

  02287	c7 45 f8 00 00
	00 00		 mov	 DWORD PTR _i$190059[ebp], 0
  0228e	eb 09		 jmp	 SHORT $L190060
$L190061:
  02290	8b 4d f8	 mov	 ecx, DWORD PTR _i$190059[ebp]
  02293	83 c1 01	 add	 ecx, 1
  02296	89 4d f8	 mov	 DWORD PTR _i$190059[ebp], ecx
$L190060:
  02299	8b 4d fc	 mov	 ecx, DWORD PTR _this$[ebp]
  0229c	e8 00 00 00 00	 call	 ?GetItemCount@CListCtrl@@QBEHXZ ; CListCtrl::GetItemCount
  022a1	39 45 f8	 cmp	 DWORD PTR _i$190059[ebp], eax
  022a4	7d 12		 jge	 SHORT $L190062

; 740  : 				{
; 741  : 					SetItemState( i,LVIS_SELECTED,LVIS_SELECTED);		

  022a6	6a 02		 push	 2
  022a8	6a 02		 push	 2
  022aa	8b 55 f8	 mov	 edx, DWORD PTR _i$190059[ebp]
  022ad	52		 push	 edx
  022ae	8b 4d fc	 mov	 ecx, DWORD PTR _this$[ebp]
  022b1	e8 00 00 00 00	 call	 ?SetItemState@CListCtrl@@QAEHHII@Z ; CListCtrl::SetItemState

; 742  : 				}

  022b6	eb d8		 jmp	 SHORT $L190061
$L190062:

; 743  : 				return TRUE;

  022b8	b8 01 00 00 00	 mov	 eax, 1
  022bd	e9 82 00 00 00	 jmp	 $L190054
$L190056:

; 744  : 			}
; 745  : 		}
; 746  : 	}
; 747  : 	if( pMsg->message == WM_KEYUP )

  022c2	8b 45 08	 mov	 eax, DWORD PTR _pMsg$[ebp]
  022c5	81 78 04 01 01
	00 00		 cmp	 DWORD PTR [eax+4], 257	; 00000101H
  022cc	75 1d		 jne	 SHORT $L190063

; 748  : 	{
; 749  : 		mkey2 = 0;

  022ce	c7 05 00 00 00
	00 00 00 00 00	 mov	 DWORD PTR _mkey2, 0

; 750  : 		if(pMsg->wParam == VK_CONTROL)

  022d8	8b 4d 08	 mov	 ecx, DWORD PTR _pMsg$[ebp]
  022db	83 79 08 11	 cmp	 DWORD PTR [ecx+8], 17	; 00000011H
  022df	75 0a		 jne	 SHORT $L190063

; 751  : 			mkey1 = 0;

  022e1	c7 05 00 00 00
	00 00 00 00 00	 mov	 DWORD PTR _mkey1, 0
$L190063:

; 752  : 	}
; 753  : 	if( pMsg->hwnd == m_hWnd && mkey1 == 0
; 754  : 		&& pMsg->message == WM_KEYDOWN 
; 755  : 		&& (((pMsg->wParam > 0X40)&&(pMsg->wParam < 0X5B))||((pMsg->wParam > 0X60)&&(pMsg->wParam < 0X7B))) )

  022eb	8b 55 08	 mov	 edx, DWORD PTR _pMsg$[ebp]
  022ee	8b 45 fc	 mov	 eax, DWORD PTR _this$[ebp]
  022f1	8b 0a		 mov	 ecx, DWORD PTR [edx]
  022f3	3b 48 20	 cmp	 ecx, DWORD PTR [eax+32]
  022f6	75 40		 jne	 SHORT $L190065
  022f8	83 3d 00 00 00
	00 00		 cmp	 DWORD PTR _mkey1, 0
  022ff	75 37		 jne	 SHORT $L190065
  02301	8b 55 08	 mov	 edx, DWORD PTR _pMsg$[ebp]
  02304	81 7a 04 00 01
	00 00		 cmp	 DWORD PTR [edx+4], 256	; 00000100H
  0230b	75 2b		 jne	 SHORT $L190065
  0230d	8b 45 08	 mov	 eax, DWORD PTR _pMsg$[ebp]
  02310	83 78 08 40	 cmp	 DWORD PTR [eax+8], 64	; 00000040H
  02314	76 09		 jbe	 SHORT $L190067
  02316	8b 4d 08	 mov	 ecx, DWORD PTR _pMsg$[ebp]
  02319	83 79 08 5b	 cmp	 DWORD PTR [ecx+8], 91	; 0000005bH
  0231d	72 12		 jb	 SHORT $L190066
$L190067:
  0231f	8b 55 08	 mov	 edx, DWORD PTR _pMsg$[ebp]
  02322	83 7a 08 60	 cmp	 DWORD PTR [edx+8], 96	; 00000060H
  02326	76 10		 jbe	 SHORT $L190065
  02328	8b 45 08	 mov	 eax, DWORD PTR _pMsg$[ebp]
  0232b	83 78 08 7b	 cmp	 DWORD PTR [eax+8], 123	; 0000007bH
  0232f	73 07		 jae	 SHORT $L190065
$L190066:

; 756  : 	{
; 757  : 		//Ctrol_a_z_KeyDown( short(pMsg->wParam) );
; 758  : 		return TRUE;

  02331	b8 01 00 00 00	 mov	 eax, 1
  02336	eb 0c		 jmp	 SHORT $L190054
$L190065:

; 759  : 	}
; 760  : 
; 761  : 	return __super::PreTranslateMessage(pMsg);

  02338	8b 4d 08	 mov	 ecx, DWORD PTR _pMsg$[ebp]
  0233b	51		 push	 ecx
  0233c	8b 4d fc	 mov	 ecx, DWORD PTR _this$[ebp]
  0233f	e8 00 00 00 00	 call	 ?PreTranslateMessage@CWnd@@UAEHPAUtagMSG@@@Z ; CWnd::PreTranslateMessage
$L190054:

; 762  : }

  02344	83 c4 08	 add	 esp, 8
  02347	3b ec		 cmp	 ebp, esp
  02349	e8 00 00 00 00	 call	 __RTC_CheckEsp
  0234e	8b e5		 mov	 esp, ebp
  02350	5d		 pop	 ebp
  02351	c2 04 00	 ret	 4
?PreTranslateMessage@CMyListCtrl@@UAEHPAUtagMSG@@@Z ENDP ; CMyListCtrl::PreTranslateMessage
; Function compile flags: /Odt /RTCsu
_this$ = -4						; size = 4
_nIndex$ = 8						; size = 4
?SetKeySubItem@CMyListCtrl@@UAEXH@Z PROC NEAR		; CMyListCtrl::SetKeySubItem
; _this$ = ecx

; 765  : {

  02360	55		 push	 ebp
  02361	8b ec		 mov	 ebp, esp
  02363	51		 push	 ecx
  02364	c7 45 fc cc cc
	cc cc		 mov	 DWORD PTR [ebp-4], -858993460 ; ccccccccH
  0236b	89 4d fc	 mov	 DWORD PTR _this$[ebp], ecx

; 766  : 	m_nKeySubItem = nIndex;

  0236e	8b 45 fc	 mov	 eax, DWORD PTR _this$[ebp]
  02371	8b 4d 08	 mov	 ecx, DWORD PTR _nIndex$[ebp]
  02374	89 88 58 01 00
	00		 mov	 DWORD PTR [eax+344], ecx

; 767  : }

  0237a	8b e5		 mov	 esp, ebp
  0237c	5d		 pop	 ebp
  0237d	c2 04 00	 ret	 4
?SetKeySubItem@CMyListCtrl@@UAEXH@Z ENDP		; CMyListCtrl::SetKeySubItem
_TEXT	ENDS
PUBLIC	??0?$_Tree@V?$_Tmap_traits@HUMYLIST_COLUMN_INFO@@U?$less@H@std@@V?$allocator@U?$pair@$$CBHUMYLIST_COLUMN_INFO@@@std@@@3@$0A@@std@@@std@@QAE@ABU?$less@H@1@ABV?$allocator@U?$pair@$$CBHUMYLIST_COLUMN_INFO@@@std@@@1@@Z ; std::_Tree<std::_Tmap_traits<int,MYLIST_COLUMN_INFO,std::less<int>,std::allocator<std::pair<int const ,MYLIST_COLUMN_INFO> >,0> >::_Tree<std::_Tmap_traits<int,MYLIST_COLUMN_INFO,std::less<int>,std::allocator<std::pair<int const ,MYLIST_COLUMN_INFO> >,0> >
PUBLIC	??0?$allocator@U?$pair@$$CBHUMYLIST_COLUMN_INFO@@@std@@@std@@QAE@XZ ; std::allocator<std::pair<int const ,MYLIST_COLUMN_INFO> >::allocator<std::pair<int const ,MYLIST_COLUMN_INFO> >
; Function compile flags: /Odt /RTCsu
; File d:\program files (x86)\microsoft visual studio .net 2003\vc7\include\map
;	COMDAT ??0?$map@HUMYLIST_COLUMN_INFO@@U?$less@H@std@@V?$allocator@U?$pair@$$CBHUMYLIST_COLUMN_INFO@@@std@@@3@@std@@QAE@XZ
_TEXT	SEGMENT
$T191985 = -6						; size = 1
$T191984 = -5						; size = 1
_this$ = -4						; size = 4
??0?$map@HUMYLIST_COLUMN_INFO@@U?$less@H@std@@V?$allocator@U?$pair@$$CBHUMYLIST_COLUMN_INFO@@@std@@@3@@std@@QAE@XZ PROC NEAR ; std::map<int,MYLIST_COLUMN_INFO,std::less<int>,std::allocator<std::pair<int const ,MYLIST_COLUMN_INFO> > >::map<int,MYLIST_COLUMN_INFO,std::less<int>,std::allocator<std::pair<int const ,MYLIST_COLUMN_INFO> > >, COMDAT
; _this$ = ecx

; 102  : 		{	// construct empty map from defaults

  00000	55		 push	 ebp
  00001	8b ec		 mov	 ebp, esp
  00003	83 ec 08	 sub	 esp, 8
  00006	c7 45 f8 cc cc
	cc cc		 mov	 DWORD PTR [ebp-8], -858993460 ; ccccccccH
  0000d	c7 45 fc cc cc
	cc cc		 mov	 DWORD PTR [ebp-4], -858993460 ; ccccccccH
  00014	89 4d fc	 mov	 DWORD PTR _this$[ebp], ecx
  00017	8d 4d fb	 lea	 ecx, DWORD PTR $T191984[ebp]
  0001a	e8 00 00 00 00	 call	 ??0?$allocator@U?$pair@$$CBHUMYLIST_COLUMN_INFO@@@std@@@std@@QAE@XZ ; std::allocator<std::pair<int const ,MYLIST_COLUMN_INFO> >::allocator<std::pair<int const ,MYLIST_COLUMN_INFO> >
  0001f	50		 push	 eax
  00020	8d 45 fa	 lea	 eax, DWORD PTR $T191985[ebp]
  00023	50		 push	 eax
  00024	8b 4d fc	 mov	 ecx, DWORD PTR _this$[ebp]
  00027	e8 00 00 00 00	 call	 ??0?$_Tree@V?$_Tmap_traits@HUMYLIST_COLUMN_INFO@@U?$less@H@std@@V?$allocator@U?$pair@$$CBHUMYLIST_COLUMN_INFO@@@std@@@3@$0A@@std@@@std@@QAE@ABU?$less@H@1@ABV?$allocator@U?$pair@$$CBHUMYLIST_COLUMN_INFO@@@std@@@1@@Z ; std::_Tree<std::_Tmap_traits<int,MYLIST_COLUMN_INFO,std::less<int>,std::allocator<std::pair<int const ,MYLIST_COLUMN_INFO> >,0> >::_Tree<std::_Tmap_traits<int,MYLIST_COLUMN_INFO,std::less<int>,std::allocator<std::pair<int const ,MYLIST_COLUMN_INFO> >,0> >

; 103  : 		}

  0002c	8b 45 fc	 mov	 eax, DWORD PTR _this$[ebp]
  0002f	83 c4 08	 add	 esp, 8
  00032	3b ec		 cmp	 ebp, esp
  00034	e8 00 00 00 00	 call	 __RTC_CheckEsp
  00039	8b e5		 mov	 esp, ebp
  0003b	5d		 pop	 ebp
  0003c	c3		 ret	 0
??0?$map@HUMYLIST_COLUMN_INFO@@U?$less@H@std@@V?$allocator@U?$pair@$$CBHUMYLIST_COLUMN_INFO@@@std@@@3@@std@@QAE@XZ ENDP ; std::map<int,MYLIST_COLUMN_INFO,std::less<int>,std::allocator<std::pair<int const ,MYLIST_COLUMN_INFO> > >::map<int,MYLIST_COLUMN_INFO,std::less<int>,std::allocator<std::pair<int const ,MYLIST_COLUMN_INFO> > >
_TEXT	ENDS
PUBLIC	?_Key@?$_Tree@V?$_Tmap_traits@HUMYLIST_COLUMN_INFO@@U?$less@H@std@@V?$allocator@U?$pair@$$CBHUMYLIST_COLUMN_INFO@@@std@@@3@$0A@@std@@@std@@KAABHPAU_Node@?$_Tree_nod@V?$_Tmap_traits@HUMYLIST_COLUMN_INFO@@U?$less@H@std@@V?$allocator@U?$pair@$$CBHUMYLIST_COLUMN_INFO@@@std@@@3@$0A@@std@@@2@@Z ; std::_Tree<std::_Tmap_traits<int,MYLIST_COLUMN_INFO,std::less<int>,std::allocator<std::pair<int const ,MYLIST_COLUMN_INFO> >,0> >::_Key
PUBLIC	??8const_iterator@?$_Tree@V?$_Tmap_traits@HUMYLIST_COLUMN_INFO@@U?$less@H@std@@V?$allocator@U?$pair@$$CBHUMYLIST_COLUMN_INFO@@@std@@@3@$0A@@std@@@std@@QBE_NABV012@@Z ; std::_Tree<std::_Tmap_traits<int,MYLIST_COLUMN_INFO,std::less<int>,std::allocator<std::pair<int const ,MYLIST_COLUMN_INFO> >,0> >::const_iterator::operator==
PUBLIC	?_Mynode@const_iterator@?$_Tree@V?$_Tmap_traits@HUMYLIST_COLUMN_INFO@@U?$less@H@std@@V?$allocator@U?$pair@$$CBHUMYLIST_COLUMN_INFO@@@std@@@3@$0A@@std@@@std@@QBEPAU_Node@?$_Tree_nod@V?$_Tmap_traits@HUMYLIST_COLUMN_INFO@@U?$less@H@std@@V?$allocator@U?$pair@$$CBHUMYLIST_COLUMN_INFO@@@std@@@3@$0A@@std@@@3@XZ ; std::_Tree<std::_Tmap_traits<int,MYLIST_COLUMN_INFO,std::less<int>,std::allocator<std::pair<int const ,MYLIST_COLUMN_INFO> >,0> >::const_iterator::_Mynode
PUBLIC	??Diterator@?$_Tree@V?$_Tmap_traits@HUMYLIST_COLUMN_INFO@@U?$less@H@std@@V?$allocator@U?$pair@$$CBHUMYLIST_COLUMN_INFO@@@std@@@3@$0A@@std@@@std@@QBEAAU?$pair@$$CBHUMYLIST_COLUMN_INFO@@@2@XZ ; std::_Tree<std::_Tmap_traits<int,MYLIST_COLUMN_INFO,std::less<int>,std::allocator<std::pair<int const ,MYLIST_COLUMN_INFO> >,0> >::iterator::operator*
PUBLIC	?insert@?$_Tree@V?$_Tmap_traits@HUMYLIST_COLUMN_INFO@@U?$less@H@std@@V?$allocator@U?$pair@$$CBHUMYLIST_COLUMN_INFO@@@std@@@3@$0A@@std@@@std@@QAE?AViterator@12@V312@ABU?$pair@$$CBHUMYLIST_COLUMN_INFO@@@2@@Z ; std::_Tree<std::_Tmap_traits<int,MYLIST_COLUMN_INFO,std::less<int>,std::allocator<std::pair<int const ,MYLIST_COLUMN_INFO> >,0> >::insert
PUBLIC	??0?$pair@$$CBHUMYLIST_COLUMN_INFO@@@std@@QAE@ABHABUMYLIST_COLUMN_INFO@@@Z ; std::pair<int const ,MYLIST_COLUMN_INFO>::pair<int const ,MYLIST_COLUMN_INFO>
PUBLIC	?lower_bound@?$_Tree@V?$_Tmap_traits@HUMYLIST_COLUMN_INFO@@U?$less@H@std@@V?$allocator@U?$pair@$$CBHUMYLIST_COLUMN_INFO@@@std@@@3@$0A@@std@@@std@@QAE?AViterator@12@ABH@Z ; std::_Tree<std::_Tmap_traits<int,MYLIST_COLUMN_INFO,std::less<int>,std::allocator<std::pair<int const ,MYLIST_COLUMN_INFO> >,0> >::lower_bound
PUBLIC	??1?$pair@$$CBHUMYLIST_COLUMN_INFO@@@std@@QAE@XZ ; std::pair<int const ,MYLIST_COLUMN_INFO>::~pair<int const ,MYLIST_COLUMN_INFO>
PUBLIC	??R?$less@H@std@@QBE_NABH0@Z			; std::less<int>::operator()
;	COMDAT xdata$x
xdata$x	SEGMENT
$T192000 DD	0ffffffffH
	DD	FLAT:$L191992
	DD	00H
	DD	FLAT:$L191993
$T191995 DD	019930520H
	DD	02H
	DD	FLAT:$T192000
	DD	2 DUP(00H)
	DD	2 DUP(00H)
; Function compile flags: /Odt /RTCsu
xdata$x	ENDS
;	COMDAT ??A?$map@HUMYLIST_COLUMN_INFO@@U?$less@H@std@@V?$allocator@U?$pair@$$CBHUMYLIST_COLUMN_INFO@@@std@@@3@@std@@QAEAAUMYLIST_COLUMN_INFO@@ABH@Z
_TEXT	SEGMENT
tv139 = -208						; size = 4
tv141 = -204						; size = 4
tv137 = -200						; size = 4
tv140 = -196						; size = 4
$T191991 = -192						; size = 4
$T191990 = -188						; size = 76
$T191989 = -112						; size = 80
$T191988 = -32						; size = 4
__Where$ = -24						; size = 4
_this$ = -16						; size = 4
__$EHRec$ = -12						; size = 12
__Keyval$ = 8						; size = 4
??A?$map@HUMYLIST_COLUMN_INFO@@U?$less@H@std@@V?$allocator@U?$pair@$$CBHUMYLIST_COLUMN_INFO@@@std@@@3@@std@@QAEAAUMYLIST_COLUMN_INFO@@ABH@Z PROC NEAR ; std::map<int,MYLIST_COLUMN_INFO,std::less<int>,std::allocator<std::pair<int const ,MYLIST_COLUMN_INFO> > >::operator[], COMDAT
; _this$ = ecx

; 142  : 		{	// find element matching _Keyval or insert with default mapped

  00000	55		 push	 ebp
  00001	8b ec		 mov	 ebp, esp
  00003	6a ff		 push	 -1
  00005	68 00 00 00 00	 push	 __ehhandler$??A?$map@HUMYLIST_COLUMN_INFO@@U?$less@H@std@@V?$allocator@U?$pair@$$CBHUMYLIST_COLUMN_INFO@@@std@@@3@@std@@QAEAAUMYLIST_COLUMN_INFO@@ABH@Z
  0000a	64 a1 00 00 00
	00		 mov	 eax, DWORD PTR fs:__except_list
  00010	50		 push	 eax
  00011	64 89 25 00 00
	00 00		 mov	 DWORD PTR fs:__except_list, esp
  00018	81 ec c4 00 00
	00		 sub	 esp, 196		; 000000c4H
  0001e	57		 push	 edi
  0001f	51		 push	 ecx
  00020	8d bd 30 ff ff
	ff		 lea	 edi, DWORD PTR [ebp-208]
  00026	b9 31 00 00 00	 mov	 ecx, 49			; 00000031H
  0002b	b8 cc cc cc cc	 mov	 eax, -858993460		; ccccccccH
  00030	f3 ab		 rep stosd
  00032	59		 pop	 ecx
  00033	89 4d f0	 mov	 DWORD PTR _this$[ebp], ecx

; 143  : 		iterator _Where = this->lower_bound(_Keyval);

  00036	8b 45 08	 mov	 eax, DWORD PTR __Keyval$[ebp]
  00039	50		 push	 eax
  0003a	8d 4d e8	 lea	 ecx, DWORD PTR __Where$[ebp]
  0003d	51		 push	 ecx
  0003e	8b 4d f0	 mov	 ecx, DWORD PTR _this$[ebp]
  00041	e8 00 00 00 00	 call	 ?lower_bound@?$_Tree@V?$_Tmap_traits@HUMYLIST_COLUMN_INFO@@U?$less@H@std@@V?$allocator@U?$pair@$$CBHUMYLIST_COLUMN_INFO@@@std@@@3@$0A@@std@@@std@@QAE?AViterator@12@ABH@Z ; std::_Tree<std::_Tmap_traits<int,MYLIST_COLUMN_INFO,std::less<int>,std::allocator<std::pair<int const ,MYLIST_COLUMN_INFO> >,0> >::lower_bound

; 144  : 		if (_Where == this->end() || this->comp(_Keyval, this->_Key(_Where._Mynode())))

  00046	8d 55 e0	 lea	 edx, DWORD PTR $T191988[ebp]
  00049	52		 push	 edx
  0004a	8b 4d f0	 mov	 ecx, DWORD PTR _this$[ebp]
  0004d	e8 00 00 00 00	 call	 ?end@?$_Tree@V?$_Tmap_traits@HUMYLIST_COLUMN_INFO@@U?$less@H@std@@V?$allocator@U?$pair@$$CBHUMYLIST_COLUMN_INFO@@@std@@@3@$0A@@std@@@std@@QAE?AViterator@12@XZ ; std::_Tree<std::_Tmap_traits<int,MYLIST_COLUMN_INFO,std::less<int>,std::allocator<std::pair<int const ,MYLIST_COLUMN_INFO> >,0> >::end
  00052	50		 push	 eax
  00053	8d 4d e8	 lea	 ecx, DWORD PTR __Where$[ebp]
  00056	e8 00 00 00 00	 call	 ??8const_iterator@?$_Tree@V?$_Tmap_traits@HUMYLIST_COLUMN_INFO@@U?$less@H@std@@V?$allocator@U?$pair@$$CBHUMYLIST_COLUMN_INFO@@@std@@@3@$0A@@std@@@std@@QBE_NABV012@@Z ; std::_Tree<std::_Tmap_traits<int,MYLIST_COLUMN_INFO,std::less<int>,std::allocator<std::pair<int const ,MYLIST_COLUMN_INFO> >,0> >::const_iterator::operator==
  0005b	0f b6 c0	 movzx	 eax, al
  0005e	85 c0		 test	 eax, eax
  00060	75 29		 jne	 SHORT $L190140
  00062	8d 4d e8	 lea	 ecx, DWORD PTR __Where$[ebp]
  00065	e8 00 00 00 00	 call	 ?_Mynode@const_iterator@?$_Tree@V?$_Tmap_traits@HUMYLIST_COLUMN_INFO@@U?$less@H@std@@V?$allocator@U?$pair@$$CBHUMYLIST_COLUMN_INFO@@@std@@@3@$0A@@std@@@std@@QBEPAU_Node@?$_Tree_nod@V?$_Tmap_traits@HUMYLIST_COLUMN_INFO@@U?$less@H@std@@V?$allocator@U?$pair@$$CBHUMYLIST_COLUMN_INFO@@@std@@@3@$0A@@std@@@3@XZ ; std::_Tree<std::_Tmap_traits<int,MYLIST_COLUMN_INFO,std::less<int>,std::allocator<std::pair<int const ,MYLIST_COLUMN_INFO> >,0> >::const_iterator::_Mynode
  0006a	50		 push	 eax
  0006b	e8 00 00 00 00	 call	 ?_Key@?$_Tree@V?$_Tmap_traits@HUMYLIST_COLUMN_INFO@@U?$less@H@std@@V?$allocator@U?$pair@$$CBHUMYLIST_COLUMN_INFO@@@std@@@3@$0A@@std@@@std@@KAABHPAU_Node@?$_Tree_nod@V?$_Tmap_traits@HUMYLIST_COLUMN_INFO@@U?$less@H@std@@V?$allocator@U?$pair@$$CBHUMYLIST_COLUMN_INFO@@@std@@@3@$0A@@std@@@2@@Z ; std::_Tree<std::_Tmap_traits<int,MYLIST_COLUMN_INFO,std::less<int>,std::allocator<std::pair<int const ,MYLIST_COLUMN_INFO> >,0> >::_Key
  00070	83 c4 04	 add	 esp, 4
  00073	50		 push	 eax
  00074	8b 4d 08	 mov	 ecx, DWORD PTR __Keyval$[ebp]
  00077	51		 push	 ecx
  00078	8b 4d f0	 mov	 ecx, DWORD PTR _this$[ebp]
  0007b	e8 00 00 00 00	 call	 ??R?$less@H@std@@QBE_NABH0@Z ; std::less<int>::operator()
  00080	0f b6 d0	 movzx	 edx, al
  00083	85 d2		 test	 edx, edx
  00085	0f 84 8a 00 00
	00		 je	 $L190139
$L190140:

; 145  : 			_Where = this->insert(_Where,
; 146  : 				value_type(_Keyval, mapped_type()));

  0008b	8d 8d 44 ff ff
	ff		 lea	 ecx, DWORD PTR $T191990[ebp]
  00091	e8 00 00 00 00	 call	 ??0MYLIST_COLUMN_INFO@@QAE@XZ ; MYLIST_COLUMN_INFO::MYLIST_COLUMN_INFO
  00096	89 85 3c ff ff
	ff		 mov	 DWORD PTR tv140[ebp], eax
  0009c	8b 85 3c ff ff
	ff		 mov	 eax, DWORD PTR tv140[ebp]
  000a2	89 85 38 ff ff
	ff		 mov	 DWORD PTR tv137[ebp], eax
  000a8	c7 45 fc 00 00
	00 00		 mov	 DWORD PTR __$EHRec$[ebp+8], 0
  000af	8b 8d 38 ff ff
	ff		 mov	 ecx, DWORD PTR tv137[ebp]
  000b5	51		 push	 ecx
  000b6	8b 55 08	 mov	 edx, DWORD PTR __Keyval$[ebp]
  000b9	52		 push	 edx
  000ba	8d 4d 90	 lea	 ecx, DWORD PTR $T191989[ebp]
  000bd	e8 00 00 00 00	 call	 ??0?$pair@$$CBHUMYLIST_COLUMN_INFO@@@std@@QAE@ABHABUMYLIST_COLUMN_INFO@@@Z ; std::pair<int const ,MYLIST_COLUMN_INFO>::pair<int const ,MYLIST_COLUMN_INFO>
  000c2	89 85 34 ff ff
	ff		 mov	 DWORD PTR tv141[ebp], eax
  000c8	8b 85 34 ff ff
	ff		 mov	 eax, DWORD PTR tv141[ebp]
  000ce	89 85 30 ff ff
	ff		 mov	 DWORD PTR tv139[ebp], eax
  000d4	c6 45 fc 01	 mov	 BYTE PTR __$EHRec$[ebp+8], 1
  000d8	8b 8d 30 ff ff
	ff		 mov	 ecx, DWORD PTR tv139[ebp]
  000de	51		 push	 ecx
  000df	8b 55 e8	 mov	 edx, DWORD PTR __Where$[ebp]
  000e2	52		 push	 edx
  000e3	8d 85 40 ff ff
	ff		 lea	 eax, DWORD PTR $T191991[ebp]
  000e9	50		 push	 eax
  000ea	8b 4d f0	 mov	 ecx, DWORD PTR _this$[ebp]
  000ed	e8 00 00 00 00	 call	 ?insert@?$_Tree@V?$_Tmap_traits@HUMYLIST_COLUMN_INFO@@U?$less@H@std@@V?$allocator@U?$pair@$$CBHUMYLIST_COLUMN_INFO@@@std@@@3@$0A@@std@@@std@@QAE?AViterator@12@V312@ABU?$pair@$$CBHUMYLIST_COLUMN_INFO@@@2@@Z ; std::_Tree<std::_Tmap_traits<int,MYLIST_COLUMN_INFO,std::less<int>,std::allocator<std::pair<int const ,MYLIST_COLUMN_INFO> >,0> >::insert
  000f2	8b 08		 mov	 ecx, DWORD PTR [eax]
  000f4	89 4d e8	 mov	 DWORD PTR __Where$[ebp], ecx
  000f7	c6 45 fc 00	 mov	 BYTE PTR __$EHRec$[ebp+8], 0
  000fb	8d 4d 90	 lea	 ecx, DWORD PTR $T191989[ebp]
  000fe	e8 00 00 00 00	 call	 ??1?$pair@$$CBHUMYLIST_COLUMN_INFO@@@std@@QAE@XZ
  00103	c7 45 fc ff ff
	ff ff		 mov	 DWORD PTR __$EHRec$[ebp+8], -1
  0010a	8d 8d 44 ff ff
	ff		 lea	 ecx, DWORD PTR $T191990[ebp]
  00110	e8 00 00 00 00	 call	 ??1MYLIST_COLUMN_INFO@@QAE@XZ
$L190139:

; 147  : 		return ((*_Where).second);

  00115	8d 4d e8	 lea	 ecx, DWORD PTR __Where$[ebp]
  00118	e8 00 00 00 00	 call	 ??Diterator@?$_Tree@V?$_Tmap_traits@HUMYLIST_COLUMN_INFO@@U?$less@H@std@@V?$allocator@U?$pair@$$CBHUMYLIST_COLUMN_INFO@@@std@@@3@$0A@@std@@@std@@QBEAAU?$pair@$$CBHUMYLIST_COLUMN_INFO@@@2@XZ ; std::_Tree<std::_Tmap_traits<int,MYLIST_COLUMN_INFO,std::less<int>,std::allocator<std::pair<int const ,MYLIST_COLUMN_INFO> >,0> >::iterator::operator*
  0011d	83 c0 04	 add	 eax, 4

; 148  : 		}

  00120	52		 push	 edx
  00121	8b cd		 mov	 ecx, ebp
  00123	50		 push	 eax
  00124	8d 15 00 00 00
	00		 lea	 edx, DWORD PTR $L191999
  0012a	e8 00 00 00 00	 call	 @_RTC_CheckStackVars@8
  0012f	58		 pop	 eax
  00130	5a		 pop	 edx
  00131	8b 4d f4	 mov	 ecx, DWORD PTR __$EHRec$[ebp]
  00134	64 89 0d 00 00
	00 00		 mov	 DWORD PTR fs:__except_list, ecx
  0013b	5f		 pop	 edi
  0013c	81 c4 d0 00 00
	00		 add	 esp, 208		; 000000d0H
  00142	3b ec		 cmp	 ebp, esp
  00144	e8 00 00 00 00	 call	 __RTC_CheckEsp
  00149	8b e5		 mov	 esp, ebp
  0014b	5d		 pop	 ebp
  0014c	c2 04 00	 ret	 4
$L191999:
  0014f	01 00 00 00	 DD	 1
  00153	00 00 00 00	 DD	 $L191998
$L191998:
  00157	e8 ff ff ff	 DD	 -24			; ffffffe8H
  0015b	04 00 00 00	 DD	 4
  0015f	00 00 00 00	 DD	 $L191996
$L191996:
  00163	5f		 DB	 95			; 0000005fH
  00164	57		 DB	 87			; 00000057H
  00165	68		 DB	 104			; 00000068H
  00166	65		 DB	 101			; 00000065H
  00167	72		 DB	 114			; 00000072H
  00168	65		 DB	 101			; 00000065H
  00169	00		 DB	 0
_TEXT	ENDS
;	COMDAT text$x
text$x	SEGMENT
$L191992:
  00000	8d 8d 44 ff ff
	ff		 lea	 ecx, DWORD PTR $T191990[ebp]
  00006	e9 00 00 00 00	 jmp	 ??1MYLIST_COLUMN_INFO@@QAE@XZ
$L191993:
  0000b	8d 4d 90	 lea	 ecx, DWORD PTR $T191989[ebp]
  0000e	e9 00 00 00 00	 jmp	 ??1?$pair@$$CBHUMYLIST_COLUMN_INFO@@@std@@QAE@XZ
__ehhandler$??A?$map@HUMYLIST_COLUMN_INFO@@U?$less@H@std@@V?$allocator@U?$pair@$$CBHUMYLIST_COLUMN_INFO@@@std@@@3@@std@@QAEAAUMYLIST_COLUMN_INFO@@ABH@Z:
  00013	b8 00 00 00 00	 mov	 eax, OFFSET FLAT:$T191995
  00018	e9 00 00 00 00	 jmp	 ___CxxFrameHandler
text$x	ENDS
??A?$map@HUMYLIST_COLUMN_INFO@@U?$less@H@std@@V?$allocator@U?$pair@$$CBHUMYLIST_COLUMN_INFO@@@std@@@3@@std@@QAEAAUMYLIST_COLUMN_INFO@@ABH@Z ENDP ; std::map<int,MYLIST_COLUMN_INFO,std::less<int>,std::allocator<std::pair<int const ,MYLIST_COLUMN_INFO> > >::operator[]
PUBLIC	?_Tidy@?$_Tree@V?$_Tmap_traits@HUMYLIST_COLUMN_INFO@@U?$less@H@std@@V?$allocator@U?$pair@$$CBHUMYLIST_COLUMN_INFO@@@std@@@3@$0A@@std@@@std@@IAEXXZ ; std::_Tree<std::_Tmap_traits<int,MYLIST_COLUMN_INFO,std::less<int>,std::allocator<std::pair<int const ,MYLIST_COLUMN_INFO> >,0> >::_Tidy
; Function compile flags: /Odt /RTCsu
; File d:\program files (x86)\microsoft visual studio .net 2003\vc7\include\xtree
;	COMDAT ??1?$_Tree@V?$_Tmap_traits@HUMYLIST_COLUMN_INFO@@U?$less@H@std@@V?$allocator@U?$pair@$$CBHUMYLIST_COLUMN_INFO@@@std@@@3@$0A@@std@@@std@@QAE@XZ
_TEXT	SEGMENT
_this$ = -4						; size = 4
??1?$_Tree@V?$_Tmap_traits@HUMYLIST_COLUMN_INFO@@U?$less@H@std@@V?$allocator@U?$pair@$$CBHUMYLIST_COLUMN_INFO@@@std@@@3@$0A@@std@@@std@@QAE@XZ PROC NEAR ; std::_Tree<std::_Tmap_traits<int,MYLIST_COLUMN_INFO,std::less<int>,std::allocator<std::pair<int const ,MYLIST_COLUMN_INFO> >,0> >::~_Tree<std::_Tmap_traits<int,MYLIST_COLUMN_INFO,std::less<int>,std::allocator<std::pair<int const ,MYLIST_COLUMN_INFO> >,0> >, COMDAT
; _this$ = ecx

; 391  : 		{	// destroy tree

  00000	55		 push	 ebp
  00001	8b ec		 mov	 ebp, esp
  00003	51		 push	 ecx
  00004	c7 45 fc cc cc
	cc cc		 mov	 DWORD PTR [ebp-4], -858993460 ; ccccccccH
  0000b	89 4d fc	 mov	 DWORD PTR _this$[ebp], ecx

; 392  : 		_Tidy();

  0000e	8b 4d fc	 mov	 ecx, DWORD PTR _this$[ebp]
  00011	e8 00 00 00 00	 call	 ?_Tidy@?$_Tree@V?$_Tmap_traits@HUMYLIST_COLUMN_INFO@@U?$less@H@std@@V?$allocator@U?$pair@$$CBHUMYLIST_COLUMN_INFO@@@std@@@3@$0A@@std@@@std@@IAEXXZ ; std::_Tree<std::_Tmap_traits<int,MYLIST_COLUMN_INFO,std::less<int>,std::allocator<std::pair<int const ,MYLIST_COLUMN_INFO> >,0> >::_Tidy

; 393  : 		}

  00016	83 c4 04	 add	 esp, 4
  00019	3b ec		 cmp	 ebp, esp
  0001b	e8 00 00 00 00	 call	 __RTC_CheckEsp
  00020	8b e5		 mov	 esp, ebp
  00022	5d		 pop	 ebp
  00023	c3		 ret	 0
??1?$_Tree@V?$_Tmap_traits@HUMYLIST_COLUMN_INFO@@U?$less@H@std@@V?$allocator@U?$pair@$$CBHUMYLIST_COLUMN_INFO@@@std@@@3@$0A@@std@@@std@@QAE@XZ ENDP ; std::_Tree<std::_Tmap_traits<int,MYLIST_COLUMN_INFO,std::less<int>,std::allocator<std::pair<int const ,MYLIST_COLUMN_INFO> >,0> >::~_Tree<std::_Tmap_traits<int,MYLIST_COLUMN_INFO,std::less<int>,std::allocator<std::pair<int const ,MYLIST_COLUMN_INFO> >,0> >
_TEXT	ENDS
PUBLIC	??0iterator@?$_Tree@V?$_Tmap_traits@HUMYLIST_COLUMN_INFO@@U?$less@H@std@@V?$allocator@U?$pair@$$CBHUMYLIST_COLUMN_INFO@@@std@@@3@$0A@@std@@@std@@QAE@PAU_Node@?$_Tree_nod@V?$_Tmap_traits@HUMYLIST_COLUMN_INFO@@U?$less@H@std@@V?$allocator@U?$pair@$$CBHUMYLIST_COLUMN_INFO@@@std@@@3@$0A@@std@@@2@@Z ; std::_Tree<std::_Tmap_traits<int,MYLIST_COLUMN_INFO,std::less<int>,std::allocator<std::pair<int const ,MYLIST_COLUMN_INFO> >,0> >::iterator::iterator
PUBLIC	?_Lmost@?$_Tree@V?$_Tmap_traits@HUMYLIST_COLUMN_INFO@@U?$less@H@std@@V?$allocator@U?$pair@$$CBHUMYLIST_COLUMN_INFO@@@std@@@3@$0A@@std@@@std@@IAEAAPAU_Node@?$_Tree_nod@V?$_Tmap_traits@HUMYLIST_COLUMN_INFO@@U?$less@H@std@@V?$allocator@U?$pair@$$CBHUMYLIST_COLUMN_INFO@@@std@@@3@$0A@@std@@@2@XZ ; std::_Tree<std::_Tmap_traits<int,MYLIST_COLUMN_INFO,std::less<int>,std::allocator<std::pair<int const ,MYLIST_COLUMN_INFO> >,0> >::_Lmost
; Function compile flags: /Odt /RTCsu
;	COMDAT ?begin@?$_Tree@V?$_Tmap_traits@HUMYLIST_COLUMN_INFO@@U?$less@H@std@@V?$allocator@U?$pair@$$CBHUMYLIST_COLUMN_INFO@@@std@@@3@$0A@@std@@@std@@QAE?AViterator@12@XZ
_TEXT	SEGMENT
_this$ = -4						; size = 4
___$ReturnUdt$ = 8					; size = 4
?begin@?$_Tree@V?$_Tmap_traits@HUMYLIST_COLUMN_INFO@@U?$less@H@std@@V?$allocator@U?$pair@$$CBHUMYLIST_COLUMN_INFO@@@std@@@3@$0A@@std@@@std@@QAE?AViterator@12@XZ PROC NEAR ; std::_Tree<std::_Tmap_traits<int,MYLIST_COLUMN_INFO,std::less<int>,std::allocator<std::pair<int const ,MYLIST_COLUMN_INFO> >,0> >::begin, COMDAT
; _this$ = ecx

; 407  : 		{	// return iterator for beginning of mutable sequence

  00000	55		 push	 ebp
  00001	8b ec		 mov	 ebp, esp
  00003	51		 push	 ecx
  00004	c7 45 fc cc cc
	cc cc		 mov	 DWORD PTR [ebp-4], -858993460 ; ccccccccH
  0000b	89 4d fc	 mov	 DWORD PTR _this$[ebp], ecx

; 408  : 		return (_TREE_ITERATOR(_Lmost()));

  0000e	8b 4d fc	 mov	 ecx, DWORD PTR _this$[ebp]
  00011	e8 00 00 00 00	 call	 ?_Lmost@?$_Tree@V?$_Tmap_traits@HUMYLIST_COLUMN_INFO@@U?$less@H@std@@V?$allocator@U?$pair@$$CBHUMYLIST_COLUMN_INFO@@@std@@@3@$0A@@std@@@std@@IAEAAPAU_Node@?$_Tree_nod@V?$_Tmap_traits@HUMYLIST_COLUMN_INFO@@U?$less@H@std@@V?$allocator@U?$pair@$$CBHUMYLIST_COLUMN_INFO@@@std@@@3@$0A@@std@@@2@XZ ; std::_Tree<std::_Tmap_traits<int,MYLIST_COLUMN_INFO,std::less<int>,std::allocator<std::pair<int const ,MYLIST_COLUMN_INFO> >,0> >::_Lmost
  00016	8b 00		 mov	 eax, DWORD PTR [eax]
  00018	50		 push	 eax
  00019	8b 4d 08	 mov	 ecx, DWORD PTR ___$ReturnUdt$[ebp]
  0001c	e8 00 00 00 00	 call	 ??0iterator@?$_Tree@V?$_Tmap_traits@HUMYLIST_COLUMN_INFO@@U?$less@H@std@@V?$allocator@U?$pair@$$CBHUMYLIST_COLUMN_INFO@@@std@@@3@$0A@@std@@@std@@QAE@PAU_Node@?$_Tree_nod@V?$_Tmap_traits@HUMYLIST_COLUMN_INFO@@U?$less@H@std@@V?$allocator@U?$pair@$$CBHUMYLIST_COLUMN_INFO@@@std@@@3@$0A@@std@@@2@@Z ; std::_Tree<std::_Tmap_traits<int,MYLIST_COLUMN_INFO,std::less<int>,std::allocator<std::pair<int const ,MYLIST_COLUMN_INFO> >,0> >::iterator::iterator
  00021	8b 45 08	 mov	 eax, DWORD PTR ___$ReturnUdt$[ebp]

; 409  : 		}

  00024	83 c4 04	 add	 esp, 4
  00027	3b ec		 cmp	 ebp, esp
  00029	e8 00 00 00 00	 call	 __RTC_CheckEsp
  0002e	8b e5		 mov	 esp, ebp
  00030	5d		 pop	 ebp
  00031	c2 04 00	 ret	 4
?begin@?$_Tree@V?$_Tmap_traits@HUMYLIST_COLUMN_INFO@@U?$less@H@std@@V?$allocator@U?$pair@$$CBHUMYLIST_COLUMN_INFO@@@std@@@3@$0A@@std@@@std@@QAE?AViterator@12@XZ ENDP ; std::_Tree<std::_Tmap_traits<int,MYLIST_COLUMN_INFO,std::less<int>,std::allocator<std::pair<int const ,MYLIST_COLUMN_INFO> >,0> >::begin
; Function compile flags: /Odt /RTCsu
_TEXT	ENDS
;	COMDAT ?end@?$_Tree@V?$_Tmap_traits@HUMYLIST_COLUMN_INFO@@U?$less@H@std@@V?$allocator@U?$pair@$$CBHUMYLIST_COLUMN_INFO@@@std@@@3@$0A@@std@@@std@@QAE?AViterator@12@XZ
_TEXT	SEGMENT
_this$ = -4						; size = 4
___$ReturnUdt$ = 8					; size = 4
?end@?$_Tree@V?$_Tmap_traits@HUMYLIST_COLUMN_INFO@@U?$less@H@std@@V?$allocator@U?$pair@$$CBHUMYLIST_COLUMN_INFO@@@std@@@3@$0A@@std@@@std@@QAE?AViterator@12@XZ PROC NEAR ; std::_Tree<std::_Tmap_traits<int,MYLIST_COLUMN_INFO,std::less<int>,std::allocator<std::pair<int const ,MYLIST_COLUMN_INFO> >,0> >::end, COMDAT
; _this$ = ecx

; 417  : 		{	// return iterator for end of mutable sequence

  00000	55		 push	 ebp
  00001	8b ec		 mov	 ebp, esp
  00003	51		 push	 ecx
  00004	c7 45 fc cc cc
	cc cc		 mov	 DWORD PTR [ebp-4], -858993460 ; ccccccccH
  0000b	89 4d fc	 mov	 DWORD PTR _this$[ebp], ecx

; 418  : 		return (_TREE_ITERATOR(_Myhead));

  0000e	8b 45 fc	 mov	 eax, DWORD PTR _this$[ebp]
  00011	8b 48 04	 mov	 ecx, DWORD PTR [eax+4]
  00014	51		 push	 ecx
  00015	8b 4d 08	 mov	 ecx, DWORD PTR ___$ReturnUdt$[ebp]
  00018	e8 00 00 00 00	 call	 ??0iterator@?$_Tree@V?$_Tmap_traits@HUMYLIST_COLUMN_INFO@@U?$less@H@std@@V?$allocator@U?$pair@$$CBHUMYLIST_COLUMN_INFO@@@std@@@3@$0A@@std@@@std@@QAE@PAU_Node@?$_Tree_nod@V?$_Tmap_traits@HUMYLIST_COLUMN_INFO@@U?$less@H@std@@V?$allocator@U?$pair@$$CBHUMYLIST_COLUMN_INFO@@@std@@@3@$0A@@std@@@2@@Z ; std::_Tree<std::_Tmap_traits<int,MYLIST_COLUMN_INFO,std::less<int>,std::allocator<std::pair<int const ,MYLIST_COLUMN_INFO> >,0> >::iterator::iterator
  0001d	8b 45 08	 mov	 eax, DWORD PTR ___$ReturnUdt$[ebp]

; 419  : 		}

  00020	83 c4 04	 add	 esp, 4
  00023	3b ec		 cmp	 ebp, esp
  00025	e8 00 00 00 00	 call	 __RTC_CheckEsp
  0002a	8b e5		 mov	 esp, ebp
  0002c	5d		 pop	 ebp
  0002d	c2 04 00	 ret	 4
?end@?$_Tree@V?$_Tmap_traits@HUMYLIST_COLUMN_INFO@@U?$less@H@std@@V?$allocator@U?$pair@$$CBHUMYLIST_COLUMN_INFO@@@std@@@3@$0A@@std@@@std@@QAE?AViterator@12@XZ ENDP ; std::_Tree<std::_Tmap_traits<int,MYLIST_COLUMN_INFO,std::less<int>,std::allocator<std::pair<int const ,MYLIST_COLUMN_INFO> >,0> >::end
; Function compile flags: /Odt /RTCsu
_TEXT	ENDS
;	COMDAT ?size@?$_Tree@V?$_Tmap_traits@HUMYLIST_COLUMN_INFO@@U?$less@H@std@@V?$allocator@U?$pair@$$CBHUMYLIST_COLUMN_INFO@@@std@@@3@$0A@@std@@@std@@QBEIXZ
_TEXT	SEGMENT
_this$ = -4						; size = 4
?size@?$_Tree@V?$_Tmap_traits@HUMYLIST_COLUMN_INFO@@U?$less@H@std@@V?$allocator@U?$pair@$$CBHUMYLIST_COLUMN_INFO@@@std@@@3@$0A@@std@@@std@@QBEIXZ PROC NEAR ; std::_Tree<std::_Tmap_traits<int,MYLIST_COLUMN_INFO,std::less<int>,std::allocator<std::pair<int const ,MYLIST_COLUMN_INFO> >,0> >::size, COMDAT
; _this$ = ecx

; 447  : 		{	// return length of sequence

  00000	55		 push	 ebp
  00001	8b ec		 mov	 ebp, esp
  00003	51		 push	 ecx
  00004	c7 45 fc cc cc
	cc cc		 mov	 DWORD PTR [ebp-4], -858993460 ; ccccccccH
  0000b	89 4d fc	 mov	 DWORD PTR _this$[ebp], ecx

; 448  : 		return (_Mysize);

  0000e	8b 45 fc	 mov	 eax, DWORD PTR _this$[ebp]
  00011	8b 40 08	 mov	 eax, DWORD PTR [eax+8]

; 449  : 		}

  00014	8b e5		 mov	 esp, ebp
  00016	5d		 pop	 ebp
  00017	c3		 ret	 0
?size@?$_Tree@V?$_Tmap_traits@HUMYLIST_COLUMN_INFO@@U?$less@H@std@@V?$allocator@U?$pair@$$CBHUMYLIST_COLUMN_INFO@@@std@@@3@$0A@@std@@@std@@QBEIXZ ENDP ; std::_Tree<std::_Tmap_traits<int,MYLIST_COLUMN_INFO,std::less<int>,std::allocator<std::pair<int const ,MYLIST_COLUMN_INFO> >,0> >::size
_TEXT	ENDS
PUBLIC	?_Erase@?$_Tree@V?$_Tmap_traits@HUMYLIST_COLUMN_INFO@@U?$less@H@std@@V?$allocator@U?$pair@$$CBHUMYLIST_COLUMN_INFO@@@std@@@3@$0A@@std@@@std@@IAEXPAU_Node@?$_Tree_nod@V?$_Tmap_traits@HUMYLIST_COLUMN_INFO@@U?$less@H@std@@V?$allocator@U?$pair@$$CBHUMYLIST_COLUMN_INFO@@@std@@@3@$0A@@std@@@2@@Z ; std::_Tree<std::_Tmap_traits<int,MYLIST_COLUMN_INFO,std::less<int>,std::allocator<std::pair<int const ,MYLIST_COLUMN_INFO> >,0> >::_Erase
PUBLIC	?_Rmost@?$_Tree@V?$_Tmap_traits@HUMYLIST_COLUMN_INFO@@U?$less@H@std@@V?$allocator@U?$pair@$$CBHUMYLIST_COLUMN_INFO@@@std@@@3@$0A@@std@@@std@@IAEAAPAU_Node@?$_Tree_nod@V?$_Tmap_traits@HUMYLIST_COLUMN_INFO@@U?$less@H@std@@V?$allocator@U?$pair@$$CBHUMYLIST_COLUMN_INFO@@@std@@@3@$0A@@std@@@2@XZ ; std::_Tree<std::_Tmap_traits<int,MYLIST_COLUMN_INFO,std::less<int>,std::allocator<std::pair<int const ,MYLIST_COLUMN_INFO> >,0> >::_Rmost
PUBLIC	?_Root@?$_Tree@V?$_Tmap_traits@HUMYLIST_COLUMN_INFO@@U?$less@H@std@@V?$allocator@U?$pair@$$CBHUMYLIST_COLUMN_INFO@@@std@@@3@$0A@@std@@@std@@IAEAAPAU_Node@?$_Tree_nod@V?$_Tmap_traits@HUMYLIST_COLUMN_INFO@@U?$less@H@std@@V?$allocator@U?$pair@$$CBHUMYLIST_COLUMN_INFO@@@std@@@3@$0A@@std@@@2@XZ ; std::_Tree<std::_Tmap_traits<int,MYLIST_COLUMN_INFO,std::less<int>,std::allocator<std::pair<int const ,MYLIST_COLUMN_INFO> >,0> >::_Root
; Function compile flags: /Odt /RTCsu
;	COMDAT ?clear@?$_Tree@V?$_Tmap_traits@HUMYLIST_COLUMN_INFO@@U?$less@H@std@@V?$allocator@U?$pair@$$CBHUMYLIST_COLUMN_INFO@@@std@@@3@$0A@@std@@@std@@QAEXXZ
_TEXT	SEGMENT
_this$ = -4						; size = 4
?clear@?$_Tree@V?$_Tmap_traits@HUMYLIST_COLUMN_INFO@@U?$less@H@std@@V?$allocator@U?$pair@$$CBHUMYLIST_COLUMN_INFO@@@std@@@3@$0A@@std@@@std@@QAEXXZ PROC NEAR ; std::_Tree<std::_Tmap_traits<int,MYLIST_COLUMN_INFO,std::less<int>,std::allocator<std::pair<int const ,MYLIST_COLUMN_INFO> >,0> >::clear, COMDAT
; _this$ = ecx

; 780  : 		{	// erase all

  00000	55		 push	 ebp
  00001	8b ec		 mov	 ebp, esp
  00003	51		 push	 ecx
  00004	c7 45 fc cc cc
	cc cc		 mov	 DWORD PTR [ebp-4], -858993460 ; ccccccccH
  0000b	89 4d fc	 mov	 DWORD PTR _this$[ebp], ecx

; 781  : 		_Erase(_Root());

  0000e	8b 4d fc	 mov	 ecx, DWORD PTR _this$[ebp]
  00011	e8 00 00 00 00	 call	 ?_Root@?$_Tree@V?$_Tmap_traits@HUMYLIST_COLUMN_INFO@@U?$less@H@std@@V?$allocator@U?$pair@$$CBHUMYLIST_COLUMN_INFO@@@std@@@3@$0A@@std@@@std@@IAEAAPAU_Node@?$_Tree_nod@V?$_Tmap_traits@HUMYLIST_COLUMN_INFO@@U?$less@H@std@@V?$allocator@U?$pair@$$CBHUMYLIST_COLUMN_INFO@@@std@@@3@$0A@@std@@@2@XZ ; std::_Tree<std::_Tmap_traits<int,MYLIST_COLUMN_INFO,std::less<int>,std::allocator<std::pair<int const ,MYLIST_COLUMN_INFO> >,0> >::_Root
  00016	8b 00		 mov	 eax, DWORD PTR [eax]
  00018	50		 push	 eax
  00019	8b 4d fc	 mov	 ecx, DWORD PTR _this$[ebp]
  0001c	e8 00 00 00 00	 call	 ?_Erase@?$_Tree@V?$_Tmap_traits@HUMYLIST_COLUMN_INFO@@U?$less@H@std@@V?$allocator@U?$pair@$$CBHUMYLIST_COLUMN_INFO@@@std@@@3@$0A@@std@@@std@@IAEXPAU_Node@?$_Tree_nod@V?$_Tmap_traits@HUMYLIST_COLUMN_INFO@@U?$less@H@std@@V?$allocator@U?$pair@$$CBHUMYLIST_COLUMN_INFO@@@std@@@3@$0A@@std@@@2@@Z ; std::_Tree<std::_Tmap_traits<int,MYLIST_COLUMN_INFO,std::less<int>,std::allocator<std::pair<int const ,MYLIST_COLUMN_INFO> >,0> >::_Erase

; 782  : 		_Root() = _Myhead, _Mysize = 0;

  00021	8b 4d fc	 mov	 ecx, DWORD PTR _this$[ebp]
  00024	e8 00 00 00 00	 call	 ?_Root@?$_Tree@V?$_Tmap_traits@HUMYLIST_COLUMN_INFO@@U?$less@H@std@@V?$allocator@U?$pair@$$CBHUMYLIST_COLUMN_INFO@@@std@@@3@$0A@@std@@@std@@IAEAAPAU_Node@?$_Tree_nod@V?$_Tmap_traits@HUMYLIST_COLUMN_INFO@@U?$less@H@std@@V?$allocator@U?$pair@$$CBHUMYLIST_COLUMN_INFO@@@std@@@3@$0A@@std@@@2@XZ ; std::_Tree<std::_Tmap_traits<int,MYLIST_COLUMN_INFO,std::less<int>,std::allocator<std::pair<int const ,MYLIST_COLUMN_INFO> >,0> >::_Root
  00029	8b 4d fc	 mov	 ecx, DWORD PTR _this$[ebp]
  0002c	8b 51 04	 mov	 edx, DWORD PTR [ecx+4]
  0002f	89 10		 mov	 DWORD PTR [eax], edx
  00031	8b 45 fc	 mov	 eax, DWORD PTR _this$[ebp]
  00034	c7 40 08 00 00
	00 00		 mov	 DWORD PTR [eax+8], 0

; 783  : 		_Lmost() = _Myhead, _Rmost() = _Myhead;

  0003b	8b 4d fc	 mov	 ecx, DWORD PTR _this$[ebp]
  0003e	e8 00 00 00 00	 call	 ?_Lmost@?$_Tree@V?$_Tmap_traits@HUMYLIST_COLUMN_INFO@@U?$less@H@std@@V?$allocator@U?$pair@$$CBHUMYLIST_COLUMN_INFO@@@std@@@3@$0A@@std@@@std@@IAEAAPAU_Node@?$_Tree_nod@V?$_Tmap_traits@HUMYLIST_COLUMN_INFO@@U?$less@H@std@@V?$allocator@U?$pair@$$CBHUMYLIST_COLUMN_INFO@@@std@@@3@$0A@@std@@@2@XZ ; std::_Tree<std::_Tmap_traits<int,MYLIST_COLUMN_INFO,std::less<int>,std::allocator<std::pair<int const ,MYLIST_COLUMN_INFO> >,0> >::_Lmost
  00043	8b 4d fc	 mov	 ecx, DWORD PTR _this$[ebp]
  00046	8b 51 04	 mov	 edx, DWORD PTR [ecx+4]
  00049	89 10		 mov	 DWORD PTR [eax], edx
  0004b	8b 4d fc	 mov	 ecx, DWORD PTR _this$[ebp]
  0004e	e8 00 00 00 00	 call	 ?_Rmost@?$_Tree@V?$_Tmap_traits@HUMYLIST_COLUMN_INFO@@U?$less@H@std@@V?$allocator@U?$pair@$$CBHUMYLIST_COLUMN_INFO@@@std@@@3@$0A@@std@@@std@@IAEAAPAU_Node@?$_Tree_nod@V?$_Tmap_traits@HUMYLIST_COLUMN_INFO@@U?$less@H@std@@V?$allocator@U?$pair@$$CBHUMYLIST_COLUMN_INFO@@@std@@@3@$0A@@std@@@2@XZ ; std::_Tree<std::_Tmap_traits<int,MYLIST_COLUMN_INFO,std::less<int>,std::allocator<std::pair<int const ,MYLIST_COLUMN_INFO> >,0> >::_Rmost
  00053	8b 4d fc	 mov	 ecx, DWORD PTR _this$[ebp]
  00056	8b 51 04	 mov	 edx, DWORD PTR [ecx+4]
  00059	89 10		 mov	 DWORD PTR [eax], edx

; 784  : 		}

  0005b	83 c4 04	 add	 esp, 4
  0005e	3b ec		 cmp	 ebp, esp
  00060	e8 00 00 00 00	 call	 __RTC_CheckEsp
  00065	8b e5		 mov	 esp, ebp
  00067	5d		 pop	 ebp
  00068	c3		 ret	 0
?clear@?$_Tree@V?$_Tmap_traits@HUMYLIST_COLUMN_INFO@@U?$less@H@std@@V?$allocator@U?$pair@$$CBHUMYLIST_COLUMN_INFO@@@std@@@3@$0A@@std@@@std@@QAEXXZ ENDP ; std::_Tree<std::_Tmap_traits<int,MYLIST_COLUMN_INFO,std::less<int>,std::allocator<std::pair<int const ,MYLIST_COLUMN_INFO> >,0> >::clear
_TEXT	ENDS
PUBLIC	??0?$allocator@H@std@@QAE@XZ			; std::allocator<int>::allocator<int>
PUBLIC	??0?$_Vector_val@HV?$allocator@H@std@@@std@@IAE@V?$allocator@H@1@@Z ; std::_Vector_val<int,std::allocator<int> >::_Vector_val<int,std::allocator<int> >
PUBLIC	?_Buy@?$vector@HV?$allocator@H@std@@@std@@IAE_NI@Z ; std::vector<int,std::allocator<int> >::_Buy
; Function compile flags: /Odt /RTCsu
; File d:\program files (x86)\microsoft visual studio .net 2003\vc7\include\vector
;	COMDAT ??0?$vector@HV?$allocator@H@std@@@std@@QAE@XZ
_TEXT	SEGMENT
_this$ = -4						; size = 4
??0?$vector@HV?$allocator@H@std@@@std@@QAE@XZ PROC NEAR	; std::vector<int,std::allocator<int> >::vector<int,std::allocator<int> >, COMDAT
; _this$ = ecx

; 299  : 		{	// construct empty vector

  00000	55		 push	 ebp
  00001	8b ec		 mov	 ebp, esp
  00003	83 ec 08	 sub	 esp, 8
  00006	c7 45 f8 cc cc
	cc cc		 mov	 DWORD PTR [ebp-8], -858993460 ; ccccccccH
  0000d	c7 45 fc cc cc
	cc cc		 mov	 DWORD PTR [ebp-4], -858993460 ; ccccccccH
  00014	89 4d fc	 mov	 DWORD PTR _this$[ebp], ecx
  00017	51		 push	 ecx
  00018	8b cc		 mov	 ecx, esp
  0001a	e8 00 00 00 00	 call	 ??0?$allocator@H@std@@QAE@XZ ; std::allocator<int>::allocator<int>
  0001f	8b 4d fc	 mov	 ecx, DWORD PTR _this$[ebp]
  00022	e8 00 00 00 00	 call	 ??0?$_Vector_val@HV?$allocator@H@std@@@std@@IAE@V?$allocator@H@1@@Z ; std::_Vector_val<int,std::allocator<int> >::_Vector_val<int,std::allocator<int> >

; 300  : 		_Buy(0);

  00027	6a 00		 push	 0
  00029	8b 4d fc	 mov	 ecx, DWORD PTR _this$[ebp]
  0002c	e8 00 00 00 00	 call	 ?_Buy@?$vector@HV?$allocator@H@std@@@std@@IAE_NI@Z ; std::vector<int,std::allocator<int> >::_Buy

; 301  : 		}

  00031	8b 45 fc	 mov	 eax, DWORD PTR _this$[ebp]
  00034	83 c4 08	 add	 esp, 8
  00037	3b ec		 cmp	 ebp, esp
  00039	e8 00 00 00 00	 call	 __RTC_CheckEsp
  0003e	8b e5		 mov	 esp, ebp
  00040	5d		 pop	 ebp
  00041	c3		 ret	 0
??0?$vector@HV?$allocator@H@std@@@std@@QAE@XZ ENDP	; std::vector<int,std::allocator<int> >::vector<int,std::allocator<int> >
_TEXT	ENDS
PUBLIC	?_Tidy@?$vector@HV?$allocator@H@std@@@std@@IAEXXZ ; std::vector<int,std::allocator<int> >::_Tidy
; Function compile flags: /Odt /RTCsu
;	COMDAT ??1?$vector@HV?$allocator@H@std@@@std@@QAE@XZ
_TEXT	SEGMENT
_this$ = -4						; size = 4
??1?$vector@HV?$allocator@H@std@@@std@@QAE@XZ PROC NEAR	; std::vector<int,std::allocator<int> >::~vector<int,std::allocator<int> >, COMDAT
; _this$ = ecx

; 387  : 		{	// destroy the object

  00000	55		 push	 ebp
  00001	8b ec		 mov	 ebp, esp
  00003	51		 push	 ecx
  00004	c7 45 fc cc cc
	cc cc		 mov	 DWORD PTR [ebp-4], -858993460 ; ccccccccH
  0000b	89 4d fc	 mov	 DWORD PTR _this$[ebp], ecx

; 388  : 		_Tidy();

  0000e	8b 4d fc	 mov	 ecx, DWORD PTR _this$[ebp]
  00011	e8 00 00 00 00	 call	 ?_Tidy@?$vector@HV?$allocator@H@std@@@std@@IAEXXZ ; std::vector<int,std::allocator<int> >::_Tidy

; 389  : 		}

  00016	83 c4 04	 add	 esp, 4
  00019	3b ec		 cmp	 ebp, esp
  0001b	e8 00 00 00 00	 call	 __RTC_CheckEsp
  00020	8b e5		 mov	 esp, ebp
  00022	5d		 pop	 ebp
  00023	c3		 ret	 0
??1?$vector@HV?$allocator@H@std@@@std@@QAE@XZ ENDP	; std::vector<int,std::allocator<int> >::~vector<int,std::allocator<int> >
_TEXT	ENDS
PUBLIC	??0iterator@?$vector@HV?$allocator@H@std@@@std@@QAE@PAH@Z ; std::vector<int,std::allocator<int> >::iterator::iterator
; Function compile flags: /Odt /RTCsu
;	COMDAT ?begin@?$vector@HV?$allocator@H@std@@@std@@QAE?AViterator@12@XZ
_TEXT	SEGMENT
_this$ = -4						; size = 4
___$ReturnUdt$ = 8					; size = 4
?begin@?$vector@HV?$allocator@H@std@@@std@@QAE?AViterator@12@XZ PROC NEAR ; std::vector<int,std::allocator<int> >::begin, COMDAT
; _this$ = ecx

; 462  : 		{	// return iterator for beginning of mutable sequence

  00000	55		 push	 ebp
  00001	8b ec		 mov	 ebp, esp
  00003	51		 push	 ecx
  00004	c7 45 fc cc cc
	cc cc		 mov	 DWORD PTR [ebp-4], -858993460 ; ccccccccH
  0000b	89 4d fc	 mov	 DWORD PTR _this$[ebp], ecx

; 463  : 		return (iterator(_Myfirst));

  0000e	8b 45 fc	 mov	 eax, DWORD PTR _this$[ebp]
  00011	8b 48 04	 mov	 ecx, DWORD PTR [eax+4]
  00014	51		 push	 ecx
  00015	8b 4d 08	 mov	 ecx, DWORD PTR ___$ReturnUdt$[ebp]
  00018	e8 00 00 00 00	 call	 ??0iterator@?$vector@HV?$allocator@H@std@@@std@@QAE@PAH@Z ; std::vector<int,std::allocator<int> >::iterator::iterator
  0001d	8b 45 08	 mov	 eax, DWORD PTR ___$ReturnUdt$[ebp]

; 464  : 		}

  00020	83 c4 04	 add	 esp, 4
  00023	3b ec		 cmp	 ebp, esp
  00025	e8 00 00 00 00	 call	 __RTC_CheckEsp
  0002a	8b e5		 mov	 esp, ebp
  0002c	5d		 pop	 ebp
  0002d	c2 04 00	 ret	 4
?begin@?$vector@HV?$allocator@H@std@@@std@@QAE?AViterator@12@XZ ENDP ; std::vector<int,std::allocator<int> >::begin
; Function compile flags: /Odt /RTCsu
_TEXT	ENDS
;	COMDAT ?end@?$vector@HV?$allocator@H@std@@@std@@QAE?AViterator@12@XZ
_TEXT	SEGMENT
_this$ = -4						; size = 4
___$ReturnUdt$ = 8					; size = 4
?end@?$vector@HV?$allocator@H@std@@@std@@QAE?AViterator@12@XZ PROC NEAR ; std::vector<int,std::allocator<int> >::end, COMDAT
; _this$ = ecx

; 472  : 		{	// return iterator for end of mutable sequence

  00000	55		 push	 ebp
  00001	8b ec		 mov	 ebp, esp
  00003	51		 push	 ecx
  00004	c7 45 fc cc cc
	cc cc		 mov	 DWORD PTR [ebp-4], -858993460 ; ccccccccH
  0000b	89 4d fc	 mov	 DWORD PTR _this$[ebp], ecx

; 473  : 		return (iterator(_Mylast));

  0000e	8b 45 fc	 mov	 eax, DWORD PTR _this$[ebp]
  00011	8b 48 08	 mov	 ecx, DWORD PTR [eax+8]
  00014	51		 push	 ecx
  00015	8b 4d 08	 mov	 ecx, DWORD PTR ___$ReturnUdt$[ebp]
  00018	e8 00 00 00 00	 call	 ??0iterator@?$vector@HV?$allocator@H@std@@@std@@QAE@PAH@Z ; std::vector<int,std::allocator<int> >::iterator::iterator
  0001d	8b 45 08	 mov	 eax, DWORD PTR ___$ReturnUdt$[ebp]

; 474  : 		}

  00020	83 c4 04	 add	 esp, 4
  00023	3b ec		 cmp	 ebp, esp
  00025	e8 00 00 00 00	 call	 __RTC_CheckEsp
  0002a	8b e5		 mov	 esp, ebp
  0002c	5d		 pop	 ebp
  0002d	c2 04 00	 ret	 4
?end@?$vector@HV?$allocator@H@std@@@std@@QAE?AViterator@12@XZ ENDP ; std::vector<int,std::allocator<int> >::end
; Function compile flags: /Odt /RTCsu
_TEXT	ENDS
;	COMDAT ?clear@?$vector@HV?$allocator@H@std@@@std@@QAEXXZ
_TEXT	SEGMENT
_this$ = -4						; size = 4
?clear@?$vector@HV?$allocator@H@std@@@std@@QAEXXZ PROC NEAR ; std::vector<int,std::allocator<int> >::clear, COMDAT
; _this$ = ecx

; 743  : 		{	// erase all

  00000	55		 push	 ebp
  00001	8b ec		 mov	 ebp, esp
  00003	51		 push	 ecx
  00004	c7 45 fc cc cc
	cc cc		 mov	 DWORD PTR [ebp-4], -858993460 ; ccccccccH
  0000b	89 4d fc	 mov	 DWORD PTR _this$[ebp], ecx

; 744  : 		_Tidy();

  0000e	8b 4d fc	 mov	 ecx, DWORD PTR _this$[ebp]
  00011	e8 00 00 00 00	 call	 ?_Tidy@?$vector@HV?$allocator@H@std@@@std@@IAEXXZ ; std::vector<int,std::allocator<int> >::_Tidy

; 745  : 		}

  00016	83 c4 04	 add	 esp, 4
  00019	3b ec		 cmp	 ebp, esp
  0001b	e8 00 00 00 00	 call	 __RTC_CheckEsp
  00020	8b e5		 mov	 esp, ebp
  00022	5d		 pop	 ebp
  00023	c3		 ret	 0
?clear@?$vector@HV?$allocator@H@std@@@std@@QAEXXZ ENDP	; std::vector<int,std::allocator<int> >::clear
; Function compile flags: /Odt /RTCsu
_TEXT	ENDS
;	COMDAT ?size@?$vector@UMYLIST_COLUMN_INFO@@V?$allocator@UMYLIST_COLUMN_INFO@@@std@@@std@@QBEIXZ
_TEXT	SEGMENT
tv70 = -8						; size = 4
_this$ = -4						; size = 4
?size@?$vector@UMYLIST_COLUMN_INFO@@V?$allocator@UMYLIST_COLUMN_INFO@@@std@@@std@@QBEIXZ PROC NEAR ; std::vector<MYLIST_COLUMN_INFO,std::allocator<MYLIST_COLUMN_INFO> >::size, COMDAT
; _this$ = ecx

; 515  : 		{	// return length of sequence

  00000	55		 push	 ebp
  00001	8b ec		 mov	 ebp, esp
  00003	83 ec 08	 sub	 esp, 8
  00006	c7 45 f8 cc cc
	cc cc		 mov	 DWORD PTR [ebp-8], -858993460 ; ccccccccH
  0000d	c7 45 fc cc cc
	cc cc		 mov	 DWORD PTR [ebp-4], -858993460 ; ccccccccH
  00014	89 4d fc	 mov	 DWORD PTR _this$[ebp], ecx

; 516  : 		return (_Myfirst == 0 ? 0 : _Mylast - _Myfirst);

  00017	8b 45 fc	 mov	 eax, DWORD PTR _this$[ebp]
  0001a	83 78 04 00	 cmp	 DWORD PTR [eax+4], 0
  0001e	75 09		 jne	 SHORT $L192015
  00020	c7 45 f8 00 00
	00 00		 mov	 DWORD PTR tv70[ebp], 0
  00027	eb 17		 jmp	 SHORT $L192016
$L192015:
  00029	8b 4d fc	 mov	 ecx, DWORD PTR _this$[ebp]
  0002c	8b 55 fc	 mov	 edx, DWORD PTR _this$[ebp]
  0002f	8b 41 08	 mov	 eax, DWORD PTR [ecx+8]
  00032	2b 42 04	 sub	 eax, DWORD PTR [edx+4]
  00035	99		 cdq
  00036	b9 4c 00 00 00	 mov	 ecx, 76			; 0000004cH
  0003b	f7 f9		 idiv	 ecx
  0003d	89 45 f8	 mov	 DWORD PTR tv70[ebp], eax
$L192016:
  00040	8b 45 f8	 mov	 eax, DWORD PTR tv70[ebp]

; 517  : 		}

  00043	8b e5		 mov	 esp, ebp
  00045	5d		 pop	 ebp
  00046	c3		 ret	 0
?size@?$vector@UMYLIST_COLUMN_INFO@@V?$allocator@UMYLIST_COLUMN_INFO@@@std@@@std@@QBEIXZ ENDP ; std::vector<MYLIST_COLUMN_INFO,std::allocator<MYLIST_COLUMN_INFO> >::size
_TEXT	ENDS
PUBLIC	??Dconst_iterator@?$vector@UMYLIST_COLUMN_INFO@@V?$allocator@UMYLIST_COLUMN_INFO@@@std@@@std@@QBEABUMYLIST_COLUMN_INFO@@XZ ; std::vector<MYLIST_COLUMN_INFO,std::allocator<MYLIST_COLUMN_INFO> >::const_iterator::operator*
PUBLIC	??Hconst_iterator@?$vector@UMYLIST_COLUMN_INFO@@V?$allocator@UMYLIST_COLUMN_INFO@@@std@@@std@@QBE?AV012@H@Z ; std::vector<MYLIST_COLUMN_INFO,std::allocator<MYLIST_COLUMN_INFO> >::const_iterator::operator+
PUBLIC	?begin@?$vector@UMYLIST_COLUMN_INFO@@V?$allocator@UMYLIST_COLUMN_INFO@@@std@@@std@@QBE?AVconst_iterator@12@XZ ; std::vector<MYLIST_COLUMN_INFO,std::allocator<MYLIST_COLUMN_INFO> >::begin
; Function compile flags: /Odt /RTCsu
;	COMDAT ??A?$vector@UMYLIST_COLUMN_INFO@@V?$allocator@UMYLIST_COLUMN_INFO@@@std@@@std@@QBEABUMYLIST_COLUMN_INFO@@I@Z
_TEXT	SEGMENT
$T192019 = -12						; size = 4
$T192018 = -8						; size = 4
_this$ = -4						; size = 4
__Pos$ = 8						; size = 4
??A?$vector@UMYLIST_COLUMN_INFO@@V?$allocator@UMYLIST_COLUMN_INFO@@@std@@@std@@QBEABUMYLIST_COLUMN_INFO@@I@Z PROC NEAR ; std::vector<MYLIST_COLUMN_INFO,std::allocator<MYLIST_COLUMN_INFO> >::operator[], COMDAT
; _this$ = ecx

; 549  : 		{	// subscript nonmutable sequence

  00000	55		 push	 ebp
  00001	8b ec		 mov	 ebp, esp
  00003	83 ec 0c	 sub	 esp, 12			; 0000000cH
  00006	c7 45 f4 cc cc
	cc cc		 mov	 DWORD PTR [ebp-12], -858993460 ; ccccccccH
  0000d	c7 45 f8 cc cc
	cc cc		 mov	 DWORD PTR [ebp-8], -858993460 ; ccccccccH
  00014	c7 45 fc cc cc
	cc cc		 mov	 DWORD PTR [ebp-4], -858993460 ; ccccccccH
  0001b	89 4d fc	 mov	 DWORD PTR _this$[ebp], ecx

; 550  : 		return (*(begin() + _Pos));

  0001e	8b 45 08	 mov	 eax, DWORD PTR __Pos$[ebp]
  00021	50		 push	 eax
  00022	8d 4d f4	 lea	 ecx, DWORD PTR $T192019[ebp]
  00025	51		 push	 ecx
  00026	8d 55 f8	 lea	 edx, DWORD PTR $T192018[ebp]
  00029	52		 push	 edx
  0002a	8b 4d fc	 mov	 ecx, DWORD PTR _this$[ebp]
  0002d	e8 00 00 00 00	 call	 ?begin@?$vector@UMYLIST_COLUMN_INFO@@V?$allocator@UMYLIST_COLUMN_INFO@@@std@@@std@@QBE?AVconst_iterator@12@XZ ; std::vector<MYLIST_COLUMN_INFO,std::allocator<MYLIST_COLUMN_INFO> >::begin
  00032	8b c8		 mov	 ecx, eax
  00034	e8 00 00 00 00	 call	 ??Hconst_iterator@?$vector@UMYLIST_COLUMN_INFO@@V?$allocator@UMYLIST_COLUMN_INFO@@@std@@@std@@QBE?AV012@H@Z ; std::vector<MYLIST_COLUMN_INFO,std::allocator<MYLIST_COLUMN_INFO> >::const_iterator::operator+
  00039	8b c8		 mov	 ecx, eax
  0003b	e8 00 00 00 00	 call	 ??Dconst_iterator@?$vector@UMYLIST_COLUMN_INFO@@V?$allocator@UMYLIST_COLUMN_INFO@@@std@@@std@@QBEABUMYLIST_COLUMN_INFO@@XZ ; std::vector<MYLIST_COLUMN_INFO,std::allocator<MYLIST_COLUMN_INFO> >::const_iterator::operator*

; 551  : 		}

  00040	83 c4 0c	 add	 esp, 12			; 0000000cH
  00043	3b ec		 cmp	 ebp, esp
  00045	e8 00 00 00 00	 call	 __RTC_CheckEsp
  0004a	8b e5		 mov	 esp, ebp
  0004c	5d		 pop	 ebp
  0004d	c2 04 00	 ret	 4
??A?$vector@UMYLIST_COLUMN_INFO@@V?$allocator@UMYLIST_COLUMN_INFO@@@std@@@std@@QBEABUMYLIST_COLUMN_INFO@@I@Z ENDP ; std::vector<MYLIST_COLUMN_INFO,std::allocator<MYLIST_COLUMN_INFO> >::operator[]
; Function compile flags: /Odt /RTCsu
; File d:\program files (x86)\microsoft visual studio .net 2003\vc7\include\xtree
_TEXT	ENDS
;	COMDAT ??Citerator@?$_Tree@V?$_Tmap_traits@HUMYLIST_COLUMN_INFO@@U?$less@H@std@@V?$allocator@U?$pair@$$CBHUMYLIST_COLUMN_INFO@@@std@@@3@$0A@@std@@@std@@QBEPAU?$pair@$$CBHUMYLIST_COLUMN_INFO@@@2@XZ
_TEXT	SEGMENT
_this$ = -4						; size = 4
??Citerator@?$_Tree@V?$_Tmap_traits@HUMYLIST_COLUMN_INFO@@U?$less@H@std@@V?$allocator@U?$pair@$$CBHUMYLIST_COLUMN_INFO@@@std@@@3@$0A@@std@@@std@@QBEPAU?$pair@$$CBHUMYLIST_COLUMN_INFO@@@2@XZ PROC NEAR ; std::_Tree<std::_Tmap_traits<int,MYLIST_COLUMN_INFO,std::less<int>,std::allocator<std::pair<int const ,MYLIST_COLUMN_INFO> >,0> >::iterator::operator->, COMDAT
; _this$ = ecx

; 321  : 			{	// return pointer to class object

  00000	55		 push	 ebp
  00001	8b ec		 mov	 ebp, esp
  00003	51		 push	 ecx
  00004	c7 45 fc cc cc
	cc cc		 mov	 DWORD PTR [ebp-4], -858993460 ; ccccccccH
  0000b	89 4d fc	 mov	 DWORD PTR _this$[ebp], ecx

; 322  : 			return (&**this);

  0000e	8b 4d fc	 mov	 ecx, DWORD PTR _this$[ebp]
  00011	e8 00 00 00 00	 call	 ??Diterator@?$_Tree@V?$_Tmap_traits@HUMYLIST_COLUMN_INFO@@U?$less@H@std@@V?$allocator@U?$pair@$$CBHUMYLIST_COLUMN_INFO@@@std@@@3@$0A@@std@@@std@@QBEAAU?$pair@$$CBHUMYLIST_COLUMN_INFO@@@2@XZ ; std::_Tree<std::_Tmap_traits<int,MYLIST_COLUMN_INFO,std::less<int>,std::allocator<std::pair<int const ,MYLIST_COLUMN_INFO> >,0> >::iterator::operator*

; 323  : 			}

  00016	83 c4 04	 add	 esp, 4
  00019	3b ec		 cmp	 ebp, esp
  0001b	e8 00 00 00 00	 call	 __RTC_CheckEsp
  00020	8b e5		 mov	 esp, ebp
  00022	5d		 pop	 ebp
  00023	c3		 ret	 0
??Citerator@?$_Tree@V?$_Tmap_traits@HUMYLIST_COLUMN_INFO@@U?$less@H@std@@V?$allocator@U?$pair@$$CBHUMYLIST_COLUMN_INFO@@@std@@@3@$0A@@std@@@std@@QBEPAU?$pair@$$CBHUMYLIST_COLUMN_INFO@@@2@XZ ENDP ; std::_Tree<std::_Tmap_traits<int,MYLIST_COLUMN_INFO,std::less<int>,std::allocator<std::pair<int const ,MYLIST_COLUMN_INFO> >,0> >::iterator::operator->
_TEXT	ENDS
PUBLIC	??Eiterator@?$_Tree@V?$_Tmap_traits@HUMYLIST_COLUMN_INFO@@U?$less@H@std@@V?$allocator@U?$pair@$$CBHUMYLIST_COLUMN_INFO@@@std@@@3@$0A@@std@@@std@@QAEAAV012@XZ ; std::_Tree<std::_Tmap_traits<int,MYLIST_COLUMN_INFO,std::less<int>,std::allocator<std::pair<int const ,MYLIST_COLUMN_INFO> >,0> >::iterator::operator++
; Function compile flags: /Odt /RTCsu
;	COMDAT ??Eiterator@?$_Tree@V?$_Tmap_traits@HUMYLIST_COLUMN_INFO@@U?$less@H@std@@V?$allocator@U?$pair@$$CBHUMYLIST_COLUMN_INFO@@@std@@@3@$0A@@std@@@std@@QAE?AV012@H@Z
_TEXT	SEGMENT
__Tmp$ = -12						; size = 4
_this$ = -4						; size = 4
___$ReturnUdt$ = 8					; size = 4
___formal$ = 12						; size = 4
??Eiterator@?$_Tree@V?$_Tmap_traits@HUMYLIST_COLUMN_INFO@@U?$less@H@std@@V?$allocator@U?$pair@$$CBHUMYLIST_COLUMN_INFO@@@std@@@3@$0A@@std@@@std@@QAE?AV012@H@Z PROC NEAR ; std::_Tree<std::_Tmap_traits<int,MYLIST_COLUMN_INFO,std::less<int>,std::allocator<std::pair<int const ,MYLIST_COLUMN_INFO> >,0> >::iterator::operator++, COMDAT
; _this$ = ecx

; 332  : 			{	// postincrement

  00000	55		 push	 ebp
  00001	8b ec		 mov	 ebp, esp
  00003	83 ec 10	 sub	 esp, 16			; 00000010H
  00006	b8 cc cc cc cc	 mov	 eax, -858993460		; ccccccccH
  0000b	89 45 f0	 mov	 DWORD PTR [ebp-16], eax
  0000e	89 45 f4	 mov	 DWORD PTR [ebp-12], eax
  00011	89 45 f8	 mov	 DWORD PTR [ebp-8], eax
  00014	89 45 fc	 mov	 DWORD PTR [ebp-4], eax
  00017	89 4d fc	 mov	 DWORD PTR _this$[ebp], ecx

; 333  : 			iterator _Tmp = *this;

  0001a	8b 45 fc	 mov	 eax, DWORD PTR _this$[ebp]
  0001d	8b 08		 mov	 ecx, DWORD PTR [eax]
  0001f	89 4d f4	 mov	 DWORD PTR __Tmp$[ebp], ecx

; 334  : 			++*this;

  00022	8b 4d fc	 mov	 ecx, DWORD PTR _this$[ebp]
  00025	e8 00 00 00 00	 call	 ??Eiterator@?$_Tree@V?$_Tmap_traits@HUMYLIST_COLUMN_INFO@@U?$less@H@std@@V?$allocator@U?$pair@$$CBHUMYLIST_COLUMN_INFO@@@std@@@3@$0A@@std@@@std@@QAEAAV012@XZ ; std::_Tree<std::_Tmap_traits<int,MYLIST_COLUMN_INFO,std::less<int>,std::allocator<std::pair<int const ,MYLIST_COLUMN_INFO> >,0> >::iterator::operator++

; 335  : 			return (_Tmp);

  0002a	8b 55 08	 mov	 edx, DWORD PTR ___$ReturnUdt$[ebp]
  0002d	8b 45 f4	 mov	 eax, DWORD PTR __Tmp$[ebp]
  00030	89 02		 mov	 DWORD PTR [edx], eax
  00032	8b 45 08	 mov	 eax, DWORD PTR ___$ReturnUdt$[ebp]

; 336  : 			}

  00035	52		 push	 edx
  00036	8b cd		 mov	 ecx, ebp
  00038	50		 push	 eax
  00039	8d 15 00 00 00
	00		 lea	 edx, DWORD PTR $L192024
  0003f	e8 00 00 00 00	 call	 @_RTC_CheckStackVars@8
  00044	58		 pop	 eax
  00045	5a		 pop	 edx
  00046	83 c4 10	 add	 esp, 16			; 00000010H
  00049	3b ec		 cmp	 ebp, esp
  0004b	e8 00 00 00 00	 call	 __RTC_CheckEsp
  00050	8b e5		 mov	 esp, ebp
  00052	5d		 pop	 ebp
  00053	c2 08 00	 ret	 8
$L192024:
  00056	01 00 00 00	 DD	 1
  0005a	00 00 00 00	 DD	 $L192023
$L192023:
  0005e	f4 ff ff ff	 DD	 -12			; fffffff4H
  00062	04 00 00 00	 DD	 4
  00066	00 00 00 00	 DD	 $L192022
$L192022:
  0006a	5f		 DB	 95			; 0000005fH
  0006b	54		 DB	 84			; 00000054H
  0006c	6d		 DB	 109			; 0000006dH
  0006d	70		 DB	 112			; 00000070H
  0006e	00		 DB	 0
??Eiterator@?$_Tree@V?$_Tmap_traits@HUMYLIST_COLUMN_INFO@@U?$less@H@std@@V?$allocator@U?$pair@$$CBHUMYLIST_COLUMN_INFO@@@std@@@3@$0A@@std@@@std@@QAE?AV012@H@Z ENDP ; std::_Tree<std::_Tmap_traits<int,MYLIST_COLUMN_INFO,std::less<int>,std::allocator<std::pair<int const ,MYLIST_COLUMN_INFO> >,0> >::iterator::operator++
; Function compile flags: /Odt /RTCsu
_TEXT	ENDS
;	COMDAT ??9const_iterator@?$_Tree@V?$_Tmap_traits@HUMYLIST_COLUMN_INFO@@U?$less@H@std@@V?$allocator@U?$pair@$$CBHUMYLIST_COLUMN_INFO@@@std@@@3@$0A@@std@@@std@@QBE_NABV012@@Z
_TEXT	SEGMENT
_this$ = -4						; size = 4
__Right$ = 8						; size = 4
??9const_iterator@?$_Tree@V?$_Tmap_traits@HUMYLIST_COLUMN_INFO@@U?$less@H@std@@V?$allocator@U?$pair@$$CBHUMYLIST_COLUMN_INFO@@@std@@@3@$0A@@std@@@std@@QBE_NABV012@@Z PROC NEAR ; std::_Tree<std::_Tmap_traits<int,MYLIST_COLUMN_INFO,std::less<int>,std::allocator<std::pair<int const ,MYLIST_COLUMN_INFO> >,0> >::const_iterator::operator!=, COMDAT
; _this$ = ecx

; 245  : 			{	// test for iterator inequality

  00000	55		 push	 ebp
  00001	8b ec		 mov	 ebp, esp
  00003	51		 push	 ecx
  00004	c7 45 fc cc cc
	cc cc		 mov	 DWORD PTR [ebp-4], -858993460 ; ccccccccH
  0000b	89 4d fc	 mov	 DWORD PTR _this$[ebp], ecx

; 246  : 			return (!(*this == _Right));

  0000e	8b 45 08	 mov	 eax, DWORD PTR __Right$[ebp]
  00011	50		 push	 eax
  00012	8b 4d fc	 mov	 ecx, DWORD PTR _this$[ebp]
  00015	e8 00 00 00 00	 call	 ??8const_iterator@?$_Tree@V?$_Tmap_traits@HUMYLIST_COLUMN_INFO@@U?$less@H@std@@V?$allocator@U?$pair@$$CBHUMYLIST_COLUMN_INFO@@@std@@@3@$0A@@std@@@std@@QBE_NABV012@@Z ; std::_Tree<std::_Tmap_traits<int,MYLIST_COLUMN_INFO,std::less<int>,std::allocator<std::pair<int const ,MYLIST_COLUMN_INFO> >,0> >::const_iterator::operator==
  0001a	0f b6 c0	 movzx	 eax, al
  0001d	f7 d8		 neg	 eax
  0001f	1b c0		 sbb	 eax, eax
  00021	40		 inc	 eax

; 247  : 			}

  00022	83 c4 04	 add	 esp, 4
  00025	3b ec		 cmp	 ebp, esp
  00027	e8 00 00 00 00	 call	 __RTC_CheckEsp
  0002c	8b e5		 mov	 esp, ebp
  0002e	5d		 pop	 ebp
  0002f	c2 04 00	 ret	 4
??9const_iterator@?$_Tree@V?$_Tmap_traits@HUMYLIST_COLUMN_INFO@@U?$less@H@std@@V?$allocator@U?$pair@$$CBHUMYLIST_COLUMN_INFO@@@std@@@3@$0A@@std@@@std@@QBE_NABV012@@Z ENDP ; std::_Tree<std::_Tmap_traits<int,MYLIST_COLUMN_INFO,std::less<int>,std::allocator<std::pair<int const ,MYLIST_COLUMN_INFO> >,0> >::const_iterator::operator!=
_TEXT	ENDS
PUBLIC	??8const_iterator@?$vector@HV?$allocator@H@std@@@std@@QBE_NABV012@@Z ; std::vector<int,std::allocator<int> >::const_iterator::operator==
; Function compile flags: /Odt /RTCsu
; File d:\program files (x86)\microsoft visual studio .net 2003\vc7\include\vector
;	COMDAT ??9const_iterator@?$vector@HV?$allocator@H@std@@@std@@QBE_NABV012@@Z
_TEXT	SEGMENT
_this$ = -4						; size = 4
__Right$ = 8						; size = 4
??9const_iterator@?$vector@HV?$allocator@H@std@@@std@@QBE_NABV012@@Z PROC NEAR ; std::vector<int,std::allocator<int> >::const_iterator::operator!=, COMDAT
; _this$ = ecx

; 159  : 			{	// test for iterator inequality

  00000	55		 push	 ebp
  00001	8b ec		 mov	 ebp, esp
  00003	51		 push	 ecx
  00004	c7 45 fc cc cc
	cc cc		 mov	 DWORD PTR [ebp-4], -858993460 ; ccccccccH
  0000b	89 4d fc	 mov	 DWORD PTR _this$[ebp], ecx

; 160  : 			return (!(*this == _Right));

  0000e	8b 45 08	 mov	 eax, DWORD PTR __Right$[ebp]
  00011	50		 push	 eax
  00012	8b 4d fc	 mov	 ecx, DWORD PTR _this$[ebp]
  00015	e8 00 00 00 00	 call	 ??8const_iterator@?$vector@HV?$allocator@H@std@@@std@@QBE_NABV012@@Z ; std::vector<int,std::allocator<int> >::const_iterator::operator==
  0001a	0f b6 c0	 movzx	 eax, al
  0001d	f7 d8		 neg	 eax
  0001f	1b c0		 sbb	 eax, eax
  00021	40		 inc	 eax

; 161  : 			}

  00022	83 c4 04	 add	 esp, 4
  00025	3b ec		 cmp	 ebp, esp
  00027	e8 00 00 00 00	 call	 __RTC_CheckEsp
  0002c	8b e5		 mov	 esp, ebp
  0002e	5d		 pop	 ebp
  0002f	c2 04 00	 ret	 4
??9const_iterator@?$vector@HV?$allocator@H@std@@@std@@QBE_NABV012@@Z ENDP ; std::vector<int,std::allocator<int> >::const_iterator::operator!=
; Function compile flags: /Odt /RTCsu
_TEXT	ENDS
;	COMDAT ??1?$pair@$$CBHUMYLIST_COLUMN_INFO@@@std@@QAE@XZ
_TEXT	SEGMENT
_this$ = -4						; size = 4
??1?$pair@$$CBHUMYLIST_COLUMN_INFO@@@std@@QAE@XZ PROC NEAR ; std::pair<int const ,MYLIST_COLUMN_INFO>::~pair<int const ,MYLIST_COLUMN_INFO>, COMDAT
; _this$ = ecx
  00000	55		 push	 ebp
  00001	8b ec		 mov	 ebp, esp
  00003	51		 push	 ecx
  00004	c7 45 fc cc cc
	cc cc		 mov	 DWORD PTR [ebp-4], -858993460 ; ccccccccH
  0000b	89 4d fc	 mov	 DWORD PTR _this$[ebp], ecx
  0000e	8b 4d fc	 mov	 ecx, DWORD PTR _this$[ebp]
  00011	83 c1 04	 add	 ecx, 4
  00014	e8 00 00 00 00	 call	 ??1MYLIST_COLUMN_INFO@@QAE@XZ
  00019	83 c4 04	 add	 esp, 4
  0001c	3b ec		 cmp	 ebp, esp
  0001e	e8 00 00 00 00	 call	 __RTC_CheckEsp
  00023	8b e5		 mov	 esp, ebp
  00025	5d		 pop	 ebp
  00026	c3		 ret	 0
??1?$pair@$$CBHUMYLIST_COLUMN_INFO@@@std@@QAE@XZ ENDP	; std::pair<int const ,MYLIST_COLUMN_INFO>::~pair<int const ,MYLIST_COLUMN_INFO>
_TEXT	ENDS
PUBLIC	?_Myval@?$_Tree@V?$_Tmap_traits@HUMYLIST_COLUMN_INFO@@U?$less@H@std@@V?$allocator@U?$pair@$$CBHUMYLIST_COLUMN_INFO@@@std@@@3@$0A@@std@@@std@@KAAAU?$pair@$$CBHUMYLIST_COLUMN_INFO@@@2@PAU_Node@?$_Tree_nod@V?$_Tmap_traits@HUMYLIST_COLUMN_INFO@@U?$less@H@std@@V?$allocator@U?$pair@$$CBHUMYLIST_COLUMN_INFO@@@std@@@3@$0A@@std@@@2@@Z ; std::_Tree<std::_Tmap_traits<int,MYLIST_COLUMN_INFO,std::less<int>,std::allocator<std::pair<int const ,MYLIST_COLUMN_INFO> >,0> >::_Myval
PUBLIC	?_Kfn@?$_Tmap_traits@HUMYLIST_COLUMN_INFO@@U?$less@H@std@@V?$allocator@U?$pair@$$CBHUMYLIST_COLUMN_INFO@@@std@@@3@$0A@@std@@SAABHABU?$pair@$$CBHUMYLIST_COLUMN_INFO@@@2@@Z ; std::_Tmap_traits<int,MYLIST_COLUMN_INFO,std::less<int>,std::allocator<std::pair<int const ,MYLIST_COLUMN_INFO> >,0>::_Kfn
; Function compile flags: /Odt /RTCsu
; File d:\program files (x86)\microsoft visual studio .net 2003\vc7\include\xtree
;	COMDAT ?_Key@?$_Tree@V?$_Tmap_traits@HUMYLIST_COLUMN_INFO@@U?$less@H@std@@V?$allocator@U?$pair@$$CBHUMYLIST_COLUMN_INFO@@@std@@@3@$0A@@std@@@std@@KAABHPAU_Node@?$_Tree_nod@V?$_Tmap_traits@HUMYLIST_COLUMN_INFO@@U?$less@H@std@@V?$allocator@U?$pair@$$CBHUMYLIST_COLUMN_INFO@@@std@@@3@$0A@@std@@@2@@Z
_TEXT	SEGMENT
__Pnode$ = 8						; size = 4
?_Key@?$_Tree@V?$_Tmap_traits@HUMYLIST_COLUMN_INFO@@U?$less@H@std@@V?$allocator@U?$pair@$$CBHUMYLIST_COLUMN_INFO@@@std@@@3@$0A@@std@@@std@@KAABHPAU_Node@?$_Tree_nod@V?$_Tmap_traits@HUMYLIST_COLUMN_INFO@@U?$less@H@std@@V?$allocator@U?$pair@$$CBHUMYLIST_COLUMN_INFO@@@std@@@3@$0A@@std@@@2@@Z PROC NEAR ; std::_Tree<std::_Tmap_traits<int,MYLIST_COLUMN_INFO,std::less<int>,std::allocator<std::pair<int const ,MYLIST_COLUMN_INFO> >,0> >::_Key, COMDAT

; 141  : 		{	// return reference to key in node

  00000	55		 push	 ebp
  00001	8b ec		 mov	 ebp, esp

; 142  : 		return (_Mybase::_Kfn(_Myval(_Pnode)));

  00003	8b 45 08	 mov	 eax, DWORD PTR __Pnode$[ebp]
  00006	50		 push	 eax
  00007	e8 00 00 00 00	 call	 ?_Myval@?$_Tree@V?$_Tmap_traits@HUMYLIST_COLUMN_INFO@@U?$less@H@std@@V?$allocator@U?$pair@$$CBHUMYLIST_COLUMN_INFO@@@std@@@3@$0A@@std@@@std@@KAAAU?$pair@$$CBHUMYLIST_COLUMN_INFO@@@2@PAU_Node@?$_Tree_nod@V?$_Tmap_traits@HUMYLIST_COLUMN_INFO@@U?$less@H@std@@V?$allocator@U?$pair@$$CBHUMYLIST_COLUMN_INFO@@@std@@@3@$0A@@std@@@2@@Z ; std::_Tree<std::_Tmap_traits<int,MYLIST_COLUMN_INFO,std::less<int>,std::allocator<std::pair<int const ,MYLIST_COLUMN_INFO> >,0> >::_Myval
  0000c	83 c4 04	 add	 esp, 4
  0000f	50		 push	 eax
  00010	e8 00 00 00 00	 call	 ?_Kfn@?$_Tmap_traits@HUMYLIST_COLUMN_INFO@@U?$less@H@std@@V?$allocator@U?$pair@$$CBHUMYLIST_COLUMN_INFO@@@std@@@3@$0A@@std@@SAABHABU?$pair@$$CBHUMYLIST_COLUMN_INFO@@@2@@Z ; std::_Tmap_traits<int,MYLIST_COLUMN_INFO,std::less<int>,std::allocator<std::pair<int const ,MYLIST_COLUMN_INFO> >,0>::_Kfn
  00015	83 c4 04	 add	 esp, 4

; 143  : 		}

  00018	3b ec		 cmp	 ebp, esp
  0001a	e8 00 00 00 00	 call	 __RTC_CheckEsp
  0001f	5d		 pop	 ebp
  00020	c3		 ret	 0
?_Key@?$_Tree@V?$_Tmap_traits@HUMYLIST_COLUMN_INFO@@U?$less@H@std@@V?$allocator@U?$pair@$$CBHUMYLIST_COLUMN_INFO@@@std@@@3@$0A@@std@@@std@@KAABHPAU_Node@?$_Tree_nod@V?$_Tmap_traits@HUMYLIST_COLUMN_INFO@@U?$less@H@std@@V?$allocator@U?$pair@$$CBHUMYLIST_COLUMN_INFO@@@std@@@3@$0A@@std@@@2@@Z ENDP ; std::_Tree<std::_Tmap_traits<int,MYLIST_COLUMN_INFO,std::less<int>,std::allocator<std::pair<int const ,MYLIST_COLUMN_INFO> >,0> >::_Key
_TEXT	ENDS
PUBLIC	??0?$_Tree_val@V?$_Tmap_traits@HUMYLIST_COLUMN_INFO@@U?$less@H@std@@V?$allocator@U?$pair@$$CBHUMYLIST_COLUMN_INFO@@@std@@@3@$0A@@std@@@std@@IAE@ABU?$less@H@1@V?$allocator@U?$pair@$$CBHUMYLIST_COLUMN_INFO@@@std@@@1@@Z ; std::_Tree_val<std::_Tmap_traits<int,MYLIST_COLUMN_INFO,std::less<int>,std::allocator<std::pair<int const ,MYLIST_COLUMN_INFO> >,0> >::_Tree_val<std::_Tmap_traits<int,MYLIST_COLUMN_INFO,std::less<int>,std::allocator<std::pair<int const ,MYLIST_COLUMN_INFO> >,0> >
PUBLIC	?_Init@?$_Tree@V?$_Tmap_traits@HUMYLIST_COLUMN_INFO@@U?$less@H@std@@V?$allocator@U?$pair@$$CBHUMYLIST_COLUMN_INFO@@@std@@@3@$0A@@std@@@std@@IAEXXZ ; std::_Tree<std::_Tmap_traits<int,MYLIST_COLUMN_INFO,std::less<int>,std::allocator<std::pair<int const ,MYLIST_COLUMN_INFO> >,0> >::_Init
PUBLIC	??0?$allocator@U?$pair@$$CBHUMYLIST_COLUMN_INFO@@@std@@@std@@QAE@ABV01@@Z ; std::allocator<std::pair<int const ,MYLIST_COLUMN_INFO> >::allocator<std::pair<int const ,MYLIST_COLUMN_INFO> >
; Function compile flags: /Odt /RTCsu
;	COMDAT ??0?$_Tree@V?$_Tmap_traits@HUMYLIST_COLUMN_INFO@@U?$less@H@std@@V?$allocator@U?$pair@$$CBHUMYLIST_COLUMN_INFO@@@std@@@3@$0A@@std@@@std@@QAE@ABU?$less@H@1@ABV?$allocator@U?$pair@$$CBHUMYLIST_COLUMN_INFO@@@std@@@1@@Z
_TEXT	SEGMENT
_this$ = -4						; size = 4
__Parg$ = 8						; size = 4
__Al$ = 12						; size = 4
??0?$_Tree@V?$_Tmap_traits@HUMYLIST_COLUMN_INFO@@U?$less@H@std@@V?$allocator@U?$pair@$$CBHUMYLIST_COLUMN_INFO@@@std@@@3@$0A@@std@@@std@@QAE@ABU?$less@H@1@ABV?$allocator@U?$pair@$$CBHUMYLIST_COLUMN_INFO@@@std@@@1@@Z PROC NEAR ; std::_Tree<std::_Tmap_traits<int,MYLIST_COLUMN_INFO,std::less<int>,std::allocator<std::pair<int const ,MYLIST_COLUMN_INFO> >,0> >::_Tree<std::_Tmap_traits<int,MYLIST_COLUMN_INFO,std::less<int>,std::allocator<std::pair<int const ,MYLIST_COLUMN_INFO> >,0> >, COMDAT
; _this$ = ecx

; 361  : 		{	// construct empty tree

  00000	55		 push	 ebp
  00001	8b ec		 mov	 ebp, esp
  00003	83 ec 08	 sub	 esp, 8
  00006	c7 45 f8 cc cc
	cc cc		 mov	 DWORD PTR [ebp-8], -858993460 ; ccccccccH
  0000d	c7 45 fc cc cc
	cc cc		 mov	 DWORD PTR [ebp-4], -858993460 ; ccccccccH
  00014	89 4d fc	 mov	 DWORD PTR _this$[ebp], ecx
  00017	51		 push	 ecx
  00018	8b cc		 mov	 ecx, esp
  0001a	8b 45 0c	 mov	 eax, DWORD PTR __Al$[ebp]
  0001d	50		 push	 eax
  0001e	e8 00 00 00 00	 call	 ??0?$allocator@U?$pair@$$CBHUMYLIST_COLUMN_INFO@@@std@@@std@@QAE@ABV01@@Z ; std::allocator<std::pair<int const ,MYLIST_COLUMN_INFO> >::allocator<std::pair<int const ,MYLIST_COLUMN_INFO> >
  00023	8b 4d 08	 mov	 ecx, DWORD PTR __Parg$[ebp]
  00026	51		 push	 ecx
  00027	8b 4d fc	 mov	 ecx, DWORD PTR _this$[ebp]
  0002a	e8 00 00 00 00	 call	 ??0?$_Tree_val@V?$_Tmap_traits@HUMYLIST_COLUMN_INFO@@U?$less@H@std@@V?$allocator@U?$pair@$$CBHUMYLIST_COLUMN_INFO@@@std@@@3@$0A@@std@@@std@@IAE@ABU?$less@H@1@V?$allocator@U?$pair@$$CBHUMYLIST_COLUMN_INFO@@@std@@@1@@Z ; std::_Tree_val<std::_Tmap_traits<int,MYLIST_COLUMN_INFO,std::less<int>,std::allocator<std::pair<int const ,MYLIST_COLUMN_INFO> >,0> >::_Tree_val<std::_Tmap_traits<int,MYLIST_COLUMN_INFO,std::less<int>,std::allocator<std::pair<int const ,MYLIST_COLUMN_INFO> >,0> >

; 362  : 		_Init();

  0002f	8b 4d fc	 mov	 ecx, DWORD PTR _this$[ebp]
  00032	e8 00 00 00 00	 call	 ?_Init@?$_Tree@V?$_Tmap_traits@HUMYLIST_COLUMN_INFO@@U?$less@H@std@@V?$allocator@U?$pair@$$CBHUMYLIST_COLUMN_INFO@@@std@@@3@$0A@@std@@@std@@IAEXXZ ; std::_Tree<std::_Tmap_traits<int,MYLIST_COLUMN_INFO,std::less<int>,std::allocator<std::pair<int const ,MYLIST_COLUMN_INFO> >,0> >::_Init

; 363  : 		}

  00037	8b 45 fc	 mov	 eax, DWORD PTR _this$[ebp]
  0003a	83 c4 08	 add	 esp, 8
  0003d	3b ec		 cmp	 ebp, esp
  0003f	e8 00 00 00 00	 call	 __RTC_CheckEsp
  00044	8b e5		 mov	 esp, ebp
  00046	5d		 pop	 ebp
  00047	c2 08 00	 ret	 8
??0?$_Tree@V?$_Tmap_traits@HUMYLIST_COLUMN_INFO@@U?$less@H@std@@V?$allocator@U?$pair@$$CBHUMYLIST_COLUMN_INFO@@@std@@@3@$0A@@std@@@std@@QAE@ABU?$less@H@1@ABV?$allocator@U?$pair@$$CBHUMYLIST_COLUMN_INFO@@@std@@@1@@Z ENDP ; std::_Tree<std::_Tmap_traits<int,MYLIST_COLUMN_INFO,std::less<int>,std::allocator<std::pair<int const ,MYLIST_COLUMN_INFO> >,0> >::_Tree<std::_Tmap_traits<int,MYLIST_COLUMN_INFO,std::less<int>,std::allocator<std::pair<int const ,MYLIST_COLUMN_INFO> >,0> >
_TEXT	ENDS
PUBLIC	?_Isnil@?$_Tree@V?$_Tmap_traits@HUMYLIST_COLUMN_INFO@@U?$less@H@std@@V?$allocator@U?$pair@$$CBHUMYLIST_COLUMN_INFO@@@std@@@3@$0A@@std@@@std@@KAAADPAU_Node@?$_Tree_nod@V?$_Tmap_traits@HUMYLIST_COLUMN_INFO@@U?$less@H@std@@V?$allocator@U?$pair@$$CBHUMYLIST_COLUMN_INFO@@@std@@@3@$0A@@std@@@2@@Z ; std::_Tree<std::_Tmap_traits<int,MYLIST_COLUMN_INFO,std::less<int>,std::allocator<std::pair<int const ,MYLIST_COLUMN_INFO> >,0> >::_Isnil
PUBLIC	?_Right@?$_Tree@V?$_Tmap_traits@HUMYLIST_COLUMN_INFO@@U?$less@H@std@@V?$allocator@U?$pair@$$CBHUMYLIST_COLUMN_INFO@@@std@@@3@$0A@@std@@@std@@KAAAPAU_Node@?$_Tree_nod@V?$_Tmap_traits@HUMYLIST_COLUMN_INFO@@U?$less@H@std@@V?$allocator@U?$pair@$$CBHUMYLIST_COLUMN_INFO@@@std@@@3@$0A@@std@@@2@PAU342@@Z ; std::_Tree<std::_Tmap_traits<int,MYLIST_COLUMN_INFO,std::less<int>,std::allocator<std::pair<int const ,MYLIST_COLUMN_INFO> >,0> >::_Right
PUBLIC	??0iterator@?$_Tree@V?$_Tmap_traits@HUMYLIST_COLUMN_INFO@@U?$less@H@std@@V?$allocator@U?$pair@$$CBHUMYLIST_COLUMN_INFO@@@std@@@3@$0A@@std@@@std@@QAE@XZ ; std::_Tree<std::_Tmap_traits<int,MYLIST_COLUMN_INFO,std::less<int>,std::allocator<std::pair<int const ,MYLIST_COLUMN_INFO> >,0> >::iterator::iterator
PUBLIC	?insert@?$_Tree@V?$_Tmap_traits@HUMYLIST_COLUMN_INFO@@U?$less@H@std@@V?$allocator@U?$pair@$$CBHUMYLIST_COLUMN_INFO@@@std@@@3@$0A@@std@@@std@@QAE?AU?$pair@Viterator@?$_Tree@V?$_Tmap_traits@HUMYLIST_COLUMN_INFO@@U?$less@H@std@@V?$allocator@U?$pair@$$CBHUMYLIST_COLUMN_INFO@@@std@@@3@$0A@@std@@@std@@_N@2@ABU?$pair@$$CBHUMYLIST_COLUMN_INFO@@@2@@Z ; std::_Tree<std::_Tmap_traits<int,MYLIST_COLUMN_INFO,std::less<int>,std::allocator<std::pair<int const ,MYLIST_COLUMN_INFO> >,0> >::insert
PUBLIC	??Fiterator@?$_Tree@V?$_Tmap_traits@HUMYLIST_COLUMN_INFO@@U?$less@H@std@@V?$allocator@U?$pair@$$CBHUMYLIST_COLUMN_INFO@@@std@@@3@$0A@@std@@@std@@QAEAAV012@XZ ; std::_Tree<std::_Tmap_traits<int,MYLIST_COLUMN_INFO,std::less<int>,std::allocator<std::pair<int const ,MYLIST_COLUMN_INFO> >,0> >::iterator::operator--
PUBLIC	?_Insert@?$_Tree@V?$_Tmap_traits@HUMYLIST_COLUMN_INFO@@U?$less@H@std@@V?$allocator@U?$pair@$$CBHUMYLIST_COLUMN_INFO@@@std@@@3@$0A@@std@@@std@@IAE?AViterator@12@_NPAU_Node@?$_Tree_nod@V?$_Tmap_traits@HUMYLIST_COLUMN_INFO@@U?$less@H@std@@V?$allocator@U?$pair@$$CBHUMYLIST_COLUMN_INFO@@@std@@@3@$0A@@std@@@2@ABU?$pair@$$CBHUMYLIST_COLUMN_INFO@@@2@@Z ; std::_Tree<std::_Tmap_traits<int,MYLIST_COLUMN_INFO,std::less<int>,std::allocator<std::pair<int const ,MYLIST_COLUMN_INFO> >,0> >::_Insert
; Function compile flags: /Odt /RTCsu
;	COMDAT ?insert@?$_Tree@V?$_Tmap_traits@HUMYLIST_COLUMN_INFO@@U?$less@H@std@@V?$allocator@U?$pair@$$CBHUMYLIST_COLUMN_INFO@@@std@@@3@$0A@@std@@@std@@QAE?AViterator@12@V312@ABU?$pair@$$CBHUMYLIST_COLUMN_INFO@@@2@@Z
_TEXT	SEGMENT
$T192039 = -48						; size = 8
$T192038 = -40						; size = 4
$T192037 = -36						; size = 4
$T192036 = -32						; size = 4
$T192035 = -28						; size = 4
$T192034 = -24						; size = 4
$T192033 = -20						; size = 4
__Next$ = -12						; size = 4
_this$ = -4						; size = 4
___$ReturnUdt$ = 8					; size = 4
__Where$ = 12						; size = 4
__Val$ = 16						; size = 4
?insert@?$_Tree@V?$_Tmap_traits@HUMYLIST_COLUMN_INFO@@U?$less@H@std@@V?$allocator@U?$pair@$$CBHUMYLIST_COLUMN_INFO@@@std@@@3@$0A@@std@@@std@@QAE?AViterator@12@V312@ABU?$pair@$$CBHUMYLIST_COLUMN_INFO@@@2@@Z PROC NEAR ; std::_Tree<std::_Tmap_traits<int,MYLIST_COLUMN_INFO,std::less<int>,std::allocator<std::pair<int const ,MYLIST_COLUMN_INFO> >,0> >::insert, COMDAT
; _this$ = ecx

; 509  : 		{	// try to insert node with value _Val using _Where as a hint

  00000	55		 push	 ebp
  00001	8b ec		 mov	 ebp, esp
  00003	83 ec 30	 sub	 esp, 48			; 00000030H
  00006	57		 push	 edi
  00007	51		 push	 ecx
  00008	8d 7d d0	 lea	 edi, DWORD PTR [ebp-48]
  0000b	b9 0c 00 00 00	 mov	 ecx, 12			; 0000000cH
  00010	b8 cc cc cc cc	 mov	 eax, -858993460		; ccccccccH
  00015	f3 ab		 rep stosd
  00017	59		 pop	 ecx
  00018	89 4d fc	 mov	 DWORD PTR _this$[ebp], ecx

; 510  : 		iterator _Next;

  0001b	8d 4d f4	 lea	 ecx, DWORD PTR __Next$[ebp]
  0001e	e8 00 00 00 00	 call	 ??0iterator@?$_Tree@V?$_Tmap_traits@HUMYLIST_COLUMN_INFO@@U?$less@H@std@@V?$allocator@U?$pair@$$CBHUMYLIST_COLUMN_INFO@@@std@@@3@$0A@@std@@@std@@QAE@XZ ; std::_Tree<std::_Tmap_traits<int,MYLIST_COLUMN_INFO,std::less<int>,std::allocator<std::pair<int const ,MYLIST_COLUMN_INFO> >,0> >::iterator::iterator

; 511  : 
; 512  : 		if (size() == 0)

  00023	8b 4d fc	 mov	 ecx, DWORD PTR _this$[ebp]
  00026	e8 00 00 00 00	 call	 ?size@?$_Tree@V?$_Tmap_traits@HUMYLIST_COLUMN_INFO@@U?$less@H@std@@V?$allocator@U?$pair@$$CBHUMYLIST_COLUMN_INFO@@@std@@@3@$0A@@std@@@std@@QBEIXZ ; std::_Tree<std::_Tmap_traits<int,MYLIST_COLUMN_INFO,std::less<int>,std::allocator<std::pair<int const ,MYLIST_COLUMN_INFO> >,0> >::size
  0002b	85 c0		 test	 eax, eax
  0002d	75 21		 jne	 SHORT $L190296

; 513  : 			return (_Insert(true, _Myhead, _Val));	// insert into empty tree

  0002f	8b 45 10	 mov	 eax, DWORD PTR __Val$[ebp]
  00032	50		 push	 eax
  00033	8b 4d fc	 mov	 ecx, DWORD PTR _this$[ebp]
  00036	8b 51 04	 mov	 edx, DWORD PTR [ecx+4]
  00039	52		 push	 edx
  0003a	6a 01		 push	 1
  0003c	8b 45 08	 mov	 eax, DWORD PTR ___$ReturnUdt$[ebp]
  0003f	50		 push	 eax
  00040	8b 4d fc	 mov	 ecx, DWORD PTR _this$[ebp]
  00043	e8 00 00 00 00	 call	 ?_Insert@?$_Tree@V?$_Tmap_traits@HUMYLIST_COLUMN_INFO@@U?$less@H@std@@V?$allocator@U?$pair@$$CBHUMYLIST_COLUMN_INFO@@@std@@@3@$0A@@std@@@std@@IAE?AViterator@12@_NPAU_Node@?$_Tree_nod@V?$_Tmap_traits@HUMYLIST_COLUMN_INFO@@U?$less@H@std@@V?$allocator@U?$pair@$$CBHUMYLIST_COLUMN_INFO@@@std@@@3@$0A@@std@@@2@ABU?$pair@$$CBHUMYLIST_COLUMN_INFO@@@2@@Z ; std::_Tree<std::_Tmap_traits<int,MYLIST_COLUMN_INFO,std::less<int>,std::allocator<std::pair<int const ,MYLIST_COLUMN_INFO> >,0> >::_Insert
  00048	8b 45 08	 mov	 eax, DWORD PTR ___$ReturnUdt$[ebp]
  0004b	e9 81 05 00 00	 jmp	 $L190294
$L190296:

; 514  : 		else if (this->_Multi)

  00050	33 c9		 xor	 ecx, ecx
  00052	0f 84 b5 02 00
	00		 je	 $L190299

; 515  : 			{	// insert even if duplicate
; 516  : 			if (_Where == begin())

  00058	8d 55 ec	 lea	 edx, DWORD PTR $T192033[ebp]
  0005b	52		 push	 edx
  0005c	8b 4d fc	 mov	 ecx, DWORD PTR _this$[ebp]
  0005f	e8 00 00 00 00	 call	 ?begin@?$_Tree@V?$_Tmap_traits@HUMYLIST_COLUMN_INFO@@U?$less@H@std@@V?$allocator@U?$pair@$$CBHUMYLIST_COLUMN_INFO@@@std@@@3@$0A@@std@@@std@@QAE?AViterator@12@XZ ; std::_Tree<std::_Tmap_traits<int,MYLIST_COLUMN_INFO,std::less<int>,std::allocator<std::pair<int const ,MYLIST_COLUMN_INFO> >,0> >::begin
  00064	50		 push	 eax
  00065	8d 4d 0c	 lea	 ecx, DWORD PTR __Where$[ebp]
  00068	e8 00 00 00 00	 call	 ??8const_iterator@?$_Tree@V?$_Tmap_traits@HUMYLIST_COLUMN_INFO@@U?$less@H@std@@V?$allocator@U?$pair@$$CBHUMYLIST_COLUMN_INFO@@@std@@@3@$0A@@std@@@std@@QBE_NABV012@@Z ; std::_Tree<std::_Tmap_traits<int,MYLIST_COLUMN_INFO,std::less<int>,std::allocator<std::pair<int const ,MYLIST_COLUMN_INFO> >,0> >::const_iterator::operator==
  0006d	0f b6 c0	 movzx	 eax, al
  00070	85 c0		 test	 eax, eax
  00072	74 56		 je	 SHORT $L190301

; 517  : 				{	// insert at beginning if before first element
; 518  : 				if (!this->comp(_Key(_Where._Mynode()), this->_Kfn(_Val)))

  00074	8b 4d 10	 mov	 ecx, DWORD PTR __Val$[ebp]
  00077	51		 push	 ecx
  00078	e8 00 00 00 00	 call	 ?_Kfn@?$_Tmap_traits@HUMYLIST_COLUMN_INFO@@U?$less@H@std@@V?$allocator@U?$pair@$$CBHUMYLIST_COLUMN_INFO@@@std@@@3@$0A@@std@@SAABHABU?$pair@$$CBHUMYLIST_COLUMN_INFO@@@2@@Z ; std::_Tmap_traits<int,MYLIST_COLUMN_INFO,std::less<int>,std::allocator<std::pair<int const ,MYLIST_COLUMN_INFO> >,0>::_Kfn
  0007d	83 c4 04	 add	 esp, 4
  00080	50		 push	 eax
  00081	8d 4d 0c	 lea	 ecx, DWORD PTR __Where$[ebp]
  00084	e8 00 00 00 00	 call	 ?_Mynode@const_iterator@?$_Tree@V?$_Tmap_traits@HUMYLIST_COLUMN_INFO@@U?$less@H@std@@V?$allocator@U?$pair@$$CBHUMYLIST_COLUMN_INFO@@@std@@@3@$0A@@std@@@std@@QBEPAU_Node@?$_Tree_nod@V?$_Tmap_traits@HUMYLIST_COLUMN_INFO@@U?$less@H@std@@V?$allocator@U?$pair@$$CBHUMYLIST_COLUMN_INFO@@@std@@@3@$0A@@std@@@3@XZ ; std::_Tree<std::_Tmap_traits<int,MYLIST_COLUMN_INFO,std::less<int>,std::allocator<std::pair<int const ,MYLIST_COLUMN_INFO> >,0> >::const_iterator::_Mynode
  00089	50		 push	 eax
  0008a	e8 00 00 00 00	 call	 ?_Key@?$_Tree@V?$_Tmap_traits@HUMYLIST_COLUMN_INFO@@U?$less@H@std@@V?$allocator@U?$pair@$$CBHUMYLIST_COLUMN_INFO@@@std@@@3@$0A@@std@@@std@@KAABHPAU_Node@?$_Tree_nod@V?$_Tmap_traits@HUMYLIST_COLUMN_INFO@@U?$less@H@std@@V?$allocator@U?$pair@$$CBHUMYLIST_COLUMN_INFO@@@std@@@3@$0A@@std@@@2@@Z ; std::_Tree<std::_Tmap_traits<int,MYLIST_COLUMN_INFO,std::less<int>,std::allocator<std::pair<int const ,MYLIST_COLUMN_INFO> >,0> >::_Key
  0008f	83 c4 04	 add	 esp, 4
  00092	50		 push	 eax
  00093	8b 4d fc	 mov	 ecx, DWORD PTR _this$[ebp]
  00096	e8 00 00 00 00	 call	 ??R?$less@H@std@@QBE_NABH0@Z ; std::less<int>::operator()
  0009b	0f b6 d0	 movzx	 edx, al
  0009e	85 d2		 test	 edx, edx
  000a0	75 23		 jne	 SHORT $L190302

; 519  : 					return (_Insert(true, _Where._Mynode(), _Val));

  000a2	8b 45 10	 mov	 eax, DWORD PTR __Val$[ebp]
  000a5	50		 push	 eax
  000a6	8d 4d 0c	 lea	 ecx, DWORD PTR __Where$[ebp]
  000a9	e8 00 00 00 00	 call	 ?_Mynode@const_iterator@?$_Tree@V?$_Tmap_traits@HUMYLIST_COLUMN_INFO@@U?$less@H@std@@V?$allocator@U?$pair@$$CBHUMYLIST_COLUMN_INFO@@@std@@@3@$0A@@std@@@std@@QBEPAU_Node@?$_Tree_nod@V?$_Tmap_traits@HUMYLIST_COLUMN_INFO@@U?$less@H@std@@V?$allocator@U?$pair@$$CBHUMYLIST_COLUMN_INFO@@@std@@@3@$0A@@std@@@3@XZ ; std::_Tree<std::_Tmap_traits<int,MYLIST_COLUMN_INFO,std::less<int>,std::allocator<std::pair<int const ,MYLIST_COLUMN_INFO> >,0> >::const_iterator::_Mynode
  000ae	50		 push	 eax
  000af	6a 01		 push	 1
  000b1	8b 4d 08	 mov	 ecx, DWORD PTR ___$ReturnUdt$[ebp]
  000b4	51		 push	 ecx
  000b5	8b 4d fc	 mov	 ecx, DWORD PTR _this$[ebp]
  000b8	e8 00 00 00 00	 call	 ?_Insert@?$_Tree@V?$_Tmap_traits@HUMYLIST_COLUMN_INFO@@U?$less@H@std@@V?$allocator@U?$pair@$$CBHUMYLIST_COLUMN_INFO@@@std@@@3@$0A@@std@@@std@@IAE?AViterator@12@_NPAU_Node@?$_Tree_nod@V?$_Tmap_traits@HUMYLIST_COLUMN_INFO@@U?$less@H@std@@V?$allocator@U?$pair@$$CBHUMYLIST_COLUMN_INFO@@@std@@@3@$0A@@std@@@2@ABU?$pair@$$CBHUMYLIST_COLUMN_INFO@@@2@@Z ; std::_Tree<std::_Tmap_traits<int,MYLIST_COLUMN_INFO,std::less<int>,std::allocator<std::pair<int const ,MYLIST_COLUMN_INFO> >,0> >::_Insert
  000bd	8b 45 08	 mov	 eax, DWORD PTR ___$ReturnUdt$[ebp]
  000c0	e9 0c 05 00 00	 jmp	 $L190294
$L190302:

; 520  : 				}
; 521  : 			else if (_Where == end())

  000c5	e9 3e 02 00 00	 jmp	 $L190304
$L190301:
  000ca	8d 55 e8	 lea	 edx, DWORD PTR $T192034[ebp]
  000cd	52		 push	 edx
  000ce	8b 4d fc	 mov	 ecx, DWORD PTR _this$[ebp]
  000d1	e8 00 00 00 00	 call	 ?end@?$_Tree@V?$_Tmap_traits@HUMYLIST_COLUMN_INFO@@U?$less@H@std@@V?$allocator@U?$pair@$$CBHUMYLIST_COLUMN_INFO@@@std@@@3@$0A@@std@@@std@@QAE?AViterator@12@XZ ; std::_Tree<std::_Tmap_traits<int,MYLIST_COLUMN_INFO,std::less<int>,std::allocator<std::pair<int const ,MYLIST_COLUMN_INFO> >,0> >::end
  000d6	50		 push	 eax
  000d7	8d 4d 0c	 lea	 ecx, DWORD PTR __Where$[ebp]
  000da	e8 00 00 00 00	 call	 ??8const_iterator@?$_Tree@V?$_Tmap_traits@HUMYLIST_COLUMN_INFO@@U?$less@H@std@@V?$allocator@U?$pair@$$CBHUMYLIST_COLUMN_INFO@@@std@@@3@$0A@@std@@@std@@QBE_NABV012@@Z ; std::_Tree<std::_Tmap_traits<int,MYLIST_COLUMN_INFO,std::less<int>,std::allocator<std::pair<int const ,MYLIST_COLUMN_INFO> >,0> >::const_iterator::operator==
  000df	0f b6 c0	 movzx	 eax, al
  000e2	85 c0		 test	 eax, eax
  000e4	74 5a		 je	 SHORT $L190306

; 522  : 				{	// insert at end if after last element
; 523  : 				if (!this->comp(this->_Kfn(_Val), _Key(_Rmost())))

  000e6	8b 4d fc	 mov	 ecx, DWORD PTR _this$[ebp]
  000e9	e8 00 00 00 00	 call	 ?_Rmost@?$_Tree@V?$_Tmap_traits@HUMYLIST_COLUMN_INFO@@U?$less@H@std@@V?$allocator@U?$pair@$$CBHUMYLIST_COLUMN_INFO@@@std@@@3@$0A@@std@@@std@@IAEAAPAU_Node@?$_Tree_nod@V?$_Tmap_traits@HUMYLIST_COLUMN_INFO@@U?$less@H@std@@V?$allocator@U?$pair@$$CBHUMYLIST_COLUMN_INFO@@@std@@@3@$0A@@std@@@2@XZ ; std::_Tree<std::_Tmap_traits<int,MYLIST_COLUMN_INFO,std::less<int>,std::allocator<std::pair<int const ,MYLIST_COLUMN_INFO> >,0> >::_Rmost
  000ee	8b 08		 mov	 ecx, DWORD PTR [eax]
  000f0	51		 push	 ecx
  000f1	e8 00 00 00 00	 call	 ?_Key@?$_Tree@V?$_Tmap_traits@HUMYLIST_COLUMN_INFO@@U?$less@H@std@@V?$allocator@U?$pair@$$CBHUMYLIST_COLUMN_INFO@@@std@@@3@$0A@@std@@@std@@KAABHPAU_Node@?$_Tree_nod@V?$_Tmap_traits@HUMYLIST_COLUMN_INFO@@U?$less@H@std@@V?$allocator@U?$pair@$$CBHUMYLIST_COLUMN_INFO@@@std@@@3@$0A@@std@@@2@@Z ; std::_Tree<std::_Tmap_traits<int,MYLIST_COLUMN_INFO,std::less<int>,std::allocator<std::pair<int const ,MYLIST_COLUMN_INFO> >,0> >::_Key
  000f6	83 c4 04	 add	 esp, 4
  000f9	50		 push	 eax
  000fa	8b 55 10	 mov	 edx, DWORD PTR __Val$[ebp]
  000fd	52		 push	 edx
  000fe	e8 00 00 00 00	 call	 ?_Kfn@?$_Tmap_traits@HUMYLIST_COLUMN_INFO@@U?$less@H@std@@V?$allocator@U?$pair@$$CBHUMYLIST_COLUMN_INFO@@@std@@@3@$0A@@std@@SAABHABU?$pair@$$CBHUMYLIST_COLUMN_INFO@@@2@@Z ; std::_Tmap_traits<int,MYLIST_COLUMN_INFO,std::less<int>,std::allocator<std::pair<int const ,MYLIST_COLUMN_INFO> >,0>::_Kfn
  00103	83 c4 04	 add	 esp, 4
  00106	50		 push	 eax
  00107	8b 4d fc	 mov	 ecx, DWORD PTR _this$[ebp]
  0010a	e8 00 00 00 00	 call	 ??R?$less@H@std@@QBE_NABH0@Z ; std::less<int>::operator()
  0010f	0f b6 c0	 movzx	 eax, al
  00112	85 c0		 test	 eax, eax
  00114	75 25		 jne	 SHORT $L190307

; 524  : 					return (_Insert(false, _Rmost(), _Val));

  00116	8b 4d 10	 mov	 ecx, DWORD PTR __Val$[ebp]
  00119	51		 push	 ecx
  0011a	8b 4d fc	 mov	 ecx, DWORD PTR _this$[ebp]
  0011d	e8 00 00 00 00	 call	 ?_Rmost@?$_Tree@V?$_Tmap_traits@HUMYLIST_COLUMN_INFO@@U?$less@H@std@@V?$allocator@U?$pair@$$CBHUMYLIST_COLUMN_INFO@@@std@@@3@$0A@@std@@@std@@IAEAAPAU_Node@?$_Tree_nod@V?$_Tmap_traits@HUMYLIST_COLUMN_INFO@@U?$less@H@std@@V?$allocator@U?$pair@$$CBHUMYLIST_COLUMN_INFO@@@std@@@3@$0A@@std@@@2@XZ ; std::_Tree<std::_Tmap_traits<int,MYLIST_COLUMN_INFO,std::less<int>,std::allocator<std::pair<int const ,MYLIST_COLUMN_INFO> >,0> >::_Rmost
  00122	8b 10		 mov	 edx, DWORD PTR [eax]
  00124	52		 push	 edx
  00125	6a 00		 push	 0
  00127	8b 45 08	 mov	 eax, DWORD PTR ___$ReturnUdt$[ebp]
  0012a	50		 push	 eax
  0012b	8b 4d fc	 mov	 ecx, DWORD PTR _this$[ebp]
  0012e	e8 00 00 00 00	 call	 ?_Insert@?$_Tree@V?$_Tmap_traits@HUMYLIST_COLUMN_INFO@@U?$less@H@std@@V?$allocator@U?$pair@$$CBHUMYLIST_COLUMN_INFO@@@std@@@3@$0A@@std@@@std@@IAE?AViterator@12@_NPAU_Node@?$_Tree_nod@V?$_Tmap_traits@HUMYLIST_COLUMN_INFO@@U?$less@H@std@@V?$allocator@U?$pair@$$CBHUMYLIST_COLUMN_INFO@@@std@@@3@$0A@@std@@@2@ABU?$pair@$$CBHUMYLIST_COLUMN_INFO@@@2@@Z ; std::_Tree<std::_Tmap_traits<int,MYLIST_COLUMN_INFO,std::less<int>,std::allocator<std::pair<int const ,MYLIST_COLUMN_INFO> >,0> >::_Insert
  00133	8b 45 08	 mov	 eax, DWORD PTR ___$ReturnUdt$[ebp]
  00136	e9 96 04 00 00	 jmp	 $L190294
$L190307:

; 525  : 				}
; 526  : 			else if (!this->comp(_Key(_Where._Mynode()), this->_Kfn(_Val))

  0013b	e9 c8 01 00 00	 jmp	 $L190304
$L190306:

; 527  : 				&& !this->comp(this->_Kfn(_Val),
; 528  : 					_Key((--(_Next = _Where))._Mynode())))

  00140	8b 4d 10	 mov	 ecx, DWORD PTR __Val$[ebp]
  00143	51		 push	 ecx
  00144	e8 00 00 00 00	 call	 ?_Kfn@?$_Tmap_traits@HUMYLIST_COLUMN_INFO@@U?$less@H@std@@V?$allocator@U?$pair@$$CBHUMYLIST_COLUMN_INFO@@@std@@@3@$0A@@std@@SAABHABU?$pair@$$CBHUMYLIST_COLUMN_INFO@@@2@@Z ; std::_Tmap_traits<int,MYLIST_COLUMN_INFO,std::less<int>,std::allocator<std::pair<int const ,MYLIST_COLUMN_INFO> >,0>::_Kfn
  00149	83 c4 04	 add	 esp, 4
  0014c	50		 push	 eax
  0014d	8d 4d 0c	 lea	 ecx, DWORD PTR __Where$[ebp]
  00150	e8 00 00 00 00	 call	 ?_Mynode@const_iterator@?$_Tree@V?$_Tmap_traits@HUMYLIST_COLUMN_INFO@@U?$less@H@std@@V?$allocator@U?$pair@$$CBHUMYLIST_COLUMN_INFO@@@std@@@3@$0A@@std@@@std@@QBEPAU_Node@?$_Tree_nod@V?$_Tmap_traits@HUMYLIST_COLUMN_INFO@@U?$less@H@std@@V?$allocator@U?$pair@$$CBHUMYLIST_COLUMN_INFO@@@std@@@3@$0A@@std@@@3@XZ ; std::_Tree<std::_Tmap_traits<int,MYLIST_COLUMN_INFO,std::less<int>,std::allocator<std::pair<int const ,MYLIST_COLUMN_INFO> >,0> >::const_iterator::_Mynode
  00155	50		 push	 eax
  00156	e8 00 00 00 00	 call	 ?_Key@?$_Tree@V?$_Tmap_traits@HUMYLIST_COLUMN_INFO@@U?$less@H@std@@V?$allocator@U?$pair@$$CBHUMYLIST_COLUMN_INFO@@@std@@@3@$0A@@std@@@std@@KAABHPAU_Node@?$_Tree_nod@V?$_Tmap_traits@HUMYLIST_COLUMN_INFO@@U?$less@H@std@@V?$allocator@U?$pair@$$CBHUMYLIST_COLUMN_INFO@@@std@@@3@$0A@@std@@@2@@Z ; std::_Tree<std::_Tmap_traits<int,MYLIST_COLUMN_INFO,std::less<int>,std::allocator<std::pair<int const ,MYLIST_COLUMN_INFO> >,0> >::_Key
  0015b	83 c4 04	 add	 esp, 4
  0015e	50		 push	 eax
  0015f	8b 4d fc	 mov	 ecx, DWORD PTR _this$[ebp]
  00162	e8 00 00 00 00	 call	 ??R?$less@H@std@@QBE_NABH0@Z ; std::less<int>::operator()
  00167	0f b6 d0	 movzx	 edx, al
  0016a	85 d2		 test	 edx, edx
  0016c	0f 85 a4 00 00
	00		 jne	 $L190310
  00172	8b 45 0c	 mov	 eax, DWORD PTR __Where$[ebp]
  00175	89 45 f4	 mov	 DWORD PTR __Next$[ebp], eax
  00178	8d 4d f4	 lea	 ecx, DWORD PTR __Next$[ebp]
  0017b	e8 00 00 00 00	 call	 ??Fiterator@?$_Tree@V?$_Tmap_traits@HUMYLIST_COLUMN_INFO@@U?$less@H@std@@V?$allocator@U?$pair@$$CBHUMYLIST_COLUMN_INFO@@@std@@@3@$0A@@std@@@std@@QAEAAV012@XZ ; std::_Tree<std::_Tmap_traits<int,MYLIST_COLUMN_INFO,std::less<int>,std::allocator<std::pair<int const ,MYLIST_COLUMN_INFO> >,0> >::iterator::operator--
  00180	8b c8		 mov	 ecx, eax
  00182	e8 00 00 00 00	 call	 ?_Mynode@const_iterator@?$_Tree@V?$_Tmap_traits@HUMYLIST_COLUMN_INFO@@U?$less@H@std@@V?$allocator@U?$pair@$$CBHUMYLIST_COLUMN_INFO@@@std@@@3@$0A@@std@@@std@@QBEPAU_Node@?$_Tree_nod@V?$_Tmap_traits@HUMYLIST_COLUMN_INFO@@U?$less@H@std@@V?$allocator@U?$pair@$$CBHUMYLIST_COLUMN_INFO@@@std@@@3@$0A@@std@@@3@XZ ; std::_Tree<std::_Tmap_traits<int,MYLIST_COLUMN_INFO,std::less<int>,std::allocator<std::pair<int const ,MYLIST_COLUMN_INFO> >,0> >::const_iterator::_Mynode
  00187	50		 push	 eax
  00188	e8 00 00 00 00	 call	 ?_Key@?$_Tree@V?$_Tmap_traits@HUMYLIST_COLUMN_INFO@@U?$less@H@std@@V?$allocator@U?$pair@$$CBHUMYLIST_COLUMN_INFO@@@std@@@3@$0A@@std@@@std@@KAABHPAU_Node@?$_Tree_nod@V?$_Tmap_traits@HUMYLIST_COLUMN_INFO@@U?$less@H@std@@V?$allocator@U?$pair@$$CBHUMYLIST_COLUMN_INFO@@@std@@@3@$0A@@std@@@2@@Z ; std::_Tree<std::_Tmap_traits<int,MYLIST_COLUMN_INFO,std::less<int>,std::allocator<std::pair<int const ,MYLIST_COLUMN_INFO> >,0> >::_Key
  0018d	83 c4 04	 add	 esp, 4
  00190	50		 push	 eax
  00191	8b 4d 10	 mov	 ecx, DWORD PTR __Val$[ebp]
  00194	51		 push	 ecx
  00195	e8 00 00 00 00	 call	 ?_Kfn@?$_Tmap_traits@HUMYLIST_COLUMN_INFO@@U?$less@H@std@@V?$allocator@U?$pair@$$CBHUMYLIST_COLUMN_INFO@@@std@@@3@$0A@@std@@SAABHABU?$pair@$$CBHUMYLIST_COLUMN_INFO@@@2@@Z ; std::_Tmap_traits<int,MYLIST_COLUMN_INFO,std::less<int>,std::allocator<std::pair<int const ,MYLIST_COLUMN_INFO> >,0>::_Kfn
  0019a	83 c4 04	 add	 esp, 4
  0019d	50		 push	 eax
  0019e	8b 4d fc	 mov	 ecx, DWORD PTR _this$[ebp]
  001a1	e8 00 00 00 00	 call	 ??R?$less@H@std@@QBE_NABH0@Z ; std::less<int>::operator()
  001a6	0f b6 d0	 movzx	 edx, al
  001a9	85 d2		 test	 edx, edx
  001ab	75 69		 jne	 SHORT $L190310

; 529  : 				{	// insert before _Where
; 530  : 				if (_Isnil(_Right(_Next._Mynode())))

  001ad	8d 4d f4	 lea	 ecx, DWORD PTR __Next$[ebp]
  001b0	e8 00 00 00 00	 call	 ?_Mynode@const_iterator@?$_Tree@V?$_Tmap_traits@HUMYLIST_COLUMN_INFO@@U?$less@H@std@@V?$allocator@U?$pair@$$CBHUMYLIST_COLUMN_INFO@@@std@@@3@$0A@@std@@@std@@QBEPAU_Node@?$_Tree_nod@V?$_Tmap_traits@HUMYLIST_COLUMN_INFO@@U?$less@H@std@@V?$allocator@U?$pair@$$CBHUMYLIST_COLUMN_INFO@@@std@@@3@$0A@@std@@@3@XZ ; std::_Tree<std::_Tmap_traits<int,MYLIST_COLUMN_INFO,std::less<int>,std::allocator<std::pair<int const ,MYLIST_COLUMN_INFO> >,0> >::const_iterator::_Mynode
  001b5	50		 push	 eax
  001b6	e8 00 00 00 00	 call	 ?_Right@?$_Tree@V?$_Tmap_traits@HUMYLIST_COLUMN_INFO@@U?$less@H@std@@V?$allocator@U?$pair@$$CBHUMYLIST_COLUMN_INFO@@@std@@@3@$0A@@std@@@std@@KAAAPAU_Node@?$_Tree_nod@V?$_Tmap_traits@HUMYLIST_COLUMN_INFO@@U?$less@H@std@@V?$allocator@U?$pair@$$CBHUMYLIST_COLUMN_INFO@@@std@@@3@$0A@@std@@@2@PAU342@@Z ; std::_Tree<std::_Tmap_traits<int,MYLIST_COLUMN_INFO,std::less<int>,std::allocator<std::pair<int const ,MYLIST_COLUMN_INFO> >,0> >::_Right
  001bb	83 c4 04	 add	 esp, 4
  001be	8b 00		 mov	 eax, DWORD PTR [eax]
  001c0	50		 push	 eax
  001c1	e8 00 00 00 00	 call	 ?_Isnil@?$_Tree@V?$_Tmap_traits@HUMYLIST_COLUMN_INFO@@U?$less@H@std@@V?$allocator@U?$pair@$$CBHUMYLIST_COLUMN_INFO@@@std@@@3@$0A@@std@@@std@@KAAADPAU_Node@?$_Tree_nod@V?$_Tmap_traits@HUMYLIST_COLUMN_INFO@@U?$less@H@std@@V?$allocator@U?$pair@$$CBHUMYLIST_COLUMN_INFO@@@std@@@3@$0A@@std@@@2@@Z ; std::_Tree<std::_Tmap_traits<int,MYLIST_COLUMN_INFO,std::less<int>,std::allocator<std::pair<int const ,MYLIST_COLUMN_INFO> >,0> >::_Isnil
  001c6	83 c4 04	 add	 esp, 4
  001c9	0f be 08	 movsx	 ecx, BYTE PTR [eax]
  001cc	85 c9		 test	 ecx, ecx
  001ce	74 23		 je	 SHORT $L190311

; 531  : 					return (_Insert(false, _Next._Mynode(), _Val));

  001d0	8b 55 10	 mov	 edx, DWORD PTR __Val$[ebp]
  001d3	52		 push	 edx
  001d4	8d 4d f4	 lea	 ecx, DWORD PTR __Next$[ebp]
  001d7	e8 00 00 00 00	 call	 ?_Mynode@const_iterator@?$_Tree@V?$_Tmap_traits@HUMYLIST_COLUMN_INFO@@U?$less@H@std@@V?$allocator@U?$pair@$$CBHUMYLIST_COLUMN_INFO@@@std@@@3@$0A@@std@@@std@@QBEPAU_Node@?$_Tree_nod@V?$_Tmap_traits@HUMYLIST_COLUMN_INFO@@U?$less@H@std@@V?$allocator@U?$pair@$$CBHUMYLIST_COLUMN_INFO@@@std@@@3@$0A@@std@@@3@XZ ; std::_Tree<std::_Tmap_traits<int,MYLIST_COLUMN_INFO,std::less<int>,std::allocator<std::pair<int const ,MYLIST_COLUMN_INFO> >,0> >::const_iterator::_Mynode
  001dc	50		 push	 eax
  001dd	6a 00		 push	 0
  001df	8b 45 08	 mov	 eax, DWORD PTR ___$ReturnUdt$[ebp]
  001e2	50		 push	 eax
  001e3	8b 4d fc	 mov	 ecx, DWORD PTR _this$[ebp]
  001e6	e8 00 00 00 00	 call	 ?_Insert@?$_Tree@V?$_Tmap_traits@HUMYLIST_COLUMN_INFO@@U?$less@H@std@@V?$allocator@U?$pair@$$CBHUMYLIST_COLUMN_INFO@@@std@@@3@$0A@@std@@@std@@IAE?AViterator@12@_NPAU_Node@?$_Tree_nod@V?$_Tmap_traits@HUMYLIST_COLUMN_INFO@@U?$less@H@std@@V?$allocator@U?$pair@$$CBHUMYLIST_COLUMN_INFO@@@std@@@3@$0A@@std@@@2@ABU?$pair@$$CBHUMYLIST_COLUMN_INFO@@@2@@Z ; std::_Tree<std::_Tmap_traits<int,MYLIST_COLUMN_INFO,std::less<int>,std::allocator<std::pair<int const ,MYLIST_COLUMN_INFO> >,0> >::_Insert
  001eb	8b 45 08	 mov	 eax, DWORD PTR ___$ReturnUdt$[ebp]
  001ee	e9 de 03 00 00	 jmp	 $L190294
$L190311:

; 532  : 				else
; 533  : 					return (_Insert(true, _Where._Mynode(), _Val));

  001f3	8b 4d 10	 mov	 ecx, DWORD PTR __Val$[ebp]
  001f6	51		 push	 ecx
  001f7	8d 4d 0c	 lea	 ecx, DWORD PTR __Where$[ebp]
  001fa	e8 00 00 00 00	 call	 ?_Mynode@const_iterator@?$_Tree@V?$_Tmap_traits@HUMYLIST_COLUMN_INFO@@U?$less@H@std@@V?$allocator@U?$pair@$$CBHUMYLIST_COLUMN_INFO@@@std@@@3@$0A@@std@@@std@@QBEPAU_Node@?$_Tree_nod@V?$_Tmap_traits@HUMYLIST_COLUMN_INFO@@U?$less@H@std@@V?$allocator@U?$pair@$$CBHUMYLIST_COLUMN_INFO@@@std@@@3@$0A@@std@@@3@XZ ; std::_Tree<std::_Tmap_traits<int,MYLIST_COLUMN_INFO,std::less<int>,std::allocator<std::pair<int const ,MYLIST_COLUMN_INFO> >,0> >::const_iterator::_Mynode
  001ff	50		 push	 eax
  00200	6a 01		 push	 1
  00202	8b 55 08	 mov	 edx, DWORD PTR ___$ReturnUdt$[ebp]
  00205	52		 push	 edx
  00206	8b 4d fc	 mov	 ecx, DWORD PTR _this$[ebp]
  00209	e8 00 00 00 00	 call	 ?_Insert@?$_Tree@V?$_Tmap_traits@HUMYLIST_COLUMN_INFO@@U?$less@H@std@@V?$allocator@U?$pair@$$CBHUMYLIST_COLUMN_INFO@@@std@@@3@$0A@@std@@@std@@IAE?AViterator@12@_NPAU_Node@?$_Tree_nod@V?$_Tmap_traits@HUMYLIST_COLUMN_INFO@@U?$less@H@std@@V?$allocator@U?$pair@$$CBHUMYLIST_COLUMN_INFO@@@std@@@3@$0A@@std@@@2@ABU?$pair@$$CBHUMYLIST_COLUMN_INFO@@@2@@Z ; std::_Tree<std::_Tmap_traits<int,MYLIST_COLUMN_INFO,std::less<int>,std::allocator<std::pair<int const ,MYLIST_COLUMN_INFO> >,0> >::_Insert
  0020e	8b 45 08	 mov	 eax, DWORD PTR ___$ReturnUdt$[ebp]
  00211	e9 bb 03 00 00	 jmp	 $L190294
$L190310:

; 534  : 				}
; 535  : 			else if (!this->comp(this->_Kfn(_Val), _Key(_Where._Mynode()))
; 536  : 				&& (++(_Next = _Where) == end()
; 537  : 					|| !this->comp(_Key(_Next._Mynode()),
; 538  : 						this->_Kfn(_Val))))

  00216	8d 4d 0c	 lea	 ecx, DWORD PTR __Where$[ebp]
  00219	e8 00 00 00 00	 call	 ?_Mynode@const_iterator@?$_Tree@V?$_Tmap_traits@HUMYLIST_COLUMN_INFO@@U?$less@H@std@@V?$allocator@U?$pair@$$CBHUMYLIST_COLUMN_INFO@@@std@@@3@$0A@@std@@@std@@QBEPAU_Node@?$_Tree_nod@V?$_Tmap_traits@HUMYLIST_COLUMN_INFO@@U?$less@H@std@@V?$allocator@U?$pair@$$CBHUMYLIST_COLUMN_INFO@@@std@@@3@$0A@@std@@@3@XZ ; std::_Tree<std::_Tmap_traits<int,MYLIST_COLUMN_INFO,std::less<int>,std::allocator<std::pair<int const ,MYLIST_COLUMN_INFO> >,0> >::const_iterator::_Mynode
  0021e	50		 push	 eax
  0021f	e8 00 00 00 00	 call	 ?_Key@?$_Tree@V?$_Tmap_traits@HUMYLIST_COLUMN_INFO@@U?$less@H@std@@V?$allocator@U?$pair@$$CBHUMYLIST_COLUMN_INFO@@@std@@@3@$0A@@std@@@std@@KAABHPAU_Node@?$_Tree_nod@V?$_Tmap_traits@HUMYLIST_COLUMN_INFO@@U?$less@H@std@@V?$allocator@U?$pair@$$CBHUMYLIST_COLUMN_INFO@@@std@@@3@$0A@@std@@@2@@Z ; std::_Tree<std::_Tmap_traits<int,MYLIST_COLUMN_INFO,std::less<int>,std::allocator<std::pair<int const ,MYLIST_COLUMN_INFO> >,0> >::_Key
  00224	83 c4 04	 add	 esp, 4
  00227	50		 push	 eax
  00228	8b 45 10	 mov	 eax, DWORD PTR __Val$[ebp]
  0022b	50		 push	 eax
  0022c	e8 00 00 00 00	 call	 ?_Kfn@?$_Tmap_traits@HUMYLIST_COLUMN_INFO@@U?$less@H@std@@V?$allocator@U?$pair@$$CBHUMYLIST_COLUMN_INFO@@@std@@@3@$0A@@std@@SAABHABU?$pair@$$CBHUMYLIST_COLUMN_INFO@@@2@@Z ; std::_Tmap_traits<int,MYLIST_COLUMN_INFO,std::less<int>,std::allocator<std::pair<int const ,MYLIST_COLUMN_INFO> >,0>::_Kfn
  00231	83 c4 04	 add	 esp, 4
  00234	50		 push	 eax
  00235	8b 4d fc	 mov	 ecx, DWORD PTR _this$[ebp]
  00238	e8 00 00 00 00	 call	 ??R?$less@H@std@@QBE_NABH0@Z ; std::less<int>::operator()
  0023d	0f b6 c8	 movzx	 ecx, al
  00240	85 c9		 test	 ecx, ecx
  00242	0f 85 c0 00 00
	00		 jne	 $L190304
  00248	8b 55 0c	 mov	 edx, DWORD PTR __Where$[ebp]
  0024b	89 55 f4	 mov	 DWORD PTR __Next$[ebp], edx
  0024e	8d 45 e4	 lea	 eax, DWORD PTR $T192035[ebp]
  00251	50		 push	 eax
  00252	8b 4d fc	 mov	 ecx, DWORD PTR _this$[ebp]
  00255	e8 00 00 00 00	 call	 ?end@?$_Tree@V?$_Tmap_traits@HUMYLIST_COLUMN_INFO@@U?$less@H@std@@V?$allocator@U?$pair@$$CBHUMYLIST_COLUMN_INFO@@@std@@@3@$0A@@std@@@std@@QAE?AViterator@12@XZ ; std::_Tree<std::_Tmap_traits<int,MYLIST_COLUMN_INFO,std::less<int>,std::allocator<std::pair<int const ,MYLIST_COLUMN_INFO> >,0> >::end
  0025a	50		 push	 eax
  0025b	8d 4d f4	 lea	 ecx, DWORD PTR __Next$[ebp]
  0025e	e8 00 00 00 00	 call	 ??Eiterator@?$_Tree@V?$_Tmap_traits@HUMYLIST_COLUMN_INFO@@U?$less@H@std@@V?$allocator@U?$pair@$$CBHUMYLIST_COLUMN_INFO@@@std@@@3@$0A@@std@@@std@@QAEAAV012@XZ ; std::_Tree<std::_Tmap_traits<int,MYLIST_COLUMN_INFO,std::less<int>,std::allocator<std::pair<int const ,MYLIST_COLUMN_INFO> >,0> >::iterator::operator++
  00263	8b c8		 mov	 ecx, eax
  00265	e8 00 00 00 00	 call	 ??8const_iterator@?$_Tree@V?$_Tmap_traits@HUMYLIST_COLUMN_INFO@@U?$less@H@std@@V?$allocator@U?$pair@$$CBHUMYLIST_COLUMN_INFO@@@std@@@3@$0A@@std@@@std@@QBE_NABV012@@Z ; std::_Tree<std::_Tmap_traits<int,MYLIST_COLUMN_INFO,std::less<int>,std::allocator<std::pair<int const ,MYLIST_COLUMN_INFO> >,0> >::const_iterator::operator==
  0026a	0f b6 c8	 movzx	 ecx, al
  0026d	85 c9		 test	 ecx, ecx
  0026f	75 2e		 jne	 SHORT $L190318
  00271	8b 55 10	 mov	 edx, DWORD PTR __Val$[ebp]
  00274	52		 push	 edx
  00275	e8 00 00 00 00	 call	 ?_Kfn@?$_Tmap_traits@HUMYLIST_COLUMN_INFO@@U?$less@H@std@@V?$allocator@U?$pair@$$CBHUMYLIST_COLUMN_INFO@@@std@@@3@$0A@@std@@SAABHABU?$pair@$$CBHUMYLIST_COLUMN_INFO@@@2@@Z ; std::_Tmap_traits<int,MYLIST_COLUMN_INFO,std::less<int>,std::allocator<std::pair<int const ,MYLIST_COLUMN_INFO> >,0>::_Kfn
  0027a	83 c4 04	 add	 esp, 4
  0027d	50		 push	 eax
  0027e	8d 4d f4	 lea	 ecx, DWORD PTR __Next$[ebp]
  00281	e8 00 00 00 00	 call	 ?_Mynode@const_iterator@?$_Tree@V?$_Tmap_traits@HUMYLIST_COLUMN_INFO@@U?$less@H@std@@V?$allocator@U?$pair@$$CBHUMYLIST_COLUMN_INFO@@@std@@@3@$0A@@std@@@std@@QBEPAU_Node@?$_Tree_nod@V?$_Tmap_traits@HUMYLIST_COLUMN_INFO@@U?$less@H@std@@V?$allocator@U?$pair@$$CBHUMYLIST_COLUMN_INFO@@@std@@@3@$0A@@std@@@3@XZ ; std::_Tree<std::_Tmap_traits<int,MYLIST_COLUMN_INFO,std::less<int>,std::allocator<std::pair<int const ,MYLIST_COLUMN_INFO> >,0> >::const_iterator::_Mynode
  00286	50		 push	 eax
  00287	e8 00 00 00 00	 call	 ?_Key@?$_Tree@V?$_Tmap_traits@HUMYLIST_COLUMN_INFO@@U?$less@H@std@@V?$allocator@U?$pair@$$CBHUMYLIST_COLUMN_INFO@@@std@@@3@$0A@@std@@@std@@KAABHPAU_Node@?$_Tree_nod@V?$_Tmap_traits@HUMYLIST_COLUMN_INFO@@U?$less@H@std@@V?$allocator@U?$pair@$$CBHUMYLIST_COLUMN_INFO@@@std@@@3@$0A@@std@@@2@@Z ; std::_Tree<std::_Tmap_traits<int,MYLIST_COLUMN_INFO,std::less<int>,std::allocator<std::pair<int const ,MYLIST_COLUMN_INFO> >,0> >::_Key
  0028c	83 c4 04	 add	 esp, 4
  0028f	50		 push	 eax
  00290	8b 4d fc	 mov	 ecx, DWORD PTR _this$[ebp]
  00293	e8 00 00 00 00	 call	 ??R?$less@H@std@@QBE_NABH0@Z ; std::less<int>::operator()
  00298	0f b6 c0	 movzx	 eax, al
  0029b	85 c0		 test	 eax, eax
  0029d	75 69		 jne	 SHORT $L190304
$L190318:

; 539  : 				{	// insert after _Where
; 540  : 				if (_Isnil(_Right(_Where._Mynode())))

  0029f	8d 4d 0c	 lea	 ecx, DWORD PTR __Where$[ebp]
  002a2	e8 00 00 00 00	 call	 ?_Mynode@const_iterator@?$_Tree@V?$_Tmap_traits@HUMYLIST_COLUMN_INFO@@U?$less@H@std@@V?$allocator@U?$pair@$$CBHUMYLIST_COLUMN_INFO@@@std@@@3@$0A@@std@@@std@@QBEPAU_Node@?$_Tree_nod@V?$_Tmap_traits@HUMYLIST_COLUMN_INFO@@U?$less@H@std@@V?$allocator@U?$pair@$$CBHUMYLIST_COLUMN_INFO@@@std@@@3@$0A@@std@@@3@XZ ; std::_Tree<std::_Tmap_traits<int,MYLIST_COLUMN_INFO,std::less<int>,std::allocator<std::pair<int const ,MYLIST_COLUMN_INFO> >,0> >::const_iterator::_Mynode
  002a7	50		 push	 eax
  002a8	e8 00 00 00 00	 call	 ?_Right@?$_Tree@V?$_Tmap_traits@HUMYLIST_COLUMN_INFO@@U?$less@H@std@@V?$allocator@U?$pair@$$CBHUMYLIST_COLUMN_INFO@@@std@@@3@$0A@@std@@@std@@KAAAPAU_Node@?$_Tree_nod@V?$_Tmap_traits@HUMYLIST_COLUMN_INFO@@U?$less@H@std@@V?$allocator@U?$pair@$$CBHUMYLIST_COLUMN_INFO@@@std@@@3@$0A@@std@@@2@PAU342@@Z ; std::_Tree<std::_Tmap_traits<int,MYLIST_COLUMN_INFO,std::less<int>,std::allocator<std::pair<int const ,MYLIST_COLUMN_INFO> >,0> >::_Right
  002ad	83 c4 04	 add	 esp, 4
  002b0	8b 08		 mov	 ecx, DWORD PTR [eax]
  002b2	51		 push	 ecx
  002b3	e8 00 00 00 00	 call	 ?_Isnil@?$_Tree@V?$_Tmap_traits@HUMYLIST_COLUMN_INFO@@U?$less@H@std@@V?$allocator@U?$pair@$$CBHUMYLIST_COLUMN_INFO@@@std@@@3@$0A@@std@@@std@@KAAADPAU_Node@?$_Tree_nod@V?$_Tmap_traits@HUMYLIST_COLUMN_INFO@@U?$less@H@std@@V?$allocator@U?$pair@$$CBHUMYLIST_COLUMN_INFO@@@std@@@3@$0A@@std@@@2@@Z ; std::_Tree<std::_Tmap_traits<int,MYLIST_COLUMN_INFO,std::less<int>,std::allocator<std::pair<int const ,MYLIST_COLUMN_INFO> >,0> >::_Isnil
  002b8	83 c4 04	 add	 esp, 4
  002bb	0f be 10	 movsx	 edx, BYTE PTR [eax]
  002be	85 d2		 test	 edx, edx
  002c0	74 23		 je	 SHORT $L190319

; 541  : 					return (_Insert(false, _Where._Mynode(), _Val));

  002c2	8b 45 10	 mov	 eax, DWORD PTR __Val$[ebp]
  002c5	50		 push	 eax
  002c6	8d 4d 0c	 lea	 ecx, DWORD PTR __Where$[ebp]
  002c9	e8 00 00 00 00	 call	 ?_Mynode@const_iterator@?$_Tree@V?$_Tmap_traits@HUMYLIST_COLUMN_INFO@@U?$less@H@std@@V?$allocator@U?$pair@$$CBHUMYLIST_COLUMN_INFO@@@std@@@3@$0A@@std@@@std@@QBEPAU_Node@?$_Tree_nod@V?$_Tmap_traits@HUMYLIST_COLUMN_INFO@@U?$less@H@std@@V?$allocator@U?$pair@$$CBHUMYLIST_COLUMN_INFO@@@std@@@3@$0A@@std@@@3@XZ ; std::_Tree<std::_Tmap_traits<int,MYLIST_COLUMN_INFO,std::less<int>,std::allocator<std::pair<int const ,MYLIST_COLUMN_INFO> >,0> >::const_iterator::_Mynode
  002ce	50		 push	 eax
  002cf	6a 00		 push	 0
  002d1	8b 4d 08	 mov	 ecx, DWORD PTR ___$ReturnUdt$[ebp]
  002d4	51		 push	 ecx
  002d5	8b 4d fc	 mov	 ecx, DWORD PTR _this$[ebp]
  002d8	e8 00 00 00 00	 call	 ?_Insert@?$_Tree@V?$_Tmap_traits@HUMYLIST_COLUMN_INFO@@U?$less@H@std@@V?$allocator@U?$pair@$$CBHUMYLIST_COLUMN_INFO@@@std@@@3@$0A@@std@@@std@@IAE?AViterator@12@_NPAU_Node@?$_Tree_nod@V?$_Tmap_traits@HUMYLIST_COLUMN_INFO@@U?$less@H@std@@V?$allocator@U?$pair@$$CBHUMYLIST_COLUMN_INFO@@@std@@@3@$0A@@std@@@2@ABU?$pair@$$CBHUMYLIST_COLUMN_INFO@@@2@@Z ; std::_Tree<std::_Tmap_traits<int,MYLIST_COLUMN_INFO,std::less<int>,std::allocator<std::pair<int const ,MYLIST_COLUMN_INFO> >,0> >::_Insert
  002dd	8b 45 08	 mov	 eax, DWORD PTR ___$ReturnUdt$[ebp]
  002e0	e9 ec 02 00 00	 jmp	 $L190294
$L190319:

; 542  : 				else
; 543  : 					return (_Insert(true, _Next._Mynode(), _Val));

  002e5	8b 55 10	 mov	 edx, DWORD PTR __Val$[ebp]
  002e8	52		 push	 edx
  002e9	8d 4d f4	 lea	 ecx, DWORD PTR __Next$[ebp]
  002ec	e8 00 00 00 00	 call	 ?_Mynode@const_iterator@?$_Tree@V?$_Tmap_traits@HUMYLIST_COLUMN_INFO@@U?$less@H@std@@V?$allocator@U?$pair@$$CBHUMYLIST_COLUMN_INFO@@@std@@@3@$0A@@std@@@std@@QBEPAU_Node@?$_Tree_nod@V?$_Tmap_traits@HUMYLIST_COLUMN_INFO@@U?$less@H@std@@V?$allocator@U?$pair@$$CBHUMYLIST_COLUMN_INFO@@@std@@@3@$0A@@std@@@3@XZ ; std::_Tree<std::_Tmap_traits<int,MYLIST_COLUMN_INFO,std::less<int>,std::allocator<std::pair<int const ,MYLIST_COLUMN_INFO> >,0> >::const_iterator::_Mynode
  002f1	50		 push	 eax
  002f2	6a 01		 push	 1
  002f4	8b 45 08	 mov	 eax, DWORD PTR ___$ReturnUdt$[ebp]
  002f7	50		 push	 eax
  002f8	8b 4d fc	 mov	 ecx, DWORD PTR _this$[ebp]
  002fb	e8 00 00 00 00	 call	 ?_Insert@?$_Tree@V?$_Tmap_traits@HUMYLIST_COLUMN_INFO@@U?$less@H@std@@V?$allocator@U?$pair@$$CBHUMYLIST_COLUMN_INFO@@@std@@@3@$0A@@std@@@std@@IAE?AViterator@12@_NPAU_Node@?$_Tree_nod@V?$_Tmap_traits@HUMYLIST_COLUMN_INFO@@U?$less@H@std@@V?$allocator@U?$pair@$$CBHUMYLIST_COLUMN_INFO@@@std@@@3@$0A@@std@@@2@ABU?$pair@$$CBHUMYLIST_COLUMN_INFO@@@2@@Z ; std::_Tree<std::_Tmap_traits<int,MYLIST_COLUMN_INFO,std::less<int>,std::allocator<std::pair<int const ,MYLIST_COLUMN_INFO> >,0> >::_Insert
  00300	8b 45 08	 mov	 eax, DWORD PTR ___$ReturnUdt$[ebp]
  00303	e9 c9 02 00 00	 jmp	 $L190294
$L190304:

; 544  : 				}
; 545  : 			}
; 546  : 		else

  00308	e9 aa 02 00 00	 jmp	 $L190298
$L190299:

; 547  : 			{	// insert only if unique
; 548  : 			if (_Where == begin())

  0030d	8d 4d e0	 lea	 ecx, DWORD PTR $T192036[ebp]
  00310	51		 push	 ecx
  00311	8b 4d fc	 mov	 ecx, DWORD PTR _this$[ebp]
  00314	e8 00 00 00 00	 call	 ?begin@?$_Tree@V?$_Tmap_traits@HUMYLIST_COLUMN_INFO@@U?$less@H@std@@V?$allocator@U?$pair@$$CBHUMYLIST_COLUMN_INFO@@@std@@@3@$0A@@std@@@std@@QAE?AViterator@12@XZ ; std::_Tree<std::_Tmap_traits<int,MYLIST_COLUMN_INFO,std::less<int>,std::allocator<std::pair<int const ,MYLIST_COLUMN_INFO> >,0> >::begin
  00319	50		 push	 eax
  0031a	8d 4d 0c	 lea	 ecx, DWORD PTR __Where$[ebp]
  0031d	e8 00 00 00 00	 call	 ??8const_iterator@?$_Tree@V?$_Tmap_traits@HUMYLIST_COLUMN_INFO@@U?$less@H@std@@V?$allocator@U?$pair@$$CBHUMYLIST_COLUMN_INFO@@@std@@@3@$0A@@std@@@std@@QBE_NABV012@@Z ; std::_Tree<std::_Tmap_traits<int,MYLIST_COLUMN_INFO,std::less<int>,std::allocator<std::pair<int const ,MYLIST_COLUMN_INFO> >,0> >::const_iterator::operator==
  00322	0f b6 d0	 movzx	 edx, al
  00325	85 d2		 test	 edx, edx
  00327	74 56		 je	 SHORT $L190325

; 549  : 				{	// insert at beginning if before first element
; 550  : 				if (this->comp(this->_Kfn(_Val), _Key(_Where._Mynode())))

  00329	8d 4d 0c	 lea	 ecx, DWORD PTR __Where$[ebp]
  0032c	e8 00 00 00 00	 call	 ?_Mynode@const_iterator@?$_Tree@V?$_Tmap_traits@HUMYLIST_COLUMN_INFO@@U?$less@H@std@@V?$allocator@U?$pair@$$CBHUMYLIST_COLUMN_INFO@@@std@@@3@$0A@@std@@@std@@QBEPAU_Node@?$_Tree_nod@V?$_Tmap_traits@HUMYLIST_COLUMN_INFO@@U?$less@H@std@@V?$allocator@U?$pair@$$CBHUMYLIST_COLUMN_INFO@@@std@@@3@$0A@@std@@@3@XZ ; std::_Tree<std::_Tmap_traits<int,MYLIST_COLUMN_INFO,std::less<int>,std::allocator<std::pair<int const ,MYLIST_COLUMN_INFO> >,0> >::const_iterator::_Mynode
  00331	50		 push	 eax
  00332	e8 00 00 00 00	 call	 ?_Key@?$_Tree@V?$_Tmap_traits@HUMYLIST_COLUMN_INFO@@U?$less@H@std@@V?$allocator@U?$pair@$$CBHUMYLIST_COLUMN_INFO@@@std@@@3@$0A@@std@@@std@@KAABHPAU_Node@?$_Tree_nod@V?$_Tmap_traits@HUMYLIST_COLUMN_INFO@@U?$less@H@std@@V?$allocator@U?$pair@$$CBHUMYLIST_COLUMN_INFO@@@std@@@3@$0A@@std@@@2@@Z ; std::_Tree<std::_Tmap_traits<int,MYLIST_COLUMN_INFO,std::less<int>,std::allocator<std::pair<int const ,MYLIST_COLUMN_INFO> >,0> >::_Key
  00337	83 c4 04	 add	 esp, 4
  0033a	50		 push	 eax
  0033b	8b 45 10	 mov	 eax, DWORD PTR __Val$[ebp]
  0033e	50		 push	 eax
  0033f	e8 00 00 00 00	 call	 ?_Kfn@?$_Tmap_traits@HUMYLIST_COLUMN_INFO@@U?$less@H@std@@V?$allocator@U?$pair@$$CBHUMYLIST_COLUMN_INFO@@@std@@@3@$0A@@std@@SAABHABU?$pair@$$CBHUMYLIST_COLUMN_INFO@@@2@@Z ; std::_Tmap_traits<int,MYLIST_COLUMN_INFO,std::less<int>,std::allocator<std::pair<int const ,MYLIST_COLUMN_INFO> >,0>::_Kfn
  00344	83 c4 04	 add	 esp, 4
  00347	50		 push	 eax
  00348	8b 4d fc	 mov	 ecx, DWORD PTR _this$[ebp]
  0034b	e8 00 00 00 00	 call	 ??R?$less@H@std@@QBE_NABH0@Z ; std::less<int>::operator()
  00350	0f b6 c8	 movzx	 ecx, al
  00353	85 c9		 test	 ecx, ecx
  00355	74 23		 je	 SHORT $L190326

; 551  : 					return (_Insert(true, _Where._Mynode(), _Val));

  00357	8b 55 10	 mov	 edx, DWORD PTR __Val$[ebp]
  0035a	52		 push	 edx
  0035b	8d 4d 0c	 lea	 ecx, DWORD PTR __Where$[ebp]
  0035e	e8 00 00 00 00	 call	 ?_Mynode@const_iterator@?$_Tree@V?$_Tmap_traits@HUMYLIST_COLUMN_INFO@@U?$less@H@std@@V?$allocator@U?$pair@$$CBHUMYLIST_COLUMN_INFO@@@std@@@3@$0A@@std@@@std@@QBEPAU_Node@?$_Tree_nod@V?$_Tmap_traits@HUMYLIST_COLUMN_INFO@@U?$less@H@std@@V?$allocator@U?$pair@$$CBHUMYLIST_COLUMN_INFO@@@std@@@3@$0A@@std@@@3@XZ ; std::_Tree<std::_Tmap_traits<int,MYLIST_COLUMN_INFO,std::less<int>,std::allocator<std::pair<int const ,MYLIST_COLUMN_INFO> >,0> >::const_iterator::_Mynode
  00363	50		 push	 eax
  00364	6a 01		 push	 1
  00366	8b 45 08	 mov	 eax, DWORD PTR ___$ReturnUdt$[ebp]
  00369	50		 push	 eax
  0036a	8b 4d fc	 mov	 ecx, DWORD PTR _this$[ebp]
  0036d	e8 00 00 00 00	 call	 ?_Insert@?$_Tree@V?$_Tmap_traits@HUMYLIST_COLUMN_INFO@@U?$less@H@std@@V?$allocator@U?$pair@$$CBHUMYLIST_COLUMN_INFO@@@std@@@3@$0A@@std@@@std@@IAE?AViterator@12@_NPAU_Node@?$_Tree_nod@V?$_Tmap_traits@HUMYLIST_COLUMN_INFO@@U?$less@H@std@@V?$allocator@U?$pair@$$CBHUMYLIST_COLUMN_INFO@@@std@@@3@$0A@@std@@@2@ABU?$pair@$$CBHUMYLIST_COLUMN_INFO@@@2@@Z ; std::_Tree<std::_Tmap_traits<int,MYLIST_COLUMN_INFO,std::less<int>,std::allocator<std::pair<int const ,MYLIST_COLUMN_INFO> >,0> >::_Insert
  00372	8b 45 08	 mov	 eax, DWORD PTR ___$ReturnUdt$[ebp]
  00375	e9 57 02 00 00	 jmp	 $L190294
$L190326:

; 552  : 				}
; 553  : 			else if (_Where == end())

  0037a	e9 38 02 00 00	 jmp	 $L190298
$L190325:
  0037f	8d 4d dc	 lea	 ecx, DWORD PTR $T192037[ebp]
  00382	51		 push	 ecx
  00383	8b 4d fc	 mov	 ecx, DWORD PTR _this$[ebp]
  00386	e8 00 00 00 00	 call	 ?end@?$_Tree@V?$_Tmap_traits@HUMYLIST_COLUMN_INFO@@U?$less@H@std@@V?$allocator@U?$pair@$$CBHUMYLIST_COLUMN_INFO@@@std@@@3@$0A@@std@@@std@@QAE?AViterator@12@XZ ; std::_Tree<std::_Tmap_traits<int,MYLIST_COLUMN_INFO,std::less<int>,std::allocator<std::pair<int const ,MYLIST_COLUMN_INFO> >,0> >::end
  0038b	50		 push	 eax
  0038c	8d 4d 0c	 lea	 ecx, DWORD PTR __Where$[ebp]
  0038f	e8 00 00 00 00	 call	 ??8const_iterator@?$_Tree@V?$_Tmap_traits@HUMYLIST_COLUMN_INFO@@U?$less@H@std@@V?$allocator@U?$pair@$$CBHUMYLIST_COLUMN_INFO@@@std@@@3@$0A@@std@@@std@@QBE_NABV012@@Z ; std::_Tree<std::_Tmap_traits<int,MYLIST_COLUMN_INFO,std::less<int>,std::allocator<std::pair<int const ,MYLIST_COLUMN_INFO> >,0> >::const_iterator::operator==
  00394	0f b6 d0	 movzx	 edx, al
  00397	85 d2		 test	 edx, edx
  00399	74 5a		 je	 SHORT $L190330

; 554  : 				{	// insert at end if after last element
; 555  : 				if (this->comp(_Key(_Rmost()), this->_Kfn(_Val)))

  0039b	8b 45 10	 mov	 eax, DWORD PTR __Val$[ebp]
  0039e	50		 push	 eax
  0039f	e8 00 00 00 00	 call	 ?_Kfn@?$_Tmap_traits@HUMYLIST_COLUMN_INFO@@U?$less@H@std@@V?$allocator@U?$pair@$$CBHUMYLIST_COLUMN_INFO@@@std@@@3@$0A@@std@@SAABHABU?$pair@$$CBHUMYLIST_COLUMN_INFO@@@2@@Z ; std::_Tmap_traits<int,MYLIST_COLUMN_INFO,std::less<int>,std::allocator<std::pair<int const ,MYLIST_COLUMN_INFO> >,0>::_Kfn
  003a4	83 c4 04	 add	 esp, 4
  003a7	50		 push	 eax
  003a8	8b 4d fc	 mov	 ecx, DWORD PTR _this$[ebp]
  003ab	e8 00 00 00 00	 call	 ?_Rmost@?$_Tree@V?$_Tmap_traits@HUMYLIST_COLUMN_INFO@@U?$less@H@std@@V?$allocator@U?$pair@$$CBHUMYLIST_COLUMN_INFO@@@std@@@3@$0A@@std@@@std@@IAEAAPAU_Node@?$_Tree_nod@V?$_Tmap_traits@HUMYLIST_COLUMN_INFO@@U?$less@H@std@@V?$allocator@U?$pair@$$CBHUMYLIST_COLUMN_INFO@@@std@@@3@$0A@@std@@@2@XZ ; std::_Tree<std::_Tmap_traits<int,MYLIST_COLUMN_INFO,std::less<int>,std::allocator<std::pair<int const ,MYLIST_COLUMN_INFO> >,0> >::_Rmost
  003b0	8b 08		 mov	 ecx, DWORD PTR [eax]
  003b2	51		 push	 ecx
  003b3	e8 00 00 00 00	 call	 ?_Key@?$_Tree@V?$_Tmap_traits@HUMYLIST_COLUMN_INFO@@U?$less@H@std@@V?$allocator@U?$pair@$$CBHUMYLIST_COLUMN_INFO@@@std@@@3@$0A@@std@@@std@@KAABHPAU_Node@?$_Tree_nod@V?$_Tmap_traits@HUMYLIST_COLUMN_INFO@@U?$less@H@std@@V?$allocator@U?$pair@$$CBHUMYLIST_COLUMN_INFO@@@std@@@3@$0A@@std@@@2@@Z ; std::_Tree<std::_Tmap_traits<int,MYLIST_COLUMN_INFO,std::less<int>,std::allocator<std::pair<int const ,MYLIST_COLUMN_INFO> >,0> >::_Key
  003b8	83 c4 04	 add	 esp, 4
  003bb	50		 push	 eax
  003bc	8b 4d fc	 mov	 ecx, DWORD PTR _this$[ebp]
  003bf	e8 00 00 00 00	 call	 ??R?$less@H@std@@QBE_NABH0@Z ; std::less<int>::operator()
  003c4	0f b6 d0	 movzx	 edx, al
  003c7	85 d2		 test	 edx, edx
  003c9	74 25		 je	 SHORT $L190331

; 556  : 					return (_Insert(false, _Rmost(), _Val));

  003cb	8b 45 10	 mov	 eax, DWORD PTR __Val$[ebp]
  003ce	50		 push	 eax
  003cf	8b 4d fc	 mov	 ecx, DWORD PTR _this$[ebp]
  003d2	e8 00 00 00 00	 call	 ?_Rmost@?$_Tree@V?$_Tmap_traits@HUMYLIST_COLUMN_INFO@@U?$less@H@std@@V?$allocator@U?$pair@$$CBHUMYLIST_COLUMN_INFO@@@std@@@3@$0A@@std@@@std@@IAEAAPAU_Node@?$_Tree_nod@V?$_Tmap_traits@HUMYLIST_COLUMN_INFO@@U?$less@H@std@@V?$allocator@U?$pair@$$CBHUMYLIST_COLUMN_INFO@@@std@@@3@$0A@@std@@@2@XZ ; std::_Tree<std::_Tmap_traits<int,MYLIST_COLUMN_INFO,std::less<int>,std::allocator<std::pair<int const ,MYLIST_COLUMN_INFO> >,0> >::_Rmost
  003d7	8b 08		 mov	 ecx, DWORD PTR [eax]
  003d9	51		 push	 ecx
  003da	6a 00		 push	 0
  003dc	8b 55 08	 mov	 edx, DWORD PTR ___$ReturnUdt$[ebp]
  003df	52		 push	 edx
  003e0	8b 4d fc	 mov	 ecx, DWORD PTR _this$[ebp]
  003e3	e8 00 00 00 00	 call	 ?_Insert@?$_Tree@V?$_Tmap_traits@HUMYLIST_COLUMN_INFO@@U?$less@H@std@@V?$allocator@U?$pair@$$CBHUMYLIST_COLUMN_INFO@@@std@@@3@$0A@@std@@@std@@IAE?AViterator@12@_NPAU_Node@?$_Tree_nod@V?$_Tmap_traits@HUMYLIST_COLUMN_INFO@@U?$less@H@std@@V?$allocator@U?$pair@$$CBHUMYLIST_COLUMN_INFO@@@std@@@3@$0A@@std@@@2@ABU?$pair@$$CBHUMYLIST_COLUMN_INFO@@@2@@Z ; std::_Tree<std::_Tmap_traits<int,MYLIST_COLUMN_INFO,std::less<int>,std::allocator<std::pair<int const ,MYLIST_COLUMN_INFO> >,0> >::_Insert
  003e8	8b 45 08	 mov	 eax, DWORD PTR ___$ReturnUdt$[ebp]
  003eb	e9 e1 01 00 00	 jmp	 $L190294
$L190331:

; 557  : 				}
; 558  : 			else if (this->comp(this->_Kfn(_Val), _Key(_Where._Mynode()))

  003f0	e9 c2 01 00 00	 jmp	 $L190298
$L190330:

; 559  : 				&& this->comp(_Key((--(_Next = _Where))._Mynode()),
; 560  : 					this->_Kfn(_Val)))

  003f5	8d 4d 0c	 lea	 ecx, DWORD PTR __Where$[ebp]
  003f8	e8 00 00 00 00	 call	 ?_Mynode@const_iterator@?$_Tree@V?$_Tmap_traits@HUMYLIST_COLUMN_INFO@@U?$less@H@std@@V?$allocator@U?$pair@$$CBHUMYLIST_COLUMN_INFO@@@std@@@3@$0A@@std@@@std@@QBEPAU_Node@?$_Tree_nod@V?$_Tmap_traits@HUMYLIST_COLUMN_INFO@@U?$less@H@std@@V?$allocator@U?$pair@$$CBHUMYLIST_COLUMN_INFO@@@std@@@3@$0A@@std@@@3@XZ ; std::_Tree<std::_Tmap_traits<int,MYLIST_COLUMN_INFO,std::less<int>,std::allocator<std::pair<int const ,MYLIST_COLUMN_INFO> >,0> >::const_iterator::_Mynode
  003fd	50		 push	 eax
  003fe	e8 00 00 00 00	 call	 ?_Key@?$_Tree@V?$_Tmap_traits@HUMYLIST_COLUMN_INFO@@U?$less@H@std@@V?$allocator@U?$pair@$$CBHUMYLIST_COLUMN_INFO@@@std@@@3@$0A@@std@@@std@@KAABHPAU_Node@?$_Tree_nod@V?$_Tmap_traits@HUMYLIST_COLUMN_INFO@@U?$less@H@std@@V?$allocator@U?$pair@$$CBHUMYLIST_COLUMN_INFO@@@std@@@3@$0A@@std@@@2@@Z ; std::_Tree<std::_Tmap_traits<int,MYLIST_COLUMN_INFO,std::less<int>,std::allocator<std::pair<int const ,MYLIST_COLUMN_INFO> >,0> >::_Key
  00403	83 c4 04	 add	 esp, 4
  00406	50		 push	 eax
  00407	8b 45 10	 mov	 eax, DWORD PTR __Val$[ebp]
  0040a	50		 push	 eax
  0040b	e8 00 00 00 00	 call	 ?_Kfn@?$_Tmap_traits@HUMYLIST_COLUMN_INFO@@U?$less@H@std@@V?$allocator@U?$pair@$$CBHUMYLIST_COLUMN_INFO@@@std@@@3@$0A@@std@@SAABHABU?$pair@$$CBHUMYLIST_COLUMN_INFO@@@2@@Z ; std::_Tmap_traits<int,MYLIST_COLUMN_INFO,std::less<int>,std::allocator<std::pair<int const ,MYLIST_COLUMN_INFO> >,0>::_Kfn
  00410	83 c4 04	 add	 esp, 4
  00413	50		 push	 eax
  00414	8b 4d fc	 mov	 ecx, DWORD PTR _this$[ebp]
  00417	e8 00 00 00 00	 call	 ??R?$less@H@std@@QBE_NABH0@Z ; std::less<int>::operator()
  0041c	0f b6 c8	 movzx	 ecx, al
  0041f	85 c9		 test	 ecx, ecx
  00421	0f 84 a4 00 00
	00		 je	 $L190334
  00427	8b 55 0c	 mov	 edx, DWORD PTR __Where$[ebp]
  0042a	89 55 f4	 mov	 DWORD PTR __Next$[ebp], edx
  0042d	8b 45 10	 mov	 eax, DWORD PTR __Val$[ebp]
  00430	50		 push	 eax
  00431	e8 00 00 00 00	 call	 ?_Kfn@?$_Tmap_traits@HUMYLIST_COLUMN_INFO@@U?$less@H@std@@V?$allocator@U?$pair@$$CBHUMYLIST_COLUMN_INFO@@@std@@@3@$0A@@std@@SAABHABU?$pair@$$CBHUMYLIST_COLUMN_INFO@@@2@@Z ; std::_Tmap_traits<int,MYLIST_COLUMN_INFO,std::less<int>,std::allocator<std::pair<int const ,MYLIST_COLUMN_INFO> >,0>::_Kfn
  00436	83 c4 04	 add	 esp, 4
  00439	50		 push	 eax
  0043a	8d 4d f4	 lea	 ecx, DWORD PTR __Next$[ebp]
  0043d	e8 00 00 00 00	 call	 ??Fiterator@?$_Tree@V?$_Tmap_traits@HUMYLIST_COLUMN_INFO@@U?$less@H@std@@V?$allocator@U?$pair@$$CBHUMYLIST_COLUMN_INFO@@@std@@@3@$0A@@std@@@std@@QAEAAV012@XZ ; std::_Tree<std::_Tmap_traits<int,MYLIST_COLUMN_INFO,std::less<int>,std::allocator<std::pair<int const ,MYLIST_COLUMN_INFO> >,0> >::iterator::operator--
  00442	8b c8		 mov	 ecx, eax
  00444	e8 00 00 00 00	 call	 ?_Mynode@const_iterator@?$_Tree@V?$_Tmap_traits@HUMYLIST_COLUMN_INFO@@U?$less@H@std@@V?$allocator@U?$pair@$$CBHUMYLIST_COLUMN_INFO@@@std@@@3@$0A@@std@@@std@@QBEPAU_Node@?$_Tree_nod@V?$_Tmap_traits@HUMYLIST_COLUMN_INFO@@U?$less@H@std@@V?$allocator@U?$pair@$$CBHUMYLIST_COLUMN_INFO@@@std@@@3@$0A@@std@@@3@XZ ; std::_Tree<std::_Tmap_traits<int,MYLIST_COLUMN_INFO,std::less<int>,std::allocator<std::pair<int const ,MYLIST_COLUMN_INFO> >,0> >::const_iterator::_Mynode
  00449	50		 push	 eax
  0044a	e8 00 00 00 00	 call	 ?_Key@?$_Tree@V?$_Tmap_traits@HUMYLIST_COLUMN_INFO@@U?$less@H@std@@V?$allocator@U?$pair@$$CBHUMYLIST_COLUMN_INFO@@@std@@@3@$0A@@std@@@std@@KAABHPAU_Node@?$_Tree_nod@V?$_Tmap_traits@HUMYLIST_COLUMN_INFO@@U?$less@H@std@@V?$allocator@U?$pair@$$CBHUMYLIST_COLUMN_INFO@@@std@@@3@$0A@@std@@@2@@Z ; std::_Tree<std::_Tmap_traits<int,MYLIST_COLUMN_INFO,std::less<int>,std::allocator<std::pair<int const ,MYLIST_COLUMN_INFO> >,0> >::_Key
  0044f	83 c4 04	 add	 esp, 4
  00452	50		 push	 eax
  00453	8b 4d fc	 mov	 ecx, DWORD PTR _this$[ebp]
  00456	e8 00 00 00 00	 call	 ??R?$less@H@std@@QBE_NABH0@Z ; std::less<int>::operator()
  0045b	0f b6 c8	 movzx	 ecx, al
  0045e	85 c9		 test	 ecx, ecx
  00460	74 69		 je	 SHORT $L190334

; 561  : 				{	// insert before _Where
; 562  : 				if (_Isnil(_Right(_Next._Mynode())))

  00462	8d 4d f4	 lea	 ecx, DWORD PTR __Next$[ebp]
  00465	e8 00 00 00 00	 call	 ?_Mynode@const_iterator@?$_Tree@V?$_Tmap_traits@HUMYLIST_COLUMN_INFO@@U?$less@H@std@@V?$allocator@U?$pair@$$CBHUMYLIST_COLUMN_INFO@@@std@@@3@$0A@@std@@@std@@QBEPAU_Node@?$_Tree_nod@V?$_Tmap_traits@HUMYLIST_COLUMN_INFO@@U?$less@H@std@@V?$allocator@U?$pair@$$CBHUMYLIST_COLUMN_INFO@@@std@@@3@$0A@@std@@@3@XZ ; std::_Tree<std::_Tmap_traits<int,MYLIST_COLUMN_INFO,std::less<int>,std::allocator<std::pair<int const ,MYLIST_COLUMN_INFO> >,0> >::const_iterator::_Mynode
  0046a	50		 push	 eax
  0046b	e8 00 00 00 00	 call	 ?_Right@?$_Tree@V?$_Tmap_traits@HUMYLIST_COLUMN_INFO@@U?$less@H@std@@V?$allocator@U?$pair@$$CBHUMYLIST_COLUMN_INFO@@@std@@@3@$0A@@std@@@std@@KAAAPAU_Node@?$_Tree_nod@V?$_Tmap_traits@HUMYLIST_COLUMN_INFO@@U?$less@H@std@@V?$allocator@U?$pair@$$CBHUMYLIST_COLUMN_INFO@@@std@@@3@$0A@@std@@@2@PAU342@@Z ; std::_Tree<std::_Tmap_traits<int,MYLIST_COLUMN_INFO,std::less<int>,std::allocator<std::pair<int const ,MYLIST_COLUMN_INFO> >,0> >::_Right
  00470	83 c4 04	 add	 esp, 4
  00473	8b 10		 mov	 edx, DWORD PTR [eax]
  00475	52		 push	 edx
  00476	e8 00 00 00 00	 call	 ?_Isnil@?$_Tree@V?$_Tmap_traits@HUMYLIST_COLUMN_INFO@@U?$less@H@std@@V?$allocator@U?$pair@$$CBHUMYLIST_COLUMN_INFO@@@std@@@3@$0A@@std@@@std@@KAAADPAU_Node@?$_Tree_nod@V?$_Tmap_traits@HUMYLIST_COLUMN_INFO@@U?$less@H@std@@V?$allocator@U?$pair@$$CBHUMYLIST_COLUMN_INFO@@@std@@@3@$0A@@std@@@2@@Z ; std::_Tree<std::_Tmap_traits<int,MYLIST_COLUMN_INFO,std::less<int>,std::allocator<std::pair<int const ,MYLIST_COLUMN_INFO> >,0> >::_Isnil
  0047b	83 c4 04	 add	 esp, 4
  0047e	0f be 00	 movsx	 eax, BYTE PTR [eax]
  00481	85 c0		 test	 eax, eax
  00483	74 23		 je	 SHORT $L190335

; 563  : 					return (_Insert(false, _Next._Mynode(), _Val));

  00485	8b 4d 10	 mov	 ecx, DWORD PTR __Val$[ebp]
  00488	51		 push	 ecx
  00489	8d 4d f4	 lea	 ecx, DWORD PTR __Next$[ebp]
  0048c	e8 00 00 00 00	 call	 ?_Mynode@const_iterator@?$_Tree@V?$_Tmap_traits@HUMYLIST_COLUMN_INFO@@U?$less@H@std@@V?$allocator@U?$pair@$$CBHUMYLIST_COLUMN_INFO@@@std@@@3@$0A@@std@@@std@@QBEPAU_Node@?$_Tree_nod@V?$_Tmap_traits@HUMYLIST_COLUMN_INFO@@U?$less@H@std@@V?$allocator@U?$pair@$$CBHUMYLIST_COLUMN_INFO@@@std@@@3@$0A@@std@@@3@XZ ; std::_Tree<std::_Tmap_traits<int,MYLIST_COLUMN_INFO,std::less<int>,std::allocator<std::pair<int const ,MYLIST_COLUMN_INFO> >,0> >::const_iterator::_Mynode
  00491	50		 push	 eax
  00492	6a 00		 push	 0
  00494	8b 55 08	 mov	 edx, DWORD PTR ___$ReturnUdt$[ebp]
  00497	52		 push	 edx
  00498	8b 4d fc	 mov	 ecx, DWORD PTR _this$[ebp]
  0049b	e8 00 00 00 00	 call	 ?_Insert@?$_Tree@V?$_Tmap_traits@HUMYLIST_COLUMN_INFO@@U?$less@H@std@@V?$allocator@U?$pair@$$CBHUMYLIST_COLUMN_INFO@@@std@@@3@$0A@@std@@@std@@IAE?AViterator@12@_NPAU_Node@?$_Tree_nod@V?$_Tmap_traits@HUMYLIST_COLUMN_INFO@@U?$less@H@std@@V?$allocator@U?$pair@$$CBHUMYLIST_COLUMN_INFO@@@std@@@3@$0A@@std@@@2@ABU?$pair@$$CBHUMYLIST_COLUMN_INFO@@@2@@Z ; std::_Tree<std::_Tmap_traits<int,MYLIST_COLUMN_INFO,std::less<int>,std::allocator<std::pair<int const ,MYLIST_COLUMN_INFO> >,0> >::_Insert
  004a0	8b 45 08	 mov	 eax, DWORD PTR ___$ReturnUdt$[ebp]
  004a3	e9 29 01 00 00	 jmp	 $L190294
$L190335:

; 564  : 				else
; 565  : 					return (_Insert(true, _Where._Mynode(), _Val));

  004a8	8b 45 10	 mov	 eax, DWORD PTR __Val$[ebp]
  004ab	50		 push	 eax
  004ac	8d 4d 0c	 lea	 ecx, DWORD PTR __Where$[ebp]
  004af	e8 00 00 00 00	 call	 ?_Mynode@const_iterator@?$_Tree@V?$_Tmap_traits@HUMYLIST_COLUMN_INFO@@U?$less@H@std@@V?$allocator@U?$pair@$$CBHUMYLIST_COLUMN_INFO@@@std@@@3@$0A@@std@@@std@@QBEPAU_Node@?$_Tree_nod@V?$_Tmap_traits@HUMYLIST_COLUMN_INFO@@U?$less@H@std@@V?$allocator@U?$pair@$$CBHUMYLIST_COLUMN_INFO@@@std@@@3@$0A@@std@@@3@XZ ; std::_Tree<std::_Tmap_traits<int,MYLIST_COLUMN_INFO,std::less<int>,std::allocator<std::pair<int const ,MYLIST_COLUMN_INFO> >,0> >::const_iterator::_Mynode
  004b4	50		 push	 eax
  004b5	6a 01		 push	 1
  004b7	8b 4d 08	 mov	 ecx, DWORD PTR ___$ReturnUdt$[ebp]
  004ba	51		 push	 ecx
  004bb	8b 4d fc	 mov	 ecx, DWORD PTR _this$[ebp]
  004be	e8 00 00 00 00	 call	 ?_Insert@?$_Tree@V?$_Tmap_traits@HUMYLIST_COLUMN_INFO@@U?$less@H@std@@V?$allocator@U?$pair@$$CBHUMYLIST_COLUMN_INFO@@@std@@@3@$0A@@std@@@std@@IAE?AViterator@12@_NPAU_Node@?$_Tree_nod@V?$_Tmap_traits@HUMYLIST_COLUMN_INFO@@U?$less@H@std@@V?$allocator@U?$pair@$$CBHUMYLIST_COLUMN_INFO@@@std@@@3@$0A@@std@@@2@ABU?$pair@$$CBHUMYLIST_COLUMN_INFO@@@2@@Z ; std::_Tree<std::_Tmap_traits<int,MYLIST_COLUMN_INFO,std::less<int>,std::allocator<std::pair<int const ,MYLIST_COLUMN_INFO> >,0> >::_Insert
  004c3	8b 45 08	 mov	 eax, DWORD PTR ___$ReturnUdt$[ebp]
  004c6	e9 06 01 00 00	 jmp	 $L190294
$L190334:

; 566  : 				}
; 567  : 			else if (this->comp(_Key(_Where._Mynode()), this->_Kfn(_Val))
; 568  : 				&& (++(_Next = _Where) == end()
; 569  : 					|| this->comp(this->_Kfn(_Val),
; 570  : 						_Key(_Next._Mynode()))))

  004cb	8b 55 10	 mov	 edx, DWORD PTR __Val$[ebp]
  004ce	52		 push	 edx
  004cf	e8 00 00 00 00	 call	 ?_Kfn@?$_Tmap_traits@HUMYLIST_COLUMN_INFO@@U?$less@H@std@@V?$allocator@U?$pair@$$CBHUMYLIST_COLUMN_INFO@@@std@@@3@$0A@@std@@SAABHABU?$pair@$$CBHUMYLIST_COLUMN_INFO@@@2@@Z ; std::_Tmap_traits<int,MYLIST_COLUMN_INFO,std::less<int>,std::allocator<std::pair<int const ,MYLIST_COLUMN_INFO> >,0>::_Kfn
  004d4	83 c4 04	 add	 esp, 4
  004d7	50		 push	 eax
  004d8	8d 4d 0c	 lea	 ecx, DWORD PTR __Where$[ebp]
  004db	e8 00 00 00 00	 call	 ?_Mynode@const_iterator@?$_Tree@V?$_Tmap_traits@HUMYLIST_COLUMN_INFO@@U?$less@H@std@@V?$allocator@U?$pair@$$CBHUMYLIST_COLUMN_INFO@@@std@@@3@$0A@@std@@@std@@QBEPAU_Node@?$_Tree_nod@V?$_Tmap_traits@HUMYLIST_COLUMN_INFO@@U?$less@H@std@@V?$allocator@U?$pair@$$CBHUMYLIST_COLUMN_INFO@@@std@@@3@$0A@@std@@@3@XZ ; std::_Tree<std::_Tmap_traits<int,MYLIST_COLUMN_INFO,std::less<int>,std::allocator<std::pair<int const ,MYLIST_COLUMN_INFO> >,0> >::const_iterator::_Mynode
  004e0	50		 push	 eax
  004e1	e8 00 00 00 00	 call	 ?_Key@?$_Tree@V?$_Tmap_traits@HUMYLIST_COLUMN_INFO@@U?$less@H@std@@V?$allocator@U?$pair@$$CBHUMYLIST_COLUMN_INFO@@@std@@@3@$0A@@std@@@std@@KAABHPAU_Node@?$_Tree_nod@V?$_Tmap_traits@HUMYLIST_COLUMN_INFO@@U?$less@H@std@@V?$allocator@U?$pair@$$CBHUMYLIST_COLUMN_INFO@@@std@@@3@$0A@@std@@@2@@Z ; std::_Tree<std::_Tmap_traits<int,MYLIST_COLUMN_INFO,std::less<int>,std::allocator<std::pair<int const ,MYLIST_COLUMN_INFO> >,0> >::_Key
  004e6	83 c4 04	 add	 esp, 4
  004e9	50		 push	 eax
  004ea	8b 4d fc	 mov	 ecx, DWORD PTR _this$[ebp]
  004ed	e8 00 00 00 00	 call	 ??R?$less@H@std@@QBE_NABH0@Z ; std::less<int>::operator()
  004f2	0f b6 c0	 movzx	 eax, al
  004f5	85 c0		 test	 eax, eax
  004f7	0f 84 ba 00 00
	00		 je	 $L190298
  004fd	8b 4d 0c	 mov	 ecx, DWORD PTR __Where$[ebp]
  00500	89 4d f4	 mov	 DWORD PTR __Next$[ebp], ecx
  00503	8d 55 d8	 lea	 edx, DWORD PTR $T192038[ebp]
  00506	52		 push	 edx
  00507	8b 4d fc	 mov	 ecx, DWORD PTR _this$[ebp]
  0050a	e8 00 00 00 00	 call	 ?end@?$_Tree@V?$_Tmap_traits@HUMYLIST_COLUMN_INFO@@U?$less@H@std@@V?$allocator@U?$pair@$$CBHUMYLIST_COLUMN_INFO@@@std@@@3@$0A@@std@@@std@@QAE?AViterator@12@XZ ; std::_Tree<std::_Tmap_traits<int,MYLIST_COLUMN_INFO,std::less<int>,std::allocator<std::pair<int const ,MYLIST_COLUMN_INFO> >,0> >::end
  0050f	50		 push	 eax
  00510	8d 4d f4	 lea	 ecx, DWORD PTR __Next$[ebp]
  00513	e8 00 00 00 00	 call	 ??Eiterator@?$_Tree@V?$_Tmap_traits@HUMYLIST_COLUMN_INFO@@U?$less@H@std@@V?$allocator@U?$pair@$$CBHUMYLIST_COLUMN_INFO@@@std@@@3@$0A@@std@@@std@@QAEAAV012@XZ ; std::_Tree<std::_Tmap_traits<int,MYLIST_COLUMN_INFO,std::less<int>,std::allocator<std::pair<int const ,MYLIST_COLUMN_INFO> >,0> >::iterator::operator++
  00518	8b c8		 mov	 ecx, eax
  0051a	e8 00 00 00 00	 call	 ??8const_iterator@?$_Tree@V?$_Tmap_traits@HUMYLIST_COLUMN_INFO@@U?$less@H@std@@V?$allocator@U?$pair@$$CBHUMYLIST_COLUMN_INFO@@@std@@@3@$0A@@std@@@std@@QBE_NABV012@@Z ; std::_Tree<std::_Tmap_traits<int,MYLIST_COLUMN_INFO,std::less<int>,std::allocator<std::pair<int const ,MYLIST_COLUMN_INFO> >,0> >::const_iterator::operator==
  0051f	0f b6 c0	 movzx	 eax, al
  00522	85 c0		 test	 eax, eax
  00524	75 2e		 jne	 SHORT $L190342
  00526	8d 4d f4	 lea	 ecx, DWORD PTR __Next$[ebp]
  00529	e8 00 00 00 00	 call	 ?_Mynode@const_iterator@?$_Tree@V?$_Tmap_traits@HUMYLIST_COLUMN_INFO@@U?$less@H@std@@V?$allocator@U?$pair@$$CBHUMYLIST_COLUMN_INFO@@@std@@@3@$0A@@std@@@std@@QBEPAU_Node@?$_Tree_nod@V?$_Tmap_traits@HUMYLIST_COLUMN_INFO@@U?$less@H@std@@V?$allocator@U?$pair@$$CBHUMYLIST_COLUMN_INFO@@@std@@@3@$0A@@std@@@3@XZ ; std::_Tree<std::_Tmap_traits<int,MYLIST_COLUMN_INFO,std::less<int>,std::allocator<std::pair<int const ,MYLIST_COLUMN_INFO> >,0> >::const_iterator::_Mynode
  0052e	50		 push	 eax
  0052f	e8 00 00 00 00	 call	 ?_Key@?$_Tree@V?$_Tmap_traits@HUMYLIST_COLUMN_INFO@@U?$less@H@std@@V?$allocator@U?$pair@$$CBHUMYLIST_COLUMN_INFO@@@std@@@3@$0A@@std@@@std@@KAABHPAU_Node@?$_Tree_nod@V?$_Tmap_traits@HUMYLIST_COLUMN_INFO@@U?$less@H@std@@V?$allocator@U?$pair@$$CBHUMYLIST_COLUMN_INFO@@@std@@@3@$0A@@std@@@2@@Z ; std::_Tree<std::_Tmap_traits<int,MYLIST_COLUMN_INFO,std::less<int>,std::allocator<std::pair<int const ,MYLIST_COLUMN_INFO> >,0> >::_Key
  00534	83 c4 04	 add	 esp, 4
  00537	50		 push	 eax
  00538	8b 4d 10	 mov	 ecx, DWORD PTR __Val$[ebp]
  0053b	51		 push	 ecx
  0053c	e8 00 00 00 00	 call	 ?_Kfn@?$_Tmap_traits@HUMYLIST_COLUMN_INFO@@U?$less@H@std@@V?$allocator@U?$pair@$$CBHUMYLIST_COLUMN_INFO@@@std@@@3@$0A@@std@@SAABHABU?$pair@$$CBHUMYLIST_COLUMN_INFO@@@2@@Z ; std::_Tmap_traits<int,MYLIST_COLUMN_INFO,std::less<int>,std::allocator<std::pair<int const ,MYLIST_COLUMN_INFO> >,0>::_Kfn
  00541	83 c4 04	 add	 esp, 4
  00544	50		 push	 eax
  00545	8b 4d fc	 mov	 ecx, DWORD PTR _this$[ebp]
  00548	e8 00 00 00 00	 call	 ??R?$less@H@std@@QBE_NABH0@Z ; std::less<int>::operator()
  0054d	0f b6 d0	 movzx	 edx, al
  00550	85 d2		 test	 edx, edx
  00552	74 63		 je	 SHORT $L190298
$L190342:

; 571  : 				{	// insert after _Where
; 572  : 				if (_Isnil(_Right(_Where._Mynode())))

  00554	8d 4d 0c	 lea	 ecx, DWORD PTR __Where$[ebp]
  00557	e8 00 00 00 00	 call	 ?_Mynode@const_iterator@?$_Tree@V?$_Tmap_traits@HUMYLIST_COLUMN_INFO@@U?$less@H@std@@V?$allocator@U?$pair@$$CBHUMYLIST_COLUMN_INFO@@@std@@@3@$0A@@std@@@std@@QBEPAU_Node@?$_Tree_nod@V?$_Tmap_traits@HUMYLIST_COLUMN_INFO@@U?$less@H@std@@V?$allocator@U?$pair@$$CBHUMYLIST_COLUMN_INFO@@@std@@@3@$0A@@std@@@3@XZ ; std::_Tree<std::_Tmap_traits<int,MYLIST_COLUMN_INFO,std::less<int>,std::allocator<std::pair<int const ,MYLIST_COLUMN_INFO> >,0> >::const_iterator::_Mynode
  0055c	50		 push	 eax
  0055d	e8 00 00 00 00	 call	 ?_Right@?$_Tree@V?$_Tmap_traits@HUMYLIST_COLUMN_INFO@@U?$less@H@std@@V?$allocator@U?$pair@$$CBHUMYLIST_COLUMN_INFO@@@std@@@3@$0A@@std@@@std@@KAAAPAU_Node@?$_Tree_nod@V?$_Tmap_traits@HUMYLIST_COLUMN_INFO@@U?$less@H@std@@V?$allocator@U?$pair@$$CBHUMYLIST_COLUMN_INFO@@@std@@@3@$0A@@std@@@2@PAU342@@Z ; std::_Tree<std::_Tmap_traits<int,MYLIST_COLUMN_INFO,std::less<int>,std::allocator<std::pair<int const ,MYLIST_COLUMN_INFO> >,0> >::_Right
  00562	83 c4 04	 add	 esp, 4
  00565	8b 00		 mov	 eax, DWORD PTR [eax]
  00567	50		 push	 eax
  00568	e8 00 00 00 00	 call	 ?_Isnil@?$_Tree@V?$_Tmap_traits@HUMYLIST_COLUMN_INFO@@U?$less@H@std@@V?$allocator@U?$pair@$$CBHUMYLIST_COLUMN_INFO@@@std@@@3@$0A@@std@@@std@@KAAADPAU_Node@?$_Tree_nod@V?$_Tmap_traits@HUMYLIST_COLUMN_INFO@@U?$less@H@std@@V?$allocator@U?$pair@$$CBHUMYLIST_COLUMN_INFO@@@std@@@3@$0A@@std@@@2@@Z ; std::_Tree<std::_Tmap_traits<int,MYLIST_COLUMN_INFO,std::less<int>,std::allocator<std::pair<int const ,MYLIST_COLUMN_INFO> >,0> >::_Isnil
  0056d	83 c4 04	 add	 esp, 4
  00570	0f be 08	 movsx	 ecx, BYTE PTR [eax]
  00573	85 c9		 test	 ecx, ecx
  00575	74 20		 je	 SHORT $L190343

; 573  : 					return (_Insert(false, _Where._Mynode(), _Val));

  00577	8b 55 10	 mov	 edx, DWORD PTR __Val$[ebp]
  0057a	52		 push	 edx
  0057b	8d 4d 0c	 lea	 ecx, DWORD PTR __Where$[ebp]
  0057e	e8 00 00 00 00	 call	 ?_Mynode@const_iterator@?$_Tree@V?$_Tmap_traits@HUMYLIST_COLUMN_INFO@@U?$less@H@std@@V?$allocator@U?$pair@$$CBHUMYLIST_COLUMN_INFO@@@std@@@3@$0A@@std@@@std@@QBEPAU_Node@?$_Tree_nod@V?$_Tmap_traits@HUMYLIST_COLUMN_INFO@@U?$less@H@std@@V?$allocator@U?$pair@$$CBHUMYLIST_COLUMN_INFO@@@std@@@3@$0A@@std@@@3@XZ ; std::_Tree<std::_Tmap_traits<int,MYLIST_COLUMN_INFO,std::less<int>,std::allocator<std::pair<int const ,MYLIST_COLUMN_INFO> >,0> >::const_iterator::_Mynode
  00583	50		 push	 eax
  00584	6a 00		 push	 0
  00586	8b 45 08	 mov	 eax, DWORD PTR ___$ReturnUdt$[ebp]
  00589	50		 push	 eax
  0058a	8b 4d fc	 mov	 ecx, DWORD PTR _this$[ebp]
  0058d	e8 00 00 00 00	 call	 ?_Insert@?$_Tree@V?$_Tmap_traits@HUMYLIST_COLUMN_INFO@@U?$less@H@std@@V?$allocator@U?$pair@$$CBHUMYLIST_COLUMN_INFO@@@std@@@3@$0A@@std@@@std@@IAE?AViterator@12@_NPAU_Node@?$_Tree_nod@V?$_Tmap_traits@HUMYLIST_COLUMN_INFO@@U?$less@H@std@@V?$allocator@U?$pair@$$CBHUMYLIST_COLUMN_INFO@@@std@@@3@$0A@@std@@@2@ABU?$pair@$$CBHUMYLIST_COLUMN_INFO@@@2@@Z ; std::_Tree<std::_Tmap_traits<int,MYLIST_COLUMN_INFO,std::less<int>,std::allocator<std::pair<int const ,MYLIST_COLUMN_INFO> >,0> >::_Insert
  00592	8b 45 08	 mov	 eax, DWORD PTR ___$ReturnUdt$[ebp]
  00595	eb 3a		 jmp	 SHORT $L190294
$L190343:

; 574  : 				else
; 575  : 					return (_Insert(true, _Next._Mynode(), _Val));

  00597	8b 4d 10	 mov	 ecx, DWORD PTR __Val$[ebp]
  0059a	51		 push	 ecx
  0059b	8d 4d f4	 lea	 ecx, DWORD PTR __Next$[ebp]
  0059e	e8 00 00 00 00	 call	 ?_Mynode@const_iterator@?$_Tree@V?$_Tmap_traits@HUMYLIST_COLUMN_INFO@@U?$less@H@std@@V?$allocator@U?$pair@$$CBHUMYLIST_COLUMN_INFO@@@std@@@3@$0A@@std@@@std@@QBEPAU_Node@?$_Tree_nod@V?$_Tmap_traits@HUMYLIST_COLUMN_INFO@@U?$less@H@std@@V?$allocator@U?$pair@$$CBHUMYLIST_COLUMN_INFO@@@std@@@3@$0A@@std@@@3@XZ ; std::_Tree<std::_Tmap_traits<int,MYLIST_COLUMN_INFO,std::less<int>,std::allocator<std::pair<int const ,MYLIST_COLUMN_INFO> >,0> >::const_iterator::_Mynode
  005a3	50		 push	 eax
  005a4	6a 01		 push	 1
  005a6	8b 55 08	 mov	 edx, DWORD PTR ___$ReturnUdt$[ebp]
  005a9	52		 push	 edx
  005aa	8b 4d fc	 mov	 ecx, DWORD PTR _this$[ebp]
  005ad	e8 00 00 00 00	 call	 ?_Insert@?$_Tree@V?$_Tmap_traits@HUMYLIST_COLUMN_INFO@@U?$less@H@std@@V?$allocator@U?$pair@$$CBHUMYLIST_COLUMN_INFO@@@std@@@3@$0A@@std@@@std@@IAE?AViterator@12@_NPAU_Node@?$_Tree_nod@V?$_Tmap_traits@HUMYLIST_COLUMN_INFO@@U?$less@H@std@@V?$allocator@U?$pair@$$CBHUMYLIST_COLUMN_INFO@@@std@@@3@$0A@@std@@@2@ABU?$pair@$$CBHUMYLIST_COLUMN_INFO@@@2@@Z ; std::_Tree<std::_Tmap_traits<int,MYLIST_COLUMN_INFO,std::less<int>,std::allocator<std::pair<int const ,MYLIST_COLUMN_INFO> >,0> >::_Insert
  005b2	8b 45 08	 mov	 eax, DWORD PTR ___$ReturnUdt$[ebp]
  005b5	eb 1a		 jmp	 SHORT $L190294
$L190298:

; 576  : 				}
; 577  : 			}
; 578  : 
; 579  : 		return (insert(_Val).first);	// try usual insert if all else fails

  005b7	8b 45 10	 mov	 eax, DWORD PTR __Val$[ebp]
  005ba	50		 push	 eax
  005bb	8d 4d d0	 lea	 ecx, DWORD PTR $T192039[ebp]
  005be	51		 push	 ecx
  005bf	8b 4d fc	 mov	 ecx, DWORD PTR _this$[ebp]
  005c2	e8 00 00 00 00	 call	 ?insert@?$_Tree@V?$_Tmap_traits@HUMYLIST_COLUMN_INFO@@U?$less@H@std@@V?$allocator@U?$pair@$$CBHUMYLIST_COLUMN_INFO@@@std@@@3@$0A@@std@@@std@@QAE?AU?$pair@Viterator@?$_Tree@V?$_Tmap_traits@HUMYLIST_COLUMN_INFO@@U?$less@H@std@@V?$allocator@U?$pair@$$CBHUMYLIST_COLUMN_INFO@@@std@@@3@$0A@@std@@@std@@_N@2@ABU?$pair@$$CBHUMYLIST_COLUMN_INFO@@@2@@Z ; std::_Tree<std::_Tmap_traits<int,MYLIST_COLUMN_INFO,std::less<int>,std::allocator<std::pair<int const ,MYLIST_COLUMN_INFO> >,0> >::insert
  005c7	8b 10		 mov	 edx, DWORD PTR [eax]
  005c9	8b 45 08	 mov	 eax, DWORD PTR ___$ReturnUdt$[ebp]
  005cc	89 10		 mov	 DWORD PTR [eax], edx
  005ce	8b 45 08	 mov	 eax, DWORD PTR ___$ReturnUdt$[ebp]
$L190294:

; 580  : 		}

  005d1	52		 push	 edx
  005d2	8b cd		 mov	 ecx, ebp
  005d4	50		 push	 eax
  005d5	8d 15 00 00 00
	00		 lea	 edx, DWORD PTR $L192042
  005db	e8 00 00 00 00	 call	 @_RTC_CheckStackVars@8
  005e0	58		 pop	 eax
  005e1	5a		 pop	 edx
  005e2	5f		 pop	 edi
  005e3	83 c4 30	 add	 esp, 48			; 00000030H
  005e6	3b ec		 cmp	 ebp, esp
  005e8	e8 00 00 00 00	 call	 __RTC_CheckEsp
  005ed	8b e5		 mov	 esp, ebp
  005ef	5d		 pop	 ebp
  005f0	c2 0c 00	 ret	 12			; 0000000cH
$L192042:
  005f3	01 00 00 00	 DD	 1
  005f7	00 00 00 00	 DD	 $L192041
$L192041:
  005fb	f4 ff ff ff	 DD	 -12			; fffffff4H
  005ff	04 00 00 00	 DD	 4
  00603	00 00 00 00	 DD	 $L192040
$L192040:
  00607	5f		 DB	 95			; 0000005fH
  00608	4e		 DB	 78			; 0000004eH
  00609	65		 DB	 101			; 00000065H
  0060a	78		 DB	 120			; 00000078H
  0060b	74		 DB	 116			; 00000074H
  0060c	00		 DB	 0
?insert@?$_Tree@V?$_Tmap_traits@HUMYLIST_COLUMN_INFO@@U?$less@H@std@@V?$allocator@U?$pair@$$CBHUMYLIST_COLUMN_INFO@@@std@@@3@$0A@@std@@@std@@QAE?AViterator@12@V312@ABU?$pair@$$CBHUMYLIST_COLUMN_INFO@@@2@@Z ENDP ; std::_Tree<std::_Tmap_traits<int,MYLIST_COLUMN_INFO,std::less<int>,std::allocator<std::pair<int const ,MYLIST_COLUMN_INFO> >,0> >::insert
_TEXT	ENDS
PUBLIC	?_Lbound@?$_Tree@V?$_Tmap_traits@HUMYLIST_COLUMN_INFO@@U?$less@H@std@@V?$allocator@U?$pair@$$CBHUMYLIST_COLUMN_INFO@@@std@@@3@$0A@@std@@@std@@IBEPAU_Node@?$_Tree_nod@V?$_Tmap_traits@HUMYLIST_COLUMN_INFO@@U?$less@H@std@@V?$allocator@U?$pair@$$CBHUMYLIST_COLUMN_INFO@@@std@@@3@$0A@@std@@@2@ABH@Z ; std::_Tree<std::_Tmap_traits<int,MYLIST_COLUMN_INFO,std::less<int>,std::allocator<std::pair<int const ,MYLIST_COLUMN_INFO> >,0> >::_Lbound
; Function compile flags: /Odt /RTCsu
;	COMDAT ?lower_bound@?$_Tree@V?$_Tmap_traits@HUMYLIST_COLUMN_INFO@@U?$less@H@std@@V?$allocator@U?$pair@$$CBHUMYLIST_COLUMN_INFO@@@std@@@3@$0A@@std@@@std@@QAE?AViterator@12@ABH@Z
_TEXT	SEGMENT
_this$ = -4						; size = 4
___$ReturnUdt$ = 8					; size = 4
__Keyval$ = 12						; size = 4
?lower_bound@?$_Tree@V?$_Tmap_traits@HUMYLIST_COLUMN_INFO@@U?$less@H@std@@V?$allocator@U?$pair@$$CBHUMYLIST_COLUMN_INFO@@@std@@@3@$0A@@std@@@std@@QAE?AViterator@12@ABH@Z PROC NEAR ; std::_Tree<std::_Tmap_traits<int,MYLIST_COLUMN_INFO,std::less<int>,std::allocator<std::pair<int const ,MYLIST_COLUMN_INFO> >,0> >::lower_bound, COMDAT
; _this$ = ecx

; 809  : 		{	// find leftmost node not less than _Keyval in mutable tree

  00000	55		 push	 ebp
  00001	8b ec		 mov	 ebp, esp
  00003	51		 push	 ecx
  00004	c7 45 fc cc cc
	cc cc		 mov	 DWORD PTR [ebp-4], -858993460 ; ccccccccH
  0000b	89 4d fc	 mov	 DWORD PTR _this$[ebp], ecx

; 810  : 		return (_TREE_ITERATOR(_Lbound(_Keyval)));

  0000e	8b 45 0c	 mov	 eax, DWORD PTR __Keyval$[ebp]
  00011	50		 push	 eax
  00012	8b 4d fc	 mov	 ecx, DWORD PTR _this$[ebp]
  00015	e8 00 00 00 00	 call	 ?_Lbound@?$_Tree@V?$_Tmap_traits@HUMYLIST_COLUMN_INFO@@U?$less@H@std@@V?$allocator@U?$pair@$$CBHUMYLIST_COLUMN_INFO@@@std@@@3@$0A@@std@@@std@@IBEPAU_Node@?$_Tree_nod@V?$_Tmap_traits@HUMYLIST_COLUMN_INFO@@U?$less@H@std@@V?$allocator@U?$pair@$$CBHUMYLIST_COLUMN_INFO@@@std@@@3@$0A@@std@@@2@ABH@Z ; std::_Tree<std::_Tmap_traits<int,MYLIST_COLUMN_INFO,std::less<int>,std::allocator<std::pair<int const ,MYLIST_COLUMN_INFO> >,0> >::_Lbound
  0001a	50		 push	 eax
  0001b	8b 4d 08	 mov	 ecx, DWORD PTR ___$ReturnUdt$[ebp]
  0001e	e8 00 00 00 00	 call	 ??0iterator@?$_Tree@V?$_Tmap_traits@HUMYLIST_COLUMN_INFO@@U?$less@H@std@@V?$allocator@U?$pair@$$CBHUMYLIST_COLUMN_INFO@@@std@@@3@$0A@@std@@@std@@QAE@PAU_Node@?$_Tree_nod@V?$_Tmap_traits@HUMYLIST_COLUMN_INFO@@U?$less@H@std@@V?$allocator@U?$pair@$$CBHUMYLIST_COLUMN_INFO@@@std@@@3@$0A@@std@@@2@@Z ; std::_Tree<std::_Tmap_traits<int,MYLIST_COLUMN_INFO,std::less<int>,std::allocator<std::pair<int const ,MYLIST_COLUMN_INFO> >,0> >::iterator::iterator
  00023	8b 45 08	 mov	 eax, DWORD PTR ___$ReturnUdt$[ebp]

; 811  : 		}

  00026	83 c4 04	 add	 esp, 4
  00029	3b ec		 cmp	 ebp, esp
  0002b	e8 00 00 00 00	 call	 __RTC_CheckEsp
  00030	8b e5		 mov	 esp, ebp
  00032	5d		 pop	 ebp
  00033	c2 08 00	 ret	 8
?lower_bound@?$_Tree@V?$_Tmap_traits@HUMYLIST_COLUMN_INFO@@U?$less@H@std@@V?$allocator@U?$pair@$$CBHUMYLIST_COLUMN_INFO@@@std@@@3@$0A@@std@@@std@@QAE?AViterator@12@ABH@Z ENDP ; std::_Tree<std::_Tmap_traits<int,MYLIST_COLUMN_INFO,std::less<int>,std::allocator<std::pair<int const ,MYLIST_COLUMN_INFO> >,0> >::lower_bound
_TEXT	ENDS
PUBLIC	?_Left@?$_Tree@V?$_Tmap_traits@HUMYLIST_COLUMN_INFO@@U?$less@H@std@@V?$allocator@U?$pair@$$CBHUMYLIST_COLUMN_INFO@@@std@@@3@$0A@@std@@@std@@KAAAPAU_Node@?$_Tree_nod@V?$_Tmap_traits@HUMYLIST_COLUMN_INFO@@U?$less@H@std@@V?$allocator@U?$pair@$$CBHUMYLIST_COLUMN_INFO@@@std@@@3@$0A@@std@@@2@PAU342@@Z ; std::_Tree<std::_Tmap_traits<int,MYLIST_COLUMN_INFO,std::less<int>,std::allocator<std::pair<int const ,MYLIST_COLUMN_INFO> >,0> >::_Left
PUBLIC	?deallocate@?$allocator@U_Node@?$_Tree_nod@V?$_Tmap_traits@HUMYLIST_COLUMN_INFO@@U?$less@H@std@@V?$allocator@U?$pair@$$CBHUMYLIST_COLUMN_INFO@@@std@@@3@$0A@@std@@@std@@@std@@QAEXPAU_Node@?$_Tree_nod@V?$_Tmap_traits@HUMYLIST_COLUMN_INFO@@U?$less@H@std@@V?$allocator@U?$pair@$$CBHUMYLIST_COLUMN_INFO@@@std@@@3@$0A@@std@@@2@I@Z ; std::allocator<std::_Tree_nod<std::_Tmap_traits<int,MYLIST_COLUMN_INFO,std::less<int>,std::allocator<std::pair<int const ,MYLIST_COLUMN_INFO> >,0> >::_Node>::deallocate
PUBLIC	?destroy@?$allocator@U_Node@?$_Tree_nod@V?$_Tmap_traits@HUMYLIST_COLUMN_INFO@@U?$less@H@std@@V?$allocator@U?$pair@$$CBHUMYLIST_COLUMN_INFO@@@std@@@3@$0A@@std@@@std@@@std@@QAEXPAU_Node@?$_Tree_nod@V?$_Tmap_traits@HUMYLIST_COLUMN_INFO@@U?$less@H@std@@V?$allocator@U?$pair@$$CBHUMYLIST_COLUMN_INFO@@@std@@@3@$0A@@std@@@2@@Z ; std::allocator<std::_Tree_nod<std::_Tmap_traits<int,MYLIST_COLUMN_INFO,std::less<int>,std::allocator<std::pair<int const ,MYLIST_COLUMN_INFO> >,0> >::_Node>::destroy
; Function compile flags: /Odt /RTCsu
;	COMDAT ?_Erase@?$_Tree@V?$_Tmap_traits@HUMYLIST_COLUMN_INFO@@U?$less@H@std@@V?$allocator@U?$pair@$$CBHUMYLIST_COLUMN_INFO@@@std@@@3@$0A@@std@@@std@@IAEXPAU_Node@?$_Tree_nod@V?$_Tmap_traits@HUMYLIST_COLUMN_INFO@@U?$less@H@std@@V?$allocator@U?$pair@$$CBHUMYLIST_COLUMN_INFO@@@std@@@3@$0A@@std@@@2@@Z
_TEXT	SEGMENT
__Pnode$190374 = -8					; size = 4
_this$ = -4						; size = 4
__Rootnode$ = 8						; size = 4
?_Erase@?$_Tree@V?$_Tmap_traits@HUMYLIST_COLUMN_INFO@@U?$less@H@std@@V?$allocator@U?$pair@$$CBHUMYLIST_COLUMN_INFO@@@std@@@3@$0A@@std@@@std@@IAEXPAU_Node@?$_Tree_nod@V?$_Tmap_traits@HUMYLIST_COLUMN_INFO@@U?$less@H@std@@V?$allocator@U?$pair@$$CBHUMYLIST_COLUMN_INFO@@@std@@@3@$0A@@std@@@2@@Z PROC NEAR ; std::_Tree<std::_Tmap_traits<int,MYLIST_COLUMN_INFO,std::less<int>,std::allocator<std::pair<int const ,MYLIST_COLUMN_INFO> >,0> >::_Erase, COMDAT
; _this$ = ecx

; 890  : 		{	// free entire subtree, recursively

  00000	55		 push	 ebp
  00001	8b ec		 mov	 ebp, esp
  00003	83 ec 08	 sub	 esp, 8
  00006	c7 45 f8 cc cc
	cc cc		 mov	 DWORD PTR [ebp-8], -858993460 ; ccccccccH
  0000d	c7 45 fc cc cc
	cc cc		 mov	 DWORD PTR [ebp-4], -858993460 ; ccccccccH
  00014	89 4d fc	 mov	 DWORD PTR _this$[ebp], ecx

; 891  : 		for (_Nodeptr _Pnode = _Rootnode; !_Isnil(_Pnode); _Rootnode = _Pnode)

  00017	8b 45 08	 mov	 eax, DWORD PTR __Rootnode$[ebp]
  0001a	89 45 f8	 mov	 DWORD PTR __Pnode$190374[ebp], eax
  0001d	eb 06		 jmp	 SHORT $L190375
$L190376:
  0001f	8b 4d f8	 mov	 ecx, DWORD PTR __Pnode$190374[ebp]
  00022	89 4d 08	 mov	 DWORD PTR __Rootnode$[ebp], ecx
$L190375:
  00025	8b 55 f8	 mov	 edx, DWORD PTR __Pnode$190374[ebp]
  00028	52		 push	 edx
  00029	e8 00 00 00 00	 call	 ?_Isnil@?$_Tree@V?$_Tmap_traits@HUMYLIST_COLUMN_INFO@@U?$less@H@std@@V?$allocator@U?$pair@$$CBHUMYLIST_COLUMN_INFO@@@std@@@3@$0A@@std@@@std@@KAAADPAU_Node@?$_Tree_nod@V?$_Tmap_traits@HUMYLIST_COLUMN_INFO@@U?$less@H@std@@V?$allocator@U?$pair@$$CBHUMYLIST_COLUMN_INFO@@@std@@@3@$0A@@std@@@2@@Z ; std::_Tree<std::_Tmap_traits<int,MYLIST_COLUMN_INFO,std::less<int>,std::allocator<std::pair<int const ,MYLIST_COLUMN_INFO> >,0> >::_Isnil
  0002e	83 c4 04	 add	 esp, 4
  00031	0f be 00	 movsx	 eax, BYTE PTR [eax]
  00034	85 c0		 test	 eax, eax
  00036	75 4a		 jne	 SHORT $L190373

; 892  : 			{	// free subtrees, then node
; 893  : 			_Erase(_Right(_Pnode));

  00038	8b 4d f8	 mov	 ecx, DWORD PTR __Pnode$190374[ebp]
  0003b	51		 push	 ecx
  0003c	e8 00 00 00 00	 call	 ?_Right@?$_Tree@V?$_Tmap_traits@HUMYLIST_COLUMN_INFO@@U?$less@H@std@@V?$allocator@U?$pair@$$CBHUMYLIST_COLUMN_INFO@@@std@@@3@$0A@@std@@@std@@KAAAPAU_Node@?$_Tree_nod@V?$_Tmap_traits@HUMYLIST_COLUMN_INFO@@U?$less@H@std@@V?$allocator@U?$pair@$$CBHUMYLIST_COLUMN_INFO@@@std@@@3@$0A@@std@@@2@PAU342@@Z ; std::_Tree<std::_Tmap_traits<int,MYLIST_COLUMN_INFO,std::less<int>,std::allocator<std::pair<int const ,MYLIST_COLUMN_INFO> >,0> >::_Right
  00041	83 c4 04	 add	 esp, 4
  00044	8b 10		 mov	 edx, DWORD PTR [eax]
  00046	52		 push	 edx
  00047	8b 4d fc	 mov	 ecx, DWORD PTR _this$[ebp]
  0004a	e8 00 00 00 00	 call	 ?_Erase@?$_Tree@V?$_Tmap_traits@HUMYLIST_COLUMN_INFO@@U?$less@H@std@@V?$allocator@U?$pair@$$CBHUMYLIST_COLUMN_INFO@@@std@@@3@$0A@@std@@@std@@IAEXPAU_Node@?$_Tree_nod@V?$_Tmap_traits@HUMYLIST_COLUMN_INFO@@U?$less@H@std@@V?$allocator@U?$pair@$$CBHUMYLIST_COLUMN_INFO@@@std@@@3@$0A@@std@@@2@@Z ; std::_Tree<std::_Tmap_traits<int,MYLIST_COLUMN_INFO,std::less<int>,std::allocator<std::pair<int const ,MYLIST_COLUMN_INFO> >,0> >::_Erase

; 894  : 			_Pnode = _Left(_Pnode);

  0004f	8b 45 f8	 mov	 eax, DWORD PTR __Pnode$190374[ebp]
  00052	50		 push	 eax
  00053	e8 00 00 00 00	 call	 ?_Left@?$_Tree@V?$_Tmap_traits@HUMYLIST_COLUMN_INFO@@U?$less@H@std@@V?$allocator@U?$pair@$$CBHUMYLIST_COLUMN_INFO@@@std@@@3@$0A@@std@@@std@@KAAAPAU_Node@?$_Tree_nod@V?$_Tmap_traits@HUMYLIST_COLUMN_INFO@@U?$less@H@std@@V?$allocator@U?$pair@$$CBHUMYLIST_COLUMN_INFO@@@std@@@3@$0A@@std@@@2@PAU342@@Z ; std::_Tree<std::_Tmap_traits<int,MYLIST_COLUMN_INFO,std::less<int>,std::allocator<std::pair<int const ,MYLIST_COLUMN_INFO> >,0> >::_Left
  00058	83 c4 04	 add	 esp, 4
  0005b	8b 08		 mov	 ecx, DWORD PTR [eax]
  0005d	89 4d f8	 mov	 DWORD PTR __Pnode$190374[ebp], ecx

; 895  : 			this->_Alnod.destroy(_Rootnode);	// destroy, free erased node

  00060	8b 55 08	 mov	 edx, DWORD PTR __Rootnode$[ebp]
  00063	52		 push	 edx
  00064	8b 4d fc	 mov	 ecx, DWORD PTR _this$[ebp]
  00067	83 c1 01	 add	 ecx, 1
  0006a	e8 00 00 00 00	 call	 ?destroy@?$allocator@U_Node@?$_Tree_nod@V?$_Tmap_traits@HUMYLIST_COLUMN_INFO@@U?$less@H@std@@V?$allocator@U?$pair@$$CBHUMYLIST_COLUMN_INFO@@@std@@@3@$0A@@std@@@std@@@std@@QAEXPAU_Node@?$_Tree_nod@V?$_Tmap_traits@HUMYLIST_COLUMN_INFO@@U?$less@H@std@@V?$allocator@U?$pair@$$CBHUMYLIST_COLUMN_INFO@@@std@@@3@$0A@@std@@@2@@Z ; std::allocator<std::_Tree_nod<std::_Tmap_traits<int,MYLIST_COLUMN_INFO,std::less<int>,std::allocator<std::pair<int const ,MYLIST_COLUMN_INFO> >,0> >::_Node>::destroy

; 896  : 			this->_Alnod.deallocate(_Rootnode, 1);

  0006f	6a 01		 push	 1
  00071	8b 45 08	 mov	 eax, DWORD PTR __Rootnode$[ebp]
  00074	50		 push	 eax
  00075	8b 4d fc	 mov	 ecx, DWORD PTR _this$[ebp]
  00078	83 c1 01	 add	 ecx, 1
  0007b	e8 00 00 00 00	 call	 ?deallocate@?$allocator@U_Node@?$_Tree_nod@V?$_Tmap_traits@HUMYLIST_COLUMN_INFO@@U?$less@H@std@@V?$allocator@U?$pair@$$CBHUMYLIST_COLUMN_INFO@@@std@@@3@$0A@@std@@@std@@@std@@QAEXPAU_Node@?$_Tree_nod@V?$_Tmap_traits@HUMYLIST_COLUMN_INFO@@U?$less@H@std@@V?$allocator@U?$pair@$$CBHUMYLIST_COLUMN_INFO@@@std@@@3@$0A@@std@@@2@I@Z ; std::allocator<std::_Tree_nod<std::_Tmap_traits<int,MYLIST_COLUMN_INFO,std::less<int>,std::allocator<std::pair<int const ,MYLIST_COLUMN_INFO> >,0> >::_Node>::deallocate

; 897  : 			}

  00080	eb 9d		 jmp	 SHORT $L190376
$L190373:

; 898  : 		}

  00082	83 c4 08	 add	 esp, 8
  00085	3b ec		 cmp	 ebp, esp
  00087	e8 00 00 00 00	 call	 __RTC_CheckEsp
  0008c	8b e5		 mov	 esp, ebp
  0008e	5d		 pop	 ebp
  0008f	c2 04 00	 ret	 4
?_Erase@?$_Tree@V?$_Tmap_traits@HUMYLIST_COLUMN_INFO@@U?$less@H@std@@V?$allocator@U?$pair@$$CBHUMYLIST_COLUMN_INFO@@@std@@@3@$0A@@std@@@std@@IAEXPAU_Node@?$_Tree_nod@V?$_Tmap_traits@HUMYLIST_COLUMN_INFO@@U?$less@H@std@@V?$allocator@U?$pair@$$CBHUMYLIST_COLUMN_INFO@@@std@@@3@$0A@@std@@@2@@Z ENDP ; std::_Tree<std::_Tmap_traits<int,MYLIST_COLUMN_INFO,std::less<int>,std::allocator<std::pair<int const ,MYLIST_COLUMN_INFO> >,0> >::_Erase
; Function compile flags: /Odt /RTCsu
_TEXT	ENDS
;	COMDAT ?_Lmost@?$_Tree@V?$_Tmap_traits@HUMYLIST_COLUMN_INFO@@U?$less@H@std@@V?$allocator@U?$pair@$$CBHUMYLIST_COLUMN_INFO@@@std@@@3@$0A@@std@@@std@@IAEAAPAU_Node@?$_Tree_nod@V?$_Tmap_traits@HUMYLIST_COLUMN_INFO@@U?$less@H@std@@V?$allocator@U?$pair@$$CBHUMYLIST_COLUMN_INFO@@@std@@@3@$0A@@std@@@2@XZ
_TEXT	SEGMENT
_this$ = -4						; size = 4
?_Lmost@?$_Tree@V?$_Tmap_traits@HUMYLIST_COLUMN_INFO@@U?$less@H@std@@V?$allocator@U?$pair@$$CBHUMYLIST_COLUMN_INFO@@@std@@@3@$0A@@std@@@std@@IAEAAPAU_Node@?$_Tree_nod@V?$_Tmap_traits@HUMYLIST_COLUMN_INFO@@U?$less@H@std@@V?$allocator@U?$pair@$$CBHUMYLIST_COLUMN_INFO@@@std@@@3@$0A@@std@@@2@XZ PROC NEAR ; std::_Tree<std::_Tmap_traits<int,MYLIST_COLUMN_INFO,std::less<int>,std::allocator<std::pair<int const ,MYLIST_COLUMN_INFO> >,0> >::_Lmost, COMDAT
; _this$ = ecx

; 1004 : 		{	// return leftmost node in mutable tree

  00000	55		 push	 ebp
  00001	8b ec		 mov	 ebp, esp
  00003	51		 push	 ecx
  00004	c7 45 fc cc cc
	cc cc		 mov	 DWORD PTR [ebp-4], -858993460 ; ccccccccH
  0000b	89 4d fc	 mov	 DWORD PTR _this$[ebp], ecx

; 1005 : 		return (_Left(_Myhead));

  0000e	8b 45 fc	 mov	 eax, DWORD PTR _this$[ebp]
  00011	8b 48 04	 mov	 ecx, DWORD PTR [eax+4]
  00014	51		 push	 ecx
  00015	e8 00 00 00 00	 call	 ?_Left@?$_Tree@V?$_Tmap_traits@HUMYLIST_COLUMN_INFO@@U?$less@H@std@@V?$allocator@U?$pair@$$CBHUMYLIST_COLUMN_INFO@@@std@@@3@$0A@@std@@@std@@KAAAPAU_Node@?$_Tree_nod@V?$_Tmap_traits@HUMYLIST_COLUMN_INFO@@U?$less@H@std@@V?$allocator@U?$pair@$$CBHUMYLIST_COLUMN_INFO@@@std@@@3@$0A@@std@@@2@PAU342@@Z ; std::_Tree<std::_Tmap_traits<int,MYLIST_COLUMN_INFO,std::less<int>,std::allocator<std::pair<int const ,MYLIST_COLUMN_INFO> >,0> >::_Left
  0001a	83 c4 04	 add	 esp, 4

; 1006 : 		}

  0001d	83 c4 04	 add	 esp, 4
  00020	3b ec		 cmp	 ebp, esp
  00022	e8 00 00 00 00	 call	 __RTC_CheckEsp
  00027	8b e5		 mov	 esp, ebp
  00029	5d		 pop	 ebp
  0002a	c3		 ret	 0
?_Lmost@?$_Tree@V?$_Tmap_traits@HUMYLIST_COLUMN_INFO@@U?$less@H@std@@V?$allocator@U?$pair@$$CBHUMYLIST_COLUMN_INFO@@@std@@@3@$0A@@std@@@std@@IAEAAPAU_Node@?$_Tree_nod@V?$_Tmap_traits@HUMYLIST_COLUMN_INFO@@U?$less@H@std@@V?$allocator@U?$pair@$$CBHUMYLIST_COLUMN_INFO@@@std@@@3@$0A@@std@@@2@XZ ENDP ; std::_Tree<std::_Tmap_traits<int,MYLIST_COLUMN_INFO,std::less<int>,std::allocator<std::pair<int const ,MYLIST_COLUMN_INFO> >,0> >::_Lmost
; Function compile flags: /Odt /RTCsu
_TEXT	ENDS
;	COMDAT ?_Rmost@?$_Tree@V?$_Tmap_traits@HUMYLIST_COLUMN_INFO@@U?$less@H@std@@V?$allocator@U?$pair@$$CBHUMYLIST_COLUMN_INFO@@@std@@@3@$0A@@std@@@std@@IAEAAPAU_Node@?$_Tree_nod@V?$_Tmap_traits@HUMYLIST_COLUMN_INFO@@U?$less@H@std@@V?$allocator@U?$pair@$$CBHUMYLIST_COLUMN_INFO@@@std@@@3@$0A@@std@@@2@XZ
_TEXT	SEGMENT
_this$ = -4						; size = 4
?_Rmost@?$_Tree@V?$_Tmap_traits@HUMYLIST_COLUMN_INFO@@U?$less@H@std@@V?$allocator@U?$pair@$$CBHUMYLIST_COLUMN_INFO@@@std@@@3@$0A@@std@@@std@@IAEAAPAU_Node@?$_Tree_nod@V?$_Tmap_traits@HUMYLIST_COLUMN_INFO@@U?$less@H@std@@V?$allocator@U?$pair@$$CBHUMYLIST_COLUMN_INFO@@@std@@@3@$0A@@std@@@2@XZ PROC NEAR ; std::_Tree<std::_Tmap_traits<int,MYLIST_COLUMN_INFO,std::less<int>,std::allocator<std::pair<int const ,MYLIST_COLUMN_INFO> >,0> >::_Rmost, COMDAT
; _this$ = ecx

; 1048 : 		{	// return rightmost node in mutable tree

  00000	55		 push	 ebp
  00001	8b ec		 mov	 ebp, esp
  00003	51		 push	 ecx
  00004	c7 45 fc cc cc
	cc cc		 mov	 DWORD PTR [ebp-4], -858993460 ; ccccccccH
  0000b	89 4d fc	 mov	 DWORD PTR _this$[ebp], ecx

; 1049 : 		return (_Right(_Myhead));

  0000e	8b 45 fc	 mov	 eax, DWORD PTR _this$[ebp]
  00011	8b 48 04	 mov	 ecx, DWORD PTR [eax+4]
  00014	51		 push	 ecx
  00015	e8 00 00 00 00	 call	 ?_Right@?$_Tree@V?$_Tmap_traits@HUMYLIST_COLUMN_INFO@@U?$less@H@std@@V?$allocator@U?$pair@$$CBHUMYLIST_COLUMN_INFO@@@std@@@3@$0A@@std@@@std@@KAAAPAU_Node@?$_Tree_nod@V?$_Tmap_traits@HUMYLIST_COLUMN_INFO@@U?$less@H@std@@V?$allocator@U?$pair@$$CBHUMYLIST_COLUMN_INFO@@@std@@@3@$0A@@std@@@2@PAU342@@Z ; std::_Tree<std::_Tmap_traits<int,MYLIST_COLUMN_INFO,std::less<int>,std::allocator<std::pair<int const ,MYLIST_COLUMN_INFO> >,0> >::_Right
  0001a	83 c4 04	 add	 esp, 4

; 1050 : 		}

  0001d	83 c4 04	 add	 esp, 4
  00020	3b ec		 cmp	 ebp, esp
  00022	e8 00 00 00 00	 call	 __RTC_CheckEsp
  00027	8b e5		 mov	 esp, ebp
  00029	5d		 pop	 ebp
  0002a	c3		 ret	 0
?_Rmost@?$_Tree@V?$_Tmap_traits@HUMYLIST_COLUMN_INFO@@U?$less@H@std@@V?$allocator@U?$pair@$$CBHUMYLIST_COLUMN_INFO@@@std@@@3@$0A@@std@@@std@@IAEAAPAU_Node@?$_Tree_nod@V?$_Tmap_traits@HUMYLIST_COLUMN_INFO@@U?$less@H@std@@V?$allocator@U?$pair@$$CBHUMYLIST_COLUMN_INFO@@@std@@@3@$0A@@std@@@2@XZ ENDP ; std::_Tree<std::_Tmap_traits<int,MYLIST_COLUMN_INFO,std::less<int>,std::allocator<std::pair<int const ,MYLIST_COLUMN_INFO> >,0> >::_Rmost
_TEXT	ENDS
PUBLIC	?_Parent@?$_Tree@V?$_Tmap_traits@HUMYLIST_COLUMN_INFO@@U?$less@H@std@@V?$allocator@U?$pair@$$CBHUMYLIST_COLUMN_INFO@@@std@@@3@$0A@@std@@@std@@KAAAPAU_Node@?$_Tree_nod@V?$_Tmap_traits@HUMYLIST_COLUMN_INFO@@U?$less@H@std@@V?$allocator@U?$pair@$$CBHUMYLIST_COLUMN_INFO@@@std@@@3@$0A@@std@@@2@PAU342@@Z ; std::_Tree<std::_Tmap_traits<int,MYLIST_COLUMN_INFO,std::less<int>,std::allocator<std::pair<int const ,MYLIST_COLUMN_INFO> >,0> >::_Parent
; Function compile flags: /Odt /RTCsu
;	COMDAT ?_Root@?$_Tree@V?$_Tmap_traits@HUMYLIST_COLUMN_INFO@@U?$less@H@std@@V?$allocator@U?$pair@$$CBHUMYLIST_COLUMN_INFO@@@std@@@3@$0A@@std@@@std@@IAEAAPAU_Node@?$_Tree_nod@V?$_Tmap_traits@HUMYLIST_COLUMN_INFO@@U?$less@H@std@@V?$allocator@U?$pair@$$CBHUMYLIST_COLUMN_INFO@@@std@@@3@$0A@@std@@@2@XZ
_TEXT	SEGMENT
_this$ = -4						; size = 4
?_Root@?$_Tree@V?$_Tmap_traits@HUMYLIST_COLUMN_INFO@@U?$less@H@std@@V?$allocator@U?$pair@$$CBHUMYLIST_COLUMN_INFO@@@std@@@3@$0A@@std@@@std@@IAEAAPAU_Node@?$_Tree_nod@V?$_Tmap_traits@HUMYLIST_COLUMN_INFO@@U?$less@H@std@@V?$allocator@U?$pair@$$CBHUMYLIST_COLUMN_INFO@@@std@@@3@$0A@@std@@@2@XZ PROC NEAR ; std::_Tree<std::_Tmap_traits<int,MYLIST_COLUMN_INFO,std::less<int>,std::allocator<std::pair<int const ,MYLIST_COLUMN_INFO> >,0> >::_Root, COMDAT
; _this$ = ecx

; 1058 : 		{	// return root of mutable tree

  00000	55		 push	 ebp
  00001	8b ec		 mov	 ebp, esp
  00003	51		 push	 ecx
  00004	c7 45 fc cc cc
	cc cc		 mov	 DWORD PTR [ebp-4], -858993460 ; ccccccccH
  0000b	89 4d fc	 mov	 DWORD PTR _this$[ebp], ecx

; 1059 : 		return (_Parent(_Myhead));

  0000e	8b 45 fc	 mov	 eax, DWORD PTR _this$[ebp]
  00011	8b 48 04	 mov	 ecx, DWORD PTR [eax+4]
  00014	51		 push	 ecx
  00015	e8 00 00 00 00	 call	 ?_Parent@?$_Tree@V?$_Tmap_traits@HUMYLIST_COLUMN_INFO@@U?$less@H@std@@V?$allocator@U?$pair@$$CBHUMYLIST_COLUMN_INFO@@@std@@@3@$0A@@std@@@std@@KAAAPAU_Node@?$_Tree_nod@V?$_Tmap_traits@HUMYLIST_COLUMN_INFO@@U?$less@H@std@@V?$allocator@U?$pair@$$CBHUMYLIST_COLUMN_INFO@@@std@@@3@$0A@@std@@@2@PAU342@@Z ; std::_Tree<std::_Tmap_traits<int,MYLIST_COLUMN_INFO,std::less<int>,std::allocator<std::pair<int const ,MYLIST_COLUMN_INFO> >,0> >::_Parent
  0001a	83 c4 04	 add	 esp, 4

; 1060 : 		}

  0001d	83 c4 04	 add	 esp, 4
  00020	3b ec		 cmp	 ebp, esp
  00022	e8 00 00 00 00	 call	 __RTC_CheckEsp
  00027	8b e5		 mov	 esp, ebp
  00029	5d		 pop	 ebp
  0002a	c3		 ret	 0
?_Root@?$_Tree@V?$_Tmap_traits@HUMYLIST_COLUMN_INFO@@U?$less@H@std@@V?$allocator@U?$pair@$$CBHUMYLIST_COLUMN_INFO@@@std@@@3@$0A@@std@@@std@@IAEAAPAU_Node@?$_Tree_nod@V?$_Tmap_traits@HUMYLIST_COLUMN_INFO@@U?$less@H@std@@V?$allocator@U?$pair@$$CBHUMYLIST_COLUMN_INFO@@@std@@@3@$0A@@std@@@2@XZ ENDP ; std::_Tree<std::_Tmap_traits<int,MYLIST_COLUMN_INFO,std::less<int>,std::allocator<std::pair<int const ,MYLIST_COLUMN_INFO> >,0> >::_Root
_TEXT	ENDS
PUBLIC	?erase@?$_Tree@V?$_Tmap_traits@HUMYLIST_COLUMN_INFO@@U?$less@H@std@@V?$allocator@U?$pair@$$CBHUMYLIST_COLUMN_INFO@@@std@@@3@$0A@@std@@@std@@QAE?AViterator@12@V312@0@Z ; std::_Tree<std::_Tmap_traits<int,MYLIST_COLUMN_INFO,std::less<int>,std::allocator<std::pair<int const ,MYLIST_COLUMN_INFO> >,0> >::erase
PUBLIC	?destroy@?$allocator@PAU_Node@?$_Tree_nod@V?$_Tmap_traits@HUMYLIST_COLUMN_INFO@@U?$less@H@std@@V?$allocator@U?$pair@$$CBHUMYLIST_COLUMN_INFO@@@std@@@3@$0A@@std@@@std@@@std@@QAEXPAPAU_Node@?$_Tree_nod@V?$_Tmap_traits@HUMYLIST_COLUMN_INFO@@U?$less@H@std@@V?$allocator@U?$pair@$$CBHUMYLIST_COLUMN_INFO@@@std@@@3@$0A@@std@@@2@@Z ; std::allocator<std::_Tree_nod<std::_Tmap_traits<int,MYLIST_COLUMN_INFO,std::less<int>,std::allocator<std::pair<int const ,MYLIST_COLUMN_INFO> >,0> >::_Node *>::destroy
; Function compile flags: /Odt /RTCsu
;	COMDAT ?_Tidy@?$_Tree@V?$_Tmap_traits@HUMYLIST_COLUMN_INFO@@U?$less@H@std@@V?$allocator@U?$pair@$$CBHUMYLIST_COLUMN_INFO@@@std@@@3@$0A@@std@@@std@@IAEXXZ
_TEXT	SEGMENT
$T192051 = -16						; size = 4
$T192050 = -12						; size = 4
$T192049 = -8						; size = 4
_this$ = -4						; size = 4
?_Tidy@?$_Tree@V?$_Tmap_traits@HUMYLIST_COLUMN_INFO@@U?$less@H@std@@V?$allocator@U?$pair@$$CBHUMYLIST_COLUMN_INFO@@@std@@@3@$0A@@std@@@std@@IAEXXZ PROC NEAR ; std::_Tree<std::_Tmap_traits<int,MYLIST_COLUMN_INFO,std::less<int>,std::allocator<std::pair<int const ,MYLIST_COLUMN_INFO> >,0> >::_Tidy, COMDAT
; _this$ = ecx

; 1142 : 		{	// free all storage

  00000	55		 push	 ebp
  00001	8b ec		 mov	 ebp, esp
  00003	83 ec 10	 sub	 esp, 16			; 00000010H
  00006	b8 cc cc cc cc	 mov	 eax, -858993460		; ccccccccH
  0000b	89 45 f0	 mov	 DWORD PTR [ebp-16], eax
  0000e	89 45 f4	 mov	 DWORD PTR [ebp-12], eax
  00011	89 45 f8	 mov	 DWORD PTR [ebp-8], eax
  00014	89 45 fc	 mov	 DWORD PTR [ebp-4], eax
  00017	89 4d fc	 mov	 DWORD PTR _this$[ebp], ecx

; 1143 : 		erase(begin(), end());

  0001a	8d 45 f8	 lea	 eax, DWORD PTR $T192049[ebp]
  0001d	50		 push	 eax
  0001e	8b 4d fc	 mov	 ecx, DWORD PTR _this$[ebp]
  00021	e8 00 00 00 00	 call	 ?end@?$_Tree@V?$_Tmap_traits@HUMYLIST_COLUMN_INFO@@U?$less@H@std@@V?$allocator@U?$pair@$$CBHUMYLIST_COLUMN_INFO@@@std@@@3@$0A@@std@@@std@@QAE?AViterator@12@XZ ; std::_Tree<std::_Tmap_traits<int,MYLIST_COLUMN_INFO,std::less<int>,std::allocator<std::pair<int const ,MYLIST_COLUMN_INFO> >,0> >::end
  00026	8b 08		 mov	 ecx, DWORD PTR [eax]
  00028	51		 push	 ecx
  00029	8d 55 f4	 lea	 edx, DWORD PTR $T192050[ebp]
  0002c	52		 push	 edx
  0002d	8b 4d fc	 mov	 ecx, DWORD PTR _this$[ebp]
  00030	e8 00 00 00 00	 call	 ?begin@?$_Tree@V?$_Tmap_traits@HUMYLIST_COLUMN_INFO@@U?$less@H@std@@V?$allocator@U?$pair@$$CBHUMYLIST_COLUMN_INFO@@@std@@@3@$0A@@std@@@std@@QAE?AViterator@12@XZ ; std::_Tree<std::_Tmap_traits<int,MYLIST_COLUMN_INFO,std::less<int>,std::allocator<std::pair<int const ,MYLIST_COLUMN_INFO> >,0> >::begin
  00035	8b 00		 mov	 eax, DWORD PTR [eax]
  00037	50		 push	 eax
  00038	8d 4d f0	 lea	 ecx, DWORD PTR $T192051[ebp]
  0003b	51		 push	 ecx
  0003c	8b 4d fc	 mov	 ecx, DWORD PTR _this$[ebp]
  0003f	e8 00 00 00 00	 call	 ?erase@?$_Tree@V?$_Tmap_traits@HUMYLIST_COLUMN_INFO@@U?$less@H@std@@V?$allocator@U?$pair@$$CBHUMYLIST_COLUMN_INFO@@@std@@@3@$0A@@std@@@std@@QAE?AViterator@12@V312@0@Z ; std::_Tree<std::_Tmap_traits<int,MYLIST_COLUMN_INFO,std::less<int>,std::allocator<std::pair<int const ,MYLIST_COLUMN_INFO> >,0> >::erase

; 1144 : 		this->_Alptr.destroy(&_Left(_Myhead));

  00044	8b 55 fc	 mov	 edx, DWORD PTR _this$[ebp]
  00047	8b 42 04	 mov	 eax, DWORD PTR [edx+4]
  0004a	50		 push	 eax
  0004b	e8 00 00 00 00	 call	 ?_Left@?$_Tree@V?$_Tmap_traits@HUMYLIST_COLUMN_INFO@@U?$less@H@std@@V?$allocator@U?$pair@$$CBHUMYLIST_COLUMN_INFO@@@std@@@3@$0A@@std@@@std@@KAAAPAU_Node@?$_Tree_nod@V?$_Tmap_traits@HUMYLIST_COLUMN_INFO@@U?$less@H@std@@V?$allocator@U?$pair@$$CBHUMYLIST_COLUMN_INFO@@@std@@@3@$0A@@std@@@2@PAU342@@Z ; std::_Tree<std::_Tmap_traits<int,MYLIST_COLUMN_INFO,std::less<int>,std::allocator<std::pair<int const ,MYLIST_COLUMN_INFO> >,0> >::_Left
  00050	83 c4 04	 add	 esp, 4
  00053	50		 push	 eax
  00054	8b 4d fc	 mov	 ecx, DWORD PTR _this$[ebp]
  00057	83 c1 02	 add	 ecx, 2
  0005a	e8 00 00 00 00	 call	 ?destroy@?$allocator@PAU_Node@?$_Tree_nod@V?$_Tmap_traits@HUMYLIST_COLUMN_INFO@@U?$less@H@std@@V?$allocator@U?$pair@$$CBHUMYLIST_COLUMN_INFO@@@std@@@3@$0A@@std@@@std@@@std@@QAEXPAPAU_Node@?$_Tree_nod@V?$_Tmap_traits@HUMYLIST_COLUMN_INFO@@U?$less@H@std@@V?$allocator@U?$pair@$$CBHUMYLIST_COLUMN_INFO@@@std@@@3@$0A@@std@@@2@@Z ; std::allocator<std::_Tree_nod<std::_Tmap_traits<int,MYLIST_COLUMN_INFO,std::less<int>,std::allocator<std::pair<int const ,MYLIST_COLUMN_INFO> >,0> >::_Node *>::destroy

; 1145 : 		this->_Alptr.destroy(&_Parent(_Myhead));

  0005f	8b 4d fc	 mov	 ecx, DWORD PTR _this$[ebp]
  00062	8b 51 04	 mov	 edx, DWORD PTR [ecx+4]
  00065	52		 push	 edx
  00066	e8 00 00 00 00	 call	 ?_Parent@?$_Tree@V?$_Tmap_traits@HUMYLIST_COLUMN_INFO@@U?$less@H@std@@V?$allocator@U?$pair@$$CBHUMYLIST_COLUMN_INFO@@@std@@@3@$0A@@std@@@std@@KAAAPAU_Node@?$_Tree_nod@V?$_Tmap_traits@HUMYLIST_COLUMN_INFO@@U?$less@H@std@@V?$allocator@U?$pair@$$CBHUMYLIST_COLUMN_INFO@@@std@@@3@$0A@@std@@@2@PAU342@@Z ; std::_Tree<std::_Tmap_traits<int,MYLIST_COLUMN_INFO,std::less<int>,std::allocator<std::pair<int const ,MYLIST_COLUMN_INFO> >,0> >::_Parent
  0006b	83 c4 04	 add	 esp, 4
  0006e	50		 push	 eax
  0006f	8b 4d fc	 mov	 ecx, DWORD PTR _this$[ebp]
  00072	83 c1 02	 add	 ecx, 2
  00075	e8 00 00 00 00	 call	 ?destroy@?$allocator@PAU_Node@?$_Tree_nod@V?$_Tmap_traits@HUMYLIST_COLUMN_INFO@@U?$less@H@std@@V?$allocator@U?$pair@$$CBHUMYLIST_COLUMN_INFO@@@std@@@3@$0A@@std@@@std@@@std@@QAEXPAPAU_Node@?$_Tree_nod@V?$_Tmap_traits@HUMYLIST_COLUMN_INFO@@U?$less@H@std@@V?$allocator@U?$pair@$$CBHUMYLIST_COLUMN_INFO@@@std@@@3@$0A@@std@@@2@@Z ; std::allocator<std::_Tree_nod<std::_Tmap_traits<int,MYLIST_COLUMN_INFO,std::less<int>,std::allocator<std::pair<int const ,MYLIST_COLUMN_INFO> >,0> >::_Node *>::destroy

; 1146 : 		this->_Alptr.destroy(&_Right(_Myhead));

  0007a	8b 45 fc	 mov	 eax, DWORD PTR _this$[ebp]
  0007d	8b 48 04	 mov	 ecx, DWORD PTR [eax+4]
  00080	51		 push	 ecx
  00081	e8 00 00 00 00	 call	 ?_Right@?$_Tree@V?$_Tmap_traits@HUMYLIST_COLUMN_INFO@@U?$less@H@std@@V?$allocator@U?$pair@$$CBHUMYLIST_COLUMN_INFO@@@std@@@3@$0A@@std@@@std@@KAAAPAU_Node@?$_Tree_nod@V?$_Tmap_traits@HUMYLIST_COLUMN_INFO@@U?$less@H@std@@V?$allocator@U?$pair@$$CBHUMYLIST_COLUMN_INFO@@@std@@@3@$0A@@std@@@2@PAU342@@Z ; std::_Tree<std::_Tmap_traits<int,MYLIST_COLUMN_INFO,std::less<int>,std::allocator<std::pair<int const ,MYLIST_COLUMN_INFO> >,0> >::_Right
  00086	83 c4 04	 add	 esp, 4
  00089	50		 push	 eax
  0008a	8b 4d fc	 mov	 ecx, DWORD PTR _this$[ebp]
  0008d	83 c1 02	 add	 ecx, 2
  00090	e8 00 00 00 00	 call	 ?destroy@?$allocator@PAU_Node@?$_Tree_nod@V?$_Tmap_traits@HUMYLIST_COLUMN_INFO@@U?$less@H@std@@V?$allocator@U?$pair@$$CBHUMYLIST_COLUMN_INFO@@@std@@@3@$0A@@std@@@std@@@std@@QAEXPAPAU_Node@?$_Tree_nod@V?$_Tmap_traits@HUMYLIST_COLUMN_INFO@@U?$less@H@std@@V?$allocator@U?$pair@$$CBHUMYLIST_COLUMN_INFO@@@std@@@3@$0A@@std@@@2@@Z ; std::allocator<std::_Tree_nod<std::_Tmap_traits<int,MYLIST_COLUMN_INFO,std::less<int>,std::allocator<std::pair<int const ,MYLIST_COLUMN_INFO> >,0> >::_Node *>::destroy

; 1147 : 		this->_Alnod.deallocate(_Myhead, 1);

  00095	6a 01		 push	 1
  00097	8b 55 fc	 mov	 edx, DWORD PTR _this$[ebp]
  0009a	8b 42 04	 mov	 eax, DWORD PTR [edx+4]
  0009d	50		 push	 eax
  0009e	8b 4d fc	 mov	 ecx, DWORD PTR _this$[ebp]
  000a1	83 c1 01	 add	 ecx, 1
  000a4	e8 00 00 00 00	 call	 ?deallocate@?$allocator@U_Node@?$_Tree_nod@V?$_Tmap_traits@HUMYLIST_COLUMN_INFO@@U?$less@H@std@@V?$allocator@U?$pair@$$CBHUMYLIST_COLUMN_INFO@@@std@@@3@$0A@@std@@@std@@@std@@QAEXPAU_Node@?$_Tree_nod@V?$_Tmap_traits@HUMYLIST_COLUMN_INFO@@U?$less@H@std@@V?$allocator@U?$pair@$$CBHUMYLIST_COLUMN_INFO@@@std@@@3@$0A@@std@@@2@I@Z ; std::allocator<std::_Tree_nod<std::_Tmap_traits<int,MYLIST_COLUMN_INFO,std::less<int>,std::allocator<std::pair<int const ,MYLIST_COLUMN_INFO> >,0> >::_Node>::deallocate

; 1148 : 		_Myhead = 0, _Mysize = 0;

  000a9	8b 4d fc	 mov	 ecx, DWORD PTR _this$[ebp]
  000ac	c7 41 04 00 00
	00 00		 mov	 DWORD PTR [ecx+4], 0
  000b3	8b 55 fc	 mov	 edx, DWORD PTR _this$[ebp]
  000b6	c7 42 08 00 00
	00 00		 mov	 DWORD PTR [edx+8], 0

; 1149 : 		}

  000bd	83 c4 10	 add	 esp, 16			; 00000010H
  000c0	3b ec		 cmp	 ebp, esp
  000c2	e8 00 00 00 00	 call	 __RTC_CheckEsp
  000c7	8b e5		 mov	 esp, ebp
  000c9	5d		 pop	 ebp
  000ca	c3		 ret	 0
?_Tidy@?$_Tree@V?$_Tmap_traits@HUMYLIST_COLUMN_INFO@@U?$less@H@std@@V?$allocator@U?$pair@$$CBHUMYLIST_COLUMN_INFO@@@std@@@3@$0A@@std@@@std@@IAEXXZ ENDP ; std::_Tree<std::_Tmap_traits<int,MYLIST_COLUMN_INFO,std::less<int>,std::allocator<std::pair<int const ,MYLIST_COLUMN_INFO> >,0> >::_Tidy
; Function compile flags: /Odt /RTCsu
; File d:\program files (x86)\microsoft visual studio .net 2003\vc7\include\xmemory
_TEXT	ENDS
;	COMDAT ??0?$allocator@U?$pair@$$CBHUMYLIST_COLUMN_INFO@@@std@@@std@@QAE@XZ
_TEXT	SEGMENT
_this$ = -4						; size = 4
??0?$allocator@U?$pair@$$CBHUMYLIST_COLUMN_INFO@@@std@@@std@@QAE@XZ PROC NEAR ; std::allocator<std::pair<int const ,MYLIST_COLUMN_INFO> >::allocator<std::pair<int const ,MYLIST_COLUMN_INFO> >, COMDAT
; _this$ = ecx

; 111  : 	allocator()

  00000	55		 push	 ebp
  00001	8b ec		 mov	 ebp, esp
  00003	51		 push	 ecx
  00004	c7 45 fc cc cc
	cc cc		 mov	 DWORD PTR [ebp-4], -858993460 ; ccccccccH
  0000b	89 4d fc	 mov	 DWORD PTR _this$[ebp], ecx

; 112  : 		{	// construct default allocator (do nothing)
; 113  : 		}

  0000e	8b 45 fc	 mov	 eax, DWORD PTR _this$[ebp]
  00011	8b e5		 mov	 esp, ebp
  00013	5d		 pop	 ebp
  00014	c3		 ret	 0
??0?$allocator@U?$pair@$$CBHUMYLIST_COLUMN_INFO@@@std@@@std@@QAE@XZ ENDP ; std::allocator<std::pair<int const ,MYLIST_COLUMN_INFO> >::allocator<std::pair<int const ,MYLIST_COLUMN_INFO> >
; Function compile flags: /Odt /RTCsu
; File d:\program files (x86)\microsoft visual studio .net 2003\vc7\include\functional
_TEXT	ENDS
;	COMDAT ??R?$less@H@std@@QBE_NABH0@Z
_TEXT	SEGMENT
_this$ = -4						; size = 4
__Left$ = 8						; size = 4
__Right$ = 12						; size = 4
??R?$less@H@std@@QBE_NABH0@Z PROC NEAR			; std::less<int>::operator(), COMDAT
; _this$ = ecx

; 138  : 		{	// apply operator< to operands

  00000	55		 push	 ebp
  00001	8b ec		 mov	 ebp, esp
  00003	51		 push	 ecx
  00004	c7 45 fc cc cc
	cc cc		 mov	 DWORD PTR [ebp-4], -858993460 ; ccccccccH
  0000b	89 4d fc	 mov	 DWORD PTR _this$[ebp], ecx

; 139  : 		return (_Left < _Right);

  0000e	8b 45 08	 mov	 eax, DWORD PTR __Left$[ebp]
  00011	8b 4d 0c	 mov	 ecx, DWORD PTR __Right$[ebp]
  00014	8b 10		 mov	 edx, DWORD PTR [eax]
  00016	33 c0		 xor	 eax, eax
  00018	3b 11		 cmp	 edx, DWORD PTR [ecx]
  0001a	0f 9c c0	 setl	 al

; 140  : 		}

  0001d	8b e5		 mov	 esp, ebp
  0001f	5d		 pop	 ebp
  00020	c2 08 00	 ret	 8
??R?$less@H@std@@QBE_NABH0@Z ENDP			; std::less<int>::operator()
; Function compile flags: /Odt /RTCsu
; File d:\program files (x86)\microsoft visual studio .net 2003\vc7\include\xmemory
_TEXT	ENDS
;	COMDAT ??0?$allocator@H@std@@QAE@XZ
_TEXT	SEGMENT
_this$ = -4						; size = 4
??0?$allocator@H@std@@QAE@XZ PROC NEAR			; std::allocator<int>::allocator<int>, COMDAT
; _this$ = ecx

; 111  : 	allocator()

  00000	55		 push	 ebp
  00001	8b ec		 mov	 ebp, esp
  00003	51		 push	 ecx
  00004	c7 45 fc cc cc
	cc cc		 mov	 DWORD PTR [ebp-4], -858993460 ; ccccccccH
  0000b	89 4d fc	 mov	 DWORD PTR _this$[ebp], ecx

; 112  : 		{	// construct default allocator (do nothing)
; 113  : 		}

  0000e	8b 45 fc	 mov	 eax, DWORD PTR _this$[ebp]
  00011	8b e5		 mov	 esp, ebp
  00013	5d		 pop	 ebp
  00014	c3		 ret	 0
??0?$allocator@H@std@@QAE@XZ ENDP			; std::allocator<int>::allocator<int>
_TEXT	ENDS
PUBLIC	?allocate@?$allocator@H@std@@QAEPAHI@Z		; std::allocator<int>::allocate
PUBLIC	?max_size@?$vector@HV?$allocator@H@std@@@std@@QBEIXZ ; std::vector<int,std::allocator<int> >::max_size
PUBLIC	?_Xlen@?$vector@HV?$allocator@H@std@@@std@@IBEXXZ ; std::vector<int,std::allocator<int> >::_Xlen
; Function compile flags: /Odt /RTCsu
; File d:\program files (x86)\microsoft visual studio .net 2003\vc7\include\vector
;	COMDAT ?_Buy@?$vector@HV?$allocator@H@std@@@std@@IAE_NI@Z
_TEXT	SEGMENT
_this$ = -4						; size = 4
__Capacity$ = 8						; size = 4
?_Buy@?$vector@HV?$allocator@H@std@@@std@@IAE_NI@Z PROC NEAR ; std::vector<int,std::allocator<int> >::_Buy, COMDAT
; _this$ = ecx

; 770  : 		{	// allocate array with _Capacity elements

  00000	55		 push	 ebp
  00001	8b ec		 mov	 ebp, esp
  00003	51		 push	 ecx
  00004	c7 45 fc cc cc
	cc cc		 mov	 DWORD PTR [ebp-4], -858993460 ; ccccccccH
  0000b	89 4d fc	 mov	 DWORD PTR _this$[ebp], ecx

; 771  : 		_Myfirst = 0, _Mylast = 0, _Myend = 0;

  0000e	8b 45 fc	 mov	 eax, DWORD PTR _this$[ebp]
  00011	c7 40 04 00 00
	00 00		 mov	 DWORD PTR [eax+4], 0
  00018	8b 4d fc	 mov	 ecx, DWORD PTR _this$[ebp]
  0001b	c7 41 08 00 00
	00 00		 mov	 DWORD PTR [ecx+8], 0
  00022	8b 55 fc	 mov	 edx, DWORD PTR _this$[ebp]
  00025	c7 42 0c 00 00
	00 00		 mov	 DWORD PTR [edx+12], 0

; 772  : 		if (_Capacity == 0)

  0002c	83 7d 08 00	 cmp	 DWORD PTR __Capacity$[ebp], 0
  00030	75 04		 jne	 SHORT $L190397

; 773  : 			return (false);

  00032	32 c0		 xor	 al, al
  00034	eb 49		 jmp	 SHORT $L190396
$L190397:

; 774  : 		else if (max_size() < _Capacity)

  00036	8b 4d fc	 mov	 ecx, DWORD PTR _this$[ebp]
  00039	e8 00 00 00 00	 call	 ?max_size@?$vector@HV?$allocator@H@std@@@std@@QBEIXZ ; std::vector<int,std::allocator<int> >::max_size
  0003e	3b 45 08	 cmp	 eax, DWORD PTR __Capacity$[ebp]
  00041	73 0a		 jae	 SHORT $L190399

; 775  : 			_Xlen();	// result too long

  00043	8b 4d fc	 mov	 ecx, DWORD PTR _this$[ebp]
  00046	e8 00 00 00 00	 call	 ?_Xlen@?$vector@HV?$allocator@H@std@@@std@@IBEXXZ ; std::vector<int,std::allocator<int> >::_Xlen

; 776  : 		else

  0004b	eb 30		 jmp	 SHORT $L190398
$L190399:

; 777  : 			{	// nonempty array, allocate storage
; 778  : 			_Myfirst = this->_Alval.allocate(_Capacity);

  0004d	8b 45 08	 mov	 eax, DWORD PTR __Capacity$[ebp]
  00050	50		 push	 eax
  00051	8b 4d fc	 mov	 ecx, DWORD PTR _this$[ebp]
  00054	e8 00 00 00 00	 call	 ?allocate@?$allocator@H@std@@QAEPAHI@Z ; std::allocator<int>::allocate
  00059	8b 4d fc	 mov	 ecx, DWORD PTR _this$[ebp]
  0005c	89 41 04	 mov	 DWORD PTR [ecx+4], eax

; 779  : 			_Mylast = _Myfirst;

  0005f	8b 55 fc	 mov	 edx, DWORD PTR _this$[ebp]
  00062	8b 45 fc	 mov	 eax, DWORD PTR _this$[ebp]
  00065	8b 48 04	 mov	 ecx, DWORD PTR [eax+4]
  00068	89 4a 08	 mov	 DWORD PTR [edx+8], ecx

; 780  : 			_Myend = _Myfirst + _Capacity;

  0006b	8b 55 fc	 mov	 edx, DWORD PTR _this$[ebp]
  0006e	8b 42 04	 mov	 eax, DWORD PTR [edx+4]
  00071	8b 4d 08	 mov	 ecx, DWORD PTR __Capacity$[ebp]
  00074	8d 14 88	 lea	 edx, DWORD PTR [eax+ecx*4]
  00077	8b 45 fc	 mov	 eax, DWORD PTR _this$[ebp]
  0007a	89 50 0c	 mov	 DWORD PTR [eax+12], edx
$L190398:

; 781  : 			}
; 782  : 		return (true);

  0007d	b0 01		 mov	 al, 1
$L190396:

; 783  : 		}

  0007f	83 c4 04	 add	 esp, 4
  00082	3b ec		 cmp	 ebp, esp
  00084	e8 00 00 00 00	 call	 __RTC_CheckEsp
  00089	8b e5		 mov	 esp, ebp
  0008b	5d		 pop	 ebp
  0008c	c2 04 00	 ret	 4
?_Buy@?$vector@HV?$allocator@H@std@@@std@@IAE_NI@Z ENDP	; std::vector<int,std::allocator<int> >::_Buy
_TEXT	ENDS
PUBLIC	?deallocate@?$allocator@H@std@@QAEXPAHI@Z	; std::allocator<int>::deallocate
PUBLIC	?_Destroy@?$vector@HV?$allocator@H@std@@@std@@IAEXPAH0@Z ; std::vector<int,std::allocator<int> >::_Destroy
; Function compile flags: /Odt /RTCsu
;	COMDAT ?_Tidy@?$vector@HV?$allocator@H@std@@@std@@IAEXXZ
_TEXT	SEGMENT
_this$ = -4						; size = 4
?_Tidy@?$vector@HV?$allocator@H@std@@@std@@IAEXXZ PROC NEAR ; std::vector<int,std::allocator<int> >::_Tidy, COMDAT
; _this$ = ecx

; 791  : 		{	// free all storage

  00000	55		 push	 ebp
  00001	8b ec		 mov	 ebp, esp
  00003	51		 push	 ecx
  00004	c7 45 fc cc cc
	cc cc		 mov	 DWORD PTR [ebp-4], -858993460 ; ccccccccH
  0000b	89 4d fc	 mov	 DWORD PTR _this$[ebp], ecx

; 792  : 		if (_Myfirst != 0)

  0000e	8b 45 fc	 mov	 eax, DWORD PTR _this$[ebp]
  00011	83 78 04 00	 cmp	 DWORD PTR [eax+4], 0
  00015	74 35		 je	 SHORT $L190403

; 793  : 			{	// something to free, destroy and deallocate it
; 794  : 			_Destroy(_Myfirst, _Mylast);

  00017	8b 4d fc	 mov	 ecx, DWORD PTR _this$[ebp]
  0001a	8b 51 08	 mov	 edx, DWORD PTR [ecx+8]
  0001d	52		 push	 edx
  0001e	8b 45 fc	 mov	 eax, DWORD PTR _this$[ebp]
  00021	8b 48 04	 mov	 ecx, DWORD PTR [eax+4]
  00024	51		 push	 ecx
  00025	8b 4d fc	 mov	 ecx, DWORD PTR _this$[ebp]
  00028	e8 00 00 00 00	 call	 ?_Destroy@?$vector@HV?$allocator@H@std@@@std@@IAEXPAH0@Z ; std::vector<int,std::allocator<int> >::_Destroy

; 795  : 			this->_Alval.deallocate(_Myfirst, _Myend - _Myfirst);

  0002d	8b 55 fc	 mov	 edx, DWORD PTR _this$[ebp]
  00030	8b 45 fc	 mov	 eax, DWORD PTR _this$[ebp]
  00033	8b 4a 0c	 mov	 ecx, DWORD PTR [edx+12]
  00036	2b 48 04	 sub	 ecx, DWORD PTR [eax+4]
  00039	c1 f9 02	 sar	 ecx, 2
  0003c	51		 push	 ecx
  0003d	8b 55 fc	 mov	 edx, DWORD PTR _this$[ebp]
  00040	8b 42 04	 mov	 eax, DWORD PTR [edx+4]
  00043	50		 push	 eax
  00044	8b 4d fc	 mov	 ecx, DWORD PTR _this$[ebp]
  00047	e8 00 00 00 00	 call	 ?deallocate@?$allocator@H@std@@QAEXPAHI@Z ; std::allocator<int>::deallocate
$L190403:

; 796  : 			}
; 797  : 		_Myfirst = 0, _Mylast = 0, _Myend = 0;

  0004c	8b 4d fc	 mov	 ecx, DWORD PTR _this$[ebp]
  0004f	c7 41 04 00 00
	00 00		 mov	 DWORD PTR [ecx+4], 0
  00056	8b 55 fc	 mov	 edx, DWORD PTR _this$[ebp]
  00059	c7 42 08 00 00
	00 00		 mov	 DWORD PTR [edx+8], 0
  00060	8b 45 fc	 mov	 eax, DWORD PTR _this$[ebp]
  00063	c7 40 0c 00 00
	00 00		 mov	 DWORD PTR [eax+12], 0

; 798  : 		}

  0006a	83 c4 04	 add	 esp, 4
  0006d	3b ec		 cmp	 ebp, esp
  0006f	e8 00 00 00 00	 call	 __RTC_CheckEsp
  00074	8b e5		 mov	 esp, ebp
  00076	5d		 pop	 ebp
  00077	c3		 ret	 0
?_Tidy@?$vector@HV?$allocator@H@std@@@std@@IAEXXZ ENDP	; std::vector<int,std::allocator<int> >::_Tidy
_TEXT	ENDS
PUBLIC	??0?$allocator@H@std@@QAE@ABV01@@Z		; std::allocator<int>::allocator<int>
; Function compile flags: /Odt /RTCsu
;	COMDAT ??0?$_Vector_val@HV?$allocator@H@std@@@std@@IAE@V?$allocator@H@1@@Z
_TEXT	SEGMENT
_this$ = -4						; size = 4
__Al$ = 8						; size = 1
??0?$_Vector_val@HV?$allocator@H@std@@@std@@IAE@V?$allocator@H@1@@Z PROC NEAR ; std::_Vector_val<int,std::allocator<int> >::_Vector_val<int,std::allocator<int> >, COMDAT
; _this$ = ecx

; 21   : 		{	// construct allocator from _Al

  00000	55		 push	 ebp
  00001	8b ec		 mov	 ebp, esp
  00003	51		 push	 ecx
  00004	c7 45 fc cc cc
	cc cc		 mov	 DWORD PTR [ebp-4], -858993460 ; ccccccccH
  0000b	89 4d fc	 mov	 DWORD PTR _this$[ebp], ecx
  0000e	8d 45 08	 lea	 eax, DWORD PTR __Al$[ebp]
  00011	50		 push	 eax
  00012	8b 4d fc	 mov	 ecx, DWORD PTR _this$[ebp]
  00015	e8 00 00 00 00	 call	 ??0?$allocator@H@std@@QAE@ABV01@@Z ; std::allocator<int>::allocator<int>

; 22   : 		}

  0001a	8b 45 fc	 mov	 eax, DWORD PTR _this$[ebp]
  0001d	83 c4 04	 add	 esp, 4
  00020	3b ec		 cmp	 ebp, esp
  00022	e8 00 00 00 00	 call	 __RTC_CheckEsp
  00027	8b e5		 mov	 esp, ebp
  00029	5d		 pop	 ebp
  0002a	c2 04 00	 ret	 4
??0?$_Vector_val@HV?$allocator@H@std@@@std@@IAE@V?$allocator@H@1@@Z ENDP ; std::_Vector_val<int,std::allocator<int> >::_Vector_val<int,std::allocator<int> >
_TEXT	ENDS
PUBLIC	??0const_iterator@?$vector@UMYLIST_COLUMN_INFO@@V?$allocator@UMYLIST_COLUMN_INFO@@@std@@@std@@QAE@PAUMYLIST_COLUMN_INFO@@@Z ; std::vector<MYLIST_COLUMN_INFO,std::allocator<MYLIST_COLUMN_INFO> >::const_iterator::const_iterator
; Function compile flags: /Odt /RTCsu
;	COMDAT ?begin@?$vector@UMYLIST_COLUMN_INFO@@V?$allocator@UMYLIST_COLUMN_INFO@@@std@@@std@@QBE?AVconst_iterator@12@XZ
_TEXT	SEGMENT
_this$ = -4						; size = 4
___$ReturnUdt$ = 8					; size = 4
?begin@?$vector@UMYLIST_COLUMN_INFO@@V?$allocator@UMYLIST_COLUMN_INFO@@@std@@@std@@QBE?AVconst_iterator@12@XZ PROC NEAR ; std::vector<MYLIST_COLUMN_INFO,std::allocator<MYLIST_COLUMN_INFO> >::begin, COMDAT
; _this$ = ecx

; 467  : 		{	// return iterator for beginning of nonmutable sequence

  00000	55		 push	 ebp
  00001	8b ec		 mov	 ebp, esp
  00003	51		 push	 ecx
  00004	c7 45 fc cc cc
	cc cc		 mov	 DWORD PTR [ebp-4], -858993460 ; ccccccccH
  0000b	89 4d fc	 mov	 DWORD PTR _this$[ebp], ecx

; 468  : 		return (const_iterator(_Myfirst));

  0000e	8b 45 fc	 mov	 eax, DWORD PTR _this$[ebp]
  00011	8b 48 04	 mov	 ecx, DWORD PTR [eax+4]
  00014	51		 push	 ecx
  00015	8b 4d 08	 mov	 ecx, DWORD PTR ___$ReturnUdt$[ebp]
  00018	e8 00 00 00 00	 call	 ??0const_iterator@?$vector@UMYLIST_COLUMN_INFO@@V?$allocator@UMYLIST_COLUMN_INFO@@@std@@@std@@QAE@PAUMYLIST_COLUMN_INFO@@@Z ; std::vector<MYLIST_COLUMN_INFO,std::allocator<MYLIST_COLUMN_INFO> >::const_iterator::const_iterator
  0001d	8b 45 08	 mov	 eax, DWORD PTR ___$ReturnUdt$[ebp]

; 469  : 		}

  00020	83 c4 04	 add	 esp, 4
  00023	3b ec		 cmp	 ebp, esp
  00025	e8 00 00 00 00	 call	 __RTC_CheckEsp
  0002a	8b e5		 mov	 esp, ebp
  0002c	5d		 pop	 ebp
  0002d	c2 04 00	 ret	 4
?begin@?$vector@UMYLIST_COLUMN_INFO@@V?$allocator@UMYLIST_COLUMN_INFO@@@std@@@std@@QBE?AVconst_iterator@12@XZ ENDP ; std::vector<MYLIST_COLUMN_INFO,std::allocator<MYLIST_COLUMN_INFO> >::begin
_TEXT	ENDS
PUBLIC	??0const_iterator@?$_Tree@V?$_Tmap_traits@HUMYLIST_COLUMN_INFO@@U?$less@H@std@@V?$allocator@U?$pair@$$CBHUMYLIST_COLUMN_INFO@@@std@@@3@$0A@@std@@@std@@QAE@PAU_Node@?$_Tree_nod@V?$_Tmap_traits@HUMYLIST_COLUMN_INFO@@U?$less@H@std@@V?$allocator@U?$pair@$$CBHUMYLIST_COLUMN_INFO@@@std@@@3@$0A@@std@@@2@@Z ; std::_Tree<std::_Tmap_traits<int,MYLIST_COLUMN_INFO,std::less<int>,std::allocator<std::pair<int const ,MYLIST_COLUMN_INFO> >,0> >::const_iterator::const_iterator
; Function compile flags: /Odt /RTCsu
; File d:\program files (x86)\microsoft visual studio .net 2003\vc7\include\xtree
;	COMDAT ??0iterator@?$_Tree@V?$_Tmap_traits@HUMYLIST_COLUMN_INFO@@U?$less@H@std@@V?$allocator@U?$pair@$$CBHUMYLIST_COLUMN_INFO@@@std@@@3@$0A@@std@@@std@@QAE@PAU_Node@?$_Tree_nod@V?$_Tmap_traits@HUMYLIST_COLUMN_INFO@@U?$less@H@std@@V?$allocator@U?$pair@$$CBHUMYLIST_COLUMN_INFO@@@std@@@3@$0A@@std@@@2@@Z
_TEXT	SEGMENT
_this$ = -4						; size = 4
__Pnode$ = 8						; size = 4
??0iterator@?$_Tree@V?$_Tmap_traits@HUMYLIST_COLUMN_INFO@@U?$less@H@std@@V?$allocator@U?$pair@$$CBHUMYLIST_COLUMN_INFO@@@std@@@3@$0A@@std@@@std@@QAE@PAU_Node@?$_Tree_nod@V?$_Tmap_traits@HUMYLIST_COLUMN_INFO@@U?$less@H@std@@V?$allocator@U?$pair@$$CBHUMYLIST_COLUMN_INFO@@@std@@@3@$0A@@std@@@2@@Z PROC NEAR ; std::_Tree<std::_Tmap_traits<int,MYLIST_COLUMN_INFO,std::less<int>,std::allocator<std::pair<int const ,MYLIST_COLUMN_INFO> >,0> >::iterator::iterator, COMDAT
; _this$ = ecx

; 312  : 			{	// construct with node pointer _Pnode

  00000	55		 push	 ebp
  00001	8b ec		 mov	 ebp, esp
  00003	51		 push	 ecx
  00004	c7 45 fc cc cc
	cc cc		 mov	 DWORD PTR [ebp-4], -858993460 ; ccccccccH
  0000b	89 4d fc	 mov	 DWORD PTR _this$[ebp], ecx
  0000e	8b 45 08	 mov	 eax, DWORD PTR __Pnode$[ebp]
  00011	50		 push	 eax
  00012	8b 4d fc	 mov	 ecx, DWORD PTR _this$[ebp]
  00015	e8 00 00 00 00	 call	 ??0const_iterator@?$_Tree@V?$_Tmap_traits@HUMYLIST_COLUMN_INFO@@U?$less@H@std@@V?$allocator@U?$pair@$$CBHUMYLIST_COLUMN_INFO@@@std@@@3@$0A@@std@@@std@@QAE@PAU_Node@?$_Tree_nod@V?$_Tmap_traits@HUMYLIST_COLUMN_INFO@@U?$less@H@std@@V?$allocator@U?$pair@$$CBHUMYLIST_COLUMN_INFO@@@std@@@3@$0A@@std@@@2@@Z ; std::_Tree<std::_Tmap_traits<int,MYLIST_COLUMN_INFO,std::less<int>,std::allocator<std::pair<int const ,MYLIST_COLUMN_INFO> >,0> >::const_iterator::const_iterator

; 313  : 			}

  0001a	8b 45 fc	 mov	 eax, DWORD PTR _this$[ebp]
  0001d	83 c4 04	 add	 esp, 4
  00020	3b ec		 cmp	 ebp, esp
  00022	e8 00 00 00 00	 call	 __RTC_CheckEsp
  00027	8b e5		 mov	 esp, ebp
  00029	5d		 pop	 ebp
  0002a	c2 04 00	 ret	 4
??0iterator@?$_Tree@V?$_Tmap_traits@HUMYLIST_COLUMN_INFO@@U?$less@H@std@@V?$allocator@U?$pair@$$CBHUMYLIST_COLUMN_INFO@@@std@@@3@$0A@@std@@@std@@QAE@PAU_Node@?$_Tree_nod@V?$_Tmap_traits@HUMYLIST_COLUMN_INFO@@U?$less@H@std@@V?$allocator@U?$pair@$$CBHUMYLIST_COLUMN_INFO@@@std@@@3@$0A@@std@@@2@@Z ENDP ; std::_Tree<std::_Tmap_traits<int,MYLIST_COLUMN_INFO,std::less<int>,std::allocator<std::pair<int const ,MYLIST_COLUMN_INFO> >,0> >::iterator::iterator
_TEXT	ENDS
PUBLIC	??Dconst_iterator@?$_Tree@V?$_Tmap_traits@HUMYLIST_COLUMN_INFO@@U?$less@H@std@@V?$allocator@U?$pair@$$CBHUMYLIST_COLUMN_INFO@@@std@@@3@$0A@@std@@@std@@QBEABU?$pair@$$CBHUMYLIST_COLUMN_INFO@@@2@XZ ; std::_Tree<std::_Tmap_traits<int,MYLIST_COLUMN_INFO,std::less<int>,std::allocator<std::pair<int const ,MYLIST_COLUMN_INFO> >,0> >::const_iterator::operator*
; Function compile flags: /Odt /RTCsu
;	COMDAT ??Diterator@?$_Tree@V?$_Tmap_traits@HUMYLIST_COLUMN_INFO@@U?$less@H@std@@V?$allocator@U?$pair@$$CBHUMYLIST_COLUMN_INFO@@@std@@@3@$0A@@std@@@std@@QBEAAU?$pair@$$CBHUMYLIST_COLUMN_INFO@@@2@XZ
_TEXT	SEGMENT
_this$ = -4						; size = 4
??Diterator@?$_Tree@V?$_Tmap_traits@HUMYLIST_COLUMN_INFO@@U?$less@H@std@@V?$allocator@U?$pair@$$CBHUMYLIST_COLUMN_INFO@@@std@@@3@$0A@@std@@@std@@QBEAAU?$pair@$$CBHUMYLIST_COLUMN_INFO@@@2@XZ PROC NEAR ; std::_Tree<std::_Tmap_traits<int,MYLIST_COLUMN_INFO,std::less<int>,std::allocator<std::pair<int const ,MYLIST_COLUMN_INFO> >,0> >::iterator::operator*, COMDAT
; _this$ = ecx

; 316  : 			{	// return designated value

  00000	55		 push	 ebp
  00001	8b ec		 mov	 ebp, esp
  00003	51		 push	 ecx
  00004	c7 45 fc cc cc
	cc cc		 mov	 DWORD PTR [ebp-4], -858993460 ; ccccccccH
  0000b	89 4d fc	 mov	 DWORD PTR _this$[ebp], ecx

; 317  : 			return ((reference)**(const_iterator *)this);

  0000e	8b 4d fc	 mov	 ecx, DWORD PTR _this$[ebp]
  00011	e8 00 00 00 00	 call	 ??Dconst_iterator@?$_Tree@V?$_Tmap_traits@HUMYLIST_COLUMN_INFO@@U?$less@H@std@@V?$allocator@U?$pair@$$CBHUMYLIST_COLUMN_INFO@@@std@@@3@$0A@@std@@@std@@QBEABU?$pair@$$CBHUMYLIST_COLUMN_INFO@@@2@XZ ; std::_Tree<std::_Tmap_traits<int,MYLIST_COLUMN_INFO,std::less<int>,std::allocator<std::pair<int const ,MYLIST_COLUMN_INFO> >,0> >::const_iterator::operator*

; 318  : 			}

  00016	83 c4 04	 add	 esp, 4
  00019	3b ec		 cmp	 ebp, esp
  0001b	e8 00 00 00 00	 call	 __RTC_CheckEsp
  00020	8b e5		 mov	 esp, ebp
  00022	5d		 pop	 ebp
  00023	c3		 ret	 0
??Diterator@?$_Tree@V?$_Tmap_traits@HUMYLIST_COLUMN_INFO@@U?$less@H@std@@V?$allocator@U?$pair@$$CBHUMYLIST_COLUMN_INFO@@@std@@@3@$0A@@std@@@std@@QBEAAU?$pair@$$CBHUMYLIST_COLUMN_INFO@@@2@XZ ENDP ; std::_Tree<std::_Tmap_traits<int,MYLIST_COLUMN_INFO,std::less<int>,std::allocator<std::pair<int const ,MYLIST_COLUMN_INFO> >,0> >::iterator::operator*
_TEXT	ENDS
PUBLIC	??Econst_iterator@?$_Tree@V?$_Tmap_traits@HUMYLIST_COLUMN_INFO@@U?$less@H@std@@V?$allocator@U?$pair@$$CBHUMYLIST_COLUMN_INFO@@@std@@@3@$0A@@std@@@std@@QAEAAV012@XZ ; std::_Tree<std::_Tmap_traits<int,MYLIST_COLUMN_INFO,std::less<int>,std::allocator<std::pair<int const ,MYLIST_COLUMN_INFO> >,0> >::const_iterator::operator++
; Function compile flags: /Odt /RTCsu
;	COMDAT ??Eiterator@?$_Tree@V?$_Tmap_traits@HUMYLIST_COLUMN_INFO@@U?$less@H@std@@V?$allocator@U?$pair@$$CBHUMYLIST_COLUMN_INFO@@@std@@@3@$0A@@std@@@std@@QAEAAV012@XZ
_TEXT	SEGMENT
_this$ = -4						; size = 4
??Eiterator@?$_Tree@V?$_Tmap_traits@HUMYLIST_COLUMN_INFO@@U?$less@H@std@@V?$allocator@U?$pair@$$CBHUMYLIST_COLUMN_INFO@@@std@@@3@$0A@@std@@@std@@QAEAAV012@XZ PROC NEAR ; std::_Tree<std::_Tmap_traits<int,MYLIST_COLUMN_INFO,std::less<int>,std::allocator<std::pair<int const ,MYLIST_COLUMN_INFO> >,0> >::iterator::operator++, COMDAT
; _this$ = ecx

; 326  : 			{	// preincrement

  00000	55		 push	 ebp
  00001	8b ec		 mov	 ebp, esp
  00003	51		 push	 ecx
  00004	c7 45 fc cc cc
	cc cc		 mov	 DWORD PTR [ebp-4], -858993460 ; ccccccccH
  0000b	89 4d fc	 mov	 DWORD PTR _this$[ebp], ecx

; 327  : 			++(*(const_iterator *)this);

  0000e	8b 4d fc	 mov	 ecx, DWORD PTR _this$[ebp]
  00011	e8 00 00 00 00	 call	 ??Econst_iterator@?$_Tree@V?$_Tmap_traits@HUMYLIST_COLUMN_INFO@@U?$less@H@std@@V?$allocator@U?$pair@$$CBHUMYLIST_COLUMN_INFO@@@std@@@3@$0A@@std@@@std@@QAEAAV012@XZ ; std::_Tree<std::_Tmap_traits<int,MYLIST_COLUMN_INFO,std::less<int>,std::allocator<std::pair<int const ,MYLIST_COLUMN_INFO> >,0> >::const_iterator::operator++

; 328  : 			return (*this);

  00016	8b 45 fc	 mov	 eax, DWORD PTR _this$[ebp]

; 329  : 			}

  00019	83 c4 04	 add	 esp, 4
  0001c	3b ec		 cmp	 ebp, esp
  0001e	e8 00 00 00 00	 call	 __RTC_CheckEsp
  00023	8b e5		 mov	 esp, ebp
  00025	5d		 pop	 ebp
  00026	c3		 ret	 0
??Eiterator@?$_Tree@V?$_Tmap_traits@HUMYLIST_COLUMN_INFO@@U?$less@H@std@@V?$allocator@U?$pair@$$CBHUMYLIST_COLUMN_INFO@@@std@@@3@$0A@@std@@@std@@QAEAAV012@XZ ENDP ; std::_Tree<std::_Tmap_traits<int,MYLIST_COLUMN_INFO,std::less<int>,std::allocator<std::pair<int const ,MYLIST_COLUMN_INFO> >,0> >::iterator::operator++
; Function compile flags: /Odt /RTCsu
_TEXT	ENDS
;	COMDAT ??8const_iterator@?$_Tree@V?$_Tmap_traits@HUMYLIST_COLUMN_INFO@@U?$less@H@std@@V?$allocator@U?$pair@$$CBHUMYLIST_COLUMN_INFO@@@std@@@3@$0A@@std@@@std@@QBE_NABV012@@Z
_TEXT	SEGMENT
_this$ = -4						; size = 4
__Right$ = 8						; size = 4
??8const_iterator@?$_Tree@V?$_Tmap_traits@HUMYLIST_COLUMN_INFO@@U?$less@H@std@@V?$allocator@U?$pair@$$CBHUMYLIST_COLUMN_INFO@@@std@@@3@$0A@@std@@@std@@QBE_NABV012@@Z PROC NEAR ; std::_Tree<std::_Tmap_traits<int,MYLIST_COLUMN_INFO,std::less<int>,std::allocator<std::pair<int const ,MYLIST_COLUMN_INFO> >,0> >::const_iterator::operator==, COMDAT
; _this$ = ecx

; 240  : 			{	// test for iterator equality

  00000	55		 push	 ebp
  00001	8b ec		 mov	 ebp, esp
  00003	51		 push	 ecx
  00004	c7 45 fc cc cc
	cc cc		 mov	 DWORD PTR [ebp-4], -858993460 ; ccccccccH
  0000b	89 4d fc	 mov	 DWORD PTR _this$[ebp], ecx

; 241  : 			return (_Ptr == _Right._Ptr);

  0000e	8b 45 fc	 mov	 eax, DWORD PTR _this$[ebp]
  00011	8b 4d 08	 mov	 ecx, DWORD PTR __Right$[ebp]
  00014	8b 00		 mov	 eax, DWORD PTR [eax]
  00016	2b 01		 sub	 eax, DWORD PTR [ecx]
  00018	f7 d8		 neg	 eax
  0001a	1b c0		 sbb	 eax, eax
  0001c	40		 inc	 eax

; 242  : 			}

  0001d	8b e5		 mov	 esp, ebp
  0001f	5d		 pop	 ebp
  00020	c2 04 00	 ret	 4
??8const_iterator@?$_Tree@V?$_Tmap_traits@HUMYLIST_COLUMN_INFO@@U?$less@H@std@@V?$allocator@U?$pair@$$CBHUMYLIST_COLUMN_INFO@@@std@@@3@$0A@@std@@@std@@QBE_NABV012@@Z ENDP ; std::_Tree<std::_Tmap_traits<int,MYLIST_COLUMN_INFO,std::less<int>,std::allocator<std::pair<int const ,MYLIST_COLUMN_INFO> >,0> >::const_iterator::operator==
; Function compile flags: /Odt /RTCsu
_TEXT	ENDS
;	COMDAT ?_Mynode@const_iterator@?$_Tree@V?$_Tmap_traits@HUMYLIST_COLUMN_INFO@@U?$less@H@std@@V?$allocator@U?$pair@$$CBHUMYLIST_COLUMN_INFO@@@std@@@3@$0A@@std@@@std@@QBEPAU_Node@?$_Tree_nod@V?$_Tmap_traits@HUMYLIST_COLUMN_INFO@@U?$less@H@std@@V?$allocator@U?$pair@$$CBHUMYLIST_COLUMN_INFO@@@std@@@3@$0A@@std@@@3@XZ
_TEXT	SEGMENT
_this$ = -4						; size = 4
?_Mynode@const_iterator@?$_Tree@V?$_Tmap_traits@HUMYLIST_COLUMN_INFO@@U?$less@H@std@@V?$allocator@U?$pair@$$CBHUMYLIST_COLUMN_INFO@@@std@@@3@$0A@@std@@@std@@QBEPAU_Node@?$_Tree_nod@V?$_Tmap_traits@HUMYLIST_COLUMN_INFO@@U?$less@H@std@@V?$allocator@U?$pair@$$CBHUMYLIST_COLUMN_INFO@@@std@@@3@$0A@@std@@@3@XZ PROC NEAR ; std::_Tree<std::_Tmap_traits<int,MYLIST_COLUMN_INFO,std::less<int>,std::allocator<std::pair<int const ,MYLIST_COLUMN_INFO> >,0> >::const_iterator::_Mynode, COMDAT
; _this$ = ecx

; 283  : 			{	// return node pointer

  00000	55		 push	 ebp
  00001	8b ec		 mov	 ebp, esp
  00003	51		 push	 ecx
  00004	c7 45 fc cc cc
	cc cc		 mov	 DWORD PTR [ebp-4], -858993460 ; ccccccccH
  0000b	89 4d fc	 mov	 DWORD PTR _this$[ebp], ecx

; 284  : 			return (_Ptr);

  0000e	8b 45 fc	 mov	 eax, DWORD PTR _this$[ebp]
  00011	8b 00		 mov	 eax, DWORD PTR [eax]

; 285  : 			}

  00013	8b e5		 mov	 esp, ebp
  00015	5d		 pop	 ebp
  00016	c3		 ret	 0
?_Mynode@const_iterator@?$_Tree@V?$_Tmap_traits@HUMYLIST_COLUMN_INFO@@U?$less@H@std@@V?$allocator@U?$pair@$$CBHUMYLIST_COLUMN_INFO@@@std@@@3@$0A@@std@@@std@@QBEPAU_Node@?$_Tree_nod@V?$_Tmap_traits@HUMYLIST_COLUMN_INFO@@U?$less@H@std@@V?$allocator@U?$pair@$$CBHUMYLIST_COLUMN_INFO@@@std@@@3@$0A@@std@@@3@XZ ENDP ; std::_Tree<std::_Tmap_traits<int,MYLIST_COLUMN_INFO,std::less<int>,std::allocator<std::pair<int const ,MYLIST_COLUMN_INFO> >,0> >::const_iterator::_Mynode
_TEXT	ENDS
PUBLIC	??0MYLIST_COLUMN_INFO@@QAE@ABU0@@Z		; MYLIST_COLUMN_INFO::MYLIST_COLUMN_INFO
; Function compile flags: /Odt /RTCsu
; File d:\program files (x86)\microsoft visual studio .net 2003\vc7\include\utility
;	COMDAT ??0?$pair@$$CBHUMYLIST_COLUMN_INFO@@@std@@QAE@ABHABUMYLIST_COLUMN_INFO@@@Z
_TEXT	SEGMENT
_this$ = -4						; size = 4
__Val1$ = 8						; size = 4
__Val2$ = 12						; size = 4
??0?$pair@$$CBHUMYLIST_COLUMN_INFO@@@std@@QAE@ABHABUMYLIST_COLUMN_INFO@@@Z PROC NEAR ; std::pair<int const ,MYLIST_COLUMN_INFO>::pair<int const ,MYLIST_COLUMN_INFO>, COMDAT
; _this$ = ecx

; 34   : 		{	// construct from specified values

  00000	55		 push	 ebp
  00001	8b ec		 mov	 ebp, esp
  00003	51		 push	 ecx
  00004	c7 45 fc cc cc
	cc cc		 mov	 DWORD PTR [ebp-4], -858993460 ; ccccccccH
  0000b	89 4d fc	 mov	 DWORD PTR _this$[ebp], ecx
  0000e	8b 45 fc	 mov	 eax, DWORD PTR _this$[ebp]
  00011	8b 4d 08	 mov	 ecx, DWORD PTR __Val1$[ebp]
  00014	8b 11		 mov	 edx, DWORD PTR [ecx]
  00016	89 10		 mov	 DWORD PTR [eax], edx
  00018	8b 45 0c	 mov	 eax, DWORD PTR __Val2$[ebp]
  0001b	50		 push	 eax
  0001c	8b 4d fc	 mov	 ecx, DWORD PTR _this$[ebp]
  0001f	83 c1 04	 add	 ecx, 4
  00022	e8 00 00 00 00	 call	 ??0MYLIST_COLUMN_INFO@@QAE@ABU0@@Z

; 35   : 		}

  00027	8b 45 fc	 mov	 eax, DWORD PTR _this$[ebp]
  0002a	83 c4 04	 add	 esp, 4
  0002d	3b ec		 cmp	 ebp, esp
  0002f	e8 00 00 00 00	 call	 __RTC_CheckEsp
  00034	8b e5		 mov	 esp, ebp
  00036	5d		 pop	 ebp
  00037	c2 08 00	 ret	 8
??0?$pair@$$CBHUMYLIST_COLUMN_INFO@@@std@@QAE@ABHABUMYLIST_COLUMN_INFO@@@Z ENDP ; std::pair<int const ,MYLIST_COLUMN_INFO>::pair<int const ,MYLIST_COLUMN_INFO>
_TEXT	ENDS
PUBLIC	??0const_iterator@?$vector@HV?$allocator@H@std@@@std@@QAE@PAH@Z ; std::vector<int,std::allocator<int> >::const_iterator::const_iterator
; Function compile flags: /Odt /RTCsu
; File d:\program files (x86)\microsoft visual studio .net 2003\vc7\include\vector
;	COMDAT ??0iterator@?$vector@HV?$allocator@H@std@@@std@@QAE@PAH@Z
_TEXT	SEGMENT
_this$ = -4						; size = 4
__Ptr$ = 8						; size = 4
??0iterator@?$vector@HV?$allocator@H@std@@@std@@QAE@PAH@Z PROC NEAR ; std::vector<int,std::allocator<int> >::iterator::iterator, COMDAT
; _this$ = ecx

; 215  : 			{	// construct with pointer _Ptr

  00000	55		 push	 ebp
  00001	8b ec		 mov	 ebp, esp
  00003	51		 push	 ecx
  00004	c7 45 fc cc cc
	cc cc		 mov	 DWORD PTR [ebp-4], -858993460 ; ccccccccH
  0000b	89 4d fc	 mov	 DWORD PTR _this$[ebp], ecx
  0000e	8b 45 08	 mov	 eax, DWORD PTR __Ptr$[ebp]
  00011	50		 push	 eax
  00012	8b 4d fc	 mov	 ecx, DWORD PTR _this$[ebp]
  00015	e8 00 00 00 00	 call	 ??0const_iterator@?$vector@HV?$allocator@H@std@@@std@@QAE@PAH@Z ; std::vector<int,std::allocator<int> >::const_iterator::const_iterator

; 216  : 			}

  0001a	8b 45 fc	 mov	 eax, DWORD PTR _this$[ebp]
  0001d	83 c4 04	 add	 esp, 4
  00020	3b ec		 cmp	 ebp, esp
  00022	e8 00 00 00 00	 call	 __RTC_CheckEsp
  00027	8b e5		 mov	 esp, ebp
  00029	5d		 pop	 ebp
  0002a	c2 04 00	 ret	 4
??0iterator@?$vector@HV?$allocator@H@std@@@std@@QAE@PAH@Z ENDP ; std::vector<int,std::allocator<int> >::iterator::iterator
; Function compile flags: /Odt /RTCsu
_TEXT	ENDS
;	COMDAT ??8const_iterator@?$vector@HV?$allocator@H@std@@@std@@QBE_NABV012@@Z
_TEXT	SEGMENT
_this$ = -4						; size = 4
__Right$ = 8						; size = 4
??8const_iterator@?$vector@HV?$allocator@H@std@@@std@@QBE_NABV012@@Z PROC NEAR ; std::vector<int,std::allocator<int> >::const_iterator::operator==, COMDAT
; _this$ = ecx

; 152  : 			{	// test for iterator equality

  00000	55		 push	 ebp
  00001	8b ec		 mov	 ebp, esp
  00003	51		 push	 ecx
  00004	c7 45 fc cc cc
	cc cc		 mov	 DWORD PTR [ebp-4], -858993460 ; ccccccccH
  0000b	89 4d fc	 mov	 DWORD PTR _this$[ebp], ecx

; 153  : 
; 154  : 
; 155  : 			return (_Myptr == _Right._Myptr);

  0000e	8b 45 fc	 mov	 eax, DWORD PTR _this$[ebp]
  00011	8b 4d 08	 mov	 ecx, DWORD PTR __Right$[ebp]
  00014	8b 00		 mov	 eax, DWORD PTR [eax]
  00016	2b 01		 sub	 eax, DWORD PTR [ecx]
  00018	f7 d8		 neg	 eax
  0001a	1b c0		 sbb	 eax, eax
  0001c	40		 inc	 eax

; 156  : 			}

  0001d	8b e5		 mov	 esp, ebp
  0001f	5d		 pop	 ebp
  00020	c2 04 00	 ret	 4
??8const_iterator@?$vector@HV?$allocator@H@std@@@std@@QBE_NABV012@@Z ENDP ; std::vector<int,std::allocator<int> >::const_iterator::operator==
; Function compile flags: /Odt /RTCsu
_TEXT	ENDS
;	COMDAT ??Dconst_iterator@?$vector@UMYLIST_COLUMN_INFO@@V?$allocator@UMYLIST_COLUMN_INFO@@@std@@@std@@QBEABUMYLIST_COLUMN_INFO@@XZ
_TEXT	SEGMENT
_this$ = -4						; size = 4
??Dconst_iterator@?$vector@UMYLIST_COLUMN_INFO@@V?$allocator@UMYLIST_COLUMN_INFO@@@std@@@std@@QBEABUMYLIST_COLUMN_INFO@@XZ PROC NEAR ; std::vector<MYLIST_COLUMN_INFO,std::allocator<MYLIST_COLUMN_INFO> >::const_iterator::operator*, COMDAT
; _this$ = ecx

; 79   : 			{	// return designated object

  00000	55		 push	 ebp
  00001	8b ec		 mov	 ebp, esp
  00003	51		 push	 ecx
  00004	c7 45 fc cc cc
	cc cc		 mov	 DWORD PTR [ebp-4], -858993460 ; ccccccccH
  0000b	89 4d fc	 mov	 DWORD PTR _this$[ebp], ecx

; 80   : 
; 81   : 
; 82   : 			return (*_Myptr);

  0000e	8b 45 fc	 mov	 eax, DWORD PTR _this$[ebp]
  00011	8b 00		 mov	 eax, DWORD PTR [eax]

; 83   : 			}

  00013	8b e5		 mov	 esp, ebp
  00015	5d		 pop	 ebp
  00016	c3		 ret	 0
??Dconst_iterator@?$vector@UMYLIST_COLUMN_INFO@@V?$allocator@UMYLIST_COLUMN_INFO@@@std@@@std@@QBEABUMYLIST_COLUMN_INFO@@XZ ENDP ; std::vector<MYLIST_COLUMN_INFO,std::allocator<MYLIST_COLUMN_INFO> >::const_iterator::operator*
_TEXT	ENDS
PUBLIC	??Yconst_iterator@?$vector@UMYLIST_COLUMN_INFO@@V?$allocator@UMYLIST_COLUMN_INFO@@@std@@@std@@QAEAAV012@H@Z ; std::vector<MYLIST_COLUMN_INFO,std::allocator<MYLIST_COLUMN_INFO> >::const_iterator::operator+=
; Function compile flags: /Odt /RTCsu
;	COMDAT ??Hconst_iterator@?$vector@UMYLIST_COLUMN_INFO@@V?$allocator@UMYLIST_COLUMN_INFO@@@std@@@std@@QBE?AV012@H@Z
_TEXT	SEGMENT
__Tmp$ = -12						; size = 4
_this$ = -4						; size = 4
___$ReturnUdt$ = 8					; size = 4
__Off$ = 12						; size = 4
??Hconst_iterator@?$vector@UMYLIST_COLUMN_INFO@@V?$allocator@UMYLIST_COLUMN_INFO@@@std@@@std@@QBE?AV012@H@Z PROC NEAR ; std::vector<MYLIST_COLUMN_INFO,std::allocator<MYLIST_COLUMN_INFO> >::const_iterator::operator+, COMDAT
; _this$ = ecx

; 123  : 			{	// return this + integer

  00000	55		 push	 ebp
  00001	8b ec		 mov	 ebp, esp
  00003	83 ec 10	 sub	 esp, 16			; 00000010H
  00006	b8 cc cc cc cc	 mov	 eax, -858993460		; ccccccccH
  0000b	89 45 f0	 mov	 DWORD PTR [ebp-16], eax
  0000e	89 45 f4	 mov	 DWORD PTR [ebp-12], eax
  00011	89 45 f8	 mov	 DWORD PTR [ebp-8], eax
  00014	89 45 fc	 mov	 DWORD PTR [ebp-4], eax
  00017	89 4d fc	 mov	 DWORD PTR _this$[ebp], ecx

; 124  : 			const_iterator _Tmp = *this;

  0001a	8b 45 fc	 mov	 eax, DWORD PTR _this$[ebp]
  0001d	8b 08		 mov	 ecx, DWORD PTR [eax]
  0001f	89 4d f4	 mov	 DWORD PTR __Tmp$[ebp], ecx

; 125  : 			return (_Tmp += _Off);

  00022	8b 55 0c	 mov	 edx, DWORD PTR __Off$[ebp]
  00025	52		 push	 edx
  00026	8d 4d f4	 lea	 ecx, DWORD PTR __Tmp$[ebp]
  00029	e8 00 00 00 00	 call	 ??Yconst_iterator@?$vector@UMYLIST_COLUMN_INFO@@V?$allocator@UMYLIST_COLUMN_INFO@@@std@@@std@@QAEAAV012@H@Z ; std::vector<MYLIST_COLUMN_INFO,std::allocator<MYLIST_COLUMN_INFO> >::const_iterator::operator+=
  0002e	8b 00		 mov	 eax, DWORD PTR [eax]
  00030	8b 4d 08	 mov	 ecx, DWORD PTR ___$ReturnUdt$[ebp]
  00033	89 01		 mov	 DWORD PTR [ecx], eax
  00035	8b 45 08	 mov	 eax, DWORD PTR ___$ReturnUdt$[ebp]

; 126  : 			}

  00038	52		 push	 edx
  00039	8b cd		 mov	 ecx, ebp
  0003b	50		 push	 eax
  0003c	8d 15 00 00 00
	00		 lea	 edx, DWORD PTR $L192072
  00042	e8 00 00 00 00	 call	 @_RTC_CheckStackVars@8
  00047	58		 pop	 eax
  00048	5a		 pop	 edx
  00049	83 c4 10	 add	 esp, 16			; 00000010H
  0004c	3b ec		 cmp	 ebp, esp
  0004e	e8 00 00 00 00	 call	 __RTC_CheckEsp
  00053	8b e5		 mov	 esp, ebp
  00055	5d		 pop	 ebp
  00056	c2 08 00	 ret	 8
$L192072:
  00059	01 00 00 00	 DD	 1
  0005d	00 00 00 00	 DD	 $L192071
$L192071:
  00061	f4 ff ff ff	 DD	 -12			; fffffff4H
  00065	04 00 00 00	 DD	 4
  00069	00 00 00 00	 DD	 $L192070
$L192070:
  0006d	5f		 DB	 95			; 0000005fH
  0006e	54		 DB	 84			; 00000054H
  0006f	6d		 DB	 109			; 0000006dH
  00070	70		 DB	 112			; 00000070H
  00071	00		 DB	 0
??Hconst_iterator@?$vector@UMYLIST_COLUMN_INFO@@V?$allocator@UMYLIST_COLUMN_INFO@@@std@@@std@@QBE?AV012@H@Z ENDP ; std::vector<MYLIST_COLUMN_INFO,std::allocator<MYLIST_COLUMN_INFO> >::const_iterator::operator+
_TEXT	ENDS
EXTRN	__imp_??0?$basic_string@DU?$char_traits@D@std@@V?$allocator@D@2@@std@@QAE@ABV01@@Z:NEAR
; Function compile flags: /Odt /RTCsu
;	COMDAT ??0MYLIST_COLUMN_INFO@@QAE@ABU0@@Z
_TEXT	SEGMENT
_this$ = -4						; size = 4
___that$ = 8						; size = 4
??0MYLIST_COLUMN_INFO@@QAE@ABU0@@Z PROC NEAR		; MYLIST_COLUMN_INFO::MYLIST_COLUMN_INFO, COMDAT
; _this$ = ecx
  00000	55		 push	 ebp
  00001	8b ec		 mov	 ebp, esp
  00003	51		 push	 ecx
  00004	56		 push	 esi
  00005	c7 45 fc cc cc
	cc cc		 mov	 DWORD PTR [ebp-4], -858993460 ; ccccccccH
  0000c	89 4d fc	 mov	 DWORD PTR _this$[ebp], ecx
  0000f	8b f4		 mov	 esi, esp
  00011	8b 45 08	 mov	 eax, DWORD PTR ___that$[ebp]
  00014	50		 push	 eax
  00015	8b 4d fc	 mov	 ecx, DWORD PTR _this$[ebp]
  00018	ff 15 00 00 00
	00		 call	 DWORD PTR __imp_??0?$basic_string@DU?$char_traits@D@std@@V?$allocator@D@2@@std@@QAE@ABV01@@Z
  0001e	3b f4		 cmp	 esi, esp
  00020	e8 00 00 00 00	 call	 __RTC_CheckEsp
  00025	8b 4d fc	 mov	 ecx, DWORD PTR _this$[ebp]
  00028	8b 55 08	 mov	 edx, DWORD PTR ___that$[ebp]
  0002b	8b 42 1c	 mov	 eax, DWORD PTR [edx+28]
  0002e	89 41 1c	 mov	 DWORD PTR [ecx+28], eax
  00031	8b 4d fc	 mov	 ecx, DWORD PTR _this$[ebp]
  00034	8b 55 08	 mov	 edx, DWORD PTR ___that$[ebp]
  00037	8b 42 20	 mov	 eax, DWORD PTR [edx+32]
  0003a	89 41 20	 mov	 DWORD PTR [ecx+32], eax
  0003d	8b 4d fc	 mov	 ecx, DWORD PTR _this$[ebp]
  00040	8b 55 08	 mov	 edx, DWORD PTR ___that$[ebp]
  00043	8b 42 24	 mov	 eax, DWORD PTR [edx+36]
  00046	89 41 24	 mov	 DWORD PTR [ecx+36], eax
  00049	8b 4d fc	 mov	 ecx, DWORD PTR _this$[ebp]
  0004c	8b 55 08	 mov	 edx, DWORD PTR ___that$[ebp]
  0004f	8a 42 28	 mov	 al, BYTE PTR [edx+40]
  00052	88 41 28	 mov	 BYTE PTR [ecx+40], al
  00055	8b 4d 08	 mov	 ecx, DWORD PTR ___that$[ebp]
  00058	83 c1 2c	 add	 ecx, 44			; 0000002cH
  0005b	8b 55 fc	 mov	 edx, DWORD PTR _this$[ebp]
  0005e	83 c2 2c	 add	 edx, 44			; 0000002cH
  00061	8b 01		 mov	 eax, DWORD PTR [ecx]
  00063	89 02		 mov	 DWORD PTR [edx], eax
  00065	8b 41 04	 mov	 eax, DWORD PTR [ecx+4]
  00068	89 42 04	 mov	 DWORD PTR [edx+4], eax
  0006b	8b 41 08	 mov	 eax, DWORD PTR [ecx+8]
  0006e	89 42 08	 mov	 DWORD PTR [edx+8], eax
  00071	8b 49 0c	 mov	 ecx, DWORD PTR [ecx+12]
  00074	89 4a 0c	 mov	 DWORD PTR [edx+12], ecx
  00077	8b 55 08	 mov	 edx, DWORD PTR ___that$[ebp]
  0007a	83 c2 3c	 add	 edx, 60			; 0000003cH
  0007d	8b 45 fc	 mov	 eax, DWORD PTR _this$[ebp]
  00080	83 c0 3c	 add	 eax, 60			; 0000003cH
  00083	8b 0a		 mov	 ecx, DWORD PTR [edx]
  00085	89 08		 mov	 DWORD PTR [eax], ecx
  00087	8b 4a 04	 mov	 ecx, DWORD PTR [edx+4]
  0008a	89 48 04	 mov	 DWORD PTR [eax+4], ecx
  0008d	8b 4a 08	 mov	 ecx, DWORD PTR [edx+8]
  00090	89 48 08	 mov	 DWORD PTR [eax+8], ecx
  00093	8b 52 0c	 mov	 edx, DWORD PTR [edx+12]
  00096	89 50 0c	 mov	 DWORD PTR [eax+12], edx
  00099	8b 45 fc	 mov	 eax, DWORD PTR _this$[ebp]
  0009c	5e		 pop	 esi
  0009d	83 c4 04	 add	 esp, 4
  000a0	3b ec		 cmp	 ebp, esp
  000a2	e8 00 00 00 00	 call	 __RTC_CheckEsp
  000a7	8b e5		 mov	 esp, ebp
  000a9	5d		 pop	 ebp
  000aa	c2 04 00	 ret	 4
??0MYLIST_COLUMN_INFO@@QAE@ABU0@@Z ENDP			; MYLIST_COLUMN_INFO::MYLIST_COLUMN_INFO
; Function compile flags: /Odt /RTCsu
; File d:\program files (x86)\microsoft visual studio .net 2003\vc7\include\xtree
_TEXT	ENDS
;	COMDAT ?_Isnil@?$_Tree@V?$_Tmap_traits@HUMYLIST_COLUMN_INFO@@U?$less@H@std@@V?$allocator@U?$pair@$$CBHUMYLIST_COLUMN_INFO@@@std@@@3@$0A@@std@@@std@@KAAADPAU_Node@?$_Tree_nod@V?$_Tmap_traits@HUMYLIST_COLUMN_INFO@@U?$less@H@std@@V?$allocator@U?$pair@$$CBHUMYLIST_COLUMN_INFO@@@std@@@3@$0A@@std@@@2@@Z
_TEXT	SEGMENT
__Pnode$ = 8						; size = 4
?_Isnil@?$_Tree@V?$_Tmap_traits@HUMYLIST_COLUMN_INFO@@U?$less@H@std@@V?$allocator@U?$pair@$$CBHUMYLIST_COLUMN_INFO@@@std@@@3@$0A@@std@@@std@@KAAADPAU_Node@?$_Tree_nod@V?$_Tmap_traits@HUMYLIST_COLUMN_INFO@@U?$less@H@std@@V?$allocator@U?$pair@$$CBHUMYLIST_COLUMN_INFO@@@std@@@3@$0A@@std@@@2@@Z PROC NEAR ; std::_Tree<std::_Tmap_traits<int,MYLIST_COLUMN_INFO,std::less<int>,std::allocator<std::pair<int const ,MYLIST_COLUMN_INFO> >,0> >::_Isnil, COMDAT

; 136  : 		{	// return reference to nil flag in node

  00000	55		 push	 ebp
  00001	8b ec		 mov	 ebp, esp

; 137  : 		return ((_Charref)(*_Pnode)._Isnil);

  00003	8b 45 08	 mov	 eax, DWORD PTR __Pnode$[ebp]
  00006	83 c0 5d	 add	 eax, 93			; 0000005dH

; 138  : 		}

  00009	5d		 pop	 ebp
  0000a	c3		 ret	 0
?_Isnil@?$_Tree@V?$_Tmap_traits@HUMYLIST_COLUMN_INFO@@U?$less@H@std@@V?$allocator@U?$pair@$$CBHUMYLIST_COLUMN_INFO@@@std@@@3@$0A@@std@@@std@@KAAADPAU_Node@?$_Tree_nod@V?$_Tmap_traits@HUMYLIST_COLUMN_INFO@@U?$less@H@std@@V?$allocator@U?$pair@$$CBHUMYLIST_COLUMN_INFO@@@std@@@3@$0A@@std@@@2@@Z ENDP ; std::_Tree<std::_Tmap_traits<int,MYLIST_COLUMN_INFO,std::less<int>,std::allocator<std::pair<int const ,MYLIST_COLUMN_INFO> >,0> >::_Isnil
; Function compile flags: /Odt /RTCsu
_TEXT	ENDS
;	COMDAT ?_Left@?$_Tree@V?$_Tmap_traits@HUMYLIST_COLUMN_INFO@@U?$less@H@std@@V?$allocator@U?$pair@$$CBHUMYLIST_COLUMN_INFO@@@std@@@3@$0A@@std@@@std@@KAAAPAU_Node@?$_Tree_nod@V?$_Tmap_traits@HUMYLIST_COLUMN_INFO@@U?$less@H@std@@V?$allocator@U?$pair@$$CBHUMYLIST_COLUMN_INFO@@@std@@@3@$0A@@std@@@2@PAU342@@Z
_TEXT	SEGMENT
__Pnode$ = 8						; size = 4
?_Left@?$_Tree@V?$_Tmap_traits@HUMYLIST_COLUMN_INFO@@U?$less@H@std@@V?$allocator@U?$pair@$$CBHUMYLIST_COLUMN_INFO@@@std@@@3@$0A@@std@@@std@@KAAAPAU_Node@?$_Tree_nod@V?$_Tmap_traits@HUMYLIST_COLUMN_INFO@@U?$less@H@std@@V?$allocator@U?$pair@$$CBHUMYLIST_COLUMN_INFO@@@std@@@3@$0A@@std@@@2@PAU342@@Z PROC NEAR ; std::_Tree<std::_Tmap_traits<int,MYLIST_COLUMN_INFO,std::less<int>,std::allocator<std::pair<int const ,MYLIST_COLUMN_INFO> >,0> >::_Left, COMDAT

; 146  : 		{	// return reference to left pointer in node

  00000	55		 push	 ebp
  00001	8b ec		 mov	 ebp, esp

; 147  : 		return ((_Nodepref)(*_Pnode)._Left);

  00003	8b 45 08	 mov	 eax, DWORD PTR __Pnode$[ebp]

; 148  : 		}

  00006	5d		 pop	 ebp
  00007	c3		 ret	 0
?_Left@?$_Tree@V?$_Tmap_traits@HUMYLIST_COLUMN_INFO@@U?$less@H@std@@V?$allocator@U?$pair@$$CBHUMYLIST_COLUMN_INFO@@@std@@@3@$0A@@std@@@std@@KAAAPAU_Node@?$_Tree_nod@V?$_Tmap_traits@HUMYLIST_COLUMN_INFO@@U?$less@H@std@@V?$allocator@U?$pair@$$CBHUMYLIST_COLUMN_INFO@@@std@@@3@$0A@@std@@@2@PAU342@@Z ENDP ; std::_Tree<std::_Tmap_traits<int,MYLIST_COLUMN_INFO,std::less<int>,std::allocator<std::pair<int const ,MYLIST_COLUMN_INFO> >,0> >::_Left
; Function compile flags: /Odt /RTCsu
_TEXT	ENDS
;	COMDAT ?_Parent@?$_Tree@V?$_Tmap_traits@HUMYLIST_COLUMN_INFO@@U?$less@H@std@@V?$allocator@U?$pair@$$CBHUMYLIST_COLUMN_INFO@@@std@@@3@$0A@@std@@@std@@KAAAPAU_Node@?$_Tree_nod@V?$_Tmap_traits@HUMYLIST_COLUMN_INFO@@U?$less@H@std@@V?$allocator@U?$pair@$$CBHUMYLIST_COLUMN_INFO@@@std@@@3@$0A@@std@@@2@PAU342@@Z
_TEXT	SEGMENT
__Pnode$ = 8						; size = 4
?_Parent@?$_Tree@V?$_Tmap_traits@HUMYLIST_COLUMN_INFO@@U?$less@H@std@@V?$allocator@U?$pair@$$CBHUMYLIST_COLUMN_INFO@@@std@@@3@$0A@@std@@@std@@KAAAPAU_Node@?$_Tree_nod@V?$_Tmap_traits@HUMYLIST_COLUMN_INFO@@U?$less@H@std@@V?$allocator@U?$pair@$$CBHUMYLIST_COLUMN_INFO@@@std@@@3@$0A@@std@@@2@PAU342@@Z PROC NEAR ; std::_Tree<std::_Tmap_traits<int,MYLIST_COLUMN_INFO,std::less<int>,std::allocator<std::pair<int const ,MYLIST_COLUMN_INFO> >,0> >::_Parent, COMDAT

; 151  : 		{	// return reference to parent pointer in node

  00000	55		 push	 ebp
  00001	8b ec		 mov	 ebp, esp

; 152  : 		return ((_Nodepref)(*_Pnode)._Parent);

  00003	8b 45 08	 mov	 eax, DWORD PTR __Pnode$[ebp]
  00006	83 c0 04	 add	 eax, 4

; 153  : 		}

  00009	5d		 pop	 ebp
  0000a	c3		 ret	 0
?_Parent@?$_Tree@V?$_Tmap_traits@HUMYLIST_COLUMN_INFO@@U?$less@H@std@@V?$allocator@U?$pair@$$CBHUMYLIST_COLUMN_INFO@@@std@@@3@$0A@@std@@@std@@KAAAPAU_Node@?$_Tree_nod@V?$_Tmap_traits@HUMYLIST_COLUMN_INFO@@U?$less@H@std@@V?$allocator@U?$pair@$$CBHUMYLIST_COLUMN_INFO@@@std@@@3@$0A@@std@@@2@PAU342@@Z ENDP ; std::_Tree<std::_Tmap_traits<int,MYLIST_COLUMN_INFO,std::less<int>,std::allocator<std::pair<int const ,MYLIST_COLUMN_INFO> >,0> >::_Parent
; Function compile flags: /Odt /RTCsu
_TEXT	ENDS
;	COMDAT ?_Right@?$_Tree@V?$_Tmap_traits@HUMYLIST_COLUMN_INFO@@U?$less@H@std@@V?$allocator@U?$pair@$$CBHUMYLIST_COLUMN_INFO@@@std@@@3@$0A@@std@@@std@@KAAAPAU_Node@?$_Tree_nod@V?$_Tmap_traits@HUMYLIST_COLUMN_INFO@@U?$less@H@std@@V?$allocator@U?$pair@$$CBHUMYLIST_COLUMN_INFO@@@std@@@3@$0A@@std@@@2@PAU342@@Z
_TEXT	SEGMENT
__Pnode$ = 8						; size = 4
?_Right@?$_Tree@V?$_Tmap_traits@HUMYLIST_COLUMN_INFO@@U?$less@H@std@@V?$allocator@U?$pair@$$CBHUMYLIST_COLUMN_INFO@@@std@@@3@$0A@@std@@@std@@KAAAPAU_Node@?$_Tree_nod@V?$_Tmap_traits@HUMYLIST_COLUMN_INFO@@U?$less@H@std@@V?$allocator@U?$pair@$$CBHUMYLIST_COLUMN_INFO@@@std@@@3@$0A@@std@@@2@PAU342@@Z PROC NEAR ; std::_Tree<std::_Tmap_traits<int,MYLIST_COLUMN_INFO,std::less<int>,std::allocator<std::pair<int const ,MYLIST_COLUMN_INFO> >,0> >::_Right, COMDAT

; 156  : 		{	// return reference to right pointer in node

  00000	55		 push	 ebp
  00001	8b ec		 mov	 ebp, esp

; 157  : 		return ((_Nodepref)(*_Pnode)._Right);

  00003	8b 45 08	 mov	 eax, DWORD PTR __Pnode$[ebp]
  00006	83 c0 08	 add	 eax, 8

; 158  : 		}

  00009	5d		 pop	 ebp
  0000a	c3		 ret	 0
?_Right@?$_Tree@V?$_Tmap_traits@HUMYLIST_COLUMN_INFO@@U?$less@H@std@@V?$allocator@U?$pair@$$CBHUMYLIST_COLUMN_INFO@@@std@@@3@$0A@@std@@@std@@KAAAPAU_Node@?$_Tree_nod@V?$_Tmap_traits@HUMYLIST_COLUMN_INFO@@U?$less@H@std@@V?$allocator@U?$pair@$$CBHUMYLIST_COLUMN_INFO@@@std@@@3@$0A@@std@@@2@PAU342@@Z ENDP ; std::_Tree<std::_Tmap_traits<int,MYLIST_COLUMN_INFO,std::less<int>,std::allocator<std::pair<int const ,MYLIST_COLUMN_INFO> >,0> >::_Right
; Function compile flags: /Odt /RTCsu
_TEXT	ENDS
;	COMDAT ?_Myval@?$_Tree@V?$_Tmap_traits@HUMYLIST_COLUMN_INFO@@U?$less@H@std@@V?$allocator@U?$pair@$$CBHUMYLIST_COLUMN_INFO@@@std@@@3@$0A@@std@@@std@@KAAAU?$pair@$$CBHUMYLIST_COLUMN_INFO@@@2@PAU_Node@?$_Tree_nod@V?$_Tmap_traits@HUMYLIST_COLUMN_INFO@@U?$less@H@std@@V?$allocator@U?$pair@$$CBHUMYLIST_COLUMN_INFO@@@std@@@3@$0A@@std@@@2@@Z
_TEXT	SEGMENT
__Pnode$ = 8						; size = 4
?_Myval@?$_Tree@V?$_Tmap_traits@HUMYLIST_COLUMN_INFO@@U?$less@H@std@@V?$allocator@U?$pair@$$CBHUMYLIST_COLUMN_INFO@@@std@@@3@$0A@@std@@@std@@KAAAU?$pair@$$CBHUMYLIST_COLUMN_INFO@@@2@PAU_Node@?$_Tree_nod@V?$_Tmap_traits@HUMYLIST_COLUMN_INFO@@U?$less@H@std@@V?$allocator@U?$pair@$$CBHUMYLIST_COLUMN_INFO@@@std@@@3@$0A@@std@@@2@@Z PROC NEAR ; std::_Tree<std::_Tmap_traits<int,MYLIST_COLUMN_INFO,std::less<int>,std::allocator<std::pair<int const ,MYLIST_COLUMN_INFO> >,0> >::_Myval, COMDAT

; 161  : 		{	// return reference to value in node

  00000	55		 push	 ebp
  00001	8b ec		 mov	 ebp, esp

; 162  : 		return ((_Vref)(*_Pnode)._Myval);

  00003	8b 45 08	 mov	 eax, DWORD PTR __Pnode$[ebp]
  00006	83 c0 0c	 add	 eax, 12			; 0000000cH

; 163  : 		}

  00009	5d		 pop	 ebp
  0000a	c3		 ret	 0
?_Myval@?$_Tree@V?$_Tmap_traits@HUMYLIST_COLUMN_INFO@@U?$less@H@std@@V?$allocator@U?$pair@$$CBHUMYLIST_COLUMN_INFO@@@std@@@3@$0A@@std@@@std@@KAAAU?$pair@$$CBHUMYLIST_COLUMN_INFO@@@2@PAU_Node@?$_Tree_nod@V?$_Tmap_traits@HUMYLIST_COLUMN_INFO@@U?$less@H@std@@V?$allocator@U?$pair@$$CBHUMYLIST_COLUMN_INFO@@@std@@@3@$0A@@std@@@2@@Z ENDP ; std::_Tree<std::_Tmap_traits<int,MYLIST_COLUMN_INFO,std::less<int>,std::allocator<std::pair<int const ,MYLIST_COLUMN_INFO> >,0> >::_Myval
_TEXT	ENDS
PUBLIC	??0?$pair@Viterator@?$_Tree@V?$_Tmap_traits@HUMYLIST_COLUMN_INFO@@U?$less@H@std@@V?$allocator@U?$pair@$$CBHUMYLIST_COLUMN_INFO@@@std@@@3@$0A@@std@@@std@@_N@std@@QAE@ABViterator@?$_Tree@V?$_Tmap_traits@HUMYLIST_COLUMN_INFO@@U?$less@H@std@@V?$allocator@U?$pair@$$CBHUMYLIST_COLUMN_INFO@@@std@@@3@$0A@@std@@@1@AB_N@Z ; std::pair<std::_Tree<std::_Tmap_traits<int,MYLIST_COLUMN_INFO,std::less<int>,std::allocator<std::pair<int const ,MYLIST_COLUMN_INFO> >,0> >::iterator,bool>::pair<std::_Tree<std::_Tmap_traits<int,MYLIST_COLUMN_INFO,std::less<int>,std::allocator<std::pair<int const ,MYLIST_COLUMN_INFO> >,0> >::iterator,bool>
; Function compile flags: /Odt /RTCsu
;	COMDAT ?insert@?$_Tree@V?$_Tmap_traits@HUMYLIST_COLUMN_INFO@@U?$less@H@std@@V?$allocator@U?$pair@$$CBHUMYLIST_COLUMN_INFO@@@std@@@3@$0A@@std@@@std@@QAE?AU?$pair@Viterator@?$_Tree@V?$_Tmap_traits@HUMYLIST_COLUMN_INFO@@U?$less@H@std@@V?$allocator@U?$pair@$$CBHUMYLIST_COLUMN_INFO@@@std@@@3@$0A@@std@@@std@@_N@2@ABU?$pair@$$CBHUMYLIST_COLUMN_INFO@@@2@@Z
_TEXT	SEGMENT
tv85 = -64						; size = 4
$T192090 = -57						; size = 1
$T192089 = -56						; size = 4
$T192088 = -49						; size = 1
$T192087 = -48						; size = 4
$T192086 = -41						; size = 1
$T192085 = -40						; size = 4
$T192084 = -36						; size = 4
$T192083 = -29						; size = 1
__Where$190525 = -24					; size = 4
__Addleft$ = -13					; size = 1
__Wherenode$ = -12					; size = 4
__Trynode$ = -8						; size = 4
_this$ = -4						; size = 4
___$ReturnUdt$ = 8					; size = 4
__Val$ = 12						; size = 4
?insert@?$_Tree@V?$_Tmap_traits@HUMYLIST_COLUMN_INFO@@U?$less@H@std@@V?$allocator@U?$pair@$$CBHUMYLIST_COLUMN_INFO@@@std@@@3@$0A@@std@@@std@@QAE?AU?$pair@Viterator@?$_Tree@V?$_Tmap_traits@HUMYLIST_COLUMN_INFO@@U?$less@H@std@@V?$allocator@U?$pair@$$CBHUMYLIST_COLUMN_INFO@@@std@@@3@$0A@@std@@@std@@_N@2@ABU?$pair@$$CBHUMYLIST_COLUMN_INFO@@@2@@Z PROC NEAR ; std::_Tree<std::_Tmap_traits<int,MYLIST_COLUMN_INFO,std::less<int>,std::allocator<std::pair<int const ,MYLIST_COLUMN_INFO> >,0> >::insert, COMDAT
; _this$ = ecx

; 477  : 		{	// try to insert node with value _Val

  00000	55		 push	 ebp
  00001	8b ec		 mov	 ebp, esp
  00003	83 ec 40	 sub	 esp, 64			; 00000040H
  00006	57		 push	 edi
  00007	51		 push	 ecx
  00008	8d 7d c0	 lea	 edi, DWORD PTR [ebp-64]
  0000b	b9 10 00 00 00	 mov	 ecx, 16			; 00000010H
  00010	b8 cc cc cc cc	 mov	 eax, -858993460		; ccccccccH
  00015	f3 ab		 rep stosd
  00017	59		 pop	 ecx
  00018	89 4d fc	 mov	 DWORD PTR _this$[ebp], ecx

; 478  : 		_Nodeptr _Trynode = _Root();

  0001b	8b 4d fc	 mov	 ecx, DWORD PTR _this$[ebp]
  0001e	e8 00 00 00 00	 call	 ?_Root@?$_Tree@V?$_Tmap_traits@HUMYLIST_COLUMN_INFO@@U?$less@H@std@@V?$allocator@U?$pair@$$CBHUMYLIST_COLUMN_INFO@@@std@@@3@$0A@@std@@@std@@IAEAAPAU_Node@?$_Tree_nod@V?$_Tmap_traits@HUMYLIST_COLUMN_INFO@@U?$less@H@std@@V?$allocator@U?$pair@$$CBHUMYLIST_COLUMN_INFO@@@std@@@3@$0A@@std@@@2@XZ ; std::_Tree<std::_Tmap_traits<int,MYLIST_COLUMN_INFO,std::less<int>,std::allocator<std::pair<int const ,MYLIST_COLUMN_INFO> >,0> >::_Root
  00023	8b 00		 mov	 eax, DWORD PTR [eax]
  00025	89 45 f8	 mov	 DWORD PTR __Trynode$[ebp], eax

; 479  : 		_Nodeptr _Wherenode = _Myhead;

  00028	8b 4d fc	 mov	 ecx, DWORD PTR _this$[ebp]
  0002b	8b 51 04	 mov	 edx, DWORD PTR [ecx+4]
  0002e	89 55 f4	 mov	 DWORD PTR __Wherenode$[ebp], edx

; 480  : 		bool _Addleft = true;	// add to left of head if tree empty

  00031	c6 45 f3 01	 mov	 BYTE PTR __Addleft$[ebp], 1
$L190514:

; 481  : 		while (!_Isnil(_Trynode))

  00035	8b 45 f8	 mov	 eax, DWORD PTR __Trynode$[ebp]
  00038	50		 push	 eax
  00039	e8 00 00 00 00	 call	 ?_Isnil@?$_Tree@V?$_Tmap_traits@HUMYLIST_COLUMN_INFO@@U?$less@H@std@@V?$allocator@U?$pair@$$CBHUMYLIST_COLUMN_INFO@@@std@@@3@$0A@@std@@@std@@KAAADPAU_Node@?$_Tree_nod@V?$_Tmap_traits@HUMYLIST_COLUMN_INFO@@U?$less@H@std@@V?$allocator@U?$pair@$$CBHUMYLIST_COLUMN_INFO@@@std@@@3@$0A@@std@@@2@@Z ; std::_Tree<std::_Tmap_traits<int,MYLIST_COLUMN_INFO,std::less<int>,std::allocator<std::pair<int const ,MYLIST_COLUMN_INFO> >,0> >::_Isnil
  0003e	83 c4 04	 add	 esp, 4
  00041	0f be 08	 movsx	 ecx, BYTE PTR [eax]
  00044	85 c9		 test	 ecx, ecx
  00046	75 5f		 jne	 SHORT $L190515

; 482  : 			{	// look for leaf to insert before (_Addleft) or after
; 483  : 			_Wherenode = _Trynode;

  00048	8b 55 f8	 mov	 edx, DWORD PTR __Trynode$[ebp]
  0004b	89 55 f4	 mov	 DWORD PTR __Wherenode$[ebp], edx

; 484  : 			_Addleft = this->comp(this->_Kfn(_Val), _Key(_Trynode));

  0004e	8b 45 f8	 mov	 eax, DWORD PTR __Trynode$[ebp]
  00051	50		 push	 eax
  00052	e8 00 00 00 00	 call	 ?_Key@?$_Tree@V?$_Tmap_traits@HUMYLIST_COLUMN_INFO@@U?$less@H@std@@V?$allocator@U?$pair@$$CBHUMYLIST_COLUMN_INFO@@@std@@@3@$0A@@std@@@std@@KAABHPAU_Node@?$_Tree_nod@V?$_Tmap_traits@HUMYLIST_COLUMN_INFO@@U?$less@H@std@@V?$allocator@U?$pair@$$CBHUMYLIST_COLUMN_INFO@@@std@@@3@$0A@@std@@@2@@Z ; std::_Tree<std::_Tmap_traits<int,MYLIST_COLUMN_INFO,std::less<int>,std::allocator<std::pair<int const ,MYLIST_COLUMN_INFO> >,0> >::_Key
  00057	83 c4 04	 add	 esp, 4
  0005a	50		 push	 eax
  0005b	8b 4d 0c	 mov	 ecx, DWORD PTR __Val$[ebp]
  0005e	51		 push	 ecx
  0005f	e8 00 00 00 00	 call	 ?_Kfn@?$_Tmap_traits@HUMYLIST_COLUMN_INFO@@U?$less@H@std@@V?$allocator@U?$pair@$$CBHUMYLIST_COLUMN_INFO@@@std@@@3@$0A@@std@@SAABHABU?$pair@$$CBHUMYLIST_COLUMN_INFO@@@2@@Z ; std::_Tmap_traits<int,MYLIST_COLUMN_INFO,std::less<int>,std::allocator<std::pair<int const ,MYLIST_COLUMN_INFO> >,0>::_Kfn
  00064	83 c4 04	 add	 esp, 4
  00067	50		 push	 eax
  00068	8b 4d fc	 mov	 ecx, DWORD PTR _this$[ebp]
  0006b	e8 00 00 00 00	 call	 ??R?$less@H@std@@QBE_NABH0@Z ; std::less<int>::operator()
  00070	88 45 f3	 mov	 BYTE PTR __Addleft$[ebp], al

; 485  : 			_Trynode = _Addleft ? _Left(_Trynode) : _Right(_Trynode);

  00073	0f b6 55 f3	 movzx	 edx, BYTE PTR __Addleft$[ebp]
  00077	85 d2		 test	 edx, edx
  00079	74 13		 je	 SHORT $L192081
  0007b	8b 45 f8	 mov	 eax, DWORD PTR __Trynode$[ebp]
  0007e	50		 push	 eax
  0007f	e8 00 00 00 00	 call	 ?_Left@?$_Tree@V?$_Tmap_traits@HUMYLIST_COLUMN_INFO@@U?$less@H@std@@V?$allocator@U?$pair@$$CBHUMYLIST_COLUMN_INFO@@@std@@@3@$0A@@std@@@std@@KAAAPAU_Node@?$_Tree_nod@V?$_Tmap_traits@HUMYLIST_COLUMN_INFO@@U?$less@H@std@@V?$allocator@U?$pair@$$CBHUMYLIST_COLUMN_INFO@@@std@@@3@$0A@@std@@@2@PAU342@@Z ; std::_Tree<std::_Tmap_traits<int,MYLIST_COLUMN_INFO,std::less<int>,std::allocator<std::pair<int const ,MYLIST_COLUMN_INFO> >,0> >::_Left
  00084	83 c4 04	 add	 esp, 4
  00087	8b 08		 mov	 ecx, DWORD PTR [eax]
  00089	89 4d c0	 mov	 DWORD PTR tv85[ebp], ecx
  0008c	eb 11		 jmp	 SHORT $L192082
$L192081:
  0008e	8b 55 f8	 mov	 edx, DWORD PTR __Trynode$[ebp]
  00091	52		 push	 edx
  00092	e8 00 00 00 00	 call	 ?_Right@?$_Tree@V?$_Tmap_traits@HUMYLIST_COLUMN_INFO@@U?$less@H@std@@V?$allocator@U?$pair@$$CBHUMYLIST_COLUMN_INFO@@@std@@@3@$0A@@std@@@std@@KAAAPAU_Node@?$_Tree_nod@V?$_Tmap_traits@HUMYLIST_COLUMN_INFO@@U?$less@H@std@@V?$allocator@U?$pair@$$CBHUMYLIST_COLUMN_INFO@@@std@@@3@$0A@@std@@@2@PAU342@@Z ; std::_Tree<std::_Tmap_traits<int,MYLIST_COLUMN_INFO,std::less<int>,std::allocator<std::pair<int const ,MYLIST_COLUMN_INFO> >,0> >::_Right
  00097	83 c4 04	 add	 esp, 4
  0009a	8b 00		 mov	 eax, DWORD PTR [eax]
  0009c	89 45 c0	 mov	 DWORD PTR tv85[ebp], eax
$L192082:
  0009f	8b 4d c0	 mov	 ecx, DWORD PTR tv85[ebp]
  000a2	89 4d f8	 mov	 DWORD PTR __Trynode$[ebp], ecx

; 486  : 			}

  000a5	eb 8e		 jmp	 SHORT $L190514
$L190515:

; 487  : 
; 488  : 		if (this->_Multi)

  000a7	33 d2		 xor	 edx, edx
  000a9	74 31		 je	 SHORT $L190516

; 489  : 			return (_Pairib(_Insert(_Addleft, _Wherenode, _Val), true));

  000ab	c6 45 e3 01	 mov	 BYTE PTR $T192083[ebp], 1
  000af	8d 45 e3	 lea	 eax, DWORD PTR $T192083[ebp]
  000b2	50		 push	 eax
  000b3	8b 4d 0c	 mov	 ecx, DWORD PTR __Val$[ebp]
  000b6	51		 push	 ecx
  000b7	8b 55 f4	 mov	 edx, DWORD PTR __Wherenode$[ebp]
  000ba	52		 push	 edx
  000bb	8a 45 f3	 mov	 al, BYTE PTR __Addleft$[ebp]
  000be	50		 push	 eax
  000bf	8d 4d dc	 lea	 ecx, DWORD PTR $T192084[ebp]
  000c2	51		 push	 ecx
  000c3	8b 4d fc	 mov	 ecx, DWORD PTR _this$[ebp]
  000c6	e8 00 00 00 00	 call	 ?_Insert@?$_Tree@V?$_Tmap_traits@HUMYLIST_COLUMN_INFO@@U?$less@H@std@@V?$allocator@U?$pair@$$CBHUMYLIST_COLUMN_INFO@@@std@@@3@$0A@@std@@@std@@IAE?AViterator@12@_NPAU_Node@?$_Tree_nod@V?$_Tmap_traits@HUMYLIST_COLUMN_INFO@@U?$less@H@std@@V?$allocator@U?$pair@$$CBHUMYLIST_COLUMN_INFO@@@std@@@3@$0A@@std@@@2@ABU?$pair@$$CBHUMYLIST_COLUMN_INFO@@@2@@Z ; std::_Tree<std::_Tmap_traits<int,MYLIST_COLUMN_INFO,std::less<int>,std::allocator<std::pair<int const ,MYLIST_COLUMN_INFO> >,0> >::_Insert
  000cb	50		 push	 eax
  000cc	8b 4d 08	 mov	 ecx, DWORD PTR ___$ReturnUdt$[ebp]
  000cf	e8 00 00 00 00	 call	 ??0?$pair@Viterator@?$_Tree@V?$_Tmap_traits@HUMYLIST_COLUMN_INFO@@U?$less@H@std@@V?$allocator@U?$pair@$$CBHUMYLIST_COLUMN_INFO@@@std@@@3@$0A@@std@@@std@@_N@std@@QAE@ABViterator@?$_Tree@V?$_Tmap_traits@HUMYLIST_COLUMN_INFO@@U?$less@H@std@@V?$allocator@U?$pair@$$CBHUMYLIST_COLUMN_INFO@@@std@@@3@$0A@@std@@@1@AB_N@Z ; std::pair<std::_Tree<std::_Tmap_traits<int,MYLIST_COLUMN_INFO,std::less<int>,std::allocator<std::pair<int const ,MYLIST_COLUMN_INFO> >,0> >::iterator,bool>::pair<std::_Tree<std::_Tmap_traits<int,MYLIST_COLUMN_INFO,std::less<int>,std::allocator<std::pair<int const ,MYLIST_COLUMN_INFO> >,0> >::iterator,bool>
  000d4	8b 45 08	 mov	 eax, DWORD PTR ___$ReturnUdt$[ebp]
  000d7	e9 d9 00 00 00	 jmp	 $L190509
$L190516:

; 490  : 		else
; 491  : 			{	// insert only if unique
; 492  : 			iterator _Where = _TREE_ITERATOR(_Wherenode);

  000dc	8b 55 f4	 mov	 edx, DWORD PTR __Wherenode$[ebp]
  000df	52		 push	 edx
  000e0	8d 4d e8	 lea	 ecx, DWORD PTR __Where$190525[ebp]
  000e3	e8 00 00 00 00	 call	 ??0iterator@?$_Tree@V?$_Tmap_traits@HUMYLIST_COLUMN_INFO@@U?$less@H@std@@V?$allocator@U?$pair@$$CBHUMYLIST_COLUMN_INFO@@@std@@@3@$0A@@std@@@std@@QAE@PAU_Node@?$_Tree_nod@V?$_Tmap_traits@HUMYLIST_COLUMN_INFO@@U?$less@H@std@@V?$allocator@U?$pair@$$CBHUMYLIST_COLUMN_INFO@@@std@@@3@$0A@@std@@@2@@Z ; std::_Tree<std::_Tmap_traits<int,MYLIST_COLUMN_INFO,std::less<int>,std::allocator<std::pair<int const ,MYLIST_COLUMN_INFO> >,0> >::iterator::iterator

; 493  : 			if (!_Addleft)

  000e8	0f b6 45 f3	 movzx	 eax, BYTE PTR __Addleft$[ebp]
  000ec	85 c0		 test	 eax, eax
  000ee	75 02		 jne	 SHORT $L190527

; 494  : 				;	// need to test if insert after is okay
; 495  : 			else if (_Where == begin())

  000f0	eb 50		 jmp	 SHORT $L190528
$L190527:
  000f2	8d 4d d8	 lea	 ecx, DWORD PTR $T192085[ebp]
  000f5	51		 push	 ecx
  000f6	8b 4d fc	 mov	 ecx, DWORD PTR _this$[ebp]
  000f9	e8 00 00 00 00	 call	 ?begin@?$_Tree@V?$_Tmap_traits@HUMYLIST_COLUMN_INFO@@U?$less@H@std@@V?$allocator@U?$pair@$$CBHUMYLIST_COLUMN_INFO@@@std@@@3@$0A@@std@@@std@@QAE?AViterator@12@XZ ; std::_Tree<std::_Tmap_traits<int,MYLIST_COLUMN_INFO,std::less<int>,std::allocator<std::pair<int const ,MYLIST_COLUMN_INFO> >,0> >::begin
  000fe	50		 push	 eax
  000ff	8d 4d e8	 lea	 ecx, DWORD PTR __Where$190525[ebp]
  00102	e8 00 00 00 00	 call	 ??8const_iterator@?$_Tree@V?$_Tmap_traits@HUMYLIST_COLUMN_INFO@@U?$less@H@std@@V?$allocator@U?$pair@$$CBHUMYLIST_COLUMN_INFO@@@std@@@3@$0A@@std@@@std@@QBE_NABV012@@Z ; std::_Tree<std::_Tmap_traits<int,MYLIST_COLUMN_INFO,std::less<int>,std::allocator<std::pair<int const ,MYLIST_COLUMN_INFO> >,0> >::const_iterator::operator==
  00107	0f b6 d0	 movzx	 edx, al
  0010a	85 d2		 test	 edx, edx
  0010c	74 2c		 je	 SHORT $L190530

; 496  : 				return (_Pairib(_Insert(true, _Wherenode, _Val), true));

  0010e	c6 45 d7 01	 mov	 BYTE PTR $T192086[ebp], 1
  00112	8d 45 d7	 lea	 eax, DWORD PTR $T192086[ebp]
  00115	50		 push	 eax
  00116	8b 4d 0c	 mov	 ecx, DWORD PTR __Val$[ebp]
  00119	51		 push	 ecx
  0011a	8b 55 f4	 mov	 edx, DWORD PTR __Wherenode$[ebp]
  0011d	52		 push	 edx
  0011e	6a 01		 push	 1
  00120	8d 45 d0	 lea	 eax, DWORD PTR $T192087[ebp]
  00123	50		 push	 eax
  00124	8b 4d fc	 mov	 ecx, DWORD PTR _this$[ebp]
  00127	e8 00 00 00 00	 call	 ?_Insert@?$_Tree@V?$_Tmap_traits@HUMYLIST_COLUMN_INFO@@U?$less@H@std@@V?$allocator@U?$pair@$$CBHUMYLIST_COLUMN_INFO@@@std@@@3@$0A@@std@@@std@@IAE?AViterator@12@_NPAU_Node@?$_Tree_nod@V?$_Tmap_traits@HUMYLIST_COLUMN_INFO@@U?$less@H@std@@V?$allocator@U?$pair@$$CBHUMYLIST_COLUMN_INFO@@@std@@@3@$0A@@std@@@2@ABU?$pair@$$CBHUMYLIST_COLUMN_INFO@@@2@@Z ; std::_Tree<std::_Tmap_traits<int,MYLIST_COLUMN_INFO,std::less<int>,std::allocator<std::pair<int const ,MYLIST_COLUMN_INFO> >,0> >::_Insert
  0012c	50		 push	 eax
  0012d	8b 4d 08	 mov	 ecx, DWORD PTR ___$ReturnUdt$[ebp]
  00130	e8 00 00 00 00	 call	 ??0?$pair@Viterator@?$_Tree@V?$_Tmap_traits@HUMYLIST_COLUMN_INFO@@U?$less@H@std@@V?$allocator@U?$pair@$$CBHUMYLIST_COLUMN_INFO@@@std@@@3@$0A@@std@@@std@@_N@std@@QAE@ABViterator@?$_Tree@V?$_Tmap_traits@HUMYLIST_COLUMN_INFO@@U?$less@H@std@@V?$allocator@U?$pair@$$CBHUMYLIST_COLUMN_INFO@@@std@@@3@$0A@@std@@@1@AB_N@Z ; std::pair<std::_Tree<std::_Tmap_traits<int,MYLIST_COLUMN_INFO,std::less<int>,std::allocator<std::pair<int const ,MYLIST_COLUMN_INFO> >,0> >::iterator,bool>::pair<std::_Tree<std::_Tmap_traits<int,MYLIST_COLUMN_INFO,std::less<int>,std::allocator<std::pair<int const ,MYLIST_COLUMN_INFO> >,0> >::iterator,bool>
  00135	8b 45 08	 mov	 eax, DWORD PTR ___$ReturnUdt$[ebp]
  00138	eb 7b		 jmp	 SHORT $L190509
$L190530:

; 497  : 			else
; 498  : 				--_Where;	// need to test if insert before is okay

  0013a	8d 4d e8	 lea	 ecx, DWORD PTR __Where$190525[ebp]
  0013d	e8 00 00 00 00	 call	 ??Fiterator@?$_Tree@V?$_Tmap_traits@HUMYLIST_COLUMN_INFO@@U?$less@H@std@@V?$allocator@U?$pair@$$CBHUMYLIST_COLUMN_INFO@@@std@@@3@$0A@@std@@@std@@QAEAAV012@XZ ; std::_Tree<std::_Tmap_traits<int,MYLIST_COLUMN_INFO,std::less<int>,std::allocator<std::pair<int const ,MYLIST_COLUMN_INFO> >,0> >::iterator::operator--
$L190528:

; 499  : 
; 500  : 			if (this->comp(_Key(_Where._Mynode()), this->_Kfn(_Val)))

  00142	8b 4d 0c	 mov	 ecx, DWORD PTR __Val$[ebp]
  00145	51		 push	 ecx
  00146	e8 00 00 00 00	 call	 ?_Kfn@?$_Tmap_traits@HUMYLIST_COLUMN_INFO@@U?$less@H@std@@V?$allocator@U?$pair@$$CBHUMYLIST_COLUMN_INFO@@@std@@@3@$0A@@std@@SAABHABU?$pair@$$CBHUMYLIST_COLUMN_INFO@@@2@@Z ; std::_Tmap_traits<int,MYLIST_COLUMN_INFO,std::less<int>,std::allocator<std::pair<int const ,MYLIST_COLUMN_INFO> >,0>::_Kfn
  0014b	83 c4 04	 add	 esp, 4
  0014e	50		 push	 eax
  0014f	8d 4d e8	 lea	 ecx, DWORD PTR __Where$190525[ebp]
  00152	e8 00 00 00 00	 call	 ?_Mynode@const_iterator@?$_Tree@V?$_Tmap_traits@HUMYLIST_COLUMN_INFO@@U?$less@H@std@@V?$allocator@U?$pair@$$CBHUMYLIST_COLUMN_INFO@@@std@@@3@$0A@@std@@@std@@QBEPAU_Node@?$_Tree_nod@V?$_Tmap_traits@HUMYLIST_COLUMN_INFO@@U?$less@H@std@@V?$allocator@U?$pair@$$CBHUMYLIST_COLUMN_INFO@@@std@@@3@$0A@@std@@@3@XZ ; std::_Tree<std::_Tmap_traits<int,MYLIST_COLUMN_INFO,std::less<int>,std::allocator<std::pair<int const ,MYLIST_COLUMN_INFO> >,0> >::const_iterator::_Mynode
  00157	50		 push	 eax
  00158	e8 00 00 00 00	 call	 ?_Key@?$_Tree@V?$_Tmap_traits@HUMYLIST_COLUMN_INFO@@U?$less@H@std@@V?$allocator@U?$pair@$$CBHUMYLIST_COLUMN_INFO@@@std@@@3@$0A@@std@@@std@@KAABHPAU_Node@?$_Tree_nod@V?$_Tmap_traits@HUMYLIST_COLUMN_INFO@@U?$less@H@std@@V?$allocator@U?$pair@$$CBHUMYLIST_COLUMN_INFO@@@std@@@3@$0A@@std@@@2@@Z ; std::_Tree<std::_Tmap_traits<int,MYLIST_COLUMN_INFO,std::less<int>,std::allocator<std::pair<int const ,MYLIST_COLUMN_INFO> >,0> >::_Key
  0015d	83 c4 04	 add	 esp, 4
  00160	50		 push	 eax
  00161	8b 4d fc	 mov	 ecx, DWORD PTR _this$[ebp]
  00164	e8 00 00 00 00	 call	 ??R?$less@H@std@@QBE_NABH0@Z ; std::less<int>::operator()
  00169	0f b6 d0	 movzx	 edx, al
  0016c	85 d2		 test	 edx, edx
  0016e	74 2e		 je	 SHORT $L190535

; 501  : 				return (_Pairib(_Insert(_Addleft, _Wherenode, _Val), true));

  00170	c6 45 cf 01	 mov	 BYTE PTR $T192088[ebp], 1
  00174	8d 45 cf	 lea	 eax, DWORD PTR $T192088[ebp]
  00177	50		 push	 eax
  00178	8b 4d 0c	 mov	 ecx, DWORD PTR __Val$[ebp]
  0017b	51		 push	 ecx
  0017c	8b 55 f4	 mov	 edx, DWORD PTR __Wherenode$[ebp]
  0017f	52		 push	 edx
  00180	8a 45 f3	 mov	 al, BYTE PTR __Addleft$[ebp]
  00183	50		 push	 eax
  00184	8d 4d c8	 lea	 ecx, DWORD PTR $T192089[ebp]
  00187	51		 push	 ecx
  00188	8b 4d fc	 mov	 ecx, DWORD PTR _this$[ebp]
  0018b	e8 00 00 00 00	 call	 ?_Insert@?$_Tree@V?$_Tmap_traits@HUMYLIST_COLUMN_INFO@@U?$less@H@std@@V?$allocator@U?$pair@$$CBHUMYLIST_COLUMN_INFO@@@std@@@3@$0A@@std@@@std@@IAE?AViterator@12@_NPAU_Node@?$_Tree_nod@V?$_Tmap_traits@HUMYLIST_COLUMN_INFO@@U?$less@H@std@@V?$allocator@U?$pair@$$CBHUMYLIST_COLUMN_INFO@@@std@@@3@$0A@@std@@@2@ABU?$pair@$$CBHUMYLIST_COLUMN_INFO@@@2@@Z ; std::_Tree<std::_Tmap_traits<int,MYLIST_COLUMN_INFO,std::less<int>,std::allocator<std::pair<int const ,MYLIST_COLUMN_INFO> >,0> >::_Insert
  00190	50		 push	 eax
  00191	8b 4d 08	 mov	 ecx, DWORD PTR ___$ReturnUdt$[ebp]
  00194	e8 00 00 00 00	 call	 ??0?$pair@Viterator@?$_Tree@V?$_Tmap_traits@HUMYLIST_COLUMN_INFO@@U?$less@H@std@@V?$allocator@U?$pair@$$CBHUMYLIST_COLUMN_INFO@@@std@@@3@$0A@@std@@@std@@_N@std@@QAE@ABViterator@?$_Tree@V?$_Tmap_traits@HUMYLIST_COLUMN_INFO@@U?$less@H@std@@V?$allocator@U?$pair@$$CBHUMYLIST_COLUMN_INFO@@@std@@@3@$0A@@std@@@1@AB_N@Z ; std::pair<std::_Tree<std::_Tmap_traits<int,MYLIST_COLUMN_INFO,std::less<int>,std::allocator<std::pair<int const ,MYLIST_COLUMN_INFO> >,0> >::iterator,bool>::pair<std::_Tree<std::_Tmap_traits<int,MYLIST_COLUMN_INFO,std::less<int>,std::allocator<std::pair<int const ,MYLIST_COLUMN_INFO> >,0> >::iterator,bool>
  00199	8b 45 08	 mov	 eax, DWORD PTR ___$ReturnUdt$[ebp]
  0019c	eb 17		 jmp	 SHORT $L190509
$L190535:

; 502  : 			else
; 503  : 				return (_Pairib(_Where, false));

  0019e	c6 45 c7 00	 mov	 BYTE PTR $T192090[ebp], 0
  001a2	8d 55 c7	 lea	 edx, DWORD PTR $T192090[ebp]
  001a5	52		 push	 edx
  001a6	8d 45 e8	 lea	 eax, DWORD PTR __Where$190525[ebp]
  001a9	50		 push	 eax
  001aa	8b 4d 08	 mov	 ecx, DWORD PTR ___$ReturnUdt$[ebp]
  001ad	e8 00 00 00 00	 call	 ??0?$pair@Viterator@?$_Tree@V?$_Tmap_traits@HUMYLIST_COLUMN_INFO@@U?$less@H@std@@V?$allocator@U?$pair@$$CBHUMYLIST_COLUMN_INFO@@@std@@@3@$0A@@std@@@std@@_N@std@@QAE@ABViterator@?$_Tree@V?$_Tmap_traits@HUMYLIST_COLUMN_INFO@@U?$less@H@std@@V?$allocator@U?$pair@$$CBHUMYLIST_COLUMN_INFO@@@std@@@3@$0A@@std@@@1@AB_N@Z ; std::pair<std::_Tree<std::_Tmap_traits<int,MYLIST_COLUMN_INFO,std::less<int>,std::allocator<std::pair<int const ,MYLIST_COLUMN_INFO> >,0> >::iterator,bool>::pair<std::_Tree<std::_Tmap_traits<int,MYLIST_COLUMN_INFO,std::less<int>,std::allocator<std::pair<int const ,MYLIST_COLUMN_INFO> >,0> >::iterator,bool>
  001b2	8b 45 08	 mov	 eax, DWORD PTR ___$ReturnUdt$[ebp]
$L190509:

; 504  : 			}
; 505  : 		}

  001b5	52		 push	 edx
  001b6	8b cd		 mov	 ecx, ebp
  001b8	50		 push	 eax
  001b9	8d 15 00 00 00
	00		 lea	 edx, DWORD PTR $L192093
  001bf	e8 00 00 00 00	 call	 @_RTC_CheckStackVars@8
  001c4	58		 pop	 eax
  001c5	5a		 pop	 edx
  001c6	5f		 pop	 edi
  001c7	83 c4 40	 add	 esp, 64			; 00000040H
  001ca	3b ec		 cmp	 ebp, esp
  001cc	e8 00 00 00 00	 call	 __RTC_CheckEsp
  001d1	8b e5		 mov	 esp, ebp
  001d3	5d		 pop	 ebp
  001d4	c2 08 00	 ret	 8
$L192093:
  001d7	01 00 00 00	 DD	 1
  001db	00 00 00 00	 DD	 $L192092
$L192092:
  001df	e8 ff ff ff	 DD	 -24			; ffffffe8H
  001e3	04 00 00 00	 DD	 4
  001e7	00 00 00 00	 DD	 $L192091
$L192091:
  001eb	5f		 DB	 95			; 0000005fH
  001ec	57		 DB	 87			; 00000057H
  001ed	68		 DB	 104			; 00000068H
  001ee	65		 DB	 101			; 00000065H
  001ef	72		 DB	 114			; 00000072H
  001f0	65		 DB	 101			; 00000065H
  001f1	00		 DB	 0
?insert@?$_Tree@V?$_Tmap_traits@HUMYLIST_COLUMN_INFO@@U?$less@H@std@@V?$allocator@U?$pair@$$CBHUMYLIST_COLUMN_INFO@@@std@@@3@$0A@@std@@@std@@QAE?AU?$pair@Viterator@?$_Tree@V?$_Tmap_traits@HUMYLIST_COLUMN_INFO@@U?$less@H@std@@V?$allocator@U?$pair@$$CBHUMYLIST_COLUMN_INFO@@@std@@@3@$0A@@std@@@std@@_N@2@ABU?$pair@$$CBHUMYLIST_COLUMN_INFO@@@2@@Z ENDP ; std::_Tree<std::_Tmap_traits<int,MYLIST_COLUMN_INFO,std::less<int>,std::allocator<std::pair<int const ,MYLIST_COLUMN_INFO> >,0> >::insert
_TEXT	ENDS
PUBLIC	?erase@?$_Tree@V?$_Tmap_traits@HUMYLIST_COLUMN_INFO@@U?$less@H@std@@V?$allocator@U?$pair@$$CBHUMYLIST_COLUMN_INFO@@@std@@@3@$0A@@std@@@std@@QAE?AViterator@12@V312@@Z ; std::_Tree<std::_Tmap_traits<int,MYLIST_COLUMN_INFO,std::less<int>,std::allocator<std::pair<int const ,MYLIST_COLUMN_INFO> >,0> >::erase
; Function compile flags: /Odt /RTCsu
;	COMDAT ?erase@?$_Tree@V?$_Tmap_traits@HUMYLIST_COLUMN_INFO@@U?$less@H@std@@V?$allocator@U?$pair@$$CBHUMYLIST_COLUMN_INFO@@@std@@@3@$0A@@std@@@std@@QAE?AViterator@12@V312@0@Z
_TEXT	SEGMENT
$T192098 = -20						; size = 4
$T192097 = -16						; size = 4
$T192096 = -12						; size = 4
$T192095 = -8						; size = 4
_this$ = -4						; size = 4
___$ReturnUdt$ = 8					; size = 4
__First$ = 12						; size = 4
__Last$ = 16						; size = 4
?erase@?$_Tree@V?$_Tmap_traits@HUMYLIST_COLUMN_INFO@@U?$less@H@std@@V?$allocator@U?$pair@$$CBHUMYLIST_COLUMN_INFO@@@std@@@3@$0A@@std@@@std@@QAE?AViterator@12@V312@0@Z PROC NEAR ; std::_Tree<std::_Tmap_traits<int,MYLIST_COLUMN_INFO,std::less<int>,std::allocator<std::pair<int const ,MYLIST_COLUMN_INFO> >,0> >::erase, COMDAT
; _this$ = ecx

; 750  : 		{	// erase [_First, _Last)

  00000	55		 push	 ebp
  00001	8b ec		 mov	 ebp, esp
  00003	83 ec 14	 sub	 esp, 20			; 00000014H
  00006	b8 cc cc cc cc	 mov	 eax, -858993460		; ccccccccH
  0000b	89 45 ec	 mov	 DWORD PTR [ebp-20], eax
  0000e	89 45 f0	 mov	 DWORD PTR [ebp-16], eax
  00011	89 45 f4	 mov	 DWORD PTR [ebp-12], eax
  00014	89 45 f8	 mov	 DWORD PTR [ebp-8], eax
  00017	89 45 fc	 mov	 DWORD PTR [ebp-4], eax
  0001a	89 4d fc	 mov	 DWORD PTR _this$[ebp], ecx

; 751  : 		if (_First == begin() && _Last == end())

  0001d	8d 45 f8	 lea	 eax, DWORD PTR $T192095[ebp]
  00020	50		 push	 eax
  00021	8b 4d fc	 mov	 ecx, DWORD PTR _this$[ebp]
  00024	e8 00 00 00 00	 call	 ?begin@?$_Tree@V?$_Tmap_traits@HUMYLIST_COLUMN_INFO@@U?$less@H@std@@V?$allocator@U?$pair@$$CBHUMYLIST_COLUMN_INFO@@@std@@@3@$0A@@std@@@std@@QAE?AViterator@12@XZ ; std::_Tree<std::_Tmap_traits<int,MYLIST_COLUMN_INFO,std::less<int>,std::allocator<std::pair<int const ,MYLIST_COLUMN_INFO> >,0> >::begin
  00029	50		 push	 eax
  0002a	8d 4d 0c	 lea	 ecx, DWORD PTR __First$[ebp]
  0002d	e8 00 00 00 00	 call	 ??8const_iterator@?$_Tree@V?$_Tmap_traits@HUMYLIST_COLUMN_INFO@@U?$less@H@std@@V?$allocator@U?$pair@$$CBHUMYLIST_COLUMN_INFO@@@std@@@3@$0A@@std@@@std@@QBE_NABV012@@Z ; std::_Tree<std::_Tmap_traits<int,MYLIST_COLUMN_INFO,std::less<int>,std::allocator<std::pair<int const ,MYLIST_COLUMN_INFO> >,0> >::const_iterator::operator==
  00032	0f b6 c8	 movzx	 ecx, al
  00035	85 c9		 test	 ecx, ecx
  00037	74 35		 je	 SHORT $L190551
  00039	8d 55 f4	 lea	 edx, DWORD PTR $T192096[ebp]
  0003c	52		 push	 edx
  0003d	8b 4d fc	 mov	 ecx, DWORD PTR _this$[ebp]
  00040	e8 00 00 00 00	 call	 ?end@?$_Tree@V?$_Tmap_traits@HUMYLIST_COLUMN_INFO@@U?$less@H@std@@V?$allocator@U?$pair@$$CBHUMYLIST_COLUMN_INFO@@@std@@@3@$0A@@std@@@std@@QAE?AViterator@12@XZ ; std::_Tree<std::_Tmap_traits<int,MYLIST_COLUMN_INFO,std::less<int>,std::allocator<std::pair<int const ,MYLIST_COLUMN_INFO> >,0> >::end
  00045	50		 push	 eax
  00046	8d 4d 10	 lea	 ecx, DWORD PTR __Last$[ebp]
  00049	e8 00 00 00 00	 call	 ??8const_iterator@?$_Tree@V?$_Tmap_traits@HUMYLIST_COLUMN_INFO@@U?$less@H@std@@V?$allocator@U?$pair@$$CBHUMYLIST_COLUMN_INFO@@@std@@@3@$0A@@std@@@std@@QBE_NABV012@@Z ; std::_Tree<std::_Tmap_traits<int,MYLIST_COLUMN_INFO,std::less<int>,std::allocator<std::pair<int const ,MYLIST_COLUMN_INFO> >,0> >::const_iterator::operator==
  0004e	0f b6 c0	 movzx	 eax, al
  00051	85 c0		 test	 eax, eax
  00053	74 19		 je	 SHORT $L190551

; 752  : 			{	// erase all
; 753  : 			clear();

  00055	8b 4d fc	 mov	 ecx, DWORD PTR _this$[ebp]
  00058	e8 00 00 00 00	 call	 ?clear@?$_Tree@V?$_Tmap_traits@HUMYLIST_COLUMN_INFO@@U?$less@H@std@@V?$allocator@U?$pair@$$CBHUMYLIST_COLUMN_INFO@@@std@@@3@$0A@@std@@@std@@QAEXXZ ; std::_Tree<std::_Tmap_traits<int,MYLIST_COLUMN_INFO,std::less<int>,std::allocator<std::pair<int const ,MYLIST_COLUMN_INFO> >,0> >::clear

; 754  : 			return (begin());

  0005d	8b 4d 08	 mov	 ecx, DWORD PTR ___$ReturnUdt$[ebp]
  00060	51		 push	 ecx
  00061	8b 4d fc	 mov	 ecx, DWORD PTR _this$[ebp]
  00064	e8 00 00 00 00	 call	 ?begin@?$_Tree@V?$_Tmap_traits@HUMYLIST_COLUMN_INFO@@U?$less@H@std@@V?$allocator@U?$pair@$$CBHUMYLIST_COLUMN_INFO@@@std@@@3@$0A@@std@@@std@@QAE?AViterator@12@XZ ; std::_Tree<std::_Tmap_traits<int,MYLIST_COLUMN_INFO,std::less<int>,std::allocator<std::pair<int const ,MYLIST_COLUMN_INFO> >,0> >::begin
  00069	8b 45 08	 mov	 eax, DWORD PTR ___$ReturnUdt$[ebp]
  0006c	eb 3d		 jmp	 SHORT $L190544
$L190551:

; 755  : 			}
; 756  : 		else
; 757  : 			{	// partial erase, one at a time
; 758  : 			while (_First != _Last)

  0006e	8d 55 10	 lea	 edx, DWORD PTR __Last$[ebp]
  00071	52		 push	 edx
  00072	8d 4d 0c	 lea	 ecx, DWORD PTR __First$[ebp]
  00075	e8 00 00 00 00	 call	 ??9const_iterator@?$_Tree@V?$_Tmap_traits@HUMYLIST_COLUMN_INFO@@U?$less@H@std@@V?$allocator@U?$pair@$$CBHUMYLIST_COLUMN_INFO@@@std@@@3@$0A@@std@@@std@@QBE_NABV012@@Z ; std::_Tree<std::_Tmap_traits<int,MYLIST_COLUMN_INFO,std::less<int>,std::allocator<std::pair<int const ,MYLIST_COLUMN_INFO> >,0> >::const_iterator::operator!=
  0007a	0f b6 c0	 movzx	 eax, al
  0007d	85 c0		 test	 eax, eax
  0007f	74 1f		 je	 SHORT $L190552

; 759  : 				erase(_First++);

  00081	6a 00		 push	 0
  00083	8d 4d f0	 lea	 ecx, DWORD PTR $T192097[ebp]
  00086	51		 push	 ecx
  00087	8d 4d 0c	 lea	 ecx, DWORD PTR __First$[ebp]
  0008a	e8 00 00 00 00	 call	 ??Eiterator@?$_Tree@V?$_Tmap_traits@HUMYLIST_COLUMN_INFO@@U?$less@H@std@@V?$allocator@U?$pair@$$CBHUMYLIST_COLUMN_INFO@@@std@@@3@$0A@@std@@@std@@QAE?AV012@H@Z ; std::_Tree<std::_Tmap_traits<int,MYLIST_COLUMN_INFO,std::less<int>,std::allocator<std::pair<int const ,MYLIST_COLUMN_INFO> >,0> >::iterator::operator++
  0008f	8b 10		 mov	 edx, DWORD PTR [eax]
  00091	52		 push	 edx
  00092	8d 45 ec	 lea	 eax, DWORD PTR $T192098[ebp]
  00095	50		 push	 eax
  00096	8b 4d fc	 mov	 ecx, DWORD PTR _this$[ebp]
  00099	e8 00 00 00 00	 call	 ?erase@?$_Tree@V?$_Tmap_traits@HUMYLIST_COLUMN_INFO@@U?$less@H@std@@V?$allocator@U?$pair@$$CBHUMYLIST_COLUMN_INFO@@@std@@@3@$0A@@std@@@std@@QAE?AViterator@12@V312@@Z ; std::_Tree<std::_Tmap_traits<int,MYLIST_COLUMN_INFO,std::less<int>,std::allocator<std::pair<int const ,MYLIST_COLUMN_INFO> >,0> >::erase
  0009e	eb ce		 jmp	 SHORT $L190551
$L190552:

; 760  : 			return (_First);

  000a0	8b 4d 08	 mov	 ecx, DWORD PTR ___$ReturnUdt$[ebp]
  000a3	8b 55 0c	 mov	 edx, DWORD PTR __First$[ebp]
  000a6	89 11		 mov	 DWORD PTR [ecx], edx
  000a8	8b 45 08	 mov	 eax, DWORD PTR ___$ReturnUdt$[ebp]
$L190544:

; 761  : 			}
; 762  : 		}

  000ab	83 c4 14	 add	 esp, 20			; 00000014H
  000ae	3b ec		 cmp	 ebp, esp
  000b0	e8 00 00 00 00	 call	 __RTC_CheckEsp
  000b5	8b e5		 mov	 esp, ebp
  000b7	5d		 pop	 ebp
  000b8	c2 0c 00	 ret	 12			; 0000000cH
?erase@?$_Tree@V?$_Tmap_traits@HUMYLIST_COLUMN_INFO@@U?$less@H@std@@V?$allocator@U?$pair@$$CBHUMYLIST_COLUMN_INFO@@@std@@@3@$0A@@std@@@std@@QAE?AViterator@12@V312@0@Z ENDP ; std::_Tree<std::_Tmap_traits<int,MYLIST_COLUMN_INFO,std::less<int>,std::allocator<std::pair<int const ,MYLIST_COLUMN_INFO> >,0> >::erase
_TEXT	ENDS
PUBLIC	?_Buynode@?$_Tree@V?$_Tmap_traits@HUMYLIST_COLUMN_INFO@@U?$less@H@std@@V?$allocator@U?$pair@$$CBHUMYLIST_COLUMN_INFO@@@std@@@3@$0A@@std@@@std@@IAEPAU_Node@?$_Tree_nod@V?$_Tmap_traits@HUMYLIST_COLUMN_INFO@@U?$less@H@std@@V?$allocator@U?$pair@$$CBHUMYLIST_COLUMN_INFO@@@std@@@3@$0A@@std@@@2@XZ ; std::_Tree<std::_Tmap_traits<int,MYLIST_COLUMN_INFO,std::less<int>,std::allocator<std::pair<int const ,MYLIST_COLUMN_INFO> >,0> >::_Buynode
; Function compile flags: /Odt /RTCsu
;	COMDAT ?_Init@?$_Tree@V?$_Tmap_traits@HUMYLIST_COLUMN_INFO@@U?$less@H@std@@V?$allocator@U?$pair@$$CBHUMYLIST_COLUMN_INFO@@@std@@@3@$0A@@std@@@std@@IAEXXZ
_TEXT	SEGMENT
_this$ = -4						; size = 4
?_Init@?$_Tree@V?$_Tmap_traits@HUMYLIST_COLUMN_INFO@@U?$less@H@std@@V?$allocator@U?$pair@$$CBHUMYLIST_COLUMN_INFO@@@std@@@3@$0A@@std@@@std@@IAEXXZ PROC NEAR ; std::_Tree<std::_Tmap_traits<int,MYLIST_COLUMN_INFO,std::less<int>,std::allocator<std::pair<int const ,MYLIST_COLUMN_INFO> >,0> >::_Init, COMDAT
; _this$ = ecx

; 901  : 		{	// create head/nil node and make tree empty

  00000	55		 push	 ebp
  00001	8b ec		 mov	 ebp, esp
  00003	51		 push	 ecx
  00004	c7 45 fc cc cc
	cc cc		 mov	 DWORD PTR [ebp-4], -858993460 ; ccccccccH
  0000b	89 4d fc	 mov	 DWORD PTR _this$[ebp], ecx

; 902  : 		_Myhead = _Buynode();

  0000e	8b 4d fc	 mov	 ecx, DWORD PTR _this$[ebp]
  00011	e8 00 00 00 00	 call	 ?_Buynode@?$_Tree@V?$_Tmap_traits@HUMYLIST_COLUMN_INFO@@U?$less@H@std@@V?$allocator@U?$pair@$$CBHUMYLIST_COLUMN_INFO@@@std@@@3@$0A@@std@@@std@@IAEPAU_Node@?$_Tree_nod@V?$_Tmap_traits@HUMYLIST_COLUMN_INFO@@U?$less@H@std@@V?$allocator@U?$pair@$$CBHUMYLIST_COLUMN_INFO@@@std@@@3@$0A@@std@@@2@XZ ; std::_Tree<std::_Tmap_traits<int,MYLIST_COLUMN_INFO,std::less<int>,std::allocator<std::pair<int const ,MYLIST_COLUMN_INFO> >,0> >::_Buynode
  00016	8b 4d fc	 mov	 ecx, DWORD PTR _this$[ebp]
  00019	89 41 04	 mov	 DWORD PTR [ecx+4], eax

; 903  : 		_Isnil(_Myhead) = true;

  0001c	8b 55 fc	 mov	 edx, DWORD PTR _this$[ebp]
  0001f	8b 42 04	 mov	 eax, DWORD PTR [edx+4]
  00022	50		 push	 eax
  00023	e8 00 00 00 00	 call	 ?_Isnil@?$_Tree@V?$_Tmap_traits@HUMYLIST_COLUMN_INFO@@U?$less@H@std@@V?$allocator@U?$pair@$$CBHUMYLIST_COLUMN_INFO@@@std@@@3@$0A@@std@@@std@@KAAADPAU_Node@?$_Tree_nod@V?$_Tmap_traits@HUMYLIST_COLUMN_INFO@@U?$less@H@std@@V?$allocator@U?$pair@$$CBHUMYLIST_COLUMN_INFO@@@std@@@3@$0A@@std@@@2@@Z ; std::_Tree<std::_Tmap_traits<int,MYLIST_COLUMN_INFO,std::less<int>,std::allocator<std::pair<int const ,MYLIST_COLUMN_INFO> >,0> >::_Isnil
  00028	83 c4 04	 add	 esp, 4
  0002b	c6 00 01	 mov	 BYTE PTR [eax], 1

; 904  : 		_Root() = _Myhead;

  0002e	8b 4d fc	 mov	 ecx, DWORD PTR _this$[ebp]
  00031	e8 00 00 00 00	 call	 ?_Root@?$_Tree@V?$_Tmap_traits@HUMYLIST_COLUMN_INFO@@U?$less@H@std@@V?$allocator@U?$pair@$$CBHUMYLIST_COLUMN_INFO@@@std@@@3@$0A@@std@@@std@@IAEAAPAU_Node@?$_Tree_nod@V?$_Tmap_traits@HUMYLIST_COLUMN_INFO@@U?$less@H@std@@V?$allocator@U?$pair@$$CBHUMYLIST_COLUMN_INFO@@@std@@@3@$0A@@std@@@2@XZ ; std::_Tree<std::_Tmap_traits<int,MYLIST_COLUMN_INFO,std::less<int>,std::allocator<std::pair<int const ,MYLIST_COLUMN_INFO> >,0> >::_Root
  00036	8b 4d fc	 mov	 ecx, DWORD PTR _this$[ebp]
  00039	8b 51 04	 mov	 edx, DWORD PTR [ecx+4]
  0003c	89 10		 mov	 DWORD PTR [eax], edx

; 905  : 		_Lmost() = _Myhead, _Rmost() = _Myhead;

  0003e	8b 4d fc	 mov	 ecx, DWORD PTR _this$[ebp]
  00041	e8 00 00 00 00	 call	 ?_Lmost@?$_Tree@V?$_Tmap_traits@HUMYLIST_COLUMN_INFO@@U?$less@H@std@@V?$allocator@U?$pair@$$CBHUMYLIST_COLUMN_INFO@@@std@@@3@$0A@@std@@@std@@IAEAAPAU_Node@?$_Tree_nod@V?$_Tmap_traits@HUMYLIST_COLUMN_INFO@@U?$less@H@std@@V?$allocator@U?$pair@$$CBHUMYLIST_COLUMN_INFO@@@std@@@3@$0A@@std@@@2@XZ ; std::_Tree<std::_Tmap_traits<int,MYLIST_COLUMN_INFO,std::less<int>,std::allocator<std::pair<int const ,MYLIST_COLUMN_INFO> >,0> >::_Lmost
  00046	8b 4d fc	 mov	 ecx, DWORD PTR _this$[ebp]
  00049	8b 51 04	 mov	 edx, DWORD PTR [ecx+4]
  0004c	89 10		 mov	 DWORD PTR [eax], edx
  0004e	8b 4d fc	 mov	 ecx, DWORD PTR _this$[ebp]
  00051	e8 00 00 00 00	 call	 ?_Rmost@?$_Tree@V?$_Tmap_traits@HUMYLIST_COLUMN_INFO@@U?$less@H@std@@V?$allocator@U?$pair@$$CBHUMYLIST_COLUMN_INFO@@@std@@@3@$0A@@std@@@std@@IAEAAPAU_Node@?$_Tree_nod@V?$_Tmap_traits@HUMYLIST_COLUMN_INFO@@U?$less@H@std@@V?$allocator@U?$pair@$$CBHUMYLIST_COLUMN_INFO@@@std@@@3@$0A@@std@@@2@XZ ; std::_Tree<std::_Tmap_traits<int,MYLIST_COLUMN_INFO,std::less<int>,std::allocator<std::pair<int const ,MYLIST_COLUMN_INFO> >,0> >::_Rmost
  00056	8b 4d fc	 mov	 ecx, DWORD PTR _this$[ebp]
  00059	8b 51 04	 mov	 edx, DWORD PTR [ecx+4]
  0005c	89 10		 mov	 DWORD PTR [eax], edx

; 906  : 		_Mysize = 0;

  0005e	8b 45 fc	 mov	 eax, DWORD PTR _this$[ebp]
  00061	c7 40 08 00 00
	00 00		 mov	 DWORD PTR [eax+8], 0

; 907  : 		}

  00068	83 c4 04	 add	 esp, 4
  0006b	3b ec		 cmp	 ebp, esp
  0006d	e8 00 00 00 00	 call	 __RTC_CheckEsp
  00072	8b e5		 mov	 esp, ebp
  00074	5d		 pop	 ebp
  00075	c3		 ret	 0
?_Init@?$_Tree@V?$_Tmap_traits@HUMYLIST_COLUMN_INFO@@U?$less@H@std@@V?$allocator@U?$pair@$$CBHUMYLIST_COLUMN_INFO@@@std@@@3@$0A@@std@@@std@@IAEXXZ ENDP ; std::_Tree<std::_Tmap_traits<int,MYLIST_COLUMN_INFO,std::less<int>,std::allocator<std::pair<int const ,MYLIST_COLUMN_INFO> >,0> >::_Init
_TEXT	ENDS
PUBLIC	__TI3?AVlength_error@std@@
PUBLIC	__CTA3?AVlength_error@std@@
PUBLIC	__CT??_R0?AVlength_error@std@@@8??0length_error@std@@QAE@ABV01@@Z40
PUBLIC	??_C@_0BE@JONHPENG@map?1set?$DMT?$DO?5too?5long?$AA@ ; `string'
PUBLIC	?_Color@?$_Tree@V?$_Tmap_traits@HUMYLIST_COLUMN_INFO@@U?$less@H@std@@V?$allocator@U?$pair@$$CBHUMYLIST_COLUMN_INFO@@@std@@@3@$0A@@std@@@std@@KAAADPAU_Node@?$_Tree_nod@V?$_Tmap_traits@HUMYLIST_COLUMN_INFO@@U?$less@H@std@@V?$allocator@U?$pair@$$CBHUMYLIST_COLUMN_INFO@@@std@@@3@$0A@@std@@@2@@Z ; std::_Tree<std::_Tmap_traits<int,MYLIST_COLUMN_INFO,std::less<int>,std::allocator<std::pair<int const ,MYLIST_COLUMN_INFO> >,0> >::_Color
PUBLIC	?max_size@?$_Tree@V?$_Tmap_traits@HUMYLIST_COLUMN_INFO@@U?$less@H@std@@V?$allocator@U?$pair@$$CBHUMYLIST_COLUMN_INFO@@@std@@@3@$0A@@std@@@std@@QBEIXZ ; std::_Tree<std::_Tmap_traits<int,MYLIST_COLUMN_INFO,std::less<int>,std::allocator<std::pair<int const ,MYLIST_COLUMN_INFO> >,0> >::max_size
PUBLIC	??_R0?AVlogic_error@std@@@8			; std::logic_error `RTTI Type Descriptor'
PUBLIC	__CT??_R0?AVlogic_error@std@@@8??0logic_error@std@@QAE@ABV01@@Z40
PUBLIC	??_R0?AVexception@@@8				; exception `RTTI Type Descriptor'
PUBLIC	__CT??_R0?AVexception@@@8??0exception@@QAE@ABV0@@Z12
PUBLIC	?_Lrotate@?$_Tree@V?$_Tmap_traits@HUMYLIST_COLUMN_INFO@@U?$less@H@std@@V?$allocator@U?$pair@$$CBHUMYLIST_COLUMN_INFO@@@std@@@3@$0A@@std@@@std@@IAEXPAU_Node@?$_Tree_nod@V?$_Tmap_traits@HUMYLIST_COLUMN_INFO@@U?$less@H@std@@V?$allocator@U?$pair@$$CBHUMYLIST_COLUMN_INFO@@@std@@@3@$0A@@std@@@2@@Z ; std::_Tree<std::_Tmap_traits<int,MYLIST_COLUMN_INFO,std::less<int>,std::allocator<std::pair<int const ,MYLIST_COLUMN_INFO> >,0> >::_Lrotate
PUBLIC	?_Rrotate@?$_Tree@V?$_Tmap_traits@HUMYLIST_COLUMN_INFO@@U?$less@H@std@@V?$allocator@U?$pair@$$CBHUMYLIST_COLUMN_INFO@@@std@@@3@$0A@@std@@@std@@IAEXPAU_Node@?$_Tree_nod@V?$_Tmap_traits@HUMYLIST_COLUMN_INFO@@U?$less@H@std@@V?$allocator@U?$pair@$$CBHUMYLIST_COLUMN_INFO@@@std@@@3@$0A@@std@@@2@@Z ; std::_Tree<std::_Tmap_traits<int,MYLIST_COLUMN_INFO,std::less<int>,std::allocator<std::pair<int const ,MYLIST_COLUMN_INFO> >,0> >::_Rrotate
PUBLIC	?_Buynode@?$_Tree@V?$_Tmap_traits@HUMYLIST_COLUMN_INFO@@U?$less@H@std@@V?$allocator@U?$pair@$$CBHUMYLIST_COLUMN_INFO@@@std@@@3@$0A@@std@@@std@@IAEPAU_Node@?$_Tree_nod@V?$_Tmap_traits@HUMYLIST_COLUMN_INFO@@U?$less@H@std@@V?$allocator@U?$pair@$$CBHUMYLIST_COLUMN_INFO@@@std@@@3@$0A@@std@@@2@PAU342@00ABU?$pair@$$CBHUMYLIST_COLUMN_INFO@@@2@D@Z ; std::_Tree<std::_Tmap_traits<int,MYLIST_COLUMN_INFO,std::less<int>,std::allocator<std::pair<int const ,MYLIST_COLUMN_INFO> >,0> >::_Buynode
PUBLIC	??_R0?AVlength_error@std@@@8			; std::length_error `RTTI Type Descriptor'
PUBLIC	??0logic_error@std@@QAE@ABV01@@Z		; std::logic_error::logic_error
PUBLIC	??0length_error@std@@QAE@ABV?$basic_string@DU?$char_traits@D@std@@V?$allocator@D@2@@1@@Z ; std::length_error::length_error
PUBLIC	??1length_error@std@@UAE@XZ			; std::length_error::~length_error
PUBLIC	??0length_error@std@@QAE@ABV01@@Z		; std::length_error::length_error
EXTRN	??0exception@@QAE@ABV0@@Z:NEAR			; exception::exception
EXTRN	__CxxThrowException@8:NEAR
;	COMDAT xdata$x
xdata$x	SEGMENT
$T192108 DD	0ffffffffH
	DD	FLAT:$L192104
$T192106 DD	019930520H
	DD	01H
	DD	FLAT:$T192108
	DD	2 DUP(00H)
	DD	2 DUP(00H)
xdata$x	ENDS
;	COMDAT ??_C@_0BE@JONHPENG@map?1set?$DMT?$DO?5too?5long?$AA@
CONST	SEGMENT
??_C@_0BE@JONHPENG@map?1set?$DMT?$DO?5too?5long?$AA@ DB 'map/set<T> too l'
	DB	'ong', 00H					; `string'
CONST	ENDS
;	COMDAT __TI3?AVlength_error@std@@
xdata$x	SEGMENT
__TI3?AVlength_error@std@@ DD 00H
	DD	FLAT:??1length_error@std@@UAE@XZ
	DD	00H
	DD	FLAT:__CTA3?AVlength_error@std@@
xdata$x	ENDS
;	COMDAT __CTA3?AVlength_error@std@@
xdata$x	SEGMENT
__CTA3?AVlength_error@std@@ DD 03H
	DD	FLAT:__CT??_R0?AVlength_error@std@@@8??0length_error@std@@QAE@ABV01@@Z40
	DD	FLAT:__CT??_R0?AVlogic_error@std@@@8??0logic_error@std@@QAE@ABV01@@Z40
	DD	FLAT:__CT??_R0?AVexception@@@8??0exception@@QAE@ABV0@@Z12
xdata$x	ENDS
;	COMDAT __CT??_R0?AVlength_error@std@@@8??0length_error@std@@QAE@ABV01@@Z40
xdata$x	SEGMENT
__CT??_R0?AVlength_error@std@@@8??0length_error@std@@QAE@ABV01@@Z40 DD 00H
	DD	FLAT:??_R0?AVlength_error@std@@@8
	DD	00H
	DD	0ffffffffH
	ORG $+4
	DD	028H
	DD	FLAT:??0length_error@std@@QAE@ABV01@@Z
xdata$x	ENDS
;	COMDAT ??_R0?AVlength_error@std@@@8
_DATA	SEGMENT
??_R0?AVlength_error@std@@@8 DD FLAT:??_7type_info@@6B@	; std::length_error `RTTI Type Descriptor'
	DD	00H
	DB	'.?AVlength_error@std@@', 00H
	ORG $-31
	DD	FLAT:??_7type_info@@6B@
	DD	00H
	DB	'.?AVlength_error@std@@', 00H
_DATA	ENDS
;	COMDAT __CT??_R0?AVlogic_error@std@@@8??0logic_error@std@@QAE@ABV01@@Z40
xdata$x	SEGMENT
__CT??_R0?AVlogic_error@std@@@8??0logic_error@std@@QAE@ABV01@@Z40 DD 00H
	DD	FLAT:??_R0?AVlogic_error@std@@@8
	DD	00H
	DD	0ffffffffH
	ORG $+4
	DD	028H
	DD	FLAT:??0logic_error@std@@QAE@ABV01@@Z
xdata$x	ENDS
;	COMDAT ??_R0?AVlogic_error@std@@@8
_DATA	SEGMENT
??_R0?AVlogic_error@std@@@8 DD FLAT:??_7type_info@@6B@	; std::logic_error `RTTI Type Descriptor'
	DD	00H
	DB	'.?AVlogic_error@std@@', 00H
	ORG $-30
	DD	FLAT:??_7type_info@@6B@
	DD	00H
	DB	'.?AVlogic_error@std@@', 00H
_DATA	ENDS
;	COMDAT __CT??_R0?AVexception@@@8??0exception@@QAE@ABV0@@Z12
xdata$x	SEGMENT
__CT??_R0?AVexception@@@8??0exception@@QAE@ABV0@@Z12 DD 00H
	DD	FLAT:??_R0?AVexception@@@8
	DD	00H
	DD	0ffffffffH
	ORG $+4
	DD	0cH
	DD	FLAT:??0exception@@QAE@ABV0@@Z
xdata$x	ENDS
;	COMDAT ??_R0?AVexception@@@8
_DATA	SEGMENT
??_R0?AVexception@@@8 DD FLAT:??_7type_info@@6B@	; exception `RTTI Type Descriptor'
	DD	00H
	DB	'.?AVexception@@', 00H
	ORG $-24
	DD	FLAT:??_7type_info@@6B@
	DD	00H
	DB	'.?AVexception@@', 00H
; Function compile flags: /Odt /RTCsu
_DATA	ENDS
;	COMDAT ?_Insert@?$_Tree@V?$_Tmap_traits@HUMYLIST_COLUMN_INFO@@U?$less@H@std@@V?$allocator@U?$pair@$$CBHUMYLIST_COLUMN_INFO@@@std@@@3@$0A@@std@@@std@@IAE?AViterator@12@_NPAU_Node@?$_Tree_nod@V?$_Tmap_traits@HUMYLIST_COLUMN_INFO@@U?$less@H@std@@V?$allocator@U?$pair@$$CBHUMYLIST_COLUMN_INFO@@@std@@@3@$0A@@std@@@2@ABU?$pair@$$CBHUMYLIST_COLUMN_INFO@@@2@@Z
_TEXT	SEGMENT
$T192102 = -92						; size = 28
$T192101 = -64						; size = 40
__Pnode$190575 = -24					; size = 4
__Newnode$ = -20					; size = 4
_this$ = -16						; size = 4
__$EHRec$ = -12						; size = 12
___$ReturnUdt$ = 8					; size = 4
__Addleft$ = 12						; size = 1
__Wherenode$ = 16					; size = 4
__Val$ = 20						; size = 4
?_Insert@?$_Tree@V?$_Tmap_traits@HUMYLIST_COLUMN_INFO@@U?$less@H@std@@V?$allocator@U?$pair@$$CBHUMYLIST_COLUMN_INFO@@@std@@@3@$0A@@std@@@std@@IAE?AViterator@12@_NPAU_Node@?$_Tree_nod@V?$_Tmap_traits@HUMYLIST_COLUMN_INFO@@U?$less@H@std@@V?$allocator@U?$pair@$$CBHUMYLIST_COLUMN_INFO@@@std@@@3@$0A@@std@@@2@ABU?$pair@$$CBHUMYLIST_COLUMN_INFO@@@2@@Z PROC NEAR ; std::_Tree<std::_Tmap_traits<int,MYLIST_COLUMN_INFO,std::less<int>,std::allocator<std::pair<int const ,MYLIST_COLUMN_INFO> >,0> >::_Insert, COMDAT
; _this$ = ecx

; 911  : 		{	// add node with value next to _Wherenode, to left if _Addnode

  00000	55		 push	 ebp
  00001	8b ec		 mov	 ebp, esp
  00003	6a ff		 push	 -1
  00005	68 00 00 00 00	 push	 __ehhandler$?_Insert@?$_Tree@V?$_Tmap_traits@HUMYLIST_COLUMN_INFO@@U?$less@H@std@@V?$allocator@U?$pair@$$CBHUMYLIST_COLUMN_INFO@@@std@@@3@$0A@@std@@@std@@IAE?AViterator@12@_NPAU_Node@?$_Tree_nod@V?$_Tmap_traits@HUMYLIST_COLUMN_INFO@@U?$less@H@std@@V?$allocator@U?$pair@$$CBHUMYLIST_COLUMN_INFO@@@std@@@3@$0A@@std@@@2@ABU?$pair@$$CBHUMYLIST_COLUMN_INFO@@@2@@Z
  0000a	64 a1 00 00 00
	00		 mov	 eax, DWORD PTR fs:__except_list
  00010	50		 push	 eax
  00011	64 89 25 00 00
	00 00		 mov	 DWORD PTR fs:__except_list, esp
  00018	83 ec 50	 sub	 esp, 80			; 00000050H
  0001b	56		 push	 esi
  0001c	57		 push	 edi
  0001d	51		 push	 ecx
  0001e	8d 7d a4	 lea	 edi, DWORD PTR [ebp-92]
  00021	b9 14 00 00 00	 mov	 ecx, 20			; 00000014H
  00026	b8 cc cc cc cc	 mov	 eax, -858993460		; ccccccccH
  0002b	f3 ab		 rep stosd
  0002d	59		 pop	 ecx
  0002e	89 4d f0	 mov	 DWORD PTR _this$[ebp], ecx

; 912  : 		if (max_size() - 1 <= _Mysize)

  00031	8b 4d f0	 mov	 ecx, DWORD PTR _this$[ebp]
  00034	e8 00 00 00 00	 call	 ?max_size@?$_Tree@V?$_Tmap_traits@HUMYLIST_COLUMN_INFO@@U?$less@H@std@@V?$allocator@U?$pair@$$CBHUMYLIST_COLUMN_INFO@@@std@@@3@$0A@@std@@@std@@QBEIXZ ; std::_Tree<std::_Tmap_traits<int,MYLIST_COLUMN_INFO,std::less<int>,std::allocator<std::pair<int const ,MYLIST_COLUMN_INFO> >,0> >::max_size
  00039	83 e8 01	 sub	 eax, 1
  0003c	8b 4d f0	 mov	 ecx, DWORD PTR _this$[ebp]
  0003f	3b 41 08	 cmp	 eax, DWORD PTR [ecx+8]
  00042	77 38		 ja	 SHORT $L190560

; 913  : 			_THROW(length_error, "map/set<T> too long");

  00044	8b f4		 mov	 esi, esp
  00046	68 00 00 00 00	 push	 OFFSET FLAT:??_C@_0BE@JONHPENG@map?1set?$DMT?$DO?5too?5long?$AA@
  0004b	8d 4d a4	 lea	 ecx, DWORD PTR $T192102[ebp]
  0004e	ff 15 00 00 00
	00		 call	 DWORD PTR __imp_??0?$basic_string@DU?$char_traits@D@std@@V?$allocator@D@2@@std@@QAE@PBD@Z
  00054	3b f4		 cmp	 esi, esp
  00056	e8 00 00 00 00	 call	 __RTC_CheckEsp
  0005b	c7 45 fc 00 00
	00 00		 mov	 DWORD PTR __$EHRec$[ebp+8], 0
  00062	8d 55 a4	 lea	 edx, DWORD PTR $T192102[ebp]
  00065	52		 push	 edx
  00066	8d 4d c0	 lea	 ecx, DWORD PTR $T192101[ebp]
  00069	e8 00 00 00 00	 call	 ??0length_error@std@@QAE@ABV?$basic_string@DU?$char_traits@D@std@@V?$allocator@D@2@@1@@Z ; std::length_error::length_error
  0006e	68 00 00 00 00	 push	 OFFSET FLAT:__TI3?AVlength_error@std@@
  00073	8d 45 c0	 lea	 eax, DWORD PTR $T192101[ebp]
  00076	50		 push	 eax
  00077	e8 00 00 00 00	 call	 __CxxThrowException@8
$L190560:

; 914  : 		_Nodeptr _Newnode = _Buynode(_Myhead, _Wherenode, _Myhead,
; 915  : 			_Val, _Red);

  0007c	6a 00		 push	 0
  0007e	8b 4d 14	 mov	 ecx, DWORD PTR __Val$[ebp]
  00081	51		 push	 ecx
  00082	8b 55 f0	 mov	 edx, DWORD PTR _this$[ebp]
  00085	8b 42 04	 mov	 eax, DWORD PTR [edx+4]
  00088	50		 push	 eax
  00089	8b 4d 10	 mov	 ecx, DWORD PTR __Wherenode$[ebp]
  0008c	51		 push	 ecx
  0008d	8b 55 f0	 mov	 edx, DWORD PTR _this$[ebp]
  00090	8b 42 04	 mov	 eax, DWORD PTR [edx+4]
  00093	50		 push	 eax
  00094	8b 4d f0	 mov	 ecx, DWORD PTR _this$[ebp]
  00097	e8 00 00 00 00	 call	 ?_Buynode@?$_Tree@V?$_Tmap_traits@HUMYLIST_COLUMN_INFO@@U?$less@H@std@@V?$allocator@U?$pair@$$CBHUMYLIST_COLUMN_INFO@@@std@@@3@$0A@@std@@@std@@IAEPAU_Node@?$_Tree_nod@V?$_Tmap_traits@HUMYLIST_COLUMN_INFO@@U?$less@H@std@@V?$allocator@U?$pair@$$CBHUMYLIST_COLUMN_INFO@@@std@@@3@$0A@@std@@@2@PAU342@00ABU?$pair@$$CBHUMYLIST_COLUMN_INFO@@@2@D@Z ; std::_Tree<std::_Tmap_traits<int,MYLIST_COLUMN_INFO,std::less<int>,std::allocator<std::pair<int const ,MYLIST_COLUMN_INFO> >,0> >::_Buynode
  0009c	89 45 ec	 mov	 DWORD PTR __Newnode$[ebp], eax

; 916  : 
; 917  : 		++_Mysize;

  0009f	8b 4d f0	 mov	 ecx, DWORD PTR _this$[ebp]
  000a2	8b 51 08	 mov	 edx, DWORD PTR [ecx+8]
  000a5	83 c2 01	 add	 edx, 1
  000a8	8b 45 f0	 mov	 eax, DWORD PTR _this$[ebp]
  000ab	89 50 08	 mov	 DWORD PTR [eax+8], edx

; 918  : 		if (_Wherenode == _Myhead)

  000ae	8b 4d f0	 mov	 ecx, DWORD PTR _this$[ebp]
  000b1	8b 55 10	 mov	 edx, DWORD PTR __Wherenode$[ebp]
  000b4	3b 51 04	 cmp	 edx, DWORD PTR [ecx+4]
  000b7	75 29		 jne	 SHORT $L190569

; 919  : 			{	// first node in tree, just set head values
; 920  : 			_Root() = _Newnode;

  000b9	8b 4d f0	 mov	 ecx, DWORD PTR _this$[ebp]
  000bc	e8 00 00 00 00	 call	 ?_Root@?$_Tree@V?$_Tmap_traits@HUMYLIST_COLUMN_INFO@@U?$less@H@std@@V?$allocator@U?$pair@$$CBHUMYLIST_COLUMN_INFO@@@std@@@3@$0A@@std@@@std@@IAEAAPAU_Node@?$_Tree_nod@V?$_Tmap_traits@HUMYLIST_COLUMN_INFO@@U?$less@H@std@@V?$allocator@U?$pair@$$CBHUMYLIST_COLUMN_INFO@@@std@@@3@$0A@@std@@@2@XZ ; std::_Tree<std::_Tmap_traits<int,MYLIST_COLUMN_INFO,std::less<int>,std::allocator<std::pair<int const ,MYLIST_COLUMN_INFO> >,0> >::_Root
  000c1	8b 4d ec	 mov	 ecx, DWORD PTR __Newnode$[ebp]
  000c4	89 08		 mov	 DWORD PTR [eax], ecx

; 921  : 			_Lmost() = _Newnode, _Rmost() = _Newnode;

  000c6	8b 4d f0	 mov	 ecx, DWORD PTR _this$[ebp]
  000c9	e8 00 00 00 00	 call	 ?_Lmost@?$_Tree@V?$_Tmap_traits@HUMYLIST_COLUMN_INFO@@U?$less@H@std@@V?$allocator@U?$pair@$$CBHUMYLIST_COLUMN_INFO@@@std@@@3@$0A@@std@@@std@@IAEAAPAU_Node@?$_Tree_nod@V?$_Tmap_traits@HUMYLIST_COLUMN_INFO@@U?$less@H@std@@V?$allocator@U?$pair@$$CBHUMYLIST_COLUMN_INFO@@@std@@@3@$0A@@std@@@2@XZ ; std::_Tree<std::_Tmap_traits<int,MYLIST_COLUMN_INFO,std::less<int>,std::allocator<std::pair<int const ,MYLIST_COLUMN_INFO> >,0> >::_Lmost
  000ce	8b 55 ec	 mov	 edx, DWORD PTR __Newnode$[ebp]
  000d1	89 10		 mov	 DWORD PTR [eax], edx
  000d3	8b 4d f0	 mov	 ecx, DWORD PTR _this$[ebp]
  000d6	e8 00 00 00 00	 call	 ?_Rmost@?$_Tree@V?$_Tmap_traits@HUMYLIST_COLUMN_INFO@@U?$less@H@std@@V?$allocator@U?$pair@$$CBHUMYLIST_COLUMN_INFO@@@std@@@3@$0A@@std@@@std@@IAEAAPAU_Node@?$_Tree_nod@V?$_Tmap_traits@HUMYLIST_COLUMN_INFO@@U?$less@H@std@@V?$allocator@U?$pair@$$CBHUMYLIST_COLUMN_INFO@@@std@@@3@$0A@@std@@@2@XZ ; std::_Tree<std::_Tmap_traits<int,MYLIST_COLUMN_INFO,std::less<int>,std::allocator<std::pair<int const ,MYLIST_COLUMN_INFO> >,0> >::_Rmost
  000db	8b 4d ec	 mov	 ecx, DWORD PTR __Newnode$[ebp]
  000de	89 08		 mov	 DWORD PTR [eax], ecx

; 922  : 			}
; 923  : 		else if (_Addleft)

  000e0	eb 64		 jmp	 SHORT $L190570
$L190569:
  000e2	0f b6 55 0c	 movzx	 edx, BYTE PTR __Addleft$[ebp]
  000e6	85 d2		 test	 edx, edx
  000e8	74 2f		 je	 SHORT $L190571

; 924  : 			{	// add to left of _Wherenode
; 925  : 			_Left(_Wherenode) = _Newnode;

  000ea	8b 45 10	 mov	 eax, DWORD PTR __Wherenode$[ebp]
  000ed	50		 push	 eax
  000ee	e8 00 00 00 00	 call	 ?_Left@?$_Tree@V?$_Tmap_traits@HUMYLIST_COLUMN_INFO@@U?$less@H@std@@V?$allocator@U?$pair@$$CBHUMYLIST_COLUMN_INFO@@@std@@@3@$0A@@std@@@std@@KAAAPAU_Node@?$_Tree_nod@V?$_Tmap_traits@HUMYLIST_COLUMN_INFO@@U?$less@H@std@@V?$allocator@U?$pair@$$CBHUMYLIST_COLUMN_INFO@@@std@@@3@$0A@@std@@@2@PAU342@@Z ; std::_Tree<std::_Tmap_traits<int,MYLIST_COLUMN_INFO,std::less<int>,std::allocator<std::pair<int const ,MYLIST_COLUMN_INFO> >,0> >::_Left
  000f3	83 c4 04	 add	 esp, 4
  000f6	8b 4d ec	 mov	 ecx, DWORD PTR __Newnode$[ebp]
  000f9	89 08		 mov	 DWORD PTR [eax], ecx

; 926  : 			if (_Wherenode == _Lmost())

  000fb	8b 4d f0	 mov	 ecx, DWORD PTR _this$[ebp]
  000fe	e8 00 00 00 00	 call	 ?_Lmost@?$_Tree@V?$_Tmap_traits@HUMYLIST_COLUMN_INFO@@U?$less@H@std@@V?$allocator@U?$pair@$$CBHUMYLIST_COLUMN_INFO@@@std@@@3@$0A@@std@@@std@@IAEAAPAU_Node@?$_Tree_nod@V?$_Tmap_traits@HUMYLIST_COLUMN_INFO@@U?$less@H@std@@V?$allocator@U?$pair@$$CBHUMYLIST_COLUMN_INFO@@@std@@@3@$0A@@std@@@2@XZ ; std::_Tree<std::_Tmap_traits<int,MYLIST_COLUMN_INFO,std::less<int>,std::allocator<std::pair<int const ,MYLIST_COLUMN_INFO> >,0> >::_Lmost
  00103	8b 55 10	 mov	 edx, DWORD PTR __Wherenode$[ebp]
  00106	3b 10		 cmp	 edx, DWORD PTR [eax]
  00108	75 0d		 jne	 SHORT $L190572

; 927  : 				_Lmost() = _Newnode;

  0010a	8b 4d f0	 mov	 ecx, DWORD PTR _this$[ebp]
  0010d	e8 00 00 00 00	 call	 ?_Lmost@?$_Tree@V?$_Tmap_traits@HUMYLIST_COLUMN_INFO@@U?$less@H@std@@V?$allocator@U?$pair@$$CBHUMYLIST_COLUMN_INFO@@@std@@@3@$0A@@std@@@std@@IAEAAPAU_Node@?$_Tree_nod@V?$_Tmap_traits@HUMYLIST_COLUMN_INFO@@U?$less@H@std@@V?$allocator@U?$pair@$$CBHUMYLIST_COLUMN_INFO@@@std@@@3@$0A@@std@@@2@XZ ; std::_Tree<std::_Tmap_traits<int,MYLIST_COLUMN_INFO,std::less<int>,std::allocator<std::pair<int const ,MYLIST_COLUMN_INFO> >,0> >::_Lmost
  00112	8b 4d ec	 mov	 ecx, DWORD PTR __Newnode$[ebp]
  00115	89 08		 mov	 DWORD PTR [eax], ecx
$L190572:

; 928  : 			}
; 929  : 		else

  00117	eb 2d		 jmp	 SHORT $L190570
$L190571:

; 930  : 			{	// add to right of _Wherenode
; 931  : 			_Right(_Wherenode) = _Newnode;

  00119	8b 55 10	 mov	 edx, DWORD PTR __Wherenode$[ebp]
  0011c	52		 push	 edx
  0011d	e8 00 00 00 00	 call	 ?_Right@?$_Tree@V?$_Tmap_traits@HUMYLIST_COLUMN_INFO@@U?$less@H@std@@V?$allocator@U?$pair@$$CBHUMYLIST_COLUMN_INFO@@@std@@@3@$0A@@std@@@std@@KAAAPAU_Node@?$_Tree_nod@V?$_Tmap_traits@HUMYLIST_COLUMN_INFO@@U?$less@H@std@@V?$allocator@U?$pair@$$CBHUMYLIST_COLUMN_INFO@@@std@@@3@$0A@@std@@@2@PAU342@@Z ; std::_Tree<std::_Tmap_traits<int,MYLIST_COLUMN_INFO,std::less<int>,std::allocator<std::pair<int const ,MYLIST_COLUMN_INFO> >,0> >::_Right
  00122	83 c4 04	 add	 esp, 4
  00125	8b 4d ec	 mov	 ecx, DWORD PTR __Newnode$[ebp]
  00128	89 08		 mov	 DWORD PTR [eax], ecx

; 932  : 			if (_Wherenode == _Rmost())

  0012a	8b 4d f0	 mov	 ecx, DWORD PTR _this$[ebp]
  0012d	e8 00 00 00 00	 call	 ?_Rmost@?$_Tree@V?$_Tmap_traits@HUMYLIST_COLUMN_INFO@@U?$less@H@std@@V?$allocator@U?$pair@$$CBHUMYLIST_COLUMN_INFO@@@std@@@3@$0A@@std@@@std@@IAEAAPAU_Node@?$_Tree_nod@V?$_Tmap_traits@HUMYLIST_COLUMN_INFO@@U?$less@H@std@@V?$allocator@U?$pair@$$CBHUMYLIST_COLUMN_INFO@@@std@@@3@$0A@@std@@@2@XZ ; std::_Tree<std::_Tmap_traits<int,MYLIST_COLUMN_INFO,std::less<int>,std::allocator<std::pair<int const ,MYLIST_COLUMN_INFO> >,0> >::_Rmost
  00132	8b 55 10	 mov	 edx, DWORD PTR __Wherenode$[ebp]
  00135	3b 10		 cmp	 edx, DWORD PTR [eax]
  00137	75 0d		 jne	 SHORT $L190570

; 933  : 				_Rmost() = _Newnode;

  00139	8b 4d f0	 mov	 ecx, DWORD PTR _this$[ebp]
  0013c	e8 00 00 00 00	 call	 ?_Rmost@?$_Tree@V?$_Tmap_traits@HUMYLIST_COLUMN_INFO@@U?$less@H@std@@V?$allocator@U?$pair@$$CBHUMYLIST_COLUMN_INFO@@@std@@@3@$0A@@std@@@std@@IAEAAPAU_Node@?$_Tree_nod@V?$_Tmap_traits@HUMYLIST_COLUMN_INFO@@U?$less@H@std@@V?$allocator@U?$pair@$$CBHUMYLIST_COLUMN_INFO@@@std@@@3@$0A@@std@@@2@XZ ; std::_Tree<std::_Tmap_traits<int,MYLIST_COLUMN_INFO,std::less<int>,std::allocator<std::pair<int const ,MYLIST_COLUMN_INFO> >,0> >::_Rmost
  00141	8b 4d ec	 mov	 ecx, DWORD PTR __Newnode$[ebp]
  00144	89 08		 mov	 DWORD PTR [eax], ecx
$L190570:

; 934  : 			}
; 935  : 
; 936  : 		for (_Nodeptr _Pnode = _Newnode; _Color(_Parent(_Pnode)) == _Red; )

  00146	8b 55 ec	 mov	 edx, DWORD PTR __Newnode$[ebp]
  00149	89 55 e8	 mov	 DWORD PTR __Pnode$190575[ebp], edx
$L190577:
  0014c	8b 45 e8	 mov	 eax, DWORD PTR __Pnode$190575[ebp]
  0014f	50		 push	 eax
  00150	e8 00 00 00 00	 call	 ?_Parent@?$_Tree@V?$_Tmap_traits@HUMYLIST_COLUMN_INFO@@U?$less@H@std@@V?$allocator@U?$pair@$$CBHUMYLIST_COLUMN_INFO@@@std@@@3@$0A@@std@@@std@@KAAAPAU_Node@?$_Tree_nod@V?$_Tmap_traits@HUMYLIST_COLUMN_INFO@@U?$less@H@std@@V?$allocator@U?$pair@$$CBHUMYLIST_COLUMN_INFO@@@std@@@3@$0A@@std@@@2@PAU342@@Z ; std::_Tree<std::_Tmap_traits<int,MYLIST_COLUMN_INFO,std::less<int>,std::allocator<std::pair<int const ,MYLIST_COLUMN_INFO> >,0> >::_Parent
  00155	83 c4 04	 add	 esp, 4
  00158	8b 08		 mov	 ecx, DWORD PTR [eax]
  0015a	51		 push	 ecx
  0015b	e8 00 00 00 00	 call	 ?_Color@?$_Tree@V?$_Tmap_traits@HUMYLIST_COLUMN_INFO@@U?$less@H@std@@V?$allocator@U?$pair@$$CBHUMYLIST_COLUMN_INFO@@@std@@@3@$0A@@std@@@std@@KAAADPAU_Node@?$_Tree_nod@V?$_Tmap_traits@HUMYLIST_COLUMN_INFO@@U?$less@H@std@@V?$allocator@U?$pair@$$CBHUMYLIST_COLUMN_INFO@@@std@@@3@$0A@@std@@@2@@Z ; std::_Tree<std::_Tmap_traits<int,MYLIST_COLUMN_INFO,std::less<int>,std::allocator<std::pair<int const ,MYLIST_COLUMN_INFO> >,0> >::_Color
  00160	83 c4 04	 add	 esp, 4
  00163	0f be 10	 movsx	 edx, BYTE PTR [eax]
  00166	85 d2		 test	 edx, edx
  00168	0f 85 ce 02 00
	00		 jne	 $L190578

; 937  : 			if (_Parent(_Pnode) == _Left(_Parent(_Parent(_Pnode))))

  0016e	8b 45 e8	 mov	 eax, DWORD PTR __Pnode$190575[ebp]
  00171	50		 push	 eax
  00172	e8 00 00 00 00	 call	 ?_Parent@?$_Tree@V?$_Tmap_traits@HUMYLIST_COLUMN_INFO@@U?$less@H@std@@V?$allocator@U?$pair@$$CBHUMYLIST_COLUMN_INFO@@@std@@@3@$0A@@std@@@std@@KAAAPAU_Node@?$_Tree_nod@V?$_Tmap_traits@HUMYLIST_COLUMN_INFO@@U?$less@H@std@@V?$allocator@U?$pair@$$CBHUMYLIST_COLUMN_INFO@@@std@@@3@$0A@@std@@@2@PAU342@@Z ; std::_Tree<std::_Tmap_traits<int,MYLIST_COLUMN_INFO,std::less<int>,std::allocator<std::pair<int const ,MYLIST_COLUMN_INFO> >,0> >::_Parent
  00177	83 c4 04	 add	 esp, 4
  0017a	8b f0		 mov	 esi, eax
  0017c	8b 4d e8	 mov	 ecx, DWORD PTR __Pnode$190575[ebp]
  0017f	51		 push	 ecx
  00180	e8 00 00 00 00	 call	 ?_Parent@?$_Tree@V?$_Tmap_traits@HUMYLIST_COLUMN_INFO@@U?$less@H@std@@V?$allocator@U?$pair@$$CBHUMYLIST_COLUMN_INFO@@@std@@@3@$0A@@std@@@std@@KAAAPAU_Node@?$_Tree_nod@V?$_Tmap_traits@HUMYLIST_COLUMN_INFO@@U?$less@H@std@@V?$allocator@U?$pair@$$CBHUMYLIST_COLUMN_INFO@@@std@@@3@$0A@@std@@@2@PAU342@@Z ; std::_Tree<std::_Tmap_traits<int,MYLIST_COLUMN_INFO,std::less<int>,std::allocator<std::pair<int const ,MYLIST_COLUMN_INFO> >,0> >::_Parent
  00185	83 c4 04	 add	 esp, 4
  00188	8b 10		 mov	 edx, DWORD PTR [eax]
  0018a	52		 push	 edx
  0018b	e8 00 00 00 00	 call	 ?_Parent@?$_Tree@V?$_Tmap_traits@HUMYLIST_COLUMN_INFO@@U?$less@H@std@@V?$allocator@U?$pair@$$CBHUMYLIST_COLUMN_INFO@@@std@@@3@$0A@@std@@@std@@KAAAPAU_Node@?$_Tree_nod@V?$_Tmap_traits@HUMYLIST_COLUMN_INFO@@U?$less@H@std@@V?$allocator@U?$pair@$$CBHUMYLIST_COLUMN_INFO@@@std@@@3@$0A@@std@@@2@PAU342@@Z ; std::_Tree<std::_Tmap_traits<int,MYLIST_COLUMN_INFO,std::less<int>,std::allocator<std::pair<int const ,MYLIST_COLUMN_INFO> >,0> >::_Parent
  00190	83 c4 04	 add	 esp, 4
  00193	8b 00		 mov	 eax, DWORD PTR [eax]
  00195	50		 push	 eax
  00196	e8 00 00 00 00	 call	 ?_Left@?$_Tree@V?$_Tmap_traits@HUMYLIST_COLUMN_INFO@@U?$less@H@std@@V?$allocator@U?$pair@$$CBHUMYLIST_COLUMN_INFO@@@std@@@3@$0A@@std@@@std@@KAAAPAU_Node@?$_Tree_nod@V?$_Tmap_traits@HUMYLIST_COLUMN_INFO@@U?$less@H@std@@V?$allocator@U?$pair@$$CBHUMYLIST_COLUMN_INFO@@@std@@@3@$0A@@std@@@2@PAU342@@Z ; std::_Tree<std::_Tmap_traits<int,MYLIST_COLUMN_INFO,std::less<int>,std::allocator<std::pair<int const ,MYLIST_COLUMN_INFO> >,0> >::_Left
  0019b	83 c4 04	 add	 esp, 4
  0019e	8b 0e		 mov	 ecx, DWORD PTR [esi]
  001a0	3b 08		 cmp	 ecx, DWORD PTR [eax]
  001a2	0f 85 4a 01 00
	00		 jne	 $L190579

; 938  : 				{	// fixup red-red in left subtree
; 939  : 				_Wherenode = _Right(_Parent(_Parent(_Pnode)));

  001a8	8b 55 e8	 mov	 edx, DWORD PTR __Pnode$190575[ebp]
  001ab	52		 push	 edx
  001ac	e8 00 00 00 00	 call	 ?_Parent@?$_Tree@V?$_Tmap_traits@HUMYLIST_COLUMN_INFO@@U?$less@H@std@@V?$allocator@U?$pair@$$CBHUMYLIST_COLUMN_INFO@@@std@@@3@$0A@@std@@@std@@KAAAPAU_Node@?$_Tree_nod@V?$_Tmap_traits@HUMYLIST_COLUMN_INFO@@U?$less@H@std@@V?$allocator@U?$pair@$$CBHUMYLIST_COLUMN_INFO@@@std@@@3@$0A@@std@@@2@PAU342@@Z ; std::_Tree<std::_Tmap_traits<int,MYLIST_COLUMN_INFO,std::less<int>,std::allocator<std::pair<int const ,MYLIST_COLUMN_INFO> >,0> >::_Parent
  001b1	83 c4 04	 add	 esp, 4
  001b4	8b 00		 mov	 eax, DWORD PTR [eax]
  001b6	50		 push	 eax
  001b7	e8 00 00 00 00	 call	 ?_Parent@?$_Tree@V?$_Tmap_traits@HUMYLIST_COLUMN_INFO@@U?$less@H@std@@V?$allocator@U?$pair@$$CBHUMYLIST_COLUMN_INFO@@@std@@@3@$0A@@std@@@std@@KAAAPAU_Node@?$_Tree_nod@V?$_Tmap_traits@HUMYLIST_COLUMN_INFO@@U?$less@H@std@@V?$allocator@U?$pair@$$CBHUMYLIST_COLUMN_INFO@@@std@@@3@$0A@@std@@@2@PAU342@@Z ; std::_Tree<std::_Tmap_traits<int,MYLIST_COLUMN_INFO,std::less<int>,std::allocator<std::pair<int const ,MYLIST_COLUMN_INFO> >,0> >::_Parent
  001bc	83 c4 04	 add	 esp, 4
  001bf	8b 08		 mov	 ecx, DWORD PTR [eax]
  001c1	51		 push	 ecx
  001c2	e8 00 00 00 00	 call	 ?_Right@?$_Tree@V?$_Tmap_traits@HUMYLIST_COLUMN_INFO@@U?$less@H@std@@V?$allocator@U?$pair@$$CBHUMYLIST_COLUMN_INFO@@@std@@@3@$0A@@std@@@std@@KAAAPAU_Node@?$_Tree_nod@V?$_Tmap_traits@HUMYLIST_COLUMN_INFO@@U?$less@H@std@@V?$allocator@U?$pair@$$CBHUMYLIST_COLUMN_INFO@@@std@@@3@$0A@@std@@@2@PAU342@@Z ; std::_Tree<std::_Tmap_traits<int,MYLIST_COLUMN_INFO,std::less<int>,std::allocator<std::pair<int const ,MYLIST_COLUMN_INFO> >,0> >::_Right
  001c7	83 c4 04	 add	 esp, 4
  001ca	8b 10		 mov	 edx, DWORD PTR [eax]
  001cc	89 55 10	 mov	 DWORD PTR __Wherenode$[ebp], edx

; 940  : 				if (_Color(_Wherenode) == _Red)

  001cf	8b 45 10	 mov	 eax, DWORD PTR __Wherenode$[ebp]
  001d2	50		 push	 eax
  001d3	e8 00 00 00 00	 call	 ?_Color@?$_Tree@V?$_Tmap_traits@HUMYLIST_COLUMN_INFO@@U?$less@H@std@@V?$allocator@U?$pair@$$CBHUMYLIST_COLUMN_INFO@@@std@@@3@$0A@@std@@@std@@KAAADPAU_Node@?$_Tree_nod@V?$_Tmap_traits@HUMYLIST_COLUMN_INFO@@U?$less@H@std@@V?$allocator@U?$pair@$$CBHUMYLIST_COLUMN_INFO@@@std@@@3@$0A@@std@@@2@@Z ; std::_Tree<std::_Tmap_traits<int,MYLIST_COLUMN_INFO,std::less<int>,std::allocator<std::pair<int const ,MYLIST_COLUMN_INFO> >,0> >::_Color
  001d8	83 c4 04	 add	 esp, 4
  001db	0f be 08	 movsx	 ecx, BYTE PTR [eax]
  001de	85 c9		 test	 ecx, ecx
  001e0	75 6f		 jne	 SHORT $L190580

; 941  : 					{	// parent has two red children, blacken both
; 942  : 					_Color(_Parent(_Pnode)) = _Black;

  001e2	8b 55 e8	 mov	 edx, DWORD PTR __Pnode$190575[ebp]
  001e5	52		 push	 edx
  001e6	e8 00 00 00 00	 call	 ?_Parent@?$_Tree@V?$_Tmap_traits@HUMYLIST_COLUMN_INFO@@U?$less@H@std@@V?$allocator@U?$pair@$$CBHUMYLIST_COLUMN_INFO@@@std@@@3@$0A@@std@@@std@@KAAAPAU_Node@?$_Tree_nod@V?$_Tmap_traits@HUMYLIST_COLUMN_INFO@@U?$less@H@std@@V?$allocator@U?$pair@$$CBHUMYLIST_COLUMN_INFO@@@std@@@3@$0A@@std@@@2@PAU342@@Z ; std::_Tree<std::_Tmap_traits<int,MYLIST_COLUMN_INFO,std::less<int>,std::allocator<std::pair<int const ,MYLIST_COLUMN_INFO> >,0> >::_Parent
  001eb	83 c4 04	 add	 esp, 4
  001ee	8b 00		 mov	 eax, DWORD PTR [eax]
  001f0	50		 push	 eax
  001f1	e8 00 00 00 00	 call	 ?_Color@?$_Tree@V?$_Tmap_traits@HUMYLIST_COLUMN_INFO@@U?$less@H@std@@V?$allocator@U?$pair@$$CBHUMYLIST_COLUMN_INFO@@@std@@@3@$0A@@std@@@std@@KAAADPAU_Node@?$_Tree_nod@V?$_Tmap_traits@HUMYLIST_COLUMN_INFO@@U?$less@H@std@@V?$allocator@U?$pair@$$CBHUMYLIST_COLUMN_INFO@@@std@@@3@$0A@@std@@@2@@Z ; std::_Tree<std::_Tmap_traits<int,MYLIST_COLUMN_INFO,std::less<int>,std::allocator<std::pair<int const ,MYLIST_COLUMN_INFO> >,0> >::_Color
  001f6	83 c4 04	 add	 esp, 4
  001f9	c6 00 01	 mov	 BYTE PTR [eax], 1

; 943  : 					_Color(_Wherenode) = _Black;

  001fc	8b 4d 10	 mov	 ecx, DWORD PTR __Wherenode$[ebp]
  001ff	51		 push	 ecx
  00200	e8 00 00 00 00	 call	 ?_Color@?$_Tree@V?$_Tmap_traits@HUMYLIST_COLUMN_INFO@@U?$less@H@std@@V?$allocator@U?$pair@$$CBHUMYLIST_COLUMN_INFO@@@std@@@3@$0A@@std@@@std@@KAAADPAU_Node@?$_Tree_nod@V?$_Tmap_traits@HUMYLIST_COLUMN_INFO@@U?$less@H@std@@V?$allocator@U?$pair@$$CBHUMYLIST_COLUMN_INFO@@@std@@@3@$0A@@std@@@2@@Z ; std::_Tree<std::_Tmap_traits<int,MYLIST_COLUMN_INFO,std::less<int>,std::allocator<std::pair<int const ,MYLIST_COLUMN_INFO> >,0> >::_Color
  00205	83 c4 04	 add	 esp, 4
  00208	c6 00 01	 mov	 BYTE PTR [eax], 1

; 944  : 					_Color(_Parent(_Parent(_Pnode))) = _Red;

  0020b	8b 55 e8	 mov	 edx, DWORD PTR __Pnode$190575[ebp]
  0020e	52		 push	 edx
  0020f	e8 00 00 00 00	 call	 ?_Parent@?$_Tree@V?$_Tmap_traits@HUMYLIST_COLUMN_INFO@@U?$less@H@std@@V?$allocator@U?$pair@$$CBHUMYLIST_COLUMN_INFO@@@std@@@3@$0A@@std@@@std@@KAAAPAU_Node@?$_Tree_nod@V?$_Tmap_traits@HUMYLIST_COLUMN_INFO@@U?$less@H@std@@V?$allocator@U?$pair@$$CBHUMYLIST_COLUMN_INFO@@@std@@@3@$0A@@std@@@2@PAU342@@Z ; std::_Tree<std::_Tmap_traits<int,MYLIST_COLUMN_INFO,std::less<int>,std::allocator<std::pair<int const ,MYLIST_COLUMN_INFO> >,0> >::_Parent
  00214	83 c4 04	 add	 esp, 4
  00217	8b 00		 mov	 eax, DWORD PTR [eax]
  00219	50		 push	 eax
  0021a	e8 00 00 00 00	 call	 ?_Parent@?$_Tree@V?$_Tmap_traits@HUMYLIST_COLUMN_INFO@@U?$less@H@std@@V?$allocator@U?$pair@$$CBHUMYLIST_COLUMN_INFO@@@std@@@3@$0A@@std@@@std@@KAAAPAU_Node@?$_Tree_nod@V?$_Tmap_traits@HUMYLIST_COLUMN_INFO@@U?$less@H@std@@V?$allocator@U?$pair@$$CBHUMYLIST_COLUMN_INFO@@@std@@@3@$0A@@std@@@2@PAU342@@Z ; std::_Tree<std::_Tmap_traits<int,MYLIST_COLUMN_INFO,std::less<int>,std::allocator<std::pair<int const ,MYLIST_COLUMN_INFO> >,0> >::_Parent
  0021f	83 c4 04	 add	 esp, 4
  00222	8b 08		 mov	 ecx, DWORD PTR [eax]
  00224	51		 push	 ecx
  00225	e8 00 00 00 00	 call	 ?_Color@?$_Tree@V?$_Tmap_traits@HUMYLIST_COLUMN_INFO@@U?$less@H@std@@V?$allocator@U?$pair@$$CBHUMYLIST_COLUMN_INFO@@@std@@@3@$0A@@std@@@std@@KAAADPAU_Node@?$_Tree_nod@V?$_Tmap_traits@HUMYLIST_COLUMN_INFO@@U?$less@H@std@@V?$allocator@U?$pair@$$CBHUMYLIST_COLUMN_INFO@@@std@@@3@$0A@@std@@@2@@Z ; std::_Tree<std::_Tmap_traits<int,MYLIST_COLUMN_INFO,std::less<int>,std::allocator<std::pair<int const ,MYLIST_COLUMN_INFO> >,0> >::_Color
  0022a	83 c4 04	 add	 esp, 4
  0022d	c6 00 00	 mov	 BYTE PTR [eax], 0

; 945  : 					_Pnode = _Parent(_Parent(_Pnode));

  00230	8b 55 e8	 mov	 edx, DWORD PTR __Pnode$190575[ebp]
  00233	52		 push	 edx
  00234	e8 00 00 00 00	 call	 ?_Parent@?$_Tree@V?$_Tmap_traits@HUMYLIST_COLUMN_INFO@@U?$less@H@std@@V?$allocator@U?$pair@$$CBHUMYLIST_COLUMN_INFO@@@std@@@3@$0A@@std@@@std@@KAAAPAU_Node@?$_Tree_nod@V?$_Tmap_traits@HUMYLIST_COLUMN_INFO@@U?$less@H@std@@V?$allocator@U?$pair@$$CBHUMYLIST_COLUMN_INFO@@@std@@@3@$0A@@std@@@2@PAU342@@Z ; std::_Tree<std::_Tmap_traits<int,MYLIST_COLUMN_INFO,std::less<int>,std::allocator<std::pair<int const ,MYLIST_COLUMN_INFO> >,0> >::_Parent
  00239	83 c4 04	 add	 esp, 4
  0023c	8b 00		 mov	 eax, DWORD PTR [eax]
  0023e	50		 push	 eax
  0023f	e8 00 00 00 00	 call	 ?_Parent@?$_Tree@V?$_Tmap_traits@HUMYLIST_COLUMN_INFO@@U?$less@H@std@@V?$allocator@U?$pair@$$CBHUMYLIST_COLUMN_INFO@@@std@@@3@$0A@@std@@@std@@KAAAPAU_Node@?$_Tree_nod@V?$_Tmap_traits@HUMYLIST_COLUMN_INFO@@U?$less@H@std@@V?$allocator@U?$pair@$$CBHUMYLIST_COLUMN_INFO@@@std@@@3@$0A@@std@@@2@PAU342@@Z ; std::_Tree<std::_Tmap_traits<int,MYLIST_COLUMN_INFO,std::less<int>,std::allocator<std::pair<int const ,MYLIST_COLUMN_INFO> >,0> >::_Parent
  00244	83 c4 04	 add	 esp, 4
  00247	8b 08		 mov	 ecx, DWORD PTR [eax]
  00249	89 4d e8	 mov	 DWORD PTR __Pnode$190575[ebp], ecx

; 946  : 					}
; 947  : 				else

  0024c	e9 9c 00 00 00	 jmp	 $L190581
$L190580:

; 948  : 					{	// parent has red and black children
; 949  : 					if (_Pnode == _Right(_Parent(_Pnode)))

  00251	8b 55 e8	 mov	 edx, DWORD PTR __Pnode$190575[ebp]
  00254	52		 push	 edx
  00255	e8 00 00 00 00	 call	 ?_Parent@?$_Tree@V?$_Tmap_traits@HUMYLIST_COLUMN_INFO@@U?$less@H@std@@V?$allocator@U?$pair@$$CBHUMYLIST_COLUMN_INFO@@@std@@@3@$0A@@std@@@std@@KAAAPAU_Node@?$_Tree_nod@V?$_Tmap_traits@HUMYLIST_COLUMN_INFO@@U?$less@H@std@@V?$allocator@U?$pair@$$CBHUMYLIST_COLUMN_INFO@@@std@@@3@$0A@@std@@@2@PAU342@@Z ; std::_Tree<std::_Tmap_traits<int,MYLIST_COLUMN_INFO,std::less<int>,std::allocator<std::pair<int const ,MYLIST_COLUMN_INFO> >,0> >::_Parent
  0025a	83 c4 04	 add	 esp, 4
  0025d	8b 00		 mov	 eax, DWORD PTR [eax]
  0025f	50		 push	 eax
  00260	e8 00 00 00 00	 call	 ?_Right@?$_Tree@V?$_Tmap_traits@HUMYLIST_COLUMN_INFO@@U?$less@H@std@@V?$allocator@U?$pair@$$CBHUMYLIST_COLUMN_INFO@@@std@@@3@$0A@@std@@@std@@KAAAPAU_Node@?$_Tree_nod@V?$_Tmap_traits@HUMYLIST_COLUMN_INFO@@U?$less@H@std@@V?$allocator@U?$pair@$$CBHUMYLIST_COLUMN_INFO@@@std@@@3@$0A@@std@@@2@PAU342@@Z ; std::_Tree<std::_Tmap_traits<int,MYLIST_COLUMN_INFO,std::less<int>,std::allocator<std::pair<int const ,MYLIST_COLUMN_INFO> >,0> >::_Right
  00265	83 c4 04	 add	 esp, 4
  00268	8b 4d e8	 mov	 ecx, DWORD PTR __Pnode$190575[ebp]
  0026b	3b 08		 cmp	 ecx, DWORD PTR [eax]
  0026d	75 1d		 jne	 SHORT $L190582

; 950  : 						{	// rotate right child to left
; 951  : 						_Pnode = _Parent(_Pnode);

  0026f	8b 55 e8	 mov	 edx, DWORD PTR __Pnode$190575[ebp]
  00272	52		 push	 edx
  00273	e8 00 00 00 00	 call	 ?_Parent@?$_Tree@V?$_Tmap_traits@HUMYLIST_COLUMN_INFO@@U?$less@H@std@@V?$allocator@U?$pair@$$CBHUMYLIST_COLUMN_INFO@@@std@@@3@$0A@@std@@@std@@KAAAPAU_Node@?$_Tree_nod@V?$_Tmap_traits@HUMYLIST_COLUMN_INFO@@U?$less@H@std@@V?$allocator@U?$pair@$$CBHUMYLIST_COLUMN_INFO@@@std@@@3@$0A@@std@@@2@PAU342@@Z ; std::_Tree<std::_Tmap_traits<int,MYLIST_COLUMN_INFO,std::less<int>,std::allocator<std::pair<int const ,MYLIST_COLUMN_INFO> >,0> >::_Parent
  00278	83 c4 04	 add	 esp, 4
  0027b	8b 00		 mov	 eax, DWORD PTR [eax]
  0027d	89 45 e8	 mov	 DWORD PTR __Pnode$190575[ebp], eax

; 952  : 						_Lrotate(_Pnode);

  00280	8b 4d e8	 mov	 ecx, DWORD PTR __Pnode$190575[ebp]
  00283	51		 push	 ecx
  00284	8b 4d f0	 mov	 ecx, DWORD PTR _this$[ebp]
  00287	e8 00 00 00 00	 call	 ?_Lrotate@?$_Tree@V?$_Tmap_traits@HUMYLIST_COLUMN_INFO@@U?$less@H@std@@V?$allocator@U?$pair@$$CBHUMYLIST_COLUMN_INFO@@@std@@@3@$0A@@std@@@std@@IAEXPAU_Node@?$_Tree_nod@V?$_Tmap_traits@HUMYLIST_COLUMN_INFO@@U?$less@H@std@@V?$allocator@U?$pair@$$CBHUMYLIST_COLUMN_INFO@@@std@@@3@$0A@@std@@@2@@Z ; std::_Tree<std::_Tmap_traits<int,MYLIST_COLUMN_INFO,std::less<int>,std::allocator<std::pair<int const ,MYLIST_COLUMN_INFO> >,0> >::_Lrotate
$L190582:

; 953  : 						}
; 954  : 					_Color(_Parent(_Pnode)) = _Black;	// propagate red up

  0028c	8b 55 e8	 mov	 edx, DWORD PTR __Pnode$190575[ebp]
  0028f	52		 push	 edx
  00290	e8 00 00 00 00	 call	 ?_Parent@?$_Tree@V?$_Tmap_traits@HUMYLIST_COLUMN_INFO@@U?$less@H@std@@V?$allocator@U?$pair@$$CBHUMYLIST_COLUMN_INFO@@@std@@@3@$0A@@std@@@std@@KAAAPAU_Node@?$_Tree_nod@V?$_Tmap_traits@HUMYLIST_COLUMN_INFO@@U?$less@H@std@@V?$allocator@U?$pair@$$CBHUMYLIST_COLUMN_INFO@@@std@@@3@$0A@@std@@@2@PAU342@@Z ; std::_Tree<std::_Tmap_traits<int,MYLIST_COLUMN_INFO,std::less<int>,std::allocator<std::pair<int const ,MYLIST_COLUMN_INFO> >,0> >::_Parent
  00295	83 c4 04	 add	 esp, 4
  00298	8b 00		 mov	 eax, DWORD PTR [eax]
  0029a	50		 push	 eax
  0029b	e8 00 00 00 00	 call	 ?_Color@?$_Tree@V?$_Tmap_traits@HUMYLIST_COLUMN_INFO@@U?$less@H@std@@V?$allocator@U?$pair@$$CBHUMYLIST_COLUMN_INFO@@@std@@@3@$0A@@std@@@std@@KAAADPAU_Node@?$_Tree_nod@V?$_Tmap_traits@HUMYLIST_COLUMN_INFO@@U?$less@H@std@@V?$allocator@U?$pair@$$CBHUMYLIST_COLUMN_INFO@@@std@@@3@$0A@@std@@@2@@Z ; std::_Tree<std::_Tmap_traits<int,MYLIST_COLUMN_INFO,std::less<int>,std::allocator<std::pair<int const ,MYLIST_COLUMN_INFO> >,0> >::_Color
  002a0	83 c4 04	 add	 esp, 4
  002a3	c6 00 01	 mov	 BYTE PTR [eax], 1

; 955  : 					_Color(_Parent(_Parent(_Pnode))) = _Red;

  002a6	8b 4d e8	 mov	 ecx, DWORD PTR __Pnode$190575[ebp]
  002a9	51		 push	 ecx
  002aa	e8 00 00 00 00	 call	 ?_Parent@?$_Tree@V?$_Tmap_traits@HUMYLIST_COLUMN_INFO@@U?$less@H@std@@V?$allocator@U?$pair@$$CBHUMYLIST_COLUMN_INFO@@@std@@@3@$0A@@std@@@std@@KAAAPAU_Node@?$_Tree_nod@V?$_Tmap_traits@HUMYLIST_COLUMN_INFO@@U?$less@H@std@@V?$allocator@U?$pair@$$CBHUMYLIST_COLUMN_INFO@@@std@@@3@$0A@@std@@@2@PAU342@@Z ; std::_Tree<std::_Tmap_traits<int,MYLIST_COLUMN_INFO,std::less<int>,std::allocator<std::pair<int const ,MYLIST_COLUMN_INFO> >,0> >::_Parent
  002af	83 c4 04	 add	 esp, 4
  002b2	8b 10		 mov	 edx, DWORD PTR [eax]
  002b4	52		 push	 edx
  002b5	e8 00 00 00 00	 call	 ?_Parent@?$_Tree@V?$_Tmap_traits@HUMYLIST_COLUMN_INFO@@U?$less@H@std@@V?$allocator@U?$pair@$$CBHUMYLIST_COLUMN_INFO@@@std@@@3@$0A@@std@@@std@@KAAAPAU_Node@?$_Tree_nod@V?$_Tmap_traits@HUMYLIST_COLUMN_INFO@@U?$less@H@std@@V?$allocator@U?$pair@$$CBHUMYLIST_COLUMN_INFO@@@std@@@3@$0A@@std@@@2@PAU342@@Z ; std::_Tree<std::_Tmap_traits<int,MYLIST_COLUMN_INFO,std::less<int>,std::allocator<std::pair<int const ,MYLIST_COLUMN_INFO> >,0> >::_Parent
  002ba	83 c4 04	 add	 esp, 4
  002bd	8b 00		 mov	 eax, DWORD PTR [eax]
  002bf	50		 push	 eax
  002c0	e8 00 00 00 00	 call	 ?_Color@?$_Tree@V?$_Tmap_traits@HUMYLIST_COLUMN_INFO@@U?$less@H@std@@V?$allocator@U?$pair@$$CBHUMYLIST_COLUMN_INFO@@@std@@@3@$0A@@std@@@std@@KAAADPAU_Node@?$_Tree_nod@V?$_Tmap_traits@HUMYLIST_COLUMN_INFO@@U?$less@H@std@@V?$allocator@U?$pair@$$CBHUMYLIST_COLUMN_INFO@@@std@@@3@$0A@@std@@@2@@Z ; std::_Tree<std::_Tmap_traits<int,MYLIST_COLUMN_INFO,std::less<int>,std::allocator<std::pair<int const ,MYLIST_COLUMN_INFO> >,0> >::_Color
  002c5	83 c4 04	 add	 esp, 4
  002c8	c6 00 00	 mov	 BYTE PTR [eax], 0

; 956  : 					_Rrotate(_Parent(_Parent(_Pnode)));

  002cb	8b 4d e8	 mov	 ecx, DWORD PTR __Pnode$190575[ebp]
  002ce	51		 push	 ecx
  002cf	e8 00 00 00 00	 call	 ?_Parent@?$_Tree@V?$_Tmap_traits@HUMYLIST_COLUMN_INFO@@U?$less@H@std@@V?$allocator@U?$pair@$$CBHUMYLIST_COLUMN_INFO@@@std@@@3@$0A@@std@@@std@@KAAAPAU_Node@?$_Tree_nod@V?$_Tmap_traits@HUMYLIST_COLUMN_INFO@@U?$less@H@std@@V?$allocator@U?$pair@$$CBHUMYLIST_COLUMN_INFO@@@std@@@3@$0A@@std@@@2@PAU342@@Z ; std::_Tree<std::_Tmap_traits<int,MYLIST_COLUMN_INFO,std::less<int>,std::allocator<std::pair<int const ,MYLIST_COLUMN_INFO> >,0> >::_Parent
  002d4	83 c4 04	 add	 esp, 4
  002d7	8b 10		 mov	 edx, DWORD PTR [eax]
  002d9	52		 push	 edx
  002da	e8 00 00 00 00	 call	 ?_Parent@?$_Tree@V?$_Tmap_traits@HUMYLIST_COLUMN_INFO@@U?$less@H@std@@V?$allocator@U?$pair@$$CBHUMYLIST_COLUMN_INFO@@@std@@@3@$0A@@std@@@std@@KAAAPAU_Node@?$_Tree_nod@V?$_Tmap_traits@HUMYLIST_COLUMN_INFO@@U?$less@H@std@@V?$allocator@U?$pair@$$CBHUMYLIST_COLUMN_INFO@@@std@@@3@$0A@@std@@@2@PAU342@@Z ; std::_Tree<std::_Tmap_traits<int,MYLIST_COLUMN_INFO,std::less<int>,std::allocator<std::pair<int const ,MYLIST_COLUMN_INFO> >,0> >::_Parent
  002df	83 c4 04	 add	 esp, 4
  002e2	8b 00		 mov	 eax, DWORD PTR [eax]
  002e4	50		 push	 eax
  002e5	8b 4d f0	 mov	 ecx, DWORD PTR _this$[ebp]
  002e8	e8 00 00 00 00	 call	 ?_Rrotate@?$_Tree@V?$_Tmap_traits@HUMYLIST_COLUMN_INFO@@U?$less@H@std@@V?$allocator@U?$pair@$$CBHUMYLIST_COLUMN_INFO@@@std@@@3@$0A@@std@@@std@@IAEXPAU_Node@?$_Tree_nod@V?$_Tmap_traits@HUMYLIST_COLUMN_INFO@@U?$less@H@std@@V?$allocator@U?$pair@$$CBHUMYLIST_COLUMN_INFO@@@std@@@3@$0A@@std@@@2@@Z ; std::_Tree<std::_Tmap_traits<int,MYLIST_COLUMN_INFO,std::less<int>,std::allocator<std::pair<int const ,MYLIST_COLUMN_INFO> >,0> >::_Rrotate
$L190581:

; 957  : 					}
; 958  : 				}
; 959  : 			else

  002ed	e9 45 01 00 00	 jmp	 $L190583
$L190579:

; 960  : 				{	// fixup red-red in right subtree
; 961  : 				_Wherenode = _Left(_Parent(_Parent(_Pnode)));

  002f2	8b 4d e8	 mov	 ecx, DWORD PTR __Pnode$190575[ebp]
  002f5	51		 push	 ecx
  002f6	e8 00 00 00 00	 call	 ?_Parent@?$_Tree@V?$_Tmap_traits@HUMYLIST_COLUMN_INFO@@U?$less@H@std@@V?$allocator@U?$pair@$$CBHUMYLIST_COLUMN_INFO@@@std@@@3@$0A@@std@@@std@@KAAAPAU_Node@?$_Tree_nod@V?$_Tmap_traits@HUMYLIST_COLUMN_INFO@@U?$less@H@std@@V?$allocator@U?$pair@$$CBHUMYLIST_COLUMN_INFO@@@std@@@3@$0A@@std@@@2@PAU342@@Z ; std::_Tree<std::_Tmap_traits<int,MYLIST_COLUMN_INFO,std::less<int>,std::allocator<std::pair<int const ,MYLIST_COLUMN_INFO> >,0> >::_Parent
  002fb	83 c4 04	 add	 esp, 4
  002fe	8b 10		 mov	 edx, DWORD PTR [eax]
  00300	52		 push	 edx
  00301	e8 00 00 00 00	 call	 ?_Parent@?$_Tree@V?$_Tmap_traits@HUMYLIST_COLUMN_INFO@@U?$less@H@std@@V?$allocator@U?$pair@$$CBHUMYLIST_COLUMN_INFO@@@std@@@3@$0A@@std@@@std@@KAAAPAU_Node@?$_Tree_nod@V?$_Tmap_traits@HUMYLIST_COLUMN_INFO@@U?$less@H@std@@V?$allocator@U?$pair@$$CBHUMYLIST_COLUMN_INFO@@@std@@@3@$0A@@std@@@2@PAU342@@Z ; std::_Tree<std::_Tmap_traits<int,MYLIST_COLUMN_INFO,std::less<int>,std::allocator<std::pair<int const ,MYLIST_COLUMN_INFO> >,0> >::_Parent
  00306	83 c4 04	 add	 esp, 4
  00309	8b 00		 mov	 eax, DWORD PTR [eax]
  0030b	50		 push	 eax
  0030c	e8 00 00 00 00	 call	 ?_Left@?$_Tree@V?$_Tmap_traits@HUMYLIST_COLUMN_INFO@@U?$less@H@std@@V?$allocator@U?$pair@$$CBHUMYLIST_COLUMN_INFO@@@std@@@3@$0A@@std@@@std@@KAAAPAU_Node@?$_Tree_nod@V?$_Tmap_traits@HUMYLIST_COLUMN_INFO@@U?$less@H@std@@V?$allocator@U?$pair@$$CBHUMYLIST_COLUMN_INFO@@@std@@@3@$0A@@std@@@2@PAU342@@Z ; std::_Tree<std::_Tmap_traits<int,MYLIST_COLUMN_INFO,std::less<int>,std::allocator<std::pair<int const ,MYLIST_COLUMN_INFO> >,0> >::_Left
  00311	83 c4 04	 add	 esp, 4
  00314	8b 08		 mov	 ecx, DWORD PTR [eax]
  00316	89 4d 10	 mov	 DWORD PTR __Wherenode$[ebp], ecx

; 962  : 				if (_Color(_Wherenode) == _Red)

  00319	8b 55 10	 mov	 edx, DWORD PTR __Wherenode$[ebp]
  0031c	52		 push	 edx
  0031d	e8 00 00 00 00	 call	 ?_Color@?$_Tree@V?$_Tmap_traits@HUMYLIST_COLUMN_INFO@@U?$less@H@std@@V?$allocator@U?$pair@$$CBHUMYLIST_COLUMN_INFO@@@std@@@3@$0A@@std@@@std@@KAAADPAU_Node@?$_Tree_nod@V?$_Tmap_traits@HUMYLIST_COLUMN_INFO@@U?$less@H@std@@V?$allocator@U?$pair@$$CBHUMYLIST_COLUMN_INFO@@@std@@@3@$0A@@std@@@2@@Z ; std::_Tree<std::_Tmap_traits<int,MYLIST_COLUMN_INFO,std::less<int>,std::allocator<std::pair<int const ,MYLIST_COLUMN_INFO> >,0> >::_Color
  00322	83 c4 04	 add	 esp, 4
  00325	0f be 00	 movsx	 eax, BYTE PTR [eax]
  00328	85 c0		 test	 eax, eax
  0032a	75 6f		 jne	 SHORT $L190584

; 963  : 					{	// parent has two red children, blacken both
; 964  : 					_Color(_Parent(_Pnode)) = _Black;

  0032c	8b 4d e8	 mov	 ecx, DWORD PTR __Pnode$190575[ebp]
  0032f	51		 push	 ecx
  00330	e8 00 00 00 00	 call	 ?_Parent@?$_Tree@V?$_Tmap_traits@HUMYLIST_COLUMN_INFO@@U?$less@H@std@@V?$allocator@U?$pair@$$CBHUMYLIST_COLUMN_INFO@@@std@@@3@$0A@@std@@@std@@KAAAPAU_Node@?$_Tree_nod@V?$_Tmap_traits@HUMYLIST_COLUMN_INFO@@U?$less@H@std@@V?$allocator@U?$pair@$$CBHUMYLIST_COLUMN_INFO@@@std@@@3@$0A@@std@@@2@PAU342@@Z ; std::_Tree<std::_Tmap_traits<int,MYLIST_COLUMN_INFO,std::less<int>,std::allocator<std::pair<int const ,MYLIST_COLUMN_INFO> >,0> >::_Parent
  00335	83 c4 04	 add	 esp, 4
  00338	8b 10		 mov	 edx, DWORD PTR [eax]
  0033a	52		 push	 edx
  0033b	e8 00 00 00 00	 call	 ?_Color@?$_Tree@V?$_Tmap_traits@HUMYLIST_COLUMN_INFO@@U?$less@H@std@@V?$allocator@U?$pair@$$CBHUMYLIST_COLUMN_INFO@@@std@@@3@$0A@@std@@@std@@KAAADPAU_Node@?$_Tree_nod@V?$_Tmap_traits@HUMYLIST_COLUMN_INFO@@U?$less@H@std@@V?$allocator@U?$pair@$$CBHUMYLIST_COLUMN_INFO@@@std@@@3@$0A@@std@@@2@@Z ; std::_Tree<std::_Tmap_traits<int,MYLIST_COLUMN_INFO,std::less<int>,std::allocator<std::pair<int const ,MYLIST_COLUMN_INFO> >,0> >::_Color
  00340	83 c4 04	 add	 esp, 4
  00343	c6 00 01	 mov	 BYTE PTR [eax], 1

; 965  : 					_Color(_Wherenode) = _Black;

  00346	8b 45 10	 mov	 eax, DWORD PTR __Wherenode$[ebp]
  00349	50		 push	 eax
  0034a	e8 00 00 00 00	 call	 ?_Color@?$_Tree@V?$_Tmap_traits@HUMYLIST_COLUMN_INFO@@U?$less@H@std@@V?$allocator@U?$pair@$$CBHUMYLIST_COLUMN_INFO@@@std@@@3@$0A@@std@@@std@@KAAADPAU_Node@?$_Tree_nod@V?$_Tmap_traits@HUMYLIST_COLUMN_INFO@@U?$less@H@std@@V?$allocator@U?$pair@$$CBHUMYLIST_COLUMN_INFO@@@std@@@3@$0A@@std@@@2@@Z ; std::_Tree<std::_Tmap_traits<int,MYLIST_COLUMN_INFO,std::less<int>,std::allocator<std::pair<int const ,MYLIST_COLUMN_INFO> >,0> >::_Color
  0034f	83 c4 04	 add	 esp, 4
  00352	c6 00 01	 mov	 BYTE PTR [eax], 1

; 966  : 					_Color(_Parent(_Parent(_Pnode))) = _Red;

  00355	8b 4d e8	 mov	 ecx, DWORD PTR __Pnode$190575[ebp]
  00358	51		 push	 ecx
  00359	e8 00 00 00 00	 call	 ?_Parent@?$_Tree@V?$_Tmap_traits@HUMYLIST_COLUMN_INFO@@U?$less@H@std@@V?$allocator@U?$pair@$$CBHUMYLIST_COLUMN_INFO@@@std@@@3@$0A@@std@@@std@@KAAAPAU_Node@?$_Tree_nod@V?$_Tmap_traits@HUMYLIST_COLUMN_INFO@@U?$less@H@std@@V?$allocator@U?$pair@$$CBHUMYLIST_COLUMN_INFO@@@std@@@3@$0A@@std@@@2@PAU342@@Z ; std::_Tree<std::_Tmap_traits<int,MYLIST_COLUMN_INFO,std::less<int>,std::allocator<std::pair<int const ,MYLIST_COLUMN_INFO> >,0> >::_Parent
  0035e	83 c4 04	 add	 esp, 4
  00361	8b 10		 mov	 edx, DWORD PTR [eax]
  00363	52		 push	 edx
  00364	e8 00 00 00 00	 call	 ?_Parent@?$_Tree@V?$_Tmap_traits@HUMYLIST_COLUMN_INFO@@U?$less@H@std@@V?$allocator@U?$pair@$$CBHUMYLIST_COLUMN_INFO@@@std@@@3@$0A@@std@@@std@@KAAAPAU_Node@?$_Tree_nod@V?$_Tmap_traits@HUMYLIST_COLUMN_INFO@@U?$less@H@std@@V?$allocator@U?$pair@$$CBHUMYLIST_COLUMN_INFO@@@std@@@3@$0A@@std@@@2@PAU342@@Z ; std::_Tree<std::_Tmap_traits<int,MYLIST_COLUMN_INFO,std::less<int>,std::allocator<std::pair<int const ,MYLIST_COLUMN_INFO> >,0> >::_Parent
  00369	83 c4 04	 add	 esp, 4
  0036c	8b 00		 mov	 eax, DWORD PTR [eax]
  0036e	50		 push	 eax
  0036f	e8 00 00 00 00	 call	 ?_Color@?$_Tree@V?$_Tmap_traits@HUMYLIST_COLUMN_INFO@@U?$less@H@std@@V?$allocator@U?$pair@$$CBHUMYLIST_COLUMN_INFO@@@std@@@3@$0A@@std@@@std@@KAAADPAU_Node@?$_Tree_nod@V?$_Tmap_traits@HUMYLIST_COLUMN_INFO@@U?$less@H@std@@V?$allocator@U?$pair@$$CBHUMYLIST_COLUMN_INFO@@@std@@@3@$0A@@std@@@2@@Z ; std::_Tree<std::_Tmap_traits<int,MYLIST_COLUMN_INFO,std::less<int>,std::allocator<std::pair<int const ,MYLIST_COLUMN_INFO> >,0> >::_Color
  00374	83 c4 04	 add	 esp, 4
  00377	c6 00 00	 mov	 BYTE PTR [eax], 0

; 967  : 					_Pnode = _Parent(_Parent(_Pnode));

  0037a	8b 4d e8	 mov	 ecx, DWORD PTR __Pnode$190575[ebp]
  0037d	51		 push	 ecx
  0037e	e8 00 00 00 00	 call	 ?_Parent@?$_Tree@V?$_Tmap_traits@HUMYLIST_COLUMN_INFO@@U?$less@H@std@@V?$allocator@U?$pair@$$CBHUMYLIST_COLUMN_INFO@@@std@@@3@$0A@@std@@@std@@KAAAPAU_Node@?$_Tree_nod@V?$_Tmap_traits@HUMYLIST_COLUMN_INFO@@U?$less@H@std@@V?$allocator@U?$pair@$$CBHUMYLIST_COLUMN_INFO@@@std@@@3@$0A@@std@@@2@PAU342@@Z ; std::_Tree<std::_Tmap_traits<int,MYLIST_COLUMN_INFO,std::less<int>,std::allocator<std::pair<int const ,MYLIST_COLUMN_INFO> >,0> >::_Parent
  00383	83 c4 04	 add	 esp, 4
  00386	8b 10		 mov	 edx, DWORD PTR [eax]
  00388	52		 push	 edx
  00389	e8 00 00 00 00	 call	 ?_Parent@?$_Tree@V?$_Tmap_traits@HUMYLIST_COLUMN_INFO@@U?$less@H@std@@V?$allocator@U?$pair@$$CBHUMYLIST_COLUMN_INFO@@@std@@@3@$0A@@std@@@std@@KAAAPAU_Node@?$_Tree_nod@V?$_Tmap_traits@HUMYLIST_COLUMN_INFO@@U?$less@H@std@@V?$allocator@U?$pair@$$CBHUMYLIST_COLUMN_INFO@@@std@@@3@$0A@@std@@@2@PAU342@@Z ; std::_Tree<std::_Tmap_traits<int,MYLIST_COLUMN_INFO,std::less<int>,std::allocator<std::pair<int const ,MYLIST_COLUMN_INFO> >,0> >::_Parent
  0038e	83 c4 04	 add	 esp, 4
  00391	8b 00		 mov	 eax, DWORD PTR [eax]
  00393	89 45 e8	 mov	 DWORD PTR __Pnode$190575[ebp], eax

; 968  : 					}
; 969  : 				else

  00396	e9 9c 00 00 00	 jmp	 $L190583
$L190584:

; 970  : 					{	// parent has red and black children
; 971  : 					if (_Pnode == _Left(_Parent(_Pnode)))

  0039b	8b 4d e8	 mov	 ecx, DWORD PTR __Pnode$190575[ebp]
  0039e	51		 push	 ecx
  0039f	e8 00 00 00 00	 call	 ?_Parent@?$_Tree@V?$_Tmap_traits@HUMYLIST_COLUMN_INFO@@U?$less@H@std@@V?$allocator@U?$pair@$$CBHUMYLIST_COLUMN_INFO@@@std@@@3@$0A@@std@@@std@@KAAAPAU_Node@?$_Tree_nod@V?$_Tmap_traits@HUMYLIST_COLUMN_INFO@@U?$less@H@std@@V?$allocator@U?$pair@$$CBHUMYLIST_COLUMN_INFO@@@std@@@3@$0A@@std@@@2@PAU342@@Z ; std::_Tree<std::_Tmap_traits<int,MYLIST_COLUMN_INFO,std::less<int>,std::allocator<std::pair<int const ,MYLIST_COLUMN_INFO> >,0> >::_Parent
  003a4	83 c4 04	 add	 esp, 4
  003a7	8b 10		 mov	 edx, DWORD PTR [eax]
  003a9	52		 push	 edx
  003aa	e8 00 00 00 00	 call	 ?_Left@?$_Tree@V?$_Tmap_traits@HUMYLIST_COLUMN_INFO@@U?$less@H@std@@V?$allocator@U?$pair@$$CBHUMYLIST_COLUMN_INFO@@@std@@@3@$0A@@std@@@std@@KAAAPAU_Node@?$_Tree_nod@V?$_Tmap_traits@HUMYLIST_COLUMN_INFO@@U?$less@H@std@@V?$allocator@U?$pair@$$CBHUMYLIST_COLUMN_INFO@@@std@@@3@$0A@@std@@@2@PAU342@@Z ; std::_Tree<std::_Tmap_traits<int,MYLIST_COLUMN_INFO,std::less<int>,std::allocator<std::pair<int const ,MYLIST_COLUMN_INFO> >,0> >::_Left
  003af	83 c4 04	 add	 esp, 4
  003b2	8b 4d e8	 mov	 ecx, DWORD PTR __Pnode$190575[ebp]
  003b5	3b 08		 cmp	 ecx, DWORD PTR [eax]
  003b7	75 1d		 jne	 SHORT $L190586

; 972  : 						{	// rotate left child to right
; 973  : 						_Pnode = _Parent(_Pnode);

  003b9	8b 55 e8	 mov	 edx, DWORD PTR __Pnode$190575[ebp]
  003bc	52		 push	 edx
  003bd	e8 00 00 00 00	 call	 ?_Parent@?$_Tree@V?$_Tmap_traits@HUMYLIST_COLUMN_INFO@@U?$less@H@std@@V?$allocator@U?$pair@$$CBHUMYLIST_COLUMN_INFO@@@std@@@3@$0A@@std@@@std@@KAAAPAU_Node@?$_Tree_nod@V?$_Tmap_traits@HUMYLIST_COLUMN_INFO@@U?$less@H@std@@V?$allocator@U?$pair@$$CBHUMYLIST_COLUMN_INFO@@@std@@@3@$0A@@std@@@2@PAU342@@Z ; std::_Tree<std::_Tmap_traits<int,MYLIST_COLUMN_INFO,std::less<int>,std::allocator<std::pair<int const ,MYLIST_COLUMN_INFO> >,0> >::_Parent
  003c2	83 c4 04	 add	 esp, 4
  003c5	8b 00		 mov	 eax, DWORD PTR [eax]
  003c7	89 45 e8	 mov	 DWORD PTR __Pnode$190575[ebp], eax

; 974  : 						_Rrotate(_Pnode);

  003ca	8b 4d e8	 mov	 ecx, DWORD PTR __Pnode$190575[ebp]
  003cd	51		 push	 ecx
  003ce	8b 4d f0	 mov	 ecx, DWORD PTR _this$[ebp]
  003d1	e8 00 00 00 00	 call	 ?_Rrotate@?$_Tree@V?$_Tmap_traits@HUMYLIST_COLUMN_INFO@@U?$less@H@std@@V?$allocator@U?$pair@$$CBHUMYLIST_COLUMN_INFO@@@std@@@3@$0A@@std@@@std@@IAEXPAU_Node@?$_Tree_nod@V?$_Tmap_traits@HUMYLIST_COLUMN_INFO@@U?$less@H@std@@V?$allocator@U?$pair@$$CBHUMYLIST_COLUMN_INFO@@@std@@@3@$0A@@std@@@2@@Z ; std::_Tree<std::_Tmap_traits<int,MYLIST_COLUMN_INFO,std::less<int>,std::allocator<std::pair<int const ,MYLIST_COLUMN_INFO> >,0> >::_Rrotate
$L190586:

; 975  : 						}
; 976  : 					_Color(_Parent(_Pnode)) = _Black;	// propagate red up

  003d6	8b 55 e8	 mov	 edx, DWORD PTR __Pnode$190575[ebp]
  003d9	52		 push	 edx
  003da	e8 00 00 00 00	 call	 ?_Parent@?$_Tree@V?$_Tmap_traits@HUMYLIST_COLUMN_INFO@@U?$less@H@std@@V?$allocator@U?$pair@$$CBHUMYLIST_COLUMN_INFO@@@std@@@3@$0A@@std@@@std@@KAAAPAU_Node@?$_Tree_nod@V?$_Tmap_traits@HUMYLIST_COLUMN_INFO@@U?$less@H@std@@V?$allocator@U?$pair@$$CBHUMYLIST_COLUMN_INFO@@@std@@@3@$0A@@std@@@2@PAU342@@Z ; std::_Tree<std::_Tmap_traits<int,MYLIST_COLUMN_INFO,std::less<int>,std::allocator<std::pair<int const ,MYLIST_COLUMN_INFO> >,0> >::_Parent
  003df	83 c4 04	 add	 esp, 4
  003e2	8b 00		 mov	 eax, DWORD PTR [eax]
  003e4	50		 push	 eax
  003e5	e8 00 00 00 00	 call	 ?_Color@?$_Tree@V?$_Tmap_traits@HUMYLIST_COLUMN_INFO@@U?$less@H@std@@V?$allocator@U?$pair@$$CBHUMYLIST_COLUMN_INFO@@@std@@@3@$0A@@std@@@std@@KAAADPAU_Node@?$_Tree_nod@V?$_Tmap_traits@HUMYLIST_COLUMN_INFO@@U?$less@H@std@@V?$allocator@U?$pair@$$CBHUMYLIST_COLUMN_INFO@@@std@@@3@$0A@@std@@@2@@Z ; std::_Tree<std::_Tmap_traits<int,MYLIST_COLUMN_INFO,std::less<int>,std::allocator<std::pair<int const ,MYLIST_COLUMN_INFO> >,0> >::_Color
  003ea	83 c4 04	 add	 esp, 4
  003ed	c6 00 01	 mov	 BYTE PTR [eax], 1

; 977  : 					_Color(_Parent(_Parent(_Pnode))) = _Red;

  003f0	8b 4d e8	 mov	 ecx, DWORD PTR __Pnode$190575[ebp]
  003f3	51		 push	 ecx
  003f4	e8 00 00 00 00	 call	 ?_Parent@?$_Tree@V?$_Tmap_traits@HUMYLIST_COLUMN_INFO@@U?$less@H@std@@V?$allocator@U?$pair@$$CBHUMYLIST_COLUMN_INFO@@@std@@@3@$0A@@std@@@std@@KAAAPAU_Node@?$_Tree_nod@V?$_Tmap_traits@HUMYLIST_COLUMN_INFO@@U?$less@H@std@@V?$allocator@U?$pair@$$CBHUMYLIST_COLUMN_INFO@@@std@@@3@$0A@@std@@@2@PAU342@@Z ; std::_Tree<std::_Tmap_traits<int,MYLIST_COLUMN_INFO,std::less<int>,std::allocator<std::pair<int const ,MYLIST_COLUMN_INFO> >,0> >::_Parent
  003f9	83 c4 04	 add	 esp, 4
  003fc	8b 10		 mov	 edx, DWORD PTR [eax]
  003fe	52		 push	 edx
  003ff	e8 00 00 00 00	 call	 ?_Parent@?$_Tree@V?$_Tmap_traits@HUMYLIST_COLUMN_INFO@@U?$less@H@std@@V?$allocator@U?$pair@$$CBHUMYLIST_COLUMN_INFO@@@std@@@3@$0A@@std@@@std@@KAAAPAU_Node@?$_Tree_nod@V?$_Tmap_traits@HUMYLIST_COLUMN_INFO@@U?$less@H@std@@V?$allocator@U?$pair@$$CBHUMYLIST_COLUMN_INFO@@@std@@@3@$0A@@std@@@2@PAU342@@Z ; std::_Tree<std::_Tmap_traits<int,MYLIST_COLUMN_INFO,std::less<int>,std::allocator<std::pair<int const ,MYLIST_COLUMN_INFO> >,0> >::_Parent
  00404	83 c4 04	 add	 esp, 4
  00407	8b 00		 mov	 eax, DWORD PTR [eax]
  00409	50		 push	 eax
  0040a	e8 00 00 00 00	 call	 ?_Color@?$_Tree@V?$_Tmap_traits@HUMYLIST_COLUMN_INFO@@U?$less@H@std@@V?$allocator@U?$pair@$$CBHUMYLIST_COLUMN_INFO@@@std@@@3@$0A@@std@@@std@@KAAADPAU_Node@?$_Tree_nod@V?$_Tmap_traits@HUMYLIST_COLUMN_INFO@@U?$less@H@std@@V?$allocator@U?$pair@$$CBHUMYLIST_COLUMN_INFO@@@std@@@3@$0A@@std@@@2@@Z ; std::_Tree<std::_Tmap_traits<int,MYLIST_COLUMN_INFO,std::less<int>,std::allocator<std::pair<int const ,MYLIST_COLUMN_INFO> >,0> >::_Color
  0040f	83 c4 04	 add	 esp, 4
  00412	c6 00 00	 mov	 BYTE PTR [eax], 0

; 978  : 					_Lrotate(_Parent(_Parent(_Pnode)));

  00415	8b 4d e8	 mov	 ecx, DWORD PTR __Pnode$190575[ebp]
  00418	51		 push	 ecx
  00419	e8 00 00 00 00	 call	 ?_Parent@?$_Tree@V?$_Tmap_traits@HUMYLIST_COLUMN_INFO@@U?$less@H@std@@V?$allocator@U?$pair@$$CBHUMYLIST_COLUMN_INFO@@@std@@@3@$0A@@std@@@std@@KAAAPAU_Node@?$_Tree_nod@V?$_Tmap_traits@HUMYLIST_COLUMN_INFO@@U?$less@H@std@@V?$allocator@U?$pair@$$CBHUMYLIST_COLUMN_INFO@@@std@@@3@$0A@@std@@@2@PAU342@@Z ; std::_Tree<std::_Tmap_traits<int,MYLIST_COLUMN_INFO,std::less<int>,std::allocator<std::pair<int const ,MYLIST_COLUMN_INFO> >,0> >::_Parent
  0041e	83 c4 04	 add	 esp, 4
  00421	8b 10		 mov	 edx, DWORD PTR [eax]
  00423	52		 push	 edx
  00424	e8 00 00 00 00	 call	 ?_Parent@?$_Tree@V?$_Tmap_traits@HUMYLIST_COLUMN_INFO@@U?$less@H@std@@V?$allocator@U?$pair@$$CBHUMYLIST_COLUMN_INFO@@@std@@@3@$0A@@std@@@std@@KAAAPAU_Node@?$_Tree_nod@V?$_Tmap_traits@HUMYLIST_COLUMN_INFO@@U?$less@H@std@@V?$allocator@U?$pair@$$CBHUMYLIST_COLUMN_INFO@@@std@@@3@$0A@@std@@@2@PAU342@@Z ; std::_Tree<std::_Tmap_traits<int,MYLIST_COLUMN_INFO,std::less<int>,std::allocator<std::pair<int const ,MYLIST_COLUMN_INFO> >,0> >::_Parent
  00429	83 c4 04	 add	 esp, 4
  0042c	8b 00		 mov	 eax, DWORD PTR [eax]
  0042e	50		 push	 eax
  0042f	8b 4d f0	 mov	 ecx, DWORD PTR _this$[ebp]
  00432	e8 00 00 00 00	 call	 ?_Lrotate@?$_Tree@V?$_Tmap_traits@HUMYLIST_COLUMN_INFO@@U?$less@H@std@@V?$allocator@U?$pair@$$CBHUMYLIST_COLUMN_INFO@@@std@@@3@$0A@@std@@@std@@IAEXPAU_Node@?$_Tree_nod@V?$_Tmap_traits@HUMYLIST_COLUMN_INFO@@U?$less@H@std@@V?$allocator@U?$pair@$$CBHUMYLIST_COLUMN_INFO@@@std@@@3@$0A@@std@@@2@@Z ; std::_Tree<std::_Tmap_traits<int,MYLIST_COLUMN_INFO,std::less<int>,std::allocator<std::pair<int const ,MYLIST_COLUMN_INFO> >,0> >::_Lrotate
$L190583:

; 979  : 					}
; 980  : 				}

  00437	e9 10 fd ff ff	 jmp	 $L190577
$L190578:

; 981  : 
; 982  : 		_Color(_Root()) = _Black;	// root is always black

  0043c	8b 4d f0	 mov	 ecx, DWORD PTR _this$[ebp]
  0043f	e8 00 00 00 00	 call	 ?_Root@?$_Tree@V?$_Tmap_traits@HUMYLIST_COLUMN_INFO@@U?$less@H@std@@V?$allocator@U?$pair@$$CBHUMYLIST_COLUMN_INFO@@@std@@@3@$0A@@std@@@std@@IAEAAPAU_Node@?$_Tree_nod@V?$_Tmap_traits@HUMYLIST_COLUMN_INFO@@U?$less@H@std@@V?$allocator@U?$pair@$$CBHUMYLIST_COLUMN_INFO@@@std@@@3@$0A@@std@@@2@XZ ; std::_Tree<std::_Tmap_traits<int,MYLIST_COLUMN_INFO,std::less<int>,std::allocator<std::pair<int const ,MYLIST_COLUMN_INFO> >,0> >::_Root
  00444	8b 08		 mov	 ecx, DWORD PTR [eax]
  00446	51		 push	 ecx
  00447	e8 00 00 00 00	 call	 ?_Color@?$_Tree@V?$_Tmap_traits@HUMYLIST_COLUMN_INFO@@U?$less@H@std@@V?$allocator@U?$pair@$$CBHUMYLIST_COLUMN_INFO@@@std@@@3@$0A@@std@@@std@@KAAADPAU_Node@?$_Tree_nod@V?$_Tmap_traits@HUMYLIST_COLUMN_INFO@@U?$less@H@std@@V?$allocator@U?$pair@$$CBHUMYLIST_COLUMN_INFO@@@std@@@3@$0A@@std@@@2@@Z ; std::_Tree<std::_Tmap_traits<int,MYLIST_COLUMN_INFO,std::less<int>,std::allocator<std::pair<int const ,MYLIST_COLUMN_INFO> >,0> >::_Color
  0044c	83 c4 04	 add	 esp, 4
  0044f	c6 00 01	 mov	 BYTE PTR [eax], 1

; 983  : 		return (_TREE_ITERATOR(_Newnode));

  00452	8b 55 ec	 mov	 edx, DWORD PTR __Newnode$[ebp]
  00455	52		 push	 edx
  00456	8b 4d 08	 mov	 ecx, DWORD PTR ___$ReturnUdt$[ebp]
  00459	e8 00 00 00 00	 call	 ??0iterator@?$_Tree@V?$_Tmap_traits@HUMYLIST_COLUMN_INFO@@U?$less@H@std@@V?$allocator@U?$pair@$$CBHUMYLIST_COLUMN_INFO@@@std@@@3@$0A@@std@@@std@@QAE@PAU_Node@?$_Tree_nod@V?$_Tmap_traits@HUMYLIST_COLUMN_INFO@@U?$less@H@std@@V?$allocator@U?$pair@$$CBHUMYLIST_COLUMN_INFO@@@std@@@3@$0A@@std@@@2@@Z ; std::_Tree<std::_Tmap_traits<int,MYLIST_COLUMN_INFO,std::less<int>,std::allocator<std::pair<int const ,MYLIST_COLUMN_INFO> >,0> >::iterator::iterator
  0045e	8b 45 08	 mov	 eax, DWORD PTR ___$ReturnUdt$[ebp]
$L192100:

; 984  : 		}

  00461	8b 4d f4	 mov	 ecx, DWORD PTR __$EHRec$[ebp]
  00464	64 89 0d 00 00
	00 00		 mov	 DWORD PTR fs:__except_list, ecx
  0046b	5f		 pop	 edi
  0046c	5e		 pop	 esi
  0046d	83 c4 5c	 add	 esp, 92			; 0000005cH
  00470	3b ec		 cmp	 ebp, esp
  00472	e8 00 00 00 00	 call	 __RTC_CheckEsp
  00477	8b e5		 mov	 esp, ebp
  00479	5d		 pop	 ebp
  0047a	c2 10 00	 ret	 16			; 00000010H
_TEXT	ENDS
;	COMDAT text$x
text$x	SEGMENT
$L192104:
  00000	8b f4		 mov	 esi, esp
  00002	8d 4d a4	 lea	 ecx, DWORD PTR $T192102[ebp]
  00005	ff 15 00 00 00
	00		 call	 DWORD PTR __imp_??1?$basic_string@DU?$char_traits@D@std@@V?$allocator@D@2@@std@@QAE@XZ
  0000b	3b f4		 cmp	 esi, esp
  0000d	e9 00 00 00 00	 jmp	 __RTC_CheckEsp
__ehhandler$?_Insert@?$_Tree@V?$_Tmap_traits@HUMYLIST_COLUMN_INFO@@U?$less@H@std@@V?$allocator@U?$pair@$$CBHUMYLIST_COLUMN_INFO@@@std@@@3@$0A@@std@@@std@@IAE?AViterator@12@_NPAU_Node@?$_Tree_nod@V?$_Tmap_traits@HUMYLIST_COLUMN_INFO@@U?$less@H@std@@V?$allocator@U?$pair@$$CBHUMYLIST_COLUMN_INFO@@@std@@@3@$0A@@std@@@2@ABU?$pair@$$CBHUMYLIST_COLUMN_INFO@@@2@@Z:
  00012	b8 00 00 00 00	 mov	 eax, OFFSET FLAT:$T192106
  00017	e9 00 00 00 00	 jmp	 ___CxxFrameHandler
text$x	ENDS
?_Insert@?$_Tree@V?$_Tmap_traits@HUMYLIST_COLUMN_INFO@@U?$less@H@std@@V?$allocator@U?$pair@$$CBHUMYLIST_COLUMN_INFO@@@std@@@3@$0A@@std@@@std@@IAE?AViterator@12@_NPAU_Node@?$_Tree_nod@V?$_Tmap_traits@HUMYLIST_COLUMN_INFO@@U?$less@H@std@@V?$allocator@U?$pair@$$CBHUMYLIST_COLUMN_INFO@@@std@@@3@$0A@@std@@@2@ABU?$pair@$$CBHUMYLIST_COLUMN_INFO@@@2@@Z ENDP ; std::_Tree<std::_Tmap_traits<int,MYLIST_COLUMN_INFO,std::less<int>,std::allocator<std::pair<int const ,MYLIST_COLUMN_INFO> >,0> >::_Insert
PUBLIC	?_Root@?$_Tree@V?$_Tmap_traits@HUMYLIST_COLUMN_INFO@@U?$less@H@std@@V?$allocator@U?$pair@$$CBHUMYLIST_COLUMN_INFO@@@std@@@3@$0A@@std@@@std@@IBEAAPAU_Node@?$_Tree_nod@V?$_Tmap_traits@HUMYLIST_COLUMN_INFO@@U?$less@H@std@@V?$allocator@U?$pair@$$CBHUMYLIST_COLUMN_INFO@@@std@@@3@$0A@@std@@@2@XZ ; std::_Tree<std::_Tmap_traits<int,MYLIST_COLUMN_INFO,std::less<int>,std::allocator<std::pair<int const ,MYLIST_COLUMN_INFO> >,0> >::_Root
; Function compile flags: /Odt /RTCsu
;	COMDAT ?_Lbound@?$_Tree@V?$_Tmap_traits@HUMYLIST_COLUMN_INFO@@U?$less@H@std@@V?$allocator@U?$pair@$$CBHUMYLIST_COLUMN_INFO@@@std@@@3@$0A@@std@@@std@@IBEPAU_Node@?$_Tree_nod@V?$_Tmap_traits@HUMYLIST_COLUMN_INFO@@U?$less@H@std@@V?$allocator@U?$pair@$$CBHUMYLIST_COLUMN_INFO@@@std@@@3@$0A@@std@@@2@ABH@Z
_TEXT	SEGMENT
__Wherenode$ = -12					; size = 4
__Pnode$ = -8						; size = 4
_this$ = -4						; size = 4
__Keyval$ = 8						; size = 4
?_Lbound@?$_Tree@V?$_Tmap_traits@HUMYLIST_COLUMN_INFO@@U?$less@H@std@@V?$allocator@U?$pair@$$CBHUMYLIST_COLUMN_INFO@@@std@@@3@$0A@@std@@@std@@IBEPAU_Node@?$_Tree_nod@V?$_Tmap_traits@HUMYLIST_COLUMN_INFO@@U?$less@H@std@@V?$allocator@U?$pair@$$CBHUMYLIST_COLUMN_INFO@@@std@@@3@$0A@@std@@@2@ABH@Z PROC NEAR ; std::_Tree<std::_Tmap_traits<int,MYLIST_COLUMN_INFO,std::less<int>,std::allocator<std::pair<int const ,MYLIST_COLUMN_INFO> >,0> >::_Lbound, COMDAT
; _this$ = ecx

; 987  : 		{	// find leftmost node not less than _Keyval

  00000	55		 push	 ebp
  00001	8b ec		 mov	 ebp, esp
  00003	83 ec 0c	 sub	 esp, 12			; 0000000cH
  00006	c7 45 f4 cc cc
	cc cc		 mov	 DWORD PTR [ebp-12], -858993460 ; ccccccccH
  0000d	c7 45 f8 cc cc
	cc cc		 mov	 DWORD PTR [ebp-8], -858993460 ; ccccccccH
  00014	c7 45 fc cc cc
	cc cc		 mov	 DWORD PTR [ebp-4], -858993460 ; ccccccccH
  0001b	89 4d fc	 mov	 DWORD PTR _this$[ebp], ecx

; 988  : 		_Nodeptr _Pnode = _Root();

  0001e	8b 4d fc	 mov	 ecx, DWORD PTR _this$[ebp]
  00021	e8 00 00 00 00	 call	 ?_Root@?$_Tree@V?$_Tmap_traits@HUMYLIST_COLUMN_INFO@@U?$less@H@std@@V?$allocator@U?$pair@$$CBHUMYLIST_COLUMN_INFO@@@std@@@3@$0A@@std@@@std@@IBEAAPAU_Node@?$_Tree_nod@V?$_Tmap_traits@HUMYLIST_COLUMN_INFO@@U?$less@H@std@@V?$allocator@U?$pair@$$CBHUMYLIST_COLUMN_INFO@@@std@@@3@$0A@@std@@@2@XZ ; std::_Tree<std::_Tmap_traits<int,MYLIST_COLUMN_INFO,std::less<int>,std::allocator<std::pair<int const ,MYLIST_COLUMN_INFO> >,0> >::_Root
  00026	8b 00		 mov	 eax, DWORD PTR [eax]
  00028	89 45 f8	 mov	 DWORD PTR __Pnode$[ebp], eax

; 989  : 		_Nodeptr _Wherenode = _Myhead;	// end() if search fails

  0002b	8b 4d fc	 mov	 ecx, DWORD PTR _this$[ebp]
  0002e	8b 51 04	 mov	 edx, DWORD PTR [ecx+4]
  00031	89 55 f4	 mov	 DWORD PTR __Wherenode$[ebp], edx
$L190593:

; 990  : 
; 991  : 		while (!_Isnil(_Pnode))

  00034	8b 45 f8	 mov	 eax, DWORD PTR __Pnode$[ebp]
  00037	50		 push	 eax
  00038	e8 00 00 00 00	 call	 ?_Isnil@?$_Tree@V?$_Tmap_traits@HUMYLIST_COLUMN_INFO@@U?$less@H@std@@V?$allocator@U?$pair@$$CBHUMYLIST_COLUMN_INFO@@@std@@@3@$0A@@std@@@std@@KAAADPAU_Node@?$_Tree_nod@V?$_Tmap_traits@HUMYLIST_COLUMN_INFO@@U?$less@H@std@@V?$allocator@U?$pair@$$CBHUMYLIST_COLUMN_INFO@@@std@@@3@$0A@@std@@@2@@Z ; std::_Tree<std::_Tmap_traits<int,MYLIST_COLUMN_INFO,std::less<int>,std::allocator<std::pair<int const ,MYLIST_COLUMN_INFO> >,0> >::_Isnil
  0003d	83 c4 04	 add	 esp, 4
  00040	0f be 08	 movsx	 ecx, BYTE PTR [eax]
  00043	85 c9		 test	 ecx, ecx
  00045	75 4c		 jne	 SHORT $L190594

; 992  : 			if (this->comp(_Key(_Pnode), _Keyval))

  00047	8b 55 08	 mov	 edx, DWORD PTR __Keyval$[ebp]
  0004a	52		 push	 edx
  0004b	8b 45 f8	 mov	 eax, DWORD PTR __Pnode$[ebp]
  0004e	50		 push	 eax
  0004f	e8 00 00 00 00	 call	 ?_Key@?$_Tree@V?$_Tmap_traits@HUMYLIST_COLUMN_INFO@@U?$less@H@std@@V?$allocator@U?$pair@$$CBHUMYLIST_COLUMN_INFO@@@std@@@3@$0A@@std@@@std@@KAABHPAU_Node@?$_Tree_nod@V?$_Tmap_traits@HUMYLIST_COLUMN_INFO@@U?$less@H@std@@V?$allocator@U?$pair@$$CBHUMYLIST_COLUMN_INFO@@@std@@@3@$0A@@std@@@2@@Z ; std::_Tree<std::_Tmap_traits<int,MYLIST_COLUMN_INFO,std::less<int>,std::allocator<std::pair<int const ,MYLIST_COLUMN_INFO> >,0> >::_Key
  00054	83 c4 04	 add	 esp, 4
  00057	50		 push	 eax
  00058	8b 4d fc	 mov	 ecx, DWORD PTR _this$[ebp]
  0005b	e8 00 00 00 00	 call	 ??R?$less@H@std@@QBE_NABH0@Z ; std::less<int>::operator()
  00060	0f b6 c8	 movzx	 ecx, al
  00063	85 c9		 test	 ecx, ecx
  00065	74 13		 je	 SHORT $L190595

; 993  : 				_Pnode = _Right(_Pnode);	// descend right subtree

  00067	8b 55 f8	 mov	 edx, DWORD PTR __Pnode$[ebp]
  0006a	52		 push	 edx
  0006b	e8 00 00 00 00	 call	 ?_Right@?$_Tree@V?$_Tmap_traits@HUMYLIST_COLUMN_INFO@@U?$less@H@std@@V?$allocator@U?$pair@$$CBHUMYLIST_COLUMN_INFO@@@std@@@3@$0A@@std@@@std@@KAAAPAU_Node@?$_Tree_nod@V?$_Tmap_traits@HUMYLIST_COLUMN_INFO@@U?$less@H@std@@V?$allocator@U?$pair@$$CBHUMYLIST_COLUMN_INFO@@@std@@@3@$0A@@std@@@2@PAU342@@Z ; std::_Tree<std::_Tmap_traits<int,MYLIST_COLUMN_INFO,std::less<int>,std::allocator<std::pair<int const ,MYLIST_COLUMN_INFO> >,0> >::_Right
  00070	83 c4 04	 add	 esp, 4
  00073	8b 00		 mov	 eax, DWORD PTR [eax]
  00075	89 45 f8	 mov	 DWORD PTR __Pnode$[ebp], eax

; 994  : 			else

  00078	eb 17		 jmp	 SHORT $L190596
$L190595:

; 995  : 				{	// _Pnode not less than _Keyval, remember it
; 996  : 				_Wherenode = _Pnode;

  0007a	8b 4d f8	 mov	 ecx, DWORD PTR __Pnode$[ebp]
  0007d	89 4d f4	 mov	 DWORD PTR __Wherenode$[ebp], ecx

; 997  : 				_Pnode = _Left(_Pnode);	// descend left subtree

  00080	8b 55 f8	 mov	 edx, DWORD PTR __Pnode$[ebp]
  00083	52		 push	 edx
  00084	e8 00 00 00 00	 call	 ?_Left@?$_Tree@V?$_Tmap_traits@HUMYLIST_COLUMN_INFO@@U?$less@H@std@@V?$allocator@U?$pair@$$CBHUMYLIST_COLUMN_INFO@@@std@@@3@$0A@@std@@@std@@KAAAPAU_Node@?$_Tree_nod@V?$_Tmap_traits@HUMYLIST_COLUMN_INFO@@U?$less@H@std@@V?$allocator@U?$pair@$$CBHUMYLIST_COLUMN_INFO@@@std@@@3@$0A@@std@@@2@PAU342@@Z ; std::_Tree<std::_Tmap_traits<int,MYLIST_COLUMN_INFO,std::less<int>,std::allocator<std::pair<int const ,MYLIST_COLUMN_INFO> >,0> >::_Left
  00089	83 c4 04	 add	 esp, 4
  0008c	8b 00		 mov	 eax, DWORD PTR [eax]
  0008e	89 45 f8	 mov	 DWORD PTR __Pnode$[ebp], eax
$L190596:

; 998  : 				}

  00091	eb a1		 jmp	 SHORT $L190593
$L190594:

; 999  : 
; 1000 : 		return (_Wherenode);	// return best remembered candidate

  00093	8b 45 f4	 mov	 eax, DWORD PTR __Wherenode$[ebp]

; 1001 : 		}

  00096	83 c4 0c	 add	 esp, 12			; 0000000cH
  00099	3b ec		 cmp	 ebp, esp
  0009b	e8 00 00 00 00	 call	 __RTC_CheckEsp
  000a0	8b e5		 mov	 esp, ebp
  000a2	5d		 pop	 ebp
  000a3	c2 04 00	 ret	 4
?_Lbound@?$_Tree@V?$_Tmap_traits@HUMYLIST_COLUMN_INFO@@U?$less@H@std@@V?$allocator@U?$pair@$$CBHUMYLIST_COLUMN_INFO@@@std@@@3@$0A@@std@@@std@@IBEPAU_Node@?$_Tree_nod@V?$_Tmap_traits@HUMYLIST_COLUMN_INFO@@U?$less@H@std@@V?$allocator@U?$pair@$$CBHUMYLIST_COLUMN_INFO@@@std@@@3@$0A@@std@@@2@ABH@Z ENDP ; std::_Tree<std::_Tmap_traits<int,MYLIST_COLUMN_INFO,std::less<int>,std::allocator<std::pair<int const ,MYLIST_COLUMN_INFO> >,0> >::_Lbound
_TEXT	ENDS
PUBLIC	??0?$_Tree_ptr@V?$_Tmap_traits@HUMYLIST_COLUMN_INFO@@U?$less@H@std@@V?$allocator@U?$pair@$$CBHUMYLIST_COLUMN_INFO@@@std@@@3@$0A@@std@@@std@@IAE@ABU?$less@H@1@V?$allocator@U?$pair@$$CBHUMYLIST_COLUMN_INFO@@@std@@@1@@Z ; std::_Tree_ptr<std::_Tmap_traits<int,MYLIST_COLUMN_INFO,std::less<int>,std::allocator<std::pair<int const ,MYLIST_COLUMN_INFO> >,0> >::_Tree_ptr<std::_Tmap_traits<int,MYLIST_COLUMN_INFO,std::less<int>,std::allocator<std::pair<int const ,MYLIST_COLUMN_INFO> >,0> >
; Function compile flags: /Odt /RTCsu
;	COMDAT ??0?$_Tree_val@V?$_Tmap_traits@HUMYLIST_COLUMN_INFO@@U?$less@H@std@@V?$allocator@U?$pair@$$CBHUMYLIST_COLUMN_INFO@@@std@@@3@$0A@@std@@@std@@IAE@ABU?$less@H@1@V?$allocator@U?$pair@$$CBHUMYLIST_COLUMN_INFO@@@std@@@1@@Z
_TEXT	SEGMENT
_this$ = -4						; size = 4
__Parg$ = 8						; size = 4
__Al$ = 12						; size = 1
??0?$_Tree_val@V?$_Tmap_traits@HUMYLIST_COLUMN_INFO@@U?$less@H@std@@V?$allocator@U?$pair@$$CBHUMYLIST_COLUMN_INFO@@@std@@@3@$0A@@std@@@std@@IAE@ABU?$less@H@1@V?$allocator@U?$pair@$$CBHUMYLIST_COLUMN_INFO@@@std@@@1@@Z PROC NEAR ; std::_Tree_val<std::_Tmap_traits<int,MYLIST_COLUMN_INFO,std::less<int>,std::allocator<std::pair<int const ,MYLIST_COLUMN_INFO> >,0> >::_Tree_val<std::_Tmap_traits<int,MYLIST_COLUMN_INFO,std::less<int>,std::allocator<std::pair<int const ,MYLIST_COLUMN_INFO> >,0> >, COMDAT
; _this$ = ecx

; 95   : 		{	// construct base, and allocator from _Al

  00000	55		 push	 ebp
  00001	8b ec		 mov	 ebp, esp
  00003	83 ec 08	 sub	 esp, 8
  00006	c7 45 f8 cc cc
	cc cc		 mov	 DWORD PTR [ebp-8], -858993460 ; ccccccccH
  0000d	c7 45 fc cc cc
	cc cc		 mov	 DWORD PTR [ebp-4], -858993460 ; ccccccccH
  00014	89 4d fc	 mov	 DWORD PTR _this$[ebp], ecx
  00017	51		 push	 ecx
  00018	8b cc		 mov	 ecx, esp
  0001a	8d 45 0c	 lea	 eax, DWORD PTR __Al$[ebp]
  0001d	50		 push	 eax
  0001e	e8 00 00 00 00	 call	 ??0?$allocator@U?$pair@$$CBHUMYLIST_COLUMN_INFO@@@std@@@std@@QAE@ABV01@@Z ; std::allocator<std::pair<int const ,MYLIST_COLUMN_INFO> >::allocator<std::pair<int const ,MYLIST_COLUMN_INFO> >
  00023	8b 4d 08	 mov	 ecx, DWORD PTR __Parg$[ebp]
  00026	51		 push	 ecx
  00027	8b 4d fc	 mov	 ecx, DWORD PTR _this$[ebp]
  0002a	e8 00 00 00 00	 call	 ??0?$_Tree_ptr@V?$_Tmap_traits@HUMYLIST_COLUMN_INFO@@U?$less@H@std@@V?$allocator@U?$pair@$$CBHUMYLIST_COLUMN_INFO@@@std@@@3@$0A@@std@@@std@@IAE@ABU?$less@H@1@V?$allocator@U?$pair@$$CBHUMYLIST_COLUMN_INFO@@@std@@@1@@Z ; std::_Tree_ptr<std::_Tmap_traits<int,MYLIST_COLUMN_INFO,std::less<int>,std::allocator<std::pair<int const ,MYLIST_COLUMN_INFO> >,0> >::_Tree_ptr<std::_Tmap_traits<int,MYLIST_COLUMN_INFO,std::less<int>,std::allocator<std::pair<int const ,MYLIST_COLUMN_INFO> >,0> >
  0002f	8d 55 0c	 lea	 edx, DWORD PTR __Al$[ebp]
  00032	52		 push	 edx
  00033	8b 4d fc	 mov	 ecx, DWORD PTR _this$[ebp]
  00036	83 c1 03	 add	 ecx, 3
  00039	e8 00 00 00 00	 call	 ??0?$allocator@U?$pair@$$CBHUMYLIST_COLUMN_INFO@@@std@@@std@@QAE@ABV01@@Z ; std::allocator<std::pair<int const ,MYLIST_COLUMN_INFO> >::allocator<std::pair<int const ,MYLIST_COLUMN_INFO> >

; 96   : 		}

  0003e	8b 45 fc	 mov	 eax, DWORD PTR _this$[ebp]
  00041	83 c4 08	 add	 esp, 8
  00044	3b ec		 cmp	 ebp, esp
  00046	e8 00 00 00 00	 call	 __RTC_CheckEsp
  0004b	8b e5		 mov	 esp, ebp
  0004d	5d		 pop	 ebp
  0004e	c2 08 00	 ret	 8
??0?$_Tree_val@V?$_Tmap_traits@HUMYLIST_COLUMN_INFO@@U?$less@H@std@@V?$allocator@U?$pair@$$CBHUMYLIST_COLUMN_INFO@@@std@@@3@$0A@@std@@@std@@IAE@ABU?$less@H@1@V?$allocator@U?$pair@$$CBHUMYLIST_COLUMN_INFO@@@std@@@1@@Z ENDP ; std::_Tree_val<std::_Tmap_traits<int,MYLIST_COLUMN_INFO,std::less<int>,std::allocator<std::pair<int const ,MYLIST_COLUMN_INFO> >,0> >::_Tree_val<std::_Tmap_traits<int,MYLIST_COLUMN_INFO,std::less<int>,std::allocator<std::pair<int const ,MYLIST_COLUMN_INFO> >,0> >
; Function compile flags: /Odt /RTCsu
; File d:\program files (x86)\microsoft visual studio .net 2003\vc7\include\map
_TEXT	ENDS
;	COMDAT ?_Kfn@?$_Tmap_traits@HUMYLIST_COLUMN_INFO@@U?$less@H@std@@V?$allocator@U?$pair@$$CBHUMYLIST_COLUMN_INFO@@@std@@@3@$0A@@std@@SAABHABU?$pair@$$CBHUMYLIST_COLUMN_INFO@@@2@@Z
_TEXT	SEGMENT
__Val$ = 8						; size = 4
?_Kfn@?$_Tmap_traits@HUMYLIST_COLUMN_INFO@@U?$less@H@std@@V?$allocator@U?$pair@$$CBHUMYLIST_COLUMN_INFO@@@std@@@3@$0A@@std@@SAABHABU?$pair@$$CBHUMYLIST_COLUMN_INFO@@@2@@Z PROC NEAR ; std::_Tmap_traits<int,MYLIST_COLUMN_INFO,std::less<int>,std::allocator<std::pair<int const ,MYLIST_COLUMN_INFO> >,0>::_Kfn, COMDAT

; 63   : 		{	// extract key from element value

  00000	55		 push	 ebp
  00001	8b ec		 mov	 ebp, esp

; 64   : 		return (_Val.first);

  00003	8b 45 08	 mov	 eax, DWORD PTR __Val$[ebp]

; 65   : 		}

  00006	5d		 pop	 ebp
  00007	c3		 ret	 0
?_Kfn@?$_Tmap_traits@HUMYLIST_COLUMN_INFO@@U?$less@H@std@@V?$allocator@U?$pair@$$CBHUMYLIST_COLUMN_INFO@@@std@@@3@$0A@@std@@SAABHABU?$pair@$$CBHUMYLIST_COLUMN_INFO@@@2@@Z ENDP ; std::_Tmap_traits<int,MYLIST_COLUMN_INFO,std::less<int>,std::allocator<std::pair<int const ,MYLIST_COLUMN_INFO> >,0>::_Kfn
; Function compile flags: /Odt /RTCsu
; File d:\program files (x86)\microsoft visual studio .net 2003\vc7\include\xmemory
_TEXT	ENDS
;	COMDAT ??0?$allocator@U?$pair@$$CBHUMYLIST_COLUMN_INFO@@@std@@@std@@QAE@ABV01@@Z
_TEXT	SEGMENT
_this$ = -4						; size = 4
___formal$ = 8						; size = 4
??0?$allocator@U?$pair@$$CBHUMYLIST_COLUMN_INFO@@@std@@@std@@QAE@ABV01@@Z PROC NEAR ; std::allocator<std::pair<int const ,MYLIST_COLUMN_INFO> >::allocator<std::pair<int const ,MYLIST_COLUMN_INFO> >, COMDAT
; _this$ = ecx

; 115  : 	allocator(const allocator<_Ty>&)

  00000	55		 push	 ebp
  00001	8b ec		 mov	 ebp, esp
  00003	51		 push	 ecx
  00004	c7 45 fc cc cc
	cc cc		 mov	 DWORD PTR [ebp-4], -858993460 ; ccccccccH
  0000b	89 4d fc	 mov	 DWORD PTR _this$[ebp], ecx

; 116  : 		{	// construct by copying (do nothing)
; 117  : 		}

  0000e	8b 45 fc	 mov	 eax, DWORD PTR _this$[ebp]
  00011	8b e5		 mov	 esp, ebp
  00013	5d		 pop	 ebp
  00014	c2 04 00	 ret	 4
??0?$allocator@U?$pair@$$CBHUMYLIST_COLUMN_INFO@@@std@@@std@@QAE@ABV01@@Z ENDP ; std::allocator<std::pair<int const ,MYLIST_COLUMN_INFO> >::allocator<std::pair<int const ,MYLIST_COLUMN_INFO> >
_TEXT	ENDS
EXTRN	??3@YAXPAX@Z:NEAR				; operator delete
; Function compile flags: /Odt /RTCsu
;	COMDAT ?deallocate@?$allocator@U_Node@?$_Tree_nod@V?$_Tmap_traits@HUMYLIST_COLUMN_INFO@@U?$less@H@std@@V?$allocator@U?$pair@$$CBHUMYLIST_COLUMN_INFO@@@std@@@3@$0A@@std@@@std@@@std@@QAEXPAU_Node@?$_Tree_nod@V?$_Tmap_traits@HUMYLIST_COLUMN_INFO@@U?$less@H@std@@V?$allocator@U?$pair@$$CBHUMYLIST_COLUMN_INFO@@@std@@@3@$0A@@std@@@2@I@Z
_TEXT	SEGMENT
_this$ = -4						; size = 4
__Ptr$ = 8						; size = 4
___formal$ = 12						; size = 4
?deallocate@?$allocator@U_Node@?$_Tree_nod@V?$_Tmap_traits@HUMYLIST_COLUMN_INFO@@U?$less@H@std@@V?$allocator@U?$pair@$$CBHUMYLIST_COLUMN_INFO@@@std@@@3@$0A@@std@@@std@@@std@@QAEXPAU_Node@?$_Tree_nod@V?$_Tmap_traits@HUMYLIST_COLUMN_INFO@@U?$less@H@std@@V?$allocator@U?$pair@$$CBHUMYLIST_COLUMN_INFO@@@std@@@3@$0A@@std@@@2@I@Z PROC NEAR ; std::allocator<std::_Tree_nod<std::_Tmap_traits<int,MYLIST_COLUMN_INFO,std::less<int>,std::allocator<std::pair<int const ,MYLIST_COLUMN_INFO> >,0> >::_Node>::deallocate, COMDAT
; _this$ = ecx

; 131  : 		{	// deallocate object at _Ptr, ignore size

  00000	55		 push	 ebp
  00001	8b ec		 mov	 ebp, esp
  00003	51		 push	 ecx
  00004	c7 45 fc cc cc
	cc cc		 mov	 DWORD PTR [ebp-4], -858993460 ; ccccccccH
  0000b	89 4d fc	 mov	 DWORD PTR _this$[ebp], ecx

; 132  : 		operator delete(_Ptr);

  0000e	8b 45 08	 mov	 eax, DWORD PTR __Ptr$[ebp]
  00011	50		 push	 eax
  00012	e8 00 00 00 00	 call	 ??3@YAXPAX@Z		; operator delete
  00017	83 c4 04	 add	 esp, 4

; 133  : 		}

  0001a	83 c4 04	 add	 esp, 4
  0001d	3b ec		 cmp	 ebp, esp
  0001f	e8 00 00 00 00	 call	 __RTC_CheckEsp
  00024	8b e5		 mov	 esp, ebp
  00026	5d		 pop	 ebp
  00027	c2 08 00	 ret	 8
?deallocate@?$allocator@U_Node@?$_Tree_nod@V?$_Tmap_traits@HUMYLIST_COLUMN_INFO@@U?$less@H@std@@V?$allocator@U?$pair@$$CBHUMYLIST_COLUMN_INFO@@@std@@@3@$0A@@std@@@std@@@std@@QAEXPAU_Node@?$_Tree_nod@V?$_Tmap_traits@HUMYLIST_COLUMN_INFO@@U?$less@H@std@@V?$allocator@U?$pair@$$CBHUMYLIST_COLUMN_INFO@@@std@@@3@$0A@@std@@@2@I@Z ENDP ; std::allocator<std::_Tree_nod<std::_Tmap_traits<int,MYLIST_COLUMN_INFO,std::less<int>,std::allocator<std::pair<int const ,MYLIST_COLUMN_INFO> >,0> >::_Node>::deallocate
_TEXT	ENDS
PUBLIC	??$_Destroy@U_Node@?$_Tree_nod@V?$_Tmap_traits@HUMYLIST_COLUMN_INFO@@U?$less@H@std@@V?$allocator@U?$pair@$$CBHUMYLIST_COLUMN_INFO@@@std@@@3@$0A@@std@@@std@@@std@@YAXPAU_Node@?$_Tree_nod@V?$_Tmap_traits@HUMYLIST_COLUMN_INFO@@U?$less@H@std@@V?$allocator@U?$pair@$$CBHUMYLIST_COLUMN_INFO@@@std@@@3@$0A@@std@@@0@@Z ; std::_Destroy<std::_Tree_nod<std::_Tmap_traits<int,MYLIST_COLUMN_INFO,std::less<int>,std::allocator<std::pair<int const ,MYLIST_COLUMN_INFO> >,0> >::_Node>
; Function compile flags: /Odt /RTCsu
;	COMDAT ?destroy@?$allocator@U_Node@?$_Tree_nod@V?$_Tmap_traits@HUMYLIST_COLUMN_INFO@@U?$less@H@std@@V?$allocator@U?$pair@$$CBHUMYLIST_COLUMN_INFO@@@std@@@3@$0A@@std@@@std@@@std@@QAEXPAU_Node@?$_Tree_nod@V?$_Tmap_traits@HUMYLIST_COLUMN_INFO@@U?$less@H@std@@V?$allocator@U?$pair@$$CBHUMYLIST_COLUMN_INFO@@@std@@@3@$0A@@std@@@2@@Z
_TEXT	SEGMENT
_this$ = -4						; size = 4
__Ptr$ = 8						; size = 4
?destroy@?$allocator@U_Node@?$_Tree_nod@V?$_Tmap_traits@HUMYLIST_COLUMN_INFO@@U?$less@H@std@@V?$allocator@U?$pair@$$CBHUMYLIST_COLUMN_INFO@@@std@@@3@$0A@@std@@@std@@@std@@QAEXPAU_Node@?$_Tree_nod@V?$_Tmap_traits@HUMYLIST_COLUMN_INFO@@U?$less@H@std@@V?$allocator@U?$pair@$$CBHUMYLIST_COLUMN_INFO@@@std@@@3@$0A@@std@@@2@@Z PROC NEAR ; std::allocator<std::_Tree_nod<std::_Tmap_traits<int,MYLIST_COLUMN_INFO,std::less<int>,std::allocator<std::pair<int const ,MYLIST_COLUMN_INFO> >,0> >::_Node>::destroy, COMDAT
; _this$ = ecx

; 151  : 		{	// destroy object at _Ptr

  00000	55		 push	 ebp
  00001	8b ec		 mov	 ebp, esp
  00003	51		 push	 ecx
  00004	c7 45 fc cc cc
	cc cc		 mov	 DWORD PTR [ebp-4], -858993460 ; ccccccccH
  0000b	89 4d fc	 mov	 DWORD PTR _this$[ebp], ecx

; 152  : 		_Destroy(_Ptr);

  0000e	8b 45 08	 mov	 eax, DWORD PTR __Ptr$[ebp]
  00011	50		 push	 eax
  00012	e8 00 00 00 00	 call	 ??$_Destroy@U_Node@?$_Tree_nod@V?$_Tmap_traits@HUMYLIST_COLUMN_INFO@@U?$less@H@std@@V?$allocator@U?$pair@$$CBHUMYLIST_COLUMN_INFO@@@std@@@3@$0A@@std@@@std@@@std@@YAXPAU_Node@?$_Tree_nod@V?$_Tmap_traits@HUMYLIST_COLUMN_INFO@@U?$less@H@std@@V?$allocator@U?$pair@$$CBHUMYLIST_COLUMN_INFO@@@std@@@3@$0A@@std@@@0@@Z ; std::_Destroy<std::_Tree_nod<std::_Tmap_traits<int,MYLIST_COLUMN_INFO,std::less<int>,std::allocator<std::pair<int const ,MYLIST_COLUMN_INFO> >,0> >::_Node>
  00017	83 c4 04	 add	 esp, 4

; 153  : 		}

  0001a	83 c4 04	 add	 esp, 4
  0001d	3b ec		 cmp	 ebp, esp
  0001f	e8 00 00 00 00	 call	 __RTC_CheckEsp
  00024	8b e5		 mov	 esp, ebp
  00026	5d		 pop	 ebp
  00027	c2 04 00	 ret	 4
?destroy@?$allocator@U_Node@?$_Tree_nod@V?$_Tmap_traits@HUMYLIST_COLUMN_INFO@@U?$less@H@std@@V?$allocator@U?$pair@$$CBHUMYLIST_COLUMN_INFO@@@std@@@3@$0A@@std@@@std@@@std@@QAEXPAU_Node@?$_Tree_nod@V?$_Tmap_traits@HUMYLIST_COLUMN_INFO@@U?$less@H@std@@V?$allocator@U?$pair@$$CBHUMYLIST_COLUMN_INFO@@@std@@@3@$0A@@std@@@2@@Z ENDP ; std::allocator<std::_Tree_nod<std::_Tmap_traits<int,MYLIST_COLUMN_INFO,std::less<int>,std::allocator<std::pair<int const ,MYLIST_COLUMN_INFO> >,0> >::_Node>::destroy
_TEXT	ENDS
PUBLIC	??$_Destroy@PAU_Node@?$_Tree_nod@V?$_Tmap_traits@HUMYLIST_COLUMN_INFO@@U?$less@H@std@@V?$allocator@U?$pair@$$CBHUMYLIST_COLUMN_INFO@@@std@@@3@$0A@@std@@@std@@@std@@YAXPAPAU_Node@?$_Tree_nod@V?$_Tmap_traits@HUMYLIST_COLUMN_INFO@@U?$less@H@std@@V?$allocator@U?$pair@$$CBHUMYLIST_COLUMN_INFO@@@std@@@3@$0A@@std@@@0@@Z ; std::_Destroy<std::_Tree_nod<std::_Tmap_traits<int,MYLIST_COLUMN_INFO,std::less<int>,std::allocator<std::pair<int const ,MYLIST_COLUMN_INFO> >,0> >::_Node *>
; Function compile flags: /Odt /RTCsu
;	COMDAT ?destroy@?$allocator@PAU_Node@?$_Tree_nod@V?$_Tmap_traits@HUMYLIST_COLUMN_INFO@@U?$less@H@std@@V?$allocator@U?$pair@$$CBHUMYLIST_COLUMN_INFO@@@std@@@3@$0A@@std@@@std@@@std@@QAEXPAPAU_Node@?$_Tree_nod@V?$_Tmap_traits@HUMYLIST_COLUMN_INFO@@U?$less@H@std@@V?$allocator@U?$pair@$$CBHUMYLIST_COLUMN_INFO@@@std@@@3@$0A@@std@@@2@@Z
_TEXT	SEGMENT
_this$ = -4						; size = 4
__Ptr$ = 8						; size = 4
?destroy@?$allocator@PAU_Node@?$_Tree_nod@V?$_Tmap_traits@HUMYLIST_COLUMN_INFO@@U?$less@H@std@@V?$allocator@U?$pair@$$CBHUMYLIST_COLUMN_INFO@@@std@@@3@$0A@@std@@@std@@@std@@QAEXPAPAU_Node@?$_Tree_nod@V?$_Tmap_traits@HUMYLIST_COLUMN_INFO@@U?$less@H@std@@V?$allocator@U?$pair@$$CBHUMYLIST_COLUMN_INFO@@@std@@@3@$0A@@std@@@2@@Z PROC NEAR ; std::allocator<std::_Tree_nod<std::_Tmap_traits<int,MYLIST_COLUMN_INFO,std::less<int>,std::allocator<std::pair<int const ,MYLIST_COLUMN_INFO> >,0> >::_Node *>::destroy, COMDAT
; _this$ = ecx

; 151  : 		{	// destroy object at _Ptr

  00000	55		 push	 ebp
  00001	8b ec		 mov	 ebp, esp
  00003	51		 push	 ecx
  00004	c7 45 fc cc cc
	cc cc		 mov	 DWORD PTR [ebp-4], -858993460 ; ccccccccH
  0000b	89 4d fc	 mov	 DWORD PTR _this$[ebp], ecx

; 152  : 		_Destroy(_Ptr);

  0000e	8b 45 08	 mov	 eax, DWORD PTR __Ptr$[ebp]
  00011	50		 push	 eax
  00012	e8 00 00 00 00	 call	 ??$_Destroy@PAU_Node@?$_Tree_nod@V?$_Tmap_traits@HUMYLIST_COLUMN_INFO@@U?$less@H@std@@V?$allocator@U?$pair@$$CBHUMYLIST_COLUMN_INFO@@@std@@@3@$0A@@std@@@std@@@std@@YAXPAPAU_Node@?$_Tree_nod@V?$_Tmap_traits@HUMYLIST_COLUMN_INFO@@U?$less@H@std@@V?$allocator@U?$pair@$$CBHUMYLIST_COLUMN_INFO@@@std@@@3@$0A@@std@@@0@@Z ; std::_Destroy<std::_Tree_nod<std::_Tmap_traits<int,MYLIST_COLUMN_INFO,std::less<int>,std::allocator<std::pair<int const ,MYLIST_COLUMN_INFO> >,0> >::_Node *>
  00017	83 c4 04	 add	 esp, 4

; 153  : 		}

  0001a	83 c4 04	 add	 esp, 4
  0001d	3b ec		 cmp	 ebp, esp
  0001f	e8 00 00 00 00	 call	 __RTC_CheckEsp
  00024	8b e5		 mov	 esp, ebp
  00026	5d		 pop	 ebp
  00027	c2 04 00	 ret	 4
?destroy@?$allocator@PAU_Node@?$_Tree_nod@V?$_Tmap_traits@HUMYLIST_COLUMN_INFO@@U?$less@H@std@@V?$allocator@U?$pair@$$CBHUMYLIST_COLUMN_INFO@@@std@@@3@$0A@@std@@@std@@@std@@QAEXPAPAU_Node@?$_Tree_nod@V?$_Tmap_traits@HUMYLIST_COLUMN_INFO@@U?$less@H@std@@V?$allocator@U?$pair@$$CBHUMYLIST_COLUMN_INFO@@@std@@@3@$0A@@std@@@2@@Z ENDP ; std::allocator<std::_Tree_nod<std::_Tmap_traits<int,MYLIST_COLUMN_INFO,std::less<int>,std::allocator<std::pair<int const ,MYLIST_COLUMN_INFO> >,0> >::_Node *>::destroy
; Function compile flags: /Odt /RTCsu
_TEXT	ENDS
;	COMDAT ??0?$allocator@H@std@@QAE@ABV01@@Z
_TEXT	SEGMENT
_this$ = -4						; size = 4
___formal$ = 8						; size = 4
??0?$allocator@H@std@@QAE@ABV01@@Z PROC NEAR		; std::allocator<int>::allocator<int>, COMDAT
; _this$ = ecx

; 115  : 	allocator(const allocator<_Ty>&)

  00000	55		 push	 ebp
  00001	8b ec		 mov	 ebp, esp
  00003	51		 push	 ecx
  00004	c7 45 fc cc cc
	cc cc		 mov	 DWORD PTR [ebp-4], -858993460 ; ccccccccH
  0000b	89 4d fc	 mov	 DWORD PTR _this$[ebp], ecx

; 116  : 		{	// construct by copying (do nothing)
; 117  : 		}

  0000e	8b 45 fc	 mov	 eax, DWORD PTR _this$[ebp]
  00011	8b e5		 mov	 esp, ebp
  00013	5d		 pop	 ebp
  00014	c2 04 00	 ret	 4
??0?$allocator@H@std@@QAE@ABV01@@Z ENDP			; std::allocator<int>::allocator<int>
; Function compile flags: /Odt /RTCsu
_TEXT	ENDS
;	COMDAT ?deallocate@?$allocator@H@std@@QAEXPAHI@Z
_TEXT	SEGMENT
_this$ = -4						; size = 4
__Ptr$ = 8						; size = 4
___formal$ = 12						; size = 4
?deallocate@?$allocator@H@std@@QAEXPAHI@Z PROC NEAR	; std::allocator<int>::deallocate, COMDAT
; _this$ = ecx

; 131  : 		{	// deallocate object at _Ptr, ignore size

  00000	55		 push	 ebp
  00001	8b ec		 mov	 ebp, esp
  00003	51		 push	 ecx
  00004	c7 45 fc cc cc
	cc cc		 mov	 DWORD PTR [ebp-4], -858993460 ; ccccccccH
  0000b	89 4d fc	 mov	 DWORD PTR _this$[ebp], ecx

; 132  : 		operator delete(_Ptr);

  0000e	8b 45 08	 mov	 eax, DWORD PTR __Ptr$[ebp]
  00011	50		 push	 eax
  00012	e8 00 00 00 00	 call	 ??3@YAXPAX@Z		; operator delete
  00017	83 c4 04	 add	 esp, 4

; 133  : 		}

  0001a	83 c4 04	 add	 esp, 4
  0001d	3b ec		 cmp	 ebp, esp
  0001f	e8 00 00 00 00	 call	 __RTC_CheckEsp
  00024	8b e5		 mov	 esp, ebp
  00026	5d		 pop	 ebp
  00027	c2 08 00	 ret	 8
?deallocate@?$allocator@H@std@@QAEXPAHI@Z ENDP		; std::allocator<int>::deallocate
_TEXT	ENDS
PUBLIC	??$_Allocate@H@std@@YAPAHIPAH@Z			; std::_Allocate<int>
; Function compile flags: /Odt /RTCsu
;	COMDAT ?allocate@?$allocator@H@std@@QAEPAHI@Z
_TEXT	SEGMENT
_this$ = -4						; size = 4
__Count$ = 8						; size = 4
?allocate@?$allocator@H@std@@QAEPAHI@Z PROC NEAR	; std::allocator<int>::allocate, COMDAT
; _this$ = ecx

; 136  : 		{	// allocate array of _Count elements

  00000	55		 push	 ebp
  00001	8b ec		 mov	 ebp, esp
  00003	51		 push	 ecx
  00004	c7 45 fc cc cc
	cc cc		 mov	 DWORD PTR [ebp-4], -858993460 ; ccccccccH
  0000b	89 4d fc	 mov	 DWORD PTR _this$[ebp], ecx

; 137  : 		return (_Allocate(_Count, (pointer)0));

  0000e	6a 00		 push	 0
  00010	8b 45 08	 mov	 eax, DWORD PTR __Count$[ebp]
  00013	50		 push	 eax
  00014	e8 00 00 00 00	 call	 ??$_Allocate@H@std@@YAPAHIPAH@Z ; std::_Allocate<int>
  00019	83 c4 08	 add	 esp, 8

; 138  : 		}

  0001c	83 c4 04	 add	 esp, 4
  0001f	3b ec		 cmp	 ebp, esp
  00021	e8 00 00 00 00	 call	 __RTC_CheckEsp
  00026	8b e5		 mov	 esp, ebp
  00028	5d		 pop	 ebp
  00029	c2 04 00	 ret	 4
?allocate@?$allocator@H@std@@QAEPAHI@Z ENDP		; std::allocator<int>::allocate
_TEXT	ENDS
PUBLIC	?max_size@?$allocator@H@std@@QBEIXZ		; std::allocator<int>::max_size
; Function compile flags: /Odt /RTCsu
; File d:\program files (x86)\microsoft visual studio .net 2003\vc7\include\vector
;	COMDAT ?max_size@?$vector@HV?$allocator@H@std@@@std@@QBEIXZ
_TEXT	SEGMENT
_this$ = -4						; size = 4
?max_size@?$vector@HV?$allocator@H@std@@@std@@QBEIXZ PROC NEAR ; std::vector<int,std::allocator<int> >::max_size, COMDAT
; _this$ = ecx

; 520  : 		{	// return maximum possible length of sequence

  00000	55		 push	 ebp
  00001	8b ec		 mov	 ebp, esp
  00003	51		 push	 ecx
  00004	c7 45 fc cc cc
	cc cc		 mov	 DWORD PTR [ebp-4], -858993460 ; ccccccccH
  0000b	89 4d fc	 mov	 DWORD PTR _this$[ebp], ecx

; 521  : 		return (this->_Alval.max_size());

  0000e	8b 4d fc	 mov	 ecx, DWORD PTR _this$[ebp]
  00011	e8 00 00 00 00	 call	 ?max_size@?$allocator@H@std@@QBEIXZ ; std::allocator<int>::max_size

; 522  : 		}

  00016	83 c4 04	 add	 esp, 4
  00019	3b ec		 cmp	 ebp, esp
  0001b	e8 00 00 00 00	 call	 __RTC_CheckEsp
  00020	8b e5		 mov	 esp, ebp
  00022	5d		 pop	 ebp
  00023	c3		 ret	 0
?max_size@?$vector@HV?$allocator@H@std@@@std@@QBEIXZ ENDP ; std::vector<int,std::allocator<int> >::max_size
_TEXT	ENDS
PUBLIC	??$_Destroy_range@HV?$allocator@H@std@@@std@@YAXPAH0AAV?$allocator@H@0@@Z ; std::_Destroy_range<int,std::allocator<int> >
; Function compile flags: /Odt /RTCsu
;	COMDAT ?_Destroy@?$vector@HV?$allocator@H@std@@@std@@IAEXPAH0@Z
_TEXT	SEGMENT
_this$ = -4						; size = 4
__First$ = 8						; size = 4
__Last$ = 12						; size = 4
?_Destroy@?$vector@HV?$allocator@H@std@@@std@@IAEXPAH0@Z PROC NEAR ; std::vector<int,std::allocator<int> >::_Destroy, COMDAT
; _this$ = ecx

; 786  : 		{	// destroy [_First, _Last) using allocator

  00000	55		 push	 ebp
  00001	8b ec		 mov	 ebp, esp
  00003	51		 push	 ecx
  00004	c7 45 fc cc cc
	cc cc		 mov	 DWORD PTR [ebp-4], -858993460 ; ccccccccH
  0000b	89 4d fc	 mov	 DWORD PTR _this$[ebp], ecx

; 787  : 		_Destroy_range(_First, _Last, this->_Alval);

  0000e	8b 45 fc	 mov	 eax, DWORD PTR _this$[ebp]
  00011	50		 push	 eax
  00012	8b 4d 0c	 mov	 ecx, DWORD PTR __Last$[ebp]
  00015	51		 push	 ecx
  00016	8b 55 08	 mov	 edx, DWORD PTR __First$[ebp]
  00019	52		 push	 edx
  0001a	e8 00 00 00 00	 call	 ??$_Destroy_range@HV?$allocator@H@std@@@std@@YAXPAH0AAV?$allocator@H@0@@Z ; std::_Destroy_range<int,std::allocator<int> >
  0001f	83 c4 0c	 add	 esp, 12			; 0000000cH

; 788  : 		}

  00022	83 c4 04	 add	 esp, 4
  00025	3b ec		 cmp	 ebp, esp
  00027	e8 00 00 00 00	 call	 __RTC_CheckEsp
  0002c	8b e5		 mov	 esp, ebp
  0002e	5d		 pop	 ebp
  0002f	c2 08 00	 ret	 8
?_Destroy@?$vector@HV?$allocator@H@std@@@std@@IAEXPAH0@Z ENDP ; std::vector<int,std::allocator<int> >::_Destroy
_TEXT	ENDS
PUBLIC	??_C@_0BD@OLBABOEK@vector?$DMT?$DO?5too?5long?$AA@ ; `string'
;	COMDAT xdata$x
xdata$x	SEGMENT
$T192131 DD	0ffffffffH
	DD	FLAT:$L192127
$T192129 DD	019930520H
	DD	01H
	DD	FLAT:$T192131
	DD	2 DUP(00H)
	DD	2 DUP(00H)
xdata$x	ENDS
;	COMDAT ??_C@_0BD@OLBABOEK@vector?$DMT?$DO?5too?5long?$AA@
CONST	SEGMENT
??_C@_0BD@OLBABOEK@vector?$DMT?$DO?5too?5long?$AA@ DB 'vector<T> too long'
	DB	00H						; `string'
; Function compile flags: /Odt /RTCsu
CONST	ENDS
;	COMDAT ?_Xlen@?$vector@HV?$allocator@H@std@@@std@@IBEXXZ
_TEXT	SEGMENT
$T192126 = -84						; size = 28
$T192125 = -56						; size = 40
_this$ = -16						; size = 4
__$EHRec$ = -12						; size = 12
?_Xlen@?$vector@HV?$allocator@H@std@@@std@@IBEXXZ PROC NEAR ; std::vector<int,std::allocator<int> >::_Xlen, COMDAT
; _this$ = ecx

; 883  : 		{	// report a length_error

  00000	55		 push	 ebp
  00001	8b ec		 mov	 ebp, esp
  00003	6a ff		 push	 -1
  00005	68 00 00 00 00	 push	 __ehhandler$?_Xlen@?$vector@HV?$allocator@H@std@@@std@@IBEXXZ
  0000a	64 a1 00 00 00
	00		 mov	 eax, DWORD PTR fs:__except_list
  00010	50		 push	 eax
  00011	64 89 25 00 00
	00 00		 mov	 DWORD PTR fs:__except_list, esp
  00018	83 ec 48	 sub	 esp, 72			; 00000048H
  0001b	56		 push	 esi
  0001c	57		 push	 edi
  0001d	51		 push	 ecx
  0001e	8d 7d ac	 lea	 edi, DWORD PTR [ebp-84]
  00021	b9 12 00 00 00	 mov	 ecx, 18			; 00000012H
  00026	b8 cc cc cc cc	 mov	 eax, -858993460		; ccccccccH
  0002b	f3 ab		 rep stosd
  0002d	59		 pop	 ecx
  0002e	89 4d f0	 mov	 DWORD PTR _this$[ebp], ecx

; 884  : 		_THROW(length_error, "vector<T> too long");

  00031	8b f4		 mov	 esi, esp
  00033	68 00 00 00 00	 push	 OFFSET FLAT:??_C@_0BD@OLBABOEK@vector?$DMT?$DO?5too?5long?$AA@
  00038	8d 4d ac	 lea	 ecx, DWORD PTR $T192126[ebp]
  0003b	ff 15 00 00 00
	00		 call	 DWORD PTR __imp_??0?$basic_string@DU?$char_traits@D@std@@V?$allocator@D@2@@std@@QAE@PBD@Z
  00041	3b f4		 cmp	 esi, esp
  00043	e8 00 00 00 00	 call	 __RTC_CheckEsp
  00048	c7 45 fc 00 00
	00 00		 mov	 DWORD PTR __$EHRec$[ebp+8], 0
  0004f	8d 45 ac	 lea	 eax, DWORD PTR $T192126[ebp]
  00052	50		 push	 eax
  00053	8d 4d c8	 lea	 ecx, DWORD PTR $T192125[ebp]
  00056	e8 00 00 00 00	 call	 ??0length_error@std@@QAE@ABV?$basic_string@DU?$char_traits@D@std@@V?$allocator@D@2@@1@@Z ; std::length_error::length_error
  0005b	68 00 00 00 00	 push	 OFFSET FLAT:__TI3?AVlength_error@std@@
  00060	8d 4d c8	 lea	 ecx, DWORD PTR $T192125[ebp]
  00063	51		 push	 ecx
  00064	e8 00 00 00 00	 call	 __CxxThrowException@8
$L192124:

; 885  : 		}

  00069	8b 4d f4	 mov	 ecx, DWORD PTR __$EHRec$[ebp]
  0006c	64 89 0d 00 00
	00 00		 mov	 DWORD PTR fs:__except_list, ecx
  00073	5f		 pop	 edi
  00074	5e		 pop	 esi
  00075	83 c4 54	 add	 esp, 84			; 00000054H
  00078	3b ec		 cmp	 ebp, esp
  0007a	e8 00 00 00 00	 call	 __RTC_CheckEsp
  0007f	8b e5		 mov	 esp, ebp
  00081	5d		 pop	 ebp
  00082	c3		 ret	 0
_TEXT	ENDS
;	COMDAT text$x
text$x	SEGMENT
$L192127:
  00000	8b f4		 mov	 esi, esp
  00002	8d 4d ac	 lea	 ecx, DWORD PTR $T192126[ebp]
  00005	ff 15 00 00 00
	00		 call	 DWORD PTR __imp_??1?$basic_string@DU?$char_traits@D@std@@V?$allocator@D@2@@std@@QAE@XZ
  0000b	3b f4		 cmp	 esi, esp
  0000d	e9 00 00 00 00	 jmp	 __RTC_CheckEsp
__ehhandler$?_Xlen@?$vector@HV?$allocator@H@std@@@std@@IBEXXZ:
  00012	b8 00 00 00 00	 mov	 eax, OFFSET FLAT:$T192129
  00017	e9 00 00 00 00	 jmp	 ___CxxFrameHandler
text$x	ENDS
?_Xlen@?$vector@HV?$allocator@H@std@@@std@@IBEXXZ ENDP	; std::vector<int,std::allocator<int> >::_Xlen
PUBLIC	??0const_iterator@?$_Tree@V?$_Tmap_traits@HUMYLIST_COLUMN_INFO@@U?$less@H@std@@V?$allocator@U?$pair@$$CBHUMYLIST_COLUMN_INFO@@@std@@@3@$0A@@std@@@std@@QAE@XZ ; std::_Tree<std::_Tmap_traits<int,MYLIST_COLUMN_INFO,std::less<int>,std::allocator<std::pair<int const ,MYLIST_COLUMN_INFO> >,0> >::const_iterator::const_iterator
; Function compile flags: /Odt /RTCsu
; File d:\program files (x86)\microsoft visual studio .net 2003\vc7\include\xtree
;	COMDAT ??0iterator@?$_Tree@V?$_Tmap_traits@HUMYLIST_COLUMN_INFO@@U?$less@H@std@@V?$allocator@U?$pair@$$CBHUMYLIST_COLUMN_INFO@@@std@@@3@$0A@@std@@@std@@QAE@XZ
_TEXT	SEGMENT
_this$ = -4						; size = 4
??0iterator@?$_Tree@V?$_Tmap_traits@HUMYLIST_COLUMN_INFO@@U?$less@H@std@@V?$allocator@U?$pair@$$CBHUMYLIST_COLUMN_INFO@@@std@@@3@$0A@@std@@@std@@QAE@XZ PROC NEAR ; std::_Tree<std::_Tmap_traits<int,MYLIST_COLUMN_INFO,std::less<int>,std::allocator<std::pair<int const ,MYLIST_COLUMN_INFO> >,0> >::iterator::iterator, COMDAT
; _this$ = ecx

; 304  : 		iterator()

  00000	55		 push	 ebp
  00001	8b ec		 mov	 ebp, esp
  00003	51		 push	 ecx
  00004	c7 45 fc cc cc
	cc cc		 mov	 DWORD PTR [ebp-4], -858993460 ; ccccccccH
  0000b	89 4d fc	 mov	 DWORD PTR _this$[ebp], ecx
  0000e	8b 4d fc	 mov	 ecx, DWORD PTR _this$[ebp]
  00011	e8 00 00 00 00	 call	 ??0const_iterator@?$_Tree@V?$_Tmap_traits@HUMYLIST_COLUMN_INFO@@U?$less@H@std@@V?$allocator@U?$pair@$$CBHUMYLIST_COLUMN_INFO@@@std@@@3@$0A@@std@@@std@@QAE@XZ ; std::_Tree<std::_Tmap_traits<int,MYLIST_COLUMN_INFO,std::less<int>,std::allocator<std::pair<int const ,MYLIST_COLUMN_INFO> >,0> >::const_iterator::const_iterator

; 305  : 			{	// construct with null node pointer
; 306  : 			}

  00016	8b 45 fc	 mov	 eax, DWORD PTR _this$[ebp]
  00019	83 c4 04	 add	 esp, 4
  0001c	3b ec		 cmp	 ebp, esp
  0001e	e8 00 00 00 00	 call	 __RTC_CheckEsp
  00023	8b e5		 mov	 esp, ebp
  00025	5d		 pop	 ebp
  00026	c3		 ret	 0
??0iterator@?$_Tree@V?$_Tmap_traits@HUMYLIST_COLUMN_INFO@@U?$less@H@std@@V?$allocator@U?$pair@$$CBHUMYLIST_COLUMN_INFO@@@std@@@3@$0A@@std@@@std@@QAE@XZ ENDP ; std::_Tree<std::_Tmap_traits<int,MYLIST_COLUMN_INFO,std::less<int>,std::allocator<std::pair<int const ,MYLIST_COLUMN_INFO> >,0> >::iterator::iterator
_TEXT	ENDS
PUBLIC	??Fconst_iterator@?$_Tree@V?$_Tmap_traits@HUMYLIST_COLUMN_INFO@@U?$less@H@std@@V?$allocator@U?$pair@$$CBHUMYLIST_COLUMN_INFO@@@std@@@3@$0A@@std@@@std@@QAEAAV012@XZ ; std::_Tree<std::_Tmap_traits<int,MYLIST_COLUMN_INFO,std::less<int>,std::allocator<std::pair<int const ,MYLIST_COLUMN_INFO> >,0> >::const_iterator::operator--
; Function compile flags: /Odt /RTCsu
;	COMDAT ??Fiterator@?$_Tree@V?$_Tmap_traits@HUMYLIST_COLUMN_INFO@@U?$less@H@std@@V?$allocator@U?$pair@$$CBHUMYLIST_COLUMN_INFO@@@std@@@3@$0A@@std@@@std@@QAEAAV012@XZ
_TEXT	SEGMENT
_this$ = -4						; size = 4
??Fiterator@?$_Tree@V?$_Tmap_traits@HUMYLIST_COLUMN_INFO@@U?$less@H@std@@V?$allocator@U?$pair@$$CBHUMYLIST_COLUMN_INFO@@@std@@@3@$0A@@std@@@std@@QAEAAV012@XZ PROC NEAR ; std::_Tree<std::_Tmap_traits<int,MYLIST_COLUMN_INFO,std::less<int>,std::allocator<std::pair<int const ,MYLIST_COLUMN_INFO> >,0> >::iterator::operator--, COMDAT
; _this$ = ecx

; 339  : 			{	// predecrement

  00000	55		 push	 ebp
  00001	8b ec		 mov	 ebp, esp
  00003	51		 push	 ecx
  00004	c7 45 fc cc cc
	cc cc		 mov	 DWORD PTR [ebp-4], -858993460 ; ccccccccH
  0000b	89 4d fc	 mov	 DWORD PTR _this$[ebp], ecx

; 340  : 			--(*(const_iterator *)this);

  0000e	8b 4d fc	 mov	 ecx, DWORD PTR _this$[ebp]
  00011	e8 00 00 00 00	 call	 ??Fconst_iterator@?$_Tree@V?$_Tmap_traits@HUMYLIST_COLUMN_INFO@@U?$less@H@std@@V?$allocator@U?$pair@$$CBHUMYLIST_COLUMN_INFO@@@std@@@3@$0A@@std@@@std@@QAEAAV012@XZ ; std::_Tree<std::_Tmap_traits<int,MYLIST_COLUMN_INFO,std::less<int>,std::allocator<std::pair<int const ,MYLIST_COLUMN_INFO> >,0> >::const_iterator::operator--

; 341  : 			return (*this);

  00016	8b 45 fc	 mov	 eax, DWORD PTR _this$[ebp]

; 342  : 			}

  00019	83 c4 04	 add	 esp, 4
  0001c	3b ec		 cmp	 ebp, esp
  0001e	e8 00 00 00 00	 call	 __RTC_CheckEsp
  00023	8b e5		 mov	 esp, ebp
  00025	5d		 pop	 ebp
  00026	c3		 ret	 0
??Fiterator@?$_Tree@V?$_Tmap_traits@HUMYLIST_COLUMN_INFO@@U?$less@H@std@@V?$allocator@U?$pair@$$CBHUMYLIST_COLUMN_INFO@@@std@@@3@$0A@@std@@@std@@QAEAAV012@XZ ENDP ; std::_Tree<std::_Tmap_traits<int,MYLIST_COLUMN_INFO,std::less<int>,std::allocator<std::pair<int const ,MYLIST_COLUMN_INFO> >,0> >::iterator::operator--
; Function compile flags: /Odt /RTCsu
_TEXT	ENDS
;	COMDAT ??0const_iterator@?$_Tree@V?$_Tmap_traits@HUMYLIST_COLUMN_INFO@@U?$less@H@std@@V?$allocator@U?$pair@$$CBHUMYLIST_COLUMN_INFO@@@std@@@3@$0A@@std@@@std@@QAE@PAU_Node@?$_Tree_nod@V?$_Tmap_traits@HUMYLIST_COLUMN_INFO@@U?$less@H@std@@V?$allocator@U?$pair@$$CBHUMYLIST_COLUMN_INFO@@@std@@@3@$0A@@std@@@2@@Z
_TEXT	SEGMENT
_this$ = -4						; size = 4
__Pnode$ = 8						; size = 4
??0const_iterator@?$_Tree@V?$_Tmap_traits@HUMYLIST_COLUMN_INFO@@U?$less@H@std@@V?$allocator@U?$pair@$$CBHUMYLIST_COLUMN_INFO@@@std@@@3@$0A@@std@@@std@@QAE@PAU_Node@?$_Tree_nod@V?$_Tmap_traits@HUMYLIST_COLUMN_INFO@@U?$less@H@std@@V?$allocator@U?$pair@$$CBHUMYLIST_COLUMN_INFO@@@std@@@3@$0A@@std@@@2@@Z PROC NEAR ; std::_Tree<std::_Tmap_traits<int,MYLIST_COLUMN_INFO,std::less<int>,std::allocator<std::pair<int const ,MYLIST_COLUMN_INFO> >,0> >::const_iterator::const_iterator, COMDAT
; _this$ = ecx

; 200  : 			{	// construct with node pointer _Pnode

  00000	55		 push	 ebp
  00001	8b ec		 mov	 ebp, esp
  00003	51		 push	 ecx
  00004	c7 45 fc cc cc
	cc cc		 mov	 DWORD PTR [ebp-4], -858993460 ; ccccccccH
  0000b	89 4d fc	 mov	 DWORD PTR _this$[ebp], ecx
  0000e	8b 45 fc	 mov	 eax, DWORD PTR _this$[ebp]
  00011	8b 4d 08	 mov	 ecx, DWORD PTR __Pnode$[ebp]
  00014	89 08		 mov	 DWORD PTR [eax], ecx

; 201  : 			}

  00016	8b 45 fc	 mov	 eax, DWORD PTR _this$[ebp]
  00019	8b e5		 mov	 esp, ebp
  0001b	5d		 pop	 ebp
  0001c	c2 04 00	 ret	 4
??0const_iterator@?$_Tree@V?$_Tmap_traits@HUMYLIST_COLUMN_INFO@@U?$less@H@std@@V?$allocator@U?$pair@$$CBHUMYLIST_COLUMN_INFO@@@std@@@3@$0A@@std@@@std@@QAE@PAU_Node@?$_Tree_nod@V?$_Tmap_traits@HUMYLIST_COLUMN_INFO@@U?$less@H@std@@V?$allocator@U?$pair@$$CBHUMYLIST_COLUMN_INFO@@@std@@@3@$0A@@std@@@2@@Z ENDP ; std::_Tree<std::_Tmap_traits<int,MYLIST_COLUMN_INFO,std::less<int>,std::allocator<std::pair<int const ,MYLIST_COLUMN_INFO> >,0> >::const_iterator::const_iterator
; Function compile flags: /Odt /RTCsu
_TEXT	ENDS
;	COMDAT ??Dconst_iterator@?$_Tree@V?$_Tmap_traits@HUMYLIST_COLUMN_INFO@@U?$less@H@std@@V?$allocator@U?$pair@$$CBHUMYLIST_COLUMN_INFO@@@std@@@3@$0A@@std@@@std@@QBEABU?$pair@$$CBHUMYLIST_COLUMN_INFO@@@2@XZ
_TEXT	SEGMENT
_this$ = -4						; size = 4
??Dconst_iterator@?$_Tree@V?$_Tmap_traits@HUMYLIST_COLUMN_INFO@@U?$less@H@std@@V?$allocator@U?$pair@$$CBHUMYLIST_COLUMN_INFO@@@std@@@3@$0A@@std@@@std@@QBEABU?$pair@$$CBHUMYLIST_COLUMN_INFO@@@2@XZ PROC NEAR ; std::_Tree<std::_Tmap_traits<int,MYLIST_COLUMN_INFO,std::less<int>,std::allocator<std::pair<int const ,MYLIST_COLUMN_INFO> >,0> >::const_iterator::operator*, COMDAT
; _this$ = ecx

; 204  : 			{	// return designated value

  00000	55		 push	 ebp
  00001	8b ec		 mov	 ebp, esp
  00003	51		 push	 ecx
  00004	c7 45 fc cc cc
	cc cc		 mov	 DWORD PTR [ebp-4], -858993460 ; ccccccccH
  0000b	89 4d fc	 mov	 DWORD PTR _this$[ebp], ecx

; 205  : 			return (_Myval(_Ptr));

  0000e	8b 45 fc	 mov	 eax, DWORD PTR _this$[ebp]
  00011	8b 08		 mov	 ecx, DWORD PTR [eax]
  00013	51		 push	 ecx
  00014	e8 00 00 00 00	 call	 ?_Myval@?$_Tree@V?$_Tmap_traits@HUMYLIST_COLUMN_INFO@@U?$less@H@std@@V?$allocator@U?$pair@$$CBHUMYLIST_COLUMN_INFO@@@std@@@3@$0A@@std@@@std@@KAAAU?$pair@$$CBHUMYLIST_COLUMN_INFO@@@2@PAU_Node@?$_Tree_nod@V?$_Tmap_traits@HUMYLIST_COLUMN_INFO@@U?$less@H@std@@V?$allocator@U?$pair@$$CBHUMYLIST_COLUMN_INFO@@@std@@@3@$0A@@std@@@2@@Z ; std::_Tree<std::_Tmap_traits<int,MYLIST_COLUMN_INFO,std::less<int>,std::allocator<std::pair<int const ,MYLIST_COLUMN_INFO> >,0> >::_Myval
  00019	83 c4 04	 add	 esp, 4

; 206  : 			}

  0001c	83 c4 04	 add	 esp, 4
  0001f	3b ec		 cmp	 ebp, esp
  00021	e8 00 00 00 00	 call	 __RTC_CheckEsp
  00026	8b e5		 mov	 esp, ebp
  00028	5d		 pop	 ebp
  00029	c3		 ret	 0
??Dconst_iterator@?$_Tree@V?$_Tmap_traits@HUMYLIST_COLUMN_INFO@@U?$less@H@std@@V?$allocator@U?$pair@$$CBHUMYLIST_COLUMN_INFO@@@std@@@3@$0A@@std@@@std@@QBEABU?$pair@$$CBHUMYLIST_COLUMN_INFO@@@2@XZ ENDP ; std::_Tree<std::_Tmap_traits<int,MYLIST_COLUMN_INFO,std::less<int>,std::allocator<std::pair<int const ,MYLIST_COLUMN_INFO> >,0> >::const_iterator::operator*
_TEXT	ENDS
PUBLIC	?_Inc@const_iterator@?$_Tree@V?$_Tmap_traits@HUMYLIST_COLUMN_INFO@@U?$less@H@std@@V?$allocator@U?$pair@$$CBHUMYLIST_COLUMN_INFO@@@std@@@3@$0A@@std@@@std@@QAEXXZ ; std::_Tree<std::_Tmap_traits<int,MYLIST_COLUMN_INFO,std::less<int>,std::allocator<std::pair<int const ,MYLIST_COLUMN_INFO> >,0> >::const_iterator::_Inc
; Function compile flags: /Odt /RTCsu
;	COMDAT ??Econst_iterator@?$_Tree@V?$_Tmap_traits@HUMYLIST_COLUMN_INFO@@U?$less@H@std@@V?$allocator@U?$pair@$$CBHUMYLIST_COLUMN_INFO@@@std@@@3@$0A@@std@@@std@@QAEAAV012@XZ
_TEXT	SEGMENT
_this$ = -4						; size = 4
??Econst_iterator@?$_Tree@V?$_Tmap_traits@HUMYLIST_COLUMN_INFO@@U?$less@H@std@@V?$allocator@U?$pair@$$CBHUMYLIST_COLUMN_INFO@@@std@@@3@$0A@@std@@@std@@QAEAAV012@XZ PROC NEAR ; std::_Tree<std::_Tmap_traits<int,MYLIST_COLUMN_INFO,std::less<int>,std::allocator<std::pair<int const ,MYLIST_COLUMN_INFO> >,0> >::const_iterator::operator++, COMDAT
; _this$ = ecx

; 214  : 			{	// preincrement

  00000	55		 push	 ebp
  00001	8b ec		 mov	 ebp, esp
  00003	51		 push	 ecx
  00004	c7 45 fc cc cc
	cc cc		 mov	 DWORD PTR [ebp-4], -858993460 ; ccccccccH
  0000b	89 4d fc	 mov	 DWORD PTR _this$[ebp], ecx

; 215  : 			_Inc();

  0000e	8b 4d fc	 mov	 ecx, DWORD PTR _this$[ebp]
  00011	e8 00 00 00 00	 call	 ?_Inc@const_iterator@?$_Tree@V?$_Tmap_traits@HUMYLIST_COLUMN_INFO@@U?$less@H@std@@V?$allocator@U?$pair@$$CBHUMYLIST_COLUMN_INFO@@@std@@@3@$0A@@std@@@std@@QAEXXZ ; std::_Tree<std::_Tmap_traits<int,MYLIST_COLUMN_INFO,std::less<int>,std::allocator<std::pair<int const ,MYLIST_COLUMN_INFO> >,0> >::const_iterator::_Inc

; 216  : 			return (*this);

  00016	8b 45 fc	 mov	 eax, DWORD PTR _this$[ebp]

; 217  : 			}

  00019	83 c4 04	 add	 esp, 4
  0001c	3b ec		 cmp	 ebp, esp
  0001e	e8 00 00 00 00	 call	 __RTC_CheckEsp
  00023	8b e5		 mov	 esp, ebp
  00025	5d		 pop	 ebp
  00026	c3		 ret	 0
??Econst_iterator@?$_Tree@V?$_Tmap_traits@HUMYLIST_COLUMN_INFO@@U?$less@H@std@@V?$allocator@U?$pair@$$CBHUMYLIST_COLUMN_INFO@@@std@@@3@$0A@@std@@@std@@QAEAAV012@XZ ENDP ; std::_Tree<std::_Tmap_traits<int,MYLIST_COLUMN_INFO,std::less<int>,std::allocator<std::pair<int const ,MYLIST_COLUMN_INFO> >,0> >::const_iterator::operator++
; Function compile flags: /Odt /RTCsu
; File d:\program files (x86)\microsoft visual studio .net 2003\vc7\include\vector
_TEXT	ENDS
;	COMDAT ??0const_iterator@?$vector@HV?$allocator@H@std@@@std@@QAE@PAH@Z
_TEXT	SEGMENT
_this$ = -4						; size = 4
__Ptr$ = 8						; size = 4
??0const_iterator@?$vector@HV?$allocator@H@std@@@std@@QAE@PAH@Z PROC NEAR ; std::vector<int,std::allocator<int> >::const_iterator::const_iterator, COMDAT
; _this$ = ecx

; 73   : 		const_iterator(_Tptr _Ptr)

  00000	55		 push	 ebp
  00001	8b ec		 mov	 ebp, esp
  00003	51		 push	 ecx
  00004	c7 45 fc cc cc
	cc cc		 mov	 DWORD PTR [ebp-4], -858993460 ; ccccccccH
  0000b	89 4d fc	 mov	 DWORD PTR _this$[ebp], ecx

; 74   : 			{	// construct with pointer _Ptr
; 75   : 			_Myptr = _Ptr;

  0000e	8b 45 fc	 mov	 eax, DWORD PTR _this$[ebp]
  00011	8b 4d 08	 mov	 ecx, DWORD PTR __Ptr$[ebp]
  00014	89 08		 mov	 DWORD PTR [eax], ecx

; 76   : 			}

  00016	8b 45 fc	 mov	 eax, DWORD PTR _this$[ebp]
  00019	8b e5		 mov	 esp, ebp
  0001b	5d		 pop	 ebp
  0001c	c2 04 00	 ret	 4
??0const_iterator@?$vector@HV?$allocator@H@std@@@std@@QAE@PAH@Z ENDP ; std::vector<int,std::allocator<int> >::const_iterator::const_iterator
; Function compile flags: /Odt /RTCsu
_TEXT	ENDS
;	COMDAT ??0const_iterator@?$vector@UMYLIST_COLUMN_INFO@@V?$allocator@UMYLIST_COLUMN_INFO@@@std@@@std@@QAE@PAUMYLIST_COLUMN_INFO@@@Z
_TEXT	SEGMENT
_this$ = -4						; size = 4
__Ptr$ = 8						; size = 4
??0const_iterator@?$vector@UMYLIST_COLUMN_INFO@@V?$allocator@UMYLIST_COLUMN_INFO@@@std@@@std@@QAE@PAUMYLIST_COLUMN_INFO@@@Z PROC NEAR ; std::vector<MYLIST_COLUMN_INFO,std::allocator<MYLIST_COLUMN_INFO> >::const_iterator::const_iterator, COMDAT
; _this$ = ecx

; 73   : 		const_iterator(_Tptr _Ptr)

  00000	55		 push	 ebp
  00001	8b ec		 mov	 ebp, esp
  00003	51		 push	 ecx
  00004	c7 45 fc cc cc
	cc cc		 mov	 DWORD PTR [ebp-4], -858993460 ; ccccccccH
  0000b	89 4d fc	 mov	 DWORD PTR _this$[ebp], ecx

; 74   : 			{	// construct with pointer _Ptr
; 75   : 			_Myptr = _Ptr;

  0000e	8b 45 fc	 mov	 eax, DWORD PTR _this$[ebp]
  00011	8b 4d 08	 mov	 ecx, DWORD PTR __Ptr$[ebp]
  00014	89 08		 mov	 DWORD PTR [eax], ecx

; 76   : 			}

  00016	8b 45 fc	 mov	 eax, DWORD PTR _this$[ebp]
  00019	8b e5		 mov	 esp, ebp
  0001b	5d		 pop	 ebp
  0001c	c2 04 00	 ret	 4
??0const_iterator@?$vector@UMYLIST_COLUMN_INFO@@V?$allocator@UMYLIST_COLUMN_INFO@@@std@@@std@@QAE@PAUMYLIST_COLUMN_INFO@@@Z ENDP ; std::vector<MYLIST_COLUMN_INFO,std::allocator<MYLIST_COLUMN_INFO> >::const_iterator::const_iterator
; Function compile flags: /Odt /RTCsu
_TEXT	ENDS
;	COMDAT ??Yconst_iterator@?$vector@UMYLIST_COLUMN_INFO@@V?$allocator@UMYLIST_COLUMN_INFO@@@std@@@std@@QAEAAV012@H@Z
_TEXT	SEGMENT
_this$ = -4						; size = 4
__Off$ = 8						; size = 4
??Yconst_iterator@?$vector@UMYLIST_COLUMN_INFO@@V?$allocator@UMYLIST_COLUMN_INFO@@@std@@@std@@QAEAAV012@H@Z PROC NEAR ; std::vector<MYLIST_COLUMN_INFO,std::allocator<MYLIST_COLUMN_INFO> >::const_iterator::operator+=, COMDAT
; _this$ = ecx

; 117  : 			{	// increment by integer

  00000	55		 push	 ebp
  00001	8b ec		 mov	 ebp, esp
  00003	51		 push	 ecx
  00004	c7 45 fc cc cc
	cc cc		 mov	 DWORD PTR [ebp-4], -858993460 ; ccccccccH
  0000b	89 4d fc	 mov	 DWORD PTR _this$[ebp], ecx

; 118  : 			_Myptr += _Off;

  0000e	8b 45 08	 mov	 eax, DWORD PTR __Off$[ebp]
  00011	6b c0 4c	 imul	 eax, 76			; 0000004cH
  00014	8b 4d fc	 mov	 ecx, DWORD PTR _this$[ebp]
  00017	03 01		 add	 eax, DWORD PTR [ecx]
  00019	8b 55 fc	 mov	 edx, DWORD PTR _this$[ebp]
  0001c	89 02		 mov	 DWORD PTR [edx], eax

; 119  : 			return (*this);

  0001e	8b 45 fc	 mov	 eax, DWORD PTR _this$[ebp]

; 120  : 			}

  00021	8b e5		 mov	 esp, ebp
  00023	5d		 pop	 ebp
  00024	c2 04 00	 ret	 4
??Yconst_iterator@?$vector@UMYLIST_COLUMN_INFO@@V?$allocator@UMYLIST_COLUMN_INFO@@@std@@@std@@QAEAAV012@H@Z ENDP ; std::vector<MYLIST_COLUMN_INFO,std::allocator<MYLIST_COLUMN_INFO> >::const_iterator::operator+=
_TEXT	ENDS
PUBLIC	??_R1A@?0A@A@exception@@8			; exception::`RTTI Base Class Descriptor at (0,-1,0,0)'
PUBLIC	??_R1A@?0A@A@logic_error@std@@8			; std::logic_error::`RTTI Base Class Descriptor at (0,-1,0,0)'
PUBLIC	??_R4length_error@std@@6B@			; std::length_error::`RTTI Complete Object Locator'
PUBLIC	??_R3length_error@std@@8			; std::length_error::`RTTI Class Hierarchy Descriptor'
PUBLIC	??_R2length_error@std@@8			; std::length_error::`RTTI Base Class Array'
PUBLIC	??_R1A@?0A@A@length_error@std@@8		; std::length_error::`RTTI Base Class Descriptor at (0,-1,0,0)'
PUBLIC	?what@logic_error@std@@UBEPBDXZ			; std::logic_error::what
PUBLIC	??_7length_error@std@@6B@			; std::length_error::`vftable'
PUBLIC	??_Glength_error@std@@UAEPAXI@Z			; std::length_error::`scalar deleting destructor'
EXTRN	??_Elength_error@std@@UAEPAXI@Z:NEAR		; std::length_error::`vector deleting destructor'
;	COMDAT ??_7length_error@std@@6B@
CONST	SEGMENT
??_7length_error@std@@6B@ DD FLAT:??_R4length_error@std@@6B@ ; std::length_error::`vftable'
	DD	FLAT:??_Elength_error@std@@UAEPAXI@Z
	DD	FLAT:?what@logic_error@std@@UBEPBDXZ
CONST	ENDS
;	COMDAT ??_R4length_error@std@@6B@
rdata$r	SEGMENT
??_R4length_error@std@@6B@ DD 00H			; std::length_error::`RTTI Complete Object Locator'
	DD	00H
	DD	00H
	DD	FLAT:??_R0?AVlength_error@std@@@8
	DD	FLAT:??_R3length_error@std@@8
rdata$r	ENDS
;	COMDAT ??_R3length_error@std@@8
rdata$r	SEGMENT
??_R3length_error@std@@8 DD 00H				; std::length_error::`RTTI Class Hierarchy Descriptor'
	DD	00H
	DD	03H
	DD	FLAT:??_R2length_error@std@@8
rdata$r	ENDS
;	COMDAT ??_R2length_error@std@@8
rdata$r	SEGMENT
??_R2length_error@std@@8 DD FLAT:??_R1A@?0A@A@length_error@std@@8 ; std::length_error::`RTTI Base Class Array'
	DD	FLAT:??_R1A@?0A@A@logic_error@std@@8
	DD	FLAT:??_R1A@?0A@A@exception@@8
rdata$r	ENDS
;	COMDAT ??_R1A@?0A@A@length_error@std@@8
rdata$r	SEGMENT
??_R1A@?0A@A@length_error@std@@8 DD FLAT:??_R0?AVlength_error@std@@@8 ; std::length_error::`RTTI Base Class Descriptor at (0,-1,0,0)'
	DD	02H
	DD	00H
	DD	0ffffffffH
	DD	00H
	DD	00H
rdata$r	ENDS
;	COMDAT ??_R1A@?0A@A@logic_error@std@@8
rdata$r	SEGMENT
??_R1A@?0A@A@logic_error@std@@8 DD FLAT:??_R0?AVlogic_error@std@@@8 ; std::logic_error::`RTTI Base Class Descriptor at (0,-1,0,0)'
	DD	01H
	DD	00H
	DD	0ffffffffH
	DD	00H
	DD	00H
rdata$r	ENDS
;	COMDAT ??_R1A@?0A@A@exception@@8
rdata$r	SEGMENT
??_R1A@?0A@A@exception@@8 DD FLAT:??_R0?AVexception@@@8	; exception::`RTTI Base Class Descriptor at (0,-1,0,0)'
	DD	00H
	DD	00H
	DD	0ffffffffH
	DD	00H
	DD	00H
; Function compile flags: /Odt /RTCsu
rdata$r	ENDS
;	COMDAT ??0length_error@std@@QAE@ABV01@@Z
_TEXT	SEGMENT
_this$ = -4						; size = 4
___that$ = 8						; size = 4
??0length_error@std@@QAE@ABV01@@Z PROC NEAR		; std::length_error::length_error, COMDAT
; _this$ = ecx
  00000	55		 push	 ebp
  00001	8b ec		 mov	 ebp, esp
  00003	51		 push	 ecx
  00004	c7 45 fc cc cc
	cc cc		 mov	 DWORD PTR [ebp-4], -858993460 ; ccccccccH
  0000b	89 4d fc	 mov	 DWORD PTR _this$[ebp], ecx
  0000e	8b 45 08	 mov	 eax, DWORD PTR ___that$[ebp]
  00011	50		 push	 eax
  00012	8b 4d fc	 mov	 ecx, DWORD PTR _this$[ebp]
  00015	e8 00 00 00 00	 call	 ??0logic_error@std@@QAE@ABV01@@Z
  0001a	8b 4d fc	 mov	 ecx, DWORD PTR _this$[ebp]
  0001d	c7 01 00 00 00
	00		 mov	 DWORD PTR [ecx], OFFSET FLAT:??_7length_error@std@@6B@
  00023	8b 45 fc	 mov	 eax, DWORD PTR _this$[ebp]
  00026	83 c4 04	 add	 esp, 4
  00029	3b ec		 cmp	 ebp, esp
  0002b	e8 00 00 00 00	 call	 __RTC_CheckEsp
  00030	8b e5		 mov	 esp, ebp
  00032	5d		 pop	 ebp
  00033	c2 04 00	 ret	 4
??0length_error@std@@QAE@ABV01@@Z ENDP			; std::length_error::length_error
; Function compile flags: /Odt /RTCsu
; File d:\program files (x86)\microsoft visual studio .net 2003\vc7\include\xtree
_TEXT	ENDS
;	COMDAT ?_Color@?$_Tree@V?$_Tmap_traits@HUMYLIST_COLUMN_INFO@@U?$less@H@std@@V?$allocator@U?$pair@$$CBHUMYLIST_COLUMN_INFO@@@std@@@3@$0A@@std@@@std@@KAAADPAU_Node@?$_Tree_nod@V?$_Tmap_traits@HUMYLIST_COLUMN_INFO@@U?$less@H@std@@V?$allocator@U?$pair@$$CBHUMYLIST_COLUMN_INFO@@@std@@@3@$0A@@std@@@2@@Z
_TEXT	SEGMENT
__Pnode$ = 8						; size = 4
?_Color@?$_Tree@V?$_Tmap_traits@HUMYLIST_COLUMN_INFO@@U?$less@H@std@@V?$allocator@U?$pair@$$CBHUMYLIST_COLUMN_INFO@@@std@@@3@$0A@@std@@@std@@KAAADPAU_Node@?$_Tree_nod@V?$_Tmap_traits@HUMYLIST_COLUMN_INFO@@U?$less@H@std@@V?$allocator@U?$pair@$$CBHUMYLIST_COLUMN_INFO@@@std@@@3@$0A@@std@@@2@@Z PROC NEAR ; std::_Tree<std::_Tmap_traits<int,MYLIST_COLUMN_INFO,std::less<int>,std::allocator<std::pair<int const ,MYLIST_COLUMN_INFO> >,0> >::_Color, COMDAT

; 131  : 		{	// return reference to color in node

  00000	55		 push	 ebp
  00001	8b ec		 mov	 ebp, esp

; 132  : 		return ((_Charref)(*_Pnode)._Color);

  00003	8b 45 08	 mov	 eax, DWORD PTR __Pnode$[ebp]
  00006	83 c0 5c	 add	 eax, 92			; 0000005cH

; 133  : 		}

  00009	5d		 pop	 ebp
  0000a	c3		 ret	 0
?_Color@?$_Tree@V?$_Tmap_traits@HUMYLIST_COLUMN_INFO@@U?$less@H@std@@V?$allocator@U?$pair@$$CBHUMYLIST_COLUMN_INFO@@@std@@@3@$0A@@std@@@std@@KAAADPAU_Node@?$_Tree_nod@V?$_Tmap_traits@HUMYLIST_COLUMN_INFO@@U?$less@H@std@@V?$allocator@U?$pair@$$CBHUMYLIST_COLUMN_INFO@@@std@@@3@$0A@@std@@@2@@Z ENDP ; std::_Tree<std::_Tmap_traits<int,MYLIST_COLUMN_INFO,std::less<int>,std::allocator<std::pair<int const ,MYLIST_COLUMN_INFO> >,0> >::_Color
_TEXT	ENDS
PUBLIC	?max_size@?$allocator@U?$pair@$$CBHUMYLIST_COLUMN_INFO@@@std@@@std@@QBEIXZ ; std::allocator<std::pair<int const ,MYLIST_COLUMN_INFO> >::max_size
; Function compile flags: /Odt /RTCsu
;	COMDAT ?max_size@?$_Tree@V?$_Tmap_traits@HUMYLIST_COLUMN_INFO@@U?$less@H@std@@V?$allocator@U?$pair@$$CBHUMYLIST_COLUMN_INFO@@@std@@@3@$0A@@std@@@std@@QBEIXZ
_TEXT	SEGMENT
_this$ = -4						; size = 4
?max_size@?$_Tree@V?$_Tmap_traits@HUMYLIST_COLUMN_INFO@@U?$less@H@std@@V?$allocator@U?$pair@$$CBHUMYLIST_COLUMN_INFO@@@std@@@3@$0A@@std@@@std@@QBEIXZ PROC NEAR ; std::_Tree<std::_Tmap_traits<int,MYLIST_COLUMN_INFO,std::less<int>,std::allocator<std::pair<int const ,MYLIST_COLUMN_INFO> >,0> >::max_size, COMDAT
; _this$ = ecx

; 452  : 		{	// return maximum possible length of sequence

  00000	55		 push	 ebp
  00001	8b ec		 mov	 ebp, esp
  00003	51		 push	 ecx
  00004	c7 45 fc cc cc
	cc cc		 mov	 DWORD PTR [ebp-4], -858993460 ; ccccccccH
  0000b	89 4d fc	 mov	 DWORD PTR _this$[ebp], ecx

; 453  : 		return (this->_Alval.max_size());

  0000e	8b 4d fc	 mov	 ecx, DWORD PTR _this$[ebp]
  00011	83 c1 03	 add	 ecx, 3
  00014	e8 00 00 00 00	 call	 ?max_size@?$allocator@U?$pair@$$CBHUMYLIST_COLUMN_INFO@@@std@@@std@@QBEIXZ ; std::allocator<std::pair<int const ,MYLIST_COLUMN_INFO> >::max_size

; 454  : 		}

  00019	83 c4 04	 add	 esp, 4
  0001c	3b ec		 cmp	 ebp, esp
  0001e	e8 00 00 00 00	 call	 __RTC_CheckEsp
  00023	8b e5		 mov	 esp, ebp
  00025	5d		 pop	 ebp
  00026	c3		 ret	 0
?max_size@?$_Tree@V?$_Tmap_traits@HUMYLIST_COLUMN_INFO@@U?$less@H@std@@V?$allocator@U?$pair@$$CBHUMYLIST_COLUMN_INFO@@@std@@@3@$0A@@std@@@std@@QBEIXZ ENDP ; std::_Tree<std::_Tmap_traits<int,MYLIST_COLUMN_INFO,std::less<int>,std::allocator<std::pair<int const ,MYLIST_COLUMN_INFO> >,0> >::max_size
_TEXT	ENDS
PUBLIC	__TI3?AVout_of_range@std@@
PUBLIC	__CTA3?AVout_of_range@std@@
PUBLIC	??_R0?AVout_of_range@std@@@8			; std::out_of_range `RTTI Type Descriptor'
PUBLIC	__CT??_R0?AVout_of_range@std@@@8??0out_of_range@std@@QAE@ABV01@@Z40
PUBLIC	??_C@_0BM@PAPJHAGI@invalid?5map?1set?$DMT?$DO?5iterator?$AA@ ; `string'
PUBLIC	?_Max@?$_Tree@V?$_Tmap_traits@HUMYLIST_COLUMN_INFO@@U?$less@H@std@@V?$allocator@U?$pair@$$CBHUMYLIST_COLUMN_INFO@@@std@@@3@$0A@@std@@@std@@KAPAU_Node@?$_Tree_nod@V?$_Tmap_traits@HUMYLIST_COLUMN_INFO@@U?$less@H@std@@V?$allocator@U?$pair@$$CBHUMYLIST_COLUMN_INFO@@@std@@@3@$0A@@std@@@2@PAU342@@Z ; std::_Tree<std::_Tmap_traits<int,MYLIST_COLUMN_INFO,std::less<int>,std::allocator<std::pair<int const ,MYLIST_COLUMN_INFO> >,0> >::_Max
PUBLIC	?_Min@?$_Tree@V?$_Tmap_traits@HUMYLIST_COLUMN_INFO@@U?$less@H@std@@V?$allocator@U?$pair@$$CBHUMYLIST_COLUMN_INFO@@@std@@@3@$0A@@std@@@std@@KAPAU_Node@?$_Tree_nod@V?$_Tmap_traits@HUMYLIST_COLUMN_INFO@@U?$less@H@std@@V?$allocator@U?$pair@$$CBHUMYLIST_COLUMN_INFO@@@std@@@3@$0A@@std@@@2@PAU342@@Z ; std::_Tree<std::_Tmap_traits<int,MYLIST_COLUMN_INFO,std::less<int>,std::allocator<std::pair<int const ,MYLIST_COLUMN_INFO> >,0> >::_Min
PUBLIC	??$swap@D@std@@YAXAAD0@Z			; std::swap<char>
PUBLIC	??0out_of_range@std@@QAE@ABV?$basic_string@DU?$char_traits@D@std@@V?$allocator@D@2@@1@@Z ; std::out_of_range::out_of_range
PUBLIC	??1out_of_range@std@@UAE@XZ			; std::out_of_range::~out_of_range
PUBLIC	??0out_of_range@std@@QAE@ABV01@@Z		; std::out_of_range::out_of_range
;	COMDAT xdata$x
xdata$x	SEGMENT
$T192157 DD	0ffffffffH
	DD	FLAT:$L192153
$T192155 DD	019930520H
	DD	01H
	DD	FLAT:$T192157
	DD	2 DUP(00H)
	DD	2 DUP(00H)
xdata$x	ENDS
;	COMDAT ??_C@_0BM@PAPJHAGI@invalid?5map?1set?$DMT?$DO?5iterator?$AA@
CONST	SEGMENT
??_C@_0BM@PAPJHAGI@invalid?5map?1set?$DMT?$DO?5iterator?$AA@ DB 'invalid '
	DB	'map/set<T> iterator', 00H			; `string'
CONST	ENDS
;	COMDAT __TI3?AVout_of_range@std@@
xdata$x	SEGMENT
__TI3?AVout_of_range@std@@ DD 00H
	DD	FLAT:??1out_of_range@std@@UAE@XZ
	DD	00H
	DD	FLAT:__CTA3?AVout_of_range@std@@
xdata$x	ENDS
;	COMDAT __CTA3?AVout_of_range@std@@
xdata$x	SEGMENT
__CTA3?AVout_of_range@std@@ DD 03H
	DD	FLAT:__CT??_R0?AVout_of_range@std@@@8??0out_of_range@std@@QAE@ABV01@@Z40
	DD	FLAT:__CT??_R0?AVlogic_error@std@@@8??0logic_error@std@@QAE@ABV01@@Z40
	DD	FLAT:__CT??_R0?AVexception@@@8??0exception@@QAE@ABV0@@Z12
xdata$x	ENDS
;	COMDAT __CT??_R0?AVout_of_range@std@@@8??0out_of_range@std@@QAE@ABV01@@Z40
xdata$x	SEGMENT
__CT??_R0?AVout_of_range@std@@@8??0out_of_range@std@@QAE@ABV01@@Z40 DD 00H
	DD	FLAT:??_R0?AVout_of_range@std@@@8
	DD	00H
	DD	0ffffffffH
	ORG $+4
	DD	028H
	DD	FLAT:??0out_of_range@std@@QAE@ABV01@@Z
xdata$x	ENDS
;	COMDAT ??_R0?AVout_of_range@std@@@8
_DATA	SEGMENT
??_R0?AVout_of_range@std@@@8 DD FLAT:??_7type_info@@6B@	; std::out_of_range `RTTI Type Descriptor'
	DD	00H
	DB	'.?AVout_of_range@std@@', 00H
; Function compile flags: /Odt /RTCsu
_DATA	ENDS
;	COMDAT ?erase@?$_Tree@V?$_Tmap_traits@HUMYLIST_COLUMN_INFO@@U?$less@H@std@@V?$allocator@U?$pair@$$CBHUMYLIST_COLUMN_INFO@@@std@@@3@$0A@@std@@@std@@QAE?AViterator@12@V312@@Z
_TEXT	SEGMENT
tv177 = -108						; size = 4
tv165 = -104						; size = 4
$T192148 = -100						; size = 28
$T192147 = -72						; size = 40
__Pnode$ = -32						; size = 4
__Fixnodeparent$ = -28					; size = 4
__Fixnode$ = -24					; size = 4
__Erasednode$ = -20					; size = 4
_this$ = -16						; size = 4
__$EHRec$ = -12						; size = 12
___$ReturnUdt$ = 8					; size = 4
__Where$ = 12						; size = 4
?erase@?$_Tree@V?$_Tmap_traits@HUMYLIST_COLUMN_INFO@@U?$less@H@std@@V?$allocator@U?$pair@$$CBHUMYLIST_COLUMN_INFO@@@std@@@3@$0A@@std@@@std@@QAE?AViterator@12@V312@@Z PROC NEAR ; std::_Tree<std::_Tmap_traits<int,MYLIST_COLUMN_INFO,std::less<int>,std::allocator<std::pair<int const ,MYLIST_COLUMN_INFO> >,0> >::erase, COMDAT
; _this$ = ecx

; 590  : 		{	// erase element at _Where

  00000	55		 push	 ebp
  00001	8b ec		 mov	 ebp, esp
  00003	6a ff		 push	 -1
  00005	68 00 00 00 00	 push	 __ehhandler$?erase@?$_Tree@V?$_Tmap_traits@HUMYLIST_COLUMN_INFO@@U?$less@H@std@@V?$allocator@U?$pair@$$CBHUMYLIST_COLUMN_INFO@@@std@@@3@$0A@@std@@@std@@QAE?AViterator@12@V312@@Z
  0000a	64 a1 00 00 00
	00		 mov	 eax, DWORD PTR fs:__except_list
  00010	50		 push	 eax
  00011	64 89 25 00 00
	00 00		 mov	 DWORD PTR fs:__except_list, esp
  00018	83 ec 60	 sub	 esp, 96			; 00000060H
  0001b	56		 push	 esi
  0001c	57		 push	 edi
  0001d	51		 push	 ecx
  0001e	8d 7d 94	 lea	 edi, DWORD PTR [ebp-108]
  00021	b9 18 00 00 00	 mov	 ecx, 24			; 00000018H
  00026	b8 cc cc cc cc	 mov	 eax, -858993460		; ccccccccH
  0002b	f3 ab		 rep stosd
  0002d	59		 pop	 ecx
  0002e	89 4d f0	 mov	 DWORD PTR _this$[ebp], ecx

; 591  : 		if (_Isnil(_Where._Mynode()))

  00031	8d 4d 0c	 lea	 ecx, DWORD PTR __Where$[ebp]
  00034	e8 00 00 00 00	 call	 ?_Mynode@const_iterator@?$_Tree@V?$_Tmap_traits@HUMYLIST_COLUMN_INFO@@U?$less@H@std@@V?$allocator@U?$pair@$$CBHUMYLIST_COLUMN_INFO@@@std@@@3@$0A@@std@@@std@@QBEPAU_Node@?$_Tree_nod@V?$_Tmap_traits@HUMYLIST_COLUMN_INFO@@U?$less@H@std@@V?$allocator@U?$pair@$$CBHUMYLIST_COLUMN_INFO@@@std@@@3@$0A@@std@@@3@XZ ; std::_Tree<std::_Tmap_traits<int,MYLIST_COLUMN_INFO,std::less<int>,std::allocator<std::pair<int const ,MYLIST_COLUMN_INFO> >,0> >::const_iterator::_Mynode
  00039	50		 push	 eax
  0003a	e8 00 00 00 00	 call	 ?_Isnil@?$_Tree@V?$_Tmap_traits@HUMYLIST_COLUMN_INFO@@U?$less@H@std@@V?$allocator@U?$pair@$$CBHUMYLIST_COLUMN_INFO@@@std@@@3@$0A@@std@@@std@@KAAADPAU_Node@?$_Tree_nod@V?$_Tmap_traits@HUMYLIST_COLUMN_INFO@@U?$less@H@std@@V?$allocator@U?$pair@$$CBHUMYLIST_COLUMN_INFO@@@std@@@3@$0A@@std@@@2@@Z ; std::_Tree<std::_Tmap_traits<int,MYLIST_COLUMN_INFO,std::less<int>,std::allocator<std::pair<int const ,MYLIST_COLUMN_INFO> >,0> >::_Isnil
  0003f	83 c4 04	 add	 esp, 4
  00042	0f be 00	 movsx	 eax, BYTE PTR [eax]
  00045	85 c0		 test	 eax, eax
  00047	74 38		 je	 SHORT $L190673

; 592  : 			_THROW(out_of_range, "invalid map/set<T> iterator");

  00049	8b f4		 mov	 esi, esp
  0004b	68 00 00 00 00	 push	 OFFSET FLAT:??_C@_0BM@PAPJHAGI@invalid?5map?1set?$DMT?$DO?5iterator?$AA@
  00050	8d 4d 9c	 lea	 ecx, DWORD PTR $T192148[ebp]
  00053	ff 15 00 00 00
	00		 call	 DWORD PTR __imp_??0?$basic_string@DU?$char_traits@D@std@@V?$allocator@D@2@@std@@QAE@PBD@Z
  00059	3b f4		 cmp	 esi, esp
  0005b	e8 00 00 00 00	 call	 __RTC_CheckEsp
  00060	c7 45 fc 00 00
	00 00		 mov	 DWORD PTR __$EHRec$[ebp+8], 0
  00067	8d 4d 9c	 lea	 ecx, DWORD PTR $T192148[ebp]
  0006a	51		 push	 ecx
  0006b	8d 4d b8	 lea	 ecx, DWORD PTR $T192147[ebp]
  0006e	e8 00 00 00 00	 call	 ??0out_of_range@std@@QAE@ABV?$basic_string@DU?$char_traits@D@std@@V?$allocator@D@2@@1@@Z ; std::out_of_range::out_of_range
  00073	68 00 00 00 00	 push	 OFFSET FLAT:__TI3?AVout_of_range@std@@
  00078	8d 55 b8	 lea	 edx, DWORD PTR $T192147[ebp]
  0007b	52		 push	 edx
  0007c	e8 00 00 00 00	 call	 __CxxThrowException@8
$L190673:

; 593  : 		_Nodeptr _Erasednode = _Where._Mynode();	// node to erase

  00081	8d 4d 0c	 lea	 ecx, DWORD PTR __Where$[ebp]
  00084	e8 00 00 00 00	 call	 ?_Mynode@const_iterator@?$_Tree@V?$_Tmap_traits@HUMYLIST_COLUMN_INFO@@U?$less@H@std@@V?$allocator@U?$pair@$$CBHUMYLIST_COLUMN_INFO@@@std@@@3@$0A@@std@@@std@@QBEPAU_Node@?$_Tree_nod@V?$_Tmap_traits@HUMYLIST_COLUMN_INFO@@U?$less@H@std@@V?$allocator@U?$pair@$$CBHUMYLIST_COLUMN_INFO@@@std@@@3@$0A@@std@@@3@XZ ; std::_Tree<std::_Tmap_traits<int,MYLIST_COLUMN_INFO,std::less<int>,std::allocator<std::pair<int const ,MYLIST_COLUMN_INFO> >,0> >::const_iterator::_Mynode
  00089	89 45 ec	 mov	 DWORD PTR __Erasednode$[ebp], eax

; 594  : 		++_Where;	// save successor iterator for return

  0008c	8d 4d 0c	 lea	 ecx, DWORD PTR __Where$[ebp]
  0008f	e8 00 00 00 00	 call	 ??Eiterator@?$_Tree@V?$_Tmap_traits@HUMYLIST_COLUMN_INFO@@U?$less@H@std@@V?$allocator@U?$pair@$$CBHUMYLIST_COLUMN_INFO@@@std@@@3@$0A@@std@@@std@@QAEAAV012@XZ ; std::_Tree<std::_Tmap_traits<int,MYLIST_COLUMN_INFO,std::less<int>,std::allocator<std::pair<int const ,MYLIST_COLUMN_INFO> >,0> >::iterator::operator++

; 595  : 
; 596  : 		_Nodeptr _Fixnode;	// the node to recolor as needed
; 597  : 		_Nodeptr _Fixnodeparent;	// parent of _Fixnode (which may be nil)
; 598  : 		_Nodeptr _Pnode = _Erasednode;

  00094	8b 45 ec	 mov	 eax, DWORD PTR __Erasednode$[ebp]
  00097	89 45 e0	 mov	 DWORD PTR __Pnode$[ebp], eax

; 599  : 
; 600  : 		if (_Isnil(_Left(_Pnode)))

  0009a	8b 4d e0	 mov	 ecx, DWORD PTR __Pnode$[ebp]
  0009d	51		 push	 ecx
  0009e	e8 00 00 00 00	 call	 ?_Left@?$_Tree@V?$_Tmap_traits@HUMYLIST_COLUMN_INFO@@U?$less@H@std@@V?$allocator@U?$pair@$$CBHUMYLIST_COLUMN_INFO@@@std@@@3@$0A@@std@@@std@@KAAAPAU_Node@?$_Tree_nod@V?$_Tmap_traits@HUMYLIST_COLUMN_INFO@@U?$less@H@std@@V?$allocator@U?$pair@$$CBHUMYLIST_COLUMN_INFO@@@std@@@3@$0A@@std@@@2@PAU342@@Z ; std::_Tree<std::_Tmap_traits<int,MYLIST_COLUMN_INFO,std::less<int>,std::allocator<std::pair<int const ,MYLIST_COLUMN_INFO> >,0> >::_Left
  000a3	83 c4 04	 add	 esp, 4
  000a6	8b 10		 mov	 edx, DWORD PTR [eax]
  000a8	52		 push	 edx
  000a9	e8 00 00 00 00	 call	 ?_Isnil@?$_Tree@V?$_Tmap_traits@HUMYLIST_COLUMN_INFO@@U?$less@H@std@@V?$allocator@U?$pair@$$CBHUMYLIST_COLUMN_INFO@@@std@@@3@$0A@@std@@@std@@KAAADPAU_Node@?$_Tree_nod@V?$_Tmap_traits@HUMYLIST_COLUMN_INFO@@U?$less@H@std@@V?$allocator@U?$pair@$$CBHUMYLIST_COLUMN_INFO@@@std@@@3@$0A@@std@@@2@@Z ; std::_Tree<std::_Tmap_traits<int,MYLIST_COLUMN_INFO,std::less<int>,std::allocator<std::pair<int const ,MYLIST_COLUMN_INFO> >,0> >::_Isnil
  000ae	83 c4 04	 add	 esp, 4
  000b1	0f be 00	 movsx	 eax, BYTE PTR [eax]
  000b4	85 c0		 test	 eax, eax
  000b6	74 13		 je	 SHORT $L190681

; 601  : 			_Fixnode = _Right(_Pnode);	// must stitch up right subtree

  000b8	8b 4d e0	 mov	 ecx, DWORD PTR __Pnode$[ebp]
  000bb	51		 push	 ecx
  000bc	e8 00 00 00 00	 call	 ?_Right@?$_Tree@V?$_Tmap_traits@HUMYLIST_COLUMN_INFO@@U?$less@H@std@@V?$allocator@U?$pair@$$CBHUMYLIST_COLUMN_INFO@@@std@@@3@$0A@@std@@@std@@KAAAPAU_Node@?$_Tree_nod@V?$_Tmap_traits@HUMYLIST_COLUMN_INFO@@U?$less@H@std@@V?$allocator@U?$pair@$$CBHUMYLIST_COLUMN_INFO@@@std@@@3@$0A@@std@@@2@PAU342@@Z ; std::_Tree<std::_Tmap_traits<int,MYLIST_COLUMN_INFO,std::less<int>,std::allocator<std::pair<int const ,MYLIST_COLUMN_INFO> >,0> >::_Right
  000c1	83 c4 04	 add	 esp, 4
  000c4	8b 10		 mov	 edx, DWORD PTR [eax]
  000c6	89 55 e8	 mov	 DWORD PTR __Fixnode$[ebp], edx

; 602  : 		else if (_Isnil(_Right(_Pnode)))

  000c9	eb 4d		 jmp	 SHORT $L190682
$L190681:
  000cb	8b 45 e0	 mov	 eax, DWORD PTR __Pnode$[ebp]
  000ce	50		 push	 eax
  000cf	e8 00 00 00 00	 call	 ?_Right@?$_Tree@V?$_Tmap_traits@HUMYLIST_COLUMN_INFO@@U?$less@H@std@@V?$allocator@U?$pair@$$CBHUMYLIST_COLUMN_INFO@@@std@@@3@$0A@@std@@@std@@KAAAPAU_Node@?$_Tree_nod@V?$_Tmap_traits@HUMYLIST_COLUMN_INFO@@U?$less@H@std@@V?$allocator@U?$pair@$$CBHUMYLIST_COLUMN_INFO@@@std@@@3@$0A@@std@@@2@PAU342@@Z ; std::_Tree<std::_Tmap_traits<int,MYLIST_COLUMN_INFO,std::less<int>,std::allocator<std::pair<int const ,MYLIST_COLUMN_INFO> >,0> >::_Right
  000d4	83 c4 04	 add	 esp, 4
  000d7	8b 08		 mov	 ecx, DWORD PTR [eax]
  000d9	51		 push	 ecx
  000da	e8 00 00 00 00	 call	 ?_Isnil@?$_Tree@V?$_Tmap_traits@HUMYLIST_COLUMN_INFO@@U?$less@H@std@@V?$allocator@U?$pair@$$CBHUMYLIST_COLUMN_INFO@@@std@@@3@$0A@@std@@@std@@KAAADPAU_Node@?$_Tree_nod@V?$_Tmap_traits@HUMYLIST_COLUMN_INFO@@U?$less@H@std@@V?$allocator@U?$pair@$$CBHUMYLIST_COLUMN_INFO@@@std@@@3@$0A@@std@@@2@@Z ; std::_Tree<std::_Tmap_traits<int,MYLIST_COLUMN_INFO,std::less<int>,std::allocator<std::pair<int const ,MYLIST_COLUMN_INFO> >,0> >::_Isnil
  000df	83 c4 04	 add	 esp, 4
  000e2	0f be 10	 movsx	 edx, BYTE PTR [eax]
  000e5	85 d2		 test	 edx, edx
  000e7	74 13		 je	 SHORT $L190683

; 603  : 			_Fixnode = _Left(_Pnode);	// must stitch up left subtree

  000e9	8b 45 e0	 mov	 eax, DWORD PTR __Pnode$[ebp]
  000ec	50		 push	 eax
  000ed	e8 00 00 00 00	 call	 ?_Left@?$_Tree@V?$_Tmap_traits@HUMYLIST_COLUMN_INFO@@U?$less@H@std@@V?$allocator@U?$pair@$$CBHUMYLIST_COLUMN_INFO@@@std@@@3@$0A@@std@@@std@@KAAAPAU_Node@?$_Tree_nod@V?$_Tmap_traits@HUMYLIST_COLUMN_INFO@@U?$less@H@std@@V?$allocator@U?$pair@$$CBHUMYLIST_COLUMN_INFO@@@std@@@3@$0A@@std@@@2@PAU342@@Z ; std::_Tree<std::_Tmap_traits<int,MYLIST_COLUMN_INFO,std::less<int>,std::allocator<std::pair<int const ,MYLIST_COLUMN_INFO> >,0> >::_Left
  000f2	83 c4 04	 add	 esp, 4
  000f5	8b 08		 mov	 ecx, DWORD PTR [eax]
  000f7	89 4d e8	 mov	 DWORD PTR __Fixnode$[ebp], ecx

; 604  : 		else

  000fa	eb 1c		 jmp	 SHORT $L190682
$L190683:

; 605  : 			{	// two subtrees, must lift successor node to replace erased
; 606  : 			_Pnode = _Where._Mynode();	// _Pnode is successor node

  000fc	8d 4d 0c	 lea	 ecx, DWORD PTR __Where$[ebp]
  000ff	e8 00 00 00 00	 call	 ?_Mynode@const_iterator@?$_Tree@V?$_Tmap_traits@HUMYLIST_COLUMN_INFO@@U?$less@H@std@@V?$allocator@U?$pair@$$CBHUMYLIST_COLUMN_INFO@@@std@@@3@$0A@@std@@@std@@QBEPAU_Node@?$_Tree_nod@V?$_Tmap_traits@HUMYLIST_COLUMN_INFO@@U?$less@H@std@@V?$allocator@U?$pair@$$CBHUMYLIST_COLUMN_INFO@@@std@@@3@$0A@@std@@@3@XZ ; std::_Tree<std::_Tmap_traits<int,MYLIST_COLUMN_INFO,std::less<int>,std::allocator<std::pair<int const ,MYLIST_COLUMN_INFO> >,0> >::const_iterator::_Mynode
  00104	89 45 e0	 mov	 DWORD PTR __Pnode$[ebp], eax

; 607  : 			_Fixnode = _Right(_Pnode);	// _Fixnode is its only subtree

  00107	8b 55 e0	 mov	 edx, DWORD PTR __Pnode$[ebp]
  0010a	52		 push	 edx
  0010b	e8 00 00 00 00	 call	 ?_Right@?$_Tree@V?$_Tmap_traits@HUMYLIST_COLUMN_INFO@@U?$less@H@std@@V?$allocator@U?$pair@$$CBHUMYLIST_COLUMN_INFO@@@std@@@3@$0A@@std@@@std@@KAAAPAU_Node@?$_Tree_nod@V?$_Tmap_traits@HUMYLIST_COLUMN_INFO@@U?$less@H@std@@V?$allocator@U?$pair@$$CBHUMYLIST_COLUMN_INFO@@@std@@@3@$0A@@std@@@2@PAU342@@Z ; std::_Tree<std::_Tmap_traits<int,MYLIST_COLUMN_INFO,std::less<int>,std::allocator<std::pair<int const ,MYLIST_COLUMN_INFO> >,0> >::_Right
  00110	83 c4 04	 add	 esp, 4
  00113	8b 00		 mov	 eax, DWORD PTR [eax]
  00115	89 45 e8	 mov	 DWORD PTR __Fixnode$[ebp], eax
$L190682:

; 608  : 			}
; 609  : 
; 610  : 		if (_Pnode == _Erasednode)

  00118	8b 4d e0	 mov	 ecx, DWORD PTR __Pnode$[ebp]
  0011b	3b 4d ec	 cmp	 ecx, DWORD PTR __Erasednode$[ebp]
  0011e	0f 85 1b 01 00
	00		 jne	 $L190685

; 611  : 			{	// at most one subtree, relink it
; 612  : 			_Fixnodeparent = _Parent(_Erasednode);

  00124	8b 55 ec	 mov	 edx, DWORD PTR __Erasednode$[ebp]
  00127	52		 push	 edx
  00128	e8 00 00 00 00	 call	 ?_Parent@?$_Tree@V?$_Tmap_traits@HUMYLIST_COLUMN_INFO@@U?$less@H@std@@V?$allocator@U?$pair@$$CBHUMYLIST_COLUMN_INFO@@@std@@@3@$0A@@std@@@std@@KAAAPAU_Node@?$_Tree_nod@V?$_Tmap_traits@HUMYLIST_COLUMN_INFO@@U?$less@H@std@@V?$allocator@U?$pair@$$CBHUMYLIST_COLUMN_INFO@@@std@@@3@$0A@@std@@@2@PAU342@@Z ; std::_Tree<std::_Tmap_traits<int,MYLIST_COLUMN_INFO,std::less<int>,std::allocator<std::pair<int const ,MYLIST_COLUMN_INFO> >,0> >::_Parent
  0012d	83 c4 04	 add	 esp, 4
  00130	8b 00		 mov	 eax, DWORD PTR [eax]
  00132	89 45 e4	 mov	 DWORD PTR __Fixnodeparent$[ebp], eax

; 613  : 			if (!_Isnil(_Fixnode))

  00135	8b 4d e8	 mov	 ecx, DWORD PTR __Fixnode$[ebp]
  00138	51		 push	 ecx
  00139	e8 00 00 00 00	 call	 ?_Isnil@?$_Tree@V?$_Tmap_traits@HUMYLIST_COLUMN_INFO@@U?$less@H@std@@V?$allocator@U?$pair@$$CBHUMYLIST_COLUMN_INFO@@@std@@@3@$0A@@std@@@std@@KAAADPAU_Node@?$_Tree_nod@V?$_Tmap_traits@HUMYLIST_COLUMN_INFO@@U?$less@H@std@@V?$allocator@U?$pair@$$CBHUMYLIST_COLUMN_INFO@@@std@@@3@$0A@@std@@@2@@Z ; std::_Tree<std::_Tmap_traits<int,MYLIST_COLUMN_INFO,std::less<int>,std::allocator<std::pair<int const ,MYLIST_COLUMN_INFO> >,0> >::_Isnil
  0013e	83 c4 04	 add	 esp, 4
  00141	0f be 10	 movsx	 edx, BYTE PTR [eax]
  00144	85 d2		 test	 edx, edx
  00146	75 11		 jne	 SHORT $L190686

; 614  : 				_Parent(_Fixnode) = _Fixnodeparent;	// link up

  00148	8b 45 e8	 mov	 eax, DWORD PTR __Fixnode$[ebp]
  0014b	50		 push	 eax
  0014c	e8 00 00 00 00	 call	 ?_Parent@?$_Tree@V?$_Tmap_traits@HUMYLIST_COLUMN_INFO@@U?$less@H@std@@V?$allocator@U?$pair@$$CBHUMYLIST_COLUMN_INFO@@@std@@@3@$0A@@std@@@std@@KAAAPAU_Node@?$_Tree_nod@V?$_Tmap_traits@HUMYLIST_COLUMN_INFO@@U?$less@H@std@@V?$allocator@U?$pair@$$CBHUMYLIST_COLUMN_INFO@@@std@@@3@$0A@@std@@@2@PAU342@@Z ; std::_Tree<std::_Tmap_traits<int,MYLIST_COLUMN_INFO,std::less<int>,std::allocator<std::pair<int const ,MYLIST_COLUMN_INFO> >,0> >::_Parent
  00151	83 c4 04	 add	 esp, 4
  00154	8b 4d e4	 mov	 ecx, DWORD PTR __Fixnodeparent$[ebp]
  00157	89 08		 mov	 DWORD PTR [eax], ecx
$L190686:

; 615  : 
; 616  : 			if (_Root() == _Erasednode)

  00159	8b 4d f0	 mov	 ecx, DWORD PTR _this$[ebp]
  0015c	e8 00 00 00 00	 call	 ?_Root@?$_Tree@V?$_Tmap_traits@HUMYLIST_COLUMN_INFO@@U?$less@H@std@@V?$allocator@U?$pair@$$CBHUMYLIST_COLUMN_INFO@@@std@@@3@$0A@@std@@@std@@IAEAAPAU_Node@?$_Tree_nod@V?$_Tmap_traits@HUMYLIST_COLUMN_INFO@@U?$less@H@std@@V?$allocator@U?$pair@$$CBHUMYLIST_COLUMN_INFO@@@std@@@3@$0A@@std@@@2@XZ ; std::_Tree<std::_Tmap_traits<int,MYLIST_COLUMN_INFO,std::less<int>,std::allocator<std::pair<int const ,MYLIST_COLUMN_INFO> >,0> >::_Root
  00161	8b 10		 mov	 edx, DWORD PTR [eax]
  00163	3b 55 ec	 cmp	 edx, DWORD PTR __Erasednode$[ebp]
  00166	75 0f		 jne	 SHORT $L190687

; 617  : 				_Root() = _Fixnode;	// link down from root

  00168	8b 4d f0	 mov	 ecx, DWORD PTR _this$[ebp]
  0016b	e8 00 00 00 00	 call	 ?_Root@?$_Tree@V?$_Tmap_traits@HUMYLIST_COLUMN_INFO@@U?$less@H@std@@V?$allocator@U?$pair@$$CBHUMYLIST_COLUMN_INFO@@@std@@@3@$0A@@std@@@std@@IAEAAPAU_Node@?$_Tree_nod@V?$_Tmap_traits@HUMYLIST_COLUMN_INFO@@U?$less@H@std@@V?$allocator@U?$pair@$$CBHUMYLIST_COLUMN_INFO@@@std@@@3@$0A@@std@@@2@XZ ; std::_Tree<std::_Tmap_traits<int,MYLIST_COLUMN_INFO,std::less<int>,std::allocator<std::pair<int const ,MYLIST_COLUMN_INFO> >,0> >::_Root
  00170	8b 4d e8	 mov	 ecx, DWORD PTR __Fixnode$[ebp]
  00173	89 08		 mov	 DWORD PTR [eax], ecx

; 618  : 			else if (_Left(_Fixnodeparent) == _Erasednode)

  00175	eb 37		 jmp	 SHORT $L190688
$L190687:
  00177	8b 55 e4	 mov	 edx, DWORD PTR __Fixnodeparent$[ebp]
  0017a	52		 push	 edx
  0017b	e8 00 00 00 00	 call	 ?_Left@?$_Tree@V?$_Tmap_traits@HUMYLIST_COLUMN_INFO@@U?$less@H@std@@V?$allocator@U?$pair@$$CBHUMYLIST_COLUMN_INFO@@@std@@@3@$0A@@std@@@std@@KAAAPAU_Node@?$_Tree_nod@V?$_Tmap_traits@HUMYLIST_COLUMN_INFO@@U?$less@H@std@@V?$allocator@U?$pair@$$CBHUMYLIST_COLUMN_INFO@@@std@@@3@$0A@@std@@@2@PAU342@@Z ; std::_Tree<std::_Tmap_traits<int,MYLIST_COLUMN_INFO,std::less<int>,std::allocator<std::pair<int const ,MYLIST_COLUMN_INFO> >,0> >::_Left
  00180	83 c4 04	 add	 esp, 4
  00183	8b 00		 mov	 eax, DWORD PTR [eax]
  00185	3b 45 ec	 cmp	 eax, DWORD PTR __Erasednode$[ebp]
  00188	75 13		 jne	 SHORT $L190689

; 619  : 				_Left(_Fixnodeparent) = _Fixnode;	// link down to left

  0018a	8b 4d e4	 mov	 ecx, DWORD PTR __Fixnodeparent$[ebp]
  0018d	51		 push	 ecx
  0018e	e8 00 00 00 00	 call	 ?_Left@?$_Tree@V?$_Tmap_traits@HUMYLIST_COLUMN_INFO@@U?$less@H@std@@V?$allocator@U?$pair@$$CBHUMYLIST_COLUMN_INFO@@@std@@@3@$0A@@std@@@std@@KAAAPAU_Node@?$_Tree_nod@V?$_Tmap_traits@HUMYLIST_COLUMN_INFO@@U?$less@H@std@@V?$allocator@U?$pair@$$CBHUMYLIST_COLUMN_INFO@@@std@@@3@$0A@@std@@@2@PAU342@@Z ; std::_Tree<std::_Tmap_traits<int,MYLIST_COLUMN_INFO,std::less<int>,std::allocator<std::pair<int const ,MYLIST_COLUMN_INFO> >,0> >::_Left
  00193	83 c4 04	 add	 esp, 4
  00196	8b 55 e8	 mov	 edx, DWORD PTR __Fixnode$[ebp]
  00199	89 10		 mov	 DWORD PTR [eax], edx

; 620  : 			else

  0019b	eb 11		 jmp	 SHORT $L190688
$L190689:

; 621  : 				_Right(_Fixnodeparent) = _Fixnode;	// link down to right

  0019d	8b 45 e4	 mov	 eax, DWORD PTR __Fixnodeparent$[ebp]
  001a0	50		 push	 eax
  001a1	e8 00 00 00 00	 call	 ?_Right@?$_Tree@V?$_Tmap_traits@HUMYLIST_COLUMN_INFO@@U?$less@H@std@@V?$allocator@U?$pair@$$CBHUMYLIST_COLUMN_INFO@@@std@@@3@$0A@@std@@@std@@KAAAPAU_Node@?$_Tree_nod@V?$_Tmap_traits@HUMYLIST_COLUMN_INFO@@U?$less@H@std@@V?$allocator@U?$pair@$$CBHUMYLIST_COLUMN_INFO@@@std@@@3@$0A@@std@@@2@PAU342@@Z ; std::_Tree<std::_Tmap_traits<int,MYLIST_COLUMN_INFO,std::less<int>,std::allocator<std::pair<int const ,MYLIST_COLUMN_INFO> >,0> >::_Right
  001a6	83 c4 04	 add	 esp, 4
  001a9	8b 4d e8	 mov	 ecx, DWORD PTR __Fixnode$[ebp]
  001ac	89 08		 mov	 DWORD PTR [eax], ecx
$L190688:

; 622  : 
; 623  : 			if (_Lmost() == _Erasednode)

  001ae	8b 4d f0	 mov	 ecx, DWORD PTR _this$[ebp]
  001b1	e8 00 00 00 00	 call	 ?_Lmost@?$_Tree@V?$_Tmap_traits@HUMYLIST_COLUMN_INFO@@U?$less@H@std@@V?$allocator@U?$pair@$$CBHUMYLIST_COLUMN_INFO@@@std@@@3@$0A@@std@@@std@@IAEAAPAU_Node@?$_Tree_nod@V?$_Tmap_traits@HUMYLIST_COLUMN_INFO@@U?$less@H@std@@V?$allocator@U?$pair@$$CBHUMYLIST_COLUMN_INFO@@@std@@@3@$0A@@std@@@2@XZ ; std::_Tree<std::_Tmap_traits<int,MYLIST_COLUMN_INFO,std::less<int>,std::allocator<std::pair<int const ,MYLIST_COLUMN_INFO> >,0> >::_Lmost
  001b6	8b 10		 mov	 edx, DWORD PTR [eax]
  001b8	3b 55 ec	 cmp	 edx, DWORD PTR __Erasednode$[ebp]
  001bb	75 37		 jne	 SHORT $L190691

; 624  : 				_Lmost() = _Isnil(_Fixnode)
; 625  : 					? _Fixnodeparent	// smallest is parent of erased node
; 626  : 					: _Min(_Fixnode);	// smallest in relinked subtree

  001bd	8b 45 e8	 mov	 eax, DWORD PTR __Fixnode$[ebp]
  001c0	50		 push	 eax
  001c1	e8 00 00 00 00	 call	 ?_Isnil@?$_Tree@V?$_Tmap_traits@HUMYLIST_COLUMN_INFO@@U?$less@H@std@@V?$allocator@U?$pair@$$CBHUMYLIST_COLUMN_INFO@@@std@@@3@$0A@@std@@@std@@KAAADPAU_Node@?$_Tree_nod@V?$_Tmap_traits@HUMYLIST_COLUMN_INFO@@U?$less@H@std@@V?$allocator@U?$pair@$$CBHUMYLIST_COLUMN_INFO@@@std@@@3@$0A@@std@@@2@@Z ; std::_Tree<std::_Tmap_traits<int,MYLIST_COLUMN_INFO,std::less<int>,std::allocator<std::pair<int const ,MYLIST_COLUMN_INFO> >,0> >::_Isnil
  001c6	83 c4 04	 add	 esp, 4
  001c9	0f be 08	 movsx	 ecx, BYTE PTR [eax]
  001cc	85 c9		 test	 ecx, ecx
  001ce	74 08		 je	 SHORT $L192149
  001d0	8b 55 e4	 mov	 edx, DWORD PTR __Fixnodeparent$[ebp]
  001d3	89 55 98	 mov	 DWORD PTR tv165[ebp], edx
  001d6	eb 0f		 jmp	 SHORT $L192150
$L192149:
  001d8	8b 45 e8	 mov	 eax, DWORD PTR __Fixnode$[ebp]
  001db	50		 push	 eax
  001dc	e8 00 00 00 00	 call	 ?_Min@?$_Tree@V?$_Tmap_traits@HUMYLIST_COLUMN_INFO@@U?$less@H@std@@V?$allocator@U?$pair@$$CBHUMYLIST_COLUMN_INFO@@@std@@@3@$0A@@std@@@std@@KAPAU_Node@?$_Tree_nod@V?$_Tmap_traits@HUMYLIST_COLUMN_INFO@@U?$less@H@std@@V?$allocator@U?$pair@$$CBHUMYLIST_COLUMN_INFO@@@std@@@3@$0A@@std@@@2@PAU342@@Z ; std::_Tree<std::_Tmap_traits<int,MYLIST_COLUMN_INFO,std::less<int>,std::allocator<std::pair<int const ,MYLIST_COLUMN_INFO> >,0> >::_Min
  001e1	83 c4 04	 add	 esp, 4
  001e4	89 45 98	 mov	 DWORD PTR tv165[ebp], eax
$L192150:
  001e7	8b 4d f0	 mov	 ecx, DWORD PTR _this$[ebp]
  001ea	e8 00 00 00 00	 call	 ?_Lmost@?$_Tree@V?$_Tmap_traits@HUMYLIST_COLUMN_INFO@@U?$less@H@std@@V?$allocator@U?$pair@$$CBHUMYLIST_COLUMN_INFO@@@std@@@3@$0A@@std@@@std@@IAEAAPAU_Node@?$_Tree_nod@V?$_Tmap_traits@HUMYLIST_COLUMN_INFO@@U?$less@H@std@@V?$allocator@U?$pair@$$CBHUMYLIST_COLUMN_INFO@@@std@@@3@$0A@@std@@@2@XZ ; std::_Tree<std::_Tmap_traits<int,MYLIST_COLUMN_INFO,std::less<int>,std::allocator<std::pair<int const ,MYLIST_COLUMN_INFO> >,0> >::_Lmost
  001ef	8b 4d 98	 mov	 ecx, DWORD PTR tv165[ebp]
  001f2	89 08		 mov	 DWORD PTR [eax], ecx
$L190691:

; 627  : 
; 628  : 			if (_Rmost() == _Erasednode)

  001f4	8b 4d f0	 mov	 ecx, DWORD PTR _this$[ebp]
  001f7	e8 00 00 00 00	 call	 ?_Rmost@?$_Tree@V?$_Tmap_traits@HUMYLIST_COLUMN_INFO@@U?$less@H@std@@V?$allocator@U?$pair@$$CBHUMYLIST_COLUMN_INFO@@@std@@@3@$0A@@std@@@std@@IAEAAPAU_Node@?$_Tree_nod@V?$_Tmap_traits@HUMYLIST_COLUMN_INFO@@U?$less@H@std@@V?$allocator@U?$pair@$$CBHUMYLIST_COLUMN_INFO@@@std@@@3@$0A@@std@@@2@XZ ; std::_Tree<std::_Tmap_traits<int,MYLIST_COLUMN_INFO,std::less<int>,std::allocator<std::pair<int const ,MYLIST_COLUMN_INFO> >,0> >::_Rmost
  001fc	8b 10		 mov	 edx, DWORD PTR [eax]
  001fe	3b 55 ec	 cmp	 edx, DWORD PTR __Erasednode$[ebp]
  00201	75 37		 jne	 SHORT $L190692

; 629  : 				_Rmost() = _Isnil(_Fixnode)
; 630  : 					? _Fixnodeparent	// largest is parent of erased node
; 631  : 					: _Max(_Fixnode);	// largest in relinked subtree

  00203	8b 45 e8	 mov	 eax, DWORD PTR __Fixnode$[ebp]
  00206	50		 push	 eax
  00207	e8 00 00 00 00	 call	 ?_Isnil@?$_Tree@V?$_Tmap_traits@HUMYLIST_COLUMN_INFO@@U?$less@H@std@@V?$allocator@U?$pair@$$CBHUMYLIST_COLUMN_INFO@@@std@@@3@$0A@@std@@@std@@KAAADPAU_Node@?$_Tree_nod@V?$_Tmap_traits@HUMYLIST_COLUMN_INFO@@U?$less@H@std@@V?$allocator@U?$pair@$$CBHUMYLIST_COLUMN_INFO@@@std@@@3@$0A@@std@@@2@@Z ; std::_Tree<std::_Tmap_traits<int,MYLIST_COLUMN_INFO,std::less<int>,std::allocator<std::pair<int const ,MYLIST_COLUMN_INFO> >,0> >::_Isnil
  0020c	83 c4 04	 add	 esp, 4
  0020f	0f be 08	 movsx	 ecx, BYTE PTR [eax]
  00212	85 c9		 test	 ecx, ecx
  00214	74 08		 je	 SHORT $L192151
  00216	8b 55 e4	 mov	 edx, DWORD PTR __Fixnodeparent$[ebp]
  00219	89 55 94	 mov	 DWORD PTR tv177[ebp], edx
  0021c	eb 0f		 jmp	 SHORT $L192152
$L192151:
  0021e	8b 45 e8	 mov	 eax, DWORD PTR __Fixnode$[ebp]
  00221	50		 push	 eax
  00222	e8 00 00 00 00	 call	 ?_Max@?$_Tree@V?$_Tmap_traits@HUMYLIST_COLUMN_INFO@@U?$less@H@std@@V?$allocator@U?$pair@$$CBHUMYLIST_COLUMN_INFO@@@std@@@3@$0A@@std@@@std@@KAPAU_Node@?$_Tree_nod@V?$_Tmap_traits@HUMYLIST_COLUMN_INFO@@U?$less@H@std@@V?$allocator@U?$pair@$$CBHUMYLIST_COLUMN_INFO@@@std@@@3@$0A@@std@@@2@PAU342@@Z ; std::_Tree<std::_Tmap_traits<int,MYLIST_COLUMN_INFO,std::less<int>,std::allocator<std::pair<int const ,MYLIST_COLUMN_INFO> >,0> >::_Max
  00227	83 c4 04	 add	 esp, 4
  0022a	89 45 94	 mov	 DWORD PTR tv177[ebp], eax
$L192152:
  0022d	8b 4d f0	 mov	 ecx, DWORD PTR _this$[ebp]
  00230	e8 00 00 00 00	 call	 ?_Rmost@?$_Tree@V?$_Tmap_traits@HUMYLIST_COLUMN_INFO@@U?$less@H@std@@V?$allocator@U?$pair@$$CBHUMYLIST_COLUMN_INFO@@@std@@@3@$0A@@std@@@std@@IAEAAPAU_Node@?$_Tree_nod@V?$_Tmap_traits@HUMYLIST_COLUMN_INFO@@U?$less@H@std@@V?$allocator@U?$pair@$$CBHUMYLIST_COLUMN_INFO@@@std@@@3@$0A@@std@@@2@XZ ; std::_Tree<std::_Tmap_traits<int,MYLIST_COLUMN_INFO,std::less<int>,std::allocator<std::pair<int const ,MYLIST_COLUMN_INFO> >,0> >::_Rmost
  00235	8b 4d 94	 mov	 ecx, DWORD PTR tv177[ebp]
  00238	89 08		 mov	 DWORD PTR [eax], ecx
$L190692:

; 632  : 			}
; 633  : 		else

  0023a	e9 8e 01 00 00	 jmp	 $L190693
$L190685:

; 634  : 			{	// erased has two subtrees, _Pnode is successor to erased
; 635  : 			_Parent(_Left(_Erasednode)) = _Pnode;	// link left up

  0023f	8b 55 ec	 mov	 edx, DWORD PTR __Erasednode$[ebp]
  00242	52		 push	 edx
  00243	e8 00 00 00 00	 call	 ?_Left@?$_Tree@V?$_Tmap_traits@HUMYLIST_COLUMN_INFO@@U?$less@H@std@@V?$allocator@U?$pair@$$CBHUMYLIST_COLUMN_INFO@@@std@@@3@$0A@@std@@@std@@KAAAPAU_Node@?$_Tree_nod@V?$_Tmap_traits@HUMYLIST_COLUMN_INFO@@U?$less@H@std@@V?$allocator@U?$pair@$$CBHUMYLIST_COLUMN_INFO@@@std@@@3@$0A@@std@@@2@PAU342@@Z ; std::_Tree<std::_Tmap_traits<int,MYLIST_COLUMN_INFO,std::less<int>,std::allocator<std::pair<int const ,MYLIST_COLUMN_INFO> >,0> >::_Left
  00248	83 c4 04	 add	 esp, 4
  0024b	8b 00		 mov	 eax, DWORD PTR [eax]
  0024d	50		 push	 eax
  0024e	e8 00 00 00 00	 call	 ?_Parent@?$_Tree@V?$_Tmap_traits@HUMYLIST_COLUMN_INFO@@U?$less@H@std@@V?$allocator@U?$pair@$$CBHUMYLIST_COLUMN_INFO@@@std@@@3@$0A@@std@@@std@@KAAAPAU_Node@?$_Tree_nod@V?$_Tmap_traits@HUMYLIST_COLUMN_INFO@@U?$less@H@std@@V?$allocator@U?$pair@$$CBHUMYLIST_COLUMN_INFO@@@std@@@3@$0A@@std@@@2@PAU342@@Z ; std::_Tree<std::_Tmap_traits<int,MYLIST_COLUMN_INFO,std::less<int>,std::allocator<std::pair<int const ,MYLIST_COLUMN_INFO> >,0> >::_Parent
  00253	83 c4 04	 add	 esp, 4
  00256	8b 4d e0	 mov	 ecx, DWORD PTR __Pnode$[ebp]
  00259	89 08		 mov	 DWORD PTR [eax], ecx

; 636  : 			_Left(_Pnode) = _Left(_Erasednode);	// link successor down

  0025b	8b 55 ec	 mov	 edx, DWORD PTR __Erasednode$[ebp]
  0025e	52		 push	 edx
  0025f	e8 00 00 00 00	 call	 ?_Left@?$_Tree@V?$_Tmap_traits@HUMYLIST_COLUMN_INFO@@U?$less@H@std@@V?$allocator@U?$pair@$$CBHUMYLIST_COLUMN_INFO@@@std@@@3@$0A@@std@@@std@@KAAAPAU_Node@?$_Tree_nod@V?$_Tmap_traits@HUMYLIST_COLUMN_INFO@@U?$less@H@std@@V?$allocator@U?$pair@$$CBHUMYLIST_COLUMN_INFO@@@std@@@3@$0A@@std@@@2@PAU342@@Z ; std::_Tree<std::_Tmap_traits<int,MYLIST_COLUMN_INFO,std::less<int>,std::allocator<std::pair<int const ,MYLIST_COLUMN_INFO> >,0> >::_Left
  00264	83 c4 04	 add	 esp, 4
  00267	8b f0		 mov	 esi, eax
  00269	8b 45 e0	 mov	 eax, DWORD PTR __Pnode$[ebp]
  0026c	50		 push	 eax
  0026d	e8 00 00 00 00	 call	 ?_Left@?$_Tree@V?$_Tmap_traits@HUMYLIST_COLUMN_INFO@@U?$less@H@std@@V?$allocator@U?$pair@$$CBHUMYLIST_COLUMN_INFO@@@std@@@3@$0A@@std@@@std@@KAAAPAU_Node@?$_Tree_nod@V?$_Tmap_traits@HUMYLIST_COLUMN_INFO@@U?$less@H@std@@V?$allocator@U?$pair@$$CBHUMYLIST_COLUMN_INFO@@@std@@@3@$0A@@std@@@2@PAU342@@Z ; std::_Tree<std::_Tmap_traits<int,MYLIST_COLUMN_INFO,std::less<int>,std::allocator<std::pair<int const ,MYLIST_COLUMN_INFO> >,0> >::_Left
  00272	83 c4 04	 add	 esp, 4
  00275	8b 0e		 mov	 ecx, DWORD PTR [esi]
  00277	89 08		 mov	 DWORD PTR [eax], ecx

; 637  : 
; 638  : 			if (_Pnode == _Right(_Erasednode))

  00279	8b 55 ec	 mov	 edx, DWORD PTR __Erasednode$[ebp]
  0027c	52		 push	 edx
  0027d	e8 00 00 00 00	 call	 ?_Right@?$_Tree@V?$_Tmap_traits@HUMYLIST_COLUMN_INFO@@U?$less@H@std@@V?$allocator@U?$pair@$$CBHUMYLIST_COLUMN_INFO@@@std@@@3@$0A@@std@@@std@@KAAAPAU_Node@?$_Tree_nod@V?$_Tmap_traits@HUMYLIST_COLUMN_INFO@@U?$less@H@std@@V?$allocator@U?$pair@$$CBHUMYLIST_COLUMN_INFO@@@std@@@3@$0A@@std@@@2@PAU342@@Z ; std::_Tree<std::_Tmap_traits<int,MYLIST_COLUMN_INFO,std::less<int>,std::allocator<std::pair<int const ,MYLIST_COLUMN_INFO> >,0> >::_Right
  00282	83 c4 04	 add	 esp, 4
  00285	8b 4d e0	 mov	 ecx, DWORD PTR __Pnode$[ebp]
  00288	3b 08		 cmp	 ecx, DWORD PTR [eax]
  0028a	75 0b		 jne	 SHORT $L190694

; 639  : 				_Fixnodeparent = _Pnode;	// successor is next to erased

  0028c	8b 55 e0	 mov	 edx, DWORD PTR __Pnode$[ebp]
  0028f	89 55 e4	 mov	 DWORD PTR __Fixnodeparent$[ebp], edx

; 640  : 			else

  00292	e9 80 00 00 00	 jmp	 $L190695
$L190694:

; 641  : 				{	// successor further down, link in place of erased
; 642  : 				_Fixnodeparent = _Parent(_Pnode);	// parent is successor's

  00297	8b 45 e0	 mov	 eax, DWORD PTR __Pnode$[ebp]
  0029a	50		 push	 eax
  0029b	e8 00 00 00 00	 call	 ?_Parent@?$_Tree@V?$_Tmap_traits@HUMYLIST_COLUMN_INFO@@U?$less@H@std@@V?$allocator@U?$pair@$$CBHUMYLIST_COLUMN_INFO@@@std@@@3@$0A@@std@@@std@@KAAAPAU_Node@?$_Tree_nod@V?$_Tmap_traits@HUMYLIST_COLUMN_INFO@@U?$less@H@std@@V?$allocator@U?$pair@$$CBHUMYLIST_COLUMN_INFO@@@std@@@3@$0A@@std@@@2@PAU342@@Z ; std::_Tree<std::_Tmap_traits<int,MYLIST_COLUMN_INFO,std::less<int>,std::allocator<std::pair<int const ,MYLIST_COLUMN_INFO> >,0> >::_Parent
  002a0	83 c4 04	 add	 esp, 4
  002a3	8b 08		 mov	 ecx, DWORD PTR [eax]
  002a5	89 4d e4	 mov	 DWORD PTR __Fixnodeparent$[ebp], ecx

; 643  : 				if (!_Isnil(_Fixnode))

  002a8	8b 55 e8	 mov	 edx, DWORD PTR __Fixnode$[ebp]
  002ab	52		 push	 edx
  002ac	e8 00 00 00 00	 call	 ?_Isnil@?$_Tree@V?$_Tmap_traits@HUMYLIST_COLUMN_INFO@@U?$less@H@std@@V?$allocator@U?$pair@$$CBHUMYLIST_COLUMN_INFO@@@std@@@3@$0A@@std@@@std@@KAAADPAU_Node@?$_Tree_nod@V?$_Tmap_traits@HUMYLIST_COLUMN_INFO@@U?$less@H@std@@V?$allocator@U?$pair@$$CBHUMYLIST_COLUMN_INFO@@@std@@@3@$0A@@std@@@2@@Z ; std::_Tree<std::_Tmap_traits<int,MYLIST_COLUMN_INFO,std::less<int>,std::allocator<std::pair<int const ,MYLIST_COLUMN_INFO> >,0> >::_Isnil
  002b1	83 c4 04	 add	 esp, 4
  002b4	0f be 00	 movsx	 eax, BYTE PTR [eax]
  002b7	85 c0		 test	 eax, eax
  002b9	75 11		 jne	 SHORT $L190696

; 644  : 					_Parent(_Fixnode) = _Fixnodeparent;	// link fix up

  002bb	8b 4d e8	 mov	 ecx, DWORD PTR __Fixnode$[ebp]
  002be	51		 push	 ecx
  002bf	e8 00 00 00 00	 call	 ?_Parent@?$_Tree@V?$_Tmap_traits@HUMYLIST_COLUMN_INFO@@U?$less@H@std@@V?$allocator@U?$pair@$$CBHUMYLIST_COLUMN_INFO@@@std@@@3@$0A@@std@@@std@@KAAAPAU_Node@?$_Tree_nod@V?$_Tmap_traits@HUMYLIST_COLUMN_INFO@@U?$less@H@std@@V?$allocator@U?$pair@$$CBHUMYLIST_COLUMN_INFO@@@std@@@3@$0A@@std@@@2@PAU342@@Z ; std::_Tree<std::_Tmap_traits<int,MYLIST_COLUMN_INFO,std::less<int>,std::allocator<std::pair<int const ,MYLIST_COLUMN_INFO> >,0> >::_Parent
  002c4	83 c4 04	 add	 esp, 4
  002c7	8b 55 e4	 mov	 edx, DWORD PTR __Fixnodeparent$[ebp]
  002ca	89 10		 mov	 DWORD PTR [eax], edx
$L190696:

; 645  : 				_Left(_Fixnodeparent) = _Fixnode;	// link fix down

  002cc	8b 45 e4	 mov	 eax, DWORD PTR __Fixnodeparent$[ebp]
  002cf	50		 push	 eax
  002d0	e8 00 00 00 00	 call	 ?_Left@?$_Tree@V?$_Tmap_traits@HUMYLIST_COLUMN_INFO@@U?$less@H@std@@V?$allocator@U?$pair@$$CBHUMYLIST_COLUMN_INFO@@@std@@@3@$0A@@std@@@std@@KAAAPAU_Node@?$_Tree_nod@V?$_Tmap_traits@HUMYLIST_COLUMN_INFO@@U?$less@H@std@@V?$allocator@U?$pair@$$CBHUMYLIST_COLUMN_INFO@@@std@@@3@$0A@@std@@@2@PAU342@@Z ; std::_Tree<std::_Tmap_traits<int,MYLIST_COLUMN_INFO,std::less<int>,std::allocator<std::pair<int const ,MYLIST_COLUMN_INFO> >,0> >::_Left
  002d5	83 c4 04	 add	 esp, 4
  002d8	8b 4d e8	 mov	 ecx, DWORD PTR __Fixnode$[ebp]
  002db	89 08		 mov	 DWORD PTR [eax], ecx

; 646  : 				_Right(_Pnode) = _Right(_Erasednode);	// link successor down

  002dd	8b 55 ec	 mov	 edx, DWORD PTR __Erasednode$[ebp]
  002e0	52		 push	 edx
  002e1	e8 00 00 00 00	 call	 ?_Right@?$_Tree@V?$_Tmap_traits@HUMYLIST_COLUMN_INFO@@U?$less@H@std@@V?$allocator@U?$pair@$$CBHUMYLIST_COLUMN_INFO@@@std@@@3@$0A@@std@@@std@@KAAAPAU_Node@?$_Tree_nod@V?$_Tmap_traits@HUMYLIST_COLUMN_INFO@@U?$less@H@std@@V?$allocator@U?$pair@$$CBHUMYLIST_COLUMN_INFO@@@std@@@3@$0A@@std@@@2@PAU342@@Z ; std::_Tree<std::_Tmap_traits<int,MYLIST_COLUMN_INFO,std::less<int>,std::allocator<std::pair<int const ,MYLIST_COLUMN_INFO> >,0> >::_Right
  002e6	83 c4 04	 add	 esp, 4
  002e9	8b f0		 mov	 esi, eax
  002eb	8b 45 e0	 mov	 eax, DWORD PTR __Pnode$[ebp]
  002ee	50		 push	 eax
  002ef	e8 00 00 00 00	 call	 ?_Right@?$_Tree@V?$_Tmap_traits@HUMYLIST_COLUMN_INFO@@U?$less@H@std@@V?$allocator@U?$pair@$$CBHUMYLIST_COLUMN_INFO@@@std@@@3@$0A@@std@@@std@@KAAAPAU_Node@?$_Tree_nod@V?$_Tmap_traits@HUMYLIST_COLUMN_INFO@@U?$less@H@std@@V?$allocator@U?$pair@$$CBHUMYLIST_COLUMN_INFO@@@std@@@3@$0A@@std@@@2@PAU342@@Z ; std::_Tree<std::_Tmap_traits<int,MYLIST_COLUMN_INFO,std::less<int>,std::allocator<std::pair<int const ,MYLIST_COLUMN_INFO> >,0> >::_Right
  002f4	83 c4 04	 add	 esp, 4
  002f7	8b 0e		 mov	 ecx, DWORD PTR [esi]
  002f9	89 08		 mov	 DWORD PTR [eax], ecx

; 647  : 				_Parent(_Right(_Erasednode)) = _Pnode;	// link right up

  002fb	8b 55 ec	 mov	 edx, DWORD PTR __Erasednode$[ebp]
  002fe	52		 push	 edx
  002ff	e8 00 00 00 00	 call	 ?_Right@?$_Tree@V?$_Tmap_traits@HUMYLIST_COLUMN_INFO@@U?$less@H@std@@V?$allocator@U?$pair@$$CBHUMYLIST_COLUMN_INFO@@@std@@@3@$0A@@std@@@std@@KAAAPAU_Node@?$_Tree_nod@V?$_Tmap_traits@HUMYLIST_COLUMN_INFO@@U?$less@H@std@@V?$allocator@U?$pair@$$CBHUMYLIST_COLUMN_INFO@@@std@@@3@$0A@@std@@@2@PAU342@@Z ; std::_Tree<std::_Tmap_traits<int,MYLIST_COLUMN_INFO,std::less<int>,std::allocator<std::pair<int const ,MYLIST_COLUMN_INFO> >,0> >::_Right
  00304	83 c4 04	 add	 esp, 4
  00307	8b 00		 mov	 eax, DWORD PTR [eax]
  00309	50		 push	 eax
  0030a	e8 00 00 00 00	 call	 ?_Parent@?$_Tree@V?$_Tmap_traits@HUMYLIST_COLUMN_INFO@@U?$less@H@std@@V?$allocator@U?$pair@$$CBHUMYLIST_COLUMN_INFO@@@std@@@3@$0A@@std@@@std@@KAAAPAU_Node@?$_Tree_nod@V?$_Tmap_traits@HUMYLIST_COLUMN_INFO@@U?$less@H@std@@V?$allocator@U?$pair@$$CBHUMYLIST_COLUMN_INFO@@@std@@@3@$0A@@std@@@2@PAU342@@Z ; std::_Tree<std::_Tmap_traits<int,MYLIST_COLUMN_INFO,std::less<int>,std::allocator<std::pair<int const ,MYLIST_COLUMN_INFO> >,0> >::_Parent
  0030f	83 c4 04	 add	 esp, 4
  00312	8b 4d e0	 mov	 ecx, DWORD PTR __Pnode$[ebp]
  00315	89 08		 mov	 DWORD PTR [eax], ecx
$L190695:

; 648  : 				}
; 649  : 
; 650  : 			if (_Root() == _Erasednode)

  00317	8b 4d f0	 mov	 ecx, DWORD PTR _this$[ebp]
  0031a	e8 00 00 00 00	 call	 ?_Root@?$_Tree@V?$_Tmap_traits@HUMYLIST_COLUMN_INFO@@U?$less@H@std@@V?$allocator@U?$pair@$$CBHUMYLIST_COLUMN_INFO@@@std@@@3@$0A@@std@@@std@@IAEAAPAU_Node@?$_Tree_nod@V?$_Tmap_traits@HUMYLIST_COLUMN_INFO@@U?$less@H@std@@V?$allocator@U?$pair@$$CBHUMYLIST_COLUMN_INFO@@@std@@@3@$0A@@std@@@2@XZ ; std::_Tree<std::_Tmap_traits<int,MYLIST_COLUMN_INFO,std::less<int>,std::allocator<std::pair<int const ,MYLIST_COLUMN_INFO> >,0> >::_Root
  0031f	8b 10		 mov	 edx, DWORD PTR [eax]
  00321	3b 55 ec	 cmp	 edx, DWORD PTR __Erasednode$[ebp]
  00324	75 0f		 jne	 SHORT $L190697

; 651  : 				_Root() = _Pnode;	// link down from root

  00326	8b 4d f0	 mov	 ecx, DWORD PTR _this$[ebp]
  00329	e8 00 00 00 00	 call	 ?_Root@?$_Tree@V?$_Tmap_traits@HUMYLIST_COLUMN_INFO@@U?$less@H@std@@V?$allocator@U?$pair@$$CBHUMYLIST_COLUMN_INFO@@@std@@@3@$0A@@std@@@std@@IAEAAPAU_Node@?$_Tree_nod@V?$_Tmap_traits@HUMYLIST_COLUMN_INFO@@U?$less@H@std@@V?$allocator@U?$pair@$$CBHUMYLIST_COLUMN_INFO@@@std@@@3@$0A@@std@@@2@XZ ; std::_Tree<std::_Tmap_traits<int,MYLIST_COLUMN_INFO,std::less<int>,std::allocator<std::pair<int const ,MYLIST_COLUMN_INFO> >,0> >::_Root
  0032e	8b 4d e0	 mov	 ecx, DWORD PTR __Pnode$[ebp]
  00331	89 08		 mov	 DWORD PTR [eax], ecx

; 652  : 			else if (_Left(_Parent(_Erasednode)) == _Erasednode)

  00333	eb 58		 jmp	 SHORT $L190698
$L190697:
  00335	8b 55 ec	 mov	 edx, DWORD PTR __Erasednode$[ebp]
  00338	52		 push	 edx
  00339	e8 00 00 00 00	 call	 ?_Parent@?$_Tree@V?$_Tmap_traits@HUMYLIST_COLUMN_INFO@@U?$less@H@std@@V?$allocator@U?$pair@$$CBHUMYLIST_COLUMN_INFO@@@std@@@3@$0A@@std@@@std@@KAAAPAU_Node@?$_Tree_nod@V?$_Tmap_traits@HUMYLIST_COLUMN_INFO@@U?$less@H@std@@V?$allocator@U?$pair@$$CBHUMYLIST_COLUMN_INFO@@@std@@@3@$0A@@std@@@2@PAU342@@Z ; std::_Tree<std::_Tmap_traits<int,MYLIST_COLUMN_INFO,std::less<int>,std::allocator<std::pair<int const ,MYLIST_COLUMN_INFO> >,0> >::_Parent
  0033e	83 c4 04	 add	 esp, 4
  00341	8b 00		 mov	 eax, DWORD PTR [eax]
  00343	50		 push	 eax
  00344	e8 00 00 00 00	 call	 ?_Left@?$_Tree@V?$_Tmap_traits@HUMYLIST_COLUMN_INFO@@U?$less@H@std@@V?$allocator@U?$pair@$$CBHUMYLIST_COLUMN_INFO@@@std@@@3@$0A@@std@@@std@@KAAAPAU_Node@?$_Tree_nod@V?$_Tmap_traits@HUMYLIST_COLUMN_INFO@@U?$less@H@std@@V?$allocator@U?$pair@$$CBHUMYLIST_COLUMN_INFO@@@std@@@3@$0A@@std@@@2@PAU342@@Z ; std::_Tree<std::_Tmap_traits<int,MYLIST_COLUMN_INFO,std::less<int>,std::allocator<std::pair<int const ,MYLIST_COLUMN_INFO> >,0> >::_Left
  00349	83 c4 04	 add	 esp, 4
  0034c	8b 08		 mov	 ecx, DWORD PTR [eax]
  0034e	3b 4d ec	 cmp	 ecx, DWORD PTR __Erasednode$[ebp]
  00351	75 1e		 jne	 SHORT $L190699

; 653  : 				_Left(_Parent(_Erasednode)) = _Pnode;	// link down to left

  00353	8b 55 ec	 mov	 edx, DWORD PTR __Erasednode$[ebp]
  00356	52		 push	 edx
  00357	e8 00 00 00 00	 call	 ?_Parent@?$_Tree@V?$_Tmap_traits@HUMYLIST_COLUMN_INFO@@U?$less@H@std@@V?$allocator@U?$pair@$$CBHUMYLIST_COLUMN_INFO@@@std@@@3@$0A@@std@@@std@@KAAAPAU_Node@?$_Tree_nod@V?$_Tmap_traits@HUMYLIST_COLUMN_INFO@@U?$less@H@std@@V?$allocator@U?$pair@$$CBHUMYLIST_COLUMN_INFO@@@std@@@3@$0A@@std@@@2@PAU342@@Z ; std::_Tree<std::_Tmap_traits<int,MYLIST_COLUMN_INFO,std::less<int>,std::allocator<std::pair<int const ,MYLIST_COLUMN_INFO> >,0> >::_Parent
  0035c	83 c4 04	 add	 esp, 4
  0035f	8b 00		 mov	 eax, DWORD PTR [eax]
  00361	50		 push	 eax
  00362	e8 00 00 00 00	 call	 ?_Left@?$_Tree@V?$_Tmap_traits@HUMYLIST_COLUMN_INFO@@U?$less@H@std@@V?$allocator@U?$pair@$$CBHUMYLIST_COLUMN_INFO@@@std@@@3@$0A@@std@@@std@@KAAAPAU_Node@?$_Tree_nod@V?$_Tmap_traits@HUMYLIST_COLUMN_INFO@@U?$less@H@std@@V?$allocator@U?$pair@$$CBHUMYLIST_COLUMN_INFO@@@std@@@3@$0A@@std@@@2@PAU342@@Z ; std::_Tree<std::_Tmap_traits<int,MYLIST_COLUMN_INFO,std::less<int>,std::allocator<std::pair<int const ,MYLIST_COLUMN_INFO> >,0> >::_Left
  00367	83 c4 04	 add	 esp, 4
  0036a	8b 4d e0	 mov	 ecx, DWORD PTR __Pnode$[ebp]
  0036d	89 08		 mov	 DWORD PTR [eax], ecx

; 654  : 			else

  0036f	eb 1c		 jmp	 SHORT $L190698
$L190699:

; 655  : 				_Right(_Parent(_Erasednode)) = _Pnode;	// link down to right

  00371	8b 55 ec	 mov	 edx, DWORD PTR __Erasednode$[ebp]
  00374	52		 push	 edx
  00375	e8 00 00 00 00	 call	 ?_Parent@?$_Tree@V?$_Tmap_traits@HUMYLIST_COLUMN_INFO@@U?$less@H@std@@V?$allocator@U?$pair@$$CBHUMYLIST_COLUMN_INFO@@@std@@@3@$0A@@std@@@std@@KAAAPAU_Node@?$_Tree_nod@V?$_Tmap_traits@HUMYLIST_COLUMN_INFO@@U?$less@H@std@@V?$allocator@U?$pair@$$CBHUMYLIST_COLUMN_INFO@@@std@@@3@$0A@@std@@@2@PAU342@@Z ; std::_Tree<std::_Tmap_traits<int,MYLIST_COLUMN_INFO,std::less<int>,std::allocator<std::pair<int const ,MYLIST_COLUMN_INFO> >,0> >::_Parent
  0037a	83 c4 04	 add	 esp, 4
  0037d	8b 00		 mov	 eax, DWORD PTR [eax]
  0037f	50		 push	 eax
  00380	e8 00 00 00 00	 call	 ?_Right@?$_Tree@V?$_Tmap_traits@HUMYLIST_COLUMN_INFO@@U?$less@H@std@@V?$allocator@U?$pair@$$CBHUMYLIST_COLUMN_INFO@@@std@@@3@$0A@@std@@@std@@KAAAPAU_Node@?$_Tree_nod@V?$_Tmap_traits@HUMYLIST_COLUMN_INFO@@U?$less@H@std@@V?$allocator@U?$pair@$$CBHUMYLIST_COLUMN_INFO@@@std@@@3@$0A@@std@@@2@PAU342@@Z ; std::_Tree<std::_Tmap_traits<int,MYLIST_COLUMN_INFO,std::less<int>,std::allocator<std::pair<int const ,MYLIST_COLUMN_INFO> >,0> >::_Right
  00385	83 c4 04	 add	 esp, 4
  00388	8b 4d e0	 mov	 ecx, DWORD PTR __Pnode$[ebp]
  0038b	89 08		 mov	 DWORD PTR [eax], ecx
$L190698:

; 656  : 
; 657  : 			_Parent(_Pnode) = _Parent(_Erasednode);	// link successor up

  0038d	8b 55 ec	 mov	 edx, DWORD PTR __Erasednode$[ebp]
  00390	52		 push	 edx
  00391	e8 00 00 00 00	 call	 ?_Parent@?$_Tree@V?$_Tmap_traits@HUMYLIST_COLUMN_INFO@@U?$less@H@std@@V?$allocator@U?$pair@$$CBHUMYLIST_COLUMN_INFO@@@std@@@3@$0A@@std@@@std@@KAAAPAU_Node@?$_Tree_nod@V?$_Tmap_traits@HUMYLIST_COLUMN_INFO@@U?$less@H@std@@V?$allocator@U?$pair@$$CBHUMYLIST_COLUMN_INFO@@@std@@@3@$0A@@std@@@2@PAU342@@Z ; std::_Tree<std::_Tmap_traits<int,MYLIST_COLUMN_INFO,std::less<int>,std::allocator<std::pair<int const ,MYLIST_COLUMN_INFO> >,0> >::_Parent
  00396	83 c4 04	 add	 esp, 4
  00399	8b f0		 mov	 esi, eax
  0039b	8b 45 e0	 mov	 eax, DWORD PTR __Pnode$[ebp]
  0039e	50		 push	 eax
  0039f	e8 00 00 00 00	 call	 ?_Parent@?$_Tree@V?$_Tmap_traits@HUMYLIST_COLUMN_INFO@@U?$less@H@std@@V?$allocator@U?$pair@$$CBHUMYLIST_COLUMN_INFO@@@std@@@3@$0A@@std@@@std@@KAAAPAU_Node@?$_Tree_nod@V?$_Tmap_traits@HUMYLIST_COLUMN_INFO@@U?$less@H@std@@V?$allocator@U?$pair@$$CBHUMYLIST_COLUMN_INFO@@@std@@@3@$0A@@std@@@2@PAU342@@Z ; std::_Tree<std::_Tmap_traits<int,MYLIST_COLUMN_INFO,std::less<int>,std::allocator<std::pair<int const ,MYLIST_COLUMN_INFO> >,0> >::_Parent
  003a4	83 c4 04	 add	 esp, 4
  003a7	8b 0e		 mov	 ecx, DWORD PTR [esi]
  003a9	89 08		 mov	 DWORD PTR [eax], ecx

; 658  : 			std::swap(_Color(_Pnode), _Color(_Erasednode));	// recolor it

  003ab	8b 55 ec	 mov	 edx, DWORD PTR __Erasednode$[ebp]
  003ae	52		 push	 edx
  003af	e8 00 00 00 00	 call	 ?_Color@?$_Tree@V?$_Tmap_traits@HUMYLIST_COLUMN_INFO@@U?$less@H@std@@V?$allocator@U?$pair@$$CBHUMYLIST_COLUMN_INFO@@@std@@@3@$0A@@std@@@std@@KAAADPAU_Node@?$_Tree_nod@V?$_Tmap_traits@HUMYLIST_COLUMN_INFO@@U?$less@H@std@@V?$allocator@U?$pair@$$CBHUMYLIST_COLUMN_INFO@@@std@@@3@$0A@@std@@@2@@Z ; std::_Tree<std::_Tmap_traits<int,MYLIST_COLUMN_INFO,std::less<int>,std::allocator<std::pair<int const ,MYLIST_COLUMN_INFO> >,0> >::_Color
  003b4	83 c4 04	 add	 esp, 4
  003b7	50		 push	 eax
  003b8	8b 45 e0	 mov	 eax, DWORD PTR __Pnode$[ebp]
  003bb	50		 push	 eax
  003bc	e8 00 00 00 00	 call	 ?_Color@?$_Tree@V?$_Tmap_traits@HUMYLIST_COLUMN_INFO@@U?$less@H@std@@V?$allocator@U?$pair@$$CBHUMYLIST_COLUMN_INFO@@@std@@@3@$0A@@std@@@std@@KAAADPAU_Node@?$_Tree_nod@V?$_Tmap_traits@HUMYLIST_COLUMN_INFO@@U?$less@H@std@@V?$allocator@U?$pair@$$CBHUMYLIST_COLUMN_INFO@@@std@@@3@$0A@@std@@@2@@Z ; std::_Tree<std::_Tmap_traits<int,MYLIST_COLUMN_INFO,std::less<int>,std::allocator<std::pair<int const ,MYLIST_COLUMN_INFO> >,0> >::_Color
  003c1	83 c4 04	 add	 esp, 4
  003c4	50		 push	 eax
  003c5	e8 00 00 00 00	 call	 ??$swap@D@std@@YAXAAD0@Z ; std::swap<char>
  003ca	83 c4 08	 add	 esp, 8
$L190693:

; 659  : 			}
; 660  : 
; 661  : 		if (_Color(_Erasednode) == _Black)

  003cd	8b 4d ec	 mov	 ecx, DWORD PTR __Erasednode$[ebp]
  003d0	51		 push	 ecx
  003d1	e8 00 00 00 00	 call	 ?_Color@?$_Tree@V?$_Tmap_traits@HUMYLIST_COLUMN_INFO@@U?$less@H@std@@V?$allocator@U?$pair@$$CBHUMYLIST_COLUMN_INFO@@@std@@@3@$0A@@std@@@std@@KAAADPAU_Node@?$_Tree_nod@V?$_Tmap_traits@HUMYLIST_COLUMN_INFO@@U?$less@H@std@@V?$allocator@U?$pair@$$CBHUMYLIST_COLUMN_INFO@@@std@@@3@$0A@@std@@@2@@Z ; std::_Tree<std::_Tmap_traits<int,MYLIST_COLUMN_INFO,std::less<int>,std::allocator<std::pair<int const ,MYLIST_COLUMN_INFO> >,0> >::_Color
  003d6	83 c4 04	 add	 esp, 4
  003d9	0f be 10	 movsx	 edx, BYTE PTR [eax]
  003dc	83 fa 01	 cmp	 edx, 1
  003df	0f 85 8f 03 00
	00		 jne	 $L190701

; 662  : 			{	// erasing black link, must recolor/rebalance tree
; 663  : 			for (; _Fixnode != _Root() && _Color(_Fixnode) == _Black;
; 664  : 				_Fixnodeparent = _Parent(_Fixnode))

  003e5	eb 11		 jmp	 SHORT $L190702
$L190703:
  003e7	8b 45 e8	 mov	 eax, DWORD PTR __Fixnode$[ebp]
  003ea	50		 push	 eax
  003eb	e8 00 00 00 00	 call	 ?_Parent@?$_Tree@V?$_Tmap_traits@HUMYLIST_COLUMN_INFO@@U?$less@H@std@@V?$allocator@U?$pair@$$CBHUMYLIST_COLUMN_INFO@@@std@@@3@$0A@@std@@@std@@KAAAPAU_Node@?$_Tree_nod@V?$_Tmap_traits@HUMYLIST_COLUMN_INFO@@U?$less@H@std@@V?$allocator@U?$pair@$$CBHUMYLIST_COLUMN_INFO@@@std@@@3@$0A@@std@@@2@PAU342@@Z ; std::_Tree<std::_Tmap_traits<int,MYLIST_COLUMN_INFO,std::less<int>,std::allocator<std::pair<int const ,MYLIST_COLUMN_INFO> >,0> >::_Parent
  003f0	83 c4 04	 add	 esp, 4
  003f3	8b 08		 mov	 ecx, DWORD PTR [eax]
  003f5	89 4d e4	 mov	 DWORD PTR __Fixnodeparent$[ebp], ecx
$L190702:
  003f8	8b 4d f0	 mov	 ecx, DWORD PTR _this$[ebp]
  003fb	e8 00 00 00 00	 call	 ?_Root@?$_Tree@V?$_Tmap_traits@HUMYLIST_COLUMN_INFO@@U?$less@H@std@@V?$allocator@U?$pair@$$CBHUMYLIST_COLUMN_INFO@@@std@@@3@$0A@@std@@@std@@IAEAAPAU_Node@?$_Tree_nod@V?$_Tmap_traits@HUMYLIST_COLUMN_INFO@@U?$less@H@std@@V?$allocator@U?$pair@$$CBHUMYLIST_COLUMN_INFO@@@std@@@3@$0A@@std@@@2@XZ ; std::_Tree<std::_Tmap_traits<int,MYLIST_COLUMN_INFO,std::less<int>,std::allocator<std::pair<int const ,MYLIST_COLUMN_INFO> >,0> >::_Root
  00400	8b 55 e8	 mov	 edx, DWORD PTR __Fixnode$[ebp]
  00403	3b 10		 cmp	 edx, DWORD PTR [eax]
  00405	0f 84 5a 03 00
	00		 je	 $L190704
  0040b	8b 45 e8	 mov	 eax, DWORD PTR __Fixnode$[ebp]
  0040e	50		 push	 eax
  0040f	e8 00 00 00 00	 call	 ?_Color@?$_Tree@V?$_Tmap_traits@HUMYLIST_COLUMN_INFO@@U?$less@H@std@@V?$allocator@U?$pair@$$CBHUMYLIST_COLUMN_INFO@@@std@@@3@$0A@@std@@@std@@KAAADPAU_Node@?$_Tree_nod@V?$_Tmap_traits@HUMYLIST_COLUMN_INFO@@U?$less@H@std@@V?$allocator@U?$pair@$$CBHUMYLIST_COLUMN_INFO@@@std@@@3@$0A@@std@@@2@@Z ; std::_Tree<std::_Tmap_traits<int,MYLIST_COLUMN_INFO,std::less<int>,std::allocator<std::pair<int const ,MYLIST_COLUMN_INFO> >,0> >::_Color
  00414	83 c4 04	 add	 esp, 4
  00417	0f be 08	 movsx	 ecx, BYTE PTR [eax]
  0041a	83 f9 01	 cmp	 ecx, 1
  0041d	0f 85 42 03 00
	00		 jne	 $L190704

; 665  : 				if (_Fixnode == _Left(_Fixnodeparent))

  00423	8b 55 e4	 mov	 edx, DWORD PTR __Fixnodeparent$[ebp]
  00426	52		 push	 edx
  00427	e8 00 00 00 00	 call	 ?_Left@?$_Tree@V?$_Tmap_traits@HUMYLIST_COLUMN_INFO@@U?$less@H@std@@V?$allocator@U?$pair@$$CBHUMYLIST_COLUMN_INFO@@@std@@@3@$0A@@std@@@std@@KAAAPAU_Node@?$_Tree_nod@V?$_Tmap_traits@HUMYLIST_COLUMN_INFO@@U?$less@H@std@@V?$allocator@U?$pair@$$CBHUMYLIST_COLUMN_INFO@@@std@@@3@$0A@@std@@@2@PAU342@@Z ; std::_Tree<std::_Tmap_traits<int,MYLIST_COLUMN_INFO,std::less<int>,std::allocator<std::pair<int const ,MYLIST_COLUMN_INFO> >,0> >::_Left
  0042c	83 c4 04	 add	 esp, 4
  0042f	8b 4d e8	 mov	 ecx, DWORD PTR __Fixnode$[ebp]
  00432	3b 08		 cmp	 ecx, DWORD PTR [eax]
  00434	0f 85 97 01 00
	00		 jne	 $L190705

; 666  : 					{	// fixup left subtree
; 667  : 					_Pnode = _Right(_Fixnodeparent);

  0043a	8b 55 e4	 mov	 edx, DWORD PTR __Fixnodeparent$[ebp]
  0043d	52		 push	 edx
  0043e	e8 00 00 00 00	 call	 ?_Right@?$_Tree@V?$_Tmap_traits@HUMYLIST_COLUMN_INFO@@U?$less@H@std@@V?$allocator@U?$pair@$$CBHUMYLIST_COLUMN_INFO@@@std@@@3@$0A@@std@@@std@@KAAAPAU_Node@?$_Tree_nod@V?$_Tmap_traits@HUMYLIST_COLUMN_INFO@@U?$less@H@std@@V?$allocator@U?$pair@$$CBHUMYLIST_COLUMN_INFO@@@std@@@3@$0A@@std@@@2@PAU342@@Z ; std::_Tree<std::_Tmap_traits<int,MYLIST_COLUMN_INFO,std::less<int>,std::allocator<std::pair<int const ,MYLIST_COLUMN_INFO> >,0> >::_Right
  00443	83 c4 04	 add	 esp, 4
  00446	8b 00		 mov	 eax, DWORD PTR [eax]
  00448	89 45 e0	 mov	 DWORD PTR __Pnode$[ebp], eax

; 668  : 					if (_Color(_Pnode) == _Red)

  0044b	8b 4d e0	 mov	 ecx, DWORD PTR __Pnode$[ebp]
  0044e	51		 push	 ecx
  0044f	e8 00 00 00 00	 call	 ?_Color@?$_Tree@V?$_Tmap_traits@HUMYLIST_COLUMN_INFO@@U?$less@H@std@@V?$allocator@U?$pair@$$CBHUMYLIST_COLUMN_INFO@@@std@@@3@$0A@@std@@@std@@KAAADPAU_Node@?$_Tree_nod@V?$_Tmap_traits@HUMYLIST_COLUMN_INFO@@U?$less@H@std@@V?$allocator@U?$pair@$$CBHUMYLIST_COLUMN_INFO@@@std@@@3@$0A@@std@@@2@@Z ; std::_Tree<std::_Tmap_traits<int,MYLIST_COLUMN_INFO,std::less<int>,std::allocator<std::pair<int const ,MYLIST_COLUMN_INFO> >,0> >::_Color
  00454	83 c4 04	 add	 esp, 4
  00457	0f be 10	 movsx	 edx, BYTE PTR [eax]
  0045a	85 d2		 test	 edx, edx
  0045c	75 3b		 jne	 SHORT $L190706

; 669  : 						{	// rotate red up from right subtree
; 670  : 						_Color(_Pnode) = _Black;

  0045e	8b 45 e0	 mov	 eax, DWORD PTR __Pnode$[ebp]
  00461	50		 push	 eax
  00462	e8 00 00 00 00	 call	 ?_Color@?$_Tree@V?$_Tmap_traits@HUMYLIST_COLUMN_INFO@@U?$less@H@std@@V?$allocator@U?$pair@$$CBHUMYLIST_COLUMN_INFO@@@std@@@3@$0A@@std@@@std@@KAAADPAU_Node@?$_Tree_nod@V?$_Tmap_traits@HUMYLIST_COLUMN_INFO@@U?$less@H@std@@V?$allocator@U?$pair@$$CBHUMYLIST_COLUMN_INFO@@@std@@@3@$0A@@std@@@2@@Z ; std::_Tree<std::_Tmap_traits<int,MYLIST_COLUMN_INFO,std::less<int>,std::allocator<std::pair<int const ,MYLIST_COLUMN_INFO> >,0> >::_Color
  00467	83 c4 04	 add	 esp, 4
  0046a	c6 00 01	 mov	 BYTE PTR [eax], 1

; 671  : 						_Color(_Fixnodeparent) = _Red;

  0046d	8b 4d e4	 mov	 ecx, DWORD PTR __Fixnodeparent$[ebp]
  00470	51		 push	 ecx
  00471	e8 00 00 00 00	 call	 ?_Color@?$_Tree@V?$_Tmap_traits@HUMYLIST_COLUMN_INFO@@U?$less@H@std@@V?$allocator@U?$pair@$$CBHUMYLIST_COLUMN_INFO@@@std@@@3@$0A@@std@@@std@@KAAADPAU_Node@?$_Tree_nod@V?$_Tmap_traits@HUMYLIST_COLUMN_INFO@@U?$less@H@std@@V?$allocator@U?$pair@$$CBHUMYLIST_COLUMN_INFO@@@std@@@3@$0A@@std@@@2@@Z ; std::_Tree<std::_Tmap_traits<int,MYLIST_COLUMN_INFO,std::less<int>,std::allocator<std::pair<int const ,MYLIST_COLUMN_INFO> >,0> >::_Color
  00476	83 c4 04	 add	 esp, 4
  00479	c6 00 00	 mov	 BYTE PTR [eax], 0

; 672  : 						_Lrotate(_Fixnodeparent);

  0047c	8b 55 e4	 mov	 edx, DWORD PTR __Fixnodeparent$[ebp]
  0047f	52		 push	 edx
  00480	8b 4d f0	 mov	 ecx, DWORD PTR _this$[ebp]
  00483	e8 00 00 00 00	 call	 ?_Lrotate@?$_Tree@V?$_Tmap_traits@HUMYLIST_COLUMN_INFO@@U?$less@H@std@@V?$allocator@U?$pair@$$CBHUMYLIST_COLUMN_INFO@@@std@@@3@$0A@@std@@@std@@IAEXPAU_Node@?$_Tree_nod@V?$_Tmap_traits@HUMYLIST_COLUMN_INFO@@U?$less@H@std@@V?$allocator@U?$pair@$$CBHUMYLIST_COLUMN_INFO@@@std@@@3@$0A@@std@@@2@@Z ; std::_Tree<std::_Tmap_traits<int,MYLIST_COLUMN_INFO,std::less<int>,std::allocator<std::pair<int const ,MYLIST_COLUMN_INFO> >,0> >::_Lrotate

; 673  : 						_Pnode = _Right(_Fixnodeparent);

  00488	8b 45 e4	 mov	 eax, DWORD PTR __Fixnodeparent$[ebp]
  0048b	50		 push	 eax
  0048c	e8 00 00 00 00	 call	 ?_Right@?$_Tree@V?$_Tmap_traits@HUMYLIST_COLUMN_INFO@@U?$less@H@std@@V?$allocator@U?$pair@$$CBHUMYLIST_COLUMN_INFO@@@std@@@3@$0A@@std@@@std@@KAAAPAU_Node@?$_Tree_nod@V?$_Tmap_traits@HUMYLIST_COLUMN_INFO@@U?$less@H@std@@V?$allocator@U?$pair@$$CBHUMYLIST_COLUMN_INFO@@@std@@@3@$0A@@std@@@2@PAU342@@Z ; std::_Tree<std::_Tmap_traits<int,MYLIST_COLUMN_INFO,std::less<int>,std::allocator<std::pair<int const ,MYLIST_COLUMN_INFO> >,0> >::_Right
  00491	83 c4 04	 add	 esp, 4
  00494	8b 08		 mov	 ecx, DWORD PTR [eax]
  00496	89 4d e0	 mov	 DWORD PTR __Pnode$[ebp], ecx
$L190706:

; 674  : 						}
; 675  : 
; 676  : 					if (_Isnil(_Pnode))

  00499	8b 55 e0	 mov	 edx, DWORD PTR __Pnode$[ebp]
  0049c	52		 push	 edx
  0049d	e8 00 00 00 00	 call	 ?_Isnil@?$_Tree@V?$_Tmap_traits@HUMYLIST_COLUMN_INFO@@U?$less@H@std@@V?$allocator@U?$pair@$$CBHUMYLIST_COLUMN_INFO@@@std@@@3@$0A@@std@@@std@@KAAADPAU_Node@?$_Tree_nod@V?$_Tmap_traits@HUMYLIST_COLUMN_INFO@@U?$less@H@std@@V?$allocator@U?$pair@$$CBHUMYLIST_COLUMN_INFO@@@std@@@3@$0A@@std@@@2@@Z ; std::_Tree<std::_Tmap_traits<int,MYLIST_COLUMN_INFO,std::less<int>,std::allocator<std::pair<int const ,MYLIST_COLUMN_INFO> >,0> >::_Isnil
  004a2	83 c4 04	 add	 esp, 4
  004a5	0f be 00	 movsx	 eax, BYTE PTR [eax]
  004a8	85 c0		 test	 eax, eax
  004aa	74 0b		 je	 SHORT $L190707

; 677  : 						_Fixnode = _Fixnodeparent;	// shouldn't happen

  004ac	8b 4d e4	 mov	 ecx, DWORD PTR __Fixnodeparent$[ebp]
  004af	89 4d e8	 mov	 DWORD PTR __Fixnode$[ebp], ecx

; 678  : 					else if (_Color(_Left(_Pnode)) == _Black

  004b2	e9 15 01 00 00	 jmp	 $L190708
$L190707:

; 679  : 						&& _Color(_Right(_Pnode)) == _Black)

  004b7	8b 55 e0	 mov	 edx, DWORD PTR __Pnode$[ebp]
  004ba	52		 push	 edx
  004bb	e8 00 00 00 00	 call	 ?_Left@?$_Tree@V?$_Tmap_traits@HUMYLIST_COLUMN_INFO@@U?$less@H@std@@V?$allocator@U?$pair@$$CBHUMYLIST_COLUMN_INFO@@@std@@@3@$0A@@std@@@std@@KAAAPAU_Node@?$_Tree_nod@V?$_Tmap_traits@HUMYLIST_COLUMN_INFO@@U?$less@H@std@@V?$allocator@U?$pair@$$CBHUMYLIST_COLUMN_INFO@@@std@@@3@$0A@@std@@@2@PAU342@@Z ; std::_Tree<std::_Tmap_traits<int,MYLIST_COLUMN_INFO,std::less<int>,std::allocator<std::pair<int const ,MYLIST_COLUMN_INFO> >,0> >::_Left
  004c0	83 c4 04	 add	 esp, 4
  004c3	8b 00		 mov	 eax, DWORD PTR [eax]
  004c5	50		 push	 eax
  004c6	e8 00 00 00 00	 call	 ?_Color@?$_Tree@V?$_Tmap_traits@HUMYLIST_COLUMN_INFO@@U?$less@H@std@@V?$allocator@U?$pair@$$CBHUMYLIST_COLUMN_INFO@@@std@@@3@$0A@@std@@@std@@KAAADPAU_Node@?$_Tree_nod@V?$_Tmap_traits@HUMYLIST_COLUMN_INFO@@U?$less@H@std@@V?$allocator@U?$pair@$$CBHUMYLIST_COLUMN_INFO@@@std@@@3@$0A@@std@@@2@@Z ; std::_Tree<std::_Tmap_traits<int,MYLIST_COLUMN_INFO,std::less<int>,std::allocator<std::pair<int const ,MYLIST_COLUMN_INFO> >,0> >::_Color
  004cb	83 c4 04	 add	 esp, 4
  004ce	0f be 08	 movsx	 ecx, BYTE PTR [eax]
  004d1	83 f9 01	 cmp	 ecx, 1
  004d4	75 39		 jne	 SHORT $L190709
  004d6	8b 55 e0	 mov	 edx, DWORD PTR __Pnode$[ebp]
  004d9	52		 push	 edx
  004da	e8 00 00 00 00	 call	 ?_Right@?$_Tree@V?$_Tmap_traits@HUMYLIST_COLUMN_INFO@@U?$less@H@std@@V?$allocator@U?$pair@$$CBHUMYLIST_COLUMN_INFO@@@std@@@3@$0A@@std@@@std@@KAAAPAU_Node@?$_Tree_nod@V?$_Tmap_traits@HUMYLIST_COLUMN_INFO@@U?$less@H@std@@V?$allocator@U?$pair@$$CBHUMYLIST_COLUMN_INFO@@@std@@@3@$0A@@std@@@2@PAU342@@Z ; std::_Tree<std::_Tmap_traits<int,MYLIST_COLUMN_INFO,std::less<int>,std::allocator<std::pair<int const ,MYLIST_COLUMN_INFO> >,0> >::_Right
  004df	83 c4 04	 add	 esp, 4
  004e2	8b 00		 mov	 eax, DWORD PTR [eax]
  004e4	50		 push	 eax
  004e5	e8 00 00 00 00	 call	 ?_Color@?$_Tree@V?$_Tmap_traits@HUMYLIST_COLUMN_INFO@@U?$less@H@std@@V?$allocator@U?$pair@$$CBHUMYLIST_COLUMN_INFO@@@std@@@3@$0A@@std@@@std@@KAAADPAU_Node@?$_Tree_nod@V?$_Tmap_traits@HUMYLIST_COLUMN_INFO@@U?$less@H@std@@V?$allocator@U?$pair@$$CBHUMYLIST_COLUMN_INFO@@@std@@@3@$0A@@std@@@2@@Z ; std::_Tree<std::_Tmap_traits<int,MYLIST_COLUMN_INFO,std::less<int>,std::allocator<std::pair<int const ,MYLIST_COLUMN_INFO> >,0> >::_Color
  004ea	83 c4 04	 add	 esp, 4
  004ed	0f be 08	 movsx	 ecx, BYTE PTR [eax]
  004f0	83 f9 01	 cmp	 ecx, 1
  004f3	75 1a		 jne	 SHORT $L190709

; 680  : 						{	// redden right subtree with black children
; 681  : 						_Color(_Pnode) = _Red;

  004f5	8b 55 e0	 mov	 edx, DWORD PTR __Pnode$[ebp]
  004f8	52		 push	 edx
  004f9	e8 00 00 00 00	 call	 ?_Color@?$_Tree@V?$_Tmap_traits@HUMYLIST_COLUMN_INFO@@U?$less@H@std@@V?$allocator@U?$pair@$$CBHUMYLIST_COLUMN_INFO@@@std@@@3@$0A@@std@@@std@@KAAADPAU_Node@?$_Tree_nod@V?$_Tmap_traits@HUMYLIST_COLUMN_INFO@@U?$less@H@std@@V?$allocator@U?$pair@$$CBHUMYLIST_COLUMN_INFO@@@std@@@3@$0A@@std@@@2@@Z ; std::_Tree<std::_Tmap_traits<int,MYLIST_COLUMN_INFO,std::less<int>,std::allocator<std::pair<int const ,MYLIST_COLUMN_INFO> >,0> >::_Color
  004fe	83 c4 04	 add	 esp, 4
  00501	c6 00 00	 mov	 BYTE PTR [eax], 0

; 682  : 						_Fixnode = _Fixnodeparent;

  00504	8b 45 e4	 mov	 eax, DWORD PTR __Fixnodeparent$[ebp]
  00507	89 45 e8	 mov	 DWORD PTR __Fixnode$[ebp], eax

; 683  : 						}
; 684  : 					else

  0050a	e9 bd 00 00 00	 jmp	 $L190708
$L190709:

; 685  : 						{	// must rearrange right subtree
; 686  : 						if (_Color(_Right(_Pnode)) == _Black)

  0050f	8b 4d e0	 mov	 ecx, DWORD PTR __Pnode$[ebp]
  00512	51		 push	 ecx
  00513	e8 00 00 00 00	 call	 ?_Right@?$_Tree@V?$_Tmap_traits@HUMYLIST_COLUMN_INFO@@U?$less@H@std@@V?$allocator@U?$pair@$$CBHUMYLIST_COLUMN_INFO@@@std@@@3@$0A@@std@@@std@@KAAAPAU_Node@?$_Tree_nod@V?$_Tmap_traits@HUMYLIST_COLUMN_INFO@@U?$less@H@std@@V?$allocator@U?$pair@$$CBHUMYLIST_COLUMN_INFO@@@std@@@3@$0A@@std@@@2@PAU342@@Z ; std::_Tree<std::_Tmap_traits<int,MYLIST_COLUMN_INFO,std::less<int>,std::allocator<std::pair<int const ,MYLIST_COLUMN_INFO> >,0> >::_Right
  00518	83 c4 04	 add	 esp, 4
  0051b	8b 10		 mov	 edx, DWORD PTR [eax]
  0051d	52		 push	 edx
  0051e	e8 00 00 00 00	 call	 ?_Color@?$_Tree@V?$_Tmap_traits@HUMYLIST_COLUMN_INFO@@U?$less@H@std@@V?$allocator@U?$pair@$$CBHUMYLIST_COLUMN_INFO@@@std@@@3@$0A@@std@@@std@@KAAADPAU_Node@?$_Tree_nod@V?$_Tmap_traits@HUMYLIST_COLUMN_INFO@@U?$less@H@std@@V?$allocator@U?$pair@$$CBHUMYLIST_COLUMN_INFO@@@std@@@3@$0A@@std@@@2@@Z ; std::_Tree<std::_Tmap_traits<int,MYLIST_COLUMN_INFO,std::less<int>,std::allocator<std::pair<int const ,MYLIST_COLUMN_INFO> >,0> >::_Color
  00523	83 c4 04	 add	 esp, 4
  00526	0f be 00	 movsx	 eax, BYTE PTR [eax]
  00529	83 f8 01	 cmp	 eax, 1
  0052c	75 46		 jne	 SHORT $L190711

; 687  : 							{	// rotate red up from left sub-subtree
; 688  : 							_Color(_Left(_Pnode)) = _Black;

  0052e	8b 4d e0	 mov	 ecx, DWORD PTR __Pnode$[ebp]
  00531	51		 push	 ecx
  00532	e8 00 00 00 00	 call	 ?_Left@?$_Tree@V?$_Tmap_traits@HUMYLIST_COLUMN_INFO@@U?$less@H@std@@V?$allocator@U?$pair@$$CBHUMYLIST_COLUMN_INFO@@@std@@@3@$0A@@std@@@std@@KAAAPAU_Node@?$_Tree_nod@V?$_Tmap_traits@HUMYLIST_COLUMN_INFO@@U?$less@H@std@@V?$allocator@U?$pair@$$CBHUMYLIST_COLUMN_INFO@@@std@@@3@$0A@@std@@@2@PAU342@@Z ; std::_Tree<std::_Tmap_traits<int,MYLIST_COLUMN_INFO,std::less<int>,std::allocator<std::pair<int const ,MYLIST_COLUMN_INFO> >,0> >::_Left
  00537	83 c4 04	 add	 esp, 4
  0053a	8b 10		 mov	 edx, DWORD PTR [eax]
  0053c	52		 push	 edx
  0053d	e8 00 00 00 00	 call	 ?_Color@?$_Tree@V?$_Tmap_traits@HUMYLIST_COLUMN_INFO@@U?$less@H@std@@V?$allocator@U?$pair@$$CBHUMYLIST_COLUMN_INFO@@@std@@@3@$0A@@std@@@std@@KAAADPAU_Node@?$_Tree_nod@V?$_Tmap_traits@HUMYLIST_COLUMN_INFO@@U?$less@H@std@@V?$allocator@U?$pair@$$CBHUMYLIST_COLUMN_INFO@@@std@@@3@$0A@@std@@@2@@Z ; std::_Tree<std::_Tmap_traits<int,MYLIST_COLUMN_INFO,std::less<int>,std::allocator<std::pair<int const ,MYLIST_COLUMN_INFO> >,0> >::_Color
  00542	83 c4 04	 add	 esp, 4
  00545	c6 00 01	 mov	 BYTE PTR [eax], 1

; 689  : 							_Color(_Pnode) = _Red;

  00548	8b 45 e0	 mov	 eax, DWORD PTR __Pnode$[ebp]
  0054b	50		 push	 eax
  0054c	e8 00 00 00 00	 call	 ?_Color@?$_Tree@V?$_Tmap_traits@HUMYLIST_COLUMN_INFO@@U?$less@H@std@@V?$allocator@U?$pair@$$CBHUMYLIST_COLUMN_INFO@@@std@@@3@$0A@@std@@@std@@KAAADPAU_Node@?$_Tree_nod@V?$_Tmap_traits@HUMYLIST_COLUMN_INFO@@U?$less@H@std@@V?$allocator@U?$pair@$$CBHUMYLIST_COLUMN_INFO@@@std@@@3@$0A@@std@@@2@@Z ; std::_Tree<std::_Tmap_traits<int,MYLIST_COLUMN_INFO,std::less<int>,std::allocator<std::pair<int const ,MYLIST_COLUMN_INFO> >,0> >::_Color
  00551	83 c4 04	 add	 esp, 4
  00554	c6 00 00	 mov	 BYTE PTR [eax], 0

; 690  : 							_Rrotate(_Pnode);

  00557	8b 4d e0	 mov	 ecx, DWORD PTR __Pnode$[ebp]
  0055a	51		 push	 ecx
  0055b	8b 4d f0	 mov	 ecx, DWORD PTR _this$[ebp]
  0055e	e8 00 00 00 00	 call	 ?_Rrotate@?$_Tree@V?$_Tmap_traits@HUMYLIST_COLUMN_INFO@@U?$less@H@std@@V?$allocator@U?$pair@$$CBHUMYLIST_COLUMN_INFO@@@std@@@3@$0A@@std@@@std@@IAEXPAU_Node@?$_Tree_nod@V?$_Tmap_traits@HUMYLIST_COLUMN_INFO@@U?$less@H@std@@V?$allocator@U?$pair@$$CBHUMYLIST_COLUMN_INFO@@@std@@@3@$0A@@std@@@2@@Z ; std::_Tree<std::_Tmap_traits<int,MYLIST_COLUMN_INFO,std::less<int>,std::allocator<std::pair<int const ,MYLIST_COLUMN_INFO> >,0> >::_Rrotate

; 691  : 							_Pnode = _Right(_Fixnodeparent);

  00563	8b 55 e4	 mov	 edx, DWORD PTR __Fixnodeparent$[ebp]
  00566	52		 push	 edx
  00567	e8 00 00 00 00	 call	 ?_Right@?$_Tree@V?$_Tmap_traits@HUMYLIST_COLUMN_INFO@@U?$less@H@std@@V?$allocator@U?$pair@$$CBHUMYLIST_COLUMN_INFO@@@std@@@3@$0A@@std@@@std@@KAAAPAU_Node@?$_Tree_nod@V?$_Tmap_traits@HUMYLIST_COLUMN_INFO@@U?$less@H@std@@V?$allocator@U?$pair@$$CBHUMYLIST_COLUMN_INFO@@@std@@@3@$0A@@std@@@2@PAU342@@Z ; std::_Tree<std::_Tmap_traits<int,MYLIST_COLUMN_INFO,std::less<int>,std::allocator<std::pair<int const ,MYLIST_COLUMN_INFO> >,0> >::_Right
  0056c	83 c4 04	 add	 esp, 4
  0056f	8b 00		 mov	 eax, DWORD PTR [eax]
  00571	89 45 e0	 mov	 DWORD PTR __Pnode$[ebp], eax
$L190711:

; 692  : 							}
; 693  : 
; 694  : 						_Color(_Pnode) = _Color(_Fixnodeparent);

  00574	8b 4d e4	 mov	 ecx, DWORD PTR __Fixnodeparent$[ebp]
  00577	51		 push	 ecx
  00578	e8 00 00 00 00	 call	 ?_Color@?$_Tree@V?$_Tmap_traits@HUMYLIST_COLUMN_INFO@@U?$less@H@std@@V?$allocator@U?$pair@$$CBHUMYLIST_COLUMN_INFO@@@std@@@3@$0A@@std@@@std@@KAAADPAU_Node@?$_Tree_nod@V?$_Tmap_traits@HUMYLIST_COLUMN_INFO@@U?$less@H@std@@V?$allocator@U?$pair@$$CBHUMYLIST_COLUMN_INFO@@@std@@@3@$0A@@std@@@2@@Z ; std::_Tree<std::_Tmap_traits<int,MYLIST_COLUMN_INFO,std::less<int>,std::allocator<std::pair<int const ,MYLIST_COLUMN_INFO> >,0> >::_Color
  0057d	83 c4 04	 add	 esp, 4
  00580	8b f0		 mov	 esi, eax
  00582	8b 55 e0	 mov	 edx, DWORD PTR __Pnode$[ebp]
  00585	52		 push	 edx
  00586	e8 00 00 00 00	 call	 ?_Color@?$_Tree@V?$_Tmap_traits@HUMYLIST_COLUMN_INFO@@U?$less@H@std@@V?$allocator@U?$pair@$$CBHUMYLIST_COLUMN_INFO@@@std@@@3@$0A@@std@@@std@@KAAADPAU_Node@?$_Tree_nod@V?$_Tmap_traits@HUMYLIST_COLUMN_INFO@@U?$less@H@std@@V?$allocator@U?$pair@$$CBHUMYLIST_COLUMN_INFO@@@std@@@3@$0A@@std@@@2@@Z ; std::_Tree<std::_Tmap_traits<int,MYLIST_COLUMN_INFO,std::less<int>,std::allocator<std::pair<int const ,MYLIST_COLUMN_INFO> >,0> >::_Color
  0058b	83 c4 04	 add	 esp, 4
  0058e	8a 0e		 mov	 cl, BYTE PTR [esi]
  00590	88 08		 mov	 BYTE PTR [eax], cl

; 695  : 						_Color(_Fixnodeparent) = _Black;

  00592	8b 55 e4	 mov	 edx, DWORD PTR __Fixnodeparent$[ebp]
  00595	52		 push	 edx
  00596	e8 00 00 00 00	 call	 ?_Color@?$_Tree@V?$_Tmap_traits@HUMYLIST_COLUMN_INFO@@U?$less@H@std@@V?$allocator@U?$pair@$$CBHUMYLIST_COLUMN_INFO@@@std@@@3@$0A@@std@@@std@@KAAADPAU_Node@?$_Tree_nod@V?$_Tmap_traits@HUMYLIST_COLUMN_INFO@@U?$less@H@std@@V?$allocator@U?$pair@$$CBHUMYLIST_COLUMN_INFO@@@std@@@3@$0A@@std@@@2@@Z ; std::_Tree<std::_Tmap_traits<int,MYLIST_COLUMN_INFO,std::less<int>,std::allocator<std::pair<int const ,MYLIST_COLUMN_INFO> >,0> >::_Color
  0059b	83 c4 04	 add	 esp, 4
  0059e	c6 00 01	 mov	 BYTE PTR [eax], 1

; 696  : 						_Color(_Right(_Pnode)) = _Black;

  005a1	8b 45 e0	 mov	 eax, DWORD PTR __Pnode$[ebp]
  005a4	50		 push	 eax
  005a5	e8 00 00 00 00	 call	 ?_Right@?$_Tree@V?$_Tmap_traits@HUMYLIST_COLUMN_INFO@@U?$less@H@std@@V?$allocator@U?$pair@$$CBHUMYLIST_COLUMN_INFO@@@std@@@3@$0A@@std@@@std@@KAAAPAU_Node@?$_Tree_nod@V?$_Tmap_traits@HUMYLIST_COLUMN_INFO@@U?$less@H@std@@V?$allocator@U?$pair@$$CBHUMYLIST_COLUMN_INFO@@@std@@@3@$0A@@std@@@2@PAU342@@Z ; std::_Tree<std::_Tmap_traits<int,MYLIST_COLUMN_INFO,std::less<int>,std::allocator<std::pair<int const ,MYLIST_COLUMN_INFO> >,0> >::_Right
  005aa	83 c4 04	 add	 esp, 4
  005ad	8b 08		 mov	 ecx, DWORD PTR [eax]
  005af	51		 push	 ecx
  005b0	e8 00 00 00 00	 call	 ?_Color@?$_Tree@V?$_Tmap_traits@HUMYLIST_COLUMN_INFO@@U?$less@H@std@@V?$allocator@U?$pair@$$CBHUMYLIST_COLUMN_INFO@@@std@@@3@$0A@@std@@@std@@KAAADPAU_Node@?$_Tree_nod@V?$_Tmap_traits@HUMYLIST_COLUMN_INFO@@U?$less@H@std@@V?$allocator@U?$pair@$$CBHUMYLIST_COLUMN_INFO@@@std@@@3@$0A@@std@@@2@@Z ; std::_Tree<std::_Tmap_traits<int,MYLIST_COLUMN_INFO,std::less<int>,std::allocator<std::pair<int const ,MYLIST_COLUMN_INFO> >,0> >::_Color
  005b5	83 c4 04	 add	 esp, 4
  005b8	c6 00 01	 mov	 BYTE PTR [eax], 1

; 697  : 						_Lrotate(_Fixnodeparent);

  005bb	8b 55 e4	 mov	 edx, DWORD PTR __Fixnodeparent$[ebp]
  005be	52		 push	 edx
  005bf	8b 4d f0	 mov	 ecx, DWORD PTR _this$[ebp]
  005c2	e8 00 00 00 00	 call	 ?_Lrotate@?$_Tree@V?$_Tmap_traits@HUMYLIST_COLUMN_INFO@@U?$less@H@std@@V?$allocator@U?$pair@$$CBHUMYLIST_COLUMN_INFO@@@std@@@3@$0A@@std@@@std@@IAEXPAU_Node@?$_Tree_nod@V?$_Tmap_traits@HUMYLIST_COLUMN_INFO@@U?$less@H@std@@V?$allocator@U?$pair@$$CBHUMYLIST_COLUMN_INFO@@@std@@@3@$0A@@std@@@2@@Z ; std::_Tree<std::_Tmap_traits<int,MYLIST_COLUMN_INFO,std::less<int>,std::allocator<std::pair<int const ,MYLIST_COLUMN_INFO> >,0> >::_Lrotate

; 698  : 						break;	// tree now recolored/rebalanced

  005c7	e9 99 01 00 00	 jmp	 $L190704
$L190708:

; 699  : 						}
; 700  : 					}
; 701  : 				else

  005cc	e9 8f 01 00 00	 jmp	 $L190712
$L190705:

; 702  : 					{	// fixup right subtree
; 703  : 					_Pnode = _Left(_Fixnodeparent);

  005d1	8b 45 e4	 mov	 eax, DWORD PTR __Fixnodeparent$[ebp]
  005d4	50		 push	 eax
  005d5	e8 00 00 00 00	 call	 ?_Left@?$_Tree@V?$_Tmap_traits@HUMYLIST_COLUMN_INFO@@U?$less@H@std@@V?$allocator@U?$pair@$$CBHUMYLIST_COLUMN_INFO@@@std@@@3@$0A@@std@@@std@@KAAAPAU_Node@?$_Tree_nod@V?$_Tmap_traits@HUMYLIST_COLUMN_INFO@@U?$less@H@std@@V?$allocator@U?$pair@$$CBHUMYLIST_COLUMN_INFO@@@std@@@3@$0A@@std@@@2@PAU342@@Z ; std::_Tree<std::_Tmap_traits<int,MYLIST_COLUMN_INFO,std::less<int>,std::allocator<std::pair<int const ,MYLIST_COLUMN_INFO> >,0> >::_Left
  005da	83 c4 04	 add	 esp, 4
  005dd	8b 08		 mov	 ecx, DWORD PTR [eax]
  005df	89 4d e0	 mov	 DWORD PTR __Pnode$[ebp], ecx

; 704  : 					if (_Color(_Pnode) == _Red)

  005e2	8b 55 e0	 mov	 edx, DWORD PTR __Pnode$[ebp]
  005e5	52		 push	 edx
  005e6	e8 00 00 00 00	 call	 ?_Color@?$_Tree@V?$_Tmap_traits@HUMYLIST_COLUMN_INFO@@U?$less@H@std@@V?$allocator@U?$pair@$$CBHUMYLIST_COLUMN_INFO@@@std@@@3@$0A@@std@@@std@@KAAADPAU_Node@?$_Tree_nod@V?$_Tmap_traits@HUMYLIST_COLUMN_INFO@@U?$less@H@std@@V?$allocator@U?$pair@$$CBHUMYLIST_COLUMN_INFO@@@std@@@3@$0A@@std@@@2@@Z ; std::_Tree<std::_Tmap_traits<int,MYLIST_COLUMN_INFO,std::less<int>,std::allocator<std::pair<int const ,MYLIST_COLUMN_INFO> >,0> >::_Color
  005eb	83 c4 04	 add	 esp, 4
  005ee	0f be 00	 movsx	 eax, BYTE PTR [eax]
  005f1	85 c0		 test	 eax, eax
  005f3	75 3b		 jne	 SHORT $L190713

; 705  : 						{	// rotate red up from left subtree
; 706  : 						_Color(_Pnode) = _Black;

  005f5	8b 4d e0	 mov	 ecx, DWORD PTR __Pnode$[ebp]
  005f8	51		 push	 ecx
  005f9	e8 00 00 00 00	 call	 ?_Color@?$_Tree@V?$_Tmap_traits@HUMYLIST_COLUMN_INFO@@U?$less@H@std@@V?$allocator@U?$pair@$$CBHUMYLIST_COLUMN_INFO@@@std@@@3@$0A@@std@@@std@@KAAADPAU_Node@?$_Tree_nod@V?$_Tmap_traits@HUMYLIST_COLUMN_INFO@@U?$less@H@std@@V?$allocator@U?$pair@$$CBHUMYLIST_COLUMN_INFO@@@std@@@3@$0A@@std@@@2@@Z ; std::_Tree<std::_Tmap_traits<int,MYLIST_COLUMN_INFO,std::less<int>,std::allocator<std::pair<int const ,MYLIST_COLUMN_INFO> >,0> >::_Color
  005fe	83 c4 04	 add	 esp, 4
  00601	c6 00 01	 mov	 BYTE PTR [eax], 1

; 707  : 						_Color(_Fixnodeparent) = _Red;

  00604	8b 55 e4	 mov	 edx, DWORD PTR __Fixnodeparent$[ebp]
  00607	52		 push	 edx
  00608	e8 00 00 00 00	 call	 ?_Color@?$_Tree@V?$_Tmap_traits@HUMYLIST_COLUMN_INFO@@U?$less@H@std@@V?$allocator@U?$pair@$$CBHUMYLIST_COLUMN_INFO@@@std@@@3@$0A@@std@@@std@@KAAADPAU_Node@?$_Tree_nod@V?$_Tmap_traits@HUMYLIST_COLUMN_INFO@@U?$less@H@std@@V?$allocator@U?$pair@$$CBHUMYLIST_COLUMN_INFO@@@std@@@3@$0A@@std@@@2@@Z ; std::_Tree<std::_Tmap_traits<int,MYLIST_COLUMN_INFO,std::less<int>,std::allocator<std::pair<int const ,MYLIST_COLUMN_INFO> >,0> >::_Color
  0060d	83 c4 04	 add	 esp, 4
  00610	c6 00 00	 mov	 BYTE PTR [eax], 0

; 708  : 						_Rrotate(_Fixnodeparent);

  00613	8b 45 e4	 mov	 eax, DWORD PTR __Fixnodeparent$[ebp]
  00616	50		 push	 eax
  00617	8b 4d f0	 mov	 ecx, DWORD PTR _this$[ebp]
  0061a	e8 00 00 00 00	 call	 ?_Rrotate@?$_Tree@V?$_Tmap_traits@HUMYLIST_COLUMN_INFO@@U?$less@H@std@@V?$allocator@U?$pair@$$CBHUMYLIST_COLUMN_INFO@@@std@@@3@$0A@@std@@@std@@IAEXPAU_Node@?$_Tree_nod@V?$_Tmap_traits@HUMYLIST_COLUMN_INFO@@U?$less@H@std@@V?$allocator@U?$pair@$$CBHUMYLIST_COLUMN_INFO@@@std@@@3@$0A@@std@@@2@@Z ; std::_Tree<std::_Tmap_traits<int,MYLIST_COLUMN_INFO,std::less<int>,std::allocator<std::pair<int const ,MYLIST_COLUMN_INFO> >,0> >::_Rrotate

; 709  : 						_Pnode = _Left(_Fixnodeparent);

  0061f	8b 4d e4	 mov	 ecx, DWORD PTR __Fixnodeparent$[ebp]
  00622	51		 push	 ecx
  00623	e8 00 00 00 00	 call	 ?_Left@?$_Tree@V?$_Tmap_traits@HUMYLIST_COLUMN_INFO@@U?$less@H@std@@V?$allocator@U?$pair@$$CBHUMYLIST_COLUMN_INFO@@@std@@@3@$0A@@std@@@std@@KAAAPAU_Node@?$_Tree_nod@V?$_Tmap_traits@HUMYLIST_COLUMN_INFO@@U?$less@H@std@@V?$allocator@U?$pair@$$CBHUMYLIST_COLUMN_INFO@@@std@@@3@$0A@@std@@@2@PAU342@@Z ; std::_Tree<std::_Tmap_traits<int,MYLIST_COLUMN_INFO,std::less<int>,std::allocator<std::pair<int const ,MYLIST_COLUMN_INFO> >,0> >::_Left
  00628	83 c4 04	 add	 esp, 4
  0062b	8b 10		 mov	 edx, DWORD PTR [eax]
  0062d	89 55 e0	 mov	 DWORD PTR __Pnode$[ebp], edx
$L190713:

; 710  : 						}
; 711  : 					if (_Isnil(_Pnode))

  00630	8b 45 e0	 mov	 eax, DWORD PTR __Pnode$[ebp]
  00633	50		 push	 eax
  00634	e8 00 00 00 00	 call	 ?_Isnil@?$_Tree@V?$_Tmap_traits@HUMYLIST_COLUMN_INFO@@U?$less@H@std@@V?$allocator@U?$pair@$$CBHUMYLIST_COLUMN_INFO@@@std@@@3@$0A@@std@@@std@@KAAADPAU_Node@?$_Tree_nod@V?$_Tmap_traits@HUMYLIST_COLUMN_INFO@@U?$less@H@std@@V?$allocator@U?$pair@$$CBHUMYLIST_COLUMN_INFO@@@std@@@3@$0A@@std@@@2@@Z ; std::_Tree<std::_Tmap_traits<int,MYLIST_COLUMN_INFO,std::less<int>,std::allocator<std::pair<int const ,MYLIST_COLUMN_INFO> >,0> >::_Isnil
  00639	83 c4 04	 add	 esp, 4
  0063c	0f be 08	 movsx	 ecx, BYTE PTR [eax]
  0063f	85 c9		 test	 ecx, ecx
  00641	74 0b		 je	 SHORT $L190714

; 712  : 						_Fixnode = _Fixnodeparent;	// shouldn't happen

  00643	8b 55 e4	 mov	 edx, DWORD PTR __Fixnodeparent$[ebp]
  00646	89 55 e8	 mov	 DWORD PTR __Fixnode$[ebp], edx

; 713  : 					else if (_Color(_Right(_Pnode)) == _Black

  00649	e9 12 01 00 00	 jmp	 $L190712
$L190714:

; 714  : 						&& _Color(_Left(_Pnode)) == _Black)

  0064e	8b 45 e0	 mov	 eax, DWORD PTR __Pnode$[ebp]
  00651	50		 push	 eax
  00652	e8 00 00 00 00	 call	 ?_Right@?$_Tree@V?$_Tmap_traits@HUMYLIST_COLUMN_INFO@@U?$less@H@std@@V?$allocator@U?$pair@$$CBHUMYLIST_COLUMN_INFO@@@std@@@3@$0A@@std@@@std@@KAAAPAU_Node@?$_Tree_nod@V?$_Tmap_traits@HUMYLIST_COLUMN_INFO@@U?$less@H@std@@V?$allocator@U?$pair@$$CBHUMYLIST_COLUMN_INFO@@@std@@@3@$0A@@std@@@2@PAU342@@Z ; std::_Tree<std::_Tmap_traits<int,MYLIST_COLUMN_INFO,std::less<int>,std::allocator<std::pair<int const ,MYLIST_COLUMN_INFO> >,0> >::_Right
  00657	83 c4 04	 add	 esp, 4
  0065a	8b 08		 mov	 ecx, DWORD PTR [eax]
  0065c	51		 push	 ecx
  0065d	e8 00 00 00 00	 call	 ?_Color@?$_Tree@V?$_Tmap_traits@HUMYLIST_COLUMN_INFO@@U?$less@H@std@@V?$allocator@U?$pair@$$CBHUMYLIST_COLUMN_INFO@@@std@@@3@$0A@@std@@@std@@KAAADPAU_Node@?$_Tree_nod@V?$_Tmap_traits@HUMYLIST_COLUMN_INFO@@U?$less@H@std@@V?$allocator@U?$pair@$$CBHUMYLIST_COLUMN_INFO@@@std@@@3@$0A@@std@@@2@@Z ; std::_Tree<std::_Tmap_traits<int,MYLIST_COLUMN_INFO,std::less<int>,std::allocator<std::pair<int const ,MYLIST_COLUMN_INFO> >,0> >::_Color
  00662	83 c4 04	 add	 esp, 4
  00665	0f be 10	 movsx	 edx, BYTE PTR [eax]
  00668	83 fa 01	 cmp	 edx, 1
  0066b	75 39		 jne	 SHORT $L190716
  0066d	8b 45 e0	 mov	 eax, DWORD PTR __Pnode$[ebp]
  00670	50		 push	 eax
  00671	e8 00 00 00 00	 call	 ?_Left@?$_Tree@V?$_Tmap_traits@HUMYLIST_COLUMN_INFO@@U?$less@H@std@@V?$allocator@U?$pair@$$CBHUMYLIST_COLUMN_INFO@@@std@@@3@$0A@@std@@@std@@KAAAPAU_Node@?$_Tree_nod@V?$_Tmap_traits@HUMYLIST_COLUMN_INFO@@U?$less@H@std@@V?$allocator@U?$pair@$$CBHUMYLIST_COLUMN_INFO@@@std@@@3@$0A@@std@@@2@PAU342@@Z ; std::_Tree<std::_Tmap_traits<int,MYLIST_COLUMN_INFO,std::less<int>,std::allocator<std::pair<int const ,MYLIST_COLUMN_INFO> >,0> >::_Left
  00676	83 c4 04	 add	 esp, 4
  00679	8b 08		 mov	 ecx, DWORD PTR [eax]
  0067b	51		 push	 ecx
  0067c	e8 00 00 00 00	 call	 ?_Color@?$_Tree@V?$_Tmap_traits@HUMYLIST_COLUMN_INFO@@U?$less@H@std@@V?$allocator@U?$pair@$$CBHUMYLIST_COLUMN_INFO@@@std@@@3@$0A@@std@@@std@@KAAADPAU_Node@?$_Tree_nod@V?$_Tmap_traits@HUMYLIST_COLUMN_INFO@@U?$less@H@std@@V?$allocator@U?$pair@$$CBHUMYLIST_COLUMN_INFO@@@std@@@3@$0A@@std@@@2@@Z ; std::_Tree<std::_Tmap_traits<int,MYLIST_COLUMN_INFO,std::less<int>,std::allocator<std::pair<int const ,MYLIST_COLUMN_INFO> >,0> >::_Color
  00681	83 c4 04	 add	 esp, 4
  00684	0f be 10	 movsx	 edx, BYTE PTR [eax]
  00687	83 fa 01	 cmp	 edx, 1
  0068a	75 1a		 jne	 SHORT $L190716

; 715  : 						{	// redden left subtree with black children
; 716  : 						_Color(_Pnode) = _Red;

  0068c	8b 45 e0	 mov	 eax, DWORD PTR __Pnode$[ebp]
  0068f	50		 push	 eax
  00690	e8 00 00 00 00	 call	 ?_Color@?$_Tree@V?$_Tmap_traits@HUMYLIST_COLUMN_INFO@@U?$less@H@std@@V?$allocator@U?$pair@$$CBHUMYLIST_COLUMN_INFO@@@std@@@3@$0A@@std@@@std@@KAAADPAU_Node@?$_Tree_nod@V?$_Tmap_traits@HUMYLIST_COLUMN_INFO@@U?$less@H@std@@V?$allocator@U?$pair@$$CBHUMYLIST_COLUMN_INFO@@@std@@@3@$0A@@std@@@2@@Z ; std::_Tree<std::_Tmap_traits<int,MYLIST_COLUMN_INFO,std::less<int>,std::allocator<std::pair<int const ,MYLIST_COLUMN_INFO> >,0> >::_Color
  00695	83 c4 04	 add	 esp, 4
  00698	c6 00 00	 mov	 BYTE PTR [eax], 0

; 717  : 						_Fixnode = _Fixnodeparent;

  0069b	8b 4d e4	 mov	 ecx, DWORD PTR __Fixnodeparent$[ebp]
  0069e	89 4d e8	 mov	 DWORD PTR __Fixnode$[ebp], ecx

; 718  : 						}
; 719  : 					else

  006a1	e9 ba 00 00 00	 jmp	 $L190712
$L190716:

; 720  : 						{	// must rearrange left subtree
; 721  : 						if (_Color(_Left(_Pnode)) == _Black)

  006a6	8b 55 e0	 mov	 edx, DWORD PTR __Pnode$[ebp]
  006a9	52		 push	 edx
  006aa	e8 00 00 00 00	 call	 ?_Left@?$_Tree@V?$_Tmap_traits@HUMYLIST_COLUMN_INFO@@U?$less@H@std@@V?$allocator@U?$pair@$$CBHUMYLIST_COLUMN_INFO@@@std@@@3@$0A@@std@@@std@@KAAAPAU_Node@?$_Tree_nod@V?$_Tmap_traits@HUMYLIST_COLUMN_INFO@@U?$less@H@std@@V?$allocator@U?$pair@$$CBHUMYLIST_COLUMN_INFO@@@std@@@3@$0A@@std@@@2@PAU342@@Z ; std::_Tree<std::_Tmap_traits<int,MYLIST_COLUMN_INFO,std::less<int>,std::allocator<std::pair<int const ,MYLIST_COLUMN_INFO> >,0> >::_Left
  006af	83 c4 04	 add	 esp, 4
  006b2	8b 00		 mov	 eax, DWORD PTR [eax]
  006b4	50		 push	 eax
  006b5	e8 00 00 00 00	 call	 ?_Color@?$_Tree@V?$_Tmap_traits@HUMYLIST_COLUMN_INFO@@U?$less@H@std@@V?$allocator@U?$pair@$$CBHUMYLIST_COLUMN_INFO@@@std@@@3@$0A@@std@@@std@@KAAADPAU_Node@?$_Tree_nod@V?$_Tmap_traits@HUMYLIST_COLUMN_INFO@@U?$less@H@std@@V?$allocator@U?$pair@$$CBHUMYLIST_COLUMN_INFO@@@std@@@3@$0A@@std@@@2@@Z ; std::_Tree<std::_Tmap_traits<int,MYLIST_COLUMN_INFO,std::less<int>,std::allocator<std::pair<int const ,MYLIST_COLUMN_INFO> >,0> >::_Color
  006ba	83 c4 04	 add	 esp, 4
  006bd	0f be 08	 movsx	 ecx, BYTE PTR [eax]
  006c0	83 f9 01	 cmp	 ecx, 1
  006c3	75 46		 jne	 SHORT $L190718

; 722  : 							{	// rotate red up from right sub-subtree
; 723  : 							_Color(_Right(_Pnode)) = _Black;

  006c5	8b 55 e0	 mov	 edx, DWORD PTR __Pnode$[ebp]
  006c8	52		 push	 edx
  006c9	e8 00 00 00 00	 call	 ?_Right@?$_Tree@V?$_Tmap_traits@HUMYLIST_COLUMN_INFO@@U?$less@H@std@@V?$allocator@U?$pair@$$CBHUMYLIST_COLUMN_INFO@@@std@@@3@$0A@@std@@@std@@KAAAPAU_Node@?$_Tree_nod@V?$_Tmap_traits@HUMYLIST_COLUMN_INFO@@U?$less@H@std@@V?$allocator@U?$pair@$$CBHUMYLIST_COLUMN_INFO@@@std@@@3@$0A@@std@@@2@PAU342@@Z ; std::_Tree<std::_Tmap_traits<int,MYLIST_COLUMN_INFO,std::less<int>,std::allocator<std::pair<int const ,MYLIST_COLUMN_INFO> >,0> >::_Right
  006ce	83 c4 04	 add	 esp, 4
  006d1	8b 00		 mov	 eax, DWORD PTR [eax]
  006d3	50		 push	 eax
  006d4	e8 00 00 00 00	 call	 ?_Color@?$_Tree@V?$_Tmap_traits@HUMYLIST_COLUMN_INFO@@U?$less@H@std@@V?$allocator@U?$pair@$$CBHUMYLIST_COLUMN_INFO@@@std@@@3@$0A@@std@@@std@@KAAADPAU_Node@?$_Tree_nod@V?$_Tmap_traits@HUMYLIST_COLUMN_INFO@@U?$less@H@std@@V?$allocator@U?$pair@$$CBHUMYLIST_COLUMN_INFO@@@std@@@3@$0A@@std@@@2@@Z ; std::_Tree<std::_Tmap_traits<int,MYLIST_COLUMN_INFO,std::less<int>,std::allocator<std::pair<int const ,MYLIST_COLUMN_INFO> >,0> >::_Color
  006d9	83 c4 04	 add	 esp, 4
  006dc	c6 00 01	 mov	 BYTE PTR [eax], 1

; 724  : 							_Color(_Pnode) = _Red;

  006df	8b 4d e0	 mov	 ecx, DWORD PTR __Pnode$[ebp]
  006e2	51		 push	 ecx
  006e3	e8 00 00 00 00	 call	 ?_Color@?$_Tree@V?$_Tmap_traits@HUMYLIST_COLUMN_INFO@@U?$less@H@std@@V?$allocator@U?$pair@$$CBHUMYLIST_COLUMN_INFO@@@std@@@3@$0A@@std@@@std@@KAAADPAU_Node@?$_Tree_nod@V?$_Tmap_traits@HUMYLIST_COLUMN_INFO@@U?$less@H@std@@V?$allocator@U?$pair@$$CBHUMYLIST_COLUMN_INFO@@@std@@@3@$0A@@std@@@2@@Z ; std::_Tree<std::_Tmap_traits<int,MYLIST_COLUMN_INFO,std::less<int>,std::allocator<std::pair<int const ,MYLIST_COLUMN_INFO> >,0> >::_Color
  006e8	83 c4 04	 add	 esp, 4
  006eb	c6 00 00	 mov	 BYTE PTR [eax], 0

; 725  : 							_Lrotate(_Pnode);

  006ee	8b 55 e0	 mov	 edx, DWORD PTR __Pnode$[ebp]
  006f1	52		 push	 edx
  006f2	8b 4d f0	 mov	 ecx, DWORD PTR _this$[ebp]
  006f5	e8 00 00 00 00	 call	 ?_Lrotate@?$_Tree@V?$_Tmap_traits@HUMYLIST_COLUMN_INFO@@U?$less@H@std@@V?$allocator@U?$pair@$$CBHUMYLIST_COLUMN_INFO@@@std@@@3@$0A@@std@@@std@@IAEXPAU_Node@?$_Tree_nod@V?$_Tmap_traits@HUMYLIST_COLUMN_INFO@@U?$less@H@std@@V?$allocator@U?$pair@$$CBHUMYLIST_COLUMN_INFO@@@std@@@3@$0A@@std@@@2@@Z ; std::_Tree<std::_Tmap_traits<int,MYLIST_COLUMN_INFO,std::less<int>,std::allocator<std::pair<int const ,MYLIST_COLUMN_INFO> >,0> >::_Lrotate

; 726  : 							_Pnode = _Left(_Fixnodeparent);

  006fa	8b 45 e4	 mov	 eax, DWORD PTR __Fixnodeparent$[ebp]
  006fd	50		 push	 eax
  006fe	e8 00 00 00 00	 call	 ?_Left@?$_Tree@V?$_Tmap_traits@HUMYLIST_COLUMN_INFO@@U?$less@H@std@@V?$allocator@U?$pair@$$CBHUMYLIST_COLUMN_INFO@@@std@@@3@$0A@@std@@@std@@KAAAPAU_Node@?$_Tree_nod@V?$_Tmap_traits@HUMYLIST_COLUMN_INFO@@U?$less@H@std@@V?$allocator@U?$pair@$$CBHUMYLIST_COLUMN_INFO@@@std@@@3@$0A@@std@@@2@PAU342@@Z ; std::_Tree<std::_Tmap_traits<int,MYLIST_COLUMN_INFO,std::less<int>,std::allocator<std::pair<int const ,MYLIST_COLUMN_INFO> >,0> >::_Left
  00703	83 c4 04	 add	 esp, 4
  00706	8b 08		 mov	 ecx, DWORD PTR [eax]
  00708	89 4d e0	 mov	 DWORD PTR __Pnode$[ebp], ecx
$L190718:

; 727  : 							}
; 728  : 
; 729  : 						_Color(_Pnode) = _Color(_Fixnodeparent);

  0070b	8b 55 e4	 mov	 edx, DWORD PTR __Fixnodeparent$[ebp]
  0070e	52		 push	 edx
  0070f	e8 00 00 00 00	 call	 ?_Color@?$_Tree@V?$_Tmap_traits@HUMYLIST_COLUMN_INFO@@U?$less@H@std@@V?$allocator@U?$pair@$$CBHUMYLIST_COLUMN_INFO@@@std@@@3@$0A@@std@@@std@@KAAADPAU_Node@?$_Tree_nod@V?$_Tmap_traits@HUMYLIST_COLUMN_INFO@@U?$less@H@std@@V?$allocator@U?$pair@$$CBHUMYLIST_COLUMN_INFO@@@std@@@3@$0A@@std@@@2@@Z ; std::_Tree<std::_Tmap_traits<int,MYLIST_COLUMN_INFO,std::less<int>,std::allocator<std::pair<int const ,MYLIST_COLUMN_INFO> >,0> >::_Color
  00714	83 c4 04	 add	 esp, 4
  00717	8b f0		 mov	 esi, eax
  00719	8b 45 e0	 mov	 eax, DWORD PTR __Pnode$[ebp]
  0071c	50		 push	 eax
  0071d	e8 00 00 00 00	 call	 ?_Color@?$_Tree@V?$_Tmap_traits@HUMYLIST_COLUMN_INFO@@U?$less@H@std@@V?$allocator@U?$pair@$$CBHUMYLIST_COLUMN_INFO@@@std@@@3@$0A@@std@@@std@@KAAADPAU_Node@?$_Tree_nod@V?$_Tmap_traits@HUMYLIST_COLUMN_INFO@@U?$less@H@std@@V?$allocator@U?$pair@$$CBHUMYLIST_COLUMN_INFO@@@std@@@3@$0A@@std@@@2@@Z ; std::_Tree<std::_Tmap_traits<int,MYLIST_COLUMN_INFO,std::less<int>,std::allocator<std::pair<int const ,MYLIST_COLUMN_INFO> >,0> >::_Color
  00722	83 c4 04	 add	 esp, 4
  00725	8a 0e		 mov	 cl, BYTE PTR [esi]
  00727	88 08		 mov	 BYTE PTR [eax], cl

; 730  : 						_Color(_Fixnodeparent) = _Black;

  00729	8b 55 e4	 mov	 edx, DWORD PTR __Fixnodeparent$[ebp]
  0072c	52		 push	 edx
  0072d	e8 00 00 00 00	 call	 ?_Color@?$_Tree@V?$_Tmap_traits@HUMYLIST_COLUMN_INFO@@U?$less@H@std@@V?$allocator@U?$pair@$$CBHUMYLIST_COLUMN_INFO@@@std@@@3@$0A@@std@@@std@@KAAADPAU_Node@?$_Tree_nod@V?$_Tmap_traits@HUMYLIST_COLUMN_INFO@@U?$less@H@std@@V?$allocator@U?$pair@$$CBHUMYLIST_COLUMN_INFO@@@std@@@3@$0A@@std@@@2@@Z ; std::_Tree<std::_Tmap_traits<int,MYLIST_COLUMN_INFO,std::less<int>,std::allocator<std::pair<int const ,MYLIST_COLUMN_INFO> >,0> >::_Color
  00732	83 c4 04	 add	 esp, 4
  00735	c6 00 01	 mov	 BYTE PTR [eax], 1

; 731  : 						_Color(_Left(_Pnode)) = _Black;

  00738	8b 45 e0	 mov	 eax, DWORD PTR __Pnode$[ebp]
  0073b	50		 push	 eax
  0073c	e8 00 00 00 00	 call	 ?_Left@?$_Tree@V?$_Tmap_traits@HUMYLIST_COLUMN_INFO@@U?$less@H@std@@V?$allocator@U?$pair@$$CBHUMYLIST_COLUMN_INFO@@@std@@@3@$0A@@std@@@std@@KAAAPAU_Node@?$_Tree_nod@V?$_Tmap_traits@HUMYLIST_COLUMN_INFO@@U?$less@H@std@@V?$allocator@U?$pair@$$CBHUMYLIST_COLUMN_INFO@@@std@@@3@$0A@@std@@@2@PAU342@@Z ; std::_Tree<std::_Tmap_traits<int,MYLIST_COLUMN_INFO,std::less<int>,std::allocator<std::pair<int const ,MYLIST_COLUMN_INFO> >,0> >::_Left
  00741	83 c4 04	 add	 esp, 4
  00744	8b 08		 mov	 ecx, DWORD PTR [eax]
  00746	51		 push	 ecx
  00747	e8 00 00 00 00	 call	 ?_Color@?$_Tree@V?$_Tmap_traits@HUMYLIST_COLUMN_INFO@@U?$less@H@std@@V?$allocator@U?$pair@$$CBHUMYLIST_COLUMN_INFO@@@std@@@3@$0A@@std@@@std@@KAAADPAU_Node@?$_Tree_nod@V?$_Tmap_traits@HUMYLIST_COLUMN_INFO@@U?$less@H@std@@V?$allocator@U?$pair@$$CBHUMYLIST_COLUMN_INFO@@@std@@@3@$0A@@std@@@2@@Z ; std::_Tree<std::_Tmap_traits<int,MYLIST_COLUMN_INFO,std::less<int>,std::allocator<std::pair<int const ,MYLIST_COLUMN_INFO> >,0> >::_Color
  0074c	83 c4 04	 add	 esp, 4
  0074f	c6 00 01	 mov	 BYTE PTR [eax], 1

; 732  : 						_Rrotate(_Fixnodeparent);

  00752	8b 55 e4	 mov	 edx, DWORD PTR __Fixnodeparent$[ebp]
  00755	52		 push	 edx
  00756	8b 4d f0	 mov	 ecx, DWORD PTR _this$[ebp]
  00759	e8 00 00 00 00	 call	 ?_Rrotate@?$_Tree@V?$_Tmap_traits@HUMYLIST_COLUMN_INFO@@U?$less@H@std@@V?$allocator@U?$pair@$$CBHUMYLIST_COLUMN_INFO@@@std@@@3@$0A@@std@@@std@@IAEXPAU_Node@?$_Tree_nod@V?$_Tmap_traits@HUMYLIST_COLUMN_INFO@@U?$less@H@std@@V?$allocator@U?$pair@$$CBHUMYLIST_COLUMN_INFO@@@std@@@3@$0A@@std@@@2@@Z ; std::_Tree<std::_Tmap_traits<int,MYLIST_COLUMN_INFO,std::less<int>,std::allocator<std::pair<int const ,MYLIST_COLUMN_INFO> >,0> >::_Rrotate

; 733  : 						break;	// tree now recolored/rebalanced

  0075e	eb 05		 jmp	 SHORT $L190704
$L190712:

; 734  : 						}
; 735  : 					}

  00760	e9 82 fc ff ff	 jmp	 $L190703
$L190704:

; 736  : 
; 737  : 			_Color(_Fixnode) = _Black;	// ensure stopping node is black

  00765	8b 45 e8	 mov	 eax, DWORD PTR __Fixnode$[ebp]
  00768	50		 push	 eax
  00769	e8 00 00 00 00	 call	 ?_Color@?$_Tree@V?$_Tmap_traits@HUMYLIST_COLUMN_INFO@@U?$less@H@std@@V?$allocator@U?$pair@$$CBHUMYLIST_COLUMN_INFO@@@std@@@3@$0A@@std@@@std@@KAAADPAU_Node@?$_Tree_nod@V?$_Tmap_traits@HUMYLIST_COLUMN_INFO@@U?$less@H@std@@V?$allocator@U?$pair@$$CBHUMYLIST_COLUMN_INFO@@@std@@@3@$0A@@std@@@2@@Z ; std::_Tree<std::_Tmap_traits<int,MYLIST_COLUMN_INFO,std::less<int>,std::allocator<std::pair<int const ,MYLIST_COLUMN_INFO> >,0> >::_Color
  0076e	83 c4 04	 add	 esp, 4
  00771	c6 00 01	 mov	 BYTE PTR [eax], 1
$L190701:

; 738  : 			}
; 739  : 
; 740  : 		this->_Alnod.destroy(_Erasednode);	// destroy, free erased node

  00774	8b 4d ec	 mov	 ecx, DWORD PTR __Erasednode$[ebp]
  00777	51		 push	 ecx
  00778	8b 4d f0	 mov	 ecx, DWORD PTR _this$[ebp]
  0077b	83 c1 01	 add	 ecx, 1
  0077e	e8 00 00 00 00	 call	 ?destroy@?$allocator@U_Node@?$_Tree_nod@V?$_Tmap_traits@HUMYLIST_COLUMN_INFO@@U?$less@H@std@@V?$allocator@U?$pair@$$CBHUMYLIST_COLUMN_INFO@@@std@@@3@$0A@@std@@@std@@@std@@QAEXPAU_Node@?$_Tree_nod@V?$_Tmap_traits@HUMYLIST_COLUMN_INFO@@U?$less@H@std@@V?$allocator@U?$pair@$$CBHUMYLIST_COLUMN_INFO@@@std@@@3@$0A@@std@@@2@@Z ; std::allocator<std::_Tree_nod<std::_Tmap_traits<int,MYLIST_COLUMN_INFO,std::less<int>,std::allocator<std::pair<int const ,MYLIST_COLUMN_INFO> >,0> >::_Node>::destroy

; 741  : 		this->_Alnod.deallocate(_Erasednode, 1);

  00783	6a 01		 push	 1
  00785	8b 55 ec	 mov	 edx, DWORD PTR __Erasednode$[ebp]
  00788	52		 push	 edx
  00789	8b 4d f0	 mov	 ecx, DWORD PTR _this$[ebp]
  0078c	83 c1 01	 add	 ecx, 1
  0078f	e8 00 00 00 00	 call	 ?deallocate@?$allocator@U_Node@?$_Tree_nod@V?$_Tmap_traits@HUMYLIST_COLUMN_INFO@@U?$less@H@std@@V?$allocator@U?$pair@$$CBHUMYLIST_COLUMN_INFO@@@std@@@3@$0A@@std@@@std@@@std@@QAEXPAU_Node@?$_Tree_nod@V?$_Tmap_traits@HUMYLIST_COLUMN_INFO@@U?$less@H@std@@V?$allocator@U?$pair@$$CBHUMYLIST_COLUMN_INFO@@@std@@@3@$0A@@std@@@2@I@Z ; std::allocator<std::_Tree_nod<std::_Tmap_traits<int,MYLIST_COLUMN_INFO,std::less<int>,std::allocator<std::pair<int const ,MYLIST_COLUMN_INFO> >,0> >::_Node>::deallocate

; 742  : 
; 743  : 		if (0 < _Mysize)

  00794	8b 45 f0	 mov	 eax, DWORD PTR _this$[ebp]
  00797	83 78 08 00	 cmp	 DWORD PTR [eax+8], 0
  0079b	76 0f		 jbe	 SHORT $L190719

; 744  : 			--_Mysize;

  0079d	8b 4d f0	 mov	 ecx, DWORD PTR _this$[ebp]
  007a0	8b 51 08	 mov	 edx, DWORD PTR [ecx+8]
  007a3	83 ea 01	 sub	 edx, 1
  007a6	8b 45 f0	 mov	 eax, DWORD PTR _this$[ebp]
  007a9	89 50 08	 mov	 DWORD PTR [eax+8], edx
$L190719:

; 745  : 
; 746  : 		return (_Where);	// return successor iterator

  007ac	8b 4d 08	 mov	 ecx, DWORD PTR ___$ReturnUdt$[ebp]
  007af	8b 55 0c	 mov	 edx, DWORD PTR __Where$[ebp]
  007b2	89 11		 mov	 DWORD PTR [ecx], edx
  007b4	8b 45 08	 mov	 eax, DWORD PTR ___$ReturnUdt$[ebp]
$L192146:

; 747  : 		}

  007b7	8b 4d f4	 mov	 ecx, DWORD PTR __$EHRec$[ebp]
  007ba	64 89 0d 00 00
	00 00		 mov	 DWORD PTR fs:__except_list, ecx
  007c1	5f		 pop	 edi
  007c2	5e		 pop	 esi
  007c3	83 c4 6c	 add	 esp, 108		; 0000006cH
  007c6	3b ec		 cmp	 ebp, esp
  007c8	e8 00 00 00 00	 call	 __RTC_CheckEsp
  007cd	8b e5		 mov	 esp, ebp
  007cf	5d		 pop	 ebp
  007d0	c2 08 00	 ret	 8
_TEXT	ENDS
;	COMDAT text$x
text$x	SEGMENT
$L192153:
  00000	8b f4		 mov	 esi, esp
  00002	8d 4d 9c	 lea	 ecx, DWORD PTR $T192148[ebp]
  00005	ff 15 00 00 00
	00		 call	 DWORD PTR __imp_??1?$basic_string@DU?$char_traits@D@std@@V?$allocator@D@2@@std@@QAE@XZ
  0000b	3b f4		 cmp	 esi, esp
  0000d	e9 00 00 00 00	 jmp	 __RTC_CheckEsp
__ehhandler$?erase@?$_Tree@V?$_Tmap_traits@HUMYLIST_COLUMN_INFO@@U?$less@H@std@@V?$allocator@U?$pair@$$CBHUMYLIST_COLUMN_INFO@@@std@@@3@$0A@@std@@@std@@QAE?AViterator@12@V312@@Z:
  00012	b8 00 00 00 00	 mov	 eax, OFFSET FLAT:$T192155
  00017	e9 00 00 00 00	 jmp	 ___CxxFrameHandler
text$x	ENDS
?erase@?$_Tree@V?$_Tmap_traits@HUMYLIST_COLUMN_INFO@@U?$less@H@std@@V?$allocator@U?$pair@$$CBHUMYLIST_COLUMN_INFO@@@std@@@3@$0A@@std@@@std@@QAE?AViterator@12@V312@@Z ENDP ; std::_Tree<std::_Tmap_traits<int,MYLIST_COLUMN_INFO,std::less<int>,std::allocator<std::pair<int const ,MYLIST_COLUMN_INFO> >,0> >::erase
; Function compile flags: /Odt /RTCsu
;	COMDAT ?_Lrotate@?$_Tree@V?$_Tmap_traits@HUMYLIST_COLUMN_INFO@@U?$less@H@std@@V?$allocator@U?$pair@$$CBHUMYLIST_COLUMN_INFO@@@std@@@3@$0A@@std@@@std@@IAEXPAU_Node@?$_Tree_nod@V?$_Tmap_traits@HUMYLIST_COLUMN_INFO@@U?$less@H@std@@V?$allocator@U?$pair@$$CBHUMYLIST_COLUMN_INFO@@@std@@@3@$0A@@std@@@2@@Z
_TEXT	SEGMENT
__Pnode$ = -8						; size = 4
_this$ = -4						; size = 4
__Wherenode$ = 8					; size = 4
?_Lrotate@?$_Tree@V?$_Tmap_traits@HUMYLIST_COLUMN_INFO@@U?$less@H@std@@V?$allocator@U?$pair@$$CBHUMYLIST_COLUMN_INFO@@@std@@@3@$0A@@std@@@std@@IAEXPAU_Node@?$_Tree_nod@V?$_Tmap_traits@HUMYLIST_COLUMN_INFO@@U?$less@H@std@@V?$allocator@U?$pair@$$CBHUMYLIST_COLUMN_INFO@@@std@@@3@$0A@@std@@@2@@Z PROC NEAR ; std::_Tree<std::_Tmap_traits<int,MYLIST_COLUMN_INFO,std::less<int>,std::allocator<std::pair<int const ,MYLIST_COLUMN_INFO> >,0> >::_Lrotate, COMDAT
; _this$ = ecx

; 1014 : 		{	// promote right node to root of subtree

  00000	55		 push	 ebp
  00001	8b ec		 mov	 ebp, esp
  00003	83 ec 08	 sub	 esp, 8
  00006	56		 push	 esi
  00007	c7 45 f8 cc cc
	cc cc		 mov	 DWORD PTR [ebp-8], -858993460 ; ccccccccH
  0000e	c7 45 fc cc cc
	cc cc		 mov	 DWORD PTR [ebp-4], -858993460 ; ccccccccH
  00015	89 4d fc	 mov	 DWORD PTR _this$[ebp], ecx

; 1015 : 		_Nodeptr _Pnode = _Right(_Wherenode);

  00018	8b 45 08	 mov	 eax, DWORD PTR __Wherenode$[ebp]
  0001b	50		 push	 eax
  0001c	e8 00 00 00 00	 call	 ?_Right@?$_Tree@V?$_Tmap_traits@HUMYLIST_COLUMN_INFO@@U?$less@H@std@@V?$allocator@U?$pair@$$CBHUMYLIST_COLUMN_INFO@@@std@@@3@$0A@@std@@@std@@KAAAPAU_Node@?$_Tree_nod@V?$_Tmap_traits@HUMYLIST_COLUMN_INFO@@U?$less@H@std@@V?$allocator@U?$pair@$$CBHUMYLIST_COLUMN_INFO@@@std@@@3@$0A@@std@@@2@PAU342@@Z ; std::_Tree<std::_Tmap_traits<int,MYLIST_COLUMN_INFO,std::less<int>,std::allocator<std::pair<int const ,MYLIST_COLUMN_INFO> >,0> >::_Right
  00021	83 c4 04	 add	 esp, 4
  00024	8b 08		 mov	 ecx, DWORD PTR [eax]
  00026	89 4d f8	 mov	 DWORD PTR __Pnode$[ebp], ecx

; 1016 : 		_Right(_Wherenode) = _Left(_Pnode);

  00029	8b 55 f8	 mov	 edx, DWORD PTR __Pnode$[ebp]
  0002c	52		 push	 edx
  0002d	e8 00 00 00 00	 call	 ?_Left@?$_Tree@V?$_Tmap_traits@HUMYLIST_COLUMN_INFO@@U?$less@H@std@@V?$allocator@U?$pair@$$CBHUMYLIST_COLUMN_INFO@@@std@@@3@$0A@@std@@@std@@KAAAPAU_Node@?$_Tree_nod@V?$_Tmap_traits@HUMYLIST_COLUMN_INFO@@U?$less@H@std@@V?$allocator@U?$pair@$$CBHUMYLIST_COLUMN_INFO@@@std@@@3@$0A@@std@@@2@PAU342@@Z ; std::_Tree<std::_Tmap_traits<int,MYLIST_COLUMN_INFO,std::less<int>,std::allocator<std::pair<int const ,MYLIST_COLUMN_INFO> >,0> >::_Left
  00032	83 c4 04	 add	 esp, 4
  00035	8b f0		 mov	 esi, eax
  00037	8b 45 08	 mov	 eax, DWORD PTR __Wherenode$[ebp]
  0003a	50		 push	 eax
  0003b	e8 00 00 00 00	 call	 ?_Right@?$_Tree@V?$_Tmap_traits@HUMYLIST_COLUMN_INFO@@U?$less@H@std@@V?$allocator@U?$pair@$$CBHUMYLIST_COLUMN_INFO@@@std@@@3@$0A@@std@@@std@@KAAAPAU_Node@?$_Tree_nod@V?$_Tmap_traits@HUMYLIST_COLUMN_INFO@@U?$less@H@std@@V?$allocator@U?$pair@$$CBHUMYLIST_COLUMN_INFO@@@std@@@3@$0A@@std@@@2@PAU342@@Z ; std::_Tree<std::_Tmap_traits<int,MYLIST_COLUMN_INFO,std::less<int>,std::allocator<std::pair<int const ,MYLIST_COLUMN_INFO> >,0> >::_Right
  00040	83 c4 04	 add	 esp, 4
  00043	8b 0e		 mov	 ecx, DWORD PTR [esi]
  00045	89 08		 mov	 DWORD PTR [eax], ecx

; 1017 : 
; 1018 : 		if (!_Isnil(_Left(_Pnode)))

  00047	8b 55 f8	 mov	 edx, DWORD PTR __Pnode$[ebp]
  0004a	52		 push	 edx
  0004b	e8 00 00 00 00	 call	 ?_Left@?$_Tree@V?$_Tmap_traits@HUMYLIST_COLUMN_INFO@@U?$less@H@std@@V?$allocator@U?$pair@$$CBHUMYLIST_COLUMN_INFO@@@std@@@3@$0A@@std@@@std@@KAAAPAU_Node@?$_Tree_nod@V?$_Tmap_traits@HUMYLIST_COLUMN_INFO@@U?$less@H@std@@V?$allocator@U?$pair@$$CBHUMYLIST_COLUMN_INFO@@@std@@@3@$0A@@std@@@2@PAU342@@Z ; std::_Tree<std::_Tmap_traits<int,MYLIST_COLUMN_INFO,std::less<int>,std::allocator<std::pair<int const ,MYLIST_COLUMN_INFO> >,0> >::_Left
  00050	83 c4 04	 add	 esp, 4
  00053	8b 00		 mov	 eax, DWORD PTR [eax]
  00055	50		 push	 eax
  00056	e8 00 00 00 00	 call	 ?_Isnil@?$_Tree@V?$_Tmap_traits@HUMYLIST_COLUMN_INFO@@U?$less@H@std@@V?$allocator@U?$pair@$$CBHUMYLIST_COLUMN_INFO@@@std@@@3@$0A@@std@@@std@@KAAADPAU_Node@?$_Tree_nod@V?$_Tmap_traits@HUMYLIST_COLUMN_INFO@@U?$less@H@std@@V?$allocator@U?$pair@$$CBHUMYLIST_COLUMN_INFO@@@std@@@3@$0A@@std@@@2@@Z ; std::_Tree<std::_Tmap_traits<int,MYLIST_COLUMN_INFO,std::less<int>,std::allocator<std::pair<int const ,MYLIST_COLUMN_INFO> >,0> >::_Isnil
  0005b	83 c4 04	 add	 esp, 4
  0005e	0f be 08	 movsx	 ecx, BYTE PTR [eax]
  00061	85 c9		 test	 ecx, ecx
  00063	75 1c		 jne	 SHORT $L190723

; 1019 : 			_Parent(_Left(_Pnode)) = _Wherenode;

  00065	8b 55 f8	 mov	 edx, DWORD PTR __Pnode$[ebp]
  00068	52		 push	 edx
  00069	e8 00 00 00 00	 call	 ?_Left@?$_Tree@V?$_Tmap_traits@HUMYLIST_COLUMN_INFO@@U?$less@H@std@@V?$allocator@U?$pair@$$CBHUMYLIST_COLUMN_INFO@@@std@@@3@$0A@@std@@@std@@KAAAPAU_Node@?$_Tree_nod@V?$_Tmap_traits@HUMYLIST_COLUMN_INFO@@U?$less@H@std@@V?$allocator@U?$pair@$$CBHUMYLIST_COLUMN_INFO@@@std@@@3@$0A@@std@@@2@PAU342@@Z ; std::_Tree<std::_Tmap_traits<int,MYLIST_COLUMN_INFO,std::less<int>,std::allocator<std::pair<int const ,MYLIST_COLUMN_INFO> >,0> >::_Left
  0006e	83 c4 04	 add	 esp, 4
  00071	8b 00		 mov	 eax, DWORD PTR [eax]
  00073	50		 push	 eax
  00074	e8 00 00 00 00	 call	 ?_Parent@?$_Tree@V?$_Tmap_traits@HUMYLIST_COLUMN_INFO@@U?$less@H@std@@V?$allocator@U?$pair@$$CBHUMYLIST_COLUMN_INFO@@@std@@@3@$0A@@std@@@std@@KAAAPAU_Node@?$_Tree_nod@V?$_Tmap_traits@HUMYLIST_COLUMN_INFO@@U?$less@H@std@@V?$allocator@U?$pair@$$CBHUMYLIST_COLUMN_INFO@@@std@@@3@$0A@@std@@@2@PAU342@@Z ; std::_Tree<std::_Tmap_traits<int,MYLIST_COLUMN_INFO,std::less<int>,std::allocator<std::pair<int const ,MYLIST_COLUMN_INFO> >,0> >::_Parent
  00079	83 c4 04	 add	 esp, 4
  0007c	8b 4d 08	 mov	 ecx, DWORD PTR __Wherenode$[ebp]
  0007f	89 08		 mov	 DWORD PTR [eax], ecx
$L190723:

; 1020 : 		_Parent(_Pnode) = _Parent(_Wherenode);

  00081	8b 55 08	 mov	 edx, DWORD PTR __Wherenode$[ebp]
  00084	52		 push	 edx
  00085	e8 00 00 00 00	 call	 ?_Parent@?$_Tree@V?$_Tmap_traits@HUMYLIST_COLUMN_INFO@@U?$less@H@std@@V?$allocator@U?$pair@$$CBHUMYLIST_COLUMN_INFO@@@std@@@3@$0A@@std@@@std@@KAAAPAU_Node@?$_Tree_nod@V?$_Tmap_traits@HUMYLIST_COLUMN_INFO@@U?$less@H@std@@V?$allocator@U?$pair@$$CBHUMYLIST_COLUMN_INFO@@@std@@@3@$0A@@std@@@2@PAU342@@Z ; std::_Tree<std::_Tmap_traits<int,MYLIST_COLUMN_INFO,std::less<int>,std::allocator<std::pair<int const ,MYLIST_COLUMN_INFO> >,0> >::_Parent
  0008a	83 c4 04	 add	 esp, 4
  0008d	8b f0		 mov	 esi, eax
  0008f	8b 45 f8	 mov	 eax, DWORD PTR __Pnode$[ebp]
  00092	50		 push	 eax
  00093	e8 00 00 00 00	 call	 ?_Parent@?$_Tree@V?$_Tmap_traits@HUMYLIST_COLUMN_INFO@@U?$less@H@std@@V?$allocator@U?$pair@$$CBHUMYLIST_COLUMN_INFO@@@std@@@3@$0A@@std@@@std@@KAAAPAU_Node@?$_Tree_nod@V?$_Tmap_traits@HUMYLIST_COLUMN_INFO@@U?$less@H@std@@V?$allocator@U?$pair@$$CBHUMYLIST_COLUMN_INFO@@@std@@@3@$0A@@std@@@2@PAU342@@Z ; std::_Tree<std::_Tmap_traits<int,MYLIST_COLUMN_INFO,std::less<int>,std::allocator<std::pair<int const ,MYLIST_COLUMN_INFO> >,0> >::_Parent
  00098	83 c4 04	 add	 esp, 4
  0009b	8b 0e		 mov	 ecx, DWORD PTR [esi]
  0009d	89 08		 mov	 DWORD PTR [eax], ecx

; 1021 : 
; 1022 : 		if (_Wherenode == _Root())

  0009f	8b 4d fc	 mov	 ecx, DWORD PTR _this$[ebp]
  000a2	e8 00 00 00 00	 call	 ?_Root@?$_Tree@V?$_Tmap_traits@HUMYLIST_COLUMN_INFO@@U?$less@H@std@@V?$allocator@U?$pair@$$CBHUMYLIST_COLUMN_INFO@@@std@@@3@$0A@@std@@@std@@IAEAAPAU_Node@?$_Tree_nod@V?$_Tmap_traits@HUMYLIST_COLUMN_INFO@@U?$less@H@std@@V?$allocator@U?$pair@$$CBHUMYLIST_COLUMN_INFO@@@std@@@3@$0A@@std@@@2@XZ ; std::_Tree<std::_Tmap_traits<int,MYLIST_COLUMN_INFO,std::less<int>,std::allocator<std::pair<int const ,MYLIST_COLUMN_INFO> >,0> >::_Root
  000a7	8b 55 08	 mov	 edx, DWORD PTR __Wherenode$[ebp]
  000aa	3b 10		 cmp	 edx, DWORD PTR [eax]
  000ac	75 0f		 jne	 SHORT $L190724

; 1023 : 			_Root() = _Pnode;

  000ae	8b 4d fc	 mov	 ecx, DWORD PTR _this$[ebp]
  000b1	e8 00 00 00 00	 call	 ?_Root@?$_Tree@V?$_Tmap_traits@HUMYLIST_COLUMN_INFO@@U?$less@H@std@@V?$allocator@U?$pair@$$CBHUMYLIST_COLUMN_INFO@@@std@@@3@$0A@@std@@@std@@IAEAAPAU_Node@?$_Tree_nod@V?$_Tmap_traits@HUMYLIST_COLUMN_INFO@@U?$less@H@std@@V?$allocator@U?$pair@$$CBHUMYLIST_COLUMN_INFO@@@std@@@3@$0A@@std@@@2@XZ ; std::_Tree<std::_Tmap_traits<int,MYLIST_COLUMN_INFO,std::less<int>,std::allocator<std::pair<int const ,MYLIST_COLUMN_INFO> >,0> >::_Root
  000b6	8b 4d f8	 mov	 ecx, DWORD PTR __Pnode$[ebp]
  000b9	89 08		 mov	 DWORD PTR [eax], ecx

; 1024 : 		else if (_Wherenode == _Left(_Parent(_Wherenode)))

  000bb	eb 58		 jmp	 SHORT $L190725
$L190724:
  000bd	8b 55 08	 mov	 edx, DWORD PTR __Wherenode$[ebp]
  000c0	52		 push	 edx
  000c1	e8 00 00 00 00	 call	 ?_Parent@?$_Tree@V?$_Tmap_traits@HUMYLIST_COLUMN_INFO@@U?$less@H@std@@V?$allocator@U?$pair@$$CBHUMYLIST_COLUMN_INFO@@@std@@@3@$0A@@std@@@std@@KAAAPAU_Node@?$_Tree_nod@V?$_Tmap_traits@HUMYLIST_COLUMN_INFO@@U?$less@H@std@@V?$allocator@U?$pair@$$CBHUMYLIST_COLUMN_INFO@@@std@@@3@$0A@@std@@@2@PAU342@@Z ; std::_Tree<std::_Tmap_traits<int,MYLIST_COLUMN_INFO,std::less<int>,std::allocator<std::pair<int const ,MYLIST_COLUMN_INFO> >,0> >::_Parent
  000c6	83 c4 04	 add	 esp, 4
  000c9	8b 00		 mov	 eax, DWORD PTR [eax]
  000cb	50		 push	 eax
  000cc	e8 00 00 00 00	 call	 ?_Left@?$_Tree@V?$_Tmap_traits@HUMYLIST_COLUMN_INFO@@U?$less@H@std@@V?$allocator@U?$pair@$$CBHUMYLIST_COLUMN_INFO@@@std@@@3@$0A@@std@@@std@@KAAAPAU_Node@?$_Tree_nod@V?$_Tmap_traits@HUMYLIST_COLUMN_INFO@@U?$less@H@std@@V?$allocator@U?$pair@$$CBHUMYLIST_COLUMN_INFO@@@std@@@3@$0A@@std@@@2@PAU342@@Z ; std::_Tree<std::_Tmap_traits<int,MYLIST_COLUMN_INFO,std::less<int>,std::allocator<std::pair<int const ,MYLIST_COLUMN_INFO> >,0> >::_Left
  000d1	83 c4 04	 add	 esp, 4
  000d4	8b 4d 08	 mov	 ecx, DWORD PTR __Wherenode$[ebp]
  000d7	3b 08		 cmp	 ecx, DWORD PTR [eax]
  000d9	75 1e		 jne	 SHORT $L190726

; 1025 : 			_Left(_Parent(_Wherenode)) = _Pnode;

  000db	8b 55 08	 mov	 edx, DWORD PTR __Wherenode$[ebp]
  000de	52		 push	 edx
  000df	e8 00 00 00 00	 call	 ?_Parent@?$_Tree@V?$_Tmap_traits@HUMYLIST_COLUMN_INFO@@U?$less@H@std@@V?$allocator@U?$pair@$$CBHUMYLIST_COLUMN_INFO@@@std@@@3@$0A@@std@@@std@@KAAAPAU_Node@?$_Tree_nod@V?$_Tmap_traits@HUMYLIST_COLUMN_INFO@@U?$less@H@std@@V?$allocator@U?$pair@$$CBHUMYLIST_COLUMN_INFO@@@std@@@3@$0A@@std@@@2@PAU342@@Z ; std::_Tree<std::_Tmap_traits<int,MYLIST_COLUMN_INFO,std::less<int>,std::allocator<std::pair<int const ,MYLIST_COLUMN_INFO> >,0> >::_Parent
  000e4	83 c4 04	 add	 esp, 4
  000e7	8b 00		 mov	 eax, DWORD PTR [eax]
  000e9	50		 push	 eax
  000ea	e8 00 00 00 00	 call	 ?_Left@?$_Tree@V?$_Tmap_traits@HUMYLIST_COLUMN_INFO@@U?$less@H@std@@V?$allocator@U?$pair@$$CBHUMYLIST_COLUMN_INFO@@@std@@@3@$0A@@std@@@std@@KAAAPAU_Node@?$_Tree_nod@V?$_Tmap_traits@HUMYLIST_COLUMN_INFO@@U?$less@H@std@@V?$allocator@U?$pair@$$CBHUMYLIST_COLUMN_INFO@@@std@@@3@$0A@@std@@@2@PAU342@@Z ; std::_Tree<std::_Tmap_traits<int,MYLIST_COLUMN_INFO,std::less<int>,std::allocator<std::pair<int const ,MYLIST_COLUMN_INFO> >,0> >::_Left
  000ef	83 c4 04	 add	 esp, 4
  000f2	8b 4d f8	 mov	 ecx, DWORD PTR __Pnode$[ebp]
  000f5	89 08		 mov	 DWORD PTR [eax], ecx

; 1026 : 		else

  000f7	eb 1c		 jmp	 SHORT $L190725
$L190726:

; 1027 : 			_Right(_Parent(_Wherenode)) = _Pnode;

  000f9	8b 55 08	 mov	 edx, DWORD PTR __Wherenode$[ebp]
  000fc	52		 push	 edx
  000fd	e8 00 00 00 00	 call	 ?_Parent@?$_Tree@V?$_Tmap_traits@HUMYLIST_COLUMN_INFO@@U?$less@H@std@@V?$allocator@U?$pair@$$CBHUMYLIST_COLUMN_INFO@@@std@@@3@$0A@@std@@@std@@KAAAPAU_Node@?$_Tree_nod@V?$_Tmap_traits@HUMYLIST_COLUMN_INFO@@U?$less@H@std@@V?$allocator@U?$pair@$$CBHUMYLIST_COLUMN_INFO@@@std@@@3@$0A@@std@@@2@PAU342@@Z ; std::_Tree<std::_Tmap_traits<int,MYLIST_COLUMN_INFO,std::less<int>,std::allocator<std::pair<int const ,MYLIST_COLUMN_INFO> >,0> >::_Parent
  00102	83 c4 04	 add	 esp, 4
  00105	8b 00		 mov	 eax, DWORD PTR [eax]
  00107	50		 push	 eax
  00108	e8 00 00 00 00	 call	 ?_Right@?$_Tree@V?$_Tmap_traits@HUMYLIST_COLUMN_INFO@@U?$less@H@std@@V?$allocator@U?$pair@$$CBHUMYLIST_COLUMN_INFO@@@std@@@3@$0A@@std@@@std@@KAAAPAU_Node@?$_Tree_nod@V?$_Tmap_traits@HUMYLIST_COLUMN_INFO@@U?$less@H@std@@V?$allocator@U?$pair@$$CBHUMYLIST_COLUMN_INFO@@@std@@@3@$0A@@std@@@2@PAU342@@Z ; std::_Tree<std::_Tmap_traits<int,MYLIST_COLUMN_INFO,std::less<int>,std::allocator<std::pair<int const ,MYLIST_COLUMN_INFO> >,0> >::_Right
  0010d	83 c4 04	 add	 esp, 4
  00110	8b 4d f8	 mov	 ecx, DWORD PTR __Pnode$[ebp]
  00113	89 08		 mov	 DWORD PTR [eax], ecx
$L190725:

; 1028 : 
; 1029 : 		_Left(_Pnode) = _Wherenode;

  00115	8b 55 f8	 mov	 edx, DWORD PTR __Pnode$[ebp]
  00118	52		 push	 edx
  00119	e8 00 00 00 00	 call	 ?_Left@?$_Tree@V?$_Tmap_traits@HUMYLIST_COLUMN_INFO@@U?$less@H@std@@V?$allocator@U?$pair@$$CBHUMYLIST_COLUMN_INFO@@@std@@@3@$0A@@std@@@std@@KAAAPAU_Node@?$_Tree_nod@V?$_Tmap_traits@HUMYLIST_COLUMN_INFO@@U?$less@H@std@@V?$allocator@U?$pair@$$CBHUMYLIST_COLUMN_INFO@@@std@@@3@$0A@@std@@@2@PAU342@@Z ; std::_Tree<std::_Tmap_traits<int,MYLIST_COLUMN_INFO,std::less<int>,std::allocator<std::pair<int const ,MYLIST_COLUMN_INFO> >,0> >::_Left
  0011e	83 c4 04	 add	 esp, 4
  00121	8b 4d 08	 mov	 ecx, DWORD PTR __Wherenode$[ebp]
  00124	89 08		 mov	 DWORD PTR [eax], ecx

; 1030 : 		_Parent(_Wherenode) = _Pnode;

  00126	8b 55 08	 mov	 edx, DWORD PTR __Wherenode$[ebp]
  00129	52		 push	 edx
  0012a	e8 00 00 00 00	 call	 ?_Parent@?$_Tree@V?$_Tmap_traits@HUMYLIST_COLUMN_INFO@@U?$less@H@std@@V?$allocator@U?$pair@$$CBHUMYLIST_COLUMN_INFO@@@std@@@3@$0A@@std@@@std@@KAAAPAU_Node@?$_Tree_nod@V?$_Tmap_traits@HUMYLIST_COLUMN_INFO@@U?$less@H@std@@V?$allocator@U?$pair@$$CBHUMYLIST_COLUMN_INFO@@@std@@@3@$0A@@std@@@2@PAU342@@Z ; std::_Tree<std::_Tmap_traits<int,MYLIST_COLUMN_INFO,std::less<int>,std::allocator<std::pair<int const ,MYLIST_COLUMN_INFO> >,0> >::_Parent
  0012f	83 c4 04	 add	 esp, 4
  00132	8b 4d f8	 mov	 ecx, DWORD PTR __Pnode$[ebp]
  00135	89 08		 mov	 DWORD PTR [eax], ecx

; 1031 : 		}

  00137	5e		 pop	 esi
  00138	83 c4 08	 add	 esp, 8
  0013b	3b ec		 cmp	 ebp, esp
  0013d	e8 00 00 00 00	 call	 __RTC_CheckEsp
  00142	8b e5		 mov	 esp, ebp
  00144	5d		 pop	 ebp
  00145	c2 04 00	 ret	 4
?_Lrotate@?$_Tree@V?$_Tmap_traits@HUMYLIST_COLUMN_INFO@@U?$less@H@std@@V?$allocator@U?$pair@$$CBHUMYLIST_COLUMN_INFO@@@std@@@3@$0A@@std@@@std@@IAEXPAU_Node@?$_Tree_nod@V?$_Tmap_traits@HUMYLIST_COLUMN_INFO@@U?$less@H@std@@V?$allocator@U?$pair@$$CBHUMYLIST_COLUMN_INFO@@@std@@@3@$0A@@std@@@2@@Z ENDP ; std::_Tree<std::_Tmap_traits<int,MYLIST_COLUMN_INFO,std::less<int>,std::allocator<std::pair<int const ,MYLIST_COLUMN_INFO> >,0> >::_Lrotate
; Function compile flags: /Odt /RTCsu
_TEXT	ENDS
;	COMDAT ?_Root@?$_Tree@V?$_Tmap_traits@HUMYLIST_COLUMN_INFO@@U?$less@H@std@@V?$allocator@U?$pair@$$CBHUMYLIST_COLUMN_INFO@@@std@@@3@$0A@@std@@@std@@IBEAAPAU_Node@?$_Tree_nod@V?$_Tmap_traits@HUMYLIST_COLUMN_INFO@@U?$less@H@std@@V?$allocator@U?$pair@$$CBHUMYLIST_COLUMN_INFO@@@std@@@3@$0A@@std@@@2@XZ
_TEXT	SEGMENT
_this$ = -4						; size = 4
?_Root@?$_Tree@V?$_Tmap_traits@HUMYLIST_COLUMN_INFO@@U?$less@H@std@@V?$allocator@U?$pair@$$CBHUMYLIST_COLUMN_INFO@@@std@@@3@$0A@@std@@@std@@IBEAAPAU_Node@?$_Tree_nod@V?$_Tmap_traits@HUMYLIST_COLUMN_INFO@@U?$less@H@std@@V?$allocator@U?$pair@$$CBHUMYLIST_COLUMN_INFO@@@std@@@3@$0A@@std@@@2@XZ PROC NEAR ; std::_Tree<std::_Tmap_traits<int,MYLIST_COLUMN_INFO,std::less<int>,std::allocator<std::pair<int const ,MYLIST_COLUMN_INFO> >,0> >::_Root, COMDAT
; _this$ = ecx

; 1063 : 		{	// return root of nonmutable tree

  00000	55		 push	 ebp
  00001	8b ec		 mov	 ebp, esp
  00003	51		 push	 ecx
  00004	c7 45 fc cc cc
	cc cc		 mov	 DWORD PTR [ebp-4], -858993460 ; ccccccccH
  0000b	89 4d fc	 mov	 DWORD PTR _this$[ebp], ecx

; 1064 : 		return (_Parent(_Myhead));

  0000e	8b 45 fc	 mov	 eax, DWORD PTR _this$[ebp]
  00011	8b 48 04	 mov	 ecx, DWORD PTR [eax+4]
  00014	51		 push	 ecx
  00015	e8 00 00 00 00	 call	 ?_Parent@?$_Tree@V?$_Tmap_traits@HUMYLIST_COLUMN_INFO@@U?$less@H@std@@V?$allocator@U?$pair@$$CBHUMYLIST_COLUMN_INFO@@@std@@@3@$0A@@std@@@std@@KAAAPAU_Node@?$_Tree_nod@V?$_Tmap_traits@HUMYLIST_COLUMN_INFO@@U?$less@H@std@@V?$allocator@U?$pair@$$CBHUMYLIST_COLUMN_INFO@@@std@@@3@$0A@@std@@@2@PAU342@@Z ; std::_Tree<std::_Tmap_traits<int,MYLIST_COLUMN_INFO,std::less<int>,std::allocator<std::pair<int const ,MYLIST_COLUMN_INFO> >,0> >::_Parent
  0001a	83 c4 04	 add	 esp, 4

; 1065 : 		}

  0001d	83 c4 04	 add	 esp, 4
  00020	3b ec		 cmp	 ebp, esp
  00022	e8 00 00 00 00	 call	 __RTC_CheckEsp
  00027	8b e5		 mov	 esp, ebp
  00029	5d		 pop	 ebp
  0002a	c3		 ret	 0
?_Root@?$_Tree@V?$_Tmap_traits@HUMYLIST_COLUMN_INFO@@U?$less@H@std@@V?$allocator@U?$pair@$$CBHUMYLIST_COLUMN_INFO@@@std@@@3@$0A@@std@@@std@@IBEAAPAU_Node@?$_Tree_nod@V?$_Tmap_traits@HUMYLIST_COLUMN_INFO@@U?$less@H@std@@V?$allocator@U?$pair@$$CBHUMYLIST_COLUMN_INFO@@@std@@@3@$0A@@std@@@2@XZ ENDP ; std::_Tree<std::_Tmap_traits<int,MYLIST_COLUMN_INFO,std::less<int>,std::allocator<std::pair<int const ,MYLIST_COLUMN_INFO> >,0> >::_Root
; Function compile flags: /Odt /RTCsu
_TEXT	ENDS
;	COMDAT ?_Rrotate@?$_Tree@V?$_Tmap_traits@HUMYLIST_COLUMN_INFO@@U?$less@H@std@@V?$allocator@U?$pair@$$CBHUMYLIST_COLUMN_INFO@@@std@@@3@$0A@@std@@@std@@IAEXPAU_Node@?$_Tree_nod@V?$_Tmap_traits@HUMYLIST_COLUMN_INFO@@U?$less@H@std@@V?$allocator@U?$pair@$$CBHUMYLIST_COLUMN_INFO@@@std@@@3@$0A@@std@@@2@@Z
_TEXT	SEGMENT
__Pnode$ = -8						; size = 4
_this$ = -4						; size = 4
__Wherenode$ = 8					; size = 4
?_Rrotate@?$_Tree@V?$_Tmap_traits@HUMYLIST_COLUMN_INFO@@U?$less@H@std@@V?$allocator@U?$pair@$$CBHUMYLIST_COLUMN_INFO@@@std@@@3@$0A@@std@@@std@@IAEXPAU_Node@?$_Tree_nod@V?$_Tmap_traits@HUMYLIST_COLUMN_INFO@@U?$less@H@std@@V?$allocator@U?$pair@$$CBHUMYLIST_COLUMN_INFO@@@std@@@3@$0A@@std@@@2@@Z PROC NEAR ; std::_Tree<std::_Tmap_traits<int,MYLIST_COLUMN_INFO,std::less<int>,std::allocator<std::pair<int const ,MYLIST_COLUMN_INFO> >,0> >::_Rrotate, COMDAT
; _this$ = ecx

; 1068 : 		{	// promote left node to root of subtree

  00000	55		 push	 ebp
  00001	8b ec		 mov	 ebp, esp
  00003	83 ec 08	 sub	 esp, 8
  00006	56		 push	 esi
  00007	c7 45 f8 cc cc
	cc cc		 mov	 DWORD PTR [ebp-8], -858993460 ; ccccccccH
  0000e	c7 45 fc cc cc
	cc cc		 mov	 DWORD PTR [ebp-4], -858993460 ; ccccccccH
  00015	89 4d fc	 mov	 DWORD PTR _this$[ebp], ecx

; 1069 : 		_Nodeptr _Pnode = _Left(_Wherenode);

  00018	8b 45 08	 mov	 eax, DWORD PTR __Wherenode$[ebp]
  0001b	50		 push	 eax
  0001c	e8 00 00 00 00	 call	 ?_Left@?$_Tree@V?$_Tmap_traits@HUMYLIST_COLUMN_INFO@@U?$less@H@std@@V?$allocator@U?$pair@$$CBHUMYLIST_COLUMN_INFO@@@std@@@3@$0A@@std@@@std@@KAAAPAU_Node@?$_Tree_nod@V?$_Tmap_traits@HUMYLIST_COLUMN_INFO@@U?$less@H@std@@V?$allocator@U?$pair@$$CBHUMYLIST_COLUMN_INFO@@@std@@@3@$0A@@std@@@2@PAU342@@Z ; std::_Tree<std::_Tmap_traits<int,MYLIST_COLUMN_INFO,std::less<int>,std::allocator<std::pair<int const ,MYLIST_COLUMN_INFO> >,0> >::_Left
  00021	83 c4 04	 add	 esp, 4
  00024	8b 08		 mov	 ecx, DWORD PTR [eax]
  00026	89 4d f8	 mov	 DWORD PTR __Pnode$[ebp], ecx

; 1070 : 		_Left(_Wherenode) = _Right(_Pnode);

  00029	8b 55 f8	 mov	 edx, DWORD PTR __Pnode$[ebp]
  0002c	52		 push	 edx
  0002d	e8 00 00 00 00	 call	 ?_Right@?$_Tree@V?$_Tmap_traits@HUMYLIST_COLUMN_INFO@@U?$less@H@std@@V?$allocator@U?$pair@$$CBHUMYLIST_COLUMN_INFO@@@std@@@3@$0A@@std@@@std@@KAAAPAU_Node@?$_Tree_nod@V?$_Tmap_traits@HUMYLIST_COLUMN_INFO@@U?$less@H@std@@V?$allocator@U?$pair@$$CBHUMYLIST_COLUMN_INFO@@@std@@@3@$0A@@std@@@2@PAU342@@Z ; std::_Tree<std::_Tmap_traits<int,MYLIST_COLUMN_INFO,std::less<int>,std::allocator<std::pair<int const ,MYLIST_COLUMN_INFO> >,0> >::_Right
  00032	83 c4 04	 add	 esp, 4
  00035	8b f0		 mov	 esi, eax
  00037	8b 45 08	 mov	 eax, DWORD PTR __Wherenode$[ebp]
  0003a	50		 push	 eax
  0003b	e8 00 00 00 00	 call	 ?_Left@?$_Tree@V?$_Tmap_traits@HUMYLIST_COLUMN_INFO@@U?$less@H@std@@V?$allocator@U?$pair@$$CBHUMYLIST_COLUMN_INFO@@@std@@@3@$0A@@std@@@std@@KAAAPAU_Node@?$_Tree_nod@V?$_Tmap_traits@HUMYLIST_COLUMN_INFO@@U?$less@H@std@@V?$allocator@U?$pair@$$CBHUMYLIST_COLUMN_INFO@@@std@@@3@$0A@@std@@@2@PAU342@@Z ; std::_Tree<std::_Tmap_traits<int,MYLIST_COLUMN_INFO,std::less<int>,std::allocator<std::pair<int const ,MYLIST_COLUMN_INFO> >,0> >::_Left
  00040	83 c4 04	 add	 esp, 4
  00043	8b 0e		 mov	 ecx, DWORD PTR [esi]
  00045	89 08		 mov	 DWORD PTR [eax], ecx

; 1071 : 
; 1072 : 		if (!_Isnil(_Right(_Pnode)))

  00047	8b 55 f8	 mov	 edx, DWORD PTR __Pnode$[ebp]
  0004a	52		 push	 edx
  0004b	e8 00 00 00 00	 call	 ?_Right@?$_Tree@V?$_Tmap_traits@HUMYLIST_COLUMN_INFO@@U?$less@H@std@@V?$allocator@U?$pair@$$CBHUMYLIST_COLUMN_INFO@@@std@@@3@$0A@@std@@@std@@KAAAPAU_Node@?$_Tree_nod@V?$_Tmap_traits@HUMYLIST_COLUMN_INFO@@U?$less@H@std@@V?$allocator@U?$pair@$$CBHUMYLIST_COLUMN_INFO@@@std@@@3@$0A@@std@@@2@PAU342@@Z ; std::_Tree<std::_Tmap_traits<int,MYLIST_COLUMN_INFO,std::less<int>,std::allocator<std::pair<int const ,MYLIST_COLUMN_INFO> >,0> >::_Right
  00050	83 c4 04	 add	 esp, 4
  00053	8b 00		 mov	 eax, DWORD PTR [eax]
  00055	50		 push	 eax
  00056	e8 00 00 00 00	 call	 ?_Isnil@?$_Tree@V?$_Tmap_traits@HUMYLIST_COLUMN_INFO@@U?$less@H@std@@V?$allocator@U?$pair@$$CBHUMYLIST_COLUMN_INFO@@@std@@@3@$0A@@std@@@std@@KAAADPAU_Node@?$_Tree_nod@V?$_Tmap_traits@HUMYLIST_COLUMN_INFO@@U?$less@H@std@@V?$allocator@U?$pair@$$CBHUMYLIST_COLUMN_INFO@@@std@@@3@$0A@@std@@@2@@Z ; std::_Tree<std::_Tmap_traits<int,MYLIST_COLUMN_INFO,std::less<int>,std::allocator<std::pair<int const ,MYLIST_COLUMN_INFO> >,0> >::_Isnil
  0005b	83 c4 04	 add	 esp, 4
  0005e	0f be 08	 movsx	 ecx, BYTE PTR [eax]
  00061	85 c9		 test	 ecx, ecx
  00063	75 1c		 jne	 SHORT $L190733

; 1073 : 			_Parent(_Right(_Pnode)) = _Wherenode;

  00065	8b 55 f8	 mov	 edx, DWORD PTR __Pnode$[ebp]
  00068	52		 push	 edx
  00069	e8 00 00 00 00	 call	 ?_Right@?$_Tree@V?$_Tmap_traits@HUMYLIST_COLUMN_INFO@@U?$less@H@std@@V?$allocator@U?$pair@$$CBHUMYLIST_COLUMN_INFO@@@std@@@3@$0A@@std@@@std@@KAAAPAU_Node@?$_Tree_nod@V?$_Tmap_traits@HUMYLIST_COLUMN_INFO@@U?$less@H@std@@V?$allocator@U?$pair@$$CBHUMYLIST_COLUMN_INFO@@@std@@@3@$0A@@std@@@2@PAU342@@Z ; std::_Tree<std::_Tmap_traits<int,MYLIST_COLUMN_INFO,std::less<int>,std::allocator<std::pair<int const ,MYLIST_COLUMN_INFO> >,0> >::_Right
  0006e	83 c4 04	 add	 esp, 4
  00071	8b 00		 mov	 eax, DWORD PTR [eax]
  00073	50		 push	 eax
  00074	e8 00 00 00 00	 call	 ?_Parent@?$_Tree@V?$_Tmap_traits@HUMYLIST_COLUMN_INFO@@U?$less@H@std@@V?$allocator@U?$pair@$$CBHUMYLIST_COLUMN_INFO@@@std@@@3@$0A@@std@@@std@@KAAAPAU_Node@?$_Tree_nod@V?$_Tmap_traits@HUMYLIST_COLUMN_INFO@@U?$less@H@std@@V?$allocator@U?$pair@$$CBHUMYLIST_COLUMN_INFO@@@std@@@3@$0A@@std@@@2@PAU342@@Z ; std::_Tree<std::_Tmap_traits<int,MYLIST_COLUMN_INFO,std::less<int>,std::allocator<std::pair<int const ,MYLIST_COLUMN_INFO> >,0> >::_Parent
  00079	83 c4 04	 add	 esp, 4
  0007c	8b 4d 08	 mov	 ecx, DWORD PTR __Wherenode$[ebp]
  0007f	89 08		 mov	 DWORD PTR [eax], ecx
$L190733:

; 1074 : 		_Parent(_Pnode) = _Parent(_Wherenode);

  00081	8b 55 08	 mov	 edx, DWORD PTR __Wherenode$[ebp]
  00084	52		 push	 edx
  00085	e8 00 00 00 00	 call	 ?_Parent@?$_Tree@V?$_Tmap_traits@HUMYLIST_COLUMN_INFO@@U?$less@H@std@@V?$allocator@U?$pair@$$CBHUMYLIST_COLUMN_INFO@@@std@@@3@$0A@@std@@@std@@KAAAPAU_Node@?$_Tree_nod@V?$_Tmap_traits@HUMYLIST_COLUMN_INFO@@U?$less@H@std@@V?$allocator@U?$pair@$$CBHUMYLIST_COLUMN_INFO@@@std@@@3@$0A@@std@@@2@PAU342@@Z ; std::_Tree<std::_Tmap_traits<int,MYLIST_COLUMN_INFO,std::less<int>,std::allocator<std::pair<int const ,MYLIST_COLUMN_INFO> >,0> >::_Parent
  0008a	83 c4 04	 add	 esp, 4
  0008d	8b f0		 mov	 esi, eax
  0008f	8b 45 f8	 mov	 eax, DWORD PTR __Pnode$[ebp]
  00092	50		 push	 eax
  00093	e8 00 00 00 00	 call	 ?_Parent@?$_Tree@V?$_Tmap_traits@HUMYLIST_COLUMN_INFO@@U?$less@H@std@@V?$allocator@U?$pair@$$CBHUMYLIST_COLUMN_INFO@@@std@@@3@$0A@@std@@@std@@KAAAPAU_Node@?$_Tree_nod@V?$_Tmap_traits@HUMYLIST_COLUMN_INFO@@U?$less@H@std@@V?$allocator@U?$pair@$$CBHUMYLIST_COLUMN_INFO@@@std@@@3@$0A@@std@@@2@PAU342@@Z ; std::_Tree<std::_Tmap_traits<int,MYLIST_COLUMN_INFO,std::less<int>,std::allocator<std::pair<int const ,MYLIST_COLUMN_INFO> >,0> >::_Parent
  00098	83 c4 04	 add	 esp, 4
  0009b	8b 0e		 mov	 ecx, DWORD PTR [esi]
  0009d	89 08		 mov	 DWORD PTR [eax], ecx

; 1075 : 
; 1076 : 		if (_Wherenode == _Root())

  0009f	8b 4d fc	 mov	 ecx, DWORD PTR _this$[ebp]
  000a2	e8 00 00 00 00	 call	 ?_Root@?$_Tree@V?$_Tmap_traits@HUMYLIST_COLUMN_INFO@@U?$less@H@std@@V?$allocator@U?$pair@$$CBHUMYLIST_COLUMN_INFO@@@std@@@3@$0A@@std@@@std@@IAEAAPAU_Node@?$_Tree_nod@V?$_Tmap_traits@HUMYLIST_COLUMN_INFO@@U?$less@H@std@@V?$allocator@U?$pair@$$CBHUMYLIST_COLUMN_INFO@@@std@@@3@$0A@@std@@@2@XZ ; std::_Tree<std::_Tmap_traits<int,MYLIST_COLUMN_INFO,std::less<int>,std::allocator<std::pair<int const ,MYLIST_COLUMN_INFO> >,0> >::_Root
  000a7	8b 55 08	 mov	 edx, DWORD PTR __Wherenode$[ebp]
  000aa	3b 10		 cmp	 edx, DWORD PTR [eax]
  000ac	75 0f		 jne	 SHORT $L190734

; 1077 : 			_Root() = _Pnode;

  000ae	8b 4d fc	 mov	 ecx, DWORD PTR _this$[ebp]
  000b1	e8 00 00 00 00	 call	 ?_Root@?$_Tree@V?$_Tmap_traits@HUMYLIST_COLUMN_INFO@@U?$less@H@std@@V?$allocator@U?$pair@$$CBHUMYLIST_COLUMN_INFO@@@std@@@3@$0A@@std@@@std@@IAEAAPAU_Node@?$_Tree_nod@V?$_Tmap_traits@HUMYLIST_COLUMN_INFO@@U?$less@H@std@@V?$allocator@U?$pair@$$CBHUMYLIST_COLUMN_INFO@@@std@@@3@$0A@@std@@@2@XZ ; std::_Tree<std::_Tmap_traits<int,MYLIST_COLUMN_INFO,std::less<int>,std::allocator<std::pair<int const ,MYLIST_COLUMN_INFO> >,0> >::_Root
  000b6	8b 4d f8	 mov	 ecx, DWORD PTR __Pnode$[ebp]
  000b9	89 08		 mov	 DWORD PTR [eax], ecx

; 1078 : 		else if (_Wherenode == _Right(_Parent(_Wherenode)))

  000bb	eb 58		 jmp	 SHORT $L190735
$L190734:
  000bd	8b 55 08	 mov	 edx, DWORD PTR __Wherenode$[ebp]
  000c0	52		 push	 edx
  000c1	e8 00 00 00 00	 call	 ?_Parent@?$_Tree@V?$_Tmap_traits@HUMYLIST_COLUMN_INFO@@U?$less@H@std@@V?$allocator@U?$pair@$$CBHUMYLIST_COLUMN_INFO@@@std@@@3@$0A@@std@@@std@@KAAAPAU_Node@?$_Tree_nod@V?$_Tmap_traits@HUMYLIST_COLUMN_INFO@@U?$less@H@std@@V?$allocator@U?$pair@$$CBHUMYLIST_COLUMN_INFO@@@std@@@3@$0A@@std@@@2@PAU342@@Z ; std::_Tree<std::_Tmap_traits<int,MYLIST_COLUMN_INFO,std::less<int>,std::allocator<std::pair<int const ,MYLIST_COLUMN_INFO> >,0> >::_Parent
  000c6	83 c4 04	 add	 esp, 4
  000c9	8b 00		 mov	 eax, DWORD PTR [eax]
  000cb	50		 push	 eax
  000cc	e8 00 00 00 00	 call	 ?_Right@?$_Tree@V?$_Tmap_traits@HUMYLIST_COLUMN_INFO@@U?$less@H@std@@V?$allocator@U?$pair@$$CBHUMYLIST_COLUMN_INFO@@@std@@@3@$0A@@std@@@std@@KAAAPAU_Node@?$_Tree_nod@V?$_Tmap_traits@HUMYLIST_COLUMN_INFO@@U?$less@H@std@@V?$allocator@U?$pair@$$CBHUMYLIST_COLUMN_INFO@@@std@@@3@$0A@@std@@@2@PAU342@@Z ; std::_Tree<std::_Tmap_traits<int,MYLIST_COLUMN_INFO,std::less<int>,std::allocator<std::pair<int const ,MYLIST_COLUMN_INFO> >,0> >::_Right
  000d1	83 c4 04	 add	 esp, 4
  000d4	8b 4d 08	 mov	 ecx, DWORD PTR __Wherenode$[ebp]
  000d7	3b 08		 cmp	 ecx, DWORD PTR [eax]
  000d9	75 1e		 jne	 SHORT $L190736

; 1079 : 			_Right(_Parent(_Wherenode)) = _Pnode;

  000db	8b 55 08	 mov	 edx, DWORD PTR __Wherenode$[ebp]
  000de	52		 push	 edx
  000df	e8 00 00 00 00	 call	 ?_Parent@?$_Tree@V?$_Tmap_traits@HUMYLIST_COLUMN_INFO@@U?$less@H@std@@V?$allocator@U?$pair@$$CBHUMYLIST_COLUMN_INFO@@@std@@@3@$0A@@std@@@std@@KAAAPAU_Node@?$_Tree_nod@V?$_Tmap_traits@HUMYLIST_COLUMN_INFO@@U?$less@H@std@@V?$allocator@U?$pair@$$CBHUMYLIST_COLUMN_INFO@@@std@@@3@$0A@@std@@@2@PAU342@@Z ; std::_Tree<std::_Tmap_traits<int,MYLIST_COLUMN_INFO,std::less<int>,std::allocator<std::pair<int const ,MYLIST_COLUMN_INFO> >,0> >::_Parent
  000e4	83 c4 04	 add	 esp, 4
  000e7	8b 00		 mov	 eax, DWORD PTR [eax]
  000e9	50		 push	 eax
  000ea	e8 00 00 00 00	 call	 ?_Right@?$_Tree@V?$_Tmap_traits@HUMYLIST_COLUMN_INFO@@U?$less@H@std@@V?$allocator@U?$pair@$$CBHUMYLIST_COLUMN_INFO@@@std@@@3@$0A@@std@@@std@@KAAAPAU_Node@?$_Tree_nod@V?$_Tmap_traits@HUMYLIST_COLUMN_INFO@@U?$less@H@std@@V?$allocator@U?$pair@$$CBHUMYLIST_COLUMN_INFO@@@std@@@3@$0A@@std@@@2@PAU342@@Z ; std::_Tree<std::_Tmap_traits<int,MYLIST_COLUMN_INFO,std::less<int>,std::allocator<std::pair<int const ,MYLIST_COLUMN_INFO> >,0> >::_Right
  000ef	83 c4 04	 add	 esp, 4
  000f2	8b 4d f8	 mov	 ecx, DWORD PTR __Pnode$[ebp]
  000f5	89 08		 mov	 DWORD PTR [eax], ecx

; 1080 : 		else

  000f7	eb 1c		 jmp	 SHORT $L190735
$L190736:

; 1081 : 			_Left(_Parent(_Wherenode)) = _Pnode;

  000f9	8b 55 08	 mov	 edx, DWORD PTR __Wherenode$[ebp]
  000fc	52		 push	 edx
  000fd	e8 00 00 00 00	 call	 ?_Parent@?$_Tree@V?$_Tmap_traits@HUMYLIST_COLUMN_INFO@@U?$less@H@std@@V?$allocator@U?$pair@$$CBHUMYLIST_COLUMN_INFO@@@std@@@3@$0A@@std@@@std@@KAAAPAU_Node@?$_Tree_nod@V?$_Tmap_traits@HUMYLIST_COLUMN_INFO@@U?$less@H@std@@V?$allocator@U?$pair@$$CBHUMYLIST_COLUMN_INFO@@@std@@@3@$0A@@std@@@2@PAU342@@Z ; std::_Tree<std::_Tmap_traits<int,MYLIST_COLUMN_INFO,std::less<int>,std::allocator<std::pair<int const ,MYLIST_COLUMN_INFO> >,0> >::_Parent
  00102	83 c4 04	 add	 esp, 4
  00105	8b 00		 mov	 eax, DWORD PTR [eax]
  00107	50		 push	 eax
  00108	e8 00 00 00 00	 call	 ?_Left@?$_Tree@V?$_Tmap_traits@HUMYLIST_COLUMN_INFO@@U?$less@H@std@@V?$allocator@U?$pair@$$CBHUMYLIST_COLUMN_INFO@@@std@@@3@$0A@@std@@@std@@KAAAPAU_Node@?$_Tree_nod@V?$_Tmap_traits@HUMYLIST_COLUMN_INFO@@U?$less@H@std@@V?$allocator@U?$pair@$$CBHUMYLIST_COLUMN_INFO@@@std@@@3@$0A@@std@@@2@PAU342@@Z ; std::_Tree<std::_Tmap_traits<int,MYLIST_COLUMN_INFO,std::less<int>,std::allocator<std::pair<int const ,MYLIST_COLUMN_INFO> >,0> >::_Left
  0010d	83 c4 04	 add	 esp, 4
  00110	8b 4d f8	 mov	 ecx, DWORD PTR __Pnode$[ebp]
  00113	89 08		 mov	 DWORD PTR [eax], ecx
$L190735:

; 1082 : 
; 1083 : 		_Right(_Pnode) = _Wherenode;

  00115	8b 55 f8	 mov	 edx, DWORD PTR __Pnode$[ebp]
  00118	52		 push	 edx
  00119	e8 00 00 00 00	 call	 ?_Right@?$_Tree@V?$_Tmap_traits@HUMYLIST_COLUMN_INFO@@U?$less@H@std@@V?$allocator@U?$pair@$$CBHUMYLIST_COLUMN_INFO@@@std@@@3@$0A@@std@@@std@@KAAAPAU_Node@?$_Tree_nod@V?$_Tmap_traits@HUMYLIST_COLUMN_INFO@@U?$less@H@std@@V?$allocator@U?$pair@$$CBHUMYLIST_COLUMN_INFO@@@std@@@3@$0A@@std@@@2@PAU342@@Z ; std::_Tree<std::_Tmap_traits<int,MYLIST_COLUMN_INFO,std::less<int>,std::allocator<std::pair<int const ,MYLIST_COLUMN_INFO> >,0> >::_Right
  0011e	83 c4 04	 add	 esp, 4
  00121	8b 4d 08	 mov	 ecx, DWORD PTR __Wherenode$[ebp]
  00124	89 08		 mov	 DWORD PTR [eax], ecx

; 1084 : 		_Parent(_Wherenode) = _Pnode;

  00126	8b 55 08	 mov	 edx, DWORD PTR __Wherenode$[ebp]
  00129	52		 push	 edx
  0012a	e8 00 00 00 00	 call	 ?_Parent@?$_Tree@V?$_Tmap_traits@HUMYLIST_COLUMN_INFO@@U?$less@H@std@@V?$allocator@U?$pair@$$CBHUMYLIST_COLUMN_INFO@@@std@@@3@$0A@@std@@@std@@KAAAPAU_Node@?$_Tree_nod@V?$_Tmap_traits@HUMYLIST_COLUMN_INFO@@U?$less@H@std@@V?$allocator@U?$pair@$$CBHUMYLIST_COLUMN_INFO@@@std@@@3@$0A@@std@@@2@PAU342@@Z ; std::_Tree<std::_Tmap_traits<int,MYLIST_COLUMN_INFO,std::less<int>,std::allocator<std::pair<int const ,MYLIST_COLUMN_INFO> >,0> >::_Parent
  0012f	83 c4 04	 add	 esp, 4
  00132	8b 4d f8	 mov	 ecx, DWORD PTR __Pnode$[ebp]
  00135	89 08		 mov	 DWORD PTR [eax], ecx

; 1085 : 		}

  00137	5e		 pop	 esi
  00138	83 c4 08	 add	 esp, 8
  0013b	3b ec		 cmp	 ebp, esp
  0013d	e8 00 00 00 00	 call	 __RTC_CheckEsp
  00142	8b e5		 mov	 esp, ebp
  00144	5d		 pop	 ebp
  00145	c2 04 00	 ret	 4
?_Rrotate@?$_Tree@V?$_Tmap_traits@HUMYLIST_COLUMN_INFO@@U?$less@H@std@@V?$allocator@U?$pair@$$CBHUMYLIST_COLUMN_INFO@@@std@@@3@$0A@@std@@@std@@IAEXPAU_Node@?$_Tree_nod@V?$_Tmap_traits@HUMYLIST_COLUMN_INFO@@U?$less@H@std@@V?$allocator@U?$pair@$$CBHUMYLIST_COLUMN_INFO@@@std@@@3@$0A@@std@@@2@@Z ENDP ; std::_Tree<std::_Tmap_traits<int,MYLIST_COLUMN_INFO,std::less<int>,std::allocator<std::pair<int const ,MYLIST_COLUMN_INFO> >,0> >::_Rrotate
_TEXT	ENDS
PUBLIC	?allocate@?$allocator@U_Node@?$_Tree_nod@V?$_Tmap_traits@HUMYLIST_COLUMN_INFO@@U?$less@H@std@@V?$allocator@U?$pair@$$CBHUMYLIST_COLUMN_INFO@@@std@@@3@$0A@@std@@@std@@@std@@QAEPAU_Node@?$_Tree_nod@V?$_Tmap_traits@HUMYLIST_COLUMN_INFO@@U?$less@H@std@@V?$allocator@U?$pair@$$CBHUMYLIST_COLUMN_INFO@@@std@@@3@$0A@@std@@@2@I@Z ; std::allocator<std::_Tree_nod<std::_Tmap_traits<int,MYLIST_COLUMN_INFO,std::less<int>,std::allocator<std::pair<int const ,MYLIST_COLUMN_INFO> >,0> >::_Node>::allocate
PUBLIC	?construct@?$allocator@PAU_Node@?$_Tree_nod@V?$_Tmap_traits@HUMYLIST_COLUMN_INFO@@U?$less@H@std@@V?$allocator@U?$pair@$$CBHUMYLIST_COLUMN_INFO@@@std@@@3@$0A@@std@@@std@@@std@@QAEXPAPAU_Node@?$_Tree_nod@V?$_Tmap_traits@HUMYLIST_COLUMN_INFO@@U?$less@H@std@@V?$allocator@U?$pair@$$CBHUMYLIST_COLUMN_INFO@@@std@@@3@$0A@@std@@@2@ABQAU342@@Z ; std::allocator<std::_Tree_nod<std::_Tmap_traits<int,MYLIST_COLUMN_INFO,std::less<int>,std::allocator<std::pair<int const ,MYLIST_COLUMN_INFO> >,0> >::_Node *>::construct
;	COMDAT xdata$x
xdata$x	SEGMENT
$T192172 DD	0ffffffffH
	DD	00H
	DD	0ffffffffH
	DD	00H
$T192174 DD	00H
	DD	00H
	DD	00H
	DD	FLAT:$L192168
$T192173 DD	00H
	DD	00H
	DD	01H
	DD	01H
	DD	FLAT:$T192174
$T192170 DD	019930520H
	DD	02H
	DD	FLAT:$T192172
	DD	01H
	DD	FLAT:$T192173
	DD	2 DUP(00H)
; Function compile flags: /Odt /RTCsu
xdata$x	ENDS
;	COMDAT ?_Buynode@?$_Tree@V?$_Tmap_traits@HUMYLIST_COLUMN_INFO@@U?$less@H@std@@V?$allocator@U?$pair@$$CBHUMYLIST_COLUMN_INFO@@@std@@@3@$0A@@std@@@std@@IAEPAU_Node@?$_Tree_nod@V?$_Tmap_traits@HUMYLIST_COLUMN_INFO@@U?$less@H@std@@V?$allocator@U?$pair@$$CBHUMYLIST_COLUMN_INFO@@@std@@@3@$0A@@std@@@2@XZ
_TEXT	SEGMENT
tv145 = -52						; size = 4
tv144 = -48						; size = 4
tv143 = -44						; size = 4
$T192166 = -40						; size = 4
$T192165 = -36						; size = 4
$T192164 = -32						; size = 4
__Linkcnt$ = -28					; size = 4
__Wherenode$ = -24					; size = 4
_this$ = -20						; size = 4
__$EHRec$ = -16						; size = 16
?_Buynode@?$_Tree@V?$_Tmap_traits@HUMYLIST_COLUMN_INFO@@U?$less@H@std@@V?$allocator@U?$pair@$$CBHUMYLIST_COLUMN_INFO@@@std@@@3@$0A@@std@@@std@@IAEPAU_Node@?$_Tree_nod@V?$_Tmap_traits@HUMYLIST_COLUMN_INFO@@U?$less@H@std@@V?$allocator@U?$pair@$$CBHUMYLIST_COLUMN_INFO@@@std@@@3@$0A@@std@@@2@XZ PROC NEAR ; std::_Tree<std::_Tmap_traits<int,MYLIST_COLUMN_INFO,std::less<int>,std::allocator<std::pair<int const ,MYLIST_COLUMN_INFO> >,0> >::_Buynode, COMDAT
; _this$ = ecx

; 1105 : 		{	// allocate a head/nil node

  00000	55		 push	 ebp
  00001	8b ec		 mov	 ebp, esp
  00003	6a ff		 push	 -1
  00005	68 00 00 00 00	 push	 __ehhandler$?_Buynode@?$_Tree@V?$_Tmap_traits@HUMYLIST_COLUMN_INFO@@U?$less@H@std@@V?$allocator@U?$pair@$$CBHUMYLIST_COLUMN_INFO@@@std@@@3@$0A@@std@@@std@@IAEPAU_Node@?$_Tree_nod@V?$_Tmap_traits@HUMYLIST_COLUMN_INFO@@U?$less@H@std@@V?$allocator@U?$pair@$$CBHUMYLIST_COLUMN_INFO@@@std@@@3@$0A@@std@@@2@XZ
  0000a	64 a1 00 00 00
	00		 mov	 eax, DWORD PTR fs:__except_list
  00010	50		 push	 eax
  00011	64 89 25 00 00
	00 00		 mov	 DWORD PTR fs:__except_list, esp
  00018	51		 push	 ecx
  00019	83 ec 24	 sub	 esp, 36			; 00000024H
  0001c	53		 push	 ebx
  0001d	56		 push	 esi
  0001e	57		 push	 edi
  0001f	b8 cc cc cc cc	 mov	 eax, -858993460		; ccccccccH
  00024	89 45 cc	 mov	 DWORD PTR [ebp-52], eax
  00027	89 45 d0	 mov	 DWORD PTR [ebp-48], eax
  0002a	89 45 d4	 mov	 DWORD PTR [ebp-44], eax
  0002d	89 45 d8	 mov	 DWORD PTR [ebp-40], eax
  00030	89 45 dc	 mov	 DWORD PTR [ebp-36], eax
  00033	89 45 e0	 mov	 DWORD PTR [ebp-32], eax
  00036	89 45 e4	 mov	 DWORD PTR [ebp-28], eax
  00039	89 45 e8	 mov	 DWORD PTR [ebp-24], eax
  0003c	89 45 ec	 mov	 DWORD PTR [ebp-20], eax
  0003f	89 65 f0	 mov	 DWORD PTR __$EHRec$[ebp], esp
  00042	89 4d ec	 mov	 DWORD PTR _this$[ebp], ecx

; 1106 : 		_Nodeptr _Wherenode = this->_Alnod.allocate(1);

  00045	6a 01		 push	 1
  00047	8b 4d ec	 mov	 ecx, DWORD PTR _this$[ebp]
  0004a	83 c1 01	 add	 ecx, 1
  0004d	e8 00 00 00 00	 call	 ?allocate@?$allocator@U_Node@?$_Tree_nod@V?$_Tmap_traits@HUMYLIST_COLUMN_INFO@@U?$less@H@std@@V?$allocator@U?$pair@$$CBHUMYLIST_COLUMN_INFO@@@std@@@3@$0A@@std@@@std@@@std@@QAEPAU_Node@?$_Tree_nod@V?$_Tmap_traits@HUMYLIST_COLUMN_INFO@@U?$less@H@std@@V?$allocator@U?$pair@$$CBHUMYLIST_COLUMN_INFO@@@std@@@3@$0A@@std@@@2@I@Z ; std::allocator<std::_Tree_nod<std::_Tmap_traits<int,MYLIST_COLUMN_INFO,std::less<int>,std::allocator<std::pair<int const ,MYLIST_COLUMN_INFO> >,0> >::_Node>::allocate
  00052	89 45 e8	 mov	 DWORD PTR __Wherenode$[ebp], eax

; 1107 : 		int _Linkcnt = 0;

  00055	c7 45 e4 00 00
	00 00		 mov	 DWORD PTR __Linkcnt$[ebp], 0

; 1108 : 
; 1109 : 		_TRY_BEGIN

  0005c	c7 45 fc 00 00
	00 00		 mov	 DWORD PTR __$EHRec$[ebp+12], 0

; 1110 : 		this->_Alptr.construct(&_Left(_Wherenode), 0);

  00063	c7 45 e0 00 00
	00 00		 mov	 DWORD PTR $T192164[ebp], 0
  0006a	8b 45 e8	 mov	 eax, DWORD PTR __Wherenode$[ebp]
  0006d	50		 push	 eax
  0006e	e8 00 00 00 00	 call	 ?_Left@?$_Tree@V?$_Tmap_traits@HUMYLIST_COLUMN_INFO@@U?$less@H@std@@V?$allocator@U?$pair@$$CBHUMYLIST_COLUMN_INFO@@@std@@@3@$0A@@std@@@std@@KAAAPAU_Node@?$_Tree_nod@V?$_Tmap_traits@HUMYLIST_COLUMN_INFO@@U?$less@H@std@@V?$allocator@U?$pair@$$CBHUMYLIST_COLUMN_INFO@@@std@@@3@$0A@@std@@@2@PAU342@@Z ; std::_Tree<std::_Tmap_traits<int,MYLIST_COLUMN_INFO,std::less<int>,std::allocator<std::pair<int const ,MYLIST_COLUMN_INFO> >,0> >::_Left
  00073	83 c4 04	 add	 esp, 4
  00076	89 45 d4	 mov	 DWORD PTR tv143[ebp], eax
  00079	8d 4d e0	 lea	 ecx, DWORD PTR $T192164[ebp]
  0007c	51		 push	 ecx
  0007d	8b 55 d4	 mov	 edx, DWORD PTR tv143[ebp]
  00080	52		 push	 edx
  00081	8b 4d ec	 mov	 ecx, DWORD PTR _this$[ebp]
  00084	83 c1 02	 add	 ecx, 2
  00087	e8 00 00 00 00	 call	 ?construct@?$allocator@PAU_Node@?$_Tree_nod@V?$_Tmap_traits@HUMYLIST_COLUMN_INFO@@U?$less@H@std@@V?$allocator@U?$pair@$$CBHUMYLIST_COLUMN_INFO@@@std@@@3@$0A@@std@@@std@@@std@@QAEXPAPAU_Node@?$_Tree_nod@V?$_Tmap_traits@HUMYLIST_COLUMN_INFO@@U?$less@H@std@@V?$allocator@U?$pair@$$CBHUMYLIST_COLUMN_INFO@@@std@@@3@$0A@@std@@@2@ABQAU342@@Z ; std::allocator<std::_Tree_nod<std::_Tmap_traits<int,MYLIST_COLUMN_INFO,std::less<int>,std::allocator<std::pair<int const ,MYLIST_COLUMN_INFO> >,0> >::_Node *>::construct

; 1111 : 		++_Linkcnt;

  0008c	8b 45 e4	 mov	 eax, DWORD PTR __Linkcnt$[ebp]
  0008f	83 c0 01	 add	 eax, 1
  00092	89 45 e4	 mov	 DWORD PTR __Linkcnt$[ebp], eax

; 1112 : 		this->_Alptr.construct(&_Parent(_Wherenode), 0);

  00095	c7 45 dc 00 00
	00 00		 mov	 DWORD PTR $T192165[ebp], 0
  0009c	8b 4d e8	 mov	 ecx, DWORD PTR __Wherenode$[ebp]
  0009f	51		 push	 ecx
  000a0	e8 00 00 00 00	 call	 ?_Parent@?$_Tree@V?$_Tmap_traits@HUMYLIST_COLUMN_INFO@@U?$less@H@std@@V?$allocator@U?$pair@$$CBHUMYLIST_COLUMN_INFO@@@std@@@3@$0A@@std@@@std@@KAAAPAU_Node@?$_Tree_nod@V?$_Tmap_traits@HUMYLIST_COLUMN_INFO@@U?$less@H@std@@V?$allocator@U?$pair@$$CBHUMYLIST_COLUMN_INFO@@@std@@@3@$0A@@std@@@2@PAU342@@Z ; std::_Tree<std::_Tmap_traits<int,MYLIST_COLUMN_INFO,std::less<int>,std::allocator<std::pair<int const ,MYLIST_COLUMN_INFO> >,0> >::_Parent
  000a5	83 c4 04	 add	 esp, 4
  000a8	89 45 d0	 mov	 DWORD PTR tv144[ebp], eax
  000ab	8d 55 dc	 lea	 edx, DWORD PTR $T192165[ebp]
  000ae	52		 push	 edx
  000af	8b 45 d0	 mov	 eax, DWORD PTR tv144[ebp]
  000b2	50		 push	 eax
  000b3	8b 4d ec	 mov	 ecx, DWORD PTR _this$[ebp]
  000b6	83 c1 02	 add	 ecx, 2
  000b9	e8 00 00 00 00	 call	 ?construct@?$allocator@PAU_Node@?$_Tree_nod@V?$_Tmap_traits@HUMYLIST_COLUMN_INFO@@U?$less@H@std@@V?$allocator@U?$pair@$$CBHUMYLIST_COLUMN_INFO@@@std@@@3@$0A@@std@@@std@@@std@@QAEXPAPAU_Node@?$_Tree_nod@V?$_Tmap_traits@HUMYLIST_COLUMN_INFO@@U?$less@H@std@@V?$allocator@U?$pair@$$CBHUMYLIST_COLUMN_INFO@@@std@@@3@$0A@@std@@@2@ABQAU342@@Z ; std::allocator<std::_Tree_nod<std::_Tmap_traits<int,MYLIST_COLUMN_INFO,std::less<int>,std::allocator<std::pair<int const ,MYLIST_COLUMN_INFO> >,0> >::_Node *>::construct

; 1113 : 		++_Linkcnt;

  000be	8b 4d e4	 mov	 ecx, DWORD PTR __Linkcnt$[ebp]
  000c1	83 c1 01	 add	 ecx, 1
  000c4	89 4d e4	 mov	 DWORD PTR __Linkcnt$[ebp], ecx

; 1114 : 		this->_Alptr.construct(&_Right(_Wherenode), 0);

  000c7	c7 45 d8 00 00
	00 00		 mov	 DWORD PTR $T192166[ebp], 0
  000ce	8b 55 e8	 mov	 edx, DWORD PTR __Wherenode$[ebp]
  000d1	52		 push	 edx
  000d2	e8 00 00 00 00	 call	 ?_Right@?$_Tree@V?$_Tmap_traits@HUMYLIST_COLUMN_INFO@@U?$less@H@std@@V?$allocator@U?$pair@$$CBHUMYLIST_COLUMN_INFO@@@std@@@3@$0A@@std@@@std@@KAAAPAU_Node@?$_Tree_nod@V?$_Tmap_traits@HUMYLIST_COLUMN_INFO@@U?$less@H@std@@V?$allocator@U?$pair@$$CBHUMYLIST_COLUMN_INFO@@@std@@@3@$0A@@std@@@2@PAU342@@Z ; std::_Tree<std::_Tmap_traits<int,MYLIST_COLUMN_INFO,std::less<int>,std::allocator<std::pair<int const ,MYLIST_COLUMN_INFO> >,0> >::_Right
  000d7	83 c4 04	 add	 esp, 4
  000da	89 45 cc	 mov	 DWORD PTR tv145[ebp], eax
  000dd	8d 45 d8	 lea	 eax, DWORD PTR $T192166[ebp]
  000e0	50		 push	 eax
  000e1	8b 4d cc	 mov	 ecx, DWORD PTR tv145[ebp]
  000e4	51		 push	 ecx
  000e5	8b 4d ec	 mov	 ecx, DWORD PTR _this$[ebp]
  000e8	83 c1 02	 add	 ecx, 2
  000eb	e8 00 00 00 00	 call	 ?construct@?$allocator@PAU_Node@?$_Tree_nod@V?$_Tmap_traits@HUMYLIST_COLUMN_INFO@@U?$less@H@std@@V?$allocator@U?$pair@$$CBHUMYLIST_COLUMN_INFO@@@std@@@3@$0A@@std@@@std@@@std@@QAEXPAPAU_Node@?$_Tree_nod@V?$_Tmap_traits@HUMYLIST_COLUMN_INFO@@U?$less@H@std@@V?$allocator@U?$pair@$$CBHUMYLIST_COLUMN_INFO@@@std@@@3@$0A@@std@@@2@ABQAU342@@Z ; std::allocator<std::_Tree_nod<std::_Tmap_traits<int,MYLIST_COLUMN_INFO,std::less<int>,std::allocator<std::pair<int const ,MYLIST_COLUMN_INFO> >,0> >::_Node *>::construct
  000f0	eb 56		 jmp	 SHORT $L192167
$L192168:

; 1115 : 		_CATCH_ALL
; 1116 : 		if (1 < _Linkcnt)

  000f2	83 7d e4 01	 cmp	 DWORD PTR __Linkcnt$[ebp], 1
  000f6	7e 18		 jle	 SHORT $L190746

; 1117 : 			this->_Alptr.destroy(&_Parent(_Wherenode));

  000f8	8b 55 e8	 mov	 edx, DWORD PTR __Wherenode$[ebp]
  000fb	52		 push	 edx
  000fc	e8 00 00 00 00	 call	 ?_Parent@?$_Tree@V?$_Tmap_traits@HUMYLIST_COLUMN_INFO@@U?$less@H@std@@V?$allocator@U?$pair@$$CBHUMYLIST_COLUMN_INFO@@@std@@@3@$0A@@std@@@std@@KAAAPAU_Node@?$_Tree_nod@V?$_Tmap_traits@HUMYLIST_COLUMN_INFO@@U?$less@H@std@@V?$allocator@U?$pair@$$CBHUMYLIST_COLUMN_INFO@@@std@@@3@$0A@@std@@@2@PAU342@@Z ; std::_Tree<std::_Tmap_traits<int,MYLIST_COLUMN_INFO,std::less<int>,std::allocator<std::pair<int const ,MYLIST_COLUMN_INFO> >,0> >::_Parent
  00101	83 c4 04	 add	 esp, 4
  00104	50		 push	 eax
  00105	8b 4d ec	 mov	 ecx, DWORD PTR _this$[ebp]
  00108	83 c1 02	 add	 ecx, 2
  0010b	e8 00 00 00 00	 call	 ?destroy@?$allocator@PAU_Node@?$_Tree_nod@V?$_Tmap_traits@HUMYLIST_COLUMN_INFO@@U?$less@H@std@@V?$allocator@U?$pair@$$CBHUMYLIST_COLUMN_INFO@@@std@@@3@$0A@@std@@@std@@@std@@QAEXPAPAU_Node@?$_Tree_nod@V?$_Tmap_traits@HUMYLIST_COLUMN_INFO@@U?$less@H@std@@V?$allocator@U?$pair@$$CBHUMYLIST_COLUMN_INFO@@@std@@@3@$0A@@std@@@2@@Z ; std::allocator<std::_Tree_nod<std::_Tmap_traits<int,MYLIST_COLUMN_INFO,std::less<int>,std::allocator<std::pair<int const ,MYLIST_COLUMN_INFO> >,0> >::_Node *>::destroy
$L190746:

; 1118 : 		if (0 < _Linkcnt)

  00110	83 7d e4 00	 cmp	 DWORD PTR __Linkcnt$[ebp], 0
  00114	7e 18		 jle	 SHORT $L190747

; 1119 : 			this->_Alptr.destroy(&_Left(_Wherenode));

  00116	8b 45 e8	 mov	 eax, DWORD PTR __Wherenode$[ebp]
  00119	50		 push	 eax
  0011a	e8 00 00 00 00	 call	 ?_Left@?$_Tree@V?$_Tmap_traits@HUMYLIST_COLUMN_INFO@@U?$less@H@std@@V?$allocator@U?$pair@$$CBHUMYLIST_COLUMN_INFO@@@std@@@3@$0A@@std@@@std@@KAAAPAU_Node@?$_Tree_nod@V?$_Tmap_traits@HUMYLIST_COLUMN_INFO@@U?$less@H@std@@V?$allocator@U?$pair@$$CBHUMYLIST_COLUMN_INFO@@@std@@@3@$0A@@std@@@2@PAU342@@Z ; std::_Tree<std::_Tmap_traits<int,MYLIST_COLUMN_INFO,std::less<int>,std::allocator<std::pair<int const ,MYLIST_COLUMN_INFO> >,0> >::_Left
  0011f	83 c4 04	 add	 esp, 4
  00122	50		 push	 eax
  00123	8b 4d ec	 mov	 ecx, DWORD PTR _this$[ebp]
  00126	83 c1 02	 add	 ecx, 2
  00129	e8 00 00 00 00	 call	 ?destroy@?$allocator@PAU_Node@?$_Tree_nod@V?$_Tmap_traits@HUMYLIST_COLUMN_INFO@@U?$less@H@std@@V?$allocator@U?$pair@$$CBHUMYLIST_COLUMN_INFO@@@std@@@3@$0A@@std@@@std@@@std@@QAEXPAPAU_Node@?$_Tree_nod@V?$_Tmap_traits@HUMYLIST_COLUMN_INFO@@U?$less@H@std@@V?$allocator@U?$pair@$$CBHUMYLIST_COLUMN_INFO@@@std@@@3@$0A@@std@@@2@@Z ; std::allocator<std::_Tree_nod<std::_Tmap_traits<int,MYLIST_COLUMN_INFO,std::less<int>,std::allocator<std::pair<int const ,MYLIST_COLUMN_INFO> >,0> >::_Node *>::destroy
$L190747:

; 1120 : 		this->_Alnod.deallocate(_Wherenode, 1);

  0012e	6a 01		 push	 1
  00130	8b 4d e8	 mov	 ecx, DWORD PTR __Wherenode$[ebp]
  00133	51		 push	 ecx
  00134	8b 4d ec	 mov	 ecx, DWORD PTR _this$[ebp]
  00137	83 c1 01	 add	 ecx, 1
  0013a	e8 00 00 00 00	 call	 ?deallocate@?$allocator@U_Node@?$_Tree_nod@V?$_Tmap_traits@HUMYLIST_COLUMN_INFO@@U?$less@H@std@@V?$allocator@U?$pair@$$CBHUMYLIST_COLUMN_INFO@@@std@@@3@$0A@@std@@@std@@@std@@QAEXPAU_Node@?$_Tree_nod@V?$_Tmap_traits@HUMYLIST_COLUMN_INFO@@U?$less@H@std@@V?$allocator@U?$pair@$$CBHUMYLIST_COLUMN_INFO@@@std@@@3@$0A@@std@@@2@I@Z ; std::allocator<std::_Tree_nod<std::_Tmap_traits<int,MYLIST_COLUMN_INFO,std::less<int>,std::allocator<std::pair<int const ,MYLIST_COLUMN_INFO> >,0> >::_Node>::deallocate

; 1121 : 		_RERAISE;

  0013f	6a 00		 push	 0
  00141	6a 00		 push	 0
  00143	e8 00 00 00 00	 call	 __CxxThrowException@8
$L192167:

; 1122 : 		_CATCH_END

  00148	c7 45 fc ff ff
	ff ff		 mov	 DWORD PTR __$EHRec$[ebp+12], -1

; 1123 : 		_Color(_Wherenode) = _Black;

  0014f	8b 55 e8	 mov	 edx, DWORD PTR __Wherenode$[ebp]
  00152	52		 push	 edx
  00153	e8 00 00 00 00	 call	 ?_Color@?$_Tree@V?$_Tmap_traits@HUMYLIST_COLUMN_INFO@@U?$less@H@std@@V?$allocator@U?$pair@$$CBHUMYLIST_COLUMN_INFO@@@std@@@3@$0A@@std@@@std@@KAAADPAU_Node@?$_Tree_nod@V?$_Tmap_traits@HUMYLIST_COLUMN_INFO@@U?$less@H@std@@V?$allocator@U?$pair@$$CBHUMYLIST_COLUMN_INFO@@@std@@@3@$0A@@std@@@2@@Z ; std::_Tree<std::_Tmap_traits<int,MYLIST_COLUMN_INFO,std::less<int>,std::allocator<std::pair<int const ,MYLIST_COLUMN_INFO> >,0> >::_Color
  00158	83 c4 04	 add	 esp, 4
  0015b	c6 00 01	 mov	 BYTE PTR [eax], 1

; 1124 : 		_Isnil(_Wherenode) = false;

  0015e	8b 45 e8	 mov	 eax, DWORD PTR __Wherenode$[ebp]
  00161	50		 push	 eax
  00162	e8 00 00 00 00	 call	 ?_Isnil@?$_Tree@V?$_Tmap_traits@HUMYLIST_COLUMN_INFO@@U?$less@H@std@@V?$allocator@U?$pair@$$CBHUMYLIST_COLUMN_INFO@@@std@@@3@$0A@@std@@@std@@KAAADPAU_Node@?$_Tree_nod@V?$_Tmap_traits@HUMYLIST_COLUMN_INFO@@U?$less@H@std@@V?$allocator@U?$pair@$$CBHUMYLIST_COLUMN_INFO@@@std@@@3@$0A@@std@@@2@@Z ; std::_Tree<std::_Tmap_traits<int,MYLIST_COLUMN_INFO,std::less<int>,std::allocator<std::pair<int const ,MYLIST_COLUMN_INFO> >,0> >::_Isnil
  00167	83 c4 04	 add	 esp, 4
  0016a	c6 00 00	 mov	 BYTE PTR [eax], 0

; 1125 : 		return (_Wherenode);

  0016d	8b 45 e8	 mov	 eax, DWORD PTR __Wherenode$[ebp]
$L192163:

; 1126 : 		}

  00170	8b 4d f4	 mov	 ecx, DWORD PTR __$EHRec$[ebp+4]
  00173	64 89 0d 00 00
	00 00		 mov	 DWORD PTR fs:__except_list, ecx
  0017a	5f		 pop	 edi
  0017b	5e		 pop	 esi
  0017c	5b		 pop	 ebx
  0017d	83 c4 34	 add	 esp, 52			; 00000034H
  00180	3b ec		 cmp	 ebp, esp
  00182	e8 00 00 00 00	 call	 __RTC_CheckEsp
  00187	8b e5		 mov	 esp, ebp
  00189	5d		 pop	 ebp
  0018a	c3		 ret	 0
_TEXT	ENDS
;	COMDAT text$x
text$x	SEGMENT
__ehhandler$?_Buynode@?$_Tree@V?$_Tmap_traits@HUMYLIST_COLUMN_INFO@@U?$less@H@std@@V?$allocator@U?$pair@$$CBHUMYLIST_COLUMN_INFO@@@std@@@3@$0A@@std@@@std@@IAEPAU_Node@?$_Tree_nod@V?$_Tmap_traits@HUMYLIST_COLUMN_INFO@@U?$less@H@std@@V?$allocator@U?$pair@$$CBHUMYLIST_COLUMN_INFO@@@std@@@3@$0A@@std@@@2@XZ:
  00000	b8 00 00 00 00	 mov	 eax, OFFSET FLAT:$T192170
  00005	e9 00 00 00 00	 jmp	 ___CxxFrameHandler
text$x	ENDS
?_Buynode@?$_Tree@V?$_Tmap_traits@HUMYLIST_COLUMN_INFO@@U?$less@H@std@@V?$allocator@U?$pair@$$CBHUMYLIST_COLUMN_INFO@@@std@@@3@$0A@@std@@@std@@IAEPAU_Node@?$_Tree_nod@V?$_Tmap_traits@HUMYLIST_COLUMN_INFO@@U?$less@H@std@@V?$allocator@U?$pair@$$CBHUMYLIST_COLUMN_INFO@@@std@@@3@$0A@@std@@@2@XZ ENDP ; std::_Tree<std::_Tmap_traits<int,MYLIST_COLUMN_INFO,std::less<int>,std::allocator<std::pair<int const ,MYLIST_COLUMN_INFO> >,0> >::_Buynode
PUBLIC	??0_Node@?$_Tree_nod@V?$_Tmap_traits@HUMYLIST_COLUMN_INFO@@U?$less@H@std@@V?$allocator@U?$pair@$$CBHUMYLIST_COLUMN_INFO@@@std@@@3@$0A@@std@@@std@@QAE@PAU012@00ABU?$pair@$$CBHUMYLIST_COLUMN_INFO@@@2@D@Z ; std::_Tree_nod<std::_Tmap_traits<int,MYLIST_COLUMN_INFO,std::less<int>,std::allocator<std::pair<int const ,MYLIST_COLUMN_INFO> >,0> >::_Node::_Node
PUBLIC	??2@YAPAXIPAX@Z					; operator new
PUBLIC	??3@YAXPAX0@Z					; operator delete
;	COMDAT xdata$x
xdata$x	SEGMENT
$T192188 DD	0ffffffffH
	DD	00H
	DD	00H
	DD	FLAT:$L192184
	DD	0ffffffffH
	DD	00H
$T192190 DD	00H
	DD	00H
	DD	00H
	DD	FLAT:$L192183
$T192189 DD	00H
	DD	01H
	DD	02H
	DD	01H
	DD	FLAT:$T192190
$T192186 DD	019930520H
	DD	03H
	DD	FLAT:$T192188
	DD	01H
	DD	FLAT:$T192189
	DD	2 DUP(00H)
; Function compile flags: /Odt /RTCsu
xdata$x	ENDS
;	COMDAT ?_Buynode@?$_Tree@V?$_Tmap_traits@HUMYLIST_COLUMN_INFO@@U?$less@H@std@@V?$allocator@U?$pair@$$CBHUMYLIST_COLUMN_INFO@@@std@@@3@$0A@@std@@@std@@IAEPAU_Node@?$_Tree_nod@V?$_Tmap_traits@HUMYLIST_COLUMN_INFO@@U?$less@H@std@@V?$allocator@U?$pair@$$CBHUMYLIST_COLUMN_INFO@@@std@@@3@$0A@@std@@@2@PAU342@00ABU?$pair@$$CBHUMYLIST_COLUMN_INFO@@@2@D@Z
_TEXT	SEGMENT
tv82 = -44						; size = 4
tv94 = -40						; size = 4
tv91 = -36						; size = 4
$T192179 = -32						; size = 4
$T192178 = -28						; size = 4
__Wherenode$ = -24					; size = 4
_this$ = -20						; size = 4
__$EHRec$ = -16						; size = 16
__Larg$ = 8						; size = 4
__Parg$ = 12						; size = 4
__Rarg$ = 16						; size = 4
__Val$ = 20						; size = 4
__Carg$ = 24						; size = 1
?_Buynode@?$_Tree@V?$_Tmap_traits@HUMYLIST_COLUMN_INFO@@U?$less@H@std@@V?$allocator@U?$pair@$$CBHUMYLIST_COLUMN_INFO@@@std@@@3@$0A@@std@@@std@@IAEPAU_Node@?$_Tree_nod@V?$_Tmap_traits@HUMYLIST_COLUMN_INFO@@U?$less@H@std@@V?$allocator@U?$pair@$$CBHUMYLIST_COLUMN_INFO@@@std@@@3@$0A@@std@@@2@PAU342@00ABU?$pair@$$CBHUMYLIST_COLUMN_INFO@@@2@D@Z PROC NEAR ; std::_Tree<std::_Tmap_traits<int,MYLIST_COLUMN_INFO,std::less<int>,std::allocator<std::pair<int const ,MYLIST_COLUMN_INFO> >,0> >::_Buynode, COMDAT
; _this$ = ecx

; 1130 : 		{	// allocate a node with pointers, value, and color

  00000	55		 push	 ebp
  00001	8b ec		 mov	 ebp, esp
  00003	6a ff		 push	 -1
  00005	68 00 00 00 00	 push	 __ehhandler$?_Buynode@?$_Tree@V?$_Tmap_traits@HUMYLIST_COLUMN_INFO@@U?$less@H@std@@V?$allocator@U?$pair@$$CBHUMYLIST_COLUMN_INFO@@@std@@@3@$0A@@std@@@std@@IAEPAU_Node@?$_Tree_nod@V?$_Tmap_traits@HUMYLIST_COLUMN_INFO@@U?$less@H@std@@V?$allocator@U?$pair@$$CBHUMYLIST_COLUMN_INFO@@@std@@@3@$0A@@std@@@2@PAU342@00ABU?$pair@$$CBHUMYLIST_COLUMN_INFO@@@2@D@Z
  0000a	64 a1 00 00 00
	00		 mov	 eax, DWORD PTR fs:__except_list
  00010	50		 push	 eax
  00011	64 89 25 00 00
	00 00		 mov	 DWORD PTR fs:__except_list, esp
  00018	51		 push	 ecx
  00019	83 ec 1c	 sub	 esp, 28			; 0000001cH
  0001c	53		 push	 ebx
  0001d	56		 push	 esi
  0001e	57		 push	 edi
  0001f	b8 cc cc cc cc	 mov	 eax, -858993460		; ccccccccH
  00024	89 45 d4	 mov	 DWORD PTR [ebp-44], eax
  00027	89 45 d8	 mov	 DWORD PTR [ebp-40], eax
  0002a	89 45 dc	 mov	 DWORD PTR [ebp-36], eax
  0002d	89 45 e0	 mov	 DWORD PTR [ebp-32], eax
  00030	89 45 e4	 mov	 DWORD PTR [ebp-28], eax
  00033	89 45 e8	 mov	 DWORD PTR [ebp-24], eax
  00036	89 45 ec	 mov	 DWORD PTR [ebp-20], eax
  00039	89 65 f0	 mov	 DWORD PTR __$EHRec$[ebp], esp
  0003c	89 4d ec	 mov	 DWORD PTR _this$[ebp], ecx

; 1131 : 		_Nodeptr _Wherenode = this->_Alnod.allocate(1);

  0003f	6a 01		 push	 1
  00041	8b 4d ec	 mov	 ecx, DWORD PTR _this$[ebp]
  00044	83 c1 01	 add	 ecx, 1
  00047	e8 00 00 00 00	 call	 ?allocate@?$allocator@U_Node@?$_Tree_nod@V?$_Tmap_traits@HUMYLIST_COLUMN_INFO@@U?$less@H@std@@V?$allocator@U?$pair@$$CBHUMYLIST_COLUMN_INFO@@@std@@@3@$0A@@std@@@std@@@std@@QAEPAU_Node@?$_Tree_nod@V?$_Tmap_traits@HUMYLIST_COLUMN_INFO@@U?$less@H@std@@V?$allocator@U?$pair@$$CBHUMYLIST_COLUMN_INFO@@@std@@@3@$0A@@std@@@2@I@Z ; std::allocator<std::_Tree_nod<std::_Tmap_traits<int,MYLIST_COLUMN_INFO,std::less<int>,std::allocator<std::pair<int const ,MYLIST_COLUMN_INFO> >,0> >::_Node>::allocate
  0004c	89 45 e8	 mov	 DWORD PTR __Wherenode$[ebp], eax

; 1132 : 		_TRY_BEGIN

  0004f	c7 45 fc 00 00
	00 00		 mov	 DWORD PTR __$EHRec$[ebp+12], 0

; 1133 : 		new (_Wherenode) _Node(_Larg, _Parg, _Rarg, _Val, _Carg);

  00056	8b 45 e8	 mov	 eax, DWORD PTR __Wherenode$[ebp]
  00059	50		 push	 eax
  0005a	6a 60		 push	 96			; 00000060H
  0005c	e8 00 00 00 00	 call	 ??2@YAPAXIPAX@Z		; operator new
  00061	83 c4 08	 add	 esp, 8
  00064	89 45 dc	 mov	 DWORD PTR tv91[ebp], eax
  00067	8b 4d dc	 mov	 ecx, DWORD PTR tv91[ebp]
  0006a	89 4d e0	 mov	 DWORD PTR $T192179[ebp], ecx
  0006d	c6 45 fc 01	 mov	 BYTE PTR __$EHRec$[ebp+12], 1
  00071	83 7d e0 00	 cmp	 DWORD PTR $T192179[ebp], 0
  00075	74 27		 je	 SHORT $L192180
  00077	8a 55 18	 mov	 dl, BYTE PTR __Carg$[ebp]
  0007a	52		 push	 edx
  0007b	8b 45 14	 mov	 eax, DWORD PTR __Val$[ebp]
  0007e	50		 push	 eax
  0007f	8b 4d 10	 mov	 ecx, DWORD PTR __Rarg$[ebp]
  00082	51		 push	 ecx
  00083	8b 55 0c	 mov	 edx, DWORD PTR __Parg$[ebp]
  00086	52		 push	 edx
  00087	8b 45 08	 mov	 eax, DWORD PTR __Larg$[ebp]
  0008a	50		 push	 eax
  0008b	8b 4d e0	 mov	 ecx, DWORD PTR $T192179[ebp]
  0008e	e8 00 00 00 00	 call	 ??0_Node@?$_Tree_nod@V?$_Tmap_traits@HUMYLIST_COLUMN_INFO@@U?$less@H@std@@V?$allocator@U?$pair@$$CBHUMYLIST_COLUMN_INFO@@@std@@@3@$0A@@std@@@std@@QAE@PAU012@00ABU?$pair@$$CBHUMYLIST_COLUMN_INFO@@@2@D@Z ; std::_Tree_nod<std::_Tmap_traits<int,MYLIST_COLUMN_INFO,std::less<int>,std::allocator<std::pair<int const ,MYLIST_COLUMN_INFO> >,0> >::_Node::_Node
  00093	89 45 d8	 mov	 DWORD PTR tv94[ebp], eax
  00096	8b 4d d8	 mov	 ecx, DWORD PTR tv94[ebp]
  00099	89 4d d4	 mov	 DWORD PTR tv82[ebp], ecx
  0009c	eb 07		 jmp	 SHORT $L192181
$L192180:
  0009e	c7 45 d4 00 00
	00 00		 mov	 DWORD PTR tv82[ebp], 0
$L192181:
  000a5	8b 55 d4	 mov	 edx, DWORD PTR tv82[ebp]
  000a8	89 55 e4	 mov	 DWORD PTR $T192178[ebp], edx
  000ab	c6 45 fc 00	 mov	 BYTE PTR __$EHRec$[ebp+12], 0
  000af	eb 1a		 jmp	 SHORT $L192182
$L192183:

; 1134 : 		_CATCH_ALL
; 1135 : 		this->_Alnod.deallocate(_Wherenode, 1);

  000b1	6a 01		 push	 1
  000b3	8b 45 e8	 mov	 eax, DWORD PTR __Wherenode$[ebp]
  000b6	50		 push	 eax
  000b7	8b 4d ec	 mov	 ecx, DWORD PTR _this$[ebp]
  000ba	83 c1 01	 add	 ecx, 1
  000bd	e8 00 00 00 00	 call	 ?deallocate@?$allocator@U_Node@?$_Tree_nod@V?$_Tmap_traits@HUMYLIST_COLUMN_INFO@@U?$less@H@std@@V?$allocator@U?$pair@$$CBHUMYLIST_COLUMN_INFO@@@std@@@3@$0A@@std@@@std@@@std@@QAEXPAU_Node@?$_Tree_nod@V?$_Tmap_traits@HUMYLIST_COLUMN_INFO@@U?$less@H@std@@V?$allocator@U?$pair@$$CBHUMYLIST_COLUMN_INFO@@@std@@@3@$0A@@std@@@2@I@Z ; std::allocator<std::_Tree_nod<std::_Tmap_traits<int,MYLIST_COLUMN_INFO,std::less<int>,std::allocator<std::pair<int const ,MYLIST_COLUMN_INFO> >,0> >::_Node>::deallocate

; 1136 : 		_RERAISE;

  000c2	6a 00		 push	 0
  000c4	6a 00		 push	 0
  000c6	e8 00 00 00 00	 call	 __CxxThrowException@8
$L192182:

; 1137 : 		_CATCH_END

  000cb	c7 45 fc ff ff
	ff ff		 mov	 DWORD PTR __$EHRec$[ebp+12], -1

; 1138 : 		return (_Wherenode);

  000d2	8b 45 e8	 mov	 eax, DWORD PTR __Wherenode$[ebp]
$L192177:

; 1139 : 		}

  000d5	8b 4d f4	 mov	 ecx, DWORD PTR __$EHRec$[ebp+4]
  000d8	64 89 0d 00 00
	00 00		 mov	 DWORD PTR fs:__except_list, ecx
  000df	5f		 pop	 edi
  000e0	5e		 pop	 esi
  000e1	5b		 pop	 ebx
  000e2	83 c4 2c	 add	 esp, 44			; 0000002cH
  000e5	3b ec		 cmp	 ebp, esp
  000e7	e8 00 00 00 00	 call	 __RTC_CheckEsp
  000ec	8b e5		 mov	 esp, ebp
  000ee	5d		 pop	 ebp
  000ef	c2 14 00	 ret	 20			; 00000014H
_TEXT	ENDS
;	COMDAT text$x
text$x	SEGMENT
$L192184:
  00000	8b 45 e8	 mov	 eax, DWORD PTR __Wherenode$[ebp]
  00003	50		 push	 eax
  00004	8b 4d e0	 mov	 ecx, DWORD PTR $T192179[ebp]
  00007	51		 push	 ecx
  00008	e8 00 00 00 00	 call	 ??3@YAXPAX0@Z		; operator delete
  0000d	83 c4 08	 add	 esp, 8
  00010	c3		 ret	 0
__ehhandler$?_Buynode@?$_Tree@V?$_Tmap_traits@HUMYLIST_COLUMN_INFO@@U?$less@H@std@@V?$allocator@U?$pair@$$CBHUMYLIST_COLUMN_INFO@@@std@@@3@$0A@@std@@@std@@IAEPAU_Node@?$_Tree_nod@V?$_Tmap_traits@HUMYLIST_COLUMN_INFO@@U?$less@H@std@@V?$allocator@U?$pair@$$CBHUMYLIST_COLUMN_INFO@@@std@@@3@$0A@@std@@@2@PAU342@00ABU?$pair@$$CBHUMYLIST_COLUMN_INFO@@@2@D@Z:
  00011	b8 00 00 00 00	 mov	 eax, OFFSET FLAT:$T192186
  00016	e9 00 00 00 00	 jmp	 ___CxxFrameHandler
text$x	ENDS
?_Buynode@?$_Tree@V?$_Tmap_traits@HUMYLIST_COLUMN_INFO@@U?$less@H@std@@V?$allocator@U?$pair@$$CBHUMYLIST_COLUMN_INFO@@@std@@@3@$0A@@std@@@std@@IAEPAU_Node@?$_Tree_nod@V?$_Tmap_traits@HUMYLIST_COLUMN_INFO@@U?$less@H@std@@V?$allocator@U?$pair@$$CBHUMYLIST_COLUMN_INFO@@@std@@@3@$0A@@std@@@2@PAU342@00ABU?$pair@$$CBHUMYLIST_COLUMN_INFO@@@2@D@Z ENDP ; std::_Tree<std::_Tmap_traits<int,MYLIST_COLUMN_INFO,std::less<int>,std::allocator<std::pair<int const ,MYLIST_COLUMN_INFO> >,0> >::_Buynode
; Function compile flags: /Odt /RTCsu
; File d:\program files (x86)\microsoft visual studio .net 2003\vc7\include\new.h
;	COMDAT ??2@YAPAXIPAX@Z
_TEXT	SEGMENT
___formal$ = 8						; size = 4
__P$ = 12						; size = 4
??2@YAPAXIPAX@Z PROC NEAR				; operator new, COMDAT

; 109  :         {return (_P); }

  00000	55		 push	 ebp
  00001	8b ec		 mov	 ebp, esp
  00003	8b 45 0c	 mov	 eax, DWORD PTR __P$[ebp]
  00006	5d		 pop	 ebp
  00007	c3		 ret	 0
??2@YAPAXIPAX@Z ENDP					; operator new
; Function compile flags: /Odt /RTCsu
_TEXT	ENDS
;	COMDAT ??3@YAXPAX0@Z
_TEXT	SEGMENT
___formal$ = 8						; size = 4
___formal$ = 12						; size = 4
??3@YAXPAX0@Z PROC NEAR					; operator delete, COMDAT

; 112  :         {return; }

  00000	55		 push	 ebp
  00001	8b ec		 mov	 ebp, esp
  00003	5d		 pop	 ebp
  00004	c3		 ret	 0
??3@YAXPAX0@Z ENDP					; operator delete
_TEXT	ENDS
PUBLIC	??$?0U?$pair@$$CBHUMYLIST_COLUMN_INFO@@@std@@@?$allocator@PAU_Node@?$_Tree_nod@V?$_Tmap_traits@HUMYLIST_COLUMN_INFO@@U?$less@H@std@@V?$allocator@U?$pair@$$CBHUMYLIST_COLUMN_INFO@@@std@@@3@$0A@@std@@@std@@@std@@QAE@ABV?$allocator@U?$pair@$$CBHUMYLIST_COLUMN_INFO@@@std@@@1@@Z ; std::allocator<std::_Tree_nod<std::_Tmap_traits<int,MYLIST_COLUMN_INFO,std::less<int>,std::allocator<std::pair<int const ,MYLIST_COLUMN_INFO> >,0> >::_Node *>::allocator<std::_Tree_nod<std::_Tmap_traits<int,MYLIST_COLUMN_INFO,std::less<int>,std::allocator<std::pair<int const ,MYLIST_COLUMN_INFO> >,0> >::_Node *><std::pair<int const ,MYLIST_COLUMN_INFO> >
PUBLIC	??0?$_Tree_nod@V?$_Tmap_traits@HUMYLIST_COLUMN_INFO@@U?$less@H@std@@V?$allocator@U?$pair@$$CBHUMYLIST_COLUMN_INFO@@@std@@@3@$0A@@std@@@std@@IAE@ABU?$less@H@1@V?$allocator@U?$pair@$$CBHUMYLIST_COLUMN_INFO@@@std@@@1@@Z ; std::_Tree_nod<std::_Tmap_traits<int,MYLIST_COLUMN_INFO,std::less<int>,std::allocator<std::pair<int const ,MYLIST_COLUMN_INFO> >,0> >::_Tree_nod<std::_Tmap_traits<int,MYLIST_COLUMN_INFO,std::less<int>,std::allocator<std::pair<int const ,MYLIST_COLUMN_INFO> >,0> >
; Function compile flags: /Odt /RTCsu
; File d:\program files (x86)\microsoft visual studio .net 2003\vc7\include\xtree
;	COMDAT ??0?$_Tree_ptr@V?$_Tmap_traits@HUMYLIST_COLUMN_INFO@@U?$less@H@std@@V?$allocator@U?$pair@$$CBHUMYLIST_COLUMN_INFO@@@std@@@3@$0A@@std@@@std@@IAE@ABU?$less@H@1@V?$allocator@U?$pair@$$CBHUMYLIST_COLUMN_INFO@@@std@@@1@@Z
_TEXT	SEGMENT
_this$ = -4						; size = 4
__Parg$ = 8						; size = 4
__Al$ = 12						; size = 1
??0?$_Tree_ptr@V?$_Tmap_traits@HUMYLIST_COLUMN_INFO@@U?$less@H@std@@V?$allocator@U?$pair@$$CBHUMYLIST_COLUMN_INFO@@@std@@@3@$0A@@std@@@std@@IAE@ABU?$less@H@1@V?$allocator@U?$pair@$$CBHUMYLIST_COLUMN_INFO@@@std@@@1@@Z PROC NEAR ; std::_Tree_ptr<std::_Tmap_traits<int,MYLIST_COLUMN_INFO,std::less<int>,std::allocator<std::pair<int const ,MYLIST_COLUMN_INFO> >,0> >::_Tree_ptr<std::_Tmap_traits<int,MYLIST_COLUMN_INFO,std::less<int>,std::allocator<std::pair<int const ,MYLIST_COLUMN_INFO> >,0> >, COMDAT
; _this$ = ecx

; 76   : 		{	// construct base, and allocator from _Al

  00000	55		 push	 ebp
  00001	8b ec		 mov	 ebp, esp
  00003	83 ec 08	 sub	 esp, 8
  00006	c7 45 f8 cc cc
	cc cc		 mov	 DWORD PTR [ebp-8], -858993460 ; ccccccccH
  0000d	c7 45 fc cc cc
	cc cc		 mov	 DWORD PTR [ebp-4], -858993460 ; ccccccccH
  00014	89 4d fc	 mov	 DWORD PTR _this$[ebp], ecx
  00017	51		 push	 ecx
  00018	8b cc		 mov	 ecx, esp
  0001a	8d 45 0c	 lea	 eax, DWORD PTR __Al$[ebp]
  0001d	50		 push	 eax
  0001e	e8 00 00 00 00	 call	 ??0?$allocator@U?$pair@$$CBHUMYLIST_COLUMN_INFO@@@std@@@std@@QAE@ABV01@@Z ; std::allocator<std::pair<int const ,MYLIST_COLUMN_INFO> >::allocator<std::pair<int const ,MYLIST_COLUMN_INFO> >
  00023	8b 4d 08	 mov	 ecx, DWORD PTR __Parg$[ebp]
  00026	51		 push	 ecx
  00027	8b 4d fc	 mov	 ecx, DWORD PTR _this$[ebp]
  0002a	e8 00 00 00 00	 call	 ??0?$_Tree_nod@V?$_Tmap_traits@HUMYLIST_COLUMN_INFO@@U?$less@H@std@@V?$allocator@U?$pair@$$CBHUMYLIST_COLUMN_INFO@@@std@@@3@$0A@@std@@@std@@IAE@ABU?$less@H@1@V?$allocator@U?$pair@$$CBHUMYLIST_COLUMN_INFO@@@std@@@1@@Z ; std::_Tree_nod<std::_Tmap_traits<int,MYLIST_COLUMN_INFO,std::less<int>,std::allocator<std::pair<int const ,MYLIST_COLUMN_INFO> >,0> >::_Tree_nod<std::_Tmap_traits<int,MYLIST_COLUMN_INFO,std::less<int>,std::allocator<std::pair<int const ,MYLIST_COLUMN_INFO> >,0> >
  0002f	8d 55 0c	 lea	 edx, DWORD PTR __Al$[ebp]
  00032	52		 push	 edx
  00033	8b 4d fc	 mov	 ecx, DWORD PTR _this$[ebp]
  00036	83 c1 02	 add	 ecx, 2
  00039	e8 00 00 00 00	 call	 ??$?0U?$pair@$$CBHUMYLIST_COLUMN_INFO@@@std@@@?$allocator@PAU_Node@?$_Tree_nod@V?$_Tmap_traits@HUMYLIST_COLUMN_INFO@@U?$less@H@std@@V?$allocator@U?$pair@$$CBHUMYLIST_COLUMN_INFO@@@std@@@3@$0A@@std@@@std@@@std@@QAE@ABV?$allocator@U?$pair@$$CBHUMYLIST_COLUMN_INFO@@@std@@@1@@Z ; std::allocator<std::_Tree_nod<std::_Tmap_traits<int,MYLIST_COLUMN_INFO,std::less<int>,std::allocator<std::pair<int const ,MYLIST_COLUMN_INFO> >,0> >::_Node *>::allocator<std::_Tree_nod<std::_Tmap_traits<int,MYLIST_COLUMN_INFO,std::less<int>,std::allocator<std::pair<int const ,MYLIST_COLUMN_INFO> >,0> >::_Node *><std::pair<int const ,MYLIST_COLUMN_INFO> >

; 77   : 		}

  0003e	8b 45 fc	 mov	 eax, DWORD PTR _this$[ebp]
  00041	83 c4 08	 add	 esp, 8
  00044	3b ec		 cmp	 ebp, esp
  00046	e8 00 00 00 00	 call	 __RTC_CheckEsp
  0004b	8b e5		 mov	 esp, ebp
  0004d	5d		 pop	 ebp
  0004e	c2 08 00	 ret	 8
??0?$_Tree_ptr@V?$_Tmap_traits@HUMYLIST_COLUMN_INFO@@U?$less@H@std@@V?$allocator@U?$pair@$$CBHUMYLIST_COLUMN_INFO@@@std@@@3@$0A@@std@@@std@@IAE@ABU?$less@H@1@V?$allocator@U?$pair@$$CBHUMYLIST_COLUMN_INFO@@@std@@@1@@Z ENDP ; std::_Tree_ptr<std::_Tmap_traits<int,MYLIST_COLUMN_INFO,std::less<int>,std::allocator<std::pair<int const ,MYLIST_COLUMN_INFO> >,0> >::_Tree_ptr<std::_Tmap_traits<int,MYLIST_COLUMN_INFO,std::less<int>,std::allocator<std::pair<int const ,MYLIST_COLUMN_INFO> >,0> >
; Function compile flags: /Odt /RTCsu
; File d:\program files (x86)\microsoft visual studio .net 2003\vc7\include\xmemory
_TEXT	ENDS
;	COMDAT ?max_size@?$allocator@H@std@@QBEIXZ
_TEXT	SEGMENT
tv65 = -12						; size = 4
__Count$ = -8						; size = 4
_this$ = -4						; size = 4
?max_size@?$allocator@H@std@@QBEIXZ PROC NEAR		; std::allocator<int>::max_size, COMDAT
; _this$ = ecx

; 156  : 		{	// estimate maximum array size

  00000	55		 push	 ebp
  00001	8b ec		 mov	 ebp, esp
  00003	83 ec 0c	 sub	 esp, 12			; 0000000cH
  00006	c7 45 f4 cc cc
	cc cc		 mov	 DWORD PTR [ebp-12], -858993460 ; ccccccccH
  0000d	c7 45 f8 cc cc
	cc cc		 mov	 DWORD PTR [ebp-8], -858993460 ; ccccccccH
  00014	c7 45 fc cc cc
	cc cc		 mov	 DWORD PTR [ebp-4], -858993460 ; ccccccccH
  0001b	89 4d fc	 mov	 DWORD PTR _this$[ebp], ecx

; 157  : 		_SIZT _Count = (_SIZT)(-1) / sizeof (_Ty);

  0001e	c7 45 f8 ff ff
	ff 3f		 mov	 DWORD PTR __Count$[ebp], 1073741823 ; 3fffffffH

; 158  : 		return (0 < _Count ? _Count : 1);

  00025	83 7d f8 00	 cmp	 DWORD PTR __Count$[ebp], 0
  00029	76 08		 jbe	 SHORT $L192198
  0002b	8b 45 f8	 mov	 eax, DWORD PTR __Count$[ebp]
  0002e	89 45 f4	 mov	 DWORD PTR tv65[ebp], eax
  00031	eb 07		 jmp	 SHORT $L192199
$L192198:
  00033	c7 45 f4 01 00
	00 00		 mov	 DWORD PTR tv65[ebp], 1
$L192199:
  0003a	8b 45 f4	 mov	 eax, DWORD PTR tv65[ebp]

; 159  : 		}

  0003d	8b e5		 mov	 esp, ebp
  0003f	5d		 pop	 ebp
  00040	c3		 ret	 0
?max_size@?$allocator@H@std@@QBEIXZ ENDP		; std::allocator<int>::max_size
; Function compile flags: /Odt /RTCsu
; File d:\program files (x86)\microsoft visual studio .net 2003\vc7\include\xtree
_TEXT	ENDS
;	COMDAT ??0const_iterator@?$_Tree@V?$_Tmap_traits@HUMYLIST_COLUMN_INFO@@U?$less@H@std@@V?$allocator@U?$pair@$$CBHUMYLIST_COLUMN_INFO@@@std@@@3@$0A@@std@@@std@@QAE@XZ
_TEXT	SEGMENT
_this$ = -4						; size = 4
??0const_iterator@?$_Tree@V?$_Tmap_traits@HUMYLIST_COLUMN_INFO@@U?$less@H@std@@V?$allocator@U?$pair@$$CBHUMYLIST_COLUMN_INFO@@@std@@@3@$0A@@std@@@std@@QAE@XZ PROC NEAR ; std::_Tree<std::_Tmap_traits<int,MYLIST_COLUMN_INFO,std::less<int>,std::allocator<std::pair<int const ,MYLIST_COLUMN_INFO> >,0> >::const_iterator::const_iterator, COMDAT
; _this$ = ecx

; 193  : 			{	// construct with null node pointer

  00000	55		 push	 ebp
  00001	8b ec		 mov	 ebp, esp
  00003	51		 push	 ecx
  00004	c7 45 fc cc cc
	cc cc		 mov	 DWORD PTR [ebp-4], -858993460 ; ccccccccH
  0000b	89 4d fc	 mov	 DWORD PTR _this$[ebp], ecx
  0000e	8b 45 fc	 mov	 eax, DWORD PTR _this$[ebp]
  00011	c7 00 00 00 00
	00		 mov	 DWORD PTR [eax], 0

; 194  : 			}

  00017	8b 45 fc	 mov	 eax, DWORD PTR _this$[ebp]
  0001a	8b e5		 mov	 esp, ebp
  0001c	5d		 pop	 ebp
  0001d	c3		 ret	 0
??0const_iterator@?$_Tree@V?$_Tmap_traits@HUMYLIST_COLUMN_INFO@@U?$less@H@std@@V?$allocator@U?$pair@$$CBHUMYLIST_COLUMN_INFO@@@std@@@3@$0A@@std@@@std@@QAE@XZ ENDP ; std::_Tree<std::_Tmap_traits<int,MYLIST_COLUMN_INFO,std::less<int>,std::allocator<std::pair<int const ,MYLIST_COLUMN_INFO> >,0> >::const_iterator::const_iterator
_TEXT	ENDS
PUBLIC	?_Dec@const_iterator@?$_Tree@V?$_Tmap_traits@HUMYLIST_COLUMN_INFO@@U?$less@H@std@@V?$allocator@U?$pair@$$CBHUMYLIST_COLUMN_INFO@@@std@@@3@$0A@@std@@@std@@QAEXXZ ; std::_Tree<std::_Tmap_traits<int,MYLIST_COLUMN_INFO,std::less<int>,std::allocator<std::pair<int const ,MYLIST_COLUMN_INFO> >,0> >::const_iterator::_Dec
; Function compile flags: /Odt /RTCsu
;	COMDAT ??Fconst_iterator@?$_Tree@V?$_Tmap_traits@HUMYLIST_COLUMN_INFO@@U?$less@H@std@@V?$allocator@U?$pair@$$CBHUMYLIST_COLUMN_INFO@@@std@@@3@$0A@@std@@@std@@QAEAAV012@XZ
_TEXT	SEGMENT
_this$ = -4						; size = 4
??Fconst_iterator@?$_Tree@V?$_Tmap_traits@HUMYLIST_COLUMN_INFO@@U?$less@H@std@@V?$allocator@U?$pair@$$CBHUMYLIST_COLUMN_INFO@@@std@@@3@$0A@@std@@@std@@QAEAAV012@XZ PROC NEAR ; std::_Tree<std::_Tmap_traits<int,MYLIST_COLUMN_INFO,std::less<int>,std::allocator<std::pair<int const ,MYLIST_COLUMN_INFO> >,0> >::const_iterator::operator--, COMDAT
; _this$ = ecx

; 227  : 			{	// predecrement

  00000	55		 push	 ebp
  00001	8b ec		 mov	 ebp, esp
  00003	51		 push	 ecx
  00004	c7 45 fc cc cc
	cc cc		 mov	 DWORD PTR [ebp-4], -858993460 ; ccccccccH
  0000b	89 4d fc	 mov	 DWORD PTR _this$[ebp], ecx

; 228  : 			_Dec();

  0000e	8b 4d fc	 mov	 ecx, DWORD PTR _this$[ebp]
  00011	e8 00 00 00 00	 call	 ?_Dec@const_iterator@?$_Tree@V?$_Tmap_traits@HUMYLIST_COLUMN_INFO@@U?$less@H@std@@V?$allocator@U?$pair@$$CBHUMYLIST_COLUMN_INFO@@@std@@@3@$0A@@std@@@std@@QAEXXZ ; std::_Tree<std::_Tmap_traits<int,MYLIST_COLUMN_INFO,std::less<int>,std::allocator<std::pair<int const ,MYLIST_COLUMN_INFO> >,0> >::const_iterator::_Dec

; 229  : 			return (*this);

  00016	8b 45 fc	 mov	 eax, DWORD PTR _this$[ebp]

; 230  : 			}

  00019	83 c4 04	 add	 esp, 4
  0001c	3b ec		 cmp	 ebp, esp
  0001e	e8 00 00 00 00	 call	 __RTC_CheckEsp
  00023	8b e5		 mov	 esp, ebp
  00025	5d		 pop	 ebp
  00026	c3		 ret	 0
??Fconst_iterator@?$_Tree@V?$_Tmap_traits@HUMYLIST_COLUMN_INFO@@U?$less@H@std@@V?$allocator@U?$pair@$$CBHUMYLIST_COLUMN_INFO@@@std@@@3@$0A@@std@@@std@@QAEAAV012@XZ ENDP ; std::_Tree<std::_Tmap_traits<int,MYLIST_COLUMN_INFO,std::less<int>,std::allocator<std::pair<int const ,MYLIST_COLUMN_INFO> >,0> >::const_iterator::operator--
; Function compile flags: /Odt /RTCsu
_TEXT	ENDS
;	COMDAT ?_Inc@const_iterator@?$_Tree@V?$_Tmap_traits@HUMYLIST_COLUMN_INFO@@U?$less@H@std@@V?$allocator@U?$pair@$$CBHUMYLIST_COLUMN_INFO@@@std@@@3@$0A@@std@@@std@@QAEXXZ
_TEXT	SEGMENT
__Pnode$190778 = -8					; size = 4
_this$ = -4						; size = 4
?_Inc@const_iterator@?$_Tree@V?$_Tmap_traits@HUMYLIST_COLUMN_INFO@@U?$less@H@std@@V?$allocator@U?$pair@$$CBHUMYLIST_COLUMN_INFO@@@std@@@3@$0A@@std@@@std@@QAEXXZ PROC NEAR ; std::_Tree<std::_Tmap_traits<int,MYLIST_COLUMN_INFO,std::less<int>,std::allocator<std::pair<int const ,MYLIST_COLUMN_INFO> >,0> >::const_iterator::_Inc, COMDAT
; _this$ = ecx

; 267  : 			{	// move to node with next larger value

  00000	55		 push	 ebp
  00001	8b ec		 mov	 ebp, esp
  00003	83 ec 08	 sub	 esp, 8
  00006	c7 45 f8 cc cc
	cc cc		 mov	 DWORD PTR [ebp-8], -858993460 ; ccccccccH
  0000d	c7 45 fc cc cc
	cc cc		 mov	 DWORD PTR [ebp-4], -858993460 ; ccccccccH
  00014	89 4d fc	 mov	 DWORD PTR _this$[ebp], ecx

; 268  : 			if (_Isnil(_Ptr))

  00017	8b 45 fc	 mov	 eax, DWORD PTR _this$[ebp]
  0001a	8b 08		 mov	 ecx, DWORD PTR [eax]
  0001c	51		 push	 ecx
  0001d	e8 00 00 00 00	 call	 ?_Isnil@?$_Tree@V?$_Tmap_traits@HUMYLIST_COLUMN_INFO@@U?$less@H@std@@V?$allocator@U?$pair@$$CBHUMYLIST_COLUMN_INFO@@@std@@@3@$0A@@std@@@std@@KAAADPAU_Node@?$_Tree_nod@V?$_Tmap_traits@HUMYLIST_COLUMN_INFO@@U?$less@H@std@@V?$allocator@U?$pair@$$CBHUMYLIST_COLUMN_INFO@@@std@@@3@$0A@@std@@@2@@Z ; std::_Tree<std::_Tmap_traits<int,MYLIST_COLUMN_INFO,std::less<int>,std::allocator<std::pair<int const ,MYLIST_COLUMN_INFO> >,0> >::_Isnil
  00022	83 c4 04	 add	 esp, 4
  00025	0f be 10	 movsx	 edx, BYTE PTR [eax]
  00028	85 d2		 test	 edx, edx
  0002a	74 05		 je	 SHORT $L190774

; 269  : 				;	// end() shouldn't be incremented, don't move
; 270  : 			else if (!_Isnil(_Right(_Ptr)))

  0002c	e9 8d 00 00 00	 jmp	 $L190773
$L190774:
  00031	8b 45 fc	 mov	 eax, DWORD PTR _this$[ebp]
  00034	8b 08		 mov	 ecx, DWORD PTR [eax]
  00036	51		 push	 ecx
  00037	e8 00 00 00 00	 call	 ?_Right@?$_Tree@V?$_Tmap_traits@HUMYLIST_COLUMN_INFO@@U?$less@H@std@@V?$allocator@U?$pair@$$CBHUMYLIST_COLUMN_INFO@@@std@@@3@$0A@@std@@@std@@KAAAPAU_Node@?$_Tree_nod@V?$_Tmap_traits@HUMYLIST_COLUMN_INFO@@U?$less@H@std@@V?$allocator@U?$pair@$$CBHUMYLIST_COLUMN_INFO@@@std@@@3@$0A@@std@@@2@PAU342@@Z ; std::_Tree<std::_Tmap_traits<int,MYLIST_COLUMN_INFO,std::less<int>,std::allocator<std::pair<int const ,MYLIST_COLUMN_INFO> >,0> >::_Right
  0003c	83 c4 04	 add	 esp, 4
  0003f	8b 10		 mov	 edx, DWORD PTR [eax]
  00041	52		 push	 edx
  00042	e8 00 00 00 00	 call	 ?_Isnil@?$_Tree@V?$_Tmap_traits@HUMYLIST_COLUMN_INFO@@U?$less@H@std@@V?$allocator@U?$pair@$$CBHUMYLIST_COLUMN_INFO@@@std@@@3@$0A@@std@@@std@@KAAADPAU_Node@?$_Tree_nod@V?$_Tmap_traits@HUMYLIST_COLUMN_INFO@@U?$less@H@std@@V?$allocator@U?$pair@$$CBHUMYLIST_COLUMN_INFO@@@std@@@3@$0A@@std@@@2@@Z ; std::_Tree<std::_Tmap_traits<int,MYLIST_COLUMN_INFO,std::less<int>,std::allocator<std::pair<int const ,MYLIST_COLUMN_INFO> >,0> >::_Isnil
  00047	83 c4 04	 add	 esp, 4
  0004a	0f be 00	 movsx	 eax, BYTE PTR [eax]
  0004d	85 c0		 test	 eax, eax
  0004f	75 20		 jne	 SHORT $L190780

; 271  : 				_Ptr = _Min(_Right(_Ptr));	// ==> smallest of right subtree

  00051	8b 4d fc	 mov	 ecx, DWORD PTR _this$[ebp]
  00054	8b 11		 mov	 edx, DWORD PTR [ecx]
  00056	52		 push	 edx
  00057	e8 00 00 00 00	 call	 ?_Right@?$_Tree@V?$_Tmap_traits@HUMYLIST_COLUMN_INFO@@U?$less@H@std@@V?$allocator@U?$pair@$$CBHUMYLIST_COLUMN_INFO@@@std@@@3@$0A@@std@@@std@@KAAAPAU_Node@?$_Tree_nod@V?$_Tmap_traits@HUMYLIST_COLUMN_INFO@@U?$less@H@std@@V?$allocator@U?$pair@$$CBHUMYLIST_COLUMN_INFO@@@std@@@3@$0A@@std@@@2@PAU342@@Z ; std::_Tree<std::_Tmap_traits<int,MYLIST_COLUMN_INFO,std::less<int>,std::allocator<std::pair<int const ,MYLIST_COLUMN_INFO> >,0> >::_Right
  0005c	83 c4 04	 add	 esp, 4
  0005f	8b 00		 mov	 eax, DWORD PTR [eax]
  00061	50		 push	 eax
  00062	e8 00 00 00 00	 call	 ?_Min@?$_Tree@V?$_Tmap_traits@HUMYLIST_COLUMN_INFO@@U?$less@H@std@@V?$allocator@U?$pair@$$CBHUMYLIST_COLUMN_INFO@@@std@@@3@$0A@@std@@@std@@KAPAU_Node@?$_Tree_nod@V?$_Tmap_traits@HUMYLIST_COLUMN_INFO@@U?$less@H@std@@V?$allocator@U?$pair@$$CBHUMYLIST_COLUMN_INFO@@@std@@@3@$0A@@std@@@2@PAU342@@Z ; std::_Tree<std::_Tmap_traits<int,MYLIST_COLUMN_INFO,std::less<int>,std::allocator<std::pair<int const ,MYLIST_COLUMN_INFO> >,0> >::_Min
  00067	83 c4 04	 add	 esp, 4
  0006a	8b 4d fc	 mov	 ecx, DWORD PTR _this$[ebp]
  0006d	89 01		 mov	 DWORD PTR [ecx], eax

; 272  : 			else

  0006f	eb 4d		 jmp	 SHORT $L190773
$L190780:

; 273  : 				{	// climb looking for right subtree
; 274  : 				_Nodeptr _Pnode;
; 275  : 				while (!_Isnil(_Pnode = _Parent(_Ptr))
; 276  : 					&& _Ptr == _Right(_Pnode))

  00071	8b 55 fc	 mov	 edx, DWORD PTR _this$[ebp]
  00074	8b 02		 mov	 eax, DWORD PTR [edx]
  00076	50		 push	 eax
  00077	e8 00 00 00 00	 call	 ?_Parent@?$_Tree@V?$_Tmap_traits@HUMYLIST_COLUMN_INFO@@U?$less@H@std@@V?$allocator@U?$pair@$$CBHUMYLIST_COLUMN_INFO@@@std@@@3@$0A@@std@@@std@@KAAAPAU_Node@?$_Tree_nod@V?$_Tmap_traits@HUMYLIST_COLUMN_INFO@@U?$less@H@std@@V?$allocator@U?$pair@$$CBHUMYLIST_COLUMN_INFO@@@std@@@3@$0A@@std@@@2@PAU342@@Z ; std::_Tree<std::_Tmap_traits<int,MYLIST_COLUMN_INFO,std::less<int>,std::allocator<std::pair<int const ,MYLIST_COLUMN_INFO> >,0> >::_Parent
  0007c	83 c4 04	 add	 esp, 4
  0007f	8b 08		 mov	 ecx, DWORD PTR [eax]
  00081	89 4d f8	 mov	 DWORD PTR __Pnode$190778[ebp], ecx
  00084	8b 55 f8	 mov	 edx, DWORD PTR __Pnode$190778[ebp]
  00087	52		 push	 edx
  00088	e8 00 00 00 00	 call	 ?_Isnil@?$_Tree@V?$_Tmap_traits@HUMYLIST_COLUMN_INFO@@U?$less@H@std@@V?$allocator@U?$pair@$$CBHUMYLIST_COLUMN_INFO@@@std@@@3@$0A@@std@@@std@@KAAADPAU_Node@?$_Tree_nod@V?$_Tmap_traits@HUMYLIST_COLUMN_INFO@@U?$less@H@std@@V?$allocator@U?$pair@$$CBHUMYLIST_COLUMN_INFO@@@std@@@3@$0A@@std@@@2@@Z ; std::_Tree<std::_Tmap_traits<int,MYLIST_COLUMN_INFO,std::less<int>,std::allocator<std::pair<int const ,MYLIST_COLUMN_INFO> >,0> >::_Isnil
  0008d	83 c4 04	 add	 esp, 4
  00090	0f be 00	 movsx	 eax, BYTE PTR [eax]
  00093	85 c0		 test	 eax, eax
  00095	75 1f		 jne	 SHORT $L190781
  00097	8b 4d f8	 mov	 ecx, DWORD PTR __Pnode$190778[ebp]
  0009a	51		 push	 ecx
  0009b	e8 00 00 00 00	 call	 ?_Right@?$_Tree@V?$_Tmap_traits@HUMYLIST_COLUMN_INFO@@U?$less@H@std@@V?$allocator@U?$pair@$$CBHUMYLIST_COLUMN_INFO@@@std@@@3@$0A@@std@@@std@@KAAAPAU_Node@?$_Tree_nod@V?$_Tmap_traits@HUMYLIST_COLUMN_INFO@@U?$less@H@std@@V?$allocator@U?$pair@$$CBHUMYLIST_COLUMN_INFO@@@std@@@3@$0A@@std@@@2@PAU342@@Z ; std::_Tree<std::_Tmap_traits<int,MYLIST_COLUMN_INFO,std::less<int>,std::allocator<std::pair<int const ,MYLIST_COLUMN_INFO> >,0> >::_Right
  000a0	83 c4 04	 add	 esp, 4
  000a3	8b 55 fc	 mov	 edx, DWORD PTR _this$[ebp]
  000a6	8b 0a		 mov	 ecx, DWORD PTR [edx]
  000a8	3b 08		 cmp	 ecx, DWORD PTR [eax]
  000aa	75 0a		 jne	 SHORT $L190781

; 277  : 					_Ptr = _Pnode;	// ==> parent while right subtree

  000ac	8b 55 fc	 mov	 edx, DWORD PTR _this$[ebp]
  000af	8b 45 f8	 mov	 eax, DWORD PTR __Pnode$190778[ebp]
  000b2	89 02		 mov	 DWORD PTR [edx], eax
  000b4	eb bb		 jmp	 SHORT $L190780
$L190781:

; 278  : 				_Ptr = _Pnode;	// ==> parent (head if end())

  000b6	8b 4d fc	 mov	 ecx, DWORD PTR _this$[ebp]
  000b9	8b 55 f8	 mov	 edx, DWORD PTR __Pnode$190778[ebp]
  000bc	89 11		 mov	 DWORD PTR [ecx], edx
$L190773:

; 279  : 				}
; 280  : 			}

  000be	83 c4 08	 add	 esp, 8
  000c1	3b ec		 cmp	 ebp, esp
  000c3	e8 00 00 00 00	 call	 __RTC_CheckEsp
  000c8	8b e5		 mov	 esp, ebp
  000ca	5d		 pop	 ebp
  000cb	c3		 ret	 0
?_Inc@const_iterator@?$_Tree@V?$_Tmap_traits@HUMYLIST_COLUMN_INFO@@U?$less@H@std@@V?$allocator@U?$pair@$$CBHUMYLIST_COLUMN_INFO@@@std@@@3@$0A@@std@@@std@@QAEXXZ ENDP ; std::_Tree<std::_Tmap_traits<int,MYLIST_COLUMN_INFO,std::less<int>,std::allocator<std::pair<int const ,MYLIST_COLUMN_INFO> >,0> >::const_iterator::_Inc
; Function compile flags: /Odt /RTCsu
; File d:\program files (x86)\microsoft visual studio .net 2003\vc7\include\utility
_TEXT	ENDS
;	COMDAT ??0?$pair@Viterator@?$_Tree@V?$_Tmap_traits@HUMYLIST_COLUMN_INFO@@U?$less@H@std@@V?$allocator@U?$pair@$$CBHUMYLIST_COLUMN_INFO@@@std@@@3@$0A@@std@@@std@@_N@std@@QAE@ABViterator@?$_Tree@V?$_Tmap_traits@HUMYLIST_COLUMN_INFO@@U?$less@H@std@@V?$allocator@U?$pair@$$CBHUMYLIST_COLUMN_INFO@@@std@@@3@$0A@@std@@@1@AB_N@Z
_TEXT	SEGMENT
_this$ = -4						; size = 4
__Val1$ = 8						; size = 4
__Val2$ = 12						; size = 4
??0?$pair@Viterator@?$_Tree@V?$_Tmap_traits@HUMYLIST_COLUMN_INFO@@U?$less@H@std@@V?$allocator@U?$pair@$$CBHUMYLIST_COLUMN_INFO@@@std@@@3@$0A@@std@@@std@@_N@std@@QAE@ABViterator@?$_Tree@V?$_Tmap_traits@HUMYLIST_COLUMN_INFO@@U?$less@H@std@@V?$allocator@U?$pair@$$CBHUMYLIST_COLUMN_INFO@@@std@@@3@$0A@@std@@@1@AB_N@Z PROC NEAR ; std::pair<std::_Tree<std::_Tmap_traits<int,MYLIST_COLUMN_INFO,std::less<int>,std::allocator<std::pair<int const ,MYLIST_COLUMN_INFO> >,0> >::iterator,bool>::pair<std::_Tree<std::_Tmap_traits<int,MYLIST_COLUMN_INFO,std::less<int>,std::allocator<std::pair<int const ,MYLIST_COLUMN_INFO> >,0> >::iterator,bool>, COMDAT
; _this$ = ecx

; 34   : 		{	// construct from specified values

  00000	55		 push	 ebp
  00001	8b ec		 mov	 ebp, esp
  00003	51		 push	 ecx
  00004	c7 45 fc cc cc
	cc cc		 mov	 DWORD PTR [ebp-4], -858993460 ; ccccccccH
  0000b	89 4d fc	 mov	 DWORD PTR _this$[ebp], ecx
  0000e	8b 45 08	 mov	 eax, DWORD PTR __Val1$[ebp]
  00011	8b 08		 mov	 ecx, DWORD PTR [eax]
  00013	8b 55 fc	 mov	 edx, DWORD PTR _this$[ebp]
  00016	89 0a		 mov	 DWORD PTR [edx], ecx
  00018	8b 45 fc	 mov	 eax, DWORD PTR _this$[ebp]
  0001b	8b 4d 0c	 mov	 ecx, DWORD PTR __Val2$[ebp]
  0001e	8a 11		 mov	 dl, BYTE PTR [ecx]
  00020	88 50 04	 mov	 BYTE PTR [eax+4], dl

; 35   : 		}

  00023	8b 45 fc	 mov	 eax, DWORD PTR _this$[ebp]
  00026	8b e5		 mov	 esp, ebp
  00028	5d		 pop	 ebp
  00029	c2 08 00	 ret	 8
??0?$pair@Viterator@?$_Tree@V?$_Tmap_traits@HUMYLIST_COLUMN_INFO@@U?$less@H@std@@V?$allocator@U?$pair@$$CBHUMYLIST_COLUMN_INFO@@@std@@@3@$0A@@std@@@std@@_N@std@@QAE@ABViterator@?$_Tree@V?$_Tmap_traits@HUMYLIST_COLUMN_INFO@@U?$less@H@std@@V?$allocator@U?$pair@$$CBHUMYLIST_COLUMN_INFO@@@std@@@3@$0A@@std@@@1@AB_N@Z ENDP ; std::pair<std::_Tree<std::_Tmap_traits<int,MYLIST_COLUMN_INFO,std::less<int>,std::allocator<std::pair<int const ,MYLIST_COLUMN_INFO> >,0> >::iterator,bool>::pair<std::_Tree<std::_Tmap_traits<int,MYLIST_COLUMN_INFO,std::less<int>,std::allocator<std::pair<int const ,MYLIST_COLUMN_INFO> >,0> >::iterator,bool>
; Function compile flags: /Odt /RTCsu
; File d:\program files (x86)\microsoft visual studio .net 2003\vc7\include\xtree
_TEXT	ENDS
;	COMDAT ?_Max@?$_Tree@V?$_Tmap_traits@HUMYLIST_COLUMN_INFO@@U?$less@H@std@@V?$allocator@U?$pair@$$CBHUMYLIST_COLUMN_INFO@@@std@@@3@$0A@@std@@@std@@KAPAU_Node@?$_Tree_nod@V?$_Tmap_traits@HUMYLIST_COLUMN_INFO@@U?$less@H@std@@V?$allocator@U?$pair@$$CBHUMYLIST_COLUMN_INFO@@@std@@@3@$0A@@std@@@2@PAU342@@Z
_TEXT	SEGMENT
__Pnode$ = 8						; size = 4
?_Max@?$_Tree@V?$_Tmap_traits@HUMYLIST_COLUMN_INFO@@U?$less@H@std@@V?$allocator@U?$pair@$$CBHUMYLIST_COLUMN_INFO@@@std@@@3@$0A@@std@@@std@@KAPAU_Node@?$_Tree_nod@V?$_Tmap_traits@HUMYLIST_COLUMN_INFO@@U?$less@H@std@@V?$allocator@U?$pair@$$CBHUMYLIST_COLUMN_INFO@@@std@@@3@$0A@@std@@@2@PAU342@@Z PROC NEAR ; std::_Tree<std::_Tmap_traits<int,MYLIST_COLUMN_INFO,std::less<int>,std::allocator<std::pair<int const ,MYLIST_COLUMN_INFO> >,0> >::_Max, COMDAT

; 1034 : 		{	// return rightmost node in subtree at _Pnode

  00000	55		 push	 ebp
  00001	8b ec		 mov	 ebp, esp
$L190786:

; 1035 : 		while (!_Isnil(_Right(_Pnode)))

  00003	8b 45 08	 mov	 eax, DWORD PTR __Pnode$[ebp]
  00006	50		 push	 eax
  00007	e8 00 00 00 00	 call	 ?_Right@?$_Tree@V?$_Tmap_traits@HUMYLIST_COLUMN_INFO@@U?$less@H@std@@V?$allocator@U?$pair@$$CBHUMYLIST_COLUMN_INFO@@@std@@@3@$0A@@std@@@std@@KAAAPAU_Node@?$_Tree_nod@V?$_Tmap_traits@HUMYLIST_COLUMN_INFO@@U?$less@H@std@@V?$allocator@U?$pair@$$CBHUMYLIST_COLUMN_INFO@@@std@@@3@$0A@@std@@@2@PAU342@@Z ; std::_Tree<std::_Tmap_traits<int,MYLIST_COLUMN_INFO,std::less<int>,std::allocator<std::pair<int const ,MYLIST_COLUMN_INFO> >,0> >::_Right
  0000c	83 c4 04	 add	 esp, 4
  0000f	8b 08		 mov	 ecx, DWORD PTR [eax]
  00011	51		 push	 ecx
  00012	e8 00 00 00 00	 call	 ?_Isnil@?$_Tree@V?$_Tmap_traits@HUMYLIST_COLUMN_INFO@@U?$less@H@std@@V?$allocator@U?$pair@$$CBHUMYLIST_COLUMN_INFO@@@std@@@3@$0A@@std@@@std@@KAAADPAU_Node@?$_Tree_nod@V?$_Tmap_traits@HUMYLIST_COLUMN_INFO@@U?$less@H@std@@V?$allocator@U?$pair@$$CBHUMYLIST_COLUMN_INFO@@@std@@@3@$0A@@std@@@2@@Z ; std::_Tree<std::_Tmap_traits<int,MYLIST_COLUMN_INFO,std::less<int>,std::allocator<std::pair<int const ,MYLIST_COLUMN_INFO> >,0> >::_Isnil
  00017	83 c4 04	 add	 esp, 4
  0001a	0f be 10	 movsx	 edx, BYTE PTR [eax]
  0001d	85 d2		 test	 edx, edx
  0001f	75 13		 jne	 SHORT $L190787

; 1036 : 			_Pnode = _Right(_Pnode);

  00021	8b 45 08	 mov	 eax, DWORD PTR __Pnode$[ebp]
  00024	50		 push	 eax
  00025	e8 00 00 00 00	 call	 ?_Right@?$_Tree@V?$_Tmap_traits@HUMYLIST_COLUMN_INFO@@U?$less@H@std@@V?$allocator@U?$pair@$$CBHUMYLIST_COLUMN_INFO@@@std@@@3@$0A@@std@@@std@@KAAAPAU_Node@?$_Tree_nod@V?$_Tmap_traits@HUMYLIST_COLUMN_INFO@@U?$less@H@std@@V?$allocator@U?$pair@$$CBHUMYLIST_COLUMN_INFO@@@std@@@3@$0A@@std@@@2@PAU342@@Z ; std::_Tree<std::_Tmap_traits<int,MYLIST_COLUMN_INFO,std::less<int>,std::allocator<std::pair<int const ,MYLIST_COLUMN_INFO> >,0> >::_Right
  0002a	83 c4 04	 add	 esp, 4
  0002d	8b 08		 mov	 ecx, DWORD PTR [eax]
  0002f	89 4d 08	 mov	 DWORD PTR __Pnode$[ebp], ecx
  00032	eb cf		 jmp	 SHORT $L190786
$L190787:

; 1037 : 		return (_Pnode);

  00034	8b 45 08	 mov	 eax, DWORD PTR __Pnode$[ebp]

; 1038 : 		}

  00037	3b ec		 cmp	 ebp, esp
  00039	e8 00 00 00 00	 call	 __RTC_CheckEsp
  0003e	5d		 pop	 ebp
  0003f	c3		 ret	 0
?_Max@?$_Tree@V?$_Tmap_traits@HUMYLIST_COLUMN_INFO@@U?$less@H@std@@V?$allocator@U?$pair@$$CBHUMYLIST_COLUMN_INFO@@@std@@@3@$0A@@std@@@std@@KAPAU_Node@?$_Tree_nod@V?$_Tmap_traits@HUMYLIST_COLUMN_INFO@@U?$less@H@std@@V?$allocator@U?$pair@$$CBHUMYLIST_COLUMN_INFO@@@std@@@3@$0A@@std@@@2@PAU342@@Z ENDP ; std::_Tree<std::_Tmap_traits<int,MYLIST_COLUMN_INFO,std::less<int>,std::allocator<std::pair<int const ,MYLIST_COLUMN_INFO> >,0> >::_Max
; Function compile flags: /Odt /RTCsu
_TEXT	ENDS
;	COMDAT ?_Min@?$_Tree@V?$_Tmap_traits@HUMYLIST_COLUMN_INFO@@U?$less@H@std@@V?$allocator@U?$pair@$$CBHUMYLIST_COLUMN_INFO@@@std@@@3@$0A@@std@@@std@@KAPAU_Node@?$_Tree_nod@V?$_Tmap_traits@HUMYLIST_COLUMN_INFO@@U?$less@H@std@@V?$allocator@U?$pair@$$CBHUMYLIST_COLUMN_INFO@@@std@@@3@$0A@@std@@@2@PAU342@@Z
_TEXT	SEGMENT
__Pnode$ = 8						; size = 4
?_Min@?$_Tree@V?$_Tmap_traits@HUMYLIST_COLUMN_INFO@@U?$less@H@std@@V?$allocator@U?$pair@$$CBHUMYLIST_COLUMN_INFO@@@std@@@3@$0A@@std@@@std@@KAPAU_Node@?$_Tree_nod@V?$_Tmap_traits@HUMYLIST_COLUMN_INFO@@U?$less@H@std@@V?$allocator@U?$pair@$$CBHUMYLIST_COLUMN_INFO@@@std@@@3@$0A@@std@@@2@PAU342@@Z PROC NEAR ; std::_Tree<std::_Tmap_traits<int,MYLIST_COLUMN_INFO,std::less<int>,std::allocator<std::pair<int const ,MYLIST_COLUMN_INFO> >,0> >::_Min, COMDAT

; 1041 : 		{	// return leftmost node in subtree at _Pnode

  00000	55		 push	 ebp
  00001	8b ec		 mov	 ebp, esp
$L190790:

; 1042 : 		while (!_Isnil(_Left(_Pnode)))

  00003	8b 45 08	 mov	 eax, DWORD PTR __Pnode$[ebp]
  00006	50		 push	 eax
  00007	e8 00 00 00 00	 call	 ?_Left@?$_Tree@V?$_Tmap_traits@HUMYLIST_COLUMN_INFO@@U?$less@H@std@@V?$allocator@U?$pair@$$CBHUMYLIST_COLUMN_INFO@@@std@@@3@$0A@@std@@@std@@KAAAPAU_Node@?$_Tree_nod@V?$_Tmap_traits@HUMYLIST_COLUMN_INFO@@U?$less@H@std@@V?$allocator@U?$pair@$$CBHUMYLIST_COLUMN_INFO@@@std@@@3@$0A@@std@@@2@PAU342@@Z ; std::_Tree<std::_Tmap_traits<int,MYLIST_COLUMN_INFO,std::less<int>,std::allocator<std::pair<int const ,MYLIST_COLUMN_INFO> >,0> >::_Left
  0000c	83 c4 04	 add	 esp, 4
  0000f	8b 08		 mov	 ecx, DWORD PTR [eax]
  00011	51		 push	 ecx
  00012	e8 00 00 00 00	 call	 ?_Isnil@?$_Tree@V?$_Tmap_traits@HUMYLIST_COLUMN_INFO@@U?$less@H@std@@V?$allocator@U?$pair@$$CBHUMYLIST_COLUMN_INFO@@@std@@@3@$0A@@std@@@std@@KAAADPAU_Node@?$_Tree_nod@V?$_Tmap_traits@HUMYLIST_COLUMN_INFO@@U?$less@H@std@@V?$allocator@U?$pair@$$CBHUMYLIST_COLUMN_INFO@@@std@@@3@$0A@@std@@@2@@Z ; std::_Tree<std::_Tmap_traits<int,MYLIST_COLUMN_INFO,std::less<int>,std::allocator<std::pair<int const ,MYLIST_COLUMN_INFO> >,0> >::_Isnil
  00017	83 c4 04	 add	 esp, 4
  0001a	0f be 10	 movsx	 edx, BYTE PTR [eax]
  0001d	85 d2		 test	 edx, edx
  0001f	75 13		 jne	 SHORT $L190791

; 1043 : 			_Pnode = _Left(_Pnode);

  00021	8b 45 08	 mov	 eax, DWORD PTR __Pnode$[ebp]
  00024	50		 push	 eax
  00025	e8 00 00 00 00	 call	 ?_Left@?$_Tree@V?$_Tmap_traits@HUMYLIST_COLUMN_INFO@@U?$less@H@std@@V?$allocator@U?$pair@$$CBHUMYLIST_COLUMN_INFO@@@std@@@3@$0A@@std@@@std@@KAAAPAU_Node@?$_Tree_nod@V?$_Tmap_traits@HUMYLIST_COLUMN_INFO@@U?$less@H@std@@V?$allocator@U?$pair@$$CBHUMYLIST_COLUMN_INFO@@@std@@@3@$0A@@std@@@2@PAU342@@Z ; std::_Tree<std::_Tmap_traits<int,MYLIST_COLUMN_INFO,std::less<int>,std::allocator<std::pair<int const ,MYLIST_COLUMN_INFO> >,0> >::_Left
  0002a	83 c4 04	 add	 esp, 4
  0002d	8b 08		 mov	 ecx, DWORD PTR [eax]
  0002f	89 4d 08	 mov	 DWORD PTR __Pnode$[ebp], ecx
  00032	eb cf		 jmp	 SHORT $L190790
$L190791:

; 1044 : 		return (_Pnode);

  00034	8b 45 08	 mov	 eax, DWORD PTR __Pnode$[ebp]

; 1045 : 		}

  00037	3b ec		 cmp	 ebp, esp
  00039	e8 00 00 00 00	 call	 __RTC_CheckEsp
  0003e	5d		 pop	 ebp
  0003f	c3		 ret	 0
?_Min@?$_Tree@V?$_Tmap_traits@HUMYLIST_COLUMN_INFO@@U?$less@H@std@@V?$allocator@U?$pair@$$CBHUMYLIST_COLUMN_INFO@@@std@@@3@$0A@@std@@@std@@KAPAU_Node@?$_Tree_nod@V?$_Tmap_traits@HUMYLIST_COLUMN_INFO@@U?$less@H@std@@V?$allocator@U?$pair@$$CBHUMYLIST_COLUMN_INFO@@@std@@@3@$0A@@std@@@2@PAU342@@Z ENDP ; std::_Tree<std::_Tmap_traits<int,MYLIST_COLUMN_INFO,std::less<int>,std::allocator<std::pair<int const ,MYLIST_COLUMN_INFO> >,0> >::_Min
_TEXT	ENDS
PUBLIC	??$?0U?$pair@$$CBHUMYLIST_COLUMN_INFO@@@std@@@?$allocator@U_Node@?$_Tree_nod@V?$_Tmap_traits@HUMYLIST_COLUMN_INFO@@U?$less@H@std@@V?$allocator@U?$pair@$$CBHUMYLIST_COLUMN_INFO@@@std@@@3@$0A@@std@@@std@@@std@@QAE@ABV?$allocator@U?$pair@$$CBHUMYLIST_COLUMN_INFO@@@std@@@1@@Z ; std::allocator<std::_Tree_nod<std::_Tmap_traits<int,MYLIST_COLUMN_INFO,std::less<int>,std::allocator<std::pair<int const ,MYLIST_COLUMN_INFO> >,0> >::_Node>::allocator<std::_Tree_nod<std::_Tmap_traits<int,MYLIST_COLUMN_INFO,std::less<int>,std::allocator<std::pair<int const ,MYLIST_COLUMN_INFO> >,0> >::_Node><std::pair<int const ,MYLIST_COLUMN_INFO> >
PUBLIC	??0?$_Tmap_traits@HUMYLIST_COLUMN_INFO@@U?$less@H@std@@V?$allocator@U?$pair@$$CBHUMYLIST_COLUMN_INFO@@@std@@@3@$0A@@std@@QAE@U?$less@H@1@@Z ; std::_Tmap_traits<int,MYLIST_COLUMN_INFO,std::less<int>,std::allocator<std::pair<int const ,MYLIST_COLUMN_INFO> >,0>::_Tmap_traits<int,MYLIST_COLUMN_INFO,std::less<int>,std::allocator<std::pair<int const ,MYLIST_COLUMN_INFO> >,0>
; Function compile flags: /Odt /RTCsu
;	COMDAT ??0?$_Tree_nod@V?$_Tmap_traits@HUMYLIST_COLUMN_INFO@@U?$less@H@std@@V?$allocator@U?$pair@$$CBHUMYLIST_COLUMN_INFO@@@std@@@3@$0A@@std@@@std@@IAE@ABU?$less@H@1@V?$allocator@U?$pair@$$CBHUMYLIST_COLUMN_INFO@@@std@@@1@@Z
_TEXT	SEGMENT
_this$ = -4						; size = 4
__Parg$ = 8						; size = 4
__Al$ = 12						; size = 1
??0?$_Tree_nod@V?$_Tmap_traits@HUMYLIST_COLUMN_INFO@@U?$less@H@std@@V?$allocator@U?$pair@$$CBHUMYLIST_COLUMN_INFO@@@std@@@3@$0A@@std@@@std@@IAE@ABU?$less@H@1@V?$allocator@U?$pair@$$CBHUMYLIST_COLUMN_INFO@@@std@@@1@@Z PROC NEAR ; std::_Tree_nod<std::_Tmap_traits<int,MYLIST_COLUMN_INFO,std::less<int>,std::allocator<std::pair<int const ,MYLIST_COLUMN_INFO> >,0> >::_Tree_nod<std::_Tmap_traits<int,MYLIST_COLUMN_INFO,std::less<int>,std::allocator<std::pair<int const ,MYLIST_COLUMN_INFO> >,0> >, COMDAT
; _this$ = ecx

; 54   : 		{	// construct traits from _Parg and allocator from _Al

  00000	55		 push	 ebp
  00001	8b ec		 mov	 ebp, esp
  00003	51		 push	 ecx
  00004	c7 45 fc cc cc
	cc cc		 mov	 DWORD PTR [ebp-4], -858993460 ; ccccccccH
  0000b	89 4d fc	 mov	 DWORD PTR _this$[ebp], ecx
  0000e	8b 45 08	 mov	 eax, DWORD PTR __Parg$[ebp]
  00011	8a 08		 mov	 cl, BYTE PTR [eax]
  00013	51		 push	 ecx
  00014	8b 4d fc	 mov	 ecx, DWORD PTR _this$[ebp]
  00017	e8 00 00 00 00	 call	 ??0?$_Tmap_traits@HUMYLIST_COLUMN_INFO@@U?$less@H@std@@V?$allocator@U?$pair@$$CBHUMYLIST_COLUMN_INFO@@@std@@@3@$0A@@std@@QAE@U?$less@H@1@@Z ; std::_Tmap_traits<int,MYLIST_COLUMN_INFO,std::less<int>,std::allocator<std::pair<int const ,MYLIST_COLUMN_INFO> >,0>::_Tmap_traits<int,MYLIST_COLUMN_INFO,std::less<int>,std::allocator<std::pair<int const ,MYLIST_COLUMN_INFO> >,0>
  0001c	8d 55 0c	 lea	 edx, DWORD PTR __Al$[ebp]
  0001f	52		 push	 edx
  00020	8b 4d fc	 mov	 ecx, DWORD PTR _this$[ebp]
  00023	83 c1 01	 add	 ecx, 1
  00026	e8 00 00 00 00	 call	 ??$?0U?$pair@$$CBHUMYLIST_COLUMN_INFO@@@std@@@?$allocator@U_Node@?$_Tree_nod@V?$_Tmap_traits@HUMYLIST_COLUMN_INFO@@U?$less@H@std@@V?$allocator@U?$pair@$$CBHUMYLIST_COLUMN_INFO@@@std@@@3@$0A@@std@@@std@@@std@@QAE@ABV?$allocator@U?$pair@$$CBHUMYLIST_COLUMN_INFO@@@std@@@1@@Z ; std::allocator<std::_Tree_nod<std::_Tmap_traits<int,MYLIST_COLUMN_INFO,std::less<int>,std::allocator<std::pair<int const ,MYLIST_COLUMN_INFO> >,0> >::_Node>::allocator<std::_Tree_nod<std::_Tmap_traits<int,MYLIST_COLUMN_INFO,std::less<int>,std::allocator<std::pair<int const ,MYLIST_COLUMN_INFO> >,0> >::_Node><std::pair<int const ,MYLIST_COLUMN_INFO> >

; 55   : 		}

  0002b	8b 45 fc	 mov	 eax, DWORD PTR _this$[ebp]
  0002e	83 c4 04	 add	 esp, 4
  00031	3b ec		 cmp	 ebp, esp
  00033	e8 00 00 00 00	 call	 __RTC_CheckEsp
  00038	8b e5		 mov	 esp, ebp
  0003a	5d		 pop	 ebp
  0003b	c2 08 00	 ret	 8
??0?$_Tree_nod@V?$_Tmap_traits@HUMYLIST_COLUMN_INFO@@U?$less@H@std@@V?$allocator@U?$pair@$$CBHUMYLIST_COLUMN_INFO@@@std@@@3@$0A@@std@@@std@@IAE@ABU?$less@H@1@V?$allocator@U?$pair@$$CBHUMYLIST_COLUMN_INFO@@@std@@@1@@Z ENDP ; std::_Tree_nod<std::_Tmap_traits<int,MYLIST_COLUMN_INFO,std::less<int>,std::allocator<std::pair<int const ,MYLIST_COLUMN_INFO> >,0> >::_Tree_nod<std::_Tmap_traits<int,MYLIST_COLUMN_INFO,std::less<int>,std::allocator<std::pair<int const ,MYLIST_COLUMN_INFO> >,0> >
; Function compile flags: /Odt /RTCsu
; File d:\program files (x86)\microsoft visual studio .net 2003\vc7\include\xmemory
_TEXT	ENDS
;	COMDAT ?max_size@?$allocator@U?$pair@$$CBHUMYLIST_COLUMN_INFO@@@std@@@std@@QBEIXZ
_TEXT	SEGMENT
tv65 = -12						; size = 4
__Count$ = -8						; size = 4
_this$ = -4						; size = 4
?max_size@?$allocator@U?$pair@$$CBHUMYLIST_COLUMN_INFO@@@std@@@std@@QBEIXZ PROC NEAR ; std::allocator<std::pair<int const ,MYLIST_COLUMN_INFO> >::max_size, COMDAT
; _this$ = ecx

; 156  : 		{	// estimate maximum array size

  00000	55		 push	 ebp
  00001	8b ec		 mov	 ebp, esp
  00003	83 ec 0c	 sub	 esp, 12			; 0000000cH
  00006	c7 45 f4 cc cc
	cc cc		 mov	 DWORD PTR [ebp-12], -858993460 ; ccccccccH
  0000d	c7 45 f8 cc cc
	cc cc		 mov	 DWORD PTR [ebp-8], -858993460 ; ccccccccH
  00014	c7 45 fc cc cc
	cc cc		 mov	 DWORD PTR [ebp-4], -858993460 ; ccccccccH
  0001b	89 4d fc	 mov	 DWORD PTR _this$[ebp], ecx

; 157  : 		_SIZT _Count = (_SIZT)(-1) / sizeof (_Ty);

  0001e	c7 45 f8 33 33
	33 03		 mov	 DWORD PTR __Count$[ebp], 53687091 ; 03333333H

; 158  : 		return (0 < _Count ? _Count : 1);

  00025	83 7d f8 00	 cmp	 DWORD PTR __Count$[ebp], 0
  00029	76 08		 jbe	 SHORT $L192208
  0002b	8b 45 f8	 mov	 eax, DWORD PTR __Count$[ebp]
  0002e	89 45 f4	 mov	 DWORD PTR tv65[ebp], eax
  00031	eb 07		 jmp	 SHORT $L192209
$L192208:
  00033	c7 45 f4 01 00
	00 00		 mov	 DWORD PTR tv65[ebp], 1
$L192209:
  0003a	8b 45 f4	 mov	 eax, DWORD PTR tv65[ebp]

; 159  : 		}

  0003d	8b e5		 mov	 esp, ebp
  0003f	5d		 pop	 ebp
  00040	c3		 ret	 0
?max_size@?$allocator@U?$pair@$$CBHUMYLIST_COLUMN_INFO@@@std@@@std@@QBEIXZ ENDP ; std::allocator<std::pair<int const ,MYLIST_COLUMN_INFO> >::max_size
_TEXT	ENDS
PUBLIC	??$_Allocate@U_Node@?$_Tree_nod@V?$_Tmap_traits@HUMYLIST_COLUMN_INFO@@U?$less@H@std@@V?$allocator@U?$pair@$$CBHUMYLIST_COLUMN_INFO@@@std@@@3@$0A@@std@@@std@@@std@@YAPAU_Node@?$_Tree_nod@V?$_Tmap_traits@HUMYLIST_COLUMN_INFO@@U?$less@H@std@@V?$allocator@U?$pair@$$CBHUMYLIST_COLUMN_INFO@@@std@@@3@$0A@@std@@@0@IPAU120@@Z ; std::_Allocate<std::_Tree_nod<std::_Tmap_traits<int,MYLIST_COLUMN_INFO,std::less<int>,std::allocator<std::pair<int const ,MYLIST_COLUMN_INFO> >,0> >::_Node>
; Function compile flags: /Odt /RTCsu
;	COMDAT ?allocate@?$allocator@U_Node@?$_Tree_nod@V?$_Tmap_traits@HUMYLIST_COLUMN_INFO@@U?$less@H@std@@V?$allocator@U?$pair@$$CBHUMYLIST_COLUMN_INFO@@@std@@@3@$0A@@std@@@std@@@std@@QAEPAU_Node@?$_Tree_nod@V?$_Tmap_traits@HUMYLIST_COLUMN_INFO@@U?$less@H@std@@V?$allocator@U?$pair@$$CBHUMYLIST_COLUMN_INFO@@@std@@@3@$0A@@std@@@2@I@Z
_TEXT	SEGMENT
_this$ = -4						; size = 4
__Count$ = 8						; size = 4
?allocate@?$allocator@U_Node@?$_Tree_nod@V?$_Tmap_traits@HUMYLIST_COLUMN_INFO@@U?$less@H@std@@V?$allocator@U?$pair@$$CBHUMYLIST_COLUMN_INFO@@@std@@@3@$0A@@std@@@std@@@std@@QAEPAU_Node@?$_Tree_nod@V?$_Tmap_traits@HUMYLIST_COLUMN_INFO@@U?$less@H@std@@V?$allocator@U?$pair@$$CBHUMYLIST_COLUMN_INFO@@@std@@@3@$0A@@std@@@2@I@Z PROC NEAR ; std::allocator<std::_Tree_nod<std::_Tmap_traits<int,MYLIST_COLUMN_INFO,std::less<int>,std::allocator<std::pair<int const ,MYLIST_COLUMN_INFO> >,0> >::_Node>::allocate, COMDAT
; _this$ = ecx

; 136  : 		{	// allocate array of _Count elements

  00000	55		 push	 ebp
  00001	8b ec		 mov	 ebp, esp
  00003	51		 push	 ecx
  00004	c7 45 fc cc cc
	cc cc		 mov	 DWORD PTR [ebp-4], -858993460 ; ccccccccH
  0000b	89 4d fc	 mov	 DWORD PTR _this$[ebp], ecx

; 137  : 		return (_Allocate(_Count, (pointer)0));

  0000e	6a 00		 push	 0
  00010	8b 45 08	 mov	 eax, DWORD PTR __Count$[ebp]
  00013	50		 push	 eax
  00014	e8 00 00 00 00	 call	 ??$_Allocate@U_Node@?$_Tree_nod@V?$_Tmap_traits@HUMYLIST_COLUMN_INFO@@U?$less@H@std@@V?$allocator@U?$pair@$$CBHUMYLIST_COLUMN_INFO@@@std@@@3@$0A@@std@@@std@@@std@@YAPAU_Node@?$_Tree_nod@V?$_Tmap_traits@HUMYLIST_COLUMN_INFO@@U?$less@H@std@@V?$allocator@U?$pair@$$CBHUMYLIST_COLUMN_INFO@@@std@@@3@$0A@@std@@@0@IPAU120@@Z ; std::_Allocate<std::_Tree_nod<std::_Tmap_traits<int,MYLIST_COLUMN_INFO,std::less<int>,std::allocator<std::pair<int const ,MYLIST_COLUMN_INFO> >,0> >::_Node>
  00019	83 c4 08	 add	 esp, 8

; 138  : 		}

  0001c	83 c4 04	 add	 esp, 4
  0001f	3b ec		 cmp	 ebp, esp
  00021	e8 00 00 00 00	 call	 __RTC_CheckEsp
  00026	8b e5		 mov	 esp, ebp
  00028	5d		 pop	 ebp
  00029	c2 04 00	 ret	 4
?allocate@?$allocator@U_Node@?$_Tree_nod@V?$_Tmap_traits@HUMYLIST_COLUMN_INFO@@U?$less@H@std@@V?$allocator@U?$pair@$$CBHUMYLIST_COLUMN_INFO@@@std@@@3@$0A@@std@@@std@@@std@@QAEPAU_Node@?$_Tree_nod@V?$_Tmap_traits@HUMYLIST_COLUMN_INFO@@U?$less@H@std@@V?$allocator@U?$pair@$$CBHUMYLIST_COLUMN_INFO@@@std@@@3@$0A@@std@@@2@I@Z ENDP ; std::allocator<std::_Tree_nod<std::_Tmap_traits<int,MYLIST_COLUMN_INFO,std::less<int>,std::allocator<std::pair<int const ,MYLIST_COLUMN_INFO> >,0> >::_Node>::allocate
_TEXT	ENDS
PUBLIC	??$_Construct@PAU_Node@?$_Tree_nod@V?$_Tmap_traits@HUMYLIST_COLUMN_INFO@@U?$less@H@std@@V?$allocator@U?$pair@$$CBHUMYLIST_COLUMN_INFO@@@std@@@3@$0A@@std@@@std@@PAU123@@std@@YAXPAPAU_Node@?$_Tree_nod@V?$_Tmap_traits@HUMYLIST_COLUMN_INFO@@U?$less@H@std@@V?$allocator@U?$pair@$$CBHUMYLIST_COLUMN_INFO@@@std@@@3@$0A@@std@@@0@ABQAU120@@Z ; std::_Construct<std::_Tree_nod<std::_Tmap_traits<int,MYLIST_COLUMN_INFO,std::less<int>,std::allocator<std::pair<int const ,MYLIST_COLUMN_INFO> >,0> >::_Node *,std::_Tree_nod<std::_Tmap_traits<int,MYLIST_COLUMN_INFO,std::less<int>,std::allocator<std::pair<int const ,MYLIST_COLUMN_INFO> >,0> >::_Node *>
; Function compile flags: /Odt /RTCsu
;	COMDAT ?construct@?$allocator@PAU_Node@?$_Tree_nod@V?$_Tmap_traits@HUMYLIST_COLUMN_INFO@@U?$less@H@std@@V?$allocator@U?$pair@$$CBHUMYLIST_COLUMN_INFO@@@std@@@3@$0A@@std@@@std@@@std@@QAEXPAPAU_Node@?$_Tree_nod@V?$_Tmap_traits@HUMYLIST_COLUMN_INFO@@U?$less@H@std@@V?$allocator@U?$pair@$$CBHUMYLIST_COLUMN_INFO@@@std@@@3@$0A@@std@@@2@ABQAU342@@Z
_TEXT	SEGMENT
_this$ = -4						; size = 4
__Ptr$ = 8						; size = 4
__Val$ = 12						; size = 4
?construct@?$allocator@PAU_Node@?$_Tree_nod@V?$_Tmap_traits@HUMYLIST_COLUMN_INFO@@U?$less@H@std@@V?$allocator@U?$pair@$$CBHUMYLIST_COLUMN_INFO@@@std@@@3@$0A@@std@@@std@@@std@@QAEXPAPAU_Node@?$_Tree_nod@V?$_Tmap_traits@HUMYLIST_COLUMN_INFO@@U?$less@H@std@@V?$allocator@U?$pair@$$CBHUMYLIST_COLUMN_INFO@@@std@@@3@$0A@@std@@@2@ABQAU342@@Z PROC NEAR ; std::allocator<std::_Tree_nod<std::_Tmap_traits<int,MYLIST_COLUMN_INFO,std::less<int>,std::allocator<std::pair<int const ,MYLIST_COLUMN_INFO> >,0> >::_Node *>::construct, COMDAT
; _this$ = ecx

; 146  : 		{	// construct object at _Ptr with value _Val

  00000	55		 push	 ebp
  00001	8b ec		 mov	 ebp, esp
  00003	51		 push	 ecx
  00004	c7 45 fc cc cc
	cc cc		 mov	 DWORD PTR [ebp-4], -858993460 ; ccccccccH
  0000b	89 4d fc	 mov	 DWORD PTR _this$[ebp], ecx

; 147  : 		_Construct(_Ptr, _Val);

  0000e	8b 45 0c	 mov	 eax, DWORD PTR __Val$[ebp]
  00011	50		 push	 eax
  00012	8b 4d 08	 mov	 ecx, DWORD PTR __Ptr$[ebp]
  00015	51		 push	 ecx
  00016	e8 00 00 00 00	 call	 ??$_Construct@PAU_Node@?$_Tree_nod@V?$_Tmap_traits@HUMYLIST_COLUMN_INFO@@U?$less@H@std@@V?$allocator@U?$pair@$$CBHUMYLIST_COLUMN_INFO@@@std@@@3@$0A@@std@@@std@@PAU123@@std@@YAXPAPAU_Node@?$_Tree_nod@V?$_Tmap_traits@HUMYLIST_COLUMN_INFO@@U?$less@H@std@@V?$allocator@U?$pair@$$CBHUMYLIST_COLUMN_INFO@@@std@@@3@$0A@@std@@@0@ABQAU120@@Z ; std::_Construct<std::_Tree_nod<std::_Tmap_traits<int,MYLIST_COLUMN_INFO,std::less<int>,std::allocator<std::pair<int const ,MYLIST_COLUMN_INFO> >,0> >::_Node *,std::_Tree_nod<std::_Tmap_traits<int,MYLIST_COLUMN_INFO,std::less<int>,std::allocator<std::pair<int const ,MYLIST_COLUMN_INFO> >,0> >::_Node *>
  0001b	83 c4 08	 add	 esp, 8

; 148  : 		}

  0001e	83 c4 04	 add	 esp, 4
  00021	3b ec		 cmp	 ebp, esp
  00023	e8 00 00 00 00	 call	 __RTC_CheckEsp
  00028	8b e5		 mov	 esp, ebp
  0002a	5d		 pop	 ebp
  0002b	c2 08 00	 ret	 8
?construct@?$allocator@PAU_Node@?$_Tree_nod@V?$_Tmap_traits@HUMYLIST_COLUMN_INFO@@U?$less@H@std@@V?$allocator@U?$pair@$$CBHUMYLIST_COLUMN_INFO@@@std@@@3@$0A@@std@@@std@@@std@@QAEXPAPAU_Node@?$_Tree_nod@V?$_Tmap_traits@HUMYLIST_COLUMN_INFO@@U?$less@H@std@@V?$allocator@U?$pair@$$CBHUMYLIST_COLUMN_INFO@@@std@@@3@$0A@@std@@@2@ABQAU342@@Z ENDP ; std::allocator<std::_Tree_nod<std::_Tmap_traits<int,MYLIST_COLUMN_INFO,std::less<int>,std::allocator<std::pair<int const ,MYLIST_COLUMN_INFO> >,0> >::_Node *>::construct
; Function compile flags: /Odt /RTCsu
; File d:\program files (x86)\microsoft visual studio .net 2003\vc7\include\xtree
_TEXT	ENDS
;	COMDAT ?_Dec@const_iterator@?$_Tree@V?$_Tmap_traits@HUMYLIST_COLUMN_INFO@@U?$less@H@std@@V?$allocator@U?$pair@$$CBHUMYLIST_COLUMN_INFO@@@std@@@3@$0A@@std@@@std@@QAEXXZ
_TEXT	SEGMENT
__Pnode$190824 = -8					; size = 4
_this$ = -4						; size = 4
?_Dec@const_iterator@?$_Tree@V?$_Tmap_traits@HUMYLIST_COLUMN_INFO@@U?$less@H@std@@V?$allocator@U?$pair@$$CBHUMYLIST_COLUMN_INFO@@@std@@@3@$0A@@std@@@std@@QAEXXZ PROC NEAR ; std::_Tree<std::_Tmap_traits<int,MYLIST_COLUMN_INFO,std::less<int>,std::allocator<std::pair<int const ,MYLIST_COLUMN_INFO> >,0> >::const_iterator::_Dec, COMDAT
; _this$ = ecx

; 250  : 			{	// move to node with next smaller value

  00000	55		 push	 ebp
  00001	8b ec		 mov	 ebp, esp
  00003	83 ec 08	 sub	 esp, 8
  00006	c7 45 f8 cc cc
	cc cc		 mov	 DWORD PTR [ebp-8], -858993460 ; ccccccccH
  0000d	c7 45 fc cc cc
	cc cc		 mov	 DWORD PTR [ebp-4], -858993460 ; ccccccccH
  00014	89 4d fc	 mov	 DWORD PTR _this$[ebp], ecx

; 251  : 			if (_Isnil(_Ptr))

  00017	8b 45 fc	 mov	 eax, DWORD PTR _this$[ebp]
  0001a	8b 08		 mov	 ecx, DWORD PTR [eax]
  0001c	51		 push	 ecx
  0001d	e8 00 00 00 00	 call	 ?_Isnil@?$_Tree@V?$_Tmap_traits@HUMYLIST_COLUMN_INFO@@U?$less@H@std@@V?$allocator@U?$pair@$$CBHUMYLIST_COLUMN_INFO@@@std@@@3@$0A@@std@@@std@@KAAADPAU_Node@?$_Tree_nod@V?$_Tmap_traits@HUMYLIST_COLUMN_INFO@@U?$less@H@std@@V?$allocator@U?$pair@$$CBHUMYLIST_COLUMN_INFO@@@std@@@3@$0A@@std@@@2@@Z ; std::_Tree<std::_Tmap_traits<int,MYLIST_COLUMN_INFO,std::less<int>,std::allocator<std::pair<int const ,MYLIST_COLUMN_INFO> >,0> >::_Isnil
  00022	83 c4 04	 add	 esp, 4
  00025	0f be 10	 movsx	 edx, BYTE PTR [eax]
  00028	85 d2		 test	 edx, edx
  0002a	74 1a		 je	 SHORT $L190820

; 252  : 				_Ptr = _Right(_Ptr);	// end() ==> rightmost

  0002c	8b 45 fc	 mov	 eax, DWORD PTR _this$[ebp]
  0002f	8b 08		 mov	 ecx, DWORD PTR [eax]
  00031	51		 push	 ecx
  00032	e8 00 00 00 00	 call	 ?_Right@?$_Tree@V?$_Tmap_traits@HUMYLIST_COLUMN_INFO@@U?$less@H@std@@V?$allocator@U?$pair@$$CBHUMYLIST_COLUMN_INFO@@@std@@@3@$0A@@std@@@std@@KAAAPAU_Node@?$_Tree_nod@V?$_Tmap_traits@HUMYLIST_COLUMN_INFO@@U?$less@H@std@@V?$allocator@U?$pair@$$CBHUMYLIST_COLUMN_INFO@@@std@@@3@$0A@@std@@@2@PAU342@@Z ; std::_Tree<std::_Tmap_traits<int,MYLIST_COLUMN_INFO,std::less<int>,std::allocator<std::pair<int const ,MYLIST_COLUMN_INFO> >,0> >::_Right
  00037	83 c4 04	 add	 esp, 4
  0003a	8b 55 fc	 mov	 edx, DWORD PTR _this$[ebp]
  0003d	8b 00		 mov	 eax, DWORD PTR [eax]
  0003f	89 02		 mov	 DWORD PTR [edx], eax

; 253  : 			else if (!_Isnil(_Left(_Ptr)))

  00041	e9 a0 00 00 00	 jmp	 $L190819
$L190820:
  00046	8b 4d fc	 mov	 ecx, DWORD PTR _this$[ebp]
  00049	8b 11		 mov	 edx, DWORD PTR [ecx]
  0004b	52		 push	 edx
  0004c	e8 00 00 00 00	 call	 ?_Left@?$_Tree@V?$_Tmap_traits@HUMYLIST_COLUMN_INFO@@U?$less@H@std@@V?$allocator@U?$pair@$$CBHUMYLIST_COLUMN_INFO@@@std@@@3@$0A@@std@@@std@@KAAAPAU_Node@?$_Tree_nod@V?$_Tmap_traits@HUMYLIST_COLUMN_INFO@@U?$less@H@std@@V?$allocator@U?$pair@$$CBHUMYLIST_COLUMN_INFO@@@std@@@3@$0A@@std@@@2@PAU342@@Z ; std::_Tree<std::_Tmap_traits<int,MYLIST_COLUMN_INFO,std::less<int>,std::allocator<std::pair<int const ,MYLIST_COLUMN_INFO> >,0> >::_Left
  00051	83 c4 04	 add	 esp, 4
  00054	8b 00		 mov	 eax, DWORD PTR [eax]
  00056	50		 push	 eax
  00057	e8 00 00 00 00	 call	 ?_Isnil@?$_Tree@V?$_Tmap_traits@HUMYLIST_COLUMN_INFO@@U?$less@H@std@@V?$allocator@U?$pair@$$CBHUMYLIST_COLUMN_INFO@@@std@@@3@$0A@@std@@@std@@KAAADPAU_Node@?$_Tree_nod@V?$_Tmap_traits@HUMYLIST_COLUMN_INFO@@U?$less@H@std@@V?$allocator@U?$pair@$$CBHUMYLIST_COLUMN_INFO@@@std@@@3@$0A@@std@@@2@@Z ; std::_Tree<std::_Tmap_traits<int,MYLIST_COLUMN_INFO,std::less<int>,std::allocator<std::pair<int const ,MYLIST_COLUMN_INFO> >,0> >::_Isnil
  0005c	83 c4 04	 add	 esp, 4
  0005f	0f be 08	 movsx	 ecx, BYTE PTR [eax]
  00062	85 c9		 test	 ecx, ecx
  00064	75 20		 jne	 SHORT $L190826

; 254  : 				_Ptr = _Max(_Left(_Ptr));	// ==> largest of left subtree

  00066	8b 55 fc	 mov	 edx, DWORD PTR _this$[ebp]
  00069	8b 02		 mov	 eax, DWORD PTR [edx]
  0006b	50		 push	 eax
  0006c	e8 00 00 00 00	 call	 ?_Left@?$_Tree@V?$_Tmap_traits@HUMYLIST_COLUMN_INFO@@U?$less@H@std@@V?$allocator@U?$pair@$$CBHUMYLIST_COLUMN_INFO@@@std@@@3@$0A@@std@@@std@@KAAAPAU_Node@?$_Tree_nod@V?$_Tmap_traits@HUMYLIST_COLUMN_INFO@@U?$less@H@std@@V?$allocator@U?$pair@$$CBHUMYLIST_COLUMN_INFO@@@std@@@3@$0A@@std@@@2@PAU342@@Z ; std::_Tree<std::_Tmap_traits<int,MYLIST_COLUMN_INFO,std::less<int>,std::allocator<std::pair<int const ,MYLIST_COLUMN_INFO> >,0> >::_Left
  00071	83 c4 04	 add	 esp, 4
  00074	8b 08		 mov	 ecx, DWORD PTR [eax]
  00076	51		 push	 ecx
  00077	e8 00 00 00 00	 call	 ?_Max@?$_Tree@V?$_Tmap_traits@HUMYLIST_COLUMN_INFO@@U?$less@H@std@@V?$allocator@U?$pair@$$CBHUMYLIST_COLUMN_INFO@@@std@@@3@$0A@@std@@@std@@KAPAU_Node@?$_Tree_nod@V?$_Tmap_traits@HUMYLIST_COLUMN_INFO@@U?$less@H@std@@V?$allocator@U?$pair@$$CBHUMYLIST_COLUMN_INFO@@@std@@@3@$0A@@std@@@2@PAU342@@Z ; std::_Tree<std::_Tmap_traits<int,MYLIST_COLUMN_INFO,std::less<int>,std::allocator<std::pair<int const ,MYLIST_COLUMN_INFO> >,0> >::_Max
  0007c	83 c4 04	 add	 esp, 4
  0007f	8b 55 fc	 mov	 edx, DWORD PTR _this$[ebp]
  00082	89 02		 mov	 DWORD PTR [edx], eax

; 255  : 			else

  00084	eb 60		 jmp	 SHORT $L190819
$L190826:

; 256  : 				{	// climb looking for left subtree
; 257  : 				_Nodeptr _Pnode;
; 258  : 				while (!_Isnil(_Pnode = _Parent(_Ptr))
; 259  : 					&& _Ptr == _Left(_Pnode))

  00086	8b 45 fc	 mov	 eax, DWORD PTR _this$[ebp]
  00089	8b 08		 mov	 ecx, DWORD PTR [eax]
  0008b	51		 push	 ecx
  0008c	e8 00 00 00 00	 call	 ?_Parent@?$_Tree@V?$_Tmap_traits@HUMYLIST_COLUMN_INFO@@U?$less@H@std@@V?$allocator@U?$pair@$$CBHUMYLIST_COLUMN_INFO@@@std@@@3@$0A@@std@@@std@@KAAAPAU_Node@?$_Tree_nod@V?$_Tmap_traits@HUMYLIST_COLUMN_INFO@@U?$less@H@std@@V?$allocator@U?$pair@$$CBHUMYLIST_COLUMN_INFO@@@std@@@3@$0A@@std@@@2@PAU342@@Z ; std::_Tree<std::_Tmap_traits<int,MYLIST_COLUMN_INFO,std::less<int>,std::allocator<std::pair<int const ,MYLIST_COLUMN_INFO> >,0> >::_Parent
  00091	83 c4 04	 add	 esp, 4
  00094	8b 10		 mov	 edx, DWORD PTR [eax]
  00096	89 55 f8	 mov	 DWORD PTR __Pnode$190824[ebp], edx
  00099	8b 45 f8	 mov	 eax, DWORD PTR __Pnode$190824[ebp]
  0009c	50		 push	 eax
  0009d	e8 00 00 00 00	 call	 ?_Isnil@?$_Tree@V?$_Tmap_traits@HUMYLIST_COLUMN_INFO@@U?$less@H@std@@V?$allocator@U?$pair@$$CBHUMYLIST_COLUMN_INFO@@@std@@@3@$0A@@std@@@std@@KAAADPAU_Node@?$_Tree_nod@V?$_Tmap_traits@HUMYLIST_COLUMN_INFO@@U?$less@H@std@@V?$allocator@U?$pair@$$CBHUMYLIST_COLUMN_INFO@@@std@@@3@$0A@@std@@@2@@Z ; std::_Tree<std::_Tmap_traits<int,MYLIST_COLUMN_INFO,std::less<int>,std::allocator<std::pair<int const ,MYLIST_COLUMN_INFO> >,0> >::_Isnil
  000a2	83 c4 04	 add	 esp, 4
  000a5	0f be 08	 movsx	 ecx, BYTE PTR [eax]
  000a8	85 c9		 test	 ecx, ecx
  000aa	75 1f		 jne	 SHORT $L190827
  000ac	8b 55 f8	 mov	 edx, DWORD PTR __Pnode$190824[ebp]
  000af	52		 push	 edx
  000b0	e8 00 00 00 00	 call	 ?_Left@?$_Tree@V?$_Tmap_traits@HUMYLIST_COLUMN_INFO@@U?$less@H@std@@V?$allocator@U?$pair@$$CBHUMYLIST_COLUMN_INFO@@@std@@@3@$0A@@std@@@std@@KAAAPAU_Node@?$_Tree_nod@V?$_Tmap_traits@HUMYLIST_COLUMN_INFO@@U?$less@H@std@@V?$allocator@U?$pair@$$CBHUMYLIST_COLUMN_INFO@@@std@@@3@$0A@@std@@@2@PAU342@@Z ; std::_Tree<std::_Tmap_traits<int,MYLIST_COLUMN_INFO,std::less<int>,std::allocator<std::pair<int const ,MYLIST_COLUMN_INFO> >,0> >::_Left
  000b5	83 c4 04	 add	 esp, 4
  000b8	8b 4d fc	 mov	 ecx, DWORD PTR _this$[ebp]
  000bb	8b 11		 mov	 edx, DWORD PTR [ecx]
  000bd	3b 10		 cmp	 edx, DWORD PTR [eax]
  000bf	75 0a		 jne	 SHORT $L190827

; 260  : 					_Ptr = _Pnode;	// ==> parent while left subtree

  000c1	8b 45 fc	 mov	 eax, DWORD PTR _this$[ebp]
  000c4	8b 4d f8	 mov	 ecx, DWORD PTR __Pnode$190824[ebp]
  000c7	89 08		 mov	 DWORD PTR [eax], ecx
  000c9	eb bb		 jmp	 SHORT $L190826
$L190827:

; 261  : 				if (!_Isnil(_Pnode))

  000cb	8b 55 f8	 mov	 edx, DWORD PTR __Pnode$190824[ebp]
  000ce	52		 push	 edx
  000cf	e8 00 00 00 00	 call	 ?_Isnil@?$_Tree@V?$_Tmap_traits@HUMYLIST_COLUMN_INFO@@U?$less@H@std@@V?$allocator@U?$pair@$$CBHUMYLIST_COLUMN_INFO@@@std@@@3@$0A@@std@@@std@@KAAADPAU_Node@?$_Tree_nod@V?$_Tmap_traits@HUMYLIST_COLUMN_INFO@@U?$less@H@std@@V?$allocator@U?$pair@$$CBHUMYLIST_COLUMN_INFO@@@std@@@3@$0A@@std@@@2@@Z ; std::_Tree<std::_Tmap_traits<int,MYLIST_COLUMN_INFO,std::less<int>,std::allocator<std::pair<int const ,MYLIST_COLUMN_INFO> >,0> >::_Isnil
  000d4	83 c4 04	 add	 esp, 4
  000d7	0f be 00	 movsx	 eax, BYTE PTR [eax]
  000da	85 c0		 test	 eax, eax
  000dc	75 08		 jne	 SHORT $L190819

; 262  : 					_Ptr = _Pnode;	// ==> parent if not head

  000de	8b 4d fc	 mov	 ecx, DWORD PTR _this$[ebp]
  000e1	8b 55 f8	 mov	 edx, DWORD PTR __Pnode$190824[ebp]
  000e4	89 11		 mov	 DWORD PTR [ecx], edx
$L190819:

; 263  : 				}
; 264  : 			}

  000e6	83 c4 08	 add	 esp, 8
  000e9	3b ec		 cmp	 ebp, esp
  000eb	e8 00 00 00 00	 call	 __RTC_CheckEsp
  000f0	8b e5		 mov	 esp, ebp
  000f2	5d		 pop	 ebp
  000f3	c3		 ret	 0
?_Dec@const_iterator@?$_Tree@V?$_Tmap_traits@HUMYLIST_COLUMN_INFO@@U?$less@H@std@@V?$allocator@U?$pair@$$CBHUMYLIST_COLUMN_INFO@@@std@@@3@$0A@@std@@@std@@QAEXXZ ENDP ; std::_Tree<std::_Tmap_traits<int,MYLIST_COLUMN_INFO,std::less<int>,std::allocator<std::pair<int const ,MYLIST_COLUMN_INFO> >,0> >::const_iterator::_Dec
_TEXT	ENDS
PUBLIC	??0?$pair@$$CBHUMYLIST_COLUMN_INFO@@@std@@QAE@ABU01@@Z ; std::pair<int const ,MYLIST_COLUMN_INFO>::pair<int const ,MYLIST_COLUMN_INFO>
; Function compile flags: /Odt /RTCsu
;	COMDAT ??0_Node@?$_Tree_nod@V?$_Tmap_traits@HUMYLIST_COLUMN_INFO@@U?$less@H@std@@V?$allocator@U?$pair@$$CBHUMYLIST_COLUMN_INFO@@@std@@@3@$0A@@std@@@std@@QAE@PAU012@00ABU?$pair@$$CBHUMYLIST_COLUMN_INFO@@@2@D@Z
_TEXT	SEGMENT
_this$ = -4						; size = 4
__Larg$ = 8						; size = 4
__Parg$ = 12						; size = 4
__Rarg$ = 16						; size = 4
__Val$ = 20						; size = 4
__Carg$ = 24						; size = 1
??0_Node@?$_Tree_nod@V?$_Tmap_traits@HUMYLIST_COLUMN_INFO@@U?$less@H@std@@V?$allocator@U?$pair@$$CBHUMYLIST_COLUMN_INFO@@@std@@@3@$0A@@std@@@std@@QAE@PAU012@00ABU?$pair@$$CBHUMYLIST_COLUMN_INFO@@@2@D@Z PROC NEAR ; std::_Tree_nod<std::_Tmap_traits<int,MYLIST_COLUMN_INFO,std::less<int>,std::allocator<std::pair<int const ,MYLIST_COLUMN_INFO> >,0> >::_Node::_Node, COMDAT
; _this$ = ecx

; 40   : 			{	// construct a node with value

  00000	55		 push	 ebp
  00001	8b ec		 mov	 ebp, esp
  00003	51		 push	 ecx
  00004	c7 45 fc cc cc
	cc cc		 mov	 DWORD PTR [ebp-4], -858993460 ; ccccccccH
  0000b	89 4d fc	 mov	 DWORD PTR _this$[ebp], ecx
  0000e	8b 45 fc	 mov	 eax, DWORD PTR _this$[ebp]
  00011	8b 4d 08	 mov	 ecx, DWORD PTR __Larg$[ebp]
  00014	89 08		 mov	 DWORD PTR [eax], ecx
  00016	8b 55 fc	 mov	 edx, DWORD PTR _this$[ebp]
  00019	8b 45 0c	 mov	 eax, DWORD PTR __Parg$[ebp]
  0001c	89 42 04	 mov	 DWORD PTR [edx+4], eax
  0001f	8b 4d fc	 mov	 ecx, DWORD PTR _this$[ebp]
  00022	8b 55 10	 mov	 edx, DWORD PTR __Rarg$[ebp]
  00025	89 51 08	 mov	 DWORD PTR [ecx+8], edx
  00028	8b 45 14	 mov	 eax, DWORD PTR __Val$[ebp]
  0002b	50		 push	 eax
  0002c	8b 4d fc	 mov	 ecx, DWORD PTR _this$[ebp]
  0002f	83 c1 0c	 add	 ecx, 12			; 0000000cH
  00032	e8 00 00 00 00	 call	 ??0?$pair@$$CBHUMYLIST_COLUMN_INFO@@@std@@QAE@ABU01@@Z
  00037	8b 4d fc	 mov	 ecx, DWORD PTR _this$[ebp]
  0003a	8a 55 18	 mov	 dl, BYTE PTR __Carg$[ebp]
  0003d	88 51 5c	 mov	 BYTE PTR [ecx+92], dl
  00040	8b 45 fc	 mov	 eax, DWORD PTR _this$[ebp]
  00043	c6 40 5d 00	 mov	 BYTE PTR [eax+93], 0

; 41   : 			}

  00047	8b 45 fc	 mov	 eax, DWORD PTR _this$[ebp]
  0004a	83 c4 04	 add	 esp, 4
  0004d	3b ec		 cmp	 ebp, esp
  0004f	e8 00 00 00 00	 call	 __RTC_CheckEsp
  00054	8b e5		 mov	 esp, ebp
  00056	5d		 pop	 ebp
  00057	c2 14 00	 ret	 20			; 00000014H
??0_Node@?$_Tree_nod@V?$_Tmap_traits@HUMYLIST_COLUMN_INFO@@U?$less@H@std@@V?$allocator@U?$pair@$$CBHUMYLIST_COLUMN_INFO@@@std@@@3@$0A@@std@@@std@@QAE@PAU012@00ABU?$pair@$$CBHUMYLIST_COLUMN_INFO@@@2@D@Z ENDP ; std::_Tree_nod<std::_Tmap_traits<int,MYLIST_COLUMN_INFO,std::less<int>,std::allocator<std::pair<int const ,MYLIST_COLUMN_INFO> >,0> >::_Node::_Node
; Function compile flags: /Odt /RTCsu
_TEXT	ENDS
;	COMDAT ??0?$pair@$$CBHUMYLIST_COLUMN_INFO@@@std@@QAE@ABU01@@Z
_TEXT	SEGMENT
_this$ = -4						; size = 4
___that$ = 8						; size = 4
??0?$pair@$$CBHUMYLIST_COLUMN_INFO@@@std@@QAE@ABU01@@Z PROC NEAR ; std::pair<int const ,MYLIST_COLUMN_INFO>::pair<int const ,MYLIST_COLUMN_INFO>, COMDAT
; _this$ = ecx
  00000	55		 push	 ebp
  00001	8b ec		 mov	 ebp, esp
  00003	51		 push	 ecx
  00004	c7 45 fc cc cc
	cc cc		 mov	 DWORD PTR [ebp-4], -858993460 ; ccccccccH
  0000b	89 4d fc	 mov	 DWORD PTR _this$[ebp], ecx
  0000e	8b 45 fc	 mov	 eax, DWORD PTR _this$[ebp]
  00011	8b 4d 08	 mov	 ecx, DWORD PTR ___that$[ebp]
  00014	8b 11		 mov	 edx, DWORD PTR [ecx]
  00016	89 10		 mov	 DWORD PTR [eax], edx
  00018	8b 45 08	 mov	 eax, DWORD PTR ___that$[ebp]
  0001b	83 c0 04	 add	 eax, 4
  0001e	50		 push	 eax
  0001f	8b 4d fc	 mov	 ecx, DWORD PTR _this$[ebp]
  00022	83 c1 04	 add	 ecx, 4
  00025	e8 00 00 00 00	 call	 ??0MYLIST_COLUMN_INFO@@QAE@ABU0@@Z
  0002a	8b 45 fc	 mov	 eax, DWORD PTR _this$[ebp]
  0002d	83 c4 04	 add	 esp, 4
  00030	3b ec		 cmp	 ebp, esp
  00032	e8 00 00 00 00	 call	 __RTC_CheckEsp
  00037	8b e5		 mov	 esp, ebp
  00039	5d		 pop	 ebp
  0003a	c2 04 00	 ret	 4
??0?$pair@$$CBHUMYLIST_COLUMN_INFO@@@std@@QAE@ABU01@@Z ENDP ; std::pair<int const ,MYLIST_COLUMN_INFO>::pair<int const ,MYLIST_COLUMN_INFO>
; Function compile flags: /Odt /RTCsu
; File d:\program files (x86)\microsoft visual studio .net 2003\vc7\include\map
_TEXT	ENDS
;	COMDAT ??0?$_Tmap_traits@HUMYLIST_COLUMN_INFO@@U?$less@H@std@@V?$allocator@U?$pair@$$CBHUMYLIST_COLUMN_INFO@@@std@@@3@$0A@@std@@QAE@U?$less@H@1@@Z
_TEXT	SEGMENT
_this$ = -4						; size = 4
__Parg$ = 8						; size = 1
??0?$_Tmap_traits@HUMYLIST_COLUMN_INFO@@U?$less@H@std@@V?$allocator@U?$pair@$$CBHUMYLIST_COLUMN_INFO@@@std@@@3@$0A@@std@@QAE@U?$less@H@1@@Z PROC NEAR ; std::_Tmap_traits<int,MYLIST_COLUMN_INFO,std::less<int>,std::allocator<std::pair<int const ,MYLIST_COLUMN_INFO> >,0>::_Tmap_traits<int,MYLIST_COLUMN_INFO,std::less<int>,std::allocator<std::pair<int const ,MYLIST_COLUMN_INFO> >,0>, COMDAT
; _this$ = ecx

; 38   : 		{	// construct with specified comparator

  00000	55		 push	 ebp
  00001	8b ec		 mov	 ebp, esp
  00003	51		 push	 ecx
  00004	c7 45 fc cc cc
	cc cc		 mov	 DWORD PTR [ebp-4], -858993460 ; ccccccccH
  0000b	89 4d fc	 mov	 DWORD PTR _this$[ebp], ecx

; 39   : 		}

  0000e	8b 45 fc	 mov	 eax, DWORD PTR _this$[ebp]
  00011	8b e5		 mov	 esp, ebp
  00013	5d		 pop	 ebp
  00014	c2 04 00	 ret	 4
??0?$_Tmap_traits@HUMYLIST_COLUMN_INFO@@U?$less@H@std@@V?$allocator@U?$pair@$$CBHUMYLIST_COLUMN_INFO@@@std@@@3@$0A@@std@@QAE@U?$less@H@1@@Z ENDP ; std::_Tmap_traits<int,MYLIST_COLUMN_INFO,std::less<int>,std::allocator<std::pair<int const ,MYLIST_COLUMN_INFO> >,0>::_Tmap_traits<int,MYLIST_COLUMN_INFO,std::less<int>,std::allocator<std::pair<int const ,MYLIST_COLUMN_INFO> >,0>
_TEXT	ENDS
PUBLIC	??Diterator@?$vector@HV?$allocator@H@std@@@std@@QBEAAHXZ ; std::vector<int,std::allocator<int> >::iterator::operator*
PUBLIC	??Eiterator@?$vector@HV?$allocator@H@std@@@std@@QAEAAV012@XZ ; std::vector<int,std::allocator<int> >::iterator::operator++
; Function compile flags: /Odt /RTCsu
; File d:\program files (x86)\microsoft visual studio .net 2003\vc7\include\algorithm
;	COMDAT ??$find@Viterator@?$vector@HV?$allocator@H@std@@@std@@H@std@@YA?AViterator@?$vector@HV?$allocator@H@std@@@0@V120@0ABH@Z
_TEXT	SEGMENT
___$ReturnUdt$ = 8					; size = 4
__First$ = 12						; size = 4
__Last$ = 16						; size = 4
__Val$ = 20						; size = 4
??$find@Viterator@?$vector@HV?$allocator@H@std@@@std@@H@std@@YA?AViterator@?$vector@HV?$allocator@H@std@@@0@V120@0ABH@Z PROC NEAR ; std::find<std::vector<int,std::allocator<int> >::iterator,int>, COMDAT

; 29   : 	{	// find first matching _Val

  00000	55		 push	 ebp
  00001	8b ec		 mov	 ebp, esp

; 30   : 	for (; _First != _Last; ++_First)

  00003	eb 08		 jmp	 SHORT $L190851
$L190852:
  00005	8d 4d 0c	 lea	 ecx, DWORD PTR __First$[ebp]
  00008	e8 00 00 00 00	 call	 ??Eiterator@?$vector@HV?$allocator@H@std@@@std@@QAEAAV012@XZ ; std::vector<int,std::allocator<int> >::iterator::operator++
$L190851:
  0000d	8d 45 10	 lea	 eax, DWORD PTR __Last$[ebp]
  00010	50		 push	 eax
  00011	8d 4d 0c	 lea	 ecx, DWORD PTR __First$[ebp]
  00014	e8 00 00 00 00	 call	 ??9const_iterator@?$vector@HV?$allocator@H@std@@@std@@QBE_NABV012@@Z ; std::vector<int,std::allocator<int> >::const_iterator::operator!=
  00019	0f b6 c8	 movzx	 ecx, al
  0001c	85 c9		 test	 ecx, ecx
  0001e	74 15		 je	 SHORT $L190853

; 31   : 		if (*_First == _Val)

  00020	8d 4d 0c	 lea	 ecx, DWORD PTR __First$[ebp]
  00023	e8 00 00 00 00	 call	 ??Diterator@?$vector@HV?$allocator@H@std@@@std@@QBEAAHXZ ; std::vector<int,std::allocator<int> >::iterator::operator*
  00028	8b 55 14	 mov	 edx, DWORD PTR __Val$[ebp]
  0002b	8b 00		 mov	 eax, DWORD PTR [eax]
  0002d	3b 02		 cmp	 eax, DWORD PTR [edx]
  0002f	75 02		 jne	 SHORT $L190854

; 32   : 			break;

  00031	eb 02		 jmp	 SHORT $L190853
$L190854:

; 33   : 	return (_First);

  00033	eb d0		 jmp	 SHORT $L190852
$L190853:
  00035	8b 4d 08	 mov	 ecx, DWORD PTR ___$ReturnUdt$[ebp]
  00038	8b 55 0c	 mov	 edx, DWORD PTR __First$[ebp]
  0003b	89 11		 mov	 DWORD PTR [ecx], edx
  0003d	8b 45 08	 mov	 eax, DWORD PTR ___$ReturnUdt$[ebp]

; 34   : 	}

  00040	3b ec		 cmp	 ebp, esp
  00042	e8 00 00 00 00	 call	 __RTC_CheckEsp
  00047	5d		 pop	 ebp
  00048	c3		 ret	 0
??$find@Viterator@?$vector@HV?$allocator@H@std@@@std@@H@std@@YA?AViterator@?$vector@HV?$allocator@H@std@@@0@V120@0ABH@Z ENDP ; std::find<std::vector<int,std::allocator<int> >::iterator,int>
_TEXT	ENDS
PUBLIC	??0?$back_insert_iterator@V?$vector@HV?$allocator@H@std@@@std@@@std@@QAE@AAV?$vector@HV?$allocator@H@std@@@1@@Z ; std::back_insert_iterator<std::vector<int,std::allocator<int> > >::back_insert_iterator<std::vector<int,std::allocator<int> > >
; Function compile flags: /Odt /RTCsu
; File d:\program files (x86)\microsoft visual studio .net 2003\vc7\include\iterator
;	COMDAT ??$back_inserter@V?$vector@HV?$allocator@H@std@@@std@@@std@@YA?AV?$back_insert_iterator@V?$vector@HV?$allocator@H@std@@@std@@@0@AAV?$vector@HV?$allocator@H@std@@@0@@Z
_TEXT	SEGMENT
___$ReturnUdt$ = 8					; size = 4
__Cont$ = 12						; size = 4
??$back_inserter@V?$vector@HV?$allocator@H@std@@@std@@@std@@YA?AV?$back_insert_iterator@V?$vector@HV?$allocator@H@std@@@std@@@0@AAV?$vector@HV?$allocator@H@std@@@0@@Z PROC NEAR ; std::back_inserter<std::vector<int,std::allocator<int> > >, COMDAT

; 55   : 	{	// return a back_insert_iterator

  00000	55		 push	 ebp
  00001	8b ec		 mov	 ebp, esp

; 56   : 	return (std::back_insert_iterator<_Container>(_Cont));

  00003	8b 45 0c	 mov	 eax, DWORD PTR __Cont$[ebp]
  00006	50		 push	 eax
  00007	8b 4d 08	 mov	 ecx, DWORD PTR ___$ReturnUdt$[ebp]
  0000a	e8 00 00 00 00	 call	 ??0?$back_insert_iterator@V?$vector@HV?$allocator@H@std@@@std@@@std@@QAE@AAV?$vector@HV?$allocator@H@std@@@1@@Z ; std::back_insert_iterator<std::vector<int,std::allocator<int> > >::back_insert_iterator<std::vector<int,std::allocator<int> > >
  0000f	8b 45 08	 mov	 eax, DWORD PTR ___$ReturnUdt$[ebp]

; 57   : 	}

  00012	3b ec		 cmp	 ebp, esp
  00014	e8 00 00 00 00	 call	 __RTC_CheckEsp
  00019	5d		 pop	 ebp
  0001a	c3		 ret	 0
??$back_inserter@V?$vector@HV?$allocator@H@std@@@std@@@std@@YA?AV?$back_insert_iterator@V?$vector@HV?$allocator@H@std@@@std@@@0@AAV?$vector@HV?$allocator@H@std@@@0@@Z ENDP ; std::back_inserter<std::vector<int,std::allocator<int> > >
_TEXT	ENDS
PUBLIC	??$_Ptr_cat@Viterator@?$vector@HV?$allocator@H@std@@@std@@V?$back_insert_iterator@V?$vector@HV?$allocator@H@std@@@std@@@3@@std@@YA?AU_Nonscalar_ptr_iterator_tag@0@AAViterator@?$vector@HV?$allocator@H@std@@@0@AAV?$back_insert_iterator@V?$vector@HV?$allocator@H@std@@@std@@@0@@Z ; std::_Ptr_cat<std::vector<int,std::allocator<int> >::iterator,std::back_insert_iterator<std::vector<int,std::allocator<int> > > >
PUBLIC	??$_Copy_opt@Viterator@?$vector@HV?$allocator@H@std@@@std@@V?$back_insert_iterator@V?$vector@HV?$allocator@H@std@@@std@@@3@@std@@YA?AV?$back_insert_iterator@V?$vector@HV?$allocator@H@std@@@std@@@0@Viterator@?$vector@HV?$allocator@H@std@@@0@0V10@U_Nonscalar_ptr_iterator_tag@0@@Z ; std::_Copy_opt<std::vector<int,std::allocator<int> >::iterator,std::back_insert_iterator<std::vector<int,std::allocator<int> > > >
; Function compile flags: /Odt /RTCsu
; File d:\program files (x86)\microsoft visual studio .net 2003\vc7\include\xutility
;	COMDAT ??$copy@Viterator@?$vector@HV?$allocator@H@std@@@std@@V?$back_insert_iterator@V?$vector@HV?$allocator@H@std@@@std@@@3@@std@@YA?AV?$back_insert_iterator@V?$vector@HV?$allocator@H@std@@@std@@@0@Viterator@?$vector@HV?$allocator@H@std@@@0@0V10@@Z
_TEXT	SEGMENT
$T192221 = -1						; size = 1
___$ReturnUdt$ = 8					; size = 4
__First$ = 12						; size = 4
__Last$ = 16						; size = 4
__Dest$ = 20						; size = 4
??$copy@Viterator@?$vector@HV?$allocator@H@std@@@std@@V?$back_insert_iterator@V?$vector@HV?$allocator@H@std@@@std@@@3@@std@@YA?AV?$back_insert_iterator@V?$vector@HV?$allocator@H@std@@@std@@@0@Viterator@?$vector@HV?$allocator@H@std@@@0@0V10@@Z PROC NEAR ; std::copy<std::vector<int,std::allocator<int> >::iterator,std::back_insert_iterator<std::vector<int,std::allocator<int> > > >, COMDAT

; 1039 : 	{	// copy [_First, _Last) to [_Dest, ...)

  00000	55		 push	 ebp
  00001	8b ec		 mov	 ebp, esp
  00003	51		 push	 ecx
  00004	c7 45 fc cc cc
	cc cc		 mov	 DWORD PTR [ebp-4], -858993460 ; ccccccccH

; 1040 : 	return (_Copy_opt(_First, _Last, _Dest, _Ptr_cat(_First, _Dest)));

  0000b	8d 45 14	 lea	 eax, DWORD PTR __Dest$[ebp]
  0000e	50		 push	 eax
  0000f	8d 4d 0c	 lea	 ecx, DWORD PTR __First$[ebp]
  00012	51		 push	 ecx
  00013	e8 00 00 00 00	 call	 ??$_Ptr_cat@Viterator@?$vector@HV?$allocator@H@std@@@std@@V?$back_insert_iterator@V?$vector@HV?$allocator@H@std@@@std@@@3@@std@@YA?AU_Nonscalar_ptr_iterator_tag@0@AAViterator@?$vector@HV?$allocator@H@std@@@0@AAV?$back_insert_iterator@V?$vector@HV?$allocator@H@std@@@std@@@0@@Z ; std::_Ptr_cat<std::vector<int,std::allocator<int> >::iterator,std::back_insert_iterator<std::vector<int,std::allocator<int> > > >
  00018	83 c4 08	 add	 esp, 8
  0001b	88 45 ff	 mov	 BYTE PTR $T192221[ebp], al
  0001e	8a 55 ff	 mov	 dl, BYTE PTR $T192221[ebp]
  00021	52		 push	 edx
  00022	8b 45 14	 mov	 eax, DWORD PTR __Dest$[ebp]
  00025	50		 push	 eax
  00026	8b 4d 10	 mov	 ecx, DWORD PTR __Last$[ebp]
  00029	51		 push	 ecx
  0002a	8b 55 0c	 mov	 edx, DWORD PTR __First$[ebp]
  0002d	52		 push	 edx
  0002e	8b 45 08	 mov	 eax, DWORD PTR ___$ReturnUdt$[ebp]
  00031	50		 push	 eax
  00032	e8 00 00 00 00	 call	 ??$_Copy_opt@Viterator@?$vector@HV?$allocator@H@std@@@std@@V?$back_insert_iterator@V?$vector@HV?$allocator@H@std@@@std@@@3@@std@@YA?AV?$back_insert_iterator@V?$vector@HV?$allocator@H@std@@@std@@@0@Viterator@?$vector@HV?$allocator@H@std@@@0@0V10@U_Nonscalar_ptr_iterator_tag@0@@Z ; std::_Copy_opt<std::vector<int,std::allocator<int> >::iterator,std::back_insert_iterator<std::vector<int,std::allocator<int> > > >
  00037	83 c4 14	 add	 esp, 20			; 00000014H
  0003a	8b 45 08	 mov	 eax, DWORD PTR ___$ReturnUdt$[ebp]

; 1041 : 	}

  0003d	83 c4 04	 add	 esp, 4
  00040	3b ec		 cmp	 ebp, esp
  00042	e8 00 00 00 00	 call	 __RTC_CheckEsp
  00047	8b e5		 mov	 esp, ebp
  00049	5d		 pop	 ebp
  0004a	c3		 ret	 0
??$copy@Viterator@?$vector@HV?$allocator@H@std@@@std@@V?$back_insert_iterator@V?$vector@HV?$allocator@H@std@@@std@@@3@@std@@YA?AV?$back_insert_iterator@V?$vector@HV?$allocator@H@std@@@std@@@0@Viterator@?$vector@HV?$allocator@H@std@@@0@0V10@@Z ENDP ; std::copy<std::vector<int,std::allocator<int> >::iterator,std::back_insert_iterator<std::vector<int,std::allocator<int> > > >
_TEXT	ENDS
PUBLIC	??_G_Node@?$_Tree_nod@V?$_Tmap_traits@HUMYLIST_COLUMN_INFO@@U?$less@H@std@@V?$allocator@U?$pair@$$CBHUMYLIST_COLUMN_INFO@@@std@@@3@$0A@@std@@@std@@QAEPAXI@Z ; std::_Tree_nod<std::_Tmap_traits<int,MYLIST_COLUMN_INFO,std::less<int>,std::allocator<std::pair<int const ,MYLIST_COLUMN_INFO> >,0> >::_Node::`scalar deleting destructor'
; Function compile flags: /Odt /RTCsu
; File d:\program files (x86)\microsoft visual studio .net 2003\vc7\include\xmemory
;	COMDAT ??$_Destroy@U_Node@?$_Tree_nod@V?$_Tmap_traits@HUMYLIST_COLUMN_INFO@@U?$less@H@std@@V?$allocator@U?$pair@$$CBHUMYLIST_COLUMN_INFO@@@std@@@3@$0A@@std@@@std@@@std@@YAXPAU_Node@?$_Tree_nod@V?$_Tmap_traits@HUMYLIST_COLUMN_INFO@@U?$less@H@std@@V?$allocator@U?$pair@$$CBHUMYLIST_COLUMN_INFO@@@std@@@3@$0A@@std@@@0@@Z
_TEXT	SEGMENT
__Ptr$ = 8						; size = 4
??$_Destroy@U_Node@?$_Tree_nod@V?$_Tmap_traits@HUMYLIST_COLUMN_INFO@@U?$less@H@std@@V?$allocator@U?$pair@$$CBHUMYLIST_COLUMN_INFO@@@std@@@3@$0A@@std@@@std@@@std@@YAXPAU_Node@?$_Tree_nod@V?$_Tmap_traits@HUMYLIST_COLUMN_INFO@@U?$less@H@std@@V?$allocator@U?$pair@$$CBHUMYLIST_COLUMN_INFO@@@std@@@3@$0A@@std@@@0@@Z PROC NEAR ; std::_Destroy<std::_Tree_nod<std::_Tmap_traits<int,MYLIST_COLUMN_INFO,std::less<int>,std::allocator<std::pair<int const ,MYLIST_COLUMN_INFO> >,0> >::_Node>, COMDAT

; 48   : 	{	// destroy object at _Ptr

  00000	55		 push	 ebp
  00001	8b ec		 mov	 ebp, esp

; 49   : 	_DESTRUCTOR(_Ty, _Ptr);

  00003	6a 00		 push	 0
  00005	8b 4d 08	 mov	 ecx, DWORD PTR __Ptr$[ebp]
  00008	e8 00 00 00 00	 call	 ??_G_Node@?$_Tree_nod@V?$_Tmap_traits@HUMYLIST_COLUMN_INFO@@U?$less@H@std@@V?$allocator@U?$pair@$$CBHUMYLIST_COLUMN_INFO@@@std@@@3@$0A@@std@@@std@@QAEPAXI@Z

; 50   : 	}

  0000d	3b ec		 cmp	 ebp, esp
  0000f	e8 00 00 00 00	 call	 __RTC_CheckEsp
  00014	5d		 pop	 ebp
  00015	c3		 ret	 0
??$_Destroy@U_Node@?$_Tree_nod@V?$_Tmap_traits@HUMYLIST_COLUMN_INFO@@U?$less@H@std@@V?$allocator@U?$pair@$$CBHUMYLIST_COLUMN_INFO@@@std@@@3@$0A@@std@@@std@@@std@@YAXPAU_Node@?$_Tree_nod@V?$_Tmap_traits@HUMYLIST_COLUMN_INFO@@U?$less@H@std@@V?$allocator@U?$pair@$$CBHUMYLIST_COLUMN_INFO@@@std@@@3@$0A@@std@@@0@@Z ENDP ; std::_Destroy<std::_Tree_nod<std::_Tmap_traits<int,MYLIST_COLUMN_INFO,std::less<int>,std::allocator<std::pair<int const ,MYLIST_COLUMN_INFO> >,0> >::_Node>
; Function compile flags: /Odt /RTCsu
_TEXT	ENDS
;	COMDAT ??$_Destroy@PAU_Node@?$_Tree_nod@V?$_Tmap_traits@HUMYLIST_COLUMN_INFO@@U?$less@H@std@@V?$allocator@U?$pair@$$CBHUMYLIST_COLUMN_INFO@@@std@@@3@$0A@@std@@@std@@@std@@YAXPAPAU_Node@?$_Tree_nod@V?$_Tmap_traits@HUMYLIST_COLUMN_INFO@@U?$less@H@std@@V?$allocator@U?$pair@$$CBHUMYLIST_COLUMN_INFO@@@std@@@3@$0A@@std@@@0@@Z
_TEXT	SEGMENT
__Ptr$ = 8						; size = 4
??$_Destroy@PAU_Node@?$_Tree_nod@V?$_Tmap_traits@HUMYLIST_COLUMN_INFO@@U?$less@H@std@@V?$allocator@U?$pair@$$CBHUMYLIST_COLUMN_INFO@@@std@@@3@$0A@@std@@@std@@@std@@YAXPAPAU_Node@?$_Tree_nod@V?$_Tmap_traits@HUMYLIST_COLUMN_INFO@@U?$less@H@std@@V?$allocator@U?$pair@$$CBHUMYLIST_COLUMN_INFO@@@std@@@3@$0A@@std@@@0@@Z PROC NEAR ; std::_Destroy<std::_Tree_nod<std::_Tmap_traits<int,MYLIST_COLUMN_INFO,std::less<int>,std::allocator<std::pair<int const ,MYLIST_COLUMN_INFO> >,0> >::_Node *>, COMDAT

; 48   : 	{	// destroy object at _Ptr

  00000	55		 push	 ebp
  00001	8b ec		 mov	 ebp, esp

; 49   : 	_DESTRUCTOR(_Ty, _Ptr);
; 50   : 	}

  00003	5d		 pop	 ebp
  00004	c3		 ret	 0
??$_Destroy@PAU_Node@?$_Tree_nod@V?$_Tmap_traits@HUMYLIST_COLUMN_INFO@@U?$less@H@std@@V?$allocator@U?$pair@$$CBHUMYLIST_COLUMN_INFO@@@std@@@3@$0A@@std@@@std@@@std@@YAXPAPAU_Node@?$_Tree_nod@V?$_Tmap_traits@HUMYLIST_COLUMN_INFO@@U?$less@H@std@@V?$allocator@U?$pair@$$CBHUMYLIST_COLUMN_INFO@@@std@@@3@$0A@@std@@@0@@Z ENDP ; std::_Destroy<std::_Tree_nod<std::_Tmap_traits<int,MYLIST_COLUMN_INFO,std::less<int>,std::allocator<std::pair<int const ,MYLIST_COLUMN_INFO> >,0> >::_Node *>
_TEXT	ENDS
EXTRN	??2@YAPAXI@Z:NEAR				; operator new
; Function compile flags: /Odt /RTCsu
;	COMDAT ??$_Allocate@H@std@@YAPAHIPAH@Z
_TEXT	SEGMENT
__Count$ = 8						; size = 4
___formal$ = 12						; size = 4
??$_Allocate@H@std@@YAPAHIPAH@Z PROC NEAR		; std::_Allocate<int>, COMDAT

; 33   : 	{	// allocate storage for _Count elements of type _Ty

  00000	55		 push	 ebp
  00001	8b ec		 mov	 ebp, esp

; 34   : 	return ((_Ty _FARQ *)operator new(_Count * sizeof (_Ty)));

  00003	8b 45 08	 mov	 eax, DWORD PTR __Count$[ebp]
  00006	c1 e0 02	 shl	 eax, 2
  00009	50		 push	 eax
  0000a	e8 00 00 00 00	 call	 ??2@YAPAXI@Z		; operator new
  0000f	83 c4 04	 add	 esp, 4

; 35   : 	}

  00012	3b ec		 cmp	 ebp, esp
  00014	e8 00 00 00 00	 call	 __RTC_CheckEsp
  00019	5d		 pop	 ebp
  0001a	c3		 ret	 0
??$_Allocate@H@std@@YAPAHIPAH@Z ENDP			; std::_Allocate<int>
_TEXT	ENDS
PUBLIC	?_Ptr_cat@std@@YA?AU_Scalar_ptr_iterator_tag@1@PAH0@Z ; std::_Ptr_cat
PUBLIC	??$_Destroy_range@HV?$allocator@H@std@@@std@@YAXPAH0AAV?$allocator@H@0@U_Scalar_ptr_iterator_tag@0@@Z ; std::_Destroy_range<int,std::allocator<int> >
; Function compile flags: /Odt /RTCsu
;	COMDAT ??$_Destroy_range@HV?$allocator@H@std@@@std@@YAXPAH0AAV?$allocator@H@0@@Z
_TEXT	SEGMENT
$T192226 = -1						; size = 1
__First$ = 8						; size = 4
__Last$ = 12						; size = 4
__Al$ = 16						; size = 4
??$_Destroy_range@HV?$allocator@H@std@@@std@@YAXPAH0AAV?$allocator@H@0@@Z PROC NEAR ; std::_Destroy_range<int,std::allocator<int> >, COMDAT

; 216  : 	{	// destroy [_First, _Last)

  00000	55		 push	 ebp
  00001	8b ec		 mov	 ebp, esp
  00003	51		 push	 ecx
  00004	c7 45 fc cc cc
	cc cc		 mov	 DWORD PTR [ebp-4], -858993460 ; ccccccccH

; 217  : 	_Destroy_range(_First, _Last, _Al, _Ptr_cat(_First, _Last));

  0000b	8b 45 0c	 mov	 eax, DWORD PTR __Last$[ebp]
  0000e	50		 push	 eax
  0000f	8b 4d 08	 mov	 ecx, DWORD PTR __First$[ebp]
  00012	51		 push	 ecx
  00013	e8 00 00 00 00	 call	 ?_Ptr_cat@std@@YA?AU_Scalar_ptr_iterator_tag@1@PAH0@Z ; std::_Ptr_cat
  00018	83 c4 08	 add	 esp, 8
  0001b	88 45 ff	 mov	 BYTE PTR $T192226[ebp], al
  0001e	8a 55 ff	 mov	 dl, BYTE PTR $T192226[ebp]
  00021	52		 push	 edx
  00022	8b 45 10	 mov	 eax, DWORD PTR __Al$[ebp]
  00025	50		 push	 eax
  00026	8b 4d 0c	 mov	 ecx, DWORD PTR __Last$[ebp]
  00029	51		 push	 ecx
  0002a	8b 55 08	 mov	 edx, DWORD PTR __First$[ebp]
  0002d	52		 push	 edx
  0002e	e8 00 00 00 00	 call	 ??$_Destroy_range@HV?$allocator@H@std@@@std@@YAXPAH0AAV?$allocator@H@0@U_Scalar_ptr_iterator_tag@0@@Z ; std::_Destroy_range<int,std::allocator<int> >
  00033	83 c4 10	 add	 esp, 16			; 00000010H

; 218  : 	}

  00036	83 c4 04	 add	 esp, 4
  00039	3b ec		 cmp	 ebp, esp
  0003b	e8 00 00 00 00	 call	 __RTC_CheckEsp
  00040	8b e5		 mov	 esp, ebp
  00042	5d		 pop	 ebp
  00043	c3		 ret	 0
??$_Destroy_range@HV?$allocator@H@std@@@std@@YAXPAH0AAV?$allocator@H@0@@Z ENDP ; std::_Destroy_range<int,std::allocator<int> >
; Function compile flags: /Odt /RTCsu
_TEXT	ENDS
;	COMDAT ??$?0U?$pair@$$CBHUMYLIST_COLUMN_INFO@@@std@@@?$allocator@PAU_Node@?$_Tree_nod@V?$_Tmap_traits@HUMYLIST_COLUMN_INFO@@U?$less@H@std@@V?$allocator@U?$pair@$$CBHUMYLIST_COLUMN_INFO@@@std@@@3@$0A@@std@@@std@@@std@@QAE@ABV?$allocator@U?$pair@$$CBHUMYLIST_COLUMN_INFO@@@std@@@1@@Z
_TEXT	SEGMENT
_this$ = -4						; size = 4
___formal$ = 8						; size = 4
??$?0U?$pair@$$CBHUMYLIST_COLUMN_INFO@@@std@@@?$allocator@PAU_Node@?$_Tree_nod@V?$_Tmap_traits@HUMYLIST_COLUMN_INFO@@U?$less@H@std@@V?$allocator@U?$pair@$$CBHUMYLIST_COLUMN_INFO@@@std@@@3@$0A@@std@@@std@@@std@@QAE@ABV?$allocator@U?$pair@$$CBHUMYLIST_COLUMN_INFO@@@std@@@1@@Z PROC NEAR ; std::allocator<std::_Tree_nod<std::_Tmap_traits<int,MYLIST_COLUMN_INFO,std::less<int>,std::allocator<std::pair<int const ,MYLIST_COLUMN_INFO> >,0> >::_Node *>::allocator<std::_Tree_nod<std::_Tmap_traits<int,MYLIST_COLUMN_INFO,std::less<int>,std::allocator<std::pair<int const ,MYLIST_COLUMN_INFO> >,0> >::_Node *><std::pair<int const ,MYLIST_COLUMN_INFO> >, COMDAT
; _this$ = ecx

; 120  : 		allocator(const allocator<_Other>&)

  00000	55		 push	 ebp
  00001	8b ec		 mov	 ebp, esp
  00003	51		 push	 ecx
  00004	c7 45 fc cc cc
	cc cc		 mov	 DWORD PTR [ebp-4], -858993460 ; ccccccccH
  0000b	89 4d fc	 mov	 DWORD PTR _this$[ebp], ecx

; 121  : 		{	// construct from a related allocator (do nothing)
; 122  : 		}

  0000e	8b 45 fc	 mov	 eax, DWORD PTR _this$[ebp]
  00011	8b e5		 mov	 esp, ebp
  00013	5d		 pop	 ebp
  00014	c2 04 00	 ret	 4
??$?0U?$pair@$$CBHUMYLIST_COLUMN_INFO@@@std@@@?$allocator@PAU_Node@?$_Tree_nod@V?$_Tmap_traits@HUMYLIST_COLUMN_INFO@@U?$less@H@std@@V?$allocator@U?$pair@$$CBHUMYLIST_COLUMN_INFO@@@std@@@3@$0A@@std@@@std@@@std@@QAE@ABV?$allocator@U?$pair@$$CBHUMYLIST_COLUMN_INFO@@@std@@@1@@Z ENDP ; std::allocator<std::_Tree_nod<std::_Tmap_traits<int,MYLIST_COLUMN_INFO,std::less<int>,std::allocator<std::pair<int const ,MYLIST_COLUMN_INFO> >,0> >::_Node *>::allocator<std::_Tree_nod<std::_Tmap_traits<int,MYLIST_COLUMN_INFO,std::less<int>,std::allocator<std::pair<int const ,MYLIST_COLUMN_INFO> >,0> >::_Node *><std::pair<int const ,MYLIST_COLUMN_INFO> >
; Function compile flags: /Odt /RTCsu
_TEXT	ENDS
;	COMDAT ??$?0U?$pair@$$CBHUMYLIST_COLUMN_INFO@@@std@@@?$allocator@U_Node@?$_Tree_nod@V?$_Tmap_traits@HUMYLIST_COLUMN_INFO@@U?$less@H@std@@V?$allocator@U?$pair@$$CBHUMYLIST_COLUMN_INFO@@@std@@@3@$0A@@std@@@std@@@std@@QAE@ABV?$allocator@U?$pair@$$CBHUMYLIST_COLUMN_INFO@@@std@@@1@@Z
_TEXT	SEGMENT
_this$ = -4						; size = 4
___formal$ = 8						; size = 4
??$?0U?$pair@$$CBHUMYLIST_COLUMN_INFO@@@std@@@?$allocator@U_Node@?$_Tree_nod@V?$_Tmap_traits@HUMYLIST_COLUMN_INFO@@U?$less@H@std@@V?$allocator@U?$pair@$$CBHUMYLIST_COLUMN_INFO@@@std@@@3@$0A@@std@@@std@@@std@@QAE@ABV?$allocator@U?$pair@$$CBHUMYLIST_COLUMN_INFO@@@std@@@1@@Z PROC NEAR ; std::allocator<std::_Tree_nod<std::_Tmap_traits<int,MYLIST_COLUMN_INFO,std::less<int>,std::allocator<std::pair<int const ,MYLIST_COLUMN_INFO> >,0> >::_Node>::allocator<std::_Tree_nod<std::_Tmap_traits<int,MYLIST_COLUMN_INFO,std::less<int>,std::allocator<std::pair<int const ,MYLIST_COLUMN_INFO> >,0> >::_Node><std::pair<int const ,MYLIST_COLUMN_INFO> >, COMDAT
; _this$ = ecx

; 120  : 		allocator(const allocator<_Other>&)

  00000	55		 push	 ebp
  00001	8b ec		 mov	 ebp, esp
  00003	51		 push	 ecx
  00004	c7 45 fc cc cc
	cc cc		 mov	 DWORD PTR [ebp-4], -858993460 ; ccccccccH
  0000b	89 4d fc	 mov	 DWORD PTR _this$[ebp], ecx

; 121  : 		{	// construct from a related allocator (do nothing)
; 122  : 		}

  0000e	8b 45 fc	 mov	 eax, DWORD PTR _this$[ebp]
  00011	8b e5		 mov	 esp, ebp
  00013	5d		 pop	 ebp
  00014	c2 04 00	 ret	 4
??$?0U?$pair@$$CBHUMYLIST_COLUMN_INFO@@@std@@@?$allocator@U_Node@?$_Tree_nod@V?$_Tmap_traits@HUMYLIST_COLUMN_INFO@@U?$less@H@std@@V?$allocator@U?$pair@$$CBHUMYLIST_COLUMN_INFO@@@std@@@3@$0A@@std@@@std@@@std@@QAE@ABV?$allocator@U?$pair@$$CBHUMYLIST_COLUMN_INFO@@@std@@@1@@Z ENDP ; std::allocator<std::_Tree_nod<std::_Tmap_traits<int,MYLIST_COLUMN_INFO,std::less<int>,std::allocator<std::pair<int const ,MYLIST_COLUMN_INFO> >,0> >::_Node>::allocator<std::_Tree_nod<std::_Tmap_traits<int,MYLIST_COLUMN_INFO,std::less<int>,std::allocator<std::pair<int const ,MYLIST_COLUMN_INFO> >,0> >::_Node><std::pair<int const ,MYLIST_COLUMN_INFO> >
; Function compile flags: /Odt /RTCsu
_TEXT	ENDS
;	COMDAT ??$_Allocate@U_Node@?$_Tree_nod@V?$_Tmap_traits@HUMYLIST_COLUMN_INFO@@U?$less@H@std@@V?$allocator@U?$pair@$$CBHUMYLIST_COLUMN_INFO@@@std@@@3@$0A@@std@@@std@@@std@@YAPAU_Node@?$_Tree_nod@V?$_Tmap_traits@HUMYLIST_COLUMN_INFO@@U?$less@H@std@@V?$allocator@U?$pair@$$CBHUMYLIST_COLUMN_INFO@@@std@@@3@$0A@@std@@@0@IPAU120@@Z
_TEXT	SEGMENT
__Count$ = 8						; size = 4
___formal$ = 12						; size = 4
??$_Allocate@U_Node@?$_Tree_nod@V?$_Tmap_traits@HUMYLIST_COLUMN_INFO@@U?$less@H@std@@V?$allocator@U?$pair@$$CBHUMYLIST_COLUMN_INFO@@@std@@@3@$0A@@std@@@std@@@std@@YAPAU_Node@?$_Tree_nod@V?$_Tmap_traits@HUMYLIST_COLUMN_INFO@@U?$less@H@std@@V?$allocator@U?$pair@$$CBHUMYLIST_COLUMN_INFO@@@std@@@3@$0A@@std@@@0@IPAU120@@Z PROC NEAR ; std::_Allocate<std::_Tree_nod<std::_Tmap_traits<int,MYLIST_COLUMN_INFO,std::less<int>,std::allocator<std::pair<int const ,MYLIST_COLUMN_INFO> >,0> >::_Node>, COMDAT

; 33   : 	{	// allocate storage for _Count elements of type _Ty

  00000	55		 push	 ebp
  00001	8b ec		 mov	 ebp, esp

; 34   : 	return ((_Ty _FARQ *)operator new(_Count * sizeof (_Ty)));

  00003	8b 45 08	 mov	 eax, DWORD PTR __Count$[ebp]
  00006	6b c0 60	 imul	 eax, 96			; 00000060H
  00009	50		 push	 eax
  0000a	e8 00 00 00 00	 call	 ??2@YAPAXI@Z		; operator new
  0000f	83 c4 04	 add	 esp, 4

; 35   : 	}

  00012	3b ec		 cmp	 ebp, esp
  00014	e8 00 00 00 00	 call	 __RTC_CheckEsp
  00019	5d		 pop	 ebp
  0001a	c3		 ret	 0
??$_Allocate@U_Node@?$_Tree_nod@V?$_Tmap_traits@HUMYLIST_COLUMN_INFO@@U?$less@H@std@@V?$allocator@U?$pair@$$CBHUMYLIST_COLUMN_INFO@@@std@@@3@$0A@@std@@@std@@@std@@YAPAU_Node@?$_Tree_nod@V?$_Tmap_traits@HUMYLIST_COLUMN_INFO@@U?$less@H@std@@V?$allocator@U?$pair@$$CBHUMYLIST_COLUMN_INFO@@@std@@@3@$0A@@std@@@0@IPAU120@@Z ENDP ; std::_Allocate<std::_Tree_nod<std::_Tmap_traits<int,MYLIST_COLUMN_INFO,std::less<int>,std::allocator<std::pair<int const ,MYLIST_COLUMN_INFO> >,0> >::_Node>
; Function compile flags: /Odt /RTCsu
_TEXT	ENDS
;	COMDAT ??$_Construct@PAU_Node@?$_Tree_nod@V?$_Tmap_traits@HUMYLIST_COLUMN_INFO@@U?$less@H@std@@V?$allocator@U?$pair@$$CBHUMYLIST_COLUMN_INFO@@@std@@@3@$0A@@std@@@std@@PAU123@@std@@YAXPAPAU_Node@?$_Tree_nod@V?$_Tmap_traits@HUMYLIST_COLUMN_INFO@@U?$less@H@std@@V?$allocator@U?$pair@$$CBHUMYLIST_COLUMN_INFO@@@std@@@3@$0A@@std@@@0@ABQAU120@@Z
_TEXT	SEGMENT
tv68 = -8						; size = 4
$T192231 = -4						; size = 4
__Ptr$ = 8						; size = 4
__Val$ = 12						; size = 4
??$_Construct@PAU_Node@?$_Tree_nod@V?$_Tmap_traits@HUMYLIST_COLUMN_INFO@@U?$less@H@std@@V?$allocator@U?$pair@$$CBHUMYLIST_COLUMN_INFO@@@std@@@3@$0A@@std@@@std@@PAU123@@std@@YAXPAPAU_Node@?$_Tree_nod@V?$_Tmap_traits@HUMYLIST_COLUMN_INFO@@U?$less@H@std@@V?$allocator@U?$pair@$$CBHUMYLIST_COLUMN_INFO@@@std@@@3@$0A@@std@@@0@ABQAU120@@Z PROC NEAR ; std::_Construct<std::_Tree_nod<std::_Tmap_traits<int,MYLIST_COLUMN_INFO,std::less<int>,std::allocator<std::pair<int const ,MYLIST_COLUMN_INFO> >,0> >::_Node *,std::_Tree_nod<std::_Tmap_traits<int,MYLIST_COLUMN_INFO,std::less<int>,std::allocator<std::pair<int const ,MYLIST_COLUMN_INFO> >,0> >::_Node *>, COMDAT

; 41   : 	{	// construct object at _Ptr with value _Val

  00000	55		 push	 ebp
  00001	8b ec		 mov	 ebp, esp
  00003	83 ec 08	 sub	 esp, 8
  00006	c7 45 f8 cc cc
	cc cc		 mov	 DWORD PTR [ebp-8], -858993460 ; ccccccccH
  0000d	c7 45 fc cc cc
	cc cc		 mov	 DWORD PTR [ebp-4], -858993460 ; ccccccccH

; 42   : 	new ((void _FARQ *)_Ptr) _T1(_Val);

  00014	8b 45 08	 mov	 eax, DWORD PTR __Ptr$[ebp]
  00017	50		 push	 eax
  00018	6a 04		 push	 4
  0001a	e8 00 00 00 00	 call	 ??2@YAPAXIPAX@Z		; operator new
  0001f	83 c4 08	 add	 esp, 8
  00022	89 45 fc	 mov	 DWORD PTR $T192231[ebp], eax
  00025	83 7d fc 00	 cmp	 DWORD PTR $T192231[ebp], 0
  00029	74 12		 je	 SHORT $L192232
  0002b	8b 4d fc	 mov	 ecx, DWORD PTR $T192231[ebp]
  0002e	8b 55 0c	 mov	 edx, DWORD PTR __Val$[ebp]
  00031	8b 02		 mov	 eax, DWORD PTR [edx]
  00033	89 01		 mov	 DWORD PTR [ecx], eax
  00035	8b 4d fc	 mov	 ecx, DWORD PTR $T192231[ebp]
  00038	89 4d f8	 mov	 DWORD PTR tv68[ebp], ecx
  0003b	eb 07		 jmp	 SHORT $L190931
$L192232:
  0003d	c7 45 f8 00 00
	00 00		 mov	 DWORD PTR tv68[ebp], 0
$L190931:

; 43   : 	}

  00044	83 c4 08	 add	 esp, 8
  00047	3b ec		 cmp	 ebp, esp
  00049	e8 00 00 00 00	 call	 __RTC_CheckEsp
  0004e	8b e5		 mov	 esp, ebp
  00050	5d		 pop	 ebp
  00051	c3		 ret	 0
??$_Construct@PAU_Node@?$_Tree_nod@V?$_Tmap_traits@HUMYLIST_COLUMN_INFO@@U?$less@H@std@@V?$allocator@U?$pair@$$CBHUMYLIST_COLUMN_INFO@@@std@@@3@$0A@@std@@@std@@PAU123@@std@@YAXPAPAU_Node@?$_Tree_nod@V?$_Tmap_traits@HUMYLIST_COLUMN_INFO@@U?$less@H@std@@V?$allocator@U?$pair@$$CBHUMYLIST_COLUMN_INFO@@@std@@@3@$0A@@std@@@0@ABQAU120@@Z ENDP ; std::_Construct<std::_Tree_nod<std::_Tmap_traits<int,MYLIST_COLUMN_INFO,std::less<int>,std::allocator<std::pair<int const ,MYLIST_COLUMN_INFO> >,0> >::_Node *,std::_Tree_nod<std::_Tmap_traits<int,MYLIST_COLUMN_INFO,std::less<int>,std::allocator<std::pair<int const ,MYLIST_COLUMN_INFO> >,0> >::_Node *>
_TEXT	ENDS
PUBLIC	??1_Node@?$_Tree_nod@V?$_Tmap_traits@HUMYLIST_COLUMN_INFO@@U?$less@H@std@@V?$allocator@U?$pair@$$CBHUMYLIST_COLUMN_INFO@@@std@@@3@$0A@@std@@@std@@QAE@XZ ; std::_Tree_nod<std::_Tmap_traits<int,MYLIST_COLUMN_INFO,std::less<int>,std::allocator<std::pair<int const ,MYLIST_COLUMN_INFO> >,0> >::_Node::~_Node
; Function compile flags: /Odt /RTCsu
;	COMDAT ??_G_Node@?$_Tree_nod@V?$_Tmap_traits@HUMYLIST_COLUMN_INFO@@U?$less@H@std@@V?$allocator@U?$pair@$$CBHUMYLIST_COLUMN_INFO@@@std@@@3@$0A@@std@@@std@@QAEPAXI@Z
_TEXT	SEGMENT
_this$ = -4						; size = 4
___flags$ = 8						; size = 4
??_G_Node@?$_Tree_nod@V?$_Tmap_traits@HUMYLIST_COLUMN_INFO@@U?$less@H@std@@V?$allocator@U?$pair@$$CBHUMYLIST_COLUMN_INFO@@@std@@@3@$0A@@std@@@std@@QAEPAXI@Z PROC NEAR ; std::_Tree_nod<std::_Tmap_traits<int,MYLIST_COLUMN_INFO,std::less<int>,std::allocator<std::pair<int const ,MYLIST_COLUMN_INFO> >,0> >::_Node::`scalar deleting destructor', COMDAT
; _this$ = ecx
  00000	55		 push	 ebp
  00001	8b ec		 mov	 ebp, esp
  00003	51		 push	 ecx
  00004	c7 45 fc cc cc
	cc cc		 mov	 DWORD PTR [ebp-4], -858993460 ; ccccccccH
  0000b	89 4d fc	 mov	 DWORD PTR _this$[ebp], ecx
  0000e	8b 4d fc	 mov	 ecx, DWORD PTR _this$[ebp]
  00011	e8 00 00 00 00	 call	 ??1_Node@?$_Tree_nod@V?$_Tmap_traits@HUMYLIST_COLUMN_INFO@@U?$less@H@std@@V?$allocator@U?$pair@$$CBHUMYLIST_COLUMN_INFO@@@std@@@3@$0A@@std@@@std@@QAE@XZ
  00016	8b 45 08	 mov	 eax, DWORD PTR ___flags$[ebp]
  00019	83 e0 01	 and	 eax, 1
  0001c	74 0c		 je	 SHORT $L190938
  0001e	8b 4d fc	 mov	 ecx, DWORD PTR _this$[ebp]
  00021	51		 push	 ecx
  00022	e8 00 00 00 00	 call	 ??3@YAXPAX@Z		; operator delete
  00027	83 c4 04	 add	 esp, 4
$L190938:
  0002a	8b 45 fc	 mov	 eax, DWORD PTR _this$[ebp]
  0002d	83 c4 04	 add	 esp, 4
  00030	3b ec		 cmp	 ebp, esp
  00032	e8 00 00 00 00	 call	 __RTC_CheckEsp
  00037	8b e5		 mov	 esp, ebp
  00039	5d		 pop	 ebp
  0003a	c2 04 00	 ret	 4
??_G_Node@?$_Tree_nod@V?$_Tmap_traits@HUMYLIST_COLUMN_INFO@@U?$less@H@std@@V?$allocator@U?$pair@$$CBHUMYLIST_COLUMN_INFO@@@std@@@3@$0A@@std@@@std@@QAEPAXI@Z ENDP ; std::_Tree_nod<std::_Tmap_traits<int,MYLIST_COLUMN_INFO,std::less<int>,std::allocator<std::pair<int const ,MYLIST_COLUMN_INFO> >,0> >::_Node::`scalar deleting destructor'
; Function compile flags: /Odt /RTCsu
_TEXT	ENDS
;	COMDAT ??1_Node@?$_Tree_nod@V?$_Tmap_traits@HUMYLIST_COLUMN_INFO@@U?$less@H@std@@V?$allocator@U?$pair@$$CBHUMYLIST_COLUMN_INFO@@@std@@@3@$0A@@std@@@std@@QAE@XZ
_TEXT	SEGMENT
_this$ = -4						; size = 4
??1_Node@?$_Tree_nod@V?$_Tmap_traits@HUMYLIST_COLUMN_INFO@@U?$less@H@std@@V?$allocator@U?$pair@$$CBHUMYLIST_COLUMN_INFO@@@std@@@3@$0A@@std@@@std@@QAE@XZ PROC NEAR ; std::_Tree_nod<std::_Tmap_traits<int,MYLIST_COLUMN_INFO,std::less<int>,std::allocator<std::pair<int const ,MYLIST_COLUMN_INFO> >,0> >::_Node::~_Node, COMDAT
; _this$ = ecx
  00000	55		 push	 ebp
  00001	8b ec		 mov	 ebp, esp
  00003	51		 push	 ecx
  00004	c7 45 fc cc cc
	cc cc		 mov	 DWORD PTR [ebp-4], -858993460 ; ccccccccH
  0000b	89 4d fc	 mov	 DWORD PTR _this$[ebp], ecx
  0000e	8b 4d fc	 mov	 ecx, DWORD PTR _this$[ebp]
  00011	83 c1 0c	 add	 ecx, 12			; 0000000cH
  00014	e8 00 00 00 00	 call	 ??1?$pair@$$CBHUMYLIST_COLUMN_INFO@@@std@@QAE@XZ
  00019	83 c4 04	 add	 esp, 4
  0001c	3b ec		 cmp	 ebp, esp
  0001e	e8 00 00 00 00	 call	 __RTC_CheckEsp
  00023	8b e5		 mov	 esp, ebp
  00025	5d		 pop	 ebp
  00026	c3		 ret	 0
??1_Node@?$_Tree_nod@V?$_Tmap_traits@HUMYLIST_COLUMN_INFO@@U?$less@H@std@@V?$allocator@U?$pair@$$CBHUMYLIST_COLUMN_INFO@@@std@@@3@$0A@@std@@@std@@QAE@XZ ENDP ; std::_Tree_nod<std::_Tmap_traits<int,MYLIST_COLUMN_INFO,std::less<int>,std::allocator<std::pair<int const ,MYLIST_COLUMN_INFO> >,0> >::_Node::~_Node
_TEXT	ENDS
PUBLIC	??Dconst_iterator@?$vector@HV?$allocator@H@std@@@std@@QBEABHXZ ; std::vector<int,std::allocator<int> >::const_iterator::operator*
; Function compile flags: /Odt /RTCsu
; File d:\program files (x86)\microsoft visual studio .net 2003\vc7\include\vector
;	COMDAT ??Diterator@?$vector@HV?$allocator@H@std@@@std@@QBEAAHXZ
_TEXT	SEGMENT
_this$ = -4						; size = 4
??Diterator@?$vector@HV?$allocator@H@std@@@std@@QBEAAHXZ PROC NEAR ; std::vector<int,std::allocator<int> >::iterator::operator*, COMDAT
; _this$ = ecx

; 219  : 			{	// return designated object

  00000	55		 push	 ebp
  00001	8b ec		 mov	 ebp, esp
  00003	51		 push	 ecx
  00004	c7 45 fc cc cc
	cc cc		 mov	 DWORD PTR [ebp-4], -858993460 ; ccccccccH
  0000b	89 4d fc	 mov	 DWORD PTR _this$[ebp], ecx

; 220  : 			return ((reference)**(const_iterator *)this);

  0000e	8b 4d fc	 mov	 ecx, DWORD PTR _this$[ebp]
  00011	e8 00 00 00 00	 call	 ??Dconst_iterator@?$vector@HV?$allocator@H@std@@@std@@QBEABHXZ ; std::vector<int,std::allocator<int> >::const_iterator::operator*

; 221  : 			}

  00016	83 c4 04	 add	 esp, 4
  00019	3b ec		 cmp	 ebp, esp
  0001b	e8 00 00 00 00	 call	 __RTC_CheckEsp
  00020	8b e5		 mov	 esp, ebp
  00022	5d		 pop	 ebp
  00023	c3		 ret	 0
??Diterator@?$vector@HV?$allocator@H@std@@@std@@QBEAAHXZ ENDP ; std::vector<int,std::allocator<int> >::iterator::operator*
; Function compile flags: /Odt /RTCsu
_TEXT	ENDS
;	COMDAT ??Eiterator@?$vector@HV?$allocator@H@std@@@std@@QAEAAV012@XZ
_TEXT	SEGMENT
_this$ = -4						; size = 4
??Eiterator@?$vector@HV?$allocator@H@std@@@std@@QAEAAV012@XZ PROC NEAR ; std::vector<int,std::allocator<int> >::iterator::operator++, COMDAT
; _this$ = ecx

; 229  : 			{	// preincrement

  00000	55		 push	 ebp
  00001	8b ec		 mov	 ebp, esp
  00003	51		 push	 ecx
  00004	c7 45 fc cc cc
	cc cc		 mov	 DWORD PTR [ebp-4], -858993460 ; ccccccccH
  0000b	89 4d fc	 mov	 DWORD PTR _this$[ebp], ecx

; 230  : 			++this->_Myptr;

  0000e	8b 45 fc	 mov	 eax, DWORD PTR _this$[ebp]
  00011	8b 08		 mov	 ecx, DWORD PTR [eax]
  00013	83 c1 04	 add	 ecx, 4
  00016	8b 55 fc	 mov	 edx, DWORD PTR _this$[ebp]
  00019	89 0a		 mov	 DWORD PTR [edx], ecx

; 231  : 			return (*this);

  0001b	8b 45 fc	 mov	 eax, DWORD PTR _this$[ebp]

; 232  : 			}

  0001e	8b e5		 mov	 esp, ebp
  00020	5d		 pop	 ebp
  00021	c3		 ret	 0
??Eiterator@?$vector@HV?$allocator@H@std@@@std@@QAEAAV012@XZ ENDP ; std::vector<int,std::allocator<int> >::iterator::operator++
; Function compile flags: /Odt /RTCsu
; File d:\program files (x86)\microsoft visual studio .net 2003\vc7\include\iterator
_TEXT	ENDS
;	COMDAT ??0?$back_insert_iterator@V?$vector@HV?$allocator@H@std@@@std@@@std@@QAE@AAV?$vector@HV?$allocator@H@std@@@1@@Z
_TEXT	SEGMENT
_this$ = -4						; size = 4
__Cont$ = 8						; size = 4
??0?$back_insert_iterator@V?$vector@HV?$allocator@H@std@@@std@@@std@@QAE@AAV?$vector@HV?$allocator@H@std@@@1@@Z PROC NEAR ; std::back_insert_iterator<std::vector<int,std::allocator<int> > >::back_insert_iterator<std::vector<int,std::allocator<int> > >, COMDAT
; _this$ = ecx

; 23   : 		{	// construct with container

  00000	55		 push	 ebp
  00001	8b ec		 mov	 ebp, esp
  00003	51		 push	 ecx
  00004	c7 45 fc cc cc
	cc cc		 mov	 DWORD PTR [ebp-4], -858993460 ; ccccccccH
  0000b	89 4d fc	 mov	 DWORD PTR _this$[ebp], ecx
  0000e	8b 45 fc	 mov	 eax, DWORD PTR _this$[ebp]
  00011	8b 4d 08	 mov	 ecx, DWORD PTR __Cont$[ebp]
  00014	89 08		 mov	 DWORD PTR [eax], ecx

; 24   : 		}

  00016	8b 45 fc	 mov	 eax, DWORD PTR _this$[ebp]
  00019	8b e5		 mov	 esp, ebp
  0001b	5d		 pop	 ebp
  0001c	c2 04 00	 ret	 4
??0?$back_insert_iterator@V?$vector@HV?$allocator@H@std@@@std@@@std@@QAE@AAV?$vector@HV?$allocator@H@std@@@1@@Z ENDP ; std::back_insert_iterator<std::vector<int,std::allocator<int> > >::back_insert_iterator<std::vector<int,std::allocator<int> > >
; Function compile flags: /Odt /RTCsu
; File d:\program files (x86)\microsoft visual studio .net 2003\vc7\include\vector
_TEXT	ENDS
;	COMDAT ??Dconst_iterator@?$vector@HV?$allocator@H@std@@@std@@QBEABHXZ
_TEXT	SEGMENT
_this$ = -4						; size = 4
??Dconst_iterator@?$vector@HV?$allocator@H@std@@@std@@QBEABHXZ PROC NEAR ; std::vector<int,std::allocator<int> >::const_iterator::operator*, COMDAT
; _this$ = ecx

; 79   : 			{	// return designated object

  00000	55		 push	 ebp
  00001	8b ec		 mov	 ebp, esp
  00003	51		 push	 ecx
  00004	c7 45 fc cc cc
	cc cc		 mov	 DWORD PTR [ebp-4], -858993460 ; ccccccccH
  0000b	89 4d fc	 mov	 DWORD PTR _this$[ebp], ecx

; 80   : 
; 81   : 
; 82   : 			return (*_Myptr);

  0000e	8b 45 fc	 mov	 eax, DWORD PTR _this$[ebp]
  00011	8b 00		 mov	 eax, DWORD PTR [eax]

; 83   : 			}

  00013	8b e5		 mov	 esp, ebp
  00015	5d		 pop	 ebp
  00016	c3		 ret	 0
??Dconst_iterator@?$vector@HV?$allocator@H@std@@@std@@QBEABHXZ ENDP ; std::vector<int,std::allocator<int> >::const_iterator::operator*
; Function compile flags: /Odt /RTCsu
; File d:\program files (x86)\microsoft visual studio .net 2003\vc7\include\xutility
_TEXT	ENDS
;	COMDAT ??$_Ptr_cat@Viterator@?$vector@HV?$allocator@H@std@@@std@@V?$back_insert_iterator@V?$vector@HV?$allocator@H@std@@@std@@@3@@std@@YA?AU_Nonscalar_ptr_iterator_tag@0@AAViterator@?$vector@HV?$allocator@H@std@@@0@AAV?$back_insert_iterator@V?$vector@HV?$allocator@H@std@@@std@@@0@@Z
_TEXT	SEGMENT
__Cat$ = -5						; size = 1
___formal$ = 8						; size = 4
___formal$ = 12						; size = 4
??$_Ptr_cat@Viterator@?$vector@HV?$allocator@H@std@@@std@@V?$back_insert_iterator@V?$vector@HV?$allocator@H@std@@@std@@@3@@std@@YA?AU_Nonscalar_ptr_iterator_tag@0@AAViterator@?$vector@HV?$allocator@H@std@@@0@AAV?$back_insert_iterator@V?$vector@HV?$allocator@H@std@@@std@@@0@@Z PROC NEAR ; std::_Ptr_cat<std::vector<int,std::allocator<int> >::iterator,std::back_insert_iterator<std::vector<int,std::allocator<int> > > >, COMDAT

; 211  : 	{	// return pointer category from arbitrary arguments

  00000	55		 push	 ebp
  00001	8b ec		 mov	 ebp, esp
  00003	83 ec 0c	 sub	 esp, 12			; 0000000cH
  00006	c7 45 f4 cc cc
	cc cc		 mov	 DWORD PTR [ebp-12], -858993460 ; ccccccccH
  0000d	c7 45 f8 cc cc
	cc cc		 mov	 DWORD PTR [ebp-8], -858993460 ; ccccccccH
  00014	c7 45 fc cc cc
	cc cc		 mov	 DWORD PTR [ebp-4], -858993460 ; ccccccccH

; 212  : 	_Nonscalar_ptr_iterator_tag _Cat;
; 213  : 	return (_Cat);

  0001b	8a 45 fb	 mov	 al, BYTE PTR __Cat$[ebp]

; 214  : 	}

  0001e	52		 push	 edx
  0001f	8b cd		 mov	 ecx, ebp
  00021	50		 push	 eax
  00022	8d 15 00 00 00
	00		 lea	 edx, DWORD PTR $L192244
  00028	e8 00 00 00 00	 call	 @_RTC_CheckStackVars@8
  0002d	58		 pop	 eax
  0002e	5a		 pop	 edx
  0002f	8b e5		 mov	 esp, ebp
  00031	5d		 pop	 ebp
  00032	c3		 ret	 0
$L192244:
  00033	01 00 00 00	 DD	 1
  00037	00 00 00 00	 DD	 $L192243
$L192243:
  0003b	fb ff ff ff	 DD	 -5			; fffffffbH
  0003f	01 00 00 00	 DD	 1
  00043	00 00 00 00	 DD	 $L192242
$L192242:
  00047	5f		 DB	 95			; 0000005fH
  00048	43		 DB	 67			; 00000043H
  00049	61		 DB	 97			; 00000061H
  0004a	74		 DB	 116			; 00000074H
  0004b	00		 DB	 0
??$_Ptr_cat@Viterator@?$vector@HV?$allocator@H@std@@@std@@V?$back_insert_iterator@V?$vector@HV?$allocator@H@std@@@std@@@3@@std@@YA?AU_Nonscalar_ptr_iterator_tag@0@AAViterator@?$vector@HV?$allocator@H@std@@@0@AAV?$back_insert_iterator@V?$vector@HV?$allocator@H@std@@@std@@@0@@Z ENDP ; std::_Ptr_cat<std::vector<int,std::allocator<int> >::iterator,std::back_insert_iterator<std::vector<int,std::allocator<int> > > >
_TEXT	ENDS
PUBLIC	??4?$back_insert_iterator@V?$vector@HV?$allocator@H@std@@@std@@@std@@QAEAAV01@ABH@Z ; std::back_insert_iterator<std::vector<int,std::allocator<int> > >::operator=
PUBLIC	??D?$back_insert_iterator@V?$vector@HV?$allocator@H@std@@@std@@@std@@QAEAAV01@XZ ; std::back_insert_iterator<std::vector<int,std::allocator<int> > >::operator*
PUBLIC	??E?$back_insert_iterator@V?$vector@HV?$allocator@H@std@@@std@@@std@@QAEAAV01@XZ ; std::back_insert_iterator<std::vector<int,std::allocator<int> > >::operator++
; Function compile flags: /Odt /RTCsu
;	COMDAT ??$_Copy_opt@Viterator@?$vector@HV?$allocator@H@std@@@std@@V?$back_insert_iterator@V?$vector@HV?$allocator@H@std@@@std@@@3@@std@@YA?AV?$back_insert_iterator@V?$vector@HV?$allocator@H@std@@@std@@@0@Viterator@?$vector@HV?$allocator@H@std@@@0@0V10@U_Nonscalar_ptr_iterator_tag@0@@Z
_TEXT	SEGMENT
___$ReturnUdt$ = 8					; size = 4
__First$ = 12						; size = 4
__Last$ = 16						; size = 4
__Dest$ = 20						; size = 4
___formal$ = 24						; size = 1
??$_Copy_opt@Viterator@?$vector@HV?$allocator@H@std@@@std@@V?$back_insert_iterator@V?$vector@HV?$allocator@H@std@@@std@@@3@@std@@YA?AV?$back_insert_iterator@V?$vector@HV?$allocator@H@std@@@std@@@0@Viterator@?$vector@HV?$allocator@H@std@@@0@0V10@U_Nonscalar_ptr_iterator_tag@0@@Z PROC NEAR ; std::_Copy_opt<std::vector<int,std::allocator<int> >::iterator,std::back_insert_iterator<std::vector<int,std::allocator<int> > > >, COMDAT

; 1020 : 	{	// copy [_First, _Last) to [_Dest, ...), arbitrary iterators

  00000	55		 push	 ebp
  00001	8b ec		 mov	 ebp, esp

; 1021 : 	for (; _First != _Last; ++_Dest, ++_First)

  00003	eb 10		 jmp	 SHORT $L190955
$L190956:
  00005	8d 4d 14	 lea	 ecx, DWORD PTR __Dest$[ebp]
  00008	e8 00 00 00 00	 call	 ??E?$back_insert_iterator@V?$vector@HV?$allocator@H@std@@@std@@@std@@QAEAAV01@XZ ; std::back_insert_iterator<std::vector<int,std::allocator<int> > >::operator++
  0000d	8d 4d 0c	 lea	 ecx, DWORD PTR __First$[ebp]
  00010	e8 00 00 00 00	 call	 ??Eiterator@?$vector@HV?$allocator@H@std@@@std@@QAEAAV012@XZ ; std::vector<int,std::allocator<int> >::iterator::operator++
$L190955:
  00015	8d 45 10	 lea	 eax, DWORD PTR __Last$[ebp]
  00018	50		 push	 eax
  00019	8d 4d 0c	 lea	 ecx, DWORD PTR __First$[ebp]
  0001c	e8 00 00 00 00	 call	 ??9const_iterator@?$vector@HV?$allocator@H@std@@@std@@QBE_NABV012@@Z ; std::vector<int,std::allocator<int> >::const_iterator::operator!=
  00021	0f b6 c8	 movzx	 ecx, al
  00024	85 c9		 test	 ecx, ecx
  00026	74 1a		 je	 SHORT $L190957

; 1022 : 		*_Dest = *_First;

  00028	8d 4d 0c	 lea	 ecx, DWORD PTR __First$[ebp]
  0002b	e8 00 00 00 00	 call	 ??Diterator@?$vector@HV?$allocator@H@std@@@std@@QBEAAHXZ ; std::vector<int,std::allocator<int> >::iterator::operator*
  00030	50		 push	 eax
  00031	8d 4d 14	 lea	 ecx, DWORD PTR __Dest$[ebp]
  00034	e8 00 00 00 00	 call	 ??D?$back_insert_iterator@V?$vector@HV?$allocator@H@std@@@std@@@std@@QAEAAV01@XZ ; std::back_insert_iterator<std::vector<int,std::allocator<int> > >::operator*
  00039	8b c8		 mov	 ecx, eax
  0003b	e8 00 00 00 00	 call	 ??4?$back_insert_iterator@V?$vector@HV?$allocator@H@std@@@std@@@std@@QAEAAV01@ABH@Z ; std::back_insert_iterator<std::vector<int,std::allocator<int> > >::operator=
  00040	eb c3		 jmp	 SHORT $L190956
$L190957:

; 1023 : 	return (_Dest);

  00042	8b 55 08	 mov	 edx, DWORD PTR ___$ReturnUdt$[ebp]
  00045	8b 45 14	 mov	 eax, DWORD PTR __Dest$[ebp]
  00048	89 02		 mov	 DWORD PTR [edx], eax
  0004a	8b 45 08	 mov	 eax, DWORD PTR ___$ReturnUdt$[ebp]

; 1024 : 	}

  0004d	3b ec		 cmp	 ebp, esp
  0004f	e8 00 00 00 00	 call	 __RTC_CheckEsp
  00054	5d		 pop	 ebp
  00055	c3		 ret	 0
??$_Copy_opt@Viterator@?$vector@HV?$allocator@H@std@@@std@@V?$back_insert_iterator@V?$vector@HV?$allocator@H@std@@@std@@@3@@std@@YA?AV?$back_insert_iterator@V?$vector@HV?$allocator@H@std@@@std@@@0@Viterator@?$vector@HV?$allocator@H@std@@@0@0V10@U_Nonscalar_ptr_iterator_tag@0@@Z ENDP ; std::_Copy_opt<std::vector<int,std::allocator<int> >::iterator,std::back_insert_iterator<std::vector<int,std::allocator<int> > > >
; Function compile flags: /Odt /RTCsu
; File d:\program files (x86)\microsoft visual studio .net 2003\vc7\include\xmemory
_TEXT	ENDS
;	COMDAT ??$_Destroy_range@HV?$allocator@H@std@@@std@@YAXPAH0AAV?$allocator@H@0@U_Scalar_ptr_iterator_tag@0@@Z
_TEXT	SEGMENT
__First$ = 8						; size = 4
__Last$ = 12						; size = 4
__Al$ = 16						; size = 4
___formal$ = 20						; size = 1
??$_Destroy_range@HV?$allocator@H@std@@@std@@YAXPAH0AAV?$allocator@H@0@U_Scalar_ptr_iterator_tag@0@@Z PROC NEAR ; std::_Destroy_range<int,std::allocator<int> >, COMDAT

; 233  : 	{	// destroy [_First, _Last), scalar type (do nothing)

  00000	55		 push	 ebp
  00001	8b ec		 mov	 ebp, esp

; 234  : 	}

  00003	5d		 pop	 ebp
  00004	c3		 ret	 0
??$_Destroy_range@HV?$allocator@H@std@@@std@@YAXPAH0AAV?$allocator@H@0@U_Scalar_ptr_iterator_tag@0@@Z ENDP ; std::_Destroy_range<int,std::allocator<int> >
_TEXT	ENDS
PUBLIC	?push_back@?$vector@HV?$allocator@H@std@@@std@@QAEXABH@Z ; std::vector<int,std::allocator<int> >::push_back
; Function compile flags: /Odt /RTCsu
; File d:\program files (x86)\microsoft visual studio .net 2003\vc7\include\iterator
;	COMDAT ??4?$back_insert_iterator@V?$vector@HV?$allocator@H@std@@@std@@@std@@QAEAAV01@ABH@Z
_TEXT	SEGMENT
_this$ = -4						; size = 4
__Val$ = 8						; size = 4
??4?$back_insert_iterator@V?$vector@HV?$allocator@H@std@@@std@@@std@@QAEAAV01@ABH@Z PROC NEAR ; std::back_insert_iterator<std::vector<int,std::allocator<int> > >::operator=, COMDAT
; _this$ = ecx

; 28   : 		{	// push value into container

  00000	55		 push	 ebp
  00001	8b ec		 mov	 ebp, esp
  00003	51		 push	 ecx
  00004	c7 45 fc cc cc
	cc cc		 mov	 DWORD PTR [ebp-4], -858993460 ; ccccccccH
  0000b	89 4d fc	 mov	 DWORD PTR _this$[ebp], ecx

; 29   : 		container->push_back(_Val);

  0000e	8b 45 08	 mov	 eax, DWORD PTR __Val$[ebp]
  00011	50		 push	 eax
  00012	8b 4d fc	 mov	 ecx, DWORD PTR _this$[ebp]
  00015	8b 09		 mov	 ecx, DWORD PTR [ecx]
  00017	e8 00 00 00 00	 call	 ?push_back@?$vector@HV?$allocator@H@std@@@std@@QAEXABH@Z ; std::vector<int,std::allocator<int> >::push_back

; 30   : 		return (*this);

  0001c	8b 45 fc	 mov	 eax, DWORD PTR _this$[ebp]

; 31   : 		}

  0001f	83 c4 04	 add	 esp, 4
  00022	3b ec		 cmp	 ebp, esp
  00024	e8 00 00 00 00	 call	 __RTC_CheckEsp
  00029	8b e5		 mov	 esp, ebp
  0002b	5d		 pop	 ebp
  0002c	c2 04 00	 ret	 4
??4?$back_insert_iterator@V?$vector@HV?$allocator@H@std@@@std@@@std@@QAEAAV01@ABH@Z ENDP ; std::back_insert_iterator<std::vector<int,std::allocator<int> > >::operator=
; Function compile flags: /Odt /RTCsu
_TEXT	ENDS
;	COMDAT ??D?$back_insert_iterator@V?$vector@HV?$allocator@H@std@@@std@@@std@@QAEAAV01@XZ
_TEXT	SEGMENT
_this$ = -4						; size = 4
??D?$back_insert_iterator@V?$vector@HV?$allocator@H@std@@@std@@@std@@QAEAAV01@XZ PROC NEAR ; std::back_insert_iterator<std::vector<int,std::allocator<int> > >::operator*, COMDAT
; _this$ = ecx

; 34   : 		{	// pretend to return designated value

  00000	55		 push	 ebp
  00001	8b ec		 mov	 ebp, esp
  00003	51		 push	 ecx
  00004	c7 45 fc cc cc
	cc cc		 mov	 DWORD PTR [ebp-4], -858993460 ; ccccccccH
  0000b	89 4d fc	 mov	 DWORD PTR _this$[ebp], ecx

; 35   : 		return (*this);

  0000e	8b 45 fc	 mov	 eax, DWORD PTR _this$[ebp]

; 36   : 		}

  00011	8b e5		 mov	 esp, ebp
  00013	5d		 pop	 ebp
  00014	c3		 ret	 0
??D?$back_insert_iterator@V?$vector@HV?$allocator@H@std@@@std@@@std@@QAEAAV01@XZ ENDP ; std::back_insert_iterator<std::vector<int,std::allocator<int> > >::operator*
; Function compile flags: /Odt /RTCsu
_TEXT	ENDS
;	COMDAT ??E?$back_insert_iterator@V?$vector@HV?$allocator@H@std@@@std@@@std@@QAEAAV01@XZ
_TEXT	SEGMENT
_this$ = -4						; size = 4
??E?$back_insert_iterator@V?$vector@HV?$allocator@H@std@@@std@@@std@@QAEAAV01@XZ PROC NEAR ; std::back_insert_iterator<std::vector<int,std::allocator<int> > >::operator++, COMDAT
; _this$ = ecx

; 39   : 		{	// pretend to preincrement

  00000	55		 push	 ebp
  00001	8b ec		 mov	 ebp, esp
  00003	51		 push	 ecx
  00004	c7 45 fc cc cc
	cc cc		 mov	 DWORD PTR [ebp-4], -858993460 ; ccccccccH
  0000b	89 4d fc	 mov	 DWORD PTR _this$[ebp], ecx

; 40   : 		return (*this);

  0000e	8b 45 fc	 mov	 eax, DWORD PTR _this$[ebp]

; 41   : 		}

  00011	8b e5		 mov	 esp, ebp
  00013	5d		 pop	 ebp
  00014	c3		 ret	 0
??E?$back_insert_iterator@V?$vector@HV?$allocator@H@std@@@std@@@std@@QAEAAV01@XZ ENDP ; std::back_insert_iterator<std::vector<int,std::allocator<int> > >::operator++
_TEXT	ENDS
PUBLIC	?capacity@?$vector@HV?$allocator@H@std@@@std@@QBEIXZ ; std::vector<int,std::allocator<int> >::capacity
PUBLIC	?size@?$vector@HV?$allocator@H@std@@@std@@QBEIXZ ; std::vector<int,std::allocator<int> >::size
PUBLIC	?insert@?$vector@HV?$allocator@H@std@@@std@@QAE?AViterator@12@V312@ABH@Z ; std::vector<int,std::allocator<int> >::insert
PUBLIC	?_Ufill@?$vector@HV?$allocator@H@std@@@std@@IAEPAHPAHIABH@Z ; std::vector<int,std::allocator<int> >::_Ufill
; Function compile flags: /Odt /RTCsu
; File d:\program files (x86)\microsoft visual studio .net 2003\vc7\include\vector
;	COMDAT ?push_back@?$vector@HV?$allocator@H@std@@@std@@QAEXABH@Z
_TEXT	SEGMENT
$T192252 = -12						; size = 4
$T192251 = -8						; size = 4
_this$ = -4						; size = 4
__Val$ = 8						; size = 4
?push_back@?$vector@HV?$allocator@H@std@@@std@@QAEXABH@Z PROC NEAR ; std::vector<int,std::allocator<int> >::push_back, COMDAT
; _this$ = ecx

; 579  : 		{	// insert element at end

  00000	55		 push	 ebp
  00001	8b ec		 mov	 ebp, esp
  00003	83 ec 0c	 sub	 esp, 12			; 0000000cH
  00006	56		 push	 esi
  00007	c7 45 f4 cc cc
	cc cc		 mov	 DWORD PTR [ebp-12], -858993460 ; ccccccccH
  0000e	c7 45 f8 cc cc
	cc cc		 mov	 DWORD PTR [ebp-8], -858993460 ; ccccccccH
  00015	c7 45 fc cc cc
	cc cc		 mov	 DWORD PTR [ebp-4], -858993460 ; ccccccccH
  0001c	89 4d fc	 mov	 DWORD PTR _this$[ebp], ecx

; 580  : 		if (size() < capacity())

  0001f	8b 4d fc	 mov	 ecx, DWORD PTR _this$[ebp]
  00022	e8 00 00 00 00	 call	 ?size@?$vector@HV?$allocator@H@std@@@std@@QBEIXZ ; std::vector<int,std::allocator<int> >::size
  00027	8b f0		 mov	 esi, eax
  00029	8b 4d fc	 mov	 ecx, DWORD PTR _this$[ebp]
  0002c	e8 00 00 00 00	 call	 ?capacity@?$vector@HV?$allocator@H@std@@@std@@QBEIXZ ; std::vector<int,std::allocator<int> >::capacity
  00031	3b f0		 cmp	 esi, eax
  00033	73 1d		 jae	 SHORT $L190967

; 581  : 			_Mylast = _Ufill(_Mylast, 1, _Val);

  00035	8b 45 08	 mov	 eax, DWORD PTR __Val$[ebp]
  00038	50		 push	 eax
  00039	6a 01		 push	 1
  0003b	8b 4d fc	 mov	 ecx, DWORD PTR _this$[ebp]
  0003e	8b 51 08	 mov	 edx, DWORD PTR [ecx+8]
  00041	52		 push	 edx
  00042	8b 4d fc	 mov	 ecx, DWORD PTR _this$[ebp]
  00045	e8 00 00 00 00	 call	 ?_Ufill@?$vector@HV?$allocator@H@std@@@std@@IAEPAHPAHIABH@Z ; std::vector<int,std::allocator<int> >::_Ufill
  0004a	8b 4d fc	 mov	 ecx, DWORD PTR _this$[ebp]
  0004d	89 41 08	 mov	 DWORD PTR [ecx+8], eax

; 582  : 		else

  00050	eb 1f		 jmp	 SHORT $L190966
$L190967:

; 583  : 			insert(end(), _Val);

  00052	8b 55 08	 mov	 edx, DWORD PTR __Val$[ebp]
  00055	52		 push	 edx
  00056	8d 45 f8	 lea	 eax, DWORD PTR $T192251[ebp]
  00059	50		 push	 eax
  0005a	8b 4d fc	 mov	 ecx, DWORD PTR _this$[ebp]
  0005d	e8 00 00 00 00	 call	 ?end@?$vector@HV?$allocator@H@std@@@std@@QAE?AViterator@12@XZ ; std::vector<int,std::allocator<int> >::end
  00062	8b 08		 mov	 ecx, DWORD PTR [eax]
  00064	51		 push	 ecx
  00065	8d 55 f4	 lea	 edx, DWORD PTR $T192252[ebp]
  00068	52		 push	 edx
  00069	8b 4d fc	 mov	 ecx, DWORD PTR _this$[ebp]
  0006c	e8 00 00 00 00	 call	 ?insert@?$vector@HV?$allocator@H@std@@@std@@QAE?AViterator@12@V312@ABH@Z ; std::vector<int,std::allocator<int> >::insert
$L190966:

; 584  : 		}

  00071	5e		 pop	 esi
  00072	83 c4 0c	 add	 esp, 12			; 0000000cH
  00075	3b ec		 cmp	 ebp, esp
  00077	e8 00 00 00 00	 call	 __RTC_CheckEsp
  0007c	8b e5		 mov	 esp, ebp
  0007e	5d		 pop	 ebp
  0007f	c2 04 00	 ret	 4
?push_back@?$vector@HV?$allocator@H@std@@@std@@QAEXABH@Z ENDP ; std::vector<int,std::allocator<int> >::push_back
; Function compile flags: /Odt /RTCsu
_TEXT	ENDS
;	COMDAT ?capacity@?$vector@HV?$allocator@H@std@@@std@@QBEIXZ
_TEXT	SEGMENT
tv70 = -8						; size = 4
_this$ = -4						; size = 4
?capacity@?$vector@HV?$allocator@H@std@@@std@@QBEIXZ PROC NEAR ; std::vector<int,std::allocator<int> >::capacity, COMDAT
; _this$ = ecx

; 457  : 		{	// return current length of allocated storage

  00000	55		 push	 ebp
  00001	8b ec		 mov	 ebp, esp
  00003	83 ec 08	 sub	 esp, 8
  00006	c7 45 f8 cc cc
	cc cc		 mov	 DWORD PTR [ebp-8], -858993460 ; ccccccccH
  0000d	c7 45 fc cc cc
	cc cc		 mov	 DWORD PTR [ebp-4], -858993460 ; ccccccccH
  00014	89 4d fc	 mov	 DWORD PTR _this$[ebp], ecx

; 458  : 		return (_Myfirst == 0 ? 0 : _Myend - _Myfirst);

  00017	8b 45 fc	 mov	 eax, DWORD PTR _this$[ebp]
  0001a	83 78 04 00	 cmp	 DWORD PTR [eax+4], 0
  0001e	75 09		 jne	 SHORT $L192254
  00020	c7 45 f8 00 00
	00 00		 mov	 DWORD PTR tv70[ebp], 0
  00027	eb 12		 jmp	 SHORT $L192255
$L192254:
  00029	8b 4d fc	 mov	 ecx, DWORD PTR _this$[ebp]
  0002c	8b 55 fc	 mov	 edx, DWORD PTR _this$[ebp]
  0002f	8b 41 0c	 mov	 eax, DWORD PTR [ecx+12]
  00032	2b 42 04	 sub	 eax, DWORD PTR [edx+4]
  00035	c1 f8 02	 sar	 eax, 2
  00038	89 45 f8	 mov	 DWORD PTR tv70[ebp], eax
$L192255:
  0003b	8b 45 f8	 mov	 eax, DWORD PTR tv70[ebp]

; 459  : 		}

  0003e	8b e5		 mov	 esp, ebp
  00040	5d		 pop	 ebp
  00041	c3		 ret	 0
?capacity@?$vector@HV?$allocator@H@std@@@std@@QBEIXZ ENDP ; std::vector<int,std::allocator<int> >::capacity
; Function compile flags: /Odt /RTCsu
_TEXT	ENDS
;	COMDAT ?size@?$vector@HV?$allocator@H@std@@@std@@QBEIXZ
_TEXT	SEGMENT
tv70 = -8						; size = 4
_this$ = -4						; size = 4
?size@?$vector@HV?$allocator@H@std@@@std@@QBEIXZ PROC NEAR ; std::vector<int,std::allocator<int> >::size, COMDAT
; _this$ = ecx

; 515  : 		{	// return length of sequence

  00000	55		 push	 ebp
  00001	8b ec		 mov	 ebp, esp
  00003	83 ec 08	 sub	 esp, 8
  00006	c7 45 f8 cc cc
	cc cc		 mov	 DWORD PTR [ebp-8], -858993460 ; ccccccccH
  0000d	c7 45 fc cc cc
	cc cc		 mov	 DWORD PTR [ebp-4], -858993460 ; ccccccccH
  00014	89 4d fc	 mov	 DWORD PTR _this$[ebp], ecx

; 516  : 		return (_Myfirst == 0 ? 0 : _Mylast - _Myfirst);

  00017	8b 45 fc	 mov	 eax, DWORD PTR _this$[ebp]
  0001a	83 78 04 00	 cmp	 DWORD PTR [eax+4], 0
  0001e	75 09		 jne	 SHORT $L192257
  00020	c7 45 f8 00 00
	00 00		 mov	 DWORD PTR tv70[ebp], 0
  00027	eb 12		 jmp	 SHORT $L192258
$L192257:
  00029	8b 4d fc	 mov	 ecx, DWORD PTR _this$[ebp]
  0002c	8b 55 fc	 mov	 edx, DWORD PTR _this$[ebp]
  0002f	8b 41 08	 mov	 eax, DWORD PTR [ecx+8]
  00032	2b 42 04	 sub	 eax, DWORD PTR [edx+4]
  00035	c1 f8 02	 sar	 eax, 2
  00038	89 45 f8	 mov	 DWORD PTR tv70[ebp], eax
$L192258:
  0003b	8b 45 f8	 mov	 eax, DWORD PTR tv70[ebp]

; 517  : 		}

  0003e	8b e5		 mov	 esp, ebp
  00040	5d		 pop	 ebp
  00041	c3		 ret	 0
?size@?$vector@HV?$allocator@H@std@@@std@@QBEIXZ ENDP	; std::vector<int,std::allocator<int> >::size
_TEXT	ENDS
PUBLIC	??Hiterator@?$vector@HV?$allocator@H@std@@@std@@QBE?AV012@H@Z ; std::vector<int,std::allocator<int> >::iterator::operator+
PUBLIC	??Giterator@?$vector@HV?$allocator@H@std@@@std@@QBEHABVconst_iterator@12@@Z ; std::vector<int,std::allocator<int> >::iterator::operator-
PUBLIC	?_Insert_n@?$vector@HV?$allocator@H@std@@@std@@IAEXViterator@12@IABH@Z ; std::vector<int,std::allocator<int> >::_Insert_n
; Function compile flags: /Odt /RTCsu
;	COMDAT ?insert@?$vector@HV?$allocator@H@std@@@std@@QAE?AViterator@12@V312@ABH@Z
_TEXT	SEGMENT
tv73 = -20						; size = 4
$T192263 = -16						; size = 4
$T192260 = -12						; size = 4
__Off$ = -8						; size = 4
_this$ = -4						; size = 4
___$ReturnUdt$ = 8					; size = 4
__Where$ = 12						; size = 4
__Val$ = 16						; size = 4
?insert@?$vector@HV?$allocator@H@std@@@std@@QAE?AViterator@12@V312@ABH@Z PROC NEAR ; std::vector<int,std::allocator<int> >::insert, COMDAT
; _this$ = ecx

; 620  : 		{	// insert _Val at _Where

  00000	55		 push	 ebp
  00001	8b ec		 mov	 ebp, esp
  00003	83 ec 14	 sub	 esp, 20			; 00000014H
  00006	b8 cc cc cc cc	 mov	 eax, -858993460		; ccccccccH
  0000b	89 45 ec	 mov	 DWORD PTR [ebp-20], eax
  0000e	89 45 f0	 mov	 DWORD PTR [ebp-16], eax
  00011	89 45 f4	 mov	 DWORD PTR [ebp-12], eax
  00014	89 45 f8	 mov	 DWORD PTR [ebp-8], eax
  00017	89 45 fc	 mov	 DWORD PTR [ebp-4], eax
  0001a	89 4d fc	 mov	 DWORD PTR _this$[ebp], ecx

; 621  : 		size_type _Off = size() == 0 ? 0 : _Where - begin();

  0001d	8b 4d fc	 mov	 ecx, DWORD PTR _this$[ebp]
  00020	e8 00 00 00 00	 call	 ?size@?$vector@HV?$allocator@H@std@@@std@@QBEIXZ ; std::vector<int,std::allocator<int> >::size
  00025	85 c0		 test	 eax, eax
  00027	75 09		 jne	 SHORT $L192261
  00029	c7 45 ec 00 00
	00 00		 mov	 DWORD PTR tv73[ebp], 0
  00030	eb 18		 jmp	 SHORT $L192262
$L192261:
  00032	8d 45 f4	 lea	 eax, DWORD PTR $T192260[ebp]
  00035	50		 push	 eax
  00036	8b 4d fc	 mov	 ecx, DWORD PTR _this$[ebp]
  00039	e8 00 00 00 00	 call	 ?begin@?$vector@HV?$allocator@H@std@@@std@@QAE?AViterator@12@XZ ; std::vector<int,std::allocator<int> >::begin
  0003e	50		 push	 eax
  0003f	8d 4d 0c	 lea	 ecx, DWORD PTR __Where$[ebp]
  00042	e8 00 00 00 00	 call	 ??Giterator@?$vector@HV?$allocator@H@std@@@std@@QBEHABVconst_iterator@12@@Z ; std::vector<int,std::allocator<int> >::iterator::operator-
  00047	89 45 ec	 mov	 DWORD PTR tv73[ebp], eax
$L192262:
  0004a	8b 4d ec	 mov	 ecx, DWORD PTR tv73[ebp]
  0004d	89 4d f8	 mov	 DWORD PTR __Off$[ebp], ecx

; 622  : 		_Insert_n(_Where, (size_type)1, _Val);

  00050	8b 55 10	 mov	 edx, DWORD PTR __Val$[ebp]
  00053	52		 push	 edx
  00054	6a 01		 push	 1
  00056	8b 45 0c	 mov	 eax, DWORD PTR __Where$[ebp]
  00059	50		 push	 eax
  0005a	8b 4d fc	 mov	 ecx, DWORD PTR _this$[ebp]
  0005d	e8 00 00 00 00	 call	 ?_Insert_n@?$vector@HV?$allocator@H@std@@@std@@IAEXViterator@12@IABH@Z ; std::vector<int,std::allocator<int> >::_Insert_n

; 623  : 		return (begin() + _Off);

  00062	8b 4d f8	 mov	 ecx, DWORD PTR __Off$[ebp]
  00065	51		 push	 ecx
  00066	8b 55 08	 mov	 edx, DWORD PTR ___$ReturnUdt$[ebp]
  00069	52		 push	 edx
  0006a	8d 45 f0	 lea	 eax, DWORD PTR $T192263[ebp]
  0006d	50		 push	 eax
  0006e	8b 4d fc	 mov	 ecx, DWORD PTR _this$[ebp]
  00071	e8 00 00 00 00	 call	 ?begin@?$vector@HV?$allocator@H@std@@@std@@QAE?AViterator@12@XZ ; std::vector<int,std::allocator<int> >::begin
  00076	8b c8		 mov	 ecx, eax
  00078	e8 00 00 00 00	 call	 ??Hiterator@?$vector@HV?$allocator@H@std@@@std@@QBE?AV012@H@Z ; std::vector<int,std::allocator<int> >::iterator::operator+
  0007d	8b 45 08	 mov	 eax, DWORD PTR ___$ReturnUdt$[ebp]

; 624  : 		}

  00080	83 c4 14	 add	 esp, 20			; 00000014H
  00083	3b ec		 cmp	 ebp, esp
  00085	e8 00 00 00 00	 call	 __RTC_CheckEsp
  0008a	8b e5		 mov	 esp, ebp
  0008c	5d		 pop	 ebp
  0008d	c2 0c 00	 ret	 12			; 0000000cH
?insert@?$vector@HV?$allocator@H@std@@@std@@QAE?AViterator@12@V312@ABH@Z ENDP ; std::vector<int,std::allocator<int> >::insert
_TEXT	ENDS
PUBLIC	??$_Uninitialized_fill_n@PAHIHV?$allocator@H@std@@@std@@YAXPAHIABHAAV?$allocator@H@0@@Z ; std::_Uninitialized_fill_n<int *,unsigned int,int,std::allocator<int> >
; Function compile flags: /Odt /RTCsu
;	COMDAT ?_Ufill@?$vector@HV?$allocator@H@std@@@std@@IAEPAHPAHIABH@Z
_TEXT	SEGMENT
_this$ = -4						; size = 4
__Ptr$ = 8						; size = 4
__Count$ = 12						; size = 4
__Val$ = 16						; size = 4
?_Ufill@?$vector@HV?$allocator@H@std@@@std@@IAEPAHPAHIABH@Z PROC NEAR ; std::vector<int,std::allocator<int> >::_Ufill, COMDAT
; _this$ = ecx

; 877  : 		{	// copy initializing _Count * _Val, using allocator

  00000	55		 push	 ebp
  00001	8b ec		 mov	 ebp, esp
  00003	51		 push	 ecx
  00004	c7 45 fc cc cc
	cc cc		 mov	 DWORD PTR [ebp-4], -858993460 ; ccccccccH
  0000b	89 4d fc	 mov	 DWORD PTR _this$[ebp], ecx

; 878  : 		_Uninitialized_fill_n(_Ptr, _Count, _Val, this->_Alval);

  0000e	8b 45 fc	 mov	 eax, DWORD PTR _this$[ebp]
  00011	50		 push	 eax
  00012	8b 4d 10	 mov	 ecx, DWORD PTR __Val$[ebp]
  00015	51		 push	 ecx
  00016	8b 55 0c	 mov	 edx, DWORD PTR __Count$[ebp]
  00019	52		 push	 edx
  0001a	8b 45 08	 mov	 eax, DWORD PTR __Ptr$[ebp]
  0001d	50		 push	 eax
  0001e	e8 00 00 00 00	 call	 ??$_Uninitialized_fill_n@PAHIHV?$allocator@H@std@@@std@@YAXPAHIABHAAV?$allocator@H@0@@Z ; std::_Uninitialized_fill_n<int *,unsigned int,int,std::allocator<int> >
  00023	83 c4 10	 add	 esp, 16			; 00000010H

; 879  : 		return (_Ptr + _Count);

  00026	8b 4d 0c	 mov	 ecx, DWORD PTR __Count$[ebp]
  00029	8b 55 08	 mov	 edx, DWORD PTR __Ptr$[ebp]
  0002c	8d 04 8a	 lea	 eax, DWORD PTR [edx+ecx*4]

; 880  : 		}

  0002f	83 c4 04	 add	 esp, 4
  00032	3b ec		 cmp	 ebp, esp
  00034	e8 00 00 00 00	 call	 __RTC_CheckEsp
  00039	8b e5		 mov	 esp, ebp
  0003b	5d		 pop	 ebp
  0003c	c2 0c 00	 ret	 12			; 0000000cH
?_Ufill@?$vector@HV?$allocator@H@std@@@std@@IAEPAHPAHIABH@Z ENDP ; std::vector<int,std::allocator<int> >::_Ufill
_TEXT	ENDS
PUBLIC	??$_Ucopy@PAH@?$vector@HV?$allocator@H@std@@@std@@IAEPAHPAH00@Z ; std::vector<int,std::allocator<int> >::_Ucopy<int *>
PUBLIC	??$fill@PAHH@std@@YAXPAH0ABH@Z			; std::fill<int *,int>
PUBLIC	??$copy_backward@PAHPAH@std@@YAPAHPAH00@Z	; std::copy_backward<int *,int *>
;	COMDAT xdata$x
xdata$x	SEGMENT
$T192278 DD	0ffffffffH
	DD	00H
	DD	0ffffffffH
	DD	00H
	DD	0ffffffffH
	DD	00H
	DD	0ffffffffH
	DD	00H
$T192280 DD	00H
	DD	00H
	DD	00H
	DD	FLAT:$L192269
$T192281 DD	00H
	DD	00H
	DD	00H
	DD	FLAT:$L192271
$T192279 DD	00H
	DD	00H
	DD	01H
	DD	01H
	DD	FLAT:$T192280
	DD	02H
	DD	02H
	DD	03H
	DD	01H
	DD	FLAT:$T192281
$T192273 DD	019930520H
	DD	04H
	DD	FLAT:$T192278
	DD	02H
	DD	FLAT:$T192279
	DD	2 DUP(00H)
; Function compile flags: /Odt /RTCsu
xdata$x	ENDS
;	COMDAT ?_Insert_n@?$vector@HV?$allocator@H@std@@@std@@IAEXViterator@12@IABH@Z
_TEXT	SEGMENT
tv240 = -60						; size = 4
tv239 = -56						; size = 4
tv85 = -52						; size = 4
__Oldend$191026 = -48					; size = 4
__Ptr$191006 = -44					; size = 4
__Newvec$191005 = -40					; size = 4
__Capacity$ = -36					; size = 4
__Tmp$ = -28						; size = 4
_this$ = -20						; size = 4
__$EHRec$ = -16						; size = 16
__Where$ = 8						; size = 4
__Count$ = 12						; size = 4
__Val$ = 16						; size = 4
?_Insert_n@?$vector@HV?$allocator@H@std@@@std@@IAEXViterator@12@IABH@Z PROC NEAR ; std::vector<int,std::allocator<int> >::_Insert_n, COMDAT
; _this$ = ecx

; 809  : 		{	// insert _Count * _Val at _Where

  00000	55		 push	 ebp
  00001	8b ec		 mov	 ebp, esp
  00003	6a ff		 push	 -1
  00005	68 00 00 00 00	 push	 __ehhandler$?_Insert_n@?$vector@HV?$allocator@H@std@@@std@@IAEXViterator@12@IABH@Z
  0000a	64 a1 00 00 00
	00		 mov	 eax, DWORD PTR fs:__except_list
  00010	50		 push	 eax
  00011	64 89 25 00 00
	00 00		 mov	 DWORD PTR fs:__except_list, esp
  00018	51		 push	 ecx
  00019	83 ec 2c	 sub	 esp, 44			; 0000002cH
  0001c	53		 push	 ebx
  0001d	56		 push	 esi
  0001e	57		 push	 edi
  0001f	51		 push	 ecx
  00020	8d 7d c4	 lea	 edi, DWORD PTR [ebp-60]
  00023	b9 0b 00 00 00	 mov	 ecx, 11			; 0000000bH
  00028	b8 cc cc cc cc	 mov	 eax, -858993460		; ccccccccH
  0002d	f3 ab		 rep stosd
  0002f	59		 pop	 ecx
  00030	89 65 f0	 mov	 DWORD PTR __$EHRec$[ebp], esp
  00033	89 4d ec	 mov	 DWORD PTR _this$[ebp], ecx

; 810  : 		_Ty _Tmp = _Val;	// in case _Val is in sequence

  00036	8b 45 10	 mov	 eax, DWORD PTR __Val$[ebp]
  00039	8b 08		 mov	 ecx, DWORD PTR [eax]
  0003b	89 4d e4	 mov	 DWORD PTR __Tmp$[ebp], ecx

; 811  : 		size_type _Capacity = capacity();

  0003e	8b 4d ec	 mov	 ecx, DWORD PTR _this$[ebp]
  00041	e8 00 00 00 00	 call	 ?capacity@?$vector@HV?$allocator@H@std@@@std@@QBEIXZ ; std::vector<int,std::allocator<int> >::capacity
  00046	89 45 dc	 mov	 DWORD PTR __Capacity$[ebp], eax

; 812  : 
; 813  : 		if (_Count == 0)

  00049	83 7d 0c 00	 cmp	 DWORD PTR __Count$[ebp], 0
  0004d	75 05		 jne	 SHORT $L190999

; 814  : 			;
; 815  : 		else if (max_size() - size() < _Count)

  0004f	e9 c6 02 00 00	 jmp	 $L192265
$L190999:
  00054	8b 4d ec	 mov	 ecx, DWORD PTR _this$[ebp]
  00057	e8 00 00 00 00	 call	 ?size@?$vector@HV?$allocator@H@std@@@std@@QBEIXZ ; std::vector<int,std::allocator<int> >::size
  0005c	8b f0		 mov	 esi, eax
  0005e	8b 4d ec	 mov	 ecx, DWORD PTR _this$[ebp]
  00061	e8 00 00 00 00	 call	 ?max_size@?$vector@HV?$allocator@H@std@@@std@@QBEIXZ ; std::vector<int,std::allocator<int> >::max_size
  00066	2b c6		 sub	 eax, esi
  00068	3b 45 0c	 cmp	 eax, DWORD PTR __Count$[ebp]
  0006b	73 0d		 jae	 SHORT $L191001

; 816  : 			_Xlen();	// result too long

  0006d	8b 4d ec	 mov	 ecx, DWORD PTR _this$[ebp]
  00070	e8 00 00 00 00	 call	 ?_Xlen@?$vector@HV?$allocator@H@std@@@std@@IBEXXZ ; std::vector<int,std::allocator<int> >::_Xlen

; 817  : 		else if (_Capacity < size() + _Count)

  00075	e9 a0 02 00 00	 jmp	 $L192265
$L191001:
  0007a	8b 4d ec	 mov	 ecx, DWORD PTR _this$[ebp]
  0007d	e8 00 00 00 00	 call	 ?size@?$vector@HV?$allocator@H@std@@@std@@QBEIXZ ; std::vector<int,std::allocator<int> >::size
  00082	03 45 0c	 add	 eax, DWORD PTR __Count$[ebp]
  00085	39 45 dc	 cmp	 DWORD PTR __Capacity$[ebp], eax
  00088	0f 83 66 01 00
	00		 jae	 $L191003

; 818  : 			{	// not enough room, reallocate
; 819  : 			_Capacity = max_size() - _Capacity / 2 < _Capacity
; 820  : 				? 0 : _Capacity + _Capacity / 2;	// try to grow by 50%

  0008e	8b 75 dc	 mov	 esi, DWORD PTR __Capacity$[ebp]
  00091	d1 ee		 shr	 esi, 1
  00093	8b 4d ec	 mov	 ecx, DWORD PTR _this$[ebp]
  00096	e8 00 00 00 00	 call	 ?max_size@?$vector@HV?$allocator@H@std@@@std@@QBEIXZ ; std::vector<int,std::allocator<int> >::max_size
  0009b	2b c6		 sub	 eax, esi
  0009d	3b 45 dc	 cmp	 eax, DWORD PTR __Capacity$[ebp]
  000a0	73 09		 jae	 SHORT $L192266
  000a2	c7 45 cc 00 00
	00 00		 mov	 DWORD PTR tv85[ebp], 0
  000a9	eb 0b		 jmp	 SHORT $L192267
$L192266:
  000ab	8b 55 dc	 mov	 edx, DWORD PTR __Capacity$[ebp]
  000ae	d1 ea		 shr	 edx, 1
  000b0	03 55 dc	 add	 edx, DWORD PTR __Capacity$[ebp]
  000b3	89 55 cc	 mov	 DWORD PTR tv85[ebp], edx
$L192267:
  000b6	8b 45 cc	 mov	 eax, DWORD PTR tv85[ebp]
  000b9	89 45 dc	 mov	 DWORD PTR __Capacity$[ebp], eax

; 821  : 			if (_Capacity < size() + _Count)

  000bc	8b 4d ec	 mov	 ecx, DWORD PTR _this$[ebp]
  000bf	e8 00 00 00 00	 call	 ?size@?$vector@HV?$allocator@H@std@@@std@@QBEIXZ ; std::vector<int,std::allocator<int> >::size
  000c4	03 45 0c	 add	 eax, DWORD PTR __Count$[ebp]
  000c7	39 45 dc	 cmp	 DWORD PTR __Capacity$[ebp], eax
  000ca	73 0e		 jae	 SHORT $L191004

; 822  : 				_Capacity = size() + _Count;

  000cc	8b 4d ec	 mov	 ecx, DWORD PTR _this$[ebp]
  000cf	e8 00 00 00 00	 call	 ?size@?$vector@HV?$allocator@H@std@@@std@@QBEIXZ ; std::vector<int,std::allocator<int> >::size
  000d4	03 45 0c	 add	 eax, DWORD PTR __Count$[ebp]
  000d7	89 45 dc	 mov	 DWORD PTR __Capacity$[ebp], eax
$L191004:

; 823  : 			pointer _Newvec = this->_Alval.allocate(_Capacity);

  000da	8b 4d dc	 mov	 ecx, DWORD PTR __Capacity$[ebp]
  000dd	51		 push	 ecx
  000de	8b 4d ec	 mov	 ecx, DWORD PTR _this$[ebp]
  000e1	e8 00 00 00 00	 call	 ?allocate@?$allocator@H@std@@QAEPAHI@Z ; std::allocator<int>::allocate
  000e6	89 45 d8	 mov	 DWORD PTR __Newvec$191005[ebp], eax

; 824  : 			pointer _Ptr = _Newvec;

  000e9	8b 55 d8	 mov	 edx, DWORD PTR __Newvec$191005[ebp]
  000ec	89 55 d4	 mov	 DWORD PTR __Ptr$191006[ebp], edx

; 825  : 
; 826  : 			_TRY_BEGIN

  000ef	c7 45 fc 00 00
	00 00		 mov	 DWORD PTR __$EHRec$[ebp+12], 0

; 827  : 			_Ptr = _Ucopy(_Myfirst, _ITER_BASE(_Where),
; 828  : 				_Newvec);	// copy prefix

  000f6	8b 45 d8	 mov	 eax, DWORD PTR __Newvec$191005[ebp]
  000f9	50		 push	 eax
  000fa	8b 4d 08	 mov	 ecx, DWORD PTR __Where$[ebp]
  000fd	51		 push	 ecx
  000fe	8b 55 ec	 mov	 edx, DWORD PTR _this$[ebp]
  00101	8b 42 04	 mov	 eax, DWORD PTR [edx+4]
  00104	50		 push	 eax
  00105	8b 4d ec	 mov	 ecx, DWORD PTR _this$[ebp]
  00108	e8 00 00 00 00	 call	 ??$_Ucopy@PAH@?$vector@HV?$allocator@H@std@@@std@@IAEPAHPAH00@Z ; std::vector<int,std::allocator<int> >::_Ucopy<int *>
  0010d	89 45 c8	 mov	 DWORD PTR tv239[ebp], eax
  00110	8b 4d c8	 mov	 ecx, DWORD PTR tv239[ebp]
  00113	89 4d d4	 mov	 DWORD PTR __Ptr$191006[ebp], ecx

; 829  : 			_Ptr = _Ufill(_Ptr, _Count, _Tmp);	// add new stuff

  00116	8d 55 e4	 lea	 edx, DWORD PTR __Tmp$[ebp]
  00119	52		 push	 edx
  0011a	8b 45 0c	 mov	 eax, DWORD PTR __Count$[ebp]
  0011d	50		 push	 eax
  0011e	8b 4d d4	 mov	 ecx, DWORD PTR __Ptr$191006[ebp]
  00121	51		 push	 ecx
  00122	8b 4d ec	 mov	 ecx, DWORD PTR _this$[ebp]
  00125	e8 00 00 00 00	 call	 ?_Ufill@?$vector@HV?$allocator@H@std@@@std@@IAEPAHPAHIABH@Z ; std::vector<int,std::allocator<int> >::_Ufill
  0012a	89 45 c4	 mov	 DWORD PTR tv240[ebp], eax
  0012d	8b 55 c4	 mov	 edx, DWORD PTR tv240[ebp]
  00130	89 55 d4	 mov	 DWORD PTR __Ptr$191006[ebp], edx

; 830  : 			_Ucopy(_ITER_BASE(_Where), _Mylast, _Ptr);	// copy suffix

  00133	8b 45 d4	 mov	 eax, DWORD PTR __Ptr$191006[ebp]
  00136	50		 push	 eax
  00137	8b 4d ec	 mov	 ecx, DWORD PTR _this$[ebp]
  0013a	8b 51 08	 mov	 edx, DWORD PTR [ecx+8]
  0013d	52		 push	 edx
  0013e	8b 45 08	 mov	 eax, DWORD PTR __Where$[ebp]
  00141	50		 push	 eax
  00142	8b 4d ec	 mov	 ecx, DWORD PTR _this$[ebp]
  00145	e8 00 00 00 00	 call	 ??$_Ucopy@PAH@?$vector@HV?$allocator@H@std@@@std@@IAEPAHPAH00@Z ; std::vector<int,std::allocator<int> >::_Ucopy<int *>
  0014a	eb 29		 jmp	 SHORT $L192268
$L192269:

; 831  : 			_CATCH_ALL
; 832  : 			_Destroy(_Newvec, _Ptr);

  0014c	8b 4d d4	 mov	 ecx, DWORD PTR __Ptr$191006[ebp]
  0014f	51		 push	 ecx
  00150	8b 55 d8	 mov	 edx, DWORD PTR __Newvec$191005[ebp]
  00153	52		 push	 edx
  00154	8b 4d ec	 mov	 ecx, DWORD PTR _this$[ebp]
  00157	e8 00 00 00 00	 call	 ?_Destroy@?$vector@HV?$allocator@H@std@@@std@@IAEXPAH0@Z ; std::vector<int,std::allocator<int> >::_Destroy

; 833  : 			this->_Alval.deallocate(_Newvec, _Capacity);

  0015c	8b 45 dc	 mov	 eax, DWORD PTR __Capacity$[ebp]
  0015f	50		 push	 eax
  00160	8b 4d d8	 mov	 ecx, DWORD PTR __Newvec$191005[ebp]
  00163	51		 push	 ecx
  00164	8b 4d ec	 mov	 ecx, DWORD PTR _this$[ebp]
  00167	e8 00 00 00 00	 call	 ?deallocate@?$allocator@H@std@@QAEXPAHI@Z ; std::allocator<int>::deallocate

; 834  : 			_RERAISE;

  0016c	6a 00		 push	 0
  0016e	6a 00		 push	 0
  00170	e8 00 00 00 00	 call	 __CxxThrowException@8
$L192268:

; 835  : 			_CATCH_END

  00175	c7 45 fc ff ff
	ff ff		 mov	 DWORD PTR __$EHRec$[ebp+12], -1

; 836  : 
; 837  : 			_Count += size();

  0017c	8b 4d ec	 mov	 ecx, DWORD PTR _this$[ebp]
  0017f	e8 00 00 00 00	 call	 ?size@?$vector@HV?$allocator@H@std@@@std@@QBEIXZ ; std::vector<int,std::allocator<int> >::size
  00184	03 45 0c	 add	 eax, DWORD PTR __Count$[ebp]
  00187	89 45 0c	 mov	 DWORD PTR __Count$[ebp], eax

; 838  : 			if (_Myfirst != 0)

  0018a	8b 55 ec	 mov	 edx, DWORD PTR _this$[ebp]
  0018d	83 7a 04 00	 cmp	 DWORD PTR [edx+4], 0
  00191	74 35		 je	 SHORT $L191013

; 839  : 				{	// destroy and deallocate old array
; 840  : 				_Destroy(_Myfirst, _Mylast);

  00193	8b 45 ec	 mov	 eax, DWORD PTR _this$[ebp]
  00196	8b 48 08	 mov	 ecx, DWORD PTR [eax+8]
  00199	51		 push	 ecx
  0019a	8b 55 ec	 mov	 edx, DWORD PTR _this$[ebp]
  0019d	8b 42 04	 mov	 eax, DWORD PTR [edx+4]
  001a0	50		 push	 eax
  001a1	8b 4d ec	 mov	 ecx, DWORD PTR _this$[ebp]
  001a4	e8 00 00 00 00	 call	 ?_Destroy@?$vector@HV?$allocator@H@std@@@std@@IAEXPAH0@Z ; std::vector<int,std::allocator<int> >::_Destroy

; 841  : 				this->_Alval.deallocate(_Myfirst, _Myend - _Myfirst);

  001a9	8b 4d ec	 mov	 ecx, DWORD PTR _this$[ebp]
  001ac	8b 55 ec	 mov	 edx, DWORD PTR _this$[ebp]
  001af	8b 41 0c	 mov	 eax, DWORD PTR [ecx+12]
  001b2	2b 42 04	 sub	 eax, DWORD PTR [edx+4]
  001b5	c1 f8 02	 sar	 eax, 2
  001b8	50		 push	 eax
  001b9	8b 4d ec	 mov	 ecx, DWORD PTR _this$[ebp]
  001bc	8b 51 04	 mov	 edx, DWORD PTR [ecx+4]
  001bf	52		 push	 edx
  001c0	8b 4d ec	 mov	 ecx, DWORD PTR _this$[ebp]
  001c3	e8 00 00 00 00	 call	 ?deallocate@?$allocator@H@std@@QAEXPAHI@Z ; std::allocator<int>::deallocate
$L191013:

; 842  : 				}
; 843  : 			_Myend = _Newvec + _Capacity;

  001c8	8b 45 dc	 mov	 eax, DWORD PTR __Capacity$[ebp]
  001cb	8b 4d d8	 mov	 ecx, DWORD PTR __Newvec$191005[ebp]
  001ce	8d 14 81	 lea	 edx, DWORD PTR [ecx+eax*4]
  001d1	8b 45 ec	 mov	 eax, DWORD PTR _this$[ebp]
  001d4	89 50 0c	 mov	 DWORD PTR [eax+12], edx

; 844  : 			_Mylast = _Newvec + _Count;

  001d7	8b 4d 0c	 mov	 ecx, DWORD PTR __Count$[ebp]
  001da	8b 55 d8	 mov	 edx, DWORD PTR __Newvec$191005[ebp]
  001dd	8d 04 8a	 lea	 eax, DWORD PTR [edx+ecx*4]
  001e0	8b 4d ec	 mov	 ecx, DWORD PTR _this$[ebp]
  001e3	89 41 08	 mov	 DWORD PTR [ecx+8], eax

; 845  : 			_Myfirst = _Newvec;

  001e6	8b 55 ec	 mov	 edx, DWORD PTR _this$[ebp]
  001e9	8b 45 d8	 mov	 eax, DWORD PTR __Newvec$191005[ebp]
  001ec	89 42 04	 mov	 DWORD PTR [edx+4], eax

; 846  : 			}
; 847  : 		else if ((size_type)(_Mylast - _ITER_BASE(_Where)) < _Count)

  001ef	e9 26 01 00 00	 jmp	 $L192265
$L191003:
  001f4	8b 4d ec	 mov	 ecx, DWORD PTR _this$[ebp]
  001f7	8b 51 08	 mov	 edx, DWORD PTR [ecx+8]
  001fa	2b 55 08	 sub	 edx, DWORD PTR __Where$[ebp]
  001fd	c1 fa 02	 sar	 edx, 2
  00200	3b 55 0c	 cmp	 edx, DWORD PTR __Count$[ebp]
  00203	0f 83 ad 00 00
	00		 jae	 $L191016

; 848  : 			{	// new stuff spills off end
; 849  : 			_Ucopy(_ITER_BASE(_Where), _Mylast,
; 850  : 				_ITER_BASE(_Where) + _Count);	// copy suffix

  00209	8b 45 0c	 mov	 eax, DWORD PTR __Count$[ebp]
  0020c	8b 4d 08	 mov	 ecx, DWORD PTR __Where$[ebp]
  0020f	8d 14 81	 lea	 edx, DWORD PTR [ecx+eax*4]
  00212	52		 push	 edx
  00213	8b 45 ec	 mov	 eax, DWORD PTR _this$[ebp]
  00216	8b 48 08	 mov	 ecx, DWORD PTR [eax+8]
  00219	51		 push	 ecx
  0021a	8b 55 08	 mov	 edx, DWORD PTR __Where$[ebp]
  0021d	52		 push	 edx
  0021e	8b 4d ec	 mov	 ecx, DWORD PTR _this$[ebp]
  00221	e8 00 00 00 00	 call	 ??$_Ucopy@PAH@?$vector@HV?$allocator@H@std@@@std@@IAEPAHPAH00@Z ; std::vector<int,std::allocator<int> >::_Ucopy<int *>

; 851  : 
; 852  : 			_TRY_BEGIN

  00226	c7 45 fc 02 00
	00 00		 mov	 DWORD PTR __$EHRec$[ebp+12], 2

; 853  : 			_Ufill(_Mylast, _Count - (_Mylast - _ITER_BASE(_Where)),
; 854  : 				_Tmp);	// insert new stuff off end

  0022d	8d 45 e4	 lea	 eax, DWORD PTR __Tmp$[ebp]
  00230	50		 push	 eax
  00231	8b 4d ec	 mov	 ecx, DWORD PTR _this$[ebp]
  00234	8b 51 08	 mov	 edx, DWORD PTR [ecx+8]
  00237	2b 55 08	 sub	 edx, DWORD PTR __Where$[ebp]
  0023a	c1 fa 02	 sar	 edx, 2
  0023d	8b 45 0c	 mov	 eax, DWORD PTR __Count$[ebp]
  00240	2b c2		 sub	 eax, edx
  00242	50		 push	 eax
  00243	8b 4d ec	 mov	 ecx, DWORD PTR _this$[ebp]
  00246	8b 51 08	 mov	 edx, DWORD PTR [ecx+8]
  00249	52		 push	 edx
  0024a	8b 4d ec	 mov	 ecx, DWORD PTR _this$[ebp]
  0024d	e8 00 00 00 00	 call	 ?_Ufill@?$vector@HV?$allocator@H@std@@@std@@IAEPAHPAHIABH@Z ; std::vector<int,std::allocator<int> >::_Ufill
  00252	eb 28		 jmp	 SHORT $L192270
$L192271:

; 855  : 			_CATCH_ALL
; 856  : 			_Destroy(_ITER_BASE(_Where) + _Count, _Mylast + _Count);

  00254	8b 45 ec	 mov	 eax, DWORD PTR _this$[ebp]
  00257	8b 48 08	 mov	 ecx, DWORD PTR [eax+8]
  0025a	8b 55 0c	 mov	 edx, DWORD PTR __Count$[ebp]
  0025d	8d 04 91	 lea	 eax, DWORD PTR [ecx+edx*4]
  00260	50		 push	 eax
  00261	8b 4d 0c	 mov	 ecx, DWORD PTR __Count$[ebp]
  00264	8b 55 08	 mov	 edx, DWORD PTR __Where$[ebp]
  00267	8d 04 8a	 lea	 eax, DWORD PTR [edx+ecx*4]
  0026a	50		 push	 eax
  0026b	8b 4d ec	 mov	 ecx, DWORD PTR _this$[ebp]
  0026e	e8 00 00 00 00	 call	 ?_Destroy@?$vector@HV?$allocator@H@std@@@std@@IAEXPAH0@Z ; std::vector<int,std::allocator<int> >::_Destroy

; 857  : 			_RERAISE;

  00273	6a 00		 push	 0
  00275	6a 00		 push	 0
  00277	e8 00 00 00 00	 call	 __CxxThrowException@8
$L192270:

; 858  : 			_CATCH_END

  0027c	c7 45 fc ff ff
	ff ff		 mov	 DWORD PTR __$EHRec$[ebp+12], -1

; 859  : 
; 860  : 			_Mylast += _Count;

  00283	8b 4d ec	 mov	 ecx, DWORD PTR _this$[ebp]
  00286	8b 51 08	 mov	 edx, DWORD PTR [ecx+8]
  00289	8b 45 0c	 mov	 eax, DWORD PTR __Count$[ebp]
  0028c	8d 0c 82	 lea	 ecx, DWORD PTR [edx+eax*4]
  0028f	8b 55 ec	 mov	 edx, DWORD PTR _this$[ebp]
  00292	89 4a 08	 mov	 DWORD PTR [edx+8], ecx

; 861  : 			fill(_ITER_BASE(_Where), _Mylast - _Count,
; 862  : 				_Tmp);	// insert up to old end

  00295	8d 45 e4	 lea	 eax, DWORD PTR __Tmp$[ebp]
  00298	50		 push	 eax
  00299	8b 4d 0c	 mov	 ecx, DWORD PTR __Count$[ebp]
  0029c	c1 e1 02	 shl	 ecx, 2
  0029f	8b 55 ec	 mov	 edx, DWORD PTR _this$[ebp]
  002a2	8b 42 08	 mov	 eax, DWORD PTR [edx+8]
  002a5	2b c1		 sub	 eax, ecx
  002a7	50		 push	 eax
  002a8	8b 4d 08	 mov	 ecx, DWORD PTR __Where$[ebp]
  002ab	51		 push	 ecx
  002ac	e8 00 00 00 00	 call	 ??$fill@PAHH@std@@YAXPAH0ABH@Z ; std::fill<int *,int>
  002b1	83 c4 0c	 add	 esp, 12			; 0000000cH

; 863  : 			}
; 864  : 		else

  002b4	eb 64		 jmp	 SHORT $L192265
$L191016:

; 865  : 			{	// new stuff can all be assigned
; 866  : 			pointer _Oldend = _Mylast;

  002b6	8b 55 ec	 mov	 edx, DWORD PTR _this$[ebp]
  002b9	8b 42 08	 mov	 eax, DWORD PTR [edx+8]
  002bc	89 45 d0	 mov	 DWORD PTR __Oldend$191026[ebp], eax

; 867  : 			_Mylast = _Ucopy(_Oldend - _Count, _Oldend,
; 868  : 				_Mylast);	// copy suffix

  002bf	8b 4d ec	 mov	 ecx, DWORD PTR _this$[ebp]
  002c2	8b 51 08	 mov	 edx, DWORD PTR [ecx+8]
  002c5	52		 push	 edx
  002c6	8b 45 d0	 mov	 eax, DWORD PTR __Oldend$191026[ebp]
  002c9	50		 push	 eax
  002ca	8b 4d 0c	 mov	 ecx, DWORD PTR __Count$[ebp]
  002cd	c1 e1 02	 shl	 ecx, 2
  002d0	8b 55 d0	 mov	 edx, DWORD PTR __Oldend$191026[ebp]
  002d3	2b d1		 sub	 edx, ecx
  002d5	52		 push	 edx
  002d6	8b 4d ec	 mov	 ecx, DWORD PTR _this$[ebp]
  002d9	e8 00 00 00 00	 call	 ??$_Ucopy@PAH@?$vector@HV?$allocator@H@std@@@std@@IAEPAHPAH00@Z ; std::vector<int,std::allocator<int> >::_Ucopy<int *>
  002de	8b 4d ec	 mov	 ecx, DWORD PTR _this$[ebp]
  002e1	89 41 08	 mov	 DWORD PTR [ecx+8], eax

; 869  : 			copy_backward(_ITER_BASE(_Where), _Oldend - _Count,
; 870  : 				_Oldend);	// copy hole

  002e4	8b 55 d0	 mov	 edx, DWORD PTR __Oldend$191026[ebp]
  002e7	52		 push	 edx
  002e8	8b 45 0c	 mov	 eax, DWORD PTR __Count$[ebp]
  002eb	c1 e0 02	 shl	 eax, 2
  002ee	8b 4d d0	 mov	 ecx, DWORD PTR __Oldend$191026[ebp]
  002f1	2b c8		 sub	 ecx, eax
  002f3	51		 push	 ecx
  002f4	8b 55 08	 mov	 edx, DWORD PTR __Where$[ebp]
  002f7	52		 push	 edx
  002f8	e8 00 00 00 00	 call	 ??$copy_backward@PAHPAH@std@@YAPAHPAH00@Z ; std::copy_backward<int *,int *>
  002fd	83 c4 0c	 add	 esp, 12			; 0000000cH

; 871  : 			fill(_ITER_BASE(_Where), _ITER_BASE(_Where) + _Count,
; 872  : 				_Tmp);	// insert into hole

  00300	8d 45 e4	 lea	 eax, DWORD PTR __Tmp$[ebp]
  00303	50		 push	 eax
  00304	8b 4d 0c	 mov	 ecx, DWORD PTR __Count$[ebp]
  00307	8b 55 08	 mov	 edx, DWORD PTR __Where$[ebp]
  0030a	8d 04 8a	 lea	 eax, DWORD PTR [edx+ecx*4]
  0030d	50		 push	 eax
  0030e	8b 4d 08	 mov	 ecx, DWORD PTR __Where$[ebp]
  00311	51		 push	 ecx
  00312	e8 00 00 00 00	 call	 ??$fill@PAHH@std@@YAXPAH0ABH@Z ; std::fill<int *,int>
  00317	83 c4 0c	 add	 esp, 12			; 0000000cH
$L192265:

; 873  : 			}
; 874  : 		}

  0031a	52		 push	 edx
  0031b	8b cd		 mov	 ecx, ebp
  0031d	50		 push	 eax
  0031e	8d 15 00 00 00
	00		 lea	 edx, DWORD PTR $L192277
  00324	e8 00 00 00 00	 call	 @_RTC_CheckStackVars@8
  00329	58		 pop	 eax
  0032a	5a		 pop	 edx
  0032b	8b 4d f4	 mov	 ecx, DWORD PTR __$EHRec$[ebp+4]
  0032e	64 89 0d 00 00
	00 00		 mov	 DWORD PTR fs:__except_list, ecx
  00335	5f		 pop	 edi
  00336	5e		 pop	 esi
  00337	5b		 pop	 ebx
  00338	83 c4 3c	 add	 esp, 60			; 0000003cH
  0033b	3b ec		 cmp	 ebp, esp
  0033d	e8 00 00 00 00	 call	 __RTC_CheckEsp
  00342	8b e5		 mov	 esp, ebp
  00344	5d		 pop	 ebp
  00345	c2 0c 00	 ret	 12			; 0000000cH
$L192277:
  00348	01 00 00 00	 DD	 1
  0034c	00 00 00 00	 DD	 $L192276
$L192276:
  00350	e4 ff ff ff	 DD	 -28			; ffffffe4H
  00354	04 00 00 00	 DD	 4
  00358	00 00 00 00	 DD	 $L192274
$L192274:
  0035c	5f		 DB	 95			; 0000005fH
  0035d	54		 DB	 84			; 00000054H
  0035e	6d		 DB	 109			; 0000006dH
  0035f	70		 DB	 112			; 00000070H
  00360	00		 DB	 0
_TEXT	ENDS
;	COMDAT text$x
text$x	SEGMENT
__ehhandler$?_Insert_n@?$vector@HV?$allocator@H@std@@@std@@IAEXViterator@12@IABH@Z:
  00000	b8 00 00 00 00	 mov	 eax, OFFSET FLAT:$T192273
  00005	e9 00 00 00 00	 jmp	 ___CxxFrameHandler
text$x	ENDS
?_Insert_n@?$vector@HV?$allocator@H@std@@@std@@IAEXViterator@12@IABH@Z ENDP ; std::vector<int,std::allocator<int> >::_Insert_n
PUBLIC	??Yiterator@?$vector@HV?$allocator@H@std@@@std@@QAEAAV012@H@Z ; std::vector<int,std::allocator<int> >::iterator::operator+=
; Function compile flags: /Odt /RTCsu
;	COMDAT ??Hiterator@?$vector@HV?$allocator@H@std@@@std@@QBE?AV012@H@Z
_TEXT	SEGMENT
__Tmp$ = -12						; size = 4
_this$ = -4						; size = 4
___$ReturnUdt$ = 8					; size = 4
__Off$ = 12						; size = 4
??Hiterator@?$vector@HV?$allocator@H@std@@@std@@QBE?AV012@H@Z PROC NEAR ; std::vector<int,std::allocator<int> >::iterator::operator+, COMDAT
; _this$ = ecx

; 261  : 			{	// return this + integer

  00000	55		 push	 ebp
  00001	8b ec		 mov	 ebp, esp
  00003	83 ec 10	 sub	 esp, 16			; 00000010H
  00006	b8 cc cc cc cc	 mov	 eax, -858993460		; ccccccccH
  0000b	89 45 f0	 mov	 DWORD PTR [ebp-16], eax
  0000e	89 45 f4	 mov	 DWORD PTR [ebp-12], eax
  00011	89 45 f8	 mov	 DWORD PTR [ebp-8], eax
  00014	89 45 fc	 mov	 DWORD PTR [ebp-4], eax
  00017	89 4d fc	 mov	 DWORD PTR _this$[ebp], ecx

; 262  : 			iterator _Tmp = *this;

  0001a	8b 45 fc	 mov	 eax, DWORD PTR _this$[ebp]
  0001d	8b 08		 mov	 ecx, DWORD PTR [eax]
  0001f	89 4d f4	 mov	 DWORD PTR __Tmp$[ebp], ecx

; 263  : 			return (_Tmp += _Off);

  00022	8b 55 0c	 mov	 edx, DWORD PTR __Off$[ebp]
  00025	52		 push	 edx
  00026	8d 4d f4	 lea	 ecx, DWORD PTR __Tmp$[ebp]
  00029	e8 00 00 00 00	 call	 ??Yiterator@?$vector@HV?$allocator@H@std@@@std@@QAEAAV012@H@Z ; std::vector<int,std::allocator<int> >::iterator::operator+=
  0002e	8b 00		 mov	 eax, DWORD PTR [eax]
  00030	8b 4d 08	 mov	 ecx, DWORD PTR ___$ReturnUdt$[ebp]
  00033	89 01		 mov	 DWORD PTR [ecx], eax
  00035	8b 45 08	 mov	 eax, DWORD PTR ___$ReturnUdt$[ebp]

; 264  : 			}

  00038	52		 push	 edx
  00039	8b cd		 mov	 ecx, ebp
  0003b	50		 push	 eax
  0003c	8d 15 00 00 00
	00		 lea	 edx, DWORD PTR $L192287
  00042	e8 00 00 00 00	 call	 @_RTC_CheckStackVars@8
  00047	58		 pop	 eax
  00048	5a		 pop	 edx
  00049	83 c4 10	 add	 esp, 16			; 00000010H
  0004c	3b ec		 cmp	 ebp, esp
  0004e	e8 00 00 00 00	 call	 __RTC_CheckEsp
  00053	8b e5		 mov	 esp, ebp
  00055	5d		 pop	 ebp
  00056	c2 08 00	 ret	 8
$L192287:
  00059	01 00 00 00	 DD	 1
  0005d	00 00 00 00	 DD	 $L192286
$L192286:
  00061	f4 ff ff ff	 DD	 -12			; fffffff4H
  00065	04 00 00 00	 DD	 4
  00069	00 00 00 00	 DD	 $L192285
$L192285:
  0006d	5f		 DB	 95			; 0000005fH
  0006e	54		 DB	 84			; 00000054H
  0006f	6d		 DB	 109			; 0000006dH
  00070	70		 DB	 112			; 00000070H
  00071	00		 DB	 0
??Hiterator@?$vector@HV?$allocator@H@std@@@std@@QBE?AV012@H@Z ENDP ; std::vector<int,std::allocator<int> >::iterator::operator+
_TEXT	ENDS
PUBLIC	??Gconst_iterator@?$vector@HV?$allocator@H@std@@@std@@QBEHABV012@@Z ; std::vector<int,std::allocator<int> >::const_iterator::operator-
; Function compile flags: /Odt /RTCsu
;	COMDAT ??Giterator@?$vector@HV?$allocator@H@std@@@std@@QBEHABVconst_iterator@12@@Z
_TEXT	SEGMENT
$T192289 = -8						; size = 4
_this$ = -4						; size = 4
__Right$ = 8						; size = 4
??Giterator@?$vector@HV?$allocator@H@std@@@std@@QBEHABVconst_iterator@12@@Z PROC NEAR ; std::vector<int,std::allocator<int> >::iterator::operator-, COMDAT
; _this$ = ecx

; 278  : 			{	// return difference of iterators

  00000	55		 push	 ebp
  00001	8b ec		 mov	 ebp, esp
  00003	83 ec 08	 sub	 esp, 8
  00006	c7 45 f8 cc cc
	cc cc		 mov	 DWORD PTR [ebp-8], -858993460 ; ccccccccH
  0000d	c7 45 fc cc cc
	cc cc		 mov	 DWORD PTR [ebp-4], -858993460 ; ccccccccH
  00014	89 4d fc	 mov	 DWORD PTR _this$[ebp], ecx

; 279  : 			return ((const_iterator)*this - _Right);

  00017	8b 45 fc	 mov	 eax, DWORD PTR _this$[ebp]
  0001a	8b 08		 mov	 ecx, DWORD PTR [eax]
  0001c	89 4d f8	 mov	 DWORD PTR $T192289[ebp], ecx
  0001f	8b 55 08	 mov	 edx, DWORD PTR __Right$[ebp]
  00022	52		 push	 edx
  00023	8d 4d f8	 lea	 ecx, DWORD PTR $T192289[ebp]
  00026	e8 00 00 00 00	 call	 ??Gconst_iterator@?$vector@HV?$allocator@H@std@@@std@@QBEHABV012@@Z ; std::vector<int,std::allocator<int> >::const_iterator::operator-

; 280  : 			}

  0002b	83 c4 08	 add	 esp, 8
  0002e	3b ec		 cmp	 ebp, esp
  00030	e8 00 00 00 00	 call	 __RTC_CheckEsp
  00035	8b e5		 mov	 esp, ebp
  00037	5d		 pop	 ebp
  00038	c2 04 00	 ret	 4
??Giterator@?$vector@HV?$allocator@H@std@@@std@@QBEHABVconst_iterator@12@@Z ENDP ; std::vector<int,std::allocator<int> >::iterator::operator-
; Function compile flags: /Odt /RTCsu
_TEXT	ENDS
;	COMDAT ??Yiterator@?$vector@HV?$allocator@H@std@@@std@@QAEAAV012@H@Z
_TEXT	SEGMENT
_this$ = -4						; size = 4
__Off$ = 8						; size = 4
??Yiterator@?$vector@HV?$allocator@H@std@@@std@@QAEAAV012@H@Z PROC NEAR ; std::vector<int,std::allocator<int> >::iterator::operator+=, COMDAT
; _this$ = ecx

; 255  : 			{	// increment by integer

  00000	55		 push	 ebp
  00001	8b ec		 mov	 ebp, esp
  00003	51		 push	 ecx
  00004	c7 45 fc cc cc
	cc cc		 mov	 DWORD PTR [ebp-4], -858993460 ; ccccccccH
  0000b	89 4d fc	 mov	 DWORD PTR _this$[ebp], ecx

; 256  : 			this->_Myptr += _Off;

  0000e	8b 45 fc	 mov	 eax, DWORD PTR _this$[ebp]
  00011	8b 08		 mov	 ecx, DWORD PTR [eax]
  00013	8b 55 08	 mov	 edx, DWORD PTR __Off$[ebp]
  00016	8d 04 91	 lea	 eax, DWORD PTR [ecx+edx*4]
  00019	8b 4d fc	 mov	 ecx, DWORD PTR _this$[ebp]
  0001c	89 01		 mov	 DWORD PTR [ecx], eax

; 257  : 			return (*this);

  0001e	8b 45 fc	 mov	 eax, DWORD PTR _this$[ebp]

; 258  : 			}

  00021	8b e5		 mov	 esp, ebp
  00023	5d		 pop	 ebp
  00024	c2 04 00	 ret	 4
??Yiterator@?$vector@HV?$allocator@H@std@@@std@@QAEAAV012@H@Z ENDP ; std::vector<int,std::allocator<int> >::iterator::operator+=
; Function compile flags: /Odt /RTCsu
_TEXT	ENDS
;	COMDAT ??Gconst_iterator@?$vector@HV?$allocator@H@std@@@std@@QBEHABV012@@Z
_TEXT	SEGMENT
_this$ = -4						; size = 4
__Right$ = 8						; size = 4
??Gconst_iterator@?$vector@HV?$allocator@H@std@@@std@@QBEHABV012@@Z PROC NEAR ; std::vector<int,std::allocator<int> >::const_iterator::operator-, COMDAT
; _this$ = ecx

; 140  : 			{	// return difference of iterators

  00000	55		 push	 ebp
  00001	8b ec		 mov	 ebp, esp
  00003	51		 push	 ecx
  00004	c7 45 fc cc cc
	cc cc		 mov	 DWORD PTR [ebp-4], -858993460 ; ccccccccH
  0000b	89 4d fc	 mov	 DWORD PTR _this$[ebp], ecx

; 141  : 
; 142  : 
; 143  : 			return (_Myptr - _Right._Myptr);

  0000e	8b 45 fc	 mov	 eax, DWORD PTR _this$[ebp]
  00011	8b 4d 08	 mov	 ecx, DWORD PTR __Right$[ebp]
  00014	8b 00		 mov	 eax, DWORD PTR [eax]
  00016	2b 01		 sub	 eax, DWORD PTR [ecx]
  00018	c1 f8 02	 sar	 eax, 2

; 144  : 			}

  0001b	8b e5		 mov	 esp, ebp
  0001d	5d		 pop	 ebp
  0001e	c2 04 00	 ret	 4
??Gconst_iterator@?$vector@HV?$allocator@H@std@@@std@@QBEHABV012@@Z ENDP ; std::vector<int,std::allocator<int> >::const_iterator::operator-
_TEXT	ENDS
PUBLIC	??$_Uninit_fill_n@HIH@std@@YAXPAHIABHAAV?$allocator@H@0@U_Scalar_ptr_iterator_tag@0@@Z ; std::_Uninit_fill_n<int,unsigned int,int>
; Function compile flags: /Odt /RTCsu
; File d:\program files (x86)\microsoft visual studio .net 2003\vc7\include\memory
;	COMDAT ??$_Uninitialized_fill_n@PAHIHV?$allocator@H@std@@@std@@YAXPAHIABHAAV?$allocator@H@0@@Z
_TEXT	SEGMENT
$T192293 = -1						; size = 1
__First$ = 8						; size = 4
__Count$ = 12						; size = 4
__Val$ = 16						; size = 4
__Al$ = 20						; size = 4
??$_Uninitialized_fill_n@PAHIHV?$allocator@H@std@@@std@@YAXPAHIABHAAV?$allocator@H@0@@Z PROC NEAR ; std::_Uninitialized_fill_n<int *,unsigned int,int,std::allocator<int> >, COMDAT

; 255  : 	{	// copy _Count *_Val to raw _First, using _Al

  00000	55		 push	 ebp
  00001	8b ec		 mov	 ebp, esp
  00003	51		 push	 ecx
  00004	c7 45 fc cc cc
	cc cc		 mov	 DWORD PTR [ebp-4], -858993460 ; ccccccccH

; 256  : 	_Uninit_fill_n(_First, _Count, _Val, _Al,
; 257  : 		_Ptr_cat(_First, _First));

  0000b	8b 45 08	 mov	 eax, DWORD PTR __First$[ebp]
  0000e	50		 push	 eax
  0000f	8b 4d 08	 mov	 ecx, DWORD PTR __First$[ebp]
  00012	51		 push	 ecx
  00013	e8 00 00 00 00	 call	 ?_Ptr_cat@std@@YA?AU_Scalar_ptr_iterator_tag@1@PAH0@Z ; std::_Ptr_cat
  00018	83 c4 08	 add	 esp, 8
  0001b	88 45 ff	 mov	 BYTE PTR $T192293[ebp], al
  0001e	8a 55 ff	 mov	 dl, BYTE PTR $T192293[ebp]
  00021	52		 push	 edx
  00022	8b 45 14	 mov	 eax, DWORD PTR __Al$[ebp]
  00025	50		 push	 eax
  00026	8b 4d 10	 mov	 ecx, DWORD PTR __Val$[ebp]
  00029	51		 push	 ecx
  0002a	8b 55 0c	 mov	 edx, DWORD PTR __Count$[ebp]
  0002d	52		 push	 edx
  0002e	8b 45 08	 mov	 eax, DWORD PTR __First$[ebp]
  00031	50		 push	 eax
  00032	e8 00 00 00 00	 call	 ??$_Uninit_fill_n@HIH@std@@YAXPAHIABHAAV?$allocator@H@0@U_Scalar_ptr_iterator_tag@0@@Z ; std::_Uninit_fill_n<int,unsigned int,int>
  00037	83 c4 14	 add	 esp, 20			; 00000014H

; 258  : 	}

  0003a	83 c4 04	 add	 esp, 4
  0003d	3b ec		 cmp	 ebp, esp
  0003f	e8 00 00 00 00	 call	 __RTC_CheckEsp
  00044	8b e5		 mov	 esp, ebp
  00046	5d		 pop	 ebp
  00047	c3		 ret	 0
??$_Uninitialized_fill_n@PAHIHV?$allocator@H@std@@@std@@YAXPAHIABHAAV?$allocator@H@0@@Z ENDP ; std::_Uninitialized_fill_n<int *,unsigned int,int,std::allocator<int> >
_TEXT	ENDS
PUBLIC	??$_Uninitialized_copy@PAHPAHV?$allocator@H@std@@@std@@YAPAHPAH00AAV?$allocator@H@0@@Z ; std::_Uninitialized_copy<int *,int *,std::allocator<int> >
; Function compile flags: /Odt /RTCsu
; File d:\program files (x86)\microsoft visual studio .net 2003\vc7\include\vector
;	COMDAT ??$_Ucopy@PAH@?$vector@HV?$allocator@H@std@@@std@@IAEPAHPAH00@Z
_TEXT	SEGMENT
_this$ = -4						; size = 4
__First$ = 8						; size = 4
__Last$ = 12						; size = 4
__Ptr$ = 16						; size = 4
??$_Ucopy@PAH@?$vector@HV?$allocator@H@std@@@std@@IAEPAHPAH00@Z PROC NEAR ; std::vector<int,std::allocator<int> >::_Ucopy<int *>, COMDAT
; _this$ = ecx

; 801  : 		pointer _Ucopy(_Iter _First, _Iter _Last, pointer _Ptr)

  00000	55		 push	 ebp
  00001	8b ec		 mov	 ebp, esp
  00003	51		 push	 ecx
  00004	c7 45 fc cc cc
	cc cc		 mov	 DWORD PTR [ebp-4], -858993460 ; ccccccccH
  0000b	89 4d fc	 mov	 DWORD PTR _this$[ebp], ecx

; 802  : 		{	// copy initializing [_First, _Last), using allocator
; 803  : 		return (_Uninitialized_copy(_First, _Last,
; 804  : 			_Ptr, this->_Alval));

  0000e	8b 45 fc	 mov	 eax, DWORD PTR _this$[ebp]
  00011	50		 push	 eax
  00012	8b 4d 10	 mov	 ecx, DWORD PTR __Ptr$[ebp]
  00015	51		 push	 ecx
  00016	8b 55 0c	 mov	 edx, DWORD PTR __Last$[ebp]
  00019	52		 push	 edx
  0001a	8b 45 08	 mov	 eax, DWORD PTR __First$[ebp]
  0001d	50		 push	 eax
  0001e	e8 00 00 00 00	 call	 ??$_Uninitialized_copy@PAHPAHV?$allocator@H@std@@@std@@YAPAHPAH00AAV?$allocator@H@0@@Z ; std::_Uninitialized_copy<int *,int *,std::allocator<int> >
  00023	83 c4 10	 add	 esp, 16			; 00000010H

; 805  : 		}

  00026	83 c4 04	 add	 esp, 4
  00029	3b ec		 cmp	 ebp, esp
  0002b	e8 00 00 00 00	 call	 __RTC_CheckEsp
  00030	8b e5		 mov	 esp, ebp
  00032	5d		 pop	 ebp
  00033	c2 0c 00	 ret	 12			; 0000000cH
??$_Ucopy@PAH@?$vector@HV?$allocator@H@std@@@std@@IAEPAHPAH00@Z ENDP ; std::vector<int,std::allocator<int> >::_Ucopy<int *>
; Function compile flags: /Odt /RTCsu
; File d:\program files (x86)\microsoft visual studio .net 2003\vc7\include\xutility
_TEXT	ENDS
;	COMDAT ??$fill@PAHH@std@@YAXPAH0ABH@Z
_TEXT	SEGMENT
__First$ = 8						; size = 4
__Last$ = 12						; size = 4
__Val$ = 16						; size = 4
??$fill@PAHH@std@@YAXPAH0ABH@Z PROC NEAR		; std::fill<int *,int>, COMDAT

; 1134 : 	{	// copy _Val through [_First, _Last)

  00000	55		 push	 ebp
  00001	8b ec		 mov	 ebp, esp

; 1135 : 	for (; _First != _Last; ++_First)

  00003	eb 09		 jmp	 SHORT $L191152
$L191153:
  00005	8b 45 08	 mov	 eax, DWORD PTR __First$[ebp]
  00008	83 c0 04	 add	 eax, 4
  0000b	89 45 08	 mov	 DWORD PTR __First$[ebp], eax
$L191152:
  0000e	8b 4d 08	 mov	 ecx, DWORD PTR __First$[ebp]
  00011	3b 4d 0c	 cmp	 ecx, DWORD PTR __Last$[ebp]
  00014	74 0c		 je	 SHORT $L191151

; 1136 : 		*_First = _Val;

  00016	8b 55 08	 mov	 edx, DWORD PTR __First$[ebp]
  00019	8b 45 10	 mov	 eax, DWORD PTR __Val$[ebp]
  0001c	8b 08		 mov	 ecx, DWORD PTR [eax]
  0001e	89 0a		 mov	 DWORD PTR [edx], ecx
  00020	eb e3		 jmp	 SHORT $L191153
$L191151:

; 1137 : 	}

  00022	5d		 pop	 ebp
  00023	c3		 ret	 0
??$fill@PAHH@std@@YAXPAH0ABH@Z ENDP			; std::fill<int *,int>
_TEXT	ENDS
PUBLIC	??$_Copy_backward_opt@PAHPAH@std@@YAPAHPAH00U_Scalar_ptr_iterator_tag@0@@Z ; std::_Copy_backward_opt<int *,int *>
; Function compile flags: /Odt /RTCsu
;	COMDAT ??$copy_backward@PAHPAH@std@@YAPAHPAH00@Z
_TEXT	SEGMENT
$T192297 = -1						; size = 1
__First$ = 8						; size = 4
__Last$ = 12						; size = 4
__Dest$ = 16						; size = 4
??$copy_backward@PAHPAH@std@@YAPAHPAH00@Z PROC NEAR	; std::copy_backward<int *,int *>, COMDAT

; 1067 : 	{	// copy [_First, _Last) backwards to [..., _Dest)

  00000	55		 push	 ebp
  00001	8b ec		 mov	 ebp, esp
  00003	51		 push	 ecx
  00004	c7 45 fc cc cc
	cc cc		 mov	 DWORD PTR [ebp-4], -858993460 ; ccccccccH

; 1068 : 	return (_Copy_backward_opt(_First, _Last, _Dest,
; 1069 : 		_Ptr_cat(_First, _Dest)));

  0000b	8b 45 10	 mov	 eax, DWORD PTR __Dest$[ebp]
  0000e	50		 push	 eax
  0000f	8b 4d 08	 mov	 ecx, DWORD PTR __First$[ebp]
  00012	51		 push	 ecx
  00013	e8 00 00 00 00	 call	 ?_Ptr_cat@std@@YA?AU_Scalar_ptr_iterator_tag@1@PAH0@Z ; std::_Ptr_cat
  00018	83 c4 08	 add	 esp, 8
  0001b	88 45 ff	 mov	 BYTE PTR $T192297[ebp], al
  0001e	8a 55 ff	 mov	 dl, BYTE PTR $T192297[ebp]
  00021	52		 push	 edx
  00022	8b 45 10	 mov	 eax, DWORD PTR __Dest$[ebp]
  00025	50		 push	 eax
  00026	8b 4d 0c	 mov	 ecx, DWORD PTR __Last$[ebp]
  00029	51		 push	 ecx
  0002a	8b 55 08	 mov	 edx, DWORD PTR __First$[ebp]
  0002d	52		 push	 edx
  0002e	e8 00 00 00 00	 call	 ??$_Copy_backward_opt@PAHPAH@std@@YAPAHPAH00U_Scalar_ptr_iterator_tag@0@@Z ; std::_Copy_backward_opt<int *,int *>
  00033	83 c4 10	 add	 esp, 16			; 00000010H

; 1070 : 	}

  00036	83 c4 04	 add	 esp, 4
  00039	3b ec		 cmp	 ebp, esp
  0003b	e8 00 00 00 00	 call	 __RTC_CheckEsp
  00040	8b e5		 mov	 esp, ebp
  00042	5d		 pop	 ebp
  00043	c3		 ret	 0
??$copy_backward@PAHPAH@std@@YAPAHPAH00@Z ENDP		; std::copy_backward<int *,int *>
_TEXT	ENDS
PUBLIC	??$fill_n@PAHIH@std@@YAXPAHIABH@Z		; std::fill_n<int *,unsigned int,int>
; Function compile flags: /Odt /RTCsu
; File d:\program files (x86)\microsoft visual studio .net 2003\vc7\include\memory
;	COMDAT ??$_Uninit_fill_n@HIH@std@@YAXPAHIABHAAV?$allocator@H@0@U_Scalar_ptr_iterator_tag@0@@Z
_TEXT	SEGMENT
__First$ = 8						; size = 4
__Count$ = 12						; size = 4
__Val$ = 16						; size = 4
___formal$ = 20						; size = 4
___formal$ = 24						; size = 1
??$_Uninit_fill_n@HIH@std@@YAXPAHIABHAAV?$allocator@H@0@U_Scalar_ptr_iterator_tag@0@@Z PROC NEAR ; std::_Uninit_fill_n<int,unsigned int,int>, COMDAT

; 236  : 	{	// copy _Count *_Val to raw _First, using _Al, scalar type

  00000	55		 push	 ebp
  00001	8b ec		 mov	 ebp, esp

; 237  : 	fill_n(_First, _Count, _Val);

  00003	8b 45 10	 mov	 eax, DWORD PTR __Val$[ebp]
  00006	50		 push	 eax
  00007	8b 4d 0c	 mov	 ecx, DWORD PTR __Count$[ebp]
  0000a	51		 push	 ecx
  0000b	8b 55 08	 mov	 edx, DWORD PTR __First$[ebp]
  0000e	52		 push	 edx
  0000f	e8 00 00 00 00	 call	 ??$fill_n@PAHIH@std@@YAXPAHIABH@Z ; std::fill_n<int *,unsigned int,int>
  00014	83 c4 0c	 add	 esp, 12			; 0000000cH

; 238  : 	}

  00017	3b ec		 cmp	 ebp, esp
  00019	e8 00 00 00 00	 call	 __RTC_CheckEsp
  0001e	5d		 pop	 ebp
  0001f	c3		 ret	 0
??$_Uninit_fill_n@HIH@std@@YAXPAHIABHAAV?$allocator@H@0@U_Scalar_ptr_iterator_tag@0@@Z ENDP ; std::_Uninit_fill_n<int,unsigned int,int>
_TEXT	ENDS
PUBLIC	??$_Uninit_copy@HH@std@@YAPAHPAH00AAV?$allocator@H@0@U_Scalar_ptr_iterator_tag@0@@Z ; std::_Uninit_copy<int,int>
; Function compile flags: /Odt /RTCsu
;	COMDAT ??$_Uninitialized_copy@PAHPAHV?$allocator@H@std@@@std@@YAPAHPAH00AAV?$allocator@H@0@@Z
_TEXT	SEGMENT
$T192300 = -1						; size = 1
__First$ = 8						; size = 4
__Last$ = 12						; size = 4
__Dest$ = 16						; size = 4
__Al$ = 20						; size = 4
??$_Uninitialized_copy@PAHPAHV?$allocator@H@std@@@std@@YAPAHPAH00AAV?$allocator@H@0@@Z PROC NEAR ; std::_Uninitialized_copy<int *,int *,std::allocator<int> >, COMDAT

; 126  : 	{	// copy [_First, _Last) to raw _Dest, using _Al

  00000	55		 push	 ebp
  00001	8b ec		 mov	 ebp, esp
  00003	51		 push	 ecx
  00004	c7 45 fc cc cc
	cc cc		 mov	 DWORD PTR [ebp-4], -858993460 ; ccccccccH

; 127  : 	return (_Uninit_copy(_First, _Last, _Dest, _Al,
; 128  : 		_Ptr_cat(_First, _Dest)));

  0000b	8b 45 10	 mov	 eax, DWORD PTR __Dest$[ebp]
  0000e	50		 push	 eax
  0000f	8b 4d 08	 mov	 ecx, DWORD PTR __First$[ebp]
  00012	51		 push	 ecx
  00013	e8 00 00 00 00	 call	 ?_Ptr_cat@std@@YA?AU_Scalar_ptr_iterator_tag@1@PAH0@Z ; std::_Ptr_cat
  00018	83 c4 08	 add	 esp, 8
  0001b	88 45 ff	 mov	 BYTE PTR $T192300[ebp], al
  0001e	8a 55 ff	 mov	 dl, BYTE PTR $T192300[ebp]
  00021	52		 push	 edx
  00022	8b 45 14	 mov	 eax, DWORD PTR __Al$[ebp]
  00025	50		 push	 eax
  00026	8b 4d 10	 mov	 ecx, DWORD PTR __Dest$[ebp]
  00029	51		 push	 ecx
  0002a	8b 55 0c	 mov	 edx, DWORD PTR __Last$[ebp]
  0002d	52		 push	 edx
  0002e	8b 45 08	 mov	 eax, DWORD PTR __First$[ebp]
  00031	50		 push	 eax
  00032	e8 00 00 00 00	 call	 ??$_Uninit_copy@HH@std@@YAPAHPAH00AAV?$allocator@H@0@U_Scalar_ptr_iterator_tag@0@@Z ; std::_Uninit_copy<int,int>
  00037	83 c4 14	 add	 esp, 20			; 00000014H

; 129  : 	}

  0003a	83 c4 04	 add	 esp, 4
  0003d	3b ec		 cmp	 ebp, esp
  0003f	e8 00 00 00 00	 call	 __RTC_CheckEsp
  00044	8b e5		 mov	 esp, ebp
  00046	5d		 pop	 ebp
  00047	c3		 ret	 0
??$_Uninitialized_copy@PAHPAHV?$allocator@H@std@@@std@@YAPAHPAH00AAV?$allocator@H@0@@Z ENDP ; std::_Uninitialized_copy<int *,int *,std::allocator<int> >
_TEXT	ENDS
EXTRN	__imp__memmove:NEAR
; Function compile flags: /Odt /RTCsu
; File d:\program files (x86)\microsoft visual studio .net 2003\vc7\include\xutility
;	COMDAT ??$_Copy_backward_opt@PAHPAH@std@@YAPAHPAH00U_Scalar_ptr_iterator_tag@0@@Z
_TEXT	SEGMENT
__Off$ = -4						; size = 4
__First$ = 8						; size = 4
__Last$ = 12						; size = 4
__Dest$ = 16						; size = 4
___formal$ = 20						; size = 1
??$_Copy_backward_opt@PAHPAH@std@@YAPAHPAH00U_Scalar_ptr_iterator_tag@0@@Z PROC NEAR ; std::_Copy_backward_opt<int *,int *>, COMDAT

; 1058 : 	{	// copy [_First, _Last) backwards to [..., _Dest), pointers to scalars

  00000	55		 push	 ebp
  00001	8b ec		 mov	 ebp, esp
  00003	51		 push	 ecx
  00004	56		 push	 esi
  00005	c7 45 fc cc cc
	cc cc		 mov	 DWORD PTR [ebp-4], -858993460 ; ccccccccH

; 1059 : 	ptrdiff_t _Off = _Last - _First;	// NB: non-overlapping move

  0000c	8b 45 0c	 mov	 eax, DWORD PTR __Last$[ebp]
  0000f	2b 45 08	 sub	 eax, DWORD PTR __First$[ebp]
  00012	c1 f8 02	 sar	 eax, 2
  00015	89 45 fc	 mov	 DWORD PTR __Off$[ebp], eax

; 1060 : 	return ((_OutIt)memmove(&*_Dest - _Off, &*_First,
; 1061 : 		_Off * sizeof (*_First)));

  00018	8b 4d fc	 mov	 ecx, DWORD PTR __Off$[ebp]
  0001b	c1 e1 02	 shl	 ecx, 2
  0001e	8b f4		 mov	 esi, esp
  00020	51		 push	 ecx
  00021	8b 55 08	 mov	 edx, DWORD PTR __First$[ebp]
  00024	52		 push	 edx
  00025	8b 45 fc	 mov	 eax, DWORD PTR __Off$[ebp]
  00028	c1 e0 02	 shl	 eax, 2
  0002b	8b 4d 10	 mov	 ecx, DWORD PTR __Dest$[ebp]
  0002e	2b c8		 sub	 ecx, eax
  00030	51		 push	 ecx
  00031	ff 15 00 00 00
	00		 call	 DWORD PTR __imp__memmove
  00037	83 c4 0c	 add	 esp, 12			; 0000000cH
  0003a	3b f4		 cmp	 esi, esp
  0003c	e8 00 00 00 00	 call	 __RTC_CheckEsp

; 1062 : 	}

  00041	5e		 pop	 esi
  00042	83 c4 04	 add	 esp, 4
  00045	3b ec		 cmp	 ebp, esp
  00047	e8 00 00 00 00	 call	 __RTC_CheckEsp
  0004c	8b e5		 mov	 esp, ebp
  0004e	5d		 pop	 ebp
  0004f	c3		 ret	 0
??$_Copy_backward_opt@PAHPAH@std@@YAPAHPAH00U_Scalar_ptr_iterator_tag@0@@Z ENDP ; std::_Copy_backward_opt<int *,int *>
; Function compile flags: /Odt /RTCsu
_TEXT	ENDS
;	COMDAT ??$fill_n@PAHIH@std@@YAXPAHIABH@Z
_TEXT	SEGMENT
__First$ = 8						; size = 4
__Count$ = 12						; size = 4
__Val$ = 16						; size = 4
??$fill_n@PAHIH@std@@YAXPAHIABH@Z PROC NEAR		; std::fill_n<int *,unsigned int,int>, COMDAT

; 1159 : 	{	// copy _Val _Count times through [_First, ...)

  00000	55		 push	 ebp
  00001	8b ec		 mov	 ebp, esp

; 1160 : 	for (; 0 < _Count; --_Count, ++_First)

  00003	eb 12		 jmp	 SHORT $L191227
$L191228:
  00005	8b 45 0c	 mov	 eax, DWORD PTR __Count$[ebp]
  00008	83 e8 01	 sub	 eax, 1
  0000b	89 45 0c	 mov	 DWORD PTR __Count$[ebp], eax
  0000e	8b 4d 08	 mov	 ecx, DWORD PTR __First$[ebp]
  00011	83 c1 04	 add	 ecx, 4
  00014	89 4d 08	 mov	 DWORD PTR __First$[ebp], ecx
$L191227:
  00017	83 7d 0c 00	 cmp	 DWORD PTR __Count$[ebp], 0
  0001b	76 0c		 jbe	 SHORT $L191226

; 1161 : 		*_First = _Val;

  0001d	8b 55 08	 mov	 edx, DWORD PTR __First$[ebp]
  00020	8b 45 10	 mov	 eax, DWORD PTR __Val$[ebp]
  00023	8b 08		 mov	 ecx, DWORD PTR [eax]
  00025	89 0a		 mov	 DWORD PTR [edx], ecx
  00027	eb dc		 jmp	 SHORT $L191228
$L191226:

; 1162 : 	}

  00029	5d		 pop	 ebp
  0002a	c3		 ret	 0
??$fill_n@PAHIH@std@@YAXPAHIABH@Z ENDP			; std::fill_n<int *,unsigned int,int>
; Function compile flags: /Odt /RTCsu
; File d:\program files (x86)\microsoft visual studio .net 2003\vc7\include\memory
_TEXT	ENDS
;	COMDAT ??$_Uninit_copy@HH@std@@YAPAHPAH00AAV?$allocator@H@0@U_Scalar_ptr_iterator_tag@0@@Z
_TEXT	SEGMENT
__Count$ = -4						; size = 4
__First$ = 8						; size = 4
__Last$ = 12						; size = 4
__Dest$ = 16						; size = 4
___formal$ = 20						; size = 4
___formal$ = 24						; size = 1
??$_Uninit_copy@HH@std@@YAPAHPAH00AAV?$allocator@H@0@U_Scalar_ptr_iterator_tag@0@@Z PROC NEAR ; std::_Uninit_copy<int,int>, COMDAT

; 105  : 	{	// copy [_First, _Last) to raw _Dest, (const) scalar type

  00000	55		 push	 ebp
  00001	8b ec		 mov	 ebp, esp
  00003	51		 push	 ecx
  00004	56		 push	 esi
  00005	c7 45 fc cc cc
	cc cc		 mov	 DWORD PTR [ebp-4], -858993460 ; ccccccccH

; 106  : 	size_t _Count = (size_t)(_Last - _First);

  0000c	8b 45 0c	 mov	 eax, DWORD PTR __Last$[ebp]
  0000f	2b 45 08	 sub	 eax, DWORD PTR __First$[ebp]
  00012	c1 f8 02	 sar	 eax, 2
  00015	89 45 fc	 mov	 DWORD PTR __Count$[ebp], eax

; 107  : 	return ((_Ty2 *)memmove(&*_Dest, &*_First,
; 108  : 		_Count * sizeof (*_First)) + _Count);	// NB: non-overlapping move

  00018	8b 4d fc	 mov	 ecx, DWORD PTR __Count$[ebp]
  0001b	c1 e1 02	 shl	 ecx, 2
  0001e	8b f4		 mov	 esi, esp
  00020	51		 push	 ecx
  00021	8b 55 08	 mov	 edx, DWORD PTR __First$[ebp]
  00024	52		 push	 edx
  00025	8b 45 10	 mov	 eax, DWORD PTR __Dest$[ebp]
  00028	50		 push	 eax
  00029	ff 15 00 00 00
	00		 call	 DWORD PTR __imp__memmove
  0002f	83 c4 0c	 add	 esp, 12			; 0000000cH
  00032	3b f4		 cmp	 esi, esp
  00034	e8 00 00 00 00	 call	 __RTC_CheckEsp
  00039	8b 4d fc	 mov	 ecx, DWORD PTR __Count$[ebp]
  0003c	8d 04 88	 lea	 eax, DWORD PTR [eax+ecx*4]

; 109  : 	}

  0003f	5e		 pop	 esi
  00040	83 c4 04	 add	 esp, 4
  00043	3b ec		 cmp	 ebp, esp
  00045	e8 00 00 00 00	 call	 __RTC_CheckEsp
  0004a	8b e5		 mov	 esp, ebp
  0004c	5d		 pop	 ebp
  0004d	c3		 ret	 0
??$_Uninit_copy@HH@std@@YAPAHPAH00AAV?$allocator@H@0@U_Scalar_ptr_iterator_tag@0@@Z ENDP ; std::_Uninit_copy<int,int>
; Function compile flags: /Odt /RTCsu
_TEXT	ENDS
;	COMDAT ??_ECMyListCtrl@@WFE@AEPAXI@Z
_TEXT	SEGMENT
??_ECMyListCtrl@@WFE@AEPAXI@Z PROC NEAR			; [thunk]:CMyListCtrl::`vector deleting destructor', COMDAT
  00000	83 e9 54	 sub	 ecx, 84			; 00000054H
  00003	e9 00 00 00 00	 jmp	 ??_ECMyListCtrl@@UAEPAXI@Z
??_ECMyListCtrl@@WFE@AEPAXI@Z ENDP			; [thunk]:CMyListCtrl::`vector deleting destructor'
; Function compile flags: /Odt /RTCsu
; File d:\program files (x86)\microsoft visual studio .net 2003\vc7\include\xutility
_TEXT	ENDS
;	COMDAT ?_Ptr_cat@std@@YA?AU_Scalar_ptr_iterator_tag@1@PAH0@Z
_TEXT	SEGMENT
__Cat$ = -5						; size = 1
___formal$ = 8						; size = 4
___formal$ = 12						; size = 4
?_Ptr_cat@std@@YA?AU_Scalar_ptr_iterator_tag@1@PAH0@Z PROC NEAR ; std::_Ptr_cat, COMDAT

; 335  : 	{	// return pointer category from pointer to int arguments

  00000	55		 push	 ebp
  00001	8b ec		 mov	 ebp, esp
  00003	83 ec 0c	 sub	 esp, 12			; 0000000cH
  00006	c7 45 f4 cc cc
	cc cc		 mov	 DWORD PTR [ebp-12], -858993460 ; ccccccccH
  0000d	c7 45 f8 cc cc
	cc cc		 mov	 DWORD PTR [ebp-8], -858993460 ; ccccccccH
  00014	c7 45 fc cc cc
	cc cc		 mov	 DWORD PTR [ebp-4], -858993460 ; ccccccccH

; 336  : 	_Scalar_ptr_iterator_tag _Cat;
; 337  : 	return (_Cat);

  0001b	8a 45 fb	 mov	 al, BYTE PTR __Cat$[ebp]

; 338  : 	}

  0001e	52		 push	 edx
  0001f	8b cd		 mov	 ecx, ebp
  00021	50		 push	 eax
  00022	8d 15 00 00 00
	00		 lea	 edx, DWORD PTR $L192308
  00028	e8 00 00 00 00	 call	 @_RTC_CheckStackVars@8
  0002d	58		 pop	 eax
  0002e	5a		 pop	 edx
  0002f	8b e5		 mov	 esp, ebp
  00031	5d		 pop	 ebp
  00032	c3		 ret	 0
$L192308:
  00033	01 00 00 00	 DD	 1
  00037	00 00 00 00	 DD	 $L192307
$L192307:
  0003b	fb ff ff ff	 DD	 -5			; fffffffbH
  0003f	01 00 00 00	 DD	 1
  00043	00 00 00 00	 DD	 $L192306
$L192306:
  00047	5f		 DB	 95			; 0000005fH
  00048	43		 DB	 67			; 00000043H
  00049	61		 DB	 97			; 00000061H
  0004a	74		 DB	 116			; 00000074H
  0004b	00		 DB	 0
?_Ptr_cat@std@@YA?AU_Scalar_ptr_iterator_tag@1@PAH0@Z ENDP ; std::_Ptr_cat
; Function compile flags: /Odt /RTCsu
; File d:\program files (x86)\microsoft visual studio .net 2003\vc7\include\stdexcept
_TEXT	ENDS
;	COMDAT ?what@logic_error@std@@UBEPBDXZ
_TEXT	SEGMENT
_this$ = -4						; size = 4
?what@logic_error@std@@UBEPBDXZ PROC NEAR		; std::logic_error::what, COMDAT
; _this$ = ecx

; 26   : 		{	// return pointer to message string

  00000	55		 push	 ebp
  00001	8b ec		 mov	 ebp, esp
  00003	51		 push	 ecx
  00004	56		 push	 esi
  00005	c7 45 fc cc cc
	cc cc		 mov	 DWORD PTR [ebp-4], -858993460 ; ccccccccH
  0000c	89 4d fc	 mov	 DWORD PTR _this$[ebp], ecx

; 27   : 		return (_Str.c_str());

  0000f	8b 4d fc	 mov	 ecx, DWORD PTR _this$[ebp]
  00012	83 c1 0c	 add	 ecx, 12			; 0000000cH
  00015	8b f4		 mov	 esi, esp
  00017	ff 15 00 00 00
	00		 call	 DWORD PTR __imp_?c_str@?$basic_string@DU?$char_traits@D@std@@V?$allocator@D@2@@std@@QBEPBDXZ
  0001d	3b f4		 cmp	 esi, esp
  0001f	e8 00 00 00 00	 call	 __RTC_CheckEsp

; 28   : 		}

  00024	5e		 pop	 esi
  00025	83 c4 04	 add	 esp, 4
  00028	3b ec		 cmp	 ebp, esp
  0002a	e8 00 00 00 00	 call	 __RTC_CheckEsp
  0002f	8b e5		 mov	 esp, ebp
  00031	5d		 pop	 ebp
  00032	c3		 ret	 0
?what@logic_error@std@@UBEPBDXZ ENDP			; std::logic_error::what
_TEXT	ENDS
PUBLIC	??0logic_error@std@@QAE@ABV?$basic_string@DU?$char_traits@D@std@@V?$allocator@D@2@@1@@Z ; std::logic_error::logic_error
; Function compile flags: /Odt /RTCsu
;	COMDAT ??0length_error@std@@QAE@ABV?$basic_string@DU?$char_traits@D@std@@V?$allocator@D@2@@1@@Z
_TEXT	SEGMENT
_this$ = -4						; size = 4
__Message$ = 8						; size = 4
??0length_error@std@@QAE@ABV?$basic_string@DU?$char_traits@D@std@@V?$allocator@D@2@@1@@Z PROC NEAR ; std::length_error::length_error, COMDAT
; _this$ = ecx

; 95   : 		{	// construct from message string

  00000	55		 push	 ebp
  00001	8b ec		 mov	 ebp, esp
  00003	51		 push	 ecx
  00004	c7 45 fc cc cc
	cc cc		 mov	 DWORD PTR [ebp-4], -858993460 ; ccccccccH
  0000b	89 4d fc	 mov	 DWORD PTR _this$[ebp], ecx
  0000e	8b 45 08	 mov	 eax, DWORD PTR __Message$[ebp]
  00011	50		 push	 eax
  00012	8b 4d fc	 mov	 ecx, DWORD PTR _this$[ebp]
  00015	e8 00 00 00 00	 call	 ??0logic_error@std@@QAE@ABV?$basic_string@DU?$char_traits@D@std@@V?$allocator@D@2@@1@@Z ; std::logic_error::logic_error
  0001a	8b 4d fc	 mov	 ecx, DWORD PTR _this$[ebp]
  0001d	c7 01 00 00 00
	00		 mov	 DWORD PTR [ecx], OFFSET FLAT:??_7length_error@std@@6B@

; 96   : 		}

  00023	8b 45 fc	 mov	 eax, DWORD PTR _this$[ebp]
  00026	83 c4 04	 add	 esp, 4
  00029	3b ec		 cmp	 ebp, esp
  0002b	e8 00 00 00 00	 call	 __RTC_CheckEsp
  00030	8b e5		 mov	 esp, ebp
  00032	5d		 pop	 ebp
  00033	c2 04 00	 ret	 4
??0length_error@std@@QAE@ABV?$basic_string@DU?$char_traits@D@std@@V?$allocator@D@2@@1@@Z ENDP ; std::length_error::length_error
_TEXT	ENDS
PUBLIC	??_7logic_error@std@@6B@			; std::logic_error::`vftable'
PUBLIC	??_Glogic_error@std@@UAEPAXI@Z			; std::logic_error::`scalar deleting destructor'
PUBLIC	??_R4logic_error@std@@6B@			; std::logic_error::`RTTI Complete Object Locator'
PUBLIC	??_R3logic_error@std@@8				; std::logic_error::`RTTI Class Hierarchy Descriptor'
PUBLIC	??_R2logic_error@std@@8				; std::logic_error::`RTTI Base Class Array'
EXTRN	__imp_??0exception@@QAE@XZ:NEAR
EXTRN	__imp_??1exception@@UAE@XZ:NEAR
EXTRN	??_Elogic_error@std@@UAEPAXI@Z:NEAR		; std::logic_error::`vector deleting destructor'
;	COMDAT xdata$x
xdata$x	SEGMENT
$T192318 DD	0ffffffffH
	DD	FLAT:$L192313
$T192316 DD	019930520H
	DD	01H
	DD	FLAT:$T192318
	DD	2 DUP(00H)
	DD	2 DUP(00H)
xdata$x	ENDS
;	COMDAT ??_7logic_error@std@@6B@
CONST	SEGMENT
??_7logic_error@std@@6B@ DD FLAT:??_R4logic_error@std@@6B@ ; std::logic_error::`vftable'
	DD	FLAT:??_Elogic_error@std@@UAEPAXI@Z
	DD	FLAT:?what@logic_error@std@@UBEPBDXZ
CONST	ENDS
;	COMDAT ??_R4logic_error@std@@6B@
rdata$r	SEGMENT
??_R4logic_error@std@@6B@ DD 00H			; std::logic_error::`RTTI Complete Object Locator'
	DD	00H
	DD	00H
	DD	FLAT:??_R0?AVlogic_error@std@@@8
	DD	FLAT:??_R3logic_error@std@@8
rdata$r	ENDS
;	COMDAT ??_R3logic_error@std@@8
rdata$r	SEGMENT
??_R3logic_error@std@@8 DD 00H				; std::logic_error::`RTTI Class Hierarchy Descriptor'
	DD	00H
	DD	02H
	DD	FLAT:??_R2logic_error@std@@8
rdata$r	ENDS
;	COMDAT ??_R2logic_error@std@@8
rdata$r	SEGMENT
??_R2logic_error@std@@8 DD FLAT:??_R1A@?0A@A@logic_error@std@@8 ; std::logic_error::`RTTI Base Class Array'
	DD	FLAT:??_R1A@?0A@A@exception@@8
; Function compile flags: /Odt /RTCsu
rdata$r	ENDS
;	COMDAT ??0logic_error@std@@QAE@ABV?$basic_string@DU?$char_traits@D@std@@V?$allocator@D@2@@1@@Z
_TEXT	SEGMENT
_this$ = -16						; size = 4
__$EHRec$ = -12						; size = 12
__Message$ = 8						; size = 4
??0logic_error@std@@QAE@ABV?$basic_string@DU?$char_traits@D@std@@V?$allocator@D@2@@1@@Z PROC NEAR ; std::logic_error::logic_error, COMDAT
; _this$ = ecx

; 19   : 		{	// construct from message string

  00000	55		 push	 ebp
  00001	8b ec		 mov	 ebp, esp
  00003	6a ff		 push	 -1
  00005	68 00 00 00 00	 push	 __ehhandler$??0logic_error@std@@QAE@ABV?$basic_string@DU?$char_traits@D@std@@V?$allocator@D@2@@1@@Z
  0000a	64 a1 00 00 00
	00		 mov	 eax, DWORD PTR fs:__except_list
  00010	50		 push	 eax
  00011	64 89 25 00 00
	00 00		 mov	 DWORD PTR fs:__except_list, esp
  00018	51		 push	 ecx
  00019	56		 push	 esi
  0001a	c7 45 f0 cc cc
	cc cc		 mov	 DWORD PTR [ebp-16], -858993460 ; ccccccccH
  00021	89 4d f0	 mov	 DWORD PTR _this$[ebp], ecx
  00024	8b f4		 mov	 esi, esp
  00026	8b 4d f0	 mov	 ecx, DWORD PTR _this$[ebp]
  00029	ff 15 00 00 00
	00		 call	 DWORD PTR __imp_??0exception@@QAE@XZ
  0002f	3b f4		 cmp	 esi, esp
  00031	e8 00 00 00 00	 call	 __RTC_CheckEsp
  00036	c7 45 fc 00 00
	00 00		 mov	 DWORD PTR __$EHRec$[ebp+8], 0
  0003d	8b 45 f0	 mov	 eax, DWORD PTR _this$[ebp]
  00040	c7 00 00 00 00
	00		 mov	 DWORD PTR [eax], OFFSET FLAT:??_7logic_error@std@@6B@
  00046	8b f4		 mov	 esi, esp
  00048	8b 4d 08	 mov	 ecx, DWORD PTR __Message$[ebp]
  0004b	51		 push	 ecx
  0004c	8b 4d f0	 mov	 ecx, DWORD PTR _this$[ebp]
  0004f	83 c1 0c	 add	 ecx, 12			; 0000000cH
  00052	ff 15 00 00 00
	00		 call	 DWORD PTR __imp_??0?$basic_string@DU?$char_traits@D@std@@V?$allocator@D@2@@std@@QAE@ABV01@@Z
  00058	3b f4		 cmp	 esi, esp
  0005a	e8 00 00 00 00	 call	 __RTC_CheckEsp

; 20   : 		}

  0005f	c7 45 fc ff ff
	ff ff		 mov	 DWORD PTR __$EHRec$[ebp+8], -1
  00066	8b 45 f0	 mov	 eax, DWORD PTR _this$[ebp]
  00069	8b 4d f4	 mov	 ecx, DWORD PTR __$EHRec$[ebp]
  0006c	64 89 0d 00 00
	00 00		 mov	 DWORD PTR fs:__except_list, ecx
  00073	5e		 pop	 esi
  00074	83 c4 10	 add	 esp, 16			; 00000010H
  00077	3b ec		 cmp	 ebp, esp
  00079	e8 00 00 00 00	 call	 __RTC_CheckEsp
  0007e	8b e5		 mov	 esp, ebp
  00080	5d		 pop	 ebp
  00081	c2 04 00	 ret	 4
_TEXT	ENDS
;	COMDAT text$x
text$x	SEGMENT
$L192313:
  00000	8b f4		 mov	 esi, esp
  00002	8b 4d f0	 mov	 ecx, DWORD PTR _this$[ebp]
  00005	ff 15 00 00 00
	00		 call	 DWORD PTR __imp_??1exception@@UAE@XZ
  0000b	3b f4		 cmp	 esi, esp
  0000d	e9 00 00 00 00	 jmp	 __RTC_CheckEsp
__ehhandler$??0logic_error@std@@QAE@ABV?$basic_string@DU?$char_traits@D@std@@V?$allocator@D@2@@1@@Z:
  00012	b8 00 00 00 00	 mov	 eax, OFFSET FLAT:$T192316
  00017	e9 00 00 00 00	 jmp	 ___CxxFrameHandler
text$x	ENDS
??0logic_error@std@@QAE@ABV?$basic_string@DU?$char_traits@D@std@@V?$allocator@D@2@@1@@Z ENDP ; std::logic_error::logic_error
PUBLIC	??1logic_error@std@@UAE@XZ			; std::logic_error::~logic_error
; Function compile flags: /Odt /RTCsu
;	COMDAT ??_Glogic_error@std@@UAEPAXI@Z
_TEXT	SEGMENT
_this$ = -4						; size = 4
___flags$ = 8						; size = 4
??_Glogic_error@std@@UAEPAXI@Z PROC NEAR		; std::logic_error::`scalar deleting destructor', COMDAT
; _this$ = ecx
  00000	55		 push	 ebp
  00001	8b ec		 mov	 ebp, esp
  00003	51		 push	 ecx
  00004	c7 45 fc cc cc
	cc cc		 mov	 DWORD PTR [ebp-4], -858993460 ; ccccccccH
  0000b	89 4d fc	 mov	 DWORD PTR _this$[ebp], ecx
  0000e	8b 4d fc	 mov	 ecx, DWORD PTR _this$[ebp]
  00011	e8 00 00 00 00	 call	 ??1logic_error@std@@UAE@XZ ; std::logic_error::~logic_error
  00016	8b 45 08	 mov	 eax, DWORD PTR ___flags$[ebp]
  00019	83 e0 01	 and	 eax, 1
  0001c	74 0c		 je	 SHORT $L91647
  0001e	8b 4d fc	 mov	 ecx, DWORD PTR _this$[ebp]
  00021	51		 push	 ecx
  00022	e8 00 00 00 00	 call	 ??3@YAXPAX@Z		; operator delete
  00027	83 c4 04	 add	 esp, 4
$L91647:
  0002a	8b 45 fc	 mov	 eax, DWORD PTR _this$[ebp]
  0002d	83 c4 04	 add	 esp, 4
  00030	3b ec		 cmp	 ebp, esp
  00032	e8 00 00 00 00	 call	 __RTC_CheckEsp
  00037	8b e5		 mov	 esp, ebp
  00039	5d		 pop	 ebp
  0003a	c2 04 00	 ret	 4
??_Glogic_error@std@@UAEPAXI@Z ENDP			; std::logic_error::`scalar deleting destructor'
_TEXT	ENDS
;	COMDAT xdata$x
xdata$x	SEGMENT
$T192328 DD	0ffffffffH
	DD	FLAT:$L192323
$T192326 DD	019930520H
	DD	01H
	DD	FLAT:$T192328
	DD	2 DUP(00H)
	DD	2 DUP(00H)
; Function compile flags: /Odt /RTCsu
xdata$x	ENDS
;	COMDAT ??1logic_error@std@@UAE@XZ
_TEXT	SEGMENT
_this$ = -16						; size = 4
__$EHRec$ = -12						; size = 12
??1logic_error@std@@UAE@XZ PROC NEAR			; std::logic_error::~logic_error, COMDAT
; _this$ = ecx

; 23   : 		{}	// destroy the object

  00000	55		 push	 ebp
  00001	8b ec		 mov	 ebp, esp
  00003	6a ff		 push	 -1
  00005	68 00 00 00 00	 push	 __ehhandler$??1logic_error@std@@UAE@XZ
  0000a	64 a1 00 00 00
	00		 mov	 eax, DWORD PTR fs:__except_list
  00010	50		 push	 eax
  00011	64 89 25 00 00
	00 00		 mov	 DWORD PTR fs:__except_list, esp
  00018	51		 push	 ecx
  00019	56		 push	 esi
  0001a	c7 45 f0 cc cc
	cc cc		 mov	 DWORD PTR [ebp-16], -858993460 ; ccccccccH
  00021	89 4d f0	 mov	 DWORD PTR _this$[ebp], ecx
  00024	8b 45 f0	 mov	 eax, DWORD PTR _this$[ebp]
  00027	c7 00 00 00 00
	00		 mov	 DWORD PTR [eax], OFFSET FLAT:??_7logic_error@std@@6B@
  0002d	c7 45 fc 00 00
	00 00		 mov	 DWORD PTR __$EHRec$[ebp+8], 0
  00034	8b 4d f0	 mov	 ecx, DWORD PTR _this$[ebp]
  00037	83 c1 0c	 add	 ecx, 12			; 0000000cH
  0003a	8b f4		 mov	 esi, esp
  0003c	ff 15 00 00 00
	00		 call	 DWORD PTR __imp_??1?$basic_string@DU?$char_traits@D@std@@V?$allocator@D@2@@std@@QAE@XZ
  00042	3b f4		 cmp	 esi, esp
  00044	e8 00 00 00 00	 call	 __RTC_CheckEsp
  00049	c7 45 fc ff ff
	ff ff		 mov	 DWORD PTR __$EHRec$[ebp+8], -1
  00050	8b f4		 mov	 esi, esp
  00052	8b 4d f0	 mov	 ecx, DWORD PTR _this$[ebp]
  00055	ff 15 00 00 00
	00		 call	 DWORD PTR __imp_??1exception@@UAE@XZ
  0005b	3b f4		 cmp	 esi, esp
  0005d	e8 00 00 00 00	 call	 __RTC_CheckEsp
  00062	8b 4d f4	 mov	 ecx, DWORD PTR __$EHRec$[ebp]
  00065	64 89 0d 00 00
	00 00		 mov	 DWORD PTR fs:__except_list, ecx
  0006c	5e		 pop	 esi
  0006d	83 c4 10	 add	 esp, 16			; 00000010H
  00070	3b ec		 cmp	 ebp, esp
  00072	e8 00 00 00 00	 call	 __RTC_CheckEsp
  00077	8b e5		 mov	 esp, ebp
  00079	5d		 pop	 ebp
  0007a	c3		 ret	 0
_TEXT	ENDS
;	COMDAT text$x
text$x	SEGMENT
$L192323:
  00000	8b f4		 mov	 esi, esp
  00002	8b 4d f0	 mov	 ecx, DWORD PTR _this$[ebp]
  00005	ff 15 00 00 00
	00		 call	 DWORD PTR __imp_??1exception@@UAE@XZ
  0000b	3b f4		 cmp	 esi, esp
  0000d	e9 00 00 00 00	 jmp	 __RTC_CheckEsp
__ehhandler$??1logic_error@std@@UAE@XZ:
  00012	b8 00 00 00 00	 mov	 eax, OFFSET FLAT:$T192326
  00017	e9 00 00 00 00	 jmp	 ___CxxFrameHandler
text$x	ENDS
??1logic_error@std@@UAE@XZ ENDP				; std::logic_error::~logic_error
; Function compile flags: /Odt /RTCsu
;	COMDAT ??1length_error@std@@UAE@XZ
_TEXT	SEGMENT
_this$ = -4						; size = 4
??1length_error@std@@UAE@XZ PROC NEAR			; std::length_error::~length_error, COMDAT
; _this$ = ecx

; 99   : 		{}	// destroy the object

  00000	55		 push	 ebp
  00001	8b ec		 mov	 ebp, esp
  00003	51		 push	 ecx
  00004	c7 45 fc cc cc
	cc cc		 mov	 DWORD PTR [ebp-4], -858993460 ; ccccccccH
  0000b	89 4d fc	 mov	 DWORD PTR _this$[ebp], ecx
  0000e	8b 45 fc	 mov	 eax, DWORD PTR _this$[ebp]
  00011	c7 00 00 00 00
	00		 mov	 DWORD PTR [eax], OFFSET FLAT:??_7length_error@std@@6B@
  00017	8b 4d fc	 mov	 ecx, DWORD PTR _this$[ebp]
  0001a	e8 00 00 00 00	 call	 ??1logic_error@std@@UAE@XZ ; std::logic_error::~logic_error
  0001f	83 c4 04	 add	 esp, 4
  00022	3b ec		 cmp	 ebp, esp
  00024	e8 00 00 00 00	 call	 __RTC_CheckEsp
  00029	8b e5		 mov	 esp, ebp
  0002b	5d		 pop	 ebp
  0002c	c3		 ret	 0
??1length_error@std@@UAE@XZ ENDP			; std::length_error::~length_error
; Function compile flags: /Odt /RTCsu
_TEXT	ENDS
;	COMDAT ??_Glength_error@std@@UAEPAXI@Z
_TEXT	SEGMENT
_this$ = -4						; size = 4
___flags$ = 8						; size = 4
??_Glength_error@std@@UAEPAXI@Z PROC NEAR		; std::length_error::`scalar deleting destructor', COMDAT
; _this$ = ecx
  00000	55		 push	 ebp
  00001	8b ec		 mov	 ebp, esp
  00003	51		 push	 ecx
  00004	c7 45 fc cc cc
	cc cc		 mov	 DWORD PTR [ebp-4], -858993460 ; ccccccccH
  0000b	89 4d fc	 mov	 DWORD PTR _this$[ebp], ecx
  0000e	8b 4d fc	 mov	 ecx, DWORD PTR _this$[ebp]
  00011	e8 00 00 00 00	 call	 ??1length_error@std@@UAE@XZ ; std::length_error::~length_error
  00016	8b 45 08	 mov	 eax, DWORD PTR ___flags$[ebp]
  00019	83 e0 01	 and	 eax, 1
  0001c	74 0c		 je	 SHORT $L91713
  0001e	8b 4d fc	 mov	 ecx, DWORD PTR _this$[ebp]
  00021	51		 push	 ecx
  00022	e8 00 00 00 00	 call	 ??3@YAXPAX@Z		; operator delete
  00027	83 c4 04	 add	 esp, 4
$L91713:
  0002a	8b 45 fc	 mov	 eax, DWORD PTR _this$[ebp]
  0002d	83 c4 04	 add	 esp, 4
  00030	3b ec		 cmp	 ebp, esp
  00032	e8 00 00 00 00	 call	 __RTC_CheckEsp
  00037	8b e5		 mov	 esp, ebp
  00039	5d		 pop	 ebp
  0003a	c2 04 00	 ret	 4
??_Glength_error@std@@UAEPAXI@Z ENDP			; std::length_error::`scalar deleting destructor'
_TEXT	ENDS
PUBLIC	??_R4out_of_range@std@@6B@			; std::out_of_range::`RTTI Complete Object Locator'
PUBLIC	??_R3out_of_range@std@@8			; std::out_of_range::`RTTI Class Hierarchy Descriptor'
PUBLIC	??_R2out_of_range@std@@8			; std::out_of_range::`RTTI Base Class Array'
PUBLIC	??_R1A@?0A@A@out_of_range@std@@8		; std::out_of_range::`RTTI Base Class Descriptor at (0,-1,0,0)'
PUBLIC	??_7out_of_range@std@@6B@			; std::out_of_range::`vftable'
PUBLIC	??_Gout_of_range@std@@UAEPAXI@Z			; std::out_of_range::`scalar deleting destructor'
EXTRN	??_Eout_of_range@std@@UAEPAXI@Z:NEAR		; std::out_of_range::`vector deleting destructor'
;	COMDAT ??_7out_of_range@std@@6B@
CONST	SEGMENT
??_7out_of_range@std@@6B@ DD FLAT:??_R4out_of_range@std@@6B@ ; std::out_of_range::`vftable'
	DD	FLAT:??_Eout_of_range@std@@UAEPAXI@Z
	DD	FLAT:?what@logic_error@std@@UBEPBDXZ
CONST	ENDS
;	COMDAT ??_R4out_of_range@std@@6B@
rdata$r	SEGMENT
??_R4out_of_range@std@@6B@ DD 00H			; std::out_of_range::`RTTI Complete Object Locator'
	DD	00H
	DD	00H
	DD	FLAT:??_R0?AVout_of_range@std@@@8
	DD	FLAT:??_R3out_of_range@std@@8
rdata$r	ENDS
;	COMDAT ??_R3out_of_range@std@@8
rdata$r	SEGMENT
??_R3out_of_range@std@@8 DD 00H				; std::out_of_range::`RTTI Class Hierarchy Descriptor'
	DD	00H
	DD	03H
	DD	FLAT:??_R2out_of_range@std@@8
rdata$r	ENDS
;	COMDAT ??_R2out_of_range@std@@8
rdata$r	SEGMENT
??_R2out_of_range@std@@8 DD FLAT:??_R1A@?0A@A@out_of_range@std@@8 ; std::out_of_range::`RTTI Base Class Array'
	DD	FLAT:??_R1A@?0A@A@logic_error@std@@8
	DD	FLAT:??_R1A@?0A@A@exception@@8
rdata$r	ENDS
;	COMDAT ??_R1A@?0A@A@out_of_range@std@@8
rdata$r	SEGMENT
??_R1A@?0A@A@out_of_range@std@@8 DD FLAT:??_R0?AVout_of_range@std@@@8 ; std::out_of_range::`RTTI Base Class Descriptor at (0,-1,0,0)'
	DD	02H
	DD	00H
	DD	0ffffffffH
	DD	00H
	DD	00H
; Function compile flags: /Odt /RTCsu
rdata$r	ENDS
;	COMDAT ??0out_of_range@std@@QAE@ABV?$basic_string@DU?$char_traits@D@std@@V?$allocator@D@2@@1@@Z
_TEXT	SEGMENT
_this$ = -4						; size = 4
__Message$ = 8						; size = 4
??0out_of_range@std@@QAE@ABV?$basic_string@DU?$char_traits@D@std@@V?$allocator@D@2@@1@@Z PROC NEAR ; std::out_of_range::out_of_range, COMDAT
; _this$ = ecx

; 118  : 		{	// construct from message string

  00000	55		 push	 ebp
  00001	8b ec		 mov	 ebp, esp
  00003	51		 push	 ecx
  00004	c7 45 fc cc cc
	cc cc		 mov	 DWORD PTR [ebp-4], -858993460 ; ccccccccH
  0000b	89 4d fc	 mov	 DWORD PTR _this$[ebp], ecx
  0000e	8b 45 08	 mov	 eax, DWORD PTR __Message$[ebp]
  00011	50		 push	 eax
  00012	8b 4d fc	 mov	 ecx, DWORD PTR _this$[ebp]
  00015	e8 00 00 00 00	 call	 ??0logic_error@std@@QAE@ABV?$basic_string@DU?$char_traits@D@std@@V?$allocator@D@2@@1@@Z ; std::logic_error::logic_error
  0001a	8b 4d fc	 mov	 ecx, DWORD PTR _this$[ebp]
  0001d	c7 01 00 00 00
	00		 mov	 DWORD PTR [ecx], OFFSET FLAT:??_7out_of_range@std@@6B@

; 119  : 		}

  00023	8b 45 fc	 mov	 eax, DWORD PTR _this$[ebp]
  00026	83 c4 04	 add	 esp, 4
  00029	3b ec		 cmp	 ebp, esp
  0002b	e8 00 00 00 00	 call	 __RTC_CheckEsp
  00030	8b e5		 mov	 esp, ebp
  00032	5d		 pop	 ebp
  00033	c2 04 00	 ret	 4
??0out_of_range@std@@QAE@ABV?$basic_string@DU?$char_traits@D@std@@V?$allocator@D@2@@1@@Z ENDP ; std::out_of_range::out_of_range
; Function compile flags: /Odt /RTCsu
_TEXT	ENDS
;	COMDAT ??1out_of_range@std@@UAE@XZ
_TEXT	SEGMENT
_this$ = -4						; size = 4
??1out_of_range@std@@UAE@XZ PROC NEAR			; std::out_of_range::~out_of_range, COMDAT
; _this$ = ecx

; 122  : 		{}	// destroy the object

  00000	55		 push	 ebp
  00001	8b ec		 mov	 ebp, esp
  00003	51		 push	 ecx
  00004	c7 45 fc cc cc
	cc cc		 mov	 DWORD PTR [ebp-4], -858993460 ; ccccccccH
  0000b	89 4d fc	 mov	 DWORD PTR _this$[ebp], ecx
  0000e	8b 45 fc	 mov	 eax, DWORD PTR _this$[ebp]
  00011	c7 00 00 00 00
	00		 mov	 DWORD PTR [eax], OFFSET FLAT:??_7out_of_range@std@@6B@
  00017	8b 4d fc	 mov	 ecx, DWORD PTR _this$[ebp]
  0001a	e8 00 00 00 00	 call	 ??1logic_error@std@@UAE@XZ ; std::logic_error::~logic_error
  0001f	83 c4 04	 add	 esp, 4
  00022	3b ec		 cmp	 ebp, esp
  00024	e8 00 00 00 00	 call	 __RTC_CheckEsp
  00029	8b e5		 mov	 esp, ebp
  0002b	5d		 pop	 ebp
  0002c	c3		 ret	 0
??1out_of_range@std@@UAE@XZ ENDP			; std::out_of_range::~out_of_range
; Function compile flags: /Odt /RTCsu
_TEXT	ENDS
;	COMDAT ??_Gout_of_range@std@@UAEPAXI@Z
_TEXT	SEGMENT
_this$ = -4						; size = 4
___flags$ = 8						; size = 4
??_Gout_of_range@std@@UAEPAXI@Z PROC NEAR		; std::out_of_range::`scalar deleting destructor', COMDAT
; _this$ = ecx
  00000	55		 push	 ebp
  00001	8b ec		 mov	 ebp, esp
  00003	51		 push	 ecx
  00004	c7 45 fc cc cc
	cc cc		 mov	 DWORD PTR [ebp-4], -858993460 ; ccccccccH
  0000b	89 4d fc	 mov	 DWORD PTR _this$[ebp], ecx
  0000e	8b 4d fc	 mov	 ecx, DWORD PTR _this$[ebp]
  00011	e8 00 00 00 00	 call	 ??1out_of_range@std@@UAE@XZ ; std::out_of_range::~out_of_range
  00016	8b 45 08	 mov	 eax, DWORD PTR ___flags$[ebp]
  00019	83 e0 01	 and	 eax, 1
  0001c	74 0c		 je	 SHORT $L91735
  0001e	8b 4d fc	 mov	 ecx, DWORD PTR _this$[ebp]
  00021	51		 push	 ecx
  00022	e8 00 00 00 00	 call	 ??3@YAXPAX@Z		; operator delete
  00027	83 c4 04	 add	 esp, 4
$L91735:
  0002a	8b 45 fc	 mov	 eax, DWORD PTR _this$[ebp]
  0002d	83 c4 04	 add	 esp, 4
  00030	3b ec		 cmp	 ebp, esp
  00032	e8 00 00 00 00	 call	 __RTC_CheckEsp
  00037	8b e5		 mov	 esp, ebp
  00039	5d		 pop	 ebp
  0003a	c2 04 00	 ret	 4
??_Gout_of_range@std@@UAEPAXI@Z ENDP			; std::out_of_range::`scalar deleting destructor'
; Function compile flags: /Odt /RTCsu
; File d:\boxgit\playbox\playbox\dev\prj\playbox\src\gui\commoncontrol\basicskinwnd.h
_TEXT	ENDS
;	COMDAT ??1CBasicSkinWnd@@UAE@XZ
_TEXT	SEGMENT
_this$ = -4						; size = 4
??1CBasicSkinWnd@@UAE@XZ PROC NEAR			; CBasicSkinWnd::~CBasicSkinWnd, COMDAT
; _this$ = ecx

; 7    : 	virtual ~CBasicSkinWnd(){};

  00000	55		 push	 ebp
  00001	8b ec		 mov	 ebp, esp
  00003	51		 push	 ecx
  00004	c7 45 fc cc cc
	cc cc		 mov	 DWORD PTR [ebp-4], -858993460 ; ccccccccH
  0000b	89 4d fc	 mov	 DWORD PTR _this$[ebp], ecx
  0000e	8b 45 fc	 mov	 eax, DWORD PTR _this$[ebp]
  00011	c7 00 00 00 00
	00		 mov	 DWORD PTR [eax], OFFSET FLAT:??_7CBasicSkinWnd@@6B@
  00017	8b e5		 mov	 esp, ebp
  00019	5d		 pop	 ebp
  0001a	c3		 ret	 0
??1CBasicSkinWnd@@UAE@XZ ENDP				; CBasicSkinWnd::~CBasicSkinWnd
; Function compile flags: /Odt /RTCsu
_TEXT	ENDS
;	COMDAT ??_GCBasicSkinWnd@@UAEPAXI@Z
_TEXT	SEGMENT
_this$ = -4						; size = 4
___flags$ = 8						; size = 4
??_GCBasicSkinWnd@@UAEPAXI@Z PROC NEAR			; CBasicSkinWnd::`scalar deleting destructor', COMDAT
; _this$ = ecx
  00000	55		 push	 ebp
  00001	8b ec		 mov	 ebp, esp
  00003	51		 push	 ecx
  00004	c7 45 fc cc cc
	cc cc		 mov	 DWORD PTR [ebp-4], -858993460 ; ccccccccH
  0000b	89 4d fc	 mov	 DWORD PTR _this$[ebp], ecx
  0000e	8b 4d fc	 mov	 ecx, DWORD PTR _this$[ebp]
  00011	e8 00 00 00 00	 call	 ??1CBasicSkinWnd@@UAE@XZ ; CBasicSkinWnd::~CBasicSkinWnd
  00016	8b 45 08	 mov	 eax, DWORD PTR ___flags$[ebp]
  00019	83 e0 01	 and	 eax, 1
  0001c	74 0c		 je	 SHORT $L97847
  0001e	8b 4d fc	 mov	 ecx, DWORD PTR _this$[ebp]
  00021	51		 push	 ecx
  00022	e8 00 00 00 00	 call	 ??3@YAXPAX@Z		; operator delete
  00027	83 c4 04	 add	 esp, 4
$L97847:
  0002a	8b 45 fc	 mov	 eax, DWORD PTR _this$[ebp]
  0002d	83 c4 04	 add	 esp, 4
  00030	3b ec		 cmp	 ebp, esp
  00032	e8 00 00 00 00	 call	 __RTC_CheckEsp
  00037	8b e5		 mov	 esp, ebp
  00039	5d		 pop	 ebp
  0003a	c2 04 00	 ret	 4
??_GCBasicSkinWnd@@UAEPAXI@Z ENDP			; CBasicSkinWnd::`scalar deleting destructor'
; Function compile flags: /Odt /RTCsu
_TEXT	ENDS
;	COMDAT ??0out_of_range@std@@QAE@ABV01@@Z
_TEXT	SEGMENT
_this$ = -4						; size = 4
___that$ = 8						; size = 4
??0out_of_range@std@@QAE@ABV01@@Z PROC NEAR		; std::out_of_range::out_of_range, COMDAT
; _this$ = ecx
  00000	55		 push	 ebp
  00001	8b ec		 mov	 ebp, esp
  00003	51		 push	 ecx
  00004	c7 45 fc cc cc
	cc cc		 mov	 DWORD PTR [ebp-4], -858993460 ; ccccccccH
  0000b	89 4d fc	 mov	 DWORD PTR _this$[ebp], ecx
  0000e	8b 45 08	 mov	 eax, DWORD PTR ___that$[ebp]
  00011	50		 push	 eax
  00012	8b 4d fc	 mov	 ecx, DWORD PTR _this$[ebp]
  00015	e8 00 00 00 00	 call	 ??0logic_error@std@@QAE@ABV01@@Z
  0001a	8b 4d fc	 mov	 ecx, DWORD PTR _this$[ebp]
  0001d	c7 01 00 00 00
	00		 mov	 DWORD PTR [ecx], OFFSET FLAT:??_7out_of_range@std@@6B@
  00023	8b 45 fc	 mov	 eax, DWORD PTR _this$[ebp]
  00026	83 c4 04	 add	 esp, 4
  00029	3b ec		 cmp	 ebp, esp
  0002b	e8 00 00 00 00	 call	 __RTC_CheckEsp
  00030	8b e5		 mov	 esp, ebp
  00032	5d		 pop	 ebp
  00033	c2 04 00	 ret	 4
??0out_of_range@std@@QAE@ABV01@@Z ENDP			; std::out_of_range::out_of_range
_TEXT	ENDS
EXTRN	__imp_??0exception@@QAE@ABV0@@Z:NEAR
;	COMDAT xdata$x
xdata$x	SEGMENT
$T192349 DD	0ffffffffH
	DD	FLAT:$L192344
$T192347 DD	019930520H
	DD	01H
	DD	FLAT:$T192349
	DD	2 DUP(00H)
	DD	2 DUP(00H)
; Function compile flags: /Odt /RTCsu
xdata$x	ENDS
;	COMDAT ??0logic_error@std@@QAE@ABV01@@Z
_TEXT	SEGMENT
_this$ = -16						; size = 4
__$EHRec$ = -12						; size = 12
___that$ = 8						; size = 4
??0logic_error@std@@QAE@ABV01@@Z PROC NEAR		; std::logic_error::logic_error, COMDAT
; _this$ = ecx
  00000	55		 push	 ebp
  00001	8b ec		 mov	 ebp, esp
  00003	6a ff		 push	 -1
  00005	68 00 00 00 00	 push	 __ehhandler$??0logic_error@std@@QAE@ABV01@@Z
  0000a	64 a1 00 00 00
	00		 mov	 eax, DWORD PTR fs:__except_list
  00010	50		 push	 eax
  00011	64 89 25 00 00
	00 00		 mov	 DWORD PTR fs:__except_list, esp
  00018	51		 push	 ecx
  00019	56		 push	 esi
  0001a	c7 45 f0 cc cc
	cc cc		 mov	 DWORD PTR [ebp-16], -858993460 ; ccccccccH
  00021	89 4d f0	 mov	 DWORD PTR _this$[ebp], ecx
  00024	8b f4		 mov	 esi, esp
  00026	8b 45 08	 mov	 eax, DWORD PTR ___that$[ebp]
  00029	50		 push	 eax
  0002a	8b 4d f0	 mov	 ecx, DWORD PTR _this$[ebp]
  0002d	ff 15 00 00 00
	00		 call	 DWORD PTR __imp_??0exception@@QAE@ABV0@@Z
  00033	3b f4		 cmp	 esi, esp
  00035	e8 00 00 00 00	 call	 __RTC_CheckEsp
  0003a	c7 45 fc 00 00
	00 00		 mov	 DWORD PTR __$EHRec$[ebp+8], 0
  00041	8b 4d f0	 mov	 ecx, DWORD PTR _this$[ebp]
  00044	c7 01 00 00 00
	00		 mov	 DWORD PTR [ecx], OFFSET FLAT:??_7logic_error@std@@6B@
  0004a	8b 55 08	 mov	 edx, DWORD PTR ___that$[ebp]
  0004d	83 c2 0c	 add	 edx, 12			; 0000000cH
  00050	8b f4		 mov	 esi, esp
  00052	52		 push	 edx
  00053	8b 4d f0	 mov	 ecx, DWORD PTR _this$[ebp]
  00056	83 c1 0c	 add	 ecx, 12			; 0000000cH
  00059	ff 15 00 00 00
	00		 call	 DWORD PTR __imp_??0?$basic_string@DU?$char_traits@D@std@@V?$allocator@D@2@@std@@QAE@ABV01@@Z
  0005f	3b f4		 cmp	 esi, esp
  00061	e8 00 00 00 00	 call	 __RTC_CheckEsp
  00066	c7 45 fc ff ff
	ff ff		 mov	 DWORD PTR __$EHRec$[ebp+8], -1
  0006d	8b 45 f0	 mov	 eax, DWORD PTR _this$[ebp]
  00070	8b 4d f4	 mov	 ecx, DWORD PTR __$EHRec$[ebp]
  00073	64 89 0d 00 00
	00 00		 mov	 DWORD PTR fs:__except_list, ecx
  0007a	5e		 pop	 esi
  0007b	83 c4 10	 add	 esp, 16			; 00000010H
  0007e	3b ec		 cmp	 ebp, esp
  00080	e8 00 00 00 00	 call	 __RTC_CheckEsp
  00085	8b e5		 mov	 esp, ebp
  00087	5d		 pop	 ebp
  00088	c2 04 00	 ret	 4
_TEXT	ENDS
;	COMDAT text$x
text$x	SEGMENT
$L192344:
  00000	8b f4		 mov	 esi, esp
  00002	8b 4d f0	 mov	 ecx, DWORD PTR _this$[ebp]
  00005	ff 15 00 00 00
	00		 call	 DWORD PTR __imp_??1exception@@UAE@XZ
  0000b	3b f4		 cmp	 esi, esp
  0000d	e9 00 00 00 00	 jmp	 __RTC_CheckEsp
__ehhandler$??0logic_error@std@@QAE@ABV01@@Z:
  00012	b8 00 00 00 00	 mov	 eax, OFFSET FLAT:$T192347
  00017	e9 00 00 00 00	 jmp	 ___CxxFrameHandler
text$x	ENDS
??0logic_error@std@@QAE@ABV01@@Z ENDP			; std::logic_error::logic_error
; Function compile flags: /Odt /RTCsu
; File d:\program files (x86)\microsoft visual studio .net 2003\vc7\include\utility
;	COMDAT ??$swap@D@std@@YAXAAD0@Z
_TEXT	SEGMENT
__Tmp$ = -1						; size = 1
__Left$ = 8						; size = 4
__Right$ = 12						; size = 4
??$swap@D@std@@YAXAAD0@Z PROC NEAR			; std::swap<char>, COMDAT

; 14   : 	{	// exchange values stored at _Left and _Right

  00000	55		 push	 ebp
  00001	8b ec		 mov	 ebp, esp
  00003	51		 push	 ecx
  00004	c7 45 fc cc cc
	cc cc		 mov	 DWORD PTR [ebp-4], -858993460 ; ccccccccH

; 15   : 	_Ty _Tmp = _Left;

  0000b	8b 45 08	 mov	 eax, DWORD PTR __Left$[ebp]
  0000e	8a 08		 mov	 cl, BYTE PTR [eax]
  00010	88 4d ff	 mov	 BYTE PTR __Tmp$[ebp], cl

; 16   : 	_Left = _Right, _Right = _Tmp;

  00013	8b 55 08	 mov	 edx, DWORD PTR __Left$[ebp]
  00016	8b 45 0c	 mov	 eax, DWORD PTR __Right$[ebp]
  00019	8a 08		 mov	 cl, BYTE PTR [eax]
  0001b	88 0a		 mov	 BYTE PTR [edx], cl
  0001d	8b 55 0c	 mov	 edx, DWORD PTR __Right$[ebp]
  00020	8a 45 ff	 mov	 al, BYTE PTR __Tmp$[ebp]
  00023	88 02		 mov	 BYTE PTR [edx], al

; 17   : 	}

  00025	8b e5		 mov	 esp, ebp
  00027	5d		 pop	 ebp
  00028	c3		 ret	 0
??$swap@D@std@@YAXAAD0@Z ENDP				; std::swap<char>
_TEXT	ENDS
END
