; Listing generated by Microsoft (R) Optimizing Compiler Version 13.10.3077 

	TITLE	.\src\module\WebInteract\MyWebBrowserWnd.cpp
	.386P
include listing.inc
if @Version gt 510
.model FLAT
else
_TEXT	SEGMENT PARA USE32 PUBLIC 'CODE'
_TEXT	ENDS
_DATA	SEGMENT DWORD USE32 PUBLIC 'DATA'
_DATA	ENDS
CONST	SEGMENT DWORD USE32 PUBLIC 'CONST'
CONST	ENDS
_BSS	SEGMENT DWORD USE32 PUBLIC 'BSS'
_BSS	ENDS
$$SYMBOLS	SEGMENT BYTE USE32 'DEBSYM'
$$SYMBOLS	ENDS
_TLS	SEGMENT DWORD USE32 PUBLIC 'TLS'
_TLS	ENDS
;	COMDAT ??_C@_0P@CLMBAKJD@JSCall?5Error?3?6?$AA@
CONST	SEGMENT DWORD USE32 PUBLIC 'CONST'
CONST	ENDS
;	COMDAT ??_C@_08OLHMJGAF@stop?4swf?$AA@
CONST	SEGMENT DWORD USE32 PUBLIC 'CONST'
CONST	ENDS
;	COMDAT ??_C@_0M@DBEKFKCI@loading?4swf?$AA@
CONST	SEGMENT DWORD USE32 PUBLIC 'CONST'
CONST	ENDS
;	COMDAT ??_C@_0BH@PCLJNBEP@?2Resources?2StandardUI?2?$AA@
CONST	SEGMENT DWORD USE32 PUBLIC 'CONST'
CONST	ENDS
;	COMDAT ??_C@_04JAADICNI@?5?$DN?1?$FL?$AA@
CONST	SEGMENT DWORD USE32 PUBLIC 'CONST'
CONST	ENDS
;	COMDAT ??_C@_0L@GJIJNDEK@ISO?98859?91?$AA@
CONST	SEGMENT DWORD USE32 PUBLIC 'CONST'
CONST	ENDS
;	COMDAT ??_C@_01JLIPDDHJ@?3?$AA@
CONST	SEGMENT DWORD USE32 PUBLIC 'CONST'
CONST	ENDS
;	COMDAT ??_C@_0P@MDHCGOCC@m_pMemMgr?5?$DN?$DN?50?$AA@
CONST	SEGMENT DWORD USE32 PUBLIC 'CONST'
CONST	ENDS
;	COMDAT ??_C@_0FF@PEBLHPJJ@D?3?2Program?5Files?5?$CIx86?$CJ?2Microsoft@
CONST	SEGMENT DWORD USE32 PUBLIC 'CONST'
CONST	ENDS
;	COMDAT ??_C@_0BK@KICONMKH@pData?9?$DOpStringMgr?5?$DN?$DN?5this?$AA@
CONST	SEGMENT DWORD USE32 PUBLIC 'CONST'
CONST	ENDS
;	COMDAT ??_C@_0CG@HPMMCKHL@?$CI?$CIWORD?$CJ?$CI?$CIDWORD_PTR?$CJ?$CIpsz?$CJ?5?$DO?$DO?516?$CJ?$CJ@
CONST	SEGMENT DWORD USE32 PUBLIC 'CONST'
CONST	ENDS
;	COMDAT ??_C@_0EN@IBFBLEEG@D?3?2Program?5Files?5?$CIx86?$CJ?2Microsoft@
CONST	SEGMENT DWORD USE32 PUBLIC 'CONST'
CONST	ENDS
;	COMDAT ??_C@_0BI@GIMJKKKN@AtlIsValidString?$CI?5psz?5?$CJ?$AA@
CONST	SEGMENT DWORD USE32 PUBLIC 'CONST'
CONST	ENDS
;	COMDAT ??_C@_0FH@BMBEKJNI@D?3?2Program?5Files?5?$CIx86?$CJ?2Microsoft@
CONST	SEGMENT DWORD USE32 PUBLIC 'CONST'
CONST	ENDS
rdata$r	SEGMENT DWORD USE32 PUBLIC 'CONST'
rdata$r	ENDS
xdata$x	SEGMENT DWORD USE32 PUBLIC 'CONST'
xdata$x	ENDS
text$AFX_COL1	SEGMENT PARA USE32 PUBLIC ''
text$AFX_COL1	ENDS
text$yc	SEGMENT PARA USE32 PUBLIC 'CODE'
text$yc	ENDS
CRT$XCA	SEGMENT DWORD USE32 PUBLIC 'DATA'
CRT$XCA	ENDS
CRT$XCU	SEGMENT DWORD USE32 PUBLIC 'DATA'
CRT$XCU	ENDS
CRT$XCL	SEGMENT DWORD USE32 PUBLIC 'DATA'
CRT$XCL	ENDS
CRT$XCC	SEGMENT DWORD USE32 PUBLIC 'DATA'
CRT$XCC	ENDS
CRT$XCZ	SEGMENT DWORD USE32 PUBLIC 'DATA'
CRT$XCZ	ENDS
text$yd	SEGMENT PARA USE32 PUBLIC 'CODE'
text$yd	ENDS
ATL$__m	SEGMENT DWORD USE32 PUBLIC ''
ATL$__m	ENDS
ATL$__z	SEGMENT DWORD USE32 PUBLIC ''
ATL$__z	ENDS
ATL$__a	SEGMENT DWORD USE32 PUBLIC ''
ATL$__a	ENDS
;	COMDAT ?IWebRefreshOb_Refresh@IWebRefreshObserver@@UAEXPBD@Z
_TEXT	SEGMENT PARA USE32 PUBLIC 'CODE'
_TEXT	ENDS
;	COMDAT ?GetClsid@CShockwaveFlash@@QAEABU_GUID@@XZ
_TEXT	SEGMENT PARA USE32 PUBLIC 'CODE'
_TEXT	ENDS
;	COMDAT ??0CCustomControlSite@@QAE@PAVCOleControlContainer@@@Z
_TEXT	SEGMENT PARA USE32 PUBLIC 'CODE'
_TEXT	ENDS
;	COMDAT ??_GCCustomControlSite@@UAEPAXI@Z
_TEXT	SEGMENT PARA USE32 PUBLIC 'CODE'
_TEXT	ENDS
;	COMDAT ??0XDocHostShowUI@CCustomControlSite@@QAE@XZ
_TEXT	SEGMENT PARA USE32 PUBLIC 'CODE'
_TEXT	ENDS
;	COMDAT ??0XDocHostUIHandler@CCustomControlSite@@QAE@XZ
_TEXT	SEGMENT PARA USE32 PUBLIC 'CODE'
_TEXT	ENDS
;	COMDAT ??1CCustomControlSite@@UAE@XZ
_TEXT	SEGMENT PARA USE32 PUBLIC 'CODE'
_TEXT	ENDS
;	COMDAT ??0IDocHostShowUI@@QAE@XZ
_TEXT	SEGMENT PARA USE32 PUBLIC 'CODE'
_TEXT	ENDS
;	COMDAT ??0IDocHostUIHandler@@QAE@XZ
_TEXT	SEGMENT PARA USE32 PUBLIC 'CODE'
_TEXT	ENDS
;	COMDAT ??0CCustomOccManager@@QAE@XZ
_TEXT	SEGMENT PARA USE32 PUBLIC 'CODE'
_TEXT	ENDS
;	COMDAT ?CreateSite@CCustomOccManager@@UAEPAVCOleControlSite@@PAVCOleControlContainer@@@Z
_TEXT	SEGMENT PARA USE32 PUBLIC 'CODE'
_TEXT	ENDS
;	COMDAT ??_GCCustomOccManager@@UAEPAXI@Z
_TEXT	SEGMENT PARA USE32 PUBLIC 'CODE'
_TEXT	ENDS
;	COMDAT ??0COccManager@@QAE@XZ
_TEXT	SEGMENT PARA USE32 PUBLIC 'CODE'
_TEXT	ENDS
;	COMDAT ??1COccManager@@UAE@XZ
_TEXT	SEGMENT PARA USE32 PUBLIC 'CODE'
_TEXT	ENDS
;	COMDAT ??1CCustomOccManager@@UAE@XZ
_TEXT	SEGMENT PARA USE32 PUBLIC 'CODE'
_TEXT	ENDS
;	COMDAT ??_GCOccManager@@UAEPAXI@Z
_TEXT	SEGMENT PARA USE32 PUBLIC 'CODE'
_TEXT	ENDS
;	COMDAT ??0CNoTrackObject@@QAE@XZ
_TEXT	SEGMENT PARA USE32 PUBLIC 'CODE'
_TEXT	ENDS
;	COMDAT ?GetSwfPath@GlobalSwfPath@@SA?AV?$CStringT@DV?$StrTraitMFC_DLL@DV?$ChTraitsCRT@D@ATL@@@@@ATL@@XZ
_TEXT	SEGMENT PARA USE32 PUBLIC 'CODE'
_TEXT	ENDS
;	COMDAT ??0CMarkup@@QAE@XZ
_TEXT	SEGMENT PARA USE32 PUBLIC 'CODE'
_TEXT	ENDS
;	COMDAT ??1CMarkup@@UAE@XZ
_TEXT	SEGMENT PARA USE32 PUBLIC 'CODE'
_TEXT	ENDS
;	COMDAT ?AddElem@CMarkup@@QAE_NPBD0@Z
_TEXT	SEGMENT PARA USE32 PUBLIC 'CODE'
_TEXT	ENDS
;	COMDAT ?AddChildElem@CMarkup@@QAE_NPBD0@Z
_TEXT	SEGMENT PARA USE32 PUBLIC 'CODE'
_TEXT	ENDS
;	COMDAT ??0ElemPos@CMarkup@@QAE@XZ
_TEXT	SEGMENT PARA USE32 PUBLIC 'CODE'
_TEXT	ENDS
;	COMDAT ?Clear@ElemPos@CMarkup@@QAEXXZ
_TEXT	SEGMENT PARA USE32 PUBLIC 'CODE'
_TEXT	ENDS
;	COMDAT ?Clear@TokenPos@CMarkup@@QAEXXZ
_TEXT	SEGMENT PARA USE32 PUBLIC 'CODE'
_TEXT	ENDS
;	COMDAT ?x_SetPos@CMarkup@@IAEXHHH@Z
_TEXT	SEGMENT PARA USE32 PUBLIC 'CODE'
_TEXT	ENDS
;	COMDAT ??_GCMarkup@@UAEPAXI@Z
_TEXT	SEGMENT PARA USE32 PUBLIC 'CODE'
_TEXT	ENDS
;	COMDAT ?AddElem@CMarkupArchive@@UAE_NPBD0@Z
_TEXT	SEGMENT PARA USE32 PUBLIC 'CODE'
_TEXT	ENDS
;	COMDAT ?AddChildElem@CMarkupArchive@@UAE_NPBD0@Z
_TEXT	SEGMENT PARA USE32 PUBLIC 'CODE'
_TEXT	ENDS
;	COMDAT ?FindElem@CMarkupArchive@@UAE_NPBD@Z
_TEXT	SEGMENT PARA USE32 PUBLIC 'CODE'
_TEXT	ENDS
;	COMDAT ?FindChildElem@CMarkupArchive@@UAE_NPBD@Z
_TEXT	SEGMENT PARA USE32 PUBLIC 'CODE'
_TEXT	ENDS
;	COMDAT ??_GCMarkupArchive@@UAEPAXI@Z
_TEXT	SEGMENT PARA USE32 PUBLIC 'CODE'
_TEXT	ENDS
;	COMDAT ??1DIBINFO@@UAE@XZ
_TEXT	SEGMENT PARA USE32 PUBLIC 'CODE'
_TEXT	ENDS
;	COMDAT ??_GDIBINFO@@UAEPAXI@Z
_TEXT	SEGMENT PARA USE32 PUBLIC 'CODE'
_TEXT	ENDS
;	COMDAT ??1CGdiPlusBitmap@@UAE@XZ
_TEXT	SEGMENT PARA USE32 PUBLIC 'CODE'
_TEXT	ENDS
;	COMDAT ?Empty@CGdiPlusBitmap@@QAEXXZ
_TEXT	SEGMENT PARA USE32 PUBLIC 'CODE'
_TEXT	ENDS
;	COMDAT ?Load@CGdiPlusBitmap@@QAE_NPB_W@Z
_TEXT	SEGMENT PARA USE32 PUBLIC 'CODE'
_TEXT	ENDS
;	COMDAT ??_GCGdiPlusBitmap@@UAEPAXI@Z
_TEXT	SEGMENT PARA USE32 PUBLIC 'CODE'
_TEXT	ENDS
;	COMDAT ??1IData@@MAE@XZ
_TEXT	SEGMENT PARA USE32 PUBLIC 'CODE'
_TEXT	ENDS
;	COMDAT ?DataAppStart@IData@@UAEXXZ
_TEXT	SEGMENT PARA USE32 PUBLIC 'CODE'
_TEXT	ENDS
;	COMDAT ?DataAppExit@IData@@UAEXXZ
_TEXT	SEGMENT PARA USE32 PUBLIC 'CODE'
_TEXT	ENDS
;	COMDAT ??_GIData@@MAEPAXI@Z
_TEXT	SEGMENT PARA USE32 PUBLIC 'CODE'
_TEXT	ENDS
;	COMDAT ??1CGdiPlusBitmap@CSkinButton@@UAE@XZ
_TEXT	SEGMENT PARA USE32 PUBLIC 'CODE'
_TEXT	ENDS
;	COMDAT ?Empty@CGdiPlusBitmap@CSkinButton@@QAEXXZ
_TEXT	SEGMENT PARA USE32 PUBLIC 'CODE'
_TEXT	ENDS
;	COMDAT ?Load@CGdiPlusBitmap@CSkinButton@@QAE_NPB_W@Z
_TEXT	SEGMENT PARA USE32 PUBLIC 'CODE'
_TEXT	ENDS
;	COMDAT ??_GCGdiPlusBitmap@CSkinButton@@UAEPAXI@Z
_TEXT	SEGMENT PARA USE32 PUBLIC 'CODE'
_TEXT	ENDS
;	COMDAT ??1HTTPObserver@@UAE@XZ
_TEXT	SEGMENT PARA USE32 PUBLIC 'CODE'
_TEXT	ENDS
;	COMDAT ?HTTPOb_DownStart@HTTPObserver@@UAEXPBD0I@Z
_TEXT	SEGMENT PARA USE32 PUBLIC 'CODE'
_TEXT	ENDS
;	COMDAT ?HTTPOb_DownFinish@HTTPObserver@@UAEXPBD@Z
_TEXT	SEGMENT PARA USE32 PUBLIC 'CODE'
_TEXT	ENDS
;	COMDAT ?HTTPOb_DownFailed@HTTPObserver@@UAEXPBDW4HTTP_DOWN_FAILED_REASON@@@Z
_TEXT	SEGMENT PARA USE32 PUBLIC 'CODE'
_TEXT	ENDS
;	COMDAT ?HTTPOb_DownProgress@HTTPObserver@@UAEXPBDII@Z
_TEXT	SEGMENT PARA USE32 PUBLIC 'CODE'
_TEXT	ENDS
;	COMDAT ?HTTPOb_DownloadPause@HTTPObserver@@UAEXPBD@Z
_TEXT	SEGMENT PARA USE32 PUBLIC 'CODE'
_TEXT	ENDS
;	COMDAT ??_GHTTPObserver@@UAEPAXI@Z
_TEXT	SEGMENT PARA USE32 PUBLIC 'CODE'
_TEXT	ENDS
;	COMDAT ??1P2PObserver@@UAE@XZ
_TEXT	SEGMENT PARA USE32 PUBLIC 'CODE'
_TEXT	ENDS
;	COMDAT ?P2POb_DownStart@P2PObserver@@UAEXABV?$basic_string@DU?$char_traits@D@std@@V?$allocator@D@2@@std@@PBDI@Z
_TEXT	SEGMENT PARA USE32 PUBLIC 'CODE'
_TEXT	ENDS
;	COMDAT ?P2POb_DownFinish@P2PObserver@@UAEXABV?$basic_string@DU?$char_traits@D@std@@V?$allocator@D@2@@std@@@Z
_TEXT	SEGMENT PARA USE32 PUBLIC 'CODE'
_TEXT	ENDS
;	COMDAT ?P2POb_DownFailed@P2PObserver@@UAEXABV?$basic_string@DU?$char_traits@D@std@@V?$allocator@D@2@@std@@W4P2P_DOWN_FAILED_REASON@@@Z
_TEXT	SEGMENT PARA USE32 PUBLIC 'CODE'
_TEXT	ENDS
;	COMDAT ?P2POb_DownProgress@P2PObserver@@UAEXABV?$basic_string@DU?$char_traits@D@std@@V?$allocator@D@2@@std@@III@Z
_TEXT	SEGMENT PARA USE32 PUBLIC 'CODE'
_TEXT	ENDS
;	COMDAT ?P2POb_DownPause@P2PObserver@@UAEXABV?$basic_string@DU?$char_traits@D@std@@V?$allocator@D@2@@std@@@Z
_TEXT	SEGMENT PARA USE32 PUBLIC 'CODE'
_TEXT	ENDS
;	COMDAT ?P2POb_SigChange@P2PObserver@@UAEXABV?$basic_string@DU?$char_traits@D@std@@V?$allocator@D@2@@std@@0PBD@Z
_TEXT	SEGMENT PARA USE32 PUBLIC 'CODE'
_TEXT	ENDS
;	COMDAT ??_GP2PObserver@@UAEPAXI@Z
_TEXT	SEGMENT PARA USE32 PUBLIC 'CODE'
_TEXT	ENDS
;	COMDAT _$E5
text$yc	SEGMENT PARA USE32 PUBLIC 'CODE'
text$yc	ENDS
;	COMDAT _$E7
text$yc	SEGMENT PARA USE32 PUBLIC 'CODE'
text$yc	ENDS
;	COMDAT ??1CAtlStringMgr@ATL@@UAE@XZ
_TEXT	SEGMENT PARA USE32 PUBLIC 'CODE'
_TEXT	ENDS
;	COMDAT ?Allocate@CAtlStringMgr@ATL@@UAEPAUCStringData@2@HH@Z
_TEXT	SEGMENT PARA USE32 PUBLIC 'CODE'
_TEXT	ENDS
;	COMDAT ?Free@CAtlStringMgr@ATL@@UAEXPAUCStringData@2@@Z
_TEXT	SEGMENT PARA USE32 PUBLIC 'CODE'
_TEXT	ENDS
;	COMDAT ?Reallocate@CAtlStringMgr@ATL@@UAEPAUCStringData@2@PAU32@HH@Z
_TEXT	SEGMENT PARA USE32 PUBLIC 'CODE'
_TEXT	ENDS
;	COMDAT ?GetNilString@CAtlStringMgr@ATL@@UAEPAUCStringData@2@XZ
_TEXT	SEGMENT PARA USE32 PUBLIC 'CODE'
_TEXT	ENDS
;	COMDAT ?Clone@CAtlStringMgr@ATL@@UAEPAUIAtlStringMgr@2@XZ
_TEXT	SEGMENT PARA USE32 PUBLIC 'CODE'
_TEXT	ENDS
;	COMDAT ??_GCAtlStringMgr@ATL@@UAEPAXI@Z
_TEXT	SEGMENT PARA USE32 PUBLIC 'CODE'
_TEXT	ENDS
;	COMDAT ?CompareStringW@?$ChTraitsOS@_W@ATL@@KGHKKPB_WH0H@Z
_TEXT	SEGMENT PARA USE32 PUBLIC 'CODE'
_TEXT	ENDS
;	COMDAT ?GetStringTypeExW@?$ChTraitsOS@_W@ATL@@KGHKKPB_WHPAG@Z
_TEXT	SEGMENT PARA USE32 PUBLIC 'CODE'
_TEXT	ENDS
;	COMDAT ?lstrcmpiW@?$ChTraitsOS@_W@ATL@@KGHPB_W0@Z
_TEXT	SEGMENT PARA USE32 PUBLIC 'CODE'
_TEXT	ENDS
;	COMDAT ?CharLowerW@?$ChTraitsOS@_W@ATL@@KGPA_WPA_W@Z
_TEXT	SEGMENT PARA USE32 PUBLIC 'CODE'
_TEXT	ENDS
;	COMDAT ?CharUpperW@?$ChTraitsOS@_W@ATL@@KGPA_WPA_W@Z
_TEXT	SEGMENT PARA USE32 PUBLIC 'CODE'
_TEXT	ENDS
;	COMDAT ?strchr@?$ChTraitsOS@_W@ATL@@SAPB_WPB_W_W@Z
_TEXT	SEGMENT PARA USE32 PUBLIC 'CODE'
_TEXT	ENDS
;	COMDAT ?strrchr@?$ChTraitsOS@_W@ATL@@SAPB_WPB_W_W@Z
_TEXT	SEGMENT PARA USE32 PUBLIC 'CODE'
_TEXT	ENDS
;	COMDAT ?_strrev@?$ChTraitsOS@_W@ATL@@SAPA_WPA_W@Z
_TEXT	SEGMENT PARA USE32 PUBLIC 'CODE'
_TEXT	ENDS
;	COMDAT ?strstr@?$ChTraitsOS@_W@ATL@@SAPB_WPB_W0@Z
_TEXT	SEGMENT PARA USE32 PUBLIC 'CODE'
_TEXT	ENDS
;	COMDAT ?strspn@?$ChTraitsOS@_W@ATL@@SAHPB_W0@Z
_TEXT	SEGMENT PARA USE32 PUBLIC 'CODE'
_TEXT	ENDS
;	COMDAT ?strcspn@?$ChTraitsOS@_W@ATL@@SAHPB_W0@Z
_TEXT	SEGMENT PARA USE32 PUBLIC 'CODE'
_TEXT	ENDS
;	COMDAT ?strpbrk@?$ChTraitsOS@_W@ATL@@SAPB_WPB_W0@Z
_TEXT	SEGMENT PARA USE32 PUBLIC 'CODE'
_TEXT	ENDS
;	COMDAT ?StringFindString@?$ChTraitsOS@_W@ATL@@SAPB_WPB_W0@Z
_TEXT	SEGMENT PARA USE32 PUBLIC 'CODE'
_TEXT	ENDS
;	COMDAT ??_GMyWebBrowserWnd@@UAEPAXI@Z
_TEXT	SEGMENT PARA USE32 PUBLIC 'CODE'
_TEXT	ENDS
;	COMDAT ??0IWebRefreshObserver@@QAE@XZ
_TEXT	SEGMENT PARA USE32 PUBLIC 'CODE'
_TEXT	ENDS
;	COMDAT ??1IWebRefreshObserver@@UAE@XZ
_TEXT	SEGMENT PARA USE32 PUBLIC 'CODE'
_TEXT	ENDS
;	COMDAT ??_GIWebRefreshObserver@@UAEPAXI@Z
_TEXT	SEGMENT PARA USE32 PUBLIC 'CODE'
_TEXT	ENDS
;	COMDAT ??0IMessageObserver@@QAE@XZ
_TEXT	SEGMENT PARA USE32 PUBLIC 'CODE'
_TEXT	ENDS
;	COMDAT ??HATL@@YA?AV?$CStringT@DV?$StrTraitMFC_DLL@DV?$ChTraitsCRT@D@ATL@@@@@0@ABV10@PBD@Z
_TEXT	SEGMENT PARA USE32 PUBLIC 'CODE'
_TEXT	ENDS
;	COMDAT ??HATL@@YA?AV?$CStringT@DV?$StrTraitMFC_DLL@DV?$ChTraitsCRT@D@ATL@@@@@0@PBDABV10@@Z
_TEXT	SEGMENT PARA USE32 PUBLIC 'CODE'
_TEXT	ENDS
;	COMDAT ??8ATL@@YA_NABV?$CStringT@DV?$StrTraitMFC_DLL@DV?$ChTraitsCRT@D@ATL@@@@@0@PBD@Z
_TEXT	SEGMENT PARA USE32 PUBLIC 'CODE'
_TEXT	ENDS
;	COMDAT ??8ATL@@YA_NPBDABV?$CStringT@DV?$StrTraitMFC_DLL@DV?$ChTraitsCRT@D@ATL@@@@@0@@Z
_TEXT	SEGMENT PARA USE32 PUBLIC 'CODE'
_TEXT	ENDS
;	COMDAT ??4?$CComPtr@UIWebBrowser2@@@ATL@@QAEPAUIWebBrowser2@@PAU2@@Z
_TEXT	SEGMENT PARA USE32 PUBLIC 'CODE'
_TEXT	ENDS
;	COMDAT ??I?$CComPtrBase@UIWebBrowser2@@@ATL@@QAEPAPAUIWebBrowser2@@XZ
_TEXT	SEGMENT PARA USE32 PUBLIC 'CODE'
_TEXT	ENDS
;	COMDAT ??B?$CComPtrBase@UITypeInfo2@@@ATL@@QBEPAUITypeInfo2@@XZ
_TEXT	SEGMENT PARA USE32 PUBLIC 'CODE'
_TEXT	ENDS
;	COMDAT ??B?$CComPtrBase@UIHTMLDocument2@@@ATL@@QBEPAUIHTMLDocument2@@XZ
_TEXT	SEGMENT PARA USE32 PUBLIC 'CODE'
_TEXT	ENDS
;	COMDAT ?equal@?$istreambuf_iterator@DU?$char_traits@D@std@@@std@@QBE_NABV12@@Z
_TEXT	SEGMENT PARA USE32 PUBLIC 'CODE'
_TEXT	ENDS
;	COMDAT ?equal@?$istreambuf_iterator@_WU?$char_traits@_W@std@@@std@@QBE_NABV12@@Z
_TEXT	SEGMENT PARA USE32 PUBLIC 'CODE'
_TEXT	ENDS
;	COMDAT ?StringCompare@?$ChTraitsCRT@D@ATL@@SAHPBD0@Z
_TEXT	SEGMENT PARA USE32 PUBLIC 'CODE'
_TEXT	ENDS
;	COMDAT ?Unlock@?$CComCritSecLock@VCComCriticalSection@ATL@@@ATL@@QAEXXZ
_TEXT	SEGMENT PARA USE32 PUBLIC 'CODE'
_TEXT	ENDS
;	COMDAT ??0?$CArray@UElemPos@CMarkup@@AAU12@@@QAE@XZ
_TEXT	SEGMENT PARA USE32 PUBLIC 'CODE'
_TEXT	ENDS
;	COMDAT ??A?$CArray@UElemPos@CMarkup@@AAU12@@@QAEAAUElemPos@CMarkup@@H@Z
_TEXT	SEGMENT PARA USE32 PUBLIC 'CODE'
_TEXT	ENDS
;	COMDAT ??1?$CArray@UElemPos@CMarkup@@AAU12@@@UAE@XZ
_TEXT	SEGMENT PARA USE32 PUBLIC 'CODE'
_TEXT	ENDS
;	COMDAT ?Serialize@?$CArray@UElemPos@CMarkup@@AAU12@@@UAEXAAVCArchive@@@Z
_TEXT	SEGMENT PARA USE32 PUBLIC 'CODE'
_TEXT	ENDS
;	COMDAT ?Dump@?$CArray@UElemPos@CMarkup@@AAU12@@@UBEXAAVCDumpContext@@@Z
_TEXT	SEGMENT PARA USE32 PUBLIC 'CODE'
_TEXT	ENDS
;	COMDAT ?AssertValid@?$CArray@UElemPos@CMarkup@@AAU12@@@UBEXXZ
_TEXT	SEGMENT PARA USE32 PUBLIC 'CODE'
_TEXT	ENDS
;	COMDAT ??$AtlAlignUp@H@ATL@@YGHHK@Z
_TEXT	SEGMENT PARA USE32 PUBLIC 'CODE'
_TEXT	ENDS
;	COMDAT ??$_Maklocstr@D@std@@YAPADPBDPADABU_Cvtvec@@@Z
_TEXT	SEGMENT PARA USE32 PUBLIC 'CODE'
_TEXT	ENDS
;	COMDAT ??_G?$CArray@UElemPos@CMarkup@@AAU12@@@UAEPAXI@Z
_TEXT	SEGMENT PARA USE32 PUBLIC 'CODE'
_TEXT	ENDS
;	COMDAT ?SetSize@?$CArray@UElemPos@CMarkup@@AAU12@@@QAEXHH@Z
_TEXT	SEGMENT PARA USE32 PUBLIC 'CODE'
_TEXT	ENDS
;	COMDAT ?ElementAt@?$CArray@UElemPos@CMarkup@@AAU12@@@QAEAAUElemPos@CMarkup@@H@Z
_TEXT	SEGMENT PARA USE32 PUBLIC 'CODE'
_TEXT	ENDS
;	COMDAT ??$SerializeElements@UElemPos@CMarkup@@@@YGXAAVCArchive@@PAUElemPos@CMarkup@@H@Z
_TEXT	SEGMENT PARA USE32 PUBLIC 'CODE'
_TEXT	ENDS
;	COMDAT ??$DumpElements@UElemPos@CMarkup@@@@YGXAAVCDumpContext@@PBUElemPos@CMarkup@@H@Z
_TEXT	SEGMENT PARA USE32 PUBLIC 'CODE'
_TEXT	ENDS
;	COMDAT ??_EMyWebBrowserWnd@@WPA@AEPAXI@Z
_TEXT	SEGMENT PARA USE32 PUBLIC 'CODE'
_TEXT	ENDS
;	COMDAT ??_R3CMarkup@@8
rdata$r	SEGMENT DWORD USE32 PUBLIC 'CONST'
rdata$r	ENDS
;	COMDAT ??_R3IDocHostShowUI@@8
rdata$r	SEGMENT DWORD USE32 PUBLIC 'CONST'
rdata$r	ENDS
;	COMDAT ??_R3COccManager@@8
rdata$r	SEGMENT DWORD USE32 PUBLIC 'CONST'
rdata$r	ENDS
;	COMDAT ??_R3CAtlStringMgr@ATL@@8
rdata$r	SEGMENT DWORD USE32 PUBLIC 'CONST'
rdata$r	ENDS
;	COMDAT ??_R3IDocHostUIHandler@@8
rdata$r	SEGMENT DWORD USE32 PUBLIC 'CONST'
rdata$r	ENDS
;	COMDAT ??_R3CMarkupArchive@@8
rdata$r	SEGMENT DWORD USE32 PUBLIC 'CONST'
rdata$r	ENDS
;	COMDAT ??_R3?$CArray@UElemPos@CMarkup@@AAU12@@@8
rdata$r	SEGMENT DWORD USE32 PUBLIC 'CONST'
rdata$r	ENDS
;	COMDAT ??_R3?$numpunct@_W@std@@8
rdata$r	SEGMENT DWORD USE32 PUBLIC 'CONST'
rdata$r	ENDS
;	COMDAT ??_R3?$numpunct@D@std@@8
rdata$r	SEGMENT DWORD USE32 PUBLIC 'CONST'
rdata$r	ENDS
;	COMDAT ??_R3XDocHostUIHandler@CCustomControlSite@@8
rdata$r	SEGMENT DWORD USE32 PUBLIC 'CONST'
rdata$r	ENDS
;	COMDAT ??_R3IData@@8
rdata$r	SEGMENT DWORD USE32 PUBLIC 'CONST'
rdata$r	ENDS
;	COMDAT ??_R3CGdiPlusBitmap@@8
rdata$r	SEGMENT DWORD USE32 PUBLIC 'CONST'
rdata$r	ENDS
;	COMDAT ??_R3XDocHostShowUI@CCustomControlSite@@8
rdata$r	SEGMENT DWORD USE32 PUBLIC 'CONST'
rdata$r	ENDS
;	COMDAT ??_R3CCustomControlSite@@8
rdata$r	SEGMENT DWORD USE32 PUBLIC 'CONST'
rdata$r	ENDS
;	COMDAT ??_R3CGdiPlusBitmap@CSkinButton@@8
rdata$r	SEGMENT DWORD USE32 PUBLIC 'CONST'
rdata$r	ENDS
;	COMDAT ??_R3P2PObserver@@8
rdata$r	SEGMENT DWORD USE32 PUBLIC 'CONST'
rdata$r	ENDS
;	COMDAT ??_R3IWebRefreshObserver@@8
rdata$r	SEGMENT DWORD USE32 PUBLIC 'CONST'
rdata$r	ENDS
;	COMDAT ??_R3CCustomOccManager@@8
rdata$r	SEGMENT DWORD USE32 PUBLIC 'CONST'
rdata$r	ENDS
;	COMDAT ??_R3DIBINFO@@8
rdata$r	SEGMENT DWORD USE32 PUBLIC 'CONST'
rdata$r	ENDS
;	COMDAT ??_R3HTTPObserver@@8
rdata$r	SEGMENT DWORD USE32 PUBLIC 'CONST'
rdata$r	ENDS
;	COMDAT ??_R3MyWebBrowserWnd@@8
rdata$r	SEGMENT DWORD USE32 PUBLIC 'CONST'
rdata$r	ENDS
;	COMDAT ??_R2CMarkup@@8
rdata$r	SEGMENT DWORD USE32 PUBLIC 'CONST'
rdata$r	ENDS
;	COMDAT ??_R2IDocHostShowUI@@8
rdata$r	SEGMENT DWORD USE32 PUBLIC 'CONST'
rdata$r	ENDS
;	COMDAT ??_R2COccManager@@8
rdata$r	SEGMENT DWORD USE32 PUBLIC 'CONST'
rdata$r	ENDS
;	COMDAT ??_R2CAtlStringMgr@ATL@@8
rdata$r	SEGMENT DWORD USE32 PUBLIC 'CONST'
rdata$r	ENDS
;	COMDAT ??_R2IDocHostUIHandler@@8
rdata$r	SEGMENT DWORD USE32 PUBLIC 'CONST'
rdata$r	ENDS
;	COMDAT ??_R2CMarkupArchive@@8
rdata$r	SEGMENT DWORD USE32 PUBLIC 'CONST'
rdata$r	ENDS
;	COMDAT ??_R2?$CArray@UElemPos@CMarkup@@AAU12@@@8
rdata$r	SEGMENT DWORD USE32 PUBLIC 'CONST'
rdata$r	ENDS
;	COMDAT ??_R2?$numpunct@_W@std@@8
rdata$r	SEGMENT DWORD USE32 PUBLIC 'CONST'
rdata$r	ENDS
;	COMDAT ??_R2?$numpunct@D@std@@8
rdata$r	SEGMENT DWORD USE32 PUBLIC 'CONST'
rdata$r	ENDS
;	COMDAT ??_R2XDocHostUIHandler@CCustomControlSite@@8
rdata$r	SEGMENT DWORD USE32 PUBLIC 'CONST'
rdata$r	ENDS
;	COMDAT ??_R2IData@@8
rdata$r	SEGMENT DWORD USE32 PUBLIC 'CONST'
rdata$r	ENDS
;	COMDAT ??_R2CGdiPlusBitmap@@8
rdata$r	SEGMENT DWORD USE32 PUBLIC 'CONST'
rdata$r	ENDS
;	COMDAT ??_R2XDocHostShowUI@CCustomControlSite@@8
rdata$r	SEGMENT DWORD USE32 PUBLIC 'CONST'
rdata$r	ENDS
;	COMDAT ??_R2CCustomControlSite@@8
rdata$r	SEGMENT DWORD USE32 PUBLIC 'CONST'
rdata$r	ENDS
;	COMDAT ??_R2CGdiPlusBitmap@CSkinButton@@8
rdata$r	SEGMENT DWORD USE32 PUBLIC 'CONST'
rdata$r	ENDS
;	COMDAT ??_R2P2PObserver@@8
rdata$r	SEGMENT DWORD USE32 PUBLIC 'CONST'
rdata$r	ENDS
;	COMDAT ??_R2IWebRefreshObserver@@8
rdata$r	SEGMENT DWORD USE32 PUBLIC 'CONST'
rdata$r	ENDS
;	COMDAT ??_R2CCustomOccManager@@8
rdata$r	SEGMENT DWORD USE32 PUBLIC 'CONST'
rdata$r	ENDS
;	COMDAT ??_R2DIBINFO@@8
rdata$r	SEGMENT DWORD USE32 PUBLIC 'CONST'
rdata$r	ENDS
;	COMDAT ??_R2HTTPObserver@@8
rdata$r	SEGMENT DWORD USE32 PUBLIC 'CONST'
rdata$r	ENDS
;	COMDAT ??_R2MyWebBrowserWnd@@8
rdata$r	SEGMENT DWORD USE32 PUBLIC 'CONST'
rdata$r	ENDS
;	COMDAT ??_R1A@?0A@A@IAtlStringMgr@ATL@@8
rdata$r	SEGMENT DWORD USE32 PUBLIC 'CONST'
rdata$r	ENDS
;	COMDAT ??_R0?AUIAtlStringMgr@ATL@@@8
_DATA	SEGMENT DWORD USE32 PUBLIC 'DATA'
_DATA	ENDS
;	COMDAT ??_R1A@?0A@A@CAtlStringMgr@ATL@@8
rdata$r	SEGMENT DWORD USE32 PUBLIC 'CONST'
rdata$r	ENDS
;	COMDAT ??_R1A@?0A@A@CMarkup@@8
rdata$r	SEGMENT DWORD USE32 PUBLIC 'CONST'
rdata$r	ENDS
;	COMDAT ??_R1A@?0A@A@CMarkupArchive@@8
rdata$r	SEGMENT DWORD USE32 PUBLIC 'CONST'
rdata$r	ENDS
;	COMDAT ??_R1A@?0A@A@?$CArray@UElemPos@CMarkup@@AAU12@@@8
rdata$r	SEGMENT DWORD USE32 PUBLIC 'CONST'
rdata$r	ENDS
;	COMDAT ??_R1A@?0A@A@?$numpunct@_W@std@@8
rdata$r	SEGMENT DWORD USE32 PUBLIC 'CONST'
rdata$r	ENDS
;	COMDAT ??_R1A@?0A@A@facet@locale@std@@8
rdata$r	SEGMENT DWORD USE32 PUBLIC 'CONST'
rdata$r	ENDS
;	COMDAT ??_R0?AVfacet@locale@std@@@8
_DATA	SEGMENT DWORD USE32 PUBLIC 'DATA'
_DATA	ENDS
;	COMDAT ??_R1A@?0A@A@?$numpunct@D@std@@8
rdata$r	SEGMENT DWORD USE32 PUBLIC 'CONST'
rdata$r	ENDS
;	COMDAT ??_R1A@?0A@A@IDocHostUIHandler@@8
rdata$r	SEGMENT DWORD USE32 PUBLIC 'CONST'
rdata$r	ENDS
;	COMDAT ??_R1A@?0A@A@XDocHostUIHandler@CCustomControlSite@@8
rdata$r	SEGMENT DWORD USE32 PUBLIC 'CONST'
rdata$r	ENDS
;	COMDAT ??_R1A@?0A@A@IData@@8
rdata$r	SEGMENT DWORD USE32 PUBLIC 'CONST'
rdata$r	ENDS
;	COMDAT ??_R1A@?0A@A@CGdiPlusBitmap@@8
rdata$r	SEGMENT DWORD USE32 PUBLIC 'CONST'
rdata$r	ENDS
;	COMDAT ??_R1A@?0A@A@IUnknown@@8
rdata$r	SEGMENT DWORD USE32 PUBLIC 'CONST'
rdata$r	ENDS
;	COMDAT ??_R0?AUIUnknown@@@8
_DATA	SEGMENT DWORD USE32 PUBLIC 'DATA'
_DATA	ENDS
;	COMDAT ??_R1A@?0A@A@IDocHostShowUI@@8
rdata$r	SEGMENT DWORD USE32 PUBLIC 'CONST'
rdata$r	ENDS
;	COMDAT ??_R1A@?0A@A@XDocHostShowUI@CCustomControlSite@@8
rdata$r	SEGMENT DWORD USE32 PUBLIC 'CONST'
rdata$r	ENDS
;	COMDAT ??_R1A@?0A@A@COleControlSite@@8
rdata$r	SEGMENT DWORD USE32 PUBLIC 'CONST'
rdata$r	ENDS
;	COMDAT ??_R1A@?0A@A@CCustomControlSite@@8
rdata$r	SEGMENT DWORD USE32 PUBLIC 'CONST'
rdata$r	ENDS
;	COMDAT ??_R1A@?0A@A@CGdiPlusBitmap@CSkinButton@@8
rdata$r	SEGMENT DWORD USE32 PUBLIC 'CONST'
rdata$r	ENDS
;	COMDAT ??_R1A@?0A@A@P2PObserver@@8
rdata$r	SEGMENT DWORD USE32 PUBLIC 'CONST'
rdata$r	ENDS
;	COMDAT ??_R1A@?0A@A@IMessageObserver@@8
rdata$r	SEGMENT DWORD USE32 PUBLIC 'CONST'
rdata$r	ENDS
;	COMDAT ??_R1A@?0A@A@IWebRefreshObserver@@8
rdata$r	SEGMENT DWORD USE32 PUBLIC 'CONST'
rdata$r	ENDS
;	COMDAT ??_R1A@?0A@A@CNoTrackObject@@8
rdata$r	SEGMENT DWORD USE32 PUBLIC 'CONST'
rdata$r	ENDS
;	COMDAT ??_R0?AVCNoTrackObject@@@8
_DATA	SEGMENT DWORD USE32 PUBLIC 'DATA'
_DATA	ENDS
;	COMDAT ??_R1A@?0A@A@COccManager@@8
rdata$r	SEGMENT DWORD USE32 PUBLIC 'CONST'
rdata$r	ENDS
;	COMDAT ??_R1A@?0A@A@CCustomOccManager@@8
rdata$r	SEGMENT DWORD USE32 PUBLIC 'CONST'
rdata$r	ENDS
;	COMDAT ??_R1A@?0A@A@DIBINFO@@8
rdata$r	SEGMENT DWORD USE32 PUBLIC 'CONST'
rdata$r	ENDS
;	COMDAT ??_R1A@?0A@A@HTTPObserver@@8
rdata$r	SEGMENT DWORD USE32 PUBLIC 'CONST'
rdata$r	ENDS
;	COMDAT ??_R1PA@?0A@A@IMessageObserver@@8
rdata$r	SEGMENT DWORD USE32 PUBLIC 'CONST'
rdata$r	ENDS
;	COMDAT ??_R1PA@?0A@A@IWebRefreshObserver@@8
rdata$r	SEGMENT DWORD USE32 PUBLIC 'CONST'
rdata$r	ENDS
;	COMDAT ??_R1A@?0A@A@CObject@@8
rdata$r	SEGMENT DWORD USE32 PUBLIC 'CONST'
rdata$r	ENDS
;	COMDAT ??_R0?AVCObject@@@8
_DATA	SEGMENT DWORD USE32 PUBLIC 'DATA'
_DATA	ENDS
;	COMDAT ??_R1A@?0A@A@CCmdTarget@@8
rdata$r	SEGMENT DWORD USE32 PUBLIC 'CONST'
rdata$r	ENDS
;	COMDAT ??_R0?AVCCmdTarget@@@8
_DATA	SEGMENT DWORD USE32 PUBLIC 'DATA'
_DATA	ENDS
;	COMDAT ??_R1A@?0A@A@CWnd@@8
rdata$r	SEGMENT DWORD USE32 PUBLIC 'CONST'
rdata$r	ENDS
;	COMDAT ??_R0?AVCWnd@@@8
_DATA	SEGMENT DWORD USE32 PUBLIC 'DATA'
_DATA	ENDS
;	COMDAT ??_R1A@?0A@A@CView@@8
rdata$r	SEGMENT DWORD USE32 PUBLIC 'CONST'
rdata$r	ENDS
;	COMDAT ??_R1A@?0A@A@CScrollView@@8
rdata$r	SEGMENT DWORD USE32 PUBLIC 'CONST'
rdata$r	ENDS
;	COMDAT ??_R1A@?0A@A@CFormView@@8
rdata$r	SEGMENT DWORD USE32 PUBLIC 'CONST'
rdata$r	ENDS
;	COMDAT ??_R1A@?0A@A@CHtmlView@@8
rdata$r	SEGMENT DWORD USE32 PUBLIC 'CONST'
rdata$r	ENDS
;	COMDAT ??_R1A@?0A@A@MyWebBrowserWnd@@8
rdata$r	SEGMENT DWORD USE32 PUBLIC 'CONST'
rdata$r	ENDS
;	COMDAT ??_R0?AVCAtlStringMgr@ATL@@@8
_DATA	SEGMENT DWORD USE32 PUBLIC 'DATA'
_DATA	ENDS
;	COMDAT ??_R0?AVCMarkup@@@8
_DATA	SEGMENT DWORD USE32 PUBLIC 'DATA'
_DATA	ENDS
;	COMDAT ??_R0?AVCMarkupArchive@@@8
_DATA	SEGMENT DWORD USE32 PUBLIC 'DATA'
_DATA	ENDS
;	COMDAT ??_R0?AV?$CArray@UElemPos@CMarkup@@AAU12@@@@8
_DATA	SEGMENT DWORD USE32 PUBLIC 'DATA'
_DATA	ENDS
;	COMDAT ??_R0?AV?$numpunct@_W@std@@@8
_DATA	SEGMENT DWORD USE32 PUBLIC 'DATA'
_DATA	ENDS
;	COMDAT ??_R0?AV?$numpunct@D@std@@@8
_DATA	SEGMENT DWORD USE32 PUBLIC 'DATA'
_DATA	ENDS
;	COMDAT ??_R0?AUIDocHostUIHandler@@@8
_DATA	SEGMENT DWORD USE32 PUBLIC 'DATA'
_DATA	ENDS
;	COMDAT ??_R0?AVXDocHostUIHandler@CCustomControlSite@@@8
_DATA	SEGMENT DWORD USE32 PUBLIC 'DATA'
_DATA	ENDS
;	COMDAT ??_R0?AVIData@@@8
_DATA	SEGMENT DWORD USE32 PUBLIC 'DATA'
_DATA	ENDS
;	COMDAT ??_R0?AVCGdiPlusBitmap@@@8
_DATA	SEGMENT DWORD USE32 PUBLIC 'DATA'
_DATA	ENDS
;	COMDAT ??_R0?AUIDocHostShowUI@@@8
_DATA	SEGMENT DWORD USE32 PUBLIC 'DATA'
_DATA	ENDS
;	COMDAT ??_R0?AVXDocHostShowUI@CCustomControlSite@@@8
_DATA	SEGMENT DWORD USE32 PUBLIC 'DATA'
_DATA	ENDS
;	COMDAT ??_R0?AVCOleControlSite@@@8
_DATA	SEGMENT DWORD USE32 PUBLIC 'DATA'
_DATA	ENDS
;	COMDAT ??_R0?AVCCustomControlSite@@@8
_DATA	SEGMENT DWORD USE32 PUBLIC 'DATA'
_DATA	ENDS
;	COMDAT ??_R0?AVCGdiPlusBitmap@CSkinButton@@@8
_DATA	SEGMENT DWORD USE32 PUBLIC 'DATA'
_DATA	ENDS
;	COMDAT ??_R0?AVP2PObserver@@@8
_DATA	SEGMENT DWORD USE32 PUBLIC 'DATA'
_DATA	ENDS
;	COMDAT ??_R0?AVCOccManager@@@8
_DATA	SEGMENT DWORD USE32 PUBLIC 'DATA'
_DATA	ENDS
;	COMDAT ??_R0?AVCCustomOccManager@@@8
_DATA	SEGMENT DWORD USE32 PUBLIC 'DATA'
_DATA	ENDS
;	COMDAT ??_R0?AVDIBINFO@@@8
_DATA	SEGMENT DWORD USE32 PUBLIC 'DATA'
_DATA	ENDS
;	COMDAT ??_R0?AVHTTPObserver@@@8
_DATA	SEGMENT DWORD USE32 PUBLIC 'DATA'
_DATA	ENDS
;	COMDAT ??_R0?AVIMessageObserver@@@8
_DATA	SEGMENT DWORD USE32 PUBLIC 'DATA'
_DATA	ENDS
;	COMDAT ??_R0?AVIWebRefreshObserver@@@8
_DATA	SEGMENT DWORD USE32 PUBLIC 'DATA'
_DATA	ENDS
;	COMDAT ??_R0?AVCView@@@8
_DATA	SEGMENT DWORD USE32 PUBLIC 'DATA'
_DATA	ENDS
;	COMDAT ??_R0?AVCScrollView@@@8
_DATA	SEGMENT DWORD USE32 PUBLIC 'DATA'
_DATA	ENDS
;	COMDAT ??_R0?AVCFormView@@@8
_DATA	SEGMENT DWORD USE32 PUBLIC 'DATA'
_DATA	ENDS
;	COMDAT ??_R0?AVCHtmlView@@@8
_DATA	SEGMENT DWORD USE32 PUBLIC 'DATA'
_DATA	ENDS
;	COMDAT ??_R0?AVMyWebBrowserWnd@@@8
_DATA	SEGMENT DWORD USE32 PUBLIC 'DATA'
_DATA	ENDS
;	COMDAT ??_R4CMarkup@@6B@
rdata$r	SEGMENT DWORD USE32 PUBLIC 'CONST'
rdata$r	ENDS
;	COMDAT ??_R4IDocHostShowUI@@6B@
rdata$r	SEGMENT DWORD USE32 PUBLIC 'CONST'
rdata$r	ENDS
;	COMDAT ??_R4COccManager@@6B@
rdata$r	SEGMENT DWORD USE32 PUBLIC 'CONST'
rdata$r	ENDS
;	COMDAT ??_R4CAtlStringMgr@ATL@@6B@
rdata$r	SEGMENT DWORD USE32 PUBLIC 'CONST'
rdata$r	ENDS
;	COMDAT ??_R4IDocHostUIHandler@@6B@
rdata$r	SEGMENT DWORD USE32 PUBLIC 'CONST'
rdata$r	ENDS
;	COMDAT ??_R4CMarkupArchive@@6B@
rdata$r	SEGMENT DWORD USE32 PUBLIC 'CONST'
rdata$r	ENDS
;	COMDAT ??_R4?$CArray@UElemPos@CMarkup@@AAU12@@@6B@
rdata$r	SEGMENT DWORD USE32 PUBLIC 'CONST'
rdata$r	ENDS
;	COMDAT ??0?$allocator@_W@std@@QAE@XZ
_TEXT	SEGMENT PARA USE32 PUBLIC 'CODE'
_TEXT	ENDS
;	COMDAT ??_G?$numpunct@_W@std@@MAEPAXI@Z
_TEXT	SEGMENT PARA USE32 PUBLIC 'CODE'
_TEXT	ENDS
;	COMDAT ??_R4?$numpunct@_W@std@@6B@
rdata$r	SEGMENT DWORD USE32 PUBLIC 'CONST'
rdata$r	ENDS
;	COMDAT ??_G?$numpunct@D@std@@MAEPAXI@Z
_TEXT	SEGMENT PARA USE32 PUBLIC 'CODE'
_TEXT	ENDS
;	COMDAT ??_R4?$numpunct@D@std@@6B@
rdata$r	SEGMENT DWORD USE32 PUBLIC 'CONST'
rdata$r	ENDS
;	COMDAT ??_R4XDocHostUIHandler@CCustomControlSite@@6B@
rdata$r	SEGMENT DWORD USE32 PUBLIC 'CONST'
rdata$r	ENDS
;	COMDAT ??_R4IData@@6B@
rdata$r	SEGMENT DWORD USE32 PUBLIC 'CONST'
rdata$r	ENDS
;	COMDAT ??_R4CGdiPlusBitmap@@6B@
rdata$r	SEGMENT DWORD USE32 PUBLIC 'CONST'
rdata$r	ENDS
;	COMDAT ??_R4XDocHostShowUI@CCustomControlSite@@6B@
rdata$r	SEGMENT DWORD USE32 PUBLIC 'CONST'
rdata$r	ENDS
;	COMDAT ??_R4CCustomControlSite@@6B@
rdata$r	SEGMENT DWORD USE32 PUBLIC 'CONST'
rdata$r	ENDS
;	COMDAT ??_R4CGdiPlusBitmap@CSkinButton@@6B@
rdata$r	SEGMENT DWORD USE32 PUBLIC 'CONST'
rdata$r	ENDS
;	COMDAT ??_R4P2PObserver@@6B@
rdata$r	SEGMENT DWORD USE32 PUBLIC 'CONST'
rdata$r	ENDS
;	COMDAT ??_R4IWebRefreshObserver@@6B@
rdata$r	SEGMENT DWORD USE32 PUBLIC 'CONST'
rdata$r	ENDS
;	COMDAT ??_R4CCustomOccManager@@6B@
rdata$r	SEGMENT DWORD USE32 PUBLIC 'CONST'
rdata$r	ENDS
;	COMDAT ??_R4DIBINFO@@6B@
rdata$r	SEGMENT DWORD USE32 PUBLIC 'CONST'
rdata$r	ENDS
;	COMDAT ??_R4HTTPObserver@@6B@
rdata$r	SEGMENT DWORD USE32 PUBLIC 'CONST'
rdata$r	ENDS
;	COMDAT ??_R4MyWebBrowserWnd@@6BIWebRefreshObserver@@@
rdata$r	SEGMENT DWORD USE32 PUBLIC 'CONST'
rdata$r	ENDS
;	COMDAT ?accHitTest@CFormView@@UAEJJJPAUtagVARIANT@@@Z
_TEXT	SEGMENT PARA USE32 PUBLIC 'CODE'
_TEXT	ENDS
;	COMDAT ?accLocation@CFormView@@UAEJPAJ000UtagVARIANT@@@Z
_TEXT	SEGMENT PARA USE32 PUBLIC 'CODE'
_TEXT	ENDS
;	COMDAT ?get_accName@CFormView@@UAEJUtagVARIANT@@PAPA_W@Z
_TEXT	SEGMENT PARA USE32 PUBLIC 'CODE'
_TEXT	ENDS
;	COMDAT ?get_accChild@CFormView@@UAEJUtagVARIANT@@PAPAUIDispatch@@@Z
_TEXT	SEGMENT PARA USE32 PUBLIC 'CODE'
_TEXT	ENDS
;	COMDAT ?get_accChildCount@CFormView@@UAEJPAJ@Z
_TEXT	SEGMENT PARA USE32 PUBLIC 'CODE'
_TEXT	ENDS
;	COMDAT ??_R4MyWebBrowserWnd@@6BCHtmlView@@@
rdata$r	SEGMENT DWORD USE32 PUBLIC 'CONST'
rdata$r	ENDS
;	COMDAT ??3@YAXPAX0@Z
_TEXT	SEGMENT PARA USE32 PUBLIC 'CODE'
_TEXT	ENDS
;	COMDAT ??2@YAPAXIPAX@Z
_TEXT	SEGMENT PARA USE32 PUBLIC 'CODE'
_TEXT	ENDS
;	COMDAT ??_C@_0EN@CBMLGOH@D?3?2Program?5Files?5?$CIx86?$CJ?2Microsoft@
CONST	SEGMENT DWORD USE32 PUBLIC 'CONST'
CONST	ENDS
;	COMDAT ??_7?$CArray@UElemPos@CMarkup@@AAU12@@@6B@
CONST	SEGMENT DWORD USE32 PUBLIC 'CONST'
CONST	ENDS
;	COMDAT ?_Psave@?$_Facetptr@V?$numpunct@_W@std@@@std@@2PBVfacet@locale@2@B
_DATA	SEGMENT DWORD USE32 PUBLIC 'DATA'
_DATA	ENDS
;	COMDAT ?_Psave@?$_Facetptr@V?$numpunct@D@std@@@std@@2PBVfacet@locale@2@B
_DATA	SEGMENT DWORD USE32 PUBLIC 'DATA'
_DATA	ENDS
;	COMDAT ?Unlock@CComCriticalSection@ATL@@QAEJXZ
_TEXT	SEGMENT PARA USE32 PUBLIC 'CODE'
_TEXT	ENDS
;	COMDAT ??_C@_0FG@LDNDNCJM@D?3?2Program?5Files?5?$CIx86?$CJ?2Microsoft@
CONST	SEGMENT DWORD USE32 PUBLIC 'CONST'
CONST	ENDS
;	COMDAT ??_C@_09HIEJFN@m_bLocked?$AA@
CONST	SEGMENT DWORD USE32 PUBLIC 'CONST'
CONST	ENDS
;	COMDAT ?_Psave@?$_Facetptr@V?$ctype@_W@std@@@std@@2PBVfacet@locale@2@B
_DATA	SEGMENT DWORD USE32 PUBLIC 'DATA'
_DATA	ENDS
;	COMDAT ?_Psave@?$_Facetptr@V?$ctype@D@std@@@std@@2PBVfacet@locale@2@B
_DATA	SEGMENT DWORD USE32 PUBLIC 'DATA'
_DATA	ENDS
;	COMDAT ??$_Maklocchr@_W@std@@YA_WDPA_WABU_Cvtvec@@@Z
_TEXT	SEGMENT PARA USE32 PUBLIC 'CODE'
_TEXT	ENDS
;	COMDAT ??$_DebugHeapDelete@X@std@@YAXPAX@Z
_TEXT	SEGMENT PARA USE32 PUBLIC 'CODE'
_TEXT	ENDS
;	COMDAT ??$_Maklocstr@_W@std@@YAPA_WPBDPA_WABU_Cvtvec@@@Z
_TEXT	SEGMENT PARA USE32 PUBLIC 'CODE'
_TEXT	ENDS
;	COMDAT ??$_Maklocchr@D@std@@YADDPADABU_Cvtvec@@@Z
_TEXT	SEGMENT PARA USE32 PUBLIC 'CODE'
_TEXT	ENDS
;	COMDAT ??_C@_04LOAJBDKD@true?$AA@
CONST	SEGMENT DWORD USE32 PUBLIC 'CONST'
CONST	ENDS
;	COMDAT ??_C@_05LAPONLG@false?$AA@
CONST	SEGMENT DWORD USE32 PUBLIC 'CONST'
CONST	ENDS
;	COMDAT _wmemcpy
_TEXT	SEGMENT PARA USE32 PUBLIC 'CODE'
_TEXT	ENDS
;	COMDAT ?max_size@?$allocator@_W@std@@QBEIXZ
_TEXT	SEGMENT PARA USE32 PUBLIC 'CODE'
_TEXT	ENDS
;	COMDAT ?allocate@?$allocator@_W@std@@QAEPA_WI@Z
_TEXT	SEGMENT PARA USE32 PUBLIC 'CODE'
_TEXT	ENDS
;	COMDAT ??$_Allocate@_W@std@@YAPA_WIPA_W@Z
_TEXT	SEGMENT PARA USE32 PUBLIC 'CODE'
_TEXT	ENDS
;	COMDAT ??_C@_0N@ILOMLJGA@nLength?5?$DO?$DN?50?$AA@
CONST	SEGMENT DWORD USE32 PUBLIC 'CONST'
CONST	ENDS
;	COMDAT ??_C@_0CD@EEFFJEGJ@nLength?5?$DM?$DN?5GetData?$CI?$CJ?9?$DOnAllocLeng@
CONST	SEGMENT DWORD USE32 PUBLIC 'CONST'
CONST	ENDS
;	COMDAT ?data@CStringData@ATL@@QAEPAXXZ
_TEXT	SEGMENT PARA USE32 PUBLIC 'CODE'
_TEXT	ENDS
;	COMDAT ?AtlThrow@ATL@@YGXJ@Z
_TEXT	SEGMENT PARA USE32 PUBLIC 'CODE'
_TEXT	ENDS
;	COMDAT ??RCTraceFileAndLineInfo@ATL@@QBAXKIPBDZZ
_TEXT	SEGMENT PARA USE32 PUBLIC 'CODE'
_TEXT	ENDS
;	COMDAT ?TraceV@CTrace@ATL@@QBAXPBDHKI0PAD@Z
_TEXT	SEGMENT PARA USE32 PUBLIC 'CODE'
_TEXT	ENDS
;	COMDAT ??0CTraceFileAndLineInfo@ATL@@QAE@PBDH@Z
_TEXT	SEGMENT PARA USE32 PUBLIC 'CODE'
_TEXT	ENDS
;	COMDAT ??_C@_0FI@NHHJANPC@D?3?2Program?5Files?5?$CIx86?$CJ?2Microsoft@
CONST	SEGMENT DWORD USE32 PUBLIC 'CONST'
CONST	ENDS
;	COMDAT ??_C@_0BF@IAAKIJDJ@AtlThrow?3?5hr?5?$DN?50x?$CFx?6?$AA@
CONST	SEGMENT DWORD USE32 PUBLIC 'CONST'
CONST	ENDS
;	COMDAT ??BCTraceCategory@ATL@@QBEKXZ
_TEXT	SEGMENT PARA USE32 PUBLIC 'CODE'
_TEXT	ENDS
;	COMDAT ??_C@_0FJ@DMHPDOJC@D?3?2Program?5Files?5?$CIx86?$CJ?2Microsoft@
CONST	SEGMENT DWORD USE32 PUBLIC 'CONST'
CONST	ENDS
;	COMDAT ??_C@_0BA@GOIMFHNK@pStringMgr?5?$CB?$DN?50?$AA@
CONST	SEGMENT DWORD USE32 PUBLIC 'CONST'
CONST	ENDS
;	COMDAT ??_C@_01GFHCPBMG@C?$AA@
CONST	SEGMENT DWORD USE32 PUBLIC 'CONST'
CONST	ENDS
;	COMDAT ?max_size@?$allocator@D@std@@QBEIXZ
_TEXT	SEGMENT PARA USE32 PUBLIC 'CODE'
_TEXT	ENDS
;	COMDAT ?allocate@?$allocator@D@std@@QAEPADI@Z
_TEXT	SEGMENT PARA USE32 PUBLIC 'CODE'
_TEXT	ENDS
;	COMDAT ??$_Allocate@D@std@@YAPADIPAD@Z
_TEXT	SEGMENT PARA USE32 PUBLIC 'CODE'
_TEXT	ENDS
;	COMDAT ?deallocate@?$allocator@D@std@@QAEXPADI@Z
_TEXT	SEGMENT PARA USE32 PUBLIC 'CODE'
_TEXT	ENDS
;	COMDAT ??_C@_0FH@KDPNIMBO@D?3?2Program?5Files?5?$CIx86?$CJ?2Microsoft@
CONST	SEGMENT DWORD USE32 PUBLIC 'CONST'
CONST	ENDS
;	COMDAT ?AtlIsValidString@ATL@@YAHPBDI@Z
_TEXT	SEGMENT PARA USE32 PUBLIC 'CODE'
_TEXT	ENDS
;	COMDAT ?Release@CStringData@ATL@@QAEXXZ
_TEXT	SEGMENT PARA USE32 PUBLIC 'CODE'
_TEXT	ENDS
;	COMDAT ??_C@_0L@OIIMFBNE@nRefs?5?$CB?$DN?50?$AA@
CONST	SEGMENT DWORD USE32 PUBLIC 'CONST'
CONST	ENDS
;	COMDAT ??_C@_0BA@GNIEOBOF@nNewLength?5?$DO?$DN?50?$AA@
CONST	SEGMENT DWORD USE32 PUBLIC 'CONST'
CONST	ENDS
;	COMDAT ?IsShared@CStringData@ATL@@QBE_NXZ
_TEXT	SEGMENT PARA USE32 PUBLIC 'CODE'
_TEXT	ENDS
;	COMDAT ??_C@_0CB@GFHAPKDK@pOldData?9?$DOnAllocLength?5?$DM?5nLength@
CONST	SEGMENT DWORD USE32 PUBLIC 'CONST'
CONST	ENDS
;	COMDAT ?_Peek@?$istreambuf_iterator@_WU?$char_traits@_W@std@@@std@@AAE_WXZ
_TEXT	SEGMENT PARA USE32 PUBLIC 'CODE'
_TEXT	ENDS
;	COMDAT ?_Peek@?$istreambuf_iterator@DU?$char_traits@D@std@@@std@@AAEDXZ
_TEXT	SEGMENT PARA USE32 PUBLIC 'CODE'
_TEXT	ENDS
;	COMDAT ??_C@_0FI@FDBICBML@D?3?2Program?5Files?5?$CIx86?$CJ?2Microsoft@
CONST	SEGMENT DWORD USE32 PUBLIC 'CONST'
CONST	ENDS
;	COMDAT ??_C@_04DBLLIIGB@p?$DN?$DN0?$AA@
CONST	SEGMENT DWORD USE32 PUBLIC 'CONST'
CONST	ENDS
;	COMDAT ?AtlComPtrAssign@ATL@@YGPAUIUnknown@@PAPAU2@PAU2@@Z
_TEXT	SEGMENT PARA USE32 PUBLIC 'CODE'
_TEXT	ENDS
;	COMDAT ??$use_facet@V?$ctype@_W@std@@@std@@YAABV?$ctype@_W@0@ABVlocale@0@@Z
_TEXT	SEGMENT PARA USE32 PUBLIC 'CODE'
_TEXT	ENDS
;	COMDAT ??_S?$ctype@_W@std@@6B@
CONST	SEGMENT DWORD USE32 PUBLIC 'CONST'
CONST	ENDS
;	COMDAT ??_R4?$ctype@_W@std@@6B@
rdata$r	SEGMENT DWORD USE32 PUBLIC 'CONST'
rdata$r	ENDS
;	COMDAT ??_R0?AV?$ctype@_W@std@@@8
_DATA	SEGMENT DWORD USE32 PUBLIC 'DATA'
_DATA	ENDS
;	COMDAT ??_R3?$ctype@_W@std@@8
rdata$r	SEGMENT DWORD USE32 PUBLIC 'CONST'
rdata$r	ENDS
;	COMDAT ??_R2?$ctype@_W@std@@8
rdata$r	SEGMENT DWORD USE32 PUBLIC 'CONST'
rdata$r	ENDS
;	COMDAT ??_R1A@?0A@A@?$ctype@_W@std@@8
rdata$r	SEGMENT DWORD USE32 PUBLIC 'CONST'
rdata$r	ENDS
;	COMDAT ??_R1A@?0A@A@ctype_base@std@@8
rdata$r	SEGMENT DWORD USE32 PUBLIC 'CONST'
rdata$r	ENDS
;	COMDAT ??_R0?AUctype_base@std@@@8
_DATA	SEGMENT DWORD USE32 PUBLIC 'DATA'
_DATA	ENDS
;	COMDAT ??_G?$ctype@_W@std@@MAEPAXI@Z
_TEXT	SEGMENT PARA USE32 PUBLIC 'CODE'
_TEXT	ENDS
;	COMDAT ??_C@_08EPJLHIJG@bad?5cast?$AA@
CONST	SEGMENT DWORD USE32 PUBLIC 'CONST'
CONST	ENDS
;	COMDAT __TI2?AVbad_cast@@
xdata$x	SEGMENT DWORD USE32 PUBLIC 'CONST'
xdata$x	ENDS
;	COMDAT __CTA2?AVbad_cast@@
xdata$x	SEGMENT DWORD USE32 PUBLIC 'CONST'
xdata$x	ENDS
;	COMDAT __CT??_R0?AVbad_cast@@@8??0bad_cast@@QAE@ABV0@@Z12
xdata$x	SEGMENT DWORD USE32 PUBLIC 'CONST'
xdata$x	ENDS
;	COMDAT ??_R0?AVbad_cast@@@8
_DATA	SEGMENT DWORD USE32 PUBLIC 'DATA'
_DATA	ENDS
;	COMDAT __CT??_R0?AVexception@@@8??0exception@@QAE@ABV0@@Z12
xdata$x	SEGMENT DWORD USE32 PUBLIC 'CONST'
xdata$x	ENDS
;	COMDAT ??_R0?AVexception@@@8
_DATA	SEGMENT DWORD USE32 PUBLIC 'DATA'
_DATA	ENDS
;	COMDAT ??$_DebugHeapDelete@Vfacet@locale@std@@@std@@YAXPAVfacet@locale@0@@Z
_TEXT	SEGMENT PARA USE32 PUBLIC 'CODE'
_TEXT	ENDS
;	COMDAT ??$use_facet@V?$ctype@D@std@@@std@@YAABV?$ctype@D@0@ABVlocale@0@@Z
_TEXT	SEGMENT PARA USE32 PUBLIC 'CODE'
_TEXT	ENDS
;	COMDAT ??_S?$ctype@D@std@@6B@
CONST	SEGMENT DWORD USE32 PUBLIC 'CONST'
CONST	ENDS
;	COMDAT ??_R4?$ctype@D@std@@6B@
rdata$r	SEGMENT DWORD USE32 PUBLIC 'CONST'
rdata$r	ENDS
;	COMDAT ??_R0?AV?$ctype@D@std@@@8
_DATA	SEGMENT DWORD USE32 PUBLIC 'DATA'
_DATA	ENDS
;	COMDAT ??_R3?$ctype@D@std@@8
rdata$r	SEGMENT DWORD USE32 PUBLIC 'CONST'
rdata$r	ENDS
;	COMDAT ??_R2?$ctype@D@std@@8
rdata$r	SEGMENT DWORD USE32 PUBLIC 'CONST'
rdata$r	ENDS
;	COMDAT ??_R1A@?0A@A@?$ctype@D@std@@8
rdata$r	SEGMENT DWORD USE32 PUBLIC 'CONST'
rdata$r	ENDS
;	COMDAT ??_G?$ctype@D@std@@MAEPAXI@Z
_TEXT	SEGMENT PARA USE32 PUBLIC 'CODE'
_TEXT	ENDS
;	COMDAT ??_S?$numpunct@_W@std@@6B@
CONST	SEGMENT DWORD USE32 PUBLIC 'CONST'
CONST	ENDS
;	COMDAT ??_S?$numpunct@D@std@@6B@
CONST	SEGMENT DWORD USE32 PUBLIC 'CONST'
CONST	ENDS
;	COMDAT _wmemmove
_TEXT	SEGMENT PARA USE32 PUBLIC 'CODE'
_TEXT	ENDS
;	COMDAT ?deallocate@?$allocator@_W@std@@QAEXPA_WI@Z
_TEXT	SEGMENT PARA USE32 PUBLIC 'CODE'
_TEXT	ENDS
;	COMDAT ??0?$allocator@_W@std@@QAE@ABV01@@Z
_TEXT	SEGMENT PARA USE32 PUBLIC 'CODE'
_TEXT	ENDS
;	COMDAT ??$?HDU?$char_traits@D@std@@V?$allocator@D@1@@std@@YA?AV?$basic_string@DU?$char_traits@D@std@@V?$allocator@D@2@@0@ABV10@0@Z
_TEXT	SEGMENT PARA USE32 PUBLIC 'CODE'
_TEXT	ENDS
;	COMDAT ??0?$allocator@D@std@@QAE@ABV01@@Z
_TEXT	SEGMENT PARA USE32 PUBLIC 'CODE'
_TEXT	ENDS
;	COMDAT ??0?$allocator@D@std@@QAE@XZ
_TEXT	SEGMENT PARA USE32 PUBLIC 'CODE'
_TEXT	ENDS
;	COMDAT ?_messageEntries@MyWebBrowserWnd@@0QBUAFX_MSGMAP_ENTRY@@B
CONST	SEGMENT DWORD USE32 PUBLIC 'CONST'
CONST	ENDS
;	COMDAT ?messageMap@MyWebBrowserWnd@@1UAFX_MSGMAP@@B
CONST	SEGMENT DWORD USE32 PUBLIC 'CONST'
CONST	ENDS
;	COMDAT ??_7IMessageObserver@@6B@
CONST	SEGMENT DWORD USE32 PUBLIC 'CONST'
CONST	ENDS
;	COMDAT ??_R4IMessageObserver@@6B@
rdata$r	SEGMENT DWORD USE32 PUBLIC 'CONST'
rdata$r	ENDS
;	COMDAT ??_R3IMessageObserver@@8
rdata$r	SEGMENT DWORD USE32 PUBLIC 'CONST'
rdata$r	ENDS
;	COMDAT ??_R2IMessageObserver@@8
rdata$r	SEGMENT DWORD USE32 PUBLIC 'CONST'
rdata$r	ENDS
;	COMDAT ??_GIMessageObserver@@UAEPAXI@Z
_TEXT	SEGMENT PARA USE32 PUBLIC 'CODE'
_TEXT	ENDS
;	COMDAT ??_7IWebRefreshObserver@@6B@
CONST	SEGMENT DWORD USE32 PUBLIC 'CONST'
CONST	ENDS
;	COMDAT ??1IMessageObserver@@UAE@XZ
_TEXT	SEGMENT PARA USE32 PUBLIC 'CODE'
_TEXT	ENDS
;	COMDAT ??_7MyWebBrowserWnd@@6BIWebRefreshObserver@@@
CONST	SEGMENT DWORD USE32 PUBLIC 'CONST'
CONST	ENDS
;	COMDAT ??_7MyWebBrowserWnd@@6BCHtmlView@@@
CONST	SEGMENT DWORD USE32 PUBLIC 'CONST'
CONST	ENDS
;	COMDAT ?classMyWebBrowserWnd@MyWebBrowserWnd@@2UCRuntimeClass@@B
CONST	SEGMENT DWORD USE32 PUBLIC 'CONST'
CONST	ENDS
;	COMDAT ?c_bIsMFCDLLTraits@?$_MFCDLLTraitsCheck@_WV?$StrTraitATL@_WV?$ChTraitsCRT@_W@ATL@@@ATL@@@_CSTRING_IMPL_@ATL@@2_NB
CONST	SEGMENT DWORD USE32 PUBLIC 'CONST'
CONST	ENDS
;	COMDAT ?c_bIsMFCDLLTraits@?$_MFCDLLTraitsCheck@DV?$StrTraitATL@DV?$ChTraitsCRT@D@ATL@@@ATL@@@_CSTRING_IMPL_@ATL@@2_NB
CONST	SEGMENT DWORD USE32 PUBLIC 'CONST'
CONST	ENDS
;	COMDAT ?_AtlGetConversionACP@ATL@@YGIXZ
_TEXT	SEGMENT PARA USE32 PUBLIC 'CODE'
_TEXT	ENDS
;	COMDAT ?g_pfnGetThreadACP@ATL@@3P6GIXZA
_DATA	SEGMENT DWORD USE32 PUBLIC 'DATA'
_DATA	ENDS
;	COMDAT ?_AtlGetThreadACPThunk@ATL@@YGIXZ
_TEXT	SEGMENT PARA USE32 PUBLIC 'CODE'
_TEXT	ENDS
;	COMDAT ?_AtlGetThreadACPReal@ATL@@YGIXZ
_TEXT	SEGMENT PARA USE32 PUBLIC 'CODE'
_TEXT	ENDS
;	COMDAT ?_AtlGetThreadACPFake@ATL@@YGIXZ
_TEXT	SEGMENT PARA USE32 PUBLIC 'CODE'
_TEXT	ENDS
;	COMDAT ?InterlockedExchangePointer@@YGPAXPAPAXPAX@Z
_TEXT	SEGMENT PARA USE32 PUBLIC 'CODE'
_TEXT	ENDS
;	COMDAT ??_C@_09BBJEMDLA@nRet?5?$CB?$DN?50?$AA@
CONST	SEGMENT DWORD USE32 PUBLIC 'CONST'
CONST	ENDS
;	COMDAT ?_strthunks@ATL@@3U_AtlStringThunks@1@A
_DATA	SEGMENT DWORD USE32 PUBLIC 'DATA'
_DATA	ENDS
;	COMDAT ?CompareStringWThunk@ATL@@YGHKKPB_WH0H@Z
_TEXT	SEGMENT PARA USE32 PUBLIC 'CODE'
_TEXT	ENDS
;	COMDAT ?_AtlInstallStringThunk@ATL@@YAXPAPAXPAX1@Z
_TEXT	SEGMENT PARA USE32 PUBLIC 'CODE'
_TEXT	ENDS
;	COMDAT ??_B?1??_AtlInstallStringThunk@ATL@@YAXPAPAXPAX1@Z@51
_BSS	SEGMENT DWORD USE32 PUBLIC 'BSS'
_BSS	ENDS
;	COMDAT ?s_bWin9x@?1??_AtlInstallStringThunk@ATL@@YAXPAPAXPAX1@Z@4_NA
_BSS	SEGMENT DWORD USE32 PUBLIC 'BSS'
_BSS	ENDS
;	COMDAT ?CompareStringWFake@ATL@@YGHKKPB_WH0H@Z
_TEXT	SEGMENT PARA USE32 PUBLIC 'CODE'
_TEXT	ENDS
;	COMDAT ??0?$CAtlSafeAllocBufferManager@VCCRTAllocator@ATL@@@_ATL_SAFE_ALLOCA_IMPL@ATL@@QAE@XZ
_TEXT	SEGMENT PARA USE32 PUBLIC 'CODE'
_TEXT	ENDS
;	COMDAT ??1?$CAtlSafeAllocBufferManager@VCCRTAllocator@ATL@@@_ATL_SAFE_ALLOCA_IMPL@ATL@@QAE@XZ
_TEXT	SEGMENT PARA USE32 PUBLIC 'CODE'
_TEXT	ENDS
;	COMDAT ?Free@CCRTAllocator@ATL@@SAXPAX@Z
_TEXT	SEGMENT PARA USE32 PUBLIC 'CODE'
_TEXT	ENDS
;	COMDAT ?AtlW2AHelper@@YGPADPADPB_WHI@Z
_TEXT	SEGMENT PARA USE32 PUBLIC 'CODE'
_TEXT	ENDS
;	COMDAT ??_C@_08DIHJLFDJ@lpw?5?$CB?$DN?50?$AA@
CONST	SEGMENT DWORD USE32 PUBLIC 'CONST'
CONST	ENDS
;	COMDAT ??_C@_08DMHHBMMN@lpa?5?$CB?$DN?50?$AA@
CONST	SEGMENT DWORD USE32 PUBLIC 'CONST'
CONST	ENDS
;	COMDAT ??_C@_01GBGANLPD@0?$AA@
CONST	SEGMENT DWORD USE32 PUBLIC 'CONST'
CONST	ENDS
;	COMDAT ??_C@_0FG@PFHCBDBK@D?3?2Program?5Files?5?$CIx86?$CJ?2Microsoft@
CONST	SEGMENT DWORD USE32 PUBLIC 'CONST'
CONST	ENDS
;	COMDAT ?_AtlVerifyStackAvailable@_ATL_SAFE_ALLOCA_IMPL@ATL@@YA_NK@Z
_TEXT	SEGMENT PARA USE32 PUBLIC 'CODE'
_TEXT	ENDS
;	COMDAT ?Allocate@?$CAtlSafeAllocBufferManager@VCCRTAllocator@ATL@@@_ATL_SAFE_ALLOCA_IMPL@ATL@@QAEPAXK@Z
_TEXT	SEGMENT PARA USE32 PUBLIC 'CODE'
_TEXT	ENDS
;	COMDAT ?Allocate@CCRTAllocator@ATL@@SAPAXI@Z
_TEXT	SEGMENT PARA USE32 PUBLIC 'CODE'
_TEXT	ENDS
;	COMDAT ?GetData@CAtlSafeAllocBufferNode@?$CAtlSafeAllocBufferManager@VCCRTAllocator@ATL@@@_ATL_SAFE_ALLOCA_IMPL@ATL@@QAEPAXXZ
_TEXT	SEGMENT PARA USE32 PUBLIC 'CODE'
_TEXT	ENDS
;	COMDAT ?GetStringTypeExWThunk@ATL@@YGHKKPB_WHPAG@Z
_TEXT	SEGMENT PARA USE32 PUBLIC 'CODE'
_TEXT	ENDS
;	COMDAT ?GetStringTypeExWFake@ATL@@YGHKKPB_WHPAG@Z
_TEXT	SEGMENT PARA USE32 PUBLIC 'CODE'
_TEXT	ENDS
;	COMDAT ??0?$CTempBuffer@D$0IA@VCCRTAllocator@ATL@@@ATL@@QAE@XZ
_TEXT	SEGMENT PARA USE32 PUBLIC 'CODE'
_TEXT	ENDS
;	COMDAT ??1?$CTempBuffer@D$0IA@VCCRTAllocator@ATL@@@ATL@@QAE@XZ
_TEXT	SEGMENT PARA USE32 PUBLIC 'CODE'
_TEXT	ENDS
;	COMDAT ?FreeHeap@?$CTempBuffer@D$0IA@VCCRTAllocator@ATL@@@ATL@@AAEXXZ
_TEXT	SEGMENT PARA USE32 PUBLIC 'CODE'
_TEXT	ENDS
;	COMDAT ?Allocate@?$CTempBuffer@D$0IA@VCCRTAllocator@ATL@@@ATL@@QAEPADI@Z
_TEXT	SEGMENT PARA USE32 PUBLIC 'CODE'
_TEXT	ENDS
;	COMDAT ?AllocateBytes@?$CTempBuffer@D$0IA@VCCRTAllocator@ATL@@@ATL@@QAEPADI@Z
_TEXT	SEGMENT PARA USE32 PUBLIC 'CODE'
_TEXT	ENDS
;	COMDAT ??_C@_08GPODJFIN@m_p?5?$DN?$DN?50?$AA@
CONST	SEGMENT DWORD USE32 PUBLIC 'CONST'
CONST	ENDS
;	COMDAT ??_C@_0FH@BOCPFCEM@D?3?2Program?5Files?5?$CIx86?$CJ?2Microsoft@
CONST	SEGMENT DWORD USE32 PUBLIC 'CONST'
CONST	ENDS
;	COMDAT ?AllocateHeap@?$CTempBuffer@D$0IA@VCCRTAllocator@ATL@@@ATL@@AAEXI@Z
_TEXT	SEGMENT PARA USE32 PUBLIC 'CODE'
_TEXT	ENDS
;	COMDAT ??B?$CTempBuffer@D$0IA@VCCRTAllocator@ATL@@@ATL@@QBEPADXZ
_TEXT	SEGMENT PARA USE32 PUBLIC 'CODE'
_TEXT	ENDS
;	COMDAT ?lstrcmpiWThunk@ATL@@YGHPB_W0@Z
_TEXT	SEGMENT PARA USE32 PUBLIC 'CODE'
_TEXT	ENDS
;	COMDAT ?lstrcmpiWFake@ATL@@YGHPB_W0@Z
_TEXT	SEGMENT PARA USE32 PUBLIC 'CODE'
_TEXT	ENDS
;	COMDAT ?CharLowerWThunk@ATL@@YGPA_WPA_W@Z
_TEXT	SEGMENT PARA USE32 PUBLIC 'CODE'
_TEXT	ENDS
;	COMDAT ?CharLowerWFake@ATL@@YGPA_WPA_W@Z
_TEXT	SEGMENT PARA USE32 PUBLIC 'CODE'
_TEXT	ENDS
;	COMDAT ?AtlA2WHelper@@YGPA_WPA_WPBDHI@Z
_TEXT	SEGMENT PARA USE32 PUBLIC 'CODE'
_TEXT	ENDS
;	COMDAT ?CharUpperWThunk@ATL@@YGPA_WPA_W@Z
_TEXT	SEGMENT PARA USE32 PUBLIC 'CODE'
_TEXT	ENDS
;	COMDAT ?CharUpperWFake@ATL@@YGPA_WPA_W@Z
_TEXT	SEGMENT PARA USE32 PUBLIC 'CODE'
_TEXT	ENDS
;	COMDAT ?GetEnvironmentVariableWThunk@ATL@@YGKPB_WPA_WK@Z
_TEXT	SEGMENT PARA USE32 PUBLIC 'CODE'
_TEXT	ENDS
;	COMDAT ?GetEnvironmentVariableWFake@ATL@@YGKPB_WPA_WK@Z
_TEXT	SEGMENT PARA USE32 PUBLIC 'CODE'
_TEXT	ENDS
;	COMDAT ??0?$CW2AEX@$0IA@@ATL@@QAE@PB_W@Z
_TEXT	SEGMENT PARA USE32 PUBLIC 'CODE'
_TEXT	ENDS
;	COMDAT ?Init@?$CW2AEX@$0IA@@ATL@@AAEXPB_WI@Z
_TEXT	SEGMENT PARA USE32 PUBLIC 'CODE'
_TEXT	ENDS
;	COMDAT ?AtlThrowLastWin32@ATL@@YGXXZ
_TEXT	SEGMENT PARA USE32 PUBLIC 'CODE'
_TEXT	ENDS
;	COMDAT ??1?$CW2AEX@$0IA@@ATL@@QAE@XZ
_TEXT	SEGMENT PARA USE32 PUBLIC 'CODE'
_TEXT	ENDS
;	COMDAT ??B?$CW2AEX@$0IA@@ATL@@QBEPADXZ
_TEXT	SEGMENT PARA USE32 PUBLIC 'CODE'
_TEXT	ENDS
;	COMDAT ??_C@_0BA@CLMJJCOM@nSize?5?$DO?$DN?5nSizeW?$AA@
CONST	SEGMENT DWORD USE32 PUBLIC 'CONST'
CONST	ENDS
;	COMDAT ?AddRef@CStringData@ATL@@QAEXXZ
_TEXT	SEGMENT PARA USE32 PUBLIC 'CODE'
_TEXT	ENDS
;	COMDAT ??_C@_09EEBKLCFA@nRefs?5?$DO?50?$AA@
CONST	SEGMENT DWORD USE32 PUBLIC 'CONST'
CONST	ENDS
;	COMDAT ?SetManager@CNilStringData@ATL@@QAEXPAUIAtlStringMgr@2@@Z
_TEXT	SEGMENT PARA USE32 PUBLIC 'CODE'
_TEXT	ENDS
;	COMDAT ??_C@_0BA@MLJMCNFJ@pStringMgr?5?$DN?$DN?50?$AA@
CONST	SEGMENT DWORD USE32 PUBLIC 'CONST'
CONST	ENDS
;	COMDAT ??0CNilStringData@ATL@@QAE@XZ
_TEXT	SEGMENT PARA USE32 PUBLIC 'CODE'
_TEXT	ENDS
;	COMDAT ??_7CAtlStringMgr@ATL@@6B@
CONST	SEGMENT DWORD USE32 PUBLIC 'CONST'
CONST	ENDS
;	COMDAT ??_7P2PObserver@@6B@
CONST	SEGMENT DWORD USE32 PUBLIC 'CONST'
CONST	ENDS
;	COMDAT ??_7HTTPObserver@@6B@
CONST	SEGMENT DWORD USE32 PUBLIC 'CONST'
CONST	ENDS
;	COMDAT ??_7CGdiPlusBitmap@CSkinButton@@6B@
CONST	SEGMENT DWORD USE32 PUBLIC 'CONST'
CONST	ENDS
;	COMDAT ??_7IData@@6B@
CONST	SEGMENT DWORD USE32 PUBLIC 'CONST'
CONST	ENDS
;	COMDAT ?GetLastStatus@Image@Gdiplus@@QBE?AW4Status@2@XZ
_TEXT	SEGMENT PARA USE32 PUBLIC 'CODE'
_TEXT	ENDS
;	COMDAT ?FromFile@Bitmap@Gdiplus@@SAPAV12@PB_WH@Z
_TEXT	SEGMENT PARA USE32 PUBLIC 'CODE'
_TEXT	ENDS
;	COMDAT ??2GdiplusBase@Gdiplus@@SAPAXI@Z
_TEXT	SEGMENT PARA USE32 PUBLIC 'CODE'
_TEXT	ENDS
;	COMDAT ??3GdiplusBase@Gdiplus@@SAXPAX@Z
_TEXT	SEGMENT PARA USE32 PUBLIC 'CODE'
_TEXT	ENDS
;	COMDAT ??0Bitmap@Gdiplus@@QAE@PB_WH@Z
_TEXT	SEGMENT PARA USE32 PUBLIC 'CODE'
_TEXT	ENDS
;	COMDAT ??0Image@Gdiplus@@IAE@XZ
_TEXT	SEGMENT PARA USE32 PUBLIC 'CODE'
_TEXT	ENDS
;	COMDAT ??_7Image@Gdiplus@@6B@
CONST	SEGMENT DWORD USE32 PUBLIC 'CONST'
CONST	ENDS
;	COMDAT ??_R4Image@Gdiplus@@6B@
rdata$r	SEGMENT DWORD USE32 PUBLIC 'CONST'
rdata$r	ENDS
;	COMDAT ??_R0?AVImage@Gdiplus@@@8
_DATA	SEGMENT DWORD USE32 PUBLIC 'DATA'
_DATA	ENDS
;	COMDAT ??_R3Image@Gdiplus@@8
rdata$r	SEGMENT DWORD USE32 PUBLIC 'CONST'
rdata$r	ENDS
;	COMDAT ??_R2Image@Gdiplus@@8
rdata$r	SEGMENT DWORD USE32 PUBLIC 'CONST'
rdata$r	ENDS
;	COMDAT ??_R1A@?0A@A@Image@Gdiplus@@8
rdata$r	SEGMENT DWORD USE32 PUBLIC 'CONST'
rdata$r	ENDS
;	COMDAT ??_R13?0A@A@GdiplusBase@Gdiplus@@8
rdata$r	SEGMENT DWORD USE32 PUBLIC 'CONST'
rdata$r	ENDS
;	COMDAT ??_R0?AVGdiplusBase@Gdiplus@@@8
_DATA	SEGMENT DWORD USE32 PUBLIC 'DATA'
_DATA	ENDS
;	COMDAT ??_GImage@Gdiplus@@UAEPAXI@Z
_TEXT	SEGMENT PARA USE32 PUBLIC 'CODE'
_TEXT	ENDS
;	COMDAT ?Clone@Image@Gdiplus@@UAEPAV12@XZ
_TEXT	SEGMENT PARA USE32 PUBLIC 'CODE'
_TEXT	ENDS
;	COMDAT ?SetStatus@Image@Gdiplus@@IBE?AW4Status@2@W432@@Z
_TEXT	SEGMENT PARA USE32 PUBLIC 'CODE'
_TEXT	ENDS
;	COMDAT ??0Image@Gdiplus@@IAE@PAVGpImage@1@W4Status@1@@Z
_TEXT	SEGMENT PARA USE32 PUBLIC 'CODE'
_TEXT	ENDS
;	COMDAT ??1Image@Gdiplus@@UAE@XZ
_TEXT	SEGMENT PARA USE32 PUBLIC 'CODE'
_TEXT	ENDS
;	COMDAT ??_7Bitmap@Gdiplus@@6B@
CONST	SEGMENT DWORD USE32 PUBLIC 'CONST'
CONST	ENDS
;	COMDAT ??_R4Bitmap@Gdiplus@@6B@
rdata$r	SEGMENT DWORD USE32 PUBLIC 'CONST'
rdata$r	ENDS
;	COMDAT ??_R0?AVBitmap@Gdiplus@@@8
_DATA	SEGMENT DWORD USE32 PUBLIC 'DATA'
_DATA	ENDS
;	COMDAT ??_R3Bitmap@Gdiplus@@8
rdata$r	SEGMENT DWORD USE32 PUBLIC 'CONST'
rdata$r	ENDS
;	COMDAT ??_R2Bitmap@Gdiplus@@8
rdata$r	SEGMENT DWORD USE32 PUBLIC 'CONST'
rdata$r	ENDS
;	COMDAT ??_R1A@?0A@A@Bitmap@Gdiplus@@8
rdata$r	SEGMENT DWORD USE32 PUBLIC 'CONST'
rdata$r	ENDS
;	COMDAT ??_GBitmap@Gdiplus@@UAEPAXI@Z
_TEXT	SEGMENT PARA USE32 PUBLIC 'CODE'
_TEXT	ENDS
;	COMDAT ??1Bitmap@Gdiplus@@UAE@XZ
_TEXT	SEGMENT PARA USE32 PUBLIC 'CODE'
_TEXT	ENDS
;	COMDAT ?SetNativeImage@Image@Gdiplus@@IAEXPAVGpImage@2@@Z
_TEXT	SEGMENT PARA USE32 PUBLIC 'CODE'
_TEXT	ENDS
;	COMDAT ??_7CGdiPlusBitmap@@6B@
CONST	SEGMENT DWORD USE32 PUBLIC 'CONST'
CONST	ENDS
;	COMDAT ??_7DIBINFO@@6B@
CONST	SEGMENT DWORD USE32 PUBLIC 'CONST'
CONST	ENDS
;	COMDAT ?IsLocked@CStringData@ATL@@QBE_NXZ
_TEXT	SEGMENT PARA USE32 PUBLIC 'CODE'
_TEXT	ENDS
;	COMDAT ??_7CMarkupArchive@@6B@
CONST	SEGMENT DWORD USE32 PUBLIC 'CONST'
CONST	ENDS
;	COMDAT __tcschr
_TEXT	SEGMENT PARA USE32 PUBLIC 'CODE'
_TEXT	ENDS
;	COMDAT __tcsnccmp
_TEXT	SEGMENT PARA USE32 PUBLIC 'CODE'
_TEXT	ENDS
;	COMDAT ?GetDefaultManager@?$StrTraitMFC_DLL@DV?$ChTraitsCRT@D@ATL@@@@SAPAUIAtlStringMgr@ATL@@XZ
_TEXT	SEGMENT PARA USE32 PUBLIC 'CODE'
_TEXT	ENDS
;	COMDAT ??_7CMarkup@@6B@
CONST	SEGMENT DWORD USE32 PUBLIC 'CONST'
CONST	ENDS
;	COMDAT ??_C@_00CNPNBAHC@?$AA@
CONST	SEGMENT DWORD USE32 PUBLIC 'CONST'
CONST	ENDS
;	COMDAT ?FindStringResourceInstance@?$StrTraitMFC_DLL@DV?$ChTraitsCRT@D@ATL@@@@SAPAUHINSTANCE__@@I@Z
_TEXT	SEGMENT PARA USE32 PUBLIC 'CODE'
_TEXT	ENDS
;	COMDAT ?AtlGetStringResourceImage@ATL@@YAPBUATLSTRINGRESOURCEIMAGE@1@PAUHINSTANCE__@@I@Z
_TEXT	SEGMENT PARA USE32 PUBLIC 'CODE'
_TEXT	ENDS
;	COMDAT ?_AtlGetStringResourceImage@ATL@@YAPBUATLSTRINGRESOURCEIMAGE@1@PAUHINSTANCE__@@PAUHRSRC__@@I@Z
_TEXT	SEGMENT PARA USE32 PUBLIC 'CODE'
_TEXT	ENDS
;	COMDAT ?GetBaseTypeLength@?$ChTraitsCRT@D@ATL@@SAHPB_WH@Z
_TEXT	SEGMENT PARA USE32 PUBLIC 'CODE'
_TEXT	ENDS
;	COMDAT ?ConvertToBaseType@?$ChTraitsCRT@D@ATL@@SAXPADHPB_WH@Z
_TEXT	SEGMENT PARA USE32 PUBLIC 'CODE'
_TEXT	ENDS
;	COMDAT ??_C@_0CJ@FJEKGMMD@Warning?3?5implicit?5LoadString?$CI?$CFu?$CJ@
CONST	SEGMENT DWORD USE32 PUBLIC 'CONST'
CONST	ENDS
;	COMDAT ??_7CNoTrackObject@@6B@
CONST	SEGMENT DWORD USE32 PUBLIC 'CONST'
CONST	ENDS
;	COMDAT ??_R4CNoTrackObject@@6B@
rdata$r	SEGMENT DWORD USE32 PUBLIC 'CONST'
rdata$r	ENDS
;	COMDAT ??_R3CNoTrackObject@@8
rdata$r	SEGMENT DWORD USE32 PUBLIC 'CONST'
rdata$r	ENDS
;	COMDAT ??_R2CNoTrackObject@@8
rdata$r	SEGMENT DWORD USE32 PUBLIC 'CONST'
rdata$r	ENDS
;	COMDAT ??_7COccManager@@6B@
CONST	SEGMENT DWORD USE32 PUBLIC 'CONST'
CONST	ENDS
;	COMDAT ??1CNoTrackObject@@UAE@XZ
_TEXT	SEGMENT PARA USE32 PUBLIC 'CODE'
_TEXT	ENDS
;	COMDAT ??_7CCustomOccManager@@6B@
CONST	SEGMENT DWORD USE32 PUBLIC 'CONST'
CONST	ENDS
;	COMDAT ??0IUnknown@@QAE@XZ
_TEXT	SEGMENT PARA USE32 PUBLIC 'CODE'
_TEXT	ENDS
;	COMDAT ??_7XDocHostUIHandler@CCustomControlSite@@6B@
CONST	SEGMENT DWORD USE32 PUBLIC 'CONST'
CONST	ENDS
;	COMDAT ??_7XDocHostShowUI@CCustomControlSite@@6B@
CONST	SEGMENT DWORD USE32 PUBLIC 'CONST'
CONST	ENDS
;	COMDAT ??_7CCustomControlSite@@6B@
CONST	SEGMENT DWORD USE32 PUBLIC 'CONST'
CONST	ENDS
;	COMDAT ?clsid@?1??GetClsid@CShockwaveFlash@@QAEABU_GUID@@XZ@4U3@B
CONST	SEGMENT DWORD USE32 PUBLIC 'CONST'
CONST	ENDS
sxdata	SEGMENT DWORD USE32 'SXDATA'
sxdata	ENDS
FLAT	GROUP _DATA, CONST, _BSS
	ASSUME	CS: FLAT, DS: FLAT, SS: FLAT
endif

INCLUDELIB MSVCRTD
INCLUDELIB OLDNAMES

PUBLIC	?classMyWebBrowserWnd@MyWebBrowserWnd@@2UCRuntimeClass@@B ; MyWebBrowserWnd::classMyWebBrowserWnd
PUBLIC	?OnEraseBkgnd@MyWebBrowserWnd@@QAEHPAVCDC@@@Z	; MyWebBrowserWnd::OnEraseBkgnd
PUBLIC	?_messageEntries@MyWebBrowserWnd@@0QBUAFX_MSGMAP_ENTRY@@B ; MyWebBrowserWnd::_messageEntries
PUBLIC	?messageMap@MyWebBrowserWnd@@1UAFX_MSGMAP@@B	; MyWebBrowserWnd::messageMap
PUBLIC	?OnCreate@MyWebBrowserWnd@@IAEHPAUtagCREATESTRUCTA@@@Z ; MyWebBrowserWnd::OnCreate
PUBLIC	?OnSize@MyWebBrowserWnd@@IAEXIHH@Z		; MyWebBrowserWnd::OnSize
PUBLIC	?OnTimer@MyWebBrowserWnd@@IAEXI@Z		; MyWebBrowserWnd::OnTimer
PUBLIC	?OnCallJavaScript@MyWebBrowserWnd@@QAEJIJ@Z	; MyWebBrowserWnd::OnCallJavaScript
PUBLIC	?c_bIsMFCDLLTraits@?$_MFCDLLTraitsCheck@DV?$StrTraitATL@DV?$ChTraitsCRT@D@ATL@@@ATL@@@_CSTRING_IMPL_@ATL@@2_NB ; ATL::_CSTRING_IMPL_::_MFCDLLTraitsCheck<char,ATL::StrTraitATL<char,ATL::ChTraitsCRT<char> > >::c_bIsMFCDLLTraits
PUBLIC	?g_pfnGetThreadACP@ATL@@3P6GIXZA		; ATL::g_pfnGetThreadACP
PUBLIC	?_AtlGetThreadACPThunk@ATL@@YGIXZ		; ATL::_AtlGetThreadACPThunk
PUBLIC	?_strthunks@ATL@@3U_AtlStringThunks@1@A		; ATL::_strthunks
PUBLIC	?GetEnvironmentVariableWThunk@ATL@@YGKPB_WPA_WK@Z ; ATL::GetEnvironmentVariableWThunk
PUBLIC	?CompareStringWThunk@ATL@@YGHKKPB_WH0H@Z	; ATL::CompareStringWThunk
PUBLIC	?GetStringTypeExWThunk@ATL@@YGHKKPB_WHPAG@Z	; ATL::GetStringTypeExWThunk
PUBLIC	?lstrcmpiWThunk@ATL@@YGHPB_W0@Z			; ATL::lstrcmpiWThunk
PUBLIC	?CharLowerWThunk@ATL@@YGPA_WPA_W@Z		; ATL::CharLowerWThunk
PUBLIC	?CharUpperWThunk@ATL@@YGPA_WPA_W@Z		; ATL::CharUpperWThunk
PUBLIC	?c_bIsMFCDLLTraits@?$_MFCDLLTraitsCheck@_WV?$StrTraitATL@_WV?$ChTraitsCRT@_W@ATL@@@ATL@@@_CSTRING_IMPL_@ATL@@2_NB ; ATL::_CSTRING_IMPL_::_MFCDLLTraitsCheck<wchar_t,ATL::StrTraitATL<wchar_t,ATL::ChTraitsCRT<wchar_t> > >::c_bIsMFCDLLTraits
EXTRN	?GetThisClass@CHtmlView@@SGPAUCRuntimeClass@@XZ:NEAR ; CHtmlView::GetThisClass
EXTRN	?GetThisMessageMap@CHtmlView@@KGPBUAFX_MSGMAP@@XZ:NEAR ; CHtmlView::GetThisMessageMap
CONST	SEGMENT
$SG192447 DB	'int', 00H
CONST	ENDS
_DATA	SEGMENT
_TYPE_CONFIG_INT DD FLAT:$SG192447
_DATA	ENDS
CONST	SEGMENT
$SG192449 DB	'str', 00H
CONST	ENDS
_DATA	SEGMENT
_TYPE_CONFIG_STR DD FLAT:$SG192449
_DATA	ENDS
CONST	SEGMENT
$SG192451 DB	'double', 00H
CONST	ENDS
_DATA	SEGMENT
_TYPE_CONFIG_DOUBLE DD FLAT:$SG192451
_DATA	ENDS
CONST	SEGMENT
	ORG $+1
$SG192453 DB	'bool', 00H
CONST	ENDS
_DATA	SEGMENT
_TYPE_CONFIG_BOOL DD FLAT:$SG192453
_DATA	ENDS
CONST	SEGMENT
	ORG $+3
$SG192455 DB	'sepint', 00H
CONST	ENDS
_DATA	SEGMENT
_TYPE_CONFIG_INT_HASSEP DD FLAT:$SG192455
_DATA	ENDS
CONST	SEGMENT
	ORG $+1
$SG192457 DB	'sepstr', 00H
CONST	ENDS
_DATA	SEGMENT
_TYPE_CONFIG_STR_HASSEP DD FLAT:$SG192457
_DATA	ENDS
CONST	SEGMENT
	ORG $+1
$SG192459 DB	'sepdouble', 00H
CONST	ENDS
_DATA	SEGMENT
_TYPE_CONFIG_DOUBLE_HASSEP DD FLAT:$SG192459
_DATA	ENDS
CONST	SEGMENT
	ORG $+2
$SG192461 DB	'sepbool', 00H
CONST	ENDS
_DATA	SEGMENT
_TYPE_CONFIG_BOOL_HASSEP DD FLAT:$SG192461
_DATA	ENDS
CONST	SEGMENT
$SG192463 DB	'Setting', 00H
CONST	ENDS
_DATA	SEGMENT
_CONF_SETTING_MODULE_NAME DD FLAT:$SG192463
_DATA	ENDS
CONST	SEGMENT
$SG192465 DB	'skin', 00H
CONST	ENDS
_DATA	SEGMENT
_CONF_SETTING_SKIN_IDX DD FLAT:$SG192465
_DATA	ENDS
CONST	SEGMENT
	ORG $+3
$SG192467 DB	'MainPage', 00H
CONST	ENDS
_DATA	SEGMENT
_CONF_SETTING_CONFIG_MAIN_PAGE DD FLAT:$SG192467
_DATA	ENDS
CONST	SEGMENT
	ORG $+3
$SG192469 DB	'ProblemReport', 00H
CONST	ENDS
_DATA	SEGMENT
_CONF_SETTING_CONFIG_PROBLEM_REPORT DD FLAT:$SG192469
_DATA	ENDS
CONST	SEGMENT
	ORG $+2
$SG192471 DB	'HomePage', 00H
CONST	ENDS
_DATA	SEGMENT
_CONF_SETTING_CONFIG_HOME_PAGE DD FLAT:$SG192471
_DATA	ENDS
CONST	SEGMENT
	ORG $+3
$SG192473 DB	'askexit', 00H
CONST	ENDS
_DATA	SEGMENT
_CONF_SETTING_CONFIG_IFASKEXIT DD FLAT:$SG192473
_DATA	ENDS
CONST	SEGMENT
$SG192475 DB	'exitchoice', 00H
CONST	ENDS
_DATA	SEGMENT
_CONF_SETTING_CONFIG_EXITCHOICE DD FLAT:$SG192475
_DATA	ENDS
CONST	SEGMENT
	ORG $+1
$SG192477 DB	'UN', 00H
CONST	ENDS
_DATA	SEGMENT
_CONF_SETTING_LOGIN_USER_NAME DD FLAT:$SG192477
_DATA	ENDS
CONST	SEGMENT
	ORG $+1
$SG192479 DB	'PW', 00H
CONST	ENDS
_DATA	SEGMENT
_CONF_SETTING_LOGIN_PASSWORD DD FLAT:$SG192479
_DATA	ENDS
CONST	SEGMENT
	ORG $+1
$SG192481 DB	'NetID', 00H
CONST	ENDS
_DATA	SEGMENT
_CONF_SETTING_NETID DD FLAT:$SG192481
_DATA	ENDS
CONST	SEGMENT
	ORG $+2
$SG192483 DB	'ChangeColorValue', 00H
CONST	ENDS
_DATA	SEGMENT
_CONF_SETTING_COLOR DD FLAT:$SG192483
_DATA	ENDS
CONST	SEGMENT
	ORG $+3
$SG192485 DB	'changeColorLight', 00H
CONST	ENDS
_DATA	SEGMENT
_CONF_SETTING_LIGHT DD FLAT:$SG192485
_DATA	ENDS
CONST	SEGMENT
	ORG $+3
$SG192487 DB	'ColorIndex', 00H
CONST	ENDS
_DATA	SEGMENT
_CONF_SETTING_COLOR_BTN_INDEX DD FLAT:$SG192487
_DATA	ENDS
CONST	SEGMENT
	ORG $+1
$SG192489 DB	'ColorUser', 00H
CONST	ENDS
_DATA	SEGMENT
_CONF_SETTING_COLOR_USER DD FLAT:$SG192489
_DATA	ENDS
CONST	SEGMENT
	ORG $+2
$SG192491 DB	'FirstTimeChangeSkin', 00H
CONST	ENDS
_DATA	SEGMENT
_CONF_SETTING_FIRST_TIME_CHANGESKIN DD FLAT:$SG192491
_DATA	ENDS
CONST	SEGMENT
$SG192498 DB	'App', 00H
CONST	ENDS
_DATA	SEGMENT
_CONF_APP_MODULE_NAME DD FLAT:$SG192498
_DATA	ENDS
CONST	SEGMENT
$SG192500 DB	'SwfPath', 00H
CONST	ENDS
_DATA	SEGMENT
_CONF_APP_SWF_PATH DD FLAT:$SG192500
_DATA	ENDS
CONST	SEGMENT
$SG192502 DB	'MainWndHold', 00H
CONST	ENDS
_DATA	SEGMENT
_CONF_APP_MAINWND_HOLD DD FLAT:$SG192502
_DATA	ENDS
CONST	SEGMENT
$SG192504 DB	'RunCount', 00H
CONST	ENDS
_DATA	SEGMENT
_CONF_APP_RUN_COUNT DD FLAT:$SG192504
_DATA	ENDS
CONST	SEGMENT
	ORG $+3
$SG192506 DB	'PlayedGame', 00H
CONST	ENDS
_DATA	SEGMENT
_CONF_APP_PLAYED_GAME DD FLAT:$SG192506
_DATA	ENDS
CONST	SEGMENT
	ORG $+1
$SG192508 DB	'playedPcGame', 00H
CONST	ENDS
_DATA	SEGMENT
_CONF_APP_PLAYED_PC_GAME DD FLAT:$SG192508
_DATA	ENDS
CONST	SEGMENT
	ORG $+3
$SG192510 DB	'PlayedIconSize', 00H
CONST	ENDS
_DATA	SEGMENT
_CONF_APP_PLAYED_ICON_SIZE DD FLAT:$SG192510
_DATA	ENDS
CONST	SEGMENT
	ORG $+1
$SG192512 DB	'PictureSavePath', 00H
CONST	ENDS
_DATA	SEGMENT
_CONF_APP_PIC_SAVE_PATH DD FLAT:$SG192512
_DATA	ENDS
;	COMDAT ?c_bIsMFCDLLTraits@?$_MFCDLLTraitsCheck@DV?$StrTraitATL@DV?$ChTraitsCRT@D@ATL@@@ATL@@@_CSTRING_IMPL_@ATL@@2_NB
CONST	SEGMENT
?c_bIsMFCDLLTraits@?$_MFCDLLTraitsCheck@DV?$StrTraitATL@DV?$ChTraitsCRT@D@ATL@@@ATL@@@_CSTRING_IMPL_@ATL@@2_NB DB 00H ; ATL::_CSTRING_IMPL_::_MFCDLLTraitsCheck<char,ATL::StrTraitATL<char,ATL::ChTraitsCRT<char> > >::c_bIsMFCDLLTraits
CONST	ENDS
;	COMDAT ?c_bIsMFCDLLTraits@?$_MFCDLLTraitsCheck@_WV?$StrTraitATL@_WV?$ChTraitsCRT@_W@ATL@@@ATL@@@_CSTRING_IMPL_@ATL@@2_NB
CONST	SEGMENT
?c_bIsMFCDLLTraits@?$_MFCDLLTraitsCheck@_WV?$StrTraitATL@_WV?$ChTraitsCRT@_W@ATL@@@ATL@@@_CSTRING_IMPL_@ATL@@2_NB DB 00H ; ATL::_CSTRING_IMPL_::_MFCDLLTraitsCheck<wchar_t,ATL::StrTraitATL<wchar_t,ATL::ChTraitsCRT<wchar_t> > >::c_bIsMFCDLLTraits
CONST	ENDS
CONST	SEGMENT
$SG195868 DB	'MyWebBrowserWnd', 00H
CONST	ENDS
;	COMDAT ?classMyWebBrowserWnd@MyWebBrowserWnd@@2UCRuntimeClass@@B
CONST	SEGMENT
?classMyWebBrowserWnd@MyWebBrowserWnd@@2UCRuntimeClass@@B DD FLAT:$SG195868 ; MyWebBrowserWnd::classMyWebBrowserWnd
	DD	01e8H
	DD	0ffffH
	DD	00H
	DD	FLAT:?GetThisClass@CHtmlView@@SGPAUCRuntimeClass@@XZ
	DD	00H
	DD	00H
CONST	ENDS
CONST	SEGMENT
$SG195881 DB	00H
CONST	ENDS
;	COMDAT ?_messageEntries@MyWebBrowserWnd@@0QBUAFX_MSGMAP_ENTRY@@B
CONST	SEGMENT
?_messageEntries@MyWebBrowserWnd@@0QBUAFX_MSGMAP_ENTRY@@B DD 01H ; MyWebBrowserWnd::_messageEntries
	DD	00H
	DD	00H
	DD	00H
	DD	0dH
	DD	FLAT:?OnCreate@MyWebBrowserWnd@@IAEHPAUtagCREATESTRUCTA@@@Z
	DD	014H
	DD	00H
	DD	00H
	DD	00H
	DD	01H
	DD	FLAT:?OnEraseBkgnd@MyWebBrowserWnd@@QAEHPAVCDC@@@Z
	DD	05H
	DD	00H
	DD	00H
	DD	00H
	DD	016H
	DD	FLAT:?OnSize@MyWebBrowserWnd@@IAEXIHH@Z
	DD	0113H
	DD	00H
	DD	00H
	DD	00H
	DD	011H
	DD	FLAT:?OnTimer@MyWebBrowserWnd@@IAEXI@Z
	DD	07e9H
	DD	00H
	DD	00H
	DD	00H
	DD	0eH
	DD	FLAT:?OnCallJavaScript@MyWebBrowserWnd@@QAEJIJ@Z
	DD	00H
	DD	00H
	DD	00H
	DD	00H
	DD	00H
	DD	00H
CONST	ENDS
;	COMDAT ?messageMap@MyWebBrowserWnd@@1UAFX_MSGMAP@@B
CONST	SEGMENT
?messageMap@MyWebBrowserWnd@@1UAFX_MSGMAP@@B DD FLAT:?GetThisMessageMap@CHtmlView@@KGPBUAFX_MSGMAP@@XZ ; MyWebBrowserWnd::messageMap
	DD	FLAT:?_messageEntries@MyWebBrowserWnd@@0QBUAFX_MSGMAP_ENTRY@@B
CONST	ENDS
CONST	SEGMENT
$SG195967 DB	00H
	ORG $+2
$SG195980 DB	'\Resources\StandardUI\error404.htm?r=', 00H
	ORG $+2
$SG196000 DB	'%s', 00H
	ORG $+1
$SG196001 DB	'Web BEGIN', 00H
	ORG $+2
$SG196002 DB	'log_httpr.txt', 00H
	ORG $+2
$SG196011 DB	'http://', 00H
$SG196021 DB	'WEB_COMMEND_ERR', 00H
$SG196022 DB	'ERROR', 00H
	ORG $+2
$SG196029 DB	'SwfGamePlaying.htm', 00H
	ORG $+1
$SG196031 DB	'T:%d', 00H
	ORG $+3
$SG196034 DB	'WEBLOADRECOM', 00H
	ORG $+3
$SG196037 DB	'error404', 00H
	ORG $+3
$SG196057 DB	'%s', 00H
	ORG $+1
$SG196058 DB	'OnDocumentComplete: ', 00H
	ORG $+3
$SG196059 DB	'log_webrec.txt', 00H
	ORG $+1
$SG196062 DB	'SwfGamePlaying.htm', 00H
	ORG $+1
$SG196286 DB	'D:\Program Files (x86)\Microsoft Visual Studio .NET 2003'
	DB	'\Vc7\atlmfc\include\afxtempl.h', 00H
	ORG $+1
$SG196300 DB	'D:\Program Files (x86)\Microsoft Visual Studio .NET 2003'
	DB	'\Vc7\atlmfc\include\afxtempl.h', 00H
	ORG $+1
$SG196316 DB	'with ', 00H
	ORG $+2
$SG196317 DB	' elements', 00H
	ORG $+2
$SG196319 DB	0aH, 00H
	ORG $+2
$SG196326 DB	0aH, 00H
	ORG $+6
$SG196334 DB	'D:\Program Files (x86)\Microsoft Visual Studio .NET 2003'
	DB	'\Vc7\atlmfc\include\afxtempl.h', 00H
	ORG $+1
$SG196336 DB	'D:\Program Files (x86)\Microsoft Visual Studio .NET 2003'
	DB	'\Vc7\atlmfc\include\afxtempl.h', 00H
	ORG $+1
$SG196339 DB	'D:\Program Files (x86)\Microsoft Visual Studio .NET 2003'
	DB	'\Vc7\atlmfc\include\afxtempl.h', 00H
	ORG $+1
$SG196341 DB	'D:\Program Files (x86)\Microsoft Visual Studio .NET 2003'
	DB	'\Vc7\atlmfc\include\afxtempl.h', 00H
	ORG $+1
$SG196343 DB	'D:\Program Files (x86)\Microsoft Visual Studio .NET 2003'
	DB	'\Vc7\atlmfc\include\afxtempl.h', 00H
	ORG $+1
$SG196346 DB	'D:\Program Files (x86)\Microsoft Visual Studio .NET 2003'
	DB	'\Vc7\atlmfc\include\afxtempl.h', 00H
	ORG $+1
$SG196370 DB	'D:\Program Files (x86)\Microsoft Visual Studio .NET 2003'
	DB	'\Vc7\atlmfc\include\afxtempl.h', 00H
	ORG $+1
$SG196372 DB	'D:\Program Files (x86)\Microsoft Visual Studio .NET 2003'
	DB	'\Vc7\atlmfc\include\afxtempl.h', 00H
	ORG $+1
$SG196387 DB	'D:\Program Files (x86)\Microsoft Visual Studio .NET 2003'
	DB	'\Vc7\atlmfc\include\afxtempl.h', 00H
	ORG $+1
$SG196394 DB	'D:\Program Files (x86)\Microsoft Visual Studio .NET 2003'
	DB	'\Vc7\atlmfc\include\afxtempl.h', 00H
	ORG $+1
$SG196436 DB	'D:\Program Files (x86)\Microsoft Visual Studio .NET 2003'
	DB	'\Vc7\atlmfc\include\afxtempl.h', 00H
	ORG $+1
$SG196440 DB	'D:\Program Files (x86)\Microsoft Visual Studio .NET 2003'
	DB	'\Vc7\atlmfc\include\afxtempl.h', 00H
	ORG $+1
$SG196450 DB	'D:\Program Files (x86)\Microsoft Visual Studio .NET 2003'
	DB	'\Vc7\atlmfc\include\afxtempl.h', 00H
	ORG $+1
$SG196479 DB	'D:\Program Files (x86)\Microsoft Visual Studio .NET 2003'
	DB	'\Vc7\atlmfc\include\afxtempl.h', 00H
	ORG $+1
$SG196504 DB	'D:\Program Files (x86)\Microsoft Visual Studio .NET 2003'
	DB	'\Vc7\atlmfc\include\afxtempl.h', 00H
CONST	ENDS
;	COMDAT ?g_pfnGetThreadACP@ATL@@3P6GIXZA
_DATA	SEGMENT
?g_pfnGetThreadACP@ATL@@3P6GIXZA DD FLAT:?_AtlGetThreadACPThunk@ATL@@YGIXZ ; ATL::g_pfnGetThreadACP
_DATA	ENDS
;	COMDAT ?_strthunks@ATL@@3U_AtlStringThunks@1@A
_DATA	SEGMENT
?_strthunks@ATL@@3U_AtlStringThunks@1@A DD FLAT:?CompareStringWThunk@ATL@@YGHKKPB_WH0H@Z ; ATL::_strthunks
	DD	FLAT:?GetStringTypeExWThunk@ATL@@YGHKKPB_WHPAG@Z
	DD	FLAT:?lstrcmpiWThunk@ATL@@YGHPB_W0@Z
	DD	FLAT:?CharLowerWThunk@ATL@@YGPA_WPA_W@Z
	DD	FLAT:?CharUpperWThunk@ATL@@YGPA_WPA_W@Z
	DD	FLAT:?GetEnvironmentVariableWThunk@ATL@@YGKPB_WPA_WK@Z
_DATA	ENDS
CONST	SEGMENT
	ORG $+1
_ID_MESSAGE_REFRESH DD 04H
CONST	ENDS
PUBLIC	?InterlockedExchangePointer@@YGPAXPAPAXPAX@Z	; InterlockedExchangePointer
PUBLIC	?_AtlGetThreadACPFake@ATL@@YGIXZ		; ATL::_AtlGetThreadACPFake
PUBLIC	?_AtlGetThreadACPReal@ATL@@YGIXZ		; ATL::_AtlGetThreadACPReal
EXTRN	__imp__GetVersionExA@4:NEAR
EXTRN	__RTC_InitBase:NEAR
EXTRN	__RTC_Shutdown:NEAR
EXTRN	__RTC_CheckEsp:NEAR
EXTRN	___security_cookie:DWORD
EXTRN	@_RTC_CheckStackVars@8:NEAR
EXTRN	@__security_check_cookie@4:NEAR
;	COMDAT rtc$IMZ
; File d:\program files (x86)\microsoft visual studio .net 2003\vc7\atlmfc\include\atlconv.h
rtc$IMZ	SEGMENT
__RTC_InitBase.rtc$IMZ DD FLAT:__RTC_InitBase
rtc$IMZ	ENDS
;	COMDAT rtc$TMZ
rtc$TMZ	SEGMENT
__RTC_Shutdown.rtc$TMZ DD FLAT:__RTC_Shutdown
; Function compile flags: /Odt /RTCsu
rtc$TMZ	ENDS
;	COMDAT ?_AtlGetThreadACPThunk@ATL@@YGIXZ
_TEXT	SEGMENT
_pfnGetThreadACP$ = -164				; size = 4
_ver$ = -156						; size = 148
__$ArrayPad$ = -4					; size = 4
__$ReturnAddr$ = 4					; size = 4
?_AtlGetThreadACPThunk@ATL@@YGIXZ PROC NEAR		; ATL::_AtlGetThreadACPThunk, COMDAT

; 134  : {

  00000	55		 push	 ebp
  00001	8b ec		 mov	 ebp, esp
  00003	81 ec a4 00 00
	00		 sub	 esp, 164		; 000000a4H
  00009	56		 push	 esi
  0000a	57		 push	 edi
  0000b	8d bd 5c ff ff
	ff		 lea	 edi, DWORD PTR [ebp-164]
  00011	b9 29 00 00 00	 mov	 ecx, 41			; 00000029H
  00016	b8 cc cc cc cc	 mov	 eax, -858993460		; ccccccccH
  0001b	f3 ab		 rep stosd
  0001d	a1 00 00 00 00	 mov	 eax, DWORD PTR ___security_cookie
  00022	89 45 fc	 mov	 DWORD PTR __$ArrayPad$[ebp], eax

; 135  : 	OSVERSIONINFO ver;
; 136  : 	ATLGETTHREADACP pfnGetThreadACP;
; 137  : 
; 138  : 	ver.dwOSVersionInfoSize = sizeof( ver );

  00025	c7 85 64 ff ff
	ff 94 00 00 00	 mov	 DWORD PTR _ver$[ebp], 148 ; 00000094H

; 139  : 	::GetVersionEx( &ver );

  0002f	8b f4		 mov	 esi, esp
  00031	8d 85 64 ff ff
	ff		 lea	 eax, DWORD PTR _ver$[ebp]
  00037	50		 push	 eax
  00038	ff 15 00 00 00
	00		 call	 DWORD PTR __imp__GetVersionExA@4
  0003e	3b f4		 cmp	 esi, esp
  00040	e8 00 00 00 00	 call	 __RTC_CheckEsp

; 140  : 	if( (ver.dwPlatformId == VER_PLATFORM_WIN32_NT) && (ver.dwMajorVersion >= 5) )

  00045	83 bd 74 ff ff
	ff 02		 cmp	 DWORD PTR _ver$[ebp+16], 2
  0004c	75 15		 jne	 SHORT $L24163
  0004e	83 bd 68 ff ff
	ff 05		 cmp	 DWORD PTR _ver$[ebp+4], 5
  00055	72 0c		 jb	 SHORT $L24163

; 141  : 	{
; 142  : 		// On Win2K, CP_THREAD_ACP is supported
; 143  : 		pfnGetThreadACP = _AtlGetThreadACPReal;

  00057	c7 85 5c ff ff
	ff 00 00 00 00	 mov	 DWORD PTR _pfnGetThreadACP$[ebp], OFFSET FLAT:?_AtlGetThreadACPReal@ATL@@YGIXZ ; ATL::_AtlGetThreadACPReal

; 144  : 	}
; 145  : 	else

  00061	eb 0a		 jmp	 SHORT $L24164
$L24163:

; 146  : 	{
; 147  : 		pfnGetThreadACP = _AtlGetThreadACPFake;

  00063	c7 85 5c ff ff
	ff 00 00 00 00	 mov	 DWORD PTR _pfnGetThreadACP$[ebp], OFFSET FLAT:?_AtlGetThreadACPFake@ATL@@YGIXZ ; ATL::_AtlGetThreadACPFake
$L24164:

; 148  : 	}
; 149  : 	InterlockedExchangePointer( reinterpret_cast< void** >(&g_pfnGetThreadACP), pfnGetThreadACP );

  0006d	8b 8d 5c ff ff
	ff		 mov	 ecx, DWORD PTR _pfnGetThreadACP$[ebp]
  00073	51		 push	 ecx
  00074	68 00 00 00 00	 push	 OFFSET FLAT:?g_pfnGetThreadACP@ATL@@3P6GIXZA ; ATL::g_pfnGetThreadACP
  00079	e8 00 00 00 00	 call	 ?InterlockedExchangePointer@@YGPAXPAPAXPAX@Z ; InterlockedExchangePointer

; 150  : 
; 151  : 	return( g_pfnGetThreadACP() );

  0007e	8b f4		 mov	 esi, esp
  00080	ff 15 00 00 00
	00		 call	 DWORD PTR ?g_pfnGetThreadACP@ATL@@3P6GIXZA ; ATL::g_pfnGetThreadACP
  00086	3b f4		 cmp	 esi, esp
  00088	e8 00 00 00 00	 call	 __RTC_CheckEsp

; 152  : }

  0008d	52		 push	 edx
  0008e	8b cd		 mov	 ecx, ebp
  00090	50		 push	 eax
  00091	8d 15 00 00 00
	00		 lea	 edx, DWORD PTR $L197408
  00097	e8 00 00 00 00	 call	 @_RTC_CheckStackVars@8
  0009c	58		 pop	 eax
  0009d	5a		 pop	 edx
  0009e	8b 4d fc	 mov	 ecx, DWORD PTR __$ArrayPad$[ebp]
  000a1	e8 00 00 00 00	 call	 @__security_check_cookie@4
  000a6	5f		 pop	 edi
  000a7	5e		 pop	 esi
  000a8	81 c4 a4 00 00
	00		 add	 esp, 164		; 000000a4H
  000ae	3b ec		 cmp	 ebp, esp
  000b0	e8 00 00 00 00	 call	 __RTC_CheckEsp
  000b5	8b e5		 mov	 esp, ebp
  000b7	5d		 pop	 ebp
  000b8	c3		 ret	 0
$L197408:
  000b9	01 00 00 00	 DD	 1
  000bd	00 00 00 00	 DD	 $L197407
$L197407:
  000c1	64 ff ff ff	 DD	 -156			; ffffff64H
  000c5	94 00 00 00	 DD	 148			; 00000094H
  000c9	00 00 00 00	 DD	 $L197404
$L197404:
  000cd	76		 DB	 118			; 00000076H
  000ce	65		 DB	 101			; 00000065H
  000cf	72		 DB	 114			; 00000072H
  000d0	00		 DB	 0
?_AtlGetThreadACPThunk@ATL@@YGIXZ ENDP			; ATL::_AtlGetThreadACPThunk
_TEXT	ENDS
EXTRN	__imp__InterlockedExchange@8:NEAR
; Function compile flags: /Odt /RTCsu
;	COMDAT ?InterlockedExchangePointer@@YGPAXPAPAXPAX@Z
_TEXT	SEGMENT
_pp$ = 8						; size = 4
_pNew$ = 12						; size = 4
?InterlockedExchangePointer@@YGPAXPAPAXPAX@Z PROC NEAR	; InterlockedExchangePointer, COMDAT

; 91   : {

  00000	55		 push	 ebp
  00001	8b ec		 mov	 ebp, esp
  00003	56		 push	 esi

; 92   : 	return( reinterpret_cast<void*>(static_cast<LONG_PTR>(::InterlockedExchange(reinterpret_cast<LONG*>(pp), static_cast<LONG>(reinterpret_cast<LONG_PTR>(pNew))))) );

  00004	8b f4		 mov	 esi, esp
  00006	8b 45 0c	 mov	 eax, DWORD PTR _pNew$[ebp]
  00009	50		 push	 eax
  0000a	8b 4d 08	 mov	 ecx, DWORD PTR _pp$[ebp]
  0000d	51		 push	 ecx
  0000e	ff 15 00 00 00
	00		 call	 DWORD PTR __imp__InterlockedExchange@8
  00014	3b f4		 cmp	 esi, esp
  00016	e8 00 00 00 00	 call	 __RTC_CheckEsp

; 93   : }

  0001b	5e		 pop	 esi
  0001c	3b ec		 cmp	 ebp, esp
  0001e	e8 00 00 00 00	 call	 __RTC_CheckEsp
  00023	5d		 pop	 ebp
  00024	c2 08 00	 ret	 8
?InterlockedExchangePointer@@YGPAXPAPAXPAX@Z ENDP	; InterlockedExchangePointer
_TEXT	ENDS
EXTRN	__imp__GetACP@0:NEAR
EXTRN	__imp__GetLocaleInfoA@16:NEAR
EXTRN	__imp__GetThreadLocale@0:NEAR
; Function compile flags: /Odt /RTCsu
;	COMDAT ?_AtlGetThreadACPFake@ATL@@YGIXZ
_TEXT	SEGMENT
_pch$24151 = -32					; size = 4
_szACP$ = -24						; size = 7
_lcidThread$ = -12					; size = 4
_nACP$ = -8						; size = 4
__$ArrayPad$ = -4					; size = 4
__$ReturnAddr$ = 4					; size = 4
?_AtlGetThreadACPFake@ATL@@YGIXZ PROC NEAR		; ATL::_AtlGetThreadACPFake, COMDAT

; 101  : {

  00000	55		 push	 ebp
  00001	8b ec		 mov	 ebp, esp
  00003	83 ec 20	 sub	 esp, 32			; 00000020H
  00006	56		 push	 esi
  00007	b8 cc cc cc cc	 mov	 eax, -858993460		; ccccccccH
  0000c	89 45 e0	 mov	 DWORD PTR [ebp-32], eax
  0000f	89 45 e4	 mov	 DWORD PTR [ebp-28], eax
  00012	89 45 e8	 mov	 DWORD PTR [ebp-24], eax
  00015	89 45 ec	 mov	 DWORD PTR [ebp-20], eax
  00018	89 45 f0	 mov	 DWORD PTR [ebp-16], eax
  0001b	89 45 f4	 mov	 DWORD PTR [ebp-12], eax
  0001e	89 45 f8	 mov	 DWORD PTR [ebp-8], eax
  00021	89 45 fc	 mov	 DWORD PTR [ebp-4], eax
  00024	a1 00 00 00 00	 mov	 eax, DWORD PTR ___security_cookie
  00029	89 45 fc	 mov	 DWORD PTR __$ArrayPad$[ebp], eax

; 102  : 	UINT nACP = 0;

  0002c	c7 45 f8 00 00
	00 00		 mov	 DWORD PTR _nACP$[ebp], 0

; 103  : 
; 104  : 	LCID lcidThread = ::GetThreadLocale();

  00033	8b f4		 mov	 esi, esp
  00035	ff 15 00 00 00
	00		 call	 DWORD PTR __imp__GetThreadLocale@0
  0003b	3b f4		 cmp	 esi, esp
  0003d	e8 00 00 00 00	 call	 __RTC_CheckEsp
  00042	89 45 f4	 mov	 DWORD PTR _lcidThread$[ebp], eax

; 105  : 
; 106  : 	char szACP[7];
; 107  : 	// GetLocaleInfoA will fail for a Unicode-only LCID, but those are only supported on 
; 108  : 	// Windows 2000.  Since Windows 2000 supports CP_THREAD_ACP, this code path is never
; 109  : 	// executed on Windows 2000.
; 110  : 	if (::GetLocaleInfoA(lcidThread, LOCALE_IDEFAULTANSICODEPAGE, szACP, 7) != 0)

  00045	8b f4		 mov	 esi, esp
  00047	6a 07		 push	 7
  00049	8d 45 e8	 lea	 eax, DWORD PTR _szACP$[ebp]
  0004c	50		 push	 eax
  0004d	68 04 10 00 00	 push	 4100			; 00001004H
  00052	8b 4d f4	 mov	 ecx, DWORD PTR _lcidThread$[ebp]
  00055	51		 push	 ecx
  00056	ff 15 00 00 00
	00		 call	 DWORD PTR __imp__GetLocaleInfoA@16
  0005c	3b f4		 cmp	 esi, esp
  0005e	e8 00 00 00 00	 call	 __RTC_CheckEsp
  00063	85 c0		 test	 eax, eax
  00065	74 34		 je	 SHORT $L24150

; 111  : 	{
; 112  : 		char* pch = szACP;

  00067	8d 55 e8	 lea	 edx, DWORD PTR _szACP$[ebp]
  0006a	89 55 e0	 mov	 DWORD PTR _pch$24151[ebp], edx
$L24153:

; 113  : 		while (*pch != '\0')

  0006d	8b 45 e0	 mov	 eax, DWORD PTR _pch$24151[ebp]
  00070	0f be 08	 movsx	 ecx, BYTE PTR [eax]
  00073	85 c9		 test	 ecx, ecx
  00075	74 24		 je	 SHORT $L24150

; 114  : 		{
; 115  : 			nACP *= 10;

  00077	8b 55 f8	 mov	 edx, DWORD PTR _nACP$[ebp]
  0007a	6b d2 0a	 imul	 edx, 10			; 0000000aH
  0007d	89 55 f8	 mov	 DWORD PTR _nACP$[ebp], edx

; 116  : 			nACP += *pch++ - '0';

  00080	8b 45 e0	 mov	 eax, DWORD PTR _pch$24151[ebp]
  00083	0f be 08	 movsx	 ecx, BYTE PTR [eax]
  00086	8b 55 f8	 mov	 edx, DWORD PTR _nACP$[ebp]
  00089	8d 44 0a d0	 lea	 eax, DWORD PTR [edx+ecx-48]
  0008d	89 45 f8	 mov	 DWORD PTR _nACP$[ebp], eax
  00090	8b 4d e0	 mov	 ecx, DWORD PTR _pch$24151[ebp]
  00093	83 c1 01	 add	 ecx, 1
  00096	89 4d e0	 mov	 DWORD PTR _pch$24151[ebp], ecx

; 117  : 		}

  00099	eb d2		 jmp	 SHORT $L24153
$L24150:

; 118  : 	}
; 119  : 	// Use the Default ANSI Code Page if we were unable to get the thread ACP or if one does not exist.
; 120  : 	if (nACP == 0)

  0009b	83 7d f8 00	 cmp	 DWORD PTR _nACP$[ebp], 0
  0009f	75 12		 jne	 SHORT $L24155

; 121  : 		nACP = ::GetACP();

  000a1	8b f4		 mov	 esi, esp
  000a3	ff 15 00 00 00
	00		 call	 DWORD PTR __imp__GetACP@0
  000a9	3b f4		 cmp	 esi, esp
  000ab	e8 00 00 00 00	 call	 __RTC_CheckEsp
  000b0	89 45 f8	 mov	 DWORD PTR _nACP$[ebp], eax
$L24155:

; 122  : 
; 123  : 	return nACP;

  000b3	8b 45 f8	 mov	 eax, DWORD PTR _nACP$[ebp]

; 124  : }

  000b6	52		 push	 edx
  000b7	8b cd		 mov	 ecx, ebp
  000b9	50		 push	 eax
  000ba	8d 15 00 00 00
	00		 lea	 edx, DWORD PTR $L197419
  000c0	e8 00 00 00 00	 call	 @_RTC_CheckStackVars@8
  000c5	58		 pop	 eax
  000c6	5a		 pop	 edx
  000c7	8b 4d fc	 mov	 ecx, DWORD PTR __$ArrayPad$[ebp]
  000ca	e8 00 00 00 00	 call	 @__security_check_cookie@4
  000cf	5e		 pop	 esi
  000d0	83 c4 20	 add	 esp, 32			; 00000020H
  000d3	3b ec		 cmp	 ebp, esp
  000d5	e8 00 00 00 00	 call	 __RTC_CheckEsp
  000da	8b e5		 mov	 esp, ebp
  000dc	5d		 pop	 ebp
  000dd	c3		 ret	 0
$L197419:
  000de	01 00 00 00	 DD	 1
  000e2	00 00 00 00	 DD	 $L197418
$L197418:
  000e6	e8 ff ff ff	 DD	 -24			; ffffffe8H
  000ea	07 00 00 00	 DD	 7
  000ee	00 00 00 00	 DD	 $L197416
$L197416:
  000f2	73		 DB	 115			; 00000073H
  000f3	7a		 DB	 122			; 0000007aH
  000f4	41		 DB	 65			; 00000041H
  000f5	43		 DB	 67			; 00000043H
  000f6	50		 DB	 80			; 00000050H
  000f7	00		 DB	 0
?_AtlGetThreadACPFake@ATL@@YGIXZ ENDP			; ATL::_AtlGetThreadACPFake
; Function compile flags: /Odt /RTCsu
_TEXT	ENDS
;	COMDAT ?_AtlGetThreadACPReal@ATL@@YGIXZ
_TEXT	SEGMENT
?_AtlGetThreadACPReal@ATL@@YGIXZ PROC NEAR		; ATL::_AtlGetThreadACPReal, COMDAT

; 127  : {

  00000	55		 push	 ebp
  00001	8b ec		 mov	 ebp, esp

; 128  : 	return( CP_THREAD_ACP );

  00003	b8 03 00 00 00	 mov	 eax, 3

; 129  : }

  00008	5d		 pop	 ebp
  00009	c3		 ret	 0
?_AtlGetThreadACPReal@ATL@@YGIXZ ENDP			; ATL::_AtlGetThreadACPReal
_TEXT	ENDS
PUBLIC	?GetThisClass@MyWebBrowserWnd@@SGPAUCRuntimeClass@@XZ ; MyWebBrowserWnd::GetThisClass
; Function compile flags: /Odt /RTCsu
; File d:\boxgit\playbox\playbox\dev\prj\playbox\src\module\webinteract\mywebbrowserwnd.cpp
_TEXT	SEGMENT
?GetThisClass@MyWebBrowserWnd@@SGPAUCRuntimeClass@@XZ PROC NEAR ; MyWebBrowserWnd::GetThisClass

; 26   : IMPLEMENT_DYNAMIC(MyWebBrowserWnd, CHtmlView)

  00000	55		 push	 ebp
  00001	8b ec		 mov	 ebp, esp
  00003	b8 00 00 00 00	 mov	 eax, OFFSET FLAT:?classMyWebBrowserWnd@MyWebBrowserWnd@@2UCRuntimeClass@@B ; MyWebBrowserWnd::classMyWebBrowserWnd
  00008	5d		 pop	 ebp
  00009	c3		 ret	 0
?GetThisClass@MyWebBrowserWnd@@SGPAUCRuntimeClass@@XZ ENDP ; MyWebBrowserWnd::GetThisClass
_TEXT	ENDS
PUBLIC	?GetRuntimeClass@MyWebBrowserWnd@@UBEPAUCRuntimeClass@@XZ ; MyWebBrowserWnd::GetRuntimeClass
; Function compile flags: /Odt /RTCsu
_TEXT	SEGMENT
_this$ = -4						; size = 4
?GetRuntimeClass@MyWebBrowserWnd@@UBEPAUCRuntimeClass@@XZ PROC NEAR ; MyWebBrowserWnd::GetRuntimeClass
; _this$ = ecx

; 26   : IMPLEMENT_DYNAMIC(MyWebBrowserWnd, CHtmlView)

  00010	55		 push	 ebp
  00011	8b ec		 mov	 ebp, esp
  00013	51		 push	 ecx
  00014	c7 45 fc cc cc
	cc cc		 mov	 DWORD PTR [ebp-4], -858993460 ; ccccccccH
  0001b	89 4d fc	 mov	 DWORD PTR _this$[ebp], ecx
  0001e	b8 00 00 00 00	 mov	 eax, OFFSET FLAT:?classMyWebBrowserWnd@MyWebBrowserWnd@@2UCRuntimeClass@@B ; MyWebBrowserWnd::classMyWebBrowserWnd
  00023	8b e5		 mov	 esp, ebp
  00025	5d		 pop	 ebp
  00026	c3		 ret	 0
?GetRuntimeClass@MyWebBrowserWnd@@UBEPAUCRuntimeClass@@XZ ENDP ; MyWebBrowserWnd::GetRuntimeClass
_TEXT	ENDS
PUBLIC	??0MyWebBrowserWnd@@QAE@H@Z			; MyWebBrowserWnd::MyWebBrowserWnd
PUBLIC	?CreateControlSite@MyWebBrowserWnd@@UAEHPAVCOleControlContainer@@PAPAVCOleControlSite@@IABU_GUID@@@Z ; MyWebBrowserWnd::CreateControlSite
PUBLIC	?Create@MyWebBrowserWnd@@UAEHPBD0KABUtagRECT@@PAVCWnd@@IPAUCCreateContext@@@Z ; MyWebBrowserWnd::Create
PUBLIC	?get_accChild@CFormView@@UAEJUtagVARIANT@@PAPAUIDispatch@@@Z ; CFormView::get_accChild
PUBLIC	?get_accChildCount@CFormView@@UAEJPAJ@Z		; CFormView::get_accChildCount
PUBLIC	?OnNavigateError@MyWebBrowserWnd@@UAEXPBD0KPAH@Z ; MyWebBrowserWnd::OnNavigateError
PUBLIC	?OnNavigateComplete2@MyWebBrowserWnd@@UAEXPBD@Z	; MyWebBrowserWnd::OnNavigateComplete2
PUBLIC	?get_accName@CFormView@@UAEJUtagVARIANT@@PAPA_W@Z ; CFormView::get_accName
PUBLIC	?PreTranslateMessage@MyWebBrowserWnd@@UAEHPAUtagMSG@@@Z ; MyWebBrowserWnd::PreTranslateMessage
PUBLIC	?OnDocumentComplete@MyWebBrowserWnd@@UAEXPBD@Z	; MyWebBrowserWnd::OnDocumentComplete
PUBLIC	?IWebRefreshOb_Refresh@MyWebBrowserWnd@@UAEXPBD@Z ; MyWebBrowserWnd::IWebRefreshOb_Refresh
PUBLIC	?accLocation@CFormView@@UAEJPAJ000UtagVARIANT@@@Z ; CFormView::accLocation
PUBLIC	?accHitTest@CFormView@@UAEJJJPAUtagVARIANT@@@Z	; CFormView::accHitTest
PUBLIC	?GetMessageMap@MyWebBrowserWnd@@MBEPBUAFX_MSGMAP@@XZ ; MyWebBrowserWnd::GetMessageMap
PUBLIC	??_7MyWebBrowserWnd@@6BCHtmlView@@@		; MyWebBrowserWnd::`vftable'
PUBLIC	??_7MyWebBrowserWnd@@6BIWebRefreshObserver@@@	; MyWebBrowserWnd::`vftable'
PUBLIC	??_GMyWebBrowserWnd@@UAEPAXI@Z			; MyWebBrowserWnd::`scalar deleting destructor'
PUBLIC	??_R1A@?0A@A@CWnd@@8				; CWnd::`RTTI Base Class Descriptor at (0,-1,0,0)'
PUBLIC	??_R0?AVCWnd@@@8				; CWnd `RTTI Type Descriptor'
PUBLIC	??_R1A@?0A@A@CCmdTarget@@8			; CCmdTarget::`RTTI Base Class Descriptor at (0,-1,0,0)'
PUBLIC	??_R0?AVCCmdTarget@@@8				; CCmdTarget `RTTI Type Descriptor'
PUBLIC	??_R1A@?0A@A@CObject@@8				; CObject::`RTTI Base Class Descriptor at (0,-1,0,0)'
PUBLIC	??_R0?AVCObject@@@8				; CObject `RTTI Type Descriptor'
PUBLIC	??_R0?AVIMessageObserver@@@8			; IMessageObserver `RTTI Type Descriptor'
PUBLIC	??0IWebRefreshObserver@@QAE@XZ			; IWebRefreshObserver::IWebRefreshObserver
PUBLIC	??1IWebRefreshObserver@@UAE@XZ			; IWebRefreshObserver::~IWebRefreshObserver
PUBLIC	??_R4MyWebBrowserWnd@@6BCHtmlView@@@		; MyWebBrowserWnd::`RTTI Complete Object Locator'
PUBLIC	??_R0?AVMyWebBrowserWnd@@@8			; MyWebBrowserWnd `RTTI Type Descriptor'
PUBLIC	??_R3MyWebBrowserWnd@@8				; MyWebBrowserWnd::`RTTI Class Hierarchy Descriptor'
PUBLIC	??_R2MyWebBrowserWnd@@8				; MyWebBrowserWnd::`RTTI Base Class Array'
PUBLIC	??_R1A@?0A@A@MyWebBrowserWnd@@8			; MyWebBrowserWnd::`RTTI Base Class Descriptor at (0,-1,0,0)'
PUBLIC	??_R1A@?0A@A@CHtmlView@@8			; CHtmlView::`RTTI Base Class Descriptor at (0,-1,0,0)'
PUBLIC	??_R0?AVCHtmlView@@@8				; CHtmlView `RTTI Type Descriptor'
PUBLIC	??_R1A@?0A@A@CFormView@@8			; CFormView::`RTTI Base Class Descriptor at (0,-1,0,0)'
PUBLIC	??_R0?AVCFormView@@@8				; CFormView `RTTI Type Descriptor'
PUBLIC	??_R1A@?0A@A@CScrollView@@8			; CScrollView::`RTTI Base Class Descriptor at (0,-1,0,0)'
PUBLIC	??_R0?AVCScrollView@@@8				; CScrollView `RTTI Type Descriptor'
PUBLIC	??_R1A@?0A@A@CView@@8				; CView::`RTTI Base Class Descriptor at (0,-1,0,0)'
PUBLIC	??_R0?AVCView@@@8				; CView `RTTI Type Descriptor'
PUBLIC	??_R1PA@?0A@A@IWebRefreshObserver@@8		; IWebRefreshObserver::`RTTI Base Class Descriptor at (240,-1,0,0)'
PUBLIC	??_R0?AVIWebRefreshObserver@@@8			; IWebRefreshObserver `RTTI Type Descriptor'
PUBLIC	??_R1PA@?0A@A@IMessageObserver@@8		; IMessageObserver::`RTTI Base Class Descriptor at (240,-1,0,0)'
PUBLIC	??_EMyWebBrowserWnd@@WPA@AEPAXI@Z		; [thunk]:MyWebBrowserWnd::`vector deleting destructor'
PUBLIC	??_R4MyWebBrowserWnd@@6BIWebRefreshObserver@@@	; MyWebBrowserWnd::`RTTI Complete Object Locator'
EXTRN	??0CHtmlView@@IAE@XZ:NEAR			; CHtmlView::CHtmlView
EXTRN	?GetEventSinkMap@CHtmlView@@MBEPBUAFX_EVENTSINKMAP@@XZ:NEAR ; CHtmlView::GetEventSinkMap
EXTRN	?IsSelected@CView@@UBEHPBVCObject@@@Z:NEAR	; CView::IsSelected
EXTRN	?OnDragEnter@CView@@UAEKPAVCOleDataObject@@KVCPoint@@@Z:NEAR ; CView::OnDragEnter
EXTRN	?GetInterfaceMap@CWnd@@MBEPBUAFX_INTERFACEMAP@@XZ:NEAR ; CWnd::GetInterfaceMap
EXTRN	?OnDragOver@CView@@UAEKPAVCOleDataObject@@KVCPoint@@@Z:NEAR ; CView::OnDragOver
EXTRN	?OnDragLeave@CView@@UAEXXZ:NEAR			; CView::OnDragLeave
EXTRN	?OnDrop@CView@@UAEHPAVCOleDataObject@@KVCPoint@@@Z:NEAR ; CView::OnDrop
EXTRN	?OnDropEx@CView@@UAEKPAVCOleDataObject@@KKVCPoint@@@Z:NEAR ; CView::OnDropEx
EXTRN	?OnDragScroll@CView@@UAEKKVCPoint@@@Z:NEAR	; CView::OnDragScroll
EXTRN	?OnUpdate@CView@@MAEXPAV1@JPAVCObject@@@Z:NEAR	; CView::OnUpdate
EXTRN	?OnPreparePrinting@CView@@MAEHPAUCPrintInfo@@@Z:NEAR ; CView::OnPreparePrinting
EXTRN	?OnBeginPrinting@CView@@MAEXPAVCDC@@PAUCPrintInfo@@@Z:NEAR ; CView::OnBeginPrinting
EXTRN	?OnPrint@CView@@MAEXPAVCDC@@PAUCPrintInfo@@@Z:NEAR ; CView::OnPrint
EXTRN	?OnEndPrinting@CView@@MAEXPAVCDC@@PAUCPrintInfo@@@Z:NEAR ; CView::OnEndPrinting
EXTRN	?OnEndPrintPreview@CView@@MAEXPAVCDC@@PAUCPrintInfo@@UtagPOINT@@PAVCPreviewView@@@Z:NEAR ; CView::OnEndPrintPreview
EXTRN	?GetScrollBarCtrl@CView@@UBEPAVCScrollBar@@H@Z:NEAR ; CView::GetScrollBarCtrl
EXTRN	?OnCmdMsg@CView@@UAEHIHPAXPAUAFX_CMDHANDLERINFO@@@Z:NEAR ; CView::OnCmdMsg
EXTRN	?PostNcDestroy@CView@@MAEXXZ:NEAR		; CView::PostNcDestroy
EXTRN	?PreCreateWindow@CHtmlView@@UAEHAAUtagCREATESTRUCTA@@@Z:NEAR ; CHtmlView::PreCreateWindow
EXTRN	?EnsureStdObj@CWnd@@UAEJXZ:NEAR			; CWnd::EnsureStdObj
EXTRN	?get_accParent@CWnd@@UAEJPAPAUIDispatch@@@Z:NEAR ; CWnd::get_accParent
EXTRN	?OnShowContextMenu@CHtmlView@@UAEJKPAUtagPOINT@@PAUIUnknown@@PAUIDispatch@@@Z:NEAR ; CHtmlView::OnShowContextMenu
EXTRN	?OnGetExternal@CHtmlView@@UAEJPAPAUIDispatch@@@Z:NEAR ; CHtmlView::OnGetExternal
EXTRN	?IsInvokeAllowed@CCmdTarget@@UAEHJ@Z:NEAR	; CCmdTarget::IsInvokeAllowed
EXTRN	?OnGetHostInfo@CHtmlView@@UAEJPAU_DOCHOSTUIINFO@@@Z:NEAR ; CHtmlView::OnGetHostInfo
EXTRN	?get_accValue@CWnd@@UAEJUtagVARIANT@@PAPA_W@Z:NEAR ; CWnd::get_accValue
EXTRN	?GetDispatchIID@CCmdTarget@@UAEHPAU_GUID@@@Z:NEAR ; CCmdTarget::GetDispatchIID
EXTRN	?OnShowUI@CHtmlView@@UAEJKPAUIOleInPlaceActiveObject@@PAUIOleCommandTarget@@PAUIOleInPlaceFrame@@PAUIOleInPlaceUIWindow@@@Z:NEAR ; CHtmlView::OnShowUI
EXTRN	?GetTypeInfoCount@CCmdTarget@@UAEIXZ:NEAR	; CCmdTarget::GetTypeInfoCount
EXTRN	?OnHideUI@CHtmlView@@UAEJXZ:NEAR		; CHtmlView::OnHideUI
EXTRN	?GetTypeLibCache@CCmdTarget@@UAEPAVCTypeLibCache@@XZ:NEAR ; CCmdTarget::GetTypeLibCache
EXTRN	?get_accDescription@CWnd@@UAEJUtagVARIANT@@PAPA_W@Z:NEAR ; CWnd::get_accDescription
EXTRN	?OnUpdateUI@CHtmlView@@UAEJXZ:NEAR		; CHtmlView::OnUpdateUI
EXTRN	?AfxGetMessageManager@@YAPAVIMessageManager@@XZ:NEAR ; AfxGetMessageManager
EXTRN	?OnEnableModeless@CHtmlView@@UAEJH@Z:NEAR	; CHtmlView::OnEnableModeless
EXTRN	?GetTypeLib@CCmdTarget@@UAEJKPAPAUITypeLib@@@Z:NEAR ; CCmdTarget::GetTypeLib
EXTRN	?get_accRole@CWnd@@UAEJUtagVARIANT@@PAU2@@Z:NEAR ; CWnd::get_accRole
EXTRN	?OnDocWindowActivate@CHtmlView@@UAEJH@Z:NEAR	; CHtmlView::OnDocWindowActivate
EXTRN	?get_accState@CWnd@@UAEJUtagVARIANT@@PAU2@@Z:NEAR ; CWnd::get_accState
EXTRN	?OnFrameWindowActivate@CHtmlView@@UAEJH@Z:NEAR	; CHtmlView::OnFrameWindowActivate
EXTRN	?get_accHelp@CWnd@@UAEJUtagVARIANT@@PAPA_W@Z:NEAR ; CWnd::get_accHelp
EXTRN	?OnResizeBorder@CHtmlView@@UAEJPBUtagRECT@@PAUIOleInPlaceUIWindow@@H@Z:NEAR ; CHtmlView::OnResizeBorder
EXTRN	?get_accHelpTopic@CWnd@@UAEJPAPA_WUtagVARIANT@@PAJ@Z:NEAR ; CWnd::get_accHelpTopic
EXTRN	?OnTranslateAccelerator@CHtmlView@@UAEJPAUtagMSG@@PBU_GUID@@K@Z:NEAR ; CHtmlView::OnTranslateAccelerator
EXTRN	?get_accKeyboardShortcut@CWnd@@UAEJUtagVARIANT@@PAPA_W@Z:NEAR ; CWnd::get_accKeyboardShortcut
EXTRN	?OnGetOptionKeyPath@CHtmlView@@UAEJPAPA_WK@Z:NEAR ; CHtmlView::OnGetOptionKeyPath
EXTRN	?get_accFocus@CWnd@@UAEJPAUtagVARIANT@@@Z:NEAR	; CWnd::get_accFocus
EXTRN	?get_accSelection@CWnd@@UAEJPAUtagVARIANT@@@Z:NEAR ; CWnd::get_accSelection
EXTRN	?OnFilterDataObject@CHtmlView@@UAEJPAUIDataObject@@PAPAU2@@Z:NEAR ; CHtmlView::OnFilterDataObject
EXTRN	?get_accDefaultAction@CWnd@@UAEJUtagVARIANT@@PAPA_W@Z:NEAR ; CWnd::get_accDefaultAction
EXTRN	?OnTranslateUrl@CHtmlView@@UAEJKPA_WPAPA_W@Z:NEAR ; CHtmlView::OnTranslateUrl
EXTRN	?GetCommandMap@CCmdTarget@@MBEPBUAFX_OLECMDMAP@@XZ:NEAR ; CCmdTarget::GetCommandMap
EXTRN	?accSelect@CWnd@@UAEJJUtagVARIANT@@@Z:NEAR	; CWnd::accSelect
EXTRN	?OnInitialUpdate@CFormView@@UAEXXZ:NEAR		; CFormView::OnInitialUpdate
EXTRN	?OnGetDropTarget@CHtmlView@@UAEJPAUIDropTarget@@PAPAU2@@Z:NEAR ; CHtmlView::OnGetDropTarget
EXTRN	?GetDispatchMap@CCmdTarget@@MBEPBUAFX_DISPMAP@@XZ:NEAR ; CCmdTarget::GetDispatchMap
EXTRN	?accNavigate@CWnd@@UAEJJUtagVARIANT@@PAU2@@Z:NEAR ; CWnd::accNavigate
EXTRN	?OnBeforeNavigate2@CHtmlView@@UAEXPBDK0AAVCByteArray@@0PAH@Z:NEAR ; CHtmlView::OnBeforeNavigate2
EXTRN	?OnStatusTextChange@CHtmlView@@UAEXPBD@Z:NEAR	; CHtmlView::OnStatusTextChange
EXTRN	?GetConnectionMap@CCmdTarget@@MBEPBUAFX_CONNECTIONMAP@@XZ:NEAR ; CCmdTarget::GetConnectionMap
EXTRN	?OnProgressChange@CHtmlView@@UAEXJJ@Z:NEAR	; CHtmlView::OnProgressChange
EXTRN	?accDoDefaultAction@CWnd@@UAEJUtagVARIANT@@@Z:NEAR ; CWnd::accDoDefaultAction
EXTRN	?OnCommandStateChange@CHtmlView@@UAEXJH@Z:NEAR	; CHtmlView::OnCommandStateChange
EXTRN	?put_accName@CWnd@@UAEJUtagVARIANT@@PA_W@Z:NEAR	; CWnd::put_accName
EXTRN	?OnDownloadBegin@CHtmlView@@UAEXXZ:NEAR		; CHtmlView::OnDownloadBegin
EXTRN	?OnDownloadComplete@CHtmlView@@UAEXXZ:NEAR	; CHtmlView::OnDownloadComplete
EXTRN	?put_accValue@CWnd@@UAEJUtagVARIANT@@PA_W@Z:NEAR ; CWnd::put_accValue
EXTRN	?OnTitleChange@CHtmlView@@UAEXPBD@Z:NEAR	; CHtmlView::OnTitleChange
EXTRN	?SetProxy@CWnd@@UAEJPAUIAccessibleProxy@@@Z:NEAR ; CWnd::SetProxy
EXTRN	?OnPropertyChange@CHtmlView@@UAEXPBD@Z:NEAR	; CHtmlView::OnPropertyChange
EXTRN	?OnNewWindow2@CHtmlView@@UAEXPAPAUIDispatch@@PAH@Z:NEAR ; CHtmlView::OnNewWindow2
EXTRN	?CreateAccessibleProxy@CWnd@@UAEJIJPAJ@Z:NEAR	; CWnd::CreateAccessibleProxy
EXTRN	?OnQuit@CHtmlView@@UAEXXZ:NEAR			; CHtmlView::OnQuit
EXTRN	?OnVisible@CHtmlView@@UAEXH@Z:NEAR		; CHtmlView::OnVisible
EXTRN	?OnToolBar@CHtmlView@@UAEXH@Z:NEAR		; CHtmlView::OnToolBar
EXTRN	?OnMenuBar@CHtmlView@@UAEXH@Z:NEAR		; CHtmlView::OnMenuBar
EXTRN	?OnActivateView@CFormView@@MAEXHPAVCView@@0@Z:NEAR ; CFormView::OnActivateView
EXTRN	?OnStatusBar@CHtmlView@@UAEXH@Z:NEAR		; CHtmlView::OnStatusBar
EXTRN	?CalcWindowRect@CScrollView@@UAEXPAUtagRECT@@I@Z:NEAR ; CScrollView::CalcWindowRect
EXTRN	?OnActivateFrame@CFormView@@MAEXIPAVCFrameWnd@@@Z:NEAR ; CFormView::OnActivateFrame
EXTRN	?OnFullScreen@CHtmlView@@UAEXH@Z:NEAR		; CHtmlView::OnFullScreen
EXTRN	?OnTheaterMode@CHtmlView@@UAEXH@Z:NEAR		; CHtmlView::OnTheaterMode
EXTRN	?OnPrepareDC@CScrollView@@UAEXPAVCDC@@PAUCPrintInfo@@@Z:NEAR ; CScrollView::OnPrepareDC
EXTRN	?SetOccDialogInfo@CFormView@@MAEHPAU_AFX_OCC_DIALOG_INFO@@@Z:NEAR ; CFormView::SetOccDialogInfo
EXTRN	?GetWheelScrollDistance@CScrollView@@UAE?AVCSize@@V2@HH@Z:NEAR ; CScrollView::GetWheelScrollDistance
EXTRN	??1CHtmlView@@UAE@XZ:NEAR			; CHtmlView::~CHtmlView
EXTRN	?OnCreateAggregates@CCmdTarget@@UAEHXZ:NEAR	; CCmdTarget::OnCreateAggregates
EXTRN	?OnCommand@CWnd@@MAEHIJ@Z:NEAR			; CWnd::OnCommand
EXTRN	?OnDraw@CHtmlView@@UAEXPAVCDC@@@Z:NEAR		; CHtmlView::OnDraw
EXTRN	?OnScroll@CScrollView@@UAEHIIH@Z:NEAR		; CScrollView::OnScroll
EXTRN	?AssertValid@CHtmlView@@UBEXXZ:NEAR		; CHtmlView::AssertValid
EXTRN	?GetInterfaceHook@CCmdTarget@@UAEPAUIUnknown@@PBX@Z:NEAR ; CCmdTarget::GetInterfaceHook
EXTRN	?Dump@CHtmlView@@UBEXAAVCDumpContext@@@Z:NEAR	; CHtmlView::Dump
EXTRN	?OnNotify@CWnd@@MAEHIJPAJ@Z:NEAR		; CWnd::OnNotify
EXTRN	?OnScrollBy@CScrollView@@UAEHVCSize@@H@Z:NEAR	; CScrollView::OnScrollBy
EXTRN	??_EMyWebBrowserWnd@@UAEPAXI@Z:NEAR		; MyWebBrowserWnd::`vector deleting destructor'
EXTRN	?GetExtraConnectionPoints@CCmdTarget@@MAEHPAVCPtrArray@@@Z:NEAR ; CCmdTarget::GetExtraConnectionPoints
EXTRN	?GetConnectionHook@CCmdTarget@@MAEPAUIConnectionPoint@@ABU_GUID@@@Z:NEAR ; CCmdTarget::GetConnectionHook
EXTRN	?NavigateComplete2@CHtmlView@@MAEXPAUIDispatch@@PAUtagVARIANT@@@Z:NEAR ; CHtmlView::NavigateComplete2
EXTRN	?BeforeNavigate2@CHtmlView@@MAEXPAUIDispatch@@PAUtagVARIANT@@1111PAF@Z:NEAR ; CHtmlView::BeforeNavigate2
EXTRN	?DocumentComplete@CHtmlView@@MAEXPAUIDispatch@@PAUtagVARIANT@@@Z:NEAR ; CHtmlView::DocumentComplete
EXTRN	?NavigateError@CHtmlView@@MAEXPAUIDispatch@@PAUtagVARIANT@@11PAF@Z:NEAR ; CHtmlView::NavigateError
EXTRN	?PreSubclassWindow@CWnd@@UAEXXZ:NEAR		; CWnd::PreSubclassWindow
EXTRN	__imp_??0?$basic_string@DU?$char_traits@D@std@@V?$allocator@D@2@@std@@QAE@XZ:NEAR
EXTRN	?CreateEx@CWnd@@UAEHKPBD0KHHHHPAUHWND__@@PAUHMENU__@@PAX@Z:NEAR ; CWnd::CreateEx
EXTRN	?CreateEx@CWnd@@UAEHKPBD0KABUtagRECT@@PAV1@IPAX@Z:NEAR ; CWnd::CreateEx
EXTRN	__imp_??1?$basic_string@DU?$char_traits@D@std@@V?$allocator@D@2@@std@@QAE@XZ:NEAR
EXTRN	?Serialize@CObject@@UAEXAAVCArchive@@@Z:NEAR	; CObject::Serialize
EXTRN	?DestroyWindow@CWnd@@UAEHXZ:NEAR		; CWnd::DestroyWindow
EXTRN	?GetSuperWndProcAddr@CWnd@@MAEPAP6GJPAUHWND__@@IIJ@ZXZ:NEAR ; CWnd::GetSuperWndProcAddr
EXTRN	?DoDataExchange@CWnd@@MAEXPAVCDataExchange@@@Z:NEAR ; CWnd::DoDataExchange
EXTRN	?BeginModalState@CWnd@@UAEXXZ:NEAR		; CWnd::BeginModalState
EXTRN	?EndModalState@CWnd@@UAEXXZ:NEAR		; CWnd::EndModalState
EXTRN	?OnAmbientProperty@CWnd@@UAEHPAVCOleControlSite@@JPAUtagVARIANT@@@Z:NEAR ; CWnd::OnAmbientProperty
EXTRN	?WindowProc@CWnd@@MAEJIIJ@Z:NEAR		; CWnd::WindowProc
EXTRN	?OnWndMsg@CWnd@@MAEHIIJPAJ@Z:NEAR		; CWnd::OnWndMsg
EXTRN	?DefWindowProcA@CWnd@@MAEJIIJ@Z:NEAR		; CWnd::DefWindowProcA
EXTRN	?OnChildNotify@CWnd@@MAEHIIJPAJ@Z:NEAR		; CWnd::OnChildNotify
EXTRN	?CheckAutoCenter@CWnd@@UAEHXZ:NEAR		; CWnd::CheckAutoCenter
EXTRN	?IsFrameWnd@CWnd@@UBEHXZ:NEAR			; CWnd::IsFrameWnd
EXTRN	?OnFinalRelease@CWnd@@UAEXXZ:NEAR		; CWnd::OnFinalRelease
EXTRN	?CreateControlContainer@CWnd@@MAEHPAPAVCOleControlContainer@@@Z:NEAR ; CWnd::CreateControlContainer
EXTRN	?OnToolHitTest@CWnd@@UBEHVCPoint@@PAUtagTOOLINFOA@@@Z:NEAR ; CWnd::OnToolHitTest
EXTRN	__imp_??0?$CStringT@DV?$StrTraitMFC_DLL@DV?$ChTraitsCRT@D@ATL@@@@@ATL@@QAE@PBD@Z:NEAR
EXTRN	__imp_??1?$CStringT@DV?$StrTraitMFC_DLL@DV?$ChTraitsCRT@D@ATL@@@@@ATL@@QAE@XZ:NEAR
EXTRN	__except_list:DWORD
EXTRN	___CxxFrameHandler:NEAR
EXTRN	??0CFlashWnd@@QAE@XZ:NEAR			; CFlashWnd::CFlashWnd
EXTRN	??1CFlashWnd@@UAE@XZ:NEAR			; CFlashWnd::~CFlashWnd
EXTRN	?WinHelpA@CWnd@@UAEXKI@Z:NEAR			; CWnd::WinHelpA
EXTRN	?HtmlHelpA@CWnd@@UAEXKI@Z:NEAR			; CWnd::HtmlHelpA
EXTRN	??_7type_info@@6B@:QWORD			; type_info::`vftable'
EXTRN	?WinHelpInternal@CWnd@@UAEXKI@Z:NEAR		; CWnd::WinHelpInternal
EXTRN	?ContinueModal@CWnd@@UAEHXZ:NEAR		; CWnd::ContinueModal
EXTRN	?EndModalLoop@CWnd@@UAEXH@Z:NEAR		; CWnd::EndModalLoop
xdata$x	SEGMENT
$T197437 DD	0ffffffffH
	DD	FLAT:$L197426
	DD	00H
	DD	FLAT:$L197427
	DD	01H
	DD	FLAT:$L197428
	DD	02H
	DD	FLAT:$L197429
	DD	03H
	DD	FLAT:$L197430
$T197434 DD	019930520H
	DD	05H
	DD	FLAT:$T197437
	DD	2 DUP(00H)
	DD	2 DUP(00H)
xdata$x	ENDS
;	COMDAT ??_7MyWebBrowserWnd@@6BCHtmlView@@@
CONST	SEGMENT
??_7MyWebBrowserWnd@@6BCHtmlView@@@ DD FLAT:??_R4MyWebBrowserWnd@@6BCHtmlView@@@ ; MyWebBrowserWnd::`vftable'
	DD	FLAT:?GetRuntimeClass@MyWebBrowserWnd@@UBEPAUCRuntimeClass@@XZ
	DD	FLAT:??_EMyWebBrowserWnd@@UAEPAXI@Z
	DD	FLAT:?Serialize@CObject@@UAEXAAVCArchive@@@Z
	DD	FLAT:?AssertValid@CHtmlView@@UBEXXZ
	DD	FLAT:?Dump@CHtmlView@@UBEXAAVCDumpContext@@@Z
	DD	FLAT:?OnCmdMsg@CView@@UAEHIHPAXPAUAFX_CMDHANDLERINFO@@@Z
	DD	FLAT:?OnFinalRelease@CWnd@@UAEXXZ
	DD	FLAT:?IsInvokeAllowed@CCmdTarget@@UAEHJ@Z
	DD	FLAT:?GetDispatchIID@CCmdTarget@@UAEHPAU_GUID@@@Z
	DD	FLAT:?GetTypeInfoCount@CCmdTarget@@UAEIXZ
	DD	FLAT:?GetTypeLibCache@CCmdTarget@@UAEPAVCTypeLibCache@@XZ
	DD	FLAT:?GetTypeLib@CCmdTarget@@UAEJKPAPAUITypeLib@@@Z
	DD	FLAT:?GetMessageMap@MyWebBrowserWnd@@MBEPBUAFX_MSGMAP@@XZ
	DD	FLAT:?GetCommandMap@CCmdTarget@@MBEPBUAFX_OLECMDMAP@@XZ
	DD	FLAT:?GetDispatchMap@CCmdTarget@@MBEPBUAFX_DISPMAP@@XZ
	DD	FLAT:?GetConnectionMap@CCmdTarget@@MBEPBUAFX_CONNECTIONMAP@@XZ
	DD	FLAT:?GetInterfaceMap@CWnd@@MBEPBUAFX_INTERFACEMAP@@XZ
	DD	FLAT:?GetEventSinkMap@CHtmlView@@MBEPBUAFX_EVENTSINKMAP@@XZ
	DD	FLAT:?OnCreateAggregates@CCmdTarget@@UAEHXZ
	DD	FLAT:?GetInterfaceHook@CCmdTarget@@UAEPAUIUnknown@@PBX@Z
	DD	FLAT:?GetExtraConnectionPoints@CCmdTarget@@MAEHPAVCPtrArray@@@Z
	DD	FLAT:?GetConnectionHook@CCmdTarget@@MAEPAUIConnectionPoint@@ABU_GUID@@@Z
	DD	FLAT:?PreSubclassWindow@CWnd@@UAEXXZ
	DD	FLAT:?Create@MyWebBrowserWnd@@UAEHPBD0KABUtagRECT@@PAVCWnd@@IPAUCCreateContext@@@Z
	DD	FLAT:?CreateEx@CWnd@@UAEHKPBD0KABUtagRECT@@PAV1@IPAX@Z
	DD	FLAT:?CreateEx@CWnd@@UAEHKPBD0KHHHHPAUHWND__@@PAUHMENU__@@PAX@Z
	DD	FLAT:?DestroyWindow@CWnd@@UAEHXZ
	DD	FLAT:?PreCreateWindow@CHtmlView@@UAEHAAUtagCREATESTRUCTA@@@Z
	DD	FLAT:?CalcWindowRect@CScrollView@@UAEXPAUtagRECT@@I@Z
	DD	FLAT:?OnToolHitTest@CWnd@@UBEHVCPoint@@PAUtagTOOLINFOA@@@Z
	DD	FLAT:?GetScrollBarCtrl@CView@@UBEPAVCScrollBar@@H@Z
	DD	FLAT:?WinHelpA@CWnd@@UAEXKI@Z
	DD	FLAT:?HtmlHelpA@CWnd@@UAEXKI@Z
	DD	FLAT:?WinHelpInternal@CWnd@@UAEXKI@Z
	DD	FLAT:?ContinueModal@CWnd@@UAEHXZ
	DD	FLAT:?EndModalLoop@CWnd@@UAEXH@Z
	DD	FLAT:?EnsureStdObj@CWnd@@UAEJXZ
	DD	FLAT:?get_accParent@CWnd@@UAEJPAPAUIDispatch@@@Z
	DD	FLAT:?get_accChildCount@CFormView@@UAEJPAJ@Z
	DD	FLAT:?get_accChild@CFormView@@UAEJUtagVARIANT@@PAPAUIDispatch@@@Z
	DD	FLAT:?get_accName@CFormView@@UAEJUtagVARIANT@@PAPA_W@Z
	DD	FLAT:?get_accValue@CWnd@@UAEJUtagVARIANT@@PAPA_W@Z
	DD	FLAT:?get_accDescription@CWnd@@UAEJUtagVARIANT@@PAPA_W@Z
	DD	FLAT:?get_accRole@CWnd@@UAEJUtagVARIANT@@PAU2@@Z
	DD	FLAT:?get_accState@CWnd@@UAEJUtagVARIANT@@PAU2@@Z
	DD	FLAT:?get_accHelp@CWnd@@UAEJUtagVARIANT@@PAPA_W@Z
	DD	FLAT:?get_accHelpTopic@CWnd@@UAEJPAPA_WUtagVARIANT@@PAJ@Z
	DD	FLAT:?get_accKeyboardShortcut@CWnd@@UAEJUtagVARIANT@@PAPA_W@Z
	DD	FLAT:?get_accFocus@CWnd@@UAEJPAUtagVARIANT@@@Z
	DD	FLAT:?get_accSelection@CWnd@@UAEJPAUtagVARIANT@@@Z
	DD	FLAT:?get_accDefaultAction@CWnd@@UAEJUtagVARIANT@@PAPA_W@Z
	DD	FLAT:?accSelect@CWnd@@UAEJJUtagVARIANT@@@Z
	DD	FLAT:?accLocation@CFormView@@UAEJPAJ000UtagVARIANT@@@Z
	DD	FLAT:?accNavigate@CWnd@@UAEJJUtagVARIANT@@PAU2@@Z
	DD	FLAT:?accHitTest@CFormView@@UAEJJJPAUtagVARIANT@@@Z
	DD	FLAT:?accDoDefaultAction@CWnd@@UAEJUtagVARIANT@@@Z
	DD	FLAT:?put_accName@CWnd@@UAEJUtagVARIANT@@PA_W@Z
	DD	FLAT:?put_accValue@CWnd@@UAEJUtagVARIANT@@PA_W@Z
	DD	FLAT:?SetProxy@CWnd@@UAEJPAUIAccessibleProxy@@@Z
	DD	FLAT:?CreateAccessibleProxy@CWnd@@UAEJIJPAJ@Z
	DD	FLAT:?OnCommand@CWnd@@MAEHIJ@Z
	DD	FLAT:?OnNotify@CWnd@@MAEHIJPAJ@Z
	DD	FLAT:?GetSuperWndProcAddr@CWnd@@MAEPAP6GJPAUHWND__@@IIJ@ZXZ
	DD	FLAT:?DoDataExchange@CWnd@@MAEXPAVCDataExchange@@@Z
	DD	FLAT:?BeginModalState@CWnd@@UAEXXZ
	DD	FLAT:?EndModalState@CWnd@@UAEXXZ
	DD	FLAT:?PreTranslateMessage@MyWebBrowserWnd@@UAEHPAUtagMSG@@@Z
	DD	FLAT:?OnAmbientProperty@CWnd@@UAEHPAVCOleControlSite@@JPAUtagVARIANT@@@Z
	DD	FLAT:?WindowProc@CWnd@@MAEJIIJ@Z
	DD	FLAT:?OnWndMsg@CWnd@@MAEHIIJPAJ@Z
	DD	FLAT:?DefWindowProcA@CWnd@@MAEJIIJ@Z
	DD	FLAT:?PostNcDestroy@CView@@MAEXXZ
	DD	FLAT:?OnChildNotify@CWnd@@MAEHIIJPAJ@Z
	DD	FLAT:?CheckAutoCenter@CWnd@@UAEHXZ
	DD	FLAT:?IsFrameWnd@CWnd@@UBEHXZ
	DD	FLAT:?CreateControlContainer@CWnd@@MAEHPAPAVCOleControlContainer@@@Z
	DD	FLAT:?CreateControlSite@MyWebBrowserWnd@@UAEHPAVCOleControlContainer@@PAPAVCOleControlSite@@IABU_GUID@@@Z
	DD	FLAT:?SetOccDialogInfo@CFormView@@MAEHPAU_AFX_OCC_DIALOG_INFO@@@Z
	DD	FLAT:?IsSelected@CView@@UBEHPBVCObject@@@Z
	DD	FLAT:?OnScroll@CScrollView@@UAEHIIH@Z
	DD	FLAT:?OnScrollBy@CScrollView@@UAEHVCSize@@H@Z
	DD	FLAT:?OnDragEnter@CView@@UAEKPAVCOleDataObject@@KVCPoint@@@Z
	DD	FLAT:?OnDragOver@CView@@UAEKPAVCOleDataObject@@KVCPoint@@@Z
	DD	FLAT:?OnDragLeave@CView@@UAEXXZ
	DD	FLAT:?OnDrop@CView@@UAEHPAVCOleDataObject@@KVCPoint@@@Z
	DD	FLAT:?OnDropEx@CView@@UAEKPAVCOleDataObject@@KKVCPoint@@@Z
	DD	FLAT:?OnDragScroll@CView@@UAEKKVCPoint@@@Z
	DD	FLAT:?OnPrepareDC@CScrollView@@UAEXPAVCDC@@PAUCPrintInfo@@@Z
	DD	FLAT:?OnInitialUpdate@CFormView@@UAEXXZ
	DD	FLAT:?OnActivateView@CFormView@@MAEXHPAVCView@@0@Z
	DD	FLAT:?OnActivateFrame@CFormView@@MAEXIPAVCFrameWnd@@@Z
	DD	FLAT:?OnUpdate@CView@@MAEXPAV1@JPAVCObject@@@Z
	DD	FLAT:?OnDraw@CHtmlView@@UAEXPAVCDC@@@Z
	DD	FLAT:?OnPreparePrinting@CView@@MAEHPAUCPrintInfo@@@Z
	DD	FLAT:?OnBeginPrinting@CView@@MAEXPAVCDC@@PAUCPrintInfo@@@Z
	DD	FLAT:?OnPrint@CView@@MAEXPAVCDC@@PAUCPrintInfo@@@Z
	DD	FLAT:?OnEndPrinting@CView@@MAEXPAVCDC@@PAUCPrintInfo@@@Z
	DD	FLAT:?OnEndPrintPreview@CView@@MAEXPAVCDC@@PAUCPrintInfo@@UtagPOINT@@PAVCPreviewView@@@Z
	DD	FLAT:?GetWheelScrollDistance@CScrollView@@UAE?AVCSize@@V2@HH@Z
	DD	FLAT:?OnShowContextMenu@CHtmlView@@UAEJKPAUtagPOINT@@PAUIUnknown@@PAUIDispatch@@@Z
	DD	FLAT:?OnGetExternal@CHtmlView@@UAEJPAPAUIDispatch@@@Z
	DD	FLAT:?OnGetHostInfo@CHtmlView@@UAEJPAU_DOCHOSTUIINFO@@@Z
	DD	FLAT:?OnShowUI@CHtmlView@@UAEJKPAUIOleInPlaceActiveObject@@PAUIOleCommandTarget@@PAUIOleInPlaceFrame@@PAUIOleInPlaceUIWindow@@@Z
	DD	FLAT:?OnHideUI@CHtmlView@@UAEJXZ
	DD	FLAT:?OnUpdateUI@CHtmlView@@UAEJXZ
	DD	FLAT:?OnEnableModeless@CHtmlView@@UAEJH@Z
	DD	FLAT:?OnDocWindowActivate@CHtmlView@@UAEJH@Z
	DD	FLAT:?OnFrameWindowActivate@CHtmlView@@UAEJH@Z
	DD	FLAT:?OnResizeBorder@CHtmlView@@UAEJPBUtagRECT@@PAUIOleInPlaceUIWindow@@H@Z
	DD	FLAT:?OnTranslateAccelerator@CHtmlView@@UAEJPAUtagMSG@@PBU_GUID@@K@Z
	DD	FLAT:?OnGetOptionKeyPath@CHtmlView@@UAEJPAPA_WK@Z
	DD	FLAT:?OnFilterDataObject@CHtmlView@@UAEJPAUIDataObject@@PAPAU2@@Z
	DD	FLAT:?OnTranslateUrl@CHtmlView@@UAEJKPA_WPAPA_W@Z
	DD	FLAT:?OnGetDropTarget@CHtmlView@@UAEJPAUIDropTarget@@PAPAU2@@Z
	DD	FLAT:?OnNavigateComplete2@MyWebBrowserWnd@@UAEXPBD@Z
	DD	FLAT:?OnBeforeNavigate2@CHtmlView@@UAEXPBDK0AAVCByteArray@@0PAH@Z
	DD	FLAT:?OnStatusTextChange@CHtmlView@@UAEXPBD@Z
	DD	FLAT:?OnProgressChange@CHtmlView@@UAEXJJ@Z
	DD	FLAT:?OnCommandStateChange@CHtmlView@@UAEXJH@Z
	DD	FLAT:?OnDownloadBegin@CHtmlView@@UAEXXZ
	DD	FLAT:?OnDownloadComplete@CHtmlView@@UAEXXZ
	DD	FLAT:?OnTitleChange@CHtmlView@@UAEXPBD@Z
	DD	FLAT:?OnPropertyChange@CHtmlView@@UAEXPBD@Z
	DD	FLAT:?OnNewWindow2@CHtmlView@@UAEXPAPAUIDispatch@@PAH@Z
	DD	FLAT:?OnDocumentComplete@MyWebBrowserWnd@@UAEXPBD@Z
	DD	FLAT:?OnQuit@CHtmlView@@UAEXXZ
	DD	FLAT:?OnVisible@CHtmlView@@UAEXH@Z
	DD	FLAT:?OnToolBar@CHtmlView@@UAEXH@Z
	DD	FLAT:?OnMenuBar@CHtmlView@@UAEXH@Z
	DD	FLAT:?OnStatusBar@CHtmlView@@UAEXH@Z
	DD	FLAT:?OnFullScreen@CHtmlView@@UAEXH@Z
	DD	FLAT:?OnTheaterMode@CHtmlView@@UAEXH@Z
	DD	FLAT:?OnNavigateError@MyWebBrowserWnd@@UAEXPBD0KPAH@Z
	DD	FLAT:?NavigateComplete2@CHtmlView@@MAEXPAUIDispatch@@PAUtagVARIANT@@@Z
	DD	FLAT:?BeforeNavigate2@CHtmlView@@MAEXPAUIDispatch@@PAUtagVARIANT@@1111PAF@Z
	DD	FLAT:?DocumentComplete@CHtmlView@@MAEXPAUIDispatch@@PAUtagVARIANT@@@Z
	DD	FLAT:?NavigateError@CHtmlView@@MAEXPAUIDispatch@@PAUtagVARIANT@@11PAF@Z
CONST	ENDS
;	COMDAT ??_7MyWebBrowserWnd@@6BIWebRefreshObserver@@@
CONST	SEGMENT
??_7MyWebBrowserWnd@@6BIWebRefreshObserver@@@ DD FLAT:??_R4MyWebBrowserWnd@@6BIWebRefreshObserver@@@ ; MyWebBrowserWnd::`vftable'
	DD	FLAT:??_EMyWebBrowserWnd@@WPA@AEPAXI@Z
	DD	FLAT:?IWebRefreshOb_Refresh@MyWebBrowserWnd@@UAEXPBD@Z
CONST	ENDS
;	COMDAT ??_R4MyWebBrowserWnd@@6BCHtmlView@@@
rdata$r	SEGMENT
??_R4MyWebBrowserWnd@@6BCHtmlView@@@ DD 00H		; MyWebBrowserWnd::`RTTI Complete Object Locator'
	DD	00H
	DD	00H
	DD	FLAT:??_R0?AVMyWebBrowserWnd@@@8
	DD	FLAT:??_R3MyWebBrowserWnd@@8
rdata$r	ENDS
;	COMDAT ??_R0?AVMyWebBrowserWnd@@@8
_DATA	SEGMENT
??_R0?AVMyWebBrowserWnd@@@8 DD FLAT:??_7type_info@@6B@	; MyWebBrowserWnd `RTTI Type Descriptor'
	DD	00H
	DB	'.?AVMyWebBrowserWnd@@', 00H
_DATA	ENDS
;	COMDAT ??_R3MyWebBrowserWnd@@8
rdata$r	SEGMENT
??_R3MyWebBrowserWnd@@8 DD 00H				; MyWebBrowserWnd::`RTTI Class Hierarchy Descriptor'
	DD	01H
	DD	0aH
	DD	FLAT:??_R2MyWebBrowserWnd@@8
rdata$r	ENDS
;	COMDAT ??_R2MyWebBrowserWnd@@8
rdata$r	SEGMENT
??_R2MyWebBrowserWnd@@8 DD FLAT:??_R1A@?0A@A@MyWebBrowserWnd@@8 ; MyWebBrowserWnd::`RTTI Base Class Array'
	DD	FLAT:??_R1A@?0A@A@CHtmlView@@8
	DD	FLAT:??_R1A@?0A@A@CFormView@@8
	DD	FLAT:??_R1A@?0A@A@CScrollView@@8
	DD	FLAT:??_R1A@?0A@A@CView@@8
	DD	FLAT:??_R1A@?0A@A@CWnd@@8
	DD	FLAT:??_R1A@?0A@A@CCmdTarget@@8
	DD	FLAT:??_R1A@?0A@A@CObject@@8
	DD	FLAT:??_R1PA@?0A@A@IWebRefreshObserver@@8
	DD	FLAT:??_R1PA@?0A@A@IMessageObserver@@8
rdata$r	ENDS
;	COMDAT ??_R1A@?0A@A@MyWebBrowserWnd@@8
rdata$r	SEGMENT
??_R1A@?0A@A@MyWebBrowserWnd@@8 DD FLAT:??_R0?AVMyWebBrowserWnd@@@8 ; MyWebBrowserWnd::`RTTI Base Class Descriptor at (0,-1,0,0)'
	DD	09H
	DD	00H
	DD	0ffffffffH
	DD	00H
	DD	00H
rdata$r	ENDS
;	COMDAT ??_R1A@?0A@A@CHtmlView@@8
rdata$r	SEGMENT
??_R1A@?0A@A@CHtmlView@@8 DD FLAT:??_R0?AVCHtmlView@@@8	; CHtmlView::`RTTI Base Class Descriptor at (0,-1,0,0)'
	DD	06H
	DD	00H
	DD	0ffffffffH
	DD	00H
	DD	00H
rdata$r	ENDS
;	COMDAT ??_R0?AVCHtmlView@@@8
_DATA	SEGMENT
??_R0?AVCHtmlView@@@8 DD FLAT:??_7type_info@@6B@	; CHtmlView `RTTI Type Descriptor'
	DD	00H
	DB	'.?AVCHtmlView@@', 00H
_DATA	ENDS
;	COMDAT ??_R1A@?0A@A@CFormView@@8
rdata$r	SEGMENT
??_R1A@?0A@A@CFormView@@8 DD FLAT:??_R0?AVCFormView@@@8	; CFormView::`RTTI Base Class Descriptor at (0,-1,0,0)'
	DD	05H
	DD	00H
	DD	0ffffffffH
	DD	00H
	DD	00H
rdata$r	ENDS
;	COMDAT ??_R0?AVCFormView@@@8
_DATA	SEGMENT
??_R0?AVCFormView@@@8 DD FLAT:??_7type_info@@6B@	; CFormView `RTTI Type Descriptor'
	DD	00H
	DB	'.?AVCFormView@@', 00H
_DATA	ENDS
;	COMDAT ??_R1A@?0A@A@CScrollView@@8
rdata$r	SEGMENT
??_R1A@?0A@A@CScrollView@@8 DD FLAT:??_R0?AVCScrollView@@@8 ; CScrollView::`RTTI Base Class Descriptor at (0,-1,0,0)'
	DD	04H
	DD	00H
	DD	0ffffffffH
	DD	00H
	DD	00H
rdata$r	ENDS
;	COMDAT ??_R0?AVCScrollView@@@8
_DATA	SEGMENT
??_R0?AVCScrollView@@@8 DD FLAT:??_7type_info@@6B@	; CScrollView `RTTI Type Descriptor'
	DD	00H
	DB	'.?AVCScrollView@@', 00H
_DATA	ENDS
;	COMDAT ??_R1A@?0A@A@CView@@8
rdata$r	SEGMENT
??_R1A@?0A@A@CView@@8 DD FLAT:??_R0?AVCView@@@8		; CView::`RTTI Base Class Descriptor at (0,-1,0,0)'
	DD	03H
	DD	00H
	DD	0ffffffffH
	DD	00H
	DD	00H
rdata$r	ENDS
;	COMDAT ??_R0?AVCView@@@8
_DATA	SEGMENT
??_R0?AVCView@@@8 DD FLAT:??_7type_info@@6B@		; CView `RTTI Type Descriptor'
	DD	00H
	DB	'.?AVCView@@', 00H
_DATA	ENDS
;	COMDAT ??_R1A@?0A@A@CWnd@@8
rdata$r	SEGMENT
??_R1A@?0A@A@CWnd@@8 DD FLAT:??_R0?AVCWnd@@@8		; CWnd::`RTTI Base Class Descriptor at (0,-1,0,0)'
	DD	02H
	DD	00H
	DD	0ffffffffH
	DD	00H
	DD	00H
rdata$r	ENDS
;	COMDAT ??_R0?AVCWnd@@@8
_DATA	SEGMENT
??_R0?AVCWnd@@@8 DD FLAT:??_7type_info@@6B@		; CWnd `RTTI Type Descriptor'
	DD	00H
	DB	'.?AVCWnd@@', 00H
_DATA	ENDS
;	COMDAT ??_R1A@?0A@A@CCmdTarget@@8
rdata$r	SEGMENT
??_R1A@?0A@A@CCmdTarget@@8 DD FLAT:??_R0?AVCCmdTarget@@@8 ; CCmdTarget::`RTTI Base Class Descriptor at (0,-1,0,0)'
	DD	01H
	DD	00H
	DD	0ffffffffH
	DD	00H
	DD	00H
rdata$r	ENDS
;	COMDAT ??_R0?AVCCmdTarget@@@8
_DATA	SEGMENT
??_R0?AVCCmdTarget@@@8 DD FLAT:??_7type_info@@6B@	; CCmdTarget `RTTI Type Descriptor'
	DD	00H
	DB	'.?AVCCmdTarget@@', 00H
_DATA	ENDS
;	COMDAT ??_R1A@?0A@A@CObject@@8
rdata$r	SEGMENT
??_R1A@?0A@A@CObject@@8 DD FLAT:??_R0?AVCObject@@@8	; CObject::`RTTI Base Class Descriptor at (0,-1,0,0)'
	DD	00H
	DD	00H
	DD	0ffffffffH
	DD	00H
	DD	00H
rdata$r	ENDS
;	COMDAT ??_R0?AVCObject@@@8
_DATA	SEGMENT
??_R0?AVCObject@@@8 DD FLAT:??_7type_info@@6B@		; CObject `RTTI Type Descriptor'
	DD	00H
	DB	'.?AVCObject@@', 00H
_DATA	ENDS
;	COMDAT ??_R1PA@?0A@A@IWebRefreshObserver@@8
rdata$r	SEGMENT
??_R1PA@?0A@A@IWebRefreshObserver@@8 DD FLAT:??_R0?AVIWebRefreshObserver@@@8 ; IWebRefreshObserver::`RTTI Base Class Descriptor at (240,-1,0,0)'
	DD	01H
	DD	0f0H
	DD	0ffffffffH
	DD	00H
	DD	00H
rdata$r	ENDS
;	COMDAT ??_R0?AVIWebRefreshObserver@@@8
_DATA	SEGMENT
??_R0?AVIWebRefreshObserver@@@8 DD FLAT:??_7type_info@@6B@ ; IWebRefreshObserver `RTTI Type Descriptor'
	DD	00H
	DB	'.?AVIWebRefreshObserver@@', 00H
_DATA	ENDS
;	COMDAT ??_R1PA@?0A@A@IMessageObserver@@8
rdata$r	SEGMENT
??_R1PA@?0A@A@IMessageObserver@@8 DD FLAT:??_R0?AVIMessageObserver@@@8 ; IMessageObserver::`RTTI Base Class Descriptor at (240,-1,0,0)'
	DD	00H
	DD	0f0H
	DD	0ffffffffH
	DD	00H
	DD	00H
rdata$r	ENDS
;	COMDAT ??_R0?AVIMessageObserver@@@8
_DATA	SEGMENT
??_R0?AVIMessageObserver@@@8 DD FLAT:??_7type_info@@6B@	; IMessageObserver `RTTI Type Descriptor'
	DD	00H
	DB	'.?AVIMessageObserver@@', 00H
	ORG $-31
	DD	FLAT:??_7type_info@@6B@
	DD	00H
	DB	'.?AVIMessageObserver@@', 00H
_DATA	ENDS
;	COMDAT ??_R4MyWebBrowserWnd@@6BIWebRefreshObserver@@@
rdata$r	SEGMENT
??_R4MyWebBrowserWnd@@6BIWebRefreshObserver@@@ DD 00H	; MyWebBrowserWnd::`RTTI Complete Object Locator'
	DD	0f0H
	DD	00H
	DD	FLAT:??_R0?AVMyWebBrowserWnd@@@8
	DD	FLAT:??_R3MyWebBrowserWnd@@8
; Function compile flags: /Odt /RTCsu
rdata$r	ENDS
_TEXT	SEGMENT
tv136 = -24						; size = 4
tv142 = -20						; size = 4
_this$ = -16						; size = 4
__$EHRec$ = -12						; size = 12
_bShowLoading$ = 8					; size = 4
??0MyWebBrowserWnd@@QAE@H@Z PROC NEAR			; MyWebBrowserWnd::MyWebBrowserWnd
; _this$ = ecx

; 28   : {

  00030	55		 push	 ebp
  00031	8b ec		 mov	 ebp, esp
  00033	6a ff		 push	 -1
  00035	68 00 00 00 00	 push	 __ehhandler$??0MyWebBrowserWnd@@QAE@H@Z
  0003a	64 a1 00 00 00
	00		 mov	 eax, DWORD PTR fs:__except_list
  00040	50		 push	 eax
  00041	64 89 25 00 00
	00 00		 mov	 DWORD PTR fs:__except_list, esp
  00048	83 ec 0c	 sub	 esp, 12			; 0000000cH
  0004b	56		 push	 esi
  0004c	c7 45 e8 cc cc
	cc cc		 mov	 DWORD PTR [ebp-24], -858993460 ; ccccccccH
  00053	c7 45 ec cc cc
	cc cc		 mov	 DWORD PTR [ebp-20], -858993460 ; ccccccccH
  0005a	c7 45 f0 cc cc
	cc cc		 mov	 DWORD PTR [ebp-16], -858993460 ; ccccccccH
  00061	89 4d f0	 mov	 DWORD PTR _this$[ebp], ecx
  00064	8b 4d f0	 mov	 ecx, DWORD PTR _this$[ebp]
  00067	e8 00 00 00 00	 call	 ??0CHtmlView@@IAE@XZ	; CHtmlView::CHtmlView
  0006c	c7 45 fc 00 00
	00 00		 mov	 DWORD PTR __$EHRec$[ebp+8], 0
  00073	8b 4d f0	 mov	 ecx, DWORD PTR _this$[ebp]
  00076	81 c1 f0 00 00
	00		 add	 ecx, 240		; 000000f0H
  0007c	e8 00 00 00 00	 call	 ??0IWebRefreshObserver@@QAE@XZ
  00081	c6 45 fc 01	 mov	 BYTE PTR __$EHRec$[ebp+8], 1
  00085	8b 45 f0	 mov	 eax, DWORD PTR _this$[ebp]
  00088	c7 00 00 00 00
	00		 mov	 DWORD PTR [eax], OFFSET FLAT:??_7MyWebBrowserWnd@@6BCHtmlView@@@
  0008e	8b 4d f0	 mov	 ecx, DWORD PTR _this$[ebp]
  00091	c7 81 f0 00 00
	00 00 00 00 00	 mov	 DWORD PTR [ecx+240], OFFSET FLAT:??_7MyWebBrowserWnd@@6BIWebRefreshObserver@@@
  0009b	8b f4		 mov	 esi, esp
  0009d	68 00 00 00 00	 push	 OFFSET FLAT:$SG195881
  000a2	8b 4d f0	 mov	 ecx, DWORD PTR _this$[ebp]
  000a5	81 c1 00 01 00
	00		 add	 ecx, 256		; 00000100H
  000ab	ff 15 00 00 00
	00		 call	 DWORD PTR __imp_??0?$CStringT@DV?$StrTraitMFC_DLL@DV?$ChTraitsCRT@D@ATL@@@@@ATL@@QAE@PBD@Z
  000b1	3b f4		 cmp	 esi, esp
  000b3	e8 00 00 00 00	 call	 __RTC_CheckEsp
  000b8	c6 45 fc 02	 mov	 BYTE PTR __$EHRec$[ebp+8], 2
  000bc	8b 4d f0	 mov	 ecx, DWORD PTR _this$[ebp]
  000bf	81 c1 04 01 00
	00		 add	 ecx, 260		; 00000104H
  000c5	e8 00 00 00 00	 call	 ??0CFlashWnd@@QAE@XZ	; CFlashWnd::CFlashWnd
  000ca	c6 45 fc 03	 mov	 BYTE PTR __$EHRec$[ebp+8], 3
  000ce	8b 4d f0	 mov	 ecx, DWORD PTR _this$[ebp]
  000d1	81 c1 cc 01 00
	00		 add	 ecx, 460		; 000001ccH
  000d7	8b f4		 mov	 esi, esp
  000d9	ff 15 00 00 00
	00		 call	 DWORD PTR __imp_??0?$basic_string@DU?$char_traits@D@std@@V?$allocator@D@2@@std@@QAE@XZ
  000df	3b f4		 cmp	 esi, esp
  000e1	e8 00 00 00 00	 call	 __RTC_CheckEsp
  000e6	c6 45 fc 04	 mov	 BYTE PTR __$EHRec$[ebp+8], 4

; 29   : 	m_bSucceed = TRUE;

  000ea	8b 55 f0	 mov	 edx, DWORD PTR _this$[ebp]
  000ed	c7 82 f4 00 00
	00 01 00 00 00	 mov	 DWORD PTR [edx+244], 1

; 30   : 	m_bReady = FALSE;

  000f7	8b 45 f0	 mov	 eax, DWORD PTR _this$[ebp]
  000fa	c7 80 f8 00 00
	00 00 00 00 00	 mov	 DWORD PTR [eax+248], 0

; 31   : 	m_dwStartShowTime = 0;

  00104	8b 4d f0	 mov	 ecx, DWORD PTR _this$[ebp]
  00107	c7 81 fc 00 00
	00 00 00 00 00	 mov	 DWORD PTR [ecx+252], 0

; 32   : 	m_bHomePage = false; //

  00111	8b 55 f0	 mov	 edx, DWORD PTR _this$[ebp]
  00114	c6 82 c4 01 00
	00 00		 mov	 BYTE PTR [edx+452], 0

; 33   : 	m_bShowLoading = bShowLoading;

  0011b	8b 45 f0	 mov	 eax, DWORD PTR _this$[ebp]
  0011e	8b 4d 08	 mov	 ecx, DWORD PTR _bShowLoading$[ebp]
  00121	89 88 c0 01 00
	00		 mov	 DWORD PTR [eax+448], ecx

; 34   : 	AfxGetMessageManager()->AttachMessage(ID_MESSAGE_REFRESH, (IWebRefreshObserver*)this);

  00127	83 7d f0 00	 cmp	 DWORD PTR _this$[ebp], 0
  0012b	74 0e		 je	 SHORT $L197424
  0012d	8b 55 f0	 mov	 edx, DWORD PTR _this$[ebp]
  00130	81 c2 f0 00 00
	00		 add	 edx, 240		; 000000f0H
  00136	89 55 ec	 mov	 DWORD PTR tv142[ebp], edx
  00139	eb 07		 jmp	 SHORT $L197425
$L197424:
  0013b	c7 45 ec 00 00
	00 00		 mov	 DWORD PTR tv142[ebp], 0
$L197425:
  00142	e8 00 00 00 00	 call	 ?AfxGetMessageManager@@YAPAVIMessageManager@@XZ ; AfxGetMessageManager
  00147	89 45 e8	 mov	 DWORD PTR tv136[ebp], eax
  0014a	8b f4		 mov	 esi, esp
  0014c	6a 02		 push	 2
  0014e	8b 45 ec	 mov	 eax, DWORD PTR tv142[ebp]
  00151	50		 push	 eax
  00152	68 00 00 00 00	 push	 OFFSET FLAT:_ID_MESSAGE_REFRESH
  00157	8b 4d e8	 mov	 ecx, DWORD PTR tv136[ebp]
  0015a	8b 11		 mov	 edx, DWORD PTR [ecx]
  0015c	8b 4d e8	 mov	 ecx, DWORD PTR tv136[ebp]
  0015f	ff 52 04	 call	 DWORD PTR [edx+4]
  00162	3b f4		 cmp	 esi, esp
  00164	e8 00 00 00 00	 call	 __RTC_CheckEsp

; 35   : }

  00169	c7 45 fc ff ff
	ff ff		 mov	 DWORD PTR __$EHRec$[ebp+8], -1
  00170	8b 45 f0	 mov	 eax, DWORD PTR _this$[ebp]
  00173	8b 4d f4	 mov	 ecx, DWORD PTR __$EHRec$[ebp]
  00176	64 89 0d 00 00
	00 00		 mov	 DWORD PTR fs:__except_list, ecx
  0017d	5e		 pop	 esi
  0017e	83 c4 18	 add	 esp, 24			; 00000018H
  00181	3b ec		 cmp	 ebp, esp
  00183	e8 00 00 00 00	 call	 __RTC_CheckEsp
  00188	8b e5		 mov	 esp, ebp
  0018a	5d		 pop	 ebp
  0018b	c2 04 00	 ret	 4
_TEXT	ENDS
text$x	SEGMENT
$L197426:
  00000	8b 4d f0	 mov	 ecx, DWORD PTR _this$[ebp]
  00003	e9 00 00 00 00	 jmp	 ??1CHtmlView@@UAE@XZ	; CHtmlView::~CHtmlView
$L197427:
  00008	8b 4d f0	 mov	 ecx, DWORD PTR _this$[ebp]
  0000b	81 c1 f0 00 00
	00		 add	 ecx, 240		; 000000f0H
  00011	e9 00 00 00 00	 jmp	 ??1IWebRefreshObserver@@UAE@XZ
$L197428:
  00016	8b 4d f0	 mov	 ecx, DWORD PTR _this$[ebp]
  00019	81 c1 00 01 00
	00		 add	 ecx, 256		; 00000100H
  0001f	8b f4		 mov	 esi, esp
  00021	ff 15 00 00 00
	00		 call	 DWORD PTR __imp_??1?$CStringT@DV?$StrTraitMFC_DLL@DV?$ChTraitsCRT@D@ATL@@@@@ATL@@QAE@XZ
  00027	3b f4		 cmp	 esi, esp
  00029	e9 00 00 00 00	 jmp	 __RTC_CheckEsp
$L197429:
  0002e	8b 4d f0	 mov	 ecx, DWORD PTR _this$[ebp]
  00031	81 c1 04 01 00
	00		 add	 ecx, 260		; 00000104H
  00037	e9 00 00 00 00	 jmp	 ??1CFlashWnd@@UAE@XZ	; CFlashWnd::~CFlashWnd
$L197430:
  0003c	8b 4d f0	 mov	 ecx, DWORD PTR _this$[ebp]
  0003f	81 c1 cc 01 00
	00		 add	 ecx, 460		; 000001ccH
  00045	8b f4		 mov	 esi, esp
  00047	ff 15 00 00 00
	00		 call	 DWORD PTR __imp_??1?$basic_string@DU?$char_traits@D@std@@V?$allocator@D@2@@std@@QAE@XZ
  0004d	3b f4		 cmp	 esi, esp
  0004f	e9 00 00 00 00	 jmp	 __RTC_CheckEsp
__ehhandler$??0MyWebBrowserWnd@@QAE@H@Z:
  00054	b8 00 00 00 00	 mov	 eax, OFFSET FLAT:$T197434
  00059	e9 00 00 00 00	 jmp	 ___CxxFrameHandler
text$x	ENDS
??0MyWebBrowserWnd@@QAE@H@Z ENDP			; MyWebBrowserWnd::MyWebBrowserWnd
PUBLIC	??1MyWebBrowserWnd@@UAE@XZ			; MyWebBrowserWnd::~MyWebBrowserWnd
EXTRN	??3CObject@@SGXPAX@Z:NEAR			; CObject::operator delete
; Function compile flags: /Odt /RTCsu
;	COMDAT ??_GMyWebBrowserWnd@@UAEPAXI@Z
_TEXT	SEGMENT
_this$ = -4						; size = 4
___flags$ = 8						; size = 4
??_GMyWebBrowserWnd@@UAEPAXI@Z PROC NEAR		; MyWebBrowserWnd::`scalar deleting destructor', COMDAT
; _this$ = ecx
  00000	55		 push	 ebp
  00001	8b ec		 mov	 ebp, esp
  00003	51		 push	 ecx
  00004	c7 45 fc cc cc
	cc cc		 mov	 DWORD PTR [ebp-4], -858993460 ; ccccccccH
  0000b	89 4d fc	 mov	 DWORD PTR _this$[ebp], ecx
  0000e	8b 4d fc	 mov	 ecx, DWORD PTR _this$[ebp]
  00011	e8 00 00 00 00	 call	 ??1MyWebBrowserWnd@@UAE@XZ ; MyWebBrowserWnd::~MyWebBrowserWnd
  00016	8b 45 08	 mov	 eax, DWORD PTR ___flags$[ebp]
  00019	83 e0 01	 and	 eax, 1
  0001c	74 09		 je	 SHORT $L195886
  0001e	8b 4d fc	 mov	 ecx, DWORD PTR _this$[ebp]
  00021	51		 push	 ecx
  00022	e8 00 00 00 00	 call	 ??3CObject@@SGXPAX@Z	; CObject::operator delete
$L195886:
  00027	8b 45 fc	 mov	 eax, DWORD PTR _this$[ebp]
  0002a	83 c4 04	 add	 esp, 4
  0002d	3b ec		 cmp	 ebp, esp
  0002f	e8 00 00 00 00	 call	 __RTC_CheckEsp
  00034	8b e5		 mov	 esp, ebp
  00036	5d		 pop	 ebp
  00037	c2 04 00	 ret	 4
??_GMyWebBrowserWnd@@UAEPAXI@Z ENDP			; MyWebBrowserWnd::`scalar deleting destructor'
_TEXT	ENDS
PUBLIC	?_AtlInstallStringThunk@ATL@@YAXPAPAXPAX1@Z	; ATL::_AtlInstallStringThunk
PUBLIC	?GetEnvironmentVariableWFake@ATL@@YGKPB_WPA_WK@Z ; ATL::GetEnvironmentVariableWFake
EXTRN	__imp__GetEnvironmentVariableW@12:NEAR
; Function compile flags: /Odt /RTCsu
; File d:\program files (x86)\microsoft visual studio .net 2003\vc7\atlmfc\include\cstringt.h
;	COMDAT ?GetEnvironmentVariableWThunk@ATL@@YGKPB_WPA_WK@Z
_TEXT	SEGMENT
_pszName$ = 8						; size = 4
_pszBuffer$ = 12					; size = 4
_nSize$ = 16						; size = 4
?GetEnvironmentVariableWThunk@ATL@@YGKPB_WPA_WK@Z PROC NEAR ; ATL::GetEnvironmentVariableWThunk, COMDAT

; 183  : {

  00000	55		 push	 ebp
  00001	8b ec		 mov	 ebp, esp
  00003	56		 push	 esi

; 184  : 	_AtlInstallStringThunk(reinterpret_cast<void**>(&_strthunks.pfnGetEnvironmentVariableW), 
; 185  : 		GetEnvironmentVariableWFake, ::GetEnvironmentVariableW);

  00004	a1 00 00 00 00	 mov	 eax, DWORD PTR __imp__GetEnvironmentVariableW@12
  00009	50		 push	 eax
  0000a	68 00 00 00 00	 push	 OFFSET FLAT:?GetEnvironmentVariableWFake@ATL@@YGKPB_WPA_WK@Z ; ATL::GetEnvironmentVariableWFake
  0000f	68 14 00 00 00	 push	 OFFSET FLAT:?_strthunks@ATL@@3U_AtlStringThunks@1@A+20
  00014	e8 00 00 00 00	 call	 ?_AtlInstallStringThunk@ATL@@YAXPAPAXPAX1@Z ; ATL::_AtlInstallStringThunk
  00019	83 c4 0c	 add	 esp, 12			; 0000000cH

; 186  : 
; 187  : 	return _strthunks.pfnGetEnvironmentVariableW(pszName, pszBuffer, nSize);

  0001c	8b f4		 mov	 esi, esp
  0001e	8b 4d 10	 mov	 ecx, DWORD PTR _nSize$[ebp]
  00021	51		 push	 ecx
  00022	8b 55 0c	 mov	 edx, DWORD PTR _pszBuffer$[ebp]
  00025	52		 push	 edx
  00026	8b 45 08	 mov	 eax, DWORD PTR _pszName$[ebp]
  00029	50		 push	 eax
  0002a	ff 15 14 00 00
	00		 call	 DWORD PTR ?_strthunks@ATL@@3U_AtlStringThunks@1@A+20
  00030	3b f4		 cmp	 esi, esp
  00032	e8 00 00 00 00	 call	 __RTC_CheckEsp

; 188  : }

  00037	5e		 pop	 esi
  00038	3b ec		 cmp	 ebp, esp
  0003a	e8 00 00 00 00	 call	 __RTC_CheckEsp
  0003f	5d		 pop	 ebp
  00040	c2 0c 00	 ret	 12			; 0000000cH
?GetEnvironmentVariableWThunk@ATL@@YGKPB_WPA_WK@Z ENDP	; ATL::GetEnvironmentVariableWThunk
_TEXT	ENDS
PUBLIC	?s_bWin9x@?1??_AtlInstallStringThunk@ATL@@YAXPAPAXPAX1@Z@4_NA ; `ATL::_AtlInstallStringThunk'::`2'::s_bWin9x
PUBLIC	??_B?1??_AtlInstallStringThunk@ATL@@YAXPAPAXPAX1@Z@51 ; `ATL::_AtlInstallStringThunk'::`2'::`local static guard'
EXTRN	__imp__GetVersion@0:NEAR
;	COMDAT ?s_bWin9x@?1??_AtlInstallStringThunk@ATL@@YAXPAPAXPAX1@Z@4_NA
_BSS	SEGMENT
?s_bWin9x@?1??_AtlInstallStringThunk@ATL@@YAXPAPAXPAX1@Z@4_NA DB 01H DUP (?) ; `ATL::_AtlInstallStringThunk'::`2'::s_bWin9x
_BSS	ENDS
;	COMDAT ??_B?1??_AtlInstallStringThunk@ATL@@YAXPAPAXPAX1@Z@51
_BSS	SEGMENT
??_B?1??_AtlInstallStringThunk@ATL@@YAXPAPAXPAX1@Z@51 DD 01H DUP (?) ; `ATL::_AtlInstallStringThunk'::`2'::`local static guard'
; Function compile flags: /Odt /RTCsu
_BSS	ENDS
;	COMDAT ?_AtlInstallStringThunk@ATL@@YAXPAPAXPAX1@Z
_TEXT	SEGMENT
_pfn$ = -4						; size = 4
_ppThunk$ = 8						; size = 4
_pfnWin9x$ = 12						; size = 4
_pfnNT$ = 16						; size = 4
?_AtlInstallStringThunk@ATL@@YAXPAPAXPAX1@Z PROC NEAR	; ATL::_AtlInstallStringThunk, COMDAT

; 115  : {

  00000	55		 push	 ebp
  00001	8b ec		 mov	 ebp, esp
  00003	51		 push	 ecx
  00004	56		 push	 esi
  00005	c7 45 fc cc cc
	cc cc		 mov	 DWORD PTR [ebp-4], -858993460 ; ccccccccH

; 116  : #pragma warning (push)
; 117  : #pragma warning (disable : 4640)	// construction of local static object is not thread-safe
; 118  : 
; 119  : 	static bool s_bWin9x = (::GetVersion()&0x80000000) != 0;

  0000c	a1 00 00 00 00	 mov	 eax, DWORD PTR ??_B?1??_AtlInstallStringThunk@ATL@@YAXPAPAXPAX1@Z@51
  00011	83 e0 01	 and	 eax, 1
  00014	75 2e		 jne	 SHORT $L26217
  00016	8b 0d 00 00 00
	00		 mov	 ecx, DWORD PTR ??_B?1??_AtlInstallStringThunk@ATL@@YAXPAPAXPAX1@Z@51
  0001c	83 c9 01	 or	 ecx, 1
  0001f	89 0d 00 00 00
	00		 mov	 DWORD PTR ??_B?1??_AtlInstallStringThunk@ATL@@YAXPAPAXPAX1@Z@51, ecx
  00025	8b f4		 mov	 esi, esp
  00027	ff 15 00 00 00
	00		 call	 DWORD PTR __imp__GetVersion@0
  0002d	3b f4		 cmp	 esi, esp
  0002f	e8 00 00 00 00	 call	 __RTC_CheckEsp
  00034	25 00 00 00 80	 and	 eax, -2147483648	; 80000000H
  00039	f7 d8		 neg	 eax
  0003b	1b c0		 sbb	 eax, eax
  0003d	f7 d8		 neg	 eax
  0003f	a2 00 00 00 00	 mov	 BYTE PTR ?s_bWin9x@?1??_AtlInstallStringThunk@ATL@@YAXPAPAXPAX1@Z@4_NA, al ; `ATL::_AtlInstallStringThunk'::`2'::s_bWin9x
$L26217:

; 120  : 	
; 121  : #pragma warning (pop)
; 122  : 
; 123  : 	void* pfn;
; 124  : 	if (s_bWin9x)

  00044	0f b6 15 00 00
	00 00		 movzx	 edx, BYTE PTR ?s_bWin9x@?1??_AtlInstallStringThunk@ATL@@YAXPAPAXPAX1@Z@4_NA ; `ATL::_AtlInstallStringThunk'::`2'::s_bWin9x
  0004b	85 d2		 test	 edx, edx
  0004d	74 08		 je	 SHORT $L26219

; 125  : 		pfn = pfnWin9x;

  0004f	8b 45 0c	 mov	 eax, DWORD PTR _pfnWin9x$[ebp]
  00052	89 45 fc	 mov	 DWORD PTR _pfn$[ebp], eax

; 126  : 	else

  00055	eb 06		 jmp	 SHORT $L26220
$L26219:

; 127  : 	{
; 128  : #ifdef _CSTRING_ALWAYS_THUNK
; 129  : 		pfn = pfnWin9x;
; 130  : 		(void)pfnNT;
; 131  : #else
; 132  : 		pfn = pfnNT;

  00057	8b 4d 10	 mov	 ecx, DWORD PTR _pfnNT$[ebp]
  0005a	89 4d fc	 mov	 DWORD PTR _pfn$[ebp], ecx
$L26220:

; 133  : #endif
; 134  : 	}
; 135  : 	InterlockedExchangePointer(ppThunk, pfn);

  0005d	8b 55 fc	 mov	 edx, DWORD PTR _pfn$[ebp]
  00060	52		 push	 edx
  00061	8b 45 08	 mov	 eax, DWORD PTR _ppThunk$[ebp]
  00064	50		 push	 eax
  00065	e8 00 00 00 00	 call	 ?InterlockedExchangePointer@@YGPAXPAPAXPAX@Z ; InterlockedExchangePointer

; 136  : }

  0006a	5e		 pop	 esi
  0006b	83 c4 04	 add	 esp, 4
  0006e	3b ec		 cmp	 ebp, esp
  00070	e8 00 00 00 00	 call	 __RTC_CheckEsp
  00075	8b e5		 mov	 esp, ebp
  00077	5d		 pop	 ebp
  00078	c3		 ret	 0
?_AtlInstallStringThunk@ATL@@YAXPAPAXPAX1@Z ENDP	; ATL::_AtlInstallStringThunk
_TEXT	ENDS
PUBLIC	??_C@_0FH@KDPNIMBO@D?3?2Program?5Files?5?$CIx86?$CJ?2Microsoft@ ; `string'
PUBLIC	?_AtlGetConversionACP@ATL@@YGIXZ		; ATL::_AtlGetConversionACP
PUBLIC	??0?$CTempBuffer@D$0IA@VCCRTAllocator@ATL@@@ATL@@QAE@XZ ; ATL::CTempBuffer<char,128,ATL::CCRTAllocator>::CTempBuffer<char,128,ATL::CCRTAllocator>
PUBLIC	??1?$CTempBuffer@D$0IA@VCCRTAllocator@ATL@@@ATL@@QAE@XZ ; ATL::CTempBuffer<char,128,ATL::CCRTAllocator>::~CTempBuffer<char,128,ATL::CCRTAllocator>
PUBLIC	??B?$CTempBuffer@D$0IA@VCCRTAllocator@ATL@@@ATL@@QBEPADXZ ; ATL::CTempBuffer<char,128,ATL::CCRTAllocator>::operator char *
PUBLIC	?Allocate@?$CTempBuffer@D$0IA@VCCRTAllocator@ATL@@@ATL@@QAEPADI@Z ; ATL::CTempBuffer<char,128,ATL::CCRTAllocator>::Allocate
PUBLIC	??0?$CW2AEX@$0IA@@ATL@@QAE@PB_W@Z		; ATL::CW2AEX<128>::CW2AEX<128>
PUBLIC	??1?$CW2AEX@$0IA@@ATL@@QAE@XZ			; ATL::CW2AEX<128>::~CW2AEX<128>
PUBLIC	??B?$CW2AEX@$0IA@@ATL@@QBEPADXZ			; ATL::CW2AEX<128>::operator char *
PUBLIC	??_C@_0BA@CLMJJCOM@nSize?5?$DO?$DN?5nSizeW?$AA@	; `string'
EXTRN	__imp___CrtDbgReport:NEAR
EXTRN	__imp__MultiByteToWideChar@24:NEAR
EXTRN	__imp__GetEnvironmentVariableA@12:NEAR
;	COMDAT xdata$x
xdata$x	SEGMENT
$T197458 DD	0ffffffffH
	DD	FLAT:$L197448
	DD	00H
	DD	FLAT:$L197449
$T197451 DD	019930520H
	DD	02H
	DD	FLAT:$T197458
	DD	2 DUP(00H)
	DD	2 DUP(00H)
xdata$x	ENDS
;	COMDAT ??_C@_0BA@CLMJJCOM@nSize?5?$DO?$DN?5nSizeW?$AA@
CONST	SEGMENT
??_C@_0BA@CLMJJCOM@nSize?5?$DO?$DN?5nSizeW?$AA@ DB 'nSize >= nSizeW', 00H ; `string'
CONST	ENDS
;	COMDAT ??_C@_0FH@KDPNIMBO@D?3?2Program?5Files?5?$CIx86?$CJ?2Microsoft@
CONST	SEGMENT
??_C@_0FH@KDPNIMBO@D?3?2Program?5Files?5?$CIx86?$CJ?2Microsoft@ DB 'D:\Pr'
	DB	'ogram Files (x86)\Microsoft Visual Studio .NET 2003\Vc7\atlmf'
	DB	'c\include\cstringt.h', 00H			; `string'
; Function compile flags: /Odt /RTCsu
CONST	ENDS
;	COMDAT ?GetEnvironmentVariableWFake@ATL@@YGKPB_WPA_WK@Z
_TEXT	SEGMENT
$T197447 = -316						; size = 4
$T197445 = -312						; size = 4
$T197444 = -308						; size = 4
_pszNameA$ = -300					; size = 132
_pszBufferA$ = -160					; size = 132
_nSizeW$ = -24						; size = 4
_nSizeA$ = -20						; size = 4
__$ArrayPad$ = -16					; size = 4
__$EHRec$ = -12						; size = 12
__$ReturnAddr$ = 4					; size = 4
_pszName$ = 8						; size = 4
_pszBuffer$ = 12					; size = 4
_nSize$ = 16						; size = 4
?GetEnvironmentVariableWFake@ATL@@YGKPB_WPA_WK@Z PROC NEAR ; ATL::GetEnvironmentVariableWFake, COMDAT

; 159  : {

  00000	55		 push	 ebp
  00001	8b ec		 mov	 ebp, esp
  00003	6a ff		 push	 -1
  00005	68 00 00 00 00	 push	 __ehhandler$?GetEnvironmentVariableWFake@ATL@@YGKPB_WPA_WK@Z
  0000a	64 a1 00 00 00
	00		 mov	 eax, DWORD PTR fs:__except_list
  00010	50		 push	 eax
  00011	64 89 25 00 00
	00 00		 mov	 DWORD PTR fs:__except_list, esp
  00018	81 ec 30 01 00
	00		 sub	 esp, 304		; 00000130H
  0001e	56		 push	 esi
  0001f	57		 push	 edi
  00020	8d bd c4 fe ff
	ff		 lea	 edi, DWORD PTR [ebp-316]
  00026	b9 4c 00 00 00	 mov	 ecx, 76			; 0000004cH
  0002b	b8 cc cc cc cc	 mov	 eax, -858993460		; ccccccccH
  00030	f3 ab		 rep stosd
  00032	a1 00 00 00 00	 mov	 eax, DWORD PTR ___security_cookie
  00037	89 45 f0	 mov	 DWORD PTR __$ArrayPad$[ebp], eax

; 160  : 	ULONG nSizeA;
; 161  : 	ULONG nSizeW;
; 162  : 	CTempBuffer<char> pszBufferA;

  0003a	8d 8d 60 ff ff
	ff		 lea	 ecx, DWORD PTR _pszBufferA$[ebp]
  00040	e8 00 00 00 00	 call	 ??0?$CTempBuffer@D$0IA@VCCRTAllocator@ATL@@@ATL@@QAE@XZ ; ATL::CTempBuffer<char,128,ATL::CCRTAllocator>::CTempBuffer<char,128,ATL::CCRTAllocator>
  00045	c7 45 fc 00 00
	00 00		 mov	 DWORD PTR __$EHRec$[ebp+8], 0

; 163  : 	CW2A pszNameA(pszName);

  0004c	8b 45 08	 mov	 eax, DWORD PTR _pszName$[ebp]
  0004f	50		 push	 eax
  00050	8d 8d d4 fe ff
	ff		 lea	 ecx, DWORD PTR _pszNameA$[ebp]
  00056	e8 00 00 00 00	 call	 ??0?$CW2AEX@$0IA@@ATL@@QAE@PB_W@Z ; ATL::CW2AEX<128>::CW2AEX<128>
  0005b	c6 45 fc 01	 mov	 BYTE PTR __$EHRec$[ebp+8], 1

; 164  : 
; 165  : 	nSizeA = ::GetEnvironmentVariableA(pszNameA, NULL, 0);

  0005f	8b f4		 mov	 esi, esp
  00061	6a 00		 push	 0
  00063	6a 00		 push	 0
  00065	8d 8d d4 fe ff
	ff		 lea	 ecx, DWORD PTR _pszNameA$[ebp]
  0006b	e8 00 00 00 00	 call	 ??B?$CW2AEX@$0IA@@ATL@@QBEPADXZ ; ATL::CW2AEX<128>::operator char *
  00070	50		 push	 eax
  00071	ff 15 00 00 00
	00		 call	 DWORD PTR __imp__GetEnvironmentVariableA@12
  00077	3b f4		 cmp	 esi, esp
  00079	e8 00 00 00 00	 call	 __RTC_CheckEsp
  0007e	89 45 ec	 mov	 DWORD PTR _nSizeA$[ebp], eax

; 166  : 	if (nSizeA == 0)

  00081	83 7d ec 00	 cmp	 DWORD PTR _nSizeA$[ebp], 0
  00085	75 36		 jne	 SHORT $L26322

; 167  : 		return 0;

  00087	c7 85 cc fe ff
	ff 00 00 00 00	 mov	 DWORD PTR $T197444[ebp], 0
  00091	c6 45 fc 00	 mov	 BYTE PTR __$EHRec$[ebp+8], 0
  00095	8d 8d d4 fe ff
	ff		 lea	 ecx, DWORD PTR _pszNameA$[ebp]
  0009b	e8 00 00 00 00	 call	 ??1?$CW2AEX@$0IA@@ATL@@QAE@XZ ; ATL::CW2AEX<128>::~CW2AEX<128>
  000a0	c7 45 fc ff ff
	ff ff		 mov	 DWORD PTR __$EHRec$[ebp+8], -1
  000a7	8d 8d 60 ff ff
	ff		 lea	 ecx, DWORD PTR _pszBufferA$[ebp]
  000ad	e8 00 00 00 00	 call	 ??1?$CTempBuffer@D$0IA@VCCRTAllocator@ATL@@@ATL@@QAE@XZ ; ATL::CTempBuffer<char,128,ATL::CCRTAllocator>::~CTempBuffer<char,128,ATL::CCRTAllocator>
  000b2	8b 85 cc fe ff
	ff		 mov	 eax, DWORD PTR $T197444[ebp]
  000b8	e9 33 01 00 00	 jmp	 $L26263
$L26322:

; 168  : 
; 169  : 	pszBufferA.Allocate(nSizeA*2);

  000bd	8b 4d ec	 mov	 ecx, DWORD PTR _nSizeA$[ebp]
  000c0	d1 e1		 shl	 ecx, 1
  000c2	51		 push	 ecx
  000c3	8d 8d 60 ff ff
	ff		 lea	 ecx, DWORD PTR _pszBufferA$[ebp]
  000c9	e8 00 00 00 00	 call	 ?Allocate@?$CTempBuffer@D$0IA@VCCRTAllocator@ATL@@@ATL@@QAEPADI@Z ; ATL::CTempBuffer<char,128,ATL::CCRTAllocator>::Allocate

; 170  : 	::GetEnvironmentVariableA(pszNameA, pszBufferA, nSizeA);

  000ce	8b f4		 mov	 esi, esp
  000d0	8b 55 ec	 mov	 edx, DWORD PTR _nSizeA$[ebp]
  000d3	52		 push	 edx
  000d4	8d 8d 60 ff ff
	ff		 lea	 ecx, DWORD PTR _pszBufferA$[ebp]
  000da	e8 00 00 00 00	 call	 ??B?$CTempBuffer@D$0IA@VCCRTAllocator@ATL@@@ATL@@QBEPADXZ ; ATL::CTempBuffer<char,128,ATL::CCRTAllocator>::operator char *
  000df	50		 push	 eax
  000e0	8d 8d d4 fe ff
	ff		 lea	 ecx, DWORD PTR _pszNameA$[ebp]
  000e6	e8 00 00 00 00	 call	 ??B?$CW2AEX@$0IA@@ATL@@QBEPADXZ ; ATL::CW2AEX<128>::operator char *
  000eb	50		 push	 eax
  000ec	ff 15 00 00 00
	00		 call	 DWORD PTR __imp__GetEnvironmentVariableA@12
  000f2	3b f4		 cmp	 esi, esp
  000f4	e8 00 00 00 00	 call	 __RTC_CheckEsp

; 171  : 
; 172  : 	nSizeW = ::MultiByteToWideChar(_AtlGetConversionACP(), 0, pszBufferA, -1, NULL, 0);

  000f9	8b f4		 mov	 esi, esp
  000fb	6a 00		 push	 0
  000fd	6a 00		 push	 0
  000ff	6a ff		 push	 -1
  00101	8d 8d 60 ff ff
	ff		 lea	 ecx, DWORD PTR _pszBufferA$[ebp]
  00107	e8 00 00 00 00	 call	 ??B?$CTempBuffer@D$0IA@VCCRTAllocator@ATL@@@ATL@@QBEPADXZ ; ATL::CTempBuffer<char,128,ATL::CCRTAllocator>::operator char *
  0010c	50		 push	 eax
  0010d	6a 00		 push	 0
  0010f	e8 00 00 00 00	 call	 ?_AtlGetConversionACP@ATL@@YGIXZ ; ATL::_AtlGetConversionACP
  00114	50		 push	 eax
  00115	ff 15 00 00 00
	00		 call	 DWORD PTR __imp__MultiByteToWideChar@24
  0011b	3b f4		 cmp	 esi, esp
  0011d	e8 00 00 00 00	 call	 __RTC_CheckEsp
  00122	89 45 e8	 mov	 DWORD PTR _nSizeW$[ebp], eax

; 173  : 	if (nSize == 0)

  00125	83 7d 10 00	 cmp	 DWORD PTR _nSize$[ebp], 0
  00129	75 35		 jne	 SHORT $L26324

; 174  : 		return nSizeW;

  0012b	8b 45 e8	 mov	 eax, DWORD PTR _nSizeW$[ebp]
  0012e	89 85 c8 fe ff
	ff		 mov	 DWORD PTR $T197445[ebp], eax
  00134	c6 45 fc 00	 mov	 BYTE PTR __$EHRec$[ebp+8], 0
  00138	8d 8d d4 fe ff
	ff		 lea	 ecx, DWORD PTR _pszNameA$[ebp]
  0013e	e8 00 00 00 00	 call	 ??1?$CW2AEX@$0IA@@ATL@@QAE@XZ ; ATL::CW2AEX<128>::~CW2AEX<128>
  00143	c7 45 fc ff ff
	ff ff		 mov	 DWORD PTR __$EHRec$[ebp+8], -1
  0014a	8d 8d 60 ff ff
	ff		 lea	 ecx, DWORD PTR _pszBufferA$[ebp]
  00150	e8 00 00 00 00	 call	 ??1?$CTempBuffer@D$0IA@VCCRTAllocator@ATL@@@ATL@@QAE@XZ ; ATL::CTempBuffer<char,128,ATL::CCRTAllocator>::~CTempBuffer<char,128,ATL::CCRTAllocator>
  00155	8b 85 c8 fe ff
	ff		 mov	 eax, DWORD PTR $T197445[ebp]
  0015b	e9 90 00 00 00	 jmp	 $L26263
$L26324:

; 175  : 	ATLASSERT(nSize >= nSizeW);

  00160	8b 4d 10	 mov	 ecx, DWORD PTR _nSize$[ebp]
  00163	3b 4d e8	 cmp	 ecx, DWORD PTR _nSizeW$[ebp]
  00166	73 2b		 jae	 SHORT $L197446
  00168	8b f4		 mov	 esi, esp
  0016a	68 00 00 00 00	 push	 OFFSET FLAT:??_C@_0BA@CLMJJCOM@nSize?5?$DO?$DN?5nSizeW?$AA@
  0016f	6a 00		 push	 0
  00171	68 af 00 00 00	 push	 175			; 000000afH
  00176	68 00 00 00 00	 push	 OFFSET FLAT:??_C@_0FH@KDPNIMBO@D?3?2Program?5Files?5?$CIx86?$CJ?2Microsoft@
  0017b	6a 02		 push	 2
  0017d	ff 15 00 00 00
	00		 call	 DWORD PTR __imp___CrtDbgReport
  00183	83 c4 14	 add	 esp, 20			; 00000014H
  00186	3b f4		 cmp	 esi, esp
  00188	e8 00 00 00 00	 call	 __RTC_CheckEsp
  0018d	83 f8 01	 cmp	 eax, 1
  00190	75 01		 jne	 SHORT $L197446
  00192	cc		 int	 3
$L197446:

; 176  : 	::MultiByteToWideChar(_AtlGetConversionACP(), 0, pszBufferA, -1, pszBuffer, nSizeW);

  00193	8b f4		 mov	 esi, esp
  00195	8b 45 e8	 mov	 eax, DWORD PTR _nSizeW$[ebp]
  00198	50		 push	 eax
  00199	8b 4d 0c	 mov	 ecx, DWORD PTR _pszBuffer$[ebp]
  0019c	51		 push	 ecx
  0019d	6a ff		 push	 -1
  0019f	8d 8d 60 ff ff
	ff		 lea	 ecx, DWORD PTR _pszBufferA$[ebp]
  001a5	e8 00 00 00 00	 call	 ??B?$CTempBuffer@D$0IA@VCCRTAllocator@ATL@@@ATL@@QBEPADXZ ; ATL::CTempBuffer<char,128,ATL::CCRTAllocator>::operator char *
  001aa	50		 push	 eax
  001ab	6a 00		 push	 0
  001ad	e8 00 00 00 00	 call	 ?_AtlGetConversionACP@ATL@@YGIXZ ; ATL::_AtlGetConversionACP
  001b2	50		 push	 eax
  001b3	ff 15 00 00 00
	00		 call	 DWORD PTR __imp__MultiByteToWideChar@24
  001b9	3b f4		 cmp	 esi, esp
  001bb	e8 00 00 00 00	 call	 __RTC_CheckEsp

; 177  : 
; 178  : 	return nSizeW;

  001c0	8b 55 e8	 mov	 edx, DWORD PTR _nSizeW$[ebp]
  001c3	89 95 c4 fe ff
	ff		 mov	 DWORD PTR $T197447[ebp], edx
  001c9	c6 45 fc 00	 mov	 BYTE PTR __$EHRec$[ebp+8], 0
  001cd	8d 8d d4 fe ff
	ff		 lea	 ecx, DWORD PTR _pszNameA$[ebp]
  001d3	e8 00 00 00 00	 call	 ??1?$CW2AEX@$0IA@@ATL@@QAE@XZ ; ATL::CW2AEX<128>::~CW2AEX<128>
  001d8	c7 45 fc ff ff
	ff ff		 mov	 DWORD PTR __$EHRec$[ebp+8], -1
  001df	8d 8d 60 ff ff
	ff		 lea	 ecx, DWORD PTR _pszBufferA$[ebp]
  001e5	e8 00 00 00 00	 call	 ??1?$CTempBuffer@D$0IA@VCCRTAllocator@ATL@@@ATL@@QAE@XZ ; ATL::CTempBuffer<char,128,ATL::CCRTAllocator>::~CTempBuffer<char,128,ATL::CCRTAllocator>
  001ea	8b 85 c4 fe ff
	ff		 mov	 eax, DWORD PTR $T197447[ebp]
$L26263:

; 179  : }

  001f0	52		 push	 edx
  001f1	8b cd		 mov	 ecx, ebp
  001f3	50		 push	 eax
  001f4	8d 15 00 00 00
	00		 lea	 edx, DWORD PTR $L197457
  001fa	e8 00 00 00 00	 call	 @_RTC_CheckStackVars@8
  001ff	58		 pop	 eax
  00200	5a		 pop	 edx
  00201	8b 4d f4	 mov	 ecx, DWORD PTR __$EHRec$[ebp]
  00204	64 89 0d 00 00
	00 00		 mov	 DWORD PTR fs:__except_list, ecx
  0020b	8b 4d f0	 mov	 ecx, DWORD PTR __$ArrayPad$[ebp]
  0020e	e8 00 00 00 00	 call	 @__security_check_cookie@4
  00213	5f		 pop	 edi
  00214	5e		 pop	 esi
  00215	81 c4 3c 01 00
	00		 add	 esp, 316		; 0000013cH
  0021b	3b ec		 cmp	 ebp, esp
  0021d	e8 00 00 00 00	 call	 __RTC_CheckEsp
  00222	8b e5		 mov	 esp, ebp
  00224	5d		 pop	 ebp
  00225	c2 0c 00	 ret	 12			; 0000000cH
$L197457:
  00228	02 00 00 00	 DD	 2
  0022c	00 00 00 00	 DD	 $L197456
$L197456:
  00230	60 ff ff ff	 DD	 -160			; ffffff60H
  00234	84 00 00 00	 DD	 132			; 00000084H
  00238	00 00 00 00	 DD	 $L197452
  0023c	d4 fe ff ff	 DD	 -300			; fffffed4H
  00240	84 00 00 00	 DD	 132			; 00000084H
  00244	00 00 00 00	 DD	 $L197453
$L197453:
  00248	70		 DB	 112			; 00000070H
  00249	73		 DB	 115			; 00000073H
  0024a	7a		 DB	 122			; 0000007aH
  0024b	4e		 DB	 78			; 0000004eH
  0024c	61		 DB	 97			; 00000061H
  0024d	6d		 DB	 109			; 0000006dH
  0024e	65		 DB	 101			; 00000065H
  0024f	41		 DB	 65			; 00000041H
  00250	00		 DB	 0
$L197452:
  00251	70		 DB	 112			; 00000070H
  00252	73		 DB	 115			; 00000073H
  00253	7a		 DB	 122			; 0000007aH
  00254	42		 DB	 66			; 00000042H
  00255	75		 DB	 117			; 00000075H
  00256	66		 DB	 102			; 00000066H
  00257	66		 DB	 102			; 00000066H
  00258	65		 DB	 101			; 00000065H
  00259	72		 DB	 114			; 00000072H
  0025a	41		 DB	 65			; 00000041H
  0025b	00		 DB	 0
_TEXT	ENDS
;	COMDAT text$x
text$x	SEGMENT
$L197448:
  00000	8d 8d 60 ff ff
	ff		 lea	 ecx, DWORD PTR _pszBufferA$[ebp]
  00006	e9 00 00 00 00	 jmp	 ??1?$CTempBuffer@D$0IA@VCCRTAllocator@ATL@@@ATL@@QAE@XZ ; ATL::CTempBuffer<char,128,ATL::CCRTAllocator>::~CTempBuffer<char,128,ATL::CCRTAllocator>
$L197449:
  0000b	8d 8d d4 fe ff
	ff		 lea	 ecx, DWORD PTR _pszNameA$[ebp]
  00011	e9 00 00 00 00	 jmp	 ??1?$CW2AEX@$0IA@@ATL@@QAE@XZ ; ATL::CW2AEX<128>::~CW2AEX<128>
__ehhandler$?GetEnvironmentVariableWFake@ATL@@YGKPB_WPA_WK@Z:
  00016	b8 00 00 00 00	 mov	 eax, OFFSET FLAT:$T197451
  0001b	e9 00 00 00 00	 jmp	 ___CxxFrameHandler
text$x	ENDS
?GetEnvironmentVariableWFake@ATL@@YGKPB_WPA_WK@Z ENDP	; ATL::GetEnvironmentVariableWFake
; Function compile flags: /Odt /RTCsu
; File d:\program files (x86)\microsoft visual studio .net 2003\vc7\atlmfc\include\atlconv.h
;	COMDAT ?_AtlGetConversionACP@ATL@@YGIXZ
_TEXT	SEGMENT
?_AtlGetConversionACP@ATL@@YGIXZ PROC NEAR		; ATL::_AtlGetConversionACP, COMDAT

; 157  : {

  00000	55		 push	 ebp
  00001	8b ec		 mov	 ebp, esp
  00003	56		 push	 esi

; 158  : 	return( g_pfnGetThreadACP() );

  00004	8b f4		 mov	 esi, esp
  00006	ff 15 00 00 00
	00		 call	 DWORD PTR ?g_pfnGetThreadACP@ATL@@3P6GIXZA ; ATL::g_pfnGetThreadACP
  0000c	3b f4		 cmp	 esi, esp
  0000e	e8 00 00 00 00	 call	 __RTC_CheckEsp

; 159  : }

  00013	5e		 pop	 esi
  00014	3b ec		 cmp	 ebp, esp
  00016	e8 00 00 00 00	 call	 __RTC_CheckEsp
  0001b	5d		 pop	 ebp
  0001c	c3		 ret	 0
?_AtlGetConversionACP@ATL@@YGIXZ ENDP			; ATL::_AtlGetConversionACP
_TEXT	ENDS
PUBLIC	??0IMessageObserver@@QAE@XZ			; IMessageObserver::IMessageObserver
PUBLIC	??_R1A@?0A@A@IMessageObserver@@8		; IMessageObserver::`RTTI Base Class Descriptor at (0,-1,0,0)'
PUBLIC	?IWebRefreshOb_Refresh@IWebRefreshObserver@@UAEXPBD@Z ; IWebRefreshObserver::IWebRefreshOb_Refresh
PUBLIC	??_7IWebRefreshObserver@@6B@			; IWebRefreshObserver::`vftable'
PUBLIC	??_GIWebRefreshObserver@@UAEPAXI@Z		; IWebRefreshObserver::`scalar deleting destructor'
PUBLIC	??_R4IWebRefreshObserver@@6B@			; IWebRefreshObserver::`RTTI Complete Object Locator'
PUBLIC	??_R3IWebRefreshObserver@@8			; IWebRefreshObserver::`RTTI Class Hierarchy Descriptor'
PUBLIC	??_R2IWebRefreshObserver@@8			; IWebRefreshObserver::`RTTI Base Class Array'
PUBLIC	??_R1A@?0A@A@IWebRefreshObserver@@8		; IWebRefreshObserver::`RTTI Base Class Descriptor at (0,-1,0,0)'
EXTRN	??_EIWebRefreshObserver@@UAEPAXI@Z:NEAR		; IWebRefreshObserver::`vector deleting destructor'
;	COMDAT ??_7IWebRefreshObserver@@6B@
CONST	SEGMENT
??_7IWebRefreshObserver@@6B@ DD FLAT:??_R4IWebRefreshObserver@@6B@ ; IWebRefreshObserver::`vftable'
	DD	FLAT:??_EIWebRefreshObserver@@UAEPAXI@Z
	DD	FLAT:?IWebRefreshOb_Refresh@IWebRefreshObserver@@UAEXPBD@Z
CONST	ENDS
;	COMDAT ??_R4IWebRefreshObserver@@6B@
rdata$r	SEGMENT
??_R4IWebRefreshObserver@@6B@ DD 00H			; IWebRefreshObserver::`RTTI Complete Object Locator'
	DD	00H
	DD	00H
	DD	FLAT:??_R0?AVIWebRefreshObserver@@@8
	DD	FLAT:??_R3IWebRefreshObserver@@8
rdata$r	ENDS
;	COMDAT ??_R3IWebRefreshObserver@@8
rdata$r	SEGMENT
??_R3IWebRefreshObserver@@8 DD 00H			; IWebRefreshObserver::`RTTI Class Hierarchy Descriptor'
	DD	00H
	DD	02H
	DD	FLAT:??_R2IWebRefreshObserver@@8
rdata$r	ENDS
;	COMDAT ??_R2IWebRefreshObserver@@8
rdata$r	SEGMENT
??_R2IWebRefreshObserver@@8 DD FLAT:??_R1A@?0A@A@IWebRefreshObserver@@8 ; IWebRefreshObserver::`RTTI Base Class Array'
	DD	FLAT:??_R1A@?0A@A@IMessageObserver@@8
rdata$r	ENDS
;	COMDAT ??_R1A@?0A@A@IWebRefreshObserver@@8
rdata$r	SEGMENT
??_R1A@?0A@A@IWebRefreshObserver@@8 DD FLAT:??_R0?AVIWebRefreshObserver@@@8 ; IWebRefreshObserver::`RTTI Base Class Descriptor at (0,-1,0,0)'
	DD	01H
	DD	00H
	DD	0ffffffffH
	DD	00H
	DD	00H
rdata$r	ENDS
;	COMDAT ??_R1A@?0A@A@IMessageObserver@@8
rdata$r	SEGMENT
??_R1A@?0A@A@IMessageObserver@@8 DD FLAT:??_R0?AVIMessageObserver@@@8 ; IMessageObserver::`RTTI Base Class Descriptor at (0,-1,0,0)'
	DD	00H
	DD	00H
	DD	0ffffffffH
	DD	00H
	DD	00H
; Function compile flags: /Odt /RTCsu
rdata$r	ENDS
;	COMDAT ??0IWebRefreshObserver@@QAE@XZ
_TEXT	SEGMENT
_this$ = -4						; size = 4
??0IWebRefreshObserver@@QAE@XZ PROC NEAR		; IWebRefreshObserver::IWebRefreshObserver, COMDAT
; _this$ = ecx
  00000	55		 push	 ebp
  00001	8b ec		 mov	 ebp, esp
  00003	51		 push	 ecx
  00004	c7 45 fc cc cc
	cc cc		 mov	 DWORD PTR [ebp-4], -858993460 ; ccccccccH
  0000b	89 4d fc	 mov	 DWORD PTR _this$[ebp], ecx
  0000e	8b 4d fc	 mov	 ecx, DWORD PTR _this$[ebp]
  00011	e8 00 00 00 00	 call	 ??0IMessageObserver@@QAE@XZ
  00016	8b 45 fc	 mov	 eax, DWORD PTR _this$[ebp]
  00019	c7 00 00 00 00
	00		 mov	 DWORD PTR [eax], OFFSET FLAT:??_7IWebRefreshObserver@@6B@
  0001f	8b 45 fc	 mov	 eax, DWORD PTR _this$[ebp]
  00022	83 c4 04	 add	 esp, 4
  00025	3b ec		 cmp	 ebp, esp
  00027	e8 00 00 00 00	 call	 __RTC_CheckEsp
  0002c	8b e5		 mov	 esp, ebp
  0002e	5d		 pop	 ebp
  0002f	c3		 ret	 0
??0IWebRefreshObserver@@QAE@XZ ENDP			; IWebRefreshObserver::IWebRefreshObserver
; Function compile flags: /Odt /RTCsu
; File d:\boxgit\playbox\playbox\dev\prj\playbox\src\datainterface\iwebrefreshobserver.h
_TEXT	ENDS
;	COMDAT ?IWebRefreshOb_Refresh@IWebRefreshObserver@@UAEXPBD@Z
_TEXT	SEGMENT
_this$ = -4						; size = 4
_psz$ = 8						; size = 4
?IWebRefreshOb_Refresh@IWebRefreshObserver@@UAEXPBD@Z PROC NEAR ; IWebRefreshObserver::IWebRefreshOb_Refresh, COMDAT
; _this$ = ecx

; 8    : 	virtual void IWebRefreshOb_Refresh(const char* psz){};

  00000	55		 push	 ebp
  00001	8b ec		 mov	 ebp, esp
  00003	51		 push	 ecx
  00004	c7 45 fc cc cc
	cc cc		 mov	 DWORD PTR [ebp-4], -858993460 ; ccccccccH
  0000b	89 4d fc	 mov	 DWORD PTR _this$[ebp], ecx
  0000e	8b e5		 mov	 esp, ebp
  00010	5d		 pop	 ebp
  00011	c2 04 00	 ret	 4
?IWebRefreshOb_Refresh@IWebRefreshObserver@@UAEXPBD@Z ENDP ; IWebRefreshObserver::IWebRefreshOb_Refresh
_TEXT	ENDS
PUBLIC	??1IMessageObserver@@UAE@XZ			; IMessageObserver::~IMessageObserver
; Function compile flags: /Odt /RTCsu
;	COMDAT ??1IWebRefreshObserver@@UAE@XZ
_TEXT	SEGMENT
_this$ = -4						; size = 4
??1IWebRefreshObserver@@UAE@XZ PROC NEAR		; IWebRefreshObserver::~IWebRefreshObserver, COMDAT
; _this$ = ecx
  00000	55		 push	 ebp
  00001	8b ec		 mov	 ebp, esp
  00003	51		 push	 ecx
  00004	c7 45 fc cc cc
	cc cc		 mov	 DWORD PTR [ebp-4], -858993460 ; ccccccccH
  0000b	89 4d fc	 mov	 DWORD PTR _this$[ebp], ecx
  0000e	8b 4d fc	 mov	 ecx, DWORD PTR _this$[ebp]
  00011	e8 00 00 00 00	 call	 ??1IMessageObserver@@UAE@XZ ; IMessageObserver::~IMessageObserver
  00016	83 c4 04	 add	 esp, 4
  00019	3b ec		 cmp	 ebp, esp
  0001b	e8 00 00 00 00	 call	 __RTC_CheckEsp
  00020	8b e5		 mov	 esp, ebp
  00022	5d		 pop	 ebp
  00023	c3		 ret	 0
??1IWebRefreshObserver@@UAE@XZ ENDP			; IWebRefreshObserver::~IWebRefreshObserver
_TEXT	ENDS
EXTRN	??3@YAXPAX@Z:NEAR				; operator delete
; Function compile flags: /Odt /RTCsu
;	COMDAT ??_GIWebRefreshObserver@@UAEPAXI@Z
_TEXT	SEGMENT
_this$ = -4						; size = 4
___flags$ = 8						; size = 4
??_GIWebRefreshObserver@@UAEPAXI@Z PROC NEAR		; IWebRefreshObserver::`scalar deleting destructor', COMDAT
; _this$ = ecx
  00000	55		 push	 ebp
  00001	8b ec		 mov	 ebp, esp
  00003	51		 push	 ecx
  00004	c7 45 fc cc cc
	cc cc		 mov	 DWORD PTR [ebp-4], -858993460 ; ccccccccH
  0000b	89 4d fc	 mov	 DWORD PTR _this$[ebp], ecx
  0000e	8b 4d fc	 mov	 ecx, DWORD PTR _this$[ebp]
  00011	e8 00 00 00 00	 call	 ??1IWebRefreshObserver@@UAE@XZ
  00016	8b 45 08	 mov	 eax, DWORD PTR ___flags$[ebp]
  00019	83 e0 01	 and	 eax, 1
  0001c	74 0c		 je	 SHORT $L195894
  0001e	8b 4d fc	 mov	 ecx, DWORD PTR _this$[ebp]
  00021	51		 push	 ecx
  00022	e8 00 00 00 00	 call	 ??3@YAXPAX@Z		; operator delete
  00027	83 c4 04	 add	 esp, 4
$L195894:
  0002a	8b 45 fc	 mov	 eax, DWORD PTR _this$[ebp]
  0002d	83 c4 04	 add	 esp, 4
  00030	3b ec		 cmp	 ebp, esp
  00032	e8 00 00 00 00	 call	 __RTC_CheckEsp
  00037	8b e5		 mov	 esp, ebp
  00039	5d		 pop	 ebp
  0003a	c2 04 00	 ret	 4
??_GIWebRefreshObserver@@UAEPAXI@Z ENDP			; IWebRefreshObserver::`scalar deleting destructor'
_TEXT	ENDS
PUBLIC	??_7IMessageObserver@@6B@			; IMessageObserver::`vftable'
PUBLIC	??_GIMessageObserver@@UAEPAXI@Z			; IMessageObserver::`scalar deleting destructor'
PUBLIC	??_R4IMessageObserver@@6B@			; IMessageObserver::`RTTI Complete Object Locator'
PUBLIC	??_R3IMessageObserver@@8			; IMessageObserver::`RTTI Class Hierarchy Descriptor'
PUBLIC	??_R2IMessageObserver@@8			; IMessageObserver::`RTTI Base Class Array'
EXTRN	??_EIMessageObserver@@UAEPAXI@Z:NEAR		; IMessageObserver::`vector deleting destructor'
;	COMDAT ??_7IMessageObserver@@6B@
CONST	SEGMENT
??_7IMessageObserver@@6B@ DD FLAT:??_R4IMessageObserver@@6B@ ; IMessageObserver::`vftable'
	DD	FLAT:??_EIMessageObserver@@UAEPAXI@Z
CONST	ENDS
;	COMDAT ??_R4IMessageObserver@@6B@
rdata$r	SEGMENT
??_R4IMessageObserver@@6B@ DD 00H			; IMessageObserver::`RTTI Complete Object Locator'
	DD	00H
	DD	00H
	DD	FLAT:??_R0?AVIMessageObserver@@@8
	DD	FLAT:??_R3IMessageObserver@@8
rdata$r	ENDS
;	COMDAT ??_R3IMessageObserver@@8
rdata$r	SEGMENT
??_R3IMessageObserver@@8 DD 00H				; IMessageObserver::`RTTI Class Hierarchy Descriptor'
	DD	00H
	DD	01H
	DD	FLAT:??_R2IMessageObserver@@8
rdata$r	ENDS
;	COMDAT ??_R2IMessageObserver@@8
rdata$r	SEGMENT
??_R2IMessageObserver@@8 DD FLAT:??_R1A@?0A@A@IMessageObserver@@8 ; IMessageObserver::`RTTI Base Class Array'
; Function compile flags: /Odt /RTCsu
rdata$r	ENDS
;	COMDAT ??0IMessageObserver@@QAE@XZ
_TEXT	SEGMENT
_this$ = -4						; size = 4
??0IMessageObserver@@QAE@XZ PROC NEAR			; IMessageObserver::IMessageObserver, COMDAT
; _this$ = ecx
  00000	55		 push	 ebp
  00001	8b ec		 mov	 ebp, esp
  00003	51		 push	 ecx
  00004	c7 45 fc cc cc
	cc cc		 mov	 DWORD PTR [ebp-4], -858993460 ; ccccccccH
  0000b	89 4d fc	 mov	 DWORD PTR _this$[ebp], ecx
  0000e	8b 45 fc	 mov	 eax, DWORD PTR _this$[ebp]
  00011	c7 00 00 00 00
	00		 mov	 DWORD PTR [eax], OFFSET FLAT:??_7IMessageObserver@@6B@
  00017	8b 45 fc	 mov	 eax, DWORD PTR _this$[ebp]
  0001a	8b e5		 mov	 esp, ebp
  0001c	5d		 pop	 ebp
  0001d	c3		 ret	 0
??0IMessageObserver@@QAE@XZ ENDP			; IMessageObserver::IMessageObserver
_TEXT	ENDS
xdata$x	SEGMENT
$T197483 DD	0ffffffffH
	DD	FLAT:$L197473
	DD	00H
	DD	FLAT:$L197476
	DD	01H
	DD	FLAT:$L197477
	DD	02H
	DD	FLAT:$L197478
	DD	03H
	DD	FLAT:$L197479
$T197481 DD	019930520H
	DD	05H
	DD	FLAT:$T197483
	DD	2 DUP(00H)
	DD	2 DUP(00H)
; Function compile flags: /Odt /RTCsu
; File d:\boxgit\playbox\playbox\dev\prj\playbox\src\module\webinteract\mywebbrowserwnd.cpp
xdata$x	ENDS
_TEXT	SEGMENT
tv68 = -28						; size = 4
tv84 = -24						; size = 4
tv89 = -20						; size = 4
_this$ = -16						; size = 4
__$EHRec$ = -12						; size = 12
??1MyWebBrowserWnd@@UAE@XZ PROC NEAR			; MyWebBrowserWnd::~MyWebBrowserWnd
; _this$ = ecx

; 38   : {

  00190	55		 push	 ebp
  00191	8b ec		 mov	 ebp, esp
  00193	6a ff		 push	 -1
  00195	68 00 00 00 00	 push	 __ehhandler$??1MyWebBrowserWnd@@UAE@XZ
  0019a	64 a1 00 00 00
	00		 mov	 eax, DWORD PTR fs:__except_list
  001a0	50		 push	 eax
  001a1	64 89 25 00 00
	00 00		 mov	 DWORD PTR fs:__except_list, esp
  001a8	83 ec 10	 sub	 esp, 16			; 00000010H
  001ab	56		 push	 esi
  001ac	b8 cc cc cc cc	 mov	 eax, -858993460		; ccccccccH
  001b1	89 45 e4	 mov	 DWORD PTR [ebp-28], eax
  001b4	89 45 e8	 mov	 DWORD PTR [ebp-24], eax
  001b7	89 45 ec	 mov	 DWORD PTR [ebp-20], eax
  001ba	89 45 f0	 mov	 DWORD PTR [ebp-16], eax
  001bd	89 4d f0	 mov	 DWORD PTR _this$[ebp], ecx
  001c0	8b 45 f0	 mov	 eax, DWORD PTR _this$[ebp]
  001c3	c7 00 00 00 00
	00		 mov	 DWORD PTR [eax], OFFSET FLAT:??_7MyWebBrowserWnd@@6BCHtmlView@@@
  001c9	8b 4d f0	 mov	 ecx, DWORD PTR _this$[ebp]
  001cc	c7 81 f0 00 00
	00 00 00 00 00	 mov	 DWORD PTR [ecx+240], OFFSET FLAT:??_7MyWebBrowserWnd@@6BIWebRefreshObserver@@@
  001d6	c7 45 fc 04 00
	00 00		 mov	 DWORD PTR __$EHRec$[ebp+8], 4

; 39   : 	AfxGetMessageManager()->DetachMessage(ID_MESSAGE_REFRESH, (IWebRefreshObserver*)this);

  001dd	83 7d f0 00	 cmp	 DWORD PTR _this$[ebp], 0
  001e1	74 0e		 je	 SHORT $L197471
  001e3	8b 55 f0	 mov	 edx, DWORD PTR _this$[ebp]
  001e6	81 c2 f0 00 00
	00		 add	 edx, 240		; 000000f0H
  001ec	89 55 ec	 mov	 DWORD PTR tv89[ebp], edx
  001ef	eb 07		 jmp	 SHORT $L197472
$L197471:
  001f1	c7 45 ec 00 00
	00 00		 mov	 DWORD PTR tv89[ebp], 0
$L197472:
  001f8	e8 00 00 00 00	 call	 ?AfxGetMessageManager@@YAPAVIMessageManager@@XZ ; AfxGetMessageManager
  001fd	89 45 e8	 mov	 DWORD PTR tv84[ebp], eax
  00200	8b f4		 mov	 esi, esp
  00202	8b 45 ec	 mov	 eax, DWORD PTR tv89[ebp]
  00205	50		 push	 eax
  00206	68 00 00 00 00	 push	 OFFSET FLAT:_ID_MESSAGE_REFRESH
  0020b	8b 4d e8	 mov	 ecx, DWORD PTR tv84[ebp]
  0020e	8b 11		 mov	 edx, DWORD PTR [ecx]
  00210	8b 4d e8	 mov	 ecx, DWORD PTR tv84[ebp]
  00213	ff 52 08	 call	 DWORD PTR [edx+8]
  00216	3b f4		 cmp	 esi, esp
  00218	e8 00 00 00 00	 call	 __RTC_CheckEsp

; 40   : }

  0021d	c6 45 fc 03	 mov	 BYTE PTR __$EHRec$[ebp+8], 3
  00221	8b 4d f0	 mov	 ecx, DWORD PTR _this$[ebp]
  00224	81 c1 cc 01 00
	00		 add	 ecx, 460		; 000001ccH
  0022a	8b f4		 mov	 esi, esp
  0022c	ff 15 00 00 00
	00		 call	 DWORD PTR __imp_??1?$basic_string@DU?$char_traits@D@std@@V?$allocator@D@2@@std@@QAE@XZ
  00232	3b f4		 cmp	 esi, esp
  00234	e8 00 00 00 00	 call	 __RTC_CheckEsp
  00239	c6 45 fc 02	 mov	 BYTE PTR __$EHRec$[ebp+8], 2
  0023d	8b 4d f0	 mov	 ecx, DWORD PTR _this$[ebp]
  00240	81 c1 04 01 00
	00		 add	 ecx, 260		; 00000104H
  00246	e8 00 00 00 00	 call	 ??1CFlashWnd@@UAE@XZ	; CFlashWnd::~CFlashWnd
  0024b	c6 45 fc 01	 mov	 BYTE PTR __$EHRec$[ebp+8], 1
  0024f	8b 4d f0	 mov	 ecx, DWORD PTR _this$[ebp]
  00252	81 c1 00 01 00
	00		 add	 ecx, 256		; 00000100H
  00258	8b f4		 mov	 esi, esp
  0025a	ff 15 00 00 00
	00		 call	 DWORD PTR __imp_??1?$CStringT@DV?$StrTraitMFC_DLL@DV?$ChTraitsCRT@D@ATL@@@@@ATL@@QAE@XZ
  00260	3b f4		 cmp	 esi, esp
  00262	e8 00 00 00 00	 call	 __RTC_CheckEsp
  00267	c6 45 fc 00	 mov	 BYTE PTR __$EHRec$[ebp+8], 0
  0026b	83 7d f0 00	 cmp	 DWORD PTR _this$[ebp], 0
  0026f	74 0d		 je	 SHORT $L197469
  00271	8b 45 f0	 mov	 eax, DWORD PTR _this$[ebp]
  00274	05 f0 00 00 00	 add	 eax, 240		; 000000f0H
  00279	89 45 e4	 mov	 DWORD PTR tv68[ebp], eax
  0027c	eb 07		 jmp	 SHORT $L197470
$L197469:
  0027e	c7 45 e4 00 00
	00 00		 mov	 DWORD PTR tv68[ebp], 0
$L197470:
  00285	8b 4d e4	 mov	 ecx, DWORD PTR tv68[ebp]
  00288	e8 00 00 00 00	 call	 ??1IWebRefreshObserver@@UAE@XZ
  0028d	c7 45 fc ff ff
	ff ff		 mov	 DWORD PTR __$EHRec$[ebp+8], -1
  00294	8b 4d f0	 mov	 ecx, DWORD PTR _this$[ebp]
  00297	e8 00 00 00 00	 call	 ??1CHtmlView@@UAE@XZ	; CHtmlView::~CHtmlView
  0029c	8b 4d f4	 mov	 ecx, DWORD PTR __$EHRec$[ebp]
  0029f	64 89 0d 00 00
	00 00		 mov	 DWORD PTR fs:__except_list, ecx
  002a6	5e		 pop	 esi
  002a7	83 c4 1c	 add	 esp, 28			; 0000001cH
  002aa	3b ec		 cmp	 ebp, esp
  002ac	e8 00 00 00 00	 call	 __RTC_CheckEsp
  002b1	8b e5		 mov	 esp, ebp
  002b3	5d		 pop	 ebp
  002b4	c3		 ret	 0
_TEXT	ENDS
text$x	SEGMENT
$L197473:
  0005e	8b 4d f0	 mov	 ecx, DWORD PTR _this$[ebp]
  00061	e9 00 00 00 00	 jmp	 ??1CHtmlView@@UAE@XZ	; CHtmlView::~CHtmlView
$L197476:
  00066	83 7d f0 00	 cmp	 DWORD PTR _this$[ebp], 0
  0006a	0f 84 10 00 00
	00		 je	 $L197474
  00070	8b 45 f0	 mov	 eax, DWORD PTR _this$[ebp]
  00073	05 f0 00 00 00	 add	 eax, 240		; 000000f0H
  00078	89 45 e4	 mov	 DWORD PTR tv68[ebp], eax
  0007b	e9 07 00 00 00	 jmp	 $L197475
$L197474:
  00080	c7 45 e4 00 00
	00 00		 mov	 DWORD PTR tv68[ebp], 0
$L197475:
  00087	8b 4d e4	 mov	 ecx, DWORD PTR tv68[ebp]
  0008a	e9 00 00 00 00	 jmp	 ??1IWebRefreshObserver@@UAE@XZ
$L197477:
  0008f	8b 4d f0	 mov	 ecx, DWORD PTR _this$[ebp]
  00092	81 c1 00 01 00
	00		 add	 ecx, 256		; 00000100H
  00098	8b f4		 mov	 esi, esp
  0009a	ff 15 00 00 00
	00		 call	 DWORD PTR __imp_??1?$CStringT@DV?$StrTraitMFC_DLL@DV?$ChTraitsCRT@D@ATL@@@@@ATL@@QAE@XZ
  000a0	3b f4		 cmp	 esi, esp
  000a2	e9 00 00 00 00	 jmp	 __RTC_CheckEsp
$L197478:
  000a7	8b 4d f0	 mov	 ecx, DWORD PTR _this$[ebp]
  000aa	81 c1 04 01 00
	00		 add	 ecx, 260		; 00000104H
  000b0	e9 00 00 00 00	 jmp	 ??1CFlashWnd@@UAE@XZ	; CFlashWnd::~CFlashWnd
$L197479:
  000b5	8b 4d f0	 mov	 ecx, DWORD PTR _this$[ebp]
  000b8	81 c1 cc 01 00
	00		 add	 ecx, 460		; 000001ccH
  000be	8b f4		 mov	 esi, esp
  000c0	ff 15 00 00 00
	00		 call	 DWORD PTR __imp_??1?$basic_string@DU?$char_traits@D@std@@V?$allocator@D@2@@std@@QAE@XZ
  000c6	3b f4		 cmp	 esi, esp
  000c8	e9 00 00 00 00	 jmp	 __RTC_CheckEsp
__ehhandler$??1MyWebBrowserWnd@@UAE@XZ:
  000cd	b8 00 00 00 00	 mov	 eax, OFFSET FLAT:$T197481
  000d2	e9 00 00 00 00	 jmp	 ___CxxFrameHandler
text$x	ENDS
??1MyWebBrowserWnd@@UAE@XZ ENDP				; MyWebBrowserWnd::~MyWebBrowserWnd
PUBLIC	?CompareStringWFake@ATL@@YGHKKPB_WH0H@Z		; ATL::CompareStringWFake
EXTRN	__imp__CompareStringW@24:NEAR
; Function compile flags: /Odt /RTCsu
; File d:\program files (x86)\microsoft visual studio .net 2003\vc7\atlmfc\include\cstringt.h
;	COMDAT ?CompareStringWThunk@ATL@@YGHKKPB_WH0H@Z
_TEXT	SEGMENT
_lcid$ = 8						; size = 4
_dwFlags$ = 12						; size = 4
_pszString1$ = 16					; size = 4
_nLength1$ = 20						; size = 4
_pszString2$ = 24					; size = 4
_nLength2$ = 28						; size = 4
?CompareStringWThunk@ATL@@YGHKKPB_WH0H@Z PROC NEAR	; ATL::CompareStringWThunk, COMDAT

; 216  : {

  00000	55		 push	 ebp
  00001	8b ec		 mov	 ebp, esp
  00003	56		 push	 esi

; 217  : 	_AtlInstallStringThunk(reinterpret_cast<void**>(&_strthunks.pfnCompareStringW), CompareStringWFake, ::CompareStringW);

  00004	a1 00 00 00 00	 mov	 eax, DWORD PTR __imp__CompareStringW@24
  00009	50		 push	 eax
  0000a	68 00 00 00 00	 push	 OFFSET FLAT:?CompareStringWFake@ATL@@YGHKKPB_WH0H@Z ; ATL::CompareStringWFake
  0000f	68 00 00 00 00	 push	 OFFSET FLAT:?_strthunks@ATL@@3U_AtlStringThunks@1@A ; ATL::_strthunks
  00014	e8 00 00 00 00	 call	 ?_AtlInstallStringThunk@ATL@@YAXPAPAXPAX1@Z ; ATL::_AtlInstallStringThunk
  00019	83 c4 0c	 add	 esp, 12			; 0000000cH

; 218  : 
; 219  : 	return _strthunks.pfnCompareStringW(lcid, dwFlags, pszString1, nLength1, pszString2, nLength2);

  0001c	8b f4		 mov	 esi, esp
  0001e	8b 4d 1c	 mov	 ecx, DWORD PTR _nLength2$[ebp]
  00021	51		 push	 ecx
  00022	8b 55 18	 mov	 edx, DWORD PTR _pszString2$[ebp]
  00025	52		 push	 edx
  00026	8b 45 14	 mov	 eax, DWORD PTR _nLength1$[ebp]
  00029	50		 push	 eax
  0002a	8b 4d 10	 mov	 ecx, DWORD PTR _pszString1$[ebp]
  0002d	51		 push	 ecx
  0002e	8b 55 0c	 mov	 edx, DWORD PTR _dwFlags$[ebp]
  00031	52		 push	 edx
  00032	8b 45 08	 mov	 eax, DWORD PTR _lcid$[ebp]
  00035	50		 push	 eax
  00036	ff 15 00 00 00
	00		 call	 DWORD PTR ?_strthunks@ATL@@3U_AtlStringThunks@1@A
  0003c	3b f4		 cmp	 esi, esp
  0003e	e8 00 00 00 00	 call	 __RTC_CheckEsp

; 220  : }

  00043	5e		 pop	 esi
  00044	3b ec		 cmp	 ebp, esp
  00046	e8 00 00 00 00	 call	 __RTC_CheckEsp
  0004b	5d		 pop	 ebp
  0004c	c2 18 00	 ret	 24			; 00000018H
?CompareStringWThunk@ATL@@YGHKKPB_WH0H@Z ENDP		; ATL::CompareStringWThunk
_TEXT	ENDS
PUBLIC	?_AtlVerifyStackAvailable@_ATL_SAFE_ALLOCA_IMPL@ATL@@YA_NK@Z ; ATL::_ATL_SAFE_ALLOCA_IMPL::_AtlVerifyStackAvailable
PUBLIC	?AtlThrow@ATL@@YGXJ@Z				; ATL::AtlThrow
PUBLIC	?AtlW2AHelper@@YGPADPADPB_WHI@Z			; AtlW2AHelper
PUBLIC	??0?$CAtlSafeAllocBufferManager@VCCRTAllocator@ATL@@@_ATL_SAFE_ALLOCA_IMPL@ATL@@QAE@XZ ; ATL::_ATL_SAFE_ALLOCA_IMPL::CAtlSafeAllocBufferManager<ATL::CCRTAllocator>::CAtlSafeAllocBufferManager<ATL::CCRTAllocator>
PUBLIC	?Allocate@?$CAtlSafeAllocBufferManager@VCCRTAllocator@ATL@@@_ATL_SAFE_ALLOCA_IMPL@ATL@@QAEPAXK@Z ; ATL::_ATL_SAFE_ALLOCA_IMPL::CAtlSafeAllocBufferManager<ATL::CCRTAllocator>::Allocate
PUBLIC	??1?$CAtlSafeAllocBufferManager@VCCRTAllocator@ATL@@@_ATL_SAFE_ALLOCA_IMPL@ATL@@QAE@XZ ; ATL::_ATL_SAFE_ALLOCA_IMPL::CAtlSafeAllocBufferManager<ATL::CCRTAllocator>::~CAtlSafeAllocBufferManager<ATL::CCRTAllocator>
EXTRN	__imp__lstrlenW@4:NEAR
EXTRN	__imp__CompareStringA@24:NEAR
EXTRN	__alloca_probe:NEAR
;	COMDAT xdata$x
xdata$x	SEGMENT
$T197503 DD	0ffffffffH
	DD	FLAT:$L197495
$T197497 DD	019930520H
	DD	01H
	DD	FLAT:$T197503
	DD	2 DUP(00H)
	DD	2 DUP(00H)
; Function compile flags: /Odt /RTCsu
xdata$x	ENDS
;	COMDAT ?CompareStringWFake@ATL@@YGHKKPB_WH0H@Z
_TEXT	SEGMENT
tv147 = -76						; size = 4
tv142 = -72						; size = 4
tv149 = -68						; size = 4
tv89 = -64						; size = 4
tv84 = -60						; size = 4
tv91 = -56						; size = 4
$T197494 = -52						; size = 4
_pszAString2$ = -48					; size = 4
_pszAString1$ = -44					; size = 4
__AtlSafeAllocaManager$ = -36				; size = 4
__lpa_ex$ = -28						; size = 4
__lpw_ex$ = -24						; size = 4
__acp_ex$ = -20						; size = 4
__convert_ex$ = -16					; size = 4
__$EHRec$ = -12						; size = 12
_lcid$ = 8						; size = 4
_dwFlags$ = 12						; size = 4
_pszString1$ = 16					; size = 4
_nLength1$ = 20						; size = 4
_pszString2$ = 24					; size = 4
_nLength2$ = 28						; size = 4
?CompareStringWFake@ATL@@YGHKKPB_WH0H@Z PROC NEAR	; ATL::CompareStringWFake, COMDAT

; 192  : {

  00000	55		 push	 ebp
  00001	8b ec		 mov	 ebp, esp
  00003	6a ff		 push	 -1
  00005	68 00 00 00 00	 push	 __ehhandler$?CompareStringWFake@ATL@@YGHKKPB_WH0H@Z
  0000a	64 a1 00 00 00
	00		 mov	 eax, DWORD PTR fs:__except_list
  00010	50		 push	 eax
  00011	64 89 25 00 00
	00 00		 mov	 DWORD PTR fs:__except_list, esp
  00018	83 ec 40	 sub	 esp, 64			; 00000040H
  0001b	56		 push	 esi
  0001c	57		 push	 edi
  0001d	8d 7d b4	 lea	 edi, DWORD PTR [ebp-76]
  00020	b9 10 00 00 00	 mov	 ecx, 16			; 00000010H
  00025	b8 cc cc cc cc	 mov	 eax, -858993460		; ccccccccH
  0002a	f3 ab		 rep stosd

; 193  : 	USES_CONVERSION_EX;

  0002c	c7 45 f0 00 00
	00 00		 mov	 DWORD PTR __convert_ex$[ebp], 0
  00033	e8 00 00 00 00	 call	 ?_AtlGetConversionACP@ATL@@YGIXZ ; ATL::_AtlGetConversionACP
  00038	89 45 ec	 mov	 DWORD PTR __acp_ex$[ebp], eax
  0003b	c7 45 e8 00 00
	00 00		 mov	 DWORD PTR __lpw_ex$[ebp], 0
  00042	c7 45 e4 00 00
	00 00		 mov	 DWORD PTR __lpa_ex$[ebp], 0
  00049	8d 4d dc	 lea	 ecx, DWORD PTR __AtlSafeAllocaManager$[ebp]
  0004c	e8 00 00 00 00	 call	 ??0?$CAtlSafeAllocBufferManager@VCCRTAllocator@ATL@@@_ATL_SAFE_ALLOCA_IMPL@ATL@@QAE@XZ ; ATL::_ATL_SAFE_ALLOCA_IMPL::CAtlSafeAllocBufferManager<ATL::CCRTAllocator>::CAtlSafeAllocBufferManager<ATL::CCRTAllocator>
  00051	c7 45 fc 00 00
	00 00		 mov	 DWORD PTR __$EHRec$[ebp+8], 0

; 194  : 	
; 195  : 	LPCSTR pszAString1 = NULL;

  00058	c7 45 d4 00 00
	00 00		 mov	 DWORD PTR _pszAString1$[ebp], 0

; 196  : 	if(pszString1 != NULL)

  0005f	83 7d 10 00	 cmp	 DWORD PTR _pszString1$[ebp], 0
  00063	0f 84 a1 00 00
	00		 je	 $L26349

; 197  : 	{
; 198  : 		pszAString1 = W2A_EX(pszString1,_ATL_SAFE_ALLOCA_DEF_THRESHOLD);

  00069	8b 45 10	 mov	 eax, DWORD PTR _pszString1$[ebp]
  0006c	89 45 e8	 mov	 DWORD PTR __lpw_ex$[ebp], eax
  0006f	83 7d e8 00	 cmp	 DWORD PTR __lpw_ex$[ebp], 0
  00073	75 09		 jne	 SHORT $L197488
  00075	c7 45 c8 00 00
	00 00		 mov	 DWORD PTR tv91[ebp], 0
  0007c	eb 76		 jmp	 SHORT $L197489
$L197488:
  0007e	8b f4		 mov	 esi, esp
  00080	8b 4d e8	 mov	 ecx, DWORD PTR __lpw_ex$[ebp]
  00083	51		 push	 ecx
  00084	ff 15 00 00 00
	00		 call	 DWORD PTR __imp__lstrlenW@4
  0008a	3b f4		 cmp	 esi, esp
  0008c	e8 00 00 00 00	 call	 __RTC_CheckEsp
  00091	8d 54 00 02	 lea	 edx, DWORD PTR [eax+eax+2]
  00095	89 55 f0	 mov	 DWORD PTR __convert_ex$[ebp], edx
  00098	81 7d f0 00 04
	00 00		 cmp	 DWORD PTR __convert_ex$[ebp], 1024 ; 00000400H
  0009f	7f 2c		 jg	 SHORT $L197486
  000a1	8b 45 f0	 mov	 eax, DWORD PTR __convert_ex$[ebp]
  000a4	50		 push	 eax
  000a5	e8 00 00 00 00	 call	 ?_AtlVerifyStackAvailable@_ATL_SAFE_ALLOCA_IMPL@ATL@@YA_NK@Z ; ATL::_ATL_SAFE_ALLOCA_IMPL::_AtlVerifyStackAvailable
  000aa	83 c4 04	 add	 esp, 4
  000ad	0f b6 c8	 movzx	 ecx, al
  000b0	85 c9		 test	 ecx, ecx
  000b2	74 19		 je	 SHORT $L197486
  000b4	8b 45 f0	 mov	 eax, DWORD PTR __convert_ex$[ebp]
  000b7	83 c0 03	 add	 eax, 3
  000ba	83 e0 fc	 and	 eax, -4			; fffffffcH
  000bd	e8 00 00 00 00	 call	 __alloca_probe
  000c2	89 65 c4	 mov	 DWORD PTR tv84[ebp], esp
  000c5	8b 55 c4	 mov	 edx, DWORD PTR tv84[ebp]
  000c8	89 55 c0	 mov	 DWORD PTR tv89[ebp], edx
  000cb	eb 0f		 jmp	 SHORT $L197487
$L197486:
  000cd	8b 45 f0	 mov	 eax, DWORD PTR __convert_ex$[ebp]
  000d0	50		 push	 eax
  000d1	8d 4d dc	 lea	 ecx, DWORD PTR __AtlSafeAllocaManager$[ebp]
  000d4	e8 00 00 00 00	 call	 ?Allocate@?$CAtlSafeAllocBufferManager@VCCRTAllocator@ATL@@@_ATL_SAFE_ALLOCA_IMPL@ATL@@QAEPAXK@Z ; ATL::_ATL_SAFE_ALLOCA_IMPL::CAtlSafeAllocBufferManager<ATL::CCRTAllocator>::Allocate
  000d9	89 45 c0	 mov	 DWORD PTR tv89[ebp], eax
$L197487:
  000dc	8b 4d ec	 mov	 ecx, DWORD PTR __acp_ex$[ebp]
  000df	51		 push	 ecx
  000e0	8b 55 f0	 mov	 edx, DWORD PTR __convert_ex$[ebp]
  000e3	52		 push	 edx
  000e4	8b 45 e8	 mov	 eax, DWORD PTR __lpw_ex$[ebp]
  000e7	50		 push	 eax
  000e8	8b 4d c0	 mov	 ecx, DWORD PTR tv89[ebp]
  000eb	51		 push	 ecx
  000ec	e8 00 00 00 00	 call	 ?AtlW2AHelper@@YGPADPADPB_WHI@Z ; AtlW2AHelper
  000f1	89 45 c8	 mov	 DWORD PTR tv91[ebp], eax
$L197489:
  000f4	8b 55 c8	 mov	 edx, DWORD PTR tv91[ebp]
  000f7	89 55 d4	 mov	 DWORD PTR _pszAString1$[ebp], edx

; 199  : 		if(pszAString1 == NULL)

  000fa	83 7d d4 00	 cmp	 DWORD PTR _pszAString1$[ebp], 0
  000fe	75 0a		 jne	 SHORT $L26349

; 200  : 			AtlThrow(E_OUTOFMEMORY);

  00100	68 0e 00 07 80	 push	 -2147024882		; 8007000eH
  00105	e8 00 00 00 00	 call	 ?AtlThrow@ATL@@YGXJ@Z	; ATL::AtlThrow
$L26349:

; 201  : 	}
; 202  : 
; 203  : 	LPCSTR pszAString2 = NULL;

  0010a	c7 45 d0 00 00
	00 00		 mov	 DWORD PTR _pszAString2$[ebp], 0

; 204  : 	if(pszString2 != NULL)

  00111	83 7d 18 00	 cmp	 DWORD PTR _pszString2$[ebp], 0
  00115	0f 84 a1 00 00
	00		 je	 $L26355

; 205  : 	{
; 206  : 		pszAString2 = W2A_EX(pszString2,_ATL_SAFE_ALLOCA_DEF_THRESHOLD);

  0011b	8b 45 18	 mov	 eax, DWORD PTR _pszString2$[ebp]
  0011e	89 45 e8	 mov	 DWORD PTR __lpw_ex$[ebp], eax
  00121	83 7d e8 00	 cmp	 DWORD PTR __lpw_ex$[ebp], 0
  00125	75 09		 jne	 SHORT $L197492
  00127	c7 45 bc 00 00
	00 00		 mov	 DWORD PTR tv149[ebp], 0
  0012e	eb 76		 jmp	 SHORT $L197493
$L197492:
  00130	8b f4		 mov	 esi, esp
  00132	8b 4d e8	 mov	 ecx, DWORD PTR __lpw_ex$[ebp]
  00135	51		 push	 ecx
  00136	ff 15 00 00 00
	00		 call	 DWORD PTR __imp__lstrlenW@4
  0013c	3b f4		 cmp	 esi, esp
  0013e	e8 00 00 00 00	 call	 __RTC_CheckEsp
  00143	8d 54 00 02	 lea	 edx, DWORD PTR [eax+eax+2]
  00147	89 55 f0	 mov	 DWORD PTR __convert_ex$[ebp], edx
  0014a	81 7d f0 00 04
	00 00		 cmp	 DWORD PTR __convert_ex$[ebp], 1024 ; 00000400H
  00151	7f 2c		 jg	 SHORT $L197490
  00153	8b 45 f0	 mov	 eax, DWORD PTR __convert_ex$[ebp]
  00156	50		 push	 eax
  00157	e8 00 00 00 00	 call	 ?_AtlVerifyStackAvailable@_ATL_SAFE_ALLOCA_IMPL@ATL@@YA_NK@Z ; ATL::_ATL_SAFE_ALLOCA_IMPL::_AtlVerifyStackAvailable
  0015c	83 c4 04	 add	 esp, 4
  0015f	0f b6 c8	 movzx	 ecx, al
  00162	85 c9		 test	 ecx, ecx
  00164	74 19		 je	 SHORT $L197490
  00166	8b 45 f0	 mov	 eax, DWORD PTR __convert_ex$[ebp]
  00169	83 c0 03	 add	 eax, 3
  0016c	83 e0 fc	 and	 eax, -4			; fffffffcH
  0016f	e8 00 00 00 00	 call	 __alloca_probe
  00174	89 65 b8	 mov	 DWORD PTR tv142[ebp], esp
  00177	8b 55 b8	 mov	 edx, DWORD PTR tv142[ebp]
  0017a	89 55 b4	 mov	 DWORD PTR tv147[ebp], edx
  0017d	eb 0f		 jmp	 SHORT $L197491
$L197490:
  0017f	8b 45 f0	 mov	 eax, DWORD PTR __convert_ex$[ebp]
  00182	50		 push	 eax
  00183	8d 4d dc	 lea	 ecx, DWORD PTR __AtlSafeAllocaManager$[ebp]
  00186	e8 00 00 00 00	 call	 ?Allocate@?$CAtlSafeAllocBufferManager@VCCRTAllocator@ATL@@@_ATL_SAFE_ALLOCA_IMPL@ATL@@QAEPAXK@Z ; ATL::_ATL_SAFE_ALLOCA_IMPL::CAtlSafeAllocBufferManager<ATL::CCRTAllocator>::Allocate
  0018b	89 45 b4	 mov	 DWORD PTR tv147[ebp], eax
$L197491:
  0018e	8b 4d ec	 mov	 ecx, DWORD PTR __acp_ex$[ebp]
  00191	51		 push	 ecx
  00192	8b 55 f0	 mov	 edx, DWORD PTR __convert_ex$[ebp]
  00195	52		 push	 edx
  00196	8b 45 e8	 mov	 eax, DWORD PTR __lpw_ex$[ebp]
  00199	50		 push	 eax
  0019a	8b 4d b4	 mov	 ecx, DWORD PTR tv147[ebp]
  0019d	51		 push	 ecx
  0019e	e8 00 00 00 00	 call	 ?AtlW2AHelper@@YGPADPADPB_WHI@Z ; AtlW2AHelper
  001a3	89 45 bc	 mov	 DWORD PTR tv149[ebp], eax
$L197493:
  001a6	8b 55 bc	 mov	 edx, DWORD PTR tv149[ebp]
  001a9	89 55 d0	 mov	 DWORD PTR _pszAString2$[ebp], edx

; 207  : 		if(pszAString2 == NULL)

  001ac	83 7d d0 00	 cmp	 DWORD PTR _pszAString2$[ebp], 0
  001b0	75 0a		 jne	 SHORT $L26355

; 208  : 			AtlThrow(E_OUTOFMEMORY);

  001b2	68 0e 00 07 80	 push	 -2147024882		; 8007000eH
  001b7	e8 00 00 00 00	 call	 ?AtlThrow@ATL@@YGXJ@Z	; ATL::AtlThrow
$L26355:

; 209  : 	}
; 210  : 
; 211  : 	return ::CompareStringA(lcid, dwFlags, pszAString1, nLength1, pszAString2, nLength2);

  001bc	8b f4		 mov	 esi, esp
  001be	8b 45 1c	 mov	 eax, DWORD PTR _nLength2$[ebp]
  001c1	50		 push	 eax
  001c2	8b 4d d0	 mov	 ecx, DWORD PTR _pszAString2$[ebp]
  001c5	51		 push	 ecx
  001c6	8b 55 14	 mov	 edx, DWORD PTR _nLength1$[ebp]
  001c9	52		 push	 edx
  001ca	8b 45 d4	 mov	 eax, DWORD PTR _pszAString1$[ebp]
  001cd	50		 push	 eax
  001ce	8b 4d 0c	 mov	 ecx, DWORD PTR _dwFlags$[ebp]
  001d1	51		 push	 ecx
  001d2	8b 55 08	 mov	 edx, DWORD PTR _lcid$[ebp]
  001d5	52		 push	 edx
  001d6	ff 15 00 00 00
	00		 call	 DWORD PTR __imp__CompareStringA@24
  001dc	3b f4		 cmp	 esi, esp
  001de	e8 00 00 00 00	 call	 __RTC_CheckEsp
  001e3	89 45 cc	 mov	 DWORD PTR $T197494[ebp], eax
  001e6	c7 45 fc ff ff
	ff ff		 mov	 DWORD PTR __$EHRec$[ebp+8], -1
  001ed	8d 4d dc	 lea	 ecx, DWORD PTR __AtlSafeAllocaManager$[ebp]
  001f0	e8 00 00 00 00	 call	 ??1?$CAtlSafeAllocBufferManager@VCCRTAllocator@ATL@@@_ATL_SAFE_ALLOCA_IMPL@ATL@@QAE@XZ ; ATL::_ATL_SAFE_ALLOCA_IMPL::CAtlSafeAllocBufferManager<ATL::CCRTAllocator>::~CAtlSafeAllocBufferManager<ATL::CCRTAllocator>
  001f5	8b 45 cc	 mov	 eax, DWORD PTR $T197494[ebp]
$L197485:

; 212  : }

  001f8	8d 65 ac	 lea	 esp, DWORD PTR [ebp-84]
  001fb	52		 push	 edx
  001fc	8b cd		 mov	 ecx, ebp
  001fe	50		 push	 eax
  001ff	8d 15 00 00 00
	00		 lea	 edx, DWORD PTR $L197502
  00205	e8 00 00 00 00	 call	 @_RTC_CheckStackVars@8
  0020a	58		 pop	 eax
  0020b	5a		 pop	 edx
  0020c	8b 4d f4	 mov	 ecx, DWORD PTR __$EHRec$[ebp]
  0020f	64 89 0d 00 00
	00 00		 mov	 DWORD PTR fs:__except_list, ecx
  00216	5f		 pop	 edi
  00217	5e		 pop	 esi
  00218	8b e5		 mov	 esp, ebp
  0021a	5d		 pop	 ebp
  0021b	c2 18 00	 ret	 24			; 00000018H
$L197502:
  0021e	01 00 00 00	 DD	 1
  00222	00 00 00 00	 DD	 $L197501
$L197501:
  00226	dc ff ff ff	 DD	 -36			; ffffffdcH
  0022a	04 00 00 00	 DD	 4
  0022e	00 00 00 00	 DD	 $L197499
$L197499:
  00232	5f		 DB	 95			; 0000005fH
  00233	41		 DB	 65			; 00000041H
  00234	74		 DB	 116			; 00000074H
  00235	6c		 DB	 108			; 0000006cH
  00236	53		 DB	 83			; 00000053H
  00237	61		 DB	 97			; 00000061H
  00238	66		 DB	 102			; 00000066H
  00239	65		 DB	 101			; 00000065H
  0023a	41		 DB	 65			; 00000041H
  0023b	6c		 DB	 108			; 0000006cH
  0023c	6c		 DB	 108			; 0000006cH
  0023d	6f		 DB	 111			; 0000006fH
  0023e	63		 DB	 99			; 00000063H
  0023f	61		 DB	 97			; 00000061H
  00240	4d		 DB	 77			; 0000004dH
  00241	61		 DB	 97			; 00000061H
  00242	6e		 DB	 110			; 0000006eH
  00243	61		 DB	 97			; 00000061H
  00244	67		 DB	 103			; 00000067H
  00245	65		 DB	 101			; 00000065H
  00246	72		 DB	 114			; 00000072H
  00247	00		 DB	 0
_TEXT	ENDS
;	COMDAT text$x
text$x	SEGMENT
$L197495:
  00000	8d 4d dc	 lea	 ecx, DWORD PTR __AtlSafeAllocaManager$[ebp]
  00003	e9 00 00 00 00	 jmp	 ??1?$CAtlSafeAllocBufferManager@VCCRTAllocator@ATL@@@_ATL_SAFE_ALLOCA_IMPL@ATL@@QAE@XZ ; ATL::_ATL_SAFE_ALLOCA_IMPL::CAtlSafeAllocBufferManager<ATL::CCRTAllocator>::~CAtlSafeAllocBufferManager<ATL::CCRTAllocator>
__ehhandler$?CompareStringWFake@ATL@@YGHKKPB_WH0H@Z:
  00008	b8 00 00 00 00	 mov	 eax, OFFSET FLAT:$T197497
  0000d	e9 00 00 00 00	 jmp	 ___CxxFrameHandler
text$x	ENDS
?CompareStringWFake@ATL@@YGHKKPB_WH0H@Z ENDP		; ATL::CompareStringWFake
EXTRN	__imp___resetstkoflw:NEAR
EXTRN	__except_handler3:NEAR
;	COMDAT CONST
; File d:\program files (x86)\microsoft visual studio .net 2003\vc7\atlmfc\include\atlalloc.h
CONST	SEGMENT
$T197513 DD	0ffffffffH
	DD	FLAT:$L197508
	DD	FLAT:$L197509
; Function compile flags: /Odt /RTCsu
CONST	ENDS
;	COMDAT ?_AtlVerifyStackAvailable@_ATL_SAFE_ALLOCA_IMPL@ATL@@YA_NK@Z
_TEXT	SEGMENT
tv65 = -48						; size = 4
$T197512 = -44						; size = 4
_p$24107 = -36						; size = 4
_bStackAvailable$ = -25					; size = 1
__$SEHRec$ = -24					; size = 24
_Size$ = 8						; size = 4
?_AtlVerifyStackAvailable@_ATL_SAFE_ALLOCA_IMPL@ATL@@YA_NK@Z PROC NEAR ; ATL::_ATL_SAFE_ALLOCA_IMPL::_AtlVerifyStackAvailable, COMDAT

; 331  : {

  00000	55		 push	 ebp
  00001	8b ec		 mov	 ebp, esp
  00003	6a ff		 push	 -1
  00005	68 00 00 00 00	 push	 OFFSET FLAT:$T197513
  0000a	68 00 00 00 00	 push	 OFFSET FLAT:__except_handler3
  0000f	64 a1 00 00 00
	00		 mov	 eax, DWORD PTR fs:__except_list
  00015	50		 push	 eax
  00016	64 89 25 00 00
	00 00		 mov	 DWORD PTR fs:__except_list, esp
  0001d	83 c4 e0	 add	 esp, -32		; ffffffe0H
  00020	53		 push	 ebx
  00021	56		 push	 esi
  00022	57		 push	 edi
  00023	b8 cc cc cc cc	 mov	 eax, -858993460		; ccccccccH
  00028	89 45 d0	 mov	 DWORD PTR [ebp-48], eax
  0002b	89 45 d4	 mov	 DWORD PTR [ebp-44], eax
  0002e	89 45 d8	 mov	 DWORD PTR [ebp-40], eax
  00031	89 45 dc	 mov	 DWORD PTR [ebp-36], eax
  00034	89 45 e0	 mov	 DWORD PTR [ebp-32], eax
  00037	89 45 e4	 mov	 DWORD PTR [ebp-28], eax
  0003a	89 65 e8	 mov	 DWORD PTR __$SEHRec$[ebp], esp

; 332  :     bool bStackAvailable = true;

  0003d	c6 45 e7 01	 mov	 BYTE PTR _bStackAvailable$[ebp], 1

; 333  : 
; 334  :     __try

  00041	c7 45 fc 00 00
	00 00		 mov	 DWORD PTR __$SEHRec$[ebp+20], 0

; 335  :     {
; 336  :         PVOID p = _alloca(Size + _ATL_STACK_MARGIN);

  00048	8b 45 08	 mov	 eax, DWORD PTR _Size$[ebp]
  0004b	05 03 20 00 00	 add	 eax, 8195		; 00002003H
  00050	83 e0 fc	 and	 eax, -4			; fffffffcH
  00053	e8 00 00 00 00	 call	 __alloca_probe
  00058	89 65 d0	 mov	 DWORD PTR tv65[ebp], esp
  0005b	89 65 e8	 mov	 DWORD PTR __$SEHRec$[ebp], esp
  0005e	8b 45 d0	 mov	 eax, DWORD PTR tv65[ebp]
  00061	89 45 dc	 mov	 DWORD PTR _p$24107[ebp], eax
  00064	c7 45 fc ff ff
	ff ff		 mov	 DWORD PTR __$SEHRec$[ebp+20], -1
  0006b	eb 35		 jmp	 SHORT $L197511
$L197508:

; 337  :         (p);
; 338  :     }
; 339  :     __except ((EXCEPTION_STACK_OVERFLOW == GetExceptionCode()) ?
; 340  :                    EXCEPTION_EXECUTE_HANDLER :
; 341  :                    EXCEPTION_CONTINUE_SEARCH)

  0006d	8b 4d ec	 mov	 ecx, DWORD PTR __$SEHRec$[ebp+4]
  00070	8b 11		 mov	 edx, DWORD PTR [ecx]
  00072	8b 02		 mov	 eax, DWORD PTR [edx]
  00074	89 45 d4	 mov	 DWORD PTR $T197512[ebp], eax
  00077	8b 45 d4	 mov	 eax, DWORD PTR $T197512[ebp]
  0007a	2d fd 00 00 c0	 sub	 eax, -1073741571	; c00000fdH
  0007f	f7 d8		 neg	 eax
  00081	1b c0		 sbb	 eax, eax
  00083	40		 inc	 eax
$L197510:
  00084	c3		 ret	 0
$L197509:
  00085	8b 65 e8	 mov	 esp, DWORD PTR __$SEHRec$[ebp]

; 342  :     {
; 343  :         bStackAvailable = false;

  00088	c6 45 e7 00	 mov	 BYTE PTR _bStackAvailable$[ebp], 0

; 344  :         _resetstkoflw();

  0008c	8b f4		 mov	 esi, esp
  0008e	ff 15 00 00 00
	00		 call	 DWORD PTR __imp___resetstkoflw
  00094	3b f4		 cmp	 esi, esp
  00096	e8 00 00 00 00	 call	 __RTC_CheckEsp
  0009b	c7 45 fc ff ff
	ff ff		 mov	 DWORD PTR __$SEHRec$[ebp+20], -1
$L197511:

; 345  :     }
; 346  :     return bStackAvailable;

  000a2	8a 45 e7	 mov	 al, BYTE PTR _bStackAvailable$[ebp]
$L197507:

; 347  : }

  000a5	8d 65 c4	 lea	 esp, DWORD PTR [ebp-60]
  000a8	52		 push	 edx
  000a9	8b cd		 mov	 ecx, ebp
  000ab	50		 push	 eax
  000ac	8d 15 00 00 00
	00		 lea	 edx, DWORD PTR $L197518
  000b2	e8 00 00 00 00	 call	 @_RTC_CheckStackVars@8
  000b7	58		 pop	 eax
  000b8	5a		 pop	 edx
  000b9	8b 4d f0	 mov	 ecx, DWORD PTR __$SEHRec$[ebp+8]
  000bc	64 89 0d 00 00
	00 00		 mov	 DWORD PTR fs:__except_list, ecx
  000c3	5f		 pop	 edi
  000c4	5e		 pop	 esi
  000c5	5b		 pop	 ebx
  000c6	8b e5		 mov	 esp, ebp
  000c8	5d		 pop	 ebp
  000c9	c3		 ret	 0
$L197518:
  000ca	01 00 00 00	 DD	 1
  000ce	00 00 00 00	 DD	 $L197517
$L197517:
  000d2	dc ff ff ff	 DD	 -36			; ffffffdcH
  000d6	04 00 00 00	 DD	 4
  000da	00 00 00 00	 DD	 $L197515
$L197515:
  000de	70		 DB	 112			; 00000070H
  000df	00		 DB	 0
?_AtlVerifyStackAvailable@_ATL_SAFE_ALLOCA_IMPL@ATL@@YA_NK@Z ENDP ; ATL::_ATL_SAFE_ALLOCA_IMPL::_AtlVerifyStackAvailable
_TEXT	ENDS
PUBLIC	??_C@_08DMHHBMMN@lpa?5?$CB?$DN?50?$AA@		; `string'
PUBLIC	??_C@_0FG@PFHCBDBK@D?3?2Program?5Files?5?$CIx86?$CJ?2Microsoft@ ; `string'
PUBLIC	??_C@_08DIHJLFDJ@lpw?5?$CB?$DN?50?$AA@		; `string'
PUBLIC	??_C@_01GBGANLPD@0?$AA@				; `string'
EXTRN	__imp__WideCharToMultiByte@32:NEAR
;	COMDAT ??_C@_08DIHJLFDJ@lpw?5?$CB?$DN?50?$AA@
; File d:\program files (x86)\microsoft visual studio .net 2003\vc7\atlmfc\include\atlconv.h
CONST	SEGMENT
??_C@_08DIHJLFDJ@lpw?5?$CB?$DN?50?$AA@ DB 'lpw != 0', 00H ; `string'
CONST	ENDS
;	COMDAT ??_C@_0FG@PFHCBDBK@D?3?2Program?5Files?5?$CIx86?$CJ?2Microsoft@
CONST	SEGMENT
??_C@_0FG@PFHCBDBK@D?3?2Program?5Files?5?$CIx86?$CJ?2Microsoft@ DB 'D:\Pr'
	DB	'ogram Files (x86)\Microsoft Visual Studio .NET 2003\Vc7\atlmf'
	DB	'c\include\atlconv.h', 00H			; `string'
CONST	ENDS
;	COMDAT ??_C@_08DMHHBMMN@lpa?5?$CB?$DN?50?$AA@
CONST	SEGMENT
??_C@_08DMHHBMMN@lpa?5?$CB?$DN?50?$AA@ DB 'lpa != 0', 00H ; `string'
CONST	ENDS
;	COMDAT ??_C@_01GBGANLPD@0?$AA@
CONST	SEGMENT
??_C@_01GBGANLPD@0?$AA@ DB '0', 00H			; `string'
; Function compile flags: /Odt /RTCsu
CONST	ENDS
;	COMDAT ?AtlW2AHelper@@YGPADPADPB_WHI@Z
_TEXT	SEGMENT
_ret$ = -4						; size = 4
_lpa$ = 8						; size = 4
_lpw$ = 12						; size = 4
_nChars$ = 16						; size = 4
_acp$ = 20						; size = 4
?AtlW2AHelper@@YGPADPADPB_WHI@Z PROC NEAR		; AtlW2AHelper, COMDAT

; 573  : {

  00000	55		 push	 ebp
  00001	8b ec		 mov	 ebp, esp
  00003	51		 push	 ecx
  00004	56		 push	 esi
  00005	c7 45 fc cc cc
	cc cc		 mov	 DWORD PTR [ebp-4], -858993460 ; ccccccccH

; 574  : 	ATLASSERT(lpw != NULL);

  0000c	83 7d 0c 00	 cmp	 DWORD PTR _lpw$[ebp], 0
  00010	75 2b		 jne	 SHORT $L197522
  00012	8b f4		 mov	 esi, esp
  00014	68 00 00 00 00	 push	 OFFSET FLAT:??_C@_08DIHJLFDJ@lpw?5?$CB?$DN?50?$AA@
  00019	6a 00		 push	 0
  0001b	68 3e 02 00 00	 push	 574			; 0000023eH
  00020	68 00 00 00 00	 push	 OFFSET FLAT:??_C@_0FG@PFHCBDBK@D?3?2Program?5Files?5?$CIx86?$CJ?2Microsoft@
  00025	6a 02		 push	 2
  00027	ff 15 00 00 00
	00		 call	 DWORD PTR __imp___CrtDbgReport
  0002d	83 c4 14	 add	 esp, 20			; 00000014H
  00030	3b f4		 cmp	 esi, esp
  00032	e8 00 00 00 00	 call	 __RTC_CheckEsp
  00037	83 f8 01	 cmp	 eax, 1
  0003a	75 01		 jne	 SHORT $L197522
  0003c	cc		 int	 3
$L197522:

; 575  : 	ATLASSERT(lpa != NULL);

  0003d	83 7d 08 00	 cmp	 DWORD PTR _lpa$[ebp], 0
  00041	75 2b		 jne	 SHORT $L197523
  00043	8b f4		 mov	 esi, esp
  00045	68 00 00 00 00	 push	 OFFSET FLAT:??_C@_08DMHHBMMN@lpa?5?$CB?$DN?50?$AA@
  0004a	6a 00		 push	 0
  0004c	68 3f 02 00 00	 push	 575			; 0000023fH
  00051	68 00 00 00 00	 push	 OFFSET FLAT:??_C@_0FG@PFHCBDBK@D?3?2Program?5Files?5?$CIx86?$CJ?2Microsoft@
  00056	6a 02		 push	 2
  00058	ff 15 00 00 00
	00		 call	 DWORD PTR __imp___CrtDbgReport
  0005e	83 c4 14	 add	 esp, 20			; 00000014H
  00061	3b f4		 cmp	 esi, esp
  00063	e8 00 00 00 00	 call	 __RTC_CheckEsp
  00068	83 f8 01	 cmp	 eax, 1
  0006b	75 01		 jne	 SHORT $L197523
  0006d	cc		 int	 3
$L197523:

; 576  : 	if (lpa == NULL || lpw == NULL)

  0006e	83 7d 08 00	 cmp	 DWORD PTR _lpa$[ebp], 0
  00072	74 06		 je	 SHORT $L24313
  00074	83 7d 0c 00	 cmp	 DWORD PTR _lpw$[ebp], 0
  00078	75 04		 jne	 SHORT $L24312
$L24313:

; 577  : 		return NULL;

  0007a	33 c0		 xor	 eax, eax
  0007c	eb 6c		 jmp	 SHORT $L24309
$L24312:

; 578  : 	// verify that no illegal character present
; 579  : 	// since lpa was allocated based on the size of lpw
; 580  : 	// don't worry about the number of chars
; 581  : 	lpa[0] = '\0';

  0007e	8b 55 08	 mov	 edx, DWORD PTR _lpa$[ebp]
  00081	c6 02 00	 mov	 BYTE PTR [edx], 0

; 582  : 	int ret = WideCharToMultiByte(acp, 0, lpw, -1, lpa, nChars, NULL, NULL);

  00084	8b f4		 mov	 esi, esp
  00086	6a 00		 push	 0
  00088	6a 00		 push	 0
  0008a	8b 45 10	 mov	 eax, DWORD PTR _nChars$[ebp]
  0008d	50		 push	 eax
  0008e	8b 4d 08	 mov	 ecx, DWORD PTR _lpa$[ebp]
  00091	51		 push	 ecx
  00092	6a ff		 push	 -1
  00094	8b 55 0c	 mov	 edx, DWORD PTR _lpw$[ebp]
  00097	52		 push	 edx
  00098	6a 00		 push	 0
  0009a	8b 45 14	 mov	 eax, DWORD PTR _acp$[ebp]
  0009d	50		 push	 eax
  0009e	ff 15 00 00 00
	00		 call	 DWORD PTR __imp__WideCharToMultiByte@32
  000a4	3b f4		 cmp	 esi, esp
  000a6	e8 00 00 00 00	 call	 __RTC_CheckEsp
  000ab	89 45 fc	 mov	 DWORD PTR _ret$[ebp], eax

; 583  : 	if(ret == 0)

  000ae	83 7d fc 00	 cmp	 DWORD PTR _ret$[ebp], 0
  000b2	75 33		 jne	 SHORT $L24315

; 584  : 	{
; 585  : 		ATLASSERT(FALSE);

  000b4	33 c9		 xor	 ecx, ecx
  000b6	75 2b		 jne	 SHORT $L197524
  000b8	8b f4		 mov	 esi, esp
  000ba	68 00 00 00 00	 push	 OFFSET FLAT:??_C@_01GBGANLPD@0?$AA@
  000bf	6a 00		 push	 0
  000c1	68 49 02 00 00	 push	 585			; 00000249H
  000c6	68 00 00 00 00	 push	 OFFSET FLAT:??_C@_0FG@PFHCBDBK@D?3?2Program?5Files?5?$CIx86?$CJ?2Microsoft@
  000cb	6a 02		 push	 2
  000cd	ff 15 00 00 00
	00		 call	 DWORD PTR __imp___CrtDbgReport
  000d3	83 c4 14	 add	 esp, 20			; 00000014H
  000d6	3b f4		 cmp	 esi, esp
  000d8	e8 00 00 00 00	 call	 __RTC_CheckEsp
  000dd	83 f8 01	 cmp	 eax, 1
  000e0	75 01		 jne	 SHORT $L197524
  000e2	cc		 int	 3
$L197524:

; 586  : 		return NULL;

  000e3	33 c0		 xor	 eax, eax
  000e5	eb 03		 jmp	 SHORT $L24309
$L24315:

; 587  : 	}
; 588  : 	return lpa;

  000e7	8b 45 08	 mov	 eax, DWORD PTR _lpa$[ebp]
$L24309:

; 589  : }

  000ea	5e		 pop	 esi
  000eb	83 c4 04	 add	 esp, 4
  000ee	3b ec		 cmp	 ebp, esp
  000f0	e8 00 00 00 00	 call	 __RTC_CheckEsp
  000f5	8b e5		 mov	 esp, ebp
  000f7	5d		 pop	 ebp
  000f8	c2 10 00	 ret	 16			; 00000010H
?AtlW2AHelper@@YGPADPADPB_WHI@Z ENDP			; AtlW2AHelper
_TEXT	ENDS
PUBLIC	??BCTraceCategory@ATL@@QBEKXZ			; ATL::CTraceCategory::operator unsigned long
PUBLIC	??0CTraceFileAndLineInfo@ATL@@QAE@PBDH@Z	; ATL::CTraceFileAndLineInfo::CTraceFileAndLineInfo
PUBLIC	??RCTraceFileAndLineInfo@ATL@@QBAXKIPBDZZ	; ATL::CTraceFileAndLineInfo::operator()
PUBLIC	??_C@_0FI@NHHJANPC@D?3?2Program?5Files?5?$CIx86?$CJ?2Microsoft@ ; `string'
PUBLIC	??_C@_0BF@IAAKIJDJ@AtlThrow?3?5hr?5?$DN?50x?$CFx?6?$AA@ ; `string'
EXTRN	?atlTraceException@ATL@@3VCTraceCategory@1@A:DWORD ; ATL::atlTraceException
EXTRN	?AfxThrowMemoryException@@YGXXZ:NEAR		; AfxThrowMemoryException
EXTRN	?AfxThrowOleException@@YGXJ@Z:NEAR		; AfxThrowOleException
;	COMDAT ??_C@_0BF@IAAKIJDJ@AtlThrow?3?5hr?5?$DN?50x?$CFx?6?$AA@
; File d:\program files (x86)\microsoft visual studio .net 2003\vc7\atlmfc\include\atlexcept.h
CONST	SEGMENT
??_C@_0BF@IAAKIJDJ@AtlThrow?3?5hr?5?$DN?50x?$CFx?6?$AA@ DB 'AtlThrow: hr '
	DB	'= 0x%x', 0aH, 00H				; `string'
CONST	ENDS
;	COMDAT ??_C@_0FI@NHHJANPC@D?3?2Program?5Files?5?$CIx86?$CJ?2Microsoft@
CONST	SEGMENT
??_C@_0FI@NHHJANPC@D?3?2Program?5Files?5?$CIx86?$CJ?2Microsoft@ DB 'D:\Pr'
	DB	'ogram Files (x86)\Microsoft Visual Studio .NET 2003\Vc7\atlmf'
	DB	'c\include\atlexcept.h', 00H			; `string'
; Function compile flags: /Odt /RTCsu
CONST	ENDS
;	COMDAT ?AtlThrow@ATL@@YGXJ@Z
_TEXT	SEGMENT
$T197526 = -8						; size = 8
_hr$ = 8						; size = 4
?AtlThrow@ATL@@YGXJ@Z PROC NEAR				; ATL::AtlThrow, COMDAT

; 61   : {

  00000	55		 push	 ebp
  00001	8b ec		 mov	 ebp, esp
  00003	83 ec 08	 sub	 esp, 8
  00006	c7 45 f8 cc cc
	cc cc		 mov	 DWORD PTR [ebp-8], -858993460 ; ccccccccH
  0000d	c7 45 fc cc cc
	cc cc		 mov	 DWORD PTR [ebp-4], -858993460 ; ccccccccH

; 62   : 	ATLTRACE(atlTraceException, 0, _T("AtlThrow: hr = 0x%x\n"), hr );

  00014	8b 45 08	 mov	 eax, DWORD PTR _hr$[ebp]
  00017	50		 push	 eax
  00018	68 00 00 00 00	 push	 OFFSET FLAT:??_C@_0BF@IAAKIJDJ@AtlThrow?3?5hr?5?$DN?50x?$CFx?6?$AA@
  0001d	6a 00		 push	 0
  0001f	b9 00 00 00 00	 mov	 ecx, OFFSET FLAT:?atlTraceException@ATL@@3VCTraceCategory@1@A ; ATL::atlTraceException
  00024	e8 00 00 00 00	 call	 ??BCTraceCategory@ATL@@QBEKXZ ; ATL::CTraceCategory::operator unsigned long
  00029	50		 push	 eax
  0002a	6a 3e		 push	 62			; 0000003eH
  0002c	68 00 00 00 00	 push	 OFFSET FLAT:??_C@_0FI@NHHJANPC@D?3?2Program?5Files?5?$CIx86?$CJ?2Microsoft@
  00031	8d 4d f8	 lea	 ecx, DWORD PTR $T197526[ebp]
  00034	e8 00 00 00 00	 call	 ??0CTraceFileAndLineInfo@ATL@@QAE@PBDH@Z ; ATL::CTraceFileAndLineInfo::CTraceFileAndLineInfo
  00039	50		 push	 eax
  0003a	e8 00 00 00 00	 call	 ??RCTraceFileAndLineInfo@ATL@@QBAXKIPBDZZ ; ATL::CTraceFileAndLineInfo::operator()
  0003f	83 c4 14	 add	 esp, 20			; 00000014H

; 63   : #ifdef _AFX
; 64   : 	if( hr == E_OUTOFMEMORY )

  00042	81 7d 08 0e 00
	07 80		 cmp	 DWORD PTR _hr$[ebp], -2147024882 ; 8007000eH
  00049	75 05		 jne	 SHORT $L25222

; 65   : 	{
; 66   : 		AfxThrowMemoryException();

  0004b	e8 00 00 00 00	 call	 ?AfxThrowMemoryException@@YGXXZ ; AfxThrowMemoryException
$L25222:

; 67   : 	}
; 68   : 	else
; 69   : 	{
; 70   : 		AfxThrowOleException( hr );

  00050	8b 4d 08	 mov	 ecx, DWORD PTR _hr$[ebp]
  00053	51		 push	 ecx
  00054	e8 00 00 00 00	 call	 ?AfxThrowOleException@@YGXJ@Z ; AfxThrowOleException
$L197525:

; 71   : 	}
; 72   : #else
; 73   : 	throw CAtlException( hr );
; 74   : #endif
; 75   : };

  00059	83 c4 08	 add	 esp, 8
  0005c	3b ec		 cmp	 ebp, esp
  0005e	e8 00 00 00 00	 call	 __RTC_CheckEsp
  00063	8b e5		 mov	 esp, ebp
  00065	5d		 pop	 ebp
  00066	c2 04 00	 ret	 4
?AtlThrow@ATL@@YGXJ@Z ENDP				; ATL::AtlThrow
; Function compile flags: /Odt /RTCsu
; File d:\program files (x86)\microsoft visual studio .net 2003\vc7\atlmfc\include\atltrace.h
_TEXT	ENDS
;	COMDAT ??0CTraceFileAndLineInfo@ATL@@QAE@PBDH@Z
_TEXT	SEGMENT
_this$ = -4						; size = 4
_pszFileName$ = 8					; size = 4
_nLineNo$ = 12						; size = 4
??0CTraceFileAndLineInfo@ATL@@QAE@PBDH@Z PROC NEAR	; ATL::CTraceFileAndLineInfo::CTraceFileAndLineInfo, COMDAT
; _this$ = ecx

; 158  : 	{}

  00000	55		 push	 ebp
  00001	8b ec		 mov	 ebp, esp
  00003	51		 push	 ecx
  00004	c7 45 fc cc cc
	cc cc		 mov	 DWORD PTR [ebp-4], -858993460 ; ccccccccH
  0000b	89 4d fc	 mov	 DWORD PTR _this$[ebp], ecx
  0000e	8b 45 fc	 mov	 eax, DWORD PTR _this$[ebp]
  00011	8b 4d 08	 mov	 ecx, DWORD PTR _pszFileName$[ebp]
  00014	89 08		 mov	 DWORD PTR [eax], ecx
  00016	8b 55 fc	 mov	 edx, DWORD PTR _this$[ebp]
  00019	8b 45 0c	 mov	 eax, DWORD PTR _nLineNo$[ebp]
  0001c	89 42 04	 mov	 DWORD PTR [edx+4], eax
  0001f	8b 45 fc	 mov	 eax, DWORD PTR _this$[ebp]
  00022	8b e5		 mov	 esp, ebp
  00024	5d		 pop	 ebp
  00025	c2 08 00	 ret	 8
??0CTraceFileAndLineInfo@ATL@@QAE@PBDH@Z ENDP		; ATL::CTraceFileAndLineInfo::CTraceFileAndLineInfo
_TEXT	ENDS
PUBLIC	?TraceV@CTrace@ATL@@QBAXPBDHKI0PAD@Z		; ATL::CTrace::TraceV
EXTRN	?s_trace@CTrace@ATL@@2V12@A:QWORD		; ATL::CTrace::s_trace
; Function compile flags: /Odt /RTCsu
;	COMDAT ??RCTraceFileAndLineInfo@ATL@@QBAXKIPBDZZ
_TEXT	SEGMENT
_ptr$ = -4						; size = 4
_this$ = 8						; size = 4
_dwCategory$ = 12					; size = 4
_nLevel$ = 16						; size = 4
_pszFmt$ = 20						; size = 4
??RCTraceFileAndLineInfo@ATL@@QBAXKIPBDZZ PROC NEAR	; ATL::CTraceFileAndLineInfo::operator(), COMDAT

; 161  : 	{

  00000	55		 push	 ebp
  00001	8b ec		 mov	 ebp, esp
  00003	51		 push	 ecx
  00004	c7 45 fc cc cc
	cc cc		 mov	 DWORD PTR [ebp-4], -858993460 ; ccccccccH

; 162  : 		va_list ptr; va_start(ptr, pszFmt);

  0000b	8d 45 18	 lea	 eax, DWORD PTR _pszFmt$[ebp+4]
  0000e	89 45 fc	 mov	 DWORD PTR _ptr$[ebp], eax

; 163  : 		ATL::CTrace::s_trace.TraceV(m_pszFileName, m_nLineNo, dwCategory, nLevel, pszFmt, ptr);

  00011	8b 4d fc	 mov	 ecx, DWORD PTR _ptr$[ebp]
  00014	51		 push	 ecx
  00015	8b 55 14	 mov	 edx, DWORD PTR _pszFmt$[ebp]
  00018	52		 push	 edx
  00019	8b 45 10	 mov	 eax, DWORD PTR _nLevel$[ebp]
  0001c	50		 push	 eax
  0001d	8b 4d 0c	 mov	 ecx, DWORD PTR _dwCategory$[ebp]
  00020	51		 push	 ecx
  00021	8b 55 08	 mov	 edx, DWORD PTR _this$[ebp]
  00024	8b 42 04	 mov	 eax, DWORD PTR [edx+4]
  00027	50		 push	 eax
  00028	8b 4d 08	 mov	 ecx, DWORD PTR _this$[ebp]
  0002b	8b 11		 mov	 edx, DWORD PTR [ecx]
  0002d	52		 push	 edx
  0002e	68 00 00 00 00	 push	 OFFSET FLAT:?s_trace@CTrace@ATL@@2V12@A
  00033	e8 00 00 00 00	 call	 ?TraceV@CTrace@ATL@@QBAXPBDHKI0PAD@Z ; ATL::CTrace::TraceV
  00038	83 c4 1c	 add	 esp, 28			; 0000001cH

; 164  : 		va_end(ptr);

  0003b	c7 45 fc 00 00
	00 00		 mov	 DWORD PTR _ptr$[ebp], 0

; 165  : 	}

  00042	83 c4 04	 add	 esp, 4
  00045	3b ec		 cmp	 ebp, esp
  00047	e8 00 00 00 00	 call	 __RTC_CheckEsp
  0004c	8b e5		 mov	 esp, ebp
  0004e	5d		 pop	 ebp
  0004f	c3		 ret	 0
??RCTraceFileAndLineInfo@ATL@@QBAXKIPBDZZ ENDP		; ATL::CTraceFileAndLineInfo::operator()
_TEXT	ENDS
EXTRN	_AtlTraceVA:NEAR
; Function compile flags: /Odt /RTCsu
;	COMDAT ?TraceV@CTrace@ATL@@QBAXPBDHKI0PAD@Z
_TEXT	SEGMENT
_this$ = 8						; size = 4
_pszFileName$ = 12					; size = 4
_nLine$ = 16						; size = 4
_dwCategory$ = 20					; size = 4
_nLevel$ = 24						; size = 4
_pszFmt$ = 28						; size = 4
_args$ = 32						; size = 4
?TraceV@CTrace@ATL@@QBAXPBDHKI0PAD@Z PROC NEAR		; ATL::CTrace::TraceV, COMDAT

; 121  : 	{

  00000	55		 push	 ebp
  00001	8b ec		 mov	 ebp, esp

; 122  : 		AtlTraceVA(m_dwModule, pszFileName, nLine, dwCategory, nLevel, pszFmt, args);

  00003	8b 45 20	 mov	 eax, DWORD PTR _args$[ebp]
  00006	50		 push	 eax
  00007	8b 4d 1c	 mov	 ecx, DWORD PTR _pszFmt$[ebp]
  0000a	51		 push	 ecx
  0000b	8b 55 18	 mov	 edx, DWORD PTR _nLevel$[ebp]
  0000e	52		 push	 edx
  0000f	8b 45 14	 mov	 eax, DWORD PTR _dwCategory$[ebp]
  00012	50		 push	 eax
  00013	8b 4d 10	 mov	 ecx, DWORD PTR _nLine$[ebp]
  00016	51		 push	 ecx
  00017	8b 55 0c	 mov	 edx, DWORD PTR _pszFileName$[ebp]
  0001a	52		 push	 edx
  0001b	8b 45 08	 mov	 eax, DWORD PTR _this$[ebp]
  0001e	8b 48 04	 mov	 ecx, DWORD PTR [eax+4]
  00021	51		 push	 ecx
  00022	e8 00 00 00 00	 call	 _AtlTraceVA
  00027	83 c4 1c	 add	 esp, 28			; 0000001cH

; 123  : 	}

  0002a	3b ec		 cmp	 ebp, esp
  0002c	e8 00 00 00 00	 call	 __RTC_CheckEsp
  00031	5d		 pop	 ebp
  00032	c3		 ret	 0
?TraceV@CTrace@ATL@@QBAXPBDHKI0PAD@Z ENDP		; ATL::CTrace::TraceV
; Function compile flags: /Odt /RTCsu
_TEXT	ENDS
;	COMDAT ??BCTraceCategory@ATL@@QBEKXZ
_TEXT	SEGMENT
_this$ = -4						; size = 4
??BCTraceCategory@ATL@@QBEKXZ PROC NEAR			; ATL::CTraceCategory::operator unsigned long, COMDAT
; _this$ = ecx

; 202  : {

  00000	55		 push	 ebp
  00001	8b ec		 mov	 ebp, esp
  00003	51		 push	 ecx
  00004	c7 45 fc cc cc
	cc cc		 mov	 DWORD PTR [ebp-4], -858993460 ; ccccccccH
  0000b	89 4d fc	 mov	 DWORD PTR _this$[ebp], ecx

; 203  : 	return( m_dwCategory );

  0000e	8b 45 fc	 mov	 eax, DWORD PTR _this$[ebp]
  00011	8b 00		 mov	 eax, DWORD PTR [eax]

; 204  : }

  00013	8b e5		 mov	 esp, ebp
  00015	5d		 pop	 ebp
  00016	c3		 ret	 0
??BCTraceCategory@ATL@@QBEKXZ ENDP			; ATL::CTraceCategory::operator unsigned long
_TEXT	ENDS
PUBLIC	?GetThisMessageMap@MyWebBrowserWnd@@KGPBUAFX_MSGMAP@@XZ ; MyWebBrowserWnd::GetThisMessageMap
; Function compile flags: /Odt /RTCsu
; File d:\boxgit\playbox\playbox\dev\prj\playbox\src\module\webinteract\mywebbrowserwnd.cpp
_TEXT	SEGMENT
?GetThisMessageMap@MyWebBrowserWnd@@KGPBUAFX_MSGMAP@@XZ PROC NEAR ; MyWebBrowserWnd::GetThisMessageMap

; 42   : BEGIN_MESSAGE_MAP(MyWebBrowserWnd, CHtmlView)

  002c0	55		 push	 ebp
  002c1	8b ec		 mov	 ebp, esp
  002c3	b8 00 00 00 00	 mov	 eax, OFFSET FLAT:?messageMap@MyWebBrowserWnd@@1UAFX_MSGMAP@@B ; MyWebBrowserWnd::messageMap
  002c8	5d		 pop	 ebp
  002c9	c3		 ret	 0
?GetThisMessageMap@MyWebBrowserWnd@@KGPBUAFX_MSGMAP@@XZ ENDP ; MyWebBrowserWnd::GetThisMessageMap
; Function compile flags: /Odt /RTCsu
_this$ = -4						; size = 4
?GetMessageMap@MyWebBrowserWnd@@MBEPBUAFX_MSGMAP@@XZ PROC NEAR ; MyWebBrowserWnd::GetMessageMap
; _this$ = ecx

; 42   : BEGIN_MESSAGE_MAP(MyWebBrowserWnd, CHtmlView)

  002d0	55		 push	 ebp
  002d1	8b ec		 mov	 ebp, esp
  002d3	51		 push	 ecx
  002d4	c7 45 fc cc cc
	cc cc		 mov	 DWORD PTR [ebp-4], -858993460 ; ccccccccH
  002db	89 4d fc	 mov	 DWORD PTR _this$[ebp], ecx
  002de	b8 00 00 00 00	 mov	 eax, OFFSET FLAT:?messageMap@MyWebBrowserWnd@@1UAFX_MSGMAP@@B ; MyWebBrowserWnd::messageMap
  002e3	8b e5		 mov	 esp, ebp
  002e5	5d		 pop	 ebp
  002e6	c3		 ret	 0
?GetMessageMap@MyWebBrowserWnd@@MBEPBUAFX_MSGMAP@@XZ ENDP ; MyWebBrowserWnd::GetMessageMap
_TEXT	ENDS
PUBLIC	??0CCustomOccManager@@QAE@XZ			; CCustomOccManager::CCustomOccManager
PUBLIC	??I?$CComPtrBase@UIWebBrowser2@@@ATL@@QAEPAPAUIWebBrowser2@@XZ ; ATL::CComPtrBase<IWebBrowser2>::operator&
PUBLIC	??4?$CComPtr@UIWebBrowser2@@@ATL@@QAEPAUIWebBrowser2@@PAU2@@Z ; ATL::CComPtr<IWebBrowser2>::operator=
EXTRN	_IID_IWebBrowser2:BYTE
EXTRN	_CLSID_WebBrowser:BYTE
EXTRN	?AfxEnableControlContainer@@YAXPAVCOccManager@@@Z:NEAR ; AfxEnableControlContainer
EXTRN	?Create@CWnd@@UAEHPBD0KABUtagRECT@@PAV1@IPAUCCreateContext@@@Z:NEAR ; CWnd::Create
EXTRN	?CreateControl@CWnd@@QAEHABU_GUID@@PBDKABUtagRECT@@PAV1@IPAVCFile@@HPA_W@Z:NEAR ; CWnd::CreateControl
EXTRN	?GetControlUnknown@CWnd@@QAEPAUIUnknown@@XZ:NEAR ; CWnd::GetControlUnknown
EXTRN	?GetClientRect@CWnd@@QBEXPAUtagRECT@@@Z:NEAR	; CWnd::GetClientRect
EXTRN	??2CNoTrackObject@@SGPAXI@Z:NEAR		; CNoTrackObject::operator new
EXTRN	??3CNoTrackObject@@SGXPAX@Z:NEAR		; CNoTrackObject::operator delete
xdata$x	SEGMENT
$T197545 DD	0ffffffffH
	DD	FLAT:$L197538
$T197540 DD	019930520H
	DD	01H
	DD	FLAT:$T197545
	DD	2 DUP(00H)
	DD	2 DUP(00H)
; Function compile flags: /Odt /RTCsu
xdata$x	ENDS
_TEXT	SEGMENT
tv72 = -60						; size = 4
$T197535 = -56						; size = 4
$T197534 = -52						; size = 4
_hr$ = -48						; size = 4
_lpUnk$ = -44						; size = 4
_rectClient$ = -36					; size = 16
_this$ = -16						; size = 4
__$EHRec$ = -12						; size = 12
_lpszClassName$ = 8					; size = 4
_lpszWindowName$ = 12					; size = 4
_dwStyle$ = 16						; size = 4
_rect$ = 20						; size = 4
_pParentWnd$ = 24					; size = 4
_nID$ = 28						; size = 4
_pContext$ = 32						; size = 4
?Create@MyWebBrowserWnd@@UAEHPBD0KABUtagRECT@@PAVCWnd@@IPAUCCreateContext@@@Z PROC NEAR ; MyWebBrowserWnd::Create
; _this$ = ecx

; 52   : {	

  002f0	55		 push	 ebp
  002f1	8b ec		 mov	 ebp, esp
  002f3	6a ff		 push	 -1
  002f5	68 00 00 00 00	 push	 __ehhandler$?Create@MyWebBrowserWnd@@UAEHPBD0KABUtagRECT@@PAVCWnd@@IPAUCCreateContext@@@Z
  002fa	64 a1 00 00 00
	00		 mov	 eax, DWORD PTR fs:__except_list
  00300	50		 push	 eax
  00301	64 89 25 00 00
	00 00		 mov	 DWORD PTR fs:__except_list, esp
  00308	83 ec 30	 sub	 esp, 48			; 00000030H
  0030b	56		 push	 esi
  0030c	57		 push	 edi
  0030d	51		 push	 ecx
  0030e	8d 7d c4	 lea	 edi, DWORD PTR [ebp-60]
  00311	b9 0c 00 00 00	 mov	 ecx, 12			; 0000000cH
  00316	b8 cc cc cc cc	 mov	 eax, -858993460		; ccccccccH
  0031b	f3 ab		 rep stosd
  0031d	59		 pop	 ecx
  0031e	89 4d f0	 mov	 DWORD PTR _this$[ebp], ecx

; 53   : 	m_Mgr = new CCustomOccManager();

  00321	6a 04		 push	 4
  00323	e8 00 00 00 00	 call	 ??2CNoTrackObject@@SGPAXI@Z ; CNoTrackObject::operator new
  00328	89 45 c8	 mov	 DWORD PTR $T197535[ebp], eax
  0032b	c7 45 fc 00 00
	00 00		 mov	 DWORD PTR __$EHRec$[ebp+8], 0
  00332	83 7d c8 00	 cmp	 DWORD PTR $T197535[ebp], 0
  00336	74 0d		 je	 SHORT $L197536
  00338	8b 4d c8	 mov	 ecx, DWORD PTR $T197535[ebp]
  0033b	e8 00 00 00 00	 call	 ??0CCustomOccManager@@QAE@XZ ; CCustomOccManager::CCustomOccManager
  00340	89 45 c4	 mov	 DWORD PTR tv72[ebp], eax
  00343	eb 07		 jmp	 SHORT $L197537
$L197536:
  00345	c7 45 c4 00 00
	00 00		 mov	 DWORD PTR tv72[ebp], 0
$L197537:
  0034c	8b 45 c4	 mov	 eax, DWORD PTR tv72[ebp]
  0034f	89 45 cc	 mov	 DWORD PTR $T197534[ebp], eax
  00352	c7 45 fc ff ff
	ff ff		 mov	 DWORD PTR __$EHRec$[ebp+8], -1
  00359	8b 4d f0	 mov	 ecx, DWORD PTR _this$[ebp]
  0035c	8b 55 cc	 mov	 edx, DWORD PTR $T197534[ebp]
  0035f	89 91 c8 01 00
	00		 mov	 DWORD PTR [ecx+456], edx

; 54   : 
; 55   : 	m_pCreateContext = pContext;

  00365	8b 45 f0	 mov	 eax, DWORD PTR _this$[ebp]
  00368	8b 4d 20	 mov	 ecx, DWORD PTR _pContext$[ebp]
  0036b	89 88 8c 00 00
	00		 mov	 DWORD PTR [eax+140], ecx

; 56   : 	if (!CView::Create(lpszClassName, lpszWindowName,dwStyle, rect, pParentWnd,  nID, pContext))

  00371	8b 55 20	 mov	 edx, DWORD PTR _pContext$[ebp]
  00374	52		 push	 edx
  00375	8b 45 1c	 mov	 eax, DWORD PTR _nID$[ebp]
  00378	50		 push	 eax
  00379	8b 4d 18	 mov	 ecx, DWORD PTR _pParentWnd$[ebp]
  0037c	51		 push	 ecx
  0037d	8b 55 14	 mov	 edx, DWORD PTR _rect$[ebp]
  00380	52		 push	 edx
  00381	8b 45 10	 mov	 eax, DWORD PTR _dwStyle$[ebp]
  00384	50		 push	 eax
  00385	8b 4d 0c	 mov	 ecx, DWORD PTR _lpszWindowName$[ebp]
  00388	51		 push	 ecx
  00389	8b 55 08	 mov	 edx, DWORD PTR _lpszClassName$[ebp]
  0038c	52		 push	 edx
  0038d	8b 4d f0	 mov	 ecx, DWORD PTR _this$[ebp]
  00390	e8 00 00 00 00	 call	 ?Create@CWnd@@UAEHPBD0KABUtagRECT@@PAV1@IPAUCCreateContext@@@Z ; CWnd::Create
  00395	85 c0		 test	 eax, eax
  00397	75 07		 jne	 SHORT $L195949

; 57   : 	{
; 58   : 		return FALSE;

  00399	33 c0		 xor	 eax, eax
  0039b	e9 f9 00 00 00	 jmp	 $L195944
$L195949:

; 59   : 	}
; 60   : 
; 61   : 	AfxEnableControlContainer(m_Mgr);

  003a0	8b 45 f0	 mov	 eax, DWORD PTR _this$[ebp]
  003a3	8b 88 c8 01 00
	00		 mov	 ecx, DWORD PTR [eax+456]
  003a9	51		 push	 ecx
  003aa	e8 00 00 00 00	 call	 ?AfxEnableControlContainer@@YAXPAVCOccManager@@@Z ; AfxEnableControlContainer
  003af	83 c4 04	 add	 esp, 4

; 62   : 
; 63   : 	RECT rectClient;
; 64   : 	GetClientRect(&rectClient);

  003b2	8d 55 dc	 lea	 edx, DWORD PTR _rectClient$[ebp]
  003b5	52		 push	 edx
  003b6	8b 4d f0	 mov	 ecx, DWORD PTR _this$[ebp]
  003b9	e8 00 00 00 00	 call	 ?GetClientRect@CWnd@@QBEXPAUtagRECT@@@Z ; CWnd::GetClientRect

; 65   : 	if (!m_wndBrowser.CreateControl(CLSID_WebBrowser, lpszWindowName,WS_VISIBLE | WS_CHILD, rectClient, this, AFX_IDW_PANE_FIRST))

  003be	6a 00		 push	 0
  003c0	6a 00		 push	 0
  003c2	6a 00		 push	 0
  003c4	68 00 e9 00 00	 push	 59648			; 0000e900H
  003c9	8b 45 f0	 mov	 eax, DWORD PTR _this$[ebp]
  003cc	50		 push	 eax
  003cd	8d 4d dc	 lea	 ecx, DWORD PTR _rectClient$[ebp]
  003d0	51		 push	 ecx
  003d1	68 00 00 00 50	 push	 1342177280		; 50000000H
  003d6	8b 55 0c	 mov	 edx, DWORD PTR _lpszWindowName$[ebp]
  003d9	52		 push	 edx
  003da	68 00 00 00 00	 push	 OFFSET FLAT:_CLSID_WebBrowser
  003df	8b 4d f0	 mov	 ecx, DWORD PTR _this$[ebp]
  003e2	81 c1 98 00 00
	00		 add	 ecx, 152		; 00000098H
  003e8	e8 00 00 00 00	 call	 ?CreateControl@CWnd@@QAEHABU_GUID@@PBDKABUtagRECT@@PAV1@IPAVCFile@@HPA_W@Z ; CWnd::CreateControl
  003ed	85 c0		 test	 eax, eax
  003ef	75 1b		 jne	 SHORT $L195951

; 66   : 	{
; 67   : 		DestroyWindow();

  003f1	8b 45 f0	 mov	 eax, DWORD PTR _this$[ebp]
  003f4	8b 10		 mov	 edx, DWORD PTR [eax]
  003f6	8b f4		 mov	 esi, esp
  003f8	8b 4d f0	 mov	 ecx, DWORD PTR _this$[ebp]
  003fb	ff 52 68	 call	 DWORD PTR [edx+104]
  003fe	3b f4		 cmp	 esi, esp
  00400	e8 00 00 00 00	 call	 __RTC_CheckEsp

; 68   : 		return FALSE;

  00405	33 c0		 xor	 eax, eax
  00407	e9 8d 00 00 00	 jmp	 $L195944
$L195951:

; 69   : 	}
; 70   : 
; 71   : 	LPUNKNOWN lpUnk = m_wndBrowser.GetControlUnknown();

  0040c	8b 4d f0	 mov	 ecx, DWORD PTR _this$[ebp]
  0040f	81 c1 98 00 00
	00		 add	 ecx, 152		; 00000098H
  00415	e8 00 00 00 00	 call	 ?GetControlUnknown@CWnd@@QAEPAUIUnknown@@XZ ; CWnd::GetControlUnknown
  0041a	89 45 d4	 mov	 DWORD PTR _lpUnk$[ebp], eax

; 72   : 	HRESULT hr = lpUnk->QueryInterface(IID_IWebBrowser2, (void**) &m_pBrowserApp);

  0041d	8b 4d f0	 mov	 ecx, DWORD PTR _this$[ebp]
  00420	81 c1 ec 00 00
	00		 add	 ecx, 236		; 000000ecH
  00426	e8 00 00 00 00	 call	 ??I?$CComPtrBase@UIWebBrowser2@@@ATL@@QAEPAPAUIWebBrowser2@@XZ ; ATL::CComPtrBase<IWebBrowser2>::operator&
  0042b	8b f4		 mov	 esi, esp
  0042d	50		 push	 eax
  0042e	68 00 00 00 00	 push	 OFFSET FLAT:_IID_IWebBrowser2
  00433	8b 45 d4	 mov	 eax, DWORD PTR _lpUnk$[ebp]
  00436	8b 08		 mov	 ecx, DWORD PTR [eax]
  00438	8b 55 d4	 mov	 edx, DWORD PTR _lpUnk$[ebp]
  0043b	52		 push	 edx
  0043c	ff 11		 call	 DWORD PTR [ecx]
  0043e	3b f4		 cmp	 esi, esp
  00440	e8 00 00 00 00	 call	 __RTC_CheckEsp
  00445	89 45 d0	 mov	 DWORD PTR _hr$[ebp], eax

; 73   : 	if (!SUCCEEDED(hr))

  00448	83 7d d0 00	 cmp	 DWORD PTR _hr$[ebp], 0
  0044c	7d 46		 jge	 SHORT $L195956

; 74   : 	{
; 75   : 		m_pBrowserApp = NULL;

  0044e	6a 00		 push	 0
  00450	8b 4d f0	 mov	 ecx, DWORD PTR _this$[ebp]
  00453	81 c1 ec 00 00
	00		 add	 ecx, 236		; 000000ecH
  00459	e8 00 00 00 00	 call	 ??4?$CComPtr@UIWebBrowser2@@@ATL@@QAEPAUIWebBrowser2@@PAU2@@Z ; ATL::CComPtr<IWebBrowser2>::operator=

; 76   : 		m_wndBrowser.DestroyWindow();

  0045e	8b 4d f0	 mov	 ecx, DWORD PTR _this$[ebp]
  00461	81 c1 98 00 00
	00		 add	 ecx, 152		; 00000098H
  00467	8b 45 f0	 mov	 eax, DWORD PTR _this$[ebp]
  0046a	8b 90 98 00 00
	00		 mov	 edx, DWORD PTR [eax+152]
  00470	8b f4		 mov	 esi, esp
  00472	ff 52 68	 call	 DWORD PTR [edx+104]
  00475	3b f4		 cmp	 esi, esp
  00477	e8 00 00 00 00	 call	 __RTC_CheckEsp

; 77   : 		DestroyWindow();

  0047c	8b 45 f0	 mov	 eax, DWORD PTR _this$[ebp]
  0047f	8b 10		 mov	 edx, DWORD PTR [eax]
  00481	8b f4		 mov	 esi, esp
  00483	8b 4d f0	 mov	 ecx, DWORD PTR _this$[ebp]
  00486	ff 52 68	 call	 DWORD PTR [edx+104]
  00489	3b f4		 cmp	 esi, esp
  0048b	e8 00 00 00 00	 call	 __RTC_CheckEsp

; 78   : 		return FALSE;

  00490	33 c0		 xor	 eax, eax
  00492	eb 05		 jmp	 SHORT $L195944
$L195956:

; 79   : 	}
; 80   : 	return TRUE;

  00494	b8 01 00 00 00	 mov	 eax, 1
$L195944:

; 81   : }

  00499	52		 push	 edx
  0049a	8b cd		 mov	 ecx, ebp
  0049c	50		 push	 eax
  0049d	8d 15 00 00 00
	00		 lea	 edx, DWORD PTR $L197544
  004a3	e8 00 00 00 00	 call	 @_RTC_CheckStackVars@8
  004a8	58		 pop	 eax
  004a9	5a		 pop	 edx
  004aa	8b 4d f4	 mov	 ecx, DWORD PTR __$EHRec$[ebp]
  004ad	64 89 0d 00 00
	00 00		 mov	 DWORD PTR fs:__except_list, ecx
  004b4	5f		 pop	 edi
  004b5	5e		 pop	 esi
  004b6	83 c4 3c	 add	 esp, 60			; 0000003cH
  004b9	3b ec		 cmp	 ebp, esp
  004bb	e8 00 00 00 00	 call	 __RTC_CheckEsp
  004c0	8b e5		 mov	 esp, ebp
  004c2	5d		 pop	 ebp
  004c3	c2 1c 00	 ret	 28			; 0000001cH
$L197544:
  004c6	01 00 00 00	 DD	 1
  004ca	00 00 00 00	 DD	 $L197543
$L197543:
  004ce	dc ff ff ff	 DD	 -36			; ffffffdcH
  004d2	10 00 00 00	 DD	 16			; 00000010H
  004d6	00 00 00 00	 DD	 $L197541
$L197541:
  004da	72		 DB	 114			; 00000072H
  004db	65		 DB	 101			; 00000065H
  004dc	63		 DB	 99			; 00000063H
  004dd	74		 DB	 116			; 00000074H
  004de	43		 DB	 67			; 00000043H
  004df	6c		 DB	 108			; 0000006cH
  004e0	69		 DB	 105			; 00000069H
  004e1	65		 DB	 101			; 00000065H
  004e2	6e		 DB	 110			; 0000006eH
  004e3	74		 DB	 116			; 00000074H
  004e4	00		 DB	 0
_TEXT	ENDS
text$x	SEGMENT
$L197538:
  000d7	8b 45 c8	 mov	 eax, DWORD PTR $T197535[ebp]
  000da	50		 push	 eax
  000db	e8 00 00 00 00	 call	 ??3CNoTrackObject@@SGXPAX@Z ; CNoTrackObject::operator delete
  000e0	c3		 ret	 0
__ehhandler$?Create@MyWebBrowserWnd@@UAEHPBD0KABUtagRECT@@PAVCWnd@@IPAUCCreateContext@@@Z:
  000e1	b8 00 00 00 00	 mov	 eax, OFFSET FLAT:$T197540
  000e6	e9 00 00 00 00	 jmp	 ___CxxFrameHandler
text$x	ENDS
?Create@MyWebBrowserWnd@@UAEHPBD0KABUtagRECT@@PAVCWnd@@IPAUCCreateContext@@@Z ENDP ; MyWebBrowserWnd::Create
PUBLIC	?CreateSite@CCustomOccManager@@UAEPAVCOleControlSite@@PAVCOleControlContainer@@@Z ; CCustomOccManager::CreateSite
PUBLIC	??_7CCustomOccManager@@6B@			; CCustomOccManager::`vftable'
PUBLIC	??_GCCustomOccManager@@UAEPAXI@Z		; CCustomOccManager::`scalar deleting destructor'
PUBLIC	??0COccManager@@QAE@XZ				; COccManager::COccManager
PUBLIC	??_R0?AVCNoTrackObject@@@8			; CNoTrackObject `RTTI Type Descriptor'
PUBLIC	??_R1A@?0A@A@CNoTrackObject@@8			; CNoTrackObject::`RTTI Base Class Descriptor at (0,-1,0,0)'
PUBLIC	??_R4CCustomOccManager@@6B@			; CCustomOccManager::`RTTI Complete Object Locator'
PUBLIC	??_R0?AVCCustomOccManager@@@8			; CCustomOccManager `RTTI Type Descriptor'
PUBLIC	??_R3CCustomOccManager@@8			; CCustomOccManager::`RTTI Class Hierarchy Descriptor'
PUBLIC	??_R2CCustomOccManager@@8			; CCustomOccManager::`RTTI Base Class Array'
PUBLIC	??_R1A@?0A@A@CCustomOccManager@@8		; CCustomOccManager::`RTTI Base Class Descriptor at (0,-1,0,0)'
PUBLIC	??_R1A@?0A@A@COccManager@@8			; COccManager::`RTTI Base Class Descriptor at (0,-1,0,0)'
PUBLIC	??_R0?AVCOccManager@@@8				; COccManager `RTTI Type Descriptor'
EXTRN	??_ECCustomOccManager@@UAEPAXI@Z:NEAR		; CCustomOccManager::`vector deleting destructor'
EXTRN	?OnEvent@COccManager@@UAEHPAVCCmdTarget@@IPAUAFX_EVENT@@PAUAFX_CMDHANDLERINFO@@@Z:NEAR ; COccManager::OnEvent
EXTRN	?CreateContainer@COccManager@@UAEPAVCOleControlContainer@@PAVCWnd@@@Z:NEAR ; COccManager::CreateContainer
EXTRN	?PreCreateDialog@COccManager@@UAEPBUDLGTEMPLATE@@PAU_AFX_OCC_DIALOG_INFO@@PBU2@@Z:NEAR ; COccManager::PreCreateDialog
EXTRN	?PostCreateDialog@COccManager@@UAEXPAU_AFX_OCC_DIALOG_INFO@@@Z:NEAR ; COccManager::PostCreateDialog
EXTRN	?SplitDialogTemplate@COccManager@@UAEPAUDLGTEMPLATE@@PBU2@PAPAUDLGITEMTEMPLATE@@@Z:NEAR ; COccManager::SplitDialogTemplate
EXTRN	?CreateDlgControls@COccManager@@UAEHPAVCWnd@@PBDPAU_AFX_OCC_DIALOG_INFO@@@Z:NEAR ; COccManager::CreateDlgControls
EXTRN	?CreateDlgControls@COccManager@@UAEHPAVCWnd@@PAXPAU_AFX_OCC_DIALOG_INFO@@@Z:NEAR ; COccManager::CreateDlgControls
EXTRN	?IsDialogMessageA@COccManager@@UAEHPAVCWnd@@PAUtagMSG@@@Z:NEAR ; COccManager::IsDialogMessageA
;	COMDAT ??_7CCustomOccManager@@6B@
; File d:\boxgit\playbox\playbox\dev\prj\playbox\src\module\webinteract\custsite.h
CONST	SEGMENT
??_7CCustomOccManager@@6B@ DD FLAT:??_R4CCustomOccManager@@6B@ ; CCustomOccManager::`vftable'
	DD	FLAT:??_ECCustomOccManager@@UAEPAXI@Z
	DD	FLAT:?OnEvent@COccManager@@UAEHPAVCCmdTarget@@IPAUAFX_EVENT@@PAUAFX_CMDHANDLERINFO@@@Z
	DD	FLAT:?CreateContainer@COccManager@@UAEPAVCOleControlContainer@@PAVCWnd@@@Z
	DD	FLAT:?CreateSite@CCustomOccManager@@UAEPAVCOleControlSite@@PAVCOleControlContainer@@@Z
	DD	FLAT:?PreCreateDialog@COccManager@@UAEPBUDLGTEMPLATE@@PAU_AFX_OCC_DIALOG_INFO@@PBU2@@Z
	DD	FLAT:?PostCreateDialog@COccManager@@UAEXPAU_AFX_OCC_DIALOG_INFO@@@Z
	DD	FLAT:?SplitDialogTemplate@COccManager@@UAEPAUDLGTEMPLATE@@PBU2@PAPAUDLGITEMTEMPLATE@@@Z
	DD	FLAT:?CreateDlgControls@COccManager@@UAEHPAVCWnd@@PAXPAU_AFX_OCC_DIALOG_INFO@@@Z
	DD	FLAT:?CreateDlgControls@COccManager@@UAEHPAVCWnd@@PBDPAU_AFX_OCC_DIALOG_INFO@@@Z
	DD	FLAT:?IsDialogMessageA@COccManager@@UAEHPAVCWnd@@PAUtagMSG@@@Z
CONST	ENDS
;	COMDAT ??_R4CCustomOccManager@@6B@
rdata$r	SEGMENT
??_R4CCustomOccManager@@6B@ DD 00H			; CCustomOccManager::`RTTI Complete Object Locator'
	DD	00H
	DD	00H
	DD	FLAT:??_R0?AVCCustomOccManager@@@8
	DD	FLAT:??_R3CCustomOccManager@@8
rdata$r	ENDS
;	COMDAT ??_R0?AVCCustomOccManager@@@8
_DATA	SEGMENT
??_R0?AVCCustomOccManager@@@8 DD FLAT:??_7type_info@@6B@ ; CCustomOccManager `RTTI Type Descriptor'
	DD	00H
	DB	'.?AVCCustomOccManager@@', 00H
_DATA	ENDS
;	COMDAT ??_R3CCustomOccManager@@8
rdata$r	SEGMENT
??_R3CCustomOccManager@@8 DD 00H			; CCustomOccManager::`RTTI Class Hierarchy Descriptor'
	DD	00H
	DD	03H
	DD	FLAT:??_R2CCustomOccManager@@8
rdata$r	ENDS
;	COMDAT ??_R2CCustomOccManager@@8
rdata$r	SEGMENT
??_R2CCustomOccManager@@8 DD FLAT:??_R1A@?0A@A@CCustomOccManager@@8 ; CCustomOccManager::`RTTI Base Class Array'
	DD	FLAT:??_R1A@?0A@A@COccManager@@8
	DD	FLAT:??_R1A@?0A@A@CNoTrackObject@@8
rdata$r	ENDS
;	COMDAT ??_R1A@?0A@A@CCustomOccManager@@8
rdata$r	SEGMENT
??_R1A@?0A@A@CCustomOccManager@@8 DD FLAT:??_R0?AVCCustomOccManager@@@8 ; CCustomOccManager::`RTTI Base Class Descriptor at (0,-1,0,0)'
	DD	02H
	DD	00H
	DD	0ffffffffH
	DD	00H
	DD	00H
rdata$r	ENDS
;	COMDAT ??_R1A@?0A@A@COccManager@@8
rdata$r	SEGMENT
??_R1A@?0A@A@COccManager@@8 DD FLAT:??_R0?AVCOccManager@@@8 ; COccManager::`RTTI Base Class Descriptor at (0,-1,0,0)'
	DD	01H
	DD	00H
	DD	0ffffffffH
	DD	00H
	DD	00H
rdata$r	ENDS
;	COMDAT ??_R0?AVCOccManager@@@8
_DATA	SEGMENT
??_R0?AVCOccManager@@@8 DD FLAT:??_7type_info@@6B@	; COccManager `RTTI Type Descriptor'
	DD	00H
	DB	'.?AVCOccManager@@', 00H
_DATA	ENDS
;	COMDAT ??_R1A@?0A@A@CNoTrackObject@@8
rdata$r	SEGMENT
??_R1A@?0A@A@CNoTrackObject@@8 DD FLAT:??_R0?AVCNoTrackObject@@@8 ; CNoTrackObject::`RTTI Base Class Descriptor at (0,-1,0,0)'
	DD	00H
	DD	00H
	DD	0ffffffffH
	DD	00H
	DD	00H
rdata$r	ENDS
;	COMDAT ??_R0?AVCNoTrackObject@@@8
_DATA	SEGMENT
??_R0?AVCNoTrackObject@@@8 DD FLAT:??_7type_info@@6B@	; CNoTrackObject `RTTI Type Descriptor'
	DD	00H
	DB	'.?AVCNoTrackObject@@', 00H
; Function compile flags: /Odt /RTCsu
_DATA	ENDS
;	COMDAT ??0CCustomOccManager@@QAE@XZ
_TEXT	SEGMENT
_this$ = -4						; size = 4
??0CCustomOccManager@@QAE@XZ PROC NEAR			; CCustomOccManager::CCustomOccManager, COMDAT
; _this$ = ecx

; 94   : 	CCustomOccManager(){}

  00000	55		 push	 ebp
  00001	8b ec		 mov	 ebp, esp
  00003	51		 push	 ecx
  00004	c7 45 fc cc cc
	cc cc		 mov	 DWORD PTR [ebp-4], -858993460 ; ccccccccH
  0000b	89 4d fc	 mov	 DWORD PTR _this$[ebp], ecx
  0000e	8b 4d fc	 mov	 ecx, DWORD PTR _this$[ebp]
  00011	e8 00 00 00 00	 call	 ??0COccManager@@QAE@XZ
  00016	8b 45 fc	 mov	 eax, DWORD PTR _this$[ebp]
  00019	c7 00 00 00 00
	00		 mov	 DWORD PTR [eax], OFFSET FLAT:??_7CCustomOccManager@@6B@
  0001f	8b 45 fc	 mov	 eax, DWORD PTR _this$[ebp]
  00022	83 c4 04	 add	 esp, 4
  00025	3b ec		 cmp	 ebp, esp
  00027	e8 00 00 00 00	 call	 __RTC_CheckEsp
  0002c	8b e5		 mov	 esp, ebp
  0002e	5d		 pop	 ebp
  0002f	c3		 ret	 0
??0CCustomOccManager@@QAE@XZ ENDP			; CCustomOccManager::CCustomOccManager
_TEXT	ENDS
PUBLIC	??0CCustomControlSite@@QAE@PAVCOleControlContainer@@@Z ; CCustomControlSite::CCustomControlSite
EXTRN	??2CObject@@SGPAXI@Z:NEAR			; CObject::operator new
;	COMDAT xdata$x
xdata$x	SEGMENT
$T197557 DD	0ffffffffH
	DD	FLAT:$L197553
$T197555 DD	019930520H
	DD	01H
	DD	FLAT:$T197557
	DD	2 DUP(00H)
	DD	2 DUP(00H)
; Function compile flags: /Odt /RTCsu
xdata$x	ENDS
;	COMDAT ?CreateSite@CCustomOccManager@@UAEPAVCOleControlSite@@PAVCOleControlContainer@@@Z
_TEXT	SEGMENT
tv72 = -32						; size = 4
$T197550 = -28						; size = 4
$T197549 = -24						; size = 4
_pSite$ = -20						; size = 4
_this$ = -16						; size = 4
__$EHRec$ = -12						; size = 12
_pCtrlCont$ = 8						; size = 4
?CreateSite@CCustomOccManager@@UAEPAVCOleControlSite@@PAVCOleControlContainer@@@Z PROC NEAR ; CCustomOccManager::CreateSite, COMDAT
; _this$ = ecx

; 96   : 	{

  00000	55		 push	 ebp
  00001	8b ec		 mov	 ebp, esp
  00003	6a ff		 push	 -1
  00005	68 00 00 00 00	 push	 __ehhandler$?CreateSite@CCustomOccManager@@UAEPAVCOleControlSite@@PAVCOleControlContainer@@@Z
  0000a	64 a1 00 00 00
	00		 mov	 eax, DWORD PTR fs:__except_list
  00010	50		 push	 eax
  00011	64 89 25 00 00
	00 00		 mov	 DWORD PTR fs:__except_list, esp
  00018	83 ec 14	 sub	 esp, 20			; 00000014H
  0001b	b8 cc cc cc cc	 mov	 eax, -858993460		; ccccccccH
  00020	89 45 e0	 mov	 DWORD PTR [ebp-32], eax
  00023	89 45 e4	 mov	 DWORD PTR [ebp-28], eax
  00026	89 45 e8	 mov	 DWORD PTR [ebp-24], eax
  00029	89 45 ec	 mov	 DWORD PTR [ebp-20], eax
  0002c	89 45 f0	 mov	 DWORD PTR [ebp-16], eax
  0002f	89 4d f0	 mov	 DWORD PTR _this$[ebp], ecx

; 97   : 		CCustomControlSite *pSite = new CCustomControlSite(pCtrlCont);

  00032	68 f8 00 00 00	 push	 248			; 000000f8H
  00037	e8 00 00 00 00	 call	 ??2CObject@@SGPAXI@Z	; CObject::operator new
  0003c	89 45 e4	 mov	 DWORD PTR $T197550[ebp], eax
  0003f	c7 45 fc 00 00
	00 00		 mov	 DWORD PTR __$EHRec$[ebp+8], 0
  00046	83 7d e4 00	 cmp	 DWORD PTR $T197550[ebp], 0
  0004a	74 11		 je	 SHORT $L197551
  0004c	8b 45 08	 mov	 eax, DWORD PTR _pCtrlCont$[ebp]
  0004f	50		 push	 eax
  00050	8b 4d e4	 mov	 ecx, DWORD PTR $T197550[ebp]
  00053	e8 00 00 00 00	 call	 ??0CCustomControlSite@@QAE@PAVCOleControlContainer@@@Z ; CCustomControlSite::CCustomControlSite
  00058	89 45 e0	 mov	 DWORD PTR tv72[ebp], eax
  0005b	eb 07		 jmp	 SHORT $L197552
$L197551:
  0005d	c7 45 e0 00 00
	00 00		 mov	 DWORD PTR tv72[ebp], 0
$L197552:
  00064	8b 4d e0	 mov	 ecx, DWORD PTR tv72[ebp]
  00067	89 4d e8	 mov	 DWORD PTR $T197549[ebp], ecx
  0006a	c7 45 fc ff ff
	ff ff		 mov	 DWORD PTR __$EHRec$[ebp+8], -1
  00071	8b 55 e8	 mov	 edx, DWORD PTR $T197549[ebp]
  00074	89 55 ec	 mov	 DWORD PTR _pSite$[ebp], edx

; 98   : 		return pSite;

  00077	8b 45 ec	 mov	 eax, DWORD PTR _pSite$[ebp]

; 99   : 	}

  0007a	8b 4d f4	 mov	 ecx, DWORD PTR __$EHRec$[ebp]
  0007d	64 89 0d 00 00
	00 00		 mov	 DWORD PTR fs:__except_list, ecx
  00084	83 c4 20	 add	 esp, 32			; 00000020H
  00087	3b ec		 cmp	 ebp, esp
  00089	e8 00 00 00 00	 call	 __RTC_CheckEsp
  0008e	8b e5		 mov	 esp, ebp
  00090	5d		 pop	 ebp
  00091	c2 04 00	 ret	 4
_TEXT	ENDS
;	COMDAT text$x
text$x	SEGMENT
$L197553:
  00000	8b 45 e4	 mov	 eax, DWORD PTR $T197550[ebp]
  00003	50		 push	 eax
  00004	e8 00 00 00 00	 call	 ??3CObject@@SGXPAX@Z	; CObject::operator delete
  00009	c3		 ret	 0
__ehhandler$?CreateSite@CCustomOccManager@@UAEPAVCOleControlSite@@PAVCOleControlContainer@@@Z:
  0000a	b8 00 00 00 00	 mov	 eax, OFFSET FLAT:$T197555
  0000f	e9 00 00 00 00	 jmp	 ___CxxFrameHandler
text$x	ENDS
?CreateSite@CCustomOccManager@@UAEPAVCOleControlSite@@PAVCOleControlContainer@@@Z ENDP ; CCustomOccManager::CreateSite
PUBLIC	??0XDocHostUIHandler@CCustomControlSite@@QAE@XZ	; CCustomControlSite::XDocHostUIHandler::XDocHostUIHandler
PUBLIC	??_7CCustomControlSite@@6B@			; CCustomControlSite::`vftable'
PUBLIC	??_GCCustomControlSite@@UAEPAXI@Z		; CCustomControlSite::`scalar deleting destructor'
PUBLIC	??_R4CCustomControlSite@@6B@			; CCustomControlSite::`RTTI Complete Object Locator'
PUBLIC	??_R0?AVCCustomControlSite@@@8			; CCustomControlSite `RTTI Type Descriptor'
PUBLIC	??_R3CCustomControlSite@@8			; CCustomControlSite::`RTTI Class Hierarchy Descriptor'
PUBLIC	??_R2CCustomControlSite@@8			; CCustomControlSite::`RTTI Base Class Array'
PUBLIC	??_R1A@?0A@A@CCustomControlSite@@8		; CCustomControlSite::`RTTI Base Class Descriptor at (0,-1,0,0)'
PUBLIC	??_R1A@?0A@A@COleControlSite@@8			; COleControlSite::`RTTI Base Class Descriptor at (0,-1,0,0)'
PUBLIC	??_R0?AVCOleControlSite@@@8			; COleControlSite `RTTI Type Descriptor'
PUBLIC	??0XDocHostShowUI@CCustomControlSite@@QAE@XZ	; CCustomControlSite::XDocHostShowUI::XDocHostShowUI
EXTRN	??_ECCustomControlSite@@UAEPAXI@Z:NEAR		; CCustomControlSite::`vector deleting destructor'
EXTRN	?GetRuntimeClass@CCmdTarget@@UBEPAUCRuntimeClass@@XZ:NEAR ; CCmdTarget::GetRuntimeClass
EXTRN	?OnCmdMsg@CCmdTarget@@UAEHIHPAXPAUAFX_CMDHANDLERINFO@@@Z:NEAR ; CCmdTarget::OnCmdMsg
EXTRN	?OnFinalRelease@CCmdTarget@@UAEXXZ:NEAR		; CCmdTarget::OnFinalRelease
EXTRN	?Dump@CCmdTarget@@UBEXAAVCDumpContext@@@Z:NEAR	; CCmdTarget::Dump
EXTRN	?AssertValid@CCmdTarget@@UBEXXZ:NEAR		; CCmdTarget::AssertValid
EXTRN	?GetMessageMap@CCmdTarget@@MBEPBUAFX_MSGMAP@@XZ:NEAR ; CCmdTarget::GetMessageMap
EXTRN	?GetEventSinkMap@CCmdTarget@@MBEPBUAFX_EVENTSINKMAP@@XZ:NEAR ; CCmdTarget::GetEventSinkMap
EXTRN	??0COleControlSite@@QAE@PAVCOleControlContainer@@@Z:NEAR ; COleControlSite::COleControlSite
EXTRN	?CreateControl@COleControlSite@@UAEJPAVCWnd@@ABU_GUID@@PBDKABUtagRECT@@IPAVCFile@@HPA_W@Z:NEAR ; COleControlSite::CreateControl
EXTRN	?CreateControl@COleControlSite@@UAEJPAVCWnd@@ABU_GUID@@PBDKPBUtagPOINT@@PBUtagSIZE@@IPAVCFile@@HPA_W@Z:NEAR ; COleControlSite::CreateControl
EXTRN	?DestroyControl@COleControlSite@@UAEHXZ:NEAR	; COleControlSite::DestroyControl
EXTRN	?DoVerb@COleControlSite@@UAEJJPAUtagMSG@@@Z:NEAR ; COleControlSite::DoVerb
EXTRN	?InvokeHelperV@COleControlSite@@UAEXJGGPAXPBEPAD@Z:NEAR ; COleControlSite::InvokeHelperV
EXTRN	?SetPropertyV@COleControlSite@@UAEXJGPAD@Z:NEAR	; COleControlSite::SetPropertyV
EXTRN	?InvokeHelper@COleControlSite@@UAAXJGGPAXPBEZZ:NEAR ; COleControlSite::InvokeHelper
EXTRN	?GetProperty@COleControlSite@@UBEXJGPAX@Z:NEAR	; COleControlSite::GetProperty
EXTRN	?SetProperty@COleControlSite@@UAAXJGZZ:NEAR	; COleControlSite::SetProperty
EXTRN	?SafeSetProperty@COleControlSite@@UAAHJGZZ:NEAR	; COleControlSite::SafeSetProperty
EXTRN	?GetStyle@COleControlSite@@UBEKXZ:NEAR		; COleControlSite::GetStyle
EXTRN	?GetExStyle@COleControlSite@@UBEKXZ:NEAR	; COleControlSite::GetExStyle
EXTRN	?ModifyStyle@COleControlSite@@UAEHKKI@Z:NEAR	; COleControlSite::ModifyStyle
EXTRN	?ModifyStyleEx@COleControlSite@@UAEHKKI@Z:NEAR	; COleControlSite::ModifyStyleEx
EXTRN	?SetWindowTextA@COleControlSite@@UAEXPBD@Z:NEAR	; COleControlSite::SetWindowTextA
EXTRN	?GetWindowTextA@COleControlSite@@UBEXAAV?$CStringT@DV?$StrTraitMFC_DLL@DV?$ChTraitsCRT@D@ATL@@@@@ATL@@@Z:NEAR ; COleControlSite::GetWindowTextA
EXTRN	?GetDlgCtrlID@COleControlSite@@UBEHXZ:NEAR	; COleControlSite::GetDlgCtrlID
EXTRN	?SetDlgCtrlID@COleControlSite@@UAEHH@Z:NEAR	; COleControlSite::SetDlgCtrlID
EXTRN	?MoveWindow@COleControlSite@@UAEXHHHH@Z:NEAR	; COleControlSite::MoveWindow
EXTRN	?SetWindowPos@COleControlSite@@UAEHPBVCWnd@@HHHHI@Z:NEAR ; COleControlSite::SetWindowPos
EXTRN	?ShowWindow@COleControlSite@@UAEHH@Z:NEAR	; COleControlSite::ShowWindow
EXTRN	?IsWindowEnabled@COleControlSite@@UBEHXZ:NEAR	; COleControlSite::IsWindowEnabled
EXTRN	?EnableWindow@COleControlSite@@UAEHH@Z:NEAR	; COleControlSite::EnableWindow
EXTRN	?SetFocus@COleControlSite@@UAEPAVCWnd@@XZ:NEAR	; COleControlSite::SetFocus
EXTRN	?SetFocus@COleControlSite@@UAEPAVCWnd@@PAUtagMSG@@@Z:NEAR ; COleControlSite::SetFocus
EXTRN	?EnableDSC@COleControlSite@@UAEXXZ:NEAR		; COleControlSite::EnableDSC
EXTRN	?BindDefaultProperty@COleControlSite@@UAEXJGPBDPAVCWnd@@@Z:NEAR ; COleControlSite::BindDefaultProperty
EXTRN	?BindProperty@COleControlSite@@UAEXJPAVCWnd@@@Z:NEAR ; COleControlSite::BindProperty
EXTRN	?QuickActivate@COleControlSite@@UAEHXZ:NEAR	; COleControlSite::QuickActivate
EXTRN	?GetInterfaceMap@CCustomControlSite@@MBEPBUAFX_INTERFACEMAP@@XZ:NEAR ; CCustomControlSite::GetInterfaceMap
;	COMDAT ??_7CCustomControlSite@@6B@
CONST	SEGMENT
??_7CCustomControlSite@@6B@ DD FLAT:??_R4CCustomControlSite@@6B@ ; CCustomControlSite::`vftable'
	DD	FLAT:?GetRuntimeClass@CCmdTarget@@UBEPAUCRuntimeClass@@XZ
	DD	FLAT:??_ECCustomControlSite@@UAEPAXI@Z
	DD	FLAT:?Serialize@CObject@@UAEXAAVCArchive@@@Z
	DD	FLAT:?AssertValid@CCmdTarget@@UBEXXZ
	DD	FLAT:?Dump@CCmdTarget@@UBEXAAVCDumpContext@@@Z
	DD	FLAT:?OnCmdMsg@CCmdTarget@@UAEHIHPAXPAUAFX_CMDHANDLERINFO@@@Z
	DD	FLAT:?OnFinalRelease@CCmdTarget@@UAEXXZ
	DD	FLAT:?IsInvokeAllowed@CCmdTarget@@UAEHJ@Z
	DD	FLAT:?GetDispatchIID@CCmdTarget@@UAEHPAU_GUID@@@Z
	DD	FLAT:?GetTypeInfoCount@CCmdTarget@@UAEIXZ
	DD	FLAT:?GetTypeLibCache@CCmdTarget@@UAEPAVCTypeLibCache@@XZ
	DD	FLAT:?GetTypeLib@CCmdTarget@@UAEJKPAPAUITypeLib@@@Z
	DD	FLAT:?GetMessageMap@CCmdTarget@@MBEPBUAFX_MSGMAP@@XZ
	DD	FLAT:?GetCommandMap@CCmdTarget@@MBEPBUAFX_OLECMDMAP@@XZ
	DD	FLAT:?GetDispatchMap@CCmdTarget@@MBEPBUAFX_DISPMAP@@XZ
	DD	FLAT:?GetConnectionMap@CCmdTarget@@MBEPBUAFX_CONNECTIONMAP@@XZ
	DD	FLAT:?GetInterfaceMap@CCustomControlSite@@MBEPBUAFX_INTERFACEMAP@@XZ
	DD	FLAT:?GetEventSinkMap@CCmdTarget@@MBEPBUAFX_EVENTSINKMAP@@XZ
	DD	FLAT:?OnCreateAggregates@CCmdTarget@@UAEHXZ
	DD	FLAT:?GetInterfaceHook@CCmdTarget@@UAEPAUIUnknown@@PBX@Z
	DD	FLAT:?GetExtraConnectionPoints@CCmdTarget@@MAEHPAVCPtrArray@@@Z
	DD	FLAT:?GetConnectionHook@CCmdTarget@@MAEPAUIConnectionPoint@@ABU_GUID@@@Z
	DD	FLAT:?CreateControl@COleControlSite@@UAEJPAVCWnd@@ABU_GUID@@PBDKPBUtagPOINT@@PBUtagSIZE@@IPAVCFile@@HPA_W@Z
	DD	FLAT:?CreateControl@COleControlSite@@UAEJPAVCWnd@@ABU_GUID@@PBDKABUtagRECT@@IPAVCFile@@HPA_W@Z
	DD	FLAT:?DestroyControl@COleControlSite@@UAEHXZ
	DD	FLAT:?DoVerb@COleControlSite@@UAEJJPAUtagMSG@@@Z
	DD	FLAT:?InvokeHelperV@COleControlSite@@UAEXJGGPAXPBEPAD@Z
	DD	FLAT:?SetPropertyV@COleControlSite@@UAEXJGPAD@Z
	DD	FLAT:?InvokeHelper@COleControlSite@@UAAXJGGPAXPBEZZ
	DD	FLAT:?GetProperty@COleControlSite@@UBEXJGPAX@Z
	DD	FLAT:?SetProperty@COleControlSite@@UAAXJGZZ
	DD	FLAT:?SafeSetProperty@COleControlSite@@UAAHJGZZ
	DD	FLAT:?GetStyle@COleControlSite@@UBEKXZ
	DD	FLAT:?GetExStyle@COleControlSite@@UBEKXZ
	DD	FLAT:?ModifyStyle@COleControlSite@@UAEHKKI@Z
	DD	FLAT:?ModifyStyleEx@COleControlSite@@UAEHKKI@Z
	DD	FLAT:?SetWindowTextA@COleControlSite@@UAEXPBD@Z
	DD	FLAT:?GetWindowTextA@COleControlSite@@UBEXAAV?$CStringT@DV?$StrTraitMFC_DLL@DV?$ChTraitsCRT@D@ATL@@@@@ATL@@@Z
	DD	FLAT:?GetDlgCtrlID@COleControlSite@@UBEHXZ
	DD	FLAT:?SetDlgCtrlID@COleControlSite@@UAEHH@Z
	DD	FLAT:?MoveWindow@COleControlSite@@UAEXHHHH@Z
	DD	FLAT:?SetWindowPos@COleControlSite@@UAEHPBVCWnd@@HHHHI@Z
	DD	FLAT:?ShowWindow@COleControlSite@@UAEHH@Z
	DD	FLAT:?IsWindowEnabled@COleControlSite@@UBEHXZ
	DD	FLAT:?EnableWindow@COleControlSite@@UAEHH@Z
	DD	FLAT:?SetFocus@COleControlSite@@UAEPAVCWnd@@PAUtagMSG@@@Z
	DD	FLAT:?SetFocus@COleControlSite@@UAEPAVCWnd@@XZ
	DD	FLAT:?EnableDSC@COleControlSite@@UAEXXZ
	DD	FLAT:?BindDefaultProperty@COleControlSite@@UAEXJGPBDPAVCWnd@@@Z
	DD	FLAT:?BindProperty@COleControlSite@@UAEXJPAVCWnd@@@Z
	DD	FLAT:?QuickActivate@COleControlSite@@UAEHXZ
CONST	ENDS
;	COMDAT ??_R4CCustomControlSite@@6B@
rdata$r	SEGMENT
??_R4CCustomControlSite@@6B@ DD 00H			; CCustomControlSite::`RTTI Complete Object Locator'
	DD	00H
	DD	00H
	DD	FLAT:??_R0?AVCCustomControlSite@@@8
	DD	FLAT:??_R3CCustomControlSite@@8
rdata$r	ENDS
;	COMDAT ??_R0?AVCCustomControlSite@@@8
_DATA	SEGMENT
??_R0?AVCCustomControlSite@@@8 DD FLAT:??_7type_info@@6B@ ; CCustomControlSite `RTTI Type Descriptor'
	DD	00H
	DB	'.?AVCCustomControlSite@@', 00H
_DATA	ENDS
;	COMDAT ??_R3CCustomControlSite@@8
rdata$r	SEGMENT
??_R3CCustomControlSite@@8 DD 00H			; CCustomControlSite::`RTTI Class Hierarchy Descriptor'
	DD	00H
	DD	04H
	DD	FLAT:??_R2CCustomControlSite@@8
rdata$r	ENDS
;	COMDAT ??_R2CCustomControlSite@@8
rdata$r	SEGMENT
??_R2CCustomControlSite@@8 DD FLAT:??_R1A@?0A@A@CCustomControlSite@@8 ; CCustomControlSite::`RTTI Base Class Array'
	DD	FLAT:??_R1A@?0A@A@COleControlSite@@8
	DD	FLAT:??_R1A@?0A@A@CCmdTarget@@8
	DD	FLAT:??_R1A@?0A@A@CObject@@8
rdata$r	ENDS
;	COMDAT ??_R1A@?0A@A@CCustomControlSite@@8
rdata$r	SEGMENT
??_R1A@?0A@A@CCustomControlSite@@8 DD FLAT:??_R0?AVCCustomControlSite@@@8 ; CCustomControlSite::`RTTI Base Class Descriptor at (0,-1,0,0)'
	DD	03H
	DD	00H
	DD	0ffffffffH
	DD	00H
	DD	00H
rdata$r	ENDS
;	COMDAT ??_R1A@?0A@A@COleControlSite@@8
rdata$r	SEGMENT
??_R1A@?0A@A@COleControlSite@@8 DD FLAT:??_R0?AVCOleControlSite@@@8 ; COleControlSite::`RTTI Base Class Descriptor at (0,-1,0,0)'
	DD	02H
	DD	00H
	DD	0ffffffffH
	DD	00H
	DD	00H
rdata$r	ENDS
;	COMDAT ??_R0?AVCOleControlSite@@@8
_DATA	SEGMENT
??_R0?AVCOleControlSite@@@8 DD FLAT:??_7type_info@@6B@	; COleControlSite `RTTI Type Descriptor'
	DD	00H
	DB	'.?AVCOleControlSite@@', 00H
; Function compile flags: /Odt /RTCsu
_DATA	ENDS
;	COMDAT ??0CCustomControlSite@@QAE@PAVCOleControlContainer@@@Z
_TEXT	SEGMENT
_this$ = -4						; size = 4
_pCnt$ = 8						; size = 4
??0CCustomControlSite@@QAE@PAVCOleControlContainer@@@Z PROC NEAR ; CCustomControlSite::CCustomControlSite, COMDAT
; _this$ = ecx

; 21   : 	CCustomControlSite(COleControlContainer *pCnt):COleControlSite(pCnt){}

  00000	55		 push	 ebp
  00001	8b ec		 mov	 ebp, esp
  00003	51		 push	 ecx
  00004	c7 45 fc cc cc
	cc cc		 mov	 DWORD PTR [ebp-4], -858993460 ; ccccccccH
  0000b	89 4d fc	 mov	 DWORD PTR _this$[ebp], ecx
  0000e	8b 45 08	 mov	 eax, DWORD PTR _pCnt$[ebp]
  00011	50		 push	 eax
  00012	8b 4d fc	 mov	 ecx, DWORD PTR _this$[ebp]
  00015	e8 00 00 00 00	 call	 ??0COleControlSite@@QAE@PAVCOleControlContainer@@@Z ; COleControlSite::COleControlSite
  0001a	8b 4d fc	 mov	 ecx, DWORD PTR _this$[ebp]
  0001d	c7 01 00 00 00
	00		 mov	 DWORD PTR [ecx], OFFSET FLAT:??_7CCustomControlSite@@6B@
  00023	8b 4d fc	 mov	 ecx, DWORD PTR _this$[ebp]
  00026	81 c1 f0 00 00
	00		 add	 ecx, 240		; 000000f0H
  0002c	e8 00 00 00 00	 call	 ??0XDocHostShowUI@CCustomControlSite@@QAE@XZ
  00031	8b 4d fc	 mov	 ecx, DWORD PTR _this$[ebp]
  00034	81 c1 f4 00 00
	00		 add	 ecx, 244		; 000000f4H
  0003a	e8 00 00 00 00	 call	 ??0XDocHostUIHandler@CCustomControlSite@@QAE@XZ
  0003f	8b 45 fc	 mov	 eax, DWORD PTR _this$[ebp]
  00042	83 c4 04	 add	 esp, 4
  00045	3b ec		 cmp	 ebp, esp
  00047	e8 00 00 00 00	 call	 __RTC_CheckEsp
  0004c	8b e5		 mov	 esp, ebp
  0004e	5d		 pop	 ebp
  0004f	c2 04 00	 ret	 4
??0CCustomControlSite@@QAE@PAVCOleControlContainer@@@Z ENDP ; CCustomControlSite::CCustomControlSite
_TEXT	ENDS
PUBLIC	??1CCustomControlSite@@UAE@XZ			; CCustomControlSite::~CCustomControlSite
; Function compile flags: /Odt /RTCsu
;	COMDAT ??_GCCustomControlSite@@UAEPAXI@Z
_TEXT	SEGMENT
_this$ = -4						; size = 4
___flags$ = 8						; size = 4
??_GCCustomControlSite@@UAEPAXI@Z PROC NEAR		; CCustomControlSite::`scalar deleting destructor', COMDAT
; _this$ = ecx
  00000	55		 push	 ebp
  00001	8b ec		 mov	 ebp, esp
  00003	51		 push	 ecx
  00004	c7 45 fc cc cc
	cc cc		 mov	 DWORD PTR [ebp-4], -858993460 ; ccccccccH
  0000b	89 4d fc	 mov	 DWORD PTR _this$[ebp], ecx
  0000e	8b 4d fc	 mov	 ecx, DWORD PTR _this$[ebp]
  00011	e8 00 00 00 00	 call	 ??1CCustomControlSite@@UAE@XZ
  00016	8b 45 08	 mov	 eax, DWORD PTR ___flags$[ebp]
  00019	83 e0 01	 and	 eax, 1
  0001c	74 09		 je	 SHORT $L187459
  0001e	8b 4d fc	 mov	 ecx, DWORD PTR _this$[ebp]
  00021	51		 push	 ecx
  00022	e8 00 00 00 00	 call	 ??3CObject@@SGXPAX@Z	; CObject::operator delete
$L187459:
  00027	8b 45 fc	 mov	 eax, DWORD PTR _this$[ebp]
  0002a	83 c4 04	 add	 esp, 4
  0002d	3b ec		 cmp	 ebp, esp
  0002f	e8 00 00 00 00	 call	 __RTC_CheckEsp
  00034	8b e5		 mov	 esp, ebp
  00036	5d		 pop	 ebp
  00037	c2 04 00	 ret	 4
??_GCCustomControlSite@@UAEPAXI@Z ENDP			; CCustomControlSite::`scalar deleting destructor'
_TEXT	ENDS
PUBLIC	??_R1A@?0A@A@IUnknown@@8			; IUnknown::`RTTI Base Class Descriptor at (0,-1,0,0)'
PUBLIC	??_R0?AUIUnknown@@@8				; IUnknown `RTTI Type Descriptor'
PUBLIC	??0IDocHostShowUI@@QAE@XZ			; IDocHostShowUI::IDocHostShowUI
PUBLIC	??_R4XDocHostShowUI@CCustomControlSite@@6B@	; CCustomControlSite::XDocHostShowUI::`RTTI Complete Object Locator'
PUBLIC	??_R0?AVXDocHostShowUI@CCustomControlSite@@@8	; CCustomControlSite::XDocHostShowUI `RTTI Type Descriptor'
PUBLIC	??_R3XDocHostShowUI@CCustomControlSite@@8	; CCustomControlSite::XDocHostShowUI::`RTTI Class Hierarchy Descriptor'
PUBLIC	??_R2XDocHostShowUI@CCustomControlSite@@8	; CCustomControlSite::XDocHostShowUI::`RTTI Base Class Array'
PUBLIC	??_R1A@?0A@A@XDocHostShowUI@CCustomControlSite@@8 ; CCustomControlSite::XDocHostShowUI::`RTTI Base Class Descriptor at (0,-1,0,0)'
PUBLIC	??_R1A@?0A@A@IDocHostShowUI@@8			; IDocHostShowUI::`RTTI Base Class Descriptor at (0,-1,0,0)'
PUBLIC	??_R0?AUIDocHostShowUI@@@8			; IDocHostShowUI `RTTI Type Descriptor'
PUBLIC	??_7XDocHostShowUI@CCustomControlSite@@6B@	; CCustomControlSite::XDocHostShowUI::`vftable'
EXTRN	?AddRef@XDocHostShowUI@CCustomControlSite@@UAGKXZ:NEAR ; CCustomControlSite::XDocHostShowUI::AddRef
EXTRN	?Release@XDocHostShowUI@CCustomControlSite@@UAGKXZ:NEAR ; CCustomControlSite::XDocHostShowUI::Release
EXTRN	?QueryInterface@XDocHostShowUI@CCustomControlSite@@UAGJABU_GUID@@PAPAX@Z:NEAR ; CCustomControlSite::XDocHostShowUI::QueryInterface
EXTRN	?ShowHelp@XDocHostShowUI@CCustomControlSite@@UAGJPAUHWND__@@PA_WIKUtagPOINT@@PAUIDispatch@@@Z:NEAR ; CCustomControlSite::XDocHostShowUI::ShowHelp
EXTRN	?ShowMessage@XDocHostShowUI@CCustomControlSite@@UAGJPAUHWND__@@PA_W1K1KPAJ@Z:NEAR ; CCustomControlSite::XDocHostShowUI::ShowMessage
;	COMDAT ??_7XDocHostShowUI@CCustomControlSite@@6B@
CONST	SEGMENT
??_7XDocHostShowUI@CCustomControlSite@@6B@ DD FLAT:??_R4XDocHostShowUI@CCustomControlSite@@6B@ ; CCustomControlSite::XDocHostShowUI::`vftable'
	DD	FLAT:?QueryInterface@XDocHostShowUI@CCustomControlSite@@UAGJABU_GUID@@PAPAX@Z
	DD	FLAT:?AddRef@XDocHostShowUI@CCustomControlSite@@UAGKXZ
	DD	FLAT:?Release@XDocHostShowUI@CCustomControlSite@@UAGKXZ
	DD	FLAT:?ShowMessage@XDocHostShowUI@CCustomControlSite@@UAGJPAUHWND__@@PA_W1K1KPAJ@Z
	DD	FLAT:?ShowHelp@XDocHostShowUI@CCustomControlSite@@UAGJPAUHWND__@@PA_WIKUtagPOINT@@PAUIDispatch@@@Z
CONST	ENDS
;	COMDAT ??_R4XDocHostShowUI@CCustomControlSite@@6B@
rdata$r	SEGMENT
??_R4XDocHostShowUI@CCustomControlSite@@6B@ DD 00H	; CCustomControlSite::XDocHostShowUI::`RTTI Complete Object Locator'
	DD	00H
	DD	00H
	DD	FLAT:??_R0?AVXDocHostShowUI@CCustomControlSite@@@8
	DD	FLAT:??_R3XDocHostShowUI@CCustomControlSite@@8
rdata$r	ENDS
;	COMDAT ??_R0?AVXDocHostShowUI@CCustomControlSite@@@8
_DATA	SEGMENT
??_R0?AVXDocHostShowUI@CCustomControlSite@@@8 DD FLAT:??_7type_info@@6B@ ; CCustomControlSite::XDocHostShowUI `RTTI Type Descriptor'
	DD	00H
	DB	'.?AVXDocHostShowUI@CCustomControlSite@@', 00H
_DATA	ENDS
;	COMDAT ??_R3XDocHostShowUI@CCustomControlSite@@8
rdata$r	SEGMENT
??_R3XDocHostShowUI@CCustomControlSite@@8 DD 00H	; CCustomControlSite::XDocHostShowUI::`RTTI Class Hierarchy Descriptor'
	DD	00H
	DD	03H
	DD	FLAT:??_R2XDocHostShowUI@CCustomControlSite@@8
rdata$r	ENDS
;	COMDAT ??_R2XDocHostShowUI@CCustomControlSite@@8
rdata$r	SEGMENT
??_R2XDocHostShowUI@CCustomControlSite@@8 DD FLAT:??_R1A@?0A@A@XDocHostShowUI@CCustomControlSite@@8 ; CCustomControlSite::XDocHostShowUI::`RTTI Base Class Array'
	DD	FLAT:??_R1A@?0A@A@IDocHostShowUI@@8
	DD	FLAT:??_R1A@?0A@A@IUnknown@@8
rdata$r	ENDS
;	COMDAT ??_R1A@?0A@A@XDocHostShowUI@CCustomControlSite@@8
rdata$r	SEGMENT
??_R1A@?0A@A@XDocHostShowUI@CCustomControlSite@@8 DD FLAT:??_R0?AVXDocHostShowUI@CCustomControlSite@@@8 ; CCustomControlSite::XDocHostShowUI::`RTTI Base Class Descriptor at (0,-1,0,0)'
	DD	02H
	DD	00H
	DD	0ffffffffH
	DD	00H
	DD	00H
rdata$r	ENDS
;	COMDAT ??_R1A@?0A@A@IDocHostShowUI@@8
rdata$r	SEGMENT
??_R1A@?0A@A@IDocHostShowUI@@8 DD FLAT:??_R0?AUIDocHostShowUI@@@8 ; IDocHostShowUI::`RTTI Base Class Descriptor at (0,-1,0,0)'
	DD	01H
	DD	00H
	DD	0ffffffffH
	DD	00H
	DD	00H
rdata$r	ENDS
;	COMDAT ??_R0?AUIDocHostShowUI@@@8
_DATA	SEGMENT
??_R0?AUIDocHostShowUI@@@8 DD FLAT:??_7type_info@@6B@	; IDocHostShowUI `RTTI Type Descriptor'
	DD	00H
	DB	'.?AUIDocHostShowUI@@', 00H
_DATA	ENDS
;	COMDAT ??_R1A@?0A@A@IUnknown@@8
rdata$r	SEGMENT
??_R1A@?0A@A@IUnknown@@8 DD FLAT:??_R0?AUIUnknown@@@8	; IUnknown::`RTTI Base Class Descriptor at (0,-1,0,0)'
	DD	00H
	DD	00H
	DD	0ffffffffH
	DD	00H
	DD	00H
rdata$r	ENDS
;	COMDAT ??_R0?AUIUnknown@@@8
_DATA	SEGMENT
??_R0?AUIUnknown@@@8 DD FLAT:??_7type_info@@6B@		; IUnknown `RTTI Type Descriptor'
	DD	00H
	DB	'.?AUIUnknown@@', 00H
; Function compile flags: /Odt /RTCsu
_DATA	ENDS
;	COMDAT ??0XDocHostShowUI@CCustomControlSite@@QAE@XZ
_TEXT	SEGMENT
_this$ = -4						; size = 4
??0XDocHostShowUI@CCustomControlSite@@QAE@XZ PROC NEAR	; CCustomControlSite::XDocHostShowUI::XDocHostShowUI, COMDAT
; _this$ = ecx
  00000	55		 push	 ebp
  00001	8b ec		 mov	 ebp, esp
  00003	51		 push	 ecx
  00004	c7 45 fc cc cc
	cc cc		 mov	 DWORD PTR [ebp-4], -858993460 ; ccccccccH
  0000b	89 4d fc	 mov	 DWORD PTR _this$[ebp], ecx
  0000e	8b 4d fc	 mov	 ecx, DWORD PTR _this$[ebp]
  00011	e8 00 00 00 00	 call	 ??0IDocHostShowUI@@QAE@XZ
  00016	8b 45 fc	 mov	 eax, DWORD PTR _this$[ebp]
  00019	c7 00 00 00 00
	00		 mov	 DWORD PTR [eax], OFFSET FLAT:??_7XDocHostShowUI@CCustomControlSite@@6B@
  0001f	8b 45 fc	 mov	 eax, DWORD PTR _this$[ebp]
  00022	83 c4 04	 add	 esp, 4
  00025	3b ec		 cmp	 ebp, esp
  00027	e8 00 00 00 00	 call	 __RTC_CheckEsp
  0002c	8b e5		 mov	 esp, ebp
  0002e	5d		 pop	 ebp
  0002f	c3		 ret	 0
??0XDocHostShowUI@CCustomControlSite@@QAE@XZ ENDP	; CCustomControlSite::XDocHostShowUI::XDocHostShowUI
_TEXT	ENDS
PUBLIC	??_7XDocHostUIHandler@CCustomControlSite@@6B@	; CCustomControlSite::XDocHostUIHandler::`vftable'
PUBLIC	??0IDocHostUIHandler@@QAE@XZ			; IDocHostUIHandler::IDocHostUIHandler
PUBLIC	??_R4XDocHostUIHandler@CCustomControlSite@@6B@	; CCustomControlSite::XDocHostUIHandler::`RTTI Complete Object Locator'
PUBLIC	??_R0?AVXDocHostUIHandler@CCustomControlSite@@@8 ; CCustomControlSite::XDocHostUIHandler `RTTI Type Descriptor'
PUBLIC	??_R3XDocHostUIHandler@CCustomControlSite@@8	; CCustomControlSite::XDocHostUIHandler::`RTTI Class Hierarchy Descriptor'
PUBLIC	??_R2XDocHostUIHandler@CCustomControlSite@@8	; CCustomControlSite::XDocHostUIHandler::`RTTI Base Class Array'
PUBLIC	??_R1A@?0A@A@XDocHostUIHandler@CCustomControlSite@@8 ; CCustomControlSite::XDocHostUIHandler::`RTTI Base Class Descriptor at (0,-1,0,0)'
PUBLIC	??_R1A@?0A@A@IDocHostUIHandler@@8		; IDocHostUIHandler::`RTTI Base Class Descriptor at (0,-1,0,0)'
PUBLIC	??_R0?AUIDocHostUIHandler@@@8			; IDocHostUIHandler `RTTI Type Descriptor'
EXTRN	?ShowContextMenu@XDocHostUIHandler@CCustomControlSite@@UAGJKPAUtagPOINT@@PAUIUnknown@@PAUIDispatch@@@Z:NEAR ; CCustomControlSite::XDocHostUIHandler::ShowContextMenu
EXTRN	?GetHostInfo@XDocHostUIHandler@CCustomControlSite@@UAGJPAU_DOCHOSTUIINFO@@@Z:NEAR ; CCustomControlSite::XDocHostUIHandler::GetHostInfo
EXTRN	?ShowUI@XDocHostUIHandler@CCustomControlSite@@UAGJKPAUIOleInPlaceActiveObject@@PAUIOleCommandTarget@@PAUIOleInPlaceFrame@@PAUIOleInPlaceUIWindow@@@Z:NEAR ; CCustomControlSite::XDocHostUIHandler::ShowUI
EXTRN	?HideUI@XDocHostUIHandler@CCustomControlSite@@UAGJXZ:NEAR ; CCustomControlSite::XDocHostUIHandler::HideUI
EXTRN	?UpdateUI@XDocHostUIHandler@CCustomControlSite@@UAGJXZ:NEAR ; CCustomControlSite::XDocHostUIHandler::UpdateUI
EXTRN	?EnableModeless@XDocHostUIHandler@CCustomControlSite@@UAGJH@Z:NEAR ; CCustomControlSite::XDocHostUIHandler::EnableModeless
EXTRN	?OnDocWindowActivate@XDocHostUIHandler@CCustomControlSite@@UAGJH@Z:NEAR ; CCustomControlSite::XDocHostUIHandler::OnDocWindowActivate
EXTRN	?OnFrameWindowActivate@XDocHostUIHandler@CCustomControlSite@@UAGJH@Z:NEAR ; CCustomControlSite::XDocHostUIHandler::OnFrameWindowActivate
EXTRN	?ResizeBorder@XDocHostUIHandler@CCustomControlSite@@UAGJPBUtagRECT@@PAUIOleInPlaceUIWindow@@H@Z:NEAR ; CCustomControlSite::XDocHostUIHandler::ResizeBorder
EXTRN	?TranslateAcceleratorA@XDocHostUIHandler@CCustomControlSite@@UAGJPAUtagMSG@@PBU_GUID@@K@Z:NEAR ; CCustomControlSite::XDocHostUIHandler::TranslateAcceleratorA
EXTRN	?GetOptionKeyPath@XDocHostUIHandler@CCustomControlSite@@UAGJPAPA_WK@Z:NEAR ; CCustomControlSite::XDocHostUIHandler::GetOptionKeyPath
EXTRN	?GetDropTarget@XDocHostUIHandler@CCustomControlSite@@UAGJPAUIDropTarget@@PAPAU3@@Z:NEAR ; CCustomControlSite::XDocHostUIHandler::GetDropTarget
EXTRN	?GetExternal@XDocHostUIHandler@CCustomControlSite@@UAGJPAPAUIDispatch@@@Z:NEAR ; CCustomControlSite::XDocHostUIHandler::GetExternal
EXTRN	?TranslateUrl@XDocHostUIHandler@CCustomControlSite@@UAGJKPA_WPAPA_W@Z:NEAR ; CCustomControlSite::XDocHostUIHandler::TranslateUrl
EXTRN	?FilterDataObject@XDocHostUIHandler@CCustomControlSite@@UAGJPAUIDataObject@@PAPAU3@@Z:NEAR ; CCustomControlSite::XDocHostUIHandler::FilterDataObject
EXTRN	?AddRef@XDocHostUIHandler@CCustomControlSite@@UAGKXZ:NEAR ; CCustomControlSite::XDocHostUIHandler::AddRef
EXTRN	?Release@XDocHostUIHandler@CCustomControlSite@@UAGKXZ:NEAR ; CCustomControlSite::XDocHostUIHandler::Release
EXTRN	?QueryInterface@XDocHostUIHandler@CCustomControlSite@@UAGJABU_GUID@@PAPAX@Z:NEAR ; CCustomControlSite::XDocHostUIHandler::QueryInterface
;	COMDAT ??_7XDocHostUIHandler@CCustomControlSite@@6B@
CONST	SEGMENT
??_7XDocHostUIHandler@CCustomControlSite@@6B@ DD FLAT:??_R4XDocHostUIHandler@CCustomControlSite@@6B@ ; CCustomControlSite::XDocHostUIHandler::`vftable'
	DD	FLAT:?QueryInterface@XDocHostUIHandler@CCustomControlSite@@UAGJABU_GUID@@PAPAX@Z
	DD	FLAT:?AddRef@XDocHostUIHandler@CCustomControlSite@@UAGKXZ
	DD	FLAT:?Release@XDocHostUIHandler@CCustomControlSite@@UAGKXZ
	DD	FLAT:?ShowContextMenu@XDocHostUIHandler@CCustomControlSite@@UAGJKPAUtagPOINT@@PAUIUnknown@@PAUIDispatch@@@Z
	DD	FLAT:?GetHostInfo@XDocHostUIHandler@CCustomControlSite@@UAGJPAU_DOCHOSTUIINFO@@@Z
	DD	FLAT:?ShowUI@XDocHostUIHandler@CCustomControlSite@@UAGJKPAUIOleInPlaceActiveObject@@PAUIOleCommandTarget@@PAUIOleInPlaceFrame@@PAUIOleInPlaceUIWindow@@@Z
	DD	FLAT:?HideUI@XDocHostUIHandler@CCustomControlSite@@UAGJXZ
	DD	FLAT:?UpdateUI@XDocHostUIHandler@CCustomControlSite@@UAGJXZ
	DD	FLAT:?EnableModeless@XDocHostUIHandler@CCustomControlSite@@UAGJH@Z
	DD	FLAT:?OnDocWindowActivate@XDocHostUIHandler@CCustomControlSite@@UAGJH@Z
	DD	FLAT:?OnFrameWindowActivate@XDocHostUIHandler@CCustomControlSite@@UAGJH@Z
	DD	FLAT:?ResizeBorder@XDocHostUIHandler@CCustomControlSite@@UAGJPBUtagRECT@@PAUIOleInPlaceUIWindow@@H@Z
	DD	FLAT:?TranslateAcceleratorA@XDocHostUIHandler@CCustomControlSite@@UAGJPAUtagMSG@@PBU_GUID@@K@Z
	DD	FLAT:?GetOptionKeyPath@XDocHostUIHandler@CCustomControlSite@@UAGJPAPA_WK@Z
	DD	FLAT:?GetDropTarget@XDocHostUIHandler@CCustomControlSite@@UAGJPAUIDropTarget@@PAPAU3@@Z
	DD	FLAT:?GetExternal@XDocHostUIHandler@CCustomControlSite@@UAGJPAPAUIDispatch@@@Z
	DD	FLAT:?TranslateUrl@XDocHostUIHandler@CCustomControlSite@@UAGJKPA_WPAPA_W@Z
	DD	FLAT:?FilterDataObject@XDocHostUIHandler@CCustomControlSite@@UAGJPAUIDataObject@@PAPAU3@@Z
CONST	ENDS
;	COMDAT ??_R4XDocHostUIHandler@CCustomControlSite@@6B@
rdata$r	SEGMENT
??_R4XDocHostUIHandler@CCustomControlSite@@6B@ DD 00H	; CCustomControlSite::XDocHostUIHandler::`RTTI Complete Object Locator'
	DD	00H
	DD	00H
	DD	FLAT:??_R0?AVXDocHostUIHandler@CCustomControlSite@@@8
	DD	FLAT:??_R3XDocHostUIHandler@CCustomControlSite@@8
rdata$r	ENDS
;	COMDAT ??_R0?AVXDocHostUIHandler@CCustomControlSite@@@8
_DATA	SEGMENT
??_R0?AVXDocHostUIHandler@CCustomControlSite@@@8 DD FLAT:??_7type_info@@6B@ ; CCustomControlSite::XDocHostUIHandler `RTTI Type Descriptor'
	DD	00H
	DB	'.?AVXDocHostUIHandler@CCustomControlSite@@', 00H
_DATA	ENDS
;	COMDAT ??_R3XDocHostUIHandler@CCustomControlSite@@8
rdata$r	SEGMENT
??_R3XDocHostUIHandler@CCustomControlSite@@8 DD 00H	; CCustomControlSite::XDocHostUIHandler::`RTTI Class Hierarchy Descriptor'
	DD	00H
	DD	03H
	DD	FLAT:??_R2XDocHostUIHandler@CCustomControlSite@@8
rdata$r	ENDS
;	COMDAT ??_R2XDocHostUIHandler@CCustomControlSite@@8
rdata$r	SEGMENT
??_R2XDocHostUIHandler@CCustomControlSite@@8 DD FLAT:??_R1A@?0A@A@XDocHostUIHandler@CCustomControlSite@@8 ; CCustomControlSite::XDocHostUIHandler::`RTTI Base Class Array'
	DD	FLAT:??_R1A@?0A@A@IDocHostUIHandler@@8
	DD	FLAT:??_R1A@?0A@A@IUnknown@@8
rdata$r	ENDS
;	COMDAT ??_R1A@?0A@A@XDocHostUIHandler@CCustomControlSite@@8
rdata$r	SEGMENT
??_R1A@?0A@A@XDocHostUIHandler@CCustomControlSite@@8 DD FLAT:??_R0?AVXDocHostUIHandler@CCustomControlSite@@@8 ; CCustomControlSite::XDocHostUIHandler::`RTTI Base Class Descriptor at (0,-1,0,0)'
	DD	02H
	DD	00H
	DD	0ffffffffH
	DD	00H
	DD	00H
rdata$r	ENDS
;	COMDAT ??_R1A@?0A@A@IDocHostUIHandler@@8
rdata$r	SEGMENT
??_R1A@?0A@A@IDocHostUIHandler@@8 DD FLAT:??_R0?AUIDocHostUIHandler@@@8 ; IDocHostUIHandler::`RTTI Base Class Descriptor at (0,-1,0,0)'
	DD	01H
	DD	00H
	DD	0ffffffffH
	DD	00H
	DD	00H
rdata$r	ENDS
;	COMDAT ??_R0?AUIDocHostUIHandler@@@8
_DATA	SEGMENT
??_R0?AUIDocHostUIHandler@@@8 DD FLAT:??_7type_info@@6B@ ; IDocHostUIHandler `RTTI Type Descriptor'
	DD	00H
	DB	'.?AUIDocHostUIHandler@@', 00H
; Function compile flags: /Odt /RTCsu
_DATA	ENDS
;	COMDAT ??0XDocHostUIHandler@CCustomControlSite@@QAE@XZ
_TEXT	SEGMENT
_this$ = -4						; size = 4
??0XDocHostUIHandler@CCustomControlSite@@QAE@XZ PROC NEAR ; CCustomControlSite::XDocHostUIHandler::XDocHostUIHandler, COMDAT
; _this$ = ecx
  00000	55		 push	 ebp
  00001	8b ec		 mov	 ebp, esp
  00003	51		 push	 ecx
  00004	c7 45 fc cc cc
	cc cc		 mov	 DWORD PTR [ebp-4], -858993460 ; ccccccccH
  0000b	89 4d fc	 mov	 DWORD PTR _this$[ebp], ecx
  0000e	8b 4d fc	 mov	 ecx, DWORD PTR _this$[ebp]
  00011	e8 00 00 00 00	 call	 ??0IDocHostUIHandler@@QAE@XZ
  00016	8b 45 fc	 mov	 eax, DWORD PTR _this$[ebp]
  00019	c7 00 00 00 00
	00		 mov	 DWORD PTR [eax], OFFSET FLAT:??_7XDocHostUIHandler@CCustomControlSite@@6B@
  0001f	8b 45 fc	 mov	 eax, DWORD PTR _this$[ebp]
  00022	83 c4 04	 add	 esp, 4
  00025	3b ec		 cmp	 ebp, esp
  00027	e8 00 00 00 00	 call	 __RTC_CheckEsp
  0002c	8b e5		 mov	 esp, ebp
  0002e	5d		 pop	 ebp
  0002f	c3		 ret	 0
??0XDocHostUIHandler@CCustomControlSite@@QAE@XZ ENDP	; CCustomControlSite::XDocHostUIHandler::XDocHostUIHandler
_TEXT	ENDS
EXTRN	??1COleControlSite@@UAE@XZ:NEAR			; COleControlSite::~COleControlSite
; Function compile flags: /Odt /RTCsu
;	COMDAT ??1CCustomControlSite@@UAE@XZ
_TEXT	SEGMENT
_this$ = -4						; size = 4
??1CCustomControlSite@@UAE@XZ PROC NEAR			; CCustomControlSite::~CCustomControlSite, COMDAT
; _this$ = ecx
  00000	55		 push	 ebp
  00001	8b ec		 mov	 ebp, esp
  00003	51		 push	 ecx
  00004	c7 45 fc cc cc
	cc cc		 mov	 DWORD PTR [ebp-4], -858993460 ; ccccccccH
  0000b	89 4d fc	 mov	 DWORD PTR _this$[ebp], ecx
  0000e	8b 4d fc	 mov	 ecx, DWORD PTR _this$[ebp]
  00011	e8 00 00 00 00	 call	 ??1COleControlSite@@UAE@XZ ; COleControlSite::~COleControlSite
  00016	83 c4 04	 add	 esp, 4
  00019	3b ec		 cmp	 ebp, esp
  0001b	e8 00 00 00 00	 call	 __RTC_CheckEsp
  00020	8b e5		 mov	 esp, ebp
  00022	5d		 pop	 ebp
  00023	c3		 ret	 0
??1CCustomControlSite@@UAE@XZ ENDP			; CCustomControlSite::~CCustomControlSite
_TEXT	ENDS
PUBLIC	??0IUnknown@@QAE@XZ				; IUnknown::IUnknown
; Function compile flags: /Odt /RTCsu
;	COMDAT ??0IDocHostShowUI@@QAE@XZ
_TEXT	SEGMENT
_this$ = -4						; size = 4
??0IDocHostShowUI@@QAE@XZ PROC NEAR			; IDocHostShowUI::IDocHostShowUI, COMDAT
; _this$ = ecx
  00000	55		 push	 ebp
  00001	8b ec		 mov	 ebp, esp
  00003	51		 push	 ecx
  00004	c7 45 fc cc cc
	cc cc		 mov	 DWORD PTR [ebp-4], -858993460 ; ccccccccH
  0000b	89 4d fc	 mov	 DWORD PTR _this$[ebp], ecx
  0000e	8b 4d fc	 mov	 ecx, DWORD PTR _this$[ebp]
  00011	e8 00 00 00 00	 call	 ??0IUnknown@@QAE@XZ
  00016	8b 45 fc	 mov	 eax, DWORD PTR _this$[ebp]
  00019	83 c4 04	 add	 esp, 4
  0001c	3b ec		 cmp	 ebp, esp
  0001e	e8 00 00 00 00	 call	 __RTC_CheckEsp
  00023	8b e5		 mov	 esp, ebp
  00025	5d		 pop	 ebp
  00026	c3		 ret	 0
??0IDocHostShowUI@@QAE@XZ ENDP				; IDocHostShowUI::IDocHostShowUI
; Function compile flags: /Odt /RTCsu
_TEXT	ENDS
;	COMDAT ??0IDocHostUIHandler@@QAE@XZ
_TEXT	SEGMENT
_this$ = -4						; size = 4
??0IDocHostUIHandler@@QAE@XZ PROC NEAR			; IDocHostUIHandler::IDocHostUIHandler, COMDAT
; _this$ = ecx
  00000	55		 push	 ebp
  00001	8b ec		 mov	 ebp, esp
  00003	51		 push	 ecx
  00004	c7 45 fc cc cc
	cc cc		 mov	 DWORD PTR [ebp-4], -858993460 ; ccccccccH
  0000b	89 4d fc	 mov	 DWORD PTR _this$[ebp], ecx
  0000e	8b 4d fc	 mov	 ecx, DWORD PTR _this$[ebp]
  00011	e8 00 00 00 00	 call	 ??0IUnknown@@QAE@XZ
  00016	8b 45 fc	 mov	 eax, DWORD PTR _this$[ebp]
  00019	83 c4 04	 add	 esp, 4
  0001c	3b ec		 cmp	 ebp, esp
  0001e	e8 00 00 00 00	 call	 __RTC_CheckEsp
  00023	8b e5		 mov	 esp, ebp
  00025	5d		 pop	 ebp
  00026	c3		 ret	 0
??0IDocHostUIHandler@@QAE@XZ ENDP			; IDocHostUIHandler::IDocHostUIHandler
_TEXT	ENDS
PUBLIC	??1CCustomOccManager@@UAE@XZ			; CCustomOccManager::~CCustomOccManager
; Function compile flags: /Odt /RTCsu
;	COMDAT ??_GCCustomOccManager@@UAEPAXI@Z
_TEXT	SEGMENT
_this$ = -4						; size = 4
___flags$ = 8						; size = 4
??_GCCustomOccManager@@UAEPAXI@Z PROC NEAR		; CCustomOccManager::`scalar deleting destructor', COMDAT
; _this$ = ecx
  00000	55		 push	 ebp
  00001	8b ec		 mov	 ebp, esp
  00003	51		 push	 ecx
  00004	c7 45 fc cc cc
	cc cc		 mov	 DWORD PTR [ebp-4], -858993460 ; ccccccccH
  0000b	89 4d fc	 mov	 DWORD PTR _this$[ebp], ecx
  0000e	8b 4d fc	 mov	 ecx, DWORD PTR _this$[ebp]
  00011	e8 00 00 00 00	 call	 ??1CCustomOccManager@@UAE@XZ
  00016	8b 45 08	 mov	 eax, DWORD PTR ___flags$[ebp]
  00019	83 e0 01	 and	 eax, 1
  0001c	74 09		 je	 SHORT $L187498
  0001e	8b 4d fc	 mov	 ecx, DWORD PTR _this$[ebp]
  00021	51		 push	 ecx
  00022	e8 00 00 00 00	 call	 ??3CNoTrackObject@@SGXPAX@Z ; CNoTrackObject::operator delete
$L187498:
  00027	8b 45 fc	 mov	 eax, DWORD PTR _this$[ebp]
  0002a	83 c4 04	 add	 esp, 4
  0002d	3b ec		 cmp	 ebp, esp
  0002f	e8 00 00 00 00	 call	 __RTC_CheckEsp
  00034	8b e5		 mov	 esp, ebp
  00036	5d		 pop	 ebp
  00037	c2 04 00	 ret	 4
??_GCCustomOccManager@@UAEPAXI@Z ENDP			; CCustomOccManager::`scalar deleting destructor'
_TEXT	ENDS
PUBLIC	??_R4COccManager@@6B@				; COccManager::`RTTI Complete Object Locator'
PUBLIC	??_R3COccManager@@8				; COccManager::`RTTI Class Hierarchy Descriptor'
PUBLIC	??_R2COccManager@@8				; COccManager::`RTTI Base Class Array'
PUBLIC	??_7COccManager@@6B@				; COccManager::`vftable'
PUBLIC	??_GCOccManager@@UAEPAXI@Z			; COccManager::`scalar deleting destructor'
PUBLIC	??0CNoTrackObject@@QAE@XZ			; CNoTrackObject::CNoTrackObject
EXTRN	?CreateSite@COccManager@@UAEPAVCOleControlSite@@PAVCOleControlContainer@@@Z:NEAR ; COccManager::CreateSite
EXTRN	??_ECOccManager@@UAEPAXI@Z:NEAR			; COccManager::`vector deleting destructor'
;	COMDAT ??_7COccManager@@6B@
CONST	SEGMENT
??_7COccManager@@6B@ DD FLAT:??_R4COccManager@@6B@	; COccManager::`vftable'
	DD	FLAT:??_ECOccManager@@UAEPAXI@Z
	DD	FLAT:?OnEvent@COccManager@@UAEHPAVCCmdTarget@@IPAUAFX_EVENT@@PAUAFX_CMDHANDLERINFO@@@Z
	DD	FLAT:?CreateContainer@COccManager@@UAEPAVCOleControlContainer@@PAVCWnd@@@Z
	DD	FLAT:?CreateSite@COccManager@@UAEPAVCOleControlSite@@PAVCOleControlContainer@@@Z
	DD	FLAT:?PreCreateDialog@COccManager@@UAEPBUDLGTEMPLATE@@PAU_AFX_OCC_DIALOG_INFO@@PBU2@@Z
	DD	FLAT:?PostCreateDialog@COccManager@@UAEXPAU_AFX_OCC_DIALOG_INFO@@@Z
	DD	FLAT:?SplitDialogTemplate@COccManager@@UAEPAUDLGTEMPLATE@@PBU2@PAPAUDLGITEMTEMPLATE@@@Z
	DD	FLAT:?CreateDlgControls@COccManager@@UAEHPAVCWnd@@PAXPAU_AFX_OCC_DIALOG_INFO@@@Z
	DD	FLAT:?CreateDlgControls@COccManager@@UAEHPAVCWnd@@PBDPAU_AFX_OCC_DIALOG_INFO@@@Z
	DD	FLAT:?IsDialogMessageA@COccManager@@UAEHPAVCWnd@@PAUtagMSG@@@Z
CONST	ENDS
;	COMDAT ??_R4COccManager@@6B@
rdata$r	SEGMENT
??_R4COccManager@@6B@ DD 00H				; COccManager::`RTTI Complete Object Locator'
	DD	00H
	DD	00H
	DD	FLAT:??_R0?AVCOccManager@@@8
	DD	FLAT:??_R3COccManager@@8
rdata$r	ENDS
;	COMDAT ??_R3COccManager@@8
rdata$r	SEGMENT
??_R3COccManager@@8 DD 00H				; COccManager::`RTTI Class Hierarchy Descriptor'
	DD	00H
	DD	02H
	DD	FLAT:??_R2COccManager@@8
rdata$r	ENDS
;	COMDAT ??_R2COccManager@@8
rdata$r	SEGMENT
??_R2COccManager@@8 DD FLAT:??_R1A@?0A@A@COccManager@@8	; COccManager::`RTTI Base Class Array'
	DD	FLAT:??_R1A@?0A@A@CNoTrackObject@@8
; Function compile flags: /Odt /RTCsu
rdata$r	ENDS
;	COMDAT ??0COccManager@@QAE@XZ
_TEXT	SEGMENT
_this$ = -4						; size = 4
??0COccManager@@QAE@XZ PROC NEAR			; COccManager::COccManager, COMDAT
; _this$ = ecx
  00000	55		 push	 ebp
  00001	8b ec		 mov	 ebp, esp
  00003	51		 push	 ecx
  00004	c7 45 fc cc cc
	cc cc		 mov	 DWORD PTR [ebp-4], -858993460 ; ccccccccH
  0000b	89 4d fc	 mov	 DWORD PTR _this$[ebp], ecx
  0000e	8b 4d fc	 mov	 ecx, DWORD PTR _this$[ebp]
  00011	e8 00 00 00 00	 call	 ??0CNoTrackObject@@QAE@XZ
  00016	8b 45 fc	 mov	 eax, DWORD PTR _this$[ebp]
  00019	c7 00 00 00 00
	00		 mov	 DWORD PTR [eax], OFFSET FLAT:??_7COccManager@@6B@
  0001f	8b 45 fc	 mov	 eax, DWORD PTR _this$[ebp]
  00022	83 c4 04	 add	 esp, 4
  00025	3b ec		 cmp	 ebp, esp
  00027	e8 00 00 00 00	 call	 __RTC_CheckEsp
  0002c	8b e5		 mov	 esp, ebp
  0002e	5d		 pop	 ebp
  0002f	c3		 ret	 0
??0COccManager@@QAE@XZ ENDP				; COccManager::COccManager
_TEXT	ENDS
PUBLIC	??1COccManager@@UAE@XZ				; COccManager::~COccManager
; Function compile flags: /Odt /RTCsu
;	COMDAT ??1CCustomOccManager@@UAE@XZ
_TEXT	SEGMENT
_this$ = -4						; size = 4
??1CCustomOccManager@@UAE@XZ PROC NEAR			; CCustomOccManager::~CCustomOccManager, COMDAT
; _this$ = ecx
  00000	55		 push	 ebp
  00001	8b ec		 mov	 ebp, esp
  00003	51		 push	 ecx
  00004	c7 45 fc cc cc
	cc cc		 mov	 DWORD PTR [ebp-4], -858993460 ; ccccccccH
  0000b	89 4d fc	 mov	 DWORD PTR _this$[ebp], ecx
  0000e	8b 4d fc	 mov	 ecx, DWORD PTR _this$[ebp]
  00011	e8 00 00 00 00	 call	 ??1COccManager@@UAE@XZ
  00016	83 c4 04	 add	 esp, 4
  00019	3b ec		 cmp	 ebp, esp
  0001b	e8 00 00 00 00	 call	 __RTC_CheckEsp
  00020	8b e5		 mov	 esp, ebp
  00022	5d		 pop	 ebp
  00023	c3		 ret	 0
??1CCustomOccManager@@UAE@XZ ENDP			; CCustomOccManager::~CCustomOccManager
_TEXT	ENDS
PUBLIC	??1CNoTrackObject@@UAE@XZ			; CNoTrackObject::~CNoTrackObject
; Function compile flags: /Odt /RTCsu
;	COMDAT ??1COccManager@@UAE@XZ
_TEXT	SEGMENT
_this$ = -4						; size = 4
??1COccManager@@UAE@XZ PROC NEAR			; COccManager::~COccManager, COMDAT
; _this$ = ecx
  00000	55		 push	 ebp
  00001	8b ec		 mov	 ebp, esp
  00003	51		 push	 ecx
  00004	c7 45 fc cc cc
	cc cc		 mov	 DWORD PTR [ebp-4], -858993460 ; ccccccccH
  0000b	89 4d fc	 mov	 DWORD PTR _this$[ebp], ecx
  0000e	8b 4d fc	 mov	 ecx, DWORD PTR _this$[ebp]
  00011	e8 00 00 00 00	 call	 ??1CNoTrackObject@@UAE@XZ ; CNoTrackObject::~CNoTrackObject
  00016	83 c4 04	 add	 esp, 4
  00019	3b ec		 cmp	 ebp, esp
  0001b	e8 00 00 00 00	 call	 __RTC_CheckEsp
  00020	8b e5		 mov	 esp, ebp
  00022	5d		 pop	 ebp
  00023	c3		 ret	 0
??1COccManager@@UAE@XZ ENDP				; COccManager::~COccManager
; Function compile flags: /Odt /RTCsu
_TEXT	ENDS
;	COMDAT ??_GCOccManager@@UAEPAXI@Z
_TEXT	SEGMENT
_this$ = -4						; size = 4
___flags$ = 8						; size = 4
??_GCOccManager@@UAEPAXI@Z PROC NEAR			; COccManager::`scalar deleting destructor', COMDAT
; _this$ = ecx
  00000	55		 push	 ebp
  00001	8b ec		 mov	 ebp, esp
  00003	51		 push	 ecx
  00004	c7 45 fc cc cc
	cc cc		 mov	 DWORD PTR [ebp-4], -858993460 ; ccccccccH
  0000b	89 4d fc	 mov	 DWORD PTR _this$[ebp], ecx
  0000e	8b 4d fc	 mov	 ecx, DWORD PTR _this$[ebp]
  00011	e8 00 00 00 00	 call	 ??1COccManager@@UAE@XZ
  00016	8b 45 08	 mov	 eax, DWORD PTR ___flags$[ebp]
  00019	83 e0 01	 and	 eax, 1
  0001c	74 09		 je	 SHORT $L187508
  0001e	8b 4d fc	 mov	 ecx, DWORD PTR _this$[ebp]
  00021	51		 push	 ecx
  00022	e8 00 00 00 00	 call	 ??3CNoTrackObject@@SGXPAX@Z ; CNoTrackObject::operator delete
$L187508:
  00027	8b 45 fc	 mov	 eax, DWORD PTR _this$[ebp]
  0002a	83 c4 04	 add	 esp, 4
  0002d	3b ec		 cmp	 ebp, esp
  0002f	e8 00 00 00 00	 call	 __RTC_CheckEsp
  00034	8b e5		 mov	 esp, ebp
  00036	5d		 pop	 ebp
  00037	c2 04 00	 ret	 4
??_GCOccManager@@UAEPAXI@Z ENDP				; COccManager::`scalar deleting destructor'
_TEXT	ENDS
PUBLIC	??_R4CNoTrackObject@@6B@			; CNoTrackObject::`RTTI Complete Object Locator'
PUBLIC	??_R3CNoTrackObject@@8				; CNoTrackObject::`RTTI Class Hierarchy Descriptor'
PUBLIC	??_R2CNoTrackObject@@8				; CNoTrackObject::`RTTI Base Class Array'
PUBLIC	??_7CNoTrackObject@@6B@				; CNoTrackObject::`vftable'
EXTRN	__purecall:NEAR
;	COMDAT ??_7CNoTrackObject@@6B@
CONST	SEGMENT
??_7CNoTrackObject@@6B@ DD FLAT:??_R4CNoTrackObject@@6B@ ; CNoTrackObject::`vftable'
	DD	FLAT:__purecall
CONST	ENDS
;	COMDAT ??_R4CNoTrackObject@@6B@
rdata$r	SEGMENT
??_R4CNoTrackObject@@6B@ DD 00H				; CNoTrackObject::`RTTI Complete Object Locator'
	DD	00H
	DD	00H
	DD	FLAT:??_R0?AVCNoTrackObject@@@8
	DD	FLAT:??_R3CNoTrackObject@@8
rdata$r	ENDS
;	COMDAT ??_R3CNoTrackObject@@8
rdata$r	SEGMENT
??_R3CNoTrackObject@@8 DD 00H				; CNoTrackObject::`RTTI Class Hierarchy Descriptor'
	DD	00H
	DD	01H
	DD	FLAT:??_R2CNoTrackObject@@8
rdata$r	ENDS
;	COMDAT ??_R2CNoTrackObject@@8
rdata$r	SEGMENT
??_R2CNoTrackObject@@8 DD FLAT:??_R1A@?0A@A@CNoTrackObject@@8 ; CNoTrackObject::`RTTI Base Class Array'
; Function compile flags: /Odt /RTCsu
rdata$r	ENDS
;	COMDAT ??0CNoTrackObject@@QAE@XZ
_TEXT	SEGMENT
_this$ = -4						; size = 4
??0CNoTrackObject@@QAE@XZ PROC NEAR			; CNoTrackObject::CNoTrackObject, COMDAT
; _this$ = ecx
  00000	55		 push	 ebp
  00001	8b ec		 mov	 ebp, esp
  00003	51		 push	 ecx
  00004	c7 45 fc cc cc
	cc cc		 mov	 DWORD PTR [ebp-4], -858993460 ; ccccccccH
  0000b	89 4d fc	 mov	 DWORD PTR _this$[ebp], ecx
  0000e	8b 45 fc	 mov	 eax, DWORD PTR _this$[ebp]
  00011	c7 00 00 00 00
	00		 mov	 DWORD PTR [eax], OFFSET FLAT:??_7CNoTrackObject@@6B@
  00017	8b 45 fc	 mov	 eax, DWORD PTR _this$[ebp]
  0001a	8b e5		 mov	 esp, ebp
  0001c	5d		 pop	 ebp
  0001d	c3		 ret	 0
??0CNoTrackObject@@QAE@XZ ENDP				; CNoTrackObject::CNoTrackObject
_TEXT	ENDS
PUBLIC	?GetStringTypeExWFake@ATL@@YGHKKPB_WHPAG@Z	; ATL::GetStringTypeExWFake
EXTRN	__imp__GetStringTypeExW@20:NEAR
; Function compile flags: /Odt /RTCsu
; File d:\program files (x86)\microsoft visual studio .net 2003\vc7\atlmfc\include\cstringt.h
;	COMDAT ?GetStringTypeExWThunk@ATL@@YGHKKPB_WHPAG@Z
_TEXT	SEGMENT
_lcid$ = 8						; size = 4
_dwInfoType$ = 12					; size = 4
_pszSrc$ = 16						; size = 4
_nLength$ = 20						; size = 4
_pwCharType$ = 24					; size = 4
?GetStringTypeExWThunk@ATL@@YGHKKPB_WHPAG@Z PROC NEAR	; ATL::GetStringTypeExWThunk, COMDAT

; 240  : {

  00000	55		 push	 ebp
  00001	8b ec		 mov	 ebp, esp
  00003	56		 push	 esi

; 241  : 	_AtlInstallStringThunk(reinterpret_cast<void**>(&_strthunks.pfnGetStringTypeExW), GetStringTypeExWFake, ::GetStringTypeExW);

  00004	a1 00 00 00 00	 mov	 eax, DWORD PTR __imp__GetStringTypeExW@20
  00009	50		 push	 eax
  0000a	68 00 00 00 00	 push	 OFFSET FLAT:?GetStringTypeExWFake@ATL@@YGHKKPB_WHPAG@Z ; ATL::GetStringTypeExWFake
  0000f	68 04 00 00 00	 push	 OFFSET FLAT:?_strthunks@ATL@@3U_AtlStringThunks@1@A+4
  00014	e8 00 00 00 00	 call	 ?_AtlInstallStringThunk@ATL@@YAXPAPAXPAX1@Z ; ATL::_AtlInstallStringThunk
  00019	83 c4 0c	 add	 esp, 12			; 0000000cH

; 242  : 
; 243  : 	return _strthunks.pfnGetStringTypeExW(lcid, dwInfoType, pszSrc, nLength, pwCharType);

  0001c	8b f4		 mov	 esi, esp
  0001e	8b 4d 18	 mov	 ecx, DWORD PTR _pwCharType$[ebp]
  00021	51		 push	 ecx
  00022	8b 55 14	 mov	 edx, DWORD PTR _nLength$[ebp]
  00025	52		 push	 edx
  00026	8b 45 10	 mov	 eax, DWORD PTR _pszSrc$[ebp]
  00029	50		 push	 eax
  0002a	8b 4d 0c	 mov	 ecx, DWORD PTR _dwInfoType$[ebp]
  0002d	51		 push	 ecx
  0002e	8b 55 08	 mov	 edx, DWORD PTR _lcid$[ebp]
  00031	52		 push	 edx
  00032	ff 15 04 00 00
	00		 call	 DWORD PTR ?_strthunks@ATL@@3U_AtlStringThunks@1@A+4
  00038	3b f4		 cmp	 esi, esp
  0003a	e8 00 00 00 00	 call	 __RTC_CheckEsp

; 244  : }

  0003f	5e		 pop	 esi
  00040	3b ec		 cmp	 ebp, esp
  00042	e8 00 00 00 00	 call	 __RTC_CheckEsp
  00047	5d		 pop	 ebp
  00048	c2 14 00	 ret	 20			; 00000014H
?GetStringTypeExWThunk@ATL@@YGHKKPB_WHPAG@Z ENDP	; ATL::GetStringTypeExWThunk
_TEXT	ENDS
EXTRN	__imp__GetStringTypeExA@20:NEAR
;	COMDAT xdata$x
xdata$x	SEGMENT
$T197589 DD	0ffffffffH
	DD	FLAT:$L197581
$T197583 DD	019930520H
	DD	01H
	DD	FLAT:$T197589
	DD	2 DUP(00H)
	DD	2 DUP(00H)
; Function compile flags: /Odt /RTCsu
xdata$x	ENDS
;	COMDAT ?GetStringTypeExWFake@ATL@@YGHKKPB_WHPAG@Z
_TEXT	SEGMENT
$T197580 = -164						; size = 4
_pszA$ = -156						; size = 132
_nLengthA$ = -20					; size = 4
__$ArrayPad$ = -16					; size = 4
__$EHRec$ = -12						; size = 12
__$ReturnAddr$ = 4					; size = 4
_lcid$ = 8						; size = 4
_dwInfoType$ = 12					; size = 4
_pszSrc$ = 16						; size = 4
_nLength$ = 20						; size = 4
_pwCharType$ = 24					; size = 4
?GetStringTypeExWFake@ATL@@YGHKKPB_WHPAG@Z PROC NEAR	; ATL::GetStringTypeExWFake, COMDAT

; 224  : {

  00000	55		 push	 ebp
  00001	8b ec		 mov	 ebp, esp
  00003	6a ff		 push	 -1
  00005	68 00 00 00 00	 push	 __ehhandler$?GetStringTypeExWFake@ATL@@YGHKKPB_WHPAG@Z
  0000a	64 a1 00 00 00
	00		 mov	 eax, DWORD PTR fs:__except_list
  00010	50		 push	 eax
  00011	64 89 25 00 00
	00 00		 mov	 DWORD PTR fs:__except_list, esp
  00018	81 ec 98 00 00
	00		 sub	 esp, 152		; 00000098H
  0001e	56		 push	 esi
  0001f	57		 push	 edi
  00020	8d bd 5c ff ff
	ff		 lea	 edi, DWORD PTR [ebp-164]
  00026	b9 26 00 00 00	 mov	 ecx, 38			; 00000026H
  0002b	b8 cc cc cc cc	 mov	 eax, -858993460		; ccccccccH
  00030	f3 ab		 rep stosd
  00032	a1 00 00 00 00	 mov	 eax, DWORD PTR ___security_cookie
  00037	89 45 f0	 mov	 DWORD PTR __$ArrayPad$[ebp], eax

; 225  : 	int nLengthA;
; 226  : 	CTempBuffer<char> pszA;

  0003a	8d 8d 64 ff ff
	ff		 lea	 ecx, DWORD PTR _pszA$[ebp]
  00040	e8 00 00 00 00	 call	 ??0?$CTempBuffer@D$0IA@VCCRTAllocator@ATL@@@ATL@@QAE@XZ ; ATL::CTempBuffer<char,128,ATL::CCRTAllocator>::CTempBuffer<char,128,ATL::CCRTAllocator>
  00045	c7 45 fc 00 00
	00 00		 mov	 DWORD PTR __$EHRec$[ebp+8], 0

; 227  : 
; 228  : 	nLengthA = ::WideCharToMultiByte(_AtlGetConversionACP(), 0, pszSrc, nLength, NULL, 0, NULL, NULL);

  0004c	8b f4		 mov	 esi, esp
  0004e	6a 00		 push	 0
  00050	6a 00		 push	 0
  00052	6a 00		 push	 0
  00054	6a 00		 push	 0
  00056	8b 45 14	 mov	 eax, DWORD PTR _nLength$[ebp]
  00059	50		 push	 eax
  0005a	8b 4d 10	 mov	 ecx, DWORD PTR _pszSrc$[ebp]
  0005d	51		 push	 ecx
  0005e	6a 00		 push	 0
  00060	e8 00 00 00 00	 call	 ?_AtlGetConversionACP@ATL@@YGIXZ ; ATL::_AtlGetConversionACP
  00065	50		 push	 eax
  00066	ff 15 00 00 00
	00		 call	 DWORD PTR __imp__WideCharToMultiByte@32
  0006c	3b f4		 cmp	 esi, esp
  0006e	e8 00 00 00 00	 call	 __RTC_CheckEsp
  00073	89 45 ec	 mov	 DWORD PTR _nLengthA$[ebp], eax

; 229  : 	pszA.Allocate(nLengthA);

  00076	8b 55 ec	 mov	 edx, DWORD PTR _nLengthA$[ebp]
  00079	52		 push	 edx
  0007a	8d 8d 64 ff ff
	ff		 lea	 ecx, DWORD PTR _pszA$[ebp]
  00080	e8 00 00 00 00	 call	 ?Allocate@?$CTempBuffer@D$0IA@VCCRTAllocator@ATL@@@ATL@@QAEPADI@Z ; ATL::CTempBuffer<char,128,ATL::CCRTAllocator>::Allocate

; 230  : 	::WideCharToMultiByte(_AtlGetConversionACP(), 0, pszSrc, nLength, pszA, nLengthA, NULL, NULL);

  00085	8b f4		 mov	 esi, esp
  00087	6a 00		 push	 0
  00089	6a 00		 push	 0
  0008b	8b 45 ec	 mov	 eax, DWORD PTR _nLengthA$[ebp]
  0008e	50		 push	 eax
  0008f	8d 8d 64 ff ff
	ff		 lea	 ecx, DWORD PTR _pszA$[ebp]
  00095	e8 00 00 00 00	 call	 ??B?$CTempBuffer@D$0IA@VCCRTAllocator@ATL@@@ATL@@QBEPADXZ ; ATL::CTempBuffer<char,128,ATL::CCRTAllocator>::operator char *
  0009a	50		 push	 eax
  0009b	8b 4d 14	 mov	 ecx, DWORD PTR _nLength$[ebp]
  0009e	51		 push	 ecx
  0009f	8b 55 10	 mov	 edx, DWORD PTR _pszSrc$[ebp]
  000a2	52		 push	 edx
  000a3	6a 00		 push	 0
  000a5	e8 00 00 00 00	 call	 ?_AtlGetConversionACP@ATL@@YGIXZ ; ATL::_AtlGetConversionACP
  000aa	50		 push	 eax
  000ab	ff 15 00 00 00
	00		 call	 DWORD PTR __imp__WideCharToMultiByte@32
  000b1	3b f4		 cmp	 esi, esp
  000b3	e8 00 00 00 00	 call	 __RTC_CheckEsp

; 231  : 
; 232  : 	if (nLength == -1)

  000b8	83 7d 14 ff	 cmp	 DWORD PTR _nLength$[ebp], -1
  000bc	75 07		 jne	 SHORT $L26381

; 233  : 		nLengthA = -1;

  000be	c7 45 ec ff ff
	ff ff		 mov	 DWORD PTR _nLengthA$[ebp], -1
$L26381:

; 234  : 
; 235  : 	return ::GetStringTypeExA(lcid, dwInfoType, pszA, nLengthA, pwCharType);

  000c5	8b f4		 mov	 esi, esp
  000c7	8b 45 18	 mov	 eax, DWORD PTR _pwCharType$[ebp]
  000ca	50		 push	 eax
  000cb	8b 4d ec	 mov	 ecx, DWORD PTR _nLengthA$[ebp]
  000ce	51		 push	 ecx
  000cf	8d 8d 64 ff ff
	ff		 lea	 ecx, DWORD PTR _pszA$[ebp]
  000d5	e8 00 00 00 00	 call	 ??B?$CTempBuffer@D$0IA@VCCRTAllocator@ATL@@@ATL@@QBEPADXZ ; ATL::CTempBuffer<char,128,ATL::CCRTAllocator>::operator char *
  000da	50		 push	 eax
  000db	8b 55 0c	 mov	 edx, DWORD PTR _dwInfoType$[ebp]
  000de	52		 push	 edx
  000df	8b 45 08	 mov	 eax, DWORD PTR _lcid$[ebp]
  000e2	50		 push	 eax
  000e3	ff 15 00 00 00
	00		 call	 DWORD PTR __imp__GetStringTypeExA@20
  000e9	3b f4		 cmp	 esi, esp
  000eb	e8 00 00 00 00	 call	 __RTC_CheckEsp
  000f0	89 85 5c ff ff
	ff		 mov	 DWORD PTR $T197580[ebp], eax
  000f6	c7 45 fc ff ff
	ff ff		 mov	 DWORD PTR __$EHRec$[ebp+8], -1
  000fd	8d 8d 64 ff ff
	ff		 lea	 ecx, DWORD PTR _pszA$[ebp]
  00103	e8 00 00 00 00	 call	 ??1?$CTempBuffer@D$0IA@VCCRTAllocator@ATL@@@ATL@@QAE@XZ ; ATL::CTempBuffer<char,128,ATL::CCRTAllocator>::~CTempBuffer<char,128,ATL::CCRTAllocator>
  00108	8b 85 5c ff ff
	ff		 mov	 eax, DWORD PTR $T197580[ebp]

; 236  : }

  0010e	52		 push	 edx
  0010f	8b cd		 mov	 ecx, ebp
  00111	50		 push	 eax
  00112	8d 15 00 00 00
	00		 lea	 edx, DWORD PTR $L197588
  00118	e8 00 00 00 00	 call	 @_RTC_CheckStackVars@8
  0011d	58		 pop	 eax
  0011e	5a		 pop	 edx
  0011f	8b 4d f4	 mov	 ecx, DWORD PTR __$EHRec$[ebp]
  00122	64 89 0d 00 00
	00 00		 mov	 DWORD PTR fs:__except_list, ecx
  00129	8b 4d f0	 mov	 ecx, DWORD PTR __$ArrayPad$[ebp]
  0012c	e8 00 00 00 00	 call	 @__security_check_cookie@4
  00131	5f		 pop	 edi
  00132	5e		 pop	 esi
  00133	81 c4 a4 00 00
	00		 add	 esp, 164		; 000000a4H
  00139	3b ec		 cmp	 ebp, esp
  0013b	e8 00 00 00 00	 call	 __RTC_CheckEsp
  00140	8b e5		 mov	 esp, ebp
  00142	5d		 pop	 ebp
  00143	c2 14 00	 ret	 20			; 00000014H
$L197588:
  00146	01 00 00 00	 DD	 1
  0014a	00 00 00 00	 DD	 $L197587
$L197587:
  0014e	64 ff ff ff	 DD	 -156			; ffffff64H
  00152	84 00 00 00	 DD	 132			; 00000084H
  00156	00 00 00 00	 DD	 $L197584
$L197584:
  0015a	70		 DB	 112			; 00000070H
  0015b	73		 DB	 115			; 00000073H
  0015c	7a		 DB	 122			; 0000007aH
  0015d	41		 DB	 65			; 00000041H
  0015e	00		 DB	 0
_TEXT	ENDS
;	COMDAT text$x
text$x	SEGMENT
$L197581:
  00000	8d 8d 64 ff ff
	ff		 lea	 ecx, DWORD PTR _pszA$[ebp]
  00006	e9 00 00 00 00	 jmp	 ??1?$CTempBuffer@D$0IA@VCCRTAllocator@ATL@@@ATL@@QAE@XZ ; ATL::CTempBuffer<char,128,ATL::CCRTAllocator>::~CTempBuffer<char,128,ATL::CCRTAllocator>
__ehhandler$?GetStringTypeExWFake@ATL@@YGHKKPB_WHPAG@Z:
  0000b	b8 00 00 00 00	 mov	 eax, OFFSET FLAT:$T197583
  00010	e9 00 00 00 00	 jmp	 ___CxxFrameHandler
text$x	ENDS
?GetStringTypeExWFake@ATL@@YGHKKPB_WHPAG@Z ENDP		; ATL::GetStringTypeExWFake
PUBLIC	?lstrcmpiWFake@ATL@@YGHPB_W0@Z			; ATL::lstrcmpiWFake
EXTRN	__imp__lstrcmpiW@8:NEAR
; Function compile flags: /Odt /RTCsu
;	COMDAT ?lstrcmpiWThunk@ATL@@YGHPB_W0@Z
_TEXT	SEGMENT
_psz1$ = 8						; size = 4
_psz2$ = 12						; size = 4
?lstrcmpiWThunk@ATL@@YGHPB_W0@Z PROC NEAR		; ATL::lstrcmpiWThunk, COMDAT

; 254  : {

  00000	55		 push	 ebp
  00001	8b ec		 mov	 ebp, esp
  00003	56		 push	 esi

; 255  : 	_AtlInstallStringThunk(reinterpret_cast<void**>(&_strthunks.pfnlstrcmpiW), lstrcmpiWFake, ::lstrcmpiW);

  00004	a1 00 00 00 00	 mov	 eax, DWORD PTR __imp__lstrcmpiW@8
  00009	50		 push	 eax
  0000a	68 00 00 00 00	 push	 OFFSET FLAT:?lstrcmpiWFake@ATL@@YGHPB_W0@Z ; ATL::lstrcmpiWFake
  0000f	68 08 00 00 00	 push	 OFFSET FLAT:?_strthunks@ATL@@3U_AtlStringThunks@1@A+8
  00014	e8 00 00 00 00	 call	 ?_AtlInstallStringThunk@ATL@@YAXPAPAXPAX1@Z ; ATL::_AtlInstallStringThunk
  00019	83 c4 0c	 add	 esp, 12			; 0000000cH

; 256  : 
; 257  : 	return _strthunks.pfnlstrcmpiW(psz1, psz2);

  0001c	8b f4		 mov	 esi, esp
  0001e	8b 4d 0c	 mov	 ecx, DWORD PTR _psz2$[ebp]
  00021	51		 push	 ecx
  00022	8b 55 08	 mov	 edx, DWORD PTR _psz1$[ebp]
  00025	52		 push	 edx
  00026	ff 15 08 00 00
	00		 call	 DWORD PTR ?_strthunks@ATL@@3U_AtlStringThunks@1@A+8
  0002c	3b f4		 cmp	 esi, esp
  0002e	e8 00 00 00 00	 call	 __RTC_CheckEsp

; 258  : }

  00033	5e		 pop	 esi
  00034	3b ec		 cmp	 ebp, esp
  00036	e8 00 00 00 00	 call	 __RTC_CheckEsp
  0003b	5d		 pop	 ebp
  0003c	c2 08 00	 ret	 8
?lstrcmpiWThunk@ATL@@YGHPB_W0@Z ENDP			; ATL::lstrcmpiWThunk
_TEXT	ENDS
EXTRN	__imp__lstrcmpiA@8:NEAR
; Function compile flags: /Odt /RTCsu
;	COMDAT ?lstrcmpiWFake@ATL@@YGHPB_W0@Z
_TEXT	SEGMENT
tv91 = -32						; size = 4
tv94 = -28						; size = 4
tv76 = -24						; size = 4
tv79 = -20						; size = 4
__lpa$ = -16						; size = 4
__lpw$ = -12						; size = 4
__acp$ = -8						; size = 4
__convert$ = -4						; size = 4
_psz1$ = 8						; size = 4
_psz2$ = 12						; size = 4
?lstrcmpiWFake@ATL@@YGHPB_W0@Z PROC NEAR		; ATL::lstrcmpiWFake, COMDAT

; 247  : {

  00000	55		 push	 ebp
  00001	8b ec		 mov	 ebp, esp
  00003	83 ec 20	 sub	 esp, 32			; 00000020H
  00006	56		 push	 esi
  00007	b8 cc cc cc cc	 mov	 eax, -858993460		; ccccccccH
  0000c	89 45 e0	 mov	 DWORD PTR [ebp-32], eax
  0000f	89 45 e4	 mov	 DWORD PTR [ebp-28], eax
  00012	89 45 e8	 mov	 DWORD PTR [ebp-24], eax
  00015	89 45 ec	 mov	 DWORD PTR [ebp-20], eax
  00018	89 45 f0	 mov	 DWORD PTR [ebp-16], eax
  0001b	89 45 f4	 mov	 DWORD PTR [ebp-12], eax
  0001e	89 45 f8	 mov	 DWORD PTR [ebp-8], eax
  00021	89 45 fc	 mov	 DWORD PTR [ebp-4], eax

; 248  : 	USES_CONVERSION;

  00024	c7 45 fc 00 00
	00 00		 mov	 DWORD PTR __convert$[ebp], 0
  0002b	e8 00 00 00 00	 call	 ?_AtlGetConversionACP@ATL@@YGIXZ ; ATL::_AtlGetConversionACP
  00030	89 45 f8	 mov	 DWORD PTR __acp$[ebp], eax
  00033	c7 45 f4 00 00
	00 00		 mov	 DWORD PTR __lpw$[ebp], 0
  0003a	c7 45 f0 00 00
	00 00		 mov	 DWORD PTR __lpa$[ebp], 0

; 249  : 
; 250  : 	return ::lstrcmpiA(W2A(psz1), W2A(psz2));

  00041	8b 45 0c	 mov	 eax, DWORD PTR _psz2$[ebp]
  00044	89 45 f4	 mov	 DWORD PTR __lpw$[ebp], eax
  00047	83 7d f4 00	 cmp	 DWORD PTR __lpw$[ebp], 0
  0004b	75 09		 jne	 SHORT $L197594
  0004d	c7 45 ec 00 00
	00 00		 mov	 DWORD PTR tv79[ebp], 0
  00054	eb 43		 jmp	 SHORT $L197595
$L197594:
  00056	8b f4		 mov	 esi, esp
  00058	8b 4d f4	 mov	 ecx, DWORD PTR __lpw$[ebp]
  0005b	51		 push	 ecx
  0005c	ff 15 00 00 00
	00		 call	 DWORD PTR __imp__lstrlenW@4
  00062	3b f4		 cmp	 esi, esp
  00064	e8 00 00 00 00	 call	 __RTC_CheckEsp
  00069	8d 54 00 02	 lea	 edx, DWORD PTR [eax+eax+2]
  0006d	89 55 fc	 mov	 DWORD PTR __convert$[ebp], edx
  00070	8b 45 fc	 mov	 eax, DWORD PTR __convert$[ebp]
  00073	83 c0 03	 add	 eax, 3
  00076	83 e0 fc	 and	 eax, -4			; fffffffcH
  00079	e8 00 00 00 00	 call	 __alloca_probe
  0007e	89 65 e8	 mov	 DWORD PTR tv76[ebp], esp
  00081	8b 45 f8	 mov	 eax, DWORD PTR __acp$[ebp]
  00084	50		 push	 eax
  00085	8b 4d fc	 mov	 ecx, DWORD PTR __convert$[ebp]
  00088	51		 push	 ecx
  00089	8b 55 f4	 mov	 edx, DWORD PTR __lpw$[ebp]
  0008c	52		 push	 edx
  0008d	8b 45 e8	 mov	 eax, DWORD PTR tv76[ebp]
  00090	50		 push	 eax
  00091	e8 00 00 00 00	 call	 ?AtlW2AHelper@@YGPADPADPB_WHI@Z ; AtlW2AHelper
  00096	89 45 ec	 mov	 DWORD PTR tv79[ebp], eax
$L197595:
  00099	8b 4d 08	 mov	 ecx, DWORD PTR _psz1$[ebp]
  0009c	89 4d f4	 mov	 DWORD PTR __lpw$[ebp], ecx
  0009f	83 7d f4 00	 cmp	 DWORD PTR __lpw$[ebp], 0
  000a3	75 09		 jne	 SHORT $L197596
  000a5	c7 45 e4 00 00
	00 00		 mov	 DWORD PTR tv94[ebp], 0
  000ac	eb 43		 jmp	 SHORT $L197597
$L197596:
  000ae	8b f4		 mov	 esi, esp
  000b0	8b 55 f4	 mov	 edx, DWORD PTR __lpw$[ebp]
  000b3	52		 push	 edx
  000b4	ff 15 00 00 00
	00		 call	 DWORD PTR __imp__lstrlenW@4
  000ba	3b f4		 cmp	 esi, esp
  000bc	e8 00 00 00 00	 call	 __RTC_CheckEsp
  000c1	8d 44 00 02	 lea	 eax, DWORD PTR [eax+eax+2]
  000c5	89 45 fc	 mov	 DWORD PTR __convert$[ebp], eax
  000c8	8b 45 fc	 mov	 eax, DWORD PTR __convert$[ebp]
  000cb	83 c0 03	 add	 eax, 3
  000ce	83 e0 fc	 and	 eax, -4			; fffffffcH
  000d1	e8 00 00 00 00	 call	 __alloca_probe
  000d6	89 65 e0	 mov	 DWORD PTR tv91[ebp], esp
  000d9	8b 4d f8	 mov	 ecx, DWORD PTR __acp$[ebp]
  000dc	51		 push	 ecx
  000dd	8b 55 fc	 mov	 edx, DWORD PTR __convert$[ebp]
  000e0	52		 push	 edx
  000e1	8b 45 f4	 mov	 eax, DWORD PTR __lpw$[ebp]
  000e4	50		 push	 eax
  000e5	8b 4d e0	 mov	 ecx, DWORD PTR tv91[ebp]
  000e8	51		 push	 ecx
  000e9	e8 00 00 00 00	 call	 ?AtlW2AHelper@@YGPADPADPB_WHI@Z ; AtlW2AHelper
  000ee	89 45 e4	 mov	 DWORD PTR tv94[ebp], eax
$L197597:
  000f1	8b f4		 mov	 esi, esp
  000f3	8b 55 ec	 mov	 edx, DWORD PTR tv79[ebp]
  000f6	52		 push	 edx
  000f7	8b 45 e4	 mov	 eax, DWORD PTR tv94[ebp]
  000fa	50		 push	 eax
  000fb	ff 15 00 00 00
	00		 call	 DWORD PTR __imp__lstrcmpiA@8
  00101	3b f4		 cmp	 esi, esp
  00103	e8 00 00 00 00	 call	 __RTC_CheckEsp

; 251  : }

  00108	8d 65 dc	 lea	 esp, DWORD PTR [ebp-36]
  0010b	5e		 pop	 esi
  0010c	8b e5		 mov	 esp, ebp
  0010e	5d		 pop	 ebp
  0010f	c2 08 00	 ret	 8
?lstrcmpiWFake@ATL@@YGHPB_W0@Z ENDP			; ATL::lstrcmpiWFake
; Function compile flags: /Odt /RTCsu
; File d:\boxgit\playbox\playbox\dev\prj\playbox\src\module\webinteract\mywebbrowserwnd.cpp
_TEXT	ENDS
_TEXT	SEGMENT
_this$ = -4						; size = 4
_pContainer$ = 8					; size = 4
_ppSite$ = 12						; size = 4
_nID$ = 16						; size = 4
_clsid$ = 20						; size = 4
?CreateControlSite@MyWebBrowserWnd@@UAEHPAVCOleControlContainer@@PAPAVCOleControlSite@@IABU_GUID@@@Z PROC NEAR ; MyWebBrowserWnd::CreateControlSite
; _this$ = ecx

; 84   : {

  004f0	55		 push	 ebp
  004f1	8b ec		 mov	 ebp, esp
  004f3	51		 push	 ecx
  004f4	c7 45 fc cc cc
	cc cc		 mov	 DWORD PTR [ebp-4], -858993460 ; ccccccccH
  004fb	89 4d fc	 mov	 DWORD PTR _this$[ebp], ecx

; 85   : 	return TRUE;

  004fe	b8 01 00 00 00	 mov	 eax, 1

; 86   : }

  00503	8b e5		 mov	 esp, ebp
  00505	5d		 pop	 ebp
  00506	c2 10 00	 ret	 16			; 00000010H
?CreateControlSite@MyWebBrowserWnd@@UAEHPAVCOleControlContainer@@PAPAVCOleControlSite@@IABU_GUID@@@Z ENDP ; MyWebBrowserWnd::CreateControlSite
_TEXT	ENDS
PUBLIC	?Init@MyWebBrowserWnd@@QAEXXZ			; MyWebBrowserWnd::Init
EXTRN	__imp__IsWindow@4:NEAR
EXTRN	?ShowWindow@CWnd@@QAEHH@Z:NEAR			; CWnd::ShowWindow
EXTRN	?KillTimer@CWnd@@QAEHI@Z:NEAR			; CWnd::KillTimer
EXTRN	__imp_??4?$CStringT@DV?$StrTraitMFC_DLL@DV?$ChTraitsCRT@D@ATL@@@@@ATL@@QAEAAV01@PBD@Z:NEAR
; Function compile flags: /Odt /RTCsu
_TEXT	SEGMENT
_this$ = -4						; size = 4
?Init@MyWebBrowserWnd@@QAEXXZ PROC NEAR			; MyWebBrowserWnd::Init
; _this$ = ecx

; 89   : {

  00510	55		 push	 ebp
  00511	8b ec		 mov	 ebp, esp
  00513	51		 push	 ecx
  00514	56		 push	 esi
  00515	c7 45 fc cc cc
	cc cc		 mov	 DWORD PTR [ebp-4], -858993460 ; ccccccccH
  0051c	89 4d fc	 mov	 DWORD PTR _this$[ebp], ecx

; 90   : 	KillTimer( TIMER_CHECK_NAVIGATE );

  0051f	68 6c 04 00 00	 push	 1132			; 0000046cH
  00524	8b 4d fc	 mov	 ecx, DWORD PTR _this$[ebp]
  00527	e8 00 00 00 00	 call	 ?KillTimer@CWnd@@QAEHI@Z ; CWnd::KillTimer

; 91   : 	m_bSucceed = TRUE;

  0052c	8b 45 fc	 mov	 eax, DWORD PTR _this$[ebp]
  0052f	c7 80 f4 00 00
	00 01 00 00 00	 mov	 DWORD PTR [eax+244], 1

; 92   : 	m_bReady = FALSE;

  00539	8b 4d fc	 mov	 ecx, DWORD PTR _this$[ebp]
  0053c	c7 81 f8 00 00
	00 00 00 00 00	 mov	 DWORD PTR [ecx+248], 0

; 93   : 	m_strURL = "";

  00546	8b f4		 mov	 esi, esp
  00548	68 00 00 00 00	 push	 OFFSET FLAT:$SG195967
  0054d	8b 4d fc	 mov	 ecx, DWORD PTR _this$[ebp]
  00550	81 c1 00 01 00
	00		 add	 ecx, 256		; 00000100H
  00556	ff 15 00 00 00
	00		 call	 DWORD PTR __imp_??4?$CStringT@DV?$StrTraitMFC_DLL@DV?$ChTraitsCRT@D@ATL@@@@@ATL@@QAEAAV01@PBD@Z
  0055c	3b f4		 cmp	 esi, esp
  0055e	e8 00 00 00 00	 call	 __RTC_CheckEsp

; 94   : 	m_dwStartShowTime = 0;

  00563	8b 55 fc	 mov	 edx, DWORD PTR _this$[ebp]
  00566	c7 82 fc 00 00
	00 00 00 00 00	 mov	 DWORD PTR [edx+252], 0

; 95   : 	if (::IsWindow (m_flash.m_hWnd))

  00570	8b f4		 mov	 esi, esp
  00572	8b 45 fc	 mov	 eax, DWORD PTR _this$[ebp]
  00575	8b 88 24 01 00
	00		 mov	 ecx, DWORD PTR [eax+292]
  0057b	51		 push	 ecx
  0057c	ff 15 00 00 00
	00		 call	 DWORD PTR __imp__IsWindow@4
  00582	3b f4		 cmp	 esi, esp
  00584	e8 00 00 00 00	 call	 __RTC_CheckEsp
  00589	85 c0		 test	 eax, eax
  0058b	74 10		 je	 SHORT $L195966

; 96   : 		m_flash.ShowWindow(SW_SHOW);

  0058d	6a 05		 push	 5
  0058f	8b 4d fc	 mov	 ecx, DWORD PTR _this$[ebp]
  00592	81 c1 04 01 00
	00		 add	 ecx, 260		; 00000104H
  00598	e8 00 00 00 00	 call	 ?ShowWindow@CWnd@@QAEHH@Z ; CWnd::ShowWindow
$L195966:

; 97   : }

  0059d	5e		 pop	 esi
  0059e	83 c4 04	 add	 esp, 4
  005a1	3b ec		 cmp	 ebp, esp
  005a3	e8 00 00 00 00	 call	 __RTC_CheckEsp
  005a8	8b e5		 mov	 esp, ebp
  005aa	5d		 pop	 ebp
  005ab	c3		 ret	 0
?Init@MyWebBrowserWnd@@QAEXXZ ENDP			; MyWebBrowserWnd::Init
_TEXT	ENDS
PUBLIC	?Recycle@MyWebBrowserWnd@@QAEXXZ		; MyWebBrowserWnd::Recycle
; Function compile flags: /Odt /RTCsu
_TEXT	SEGMENT
_this$ = -4						; size = 4
?Recycle@MyWebBrowserWnd@@QAEXXZ PROC NEAR		; MyWebBrowserWnd::Recycle
; _this$ = ecx

; 100  : {

  005b0	55		 push	 ebp
  005b1	8b ec		 mov	 ebp, esp
  005b3	51		 push	 ecx
  005b4	c7 45 fc cc cc
	cc cc		 mov	 DWORD PTR [ebp-4], -858993460 ; ccccccccH
  005bb	89 4d fc	 mov	 DWORD PTR _this$[ebp], ecx

; 101  : 	Init();

  005be	8b 4d fc	 mov	 ecx, DWORD PTR _this$[ebp]
  005c1	e8 00 00 00 00	 call	 ?Init@MyWebBrowserWnd@@QAEXXZ ; MyWebBrowserWnd::Init

; 102  : }

  005c6	83 c4 04	 add	 esp, 4
  005c9	3b ec		 cmp	 ebp, esp
  005cb	e8 00 00 00 00	 call	 __RTC_CheckEsp
  005d0	8b e5		 mov	 esp, ebp
  005d2	5d		 pop	 ebp
  005d3	c3		 ret	 0
?Recycle@MyWebBrowserWnd@@QAEXXZ ENDP			; MyWebBrowserWnd::Recycle
_TEXT	ENDS
PUBLIC	?CharLowerWFake@ATL@@YGPA_WPA_W@Z		; ATL::CharLowerWFake
EXTRN	__imp__CharLowerW@4:NEAR
; Function compile flags: /Odt /RTCsu
; File d:\program files (x86)\microsoft visual studio .net 2003\vc7\atlmfc\include\cstringt.h
;	COMDAT ?CharLowerWThunk@ATL@@YGPA_WPA_W@Z
_TEXT	SEGMENT
_psz$ = 8						; size = 4
?CharLowerWThunk@ATL@@YGPA_WPA_W@Z PROC NEAR		; ATL::CharLowerWThunk, COMDAT

; 273  : {

  00000	55		 push	 ebp
  00001	8b ec		 mov	 ebp, esp
  00003	56		 push	 esi

; 274  : 	_AtlInstallStringThunk(reinterpret_cast<void**>(&_strthunks.pfnCharLowerW), CharLowerWFake, ::CharLowerW);

  00004	a1 00 00 00 00	 mov	 eax, DWORD PTR __imp__CharLowerW@4
  00009	50		 push	 eax
  0000a	68 00 00 00 00	 push	 OFFSET FLAT:?CharLowerWFake@ATL@@YGPA_WPA_W@Z ; ATL::CharLowerWFake
  0000f	68 0c 00 00 00	 push	 OFFSET FLAT:?_strthunks@ATL@@3U_AtlStringThunks@1@A+12
  00014	e8 00 00 00 00	 call	 ?_AtlInstallStringThunk@ATL@@YAXPAPAXPAX1@Z ; ATL::_AtlInstallStringThunk
  00019	83 c4 0c	 add	 esp, 12			; 0000000cH

; 275  : 
; 276  : 	return _strthunks.pfnCharLowerW(psz);

  0001c	8b f4		 mov	 esi, esp
  0001e	8b 4d 08	 mov	 ecx, DWORD PTR _psz$[ebp]
  00021	51		 push	 ecx
  00022	ff 15 0c 00 00
	00		 call	 DWORD PTR ?_strthunks@ATL@@3U_AtlStringThunks@1@A+12
  00028	3b f4		 cmp	 esi, esp
  0002a	e8 00 00 00 00	 call	 __RTC_CheckEsp

; 277  : }

  0002f	5e		 pop	 esi
  00030	3b ec		 cmp	 ebp, esp
  00032	e8 00 00 00 00	 call	 __RTC_CheckEsp
  00037	5d		 pop	 ebp
  00038	c2 04 00	 ret	 4
?CharLowerWThunk@ATL@@YGPA_WPA_W@Z ENDP			; ATL::CharLowerWThunk
_TEXT	ENDS
PUBLIC	?AtlA2WHelper@@YGPA_WPA_WPBDHI@Z		; AtlA2WHelper
EXTRN	__imp__lstrlenA@4:NEAR
EXTRN	__imp__CharLowerA@4:NEAR
EXTRN	__imp__wcscpy:NEAR
; Function compile flags: /Odt /RTCsu
;	COMDAT ?CharLowerWFake@ATL@@YGPA_WPA_W@Z
_TEXT	SEGMENT
tv90 = -36						; size = 4
tv94 = -32						; size = 4
tv75 = -28						; size = 4
tv78 = -24						; size = 4
_pszA$ = -20						; size = 4
__lpa$ = -16						; size = 4
__lpw$ = -12						; size = 4
__acp$ = -8						; size = 4
__convert$ = -4						; size = 4
_psz$ = 8						; size = 4
?CharLowerWFake@ATL@@YGPA_WPA_W@Z PROC NEAR		; ATL::CharLowerWFake, COMDAT

; 261  : {

  00000	55		 push	 ebp
  00001	8b ec		 mov	 ebp, esp
  00003	83 ec 24	 sub	 esp, 36			; 00000024H
  00006	56		 push	 esi
  00007	b8 cc cc cc cc	 mov	 eax, -858993460		; ccccccccH
  0000c	89 45 dc	 mov	 DWORD PTR [ebp-36], eax
  0000f	89 45 e0	 mov	 DWORD PTR [ebp-32], eax
  00012	89 45 e4	 mov	 DWORD PTR [ebp-28], eax
  00015	89 45 e8	 mov	 DWORD PTR [ebp-24], eax
  00018	89 45 ec	 mov	 DWORD PTR [ebp-20], eax
  0001b	89 45 f0	 mov	 DWORD PTR [ebp-16], eax
  0001e	89 45 f4	 mov	 DWORD PTR [ebp-12], eax
  00021	89 45 f8	 mov	 DWORD PTR [ebp-8], eax
  00024	89 45 fc	 mov	 DWORD PTR [ebp-4], eax

; 262  : 	USES_CONVERSION;

  00027	c7 45 fc 00 00
	00 00		 mov	 DWORD PTR __convert$[ebp], 0
  0002e	e8 00 00 00 00	 call	 ?_AtlGetConversionACP@ATL@@YGIXZ ; ATL::_AtlGetConversionACP
  00033	89 45 f8	 mov	 DWORD PTR __acp$[ebp], eax
  00036	c7 45 f4 00 00
	00 00		 mov	 DWORD PTR __lpw$[ebp], 0
  0003d	c7 45 f0 00 00
	00 00		 mov	 DWORD PTR __lpa$[ebp], 0

; 263  : 	LPSTR pszA;
; 264  : 
; 265  : 	pszA = W2A(psz);

  00044	8b 45 08	 mov	 eax, DWORD PTR _psz$[ebp]
  00047	89 45 f4	 mov	 DWORD PTR __lpw$[ebp], eax
  0004a	83 7d f4 00	 cmp	 DWORD PTR __lpw$[ebp], 0
  0004e	75 09		 jne	 SHORT $L197603
  00050	c7 45 e8 00 00
	00 00		 mov	 DWORD PTR tv78[ebp], 0
  00057	eb 43		 jmp	 SHORT $L197604
$L197603:
  00059	8b f4		 mov	 esi, esp
  0005b	8b 4d f4	 mov	 ecx, DWORD PTR __lpw$[ebp]
  0005e	51		 push	 ecx
  0005f	ff 15 00 00 00
	00		 call	 DWORD PTR __imp__lstrlenW@4
  00065	3b f4		 cmp	 esi, esp
  00067	e8 00 00 00 00	 call	 __RTC_CheckEsp
  0006c	8d 54 00 02	 lea	 edx, DWORD PTR [eax+eax+2]
  00070	89 55 fc	 mov	 DWORD PTR __convert$[ebp], edx
  00073	8b 45 fc	 mov	 eax, DWORD PTR __convert$[ebp]
  00076	83 c0 03	 add	 eax, 3
  00079	83 e0 fc	 and	 eax, -4			; fffffffcH
  0007c	e8 00 00 00 00	 call	 __alloca_probe
  00081	89 65 e4	 mov	 DWORD PTR tv75[ebp], esp
  00084	8b 45 f8	 mov	 eax, DWORD PTR __acp$[ebp]
  00087	50		 push	 eax
  00088	8b 4d fc	 mov	 ecx, DWORD PTR __convert$[ebp]
  0008b	51		 push	 ecx
  0008c	8b 55 f4	 mov	 edx, DWORD PTR __lpw$[ebp]
  0008f	52		 push	 edx
  00090	8b 45 e4	 mov	 eax, DWORD PTR tv75[ebp]
  00093	50		 push	 eax
  00094	e8 00 00 00 00	 call	 ?AtlW2AHelper@@YGPADPADPB_WHI@Z ; AtlW2AHelper
  00099	89 45 e8	 mov	 DWORD PTR tv78[ebp], eax
$L197604:
  0009c	8b 4d e8	 mov	 ecx, DWORD PTR tv78[ebp]
  0009f	89 4d ec	 mov	 DWORD PTR _pszA$[ebp], ecx

; 266  : 	::CharLowerA(pszA);

  000a2	8b f4		 mov	 esi, esp
  000a4	8b 55 ec	 mov	 edx, DWORD PTR _pszA$[ebp]
  000a7	52		 push	 edx
  000a8	ff 15 00 00 00
	00		 call	 DWORD PTR __imp__CharLowerA@4
  000ae	3b f4		 cmp	 esi, esp
  000b0	e8 00 00 00 00	 call	 __RTC_CheckEsp

; 267  : 	wcscpy(psz, A2W(pszA));

  000b5	8b 45 ec	 mov	 eax, DWORD PTR _pszA$[ebp]
  000b8	89 45 f0	 mov	 DWORD PTR __lpa$[ebp], eax
  000bb	83 7d f0 00	 cmp	 DWORD PTR __lpa$[ebp], 0
  000bf	75 09		 jne	 SHORT $L197605
  000c1	c7 45 e0 00 00
	00 00		 mov	 DWORD PTR tv94[ebp], 0
  000c8	eb 44		 jmp	 SHORT $L197606
$L197605:
  000ca	8b f4		 mov	 esi, esp
  000cc	8b 4d f0	 mov	 ecx, DWORD PTR __lpa$[ebp]
  000cf	51		 push	 ecx
  000d0	ff 15 00 00 00
	00		 call	 DWORD PTR __imp__lstrlenA@4
  000d6	3b f4		 cmp	 esi, esp
  000d8	e8 00 00 00 00	 call	 __RTC_CheckEsp
  000dd	83 c0 01	 add	 eax, 1
  000e0	89 45 fc	 mov	 DWORD PTR __convert$[ebp], eax
  000e3	8b 45 fc	 mov	 eax, DWORD PTR __convert$[ebp]
  000e6	d1 e0		 shl	 eax, 1
  000e8	83 c0 03	 add	 eax, 3
  000eb	83 e0 fc	 and	 eax, -4			; fffffffcH
  000ee	e8 00 00 00 00	 call	 __alloca_probe
  000f3	89 65 dc	 mov	 DWORD PTR tv90[ebp], esp
  000f6	8b 55 f8	 mov	 edx, DWORD PTR __acp$[ebp]
  000f9	52		 push	 edx
  000fa	8b 45 fc	 mov	 eax, DWORD PTR __convert$[ebp]
  000fd	50		 push	 eax
  000fe	8b 4d f0	 mov	 ecx, DWORD PTR __lpa$[ebp]
  00101	51		 push	 ecx
  00102	8b 55 dc	 mov	 edx, DWORD PTR tv90[ebp]
  00105	52		 push	 edx
  00106	e8 00 00 00 00	 call	 ?AtlA2WHelper@@YGPA_WPA_WPBDHI@Z ; AtlA2WHelper
  0010b	89 45 e0	 mov	 DWORD PTR tv94[ebp], eax
$L197606:
  0010e	8b f4		 mov	 esi, esp
  00110	8b 45 e0	 mov	 eax, DWORD PTR tv94[ebp]
  00113	50		 push	 eax
  00114	8b 4d 08	 mov	 ecx, DWORD PTR _psz$[ebp]
  00117	51		 push	 ecx
  00118	ff 15 00 00 00
	00		 call	 DWORD PTR __imp__wcscpy
  0011e	83 c4 08	 add	 esp, 8
  00121	3b f4		 cmp	 esi, esp
  00123	e8 00 00 00 00	 call	 __RTC_CheckEsp

; 268  : 
; 269  : 	return psz;

  00128	8b 45 08	 mov	 eax, DWORD PTR _psz$[ebp]

; 270  : }

  0012b	8d 65 d8	 lea	 esp, DWORD PTR [ebp-40]
  0012e	5e		 pop	 esi
  0012f	8b e5		 mov	 esp, ebp
  00131	5d		 pop	 ebp
  00132	c2 04 00	 ret	 4
?CharLowerWFake@ATL@@YGPA_WPA_W@Z ENDP			; ATL::CharLowerWFake
; Function compile flags: /Odt /RTCsu
; File d:\program files (x86)\microsoft visual studio .net 2003\vc7\atlmfc\include\atlconv.h
_TEXT	ENDS
;	COMDAT ?AtlA2WHelper@@YGPA_WPA_WPBDHI@Z
_TEXT	SEGMENT
_ret$ = -4						; size = 4
_lpw$ = 8						; size = 4
_lpa$ = 12						; size = 4
_nChars$ = 16						; size = 4
_acp$ = 20						; size = 4
?AtlA2WHelper@@YGPA_WPA_WPBDHI@Z PROC NEAR		; AtlA2WHelper, COMDAT

; 554  : {

  00000	55		 push	 ebp
  00001	8b ec		 mov	 ebp, esp
  00003	51		 push	 ecx
  00004	56		 push	 esi
  00005	c7 45 fc cc cc
	cc cc		 mov	 DWORD PTR [ebp-4], -858993460 ; ccccccccH

; 555  : 	ATLASSERT(lpa != NULL);

  0000c	83 7d 0c 00	 cmp	 DWORD PTR _lpa$[ebp], 0
  00010	75 2b		 jne	 SHORT $L197608
  00012	8b f4		 mov	 esi, esp
  00014	68 00 00 00 00	 push	 OFFSET FLAT:??_C@_08DMHHBMMN@lpa?5?$CB?$DN?50?$AA@
  00019	6a 00		 push	 0
  0001b	68 2b 02 00 00	 push	 555			; 0000022bH
  00020	68 00 00 00 00	 push	 OFFSET FLAT:??_C@_0FG@PFHCBDBK@D?3?2Program?5Files?5?$CIx86?$CJ?2Microsoft@
  00025	6a 02		 push	 2
  00027	ff 15 00 00 00
	00		 call	 DWORD PTR __imp___CrtDbgReport
  0002d	83 c4 14	 add	 esp, 20			; 00000014H
  00030	3b f4		 cmp	 esi, esp
  00032	e8 00 00 00 00	 call	 __RTC_CheckEsp
  00037	83 f8 01	 cmp	 eax, 1
  0003a	75 01		 jne	 SHORT $L197608
  0003c	cc		 int	 3
$L197608:

; 556  : 	ATLASSERT(lpw != NULL);

  0003d	83 7d 08 00	 cmp	 DWORD PTR _lpw$[ebp], 0
  00041	75 2b		 jne	 SHORT $L197609
  00043	8b f4		 mov	 esi, esp
  00045	68 00 00 00 00	 push	 OFFSET FLAT:??_C@_08DIHJLFDJ@lpw?5?$CB?$DN?50?$AA@
  0004a	6a 00		 push	 0
  0004c	68 2c 02 00 00	 push	 556			; 0000022cH
  00051	68 00 00 00 00	 push	 OFFSET FLAT:??_C@_0FG@PFHCBDBK@D?3?2Program?5Files?5?$CIx86?$CJ?2Microsoft@
  00056	6a 02		 push	 2
  00058	ff 15 00 00 00
	00		 call	 DWORD PTR __imp___CrtDbgReport
  0005e	83 c4 14	 add	 esp, 20			; 00000014H
  00061	3b f4		 cmp	 esi, esp
  00063	e8 00 00 00 00	 call	 __RTC_CheckEsp
  00068	83 f8 01	 cmp	 eax, 1
  0006b	75 01		 jne	 SHORT $L197609
  0006d	cc		 int	 3
$L197609:

; 557  : 	if (lpw == NULL || lpa == NULL)

  0006e	83 7d 08 00	 cmp	 DWORD PTR _lpw$[ebp], 0
  00072	74 06		 je	 SHORT $L24299
  00074	83 7d 0c 00	 cmp	 DWORD PTR _lpa$[ebp], 0
  00078	75 04		 jne	 SHORT $L24298
$L24299:

; 558  : 		return NULL;

  0007a	33 c0		 xor	 eax, eax
  0007c	eb 6a		 jmp	 SHORT $L24292
$L24298:

; 559  : 	// verify that no illegal character present
; 560  : 	// since lpw was allocated based on the size of lpa
; 561  : 	// don't worry about the number of chars
; 562  : 	lpw[0] = '\0';

  0007e	8b 55 08	 mov	 edx, DWORD PTR _lpw$[ebp]
  00081	66 c7 02 00 00	 mov	 WORD PTR [edx], 0

; 563  : 	int ret = MultiByteToWideChar(acp, 0, lpa, -1, lpw, nChars);

  00086	8b f4		 mov	 esi, esp
  00088	8b 45 10	 mov	 eax, DWORD PTR _nChars$[ebp]
  0008b	50		 push	 eax
  0008c	8b 4d 08	 mov	 ecx, DWORD PTR _lpw$[ebp]
  0008f	51		 push	 ecx
  00090	6a ff		 push	 -1
  00092	8b 55 0c	 mov	 edx, DWORD PTR _lpa$[ebp]
  00095	52		 push	 edx
  00096	6a 00		 push	 0
  00098	8b 45 14	 mov	 eax, DWORD PTR _acp$[ebp]
  0009b	50		 push	 eax
  0009c	ff 15 00 00 00
	00		 call	 DWORD PTR __imp__MultiByteToWideChar@24
  000a2	3b f4		 cmp	 esi, esp
  000a4	e8 00 00 00 00	 call	 __RTC_CheckEsp
  000a9	89 45 fc	 mov	 DWORD PTR _ret$[ebp], eax

; 564  : 	if(ret == 0)

  000ac	83 7d fc 00	 cmp	 DWORD PTR _ret$[ebp], 0
  000b0	75 33		 jne	 SHORT $L24301

; 565  : 	{
; 566  : 		ATLASSERT(FALSE);

  000b2	33 c9		 xor	 ecx, ecx
  000b4	75 2b		 jne	 SHORT $L197610
  000b6	8b f4		 mov	 esi, esp
  000b8	68 00 00 00 00	 push	 OFFSET FLAT:??_C@_01GBGANLPD@0?$AA@
  000bd	6a 00		 push	 0
  000bf	68 36 02 00 00	 push	 566			; 00000236H
  000c4	68 00 00 00 00	 push	 OFFSET FLAT:??_C@_0FG@PFHCBDBK@D?3?2Program?5Files?5?$CIx86?$CJ?2Microsoft@
  000c9	6a 02		 push	 2
  000cb	ff 15 00 00 00
	00		 call	 DWORD PTR __imp___CrtDbgReport
  000d1	83 c4 14	 add	 esp, 20			; 00000014H
  000d4	3b f4		 cmp	 esi, esp
  000d6	e8 00 00 00 00	 call	 __RTC_CheckEsp
  000db	83 f8 01	 cmp	 eax, 1
  000de	75 01		 jne	 SHORT $L197610
  000e0	cc		 int	 3
$L197610:

; 567  : 		return NULL;

  000e1	33 c0		 xor	 eax, eax
  000e3	eb 03		 jmp	 SHORT $L24292
$L24301:

; 568  : 	}		
; 569  : 	return lpw;

  000e5	8b 45 08	 mov	 eax, DWORD PTR _lpw$[ebp]
$L24292:

; 570  : }

  000e8	5e		 pop	 esi
  000e9	83 c4 04	 add	 esp, 4
  000ec	3b ec		 cmp	 ebp, esp
  000ee	e8 00 00 00 00	 call	 __RTC_CheckEsp
  000f3	8b e5		 mov	 esp, ebp
  000f5	5d		 pop	 ebp
  000f6	c2 10 00	 ret	 16			; 00000010H
?AtlA2WHelper@@YGPA_WPA_WPBDHI@Z ENDP			; AtlA2WHelper
_TEXT	ENDS
EXTRN	?GetHomePath@CLhcImg@@SA_NQADH@Z:NEAR		; CLhcImg::GetHomePath
EXTRN	?OnCreate@CFormView@@IAEHPAUtagCREATESTRUCTA@@@Z:NEAR ; CFormView::OnCreate
EXTRN	??0CRect@@QAE@HHHH@Z:NEAR			; CRect::CRect
EXTRN	__imp_??4?$basic_string@DU?$char_traits@D@std@@V?$allocator@D@2@@std@@QAEAAV01@PBD@Z:NEAR
EXTRN	__imp_??Y?$basic_string@DU?$char_traits@D@std@@V?$allocator@D@2@@std@@QAEAAV01@PBD@Z:NEAR
; Function compile flags: /Odt /RTCsu
; File d:\boxgit\playbox\playbox\dev\prj\playbox\src\module\webinteract\mywebbrowserwnd.cpp
_TEXT	SEGMENT
$T197613 = -292						; size = 16
_szBuffer$ = -272					; size = 260
_this$ = -8						; size = 4
__$ArrayPad$ = -4					; size = 4
__$ReturnAddr$ = 4					; size = 4
_lpCreateStruct$ = 8					; size = 4
?OnCreate@MyWebBrowserWnd@@IAEHPAUtagCREATESTRUCTA@@@Z PROC NEAR ; MyWebBrowserWnd::OnCreate
; _this$ = ecx

; 105  : {

  005e0	55		 push	 ebp
  005e1	8b ec		 mov	 ebp, esp
  005e3	81 ec 24 01 00
	00		 sub	 esp, 292		; 00000124H
  005e9	56		 push	 esi
  005ea	57		 push	 edi
  005eb	51		 push	 ecx
  005ec	8d bd dc fe ff
	ff		 lea	 edi, DWORD PTR [ebp-292]
  005f2	b9 49 00 00 00	 mov	 ecx, 73			; 00000049H
  005f7	b8 cc cc cc cc	 mov	 eax, -858993460		; ccccccccH
  005fc	f3 ab		 rep stosd
  005fe	59		 pop	 ecx
  005ff	a1 00 00 00 00	 mov	 eax, DWORD PTR ___security_cookie
  00604	89 45 fc	 mov	 DWORD PTR __$ArrayPad$[ebp], eax
  00607	89 4d f8	 mov	 DWORD PTR _this$[ebp], ecx

; 106  : 	if( __super::OnCreate( lpCreateStruct) == -1 )

  0060a	8b 45 08	 mov	 eax, DWORD PTR _lpCreateStruct$[ebp]
  0060d	50		 push	 eax
  0060e	8b 4d f8	 mov	 ecx, DWORD PTR _this$[ebp]
  00611	e8 00 00 00 00	 call	 ?OnCreate@CFormView@@IAEHPAUtagCREATESTRUCTA@@@Z ; CFormView::OnCreate
  00616	83 f8 ff	 cmp	 eax, -1
  00619	75 08		 jne	 SHORT $L195976

; 107  : 	{
; 108  : 		return -1;

  0061b	83 c8 ff	 or	 eax, -1
  0061e	e9 b1 00 00 00	 jmp	 $L195975
$L195976:

; 109  : 	}
; 110  : 
; 111  : 	if (m_bShowLoading)

  00623	8b 4d f8	 mov	 ecx, DWORD PTR _this$[ebp]
  00626	83 b9 c0 01 00
	00 00		 cmp	 DWORD PTR [ecx+448], 0
  0062d	74 53		 je	 SHORT $L195977

; 112  : 	{
; 113  : 		m_flash.Create(NULL,NULL, WS_CHILD, CRect(0,0,0,0), this, ID_GAME_RIGHT_LOADING_FLASH);

  0062f	8b f4		 mov	 esi, esp
  00631	6a 00		 push	 0
  00633	6a 79		 push	 121			; 00000079H
  00635	8b 55 f8	 mov	 edx, DWORD PTR _this$[ebp]
  00638	52		 push	 edx
  00639	6a 00		 push	 0
  0063b	6a 00		 push	 0
  0063d	6a 00		 push	 0
  0063f	6a 00		 push	 0
  00641	8d 8d dc fe ff
	ff		 lea	 ecx, DWORD PTR $T197613[ebp]
  00647	e8 00 00 00 00	 call	 ??0CRect@@QAE@HHHH@Z	; CRect::CRect
  0064c	50		 push	 eax
  0064d	68 00 00 00 40	 push	 1073741824		; 40000000H
  00652	6a 00		 push	 0
  00654	6a 00		 push	 0
  00656	8b 4d f8	 mov	 ecx, DWORD PTR _this$[ebp]
  00659	81 c1 04 01 00
	00		 add	 ecx, 260		; 00000104H
  0065f	8b 45 f8	 mov	 eax, DWORD PTR _this$[ebp]
  00662	8b 90 04 01 00
	00		 mov	 edx, DWORD PTR [eax+260]
  00668	ff 52 5c	 call	 DWORD PTR [edx+92]
  0066b	3b f4		 cmp	 esi, esp
  0066d	e8 00 00 00 00	 call	 __RTC_CheckEsp

; 114  : 		m_flash.ShowWindow(SW_SHOW);

  00672	6a 05		 push	 5
  00674	8b 4d f8	 mov	 ecx, DWORD PTR _this$[ebp]
  00677	81 c1 04 01 00
	00		 add	 ecx, 260		; 00000104H
  0067d	e8 00 00 00 00	 call	 ?ShowWindow@CWnd@@QAEHH@Z ; CWnd::ShowWindow
$L195977:

; 115  : 	}
; 116  : 
; 117  : 	char szBuffer[MAX_PATH];
; 118  : 	CLhcImg::GetHomePath(szBuffer,MAX_PATH);

  00682	68 04 01 00 00	 push	 260			; 00000104H
  00687	8d 85 f0 fe ff
	ff		 lea	 eax, DWORD PTR _szBuffer$[ebp]
  0068d	50		 push	 eax
  0068e	e8 00 00 00 00	 call	 ?GetHomePath@CLhcImg@@SA_NQADH@Z ; CLhcImg::GetHomePath
  00693	83 c4 08	 add	 esp, 8

; 119  : 	m_strErrorPagePath = szBuffer;

  00696	8b f4		 mov	 esi, esp
  00698	8d 8d f0 fe ff
	ff		 lea	 ecx, DWORD PTR _szBuffer$[ebp]
  0069e	51		 push	 ecx
  0069f	8b 4d f8	 mov	 ecx, DWORD PTR _this$[ebp]
  006a2	81 c1 cc 01 00
	00		 add	 ecx, 460		; 000001ccH
  006a8	ff 15 00 00 00
	00		 call	 DWORD PTR __imp_??4?$basic_string@DU?$char_traits@D@std@@V?$allocator@D@2@@std@@QAEAAV01@PBD@Z
  006ae	3b f4		 cmp	 esi, esp
  006b0	e8 00 00 00 00	 call	 __RTC_CheckEsp

; 120  : 	m_strErrorPagePath += "\\Resources\\StandardUI\\error404.htm?r=";

  006b5	8b f4		 mov	 esi, esp
  006b7	68 00 00 00 00	 push	 OFFSET FLAT:$SG195980
  006bc	8b 4d f8	 mov	 ecx, DWORD PTR _this$[ebp]
  006bf	81 c1 cc 01 00
	00		 add	 ecx, 460		; 000001ccH
  006c5	ff 15 00 00 00
	00		 call	 DWORD PTR __imp_??Y?$basic_string@DU?$char_traits@D@std@@V?$allocator@D@2@@std@@QAEAAV01@PBD@Z
  006cb	3b f4		 cmp	 esi, esp
  006cd	e8 00 00 00 00	 call	 __RTC_CheckEsp

; 121  : 	return 0;

  006d2	33 c0		 xor	 eax, eax
$L195975:

; 122  : }

  006d4	52		 push	 edx
  006d5	8b cd		 mov	 ecx, ebp
  006d7	50		 push	 eax
  006d8	8d 15 00 00 00
	00		 lea	 edx, DWORD PTR $L197617
  006de	e8 00 00 00 00	 call	 @_RTC_CheckStackVars@8
  006e3	58		 pop	 eax
  006e4	5a		 pop	 edx
  006e5	8b 4d fc	 mov	 ecx, DWORD PTR __$ArrayPad$[ebp]
  006e8	e8 00 00 00 00	 call	 @__security_check_cookie@4
  006ed	5f		 pop	 edi
  006ee	5e		 pop	 esi
  006ef	81 c4 24 01 00
	00		 add	 esp, 292		; 00000124H
  006f5	3b ec		 cmp	 ebp, esp
  006f7	e8 00 00 00 00	 call	 __RTC_CheckEsp
  006fc	8b e5		 mov	 esp, ebp
  006fe	5d		 pop	 ebp
  006ff	c2 04 00	 ret	 4
$L197617:
  00702	01 00 00 00	 DD	 1
  00706	00 00 00 00	 DD	 $L197616
$L197616:
  0070a	f0 fe ff ff	 DD	 -272			; fffffef0H
  0070e	04 01 00 00	 DD	 260			; 00000104H
  00712	00 00 00 00	 DD	 $L197614
$L197614:
  00716	73		 DB	 115			; 00000073H
  00717	7a		 DB	 122			; 0000007aH
  00718	42		 DB	 66			; 00000042H
  00719	75		 DB	 117			; 00000075H
  0071a	66		 DB	 102			; 00000066H
  0071b	66		 DB	 102			; 00000066H
  0071c	65		 DB	 101			; 00000065H
  0071d	72		 DB	 114			; 00000072H
  0071e	00		 DB	 0
?OnCreate@MyWebBrowserWnd@@IAEHPAUtagCREATESTRUCTA@@@Z ENDP ; MyWebBrowserWnd::OnCreate
_TEXT	ENDS
EXTRN	?FillSolidRect@CDC@@QAEXPBUtagRECT@@K@Z:NEAR	; CDC::FillSolidRect
EXTRN	??0CRect@@QAE@XZ:NEAR				; CRect::CRect
; Function compile flags: /Odt /RTCsu
_TEXT	SEGMENT
_rcClient$ = -28					; size = 16
_clBak$ = -8						; size = 4
_this$ = -4						; size = 4
_pDC$ = 8						; size = 4
?OnEraseBkgnd@MyWebBrowserWnd@@QAEHPAVCDC@@@Z PROC NEAR	; MyWebBrowserWnd::OnEraseBkgnd
; _this$ = ecx

; 125  : {

  00720	55		 push	 ebp
  00721	8b ec		 mov	 ebp, esp
  00723	83 ec 20	 sub	 esp, 32			; 00000020H
  00726	b8 cc cc cc cc	 mov	 eax, -858993460		; ccccccccH
  0072b	89 45 e0	 mov	 DWORD PTR [ebp-32], eax
  0072e	89 45 e4	 mov	 DWORD PTR [ebp-28], eax
  00731	89 45 e8	 mov	 DWORD PTR [ebp-24], eax
  00734	89 45 ec	 mov	 DWORD PTR [ebp-20], eax
  00737	89 45 f0	 mov	 DWORD PTR [ebp-16], eax
  0073a	89 45 f4	 mov	 DWORD PTR [ebp-12], eax
  0073d	89 45 f8	 mov	 DWORD PTR [ebp-8], eax
  00740	89 45 fc	 mov	 DWORD PTR [ebp-4], eax
  00743	89 4d fc	 mov	 DWORD PTR _this$[ebp], ecx

; 126  : // 	COLORREF clBak = RGB (41, 41, 41);
; 127  : 	COLORREF clBak = RGB (39, 39, 39);

  00746	c7 45 f8 27 27
	27 00		 mov	 DWORD PTR _clBak$[ebp], 2565927 ; 00272727H

; 128  : 	CRect rcClient;

  0074d	8d 4d e4	 lea	 ecx, DWORD PTR _rcClient$[ebp]
  00750	e8 00 00 00 00	 call	 ??0CRect@@QAE@XZ	; CRect::CRect

; 129  : 	GetClientRect (&rcClient);

  00755	8d 45 e4	 lea	 eax, DWORD PTR _rcClient$[ebp]
  00758	50		 push	 eax
  00759	8b 4d fc	 mov	 ecx, DWORD PTR _this$[ebp]
  0075c	e8 00 00 00 00	 call	 ?GetClientRect@CWnd@@QBEXPAUtagRECT@@@Z ; CWnd::GetClientRect

; 130  : 
; 131  : 	pDC->FillSolidRect (&rcClient, clBak);

  00761	8b 4d f8	 mov	 ecx, DWORD PTR _clBak$[ebp]
  00764	51		 push	 ecx
  00765	8d 55 e4	 lea	 edx, DWORD PTR _rcClient$[ebp]
  00768	52		 push	 edx
  00769	8b 4d 08	 mov	 ecx, DWORD PTR _pDC$[ebp]
  0076c	e8 00 00 00 00	 call	 ?FillSolidRect@CDC@@QAEXPBUtagRECT@@K@Z ; CDC::FillSolidRect

; 132  : 	
; 133  : 	return TRUE;

  00771	b8 01 00 00 00	 mov	 eax, 1

; 134  : }

  00776	52		 push	 edx
  00777	8b cd		 mov	 ecx, ebp
  00779	50		 push	 eax
  0077a	8d 15 00 00 00
	00		 lea	 edx, DWORD PTR $L197621
  00780	e8 00 00 00 00	 call	 @_RTC_CheckStackVars@8
  00785	58		 pop	 eax
  00786	5a		 pop	 edx
  00787	83 c4 20	 add	 esp, 32			; 00000020H
  0078a	3b ec		 cmp	 ebp, esp
  0078c	e8 00 00 00 00	 call	 __RTC_CheckEsp
  00791	8b e5		 mov	 esp, ebp
  00793	5d		 pop	 ebp
  00794	c2 04 00	 ret	 4
$L197621:
  00797	01 00 00 00	 DD	 1
  0079b	00 00 00 00	 DD	 $L197620
$L197620:
  0079f	e4 ff ff ff	 DD	 -28			; ffffffe4H
  007a3	10 00 00 00	 DD	 16			; 00000010H
  007a7	00 00 00 00	 DD	 $L197619
$L197619:
  007ab	72		 DB	 114			; 00000072H
  007ac	63		 DB	 99			; 00000063H
  007ad	43		 DB	 67			; 00000043H
  007ae	6c		 DB	 108			; 0000006cH
  007af	69		 DB	 105			; 00000069H
  007b0	65		 DB	 101			; 00000065H
  007b1	6e		 DB	 110			; 0000006eH
  007b2	74		 DB	 116			; 00000074H
  007b3	00		 DB	 0
?OnEraseBkgnd@MyWebBrowserWnd@@QAEHPAVCDC@@@Z ENDP	; MyWebBrowserWnd::OnEraseBkgnd
_TEXT	ENDS
PUBLIC	?CharUpperWFake@ATL@@YGPA_WPA_W@Z		; ATL::CharUpperWFake
EXTRN	__imp__CharUpperW@4:NEAR
; Function compile flags: /Odt /RTCsu
; File d:\program files (x86)\microsoft visual studio .net 2003\vc7\atlmfc\include\cstringt.h
;	COMDAT ?CharUpperWThunk@ATL@@YGPA_WPA_W@Z
_TEXT	SEGMENT
_psz$ = 8						; size = 4
?CharUpperWThunk@ATL@@YGPA_WPA_W@Z PROC NEAR		; ATL::CharUpperWThunk, COMDAT

; 292  : {

  00000	55		 push	 ebp
  00001	8b ec		 mov	 ebp, esp
  00003	56		 push	 esi

; 293  : 	_AtlInstallStringThunk(reinterpret_cast<void**>(&_strthunks.pfnCharUpperW), CharUpperWFake, ::CharUpperW);

  00004	a1 00 00 00 00	 mov	 eax, DWORD PTR __imp__CharUpperW@4
  00009	50		 push	 eax
  0000a	68 00 00 00 00	 push	 OFFSET FLAT:?CharUpperWFake@ATL@@YGPA_WPA_W@Z ; ATL::CharUpperWFake
  0000f	68 10 00 00 00	 push	 OFFSET FLAT:?_strthunks@ATL@@3U_AtlStringThunks@1@A+16
  00014	e8 00 00 00 00	 call	 ?_AtlInstallStringThunk@ATL@@YAXPAPAXPAX1@Z ; ATL::_AtlInstallStringThunk
  00019	83 c4 0c	 add	 esp, 12			; 0000000cH

; 294  : 
; 295  : 	return _strthunks.pfnCharUpperW(psz);

  0001c	8b f4		 mov	 esi, esp
  0001e	8b 4d 08	 mov	 ecx, DWORD PTR _psz$[ebp]
  00021	51		 push	 ecx
  00022	ff 15 10 00 00
	00		 call	 DWORD PTR ?_strthunks@ATL@@3U_AtlStringThunks@1@A+16
  00028	3b f4		 cmp	 esi, esp
  0002a	e8 00 00 00 00	 call	 __RTC_CheckEsp

; 296  : }

  0002f	5e		 pop	 esi
  00030	3b ec		 cmp	 ebp, esp
  00032	e8 00 00 00 00	 call	 __RTC_CheckEsp
  00037	5d		 pop	 ebp
  00038	c2 04 00	 ret	 4
?CharUpperWThunk@ATL@@YGPA_WPA_W@Z ENDP			; ATL::CharUpperWThunk
_TEXT	ENDS
EXTRN	__imp__CharUpperA@4:NEAR
; Function compile flags: /Odt /RTCsu
;	COMDAT ?CharUpperWFake@ATL@@YGPA_WPA_W@Z
_TEXT	SEGMENT
tv90 = -36						; size = 4
tv94 = -32						; size = 4
tv75 = -28						; size = 4
tv78 = -24						; size = 4
_pszA$ = -20						; size = 4
__lpa$ = -16						; size = 4
__lpw$ = -12						; size = 4
__acp$ = -8						; size = 4
__convert$ = -4						; size = 4
_psz$ = 8						; size = 4
?CharUpperWFake@ATL@@YGPA_WPA_W@Z PROC NEAR		; ATL::CharUpperWFake, COMDAT

; 280  : {

  00000	55		 push	 ebp
  00001	8b ec		 mov	 ebp, esp
  00003	83 ec 24	 sub	 esp, 36			; 00000024H
  00006	56		 push	 esi
  00007	b8 cc cc cc cc	 mov	 eax, -858993460		; ccccccccH
  0000c	89 45 dc	 mov	 DWORD PTR [ebp-36], eax
  0000f	89 45 e0	 mov	 DWORD PTR [ebp-32], eax
  00012	89 45 e4	 mov	 DWORD PTR [ebp-28], eax
  00015	89 45 e8	 mov	 DWORD PTR [ebp-24], eax
  00018	89 45 ec	 mov	 DWORD PTR [ebp-20], eax
  0001b	89 45 f0	 mov	 DWORD PTR [ebp-16], eax
  0001e	89 45 f4	 mov	 DWORD PTR [ebp-12], eax
  00021	89 45 f8	 mov	 DWORD PTR [ebp-8], eax
  00024	89 45 fc	 mov	 DWORD PTR [ebp-4], eax

; 281  : 	USES_CONVERSION;

  00027	c7 45 fc 00 00
	00 00		 mov	 DWORD PTR __convert$[ebp], 0
  0002e	e8 00 00 00 00	 call	 ?_AtlGetConversionACP@ATL@@YGIXZ ; ATL::_AtlGetConversionACP
  00033	89 45 f8	 mov	 DWORD PTR __acp$[ebp], eax
  00036	c7 45 f4 00 00
	00 00		 mov	 DWORD PTR __lpw$[ebp], 0
  0003d	c7 45 f0 00 00
	00 00		 mov	 DWORD PTR __lpa$[ebp], 0

; 282  : 	LPSTR pszA;
; 283  : 
; 284  : 	pszA = W2A(psz);

  00044	8b 45 08	 mov	 eax, DWORD PTR _psz$[ebp]
  00047	89 45 f4	 mov	 DWORD PTR __lpw$[ebp], eax
  0004a	83 7d f4 00	 cmp	 DWORD PTR __lpw$[ebp], 0
  0004e	75 09		 jne	 SHORT $L197624
  00050	c7 45 e8 00 00
	00 00		 mov	 DWORD PTR tv78[ebp], 0
  00057	eb 43		 jmp	 SHORT $L197625
$L197624:
  00059	8b f4		 mov	 esi, esp
  0005b	8b 4d f4	 mov	 ecx, DWORD PTR __lpw$[ebp]
  0005e	51		 push	 ecx
  0005f	ff 15 00 00 00
	00		 call	 DWORD PTR __imp__lstrlenW@4
  00065	3b f4		 cmp	 esi, esp
  00067	e8 00 00 00 00	 call	 __RTC_CheckEsp
  0006c	8d 54 00 02	 lea	 edx, DWORD PTR [eax+eax+2]
  00070	89 55 fc	 mov	 DWORD PTR __convert$[ebp], edx
  00073	8b 45 fc	 mov	 eax, DWORD PTR __convert$[ebp]
  00076	83 c0 03	 add	 eax, 3
  00079	83 e0 fc	 and	 eax, -4			; fffffffcH
  0007c	e8 00 00 00 00	 call	 __alloca_probe
  00081	89 65 e4	 mov	 DWORD PTR tv75[ebp], esp
  00084	8b 45 f8	 mov	 eax, DWORD PTR __acp$[ebp]
  00087	50		 push	 eax
  00088	8b 4d fc	 mov	 ecx, DWORD PTR __convert$[ebp]
  0008b	51		 push	 ecx
  0008c	8b 55 f4	 mov	 edx, DWORD PTR __lpw$[ebp]
  0008f	52		 push	 edx
  00090	8b 45 e4	 mov	 eax, DWORD PTR tv75[ebp]
  00093	50		 push	 eax
  00094	e8 00 00 00 00	 call	 ?AtlW2AHelper@@YGPADPADPB_WHI@Z ; AtlW2AHelper
  00099	89 45 e8	 mov	 DWORD PTR tv78[ebp], eax
$L197625:
  0009c	8b 4d e8	 mov	 ecx, DWORD PTR tv78[ebp]
  0009f	89 4d ec	 mov	 DWORD PTR _pszA$[ebp], ecx

; 285  : 	::CharUpperA(pszA);

  000a2	8b f4		 mov	 esi, esp
  000a4	8b 55 ec	 mov	 edx, DWORD PTR _pszA$[ebp]
  000a7	52		 push	 edx
  000a8	ff 15 00 00 00
	00		 call	 DWORD PTR __imp__CharUpperA@4
  000ae	3b f4		 cmp	 esi, esp
  000b0	e8 00 00 00 00	 call	 __RTC_CheckEsp

; 286  : 	wcscpy(psz, A2W(pszA));

  000b5	8b 45 ec	 mov	 eax, DWORD PTR _pszA$[ebp]
  000b8	89 45 f0	 mov	 DWORD PTR __lpa$[ebp], eax
  000bb	83 7d f0 00	 cmp	 DWORD PTR __lpa$[ebp], 0
  000bf	75 09		 jne	 SHORT $L197626
  000c1	c7 45 e0 00 00
	00 00		 mov	 DWORD PTR tv94[ebp], 0
  000c8	eb 44		 jmp	 SHORT $L197627
$L197626:
  000ca	8b f4		 mov	 esi, esp
  000cc	8b 4d f0	 mov	 ecx, DWORD PTR __lpa$[ebp]
  000cf	51		 push	 ecx
  000d0	ff 15 00 00 00
	00		 call	 DWORD PTR __imp__lstrlenA@4
  000d6	3b f4		 cmp	 esi, esp
  000d8	e8 00 00 00 00	 call	 __RTC_CheckEsp
  000dd	83 c0 01	 add	 eax, 1
  000e0	89 45 fc	 mov	 DWORD PTR __convert$[ebp], eax
  000e3	8b 45 fc	 mov	 eax, DWORD PTR __convert$[ebp]
  000e6	d1 e0		 shl	 eax, 1
  000e8	83 c0 03	 add	 eax, 3
  000eb	83 e0 fc	 and	 eax, -4			; fffffffcH
  000ee	e8 00 00 00 00	 call	 __alloca_probe
  000f3	89 65 dc	 mov	 DWORD PTR tv90[ebp], esp
  000f6	8b 55 f8	 mov	 edx, DWORD PTR __acp$[ebp]
  000f9	52		 push	 edx
  000fa	8b 45 fc	 mov	 eax, DWORD PTR __convert$[ebp]
  000fd	50		 push	 eax
  000fe	8b 4d f0	 mov	 ecx, DWORD PTR __lpa$[ebp]
  00101	51		 push	 ecx
  00102	8b 55 dc	 mov	 edx, DWORD PTR tv90[ebp]
  00105	52		 push	 edx
  00106	e8 00 00 00 00	 call	 ?AtlA2WHelper@@YGPA_WPA_WPBDHI@Z ; AtlA2WHelper
  0010b	89 45 e0	 mov	 DWORD PTR tv94[ebp], eax
$L197627:
  0010e	8b f4		 mov	 esi, esp
  00110	8b 45 e0	 mov	 eax, DWORD PTR tv94[ebp]
  00113	50		 push	 eax
  00114	8b 4d 08	 mov	 ecx, DWORD PTR _psz$[ebp]
  00117	51		 push	 ecx
  00118	ff 15 00 00 00
	00		 call	 DWORD PTR __imp__wcscpy
  0011e	83 c4 08	 add	 esp, 8
  00121	3b f4		 cmp	 esi, esp
  00123	e8 00 00 00 00	 call	 __RTC_CheckEsp

; 287  : 
; 288  : 	return psz;

  00128	8b 45 08	 mov	 eax, DWORD PTR _psz$[ebp]

; 289  : }

  0012b	8d 65 d8	 lea	 esp, DWORD PTR [ebp-40]
  0012e	5e		 pop	 esi
  0012f	8b e5		 mov	 esp, ebp
  00131	5d		 pop	 ebp
  00132	c2 04 00	 ret	 4
?CharUpperWFake@ATL@@YGPA_WPA_W@Z ENDP			; ATL::CharUpperWFake
_TEXT	ENDS
PUBLIC	?Navigate@MyWebBrowserWnd@@QAEXV?$basic_string@DU?$char_traits@D@std@@V?$allocator@D@2@@std@@@Z ; MyWebBrowserWnd::Navigate
EXTRN	?Navigate2@CHtmlView@@QAEXPBDK00PAXK@Z:NEAR	; CHtmlView::Navigate2
EXTRN	__imp_??0?$basic_string@DU?$char_traits@D@std@@V?$allocator@D@2@@std@@QAE@PBD@Z:NEAR
EXTRN	__imp_?YL_Log@@YAXABV?$basic_string@DU?$char_traits@D@std@@V?$allocator@D@2@@std@@H0PBDZZ:NEAR
EXTRN	__imp_?c_str@?$basic_string@DU?$char_traits@D@std@@V?$allocator@D@2@@std@@QBEPBDXZ:NEAR
EXTRN	?SetTimer@CWnd@@QAEIIIP6GXPAUHWND__@@IIK@Z@Z:NEAR ; CWnd::SetTimer
EXTRN	__imp_??4?$CStringT@DV?$StrTraitMFC_DLL@DV?$ChTraitsCRT@D@ATL@@@@@ATL@@QAEAAV01@ABV01@@Z:NEAR
EXTRN	__imp__GetTickCount@0:NEAR
xdata$x	SEGMENT
$T197639 DD	0ffffffffH
	DD	FLAT:$L197632
	DD	00H
	DD	FLAT:$L197633
	DD	00H
	DD	FLAT:$L197634
	DD	02H
	DD	FLAT:$L197635
$T197637 DD	019930520H
	DD	04H
	DD	FLAT:$T197639
	DD	2 DUP(00H)
	DD	2 DUP(00H)
; Function compile flags: /Odt /RTCsu
; File d:\boxgit\playbox\playbox\dev\prj\playbox\src\module\webinteract\mywebbrowserwnd.cpp
xdata$x	ENDS
_TEXT	SEGMENT
tv141 = -84						; size = 4
tv147 = -80						; size = 4
$T197631 = -76						; size = 28
$T197630 = -48						; size = 28
$T197629 = -20						; size = 4
_this$ = -16						; size = 4
__$EHRec$ = -12						; size = 12
_strUrl$ = 8						; size = 28
?Navigate@MyWebBrowserWnd@@QAEXV?$basic_string@DU?$char_traits@D@std@@V?$allocator@D@2@@std@@@Z PROC NEAR ; MyWebBrowserWnd::Navigate
; _this$ = ecx

; 137  : {	

  007c0	55		 push	 ebp
  007c1	8b ec		 mov	 ebp, esp
  007c3	6a ff		 push	 -1
  007c5	68 00 00 00 00	 push	 __ehhandler$?Navigate@MyWebBrowserWnd@@QAEXV?$basic_string@DU?$char_traits@D@std@@V?$allocator@D@2@@std@@@Z
  007ca	64 a1 00 00 00
	00		 mov	 eax, DWORD PTR fs:__except_list
  007d0	50		 push	 eax
  007d1	64 89 25 00 00
	00 00		 mov	 DWORD PTR fs:__except_list, esp
  007d8	83 ec 48	 sub	 esp, 72			; 00000048H
  007db	56		 push	 esi
  007dc	57		 push	 edi
  007dd	51		 push	 ecx
  007de	8d 7d ac	 lea	 edi, DWORD PTR [ebp-84]
  007e1	b9 12 00 00 00	 mov	 ecx, 18			; 00000012H
  007e6	b8 cc cc cc cc	 mov	 eax, -858993460		; ccccccccH
  007eb	f3 ab		 rep stosd
  007ed	59		 pop	 ecx
  007ee	89 4d f0	 mov	 DWORD PTR _this$[ebp], ecx
  007f1	c7 45 fc 00 00
	00 00		 mov	 DWORD PTR __$EHRec$[ebp+8], 0

; 138  : 	Init();

  007f8	8b 4d f0	 mov	 ecx, DWORD PTR _this$[ebp]
  007fb	e8 00 00 00 00	 call	 ?Init@MyWebBrowserWnd@@QAEXXZ ; MyWebBrowserWnd::Init

; 139  : 	//RegisterLHProtocol();
; 140  : 	m_strURL = CString( strUrl.c_str() );

  00800	8b f4		 mov	 esi, esp
  00802	8d 4d 08	 lea	 ecx, DWORD PTR _strUrl$[ebp]
  00805	ff 15 00 00 00
	00		 call	 DWORD PTR __imp_?c_str@?$basic_string@DU?$char_traits@D@std@@V?$allocator@D@2@@std@@QBEPBDXZ
  0080b	3b f4		 cmp	 esi, esp
  0080d	e8 00 00 00 00	 call	 __RTC_CheckEsp
  00812	8b f4		 mov	 esi, esp
  00814	50		 push	 eax
  00815	8d 4d ec	 lea	 ecx, DWORD PTR $T197629[ebp]
  00818	ff 15 00 00 00
	00		 call	 DWORD PTR __imp_??0?$CStringT@DV?$StrTraitMFC_DLL@DV?$ChTraitsCRT@D@ATL@@@@@ATL@@QAE@PBD@Z
  0081e	3b f4		 cmp	 esi, esp
  00820	e8 00 00 00 00	 call	 __RTC_CheckEsp
  00825	89 45 b0	 mov	 DWORD PTR tv147[ebp], eax
  00828	8b 45 b0	 mov	 eax, DWORD PTR tv147[ebp]
  0082b	89 45 ac	 mov	 DWORD PTR tv141[ebp], eax
  0082e	c6 45 fc 01	 mov	 BYTE PTR __$EHRec$[ebp+8], 1
  00832	8b f4		 mov	 esi, esp
  00834	8b 4d ac	 mov	 ecx, DWORD PTR tv141[ebp]
  00837	51		 push	 ecx
  00838	8b 4d f0	 mov	 ecx, DWORD PTR _this$[ebp]
  0083b	81 c1 00 01 00
	00		 add	 ecx, 256		; 00000100H
  00841	ff 15 00 00 00
	00		 call	 DWORD PTR __imp_??4?$CStringT@DV?$StrTraitMFC_DLL@DV?$ChTraitsCRT@D@ATL@@@@@ATL@@QAEAAV01@ABV01@@Z
  00847	3b f4		 cmp	 esi, esp
  00849	e8 00 00 00 00	 call	 __RTC_CheckEsp
  0084e	c6 45 fc 00	 mov	 BYTE PTR __$EHRec$[ebp+8], 0
  00852	8b f4		 mov	 esi, esp
  00854	8d 4d ec	 lea	 ecx, DWORD PTR $T197629[ebp]
  00857	ff 15 00 00 00
	00		 call	 DWORD PTR __imp_??1?$CStringT@DV?$StrTraitMFC_DLL@DV?$ChTraitsCRT@D@ATL@@@@@ATL@@QAE@XZ
  0085d	3b f4		 cmp	 esi, esp
  0085f	e8 00 00 00 00	 call	 __RTC_CheckEsp

; 141  : 
; 142  : 	m_dwStartShowTime = GetTickCount();

  00864	8b f4		 mov	 esi, esp
  00866	ff 15 00 00 00
	00		 call	 DWORD PTR __imp__GetTickCount@0
  0086c	3b f4		 cmp	 esi, esp
  0086e	e8 00 00 00 00	 call	 __RTC_CheckEsp
  00873	8b 55 f0	 mov	 edx, DWORD PTR _this$[ebp]
  00876	89 82 fc 00 00
	00		 mov	 DWORD PTR [edx+252], eax

; 143  : 	SetTimer( TIMER_CHECK_NAVIGATE, ELAPSE_TIMER_CHECK_NAVIGATE, NULL );

  0087c	6a 00		 push	 0
  0087e	68 e8 03 00 00	 push	 1000			; 000003e8H
  00883	68 6c 04 00 00	 push	 1132			; 0000046cH
  00888	8b 4d f0	 mov	 ecx, DWORD PTR _this$[ebp]
  0088b	e8 00 00 00 00	 call	 ?SetTimer@CWnd@@QAEIIIP6GXPAUHWND__@@IIK@Z@Z ; CWnd::SetTimer

; 144  : 	
; 145  : 	Navigate2( strUrl.c_str() );

  00890	6a 00		 push	 0
  00892	6a 00		 push	 0
  00894	6a 00		 push	 0
  00896	6a 00		 push	 0
  00898	6a 00		 push	 0
  0089a	8b f4		 mov	 esi, esp
  0089c	8d 4d 08	 lea	 ecx, DWORD PTR _strUrl$[ebp]
  0089f	ff 15 00 00 00
	00		 call	 DWORD PTR __imp_?c_str@?$basic_string@DU?$char_traits@D@std@@V?$allocator@D@2@@std@@QBEPBDXZ
  008a5	3b f4		 cmp	 esi, esp
  008a7	e8 00 00 00 00	 call	 __RTC_CheckEsp
  008ac	50		 push	 eax
  008ad	8b 4d f0	 mov	 ecx, DWORD PTR _this$[ebp]
  008b0	e8 00 00 00 00	 call	 ?Navigate2@CHtmlView@@QAEXPBDK00PAXK@Z ; CHtmlView::Navigate2

; 146  : 	YL_Log("log_httpr.txt",LOG_DEBUG,"Web BEGIN","%s",strUrl.c_str());

  008b5	8b f4		 mov	 esi, esp
  008b7	68 00 00 00 00	 push	 OFFSET FLAT:$SG196001
  008bc	8d 4d d0	 lea	 ecx, DWORD PTR $T197630[ebp]
  008bf	ff 15 00 00 00
	00		 call	 DWORD PTR __imp_??0?$basic_string@DU?$char_traits@D@std@@V?$allocator@D@2@@std@@QAE@PBD@Z
  008c5	3b f4		 cmp	 esi, esp
  008c7	e8 00 00 00 00	 call	 __RTC_CheckEsp
  008cc	c6 45 fc 02	 mov	 BYTE PTR __$EHRec$[ebp+8], 2
  008d0	8b f4		 mov	 esi, esp
  008d2	68 00 00 00 00	 push	 OFFSET FLAT:$SG196002
  008d7	8d 4d b4	 lea	 ecx, DWORD PTR $T197631[ebp]
  008da	ff 15 00 00 00
	00		 call	 DWORD PTR __imp_??0?$basic_string@DU?$char_traits@D@std@@V?$allocator@D@2@@std@@QAE@PBD@Z
  008e0	3b f4		 cmp	 esi, esp
  008e2	e8 00 00 00 00	 call	 __RTC_CheckEsp
  008e7	c6 45 fc 03	 mov	 BYTE PTR __$EHRec$[ebp+8], 3
  008eb	8b f4		 mov	 esi, esp
  008ed	8d 4d 08	 lea	 ecx, DWORD PTR _strUrl$[ebp]
  008f0	ff 15 00 00 00
	00		 call	 DWORD PTR __imp_?c_str@?$basic_string@DU?$char_traits@D@std@@V?$allocator@D@2@@std@@QBEPBDXZ
  008f6	3b f4		 cmp	 esi, esp
  008f8	e8 00 00 00 00	 call	 __RTC_CheckEsp
  008fd	8b f4		 mov	 esi, esp
  008ff	50		 push	 eax
  00900	68 00 00 00 00	 push	 OFFSET FLAT:$SG196000
  00905	8d 45 d0	 lea	 eax, DWORD PTR $T197630[ebp]
  00908	50		 push	 eax
  00909	6a 00		 push	 0
  0090b	8d 4d b4	 lea	 ecx, DWORD PTR $T197631[ebp]
  0090e	51		 push	 ecx
  0090f	ff 15 00 00 00
	00		 call	 DWORD PTR __imp_?YL_Log@@YAXABV?$basic_string@DU?$char_traits@D@std@@V?$allocator@D@2@@std@@H0PBDZZ
  00915	83 c4 14	 add	 esp, 20			; 00000014H
  00918	3b f4		 cmp	 esi, esp
  0091a	e8 00 00 00 00	 call	 __RTC_CheckEsp
  0091f	c6 45 fc 02	 mov	 BYTE PTR __$EHRec$[ebp+8], 2
  00923	8b f4		 mov	 esi, esp
  00925	8d 4d b4	 lea	 ecx, DWORD PTR $T197631[ebp]
  00928	ff 15 00 00 00
	00		 call	 DWORD PTR __imp_??1?$basic_string@DU?$char_traits@D@std@@V?$allocator@D@2@@std@@QAE@XZ
  0092e	3b f4		 cmp	 esi, esp
  00930	e8 00 00 00 00	 call	 __RTC_CheckEsp
  00935	c6 45 fc 00	 mov	 BYTE PTR __$EHRec$[ebp+8], 0
  00939	8b f4		 mov	 esi, esp
  0093b	8d 4d d0	 lea	 ecx, DWORD PTR $T197630[ebp]
  0093e	ff 15 00 00 00
	00		 call	 DWORD PTR __imp_??1?$basic_string@DU?$char_traits@D@std@@V?$allocator@D@2@@std@@QAE@XZ
  00944	3b f4		 cmp	 esi, esp
  00946	e8 00 00 00 00	 call	 __RTC_CheckEsp

; 147  : 	m_bSucceed = TRUE;

  0094b	8b 55 f0	 mov	 edx, DWORD PTR _this$[ebp]
  0094e	c7 82 f4 00 00
	00 01 00 00 00	 mov	 DWORD PTR [edx+244], 1

; 148  : }

  00958	c7 45 fc ff ff
	ff ff		 mov	 DWORD PTR __$EHRec$[ebp+8], -1
  0095f	8b f4		 mov	 esi, esp
  00961	8d 4d 08	 lea	 ecx, DWORD PTR _strUrl$[ebp]
  00964	ff 15 00 00 00
	00		 call	 DWORD PTR __imp_??1?$basic_string@DU?$char_traits@D@std@@V?$allocator@D@2@@std@@QAE@XZ
  0096a	3b f4		 cmp	 esi, esp
  0096c	e8 00 00 00 00	 call	 __RTC_CheckEsp
  00971	8b 4d f4	 mov	 ecx, DWORD PTR __$EHRec$[ebp]
  00974	64 89 0d 00 00
	00 00		 mov	 DWORD PTR fs:__except_list, ecx
  0097b	5f		 pop	 edi
  0097c	5e		 pop	 esi
  0097d	83 c4 54	 add	 esp, 84			; 00000054H
  00980	3b ec		 cmp	 ebp, esp
  00982	e8 00 00 00 00	 call	 __RTC_CheckEsp
  00987	8b e5		 mov	 esp, ebp
  00989	5d		 pop	 ebp
  0098a	c2 1c 00	 ret	 28			; 0000001cH
_TEXT	ENDS
text$x	SEGMENT
$L197632:
  000eb	8b f4		 mov	 esi, esp
  000ed	8d 4d 08	 lea	 ecx, DWORD PTR _strUrl$[ebp]
  000f0	ff 15 00 00 00
	00		 call	 DWORD PTR __imp_??1?$basic_string@DU?$char_traits@D@std@@V?$allocator@D@2@@std@@QAE@XZ
  000f6	3b f4		 cmp	 esi, esp
  000f8	e9 00 00 00 00	 jmp	 __RTC_CheckEsp
$L197633:
  000fd	8b f4		 mov	 esi, esp
  000ff	8d 4d ec	 lea	 ecx, DWORD PTR $T197629[ebp]
  00102	ff 15 00 00 00
	00		 call	 DWORD PTR __imp_??1?$CStringT@DV?$StrTraitMFC_DLL@DV?$ChTraitsCRT@D@ATL@@@@@ATL@@QAE@XZ
  00108	3b f4		 cmp	 esi, esp
  0010a	e9 00 00 00 00	 jmp	 __RTC_CheckEsp
$L197634:
  0010f	8b f4		 mov	 esi, esp
  00111	8d 4d d0	 lea	 ecx, DWORD PTR $T197630[ebp]
  00114	ff 15 00 00 00
	00		 call	 DWORD PTR __imp_??1?$basic_string@DU?$char_traits@D@std@@V?$allocator@D@2@@std@@QAE@XZ
  0011a	3b f4		 cmp	 esi, esp
  0011c	e9 00 00 00 00	 jmp	 __RTC_CheckEsp
$L197635:
  00121	8b f4		 mov	 esi, esp
  00123	8d 4d b4	 lea	 ecx, DWORD PTR $T197631[ebp]
  00126	ff 15 00 00 00
	00		 call	 DWORD PTR __imp_??1?$basic_string@DU?$char_traits@D@std@@V?$allocator@D@2@@std@@QAE@XZ
  0012c	3b f4		 cmp	 esi, esp
  0012e	e9 00 00 00 00	 jmp	 __RTC_CheckEsp
__ehhandler$?Navigate@MyWebBrowserWnd@@QAEXV?$basic_string@DU?$char_traits@D@std@@V?$allocator@D@2@@std@@@Z:
  00133	b8 00 00 00 00	 mov	 eax, OFFSET FLAT:$T197637
  00138	e9 00 00 00 00	 jmp	 ___CxxFrameHandler
text$x	ENDS
?Navigate@MyWebBrowserWnd@@QAEXV?$basic_string@DU?$char_traits@D@std@@V?$allocator@D@2@@std@@@Z ENDP ; MyWebBrowserWnd::Navigate
PUBLIC	?ShowErrorPage@MyWebBrowserWnd@@QAEXXZ		; MyWebBrowserWnd::ShowErrorPage
EXTRN	?HTTPFinish_TodayRecommend@CHTTPControl@@SAXXZ:NEAR ; CHTTPControl::HTTPFinish_TodayRecommend
EXTRN	__imp__strstr:NEAR
; Function compile flags: /Odt /RTCsu
_TEXT	SEGMENT
_this$ = -4						; size = 4
_lpszURL$ = 8						; size = 4
_lpszFrame$ = 12					; size = 4
_dwError$ = 16						; size = 4
_pbCancel$ = 20						; size = 4
?OnNavigateError@MyWebBrowserWnd@@UAEXPBD0KPAH@Z PROC NEAR ; MyWebBrowserWnd::OnNavigateError
; _this$ = ecx

; 151  : {

  00990	55		 push	 ebp
  00991	8b ec		 mov	 ebp, esp
  00993	51		 push	 ecx
  00994	56		 push	 esi
  00995	c7 45 fc cc cc
	cc cc		 mov	 DWORD PTR [ebp-4], -858993460 ; ccccccccH
  0099c	89 4d fc	 mov	 DWORD PTR _this$[ebp], ecx

; 152  : 	if( strstr(lpszURL,"http://") != 0 )

  0099f	8b f4		 mov	 esi, esp
  009a1	68 00 00 00 00	 push	 OFFSET FLAT:$SG196011
  009a6	8b 45 08	 mov	 eax, DWORD PTR _lpszURL$[ebp]
  009a9	50		 push	 eax
  009aa	ff 15 00 00 00
	00		 call	 DWORD PTR __imp__strstr
  009b0	83 c4 08	 add	 esp, 8
  009b3	3b f4		 cmp	 esi, esp
  009b5	e8 00 00 00 00	 call	 __RTC_CheckEsp
  009ba	85 c0		 test	 eax, eax
  009bc	74 08		 je	 SHORT $L196010

; 153  : 	{
; 154  : 		ShowErrorPage( );

  009be	8b 4d fc	 mov	 ecx, DWORD PTR _this$[ebp]
  009c1	e8 00 00 00 00	 call	 ?ShowErrorPage@MyWebBrowserWnd@@QAEXXZ ; MyWebBrowserWnd::ShowErrorPage
$L196010:

; 155  : 	}
; 156  : 	SetTimer( TIMER_HIDE_LOADING, ELAPSE_TIMER_HIDE_LOADING, NULL );

  009c6	6a 00		 push	 0
  009c8	68 f4 01 00 00	 push	 500			; 000001f4H
  009cd	68 6d 04 00 00	 push	 1133			; 0000046dH
  009d2	8b 4d fc	 mov	 ecx, DWORD PTR _this$[ebp]
  009d5	e8 00 00 00 00	 call	 ?SetTimer@CWnd@@QAEIIIP6GXPAUHWND__@@IIK@Z@Z ; CWnd::SetTimer

; 157  : 	if( m_bHomePage )

  009da	8b 4d fc	 mov	 ecx, DWORD PTR _this$[ebp]
  009dd	0f b6 91 c4 01
	00 00		 movzx	 edx, BYTE PTR [ecx+452]
  009e4	85 d2		 test	 edx, edx
  009e6	74 05		 je	 SHORT $L196009

; 158  : 	{
; 159  : 		CHTTPControl::HTTPFinish_TodayRecommend();

  009e8	e8 00 00 00 00	 call	 ?HTTPFinish_TodayRecommend@CHTTPControl@@SAXXZ ; CHTTPControl::HTTPFinish_TodayRecommend
$L196009:

; 160  : 	}
; 161  : }

  009ed	5e		 pop	 esi
  009ee	83 c4 04	 add	 esp, 4
  009f1	3b ec		 cmp	 ebp, esp
  009f3	e8 00 00 00 00	 call	 __RTC_CheckEsp
  009f8	8b e5		 mov	 esp, ebp
  009fa	5d		 pop	 ebp
  009fb	c2 10 00	 ret	 16			; 00000010H
?OnNavigateError@MyWebBrowserWnd@@UAEXPBD0KPAH@Z ENDP	; MyWebBrowserWnd::OnNavigateError
_TEXT	ENDS
PUBLIC	??$?HDU?$char_traits@D@std@@V?$allocator@D@1@@std@@YA?AV?$basic_string@DU?$char_traits@D@std@@V?$allocator@D@2@@0@ABV10@0@Z ; std::operator+<char,std::char_traits<char>,std::allocator<char> >
EXTRN	?SetHTTPRes@CJudgeFirewall@@SAXW4HTTP_REQUEST_TYPE@@H@Z:NEAR ; CJudgeFirewall::SetHTTPRes
EXTRN	__imp_?LogUserActMsg@@YAXABV?$basic_string@DU?$char_traits@D@std@@V?$allocator@D@2@@std@@0@Z:NEAR
EXTRN	__imp_??B?$CSimpleStringT@D$00@ATL@@QBEPBDXZ:NEAR
xdata$x	SEGMENT
$T197657 DD	0ffffffffH
	DD	FLAT:$L197646
	DD	00H
	DD	FLAT:$L197647
	DD	0ffffffffH
	DD	FLAT:$L197647
	DD	02H
	DD	FLAT:$L197648
	DD	03H
	DD	FLAT:$L197649
$T197651 DD	019930520H
	DD	05H
	DD	FLAT:$T197657
	DD	2 DUP(00H)
	DD	2 DUP(00H)
; Function compile flags: /Odt /RTCsu
xdata$x	ENDS
_TEXT	SEGMENT
tv133 = -148						; size = 4
tv137 = -144						; size = 4
$T197645 = -140						; size = 28
$T197644 = -112						; size = 28
$T197643 = -84						; size = 28
_str$ = -52						; size = 28
_this$ = -20						; size = 4
__$ArrayPad$ = -16					; size = 4
__$EHRec$ = -12						; size = 12
__$ReturnAddr$ = 4					; size = 4
?ShowErrorPage@MyWebBrowserWnd@@QAEXXZ PROC NEAR	; MyWebBrowserWnd::ShowErrorPage
; _this$ = ecx

; 164  : {

  00a00	55		 push	 ebp
  00a01	8b ec		 mov	 ebp, esp
  00a03	6a ff		 push	 -1
  00a05	68 00 00 00 00	 push	 __ehhandler$?ShowErrorPage@MyWebBrowserWnd@@QAEXXZ
  00a0a	64 a1 00 00 00
	00		 mov	 eax, DWORD PTR fs:__except_list
  00a10	50		 push	 eax
  00a11	64 89 25 00 00
	00 00		 mov	 DWORD PTR fs:__except_list, esp
  00a18	81 ec 88 00 00
	00		 sub	 esp, 136		; 00000088H
  00a1e	56		 push	 esi
  00a1f	57		 push	 edi
  00a20	51		 push	 ecx
  00a21	8d bd 6c ff ff
	ff		 lea	 edi, DWORD PTR [ebp-148]
  00a27	b9 22 00 00 00	 mov	 ecx, 34			; 00000022H
  00a2c	b8 cc cc cc cc	 mov	 eax, -858993460		; ccccccccH
  00a31	f3 ab		 rep stosd
  00a33	59		 pop	 ecx
  00a34	a1 00 00 00 00	 mov	 eax, DWORD PTR ___security_cookie
  00a39	89 45 f0	 mov	 DWORD PTR __$ArrayPad$[ebp], eax
  00a3c	89 4d ec	 mov	 DWORD PTR _this$[ebp], ecx

; 165  : 	string str = m_strErrorPagePath + string(m_strURL);

  00a3f	8b 4d ec	 mov	 ecx, DWORD PTR _this$[ebp]
  00a42	81 c1 00 01 00
	00		 add	 ecx, 256		; 00000100H
  00a48	8b f4		 mov	 esi, esp
  00a4a	ff 15 00 00 00
	00		 call	 DWORD PTR __imp_??B?$CSimpleStringT@D$00@ATL@@QBEPBDXZ
  00a50	3b f4		 cmp	 esi, esp
  00a52	e8 00 00 00 00	 call	 __RTC_CheckEsp
  00a57	8b f4		 mov	 esi, esp
  00a59	50		 push	 eax
  00a5a	8d 4d ac	 lea	 ecx, DWORD PTR $T197643[ebp]
  00a5d	ff 15 00 00 00
	00		 call	 DWORD PTR __imp_??0?$basic_string@DU?$char_traits@D@std@@V?$allocator@D@2@@std@@QAE@PBD@Z
  00a63	3b f4		 cmp	 esi, esp
  00a65	e8 00 00 00 00	 call	 __RTC_CheckEsp
  00a6a	89 85 70 ff ff
	ff		 mov	 DWORD PTR tv137[ebp], eax
  00a70	8b 85 70 ff ff
	ff		 mov	 eax, DWORD PTR tv137[ebp]
  00a76	89 85 6c ff ff
	ff		 mov	 DWORD PTR tv133[ebp], eax
  00a7c	c7 45 fc 00 00
	00 00		 mov	 DWORD PTR __$EHRec$[ebp+8], 0
  00a83	8b 8d 6c ff ff
	ff		 mov	 ecx, DWORD PTR tv133[ebp]
  00a89	51		 push	 ecx
  00a8a	8b 55 ec	 mov	 edx, DWORD PTR _this$[ebp]
  00a8d	81 c2 cc 01 00
	00		 add	 edx, 460		; 000001ccH
  00a93	52		 push	 edx
  00a94	8d 45 cc	 lea	 eax, DWORD PTR _str$[ebp]
  00a97	50		 push	 eax
  00a98	e8 00 00 00 00	 call	 ??$?HDU?$char_traits@D@std@@V?$allocator@D@1@@std@@YA?AV?$basic_string@DU?$char_traits@D@std@@V?$allocator@D@2@@0@ABV10@0@Z ; std::operator+<char,std::char_traits<char>,std::allocator<char> >
  00a9d	83 c4 0c	 add	 esp, 12			; 0000000cH
  00aa0	c6 45 fc 02	 mov	 BYTE PTR __$EHRec$[ebp+8], 2
  00aa4	8b f4		 mov	 esi, esp
  00aa6	8d 4d ac	 lea	 ecx, DWORD PTR $T197643[ebp]
  00aa9	ff 15 00 00 00
	00		 call	 DWORD PTR __imp_??1?$basic_string@DU?$char_traits@D@std@@V?$allocator@D@2@@std@@QAE@XZ
  00aaf	3b f4		 cmp	 esi, esp
  00ab1	e8 00 00 00 00	 call	 __RTC_CheckEsp

; 166  : 	Navigate2(str.c_str(), 0, NULL);

  00ab6	6a 00		 push	 0
  00ab8	6a 00		 push	 0
  00aba	6a 00		 push	 0
  00abc	6a 00		 push	 0
  00abe	6a 00		 push	 0
  00ac0	8b f4		 mov	 esi, esp
  00ac2	8d 4d cc	 lea	 ecx, DWORD PTR _str$[ebp]
  00ac5	ff 15 00 00 00
	00		 call	 DWORD PTR __imp_?c_str@?$basic_string@DU?$char_traits@D@std@@V?$allocator@D@2@@std@@QBEPBDXZ
  00acb	3b f4		 cmp	 esi, esp
  00acd	e8 00 00 00 00	 call	 __RTC_CheckEsp
  00ad2	50		 push	 eax
  00ad3	8b 4d ec	 mov	 ecx, DWORD PTR _this$[ebp]
  00ad6	e8 00 00 00 00	 call	 ?Navigate2@CHtmlView@@QAEXPBDK00PAXK@Z ; CHtmlView::Navigate2

; 167  : 	m_bSucceed = FALSE;

  00adb	8b 4d ec	 mov	 ecx, DWORD PTR _this$[ebp]
  00ade	c7 81 f4 00 00
	00 00 00 00 00	 mov	 DWORD PTR [ecx+244], 0

; 168  : 
; 169  : 	LogUserActMsg("ERROR", "WEB_COMMEND_ERR");

  00ae8	8b f4		 mov	 esi, esp
  00aea	68 00 00 00 00	 push	 OFFSET FLAT:$SG196021
  00aef	8d 4d 90	 lea	 ecx, DWORD PTR $T197644[ebp]
  00af2	ff 15 00 00 00
	00		 call	 DWORD PTR __imp_??0?$basic_string@DU?$char_traits@D@std@@V?$allocator@D@2@@std@@QAE@PBD@Z
  00af8	3b f4		 cmp	 esi, esp
  00afa	e8 00 00 00 00	 call	 __RTC_CheckEsp
  00aff	c6 45 fc 03	 mov	 BYTE PTR __$EHRec$[ebp+8], 3
  00b03	8b f4		 mov	 esi, esp
  00b05	68 00 00 00 00	 push	 OFFSET FLAT:$SG196022
  00b0a	8d 8d 74 ff ff
	ff		 lea	 ecx, DWORD PTR $T197645[ebp]
  00b10	ff 15 00 00 00
	00		 call	 DWORD PTR __imp_??0?$basic_string@DU?$char_traits@D@std@@V?$allocator@D@2@@std@@QAE@PBD@Z
  00b16	3b f4		 cmp	 esi, esp
  00b18	e8 00 00 00 00	 call	 __RTC_CheckEsp
  00b1d	c6 45 fc 04	 mov	 BYTE PTR __$EHRec$[ebp+8], 4
  00b21	8b f4		 mov	 esi, esp
  00b23	8d 55 90	 lea	 edx, DWORD PTR $T197644[ebp]
  00b26	52		 push	 edx
  00b27	8d 85 74 ff ff
	ff		 lea	 eax, DWORD PTR $T197645[ebp]
  00b2d	50		 push	 eax
  00b2e	ff 15 00 00 00
	00		 call	 DWORD PTR __imp_?LogUserActMsg@@YAXABV?$basic_string@DU?$char_traits@D@std@@V?$allocator@D@2@@std@@0@Z
  00b34	83 c4 08	 add	 esp, 8
  00b37	3b f4		 cmp	 esi, esp
  00b39	e8 00 00 00 00	 call	 __RTC_CheckEsp
  00b3e	c6 45 fc 03	 mov	 BYTE PTR __$EHRec$[ebp+8], 3
  00b42	8b f4		 mov	 esi, esp
  00b44	8d 8d 74 ff ff
	ff		 lea	 ecx, DWORD PTR $T197645[ebp]
  00b4a	ff 15 00 00 00
	00		 call	 DWORD PTR __imp_??1?$basic_string@DU?$char_traits@D@std@@V?$allocator@D@2@@std@@QAE@XZ
  00b50	3b f4		 cmp	 esi, esp
  00b52	e8 00 00 00 00	 call	 __RTC_CheckEsp
  00b57	c6 45 fc 02	 mov	 BYTE PTR __$EHRec$[ebp+8], 2
  00b5b	8b f4		 mov	 esi, esp
  00b5d	8d 4d 90	 lea	 ecx, DWORD PTR $T197644[ebp]
  00b60	ff 15 00 00 00
	00		 call	 DWORD PTR __imp_??1?$basic_string@DU?$char_traits@D@std@@V?$allocator@D@2@@std@@QAE@XZ
  00b66	3b f4		 cmp	 esi, esp
  00b68	e8 00 00 00 00	 call	 __RTC_CheckEsp

; 170  : 	CJudgeFirewall::SetHTTPRes( HTTP_WEB_COMMAND,0 );

  00b6d	6a 00		 push	 0
  00b6f	6a 00		 push	 0
  00b71	e8 00 00 00 00	 call	 ?SetHTTPRes@CJudgeFirewall@@SAXW4HTTP_REQUEST_TYPE@@H@Z ; CJudgeFirewall::SetHTTPRes
  00b76	83 c4 08	 add	 esp, 8

; 171  : }

  00b79	c7 45 fc ff ff
	ff ff		 mov	 DWORD PTR __$EHRec$[ebp+8], -1
  00b80	8b f4		 mov	 esi, esp
  00b82	8d 4d cc	 lea	 ecx, DWORD PTR _str$[ebp]
  00b85	ff 15 00 00 00
	00		 call	 DWORD PTR __imp_??1?$basic_string@DU?$char_traits@D@std@@V?$allocator@D@2@@std@@QAE@XZ
  00b8b	3b f4		 cmp	 esi, esp
  00b8d	e8 00 00 00 00	 call	 __RTC_CheckEsp
  00b92	52		 push	 edx
  00b93	8b cd		 mov	 ecx, ebp
  00b95	50		 push	 eax
  00b96	8d 15 00 00 00
	00		 lea	 edx, DWORD PTR $L197656
  00b9c	e8 00 00 00 00	 call	 @_RTC_CheckStackVars@8
  00ba1	58		 pop	 eax
  00ba2	5a		 pop	 edx
  00ba3	8b 4d f4	 mov	 ecx, DWORD PTR __$EHRec$[ebp]
  00ba6	64 89 0d 00 00
	00 00		 mov	 DWORD PTR fs:__except_list, ecx
  00bad	8b 4d f0	 mov	 ecx, DWORD PTR __$ArrayPad$[ebp]
  00bb0	e8 00 00 00 00	 call	 @__security_check_cookie@4
  00bb5	5f		 pop	 edi
  00bb6	5e		 pop	 esi
  00bb7	81 c4 94 00 00
	00		 add	 esp, 148		; 00000094H
  00bbd	3b ec		 cmp	 ebp, esp
  00bbf	e8 00 00 00 00	 call	 __RTC_CheckEsp
  00bc4	8b e5		 mov	 esp, ebp
  00bc6	5d		 pop	 ebp
  00bc7	c3		 ret	 0
$L197656:
  00bc8	01 00 00 00	 DD	 1
  00bcc	00 00 00 00	 DD	 $L197655
$L197655:
  00bd0	cc ff ff ff	 DD	 -52			; ffffffccH
  00bd4	1c 00 00 00	 DD	 28			; 0000001cH
  00bd8	00 00 00 00	 DD	 $L197652
$L197652:
  00bdc	73		 DB	 115			; 00000073H
  00bdd	74		 DB	 116			; 00000074H
  00bde	72		 DB	 114			; 00000072H
  00bdf	00		 DB	 0
_TEXT	ENDS
text$x	SEGMENT
$L197646:
  0013d	8b f4		 mov	 esi, esp
  0013f	8d 4d ac	 lea	 ecx, DWORD PTR $T197643[ebp]
  00142	ff 15 00 00 00
	00		 call	 DWORD PTR __imp_??1?$basic_string@DU?$char_traits@D@std@@V?$allocator@D@2@@std@@QAE@XZ
  00148	3b f4		 cmp	 esi, esp
  0014a	e9 00 00 00 00	 jmp	 __RTC_CheckEsp
$L197647:
  0014f	8b f4		 mov	 esi, esp
  00151	8d 4d cc	 lea	 ecx, DWORD PTR _str$[ebp]
  00154	ff 15 00 00 00
	00		 call	 DWORD PTR __imp_??1?$basic_string@DU?$char_traits@D@std@@V?$allocator@D@2@@std@@QAE@XZ
  0015a	3b f4		 cmp	 esi, esp
  0015c	e9 00 00 00 00	 jmp	 __RTC_CheckEsp
$L197648:
  00161	8b f4		 mov	 esi, esp
  00163	8d 4d 90	 lea	 ecx, DWORD PTR $T197644[ebp]
  00166	ff 15 00 00 00
	00		 call	 DWORD PTR __imp_??1?$basic_string@DU?$char_traits@D@std@@V?$allocator@D@2@@std@@QAE@XZ
  0016c	3b f4		 cmp	 esi, esp
  0016e	e9 00 00 00 00	 jmp	 __RTC_CheckEsp
$L197649:
  00173	8b f4		 mov	 esi, esp
  00175	8d 8d 74 ff ff
	ff		 lea	 ecx, DWORD PTR $T197645[ebp]
  0017b	ff 15 00 00 00
	00		 call	 DWORD PTR __imp_??1?$basic_string@DU?$char_traits@D@std@@V?$allocator@D@2@@std@@QAE@XZ
  00181	3b f4		 cmp	 esi, esp
  00183	e9 00 00 00 00	 jmp	 __RTC_CheckEsp
__ehhandler$?ShowErrorPage@MyWebBrowserWnd@@QAEXXZ:
  00188	b8 00 00 00 00	 mov	 eax, OFFSET FLAT:$T197651
  0018d	e9 00 00 00 00	 jmp	 ___CxxFrameHandler
text$x	ENDS
?ShowErrorPage@MyWebBrowserWnd@@QAEXXZ ENDP		; MyWebBrowserWnd::ShowErrorPage
PUBLIC	??8ATL@@YA_NABV?$CStringT@DV?$StrTraitMFC_DLL@DV?$ChTraitsCRT@D@ATL@@@@@0@PBD@Z ; ATL::operator==
EXTRN	?Refresh2@CHtmlView@@QAEXH@Z:NEAR		; CHtmlView::Refresh2
EXTRN	__imp__sprintf:NEAR
xdata$x	SEGMENT
$T197671 DD	0ffffffffH
	DD	FLAT:$L197662
	DD	00H
	DD	FLAT:$L197663
$T197665 DD	019930520H
	DD	02H
	DD	FLAT:$T197671
	DD	2 DUP(00H)
	DD	2 DUP(00H)
; Function compile flags: /Odt /RTCsu
xdata$x	ENDS
_TEXT	SEGMENT
$T197661 = -116						; size = 28
$T197660 = -88						; size = 28
_szBuf$196030 = -56					; size = 32
_this$ = -20						; size = 4
__$ArrayPad$ = -16					; size = 4
__$EHRec$ = -12						; size = 12
__$ReturnAddr$ = 4					; size = 4
_strURL$ = 8						; size = 4
?OnNavigateComplete2@MyWebBrowserWnd@@UAEXPBD@Z PROC NEAR ; MyWebBrowserWnd::OnNavigateComplete2
; _this$ = ecx

; 174  : {

  00be0	55		 push	 ebp
  00be1	8b ec		 mov	 ebp, esp
  00be3	6a ff		 push	 -1
  00be5	68 00 00 00 00	 push	 __ehhandler$?OnNavigateComplete2@MyWebBrowserWnd@@UAEXPBD@Z
  00bea	64 a1 00 00 00
	00		 mov	 eax, DWORD PTR fs:__except_list
  00bf0	50		 push	 eax
  00bf1	64 89 25 00 00
	00 00		 mov	 DWORD PTR fs:__except_list, esp
  00bf8	83 ec 68	 sub	 esp, 104		; 00000068H
  00bfb	56		 push	 esi
  00bfc	57		 push	 edi
  00bfd	51		 push	 ecx
  00bfe	8d 7d 8c	 lea	 edi, DWORD PTR [ebp-116]
  00c01	b9 1a 00 00 00	 mov	 ecx, 26			; 0000001aH
  00c06	b8 cc cc cc cc	 mov	 eax, -858993460		; ccccccccH
  00c0b	f3 ab		 rep stosd
  00c0d	59		 pop	 ecx
  00c0e	a1 00 00 00 00	 mov	 eax, DWORD PTR ___security_cookie
  00c13	89 45 f0	 mov	 DWORD PTR __$ArrayPad$[ebp], eax
  00c16	89 4d ec	 mov	 DWORD PTR _this$[ebp], ecx

; 175  : 	if( m_strURL == strURL || strstr(strURL, "SwfGamePlaying.htm") != NULL )

  00c19	8b 45 08	 mov	 eax, DWORD PTR _strURL$[ebp]
  00c1c	50		 push	 eax
  00c1d	8b 4d ec	 mov	 ecx, DWORD PTR _this$[ebp]
  00c20	81 c1 00 01 00
	00		 add	 ecx, 256		; 00000100H
  00c26	51		 push	 ecx
  00c27	e8 00 00 00 00	 call	 ??8ATL@@YA_NABV?$CStringT@DV?$StrTraitMFC_DLL@DV?$ChTraitsCRT@D@ATL@@@@@0@PBD@Z ; ATL::operator==
  00c2c	83 c4 08	 add	 esp, 8
  00c2f	0f b6 d0	 movzx	 edx, al
  00c32	85 d2		 test	 edx, edx
  00c34	75 23		 jne	 SHORT $L196028
  00c36	8b f4		 mov	 esi, esp
  00c38	68 00 00 00 00	 push	 OFFSET FLAT:$SG196029
  00c3d	8b 45 08	 mov	 eax, DWORD PTR _strURL$[ebp]
  00c40	50		 push	 eax
  00c41	ff 15 00 00 00
	00		 call	 DWORD PTR __imp__strstr
  00c47	83 c4 08	 add	 esp, 8
  00c4a	3b f4		 cmp	 esi, esp
  00c4c	e8 00 00 00 00	 call	 __RTC_CheckEsp
  00c51	85 c0		 test	 eax, eax
  00c53	0f 84 e4 00 00
	00		 je	 $L196027
$L196028:

; 176  : 	{
; 177  : 		char szBuf[32];
; 178  : 		sprintf(szBuf,"T:%d",GetTickCount() - m_dwStartShowTime );

  00c59	8b f4		 mov	 esi, esp
  00c5b	ff 15 00 00 00
	00		 call	 DWORD PTR __imp__GetTickCount@0
  00c61	3b f4		 cmp	 esi, esp
  00c63	e8 00 00 00 00	 call	 __RTC_CheckEsp
  00c68	8b 4d ec	 mov	 ecx, DWORD PTR _this$[ebp]
  00c6b	2b 81 fc 00 00
	00		 sub	 eax, DWORD PTR [ecx+252]
  00c71	8b f4		 mov	 esi, esp
  00c73	50		 push	 eax
  00c74	68 00 00 00 00	 push	 OFFSET FLAT:$SG196031
  00c79	8d 55 c8	 lea	 edx, DWORD PTR _szBuf$196030[ebp]
  00c7c	52		 push	 edx
  00c7d	ff 15 00 00 00
	00		 call	 DWORD PTR __imp__sprintf
  00c83	83 c4 0c	 add	 esp, 12			; 0000000cH
  00c86	3b f4		 cmp	 esi, esp
  00c88	e8 00 00 00 00	 call	 __RTC_CheckEsp

; 179  : 		LogUserActMsg("WEBLOADRECOM",szBuf);

  00c8d	8b f4		 mov	 esi, esp
  00c8f	8d 45 c8	 lea	 eax, DWORD PTR _szBuf$196030[ebp]
  00c92	50		 push	 eax
  00c93	8d 4d a8	 lea	 ecx, DWORD PTR $T197660[ebp]
  00c96	ff 15 00 00 00
	00		 call	 DWORD PTR __imp_??0?$basic_string@DU?$char_traits@D@std@@V?$allocator@D@2@@std@@QAE@PBD@Z
  00c9c	3b f4		 cmp	 esi, esp
  00c9e	e8 00 00 00 00	 call	 __RTC_CheckEsp
  00ca3	c7 45 fc 00 00
	00 00		 mov	 DWORD PTR __$EHRec$[ebp+8], 0
  00caa	8b f4		 mov	 esi, esp
  00cac	68 00 00 00 00	 push	 OFFSET FLAT:$SG196034
  00cb1	8d 4d 8c	 lea	 ecx, DWORD PTR $T197661[ebp]
  00cb4	ff 15 00 00 00
	00		 call	 DWORD PTR __imp_??0?$basic_string@DU?$char_traits@D@std@@V?$allocator@D@2@@std@@QAE@PBD@Z
  00cba	3b f4		 cmp	 esi, esp
  00cbc	e8 00 00 00 00	 call	 __RTC_CheckEsp
  00cc1	c6 45 fc 01	 mov	 BYTE PTR __$EHRec$[ebp+8], 1
  00cc5	8b f4		 mov	 esi, esp
  00cc7	8d 4d a8	 lea	 ecx, DWORD PTR $T197660[ebp]
  00cca	51		 push	 ecx
  00ccb	8d 55 8c	 lea	 edx, DWORD PTR $T197661[ebp]
  00cce	52		 push	 edx
  00ccf	ff 15 00 00 00
	00		 call	 DWORD PTR __imp_?LogUserActMsg@@YAXABV?$basic_string@DU?$char_traits@D@std@@V?$allocator@D@2@@std@@0@Z
  00cd5	83 c4 08	 add	 esp, 8
  00cd8	3b f4		 cmp	 esi, esp
  00cda	e8 00 00 00 00	 call	 __RTC_CheckEsp
  00cdf	c6 45 fc 00	 mov	 BYTE PTR __$EHRec$[ebp+8], 0
  00ce3	8b f4		 mov	 esi, esp
  00ce5	8d 4d 8c	 lea	 ecx, DWORD PTR $T197661[ebp]
  00ce8	ff 15 00 00 00
	00		 call	 DWORD PTR __imp_??1?$basic_string@DU?$char_traits@D@std@@V?$allocator@D@2@@std@@QAE@XZ
  00cee	3b f4		 cmp	 esi, esp
  00cf0	e8 00 00 00 00	 call	 __RTC_CheckEsp
  00cf5	c7 45 fc ff ff
	ff ff		 mov	 DWORD PTR __$EHRec$[ebp+8], -1
  00cfc	8b f4		 mov	 esi, esp
  00cfe	8d 4d a8	 lea	 ecx, DWORD PTR $T197660[ebp]
  00d01	ff 15 00 00 00
	00		 call	 DWORD PTR __imp_??1?$basic_string@DU?$char_traits@D@std@@V?$allocator@D@2@@std@@QAE@XZ
  00d07	3b f4		 cmp	 esi, esp
  00d09	e8 00 00 00 00	 call	 __RTC_CheckEsp

; 180  : 		CJudgeFirewall::SetHTTPRes( HTTP_WEB_COMMAND,1 );

  00d0e	6a 01		 push	 1
  00d10	6a 00		 push	 0
  00d12	e8 00 00 00 00	 call	 ?SetHTTPRes@CJudgeFirewall@@SAXW4HTTP_REQUEST_TYPE@@H@Z ; CJudgeFirewall::SetHTTPRes
  00d17	83 c4 08	 add	 esp, 8

; 181  : 
; 182  : 		m_bReady = TRUE;

  00d1a	8b 45 ec	 mov	 eax, DWORD PTR _this$[ebp]
  00d1d	c7 80 f8 00 00
	00 01 00 00 00	 mov	 DWORD PTR [eax+248], 1

; 183  : 		SetTimer( TIMER_HIDE_LOADING, ELAPSE_TIMER_HIDE_LOADING, NULL );

  00d27	6a 00		 push	 0
  00d29	68 f4 01 00 00	 push	 500			; 000001f4H
  00d2e	68 6d 04 00 00	 push	 1133			; 0000046dH
  00d33	8b 4d ec	 mov	 ecx, DWORD PTR _this$[ebp]
  00d36	e8 00 00 00 00	 call	 ?SetTimer@CWnd@@QAEIIIP6GXPAUHWND__@@IIK@Z@Z ; CWnd::SetTimer

; 184  : 	}else	

  00d3b	eb 29		 jmp	 SHORT $L196026
$L196027:

; 185  : 	if(strstr(strURL, "error404") != 0)

  00d3d	8b f4		 mov	 esi, esp
  00d3f	68 00 00 00 00	 push	 OFFSET FLAT:$SG196037
  00d44	8b 4d 08	 mov	 ecx, DWORD PTR _strURL$[ebp]
  00d47	51		 push	 ecx
  00d48	ff 15 00 00 00
	00		 call	 DWORD PTR __imp__strstr
  00d4e	83 c4 08	 add	 esp, 8
  00d51	3b f4		 cmp	 esi, esp
  00d53	e8 00 00 00 00	 call	 __RTC_CheckEsp
  00d58	85 c0		 test	 eax, eax
  00d5a	74 0a		 je	 SHORT $L196026

; 186  : 	{
; 187  : 		Refresh2(REFRESH_NORMAL);

  00d5c	6a 00		 push	 0
  00d5e	8b 4d ec	 mov	 ecx, DWORD PTR _this$[ebp]
  00d61	e8 00 00 00 00	 call	 ?Refresh2@CHtmlView@@QAEXH@Z ; CHtmlView::Refresh2
$L196026:

; 188  : 	}
; 189  : }

  00d66	52		 push	 edx
  00d67	8b cd		 mov	 ecx, ebp
  00d69	50		 push	 eax
  00d6a	8d 15 00 00 00
	00		 lea	 edx, DWORD PTR $L197670
  00d70	e8 00 00 00 00	 call	 @_RTC_CheckStackVars@8
  00d75	58		 pop	 eax
  00d76	5a		 pop	 edx
  00d77	8b 4d f4	 mov	 ecx, DWORD PTR __$EHRec$[ebp]
  00d7a	64 89 0d 00 00
	00 00		 mov	 DWORD PTR fs:__except_list, ecx
  00d81	8b 4d f0	 mov	 ecx, DWORD PTR __$ArrayPad$[ebp]
  00d84	e8 00 00 00 00	 call	 @__security_check_cookie@4
  00d89	5f		 pop	 edi
  00d8a	5e		 pop	 esi
  00d8b	83 c4 74	 add	 esp, 116		; 00000074H
  00d8e	3b ec		 cmp	 ebp, esp
  00d90	e8 00 00 00 00	 call	 __RTC_CheckEsp
  00d95	8b e5		 mov	 esp, ebp
  00d97	5d		 pop	 ebp
  00d98	c2 04 00	 ret	 4
$L197670:
  00d9b	01 00 00 00	 DD	 1
  00d9f	00 00 00 00	 DD	 $L197669
$L197669:
  00da3	c8 ff ff ff	 DD	 -56			; ffffffc8H
  00da7	20 00 00 00	 DD	 32			; 00000020H
  00dab	00 00 00 00	 DD	 $L197666
$L197666:
  00daf	73		 DB	 115			; 00000073H
  00db0	7a		 DB	 122			; 0000007aH
  00db1	42		 DB	 66			; 00000042H
  00db2	75		 DB	 117			; 00000075H
  00db3	66		 DB	 102			; 00000066H
  00db4	00		 DB	 0
_TEXT	ENDS
text$x	SEGMENT
$L197662:
  00192	8b f4		 mov	 esi, esp
  00194	8d 4d a8	 lea	 ecx, DWORD PTR $T197660[ebp]
  00197	ff 15 00 00 00
	00		 call	 DWORD PTR __imp_??1?$basic_string@DU?$char_traits@D@std@@V?$allocator@D@2@@std@@QAE@XZ
  0019d	3b f4		 cmp	 esi, esp
  0019f	e9 00 00 00 00	 jmp	 __RTC_CheckEsp
$L197663:
  001a4	8b f4		 mov	 esi, esp
  001a6	8d 4d 8c	 lea	 ecx, DWORD PTR $T197661[ebp]
  001a9	ff 15 00 00 00
	00		 call	 DWORD PTR __imp_??1?$basic_string@DU?$char_traits@D@std@@V?$allocator@D@2@@std@@QAE@XZ
  001af	3b f4		 cmp	 esi, esp
  001b1	e9 00 00 00 00	 jmp	 __RTC_CheckEsp
__ehhandler$?OnNavigateComplete2@MyWebBrowserWnd@@UAEXPBD@Z:
  001b6	b8 00 00 00 00	 mov	 eax, OFFSET FLAT:$T197665
  001bb	e9 00 00 00 00	 jmp	 ___CxxFrameHandler
text$x	ENDS
?OnNavigateComplete2@MyWebBrowserWnd@@UAEXPBD@Z ENDP	; MyWebBrowserWnd::OnNavigateComplete2
EXTRN	__imp__TranslateMessage@4:NEAR
EXTRN	__imp__DispatchMessageA@4:NEAR
EXTRN	?PreTranslateMessage@CHtmlView@@UAEHPAUtagMSG@@@Z:NEAR ; CHtmlView::PreTranslateMessage
; Function compile flags: /Odt /RTCsu
_TEXT	SEGMENT
_this$ = -4						; size = 4
_pMsg$ = 8						; size = 4
?PreTranslateMessage@MyWebBrowserWnd@@UAEHPAUtagMSG@@@Z PROC NEAR ; MyWebBrowserWnd::PreTranslateMessage
; _this$ = ecx

; 192  : {

  00dc0	55		 push	 ebp
  00dc1	8b ec		 mov	 ebp, esp
  00dc3	51		 push	 ecx
  00dc4	56		 push	 esi
  00dc5	c7 45 fc cc cc
	cc cc		 mov	 DWORD PTR [ebp-4], -858993460 ; ccccccccH
  00dcc	89 4d fc	 mov	 DWORD PTR _this$[ebp], ecx

; 193  : 	if(WM_KEYFIRST <= pMsg->message && pMsg->message <= WM_KEYLAST)

  00dcf	8b 45 08	 mov	 eax, DWORD PTR _pMsg$[ebp]
  00dd2	81 78 04 00 01
	00 00		 cmp	 DWORD PTR [eax+4], 256	; 00000100H
  00dd9	72 3f		 jb	 SHORT $L196042
  00ddb	8b 4d 08	 mov	 ecx, DWORD PTR _pMsg$[ebp]
  00dde	81 79 04 09 01
	00 00		 cmp	 DWORD PTR [ecx+4], 265	; 00000109H
  00de5	77 33		 ja	 SHORT $L196042

; 194  :     {
; 195  :         if(pMsg->wParam==VK_RETURN)

  00de7	8b 55 08	 mov	 edx, DWORD PTR _pMsg$[ebp]
  00dea	83 7a 08 0d	 cmp	 DWORD PTR [edx+8], 13	; 0000000dH
  00dee	75 2a		 jne	 SHORT $L196042

; 196  : 		{
; 197  : 			TranslateMessage(pMsg);

  00df0	8b f4		 mov	 esi, esp
  00df2	8b 45 08	 mov	 eax, DWORD PTR _pMsg$[ebp]
  00df5	50		 push	 eax
  00df6	ff 15 00 00 00
	00		 call	 DWORD PTR __imp__TranslateMessage@4
  00dfc	3b f4		 cmp	 esi, esp
  00dfe	e8 00 00 00 00	 call	 __RTC_CheckEsp

; 198  : 			DispatchMessage(pMsg);

  00e03	8b f4		 mov	 esi, esp
  00e05	8b 4d 08	 mov	 ecx, DWORD PTR _pMsg$[ebp]
  00e08	51		 push	 ecx
  00e09	ff 15 00 00 00
	00		 call	 DWORD PTR __imp__DispatchMessageA@4
  00e0f	3b f4		 cmp	 esi, esp
  00e11	e8 00 00 00 00	 call	 __RTC_CheckEsp

; 199  : 			return 0;

  00e16	33 c0		 xor	 eax, eax
  00e18	eb 0c		 jmp	 SHORT $L196041
$L196042:

; 200  : 		}
; 201  :     }
; 202  : 	return __super::PreTranslateMessage(pMsg);

  00e1a	8b 55 08	 mov	 edx, DWORD PTR _pMsg$[ebp]
  00e1d	52		 push	 edx
  00e1e	8b 4d fc	 mov	 ecx, DWORD PTR _this$[ebp]
  00e21	e8 00 00 00 00	 call	 ?PreTranslateMessage@CHtmlView@@UAEHPAUtagMSG@@@Z ; CHtmlView::PreTranslateMessage
$L196041:

; 203  : }

  00e26	5e		 pop	 esi
  00e27	83 c4 04	 add	 esp, 4
  00e2a	3b ec		 cmp	 ebp, esp
  00e2c	e8 00 00 00 00	 call	 __RTC_CheckEsp
  00e31	8b e5		 mov	 esp, ebp
  00e33	5d		 pop	 ebp
  00e34	c2 04 00	 ret	 4
?PreTranslateMessage@MyWebBrowserWnd@@UAEHPAUtagMSG@@@Z ENDP ; MyWebBrowserWnd::PreTranslateMessage
_TEXT	ENDS
EXTRN	?OnSize@CHtmlView@@IAEXIHH@Z:NEAR		; CHtmlView::OnSize
EXTRN	?MoveWindow@CWnd@@QAEXHHHHH@Z:NEAR		; CWnd::MoveWindow
; Function compile flags: /Odt /RTCsu
_TEXT	SEGMENT
_this$ = -4						; size = 4
_nType$ = 8						; size = 4
_cx$ = 12						; size = 4
_cy$ = 16						; size = 4
?OnSize@MyWebBrowserWnd@@IAEXIHH@Z PROC NEAR		; MyWebBrowserWnd::OnSize
; _this$ = ecx

; 206  : {

  00e40	55		 push	 ebp
  00e41	8b ec		 mov	 ebp, esp
  00e43	51		 push	 ecx
  00e44	56		 push	 esi
  00e45	c7 45 fc cc cc
	cc cc		 mov	 DWORD PTR [ebp-4], -858993460 ; ccccccccH
  00e4c	89 4d fc	 mov	 DWORD PTR _this$[ebp], ecx

; 207  : 	if (IsWindow (m_flash.m_hWnd))

  00e4f	8b f4		 mov	 esi, esp
  00e51	8b 45 fc	 mov	 eax, DWORD PTR _this$[ebp]
  00e54	8b 88 24 01 00
	00		 mov	 ecx, DWORD PTR [eax+292]
  00e5a	51		 push	 ecx
  00e5b	ff 15 00 00 00
	00		 call	 DWORD PTR __imp__IsWindow@4
  00e61	3b f4		 cmp	 esi, esp
  00e63	e8 00 00 00 00	 call	 __RTC_CheckEsp
  00e68	85 c0		 test	 eax, eax
  00e6a	74 1c		 je	 SHORT $L196050

; 208  : 		m_flash.MoveWindow(0,0,cx,cy);

  00e6c	6a 01		 push	 1
  00e6e	8b 55 10	 mov	 edx, DWORD PTR _cy$[ebp]
  00e71	52		 push	 edx
  00e72	8b 45 0c	 mov	 eax, DWORD PTR _cx$[ebp]
  00e75	50		 push	 eax
  00e76	6a 00		 push	 0
  00e78	6a 00		 push	 0
  00e7a	8b 4d fc	 mov	 ecx, DWORD PTR _this$[ebp]
  00e7d	81 c1 04 01 00
	00		 add	 ecx, 260		; 00000104H
  00e83	e8 00 00 00 00	 call	 ?MoveWindow@CWnd@@QAEXHHHHH@Z ; CWnd::MoveWindow
$L196050:

; 209  : 
; 210  : 	__super::OnSize(nType,cx,cy);

  00e88	8b 4d 10	 mov	 ecx, DWORD PTR _cy$[ebp]
  00e8b	51		 push	 ecx
  00e8c	8b 55 0c	 mov	 edx, DWORD PTR _cx$[ebp]
  00e8f	52		 push	 edx
  00e90	8b 45 08	 mov	 eax, DWORD PTR _nType$[ebp]
  00e93	50		 push	 eax
  00e94	8b 4d fc	 mov	 ecx, DWORD PTR _this$[ebp]
  00e97	e8 00 00 00 00	 call	 ?OnSize@CHtmlView@@IAEXIHH@Z ; CHtmlView::OnSize

; 211  : }

  00e9c	5e		 pop	 esi
  00e9d	83 c4 04	 add	 esp, 4
  00ea0	3b ec		 cmp	 ebp, esp
  00ea2	e8 00 00 00 00	 call	 __RTC_CheckEsp
  00ea7	8b e5		 mov	 esp, ebp
  00ea9	5d		 pop	 ebp
  00eaa	c2 0c 00	 ret	 12			; 0000000cH
?OnSize@MyWebBrowserWnd@@IAEXIHH@Z ENDP			; MyWebBrowserWnd::OnSize
_TEXT	ENDS
PUBLIC	??8ATL@@YA_NPBDABV?$CStringT@DV?$StrTraitMFC_DLL@DV?$ChTraitsCRT@D@ATL@@@@@0@@Z ; ATL::operator==
EXTRN	?OnDocumentComplete@CHtmlView@@UAEXPBD@Z:NEAR	; CHtmlView::OnDocumentComplete
xdata$x	SEGMENT
$T197682 DD	0ffffffffH
	DD	FLAT:$L197677
	DD	00H
	DD	FLAT:$L197678
$T197680 DD	019930520H
	DD	02H
	DD	FLAT:$T197682
	DD	2 DUP(00H)
	DD	2 DUP(00H)
; Function compile flags: /Odt /RTCsu
xdata$x	ENDS
_TEXT	SEGMENT
$T197676 = -72						; size = 28
$T197675 = -44						; size = 28
_this$ = -16						; size = 4
__$EHRec$ = -12						; size = 12
_lpszURL$ = 8						; size = 4
?OnDocumentComplete@MyWebBrowserWnd@@UAEXPBD@Z PROC NEAR ; MyWebBrowserWnd::OnDocumentComplete
; _this$ = ecx

; 214  : {

  00eb0	55		 push	 ebp
  00eb1	8b ec		 mov	 ebp, esp
  00eb3	6a ff		 push	 -1
  00eb5	68 00 00 00 00	 push	 __ehhandler$?OnDocumentComplete@MyWebBrowserWnd@@UAEXPBD@Z
  00eba	64 a1 00 00 00
	00		 mov	 eax, DWORD PTR fs:__except_list
  00ec0	50		 push	 eax
  00ec1	64 89 25 00 00
	00 00		 mov	 DWORD PTR fs:__except_list, esp
  00ec8	83 ec 3c	 sub	 esp, 60			; 0000003cH
  00ecb	56		 push	 esi
  00ecc	57		 push	 edi
  00ecd	51		 push	 ecx
  00ece	8d 7d b8	 lea	 edi, DWORD PTR [ebp-72]
  00ed1	b9 0f 00 00 00	 mov	 ecx, 15			; 0000000fH
  00ed6	b8 cc cc cc cc	 mov	 eax, -858993460		; ccccccccH
  00edb	f3 ab		 rep stosd
  00edd	59		 pop	 ecx
  00ede	89 4d f0	 mov	 DWORD PTR _this$[ebp], ecx

; 215  : 	YL_Log("log_webrec.txt",LOG_DEBUG,"OnDocumentComplete: ", "%s", lpszURL);

  00ee1	8b f4		 mov	 esi, esp
  00ee3	68 00 00 00 00	 push	 OFFSET FLAT:$SG196058
  00ee8	8d 4d d4	 lea	 ecx, DWORD PTR $T197675[ebp]
  00eeb	ff 15 00 00 00
	00		 call	 DWORD PTR __imp_??0?$basic_string@DU?$char_traits@D@std@@V?$allocator@D@2@@std@@QAE@PBD@Z
  00ef1	3b f4		 cmp	 esi, esp
  00ef3	e8 00 00 00 00	 call	 __RTC_CheckEsp
  00ef8	c7 45 fc 00 00
	00 00		 mov	 DWORD PTR __$EHRec$[ebp+8], 0
  00eff	8b f4		 mov	 esi, esp
  00f01	68 00 00 00 00	 push	 OFFSET FLAT:$SG196059
  00f06	8d 4d b8	 lea	 ecx, DWORD PTR $T197676[ebp]
  00f09	ff 15 00 00 00
	00		 call	 DWORD PTR __imp_??0?$basic_string@DU?$char_traits@D@std@@V?$allocator@D@2@@std@@QAE@PBD@Z
  00f0f	3b f4		 cmp	 esi, esp
  00f11	e8 00 00 00 00	 call	 __RTC_CheckEsp
  00f16	c6 45 fc 01	 mov	 BYTE PTR __$EHRec$[ebp+8], 1
  00f1a	8b f4		 mov	 esi, esp
  00f1c	8b 45 08	 mov	 eax, DWORD PTR _lpszURL$[ebp]
  00f1f	50		 push	 eax
  00f20	68 00 00 00 00	 push	 OFFSET FLAT:$SG196057
  00f25	8d 4d d4	 lea	 ecx, DWORD PTR $T197675[ebp]
  00f28	51		 push	 ecx
  00f29	6a 00		 push	 0
  00f2b	8d 55 b8	 lea	 edx, DWORD PTR $T197676[ebp]
  00f2e	52		 push	 edx
  00f2f	ff 15 00 00 00
	00		 call	 DWORD PTR __imp_?YL_Log@@YAXABV?$basic_string@DU?$char_traits@D@std@@V?$allocator@D@2@@std@@H0PBDZZ
  00f35	83 c4 14	 add	 esp, 20			; 00000014H
  00f38	3b f4		 cmp	 esi, esp
  00f3a	e8 00 00 00 00	 call	 __RTC_CheckEsp
  00f3f	c6 45 fc 00	 mov	 BYTE PTR __$EHRec$[ebp+8], 0
  00f43	8b f4		 mov	 esi, esp
  00f45	8d 4d b8	 lea	 ecx, DWORD PTR $T197676[ebp]
  00f48	ff 15 00 00 00
	00		 call	 DWORD PTR __imp_??1?$basic_string@DU?$char_traits@D@std@@V?$allocator@D@2@@std@@QAE@XZ
  00f4e	3b f4		 cmp	 esi, esp
  00f50	e8 00 00 00 00	 call	 __RTC_CheckEsp
  00f55	c7 45 fc ff ff
	ff ff		 mov	 DWORD PTR __$EHRec$[ebp+8], -1
  00f5c	8b f4		 mov	 esi, esp
  00f5e	8d 4d d4	 lea	 ecx, DWORD PTR $T197675[ebp]
  00f61	ff 15 00 00 00
	00		 call	 DWORD PTR __imp_??1?$basic_string@DU?$char_traits@D@std@@V?$allocator@D@2@@std@@QAE@XZ
  00f67	3b f4		 cmp	 esi, esp
  00f69	e8 00 00 00 00	 call	 __RTC_CheckEsp

; 216  : 	if( lpszURL == m_strURL || strstr(lpszURL, "SwfGamePlaying.htm") != NULL) 

  00f6e	8b 45 f0	 mov	 eax, DWORD PTR _this$[ebp]
  00f71	05 00 01 00 00	 add	 eax, 256		; 00000100H
  00f76	50		 push	 eax
  00f77	8b 4d 08	 mov	 ecx, DWORD PTR _lpszURL$[ebp]
  00f7a	51		 push	 ecx
  00f7b	e8 00 00 00 00	 call	 ??8ATL@@YA_NPBDABV?$CStringT@DV?$StrTraitMFC_DLL@DV?$ChTraitsCRT@D@ATL@@@@@0@@Z ; ATL::operator==
  00f80	83 c4 08	 add	 esp, 8
  00f83	0f b6 d0	 movzx	 edx, al
  00f86	85 d2		 test	 edx, edx
  00f88	75 1f		 jne	 SHORT $L196061
  00f8a	8b f4		 mov	 esi, esp
  00f8c	68 00 00 00 00	 push	 OFFSET FLAT:$SG196062
  00f91	8b 45 08	 mov	 eax, DWORD PTR _lpszURL$[ebp]
  00f94	50		 push	 eax
  00f95	ff 15 00 00 00
	00		 call	 DWORD PTR __imp__strstr
  00f9b	83 c4 08	 add	 esp, 8
  00f9e	3b f4		 cmp	 esi, esp
  00fa0	e8 00 00 00 00	 call	 __RTC_CheckEsp
  00fa5	85 c0		 test	 eax, eax
  00fa7	74 34		 je	 SHORT $L196060
$L196061:

; 217  : 	{
; 218  : 		m_bReady = TRUE;

  00fa9	8b 4d f0	 mov	 ecx, DWORD PTR _this$[ebp]
  00fac	c7 81 f8 00 00
	00 01 00 00 00	 mov	 DWORD PTR [ecx+248], 1

; 219  : 		SetTimer( TIMER_HIDE_LOADING, ELAPSE_TIMER_HIDE_LOADING, NULL );

  00fb6	6a 00		 push	 0
  00fb8	68 f4 01 00 00	 push	 500			; 000001f4H
  00fbd	68 6d 04 00 00	 push	 1133			; 0000046dH
  00fc2	8b 4d f0	 mov	 ecx, DWORD PTR _this$[ebp]
  00fc5	e8 00 00 00 00	 call	 ?SetTimer@CWnd@@QAEIIIP6GXPAUHWND__@@IIK@Z@Z ; CWnd::SetTimer

; 220  : 		if( m_bHomePage )

  00fca	8b 55 f0	 mov	 edx, DWORD PTR _this$[ebp]
  00fcd	0f b6 82 c4 01
	00 00		 movzx	 eax, BYTE PTR [edx+452]
  00fd4	85 c0		 test	 eax, eax
  00fd6	74 05		 je	 SHORT $L196060

; 221  : 		{
; 222  : 			CHTTPControl::HTTPFinish_TodayRecommend();

  00fd8	e8 00 00 00 00	 call	 ?HTTPFinish_TodayRecommend@CHTTPControl@@SAXXZ ; CHTTPControl::HTTPFinish_TodayRecommend
$L196060:

; 223  : 		}
; 224  : 	}
; 225  : 	__super::OnDocumentComplete(lpszURL);

  00fdd	8b 4d 08	 mov	 ecx, DWORD PTR _lpszURL$[ebp]
  00fe0	51		 push	 ecx
  00fe1	8b 4d f0	 mov	 ecx, DWORD PTR _this$[ebp]
  00fe4	e8 00 00 00 00	 call	 ?OnDocumentComplete@CHtmlView@@UAEXPBD@Z ; CHtmlView::OnDocumentComplete

; 226  : }

  00fe9	8b 4d f4	 mov	 ecx, DWORD PTR __$EHRec$[ebp]
  00fec	64 89 0d 00 00
	00 00		 mov	 DWORD PTR fs:__except_list, ecx
  00ff3	5f		 pop	 edi
  00ff4	5e		 pop	 esi
  00ff5	83 c4 48	 add	 esp, 72			; 00000048H
  00ff8	3b ec		 cmp	 ebp, esp
  00ffa	e8 00 00 00 00	 call	 __RTC_CheckEsp
  00fff	8b e5		 mov	 esp, ebp
  01001	5d		 pop	 ebp
  01002	c2 04 00	 ret	 4
_TEXT	ENDS
text$x	SEGMENT
$L197677:
  001c0	8b f4		 mov	 esi, esp
  001c2	8d 4d d4	 lea	 ecx, DWORD PTR $T197675[ebp]
  001c5	ff 15 00 00 00
	00		 call	 DWORD PTR __imp_??1?$basic_string@DU?$char_traits@D@std@@V?$allocator@D@2@@std@@QAE@XZ
  001cb	3b f4		 cmp	 esi, esp
  001cd	e9 00 00 00 00	 jmp	 __RTC_CheckEsp
$L197678:
  001d2	8b f4		 mov	 esi, esp
  001d4	8d 4d b8	 lea	 ecx, DWORD PTR $T197676[ebp]
  001d7	ff 15 00 00 00
	00		 call	 DWORD PTR __imp_??1?$basic_string@DU?$char_traits@D@std@@V?$allocator@D@2@@std@@QAE@XZ
  001dd	3b f4		 cmp	 esi, esp
  001df	e9 00 00 00 00	 jmp	 __RTC_CheckEsp
__ehhandler$?OnDocumentComplete@MyWebBrowserWnd@@UAEXPBD@Z:
  001e4	b8 00 00 00 00	 mov	 eax, OFFSET FLAT:$T197680
  001e9	e9 00 00 00 00	 jmp	 ___CxxFrameHandler
text$x	ENDS
?OnDocumentComplete@MyWebBrowserWnd@@UAEXPBD@Z ENDP	; MyWebBrowserWnd::OnDocumentComplete
EXTRN	?GetStyle@CWnd@@QBEKXZ:NEAR			; CWnd::GetStyle
EXTRN	?OnTimer@CWnd@@IAEXI@Z:NEAR			; CWnd::OnTimer
EXTRN	__imp__AdjustWindowRectEx@16:NEAR
EXTRN	?MoveWindow@CWnd@@QAEXPBUtagRECT@@H@Z:NEAR	; CWnd::MoveWindow
; Function compile flags: /Odt /RTCsu
_TEXT	SEGMENT
_rcNull$196076 = -52					; size = 16
_rcClient$196074 = -28					; size = 16
_dwCurTime$196069 = -8					; size = 4
_this$ = -4						; size = 4
_nIDEvent$ = 8						; size = 4
?OnTimer@MyWebBrowserWnd@@IAEXI@Z PROC NEAR		; MyWebBrowserWnd::OnTimer
; _this$ = ecx

; 229  : {

  01010	55		 push	 ebp
  01011	8b ec		 mov	 ebp, esp
  01013	83 ec 38	 sub	 esp, 56			; 00000038H
  01016	56		 push	 esi
  01017	57		 push	 edi
  01018	51		 push	 ecx
  01019	8d 7d c8	 lea	 edi, DWORD PTR [ebp-56]
  0101c	b9 0e 00 00 00	 mov	 ecx, 14			; 0000000eH
  01021	b8 cc cc cc cc	 mov	 eax, -858993460		; ccccccccH
  01026	f3 ab		 rep stosd
  01028	59		 pop	 ecx
  01029	89 4d fc	 mov	 DWORD PTR _this$[ebp], ecx

; 230  : 	if( nIDEvent == TIMER_CHECK_NAVIGATE )

  0102c	81 7d 08 6c 04
	00 00		 cmp	 DWORD PTR _nIDEvent$[ebp], 1132 ; 0000046cH
  01033	75 5f		 jne	 SHORT $L196068

; 231  : 	{
; 232  : 		DWORD dwCurTime = GetTickCount();

  01035	8b f4		 mov	 esi, esp
  01037	ff 15 00 00 00
	00		 call	 DWORD PTR __imp__GetTickCount@0
  0103d	3b f4		 cmp	 esi, esp
  0103f	e8 00 00 00 00	 call	 __RTC_CheckEsp
  01044	89 45 f8	 mov	 DWORD PTR _dwCurTime$196069[ebp], eax

; 233  : 		if( dwCurTime - m_dwStartShowTime > 4000 )

  01047	8b 45 fc	 mov	 eax, DWORD PTR _this$[ebp]
  0104a	8b 4d f8	 mov	 ecx, DWORD PTR _dwCurTime$196069[ebp]
  0104d	2b 88 fc 00 00
	00		 sub	 ecx, DWORD PTR [eax+252]
  01053	81 f9 a0 0f 00
	00		 cmp	 ecx, 4000		; 00000fa0H
  01059	76 34		 jbe	 SHORT $L196070

; 234  : 		{
; 235  : 			KillTimer( nIDEvent );

  0105b	8b 55 08	 mov	 edx, DWORD PTR _nIDEvent$[ebp]
  0105e	52		 push	 edx
  0105f	8b 4d fc	 mov	 ecx, DWORD PTR _this$[ebp]
  01062	e8 00 00 00 00	 call	 ?KillTimer@CWnd@@QAEHI@Z ; CWnd::KillTimer

; 236  : 			if( m_bReady == FALSE )

  01067	8b 45 fc	 mov	 eax, DWORD PTR _this$[ebp]
  0106a	83 b8 f8 00 00
	00 00		 cmp	 DWORD PTR [eax+248], 0
  01071	75 1c		 jne	 SHORT $L196070

; 237  : 			{
; 238  : 				ShowErrorPage();

  01073	8b 4d fc	 mov	 ecx, DWORD PTR _this$[ebp]
  01076	e8 00 00 00 00	 call	 ?ShowErrorPage@MyWebBrowserWnd@@QAEXXZ ; MyWebBrowserWnd::ShowErrorPage

; 239  : 				SetTimer( TIMER_HIDE_LOADING, ELAPSE_TIMER_HIDE_LOADING, NULL );

  0107b	6a 00		 push	 0
  0107d	68 f4 01 00 00	 push	 500			; 000001f4H
  01082	68 6d 04 00 00	 push	 1133			; 0000046dH
  01087	8b 4d fc	 mov	 ecx, DWORD PTR _this$[ebp]
  0108a	e8 00 00 00 00	 call	 ?SetTimer@CWnd@@QAEIIIP6GXPAUHWND__@@IIK@Z@Z ; CWnd::SetTimer
$L196070:

; 240  : 			}
; 241  : 		}
; 242  : 	}else

  0108f	e9 d5 00 00 00	 jmp	 $L196072
$L196068:

; 243  : 	if( nIDEvent == TIMER_HIDE_LOADING )

  01094	81 7d 08 6d 04
	00 00		 cmp	 DWORD PTR _nIDEvent$[ebp], 1133 ; 0000046dH
  0109b	0f 85 c8 00 00
	00		 jne	 $L196072

; 244  : 	{
; 245  : 		KillTimer( nIDEvent );

  010a1	8b 4d 08	 mov	 ecx, DWORD PTR _nIDEvent$[ebp]
  010a4	51		 push	 ecx
  010a5	8b 4d fc	 mov	 ecx, DWORD PTR _this$[ebp]
  010a8	e8 00 00 00 00	 call	 ?KillTimer@CWnd@@QAEHI@Z ; CWnd::KillTimer

; 246  : 
; 247  : 		CRect rcClient;

  010ad	8d 4d e4	 lea	 ecx, DWORD PTR _rcClient$196074[ebp]
  010b0	e8 00 00 00 00	 call	 ??0CRect@@QAE@XZ	; CRect::CRect

; 248  : 		GetClientRect (&rcClient);

  010b5	8d 55 e4	 lea	 edx, DWORD PTR _rcClient$196074[ebp]
  010b8	52		 push	 edx
  010b9	8b 4d fc	 mov	 ecx, DWORD PTR _this$[ebp]
  010bc	e8 00 00 00 00	 call	 ?GetClientRect@CWnd@@QBEXPAUtagRECT@@@Z ; CWnd::GetClientRect

; 249  : 		::AdjustWindowRectEx (&rcClient, m_wndBrowser.GetStyle (), FALSE, WS_EX_CLIENTEDGE);

  010c1	8b f4		 mov	 esi, esp
  010c3	68 00 02 00 00	 push	 512			; 00000200H
  010c8	6a 00		 push	 0
  010ca	8b 4d fc	 mov	 ecx, DWORD PTR _this$[ebp]
  010cd	81 c1 98 00 00
	00		 add	 ecx, 152		; 00000098H
  010d3	e8 00 00 00 00	 call	 ?GetStyle@CWnd@@QBEKXZ	; CWnd::GetStyle
  010d8	50		 push	 eax
  010d9	8d 45 e4	 lea	 eax, DWORD PTR _rcClient$196074[ebp]
  010dc	50		 push	 eax
  010dd	ff 15 00 00 00
	00		 call	 DWORD PTR __imp__AdjustWindowRectEx@16
  010e3	3b f4		 cmp	 esi, esp
  010e5	e8 00 00 00 00	 call	 __RTC_CheckEsp

; 250  : 		m_wndBrowser.MoveWindow (&rcClient, FALSE);

  010ea	6a 00		 push	 0
  010ec	8d 4d e4	 lea	 ecx, DWORD PTR _rcClient$196074[ebp]
  010ef	51		 push	 ecx
  010f0	8b 4d fc	 mov	 ecx, DWORD PTR _this$[ebp]
  010f3	81 c1 98 00 00
	00		 add	 ecx, 152		; 00000098H
  010f9	e8 00 00 00 00	 call	 ?MoveWindow@CWnd@@QAEXPBUtagRECT@@H@Z ; CWnd::MoveWindow

; 251  : 		m_wndBrowser.ShowWindow (SW_SHOW);

  010fe	6a 05		 push	 5
  01100	8b 4d fc	 mov	 ecx, DWORD PTR _this$[ebp]
  01103	81 c1 98 00 00
	00		 add	 ecx, 152		; 00000098H
  01109	e8 00 00 00 00	 call	 ?ShowWindow@CWnd@@QAEHH@Z ; CWnd::ShowWindow

; 252  : 
; 253  : 		if (IsWindow (m_flash.m_hWnd))

  0110e	8b f4		 mov	 esi, esp
  01110	8b 55 fc	 mov	 edx, DWORD PTR _this$[ebp]
  01113	8b 82 24 01 00
	00		 mov	 eax, DWORD PTR [edx+292]
  01119	50		 push	 eax
  0111a	ff 15 00 00 00
	00		 call	 DWORD PTR __imp__IsWindow@4
  01120	3b f4		 cmp	 esi, esp
  01122	e8 00 00 00 00	 call	 __RTC_CheckEsp
  01127	85 c0		 test	 eax, eax
  01129	74 34		 je	 SHORT $L196075

; 254  : 		{
; 255  : 			CRect rcNull (0, 0, 0, 0);

  0112b	6a 00		 push	 0
  0112d	6a 00		 push	 0
  0112f	6a 00		 push	 0
  01131	6a 00		 push	 0
  01133	8d 4d cc	 lea	 ecx, DWORD PTR _rcNull$196076[ebp]
  01136	e8 00 00 00 00	 call	 ??0CRect@@QAE@HHHH@Z	; CRect::CRect

; 256  : 			m_flash.MoveWindow (&rcNull, FALSE);

  0113b	6a 00		 push	 0
  0113d	8d 4d cc	 lea	 ecx, DWORD PTR _rcNull$196076[ebp]
  01140	51		 push	 ecx
  01141	8b 4d fc	 mov	 ecx, DWORD PTR _this$[ebp]
  01144	81 c1 04 01 00
	00		 add	 ecx, 260		; 00000104H
  0114a	e8 00 00 00 00	 call	 ?MoveWindow@CWnd@@QAEXPBUtagRECT@@H@Z ; CWnd::MoveWindow

; 257  : 			m_flash.ShowWindow(SW_HIDE);

  0114f	6a 00		 push	 0
  01151	8b 4d fc	 mov	 ecx, DWORD PTR _this$[ebp]
  01154	81 c1 04 01 00
	00		 add	 ecx, 260		; 00000104H
  0115a	e8 00 00 00 00	 call	 ?ShowWindow@CWnd@@QAEHH@Z ; CWnd::ShowWindow
$L196075:

; 258  : 		}
; 259  : 
; 260  : // 		Refresh ();
; 261  : 		Refresh2 (REFRESH_IFEXPIRED);

  0115f	6a 01		 push	 1
  01161	8b 4d fc	 mov	 ecx, DWORD PTR _this$[ebp]
  01164	e8 00 00 00 00	 call	 ?Refresh2@CHtmlView@@QAEXH@Z ; CHtmlView::Refresh2
$L196072:

; 262  : 	}
; 263  : 	__super::OnTimer(nIDEvent);

  01169	8b 55 08	 mov	 edx, DWORD PTR _nIDEvent$[ebp]
  0116c	52		 push	 edx
  0116d	8b 4d fc	 mov	 ecx, DWORD PTR _this$[ebp]
  01170	e8 00 00 00 00	 call	 ?OnTimer@CWnd@@IAEXI@Z	; CWnd::OnTimer

; 264  : }

  01175	52		 push	 edx
  01176	8b cd		 mov	 ecx, ebp
  01178	50		 push	 eax
  01179	8d 15 00 00 00
	00		 lea	 edx, DWORD PTR $L197687
  0117f	e8 00 00 00 00	 call	 @_RTC_CheckStackVars@8
  01184	58		 pop	 eax
  01185	5a		 pop	 edx
  01186	5f		 pop	 edi
  01187	5e		 pop	 esi
  01188	83 c4 38	 add	 esp, 56			; 00000038H
  0118b	3b ec		 cmp	 ebp, esp
  0118d	e8 00 00 00 00	 call	 __RTC_CheckEsp
  01192	8b e5		 mov	 esp, ebp
  01194	5d		 pop	 ebp
  01195	c2 04 00	 ret	 4
$L197687:
  01198	02 00 00 00	 DD	 2
  0119c	00 00 00 00	 DD	 $L197686
$L197686:
  011a0	e4 ff ff ff	 DD	 -28			; ffffffe4H
  011a4	10 00 00 00	 DD	 16			; 00000010H
  011a8	00 00 00 00	 DD	 $L197684
  011ac	cc ff ff ff	 DD	 -52			; ffffffccH
  011b0	10 00 00 00	 DD	 16			; 00000010H
  011b4	00 00 00 00	 DD	 $L197685
$L197685:
  011b8	72		 DB	 114			; 00000072H
  011b9	63		 DB	 99			; 00000063H
  011ba	4e		 DB	 78			; 0000004eH
  011bb	75		 DB	 117			; 00000075H
  011bc	6c		 DB	 108			; 0000006cH
  011bd	6c		 DB	 108			; 0000006cH
  011be	00		 DB	 0
$L197684:
  011bf	72		 DB	 114			; 00000072H
  011c0	63		 DB	 99			; 00000063H
  011c1	43		 DB	 67			; 00000043H
  011c2	6c		 DB	 108			; 0000006cH
  011c3	69		 DB	 105			; 00000069H
  011c4	65		 DB	 101			; 00000065H
  011c5	6e		 DB	 110			; 0000006eH
  011c6	74		 DB	 116			; 00000074H
  011c7	00		 DB	 0
?OnTimer@MyWebBrowserWnd@@IAEXI@Z ENDP			; MyWebBrowserWnd::OnTimer
_TEXT	ENDS
EXTRN	?GetInstance@CWebManager@@SAPAV1@XZ:NEAR	; CWebManager::GetInstance
EXTRN	?CallWebFromGBox@CWebManager@@QAEXPAVCHtmlView@@PAUCallJSParam@@@Z:NEAR ; CWebManager::CallWebFromGBox
; Function compile flags: /Odt /RTCsu
_TEXT	SEGMENT
_pParam$ = -12						; size = 4
_phtml$ = -8						; size = 4
_this$ = -4						; size = 4
_w$ = 8							; size = 4
_l$ = 12						; size = 4
?OnCallJavaScript@MyWebBrowserWnd@@QAEJIJ@Z PROC NEAR	; MyWebBrowserWnd::OnCallJavaScript
; _this$ = ecx

; 267  : {

  011d0	55		 push	 ebp
  011d1	8b ec		 mov	 ebp, esp
  011d3	83 ec 0c	 sub	 esp, 12			; 0000000cH
  011d6	c7 45 f4 cc cc
	cc cc		 mov	 DWORD PTR [ebp-12], -858993460 ; ccccccccH
  011dd	c7 45 f8 cc cc
	cc cc		 mov	 DWORD PTR [ebp-8], -858993460 ; ccccccccH
  011e4	c7 45 fc cc cc
	cc cc		 mov	 DWORD PTR [ebp-4], -858993460 ; ccccccccH
  011eb	89 4d fc	 mov	 DWORD PTR _this$[ebp], ecx

; 268  : 	CHtmlView* phtml = (CHtmlView*)w;

  011ee	8b 45 08	 mov	 eax, DWORD PTR _w$[ebp]
  011f1	89 45 f8	 mov	 DWORD PTR _phtml$[ebp], eax

; 269  : // 	string* pStr = (string*)l;
; 270  : 	CallJSParam * pParam = (CallJSParam*) l;

  011f4	8b 4d 0c	 mov	 ecx, DWORD PTR _l$[ebp]
  011f7	89 4d f4	 mov	 DWORD PTR _pParam$[ebp], ecx

; 271  : 
; 272  : 	CWebManager::GetInstance()->CallWebFromGBox( phtml, pParam/**pStr */);

  011fa	8b 55 f4	 mov	 edx, DWORD PTR _pParam$[ebp]
  011fd	52		 push	 edx
  011fe	8b 45 f8	 mov	 eax, DWORD PTR _phtml$[ebp]
  01201	50		 push	 eax
  01202	e8 00 00 00 00	 call	 ?GetInstance@CWebManager@@SAPAV1@XZ ; CWebManager::GetInstance
  01207	8b c8		 mov	 ecx, eax
  01209	e8 00 00 00 00	 call	 ?CallWebFromGBox@CWebManager@@QAEXPAVCHtmlView@@PAUCallJSParam@@@Z ; CWebManager::CallWebFromGBox

; 273  : 	/*delete pStr;*/
; 274  : 
; 275  : 	return 0;

  0120e	33 c0		 xor	 eax, eax

; 276  : }

  01210	83 c4 0c	 add	 esp, 12			; 0000000cH
  01213	3b ec		 cmp	 ebp, esp
  01215	e8 00 00 00 00	 call	 __RTC_CheckEsp
  0121a	8b e5		 mov	 esp, ebp
  0121c	5d		 pop	 ebp
  0121d	c2 08 00	 ret	 8
?OnCallJavaScript@MyWebBrowserWnd@@QAEJIJ@Z ENDP	; MyWebBrowserWnd::OnCallJavaScript
_TEXT	ENDS
EXTRN	__imp_?GetString@?$CSimpleStringT@D$00@ATL@@QBEPBDXZ:NEAR
; Function compile flags: /Odt /RTCsu
_TEXT	SEGMENT
tv130 = -12						; size = 4
$T197690 = -8						; size = 4
_this$ = -4						; size = 4
_psz$ = 8						; size = 4
?IWebRefreshOb_Refresh@MyWebBrowserWnd@@UAEXPBD@Z PROC NEAR ; MyWebBrowserWnd::IWebRefreshOb_Refresh
; _this$ = ecx

; 279  : {

  01220	55		 push	 ebp
  01221	8b ec		 mov	 ebp, esp
  01223	83 ec 0c	 sub	 esp, 12			; 0000000cH
  01226	56		 push	 esi
  01227	c7 45 f4 cc cc
	cc cc		 mov	 DWORD PTR [ebp-12], -858993460 ; ccccccccH
  0122e	c7 45 f8 cc cc
	cc cc		 mov	 DWORD PTR [ebp-8], -858993460 ; ccccccccH
  01235	c7 45 fc cc cc
	cc cc		 mov	 DWORD PTR [ebp-4], -858993460 ; ccccccccH
  0123c	89 4d fc	 mov	 DWORD PTR _this$[ebp], ecx

; 280  : 	if( m_bSucceed == FALSE )

  0123f	8b 45 fc	 mov	 eax, DWORD PTR _this$[ebp]
  01242	83 78 04 00	 cmp	 DWORD PTR [eax+4], 0
  01246	75 6e		 jne	 SHORT $L196089

; 281  : 	{
; 282  : 		if( strstr( psz, m_strURL.GetString() ) != NULL )

  01248	8b 4d fc	 mov	 ecx, DWORD PTR _this$[ebp]
  0124b	83 c1 10	 add	 ecx, 16			; 00000010H
  0124e	8b f4		 mov	 esi, esp
  01250	ff 15 00 00 00
	00		 call	 DWORD PTR __imp_?GetString@?$CSimpleStringT@D$00@ATL@@QBEPBDXZ
  01256	3b f4		 cmp	 esi, esp
  01258	e8 00 00 00 00	 call	 __RTC_CheckEsp
  0125d	8b f4		 mov	 esi, esp
  0125f	50		 push	 eax
  01260	8b 4d 08	 mov	 ecx, DWORD PTR _psz$[ebp]
  01263	51		 push	 ecx
  01264	ff 15 00 00 00
	00		 call	 DWORD PTR __imp__strstr
  0126a	83 c4 08	 add	 esp, 8
  0126d	3b f4		 cmp	 esi, esp
  0126f	e8 00 00 00 00	 call	 __RTC_CheckEsp
  01274	85 c0		 test	 eax, eax
  01276	74 3e		 je	 SHORT $L196089

; 283  : 		{
; 284  : 			Navigate( m_strURL.GetString() );

  01278	8b 4d fc	 mov	 ecx, DWORD PTR _this$[ebp]
  0127b	83 c1 10	 add	 ecx, 16			; 00000010H
  0127e	8b f4		 mov	 esi, esp
  01280	ff 15 00 00 00
	00		 call	 DWORD PTR __imp_?GetString@?$CSimpleStringT@D$00@ATL@@QBEPBDXZ
  01286	3b f4		 cmp	 esi, esp
  01288	e8 00 00 00 00	 call	 __RTC_CheckEsp
  0128d	83 ec 1c	 sub	 esp, 28			; 0000001cH
  01290	8b cc		 mov	 ecx, esp
  01292	89 65 f8	 mov	 DWORD PTR $T197690[ebp], esp
  01295	8b f4		 mov	 esi, esp
  01297	50		 push	 eax
  01298	ff 15 00 00 00
	00		 call	 DWORD PTR __imp_??0?$basic_string@DU?$char_traits@D@std@@V?$allocator@D@2@@std@@QAE@PBD@Z
  0129e	3b f4		 cmp	 esi, esp
  012a0	e8 00 00 00 00	 call	 __RTC_CheckEsp
  012a5	89 45 f4	 mov	 DWORD PTR tv130[ebp], eax
  012a8	8b 4d fc	 mov	 ecx, DWORD PTR _this$[ebp]
  012ab	81 e9 f0 00 00
	00		 sub	 ecx, 240		; 000000f0H
  012b1	e8 00 00 00 00	 call	 ?Navigate@MyWebBrowserWnd@@QAEXV?$basic_string@DU?$char_traits@D@std@@V?$allocator@D@2@@std@@@Z ; MyWebBrowserWnd::Navigate
$L196089:

; 285  : 		}
; 286  : 	}
; 287  : }

  012b6	5e		 pop	 esi
  012b7	83 c4 0c	 add	 esp, 12			; 0000000cH
  012ba	3b ec		 cmp	 ebp, esp
  012bc	e8 00 00 00 00	 call	 __RTC_CheckEsp
  012c1	8b e5		 mov	 esp, ebp
  012c3	5d		 pop	 ebp
  012c4	c2 04 00	 ret	 4
?IWebRefreshOb_Refresh@MyWebBrowserWnd@@UAEXPBD@Z ENDP	; MyWebBrowserWnd::IWebRefreshOb_Refresh
_TEXT	ENDS
PUBLIC	?SetHomePage@MyWebBrowserWnd@@QAEX_N@Z		; MyWebBrowserWnd::SetHomePage
; Function compile flags: /Odt /RTCsu
_TEXT	SEGMENT
_this$ = -4						; size = 4
_bHomePage$ = 8						; size = 1
?SetHomePage@MyWebBrowserWnd@@QAEX_N@Z PROC NEAR	; MyWebBrowserWnd::SetHomePage
; _this$ = ecx

; 290  : {

  012d0	55		 push	 ebp
  012d1	8b ec		 mov	 ebp, esp
  012d3	51		 push	 ecx
  012d4	c7 45 fc cc cc
	cc cc		 mov	 DWORD PTR [ebp-4], -858993460 ; ccccccccH
  012db	89 4d fc	 mov	 DWORD PTR _this$[ebp], ecx

; 291  : 	m_bHomePage = bHomePage;

  012de	8b 45 fc	 mov	 eax, DWORD PTR _this$[ebp]
  012e1	8a 4d 08	 mov	 cl, BYTE PTR _bHomePage$[ebp]
  012e4	88 88 c4 01 00
	00		 mov	 BYTE PTR [eax+452], cl

; 292  : }

  012ea	8b e5		 mov	 esp, ebp
  012ec	5d		 pop	 ebp
  012ed	c2 04 00	 ret	 4
?SetHomePage@MyWebBrowserWnd@@QAEX_N@Z ENDP		; MyWebBrowserWnd::SetHomePage
_TEXT	ENDS
EXTRN	__imp_?Compare@?$CStringT@DV?$StrTraitMFC_DLL@DV?$ChTraitsCRT@D@ATL@@@@@ATL@@QBEHPBD@Z:NEAR
; Function compile flags: /Odt /RTCsu
; File d:\program files (x86)\microsoft visual studio .net 2003\vc7\atlmfc\include\cstringt.h
;	COMDAT ??8ATL@@YA_NABV?$CStringT@DV?$StrTraitMFC_DLL@DV?$ChTraitsCRT@D@ATL@@@@@0@PBD@Z
_TEXT	SEGMENT
_str1$ = 8						; size = 4
_psz2$ = 12						; size = 4
??8ATL@@YA_NABV?$CStringT@DV?$StrTraitMFC_DLL@DV?$ChTraitsCRT@D@ATL@@@@@0@PBD@Z PROC NEAR ; ATL::operator==, COMDAT

; 2087 : 	{

  00000	55		 push	 ebp
  00001	8b ec		 mov	 ebp, esp
  00003	56		 push	 esi

; 2088 : 		return( str1.Compare( psz2 ) == 0 );

  00004	8b f4		 mov	 esi, esp
  00006	8b 45 0c	 mov	 eax, DWORD PTR _psz2$[ebp]
  00009	50		 push	 eax
  0000a	8b 4d 08	 mov	 ecx, DWORD PTR _str1$[ebp]
  0000d	ff 15 00 00 00
	00		 call	 DWORD PTR __imp_?Compare@?$CStringT@DV?$StrTraitMFC_DLL@DV?$ChTraitsCRT@D@ATL@@@@@ATL@@QBEHPBD@Z
  00013	3b f4		 cmp	 esi, esp
  00015	e8 00 00 00 00	 call	 __RTC_CheckEsp
  0001a	f7 d8		 neg	 eax
  0001c	1b c0		 sbb	 eax, eax
  0001e	40		 inc	 eax

; 2089 : 	}

  0001f	5e		 pop	 esi
  00020	3b ec		 cmp	 ebp, esp
  00022	e8 00 00 00 00	 call	 __RTC_CheckEsp
  00027	5d		 pop	 ebp
  00028	c3		 ret	 0
??8ATL@@YA_NABV?$CStringT@DV?$StrTraitMFC_DLL@DV?$ChTraitsCRT@D@ATL@@@@@0@PBD@Z ENDP ; ATL::operator==
; Function compile flags: /Odt /RTCsu
_TEXT	ENDS
;	COMDAT ??8ATL@@YA_NPBDABV?$CStringT@DV?$StrTraitMFC_DLL@DV?$ChTraitsCRT@D@ATL@@@@@0@@Z
_TEXT	SEGMENT
_psz1$ = 8						; size = 4
_str2$ = 12						; size = 4
??8ATL@@YA_NPBDABV?$CStringT@DV?$StrTraitMFC_DLL@DV?$ChTraitsCRT@D@ATL@@@@@0@@Z PROC NEAR ; ATL::operator==, COMDAT

; 2093 : 	{

  00000	55		 push	 ebp
  00001	8b ec		 mov	 ebp, esp
  00003	56		 push	 esi

; 2094 : 		return( str2.Compare( psz1 ) == 0 );

  00004	8b f4		 mov	 esi, esp
  00006	8b 45 08	 mov	 eax, DWORD PTR _psz1$[ebp]
  00009	50		 push	 eax
  0000a	8b 4d 0c	 mov	 ecx, DWORD PTR _str2$[ebp]
  0000d	ff 15 00 00 00
	00		 call	 DWORD PTR __imp_?Compare@?$CStringT@DV?$StrTraitMFC_DLL@DV?$ChTraitsCRT@D@ATL@@@@@ATL@@QBEHPBD@Z
  00013	3b f4		 cmp	 esi, esp
  00015	e8 00 00 00 00	 call	 __RTC_CheckEsp
  0001a	f7 d8		 neg	 eax
  0001c	1b c0		 sbb	 eax, eax
  0001e	40		 inc	 eax

; 2095 : 	}

  0001f	5e		 pop	 esi
  00020	3b ec		 cmp	 ebp, esp
  00022	e8 00 00 00 00	 call	 __RTC_CheckEsp
  00027	5d		 pop	 ebp
  00028	c3		 ret	 0
??8ATL@@YA_NPBDABV?$CStringT@DV?$StrTraitMFC_DLL@DV?$ChTraitsCRT@D@ATL@@@@@0@@Z ENDP ; ATL::operator==
_TEXT	ENDS
PUBLIC	?AtlComPtrAssign@ATL@@YGPAUIUnknown@@PAPAU2@PAU2@@Z ; ATL::AtlComPtrAssign
; Function compile flags: /Odt /RTCsu
; File d:\program files (x86)\microsoft visual studio .net 2003\vc7\atlmfc\include\atlcomcli.h
;	COMDAT ??4?$CComPtr@UIWebBrowser2@@@ATL@@QAEPAUIWebBrowser2@@PAU2@@Z
_TEXT	SEGMENT
_this$ = -4						; size = 4
_lp$ = 8						; size = 4
??4?$CComPtr@UIWebBrowser2@@@ATL@@QAEPAUIWebBrowser2@@PAU2@@Z PROC NEAR ; ATL::CComPtr<IWebBrowser2>::operator=, COMDAT
; _this$ = ecx

; 291  : 	{

  00000	55		 push	 ebp
  00001	8b ec		 mov	 ebp, esp
  00003	51		 push	 ecx
  00004	c7 45 fc cc cc
	cc cc		 mov	 DWORD PTR [ebp-4], -858993460 ; ccccccccH
  0000b	89 4d fc	 mov	 DWORD PTR _this$[ebp], ecx

; 292  : 		return static_cast<T*>(AtlComPtrAssign((IUnknown**)&p, lp));

  0000e	8b 45 08	 mov	 eax, DWORD PTR _lp$[ebp]
  00011	50		 push	 eax
  00012	8b 4d fc	 mov	 ecx, DWORD PTR _this$[ebp]
  00015	51		 push	 ecx
  00016	e8 00 00 00 00	 call	 ?AtlComPtrAssign@ATL@@YGPAUIUnknown@@PAPAU2@PAU2@@Z ; ATL::AtlComPtrAssign

; 293  : 	}

  0001b	83 c4 04	 add	 esp, 4
  0001e	3b ec		 cmp	 ebp, esp
  00020	e8 00 00 00 00	 call	 __RTC_CheckEsp
  00025	8b e5		 mov	 esp, ebp
  00027	5d		 pop	 ebp
  00028	c2 04 00	 ret	 4
??4?$CComPtr@UIWebBrowser2@@@ATL@@QAEPAUIWebBrowser2@@PAU2@@Z ENDP ; ATL::CComPtr<IWebBrowser2>::operator=
_TEXT	ENDS
PUBLIC	??_C@_0FI@FDBICBML@D?3?2Program?5Files?5?$CIx86?$CJ?2Microsoft@ ; `string'
PUBLIC	??_C@_04DBLLIIGB@p?$DN?$DN0?$AA@		; `string'
;	COMDAT ??_C@_04DBLLIIGB@p?$DN?$DN0?$AA@
CONST	SEGMENT
??_C@_04DBLLIIGB@p?$DN?$DN0?$AA@ DB 'p==0', 00H		; `string'
CONST	ENDS
;	COMDAT ??_C@_0FI@FDBICBML@D?3?2Program?5Files?5?$CIx86?$CJ?2Microsoft@
CONST	SEGMENT
??_C@_0FI@FDBICBML@D?3?2Program?5Files?5?$CIx86?$CJ?2Microsoft@ DB 'D:\Pr'
	DB	'ogram Files (x86)\Microsoft Visual Studio .NET 2003\Vc7\atlmf'
	DB	'c\include\atlcomcli.h', 00H			; `string'
; Function compile flags: /Odt /RTCsu
CONST	ENDS
;	COMDAT ??I?$CComPtrBase@UIWebBrowser2@@@ATL@@QAEPAPAUIWebBrowser2@@XZ
_TEXT	SEGMENT
_this$ = -4						; size = 4
??I?$CComPtrBase@UIWebBrowser2@@@ATL@@QAEPAPAUIWebBrowser2@@XZ PROC NEAR ; ATL::CComPtrBase<IWebBrowser2>::operator&, COMDAT
; _this$ = ecx

; 142  : 	{

  00000	55		 push	 ebp
  00001	8b ec		 mov	 ebp, esp
  00003	51		 push	 ecx
  00004	56		 push	 esi
  00005	c7 45 fc cc cc
	cc cc		 mov	 DWORD PTR [ebp-4], -858993460 ; ccccccccH
  0000c	89 4d fc	 mov	 DWORD PTR _this$[ebp], ecx

; 143  : 		ATLASSERT(p==NULL);

  0000f	8b 45 fc	 mov	 eax, DWORD PTR _this$[ebp]
  00012	83 38 00	 cmp	 DWORD PTR [eax], 0
  00015	74 2b		 je	 SHORT $L197697
  00017	8b f4		 mov	 esi, esp
  00019	68 00 00 00 00	 push	 OFFSET FLAT:??_C@_04DBLLIIGB@p?$DN?$DN0?$AA@
  0001e	6a 00		 push	 0
  00020	68 8f 00 00 00	 push	 143			; 0000008fH
  00025	68 00 00 00 00	 push	 OFFSET FLAT:??_C@_0FI@FDBICBML@D?3?2Program?5Files?5?$CIx86?$CJ?2Microsoft@
  0002a	6a 02		 push	 2
  0002c	ff 15 00 00 00
	00		 call	 DWORD PTR __imp___CrtDbgReport
  00032	83 c4 14	 add	 esp, 20			; 00000014H
  00035	3b f4		 cmp	 esi, esp
  00037	e8 00 00 00 00	 call	 __RTC_CheckEsp
  0003c	83 f8 01	 cmp	 eax, 1
  0003f	75 01		 jne	 SHORT $L197697
  00041	cc		 int	 3
$L197697:

; 144  : 		return &p;

  00042	8b 45 fc	 mov	 eax, DWORD PTR _this$[ebp]

; 145  : 	}

  00045	5e		 pop	 esi
  00046	83 c4 04	 add	 esp, 4
  00049	3b ec		 cmp	 ebp, esp
  0004b	e8 00 00 00 00	 call	 __RTC_CheckEsp
  00050	8b e5		 mov	 esp, ebp
  00052	5d		 pop	 ebp
  00053	c3		 ret	 0
??I?$CComPtrBase@UIWebBrowser2@@@ATL@@QAEPAPAUIWebBrowser2@@XZ ENDP ; ATL::CComPtrBase<IWebBrowser2>::operator&
; Function compile flags: /Odt /RTCsu
; File d:\program files (x86)\microsoft visual studio .net 2003\vc7\atlmfc\include\afxtls_.h
_TEXT	ENDS
;	COMDAT ??1CNoTrackObject@@UAE@XZ
_TEXT	SEGMENT
_this$ = -4						; size = 4
??1CNoTrackObject@@UAE@XZ PROC NEAR			; CNoTrackObject::~CNoTrackObject, COMDAT
; _this$ = ecx

; 144  : 	virtual ~CNoTrackObject() = 0 { }

  00000	55		 push	 ebp
  00001	8b ec		 mov	 ebp, esp
  00003	51		 push	 ecx
  00004	c7 45 fc cc cc
	cc cc		 mov	 DWORD PTR [ebp-4], -858993460 ; ccccccccH
  0000b	89 4d fc	 mov	 DWORD PTR _this$[ebp], ecx
  0000e	8b 45 fc	 mov	 eax, DWORD PTR _this$[ebp]
  00011	c7 00 00 00 00
	00		 mov	 DWORD PTR [eax], OFFSET FLAT:??_7CNoTrackObject@@6B@
  00017	8b e5		 mov	 esp, ebp
  00019	5d		 pop	 ebp
  0001a	c3		 ret	 0
??1CNoTrackObject@@UAE@XZ ENDP				; CNoTrackObject::~CNoTrackObject
_TEXT	ENDS
EXTRN	?GetAccessibleChild@CWnd@@QAEJUtagVARIANT@@PAPAUIDispatch@@@Z:NEAR ; CWnd::GetAccessibleChild
; Function compile flags: /Odt /RTCsu
; File d:\program files (x86)\microsoft visual studio .net 2003\vc7\atlmfc\include\afxext.h
;	COMDAT ?get_accChild@CFormView@@UAEJUtagVARIANT@@PAPAUIDispatch@@@Z
_TEXT	SEGMENT
_this$ = -4						; size = 4
_varChild$ = 8						; size = 16
_ppdispChild$ = 24					; size = 4
?get_accChild@CFormView@@UAEJUtagVARIANT@@PAPAUIDispatch@@@Z PROC NEAR ; CFormView::get_accChild, COMDAT
; _this$ = ecx

; 768  : 	{

  00000	55		 push	 ebp
  00001	8b ec		 mov	 ebp, esp
  00003	51		 push	 ecx
  00004	c7 45 fc cc cc
	cc cc		 mov	 DWORD PTR [ebp-4], -858993460 ; ccccccccH
  0000b	89 4d fc	 mov	 DWORD PTR _this$[ebp], ecx

; 769  : 		return GetAccessibleChild(varChild, ppdispChild);

  0000e	8b 45 18	 mov	 eax, DWORD PTR _ppdispChild$[ebp]
  00011	50		 push	 eax
  00012	83 ec 10	 sub	 esp, 16			; 00000010H
  00015	8b cc		 mov	 ecx, esp
  00017	8b 55 08	 mov	 edx, DWORD PTR _varChild$[ebp]
  0001a	89 11		 mov	 DWORD PTR [ecx], edx
  0001c	8b 45 0c	 mov	 eax, DWORD PTR _varChild$[ebp+4]
  0001f	89 41 04	 mov	 DWORD PTR [ecx+4], eax
  00022	8b 55 10	 mov	 edx, DWORD PTR _varChild$[ebp+8]
  00025	89 51 08	 mov	 DWORD PTR [ecx+8], edx
  00028	8b 45 14	 mov	 eax, DWORD PTR _varChild$[ebp+12]
  0002b	89 41 0c	 mov	 DWORD PTR [ecx+12], eax
  0002e	8b 4d fc	 mov	 ecx, DWORD PTR _this$[ebp]
  00031	e8 00 00 00 00	 call	 ?GetAccessibleChild@CWnd@@QAEJUtagVARIANT@@PAPAUIDispatch@@@Z ; CWnd::GetAccessibleChild

; 770  : 	}

  00036	83 c4 04	 add	 esp, 4
  00039	3b ec		 cmp	 ebp, esp
  0003b	e8 00 00 00 00	 call	 __RTC_CheckEsp
  00040	8b e5		 mov	 esp, ebp
  00042	5d		 pop	 ebp
  00043	c2 14 00	 ret	 20			; 00000014H
?get_accChild@CFormView@@UAEJUtagVARIANT@@PAPAUIDispatch@@@Z ENDP ; CFormView::get_accChild
_TEXT	ENDS
EXTRN	?GetAccessibleChildCount@CWnd@@QAEJXZ:NEAR	; CWnd::GetAccessibleChildCount
; Function compile flags: /Odt /RTCsu
;	COMDAT ?get_accChildCount@CFormView@@UAEJPAJ@Z
_TEXT	SEGMENT
_this$ = -4						; size = 4
_pcountChildren$ = 8					; size = 4
?get_accChildCount@CFormView@@UAEJPAJ@Z PROC NEAR	; CFormView::get_accChildCount, COMDAT
; _this$ = ecx

; 773  : 	{

  00000	55		 push	 ebp
  00001	8b ec		 mov	 ebp, esp
  00003	51		 push	 ecx
  00004	c7 45 fc cc cc
	cc cc		 mov	 DWORD PTR [ebp-4], -858993460 ; ccccccccH
  0000b	89 4d fc	 mov	 DWORD PTR _this$[ebp], ecx

; 774  : 		(*pcountChildren) = GetAccessibleChildCount();

  0000e	8b 4d fc	 mov	 ecx, DWORD PTR _this$[ebp]
  00011	e8 00 00 00 00	 call	 ?GetAccessibleChildCount@CWnd@@QAEJXZ ; CWnd::GetAccessibleChildCount
  00016	8b 4d 08	 mov	 ecx, DWORD PTR _pcountChildren$[ebp]
  00019	89 01		 mov	 DWORD PTR [ecx], eax

; 775  : 		return S_OK;

  0001b	33 c0		 xor	 eax, eax

; 776  : 	}

  0001d	83 c4 04	 add	 esp, 4
  00020	3b ec		 cmp	 ebp, esp
  00022	e8 00 00 00 00	 call	 __RTC_CheckEsp
  00027	8b e5		 mov	 esp, ebp
  00029	5d		 pop	 ebp
  0002a	c2 04 00	 ret	 4
?get_accChildCount@CFormView@@UAEJPAJ@Z ENDP		; CFormView::get_accChildCount
_TEXT	ENDS
EXTRN	?GetAccessibleName@CWnd@@QAEJUtagVARIANT@@PAPA_W@Z:NEAR ; CWnd::GetAccessibleName
; Function compile flags: /Odt /RTCsu
;	COMDAT ?get_accName@CFormView@@UAEJUtagVARIANT@@PAPA_W@Z
_TEXT	SEGMENT
_this$ = -4						; size = 4
_varChild$ = 8						; size = 16
_pszName$ = 24						; size = 4
?get_accName@CFormView@@UAEJUtagVARIANT@@PAPA_W@Z PROC NEAR ; CFormView::get_accName, COMDAT
; _this$ = ecx

; 779  : 	{

  00000	55		 push	 ebp
  00001	8b ec		 mov	 ebp, esp
  00003	51		 push	 ecx
  00004	c7 45 fc cc cc
	cc cc		 mov	 DWORD PTR [ebp-4], -858993460 ; ccccccccH
  0000b	89 4d fc	 mov	 DWORD PTR _this$[ebp], ecx

; 780  : 		return GetAccessibleName(varChild, pszName);

  0000e	8b 45 18	 mov	 eax, DWORD PTR _pszName$[ebp]
  00011	50		 push	 eax
  00012	83 ec 10	 sub	 esp, 16			; 00000010H
  00015	8b cc		 mov	 ecx, esp
  00017	8b 55 08	 mov	 edx, DWORD PTR _varChild$[ebp]
  0001a	89 11		 mov	 DWORD PTR [ecx], edx
  0001c	8b 45 0c	 mov	 eax, DWORD PTR _varChild$[ebp+4]
  0001f	89 41 04	 mov	 DWORD PTR [ecx+4], eax
  00022	8b 55 10	 mov	 edx, DWORD PTR _varChild$[ebp+8]
  00025	89 51 08	 mov	 DWORD PTR [ecx+8], edx
  00028	8b 45 14	 mov	 eax, DWORD PTR _varChild$[ebp+12]
  0002b	89 41 0c	 mov	 DWORD PTR [ecx+12], eax
  0002e	8b 4d fc	 mov	 ecx, DWORD PTR _this$[ebp]
  00031	e8 00 00 00 00	 call	 ?GetAccessibleName@CWnd@@QAEJUtagVARIANT@@PAPA_W@Z ; CWnd::GetAccessibleName

; 781  : 	}

  00036	83 c4 04	 add	 esp, 4
  00039	3b ec		 cmp	 ebp, esp
  0003b	e8 00 00 00 00	 call	 __RTC_CheckEsp
  00040	8b e5		 mov	 esp, ebp
  00042	5d		 pop	 ebp
  00043	c2 14 00	 ret	 20			; 00000014H
?get_accName@CFormView@@UAEJUtagVARIANT@@PAPA_W@Z ENDP	; CFormView::get_accName
_TEXT	ENDS
EXTRN	?GetAccessibilityLocation@CWnd@@QAEJUtagVARIANT@@PAJ111@Z:NEAR ; CWnd::GetAccessibilityLocation
; Function compile flags: /Odt /RTCsu
;	COMDAT ?accLocation@CFormView@@UAEJPAJ000UtagVARIANT@@@Z
_TEXT	SEGMENT
_this$ = -4						; size = 4
_pxLeft$ = 8						; size = 4
_pyTop$ = 12						; size = 4
_pcxWidth$ = 16						; size = 4
_pcyHeight$ = 20					; size = 4
_varChild$ = 24						; size = 16
?accLocation@CFormView@@UAEJPAJ000UtagVARIANT@@@Z PROC NEAR ; CFormView::accLocation, COMDAT
; _this$ = ecx

; 784  : 	{

  00000	55		 push	 ebp
  00001	8b ec		 mov	 ebp, esp
  00003	51		 push	 ecx
  00004	c7 45 fc cc cc
	cc cc		 mov	 DWORD PTR [ebp-4], -858993460 ; ccccccccH
  0000b	89 4d fc	 mov	 DWORD PTR _this$[ebp], ecx

; 785  : 		return GetAccessibilityLocation(varChild, pxLeft, pyTop, pcxWidth, pcyHeight);

  0000e	8b 45 14	 mov	 eax, DWORD PTR _pcyHeight$[ebp]
  00011	50		 push	 eax
  00012	8b 4d 10	 mov	 ecx, DWORD PTR _pcxWidth$[ebp]
  00015	51		 push	 ecx
  00016	8b 55 0c	 mov	 edx, DWORD PTR _pyTop$[ebp]
  00019	52		 push	 edx
  0001a	8b 45 08	 mov	 eax, DWORD PTR _pxLeft$[ebp]
  0001d	50		 push	 eax
  0001e	83 ec 10	 sub	 esp, 16			; 00000010H
  00021	8b cc		 mov	 ecx, esp
  00023	8b 55 18	 mov	 edx, DWORD PTR _varChild$[ebp]
  00026	89 11		 mov	 DWORD PTR [ecx], edx
  00028	8b 45 1c	 mov	 eax, DWORD PTR _varChild$[ebp+4]
  0002b	89 41 04	 mov	 DWORD PTR [ecx+4], eax
  0002e	8b 55 20	 mov	 edx, DWORD PTR _varChild$[ebp+8]
  00031	89 51 08	 mov	 DWORD PTR [ecx+8], edx
  00034	8b 45 24	 mov	 eax, DWORD PTR _varChild$[ebp+12]
  00037	89 41 0c	 mov	 DWORD PTR [ecx+12], eax
  0003a	8b 4d fc	 mov	 ecx, DWORD PTR _this$[ebp]
  0003d	e8 00 00 00 00	 call	 ?GetAccessibilityLocation@CWnd@@QAEJUtagVARIANT@@PAJ111@Z ; CWnd::GetAccessibilityLocation

; 786  : 	}

  00042	83 c4 04	 add	 esp, 4
  00045	3b ec		 cmp	 ebp, esp
  00047	e8 00 00 00 00	 call	 __RTC_CheckEsp
  0004c	8b e5		 mov	 esp, ebp
  0004e	5d		 pop	 ebp
  0004f	c2 20 00	 ret	 32			; 00000020H
?accLocation@CFormView@@UAEJPAJ000UtagVARIANT@@@Z ENDP	; CFormView::accLocation
; Function compile flags: /Odt /RTCsu
_TEXT	ENDS
;	COMDAT ??_EMyWebBrowserWnd@@WPA@AEPAXI@Z
_TEXT	SEGMENT
??_EMyWebBrowserWnd@@WPA@AEPAXI@Z PROC NEAR		; [thunk]:MyWebBrowserWnd::`vector deleting destructor', COMDAT
  00000	81 e9 f0 00 00
	00		 sub	 ecx, 240		; 000000f0H
  00006	e9 00 00 00 00	 jmp	 ??_EMyWebBrowserWnd@@UAEPAXI@Z
??_EMyWebBrowserWnd@@WPA@AEPAXI@Z ENDP			; [thunk]:MyWebBrowserWnd::`vector deleting destructor'
_TEXT	ENDS
EXTRN	?GetAccessibilityHitTest@CWnd@@QAEJJJPAUtagVARIANT@@@Z:NEAR ; CWnd::GetAccessibilityHitTest
; Function compile flags: /Odt /RTCsu
;	COMDAT ?accHitTest@CFormView@@UAEJJJPAUtagVARIANT@@@Z
_TEXT	SEGMENT
_this$ = -4						; size = 4
_xLeft$ = 8						; size = 4
_yTop$ = 12						; size = 4
_pvarChild$ = 16					; size = 4
?accHitTest@CFormView@@UAEJJJPAUtagVARIANT@@@Z PROC NEAR ; CFormView::accHitTest, COMDAT
; _this$ = ecx

; 789  : 	{

  00000	55		 push	 ebp
  00001	8b ec		 mov	 ebp, esp
  00003	51		 push	 ecx
  00004	c7 45 fc cc cc
	cc cc		 mov	 DWORD PTR [ebp-4], -858993460 ; ccccccccH
  0000b	89 4d fc	 mov	 DWORD PTR _this$[ebp], ecx

; 790  : 		return GetAccessibilityHitTest(xLeft, yTop, pvarChild);

  0000e	8b 45 10	 mov	 eax, DWORD PTR _pvarChild$[ebp]
  00011	50		 push	 eax
  00012	8b 4d 0c	 mov	 ecx, DWORD PTR _yTop$[ebp]
  00015	51		 push	 ecx
  00016	8b 55 08	 mov	 edx, DWORD PTR _xLeft$[ebp]
  00019	52		 push	 edx
  0001a	8b 4d fc	 mov	 ecx, DWORD PTR _this$[ebp]
  0001d	e8 00 00 00 00	 call	 ?GetAccessibilityHitTest@CWnd@@QAEJJJPAUtagVARIANT@@@Z ; CWnd::GetAccessibilityHitTest

; 791  : 	}

  00022	83 c4 04	 add	 esp, 4
  00025	3b ec		 cmp	 ebp, esp
  00027	e8 00 00 00 00	 call	 __RTC_CheckEsp
  0002c	8b e5		 mov	 esp, ebp
  0002e	5d		 pop	 ebp
  0002f	c2 0c 00	 ret	 12			; 0000000cH
?accHitTest@CFormView@@UAEJJJPAUtagVARIANT@@@Z ENDP	; CFormView::accHitTest
; Function compile flags: /Odt /RTCsu
; File d:\program files (x86)\microsoft visual studio .net 2003\vc7\atlmfc\include\atlcomcli.h
_TEXT	ENDS
;	COMDAT ?AtlComPtrAssign@ATL@@YGPAUIUnknown@@PAPAU2@PAU2@@Z
_TEXT	SEGMENT
_pp$ = 8						; size = 4
_lp$ = 12						; size = 4
?AtlComPtrAssign@ATL@@YGPAUIUnknown@@PAPAU2@PAU2@@Z PROC NEAR ; ATL::AtlComPtrAssign, COMDAT

; 45   : {

  00000	55		 push	 ebp
  00001	8b ec		 mov	 ebp, esp
  00003	56		 push	 esi

; 46   : 	if (pp == NULL)

  00004	83 7d 08 00	 cmp	 DWORD PTR _pp$[ebp], 0
  00008	75 04		 jne	 SHORT $L82098

; 47   : 		return NULL;

  0000a	33 c0		 xor	 eax, eax
  0000c	eb 47		 jmp	 SHORT $L82097
$L82098:

; 48   : 		
; 49   : 	if (lp != NULL)

  0000e	83 7d 0c 00	 cmp	 DWORD PTR _lp$[ebp], 0
  00012	74 15		 je	 SHORT $L82099

; 50   : 		lp->AddRef();

  00014	8b 45 0c	 mov	 eax, DWORD PTR _lp$[ebp]
  00017	8b 08		 mov	 ecx, DWORD PTR [eax]
  00019	8b f4		 mov	 esi, esp
  0001b	8b 55 0c	 mov	 edx, DWORD PTR _lp$[ebp]
  0001e	52		 push	 edx
  0001f	ff 51 04	 call	 DWORD PTR [ecx+4]
  00022	3b f4		 cmp	 esi, esp
  00024	e8 00 00 00 00	 call	 __RTC_CheckEsp
$L82099:

; 51   : 	if (*pp)

  00029	8b 45 08	 mov	 eax, DWORD PTR _pp$[ebp]
  0002c	83 38 00	 cmp	 DWORD PTR [eax], 0
  0002f	74 19		 je	 SHORT $L82100

; 52   : 		(*pp)->Release();

  00031	8b 4d 08	 mov	 ecx, DWORD PTR _pp$[ebp]
  00034	8b 11		 mov	 edx, DWORD PTR [ecx]
  00036	8b 45 08	 mov	 eax, DWORD PTR _pp$[ebp]
  00039	8b 08		 mov	 ecx, DWORD PTR [eax]
  0003b	8b 12		 mov	 edx, DWORD PTR [edx]
  0003d	8b f4		 mov	 esi, esp
  0003f	51		 push	 ecx
  00040	ff 52 08	 call	 DWORD PTR [edx+8]
  00043	3b f4		 cmp	 esi, esp
  00045	e8 00 00 00 00	 call	 __RTC_CheckEsp
$L82100:

; 53   : 	*pp = lp;

  0004a	8b 45 08	 mov	 eax, DWORD PTR _pp$[ebp]
  0004d	8b 4d 0c	 mov	 ecx, DWORD PTR _lp$[ebp]
  00050	89 08		 mov	 DWORD PTR [eax], ecx

; 54   : 	return lp;

  00052	8b 45 0c	 mov	 eax, DWORD PTR _lp$[ebp]
$L82097:

; 55   : }

  00055	5e		 pop	 esi
  00056	3b ec		 cmp	 ebp, esp
  00058	e8 00 00 00 00	 call	 __RTC_CheckEsp
  0005d	5d		 pop	 ebp
  0005e	c2 08 00	 ret	 8
?AtlComPtrAssign@ATL@@YGPAUIUnknown@@PAPAU2@PAU2@@Z ENDP ; ATL::AtlComPtrAssign
; Function compile flags: /Odt /RTCsu
; File d:\boxgit\playbox\playbox\dev\prj\playbox\src\core\imessageobserver.h
_TEXT	ENDS
;	COMDAT ??1IMessageObserver@@UAE@XZ
_TEXT	SEGMENT
_this$ = -4						; size = 4
??1IMessageObserver@@UAE@XZ PROC NEAR			; IMessageObserver::~IMessageObserver, COMDAT
; _this$ = ecx

; 16   : 	virtual ~IMessageObserver(){};

  00000	55		 push	 ebp
  00001	8b ec		 mov	 ebp, esp
  00003	51		 push	 ecx
  00004	c7 45 fc cc cc
	cc cc		 mov	 DWORD PTR [ebp-4], -858993460 ; ccccccccH
  0000b	89 4d fc	 mov	 DWORD PTR _this$[ebp], ecx
  0000e	8b 45 fc	 mov	 eax, DWORD PTR _this$[ebp]
  00011	c7 00 00 00 00
	00		 mov	 DWORD PTR [eax], OFFSET FLAT:??_7IMessageObserver@@6B@
  00017	8b e5		 mov	 esp, ebp
  00019	5d		 pop	 ebp
  0001a	c3		 ret	 0
??1IMessageObserver@@UAE@XZ ENDP			; IMessageObserver::~IMessageObserver
; Function compile flags: /Odt /RTCsu
_TEXT	ENDS
;	COMDAT ??_GIMessageObserver@@UAEPAXI@Z
_TEXT	SEGMENT
_this$ = -4						; size = 4
___flags$ = 8						; size = 4
??_GIMessageObserver@@UAEPAXI@Z PROC NEAR		; IMessageObserver::`scalar deleting destructor', COMDAT
; _this$ = ecx
  00000	55		 push	 ebp
  00001	8b ec		 mov	 ebp, esp
  00003	51		 push	 ecx
  00004	c7 45 fc cc cc
	cc cc		 mov	 DWORD PTR [ebp-4], -858993460 ; ccccccccH
  0000b	89 4d fc	 mov	 DWORD PTR _this$[ebp], ecx
  0000e	8b 4d fc	 mov	 ecx, DWORD PTR _this$[ebp]
  00011	e8 00 00 00 00	 call	 ??1IMessageObserver@@UAE@XZ ; IMessageObserver::~IMessageObserver
  00016	8b 45 08	 mov	 eax, DWORD PTR ___flags$[ebp]
  00019	83 e0 01	 and	 eax, 1
  0001c	74 0c		 je	 SHORT $L99513
  0001e	8b 4d fc	 mov	 ecx, DWORD PTR _this$[ebp]
  00021	51		 push	 ecx
  00022	e8 00 00 00 00	 call	 ??3@YAXPAX@Z		; operator delete
  00027	83 c4 04	 add	 esp, 4
$L99513:
  0002a	8b 45 fc	 mov	 eax, DWORD PTR _this$[ebp]
  0002d	83 c4 04	 add	 esp, 4
  00030	3b ec		 cmp	 ebp, esp
  00032	e8 00 00 00 00	 call	 __RTC_CheckEsp
  00037	8b e5		 mov	 esp, ebp
  00039	5d		 pop	 ebp
  0003a	c2 04 00	 ret	 4
??_GIMessageObserver@@UAEPAXI@Z ENDP			; IMessageObserver::`scalar deleting destructor'
; Function compile flags: /Odt /RTCsu
_TEXT	ENDS
;	COMDAT ??0IUnknown@@QAE@XZ
_TEXT	SEGMENT
_this$ = -4						; size = 4
??0IUnknown@@QAE@XZ PROC NEAR				; IUnknown::IUnknown, COMDAT
; _this$ = ecx
  00000	55		 push	 ebp
  00001	8b ec		 mov	 ebp, esp
  00003	51		 push	 ecx
  00004	c7 45 fc cc cc
	cc cc		 mov	 DWORD PTR [ebp-4], -858993460 ; ccccccccH
  0000b	89 4d fc	 mov	 DWORD PTR _this$[ebp], ecx
  0000e	8b 45 fc	 mov	 eax, DWORD PTR _this$[ebp]
  00011	8b e5		 mov	 esp, ebp
  00013	5d		 pop	 ebp
  00014	c3		 ret	 0
??0IUnknown@@QAE@XZ ENDP				; IUnknown::IUnknown
; Function compile flags: /Odt /RTCsu
; File d:\program files (x86)\microsoft visual studio .net 2003\vc7\atlmfc\include\atlalloc.h
_TEXT	ENDS
;	COMDAT ??0?$CAtlSafeAllocBufferManager@VCCRTAllocator@ATL@@@_ATL_SAFE_ALLOCA_IMPL@ATL@@QAE@XZ
_TEXT	SEGMENT
_this$ = -4						; size = 4
??0?$CAtlSafeAllocBufferManager@VCCRTAllocator@ATL@@@_ATL_SAFE_ALLOCA_IMPL@ATL@@QAE@XZ PROC NEAR ; ATL::_ATL_SAFE_ALLOCA_IMPL::CAtlSafeAllocBufferManager<ATL::CCRTAllocator>::CAtlSafeAllocBufferManager<ATL::CCRTAllocator>, COMDAT
; _this$ = ecx

; 373  : 	CAtlSafeAllocBufferManager() : m_pHead(NULL) {};

  00000	55		 push	 ebp
  00001	8b ec		 mov	 ebp, esp
  00003	51		 push	 ecx
  00004	c7 45 fc cc cc
	cc cc		 mov	 DWORD PTR [ebp-4], -858993460 ; ccccccccH
  0000b	89 4d fc	 mov	 DWORD PTR _this$[ebp], ecx
  0000e	8b 45 fc	 mov	 eax, DWORD PTR _this$[ebp]
  00011	c7 00 00 00 00
	00		 mov	 DWORD PTR [eax], 0
  00017	8b 45 fc	 mov	 eax, DWORD PTR _this$[ebp]
  0001a	8b e5		 mov	 esp, ebp
  0001c	5d		 pop	 ebp
  0001d	c3		 ret	 0
??0?$CAtlSafeAllocBufferManager@VCCRTAllocator@ATL@@@_ATL_SAFE_ALLOCA_IMPL@ATL@@QAE@XZ ENDP ; ATL::_ATL_SAFE_ALLOCA_IMPL::CAtlSafeAllocBufferManager<ATL::CCRTAllocator>::CAtlSafeAllocBufferManager<ATL::CCRTAllocator>
_TEXT	ENDS
PUBLIC	?GetData@CAtlSafeAllocBufferNode@?$CAtlSafeAllocBufferManager@VCCRTAllocator@ATL@@@_ATL_SAFE_ALLOCA_IMPL@ATL@@QAEPAXXZ ; ATL::_ATL_SAFE_ALLOCA_IMPL::CAtlSafeAllocBufferManager<ATL::CCRTAllocator>::CAtlSafeAllocBufferNode::GetData
PUBLIC	?Allocate@CCRTAllocator@ATL@@SAPAXI@Z		; ATL::CCRTAllocator::Allocate
; Function compile flags: /Odt /RTCsu
;	COMDAT ?Allocate@?$CAtlSafeAllocBufferManager@VCCRTAllocator@ATL@@@_ATL_SAFE_ALLOCA_IMPL@ATL@@QAEPAXK@Z
_TEXT	SEGMENT
_p$ = -8						; size = 4
_this$ = -4						; size = 4
_nRequestedSize$ = 8					; size = 4
?Allocate@?$CAtlSafeAllocBufferManager@VCCRTAllocator@ATL@@@_ATL_SAFE_ALLOCA_IMPL@ATL@@QAEPAXK@Z PROC NEAR ; ATL::_ATL_SAFE_ALLOCA_IMPL::CAtlSafeAllocBufferManager<ATL::CCRTAllocator>::Allocate, COMDAT
; _this$ = ecx

; 375  : 	{

  00000	55		 push	 ebp
  00001	8b ec		 mov	 ebp, esp
  00003	83 ec 08	 sub	 esp, 8
  00006	c7 45 f8 cc cc
	cc cc		 mov	 DWORD PTR [ebp-8], -858993460 ; ccccccccH
  0000d	c7 45 fc cc cc
	cc cc		 mov	 DWORD PTR [ebp-4], -858993460 ; ccccccccH
  00014	89 4d fc	 mov	 DWORD PTR _this$[ebp], ecx

; 376  : 		CAtlSafeAllocBufferNode *p = (CAtlSafeAllocBufferNode*)Allocator::Allocate(nRequestedSize + sizeof(CAtlSafeAllocBufferNode));

  00017	8b 45 08	 mov	 eax, DWORD PTR _nRequestedSize$[ebp]
  0001a	83 c0 08	 add	 eax, 8
  0001d	50		 push	 eax
  0001e	e8 00 00 00 00	 call	 ?Allocate@CCRTAllocator@ATL@@SAPAXI@Z ; ATL::CCRTAllocator::Allocate
  00023	83 c4 04	 add	 esp, 4
  00026	89 45 f8	 mov	 DWORD PTR _p$[ebp], eax

; 377  : 		if (p == NULL)

  00029	83 7d f8 00	 cmp	 DWORD PTR _p$[ebp], 0
  0002d	75 04		 jne	 SHORT $L181568

; 378  : 			return NULL;

  0002f	33 c0		 xor	 eax, eax
  00031	eb 1a		 jmp	 SHORT $L181555
$L181568:

; 379  : 		
; 380  : 		// Add buffer to the list
; 381  : 		p->m_pNext = m_pHead;

  00033	8b 4d f8	 mov	 ecx, DWORD PTR _p$[ebp]
  00036	8b 55 fc	 mov	 edx, DWORD PTR _this$[ebp]
  00039	8b 02		 mov	 eax, DWORD PTR [edx]
  0003b	89 01		 mov	 DWORD PTR [ecx], eax

; 382  : 		m_pHead = p;

  0003d	8b 4d fc	 mov	 ecx, DWORD PTR _this$[ebp]
  00040	8b 55 f8	 mov	 edx, DWORD PTR _p$[ebp]
  00043	89 11		 mov	 DWORD PTR [ecx], edx

; 383  : 		
; 384  : 		return p->GetData();

  00045	8b 4d f8	 mov	 ecx, DWORD PTR _p$[ebp]
  00048	e8 00 00 00 00	 call	 ?GetData@CAtlSafeAllocBufferNode@?$CAtlSafeAllocBufferManager@VCCRTAllocator@ATL@@@_ATL_SAFE_ALLOCA_IMPL@ATL@@QAEPAXXZ ; ATL::_ATL_SAFE_ALLOCA_IMPL::CAtlSafeAllocBufferManager<ATL::CCRTAllocator>::CAtlSafeAllocBufferNode::GetData
$L181555:

; 385  : 	}

  0004d	83 c4 08	 add	 esp, 8
  00050	3b ec		 cmp	 ebp, esp
  00052	e8 00 00 00 00	 call	 __RTC_CheckEsp
  00057	8b e5		 mov	 esp, ebp
  00059	5d		 pop	 ebp
  0005a	c2 04 00	 ret	 4
?Allocate@?$CAtlSafeAllocBufferManager@VCCRTAllocator@ATL@@@_ATL_SAFE_ALLOCA_IMPL@ATL@@QAEPAXK@Z ENDP ; ATL::_ATL_SAFE_ALLOCA_IMPL::CAtlSafeAllocBufferManager<ATL::CCRTAllocator>::Allocate
_TEXT	ENDS
EXTRN	__imp__malloc:NEAR
; Function compile flags: /Odt /RTCsu
;	COMDAT ?Allocate@CCRTAllocator@ATL@@SAPAXI@Z
_TEXT	SEGMENT
_nBytes$ = 8						; size = 4
?Allocate@CCRTAllocator@ATL@@SAPAXI@Z PROC NEAR		; ATL::CCRTAllocator::Allocate, COMDAT

; 30   : 	{

  00000	55		 push	 ebp
  00001	8b ec		 mov	 ebp, esp
  00003	56		 push	 esi

; 31   : 		return malloc(nBytes);

  00004	8b f4		 mov	 esi, esp
  00006	8b 45 08	 mov	 eax, DWORD PTR _nBytes$[ebp]
  00009	50		 push	 eax
  0000a	ff 15 00 00 00
	00		 call	 DWORD PTR __imp__malloc
  00010	83 c4 04	 add	 esp, 4
  00013	3b f4		 cmp	 esi, esp
  00015	e8 00 00 00 00	 call	 __RTC_CheckEsp

; 32   : 	}

  0001a	5e		 pop	 esi
  0001b	3b ec		 cmp	 ebp, esp
  0001d	e8 00 00 00 00	 call	 __RTC_CheckEsp
  00022	5d		 pop	 ebp
  00023	c3		 ret	 0
?Allocate@CCRTAllocator@ATL@@SAPAXI@Z ENDP		; ATL::CCRTAllocator::Allocate
_TEXT	ENDS
PUBLIC	?Free@CCRTAllocator@ATL@@SAXPAX@Z		; ATL::CCRTAllocator::Free
; Function compile flags: /Odt /RTCsu
;	COMDAT ??1?$CAtlSafeAllocBufferManager@VCCRTAllocator@ATL@@@_ATL_SAFE_ALLOCA_IMPL@ATL@@QAE@XZ
_TEXT	SEGMENT
_p$181574 = -8						; size = 4
_this$ = -4						; size = 4
??1?$CAtlSafeAllocBufferManager@VCCRTAllocator@ATL@@@_ATL_SAFE_ALLOCA_IMPL@ATL@@QAE@XZ PROC NEAR ; ATL::_ATL_SAFE_ALLOCA_IMPL::CAtlSafeAllocBufferManager<ATL::CCRTAllocator>::~CAtlSafeAllocBufferManager<ATL::CCRTAllocator>, COMDAT
; _this$ = ecx

; 387  : 	{

  00000	55		 push	 ebp
  00001	8b ec		 mov	 ebp, esp
  00003	83 ec 08	 sub	 esp, 8
  00006	c7 45 f8 cc cc
	cc cc		 mov	 DWORD PTR [ebp-8], -858993460 ; ccccccccH
  0000d	c7 45 fc cc cc
	cc cc		 mov	 DWORD PTR [ebp-4], -858993460 ; ccccccccH
  00014	89 4d fc	 mov	 DWORD PTR _this$[ebp], ecx
$L181572:

; 388  : 		// Walk the list and free the buffers
; 389  : 		while (m_pHead != NULL)

  00017	8b 45 fc	 mov	 eax, DWORD PTR _this$[ebp]
  0001a	83 38 00	 cmp	 DWORD PTR [eax], 0
  0001d	74 22		 je	 SHORT $L181570

; 390  : 		{
; 391  : 			CAtlSafeAllocBufferNode* p = m_pHead;

  0001f	8b 4d fc	 mov	 ecx, DWORD PTR _this$[ebp]
  00022	8b 11		 mov	 edx, DWORD PTR [ecx]
  00024	89 55 f8	 mov	 DWORD PTR _p$181574[ebp], edx

; 392  : 			m_pHead = m_pHead->m_pNext;

  00027	8b 45 fc	 mov	 eax, DWORD PTR _this$[ebp]
  0002a	8b 08		 mov	 ecx, DWORD PTR [eax]
  0002c	8b 55 fc	 mov	 edx, DWORD PTR _this$[ebp]
  0002f	8b 01		 mov	 eax, DWORD PTR [ecx]
  00031	89 02		 mov	 DWORD PTR [edx], eax

; 393  : 			Allocator::Free(p);

  00033	8b 4d f8	 mov	 ecx, DWORD PTR _p$181574[ebp]
  00036	51		 push	 ecx
  00037	e8 00 00 00 00	 call	 ?Free@CCRTAllocator@ATL@@SAXPAX@Z ; ATL::CCRTAllocator::Free
  0003c	83 c4 04	 add	 esp, 4

; 394  : 		}

  0003f	eb d6		 jmp	 SHORT $L181572
$L181570:

; 395  : 	}

  00041	83 c4 08	 add	 esp, 8
  00044	3b ec		 cmp	 ebp, esp
  00046	e8 00 00 00 00	 call	 __RTC_CheckEsp
  0004b	8b e5		 mov	 esp, ebp
  0004d	5d		 pop	 ebp
  0004e	c3		 ret	 0
??1?$CAtlSafeAllocBufferManager@VCCRTAllocator@ATL@@@_ATL_SAFE_ALLOCA_IMPL@ATL@@QAE@XZ ENDP ; ATL::_ATL_SAFE_ALLOCA_IMPL::CAtlSafeAllocBufferManager<ATL::CCRTAllocator>::~CAtlSafeAllocBufferManager<ATL::CCRTAllocator>
_TEXT	ENDS
EXTRN	__imp__free:NEAR
; Function compile flags: /Odt /RTCsu
;	COMDAT ?Free@CCRTAllocator@ATL@@SAXPAX@Z
_TEXT	SEGMENT
_p$ = 8							; size = 4
?Free@CCRTAllocator@ATL@@SAXPAX@Z PROC NEAR		; ATL::CCRTAllocator::Free, COMDAT

; 35   : 	{

  00000	55		 push	 ebp
  00001	8b ec		 mov	 ebp, esp
  00003	56		 push	 esi

; 36   : 		free(p);

  00004	8b f4		 mov	 esi, esp
  00006	8b 45 08	 mov	 eax, DWORD PTR _p$[ebp]
  00009	50		 push	 eax
  0000a	ff 15 00 00 00
	00		 call	 DWORD PTR __imp__free
  00010	83 c4 04	 add	 esp, 4
  00013	3b f4		 cmp	 esi, esp
  00015	e8 00 00 00 00	 call	 __RTC_CheckEsp

; 37   : 	}

  0001a	5e		 pop	 esi
  0001b	3b ec		 cmp	 ebp, esp
  0001d	e8 00 00 00 00	 call	 __RTC_CheckEsp
  00022	5d		 pop	 ebp
  00023	c3		 ret	 0
?Free@CCRTAllocator@ATL@@SAXPAX@Z ENDP			; ATL::CCRTAllocator::Free
; Function compile flags: /Odt /RTCsu
_TEXT	ENDS
;	COMDAT ??0?$CTempBuffer@D$0IA@VCCRTAllocator@ATL@@@ATL@@QAE@XZ
_TEXT	SEGMENT
_this$ = -4						; size = 4
??0?$CTempBuffer@D$0IA@VCCRTAllocator@ATL@@@ATL@@QAE@XZ PROC NEAR ; ATL::CTempBuffer<char,128,ATL::CCRTAllocator>::CTempBuffer<char,128,ATL::CCRTAllocator>, COMDAT
; _this$ = ecx

; 216  : 	{

  00000	55		 push	 ebp
  00001	8b ec		 mov	 ebp, esp
  00003	51		 push	 ecx
  00004	c7 45 fc cc cc
	cc cc		 mov	 DWORD PTR [ebp-4], -858993460 ; ccccccccH
  0000b	89 4d fc	 mov	 DWORD PTR _this$[ebp], ecx
  0000e	8b 45 fc	 mov	 eax, DWORD PTR _this$[ebp]
  00011	c7 00 00 00 00
	00		 mov	 DWORD PTR [eax], 0

; 217  : 	}

  00017	8b 45 fc	 mov	 eax, DWORD PTR _this$[ebp]
  0001a	8b e5		 mov	 esp, ebp
  0001c	5d		 pop	 ebp
  0001d	c3		 ret	 0
??0?$CTempBuffer@D$0IA@VCCRTAllocator@ATL@@@ATL@@QAE@XZ ENDP ; ATL::CTempBuffer<char,128,ATL::CCRTAllocator>::CTempBuffer<char,128,ATL::CCRTAllocator>
_TEXT	ENDS
PUBLIC	?FreeHeap@?$CTempBuffer@D$0IA@VCCRTAllocator@ATL@@@ATL@@AAEXXZ ; ATL::CTempBuffer<char,128,ATL::CCRTAllocator>::FreeHeap
; Function compile flags: /Odt /RTCsu
;	COMDAT ??1?$CTempBuffer@D$0IA@VCCRTAllocator@ATL@@@ATL@@QAE@XZ
_TEXT	SEGMENT
_this$ = -4						; size = 4
??1?$CTempBuffer@D$0IA@VCCRTAllocator@ATL@@@ATL@@QAE@XZ PROC NEAR ; ATL::CTempBuffer<char,128,ATL::CCRTAllocator>::~CTempBuffer<char,128,ATL::CCRTAllocator>, COMDAT
; _this$ = ecx

; 225  : 	{

  00000	55		 push	 ebp
  00001	8b ec		 mov	 ebp, esp
  00003	51		 push	 ecx
  00004	c7 45 fc cc cc
	cc cc		 mov	 DWORD PTR [ebp-4], -858993460 ; ccccccccH
  0000b	89 4d fc	 mov	 DWORD PTR _this$[ebp], ecx

; 226  : 		if( m_p != reinterpret_cast< T* >( m_abFixedBuffer ) )

  0000e	8b 45 fc	 mov	 eax, DWORD PTR _this$[ebp]
  00011	83 c0 04	 add	 eax, 4
  00014	8b 4d fc	 mov	 ecx, DWORD PTR _this$[ebp]
  00017	39 01		 cmp	 DWORD PTR [ecx], eax
  00019	74 08		 je	 SHORT $L181578

; 227  : 		{
; 228  : 			FreeHeap();

  0001b	8b 4d fc	 mov	 ecx, DWORD PTR _this$[ebp]
  0001e	e8 00 00 00 00	 call	 ?FreeHeap@?$CTempBuffer@D$0IA@VCCRTAllocator@ATL@@@ATL@@AAEXXZ ; ATL::CTempBuffer<char,128,ATL::CCRTAllocator>::FreeHeap
$L181578:

; 229  : 		}
; 230  : 	}

  00023	83 c4 04	 add	 esp, 4
  00026	3b ec		 cmp	 ebp, esp
  00028	e8 00 00 00 00	 call	 __RTC_CheckEsp
  0002d	8b e5		 mov	 esp, ebp
  0002f	5d		 pop	 ebp
  00030	c3		 ret	 0
??1?$CTempBuffer@D$0IA@VCCRTAllocator@ATL@@@ATL@@QAE@XZ ENDP ; ATL::CTempBuffer<char,128,ATL::CCRTAllocator>::~CTempBuffer<char,128,ATL::CCRTAllocator>
; Function compile flags: /Odt /RTCsu
_TEXT	ENDS
;	COMDAT ??B?$CTempBuffer@D$0IA@VCCRTAllocator@ATL@@@ATL@@QBEPADXZ
_TEXT	SEGMENT
_this$ = -4						; size = 4
??B?$CTempBuffer@D$0IA@VCCRTAllocator@ATL@@@ATL@@QBEPADXZ PROC NEAR ; ATL::CTempBuffer<char,128,ATL::CCRTAllocator>::operator char *, COMDAT
; _this$ = ecx

; 233  : 	{

  00000	55		 push	 ebp
  00001	8b ec		 mov	 ebp, esp
  00003	51		 push	 ecx
  00004	c7 45 fc cc cc
	cc cc		 mov	 DWORD PTR [ebp-4], -858993460 ; ccccccccH
  0000b	89 4d fc	 mov	 DWORD PTR _this$[ebp], ecx

; 234  : 		return( m_p );

  0000e	8b 45 fc	 mov	 eax, DWORD PTR _this$[ebp]
  00011	8b 00		 mov	 eax, DWORD PTR [eax]

; 235  : 	}

  00013	8b e5		 mov	 esp, ebp
  00015	5d		 pop	 ebp
  00016	c3		 ret	 0
??B?$CTempBuffer@D$0IA@VCCRTAllocator@ATL@@@ATL@@QBEPADXZ ENDP ; ATL::CTempBuffer<char,128,ATL::CCRTAllocator>::operator char *
_TEXT	ENDS
PUBLIC	?AllocateBytes@?$CTempBuffer@D$0IA@VCCRTAllocator@ATL@@@ATL@@QAEPADI@Z ; ATL::CTempBuffer<char,128,ATL::CCRTAllocator>::AllocateBytes
; Function compile flags: /Odt /RTCsu
;	COMDAT ?Allocate@?$CTempBuffer@D$0IA@VCCRTAllocator@ATL@@@ATL@@QAEPADI@Z
_TEXT	SEGMENT
_this$ = -4						; size = 4
_nElements$ = 8						; size = 4
?Allocate@?$CTempBuffer@D$0IA@VCCRTAllocator@ATL@@@ATL@@QAEPADI@Z PROC NEAR ; ATL::CTempBuffer<char,128,ATL::CCRTAllocator>::Allocate, COMDAT
; _this$ = ecx

; 243  : 	{

  00000	55		 push	 ebp
  00001	8b ec		 mov	 ebp, esp
  00003	51		 push	 ecx
  00004	c7 45 fc cc cc
	cc cc		 mov	 DWORD PTR [ebp-4], -858993460 ; ccccccccH
  0000b	89 4d fc	 mov	 DWORD PTR _this$[ebp], ecx

; 244  : 		return( AllocateBytes( nElements*sizeof( T ) ) );

  0000e	8b 45 08	 mov	 eax, DWORD PTR _nElements$[ebp]
  00011	50		 push	 eax
  00012	8b 4d fc	 mov	 ecx, DWORD PTR _this$[ebp]
  00015	e8 00 00 00 00	 call	 ?AllocateBytes@?$CTempBuffer@D$0IA@VCCRTAllocator@ATL@@@ATL@@QAEPADI@Z ; ATL::CTempBuffer<char,128,ATL::CCRTAllocator>::AllocateBytes

; 245  : 	}

  0001a	83 c4 04	 add	 esp, 4
  0001d	3b ec		 cmp	 ebp, esp
  0001f	e8 00 00 00 00	 call	 __RTC_CheckEsp
  00024	8b e5		 mov	 esp, ebp
  00026	5d		 pop	 ebp
  00027	c2 04 00	 ret	 4
?Allocate@?$CTempBuffer@D$0IA@VCCRTAllocator@ATL@@@ATL@@QAEPADI@Z ENDP ; ATL::CTempBuffer<char,128,ATL::CCRTAllocator>::Allocate
_TEXT	ENDS
PUBLIC	?Init@?$CW2AEX@$0IA@@ATL@@AAEXPB_WI@Z		; ATL::CW2AEX<128>::Init
; Function compile flags: /Odt /RTCsu
; File d:\program files (x86)\microsoft visual studio .net 2003\vc7\atlmfc\include\atlconv.h
;	COMDAT ??0?$CW2AEX@$0IA@@ATL@@QAE@PB_W@Z
_TEXT	SEGMENT
_this$ = -4						; size = 4
_psz$ = 8						; size = 4
??0?$CW2AEX@$0IA@@ATL@@QAE@PB_W@Z PROC NEAR		; ATL::CW2AEX<128>::CW2AEX<128>, COMDAT
; _this$ = ecx

; 419  : 	{

  00000	55		 push	 ebp
  00001	8b ec		 mov	 ebp, esp
  00003	51		 push	 ecx
  00004	c7 45 fc cc cc
	cc cc		 mov	 DWORD PTR [ebp-4], -858993460 ; ccccccccH
  0000b	89 4d fc	 mov	 DWORD PTR _this$[ebp], ecx
  0000e	8b 45 fc	 mov	 eax, DWORD PTR _this$[ebp]
  00011	83 c0 04	 add	 eax, 4
  00014	8b 4d fc	 mov	 ecx, DWORD PTR _this$[ebp]
  00017	89 01		 mov	 DWORD PTR [ecx], eax

; 420  : 		Init( psz, _AtlGetConversionACP() );

  00019	e8 00 00 00 00	 call	 ?_AtlGetConversionACP@ATL@@YGIXZ ; ATL::_AtlGetConversionACP
  0001e	50		 push	 eax
  0001f	8b 55 08	 mov	 edx, DWORD PTR _psz$[ebp]
  00022	52		 push	 edx
  00023	8b 4d fc	 mov	 ecx, DWORD PTR _this$[ebp]
  00026	e8 00 00 00 00	 call	 ?Init@?$CW2AEX@$0IA@@ATL@@AAEXPB_WI@Z ; ATL::CW2AEX<128>::Init

; 421  : 	}

  0002b	8b 45 fc	 mov	 eax, DWORD PTR _this$[ebp]
  0002e	83 c4 04	 add	 esp, 4
  00031	3b ec		 cmp	 ebp, esp
  00033	e8 00 00 00 00	 call	 __RTC_CheckEsp
  00038	8b e5		 mov	 esp, ebp
  0003a	5d		 pop	 ebp
  0003b	c2 04 00	 ret	 4
??0?$CW2AEX@$0IA@@ATL@@QAE@PB_W@Z ENDP			; ATL::CW2AEX<128>::CW2AEX<128>
; Function compile flags: /Odt /RTCsu
_TEXT	ENDS
;	COMDAT ??1?$CW2AEX@$0IA@@ATL@@QAE@XZ
_TEXT	SEGMENT
_this$ = -4						; size = 4
??1?$CW2AEX@$0IA@@ATL@@QAE@XZ PROC NEAR			; ATL::CW2AEX<128>::~CW2AEX<128>, COMDAT
; _this$ = ecx

; 428  : 	{

  00000	55		 push	 ebp
  00001	8b ec		 mov	 ebp, esp
  00003	51		 push	 ecx
  00004	56		 push	 esi
  00005	c7 45 fc cc cc
	cc cc		 mov	 DWORD PTR [ebp-4], -858993460 ; ccccccccH
  0000c	89 4d fc	 mov	 DWORD PTR _this$[ebp], ecx

; 429  : 		if( m_psz != m_szBuffer )

  0000f	8b 45 fc	 mov	 eax, DWORD PTR _this$[ebp]
  00012	83 c0 04	 add	 eax, 4
  00015	8b 4d fc	 mov	 ecx, DWORD PTR _this$[ebp]
  00018	39 01		 cmp	 DWORD PTR [ecx], eax
  0001a	74 18		 je	 SHORT $L181589

; 430  : 		{
; 431  : 			free( m_psz );

  0001c	8b f4		 mov	 esi, esp
  0001e	8b 55 fc	 mov	 edx, DWORD PTR _this$[ebp]
  00021	8b 02		 mov	 eax, DWORD PTR [edx]
  00023	50		 push	 eax
  00024	ff 15 00 00 00
	00		 call	 DWORD PTR __imp__free
  0002a	83 c4 04	 add	 esp, 4
  0002d	3b f4		 cmp	 esi, esp
  0002f	e8 00 00 00 00	 call	 __RTC_CheckEsp
$L181589:

; 432  : 		}
; 433  : 	}

  00034	5e		 pop	 esi
  00035	83 c4 04	 add	 esp, 4
  00038	3b ec		 cmp	 ebp, esp
  0003a	e8 00 00 00 00	 call	 __RTC_CheckEsp
  0003f	8b e5		 mov	 esp, ebp
  00041	5d		 pop	 ebp
  00042	c3		 ret	 0
??1?$CW2AEX@$0IA@@ATL@@QAE@XZ ENDP			; ATL::CW2AEX<128>::~CW2AEX<128>
; Function compile flags: /Odt /RTCsu
_TEXT	ENDS
;	COMDAT ??B?$CW2AEX@$0IA@@ATL@@QBEPADXZ
_TEXT	SEGMENT
_this$ = -4						; size = 4
??B?$CW2AEX@$0IA@@ATL@@QBEPADXZ PROC NEAR		; ATL::CW2AEX<128>::operator char *, COMDAT
; _this$ = ecx

; 436  : 	{

  00000	55		 push	 ebp
  00001	8b ec		 mov	 ebp, esp
  00003	51		 push	 ecx
  00004	c7 45 fc cc cc
	cc cc		 mov	 DWORD PTR [ebp-4], -858993460 ; ccccccccH
  0000b	89 4d fc	 mov	 DWORD PTR _this$[ebp], ecx

; 437  : 		return( m_psz );

  0000e	8b 45 fc	 mov	 eax, DWORD PTR _this$[ebp]
  00011	8b 00		 mov	 eax, DWORD PTR [eax]

; 438  : 	}

  00013	8b e5		 mov	 esp, ebp
  00015	5d		 pop	 ebp
  00016	c3		 ret	 0
??B?$CW2AEX@$0IA@@ATL@@QBEPADXZ ENDP			; ATL::CW2AEX<128>::operator char *
_TEXT	ENDS
PUBLIC	??_C@_08GPODJFIN@m_p?5?$DN?$DN?50?$AA@		; `string'
PUBLIC	??_C@_0FH@BOCPFCEM@D?3?2Program?5Files?5?$CIx86?$CJ?2Microsoft@ ; `string'
PUBLIC	?AllocateHeap@?$CTempBuffer@D$0IA@VCCRTAllocator@ATL@@@ATL@@AAEXI@Z ; ATL::CTempBuffer<char,128,ATL::CCRTAllocator>::AllocateHeap
;	COMDAT ??_C@_08GPODJFIN@m_p?5?$DN?$DN?50?$AA@
; File d:\program files (x86)\microsoft visual studio .net 2003\vc7\atlmfc\include\atlalloc.h
CONST	SEGMENT
??_C@_08GPODJFIN@m_p?5?$DN?$DN?50?$AA@ DB 'm_p == 0', 00H ; `string'
CONST	ENDS
;	COMDAT ??_C@_0FH@BOCPFCEM@D?3?2Program?5Files?5?$CIx86?$CJ?2Microsoft@
CONST	SEGMENT
??_C@_0FH@BOCPFCEM@D?3?2Program?5Files?5?$CIx86?$CJ?2Microsoft@ DB 'D:\Pr'
	DB	'ogram Files (x86)\Microsoft Visual Studio .NET 2003\Vc7\atlmf'
	DB	'c\include\atlalloc.h', 00H			; `string'
; Function compile flags: /Odt /RTCsu
CONST	ENDS
;	COMDAT ?AllocateBytes@?$CTempBuffer@D$0IA@VCCRTAllocator@ATL@@@ATL@@QAEPADI@Z
_TEXT	SEGMENT
_this$ = -4						; size = 4
_nBytes$ = 8						; size = 4
?AllocateBytes@?$CTempBuffer@D$0IA@VCCRTAllocator@ATL@@@ATL@@QAEPADI@Z PROC NEAR ; ATL::CTempBuffer<char,128,ATL::CCRTAllocator>::AllocateBytes, COMDAT
; _this$ = ecx

; 276  : 	{

  00000	55		 push	 ebp
  00001	8b ec		 mov	 ebp, esp
  00003	51		 push	 ecx
  00004	56		 push	 esi
  00005	c7 45 fc cc cc
	cc cc		 mov	 DWORD PTR [ebp-4], -858993460 ; ccccccccH
  0000c	89 4d fc	 mov	 DWORD PTR _this$[ebp], ecx

; 277  : 		ATLASSERT( m_p == NULL );

  0000f	8b 45 fc	 mov	 eax, DWORD PTR _this$[ebp]
  00012	83 38 00	 cmp	 DWORD PTR [eax], 0
  00015	74 2b		 je	 SHORT $L197722
  00017	8b f4		 mov	 esi, esp
  00019	68 00 00 00 00	 push	 OFFSET FLAT:??_C@_08GPODJFIN@m_p?5?$DN?$DN?50?$AA@
  0001e	6a 00		 push	 0
  00020	68 15 01 00 00	 push	 277			; 00000115H
  00025	68 00 00 00 00	 push	 OFFSET FLAT:??_C@_0FH@BOCPFCEM@D?3?2Program?5Files?5?$CIx86?$CJ?2Microsoft@
  0002a	6a 02		 push	 2
  0002c	ff 15 00 00 00
	00		 call	 DWORD PTR __imp___CrtDbgReport
  00032	83 c4 14	 add	 esp, 20			; 00000014H
  00035	3b f4		 cmp	 esi, esp
  00037	e8 00 00 00 00	 call	 __RTC_CheckEsp
  0003c	83 f8 01	 cmp	 eax, 1
  0003f	75 01		 jne	 SHORT $L197722
  00041	cc		 int	 3
$L197722:

; 278  : 		if( nBytes > t_nFixedBytes )

  00042	81 7d 08 80 00
	00 00		 cmp	 DWORD PTR _nBytes$[ebp], 128 ; 00000080H
  00049	76 0e		 jbe	 SHORT $L183346

; 279  : 		{
; 280  : 			AllocateHeap( nBytes );

  0004b	8b 55 08	 mov	 edx, DWORD PTR _nBytes$[ebp]
  0004e	52		 push	 edx
  0004f	8b 4d fc	 mov	 ecx, DWORD PTR _this$[ebp]
  00052	e8 00 00 00 00	 call	 ?AllocateHeap@?$CTempBuffer@D$0IA@VCCRTAllocator@ATL@@@ATL@@AAEXI@Z ; ATL::CTempBuffer<char,128,ATL::CCRTAllocator>::AllocateHeap

; 281  : 		}
; 282  : 		else

  00057	eb 0b		 jmp	 SHORT $L183347
$L183346:

; 283  : 		{
; 284  : 			m_p = reinterpret_cast< T* >( m_abFixedBuffer );

  00059	8b 45 fc	 mov	 eax, DWORD PTR _this$[ebp]
  0005c	83 c0 04	 add	 eax, 4
  0005f	8b 4d fc	 mov	 ecx, DWORD PTR _this$[ebp]
  00062	89 01		 mov	 DWORD PTR [ecx], eax
$L183347:

; 285  : 		}
; 286  : 
; 287  : 		return( m_p );

  00064	8b 55 fc	 mov	 edx, DWORD PTR _this$[ebp]
  00067	8b 02		 mov	 eax, DWORD PTR [edx]

; 288  : 	}

  00069	5e		 pop	 esi
  0006a	83 c4 04	 add	 esp, 4
  0006d	3b ec		 cmp	 ebp, esp
  0006f	e8 00 00 00 00	 call	 __RTC_CheckEsp
  00074	8b e5		 mov	 esp, ebp
  00076	5d		 pop	 ebp
  00077	c2 04 00	 ret	 4
?AllocateBytes@?$CTempBuffer@D$0IA@VCCRTAllocator@ATL@@@ATL@@QAEPADI@Z ENDP ; ATL::CTempBuffer<char,128,ATL::CCRTAllocator>::AllocateBytes
; Function compile flags: /Odt /RTCsu
_TEXT	ENDS
;	COMDAT ?FreeHeap@?$CTempBuffer@D$0IA@VCCRTAllocator@ATL@@@ATL@@AAEXXZ
_TEXT	SEGMENT
_this$ = -4						; size = 4
?FreeHeap@?$CTempBuffer@D$0IA@VCCRTAllocator@ATL@@@ATL@@AAEXXZ PROC NEAR ; ATL::CTempBuffer<char,128,ATL::CCRTAllocator>::FreeHeap, COMDAT
; _this$ = ecx

; 312  : 	{

  00000	55		 push	 ebp
  00001	8b ec		 mov	 ebp, esp
  00003	51		 push	 ecx
  00004	c7 45 fc cc cc
	cc cc		 mov	 DWORD PTR [ebp-4], -858993460 ; ccccccccH
  0000b	89 4d fc	 mov	 DWORD PTR _this$[ebp], ecx

; 313  : 		Allocator::Free( m_p );

  0000e	8b 45 fc	 mov	 eax, DWORD PTR _this$[ebp]
  00011	8b 08		 mov	 ecx, DWORD PTR [eax]
  00013	51		 push	 ecx
  00014	e8 00 00 00 00	 call	 ?Free@CCRTAllocator@ATL@@SAXPAX@Z ; ATL::CCRTAllocator::Free
  00019	83 c4 04	 add	 esp, 4

; 314  : 	}

  0001c	83 c4 04	 add	 esp, 4
  0001f	3b ec		 cmp	 ebp, esp
  00021	e8 00 00 00 00	 call	 __RTC_CheckEsp
  00026	8b e5		 mov	 esp, ebp
  00028	5d		 pop	 ebp
  00029	c3		 ret	 0
?FreeHeap@?$CTempBuffer@D$0IA@VCCRTAllocator@ATL@@@ATL@@AAEXXZ ENDP ; ATL::CTempBuffer<char,128,ATL::CCRTAllocator>::FreeHeap
_TEXT	ENDS
PUBLIC	?AtlThrowLastWin32@ATL@@YGXXZ			; ATL::AtlThrowLastWin32
; Function compile flags: /Odt /RTCsu
; File d:\program files (x86)\microsoft visual studio .net 2003\vc7\atlmfc\include\atlconv.h
;	COMDAT ?Init@?$CW2AEX@$0IA@@ATL@@AAEXPB_WI@Z
_TEXT	SEGMENT
_nLengthA$ = -12					; size = 4
_nLengthW$ = -8						; size = 4
_this$ = -4						; size = 4
_psz$ = 8						; size = 4
_nCodePage$ = 12					; size = 4
?Init@?$CW2AEX@$0IA@@ATL@@AAEXPB_WI@Z PROC NEAR		; ATL::CW2AEX<128>::Init, COMDAT
; _this$ = ecx

; 442  : 	{

  00000	55		 push	 ebp
  00001	8b ec		 mov	 ebp, esp
  00003	83 ec 0c	 sub	 esp, 12			; 0000000cH
  00006	56		 push	 esi
  00007	c7 45 f4 cc cc
	cc cc		 mov	 DWORD PTR [ebp-12], -858993460 ; ccccccccH
  0000e	c7 45 f8 cc cc
	cc cc		 mov	 DWORD PTR [ebp-8], -858993460 ; ccccccccH
  00015	c7 45 fc cc cc
	cc cc		 mov	 DWORD PTR [ebp-4], -858993460 ; ccccccccH
  0001c	89 4d fc	 mov	 DWORD PTR _this$[ebp], ecx

; 443  : 		if (psz == NULL)

  0001f	83 7d 08 00	 cmp	 DWORD PTR _psz$[ebp], 0
  00023	75 0e		 jne	 SHORT $L183353

; 444  : 		{
; 445  : 			m_psz = NULL;

  00025	8b 45 fc	 mov	 eax, DWORD PTR _this$[ebp]
  00028	c7 00 00 00 00
	00		 mov	 DWORD PTR [eax], 0

; 446  : 			return;

  0002e	e9 8b 00 00 00	 jmp	 $L197724
$L183353:

; 447  : 		}
; 448  : 		int nLengthW = lstrlenW( psz )+1;

  00033	8b f4		 mov	 esi, esp
  00035	8b 4d 08	 mov	 ecx, DWORD PTR _psz$[ebp]
  00038	51		 push	 ecx
  00039	ff 15 00 00 00
	00		 call	 DWORD PTR __imp__lstrlenW@4
  0003f	3b f4		 cmp	 esi, esp
  00041	e8 00 00 00 00	 call	 __RTC_CheckEsp
  00046	83 c0 01	 add	 eax, 1
  00049	89 45 f8	 mov	 DWORD PTR _nLengthW$[ebp], eax

; 449  : 		int nLengthA = nLengthW*2;

  0004c	8b 55 f8	 mov	 edx, DWORD PTR _nLengthW$[ebp]
  0004f	d1 e2		 shl	 edx, 1
  00051	89 55 f4	 mov	 DWORD PTR _nLengthA$[ebp], edx

; 450  : 
; 451  : 		if( nLengthA > t_nBufferLength )

  00054	81 7d f4 80 00
	00 00		 cmp	 DWORD PTR _nLengthA$[ebp], 128 ; 00000080H
  0005b	7e 2d		 jle	 SHORT $L183356

; 452  : 		{
; 453  : 			m_psz = static_cast< LPSTR >( malloc( nLengthA*sizeof( char ) ) );

  0005d	8b f4		 mov	 esi, esp
  0005f	8b 45 f4	 mov	 eax, DWORD PTR _nLengthA$[ebp]
  00062	50		 push	 eax
  00063	ff 15 00 00 00
	00		 call	 DWORD PTR __imp__malloc
  00069	83 c4 04	 add	 esp, 4
  0006c	3b f4		 cmp	 esi, esp
  0006e	e8 00 00 00 00	 call	 __RTC_CheckEsp
  00073	8b 4d fc	 mov	 ecx, DWORD PTR _this$[ebp]
  00076	89 01		 mov	 DWORD PTR [ecx], eax

; 454  : 			if (m_psz == NULL)

  00078	8b 55 fc	 mov	 edx, DWORD PTR _this$[ebp]
  0007b	83 3a 00	 cmp	 DWORD PTR [edx], 0
  0007e	75 0a		 jne	 SHORT $L183356

; 455  : 			{
; 456  : 				AtlThrow( E_OUTOFMEMORY );

  00080	68 0e 00 07 80	 push	 -2147024882		; 8007000eH
  00085	e8 00 00 00 00	 call	 ?AtlThrow@ATL@@YGXJ@Z	; ATL::AtlThrow
$L183356:

; 457  : 			}
; 458  : 		}
; 459  : 
; 460  : 		if (::WideCharToMultiByte( nCodePage, 0, psz, nLengthW, m_psz, nLengthA, NULL, NULL ) == 0)

  0008a	8b f4		 mov	 esi, esp
  0008c	6a 00		 push	 0
  0008e	6a 00		 push	 0
  00090	8b 45 f4	 mov	 eax, DWORD PTR _nLengthA$[ebp]
  00093	50		 push	 eax
  00094	8b 4d fc	 mov	 ecx, DWORD PTR _this$[ebp]
  00097	8b 11		 mov	 edx, DWORD PTR [ecx]
  00099	52		 push	 edx
  0009a	8b 45 f8	 mov	 eax, DWORD PTR _nLengthW$[ebp]
  0009d	50		 push	 eax
  0009e	8b 4d 08	 mov	 ecx, DWORD PTR _psz$[ebp]
  000a1	51		 push	 ecx
  000a2	6a 00		 push	 0
  000a4	8b 55 0c	 mov	 edx, DWORD PTR _nCodePage$[ebp]
  000a7	52		 push	 edx
  000a8	ff 15 00 00 00
	00		 call	 DWORD PTR __imp__WideCharToMultiByte@32
  000ae	3b f4		 cmp	 esi, esp
  000b0	e8 00 00 00 00	 call	 __RTC_CheckEsp
  000b5	85 c0		 test	 eax, eax
  000b7	75 05		 jne	 SHORT $L197724

; 461  : 		{
; 462  : 			AtlThrowLastWin32();

  000b9	e8 00 00 00 00	 call	 ?AtlThrowLastWin32@ATL@@YGXXZ ; ATL::AtlThrowLastWin32
$L197724:

; 463  : 		}
; 464  : 	}

  000be	5e		 pop	 esi
  000bf	83 c4 0c	 add	 esp, 12			; 0000000cH
  000c2	3b ec		 cmp	 ebp, esp
  000c4	e8 00 00 00 00	 call	 __RTC_CheckEsp
  000c9	8b e5		 mov	 esp, ebp
  000cb	5d		 pop	 ebp
  000cc	c2 08 00	 ret	 8
?Init@?$CW2AEX@$0IA@@ATL@@AAEXPB_WI@Z ENDP		; ATL::CW2AEX<128>::Init
_TEXT	ENDS
EXTRN	__imp__GetLastError@0:NEAR
; Function compile flags: /Odt /RTCsu
; File d:\program files (x86)\microsoft visual studio .net 2003\vc7\atlmfc\include\atlexcept.h
;	COMDAT ?AtlThrowLastWin32@ATL@@YGXXZ
_TEXT	SEGMENT
tv69 = -8						; size = 4
_dwError$ = -4						; size = 4
?AtlThrowLastWin32@ATL@@YGXXZ PROC NEAR			; ATL::AtlThrowLastWin32, COMDAT

; 80   : {

  00000	55		 push	 ebp
  00001	8b ec		 mov	 ebp, esp
  00003	83 ec 08	 sub	 esp, 8
  00006	56		 push	 esi
  00007	c7 45 f8 cc cc
	cc cc		 mov	 DWORD PTR [ebp-8], -858993460 ; ccccccccH
  0000e	c7 45 fc cc cc
	cc cc		 mov	 DWORD PTR [ebp-4], -858993460 ; ccccccccH

; 81   : 	DWORD dwError = ::GetLastError();

  00015	8b f4		 mov	 esi, esp
  00017	ff 15 00 00 00
	00		 call	 DWORD PTR __imp__GetLastError@0
  0001d	3b f4		 cmp	 esi, esp
  0001f	e8 00 00 00 00	 call	 __RTC_CheckEsp
  00024	89 45 fc	 mov	 DWORD PTR _dwError$[ebp], eax

; 82   : 	AtlThrow( HRESULT_FROM_WIN32( dwError ) );

  00027	83 7d fc 00	 cmp	 DWORD PTR _dwError$[ebp], 0
  0002b	7f 08		 jg	 SHORT $L197726
  0002d	8b 45 fc	 mov	 eax, DWORD PTR _dwError$[ebp]
  00030	89 45 f8	 mov	 DWORD PTR tv69[ebp], eax
  00033	eb 18		 jmp	 SHORT $L197727
$L197726:
  00035	8b 4d fc	 mov	 ecx, DWORD PTR _dwError$[ebp]
  00038	81 e1 ff ff 00
	00		 and	 ecx, 65535		; 0000ffffH
  0003e	81 c9 00 00 07
	00		 or	 ecx, 458752		; 00070000H
  00044	81 c9 00 00 00
	80		 or	 ecx, -2147483648	; 80000000H
  0004a	89 4d f8	 mov	 DWORD PTR tv69[ebp], ecx
$L197727:
  0004d	8b 55 f8	 mov	 edx, DWORD PTR tv69[ebp]
  00050	52		 push	 edx
  00051	e8 00 00 00 00	 call	 ?AtlThrow@ATL@@YGXJ@Z	; ATL::AtlThrow
$L197725:

; 83   : }

  00056	5e		 pop	 esi
  00057	83 c4 08	 add	 esp, 8
  0005a	3b ec		 cmp	 ebp, esp
  0005c	e8 00 00 00 00	 call	 __RTC_CheckEsp
  00061	8b e5		 mov	 esp, ebp
  00063	5d		 pop	 ebp
  00064	c3		 ret	 0
?AtlThrowLastWin32@ATL@@YGXXZ ENDP			; ATL::AtlThrowLastWin32
; Function compile flags: /Odt /RTCsu
; File d:\program files (x86)\microsoft visual studio .net 2003\vc7\atlmfc\include\atlalloc.h
_TEXT	ENDS
;	COMDAT ?GetData@CAtlSafeAllocBufferNode@?$CAtlSafeAllocBufferManager@VCCRTAllocator@ATL@@@_ATL_SAFE_ALLOCA_IMPL@ATL@@QAEPAXXZ
_TEXT	SEGMENT
_this$ = -4						; size = 4
?GetData@CAtlSafeAllocBufferNode@?$CAtlSafeAllocBufferManager@VCCRTAllocator@ATL@@@_ATL_SAFE_ALLOCA_IMPL@ATL@@QAEPAXXZ PROC NEAR ; ATL::_ATL_SAFE_ALLOCA_IMPL::CAtlSafeAllocBufferManager<ATL::CCRTAllocator>::CAtlSafeAllocBufferNode::GetData, COMDAT
; _this$ = ecx

; 365  : 		{

  00000	55		 push	 ebp
  00001	8b ec		 mov	 ebp, esp
  00003	51		 push	 ecx
  00004	c7 45 fc cc cc
	cc cc		 mov	 DWORD PTR [ebp-4], -858993460 ; ccccccccH
  0000b	89 4d fc	 mov	 DWORD PTR _this$[ebp], ecx

; 366  : 			return (this + 1);

  0000e	8b 45 fc	 mov	 eax, DWORD PTR _this$[ebp]
  00011	83 c0 08	 add	 eax, 8

; 367  : 		}

  00014	8b e5		 mov	 esp, ebp
  00016	5d		 pop	 ebp
  00017	c3		 ret	 0
?GetData@CAtlSafeAllocBufferNode@?$CAtlSafeAllocBufferManager@VCCRTAllocator@ATL@@@_ATL_SAFE_ALLOCA_IMPL@ATL@@QAEPAXXZ ENDP ; ATL::_ATL_SAFE_ALLOCA_IMPL::CAtlSafeAllocBufferManager<ATL::CCRTAllocator>::CAtlSafeAllocBufferNode::GetData
; Function compile flags: /Odt /RTCsu
_TEXT	ENDS
;	COMDAT ?AllocateHeap@?$CTempBuffer@D$0IA@VCCRTAllocator@ATL@@@ATL@@AAEXI@Z
_TEXT	SEGMENT
_p$ = -8						; size = 4
_this$ = -4						; size = 4
_nBytes$ = 8						; size = 4
?AllocateHeap@?$CTempBuffer@D$0IA@VCCRTAllocator@ATL@@@ATL@@AAEXI@Z PROC NEAR ; ATL::CTempBuffer<char,128,ATL::CCRTAllocator>::AllocateHeap, COMDAT
; _this$ = ecx

; 292  : 	{

  00000	55		 push	 ebp
  00001	8b ec		 mov	 ebp, esp
  00003	83 ec 08	 sub	 esp, 8
  00006	c7 45 f8 cc cc
	cc cc		 mov	 DWORD PTR [ebp-8], -858993460 ; ccccccccH
  0000d	c7 45 fc cc cc
	cc cc		 mov	 DWORD PTR [ebp-4], -858993460 ; ccccccccH
  00014	89 4d fc	 mov	 DWORD PTR _this$[ebp], ecx

; 293  : 		T* p = static_cast< T* >( Allocator::Allocate( nBytes ) );

  00017	8b 45 08	 mov	 eax, DWORD PTR _nBytes$[ebp]
  0001a	50		 push	 eax
  0001b	e8 00 00 00 00	 call	 ?Allocate@CCRTAllocator@ATL@@SAPAXI@Z ; ATL::CCRTAllocator::Allocate
  00020	83 c4 04	 add	 esp, 4
  00023	89 45 f8	 mov	 DWORD PTR _p$[ebp], eax

; 294  : 		if( p == NULL )

  00026	83 7d f8 00	 cmp	 DWORD PTR _p$[ebp], 0
  0002a	75 0a		 jne	 SHORT $L184832

; 295  : 		{
; 296  : 			AtlThrow( E_OUTOFMEMORY );

  0002c	68 0e 00 07 80	 push	 -2147024882		; 8007000eH
  00031	e8 00 00 00 00	 call	 ?AtlThrow@ATL@@YGXJ@Z	; ATL::AtlThrow
$L184832:

; 297  : 		}
; 298  : 		m_p = p;

  00036	8b 4d fc	 mov	 ecx, DWORD PTR _this$[ebp]
  00039	8b 55 f8	 mov	 edx, DWORD PTR _p$[ebp]
  0003c	89 11		 mov	 DWORD PTR [ecx], edx
$L197729:

; 299  : 	}

  0003e	83 c4 08	 add	 esp, 8
  00041	3b ec		 cmp	 ebp, esp
  00043	e8 00 00 00 00	 call	 __RTC_CheckEsp
  00048	8b e5		 mov	 esp, ebp
  0004a	5d		 pop	 ebp
  0004b	c2 04 00	 ret	 4
?AllocateHeap@?$CTempBuffer@D$0IA@VCCRTAllocator@ATL@@@ATL@@AAEXI@Z ENDP ; ATL::CTempBuffer<char,128,ATL::CCRTAllocator>::AllocateHeap
_TEXT	ENDS
EXTRN	__imp_??0?$basic_string@DU?$char_traits@D@std@@V?$allocator@D@2@@std@@QAE@ABV01@@Z:NEAR
EXTRN	__imp_??Y?$basic_string@DU?$char_traits@D@std@@V?$allocator@D@2@@std@@QAEAAV01@ABV01@@Z:NEAR
;	COMDAT xdata$x
; File d:\program files (x86)\microsoft visual studio .net 2003\vc7\include\string
xdata$x	SEGMENT
$T197739 DD	0ffffffffH
	DD	FLAT:$L197733
	DD	00H
	DD	FLAT:$L197732
$T197737 DD	019930520H
	DD	02H
	DD	FLAT:$T197739
	DD	2 DUP(00H)
	DD	2 DUP(00H)
; Function compile flags: /Odt /RTCsu
xdata$x	ENDS
;	COMDAT ??$?HDU?$char_traits@D@std@@V?$allocator@D@1@@std@@YA?AV?$basic_string@DU?$char_traits@D@std@@V?$allocator@D@2@@0@ABV10@0@Z
_TEXT	SEGMENT
tv77 = -52						; size = 4
tv82 = -48						; size = 4
$T197734 = -44						; size = 4
$T197731 = -40						; size = 28
__$EHRec$ = -12						; size = 12
___$ReturnUdt$ = 8					; size = 4
__Left$ = 12						; size = 4
__Right$ = 16						; size = 4
??$?HDU?$char_traits@D@std@@V?$allocator@D@1@@std@@YA?AV?$basic_string@DU?$char_traits@D@std@@V?$allocator@D@2@@0@ABV10@0@Z PROC NEAR ; std::operator+<char,std::char_traits<char>,std::allocator<char> >, COMDAT

; 21   : 	{	// return string + string

  00000	55		 push	 ebp
  00001	8b ec		 mov	 ebp, esp
  00003	6a ff		 push	 -1
  00005	68 00 00 00 00	 push	 __ehhandler$??$?HDU?$char_traits@D@std@@V?$allocator@D@1@@std@@YA?AV?$basic_string@DU?$char_traits@D@std@@V?$allocator@D@2@@0@ABV10@0@Z
  0000a	64 a1 00 00 00
	00		 mov	 eax, DWORD PTR fs:__except_list
  00010	50		 push	 eax
  00011	64 89 25 00 00
	00 00		 mov	 DWORD PTR fs:__except_list, esp
  00018	83 ec 28	 sub	 esp, 40			; 00000028H
  0001b	56		 push	 esi
  0001c	57		 push	 edi
  0001d	8d 7d cc	 lea	 edi, DWORD PTR [ebp-52]
  00020	b9 0a 00 00 00	 mov	 ecx, 10			; 0000000aH
  00025	b8 cc cc cc cc	 mov	 eax, -858993460		; ccccccccH
  0002a	f3 ab		 rep stosd
  0002c	c7 45 d4 00 00
	00 00		 mov	 DWORD PTR $T197734[ebp], 0

; 22   : 	return (basic_string<_Elem, _Traits, _Alloc>(_Left) += _Right);

  00033	8b f4		 mov	 esi, esp
  00035	8b 45 0c	 mov	 eax, DWORD PTR __Left$[ebp]
  00038	50		 push	 eax
  00039	8d 4d d8	 lea	 ecx, DWORD PTR $T197731[ebp]
  0003c	ff 15 00 00 00
	00		 call	 DWORD PTR __imp_??0?$basic_string@DU?$char_traits@D@std@@V?$allocator@D@2@@std@@QAE@ABV01@@Z
  00042	3b f4		 cmp	 esi, esp
  00044	e8 00 00 00 00	 call	 __RTC_CheckEsp
  00049	89 45 d0	 mov	 DWORD PTR tv82[ebp], eax
  0004c	8b 4d d0	 mov	 ecx, DWORD PTR tv82[ebp]
  0004f	89 4d cc	 mov	 DWORD PTR tv77[ebp], ecx
  00052	c7 45 fc 01 00
	00 00		 mov	 DWORD PTR __$EHRec$[ebp+8], 1
  00059	8b f4		 mov	 esi, esp
  0005b	8b 55 10	 mov	 edx, DWORD PTR __Right$[ebp]
  0005e	52		 push	 edx
  0005f	8b 4d cc	 mov	 ecx, DWORD PTR tv77[ebp]
  00062	ff 15 00 00 00
	00		 call	 DWORD PTR __imp_??Y?$basic_string@DU?$char_traits@D@std@@V?$allocator@D@2@@std@@QAEAAV01@ABV01@@Z
  00068	3b f4		 cmp	 esi, esp
  0006a	e8 00 00 00 00	 call	 __RTC_CheckEsp
  0006f	8b f4		 mov	 esi, esp
  00071	50		 push	 eax
  00072	8b 4d 08	 mov	 ecx, DWORD PTR ___$ReturnUdt$[ebp]
  00075	ff 15 00 00 00
	00		 call	 DWORD PTR __imp_??0?$basic_string@DU?$char_traits@D@std@@V?$allocator@D@2@@std@@QAE@ABV01@@Z
  0007b	3b f4		 cmp	 esi, esp
  0007d	e8 00 00 00 00	 call	 __RTC_CheckEsp
  00082	8b 45 d4	 mov	 eax, DWORD PTR $T197734[ebp]
  00085	83 c8 01	 or	 eax, 1
  00088	89 45 d4	 mov	 DWORD PTR $T197734[ebp], eax
  0008b	c6 45 fc 00	 mov	 BYTE PTR __$EHRec$[ebp+8], 0
  0008f	8b f4		 mov	 esi, esp
  00091	8d 4d d8	 lea	 ecx, DWORD PTR $T197731[ebp]
  00094	ff 15 00 00 00
	00		 call	 DWORD PTR __imp_??1?$basic_string@DU?$char_traits@D@std@@V?$allocator@D@2@@std@@QAE@XZ
  0009a	3b f4		 cmp	 esi, esp
  0009c	e8 00 00 00 00	 call	 __RTC_CheckEsp
  000a1	8b 45 08	 mov	 eax, DWORD PTR ___$ReturnUdt$[ebp]

; 23   : 	}

  000a4	8b 4d f4	 mov	 ecx, DWORD PTR __$EHRec$[ebp]
  000a7	64 89 0d 00 00
	00 00		 mov	 DWORD PTR fs:__except_list, ecx
  000ae	5f		 pop	 edi
  000af	5e		 pop	 esi
  000b0	83 c4 34	 add	 esp, 52			; 00000034H
  000b3	3b ec		 cmp	 ebp, esp
  000b5	e8 00 00 00 00	 call	 __RTC_CheckEsp
  000ba	8b e5		 mov	 esp, ebp
  000bc	5d		 pop	 ebp
  000bd	c3		 ret	 0
_TEXT	ENDS
;	COMDAT text$x
text$x	SEGMENT
$L197732:
  00000	8b f4		 mov	 esi, esp
  00002	8d 4d d8	 lea	 ecx, DWORD PTR $T197731[ebp]
  00005	ff 15 00 00 00
	00		 call	 DWORD PTR __imp_??1?$basic_string@DU?$char_traits@D@std@@V?$allocator@D@2@@std@@QAE@XZ
  0000b	3b f4		 cmp	 esi, esp
  0000d	e9 00 00 00 00	 jmp	 __RTC_CheckEsp
$L197733:
  00012	8b 45 d4	 mov	 eax, DWORD PTR $T197734[ebp]
  00015	83 e0 01	 and	 eax, 1
  00018	0f 84 16 00 00
	00		 je	 $L197735
  0001e	83 65 d4 fe	 and	 DWORD PTR $T197734[ebp], -2 ; fffffffeH
  00022	8b f4		 mov	 esi, esp
  00024	8b 4d 08	 mov	 ecx, DWORD PTR ___$ReturnUdt$[ebp]
  00027	ff 15 00 00 00
	00		 call	 DWORD PTR __imp_??1?$basic_string@DU?$char_traits@D@std@@V?$allocator@D@2@@std@@QAE@XZ
  0002d	3b f4		 cmp	 esi, esp
  0002f	e9 00 00 00 00	 jmp	 __RTC_CheckEsp
$L197735:
  00034	c3		 ret	 0
__ehhandler$??$?HDU?$char_traits@D@std@@V?$allocator@D@1@@std@@YA?AV?$basic_string@DU?$char_traits@D@std@@V?$allocator@D@2@@0@ABV10@0@Z:
  00035	b8 00 00 00 00	 mov	 eax, OFFSET FLAT:$T197737
  0003a	e9 00 00 00 00	 jmp	 ___CxxFrameHandler
text$x	ENDS
??$?HDU?$char_traits@D@std@@V?$allocator@D@1@@std@@YA?AV?$basic_string@DU?$char_traits@D@std@@V?$allocator@D@2@@0@ABV10@0@Z ENDP ; std::operator+<char,std::char_traits<char>,std::allocator<char> >
CRT$XCU	SEGMENT
_$S6	DD	FLAT:_$E5
; Function compile flags: /Odt /RTCsu
; File d:\boxgit\playbox\playbox\dev\prj\playbox\src\appconfig\config\configsettingdef.h
CRT$XCU	ENDS
;	COMDAT _$E5
text$yc	SEGMENT
_$E5	PROC NEAR					; COMDAT

; 25   : 	CONF_SETTING_SKIN_IDX,				TYPE_CONFIG_STR,

  00000	55		 push	 ebp
  00001	8b ec		 mov	 ebp, esp
  00003	a1 00 00 00 00	 mov	 eax, DWORD PTR _CONF_SETTING_SKIN_IDX
  00008	a3 00 00 00 00	 mov	 DWORD PTR _CONF_SETTING, eax
  0000d	8b 0d 00 00 00
	00		 mov	 ecx, DWORD PTR _TYPE_CONFIG_STR
  00013	89 0d 04 00 00
	00		 mov	 DWORD PTR _CONF_SETTING+4, ecx

; 26   : 	CONF_SETTING_CONFIG_MAIN_PAGE,		TYPE_CONFIG_STR,

  00019	8b 15 00 00 00
	00		 mov	 edx, DWORD PTR _CONF_SETTING_CONFIG_MAIN_PAGE
  0001f	89 15 08 00 00
	00		 mov	 DWORD PTR _CONF_SETTING+8, edx
  00025	a1 00 00 00 00	 mov	 eax, DWORD PTR _TYPE_CONFIG_STR
  0002a	a3 0c 00 00 00	 mov	 DWORD PTR _CONF_SETTING+12, eax

; 27   : 	CONF_SETTING_CONFIG_PROBLEM_REPORT,	TYPE_CONFIG_STR,

  0002f	8b 0d 00 00 00
	00		 mov	 ecx, DWORD PTR _CONF_SETTING_CONFIG_PROBLEM_REPORT
  00035	89 0d 10 00 00
	00		 mov	 DWORD PTR _CONF_SETTING+16, ecx
  0003b	8b 15 00 00 00
	00		 mov	 edx, DWORD PTR _TYPE_CONFIG_STR
  00041	89 15 14 00 00
	00		 mov	 DWORD PTR _CONF_SETTING+20, edx

; 28   : 	CONF_SETTING_CONFIG_HOME_PAGE,		TYPE_CONFIG_STR,

  00047	a1 00 00 00 00	 mov	 eax, DWORD PTR _CONF_SETTING_CONFIG_HOME_PAGE
  0004c	a3 18 00 00 00	 mov	 DWORD PTR _CONF_SETTING+24, eax
  00051	8b 0d 00 00 00
	00		 mov	 ecx, DWORD PTR _TYPE_CONFIG_STR
  00057	89 0d 1c 00 00
	00		 mov	 DWORD PTR _CONF_SETTING+28, ecx

; 29   : 	CONF_SETTING_CONFIG_IFASKEXIT,		TYPE_CONFIG_BOOL,

  0005d	8b 15 00 00 00
	00		 mov	 edx, DWORD PTR _CONF_SETTING_CONFIG_IFASKEXIT
  00063	89 15 20 00 00
	00		 mov	 DWORD PTR _CONF_SETTING+32, edx
  00069	a1 00 00 00 00	 mov	 eax, DWORD PTR _TYPE_CONFIG_BOOL
  0006e	a3 24 00 00 00	 mov	 DWORD PTR _CONF_SETTING+36, eax

; 30   : 	CONF_SETTING_CONFIG_EXITCHOICE,		TYPE_CONFIG_BOOL,

  00073	8b 0d 00 00 00
	00		 mov	 ecx, DWORD PTR _CONF_SETTING_CONFIG_EXITCHOICE
  00079	89 0d 28 00 00
	00		 mov	 DWORD PTR _CONF_SETTING+40, ecx
  0007f	8b 15 00 00 00
	00		 mov	 edx, DWORD PTR _TYPE_CONFIG_BOOL
  00085	89 15 2c 00 00
	00		 mov	 DWORD PTR _CONF_SETTING+44, edx

; 31   : 	CONF_SETTING_LOGIN_USER_NAME,		TYPE_CONFIG_STR,

  0008b	a1 00 00 00 00	 mov	 eax, DWORD PTR _CONF_SETTING_LOGIN_USER_NAME
  00090	a3 30 00 00 00	 mov	 DWORD PTR _CONF_SETTING+48, eax
  00095	8b 0d 00 00 00
	00		 mov	 ecx, DWORD PTR _TYPE_CONFIG_STR
  0009b	89 0d 34 00 00
	00		 mov	 DWORD PTR _CONF_SETTING+52, ecx

; 32   : 	CONF_SETTING_LOGIN_PASSWORD,		TYPE_CONFIG_STR,

  000a1	8b 15 00 00 00
	00		 mov	 edx, DWORD PTR _CONF_SETTING_LOGIN_PASSWORD
  000a7	89 15 38 00 00
	00		 mov	 DWORD PTR _CONF_SETTING+56, edx
  000ad	a1 00 00 00 00	 mov	 eax, DWORD PTR _TYPE_CONFIG_STR
  000b2	a3 3c 00 00 00	 mov	 DWORD PTR _CONF_SETTING+60, eax

; 33   : 	CONF_SETTING_NETID,					TYPE_CONFIG_STR,

  000b7	8b 0d 00 00 00
	00		 mov	 ecx, DWORD PTR _CONF_SETTING_NETID
  000bd	89 0d 40 00 00
	00		 mov	 DWORD PTR _CONF_SETTING+64, ecx
  000c3	8b 15 00 00 00
	00		 mov	 edx, DWORD PTR _TYPE_CONFIG_STR
  000c9	89 15 44 00 00
	00		 mov	 DWORD PTR _CONF_SETTING+68, edx

; 34   : 	CONF_SETTING_COLOR,					TYPE_CONFIG_INT,

  000cf	a1 00 00 00 00	 mov	 eax, DWORD PTR _CONF_SETTING_COLOR
  000d4	a3 48 00 00 00	 mov	 DWORD PTR _CONF_SETTING+72, eax
  000d9	8b 0d 00 00 00
	00		 mov	 ecx, DWORD PTR _TYPE_CONFIG_INT
  000df	89 0d 4c 00 00
	00		 mov	 DWORD PTR _CONF_SETTING+76, ecx

; 35   : 	CONF_SETTING_LIGHT,					TYPE_CONFIG_INT,

  000e5	8b 15 00 00 00
	00		 mov	 edx, DWORD PTR _CONF_SETTING_LIGHT
  000eb	89 15 50 00 00
	00		 mov	 DWORD PTR _CONF_SETTING+80, edx
  000f1	a1 00 00 00 00	 mov	 eax, DWORD PTR _TYPE_CONFIG_INT
  000f6	a3 54 00 00 00	 mov	 DWORD PTR _CONF_SETTING+84, eax

; 36   : 	CONF_SETTING_COLOR_BTN_INDEX,		TYPE_CONFIG_INT,

  000fb	8b 0d 00 00 00
	00		 mov	 ecx, DWORD PTR _CONF_SETTING_COLOR_BTN_INDEX
  00101	89 0d 58 00 00
	00		 mov	 DWORD PTR _CONF_SETTING+88, ecx
  00107	8b 15 00 00 00
	00		 mov	 edx, DWORD PTR _TYPE_CONFIG_INT
  0010d	89 15 5c 00 00
	00		 mov	 DWORD PTR _CONF_SETTING+92, edx

; 37   : 	CONF_SETTING_COLOR_USER,			TYPE_CONFIG_INT,

  00113	a1 00 00 00 00	 mov	 eax, DWORD PTR _CONF_SETTING_COLOR_USER
  00118	a3 60 00 00 00	 mov	 DWORD PTR _CONF_SETTING+96, eax
  0011d	8b 0d 00 00 00
	00		 mov	 ecx, DWORD PTR _TYPE_CONFIG_INT
  00123	89 0d 64 00 00
	00		 mov	 DWORD PTR _CONF_SETTING+100, ecx

; 38   : 	CONF_SETTING_FIRST_TIME_CHANGESKIN, TYPE_CONFIG_BOOL

  00129	8b 15 00 00 00
	00		 mov	 edx, DWORD PTR _CONF_SETTING_FIRST_TIME_CHANGESKIN
  0012f	89 15 68 00 00
	00		 mov	 DWORD PTR _CONF_SETTING+104, edx

; 39   : };

  00135	a1 00 00 00 00	 mov	 eax, DWORD PTR _TYPE_CONFIG_BOOL
  0013a	a3 6c 00 00 00	 mov	 DWORD PTR _CONF_SETTING+108, eax
  0013f	5d		 pop	 ebp
  00140	c3		 ret	 0
_$E5	ENDP
text$yc	ENDS
CRT$XCU	SEGMENT
_$S8	DD	FLAT:_$E7
; Function compile flags: /Odt /RTCsu
; File d:\boxgit\playbox\playbox\dev\prj\playbox\src\appconfig\config\configappdef.h
CRT$XCU	ENDS
;	COMDAT _$E7
text$yc	SEGMENT
_$E7	PROC NEAR					; COMDAT

; 19   : 	CONF_APP_SWF_PATH,			TYPE_CONFIG_STR,

  00000	55		 push	 ebp
  00001	8b ec		 mov	 ebp, esp
  00003	a1 00 00 00 00	 mov	 eax, DWORD PTR _CONF_APP_SWF_PATH
  00008	a3 00 00 00 00	 mov	 DWORD PTR _CONF_APP, eax
  0000d	8b 0d 00 00 00
	00		 mov	 ecx, DWORD PTR _TYPE_CONFIG_STR
  00013	89 0d 04 00 00
	00		 mov	 DWORD PTR _CONF_APP+4, ecx

; 20   : 	CONF_APP_MAINWND_HOLD,		TYPE_CONFIG_BOOL,

  00019	8b 15 00 00 00
	00		 mov	 edx, DWORD PTR _CONF_APP_MAINWND_HOLD
  0001f	89 15 08 00 00
	00		 mov	 DWORD PTR _CONF_APP+8, edx
  00025	a1 00 00 00 00	 mov	 eax, DWORD PTR _TYPE_CONFIG_BOOL
  0002a	a3 0c 00 00 00	 mov	 DWORD PTR _CONF_APP+12, eax

; 21   : 	CONF_APP_RUN_COUNT,			TYPE_CONFIG_INT,

  0002f	8b 0d 00 00 00
	00		 mov	 ecx, DWORD PTR _CONF_APP_RUN_COUNT
  00035	89 0d 10 00 00
	00		 mov	 DWORD PTR _CONF_APP+16, ecx
  0003b	8b 15 00 00 00
	00		 mov	 edx, DWORD PTR _TYPE_CONFIG_INT
  00041	89 15 14 00 00
	00		 mov	 DWORD PTR _CONF_APP+20, edx

; 22   : 	CONF_APP_PLAYED_GAME,		TYPE_CONFIG_INT,

  00047	a1 00 00 00 00	 mov	 eax, DWORD PTR _CONF_APP_PLAYED_GAME
  0004c	a3 18 00 00 00	 mov	 DWORD PTR _CONF_APP+24, eax
  00051	8b 0d 00 00 00
	00		 mov	 ecx, DWORD PTR _TYPE_CONFIG_INT
  00057	89 0d 1c 00 00
	00		 mov	 DWORD PTR _CONF_APP+28, ecx

; 23   : 	CONF_APP_PLAYED_PC_GAME,	TYPE_CONFIG_INT,

  0005d	8b 15 00 00 00
	00		 mov	 edx, DWORD PTR _CONF_APP_PLAYED_PC_GAME
  00063	89 15 20 00 00
	00		 mov	 DWORD PTR _CONF_APP+32, edx
  00069	a1 00 00 00 00	 mov	 eax, DWORD PTR _TYPE_CONFIG_INT
  0006e	a3 24 00 00 00	 mov	 DWORD PTR _CONF_APP+36, eax

; 24   : 	CONF_APP_PLAYED_ICON_SIZE,	TYPE_CONFIG_INT, //panelicon0,1,2

  00073	8b 0d 00 00 00
	00		 mov	 ecx, DWORD PTR _CONF_APP_PLAYED_ICON_SIZE
  00079	89 0d 28 00 00
	00		 mov	 DWORD PTR _CONF_APP+40, ecx
  0007f	8b 15 00 00 00
	00		 mov	 edx, DWORD PTR _TYPE_CONFIG_INT
  00085	89 15 2c 00 00
	00		 mov	 DWORD PTR _CONF_APP+44, edx

; 25   : 	CONF_APP_PIC_SAVE_PATH,		TYPE_CONFIG_STR

  0008b	a1 00 00 00 00	 mov	 eax, DWORD PTR _CONF_APP_PIC_SAVE_PATH
  00090	a3 30 00 00 00	 mov	 DWORD PTR _CONF_APP+48, eax

; 26   : };

  00095	8b 0d 00 00 00
	00		 mov	 ecx, DWORD PTR _TYPE_CONFIG_STR
  0009b	89 0d 34 00 00
	00		 mov	 DWORD PTR _CONF_APP+52, ecx
  000a1	5d		 pop	 ebp
  000a2	c3		 ret	 0
_$E7	ENDP
text$yc	ENDS
_BSS	SEGMENT
_CONF_APP DD	0eH DUP (?)
_CONF_SETTING DD 01cH DUP (?)
_BSS	ENDS
END
