; Listing generated by Microsoft (R) Optimizing Compiler Version 13.10.3077 

	TITLE	.\PlayBoxDlg.cpp
	.386P
include listing.inc
if @Version gt 510
.model FLAT
else
_TEXT	SEGMENT PARA USE32 PUBLIC 'CODE'
_TEXT	ENDS
_DATA	SEGMENT DWORD USE32 PUBLIC 'DATA'
_DATA	ENDS
CONST	SEGMENT DWORD USE32 PUBLIC 'CONST'
CONST	ENDS
_BSS	SEGMENT DWORD USE32 PUBLIC 'BSS'
_BSS	ENDS
$$SYMBOLS	SEGMENT BYTE USE32 'DEBSYM'
$$SYMBOLS	ENDS
_TLS	SEGMENT DWORD USE32 PUBLIC 'TLS'
_TLS	ENDS
;	COMDAT ??_C@_0P@MDHCGOCC@m_pMemMgr?5?$DN?$DN?50?$AA@
CONST	SEGMENT DWORD USE32 PUBLIC 'CONST'
CONST	ENDS
;	COMDAT ??_C@_0FF@PEBLHPJJ@D?3?2Program?5Files?5?$CIx86?$CJ?2Microsoft@
CONST	SEGMENT DWORD USE32 PUBLIC 'CONST'
CONST	ENDS
;	COMDAT ??_C@_0BK@KICONMKH@pData?9?$DOpStringMgr?5?$DN?$DN?5this?$AA@
CONST	SEGMENT DWORD USE32 PUBLIC 'CONST'
CONST	ENDS
;	COMDAT ??_C@_0CG@HPMMCKHL@?$CI?$CIWORD?$CJ?$CI?$CIDWORD_PTR?$CJ?$CIpsz?$CJ?5?$DO?$DO?516?$CJ?$CJ@
CONST	SEGMENT DWORD USE32 PUBLIC 'CONST'
CONST	ENDS
;	COMDAT ??_C@_0CH@KENCKLIF@?$CIiChar?5?$DO?$DN?50?$CJ?5?$CG?$CG?5?$CIiChar?5?$DM?$DN?5GetLen@
CONST	SEGMENT DWORD USE32 PUBLIC 'CONST'
CONST	ENDS
;	COMDAT ??_C@_0EN@IBFBLEEG@D?3?2Program?5Files?5?$CIx86?$CJ?2Microsoft@
CONST	SEGMENT DWORD USE32 PUBLIC 'CONST'
CONST	ENDS
;	COMDAT ??_C@_0BI@GIMJKKKN@AtlIsValidString?$CI?5psz?5?$CJ?$AA@
CONST	SEGMENT DWORD USE32 PUBLIC 'CONST'
CONST	ENDS
;	COMDAT ??_C@_0DC@KJIHKHDE@?$CInCount?5?$DN?$DN?50?$CJ?5?$HM?$HM?5?$CI?$CIiFirst?$CLnCount@
CONST	SEGMENT DWORD USE32 PUBLIC 'CONST'
CONST	ENDS
rdata$r	SEGMENT DWORD USE32 PUBLIC 'CONST'
rdata$r	ENDS
xdata$x	SEGMENT DWORD USE32 PUBLIC 'CONST'
xdata$x	ENDS
text$AFX_COL1	SEGMENT PARA USE32 PUBLIC ''
text$AFX_COL1	ENDS
text$yc	SEGMENT PARA USE32 PUBLIC 'CODE'
text$yc	ENDS
CRT$XCA	SEGMENT DWORD USE32 PUBLIC 'DATA'
CRT$XCA	ENDS
CRT$XCU	SEGMENT DWORD USE32 PUBLIC 'DATA'
CRT$XCU	ENDS
CRT$XCL	SEGMENT DWORD USE32 PUBLIC 'DATA'
CRT$XCL	ENDS
CRT$XCC	SEGMENT DWORD USE32 PUBLIC 'DATA'
CRT$XCC	ENDS
CRT$XCZ	SEGMENT DWORD USE32 PUBLIC 'DATA'
CRT$XCZ	ENDS
text$yd	SEGMENT PARA USE32 PUBLIC 'CODE'
text$yd	ENDS
ATL$__m	SEGMENT DWORD USE32 PUBLIC ''
ATL$__m	ENDS
ATL$__z	SEGMENT DWORD USE32 PUBLIC ''
ATL$__z	ENDS
ATL$__a	SEGMENT DWORD USE32 PUBLIC ''
ATL$__a	ENDS
;	COMDAT ?ILayoutChangeOb_LayerChanged@ILayoutChangeObserver@@UAEXV?$basic_string@DU?$char_traits@D@std@@V?$allocator@D@2@@std@@00@Z
_TEXT	SEGMENT PARA USE32 PUBLIC 'CODE'
_TEXT	ENDS
;	COMDAT ?ILayoutChangeOb_PaneChanged@ILayoutChangeObserver@@UAEXV?$basic_string@DU?$char_traits@D@std@@V?$allocator@D@2@@std@@0@Z
_TEXT	SEGMENT PARA USE32 PUBLIC 'CODE'
_TEXT	ENDS
;	COMDAT ?ILayoutChangeOb_SkinChanged@ILayoutChangeObserver@@UAEXV?$basic_string@DU?$char_traits@D@std@@V?$allocator@D@2@@std@@0@Z
_TEXT	SEGMENT PARA USE32 PUBLIC 'CODE'
_TEXT	ENDS
;	COMDAT ?ILayoutChangeOb_ColorChanged@ILayoutChangeObserver@@UAEXXZ
_TEXT	SEGMENT PARA USE32 PUBLIC 'CODE'
_TEXT	ENDS
;	COMDAT ?ILayoutChangeOb_ColorChanging@ILayoutChangeObserver@@UAEXXZ
_TEXT	SEGMENT PARA USE32 PUBLIC 'CODE'
_TEXT	ENDS
;	COMDAT ?ILayoutChangeOb_UpdateLayout@ILayoutChangeObserver@@UAEXPAUHWND__@@@Z
_TEXT	SEGMENT PARA USE32 PUBLIC 'CODE'
_TEXT	ENDS
;	COMDAT ?ILayoutChangeOb_InitFinished@ILayoutChangeObserver@@UAEXXZ
_TEXT	SEGMENT PARA USE32 PUBLIC 'CODE'
_TEXT	ENDS
;	COMDAT ?ILayoutChangeOb_InitBegin@ILayoutChangeObserver@@UAEXXZ
_TEXT	SEGMENT PARA USE32 PUBLIC 'CODE'
_TEXT	ENDS
;	COMDAT ?IPanelChangeOb_WindowMax@IPanelChangeObserver@@UAEXXZ
_TEXT	SEGMENT PARA USE32 PUBLIC 'CODE'
_TEXT	ENDS
;	COMDAT ?IPanelChangeOb_WindowMin@IPanelChangeObserver@@UAEXXZ
_TEXT	SEGMENT PARA USE32 PUBLIC 'CODE'
_TEXT	ENDS
;	COMDAT ?IPanelChangeOb_WindowRestore@IPanelChangeObserver@@UAEXXZ
_TEXT	SEGMENT PARA USE32 PUBLIC 'CODE'
_TEXT	ENDS
;	COMDAT ?IPanelChangeOb_WindowClose@IPanelChangeObserver@@UAEXXZ
_TEXT	SEGMENT PARA USE32 PUBLIC 'CODE'
_TEXT	ENDS
;	COMDAT ?IPanelChangeOb_ToFullScreen@IPanelChangeObserver@@UAEXPAVCWnd@@@Z
_TEXT	SEGMENT PARA USE32 PUBLIC 'CODE'
_TEXT	ENDS
;	COMDAT ?IPanelChangeOb_ExitFullScreen@IPanelChangeObserver@@UAEXPAVCWnd@@@Z
_TEXT	SEGMENT PARA USE32 PUBLIC 'CODE'
_TEXT	ENDS
;	COMDAT ??1CAtlStringMgr@ATL@@UAE@XZ
_TEXT	SEGMENT PARA USE32 PUBLIC 'CODE'
_TEXT	ENDS
;	COMDAT ?Allocate@CAtlStringMgr@ATL@@UAEPAUCStringData@2@HH@Z
_TEXT	SEGMENT PARA USE32 PUBLIC 'CODE'
_TEXT	ENDS
;	COMDAT ?Free@CAtlStringMgr@ATL@@UAEXPAUCStringData@2@@Z
_TEXT	SEGMENT PARA USE32 PUBLIC 'CODE'
_TEXT	ENDS
;	COMDAT ?Reallocate@CAtlStringMgr@ATL@@UAEPAUCStringData@2@PAU32@HH@Z
_TEXT	SEGMENT PARA USE32 PUBLIC 'CODE'
_TEXT	ENDS
;	COMDAT ?GetNilString@CAtlStringMgr@ATL@@UAEPAUCStringData@2@XZ
_TEXT	SEGMENT PARA USE32 PUBLIC 'CODE'
_TEXT	ENDS
;	COMDAT ?Clone@CAtlStringMgr@ATL@@UAEPAUIAtlStringMgr@2@XZ
_TEXT	SEGMENT PARA USE32 PUBLIC 'CODE'
_TEXT	ENDS
;	COMDAT ??_GCAtlStringMgr@ATL@@UAEPAXI@Z
_TEXT	SEGMENT PARA USE32 PUBLIC 'CODE'
_TEXT	ENDS
;	COMDAT ?CompareStringW@?$ChTraitsOS@_W@ATL@@KGHKKPB_WH0H@Z
_TEXT	SEGMENT PARA USE32 PUBLIC 'CODE'
_TEXT	ENDS
;	COMDAT ?GetStringTypeExW@?$ChTraitsOS@_W@ATL@@KGHKKPB_WHPAG@Z
_TEXT	SEGMENT PARA USE32 PUBLIC 'CODE'
_TEXT	ENDS
;	COMDAT ?lstrcmpiW@?$ChTraitsOS@_W@ATL@@KGHPB_W0@Z
_TEXT	SEGMENT PARA USE32 PUBLIC 'CODE'
_TEXT	ENDS
;	COMDAT ?CharLowerW@?$ChTraitsOS@_W@ATL@@KGPA_WPA_W@Z
_TEXT	SEGMENT PARA USE32 PUBLIC 'CODE'
_TEXT	ENDS
;	COMDAT ?CharUpperW@?$ChTraitsOS@_W@ATL@@KGPA_WPA_W@Z
_TEXT	SEGMENT PARA USE32 PUBLIC 'CODE'
_TEXT	ENDS
;	COMDAT ?strchr@?$ChTraitsOS@_W@ATL@@SAPB_WPB_W_W@Z
_TEXT	SEGMENT PARA USE32 PUBLIC 'CODE'
_TEXT	ENDS
;	COMDAT ?strrchr@?$ChTraitsOS@_W@ATL@@SAPB_WPB_W_W@Z
_TEXT	SEGMENT PARA USE32 PUBLIC 'CODE'
_TEXT	ENDS
;	COMDAT ?_strrev@?$ChTraitsOS@_W@ATL@@SAPA_WPA_W@Z
_TEXT	SEGMENT PARA USE32 PUBLIC 'CODE'
_TEXT	ENDS
;	COMDAT ?strstr@?$ChTraitsOS@_W@ATL@@SAPB_WPB_W0@Z
_TEXT	SEGMENT PARA USE32 PUBLIC 'CODE'
_TEXT	ENDS
;	COMDAT ?strspn@?$ChTraitsOS@_W@ATL@@SAHPB_W0@Z
_TEXT	SEGMENT PARA USE32 PUBLIC 'CODE'
_TEXT	ENDS
;	COMDAT ?strcspn@?$ChTraitsOS@_W@ATL@@SAHPB_W0@Z
_TEXT	SEGMENT PARA USE32 PUBLIC 'CODE'
_TEXT	ENDS
;	COMDAT ?strpbrk@?$ChTraitsOS@_W@ATL@@SAPB_WPB_W0@Z
_TEXT	SEGMENT PARA USE32 PUBLIC 'CODE'
_TEXT	ENDS
;	COMDAT ?StringFindString@?$ChTraitsOS@_W@ATL@@SAPB_WPB_W0@Z
_TEXT	SEGMENT PARA USE32 PUBLIC 'CODE'
_TEXT	ENDS
;	COMDAT _$E5
text$yc	SEGMENT PARA USE32 PUBLIC 'CODE'
text$yc	ENDS
;	COMDAT _$E7
text$yc	SEGMENT PARA USE32 PUBLIC 'CODE'
text$yc	ENDS
;	COMDAT _$E9
text$yc	SEGMENT PARA USE32 PUBLIC 'CODE'
text$yc	ENDS
;	COMDAT ??1HTTPObserver@@UAE@XZ
_TEXT	SEGMENT PARA USE32 PUBLIC 'CODE'
_TEXT	ENDS
;	COMDAT ?HTTPOb_DownStart@HTTPObserver@@UAEXPBD0I@Z
_TEXT	SEGMENT PARA USE32 PUBLIC 'CODE'
_TEXT	ENDS
;	COMDAT ?HTTPOb_DownFinish@HTTPObserver@@UAEXPBD@Z
_TEXT	SEGMENT PARA USE32 PUBLIC 'CODE'
_TEXT	ENDS
;	COMDAT ?HTTPOb_DownFailed@HTTPObserver@@UAEXPBDW4HTTP_DOWN_FAILED_REASON@@@Z
_TEXT	SEGMENT PARA USE32 PUBLIC 'CODE'
_TEXT	ENDS
;	COMDAT ?HTTPOb_DownProgress@HTTPObserver@@UAEXPBDII@Z
_TEXT	SEGMENT PARA USE32 PUBLIC 'CODE'
_TEXT	ENDS
;	COMDAT ?HTTPOb_DownloadPause@HTTPObserver@@UAEXPBD@Z
_TEXT	SEGMENT PARA USE32 PUBLIC 'CODE'
_TEXT	ENDS
;	COMDAT ??_GHTTPObserver@@UAEPAXI@Z
_TEXT	SEGMENT PARA USE32 PUBLIC 'CODE'
_TEXT	ENDS
;	COMDAT ??1DIBINFO@@UAE@XZ
_TEXT	SEGMENT PARA USE32 PUBLIC 'CODE'
_TEXT	ENDS
;	COMDAT ??_GDIBINFO@@UAEPAXI@Z
_TEXT	SEGMENT PARA USE32 PUBLIC 'CODE'
_TEXT	ENDS
;	COMDAT ??1CGdiPlusBitmap@@UAE@XZ
_TEXT	SEGMENT PARA USE32 PUBLIC 'CODE'
_TEXT	ENDS
;	COMDAT ?Empty@CGdiPlusBitmap@@QAEXXZ
_TEXT	SEGMENT PARA USE32 PUBLIC 'CODE'
_TEXT	ENDS
;	COMDAT ?Load@CGdiPlusBitmap@@QAE_NPB_W@Z
_TEXT	SEGMENT PARA USE32 PUBLIC 'CODE'
_TEXT	ENDS
;	COMDAT ??_GCGdiPlusBitmap@@UAEPAXI@Z
_TEXT	SEGMENT PARA USE32 PUBLIC 'CODE'
_TEXT	ENDS
;	COMDAT ??1IData@@MAE@XZ
_TEXT	SEGMENT PARA USE32 PUBLIC 'CODE'
_TEXT	ENDS
;	COMDAT ?DataAppStart@IData@@UAEXXZ
_TEXT	SEGMENT PARA USE32 PUBLIC 'CODE'
_TEXT	ENDS
;	COMDAT ?DataAppExit@IData@@UAEXXZ
_TEXT	SEGMENT PARA USE32 PUBLIC 'CODE'
_TEXT	ENDS
;	COMDAT ??_GIData@@MAEPAXI@Z
_TEXT	SEGMENT PARA USE32 PUBLIC 'CODE'
_TEXT	ENDS
;	COMDAT ??1CGdiPlusBitmap@CSkinButton@@UAE@XZ
_TEXT	SEGMENT PARA USE32 PUBLIC 'CODE'
_TEXT	ENDS
;	COMDAT ?Empty@CGdiPlusBitmap@CSkinButton@@QAEXXZ
_TEXT	SEGMENT PARA USE32 PUBLIC 'CODE'
_TEXT	ENDS
;	COMDAT ?Load@CGdiPlusBitmap@CSkinButton@@QAE_NPB_W@Z
_TEXT	SEGMENT PARA USE32 PUBLIC 'CODE'
_TEXT	ENDS
;	COMDAT ??_GCGdiPlusBitmap@CSkinButton@@UAEPAXI@Z
_TEXT	SEGMENT PARA USE32 PUBLIC 'CODE'
_TEXT	ENDS
;	COMDAT ??1P2PObserver@@UAE@XZ
_TEXT	SEGMENT PARA USE32 PUBLIC 'CODE'
_TEXT	ENDS
;	COMDAT ?P2POb_DownStart@P2PObserver@@UAEXABV?$basic_string@DU?$char_traits@D@std@@V?$allocator@D@2@@std@@PBDI@Z
_TEXT	SEGMENT PARA USE32 PUBLIC 'CODE'
_TEXT	ENDS
;	COMDAT ?P2POb_DownFinish@P2PObserver@@UAEXABV?$basic_string@DU?$char_traits@D@std@@V?$allocator@D@2@@std@@@Z
_TEXT	SEGMENT PARA USE32 PUBLIC 'CODE'
_TEXT	ENDS
;	COMDAT ?P2POb_DownFailed@P2PObserver@@UAEXABV?$basic_string@DU?$char_traits@D@std@@V?$allocator@D@2@@std@@W4P2P_DOWN_FAILED_REASON@@@Z
_TEXT	SEGMENT PARA USE32 PUBLIC 'CODE'
_TEXT	ENDS
;	COMDAT ?P2POb_DownProgress@P2PObserver@@UAEXABV?$basic_string@DU?$char_traits@D@std@@V?$allocator@D@2@@std@@III@Z
_TEXT	SEGMENT PARA USE32 PUBLIC 'CODE'
_TEXT	ENDS
;	COMDAT ?P2POb_DownPause@P2PObserver@@UAEXABV?$basic_string@DU?$char_traits@D@std@@V?$allocator@D@2@@std@@@Z
_TEXT	SEGMENT PARA USE32 PUBLIC 'CODE'
_TEXT	ENDS
;	COMDAT ?P2POb_SigChange@P2PObserver@@UAEXABV?$basic_string@DU?$char_traits@D@std@@V?$allocator@D@2@@std@@0PBD@Z
_TEXT	SEGMENT PARA USE32 PUBLIC 'CODE'
_TEXT	ENDS
;	COMDAT ??_GP2PObserver@@UAEPAXI@Z
_TEXT	SEGMENT PARA USE32 PUBLIC 'CODE'
_TEXT	ENDS
;	COMDAT ?GetClsid@CShockwaveFlash@@QAEABU_GUID@@XZ
_TEXT	SEGMENT PARA USE32 PUBLIC 'CODE'
_TEXT	ENDS
;	COMDAT ?clear@OneLocalGame@@QAEXXZ
_TEXT	SEGMENT PARA USE32 PUBLIC 'CODE'
_TEXT	ENDS
;	COMDAT ??1IAdData@@MAE@XZ
_TEXT	SEGMENT PARA USE32 PUBLIC 'CODE'
_TEXT	ENDS
;	COMDAT ??_GIAdData@@MAEPAXI@Z
_TEXT	SEGMENT PARA USE32 PUBLIC 'CODE'
_TEXT	ENDS
;	COMDAT ??_GCPlayBoxDlg@@UAEPAXI@Z
_TEXT	SEGMENT PARA USE32 PUBLIC 'CODE'
_TEXT	ENDS
;	COMDAT ??0AfxUserConfig_Observer@@QAE@XZ
_TEXT	SEGMENT PARA USE32 PUBLIC 'CODE'
_TEXT	ENDS
;	COMDAT ??0ILayoutChangeObserver@@QAE@XZ
_TEXT	SEGMENT PARA USE32 PUBLIC 'CODE'
_TEXT	ENDS
;	COMDAT ??1ILayoutChangeObserver@@UAE@XZ
_TEXT	SEGMENT PARA USE32 PUBLIC 'CODE'
_TEXT	ENDS
;	COMDAT ??0IPanelChangeObserver@@QAE@XZ
_TEXT	SEGMENT PARA USE32 PUBLIC 'CODE'
_TEXT	ENDS
;	COMDAT ??1IPanelChangeObserver@@UAE@XZ
_TEXT	SEGMENT PARA USE32 PUBLIC 'CODE'
_TEXT	ENDS
;	COMDAT ??1CPlayBoxDlg@@UAE@XZ
_TEXT	SEGMENT PARA USE32 PUBLIC 'CODE'
_TEXT	ENDS
;	COMDAT ??_GILayoutChangeObserver@@UAEPAXI@Z
_TEXT	SEGMENT PARA USE32 PUBLIC 'CODE'
_TEXT	ENDS
;	COMDAT ??0IMessageObserver@@QAE@XZ
_TEXT	SEGMENT PARA USE32 PUBLIC 'CODE'
_TEXT	ENDS
;	COMDAT ??_GIPanelChangeObserver@@UAEPAXI@Z
_TEXT	SEGMENT PARA USE32 PUBLIC 'CODE'
_TEXT	ENDS
;	COMDAT ??_DCConfigDialog@@QAEXXZ
_TEXT	SEGMENT PARA USE32 PUBLIC 'CODE'
_TEXT	ENDS
;	COMDAT ??9ATL@@YA_NABV?$CStringT@DV?$StrTraitMFC_DLL@DV?$ChTraitsCRT@D@ATL@@@@@0@PBD@Z
_TEXT	SEGMENT PARA USE32 PUBLIC 'CODE'
_TEXT	ENDS
;	COMDAT ??B?$CComPtrBase@UITypeInfo2@@@ATL@@QBEPAUITypeInfo2@@XZ
_TEXT	SEGMENT PARA USE32 PUBLIC 'CODE'
_TEXT	ENDS
;	COMDAT ?equal@?$istreambuf_iterator@DU?$char_traits@D@std@@@std@@QBE_NABV12@@Z
_TEXT	SEGMENT PARA USE32 PUBLIC 'CODE'
_TEXT	ENDS
;	COMDAT ?equal@?$istreambuf_iterator@_WU?$char_traits@_W@std@@@std@@QBE_NABV12@@Z
_TEXT	SEGMENT PARA USE32 PUBLIC 'CODE'
_TEXT	ENDS
;	COMDAT ??0?$list@PAVIMessageObserver@@V?$allocator@PAVIMessageObserver@@@std@@@std@@QAE@XZ
_TEXT	SEGMENT PARA USE32 PUBLIC 'CODE'
_TEXT	ENDS
;	COMDAT ??1?$list@PAVIMessageObserver@@V?$allocator@PAVIMessageObserver@@@std@@@std@@QAE@XZ
_TEXT	SEGMENT PARA USE32 PUBLIC 'CODE'
_TEXT	ENDS
;	COMDAT ?begin@?$list@PAVIMessageObserver@@V?$allocator@PAVIMessageObserver@@@std@@@std@@QAE?AViterator@12@XZ
_TEXT	SEGMENT PARA USE32 PUBLIC 'CODE'
_TEXT	ENDS
;	COMDAT ?end@?$list@PAVIMessageObserver@@V?$allocator@PAVIMessageObserver@@@std@@@std@@QAE?AViterator@12@XZ
_TEXT	SEGMENT PARA USE32 PUBLIC 'CODE'
_TEXT	ENDS
;	COMDAT ??Diterator@?$list@PAVIMessageObserver@@V?$allocator@PAVIMessageObserver@@@std@@@std@@QBEAAPAVIMessageObserver@@XZ
_TEXT	SEGMENT PARA USE32 PUBLIC 'CODE'
_TEXT	ENDS
;	COMDAT ??Eiterator@?$list@PAVIMessageObserver@@V?$allocator@PAVIMessageObserver@@@std@@@std@@QAE?AV012@H@Z
_TEXT	SEGMENT PARA USE32 PUBLIC 'CODE'
_TEXT	ENDS
;	COMDAT ??9const_iterator@?$list@PAVIMessageObserver@@V?$allocator@PAVIMessageObserver@@@std@@@std@@QBE_NABV012@@Z
_TEXT	SEGMENT PARA USE32 PUBLIC 'CODE'
_TEXT	ENDS
;	COMDAT ?_Nextnode@?$list@PAVIMessageObserver@@V?$allocator@PAVIMessageObserver@@@std@@@std@@KAAAPAU_Node@?$_List_nod@PAVIMessageObserver@@V?$allocator@PAVIMessageObserver@@@std@@@2@PAU342@@Z
_TEXT	SEGMENT PARA USE32 PUBLIC 'CODE'
_TEXT	ENDS
;	COMDAT ?_Buynode@?$list@PAVIMessageObserver@@V?$allocator@PAVIMessageObserver@@@std@@@std@@IAEPAU_Node@?$_List_nod@PAVIMessageObserver@@V?$allocator@PAVIMessageObserver@@@std@@@2@XZ
_TEXT	SEGMENT PARA USE32 PUBLIC 'CODE'
_TEXT	ENDS
;	COMDAT ?_Tidy@?$list@PAVIMessageObserver@@V?$allocator@PAVIMessageObserver@@@std@@@std@@IAEXXZ
_TEXT	SEGMENT PARA USE32 PUBLIC 'CODE'
_TEXT	ENDS
;	COMDAT ??0?$_List_val@PAVIMessageObserver@@V?$allocator@PAVIMessageObserver@@@std@@@std@@IAE@V?$allocator@PAVIMessageObserver@@@1@@Z
_TEXT	SEGMENT PARA USE32 PUBLIC 'CODE'
_TEXT	ENDS
;	COMDAT ??0?$allocator@PAVIMessageObserver@@@std@@QAE@XZ
_TEXT	SEGMENT PARA USE32 PUBLIC 'CODE'
_TEXT	ENDS
;	COMDAT ??0iterator@?$list@PAVIMessageObserver@@V?$allocator@PAVIMessageObserver@@@std@@@std@@QAE@PAU_Node@?$_List_nod@PAVIMessageObserver@@V?$allocator@PAVIMessageObserver@@@std@@@2@@Z
_TEXT	SEGMENT PARA USE32 PUBLIC 'CODE'
_TEXT	ENDS
;	COMDAT ??Eiterator@?$list@PAVIMessageObserver@@V?$allocator@PAVIMessageObserver@@@std@@@std@@QAEAAV012@XZ
_TEXT	SEGMENT PARA USE32 PUBLIC 'CODE'
_TEXT	ENDS
;	COMDAT ??Dconst_iterator@?$list@PAVIMessageObserver@@V?$allocator@PAVIMessageObserver@@@std@@@std@@QBEABQAVIMessageObserver@@XZ
_TEXT	SEGMENT PARA USE32 PUBLIC 'CODE'
_TEXT	ENDS
;	COMDAT ??8const_iterator@?$list@PAVIMessageObserver@@V?$allocator@PAVIMessageObserver@@@std@@@std@@QBE_NABV012@@Z
_TEXT	SEGMENT PARA USE32 PUBLIC 'CODE'
_TEXT	ENDS
;	COMDAT ?StringCompare@?$ChTraitsCRT@D@ATL@@SAHPBD0@Z
_TEXT	SEGMENT PARA USE32 PUBLIC 'CODE'
_TEXT	ENDS
;	COMDAT ??0iterator@?$basic_string@DU?$char_traits@D@std@@V?$allocator@D@2@@std@@QAE@PAD@Z
_TEXT	SEGMENT PARA USE32 PUBLIC 'CODE'
_TEXT	ENDS
;	COMDAT ?_Prevnode@?$list@PAVIMessageObserver@@V?$allocator@PAVIMessageObserver@@@std@@@std@@KAAAPAU_Node@?$_List_nod@PAVIMessageObserver@@V?$allocator@PAVIMessageObserver@@@std@@@2@PAU342@@Z
_TEXT	SEGMENT PARA USE32 PUBLIC 'CODE'
_TEXT	ENDS
;	COMDAT ?_Myval@?$list@PAVIMessageObserver@@V?$allocator@PAVIMessageObserver@@@std@@@std@@KAAAPAVIMessageObserver@@PAU_Node@?$_List_nod@PAVIMessageObserver@@V?$allocator@PAVIMessageObserver@@@std@@@2@@Z
_TEXT	SEGMENT PARA USE32 PUBLIC 'CODE'
_TEXT	ENDS
;	COMDAT ?clear@?$list@PAVIMessageObserver@@V?$allocator@PAVIMessageObserver@@@std@@@std@@QAEXXZ
_TEXT	SEGMENT PARA USE32 PUBLIC 'CODE'
_TEXT	ENDS
;	COMDAT ??0?$_List_ptr@PAVIMessageObserver@@V?$allocator@PAVIMessageObserver@@@std@@@std@@IAE@V?$allocator@PAVIMessageObserver@@@1@@Z
_TEXT	SEGMENT PARA USE32 PUBLIC 'CODE'
_TEXT	ENDS
;	COMDAT ??0?$allocator@PAVIMessageObserver@@@std@@QAE@ABV01@@Z
_TEXT	SEGMENT PARA USE32 PUBLIC 'CODE'
_TEXT	ENDS
;	COMDAT ?deallocate@?$allocator@U_Node@?$_List_nod@PAVIMessageObserver@@V?$allocator@PAVIMessageObserver@@@std@@@std@@@std@@QAEXPAU_Node@?$_List_nod@PAVIMessageObserver@@V?$allocator@PAVIMessageObserver@@@std@@@2@I@Z
_TEXT	SEGMENT PARA USE32 PUBLIC 'CODE'
_TEXT	ENDS
;	COMDAT ?allocate@?$allocator@U_Node@?$_List_nod@PAVIMessageObserver@@V?$allocator@PAVIMessageObserver@@@std@@@std@@@std@@QAEPAU_Node@?$_List_nod@PAVIMessageObserver@@V?$allocator@PAVIMessageObserver@@@std@@@2@I@Z
_TEXT	SEGMENT PARA USE32 PUBLIC 'CODE'
_TEXT	ENDS
;	COMDAT ?construct@?$allocator@PAU_Node@?$_List_nod@PAVIMessageObserver@@V?$allocator@PAVIMessageObserver@@@std@@@std@@@std@@QAEXPAPAU_Node@?$_List_nod@PAVIMessageObserver@@V?$allocator@PAVIMessageObserver@@@std@@@2@ABQAU342@@Z
_TEXT	SEGMENT PARA USE32 PUBLIC 'CODE'
_TEXT	ENDS
;	COMDAT ?destroy@?$allocator@PAU_Node@?$_List_nod@PAVIMessageObserver@@V?$allocator@PAVIMessageObserver@@@std@@@std@@@std@@QAEXPAPAU_Node@?$_List_nod@PAVIMessageObserver@@V?$allocator@PAVIMessageObserver@@@std@@@2@@Z
_TEXT	SEGMENT PARA USE32 PUBLIC 'CODE'
_TEXT	ENDS
;	COMDAT ??0const_iterator@?$list@PAVIMessageObserver@@V?$allocator@PAVIMessageObserver@@@std@@@std@@QAE@PAU_Node@?$_List_nod@PAVIMessageObserver@@V?$allocator@PAVIMessageObserver@@@std@@@2@@Z
_TEXT	SEGMENT PARA USE32 PUBLIC 'CODE'
_TEXT	ENDS
;	COMDAT ??Econst_iterator@?$list@PAVIMessageObserver@@V?$allocator@PAVIMessageObserver@@@std@@@std@@QAEAAV012@XZ
_TEXT	SEGMENT PARA USE32 PUBLIC 'CODE'
_TEXT	ENDS
;	COMDAT ??0const_iterator@?$basic_string@DU?$char_traits@D@std@@V?$allocator@D@2@@std@@QAE@PBD@Z
_TEXT	SEGMENT PARA USE32 PUBLIC 'CODE'
_TEXT	ENDS
;	COMDAT ??Gconst_iterator@?$basic_string@DU?$char_traits@D@std@@V?$allocator@D@2@@std@@QBEHABV012@@Z
_TEXT	SEGMENT PARA USE32 PUBLIC 'CODE'
_TEXT	ENDS
;	COMDAT ??0?$_List_nod@PAVIMessageObserver@@V?$allocator@PAVIMessageObserver@@@std@@@std@@IAE@V?$allocator@PAVIMessageObserver@@@1@@Z
_TEXT	SEGMENT PARA USE32 PUBLIC 'CODE'
_TEXT	ENDS
;	COMDAT ?destroy@?$allocator@U_Node@?$_List_nod@PAVIMessageObserver@@V?$allocator@PAVIMessageObserver@@@std@@@std@@@std@@QAEXPAU_Node@?$_List_nod@PAVIMessageObserver@@V?$allocator@PAVIMessageObserver@@@std@@@2@@Z
_TEXT	SEGMENT PARA USE32 PUBLIC 'CODE'
_TEXT	ENDS
;	COMDAT ?Unlock@?$CComCritSecLock@VCComCriticalSection@ATL@@@ATL@@QAEXXZ
_TEXT	SEGMENT PARA USE32 PUBLIC 'CODE'
_TEXT	ENDS
;	COMDAT ??$AtlAlignUp@H@ATL@@YGHHK@Z
_TEXT	SEGMENT PARA USE32 PUBLIC 'CODE'
_TEXT	ENDS
;	COMDAT ??$_Maklocstr@D@std@@YAPADPBDPADABU_Cvtvec@@@Z
_TEXT	SEGMENT PARA USE32 PUBLIC 'CODE'
_TEXT	ENDS
;	COMDAT ??$?0PAVIMessageObserver@@@?$allocator@PAU_Node@?$_List_nod@PAVIMessageObserver@@V?$allocator@PAVIMessageObserver@@@std@@@std@@@std@@QAE@ABV?$allocator@PAVIMessageObserver@@@1@@Z
_TEXT	SEGMENT PARA USE32 PUBLIC 'CODE'
_TEXT	ENDS
;	COMDAT ??$_Allocate@U_Node@?$_List_nod@PAVIMessageObserver@@V?$allocator@PAVIMessageObserver@@@std@@@std@@@std@@YAPAU_Node@?$_List_nod@PAVIMessageObserver@@V?$allocator@PAVIMessageObserver@@@std@@@0@IPAU120@@Z
_TEXT	SEGMENT PARA USE32 PUBLIC 'CODE'
_TEXT	ENDS
;	COMDAT ??$_Construct@PAU_Node@?$_List_nod@PAVIMessageObserver@@V?$allocator@PAVIMessageObserver@@@std@@@std@@PAU123@@std@@YAXPAPAU_Node@?$_List_nod@PAVIMessageObserver@@V?$allocator@PAVIMessageObserver@@@std@@@0@ABQAU120@@Z
_TEXT	SEGMENT PARA USE32 PUBLIC 'CODE'
_TEXT	ENDS
;	COMDAT ??$_Destroy@PAU_Node@?$_List_nod@PAVIMessageObserver@@V?$allocator@PAVIMessageObserver@@@std@@@std@@@std@@YAXPAPAU_Node@?$_List_nod@PAVIMessageObserver@@V?$allocator@PAVIMessageObserver@@@std@@@0@@Z
_TEXT	SEGMENT PARA USE32 PUBLIC 'CODE'
_TEXT	ENDS
;	COMDAT ??$?0PAVIMessageObserver@@@?$allocator@U_Node@?$_List_nod@PAVIMessageObserver@@V?$allocator@PAVIMessageObserver@@@std@@@std@@@std@@QAE@ABV?$allocator@PAVIMessageObserver@@@1@@Z
_TEXT	SEGMENT PARA USE32 PUBLIC 'CODE'
_TEXT	ENDS
;	COMDAT ??$_Destroy@U_Node@?$_List_nod@PAVIMessageObserver@@V?$allocator@PAVIMessageObserver@@@std@@@std@@@std@@YAXPAU_Node@?$_List_nod@PAVIMessageObserver@@V?$allocator@PAVIMessageObserver@@@std@@@0@@Z
_TEXT	SEGMENT PARA USE32 PUBLIC 'CODE'
_TEXT	ENDS
;	COMDAT ??_9@$BBFE@AE
_TEXT	SEGMENT PARA USE32 PUBLIC 'CODE'
_TEXT	ENDS
;	COMDAT ??_9@$BBFI@AE
_TEXT	SEGMENT PARA USE32 PUBLIC 'CODE'
_TEXT	ENDS
;	COMDAT ??_ECPlayBoxDlg@@WHI@AEPAXI@Z
_TEXT	SEGMENT PARA USE32 PUBLIC 'CODE'
_TEXT	ENDS
;	COMDAT ??_ECPlayBoxDlg@@WHM@AEPAXI@Z
_TEXT	SEGMENT PARA USE32 PUBLIC 'CODE'
_TEXT	ENDS
;	COMDAT ??_R3P2PObserver@@8
rdata$r	SEGMENT DWORD USE32 PUBLIC 'CONST'
rdata$r	ENDS
;	COMDAT ??_R3ILayoutChangeObserver@@8
rdata$r	SEGMENT DWORD USE32 PUBLIC 'CONST'
rdata$r	ENDS
;	COMDAT ??_R3CGdiPlusBitmap@CSkinButton@@8
rdata$r	SEGMENT DWORD USE32 PUBLIC 'CONST'
rdata$r	ENDS
;	COMDAT ??_R3?$numpunct@_W@std@@8
rdata$r	SEGMENT DWORD USE32 PUBLIC 'CONST'
rdata$r	ENDS
;	COMDAT ??_R3?$numpunct@D@std@@8
rdata$r	SEGMENT DWORD USE32 PUBLIC 'CONST'
rdata$r	ENDS
;	COMDAT ??_R3IData@@8
rdata$r	SEGMENT DWORD USE32 PUBLIC 'CONST'
rdata$r	ENDS
;	COMDAT ??_R3CGdiPlusBitmap@@8
rdata$r	SEGMENT DWORD USE32 PUBLIC 'CONST'
rdata$r	ENDS
;	COMDAT ??_R3HTTPObserver@@8
rdata$r	SEGMENT DWORD USE32 PUBLIC 'CONST'
rdata$r	ENDS
;	COMDAT ??_R3CPlayBoxDlg@@8
rdata$r	SEGMENT DWORD USE32 PUBLIC 'CONST'
rdata$r	ENDS
;	COMDAT ??_R3DIBINFO@@8
rdata$r	SEGMENT DWORD USE32 PUBLIC 'CONST'
rdata$r	ENDS
;	COMDAT ??_R3IAdData@@8
rdata$r	SEGMENT DWORD USE32 PUBLIC 'CONST'
rdata$r	ENDS
;	COMDAT ??_R3IPanelChangeObserver@@8
rdata$r	SEGMENT DWORD USE32 PUBLIC 'CONST'
rdata$r	ENDS
;	COMDAT ??_R3AfxUserConfig_Observer@@8
rdata$r	SEGMENT DWORD USE32 PUBLIC 'CONST'
rdata$r	ENDS
;	COMDAT ??_R3CAtlStringMgr@ATL@@8
rdata$r	SEGMENT DWORD USE32 PUBLIC 'CONST'
rdata$r	ENDS
;	COMDAT ??_R2P2PObserver@@8
rdata$r	SEGMENT DWORD USE32 PUBLIC 'CONST'
rdata$r	ENDS
;	COMDAT ??_R2ILayoutChangeObserver@@8
rdata$r	SEGMENT DWORD USE32 PUBLIC 'CONST'
rdata$r	ENDS
;	COMDAT ??_R2CGdiPlusBitmap@CSkinButton@@8
rdata$r	SEGMENT DWORD USE32 PUBLIC 'CONST'
rdata$r	ENDS
;	COMDAT ??_R2?$numpunct@_W@std@@8
rdata$r	SEGMENT DWORD USE32 PUBLIC 'CONST'
rdata$r	ENDS
;	COMDAT ??_R2?$numpunct@D@std@@8
rdata$r	SEGMENT DWORD USE32 PUBLIC 'CONST'
rdata$r	ENDS
;	COMDAT ??_R2IData@@8
rdata$r	SEGMENT DWORD USE32 PUBLIC 'CONST'
rdata$r	ENDS
;	COMDAT ??_R2CGdiPlusBitmap@@8
rdata$r	SEGMENT DWORD USE32 PUBLIC 'CONST'
rdata$r	ENDS
;	COMDAT ??_R2HTTPObserver@@8
rdata$r	SEGMENT DWORD USE32 PUBLIC 'CONST'
rdata$r	ENDS
;	COMDAT ??_R2CPlayBoxDlg@@8
rdata$r	SEGMENT DWORD USE32 PUBLIC 'CONST'
rdata$r	ENDS
;	COMDAT ??_R2DIBINFO@@8
rdata$r	SEGMENT DWORD USE32 PUBLIC 'CONST'
rdata$r	ENDS
;	COMDAT ??_R2IAdData@@8
rdata$r	SEGMENT DWORD USE32 PUBLIC 'CONST'
rdata$r	ENDS
;	COMDAT ??_R2IPanelChangeObserver@@8
rdata$r	SEGMENT DWORD USE32 PUBLIC 'CONST'
rdata$r	ENDS
;	COMDAT ??_R2AfxUserConfig_Observer@@8
rdata$r	SEGMENT DWORD USE32 PUBLIC 'CONST'
rdata$r	ENDS
;	COMDAT ??_R2CAtlStringMgr@ATL@@8
rdata$r	SEGMENT DWORD USE32 PUBLIC 'CONST'
rdata$r	ENDS
;	COMDAT ??_R1A@?0A@A@P2PObserver@@8
rdata$r	SEGMENT DWORD USE32 PUBLIC 'CONST'
rdata$r	ENDS
;	COMDAT ??_R1A@?0A@A@ILayoutChangeObserver@@8
rdata$r	SEGMENT DWORD USE32 PUBLIC 'CONST'
rdata$r	ENDS
;	COMDAT ??_R1A@?0A@A@CGdiPlusBitmap@CSkinButton@@8
rdata$r	SEGMENT DWORD USE32 PUBLIC 'CONST'
rdata$r	ENDS
;	COMDAT ??_R1A@?0A@A@?$numpunct@_W@std@@8
rdata$r	SEGMENT DWORD USE32 PUBLIC 'CONST'
rdata$r	ENDS
;	COMDAT ??_R1A@?0A@A@facet@locale@std@@8
rdata$r	SEGMENT DWORD USE32 PUBLIC 'CONST'
rdata$r	ENDS
;	COMDAT ??_R0?AVfacet@locale@std@@@8
_DATA	SEGMENT DWORD USE32 PUBLIC 'DATA'
_DATA	ENDS
;	COMDAT ??_R1A@?0A@A@?$numpunct@D@std@@8
rdata$r	SEGMENT DWORD USE32 PUBLIC 'CONST'
rdata$r	ENDS
;	COMDAT ??_R1A@?0A@A@CGdiPlusBitmap@@8
rdata$r	SEGMENT DWORD USE32 PUBLIC 'CONST'
rdata$r	ENDS
;	COMDAT ??_R1A@?0A@A@HTTPObserver@@8
rdata$r	SEGMENT DWORD USE32 PUBLIC 'CONST'
rdata$r	ENDS
;	COMDAT ??_R1HM@?0A@1IMessageObserver@@8
rdata$r	SEGMENT DWORD USE32 PUBLIC 'CONST'
rdata$r	ENDS
;	COMDAT ??_R1HM@?0A@A@IPanelChangeObserver@@8
rdata$r	SEGMENT DWORD USE32 PUBLIC 'CONST'
rdata$r	ENDS
;	COMDAT ??_R1HI@?0A@1IMessageObserver@@8
rdata$r	SEGMENT DWORD USE32 PUBLIC 'CONST'
rdata$r	ENDS
;	COMDAT ??_R1HI@?0A@A@ILayoutChangeObserver@@8
rdata$r	SEGMENT DWORD USE32 PUBLIC 'CONST'
rdata$r	ENDS
;	COMDAT ??_R1HE@?0A@A@AfxUserConfig_Observer@@8
rdata$r	SEGMENT DWORD USE32 PUBLIC 'CONST'
rdata$r	ENDS
;	COMDAT ??_R1A@?0A@A@CObject@@8
rdata$r	SEGMENT DWORD USE32 PUBLIC 'CONST'
rdata$r	ENDS
;	COMDAT ??_R0?AVCObject@@@8
_DATA	SEGMENT DWORD USE32 PUBLIC 'DATA'
_DATA	ENDS
;	COMDAT ??_R1A@?0A@A@CCmdTarget@@8
rdata$r	SEGMENT DWORD USE32 PUBLIC 'CONST'
rdata$r	ENDS
;	COMDAT ??_R0?AVCCmdTarget@@@8
_DATA	SEGMENT DWORD USE32 PUBLIC 'DATA'
_DATA	ENDS
;	COMDAT ??_R1A@?0A@A@CWnd@@8
rdata$r	SEGMENT DWORD USE32 PUBLIC 'CONST'
rdata$r	ENDS
;	COMDAT ??_R0?AVCWnd@@@8
_DATA	SEGMENT DWORD USE32 PUBLIC 'DATA'
_DATA	ENDS
;	COMDAT ??_R1A@?0A@A@CDialog@@8
rdata$r	SEGMENT DWORD USE32 PUBLIC 'CONST'
rdata$r	ENDS
;	COMDAT ??_R0?AVCDialog@@@8
_DATA	SEGMENT DWORD USE32 PUBLIC 'DATA'
_DATA	ENDS
;	COMDAT ??_R1A@?0A@A@CPlayBoxDlg@@8
rdata$r	SEGMENT DWORD USE32 PUBLIC 'CONST'
rdata$r	ENDS
;	COMDAT ??_R1A@?0A@A@DIBINFO@@8
rdata$r	SEGMENT DWORD USE32 PUBLIC 'CONST'
rdata$r	ENDS
;	COMDAT ??_R1A@?0A@A@IData@@8
rdata$r	SEGMENT DWORD USE32 PUBLIC 'CONST'
rdata$r	ENDS
;	COMDAT ??_R1A@?0A@A@IAdData@@8
rdata$r	SEGMENT DWORD USE32 PUBLIC 'CONST'
rdata$r	ENDS
;	COMDAT ??_R1A@?0A@A@IMessageObserver@@8
rdata$r	SEGMENT DWORD USE32 PUBLIC 'CONST'
rdata$r	ENDS
;	COMDAT ??_R1A@?0A@A@IPanelChangeObserver@@8
rdata$r	SEGMENT DWORD USE32 PUBLIC 'CONST'
rdata$r	ENDS
;	COMDAT ??_R1A@?0A@A@AfxUserConfig_Observer@@8
rdata$r	SEGMENT DWORD USE32 PUBLIC 'CONST'
rdata$r	ENDS
;	COMDAT ??_R1A@?0A@A@IAtlStringMgr@ATL@@8
rdata$r	SEGMENT DWORD USE32 PUBLIC 'CONST'
rdata$r	ENDS
;	COMDAT ??_R0?AUIAtlStringMgr@ATL@@@8
_DATA	SEGMENT DWORD USE32 PUBLIC 'DATA'
_DATA	ENDS
;	COMDAT ??_R1A@?0A@A@CAtlStringMgr@ATL@@8
rdata$r	SEGMENT DWORD USE32 PUBLIC 'CONST'
rdata$r	ENDS
;	COMDAT ??_R0?AVP2PObserver@@@8
_DATA	SEGMENT DWORD USE32 PUBLIC 'DATA'
_DATA	ENDS
;	COMDAT ??_R0?AVCGdiPlusBitmap@CSkinButton@@@8
_DATA	SEGMENT DWORD USE32 PUBLIC 'DATA'
_DATA	ENDS
;	COMDAT ??_R0?AV?$numpunct@_W@std@@@8
_DATA	SEGMENT DWORD USE32 PUBLIC 'DATA'
_DATA	ENDS
;	COMDAT ??_R0?AV?$numpunct@D@std@@@8
_DATA	SEGMENT DWORD USE32 PUBLIC 'DATA'
_DATA	ENDS
;	COMDAT ??_R0?AVCGdiPlusBitmap@@@8
_DATA	SEGMENT DWORD USE32 PUBLIC 'DATA'
_DATA	ENDS
;	COMDAT ??_R0?AVHTTPObserver@@@8
_DATA	SEGMENT DWORD USE32 PUBLIC 'DATA'
_DATA	ENDS
;	COMDAT ??_R0?AVILayoutChangeObserver@@@8
_DATA	SEGMENT DWORD USE32 PUBLIC 'DATA'
_DATA	ENDS
;	COMDAT ??_R0?AVCPlayBoxDlg@@@8
_DATA	SEGMENT DWORD USE32 PUBLIC 'DATA'
_DATA	ENDS
;	COMDAT ??_R0?AVDIBINFO@@@8
_DATA	SEGMENT DWORD USE32 PUBLIC 'DATA'
_DATA	ENDS
;	COMDAT ??_R0?AVIData@@@8
_DATA	SEGMENT DWORD USE32 PUBLIC 'DATA'
_DATA	ENDS
;	COMDAT ??_R0?AVIAdData@@@8
_DATA	SEGMENT DWORD USE32 PUBLIC 'DATA'
_DATA	ENDS
;	COMDAT ??_R0?AVIPanelChangeObserver@@@8
_DATA	SEGMENT DWORD USE32 PUBLIC 'DATA'
_DATA	ENDS
;	COMDAT ??_R0?AVAfxUserConfig_Observer@@@8
_DATA	SEGMENT DWORD USE32 PUBLIC 'DATA'
_DATA	ENDS
;	COMDAT ??_R0?AVCAtlStringMgr@ATL@@@8
_DATA	SEGMENT DWORD USE32 PUBLIC 'DATA'
_DATA	ENDS
;	COMDAT ??_R4P2PObserver@@6B@
rdata$r	SEGMENT DWORD USE32 PUBLIC 'CONST'
rdata$r	ENDS
;	COMDAT ??_R4ILayoutChangeObserver@@6B@
rdata$r	SEGMENT DWORD USE32 PUBLIC 'CONST'
rdata$r	ENDS
;	COMDAT ??_R4CGdiPlusBitmap@CSkinButton@@6B@
rdata$r	SEGMENT DWORD USE32 PUBLIC 'CONST'
rdata$r	ENDS
;	COMDAT ??0?$allocator@_W@std@@QAE@XZ
_TEXT	SEGMENT PARA USE32 PUBLIC 'CODE'
_TEXT	ENDS
;	COMDAT ??_G?$numpunct@_W@std@@MAEPAXI@Z
_TEXT	SEGMENT PARA USE32 PUBLIC 'CODE'
_TEXT	ENDS
;	COMDAT ??_R4?$numpunct@_W@std@@6B@
rdata$r	SEGMENT DWORD USE32 PUBLIC 'CONST'
rdata$r	ENDS
;	COMDAT ??_G?$numpunct@D@std@@MAEPAXI@Z
_TEXT	SEGMENT PARA USE32 PUBLIC 'CODE'
_TEXT	ENDS
;	COMDAT ??_R4?$numpunct@D@std@@6B@
rdata$r	SEGMENT DWORD USE32 PUBLIC 'CONST'
rdata$r	ENDS
;	COMDAT ??_R4IData@@6B@
rdata$r	SEGMENT DWORD USE32 PUBLIC 'CONST'
rdata$r	ENDS
;	COMDAT ??_R4CGdiPlusBitmap@@6B@
rdata$r	SEGMENT DWORD USE32 PUBLIC 'CONST'
rdata$r	ENDS
;	COMDAT ??_R4HTTPObserver@@6B@
rdata$r	SEGMENT DWORD USE32 PUBLIC 'CONST'
rdata$r	ENDS
;	COMDAT ??_R4CPlayBoxDlg@@6BIPanelChangeObserver@@@
rdata$r	SEGMENT DWORD USE32 PUBLIC 'CONST'
rdata$r	ENDS
;	COMDAT ??_R4CPlayBoxDlg@@6BILayoutChangeObserver@@@
rdata$r	SEGMENT DWORD USE32 PUBLIC 'CONST'
rdata$r	ENDS
;	COMDAT ??_R4CPlayBoxDlg@@6BAfxUserConfig_Observer@@@
rdata$r	SEGMENT DWORD USE32 PUBLIC 'CONST'
rdata$r	ENDS
;	COMDAT ??_R4CPlayBoxDlg@@6BCDialog@@@
rdata$r	SEGMENT DWORD USE32 PUBLIC 'CONST'
rdata$r	ENDS
;	COMDAT ??_R4DIBINFO@@6B@
rdata$r	SEGMENT DWORD USE32 PUBLIC 'CONST'
rdata$r	ENDS
;	COMDAT ??_R4IAdData@@6B@
rdata$r	SEGMENT DWORD USE32 PUBLIC 'CONST'
rdata$r	ENDS
;	COMDAT ??_R4IPanelChangeObserver@@6B@
rdata$r	SEGMENT DWORD USE32 PUBLIC 'CONST'
rdata$r	ENDS
;	COMDAT ??_R4AfxUserConfig_Observer@@6B@
rdata$r	SEGMENT DWORD USE32 PUBLIC 'CONST'
rdata$r	ENDS
;	COMDAT ??_R4CAtlStringMgr@ATL@@6B@
rdata$r	SEGMENT DWORD USE32 PUBLIC 'CONST'
rdata$r	ENDS
;	COMDAT ??2@YAPAXIPAX@Z
_TEXT	SEGMENT PARA USE32 PUBLIC 'CODE'
_TEXT	ENDS
;	COMDAT ??_C@_0EN@CBMLGOH@D?3?2Program?5Files?5?$CIx86?$CJ?2Microsoft@
CONST	SEGMENT DWORD USE32 PUBLIC 'CONST'
CONST	ENDS
;	COMDAT ?_Psave@?$_Facetptr@V?$numpunct@_W@std@@@std@@2PBVfacet@locale@2@B
_DATA	SEGMENT DWORD USE32 PUBLIC 'DATA'
_DATA	ENDS
;	COMDAT ?_Psave@?$_Facetptr@V?$numpunct@D@std@@@std@@2PBVfacet@locale@2@B
_DATA	SEGMENT DWORD USE32 PUBLIC 'DATA'
_DATA	ENDS
;	COMDAT ?Unlock@CComCriticalSection@ATL@@QAEJXZ
_TEXT	SEGMENT PARA USE32 PUBLIC 'CODE'
_TEXT	ENDS
;	COMDAT ??_C@_0FG@LDNDNCJM@D?3?2Program?5Files?5?$CIx86?$CJ?2Microsoft@
CONST	SEGMENT DWORD USE32 PUBLIC 'CONST'
CONST	ENDS
;	COMDAT ??_C@_09HIEJFN@m_bLocked?$AA@
CONST	SEGMENT DWORD USE32 PUBLIC 'CONST'
CONST	ENDS
;	COMDAT ?_Psave@?$_Facetptr@V?$ctype@_W@std@@@std@@2PBVfacet@locale@2@B
_DATA	SEGMENT DWORD USE32 PUBLIC 'DATA'
_DATA	ENDS
;	COMDAT ?_Psave@?$_Facetptr@V?$ctype@D@std@@@std@@2PBVfacet@locale@2@B
_DATA	SEGMENT DWORD USE32 PUBLIC 'DATA'
_DATA	ENDS
;	COMDAT ??_C@_0N@ILOMLJGA@nLength?5?$DO?$DN?50?$AA@
CONST	SEGMENT DWORD USE32 PUBLIC 'CONST'
CONST	ENDS
;	COMDAT ??_C@_0CD@EEFFJEGJ@nLength?5?$DM?$DN?5GetData?$CI?$CJ?9?$DOnAllocLeng@
CONST	SEGMENT DWORD USE32 PUBLIC 'CONST'
CONST	ENDS
;	COMDAT ?data@CStringData@ATL@@QAEPAXXZ
_TEXT	SEGMENT PARA USE32 PUBLIC 'CODE'
_TEXT	ENDS
;	COMDAT ??_C@_0BA@GOIMFHNK@pStringMgr?5?$CB?$DN?50?$AA@
CONST	SEGMENT DWORD USE32 PUBLIC 'CONST'
CONST	ENDS
;	COMDAT ??$_Maklocchr@_W@std@@YA_WDPA_WABU_Cvtvec@@@Z
_TEXT	SEGMENT PARA USE32 PUBLIC 'CODE'
_TEXT	ENDS
;	COMDAT ??$_DebugHeapDelete@X@std@@YAXPAX@Z
_TEXT	SEGMENT PARA USE32 PUBLIC 'CODE'
_TEXT	ENDS
;	COMDAT ??$_Maklocstr@_W@std@@YAPA_WPBDPA_WABU_Cvtvec@@@Z
_TEXT	SEGMENT PARA USE32 PUBLIC 'CODE'
_TEXT	ENDS
;	COMDAT ??$_Maklocchr@D@std@@YADDPADABU_Cvtvec@@@Z
_TEXT	SEGMENT PARA USE32 PUBLIC 'CODE'
_TEXT	ENDS
;	COMDAT ??_C@_04LOAJBDKD@true?$AA@
CONST	SEGMENT DWORD USE32 PUBLIC 'CONST'
CONST	ENDS
;	COMDAT ??_C@_05LAPONLG@false?$AA@
CONST	SEGMENT DWORD USE32 PUBLIC 'CONST'
CONST	ENDS
;	COMDAT _wmemcpy
_TEXT	SEGMENT PARA USE32 PUBLIC 'CODE'
_TEXT	ENDS
;	COMDAT ?max_size@?$allocator@_W@std@@QBEIXZ
_TEXT	SEGMENT PARA USE32 PUBLIC 'CODE'
_TEXT	ENDS
;	COMDAT ?allocate@?$allocator@_W@std@@QAEPA_WI@Z
_TEXT	SEGMENT PARA USE32 PUBLIC 'CODE'
_TEXT	ENDS
;	COMDAT ??$_Allocate@_W@std@@YAPA_WIPA_W@Z
_TEXT	SEGMENT PARA USE32 PUBLIC 'CODE'
_TEXT	ENDS
;	COMDAT ?Release@CStringData@ATL@@QAEXXZ
_TEXT	SEGMENT PARA USE32 PUBLIC 'CODE'
_TEXT	ENDS
;	COMDAT ??_C@_0L@OIIMFBNE@nRefs?5?$CB?$DN?50?$AA@
CONST	SEGMENT DWORD USE32 PUBLIC 'CONST'
CONST	ENDS
;	COMDAT ??_C@_01GFHCPBMG@C?$AA@
CONST	SEGMENT DWORD USE32 PUBLIC 'CONST'
CONST	ENDS
;	COMDAT ?max_size@?$allocator@D@std@@QBEIXZ
_TEXT	SEGMENT PARA USE32 PUBLIC 'CODE'
_TEXT	ENDS
;	COMDAT ?allocate@?$allocator@D@std@@QAEPADI@Z
_TEXT	SEGMENT PARA USE32 PUBLIC 'CODE'
_TEXT	ENDS
;	COMDAT ??$_Allocate@D@std@@YAPADIPAD@Z
_TEXT	SEGMENT PARA USE32 PUBLIC 'CODE'
_TEXT	ENDS
;	COMDAT ?deallocate@?$allocator@D@std@@QAEXPADI@Z
_TEXT	SEGMENT PARA USE32 PUBLIC 'CODE'
_TEXT	ENDS
;	COMDAT ??_C@_0FH@KDPNIMBO@D?3?2Program?5Files?5?$CIx86?$CJ?2Microsoft@
CONST	SEGMENT DWORD USE32 PUBLIC 'CONST'
CONST	ENDS
;	COMDAT ?AtlIsValidString@ATL@@YAHPBDI@Z
_TEXT	SEGMENT PARA USE32 PUBLIC 'CODE'
_TEXT	ENDS
;	COMDAT ?_Peek@?$istreambuf_iterator@_WU?$char_traits@_W@std@@@std@@AAE_WXZ
_TEXT	SEGMENT PARA USE32 PUBLIC 'CODE'
_TEXT	ENDS
;	COMDAT ?_Peek@?$istreambuf_iterator@DU?$char_traits@D@std@@@std@@AAEDXZ
_TEXT	SEGMENT PARA USE32 PUBLIC 'CODE'
_TEXT	ENDS
;	COMDAT ??$use_facet@V?$ctype@_W@std@@@std@@YAABV?$ctype@_W@0@ABVlocale@0@@Z
_TEXT	SEGMENT PARA USE32 PUBLIC 'CODE'
_TEXT	ENDS
;	COMDAT ??_S?$ctype@_W@std@@6B@
CONST	SEGMENT DWORD USE32 PUBLIC 'CONST'
CONST	ENDS
;	COMDAT ??_R4?$ctype@_W@std@@6B@
rdata$r	SEGMENT DWORD USE32 PUBLIC 'CONST'
rdata$r	ENDS
;	COMDAT ??_R0?AV?$ctype@_W@std@@@8
_DATA	SEGMENT DWORD USE32 PUBLIC 'DATA'
_DATA	ENDS
;	COMDAT ??_R3?$ctype@_W@std@@8
rdata$r	SEGMENT DWORD USE32 PUBLIC 'CONST'
rdata$r	ENDS
;	COMDAT ??_R2?$ctype@_W@std@@8
rdata$r	SEGMENT DWORD USE32 PUBLIC 'CONST'
rdata$r	ENDS
;	COMDAT ??_R1A@?0A@A@?$ctype@_W@std@@8
rdata$r	SEGMENT DWORD USE32 PUBLIC 'CONST'
rdata$r	ENDS
;	COMDAT ??_R1A@?0A@A@ctype_base@std@@8
rdata$r	SEGMENT DWORD USE32 PUBLIC 'CONST'
rdata$r	ENDS
;	COMDAT ??_R0?AUctype_base@std@@@8
_DATA	SEGMENT DWORD USE32 PUBLIC 'DATA'
_DATA	ENDS
;	COMDAT ??_G?$ctype@_W@std@@MAEPAXI@Z
_TEXT	SEGMENT PARA USE32 PUBLIC 'CODE'
_TEXT	ENDS
;	COMDAT ??_C@_08EPJLHIJG@bad?5cast?$AA@
CONST	SEGMENT DWORD USE32 PUBLIC 'CONST'
CONST	ENDS
;	COMDAT __TI2?AVbad_cast@@
xdata$x	SEGMENT DWORD USE32 PUBLIC 'CONST'
xdata$x	ENDS
;	COMDAT __CTA2?AVbad_cast@@
xdata$x	SEGMENT DWORD USE32 PUBLIC 'CONST'
xdata$x	ENDS
;	COMDAT __CT??_R0?AVbad_cast@@@8??0bad_cast@@QAE@ABV0@@Z12
xdata$x	SEGMENT DWORD USE32 PUBLIC 'CONST'
xdata$x	ENDS
;	COMDAT ??_R0?AVbad_cast@@@8
_DATA	SEGMENT DWORD USE32 PUBLIC 'DATA'
_DATA	ENDS
;	COMDAT __CT??_R0?AVexception@@@8??0exception@@QAE@ABV0@@Z12
xdata$x	SEGMENT DWORD USE32 PUBLIC 'CONST'
xdata$x	ENDS
;	COMDAT ??_R0?AVexception@@@8
_DATA	SEGMENT DWORD USE32 PUBLIC 'DATA'
_DATA	ENDS
;	COMDAT ??$_DebugHeapDelete@Vfacet@locale@std@@@std@@YAXPAVfacet@locale@0@@Z
_TEXT	SEGMENT PARA USE32 PUBLIC 'CODE'
_TEXT	ENDS
;	COMDAT ??$use_facet@V?$ctype@D@std@@@std@@YAABV?$ctype@D@0@ABVlocale@0@@Z
_TEXT	SEGMENT PARA USE32 PUBLIC 'CODE'
_TEXT	ENDS
;	COMDAT ??_S?$ctype@D@std@@6B@
CONST	SEGMENT DWORD USE32 PUBLIC 'CONST'
CONST	ENDS
;	COMDAT ??_R4?$ctype@D@std@@6B@
rdata$r	SEGMENT DWORD USE32 PUBLIC 'CONST'
rdata$r	ENDS
;	COMDAT ??_R0?AV?$ctype@D@std@@@8
_DATA	SEGMENT DWORD USE32 PUBLIC 'DATA'
_DATA	ENDS
;	COMDAT ??_R3?$ctype@D@std@@8
rdata$r	SEGMENT DWORD USE32 PUBLIC 'CONST'
rdata$r	ENDS
;	COMDAT ??_R2?$ctype@D@std@@8
rdata$r	SEGMENT DWORD USE32 PUBLIC 'CONST'
rdata$r	ENDS
;	COMDAT ??_R1A@?0A@A@?$ctype@D@std@@8
rdata$r	SEGMENT DWORD USE32 PUBLIC 'CONST'
rdata$r	ENDS
;	COMDAT ??_G?$ctype@D@std@@MAEPAXI@Z
_TEXT	SEGMENT PARA USE32 PUBLIC 'CODE'
_TEXT	ENDS
;	COMDAT ??_S?$numpunct@_W@std@@6B@
CONST	SEGMENT DWORD USE32 PUBLIC 'CONST'
CONST	ENDS
;	COMDAT ??_S?$numpunct@D@std@@6B@
CONST	SEGMENT DWORD USE32 PUBLIC 'CONST'
CONST	ENDS
;	COMDAT _wmemmove
_TEXT	SEGMENT PARA USE32 PUBLIC 'CODE'
_TEXT	ENDS
;	COMDAT ?deallocate@?$allocator@_W@std@@QAEXPA_WI@Z
_TEXT	SEGMENT PARA USE32 PUBLIC 'CODE'
_TEXT	ENDS
;	COMDAT ??0?$allocator@_W@std@@QAE@ABV01@@Z
_TEXT	SEGMENT PARA USE32 PUBLIC 'CODE'
_TEXT	ENDS
;	COMDAT ?AtlThrow@ATL@@YGXJ@Z
_TEXT	SEGMENT PARA USE32 PUBLIC 'CODE'
_TEXT	ENDS
;	COMDAT ??RCTraceFileAndLineInfo@ATL@@QBAXKIPBDZZ
_TEXT	SEGMENT PARA USE32 PUBLIC 'CODE'
_TEXT	ENDS
;	COMDAT ?TraceV@CTrace@ATL@@QBAXPBDHKI0PAD@Z
_TEXT	SEGMENT PARA USE32 PUBLIC 'CODE'
_TEXT	ENDS
;	COMDAT ??_C@_0FI@NHHJANPC@D?3?2Program?5Files?5?$CIx86?$CJ?2Microsoft@
CONST	SEGMENT DWORD USE32 PUBLIC 'CONST'
CONST	ENDS
;	COMDAT ??_C@_0BF@IAAKIJDJ@AtlThrow?3?5hr?5?$DN?50x?$CFx?6?$AA@
CONST	SEGMENT DWORD USE32 PUBLIC 'CONST'
CONST	ENDS
;	COMDAT ??BCTraceCategory@ATL@@QBEKXZ
_TEXT	SEGMENT PARA USE32 PUBLIC 'CODE'
_TEXT	ENDS
;	COMDAT ??_C@_0FJ@DMHPDOJC@D?3?2Program?5Files?5?$CIx86?$CJ?2Microsoft@
CONST	SEGMENT DWORD USE32 PUBLIC 'CONST'
CONST	ENDS
;	COMDAT ??_R0?AVIConfUpdateObserver@@@8
_DATA	SEGMENT DWORD USE32 PUBLIC 'DATA'
_DATA	ENDS
;	COMDAT ??_R0?AVIMessageObserver@@@8
_DATA	SEGMENT DWORD USE32 PUBLIC 'DATA'
_DATA	ENDS
;	COMDAT ??_R0?AVIWebRefreshObserver@@@8
_DATA	SEGMENT DWORD USE32 PUBLIC 'DATA'
_DATA	ENDS
;	COMDAT ??0CTraceFileAndLineInfo@ATL@@QAE@PBDH@Z
_TEXT	SEGMENT PARA USE32 PUBLIC 'CODE'
_TEXT	ENDS
;	COMDAT ??RCTraceFileAndLineInfo@ATL@@QBAXPBDZZ
_TEXT	SEGMENT PARA USE32 PUBLIC 'CODE'
_TEXT	ENDS
;	COMDAT ??0?$allocator@D@std@@QAE@ABV01@@Z
_TEXT	SEGMENT PARA USE32 PUBLIC 'CODE'
_TEXT	ENDS
;	COMDAT ??0?$allocator@D@std@@QAE@XZ
_TEXT	SEGMENT PARA USE32 PUBLIC 'CODE'
_TEXT	ENDS
;	COMDAT ?_messageEntries@CPlayBoxDlg@@0QBUAFX_MSGMAP_ENTRY@@B
CONST	SEGMENT DWORD USE32 PUBLIC 'CONST'
CONST	ENDS
;	COMDAT ?messageMap@CPlayBoxDlg@@1UAFX_MSGMAP@@B
CONST	SEGMENT DWORD USE32 PUBLIC 'CONST'
CONST	ENDS
;	COMDAT ??_7IMessageObserver@@6B@
CONST	SEGMENT DWORD USE32 PUBLIC 'CONST'
CONST	ENDS
;	COMDAT ??_R4IMessageObserver@@6B@
rdata$r	SEGMENT DWORD USE32 PUBLIC 'CONST'
rdata$r	ENDS
;	COMDAT ??_R3IMessageObserver@@8
rdata$r	SEGMENT DWORD USE32 PUBLIC 'CONST'
rdata$r	ENDS
;	COMDAT ??_R2IMessageObserver@@8
rdata$r	SEGMENT DWORD USE32 PUBLIC 'CONST'
rdata$r	ENDS
;	COMDAT ??_GIMessageObserver@@UAEPAXI@Z
_TEXT	SEGMENT PARA USE32 PUBLIC 'CODE'
_TEXT	ENDS
;	COMDAT ??_7IPanelChangeObserver@@6B@
CONST	SEGMENT DWORD USE32 PUBLIC 'CONST'
CONST	ENDS
;	COMDAT ??_7ILayoutChangeObserver@@6B@
CONST	SEGMENT DWORD USE32 PUBLIC 'CONST'
CONST	ENDS
;	COMDAT ??1IMessageObserver@@UAE@XZ
_TEXT	SEGMENT PARA USE32 PUBLIC 'CODE'
_TEXT	ENDS
;	COMDAT ??_7AfxUserConfig_Observer@@6B@
CONST	SEGMENT DWORD USE32 PUBLIC 'CONST'
CONST	ENDS
;	COMDAT ??_7CPlayBoxDlg@@6BIPanelChangeObserver@@@
CONST	SEGMENT DWORD USE32 PUBLIC 'CONST'
CONST	ENDS
;	COMDAT ??_7CPlayBoxDlg@@6BILayoutChangeObserver@@@
CONST	SEGMENT DWORD USE32 PUBLIC 'CONST'
CONST	ENDS
;	COMDAT ??_7CPlayBoxDlg@@6BAfxUserConfig_Observer@@@
CONST	SEGMENT DWORD USE32 PUBLIC 'CONST'
CONST	ENDS
;	COMDAT ??_7CPlayBoxDlg@@6BCDialog@@@
CONST	SEGMENT DWORD USE32 PUBLIC 'CONST'
CONST	ENDS
;	COMDAT ??_7IAdData@@6B@
CONST	SEGMENT DWORD USE32 PUBLIC 'CONST'
CONST	ENDS
;	COMDAT ?clsid@?1??GetClsid@CShockwaveFlash@@QAEABU_GUID@@XZ@4U3@B
CONST	SEGMENT DWORD USE32 PUBLIC 'CONST'
CONST	ENDS
;	COMDAT ??_7P2PObserver@@6B@
CONST	SEGMENT DWORD USE32 PUBLIC 'CONST'
CONST	ENDS
;	COMDAT ?GetDefaultManager@?$StrTraitMFC_DLL@DV?$ChTraitsCRT@D@ATL@@@@SAPAUIAtlStringMgr@ATL@@XZ
_TEXT	SEGMENT PARA USE32 PUBLIC 'CODE'
_TEXT	ENDS
;	COMDAT ?FindStringResourceInstance@?$StrTraitMFC_DLL@DV?$ChTraitsCRT@D@ATL@@@@SAPAUHINSTANCE__@@I@Z
_TEXT	SEGMENT PARA USE32 PUBLIC 'CODE'
_TEXT	ENDS
;	COMDAT ?AtlGetStringResourceImage@ATL@@YAPBUATLSTRINGRESOURCEIMAGE@1@PAUHINSTANCE__@@I@Z
_TEXT	SEGMENT PARA USE32 PUBLIC 'CODE'
_TEXT	ENDS
;	COMDAT ?_AtlGetStringResourceImage@ATL@@YAPBUATLSTRINGRESOURCEIMAGE@1@PAUHINSTANCE__@@PAUHRSRC__@@I@Z
_TEXT	SEGMENT PARA USE32 PUBLIC 'CODE'
_TEXT	ENDS
;	COMDAT ?GetBaseTypeLength@?$ChTraitsCRT@D@ATL@@SAHPB_WH@Z
_TEXT	SEGMENT PARA USE32 PUBLIC 'CODE'
_TEXT	ENDS
;	COMDAT ?IsShared@CStringData@ATL@@QBE_NXZ
_TEXT	SEGMENT PARA USE32 PUBLIC 'CODE'
_TEXT	ENDS
;	COMDAT ??_C@_0CB@GFHAPKDK@pOldData?9?$DOnAllocLength?5?$DM?5nLength@
CONST	SEGMENT DWORD USE32 PUBLIC 'CONST'
CONST	ENDS
;	COMDAT ?ConvertToBaseType@?$ChTraitsCRT@D@ATL@@SAXPADHPB_WH@Z
_TEXT	SEGMENT PARA USE32 PUBLIC 'CODE'
_TEXT	ENDS
;	COMDAT ??_C@_0BA@GNIEOBOF@nNewLength?5?$DO?$DN?50?$AA@
CONST	SEGMENT DWORD USE32 PUBLIC 'CONST'
CONST	ENDS
;	COMDAT ??_C@_0CJ@FJEKGMMD@Warning?3?5implicit?5LoadString?$CI?$CFu?$CJ@
CONST	SEGMENT DWORD USE32 PUBLIC 'CONST'
CONST	ENDS
;	COMDAT ?IsLocked@CStringData@ATL@@QBE_NXZ
_TEXT	SEGMENT PARA USE32 PUBLIC 'CODE'
_TEXT	ENDS
;	COMDAT ??_7CGdiPlusBitmap@CSkinButton@@6B@
CONST	SEGMENT DWORD USE32 PUBLIC 'CONST'
CONST	ENDS
;	COMDAT ??_7IData@@6B@
CONST	SEGMENT DWORD USE32 PUBLIC 'CONST'
CONST	ENDS
;	COMDAT ?GetLastStatus@Image@Gdiplus@@QBE?AW4Status@2@XZ
_TEXT	SEGMENT PARA USE32 PUBLIC 'CODE'
_TEXT	ENDS
;	COMDAT ?FromFile@Bitmap@Gdiplus@@SAPAV12@PB_WH@Z
_TEXT	SEGMENT PARA USE32 PUBLIC 'CODE'
_TEXT	ENDS
;	COMDAT ??2GdiplusBase@Gdiplus@@SAPAXI@Z
_TEXT	SEGMENT PARA USE32 PUBLIC 'CODE'
_TEXT	ENDS
;	COMDAT ??3GdiplusBase@Gdiplus@@SAXPAX@Z
_TEXT	SEGMENT PARA USE32 PUBLIC 'CODE'
_TEXT	ENDS
;	COMDAT ??0Bitmap@Gdiplus@@QAE@PB_WH@Z
_TEXT	SEGMENT PARA USE32 PUBLIC 'CODE'
_TEXT	ENDS
;	COMDAT ??0Image@Gdiplus@@IAE@XZ
_TEXT	SEGMENT PARA USE32 PUBLIC 'CODE'
_TEXT	ENDS
;	COMDAT ??_7Image@Gdiplus@@6B@
CONST	SEGMENT DWORD USE32 PUBLIC 'CONST'
CONST	ENDS
;	COMDAT ??_R4Image@Gdiplus@@6B@
rdata$r	SEGMENT DWORD USE32 PUBLIC 'CONST'
rdata$r	ENDS
;	COMDAT ??_R0?AVImage@Gdiplus@@@8
_DATA	SEGMENT DWORD USE32 PUBLIC 'DATA'
_DATA	ENDS
;	COMDAT ??_R3Image@Gdiplus@@8
rdata$r	SEGMENT DWORD USE32 PUBLIC 'CONST'
rdata$r	ENDS
;	COMDAT ??_R2Image@Gdiplus@@8
rdata$r	SEGMENT DWORD USE32 PUBLIC 'CONST'
rdata$r	ENDS
;	COMDAT ??_R1A@?0A@A@Image@Gdiplus@@8
rdata$r	SEGMENT DWORD USE32 PUBLIC 'CONST'
rdata$r	ENDS
;	COMDAT ??_R13?0A@A@GdiplusBase@Gdiplus@@8
rdata$r	SEGMENT DWORD USE32 PUBLIC 'CONST'
rdata$r	ENDS
;	COMDAT ??_R0?AVGdiplusBase@Gdiplus@@@8
_DATA	SEGMENT DWORD USE32 PUBLIC 'DATA'
_DATA	ENDS
;	COMDAT ??_GImage@Gdiplus@@UAEPAXI@Z
_TEXT	SEGMENT PARA USE32 PUBLIC 'CODE'
_TEXT	ENDS
;	COMDAT ?Clone@Image@Gdiplus@@UAEPAV12@XZ
_TEXT	SEGMENT PARA USE32 PUBLIC 'CODE'
_TEXT	ENDS
;	COMDAT ?SetStatus@Image@Gdiplus@@IBE?AW4Status@2@W432@@Z
_TEXT	SEGMENT PARA USE32 PUBLIC 'CODE'
_TEXT	ENDS
;	COMDAT ??0Image@Gdiplus@@IAE@PAVGpImage@1@W4Status@1@@Z
_TEXT	SEGMENT PARA USE32 PUBLIC 'CODE'
_TEXT	ENDS
;	COMDAT ??1Image@Gdiplus@@UAE@XZ
_TEXT	SEGMENT PARA USE32 PUBLIC 'CODE'
_TEXT	ENDS
;	COMDAT ??_7Bitmap@Gdiplus@@6B@
CONST	SEGMENT DWORD USE32 PUBLIC 'CONST'
CONST	ENDS
;	COMDAT ??_R4Bitmap@Gdiplus@@6B@
rdata$r	SEGMENT DWORD USE32 PUBLIC 'CONST'
rdata$r	ENDS
;	COMDAT ??_R0?AVBitmap@Gdiplus@@@8
_DATA	SEGMENT DWORD USE32 PUBLIC 'DATA'
_DATA	ENDS
;	COMDAT ??_R3Bitmap@Gdiplus@@8
rdata$r	SEGMENT DWORD USE32 PUBLIC 'CONST'
rdata$r	ENDS
;	COMDAT ??_R2Bitmap@Gdiplus@@8
rdata$r	SEGMENT DWORD USE32 PUBLIC 'CONST'
rdata$r	ENDS
;	COMDAT ??_R1A@?0A@A@Bitmap@Gdiplus@@8
rdata$r	SEGMENT DWORD USE32 PUBLIC 'CONST'
rdata$r	ENDS
;	COMDAT ??_GBitmap@Gdiplus@@UAEPAXI@Z
_TEXT	SEGMENT PARA USE32 PUBLIC 'CODE'
_TEXT	ENDS
;	COMDAT ??1Bitmap@Gdiplus@@UAE@XZ
_TEXT	SEGMENT PARA USE32 PUBLIC 'CODE'
_TEXT	ENDS
;	COMDAT ?SetNativeImage@Image@Gdiplus@@IAEXPAVGpImage@2@@Z
_TEXT	SEGMENT PARA USE32 PUBLIC 'CODE'
_TEXT	ENDS
;	COMDAT ??_7CGdiPlusBitmap@@6B@
CONST	SEGMENT DWORD USE32 PUBLIC 'CONST'
CONST	ENDS
;	COMDAT ??_7DIBINFO@@6B@
CONST	SEGMENT DWORD USE32 PUBLIC 'CONST'
CONST	ENDS
;	COMDAT ??_7HTTPObserver@@6B@
CONST	SEGMENT DWORD USE32 PUBLIC 'CONST'
CONST	ENDS
;	COMDAT ?c_bIsMFCDLLTraits@?$_MFCDLLTraitsCheck@_WV?$StrTraitATL@_WV?$ChTraitsCRT@_W@ATL@@@ATL@@@_CSTRING_IMPL_@ATL@@2_NB
CONST	SEGMENT DWORD USE32 PUBLIC 'CONST'
CONST	ENDS
;	COMDAT ?c_bIsMFCDLLTraits@?$_MFCDLLTraitsCheck@DV?$StrTraitATL@DV?$ChTraitsCRT@D@ATL@@@ATL@@@_CSTRING_IMPL_@ATL@@2_NB
CONST	SEGMENT DWORD USE32 PUBLIC 'CONST'
CONST	ENDS
;	COMDAT ?_AtlGetConversionACP@ATL@@YGIXZ
_TEXT	SEGMENT PARA USE32 PUBLIC 'CODE'
_TEXT	ENDS
;	COMDAT ?g_pfnGetThreadACP@ATL@@3P6GIXZA
_DATA	SEGMENT DWORD USE32 PUBLIC 'DATA'
_DATA	ENDS
;	COMDAT ?_AtlGetThreadACPThunk@ATL@@YGIXZ
_TEXT	SEGMENT PARA USE32 PUBLIC 'CODE'
_TEXT	ENDS
;	COMDAT ?_AtlGetThreadACPReal@ATL@@YGIXZ
_TEXT	SEGMENT PARA USE32 PUBLIC 'CODE'
_TEXT	ENDS
;	COMDAT ?_AtlGetThreadACPFake@ATL@@YGIXZ
_TEXT	SEGMENT PARA USE32 PUBLIC 'CODE'
_TEXT	ENDS
;	COMDAT ?InterlockedExchangePointer@@YGPAXPAPAXPAX@Z
_TEXT	SEGMENT PARA USE32 PUBLIC 'CODE'
_TEXT	ENDS
;	COMDAT ??_C@_09BBJEMDLA@nRet?5?$CB?$DN?50?$AA@
CONST	SEGMENT DWORD USE32 PUBLIC 'CONST'
CONST	ENDS
;	COMDAT ?_strthunks@ATL@@3U_AtlStringThunks@1@A
_DATA	SEGMENT DWORD USE32 PUBLIC 'DATA'
_DATA	ENDS
;	COMDAT ?CompareStringWThunk@ATL@@YGHKKPB_WH0H@Z
_TEXT	SEGMENT PARA USE32 PUBLIC 'CODE'
_TEXT	ENDS
;	COMDAT ?_AtlInstallStringThunk@ATL@@YAXPAPAXPAX1@Z
_TEXT	SEGMENT PARA USE32 PUBLIC 'CODE'
_TEXT	ENDS
;	COMDAT ??_B?1??_AtlInstallStringThunk@ATL@@YAXPAPAXPAX1@Z@51
_BSS	SEGMENT DWORD USE32 PUBLIC 'BSS'
_BSS	ENDS
;	COMDAT ?s_bWin9x@?1??_AtlInstallStringThunk@ATL@@YAXPAPAXPAX1@Z@4_NA
_BSS	SEGMENT DWORD USE32 PUBLIC 'BSS'
_BSS	ENDS
;	COMDAT ?CompareStringWFake@ATL@@YGHKKPB_WH0H@Z
_TEXT	SEGMENT PARA USE32 PUBLIC 'CODE'
_TEXT	ENDS
;	COMDAT ??0?$CAtlSafeAllocBufferManager@VCCRTAllocator@ATL@@@_ATL_SAFE_ALLOCA_IMPL@ATL@@QAE@XZ
_TEXT	SEGMENT PARA USE32 PUBLIC 'CODE'
_TEXT	ENDS
;	COMDAT ??1?$CAtlSafeAllocBufferManager@VCCRTAllocator@ATL@@@_ATL_SAFE_ALLOCA_IMPL@ATL@@QAE@XZ
_TEXT	SEGMENT PARA USE32 PUBLIC 'CODE'
_TEXT	ENDS
;	COMDAT ?Free@CCRTAllocator@ATL@@SAXPAX@Z
_TEXT	SEGMENT PARA USE32 PUBLIC 'CODE'
_TEXT	ENDS
;	COMDAT ?AtlW2AHelper@@YGPADPADPB_WHI@Z
_TEXT	SEGMENT PARA USE32 PUBLIC 'CODE'
_TEXT	ENDS
;	COMDAT ??_C@_08DIHJLFDJ@lpw?5?$CB?$DN?50?$AA@
CONST	SEGMENT DWORD USE32 PUBLIC 'CONST'
CONST	ENDS
;	COMDAT ??_C@_08DMHHBMMN@lpa?5?$CB?$DN?50?$AA@
CONST	SEGMENT DWORD USE32 PUBLIC 'CONST'
CONST	ENDS
;	COMDAT ??_C@_01GBGANLPD@0?$AA@
CONST	SEGMENT DWORD USE32 PUBLIC 'CONST'
CONST	ENDS
;	COMDAT ??_C@_0FG@PFHCBDBK@D?3?2Program?5Files?5?$CIx86?$CJ?2Microsoft@
CONST	SEGMENT DWORD USE32 PUBLIC 'CONST'
CONST	ENDS
;	COMDAT ?_AtlVerifyStackAvailable@_ATL_SAFE_ALLOCA_IMPL@ATL@@YA_NK@Z
_TEXT	SEGMENT PARA USE32 PUBLIC 'CODE'
_TEXT	ENDS
;	COMDAT ?Allocate@?$CAtlSafeAllocBufferManager@VCCRTAllocator@ATL@@@_ATL_SAFE_ALLOCA_IMPL@ATL@@QAEPAXK@Z
_TEXT	SEGMENT PARA USE32 PUBLIC 'CODE'
_TEXT	ENDS
;	COMDAT ?Allocate@CCRTAllocator@ATL@@SAPAXI@Z
_TEXT	SEGMENT PARA USE32 PUBLIC 'CODE'
_TEXT	ENDS
;	COMDAT ?GetData@CAtlSafeAllocBufferNode@?$CAtlSafeAllocBufferManager@VCCRTAllocator@ATL@@@_ATL_SAFE_ALLOCA_IMPL@ATL@@QAEPAXXZ
_TEXT	SEGMENT PARA USE32 PUBLIC 'CODE'
_TEXT	ENDS
;	COMDAT ?GetStringTypeExWThunk@ATL@@YGHKKPB_WHPAG@Z
_TEXT	SEGMENT PARA USE32 PUBLIC 'CODE'
_TEXT	ENDS
;	COMDAT ?GetStringTypeExWFake@ATL@@YGHKKPB_WHPAG@Z
_TEXT	SEGMENT PARA USE32 PUBLIC 'CODE'
_TEXT	ENDS
;	COMDAT ??0?$CTempBuffer@D$0IA@VCCRTAllocator@ATL@@@ATL@@QAE@XZ
_TEXT	SEGMENT PARA USE32 PUBLIC 'CODE'
_TEXT	ENDS
;	COMDAT ??1?$CTempBuffer@D$0IA@VCCRTAllocator@ATL@@@ATL@@QAE@XZ
_TEXT	SEGMENT PARA USE32 PUBLIC 'CODE'
_TEXT	ENDS
;	COMDAT ?FreeHeap@?$CTempBuffer@D$0IA@VCCRTAllocator@ATL@@@ATL@@AAEXXZ
_TEXT	SEGMENT PARA USE32 PUBLIC 'CODE'
_TEXT	ENDS
;	COMDAT ?Allocate@?$CTempBuffer@D$0IA@VCCRTAllocator@ATL@@@ATL@@QAEPADI@Z
_TEXT	SEGMENT PARA USE32 PUBLIC 'CODE'
_TEXT	ENDS
;	COMDAT ?AllocateBytes@?$CTempBuffer@D$0IA@VCCRTAllocator@ATL@@@ATL@@QAEPADI@Z
_TEXT	SEGMENT PARA USE32 PUBLIC 'CODE'
_TEXT	ENDS
;	COMDAT ??_C@_08GPODJFIN@m_p?5?$DN?$DN?50?$AA@
CONST	SEGMENT DWORD USE32 PUBLIC 'CONST'
CONST	ENDS
;	COMDAT ??_C@_0FH@BOCPFCEM@D?3?2Program?5Files?5?$CIx86?$CJ?2Microsoft@
CONST	SEGMENT DWORD USE32 PUBLIC 'CONST'
CONST	ENDS
;	COMDAT ?AllocateHeap@?$CTempBuffer@D$0IA@VCCRTAllocator@ATL@@@ATL@@AAEXI@Z
_TEXT	SEGMENT PARA USE32 PUBLIC 'CODE'
_TEXT	ENDS
;	COMDAT ??B?$CTempBuffer@D$0IA@VCCRTAllocator@ATL@@@ATL@@QBEPADXZ
_TEXT	SEGMENT PARA USE32 PUBLIC 'CODE'
_TEXT	ENDS
;	COMDAT ?lstrcmpiWThunk@ATL@@YGHPB_W0@Z
_TEXT	SEGMENT PARA USE32 PUBLIC 'CODE'
_TEXT	ENDS
;	COMDAT ?lstrcmpiWFake@ATL@@YGHPB_W0@Z
_TEXT	SEGMENT PARA USE32 PUBLIC 'CODE'
_TEXT	ENDS
;	COMDAT ?CharLowerWThunk@ATL@@YGPA_WPA_W@Z
_TEXT	SEGMENT PARA USE32 PUBLIC 'CODE'
_TEXT	ENDS
;	COMDAT ?CharLowerWFake@ATL@@YGPA_WPA_W@Z
_TEXT	SEGMENT PARA USE32 PUBLIC 'CODE'
_TEXT	ENDS
;	COMDAT ?AtlA2WHelper@@YGPA_WPA_WPBDHI@Z
_TEXT	SEGMENT PARA USE32 PUBLIC 'CODE'
_TEXT	ENDS
;	COMDAT ?CharUpperWThunk@ATL@@YGPA_WPA_W@Z
_TEXT	SEGMENT PARA USE32 PUBLIC 'CODE'
_TEXT	ENDS
;	COMDAT ?CharUpperWFake@ATL@@YGPA_WPA_W@Z
_TEXT	SEGMENT PARA USE32 PUBLIC 'CODE'
_TEXT	ENDS
;	COMDAT ?GetEnvironmentVariableWThunk@ATL@@YGKPB_WPA_WK@Z
_TEXT	SEGMENT PARA USE32 PUBLIC 'CODE'
_TEXT	ENDS
;	COMDAT ?GetEnvironmentVariableWFake@ATL@@YGKPB_WPA_WK@Z
_TEXT	SEGMENT PARA USE32 PUBLIC 'CODE'
_TEXT	ENDS
;	COMDAT ??0?$CW2AEX@$0IA@@ATL@@QAE@PB_W@Z
_TEXT	SEGMENT PARA USE32 PUBLIC 'CODE'
_TEXT	ENDS
;	COMDAT ?Init@?$CW2AEX@$0IA@@ATL@@AAEXPB_WI@Z
_TEXT	SEGMENT PARA USE32 PUBLIC 'CODE'
_TEXT	ENDS
;	COMDAT ?AtlThrowLastWin32@ATL@@YGXXZ
_TEXT	SEGMENT PARA USE32 PUBLIC 'CODE'
_TEXT	ENDS
;	COMDAT ??1?$CW2AEX@$0IA@@ATL@@QAE@XZ
_TEXT	SEGMENT PARA USE32 PUBLIC 'CODE'
_TEXT	ENDS
;	COMDAT ??B?$CW2AEX@$0IA@@ATL@@QBEPADXZ
_TEXT	SEGMENT PARA USE32 PUBLIC 'CODE'
_TEXT	ENDS
;	COMDAT ??_C@_0BA@CLMJJCOM@nSize?5?$DO?$DN?5nSizeW?$AA@
CONST	SEGMENT DWORD USE32 PUBLIC 'CONST'
CONST	ENDS
;	COMDAT ?AddRef@CStringData@ATL@@QAEXXZ
_TEXT	SEGMENT PARA USE32 PUBLIC 'CODE'
_TEXT	ENDS
;	COMDAT ??_C@_09EEBKLCFA@nRefs?5?$DO?50?$AA@
CONST	SEGMENT DWORD USE32 PUBLIC 'CONST'
CONST	ENDS
;	COMDAT ?SetManager@CNilStringData@ATL@@QAEXPAUIAtlStringMgr@2@@Z
_TEXT	SEGMENT PARA USE32 PUBLIC 'CODE'
_TEXT	ENDS
;	COMDAT ??_C@_0BA@MLJMCNFJ@pStringMgr?5?$DN?$DN?50?$AA@
CONST	SEGMENT DWORD USE32 PUBLIC 'CONST'
CONST	ENDS
;	COMDAT ??0CNilStringData@ATL@@QAE@XZ
_TEXT	SEGMENT PARA USE32 PUBLIC 'CODE'
_TEXT	ENDS
;	COMDAT ??_7CAtlStringMgr@ATL@@6B@
CONST	SEGMENT DWORD USE32 PUBLIC 'CONST'
CONST	ENDS
sxdata	SEGMENT DWORD USE32 'SXDATA'
sxdata	ENDS
FLAT	GROUP _DATA, CONST, _BSS
	ASSUME	CS: FLAT, DS: FLAT, SS: FLAT
endif

INCLUDELIB MSVCRTD
INCLUDELIB OLDNAMES

PUBLIC	?OnDeleteTray@CPlayBoxDlg@@QAEJIJ@Z		; CPlayBoxDlg::OnDeleteTray
PUBLIC	?OnSysCommand@CPlayBoxDlg@@QAEXIJ@Z		; CPlayBoxDlg::OnSysCommand
PUBLIC	?OnTrayMenuSetting@CPlayBoxDlg@@QAEXXZ		; CPlayBoxDlg::OnTrayMenuSetting
PUBLIC	?OnTrayMenuOpen@CPlayBoxDlg@@QAEXXZ		; CPlayBoxDlg::OnTrayMenuOpen
PUBLIC	?OnTrayMenuExit@CPlayBoxDlg@@QAEXXZ		; CPlayBoxDlg::OnTrayMenuExit
PUBLIC	?OnGetMinMaxInfo@CPlayBoxDlg@@QAEXPAUtagMINMAXINFO@@@Z ; CPlayBoxDlg::OnGetMinMaxInfo
PUBLIC	??_9@$BBFI@AE					; `vcall'
PUBLIC	??_9@$BBFE@AE					; `vcall'
PUBLIC	?c_bIsMFCDLLTraits@?$_MFCDLLTraitsCheck@DV?$StrTraitATL@DV?$ChTraitsCRT@D@ATL@@@ATL@@@_CSTRING_IMPL_@ATL@@2_NB ; ATL::_CSTRING_IMPL_::_MFCDLLTraitsCheck<char,ATL::StrTraitATL<char,ATL::ChTraitsCRT<char> > >::c_bIsMFCDLLTraits
PUBLIC	?g_pfnGetThreadACP@ATL@@3P6GIXZA		; ATL::g_pfnGetThreadACP
PUBLIC	?_AtlGetThreadACPThunk@ATL@@YGIXZ		; ATL::_AtlGetThreadACPThunk
PUBLIC	?_strthunks@ATL@@3U_AtlStringThunks@1@A		; ATL::_strthunks
PUBLIC	?g_hStartEvent@@3PAXA				; g_hStartEvent
PUBLIC	?GetEnvironmentVariableWThunk@ATL@@YGKPB_WPA_WK@Z ; ATL::GetEnvironmentVariableWThunk
PUBLIC	?CompareStringWThunk@ATL@@YGHKKPB_WH0H@Z	; ATL::CompareStringWThunk
PUBLIC	?GetStringTypeExWThunk@ATL@@YGHKKPB_WHPAG@Z	; ATL::GetStringTypeExWThunk
PUBLIC	?lstrcmpiWThunk@ATL@@YGHPB_W0@Z			; ATL::lstrcmpiWThunk
PUBLIC	?CharLowerWThunk@ATL@@YGPA_WPA_W@Z		; ATL::CharLowerWThunk
PUBLIC	?CharUpperWThunk@ATL@@YGPA_WPA_W@Z		; ATL::CharUpperWThunk
PUBLIC	?OnMeasureItem@CPlayBoxDlg@@IAEXHPAUtagMEASUREITEMSTRUCT@@@Z ; CPlayBoxDlg::OnMeasureItem
PUBLIC	?c_bIsMFCDLLTraits@?$_MFCDLLTraitsCheck@_WV?$StrTraitATL@_WV?$ChTraitsCRT@_W@ATL@@@ATL@@@_CSTRING_IMPL_@ATL@@2_NB ; ATL::_CSTRING_IMPL_::_MFCDLLTraitsCheck<wchar_t,ATL::StrTraitATL<wchar_t,ATL::ChTraitsCRT<wchar_t> > >::c_bIsMFCDLLTraits
PUBLIC	?OnPaint@CPlayBoxDlg@@IAEXXZ			; CPlayBoxDlg::OnPaint
PUBLIC	?OnShowWindow@CPlayBoxDlg@@IAEXHI@Z		; CPlayBoxDlg::OnShowWindow
PUBLIC	?OnLButtonDown@CPlayBoxDlg@@IAEXIVCPoint@@@Z	; CPlayBoxDlg::OnLButtonDown
PUBLIC	?OnLButtonUp@CPlayBoxDlg@@IAEXIVCPoint@@@Z	; CPlayBoxDlg::OnLButtonUp
PUBLIC	?OnMouseMove@CPlayBoxDlg@@IAEXIVCPoint@@@Z	; CPlayBoxDlg::OnMouseMove
PUBLIC	?OnEraseBkgnd@CPlayBoxDlg@@IAEHPAVCDC@@@Z	; CPlayBoxDlg::OnEraseBkgnd
PUBLIC	?OnSize@CPlayBoxDlg@@IAEXIHH@Z			; CPlayBoxDlg::OnSize
PUBLIC	?OnMove@CPlayBoxDlg@@IAEXHH@Z			; CPlayBoxDlg::OnMove
PUBLIC	?OnTimer@CPlayBoxDlg@@IAEXI@Z			; CPlayBoxDlg::OnTimer
PUBLIC	?OnClose@CPlayBoxDlg@@IAEXXZ			; CPlayBoxDlg::OnClose
PUBLIC	?OnCopyData@CPlayBoxDlg@@IAEHPAVCWnd@@PAUtagCOPYDATASTRUCT@@@Z ; CPlayBoxDlg::OnCopyData
PUBLIC	?OnTrayNotification@CPlayBoxDlg@@IAEJIJ@Z	; CPlayBoxDlg::OnTrayNotification
PUBLIC	?OnShowTrayIconBalloon@CPlayBoxDlg@@IAEJIJ@Z	; CPlayBoxDlg::OnShowTrayIconBalloon
PUBLIC	?OnQueryDragIcon@CPlayBoxDlg@@IAEPAUHICON__@@XZ	; CPlayBoxDlg::OnQueryDragIcon
PUBLIC	?OnAfterUiCreate@CPlayBoxDlg@@IAEJIJ@Z		; CPlayBoxDlg::OnAfterUiCreate
PUBLIC	?OnChangeText@CPlayBoxDlg@@IAEJIJ@Z		; CPlayBoxDlg::OnChangeText
PUBLIC	?OnHTTPDonwload@CPlayBoxDlg@@IAEJIJ@Z		; CPlayBoxDlg::OnHTTPDonwload
PUBLIC	?OnConfUpdate@CPlayBoxDlg@@IAEJIJ@Z		; CPlayBoxDlg::OnConfUpdate
PUBLIC	?_messageEntries@CPlayBoxDlg@@0QBUAFX_MSGMAP_ENTRY@@B ; CPlayBoxDlg::_messageEntries
PUBLIC	?messageMap@CPlayBoxDlg@@1UAFX_MSGMAP@@B	; CPlayBoxDlg::messageMap
EXTRN	?OnQueryEndSession@CWnd@@IAEHXZ:NEAR		; CWnd::OnQueryEndSession
EXTRN	?GetThisMessageMap@CDialog@@KGPBUAFX_MSGMAP@@XZ:NEAR ; CDialog::GetThisMessageMap
_BSS	SEGMENT
?g_hStartEvent@@3PAXA DD 01H DUP (?)			; g_hStartEvent
_BSS	ENDS
;	COMDAT ?c_bIsMFCDLLTraits@?$_MFCDLLTraitsCheck@DV?$StrTraitATL@DV?$ChTraitsCRT@D@ATL@@@ATL@@@_CSTRING_IMPL_@ATL@@2_NB
CONST	SEGMENT
?c_bIsMFCDLLTraits@?$_MFCDLLTraitsCheck@DV?$StrTraitATL@DV?$ChTraitsCRT@D@ATL@@@ATL@@@_CSTRING_IMPL_@ATL@@2_NB DB 00H ; ATL::_CSTRING_IMPL_::_MFCDLLTraitsCheck<char,ATL::StrTraitATL<char,ATL::ChTraitsCRT<char> > >::c_bIsMFCDLLTraits
CONST	ENDS
;	COMDAT ?c_bIsMFCDLLTraits@?$_MFCDLLTraitsCheck@_WV?$StrTraitATL@_WV?$ChTraitsCRT@_W@ATL@@@ATL@@@_CSTRING_IMPL_@ATL@@2_NB
CONST	SEGMENT
?c_bIsMFCDLLTraits@?$_MFCDLLTraitsCheck@_WV?$StrTraitATL@_WV?$ChTraitsCRT@_W@ATL@@@ATL@@@_CSTRING_IMPL_@ATL@@2_NB DB 00H ; ATL::_CSTRING_IMPL_::_MFCDLLTraitsCheck<wchar_t,ATL::StrTraitATL<wchar_t,ATL::ChTraitsCRT<wchar_t> > >::c_bIsMFCDLLTraits
CONST	ENDS
CONST	SEGMENT
$SG189046 DB	'int', 00H
CONST	ENDS
_DATA	SEGMENT
_TYPE_CONFIG_INT DD FLAT:$SG189046
_DATA	ENDS
CONST	SEGMENT
$SG189048 DB	'str', 00H
CONST	ENDS
_DATA	SEGMENT
_TYPE_CONFIG_STR DD FLAT:$SG189048
_DATA	ENDS
CONST	SEGMENT
$SG189050 DB	'double', 00H
CONST	ENDS
_DATA	SEGMENT
_TYPE_CONFIG_DOUBLE DD FLAT:$SG189050
_DATA	ENDS
CONST	SEGMENT
	ORG $+1
$SG189052 DB	'bool', 00H
CONST	ENDS
_DATA	SEGMENT
_TYPE_CONFIG_BOOL DD FLAT:$SG189052
_DATA	ENDS
CONST	SEGMENT
	ORG $+3
$SG189054 DB	'sepint', 00H
CONST	ENDS
_DATA	SEGMENT
_TYPE_CONFIG_INT_HASSEP DD FLAT:$SG189054
_DATA	ENDS
CONST	SEGMENT
	ORG $+1
$SG189056 DB	'sepstr', 00H
CONST	ENDS
_DATA	SEGMENT
_TYPE_CONFIG_STR_HASSEP DD FLAT:$SG189056
_DATA	ENDS
CONST	SEGMENT
	ORG $+1
$SG189058 DB	'sepdouble', 00H
CONST	ENDS
_DATA	SEGMENT
_TYPE_CONFIG_DOUBLE_HASSEP DD FLAT:$SG189058
_DATA	ENDS
CONST	SEGMENT
	ORG $+2
$SG189060 DB	'sepbool', 00H
CONST	ENDS
_DATA	SEGMENT
_TYPE_CONFIG_BOOL_HASSEP DD FLAT:$SG189060
_DATA	ENDS
CONST	SEGMENT
$SG189062 DB	'Layout', 00H
CONST	ENDS
_DATA	SEGMENT
_CONF_LAYOUT_MODULE_NAME DD FLAT:$SG189062
_DATA	ENDS
CONST	SEGMENT
	ORG $+1
$SG189064 DB	'Normal', 00H
CONST	ENDS
_DATA	SEGMENT
_CONF_LAYOUT_NORMAL DD FLAT:$SG189064
_DATA	ENDS
CONST	SEGMENT
	ORG $+1
$SG189066 DB	'xPos', 00H
CONST	ENDS
_DATA	SEGMENT
_CONF_LAYOUT_X_POS DD FLAT:$SG189066
_DATA	ENDS
CONST	SEGMENT
	ORG $+3
$SG189068 DB	'yPos', 00H
CONST	ENDS
_DATA	SEGMENT
_CONF_LAYOUT_Y_POS DD FLAT:$SG189068
_DATA	ENDS
CONST	SEGMENT
	ORG $+3
$SG189070 DB	'Width', 00H
CONST	ENDS
_DATA	SEGMENT
_CONF_LAYOUT_WIDTH DD FLAT:$SG189070
_DATA	ENDS
CONST	SEGMENT
	ORG $+2
$SG189072 DB	'Height', 00H
CONST	ENDS
_DATA	SEGMENT
_CONF_LAYOUT_HEIGHT DD FLAT:$SG189072
_DATA	ENDS
CONST	SEGMENT
	ORG $+1
$SG189074 DB	'mincx', 00H
CONST	ENDS
_DATA	SEGMENT
_CONF_LAYOUT_MIN_WIDTH DD FLAT:$SG189074
_DATA	ENDS
CONST	SEGMENT
	ORG $+2
$SG189076 DB	'mincy', 00H
CONST	ENDS
_DATA	SEGMENT
_CONF_LAYOUT_MIN_HEIGHT DD FLAT:$SG189076
_DATA	ENDS
CONST	SEGMENT
	ORG $+2
$SG189083 DB	'App', 00H
CONST	ENDS
_DATA	SEGMENT
_CONF_APP_MODULE_NAME DD FLAT:$SG189083
_DATA	ENDS
CONST	SEGMENT
$SG189085 DB	'SwfPath', 00H
CONST	ENDS
_DATA	SEGMENT
_CONF_APP_SWF_PATH DD FLAT:$SG189085
_DATA	ENDS
CONST	SEGMENT
$SG189087 DB	'MainWndHold', 00H
CONST	ENDS
_DATA	SEGMENT
_CONF_APP_MAINWND_HOLD DD FLAT:$SG189087
_DATA	ENDS
CONST	SEGMENT
$SG189089 DB	'RunCount', 00H
CONST	ENDS
_DATA	SEGMENT
_CONF_APP_RUN_COUNT DD FLAT:$SG189089
_DATA	ENDS
CONST	SEGMENT
	ORG $+3
$SG189091 DB	'PlayedGame', 00H
CONST	ENDS
_DATA	SEGMENT
_CONF_APP_PLAYED_GAME DD FLAT:$SG189091
_DATA	ENDS
CONST	SEGMENT
	ORG $+1
$SG189093 DB	'playedPcGame', 00H
CONST	ENDS
_DATA	SEGMENT
_CONF_APP_PLAYED_PC_GAME DD FLAT:$SG189093
_DATA	ENDS
CONST	SEGMENT
	ORG $+3
$SG189095 DB	'PlayedIconSize', 00H
CONST	ENDS
_DATA	SEGMENT
_CONF_APP_PLAYED_ICON_SIZE DD FLAT:$SG189095
_DATA	ENDS
CONST	SEGMENT
	ORG $+1
$SG189097 DB	'PictureSavePath', 00H
CONST	ENDS
_DATA	SEGMENT
_CONF_APP_PIC_SAVE_PATH DD FLAT:$SG189097
_DATA	ENDS
CONST	SEGMENT
$SG189104 DB	'Setting', 00H
CONST	ENDS
_DATA	SEGMENT
_CONF_SETTING_MODULE_NAME DD FLAT:$SG189104
_DATA	ENDS
CONST	SEGMENT
$SG189106 DB	'skin', 00H
CONST	ENDS
_DATA	SEGMENT
_CONF_SETTING_SKIN_IDX DD FLAT:$SG189106
_DATA	ENDS
CONST	SEGMENT
	ORG $+3
$SG189108 DB	'MainPage', 00H
CONST	ENDS
_DATA	SEGMENT
_CONF_SETTING_CONFIG_MAIN_PAGE DD FLAT:$SG189108
_DATA	ENDS
CONST	SEGMENT
	ORG $+3
$SG189110 DB	'ProblemReport', 00H
CONST	ENDS
_DATA	SEGMENT
_CONF_SETTING_CONFIG_PROBLEM_REPORT DD FLAT:$SG189110
_DATA	ENDS
CONST	SEGMENT
	ORG $+2
$SG189112 DB	'HomePage', 00H
CONST	ENDS
_DATA	SEGMENT
_CONF_SETTING_CONFIG_HOME_PAGE DD FLAT:$SG189112
_DATA	ENDS
CONST	SEGMENT
	ORG $+3
$SG189114 DB	'askexit', 00H
CONST	ENDS
_DATA	SEGMENT
_CONF_SETTING_CONFIG_IFASKEXIT DD FLAT:$SG189114
_DATA	ENDS
CONST	SEGMENT
$SG189116 DB	'exitchoice', 00H
CONST	ENDS
_DATA	SEGMENT
_CONF_SETTING_CONFIG_EXITCHOICE DD FLAT:$SG189116
_DATA	ENDS
CONST	SEGMENT
	ORG $+1
$SG189118 DB	'UN', 00H
CONST	ENDS
_DATA	SEGMENT
_CONF_SETTING_LOGIN_USER_NAME DD FLAT:$SG189118
_DATA	ENDS
CONST	SEGMENT
	ORG $+1
$SG189120 DB	'PW', 00H
CONST	ENDS
_DATA	SEGMENT
_CONF_SETTING_LOGIN_PASSWORD DD FLAT:$SG189120
_DATA	ENDS
CONST	SEGMENT
	ORG $+1
$SG189122 DB	'NetID', 00H
CONST	ENDS
_DATA	SEGMENT
_CONF_SETTING_NETID DD FLAT:$SG189122
_DATA	ENDS
CONST	SEGMENT
	ORG $+2
$SG189124 DB	'ChangeColorValue', 00H
CONST	ENDS
_DATA	SEGMENT
_CONF_SETTING_COLOR DD FLAT:$SG189124
_DATA	ENDS
CONST	SEGMENT
	ORG $+3
$SG189126 DB	'changeColorLight', 00H
CONST	ENDS
_DATA	SEGMENT
_CONF_SETTING_LIGHT DD FLAT:$SG189126
_DATA	ENDS
CONST	SEGMENT
	ORG $+3
$SG189128 DB	'ColorIndex', 00H
CONST	ENDS
_DATA	SEGMENT
_CONF_SETTING_COLOR_BTN_INDEX DD FLAT:$SG189128
_DATA	ENDS
CONST	SEGMENT
	ORG $+1
$SG189130 DB	'ColorUser', 00H
CONST	ENDS
_DATA	SEGMENT
_CONF_SETTING_COLOR_USER DD FLAT:$SG189130
_DATA	ENDS
CONST	SEGMENT
	ORG $+2
$SG189132 DB	'FirstTimeChangeSkin', 00H
CONST	ENDS
_DATA	SEGMENT
_CONF_SETTING_FIRST_TIME_CHANGESKIN DD FLAT:$SG189132
_DATA	ENDS
CONST	SEGMENT
$SG197077 DB	'.\PlayBoxDlg.cpp', 00H
	ORG $+3
$SG197078 DB	'.\PlayBoxDlg.cpp', 00H
CONST	ENDS
;	COMDAT ?_messageEntries@CPlayBoxDlg@@0QBUAFX_MSGMAP_ENTRY@@B
CONST	SEGMENT
?_messageEntries@CPlayBoxDlg@@0QBUAFX_MSGMAP_ENTRY@@B DD 0fH ; CPlayBoxDlg::_messageEntries
	DD	00H
	DD	00H
	DD	00H
	DD	010H
	DD	FLAT:?OnPaint@CPlayBoxDlg@@IAEXXZ
	DD	037H
	DD	00H
	DD	00H
	DD	00H
	DD	025H
	DD	FLAT:?OnQueryDragIcon@CPlayBoxDlg@@IAEPAUHICON__@@XZ
	DD	0201H
	DD	00H
	DD	00H
	DD	00H
	DD	032H
	DD	FLAT:?OnLButtonDown@CPlayBoxDlg@@IAEXIVCPoint@@@Z
	DD	0200H
	DD	00H
	DD	00H
	DD	00H
	DD	032H
	DD	FLAT:?OnMouseMove@CPlayBoxDlg@@IAEXIVCPoint@@@Z
	DD	014H
	DD	00H
	DD	00H
	DD	00H
	DD	01H
	DD	FLAT:?OnEraseBkgnd@CPlayBoxDlg@@IAEHPAVCDC@@@Z
	DD	0202H
	DD	00H
	DD	00H
	DD	00H
	DD	032H
	DD	FLAT:?OnLButtonUp@CPlayBoxDlg@@IAEXIVCPoint@@@Z
	DD	02cH
	DD	00H
	DD	00H
	DD	00H
	DD	02bH
	DD	FLAT:?OnMeasureItem@CPlayBoxDlg@@IAEXHPAUtagMEASUREITEMSTRUCT@@@Z
	DD	05H
	DD	00H
	DD	00H
	DD	00H
	DD	016H
	DD	FLAT:?OnSize@CPlayBoxDlg@@IAEXIHH@Z
	DD	03H
	DD	00H
	DD	00H
	DD	00H
	DD	014H
	DD	FLAT:?OnMove@CPlayBoxDlg@@IAEXHH@Z
	DD	010H
	DD	00H
	DD	00H
	DD	00H
	DD	010H
	DD	FLAT:?OnClose@CPlayBoxDlg@@IAEXXZ
	DD	0111H
	DD	00H
	DD	02H
	DD	02H
	DD	035H
	DD	FLAT:??_9@$BBFI@AE
	DD	0111H
	DD	00H
	DD	01H
	DD	01H
	DD	035H
	DD	FLAT:??_9@$BBFE@AE
	DD	0935H
	DD	00H
	DD	00H
	DD	00H
	DD	0eH
	DD	FLAT:?OnTrayNotification@CPlayBoxDlg@@IAEJIJ@Z
	DD	065H
	DD	00H
	DD	00H
	DD	00H
	DD	0eH
	DD	FLAT:?OnShowTrayIconBalloon@CPlayBoxDlg@@IAEJIJ@Z
	DD	066H
	DD	00H
	DD	00H
	DD	00H
	DD	0eH
	DD	FLAT:?OnDeleteTray@CPlayBoxDlg@@QAEJIJ@Z
	DD	0410H
	DD	00H
	DD	00H
	DD	00H
	DD	0eH
	DD	FLAT:?OnAfterUiCreate@CPlayBoxDlg@@IAEJIJ@Z
	DD	040dH
	DD	00H
	DD	00H
	DD	00H
	DD	0eH
	DD	FLAT:?OnConfUpdate@CPlayBoxDlg@@IAEJIJ@Z
	DD	040cH
	DD	00H
	DD	00H
	DD	00H
	DD	0eH
	DD	FLAT:?OnChangeText@CPlayBoxDlg@@IAEJIJ@Z
	DD	040eH
	DD	00H
	DD	00H
	DD	00H
	DD	0eH
	DD	FLAT:?OnHTTPDonwload@CPlayBoxDlg@@IAEJIJ@Z
	DD	0113H
	DD	00H
	DD	00H
	DD	00H
	DD	011H
	DD	FLAT:?OnTimer@CPlayBoxDlg@@IAEXI@Z
	DD	018H
	DD	00H
	DD	00H
	DD	00H
	DD	012H
	DD	FLAT:?OnShowWindow@CPlayBoxDlg@@IAEXHI@Z
	DD	0112H
	DD	00H
	DD	00H
	DD	00H
	DD	01bH
	DD	FLAT:?OnSysCommand@CPlayBoxDlg@@QAEXIJ@Z
	DD	018H
	DD	00H
	DD	00H
	DD	00H
	DD	012H
	DD	FLAT:?OnShowWindow@CPlayBoxDlg@@IAEXHI@Z
	DD	011H
	DD	00H
	DD	00H
	DD	00H
	DD	01aH
	DD	FLAT:?OnQueryEndSession@CWnd@@IAEHXZ
	DD	0111H
	DD	00H
	DD	068H
	DD	068H
	DD	035H
	DD	FLAT:?OnTrayMenuSetting@CPlayBoxDlg@@QAEXXZ
	DD	0111H
	DD	00H
	DD	0e141H
	DD	0e141H
	DD	035H
	DD	FLAT:?OnTrayMenuExit@CPlayBoxDlg@@QAEXXZ
	DD	0111H
	DD	00H
	DD	089H
	DD	089H
	DD	035H
	DD	FLAT:?OnTrayMenuOpen@CPlayBoxDlg@@QAEXXZ
	DD	04aH
	DD	00H
	DD	00H
	DD	00H
	DD	06H
	DD	FLAT:?OnCopyData@CPlayBoxDlg@@IAEHPAVCWnd@@PAUtagCOPYDATASTRUCT@@@Z
	DD	024H
	DD	00H
	DD	00H
	DD	00H
	DD	029H
	DD	FLAT:?OnGetMinMaxInfo@CPlayBoxDlg@@QAEXPAUtagMINMAXINFO@@@Z
	DD	00H
	DD	00H
	DD	00H
	DD	00H
	DD	00H
	DD	00H
CONST	ENDS
;	COMDAT ?messageMap@CPlayBoxDlg@@1UAFX_MSGMAP@@B
CONST	SEGMENT
?messageMap@CPlayBoxDlg@@1UAFX_MSGMAP@@B DD FLAT:?GetThisMessageMap@CDialog@@KGPBUAFX_MSGMAP@@XZ ; CPlayBoxDlg::messageMap
	DD	FLAT:?_messageEntries@CPlayBoxDlg@@0QBUAFX_MSGMAP_ENTRY@@B
CONST	ENDS
CONST	SEGMENT
	ORG $+3
$SG197300 DB	'OnClose', 00H
$SG197301 DB	'PlayBoxDlg', 00H
	ORG $+1
$SG197302 DB	'main.txt', 00H
$SG197321 DB	00H
	ORG $+2
$SG197322 DB	'START_TIMEOUT', 00H
	ORG $+2
$SG197328 DB	'PBMutex', 00H
$SG197341 DB	0d0H, 0a1H, 0b1H, 0a6H, 0b1H, 0b4H, 0d3H, 0ceH, 0cfH, 0b7H
	DB	0baH, 0d0H, 00H
	ORG $+3
$SG197342 DB	0d0H, 0a1H, 0b1H, 0a6H, 0b1H, 0b4H, 0d3H, 0ceH, 0cfH, 0b7H
	DB	0baH, 0d0H, 00H
	ORG $+3
$SG197344 DB	'T:%d', 00H
	ORG $+3
$SG197347 DB	'AppInit', 00H
$SG197353 DB	'before post MSG_AFTER_UICREATE', 00H
	ORG $+1
$SG197354 DB	'OnInitDialog', 00H
	ORG $+3
$SG197355 DB	'main.txt', 00H
	ORG $+3
$SG197358 DB	'after post MSG_AFTER_UICREATE', 00H
	ORG $+2
$SG197359 DB	'OnInitDialog', 00H
	ORG $+3
$SG197360 DB	'main.txt', 00H
	ORG $+3
$SG197524 DB	'WM_KEYDOWN', 00H
	ORG $+1
$SG197525 DB	'message:%s-hwnd:%d', 00H
	ORG $+1
$SG197526 DB	'CPlayBoxDlg::PreTranslateMessage', 00H
	ORG $+3
$SG197527 DB	'gameplay.txt', 00H
	ORG $+3
$SG197535 DB	0d3H, 0d2H, 0bcH, 0fcH, 00H
	ORG $+3
$SG197536 DB	'message:%s-hwnd:%d', 00H
	ORG $+1
$SG197537 DB	'CPlayBoxDlg::PreTranslateMessage', 00H
	ORG $+3
$SG197538 DB	'gameplay.txt', 00H
	ORG $+3
$SG197543 DB	'WM_SETFOCUS', 00H
$SG197544 DB	'message:%s-hwnd:%d', 00H
	ORG $+1
$SG197545 DB	'CPlayBoxDlg::PreTranslateMessage', 00H
	ORG $+3
$SG197546 DB	'gameplay.txt', 00H
	ORG $+3
$SG197569 DB	'.\PlayBoxDlg.cpp', 00H
	ORG $+3
$SG197570 DB	'::SendMessage(m_hWnd, WM_COMMAND, ID_OPEN, 0);', 0aH, 00H
$SG197723 DB	'.\PlayBoxDlg.cpp', 00H
	ORG $+3
$SG197732 DB	'://', 00H
$SG197740 DB	'add', 00H
$SG197743 DB	'search', 00H
	ORG $+1
$SG197746 DB	'refresh', 00H
$SG198262 DB	'OnAfterUiCreate==IN', 00H
$SG198263 DB	'PlayBoxDlg', 00H
	ORG $+1
$SG198264 DB	'main.txt', 00H
	ORG $+3
$SG198265 DB	'PlayBox', 00H
$SG198269 DB	'OnAfterUiCreate==OUT', 00H
	ORG $+3
$SG198270 DB	'PlayBoxDlg', 00H
	ORG $+1
$SG198271 DB	'main.txt', 00H
$SG198301 DB	00H
CONST	ENDS
;	COMDAT ?g_pfnGetThreadACP@ATL@@3P6GIXZA
_DATA	SEGMENT
?g_pfnGetThreadACP@ATL@@3P6GIXZA DD FLAT:?_AtlGetThreadACPThunk@ATL@@YGIXZ ; ATL::g_pfnGetThreadACP
_DATA	ENDS
;	COMDAT ?_strthunks@ATL@@3U_AtlStringThunks@1@A
_DATA	SEGMENT
?_strthunks@ATL@@3U_AtlStringThunks@1@A DD FLAT:?CompareStringWThunk@ATL@@YGHKKPB_WH0H@Z ; ATL::_strthunks
	DD	FLAT:?GetStringTypeExWThunk@ATL@@YGHKKPB_WHPAG@Z
	DD	FLAT:?lstrcmpiWThunk@ATL@@YGHPB_W0@Z
	DD	FLAT:?CharLowerWThunk@ATL@@YGPA_WPA_W@Z
	DD	FLAT:?CharUpperWThunk@ATL@@YGPA_WPA_W@Z
	DD	FLAT:?GetEnvironmentVariableWThunk@ATL@@YGKPB_WPA_WK@Z
_DATA	ENDS
CONST	SEGMENT
	ORG $+2
_ID_MESSAGE_PANEL_CHANGE DD 02H
_ID_MESSAGE_REFRESH DD 04H
_ID_MESSAGE_LAYOUTMGR DD 08H
_ID_MESSAGE_CONFUPDATE DD 0aH
_ID_DATA_PANELCHANGE DD 05H
_ID_DATA_AD DD	0bH
CONST	ENDS
PUBLIC	?InterlockedExchangePointer@@YGPAXPAPAXPAX@Z	; InterlockedExchangePointer
PUBLIC	?_AtlGetThreadACPFake@ATL@@YGIXZ		; ATL::_AtlGetThreadACPFake
PUBLIC	?_AtlGetThreadACPReal@ATL@@YGIXZ		; ATL::_AtlGetThreadACPReal
EXTRN	__imp__GetVersionExA@4:NEAR
EXTRN	__RTC_InitBase:NEAR
EXTRN	__RTC_Shutdown:NEAR
EXTRN	__RTC_CheckEsp:NEAR
EXTRN	___security_cookie:DWORD
EXTRN	@_RTC_CheckStackVars@8:NEAR
EXTRN	@__security_check_cookie@4:NEAR
;	COMDAT rtc$IMZ
; File d:\program files (x86)\microsoft visual studio .net 2003\vc7\atlmfc\include\atlconv.h
rtc$IMZ	SEGMENT
__RTC_InitBase.rtc$IMZ DD FLAT:__RTC_InitBase
rtc$IMZ	ENDS
;	COMDAT rtc$TMZ
rtc$TMZ	SEGMENT
__RTC_Shutdown.rtc$TMZ DD FLAT:__RTC_Shutdown
; Function compile flags: /Odt /RTCsu
rtc$TMZ	ENDS
;	COMDAT ?_AtlGetThreadACPThunk@ATL@@YGIXZ
_TEXT	SEGMENT
_pfnGetThreadACP$ = -164				; size = 4
_ver$ = -156						; size = 148
__$ArrayPad$ = -4					; size = 4
__$ReturnAddr$ = 4					; size = 4
?_AtlGetThreadACPThunk@ATL@@YGIXZ PROC NEAR		; ATL::_AtlGetThreadACPThunk, COMDAT

; 134  : {

  00000	55		 push	 ebp
  00001	8b ec		 mov	 ebp, esp
  00003	81 ec a4 00 00
	00		 sub	 esp, 164		; 000000a4H
  00009	56		 push	 esi
  0000a	57		 push	 edi
  0000b	8d bd 5c ff ff
	ff		 lea	 edi, DWORD PTR [ebp-164]
  00011	b9 29 00 00 00	 mov	 ecx, 41			; 00000029H
  00016	b8 cc cc cc cc	 mov	 eax, -858993460		; ccccccccH
  0001b	f3 ab		 rep stosd
  0001d	a1 00 00 00 00	 mov	 eax, DWORD PTR ___security_cookie
  00022	89 45 fc	 mov	 DWORD PTR __$ArrayPad$[ebp], eax

; 135  : 	OSVERSIONINFO ver;
; 136  : 	ATLGETTHREADACP pfnGetThreadACP;
; 137  : 
; 138  : 	ver.dwOSVersionInfoSize = sizeof( ver );

  00025	c7 85 64 ff ff
	ff 94 00 00 00	 mov	 DWORD PTR _ver$[ebp], 148 ; 00000094H

; 139  : 	::GetVersionEx( &ver );

  0002f	8b f4		 mov	 esi, esp
  00031	8d 85 64 ff ff
	ff		 lea	 eax, DWORD PTR _ver$[ebp]
  00037	50		 push	 eax
  00038	ff 15 00 00 00
	00		 call	 DWORD PTR __imp__GetVersionExA@4
  0003e	3b f4		 cmp	 esi, esp
  00040	e8 00 00 00 00	 call	 __RTC_CheckEsp

; 140  : 	if( (ver.dwPlatformId == VER_PLATFORM_WIN32_NT) && (ver.dwMajorVersion >= 5) )

  00045	83 bd 74 ff ff
	ff 02		 cmp	 DWORD PTR _ver$[ebp+16], 2
  0004c	75 15		 jne	 SHORT $L24163
  0004e	83 bd 68 ff ff
	ff 05		 cmp	 DWORD PTR _ver$[ebp+4], 5
  00055	72 0c		 jb	 SHORT $L24163

; 141  : 	{
; 142  : 		// On Win2K, CP_THREAD_ACP is supported
; 143  : 		pfnGetThreadACP = _AtlGetThreadACPReal;

  00057	c7 85 5c ff ff
	ff 00 00 00 00	 mov	 DWORD PTR _pfnGetThreadACP$[ebp], OFFSET FLAT:?_AtlGetThreadACPReal@ATL@@YGIXZ ; ATL::_AtlGetThreadACPReal

; 144  : 	}
; 145  : 	else

  00061	eb 0a		 jmp	 SHORT $L24164
$L24163:

; 146  : 	{
; 147  : 		pfnGetThreadACP = _AtlGetThreadACPFake;

  00063	c7 85 5c ff ff
	ff 00 00 00 00	 mov	 DWORD PTR _pfnGetThreadACP$[ebp], OFFSET FLAT:?_AtlGetThreadACPFake@ATL@@YGIXZ ; ATL::_AtlGetThreadACPFake
$L24164:

; 148  : 	}
; 149  : 	InterlockedExchangePointer( reinterpret_cast< void** >(&g_pfnGetThreadACP), pfnGetThreadACP );

  0006d	8b 8d 5c ff ff
	ff		 mov	 ecx, DWORD PTR _pfnGetThreadACP$[ebp]
  00073	51		 push	 ecx
  00074	68 00 00 00 00	 push	 OFFSET FLAT:?g_pfnGetThreadACP@ATL@@3P6GIXZA ; ATL::g_pfnGetThreadACP
  00079	e8 00 00 00 00	 call	 ?InterlockedExchangePointer@@YGPAXPAPAXPAX@Z ; InterlockedExchangePointer

; 150  : 
; 151  : 	return( g_pfnGetThreadACP() );

  0007e	8b f4		 mov	 esi, esp
  00080	ff 15 00 00 00
	00		 call	 DWORD PTR ?g_pfnGetThreadACP@ATL@@3P6GIXZA ; ATL::g_pfnGetThreadACP
  00086	3b f4		 cmp	 esi, esp
  00088	e8 00 00 00 00	 call	 __RTC_CheckEsp

; 152  : }

  0008d	52		 push	 edx
  0008e	8b cd		 mov	 ecx, ebp
  00090	50		 push	 eax
  00091	8d 15 00 00 00
	00		 lea	 edx, DWORD PTR $L199489
  00097	e8 00 00 00 00	 call	 @_RTC_CheckStackVars@8
  0009c	58		 pop	 eax
  0009d	5a		 pop	 edx
  0009e	8b 4d fc	 mov	 ecx, DWORD PTR __$ArrayPad$[ebp]
  000a1	e8 00 00 00 00	 call	 @__security_check_cookie@4
  000a6	5f		 pop	 edi
  000a7	5e		 pop	 esi
  000a8	81 c4 a4 00 00
	00		 add	 esp, 164		; 000000a4H
  000ae	3b ec		 cmp	 ebp, esp
  000b0	e8 00 00 00 00	 call	 __RTC_CheckEsp
  000b5	8b e5		 mov	 esp, ebp
  000b7	5d		 pop	 ebp
  000b8	c3		 ret	 0
$L199489:
  000b9	01 00 00 00	 DD	 1
  000bd	00 00 00 00	 DD	 $L199488
$L199488:
  000c1	64 ff ff ff	 DD	 -156			; ffffff64H
  000c5	94 00 00 00	 DD	 148			; 00000094H
  000c9	00 00 00 00	 DD	 $L199485
$L199485:
  000cd	76		 DB	 118			; 00000076H
  000ce	65		 DB	 101			; 00000065H
  000cf	72		 DB	 114			; 00000072H
  000d0	00		 DB	 0
?_AtlGetThreadACPThunk@ATL@@YGIXZ ENDP			; ATL::_AtlGetThreadACPThunk
_TEXT	ENDS
EXTRN	__imp__InterlockedExchange@8:NEAR
; Function compile flags: /Odt /RTCsu
;	COMDAT ?InterlockedExchangePointer@@YGPAXPAPAXPAX@Z
_TEXT	SEGMENT
_pp$ = 8						; size = 4
_pNew$ = 12						; size = 4
?InterlockedExchangePointer@@YGPAXPAPAXPAX@Z PROC NEAR	; InterlockedExchangePointer, COMDAT

; 91   : {

  00000	55		 push	 ebp
  00001	8b ec		 mov	 ebp, esp
  00003	56		 push	 esi

; 92   : 	return( reinterpret_cast<void*>(static_cast<LONG_PTR>(::InterlockedExchange(reinterpret_cast<LONG*>(pp), static_cast<LONG>(reinterpret_cast<LONG_PTR>(pNew))))) );

  00004	8b f4		 mov	 esi, esp
  00006	8b 45 0c	 mov	 eax, DWORD PTR _pNew$[ebp]
  00009	50		 push	 eax
  0000a	8b 4d 08	 mov	 ecx, DWORD PTR _pp$[ebp]
  0000d	51		 push	 ecx
  0000e	ff 15 00 00 00
	00		 call	 DWORD PTR __imp__InterlockedExchange@8
  00014	3b f4		 cmp	 esi, esp
  00016	e8 00 00 00 00	 call	 __RTC_CheckEsp

; 93   : }

  0001b	5e		 pop	 esi
  0001c	3b ec		 cmp	 ebp, esp
  0001e	e8 00 00 00 00	 call	 __RTC_CheckEsp
  00023	5d		 pop	 ebp
  00024	c2 08 00	 ret	 8
?InterlockedExchangePointer@@YGPAXPAPAXPAX@Z ENDP	; InterlockedExchangePointer
_TEXT	ENDS
EXTRN	__imp__GetACP@0:NEAR
EXTRN	__imp__GetLocaleInfoA@16:NEAR
EXTRN	__imp__GetThreadLocale@0:NEAR
; Function compile flags: /Odt /RTCsu
;	COMDAT ?_AtlGetThreadACPFake@ATL@@YGIXZ
_TEXT	SEGMENT
_pch$24151 = -32					; size = 4
_szACP$ = -24						; size = 7
_lcidThread$ = -12					; size = 4
_nACP$ = -8						; size = 4
__$ArrayPad$ = -4					; size = 4
__$ReturnAddr$ = 4					; size = 4
?_AtlGetThreadACPFake@ATL@@YGIXZ PROC NEAR		; ATL::_AtlGetThreadACPFake, COMDAT

; 101  : {

  00000	55		 push	 ebp
  00001	8b ec		 mov	 ebp, esp
  00003	83 ec 20	 sub	 esp, 32			; 00000020H
  00006	56		 push	 esi
  00007	b8 cc cc cc cc	 mov	 eax, -858993460		; ccccccccH
  0000c	89 45 e0	 mov	 DWORD PTR [ebp-32], eax
  0000f	89 45 e4	 mov	 DWORD PTR [ebp-28], eax
  00012	89 45 e8	 mov	 DWORD PTR [ebp-24], eax
  00015	89 45 ec	 mov	 DWORD PTR [ebp-20], eax
  00018	89 45 f0	 mov	 DWORD PTR [ebp-16], eax
  0001b	89 45 f4	 mov	 DWORD PTR [ebp-12], eax
  0001e	89 45 f8	 mov	 DWORD PTR [ebp-8], eax
  00021	89 45 fc	 mov	 DWORD PTR [ebp-4], eax
  00024	a1 00 00 00 00	 mov	 eax, DWORD PTR ___security_cookie
  00029	89 45 fc	 mov	 DWORD PTR __$ArrayPad$[ebp], eax

; 102  : 	UINT nACP = 0;

  0002c	c7 45 f8 00 00
	00 00		 mov	 DWORD PTR _nACP$[ebp], 0

; 103  : 
; 104  : 	LCID lcidThread = ::GetThreadLocale();

  00033	8b f4		 mov	 esi, esp
  00035	ff 15 00 00 00
	00		 call	 DWORD PTR __imp__GetThreadLocale@0
  0003b	3b f4		 cmp	 esi, esp
  0003d	e8 00 00 00 00	 call	 __RTC_CheckEsp
  00042	89 45 f4	 mov	 DWORD PTR _lcidThread$[ebp], eax

; 105  : 
; 106  : 	char szACP[7];
; 107  : 	// GetLocaleInfoA will fail for a Unicode-only LCID, but those are only supported on 
; 108  : 	// Windows 2000.  Since Windows 2000 supports CP_THREAD_ACP, this code path is never
; 109  : 	// executed on Windows 2000.
; 110  : 	if (::GetLocaleInfoA(lcidThread, LOCALE_IDEFAULTANSICODEPAGE, szACP, 7) != 0)

  00045	8b f4		 mov	 esi, esp
  00047	6a 07		 push	 7
  00049	8d 45 e8	 lea	 eax, DWORD PTR _szACP$[ebp]
  0004c	50		 push	 eax
  0004d	68 04 10 00 00	 push	 4100			; 00001004H
  00052	8b 4d f4	 mov	 ecx, DWORD PTR _lcidThread$[ebp]
  00055	51		 push	 ecx
  00056	ff 15 00 00 00
	00		 call	 DWORD PTR __imp__GetLocaleInfoA@16
  0005c	3b f4		 cmp	 esi, esp
  0005e	e8 00 00 00 00	 call	 __RTC_CheckEsp
  00063	85 c0		 test	 eax, eax
  00065	74 34		 je	 SHORT $L24150

; 111  : 	{
; 112  : 		char* pch = szACP;

  00067	8d 55 e8	 lea	 edx, DWORD PTR _szACP$[ebp]
  0006a	89 55 e0	 mov	 DWORD PTR _pch$24151[ebp], edx
$L24153:

; 113  : 		while (*pch != '\0')

  0006d	8b 45 e0	 mov	 eax, DWORD PTR _pch$24151[ebp]
  00070	0f be 08	 movsx	 ecx, BYTE PTR [eax]
  00073	85 c9		 test	 ecx, ecx
  00075	74 24		 je	 SHORT $L24150

; 114  : 		{
; 115  : 			nACP *= 10;

  00077	8b 55 f8	 mov	 edx, DWORD PTR _nACP$[ebp]
  0007a	6b d2 0a	 imul	 edx, 10			; 0000000aH
  0007d	89 55 f8	 mov	 DWORD PTR _nACP$[ebp], edx

; 116  : 			nACP += *pch++ - '0';

  00080	8b 45 e0	 mov	 eax, DWORD PTR _pch$24151[ebp]
  00083	0f be 08	 movsx	 ecx, BYTE PTR [eax]
  00086	8b 55 f8	 mov	 edx, DWORD PTR _nACP$[ebp]
  00089	8d 44 0a d0	 lea	 eax, DWORD PTR [edx+ecx-48]
  0008d	89 45 f8	 mov	 DWORD PTR _nACP$[ebp], eax
  00090	8b 4d e0	 mov	 ecx, DWORD PTR _pch$24151[ebp]
  00093	83 c1 01	 add	 ecx, 1
  00096	89 4d e0	 mov	 DWORD PTR _pch$24151[ebp], ecx

; 117  : 		}

  00099	eb d2		 jmp	 SHORT $L24153
$L24150:

; 118  : 	}
; 119  : 	// Use the Default ANSI Code Page if we were unable to get the thread ACP or if one does not exist.
; 120  : 	if (nACP == 0)

  0009b	83 7d f8 00	 cmp	 DWORD PTR _nACP$[ebp], 0
  0009f	75 12		 jne	 SHORT $L24155

; 121  : 		nACP = ::GetACP();

  000a1	8b f4		 mov	 esi, esp
  000a3	ff 15 00 00 00
	00		 call	 DWORD PTR __imp__GetACP@0
  000a9	3b f4		 cmp	 esi, esp
  000ab	e8 00 00 00 00	 call	 __RTC_CheckEsp
  000b0	89 45 f8	 mov	 DWORD PTR _nACP$[ebp], eax
$L24155:

; 122  : 
; 123  : 	return nACP;

  000b3	8b 45 f8	 mov	 eax, DWORD PTR _nACP$[ebp]

; 124  : }

  000b6	52		 push	 edx
  000b7	8b cd		 mov	 ecx, ebp
  000b9	50		 push	 eax
  000ba	8d 15 00 00 00
	00		 lea	 edx, DWORD PTR $L199500
  000c0	e8 00 00 00 00	 call	 @_RTC_CheckStackVars@8
  000c5	58		 pop	 eax
  000c6	5a		 pop	 edx
  000c7	8b 4d fc	 mov	 ecx, DWORD PTR __$ArrayPad$[ebp]
  000ca	e8 00 00 00 00	 call	 @__security_check_cookie@4
  000cf	5e		 pop	 esi
  000d0	83 c4 20	 add	 esp, 32			; 00000020H
  000d3	3b ec		 cmp	 ebp, esp
  000d5	e8 00 00 00 00	 call	 __RTC_CheckEsp
  000da	8b e5		 mov	 esp, ebp
  000dc	5d		 pop	 ebp
  000dd	c3		 ret	 0
$L199500:
  000de	01 00 00 00	 DD	 1
  000e2	00 00 00 00	 DD	 $L199499
$L199499:
  000e6	e8 ff ff ff	 DD	 -24			; ffffffe8H
  000ea	07 00 00 00	 DD	 7
  000ee	00 00 00 00	 DD	 $L199497
$L199497:
  000f2	73		 DB	 115			; 00000073H
  000f3	7a		 DB	 122			; 0000007aH
  000f4	41		 DB	 65			; 00000041H
  000f5	43		 DB	 67			; 00000043H
  000f6	50		 DB	 80			; 00000050H
  000f7	00		 DB	 0
?_AtlGetThreadACPFake@ATL@@YGIXZ ENDP			; ATL::_AtlGetThreadACPFake
; Function compile flags: /Odt /RTCsu
_TEXT	ENDS
;	COMDAT ?_AtlGetThreadACPReal@ATL@@YGIXZ
_TEXT	SEGMENT
?_AtlGetThreadACPReal@ATL@@YGIXZ PROC NEAR		; ATL::_AtlGetThreadACPReal, COMDAT

; 127  : {

  00000	55		 push	 ebp
  00001	8b ec		 mov	 ebp, esp

; 128  : 	return( CP_THREAD_ACP );

  00003	b8 03 00 00 00	 mov	 eax, 3

; 129  : }

  00008	5d		 pop	 ebp
  00009	c3		 ret	 0
?_AtlGetThreadACPReal@ATL@@YGIXZ ENDP			; ATL::_AtlGetThreadACPReal
_TEXT	ENDS
PUBLIC	?GetMessageMap@CPlayBoxDlg@@MBEPBUAFX_MSGMAP@@XZ ; CPlayBoxDlg::GetMessageMap
PUBLIC	??_R0?AVAfxUserConfig_Observer@@@8		; AfxUserConfig_Observer `RTTI Type Descriptor'
PUBLIC	??_R0?AVIPanelChangeObserver@@@8		; IPanelChangeObserver `RTTI Type Descriptor'
PUBLIC	??_R4CPlayBoxDlg@@6BCDialog@@@			; CPlayBoxDlg::`RTTI Complete Object Locator'
PUBLIC	??_R0?AVCPlayBoxDlg@@@8				; CPlayBoxDlg `RTTI Type Descriptor'
PUBLIC	??_R3CPlayBoxDlg@@8				; CPlayBoxDlg::`RTTI Class Hierarchy Descriptor'
PUBLIC	??_R2CPlayBoxDlg@@8				; CPlayBoxDlg::`RTTI Base Class Array'
PUBLIC	??_R1A@?0A@A@CPlayBoxDlg@@8			; CPlayBoxDlg::`RTTI Base Class Descriptor at (0,-1,0,0)'
PUBLIC	??_R1HE@?0A@A@AfxUserConfig_Observer@@8		; AfxUserConfig_Observer::`RTTI Base Class Descriptor at (116,-1,0,0)'
PUBLIC	??_R1HI@?0A@A@ILayoutChangeObserver@@8		; ILayoutChangeObserver::`RTTI Base Class Descriptor at (120,-1,0,0)'
PUBLIC	?ILayoutChangeOb_SkinChanged@CPlayBoxDlg@@UAEXV?$basic_string@DU?$char_traits@D@std@@V?$allocator@D@2@@std@@0@Z ; CPlayBoxDlg::ILayoutChangeOb_SkinChanged
PUBLIC	??_R0?AVILayoutChangeObserver@@@8		; ILayoutChangeObserver `RTTI Type Descriptor'
PUBLIC	?IPanelChangeOb_WindowMax@CPlayBoxDlg@@UAEXXZ	; CPlayBoxDlg::IPanelChangeOb_WindowMax
PUBLIC	??_R1HI@?0A@1IMessageObserver@@8		; IMessageObserver::`RTTI Base Class Descriptor at (120,-1,0,2)'
PUBLIC	?IPanelChangeOb_WindowMin@CPlayBoxDlg@@UAEXXZ	; CPlayBoxDlg::IPanelChangeOb_WindowMin
PUBLIC	??_R1HM@?0A@A@IPanelChangeObserver@@8		; IPanelChangeObserver::`RTTI Base Class Descriptor at (124,-1,0,0)'
PUBLIC	?IPanelChangeOb_WindowRestore@CPlayBoxDlg@@UAEXXZ ; CPlayBoxDlg::IPanelChangeOb_WindowRestore
PUBLIC	??_R1HM@?0A@1IMessageObserver@@8		; IMessageObserver::`RTTI Base Class Descriptor at (124,-1,0,2)'
PUBLIC	??_R4CPlayBoxDlg@@6BAfxUserConfig_Observer@@@	; CPlayBoxDlg::`RTTI Complete Object Locator'
PUBLIC	??_ECPlayBoxDlg@@WHI@AEPAXI@Z			; [thunk]:CPlayBoxDlg::`vector deleting destructor'
PUBLIC	??_R4CPlayBoxDlg@@6BILayoutChangeObserver@@@	; CPlayBoxDlg::`RTTI Complete Object Locator'
PUBLIC	??_ECPlayBoxDlg@@WHM@AEPAXI@Z			; [thunk]:CPlayBoxDlg::`vector deleting destructor'
PUBLIC	??_R4CPlayBoxDlg@@6BIPanelChangeObserver@@@	; CPlayBoxDlg::`RTTI Complete Object Locator'
PUBLIC	??_7CPlayBoxDlg@@6BCDialog@@@			; CPlayBoxDlg::`vftable'
PUBLIC	??_7CPlayBoxDlg@@6BAfxUserConfig_Observer@@@	; CPlayBoxDlg::`vftable'
PUBLIC	??_7CPlayBoxDlg@@6BILayoutChangeObserver@@@	; CPlayBoxDlg::`vftable'
PUBLIC	??_7CPlayBoxDlg@@6BIPanelChangeObserver@@@	; CPlayBoxDlg::`vftable'
PUBLIC	??_GCPlayBoxDlg@@UAEPAXI@Z			; CPlayBoxDlg::`scalar deleting destructor'
PUBLIC	??_R1A@?0A@A@CDialog@@8				; CDialog::`RTTI Base Class Descriptor at (0,-1,0,0)'
PUBLIC	??_R0?AVCDialog@@@8				; CDialog `RTTI Type Descriptor'
PUBLIC	??_R1A@?0A@A@CWnd@@8				; CWnd::`RTTI Base Class Descriptor at (0,-1,0,0)'
PUBLIC	??_R0?AVCWnd@@@8				; CWnd `RTTI Type Descriptor'
PUBLIC	??_R1A@?0A@A@CCmdTarget@@8			; CCmdTarget::`RTTI Base Class Descriptor at (0,-1,0,0)'
PUBLIC	??_R0?AVCCmdTarget@@@8				; CCmdTarget `RTTI Type Descriptor'
PUBLIC	??_R1A@?0A@A@CObject@@8				; CObject::`RTTI Base Class Descriptor at (0,-1,0,0)'
PUBLIC	??_R0?AVCObject@@@8				; CObject `RTTI Type Descriptor'
PUBLIC	??_R0?AVIMessageObserver@@@8			; IMessageObserver `RTTI Type Descriptor'
PUBLIC	??0AfxUserConfig_Observer@@QAE@XZ		; AfxUserConfig_Observer::AfxUserConfig_Observer
PUBLIC	?ILayoutChangeOb_LayerChanged@ILayoutChangeObserver@@UAEXV?$basic_string@DU?$char_traits@D@std@@V?$allocator@D@2@@std@@00@Z ; ILayoutChangeObserver::ILayoutChangeOb_LayerChanged
PUBLIC	?ILayoutChangeOb_PaneChanged@ILayoutChangeObserver@@UAEXV?$basic_string@DU?$char_traits@D@std@@V?$allocator@D@2@@std@@0@Z ; ILayoutChangeObserver::ILayoutChangeOb_PaneChanged
PUBLIC	?ILayoutChangeOb_ColorChanged@ILayoutChangeObserver@@UAEXXZ ; ILayoutChangeObserver::ILayoutChangeOb_ColorChanged
PUBLIC	?ILayoutChangeOb_ColorChanging@ILayoutChangeObserver@@UAEXXZ ; ILayoutChangeObserver::ILayoutChangeOb_ColorChanging
PUBLIC	?ILayoutChangeOb_UpdateLayout@ILayoutChangeObserver@@UAEXPAUHWND__@@@Z ; ILayoutChangeObserver::ILayoutChangeOb_UpdateLayout
PUBLIC	?ILayoutChangeOb_InitFinished@ILayoutChangeObserver@@UAEXXZ ; ILayoutChangeObserver::ILayoutChangeOb_InitFinished
PUBLIC	?ILayoutChangeOb_InitBegin@ILayoutChangeObserver@@UAEXXZ ; ILayoutChangeObserver::ILayoutChangeOb_InitBegin
PUBLIC	??0ILayoutChangeObserver@@QAE@XZ		; ILayoutChangeObserver::ILayoutChangeObserver
PUBLIC	??1ILayoutChangeObserver@@UAE@XZ		; ILayoutChangeObserver::~ILayoutChangeObserver
PUBLIC	?IPanelChangeOb_WindowClose@IPanelChangeObserver@@UAEXXZ ; IPanelChangeObserver::IPanelChangeOb_WindowClose
PUBLIC	?IPanelChangeOb_ToFullScreen@IPanelChangeObserver@@UAEXPAVCWnd@@@Z ; IPanelChangeObserver::IPanelChangeOb_ToFullScreen
PUBLIC	?IPanelChangeOb_ExitFullScreen@IPanelChangeObserver@@UAEXPAVCWnd@@@Z ; IPanelChangeObserver::IPanelChangeOb_ExitFullScreen
PUBLIC	??0IPanelChangeObserver@@QAE@XZ			; IPanelChangeObserver::IPanelChangeObserver
PUBLIC	??1IPanelChangeObserver@@UAE@XZ			; IPanelChangeObserver::~IPanelChangeObserver
PUBLIC	??0CPlayBoxDlg@@QAE@_NPAVCWnd@@@Z		; CPlayBoxDlg::CPlayBoxDlg
PUBLIC	?DoDataExchange@CPlayBoxDlg@@MAEXPAVCDataExchange@@@Z ; CPlayBoxDlg::DoDataExchange
PUBLIC	?OnConfigChange@CPlayBoxDlg@@MAEXABV?$basic_string@DU?$char_traits@D@std@@V?$allocator@D@2@@std@@@Z ; CPlayBoxDlg::OnConfigChange
PUBLIC	?OnInitDialog@CPlayBoxDlg@@MAEHXZ		; CPlayBoxDlg::OnInitDialog
PUBLIC	?OnCancel@CPlayBoxDlg@@MAEXXZ			; CPlayBoxDlg::OnCancel
PUBLIC	?OnOK@CPlayBoxDlg@@MAEXXZ			; CPlayBoxDlg::OnOK
PUBLIC	?PreTranslateMessage@CPlayBoxDlg@@MAEHPAUtagMSG@@@Z ; CPlayBoxDlg::PreTranslateMessage
EXTRN	?GetInterfaceMap@CWnd@@MBEPBUAFX_INTERFACEMAP@@XZ:NEAR ; CWnd::GetInterfaceMap
EXTRN	??_ECPlayBoxDlg@@UAEPAXI@Z:NEAR			; CPlayBoxDlg::`vector deleting destructor'
EXTRN	?EnsureStdObj@CWnd@@UAEJXZ:NEAR			; CWnd::EnsureStdObj
EXTRN	?get_accParent@CWnd@@UAEJPAPAUIDispatch@@@Z:NEAR ; CWnd::get_accParent
EXTRN	?get_accChildCount@CWnd@@UAEJPAJ@Z:NEAR		; CWnd::get_accChildCount
EXTRN	?IsInvokeAllowed@CCmdTarget@@UAEHJ@Z:NEAR	; CCmdTarget::IsInvokeAllowed
EXTRN	?get_accChild@CWnd@@UAEJUtagVARIANT@@PAPAUIDispatch@@@Z:NEAR ; CWnd::get_accChild
EXTRN	?get_accName@CWnd@@UAEJUtagVARIANT@@PAPA_W@Z:NEAR ; CWnd::get_accName
EXTRN	?get_accValue@CWnd@@UAEJUtagVARIANT@@PAPA_W@Z:NEAR ; CWnd::get_accValue
EXTRN	?GetDispatchIID@CCmdTarget@@UAEHPAU_GUID@@@Z:NEAR ; CCmdTarget::GetDispatchIID
EXTRN	?GetTypeInfoCount@CCmdTarget@@UAEIXZ:NEAR	; CCmdTarget::GetTypeInfoCount
EXTRN	?GetTypeLibCache@CCmdTarget@@UAEPAVCTypeLibCache@@XZ:NEAR ; CCmdTarget::GetTypeLibCache
EXTRN	?get_accDescription@CWnd@@UAEJUtagVARIANT@@PAPA_W@Z:NEAR ; CWnd::get_accDescription
EXTRN	?GetTypeLib@CCmdTarget@@UAEJKPAPAUITypeLib@@@Z:NEAR ; CCmdTarget::GetTypeLib
EXTRN	?get_accRole@CWnd@@UAEJUtagVARIANT@@PAU2@@Z:NEAR ; CWnd::get_accRole
EXTRN	?get_accState@CWnd@@UAEJUtagVARIANT@@PAU2@@Z:NEAR ; CWnd::get_accState
EXTRN	?get_accHelp@CWnd@@UAEJUtagVARIANT@@PAPA_W@Z:NEAR ; CWnd::get_accHelp
EXTRN	?get_accHelpTopic@CWnd@@UAEJPAPA_WUtagVARIANT@@PAJ@Z:NEAR ; CWnd::get_accHelpTopic
EXTRN	?get_accKeyboardShortcut@CWnd@@UAEJUtagVARIANT@@PAPA_W@Z:NEAR ; CWnd::get_accKeyboardShortcut
EXTRN	?get_accFocus@CWnd@@UAEJPAUtagVARIANT@@@Z:NEAR	; CWnd::get_accFocus
EXTRN	?get_accSelection@CWnd@@UAEJPAUtagVARIANT@@@Z:NEAR ; CWnd::get_accSelection
EXTRN	?get_accDefaultAction@CWnd@@UAEJUtagVARIANT@@PAPA_W@Z:NEAR ; CWnd::get_accDefaultAction
EXTRN	?GetCommandMap@CCmdTarget@@MBEPBUAFX_OLECMDMAP@@XZ:NEAR ; CCmdTarget::GetCommandMap
EXTRN	?accSelect@CWnd@@UAEJJUtagVARIANT@@@Z:NEAR	; CWnd::accSelect
EXTRN	?accLocation@CWnd@@UAEJPAJ000UtagVARIANT@@@Z:NEAR ; CWnd::accLocation
EXTRN	?GetDispatchMap@CCmdTarget@@MBEPBUAFX_DISPMAP@@XZ:NEAR ; CCmdTarget::GetDispatchMap
EXTRN	?accNavigate@CWnd@@UAEJJUtagVARIANT@@PAU2@@Z:NEAR ; CWnd::accNavigate
EXTRN	?accHitTest@CWnd@@UAEJJJPAUtagVARIANT@@@Z:NEAR	; CWnd::accHitTest
EXTRN	?GetConnectionMap@CCmdTarget@@MBEPBUAFX_CONNECTIONMAP@@XZ:NEAR ; CCmdTarget::GetConnectionMap
EXTRN	?accDoDefaultAction@CWnd@@UAEJUtagVARIANT@@@Z:NEAR ; CWnd::accDoDefaultAction
EXTRN	?put_accName@CWnd@@UAEJUtagVARIANT@@PA_W@Z:NEAR	; CWnd::put_accName
EXTRN	?put_accValue@CWnd@@UAEJUtagVARIANT@@PA_W@Z:NEAR ; CWnd::put_accValue
EXTRN	?SetProxy@CWnd@@UAEJPAUIAccessibleProxy@@@Z:NEAR ; CWnd::SetProxy
EXTRN	?CreateAccessibleProxy@CWnd@@UAEJIJPAJ@Z:NEAR	; CWnd::CreateAccessibleProxy
EXTRN	?GetEventSinkMap@CCmdTarget@@MBEPBUAFX_EVENTSINKMAP@@XZ:NEAR ; CCmdTarget::GetEventSinkMap
EXTRN	?OnCreateAggregates@CCmdTarget@@UAEHXZ:NEAR	; CCmdTarget::OnCreateAggregates
EXTRN	?OnCommand@CWnd@@MAEHIJ@Z:NEAR			; CWnd::OnCommand
EXTRN	?GetInterfaceHook@CCmdTarget@@UAEPAUIUnknown@@PBX@Z:NEAR ; CCmdTarget::GetInterfaceHook
EXTRN	?OnNotify@CWnd@@MAEHIJPAJ@Z:NEAR		; CWnd::OnNotify
EXTRN	?GetExtraConnectionPoints@CCmdTarget@@MAEHPAVCPtrArray@@@Z:NEAR ; CCmdTarget::GetExtraConnectionPoints
EXTRN	?GetConnectionHook@CCmdTarget@@MAEPAUIConnectionPoint@@ABU_GUID@@@Z:NEAR ; CCmdTarget::GetConnectionHook
EXTRN	?AfxGetApp@@YGPAVCWinApp@@XZ:NEAR		; AfxGetApp
EXTRN	??0CPoint@@QAE@XZ:NEAR				; CPoint::CPoint
EXTRN	??0CRect@@QAE@XZ:NEAR				; CRect::CRect
EXTRN	?PreSubclassWindow@CWnd@@UAEXXZ:NEAR		; CWnd::PreSubclassWindow
EXTRN	__imp_??0?$basic_string@DU?$char_traits@D@std@@V?$allocator@D@2@@std@@QAE@XZ:NEAR
EXTRN	?Create@CWnd@@UAEHPBD0KABUtagRECT@@PAV1@IPAUCCreateContext@@@Z:NEAR ; CWnd::Create
EXTRN	?CreateEx@CWnd@@UAEHKPBD0KHHHHPAUHWND__@@PAUHMENU__@@PAX@Z:NEAR ; CWnd::CreateEx
EXTRN	?CreateEx@CWnd@@UAEHKPBD0KABUtagRECT@@PAV1@IPAX@Z:NEAR ; CWnd::CreateEx
EXTRN	??2CObject@@SGPAXIPBDH@Z:NEAR			; CObject::operator new
EXTRN	??3CObject@@SGXPAXPBDH@Z:NEAR			; CObject::operator delete
EXTRN	__imp_??1?$basic_string@DU?$char_traits@D@std@@V?$allocator@D@2@@std@@QAE@XZ:NEAR
EXTRN	?Serialize@CObject@@UAEXAAVCArchive@@@Z:NEAR	; CObject::Serialize
EXTRN	?DestroyWindow@CWnd@@UAEHXZ:NEAR		; CWnd::DestroyWindow
EXTRN	?PreCreateWindow@CWnd@@UAEHAAUtagCREATESTRUCTA@@@Z:NEAR ; CWnd::PreCreateWindow
EXTRN	?CalcWindowRect@CWnd@@UAEXPAUtagRECT@@I@Z:NEAR	; CWnd::CalcWindowRect
EXTRN	?LoadIconA@CWinApp@@QBEPAUHICON__@@I@Z:NEAR	; CWinApp::LoadIconA
EXTRN	?GetSuperWndProcAddr@CWnd@@MAEPAP6GJPAUHWND__@@IIJ@ZXZ:NEAR ; CWnd::GetSuperWndProcAddr
EXTRN	?BeginModalState@CWnd@@UAEXXZ:NEAR		; CWnd::BeginModalState
EXTRN	?EndModalState@CWnd@@UAEXXZ:NEAR		; CWnd::EndModalState
EXTRN	?OnAmbientProperty@CWnd@@UAEHPAVCOleControlSite@@JPAUtagVARIANT@@@Z:NEAR ; CWnd::OnAmbientProperty
EXTRN	?WindowProc@CWnd@@MAEJIIJ@Z:NEAR		; CWnd::WindowProc
EXTRN	?OnWndMsg@CWnd@@MAEHIIJPAJ@Z:NEAR		; CWnd::OnWndMsg
EXTRN	?DefWindowProcA@CWnd@@MAEJIIJ@Z:NEAR		; CWnd::DefWindowProcA
EXTRN	?PostNcDestroy@CWnd@@MAEXXZ:NEAR		; CWnd::PostNcDestroy
EXTRN	?OnChildNotify@CWnd@@MAEHIIJPAJ@Z:NEAR		; CWnd::OnChildNotify
EXTRN	?IsFrameWnd@CWnd@@UBEHXZ:NEAR			; CWnd::IsFrameWnd
EXTRN	?OnFinalRelease@CWnd@@UAEXXZ:NEAR		; CWnd::OnFinalRelease
EXTRN	?CreateControlContainer@CWnd@@MAEHPAPAVCOleControlContainer@@@Z:NEAR ; CWnd::CreateControlContainer
EXTRN	?CreateControlSite@CWnd@@MAEHPAVCOleControlContainer@@PAPAVCOleControlSite@@IABU_GUID@@@Z:NEAR ; CWnd::CreateControlSite
EXTRN	?GetRuntimeClass@CDialog@@UBEPAUCRuntimeClass@@XZ:NEAR ; CDialog::GetRuntimeClass
EXTRN	?Create@CDialog@@UAEHPBDPAVCWnd@@@Z:NEAR	; CDialog::Create
EXTRN	?Create@CDialog@@UAEHIPAVCWnd@@@Z:NEAR		; CDialog::Create
EXTRN	?CreateIndirect@CDialog@@UAEHPBUDLGTEMPLATE@@PAVCWnd@@PAX@Z:NEAR ; CDialog::CreateIndirect
EXTRN	?CreateIndirect@CDialog@@UAEHPAXPAVCWnd@@@Z:NEAR ; CDialog::CreateIndirect
EXTRN	?OnToolHitTest@CWnd@@UBEHVCPoint@@PAUtagTOOLINFOA@@@Z:NEAR ; CWnd::OnToolHitTest
EXTRN	??0CDialog@@QAE@IPAVCWnd@@@Z:NEAR		; CDialog::CDialog
EXTRN	??0CTrayIcon@@QAE@I@Z:NEAR			; CTrayIcon::CTrayIcon
EXTRN	?DoModal@CDialog@@UAEHXZ:NEAR			; CDialog::DoModal
EXTRN	?OnSetFont@CDialog@@UAEXPAVCFont@@@Z:NEAR	; CDialog::OnSetFont
EXTRN	??1CDialog@@UAE@XZ:NEAR				; CDialog::~CDialog
EXTRN	?AssertValid@CDialog@@UBEXXZ:NEAR		; CDialog::AssertValid
EXTRN	?Dump@CDialog@@UBEXAAVCDumpContext@@@Z:NEAR	; CDialog::Dump
EXTRN	?OnCmdMsg@CDialog@@UAEHIHPAXPAUAFX_CMDHANDLERINFO@@@Z:NEAR ; CDialog::OnCmdMsg
EXTRN	?CheckAutoCenter@CDialog@@UAEHXZ:NEAR		; CDialog::CheckAutoCenter
EXTRN	?SetOccDialogInfo@CDialog@@MAEHPAU_AFX_OCC_DIALOG_INFO@@@Z:NEAR ; CDialog::SetOccDialogInfo
EXTRN	?PreInitDialog@CDialog@@MAEXXZ:NEAR		; CDialog::PreInitDialog
EXTRN	__except_list:DWORD
EXTRN	___CxxFrameHandler:NEAR
EXTRN	?GetScrollBarCtrl@CWnd@@UBEPAVCScrollBar@@H@Z:NEAR ; CWnd::GetScrollBarCtrl
EXTRN	?WinHelpA@CWnd@@UAEXKI@Z:NEAR			; CWnd::WinHelpA
EXTRN	?HtmlHelpA@CWnd@@UAEXKI@Z:NEAR			; CWnd::HtmlHelpA
EXTRN	??_7type_info@@6B@:QWORD			; type_info::`vftable'
EXTRN	?WinHelpInternal@CWnd@@UAEXKI@Z:NEAR		; CWnd::WinHelpInternal
EXTRN	__imp__GetTickCount@0:NEAR
EXTRN	?ContinueModal@CWnd@@UAEHXZ:NEAR		; CWnd::ContinueModal
EXTRN	?EndModalLoop@CWnd@@UAEXH@Z:NEAR		; CWnd::EndModalLoop
xdata$x	SEGMENT
$T199520 DD	0ffffffffH
	DD	FLAT:$L199507
	DD	00H
	DD	FLAT:$L199508
	DD	01H
	DD	FLAT:$L199509
	DD	02H
	DD	FLAT:$L199510
	DD	03H
	DD	FLAT:$L199511
	DD	04H
	DD	FLAT:$L199512
	DD	05H
	DD	FLAT:$L199513
$T199517 DD	019930520H
	DD	07H
	DD	FLAT:$T199520
	DD	2 DUP(00H)
	DD	2 DUP(00H)
xdata$x	ENDS
;	COMDAT ??_7CPlayBoxDlg@@6BCDialog@@@
; File d:\boxgit\playbox\playbox\dev\prj\playbox\playboxdlg.cpp
CONST	SEGMENT
??_7CPlayBoxDlg@@6BCDialog@@@ DD FLAT:??_R4CPlayBoxDlg@@6BCDialog@@@ ; CPlayBoxDlg::`vftable'
	DD	FLAT:?GetRuntimeClass@CDialog@@UBEPAUCRuntimeClass@@XZ
	DD	FLAT:??_ECPlayBoxDlg@@UAEPAXI@Z
	DD	FLAT:?Serialize@CObject@@UAEXAAVCArchive@@@Z
	DD	FLAT:?AssertValid@CDialog@@UBEXXZ
	DD	FLAT:?Dump@CDialog@@UBEXAAVCDumpContext@@@Z
	DD	FLAT:?OnCmdMsg@CDialog@@UAEHIHPAXPAUAFX_CMDHANDLERINFO@@@Z
	DD	FLAT:?OnFinalRelease@CWnd@@UAEXXZ
	DD	FLAT:?IsInvokeAllowed@CCmdTarget@@UAEHJ@Z
	DD	FLAT:?GetDispatchIID@CCmdTarget@@UAEHPAU_GUID@@@Z
	DD	FLAT:?GetTypeInfoCount@CCmdTarget@@UAEIXZ
	DD	FLAT:?GetTypeLibCache@CCmdTarget@@UAEPAVCTypeLibCache@@XZ
	DD	FLAT:?GetTypeLib@CCmdTarget@@UAEJKPAPAUITypeLib@@@Z
	DD	FLAT:?GetMessageMap@CPlayBoxDlg@@MBEPBUAFX_MSGMAP@@XZ
	DD	FLAT:?GetCommandMap@CCmdTarget@@MBEPBUAFX_OLECMDMAP@@XZ
	DD	FLAT:?GetDispatchMap@CCmdTarget@@MBEPBUAFX_DISPMAP@@XZ
	DD	FLAT:?GetConnectionMap@CCmdTarget@@MBEPBUAFX_CONNECTIONMAP@@XZ
	DD	FLAT:?GetInterfaceMap@CWnd@@MBEPBUAFX_INTERFACEMAP@@XZ
	DD	FLAT:?GetEventSinkMap@CCmdTarget@@MBEPBUAFX_EVENTSINKMAP@@XZ
	DD	FLAT:?OnCreateAggregates@CCmdTarget@@UAEHXZ
	DD	FLAT:?GetInterfaceHook@CCmdTarget@@UAEPAUIUnknown@@PBX@Z
	DD	FLAT:?GetExtraConnectionPoints@CCmdTarget@@MAEHPAVCPtrArray@@@Z
	DD	FLAT:?GetConnectionHook@CCmdTarget@@MAEPAUIConnectionPoint@@ABU_GUID@@@Z
	DD	FLAT:?PreSubclassWindow@CWnd@@UAEXXZ
	DD	FLAT:?Create@CWnd@@UAEHPBD0KABUtagRECT@@PAV1@IPAUCCreateContext@@@Z
	DD	FLAT:?CreateEx@CWnd@@UAEHKPBD0KABUtagRECT@@PAV1@IPAX@Z
	DD	FLAT:?CreateEx@CWnd@@UAEHKPBD0KHHHHPAUHWND__@@PAUHMENU__@@PAX@Z
	DD	FLAT:?DestroyWindow@CWnd@@UAEHXZ
	DD	FLAT:?PreCreateWindow@CWnd@@UAEHAAUtagCREATESTRUCTA@@@Z
	DD	FLAT:?CalcWindowRect@CWnd@@UAEXPAUtagRECT@@I@Z
	DD	FLAT:?OnToolHitTest@CWnd@@UBEHVCPoint@@PAUtagTOOLINFOA@@@Z
	DD	FLAT:?GetScrollBarCtrl@CWnd@@UBEPAVCScrollBar@@H@Z
	DD	FLAT:?WinHelpA@CWnd@@UAEXKI@Z
	DD	FLAT:?HtmlHelpA@CWnd@@UAEXKI@Z
	DD	FLAT:?WinHelpInternal@CWnd@@UAEXKI@Z
	DD	FLAT:?ContinueModal@CWnd@@UAEHXZ
	DD	FLAT:?EndModalLoop@CWnd@@UAEXH@Z
	DD	FLAT:?EnsureStdObj@CWnd@@UAEJXZ
	DD	FLAT:?get_accParent@CWnd@@UAEJPAPAUIDispatch@@@Z
	DD	FLAT:?get_accChildCount@CWnd@@UAEJPAJ@Z
	DD	FLAT:?get_accChild@CWnd@@UAEJUtagVARIANT@@PAPAUIDispatch@@@Z
	DD	FLAT:?get_accName@CWnd@@UAEJUtagVARIANT@@PAPA_W@Z
	DD	FLAT:?get_accValue@CWnd@@UAEJUtagVARIANT@@PAPA_W@Z
	DD	FLAT:?get_accDescription@CWnd@@UAEJUtagVARIANT@@PAPA_W@Z
	DD	FLAT:?get_accRole@CWnd@@UAEJUtagVARIANT@@PAU2@@Z
	DD	FLAT:?get_accState@CWnd@@UAEJUtagVARIANT@@PAU2@@Z
	DD	FLAT:?get_accHelp@CWnd@@UAEJUtagVARIANT@@PAPA_W@Z
	DD	FLAT:?get_accHelpTopic@CWnd@@UAEJPAPA_WUtagVARIANT@@PAJ@Z
	DD	FLAT:?get_accKeyboardShortcut@CWnd@@UAEJUtagVARIANT@@PAPA_W@Z
	DD	FLAT:?get_accFocus@CWnd@@UAEJPAUtagVARIANT@@@Z
	DD	FLAT:?get_accSelection@CWnd@@UAEJPAUtagVARIANT@@@Z
	DD	FLAT:?get_accDefaultAction@CWnd@@UAEJUtagVARIANT@@PAPA_W@Z
	DD	FLAT:?accSelect@CWnd@@UAEJJUtagVARIANT@@@Z
	DD	FLAT:?accLocation@CWnd@@UAEJPAJ000UtagVARIANT@@@Z
	DD	FLAT:?accNavigate@CWnd@@UAEJJUtagVARIANT@@PAU2@@Z
	DD	FLAT:?accHitTest@CWnd@@UAEJJJPAUtagVARIANT@@@Z
	DD	FLAT:?accDoDefaultAction@CWnd@@UAEJUtagVARIANT@@@Z
	DD	FLAT:?put_accName@CWnd@@UAEJUtagVARIANT@@PA_W@Z
	DD	FLAT:?put_accValue@CWnd@@UAEJUtagVARIANT@@PA_W@Z
	DD	FLAT:?SetProxy@CWnd@@UAEJPAUIAccessibleProxy@@@Z
	DD	FLAT:?CreateAccessibleProxy@CWnd@@UAEJIJPAJ@Z
	DD	FLAT:?OnCommand@CWnd@@MAEHIJ@Z
	DD	FLAT:?OnNotify@CWnd@@MAEHIJPAJ@Z
	DD	FLAT:?GetSuperWndProcAddr@CWnd@@MAEPAP6GJPAUHWND__@@IIJ@ZXZ
	DD	FLAT:?DoDataExchange@CPlayBoxDlg@@MAEXPAVCDataExchange@@@Z
	DD	FLAT:?BeginModalState@CWnd@@UAEXXZ
	DD	FLAT:?EndModalState@CWnd@@UAEXXZ
	DD	FLAT:?PreTranslateMessage@CPlayBoxDlg@@MAEHPAUtagMSG@@@Z
	DD	FLAT:?OnAmbientProperty@CWnd@@UAEHPAVCOleControlSite@@JPAUtagVARIANT@@@Z
	DD	FLAT:?WindowProc@CWnd@@MAEJIIJ@Z
	DD	FLAT:?OnWndMsg@CWnd@@MAEHIIJPAJ@Z
	DD	FLAT:?DefWindowProcA@CWnd@@MAEJIIJ@Z
	DD	FLAT:?PostNcDestroy@CWnd@@MAEXXZ
	DD	FLAT:?OnChildNotify@CWnd@@MAEHIIJPAJ@Z
	DD	FLAT:?CheckAutoCenter@CDialog@@UAEHXZ
	DD	FLAT:?IsFrameWnd@CWnd@@UBEHXZ
	DD	FLAT:?CreateControlContainer@CWnd@@MAEHPAPAVCOleControlContainer@@@Z
	DD	FLAT:?CreateControlSite@CWnd@@MAEHPAVCOleControlContainer@@PAPAVCOleControlSite@@IABU_GUID@@@Z
	DD	FLAT:?SetOccDialogInfo@CDialog@@MAEHPAU_AFX_OCC_DIALOG_INFO@@@Z
	DD	FLAT:?Create@CDialog@@UAEHIPAVCWnd@@@Z
	DD	FLAT:?Create@CDialog@@UAEHPBDPAVCWnd@@@Z
	DD	FLAT:?CreateIndirect@CDialog@@UAEHPAXPAVCWnd@@@Z
	DD	FLAT:?CreateIndirect@CDialog@@UAEHPBUDLGTEMPLATE@@PAVCWnd@@PAX@Z
	DD	FLAT:?DoModal@CDialog@@UAEHXZ
	DD	FLAT:?OnInitDialog@CPlayBoxDlg@@MAEHXZ
	DD	FLAT:?OnSetFont@CDialog@@UAEXPAVCFont@@@Z
	DD	FLAT:?OnOK@CPlayBoxDlg@@MAEXXZ
	DD	FLAT:?OnCancel@CPlayBoxDlg@@MAEXXZ
	DD	FLAT:?PreInitDialog@CDialog@@MAEXXZ
CONST	ENDS
;	COMDAT ??_7CPlayBoxDlg@@6BAfxUserConfig_Observer@@@
CONST	SEGMENT
??_7CPlayBoxDlg@@6BAfxUserConfig_Observer@@@ DD FLAT:??_R4CPlayBoxDlg@@6BAfxUserConfig_Observer@@@ ; CPlayBoxDlg::`vftable'
	DD	FLAT:?OnConfigChange@CPlayBoxDlg@@MAEXABV?$basic_string@DU?$char_traits@D@std@@V?$allocator@D@2@@std@@@Z
CONST	ENDS
;	COMDAT ??_7CPlayBoxDlg@@6BILayoutChangeObserver@@@
CONST	SEGMENT
??_7CPlayBoxDlg@@6BILayoutChangeObserver@@@ DD FLAT:??_R4CPlayBoxDlg@@6BILayoutChangeObserver@@@ ; CPlayBoxDlg::`vftable'
	DD	FLAT:??_ECPlayBoxDlg@@WHI@AEPAXI@Z
	DD	FLAT:?ILayoutChangeOb_LayerChanged@ILayoutChangeObserver@@UAEXV?$basic_string@DU?$char_traits@D@std@@V?$allocator@D@2@@std@@00@Z
	DD	FLAT:?ILayoutChangeOb_PaneChanged@ILayoutChangeObserver@@UAEXV?$basic_string@DU?$char_traits@D@std@@V?$allocator@D@2@@std@@0@Z
	DD	FLAT:?ILayoutChangeOb_SkinChanged@CPlayBoxDlg@@UAEXV?$basic_string@DU?$char_traits@D@std@@V?$allocator@D@2@@std@@0@Z
	DD	FLAT:?ILayoutChangeOb_ColorChanged@ILayoutChangeObserver@@UAEXXZ
	DD	FLAT:?ILayoutChangeOb_ColorChanging@ILayoutChangeObserver@@UAEXXZ
	DD	FLAT:?ILayoutChangeOb_UpdateLayout@ILayoutChangeObserver@@UAEXPAUHWND__@@@Z
	DD	FLAT:?ILayoutChangeOb_InitFinished@ILayoutChangeObserver@@UAEXXZ
	DD	FLAT:?ILayoutChangeOb_InitBegin@ILayoutChangeObserver@@UAEXXZ
CONST	ENDS
;	COMDAT ??_7CPlayBoxDlg@@6BIPanelChangeObserver@@@
CONST	SEGMENT
??_7CPlayBoxDlg@@6BIPanelChangeObserver@@@ DD FLAT:??_R4CPlayBoxDlg@@6BIPanelChangeObserver@@@ ; CPlayBoxDlg::`vftable'
	DD	FLAT:??_ECPlayBoxDlg@@WHM@AEPAXI@Z
	DD	FLAT:?IPanelChangeOb_WindowMax@CPlayBoxDlg@@UAEXXZ
	DD	FLAT:?IPanelChangeOb_WindowMin@CPlayBoxDlg@@UAEXXZ
	DD	FLAT:?IPanelChangeOb_WindowRestore@CPlayBoxDlg@@UAEXXZ
	DD	FLAT:?IPanelChangeOb_WindowClose@IPanelChangeObserver@@UAEXXZ
	DD	FLAT:?IPanelChangeOb_ToFullScreen@IPanelChangeObserver@@UAEXPAVCWnd@@@Z
	DD	FLAT:?IPanelChangeOb_ExitFullScreen@IPanelChangeObserver@@UAEXPAVCWnd@@@Z
CONST	ENDS
;	COMDAT ??_R4CPlayBoxDlg@@6BCDialog@@@
rdata$r	SEGMENT
??_R4CPlayBoxDlg@@6BCDialog@@@ DD 00H			; CPlayBoxDlg::`RTTI Complete Object Locator'
	DD	00H
	DD	00H
	DD	FLAT:??_R0?AVCPlayBoxDlg@@@8
	DD	FLAT:??_R3CPlayBoxDlg@@8
rdata$r	ENDS
;	COMDAT ??_R0?AVCPlayBoxDlg@@@8
_DATA	SEGMENT
??_R0?AVCPlayBoxDlg@@@8 DD FLAT:??_7type_info@@6B@	; CPlayBoxDlg `RTTI Type Descriptor'
	DD	00H
	DB	'.?AVCPlayBoxDlg@@', 00H
_DATA	ENDS
;	COMDAT ??_R3CPlayBoxDlg@@8
rdata$r	SEGMENT
??_R3CPlayBoxDlg@@8 DD 00H				; CPlayBoxDlg::`RTTI Class Hierarchy Descriptor'
	DD	05H
	DD	0aH
	DD	FLAT:??_R2CPlayBoxDlg@@8
rdata$r	ENDS
;	COMDAT ??_R2CPlayBoxDlg@@8
rdata$r	SEGMENT
??_R2CPlayBoxDlg@@8 DD FLAT:??_R1A@?0A@A@CPlayBoxDlg@@8	; CPlayBoxDlg::`RTTI Base Class Array'
	DD	FLAT:??_R1A@?0A@A@CDialog@@8
	DD	FLAT:??_R1A@?0A@A@CWnd@@8
	DD	FLAT:??_R1A@?0A@A@CCmdTarget@@8
	DD	FLAT:??_R1A@?0A@A@CObject@@8
	DD	FLAT:??_R1HE@?0A@A@AfxUserConfig_Observer@@8
	DD	FLAT:??_R1HI@?0A@A@ILayoutChangeObserver@@8
	DD	FLAT:??_R1HI@?0A@1IMessageObserver@@8
	DD	FLAT:??_R1HM@?0A@A@IPanelChangeObserver@@8
	DD	FLAT:??_R1HM@?0A@1IMessageObserver@@8
rdata$r	ENDS
;	COMDAT ??_R1A@?0A@A@CPlayBoxDlg@@8
rdata$r	SEGMENT
??_R1A@?0A@A@CPlayBoxDlg@@8 DD FLAT:??_R0?AVCPlayBoxDlg@@@8 ; CPlayBoxDlg::`RTTI Base Class Descriptor at (0,-1,0,0)'
	DD	09H
	DD	00H
	DD	0ffffffffH
	DD	00H
	DD	00H
rdata$r	ENDS
;	COMDAT ??_R1A@?0A@A@CDialog@@8
rdata$r	SEGMENT
??_R1A@?0A@A@CDialog@@8 DD FLAT:??_R0?AVCDialog@@@8	; CDialog::`RTTI Base Class Descriptor at (0,-1,0,0)'
	DD	03H
	DD	00H
	DD	0ffffffffH
	DD	00H
	DD	00H
rdata$r	ENDS
;	COMDAT ??_R0?AVCDialog@@@8
_DATA	SEGMENT
??_R0?AVCDialog@@@8 DD FLAT:??_7type_info@@6B@		; CDialog `RTTI Type Descriptor'
	DD	00H
	DB	'.?AVCDialog@@', 00H
_DATA	ENDS
;	COMDAT ??_R1A@?0A@A@CWnd@@8
rdata$r	SEGMENT
??_R1A@?0A@A@CWnd@@8 DD FLAT:??_R0?AVCWnd@@@8		; CWnd::`RTTI Base Class Descriptor at (0,-1,0,0)'
	DD	02H
	DD	00H
	DD	0ffffffffH
	DD	00H
	DD	00H
rdata$r	ENDS
;	COMDAT ??_R0?AVCWnd@@@8
_DATA	SEGMENT
??_R0?AVCWnd@@@8 DD FLAT:??_7type_info@@6B@		; CWnd `RTTI Type Descriptor'
	DD	00H
	DB	'.?AVCWnd@@', 00H
_DATA	ENDS
;	COMDAT ??_R1A@?0A@A@CCmdTarget@@8
rdata$r	SEGMENT
??_R1A@?0A@A@CCmdTarget@@8 DD FLAT:??_R0?AVCCmdTarget@@@8 ; CCmdTarget::`RTTI Base Class Descriptor at (0,-1,0,0)'
	DD	01H
	DD	00H
	DD	0ffffffffH
	DD	00H
	DD	00H
rdata$r	ENDS
;	COMDAT ??_R0?AVCCmdTarget@@@8
_DATA	SEGMENT
??_R0?AVCCmdTarget@@@8 DD FLAT:??_7type_info@@6B@	; CCmdTarget `RTTI Type Descriptor'
	DD	00H
	DB	'.?AVCCmdTarget@@', 00H
_DATA	ENDS
;	COMDAT ??_R1A@?0A@A@CObject@@8
rdata$r	SEGMENT
??_R1A@?0A@A@CObject@@8 DD FLAT:??_R0?AVCObject@@@8	; CObject::`RTTI Base Class Descriptor at (0,-1,0,0)'
	DD	00H
	DD	00H
	DD	0ffffffffH
	DD	00H
	DD	00H
rdata$r	ENDS
;	COMDAT ??_R0?AVCObject@@@8
_DATA	SEGMENT
??_R0?AVCObject@@@8 DD FLAT:??_7type_info@@6B@		; CObject `RTTI Type Descriptor'
	DD	00H
	DB	'.?AVCObject@@', 00H
_DATA	ENDS
;	COMDAT ??_R1HE@?0A@A@AfxUserConfig_Observer@@8
rdata$r	SEGMENT
??_R1HE@?0A@A@AfxUserConfig_Observer@@8 DD FLAT:??_R0?AVAfxUserConfig_Observer@@@8 ; AfxUserConfig_Observer::`RTTI Base Class Descriptor at (116,-1,0,0)'
	DD	00H
	DD	074H
	DD	0ffffffffH
	DD	00H
	DD	00H
rdata$r	ENDS
;	COMDAT ??_R0?AVAfxUserConfig_Observer@@@8
_DATA	SEGMENT
??_R0?AVAfxUserConfig_Observer@@@8 DD FLAT:??_7type_info@@6B@ ; AfxUserConfig_Observer `RTTI Type Descriptor'
	DD	00H
	DB	'.?AVAfxUserConfig_Observer@@', 00H
_DATA	ENDS
;	COMDAT ??_R1HI@?0A@A@ILayoutChangeObserver@@8
rdata$r	SEGMENT
??_R1HI@?0A@A@ILayoutChangeObserver@@8 DD FLAT:??_R0?AVILayoutChangeObserver@@@8 ; ILayoutChangeObserver::`RTTI Base Class Descriptor at (120,-1,0,0)'
	DD	01H
	DD	078H
	DD	0ffffffffH
	DD	00H
	DD	00H
rdata$r	ENDS
;	COMDAT ??_R0?AVILayoutChangeObserver@@@8
_DATA	SEGMENT
??_R0?AVILayoutChangeObserver@@@8 DD FLAT:??_7type_info@@6B@ ; ILayoutChangeObserver `RTTI Type Descriptor'
	DD	00H
	DB	'.?AVILayoutChangeObserver@@', 00H
_DATA	ENDS
;	COMDAT ??_R1HI@?0A@1IMessageObserver@@8
rdata$r	SEGMENT
??_R1HI@?0A@1IMessageObserver@@8 DD FLAT:??_R0?AVIMessageObserver@@@8 ; IMessageObserver::`RTTI Base Class Descriptor at (120,-1,0,2)'
	DD	00H
	DD	078H
	DD	0ffffffffH
	DD	00H
	DD	02H
rdata$r	ENDS
;	COMDAT ??_R0?AVIMessageObserver@@@8
_DATA	SEGMENT
??_R0?AVIMessageObserver@@@8 DD FLAT:??_7type_info@@6B@	; IMessageObserver `RTTI Type Descriptor'
	DD	00H
	DB	'.?AVIMessageObserver@@', 00H
	ORG $-31
	DD	FLAT:??_7type_info@@6B@
	DD	00H
	DB	'.?AVIMessageObserver@@', 00H
_DATA	ENDS
;	COMDAT ??_R1HM@?0A@A@IPanelChangeObserver@@8
rdata$r	SEGMENT
??_R1HM@?0A@A@IPanelChangeObserver@@8 DD FLAT:??_R0?AVIPanelChangeObserver@@@8 ; IPanelChangeObserver::`RTTI Base Class Descriptor at (124,-1,0,0)'
	DD	01H
	DD	07cH
	DD	0ffffffffH
	DD	00H
	DD	00H
rdata$r	ENDS
;	COMDAT ??_R0?AVIPanelChangeObserver@@@8
_DATA	SEGMENT
??_R0?AVIPanelChangeObserver@@@8 DD FLAT:??_7type_info@@6B@ ; IPanelChangeObserver `RTTI Type Descriptor'
	DD	00H
	DB	'.?AVIPanelChangeObserver@@', 00H
_DATA	ENDS
;	COMDAT ??_R1HM@?0A@1IMessageObserver@@8
rdata$r	SEGMENT
??_R1HM@?0A@1IMessageObserver@@8 DD FLAT:??_R0?AVIMessageObserver@@@8 ; IMessageObserver::`RTTI Base Class Descriptor at (124,-1,0,2)'
	DD	00H
	DD	07cH
	DD	0ffffffffH
	DD	00H
	DD	02H
rdata$r	ENDS
;	COMDAT ??_R4CPlayBoxDlg@@6BAfxUserConfig_Observer@@@
rdata$r	SEGMENT
??_R4CPlayBoxDlg@@6BAfxUserConfig_Observer@@@ DD 00H	; CPlayBoxDlg::`RTTI Complete Object Locator'
	DD	074H
	DD	00H
	DD	FLAT:??_R0?AVCPlayBoxDlg@@@8
	DD	FLAT:??_R3CPlayBoxDlg@@8
rdata$r	ENDS
;	COMDAT ??_R4CPlayBoxDlg@@6BILayoutChangeObserver@@@
rdata$r	SEGMENT
??_R4CPlayBoxDlg@@6BILayoutChangeObserver@@@ DD 00H	; CPlayBoxDlg::`RTTI Complete Object Locator'
	DD	078H
	DD	00H
	DD	FLAT:??_R0?AVCPlayBoxDlg@@@8
	DD	FLAT:??_R3CPlayBoxDlg@@8
rdata$r	ENDS
;	COMDAT ??_R4CPlayBoxDlg@@6BIPanelChangeObserver@@@
rdata$r	SEGMENT
??_R4CPlayBoxDlg@@6BIPanelChangeObserver@@@ DD 00H	; CPlayBoxDlg::`RTTI Complete Object Locator'
	DD	07cH
	DD	00H
	DD	FLAT:??_R0?AVCPlayBoxDlg@@@8
	DD	FLAT:??_R3CPlayBoxDlg@@8
; Function compile flags: /Odt /RTCsu
rdata$r	ENDS
_TEXT	SEGMENT
tv160 = -28						; size = 4
$T199504 = -24						; size = 4
$T199503 = -20						; size = 4
_this$ = -16						; size = 4
__$EHRec$ = -12						; size = 12
_bStartupRun$ = 8					; size = 1
_pParent$ = 12						; size = 4
??0CPlayBoxDlg@@QAE@_NPAVCWnd@@@Z PROC NEAR		; CPlayBoxDlg::CPlayBoxDlg
; _this$ = ecx

; 38   : {

  00000	55		 push	 ebp
  00001	8b ec		 mov	 ebp, esp
  00003	6a ff		 push	 -1
  00005	68 00 00 00 00	 push	 __ehhandler$??0CPlayBoxDlg@@QAE@_NPAVCWnd@@@Z
  0000a	64 a1 00 00 00
	00		 mov	 eax, DWORD PTR fs:__except_list
  00010	50		 push	 eax
  00011	64 89 25 00 00
	00 00		 mov	 DWORD PTR fs:__except_list, esp
  00018	83 ec 10	 sub	 esp, 16			; 00000010H
  0001b	56		 push	 esi
  0001c	b8 cc cc cc cc	 mov	 eax, -858993460		; ccccccccH
  00021	89 45 e4	 mov	 DWORD PTR [ebp-28], eax
  00024	89 45 e8	 mov	 DWORD PTR [ebp-24], eax
  00027	89 45 ec	 mov	 DWORD PTR [ebp-20], eax
  0002a	89 45 f0	 mov	 DWORD PTR [ebp-16], eax
  0002d	89 4d f0	 mov	 DWORD PTR _this$[ebp], ecx
  00030	8b 45 0c	 mov	 eax, DWORD PTR _pParent$[ebp]
  00033	50		 push	 eax
  00034	6a 66		 push	 102			; 00000066H
  00036	8b 4d f0	 mov	 ecx, DWORD PTR _this$[ebp]
  00039	e8 00 00 00 00	 call	 ??0CDialog@@QAE@IPAVCWnd@@@Z ; CDialog::CDialog
  0003e	c7 45 fc 00 00
	00 00		 mov	 DWORD PTR __$EHRec$[ebp+8], 0
  00045	8b 4d f0	 mov	 ecx, DWORD PTR _this$[ebp]
  00048	83 c1 74	 add	 ecx, 116		; 00000074H
  0004b	e8 00 00 00 00	 call	 ??0AfxUserConfig_Observer@@QAE@XZ
  00050	8b 4d f0	 mov	 ecx, DWORD PTR _this$[ebp]
  00053	83 c1 78	 add	 ecx, 120		; 00000078H
  00056	e8 00 00 00 00	 call	 ??0ILayoutChangeObserver@@QAE@XZ
  0005b	c6 45 fc 01	 mov	 BYTE PTR __$EHRec$[ebp+8], 1
  0005f	8b 4d f0	 mov	 ecx, DWORD PTR _this$[ebp]
  00062	83 c1 7c	 add	 ecx, 124		; 0000007cH
  00065	e8 00 00 00 00	 call	 ??0IPanelChangeObserver@@QAE@XZ
  0006a	c6 45 fc 02	 mov	 BYTE PTR __$EHRec$[ebp+8], 2
  0006e	8b 4d f0	 mov	 ecx, DWORD PTR _this$[ebp]
  00071	c7 01 00 00 00
	00		 mov	 DWORD PTR [ecx], OFFSET FLAT:??_7CPlayBoxDlg@@6BCDialog@@@
  00077	8b 55 f0	 mov	 edx, DWORD PTR _this$[ebp]
  0007a	c7 42 74 00 00
	00 00		 mov	 DWORD PTR [edx+116], OFFSET FLAT:??_7CPlayBoxDlg@@6BAfxUserConfig_Observer@@@
  00081	8b 45 f0	 mov	 eax, DWORD PTR _this$[ebp]
  00084	c7 40 78 00 00
	00 00		 mov	 DWORD PTR [eax+120], OFFSET FLAT:??_7CPlayBoxDlg@@6BILayoutChangeObserver@@@
  0008b	8b 4d f0	 mov	 ecx, DWORD PTR _this$[ebp]
  0008e	c7 41 7c 00 00
	00 00		 mov	 DWORD PTR [ecx+124], OFFSET FLAT:??_7CPlayBoxDlg@@6BIPanelChangeObserver@@@
  00095	8b 4d f0	 mov	 ecx, DWORD PTR _this$[ebp]
  00098	81 c1 94 00 00
	00		 add	 ecx, 148		; 00000094H
  0009e	e8 00 00 00 00	 call	 ??0CRect@@QAE@XZ	; CRect::CRect
  000a3	8b 4d f0	 mov	 ecx, DWORD PTR _this$[ebp]
  000a6	81 c1 ac 00 00
	00		 add	 ecx, 172		; 000000acH
  000ac	e8 00 00 00 00	 call	 ??0CPoint@@QAE@XZ	; CPoint::CPoint
  000b1	8b 4d f0	 mov	 ecx, DWORD PTR _this$[ebp]
  000b4	81 c1 b4 00 00
	00		 add	 ecx, 180		; 000000b4H
  000ba	e8 00 00 00 00	 call	 ??0CRect@@QAE@XZ	; CRect::CRect
  000bf	8b 4d f0	 mov	 ecx, DWORD PTR _this$[ebp]
  000c2	81 c1 e4 00 00
	00		 add	 ecx, 228		; 000000e4H
  000c8	8b f4		 mov	 esi, esp
  000ca	ff 15 00 00 00
	00		 call	 DWORD PTR __imp_??0?$basic_string@DU?$char_traits@D@std@@V?$allocator@D@2@@std@@QAE@XZ
  000d0	3b f4		 cmp	 esi, esp
  000d2	e8 00 00 00 00	 call	 __RTC_CheckEsp
  000d7	c6 45 fc 03	 mov	 BYTE PTR __$EHRec$[ebp+8], 3
  000db	8b 4d f0	 mov	 ecx, DWORD PTR _this$[ebp]
  000de	81 c1 00 01 00
	00		 add	 ecx, 256		; 00000100H
  000e4	8b f4		 mov	 esi, esp
  000e6	ff 15 00 00 00
	00		 call	 DWORD PTR __imp_??0?$basic_string@DU?$char_traits@D@std@@V?$allocator@D@2@@std@@QAE@XZ
  000ec	3b f4		 cmp	 esi, esp
  000ee	e8 00 00 00 00	 call	 __RTC_CheckEsp
  000f3	c6 45 fc 04	 mov	 BYTE PTR __$EHRec$[ebp+8], 4
  000f7	8b 4d f0	 mov	 ecx, DWORD PTR _this$[ebp]
  000fa	81 c1 1c 01 00
	00		 add	 ecx, 284		; 0000011cH
  00100	8b f4		 mov	 esi, esp
  00102	ff 15 00 00 00
	00		 call	 DWORD PTR __imp_??0?$basic_string@DU?$char_traits@D@std@@V?$allocator@D@2@@std@@QAE@XZ
  00108	3b f4		 cmp	 esi, esp
  0010a	e8 00 00 00 00	 call	 __RTC_CheckEsp
  0010f	c6 45 fc 05	 mov	 BYTE PTR __$EHRec$[ebp+8], 5

; 39   : 	m_ptrayIcon = new CTrayIcon(IDR_MAINFRAME);

  00113	6a 27		 push	 39			; 00000027H
  00115	68 00 00 00 00	 push	 OFFSET FLAT:$SG197077
  0011a	68 0c 03 00 00	 push	 780			; 0000030cH
  0011f	e8 00 00 00 00	 call	 ??2CObject@@SGPAXIPBDH@Z ; CObject::operator new
  00124	89 45 e8	 mov	 DWORD PTR $T199504[ebp], eax
  00127	c6 45 fc 06	 mov	 BYTE PTR __$EHRec$[ebp+8], 6
  0012b	83 7d e8 00	 cmp	 DWORD PTR $T199504[ebp], 0
  0012f	74 12		 je	 SHORT $L199505
  00131	68 80 00 00 00	 push	 128			; 00000080H
  00136	8b 4d e8	 mov	 ecx, DWORD PTR $T199504[ebp]
  00139	e8 00 00 00 00	 call	 ??0CTrayIcon@@QAE@I@Z	; CTrayIcon::CTrayIcon
  0013e	89 45 e4	 mov	 DWORD PTR tv160[ebp], eax
  00141	eb 07		 jmp	 SHORT $L199506
$L199505:
  00143	c7 45 e4 00 00
	00 00		 mov	 DWORD PTR tv160[ebp], 0
$L199506:
  0014a	8b 55 e4	 mov	 edx, DWORD PTR tv160[ebp]
  0014d	89 55 ec	 mov	 DWORD PTR $T199503[ebp], edx
  00150	c6 45 fc 05	 mov	 BYTE PTR __$EHRec$[ebp+8], 5
  00154	8b 45 f0	 mov	 eax, DWORD PTR _this$[ebp]
  00157	8b 4d ec	 mov	 ecx, DWORD PTR $T199503[ebp]
  0015a	89 88 90 00 00
	00		 mov	 DWORD PTR [eax+144], ecx

; 40   : 	m_hIcon = AfxGetApp()->LoadIcon(IDR_MAINFRAME);

  00160	68 80 00 00 00	 push	 128			; 00000080H
  00165	e8 00 00 00 00	 call	 ?AfxGetApp@@YGPAVCWinApp@@XZ ; AfxGetApp
  0016a	8b c8		 mov	 ecx, eax
  0016c	e8 00 00 00 00	 call	 ?LoadIconA@CWinApp@@QBEPAUHICON__@@I@Z ; CWinApp::LoadIconA
  00171	8b 55 f0	 mov	 edx, DWORD PTR _this$[ebp]
  00174	89 82 8c 00 00
	00		 mov	 DWORD PTR [edx+140], eax

; 41   : 	
; 42   : 	m_bIsResizing = FALSE;

  0017a	8b 45 f0	 mov	 eax, DWORD PTR _this$[ebp]
  0017d	c7 80 a8 00 00
	00 00 00 00 00	 mov	 DWORD PTR [eax+168], 0

; 43   : 	m_ptStartResizing.x = 0;

  00187	8b 4d f0	 mov	 ecx, DWORD PTR _this$[ebp]
  0018a	c7 81 ac 00 00
	00 00 00 00 00	 mov	 DWORD PTR [ecx+172], 0

; 44   : 	m_ptStartResizing.y = 0;

  00194	8b 55 f0	 mov	 edx, DWORD PTR _this$[ebp]
  00197	c7 82 b0 00 00
	00 00 00 00 00	 mov	 DWORD PTR [edx+176], 0

; 45   : 	m_rectStarResizing.left = 0;

  001a1	8b 45 f0	 mov	 eax, DWORD PTR _this$[ebp]
  001a4	c7 80 b4 00 00
	00 00 00 00 00	 mov	 DWORD PTR [eax+180], 0

; 46   : 	m_rectStarResizing.right = 0;

  001ae	8b 4d f0	 mov	 ecx, DWORD PTR _this$[ebp]
  001b1	c7 81 bc 00 00
	00 00 00 00 00	 mov	 DWORD PTR [ecx+188], 0

; 47   : 	m_rectStarResizing.top = 0;

  001bb	8b 55 f0	 mov	 edx, DWORD PTR _this$[ebp]
  001be	c7 82 b8 00 00
	00 00 00 00 00	 mov	 DWORD PTR [edx+184], 0

; 48   : 	m_rectStarResizing.bottom = 0;

  001c8	8b 45 f0	 mov	 eax, DWORD PTR _this$[ebp]
  001cb	c7 80 c0 00 00
	00 00 00 00 00	 mov	 DWORD PTR [eax+192], 0

; 49   : 	m_iDirection = 0;

  001d5	8b 4d f0	 mov	 ecx, DWORD PTR _this$[ebp]
  001d8	c7 81 a4 00 00
	00 00 00 00 00	 mov	 DWORD PTR [ecx+164], 0

; 50   : 	m_dwFrontTime = 0;

  001e2	8b 55 f0	 mov	 edx, DWORD PTR _this$[ebp]
  001e5	c7 82 80 00 00
	00 00 00 00 00	 mov	 DWORD PTR [edx+128], 0

; 51   : 	m_dwLastFrontTime = GetTickCount();

  001ef	8b f4		 mov	 esi, esp
  001f1	ff 15 00 00 00
	00		 call	 DWORD PTR __imp__GetTickCount@0
  001f7	3b f4		 cmp	 esi, esp
  001f9	e8 00 00 00 00	 call	 __RTC_CheckEsp
  001fe	8b 4d f0	 mov	 ecx, DWORD PTR _this$[ebp]
  00201	89 81 dc 00 00
	00		 mov	 DWORD PTR [ecx+220], eax

; 52   : 	m_bExit = false;

  00207	8b 55 f0	 mov	 edx, DWORD PTR _this$[ebp]
  0020a	c7 82 84 00 00
	00 00 00 00 00	 mov	 DWORD PTR [edx+132], 0

; 53   : 	m_bStartupRun = bStartupRun;

  00214	8b 45 f0	 mov	 eax, DWORD PTR _this$[ebp]
  00217	8a 4d 08	 mov	 cl, BYTE PTR _bStartupRun$[ebp]
  0021a	88 88 88 00 00
	00		 mov	 BYTE PTR [eax+136], cl

; 54   : }

  00220	c7 45 fc ff ff
	ff ff		 mov	 DWORD PTR __$EHRec$[ebp+8], -1
  00227	8b 45 f0	 mov	 eax, DWORD PTR _this$[ebp]
  0022a	8b 4d f4	 mov	 ecx, DWORD PTR __$EHRec$[ebp]
  0022d	64 89 0d 00 00
	00 00		 mov	 DWORD PTR fs:__except_list, ecx
  00234	5e		 pop	 esi
  00235	83 c4 1c	 add	 esp, 28			; 0000001cH
  00238	3b ec		 cmp	 ebp, esp
  0023a	e8 00 00 00 00	 call	 __RTC_CheckEsp
  0023f	8b e5		 mov	 esp, ebp
  00241	5d		 pop	 ebp
  00242	c2 08 00	 ret	 8
_TEXT	ENDS
text$x	SEGMENT
$L199507:
  00000	8b 4d f0	 mov	 ecx, DWORD PTR _this$[ebp]
  00003	e9 00 00 00 00	 jmp	 ??1CDialog@@UAE@XZ	; CDialog::~CDialog
$L199508:
  00008	8b 4d f0	 mov	 ecx, DWORD PTR _this$[ebp]
  0000b	83 c1 78	 add	 ecx, 120		; 00000078H
  0000e	e9 00 00 00 00	 jmp	 ??1ILayoutChangeObserver@@UAE@XZ
$L199509:
  00013	8b 4d f0	 mov	 ecx, DWORD PTR _this$[ebp]
  00016	83 c1 7c	 add	 ecx, 124		; 0000007cH
  00019	e9 00 00 00 00	 jmp	 ??1IPanelChangeObserver@@UAE@XZ
$L199510:
  0001e	8b 4d f0	 mov	 ecx, DWORD PTR _this$[ebp]
  00021	81 c1 e4 00 00
	00		 add	 ecx, 228		; 000000e4H
  00027	8b f4		 mov	 esi, esp
  00029	ff 15 00 00 00
	00		 call	 DWORD PTR __imp_??1?$basic_string@DU?$char_traits@D@std@@V?$allocator@D@2@@std@@QAE@XZ
  0002f	3b f4		 cmp	 esi, esp
  00031	e9 00 00 00 00	 jmp	 __RTC_CheckEsp
$L199511:
  00036	8b 4d f0	 mov	 ecx, DWORD PTR _this$[ebp]
  00039	81 c1 00 01 00
	00		 add	 ecx, 256		; 00000100H
  0003f	8b f4		 mov	 esi, esp
  00041	ff 15 00 00 00
	00		 call	 DWORD PTR __imp_??1?$basic_string@DU?$char_traits@D@std@@V?$allocator@D@2@@std@@QAE@XZ
  00047	3b f4		 cmp	 esi, esp
  00049	e9 00 00 00 00	 jmp	 __RTC_CheckEsp
$L199512:
  0004e	8b 4d f0	 mov	 ecx, DWORD PTR _this$[ebp]
  00051	81 c1 1c 01 00
	00		 add	 ecx, 284		; 0000011cH
  00057	8b f4		 mov	 esi, esp
  00059	ff 15 00 00 00
	00		 call	 DWORD PTR __imp_??1?$basic_string@DU?$char_traits@D@std@@V?$allocator@D@2@@std@@QAE@XZ
  0005f	3b f4		 cmp	 esi, esp
  00061	e9 00 00 00 00	 jmp	 __RTC_CheckEsp
$L199513:
  00066	6a 27		 push	 39			; 00000027H
  00068	68 00 00 00 00	 push	 OFFSET FLAT:$SG197078
  0006d	8b 45 e8	 mov	 eax, DWORD PTR $T199504[ebp]
  00070	50		 push	 eax
  00071	e8 00 00 00 00	 call	 ??3CObject@@SGXPAXPBDH@Z ; CObject::operator delete
  00076	c3		 ret	 0
__ehhandler$??0CPlayBoxDlg@@QAE@_NPAVCWnd@@@Z:
  00077	b8 00 00 00 00	 mov	 eax, OFFSET FLAT:$T199517
  0007c	e9 00 00 00 00	 jmp	 ___CxxFrameHandler
text$x	ENDS
??0CPlayBoxDlg@@QAE@_NPAVCWnd@@@Z ENDP			; CPlayBoxDlg::CPlayBoxDlg
;	COMDAT xdata$x
; File d:\boxgit\playbox\playbox\dev\prj\playbox\src\datainterface\ilayoutchangeobserver.h
xdata$x	SEGMENT
$T199529 DD	0ffffffffH
	DD	FLAT:$L199523
	DD	00H
	DD	FLAT:$L199524
$T199527 DD	019930520H
	DD	02H
	DD	FLAT:$T199529
	DD	2 DUP(00H)
	DD	2 DUP(00H)
; Function compile flags: /Odt /RTCsu
xdata$x	ENDS
;	COMDAT ?ILayoutChangeOb_LayerChanged@ILayoutChangeObserver@@UAEXV?$basic_string@DU?$char_traits@D@std@@V?$allocator@D@2@@std@@00@Z
_TEXT	SEGMENT
_this$ = -16						; size = 4
__$EHRec$ = -12						; size = 12
_paneName$ = 8						; size = 28
_oldLayerName$ = 36					; size = 28
_newLayerName$ = 64					; size = 28
?ILayoutChangeOb_LayerChanged@ILayoutChangeObserver@@UAEXV?$basic_string@DU?$char_traits@D@std@@V?$allocator@D@2@@std@@00@Z PROC NEAR ; ILayoutChangeObserver::ILayoutChangeOb_LayerChanged, COMDAT
; _this$ = ecx

; 9    : 	virtual void	ILayoutChangeOb_LayerChanged(string paneName, string oldLayerName, string newLayerName ){};

  00000	55		 push	 ebp
  00001	8b ec		 mov	 ebp, esp
  00003	6a ff		 push	 -1
  00005	68 00 00 00 00	 push	 __ehhandler$?ILayoutChangeOb_LayerChanged@ILayoutChangeObserver@@UAEXV?$basic_string@DU?$char_traits@D@std@@V?$allocator@D@2@@std@@00@Z
  0000a	64 a1 00 00 00
	00		 mov	 eax, DWORD PTR fs:__except_list
  00010	50		 push	 eax
  00011	64 89 25 00 00
	00 00		 mov	 DWORD PTR fs:__except_list, esp
  00018	51		 push	 ecx
  00019	56		 push	 esi
  0001a	c7 45 f0 cc cc
	cc cc		 mov	 DWORD PTR [ebp-16], -858993460 ; ccccccccH
  00021	89 4d f0	 mov	 DWORD PTR _this$[ebp], ecx
  00024	c7 45 fc 01 00
	00 00		 mov	 DWORD PTR __$EHRec$[ebp+8], 1
  0002b	8b f4		 mov	 esi, esp
  0002d	8d 4d 08	 lea	 ecx, DWORD PTR _paneName$[ebp]
  00030	ff 15 00 00 00
	00		 call	 DWORD PTR __imp_??1?$basic_string@DU?$char_traits@D@std@@V?$allocator@D@2@@std@@QAE@XZ
  00036	3b f4		 cmp	 esi, esp
  00038	e8 00 00 00 00	 call	 __RTC_CheckEsp
  0003d	c6 45 fc 00	 mov	 BYTE PTR __$EHRec$[ebp+8], 0
  00041	8b f4		 mov	 esi, esp
  00043	8d 4d 24	 lea	 ecx, DWORD PTR _oldLayerName$[ebp]
  00046	ff 15 00 00 00
	00		 call	 DWORD PTR __imp_??1?$basic_string@DU?$char_traits@D@std@@V?$allocator@D@2@@std@@QAE@XZ
  0004c	3b f4		 cmp	 esi, esp
  0004e	e8 00 00 00 00	 call	 __RTC_CheckEsp
  00053	c7 45 fc ff ff
	ff ff		 mov	 DWORD PTR __$EHRec$[ebp+8], -1
  0005a	8b f4		 mov	 esi, esp
  0005c	8d 4d 40	 lea	 ecx, DWORD PTR _newLayerName$[ebp]
  0005f	ff 15 00 00 00
	00		 call	 DWORD PTR __imp_??1?$basic_string@DU?$char_traits@D@std@@V?$allocator@D@2@@std@@QAE@XZ
  00065	3b f4		 cmp	 esi, esp
  00067	e8 00 00 00 00	 call	 __RTC_CheckEsp
  0006c	8b 4d f4	 mov	 ecx, DWORD PTR __$EHRec$[ebp]
  0006f	64 89 0d 00 00
	00 00		 mov	 DWORD PTR fs:__except_list, ecx
  00076	5e		 pop	 esi
  00077	83 c4 10	 add	 esp, 16			; 00000010H
  0007a	3b ec		 cmp	 ebp, esp
  0007c	e8 00 00 00 00	 call	 __RTC_CheckEsp
  00081	8b e5		 mov	 esp, ebp
  00083	5d		 pop	 ebp
  00084	c2 54 00	 ret	 84			; 00000054H
_TEXT	ENDS
;	COMDAT text$x
text$x	SEGMENT
$L199523:
  00000	8b f4		 mov	 esi, esp
  00002	8d 4d 40	 lea	 ecx, DWORD PTR _newLayerName$[ebp]
  00005	ff 15 00 00 00
	00		 call	 DWORD PTR __imp_??1?$basic_string@DU?$char_traits@D@std@@V?$allocator@D@2@@std@@QAE@XZ
  0000b	3b f4		 cmp	 esi, esp
  0000d	e9 00 00 00 00	 jmp	 __RTC_CheckEsp
$L199524:
  00012	8b f4		 mov	 esi, esp
  00014	8d 4d 24	 lea	 ecx, DWORD PTR _oldLayerName$[ebp]
  00017	ff 15 00 00 00
	00		 call	 DWORD PTR __imp_??1?$basic_string@DU?$char_traits@D@std@@V?$allocator@D@2@@std@@QAE@XZ
  0001d	3b f4		 cmp	 esi, esp
  0001f	e9 00 00 00 00	 jmp	 __RTC_CheckEsp
__ehhandler$?ILayoutChangeOb_LayerChanged@ILayoutChangeObserver@@UAEXV?$basic_string@DU?$char_traits@D@std@@V?$allocator@D@2@@std@@00@Z:
  00024	b8 00 00 00 00	 mov	 eax, OFFSET FLAT:$T199527
  00029	e9 00 00 00 00	 jmp	 ___CxxFrameHandler
text$x	ENDS
?ILayoutChangeOb_LayerChanged@ILayoutChangeObserver@@UAEXV?$basic_string@DU?$char_traits@D@std@@V?$allocator@D@2@@std@@00@Z ENDP ; ILayoutChangeObserver::ILayoutChangeOb_LayerChanged
;	COMDAT xdata$x
xdata$x	SEGMENT
$T199538 DD	0ffffffffH
	DD	FLAT:$L199533
$T199536 DD	019930520H
	DD	01H
	DD	FLAT:$T199538
	DD	2 DUP(00H)
	DD	2 DUP(00H)
; Function compile flags: /Odt /RTCsu
xdata$x	ENDS
;	COMDAT ?ILayoutChangeOb_PaneChanged@ILayoutChangeObserver@@UAEXV?$basic_string@DU?$char_traits@D@std@@V?$allocator@D@2@@std@@0@Z
_TEXT	SEGMENT
_this$ = -16						; size = 4
__$EHRec$ = -12						; size = 12
_oldPaneName$ = 8					; size = 28
_newPaneName$ = 36					; size = 28
?ILayoutChangeOb_PaneChanged@ILayoutChangeObserver@@UAEXV?$basic_string@DU?$char_traits@D@std@@V?$allocator@D@2@@std@@0@Z PROC NEAR ; ILayoutChangeObserver::ILayoutChangeOb_PaneChanged, COMDAT
; _this$ = ecx

; 10   : 	virtual void	ILayoutChangeOb_PaneChanged(string oldPaneName, string newPaneName){};

  00000	55		 push	 ebp
  00001	8b ec		 mov	 ebp, esp
  00003	6a ff		 push	 -1
  00005	68 00 00 00 00	 push	 __ehhandler$?ILayoutChangeOb_PaneChanged@ILayoutChangeObserver@@UAEXV?$basic_string@DU?$char_traits@D@std@@V?$allocator@D@2@@std@@0@Z
  0000a	64 a1 00 00 00
	00		 mov	 eax, DWORD PTR fs:__except_list
  00010	50		 push	 eax
  00011	64 89 25 00 00
	00 00		 mov	 DWORD PTR fs:__except_list, esp
  00018	51		 push	 ecx
  00019	56		 push	 esi
  0001a	c7 45 f0 cc cc
	cc cc		 mov	 DWORD PTR [ebp-16], -858993460 ; ccccccccH
  00021	89 4d f0	 mov	 DWORD PTR _this$[ebp], ecx
  00024	c7 45 fc 00 00
	00 00		 mov	 DWORD PTR __$EHRec$[ebp+8], 0
  0002b	8b f4		 mov	 esi, esp
  0002d	8d 4d 08	 lea	 ecx, DWORD PTR _oldPaneName$[ebp]
  00030	ff 15 00 00 00
	00		 call	 DWORD PTR __imp_??1?$basic_string@DU?$char_traits@D@std@@V?$allocator@D@2@@std@@QAE@XZ
  00036	3b f4		 cmp	 esi, esp
  00038	e8 00 00 00 00	 call	 __RTC_CheckEsp
  0003d	c7 45 fc ff ff
	ff ff		 mov	 DWORD PTR __$EHRec$[ebp+8], -1
  00044	8b f4		 mov	 esi, esp
  00046	8d 4d 24	 lea	 ecx, DWORD PTR _newPaneName$[ebp]
  00049	ff 15 00 00 00
	00		 call	 DWORD PTR __imp_??1?$basic_string@DU?$char_traits@D@std@@V?$allocator@D@2@@std@@QAE@XZ
  0004f	3b f4		 cmp	 esi, esp
  00051	e8 00 00 00 00	 call	 __RTC_CheckEsp
  00056	8b 4d f4	 mov	 ecx, DWORD PTR __$EHRec$[ebp]
  00059	64 89 0d 00 00
	00 00		 mov	 DWORD PTR fs:__except_list, ecx
  00060	5e		 pop	 esi
  00061	83 c4 10	 add	 esp, 16			; 00000010H
  00064	3b ec		 cmp	 ebp, esp
  00066	e8 00 00 00 00	 call	 __RTC_CheckEsp
  0006b	8b e5		 mov	 esp, ebp
  0006d	5d		 pop	 ebp
  0006e	c2 38 00	 ret	 56			; 00000038H
_TEXT	ENDS
;	COMDAT text$x
text$x	SEGMENT
$L199533:
  00000	8b f4		 mov	 esi, esp
  00002	8d 4d 24	 lea	 ecx, DWORD PTR _newPaneName$[ebp]
  00005	ff 15 00 00 00
	00		 call	 DWORD PTR __imp_??1?$basic_string@DU?$char_traits@D@std@@V?$allocator@D@2@@std@@QAE@XZ
  0000b	3b f4		 cmp	 esi, esp
  0000d	e9 00 00 00 00	 jmp	 __RTC_CheckEsp
__ehhandler$?ILayoutChangeOb_PaneChanged@ILayoutChangeObserver@@UAEXV?$basic_string@DU?$char_traits@D@std@@V?$allocator@D@2@@std@@0@Z:
  00012	b8 00 00 00 00	 mov	 eax, OFFSET FLAT:$T199536
  00017	e9 00 00 00 00	 jmp	 ___CxxFrameHandler
text$x	ENDS
?ILayoutChangeOb_PaneChanged@ILayoutChangeObserver@@UAEXV?$basic_string@DU?$char_traits@D@std@@V?$allocator@D@2@@std@@0@Z ENDP ; ILayoutChangeObserver::ILayoutChangeOb_PaneChanged
; Function compile flags: /Odt /RTCsu
;	COMDAT ?ILayoutChangeOb_ColorChanged@ILayoutChangeObserver@@UAEXXZ
_TEXT	SEGMENT
_this$ = -4						; size = 4
?ILayoutChangeOb_ColorChanged@ILayoutChangeObserver@@UAEXXZ PROC NEAR ; ILayoutChangeObserver::ILayoutChangeOb_ColorChanged, COMDAT
; _this$ = ecx

; 12   : 	virtual void	ILayoutChangeOb_ColorChanged(){};

  00000	55		 push	 ebp
  00001	8b ec		 mov	 ebp, esp
  00003	51		 push	 ecx
  00004	c7 45 fc cc cc
	cc cc		 mov	 DWORD PTR [ebp-4], -858993460 ; ccccccccH
  0000b	89 4d fc	 mov	 DWORD PTR _this$[ebp], ecx
  0000e	8b e5		 mov	 esp, ebp
  00010	5d		 pop	 ebp
  00011	c3		 ret	 0
?ILayoutChangeOb_ColorChanged@ILayoutChangeObserver@@UAEXXZ ENDP ; ILayoutChangeObserver::ILayoutChangeOb_ColorChanged
; Function compile flags: /Odt /RTCsu
_TEXT	ENDS
;	COMDAT ?ILayoutChangeOb_ColorChanging@ILayoutChangeObserver@@UAEXXZ
_TEXT	SEGMENT
_this$ = -4						; size = 4
?ILayoutChangeOb_ColorChanging@ILayoutChangeObserver@@UAEXXZ PROC NEAR ; ILayoutChangeObserver::ILayoutChangeOb_ColorChanging, COMDAT
; _this$ = ecx

; 13   : 	virtual void	ILayoutChangeOb_ColorChanging(){};

  00000	55		 push	 ebp
  00001	8b ec		 mov	 ebp, esp
  00003	51		 push	 ecx
  00004	c7 45 fc cc cc
	cc cc		 mov	 DWORD PTR [ebp-4], -858993460 ; ccccccccH
  0000b	89 4d fc	 mov	 DWORD PTR _this$[ebp], ecx
  0000e	8b e5		 mov	 esp, ebp
  00010	5d		 pop	 ebp
  00011	c3		 ret	 0
?ILayoutChangeOb_ColorChanging@ILayoutChangeObserver@@UAEXXZ ENDP ; ILayoutChangeObserver::ILayoutChangeOb_ColorChanging
; Function compile flags: /Odt /RTCsu
_TEXT	ENDS
;	COMDAT ?ILayoutChangeOb_UpdateLayout@ILayoutChangeObserver@@UAEXPAUHWND__@@@Z
_TEXT	SEGMENT
_this$ = -4						; size = 4
_m_hWnd$ = 8						; size = 4
?ILayoutChangeOb_UpdateLayout@ILayoutChangeObserver@@UAEXPAUHWND__@@@Z PROC NEAR ; ILayoutChangeObserver::ILayoutChangeOb_UpdateLayout, COMDAT
; _this$ = ecx

; 14   : 	virtual void	ILayoutChangeOb_UpdateLayout(HWND m_hWnd){};

  00000	55		 push	 ebp
  00001	8b ec		 mov	 ebp, esp
  00003	51		 push	 ecx
  00004	c7 45 fc cc cc
	cc cc		 mov	 DWORD PTR [ebp-4], -858993460 ; ccccccccH
  0000b	89 4d fc	 mov	 DWORD PTR _this$[ebp], ecx
  0000e	8b e5		 mov	 esp, ebp
  00010	5d		 pop	 ebp
  00011	c2 04 00	 ret	 4
?ILayoutChangeOb_UpdateLayout@ILayoutChangeObserver@@UAEXPAUHWND__@@@Z ENDP ; ILayoutChangeObserver::ILayoutChangeOb_UpdateLayout
; Function compile flags: /Odt /RTCsu
_TEXT	ENDS
;	COMDAT ?ILayoutChangeOb_InitFinished@ILayoutChangeObserver@@UAEXXZ
_TEXT	SEGMENT
_this$ = -4						; size = 4
?ILayoutChangeOb_InitFinished@ILayoutChangeObserver@@UAEXXZ PROC NEAR ; ILayoutChangeObserver::ILayoutChangeOb_InitFinished, COMDAT
; _this$ = ecx

; 15   : 	virtual void	ILayoutChangeOb_InitFinished(){};

  00000	55		 push	 ebp
  00001	8b ec		 mov	 ebp, esp
  00003	51		 push	 ecx
  00004	c7 45 fc cc cc
	cc cc		 mov	 DWORD PTR [ebp-4], -858993460 ; ccccccccH
  0000b	89 4d fc	 mov	 DWORD PTR _this$[ebp], ecx
  0000e	8b e5		 mov	 esp, ebp
  00010	5d		 pop	 ebp
  00011	c3		 ret	 0
?ILayoutChangeOb_InitFinished@ILayoutChangeObserver@@UAEXXZ ENDP ; ILayoutChangeObserver::ILayoutChangeOb_InitFinished
; Function compile flags: /Odt /RTCsu
_TEXT	ENDS
;	COMDAT ?ILayoutChangeOb_InitBegin@ILayoutChangeObserver@@UAEXXZ
_TEXT	SEGMENT
_this$ = -4						; size = 4
?ILayoutChangeOb_InitBegin@ILayoutChangeObserver@@UAEXXZ PROC NEAR ; ILayoutChangeObserver::ILayoutChangeOb_InitBegin, COMDAT
; _this$ = ecx

; 16   : 	virtual void	ILayoutChangeOb_InitBegin(){};

  00000	55		 push	 ebp
  00001	8b ec		 mov	 ebp, esp
  00003	51		 push	 ecx
  00004	c7 45 fc cc cc
	cc cc		 mov	 DWORD PTR [ebp-4], -858993460 ; ccccccccH
  0000b	89 4d fc	 mov	 DWORD PTR _this$[ebp], ecx
  0000e	8b e5		 mov	 esp, ebp
  00010	5d		 pop	 ebp
  00011	c3		 ret	 0
?ILayoutChangeOb_InitBegin@ILayoutChangeObserver@@UAEXXZ ENDP ; ILayoutChangeObserver::ILayoutChangeOb_InitBegin
; Function compile flags: /Odt /RTCsu
; File d:\boxgit\playbox\playbox\dev\prj\playbox\src\datainterface\ipanelchangeobserver.h
_TEXT	ENDS
;	COMDAT ?IPanelChangeOb_WindowClose@IPanelChangeObserver@@UAEXXZ
_TEXT	SEGMENT
_this$ = -4						; size = 4
?IPanelChangeOb_WindowClose@IPanelChangeObserver@@UAEXXZ PROC NEAR ; IPanelChangeObserver::IPanelChangeOb_WindowClose, COMDAT
; _this$ = ecx

; 12   : 	virtual void	IPanelChangeOb_WindowClose(){};

  00000	55		 push	 ebp
  00001	8b ec		 mov	 ebp, esp
  00003	51		 push	 ecx
  00004	c7 45 fc cc cc
	cc cc		 mov	 DWORD PTR [ebp-4], -858993460 ; ccccccccH
  0000b	89 4d fc	 mov	 DWORD PTR _this$[ebp], ecx
  0000e	8b e5		 mov	 esp, ebp
  00010	5d		 pop	 ebp
  00011	c3		 ret	 0
?IPanelChangeOb_WindowClose@IPanelChangeObserver@@UAEXXZ ENDP ; IPanelChangeObserver::IPanelChangeOb_WindowClose
; Function compile flags: /Odt /RTCsu
_TEXT	ENDS
;	COMDAT ?IPanelChangeOb_ToFullScreen@IPanelChangeObserver@@UAEXPAVCWnd@@@Z
_TEXT	SEGMENT
_this$ = -4						; size = 4
_pWnd$ = 8						; size = 4
?IPanelChangeOb_ToFullScreen@IPanelChangeObserver@@UAEXPAVCWnd@@@Z PROC NEAR ; IPanelChangeObserver::IPanelChangeOb_ToFullScreen, COMDAT
; _this$ = ecx

; 13   : 	virtual void	IPanelChangeOb_ToFullScreen( CWnd* pWnd ){};

  00000	55		 push	 ebp
  00001	8b ec		 mov	 ebp, esp
  00003	51		 push	 ecx
  00004	c7 45 fc cc cc
	cc cc		 mov	 DWORD PTR [ebp-4], -858993460 ; ccccccccH
  0000b	89 4d fc	 mov	 DWORD PTR _this$[ebp], ecx
  0000e	8b e5		 mov	 esp, ebp
  00010	5d		 pop	 ebp
  00011	c2 04 00	 ret	 4
?IPanelChangeOb_ToFullScreen@IPanelChangeObserver@@UAEXPAVCWnd@@@Z ENDP ; IPanelChangeObserver::IPanelChangeOb_ToFullScreen
; Function compile flags: /Odt /RTCsu
_TEXT	ENDS
;	COMDAT ?IPanelChangeOb_ExitFullScreen@IPanelChangeObserver@@UAEXPAVCWnd@@@Z
_TEXT	SEGMENT
_this$ = -4						; size = 4
_pWnd$ = 8						; size = 4
?IPanelChangeOb_ExitFullScreen@IPanelChangeObserver@@UAEXPAVCWnd@@@Z PROC NEAR ; IPanelChangeObserver::IPanelChangeOb_ExitFullScreen, COMDAT
; _this$ = ecx

; 14   : 	virtual void	IPanelChangeOb_ExitFullScreen( CWnd* pWnd ){};

  00000	55		 push	 ebp
  00001	8b ec		 mov	 ebp, esp
  00003	51		 push	 ecx
  00004	c7 45 fc cc cc
	cc cc		 mov	 DWORD PTR [ebp-4], -858993460 ; ccccccccH
  0000b	89 4d fc	 mov	 DWORD PTR _this$[ebp], ecx
  0000e	8b e5		 mov	 esp, ebp
  00010	5d		 pop	 ebp
  00011	c2 04 00	 ret	 4
?IPanelChangeOb_ExitFullScreen@IPanelChangeObserver@@UAEXPAVCWnd@@@Z ENDP ; IPanelChangeObserver::IPanelChangeOb_ExitFullScreen
_TEXT	ENDS
PUBLIC	??1CPlayBoxDlg@@UAE@XZ				; CPlayBoxDlg::~CPlayBoxDlg
EXTRN	??3CObject@@SGXPAX@Z:NEAR			; CObject::operator delete
; Function compile flags: /Odt /RTCsu
;	COMDAT ??_GCPlayBoxDlg@@UAEPAXI@Z
_TEXT	SEGMENT
_this$ = -4						; size = 4
___flags$ = 8						; size = 4
??_GCPlayBoxDlg@@UAEPAXI@Z PROC NEAR			; CPlayBoxDlg::`scalar deleting destructor', COMDAT
; _this$ = ecx
  00000	55		 push	 ebp
  00001	8b ec		 mov	 ebp, esp
  00003	51		 push	 ecx
  00004	c7 45 fc cc cc
	cc cc		 mov	 DWORD PTR [ebp-4], -858993460 ; ccccccccH
  0000b	89 4d fc	 mov	 DWORD PTR _this$[ebp], ecx
  0000e	8b 4d fc	 mov	 ecx, DWORD PTR _this$[ebp]
  00011	e8 00 00 00 00	 call	 ??1CPlayBoxDlg@@UAE@XZ
  00016	8b 45 08	 mov	 eax, DWORD PTR ___flags$[ebp]
  00019	83 e0 01	 and	 eax, 1
  0001c	74 09		 je	 SHORT $L197082
  0001e	8b 4d fc	 mov	 ecx, DWORD PTR _this$[ebp]
  00021	51		 push	 ecx
  00022	e8 00 00 00 00	 call	 ??3CObject@@SGXPAX@Z	; CObject::operator delete
$L197082:
  00027	8b 45 fc	 mov	 eax, DWORD PTR _this$[ebp]
  0002a	83 c4 04	 add	 esp, 4
  0002d	3b ec		 cmp	 ebp, esp
  0002f	e8 00 00 00 00	 call	 __RTC_CheckEsp
  00034	8b e5		 mov	 esp, ebp
  00036	5d		 pop	 ebp
  00037	c2 04 00	 ret	 4
??_GCPlayBoxDlg@@UAEPAXI@Z ENDP				; CPlayBoxDlg::`scalar deleting destructor'
_TEXT	ENDS
PUBLIC	??_R4AfxUserConfig_Observer@@6B@		; AfxUserConfig_Observer::`RTTI Complete Object Locator'
PUBLIC	??_R3AfxUserConfig_Observer@@8			; AfxUserConfig_Observer::`RTTI Class Hierarchy Descriptor'
PUBLIC	??_R2AfxUserConfig_Observer@@8			; AfxUserConfig_Observer::`RTTI Base Class Array'
PUBLIC	??_R1A@?0A@A@AfxUserConfig_Observer@@8		; AfxUserConfig_Observer::`RTTI Base Class Descriptor at (0,-1,0,0)'
PUBLIC	??_7AfxUserConfig_Observer@@6B@			; AfxUserConfig_Observer::`vftable'
EXTRN	__purecall:NEAR
;	COMDAT ??_7AfxUserConfig_Observer@@6B@
CONST	SEGMENT
??_7AfxUserConfig_Observer@@6B@ DD FLAT:??_R4AfxUserConfig_Observer@@6B@ ; AfxUserConfig_Observer::`vftable'
	DD	FLAT:__purecall
CONST	ENDS
;	COMDAT ??_R4AfxUserConfig_Observer@@6B@
rdata$r	SEGMENT
??_R4AfxUserConfig_Observer@@6B@ DD 00H			; AfxUserConfig_Observer::`RTTI Complete Object Locator'
	DD	00H
	DD	00H
	DD	FLAT:??_R0?AVAfxUserConfig_Observer@@@8
	DD	FLAT:??_R3AfxUserConfig_Observer@@8
rdata$r	ENDS
;	COMDAT ??_R3AfxUserConfig_Observer@@8
rdata$r	SEGMENT
??_R3AfxUserConfig_Observer@@8 DD 00H			; AfxUserConfig_Observer::`RTTI Class Hierarchy Descriptor'
	DD	00H
	DD	01H
	DD	FLAT:??_R2AfxUserConfig_Observer@@8
rdata$r	ENDS
;	COMDAT ??_R2AfxUserConfig_Observer@@8
rdata$r	SEGMENT
??_R2AfxUserConfig_Observer@@8 DD FLAT:??_R1A@?0A@A@AfxUserConfig_Observer@@8 ; AfxUserConfig_Observer::`RTTI Base Class Array'
rdata$r	ENDS
;	COMDAT ??_R1A@?0A@A@AfxUserConfig_Observer@@8
rdata$r	SEGMENT
??_R1A@?0A@A@AfxUserConfig_Observer@@8 DD FLAT:??_R0?AVAfxUserConfig_Observer@@@8 ; AfxUserConfig_Observer::`RTTI Base Class Descriptor at (0,-1,0,0)'
	DD	00H
	DD	00H
	DD	0ffffffffH
	DD	00H
	DD	00H
; Function compile flags: /Odt /RTCsu
rdata$r	ENDS
;	COMDAT ??0AfxUserConfig_Observer@@QAE@XZ
_TEXT	SEGMENT
_this$ = -4						; size = 4
??0AfxUserConfig_Observer@@QAE@XZ PROC NEAR		; AfxUserConfig_Observer::AfxUserConfig_Observer, COMDAT
; _this$ = ecx
  00000	55		 push	 ebp
  00001	8b ec		 mov	 ebp, esp
  00003	51		 push	 ecx
  00004	c7 45 fc cc cc
	cc cc		 mov	 DWORD PTR [ebp-4], -858993460 ; ccccccccH
  0000b	89 4d fc	 mov	 DWORD PTR _this$[ebp], ecx
  0000e	8b 45 fc	 mov	 eax, DWORD PTR _this$[ebp]
  00011	c7 00 00 00 00
	00		 mov	 DWORD PTR [eax], OFFSET FLAT:??_7AfxUserConfig_Observer@@6B@
  00017	8b 45 fc	 mov	 eax, DWORD PTR _this$[ebp]
  0001a	8b e5		 mov	 esp, ebp
  0001c	5d		 pop	 ebp
  0001d	c3		 ret	 0
??0AfxUserConfig_Observer@@QAE@XZ ENDP			; AfxUserConfig_Observer::AfxUserConfig_Observer
_TEXT	ENDS
PUBLIC	??_R4ILayoutChangeObserver@@6B@			; ILayoutChangeObserver::`RTTI Complete Object Locator'
PUBLIC	??_R3ILayoutChangeObserver@@8			; ILayoutChangeObserver::`RTTI Class Hierarchy Descriptor'
PUBLIC	??_R2ILayoutChangeObserver@@8			; ILayoutChangeObserver::`RTTI Base Class Array'
PUBLIC	??_R1A@?0A@A@ILayoutChangeObserver@@8		; ILayoutChangeObserver::`RTTI Base Class Descriptor at (0,-1,0,0)'
PUBLIC	??0IMessageObserver@@QAE@XZ			; IMessageObserver::IMessageObserver
PUBLIC	??_R1A@?0A@A@IMessageObserver@@8		; IMessageObserver::`RTTI Base Class Descriptor at (0,-1,0,0)'
PUBLIC	?ILayoutChangeOb_SkinChanged@ILayoutChangeObserver@@UAEXV?$basic_string@DU?$char_traits@D@std@@V?$allocator@D@2@@std@@0@Z ; ILayoutChangeObserver::ILayoutChangeOb_SkinChanged
PUBLIC	??_7ILayoutChangeObserver@@6B@			; ILayoutChangeObserver::`vftable'
PUBLIC	??_GILayoutChangeObserver@@UAEPAXI@Z		; ILayoutChangeObserver::`scalar deleting destructor'
EXTRN	??_EILayoutChangeObserver@@UAEPAXI@Z:NEAR	; ILayoutChangeObserver::`vector deleting destructor'
;	COMDAT ??_7ILayoutChangeObserver@@6B@
CONST	SEGMENT
??_7ILayoutChangeObserver@@6B@ DD FLAT:??_R4ILayoutChangeObserver@@6B@ ; ILayoutChangeObserver::`vftable'
	DD	FLAT:??_EILayoutChangeObserver@@UAEPAXI@Z
	DD	FLAT:?ILayoutChangeOb_LayerChanged@ILayoutChangeObserver@@UAEXV?$basic_string@DU?$char_traits@D@std@@V?$allocator@D@2@@std@@00@Z
	DD	FLAT:?ILayoutChangeOb_PaneChanged@ILayoutChangeObserver@@UAEXV?$basic_string@DU?$char_traits@D@std@@V?$allocator@D@2@@std@@0@Z
	DD	FLAT:?ILayoutChangeOb_SkinChanged@ILayoutChangeObserver@@UAEXV?$basic_string@DU?$char_traits@D@std@@V?$allocator@D@2@@std@@0@Z
	DD	FLAT:?ILayoutChangeOb_ColorChanged@ILayoutChangeObserver@@UAEXXZ
	DD	FLAT:?ILayoutChangeOb_ColorChanging@ILayoutChangeObserver@@UAEXXZ
	DD	FLAT:?ILayoutChangeOb_UpdateLayout@ILayoutChangeObserver@@UAEXPAUHWND__@@@Z
	DD	FLAT:?ILayoutChangeOb_InitFinished@ILayoutChangeObserver@@UAEXXZ
	DD	FLAT:?ILayoutChangeOb_InitBegin@ILayoutChangeObserver@@UAEXXZ
CONST	ENDS
;	COMDAT ??_R4ILayoutChangeObserver@@6B@
rdata$r	SEGMENT
??_R4ILayoutChangeObserver@@6B@ DD 00H			; ILayoutChangeObserver::`RTTI Complete Object Locator'
	DD	00H
	DD	00H
	DD	FLAT:??_R0?AVILayoutChangeObserver@@@8
	DD	FLAT:??_R3ILayoutChangeObserver@@8
rdata$r	ENDS
;	COMDAT ??_R3ILayoutChangeObserver@@8
rdata$r	SEGMENT
??_R3ILayoutChangeObserver@@8 DD 00H			; ILayoutChangeObserver::`RTTI Class Hierarchy Descriptor'
	DD	00H
	DD	02H
	DD	FLAT:??_R2ILayoutChangeObserver@@8
rdata$r	ENDS
;	COMDAT ??_R2ILayoutChangeObserver@@8
rdata$r	SEGMENT
??_R2ILayoutChangeObserver@@8 DD FLAT:??_R1A@?0A@A@ILayoutChangeObserver@@8 ; ILayoutChangeObserver::`RTTI Base Class Array'
	DD	FLAT:??_R1A@?0A@A@IMessageObserver@@8
rdata$r	ENDS
;	COMDAT ??_R1A@?0A@A@ILayoutChangeObserver@@8
rdata$r	SEGMENT
??_R1A@?0A@A@ILayoutChangeObserver@@8 DD FLAT:??_R0?AVILayoutChangeObserver@@@8 ; ILayoutChangeObserver::`RTTI Base Class Descriptor at (0,-1,0,0)'
	DD	01H
	DD	00H
	DD	0ffffffffH
	DD	00H
	DD	00H
rdata$r	ENDS
;	COMDAT ??_R1A@?0A@A@IMessageObserver@@8
rdata$r	SEGMENT
??_R1A@?0A@A@IMessageObserver@@8 DD FLAT:??_R0?AVIMessageObserver@@@8 ; IMessageObserver::`RTTI Base Class Descriptor at (0,-1,0,0)'
	DD	00H
	DD	00H
	DD	0ffffffffH
	DD	00H
	DD	00H
; Function compile flags: /Odt /RTCsu
rdata$r	ENDS
;	COMDAT ??0ILayoutChangeObserver@@QAE@XZ
_TEXT	SEGMENT
_this$ = -4						; size = 4
??0ILayoutChangeObserver@@QAE@XZ PROC NEAR		; ILayoutChangeObserver::ILayoutChangeObserver, COMDAT
; _this$ = ecx
  00000	55		 push	 ebp
  00001	8b ec		 mov	 ebp, esp
  00003	51		 push	 ecx
  00004	c7 45 fc cc cc
	cc cc		 mov	 DWORD PTR [ebp-4], -858993460 ; ccccccccH
  0000b	89 4d fc	 mov	 DWORD PTR _this$[ebp], ecx
  0000e	8b 4d fc	 mov	 ecx, DWORD PTR _this$[ebp]
  00011	e8 00 00 00 00	 call	 ??0IMessageObserver@@QAE@XZ
  00016	8b 45 fc	 mov	 eax, DWORD PTR _this$[ebp]
  00019	c7 00 00 00 00
	00		 mov	 DWORD PTR [eax], OFFSET FLAT:??_7ILayoutChangeObserver@@6B@
  0001f	8b 45 fc	 mov	 eax, DWORD PTR _this$[ebp]
  00022	83 c4 04	 add	 esp, 4
  00025	3b ec		 cmp	 ebp, esp
  00027	e8 00 00 00 00	 call	 __RTC_CheckEsp
  0002c	8b e5		 mov	 esp, ebp
  0002e	5d		 pop	 ebp
  0002f	c3		 ret	 0
??0ILayoutChangeObserver@@QAE@XZ ENDP			; ILayoutChangeObserver::ILayoutChangeObserver
_TEXT	ENDS
;	COMDAT xdata$x
; File d:\boxgit\playbox\playbox\dev\prj\playbox\src\datainterface\ilayoutchangeobserver.h
xdata$x	SEGMENT
$T199558 DD	0ffffffffH
	DD	FLAT:$L199553
$T199556 DD	019930520H
	DD	01H
	DD	FLAT:$T199558
	DD	2 DUP(00H)
	DD	2 DUP(00H)
; Function compile flags: /Odt /RTCsu
xdata$x	ENDS
;	COMDAT ?ILayoutChangeOb_SkinChanged@ILayoutChangeObserver@@UAEXV?$basic_string@DU?$char_traits@D@std@@V?$allocator@D@2@@std@@0@Z
_TEXT	SEGMENT
_this$ = -16						; size = 4
__$EHRec$ = -12						; size = 12
_oldSkinPath$ = 8					; size = 28
_newSkinPath$ = 36					; size = 28
?ILayoutChangeOb_SkinChanged@ILayoutChangeObserver@@UAEXV?$basic_string@DU?$char_traits@D@std@@V?$allocator@D@2@@std@@0@Z PROC NEAR ; ILayoutChangeObserver::ILayoutChangeOb_SkinChanged, COMDAT
; _this$ = ecx

; 11   : 	virtual void	ILayoutChangeOb_SkinChanged(string oldSkinPath, string newSkinPath){};

  00000	55		 push	 ebp
  00001	8b ec		 mov	 ebp, esp
  00003	6a ff		 push	 -1
  00005	68 00 00 00 00	 push	 __ehhandler$?ILayoutChangeOb_SkinChanged@ILayoutChangeObserver@@UAEXV?$basic_string@DU?$char_traits@D@std@@V?$allocator@D@2@@std@@0@Z
  0000a	64 a1 00 00 00
	00		 mov	 eax, DWORD PTR fs:__except_list
  00010	50		 push	 eax
  00011	64 89 25 00 00
	00 00		 mov	 DWORD PTR fs:__except_list, esp
  00018	51		 push	 ecx
  00019	56		 push	 esi
  0001a	c7 45 f0 cc cc
	cc cc		 mov	 DWORD PTR [ebp-16], -858993460 ; ccccccccH
  00021	89 4d f0	 mov	 DWORD PTR _this$[ebp], ecx
  00024	c7 45 fc 00 00
	00 00		 mov	 DWORD PTR __$EHRec$[ebp+8], 0
  0002b	8b f4		 mov	 esi, esp
  0002d	8d 4d 08	 lea	 ecx, DWORD PTR _oldSkinPath$[ebp]
  00030	ff 15 00 00 00
	00		 call	 DWORD PTR __imp_??1?$basic_string@DU?$char_traits@D@std@@V?$allocator@D@2@@std@@QAE@XZ
  00036	3b f4		 cmp	 esi, esp
  00038	e8 00 00 00 00	 call	 __RTC_CheckEsp
  0003d	c7 45 fc ff ff
	ff ff		 mov	 DWORD PTR __$EHRec$[ebp+8], -1
  00044	8b f4		 mov	 esi, esp
  00046	8d 4d 24	 lea	 ecx, DWORD PTR _newSkinPath$[ebp]
  00049	ff 15 00 00 00
	00		 call	 DWORD PTR __imp_??1?$basic_string@DU?$char_traits@D@std@@V?$allocator@D@2@@std@@QAE@XZ
  0004f	3b f4		 cmp	 esi, esp
  00051	e8 00 00 00 00	 call	 __RTC_CheckEsp
  00056	8b 4d f4	 mov	 ecx, DWORD PTR __$EHRec$[ebp]
  00059	64 89 0d 00 00
	00 00		 mov	 DWORD PTR fs:__except_list, ecx
  00060	5e		 pop	 esi
  00061	83 c4 10	 add	 esp, 16			; 00000010H
  00064	3b ec		 cmp	 ebp, esp
  00066	e8 00 00 00 00	 call	 __RTC_CheckEsp
  0006b	8b e5		 mov	 esp, ebp
  0006d	5d		 pop	 ebp
  0006e	c2 38 00	 ret	 56			; 00000038H
_TEXT	ENDS
;	COMDAT text$x
text$x	SEGMENT
$L199553:
  00000	8b f4		 mov	 esi, esp
  00002	8d 4d 24	 lea	 ecx, DWORD PTR _newSkinPath$[ebp]
  00005	ff 15 00 00 00
	00		 call	 DWORD PTR __imp_??1?$basic_string@DU?$char_traits@D@std@@V?$allocator@D@2@@std@@QAE@XZ
  0000b	3b f4		 cmp	 esi, esp
  0000d	e9 00 00 00 00	 jmp	 __RTC_CheckEsp
__ehhandler$?ILayoutChangeOb_SkinChanged@ILayoutChangeObserver@@UAEXV?$basic_string@DU?$char_traits@D@std@@V?$allocator@D@2@@std@@0@Z:
  00012	b8 00 00 00 00	 mov	 eax, OFFSET FLAT:$T199556
  00017	e9 00 00 00 00	 jmp	 ___CxxFrameHandler
text$x	ENDS
?ILayoutChangeOb_SkinChanged@ILayoutChangeObserver@@UAEXV?$basic_string@DU?$char_traits@D@std@@V?$allocator@D@2@@std@@0@Z ENDP ; ILayoutChangeObserver::ILayoutChangeOb_SkinChanged
PUBLIC	??1IMessageObserver@@UAE@XZ			; IMessageObserver::~IMessageObserver
; Function compile flags: /Odt /RTCsu
;	COMDAT ??1ILayoutChangeObserver@@UAE@XZ
_TEXT	SEGMENT
_this$ = -4						; size = 4
??1ILayoutChangeObserver@@UAE@XZ PROC NEAR		; ILayoutChangeObserver::~ILayoutChangeObserver, COMDAT
; _this$ = ecx
  00000	55		 push	 ebp
  00001	8b ec		 mov	 ebp, esp
  00003	51		 push	 ecx
  00004	c7 45 fc cc cc
	cc cc		 mov	 DWORD PTR [ebp-4], -858993460 ; ccccccccH
  0000b	89 4d fc	 mov	 DWORD PTR _this$[ebp], ecx
  0000e	8b 4d fc	 mov	 ecx, DWORD PTR _this$[ebp]
  00011	e8 00 00 00 00	 call	 ??1IMessageObserver@@UAE@XZ ; IMessageObserver::~IMessageObserver
  00016	83 c4 04	 add	 esp, 4
  00019	3b ec		 cmp	 ebp, esp
  0001b	e8 00 00 00 00	 call	 __RTC_CheckEsp
  00020	8b e5		 mov	 esp, ebp
  00022	5d		 pop	 ebp
  00023	c3		 ret	 0
??1ILayoutChangeObserver@@UAE@XZ ENDP			; ILayoutChangeObserver::~ILayoutChangeObserver
_TEXT	ENDS
PUBLIC	??_R4IPanelChangeObserver@@6B@			; IPanelChangeObserver::`RTTI Complete Object Locator'
PUBLIC	??_R3IPanelChangeObserver@@8			; IPanelChangeObserver::`RTTI Class Hierarchy Descriptor'
PUBLIC	??_R2IPanelChangeObserver@@8			; IPanelChangeObserver::`RTTI Base Class Array'
PUBLIC	??_R1A@?0A@A@IPanelChangeObserver@@8		; IPanelChangeObserver::`RTTI Base Class Descriptor at (0,-1,0,0)'
PUBLIC	?IPanelChangeOb_WindowMax@IPanelChangeObserver@@UAEXXZ ; IPanelChangeObserver::IPanelChangeOb_WindowMax
PUBLIC	?IPanelChangeOb_WindowMin@IPanelChangeObserver@@UAEXXZ ; IPanelChangeObserver::IPanelChangeOb_WindowMin
PUBLIC	?IPanelChangeOb_WindowRestore@IPanelChangeObserver@@UAEXXZ ; IPanelChangeObserver::IPanelChangeOb_WindowRestore
PUBLIC	??_7IPanelChangeObserver@@6B@			; IPanelChangeObserver::`vftable'
PUBLIC	??_GIPanelChangeObserver@@UAEPAXI@Z		; IPanelChangeObserver::`scalar deleting destructor'
EXTRN	??_EIPanelChangeObserver@@UAEPAXI@Z:NEAR	; IPanelChangeObserver::`vector deleting destructor'
;	COMDAT ??_7IPanelChangeObserver@@6B@
CONST	SEGMENT
??_7IPanelChangeObserver@@6B@ DD FLAT:??_R4IPanelChangeObserver@@6B@ ; IPanelChangeObserver::`vftable'
	DD	FLAT:??_EIPanelChangeObserver@@UAEPAXI@Z
	DD	FLAT:?IPanelChangeOb_WindowMax@IPanelChangeObserver@@UAEXXZ
	DD	FLAT:?IPanelChangeOb_WindowMin@IPanelChangeObserver@@UAEXXZ
	DD	FLAT:?IPanelChangeOb_WindowRestore@IPanelChangeObserver@@UAEXXZ
	DD	FLAT:?IPanelChangeOb_WindowClose@IPanelChangeObserver@@UAEXXZ
	DD	FLAT:?IPanelChangeOb_ToFullScreen@IPanelChangeObserver@@UAEXPAVCWnd@@@Z
	DD	FLAT:?IPanelChangeOb_ExitFullScreen@IPanelChangeObserver@@UAEXPAVCWnd@@@Z
CONST	ENDS
;	COMDAT ??_R4IPanelChangeObserver@@6B@
rdata$r	SEGMENT
??_R4IPanelChangeObserver@@6B@ DD 00H			; IPanelChangeObserver::`RTTI Complete Object Locator'
	DD	00H
	DD	00H
	DD	FLAT:??_R0?AVIPanelChangeObserver@@@8
	DD	FLAT:??_R3IPanelChangeObserver@@8
rdata$r	ENDS
;	COMDAT ??_R3IPanelChangeObserver@@8
rdata$r	SEGMENT
??_R3IPanelChangeObserver@@8 DD 00H			; IPanelChangeObserver::`RTTI Class Hierarchy Descriptor'
	DD	00H
	DD	02H
	DD	FLAT:??_R2IPanelChangeObserver@@8
rdata$r	ENDS
;	COMDAT ??_R2IPanelChangeObserver@@8
rdata$r	SEGMENT
??_R2IPanelChangeObserver@@8 DD FLAT:??_R1A@?0A@A@IPanelChangeObserver@@8 ; IPanelChangeObserver::`RTTI Base Class Array'
	DD	FLAT:??_R1A@?0A@A@IMessageObserver@@8
rdata$r	ENDS
;	COMDAT ??_R1A@?0A@A@IPanelChangeObserver@@8
rdata$r	SEGMENT
??_R1A@?0A@A@IPanelChangeObserver@@8 DD FLAT:??_R0?AVIPanelChangeObserver@@@8 ; IPanelChangeObserver::`RTTI Base Class Descriptor at (0,-1,0,0)'
	DD	01H
	DD	00H
	DD	0ffffffffH
	DD	00H
	DD	00H
; Function compile flags: /Odt /RTCsu
rdata$r	ENDS
;	COMDAT ??0IPanelChangeObserver@@QAE@XZ
_TEXT	SEGMENT
_this$ = -4						; size = 4
??0IPanelChangeObserver@@QAE@XZ PROC NEAR		; IPanelChangeObserver::IPanelChangeObserver, COMDAT
; _this$ = ecx
  00000	55		 push	 ebp
  00001	8b ec		 mov	 ebp, esp
  00003	51		 push	 ecx
  00004	c7 45 fc cc cc
	cc cc		 mov	 DWORD PTR [ebp-4], -858993460 ; ccccccccH
  0000b	89 4d fc	 mov	 DWORD PTR _this$[ebp], ecx
  0000e	8b 4d fc	 mov	 ecx, DWORD PTR _this$[ebp]
  00011	e8 00 00 00 00	 call	 ??0IMessageObserver@@QAE@XZ
  00016	8b 45 fc	 mov	 eax, DWORD PTR _this$[ebp]
  00019	c7 00 00 00 00
	00		 mov	 DWORD PTR [eax], OFFSET FLAT:??_7IPanelChangeObserver@@6B@
  0001f	8b 45 fc	 mov	 eax, DWORD PTR _this$[ebp]
  00022	83 c4 04	 add	 esp, 4
  00025	3b ec		 cmp	 ebp, esp
  00027	e8 00 00 00 00	 call	 __RTC_CheckEsp
  0002c	8b e5		 mov	 esp, ebp
  0002e	5d		 pop	 ebp
  0002f	c3		 ret	 0
??0IPanelChangeObserver@@QAE@XZ ENDP			; IPanelChangeObserver::IPanelChangeObserver
; Function compile flags: /Odt /RTCsu
; File d:\boxgit\playbox\playbox\dev\prj\playbox\src\datainterface\ipanelchangeobserver.h
_TEXT	ENDS
;	COMDAT ?IPanelChangeOb_WindowMax@IPanelChangeObserver@@UAEXXZ
_TEXT	SEGMENT
_this$ = -4						; size = 4
?IPanelChangeOb_WindowMax@IPanelChangeObserver@@UAEXXZ PROC NEAR ; IPanelChangeObserver::IPanelChangeOb_WindowMax, COMDAT
; _this$ = ecx

; 9    : 	virtual void	IPanelChangeOb_WindowMax(){};

  00000	55		 push	 ebp
  00001	8b ec		 mov	 ebp, esp
  00003	51		 push	 ecx
  00004	c7 45 fc cc cc
	cc cc		 mov	 DWORD PTR [ebp-4], -858993460 ; ccccccccH
  0000b	89 4d fc	 mov	 DWORD PTR _this$[ebp], ecx
  0000e	8b e5		 mov	 esp, ebp
  00010	5d		 pop	 ebp
  00011	c3		 ret	 0
?IPanelChangeOb_WindowMax@IPanelChangeObserver@@UAEXXZ ENDP ; IPanelChangeObserver::IPanelChangeOb_WindowMax
; Function compile flags: /Odt /RTCsu
_TEXT	ENDS
;	COMDAT ?IPanelChangeOb_WindowMin@IPanelChangeObserver@@UAEXXZ
_TEXT	SEGMENT
_this$ = -4						; size = 4
?IPanelChangeOb_WindowMin@IPanelChangeObserver@@UAEXXZ PROC NEAR ; IPanelChangeObserver::IPanelChangeOb_WindowMin, COMDAT
; _this$ = ecx

; 10   : 	virtual void	IPanelChangeOb_WindowMin(){};

  00000	55		 push	 ebp
  00001	8b ec		 mov	 ebp, esp
  00003	51		 push	 ecx
  00004	c7 45 fc cc cc
	cc cc		 mov	 DWORD PTR [ebp-4], -858993460 ; ccccccccH
  0000b	89 4d fc	 mov	 DWORD PTR _this$[ebp], ecx
  0000e	8b e5		 mov	 esp, ebp
  00010	5d		 pop	 ebp
  00011	c3		 ret	 0
?IPanelChangeOb_WindowMin@IPanelChangeObserver@@UAEXXZ ENDP ; IPanelChangeObserver::IPanelChangeOb_WindowMin
; Function compile flags: /Odt /RTCsu
_TEXT	ENDS
;	COMDAT ?IPanelChangeOb_WindowRestore@IPanelChangeObserver@@UAEXXZ
_TEXT	SEGMENT
_this$ = -4						; size = 4
?IPanelChangeOb_WindowRestore@IPanelChangeObserver@@UAEXXZ PROC NEAR ; IPanelChangeObserver::IPanelChangeOb_WindowRestore, COMDAT
; _this$ = ecx

; 11   : 	virtual void	IPanelChangeOb_WindowRestore(){};

  00000	55		 push	 ebp
  00001	8b ec		 mov	 ebp, esp
  00003	51		 push	 ecx
  00004	c7 45 fc cc cc
	cc cc		 mov	 DWORD PTR [ebp-4], -858993460 ; ccccccccH
  0000b	89 4d fc	 mov	 DWORD PTR _this$[ebp], ecx
  0000e	8b e5		 mov	 esp, ebp
  00010	5d		 pop	 ebp
  00011	c3		 ret	 0
?IPanelChangeOb_WindowRestore@IPanelChangeObserver@@UAEXXZ ENDP ; IPanelChangeObserver::IPanelChangeOb_WindowRestore
; Function compile flags: /Odt /RTCsu
_TEXT	ENDS
;	COMDAT ??1IPanelChangeObserver@@UAE@XZ
_TEXT	SEGMENT
_this$ = -4						; size = 4
??1IPanelChangeObserver@@UAE@XZ PROC NEAR		; IPanelChangeObserver::~IPanelChangeObserver, COMDAT
; _this$ = ecx
  00000	55		 push	 ebp
  00001	8b ec		 mov	 ebp, esp
  00003	51		 push	 ecx
  00004	c7 45 fc cc cc
	cc cc		 mov	 DWORD PTR [ebp-4], -858993460 ; ccccccccH
  0000b	89 4d fc	 mov	 DWORD PTR _this$[ebp], ecx
  0000e	8b 4d fc	 mov	 ecx, DWORD PTR _this$[ebp]
  00011	e8 00 00 00 00	 call	 ??1IMessageObserver@@UAE@XZ ; IMessageObserver::~IMessageObserver
  00016	83 c4 04	 add	 esp, 4
  00019	3b ec		 cmp	 ebp, esp
  0001b	e8 00 00 00 00	 call	 __RTC_CheckEsp
  00020	8b e5		 mov	 esp, ebp
  00022	5d		 pop	 ebp
  00023	c3		 ret	 0
??1IPanelChangeObserver@@UAE@XZ ENDP			; IPanelChangeObserver::~IPanelChangeObserver
_TEXT	ENDS
;	COMDAT xdata$x
xdata$x	SEGMENT
$T199587 DD	0ffffffffH
	DD	FLAT:$L199574
	DD	00H
	DD	FLAT:$L199577
	DD	01H
	DD	FLAT:$L199580
	DD	02H
	DD	FLAT:$L199581
	DD	03H
	DD	FLAT:$L199582
$T199585 DD	019930520H
	DD	05H
	DD	FLAT:$T199587
	DD	2 DUP(00H)
	DD	2 DUP(00H)
; Function compile flags: /Odt /RTCsu
xdata$x	ENDS
;	COMDAT ??1CPlayBoxDlg@@UAE@XZ
_TEXT	SEGMENT
tv67 = -24						; size = 4
tv71 = -20						; size = 4
_this$ = -16						; size = 4
__$EHRec$ = -12						; size = 12
??1CPlayBoxDlg@@UAE@XZ PROC NEAR			; CPlayBoxDlg::~CPlayBoxDlg, COMDAT
; _this$ = ecx
  00000	55		 push	 ebp
  00001	8b ec		 mov	 ebp, esp
  00003	6a ff		 push	 -1
  00005	68 00 00 00 00	 push	 __ehhandler$??1CPlayBoxDlg@@UAE@XZ
  0000a	64 a1 00 00 00
	00		 mov	 eax, DWORD PTR fs:__except_list
  00010	50		 push	 eax
  00011	64 89 25 00 00
	00 00		 mov	 DWORD PTR fs:__except_list, esp
  00018	83 ec 0c	 sub	 esp, 12			; 0000000cH
  0001b	56		 push	 esi
  0001c	c7 45 e8 cc cc
	cc cc		 mov	 DWORD PTR [ebp-24], -858993460 ; ccccccccH
  00023	c7 45 ec cc cc
	cc cc		 mov	 DWORD PTR [ebp-20], -858993460 ; ccccccccH
  0002a	c7 45 f0 cc cc
	cc cc		 mov	 DWORD PTR [ebp-16], -858993460 ; ccccccccH
  00031	89 4d f0	 mov	 DWORD PTR _this$[ebp], ecx
  00034	c7 45 fc 04 00
	00 00		 mov	 DWORD PTR __$EHRec$[ebp+8], 4
  0003b	8b 4d f0	 mov	 ecx, DWORD PTR _this$[ebp]
  0003e	81 c1 1c 01 00
	00		 add	 ecx, 284		; 0000011cH
  00044	8b f4		 mov	 esi, esp
  00046	ff 15 00 00 00
	00		 call	 DWORD PTR __imp_??1?$basic_string@DU?$char_traits@D@std@@V?$allocator@D@2@@std@@QAE@XZ
  0004c	3b f4		 cmp	 esi, esp
  0004e	e8 00 00 00 00	 call	 __RTC_CheckEsp
  00053	c6 45 fc 03	 mov	 BYTE PTR __$EHRec$[ebp+8], 3
  00057	8b 4d f0	 mov	 ecx, DWORD PTR _this$[ebp]
  0005a	81 c1 00 01 00
	00		 add	 ecx, 256		; 00000100H
  00060	8b f4		 mov	 esi, esp
  00062	ff 15 00 00 00
	00		 call	 DWORD PTR __imp_??1?$basic_string@DU?$char_traits@D@std@@V?$allocator@D@2@@std@@QAE@XZ
  00068	3b f4		 cmp	 esi, esp
  0006a	e8 00 00 00 00	 call	 __RTC_CheckEsp
  0006f	c6 45 fc 02	 mov	 BYTE PTR __$EHRec$[ebp+8], 2
  00073	8b 4d f0	 mov	 ecx, DWORD PTR _this$[ebp]
  00076	81 c1 e4 00 00
	00		 add	 ecx, 228		; 000000e4H
  0007c	8b f4		 mov	 esi, esp
  0007e	ff 15 00 00 00
	00		 call	 DWORD PTR __imp_??1?$basic_string@DU?$char_traits@D@std@@V?$allocator@D@2@@std@@QAE@XZ
  00084	3b f4		 cmp	 esi, esp
  00086	e8 00 00 00 00	 call	 __RTC_CheckEsp
  0008b	c6 45 fc 01	 mov	 BYTE PTR __$EHRec$[ebp+8], 1
  0008f	83 7d f0 00	 cmp	 DWORD PTR _this$[ebp], 0
  00093	74 0b		 je	 SHORT $L199572
  00095	8b 45 f0	 mov	 eax, DWORD PTR _this$[ebp]
  00098	83 c0 7c	 add	 eax, 124		; 0000007cH
  0009b	89 45 ec	 mov	 DWORD PTR tv71[ebp], eax
  0009e	eb 07		 jmp	 SHORT $L199573
$L199572:
  000a0	c7 45 ec 00 00
	00 00		 mov	 DWORD PTR tv71[ebp], 0
$L199573:
  000a7	8b 4d ec	 mov	 ecx, DWORD PTR tv71[ebp]
  000aa	e8 00 00 00 00	 call	 ??1IPanelChangeObserver@@UAE@XZ
  000af	c6 45 fc 00	 mov	 BYTE PTR __$EHRec$[ebp+8], 0
  000b3	83 7d f0 00	 cmp	 DWORD PTR _this$[ebp], 0
  000b7	74 0b		 je	 SHORT $L199570
  000b9	8b 4d f0	 mov	 ecx, DWORD PTR _this$[ebp]
  000bc	83 c1 78	 add	 ecx, 120		; 00000078H
  000bf	89 4d e8	 mov	 DWORD PTR tv67[ebp], ecx
  000c2	eb 07		 jmp	 SHORT $L199571
$L199570:
  000c4	c7 45 e8 00 00
	00 00		 mov	 DWORD PTR tv67[ebp], 0
$L199571:
  000cb	8b 4d e8	 mov	 ecx, DWORD PTR tv67[ebp]
  000ce	e8 00 00 00 00	 call	 ??1ILayoutChangeObserver@@UAE@XZ
  000d3	c7 45 fc ff ff
	ff ff		 mov	 DWORD PTR __$EHRec$[ebp+8], -1
  000da	8b 4d f0	 mov	 ecx, DWORD PTR _this$[ebp]
  000dd	e8 00 00 00 00	 call	 ??1CDialog@@UAE@XZ	; CDialog::~CDialog
  000e2	8b 4d f4	 mov	 ecx, DWORD PTR __$EHRec$[ebp]
  000e5	64 89 0d 00 00
	00 00		 mov	 DWORD PTR fs:__except_list, ecx
  000ec	5e		 pop	 esi
  000ed	83 c4 18	 add	 esp, 24			; 00000018H
  000f0	3b ec		 cmp	 ebp, esp
  000f2	e8 00 00 00 00	 call	 __RTC_CheckEsp
  000f7	8b e5		 mov	 esp, ebp
  000f9	5d		 pop	 ebp
  000fa	c3		 ret	 0
_TEXT	ENDS
;	COMDAT text$x
text$x	SEGMENT
$L199574:
  00000	8b 4d f0	 mov	 ecx, DWORD PTR _this$[ebp]
  00003	e9 00 00 00 00	 jmp	 ??1CDialog@@UAE@XZ	; CDialog::~CDialog
$L199577:
  00008	83 7d f0 00	 cmp	 DWORD PTR _this$[ebp], 0
  0000c	0f 84 0e 00 00
	00		 je	 $L199575
  00012	8b 45 f0	 mov	 eax, DWORD PTR _this$[ebp]
  00015	83 c0 78	 add	 eax, 120		; 00000078H
  00018	89 45 e8	 mov	 DWORD PTR tv67[ebp], eax
  0001b	e9 07 00 00 00	 jmp	 $L199576
$L199575:
  00020	c7 45 e8 00 00
	00 00		 mov	 DWORD PTR tv67[ebp], 0
$L199576:
  00027	8b 4d e8	 mov	 ecx, DWORD PTR tv67[ebp]
  0002a	e9 00 00 00 00	 jmp	 ??1ILayoutChangeObserver@@UAE@XZ
$L199580:
  0002f	83 7d f0 00	 cmp	 DWORD PTR _this$[ebp], 0
  00033	0f 84 0e 00 00
	00		 je	 $L199578
  00039	8b 45 f0	 mov	 eax, DWORD PTR _this$[ebp]
  0003c	83 c0 7c	 add	 eax, 124		; 0000007cH
  0003f	89 45 ec	 mov	 DWORD PTR tv71[ebp], eax
  00042	e9 07 00 00 00	 jmp	 $L199579
$L199578:
  00047	c7 45 ec 00 00
	00 00		 mov	 DWORD PTR tv71[ebp], 0
$L199579:
  0004e	8b 4d ec	 mov	 ecx, DWORD PTR tv71[ebp]
  00051	e9 00 00 00 00	 jmp	 ??1IPanelChangeObserver@@UAE@XZ
$L199581:
  00056	8b 4d f0	 mov	 ecx, DWORD PTR _this$[ebp]
  00059	81 c1 e4 00 00
	00		 add	 ecx, 228		; 000000e4H
  0005f	8b f4		 mov	 esi, esp
  00061	ff 15 00 00 00
	00		 call	 DWORD PTR __imp_??1?$basic_string@DU?$char_traits@D@std@@V?$allocator@D@2@@std@@QAE@XZ
  00067	3b f4		 cmp	 esi, esp
  00069	e9 00 00 00 00	 jmp	 __RTC_CheckEsp
$L199582:
  0006e	8b 4d f0	 mov	 ecx, DWORD PTR _this$[ebp]
  00071	81 c1 00 01 00
	00		 add	 ecx, 256		; 00000100H
  00077	8b f4		 mov	 esi, esp
  00079	ff 15 00 00 00
	00		 call	 DWORD PTR __imp_??1?$basic_string@DU?$char_traits@D@std@@V?$allocator@D@2@@std@@QAE@XZ
  0007f	3b f4		 cmp	 esi, esp
  00081	e9 00 00 00 00	 jmp	 __RTC_CheckEsp
__ehhandler$??1CPlayBoxDlg@@UAE@XZ:
  00086	b8 00 00 00 00	 mov	 eax, OFFSET FLAT:$T199585
  0008b	e9 00 00 00 00	 jmp	 ___CxxFrameHandler
text$x	ENDS
??1CPlayBoxDlg@@UAE@XZ ENDP				; CPlayBoxDlg::~CPlayBoxDlg
EXTRN	??3@YAXPAX@Z:NEAR				; operator delete
; Function compile flags: /Odt /RTCsu
;	COMDAT ??_GILayoutChangeObserver@@UAEPAXI@Z
_TEXT	SEGMENT
_this$ = -4						; size = 4
___flags$ = 8						; size = 4
??_GILayoutChangeObserver@@UAEPAXI@Z PROC NEAR		; ILayoutChangeObserver::`scalar deleting destructor', COMDAT
; _this$ = ecx
  00000	55		 push	 ebp
  00001	8b ec		 mov	 ebp, esp
  00003	51		 push	 ecx
  00004	c7 45 fc cc cc
	cc cc		 mov	 DWORD PTR [ebp-4], -858993460 ; ccccccccH
  0000b	89 4d fc	 mov	 DWORD PTR _this$[ebp], ecx
  0000e	8b 4d fc	 mov	 ecx, DWORD PTR _this$[ebp]
  00011	e8 00 00 00 00	 call	 ??1ILayoutChangeObserver@@UAE@XZ
  00016	8b 45 08	 mov	 eax, DWORD PTR ___flags$[ebp]
  00019	83 e0 01	 and	 eax, 1
  0001c	74 0c		 je	 SHORT $L197099
  0001e	8b 4d fc	 mov	 ecx, DWORD PTR _this$[ebp]
  00021	51		 push	 ecx
  00022	e8 00 00 00 00	 call	 ??3@YAXPAX@Z		; operator delete
  00027	83 c4 04	 add	 esp, 4
$L197099:
  0002a	8b 45 fc	 mov	 eax, DWORD PTR _this$[ebp]
  0002d	83 c4 04	 add	 esp, 4
  00030	3b ec		 cmp	 ebp, esp
  00032	e8 00 00 00 00	 call	 __RTC_CheckEsp
  00037	8b e5		 mov	 esp, ebp
  00039	5d		 pop	 ebp
  0003a	c2 04 00	 ret	 4
??_GILayoutChangeObserver@@UAEPAXI@Z ENDP		; ILayoutChangeObserver::`scalar deleting destructor'
_TEXT	ENDS
PUBLIC	??_7IMessageObserver@@6B@			; IMessageObserver::`vftable'
PUBLIC	??_GIMessageObserver@@UAEPAXI@Z			; IMessageObserver::`scalar deleting destructor'
PUBLIC	??_R4IMessageObserver@@6B@			; IMessageObserver::`RTTI Complete Object Locator'
PUBLIC	??_R3IMessageObserver@@8			; IMessageObserver::`RTTI Class Hierarchy Descriptor'
PUBLIC	??_R2IMessageObserver@@8			; IMessageObserver::`RTTI Base Class Array'
EXTRN	??_EIMessageObserver@@UAEPAXI@Z:NEAR		; IMessageObserver::`vector deleting destructor'
;	COMDAT ??_7IMessageObserver@@6B@
CONST	SEGMENT
??_7IMessageObserver@@6B@ DD FLAT:??_R4IMessageObserver@@6B@ ; IMessageObserver::`vftable'
	DD	FLAT:??_EIMessageObserver@@UAEPAXI@Z
CONST	ENDS
;	COMDAT ??_R4IMessageObserver@@6B@
rdata$r	SEGMENT
??_R4IMessageObserver@@6B@ DD 00H			; IMessageObserver::`RTTI Complete Object Locator'
	DD	00H
	DD	00H
	DD	FLAT:??_R0?AVIMessageObserver@@@8
	DD	FLAT:??_R3IMessageObserver@@8
rdata$r	ENDS
;	COMDAT ??_R3IMessageObserver@@8
rdata$r	SEGMENT
??_R3IMessageObserver@@8 DD 00H				; IMessageObserver::`RTTI Class Hierarchy Descriptor'
	DD	00H
	DD	01H
	DD	FLAT:??_R2IMessageObserver@@8
rdata$r	ENDS
;	COMDAT ??_R2IMessageObserver@@8
rdata$r	SEGMENT
??_R2IMessageObserver@@8 DD FLAT:??_R1A@?0A@A@IMessageObserver@@8 ; IMessageObserver::`RTTI Base Class Array'
; Function compile flags: /Odt /RTCsu
rdata$r	ENDS
;	COMDAT ??0IMessageObserver@@QAE@XZ
_TEXT	SEGMENT
_this$ = -4						; size = 4
??0IMessageObserver@@QAE@XZ PROC NEAR			; IMessageObserver::IMessageObserver, COMDAT
; _this$ = ecx
  00000	55		 push	 ebp
  00001	8b ec		 mov	 ebp, esp
  00003	51		 push	 ecx
  00004	c7 45 fc cc cc
	cc cc		 mov	 DWORD PTR [ebp-4], -858993460 ; ccccccccH
  0000b	89 4d fc	 mov	 DWORD PTR _this$[ebp], ecx
  0000e	8b 45 fc	 mov	 eax, DWORD PTR _this$[ebp]
  00011	c7 00 00 00 00
	00		 mov	 DWORD PTR [eax], OFFSET FLAT:??_7IMessageObserver@@6B@
  00017	8b 45 fc	 mov	 eax, DWORD PTR _this$[ebp]
  0001a	8b e5		 mov	 esp, ebp
  0001c	5d		 pop	 ebp
  0001d	c3		 ret	 0
??0IMessageObserver@@QAE@XZ ENDP			; IMessageObserver::IMessageObserver
; Function compile flags: /Odt /RTCsu
_TEXT	ENDS
;	COMDAT ??_GIPanelChangeObserver@@UAEPAXI@Z
_TEXT	SEGMENT
_this$ = -4						; size = 4
___flags$ = 8						; size = 4
??_GIPanelChangeObserver@@UAEPAXI@Z PROC NEAR		; IPanelChangeObserver::`scalar deleting destructor', COMDAT
; _this$ = ecx
  00000	55		 push	 ebp
  00001	8b ec		 mov	 ebp, esp
  00003	51		 push	 ecx
  00004	c7 45 fc cc cc
	cc cc		 mov	 DWORD PTR [ebp-4], -858993460 ; ccccccccH
  0000b	89 4d fc	 mov	 DWORD PTR _this$[ebp], ecx
  0000e	8b 4d fc	 mov	 ecx, DWORD PTR _this$[ebp]
  00011	e8 00 00 00 00	 call	 ??1IPanelChangeObserver@@UAE@XZ
  00016	8b 45 08	 mov	 eax, DWORD PTR ___flags$[ebp]
  00019	83 e0 01	 and	 eax, 1
  0001c	74 0c		 je	 SHORT $L197104
  0001e	8b 4d fc	 mov	 ecx, DWORD PTR _this$[ebp]
  00021	51		 push	 ecx
  00022	e8 00 00 00 00	 call	 ??3@YAXPAX@Z		; operator delete
  00027	83 c4 04	 add	 esp, 4
$L197104:
  0002a	8b 45 fc	 mov	 eax, DWORD PTR _this$[ebp]
  0002d	83 c4 04	 add	 esp, 4
  00030	3b ec		 cmp	 ebp, esp
  00032	e8 00 00 00 00	 call	 __RTC_CheckEsp
  00037	8b e5		 mov	 esp, ebp
  00039	5d		 pop	 ebp
  0003a	c2 04 00	 ret	 4
??_GIPanelChangeObserver@@UAEPAXI@Z ENDP		; IPanelChangeObserver::`scalar deleting destructor'
_TEXT	ENDS
EXTRN	?DoDataExchange@CWnd@@MAEXPAVCDataExchange@@@Z:NEAR ; CWnd::DoDataExchange
; Function compile flags: /Odt /RTCsu
; File d:\boxgit\playbox\playbox\dev\prj\playbox\playboxdlg.cpp
_TEXT	SEGMENT
_this$ = -4						; size = 4
_pDX$ = 8						; size = 4
?DoDataExchange@CPlayBoxDlg@@MAEXPAVCDataExchange@@@Z PROC NEAR ; CPlayBoxDlg::DoDataExchange
; _this$ = ecx

; 57   : {

  00250	55		 push	 ebp
  00251	8b ec		 mov	 ebp, esp
  00253	51		 push	 ecx
  00254	c7 45 fc cc cc
	cc cc		 mov	 DWORD PTR [ebp-4], -858993460 ; ccccccccH
  0025b	89 4d fc	 mov	 DWORD PTR _this$[ebp], ecx

; 58   : 	CDialog::DoDataExchange(pDX);

  0025e	8b 45 08	 mov	 eax, DWORD PTR _pDX$[ebp]
  00261	50		 push	 eax
  00262	8b 4d fc	 mov	 ecx, DWORD PTR _this$[ebp]
  00265	e8 00 00 00 00	 call	 ?DoDataExchange@CWnd@@MAEXPAVCDataExchange@@@Z ; CWnd::DoDataExchange

; 59   : }

  0026a	83 c4 04	 add	 esp, 4
  0026d	3b ec		 cmp	 ebp, esp
  0026f	e8 00 00 00 00	 call	 __RTC_CheckEsp
  00274	8b e5		 mov	 esp, ebp
  00276	5d		 pop	 ebp
  00277	c2 04 00	 ret	 4
?DoDataExchange@CPlayBoxDlg@@MAEXPAVCDataExchange@@@Z ENDP ; CPlayBoxDlg::DoDataExchange
_TEXT	ENDS
PUBLIC	?GetThisMessageMap@CPlayBoxDlg@@KGPBUAFX_MSGMAP@@XZ ; CPlayBoxDlg::GetThisMessageMap
; Function compile flags: /Odt /RTCsu
_TEXT	SEGMENT
?GetThisMessageMap@CPlayBoxDlg@@KGPBUAFX_MSGMAP@@XZ PROC NEAR ; CPlayBoxDlg::GetThisMessageMap

; 61   : BEGIN_MESSAGE_MAP(CPlayBoxDlg, CDialog)

  00280	55		 push	 ebp
  00281	8b ec		 mov	 ebp, esp
  00283	b8 00 00 00 00	 mov	 eax, OFFSET FLAT:?messageMap@CPlayBoxDlg@@1UAFX_MSGMAP@@B ; CPlayBoxDlg::messageMap
  00288	5d		 pop	 ebp
  00289	c3		 ret	 0
?GetThisMessageMap@CPlayBoxDlg@@KGPBUAFX_MSGMAP@@XZ ENDP ; CPlayBoxDlg::GetThisMessageMap
; Function compile flags: /Odt /RTCsu
_this$ = -4						; size = 4
?GetMessageMap@CPlayBoxDlg@@MBEPBUAFX_MSGMAP@@XZ PROC NEAR ; CPlayBoxDlg::GetMessageMap
; _this$ = ecx

; 61   : BEGIN_MESSAGE_MAP(CPlayBoxDlg, CDialog)

  00290	55		 push	 ebp
  00291	8b ec		 mov	 ebp, esp
  00293	51		 push	 ecx
  00294	c7 45 fc cc cc
	cc cc		 mov	 DWORD PTR [ebp-4], -858993460 ; ccccccccH
  0029b	89 4d fc	 mov	 DWORD PTR _this$[ebp], ecx
  0029e	b8 00 00 00 00	 mov	 eax, OFFSET FLAT:?messageMap@CPlayBoxDlg@@1UAFX_MSGMAP@@B ; CPlayBoxDlg::messageMap
  002a3	8b e5		 mov	 esp, ebp
  002a5	5d		 pop	 ebp
  002a6	c3		 ret	 0
?GetMessageMap@CPlayBoxDlg@@MBEPBUAFX_MSGMAP@@XZ ENDP	; CPlayBoxDlg::GetMessageMap
; Function compile flags: /Odt /RTCsu
_this$ = -4						; size = 4
?OnCancel@CPlayBoxDlg@@MAEXXZ PROC NEAR			; CPlayBoxDlg::OnCancel
; _this$ = ecx

; 94   : {

  002b0	55		 push	 ebp
  002b1	8b ec		 mov	 ebp, esp
  002b3	51		 push	 ecx
  002b4	c7 45 fc cc cc
	cc cc		 mov	 DWORD PTR [ebp-4], -858993460 ; ccccccccH
  002bb	89 4d fc	 mov	 DWORD PTR _this$[ebp], ecx

; 95   : }

  002be	8b e5		 mov	 esp, ebp
  002c0	5d		 pop	 ebp
  002c1	c3		 ret	 0
?OnCancel@CPlayBoxDlg@@MAEXXZ ENDP			; CPlayBoxDlg::OnCancel
; Function compile flags: /Odt /RTCsu
_this$ = -4						; size = 4
?OnOK@CPlayBoxDlg@@MAEXXZ PROC NEAR			; CPlayBoxDlg::OnOK
; _this$ = ecx

; 97   : {

  002d0	55		 push	 ebp
  002d1	8b ec		 mov	 ebp, esp
  002d3	51		 push	 ecx
  002d4	c7 45 fc cc cc
	cc cc		 mov	 DWORD PTR [ebp-4], -858993460 ; ccccccccH
  002db	89 4d fc	 mov	 DWORD PTR _this$[ebp], ecx

; 98   : }

  002de	8b e5		 mov	 esp, ebp
  002e0	5d		 pop	 ebp
  002e1	c3		 ret	 0
?OnOK@CPlayBoxDlg@@MAEXXZ ENDP				; CPlayBoxDlg::OnOK
_TEXT	ENDS
PUBLIC	?DeleteTray@CPlayBoxDlg@@QAEXXZ			; CPlayBoxDlg::DeleteTray
; Function compile flags: /Odt /RTCsu
_TEXT	SEGMENT
tv73 = -16						; size = 4
$T199600 = -12						; size = 4
$T199599 = -8						; size = 4
_this$ = -4						; size = 4
?DeleteTray@CPlayBoxDlg@@QAEXXZ PROC NEAR		; CPlayBoxDlg::DeleteTray
; _this$ = ecx

; 100  : {

  002f0	55		 push	 ebp
  002f1	8b ec		 mov	 ebp, esp
  002f3	83 ec 10	 sub	 esp, 16			; 00000010H
  002f6	56		 push	 esi
  002f7	b8 cc cc cc cc	 mov	 eax, -858993460		; ccccccccH
  002fc	89 45 f0	 mov	 DWORD PTR [ebp-16], eax
  002ff	89 45 f4	 mov	 DWORD PTR [ebp-12], eax
  00302	89 45 f8	 mov	 DWORD PTR [ebp-8], eax
  00305	89 45 fc	 mov	 DWORD PTR [ebp-4], eax
  00308	89 4d fc	 mov	 DWORD PTR _this$[ebp], ecx

; 101  : 	if(m_ptrayIcon != NULL)

  0030b	8b 45 fc	 mov	 eax, DWORD PTR _this$[ebp]
  0030e	83 b8 90 00 00
	00 00		 cmp	 DWORD PTR [eax+144], 0
  00315	74 3a		 je	 SHORT $L197285

; 102  : 		delete m_ptrayIcon;

  00317	8b 4d fc	 mov	 ecx, DWORD PTR _this$[ebp]
  0031a	8b 91 90 00 00
	00		 mov	 edx, DWORD PTR [ecx+144]
  00320	89 55 f4	 mov	 DWORD PTR $T199600[ebp], edx
  00323	8b 45 f4	 mov	 eax, DWORD PTR $T199600[ebp]
  00326	89 45 f8	 mov	 DWORD PTR $T199599[ebp], eax
  00329	83 7d f8 00	 cmp	 DWORD PTR $T199599[ebp], 0
  0032d	74 1b		 je	 SHORT $L199601
  0032f	8b f4		 mov	 esi, esp
  00331	6a 01		 push	 1
  00333	8b 4d f8	 mov	 ecx, DWORD PTR $T199599[ebp]
  00336	8b 11		 mov	 edx, DWORD PTR [ecx]
  00338	8b 4d f8	 mov	 ecx, DWORD PTR $T199599[ebp]
  0033b	ff 52 04	 call	 DWORD PTR [edx+4]
  0033e	3b f4		 cmp	 esi, esp
  00340	e8 00 00 00 00	 call	 __RTC_CheckEsp
  00345	89 45 f0	 mov	 DWORD PTR tv73[ebp], eax
  00348	eb 07		 jmp	 SHORT $L197285
$L199601:
  0034a	c7 45 f0 00 00
	00 00		 mov	 DWORD PTR tv73[ebp], 0
$L197285:

; 103  : 	m_ptrayIcon = NULL;

  00351	8b 45 fc	 mov	 eax, DWORD PTR _this$[ebp]
  00354	c7 80 90 00 00
	00 00 00 00 00	 mov	 DWORD PTR [eax+144], 0

; 104  : }

  0035e	5e		 pop	 esi
  0035f	83 c4 10	 add	 esp, 16			; 00000010H
  00362	3b ec		 cmp	 ebp, esp
  00364	e8 00 00 00 00	 call	 __RTC_CheckEsp
  00369	8b e5		 mov	 esp, ebp
  0036b	5d		 pop	 ebp
  0036c	c3		 ret	 0
?DeleteTray@CPlayBoxDlg@@QAEXXZ ENDP			; CPlayBoxDlg::DeleteTray
_TEXT	ENDS
EXTRN	__imp_??$?8DU?$char_traits@D@std@@V?$allocator@D@1@@std@@YA_NABV?$basic_string@DU?$char_traits@D@std@@V?$allocator@D@2@@0@PBD@Z:NEAR
EXTRN	?AfxGetUserConfig@@YAPAVAfxUserConfig@@XZ:NEAR	; AfxGetUserConfig
EXTRN	__imp_??0?$basic_string@DU?$char_traits@D@std@@V?$allocator@D@2@@std@@QAE@PBD@Z:NEAR
EXTRN	?GetConfigBoolValue@AfxUserConfig@@QAEXABV?$basic_string@DU?$char_traits@D@std@@V?$allocator@D@2@@std@@0AA_N@Z:NEAR ; AfxUserConfig::GetConfigBoolValue
xdata$x	SEGMENT
$T199611 DD	0ffffffffH
	DD	FLAT:$L199606
	DD	00H
	DD	FLAT:$L199607
$T199609 DD	019930520H
	DD	02H
	DD	FLAT:$T199611
	DD	2 DUP(00H)
	DD	2 DUP(00H)
; Function compile flags: /Odt /RTCsu
xdata$x	ENDS
_TEXT	SEGMENT
$T199605 = -72						; size = 28
$T199604 = -44						; size = 28
_this$ = -16						; size = 4
__$EHRec$ = -12						; size = 12
_strKey$ = 8						; size = 4
?OnConfigChange@CPlayBoxDlg@@MAEXABV?$basic_string@DU?$char_traits@D@std@@V?$allocator@D@2@@std@@@Z PROC NEAR ; CPlayBoxDlg::OnConfigChange
; _this$ = ecx

; 107  : {

  00370	55		 push	 ebp
  00371	8b ec		 mov	 ebp, esp
  00373	6a ff		 push	 -1
  00375	68 00 00 00 00	 push	 __ehhandler$?OnConfigChange@CPlayBoxDlg@@MAEXABV?$basic_string@DU?$char_traits@D@std@@V?$allocator@D@2@@std@@@Z
  0037a	64 a1 00 00 00
	00		 mov	 eax, DWORD PTR fs:__except_list
  00380	50		 push	 eax
  00381	64 89 25 00 00
	00 00		 mov	 DWORD PTR fs:__except_list, esp
  00388	83 ec 3c	 sub	 esp, 60			; 0000003cH
  0038b	56		 push	 esi
  0038c	57		 push	 edi
  0038d	51		 push	 ecx
  0038e	8d 7d b8	 lea	 edi, DWORD PTR [ebp-72]
  00391	b9 0f 00 00 00	 mov	 ecx, 15			; 0000000fH
  00396	b8 cc cc cc cc	 mov	 eax, -858993460		; ccccccccH
  0039b	f3 ab		 rep stosd
  0039d	59		 pop	 ecx
  0039e	89 4d f0	 mov	 DWORD PTR _this$[ebp], ecx

; 108  : 	if( strKey == CONF_LAYOUT_NORMAL )

  003a1	8b f4		 mov	 esi, esp
  003a3	a1 00 00 00 00	 mov	 eax, DWORD PTR _CONF_LAYOUT_NORMAL
  003a8	50		 push	 eax
  003a9	8b 4d 08	 mov	 ecx, DWORD PTR _strKey$[ebp]
  003ac	51		 push	 ecx
  003ad	ff 15 00 00 00
	00		 call	 DWORD PTR __imp_??$?8DU?$char_traits@D@std@@V?$allocator@D@1@@std@@YA_NABV?$basic_string@DU?$char_traits@D@std@@V?$allocator@D@2@@0@PBD@Z
  003b3	83 c4 08	 add	 esp, 8
  003b6	3b f4		 cmp	 esi, esp
  003b8	e8 00 00 00 00	 call	 __RTC_CheckEsp
  003bd	0f b6 d0	 movzx	 edx, al
  003c0	85 d2		 test	 edx, edx
  003c2	0f 84 86 00 00
	00		 je	 $L197291

; 109  : 	{
; 110  : 		AfxGetUserConfig()->GetConfigBoolValue( CONF_LAYOUT_MODULE_NAME,CONF_LAYOUT_NORMAL,m_bNormal );

  003c8	8b f4		 mov	 esi, esp
  003ca	a1 00 00 00 00	 mov	 eax, DWORD PTR _CONF_LAYOUT_NORMAL
  003cf	50		 push	 eax
  003d0	8d 4d d4	 lea	 ecx, DWORD PTR $T199604[ebp]
  003d3	ff 15 00 00 00
	00		 call	 DWORD PTR __imp_??0?$basic_string@DU?$char_traits@D@std@@V?$allocator@D@2@@std@@QAE@PBD@Z
  003d9	3b f4		 cmp	 esi, esp
  003db	e8 00 00 00 00	 call	 __RTC_CheckEsp
  003e0	c7 45 fc 00 00
	00 00		 mov	 DWORD PTR __$EHRec$[ebp+8], 0
  003e7	8b f4		 mov	 esi, esp
  003e9	8b 0d 00 00 00
	00		 mov	 ecx, DWORD PTR _CONF_LAYOUT_MODULE_NAME
  003ef	51		 push	 ecx
  003f0	8d 4d b8	 lea	 ecx, DWORD PTR $T199605[ebp]
  003f3	ff 15 00 00 00
	00		 call	 DWORD PTR __imp_??0?$basic_string@DU?$char_traits@D@std@@V?$allocator@D@2@@std@@QAE@PBD@Z
  003f9	3b f4		 cmp	 esi, esp
  003fb	e8 00 00 00 00	 call	 __RTC_CheckEsp
  00400	c6 45 fc 01	 mov	 BYTE PTR __$EHRec$[ebp+8], 1
  00404	8b 55 f0	 mov	 edx, DWORD PTR _this$[ebp]
  00407	83 c2 50	 add	 edx, 80			; 00000050H
  0040a	52		 push	 edx
  0040b	8d 45 d4	 lea	 eax, DWORD PTR $T199604[ebp]
  0040e	50		 push	 eax
  0040f	8d 4d b8	 lea	 ecx, DWORD PTR $T199605[ebp]
  00412	51		 push	 ecx
  00413	e8 00 00 00 00	 call	 ?AfxGetUserConfig@@YAPAVAfxUserConfig@@XZ ; AfxGetUserConfig
  00418	8b c8		 mov	 ecx, eax
  0041a	e8 00 00 00 00	 call	 ?GetConfigBoolValue@AfxUserConfig@@QAEXABV?$basic_string@DU?$char_traits@D@std@@V?$allocator@D@2@@std@@0AA_N@Z ; AfxUserConfig::GetConfigBoolValue
  0041f	c6 45 fc 00	 mov	 BYTE PTR __$EHRec$[ebp+8], 0
  00423	8b f4		 mov	 esi, esp
  00425	8d 4d b8	 lea	 ecx, DWORD PTR $T199605[ebp]
  00428	ff 15 00 00 00
	00		 call	 DWORD PTR __imp_??1?$basic_string@DU?$char_traits@D@std@@V?$allocator@D@2@@std@@QAE@XZ
  0042e	3b f4		 cmp	 esi, esp
  00430	e8 00 00 00 00	 call	 __RTC_CheckEsp
  00435	c7 45 fc ff ff
	ff ff		 mov	 DWORD PTR __$EHRec$[ebp+8], -1
  0043c	8b f4		 mov	 esi, esp
  0043e	8d 4d d4	 lea	 ecx, DWORD PTR $T199604[ebp]
  00441	ff 15 00 00 00
	00		 call	 DWORD PTR __imp_??1?$basic_string@DU?$char_traits@D@std@@V?$allocator@D@2@@std@@QAE@XZ
  00447	3b f4		 cmp	 esi, esp
  00449	e8 00 00 00 00	 call	 __RTC_CheckEsp
$L197291:

; 111  : 	}
; 112  : }

  0044e	8b 4d f4	 mov	 ecx, DWORD PTR __$EHRec$[ebp]
  00451	64 89 0d 00 00
	00 00		 mov	 DWORD PTR fs:__except_list, ecx
  00458	5f		 pop	 edi
  00459	5e		 pop	 esi
  0045a	83 c4 48	 add	 esp, 72			; 00000048H
  0045d	3b ec		 cmp	 ebp, esp
  0045f	e8 00 00 00 00	 call	 __RTC_CheckEsp
  00464	8b e5		 mov	 esp, ebp
  00466	5d		 pop	 ebp
  00467	c2 04 00	 ret	 4
_TEXT	ENDS
text$x	SEGMENT
$L199606:
  00081	8b f4		 mov	 esi, esp
  00083	8d 4d d4	 lea	 ecx, DWORD PTR $T199604[ebp]
  00086	ff 15 00 00 00
	00		 call	 DWORD PTR __imp_??1?$basic_string@DU?$char_traits@D@std@@V?$allocator@D@2@@std@@QAE@XZ
  0008c	3b f4		 cmp	 esi, esp
  0008e	e9 00 00 00 00	 jmp	 __RTC_CheckEsp
$L199607:
  00093	8b f4		 mov	 esi, esp
  00095	8d 4d b8	 lea	 ecx, DWORD PTR $T199605[ebp]
  00098	ff 15 00 00 00
	00		 call	 DWORD PTR __imp_??1?$basic_string@DU?$char_traits@D@std@@V?$allocator@D@2@@std@@QAE@XZ
  0009e	3b f4		 cmp	 esi, esp
  000a0	e9 00 00 00 00	 jmp	 __RTC_CheckEsp
__ehhandler$?OnConfigChange@CPlayBoxDlg@@MAEXABV?$basic_string@DU?$char_traits@D@std@@V?$allocator@D@2@@std@@@Z:
  000a5	b8 00 00 00 00	 mov	 eax, OFFSET FLAT:$T199609
  000aa	e9 00 00 00 00	 jmp	 ___CxxFrameHandler
text$x	ENDS
?OnConfigChange@CPlayBoxDlg@@MAEXABV?$basic_string@DU?$char_traits@D@std@@V?$allocator@D@2@@std@@@Z ENDP ; CPlayBoxDlg::OnConfigChange
EXTRN	?AfxGetMessageManager@@YAPAVIMessageManager@@XZ:NEAR ; AfxGetMessageManager
EXTRN	?AfxGetUIManager@@YAPAVIUIManager@@XZ:NEAR	; AfxGetUIManager
EXTRN	?OnClose@CWnd@@IAEXXZ:NEAR			; CWnd::OnClose
EXTRN	?DelInstance@TabWndFactory@@SAXXZ:NEAR		; TabWndFactory::DelInstance
EXTRN	?DelInstance@HttpDownCtrl@@SAXXZ:NEAR		; HttpDownCtrl::DelInstance
EXTRN	__imp_?YL_Log@@YAXABV?$basic_string@DU?$char_traits@D@std@@V?$allocator@D@2@@std@@H0PBDZZ:NEAR
EXTRN	?GetInstance@CIrregularBorderMgr@@SAPAV1@XZ:NEAR ; CIrregularBorderMgr::GetInstance
EXTRN	?ShowTransDlg@CIrregularBorderMgr@@QAEX_N@Z:NEAR ; CIrregularBorderMgr::ShowTransDlg
EXTRN	?theApp@@3VCPlayBoxApp@@A:BYTE			; theApp
EXTRN	?KillTimer@CWnd@@QAEHI@Z:NEAR			; CWnd::KillTimer
EXTRN	__imp__CloseHandle@4:NEAR
EXTRN	?EndDialog@CDialog@@QAEXH@Z:NEAR		; CDialog::EndDialog
xdata$x	SEGMENT
$T199628 DD	0ffffffffH
	DD	FLAT:$L199623
	DD	00H
	DD	FLAT:$L199624
$T199626 DD	019930520H
	DD	02H
	DD	FLAT:$T199628
	DD	2 DUP(00H)
	DD	2 DUP(00H)
; Function compile flags: /Odt /RTCsu
xdata$x	ENDS
_TEXT	SEGMENT
tv147 = -104						; size = 4
tv137 = -100						; size = 4
tv142 = -96						; size = 4
tv95 = -92						; size = 4
tv132 = -88						; size = 4
tv88 = -84						; size = 4
$T199616 = -80						; size = 4
$T199615 = -76						; size = 4
$T199614 = -72						; size = 28
$T199613 = -44						; size = 28
_this$ = -16						; size = 4
__$EHRec$ = -12						; size = 12
?OnClose@CPlayBoxDlg@@IAEXXZ PROC NEAR			; CPlayBoxDlg::OnClose
; _this$ = ecx

; 115  : {

  00470	55		 push	 ebp
  00471	8b ec		 mov	 ebp, esp
  00473	6a ff		 push	 -1
  00475	68 00 00 00 00	 push	 __ehhandler$?OnClose@CPlayBoxDlg@@IAEXXZ
  0047a	64 a1 00 00 00
	00		 mov	 eax, DWORD PTR fs:__except_list
  00480	50		 push	 eax
  00481	64 89 25 00 00
	00 00		 mov	 DWORD PTR fs:__except_list, esp
  00488	83 ec 5c	 sub	 esp, 92			; 0000005cH
  0048b	56		 push	 esi
  0048c	57		 push	 edi
  0048d	51		 push	 ecx
  0048e	8d 7d 98	 lea	 edi, DWORD PTR [ebp-104]
  00491	b9 17 00 00 00	 mov	 ecx, 23			; 00000017H
  00496	b8 cc cc cc cc	 mov	 eax, -858993460		; ccccccccH
  0049b	f3 ab		 rep stosd
  0049d	59		 pop	 ecx
  0049e	89 4d f0	 mov	 DWORD PTR _this$[ebp], ecx

; 116  : 	YL_Log( STR_LOG_FILE ,LOG_NOTICE,"PlayBoxDlg","OnClose" );

  004a1	8b f4		 mov	 esi, esp
  004a3	68 00 00 00 00	 push	 OFFSET FLAT:$SG197301
  004a8	8d 4d d4	 lea	 ecx, DWORD PTR $T199613[ebp]
  004ab	ff 15 00 00 00
	00		 call	 DWORD PTR __imp_??0?$basic_string@DU?$char_traits@D@std@@V?$allocator@D@2@@std@@QAE@PBD@Z
  004b1	3b f4		 cmp	 esi, esp
  004b3	e8 00 00 00 00	 call	 __RTC_CheckEsp
  004b8	c7 45 fc 00 00
	00 00		 mov	 DWORD PTR __$EHRec$[ebp+8], 0
  004bf	8b f4		 mov	 esi, esp
  004c1	68 00 00 00 00	 push	 OFFSET FLAT:$SG197302
  004c6	8d 4d b8	 lea	 ecx, DWORD PTR $T199614[ebp]
  004c9	ff 15 00 00 00
	00		 call	 DWORD PTR __imp_??0?$basic_string@DU?$char_traits@D@std@@V?$allocator@D@2@@std@@QAE@PBD@Z
  004cf	3b f4		 cmp	 esi, esp
  004d1	e8 00 00 00 00	 call	 __RTC_CheckEsp
  004d6	c6 45 fc 01	 mov	 BYTE PTR __$EHRec$[ebp+8], 1
  004da	8b f4		 mov	 esi, esp
  004dc	68 00 00 00 00	 push	 OFFSET FLAT:$SG197300
  004e1	8d 45 d4	 lea	 eax, DWORD PTR $T199613[ebp]
  004e4	50		 push	 eax
  004e5	6a 01		 push	 1
  004e7	8d 4d b8	 lea	 ecx, DWORD PTR $T199614[ebp]
  004ea	51		 push	 ecx
  004eb	ff 15 00 00 00
	00		 call	 DWORD PTR __imp_?YL_Log@@YAXABV?$basic_string@DU?$char_traits@D@std@@V?$allocator@D@2@@std@@H0PBDZZ
  004f1	83 c4 10	 add	 esp, 16			; 00000010H
  004f4	3b f4		 cmp	 esi, esp
  004f6	e8 00 00 00 00	 call	 __RTC_CheckEsp
  004fb	c6 45 fc 00	 mov	 BYTE PTR __$EHRec$[ebp+8], 0
  004ff	8b f4		 mov	 esi, esp
  00501	8d 4d b8	 lea	 ecx, DWORD PTR $T199614[ebp]
  00504	ff 15 00 00 00
	00		 call	 DWORD PTR __imp_??1?$basic_string@DU?$char_traits@D@std@@V?$allocator@D@2@@std@@QAE@XZ
  0050a	3b f4		 cmp	 esi, esp
  0050c	e8 00 00 00 00	 call	 __RTC_CheckEsp
  00511	c7 45 fc ff ff
	ff ff		 mov	 DWORD PTR __$EHRec$[ebp+8], -1
  00518	8b f4		 mov	 esi, esp
  0051a	8d 4d d4	 lea	 ecx, DWORD PTR $T199613[ebp]
  0051d	ff 15 00 00 00
	00		 call	 DWORD PTR __imp_??1?$basic_string@DU?$char_traits@D@std@@V?$allocator@D@2@@std@@QAE@XZ
  00523	3b f4		 cmp	 esi, esp
  00525	e8 00 00 00 00	 call	 __RTC_CheckEsp

; 117  : 
; 118  : 	CIrregularBorderMgr::GetInstance()->ShowTransDlg(false);

  0052a	6a 00		 push	 0
  0052c	e8 00 00 00 00	 call	 ?GetInstance@CIrregularBorderMgr@@SAPAV1@XZ ; CIrregularBorderMgr::GetInstance
  00531	8b c8		 mov	 ecx, eax
  00533	e8 00 00 00 00	 call	 ?ShowTransDlg@CIrregularBorderMgr@@QAEX_N@Z ; CIrregularBorderMgr::ShowTransDlg

; 119  : 	if(m_ptrayIcon != NULL)

  00538	8b 55 f0	 mov	 edx, DWORD PTR _this$[ebp]
  0053b	83 ba 90 00 00
	00 00		 cmp	 DWORD PTR [edx+144], 0
  00542	74 47		 je	 SHORT $L197303

; 120  : 	{
; 121  : 		delete m_ptrayIcon;

  00544	8b 45 f0	 mov	 eax, DWORD PTR _this$[ebp]
  00547	8b 88 90 00 00
	00		 mov	 ecx, DWORD PTR [eax+144]
  0054d	89 4d b0	 mov	 DWORD PTR $T199616[ebp], ecx
  00550	8b 55 b0	 mov	 edx, DWORD PTR $T199616[ebp]
  00553	89 55 b4	 mov	 DWORD PTR $T199615[ebp], edx
  00556	83 7d b4 00	 cmp	 DWORD PTR $T199615[ebp], 0
  0055a	74 1b		 je	 SHORT $L199617
  0055c	8b f4		 mov	 esi, esp
  0055e	6a 01		 push	 1
  00560	8b 45 b4	 mov	 eax, DWORD PTR $T199615[ebp]
  00563	8b 10		 mov	 edx, DWORD PTR [eax]
  00565	8b 4d b4	 mov	 ecx, DWORD PTR $T199615[ebp]
  00568	ff 52 04	 call	 DWORD PTR [edx+4]
  0056b	3b f4		 cmp	 esi, esp
  0056d	e8 00 00 00 00	 call	 __RTC_CheckEsp
  00572	89 45 ac	 mov	 DWORD PTR tv88[ebp], eax
  00575	eb 07		 jmp	 SHORT $L199618
$L199617:
  00577	c7 45 ac 00 00
	00 00		 mov	 DWORD PTR tv88[ebp], 0
$L199618:

; 122  : 		m_ptrayIcon = NULL;

  0057e	8b 45 f0	 mov	 eax, DWORD PTR _this$[ebp]
  00581	c7 80 90 00 00
	00 00 00 00 00	 mov	 DWORD PTR [eax+144], 0
$L197303:

; 123  : 	}
; 124  : 	CloseHandle(theApp.m_hMutexhandle);

  0058b	8b f4		 mov	 esi, esp
  0058d	8b 0d a4 00 00
	00		 mov	 ecx, DWORD PTR ?theApp@@3VCPlayBoxApp@@A+164
  00593	51		 push	 ecx
  00594	ff 15 00 00 00
	00		 call	 DWORD PTR __imp__CloseHandle@4
  0059a	3b f4		 cmp	 esi, esp
  0059c	e8 00 00 00 00	 call	 __RTC_CheckEsp

; 125  : 	EndDialog(0);

  005a1	6a 00		 push	 0
  005a3	8b 4d f0	 mov	 ecx, DWORD PTR _this$[ebp]
  005a6	e8 00 00 00 00	 call	 ?EndDialog@CDialog@@QAEXH@Z ; CDialog::EndDialog

; 126  : 	AfxGetMessageManager()->DetachMessage( ID_MESSAGE_LAYOUTMGR,(ILayoutChangeObserver*) this);

  005ab	83 7d f0 00	 cmp	 DWORD PTR _this$[ebp], 0
  005af	74 0b		 je	 SHORT $L199619
  005b1	8b 55 f0	 mov	 edx, DWORD PTR _this$[ebp]
  005b4	83 c2 78	 add	 edx, 120		; 00000078H
  005b7	89 55 a8	 mov	 DWORD PTR tv132[ebp], edx
  005ba	eb 07		 jmp	 SHORT $L199620
$L199619:
  005bc	c7 45 a8 00 00
	00 00		 mov	 DWORD PTR tv132[ebp], 0
$L199620:
  005c3	e8 00 00 00 00	 call	 ?AfxGetMessageManager@@YAPAVIMessageManager@@XZ ; AfxGetMessageManager
  005c8	89 45 a4	 mov	 DWORD PTR tv95[ebp], eax
  005cb	8b f4		 mov	 esi, esp
  005cd	8b 45 a8	 mov	 eax, DWORD PTR tv132[ebp]
  005d0	50		 push	 eax
  005d1	68 00 00 00 00	 push	 OFFSET FLAT:_ID_MESSAGE_LAYOUTMGR
  005d6	8b 4d a4	 mov	 ecx, DWORD PTR tv95[ebp]
  005d9	8b 11		 mov	 edx, DWORD PTR [ecx]
  005db	8b 4d a4	 mov	 ecx, DWORD PTR tv95[ebp]
  005de	ff 52 08	 call	 DWORD PTR [edx+8]
  005e1	3b f4		 cmp	 esi, esp
  005e3	e8 00 00 00 00	 call	 __RTC_CheckEsp

; 127  : 	AfxGetMessageManager()->DetachMessage( ID_MESSAGE_PANEL_CHANGE,(IPanelChangeObserver*)this);

  005e8	83 7d f0 00	 cmp	 DWORD PTR _this$[ebp], 0
  005ec	74 0b		 je	 SHORT $L199621
  005ee	8b 45 f0	 mov	 eax, DWORD PTR _this$[ebp]
  005f1	83 c0 7c	 add	 eax, 124		; 0000007cH
  005f4	89 45 a0	 mov	 DWORD PTR tv142[ebp], eax
  005f7	eb 07		 jmp	 SHORT $L199622
$L199621:
  005f9	c7 45 a0 00 00
	00 00		 mov	 DWORD PTR tv142[ebp], 0
$L199622:
  00600	e8 00 00 00 00	 call	 ?AfxGetMessageManager@@YAPAVIMessageManager@@XZ ; AfxGetMessageManager
  00605	89 45 9c	 mov	 DWORD PTR tv137[ebp], eax
  00608	8b f4		 mov	 esi, esp
  0060a	8b 4d a0	 mov	 ecx, DWORD PTR tv142[ebp]
  0060d	51		 push	 ecx
  0060e	68 00 00 00 00	 push	 OFFSET FLAT:_ID_MESSAGE_PANEL_CHANGE
  00613	8b 55 9c	 mov	 edx, DWORD PTR tv137[ebp]
  00616	8b 02		 mov	 eax, DWORD PTR [edx]
  00618	8b 4d 9c	 mov	 ecx, DWORD PTR tv137[ebp]
  0061b	ff 50 08	 call	 DWORD PTR [eax+8]
  0061e	3b f4		 cmp	 esi, esp
  00620	e8 00 00 00 00	 call	 __RTC_CheckEsp

; 128  : 	AfxGetUIManager()->UIManAppExit();

  00625	e8 00 00 00 00	 call	 ?AfxGetUIManager@@YAPAVIUIManager@@XZ ; AfxGetUIManager
  0062a	89 45 98	 mov	 DWORD PTR tv147[ebp], eax
  0062d	8b 4d 98	 mov	 ecx, DWORD PTR tv147[ebp]
  00630	8b 11		 mov	 edx, DWORD PTR [ecx]
  00632	8b f4		 mov	 esi, esp
  00634	8b 4d 98	 mov	 ecx, DWORD PTR tv147[ebp]
  00637	ff 52 08	 call	 DWORD PTR [edx+8]
  0063a	3b f4		 cmp	 esi, esp
  0063c	e8 00 00 00 00	 call	 __RTC_CheckEsp

; 129  : 	KillTimer( TIMER_TRIM_MEM );

  00641	6a 14		 push	 20			; 00000014H
  00643	8b 4d f0	 mov	 ecx, DWORD PTR _this$[ebp]
  00646	e8 00 00 00 00	 call	 ?KillTimer@CWnd@@QAEHI@Z ; CWnd::KillTimer

; 130  : 	if(m_uCloseTimer!=0)

  0064b	8b 45 f0	 mov	 eax, DWORD PTR _this$[ebp]
  0064e	83 b8 d8 00 00
	00 00		 cmp	 DWORD PTR [eax+216], 0
  00655	74 12		 je	 SHORT $L197308

; 131  : 		KillTimer(m_uCloseTimer);

  00657	8b 4d f0	 mov	 ecx, DWORD PTR _this$[ebp]
  0065a	8b 91 d8 00 00
	00		 mov	 edx, DWORD PTR [ecx+216]
  00660	52		 push	 edx
  00661	8b 4d f0	 mov	 ecx, DWORD PTR _this$[ebp]
  00664	e8 00 00 00 00	 call	 ?KillTimer@CWnd@@QAEHI@Z ; CWnd::KillTimer
$L197308:

; 132  : 	m_bExit = true;

  00669	8b 45 f0	 mov	 eax, DWORD PTR _this$[ebp]
  0066c	c7 80 84 00 00
	00 01 00 00 00	 mov	 DWORD PTR [eax+132], 1

; 133  : 
; 134  : 	HttpDownCtrl::DelInstance();

  00676	e8 00 00 00 00	 call	 ?DelInstance@HttpDownCtrl@@SAXXZ ; HttpDownCtrl::DelInstance

; 135  : 	TabWndFactory::DelInstance();

  0067b	e8 00 00 00 00	 call	 ?DelInstance@TabWndFactory@@SAXXZ ; TabWndFactory::DelInstance

; 136  : 
; 137  : 	__super::OnClose();

  00680	8b 4d f0	 mov	 ecx, DWORD PTR _this$[ebp]
  00683	e8 00 00 00 00	 call	 ?OnClose@CWnd@@IAEXXZ	; CWnd::OnClose

; 138  : }

  00688	8b 4d f4	 mov	 ecx, DWORD PTR __$EHRec$[ebp]
  0068b	64 89 0d 00 00
	00 00		 mov	 DWORD PTR fs:__except_list, ecx
  00692	5f		 pop	 edi
  00693	5e		 pop	 esi
  00694	83 c4 68	 add	 esp, 104		; 00000068H
  00697	3b ec		 cmp	 ebp, esp
  00699	e8 00 00 00 00	 call	 __RTC_CheckEsp
  0069e	8b e5		 mov	 esp, ebp
  006a0	5d		 pop	 ebp
  006a1	c3		 ret	 0
_TEXT	ENDS
text$x	SEGMENT
$L199623:
  000af	8b f4		 mov	 esi, esp
  000b1	8d 4d d4	 lea	 ecx, DWORD PTR $T199613[ebp]
  000b4	ff 15 00 00 00
	00		 call	 DWORD PTR __imp_??1?$basic_string@DU?$char_traits@D@std@@V?$allocator@D@2@@std@@QAE@XZ
  000ba	3b f4		 cmp	 esi, esp
  000bc	e9 00 00 00 00	 jmp	 __RTC_CheckEsp
$L199624:
  000c1	8b f4		 mov	 esi, esp
  000c3	8d 4d b8	 lea	 ecx, DWORD PTR $T199614[ebp]
  000c6	ff 15 00 00 00
	00		 call	 DWORD PTR __imp_??1?$basic_string@DU?$char_traits@D@std@@V?$allocator@D@2@@std@@QAE@XZ
  000cc	3b f4		 cmp	 esi, esp
  000ce	e9 00 00 00 00	 jmp	 __RTC_CheckEsp
__ehhandler$?OnClose@CPlayBoxDlg@@IAEXXZ:
  000d3	b8 00 00 00 00	 mov	 eax, OFFSET FLAT:$T199626
  000d8	e9 00 00 00 00	 jmp	 ___CxxFrameHandler
text$x	ENDS
?OnClose@CPlayBoxDlg@@IAEXXZ ENDP			; CPlayBoxDlg::OnClose
; Function compile flags: /Odt /RTCsu
_TEXT	SEGMENT
_this$ = -4						; size = 4
_wParam$ = 8						; size = 4
_lParam$ = 12						; size = 4
?OnDeleteTray@CPlayBoxDlg@@QAEJIJ@Z PROC NEAR		; CPlayBoxDlg::OnDeleteTray
; _this$ = ecx

; 141  : {

  006b0	55		 push	 ebp
  006b1	8b ec		 mov	 ebp, esp
  006b3	51		 push	 ecx
  006b4	c7 45 fc cc cc
	cc cc		 mov	 DWORD PTR [ebp-4], -858993460 ; ccccccccH
  006bb	89 4d fc	 mov	 DWORD PTR _this$[ebp], ecx

; 142  : 	DeleteTray();

  006be	8b 4d fc	 mov	 ecx, DWORD PTR _this$[ebp]
  006c1	e8 00 00 00 00	 call	 ?DeleteTray@CPlayBoxDlg@@QAEXXZ ; CPlayBoxDlg::DeleteTray

; 143  : 	return -1;

  006c6	83 c8 ff	 or	 eax, -1

; 144  : }

  006c9	83 c4 04	 add	 esp, 4
  006cc	3b ec		 cmp	 ebp, esp
  006ce	e8 00 00 00 00	 call	 __RTC_CheckEsp
  006d3	8b e5		 mov	 esp, ebp
  006d5	5d		 pop	 ebp
  006d6	c2 08 00	 ret	 8
?OnDeleteTray@CPlayBoxDlg@@QAEJIJ@Z ENDP		; CPlayBoxDlg::OnDeleteTray
_TEXT	ENDS
PUBLIC	?Log_StartMessage@@YGKPAX@Z			; Log_StartMessage
EXTRN	__imp_?LogRealMsg@@YAXABV?$basic_string@DU?$char_traits@D@std@@V?$allocator@D@2@@std@@0_NPAPAEPAI@Z:NEAR
EXTRN	__imp__WaitForSingleObject@8:NEAR
xdata$x	SEGMENT
$T199638 DD	0ffffffffH
	DD	FLAT:$L199633
	DD	00H
	DD	FLAT:$L199634
$T199636 DD	019930520H
	DD	02H
	DD	FLAT:$T199638
	DD	2 DUP(00H)
	DD	2 DUP(00H)
; Function compile flags: /Odt /RTCsu
xdata$x	ENDS
_TEXT	SEGMENT
$T199632 = -68						; size = 28
$T199631 = -40						; size = 28
__$EHRec$ = -12						; size = 12
___formal$ = 8						; size = 4
?Log_StartMessage@@YGKPAX@Z PROC NEAR			; Log_StartMessage

; 150  : {

  006e0	55		 push	 ebp
  006e1	8b ec		 mov	 ebp, esp
  006e3	6a ff		 push	 -1
  006e5	68 00 00 00 00	 push	 __ehhandler$?Log_StartMessage@@YGKPAX@Z
  006ea	64 a1 00 00 00
	00		 mov	 eax, DWORD PTR fs:__except_list
  006f0	50		 push	 eax
  006f1	64 89 25 00 00
	00 00		 mov	 DWORD PTR fs:__except_list, esp
  006f8	83 ec 38	 sub	 esp, 56			; 00000038H
  006fb	56		 push	 esi
  006fc	57		 push	 edi
  006fd	8d 7d bc	 lea	 edi, DWORD PTR [ebp-68]
  00700	b9 0e 00 00 00	 mov	 ecx, 14			; 0000000eH
  00705	b8 cc cc cc cc	 mov	 eax, -858993460		; ccccccccH
  0070a	f3 ab		 rep stosd

; 151  : 	if( WaitForSingleObject(g_hStartEvent,10*1000) == WAIT_TIMEOUT )

  0070c	8b f4		 mov	 esi, esp
  0070e	68 10 27 00 00	 push	 10000			; 00002710H
  00713	a1 00 00 00 00	 mov	 eax, DWORD PTR ?g_hStartEvent@@3PAXA ; g_hStartEvent
  00718	50		 push	 eax
  00719	ff 15 00 00 00
	00		 call	 DWORD PTR __imp__WaitForSingleObject@8
  0071f	3b f4		 cmp	 esi, esp
  00721	e8 00 00 00 00	 call	 __RTC_CheckEsp
  00726	3d 02 01 00 00	 cmp	 eax, 258		; 00000102H
  0072b	0f 85 88 00 00
	00		 jne	 $L197318

; 152  : 	{
; 153  : 		LogRealMsg("START_TIMEOUT","");

  00731	8b f4		 mov	 esi, esp
  00733	68 00 00 00 00	 push	 OFFSET FLAT:$SG197321
  00738	8d 4d d8	 lea	 ecx, DWORD PTR $T199631[ebp]
  0073b	ff 15 00 00 00
	00		 call	 DWORD PTR __imp_??0?$basic_string@DU?$char_traits@D@std@@V?$allocator@D@2@@std@@QAE@PBD@Z
  00741	3b f4		 cmp	 esi, esp
  00743	e8 00 00 00 00	 call	 __RTC_CheckEsp
  00748	c7 45 fc 00 00
	00 00		 mov	 DWORD PTR __$EHRec$[ebp+8], 0
  0074f	8b f4		 mov	 esi, esp
  00751	68 00 00 00 00	 push	 OFFSET FLAT:$SG197322
  00756	8d 4d bc	 lea	 ecx, DWORD PTR $T199632[ebp]
  00759	ff 15 00 00 00
	00		 call	 DWORD PTR __imp_??0?$basic_string@DU?$char_traits@D@std@@V?$allocator@D@2@@std@@QAE@PBD@Z
  0075f	3b f4		 cmp	 esi, esp
  00761	e8 00 00 00 00	 call	 __RTC_CheckEsp
  00766	c6 45 fc 01	 mov	 BYTE PTR __$EHRec$[ebp+8], 1
  0076a	8b f4		 mov	 esi, esp
  0076c	6a 00		 push	 0
  0076e	6a 00		 push	 0
  00770	6a 00		 push	 0
  00772	8d 4d d8	 lea	 ecx, DWORD PTR $T199631[ebp]
  00775	51		 push	 ecx
  00776	8d 55 bc	 lea	 edx, DWORD PTR $T199632[ebp]
  00779	52		 push	 edx
  0077a	ff 15 00 00 00
	00		 call	 DWORD PTR __imp_?LogRealMsg@@YAXABV?$basic_string@DU?$char_traits@D@std@@V?$allocator@D@2@@std@@0_NPAPAEPAI@Z
  00780	83 c4 14	 add	 esp, 20			; 00000014H
  00783	3b f4		 cmp	 esi, esp
  00785	e8 00 00 00 00	 call	 __RTC_CheckEsp
  0078a	c6 45 fc 00	 mov	 BYTE PTR __$EHRec$[ebp+8], 0
  0078e	8b f4		 mov	 esi, esp
  00790	8d 4d bc	 lea	 ecx, DWORD PTR $T199632[ebp]
  00793	ff 15 00 00 00
	00		 call	 DWORD PTR __imp_??1?$basic_string@DU?$char_traits@D@std@@V?$allocator@D@2@@std@@QAE@XZ
  00799	3b f4		 cmp	 esi, esp
  0079b	e8 00 00 00 00	 call	 __RTC_CheckEsp
  007a0	c7 45 fc ff ff
	ff ff		 mov	 DWORD PTR __$EHRec$[ebp+8], -1
  007a7	8b f4		 mov	 esi, esp
  007a9	8d 4d d8	 lea	 ecx, DWORD PTR $T199631[ebp]
  007ac	ff 15 00 00 00
	00		 call	 DWORD PTR __imp_??1?$basic_string@DU?$char_traits@D@std@@V?$allocator@D@2@@std@@QAE@XZ
  007b2	3b f4		 cmp	 esi, esp
  007b4	e8 00 00 00 00	 call	 __RTC_CheckEsp
$L197318:

; 154  : 	}
; 155  : 	return 0;

  007b9	33 c0		 xor	 eax, eax

; 156  : }

  007bb	8b 4d f4	 mov	 ecx, DWORD PTR __$EHRec$[ebp]
  007be	64 89 0d 00 00
	00 00		 mov	 DWORD PTR fs:__except_list, ecx
  007c5	5f		 pop	 edi
  007c6	5e		 pop	 esi
  007c7	83 c4 44	 add	 esp, 68			; 00000044H
  007ca	3b ec		 cmp	 ebp, esp
  007cc	e8 00 00 00 00	 call	 __RTC_CheckEsp
  007d1	8b e5		 mov	 esp, ebp
  007d3	5d		 pop	 ebp
  007d4	c2 04 00	 ret	 4
_TEXT	ENDS
text$x	SEGMENT
$L199633:
  000dd	8b f4		 mov	 esi, esp
  000df	8d 4d d8	 lea	 ecx, DWORD PTR $T199631[ebp]
  000e2	ff 15 00 00 00
	00		 call	 DWORD PTR __imp_??1?$basic_string@DU?$char_traits@D@std@@V?$allocator@D@2@@std@@QAE@XZ
  000e8	3b f4		 cmp	 esi, esp
  000ea	e9 00 00 00 00	 jmp	 __RTC_CheckEsp
$L199634:
  000ef	8b f4		 mov	 esi, esp
  000f1	8d 4d bc	 lea	 ecx, DWORD PTR $T199632[ebp]
  000f4	ff 15 00 00 00
	00		 call	 DWORD PTR __imp_??1?$basic_string@DU?$char_traits@D@std@@V?$allocator@D@2@@std@@QAE@XZ
  000fa	3b f4		 cmp	 esi, esp
  000fc	e9 00 00 00 00	 jmp	 __RTC_CheckEsp
__ehhandler$?Log_StartMessage@@YGKPAX@Z:
  00101	b8 00 00 00 00	 mov	 eax, OFFSET FLAT:$T199636
  00106	e9 00 00 00 00	 jmp	 ___CxxFrameHandler
text$x	ENDS
?Log_StartMessage@@YGKPAX@Z ENDP			; Log_StartMessage
PUBLIC	?_AdjustDlgSize@CPlayBoxDlg@@AAEXXZ		; CPlayBoxDlg::_AdjustDlgSize
EXTRN	__imp__SendMessageA@16:NEAR
EXTRN	?AfxGetDataManager2@@YAPAVIDataManager@@XZ:NEAR	; AfxGetDataManager2
EXTRN	?AfxGetMainWindow@@YAPAVCWnd@@XZ:NEAR		; AfxGetMainWindow
EXTRN	?AfxSetMainWindow@@YAXPAVCWnd@@@Z:NEAR		; AfxSetMainWindow
EXTRN	__imp__SetProcessWorkingSetSize@12:NEAR
EXTRN	__imp__GetCurrentProcess@0:NEAR
EXTRN	__imp__CreateMutexA@12:NEAR
EXTRN	__imp__CreateEventA@16:NEAR
EXTRN	?ModifyStyle@CWnd@@QAEHKKI@Z:NEAR		; CWnd::ModifyStyle
EXTRN	?g_hSharedWnd@@3PAUHWND__@@A:DWORD		; g_hSharedWnd
EXTRN	__imp__CreateThread@24:NEAR
EXTRN	?AttachConfigMessage@AfxUserConfig@@QAEXABV?$basic_string@DU?$char_traits@D@std@@V?$allocator@D@2@@std@@PAVAfxUserConfig_Observer@@@Z:NEAR ; AfxUserConfig::AttachConfigMessage
EXTRN	?GetConfigIntValue@AfxUserConfig@@QAEXABV?$basic_string@DU?$char_traits@D@std@@V?$allocator@D@2@@std@@0AAH@Z:NEAR ; AfxUserConfig::GetConfigIntValue
EXTRN	__imp__sprintf:NEAR
EXTRN	?PostMessageA@CWnd@@QAEHIIJ@Z:NEAR		; CWnd::PostMessageA
EXTRN	?SetWindowTextA@CWnd@@QAEXPBD@Z:NEAR		; CWnd::SetWindowTextA
EXTRN	__imp_?LogUserActMsg@@YAXABV?$basic_string@DU?$char_traits@D@std@@V?$allocator@D@2@@std@@0@Z:NEAR
EXTRN	__imp__SetEvent@4:NEAR
EXTRN	__imp__ReleaseMutex@4:NEAR
EXTRN	?SetNotificationWnd@CTrayIcon@@QAEXPAVCWnd@@I@Z:NEAR ; CTrayIcon::SetNotificationWnd
EXTRN	?SetIcon@CTrayIcon@@QAEHPAUHICON__@@PBD@Z:NEAR	; CTrayIcon::SetIcon
EXTRN	?OnInitDialog@CDialog@@UAEHXZ:NEAR		; CDialog::OnInitDialog
EXTRN	__imp__SetTimer@16:NEAR
EXTRN	?SetIcon@CWnd@@QAEPAUHICON__@@PAU2@H@Z:NEAR	; CWnd::SetIcon
xdata$x	SEGMENT
$T199676 DD	0ffffffffH
	DD	FLAT:$L199658
	DD	00H
	DD	FLAT:$L199659
	DD	0ffffffffH
	DD	FLAT:$L199660
	DD	02H
	DD	FLAT:$L199661
	DD	0ffffffffH
	DD	FLAT:$L199662
	DD	04H
	DD	FLAT:$L199663
	DD	0ffffffffH
	DD	FLAT:$L199664
	DD	0ffffffffH
	DD	FLAT:$L199665
	DD	07H
	DD	FLAT:$L199666
	DD	0ffffffffH
	DD	FLAT:$L199667
	DD	09H
	DD	FLAT:$L199668
$T199670 DD	019930520H
	DD	0bH
	DD	FLAT:$T199676
	DD	2 DUP(00H)
	DD	2 DUP(00H)
; Function compile flags: /Odt /RTCsu
xdata$x	ENDS
_TEXT	SEGMENT
tv258 = -408						; size = 4
tv245 = -404						; size = 4
tv251 = -400						; size = 4
tv235 = -396						; size = 4
tv240 = -392						; size = 4
tv153 = -388						; size = 4
$T199657 = -384						; size = 28
$T199656 = -356						; size = 28
$T199655 = -328						; size = 28
$T199654 = -300						; size = 28
$T199653 = -272						; size = 28
$T199646 = -244						; size = 28
$T199645 = -216						; size = 28
$T199644 = -188						; size = 28
$T199643 = -160						; size = 28
$T199642 = -132						; size = 28
$T199641 = -104						; size = 28
_szBuffer$ = -72					; size = 32
_pUserConfig$ = -36					; size = 4
_bUIStart$ = -29					; size = 1
_curMutexHandle$ = -28					; size = 4
_dwStart$ = -24						; size = 4
_this$ = -20						; size = 4
__$ArrayPad$ = -16					; size = 4
__$EHRec$ = -12						; size = 12
__$ReturnAddr$ = 4					; size = 4
?OnInitDialog@CPlayBoxDlg@@MAEHXZ PROC NEAR		; CPlayBoxDlg::OnInitDialog
; _this$ = ecx

; 159  : {

  007e0	55		 push	 ebp
  007e1	8b ec		 mov	 ebp, esp
  007e3	6a ff		 push	 -1
  007e5	68 00 00 00 00	 push	 __ehhandler$?OnInitDialog@CPlayBoxDlg@@MAEHXZ
  007ea	64 a1 00 00 00
	00		 mov	 eax, DWORD PTR fs:__except_list
  007f0	50		 push	 eax
  007f1	64 89 25 00 00
	00 00		 mov	 DWORD PTR fs:__except_list, esp
  007f8	81 ec 8c 01 00
	00		 sub	 esp, 396		; 0000018cH
  007fe	56		 push	 esi
  007ff	57		 push	 edi
  00800	51		 push	 ecx
  00801	8d bd 68 fe ff
	ff		 lea	 edi, DWORD PTR [ebp-408]
  00807	b9 63 00 00 00	 mov	 ecx, 99			; 00000063H
  0080c	b8 cc cc cc cc	 mov	 eax, -858993460		; ccccccccH
  00811	f3 ab		 rep stosd
  00813	59		 pop	 ecx
  00814	a1 00 00 00 00	 mov	 eax, DWORD PTR ___security_cookie
  00819	89 45 f0	 mov	 DWORD PTR __$ArrayPad$[ebp], eax
  0081c	89 4d ec	 mov	 DWORD PTR _this$[ebp], ecx

; 160  : 	DWORD dwStart = GetTickCount();

  0081f	8b f4		 mov	 esi, esp
  00821	ff 15 00 00 00
	00		 call	 DWORD PTR __imp__GetTickCount@0
  00827	3b f4		 cmp	 esi, esp
  00829	e8 00 00 00 00	 call	 __RTC_CheckEsp
  0082e	89 45 e8	 mov	 DWORD PTR _dwStart$[ebp], eax

; 161  : 	AfxSetMainWindow( this );

  00831	8b 45 ec	 mov	 eax, DWORD PTR _this$[ebp]
  00834	50		 push	 eax
  00835	e8 00 00 00 00	 call	 ?AfxSetMainWindow@@YAXPAVCWnd@@@Z ; AfxSetMainWindow
  0083a	83 c4 04	 add	 esp, 4

; 162  : 	g_hStartEvent = CreateEvent(NULL,FALSE,FALSE,NULL );

  0083d	8b f4		 mov	 esi, esp
  0083f	6a 00		 push	 0
  00841	6a 00		 push	 0
  00843	6a 00		 push	 0
  00845	6a 00		 push	 0
  00847	ff 15 00 00 00
	00		 call	 DWORD PTR __imp__CreateEventA@16
  0084d	3b f4		 cmp	 esi, esp
  0084f	e8 00 00 00 00	 call	 __RTC_CheckEsp
  00854	a3 00 00 00 00	 mov	 DWORD PTR ?g_hStartEvent@@3PAXA, eax ; g_hStartEvent

; 163  : 	CloseHandle( CreateThread(0,0,Log_StartMessage,0,0,0) );

  00859	8b f4		 mov	 esi, esp
  0085b	6a 00		 push	 0
  0085d	6a 00		 push	 0
  0085f	6a 00		 push	 0
  00861	68 00 00 00 00	 push	 OFFSET FLAT:?Log_StartMessage@@YGKPAX@Z ; Log_StartMessage
  00866	6a 00		 push	 0
  00868	6a 00		 push	 0
  0086a	ff 15 00 00 00
	00		 call	 DWORD PTR __imp__CreateThread@24
  00870	3b f4		 cmp	 esi, esp
  00872	e8 00 00 00 00	 call	 __RTC_CheckEsp
  00877	8b f4		 mov	 esi, esp
  00879	50		 push	 eax
  0087a	ff 15 00 00 00
	00		 call	 DWORD PTR __imp__CloseHandle@4
  00880	3b f4		 cmp	 esi, esp
  00882	e8 00 00 00 00	 call	 __RTC_CheckEsp

; 164  : 
; 165  : 	HANDLE curMutexHandle=CreateMutex(NULL,false,"PBMutex");

  00887	8b f4		 mov	 esi, esp
  00889	68 00 00 00 00	 push	 OFFSET FLAT:$SG197328
  0088e	6a 00		 push	 0
  00890	6a 00		 push	 0
  00892	ff 15 00 00 00
	00		 call	 DWORD PTR __imp__CreateMutexA@12
  00898	3b f4		 cmp	 esi, esp
  0089a	e8 00 00 00 00	 call	 __RTC_CheckEsp
  0089f	89 45 e4	 mov	 DWORD PTR _curMutexHandle$[ebp], eax

; 166  : 
; 167  : 	CDialog::OnInitDialog();

  008a2	8b 4d ec	 mov	 ecx, DWORD PTR _this$[ebp]
  008a5	e8 00 00 00 00	 call	 ?OnInitDialog@CDialog@@UAEHXZ ; CDialog::OnInitDialog

; 168  : 
; 169  : 	SetIcon(m_hIcon, TRUE);			// 

  008aa	6a 01		 push	 1
  008ac	8b 4d ec	 mov	 ecx, DWORD PTR _this$[ebp]
  008af	8b 91 8c 00 00
	00		 mov	 edx, DWORD PTR [ecx+140]
  008b5	52		 push	 edx
  008b6	8b 4d ec	 mov	 ecx, DWORD PTR _this$[ebp]
  008b9	e8 00 00 00 00	 call	 ?SetIcon@CWnd@@QAEPAUHICON__@@PAU2@H@Z ; CWnd::SetIcon

; 170  : 	SetIcon(m_hIcon, FALSE);		// 

  008be	6a 00		 push	 0
  008c0	8b 45 ec	 mov	 eax, DWORD PTR _this$[ebp]
  008c3	8b 88 8c 00 00
	00		 mov	 ecx, DWORD PTR [eax+140]
  008c9	51		 push	 ecx
  008ca	8b 4d ec	 mov	 ecx, DWORD PTR _this$[ebp]
  008cd	e8 00 00 00 00	 call	 ?SetIcon@CWnd@@QAEPAUHICON__@@PAU2@H@Z ; CWnd::SetIcon

; 171  : 
; 172  : 	m_pUIManager = AfxGetUIManager();

  008d2	e8 00 00 00 00	 call	 ?AfxGetUIManager@@YAPAVIUIManager@@XZ ; AfxGetUIManager
  008d7	8b 55 ec	 mov	 edx, DWORD PTR _this$[ebp]
  008da	89 82 c8 00 00
	00		 mov	 DWORD PTR [edx+200], eax

; 173  : 	bool bUIStart = m_pUIManager->UIManAppStart();

  008e0	8b 45 ec	 mov	 eax, DWORD PTR _this$[ebp]
  008e3	8b 88 c8 00 00
	00		 mov	 ecx, DWORD PTR [eax+200]
  008e9	8b 55 ec	 mov	 edx, DWORD PTR _this$[ebp]
  008ec	8b 82 c8 00 00
	00		 mov	 eax, DWORD PTR [edx+200]
  008f2	8b 11		 mov	 edx, DWORD PTR [ecx]
  008f4	8b f4		 mov	 esi, esp
  008f6	8b c8		 mov	 ecx, eax
  008f8	ff 52 04	 call	 DWORD PTR [edx+4]
  008fb	3b f4		 cmp	 esi, esp
  008fd	e8 00 00 00 00	 call	 __RTC_CheckEsp
  00902	88 45 e3	 mov	 BYTE PTR _bUIStart$[ebp], al

; 174  : 	if( !bUIStart )

  00905	0f b6 45 e3	 movzx	 eax, BYTE PTR _bUIStart$[ebp]
  00909	85 c0		 test	 eax, eax
  0090b	75 28		 jne	 SHORT $L197330

; 175  : 	{
; 176  : 		::SendMessage(::AfxGetMainWindow()->m_hWnd, WM_CLOSE, 0, 0);

  0090d	8b f4		 mov	 esi, esp
  0090f	6a 00		 push	 0
  00911	6a 00		 push	 0
  00913	6a 10		 push	 16			; 00000010H
  00915	e8 00 00 00 00	 call	 ?AfxGetMainWindow@@YAPAVCWnd@@XZ ; AfxGetMainWindow
  0091a	8b 48 20	 mov	 ecx, DWORD PTR [eax+32]
  0091d	51		 push	 ecx
  0091e	ff 15 00 00 00
	00		 call	 DWORD PTR __imp__SendMessageA@16
  00924	3b f4		 cmp	 esi, esp
  00926	e8 00 00 00 00	 call	 __RTC_CheckEsp

; 177  : 		return TRUE;

  0092b	b8 01 00 00 00	 mov	 eax, 1
  00930	e9 b0 05 00 00	 jmp	 $L197325
$L197330:

; 178  : 	}
; 179  : 	
; 180  : 	::SetProcessWorkingSetSize(::GetCurrentProcess(), -1, -1);

  00935	8b f4		 mov	 esi, esp
  00937	6a ff		 push	 -1
  00939	6a ff		 push	 -1
  0093b	8b fc		 mov	 edi, esp
  0093d	ff 15 00 00 00
	00		 call	 DWORD PTR __imp__GetCurrentProcess@0
  00943	3b fc		 cmp	 edi, esp
  00945	e8 00 00 00 00	 call	 __RTC_CheckEsp
  0094a	50		 push	 eax
  0094b	ff 15 00 00 00
	00		 call	 DWORD PTR __imp__SetProcessWorkingSetSize@12
  00951	3b f4		 cmp	 esi, esp
  00953	e8 00 00 00 00	 call	 __RTC_CheckEsp

; 181  : 	::SetTimer(m_hWnd,TIMER_TRIM_MEM,30*1000,NULL);

  00958	8b f4		 mov	 esi, esp
  0095a	6a 00		 push	 0
  0095c	68 30 75 00 00	 push	 30000			; 00007530H
  00961	6a 14		 push	 20			; 00000014H
  00963	8b 55 ec	 mov	 edx, DWORD PTR _this$[ebp]
  00966	8b 42 20	 mov	 eax, DWORD PTR [edx+32]
  00969	50		 push	 eax
  0096a	ff 15 00 00 00
	00		 call	 DWORD PTR __imp__SetTimer@16
  00970	3b f4		 cmp	 esi, esp
  00972	e8 00 00 00 00	 call	 __RTC_CheckEsp

; 182  : 
; 183  : 	GLOBAL_ADDATA;

  00977	e8 00 00 00 00	 call	 ?AfxGetDataManager2@@YAPAVIDataManager@@XZ ; AfxGetDataManager2
  0097c	89 85 7c fe ff
	ff		 mov	 DWORD PTR tv153[ebp], eax
  00982	8b f4		 mov	 esi, esp
  00984	68 00 00 00 00	 push	 OFFSET FLAT:_ID_DATA_AD
  00989	8b 8d 7c fe ff
	ff		 mov	 ecx, DWORD PTR tv153[ebp]
  0098f	8b 11		 mov	 edx, DWORD PTR [ecx]
  00991	8b 8d 7c fe ff
	ff		 mov	 ecx, DWORD PTR tv153[ebp]
  00997	ff 52 0c	 call	 DWORD PTR [edx+12]
  0099a	3b f4		 cmp	 esi, esp
  0099c	e8 00 00 00 00	 call	 __RTC_CheckEsp

; 184  : 
; 185  : 	AfxUserConfig* pUserConfig = AfxGetUserConfig();

  009a1	e8 00 00 00 00	 call	 ?AfxGetUserConfig@@YAPAVAfxUserConfig@@XZ ; AfxGetUserConfig
  009a6	89 45 dc	 mov	 DWORD PTR _pUserConfig$[ebp], eax

; 186  : 	AfxGetUserConfig()->GetConfigIntValue( CONF_LAYOUT_MODULE_NAME, CONF_LAYOUT_MIN_WIDTH, m_nMinCx );

  009a9	8b f4		 mov	 esi, esp
  009ab	a1 00 00 00 00	 mov	 eax, DWORD PTR _CONF_LAYOUT_MIN_WIDTH
  009b0	50		 push	 eax
  009b1	8d 4d 98	 lea	 ecx, DWORD PTR $T199641[ebp]
  009b4	ff 15 00 00 00
	00		 call	 DWORD PTR __imp_??0?$basic_string@DU?$char_traits@D@std@@V?$allocator@D@2@@std@@QAE@PBD@Z
  009ba	3b f4		 cmp	 esi, esp
  009bc	e8 00 00 00 00	 call	 __RTC_CheckEsp
  009c1	c7 45 fc 00 00
	00 00		 mov	 DWORD PTR __$EHRec$[ebp+8], 0
  009c8	8b f4		 mov	 esi, esp
  009ca	8b 0d 00 00 00
	00		 mov	 ecx, DWORD PTR _CONF_LAYOUT_MODULE_NAME
  009d0	51		 push	 ecx
  009d1	8d 8d 7c ff ff
	ff		 lea	 ecx, DWORD PTR $T199642[ebp]
  009d7	ff 15 00 00 00
	00		 call	 DWORD PTR __imp_??0?$basic_string@DU?$char_traits@D@std@@V?$allocator@D@2@@std@@QAE@PBD@Z
  009dd	3b f4		 cmp	 esi, esp
  009df	e8 00 00 00 00	 call	 __RTC_CheckEsp
  009e4	c6 45 fc 01	 mov	 BYTE PTR __$EHRec$[ebp+8], 1
  009e8	8b 55 ec	 mov	 edx, DWORD PTR _this$[ebp]
  009eb	81 c2 cc 00 00
	00		 add	 edx, 204		; 000000ccH
  009f1	52		 push	 edx
  009f2	8d 45 98	 lea	 eax, DWORD PTR $T199641[ebp]
  009f5	50		 push	 eax
  009f6	8d 8d 7c ff ff
	ff		 lea	 ecx, DWORD PTR $T199642[ebp]
  009fc	51		 push	 ecx
  009fd	e8 00 00 00 00	 call	 ?AfxGetUserConfig@@YAPAVAfxUserConfig@@XZ ; AfxGetUserConfig
  00a02	8b c8		 mov	 ecx, eax
  00a04	e8 00 00 00 00	 call	 ?GetConfigIntValue@AfxUserConfig@@QAEXABV?$basic_string@DU?$char_traits@D@std@@V?$allocator@D@2@@std@@0AAH@Z ; AfxUserConfig::GetConfigIntValue
  00a09	c6 45 fc 00	 mov	 BYTE PTR __$EHRec$[ebp+8], 0
  00a0d	8b f4		 mov	 esi, esp
  00a0f	8d 8d 7c ff ff
	ff		 lea	 ecx, DWORD PTR $T199642[ebp]
  00a15	ff 15 00 00 00
	00		 call	 DWORD PTR __imp_??1?$basic_string@DU?$char_traits@D@std@@V?$allocator@D@2@@std@@QAE@XZ
  00a1b	3b f4		 cmp	 esi, esp
  00a1d	e8 00 00 00 00	 call	 __RTC_CheckEsp
  00a22	c7 45 fc ff ff
	ff ff		 mov	 DWORD PTR __$EHRec$[ebp+8], -1
  00a29	8b f4		 mov	 esi, esp
  00a2b	8d 4d 98	 lea	 ecx, DWORD PTR $T199641[ebp]
  00a2e	ff 15 00 00 00
	00		 call	 DWORD PTR __imp_??1?$basic_string@DU?$char_traits@D@std@@V?$allocator@D@2@@std@@QAE@XZ
  00a34	3b f4		 cmp	 esi, esp
  00a36	e8 00 00 00 00	 call	 __RTC_CheckEsp

; 187  : 	AfxGetUserConfig()->GetConfigIntValue( CONF_LAYOUT_MODULE_NAME, CONF_LAYOUT_MIN_HEIGHT, m_nMinCy );

  00a3b	8b f4		 mov	 esi, esp
  00a3d	8b 15 00 00 00
	00		 mov	 edx, DWORD PTR _CONF_LAYOUT_MIN_HEIGHT
  00a43	52		 push	 edx
  00a44	8d 8d 60 ff ff
	ff		 lea	 ecx, DWORD PTR $T199643[ebp]
  00a4a	ff 15 00 00 00
	00		 call	 DWORD PTR __imp_??0?$basic_string@DU?$char_traits@D@std@@V?$allocator@D@2@@std@@QAE@PBD@Z
  00a50	3b f4		 cmp	 esi, esp
  00a52	e8 00 00 00 00	 call	 __RTC_CheckEsp
  00a57	c7 45 fc 02 00
	00 00		 mov	 DWORD PTR __$EHRec$[ebp+8], 2
  00a5e	8b f4		 mov	 esi, esp
  00a60	a1 00 00 00 00	 mov	 eax, DWORD PTR _CONF_LAYOUT_MODULE_NAME
  00a65	50		 push	 eax
  00a66	8d 8d 44 ff ff
	ff		 lea	 ecx, DWORD PTR $T199644[ebp]
  00a6c	ff 15 00 00 00
	00		 call	 DWORD PTR __imp_??0?$basic_string@DU?$char_traits@D@std@@V?$allocator@D@2@@std@@QAE@PBD@Z
  00a72	3b f4		 cmp	 esi, esp
  00a74	e8 00 00 00 00	 call	 __RTC_CheckEsp
  00a79	c6 45 fc 03	 mov	 BYTE PTR __$EHRec$[ebp+8], 3
  00a7d	8b 4d ec	 mov	 ecx, DWORD PTR _this$[ebp]
  00a80	81 c1 d0 00 00
	00		 add	 ecx, 208		; 000000d0H
  00a86	51		 push	 ecx
  00a87	8d 95 60 ff ff
	ff		 lea	 edx, DWORD PTR $T199643[ebp]
  00a8d	52		 push	 edx
  00a8e	8d 85 44 ff ff
	ff		 lea	 eax, DWORD PTR $T199644[ebp]
  00a94	50		 push	 eax
  00a95	e8 00 00 00 00	 call	 ?AfxGetUserConfig@@YAPAVAfxUserConfig@@XZ ; AfxGetUserConfig
  00a9a	8b c8		 mov	 ecx, eax
  00a9c	e8 00 00 00 00	 call	 ?GetConfigIntValue@AfxUserConfig@@QAEXABV?$basic_string@DU?$char_traits@D@std@@V?$allocator@D@2@@std@@0AAH@Z ; AfxUserConfig::GetConfigIntValue
  00aa1	c6 45 fc 02	 mov	 BYTE PTR __$EHRec$[ebp+8], 2
  00aa5	8b f4		 mov	 esi, esp
  00aa7	8d 8d 44 ff ff
	ff		 lea	 ecx, DWORD PTR $T199644[ebp]
  00aad	ff 15 00 00 00
	00		 call	 DWORD PTR __imp_??1?$basic_string@DU?$char_traits@D@std@@V?$allocator@D@2@@std@@QAE@XZ
  00ab3	3b f4		 cmp	 esi, esp
  00ab5	e8 00 00 00 00	 call	 __RTC_CheckEsp
  00aba	c7 45 fc ff ff
	ff ff		 mov	 DWORD PTR __$EHRec$[ebp+8], -1
  00ac1	8b f4		 mov	 esi, esp
  00ac3	8d 8d 60 ff ff
	ff		 lea	 ecx, DWORD PTR $T199643[ebp]
  00ac9	ff 15 00 00 00
	00		 call	 DWORD PTR __imp_??1?$basic_string@DU?$char_traits@D@std@@V?$allocator@D@2@@std@@QAE@XZ
  00acf	3b f4		 cmp	 esi, esp
  00ad1	e8 00 00 00 00	 call	 __RTC_CheckEsp

; 188  : 
; 189  : 	if(m_nMinCx < 300 || m_nMinCx > 1400)

  00ad6	8b 4d ec	 mov	 ecx, DWORD PTR _this$[ebp]
  00ad9	81 b9 cc 00 00
	00 2c 01 00 00	 cmp	 DWORD PTR [ecx+204], 300 ; 0000012cH
  00ae3	7c 0f		 jl	 SHORT $L197338
  00ae5	8b 55 ec	 mov	 edx, DWORD PTR _this$[ebp]
  00ae8	81 ba cc 00 00
	00 78 05 00 00	 cmp	 DWORD PTR [edx+204], 1400 ; 00000578H
  00af2	7e 0d		 jle	 SHORT $L197337
$L197338:

; 190  : 		m_nMinCx = 650;

  00af4	8b 45 ec	 mov	 eax, DWORD PTR _this$[ebp]
  00af7	c7 80 cc 00 00
	00 8a 02 00 00	 mov	 DWORD PTR [eax+204], 650 ; 0000028aH
$L197337:

; 191  : 	if(m_nMinCy < 300 || m_nMinCy > 1024)

  00b01	8b 4d ec	 mov	 ecx, DWORD PTR _this$[ebp]
  00b04	81 b9 d0 00 00
	00 2c 01 00 00	 cmp	 DWORD PTR [ecx+208], 300 ; 0000012cH
  00b0e	7c 0f		 jl	 SHORT $L197340
  00b10	8b 55 ec	 mov	 edx, DWORD PTR _this$[ebp]
  00b13	81 ba d0 00 00
	00 00 04 00 00	 cmp	 DWORD PTR [edx+208], 1024 ; 00000400H
  00b1d	7e 0d		 jle	 SHORT $L197339
$L197340:

; 192  : 		m_nMinCy = 400;

  00b1f	8b 45 ec	 mov	 eax, DWORD PTR _this$[ebp]
  00b22	c7 80 d0 00 00
	00 90 01 00 00	 mov	 DWORD PTR [eax+208], 400 ; 00000190H
$L197339:

; 193  : 
; 194  : 
; 195  : 	g_hSharedWnd = m_hWnd;

  00b2c	8b 4d ec	 mov	 ecx, DWORD PTR _this$[ebp]
  00b2f	8b 51 20	 mov	 edx, DWORD PTR [ecx+32]
  00b32	89 15 00 00 00
	00		 mov	 DWORD PTR ?g_hSharedWnd@@3PAUHWND__@@A, edx ; g_hSharedWnd

; 196  : 	m_ptrayIcon->SetNotificationWnd(this, WM_MY_TRAY_NOTIFICATION);

  00b38	68 35 09 00 00	 push	 2357			; 00000935H
  00b3d	8b 45 ec	 mov	 eax, DWORD PTR _this$[ebp]
  00b40	50		 push	 eax
  00b41	8b 4d ec	 mov	 ecx, DWORD PTR _this$[ebp]
  00b44	8b 89 90 00 00
	00		 mov	 ecx, DWORD PTR [ecx+144]
  00b4a	e8 00 00 00 00	 call	 ?SetNotificationWnd@CTrayIcon@@QAEXPAVCWnd@@I@Z ; CTrayIcon::SetNotificationWnd

; 197  : 	SetWindowText("");

  00b4f	68 00 00 00 00	 push	 OFFSET FLAT:$SG197341
  00b54	8b 4d ec	 mov	 ecx, DWORD PTR _this$[ebp]
  00b57	e8 00 00 00 00	 call	 ?SetWindowTextA@CWnd@@QAEXPBD@Z ; CWnd::SetWindowTextA

; 198  : 	_AdjustDlgSize();

  00b5c	8b 4d ec	 mov	 ecx, DWORD PTR _this$[ebp]
  00b5f	e8 00 00 00 00	 call	 ?_AdjustDlgSize@CPlayBoxDlg@@AAEXXZ ; CPlayBoxDlg::_AdjustDlgSize

; 199  : 
; 200  : 	m_ptrayIcon->SetIcon(theApp.LoadIcon(IDR_MAINFRAME),"");

  00b64	68 00 00 00 00	 push	 OFFSET FLAT:$SG197342
  00b69	68 80 00 00 00	 push	 128			; 00000080H
  00b6e	b9 00 00 00 00	 mov	 ecx, OFFSET FLAT:?theApp@@3VCPlayBoxApp@@A
  00b73	e8 00 00 00 00	 call	 ?LoadIconA@CWinApp@@QBEPAUHICON__@@I@Z ; CWinApp::LoadIconA
  00b78	50		 push	 eax
  00b79	8b 55 ec	 mov	 edx, DWORD PTR _this$[ebp]
  00b7c	8b 8a 90 00 00
	00		 mov	 ecx, DWORD PTR [edx+144]
  00b82	e8 00 00 00 00	 call	 ?SetIcon@CTrayIcon@@QAEHPAUHICON__@@PBD@Z ; CTrayIcon::SetIcon

; 201  : 
; 202  : 	ReleaseMutex(curMutexHandle);

  00b87	8b f4		 mov	 esi, esp
  00b89	8b 45 e4	 mov	 eax, DWORD PTR _curMutexHandle$[ebp]
  00b8c	50		 push	 eax
  00b8d	ff 15 00 00 00
	00		 call	 DWORD PTR __imp__ReleaseMutex@4
  00b93	3b f4		 cmp	 esi, esp
  00b95	e8 00 00 00 00	 call	 __RTC_CheckEsp

; 203  : 
; 204  : 	char szBuffer[32];
; 205  : 	sprintf(szBuffer,"T:%d",GetTickCount() - dwStart);	

  00b9a	8b f4		 mov	 esi, esp
  00b9c	ff 15 00 00 00
	00		 call	 DWORD PTR __imp__GetTickCount@0
  00ba2	3b f4		 cmp	 esi, esp
  00ba4	e8 00 00 00 00	 call	 __RTC_CheckEsp
  00ba9	2b 45 e8	 sub	 eax, DWORD PTR _dwStart$[ebp]
  00bac	8b f4		 mov	 esi, esp
  00bae	50		 push	 eax
  00baf	68 00 00 00 00	 push	 OFFSET FLAT:$SG197344
  00bb4	8d 4d b8	 lea	 ecx, DWORD PTR _szBuffer$[ebp]
  00bb7	51		 push	 ecx
  00bb8	ff 15 00 00 00
	00		 call	 DWORD PTR __imp__sprintf
  00bbe	83 c4 0c	 add	 esp, 12			; 0000000cH
  00bc1	3b f4		 cmp	 esi, esp
  00bc3	e8 00 00 00 00	 call	 __RTC_CheckEsp

; 206  : 	LogUserActMsg( "AppInit",szBuffer );

  00bc8	8b f4		 mov	 esi, esp
  00bca	8d 55 b8	 lea	 edx, DWORD PTR _szBuffer$[ebp]
  00bcd	52		 push	 edx
  00bce	8d 8d 28 ff ff
	ff		 lea	 ecx, DWORD PTR $T199645[ebp]
  00bd4	ff 15 00 00 00
	00		 call	 DWORD PTR __imp_??0?$basic_string@DU?$char_traits@D@std@@V?$allocator@D@2@@std@@QAE@PBD@Z
  00bda	3b f4		 cmp	 esi, esp
  00bdc	e8 00 00 00 00	 call	 __RTC_CheckEsp
  00be1	c7 45 fc 04 00
	00 00		 mov	 DWORD PTR __$EHRec$[ebp+8], 4
  00be8	8b f4		 mov	 esi, esp
  00bea	68 00 00 00 00	 push	 OFFSET FLAT:$SG197347
  00bef	8d 8d 0c ff ff
	ff		 lea	 ecx, DWORD PTR $T199646[ebp]
  00bf5	ff 15 00 00 00
	00		 call	 DWORD PTR __imp_??0?$basic_string@DU?$char_traits@D@std@@V?$allocator@D@2@@std@@QAE@PBD@Z
  00bfb	3b f4		 cmp	 esi, esp
  00bfd	e8 00 00 00 00	 call	 __RTC_CheckEsp
  00c02	c6 45 fc 05	 mov	 BYTE PTR __$EHRec$[ebp+8], 5
  00c06	8b f4		 mov	 esi, esp
  00c08	8d 85 28 ff ff
	ff		 lea	 eax, DWORD PTR $T199645[ebp]
  00c0e	50		 push	 eax
  00c0f	8d 8d 0c ff ff
	ff		 lea	 ecx, DWORD PTR $T199646[ebp]
  00c15	51		 push	 ecx
  00c16	ff 15 00 00 00
	00		 call	 DWORD PTR __imp_?LogUserActMsg@@YAXABV?$basic_string@DU?$char_traits@D@std@@V?$allocator@D@2@@std@@0@Z
  00c1c	83 c4 08	 add	 esp, 8
  00c1f	3b f4		 cmp	 esi, esp
  00c21	e8 00 00 00 00	 call	 __RTC_CheckEsp
  00c26	c6 45 fc 04	 mov	 BYTE PTR __$EHRec$[ebp+8], 4
  00c2a	8b f4		 mov	 esi, esp
  00c2c	8d 8d 0c ff ff
	ff		 lea	 ecx, DWORD PTR $T199646[ebp]
  00c32	ff 15 00 00 00
	00		 call	 DWORD PTR __imp_??1?$basic_string@DU?$char_traits@D@std@@V?$allocator@D@2@@std@@QAE@XZ
  00c38	3b f4		 cmp	 esi, esp
  00c3a	e8 00 00 00 00	 call	 __RTC_CheckEsp
  00c3f	c7 45 fc ff ff
	ff ff		 mov	 DWORD PTR __$EHRec$[ebp+8], -1
  00c46	8b f4		 mov	 esi, esp
  00c48	8d 8d 28 ff ff
	ff		 lea	 ecx, DWORD PTR $T199645[ebp]
  00c4e	ff 15 00 00 00
	00		 call	 DWORD PTR __imp_??1?$basic_string@DU?$char_traits@D@std@@V?$allocator@D@2@@std@@QAE@XZ
  00c54	3b f4		 cmp	 esi, esp
  00c56	e8 00 00 00 00	 call	 __RTC_CheckEsp

; 207  : 
; 208  : 	//
; 209  : 	ModifyStyle(0, WS_SYSMENU|WS_MINIMIZEBOX|WS_MAXIMIZEBOX);

  00c5b	6a 00		 push	 0
  00c5d	68 00 00 0b 00	 push	 720896			; 000b0000H
  00c62	6a 00		 push	 0
  00c64	8b 4d ec	 mov	 ecx, DWORD PTR _this$[ebp]
  00c67	e8 00 00 00 00	 call	 ?ModifyStyle@CWnd@@QAEHKKI@Z ; CWnd::ModifyStyle

; 210  : 
; 211  : 	AfxGetMessageManager()->DetachMessage( ID_MESSAGE_LAYOUTMGR,(ILayoutChangeObserver*) this);

  00c6c	83 7d ec 00	 cmp	 DWORD PTR _this$[ebp], 0
  00c70	74 0e		 je	 SHORT $L199647
  00c72	8b 55 ec	 mov	 edx, DWORD PTR _this$[ebp]
  00c75	83 c2 78	 add	 edx, 120		; 00000078H
  00c78	89 95 78 fe ff
	ff		 mov	 DWORD PTR tv240[ebp], edx
  00c7e	eb 0a		 jmp	 SHORT $L199648
$L199647:
  00c80	c7 85 78 fe ff
	ff 00 00 00 00	 mov	 DWORD PTR tv240[ebp], 0
$L199648:
  00c8a	e8 00 00 00 00	 call	 ?AfxGetMessageManager@@YAPAVIMessageManager@@XZ ; AfxGetMessageManager
  00c8f	89 85 74 fe ff
	ff		 mov	 DWORD PTR tv235[ebp], eax
  00c95	8b f4		 mov	 esi, esp
  00c97	8b 85 78 fe ff
	ff		 mov	 eax, DWORD PTR tv240[ebp]
  00c9d	50		 push	 eax
  00c9e	68 00 00 00 00	 push	 OFFSET FLAT:_ID_MESSAGE_LAYOUTMGR
  00ca3	8b 8d 74 fe ff
	ff		 mov	 ecx, DWORD PTR tv235[ebp]
  00ca9	8b 11		 mov	 edx, DWORD PTR [ecx]
  00cab	8b 8d 74 fe ff
	ff		 mov	 ecx, DWORD PTR tv235[ebp]
  00cb1	ff 52 08	 call	 DWORD PTR [edx+8]
  00cb4	3b f4		 cmp	 esi, esp
  00cb6	e8 00 00 00 00	 call	 __RTC_CheckEsp

; 212  : 	AfxGetMessageManager()->AttachMessage( ID_MESSAGE_PANEL_CHANGE,(IPanelChangeObserver*) this);

  00cbb	83 7d ec 00	 cmp	 DWORD PTR _this$[ebp], 0
  00cbf	74 0e		 je	 SHORT $L199649
  00cc1	8b 45 ec	 mov	 eax, DWORD PTR _this$[ebp]
  00cc4	83 c0 7c	 add	 eax, 124		; 0000007cH
  00cc7	89 85 70 fe ff
	ff		 mov	 DWORD PTR tv251[ebp], eax
  00ccd	eb 0a		 jmp	 SHORT $L199650
$L199649:
  00ccf	c7 85 70 fe ff
	ff 00 00 00 00	 mov	 DWORD PTR tv251[ebp], 0
$L199650:
  00cd9	e8 00 00 00 00	 call	 ?AfxGetMessageManager@@YAPAVIMessageManager@@XZ ; AfxGetMessageManager
  00cde	89 85 6c fe ff
	ff		 mov	 DWORD PTR tv245[ebp], eax
  00ce4	8b f4		 mov	 esi, esp
  00ce6	6a 02		 push	 2
  00ce8	8b 8d 70 fe ff
	ff		 mov	 ecx, DWORD PTR tv251[ebp]
  00cee	51		 push	 ecx
  00cef	68 00 00 00 00	 push	 OFFSET FLAT:_ID_MESSAGE_PANEL_CHANGE
  00cf4	8b 95 6c fe ff
	ff		 mov	 edx, DWORD PTR tv245[ebp]
  00cfa	8b 02		 mov	 eax, DWORD PTR [edx]
  00cfc	8b 8d 6c fe ff
	ff		 mov	 ecx, DWORD PTR tv245[ebp]
  00d02	ff 50 04	 call	 DWORD PTR [eax+4]
  00d05	3b f4		 cmp	 esi, esp
  00d07	e8 00 00 00 00	 call	 __RTC_CheckEsp

; 213  : 	AfxGetUserConfig()->AttachConfigMessage( CONF_LAYOUT_MODULE_NAME,this );

  00d0c	83 7d ec 00	 cmp	 DWORD PTR _this$[ebp], 0
  00d10	74 0e		 je	 SHORT $L199651
  00d12	8b 4d ec	 mov	 ecx, DWORD PTR _this$[ebp]
  00d15	83 c1 74	 add	 ecx, 116		; 00000074H
  00d18	89 8d 68 fe ff
	ff		 mov	 DWORD PTR tv258[ebp], ecx
  00d1e	eb 0a		 jmp	 SHORT $L199652
$L199651:
  00d20	c7 85 68 fe ff
	ff 00 00 00 00	 mov	 DWORD PTR tv258[ebp], 0
$L199652:
  00d2a	8b f4		 mov	 esi, esp
  00d2c	8b 15 00 00 00
	00		 mov	 edx, DWORD PTR _CONF_LAYOUT_MODULE_NAME
  00d32	52		 push	 edx
  00d33	8d 8d f0 fe ff
	ff		 lea	 ecx, DWORD PTR $T199653[ebp]
  00d39	ff 15 00 00 00
	00		 call	 DWORD PTR __imp_??0?$basic_string@DU?$char_traits@D@std@@V?$allocator@D@2@@std@@QAE@PBD@Z
  00d3f	3b f4		 cmp	 esi, esp
  00d41	e8 00 00 00 00	 call	 __RTC_CheckEsp
  00d46	c7 45 fc 06 00
	00 00		 mov	 DWORD PTR __$EHRec$[ebp+8], 6
  00d4d	8b 85 68 fe ff
	ff		 mov	 eax, DWORD PTR tv258[ebp]
  00d53	50		 push	 eax
  00d54	8d 8d f0 fe ff
	ff		 lea	 ecx, DWORD PTR $T199653[ebp]
  00d5a	51		 push	 ecx
  00d5b	e8 00 00 00 00	 call	 ?AfxGetUserConfig@@YAPAVAfxUserConfig@@XZ ; AfxGetUserConfig
  00d60	8b c8		 mov	 ecx, eax
  00d62	e8 00 00 00 00	 call	 ?AttachConfigMessage@AfxUserConfig@@QAEXABV?$basic_string@DU?$char_traits@D@std@@V?$allocator@D@2@@std@@PAVAfxUserConfig_Observer@@@Z ; AfxUserConfig::AttachConfigMessage
  00d67	c7 45 fc ff ff
	ff ff		 mov	 DWORD PTR __$EHRec$[ebp+8], -1
  00d6e	8b f4		 mov	 esi, esp
  00d70	8d 8d f0 fe ff
	ff		 lea	 ecx, DWORD PTR $T199653[ebp]
  00d76	ff 15 00 00 00
	00		 call	 DWORD PTR __imp_??1?$basic_string@DU?$char_traits@D@std@@V?$allocator@D@2@@std@@QAE@XZ
  00d7c	3b f4		 cmp	 esi, esp
  00d7e	e8 00 00 00 00	 call	 __RTC_CheckEsp

; 214  : 	YL_Log( STR_LOG_FILE ,LOG_NOTICE,"OnInitDialog","before post MSG_AFTER_UICREATE" );

  00d83	8b f4		 mov	 esi, esp
  00d85	68 00 00 00 00	 push	 OFFSET FLAT:$SG197354
  00d8a	8d 8d d4 fe ff
	ff		 lea	 ecx, DWORD PTR $T199654[ebp]
  00d90	ff 15 00 00 00
	00		 call	 DWORD PTR __imp_??0?$basic_string@DU?$char_traits@D@std@@V?$allocator@D@2@@std@@QAE@PBD@Z
  00d96	3b f4		 cmp	 esi, esp
  00d98	e8 00 00 00 00	 call	 __RTC_CheckEsp
  00d9d	c7 45 fc 07 00
	00 00		 mov	 DWORD PTR __$EHRec$[ebp+8], 7
  00da4	8b f4		 mov	 esi, esp
  00da6	68 00 00 00 00	 push	 OFFSET FLAT:$SG197355
  00dab	8d 8d b8 fe ff
	ff		 lea	 ecx, DWORD PTR $T199655[ebp]
  00db1	ff 15 00 00 00
	00		 call	 DWORD PTR __imp_??0?$basic_string@DU?$char_traits@D@std@@V?$allocator@D@2@@std@@QAE@PBD@Z
  00db7	3b f4		 cmp	 esi, esp
  00db9	e8 00 00 00 00	 call	 __RTC_CheckEsp
  00dbe	c6 45 fc 08	 mov	 BYTE PTR __$EHRec$[ebp+8], 8
  00dc2	8b f4		 mov	 esi, esp
  00dc4	68 00 00 00 00	 push	 OFFSET FLAT:$SG197353
  00dc9	8d 95 d4 fe ff
	ff		 lea	 edx, DWORD PTR $T199654[ebp]
  00dcf	52		 push	 edx
  00dd0	6a 01		 push	 1
  00dd2	8d 85 b8 fe ff
	ff		 lea	 eax, DWORD PTR $T199655[ebp]
  00dd8	50		 push	 eax
  00dd9	ff 15 00 00 00
	00		 call	 DWORD PTR __imp_?YL_Log@@YAXABV?$basic_string@DU?$char_traits@D@std@@V?$allocator@D@2@@std@@H0PBDZZ
  00ddf	83 c4 10	 add	 esp, 16			; 00000010H
  00de2	3b f4		 cmp	 esi, esp
  00de4	e8 00 00 00 00	 call	 __RTC_CheckEsp
  00de9	c6 45 fc 07	 mov	 BYTE PTR __$EHRec$[ebp+8], 7
  00ded	8b f4		 mov	 esi, esp
  00def	8d 8d b8 fe ff
	ff		 lea	 ecx, DWORD PTR $T199655[ebp]
  00df5	ff 15 00 00 00
	00		 call	 DWORD PTR __imp_??1?$basic_string@DU?$char_traits@D@std@@V?$allocator@D@2@@std@@QAE@XZ
  00dfb	3b f4		 cmp	 esi, esp
  00dfd	e8 00 00 00 00	 call	 __RTC_CheckEsp
  00e02	c7 45 fc ff ff
	ff ff		 mov	 DWORD PTR __$EHRec$[ebp+8], -1
  00e09	8b f4		 mov	 esi, esp
  00e0b	8d 8d d4 fe ff
	ff		 lea	 ecx, DWORD PTR $T199654[ebp]
  00e11	ff 15 00 00 00
	00		 call	 DWORD PTR __imp_??1?$basic_string@DU?$char_traits@D@std@@V?$allocator@D@2@@std@@QAE@XZ
  00e17	3b f4		 cmp	 esi, esp
  00e19	e8 00 00 00 00	 call	 __RTC_CheckEsp

; 215  : 	SetEvent(g_hStartEvent);

  00e1e	8b f4		 mov	 esi, esp
  00e20	8b 0d 00 00 00
	00		 mov	 ecx, DWORD PTR ?g_hStartEvent@@3PAXA ; g_hStartEvent
  00e26	51		 push	 ecx
  00e27	ff 15 00 00 00
	00		 call	 DWORD PTR __imp__SetEvent@4
  00e2d	3b f4		 cmp	 esi, esp
  00e2f	e8 00 00 00 00	 call	 __RTC_CheckEsp

; 216  : 
; 217  : 	PostMessage(MSG_AFTER_UICREATE);

  00e34	6a 00		 push	 0
  00e36	6a 00		 push	 0
  00e38	68 10 04 00 00	 push	 1040			; 00000410H
  00e3d	8b 4d ec	 mov	 ecx, DWORD PTR _this$[ebp]
  00e40	e8 00 00 00 00	 call	 ?PostMessageA@CWnd@@QAEHIIJ@Z ; CWnd::PostMessageA

; 218  : 	YL_Log( STR_LOG_FILE ,LOG_NOTICE,"OnInitDialog","after post MSG_AFTER_UICREATE" );

  00e45	8b f4		 mov	 esi, esp
  00e47	68 00 00 00 00	 push	 OFFSET FLAT:$SG197359
  00e4c	8d 8d 9c fe ff
	ff		 lea	 ecx, DWORD PTR $T199656[ebp]
  00e52	ff 15 00 00 00
	00		 call	 DWORD PTR __imp_??0?$basic_string@DU?$char_traits@D@std@@V?$allocator@D@2@@std@@QAE@PBD@Z
  00e58	3b f4		 cmp	 esi, esp
  00e5a	e8 00 00 00 00	 call	 __RTC_CheckEsp
  00e5f	c7 45 fc 09 00
	00 00		 mov	 DWORD PTR __$EHRec$[ebp+8], 9
  00e66	8b f4		 mov	 esi, esp
  00e68	68 00 00 00 00	 push	 OFFSET FLAT:$SG197360
  00e6d	8d 8d 80 fe ff
	ff		 lea	 ecx, DWORD PTR $T199657[ebp]
  00e73	ff 15 00 00 00
	00		 call	 DWORD PTR __imp_??0?$basic_string@DU?$char_traits@D@std@@V?$allocator@D@2@@std@@QAE@PBD@Z
  00e79	3b f4		 cmp	 esi, esp
  00e7b	e8 00 00 00 00	 call	 __RTC_CheckEsp
  00e80	c6 45 fc 0a	 mov	 BYTE PTR __$EHRec$[ebp+8], 10 ; 0000000aH
  00e84	8b f4		 mov	 esi, esp
  00e86	68 00 00 00 00	 push	 OFFSET FLAT:$SG197358
  00e8b	8d 95 9c fe ff
	ff		 lea	 edx, DWORD PTR $T199656[ebp]
  00e91	52		 push	 edx
  00e92	6a 01		 push	 1
  00e94	8d 85 80 fe ff
	ff		 lea	 eax, DWORD PTR $T199657[ebp]
  00e9a	50		 push	 eax
  00e9b	ff 15 00 00 00
	00		 call	 DWORD PTR __imp_?YL_Log@@YAXABV?$basic_string@DU?$char_traits@D@std@@V?$allocator@D@2@@std@@H0PBDZZ
  00ea1	83 c4 10	 add	 esp, 16			; 00000010H
  00ea4	3b f4		 cmp	 esi, esp
  00ea6	e8 00 00 00 00	 call	 __RTC_CheckEsp
  00eab	c6 45 fc 09	 mov	 BYTE PTR __$EHRec$[ebp+8], 9
  00eaf	8b f4		 mov	 esi, esp
  00eb1	8d 8d 80 fe ff
	ff		 lea	 ecx, DWORD PTR $T199657[ebp]
  00eb7	ff 15 00 00 00
	00		 call	 DWORD PTR __imp_??1?$basic_string@DU?$char_traits@D@std@@V?$allocator@D@2@@std@@QAE@XZ
  00ebd	3b f4		 cmp	 esi, esp
  00ebf	e8 00 00 00 00	 call	 __RTC_CheckEsp
  00ec4	c7 45 fc ff ff
	ff ff		 mov	 DWORD PTR __$EHRec$[ebp+8], -1
  00ecb	8b f4		 mov	 esi, esp
  00ecd	8d 8d 9c fe ff
	ff		 lea	 ecx, DWORD PTR $T199656[ebp]
  00ed3	ff 15 00 00 00
	00		 call	 DWORD PTR __imp_??1?$basic_string@DU?$char_traits@D@std@@V?$allocator@D@2@@std@@QAE@XZ
  00ed9	3b f4		 cmp	 esi, esp
  00edb	e8 00 00 00 00	 call	 __RTC_CheckEsp

; 219  : 
; 220  : 	return TRUE;  //  TRUE

  00ee0	b8 01 00 00 00	 mov	 eax, 1
$L197325:

; 221  : }

  00ee5	52		 push	 edx
  00ee6	8b cd		 mov	 ecx, ebp
  00ee8	50		 push	 eax
  00ee9	8d 15 00 00 00
	00		 lea	 edx, DWORD PTR $L199675
  00eef	e8 00 00 00 00	 call	 @_RTC_CheckStackVars@8
  00ef4	58		 pop	 eax
  00ef5	5a		 pop	 edx
  00ef6	8b 4d f4	 mov	 ecx, DWORD PTR __$EHRec$[ebp]
  00ef9	64 89 0d 00 00
	00 00		 mov	 DWORD PTR fs:__except_list, ecx
  00f00	8b 4d f0	 mov	 ecx, DWORD PTR __$ArrayPad$[ebp]
  00f03	e8 00 00 00 00	 call	 @__security_check_cookie@4
  00f08	5f		 pop	 edi
  00f09	5e		 pop	 esi
  00f0a	81 c4 98 01 00
	00		 add	 esp, 408		; 00000198H
  00f10	3b ec		 cmp	 ebp, esp
  00f12	e8 00 00 00 00	 call	 __RTC_CheckEsp
  00f17	8b e5		 mov	 esp, ebp
  00f19	5d		 pop	 ebp
  00f1a	c3		 ret	 0
$L199675:
  00f1b	01 00 00 00	 DD	 1
  00f1f	00 00 00 00	 DD	 $L199674
$L199674:
  00f23	b8 ff ff ff	 DD	 -72			; ffffffb8H
  00f27	20 00 00 00	 DD	 32			; 00000020H
  00f2b	00 00 00 00	 DD	 $L199671
$L199671:
  00f2f	73		 DB	 115			; 00000073H
  00f30	7a		 DB	 122			; 0000007aH
  00f31	42		 DB	 66			; 00000042H
  00f32	75		 DB	 117			; 00000075H
  00f33	66		 DB	 102			; 00000066H
  00f34	66		 DB	 102			; 00000066H
  00f35	65		 DB	 101			; 00000065H
  00f36	72		 DB	 114			; 00000072H
  00f37	00		 DB	 0
_TEXT	ENDS
text$x	SEGMENT
$L199658:
  0010b	8b f4		 mov	 esi, esp
  0010d	8d 4d 98	 lea	 ecx, DWORD PTR $T199641[ebp]
  00110	ff 15 00 00 00
	00		 call	 DWORD PTR __imp_??1?$basic_string@DU?$char_traits@D@std@@V?$allocator@D@2@@std@@QAE@XZ
  00116	3b f4		 cmp	 esi, esp
  00118	e9 00 00 00 00	 jmp	 __RTC_CheckEsp
$L199659:
  0011d	8b f4		 mov	 esi, esp
  0011f	8d 8d 7c ff ff
	ff		 lea	 ecx, DWORD PTR $T199642[ebp]
  00125	ff 15 00 00 00
	00		 call	 DWORD PTR __imp_??1?$basic_string@DU?$char_traits@D@std@@V?$allocator@D@2@@std@@QAE@XZ
  0012b	3b f4		 cmp	 esi, esp
  0012d	e9 00 00 00 00	 jmp	 __RTC_CheckEsp
$L199660:
  00132	8b f4		 mov	 esi, esp
  00134	8d 8d 60 ff ff
	ff		 lea	 ecx, DWORD PTR $T199643[ebp]
  0013a	ff 15 00 00 00
	00		 call	 DWORD PTR __imp_??1?$basic_string@DU?$char_traits@D@std@@V?$allocator@D@2@@std@@QAE@XZ
  00140	3b f4		 cmp	 esi, esp
  00142	e9 00 00 00 00	 jmp	 __RTC_CheckEsp
$L199661:
  00147	8b f4		 mov	 esi, esp
  00149	8d 8d 44 ff ff
	ff		 lea	 ecx, DWORD PTR $T199644[ebp]
  0014f	ff 15 00 00 00
	00		 call	 DWORD PTR __imp_??1?$basic_string@DU?$char_traits@D@std@@V?$allocator@D@2@@std@@QAE@XZ
  00155	3b f4		 cmp	 esi, esp
  00157	e9 00 00 00 00	 jmp	 __RTC_CheckEsp
$L199662:
  0015c	8b f4		 mov	 esi, esp
  0015e	8d 8d 28 ff ff
	ff		 lea	 ecx, DWORD PTR $T199645[ebp]
  00164	ff 15 00 00 00
	00		 call	 DWORD PTR __imp_??1?$basic_string@DU?$char_traits@D@std@@V?$allocator@D@2@@std@@QAE@XZ
  0016a	3b f4		 cmp	 esi, esp
  0016c	e9 00 00 00 00	 jmp	 __RTC_CheckEsp
$L199663:
  00171	8b f4		 mov	 esi, esp
  00173	8d 8d 0c ff ff
	ff		 lea	 ecx, DWORD PTR $T199646[ebp]
  00179	ff 15 00 00 00
	00		 call	 DWORD PTR __imp_??1?$basic_string@DU?$char_traits@D@std@@V?$allocator@D@2@@std@@QAE@XZ
  0017f	3b f4		 cmp	 esi, esp
  00181	e9 00 00 00 00	 jmp	 __RTC_CheckEsp
$L199664:
  00186	8b f4		 mov	 esi, esp
  00188	8d 8d f0 fe ff
	ff		 lea	 ecx, DWORD PTR $T199653[ebp]
  0018e	ff 15 00 00 00
	00		 call	 DWORD PTR __imp_??1?$basic_string@DU?$char_traits@D@std@@V?$allocator@D@2@@std@@QAE@XZ
  00194	3b f4		 cmp	 esi, esp
  00196	e9 00 00 00 00	 jmp	 __RTC_CheckEsp
$L199665:
  0019b	8b f4		 mov	 esi, esp
  0019d	8d 8d d4 fe ff
	ff		 lea	 ecx, DWORD PTR $T199654[ebp]
  001a3	ff 15 00 00 00
	00		 call	 DWORD PTR __imp_??1?$basic_string@DU?$char_traits@D@std@@V?$allocator@D@2@@std@@QAE@XZ
  001a9	3b f4		 cmp	 esi, esp
  001ab	e9 00 00 00 00	 jmp	 __RTC_CheckEsp
$L199666:
  001b0	8b f4		 mov	 esi, esp
  001b2	8d 8d b8 fe ff
	ff		 lea	 ecx, DWORD PTR $T199655[ebp]
  001b8	ff 15 00 00 00
	00		 call	 DWORD PTR __imp_??1?$basic_string@DU?$char_traits@D@std@@V?$allocator@D@2@@std@@QAE@XZ
  001be	3b f4		 cmp	 esi, esp
  001c0	e9 00 00 00 00	 jmp	 __RTC_CheckEsp
$L199667:
  001c5	8b f4		 mov	 esi, esp
  001c7	8d 8d 9c fe ff
	ff		 lea	 ecx, DWORD PTR $T199656[ebp]
  001cd	ff 15 00 00 00
	00		 call	 DWORD PTR __imp_??1?$basic_string@DU?$char_traits@D@std@@V?$allocator@D@2@@std@@QAE@XZ
  001d3	3b f4		 cmp	 esi, esp
  001d5	e9 00 00 00 00	 jmp	 __RTC_CheckEsp
$L199668:
  001da	8b f4		 mov	 esi, esp
  001dc	8d 8d 80 fe ff
	ff		 lea	 ecx, DWORD PTR $T199657[ebp]
  001e2	ff 15 00 00 00
	00		 call	 DWORD PTR __imp_??1?$basic_string@DU?$char_traits@D@std@@V?$allocator@D@2@@std@@QAE@XZ
  001e8	3b f4		 cmp	 esi, esp
  001ea	e9 00 00 00 00	 jmp	 __RTC_CheckEsp
__ehhandler$?OnInitDialog@CPlayBoxDlg@@MAEHXZ:
  001ef	b8 00 00 00 00	 mov	 eax, OFFSET FLAT:$T199670
  001f4	e9 00 00 00 00	 jmp	 ___CxxFrameHandler
text$x	ENDS
?OnInitDialog@CPlayBoxDlg@@MAEHXZ ENDP			; CPlayBoxDlg::OnInitDialog
EXTRN	??0CPaintDC@@QAE@PAVCWnd@@@Z:NEAR		; CPaintDC::CPaintDC
EXTRN	??1CPaintDC@@UAE@XZ:NEAR			; CPaintDC::~CPaintDC
EXTRN	?Width@CRect@@QBEHXZ:NEAR			; CRect::Width
EXTRN	?Height@CRect@@QBEHXZ:NEAR			; CRect::Height
EXTRN	?SendMessageA@CWnd@@QAEJIIJ@Z:NEAR		; CWnd::SendMessageA
EXTRN	?IsIconic@CWnd@@QBEHXZ:NEAR			; CWnd::IsIconic
EXTRN	?GetSafeHdc@CDC@@QBEPAUHDC__@@XZ:NEAR		; CDC::GetSafeHdc
EXTRN	?GetClientRect@CWnd@@QBEXPAUtagRECT@@@Z:NEAR	; CWnd::GetClientRect
EXTRN	?OnPaint@CDialog@@IAEXXZ:NEAR			; CDialog::OnPaint
EXTRN	__imp__GetSystemMetrics@4:NEAR
EXTRN	?DrawIcon@CDC@@QAEHHHPAUHICON__@@@Z:NEAR	; CDC::DrawIcon
xdata$x	SEGMENT
$T199688 DD	0ffffffffH
	DD	FLAT:$L199679
$T199681 DD	019930520H
	DD	01H
	DD	FLAT:$T199688
	DD	2 DUP(00H)
	DD	2 DUP(00H)
; Function compile flags: /Odt /RTCsu
xdata$x	ENDS
_TEXT	SEGMENT
_count$ = -156						; size = 4
_y$197371 = -152					; size = 4
_x$197370 = -148					; size = 4
_rect$197369 = -140					; size = 16
_cyIcon$197368 = -120					; size = 4
_cxIcon$197367 = -116					; size = 4
_dc$ = -108						; size = 84
_this$ = -20						; size = 4
__$ArrayPad$ = -16					; size = 4
__$EHRec$ = -12						; size = 12
__$ReturnAddr$ = 4					; size = 4
?OnPaint@CPlayBoxDlg@@IAEXXZ PROC NEAR			; CPlayBoxDlg::OnPaint
; _this$ = ecx

; 224  : {

  00f40	55		 push	 ebp
  00f41	8b ec		 mov	 ebp, esp
  00f43	6a ff		 push	 -1
  00f45	68 00 00 00 00	 push	 __ehhandler$?OnPaint@CPlayBoxDlg@@IAEXXZ
  00f4a	64 a1 00 00 00
	00		 mov	 eax, DWORD PTR fs:__except_list
  00f50	50		 push	 eax
  00f51	64 89 25 00 00
	00 00		 mov	 DWORD PTR fs:__except_list, esp
  00f58	81 ec 90 00 00
	00		 sub	 esp, 144		; 00000090H
  00f5e	56		 push	 esi
  00f5f	57		 push	 edi
  00f60	51		 push	 ecx
  00f61	8d bd 64 ff ff
	ff		 lea	 edi, DWORD PTR [ebp-156]
  00f67	b9 24 00 00 00	 mov	 ecx, 36			; 00000024H
  00f6c	b8 cc cc cc cc	 mov	 eax, -858993460		; ccccccccH
  00f71	f3 ab		 rep stosd
  00f73	59		 pop	 ecx
  00f74	a1 00 00 00 00	 mov	 eax, DWORD PTR ___security_cookie
  00f79	89 45 f0	 mov	 DWORD PTR __$ArrayPad$[ebp], eax
  00f7c	89 4d ec	 mov	 DWORD PTR _this$[ebp], ecx

; 225  : 	CPaintDC dc(this); // 

  00f7f	8b 45 ec	 mov	 eax, DWORD PTR _this$[ebp]
  00f82	50		 push	 eax
  00f83	8d 4d 94	 lea	 ecx, DWORD PTR _dc$[ebp]
  00f86	e8 00 00 00 00	 call	 ??0CPaintDC@@QAE@PAVCWnd@@@Z ; CPaintDC::CPaintDC
  00f8b	c7 45 fc 00 00
	00 00		 mov	 DWORD PTR __$EHRec$[ebp+8], 0

; 226  : 	if (IsIconic())

  00f92	8b 4d ec	 mov	 ecx, DWORD PTR _this$[ebp]
  00f95	e8 00 00 00 00	 call	 ?IsIconic@CWnd@@QBEHXZ	; CWnd::IsIconic
  00f9a	85 c0		 test	 eax, eax
  00f9c	0f 84 b1 00 00
	00		 je	 $L197365

; 227  : 	{
; 228  : 		SendMessage(WM_ICONERASEBKGND, reinterpret_cast<WPARAM>(dc.GetSafeHdc()), 0);

  00fa2	6a 00		 push	 0
  00fa4	8d 4d 94	 lea	 ecx, DWORD PTR _dc$[ebp]
  00fa7	e8 00 00 00 00	 call	 ?GetSafeHdc@CDC@@QBEPAUHDC__@@XZ ; CDC::GetSafeHdc
  00fac	50		 push	 eax
  00fad	6a 27		 push	 39			; 00000027H
  00faf	8b 4d ec	 mov	 ecx, DWORD PTR _this$[ebp]
  00fb2	e8 00 00 00 00	 call	 ?SendMessageA@CWnd@@QAEJIIJ@Z ; CWnd::SendMessageA

; 229  : 
; 230  : 		// 
; 231  : 		int cxIcon = GetSystemMetrics(SM_CXICON);

  00fb7	8b f4		 mov	 esi, esp
  00fb9	6a 0b		 push	 11			; 0000000bH
  00fbb	ff 15 00 00 00
	00		 call	 DWORD PTR __imp__GetSystemMetrics@4
  00fc1	3b f4		 cmp	 esi, esp
  00fc3	e8 00 00 00 00	 call	 __RTC_CheckEsp
  00fc8	89 45 8c	 mov	 DWORD PTR _cxIcon$197367[ebp], eax

; 232  : 		int cyIcon = GetSystemMetrics(SM_CYICON);

  00fcb	8b f4		 mov	 esi, esp
  00fcd	6a 0c		 push	 12			; 0000000cH
  00fcf	ff 15 00 00 00
	00		 call	 DWORD PTR __imp__GetSystemMetrics@4
  00fd5	3b f4		 cmp	 esi, esp
  00fd7	e8 00 00 00 00	 call	 __RTC_CheckEsp
  00fdc	89 45 88	 mov	 DWORD PTR _cyIcon$197368[ebp], eax

; 233  : 		CRect rect;

  00fdf	8d 8d 74 ff ff
	ff		 lea	 ecx, DWORD PTR _rect$197369[ebp]
  00fe5	e8 00 00 00 00	 call	 ??0CRect@@QAE@XZ	; CRect::CRect

; 234  : 		GetClientRect(&rect);

  00fea	8d 8d 74 ff ff
	ff		 lea	 ecx, DWORD PTR _rect$197369[ebp]
  00ff0	51		 push	 ecx
  00ff1	8b 4d ec	 mov	 ecx, DWORD PTR _this$[ebp]
  00ff4	e8 00 00 00 00	 call	 ?GetClientRect@CWnd@@QBEXPAUtagRECT@@@Z ; CWnd::GetClientRect

; 235  : 		int x = (rect.Width() - cxIcon + 1) / 2;

  00ff9	8d 8d 74 ff ff
	ff		 lea	 ecx, DWORD PTR _rect$197369[ebp]
  00fff	e8 00 00 00 00	 call	 ?Width@CRect@@QBEHXZ	; CRect::Width
  01004	2b 45 8c	 sub	 eax, DWORD PTR _cxIcon$197367[ebp]
  01007	83 c0 01	 add	 eax, 1
  0100a	99		 cdq
  0100b	2b c2		 sub	 eax, edx
  0100d	d1 f8		 sar	 eax, 1
  0100f	89 85 6c ff ff
	ff		 mov	 DWORD PTR _x$197370[ebp], eax

; 236  : 		int y = (rect.Height() - cyIcon + 1) / 2;

  01015	8d 8d 74 ff ff
	ff		 lea	 ecx, DWORD PTR _rect$197369[ebp]
  0101b	e8 00 00 00 00	 call	 ?Height@CRect@@QBEHXZ	; CRect::Height
  01020	2b 45 88	 sub	 eax, DWORD PTR _cyIcon$197368[ebp]
  01023	83 c0 01	 add	 eax, 1
  01026	99		 cdq
  01027	2b c2		 sub	 eax, edx
  01029	d1 f8		 sar	 eax, 1
  0102b	89 85 68 ff ff
	ff		 mov	 DWORD PTR _y$197371[ebp], eax

; 237  : 
; 238  : 		// 
; 239  : 		dc.DrawIcon(x, y, m_hIcon);

  01031	8b 55 ec	 mov	 edx, DWORD PTR _this$[ebp]
  01034	8b 82 8c 00 00
	00		 mov	 eax, DWORD PTR [edx+140]
  0103a	50		 push	 eax
  0103b	8b 8d 68 ff ff
	ff		 mov	 ecx, DWORD PTR _y$197371[ebp]
  01041	51		 push	 ecx
  01042	8b 95 6c ff ff
	ff		 mov	 edx, DWORD PTR _x$197370[ebp]
  01048	52		 push	 edx
  01049	8d 4d 94	 lea	 ecx, DWORD PTR _dc$[ebp]
  0104c	e8 00 00 00 00	 call	 ?DrawIcon@CDC@@QAEHHHPAUHICON__@@@Z ; CDC::DrawIcon

; 240  : 	}
; 241  : 	else

  01051	eb 08		 jmp	 SHORT $L197372
$L197365:

; 242  : 	{
; 243  : 		CDialog::OnPaint();

  01053	8b 4d ec	 mov	 ecx, DWORD PTR _this$[ebp]
  01056	e8 00 00 00 00	 call	 ?OnPaint@CDialog@@IAEXXZ ; CDialog::OnPaint
$L197372:

; 244  : 	}
; 245  : 	DWORD count = ::GetTickCount();

  0105b	8b f4		 mov	 esi, esp
  0105d	ff 15 00 00 00
	00		 call	 DWORD PTR __imp__GetTickCount@0
  01063	3b f4		 cmp	 esi, esp
  01065	e8 00 00 00 00	 call	 __RTC_CheckEsp
  0106a	89 85 64 ff ff
	ff		 mov	 DWORD PTR _count$[ebp], eax

; 246  : 	m_pUIManager->UIOnPaint( &dc );

  01070	8b f4		 mov	 esi, esp
  01072	8d 45 94	 lea	 eax, DWORD PTR _dc$[ebp]
  01075	50		 push	 eax
  01076	8b 4d ec	 mov	 ecx, DWORD PTR _this$[ebp]
  01079	8b 91 c8 00 00
	00		 mov	 edx, DWORD PTR [ecx+200]
  0107f	8b 45 ec	 mov	 eax, DWORD PTR _this$[ebp]
  01082	8b 88 c8 00 00
	00		 mov	 ecx, DWORD PTR [eax+200]
  01088	8b 12		 mov	 edx, DWORD PTR [edx]
  0108a	ff 52 30	 call	 DWORD PTR [edx+48]
  0108d	3b f4		 cmp	 esi, esp
  0108f	e8 00 00 00 00	 call	 __RTC_CheckEsp

; 247  : }

  01094	c7 45 fc ff ff
	ff ff		 mov	 DWORD PTR __$EHRec$[ebp+8], -1
  0109b	8d 4d 94	 lea	 ecx, DWORD PTR _dc$[ebp]
  0109e	e8 00 00 00 00	 call	 ??1CPaintDC@@UAE@XZ	; CPaintDC::~CPaintDC
  010a3	52		 push	 edx
  010a4	8b cd		 mov	 ecx, ebp
  010a6	50		 push	 eax
  010a7	8d 15 00 00 00
	00		 lea	 edx, DWORD PTR $L199687
  010ad	e8 00 00 00 00	 call	 @_RTC_CheckStackVars@8
  010b2	58		 pop	 eax
  010b3	5a		 pop	 edx
  010b4	8b 4d f4	 mov	 ecx, DWORD PTR __$EHRec$[ebp]
  010b7	64 89 0d 00 00
	00 00		 mov	 DWORD PTR fs:__except_list, ecx
  010be	8b 4d f0	 mov	 ecx, DWORD PTR __$ArrayPad$[ebp]
  010c1	e8 00 00 00 00	 call	 @__security_check_cookie@4
  010c6	5f		 pop	 edi
  010c7	5e		 pop	 esi
  010c8	81 c4 9c 00 00
	00		 add	 esp, 156		; 0000009cH
  010ce	3b ec		 cmp	 ebp, esp
  010d0	e8 00 00 00 00	 call	 __RTC_CheckEsp
  010d5	8b e5		 mov	 esp, ebp
  010d7	5d		 pop	 ebp
  010d8	c3		 ret	 0
$L199687:
  010d9	02 00 00 00	 DD	 2
  010dd	00 00 00 00	 DD	 $L199686
$L199686:
  010e1	94 ff ff ff	 DD	 -108			; ffffff94H
  010e5	54 00 00 00	 DD	 84			; 00000054H
  010e9	00 00 00 00	 DD	 $L199682
  010ed	74 ff ff ff	 DD	 -140			; ffffff74H
  010f1	10 00 00 00	 DD	 16			; 00000010H
  010f5	00 00 00 00	 DD	 $L199683
$L199683:
  010f9	72		 DB	 114			; 00000072H
  010fa	65		 DB	 101			; 00000065H
  010fb	63		 DB	 99			; 00000063H
  010fc	74		 DB	 116			; 00000074H
  010fd	00		 DB	 0
$L199682:
  010fe	64		 DB	 100			; 00000064H
  010ff	63		 DB	 99			; 00000063H
  01100	00		 DB	 0
_TEXT	ENDS
text$x	SEGMENT
$L199679:
  001f9	8d 4d 94	 lea	 ecx, DWORD PTR _dc$[ebp]
  001fc	e9 00 00 00 00	 jmp	 ??1CPaintDC@@UAE@XZ	; CPaintDC::~CPaintDC
__ehhandler$?OnPaint@CPlayBoxDlg@@IAEXXZ:
  00201	b8 00 00 00 00	 mov	 eax, OFFSET FLAT:$T199681
  00206	e9 00 00 00 00	 jmp	 ___CxxFrameHandler
text$x	ENDS
?OnPaint@CPlayBoxDlg@@IAEXXZ ENDP			; CPlayBoxDlg::OnPaint
PUBLIC	?OnDestroy@CPlayBoxDlg@@IAEXXZ			; CPlayBoxDlg::OnDestroy
EXTRN	?OnDestroy@CWnd@@IAEXXZ:NEAR			; CWnd::OnDestroy
EXTRN	?DetachConfigMessage@AfxUserConfig@@QAEXABV?$basic_string@DU?$char_traits@D@std@@V?$allocator@D@2@@std@@PAVAfxUserConfig_Observer@@@Z:NEAR ; AfxUserConfig::DetachConfigMessage
xdata$x	SEGMENT
$T199697 DD	0ffffffffH
	DD	FLAT:$L199693
$T199695 DD	019930520H
	DD	01H
	DD	FLAT:$T199697
	DD	2 DUP(00H)
	DD	2 DUP(00H)
; Function compile flags: /Odt /RTCsu
xdata$x	ENDS
_TEXT	SEGMENT
tv68 = -48						; size = 4
$T199692 = -44						; size = 28
_this$ = -16						; size = 4
__$EHRec$ = -12						; size = 12
?OnDestroy@CPlayBoxDlg@@IAEXXZ PROC NEAR		; CPlayBoxDlg::OnDestroy
; _this$ = ecx

; 250  : {

  01110	55		 push	 ebp
  01111	8b ec		 mov	 ebp, esp
  01113	6a ff		 push	 -1
  01115	68 00 00 00 00	 push	 __ehhandler$?OnDestroy@CPlayBoxDlg@@IAEXXZ
  0111a	64 a1 00 00 00
	00		 mov	 eax, DWORD PTR fs:__except_list
  01120	50		 push	 eax
  01121	64 89 25 00 00
	00 00		 mov	 DWORD PTR fs:__except_list, esp
  01128	83 ec 24	 sub	 esp, 36			; 00000024H
  0112b	56		 push	 esi
  0112c	b8 cc cc cc cc	 mov	 eax, -858993460		; ccccccccH
  01131	89 45 d0	 mov	 DWORD PTR [ebp-48], eax
  01134	89 45 d4	 mov	 DWORD PTR [ebp-44], eax
  01137	89 45 d8	 mov	 DWORD PTR [ebp-40], eax
  0113a	89 45 dc	 mov	 DWORD PTR [ebp-36], eax
  0113d	89 45 e0	 mov	 DWORD PTR [ebp-32], eax
  01140	89 45 e4	 mov	 DWORD PTR [ebp-28], eax
  01143	89 45 e8	 mov	 DWORD PTR [ebp-24], eax
  01146	89 45 ec	 mov	 DWORD PTR [ebp-20], eax
  01149	89 45 f0	 mov	 DWORD PTR [ebp-16], eax
  0114c	89 4d f0	 mov	 DWORD PTR _this$[ebp], ecx

; 251  : 	AfxGetUserConfig()->DetachConfigMessage( CONF_LAYOUT_MODULE_NAME,this );

  0114f	83 7d f0 00	 cmp	 DWORD PTR _this$[ebp], 0
  01153	74 0b		 je	 SHORT $L199690
  01155	8b 45 f0	 mov	 eax, DWORD PTR _this$[ebp]
  01158	83 c0 74	 add	 eax, 116		; 00000074H
  0115b	89 45 d0	 mov	 DWORD PTR tv68[ebp], eax
  0115e	eb 07		 jmp	 SHORT $L199691
$L199690:
  01160	c7 45 d0 00 00
	00 00		 mov	 DWORD PTR tv68[ebp], 0
$L199691:
  01167	8b f4		 mov	 esi, esp
  01169	8b 0d 00 00 00
	00		 mov	 ecx, DWORD PTR _CONF_LAYOUT_MODULE_NAME
  0116f	51		 push	 ecx
  01170	8d 4d d4	 lea	 ecx, DWORD PTR $T199692[ebp]
  01173	ff 15 00 00 00
	00		 call	 DWORD PTR __imp_??0?$basic_string@DU?$char_traits@D@std@@V?$allocator@D@2@@std@@QAE@PBD@Z
  01179	3b f4		 cmp	 esi, esp
  0117b	e8 00 00 00 00	 call	 __RTC_CheckEsp
  01180	c7 45 fc 00 00
	00 00		 mov	 DWORD PTR __$EHRec$[ebp+8], 0
  01187	8b 55 d0	 mov	 edx, DWORD PTR tv68[ebp]
  0118a	52		 push	 edx
  0118b	8d 45 d4	 lea	 eax, DWORD PTR $T199692[ebp]
  0118e	50		 push	 eax
  0118f	e8 00 00 00 00	 call	 ?AfxGetUserConfig@@YAPAVAfxUserConfig@@XZ ; AfxGetUserConfig
  01194	8b c8		 mov	 ecx, eax
  01196	e8 00 00 00 00	 call	 ?DetachConfigMessage@AfxUserConfig@@QAEXABV?$basic_string@DU?$char_traits@D@std@@V?$allocator@D@2@@std@@PAVAfxUserConfig_Observer@@@Z ; AfxUserConfig::DetachConfigMessage
  0119b	c7 45 fc ff ff
	ff ff		 mov	 DWORD PTR __$EHRec$[ebp+8], -1
  011a2	8b f4		 mov	 esi, esp
  011a4	8d 4d d4	 lea	 ecx, DWORD PTR $T199692[ebp]
  011a7	ff 15 00 00 00
	00		 call	 DWORD PTR __imp_??1?$basic_string@DU?$char_traits@D@std@@V?$allocator@D@2@@std@@QAE@XZ
  011ad	3b f4		 cmp	 esi, esp
  011af	e8 00 00 00 00	 call	 __RTC_CheckEsp

; 252  : 	__super::OnDestroy();

  011b4	8b 4d f0	 mov	 ecx, DWORD PTR _this$[ebp]
  011b7	e8 00 00 00 00	 call	 ?OnDestroy@CWnd@@IAEXXZ	; CWnd::OnDestroy

; 253  : 	EndDialog(IDOK);

  011bc	6a 01		 push	 1
  011be	8b 4d f0	 mov	 ecx, DWORD PTR _this$[ebp]
  011c1	e8 00 00 00 00	 call	 ?EndDialog@CDialog@@QAEXH@Z ; CDialog::EndDialog

; 254  : }

  011c6	8b 4d f4	 mov	 ecx, DWORD PTR __$EHRec$[ebp]
  011c9	64 89 0d 00 00
	00 00		 mov	 DWORD PTR fs:__except_list, ecx
  011d0	5e		 pop	 esi
  011d1	83 c4 30	 add	 esp, 48			; 00000030H
  011d4	3b ec		 cmp	 ebp, esp
  011d6	e8 00 00 00 00	 call	 __RTC_CheckEsp
  011db	8b e5		 mov	 esp, ebp
  011dd	5d		 pop	 ebp
  011de	c3		 ret	 0
_TEXT	ENDS
text$x	SEGMENT
$L199693:
  0020b	8b f4		 mov	 esi, esp
  0020d	8d 4d d4	 lea	 ecx, DWORD PTR $T199692[ebp]
  00210	ff 15 00 00 00
	00		 call	 DWORD PTR __imp_??1?$basic_string@DU?$char_traits@D@std@@V?$allocator@D@2@@std@@QAE@XZ
  00216	3b f4		 cmp	 esi, esp
  00218	e9 00 00 00 00	 jmp	 __RTC_CheckEsp
__ehhandler$?OnDestroy@CPlayBoxDlg@@IAEXXZ:
  0021d	b8 00 00 00 00	 mov	 eax, OFFSET FLAT:$T199695
  00222	e9 00 00 00 00	 jmp	 ___CxxFrameHandler
text$x	ENDS
?OnDestroy@CPlayBoxDlg@@IAEXXZ ENDP			; CPlayBoxDlg::OnDestroy
; Function compile flags: /Odt /RTCsu
_TEXT	SEGMENT
_this$ = -4						; size = 4
?OnQueryDragIcon@CPlayBoxDlg@@IAEPAUHICON__@@XZ PROC NEAR ; CPlayBoxDlg::OnQueryDragIcon
; _this$ = ecx

; 258  : {

  011e0	55		 push	 ebp
  011e1	8b ec		 mov	 ebp, esp
  011e3	51		 push	 ecx
  011e4	c7 45 fc cc cc
	cc cc		 mov	 DWORD PTR [ebp-4], -858993460 ; ccccccccH
  011eb	89 4d fc	 mov	 DWORD PTR _this$[ebp], ecx

; 259  : 	return static_cast<HCURSOR>(m_hIcon);

  011ee	8b 45 fc	 mov	 eax, DWORD PTR _this$[ebp]
  011f1	8b 80 8c 00 00
	00		 mov	 eax, DWORD PTR [eax+140]

; 260  : }

  011f7	8b e5		 mov	 esp, ebp
  011f9	5d		 pop	 ebp
  011fa	c3		 ret	 0
?OnQueryDragIcon@CPlayBoxDlg@@IAEPAUHICON__@@XZ ENDP	; CPlayBoxDlg::OnQueryDragIcon
; Function compile flags: /Odt /RTCsu
_this$ = -4						; size = 4
_pDC$ = 8						; size = 4
?OnEraseBkgnd@CPlayBoxDlg@@IAEHPAVCDC@@@Z PROC NEAR	; CPlayBoxDlg::OnEraseBkgnd
; _this$ = ecx

; 262  : {

  01200	55		 push	 ebp
  01201	8b ec		 mov	 ebp, esp
  01203	51		 push	 ecx
  01204	c7 45 fc cc cc
	cc cc		 mov	 DWORD PTR [ebp-4], -858993460 ; ccccccccH
  0120b	89 4d fc	 mov	 DWORD PTR _this$[ebp], ecx

; 263  : 	return TRUE;

  0120e	b8 01 00 00 00	 mov	 eax, 1

; 264  : }

  01213	8b e5		 mov	 esp, ebp
  01215	5d		 pop	 ebp
  01216	c2 04 00	 ret	 4
?OnEraseBkgnd@CPlayBoxDlg@@IAEHPAVCDC@@@Z ENDP		; CPlayBoxDlg::OnEraseBkgnd
_TEXT	ENDS
PUBLIC	?DrawMoveFrame@CPlayBoxDlg@@AAEXVCRect@@@Z	; CPlayBoxDlg::DrawMoveFrame
EXTRN	__imp__InvalidateRect@12:NEAR
EXTRN	??BCRect@@QAEPAUtagRECT@@XZ:NEAR		; CRect::operator tagRECT *
EXTRN	?MoveWindow@CWnd@@QAEXPBUtagRECT@@H@Z:NEAR	; CWnd::MoveWindow
EXTRN	__imp__GetDesktopWindow@0:NEAR
EXTRN	?GetCapture@CWnd@@SGPAV1@XZ:NEAR		; CWnd::GetCapture
EXTRN	__imp__ReleaseCapture@0:NEAR
; Function compile flags: /Odt /RTCsu
_TEXT	SEGMENT
_this$ = -4						; size = 4
_nFlags$ = 8						; size = 4
_point$ = 12						; size = 8
?OnLButtonUp@CPlayBoxDlg@@IAEXIVCPoint@@@Z PROC NEAR	; CPlayBoxDlg::OnLButtonUp
; _this$ = ecx

; 267  : {

  01220	55		 push	 ebp
  01221	8b ec		 mov	 ebp, esp
  01223	51		 push	 ecx
  01224	56		 push	 esi
  01225	57		 push	 edi
  01226	c7 45 fc cc cc
	cc cc		 mov	 DWORD PTR [ebp-4], -858993460 ; ccccccccH
  0122d	89 4d fc	 mov	 DWORD PTR _this$[ebp], ecx

; 268  : 	if( m_bIsResizing )

  01230	8b 45 fc	 mov	 eax, DWORD PTR _this$[ebp]
  01233	83 b8 a8 00 00
	00 00		 cmp	 DWORD PTR [eax+168], 0
  0123a	74 70		 je	 SHORT $L197391

; 269  : 	{
; 270  : 		DrawMoveFrame(m_rcMain);

  0123c	8b 4d fc	 mov	 ecx, DWORD PTR _this$[ebp]
  0123f	81 c1 94 00 00
	00		 add	 ecx, 148		; 00000094H
  01245	83 ec 10	 sub	 esp, 16			; 00000010H
  01248	8b d4		 mov	 edx, esp
  0124a	8b 01		 mov	 eax, DWORD PTR [ecx]
  0124c	89 02		 mov	 DWORD PTR [edx], eax
  0124e	8b 41 04	 mov	 eax, DWORD PTR [ecx+4]
  01251	89 42 04	 mov	 DWORD PTR [edx+4], eax
  01254	8b 41 08	 mov	 eax, DWORD PTR [ecx+8]
  01257	89 42 08	 mov	 DWORD PTR [edx+8], eax
  0125a	8b 49 0c	 mov	 ecx, DWORD PTR [ecx+12]
  0125d	89 4a 0c	 mov	 DWORD PTR [edx+12], ecx
  01260	8b 4d fc	 mov	 ecx, DWORD PTR _this$[ebp]
  01263	e8 00 00 00 00	 call	 ?DrawMoveFrame@CPlayBoxDlg@@AAEXVCRect@@@Z ; CPlayBoxDlg::DrawMoveFrame

; 271  : 		MoveWindow( m_rcMain,true );

  01268	6a 01		 push	 1
  0126a	8b 4d fc	 mov	 ecx, DWORD PTR _this$[ebp]
  0126d	81 c1 94 00 00
	00		 add	 ecx, 148		; 00000094H
  01273	e8 00 00 00 00	 call	 ??BCRect@@QAEPAUtagRECT@@XZ ; CRect::operator tagRECT *
  01278	50		 push	 eax
  01279	8b 4d fc	 mov	 ecx, DWORD PTR _this$[ebp]
  0127c	e8 00 00 00 00	 call	 ?MoveWindow@CWnd@@QAEXPBUtagRECT@@H@Z ; CWnd::MoveWindow

; 272  : 		::InvalidateRect(::GetDesktopWindow(), &m_rcMain, true);

  01281	8b f4		 mov	 esi, esp
  01283	6a 01		 push	 1
  01285	8b 55 fc	 mov	 edx, DWORD PTR _this$[ebp]
  01288	81 c2 94 00 00
	00		 add	 edx, 148		; 00000094H
  0128e	52		 push	 edx
  0128f	8b fc		 mov	 edi, esp
  01291	ff 15 00 00 00
	00		 call	 DWORD PTR __imp__GetDesktopWindow@0
  01297	3b fc		 cmp	 edi, esp
  01299	e8 00 00 00 00	 call	 __RTC_CheckEsp
  0129e	50		 push	 eax
  0129f	ff 15 00 00 00
	00		 call	 DWORD PTR __imp__InvalidateRect@12
  012a5	3b f4		 cmp	 esi, esp
  012a7	e8 00 00 00 00	 call	 __RTC_CheckEsp
$L197391:

; 273  : 	}
; 274  : 	if( GetCapture() == this )

  012ac	e8 00 00 00 00	 call	 ?GetCapture@CWnd@@SGPAV1@XZ ; CWnd::GetCapture
  012b1	3b 45 fc	 cmp	 eax, DWORD PTR _this$[ebp]
  012b4	75 0f		 jne	 SHORT $L197392

; 275  : 	{
; 276  : 		ReleaseCapture();

  012b6	8b f4		 mov	 esi, esp
  012b8	ff 15 00 00 00
	00		 call	 DWORD PTR __imp__ReleaseCapture@0
  012be	3b f4		 cmp	 esi, esp
  012c0	e8 00 00 00 00	 call	 __RTC_CheckEsp
$L197392:

; 277  : 	}	
; 278  : 	m_bIsResizing = FALSE;

  012c5	8b 45 fc	 mov	 eax, DWORD PTR _this$[ebp]
  012c8	c7 80 a8 00 00
	00 00 00 00 00	 mov	 DWORD PTR [eax+168], 0

; 279  : 	return;
; 280  : }

  012d2	5f		 pop	 edi
  012d3	5e		 pop	 esi
  012d4	83 c4 04	 add	 esp, 4
  012d7	3b ec		 cmp	 ebp, esp
  012d9	e8 00 00 00 00	 call	 __RTC_CheckEsp
  012de	8b e5		 mov	 esp, ebp
  012e0	5d		 pop	 ebp
  012e1	c2 0c 00	 ret	 12			; 0000000cH
?OnLButtonUp@CPlayBoxDlg@@IAEXIVCPoint@@@Z ENDP		; CPlayBoxDlg::OnLButtonUp
_TEXT	ENDS
PUBLIC	?_needChangeCursor@CPlayBoxDlg@@AAEHABVCPoint@@@Z ; CPlayBoxDlg::_needChangeCursor
EXTRN	?OnLButtonDown@CWnd@@IAEXIVCPoint@@@Z:NEAR	; CWnd::OnLButtonDown
EXTRN	?GetWindowRect@CWnd@@QBEXPAUtagRECT@@@Z:NEAR	; CWnd::GetWindowRect
EXTRN	?ClientToScreen@CWnd@@QBEXPAUtagPOINT@@@Z:NEAR	; CWnd::ClientToScreen
EXTRN	?SetCapture@CWnd@@QAEPAV1@XZ:NEAR		; CWnd::SetCapture
; Function compile flags: /Odt /RTCsu
_TEXT	SEGMENT
_this$ = -4						; size = 4
_nFlags$ = 8						; size = 4
_point$ = 12						; size = 8
?OnLButtonDown@CPlayBoxDlg@@IAEXIVCPoint@@@Z PROC NEAR	; CPlayBoxDlg::OnLButtonDown
; _this$ = ecx

; 283  : {

  012f0	55		 push	 ebp
  012f1	8b ec		 mov	 ebp, esp
  012f3	51		 push	 ecx
  012f4	c7 45 fc cc cc
	cc cc		 mov	 DWORD PTR [ebp-4], -858993460 ; ccccccccH
  012fb	89 4d fc	 mov	 DWORD PTR _this$[ebp], ecx

; 284  : 	m_iDirection = 0;

  012fe	8b 45 fc	 mov	 eax, DWORD PTR _this$[ebp]
  01301	c7 80 a4 00 00
	00 00 00 00 00	 mov	 DWORD PTR [eax+164], 0

; 285  : 
; 286  : 	if( _needChangeCursor(point))

  0130b	8d 4d 0c	 lea	 ecx, DWORD PTR _point$[ebp]
  0130e	51		 push	 ecx
  0130f	8b 4d fc	 mov	 ecx, DWORD PTR _this$[ebp]
  01312	e8 00 00 00 00	 call	 ?_needChangeCursor@CPlayBoxDlg@@AAEHABVCPoint@@@Z ; CPlayBoxDlg::_needChangeCursor
  01317	85 c0		 test	 eax, eax
  01319	0f 84 9c 00 00
	00		 je	 $L197398

; 287  : 	{
; 288  : 		m_bChangeCursor  = true;

  0131f	8b 55 fc	 mov	 edx, DWORD PTR _this$[ebp]
  01322	c6 82 c5 00 00
	00 01		 mov	 BYTE PTR [edx+197], 1

; 289  : 		SetCapture();		

  01329	8b 4d fc	 mov	 ecx, DWORD PTR _this$[ebp]
  0132c	e8 00 00 00 00	 call	 ?SetCapture@CWnd@@QAEPAV1@XZ ; CWnd::SetCapture

; 290  : 		m_bIsResizing = TRUE;

  01331	8b 45 fc	 mov	 eax, DWORD PTR _this$[ebp]
  01334	c7 80 a8 00 00
	00 01 00 00 00	 mov	 DWORD PTR [eax+168], 1

; 291  : 		m_ptStartResizing = point;

  0133e	8b 4d fc	 mov	 ecx, DWORD PTR _this$[ebp]
  01341	8b 55 0c	 mov	 edx, DWORD PTR _point$[ebp]
  01344	89 91 ac 00 00
	00		 mov	 DWORD PTR [ecx+172], edx
  0134a	8b 45 10	 mov	 eax, DWORD PTR _point$[ebp+4]
  0134d	89 81 b0 00 00
	00		 mov	 DWORD PTR [ecx+176], eax

; 292  : 		ClientToScreen( &m_ptStartResizing );

  01353	8b 4d fc	 mov	 ecx, DWORD PTR _this$[ebp]
  01356	81 c1 ac 00 00
	00		 add	 ecx, 172		; 000000acH
  0135c	51		 push	 ecx
  0135d	8b 4d fc	 mov	 ecx, DWORD PTR _this$[ebp]
  01360	e8 00 00 00 00	 call	 ?ClientToScreen@CWnd@@QBEXPAUtagPOINT@@@Z ; CWnd::ClientToScreen

; 293  : 		GetWindowRect( m_rectStarResizing );

  01365	8b 4d fc	 mov	 ecx, DWORD PTR _this$[ebp]
  01368	81 c1 b4 00 00
	00		 add	 ecx, 180		; 000000b4H
  0136e	e8 00 00 00 00	 call	 ??BCRect@@QAEPAUtagRECT@@XZ ; CRect::operator tagRECT *
  01373	50		 push	 eax
  01374	8b 4d fc	 mov	 ecx, DWORD PTR _this$[ebp]
  01377	e8 00 00 00 00	 call	 ?GetWindowRect@CWnd@@QBEXPAUtagRECT@@@Z ; CWnd::GetWindowRect

; 294  : 		GetWindowRect(&m_rcMain);

  0137c	8b 55 fc	 mov	 edx, DWORD PTR _this$[ebp]
  0137f	81 c2 94 00 00
	00		 add	 edx, 148		; 00000094H
  01385	52		 push	 edx
  01386	8b 4d fc	 mov	 ecx, DWORD PTR _this$[ebp]
  01389	e8 00 00 00 00	 call	 ?GetWindowRect@CWnd@@QBEXPAUtagRECT@@@Z ; CWnd::GetWindowRect

; 295  : 		DrawMoveFrame(m_rcMain);

  0138e	8b 45 fc	 mov	 eax, DWORD PTR _this$[ebp]
  01391	05 94 00 00 00	 add	 eax, 148		; 00000094H
  01396	83 ec 10	 sub	 esp, 16			; 00000010H
  01399	8b cc		 mov	 ecx, esp
  0139b	8b 10		 mov	 edx, DWORD PTR [eax]
  0139d	89 11		 mov	 DWORD PTR [ecx], edx
  0139f	8b 50 04	 mov	 edx, DWORD PTR [eax+4]
  013a2	89 51 04	 mov	 DWORD PTR [ecx+4], edx
  013a5	8b 50 08	 mov	 edx, DWORD PTR [eax+8]
  013a8	89 51 08	 mov	 DWORD PTR [ecx+8], edx
  013ab	8b 40 0c	 mov	 eax, DWORD PTR [eax+12]
  013ae	89 41 0c	 mov	 DWORD PTR [ecx+12], eax
  013b1	8b 4d fc	 mov	 ecx, DWORD PTR _this$[ebp]
  013b4	e8 00 00 00 00	 call	 ?DrawMoveFrame@CPlayBoxDlg@@AAEXVCRect@@@Z ; CPlayBoxDlg::DrawMoveFrame

; 296  : 		return ;

  013b9	eb 34		 jmp	 SHORT $L197397
$L197398:

; 297  : 	}		
; 298  : 	
; 299  : 	m_bIsResizing = FALSE;

  013bb	8b 4d fc	 mov	 ecx, DWORD PTR _this$[ebp]
  013be	c7 81 a8 00 00
	00 00 00 00 00	 mov	 DWORD PTR [ecx+168], 0

; 300  : 
; 301  : 	PostMessage( WM_NCLBUTTONDOWN, HTCAPTION, (LPARAM)&point );	

  013c8	8d 55 0c	 lea	 edx, DWORD PTR _point$[ebp]
  013cb	52		 push	 edx
  013cc	6a 02		 push	 2
  013ce	68 a1 00 00 00	 push	 161			; 000000a1H
  013d3	8b 4d fc	 mov	 ecx, DWORD PTR _this$[ebp]
  013d6	e8 00 00 00 00	 call	 ?PostMessageA@CWnd@@QAEHIIJ@Z ; CWnd::PostMessageA

; 302  : 	CDialog::OnLButtonDown(nFlags, point);

  013db	8b 45 10	 mov	 eax, DWORD PTR _point$[ebp+4]
  013de	50		 push	 eax
  013df	8b 4d 0c	 mov	 ecx, DWORD PTR _point$[ebp]
  013e2	51		 push	 ecx
  013e3	8b 55 08	 mov	 edx, DWORD PTR _nFlags$[ebp]
  013e6	52		 push	 edx
  013e7	8b 4d fc	 mov	 ecx, DWORD PTR _this$[ebp]
  013ea	e8 00 00 00 00	 call	 ?OnLButtonDown@CWnd@@IAEXIVCPoint@@@Z ; CWnd::OnLButtonDown
$L197397:

; 303  : }

  013ef	83 c4 04	 add	 esp, 4
  013f2	3b ec		 cmp	 ebp, esp
  013f4	e8 00 00 00 00	 call	 __RTC_CheckEsp
  013f9	8b e5		 mov	 esp, ebp
  013fb	5d		 pop	 ebp
  013fc	c2 0c 00	 ret	 12			; 0000000cH
?OnLButtonDown@CPlayBoxDlg@@IAEXIVCPoint@@@Z ENDP	; CPlayBoxDlg::OnLButtonDown
_TEXT	ENDS
EXTRN	?OnMouseMove@CWnd@@IAEXIVCPoint@@@Z:NEAR	; CWnd::OnMouseMove
EXTRN	__imp__SetCursor@4:NEAR
EXTRN	__imp__LoadCursorA@8:NEAR
; Function compile flags: /Odt /RTCsu
_TEXT	SEGMENT
_newRect$197416 = -60					; size = 16
_diff$197415 = -36					; size = 8
_tmpPT$197414 = -20					; size = 8
_m_hCursor$197408 = -8					; size = 4
_this$ = -4						; size = 4
_nFlags$ = 8						; size = 4
_point$ = 12						; size = 8
?OnMouseMove@CPlayBoxDlg@@IAEXIVCPoint@@@Z PROC NEAR	; CPlayBoxDlg::OnMouseMove
; _this$ = ecx

; 306  : {

  01400	55		 push	 ebp
  01401	8b ec		 mov	 ebp, esp
  01403	83 ec 40	 sub	 esp, 64			; 00000040H
  01406	56		 push	 esi
  01407	57		 push	 edi
  01408	51		 push	 ecx
  01409	8d 7d c0	 lea	 edi, DWORD PTR [ebp-64]
  0140c	b9 10 00 00 00	 mov	 ecx, 16			; 00000010H
  01411	b8 cc cc cc cc	 mov	 eax, -858993460		; ccccccccH
  01416	f3 ab		 rep stosd
  01418	59		 pop	 ecx
  01419	89 4d fc	 mov	 DWORD PTR _this$[ebp], ecx

; 307  : 	if( !m_bIsResizing )

  0141c	8b 45 fc	 mov	 eax, DWORD PTR _this$[ebp]
  0141f	83 b8 a8 00 00
	00 00		 cmp	 DWORD PTR [eax+168], 0
  01426	75 60		 jne	 SHORT $L197405

; 308  : 	{
; 309  : 		if( !_needChangeCursor( point ) )

  01428	8d 4d 0c	 lea	 ecx, DWORD PTR _point$[ebp]
  0142b	51		 push	 ecx
  0142c	8b 4d fc	 mov	 ecx, DWORD PTR _this$[ebp]
  0142f	e8 00 00 00 00	 call	 ?_needChangeCursor@CPlayBoxDlg@@AAEHABVCPoint@@@Z ; CPlayBoxDlg::_needChangeCursor
  01434	85 c0		 test	 eax, eax
  01436	75 46		 jne	 SHORT $L197406

; 310  : 		{
; 311  : 			if( m_bChangeCursor )

  01438	8b 55 fc	 mov	 edx, DWORD PTR _this$[ebp]
  0143b	0f b6 82 c5 00
	00 00		 movzx	 eax, BYTE PTR [edx+197]
  01442	85 c0		 test	 eax, eax
  01444	74 36		 je	 SHORT $L197407

; 312  : 			{
; 313  : 				HCURSOR  m_hCursor = ::LoadCursor(NULL, IDC_ARROW);			

  01446	8b f4		 mov	 esi, esp
  01448	68 00 7f 00 00	 push	 32512			; 00007f00H
  0144d	6a 00		 push	 0
  0144f	ff 15 00 00 00
	00		 call	 DWORD PTR __imp__LoadCursorA@8
  01455	3b f4		 cmp	 esi, esp
  01457	e8 00 00 00 00	 call	 __RTC_CheckEsp
  0145c	89 45 f8	 mov	 DWORD PTR _m_hCursor$197408[ebp], eax

; 314  : 				::SetCursor(m_hCursor);			

  0145f	8b f4		 mov	 esi, esp
  01461	8b 4d f8	 mov	 ecx, DWORD PTR _m_hCursor$197408[ebp]
  01464	51		 push	 ecx
  01465	ff 15 00 00 00
	00		 call	 DWORD PTR __imp__SetCursor@4
  0146b	3b f4		 cmp	 esi, esp
  0146d	e8 00 00 00 00	 call	 __RTC_CheckEsp

; 315  : 				m_bChangeCursor = false;

  01472	8b 55 fc	 mov	 edx, DWORD PTR _this$[ebp]
  01475	c6 82 c5 00 00
	00 00		 mov	 BYTE PTR [edx+197], 0
$L197407:

; 316  : 			}
; 317  : 		}
; 318  : 		else

  0147c	eb 0a		 jmp	 SHORT $L197405
$L197406:

; 319  : 		{
; 320  : 			m_bChangeCursor = true;

  0147e	8b 45 fc	 mov	 eax, DWORD PTR _this$[ebp]
  01481	c6 80 c5 00 00
	00 01		 mov	 BYTE PTR [eax+197], 1
$L197405:

; 321  : 		}
; 322  : 	}
; 323  : 
; 324  : 	if( nFlags & MK_LBUTTON && m_bIsResizing )//

  01488	8b 4d 08	 mov	 ecx, DWORD PTR _nFlags$[ebp]
  0148b	83 e1 01	 and	 ecx, 1
  0148e	0f 84 3c 03 00
	00		 je	 $L197413
  01494	8b 55 fc	 mov	 edx, DWORD PTR _this$[ebp]
  01497	83 ba a8 00 00
	00 00		 cmp	 DWORD PTR [edx+168], 0
  0149e	0f 84 2c 03 00
	00		 je	 $L197413

; 325  : 	{
; 326  : 		CPoint tmpPT = point;

  014a4	8b 45 0c	 mov	 eax, DWORD PTR _point$[ebp]
  014a7	89 45 ec	 mov	 DWORD PTR _tmpPT$197414[ebp], eax
  014aa	8b 4d 10	 mov	 ecx, DWORD PTR _point$[ebp+4]
  014ad	89 4d f0	 mov	 DWORD PTR _tmpPT$197414[ebp+4], ecx

; 327  : 		ClientToScreen(&tmpPT);

  014b0	8d 55 ec	 lea	 edx, DWORD PTR _tmpPT$197414[ebp]
  014b3	52		 push	 edx
  014b4	8b 4d fc	 mov	 ecx, DWORD PTR _this$[ebp]
  014b7	e8 00 00 00 00	 call	 ?ClientToScreen@CWnd@@QBEXPAUtagPOINT@@@Z ; CWnd::ClientToScreen

; 328  : 		//Pt    
; 329  : 		CPoint diff;

  014bc	8d 4d dc	 lea	 ecx, DWORD PTR _diff$197415[ebp]
  014bf	e8 00 00 00 00	 call	 ??0CPoint@@QAE@XZ	; CPoint::CPoint

; 330  : 		diff.x = tmpPT.x - m_ptStartResizing.x;

  014c4	8b 45 fc	 mov	 eax, DWORD PTR _this$[ebp]
  014c7	8b 4d ec	 mov	 ecx, DWORD PTR _tmpPT$197414[ebp]
  014ca	2b 88 ac 00 00
	00		 sub	 ecx, DWORD PTR [eax+172]
  014d0	89 4d dc	 mov	 DWORD PTR _diff$197415[ebp], ecx

; 331  : 		diff.y = tmpPT.y - m_ptStartResizing.y;

  014d3	8b 55 fc	 mov	 edx, DWORD PTR _this$[ebp]
  014d6	8b 45 f0	 mov	 eax, DWORD PTR _tmpPT$197414[ebp+4]
  014d9	2b 82 b0 00 00
	00		 sub	 eax, DWORD PTR [edx+176]
  014df	89 45 e0	 mov	 DWORD PTR _diff$197415[ebp+4], eax

; 332  : 
; 333  : 		CRect newRect;

  014e2	8d 4d c4	 lea	 ecx, DWORD PTR _newRect$197416[ebp]
  014e5	e8 00 00 00 00	 call	 ??0CRect@@QAE@XZ	; CRect::CRect

; 334  : 
; 335  : 		if( m_iDirection & DIRECTION_LEFT )

  014ea	8b 4d fc	 mov	 ecx, DWORD PTR _this$[ebp]
  014ed	8b 91 a4 00 00
	00		 mov	 edx, DWORD PTR [ecx+164]
  014f3	83 e2 01	 and	 edx, 1
  014f6	74 68		 je	 SHORT $L197417

; 336  : 		{
; 337  : 			newRect.left = m_rectStarResizing.left + diff.x;

  014f8	8b 45 fc	 mov	 eax, DWORD PTR _this$[ebp]
  014fb	8b 88 b4 00 00
	00		 mov	 ecx, DWORD PTR [eax+180]
  01501	03 4d dc	 add	 ecx, DWORD PTR _diff$197415[ebp]
  01504	89 4d c4	 mov	 DWORD PTR _newRect$197416[ebp], ecx

; 338  : 			newRect.right = m_rectStarResizing.right;

  01507	8b 55 fc	 mov	 edx, DWORD PTR _this$[ebp]
  0150a	8b 82 bc 00 00
	00		 mov	 eax, DWORD PTR [edx+188]
  01510	89 45 cc	 mov	 DWORD PTR _newRect$197416[ebp+8], eax

; 339  : 			newRect.bottom = m_rectStarResizing.bottom;

  01513	8b 4d fc	 mov	 ecx, DWORD PTR _this$[ebp]
  01516	8b 91 c0 00 00
	00		 mov	 edx, DWORD PTR [ecx+192]
  0151c	89 55 d0	 mov	 DWORD PTR _newRect$197416[ebp+12], edx

; 340  : 			newRect.top = m_rectStarResizing.top;

  0151f	8b 45 fc	 mov	 eax, DWORD PTR _this$[ebp]
  01522	8b 88 b8 00 00
	00		 mov	 ecx, DWORD PTR [eax+184]
  01528	89 4d c8	 mov	 DWORD PTR _newRect$197416[ebp+4], ecx

; 341  : 
; 342  : 			if( m_iDirection & DIRECTION_TOP )

  0152b	8b 55 fc	 mov	 edx, DWORD PTR _this$[ebp]
  0152e	8b 82 a4 00 00
	00		 mov	 eax, DWORD PTR [edx+164]
  01534	83 e0 04	 and	 eax, 4
  01537	74 0b		 je	 SHORT $L197418

; 343  : 			{
; 344  : 				newRect.top += diff.y;

  01539	8b 4d c8	 mov	 ecx, DWORD PTR _newRect$197416[ebp+4]
  0153c	03 4d e0	 add	 ecx, DWORD PTR _diff$197415[ebp+4]
  0153f	89 4d c8	 mov	 DWORD PTR _newRect$197416[ebp+4], ecx

; 345  : 			}
; 346  : 			else if( m_iDirection & DIRECTION_BOTTOM )

  01542	eb 17		 jmp	 SHORT $L197419
$L197418:
  01544	8b 55 fc	 mov	 edx, DWORD PTR _this$[ebp]
  01547	8b 82 a4 00 00
	00		 mov	 eax, DWORD PTR [edx+164]
  0154d	83 e0 08	 and	 eax, 8
  01550	74 09		 je	 SHORT $L197419

; 347  : 			{
; 348  : 				newRect.bottom += diff.y;

  01552	8b 4d d0	 mov	 ecx, DWORD PTR _newRect$197416[ebp+12]
  01555	03 4d e0	 add	 ecx, DWORD PTR _diff$197415[ebp+4]
  01558	89 4d d0	 mov	 DWORD PTR _newRect$197416[ebp+12], ecx
$L197419:

; 349  : 			}				
; 350  : 		}
; 351  : 		else if( m_iDirection & DIRECTION_RIGHT )

  0155b	e9 78 01 00 00	 jmp	 $L197421
$L197417:
  01560	8b 55 fc	 mov	 edx, DWORD PTR _this$[ebp]
  01563	8b 82 a4 00 00
	00		 mov	 eax, DWORD PTR [edx+164]
  01569	83 e0 02	 and	 eax, 2
  0156c	74 68		 je	 SHORT $L197422

; 352  : 		{		
; 353  : 			newRect.left = m_rectStarResizing.left;

  0156e	8b 4d fc	 mov	 ecx, DWORD PTR _this$[ebp]
  01571	8b 91 b4 00 00
	00		 mov	 edx, DWORD PTR [ecx+180]
  01577	89 55 c4	 mov	 DWORD PTR _newRect$197416[ebp], edx

; 354  : 			newRect.right = m_rectStarResizing.right + diff.x;

  0157a	8b 45 fc	 mov	 eax, DWORD PTR _this$[ebp]
  0157d	8b 88 bc 00 00
	00		 mov	 ecx, DWORD PTR [eax+188]
  01583	03 4d dc	 add	 ecx, DWORD PTR _diff$197415[ebp]
  01586	89 4d cc	 mov	 DWORD PTR _newRect$197416[ebp+8], ecx

; 355  : 			newRect.bottom = m_rectStarResizing.bottom;

  01589	8b 55 fc	 mov	 edx, DWORD PTR _this$[ebp]
  0158c	8b 82 c0 00 00
	00		 mov	 eax, DWORD PTR [edx+192]
  01592	89 45 d0	 mov	 DWORD PTR _newRect$197416[ebp+12], eax

; 356  : 			newRect.top = m_rectStarResizing.top;

  01595	8b 4d fc	 mov	 ecx, DWORD PTR _this$[ebp]
  01598	8b 91 b8 00 00
	00		 mov	 edx, DWORD PTR [ecx+184]
  0159e	89 55 c8	 mov	 DWORD PTR _newRect$197416[ebp+4], edx

; 357  : 
; 358  : 			if( m_iDirection & DIRECTION_TOP )

  015a1	8b 45 fc	 mov	 eax, DWORD PTR _this$[ebp]
  015a4	8b 88 a4 00 00
	00		 mov	 ecx, DWORD PTR [eax+164]
  015aa	83 e1 04	 and	 ecx, 4
  015ad	74 0b		 je	 SHORT $L197423

; 359  : 			{
; 360  : 				newRect.top += diff.y;

  015af	8b 55 c8	 mov	 edx, DWORD PTR _newRect$197416[ebp+4]
  015b2	03 55 e0	 add	 edx, DWORD PTR _diff$197415[ebp+4]
  015b5	89 55 c8	 mov	 DWORD PTR _newRect$197416[ebp+4], edx

; 361  : 			}
; 362  : 			else if( m_iDirection & DIRECTION_BOTTOM )

  015b8	eb 17		 jmp	 SHORT $L197424
$L197423:
  015ba	8b 45 fc	 mov	 eax, DWORD PTR _this$[ebp]
  015bd	8b 88 a4 00 00
	00		 mov	 ecx, DWORD PTR [eax+164]
  015c3	83 e1 08	 and	 ecx, 8
  015c6	74 09		 je	 SHORT $L197424

; 363  : 			{
; 364  : 				newRect.bottom += diff.y;

  015c8	8b 55 d0	 mov	 edx, DWORD PTR _newRect$197416[ebp+12]
  015cb	03 55 e0	 add	 edx, DWORD PTR _diff$197415[ebp+4]
  015ce	89 55 d0	 mov	 DWORD PTR _newRect$197416[ebp+12], edx
$L197424:

; 365  : 			}		
; 366  : 		}
; 367  : 		else if( m_iDirection & DIRECTION_TOP )

  015d1	e9 02 01 00 00	 jmp	 $L197421
$L197422:
  015d6	8b 45 fc	 mov	 eax, DWORD PTR _this$[ebp]
  015d9	8b 88 a4 00 00
	00		 mov	 ecx, DWORD PTR [eax+164]
  015df	83 e1 04	 and	 ecx, 4
  015e2	74 68		 je	 SHORT $L197427

; 368  : 		{
; 369  : 			newRect.left = m_rectStarResizing.left;

  015e4	8b 55 fc	 mov	 edx, DWORD PTR _this$[ebp]
  015e7	8b 82 b4 00 00
	00		 mov	 eax, DWORD PTR [edx+180]
  015ed	89 45 c4	 mov	 DWORD PTR _newRect$197416[ebp], eax

; 370  : 			newRect.right = m_rectStarResizing.right;

  015f0	8b 4d fc	 mov	 ecx, DWORD PTR _this$[ebp]
  015f3	8b 91 bc 00 00
	00		 mov	 edx, DWORD PTR [ecx+188]
  015f9	89 55 cc	 mov	 DWORD PTR _newRect$197416[ebp+8], edx

; 371  : 			newRect.bottom = m_rectStarResizing.bottom;

  015fc	8b 45 fc	 mov	 eax, DWORD PTR _this$[ebp]
  015ff	8b 88 c0 00 00
	00		 mov	 ecx, DWORD PTR [eax+192]
  01605	89 4d d0	 mov	 DWORD PTR _newRect$197416[ebp+12], ecx

; 372  : 			newRect.top = m_rectStarResizing.top + diff.y;

  01608	8b 55 fc	 mov	 edx, DWORD PTR _this$[ebp]
  0160b	8b 82 b8 00 00
	00		 mov	 eax, DWORD PTR [edx+184]
  01611	03 45 e0	 add	 eax, DWORD PTR _diff$197415[ebp+4]
  01614	89 45 c8	 mov	 DWORD PTR _newRect$197416[ebp+4], eax

; 373  : 
; 374  : 			if( m_iDirection & DIRECTION_LEFT )

  01617	8b 4d fc	 mov	 ecx, DWORD PTR _this$[ebp]
  0161a	8b 91 a4 00 00
	00		 mov	 edx, DWORD PTR [ecx+164]
  01620	83 e2 01	 and	 edx, 1
  01623	74 0b		 je	 SHORT $L197428

; 375  : 			{
; 376  : 				newRect.left += diff.x;

  01625	8b 45 c4	 mov	 eax, DWORD PTR _newRect$197416[ebp]
  01628	03 45 dc	 add	 eax, DWORD PTR _diff$197415[ebp]
  0162b	89 45 c4	 mov	 DWORD PTR _newRect$197416[ebp], eax

; 377  : 			}
; 378  : 			else if( m_iDirection & DIRECTION_RIGHT )

  0162e	eb 17		 jmp	 SHORT $L197429
$L197428:
  01630	8b 4d fc	 mov	 ecx, DWORD PTR _this$[ebp]
  01633	8b 91 a4 00 00
	00		 mov	 edx, DWORD PTR [ecx+164]
  01639	83 e2 02	 and	 edx, 2
  0163c	74 09		 je	 SHORT $L197429

; 379  : 			{
; 380  : 				newRect.right += diff.x;

  0163e	8b 45 cc	 mov	 eax, DWORD PTR _newRect$197416[ebp+8]
  01641	03 45 dc	 add	 eax, DWORD PTR _diff$197415[ebp]
  01644	89 45 cc	 mov	 DWORD PTR _newRect$197416[ebp+8], eax
$L197429:

; 381  : 			}				
; 382  : 		}
; 383  : 		else if( m_iDirection & DIRECTION_BOTTOM )

  01647	e9 8c 00 00 00	 jmp	 $L197421
$L197427:
  0164c	8b 4d fc	 mov	 ecx, DWORD PTR _this$[ebp]
  0164f	8b 91 a4 00 00
	00		 mov	 edx, DWORD PTR [ecx+164]
  01655	83 e2 08	 and	 edx, 8
  01658	74 65		 je	 SHORT $L197432

; 384  : 		{
; 385  : 			newRect.left = m_rectStarResizing.left;

  0165a	8b 45 fc	 mov	 eax, DWORD PTR _this$[ebp]
  0165d	8b 88 b4 00 00
	00		 mov	 ecx, DWORD PTR [eax+180]
  01663	89 4d c4	 mov	 DWORD PTR _newRect$197416[ebp], ecx

; 386  : 			newRect.right = m_rectStarResizing.right;

  01666	8b 55 fc	 mov	 edx, DWORD PTR _this$[ebp]
  01669	8b 82 bc 00 00
	00		 mov	 eax, DWORD PTR [edx+188]
  0166f	89 45 cc	 mov	 DWORD PTR _newRect$197416[ebp+8], eax

; 387  : 			newRect.bottom = m_rectStarResizing.bottom + diff.y;

  01672	8b 4d fc	 mov	 ecx, DWORD PTR _this$[ebp]
  01675	8b 91 c0 00 00
	00		 mov	 edx, DWORD PTR [ecx+192]
  0167b	03 55 e0	 add	 edx, DWORD PTR _diff$197415[ebp+4]
  0167e	89 55 d0	 mov	 DWORD PTR _newRect$197416[ebp+12], edx

; 388  : 			newRect.top = m_rectStarResizing.top;

  01681	8b 45 fc	 mov	 eax, DWORD PTR _this$[ebp]
  01684	8b 88 b8 00 00
	00		 mov	 ecx, DWORD PTR [eax+184]
  0168a	89 4d c8	 mov	 DWORD PTR _newRect$197416[ebp+4], ecx

; 389  : 
; 390  : 			if( m_iDirection & DIRECTION_LEFT )

  0168d	8b 55 fc	 mov	 edx, DWORD PTR _this$[ebp]
  01690	8b 82 a4 00 00
	00		 mov	 eax, DWORD PTR [edx+164]
  01696	83 e0 01	 and	 eax, 1
  01699	74 0b		 je	 SHORT $L197433

; 391  : 			{
; 392  : 				newRect.left += diff.x;

  0169b	8b 4d c4	 mov	 ecx, DWORD PTR _newRect$197416[ebp]
  0169e	03 4d dc	 add	 ecx, DWORD PTR _diff$197415[ebp]
  016a1	89 4d c4	 mov	 DWORD PTR _newRect$197416[ebp], ecx

; 393  : 			}
; 394  : 			else if( m_iDirection & DIRECTION_RIGHT )

  016a4	eb 17		 jmp	 SHORT $L197434
$L197433:
  016a6	8b 55 fc	 mov	 edx, DWORD PTR _this$[ebp]
  016a9	8b 82 a4 00 00
	00		 mov	 eax, DWORD PTR [edx+164]
  016af	83 e0 02	 and	 eax, 2
  016b2	74 09		 je	 SHORT $L197434

; 395  : 			{
; 396  : 				newRect.right += diff.x;

  016b4	8b 4d cc	 mov	 ecx, DWORD PTR _newRect$197416[ebp+8]
  016b7	03 4d dc	 add	 ecx, DWORD PTR _diff$197415[ebp]
  016ba	89 4d cc	 mov	 DWORD PTR _newRect$197416[ebp+8], ecx
$L197434:

; 397  : 			}			
; 398  : 		}
; 399  : 		else

  016bd	eb 19		 jmp	 SHORT $L197421
$L197432:

; 400  : 		{
; 401  : 			__super::OnMouseMove( nFlags,point );

  016bf	8b 55 10	 mov	 edx, DWORD PTR _point$[ebp+4]
  016c2	52		 push	 edx
  016c3	8b 45 0c	 mov	 eax, DWORD PTR _point$[ebp]
  016c6	50		 push	 eax
  016c7	8b 4d 08	 mov	 ecx, DWORD PTR _nFlags$[ebp]
  016ca	51		 push	 ecx
  016cb	8b 4d fc	 mov	 ecx, DWORD PTR _this$[ebp]
  016ce	e8 00 00 00 00	 call	 ?OnMouseMove@CWnd@@IAEXIVCPoint@@@Z ; CWnd::OnMouseMove

; 402  : 			return;

  016d3	e9 0c 01 00 00	 jmp	 $L197404
$L197421:

; 403  : 		}
; 404  : 
; 405  : 		if(newRect.Width() < m_nMinCx)

  016d8	8d 4d c4	 lea	 ecx, DWORD PTR _newRect$197416[ebp]
  016db	e8 00 00 00 00	 call	 ?Width@CRect@@QBEHXZ	; CRect::Width
  016e0	8b 55 fc	 mov	 edx, DWORD PTR _this$[ebp]
  016e3	3b 82 cc 00 00
	00		 cmp	 eax, DWORD PTR [edx+204]
  016e9	7d 2e		 jge	 SHORT $L197437

; 406  : 		{
; 407  : 			if(m_iDirection & DIRECTION_RIGHT)

  016eb	8b 45 fc	 mov	 eax, DWORD PTR _this$[ebp]
  016ee	8b 88 a4 00 00
	00		 mov	 ecx, DWORD PTR [eax+164]
  016f4	83 e1 02	 and	 ecx, 2
  016f7	74 11		 je	 SHORT $L197438

; 408  : 				newRect.right = newRect.left + m_nMinCx;

  016f9	8b 55 fc	 mov	 edx, DWORD PTR _this$[ebp]
  016fc	8b 45 c4	 mov	 eax, DWORD PTR _newRect$197416[ebp]
  016ff	03 82 cc 00 00
	00		 add	 eax, DWORD PTR [edx+204]
  01705	89 45 cc	 mov	 DWORD PTR _newRect$197416[ebp+8], eax

; 409  : 			else

  01708	eb 0f		 jmp	 SHORT $L197437
$L197438:

; 410  : 				newRect.left = newRect.right - m_nMinCx;

  0170a	8b 4d fc	 mov	 ecx, DWORD PTR _this$[ebp]
  0170d	8b 55 cc	 mov	 edx, DWORD PTR _newRect$197416[ebp+8]
  01710	2b 91 cc 00 00
	00		 sub	 edx, DWORD PTR [ecx+204]
  01716	89 55 c4	 mov	 DWORD PTR _newRect$197416[ebp], edx
$L197437:

; 411  : 		}
; 412  : 		if(newRect.Height() < m_nMinCy)

  01719	8d 4d c4	 lea	 ecx, DWORD PTR _newRect$197416[ebp]
  0171c	e8 00 00 00 00	 call	 ?Height@CRect@@QBEHXZ	; CRect::Height
  01721	8b 4d fc	 mov	 ecx, DWORD PTR _this$[ebp]
  01724	3b 81 d0 00 00
	00		 cmp	 eax, DWORD PTR [ecx+208]
  0172a	7d 2e		 jge	 SHORT $L197440

; 413  : 		{
; 414  : 			if(m_iDirection & DIRECTION_BOTTOM)

  0172c	8b 55 fc	 mov	 edx, DWORD PTR _this$[ebp]
  0172f	8b 82 a4 00 00
	00		 mov	 eax, DWORD PTR [edx+164]
  01735	83 e0 08	 and	 eax, 8
  01738	74 11		 je	 SHORT $L197441

; 415  : 				newRect.bottom = newRect.top + m_nMinCy;

  0173a	8b 4d fc	 mov	 ecx, DWORD PTR _this$[ebp]
  0173d	8b 55 c8	 mov	 edx, DWORD PTR _newRect$197416[ebp+4]
  01740	03 91 d0 00 00
	00		 add	 edx, DWORD PTR [ecx+208]
  01746	89 55 d0	 mov	 DWORD PTR _newRect$197416[ebp+12], edx

; 416  : 			else

  01749	eb 0f		 jmp	 SHORT $L197440
$L197441:

; 417  : 				newRect.top = newRect.bottom - m_nMinCy;

  0174b	8b 45 fc	 mov	 eax, DWORD PTR _this$[ebp]
  0174e	8b 4d d0	 mov	 ecx, DWORD PTR _newRect$197416[ebp+12]
  01751	2b 88 d0 00 00
	00		 sub	 ecx, DWORD PTR [eax+208]
  01757	89 4d c8	 mov	 DWORD PTR _newRect$197416[ebp+4], ecx
$L197440:

; 418  : 		}
; 419  : 		DrawMoveFrame(m_rcMain);

  0175a	8b 55 fc	 mov	 edx, DWORD PTR _this$[ebp]
  0175d	81 c2 94 00 00
	00		 add	 edx, 148		; 00000094H
  01763	83 ec 10	 sub	 esp, 16			; 00000010H
  01766	8b c4		 mov	 eax, esp
  01768	8b 0a		 mov	 ecx, DWORD PTR [edx]
  0176a	89 08		 mov	 DWORD PTR [eax], ecx
  0176c	8b 4a 04	 mov	 ecx, DWORD PTR [edx+4]
  0176f	89 48 04	 mov	 DWORD PTR [eax+4], ecx
  01772	8b 4a 08	 mov	 ecx, DWORD PTR [edx+8]
  01775	89 48 08	 mov	 DWORD PTR [eax+8], ecx
  01778	8b 52 0c	 mov	 edx, DWORD PTR [edx+12]
  0177b	89 50 0c	 mov	 DWORD PTR [eax+12], edx
  0177e	8b 4d fc	 mov	 ecx, DWORD PTR _this$[ebp]
  01781	e8 00 00 00 00	 call	 ?DrawMoveFrame@CPlayBoxDlg@@AAEXVCRect@@@Z ; CPlayBoxDlg::DrawMoveFrame

; 420  : 		m_rcMain = newRect;

  01786	8b 45 fc	 mov	 eax, DWORD PTR _this$[ebp]
  01789	05 94 00 00 00	 add	 eax, 148		; 00000094H
  0178e	8b 4d c4	 mov	 ecx, DWORD PTR _newRect$197416[ebp]
  01791	89 08		 mov	 DWORD PTR [eax], ecx
  01793	8b 55 c8	 mov	 edx, DWORD PTR _newRect$197416[ebp+4]
  01796	89 50 04	 mov	 DWORD PTR [eax+4], edx
  01799	8b 4d cc	 mov	 ecx, DWORD PTR _newRect$197416[ebp+8]
  0179c	89 48 08	 mov	 DWORD PTR [eax+8], ecx
  0179f	8b 55 d0	 mov	 edx, DWORD PTR _newRect$197416[ebp+12]
  017a2	89 50 0c	 mov	 DWORD PTR [eax+12], edx

; 421  : 		DrawMoveFrame(m_rcMain);

  017a5	8b 45 fc	 mov	 eax, DWORD PTR _this$[ebp]
  017a8	05 94 00 00 00	 add	 eax, 148		; 00000094H
  017ad	83 ec 10	 sub	 esp, 16			; 00000010H
  017b0	8b cc		 mov	 ecx, esp
  017b2	8b 10		 mov	 edx, DWORD PTR [eax]
  017b4	89 11		 mov	 DWORD PTR [ecx], edx
  017b6	8b 50 04	 mov	 edx, DWORD PTR [eax+4]
  017b9	89 51 04	 mov	 DWORD PTR [ecx+4], edx
  017bc	8b 50 08	 mov	 edx, DWORD PTR [eax+8]
  017bf	89 51 08	 mov	 DWORD PTR [ecx+8], edx
  017c2	8b 40 0c	 mov	 eax, DWORD PTR [eax+12]
  017c5	89 41 0c	 mov	 DWORD PTR [ecx+12], eax
  017c8	8b 4d fc	 mov	 ecx, DWORD PTR _this$[ebp]
  017cb	e8 00 00 00 00	 call	 ?DrawMoveFrame@CPlayBoxDlg@@AAEXVCRect@@@Z ; CPlayBoxDlg::DrawMoveFrame
$L197413:

; 422  : 		
; 423  : 		
; 424  : 	}
; 425  : 	__super::OnMouseMove( nFlags,point );

  017d0	8b 4d 10	 mov	 ecx, DWORD PTR _point$[ebp+4]
  017d3	51		 push	 ecx
  017d4	8b 55 0c	 mov	 edx, DWORD PTR _point$[ebp]
  017d7	52		 push	 edx
  017d8	8b 45 08	 mov	 eax, DWORD PTR _nFlags$[ebp]
  017db	50		 push	 eax
  017dc	8b 4d fc	 mov	 ecx, DWORD PTR _this$[ebp]
  017df	e8 00 00 00 00	 call	 ?OnMouseMove@CWnd@@IAEXIVCPoint@@@Z ; CWnd::OnMouseMove
$L197404:

; 426  : }

  017e4	52		 push	 edx
  017e5	8b cd		 mov	 ecx, ebp
  017e7	50		 push	 eax
  017e8	8d 15 00 00 00
	00		 lea	 edx, DWORD PTR $L199707
  017ee	e8 00 00 00 00	 call	 @_RTC_CheckStackVars@8
  017f3	58		 pop	 eax
  017f4	5a		 pop	 edx
  017f5	5f		 pop	 edi
  017f6	5e		 pop	 esi
  017f7	83 c4 40	 add	 esp, 64			; 00000040H
  017fa	3b ec		 cmp	 ebp, esp
  017fc	e8 00 00 00 00	 call	 __RTC_CheckEsp
  01801	8b e5		 mov	 esp, ebp
  01803	5d		 pop	 ebp
  01804	c2 0c 00	 ret	 12			; 0000000cH
$L199707:
  01807	03 00 00 00	 DD	 3
  0180b	00 00 00 00	 DD	 $L199706
$L199706:
  0180f	ec ff ff ff	 DD	 -20			; ffffffecH
  01813	08 00 00 00	 DD	 8
  01817	00 00 00 00	 DD	 $L199703
  0181b	dc ff ff ff	 DD	 -36			; ffffffdcH
  0181f	08 00 00 00	 DD	 8
  01823	00 00 00 00	 DD	 $L199704
  01827	c4 ff ff ff	 DD	 -60			; ffffffc4H
  0182b	10 00 00 00	 DD	 16			; 00000010H
  0182f	00 00 00 00	 DD	 $L199705
$L199705:
  01833	6e		 DB	 110			; 0000006eH
  01834	65		 DB	 101			; 00000065H
  01835	77		 DB	 119			; 00000077H
  01836	52		 DB	 82			; 00000052H
  01837	65		 DB	 101			; 00000065H
  01838	63		 DB	 99			; 00000063H
  01839	74		 DB	 116			; 00000074H
  0183a	00		 DB	 0
$L199704:
  0183b	64		 DB	 100			; 00000064H
  0183c	69		 DB	 105			; 00000069H
  0183d	66		 DB	 102			; 00000066H
  0183e	66		 DB	 102			; 00000066H
  0183f	00		 DB	 0
$L199703:
  01840	74		 DB	 116			; 00000074H
  01841	6d		 DB	 109			; 0000006dH
  01842	70		 DB	 112			; 00000070H
  01843	50		 DB	 80			; 00000050H
  01844	54		 DB	 84			; 00000054H
  01845	00		 DB	 0
?OnMouseMove@CPlayBoxDlg@@IAEXIVCPoint@@@Z ENDP		; CPlayBoxDlg::OnMouseMove
_TEXT	ENDS
PUBLIC	?_AtlInstallStringThunk@ATL@@YAXPAPAXPAX1@Z	; ATL::_AtlInstallStringThunk
PUBLIC	?GetEnvironmentVariableWFake@ATL@@YGKPB_WPA_WK@Z ; ATL::GetEnvironmentVariableWFake
EXTRN	__imp__GetEnvironmentVariableW@12:NEAR
; Function compile flags: /Odt /RTCsu
; File d:\program files (x86)\microsoft visual studio .net 2003\vc7\atlmfc\include\cstringt.h
;	COMDAT ?GetEnvironmentVariableWThunk@ATL@@YGKPB_WPA_WK@Z
_TEXT	SEGMENT
_pszName$ = 8						; size = 4
_pszBuffer$ = 12					; size = 4
_nSize$ = 16						; size = 4
?GetEnvironmentVariableWThunk@ATL@@YGKPB_WPA_WK@Z PROC NEAR ; ATL::GetEnvironmentVariableWThunk, COMDAT

; 183  : {

  00000	55		 push	 ebp
  00001	8b ec		 mov	 ebp, esp
  00003	56		 push	 esi

; 184  : 	_AtlInstallStringThunk(reinterpret_cast<void**>(&_strthunks.pfnGetEnvironmentVariableW), 
; 185  : 		GetEnvironmentVariableWFake, ::GetEnvironmentVariableW);

  00004	a1 00 00 00 00	 mov	 eax, DWORD PTR __imp__GetEnvironmentVariableW@12
  00009	50		 push	 eax
  0000a	68 00 00 00 00	 push	 OFFSET FLAT:?GetEnvironmentVariableWFake@ATL@@YGKPB_WPA_WK@Z ; ATL::GetEnvironmentVariableWFake
  0000f	68 14 00 00 00	 push	 OFFSET FLAT:?_strthunks@ATL@@3U_AtlStringThunks@1@A+20
  00014	e8 00 00 00 00	 call	 ?_AtlInstallStringThunk@ATL@@YAXPAPAXPAX1@Z ; ATL::_AtlInstallStringThunk
  00019	83 c4 0c	 add	 esp, 12			; 0000000cH

; 186  : 
; 187  : 	return _strthunks.pfnGetEnvironmentVariableW(pszName, pszBuffer, nSize);

  0001c	8b f4		 mov	 esi, esp
  0001e	8b 4d 10	 mov	 ecx, DWORD PTR _nSize$[ebp]
  00021	51		 push	 ecx
  00022	8b 55 0c	 mov	 edx, DWORD PTR _pszBuffer$[ebp]
  00025	52		 push	 edx
  00026	8b 45 08	 mov	 eax, DWORD PTR _pszName$[ebp]
  00029	50		 push	 eax
  0002a	ff 15 14 00 00
	00		 call	 DWORD PTR ?_strthunks@ATL@@3U_AtlStringThunks@1@A+20
  00030	3b f4		 cmp	 esi, esp
  00032	e8 00 00 00 00	 call	 __RTC_CheckEsp

; 188  : }

  00037	5e		 pop	 esi
  00038	3b ec		 cmp	 ebp, esp
  0003a	e8 00 00 00 00	 call	 __RTC_CheckEsp
  0003f	5d		 pop	 ebp
  00040	c2 0c 00	 ret	 12			; 0000000cH
?GetEnvironmentVariableWThunk@ATL@@YGKPB_WPA_WK@Z ENDP	; ATL::GetEnvironmentVariableWThunk
_TEXT	ENDS
PUBLIC	?s_bWin9x@?1??_AtlInstallStringThunk@ATL@@YAXPAPAXPAX1@Z@4_NA ; `ATL::_AtlInstallStringThunk'::`2'::s_bWin9x
PUBLIC	??_B?1??_AtlInstallStringThunk@ATL@@YAXPAPAXPAX1@Z@51 ; `ATL::_AtlInstallStringThunk'::`2'::`local static guard'
EXTRN	__imp__GetVersion@0:NEAR
;	COMDAT ?s_bWin9x@?1??_AtlInstallStringThunk@ATL@@YAXPAPAXPAX1@Z@4_NA
_BSS	SEGMENT
?s_bWin9x@?1??_AtlInstallStringThunk@ATL@@YAXPAPAXPAX1@Z@4_NA DB 01H DUP (?) ; `ATL::_AtlInstallStringThunk'::`2'::s_bWin9x
_BSS	ENDS
;	COMDAT ??_B?1??_AtlInstallStringThunk@ATL@@YAXPAPAXPAX1@Z@51
_BSS	SEGMENT
??_B?1??_AtlInstallStringThunk@ATL@@YAXPAPAXPAX1@Z@51 DD 01H DUP (?) ; `ATL::_AtlInstallStringThunk'::`2'::`local static guard'
; Function compile flags: /Odt /RTCsu
_BSS	ENDS
;	COMDAT ?_AtlInstallStringThunk@ATL@@YAXPAPAXPAX1@Z
_TEXT	SEGMENT
_pfn$ = -4						; size = 4
_ppThunk$ = 8						; size = 4
_pfnWin9x$ = 12						; size = 4
_pfnNT$ = 16						; size = 4
?_AtlInstallStringThunk@ATL@@YAXPAPAXPAX1@Z PROC NEAR	; ATL::_AtlInstallStringThunk, COMDAT

; 115  : {

  00000	55		 push	 ebp
  00001	8b ec		 mov	 ebp, esp
  00003	51		 push	 ecx
  00004	56		 push	 esi
  00005	c7 45 fc cc cc
	cc cc		 mov	 DWORD PTR [ebp-4], -858993460 ; ccccccccH

; 116  : #pragma warning (push)
; 117  : #pragma warning (disable : 4640)	// construction of local static object is not thread-safe
; 118  : 
; 119  : 	static bool s_bWin9x = (::GetVersion()&0x80000000) != 0;

  0000c	a1 00 00 00 00	 mov	 eax, DWORD PTR ??_B?1??_AtlInstallStringThunk@ATL@@YAXPAPAXPAX1@Z@51
  00011	83 e0 01	 and	 eax, 1
  00014	75 2e		 jne	 SHORT $L26217
  00016	8b 0d 00 00 00
	00		 mov	 ecx, DWORD PTR ??_B?1??_AtlInstallStringThunk@ATL@@YAXPAPAXPAX1@Z@51
  0001c	83 c9 01	 or	 ecx, 1
  0001f	89 0d 00 00 00
	00		 mov	 DWORD PTR ??_B?1??_AtlInstallStringThunk@ATL@@YAXPAPAXPAX1@Z@51, ecx
  00025	8b f4		 mov	 esi, esp
  00027	ff 15 00 00 00
	00		 call	 DWORD PTR __imp__GetVersion@0
  0002d	3b f4		 cmp	 esi, esp
  0002f	e8 00 00 00 00	 call	 __RTC_CheckEsp
  00034	25 00 00 00 80	 and	 eax, -2147483648	; 80000000H
  00039	f7 d8		 neg	 eax
  0003b	1b c0		 sbb	 eax, eax
  0003d	f7 d8		 neg	 eax
  0003f	a2 00 00 00 00	 mov	 BYTE PTR ?s_bWin9x@?1??_AtlInstallStringThunk@ATL@@YAXPAPAXPAX1@Z@4_NA, al ; `ATL::_AtlInstallStringThunk'::`2'::s_bWin9x
$L26217:

; 120  : 	
; 121  : #pragma warning (pop)
; 122  : 
; 123  : 	void* pfn;
; 124  : 	if (s_bWin9x)

  00044	0f b6 15 00 00
	00 00		 movzx	 edx, BYTE PTR ?s_bWin9x@?1??_AtlInstallStringThunk@ATL@@YAXPAPAXPAX1@Z@4_NA ; `ATL::_AtlInstallStringThunk'::`2'::s_bWin9x
  0004b	85 d2		 test	 edx, edx
  0004d	74 08		 je	 SHORT $L26219

; 125  : 		pfn = pfnWin9x;

  0004f	8b 45 0c	 mov	 eax, DWORD PTR _pfnWin9x$[ebp]
  00052	89 45 fc	 mov	 DWORD PTR _pfn$[ebp], eax

; 126  : 	else

  00055	eb 06		 jmp	 SHORT $L26220
$L26219:

; 127  : 	{
; 128  : #ifdef _CSTRING_ALWAYS_THUNK
; 129  : 		pfn = pfnWin9x;
; 130  : 		(void)pfnNT;
; 131  : #else
; 132  : 		pfn = pfnNT;

  00057	8b 4d 10	 mov	 ecx, DWORD PTR _pfnNT$[ebp]
  0005a	89 4d fc	 mov	 DWORD PTR _pfn$[ebp], ecx
$L26220:

; 133  : #endif
; 134  : 	}
; 135  : 	InterlockedExchangePointer(ppThunk, pfn);

  0005d	8b 55 fc	 mov	 edx, DWORD PTR _pfn$[ebp]
  00060	52		 push	 edx
  00061	8b 45 08	 mov	 eax, DWORD PTR _ppThunk$[ebp]
  00064	50		 push	 eax
  00065	e8 00 00 00 00	 call	 ?InterlockedExchangePointer@@YGPAXPAPAXPAX@Z ; InterlockedExchangePointer

; 136  : }

  0006a	5e		 pop	 esi
  0006b	83 c4 04	 add	 esp, 4
  0006e	3b ec		 cmp	 ebp, esp
  00070	e8 00 00 00 00	 call	 __RTC_CheckEsp
  00075	8b e5		 mov	 esp, ebp
  00077	5d		 pop	 ebp
  00078	c3		 ret	 0
?_AtlInstallStringThunk@ATL@@YAXPAPAXPAX1@Z ENDP	; ATL::_AtlInstallStringThunk
_TEXT	ENDS
PUBLIC	??_C@_0FH@KDPNIMBO@D?3?2Program?5Files?5?$CIx86?$CJ?2Microsoft@ ; `string'
PUBLIC	?_AtlGetConversionACP@ATL@@YGIXZ		; ATL::_AtlGetConversionACP
PUBLIC	??0?$CTempBuffer@D$0IA@VCCRTAllocator@ATL@@@ATL@@QAE@XZ ; ATL::CTempBuffer<char,128,ATL::CCRTAllocator>::CTempBuffer<char,128,ATL::CCRTAllocator>
PUBLIC	??1?$CTempBuffer@D$0IA@VCCRTAllocator@ATL@@@ATL@@QAE@XZ ; ATL::CTempBuffer<char,128,ATL::CCRTAllocator>::~CTempBuffer<char,128,ATL::CCRTAllocator>
PUBLIC	??B?$CTempBuffer@D$0IA@VCCRTAllocator@ATL@@@ATL@@QBEPADXZ ; ATL::CTempBuffer<char,128,ATL::CCRTAllocator>::operator char *
PUBLIC	?Allocate@?$CTempBuffer@D$0IA@VCCRTAllocator@ATL@@@ATL@@QAEPADI@Z ; ATL::CTempBuffer<char,128,ATL::CCRTAllocator>::Allocate
PUBLIC	??0?$CW2AEX@$0IA@@ATL@@QAE@PB_W@Z		; ATL::CW2AEX<128>::CW2AEX<128>
PUBLIC	??1?$CW2AEX@$0IA@@ATL@@QAE@XZ			; ATL::CW2AEX<128>::~CW2AEX<128>
PUBLIC	??B?$CW2AEX@$0IA@@ATL@@QBEPADXZ			; ATL::CW2AEX<128>::operator char *
PUBLIC	??_C@_0BA@CLMJJCOM@nSize?5?$DO?$DN?5nSizeW?$AA@	; `string'
EXTRN	__imp___CrtDbgReport:NEAR
EXTRN	__imp__MultiByteToWideChar@24:NEAR
EXTRN	__imp__GetEnvironmentVariableA@12:NEAR
;	COMDAT xdata$x
xdata$x	SEGMENT
$T199726 DD	0ffffffffH
	DD	FLAT:$L199716
	DD	00H
	DD	FLAT:$L199717
$T199719 DD	019930520H
	DD	02H
	DD	FLAT:$T199726
	DD	2 DUP(00H)
	DD	2 DUP(00H)
xdata$x	ENDS
;	COMDAT ??_C@_0BA@CLMJJCOM@nSize?5?$DO?$DN?5nSizeW?$AA@
CONST	SEGMENT
??_C@_0BA@CLMJJCOM@nSize?5?$DO?$DN?5nSizeW?$AA@ DB 'nSize >= nSizeW', 00H ; `string'
CONST	ENDS
;	COMDAT ??_C@_0FH@KDPNIMBO@D?3?2Program?5Files?5?$CIx86?$CJ?2Microsoft@
CONST	SEGMENT
??_C@_0FH@KDPNIMBO@D?3?2Program?5Files?5?$CIx86?$CJ?2Microsoft@ DB 'D:\Pr'
	DB	'ogram Files (x86)\Microsoft Visual Studio .NET 2003\Vc7\atlmf'
	DB	'c\include\cstringt.h', 00H			; `string'
; Function compile flags: /Odt /RTCsu
CONST	ENDS
;	COMDAT ?GetEnvironmentVariableWFake@ATL@@YGKPB_WPA_WK@Z
_TEXT	SEGMENT
$T199715 = -316						; size = 4
$T199713 = -312						; size = 4
$T199712 = -308						; size = 4
_pszNameA$ = -300					; size = 132
_pszBufferA$ = -160					; size = 132
_nSizeW$ = -24						; size = 4
_nSizeA$ = -20						; size = 4
__$ArrayPad$ = -16					; size = 4
__$EHRec$ = -12						; size = 12
__$ReturnAddr$ = 4					; size = 4
_pszName$ = 8						; size = 4
_pszBuffer$ = 12					; size = 4
_nSize$ = 16						; size = 4
?GetEnvironmentVariableWFake@ATL@@YGKPB_WPA_WK@Z PROC NEAR ; ATL::GetEnvironmentVariableWFake, COMDAT

; 159  : {

  00000	55		 push	 ebp
  00001	8b ec		 mov	 ebp, esp
  00003	6a ff		 push	 -1
  00005	68 00 00 00 00	 push	 __ehhandler$?GetEnvironmentVariableWFake@ATL@@YGKPB_WPA_WK@Z
  0000a	64 a1 00 00 00
	00		 mov	 eax, DWORD PTR fs:__except_list
  00010	50		 push	 eax
  00011	64 89 25 00 00
	00 00		 mov	 DWORD PTR fs:__except_list, esp
  00018	81 ec 30 01 00
	00		 sub	 esp, 304		; 00000130H
  0001e	56		 push	 esi
  0001f	57		 push	 edi
  00020	8d bd c4 fe ff
	ff		 lea	 edi, DWORD PTR [ebp-316]
  00026	b9 4c 00 00 00	 mov	 ecx, 76			; 0000004cH
  0002b	b8 cc cc cc cc	 mov	 eax, -858993460		; ccccccccH
  00030	f3 ab		 rep stosd
  00032	a1 00 00 00 00	 mov	 eax, DWORD PTR ___security_cookie
  00037	89 45 f0	 mov	 DWORD PTR __$ArrayPad$[ebp], eax

; 160  : 	ULONG nSizeA;
; 161  : 	ULONG nSizeW;
; 162  : 	CTempBuffer<char> pszBufferA;

  0003a	8d 8d 60 ff ff
	ff		 lea	 ecx, DWORD PTR _pszBufferA$[ebp]
  00040	e8 00 00 00 00	 call	 ??0?$CTempBuffer@D$0IA@VCCRTAllocator@ATL@@@ATL@@QAE@XZ ; ATL::CTempBuffer<char,128,ATL::CCRTAllocator>::CTempBuffer<char,128,ATL::CCRTAllocator>
  00045	c7 45 fc 00 00
	00 00		 mov	 DWORD PTR __$EHRec$[ebp+8], 0

; 163  : 	CW2A pszNameA(pszName);

  0004c	8b 45 08	 mov	 eax, DWORD PTR _pszName$[ebp]
  0004f	50		 push	 eax
  00050	8d 8d d4 fe ff
	ff		 lea	 ecx, DWORD PTR _pszNameA$[ebp]
  00056	e8 00 00 00 00	 call	 ??0?$CW2AEX@$0IA@@ATL@@QAE@PB_W@Z ; ATL::CW2AEX<128>::CW2AEX<128>
  0005b	c6 45 fc 01	 mov	 BYTE PTR __$EHRec$[ebp+8], 1

; 164  : 
; 165  : 	nSizeA = ::GetEnvironmentVariableA(pszNameA, NULL, 0);

  0005f	8b f4		 mov	 esi, esp
  00061	6a 00		 push	 0
  00063	6a 00		 push	 0
  00065	8d 8d d4 fe ff
	ff		 lea	 ecx, DWORD PTR _pszNameA$[ebp]
  0006b	e8 00 00 00 00	 call	 ??B?$CW2AEX@$0IA@@ATL@@QBEPADXZ ; ATL::CW2AEX<128>::operator char *
  00070	50		 push	 eax
  00071	ff 15 00 00 00
	00		 call	 DWORD PTR __imp__GetEnvironmentVariableA@12
  00077	3b f4		 cmp	 esi, esp
  00079	e8 00 00 00 00	 call	 __RTC_CheckEsp
  0007e	89 45 ec	 mov	 DWORD PTR _nSizeA$[ebp], eax

; 166  : 	if (nSizeA == 0)

  00081	83 7d ec 00	 cmp	 DWORD PTR _nSizeA$[ebp], 0
  00085	75 36		 jne	 SHORT $L26322

; 167  : 		return 0;

  00087	c7 85 cc fe ff
	ff 00 00 00 00	 mov	 DWORD PTR $T199712[ebp], 0
  00091	c6 45 fc 00	 mov	 BYTE PTR __$EHRec$[ebp+8], 0
  00095	8d 8d d4 fe ff
	ff		 lea	 ecx, DWORD PTR _pszNameA$[ebp]
  0009b	e8 00 00 00 00	 call	 ??1?$CW2AEX@$0IA@@ATL@@QAE@XZ ; ATL::CW2AEX<128>::~CW2AEX<128>
  000a0	c7 45 fc ff ff
	ff ff		 mov	 DWORD PTR __$EHRec$[ebp+8], -1
  000a7	8d 8d 60 ff ff
	ff		 lea	 ecx, DWORD PTR _pszBufferA$[ebp]
  000ad	e8 00 00 00 00	 call	 ??1?$CTempBuffer@D$0IA@VCCRTAllocator@ATL@@@ATL@@QAE@XZ ; ATL::CTempBuffer<char,128,ATL::CCRTAllocator>::~CTempBuffer<char,128,ATL::CCRTAllocator>
  000b2	8b 85 cc fe ff
	ff		 mov	 eax, DWORD PTR $T199712[ebp]
  000b8	e9 33 01 00 00	 jmp	 $L26263
$L26322:

; 168  : 
; 169  : 	pszBufferA.Allocate(nSizeA*2);

  000bd	8b 4d ec	 mov	 ecx, DWORD PTR _nSizeA$[ebp]
  000c0	d1 e1		 shl	 ecx, 1
  000c2	51		 push	 ecx
  000c3	8d 8d 60 ff ff
	ff		 lea	 ecx, DWORD PTR _pszBufferA$[ebp]
  000c9	e8 00 00 00 00	 call	 ?Allocate@?$CTempBuffer@D$0IA@VCCRTAllocator@ATL@@@ATL@@QAEPADI@Z ; ATL::CTempBuffer<char,128,ATL::CCRTAllocator>::Allocate

; 170  : 	::GetEnvironmentVariableA(pszNameA, pszBufferA, nSizeA);

  000ce	8b f4		 mov	 esi, esp
  000d0	8b 55 ec	 mov	 edx, DWORD PTR _nSizeA$[ebp]
  000d3	52		 push	 edx
  000d4	8d 8d 60 ff ff
	ff		 lea	 ecx, DWORD PTR _pszBufferA$[ebp]
  000da	e8 00 00 00 00	 call	 ??B?$CTempBuffer@D$0IA@VCCRTAllocator@ATL@@@ATL@@QBEPADXZ ; ATL::CTempBuffer<char,128,ATL::CCRTAllocator>::operator char *
  000df	50		 push	 eax
  000e0	8d 8d d4 fe ff
	ff		 lea	 ecx, DWORD PTR _pszNameA$[ebp]
  000e6	e8 00 00 00 00	 call	 ??B?$CW2AEX@$0IA@@ATL@@QBEPADXZ ; ATL::CW2AEX<128>::operator char *
  000eb	50		 push	 eax
  000ec	ff 15 00 00 00
	00		 call	 DWORD PTR __imp__GetEnvironmentVariableA@12
  000f2	3b f4		 cmp	 esi, esp
  000f4	e8 00 00 00 00	 call	 __RTC_CheckEsp

; 171  : 
; 172  : 	nSizeW = ::MultiByteToWideChar(_AtlGetConversionACP(), 0, pszBufferA, -1, NULL, 0);

  000f9	8b f4		 mov	 esi, esp
  000fb	6a 00		 push	 0
  000fd	6a 00		 push	 0
  000ff	6a ff		 push	 -1
  00101	8d 8d 60 ff ff
	ff		 lea	 ecx, DWORD PTR _pszBufferA$[ebp]
  00107	e8 00 00 00 00	 call	 ??B?$CTempBuffer@D$0IA@VCCRTAllocator@ATL@@@ATL@@QBEPADXZ ; ATL::CTempBuffer<char,128,ATL::CCRTAllocator>::operator char *
  0010c	50		 push	 eax
  0010d	6a 00		 push	 0
  0010f	e8 00 00 00 00	 call	 ?_AtlGetConversionACP@ATL@@YGIXZ ; ATL::_AtlGetConversionACP
  00114	50		 push	 eax
  00115	ff 15 00 00 00
	00		 call	 DWORD PTR __imp__MultiByteToWideChar@24
  0011b	3b f4		 cmp	 esi, esp
  0011d	e8 00 00 00 00	 call	 __RTC_CheckEsp
  00122	89 45 e8	 mov	 DWORD PTR _nSizeW$[ebp], eax

; 173  : 	if (nSize == 0)

  00125	83 7d 10 00	 cmp	 DWORD PTR _nSize$[ebp], 0
  00129	75 35		 jne	 SHORT $L26324

; 174  : 		return nSizeW;

  0012b	8b 45 e8	 mov	 eax, DWORD PTR _nSizeW$[ebp]
  0012e	89 85 c8 fe ff
	ff		 mov	 DWORD PTR $T199713[ebp], eax
  00134	c6 45 fc 00	 mov	 BYTE PTR __$EHRec$[ebp+8], 0
  00138	8d 8d d4 fe ff
	ff		 lea	 ecx, DWORD PTR _pszNameA$[ebp]
  0013e	e8 00 00 00 00	 call	 ??1?$CW2AEX@$0IA@@ATL@@QAE@XZ ; ATL::CW2AEX<128>::~CW2AEX<128>
  00143	c7 45 fc ff ff
	ff ff		 mov	 DWORD PTR __$EHRec$[ebp+8], -1
  0014a	8d 8d 60 ff ff
	ff		 lea	 ecx, DWORD PTR _pszBufferA$[ebp]
  00150	e8 00 00 00 00	 call	 ??1?$CTempBuffer@D$0IA@VCCRTAllocator@ATL@@@ATL@@QAE@XZ ; ATL::CTempBuffer<char,128,ATL::CCRTAllocator>::~CTempBuffer<char,128,ATL::CCRTAllocator>
  00155	8b 85 c8 fe ff
	ff		 mov	 eax, DWORD PTR $T199713[ebp]
  0015b	e9 90 00 00 00	 jmp	 $L26263
$L26324:

; 175  : 	ATLASSERT(nSize >= nSizeW);

  00160	8b 4d 10	 mov	 ecx, DWORD PTR _nSize$[ebp]
  00163	3b 4d e8	 cmp	 ecx, DWORD PTR _nSizeW$[ebp]
  00166	73 2b		 jae	 SHORT $L199714
  00168	8b f4		 mov	 esi, esp
  0016a	68 00 00 00 00	 push	 OFFSET FLAT:??_C@_0BA@CLMJJCOM@nSize?5?$DO?$DN?5nSizeW?$AA@
  0016f	6a 00		 push	 0
  00171	68 af 00 00 00	 push	 175			; 000000afH
  00176	68 00 00 00 00	 push	 OFFSET FLAT:??_C@_0FH@KDPNIMBO@D?3?2Program?5Files?5?$CIx86?$CJ?2Microsoft@
  0017b	6a 02		 push	 2
  0017d	ff 15 00 00 00
	00		 call	 DWORD PTR __imp___CrtDbgReport
  00183	83 c4 14	 add	 esp, 20			; 00000014H
  00186	3b f4		 cmp	 esi, esp
  00188	e8 00 00 00 00	 call	 __RTC_CheckEsp
  0018d	83 f8 01	 cmp	 eax, 1
  00190	75 01		 jne	 SHORT $L199714
  00192	cc		 int	 3
$L199714:

; 176  : 	::MultiByteToWideChar(_AtlGetConversionACP(), 0, pszBufferA, -1, pszBuffer, nSizeW);

  00193	8b f4		 mov	 esi, esp
  00195	8b 45 e8	 mov	 eax, DWORD PTR _nSizeW$[ebp]
  00198	50		 push	 eax
  00199	8b 4d 0c	 mov	 ecx, DWORD PTR _pszBuffer$[ebp]
  0019c	51		 push	 ecx
  0019d	6a ff		 push	 -1
  0019f	8d 8d 60 ff ff
	ff		 lea	 ecx, DWORD PTR _pszBufferA$[ebp]
  001a5	e8 00 00 00 00	 call	 ??B?$CTempBuffer@D$0IA@VCCRTAllocator@ATL@@@ATL@@QBEPADXZ ; ATL::CTempBuffer<char,128,ATL::CCRTAllocator>::operator char *
  001aa	50		 push	 eax
  001ab	6a 00		 push	 0
  001ad	e8 00 00 00 00	 call	 ?_AtlGetConversionACP@ATL@@YGIXZ ; ATL::_AtlGetConversionACP
  001b2	50		 push	 eax
  001b3	ff 15 00 00 00
	00		 call	 DWORD PTR __imp__MultiByteToWideChar@24
  001b9	3b f4		 cmp	 esi, esp
  001bb	e8 00 00 00 00	 call	 __RTC_CheckEsp

; 177  : 
; 178  : 	return nSizeW;

  001c0	8b 55 e8	 mov	 edx, DWORD PTR _nSizeW$[ebp]
  001c3	89 95 c4 fe ff
	ff		 mov	 DWORD PTR $T199715[ebp], edx
  001c9	c6 45 fc 00	 mov	 BYTE PTR __$EHRec$[ebp+8], 0
  001cd	8d 8d d4 fe ff
	ff		 lea	 ecx, DWORD PTR _pszNameA$[ebp]
  001d3	e8 00 00 00 00	 call	 ??1?$CW2AEX@$0IA@@ATL@@QAE@XZ ; ATL::CW2AEX<128>::~CW2AEX<128>
  001d8	c7 45 fc ff ff
	ff ff		 mov	 DWORD PTR __$EHRec$[ebp+8], -1
  001df	8d 8d 60 ff ff
	ff		 lea	 ecx, DWORD PTR _pszBufferA$[ebp]
  001e5	e8 00 00 00 00	 call	 ??1?$CTempBuffer@D$0IA@VCCRTAllocator@ATL@@@ATL@@QAE@XZ ; ATL::CTempBuffer<char,128,ATL::CCRTAllocator>::~CTempBuffer<char,128,ATL::CCRTAllocator>
  001ea	8b 85 c4 fe ff
	ff		 mov	 eax, DWORD PTR $T199715[ebp]
$L26263:

; 179  : }

  001f0	52		 push	 edx
  001f1	8b cd		 mov	 ecx, ebp
  001f3	50		 push	 eax
  001f4	8d 15 00 00 00
	00		 lea	 edx, DWORD PTR $L199725
  001fa	e8 00 00 00 00	 call	 @_RTC_CheckStackVars@8
  001ff	58		 pop	 eax
  00200	5a		 pop	 edx
  00201	8b 4d f4	 mov	 ecx, DWORD PTR __$EHRec$[ebp]
  00204	64 89 0d 00 00
	00 00		 mov	 DWORD PTR fs:__except_list, ecx
  0020b	8b 4d f0	 mov	 ecx, DWORD PTR __$ArrayPad$[ebp]
  0020e	e8 00 00 00 00	 call	 @__security_check_cookie@4
  00213	5f		 pop	 edi
  00214	5e		 pop	 esi
  00215	81 c4 3c 01 00
	00		 add	 esp, 316		; 0000013cH
  0021b	3b ec		 cmp	 ebp, esp
  0021d	e8 00 00 00 00	 call	 __RTC_CheckEsp
  00222	8b e5		 mov	 esp, ebp
  00224	5d		 pop	 ebp
  00225	c2 0c 00	 ret	 12			; 0000000cH
$L199725:
  00228	02 00 00 00	 DD	 2
  0022c	00 00 00 00	 DD	 $L199724
$L199724:
  00230	60 ff ff ff	 DD	 -160			; ffffff60H
  00234	84 00 00 00	 DD	 132			; 00000084H
  00238	00 00 00 00	 DD	 $L199720
  0023c	d4 fe ff ff	 DD	 -300			; fffffed4H
  00240	84 00 00 00	 DD	 132			; 00000084H
  00244	00 00 00 00	 DD	 $L199721
$L199721:
  00248	70		 DB	 112			; 00000070H
  00249	73		 DB	 115			; 00000073H
  0024a	7a		 DB	 122			; 0000007aH
  0024b	4e		 DB	 78			; 0000004eH
  0024c	61		 DB	 97			; 00000061H
  0024d	6d		 DB	 109			; 0000006dH
  0024e	65		 DB	 101			; 00000065H
  0024f	41		 DB	 65			; 00000041H
  00250	00		 DB	 0
$L199720:
  00251	70		 DB	 112			; 00000070H
  00252	73		 DB	 115			; 00000073H
  00253	7a		 DB	 122			; 0000007aH
  00254	42		 DB	 66			; 00000042H
  00255	75		 DB	 117			; 00000075H
  00256	66		 DB	 102			; 00000066H
  00257	66		 DB	 102			; 00000066H
  00258	65		 DB	 101			; 00000065H
  00259	72		 DB	 114			; 00000072H
  0025a	41		 DB	 65			; 00000041H
  0025b	00		 DB	 0
_TEXT	ENDS
;	COMDAT text$x
text$x	SEGMENT
$L199716:
  00000	8d 8d 60 ff ff
	ff		 lea	 ecx, DWORD PTR _pszBufferA$[ebp]
  00006	e9 00 00 00 00	 jmp	 ??1?$CTempBuffer@D$0IA@VCCRTAllocator@ATL@@@ATL@@QAE@XZ ; ATL::CTempBuffer<char,128,ATL::CCRTAllocator>::~CTempBuffer<char,128,ATL::CCRTAllocator>
$L199717:
  0000b	8d 8d d4 fe ff
	ff		 lea	 ecx, DWORD PTR _pszNameA$[ebp]
  00011	e9 00 00 00 00	 jmp	 ??1?$CW2AEX@$0IA@@ATL@@QAE@XZ ; ATL::CW2AEX<128>::~CW2AEX<128>
__ehhandler$?GetEnvironmentVariableWFake@ATL@@YGKPB_WPA_WK@Z:
  00016	b8 00 00 00 00	 mov	 eax, OFFSET FLAT:$T199719
  0001b	e9 00 00 00 00	 jmp	 ___CxxFrameHandler
text$x	ENDS
?GetEnvironmentVariableWFake@ATL@@YGKPB_WPA_WK@Z ENDP	; ATL::GetEnvironmentVariableWFake
; Function compile flags: /Odt /RTCsu
; File d:\program files (x86)\microsoft visual studio .net 2003\vc7\atlmfc\include\atlconv.h
;	COMDAT ?_AtlGetConversionACP@ATL@@YGIXZ
_TEXT	SEGMENT
?_AtlGetConversionACP@ATL@@YGIXZ PROC NEAR		; ATL::_AtlGetConversionACP, COMDAT

; 157  : {

  00000	55		 push	 ebp
  00001	8b ec		 mov	 ebp, esp
  00003	56		 push	 esi

; 158  : 	return( g_pfnGetThreadACP() );

  00004	8b f4		 mov	 esi, esp
  00006	ff 15 00 00 00
	00		 call	 DWORD PTR ?g_pfnGetThreadACP@ATL@@3P6GIXZA ; ATL::g_pfnGetThreadACP
  0000c	3b f4		 cmp	 esi, esp
  0000e	e8 00 00 00 00	 call	 __RTC_CheckEsp

; 159  : }

  00013	5e		 pop	 esi
  00014	3b ec		 cmp	 ebp, esp
  00016	e8 00 00 00 00	 call	 __RTC_CheckEsp
  0001b	5d		 pop	 ebp
  0001c	c3		 ret	 0
?_AtlGetConversionACP@ATL@@YGIXZ ENDP			; ATL::_AtlGetConversionACP
_TEXT	ENDS
PUBLIC	?CompareStringWFake@ATL@@YGHKKPB_WH0H@Z		; ATL::CompareStringWFake
EXTRN	__imp__CompareStringW@24:NEAR
; Function compile flags: /Odt /RTCsu
; File d:\program files (x86)\microsoft visual studio .net 2003\vc7\atlmfc\include\cstringt.h
;	COMDAT ?CompareStringWThunk@ATL@@YGHKKPB_WH0H@Z
_TEXT	SEGMENT
_lcid$ = 8						; size = 4
_dwFlags$ = 12						; size = 4
_pszString1$ = 16					; size = 4
_nLength1$ = 20						; size = 4
_pszString2$ = 24					; size = 4
_nLength2$ = 28						; size = 4
?CompareStringWThunk@ATL@@YGHKKPB_WH0H@Z PROC NEAR	; ATL::CompareStringWThunk, COMDAT

; 216  : {

  00000	55		 push	 ebp
  00001	8b ec		 mov	 ebp, esp
  00003	56		 push	 esi

; 217  : 	_AtlInstallStringThunk(reinterpret_cast<void**>(&_strthunks.pfnCompareStringW), CompareStringWFake, ::CompareStringW);

  00004	a1 00 00 00 00	 mov	 eax, DWORD PTR __imp__CompareStringW@24
  00009	50		 push	 eax
  0000a	68 00 00 00 00	 push	 OFFSET FLAT:?CompareStringWFake@ATL@@YGHKKPB_WH0H@Z ; ATL::CompareStringWFake
  0000f	68 00 00 00 00	 push	 OFFSET FLAT:?_strthunks@ATL@@3U_AtlStringThunks@1@A ; ATL::_strthunks
  00014	e8 00 00 00 00	 call	 ?_AtlInstallStringThunk@ATL@@YAXPAPAXPAX1@Z ; ATL::_AtlInstallStringThunk
  00019	83 c4 0c	 add	 esp, 12			; 0000000cH

; 218  : 
; 219  : 	return _strthunks.pfnCompareStringW(lcid, dwFlags, pszString1, nLength1, pszString2, nLength2);

  0001c	8b f4		 mov	 esi, esp
  0001e	8b 4d 1c	 mov	 ecx, DWORD PTR _nLength2$[ebp]
  00021	51		 push	 ecx
  00022	8b 55 18	 mov	 edx, DWORD PTR _pszString2$[ebp]
  00025	52		 push	 edx
  00026	8b 45 14	 mov	 eax, DWORD PTR _nLength1$[ebp]
  00029	50		 push	 eax
  0002a	8b 4d 10	 mov	 ecx, DWORD PTR _pszString1$[ebp]
  0002d	51		 push	 ecx
  0002e	8b 55 0c	 mov	 edx, DWORD PTR _dwFlags$[ebp]
  00031	52		 push	 edx
  00032	8b 45 08	 mov	 eax, DWORD PTR _lcid$[ebp]
  00035	50		 push	 eax
  00036	ff 15 00 00 00
	00		 call	 DWORD PTR ?_strthunks@ATL@@3U_AtlStringThunks@1@A
  0003c	3b f4		 cmp	 esi, esp
  0003e	e8 00 00 00 00	 call	 __RTC_CheckEsp

; 220  : }

  00043	5e		 pop	 esi
  00044	3b ec		 cmp	 ebp, esp
  00046	e8 00 00 00 00	 call	 __RTC_CheckEsp
  0004b	5d		 pop	 ebp
  0004c	c2 18 00	 ret	 24			; 00000018H
?CompareStringWThunk@ATL@@YGHKKPB_WH0H@Z ENDP		; ATL::CompareStringWThunk
_TEXT	ENDS
PUBLIC	?_AtlVerifyStackAvailable@_ATL_SAFE_ALLOCA_IMPL@ATL@@YA_NK@Z ; ATL::_ATL_SAFE_ALLOCA_IMPL::_AtlVerifyStackAvailable
PUBLIC	?AtlThrow@ATL@@YGXJ@Z				; ATL::AtlThrow
PUBLIC	?AtlW2AHelper@@YGPADPADPB_WHI@Z			; AtlW2AHelper
PUBLIC	??0?$CAtlSafeAllocBufferManager@VCCRTAllocator@ATL@@@_ATL_SAFE_ALLOCA_IMPL@ATL@@QAE@XZ ; ATL::_ATL_SAFE_ALLOCA_IMPL::CAtlSafeAllocBufferManager<ATL::CCRTAllocator>::CAtlSafeAllocBufferManager<ATL::CCRTAllocator>
PUBLIC	?Allocate@?$CAtlSafeAllocBufferManager@VCCRTAllocator@ATL@@@_ATL_SAFE_ALLOCA_IMPL@ATL@@QAEPAXK@Z ; ATL::_ATL_SAFE_ALLOCA_IMPL::CAtlSafeAllocBufferManager<ATL::CCRTAllocator>::Allocate
PUBLIC	??1?$CAtlSafeAllocBufferManager@VCCRTAllocator@ATL@@@_ATL_SAFE_ALLOCA_IMPL@ATL@@QAE@XZ ; ATL::_ATL_SAFE_ALLOCA_IMPL::CAtlSafeAllocBufferManager<ATL::CCRTAllocator>::~CAtlSafeAllocBufferManager<ATL::CCRTAllocator>
EXTRN	__alloca_probe:NEAR
EXTRN	__imp__lstrlenW@4:NEAR
EXTRN	__imp__CompareStringA@24:NEAR
;	COMDAT xdata$x
xdata$x	SEGMENT
$T199749 DD	0ffffffffH
	DD	FLAT:$L199741
$T199743 DD	019930520H
	DD	01H
	DD	FLAT:$T199749
	DD	2 DUP(00H)
	DD	2 DUP(00H)
; Function compile flags: /Odt /RTCsu
xdata$x	ENDS
;	COMDAT ?CompareStringWFake@ATL@@YGHKKPB_WH0H@Z
_TEXT	SEGMENT
tv147 = -76						; size = 4
tv142 = -72						; size = 4
tv149 = -68						; size = 4
tv89 = -64						; size = 4
tv84 = -60						; size = 4
tv91 = -56						; size = 4
$T199740 = -52						; size = 4
_pszAString2$ = -48					; size = 4
_pszAString1$ = -44					; size = 4
__AtlSafeAllocaManager$ = -36				; size = 4
__lpa_ex$ = -28						; size = 4
__lpw_ex$ = -24						; size = 4
__acp_ex$ = -20						; size = 4
__convert_ex$ = -16					; size = 4
__$EHRec$ = -12						; size = 12
_lcid$ = 8						; size = 4
_dwFlags$ = 12						; size = 4
_pszString1$ = 16					; size = 4
_nLength1$ = 20						; size = 4
_pszString2$ = 24					; size = 4
_nLength2$ = 28						; size = 4
?CompareStringWFake@ATL@@YGHKKPB_WH0H@Z PROC NEAR	; ATL::CompareStringWFake, COMDAT

; 192  : {

  00000	55		 push	 ebp
  00001	8b ec		 mov	 ebp, esp
  00003	6a ff		 push	 -1
  00005	68 00 00 00 00	 push	 __ehhandler$?CompareStringWFake@ATL@@YGHKKPB_WH0H@Z
  0000a	64 a1 00 00 00
	00		 mov	 eax, DWORD PTR fs:__except_list
  00010	50		 push	 eax
  00011	64 89 25 00 00
	00 00		 mov	 DWORD PTR fs:__except_list, esp
  00018	83 ec 40	 sub	 esp, 64			; 00000040H
  0001b	56		 push	 esi
  0001c	57		 push	 edi
  0001d	8d 7d b4	 lea	 edi, DWORD PTR [ebp-76]
  00020	b9 10 00 00 00	 mov	 ecx, 16			; 00000010H
  00025	b8 cc cc cc cc	 mov	 eax, -858993460		; ccccccccH
  0002a	f3 ab		 rep stosd

; 193  : 	USES_CONVERSION_EX;

  0002c	c7 45 f0 00 00
	00 00		 mov	 DWORD PTR __convert_ex$[ebp], 0
  00033	e8 00 00 00 00	 call	 ?_AtlGetConversionACP@ATL@@YGIXZ ; ATL::_AtlGetConversionACP
  00038	89 45 ec	 mov	 DWORD PTR __acp_ex$[ebp], eax
  0003b	c7 45 e8 00 00
	00 00		 mov	 DWORD PTR __lpw_ex$[ebp], 0
  00042	c7 45 e4 00 00
	00 00		 mov	 DWORD PTR __lpa_ex$[ebp], 0
  00049	8d 4d dc	 lea	 ecx, DWORD PTR __AtlSafeAllocaManager$[ebp]
  0004c	e8 00 00 00 00	 call	 ??0?$CAtlSafeAllocBufferManager@VCCRTAllocator@ATL@@@_ATL_SAFE_ALLOCA_IMPL@ATL@@QAE@XZ ; ATL::_ATL_SAFE_ALLOCA_IMPL::CAtlSafeAllocBufferManager<ATL::CCRTAllocator>::CAtlSafeAllocBufferManager<ATL::CCRTAllocator>
  00051	c7 45 fc 00 00
	00 00		 mov	 DWORD PTR __$EHRec$[ebp+8], 0

; 194  : 	
; 195  : 	LPCSTR pszAString1 = NULL;

  00058	c7 45 d4 00 00
	00 00		 mov	 DWORD PTR _pszAString1$[ebp], 0

; 196  : 	if(pszString1 != NULL)

  0005f	83 7d 10 00	 cmp	 DWORD PTR _pszString1$[ebp], 0
  00063	0f 84 a1 00 00
	00		 je	 $L26349

; 197  : 	{
; 198  : 		pszAString1 = W2A_EX(pszString1,_ATL_SAFE_ALLOCA_DEF_THRESHOLD);

  00069	8b 45 10	 mov	 eax, DWORD PTR _pszString1$[ebp]
  0006c	89 45 e8	 mov	 DWORD PTR __lpw_ex$[ebp], eax
  0006f	83 7d e8 00	 cmp	 DWORD PTR __lpw_ex$[ebp], 0
  00073	75 09		 jne	 SHORT $L199734
  00075	c7 45 c8 00 00
	00 00		 mov	 DWORD PTR tv91[ebp], 0
  0007c	eb 76		 jmp	 SHORT $L199735
$L199734:
  0007e	8b f4		 mov	 esi, esp
  00080	8b 4d e8	 mov	 ecx, DWORD PTR __lpw_ex$[ebp]
  00083	51		 push	 ecx
  00084	ff 15 00 00 00
	00		 call	 DWORD PTR __imp__lstrlenW@4
  0008a	3b f4		 cmp	 esi, esp
  0008c	e8 00 00 00 00	 call	 __RTC_CheckEsp
  00091	8d 54 00 02	 lea	 edx, DWORD PTR [eax+eax+2]
  00095	89 55 f0	 mov	 DWORD PTR __convert_ex$[ebp], edx
  00098	81 7d f0 00 04
	00 00		 cmp	 DWORD PTR __convert_ex$[ebp], 1024 ; 00000400H
  0009f	7f 2c		 jg	 SHORT $L199732
  000a1	8b 45 f0	 mov	 eax, DWORD PTR __convert_ex$[ebp]
  000a4	50		 push	 eax
  000a5	e8 00 00 00 00	 call	 ?_AtlVerifyStackAvailable@_ATL_SAFE_ALLOCA_IMPL@ATL@@YA_NK@Z ; ATL::_ATL_SAFE_ALLOCA_IMPL::_AtlVerifyStackAvailable
  000aa	83 c4 04	 add	 esp, 4
  000ad	0f b6 c8	 movzx	 ecx, al
  000b0	85 c9		 test	 ecx, ecx
  000b2	74 19		 je	 SHORT $L199732
  000b4	8b 45 f0	 mov	 eax, DWORD PTR __convert_ex$[ebp]
  000b7	83 c0 03	 add	 eax, 3
  000ba	83 e0 fc	 and	 eax, -4			; fffffffcH
  000bd	e8 00 00 00 00	 call	 __alloca_probe
  000c2	89 65 c4	 mov	 DWORD PTR tv84[ebp], esp
  000c5	8b 55 c4	 mov	 edx, DWORD PTR tv84[ebp]
  000c8	89 55 c0	 mov	 DWORD PTR tv89[ebp], edx
  000cb	eb 0f		 jmp	 SHORT $L199733
$L199732:
  000cd	8b 45 f0	 mov	 eax, DWORD PTR __convert_ex$[ebp]
  000d0	50		 push	 eax
  000d1	8d 4d dc	 lea	 ecx, DWORD PTR __AtlSafeAllocaManager$[ebp]
  000d4	e8 00 00 00 00	 call	 ?Allocate@?$CAtlSafeAllocBufferManager@VCCRTAllocator@ATL@@@_ATL_SAFE_ALLOCA_IMPL@ATL@@QAEPAXK@Z ; ATL::_ATL_SAFE_ALLOCA_IMPL::CAtlSafeAllocBufferManager<ATL::CCRTAllocator>::Allocate
  000d9	89 45 c0	 mov	 DWORD PTR tv89[ebp], eax
$L199733:
  000dc	8b 4d ec	 mov	 ecx, DWORD PTR __acp_ex$[ebp]
  000df	51		 push	 ecx
  000e0	8b 55 f0	 mov	 edx, DWORD PTR __convert_ex$[ebp]
  000e3	52		 push	 edx
  000e4	8b 45 e8	 mov	 eax, DWORD PTR __lpw_ex$[ebp]
  000e7	50		 push	 eax
  000e8	8b 4d c0	 mov	 ecx, DWORD PTR tv89[ebp]
  000eb	51		 push	 ecx
  000ec	e8 00 00 00 00	 call	 ?AtlW2AHelper@@YGPADPADPB_WHI@Z ; AtlW2AHelper
  000f1	89 45 c8	 mov	 DWORD PTR tv91[ebp], eax
$L199735:
  000f4	8b 55 c8	 mov	 edx, DWORD PTR tv91[ebp]
  000f7	89 55 d4	 mov	 DWORD PTR _pszAString1$[ebp], edx

; 199  : 		if(pszAString1 == NULL)

  000fa	83 7d d4 00	 cmp	 DWORD PTR _pszAString1$[ebp], 0
  000fe	75 0a		 jne	 SHORT $L26349

; 200  : 			AtlThrow(E_OUTOFMEMORY);

  00100	68 0e 00 07 80	 push	 -2147024882		; 8007000eH
  00105	e8 00 00 00 00	 call	 ?AtlThrow@ATL@@YGXJ@Z	; ATL::AtlThrow
$L26349:

; 201  : 	}
; 202  : 
; 203  : 	LPCSTR pszAString2 = NULL;

  0010a	c7 45 d0 00 00
	00 00		 mov	 DWORD PTR _pszAString2$[ebp], 0

; 204  : 	if(pszString2 != NULL)

  00111	83 7d 18 00	 cmp	 DWORD PTR _pszString2$[ebp], 0
  00115	0f 84 a1 00 00
	00		 je	 $L26355

; 205  : 	{
; 206  : 		pszAString2 = W2A_EX(pszString2,_ATL_SAFE_ALLOCA_DEF_THRESHOLD);

  0011b	8b 45 18	 mov	 eax, DWORD PTR _pszString2$[ebp]
  0011e	89 45 e8	 mov	 DWORD PTR __lpw_ex$[ebp], eax
  00121	83 7d e8 00	 cmp	 DWORD PTR __lpw_ex$[ebp], 0
  00125	75 09		 jne	 SHORT $L199738
  00127	c7 45 bc 00 00
	00 00		 mov	 DWORD PTR tv149[ebp], 0
  0012e	eb 76		 jmp	 SHORT $L199739
$L199738:
  00130	8b f4		 mov	 esi, esp
  00132	8b 4d e8	 mov	 ecx, DWORD PTR __lpw_ex$[ebp]
  00135	51		 push	 ecx
  00136	ff 15 00 00 00
	00		 call	 DWORD PTR __imp__lstrlenW@4
  0013c	3b f4		 cmp	 esi, esp
  0013e	e8 00 00 00 00	 call	 __RTC_CheckEsp
  00143	8d 54 00 02	 lea	 edx, DWORD PTR [eax+eax+2]
  00147	89 55 f0	 mov	 DWORD PTR __convert_ex$[ebp], edx
  0014a	81 7d f0 00 04
	00 00		 cmp	 DWORD PTR __convert_ex$[ebp], 1024 ; 00000400H
  00151	7f 2c		 jg	 SHORT $L199736
  00153	8b 45 f0	 mov	 eax, DWORD PTR __convert_ex$[ebp]
  00156	50		 push	 eax
  00157	e8 00 00 00 00	 call	 ?_AtlVerifyStackAvailable@_ATL_SAFE_ALLOCA_IMPL@ATL@@YA_NK@Z ; ATL::_ATL_SAFE_ALLOCA_IMPL::_AtlVerifyStackAvailable
  0015c	83 c4 04	 add	 esp, 4
  0015f	0f b6 c8	 movzx	 ecx, al
  00162	85 c9		 test	 ecx, ecx
  00164	74 19		 je	 SHORT $L199736
  00166	8b 45 f0	 mov	 eax, DWORD PTR __convert_ex$[ebp]
  00169	83 c0 03	 add	 eax, 3
  0016c	83 e0 fc	 and	 eax, -4			; fffffffcH
  0016f	e8 00 00 00 00	 call	 __alloca_probe
  00174	89 65 b8	 mov	 DWORD PTR tv142[ebp], esp
  00177	8b 55 b8	 mov	 edx, DWORD PTR tv142[ebp]
  0017a	89 55 b4	 mov	 DWORD PTR tv147[ebp], edx
  0017d	eb 0f		 jmp	 SHORT $L199737
$L199736:
  0017f	8b 45 f0	 mov	 eax, DWORD PTR __convert_ex$[ebp]
  00182	50		 push	 eax
  00183	8d 4d dc	 lea	 ecx, DWORD PTR __AtlSafeAllocaManager$[ebp]
  00186	e8 00 00 00 00	 call	 ?Allocate@?$CAtlSafeAllocBufferManager@VCCRTAllocator@ATL@@@_ATL_SAFE_ALLOCA_IMPL@ATL@@QAEPAXK@Z ; ATL::_ATL_SAFE_ALLOCA_IMPL::CAtlSafeAllocBufferManager<ATL::CCRTAllocator>::Allocate
  0018b	89 45 b4	 mov	 DWORD PTR tv147[ebp], eax
$L199737:
  0018e	8b 4d ec	 mov	 ecx, DWORD PTR __acp_ex$[ebp]
  00191	51		 push	 ecx
  00192	8b 55 f0	 mov	 edx, DWORD PTR __convert_ex$[ebp]
  00195	52		 push	 edx
  00196	8b 45 e8	 mov	 eax, DWORD PTR __lpw_ex$[ebp]
  00199	50		 push	 eax
  0019a	8b 4d b4	 mov	 ecx, DWORD PTR tv147[ebp]
  0019d	51		 push	 ecx
  0019e	e8 00 00 00 00	 call	 ?AtlW2AHelper@@YGPADPADPB_WHI@Z ; AtlW2AHelper
  001a3	89 45 bc	 mov	 DWORD PTR tv149[ebp], eax
$L199739:
  001a6	8b 55 bc	 mov	 edx, DWORD PTR tv149[ebp]
  001a9	89 55 d0	 mov	 DWORD PTR _pszAString2$[ebp], edx

; 207  : 		if(pszAString2 == NULL)

  001ac	83 7d d0 00	 cmp	 DWORD PTR _pszAString2$[ebp], 0
  001b0	75 0a		 jne	 SHORT $L26355

; 208  : 			AtlThrow(E_OUTOFMEMORY);

  001b2	68 0e 00 07 80	 push	 -2147024882		; 8007000eH
  001b7	e8 00 00 00 00	 call	 ?AtlThrow@ATL@@YGXJ@Z	; ATL::AtlThrow
$L26355:

; 209  : 	}
; 210  : 
; 211  : 	return ::CompareStringA(lcid, dwFlags, pszAString1, nLength1, pszAString2, nLength2);

  001bc	8b f4		 mov	 esi, esp
  001be	8b 45 1c	 mov	 eax, DWORD PTR _nLength2$[ebp]
  001c1	50		 push	 eax
  001c2	8b 4d d0	 mov	 ecx, DWORD PTR _pszAString2$[ebp]
  001c5	51		 push	 ecx
  001c6	8b 55 14	 mov	 edx, DWORD PTR _nLength1$[ebp]
  001c9	52		 push	 edx
  001ca	8b 45 d4	 mov	 eax, DWORD PTR _pszAString1$[ebp]
  001cd	50		 push	 eax
  001ce	8b 4d 0c	 mov	 ecx, DWORD PTR _dwFlags$[ebp]
  001d1	51		 push	 ecx
  001d2	8b 55 08	 mov	 edx, DWORD PTR _lcid$[ebp]
  001d5	52		 push	 edx
  001d6	ff 15 00 00 00
	00		 call	 DWORD PTR __imp__CompareStringA@24
  001dc	3b f4		 cmp	 esi, esp
  001de	e8 00 00 00 00	 call	 __RTC_CheckEsp
  001e3	89 45 cc	 mov	 DWORD PTR $T199740[ebp], eax
  001e6	c7 45 fc ff ff
	ff ff		 mov	 DWORD PTR __$EHRec$[ebp+8], -1
  001ed	8d 4d dc	 lea	 ecx, DWORD PTR __AtlSafeAllocaManager$[ebp]
  001f0	e8 00 00 00 00	 call	 ??1?$CAtlSafeAllocBufferManager@VCCRTAllocator@ATL@@@_ATL_SAFE_ALLOCA_IMPL@ATL@@QAE@XZ ; ATL::_ATL_SAFE_ALLOCA_IMPL::CAtlSafeAllocBufferManager<ATL::CCRTAllocator>::~CAtlSafeAllocBufferManager<ATL::CCRTAllocator>
  001f5	8b 45 cc	 mov	 eax, DWORD PTR $T199740[ebp]
$L199731:

; 212  : }

  001f8	8d 65 ac	 lea	 esp, DWORD PTR [ebp-84]
  001fb	52		 push	 edx
  001fc	8b cd		 mov	 ecx, ebp
  001fe	50		 push	 eax
  001ff	8d 15 00 00 00
	00		 lea	 edx, DWORD PTR $L199748
  00205	e8 00 00 00 00	 call	 @_RTC_CheckStackVars@8
  0020a	58		 pop	 eax
  0020b	5a		 pop	 edx
  0020c	8b 4d f4	 mov	 ecx, DWORD PTR __$EHRec$[ebp]
  0020f	64 89 0d 00 00
	00 00		 mov	 DWORD PTR fs:__except_list, ecx
  00216	5f		 pop	 edi
  00217	5e		 pop	 esi
  00218	8b e5		 mov	 esp, ebp
  0021a	5d		 pop	 ebp
  0021b	c2 18 00	 ret	 24			; 00000018H
$L199748:
  0021e	01 00 00 00	 DD	 1
  00222	00 00 00 00	 DD	 $L199747
$L199747:
  00226	dc ff ff ff	 DD	 -36			; ffffffdcH
  0022a	04 00 00 00	 DD	 4
  0022e	00 00 00 00	 DD	 $L199745
$L199745:
  00232	5f		 DB	 95			; 0000005fH
  00233	41		 DB	 65			; 00000041H
  00234	74		 DB	 116			; 00000074H
  00235	6c		 DB	 108			; 0000006cH
  00236	53		 DB	 83			; 00000053H
  00237	61		 DB	 97			; 00000061H
  00238	66		 DB	 102			; 00000066H
  00239	65		 DB	 101			; 00000065H
  0023a	41		 DB	 65			; 00000041H
  0023b	6c		 DB	 108			; 0000006cH
  0023c	6c		 DB	 108			; 0000006cH
  0023d	6f		 DB	 111			; 0000006fH
  0023e	63		 DB	 99			; 00000063H
  0023f	61		 DB	 97			; 00000061H
  00240	4d		 DB	 77			; 0000004dH
  00241	61		 DB	 97			; 00000061H
  00242	6e		 DB	 110			; 0000006eH
  00243	61		 DB	 97			; 00000061H
  00244	67		 DB	 103			; 00000067H
  00245	65		 DB	 101			; 00000065H
  00246	72		 DB	 114			; 00000072H
  00247	00		 DB	 0
_TEXT	ENDS
;	COMDAT text$x
text$x	SEGMENT
$L199741:
  00000	8d 4d dc	 lea	 ecx, DWORD PTR __AtlSafeAllocaManager$[ebp]
  00003	e9 00 00 00 00	 jmp	 ??1?$CAtlSafeAllocBufferManager@VCCRTAllocator@ATL@@@_ATL_SAFE_ALLOCA_IMPL@ATL@@QAE@XZ ; ATL::_ATL_SAFE_ALLOCA_IMPL::CAtlSafeAllocBufferManager<ATL::CCRTAllocator>::~CAtlSafeAllocBufferManager<ATL::CCRTAllocator>
__ehhandler$?CompareStringWFake@ATL@@YGHKKPB_WH0H@Z:
  00008	b8 00 00 00 00	 mov	 eax, OFFSET FLAT:$T199743
  0000d	e9 00 00 00 00	 jmp	 ___CxxFrameHandler
text$x	ENDS
?CompareStringWFake@ATL@@YGHKKPB_WH0H@Z ENDP		; ATL::CompareStringWFake
EXTRN	__except_handler3:NEAR
EXTRN	__imp___resetstkoflw:NEAR
;	COMDAT CONST
; File d:\program files (x86)\microsoft visual studio .net 2003\vc7\atlmfc\include\atlalloc.h
CONST	SEGMENT
$T199759 DD	0ffffffffH
	DD	FLAT:$L199754
	DD	FLAT:$L199755
; Function compile flags: /Odt /RTCsu
CONST	ENDS
;	COMDAT ?_AtlVerifyStackAvailable@_ATL_SAFE_ALLOCA_IMPL@ATL@@YA_NK@Z
_TEXT	SEGMENT
tv65 = -48						; size = 4
$T199758 = -44						; size = 4
_p$24107 = -36						; size = 4
_bStackAvailable$ = -25					; size = 1
__$SEHRec$ = -24					; size = 24
_Size$ = 8						; size = 4
?_AtlVerifyStackAvailable@_ATL_SAFE_ALLOCA_IMPL@ATL@@YA_NK@Z PROC NEAR ; ATL::_ATL_SAFE_ALLOCA_IMPL::_AtlVerifyStackAvailable, COMDAT

; 331  : {

  00000	55		 push	 ebp
  00001	8b ec		 mov	 ebp, esp
  00003	6a ff		 push	 -1
  00005	68 00 00 00 00	 push	 OFFSET FLAT:$T199759
  0000a	68 00 00 00 00	 push	 OFFSET FLAT:__except_handler3
  0000f	64 a1 00 00 00
	00		 mov	 eax, DWORD PTR fs:__except_list
  00015	50		 push	 eax
  00016	64 89 25 00 00
	00 00		 mov	 DWORD PTR fs:__except_list, esp
  0001d	83 c4 e0	 add	 esp, -32		; ffffffe0H
  00020	53		 push	 ebx
  00021	56		 push	 esi
  00022	57		 push	 edi
  00023	b8 cc cc cc cc	 mov	 eax, -858993460		; ccccccccH
  00028	89 45 d0	 mov	 DWORD PTR [ebp-48], eax
  0002b	89 45 d4	 mov	 DWORD PTR [ebp-44], eax
  0002e	89 45 d8	 mov	 DWORD PTR [ebp-40], eax
  00031	89 45 dc	 mov	 DWORD PTR [ebp-36], eax
  00034	89 45 e0	 mov	 DWORD PTR [ebp-32], eax
  00037	89 45 e4	 mov	 DWORD PTR [ebp-28], eax
  0003a	89 65 e8	 mov	 DWORD PTR __$SEHRec$[ebp], esp

; 332  :     bool bStackAvailable = true;

  0003d	c6 45 e7 01	 mov	 BYTE PTR _bStackAvailable$[ebp], 1

; 333  : 
; 334  :     __try

  00041	c7 45 fc 00 00
	00 00		 mov	 DWORD PTR __$SEHRec$[ebp+20], 0

; 335  :     {
; 336  :         PVOID p = _alloca(Size + _ATL_STACK_MARGIN);

  00048	8b 45 08	 mov	 eax, DWORD PTR _Size$[ebp]
  0004b	05 03 20 00 00	 add	 eax, 8195		; 00002003H
  00050	83 e0 fc	 and	 eax, -4			; fffffffcH
  00053	e8 00 00 00 00	 call	 __alloca_probe
  00058	89 65 d0	 mov	 DWORD PTR tv65[ebp], esp
  0005b	89 65 e8	 mov	 DWORD PTR __$SEHRec$[ebp], esp
  0005e	8b 45 d0	 mov	 eax, DWORD PTR tv65[ebp]
  00061	89 45 dc	 mov	 DWORD PTR _p$24107[ebp], eax
  00064	c7 45 fc ff ff
	ff ff		 mov	 DWORD PTR __$SEHRec$[ebp+20], -1
  0006b	eb 35		 jmp	 SHORT $L199757
$L199754:

; 337  :         (p);
; 338  :     }
; 339  :     __except ((EXCEPTION_STACK_OVERFLOW == GetExceptionCode()) ?
; 340  :                    EXCEPTION_EXECUTE_HANDLER :
; 341  :                    EXCEPTION_CONTINUE_SEARCH)

  0006d	8b 4d ec	 mov	 ecx, DWORD PTR __$SEHRec$[ebp+4]
  00070	8b 11		 mov	 edx, DWORD PTR [ecx]
  00072	8b 02		 mov	 eax, DWORD PTR [edx]
  00074	89 45 d4	 mov	 DWORD PTR $T199758[ebp], eax
  00077	8b 45 d4	 mov	 eax, DWORD PTR $T199758[ebp]
  0007a	2d fd 00 00 c0	 sub	 eax, -1073741571	; c00000fdH
  0007f	f7 d8		 neg	 eax
  00081	1b c0		 sbb	 eax, eax
  00083	40		 inc	 eax
$L199756:
  00084	c3		 ret	 0
$L199755:
  00085	8b 65 e8	 mov	 esp, DWORD PTR __$SEHRec$[ebp]

; 342  :     {
; 343  :         bStackAvailable = false;

  00088	c6 45 e7 00	 mov	 BYTE PTR _bStackAvailable$[ebp], 0

; 344  :         _resetstkoflw();

  0008c	8b f4		 mov	 esi, esp
  0008e	ff 15 00 00 00
	00		 call	 DWORD PTR __imp___resetstkoflw
  00094	3b f4		 cmp	 esi, esp
  00096	e8 00 00 00 00	 call	 __RTC_CheckEsp
  0009b	c7 45 fc ff ff
	ff ff		 mov	 DWORD PTR __$SEHRec$[ebp+20], -1
$L199757:

; 345  :     }
; 346  :     return bStackAvailable;

  000a2	8a 45 e7	 mov	 al, BYTE PTR _bStackAvailable$[ebp]
$L199753:

; 347  : }

  000a5	8d 65 c4	 lea	 esp, DWORD PTR [ebp-60]
  000a8	52		 push	 edx
  000a9	8b cd		 mov	 ecx, ebp
  000ab	50		 push	 eax
  000ac	8d 15 00 00 00
	00		 lea	 edx, DWORD PTR $L199764
  000b2	e8 00 00 00 00	 call	 @_RTC_CheckStackVars@8
  000b7	58		 pop	 eax
  000b8	5a		 pop	 edx
  000b9	8b 4d f0	 mov	 ecx, DWORD PTR __$SEHRec$[ebp+8]
  000bc	64 89 0d 00 00
	00 00		 mov	 DWORD PTR fs:__except_list, ecx
  000c3	5f		 pop	 edi
  000c4	5e		 pop	 esi
  000c5	5b		 pop	 ebx
  000c6	8b e5		 mov	 esp, ebp
  000c8	5d		 pop	 ebp
  000c9	c3		 ret	 0
$L199764:
  000ca	01 00 00 00	 DD	 1
  000ce	00 00 00 00	 DD	 $L199763
$L199763:
  000d2	dc ff ff ff	 DD	 -36			; ffffffdcH
  000d6	04 00 00 00	 DD	 4
  000da	00 00 00 00	 DD	 $L199761
$L199761:
  000de	70		 DB	 112			; 00000070H
  000df	00		 DB	 0
?_AtlVerifyStackAvailable@_ATL_SAFE_ALLOCA_IMPL@ATL@@YA_NK@Z ENDP ; ATL::_ATL_SAFE_ALLOCA_IMPL::_AtlVerifyStackAvailable
_TEXT	ENDS
PUBLIC	??_C@_08DMHHBMMN@lpa?5?$CB?$DN?50?$AA@		; `string'
PUBLIC	??_C@_0FG@PFHCBDBK@D?3?2Program?5Files?5?$CIx86?$CJ?2Microsoft@ ; `string'
PUBLIC	??_C@_08DIHJLFDJ@lpw?5?$CB?$DN?50?$AA@		; `string'
PUBLIC	??_C@_01GBGANLPD@0?$AA@				; `string'
EXTRN	__imp__WideCharToMultiByte@32:NEAR
;	COMDAT ??_C@_08DIHJLFDJ@lpw?5?$CB?$DN?50?$AA@
; File d:\program files (x86)\microsoft visual studio .net 2003\vc7\atlmfc\include\atlconv.h
CONST	SEGMENT
??_C@_08DIHJLFDJ@lpw?5?$CB?$DN?50?$AA@ DB 'lpw != 0', 00H ; `string'
CONST	ENDS
;	COMDAT ??_C@_0FG@PFHCBDBK@D?3?2Program?5Files?5?$CIx86?$CJ?2Microsoft@
CONST	SEGMENT
??_C@_0FG@PFHCBDBK@D?3?2Program?5Files?5?$CIx86?$CJ?2Microsoft@ DB 'D:\Pr'
	DB	'ogram Files (x86)\Microsoft Visual Studio .NET 2003\Vc7\atlmf'
	DB	'c\include\atlconv.h', 00H			; `string'
CONST	ENDS
;	COMDAT ??_C@_08DMHHBMMN@lpa?5?$CB?$DN?50?$AA@
CONST	SEGMENT
??_C@_08DMHHBMMN@lpa?5?$CB?$DN?50?$AA@ DB 'lpa != 0', 00H ; `string'
CONST	ENDS
;	COMDAT ??_C@_01GBGANLPD@0?$AA@
CONST	SEGMENT
??_C@_01GBGANLPD@0?$AA@ DB '0', 00H			; `string'
; Function compile flags: /Odt /RTCsu
CONST	ENDS
;	COMDAT ?AtlW2AHelper@@YGPADPADPB_WHI@Z
_TEXT	SEGMENT
_ret$ = -4						; size = 4
_lpa$ = 8						; size = 4
_lpw$ = 12						; size = 4
_nChars$ = 16						; size = 4
_acp$ = 20						; size = 4
?AtlW2AHelper@@YGPADPADPB_WHI@Z PROC NEAR		; AtlW2AHelper, COMDAT

; 573  : {

  00000	55		 push	 ebp
  00001	8b ec		 mov	 ebp, esp
  00003	51		 push	 ecx
  00004	56		 push	 esi
  00005	c7 45 fc cc cc
	cc cc		 mov	 DWORD PTR [ebp-4], -858993460 ; ccccccccH

; 574  : 	ATLASSERT(lpw != NULL);

  0000c	83 7d 0c 00	 cmp	 DWORD PTR _lpw$[ebp], 0
  00010	75 2b		 jne	 SHORT $L199768
  00012	8b f4		 mov	 esi, esp
  00014	68 00 00 00 00	 push	 OFFSET FLAT:??_C@_08DIHJLFDJ@lpw?5?$CB?$DN?50?$AA@
  00019	6a 00		 push	 0
  0001b	68 3e 02 00 00	 push	 574			; 0000023eH
  00020	68 00 00 00 00	 push	 OFFSET FLAT:??_C@_0FG@PFHCBDBK@D?3?2Program?5Files?5?$CIx86?$CJ?2Microsoft@
  00025	6a 02		 push	 2
  00027	ff 15 00 00 00
	00		 call	 DWORD PTR __imp___CrtDbgReport
  0002d	83 c4 14	 add	 esp, 20			; 00000014H
  00030	3b f4		 cmp	 esi, esp
  00032	e8 00 00 00 00	 call	 __RTC_CheckEsp
  00037	83 f8 01	 cmp	 eax, 1
  0003a	75 01		 jne	 SHORT $L199768
  0003c	cc		 int	 3
$L199768:

; 575  : 	ATLASSERT(lpa != NULL);

  0003d	83 7d 08 00	 cmp	 DWORD PTR _lpa$[ebp], 0
  00041	75 2b		 jne	 SHORT $L199769
  00043	8b f4		 mov	 esi, esp
  00045	68 00 00 00 00	 push	 OFFSET FLAT:??_C@_08DMHHBMMN@lpa?5?$CB?$DN?50?$AA@
  0004a	6a 00		 push	 0
  0004c	68 3f 02 00 00	 push	 575			; 0000023fH
  00051	68 00 00 00 00	 push	 OFFSET FLAT:??_C@_0FG@PFHCBDBK@D?3?2Program?5Files?5?$CIx86?$CJ?2Microsoft@
  00056	6a 02		 push	 2
  00058	ff 15 00 00 00
	00		 call	 DWORD PTR __imp___CrtDbgReport
  0005e	83 c4 14	 add	 esp, 20			; 00000014H
  00061	3b f4		 cmp	 esi, esp
  00063	e8 00 00 00 00	 call	 __RTC_CheckEsp
  00068	83 f8 01	 cmp	 eax, 1
  0006b	75 01		 jne	 SHORT $L199769
  0006d	cc		 int	 3
$L199769:

; 576  : 	if (lpa == NULL || lpw == NULL)

  0006e	83 7d 08 00	 cmp	 DWORD PTR _lpa$[ebp], 0
  00072	74 06		 je	 SHORT $L24313
  00074	83 7d 0c 00	 cmp	 DWORD PTR _lpw$[ebp], 0
  00078	75 04		 jne	 SHORT $L24312
$L24313:

; 577  : 		return NULL;

  0007a	33 c0		 xor	 eax, eax
  0007c	eb 6c		 jmp	 SHORT $L24309
$L24312:

; 578  : 	// verify that no illegal character present
; 579  : 	// since lpa was allocated based on the size of lpw
; 580  : 	// don't worry about the number of chars
; 581  : 	lpa[0] = '\0';

  0007e	8b 55 08	 mov	 edx, DWORD PTR _lpa$[ebp]
  00081	c6 02 00	 mov	 BYTE PTR [edx], 0

; 582  : 	int ret = WideCharToMultiByte(acp, 0, lpw, -1, lpa, nChars, NULL, NULL);

  00084	8b f4		 mov	 esi, esp
  00086	6a 00		 push	 0
  00088	6a 00		 push	 0
  0008a	8b 45 10	 mov	 eax, DWORD PTR _nChars$[ebp]
  0008d	50		 push	 eax
  0008e	8b 4d 08	 mov	 ecx, DWORD PTR _lpa$[ebp]
  00091	51		 push	 ecx
  00092	6a ff		 push	 -1
  00094	8b 55 0c	 mov	 edx, DWORD PTR _lpw$[ebp]
  00097	52		 push	 edx
  00098	6a 00		 push	 0
  0009a	8b 45 14	 mov	 eax, DWORD PTR _acp$[ebp]
  0009d	50		 push	 eax
  0009e	ff 15 00 00 00
	00		 call	 DWORD PTR __imp__WideCharToMultiByte@32
  000a4	3b f4		 cmp	 esi, esp
  000a6	e8 00 00 00 00	 call	 __RTC_CheckEsp
  000ab	89 45 fc	 mov	 DWORD PTR _ret$[ebp], eax

; 583  : 	if(ret == 0)

  000ae	83 7d fc 00	 cmp	 DWORD PTR _ret$[ebp], 0
  000b2	75 33		 jne	 SHORT $L24315

; 584  : 	{
; 585  : 		ATLASSERT(FALSE);

  000b4	33 c9		 xor	 ecx, ecx
  000b6	75 2b		 jne	 SHORT $L199770
  000b8	8b f4		 mov	 esi, esp
  000ba	68 00 00 00 00	 push	 OFFSET FLAT:??_C@_01GBGANLPD@0?$AA@
  000bf	6a 00		 push	 0
  000c1	68 49 02 00 00	 push	 585			; 00000249H
  000c6	68 00 00 00 00	 push	 OFFSET FLAT:??_C@_0FG@PFHCBDBK@D?3?2Program?5Files?5?$CIx86?$CJ?2Microsoft@
  000cb	6a 02		 push	 2
  000cd	ff 15 00 00 00
	00		 call	 DWORD PTR __imp___CrtDbgReport
  000d3	83 c4 14	 add	 esp, 20			; 00000014H
  000d6	3b f4		 cmp	 esi, esp
  000d8	e8 00 00 00 00	 call	 __RTC_CheckEsp
  000dd	83 f8 01	 cmp	 eax, 1
  000e0	75 01		 jne	 SHORT $L199770
  000e2	cc		 int	 3
$L199770:

; 586  : 		return NULL;

  000e3	33 c0		 xor	 eax, eax
  000e5	eb 03		 jmp	 SHORT $L24309
$L24315:

; 587  : 	}
; 588  : 	return lpa;

  000e7	8b 45 08	 mov	 eax, DWORD PTR _lpa$[ebp]
$L24309:

; 589  : }

  000ea	5e		 pop	 esi
  000eb	83 c4 04	 add	 esp, 4
  000ee	3b ec		 cmp	 ebp, esp
  000f0	e8 00 00 00 00	 call	 __RTC_CheckEsp
  000f5	8b e5		 mov	 esp, ebp
  000f7	5d		 pop	 ebp
  000f8	c2 10 00	 ret	 16			; 00000010H
?AtlW2AHelper@@YGPADPADPB_WHI@Z ENDP			; AtlW2AHelper
_TEXT	ENDS
PUBLIC	??BCTraceCategory@ATL@@QBEKXZ			; ATL::CTraceCategory::operator unsigned long
PUBLIC	??0CTraceFileAndLineInfo@ATL@@QAE@PBDH@Z	; ATL::CTraceFileAndLineInfo::CTraceFileAndLineInfo
PUBLIC	??RCTraceFileAndLineInfo@ATL@@QBAXKIPBDZZ	; ATL::CTraceFileAndLineInfo::operator()
PUBLIC	??_C@_0FI@NHHJANPC@D?3?2Program?5Files?5?$CIx86?$CJ?2Microsoft@ ; `string'
PUBLIC	??_C@_0BF@IAAKIJDJ@AtlThrow?3?5hr?5?$DN?50x?$CFx?6?$AA@ ; `string'
EXTRN	?atlTraceException@ATL@@3VCTraceCategory@1@A:DWORD ; ATL::atlTraceException
EXTRN	?AfxThrowMemoryException@@YGXXZ:NEAR		; AfxThrowMemoryException
EXTRN	?AfxThrowOleException@@YGXJ@Z:NEAR		; AfxThrowOleException
;	COMDAT ??_C@_0BF@IAAKIJDJ@AtlThrow?3?5hr?5?$DN?50x?$CFx?6?$AA@
; File d:\program files (x86)\microsoft visual studio .net 2003\vc7\atlmfc\include\atlexcept.h
CONST	SEGMENT
??_C@_0BF@IAAKIJDJ@AtlThrow?3?5hr?5?$DN?50x?$CFx?6?$AA@ DB 'AtlThrow: hr '
	DB	'= 0x%x', 0aH, 00H				; `string'
CONST	ENDS
;	COMDAT ??_C@_0FI@NHHJANPC@D?3?2Program?5Files?5?$CIx86?$CJ?2Microsoft@
CONST	SEGMENT
??_C@_0FI@NHHJANPC@D?3?2Program?5Files?5?$CIx86?$CJ?2Microsoft@ DB 'D:\Pr'
	DB	'ogram Files (x86)\Microsoft Visual Studio .NET 2003\Vc7\atlmf'
	DB	'c\include\atlexcept.h', 00H			; `string'
; Function compile flags: /Odt /RTCsu
CONST	ENDS
;	COMDAT ?AtlThrow@ATL@@YGXJ@Z
_TEXT	SEGMENT
$T199772 = -8						; size = 8
_hr$ = 8						; size = 4
?AtlThrow@ATL@@YGXJ@Z PROC NEAR				; ATL::AtlThrow, COMDAT

; 61   : {

  00000	55		 push	 ebp
  00001	8b ec		 mov	 ebp, esp
  00003	83 ec 08	 sub	 esp, 8
  00006	c7 45 f8 cc cc
	cc cc		 mov	 DWORD PTR [ebp-8], -858993460 ; ccccccccH
  0000d	c7 45 fc cc cc
	cc cc		 mov	 DWORD PTR [ebp-4], -858993460 ; ccccccccH

; 62   : 	ATLTRACE(atlTraceException, 0, _T("AtlThrow: hr = 0x%x\n"), hr );

  00014	8b 45 08	 mov	 eax, DWORD PTR _hr$[ebp]
  00017	50		 push	 eax
  00018	68 00 00 00 00	 push	 OFFSET FLAT:??_C@_0BF@IAAKIJDJ@AtlThrow?3?5hr?5?$DN?50x?$CFx?6?$AA@
  0001d	6a 00		 push	 0
  0001f	b9 00 00 00 00	 mov	 ecx, OFFSET FLAT:?atlTraceException@ATL@@3VCTraceCategory@1@A ; ATL::atlTraceException
  00024	e8 00 00 00 00	 call	 ??BCTraceCategory@ATL@@QBEKXZ ; ATL::CTraceCategory::operator unsigned long
  00029	50		 push	 eax
  0002a	6a 3e		 push	 62			; 0000003eH
  0002c	68 00 00 00 00	 push	 OFFSET FLAT:??_C@_0FI@NHHJANPC@D?3?2Program?5Files?5?$CIx86?$CJ?2Microsoft@
  00031	8d 4d f8	 lea	 ecx, DWORD PTR $T199772[ebp]
  00034	e8 00 00 00 00	 call	 ??0CTraceFileAndLineInfo@ATL@@QAE@PBDH@Z ; ATL::CTraceFileAndLineInfo::CTraceFileAndLineInfo
  00039	50		 push	 eax
  0003a	e8 00 00 00 00	 call	 ??RCTraceFileAndLineInfo@ATL@@QBAXKIPBDZZ ; ATL::CTraceFileAndLineInfo::operator()
  0003f	83 c4 14	 add	 esp, 20			; 00000014H

; 63   : #ifdef _AFX
; 64   : 	if( hr == E_OUTOFMEMORY )

  00042	81 7d 08 0e 00
	07 80		 cmp	 DWORD PTR _hr$[ebp], -2147024882 ; 8007000eH
  00049	75 05		 jne	 SHORT $L25222

; 65   : 	{
; 66   : 		AfxThrowMemoryException();

  0004b	e8 00 00 00 00	 call	 ?AfxThrowMemoryException@@YGXXZ ; AfxThrowMemoryException
$L25222:

; 67   : 	}
; 68   : 	else
; 69   : 	{
; 70   : 		AfxThrowOleException( hr );

  00050	8b 4d 08	 mov	 ecx, DWORD PTR _hr$[ebp]
  00053	51		 push	 ecx
  00054	e8 00 00 00 00	 call	 ?AfxThrowOleException@@YGXJ@Z ; AfxThrowOleException
$L199771:

; 71   : 	}
; 72   : #else
; 73   : 	throw CAtlException( hr );
; 74   : #endif
; 75   : };

  00059	83 c4 08	 add	 esp, 8
  0005c	3b ec		 cmp	 ebp, esp
  0005e	e8 00 00 00 00	 call	 __RTC_CheckEsp
  00063	8b e5		 mov	 esp, ebp
  00065	5d		 pop	 ebp
  00066	c2 04 00	 ret	 4
?AtlThrow@ATL@@YGXJ@Z ENDP				; ATL::AtlThrow
; Function compile flags: /Odt /RTCsu
; File d:\program files (x86)\microsoft visual studio .net 2003\vc7\atlmfc\include\atltrace.h
_TEXT	ENDS
;	COMDAT ??0CTraceFileAndLineInfo@ATL@@QAE@PBDH@Z
_TEXT	SEGMENT
_this$ = -4						; size = 4
_pszFileName$ = 8					; size = 4
_nLineNo$ = 12						; size = 4
??0CTraceFileAndLineInfo@ATL@@QAE@PBDH@Z PROC NEAR	; ATL::CTraceFileAndLineInfo::CTraceFileAndLineInfo, COMDAT
; _this$ = ecx

; 158  : 	{}

  00000	55		 push	 ebp
  00001	8b ec		 mov	 ebp, esp
  00003	51		 push	 ecx
  00004	c7 45 fc cc cc
	cc cc		 mov	 DWORD PTR [ebp-4], -858993460 ; ccccccccH
  0000b	89 4d fc	 mov	 DWORD PTR _this$[ebp], ecx
  0000e	8b 45 fc	 mov	 eax, DWORD PTR _this$[ebp]
  00011	8b 4d 08	 mov	 ecx, DWORD PTR _pszFileName$[ebp]
  00014	89 08		 mov	 DWORD PTR [eax], ecx
  00016	8b 55 fc	 mov	 edx, DWORD PTR _this$[ebp]
  00019	8b 45 0c	 mov	 eax, DWORD PTR _nLineNo$[ebp]
  0001c	89 42 04	 mov	 DWORD PTR [edx+4], eax
  0001f	8b 45 fc	 mov	 eax, DWORD PTR _this$[ebp]
  00022	8b e5		 mov	 esp, ebp
  00024	5d		 pop	 ebp
  00025	c2 08 00	 ret	 8
??0CTraceFileAndLineInfo@ATL@@QAE@PBDH@Z ENDP		; ATL::CTraceFileAndLineInfo::CTraceFileAndLineInfo
_TEXT	ENDS
PUBLIC	?TraceV@CTrace@ATL@@QBAXPBDHKI0PAD@Z		; ATL::CTrace::TraceV
EXTRN	?s_trace@CTrace@ATL@@2V12@A:QWORD		; ATL::CTrace::s_trace
; Function compile flags: /Odt /RTCsu
;	COMDAT ??RCTraceFileAndLineInfo@ATL@@QBAXKIPBDZZ
_TEXT	SEGMENT
_ptr$ = -4						; size = 4
_this$ = 8						; size = 4
_dwCategory$ = 12					; size = 4
_nLevel$ = 16						; size = 4
_pszFmt$ = 20						; size = 4
??RCTraceFileAndLineInfo@ATL@@QBAXKIPBDZZ PROC NEAR	; ATL::CTraceFileAndLineInfo::operator(), COMDAT

; 161  : 	{

  00000	55		 push	 ebp
  00001	8b ec		 mov	 ebp, esp
  00003	51		 push	 ecx
  00004	c7 45 fc cc cc
	cc cc		 mov	 DWORD PTR [ebp-4], -858993460 ; ccccccccH

; 162  : 		va_list ptr; va_start(ptr, pszFmt);

  0000b	8d 45 18	 lea	 eax, DWORD PTR _pszFmt$[ebp+4]
  0000e	89 45 fc	 mov	 DWORD PTR _ptr$[ebp], eax

; 163  : 		ATL::CTrace::s_trace.TraceV(m_pszFileName, m_nLineNo, dwCategory, nLevel, pszFmt, ptr);

  00011	8b 4d fc	 mov	 ecx, DWORD PTR _ptr$[ebp]
  00014	51		 push	 ecx
  00015	8b 55 14	 mov	 edx, DWORD PTR _pszFmt$[ebp]
  00018	52		 push	 edx
  00019	8b 45 10	 mov	 eax, DWORD PTR _nLevel$[ebp]
  0001c	50		 push	 eax
  0001d	8b 4d 0c	 mov	 ecx, DWORD PTR _dwCategory$[ebp]
  00020	51		 push	 ecx
  00021	8b 55 08	 mov	 edx, DWORD PTR _this$[ebp]
  00024	8b 42 04	 mov	 eax, DWORD PTR [edx+4]
  00027	50		 push	 eax
  00028	8b 4d 08	 mov	 ecx, DWORD PTR _this$[ebp]
  0002b	8b 11		 mov	 edx, DWORD PTR [ecx]
  0002d	52		 push	 edx
  0002e	68 00 00 00 00	 push	 OFFSET FLAT:?s_trace@CTrace@ATL@@2V12@A
  00033	e8 00 00 00 00	 call	 ?TraceV@CTrace@ATL@@QBAXPBDHKI0PAD@Z ; ATL::CTrace::TraceV
  00038	83 c4 1c	 add	 esp, 28			; 0000001cH

; 164  : 		va_end(ptr);

  0003b	c7 45 fc 00 00
	00 00		 mov	 DWORD PTR _ptr$[ebp], 0

; 165  : 	}

  00042	83 c4 04	 add	 esp, 4
  00045	3b ec		 cmp	 ebp, esp
  00047	e8 00 00 00 00	 call	 __RTC_CheckEsp
  0004c	8b e5		 mov	 esp, ebp
  0004e	5d		 pop	 ebp
  0004f	c3		 ret	 0
??RCTraceFileAndLineInfo@ATL@@QBAXKIPBDZZ ENDP		; ATL::CTraceFileAndLineInfo::operator()
_TEXT	ENDS
EXTRN	_AtlTraceVA:NEAR
; Function compile flags: /Odt /RTCsu
;	COMDAT ?TraceV@CTrace@ATL@@QBAXPBDHKI0PAD@Z
_TEXT	SEGMENT
_this$ = 8						; size = 4
_pszFileName$ = 12					; size = 4
_nLine$ = 16						; size = 4
_dwCategory$ = 20					; size = 4
_nLevel$ = 24						; size = 4
_pszFmt$ = 28						; size = 4
_args$ = 32						; size = 4
?TraceV@CTrace@ATL@@QBAXPBDHKI0PAD@Z PROC NEAR		; ATL::CTrace::TraceV, COMDAT

; 121  : 	{

  00000	55		 push	 ebp
  00001	8b ec		 mov	 ebp, esp

; 122  : 		AtlTraceVA(m_dwModule, pszFileName, nLine, dwCategory, nLevel, pszFmt, args);

  00003	8b 45 20	 mov	 eax, DWORD PTR _args$[ebp]
  00006	50		 push	 eax
  00007	8b 4d 1c	 mov	 ecx, DWORD PTR _pszFmt$[ebp]
  0000a	51		 push	 ecx
  0000b	8b 55 18	 mov	 edx, DWORD PTR _nLevel$[ebp]
  0000e	52		 push	 edx
  0000f	8b 45 14	 mov	 eax, DWORD PTR _dwCategory$[ebp]
  00012	50		 push	 eax
  00013	8b 4d 10	 mov	 ecx, DWORD PTR _nLine$[ebp]
  00016	51		 push	 ecx
  00017	8b 55 0c	 mov	 edx, DWORD PTR _pszFileName$[ebp]
  0001a	52		 push	 edx
  0001b	8b 45 08	 mov	 eax, DWORD PTR _this$[ebp]
  0001e	8b 48 04	 mov	 ecx, DWORD PTR [eax+4]
  00021	51		 push	 ecx
  00022	e8 00 00 00 00	 call	 _AtlTraceVA
  00027	83 c4 1c	 add	 esp, 28			; 0000001cH

; 123  : 	}

  0002a	3b ec		 cmp	 ebp, esp
  0002c	e8 00 00 00 00	 call	 __RTC_CheckEsp
  00031	5d		 pop	 ebp
  00032	c3		 ret	 0
?TraceV@CTrace@ATL@@QBAXPBDHKI0PAD@Z ENDP		; ATL::CTrace::TraceV
; Function compile flags: /Odt /RTCsu
_TEXT	ENDS
;	COMDAT ??BCTraceCategory@ATL@@QBEKXZ
_TEXT	SEGMENT
_this$ = -4						; size = 4
??BCTraceCategory@ATL@@QBEKXZ PROC NEAR			; ATL::CTraceCategory::operator unsigned long, COMDAT
; _this$ = ecx

; 202  : {

  00000	55		 push	 ebp
  00001	8b ec		 mov	 ebp, esp
  00003	51		 push	 ecx
  00004	c7 45 fc cc cc
	cc cc		 mov	 DWORD PTR [ebp-4], -858993460 ; ccccccccH
  0000b	89 4d fc	 mov	 DWORD PTR _this$[ebp], ecx

; 203  : 	return( m_dwCategory );

  0000e	8b 45 fc	 mov	 eax, DWORD PTR _this$[ebp]
  00011	8b 00		 mov	 eax, DWORD PTR [eax]

; 204  : }

  00013	8b e5		 mov	 esp, ebp
  00015	5d		 pop	 ebp
  00016	c3		 ret	 0
??BCTraceCategory@ATL@@QBEKXZ ENDP			; ATL::CTraceCategory::operator unsigned long
_TEXT	ENDS
PUBLIC	?GetStringTypeExWFake@ATL@@YGHKKPB_WHPAG@Z	; ATL::GetStringTypeExWFake
EXTRN	__imp__GetStringTypeExW@20:NEAR
; Function compile flags: /Odt /RTCsu
; File d:\program files (x86)\microsoft visual studio .net 2003\vc7\atlmfc\include\cstringt.h
;	COMDAT ?GetStringTypeExWThunk@ATL@@YGHKKPB_WHPAG@Z
_TEXT	SEGMENT
_lcid$ = 8						; size = 4
_dwInfoType$ = 12					; size = 4
_pszSrc$ = 16						; size = 4
_nLength$ = 20						; size = 4
_pwCharType$ = 24					; size = 4
?GetStringTypeExWThunk@ATL@@YGHKKPB_WHPAG@Z PROC NEAR	; ATL::GetStringTypeExWThunk, COMDAT

; 240  : {

  00000	55		 push	 ebp
  00001	8b ec		 mov	 ebp, esp
  00003	56		 push	 esi

; 241  : 	_AtlInstallStringThunk(reinterpret_cast<void**>(&_strthunks.pfnGetStringTypeExW), GetStringTypeExWFake, ::GetStringTypeExW);

  00004	a1 00 00 00 00	 mov	 eax, DWORD PTR __imp__GetStringTypeExW@20
  00009	50		 push	 eax
  0000a	68 00 00 00 00	 push	 OFFSET FLAT:?GetStringTypeExWFake@ATL@@YGHKKPB_WHPAG@Z ; ATL::GetStringTypeExWFake
  0000f	68 04 00 00 00	 push	 OFFSET FLAT:?_strthunks@ATL@@3U_AtlStringThunks@1@A+4
  00014	e8 00 00 00 00	 call	 ?_AtlInstallStringThunk@ATL@@YAXPAPAXPAX1@Z ; ATL::_AtlInstallStringThunk
  00019	83 c4 0c	 add	 esp, 12			; 0000000cH

; 242  : 
; 243  : 	return _strthunks.pfnGetStringTypeExW(lcid, dwInfoType, pszSrc, nLength, pwCharType);

  0001c	8b f4		 mov	 esi, esp
  0001e	8b 4d 18	 mov	 ecx, DWORD PTR _pwCharType$[ebp]
  00021	51		 push	 ecx
  00022	8b 55 14	 mov	 edx, DWORD PTR _nLength$[ebp]
  00025	52		 push	 edx
  00026	8b 45 10	 mov	 eax, DWORD PTR _pszSrc$[ebp]
  00029	50		 push	 eax
  0002a	8b 4d 0c	 mov	 ecx, DWORD PTR _dwInfoType$[ebp]
  0002d	51		 push	 ecx
  0002e	8b 55 08	 mov	 edx, DWORD PTR _lcid$[ebp]
  00031	52		 push	 edx
  00032	ff 15 04 00 00
	00		 call	 DWORD PTR ?_strthunks@ATL@@3U_AtlStringThunks@1@A+4
  00038	3b f4		 cmp	 esi, esp
  0003a	e8 00 00 00 00	 call	 __RTC_CheckEsp

; 244  : }

  0003f	5e		 pop	 esi
  00040	3b ec		 cmp	 ebp, esp
  00042	e8 00 00 00 00	 call	 __RTC_CheckEsp
  00047	5d		 pop	 ebp
  00048	c2 14 00	 ret	 20			; 00000014H
?GetStringTypeExWThunk@ATL@@YGHKKPB_WHPAG@Z ENDP	; ATL::GetStringTypeExWThunk
_TEXT	ENDS
EXTRN	__imp__GetStringTypeExA@20:NEAR
;	COMDAT xdata$x
xdata$x	SEGMENT
$T199789 DD	0ffffffffH
	DD	FLAT:$L199781
$T199783 DD	019930520H
	DD	01H
	DD	FLAT:$T199789
	DD	2 DUP(00H)
	DD	2 DUP(00H)
; Function compile flags: /Odt /RTCsu
xdata$x	ENDS
;	COMDAT ?GetStringTypeExWFake@ATL@@YGHKKPB_WHPAG@Z
_TEXT	SEGMENT
$T199780 = -164						; size = 4
_pszA$ = -156						; size = 132
_nLengthA$ = -20					; size = 4
__$ArrayPad$ = -16					; size = 4
__$EHRec$ = -12						; size = 12
__$ReturnAddr$ = 4					; size = 4
_lcid$ = 8						; size = 4
_dwInfoType$ = 12					; size = 4
_pszSrc$ = 16						; size = 4
_nLength$ = 20						; size = 4
_pwCharType$ = 24					; size = 4
?GetStringTypeExWFake@ATL@@YGHKKPB_WHPAG@Z PROC NEAR	; ATL::GetStringTypeExWFake, COMDAT

; 224  : {

  00000	55		 push	 ebp
  00001	8b ec		 mov	 ebp, esp
  00003	6a ff		 push	 -1
  00005	68 00 00 00 00	 push	 __ehhandler$?GetStringTypeExWFake@ATL@@YGHKKPB_WHPAG@Z
  0000a	64 a1 00 00 00
	00		 mov	 eax, DWORD PTR fs:__except_list
  00010	50		 push	 eax
  00011	64 89 25 00 00
	00 00		 mov	 DWORD PTR fs:__except_list, esp
  00018	81 ec 98 00 00
	00		 sub	 esp, 152		; 00000098H
  0001e	56		 push	 esi
  0001f	57		 push	 edi
  00020	8d bd 5c ff ff
	ff		 lea	 edi, DWORD PTR [ebp-164]
  00026	b9 26 00 00 00	 mov	 ecx, 38			; 00000026H
  0002b	b8 cc cc cc cc	 mov	 eax, -858993460		; ccccccccH
  00030	f3 ab		 rep stosd
  00032	a1 00 00 00 00	 mov	 eax, DWORD PTR ___security_cookie
  00037	89 45 f0	 mov	 DWORD PTR __$ArrayPad$[ebp], eax

; 225  : 	int nLengthA;
; 226  : 	CTempBuffer<char> pszA;

  0003a	8d 8d 64 ff ff
	ff		 lea	 ecx, DWORD PTR _pszA$[ebp]
  00040	e8 00 00 00 00	 call	 ??0?$CTempBuffer@D$0IA@VCCRTAllocator@ATL@@@ATL@@QAE@XZ ; ATL::CTempBuffer<char,128,ATL::CCRTAllocator>::CTempBuffer<char,128,ATL::CCRTAllocator>
  00045	c7 45 fc 00 00
	00 00		 mov	 DWORD PTR __$EHRec$[ebp+8], 0

; 227  : 
; 228  : 	nLengthA = ::WideCharToMultiByte(_AtlGetConversionACP(), 0, pszSrc, nLength, NULL, 0, NULL, NULL);

  0004c	8b f4		 mov	 esi, esp
  0004e	6a 00		 push	 0
  00050	6a 00		 push	 0
  00052	6a 00		 push	 0
  00054	6a 00		 push	 0
  00056	8b 45 14	 mov	 eax, DWORD PTR _nLength$[ebp]
  00059	50		 push	 eax
  0005a	8b 4d 10	 mov	 ecx, DWORD PTR _pszSrc$[ebp]
  0005d	51		 push	 ecx
  0005e	6a 00		 push	 0
  00060	e8 00 00 00 00	 call	 ?_AtlGetConversionACP@ATL@@YGIXZ ; ATL::_AtlGetConversionACP
  00065	50		 push	 eax
  00066	ff 15 00 00 00
	00		 call	 DWORD PTR __imp__WideCharToMultiByte@32
  0006c	3b f4		 cmp	 esi, esp
  0006e	e8 00 00 00 00	 call	 __RTC_CheckEsp
  00073	89 45 ec	 mov	 DWORD PTR _nLengthA$[ebp], eax

; 229  : 	pszA.Allocate(nLengthA);

  00076	8b 55 ec	 mov	 edx, DWORD PTR _nLengthA$[ebp]
  00079	52		 push	 edx
  0007a	8d 8d 64 ff ff
	ff		 lea	 ecx, DWORD PTR _pszA$[ebp]
  00080	e8 00 00 00 00	 call	 ?Allocate@?$CTempBuffer@D$0IA@VCCRTAllocator@ATL@@@ATL@@QAEPADI@Z ; ATL::CTempBuffer<char,128,ATL::CCRTAllocator>::Allocate

; 230  : 	::WideCharToMultiByte(_AtlGetConversionACP(), 0, pszSrc, nLength, pszA, nLengthA, NULL, NULL);

  00085	8b f4		 mov	 esi, esp
  00087	6a 00		 push	 0
  00089	6a 00		 push	 0
  0008b	8b 45 ec	 mov	 eax, DWORD PTR _nLengthA$[ebp]
  0008e	50		 push	 eax
  0008f	8d 8d 64 ff ff
	ff		 lea	 ecx, DWORD PTR _pszA$[ebp]
  00095	e8 00 00 00 00	 call	 ??B?$CTempBuffer@D$0IA@VCCRTAllocator@ATL@@@ATL@@QBEPADXZ ; ATL::CTempBuffer<char,128,ATL::CCRTAllocator>::operator char *
  0009a	50		 push	 eax
  0009b	8b 4d 14	 mov	 ecx, DWORD PTR _nLength$[ebp]
  0009e	51		 push	 ecx
  0009f	8b 55 10	 mov	 edx, DWORD PTR _pszSrc$[ebp]
  000a2	52		 push	 edx
  000a3	6a 00		 push	 0
  000a5	e8 00 00 00 00	 call	 ?_AtlGetConversionACP@ATL@@YGIXZ ; ATL::_AtlGetConversionACP
  000aa	50		 push	 eax
  000ab	ff 15 00 00 00
	00		 call	 DWORD PTR __imp__WideCharToMultiByte@32
  000b1	3b f4		 cmp	 esi, esp
  000b3	e8 00 00 00 00	 call	 __RTC_CheckEsp

; 231  : 
; 232  : 	if (nLength == -1)

  000b8	83 7d 14 ff	 cmp	 DWORD PTR _nLength$[ebp], -1
  000bc	75 07		 jne	 SHORT $L26381

; 233  : 		nLengthA = -1;

  000be	c7 45 ec ff ff
	ff ff		 mov	 DWORD PTR _nLengthA$[ebp], -1
$L26381:

; 234  : 
; 235  : 	return ::GetStringTypeExA(lcid, dwInfoType, pszA, nLengthA, pwCharType);

  000c5	8b f4		 mov	 esi, esp
  000c7	8b 45 18	 mov	 eax, DWORD PTR _pwCharType$[ebp]
  000ca	50		 push	 eax
  000cb	8b 4d ec	 mov	 ecx, DWORD PTR _nLengthA$[ebp]
  000ce	51		 push	 ecx
  000cf	8d 8d 64 ff ff
	ff		 lea	 ecx, DWORD PTR _pszA$[ebp]
  000d5	e8 00 00 00 00	 call	 ??B?$CTempBuffer@D$0IA@VCCRTAllocator@ATL@@@ATL@@QBEPADXZ ; ATL::CTempBuffer<char,128,ATL::CCRTAllocator>::operator char *
  000da	50		 push	 eax
  000db	8b 55 0c	 mov	 edx, DWORD PTR _dwInfoType$[ebp]
  000de	52		 push	 edx
  000df	8b 45 08	 mov	 eax, DWORD PTR _lcid$[ebp]
  000e2	50		 push	 eax
  000e3	ff 15 00 00 00
	00		 call	 DWORD PTR __imp__GetStringTypeExA@20
  000e9	3b f4		 cmp	 esi, esp
  000eb	e8 00 00 00 00	 call	 __RTC_CheckEsp
  000f0	89 85 5c ff ff
	ff		 mov	 DWORD PTR $T199780[ebp], eax
  000f6	c7 45 fc ff ff
	ff ff		 mov	 DWORD PTR __$EHRec$[ebp+8], -1
  000fd	8d 8d 64 ff ff
	ff		 lea	 ecx, DWORD PTR _pszA$[ebp]
  00103	e8 00 00 00 00	 call	 ??1?$CTempBuffer@D$0IA@VCCRTAllocator@ATL@@@ATL@@QAE@XZ ; ATL::CTempBuffer<char,128,ATL::CCRTAllocator>::~CTempBuffer<char,128,ATL::CCRTAllocator>
  00108	8b 85 5c ff ff
	ff		 mov	 eax, DWORD PTR $T199780[ebp]

; 236  : }

  0010e	52		 push	 edx
  0010f	8b cd		 mov	 ecx, ebp
  00111	50		 push	 eax
  00112	8d 15 00 00 00
	00		 lea	 edx, DWORD PTR $L199788
  00118	e8 00 00 00 00	 call	 @_RTC_CheckStackVars@8
  0011d	58		 pop	 eax
  0011e	5a		 pop	 edx
  0011f	8b 4d f4	 mov	 ecx, DWORD PTR __$EHRec$[ebp]
  00122	64 89 0d 00 00
	00 00		 mov	 DWORD PTR fs:__except_list, ecx
  00129	8b 4d f0	 mov	 ecx, DWORD PTR __$ArrayPad$[ebp]
  0012c	e8 00 00 00 00	 call	 @__security_check_cookie@4
  00131	5f		 pop	 edi
  00132	5e		 pop	 esi
  00133	81 c4 a4 00 00
	00		 add	 esp, 164		; 000000a4H
  00139	3b ec		 cmp	 ebp, esp
  0013b	e8 00 00 00 00	 call	 __RTC_CheckEsp
  00140	8b e5		 mov	 esp, ebp
  00142	5d		 pop	 ebp
  00143	c2 14 00	 ret	 20			; 00000014H
$L199788:
  00146	01 00 00 00	 DD	 1
  0014a	00 00 00 00	 DD	 $L199787
$L199787:
  0014e	64 ff ff ff	 DD	 -156			; ffffff64H
  00152	84 00 00 00	 DD	 132			; 00000084H
  00156	00 00 00 00	 DD	 $L199784
$L199784:
  0015a	70		 DB	 112			; 00000070H
  0015b	73		 DB	 115			; 00000073H
  0015c	7a		 DB	 122			; 0000007aH
  0015d	41		 DB	 65			; 00000041H
  0015e	00		 DB	 0
_TEXT	ENDS
;	COMDAT text$x
text$x	SEGMENT
$L199781:
  00000	8d 8d 64 ff ff
	ff		 lea	 ecx, DWORD PTR _pszA$[ebp]
  00006	e9 00 00 00 00	 jmp	 ??1?$CTempBuffer@D$0IA@VCCRTAllocator@ATL@@@ATL@@QAE@XZ ; ATL::CTempBuffer<char,128,ATL::CCRTAllocator>::~CTempBuffer<char,128,ATL::CCRTAllocator>
__ehhandler$?GetStringTypeExWFake@ATL@@YGHKKPB_WHPAG@Z:
  0000b	b8 00 00 00 00	 mov	 eax, OFFSET FLAT:$T199783
  00010	e9 00 00 00 00	 jmp	 ___CxxFrameHandler
text$x	ENDS
?GetStringTypeExWFake@ATL@@YGHKKPB_WHPAG@Z ENDP		; ATL::GetStringTypeExWFake
PUBLIC	?lstrcmpiWFake@ATL@@YGHPB_W0@Z			; ATL::lstrcmpiWFake
EXTRN	__imp__lstrcmpiW@8:NEAR
; Function compile flags: /Odt /RTCsu
;	COMDAT ?lstrcmpiWThunk@ATL@@YGHPB_W0@Z
_TEXT	SEGMENT
_psz1$ = 8						; size = 4
_psz2$ = 12						; size = 4
?lstrcmpiWThunk@ATL@@YGHPB_W0@Z PROC NEAR		; ATL::lstrcmpiWThunk, COMDAT

; 254  : {

  00000	55		 push	 ebp
  00001	8b ec		 mov	 ebp, esp
  00003	56		 push	 esi

; 255  : 	_AtlInstallStringThunk(reinterpret_cast<void**>(&_strthunks.pfnlstrcmpiW), lstrcmpiWFake, ::lstrcmpiW);

  00004	a1 00 00 00 00	 mov	 eax, DWORD PTR __imp__lstrcmpiW@8
  00009	50		 push	 eax
  0000a	68 00 00 00 00	 push	 OFFSET FLAT:?lstrcmpiWFake@ATL@@YGHPB_W0@Z ; ATL::lstrcmpiWFake
  0000f	68 08 00 00 00	 push	 OFFSET FLAT:?_strthunks@ATL@@3U_AtlStringThunks@1@A+8
  00014	e8 00 00 00 00	 call	 ?_AtlInstallStringThunk@ATL@@YAXPAPAXPAX1@Z ; ATL::_AtlInstallStringThunk
  00019	83 c4 0c	 add	 esp, 12			; 0000000cH

; 256  : 
; 257  : 	return _strthunks.pfnlstrcmpiW(psz1, psz2);

  0001c	8b f4		 mov	 esi, esp
  0001e	8b 4d 0c	 mov	 ecx, DWORD PTR _psz2$[ebp]
  00021	51		 push	 ecx
  00022	8b 55 08	 mov	 edx, DWORD PTR _psz1$[ebp]
  00025	52		 push	 edx
  00026	ff 15 08 00 00
	00		 call	 DWORD PTR ?_strthunks@ATL@@3U_AtlStringThunks@1@A+8
  0002c	3b f4		 cmp	 esi, esp
  0002e	e8 00 00 00 00	 call	 __RTC_CheckEsp

; 258  : }

  00033	5e		 pop	 esi
  00034	3b ec		 cmp	 ebp, esp
  00036	e8 00 00 00 00	 call	 __RTC_CheckEsp
  0003b	5d		 pop	 ebp
  0003c	c2 08 00	 ret	 8
?lstrcmpiWThunk@ATL@@YGHPB_W0@Z ENDP			; ATL::lstrcmpiWThunk
_TEXT	ENDS
EXTRN	__imp__lstrcmpiA@8:NEAR
; Function compile flags: /Odt /RTCsu
;	COMDAT ?lstrcmpiWFake@ATL@@YGHPB_W0@Z
_TEXT	SEGMENT
tv91 = -32						; size = 4
tv94 = -28						; size = 4
tv76 = -24						; size = 4
tv79 = -20						; size = 4
__lpa$ = -16						; size = 4
__lpw$ = -12						; size = 4
__acp$ = -8						; size = 4
__convert$ = -4						; size = 4
_psz1$ = 8						; size = 4
_psz2$ = 12						; size = 4
?lstrcmpiWFake@ATL@@YGHPB_W0@Z PROC NEAR		; ATL::lstrcmpiWFake, COMDAT

; 247  : {

  00000	55		 push	 ebp
  00001	8b ec		 mov	 ebp, esp
  00003	83 ec 20	 sub	 esp, 32			; 00000020H
  00006	56		 push	 esi
  00007	b8 cc cc cc cc	 mov	 eax, -858993460		; ccccccccH
  0000c	89 45 e0	 mov	 DWORD PTR [ebp-32], eax
  0000f	89 45 e4	 mov	 DWORD PTR [ebp-28], eax
  00012	89 45 e8	 mov	 DWORD PTR [ebp-24], eax
  00015	89 45 ec	 mov	 DWORD PTR [ebp-20], eax
  00018	89 45 f0	 mov	 DWORD PTR [ebp-16], eax
  0001b	89 45 f4	 mov	 DWORD PTR [ebp-12], eax
  0001e	89 45 f8	 mov	 DWORD PTR [ebp-8], eax
  00021	89 45 fc	 mov	 DWORD PTR [ebp-4], eax

; 248  : 	USES_CONVERSION;

  00024	c7 45 fc 00 00
	00 00		 mov	 DWORD PTR __convert$[ebp], 0
  0002b	e8 00 00 00 00	 call	 ?_AtlGetConversionACP@ATL@@YGIXZ ; ATL::_AtlGetConversionACP
  00030	89 45 f8	 mov	 DWORD PTR __acp$[ebp], eax
  00033	c7 45 f4 00 00
	00 00		 mov	 DWORD PTR __lpw$[ebp], 0
  0003a	c7 45 f0 00 00
	00 00		 mov	 DWORD PTR __lpa$[ebp], 0

; 249  : 
; 250  : 	return ::lstrcmpiA(W2A(psz1), W2A(psz2));

  00041	8b 45 0c	 mov	 eax, DWORD PTR _psz2$[ebp]
  00044	89 45 f4	 mov	 DWORD PTR __lpw$[ebp], eax
  00047	83 7d f4 00	 cmp	 DWORD PTR __lpw$[ebp], 0
  0004b	75 09		 jne	 SHORT $L199794
  0004d	c7 45 ec 00 00
	00 00		 mov	 DWORD PTR tv79[ebp], 0
  00054	eb 43		 jmp	 SHORT $L199795
$L199794:
  00056	8b f4		 mov	 esi, esp
  00058	8b 4d f4	 mov	 ecx, DWORD PTR __lpw$[ebp]
  0005b	51		 push	 ecx
  0005c	ff 15 00 00 00
	00		 call	 DWORD PTR __imp__lstrlenW@4
  00062	3b f4		 cmp	 esi, esp
  00064	e8 00 00 00 00	 call	 __RTC_CheckEsp
  00069	8d 54 00 02	 lea	 edx, DWORD PTR [eax+eax+2]
  0006d	89 55 fc	 mov	 DWORD PTR __convert$[ebp], edx
  00070	8b 45 fc	 mov	 eax, DWORD PTR __convert$[ebp]
  00073	83 c0 03	 add	 eax, 3
  00076	83 e0 fc	 and	 eax, -4			; fffffffcH
  00079	e8 00 00 00 00	 call	 __alloca_probe
  0007e	89 65 e8	 mov	 DWORD PTR tv76[ebp], esp
  00081	8b 45 f8	 mov	 eax, DWORD PTR __acp$[ebp]
  00084	50		 push	 eax
  00085	8b 4d fc	 mov	 ecx, DWORD PTR __convert$[ebp]
  00088	51		 push	 ecx
  00089	8b 55 f4	 mov	 edx, DWORD PTR __lpw$[ebp]
  0008c	52		 push	 edx
  0008d	8b 45 e8	 mov	 eax, DWORD PTR tv76[ebp]
  00090	50		 push	 eax
  00091	e8 00 00 00 00	 call	 ?AtlW2AHelper@@YGPADPADPB_WHI@Z ; AtlW2AHelper
  00096	89 45 ec	 mov	 DWORD PTR tv79[ebp], eax
$L199795:
  00099	8b 4d 08	 mov	 ecx, DWORD PTR _psz1$[ebp]
  0009c	89 4d f4	 mov	 DWORD PTR __lpw$[ebp], ecx
  0009f	83 7d f4 00	 cmp	 DWORD PTR __lpw$[ebp], 0
  000a3	75 09		 jne	 SHORT $L199796
  000a5	c7 45 e4 00 00
	00 00		 mov	 DWORD PTR tv94[ebp], 0
  000ac	eb 43		 jmp	 SHORT $L199797
$L199796:
  000ae	8b f4		 mov	 esi, esp
  000b0	8b 55 f4	 mov	 edx, DWORD PTR __lpw$[ebp]
  000b3	52		 push	 edx
  000b4	ff 15 00 00 00
	00		 call	 DWORD PTR __imp__lstrlenW@4
  000ba	3b f4		 cmp	 esi, esp
  000bc	e8 00 00 00 00	 call	 __RTC_CheckEsp
  000c1	8d 44 00 02	 lea	 eax, DWORD PTR [eax+eax+2]
  000c5	89 45 fc	 mov	 DWORD PTR __convert$[ebp], eax
  000c8	8b 45 fc	 mov	 eax, DWORD PTR __convert$[ebp]
  000cb	83 c0 03	 add	 eax, 3
  000ce	83 e0 fc	 and	 eax, -4			; fffffffcH
  000d1	e8 00 00 00 00	 call	 __alloca_probe
  000d6	89 65 e0	 mov	 DWORD PTR tv91[ebp], esp
  000d9	8b 4d f8	 mov	 ecx, DWORD PTR __acp$[ebp]
  000dc	51		 push	 ecx
  000dd	8b 55 fc	 mov	 edx, DWORD PTR __convert$[ebp]
  000e0	52		 push	 edx
  000e1	8b 45 f4	 mov	 eax, DWORD PTR __lpw$[ebp]
  000e4	50		 push	 eax
  000e5	8b 4d e0	 mov	 ecx, DWORD PTR tv91[ebp]
  000e8	51		 push	 ecx
  000e9	e8 00 00 00 00	 call	 ?AtlW2AHelper@@YGPADPADPB_WHI@Z ; AtlW2AHelper
  000ee	89 45 e4	 mov	 DWORD PTR tv94[ebp], eax
$L199797:
  000f1	8b f4		 mov	 esi, esp
  000f3	8b 55 ec	 mov	 edx, DWORD PTR tv79[ebp]
  000f6	52		 push	 edx
  000f7	8b 45 e4	 mov	 eax, DWORD PTR tv94[ebp]
  000fa	50		 push	 eax
  000fb	ff 15 00 00 00
	00		 call	 DWORD PTR __imp__lstrcmpiA@8
  00101	3b f4		 cmp	 esi, esp
  00103	e8 00 00 00 00	 call	 __RTC_CheckEsp

; 251  : }

  00108	8d 65 dc	 lea	 esp, DWORD PTR [ebp-36]
  0010b	5e		 pop	 esi
  0010c	8b e5		 mov	 esp, ebp
  0010e	5d		 pop	 ebp
  0010f	c2 08 00	 ret	 8
?lstrcmpiWFake@ATL@@YGHPB_W0@Z ENDP			; ATL::lstrcmpiWFake
; Function compile flags: /Odt /RTCsu
; File d:\boxgit\playbox\playbox\dev\prj\playbox\playboxdlg.cpp
_TEXT	ENDS
_TEXT	SEGMENT
_this$ = -4						; size = 4
_Pt$ = 8						; size = 4
?_needChangeCursor@CPlayBoxDlg@@AAEHABVCPoint@@@Z PROC NEAR ; CPlayBoxDlg::_needChangeCursor
; _this$ = ecx

; 429  : {

  01850	55		 push	 ebp
  01851	8b ec		 mov	 ebp, esp
  01853	83 ec 3c	 sub	 esp, 60			; 0000003cH
  01856	56		 push	 esi
  01857	57		 push	 edi
  01858	51		 push	 ecx
  01859	8d 7d c4	 lea	 edi, DWORD PTR [ebp-60]
  0185c	b9 0f 00 00 00	 mov	 ecx, 15			; 0000000fH
  01861	b8 cc cc cc cc	 mov	 eax, -858993460		; ccccccccH
  01866	f3 ab		 rep stosd
  01868	59		 pop	 ecx
  01869	89 4d fc	 mov	 DWORD PTR _this$[ebp], ecx

; 430  : 	return FALSE; //

  0186c	33 c0		 xor	 eax, eax

; 431  : 
; 432  : 	RECT fullRect;
; 433  : 	::GetWindowRect(m_hWnd,&fullRect);//rect			
; 434  : 
; 435  : 	// cursor 
; 436  : 	//  6*6 re_size
; 437  : 	if( (Pt.x >= 0 && Pt.x <= 8 ) && (Pt.y > fullRect.bottom - fullRect.top - 8) )
; 438  : 	{
; 439  : 		//
; 440  : 		HCURSOR  m_hCursor = ::LoadCursor(NULL, IDC_SIZENESW);
; 441  : 		::SetCursor(m_hCursor);
; 442  : 		m_iDirection |= DIRECTION_LEFT;
; 443  : 		m_iDirection |= DIRECTION_BOTTOM;
; 444  : 
; 445  : 		return TRUE;
; 446  : 	}
; 447  : 	//  6*6 re_size
; 448  : 	if( (Pt.x > fullRect.right - fullRect.left - 8) && (Pt.y > fullRect.bottom - fullRect.top - 8) )
; 449  : 	{
; 450  : 		//
; 451  : 		HCURSOR  m_hCursor = ::LoadCursor(NULL, IDC_SIZENWSE);
; 452  : 		::SetCursor(m_hCursor);
; 453  : 		m_iDirection |= DIRECTION_RIGHT;
; 454  : 		m_iDirection |= DIRECTION_BOTTOM;
; 455  : 
; 456  : 		return TRUE;
; 457  : 	}
; 458  : 	//  6*6 re_size
; 459  : 	if( (Pt.x >= 0 && Pt.x <= 8 ) && (Pt.y >= 0 && Pt.y <= 8) )
; 460  : 	{
; 461  : 		//
; 462  : 		HCURSOR  m_hCursor = ::LoadCursor(NULL, IDC_SIZENWSE);
; 463  : 		::SetCursor(m_hCursor);
; 464  : 		m_iDirection |= DIRECTION_LEFT;
; 465  : 		m_iDirection |= DIRECTION_TOP;
; 466  : 
; 467  : 		return TRUE;
; 468  : 	}
; 469  : 	//  6*6 re_size
; 470  : 	if( (Pt.x > fullRect.right - fullRect.left - 8) && (Pt.y >= 0 && Pt.y <= 8))
; 471  : 	{
; 472  : 		//
; 473  : 		HCURSOR  m_hCursor = ::LoadCursor(NULL, IDC_SIZENESW);
; 474  : 		::SetCursor(m_hCursor);
; 475  : 		m_iDirection |= DIRECTION_RIGHT;
; 476  : 		m_iDirection |= DIRECTION_TOP;
; 477  : 
; 478  : 		return TRUE;
; 479  : 	}
; 480  : 	//    3 IDC_SIZEWE 
; 481  : 	if(Pt.x >= 0 && Pt.x <= 8)
; 482  : 	{
; 483  : 		//
; 484  : 		HCURSOR  m_hCursor = ::LoadCursor(NULL, IDC_SIZEWE);
; 485  : 		::SetCursor(m_hCursor);
; 486  : 		m_iDirection |= DIRECTION_LEFT;
; 487  : 		
; 488  : 		return TRUE;
; 489  : 	}
; 490  : 	else if(Pt.x >= fullRect.right - fullRect.left -8 && Pt.x <= fullRect.right - fullRect.left)
; 491  : 	{
; 492  : 		//
; 493  : 		HCURSOR  m_hCursor = ::LoadCursor(NULL, IDC_SIZEWE);
; 494  : 		::SetCursor(m_hCursor);
; 495  : 		m_iDirection |= DIRECTION_RIGHT;		
; 496  : 		return TRUE;
; 497  : 	}
; 498  : 	//   3IDC_SIZEWE 
; 499  : 	if(Pt.y >= 0 && Pt.y <= 3)
; 500  : 	{	
; 501  : 		//
; 502  : 		HCURSOR  m_hCursor = ::LoadCursor(NULL, IDC_SIZENS);
; 503  : 		::SetCursor(m_hCursor);
; 504  : 		m_iDirection |= DIRECTION_TOP;
; 505  : 
; 506  : 		return TRUE;
; 507  : 	}
; 508  : 	else if(Pt.y >= fullRect.bottom - fullRect.top -8 && Pt.y <= fullRect.bottom - fullRect.top)
; 509  : 	{
; 510  : 		//
; 511  : 		HCURSOR  m_hCursor = ::LoadCursor(NULL, IDC_SIZENS);
; 512  : 		::SetCursor(m_hCursor);
; 513  : 		m_iDirection |= DIRECTION_BOTTOM;
; 514  : 		return TRUE;
; 515  : 	}
; 516  : 
; 517  : 	return FALSE;
; 518  : }

  0186e	52		 push	 edx
  0186f	8b cd		 mov	 ecx, ebp
  01871	50		 push	 eax
  01872	8d 15 00 00 00
	00		 lea	 edx, DWORD PTR $L199801
  01878	e8 00 00 00 00	 call	 @_RTC_CheckStackVars@8
  0187d	58		 pop	 eax
  0187e	5a		 pop	 edx
  0187f	5f		 pop	 edi
  01880	5e		 pop	 esi
  01881	83 c4 3c	 add	 esp, 60			; 0000003cH
  01884	3b ec		 cmp	 ebp, esp
  01886	e8 00 00 00 00	 call	 __RTC_CheckEsp
  0188b	8b e5		 mov	 esp, ebp
  0188d	5d		 pop	 ebp
  0188e	c2 04 00	 ret	 4
$L199801:
  01891	01 00 00 00	 DD	 1
  01895	00 00 00 00	 DD	 $L199800
$L199800:
  01899	e8 ff ff ff	 DD	 -24			; ffffffe8H
  0189d	10 00 00 00	 DD	 16			; 00000010H
  018a1	00 00 00 00	 DD	 $L199799
$L199799:
  018a5	66		 DB	 102			; 00000066H
  018a6	75		 DB	 117			; 00000075H
  018a7	6c		 DB	 108			; 0000006cH
  018a8	6c		 DB	 108			; 0000006cH
  018a9	52		 DB	 82			; 00000052H
  018aa	65		 DB	 101			; 00000065H
  018ab	63		 DB	 99			; 00000063H
  018ac	74		 DB	 116			; 00000074H
  018ad	00		 DB	 0
?_needChangeCursor@CPlayBoxDlg@@AAEHABVCPoint@@@Z ENDP	; CPlayBoxDlg::_needChangeCursor
_TEXT	ENDS
PUBLIC	?CharLowerWFake@ATL@@YGPA_WPA_W@Z		; ATL::CharLowerWFake
EXTRN	__imp__CharLowerW@4:NEAR
; Function compile flags: /Odt /RTCsu
; File d:\program files (x86)\microsoft visual studio .net 2003\vc7\atlmfc\include\cstringt.h
;	COMDAT ?CharLowerWThunk@ATL@@YGPA_WPA_W@Z
_TEXT	SEGMENT
_psz$ = 8						; size = 4
?CharLowerWThunk@ATL@@YGPA_WPA_W@Z PROC NEAR		; ATL::CharLowerWThunk, COMDAT

; 273  : {

  00000	55		 push	 ebp
  00001	8b ec		 mov	 ebp, esp
  00003	56		 push	 esi

; 274  : 	_AtlInstallStringThunk(reinterpret_cast<void**>(&_strthunks.pfnCharLowerW), CharLowerWFake, ::CharLowerW);

  00004	a1 00 00 00 00	 mov	 eax, DWORD PTR __imp__CharLowerW@4
  00009	50		 push	 eax
  0000a	68 00 00 00 00	 push	 OFFSET FLAT:?CharLowerWFake@ATL@@YGPA_WPA_W@Z ; ATL::CharLowerWFake
  0000f	68 0c 00 00 00	 push	 OFFSET FLAT:?_strthunks@ATL@@3U_AtlStringThunks@1@A+12
  00014	e8 00 00 00 00	 call	 ?_AtlInstallStringThunk@ATL@@YAXPAPAXPAX1@Z ; ATL::_AtlInstallStringThunk
  00019	83 c4 0c	 add	 esp, 12			; 0000000cH

; 275  : 
; 276  : 	return _strthunks.pfnCharLowerW(psz);

  0001c	8b f4		 mov	 esi, esp
  0001e	8b 4d 08	 mov	 ecx, DWORD PTR _psz$[ebp]
  00021	51		 push	 ecx
  00022	ff 15 0c 00 00
	00		 call	 DWORD PTR ?_strthunks@ATL@@3U_AtlStringThunks@1@A+12
  00028	3b f4		 cmp	 esi, esp
  0002a	e8 00 00 00 00	 call	 __RTC_CheckEsp

; 277  : }

  0002f	5e		 pop	 esi
  00030	3b ec		 cmp	 ebp, esp
  00032	e8 00 00 00 00	 call	 __RTC_CheckEsp
  00037	5d		 pop	 ebp
  00038	c2 04 00	 ret	 4
?CharLowerWThunk@ATL@@YGPA_WPA_W@Z ENDP			; ATL::CharLowerWThunk
_TEXT	ENDS
PUBLIC	?AtlA2WHelper@@YGPA_WPA_WPBDHI@Z		; AtlA2WHelper
EXTRN	__imp__lstrlenA@4:NEAR
EXTRN	__imp__CharLowerA@4:NEAR
EXTRN	__imp__wcscpy:NEAR
; Function compile flags: /Odt /RTCsu
;	COMDAT ?CharLowerWFake@ATL@@YGPA_WPA_W@Z
_TEXT	SEGMENT
tv90 = -36						; size = 4
tv94 = -32						; size = 4
tv75 = -28						; size = 4
tv78 = -24						; size = 4
_pszA$ = -20						; size = 4
__lpa$ = -16						; size = 4
__lpw$ = -12						; size = 4
__acp$ = -8						; size = 4
__convert$ = -4						; size = 4
_psz$ = 8						; size = 4
?CharLowerWFake@ATL@@YGPA_WPA_W@Z PROC NEAR		; ATL::CharLowerWFake, COMDAT

; 261  : {

  00000	55		 push	 ebp
  00001	8b ec		 mov	 ebp, esp
  00003	83 ec 24	 sub	 esp, 36			; 00000024H
  00006	56		 push	 esi
  00007	b8 cc cc cc cc	 mov	 eax, -858993460		; ccccccccH
  0000c	89 45 dc	 mov	 DWORD PTR [ebp-36], eax
  0000f	89 45 e0	 mov	 DWORD PTR [ebp-32], eax
  00012	89 45 e4	 mov	 DWORD PTR [ebp-28], eax
  00015	89 45 e8	 mov	 DWORD PTR [ebp-24], eax
  00018	89 45 ec	 mov	 DWORD PTR [ebp-20], eax
  0001b	89 45 f0	 mov	 DWORD PTR [ebp-16], eax
  0001e	89 45 f4	 mov	 DWORD PTR [ebp-12], eax
  00021	89 45 f8	 mov	 DWORD PTR [ebp-8], eax
  00024	89 45 fc	 mov	 DWORD PTR [ebp-4], eax

; 262  : 	USES_CONVERSION;

  00027	c7 45 fc 00 00
	00 00		 mov	 DWORD PTR __convert$[ebp], 0
  0002e	e8 00 00 00 00	 call	 ?_AtlGetConversionACP@ATL@@YGIXZ ; ATL::_AtlGetConversionACP
  00033	89 45 f8	 mov	 DWORD PTR __acp$[ebp], eax
  00036	c7 45 f4 00 00
	00 00		 mov	 DWORD PTR __lpw$[ebp], 0
  0003d	c7 45 f0 00 00
	00 00		 mov	 DWORD PTR __lpa$[ebp], 0

; 263  : 	LPSTR pszA;
; 264  : 
; 265  : 	pszA = W2A(psz);

  00044	8b 45 08	 mov	 eax, DWORD PTR _psz$[ebp]
  00047	89 45 f4	 mov	 DWORD PTR __lpw$[ebp], eax
  0004a	83 7d f4 00	 cmp	 DWORD PTR __lpw$[ebp], 0
  0004e	75 09		 jne	 SHORT $L199804
  00050	c7 45 e8 00 00
	00 00		 mov	 DWORD PTR tv78[ebp], 0
  00057	eb 43		 jmp	 SHORT $L199805
$L199804:
  00059	8b f4		 mov	 esi, esp
  0005b	8b 4d f4	 mov	 ecx, DWORD PTR __lpw$[ebp]
  0005e	51		 push	 ecx
  0005f	ff 15 00 00 00
	00		 call	 DWORD PTR __imp__lstrlenW@4
  00065	3b f4		 cmp	 esi, esp
  00067	e8 00 00 00 00	 call	 __RTC_CheckEsp
  0006c	8d 54 00 02	 lea	 edx, DWORD PTR [eax+eax+2]
  00070	89 55 fc	 mov	 DWORD PTR __convert$[ebp], edx
  00073	8b 45 fc	 mov	 eax, DWORD PTR __convert$[ebp]
  00076	83 c0 03	 add	 eax, 3
  00079	83 e0 fc	 and	 eax, -4			; fffffffcH
  0007c	e8 00 00 00 00	 call	 __alloca_probe
  00081	89 65 e4	 mov	 DWORD PTR tv75[ebp], esp
  00084	8b 45 f8	 mov	 eax, DWORD PTR __acp$[ebp]
  00087	50		 push	 eax
  00088	8b 4d fc	 mov	 ecx, DWORD PTR __convert$[ebp]
  0008b	51		 push	 ecx
  0008c	8b 55 f4	 mov	 edx, DWORD PTR __lpw$[ebp]
  0008f	52		 push	 edx
  00090	8b 45 e4	 mov	 eax, DWORD PTR tv75[ebp]
  00093	50		 push	 eax
  00094	e8 00 00 00 00	 call	 ?AtlW2AHelper@@YGPADPADPB_WHI@Z ; AtlW2AHelper
  00099	89 45 e8	 mov	 DWORD PTR tv78[ebp], eax
$L199805:
  0009c	8b 4d e8	 mov	 ecx, DWORD PTR tv78[ebp]
  0009f	89 4d ec	 mov	 DWORD PTR _pszA$[ebp], ecx

; 266  : 	::CharLowerA(pszA);

  000a2	8b f4		 mov	 esi, esp
  000a4	8b 55 ec	 mov	 edx, DWORD PTR _pszA$[ebp]
  000a7	52		 push	 edx
  000a8	ff 15 00 00 00
	00		 call	 DWORD PTR __imp__CharLowerA@4
  000ae	3b f4		 cmp	 esi, esp
  000b0	e8 00 00 00 00	 call	 __RTC_CheckEsp

; 267  : 	wcscpy(psz, A2W(pszA));

  000b5	8b 45 ec	 mov	 eax, DWORD PTR _pszA$[ebp]
  000b8	89 45 f0	 mov	 DWORD PTR __lpa$[ebp], eax
  000bb	83 7d f0 00	 cmp	 DWORD PTR __lpa$[ebp], 0
  000bf	75 09		 jne	 SHORT $L199806
  000c1	c7 45 e0 00 00
	00 00		 mov	 DWORD PTR tv94[ebp], 0
  000c8	eb 44		 jmp	 SHORT $L199807
$L199806:
  000ca	8b f4		 mov	 esi, esp
  000cc	8b 4d f0	 mov	 ecx, DWORD PTR __lpa$[ebp]
  000cf	51		 push	 ecx
  000d0	ff 15 00 00 00
	00		 call	 DWORD PTR __imp__lstrlenA@4
  000d6	3b f4		 cmp	 esi, esp
  000d8	e8 00 00 00 00	 call	 __RTC_CheckEsp
  000dd	83 c0 01	 add	 eax, 1
  000e0	89 45 fc	 mov	 DWORD PTR __convert$[ebp], eax
  000e3	8b 45 fc	 mov	 eax, DWORD PTR __convert$[ebp]
  000e6	d1 e0		 shl	 eax, 1
  000e8	83 c0 03	 add	 eax, 3
  000eb	83 e0 fc	 and	 eax, -4			; fffffffcH
  000ee	e8 00 00 00 00	 call	 __alloca_probe
  000f3	89 65 dc	 mov	 DWORD PTR tv90[ebp], esp
  000f6	8b 55 f8	 mov	 edx, DWORD PTR __acp$[ebp]
  000f9	52		 push	 edx
  000fa	8b 45 fc	 mov	 eax, DWORD PTR __convert$[ebp]
  000fd	50		 push	 eax
  000fe	8b 4d f0	 mov	 ecx, DWORD PTR __lpa$[ebp]
  00101	51		 push	 ecx
  00102	8b 55 dc	 mov	 edx, DWORD PTR tv90[ebp]
  00105	52		 push	 edx
  00106	e8 00 00 00 00	 call	 ?AtlA2WHelper@@YGPA_WPA_WPBDHI@Z ; AtlA2WHelper
  0010b	89 45 e0	 mov	 DWORD PTR tv94[ebp], eax
$L199807:
  0010e	8b f4		 mov	 esi, esp
  00110	8b 45 e0	 mov	 eax, DWORD PTR tv94[ebp]
  00113	50		 push	 eax
  00114	8b 4d 08	 mov	 ecx, DWORD PTR _psz$[ebp]
  00117	51		 push	 ecx
  00118	ff 15 00 00 00
	00		 call	 DWORD PTR __imp__wcscpy
  0011e	83 c4 08	 add	 esp, 8
  00121	3b f4		 cmp	 esi, esp
  00123	e8 00 00 00 00	 call	 __RTC_CheckEsp

; 268  : 
; 269  : 	return psz;

  00128	8b 45 08	 mov	 eax, DWORD PTR _psz$[ebp]

; 270  : }

  0012b	8d 65 d8	 lea	 esp, DWORD PTR [ebp-40]
  0012e	5e		 pop	 esi
  0012f	8b e5		 mov	 esp, ebp
  00131	5d		 pop	 ebp
  00132	c2 04 00	 ret	 4
?CharLowerWFake@ATL@@YGPA_WPA_W@Z ENDP			; ATL::CharLowerWFake
; Function compile flags: /Odt /RTCsu
; File d:\program files (x86)\microsoft visual studio .net 2003\vc7\atlmfc\include\atlconv.h
_TEXT	ENDS
;	COMDAT ?AtlA2WHelper@@YGPA_WPA_WPBDHI@Z
_TEXT	SEGMENT
_ret$ = -4						; size = 4
_lpw$ = 8						; size = 4
_lpa$ = 12						; size = 4
_nChars$ = 16						; size = 4
_acp$ = 20						; size = 4
?AtlA2WHelper@@YGPA_WPA_WPBDHI@Z PROC NEAR		; AtlA2WHelper, COMDAT

; 554  : {

  00000	55		 push	 ebp
  00001	8b ec		 mov	 ebp, esp
  00003	51		 push	 ecx
  00004	56		 push	 esi
  00005	c7 45 fc cc cc
	cc cc		 mov	 DWORD PTR [ebp-4], -858993460 ; ccccccccH

; 555  : 	ATLASSERT(lpa != NULL);

  0000c	83 7d 0c 00	 cmp	 DWORD PTR _lpa$[ebp], 0
  00010	75 2b		 jne	 SHORT $L199809
  00012	8b f4		 mov	 esi, esp
  00014	68 00 00 00 00	 push	 OFFSET FLAT:??_C@_08DMHHBMMN@lpa?5?$CB?$DN?50?$AA@
  00019	6a 00		 push	 0
  0001b	68 2b 02 00 00	 push	 555			; 0000022bH
  00020	68 00 00 00 00	 push	 OFFSET FLAT:??_C@_0FG@PFHCBDBK@D?3?2Program?5Files?5?$CIx86?$CJ?2Microsoft@
  00025	6a 02		 push	 2
  00027	ff 15 00 00 00
	00		 call	 DWORD PTR __imp___CrtDbgReport
  0002d	83 c4 14	 add	 esp, 20			; 00000014H
  00030	3b f4		 cmp	 esi, esp
  00032	e8 00 00 00 00	 call	 __RTC_CheckEsp
  00037	83 f8 01	 cmp	 eax, 1
  0003a	75 01		 jne	 SHORT $L199809
  0003c	cc		 int	 3
$L199809:

; 556  : 	ATLASSERT(lpw != NULL);

  0003d	83 7d 08 00	 cmp	 DWORD PTR _lpw$[ebp], 0
  00041	75 2b		 jne	 SHORT $L199810
  00043	8b f4		 mov	 esi, esp
  00045	68 00 00 00 00	 push	 OFFSET FLAT:??_C@_08DIHJLFDJ@lpw?5?$CB?$DN?50?$AA@
  0004a	6a 00		 push	 0
  0004c	68 2c 02 00 00	 push	 556			; 0000022cH
  00051	68 00 00 00 00	 push	 OFFSET FLAT:??_C@_0FG@PFHCBDBK@D?3?2Program?5Files?5?$CIx86?$CJ?2Microsoft@
  00056	6a 02		 push	 2
  00058	ff 15 00 00 00
	00		 call	 DWORD PTR __imp___CrtDbgReport
  0005e	83 c4 14	 add	 esp, 20			; 00000014H
  00061	3b f4		 cmp	 esi, esp
  00063	e8 00 00 00 00	 call	 __RTC_CheckEsp
  00068	83 f8 01	 cmp	 eax, 1
  0006b	75 01		 jne	 SHORT $L199810
  0006d	cc		 int	 3
$L199810:

; 557  : 	if (lpw == NULL || lpa == NULL)

  0006e	83 7d 08 00	 cmp	 DWORD PTR _lpw$[ebp], 0
  00072	74 06		 je	 SHORT $L24299
  00074	83 7d 0c 00	 cmp	 DWORD PTR _lpa$[ebp], 0
  00078	75 04		 jne	 SHORT $L24298
$L24299:

; 558  : 		return NULL;

  0007a	33 c0		 xor	 eax, eax
  0007c	eb 6a		 jmp	 SHORT $L24292
$L24298:

; 559  : 	// verify that no illegal character present
; 560  : 	// since lpw was allocated based on the size of lpa
; 561  : 	// don't worry about the number of chars
; 562  : 	lpw[0] = '\0';

  0007e	8b 55 08	 mov	 edx, DWORD PTR _lpw$[ebp]
  00081	66 c7 02 00 00	 mov	 WORD PTR [edx], 0

; 563  : 	int ret = MultiByteToWideChar(acp, 0, lpa, -1, lpw, nChars);

  00086	8b f4		 mov	 esi, esp
  00088	8b 45 10	 mov	 eax, DWORD PTR _nChars$[ebp]
  0008b	50		 push	 eax
  0008c	8b 4d 08	 mov	 ecx, DWORD PTR _lpw$[ebp]
  0008f	51		 push	 ecx
  00090	6a ff		 push	 -1
  00092	8b 55 0c	 mov	 edx, DWORD PTR _lpa$[ebp]
  00095	52		 push	 edx
  00096	6a 00		 push	 0
  00098	8b 45 14	 mov	 eax, DWORD PTR _acp$[ebp]
  0009b	50		 push	 eax
  0009c	ff 15 00 00 00
	00		 call	 DWORD PTR __imp__MultiByteToWideChar@24
  000a2	3b f4		 cmp	 esi, esp
  000a4	e8 00 00 00 00	 call	 __RTC_CheckEsp
  000a9	89 45 fc	 mov	 DWORD PTR _ret$[ebp], eax

; 564  : 	if(ret == 0)

  000ac	83 7d fc 00	 cmp	 DWORD PTR _ret$[ebp], 0
  000b0	75 33		 jne	 SHORT $L24301

; 565  : 	{
; 566  : 		ATLASSERT(FALSE);

  000b2	33 c9		 xor	 ecx, ecx
  000b4	75 2b		 jne	 SHORT $L199811
  000b6	8b f4		 mov	 esi, esp
  000b8	68 00 00 00 00	 push	 OFFSET FLAT:??_C@_01GBGANLPD@0?$AA@
  000bd	6a 00		 push	 0
  000bf	68 36 02 00 00	 push	 566			; 00000236H
  000c4	68 00 00 00 00	 push	 OFFSET FLAT:??_C@_0FG@PFHCBDBK@D?3?2Program?5Files?5?$CIx86?$CJ?2Microsoft@
  000c9	6a 02		 push	 2
  000cb	ff 15 00 00 00
	00		 call	 DWORD PTR __imp___CrtDbgReport
  000d1	83 c4 14	 add	 esp, 20			; 00000014H
  000d4	3b f4		 cmp	 esi, esp
  000d6	e8 00 00 00 00	 call	 __RTC_CheckEsp
  000db	83 f8 01	 cmp	 eax, 1
  000de	75 01		 jne	 SHORT $L199811
  000e0	cc		 int	 3
$L199811:

; 567  : 		return NULL;

  000e1	33 c0		 xor	 eax, eax
  000e3	eb 03		 jmp	 SHORT $L24292
$L24301:

; 568  : 	}		
; 569  : 	return lpw;

  000e5	8b 45 08	 mov	 eax, DWORD PTR _lpw$[ebp]
$L24292:

; 570  : }

  000e8	5e		 pop	 esi
  000e9	83 c4 04	 add	 esp, 4
  000ec	3b ec		 cmp	 ebp, esp
  000ee	e8 00 00 00 00	 call	 __RTC_CheckEsp
  000f3	8b e5		 mov	 esp, ebp
  000f5	5d		 pop	 ebp
  000f6	c2 10 00	 ret	 16			; 00000010H
?AtlA2WHelper@@YGPA_WPA_WPBDHI@Z ENDP			; AtlA2WHelper
_TEXT	ENDS
PUBLIC	?CharUpperWFake@ATL@@YGPA_WPA_W@Z		; ATL::CharUpperWFake
EXTRN	__imp__CharUpperW@4:NEAR
; Function compile flags: /Odt /RTCsu
; File d:\program files (x86)\microsoft visual studio .net 2003\vc7\atlmfc\include\cstringt.h
;	COMDAT ?CharUpperWThunk@ATL@@YGPA_WPA_W@Z
_TEXT	SEGMENT
_psz$ = 8						; size = 4
?CharUpperWThunk@ATL@@YGPA_WPA_W@Z PROC NEAR		; ATL::CharUpperWThunk, COMDAT

; 292  : {

  00000	55		 push	 ebp
  00001	8b ec		 mov	 ebp, esp
  00003	56		 push	 esi

; 293  : 	_AtlInstallStringThunk(reinterpret_cast<void**>(&_strthunks.pfnCharUpperW), CharUpperWFake, ::CharUpperW);

  00004	a1 00 00 00 00	 mov	 eax, DWORD PTR __imp__CharUpperW@4
  00009	50		 push	 eax
  0000a	68 00 00 00 00	 push	 OFFSET FLAT:?CharUpperWFake@ATL@@YGPA_WPA_W@Z ; ATL::CharUpperWFake
  0000f	68 10 00 00 00	 push	 OFFSET FLAT:?_strthunks@ATL@@3U_AtlStringThunks@1@A+16
  00014	e8 00 00 00 00	 call	 ?_AtlInstallStringThunk@ATL@@YAXPAPAXPAX1@Z ; ATL::_AtlInstallStringThunk
  00019	83 c4 0c	 add	 esp, 12			; 0000000cH

; 294  : 
; 295  : 	return _strthunks.pfnCharUpperW(psz);

  0001c	8b f4		 mov	 esi, esp
  0001e	8b 4d 08	 mov	 ecx, DWORD PTR _psz$[ebp]
  00021	51		 push	 ecx
  00022	ff 15 10 00 00
	00		 call	 DWORD PTR ?_strthunks@ATL@@3U_AtlStringThunks@1@A+16
  00028	3b f4		 cmp	 esi, esp
  0002a	e8 00 00 00 00	 call	 __RTC_CheckEsp

; 296  : }

  0002f	5e		 pop	 esi
  00030	3b ec		 cmp	 ebp, esp
  00032	e8 00 00 00 00	 call	 __RTC_CheckEsp
  00037	5d		 pop	 ebp
  00038	c2 04 00	 ret	 4
?CharUpperWThunk@ATL@@YGPA_WPA_W@Z ENDP			; ATL::CharUpperWThunk
_TEXT	ENDS
EXTRN	__imp__CharUpperA@4:NEAR
; Function compile flags: /Odt /RTCsu
;	COMDAT ?CharUpperWFake@ATL@@YGPA_WPA_W@Z
_TEXT	SEGMENT
tv90 = -36						; size = 4
tv94 = -32						; size = 4
tv75 = -28						; size = 4
tv78 = -24						; size = 4
_pszA$ = -20						; size = 4
__lpa$ = -16						; size = 4
__lpw$ = -12						; size = 4
__acp$ = -8						; size = 4
__convert$ = -4						; size = 4
_psz$ = 8						; size = 4
?CharUpperWFake@ATL@@YGPA_WPA_W@Z PROC NEAR		; ATL::CharUpperWFake, COMDAT

; 280  : {

  00000	55		 push	 ebp
  00001	8b ec		 mov	 ebp, esp
  00003	83 ec 24	 sub	 esp, 36			; 00000024H
  00006	56		 push	 esi
  00007	b8 cc cc cc cc	 mov	 eax, -858993460		; ccccccccH
  0000c	89 45 dc	 mov	 DWORD PTR [ebp-36], eax
  0000f	89 45 e0	 mov	 DWORD PTR [ebp-32], eax
  00012	89 45 e4	 mov	 DWORD PTR [ebp-28], eax
  00015	89 45 e8	 mov	 DWORD PTR [ebp-24], eax
  00018	89 45 ec	 mov	 DWORD PTR [ebp-20], eax
  0001b	89 45 f0	 mov	 DWORD PTR [ebp-16], eax
  0001e	89 45 f4	 mov	 DWORD PTR [ebp-12], eax
  00021	89 45 f8	 mov	 DWORD PTR [ebp-8], eax
  00024	89 45 fc	 mov	 DWORD PTR [ebp-4], eax

; 281  : 	USES_CONVERSION;

  00027	c7 45 fc 00 00
	00 00		 mov	 DWORD PTR __convert$[ebp], 0
  0002e	e8 00 00 00 00	 call	 ?_AtlGetConversionACP@ATL@@YGIXZ ; ATL::_AtlGetConversionACP
  00033	89 45 f8	 mov	 DWORD PTR __acp$[ebp], eax
  00036	c7 45 f4 00 00
	00 00		 mov	 DWORD PTR __lpw$[ebp], 0
  0003d	c7 45 f0 00 00
	00 00		 mov	 DWORD PTR __lpa$[ebp], 0

; 282  : 	LPSTR pszA;
; 283  : 
; 284  : 	pszA = W2A(psz);

  00044	8b 45 08	 mov	 eax, DWORD PTR _psz$[ebp]
  00047	89 45 f4	 mov	 DWORD PTR __lpw$[ebp], eax
  0004a	83 7d f4 00	 cmp	 DWORD PTR __lpw$[ebp], 0
  0004e	75 09		 jne	 SHORT $L199814
  00050	c7 45 e8 00 00
	00 00		 mov	 DWORD PTR tv78[ebp], 0
  00057	eb 43		 jmp	 SHORT $L199815
$L199814:
  00059	8b f4		 mov	 esi, esp
  0005b	8b 4d f4	 mov	 ecx, DWORD PTR __lpw$[ebp]
  0005e	51		 push	 ecx
  0005f	ff 15 00 00 00
	00		 call	 DWORD PTR __imp__lstrlenW@4
  00065	3b f4		 cmp	 esi, esp
  00067	e8 00 00 00 00	 call	 __RTC_CheckEsp
  0006c	8d 54 00 02	 lea	 edx, DWORD PTR [eax+eax+2]
  00070	89 55 fc	 mov	 DWORD PTR __convert$[ebp], edx
  00073	8b 45 fc	 mov	 eax, DWORD PTR __convert$[ebp]
  00076	83 c0 03	 add	 eax, 3
  00079	83 e0 fc	 and	 eax, -4			; fffffffcH
  0007c	e8 00 00 00 00	 call	 __alloca_probe
  00081	89 65 e4	 mov	 DWORD PTR tv75[ebp], esp
  00084	8b 45 f8	 mov	 eax, DWORD PTR __acp$[ebp]
  00087	50		 push	 eax
  00088	8b 4d fc	 mov	 ecx, DWORD PTR __convert$[ebp]
  0008b	51		 push	 ecx
  0008c	8b 55 f4	 mov	 edx, DWORD PTR __lpw$[ebp]
  0008f	52		 push	 edx
  00090	8b 45 e4	 mov	 eax, DWORD PTR tv75[ebp]
  00093	50		 push	 eax
  00094	e8 00 00 00 00	 call	 ?AtlW2AHelper@@YGPADPADPB_WHI@Z ; AtlW2AHelper
  00099	89 45 e8	 mov	 DWORD PTR tv78[ebp], eax
$L199815:
  0009c	8b 4d e8	 mov	 ecx, DWORD PTR tv78[ebp]
  0009f	89 4d ec	 mov	 DWORD PTR _pszA$[ebp], ecx

; 285  : 	::CharUpperA(pszA);

  000a2	8b f4		 mov	 esi, esp
  000a4	8b 55 ec	 mov	 edx, DWORD PTR _pszA$[ebp]
  000a7	52		 push	 edx
  000a8	ff 15 00 00 00
	00		 call	 DWORD PTR __imp__CharUpperA@4
  000ae	3b f4		 cmp	 esi, esp
  000b0	e8 00 00 00 00	 call	 __RTC_CheckEsp

; 286  : 	wcscpy(psz, A2W(pszA));

  000b5	8b 45 ec	 mov	 eax, DWORD PTR _pszA$[ebp]
  000b8	89 45 f0	 mov	 DWORD PTR __lpa$[ebp], eax
  000bb	83 7d f0 00	 cmp	 DWORD PTR __lpa$[ebp], 0
  000bf	75 09		 jne	 SHORT $L199816
  000c1	c7 45 e0 00 00
	00 00		 mov	 DWORD PTR tv94[ebp], 0
  000c8	eb 44		 jmp	 SHORT $L199817
$L199816:
  000ca	8b f4		 mov	 esi, esp
  000cc	8b 4d f0	 mov	 ecx, DWORD PTR __lpa$[ebp]
  000cf	51		 push	 ecx
  000d0	ff 15 00 00 00
	00		 call	 DWORD PTR __imp__lstrlenA@4
  000d6	3b f4		 cmp	 esi, esp
  000d8	e8 00 00 00 00	 call	 __RTC_CheckEsp
  000dd	83 c0 01	 add	 eax, 1
  000e0	89 45 fc	 mov	 DWORD PTR __convert$[ebp], eax
  000e3	8b 45 fc	 mov	 eax, DWORD PTR __convert$[ebp]
  000e6	d1 e0		 shl	 eax, 1
  000e8	83 c0 03	 add	 eax, 3
  000eb	83 e0 fc	 and	 eax, -4			; fffffffcH
  000ee	e8 00 00 00 00	 call	 __alloca_probe
  000f3	89 65 dc	 mov	 DWORD PTR tv90[ebp], esp
  000f6	8b 55 f8	 mov	 edx, DWORD PTR __acp$[ebp]
  000f9	52		 push	 edx
  000fa	8b 45 fc	 mov	 eax, DWORD PTR __convert$[ebp]
  000fd	50		 push	 eax
  000fe	8b 4d f0	 mov	 ecx, DWORD PTR __lpa$[ebp]
  00101	51		 push	 ecx
  00102	8b 55 dc	 mov	 edx, DWORD PTR tv90[ebp]
  00105	52		 push	 edx
  00106	e8 00 00 00 00	 call	 ?AtlA2WHelper@@YGPA_WPA_WPBDHI@Z ; AtlA2WHelper
  0010b	89 45 e0	 mov	 DWORD PTR tv94[ebp], eax
$L199817:
  0010e	8b f4		 mov	 esi, esp
  00110	8b 45 e0	 mov	 eax, DWORD PTR tv94[ebp]
  00113	50		 push	 eax
  00114	8b 4d 08	 mov	 ecx, DWORD PTR _psz$[ebp]
  00117	51		 push	 ecx
  00118	ff 15 00 00 00
	00		 call	 DWORD PTR __imp__wcscpy
  0011e	83 c4 08	 add	 esp, 8
  00121	3b f4		 cmp	 esi, esp
  00123	e8 00 00 00 00	 call	 __RTC_CheckEsp

; 287  : 
; 288  : 	return psz;

  00128	8b 45 08	 mov	 eax, DWORD PTR _psz$[ebp]

; 289  : }

  0012b	8d 65 d8	 lea	 esp, DWORD PTR [ebp-40]
  0012e	5e		 pop	 esi
  0012f	8b e5		 mov	 esp, ebp
  00131	5d		 pop	 ebp
  00132	c2 04 00	 ret	 4
?CharUpperWFake@ATL@@YGPA_WPA_W@Z ENDP			; ATL::CharUpperWFake
_TEXT	ENDS
EXTRN	__imp__SetWindowRgn@12:NEAR
EXTRN	?GetDC@CWnd@@QAEPAVCDC@@XZ:NEAR			; CWnd::GetDC
EXTRN	?ReleaseDC@CWnd@@QAEHPAVCDC@@@Z:NEAR		; CWnd::ReleaseDC
xdata$x	SEGMENT
$T199827 DD	0ffffffffH
	DD	FLAT:$L199819
	DD	00H
	DD	FLAT:$L199820
$T199822 DD	019930520H
	DD	02H
	DD	FLAT:$T199827
	DD	2 DUP(00H)
	DD	2 DUP(00H)
; Function compile flags: /Odt /RTCsu
; File d:\boxgit\playbox\playbox\dev\prj\playbox\playboxdlg.cpp
xdata$x	ENDS
_TEXT	SEGMENT
tv146 = -80						; size = 4
tv141 = -76						; size = 4
tv92 = -72						; size = 4
tv87 = -68						; size = 4
tv76 = -64						; size = 4
_hrgn$197501 = -60					; size = 4
_dc$197500 = -56					; size = 4
_count$197499 = -52					; size = 4
_rc$ = -44						; size = 16
_cy$ = -24						; size = 4
_cx$ = -20						; size = 4
_this$ = -16						; size = 4
__$EHRec$ = -12						; size = 12
_oldSkinPath$ = 8					; size = 28
_newSkinPath$ = 36					; size = 28
?ILayoutChangeOb_SkinChanged@CPlayBoxDlg@@UAEXV?$basic_string@DU?$char_traits@D@std@@V?$allocator@D@2@@std@@0@Z PROC NEAR ; CPlayBoxDlg::ILayoutChangeOb_SkinChanged
; _this$ = ecx

; 521  : {

  018b0	55		 push	 ebp
  018b1	8b ec		 mov	 ebp, esp
  018b3	6a ff		 push	 -1
  018b5	68 00 00 00 00	 push	 __ehhandler$?ILayoutChangeOb_SkinChanged@CPlayBoxDlg@@UAEXV?$basic_string@DU?$char_traits@D@std@@V?$allocator@D@2@@std@@0@Z
  018ba	64 a1 00 00 00
	00		 mov	 eax, DWORD PTR fs:__except_list
  018c0	50		 push	 eax
  018c1	64 89 25 00 00
	00 00		 mov	 DWORD PTR fs:__except_list, esp
  018c8	83 ec 44	 sub	 esp, 68			; 00000044H
  018cb	56		 push	 esi
  018cc	57		 push	 edi
  018cd	51		 push	 ecx
  018ce	8d 7d b0	 lea	 edi, DWORD PTR [ebp-80]
  018d1	b9 11 00 00 00	 mov	 ecx, 17			; 00000011H
  018d6	b8 cc cc cc cc	 mov	 eax, -858993460		; ccccccccH
  018db	f3 ab		 rep stosd
  018dd	59		 pop	 ecx
  018de	89 4d f0	 mov	 DWORD PTR _this$[ebp], ecx
  018e1	c7 45 fc 01 00
	00 00		 mov	 DWORD PTR __$EHRec$[ebp+8], 1

; 522  : 	int cx, cy;
; 523  : 
; 524  : 	CRect rc;

  018e8	8d 4d d4	 lea	 ecx, DWORD PTR _rc$[ebp]
  018eb	e8 00 00 00 00	 call	 ??0CRect@@QAE@XZ	; CRect::CRect

; 525  : 
; 526  : 	this->GetWindowRect(&rc);

  018f0	8d 45 d4	 lea	 eax, DWORD PTR _rc$[ebp]
  018f3	50		 push	 eax
  018f4	8b 4d f0	 mov	 ecx, DWORD PTR _this$[ebp]
  018f7	83 e9 78	 sub	 ecx, 120		; 00000078H
  018fa	e8 00 00 00 00	 call	 ?GetWindowRect@CWnd@@QBEXPAUtagRECT@@@Z ; CWnd::GetWindowRect

; 527  : 	cx = rc.Width(); 

  018ff	8d 4d d4	 lea	 ecx, DWORD PTR _rc$[ebp]
  01902	e8 00 00 00 00	 call	 ?Width@CRect@@QBEHXZ	; CRect::Width
  01907	89 45 ec	 mov	 DWORD PTR _cx$[ebp], eax

; 528  : 	cy = rc.Height();

  0190a	8d 4d d4	 lea	 ecx, DWORD PTR _rc$[ebp]
  0190d	e8 00 00 00 00	 call	 ?Height@CRect@@QBEHXZ	; CRect::Height
  01912	89 45 e8	 mov	 DWORD PTR _cy$[ebp], eax

; 529  : 
; 530  : 	if( AfxGetUIManager()->UIGetLayoutMgr() != NULL )

  01915	e8 00 00 00 00	 call	 ?AfxGetUIManager@@YAPAVIUIManager@@XZ ; AfxGetUIManager
  0191a	89 45 c0	 mov	 DWORD PTR tv76[ebp], eax
  0191d	8b 4d c0	 mov	 ecx, DWORD PTR tv76[ebp]
  01920	8b 11		 mov	 edx, DWORD PTR [ecx]
  01922	8b f4		 mov	 esi, esp
  01924	8b 4d c0	 mov	 ecx, DWORD PTR tv76[ebp]
  01927	ff 52 24	 call	 DWORD PTR [edx+36]
  0192a	3b f4		 cmp	 esi, esp
  0192c	e8 00 00 00 00	 call	 __RTC_CheckEsp
  01931	85 c0		 test	 eax, eax
  01933	0f 84 c7 00 00
	00		 je	 $L197498

; 531  : 	{
; 532  : 		DWORD count = ::GetTickCount();

  01939	8b f4		 mov	 esi, esp
  0193b	ff 15 00 00 00
	00		 call	 DWORD PTR __imp__GetTickCount@0
  01941	3b f4		 cmp	 esi, esp
  01943	e8 00 00 00 00	 call	 __RTC_CheckEsp
  01948	89 45 cc	 mov	 DWORD PTR _count$197499[ebp], eax

; 533  : 		CDC* dc = GetDC();

  0194b	8b 4d f0	 mov	 ecx, DWORD PTR _this$[ebp]
  0194e	83 e9 78	 sub	 ecx, 120		; 00000078H
  01951	e8 00 00 00 00	 call	 ?GetDC@CWnd@@QAEPAVCDC@@XZ ; CWnd::GetDC
  01956	89 45 c8	 mov	 DWORD PTR _dc$197500[ebp], eax

; 534  : 		HRGN hrgn = AfxGetUIManager()->UIGetSkinMgr()->GetFrameRGN(cx, cy , dc);

  01959	e8 00 00 00 00	 call	 ?AfxGetUIManager@@YAPAVIUIManager@@XZ ; AfxGetUIManager
  0195e	89 45 bc	 mov	 DWORD PTR tv87[ebp], eax
  01961	8b f4		 mov	 esi, esp
  01963	8b 45 bc	 mov	 eax, DWORD PTR tv87[ebp]
  01966	8b 10		 mov	 edx, DWORD PTR [eax]
  01968	8b 4d bc	 mov	 ecx, DWORD PTR tv87[ebp]
  0196b	ff 52 28	 call	 DWORD PTR [edx+40]
  0196e	3b f4		 cmp	 esi, esp
  01970	e8 00 00 00 00	 call	 __RTC_CheckEsp
  01975	89 45 b8	 mov	 DWORD PTR tv92[ebp], eax
  01978	8b f4		 mov	 esi, esp
  0197a	8b 45 c8	 mov	 eax, DWORD PTR _dc$197500[ebp]
  0197d	50		 push	 eax
  0197e	8b 4d e8	 mov	 ecx, DWORD PTR _cy$[ebp]
  01981	51		 push	 ecx
  01982	8b 55 ec	 mov	 edx, DWORD PTR _cx$[ebp]
  01985	52		 push	 edx
  01986	8b 45 b8	 mov	 eax, DWORD PTR tv92[ebp]
  01989	8b 10		 mov	 edx, DWORD PTR [eax]
  0198b	8b 4d b8	 mov	 ecx, DWORD PTR tv92[ebp]
  0198e	ff 52 1c	 call	 DWORD PTR [edx+28]
  01991	3b f4		 cmp	 esi, esp
  01993	e8 00 00 00 00	 call	 __RTC_CheckEsp
  01998	89 45 c4	 mov	 DWORD PTR _hrgn$197501[ebp], eax

; 535  : 		ReleaseDC(dc);

  0199b	8b 45 c8	 mov	 eax, DWORD PTR _dc$197500[ebp]
  0199e	50		 push	 eax
  0199f	8b 4d f0	 mov	 ecx, DWORD PTR _this$[ebp]
  019a2	83 e9 78	 sub	 ecx, 120		; 00000078H
  019a5	e8 00 00 00 00	 call	 ?ReleaseDC@CWnd@@QAEHPAVCDC@@@Z ; CWnd::ReleaseDC

; 536  : 		::SetWindowRgn(this->m_hWnd, hrgn, true);

  019aa	8b f4		 mov	 esi, esp
  019ac	6a 01		 push	 1
  019ae	8b 4d c4	 mov	 ecx, DWORD PTR _hrgn$197501[ebp]
  019b1	51		 push	 ecx
  019b2	8b 55 f0	 mov	 edx, DWORD PTR _this$[ebp]
  019b5	8b 42 a8	 mov	 eax, DWORD PTR [edx-88]
  019b8	50		 push	 eax
  019b9	ff 15 00 00 00
	00		 call	 DWORD PTR __imp__SetWindowRgn@12
  019bf	3b f4		 cmp	 esi, esp
  019c1	e8 00 00 00 00	 call	 __RTC_CheckEsp

; 537  : 		AfxGetUIManager()->UIGetLayoutMgr()->UpdateLayout(this->m_hWnd);

  019c6	e8 00 00 00 00	 call	 ?AfxGetUIManager@@YAPAVIUIManager@@XZ ; AfxGetUIManager
  019cb	89 45 b4	 mov	 DWORD PTR tv141[ebp], eax
  019ce	8b f4		 mov	 esi, esp
  019d0	8b 4d b4	 mov	 ecx, DWORD PTR tv141[ebp]
  019d3	8b 11		 mov	 edx, DWORD PTR [ecx]
  019d5	8b 4d b4	 mov	 ecx, DWORD PTR tv141[ebp]
  019d8	ff 52 24	 call	 DWORD PTR [edx+36]
  019db	3b f4		 cmp	 esi, esp
  019dd	e8 00 00 00 00	 call	 __RTC_CheckEsp
  019e2	89 45 b0	 mov	 DWORD PTR tv146[ebp], eax
  019e5	8b f4		 mov	 esi, esp
  019e7	8b 45 f0	 mov	 eax, DWORD PTR _this$[ebp]
  019ea	8b 48 a8	 mov	 ecx, DWORD PTR [eax-88]
  019ed	51		 push	 ecx
  019ee	8b 55 b0	 mov	 edx, DWORD PTR tv146[ebp]
  019f1	8b 02		 mov	 eax, DWORD PTR [edx]
  019f3	8b 4d b0	 mov	 ecx, DWORD PTR tv146[ebp]
  019f6	ff 50 14	 call	 DWORD PTR [eax+20]
  019f9	3b f4		 cmp	 esi, esp
  019fb	e8 00 00 00 00	 call	 __RTC_CheckEsp
$L197498:

; 538  : 		//RedrawWindow(NULL, NULL, RDW_INVALIDATE | RDW_UPDATENOW | RDW_ERASE | RDW_ALLCHILDREN);
; 539  : 		// toppanle
; 540  : 	}
; 541  : }

  01a00	c6 45 fc 00	 mov	 BYTE PTR __$EHRec$[ebp+8], 0
  01a04	8b f4		 mov	 esi, esp
  01a06	8d 4d 08	 lea	 ecx, DWORD PTR _oldSkinPath$[ebp]
  01a09	ff 15 00 00 00
	00		 call	 DWORD PTR __imp_??1?$basic_string@DU?$char_traits@D@std@@V?$allocator@D@2@@std@@QAE@XZ
  01a0f	3b f4		 cmp	 esi, esp
  01a11	e8 00 00 00 00	 call	 __RTC_CheckEsp
  01a16	c7 45 fc ff ff
	ff ff		 mov	 DWORD PTR __$EHRec$[ebp+8], -1
  01a1d	8b f4		 mov	 esi, esp
  01a1f	8d 4d 24	 lea	 ecx, DWORD PTR _newSkinPath$[ebp]
  01a22	ff 15 00 00 00
	00		 call	 DWORD PTR __imp_??1?$basic_string@DU?$char_traits@D@std@@V?$allocator@D@2@@std@@QAE@XZ
  01a28	3b f4		 cmp	 esi, esp
  01a2a	e8 00 00 00 00	 call	 __RTC_CheckEsp
  01a2f	52		 push	 edx
  01a30	8b cd		 mov	 ecx, ebp
  01a32	50		 push	 eax
  01a33	8d 15 00 00 00
	00		 lea	 edx, DWORD PTR $L199826
  01a39	e8 00 00 00 00	 call	 @_RTC_CheckStackVars@8
  01a3e	58		 pop	 eax
  01a3f	5a		 pop	 edx
  01a40	8b 4d f4	 mov	 ecx, DWORD PTR __$EHRec$[ebp]
  01a43	64 89 0d 00 00
	00 00		 mov	 DWORD PTR fs:__except_list, ecx
  01a4a	5f		 pop	 edi
  01a4b	5e		 pop	 esi
  01a4c	83 c4 50	 add	 esp, 80			; 00000050H
  01a4f	3b ec		 cmp	 ebp, esp
  01a51	e8 00 00 00 00	 call	 __RTC_CheckEsp
  01a56	8b e5		 mov	 esp, ebp
  01a58	5d		 pop	 ebp
  01a59	c2 38 00	 ret	 56			; 00000038H
$L199826:
  01a5c	01 00 00 00	 DD	 1
  01a60	00 00 00 00	 DD	 $L199825
$L199825:
  01a64	d4 ff ff ff	 DD	 -44			; ffffffd4H
  01a68	10 00 00 00	 DD	 16			; 00000010H
  01a6c	00 00 00 00	 DD	 $L199823
$L199823:
  01a70	72		 DB	 114			; 00000072H
  01a71	63		 DB	 99			; 00000063H
  01a72	00		 DB	 0
_TEXT	ENDS
text$x	SEGMENT
$L199819:
  00227	8b f4		 mov	 esi, esp
  00229	8d 4d 24	 lea	 ecx, DWORD PTR _newSkinPath$[ebp]
  0022c	ff 15 00 00 00
	00		 call	 DWORD PTR __imp_??1?$basic_string@DU?$char_traits@D@std@@V?$allocator@D@2@@std@@QAE@XZ
  00232	3b f4		 cmp	 esi, esp
  00234	e9 00 00 00 00	 jmp	 __RTC_CheckEsp
$L199820:
  00239	8b f4		 mov	 esi, esp
  0023b	8d 4d 08	 lea	 ecx, DWORD PTR _oldSkinPath$[ebp]
  0023e	ff 15 00 00 00
	00		 call	 DWORD PTR __imp_??1?$basic_string@DU?$char_traits@D@std@@V?$allocator@D@2@@std@@QAE@XZ
  00244	3b f4		 cmp	 esi, esp
  00246	e9 00 00 00 00	 jmp	 __RTC_CheckEsp
__ehhandler$?ILayoutChangeOb_SkinChanged@CPlayBoxDlg@@UAEXV?$basic_string@DU?$char_traits@D@std@@V?$allocator@D@2@@std@@0@Z:
  0024b	b8 00 00 00 00	 mov	 eax, OFFSET FLAT:$T199822
  00250	e9 00 00 00 00	 jmp	 ___CxxFrameHandler
text$x	ENDS
?ILayoutChangeOb_SkinChanged@CPlayBoxDlg@@UAEXV?$basic_string@DU?$char_traits@D@std@@V?$allocator@D@2@@std@@0@Z ENDP ; CPlayBoxDlg::ILayoutChangeOb_SkinChanged
EXTRN	__imp__IsWindow@4:NEAR
EXTRN	?OnSize@CWnd@@IAEXIHH@Z:NEAR			; CWnd::OnSize
EXTRN	?OnSize@CIrregularBorderMgr@@QAEXXZ:NEAR	; CIrregularBorderMgr::OnSize
EXTRN	?RedrawWindow@CWnd@@QAEHPBUtagRECT@@PAVCRgn@@I@Z:NEAR ; CWnd::RedrawWindow
; Function compile flags: /Odt /RTCsu
_TEXT	SEGMENT
tv156 = -48						; size = 4
tv151 = -44						; size = 4
tv136 = -40						; size = 4
tv131 = -36						; size = 4
tv89 = -32						; size = 4
tv78 = -28						; size = 4
tv73 = -24						; size = 4
tv66 = -20						; size = 4
_hrgn$197512 = -16					; size = 4
_dc$197511 = -12					; size = 4
_count$197510 = -8					; size = 4
_this$ = -4						; size = 4
_nType$ = 8						; size = 4
_cx$ = 12						; size = 4
_cy$ = 16						; size = 4
?OnSize@CPlayBoxDlg@@IAEXIHH@Z PROC NEAR		; CPlayBoxDlg::OnSize
; _this$ = ecx

; 545  : {

  01a80	55		 push	 ebp
  01a81	8b ec		 mov	 ebp, esp
  01a83	83 ec 30	 sub	 esp, 48			; 00000030H
  01a86	56		 push	 esi
  01a87	57		 push	 edi
  01a88	51		 push	 ecx
  01a89	8d 7d d0	 lea	 edi, DWORD PTR [ebp-48]
  01a8c	b9 0c 00 00 00	 mov	 ecx, 12			; 0000000cH
  01a91	b8 cc cc cc cc	 mov	 eax, -858993460		; ccccccccH
  01a96	f3 ab		 rep stosd
  01a98	59		 pop	 ecx
  01a99	89 4d fc	 mov	 DWORD PTR _this$[ebp], ecx

; 546  : 	if(AfxGetUIManager()->UIGetLayoutMgr() != NULL &&AfxGetUIManager()->UIGetLayoutMgr()->GetDisplayMode() == DISPLAY_SEPERATE_MODE)

  01a9c	e8 00 00 00 00	 call	 ?AfxGetUIManager@@YAPAVIUIManager@@XZ ; AfxGetUIManager
  01aa1	89 45 ec	 mov	 DWORD PTR tv66[ebp], eax
  01aa4	8b 45 ec	 mov	 eax, DWORD PTR tv66[ebp]
  01aa7	8b 10		 mov	 edx, DWORD PTR [eax]
  01aa9	8b f4		 mov	 esi, esp
  01aab	8b 4d ec	 mov	 ecx, DWORD PTR tv66[ebp]
  01aae	ff 52 24	 call	 DWORD PTR [edx+36]
  01ab1	3b f4		 cmp	 esi, esp
  01ab3	e8 00 00 00 00	 call	 __RTC_CheckEsp
  01ab8	85 c0		 test	 eax, eax
  01aba	74 45		 je	 SHORT $L197508
  01abc	e8 00 00 00 00	 call	 ?AfxGetUIManager@@YAPAVIUIManager@@XZ ; AfxGetUIManager
  01ac1	89 45 e8	 mov	 DWORD PTR tv73[ebp], eax
  01ac4	8b 45 e8	 mov	 eax, DWORD PTR tv73[ebp]
  01ac7	8b 10		 mov	 edx, DWORD PTR [eax]
  01ac9	8b f4		 mov	 esi, esp
  01acb	8b 4d e8	 mov	 ecx, DWORD PTR tv73[ebp]
  01ace	ff 52 24	 call	 DWORD PTR [edx+36]
  01ad1	3b f4		 cmp	 esi, esp
  01ad3	e8 00 00 00 00	 call	 __RTC_CheckEsp
  01ad8	89 45 e4	 mov	 DWORD PTR tv78[ebp], eax
  01adb	8b 45 e4	 mov	 eax, DWORD PTR tv78[ebp]
  01ade	8b 10		 mov	 edx, DWORD PTR [eax]
  01ae0	8b f4		 mov	 esi, esp
  01ae2	8b 4d e4	 mov	 ecx, DWORD PTR tv78[ebp]
  01ae5	ff 52 7c	 call	 DWORD PTR [edx+124]
  01ae8	3b f4		 cmp	 esi, esp
  01aea	e8 00 00 00 00	 call	 __RTC_CheckEsp
  01aef	85 c0		 test	 eax, eax
  01af1	75 0e		 jne	 SHORT $L197508

; 547  : 	{
; 548  : 		cx = 0;

  01af3	c7 45 0c 00 00
	00 00		 mov	 DWORD PTR _cx$[ebp], 0

; 549  : 		cy = 0;

  01afa	c7 45 10 00 00
	00 00		 mov	 DWORD PTR _cy$[ebp], 0
$L197508:

; 550  : 	}
; 551  : 	__super::OnSize(nType, cx, cy);

  01b01	8b 45 10	 mov	 eax, DWORD PTR _cy$[ebp]
  01b04	50		 push	 eax
  01b05	8b 4d 0c	 mov	 ecx, DWORD PTR _cx$[ebp]
  01b08	51		 push	 ecx
  01b09	8b 55 08	 mov	 edx, DWORD PTR _nType$[ebp]
  01b0c	52		 push	 edx
  01b0d	8b 4d fc	 mov	 ecx, DWORD PTR _this$[ebp]
  01b10	e8 00 00 00 00	 call	 ?OnSize@CWnd@@IAEXIHH@Z	; CWnd::OnSize

; 552  : 	if( AfxGetUIManager()->UIGetLayoutMgr() != NULL )

  01b15	e8 00 00 00 00	 call	 ?AfxGetUIManager@@YAPAVIUIManager@@XZ ; AfxGetUIManager
  01b1a	89 45 e0	 mov	 DWORD PTR tv89[ebp], eax
  01b1d	8b 45 e0	 mov	 eax, DWORD PTR tv89[ebp]
  01b20	8b 10		 mov	 edx, DWORD PTR [eax]
  01b22	8b f4		 mov	 esi, esp
  01b24	8b 4d e0	 mov	 ecx, DWORD PTR tv89[ebp]
  01b27	ff 52 24	 call	 DWORD PTR [edx+36]
  01b2a	3b f4		 cmp	 esi, esp
  01b2c	e8 00 00 00 00	 call	 __RTC_CheckEsp
  01b31	85 c0		 test	 eax, eax
  01b33	0f 84 d2 00 00
	00		 je	 $L197509

; 553  : 	{
; 554  : 		DWORD count = ::GetTickCount();

  01b39	8b f4		 mov	 esi, esp
  01b3b	ff 15 00 00 00
	00		 call	 DWORD PTR __imp__GetTickCount@0
  01b41	3b f4		 cmp	 esi, esp
  01b43	e8 00 00 00 00	 call	 __RTC_CheckEsp
  01b48	89 45 f8	 mov	 DWORD PTR _count$197510[ebp], eax

; 555  : 		CDC* dc = GetDC();

  01b4b	8b 4d fc	 mov	 ecx, DWORD PTR _this$[ebp]
  01b4e	e8 00 00 00 00	 call	 ?GetDC@CWnd@@QAEPAVCDC@@XZ ; CWnd::GetDC
  01b53	89 45 f4	 mov	 DWORD PTR _dc$197511[ebp], eax

; 556  : 		HRGN hrgn = AfxGetUIManager()->UIGetSkinMgr()->GetFrameRGN(cx, cy , dc);

  01b56	e8 00 00 00 00	 call	 ?AfxGetUIManager@@YAPAVIUIManager@@XZ ; AfxGetUIManager
  01b5b	89 45 dc	 mov	 DWORD PTR tv131[ebp], eax
  01b5e	8b f4		 mov	 esi, esp
  01b60	8b 45 dc	 mov	 eax, DWORD PTR tv131[ebp]
  01b63	8b 10		 mov	 edx, DWORD PTR [eax]
  01b65	8b 4d dc	 mov	 ecx, DWORD PTR tv131[ebp]
  01b68	ff 52 28	 call	 DWORD PTR [edx+40]
  01b6b	3b f4		 cmp	 esi, esp
  01b6d	e8 00 00 00 00	 call	 __RTC_CheckEsp
  01b72	89 45 d8	 mov	 DWORD PTR tv136[ebp], eax
  01b75	8b f4		 mov	 esi, esp
  01b77	8b 45 f4	 mov	 eax, DWORD PTR _dc$197511[ebp]
  01b7a	50		 push	 eax
  01b7b	8b 4d 10	 mov	 ecx, DWORD PTR _cy$[ebp]
  01b7e	51		 push	 ecx
  01b7f	8b 55 0c	 mov	 edx, DWORD PTR _cx$[ebp]
  01b82	52		 push	 edx
  01b83	8b 45 d8	 mov	 eax, DWORD PTR tv136[ebp]
  01b86	8b 10		 mov	 edx, DWORD PTR [eax]
  01b88	8b 4d d8	 mov	 ecx, DWORD PTR tv136[ebp]
  01b8b	ff 52 1c	 call	 DWORD PTR [edx+28]
  01b8e	3b f4		 cmp	 esi, esp
  01b90	e8 00 00 00 00	 call	 __RTC_CheckEsp
  01b95	89 45 f0	 mov	 DWORD PTR _hrgn$197512[ebp], eax

; 557  : 		ReleaseDC(dc);

  01b98	8b 45 f4	 mov	 eax, DWORD PTR _dc$197511[ebp]
  01b9b	50		 push	 eax
  01b9c	8b 4d fc	 mov	 ecx, DWORD PTR _this$[ebp]
  01b9f	e8 00 00 00 00	 call	 ?ReleaseDC@CWnd@@QAEHPAVCDC@@@Z ; CWnd::ReleaseDC

; 558  : 		::SetWindowRgn(this->m_hWnd, hrgn, true);

  01ba4	8b f4		 mov	 esi, esp
  01ba6	6a 01		 push	 1
  01ba8	8b 4d f0	 mov	 ecx, DWORD PTR _hrgn$197512[ebp]
  01bab	51		 push	 ecx
  01bac	8b 55 fc	 mov	 edx, DWORD PTR _this$[ebp]
  01baf	8b 42 20	 mov	 eax, DWORD PTR [edx+32]
  01bb2	50		 push	 eax
  01bb3	ff 15 00 00 00
	00		 call	 DWORD PTR __imp__SetWindowRgn@12
  01bb9	3b f4		 cmp	 esi, esp
  01bbb	e8 00 00 00 00	 call	 __RTC_CheckEsp

; 559  : 		AfxGetUIManager()->UIGetLayoutMgr()->UpdateLayout(this->m_hWnd);

  01bc0	e8 00 00 00 00	 call	 ?AfxGetUIManager@@YAPAVIUIManager@@XZ ; AfxGetUIManager
  01bc5	89 45 d4	 mov	 DWORD PTR tv151[ebp], eax
  01bc8	8b f4		 mov	 esi, esp
  01bca	8b 4d d4	 mov	 ecx, DWORD PTR tv151[ebp]
  01bcd	8b 11		 mov	 edx, DWORD PTR [ecx]
  01bcf	8b 4d d4	 mov	 ecx, DWORD PTR tv151[ebp]
  01bd2	ff 52 24	 call	 DWORD PTR [edx+36]
  01bd5	3b f4		 cmp	 esi, esp
  01bd7	e8 00 00 00 00	 call	 __RTC_CheckEsp
  01bdc	89 45 d0	 mov	 DWORD PTR tv156[ebp], eax
  01bdf	8b f4		 mov	 esi, esp
  01be1	8b 45 fc	 mov	 eax, DWORD PTR _this$[ebp]
  01be4	8b 48 20	 mov	 ecx, DWORD PTR [eax+32]
  01be7	51		 push	 ecx
  01be8	8b 55 d0	 mov	 edx, DWORD PTR tv156[ebp]
  01beb	8b 02		 mov	 eax, DWORD PTR [edx]
  01bed	8b 4d d0	 mov	 ecx, DWORD PTR tv156[ebp]
  01bf0	ff 50 14	 call	 DWORD PTR [eax+20]
  01bf3	3b f4		 cmp	 esi, esp
  01bf5	e8 00 00 00 00	 call	 __RTC_CheckEsp

; 560  : 		RedrawWindow(NULL, NULL, RDW_INVALIDATE | RDW_UPDATENOW | RDW_ERASE | RDW_ALLCHILDREN);

  01bfa	68 85 01 00 00	 push	 389			; 00000185H
  01bff	6a 00		 push	 0
  01c01	6a 00		 push	 0
  01c03	8b 4d fc	 mov	 ecx, DWORD PTR _this$[ebp]
  01c06	e8 00 00 00 00	 call	 ?RedrawWindow@CWnd@@QAEHPBUtagRECT@@PAVCRgn@@I@Z ; CWnd::RedrawWindow
$L197509:

; 561  : 		//TRACE("update layout time: %d\n", ::GetTickCount() - count);
; 562  : 	}
; 563  : 	if(AfxGetMainWindow() != NULL && IsWindow(AfxGetMainWindow()->m_hWnd) && cx != 0 && cy != 0)

  01c0b	e8 00 00 00 00	 call	 ?AfxGetMainWindow@@YAPAVCWnd@@XZ ; AfxGetMainWindow
  01c10	85 c0		 test	 eax, eax
  01c12	74 34		 je	 SHORT $L197507
  01c14	e8 00 00 00 00	 call	 ?AfxGetMainWindow@@YAPAVCWnd@@XZ ; AfxGetMainWindow
  01c19	8b f4		 mov	 esi, esp
  01c1b	8b 48 20	 mov	 ecx, DWORD PTR [eax+32]
  01c1e	51		 push	 ecx
  01c1f	ff 15 00 00 00
	00		 call	 DWORD PTR __imp__IsWindow@4
  01c25	3b f4		 cmp	 esi, esp
  01c27	e8 00 00 00 00	 call	 __RTC_CheckEsp
  01c2c	85 c0		 test	 eax, eax
  01c2e	74 18		 je	 SHORT $L197507
  01c30	83 7d 0c 00	 cmp	 DWORD PTR _cx$[ebp], 0
  01c34	74 12		 je	 SHORT $L197507
  01c36	83 7d 10 00	 cmp	 DWORD PTR _cy$[ebp], 0
  01c3a	74 0c		 je	 SHORT $L197507

; 564  : 		CIrregularBorderMgr::GetInstance()->OnSize();

  01c3c	e8 00 00 00 00	 call	 ?GetInstance@CIrregularBorderMgr@@SAPAV1@XZ ; CIrregularBorderMgr::GetInstance
  01c41	8b c8		 mov	 ecx, eax
  01c43	e8 00 00 00 00	 call	 ?OnSize@CIrregularBorderMgr@@QAEXXZ ; CIrregularBorderMgr::OnSize
$L197507:

; 565  : }

  01c48	5f		 pop	 edi
  01c49	5e		 pop	 esi
  01c4a	83 c4 30	 add	 esp, 48			; 00000030H
  01c4d	3b ec		 cmp	 ebp, esp
  01c4f	e8 00 00 00 00	 call	 __RTC_CheckEsp
  01c54	8b e5		 mov	 esp, ebp
  01c56	5d		 pop	 ebp
  01c57	c2 0c 00	 ret	 12			; 0000000cH
?OnSize@CPlayBoxDlg@@IAEXIHH@Z ENDP			; CPlayBoxDlg::OnSize
_TEXT	ENDS
EXTRN	?PreTranslateMessage@CDialog@@UAEHPAUtagMSG@@@Z:NEAR ; CDialog::PreTranslateMessage
xdata$x	SEGMENT
$T199845 DD	0ffffffffH
	DD	FLAT:$L199836
	DD	00H
	DD	FLAT:$L199837
	DD	0ffffffffH
	DD	FLAT:$L199838
	DD	02H
	DD	FLAT:$L199839
	DD	0ffffffffH
	DD	FLAT:$L199840
	DD	04H
	DD	FLAT:$L199841
$T199843 DD	019930520H
	DD	06H
	DD	FLAT:$T199845
	DD	2 DUP(00H)
	DD	2 DUP(00H)
; Function compile flags: /Odt /RTCsu
xdata$x	ENDS
_TEXT	SEGMENT
tv180 = -216						; size = 4
tv139 = -212						; size = 4
tv133 = -208						; size = 4
tv93 = -204						; size = 4
tv87 = -200						; size = 4
$T199835 = -196						; size = 28
$T199834 = -168						; size = 28
$T199833 = -140						; size = 28
$T199832 = -112						; size = 28
$T199831 = -84						; size = 28
$T199830 = -56						; size = 28
_lParam$ = -28						; size = 4
_wParam$ = -24						; size = 4
_uMsg$ = -20						; size = 4
_this$ = -16						; size = 4
__$EHRec$ = -12						; size = 12
_pMsg$ = 8						; size = 4
?PreTranslateMessage@CPlayBoxDlg@@MAEHPAUtagMSG@@@Z PROC NEAR ; CPlayBoxDlg::PreTranslateMessage
; _this$ = ecx

; 568  : {

  01c60	55		 push	 ebp
  01c61	8b ec		 mov	 ebp, esp
  01c63	6a ff		 push	 -1
  01c65	68 00 00 00 00	 push	 __ehhandler$?PreTranslateMessage@CPlayBoxDlg@@MAEHPAUtagMSG@@@Z
  01c6a	64 a1 00 00 00
	00		 mov	 eax, DWORD PTR fs:__except_list
  01c70	50		 push	 eax
  01c71	64 89 25 00 00
	00 00		 mov	 DWORD PTR fs:__except_list, esp
  01c78	81 ec cc 00 00
	00		 sub	 esp, 204		; 000000ccH
  01c7e	56		 push	 esi
  01c7f	57		 push	 edi
  01c80	51		 push	 ecx
  01c81	8d bd 28 ff ff
	ff		 lea	 edi, DWORD PTR [ebp-216]
  01c87	b9 33 00 00 00	 mov	 ecx, 51			; 00000033H
  01c8c	b8 cc cc cc cc	 mov	 eax, -858993460		; ccccccccH
  01c91	f3 ab		 rep stosd
  01c93	59		 pop	 ecx
  01c94	89 4d f0	 mov	 DWORD PTR _this$[ebp], ecx

; 569  : 	UINT uMsg = pMsg->message;

  01c97	8b 45 08	 mov	 eax, DWORD PTR _pMsg$[ebp]
  01c9a	8b 48 04	 mov	 ecx, DWORD PTR [eax+4]
  01c9d	89 4d ec	 mov	 DWORD PTR _uMsg$[ebp], ecx

; 570  : 	WPARAM wParam = pMsg->wParam;

  01ca0	8b 55 08	 mov	 edx, DWORD PTR _pMsg$[ebp]
  01ca3	8b 42 08	 mov	 eax, DWORD PTR [edx+8]
  01ca6	89 45 e8	 mov	 DWORD PTR _wParam$[ebp], eax

; 571  : 	LPARAM lParam = pMsg->lParam;

  01ca9	8b 4d 08	 mov	 ecx, DWORD PTR _pMsg$[ebp]
  01cac	8b 51 0c	 mov	 edx, DWORD PTR [ecx+12]
  01caf	89 55 e4	 mov	 DWORD PTR _lParam$[ebp], edx

; 572  : 
; 573  : 	if( pMsg->message == WM_KEYDOWN )

  01cb2	8b 45 08	 mov	 eax, DWORD PTR _pMsg$[ebp]
  01cb5	81 78 04 00 01
	00 00		 cmp	 DWORD PTR [eax+4], 256	; 00000100H
  01cbc	0f 85 3c 01 00
	00		 jne	 $L197521

; 574  : 	{
; 575  : 		YL_Log("gameplay.txt", LOG_DEBUG, "CPlayBoxDlg::PreTranslateMessage", "message:%s-hwnd:%d", "WM_KEYDOWN", pMsg->hwnd);

  01cc2	8b f4		 mov	 esi, esp
  01cc4	68 00 00 00 00	 push	 OFFSET FLAT:$SG197526
  01cc9	8d 4d c8	 lea	 ecx, DWORD PTR $T199830[ebp]
  01ccc	ff 15 00 00 00
	00		 call	 DWORD PTR __imp_??0?$basic_string@DU?$char_traits@D@std@@V?$allocator@D@2@@std@@QAE@PBD@Z
  01cd2	3b f4		 cmp	 esi, esp
  01cd4	e8 00 00 00 00	 call	 __RTC_CheckEsp
  01cd9	c7 45 fc 00 00
	00 00		 mov	 DWORD PTR __$EHRec$[ebp+8], 0
  01ce0	8b f4		 mov	 esi, esp
  01ce2	68 00 00 00 00	 push	 OFFSET FLAT:$SG197527
  01ce7	8d 4d ac	 lea	 ecx, DWORD PTR $T199831[ebp]
  01cea	ff 15 00 00 00
	00		 call	 DWORD PTR __imp_??0?$basic_string@DU?$char_traits@D@std@@V?$allocator@D@2@@std@@QAE@PBD@Z
  01cf0	3b f4		 cmp	 esi, esp
  01cf2	e8 00 00 00 00	 call	 __RTC_CheckEsp
  01cf7	c6 45 fc 01	 mov	 BYTE PTR __$EHRec$[ebp+8], 1
  01cfb	8b f4		 mov	 esi, esp
  01cfd	8b 4d 08	 mov	 ecx, DWORD PTR _pMsg$[ebp]
  01d00	8b 11		 mov	 edx, DWORD PTR [ecx]
  01d02	52		 push	 edx
  01d03	68 00 00 00 00	 push	 OFFSET FLAT:$SG197524
  01d08	68 00 00 00 00	 push	 OFFSET FLAT:$SG197525
  01d0d	8d 45 c8	 lea	 eax, DWORD PTR $T199830[ebp]
  01d10	50		 push	 eax
  01d11	6a 00		 push	 0
  01d13	8d 4d ac	 lea	 ecx, DWORD PTR $T199831[ebp]
  01d16	51		 push	 ecx
  01d17	ff 15 00 00 00
	00		 call	 DWORD PTR __imp_?YL_Log@@YAXABV?$basic_string@DU?$char_traits@D@std@@V?$allocator@D@2@@std@@H0PBDZZ
  01d1d	83 c4 18	 add	 esp, 24			; 00000018H
  01d20	3b f4		 cmp	 esi, esp
  01d22	e8 00 00 00 00	 call	 __RTC_CheckEsp
  01d27	c6 45 fc 00	 mov	 BYTE PTR __$EHRec$[ebp+8], 0
  01d2b	8b f4		 mov	 esi, esp
  01d2d	8d 4d ac	 lea	 ecx, DWORD PTR $T199831[ebp]
  01d30	ff 15 00 00 00
	00		 call	 DWORD PTR __imp_??1?$basic_string@DU?$char_traits@D@std@@V?$allocator@D@2@@std@@QAE@XZ
  01d36	3b f4		 cmp	 esi, esp
  01d38	e8 00 00 00 00	 call	 __RTC_CheckEsp
  01d3d	c7 45 fc ff ff
	ff ff		 mov	 DWORD PTR __$EHRec$[ebp+8], -1
  01d44	8b f4		 mov	 esi, esp
  01d46	8d 4d c8	 lea	 ecx, DWORD PTR $T199830[ebp]
  01d49	ff 15 00 00 00
	00		 call	 DWORD PTR __imp_??1?$basic_string@DU?$char_traits@D@std@@V?$allocator@D@2@@std@@QAE@XZ
  01d4f	3b f4		 cmp	 esi, esp
  01d51	e8 00 00 00 00	 call	 __RTC_CheckEsp

; 576  : 		if( pMsg->wParam == VK_ESCAPE )

  01d56	8b 55 08	 mov	 edx, DWORD PTR _pMsg$[ebp]
  01d59	83 7a 08 1b	 cmp	 DWORD PTR [edx+8], 27	; 0000001bH
  01d5d	0f 85 9b 00 00
	00		 jne	 $L197521

; 577  : 		{
; 578  : 			if( GLOBAL_PANELCHANGEDATA->IPanelChange_IsFullScreen() )

  01d63	e8 00 00 00 00	 call	 ?AfxGetDataManager2@@YAPAVIDataManager@@XZ ; AfxGetDataManager2
  01d68	89 85 38 ff ff
	ff		 mov	 DWORD PTR tv87[ebp], eax
  01d6e	8b f4		 mov	 esi, esp
  01d70	68 00 00 00 00	 push	 OFFSET FLAT:_ID_DATA_PANELCHANGE
  01d75	8b 85 38 ff ff
	ff		 mov	 eax, DWORD PTR tv87[ebp]
  01d7b	8b 10		 mov	 edx, DWORD PTR [eax]
  01d7d	8b 8d 38 ff ff
	ff		 mov	 ecx, DWORD PTR tv87[ebp]
  01d83	ff 52 0c	 call	 DWORD PTR [edx+12]
  01d86	3b f4		 cmp	 esi, esp
  01d88	e8 00 00 00 00	 call	 __RTC_CheckEsp
  01d8d	89 85 34 ff ff
	ff		 mov	 DWORD PTR tv93[ebp], eax
  01d93	8b 85 34 ff ff
	ff		 mov	 eax, DWORD PTR tv93[ebp]
  01d99	8b 10		 mov	 edx, DWORD PTR [eax]
  01d9b	8b f4		 mov	 esi, esp
  01d9d	8b 8d 34 ff ff
	ff		 mov	 ecx, DWORD PTR tv93[ebp]
  01da3	ff 52 14	 call	 DWORD PTR [edx+20]
  01da6	3b f4		 cmp	 esi, esp
  01da8	e8 00 00 00 00	 call	 __RTC_CheckEsp
  01dad	0f b6 c0	 movzx	 eax, al
  01db0	85 c0		 test	 eax, eax
  01db2	74 4a		 je	 SHORT $L197521

; 579  : 			{
; 580  : 				GLOBAL_PANELCHANGEDATA->IPanelChange_ExitFullScreen();

  01db4	e8 00 00 00 00	 call	 ?AfxGetDataManager2@@YAPAVIDataManager@@XZ ; AfxGetDataManager2
  01db9	89 85 30 ff ff
	ff		 mov	 DWORD PTR tv133[ebp], eax
  01dbf	8b f4		 mov	 esi, esp
  01dc1	68 00 00 00 00	 push	 OFFSET FLAT:_ID_DATA_PANELCHANGE
  01dc6	8b 8d 30 ff ff
	ff		 mov	 ecx, DWORD PTR tv133[ebp]
  01dcc	8b 11		 mov	 edx, DWORD PTR [ecx]
  01dce	8b 8d 30 ff ff
	ff		 mov	 ecx, DWORD PTR tv133[ebp]
  01dd4	ff 52 0c	 call	 DWORD PTR [edx+12]
  01dd7	3b f4		 cmp	 esi, esp
  01dd9	e8 00 00 00 00	 call	 __RTC_CheckEsp
  01dde	89 85 2c ff ff
	ff		 mov	 DWORD PTR tv139[ebp], eax
  01de4	8b 85 2c ff ff
	ff		 mov	 eax, DWORD PTR tv139[ebp]
  01dea	8b 10		 mov	 edx, DWORD PTR [eax]
  01dec	8b f4		 mov	 esi, esp
  01dee	8b 8d 2c ff ff
	ff		 mov	 ecx, DWORD PTR tv139[ebp]
  01df4	ff 52 10	 call	 DWORD PTR [edx+16]
  01df7	3b f4		 cmp	 esi, esp
  01df9	e8 00 00 00 00	 call	 __RTC_CheckEsp
$L197521:

; 581  : 			}
; 582  : 		}
; 583  : 	}
; 584  : 
; 585  : 	if( pMsg->message == WM_RBUTTONDOWN )

  01dfe	8b 45 08	 mov	 eax, DWORD PTR _pMsg$[ebp]
  01e01	81 78 04 04 02
	00 00		 cmp	 DWORD PTR [eax+4], 516	; 00000204H
  01e08	0f 85 a2 00 00
	00		 jne	 $L197532

; 586  : 	{
; 587  : 		YL_Log("gameplay.txt", LOG_DEBUG, "CPlayBoxDlg::PreTranslateMessage", "message:%s-hwnd:%d", "", pMsg->hwnd);

  01e0e	8b f4		 mov	 esi, esp
  01e10	68 00 00 00 00	 push	 OFFSET FLAT:$SG197537
  01e15	8d 4d 90	 lea	 ecx, DWORD PTR $T199832[ebp]
  01e18	ff 15 00 00 00
	00		 call	 DWORD PTR __imp_??0?$basic_string@DU?$char_traits@D@std@@V?$allocator@D@2@@std@@QAE@PBD@Z
  01e1e	3b f4		 cmp	 esi, esp
  01e20	e8 00 00 00 00	 call	 __RTC_CheckEsp
  01e25	c7 45 fc 02 00
	00 00		 mov	 DWORD PTR __$EHRec$[ebp+8], 2
  01e2c	8b f4		 mov	 esi, esp
  01e2e	68 00 00 00 00	 push	 OFFSET FLAT:$SG197538
  01e33	8d 8d 74 ff ff
	ff		 lea	 ecx, DWORD PTR $T199833[ebp]
  01e39	ff 15 00 00 00
	00		 call	 DWORD PTR __imp_??0?$basic_string@DU?$char_traits@D@std@@V?$allocator@D@2@@std@@QAE@PBD@Z
  01e3f	3b f4		 cmp	 esi, esp
  01e41	e8 00 00 00 00	 call	 __RTC_CheckEsp
  01e46	c6 45 fc 03	 mov	 BYTE PTR __$EHRec$[ebp+8], 3
  01e4a	8b f4		 mov	 esi, esp
  01e4c	8b 4d 08	 mov	 ecx, DWORD PTR _pMsg$[ebp]
  01e4f	8b 11		 mov	 edx, DWORD PTR [ecx]
  01e51	52		 push	 edx
  01e52	68 00 00 00 00	 push	 OFFSET FLAT:$SG197535
  01e57	68 00 00 00 00	 push	 OFFSET FLAT:$SG197536
  01e5c	8d 45 90	 lea	 eax, DWORD PTR $T199832[ebp]
  01e5f	50		 push	 eax
  01e60	6a 00		 push	 0
  01e62	8d 8d 74 ff ff
	ff		 lea	 ecx, DWORD PTR $T199833[ebp]
  01e68	51		 push	 ecx
  01e69	ff 15 00 00 00
	00		 call	 DWORD PTR __imp_?YL_Log@@YAXABV?$basic_string@DU?$char_traits@D@std@@V?$allocator@D@2@@std@@H0PBDZZ
  01e6f	83 c4 18	 add	 esp, 24			; 00000018H
  01e72	3b f4		 cmp	 esi, esp
  01e74	e8 00 00 00 00	 call	 __RTC_CheckEsp
  01e79	c6 45 fc 02	 mov	 BYTE PTR __$EHRec$[ebp+8], 2
  01e7d	8b f4		 mov	 esi, esp
  01e7f	8d 8d 74 ff ff
	ff		 lea	 ecx, DWORD PTR $T199833[ebp]
  01e85	ff 15 00 00 00
	00		 call	 DWORD PTR __imp_??1?$basic_string@DU?$char_traits@D@std@@V?$allocator@D@2@@std@@QAE@XZ
  01e8b	3b f4		 cmp	 esi, esp
  01e8d	e8 00 00 00 00	 call	 __RTC_CheckEsp
  01e92	c7 45 fc ff ff
	ff ff		 mov	 DWORD PTR __$EHRec$[ebp+8], -1
  01e99	8b f4		 mov	 esi, esp
  01e9b	8d 4d 90	 lea	 ecx, DWORD PTR $T199832[ebp]
  01e9e	ff 15 00 00 00
	00		 call	 DWORD PTR __imp_??1?$basic_string@DU?$char_traits@D@std@@V?$allocator@D@2@@std@@QAE@XZ
  01ea4	3b f4		 cmp	 esi, esp
  01ea6	e8 00 00 00 00	 call	 __RTC_CheckEsp

; 588  : 	}else

  01eab	e9 b3 00 00 00	 jmp	 $L197539
$L197532:

; 589  : 	if( pMsg->message == WM_SETFOCUS )

  01eb0	8b 55 08	 mov	 edx, DWORD PTR _pMsg$[ebp]
  01eb3	83 7a 04 07	 cmp	 DWORD PTR [edx+4], 7
  01eb7	0f 85 a6 00 00
	00		 jne	 $L197539

; 590  : 	{
; 591  : 		YL_Log("gameplay.txt", LOG_DEBUG, "CPlayBoxDlg::PreTranslateMessage", "message:%s-hwnd:%d", "WM_SETFOCUS", pMsg->hwnd);

  01ebd	8b f4		 mov	 esi, esp
  01ebf	68 00 00 00 00	 push	 OFFSET FLAT:$SG197545
  01ec4	8d 8d 58 ff ff
	ff		 lea	 ecx, DWORD PTR $T199834[ebp]
  01eca	ff 15 00 00 00
	00		 call	 DWORD PTR __imp_??0?$basic_string@DU?$char_traits@D@std@@V?$allocator@D@2@@std@@QAE@PBD@Z
  01ed0	3b f4		 cmp	 esi, esp
  01ed2	e8 00 00 00 00	 call	 __RTC_CheckEsp
  01ed7	c7 45 fc 04 00
	00 00		 mov	 DWORD PTR __$EHRec$[ebp+8], 4
  01ede	8b f4		 mov	 esi, esp
  01ee0	68 00 00 00 00	 push	 OFFSET FLAT:$SG197546
  01ee5	8d 8d 3c ff ff
	ff		 lea	 ecx, DWORD PTR $T199835[ebp]
  01eeb	ff 15 00 00 00
	00		 call	 DWORD PTR __imp_??0?$basic_string@DU?$char_traits@D@std@@V?$allocator@D@2@@std@@QAE@PBD@Z
  01ef1	3b f4		 cmp	 esi, esp
  01ef3	e8 00 00 00 00	 call	 __RTC_CheckEsp
  01ef8	c6 45 fc 05	 mov	 BYTE PTR __$EHRec$[ebp+8], 5
  01efc	8b f4		 mov	 esi, esp
  01efe	8b 45 08	 mov	 eax, DWORD PTR _pMsg$[ebp]
  01f01	8b 08		 mov	 ecx, DWORD PTR [eax]
  01f03	51		 push	 ecx
  01f04	68 00 00 00 00	 push	 OFFSET FLAT:$SG197543
  01f09	68 00 00 00 00	 push	 OFFSET FLAT:$SG197544
  01f0e	8d 95 58 ff ff
	ff		 lea	 edx, DWORD PTR $T199834[ebp]
  01f14	52		 push	 edx
  01f15	6a 00		 push	 0
  01f17	8d 85 3c ff ff
	ff		 lea	 eax, DWORD PTR $T199835[ebp]
  01f1d	50		 push	 eax
  01f1e	ff 15 00 00 00
	00		 call	 DWORD PTR __imp_?YL_Log@@YAXABV?$basic_string@DU?$char_traits@D@std@@V?$allocator@D@2@@std@@H0PBDZZ
  01f24	83 c4 18	 add	 esp, 24			; 00000018H
  01f27	3b f4		 cmp	 esi, esp
  01f29	e8 00 00 00 00	 call	 __RTC_CheckEsp
  01f2e	c6 45 fc 04	 mov	 BYTE PTR __$EHRec$[ebp+8], 4
  01f32	8b f4		 mov	 esi, esp
  01f34	8d 8d 3c ff ff
	ff		 lea	 ecx, DWORD PTR $T199835[ebp]
  01f3a	ff 15 00 00 00
	00		 call	 DWORD PTR __imp_??1?$basic_string@DU?$char_traits@D@std@@V?$allocator@D@2@@std@@QAE@XZ
  01f40	3b f4		 cmp	 esi, esp
  01f42	e8 00 00 00 00	 call	 __RTC_CheckEsp
  01f47	c7 45 fc ff ff
	ff ff		 mov	 DWORD PTR __$EHRec$[ebp+8], -1
  01f4e	8b f4		 mov	 esi, esp
  01f50	8d 8d 58 ff ff
	ff		 lea	 ecx, DWORD PTR $T199834[ebp]
  01f56	ff 15 00 00 00
	00		 call	 DWORD PTR __imp_??1?$basic_string@DU?$char_traits@D@std@@V?$allocator@D@2@@std@@QAE@XZ
  01f5c	3b f4		 cmp	 esi, esp
  01f5e	e8 00 00 00 00	 call	 __RTC_CheckEsp
$L197539:

; 592  : 	}
; 593  : 
; 594  : 
; 595  : 	if(pMsg->message == WM_SYSCOMMAND 
; 596  : 		&& pMsg->wParam == SC_CLOSE 
; 597  : 		&& AfxGetUIManager()->UICanExit())

  01f63	8b 4d 08	 mov	 ecx, DWORD PTR _pMsg$[ebp]
  01f66	81 79 04 12 01
	00 00		 cmp	 DWORD PTR [ecx+4], 274	; 00000112H
  01f6d	75 43		 jne	 SHORT $L197547
  01f6f	8b 55 08	 mov	 edx, DWORD PTR _pMsg$[ebp]
  01f72	81 7a 08 60 f0
	00 00		 cmp	 DWORD PTR [edx+8], 61536 ; 0000f060H
  01f79	75 37		 jne	 SHORT $L197547
  01f7b	e8 00 00 00 00	 call	 ?AfxGetUIManager@@YAPAVIUIManager@@XZ ; AfxGetUIManager
  01f80	89 85 28 ff ff
	ff		 mov	 DWORD PTR tv180[ebp], eax
  01f86	8b 85 28 ff ff
	ff		 mov	 eax, DWORD PTR tv180[ebp]
  01f8c	8b 10		 mov	 edx, DWORD PTR [eax]
  01f8e	8b f4		 mov	 esi, esp
  01f90	8b 8d 28 ff ff
	ff		 mov	 ecx, DWORD PTR tv180[ebp]
  01f96	ff 52 0c	 call	 DWORD PTR [edx+12]
  01f99	3b f4		 cmp	 esi, esp
  01f9b	e8 00 00 00 00	 call	 __RTC_CheckEsp
  01fa0	0f b6 c0	 movzx	 eax, al
  01fa3	85 c0		 test	 eax, eax
  01fa5	74 0b		 je	 SHORT $L197547

; 598  : 	{
; 599  : 		pMsg->hwnd = m_hWnd;

  01fa7	8b 4d 08	 mov	 ecx, DWORD PTR _pMsg$[ebp]
  01faa	8b 55 f0	 mov	 edx, DWORD PTR _this$[ebp]
  01fad	8b 42 20	 mov	 eax, DWORD PTR [edx+32]
  01fb0	89 01		 mov	 DWORD PTR [ecx], eax
$L197547:

; 600  : 	}
; 601  : 
; 602  : 	return __super::PreTranslateMessage( pMsg );

  01fb2	8b 4d 08	 mov	 ecx, DWORD PTR _pMsg$[ebp]
  01fb5	51		 push	 ecx
  01fb6	8b 4d f0	 mov	 ecx, DWORD PTR _this$[ebp]
  01fb9	e8 00 00 00 00	 call	 ?PreTranslateMessage@CDialog@@UAEHPAUtagMSG@@@Z ; CDialog::PreTranslateMessage

; 603  : }

  01fbe	8b 4d f4	 mov	 ecx, DWORD PTR __$EHRec$[ebp]
  01fc1	64 89 0d 00 00
	00 00		 mov	 DWORD PTR fs:__except_list, ecx
  01fc8	5f		 pop	 edi
  01fc9	5e		 pop	 esi
  01fca	81 c4 d8 00 00
	00		 add	 esp, 216		; 000000d8H
  01fd0	3b ec		 cmp	 ebp, esp
  01fd2	e8 00 00 00 00	 call	 __RTC_CheckEsp
  01fd7	8b e5		 mov	 esp, ebp
  01fd9	5d		 pop	 ebp
  01fda	c2 04 00	 ret	 4
_TEXT	ENDS
text$x	SEGMENT
$L199836:
  00255	8b f4		 mov	 esi, esp
  00257	8d 4d c8	 lea	 ecx, DWORD PTR $T199830[ebp]
  0025a	ff 15 00 00 00
	00		 call	 DWORD PTR __imp_??1?$basic_string@DU?$char_traits@D@std@@V?$allocator@D@2@@std@@QAE@XZ
  00260	3b f4		 cmp	 esi, esp
  00262	e9 00 00 00 00	 jmp	 __RTC_CheckEsp
$L199837:
  00267	8b f4		 mov	 esi, esp
  00269	8d 4d ac	 lea	 ecx, DWORD PTR $T199831[ebp]
  0026c	ff 15 00 00 00
	00		 call	 DWORD PTR __imp_??1?$basic_string@DU?$char_traits@D@std@@V?$allocator@D@2@@std@@QAE@XZ
  00272	3b f4		 cmp	 esi, esp
  00274	e9 00 00 00 00	 jmp	 __RTC_CheckEsp
$L199838:
  00279	8b f4		 mov	 esi, esp
  0027b	8d 4d 90	 lea	 ecx, DWORD PTR $T199832[ebp]
  0027e	ff 15 00 00 00
	00		 call	 DWORD PTR __imp_??1?$basic_string@DU?$char_traits@D@std@@V?$allocator@D@2@@std@@QAE@XZ
  00284	3b f4		 cmp	 esi, esp
  00286	e9 00 00 00 00	 jmp	 __RTC_CheckEsp
$L199839:
  0028b	8b f4		 mov	 esi, esp
  0028d	8d 8d 74 ff ff
	ff		 lea	 ecx, DWORD PTR $T199833[ebp]
  00293	ff 15 00 00 00
	00		 call	 DWORD PTR __imp_??1?$basic_string@DU?$char_traits@D@std@@V?$allocator@D@2@@std@@QAE@XZ
  00299	3b f4		 cmp	 esi, esp
  0029b	e9 00 00 00 00	 jmp	 __RTC_CheckEsp
$L199840:
  002a0	8b f4		 mov	 esi, esp
  002a2	8d 8d 58 ff ff
	ff		 lea	 ecx, DWORD PTR $T199834[ebp]
  002a8	ff 15 00 00 00
	00		 call	 DWORD PTR __imp_??1?$basic_string@DU?$char_traits@D@std@@V?$allocator@D@2@@std@@QAE@XZ
  002ae	3b f4		 cmp	 esi, esp
  002b0	e9 00 00 00 00	 jmp	 __RTC_CheckEsp
$L199841:
  002b5	8b f4		 mov	 esi, esp
  002b7	8d 8d 3c ff ff
	ff		 lea	 ecx, DWORD PTR $T199835[ebp]
  002bd	ff 15 00 00 00
	00		 call	 DWORD PTR __imp_??1?$basic_string@DU?$char_traits@D@std@@V?$allocator@D@2@@std@@QAE@XZ
  002c3	3b f4		 cmp	 esi, esp
  002c5	e9 00 00 00 00	 jmp	 __RTC_CheckEsp
__ehhandler$?PreTranslateMessage@CPlayBoxDlg@@MAEHPAUtagMSG@@@Z:
  002ca	b8 00 00 00 00	 mov	 eax, OFFSET FLAT:$T199843
  002cf	e9 00 00 00 00	 jmp	 ___CxxFrameHandler
text$x	ENDS
?PreTranslateMessage@CPlayBoxDlg@@MAEHPAUtagMSG@@@Z ENDP ; CPlayBoxDlg::PreTranslateMessage
; Function compile flags: /Odt /RTCsu
_TEXT	SEGMENT
_this$ = -4						; size = 4
_uID$ = 8						; size = 4
_lEvent$ = 12						; size = 4
?OnTrayNotification@CPlayBoxDlg@@IAEJIJ@Z PROC NEAR	; CPlayBoxDlg::OnTrayNotification
; _this$ = ecx

; 606  : {

  01fe0	55		 push	 ebp
  01fe1	8b ec		 mov	 ebp, esp
  01fe3	51		 push	 ecx
  01fe4	c7 45 fc cc cc
	cc cc		 mov	 DWORD PTR [ebp-4], -858993460 ; ccccccccH
  01feb	89 4d fc	 mov	 DWORD PTR _this$[ebp], ecx

; 607  : 	return 0;

  01fee	33 c0		 xor	 eax, eax

; 608  : }

  01ff0	8b e5		 mov	 esp, ebp
  01ff2	5d		 pop	 ebp
  01ff3	c2 08 00	 ret	 8
?OnTrayNotification@CPlayBoxDlg@@IAEJIJ@Z ENDP		; CPlayBoxDlg::OnTrayNotification
_TEXT	ENDS
EXTRN	__imp__IsMenu@4:NEAR
EXTRN	?OnMeasureItem@CWnd@@IAEXHPAUtagMEASUREITEMSTRUCT@@@Z:NEAR ; CWnd::OnMeasureItem
EXTRN	?MeasureItem@CTrayIcon@@QAEXPAUtagMEASUREITEMSTRUCT@@@Z:NEAR ; CTrayIcon::MeasureItem
; Function compile flags: /Odt /RTCsu
_TEXT	SEGMENT
_this$ = -4						; size = 4
_nIDCtl$ = 8						; size = 4
_lpMeasureItemStruct$ = 12				; size = 4
?OnMeasureItem@CPlayBoxDlg@@IAEXHPAUtagMEASUREITEMSTRUCT@@@Z PROC NEAR ; CPlayBoxDlg::OnMeasureItem
; _this$ = ecx

; 611  : {

  02000	55		 push	 ebp
  02001	8b ec		 mov	 ebp, esp
  02003	51		 push	 ecx
  02004	56		 push	 esi
  02005	c7 45 fc cc cc
	cc cc		 mov	 DWORD PTR [ebp-4], -858993460 ; ccccccccH
  0200c	89 4d fc	 mov	 DWORD PTR _this$[ebp], ecx

; 612  : 	if(lpMeasureItemStruct->CtlType==ODT_MENU && IsMenu((HMENU)lpMeasureItemStruct->itemID))

  0200f	8b 45 0c	 mov	 eax, DWORD PTR _lpMeasureItemStruct$[ebp]
  02012	83 38 01	 cmp	 DWORD PTR [eax], 1
  02015	75 38		 jne	 SHORT $L197559
  02017	8b f4		 mov	 esi, esp
  02019	8b 4d 0c	 mov	 ecx, DWORD PTR _lpMeasureItemStruct$[ebp]
  0201c	8b 51 08	 mov	 edx, DWORD PTR [ecx+8]
  0201f	52		 push	 edx
  02020	ff 15 00 00 00
	00		 call	 DWORD PTR __imp__IsMenu@4
  02026	3b f4		 cmp	 esi, esp
  02028	e8 00 00 00 00	 call	 __RTC_CheckEsp
  0202d	85 c0		 test	 eax, eax
  0202f	74 1e		 je	 SHORT $L197559

; 613  : 	{
; 614  : 		if( m_ptrayIcon )

  02031	8b 45 fc	 mov	 eax, DWORD PTR _this$[ebp]
  02034	83 b8 90 00 00
	00 00		 cmp	 DWORD PTR [eax+144], 0
  0203b	74 12		 je	 SHORT $L197559

; 615  : 		{
; 616  : 			m_ptrayIcon->MeasureItem( lpMeasureItemStruct);

  0203d	8b 4d 0c	 mov	 ecx, DWORD PTR _lpMeasureItemStruct$[ebp]
  02040	51		 push	 ecx
  02041	8b 55 fc	 mov	 edx, DWORD PTR _this$[ebp]
  02044	8b 8a 90 00 00
	00		 mov	 ecx, DWORD PTR [edx+144]
  0204a	e8 00 00 00 00	 call	 ?MeasureItem@CTrayIcon@@QAEXPAUtagMEASUREITEMSTRUCT@@@Z ; CTrayIcon::MeasureItem
$L197559:

; 617  : 		}			
; 618  : 	}
; 619  : 	__super::OnMeasureItem( nIDCtl,lpMeasureItemStruct);

  0204f	8b 45 0c	 mov	 eax, DWORD PTR _lpMeasureItemStruct$[ebp]
  02052	50		 push	 eax
  02053	8b 4d 08	 mov	 ecx, DWORD PTR _nIDCtl$[ebp]
  02056	51		 push	 ecx
  02057	8b 4d fc	 mov	 ecx, DWORD PTR _this$[ebp]
  0205a	e8 00 00 00 00	 call	 ?OnMeasureItem@CWnd@@IAEXHPAUtagMEASUREITEMSTRUCT@@@Z ; CWnd::OnMeasureItem

; 620  : }

  0205f	5e		 pop	 esi
  02060	83 c4 04	 add	 esp, 4
  02063	3b ec		 cmp	 ebp, esp
  02065	e8 00 00 00 00	 call	 __RTC_CheckEsp
  0206a	8b e5		 mov	 esp, ebp
  0206c	5d		 pop	 ebp
  0206d	c2 08 00	 ret	 8
?OnMeasureItem@CPlayBoxDlg@@IAEXHPAUtagMEASUREITEMSTRUCT@@@Z ENDP ; CPlayBoxDlg::OnMeasureItem
_TEXT	ENDS
PUBLIC	??RCTraceFileAndLineInfo@ATL@@QBAXPBDZZ		; ATL::CTraceFileAndLineInfo::operator()
EXTRN	?OnTimer@CWnd@@IAEXI@Z:NEAR			; CWnd::OnTimer
EXTRN	?CreatePopup@CTrayIcon@@QAEHPAUHWND__@@@Z:NEAR	; CTrayIcon::CreatePopup
; Function compile flags: /Odt /RTCsu
_TEXT	SEGMENT
$T199849 = -12						; size = 8
_this$ = -4						; size = 4
_nIDEvent$ = 8						; size = 4
?OnTimer@CPlayBoxDlg@@IAEXI@Z PROC NEAR			; CPlayBoxDlg::OnTimer
; _this$ = ecx

; 623  : {

  02070	55		 push	 ebp
  02071	8b ec		 mov	 ebp, esp
  02073	83 ec 0c	 sub	 esp, 12			; 0000000cH
  02076	56		 push	 esi
  02077	57		 push	 edi
  02078	c7 45 f4 cc cc
	cc cc		 mov	 DWORD PTR [ebp-12], -858993460 ; ccccccccH
  0207f	c7 45 f8 cc cc
	cc cc		 mov	 DWORD PTR [ebp-8], -858993460 ; ccccccccH
  02086	c7 45 fc cc cc
	cc cc		 mov	 DWORD PTR [ebp-4], -858993460 ; ccccccccH
  0208d	89 4d fc	 mov	 DWORD PTR _this$[ebp], ecx

; 624  : 	if(nIDEvent == TIMER_FOR_TRAY)

  02090	83 7d 08 0b	 cmp	 DWORD PTR _nIDEvent$[ebp], 11 ; 0000000bH
  02094	75 79		 jne	 SHORT $L197565

; 625  : 	{
; 626  : 		if(m_ptrayIcon->m_bRClick)

  02096	8b 45 fc	 mov	 eax, DWORD PTR _this$[ebp]
  02099	8b 88 90 00 00
	00		 mov	 ecx, DWORD PTR [eax+144]
  0209f	0f b6 91 09 03
	00 00		 movzx	 edx, BYTE PTR [ecx+777]
  020a6	85 d2		 test	 edx, edx
  020a8	74 17		 je	 SHORT $L197566

; 627  : 		{
; 628  : 			m_ptrayIcon->CreatePopup(m_hWnd);

  020aa	8b 45 fc	 mov	 eax, DWORD PTR _this$[ebp]
  020ad	8b 48 20	 mov	 ecx, DWORD PTR [eax+32]
  020b0	51		 push	 ecx
  020b1	8b 55 fc	 mov	 edx, DWORD PTR _this$[ebp]
  020b4	8b 8a 90 00 00
	00		 mov	 ecx, DWORD PTR [edx+144]
  020ba	e8 00 00 00 00	 call	 ?CreatePopup@CTrayIcon@@QAEHPAUHWND__@@@Z ; CTrayIcon::CreatePopup

; 629  : 		}else

  020bf	eb 42		 jmp	 SHORT $L197567
$L197566:

; 630  : 		{
; 631  : 			::SendMessage(m_hWnd, WM_COMMAND, ID_OPEN, 0);

  020c1	8b f4		 mov	 esi, esp
  020c3	6a 00		 push	 0
  020c5	68 89 00 00 00	 push	 137			; 00000089H
  020ca	68 11 01 00 00	 push	 273			; 00000111H
  020cf	8b 45 fc	 mov	 eax, DWORD PTR _this$[ebp]
  020d2	8b 48 20	 mov	 ecx, DWORD PTR [eax+32]
  020d5	51		 push	 ecx
  020d6	ff 15 00 00 00
	00		 call	 DWORD PTR __imp__SendMessageA@16
  020dc	3b f4		 cmp	 esi, esp
  020de	e8 00 00 00 00	 call	 __RTC_CheckEsp

; 632  : 			TRACE("::SendMessage(m_hWnd, WM_COMMAND, ID_OPEN, 0);\n");

  020e3	68 00 00 00 00	 push	 OFFSET FLAT:$SG197570
  020e8	68 78 02 00 00	 push	 632			; 00000278H
  020ed	68 00 00 00 00	 push	 OFFSET FLAT:$SG197569
  020f2	8d 4d f4	 lea	 ecx, DWORD PTR $T199849[ebp]
  020f5	e8 00 00 00 00	 call	 ??0CTraceFileAndLineInfo@ATL@@QAE@PBDH@Z ; ATL::CTraceFileAndLineInfo::CTraceFileAndLineInfo
  020fa	50		 push	 eax
  020fb	e8 00 00 00 00	 call	 ??RCTraceFileAndLineInfo@ATL@@QBAXPBDZZ ; ATL::CTraceFileAndLineInfo::operator()
  02100	83 c4 08	 add	 esp, 8
$L197567:

; 633  : 		}
; 634  : 		KillTimer(nIDEvent);

  02103	8b 55 08	 mov	 edx, DWORD PTR _nIDEvent$[ebp]
  02106	52		 push	 edx
  02107	8b 4d fc	 mov	 ecx, DWORD PTR _this$[ebp]
  0210a	e8 00 00 00 00	 call	 ?KillTimer@CWnd@@QAEHI@Z ; CWnd::KillTimer
$L197565:

; 635  : 	}
; 636  : 	if( nIDEvent == TIMER_TRIM_MEM )

  0210f	83 7d 08 14	 cmp	 DWORD PTR _nIDEvent$[ebp], 20 ; 00000014H
  02113	75 23		 jne	 SHORT $L197571

; 637  : 	{
; 638  : 		::SetProcessWorkingSetSize(::GetCurrentProcess(), -1, -1);

  02115	8b f4		 mov	 esi, esp
  02117	6a ff		 push	 -1
  02119	6a ff		 push	 -1
  0211b	8b fc		 mov	 edi, esp
  0211d	ff 15 00 00 00
	00		 call	 DWORD PTR __imp__GetCurrentProcess@0
  02123	3b fc		 cmp	 edi, esp
  02125	e8 00 00 00 00	 call	 __RTC_CheckEsp
  0212a	50		 push	 eax
  0212b	ff 15 00 00 00
	00		 call	 DWORD PTR __imp__SetProcessWorkingSetSize@12
  02131	3b f4		 cmp	 esi, esp
  02133	e8 00 00 00 00	 call	 __RTC_CheckEsp
$L197571:

; 639  : 	}
; 640  : 	if( nIDEvent == TIMER_APP_QUIT )

  02138	83 7d 08 16	 cmp	 DWORD PTR _nIDEvent$[ebp], 22 ; 00000016H
  0213c	75 2d		 jne	 SHORT $L197572

; 641  : 	{
; 642  : 		KillTimer(m_uCloseTimer);

  0213e	8b 45 fc	 mov	 eax, DWORD PTR _this$[ebp]
  02141	8b 88 d8 00 00
	00		 mov	 ecx, DWORD PTR [eax+216]
  02147	51		 push	 ecx
  02148	8b 4d fc	 mov	 ecx, DWORD PTR _this$[ebp]
  0214b	e8 00 00 00 00	 call	 ?KillTimer@CWnd@@QAEHI@Z ; CWnd::KillTimer

; 643  : 		m_uCloseTimer = 0;

  02150	8b 55 fc	 mov	 edx, DWORD PTR _this$[ebp]
  02153	c7 82 d8 00 00
	00 00 00 00 00	 mov	 DWORD PTR [edx+216], 0

; 644  : 		PostMessage(WM_CLOSE,0,0);

  0215d	6a 00		 push	 0
  0215f	6a 00		 push	 0
  02161	6a 10		 push	 16			; 00000010H
  02163	8b 4d fc	 mov	 ecx, DWORD PTR _this$[ebp]
  02166	e8 00 00 00 00	 call	 ?PostMessageA@CWnd@@QAEHIIJ@Z ; CWnd::PostMessageA
$L197572:

; 645  : 	}
; 646  : 	__super::OnTimer(nIDEvent);

  0216b	8b 45 08	 mov	 eax, DWORD PTR _nIDEvent$[ebp]
  0216e	50		 push	 eax
  0216f	8b 4d fc	 mov	 ecx, DWORD PTR _this$[ebp]
  02172	e8 00 00 00 00	 call	 ?OnTimer@CWnd@@IAEXI@Z	; CWnd::OnTimer

; 647  : }

  02177	5f		 pop	 edi
  02178	5e		 pop	 esi
  02179	83 c4 0c	 add	 esp, 12			; 0000000cH
  0217c	3b ec		 cmp	 ebp, esp
  0217e	e8 00 00 00 00	 call	 __RTC_CheckEsp
  02183	8b e5		 mov	 esp, ebp
  02185	5d		 pop	 ebp
  02186	c2 04 00	 ret	 4
?OnTimer@CPlayBoxDlg@@IAEXI@Z ENDP			; CPlayBoxDlg::OnTimer
_TEXT	ENDS
EXTRN	?atlTraceGeneral@ATL@@3VCTraceCategory@1@A:DWORD ; ATL::atlTraceGeneral
; Function compile flags: /Odt /RTCsu
; File d:\program files (x86)\microsoft visual studio .net 2003\vc7\atlmfc\include\atltrace.h
;	COMDAT ??RCTraceFileAndLineInfo@ATL@@QBAXPBDZZ
_TEXT	SEGMENT
_ptr$ = -4						; size = 4
_this$ = 8						; size = 4
_pszFmt$ = 12						; size = 4
??RCTraceFileAndLineInfo@ATL@@QBAXPBDZZ PROC NEAR	; ATL::CTraceFileAndLineInfo::operator(), COMDAT

; 173  : 	{

  00000	55		 push	 ebp
  00001	8b ec		 mov	 ebp, esp
  00003	51		 push	 ecx
  00004	c7 45 fc cc cc
	cc cc		 mov	 DWORD PTR [ebp-4], -858993460 ; ccccccccH

; 174  : 		va_list ptr; va_start(ptr, pszFmt);

  0000b	8d 45 10	 lea	 eax, DWORD PTR _pszFmt$[ebp+4]
  0000e	89 45 fc	 mov	 DWORD PTR _ptr$[ebp], eax

; 175  : 		ATL::CTrace::s_trace.TraceV(m_pszFileName, m_nLineNo, atlTraceGeneral, 0, pszFmt, ptr);

  00011	8b 4d fc	 mov	 ecx, DWORD PTR _ptr$[ebp]
  00014	51		 push	 ecx
  00015	8b 55 0c	 mov	 edx, DWORD PTR _pszFmt$[ebp]
  00018	52		 push	 edx
  00019	6a 00		 push	 0
  0001b	b9 00 00 00 00	 mov	 ecx, OFFSET FLAT:?atlTraceGeneral@ATL@@3VCTraceCategory@1@A ; ATL::atlTraceGeneral
  00020	e8 00 00 00 00	 call	 ??BCTraceCategory@ATL@@QBEKXZ ; ATL::CTraceCategory::operator unsigned long
  00025	50		 push	 eax
  00026	8b 45 08	 mov	 eax, DWORD PTR _this$[ebp]
  00029	8b 48 04	 mov	 ecx, DWORD PTR [eax+4]
  0002c	51		 push	 ecx
  0002d	8b 55 08	 mov	 edx, DWORD PTR _this$[ebp]
  00030	8b 02		 mov	 eax, DWORD PTR [edx]
  00032	50		 push	 eax
  00033	68 00 00 00 00	 push	 OFFSET FLAT:?s_trace@CTrace@ATL@@2V12@A
  00038	e8 00 00 00 00	 call	 ?TraceV@CTrace@ATL@@QBAXPBDHKI0PAD@Z ; ATL::CTrace::TraceV
  0003d	83 c4 1c	 add	 esp, 28			; 0000001cH

; 176  : 		va_end(ptr);

  00040	c7 45 fc 00 00
	00 00		 mov	 DWORD PTR _ptr$[ebp], 0

; 177  : 	}

  00047	83 c4 04	 add	 esp, 4
  0004a	3b ec		 cmp	 ebp, esp
  0004c	e8 00 00 00 00	 call	 __RTC_CheckEsp
  00051	8b e5		 mov	 esp, ebp
  00053	5d		 pop	 ebp
  00054	c3		 ret	 0
??RCTraceFileAndLineInfo@ATL@@QBAXPBDZZ ENDP		; ATL::CTraceFileAndLineInfo::operator()
_TEXT	ENDS
EXTRN	?PatBlt@CDC@@QAEHHHHHK@Z:NEAR			; CDC::PatBlt
EXTRN	??0CBrush@@QAE@PAVCBitmap@@@Z:NEAR		; CBrush::CBrush
EXTRN	??1CBrush@@UAE@XZ:NEAR				; CBrush::~CBrush
EXTRN	??0CBitmap@@QAE@XZ:NEAR				; CBitmap::CBitmap
EXTRN	?LoadBitmapA@CBitmap@@QAEHI@Z:NEAR		; CBitmap::LoadBitmapA
EXTRN	??0CWindowDC@@QAE@PAVCWnd@@@Z:NEAR		; CWindowDC::CWindowDC
EXTRN	??1CWindowDC@@UAE@XZ:NEAR			; CWindowDC::~CWindowDC
EXTRN	??1CBitmap@@UAE@XZ:NEAR				; CBitmap::~CBitmap
EXTRN	?SelectObject@CDC@@QAEPAVCBrush@@PAV2@@Z:NEAR	; CDC::SelectObject
EXTRN	?GetParent@CWnd@@QBEPAV1@XZ:NEAR		; CWnd::GetParent
xdata$x	SEGMENT
$T199863 DD	0ffffffffH
	DD	FLAT:$L199852
	DD	00H
	DD	FLAT:$L199853
	DD	01H
	DD	FLAT:$L199854
$T199856 DD	019930520H
	DD	03H
	DD	FLAT:$T199863
	DD	2 DUP(00H)
	DD	2 DUP(00H)
; Function compile flags: /Odt /RTCsu
; File d:\boxgit\playbox\playbox\dev\prj\playbox\playboxdlg.cpp
xdata$x	ENDS
_TEXT	SEGMENT
_pOldBrush$ = -84					; size = 4
_brush$ = -76						; size = 8
_bmp$ = -60						; size = 8
_dc$ = -44						; size = 20
_pParentWnd$ = -20					; size = 4
_this$ = -16						; size = 4
__$EHRec$ = -12						; size = 12
_rc$ = 8						; size = 16
?DrawMoveFrame@CPlayBoxDlg@@AAEXVCRect@@@Z PROC NEAR	; CPlayBoxDlg::DrawMoveFrame
; _this$ = ecx

; 650  : {

  02190	55		 push	 ebp
  02191	8b ec		 mov	 ebp, esp
  02193	6a ff		 push	 -1
  02195	68 00 00 00 00	 push	 __ehhandler$?DrawMoveFrame@CPlayBoxDlg@@AAEXVCRect@@@Z
  0219a	64 a1 00 00 00
	00		 mov	 eax, DWORD PTR fs:__except_list
  021a0	50		 push	 eax
  021a1	64 89 25 00 00
	00 00		 mov	 DWORD PTR fs:__except_list, esp
  021a8	83 ec 48	 sub	 esp, 72			; 00000048H
  021ab	57		 push	 edi
  021ac	51		 push	 ecx
  021ad	8d 7d ac	 lea	 edi, DWORD PTR [ebp-84]
  021b0	b9 12 00 00 00	 mov	 ecx, 18			; 00000012H
  021b5	b8 cc cc cc cc	 mov	 eax, -858993460		; ccccccccH
  021ba	f3 ab		 rep stosd
  021bc	59		 pop	 ecx
  021bd	89 4d f0	 mov	 DWORD PTR _this$[ebp], ecx

; 651  : 	CWnd* pParentWnd = GetParent();

  021c0	8b 4d f0	 mov	 ecx, DWORD PTR _this$[ebp]
  021c3	e8 00 00 00 00	 call	 ?GetParent@CWnd@@QBEPAV1@XZ ; CWnd::GetParent
  021c8	89 45 ec	 mov	 DWORD PTR _pParentWnd$[ebp], eax

; 652  : 	CWindowDC dc(pParentWnd);

  021cb	8b 45 ec	 mov	 eax, DWORD PTR _pParentWnd$[ebp]
  021ce	50		 push	 eax
  021cf	8d 4d d4	 lea	 ecx, DWORD PTR _dc$[ebp]
  021d2	e8 00 00 00 00	 call	 ??0CWindowDC@@QAE@PAVCWnd@@@Z ; CWindowDC::CWindowDC
  021d7	c7 45 fc 00 00
	00 00		 mov	 DWORD PTR __$EHRec$[ebp+8], 0

; 653  : 
; 654  : 	CBitmap bmp;

  021de	8d 4d c4	 lea	 ecx, DWORD PTR _bmp$[ebp]
  021e1	e8 00 00 00 00	 call	 ??0CBitmap@@QAE@XZ	; CBitmap::CBitmap
  021e6	c6 45 fc 01	 mov	 BYTE PTR __$EHRec$[ebp+8], 1

; 655  : 
; 656  : 	bmp.LoadBitmap(IDB_FRAME_LINE);

  021ea	68 84 00 00 00	 push	 132			; 00000084H
  021ef	8d 4d c4	 lea	 ecx, DWORD PTR _bmp$[ebp]
  021f2	e8 00 00 00 00	 call	 ?LoadBitmapA@CBitmap@@QAEHI@Z ; CBitmap::LoadBitmapA

; 657  : 
; 658  : 	CBrush brush(&bmp);

  021f7	8d 4d c4	 lea	 ecx, DWORD PTR _bmp$[ebp]
  021fa	51		 push	 ecx
  021fb	8d 4d b4	 lea	 ecx, DWORD PTR _brush$[ebp]
  021fe	e8 00 00 00 00	 call	 ??0CBrush@@QAE@PAVCBitmap@@@Z ; CBrush::CBrush
  02203	c6 45 fc 02	 mov	 BYTE PTR __$EHRec$[ebp+8], 2

; 659  : 	CBrush* pOldBrush = dc.SelectObject(&brush);

  02207	8d 55 b4	 lea	 edx, DWORD PTR _brush$[ebp]
  0220a	52		 push	 edx
  0220b	8d 4d d4	 lea	 ecx, DWORD PTR _dc$[ebp]
  0220e	e8 00 00 00 00	 call	 ?SelectObject@CDC@@QAEPAVCBrush@@PAV2@@Z ; CDC::SelectObject
  02213	89 45 ac	 mov	 DWORD PTR _pOldBrush$[ebp], eax

; 660  : 
; 661  : 	dc.PatBlt(
; 662  : 		rc.left, 
; 663  : 		rc.top, 
; 664  : 		4, 
; 665  : 		rc.Height(), 
; 666  : 		PATINVERT);

  02216	68 49 00 5a 00	 push	 5898313			; 005a0049H
  0221b	8d 4d 08	 lea	 ecx, DWORD PTR _rc$[ebp]
  0221e	e8 00 00 00 00	 call	 ?Height@CRect@@QBEHXZ	; CRect::Height
  02223	50		 push	 eax
  02224	6a 04		 push	 4
  02226	8b 45 0c	 mov	 eax, DWORD PTR _rc$[ebp+4]
  02229	50		 push	 eax
  0222a	8b 4d 08	 mov	 ecx, DWORD PTR _rc$[ebp]
  0222d	51		 push	 ecx
  0222e	8d 4d d4	 lea	 ecx, DWORD PTR _dc$[ebp]
  02231	e8 00 00 00 00	 call	 ?PatBlt@CDC@@QAEHHHHHK@Z ; CDC::PatBlt

; 667  : 
; 668  : 	dc.PatBlt(
; 669  : 		rc.left, 
; 670  : 		rc.top, 
; 671  : 		rc.Width(), 
; 672  : 		4, 
; 673  : 		PATINVERT);

  02236	68 49 00 5a 00	 push	 5898313			; 005a0049H
  0223b	6a 04		 push	 4
  0223d	8d 4d 08	 lea	 ecx, DWORD PTR _rc$[ebp]
  02240	e8 00 00 00 00	 call	 ?Width@CRect@@QBEHXZ	; CRect::Width
  02245	50		 push	 eax
  02246	8b 55 0c	 mov	 edx, DWORD PTR _rc$[ebp+4]
  02249	52		 push	 edx
  0224a	8b 45 08	 mov	 eax, DWORD PTR _rc$[ebp]
  0224d	50		 push	 eax
  0224e	8d 4d d4	 lea	 ecx, DWORD PTR _dc$[ebp]
  02251	e8 00 00 00 00	 call	 ?PatBlt@CDC@@QAEHHHHHK@Z ; CDC::PatBlt

; 674  : 
; 675  : 	dc.PatBlt(
; 676  : 		rc.left, 
; 677  : 		rc.bottom - 4, 
; 678  : 		rc.Width(), 
; 679  : 		4, 
; 680  : 		PATINVERT);

  02256	68 49 00 5a 00	 push	 5898313			; 005a0049H
  0225b	6a 04		 push	 4
  0225d	8d 4d 08	 lea	 ecx, DWORD PTR _rc$[ebp]
  02260	e8 00 00 00 00	 call	 ?Width@CRect@@QBEHXZ	; CRect::Width
  02265	50		 push	 eax
  02266	8b 4d 14	 mov	 ecx, DWORD PTR _rc$[ebp+12]
  02269	83 e9 04	 sub	 ecx, 4
  0226c	51		 push	 ecx
  0226d	8b 55 08	 mov	 edx, DWORD PTR _rc$[ebp]
  02270	52		 push	 edx
  02271	8d 4d d4	 lea	 ecx, DWORD PTR _dc$[ebp]
  02274	e8 00 00 00 00	 call	 ?PatBlt@CDC@@QAEHHHHHK@Z ; CDC::PatBlt

; 681  : 
; 682  : 	dc.PatBlt(
; 683  : 		rc.right, 
; 684  : 		rc.top, 
; 685  : 		4, 
; 686  : 		rc.Height(), 
; 687  : 		PATINVERT);

  02279	68 49 00 5a 00	 push	 5898313			; 005a0049H
  0227e	8d 4d 08	 lea	 ecx, DWORD PTR _rc$[ebp]
  02281	e8 00 00 00 00	 call	 ?Height@CRect@@QBEHXZ	; CRect::Height
  02286	50		 push	 eax
  02287	6a 04		 push	 4
  02289	8b 45 0c	 mov	 eax, DWORD PTR _rc$[ebp+4]
  0228c	50		 push	 eax
  0228d	8b 4d 10	 mov	 ecx, DWORD PTR _rc$[ebp+8]
  02290	51		 push	 ecx
  02291	8d 4d d4	 lea	 ecx, DWORD PTR _dc$[ebp]
  02294	e8 00 00 00 00	 call	 ?PatBlt@CDC@@QAEHHHHHK@Z ; CDC::PatBlt

; 688  : 
; 689  : 	dc.SelectObject(pOldBrush);

  02299	8b 55 ac	 mov	 edx, DWORD PTR _pOldBrush$[ebp]
  0229c	52		 push	 edx
  0229d	8d 4d d4	 lea	 ecx, DWORD PTR _dc$[ebp]
  022a0	e8 00 00 00 00	 call	 ?SelectObject@CDC@@QAEPAVCBrush@@PAV2@@Z ; CDC::SelectObject

; 690  : }

  022a5	c6 45 fc 01	 mov	 BYTE PTR __$EHRec$[ebp+8], 1
  022a9	8d 4d b4	 lea	 ecx, DWORD PTR _brush$[ebp]
  022ac	e8 00 00 00 00	 call	 ??1CBrush@@UAE@XZ	; CBrush::~CBrush
  022b1	c6 45 fc 00	 mov	 BYTE PTR __$EHRec$[ebp+8], 0
  022b5	8d 4d c4	 lea	 ecx, DWORD PTR _bmp$[ebp]
  022b8	e8 00 00 00 00	 call	 ??1CBitmap@@UAE@XZ	; CBitmap::~CBitmap
  022bd	c7 45 fc ff ff
	ff ff		 mov	 DWORD PTR __$EHRec$[ebp+8], -1
  022c4	8d 4d d4	 lea	 ecx, DWORD PTR _dc$[ebp]
  022c7	e8 00 00 00 00	 call	 ??1CWindowDC@@UAE@XZ	; CWindowDC::~CWindowDC
  022cc	52		 push	 edx
  022cd	8b cd		 mov	 ecx, ebp
  022cf	50		 push	 eax
  022d0	8d 15 00 00 00
	00		 lea	 edx, DWORD PTR $L199862
  022d6	e8 00 00 00 00	 call	 @_RTC_CheckStackVars@8
  022db	58		 pop	 eax
  022dc	5a		 pop	 edx
  022dd	8b 4d f4	 mov	 ecx, DWORD PTR __$EHRec$[ebp]
  022e0	64 89 0d 00 00
	00 00		 mov	 DWORD PTR fs:__except_list, ecx
  022e7	5f		 pop	 edi
  022e8	83 c4 54	 add	 esp, 84			; 00000054H
  022eb	3b ec		 cmp	 ebp, esp
  022ed	e8 00 00 00 00	 call	 __RTC_CheckEsp
  022f2	8b e5		 mov	 esp, ebp
  022f4	5d		 pop	 ebp
  022f5	c2 10 00	 ret	 16			; 00000010H
$L199862:
  022f8	03 00 00 00	 DD	 3
  022fc	00 00 00 00	 DD	 $L199861
$L199861:
  02300	d4 ff ff ff	 DD	 -44			; ffffffd4H
  02304	14 00 00 00	 DD	 20			; 00000014H
  02308	00 00 00 00	 DD	 $L199857
  0230c	c4 ff ff ff	 DD	 -60			; ffffffc4H
  02310	08 00 00 00	 DD	 8
  02314	00 00 00 00	 DD	 $L199858
  02318	b4 ff ff ff	 DD	 -76			; ffffffb4H
  0231c	08 00 00 00	 DD	 8
  02320	00 00 00 00	 DD	 $L199859
$L199859:
  02324	62		 DB	 98			; 00000062H
  02325	72		 DB	 114			; 00000072H
  02326	75		 DB	 117			; 00000075H
  02327	73		 DB	 115			; 00000073H
  02328	68		 DB	 104			; 00000068H
  02329	00		 DB	 0
$L199858:
  0232a	62		 DB	 98			; 00000062H
  0232b	6d		 DB	 109			; 0000006dH
  0232c	70		 DB	 112			; 00000070H
  0232d	00		 DB	 0
$L199857:
  0232e	64		 DB	 100			; 00000064H
  0232f	63		 DB	 99			; 00000063H
  02330	00		 DB	 0
_TEXT	ENDS
text$x	SEGMENT
$L199852:
  002d4	8d 4d d4	 lea	 ecx, DWORD PTR _dc$[ebp]
  002d7	e9 00 00 00 00	 jmp	 ??1CWindowDC@@UAE@XZ	; CWindowDC::~CWindowDC
$L199853:
  002dc	8d 4d c4	 lea	 ecx, DWORD PTR _bmp$[ebp]
  002df	e9 00 00 00 00	 jmp	 ??1CBitmap@@UAE@XZ	; CBitmap::~CBitmap
$L199854:
  002e4	8d 4d b4	 lea	 ecx, DWORD PTR _brush$[ebp]
  002e7	e9 00 00 00 00	 jmp	 ??1CBrush@@UAE@XZ	; CBrush::~CBrush
__ehhandler$?DrawMoveFrame@CPlayBoxDlg@@AAEXVCRect@@@Z:
  002ec	b8 00 00 00 00	 mov	 eax, OFFSET FLAT:$T199856
  002f1	e9 00 00 00 00	 jmp	 ___CxxFrameHandler
text$x	ENDS
?DrawMoveFrame@CPlayBoxDlg@@AAEXVCRect@@@Z ENDP		; CPlayBoxDlg::DrawMoveFrame
EXTRN	__imp_??0?$CStringT@DV?$StrTraitMFC_DLL@DV?$ChTraitsCRT@D@ATL@@@@@ATL@@QAE@ABV01@@Z:NEAR
EXTRN	?ShowTrayIconBalloon@CTrayIcon@@QAEXV?$CStringT@DV?$StrTraitMFC_DLL@DV?$ChTraitsCRT@D@ATL@@@@@ATL@@0I@Z:NEAR ; CTrayIcon::ShowTrayIconBalloon
EXTRN	__imp_??1?$CStringT@DV?$StrTraitMFC_DLL@DV?$ChTraitsCRT@D@ATL@@@@@ATL@@QAE@XZ:NEAR
xdata$x	SEGMENT
$T199879 DD	0ffffffffH
	DD	FLAT:$L199868
	DD	00H
	DD	FLAT:$L199869
	DD	01H
	DD	FLAT:$L199870
$T199873 DD	019930520H
	DD	03H
	DD	FLAT:$T199879
	DD	2 DUP(00H)
	DD	2 DUP(00H)
; Function compile flags: /Odt /RTCsu
xdata$x	ENDS
_TEXT	SEGMENT
tv142 = -64						; size = 4
tv139 = -60						; size = 4
tv147 = -56						; size = 4
$T199867 = -52						; size = 4
$T199866 = -48						; size = 4
$T199865 = -44						; size = 4
_strContent$ = -36					; size = 4
_strTitle$ = -24					; size = 4
_this$ = -16						; size = 4
__$EHRec$ = -12						; size = 12
_wp$ = 8						; size = 4
_lp$ = 12						; size = 4
?OnShowTrayIconBalloon@CPlayBoxDlg@@IAEJIJ@Z PROC NEAR	; CPlayBoxDlg::OnShowTrayIconBalloon
; _this$ = ecx

; 694  : {

  02340	55		 push	 ebp
  02341	8b ec		 mov	 ebp, esp
  02343	6a ff		 push	 -1
  02345	68 00 00 00 00	 push	 __ehhandler$?OnShowTrayIconBalloon@CPlayBoxDlg@@IAEJIJ@Z
  0234a	64 a1 00 00 00
	00		 mov	 eax, DWORD PTR fs:__except_list
  02350	50		 push	 eax
  02351	64 89 25 00 00
	00 00		 mov	 DWORD PTR fs:__except_list, esp
  02358	83 ec 34	 sub	 esp, 52			; 00000034H
  0235b	56		 push	 esi
  0235c	57		 push	 edi
  0235d	51		 push	 ecx
  0235e	8d 7d c0	 lea	 edi, DWORD PTR [ebp-64]
  02361	b9 0d 00 00 00	 mov	 ecx, 13			; 0000000dH
  02366	b8 cc cc cc cc	 mov	 eax, -858993460		; ccccccccH
  0236b	f3 ab		 rep stosd
  0236d	59		 pop	 ecx
  0236e	89 4d f0	 mov	 DWORD PTR _this$[ebp], ecx

; 695  : 	CString strTitle = *((CString*)wp);

  02371	8b f4		 mov	 esi, esp
  02373	8b 45 08	 mov	 eax, DWORD PTR _wp$[ebp]
  02376	50		 push	 eax
  02377	8d 4d e8	 lea	 ecx, DWORD PTR _strTitle$[ebp]
  0237a	ff 15 00 00 00
	00		 call	 DWORD PTR __imp_??0?$CStringT@DV?$StrTraitMFC_DLL@DV?$ChTraitsCRT@D@ATL@@@@@ATL@@QAE@ABV01@@Z
  02380	3b f4		 cmp	 esi, esp
  02382	e8 00 00 00 00	 call	 __RTC_CheckEsp
  02387	c7 45 fc 00 00
	00 00		 mov	 DWORD PTR __$EHRec$[ebp+8], 0

; 696  : 	CString strContent = *((CString*)lp);

  0238e	8b f4		 mov	 esi, esp
  02390	8b 4d 0c	 mov	 ecx, DWORD PTR _lp$[ebp]
  02393	51		 push	 ecx
  02394	8d 4d dc	 lea	 ecx, DWORD PTR _strContent$[ebp]
  02397	ff 15 00 00 00
	00		 call	 DWORD PTR __imp_??0?$CStringT@DV?$StrTraitMFC_DLL@DV?$ChTraitsCRT@D@ATL@@@@@ATL@@QAE@ABV01@@Z
  0239d	3b f4		 cmp	 esi, esp
  0239f	e8 00 00 00 00	 call	 __RTC_CheckEsp
  023a4	c6 45 fc 01	 mov	 BYTE PTR __$EHRec$[ebp+8], 1

; 697  : 	m_ptrayIcon->ShowTrayIconBalloon( strTitle, strContent, 3000 );

  023a8	68 b8 0b 00 00	 push	 3000			; 00000bb8H
  023ad	51		 push	 ecx
  023ae	8b cc		 mov	 ecx, esp
  023b0	89 65 d4	 mov	 DWORD PTR $T199865[ebp], esp
  023b3	8b f4		 mov	 esi, esp
  023b5	8d 55 dc	 lea	 edx, DWORD PTR _strContent$[ebp]
  023b8	52		 push	 edx
  023b9	ff 15 00 00 00
	00		 call	 DWORD PTR __imp_??0?$CStringT@DV?$StrTraitMFC_DLL@DV?$ChTraitsCRT@D@ATL@@@@@ATL@@QAE@ABV01@@Z
  023bf	3b f4		 cmp	 esi, esp
  023c1	e8 00 00 00 00	 call	 __RTC_CheckEsp
  023c6	89 45 c8	 mov	 DWORD PTR tv147[ebp], eax
  023c9	8b 45 c8	 mov	 eax, DWORD PTR tv147[ebp]
  023cc	89 45 c4	 mov	 DWORD PTR tv139[ebp], eax
  023cf	c6 45 fc 02	 mov	 BYTE PTR __$EHRec$[ebp+8], 2
  023d3	51		 push	 ecx
  023d4	8b cc		 mov	 ecx, esp
  023d6	89 65 d0	 mov	 DWORD PTR $T199866[ebp], esp
  023d9	8b f4		 mov	 esi, esp
  023db	8d 55 e8	 lea	 edx, DWORD PTR _strTitle$[ebp]
  023de	52		 push	 edx
  023df	ff 15 00 00 00
	00		 call	 DWORD PTR __imp_??0?$CStringT@DV?$StrTraitMFC_DLL@DV?$ChTraitsCRT@D@ATL@@@@@ATL@@QAE@ABV01@@Z
  023e5	3b f4		 cmp	 esi, esp
  023e7	e8 00 00 00 00	 call	 __RTC_CheckEsp
  023ec	89 45 c0	 mov	 DWORD PTR tv142[ebp], eax
  023ef	8b 45 f0	 mov	 eax, DWORD PTR _this$[ebp]
  023f2	8b 88 90 00 00
	00		 mov	 ecx, DWORD PTR [eax+144]
  023f8	c6 45 fc 01	 mov	 BYTE PTR __$EHRec$[ebp+8], 1
  023fc	e8 00 00 00 00	 call	 ?ShowTrayIconBalloon@CTrayIcon@@QAEXV?$CStringT@DV?$StrTraitMFC_DLL@DV?$ChTraitsCRT@D@ATL@@@@@ATL@@0I@Z ; CTrayIcon::ShowTrayIconBalloon

; 698  : 	return 0;

  02401	c7 45 cc 00 00
	00 00		 mov	 DWORD PTR $T199867[ebp], 0
  02408	c6 45 fc 00	 mov	 BYTE PTR __$EHRec$[ebp+8], 0
  0240c	8b f4		 mov	 esi, esp
  0240e	8d 4d dc	 lea	 ecx, DWORD PTR _strContent$[ebp]
  02411	ff 15 00 00 00
	00		 call	 DWORD PTR __imp_??1?$CStringT@DV?$StrTraitMFC_DLL@DV?$ChTraitsCRT@D@ATL@@@@@ATL@@QAE@XZ
  02417	3b f4		 cmp	 esi, esp
  02419	e8 00 00 00 00	 call	 __RTC_CheckEsp
  0241e	c7 45 fc ff ff
	ff ff		 mov	 DWORD PTR __$EHRec$[ebp+8], -1
  02425	8b f4		 mov	 esi, esp
  02427	8d 4d e8	 lea	 ecx, DWORD PTR _strTitle$[ebp]
  0242a	ff 15 00 00 00
	00		 call	 DWORD PTR __imp_??1?$CStringT@DV?$StrTraitMFC_DLL@DV?$ChTraitsCRT@D@ATL@@@@@ATL@@QAE@XZ
  02430	3b f4		 cmp	 esi, esp
  02432	e8 00 00 00 00	 call	 __RTC_CheckEsp
  02437	8b 45 cc	 mov	 eax, DWORD PTR $T199867[ebp]

; 699  : }

  0243a	52		 push	 edx
  0243b	8b cd		 mov	 ecx, ebp
  0243d	50		 push	 eax
  0243e	8d 15 00 00 00
	00		 lea	 edx, DWORD PTR $L199878
  02444	e8 00 00 00 00	 call	 @_RTC_CheckStackVars@8
  02449	58		 pop	 eax
  0244a	5a		 pop	 edx
  0244b	8b 4d f4	 mov	 ecx, DWORD PTR __$EHRec$[ebp]
  0244e	64 89 0d 00 00
	00 00		 mov	 DWORD PTR fs:__except_list, ecx
  02455	5f		 pop	 edi
  02456	5e		 pop	 esi
  02457	83 c4 40	 add	 esp, 64			; 00000040H
  0245a	3b ec		 cmp	 ebp, esp
  0245c	e8 00 00 00 00	 call	 __RTC_CheckEsp
  02461	8b e5		 mov	 esp, ebp
  02463	5d		 pop	 ebp
  02464	c2 08 00	 ret	 8
$L199878:
  02467	02 00 00 00	 DD	 2
  0246b	00 00 00 00	 DD	 $L199877
$L199877:
  0246f	e8 ff ff ff	 DD	 -24			; ffffffe8H
  02473	04 00 00 00	 DD	 4
  02477	00 00 00 00	 DD	 $L199874
  0247b	dc ff ff ff	 DD	 -36			; ffffffdcH
  0247f	04 00 00 00	 DD	 4
  02483	00 00 00 00	 DD	 $L199875
$L199875:
  02487	73		 DB	 115			; 00000073H
  02488	74		 DB	 116			; 00000074H
  02489	72		 DB	 114			; 00000072H
  0248a	43		 DB	 67			; 00000043H
  0248b	6f		 DB	 111			; 0000006fH
  0248c	6e		 DB	 110			; 0000006eH
  0248d	74		 DB	 116			; 00000074H
  0248e	65		 DB	 101			; 00000065H
  0248f	6e		 DB	 110			; 0000006eH
  02490	74		 DB	 116			; 00000074H
  02491	00		 DB	 0
$L199874:
  02492	73		 DB	 115			; 00000073H
  02493	74		 DB	 116			; 00000074H
  02494	72		 DB	 114			; 00000072H
  02495	54		 DB	 84			; 00000054H
  02496	69		 DB	 105			; 00000069H
  02497	74		 DB	 116			; 00000074H
  02498	6c		 DB	 108			; 0000006cH
  02499	65		 DB	 101			; 00000065H
  0249a	00		 DB	 0
_TEXT	ENDS
text$x	SEGMENT
$L199868:
  002f6	8b f4		 mov	 esi, esp
  002f8	8d 4d e8	 lea	 ecx, DWORD PTR _strTitle$[ebp]
  002fb	ff 15 00 00 00
	00		 call	 DWORD PTR __imp_??1?$CStringT@DV?$StrTraitMFC_DLL@DV?$ChTraitsCRT@D@ATL@@@@@ATL@@QAE@XZ
  00301	3b f4		 cmp	 esi, esp
  00303	e9 00 00 00 00	 jmp	 __RTC_CheckEsp
$L199869:
  00308	8b f4		 mov	 esi, esp
  0030a	8d 4d dc	 lea	 ecx, DWORD PTR _strContent$[ebp]
  0030d	ff 15 00 00 00
	00		 call	 DWORD PTR __imp_??1?$CStringT@DV?$StrTraitMFC_DLL@DV?$ChTraitsCRT@D@ATL@@@@@ATL@@QAE@XZ
  00313	3b f4		 cmp	 esi, esp
  00315	e9 00 00 00 00	 jmp	 __RTC_CheckEsp
$L199870:
  0031a	8b f4		 mov	 esi, esp
  0031c	8b 4d d4	 mov	 ecx, DWORD PTR $T199865[ebp]
  0031f	ff 15 00 00 00
	00		 call	 DWORD PTR __imp_??1?$CStringT@DV?$StrTraitMFC_DLL@DV?$ChTraitsCRT@D@ATL@@@@@ATL@@QAE@XZ
  00325	3b f4		 cmp	 esi, esp
  00327	e9 00 00 00 00	 jmp	 __RTC_CheckEsp
__ehhandler$?OnShowTrayIconBalloon@CPlayBoxDlg@@IAEJIJ@Z:
  0032c	b8 00 00 00 00	 mov	 eax, OFFSET FLAT:$T199873
  00331	e9 00 00 00 00	 jmp	 ___CxxFrameHandler
text$x	ENDS
?OnShowTrayIconBalloon@CPlayBoxDlg@@IAEJIJ@Z ENDP	; CPlayBoxDlg::OnShowTrayIconBalloon
EXTRN	__imp__MoveWindow@24:NEAR
EXTRN	__imp__SystemParametersInfoA@16:NEAR
EXTRN	__imp_?wndTopMost@CWnd@@2V1@B:BYTE
EXTRN	?SetWindowPos@CWnd@@QAEHPBV1@HHHHI@Z:NEAR	; CWnd::SetWindowPos
xdata$x	SEGMENT
$T199928 DD	0ffffffffH
	DD	FLAT:$L199901
	DD	00H
	DD	FLAT:$L199902
	DD	0ffffffffH
	DD	FLAT:$L199903
	DD	02H
	DD	FLAT:$L199904
	DD	0ffffffffH
	DD	FLAT:$L199905
	DD	04H
	DD	FLAT:$L199906
	DD	0ffffffffH
	DD	FLAT:$L199907
	DD	06H
	DD	FLAT:$L199908
	DD	0ffffffffH
	DD	FLAT:$L199909
	DD	08H
	DD	FLAT:$L199910
	DD	0ffffffffH
	DD	FLAT:$L199911
	DD	0aH
	DD	FLAT:$L199912
	DD	0ffffffffH
	DD	FLAT:$L199913
	DD	0cH
	DD	FLAT:$L199914
	DD	0ffffffffH
	DD	FLAT:$L199915
	DD	0eH
	DD	FLAT:$L199916
$T199918 DD	019930520H
	DD	010H
	DD	FLAT:$T199928
	DD	2 DUP(00H)
	DD	2 DUP(00H)
; Function compile flags: /Odt /RTCsu
xdata$x	ENDS
_TEXT	SEGMENT
tv199 = -564						; size = 4
tv195 = -560						; size = 4
$T199900 = -556						; size = 28
$T199899 = -528						; size = 28
$T199898 = -500						; size = 28
$T199897 = -472						; size = 28
$T199892 = -444						; size = 28
$T199891 = -416						; size = 28
$T199890 = -388						; size = 28
$T199889 = -360						; size = 28
$T199888 = -332						; size = 28
$T199887 = -304						; size = 28
$T199886 = -276						; size = 28
$T199885 = -248						; size = 28
$T199884 = -220						; size = 28
$T199883 = -192						; size = 28
$T199882 = -164						; size = 28
$T199881 = -136						; size = 28
_bHold$ = -101						; size = 1
_iYPos$ = -92						; size = 4
_iXPos$ = -80						; size = 4
_iWndNormalWidth$ = -68					; size = 4
_iWndNormalHeight$ = -56				; size = 4
_iDesktopHeight$ = -48					; size = 4
_iDesktopWidth$ = -44					; size = 4
_r$ = -36						; size = 16
_this$ = -16						; size = 4
__$EHRec$ = -12						; size = 12
?_AdjustDlgSize@CPlayBoxDlg@@AAEXXZ PROC NEAR		; CPlayBoxDlg::_AdjustDlgSize
; _this$ = ecx

; 702  : {

  024a0	55		 push	 ebp
  024a1	8b ec		 mov	 ebp, esp
  024a3	6a ff		 push	 -1
  024a5	68 00 00 00 00	 push	 __ehhandler$?_AdjustDlgSize@CPlayBoxDlg@@AAEXXZ
  024aa	64 a1 00 00 00
	00		 mov	 eax, DWORD PTR fs:__except_list
  024b0	50		 push	 eax
  024b1	64 89 25 00 00
	00 00		 mov	 DWORD PTR fs:__except_list, esp
  024b8	81 ec 28 02 00
	00		 sub	 esp, 552		; 00000228H
  024be	56		 push	 esi
  024bf	57		 push	 edi
  024c0	51		 push	 ecx
  024c1	8d bd cc fd ff
	ff		 lea	 edi, DWORD PTR [ebp-564]
  024c7	b9 8a 00 00 00	 mov	 ecx, 138		; 0000008aH
  024cc	b8 cc cc cc cc	 mov	 eax, -858993460		; ccccccccH
  024d1	f3 ab		 rep stosd
  024d3	59		 pop	 ecx
  024d4	89 4d f0	 mov	 DWORD PTR _this$[ebp], ecx

; 703  : 	AfxGetUserConfig()->GetConfigIntValue( CONF_LAYOUT_MODULE_NAME, CONF_LAYOUT_MIN_WIDTH, m_nMinCx );

  024d7	8b f4		 mov	 esi, esp
  024d9	a1 00 00 00 00	 mov	 eax, DWORD PTR _CONF_LAYOUT_MIN_WIDTH
  024de	50		 push	 eax
  024df	8d 8d 78 ff ff
	ff		 lea	 ecx, DWORD PTR $T199881[ebp]
  024e5	ff 15 00 00 00
	00		 call	 DWORD PTR __imp_??0?$basic_string@DU?$char_traits@D@std@@V?$allocator@D@2@@std@@QAE@PBD@Z
  024eb	3b f4		 cmp	 esi, esp
  024ed	e8 00 00 00 00	 call	 __RTC_CheckEsp
  024f2	c7 45 fc 00 00
	00 00		 mov	 DWORD PTR __$EHRec$[ebp+8], 0
  024f9	8b f4		 mov	 esi, esp
  024fb	8b 0d 00 00 00
	00		 mov	 ecx, DWORD PTR _CONF_LAYOUT_MODULE_NAME
  02501	51		 push	 ecx
  02502	8d 8d 5c ff ff
	ff		 lea	 ecx, DWORD PTR $T199882[ebp]
  02508	ff 15 00 00 00
	00		 call	 DWORD PTR __imp_??0?$basic_string@DU?$char_traits@D@std@@V?$allocator@D@2@@std@@QAE@PBD@Z
  0250e	3b f4		 cmp	 esi, esp
  02510	e8 00 00 00 00	 call	 __RTC_CheckEsp
  02515	c6 45 fc 01	 mov	 BYTE PTR __$EHRec$[ebp+8], 1
  02519	8b 55 f0	 mov	 edx, DWORD PTR _this$[ebp]
  0251c	81 c2 cc 00 00
	00		 add	 edx, 204		; 000000ccH
  02522	52		 push	 edx
  02523	8d 85 78 ff ff
	ff		 lea	 eax, DWORD PTR $T199881[ebp]
  02529	50		 push	 eax
  0252a	8d 8d 5c ff ff
	ff		 lea	 ecx, DWORD PTR $T199882[ebp]
  02530	51		 push	 ecx
  02531	e8 00 00 00 00	 call	 ?AfxGetUserConfig@@YAPAVAfxUserConfig@@XZ ; AfxGetUserConfig
  02536	8b c8		 mov	 ecx, eax
  02538	e8 00 00 00 00	 call	 ?GetConfigIntValue@AfxUserConfig@@QAEXABV?$basic_string@DU?$char_traits@D@std@@V?$allocator@D@2@@std@@0AAH@Z ; AfxUserConfig::GetConfigIntValue
  0253d	c6 45 fc 00	 mov	 BYTE PTR __$EHRec$[ebp+8], 0
  02541	8b f4		 mov	 esi, esp
  02543	8d 8d 5c ff ff
	ff		 lea	 ecx, DWORD PTR $T199882[ebp]
  02549	ff 15 00 00 00
	00		 call	 DWORD PTR __imp_??1?$basic_string@DU?$char_traits@D@std@@V?$allocator@D@2@@std@@QAE@XZ
  0254f	3b f4		 cmp	 esi, esp
  02551	e8 00 00 00 00	 call	 __RTC_CheckEsp
  02556	c7 45 fc ff ff
	ff ff		 mov	 DWORD PTR __$EHRec$[ebp+8], -1
  0255d	8b f4		 mov	 esi, esp
  0255f	8d 8d 78 ff ff
	ff		 lea	 ecx, DWORD PTR $T199881[ebp]
  02565	ff 15 00 00 00
	00		 call	 DWORD PTR __imp_??1?$basic_string@DU?$char_traits@D@std@@V?$allocator@D@2@@std@@QAE@XZ
  0256b	3b f4		 cmp	 esi, esp
  0256d	e8 00 00 00 00	 call	 __RTC_CheckEsp

; 704  : 	AfxGetUserConfig()->GetConfigIntValue( CONF_LAYOUT_MODULE_NAME, CONF_LAYOUT_MIN_HEIGHT, m_nMinCy );

  02572	8b f4		 mov	 esi, esp
  02574	8b 15 00 00 00
	00		 mov	 edx, DWORD PTR _CONF_LAYOUT_MIN_HEIGHT
  0257a	52		 push	 edx
  0257b	8d 8d 40 ff ff
	ff		 lea	 ecx, DWORD PTR $T199883[ebp]
  02581	ff 15 00 00 00
	00		 call	 DWORD PTR __imp_??0?$basic_string@DU?$char_traits@D@std@@V?$allocator@D@2@@std@@QAE@PBD@Z
  02587	3b f4		 cmp	 esi, esp
  02589	e8 00 00 00 00	 call	 __RTC_CheckEsp
  0258e	c7 45 fc 02 00
	00 00		 mov	 DWORD PTR __$EHRec$[ebp+8], 2
  02595	8b f4		 mov	 esi, esp
  02597	a1 00 00 00 00	 mov	 eax, DWORD PTR _CONF_LAYOUT_MODULE_NAME
  0259c	50		 push	 eax
  0259d	8d 8d 24 ff ff
	ff		 lea	 ecx, DWORD PTR $T199884[ebp]
  025a3	ff 15 00 00 00
	00		 call	 DWORD PTR __imp_??0?$basic_string@DU?$char_traits@D@std@@V?$allocator@D@2@@std@@QAE@PBD@Z
  025a9	3b f4		 cmp	 esi, esp
  025ab	e8 00 00 00 00	 call	 __RTC_CheckEsp
  025b0	c6 45 fc 03	 mov	 BYTE PTR __$EHRec$[ebp+8], 3
  025b4	8b 4d f0	 mov	 ecx, DWORD PTR _this$[ebp]
  025b7	81 c1 d0 00 00
	00		 add	 ecx, 208		; 000000d0H
  025bd	51		 push	 ecx
  025be	8d 95 40 ff ff
	ff		 lea	 edx, DWORD PTR $T199883[ebp]
  025c4	52		 push	 edx
  025c5	8d 85 24 ff ff
	ff		 lea	 eax, DWORD PTR $T199884[ebp]
  025cb	50		 push	 eax
  025cc	e8 00 00 00 00	 call	 ?AfxGetUserConfig@@YAPAVAfxUserConfig@@XZ ; AfxGetUserConfig
  025d1	8b c8		 mov	 ecx, eax
  025d3	e8 00 00 00 00	 call	 ?GetConfigIntValue@AfxUserConfig@@QAEXABV?$basic_string@DU?$char_traits@D@std@@V?$allocator@D@2@@std@@0AAH@Z ; AfxUserConfig::GetConfigIntValue
  025d8	c6 45 fc 02	 mov	 BYTE PTR __$EHRec$[ebp+8], 2
  025dc	8b f4		 mov	 esi, esp
  025de	8d 8d 24 ff ff
	ff		 lea	 ecx, DWORD PTR $T199884[ebp]
  025e4	ff 15 00 00 00
	00		 call	 DWORD PTR __imp_??1?$basic_string@DU?$char_traits@D@std@@V?$allocator@D@2@@std@@QAE@XZ
  025ea	3b f4		 cmp	 esi, esp
  025ec	e8 00 00 00 00	 call	 __RTC_CheckEsp
  025f1	c7 45 fc ff ff
	ff ff		 mov	 DWORD PTR __$EHRec$[ebp+8], -1
  025f8	8b f4		 mov	 esi, esp
  025fa	8d 8d 40 ff ff
	ff		 lea	 ecx, DWORD PTR $T199883[ebp]
  02600	ff 15 00 00 00
	00		 call	 DWORD PTR __imp_??1?$basic_string@DU?$char_traits@D@std@@V?$allocator@D@2@@std@@QAE@XZ
  02606	3b f4		 cmp	 esi, esp
  02608	e8 00 00 00 00	 call	 __RTC_CheckEsp

; 705  : 
; 706  : 	if(m_nMinCx < 300 || m_nMinCx > 1400)

  0260d	8b 4d f0	 mov	 ecx, DWORD PTR _this$[ebp]
  02610	81 b9 cc 00 00
	00 2c 01 00 00	 cmp	 DWORD PTR [ecx+204], 300 ; 0000012cH
  0261a	7c 0f		 jl	 SHORT $L197606
  0261c	8b 55 f0	 mov	 edx, DWORD PTR _this$[ebp]
  0261f	81 ba cc 00 00
	00 78 05 00 00	 cmp	 DWORD PTR [edx+204], 1400 ; 00000578H
  02629	7e 0d		 jle	 SHORT $L197605
$L197606:

; 707  : 		m_nMinCx = 650;

  0262b	8b 45 f0	 mov	 eax, DWORD PTR _this$[ebp]
  0262e	c7 80 cc 00 00
	00 8a 02 00 00	 mov	 DWORD PTR [eax+204], 650 ; 0000028aH
$L197605:

; 708  : 	if(m_nMinCy < 300 || m_nMinCy > 1024)

  02638	8b 4d f0	 mov	 ecx, DWORD PTR _this$[ebp]
  0263b	81 b9 d0 00 00
	00 2c 01 00 00	 cmp	 DWORD PTR [ecx+208], 300 ; 0000012cH
  02645	7c 0f		 jl	 SHORT $L197608
  02647	8b 55 f0	 mov	 edx, DWORD PTR _this$[ebp]
  0264a	81 ba d0 00 00
	00 00 04 00 00	 cmp	 DWORD PTR [edx+208], 1024 ; 00000400H
  02654	7e 0d		 jle	 SHORT $L197607
$L197608:

; 709  : 		m_nMinCy = 400;

  02656	8b 45 f0	 mov	 eax, DWORD PTR _this$[ebp]
  02659	c7 80 d0 00 00
	00 90 01 00 00	 mov	 DWORD PTR [eax+208], 400 ; 00000190H
$L197607:

; 710  : 
; 711  : 	RECT   r;   
; 712  : 	SystemParametersInfo(   SPI_GETWORKAREA,   sizeof(RECT),   &r,   0   );   

  02663	8b f4		 mov	 esi, esp
  02665	6a 00		 push	 0
  02667	8d 4d dc	 lea	 ecx, DWORD PTR _r$[ebp]
  0266a	51		 push	 ecx
  0266b	6a 10		 push	 16			; 00000010H
  0266d	6a 30		 push	 48			; 00000030H
  0266f	ff 15 00 00 00
	00		 call	 DWORD PTR __imp__SystemParametersInfoA@16
  02675	3b f4		 cmp	 esi, esp
  02677	e8 00 00 00 00	 call	 __RTC_CheckEsp

; 713  : 
; 714  : 	int iDesktopWidth	= r.right - r.left;

  0267c	8b 55 e4	 mov	 edx, DWORD PTR _r$[ebp+8]
  0267f	2b 55 dc	 sub	 edx, DWORD PTR _r$[ebp]
  02682	89 55 d4	 mov	 DWORD PTR _iDesktopWidth$[ebp], edx

; 715  : 	int iDesktopHeight	= r.bottom - r.top;

  02685	8b 45 e8	 mov	 eax, DWORD PTR _r$[ebp+12]
  02688	2b 45 e0	 sub	 eax, DWORD PTR _r$[ebp+4]
  0268b	89 45 d0	 mov	 DWORD PTR _iDesktopHeight$[ebp], eax

; 716  : 
; 717  : 	int iWndNormalHeight,iWndNormalWidth,iXPos,iYPos;
; 718  : 
; 719  : 	AfxGetUserConfig()->GetConfigIntValue( CONF_LAYOUT_MODULE_NAME,CONF_LAYOUT_HEIGHT,iWndNormalHeight);

  0268e	8b f4		 mov	 esi, esp
  02690	8b 0d 00 00 00
	00		 mov	 ecx, DWORD PTR _CONF_LAYOUT_HEIGHT
  02696	51		 push	 ecx
  02697	8d 8d 08 ff ff
	ff		 lea	 ecx, DWORD PTR $T199885[ebp]
  0269d	ff 15 00 00 00
	00		 call	 DWORD PTR __imp_??0?$basic_string@DU?$char_traits@D@std@@V?$allocator@D@2@@std@@QAE@PBD@Z
  026a3	3b f4		 cmp	 esi, esp
  026a5	e8 00 00 00 00	 call	 __RTC_CheckEsp
  026aa	c7 45 fc 04 00
	00 00		 mov	 DWORD PTR __$EHRec$[ebp+8], 4
  026b1	8b f4		 mov	 esi, esp
  026b3	8b 15 00 00 00
	00		 mov	 edx, DWORD PTR _CONF_LAYOUT_MODULE_NAME
  026b9	52		 push	 edx
  026ba	8d 8d ec fe ff
	ff		 lea	 ecx, DWORD PTR $T199886[ebp]
  026c0	ff 15 00 00 00
	00		 call	 DWORD PTR __imp_??0?$basic_string@DU?$char_traits@D@std@@V?$allocator@D@2@@std@@QAE@PBD@Z
  026c6	3b f4		 cmp	 esi, esp
  026c8	e8 00 00 00 00	 call	 __RTC_CheckEsp
  026cd	c6 45 fc 05	 mov	 BYTE PTR __$EHRec$[ebp+8], 5
  026d1	8d 45 c8	 lea	 eax, DWORD PTR _iWndNormalHeight$[ebp]
  026d4	50		 push	 eax
  026d5	8d 8d 08 ff ff
	ff		 lea	 ecx, DWORD PTR $T199885[ebp]
  026db	51		 push	 ecx
  026dc	8d 95 ec fe ff
	ff		 lea	 edx, DWORD PTR $T199886[ebp]
  026e2	52		 push	 edx
  026e3	e8 00 00 00 00	 call	 ?AfxGetUserConfig@@YAPAVAfxUserConfig@@XZ ; AfxGetUserConfig
  026e8	8b c8		 mov	 ecx, eax
  026ea	e8 00 00 00 00	 call	 ?GetConfigIntValue@AfxUserConfig@@QAEXABV?$basic_string@DU?$char_traits@D@std@@V?$allocator@D@2@@std@@0AAH@Z ; AfxUserConfig::GetConfigIntValue
  026ef	c6 45 fc 04	 mov	 BYTE PTR __$EHRec$[ebp+8], 4
  026f3	8b f4		 mov	 esi, esp
  026f5	8d 8d ec fe ff
	ff		 lea	 ecx, DWORD PTR $T199886[ebp]
  026fb	ff 15 00 00 00
	00		 call	 DWORD PTR __imp_??1?$basic_string@DU?$char_traits@D@std@@V?$allocator@D@2@@std@@QAE@XZ
  02701	3b f4		 cmp	 esi, esp
  02703	e8 00 00 00 00	 call	 __RTC_CheckEsp
  02708	c7 45 fc ff ff
	ff ff		 mov	 DWORD PTR __$EHRec$[ebp+8], -1
  0270f	8b f4		 mov	 esi, esp
  02711	8d 8d 08 ff ff
	ff		 lea	 ecx, DWORD PTR $T199885[ebp]
  02717	ff 15 00 00 00
	00		 call	 DWORD PTR __imp_??1?$basic_string@DU?$char_traits@D@std@@V?$allocator@D@2@@std@@QAE@XZ
  0271d	3b f4		 cmp	 esi, esp
  0271f	e8 00 00 00 00	 call	 __RTC_CheckEsp

; 720  : 	AfxGetUserConfig()->GetConfigIntValue( CONF_LAYOUT_MODULE_NAME,CONF_LAYOUT_WIDTH,iWndNormalWidth);

  02724	8b f4		 mov	 esi, esp
  02726	a1 00 00 00 00	 mov	 eax, DWORD PTR _CONF_LAYOUT_WIDTH
  0272b	50		 push	 eax
  0272c	8d 8d d0 fe ff
	ff		 lea	 ecx, DWORD PTR $T199887[ebp]
  02732	ff 15 00 00 00
	00		 call	 DWORD PTR __imp_??0?$basic_string@DU?$char_traits@D@std@@V?$allocator@D@2@@std@@QAE@PBD@Z
  02738	3b f4		 cmp	 esi, esp
  0273a	e8 00 00 00 00	 call	 __RTC_CheckEsp
  0273f	c7 45 fc 06 00
	00 00		 mov	 DWORD PTR __$EHRec$[ebp+8], 6
  02746	8b f4		 mov	 esi, esp
  02748	8b 0d 00 00 00
	00		 mov	 ecx, DWORD PTR _CONF_LAYOUT_MODULE_NAME
  0274e	51		 push	 ecx
  0274f	8d 8d b4 fe ff
	ff		 lea	 ecx, DWORD PTR $T199888[ebp]
  02755	ff 15 00 00 00
	00		 call	 DWORD PTR __imp_??0?$basic_string@DU?$char_traits@D@std@@V?$allocator@D@2@@std@@QAE@PBD@Z
  0275b	3b f4		 cmp	 esi, esp
  0275d	e8 00 00 00 00	 call	 __RTC_CheckEsp
  02762	c6 45 fc 07	 mov	 BYTE PTR __$EHRec$[ebp+8], 7
  02766	8d 55 bc	 lea	 edx, DWORD PTR _iWndNormalWidth$[ebp]
  02769	52		 push	 edx
  0276a	8d 85 d0 fe ff
	ff		 lea	 eax, DWORD PTR $T199887[ebp]
  02770	50		 push	 eax
  02771	8d 8d b4 fe ff
	ff		 lea	 ecx, DWORD PTR $T199888[ebp]
  02777	51		 push	 ecx
  02778	e8 00 00 00 00	 call	 ?AfxGetUserConfig@@YAPAVAfxUserConfig@@XZ ; AfxGetUserConfig
  0277d	8b c8		 mov	 ecx, eax
  0277f	e8 00 00 00 00	 call	 ?GetConfigIntValue@AfxUserConfig@@QAEXABV?$basic_string@DU?$char_traits@D@std@@V?$allocator@D@2@@std@@0AAH@Z ; AfxUserConfig::GetConfigIntValue
  02784	c6 45 fc 06	 mov	 BYTE PTR __$EHRec$[ebp+8], 6
  02788	8b f4		 mov	 esi, esp
  0278a	8d 8d b4 fe ff
	ff		 lea	 ecx, DWORD PTR $T199888[ebp]
  02790	ff 15 00 00 00
	00		 call	 DWORD PTR __imp_??1?$basic_string@DU?$char_traits@D@std@@V?$allocator@D@2@@std@@QAE@XZ
  02796	3b f4		 cmp	 esi, esp
  02798	e8 00 00 00 00	 call	 __RTC_CheckEsp
  0279d	c7 45 fc ff ff
	ff ff		 mov	 DWORD PTR __$EHRec$[ebp+8], -1
  027a4	8b f4		 mov	 esi, esp
  027a6	8d 8d d0 fe ff
	ff		 lea	 ecx, DWORD PTR $T199887[ebp]
  027ac	ff 15 00 00 00
	00		 call	 DWORD PTR __imp_??1?$basic_string@DU?$char_traits@D@std@@V?$allocator@D@2@@std@@QAE@XZ
  027b2	3b f4		 cmp	 esi, esp
  027b4	e8 00 00 00 00	 call	 __RTC_CheckEsp

; 721  : 	AfxGetUserConfig()->GetConfigIntValue( CONF_LAYOUT_MODULE_NAME,CONF_LAYOUT_X_POS,iXPos);

  027b9	8b f4		 mov	 esi, esp
  027bb	8b 15 00 00 00
	00		 mov	 edx, DWORD PTR _CONF_LAYOUT_X_POS
  027c1	52		 push	 edx
  027c2	8d 8d 98 fe ff
	ff		 lea	 ecx, DWORD PTR $T199889[ebp]
  027c8	ff 15 00 00 00
	00		 call	 DWORD PTR __imp_??0?$basic_string@DU?$char_traits@D@std@@V?$allocator@D@2@@std@@QAE@PBD@Z
  027ce	3b f4		 cmp	 esi, esp
  027d0	e8 00 00 00 00	 call	 __RTC_CheckEsp
  027d5	c7 45 fc 08 00
	00 00		 mov	 DWORD PTR __$EHRec$[ebp+8], 8
  027dc	8b f4		 mov	 esi, esp
  027de	a1 00 00 00 00	 mov	 eax, DWORD PTR _CONF_LAYOUT_MODULE_NAME
  027e3	50		 push	 eax
  027e4	8d 8d 7c fe ff
	ff		 lea	 ecx, DWORD PTR $T199890[ebp]
  027ea	ff 15 00 00 00
	00		 call	 DWORD PTR __imp_??0?$basic_string@DU?$char_traits@D@std@@V?$allocator@D@2@@std@@QAE@PBD@Z
  027f0	3b f4		 cmp	 esi, esp
  027f2	e8 00 00 00 00	 call	 __RTC_CheckEsp
  027f7	c6 45 fc 09	 mov	 BYTE PTR __$EHRec$[ebp+8], 9
  027fb	8d 4d b0	 lea	 ecx, DWORD PTR _iXPos$[ebp]
  027fe	51		 push	 ecx
  027ff	8d 95 98 fe ff
	ff		 lea	 edx, DWORD PTR $T199889[ebp]
  02805	52		 push	 edx
  02806	8d 85 7c fe ff
	ff		 lea	 eax, DWORD PTR $T199890[ebp]
  0280c	50		 push	 eax
  0280d	e8 00 00 00 00	 call	 ?AfxGetUserConfig@@YAPAVAfxUserConfig@@XZ ; AfxGetUserConfig
  02812	8b c8		 mov	 ecx, eax
  02814	e8 00 00 00 00	 call	 ?GetConfigIntValue@AfxUserConfig@@QAEXABV?$basic_string@DU?$char_traits@D@std@@V?$allocator@D@2@@std@@0AAH@Z ; AfxUserConfig::GetConfigIntValue
  02819	c6 45 fc 08	 mov	 BYTE PTR __$EHRec$[ebp+8], 8
  0281d	8b f4		 mov	 esi, esp
  0281f	8d 8d 7c fe ff
	ff		 lea	 ecx, DWORD PTR $T199890[ebp]
  02825	ff 15 00 00 00
	00		 call	 DWORD PTR __imp_??1?$basic_string@DU?$char_traits@D@std@@V?$allocator@D@2@@std@@QAE@XZ
  0282b	3b f4		 cmp	 esi, esp
  0282d	e8 00 00 00 00	 call	 __RTC_CheckEsp
  02832	c7 45 fc ff ff
	ff ff		 mov	 DWORD PTR __$EHRec$[ebp+8], -1
  02839	8b f4		 mov	 esi, esp
  0283b	8d 8d 98 fe ff
	ff		 lea	 ecx, DWORD PTR $T199889[ebp]
  02841	ff 15 00 00 00
	00		 call	 DWORD PTR __imp_??1?$basic_string@DU?$char_traits@D@std@@V?$allocator@D@2@@std@@QAE@XZ
  02847	3b f4		 cmp	 esi, esp
  02849	e8 00 00 00 00	 call	 __RTC_CheckEsp

; 722  : 	AfxGetUserConfig()->GetConfigIntValue( CONF_LAYOUT_MODULE_NAME,CONF_LAYOUT_Y_POS,iYPos);

  0284e	8b f4		 mov	 esi, esp
  02850	8b 0d 00 00 00
	00		 mov	 ecx, DWORD PTR _CONF_LAYOUT_Y_POS
  02856	51		 push	 ecx
  02857	8d 8d 60 fe ff
	ff		 lea	 ecx, DWORD PTR $T199891[ebp]
  0285d	ff 15 00 00 00
	00		 call	 DWORD PTR __imp_??0?$basic_string@DU?$char_traits@D@std@@V?$allocator@D@2@@std@@QAE@PBD@Z
  02863	3b f4		 cmp	 esi, esp
  02865	e8 00 00 00 00	 call	 __RTC_CheckEsp
  0286a	c7 45 fc 0a 00
	00 00		 mov	 DWORD PTR __$EHRec$[ebp+8], 10 ; 0000000aH
  02871	8b f4		 mov	 esi, esp
  02873	8b 15 00 00 00
	00		 mov	 edx, DWORD PTR _CONF_LAYOUT_MODULE_NAME
  02879	52		 push	 edx
  0287a	8d 8d 44 fe ff
	ff		 lea	 ecx, DWORD PTR $T199892[ebp]
  02880	ff 15 00 00 00
	00		 call	 DWORD PTR __imp_??0?$basic_string@DU?$char_traits@D@std@@V?$allocator@D@2@@std@@QAE@PBD@Z
  02886	3b f4		 cmp	 esi, esp
  02888	e8 00 00 00 00	 call	 __RTC_CheckEsp
  0288d	c6 45 fc 0b	 mov	 BYTE PTR __$EHRec$[ebp+8], 11 ; 0000000bH
  02891	8d 45 a4	 lea	 eax, DWORD PTR _iYPos$[ebp]
  02894	50		 push	 eax
  02895	8d 8d 60 fe ff
	ff		 lea	 ecx, DWORD PTR $T199891[ebp]
  0289b	51		 push	 ecx
  0289c	8d 95 44 fe ff
	ff		 lea	 edx, DWORD PTR $T199892[ebp]
  028a2	52		 push	 edx
  028a3	e8 00 00 00 00	 call	 ?AfxGetUserConfig@@YAPAVAfxUserConfig@@XZ ; AfxGetUserConfig
  028a8	8b c8		 mov	 ecx, eax
  028aa	e8 00 00 00 00	 call	 ?GetConfigIntValue@AfxUserConfig@@QAEXABV?$basic_string@DU?$char_traits@D@std@@V?$allocator@D@2@@std@@0AAH@Z ; AfxUserConfig::GetConfigIntValue
  028af	c6 45 fc 0a	 mov	 BYTE PTR __$EHRec$[ebp+8], 10 ; 0000000aH
  028b3	8b f4		 mov	 esi, esp
  028b5	8d 8d 44 fe ff
	ff		 lea	 ecx, DWORD PTR $T199892[ebp]
  028bb	ff 15 00 00 00
	00		 call	 DWORD PTR __imp_??1?$basic_string@DU?$char_traits@D@std@@V?$allocator@D@2@@std@@QAE@XZ
  028c1	3b f4		 cmp	 esi, esp
  028c3	e8 00 00 00 00	 call	 __RTC_CheckEsp
  028c8	c7 45 fc ff ff
	ff ff		 mov	 DWORD PTR __$EHRec$[ebp+8], -1
  028cf	8b f4		 mov	 esi, esp
  028d1	8d 8d 60 fe ff
	ff		 lea	 ecx, DWORD PTR $T199891[ebp]
  028d7	ff 15 00 00 00
	00		 call	 DWORD PTR __imp_??1?$basic_string@DU?$char_traits@D@std@@V?$allocator@D@2@@std@@QAE@XZ
  028dd	3b f4		 cmp	 esi, esp
  028df	e8 00 00 00 00	 call	 __RTC_CheckEsp

; 723  : 
; 724  : 	iWndNormalHeight	= iWndNormalHeight < m_nMinCy ? m_nMinCy : iWndNormalHeight;

  028e4	8b 45 f0	 mov	 eax, DWORD PTR _this$[ebp]
  028e7	8b 4d c8	 mov	 ecx, DWORD PTR _iWndNormalHeight$[ebp]
  028ea	3b 88 d0 00 00
	00		 cmp	 ecx, DWORD PTR [eax+208]
  028f0	7d 11		 jge	 SHORT $L199893
  028f2	8b 55 f0	 mov	 edx, DWORD PTR _this$[ebp]
  028f5	8b 82 d0 00 00
	00		 mov	 eax, DWORD PTR [edx+208]
  028fb	89 85 d0 fd ff
	ff		 mov	 DWORD PTR tv195[ebp], eax
  02901	eb 09		 jmp	 SHORT $L199894
$L199893:
  02903	8b 4d c8	 mov	 ecx, DWORD PTR _iWndNormalHeight$[ebp]
  02906	89 8d d0 fd ff
	ff		 mov	 DWORD PTR tv195[ebp], ecx
$L199894:
  0290c	8b 95 d0 fd ff
	ff		 mov	 edx, DWORD PTR tv195[ebp]
  02912	89 55 c8	 mov	 DWORD PTR _iWndNormalHeight$[ebp], edx

; 725  : 	iWndNormalWidth		= iWndNormalWidth  < m_nMinCx ? m_nMinCx : iWndNormalWidth;

  02915	8b 45 f0	 mov	 eax, DWORD PTR _this$[ebp]
  02918	8b 4d bc	 mov	 ecx, DWORD PTR _iWndNormalWidth$[ebp]
  0291b	3b 88 cc 00 00
	00		 cmp	 ecx, DWORD PTR [eax+204]
  02921	7d 11		 jge	 SHORT $L199895
  02923	8b 55 f0	 mov	 edx, DWORD PTR _this$[ebp]
  02926	8b 82 cc 00 00
	00		 mov	 eax, DWORD PTR [edx+204]
  0292c	89 85 cc fd ff
	ff		 mov	 DWORD PTR tv199[ebp], eax
  02932	eb 09		 jmp	 SHORT $L199896
$L199895:
  02934	8b 4d bc	 mov	 ecx, DWORD PTR _iWndNormalWidth$[ebp]
  02937	89 8d cc fd ff
	ff		 mov	 DWORD PTR tv199[ebp], ecx
$L199896:
  0293d	8b 95 cc fd ff
	ff		 mov	 edx, DWORD PTR tv199[ebp]
  02943	89 55 bc	 mov	 DWORD PTR _iWndNormalWidth$[ebp], edx

; 726  : 
; 727  : 	if( iXPos < 0 || iXPos > iDesktopWidth )

  02946	83 7d b0 00	 cmp	 DWORD PTR _iXPos$[ebp], 0
  0294a	7c 08		 jl	 SHORT $L197626
  0294c	8b 45 b0	 mov	 eax, DWORD PTR _iXPos$[ebp]
  0294f	3b 45 d4	 cmp	 eax, DWORD PTR _iDesktopWidth$[ebp]
  02952	7e 07		 jle	 SHORT $L197625
$L197626:

; 728  : 	{
; 729  : 		iXPos = 100;

  02954	c7 45 b0 64 00
	00 00		 mov	 DWORD PTR _iXPos$[ebp], 100 ; 00000064H
$L197625:

; 730  : 	}
; 731  : 
; 732  : 	if( iYPos < 0 || iYPos > iDesktopHeight )

  0295b	83 7d a4 00	 cmp	 DWORD PTR _iYPos$[ebp], 0
  0295f	7c 08		 jl	 SHORT $L197628
  02961	8b 4d a4	 mov	 ecx, DWORD PTR _iYPos$[ebp]
  02964	3b 4d d0	 cmp	 ecx, DWORD PTR _iDesktopHeight$[ebp]
  02967	7e 07		 jle	 SHORT $L197627
$L197628:

; 733  : 	{
; 734  : 		iYPos = 100;

  02969	c7 45 a4 64 00
	00 00		 mov	 DWORD PTR _iYPos$[ebp], 100 ; 00000064H
$L197627:

; 735  : 	}
; 736  : 
; 737  : 	AfxGetUserConfig()->GetConfigBoolValue( CONF_LAYOUT_MODULE_NAME,CONF_LAYOUT_NORMAL,m_bNormal );	

  02970	8b f4		 mov	 esi, esp
  02972	8b 15 00 00 00
	00		 mov	 edx, DWORD PTR _CONF_LAYOUT_NORMAL
  02978	52		 push	 edx
  02979	8d 8d 28 fe ff
	ff		 lea	 ecx, DWORD PTR $T199897[ebp]
  0297f	ff 15 00 00 00
	00		 call	 DWORD PTR __imp_??0?$basic_string@DU?$char_traits@D@std@@V?$allocator@D@2@@std@@QAE@PBD@Z
  02985	3b f4		 cmp	 esi, esp
  02987	e8 00 00 00 00	 call	 __RTC_CheckEsp
  0298c	c7 45 fc 0c 00
	00 00		 mov	 DWORD PTR __$EHRec$[ebp+8], 12 ; 0000000cH
  02993	8b f4		 mov	 esi, esp
  02995	a1 00 00 00 00	 mov	 eax, DWORD PTR _CONF_LAYOUT_MODULE_NAME
  0299a	50		 push	 eax
  0299b	8d 8d 0c fe ff
	ff		 lea	 ecx, DWORD PTR $T199898[ebp]
  029a1	ff 15 00 00 00
	00		 call	 DWORD PTR __imp_??0?$basic_string@DU?$char_traits@D@std@@V?$allocator@D@2@@std@@QAE@PBD@Z
  029a7	3b f4		 cmp	 esi, esp
  029a9	e8 00 00 00 00	 call	 __RTC_CheckEsp
  029ae	c6 45 fc 0d	 mov	 BYTE PTR __$EHRec$[ebp+8], 13 ; 0000000dH
  029b2	8b 4d f0	 mov	 ecx, DWORD PTR _this$[ebp]
  029b5	81 c1 c4 00 00
	00		 add	 ecx, 196		; 000000c4H
  029bb	51		 push	 ecx
  029bc	8d 95 28 fe ff
	ff		 lea	 edx, DWORD PTR $T199897[ebp]
  029c2	52		 push	 edx
  029c3	8d 85 0c fe ff
	ff		 lea	 eax, DWORD PTR $T199898[ebp]
  029c9	50		 push	 eax
  029ca	e8 00 00 00 00	 call	 ?AfxGetUserConfig@@YAPAVAfxUserConfig@@XZ ; AfxGetUserConfig
  029cf	8b c8		 mov	 ecx, eax
  029d1	e8 00 00 00 00	 call	 ?GetConfigBoolValue@AfxUserConfig@@QAEXABV?$basic_string@DU?$char_traits@D@std@@V?$allocator@D@2@@std@@0AA_N@Z ; AfxUserConfig::GetConfigBoolValue
  029d6	c6 45 fc 0c	 mov	 BYTE PTR __$EHRec$[ebp+8], 12 ; 0000000cH
  029da	8b f4		 mov	 esi, esp
  029dc	8d 8d 0c fe ff
	ff		 lea	 ecx, DWORD PTR $T199898[ebp]
  029e2	ff 15 00 00 00
	00		 call	 DWORD PTR __imp_??1?$basic_string@DU?$char_traits@D@std@@V?$allocator@D@2@@std@@QAE@XZ
  029e8	3b f4		 cmp	 esi, esp
  029ea	e8 00 00 00 00	 call	 __RTC_CheckEsp
  029ef	c7 45 fc ff ff
	ff ff		 mov	 DWORD PTR __$EHRec$[ebp+8], -1
  029f6	8b f4		 mov	 esi, esp
  029f8	8d 8d 28 fe ff
	ff		 lea	 ecx, DWORD PTR $T199897[ebp]
  029fe	ff 15 00 00 00
	00		 call	 DWORD PTR __imp_??1?$basic_string@DU?$char_traits@D@std@@V?$allocator@D@2@@std@@QAE@XZ
  02a04	3b f4		 cmp	 esi, esp
  02a06	e8 00 00 00 00	 call	 __RTC_CheckEsp

; 738  : 	if( m_bNormal)

  02a0b	8b 4d f0	 mov	 ecx, DWORD PTR _this$[ebp]
  02a0e	0f b6 91 c4 00
	00 00		 movzx	 edx, BYTE PTR [ecx+196]
  02a15	85 d2		 test	 edx, edx
  02a17	74 2c		 je	 SHORT $L197631

; 739  : 	{
; 740  : 		::MoveWindow( AfxGetMainWindow()->m_hWnd,iXPos,iYPos,iWndNormalWidth,iWndNormalHeight,TRUE);

  02a19	8b f4		 mov	 esi, esp
  02a1b	6a 01		 push	 1
  02a1d	8b 45 c8	 mov	 eax, DWORD PTR _iWndNormalHeight$[ebp]
  02a20	50		 push	 eax
  02a21	8b 4d bc	 mov	 ecx, DWORD PTR _iWndNormalWidth$[ebp]
  02a24	51		 push	 ecx
  02a25	8b 55 a4	 mov	 edx, DWORD PTR _iYPos$[ebp]
  02a28	52		 push	 edx
  02a29	8b 45 b0	 mov	 eax, DWORD PTR _iXPos$[ebp]
  02a2c	50		 push	 eax
  02a2d	e8 00 00 00 00	 call	 ?AfxGetMainWindow@@YAPAVCWnd@@XZ ; AfxGetMainWindow
  02a32	8b 48 20	 mov	 ecx, DWORD PTR [eax+32]
  02a35	51		 push	 ecx
  02a36	ff 15 00 00 00
	00		 call	 DWORD PTR __imp__MoveWindow@24
  02a3c	3b f4		 cmp	 esi, esp
  02a3e	e8 00 00 00 00	 call	 __RTC_CheckEsp

; 741  : 	}else

  02a43	eb 26		 jmp	 SHORT $L197632
$L197631:

; 742  : 	{
; 743  : 		::MoveWindow( AfxGetMainWindow()->m_hWnd,0,0,iDesktopWidth,iDesktopHeight,TRUE);

  02a45	8b f4		 mov	 esi, esp
  02a47	6a 01		 push	 1
  02a49	8b 55 d0	 mov	 edx, DWORD PTR _iDesktopHeight$[ebp]
  02a4c	52		 push	 edx
  02a4d	8b 45 d4	 mov	 eax, DWORD PTR _iDesktopWidth$[ebp]
  02a50	50		 push	 eax
  02a51	6a 00		 push	 0
  02a53	6a 00		 push	 0
  02a55	e8 00 00 00 00	 call	 ?AfxGetMainWindow@@YAPAVCWnd@@XZ ; AfxGetMainWindow
  02a5a	8b 48 20	 mov	 ecx, DWORD PTR [eax+32]
  02a5d	51		 push	 ecx
  02a5e	ff 15 00 00 00
	00		 call	 DWORD PTR __imp__MoveWindow@24
  02a64	3b f4		 cmp	 esi, esp
  02a66	e8 00 00 00 00	 call	 __RTC_CheckEsp
$L197632:

; 744  : 	}
; 745  : 
; 746  : 	bool bHold;
; 747  : 	AfxGetUserConfig()->GetConfigBoolValue( CONF_APP_MODULE_NAME,CONF_APP_MAINWND_HOLD,bHold );

  02a6b	8b f4		 mov	 esi, esp
  02a6d	8b 15 00 00 00
	00		 mov	 edx, DWORD PTR _CONF_APP_MAINWND_HOLD
  02a73	52		 push	 edx
  02a74	8d 8d f0 fd ff
	ff		 lea	 ecx, DWORD PTR $T199899[ebp]
  02a7a	ff 15 00 00 00
	00		 call	 DWORD PTR __imp_??0?$basic_string@DU?$char_traits@D@std@@V?$allocator@D@2@@std@@QAE@PBD@Z
  02a80	3b f4		 cmp	 esi, esp
  02a82	e8 00 00 00 00	 call	 __RTC_CheckEsp
  02a87	c7 45 fc 0e 00
	00 00		 mov	 DWORD PTR __$EHRec$[ebp+8], 14 ; 0000000eH
  02a8e	8b f4		 mov	 esi, esp
  02a90	a1 00 00 00 00	 mov	 eax, DWORD PTR _CONF_APP_MODULE_NAME
  02a95	50		 push	 eax
  02a96	8d 8d d4 fd ff
	ff		 lea	 ecx, DWORD PTR $T199900[ebp]
  02a9c	ff 15 00 00 00
	00		 call	 DWORD PTR __imp_??0?$basic_string@DU?$char_traits@D@std@@V?$allocator@D@2@@std@@QAE@PBD@Z
  02aa2	3b f4		 cmp	 esi, esp
  02aa4	e8 00 00 00 00	 call	 __RTC_CheckEsp
  02aa9	c6 45 fc 0f	 mov	 BYTE PTR __$EHRec$[ebp+8], 15 ; 0000000fH
  02aad	8d 4d 9b	 lea	 ecx, DWORD PTR _bHold$[ebp]
  02ab0	51		 push	 ecx
  02ab1	8d 95 f0 fd ff
	ff		 lea	 edx, DWORD PTR $T199899[ebp]
  02ab7	52		 push	 edx
  02ab8	8d 85 d4 fd ff
	ff		 lea	 eax, DWORD PTR $T199900[ebp]
  02abe	50		 push	 eax
  02abf	e8 00 00 00 00	 call	 ?AfxGetUserConfig@@YAPAVAfxUserConfig@@XZ ; AfxGetUserConfig
  02ac4	8b c8		 mov	 ecx, eax
  02ac6	e8 00 00 00 00	 call	 ?GetConfigBoolValue@AfxUserConfig@@QAEXABV?$basic_string@DU?$char_traits@D@std@@V?$allocator@D@2@@std@@0AA_N@Z ; AfxUserConfig::GetConfigBoolValue
  02acb	c6 45 fc 0e	 mov	 BYTE PTR __$EHRec$[ebp+8], 14 ; 0000000eH
  02acf	8b f4		 mov	 esi, esp
  02ad1	8d 8d d4 fd ff
	ff		 lea	 ecx, DWORD PTR $T199900[ebp]
  02ad7	ff 15 00 00 00
	00		 call	 DWORD PTR __imp_??1?$basic_string@DU?$char_traits@D@std@@V?$allocator@D@2@@std@@QAE@XZ
  02add	3b f4		 cmp	 esi, esp
  02adf	e8 00 00 00 00	 call	 __RTC_CheckEsp
  02ae4	c7 45 fc ff ff
	ff ff		 mov	 DWORD PTR __$EHRec$[ebp+8], -1
  02aeb	8b f4		 mov	 esi, esp
  02aed	8d 8d f0 fd ff
	ff		 lea	 ecx, DWORD PTR $T199899[ebp]
  02af3	ff 15 00 00 00
	00		 call	 DWORD PTR __imp_??1?$basic_string@DU?$char_traits@D@std@@V?$allocator@D@2@@std@@QAE@XZ
  02af9	3b f4		 cmp	 esi, esp
  02afb	e8 00 00 00 00	 call	 __RTC_CheckEsp

; 748  : 	if( bHold )

  02b00	0f b6 4d 9b	 movzx	 ecx, BYTE PTR _bHold$[ebp]
  02b04	85 c9		 test	 ecx, ecx
  02b06	74 19		 je	 SHORT $L197600

; 749  : 	{
; 750  : 		SetWindowPos(&wndTopMost,-1,-1,-1,-1, SWP_NOSIZE|SWP_NOMOVE);

  02b08	6a 03		 push	 3
  02b0a	6a ff		 push	 -1
  02b0c	6a ff		 push	 -1
  02b0e	6a ff		 push	 -1
  02b10	6a ff		 push	 -1
  02b12	8b 15 00 00 00
	00		 mov	 edx, DWORD PTR __imp_?wndTopMost@CWnd@@2V1@B
  02b18	52		 push	 edx
  02b19	8b 4d f0	 mov	 ecx, DWORD PTR _this$[ebp]
  02b1c	e8 00 00 00 00	 call	 ?SetWindowPos@CWnd@@QAEHPBV1@HHHHI@Z ; CWnd::SetWindowPos
$L197600:

; 751  : 	}		
; 752  : }

  02b21	52		 push	 edx
  02b22	8b cd		 mov	 ecx, ebp
  02b24	50		 push	 eax
  02b25	8d 15 00 00 00
	00		 lea	 edx, DWORD PTR $L199927
  02b2b	e8 00 00 00 00	 call	 @_RTC_CheckStackVars@8
  02b30	58		 pop	 eax
  02b31	5a		 pop	 edx
  02b32	8b 4d f4	 mov	 ecx, DWORD PTR __$EHRec$[ebp]
  02b35	64 89 0d 00 00
	00 00		 mov	 DWORD PTR fs:__except_list, ecx
  02b3c	5f		 pop	 edi
  02b3d	5e		 pop	 esi
  02b3e	81 c4 34 02 00
	00		 add	 esp, 564		; 00000234H
  02b44	3b ec		 cmp	 ebp, esp
  02b46	e8 00 00 00 00	 call	 __RTC_CheckEsp
  02b4b	8b e5		 mov	 esp, ebp
  02b4d	5d		 pop	 ebp
  02b4e	c3		 ret	 0
$L199927:
  02b4f	06 00 00 00	 DD	 6
  02b53	00 00 00 00	 DD	 $L199926
$L199926:
  02b57	dc ff ff ff	 DD	 -36			; ffffffdcH
  02b5b	10 00 00 00	 DD	 16			; 00000010H
  02b5f	00 00 00 00	 DD	 $L199919
  02b63	c8 ff ff ff	 DD	 -56			; ffffffc8H
  02b67	04 00 00 00	 DD	 4
  02b6b	00 00 00 00	 DD	 $L199920
  02b6f	bc ff ff ff	 DD	 -68			; ffffffbcH
  02b73	04 00 00 00	 DD	 4
  02b77	00 00 00 00	 DD	 $L199921
  02b7b	b0 ff ff ff	 DD	 -80			; ffffffb0H
  02b7f	04 00 00 00	 DD	 4
  02b83	00 00 00 00	 DD	 $L199922
  02b87	a4 ff ff ff	 DD	 -92			; ffffffa4H
  02b8b	04 00 00 00	 DD	 4
  02b8f	00 00 00 00	 DD	 $L199923
  02b93	9b ff ff ff	 DD	 -101			; ffffff9bH
  02b97	01 00 00 00	 DD	 1
  02b9b	00 00 00 00	 DD	 $L199924
$L199924:
  02b9f	62		 DB	 98			; 00000062H
  02ba0	48		 DB	 72			; 00000048H
  02ba1	6f		 DB	 111			; 0000006fH
  02ba2	6c		 DB	 108			; 0000006cH
  02ba3	64		 DB	 100			; 00000064H
  02ba4	00		 DB	 0
$L199923:
  02ba5	69		 DB	 105			; 00000069H
  02ba6	59		 DB	 89			; 00000059H
  02ba7	50		 DB	 80			; 00000050H
  02ba8	6f		 DB	 111			; 0000006fH
  02ba9	73		 DB	 115			; 00000073H
  02baa	00		 DB	 0
$L199922:
  02bab	69		 DB	 105			; 00000069H
  02bac	58		 DB	 88			; 00000058H
  02bad	50		 DB	 80			; 00000050H
  02bae	6f		 DB	 111			; 0000006fH
  02baf	73		 DB	 115			; 00000073H
  02bb0	00		 DB	 0
$L199921:
  02bb1	69		 DB	 105			; 00000069H
  02bb2	57		 DB	 87			; 00000057H
  02bb3	6e		 DB	 110			; 0000006eH
  02bb4	64		 DB	 100			; 00000064H
  02bb5	4e		 DB	 78			; 0000004eH
  02bb6	6f		 DB	 111			; 0000006fH
  02bb7	72		 DB	 114			; 00000072H
  02bb8	6d		 DB	 109			; 0000006dH
  02bb9	61		 DB	 97			; 00000061H
  02bba	6c		 DB	 108			; 0000006cH
  02bbb	57		 DB	 87			; 00000057H
  02bbc	69		 DB	 105			; 00000069H
  02bbd	64		 DB	 100			; 00000064H
  02bbe	74		 DB	 116			; 00000074H
  02bbf	68		 DB	 104			; 00000068H
  02bc0	00		 DB	 0
$L199920:
  02bc1	69		 DB	 105			; 00000069H
  02bc2	57		 DB	 87			; 00000057H
  02bc3	6e		 DB	 110			; 0000006eH
  02bc4	64		 DB	 100			; 00000064H
  02bc5	4e		 DB	 78			; 0000004eH
  02bc6	6f		 DB	 111			; 0000006fH
  02bc7	72		 DB	 114			; 00000072H
  02bc8	6d		 DB	 109			; 0000006dH
  02bc9	61		 DB	 97			; 00000061H
  02bca	6c		 DB	 108			; 0000006cH
  02bcb	48		 DB	 72			; 00000048H
  02bcc	65		 DB	 101			; 00000065H
  02bcd	69		 DB	 105			; 00000069H
  02bce	67		 DB	 103			; 00000067H
  02bcf	68		 DB	 104			; 00000068H
  02bd0	74		 DB	 116			; 00000074H
  02bd1	00		 DB	 0
$L199919:
  02bd2	72		 DB	 114			; 00000072H
  02bd3	00		 DB	 0
_TEXT	ENDS
text$x	SEGMENT
$L199901:
  00336	8b f4		 mov	 esi, esp
  00338	8d 8d 78 ff ff
	ff		 lea	 ecx, DWORD PTR $T199881[ebp]
  0033e	ff 15 00 00 00
	00		 call	 DWORD PTR __imp_??1?$basic_string@DU?$char_traits@D@std@@V?$allocator@D@2@@std@@QAE@XZ
  00344	3b f4		 cmp	 esi, esp
  00346	e9 00 00 00 00	 jmp	 __RTC_CheckEsp
$L199902:
  0034b	8b f4		 mov	 esi, esp
  0034d	8d 8d 5c ff ff
	ff		 lea	 ecx, DWORD PTR $T199882[ebp]
  00353	ff 15 00 00 00
	00		 call	 DWORD PTR __imp_??1?$basic_string@DU?$char_traits@D@std@@V?$allocator@D@2@@std@@QAE@XZ
  00359	3b f4		 cmp	 esi, esp
  0035b	e9 00 00 00 00	 jmp	 __RTC_CheckEsp
$L199903:
  00360	8b f4		 mov	 esi, esp
  00362	8d 8d 40 ff ff
	ff		 lea	 ecx, DWORD PTR $T199883[ebp]
  00368	ff 15 00 00 00
	00		 call	 DWORD PTR __imp_??1?$basic_string@DU?$char_traits@D@std@@V?$allocator@D@2@@std@@QAE@XZ
  0036e	3b f4		 cmp	 esi, esp
  00370	e9 00 00 00 00	 jmp	 __RTC_CheckEsp
$L199904:
  00375	8b f4		 mov	 esi, esp
  00377	8d 8d 24 ff ff
	ff		 lea	 ecx, DWORD PTR $T199884[ebp]
  0037d	ff 15 00 00 00
	00		 call	 DWORD PTR __imp_??1?$basic_string@DU?$char_traits@D@std@@V?$allocator@D@2@@std@@QAE@XZ
  00383	3b f4		 cmp	 esi, esp
  00385	e9 00 00 00 00	 jmp	 __RTC_CheckEsp
$L199905:
  0038a	8b f4		 mov	 esi, esp
  0038c	8d 8d 08 ff ff
	ff		 lea	 ecx, DWORD PTR $T199885[ebp]
  00392	ff 15 00 00 00
	00		 call	 DWORD PTR __imp_??1?$basic_string@DU?$char_traits@D@std@@V?$allocator@D@2@@std@@QAE@XZ
  00398	3b f4		 cmp	 esi, esp
  0039a	e9 00 00 00 00	 jmp	 __RTC_CheckEsp
$L199906:
  0039f	8b f4		 mov	 esi, esp
  003a1	8d 8d ec fe ff
	ff		 lea	 ecx, DWORD PTR $T199886[ebp]
  003a7	ff 15 00 00 00
	00		 call	 DWORD PTR __imp_??1?$basic_string@DU?$char_traits@D@std@@V?$allocator@D@2@@std@@QAE@XZ
  003ad	3b f4		 cmp	 esi, esp
  003af	e9 00 00 00 00	 jmp	 __RTC_CheckEsp
$L199907:
  003b4	8b f4		 mov	 esi, esp
  003b6	8d 8d d0 fe ff
	ff		 lea	 ecx, DWORD PTR $T199887[ebp]
  003bc	ff 15 00 00 00
	00		 call	 DWORD PTR __imp_??1?$basic_string@DU?$char_traits@D@std@@V?$allocator@D@2@@std@@QAE@XZ
  003c2	3b f4		 cmp	 esi, esp
  003c4	e9 00 00 00 00	 jmp	 __RTC_CheckEsp
$L199908:
  003c9	8b f4		 mov	 esi, esp
  003cb	8d 8d b4 fe ff
	ff		 lea	 ecx, DWORD PTR $T199888[ebp]
  003d1	ff 15 00 00 00
	00		 call	 DWORD PTR __imp_??1?$basic_string@DU?$char_traits@D@std@@V?$allocator@D@2@@std@@QAE@XZ
  003d7	3b f4		 cmp	 esi, esp
  003d9	e9 00 00 00 00	 jmp	 __RTC_CheckEsp
$L199909:
  003de	8b f4		 mov	 esi, esp
  003e0	8d 8d 98 fe ff
	ff		 lea	 ecx, DWORD PTR $T199889[ebp]
  003e6	ff 15 00 00 00
	00		 call	 DWORD PTR __imp_??1?$basic_string@DU?$char_traits@D@std@@V?$allocator@D@2@@std@@QAE@XZ
  003ec	3b f4		 cmp	 esi, esp
  003ee	e9 00 00 00 00	 jmp	 __RTC_CheckEsp
$L199910:
  003f3	8b f4		 mov	 esi, esp
  003f5	8d 8d 7c fe ff
	ff		 lea	 ecx, DWORD PTR $T199890[ebp]
  003fb	ff 15 00 00 00
	00		 call	 DWORD PTR __imp_??1?$basic_string@DU?$char_traits@D@std@@V?$allocator@D@2@@std@@QAE@XZ
  00401	3b f4		 cmp	 esi, esp
  00403	e9 00 00 00 00	 jmp	 __RTC_CheckEsp
$L199911:
  00408	8b f4		 mov	 esi, esp
  0040a	8d 8d 60 fe ff
	ff		 lea	 ecx, DWORD PTR $T199891[ebp]
  00410	ff 15 00 00 00
	00		 call	 DWORD PTR __imp_??1?$basic_string@DU?$char_traits@D@std@@V?$allocator@D@2@@std@@QAE@XZ
  00416	3b f4		 cmp	 esi, esp
  00418	e9 00 00 00 00	 jmp	 __RTC_CheckEsp
$L199912:
  0041d	8b f4		 mov	 esi, esp
  0041f	8d 8d 44 fe ff
	ff		 lea	 ecx, DWORD PTR $T199892[ebp]
  00425	ff 15 00 00 00
	00		 call	 DWORD PTR __imp_??1?$basic_string@DU?$char_traits@D@std@@V?$allocator@D@2@@std@@QAE@XZ
  0042b	3b f4		 cmp	 esi, esp
  0042d	e9 00 00 00 00	 jmp	 __RTC_CheckEsp
$L199913:
  00432	8b f4		 mov	 esi, esp
  00434	8d 8d 28 fe ff
	ff		 lea	 ecx, DWORD PTR $T199897[ebp]
  0043a	ff 15 00 00 00
	00		 call	 DWORD PTR __imp_??1?$basic_string@DU?$char_traits@D@std@@V?$allocator@D@2@@std@@QAE@XZ
  00440	3b f4		 cmp	 esi, esp
  00442	e9 00 00 00 00	 jmp	 __RTC_CheckEsp
$L199914:
  00447	8b f4		 mov	 esi, esp
  00449	8d 8d 0c fe ff
	ff		 lea	 ecx, DWORD PTR $T199898[ebp]
  0044f	ff 15 00 00 00
	00		 call	 DWORD PTR __imp_??1?$basic_string@DU?$char_traits@D@std@@V?$allocator@D@2@@std@@QAE@XZ
  00455	3b f4		 cmp	 esi, esp
  00457	e9 00 00 00 00	 jmp	 __RTC_CheckEsp
$L199915:
  0045c	8b f4		 mov	 esi, esp
  0045e	8d 8d f0 fd ff
	ff		 lea	 ecx, DWORD PTR $T199899[ebp]
  00464	ff 15 00 00 00
	00		 call	 DWORD PTR __imp_??1?$basic_string@DU?$char_traits@D@std@@V?$allocator@D@2@@std@@QAE@XZ
  0046a	3b f4		 cmp	 esi, esp
  0046c	e9 00 00 00 00	 jmp	 __RTC_CheckEsp
$L199916:
  00471	8b f4		 mov	 esi, esp
  00473	8d 8d d4 fd ff
	ff		 lea	 ecx, DWORD PTR $T199900[ebp]
  00479	ff 15 00 00 00
	00		 call	 DWORD PTR __imp_??1?$basic_string@DU?$char_traits@D@std@@V?$allocator@D@2@@std@@QAE@XZ
  0047f	3b f4		 cmp	 esi, esp
  00481	e9 00 00 00 00	 jmp	 __RTC_CheckEsp
__ehhandler$?_AdjustDlgSize@CPlayBoxDlg@@AAEXXZ:
  00486	b8 00 00 00 00	 mov	 eax, OFFSET FLAT:$T199918
  0048b	e9 00 00 00 00	 jmp	 ___CxxFrameHandler
text$x	ENDS
?_AdjustDlgSize@CPlayBoxDlg@@AAEXXZ ENDP		; CPlayBoxDlg::_AdjustDlgSize
EXTRN	?OnSysCommand@CWnd@@IAEXIJ@Z:NEAR		; CWnd::OnSysCommand
; Function compile flags: /Odt /RTCsu
_TEXT	SEGMENT
tv138 = -40						; size = 4
tv132 = -36						; size = 4
tv95 = -32						; size = 4
tv89 = -28						; size = 4
tv84 = -24						; size = 4
tv78 = -20						; size = 4
tv73 = -16						; size = 4
tv67 = -12						; size = 4
tv64 = -8						; size = 4
_this$ = -4						; size = 4
_nID$ = 8						; size = 4
_lParam$ = 12						; size = 4
?OnSysCommand@CPlayBoxDlg@@QAEXIJ@Z PROC NEAR		; CPlayBoxDlg::OnSysCommand
; _this$ = ecx

; 756  : {

  02be0	55		 push	 ebp
  02be1	8b ec		 mov	 ebp, esp
  02be3	83 ec 28	 sub	 esp, 40			; 00000028H
  02be6	56		 push	 esi
  02be7	57		 push	 edi
  02be8	51		 push	 ecx
  02be9	8d 7d d8	 lea	 edi, DWORD PTR [ebp-40]
  02bec	b9 0a 00 00 00	 mov	 ecx, 10			; 0000000aH
  02bf1	b8 cc cc cc cc	 mov	 eax, -858993460		; ccccccccH
  02bf6	f3 ab		 rep stosd
  02bf8	59		 pop	 ecx
  02bf9	89 4d fc	 mov	 DWORD PTR _this$[ebp], ecx

; 757  : 	switch( nID )

  02bfc	8b 45 08	 mov	 eax, DWORD PTR _nID$[ebp]
  02bff	89 45 f8	 mov	 DWORD PTR tv64[ebp], eax
  02c02	81 7d f8 60 f0
	00 00		 cmp	 DWORD PTR tv64[ebp], 61536 ; 0000f060H
  02c09	77 24		 ja	 SHORT $L199930
  02c0b	81 7d f8 60 f0
	00 00		 cmp	 DWORD PTR tv64[ebp], 61536 ; 0000f060H
  02c12	0f 84 d9 00 00
	00		 je	 $L197652
  02c18	81 7d f8 20 f0
	00 00		 cmp	 DWORD PTR tv64[ebp], 61472 ; 0000f020H
  02c1f	74 59		 je	 SHORT $L197648
  02c21	81 7d f8 30 f0
	00 00		 cmp	 DWORD PTR tv64[ebp], 61488 ; 0000f030H
  02c28	74 13		 je	 SHORT $L197646
  02c2a	e9 fc 00 00 00	 jmp	 $L197654
$L199930:
  02c2f	81 7d f8 20 f1
	00 00		 cmp	 DWORD PTR tv64[ebp], 61728 ; 0000f120H
  02c36	74 7f		 je	 SHORT $L197650
  02c38	e9 ee 00 00 00	 jmp	 $L197654
$L197646:

; 758  : 	{
; 759  : 	case SC_MAXIMIZE:
; 760  : 		GLOBAL_PANELCHANGEDATA->IPanelChange_Max();

  02c3d	e8 00 00 00 00	 call	 ?AfxGetDataManager2@@YAPAVIDataManager@@XZ ; AfxGetDataManager2
  02c42	89 45 f4	 mov	 DWORD PTR tv67[ebp], eax
  02c45	8b f4		 mov	 esi, esp
  02c47	68 00 00 00 00	 push	 OFFSET FLAT:_ID_DATA_PANELCHANGE
  02c4c	8b 4d f4	 mov	 ecx, DWORD PTR tv67[ebp]
  02c4f	8b 11		 mov	 edx, DWORD PTR [ecx]
  02c51	8b 4d f4	 mov	 ecx, DWORD PTR tv67[ebp]
  02c54	ff 52 0c	 call	 DWORD PTR [edx+12]
  02c57	3b f4		 cmp	 esi, esp
  02c59	e8 00 00 00 00	 call	 __RTC_CheckEsp
  02c5e	89 45 f0	 mov	 DWORD PTR tv73[ebp], eax
  02c61	8b 45 f0	 mov	 eax, DWORD PTR tv73[ebp]
  02c64	8b 10		 mov	 edx, DWORD PTR [eax]
  02c66	8b f4		 mov	 esi, esp
  02c68	8b 4d f0	 mov	 ecx, DWORD PTR tv73[ebp]
  02c6b	ff 52 18	 call	 DWORD PTR [edx+24]
  02c6e	3b f4		 cmp	 esi, esp
  02c70	e8 00 00 00 00	 call	 __RTC_CheckEsp

; 761  : 		break;

  02c75	e9 c1 00 00 00	 jmp	 $L197641
$L197648:

; 762  : 	case SC_MINIMIZE:
; 763  : 		GLOBAL_PANELCHANGEDATA->IPanelChange_Min();

  02c7a	e8 00 00 00 00	 call	 ?AfxGetDataManager2@@YAPAVIDataManager@@XZ ; AfxGetDataManager2
  02c7f	89 45 ec	 mov	 DWORD PTR tv78[ebp], eax
  02c82	8b f4		 mov	 esi, esp
  02c84	68 00 00 00 00	 push	 OFFSET FLAT:_ID_DATA_PANELCHANGE
  02c89	8b 45 ec	 mov	 eax, DWORD PTR tv78[ebp]
  02c8c	8b 10		 mov	 edx, DWORD PTR [eax]
  02c8e	8b 4d ec	 mov	 ecx, DWORD PTR tv78[ebp]
  02c91	ff 52 0c	 call	 DWORD PTR [edx+12]
  02c94	3b f4		 cmp	 esi, esp
  02c96	e8 00 00 00 00	 call	 __RTC_CheckEsp
  02c9b	89 45 e8	 mov	 DWORD PTR tv84[ebp], eax
  02c9e	8b 45 e8	 mov	 eax, DWORD PTR tv84[ebp]
  02ca1	8b 10		 mov	 edx, DWORD PTR [eax]
  02ca3	8b f4		 mov	 esi, esp
  02ca5	8b 4d e8	 mov	 ecx, DWORD PTR tv84[ebp]
  02ca8	ff 52 1c	 call	 DWORD PTR [edx+28]
  02cab	3b f4		 cmp	 esi, esp
  02cad	e8 00 00 00 00	 call	 __RTC_CheckEsp

; 764  : 		break;

  02cb2	e9 84 00 00 00	 jmp	 $L197641
$L197650:

; 765  : 	case SC_RESTORE:
; 766  : 		GLOBAL_PANELCHANGEDATA->IPanelChange_Restore();

  02cb7	e8 00 00 00 00	 call	 ?AfxGetDataManager2@@YAPAVIDataManager@@XZ ; AfxGetDataManager2
  02cbc	89 45 e4	 mov	 DWORD PTR tv89[ebp], eax
  02cbf	8b f4		 mov	 esi, esp
  02cc1	68 00 00 00 00	 push	 OFFSET FLAT:_ID_DATA_PANELCHANGE
  02cc6	8b 45 e4	 mov	 eax, DWORD PTR tv89[ebp]
  02cc9	8b 10		 mov	 edx, DWORD PTR [eax]
  02ccb	8b 4d e4	 mov	 ecx, DWORD PTR tv89[ebp]
  02cce	ff 52 0c	 call	 DWORD PTR [edx+12]
  02cd1	3b f4		 cmp	 esi, esp
  02cd3	e8 00 00 00 00	 call	 __RTC_CheckEsp
  02cd8	89 45 e0	 mov	 DWORD PTR tv95[ebp], eax
  02cdb	8b 45 e0	 mov	 eax, DWORD PTR tv95[ebp]
  02cde	8b 10		 mov	 edx, DWORD PTR [eax]
  02ce0	8b f4		 mov	 esi, esp
  02ce2	8b 4d e0	 mov	 ecx, DWORD PTR tv95[ebp]
  02ce5	ff 52 20	 call	 DWORD PTR [edx+32]
  02ce8	3b f4		 cmp	 esi, esp
  02cea	e8 00 00 00 00	 call	 __RTC_CheckEsp

; 767  : 		break;

  02cef	eb 4a		 jmp	 SHORT $L197641
$L197652:

; 768  : 	case SC_CLOSE:
; 769  : 		GLOBAL_PANELCHANGEDATA->IPanelChange_Close();

  02cf1	e8 00 00 00 00	 call	 ?AfxGetDataManager2@@YAPAVIDataManager@@XZ ; AfxGetDataManager2
  02cf6	89 45 dc	 mov	 DWORD PTR tv132[ebp], eax
  02cf9	8b f4		 mov	 esi, esp
  02cfb	68 00 00 00 00	 push	 OFFSET FLAT:_ID_DATA_PANELCHANGE
  02d00	8b 45 dc	 mov	 eax, DWORD PTR tv132[ebp]
  02d03	8b 10		 mov	 edx, DWORD PTR [eax]
  02d05	8b 4d dc	 mov	 ecx, DWORD PTR tv132[ebp]
  02d08	ff 52 0c	 call	 DWORD PTR [edx+12]
  02d0b	3b f4		 cmp	 esi, esp
  02d0d	e8 00 00 00 00	 call	 __RTC_CheckEsp
  02d12	89 45 d8	 mov	 DWORD PTR tv138[ebp], eax
  02d15	8b 45 d8	 mov	 eax, DWORD PTR tv138[ebp]
  02d18	8b 10		 mov	 edx, DWORD PTR [eax]
  02d1a	8b f4		 mov	 esi, esp
  02d1c	8b 4d d8	 mov	 ecx, DWORD PTR tv138[ebp]
  02d1f	ff 52 24	 call	 DWORD PTR [edx+36]
  02d22	3b f4		 cmp	 esi, esp
  02d24	e8 00 00 00 00	 call	 __RTC_CheckEsp

; 770  : 		break;

  02d29	eb 10		 jmp	 SHORT $L197641
$L197654:

; 771  : 	default:
; 772  : 		__super::OnSysCommand(nID, lParam);	

  02d2b	8b 45 0c	 mov	 eax, DWORD PTR _lParam$[ebp]
  02d2e	50		 push	 eax
  02d2f	8b 4d 08	 mov	 ecx, DWORD PTR _nID$[ebp]
  02d32	51		 push	 ecx
  02d33	8b 4d fc	 mov	 ecx, DWORD PTR _this$[ebp]
  02d36	e8 00 00 00 00	 call	 ?OnSysCommand@CWnd@@IAEXIJ@Z ; CWnd::OnSysCommand
$L197641:

; 773  : 		break;
; 774  : 	}
; 775  : }

  02d3b	5f		 pop	 edi
  02d3c	5e		 pop	 esi
  02d3d	83 c4 28	 add	 esp, 40			; 00000028H
  02d40	3b ec		 cmp	 ebp, esp
  02d42	e8 00 00 00 00	 call	 __RTC_CheckEsp
  02d47	8b e5		 mov	 esp, ebp
  02d49	5d		 pop	 ebp
  02d4a	c2 08 00	 ret	 8
?OnSysCommand@CPlayBoxDlg@@QAEXIJ@Z ENDP		; CPlayBoxDlg::OnSysCommand
_TEXT	ENDS
EXTRN	?EnableMenuItem@CMenu@@QAEIII@Z:NEAR		; CMenu::EnableMenuItem
EXTRN	?GetSystemMenu@CWnd@@QBEPAVCMenu@@H@Z:NEAR	; CWnd::GetSystemMenu
; Function compile flags: /Odt /RTCsu
_TEXT	SEGMENT
_pMenu$ = -8						; size = 4
_this$ = -4						; size = 4
?IPanelChangeOb_WindowMax@CPlayBoxDlg@@UAEXXZ PROC NEAR	; CPlayBoxDlg::IPanelChangeOb_WindowMax
; _this$ = ecx

; 778  : {

  02d50	55		 push	 ebp
  02d51	8b ec		 mov	 ebp, esp
  02d53	83 ec 08	 sub	 esp, 8
  02d56	c7 45 f8 cc cc
	cc cc		 mov	 DWORD PTR [ebp-8], -858993460 ; ccccccccH
  02d5d	c7 45 fc cc cc
	cc cc		 mov	 DWORD PTR [ebp-4], -858993460 ; ccccccccH
  02d64	89 4d fc	 mov	 DWORD PTR _this$[ebp], ecx

; 779  : 	ModifyStyle(WS_MAXIMIZEBOX,WS_MINIMIZEBOX);

  02d67	6a 00		 push	 0
  02d69	68 00 00 02 00	 push	 131072			; 00020000H
  02d6e	68 00 00 01 00	 push	 65536			; 00010000H
  02d73	8b 4d fc	 mov	 ecx, DWORD PTR _this$[ebp]
  02d76	83 e9 7c	 sub	 ecx, 124		; 0000007cH
  02d79	e8 00 00 00 00	 call	 ?ModifyStyle@CWnd@@QAEHKKI@Z ; CWnd::ModifyStyle

; 780  : 	CMenu* pMenu = GetSystemMenu(FALSE);

  02d7e	6a 00		 push	 0
  02d80	8b 4d fc	 mov	 ecx, DWORD PTR _this$[ebp]
  02d83	83 e9 7c	 sub	 ecx, 124		; 0000007cH
  02d86	e8 00 00 00 00	 call	 ?GetSystemMenu@CWnd@@QBEPAVCMenu@@H@Z ; CWnd::GetSystemMenu
  02d8b	89 45 f8	 mov	 DWORD PTR _pMenu$[ebp], eax

; 781  : 	if(pMenu)

  02d8e	83 7d f8 00	 cmp	 DWORD PTR _pMenu$[ebp], 0
  02d92	74 1e		 je	 SHORT $L197657

; 782  : 	{
; 783  : 		pMenu->EnableMenuItem(SC_MAXIMIZE,MF_BYCOMMAND|MF_DISABLED);

  02d94	6a 02		 push	 2
  02d96	68 30 f0 00 00	 push	 61488			; 0000f030H
  02d9b	8b 4d f8	 mov	 ecx, DWORD PTR _pMenu$[ebp]
  02d9e	e8 00 00 00 00	 call	 ?EnableMenuItem@CMenu@@QAEIII@Z ; CMenu::EnableMenuItem

; 784  : 		pMenu->EnableMenuItem(SC_MINIMIZE,MF_BYCOMMAND|MF_ENABLED);	

  02da3	6a 00		 push	 0
  02da5	68 20 f0 00 00	 push	 61472			; 0000f020H
  02daa	8b 4d f8	 mov	 ecx, DWORD PTR _pMenu$[ebp]
  02dad	e8 00 00 00 00	 call	 ?EnableMenuItem@CMenu@@QAEIII@Z ; CMenu::EnableMenuItem
$L197657:

; 785  : 	}
; 786  : }

  02db2	83 c4 08	 add	 esp, 8
  02db5	3b ec		 cmp	 ebp, esp
  02db7	e8 00 00 00 00	 call	 __RTC_CheckEsp
  02dbc	8b e5		 mov	 esp, ebp
  02dbe	5d		 pop	 ebp
  02dbf	c3		 ret	 0
?IPanelChangeOb_WindowMax@CPlayBoxDlg@@UAEXXZ ENDP	; CPlayBoxDlg::IPanelChangeOb_WindowMax
; Function compile flags: /Odt /RTCsu
_pMenu$ = -8						; size = 4
_this$ = -4						; size = 4
?IPanelChangeOb_WindowMin@CPlayBoxDlg@@UAEXXZ PROC NEAR	; CPlayBoxDlg::IPanelChangeOb_WindowMin
; _this$ = ecx

; 789  : {

  02dc0	55		 push	 ebp
  02dc1	8b ec		 mov	 ebp, esp
  02dc3	83 ec 08	 sub	 esp, 8
  02dc6	c7 45 f8 cc cc
	cc cc		 mov	 DWORD PTR [ebp-8], -858993460 ; ccccccccH
  02dcd	c7 45 fc cc cc
	cc cc		 mov	 DWORD PTR [ebp-4], -858993460 ; ccccccccH
  02dd4	89 4d fc	 mov	 DWORD PTR _this$[ebp], ecx

; 790  : 	ModifyStyle(WS_MINIMIZEBOX,WS_MAXIMIZEBOX);

  02dd7	6a 00		 push	 0
  02dd9	68 00 00 01 00	 push	 65536			; 00010000H
  02dde	68 00 00 02 00	 push	 131072			; 00020000H
  02de3	8b 4d fc	 mov	 ecx, DWORD PTR _this$[ebp]
  02de6	83 e9 7c	 sub	 ecx, 124		; 0000007cH
  02de9	e8 00 00 00 00	 call	 ?ModifyStyle@CWnd@@QAEHKKI@Z ; CWnd::ModifyStyle

; 791  : 	CMenu* pMenu = GetSystemMenu(FALSE);

  02dee	6a 00		 push	 0
  02df0	8b 4d fc	 mov	 ecx, DWORD PTR _this$[ebp]
  02df3	83 e9 7c	 sub	 ecx, 124		; 0000007cH
  02df6	e8 00 00 00 00	 call	 ?GetSystemMenu@CWnd@@QBEPAVCMenu@@H@Z ; CWnd::GetSystemMenu
  02dfb	89 45 f8	 mov	 DWORD PTR _pMenu$[ebp], eax

; 792  : 	if(pMenu)

  02dfe	83 7d f8 00	 cmp	 DWORD PTR _pMenu$[ebp], 0
  02e02	74 1e		 je	 SHORT $L197662

; 793  : 	{
; 794  : 		pMenu->EnableMenuItem(SC_MAXIMIZE,MF_BYCOMMAND|MF_ENABLED);

  02e04	6a 00		 push	 0
  02e06	68 30 f0 00 00	 push	 61488			; 0000f030H
  02e0b	8b 4d f8	 mov	 ecx, DWORD PTR _pMenu$[ebp]
  02e0e	e8 00 00 00 00	 call	 ?EnableMenuItem@CMenu@@QAEIII@Z ; CMenu::EnableMenuItem

; 795  : 		pMenu->EnableMenuItem(SC_MINIMIZE,MF_BYCOMMAND|MF_DISABLED);

  02e13	6a 02		 push	 2
  02e15	68 20 f0 00 00	 push	 61472			; 0000f020H
  02e1a	8b 4d f8	 mov	 ecx, DWORD PTR _pMenu$[ebp]
  02e1d	e8 00 00 00 00	 call	 ?EnableMenuItem@CMenu@@QAEIII@Z ; CMenu::EnableMenuItem
$L197662:

; 796  : 	}
; 797  : }

  02e22	83 c4 08	 add	 esp, 8
  02e25	3b ec		 cmp	 ebp, esp
  02e27	e8 00 00 00 00	 call	 __RTC_CheckEsp
  02e2c	8b e5		 mov	 esp, ebp
  02e2e	5d		 pop	 ebp
  02e2f	c3		 ret	 0
?IPanelChangeOb_WindowMin@CPlayBoxDlg@@UAEXXZ ENDP	; CPlayBoxDlg::IPanelChangeOb_WindowMin
; Function compile flags: /Odt /RTCsu
_pMenu$ = -8						; size = 4
_this$ = -4						; size = 4
?IPanelChangeOb_WindowRestore@CPlayBoxDlg@@UAEXXZ PROC NEAR ; CPlayBoxDlg::IPanelChangeOb_WindowRestore
; _this$ = ecx

; 800  : {

  02e30	55		 push	 ebp
  02e31	8b ec		 mov	 ebp, esp
  02e33	83 ec 08	 sub	 esp, 8
  02e36	c7 45 f8 cc cc
	cc cc		 mov	 DWORD PTR [ebp-8], -858993460 ; ccccccccH
  02e3d	c7 45 fc cc cc
	cc cc		 mov	 DWORD PTR [ebp-4], -858993460 ; ccccccccH
  02e44	89 4d fc	 mov	 DWORD PTR _this$[ebp], ecx

; 801  : 	ModifyStyle(0,WS_MAXIMIZEBOX|WS_MINIMIZEBOX);

  02e47	6a 00		 push	 0
  02e49	68 00 00 03 00	 push	 196608			; 00030000H
  02e4e	6a 00		 push	 0
  02e50	8b 4d fc	 mov	 ecx, DWORD PTR _this$[ebp]
  02e53	83 e9 7c	 sub	 ecx, 124		; 0000007cH
  02e56	e8 00 00 00 00	 call	 ?ModifyStyle@CWnd@@QAEHKKI@Z ; CWnd::ModifyStyle

; 802  : 	CMenu* pMenu = GetSystemMenu(FALSE);

  02e5b	6a 00		 push	 0
  02e5d	8b 4d fc	 mov	 ecx, DWORD PTR _this$[ebp]
  02e60	83 e9 7c	 sub	 ecx, 124		; 0000007cH
  02e63	e8 00 00 00 00	 call	 ?GetSystemMenu@CWnd@@QBEPAVCMenu@@H@Z ; CWnd::GetSystemMenu
  02e68	89 45 f8	 mov	 DWORD PTR _pMenu$[ebp], eax

; 803  : 	if(pMenu)

  02e6b	83 7d f8 00	 cmp	 DWORD PTR _pMenu$[ebp], 0
  02e6f	74 1e		 je	 SHORT $L197667

; 804  : 	{
; 805  : 		pMenu->EnableMenuItem(SC_MAXIMIZE,MF_BYCOMMAND|MF_ENABLED);

  02e71	6a 00		 push	 0
  02e73	68 30 f0 00 00	 push	 61488			; 0000f030H
  02e78	8b 4d f8	 mov	 ecx, DWORD PTR _pMenu$[ebp]
  02e7b	e8 00 00 00 00	 call	 ?EnableMenuItem@CMenu@@QAEIII@Z ; CMenu::EnableMenuItem

; 806  : 		pMenu->EnableMenuItem(SC_MINIMIZE,MF_BYCOMMAND|MF_ENABLED);

  02e80	6a 00		 push	 0
  02e82	68 20 f0 00 00	 push	 61472			; 0000f020H
  02e87	8b 4d f8	 mov	 ecx, DWORD PTR _pMenu$[ebp]
  02e8a	e8 00 00 00 00	 call	 ?EnableMenuItem@CMenu@@QAEIII@Z ; CMenu::EnableMenuItem
$L197667:

; 807  : 	}
; 808  : }

  02e8f	83 c4 08	 add	 esp, 8
  02e92	3b ec		 cmp	 ebp, esp
  02e94	e8 00 00 00 00	 call	 __RTC_CheckEsp
  02e99	8b e5		 mov	 esp, ebp
  02e9b	5d		 pop	 ebp
  02e9c	c3		 ret	 0
?IPanelChangeOb_WindowRestore@CPlayBoxDlg@@UAEXXZ ENDP	; CPlayBoxDlg::IPanelChangeOb_WindowRestore
_TEXT	ENDS
PUBLIC	??_DCConfigDialog@@QAEXXZ			; CConfigDialog::`vbase destructor'
EXTRN	??0CConfigDialog@@QAE@HPAVCWnd@@@Z:NEAR		; CConfigDialog::CConfigDialog
xdata$x	SEGMENT
$T199944 DD	0ffffffffH
	DD	FLAT:$L199936
$T199938 DD	019930520H
	DD	01H
	DD	FLAT:$T199944
	DD	2 DUP(00H)
	DD	2 DUP(00H)
; Function compile flags: /Odt /RTCsu
xdata$x	ENDS
_TEXT	SEGMENT
_configDlg$ = -1284					; size = 1260
_this$ = -20						; size = 4
__$ArrayPad$ = -16					; size = 4
__$EHRec$ = -12						; size = 12
__$ReturnAddr$ = 4					; size = 4
?OnTrayMenuSetting@CPlayBoxDlg@@QAEXXZ PROC NEAR	; CPlayBoxDlg::OnTrayMenuSetting
; _this$ = ecx

; 811  : {

  02ea0	55		 push	 ebp
  02ea1	8b ec		 mov	 ebp, esp
  02ea3	6a ff		 push	 -1
  02ea5	68 00 00 00 00	 push	 __ehhandler$?OnTrayMenuSetting@CPlayBoxDlg@@QAEXXZ
  02eaa	64 a1 00 00 00
	00		 mov	 eax, DWORD PTR fs:__except_list
  02eb0	50		 push	 eax
  02eb1	64 89 25 00 00
	00 00		 mov	 DWORD PTR fs:__except_list, esp
  02eb8	81 ec fc 04 00
	00		 sub	 esp, 1276		; 000004fcH
  02ebe	57		 push	 edi
  02ebf	51		 push	 ecx
  02ec0	8d bd f8 fa ff
	ff		 lea	 edi, DWORD PTR [ebp-1288]
  02ec6	b9 3f 01 00 00	 mov	 ecx, 319		; 0000013fH
  02ecb	b8 cc cc cc cc	 mov	 eax, -858993460		; ccccccccH
  02ed0	f3 ab		 rep stosd
  02ed2	59		 pop	 ecx
  02ed3	a1 00 00 00 00	 mov	 eax, DWORD PTR ___security_cookie
  02ed8	89 45 f0	 mov	 DWORD PTR __$ArrayPad$[ebp], eax
  02edb	89 4d ec	 mov	 DWORD PTR _this$[ebp], ecx

; 812  : 	CConfigDialog configDlg(0, AfxGetMainWindow());

  02ede	6a 01		 push	 1
  02ee0	e8 00 00 00 00	 call	 ?AfxGetMainWindow@@YAPAVCWnd@@XZ ; AfxGetMainWindow
  02ee5	50		 push	 eax
  02ee6	6a 00		 push	 0
  02ee8	8d 8d fc fa ff
	ff		 lea	 ecx, DWORD PTR _configDlg$[ebp]
  02eee	e8 00 00 00 00	 call	 ??0CConfigDialog@@QAE@HPAVCWnd@@@Z ; CConfigDialog::CConfigDialog
  02ef3	c7 45 fc 00 00
	00 00		 mov	 DWORD PTR __$EHRec$[ebp+8], 0

; 813  : 	configDlg.DoModal();

  02efa	8d 8d fc fa ff
	ff		 lea	 ecx, DWORD PTR _configDlg$[ebp]
  02f00	e8 00 00 00 00	 call	 ?DoModal@CDialog@@UAEHXZ ; CDialog::DoModal

; 814  : }

  02f05	c7 45 fc ff ff
	ff ff		 mov	 DWORD PTR __$EHRec$[ebp+8], -1
  02f0c	8d 8d fc fa ff
	ff		 lea	 ecx, DWORD PTR _configDlg$[ebp]
  02f12	e8 00 00 00 00	 call	 ??_DCConfigDialog@@QAEXXZ
  02f17	52		 push	 edx
  02f18	8b cd		 mov	 ecx, ebp
  02f1a	50		 push	 eax
  02f1b	8d 15 00 00 00
	00		 lea	 edx, DWORD PTR $L199943
  02f21	e8 00 00 00 00	 call	 @_RTC_CheckStackVars@8
  02f26	58		 pop	 eax
  02f27	5a		 pop	 edx
  02f28	8b 4d f4	 mov	 ecx, DWORD PTR __$EHRec$[ebp]
  02f2b	64 89 0d 00 00
	00 00		 mov	 DWORD PTR fs:__except_list, ecx
  02f32	8b 4d f0	 mov	 ecx, DWORD PTR __$ArrayPad$[ebp]
  02f35	e8 00 00 00 00	 call	 @__security_check_cookie@4
  02f3a	5f		 pop	 edi
  02f3b	81 c4 08 05 00
	00		 add	 esp, 1288		; 00000508H
  02f41	3b ec		 cmp	 ebp, esp
  02f43	e8 00 00 00 00	 call	 __RTC_CheckEsp
  02f48	8b e5		 mov	 esp, ebp
  02f4a	5d		 pop	 ebp
  02f4b	c3		 ret	 0
$L199943:
  02f4c	01 00 00 00	 DD	 1
  02f50	00 00 00 00	 DD	 $L199942
$L199942:
  02f54	fc fa ff ff	 DD	 -1284			; fffffafcH
  02f58	ec 04 00 00	 DD	 1260			; 000004ecH
  02f5c	00 00 00 00	 DD	 $L199939
$L199939:
  02f60	63		 DB	 99			; 00000063H
  02f61	6f		 DB	 111			; 0000006fH
  02f62	6e		 DB	 110			; 0000006eH
  02f63	66		 DB	 102			; 00000066H
  02f64	69		 DB	 105			; 00000069H
  02f65	67		 DB	 103			; 00000067H
  02f66	44		 DB	 68			; 00000044H
  02f67	6c		 DB	 108			; 0000006cH
  02f68	67		 DB	 103			; 00000067H
  02f69	00		 DB	 0
_TEXT	ENDS
text$x	SEGMENT
$L199936:
  00490	8d 8d fc fa ff
	ff		 lea	 ecx, DWORD PTR _configDlg$[ebp]
  00496	e9 00 00 00 00	 jmp	 ??_DCConfigDialog@@QAEXXZ
__ehhandler$?OnTrayMenuSetting@CPlayBoxDlg@@QAEXXZ:
  0049b	b8 00 00 00 00	 mov	 eax, OFFSET FLAT:$T199938
  004a0	e9 00 00 00 00	 jmp	 ___CxxFrameHandler
text$x	ENDS
?OnTrayMenuSetting@CPlayBoxDlg@@QAEXXZ ENDP		; CPlayBoxDlg::OnTrayMenuSetting
EXTRN	??1CConfigDialog@@UAE@XZ:NEAR			; CConfigDialog::~CConfigDialog
; Function compile flags: /Odt /RTCsu
;	COMDAT ??_DCConfigDialog@@QAEXXZ
_TEXT	SEGMENT
_this$ = -4						; size = 4
??_DCConfigDialog@@QAEXXZ PROC NEAR			; CConfigDialog::`vbase destructor', COMDAT
; _this$ = ecx
  00000	55		 push	 ebp
  00001	8b ec		 mov	 ebp, esp
  00003	51		 push	 ecx
  00004	c7 45 fc cc cc
	cc cc		 mov	 DWORD PTR [ebp-4], -858993460 ; ccccccccH
  0000b	89 4d fc	 mov	 DWORD PTR _this$[ebp], ecx
  0000e	8b 4d fc	 mov	 ecx, DWORD PTR _this$[ebp]
  00011	e8 00 00 00 00	 call	 ??1CConfigDialog@@UAE@XZ ; CConfigDialog::~CConfigDialog
  00016	8b 4d fc	 mov	 ecx, DWORD PTR _this$[ebp]
  00019	81 c1 e8 04 00
	00		 add	 ecx, 1256		; 000004e8H
  0001f	e8 00 00 00 00	 call	 ??1IMessageObserver@@UAE@XZ ; IMessageObserver::~IMessageObserver
  00024	83 c4 04	 add	 esp, 4
  00027	3b ec		 cmp	 ebp, esp
  00029	e8 00 00 00 00	 call	 __RTC_CheckEsp
  0002e	8b e5		 mov	 esp, ebp
  00030	5d		 pop	 ebp
  00031	c3		 ret	 0
??_DCConfigDialog@@QAEXXZ ENDP				; CConfigDialog::`vbase destructor'
_TEXT	ENDS
EXTRN	__imp__SetForegroundWindow@4:NEAR
EXTRN	?GetSafeHwnd@CWnd@@QBEPAUHWND__@@XZ:NEAR	; CWnd::GetSafeHwnd
EXTRN	?IsWindowVisible@CWnd@@QBEHXZ:NEAR		; CWnd::IsWindowVisible
; Function compile flags: /Odt /RTCsu
_TEXT	SEGMENT
tv132 = -24						; size = 4
tv94 = -20						; size = 4
tv86 = -16						; size = 4
tv80 = -12						; size = 4
_hMainWnd$ = -8						; size = 4
_this$ = -4						; size = 4
?OnTrayMenuOpen@CPlayBoxDlg@@QAEXXZ PROC NEAR		; CPlayBoxDlg::OnTrayMenuOpen
; _this$ = ecx

; 817  : {

  02f70	55		 push	 ebp
  02f71	8b ec		 mov	 ebp, esp
  02f73	83 ec 18	 sub	 esp, 24			; 00000018H
  02f76	56		 push	 esi
  02f77	b8 cc cc cc cc	 mov	 eax, -858993460		; ccccccccH
  02f7c	89 45 e8	 mov	 DWORD PTR [ebp-24], eax
  02f7f	89 45 ec	 mov	 DWORD PTR [ebp-20], eax
  02f82	89 45 f0	 mov	 DWORD PTR [ebp-16], eax
  02f85	89 45 f4	 mov	 DWORD PTR [ebp-12], eax
  02f88	89 45 f8	 mov	 DWORD PTR [ebp-8], eax
  02f8b	89 45 fc	 mov	 DWORD PTR [ebp-4], eax
  02f8e	89 4d fc	 mov	 DWORD PTR _this$[ebp], ecx

; 818  : 	HWND hMainWnd = m_hWnd;

  02f91	8b 45 fc	 mov	 eax, DWORD PTR _this$[ebp]
  02f94	8b 48 20	 mov	 ecx, DWORD PTR [eax+32]
  02f97	89 4d f8	 mov	 DWORD PTR _hMainWnd$[ebp], ecx

; 819  : 
; 820  : 	if(!m_ptrayIcon->m_bDbClicked)//

  02f9a	8b 55 fc	 mov	 edx, DWORD PTR _this$[ebp]
  02f9d	8b 82 90 00 00
	00		 mov	 eax, DWORD PTR [edx+144]
  02fa3	0f b6 88 08 03
	00 00		 movzx	 ecx, BYTE PTR [eax+776]
  02faa	85 c9		 test	 ecx, ecx
  02fac	0f 85 b8 00 00
	00		 jne	 $L197678

; 821  : 	{
; 822  : 		//if( !IsWindowVisible() )//
; 823  : // 		if( IsWindowVisible() && IsIconic() )//
; 824  : 		if (!IsWindowVisible () ||
; 825  : 			IsWindowVisible () && IsIconic ())

  02fb2	8b 4d fc	 mov	 ecx, DWORD PTR _this$[ebp]
  02fb5	e8 00 00 00 00	 call	 ?IsWindowVisible@CWnd@@QBEHXZ ; CWnd::IsWindowVisible
  02fba	85 c0		 test	 eax, eax
  02fbc	74 18		 je	 SHORT $L197682
  02fbe	8b 4d fc	 mov	 ecx, DWORD PTR _this$[ebp]
  02fc1	e8 00 00 00 00	 call	 ?IsWindowVisible@CWnd@@QBEHXZ ; CWnd::IsWindowVisible
  02fc6	85 c0		 test	 eax, eax
  02fc8	74 5e		 je	 SHORT $L197681
  02fca	8b 4d fc	 mov	 ecx, DWORD PTR _this$[ebp]
  02fcd	e8 00 00 00 00	 call	 ?IsIconic@CWnd@@QBEHXZ	; CWnd::IsIconic
  02fd2	85 c0		 test	 eax, eax
  02fd4	74 52		 je	 SHORT $L197681
$L197682:

; 826  : 		{
; 827  : 			GLOBAL_PANELCHANGEDATA->IPanelChange_Restore();

  02fd6	e8 00 00 00 00	 call	 ?AfxGetDataManager2@@YAPAVIDataManager@@XZ ; AfxGetDataManager2
  02fdb	89 45 f4	 mov	 DWORD PTR tv80[ebp], eax
  02fde	8b f4		 mov	 esi, esp
  02fe0	68 00 00 00 00	 push	 OFFSET FLAT:_ID_DATA_PANELCHANGE
  02fe5	8b 55 f4	 mov	 edx, DWORD PTR tv80[ebp]
  02fe8	8b 02		 mov	 eax, DWORD PTR [edx]
  02fea	8b 4d f4	 mov	 ecx, DWORD PTR tv80[ebp]
  02fed	ff 50 0c	 call	 DWORD PTR [eax+12]
  02ff0	3b f4		 cmp	 esi, esp
  02ff2	e8 00 00 00 00	 call	 __RTC_CheckEsp
  02ff7	89 45 f0	 mov	 DWORD PTR tv86[ebp], eax
  02ffa	8b 4d f0	 mov	 ecx, DWORD PTR tv86[ebp]
  02ffd	8b 11		 mov	 edx, DWORD PTR [ecx]
  02fff	8b f4		 mov	 esi, esp
  03001	8b 4d f0	 mov	 ecx, DWORD PTR tv86[ebp]
  03004	ff 52 20	 call	 DWORD PTR [edx+32]
  03007	3b f4		 cmp	 esi, esp
  03009	e8 00 00 00 00	 call	 __RTC_CheckEsp

; 828  : 			::SetForegroundWindow( GetSafeHwnd() );

  0300e	8b 4d fc	 mov	 ecx, DWORD PTR _this$[ebp]
  03011	e8 00 00 00 00	 call	 ?GetSafeHwnd@CWnd@@QBEPAUHWND__@@XZ ; CWnd::GetSafeHwnd
  03016	8b f4		 mov	 esi, esp
  03018	50		 push	 eax
  03019	ff 15 00 00 00
	00		 call	 DWORD PTR __imp__SetForegroundWindow@4
  0301f	3b f4		 cmp	 esi, esp
  03021	e8 00 00 00 00	 call	 __RTC_CheckEsp

; 829  : 		}else

  03026	eb 38		 jmp	 SHORT $L197684
$L197681:

; 830  : 		{
; 831  : 			GLOBAL_PANELCHANGEDATA->IPanelChange_Min();

  03028	e8 00 00 00 00	 call	 ?AfxGetDataManager2@@YAPAVIDataManager@@XZ ; AfxGetDataManager2
  0302d	89 45 ec	 mov	 DWORD PTR tv94[ebp], eax
  03030	8b f4		 mov	 esi, esp
  03032	68 00 00 00 00	 push	 OFFSET FLAT:_ID_DATA_PANELCHANGE
  03037	8b 45 ec	 mov	 eax, DWORD PTR tv94[ebp]
  0303a	8b 10		 mov	 edx, DWORD PTR [eax]
  0303c	8b 4d ec	 mov	 ecx, DWORD PTR tv94[ebp]
  0303f	ff 52 0c	 call	 DWORD PTR [edx+12]
  03042	3b f4		 cmp	 esi, esp
  03044	e8 00 00 00 00	 call	 __RTC_CheckEsp
  03049	89 45 e8	 mov	 DWORD PTR tv132[ebp], eax
  0304c	8b 45 e8	 mov	 eax, DWORD PTR tv132[ebp]
  0304f	8b 10		 mov	 edx, DWORD PTR [eax]
  03051	8b f4		 mov	 esi, esp
  03053	8b 4d e8	 mov	 ecx, DWORD PTR tv132[ebp]
  03056	ff 52 1c	 call	 DWORD PTR [edx+28]
  03059	3b f4		 cmp	 esi, esp
  0305b	e8 00 00 00 00	 call	 __RTC_CheckEsp
$L197684:

; 832  : 		}
; 833  : 		//
; 834  : 		//GLOBAL_PANELCHANGEDATA->IPanelChange_Restore();
; 835  : 		//::SetForegroundWindow( GetSafeHwnd() );
; 836  : 
; 837  : 		m_bStartupRun = false;

  03060	8b 45 fc	 mov	 eax, DWORD PTR _this$[ebp]
  03063	c6 80 88 00 00
	00 00		 mov	 BYTE PTR [eax+136], 0
$L197678:

; 838  : 	}
; 839  : }

  0306a	5e		 pop	 esi
  0306b	83 c4 18	 add	 esp, 24			; 00000018H
  0306e	3b ec		 cmp	 ebp, esp
  03070	e8 00 00 00 00	 call	 __RTC_CheckEsp
  03075	8b e5		 mov	 esp, ebp
  03077	5d		 pop	 ebp
  03078	c3		 ret	 0
?OnTrayMenuOpen@CPlayBoxDlg@@QAEXXZ ENDP		; CPlayBoxDlg::OnTrayMenuOpen
_TEXT	ENDS
EXTRN	__imp__PostMessageA@16:NEAR
; Function compile flags: /Odt /RTCsu
_TEXT	SEGMENT
_this$ = -4						; size = 4
?OnTrayMenuExit@CPlayBoxDlg@@QAEXXZ PROC NEAR		; CPlayBoxDlg::OnTrayMenuExit
; _this$ = ecx

; 842  : {

  03080	55		 push	 ebp
  03081	8b ec		 mov	 ebp, esp
  03083	51		 push	 ecx
  03084	56		 push	 esi
  03085	c7 45 fc cc cc
	cc cc		 mov	 DWORD PTR [ebp-4], -858993460 ; ccccccccH
  0308c	89 4d fc	 mov	 DWORD PTR _this$[ebp], ecx

; 843  : 	::PostMessage(m_hWnd,WM_CLOSE,0,0 );

  0308f	8b f4		 mov	 esi, esp
  03091	6a 00		 push	 0
  03093	6a 00		 push	 0
  03095	6a 10		 push	 16			; 00000010H
  03097	8b 45 fc	 mov	 eax, DWORD PTR _this$[ebp]
  0309a	8b 48 20	 mov	 ecx, DWORD PTR [eax+32]
  0309d	51		 push	 ecx
  0309e	ff 15 00 00 00
	00		 call	 DWORD PTR __imp__PostMessageA@16
  030a4	3b f4		 cmp	 esi, esp
  030a6	e8 00 00 00 00	 call	 __RTC_CheckEsp

; 844  : }

  030ab	5e		 pop	 esi
  030ac	83 c4 04	 add	 esp, 4
  030af	3b ec		 cmp	 ebp, esp
  030b1	e8 00 00 00 00	 call	 __RTC_CheckEsp
  030b6	8b e5		 mov	 esp, ebp
  030b8	5d		 pop	 ebp
  030b9	c3		 ret	 0
?OnTrayMenuExit@CPlayBoxDlg@@QAEXXZ ENDP		; CPlayBoxDlg::OnTrayMenuExit
_TEXT	ENDS
EXTRN	?OnMove@CWnd@@IAEXHH@Z:NEAR			; CWnd::OnMove
EXTRN	?OnMove@CIrregularBorderMgr@@QAEXHH@Z:NEAR	; CIrregularBorderMgr::OnMove
; Function compile flags: /Odt /RTCsu
_TEXT	SEGMENT
tv73 = -36						; size = 4
tv66 = -32						; size = 4
_rc$ = -24						; size = 16
_this$ = -4						; size = 4
_x$ = 8							; size = 4
_y$ = 12						; size = 4
?OnMove@CPlayBoxDlg@@IAEXHH@Z PROC NEAR			; CPlayBoxDlg::OnMove
; _this$ = ecx

; 847  : {

  030c0	55		 push	 ebp
  030c1	8b ec		 mov	 ebp, esp
  030c3	83 ec 24	 sub	 esp, 36			; 00000024H
  030c6	56		 push	 esi
  030c7	b8 cc cc cc cc	 mov	 eax, -858993460		; ccccccccH
  030cc	89 45 dc	 mov	 DWORD PTR [ebp-36], eax
  030cf	89 45 e0	 mov	 DWORD PTR [ebp-32], eax
  030d2	89 45 e4	 mov	 DWORD PTR [ebp-28], eax
  030d5	89 45 e8	 mov	 DWORD PTR [ebp-24], eax
  030d8	89 45 ec	 mov	 DWORD PTR [ebp-20], eax
  030db	89 45 f0	 mov	 DWORD PTR [ebp-16], eax
  030de	89 45 f4	 mov	 DWORD PTR [ebp-12], eax
  030e1	89 45 f8	 mov	 DWORD PTR [ebp-8], eax
  030e4	89 45 fc	 mov	 DWORD PTR [ebp-4], eax
  030e7	89 4d fc	 mov	 DWORD PTR _this$[ebp], ecx

; 848  : 	if( AfxGetUIManager()->UIGetLayoutMgr() != NULL )

  030ea	e8 00 00 00 00	 call	 ?AfxGetUIManager@@YAPAVIUIManager@@XZ ; AfxGetUIManager
  030ef	89 45 e0	 mov	 DWORD PTR tv66[ebp], eax
  030f2	8b 45 e0	 mov	 eax, DWORD PTR tv66[ebp]
  030f5	8b 10		 mov	 edx, DWORD PTR [eax]
  030f7	8b f4		 mov	 esi, esp
  030f9	8b 4d e0	 mov	 ecx, DWORD PTR tv66[ebp]
  030fc	ff 52 24	 call	 DWORD PTR [edx+36]
  030ff	3b f4		 cmp	 esi, esp
  03101	e8 00 00 00 00	 call	 __RTC_CheckEsp
  03106	85 c0		 test	 eax, eax
  03108	74 24		 je	 SHORT $L197694

; 849  : 	{
; 850  : 		AfxGetUIManager()->UIOnMove( x,y );

  0310a	e8 00 00 00 00	 call	 ?AfxGetUIManager@@YAPAVIUIManager@@XZ ; AfxGetUIManager
  0310f	89 45 dc	 mov	 DWORD PTR tv73[ebp], eax
  03112	8b f4		 mov	 esi, esp
  03114	8b 45 0c	 mov	 eax, DWORD PTR _y$[ebp]
  03117	50		 push	 eax
  03118	8b 4d 08	 mov	 ecx, DWORD PTR _x$[ebp]
  0311b	51		 push	 ecx
  0311c	8b 55 dc	 mov	 edx, DWORD PTR tv73[ebp]
  0311f	8b 02		 mov	 eax, DWORD PTR [edx]
  03121	8b 4d dc	 mov	 ecx, DWORD PTR tv73[ebp]
  03124	ff 50 34	 call	 DWORD PTR [eax+52]
  03127	3b f4		 cmp	 esi, esp
  03129	e8 00 00 00 00	 call	 __RTC_CheckEsp
$L197694:

; 851  : 	}
; 852  : 	
; 853  : 	CRect rc;

  0312e	8d 4d e8	 lea	 ecx, DWORD PTR _rc$[ebp]
  03131	e8 00 00 00 00	 call	 ??0CRect@@QAE@XZ	; CRect::CRect

; 854  : 	GetWindowRect(&rc);

  03136	8d 4d e8	 lea	 ecx, DWORD PTR _rc$[ebp]
  03139	51		 push	 ecx
  0313a	8b 4d fc	 mov	 ecx, DWORD PTR _this$[ebp]
  0313d	e8 00 00 00 00	 call	 ?GetWindowRect@CWnd@@QBEXPAUtagRECT@@@Z ; CWnd::GetWindowRect

; 855  : 	if(m_hWnd  != NULL && rc.Width() != 0 && rc.Height() != 0)

  03142	8b 55 fc	 mov	 edx, DWORD PTR _this$[ebp]
  03145	83 7a 20 00	 cmp	 DWORD PTR [edx+32], 0
  03149	74 38		 je	 SHORT $L197696
  0314b	8d 4d e8	 lea	 ecx, DWORD PTR _rc$[ebp]
  0314e	e8 00 00 00 00	 call	 ?Width@CRect@@QBEHXZ	; CRect::Width
  03153	85 c0		 test	 eax, eax
  03155	74 2c		 je	 SHORT $L197696
  03157	8d 4d e8	 lea	 ecx, DWORD PTR _rc$[ebp]
  0315a	e8 00 00 00 00	 call	 ?Height@CRect@@QBEHXZ	; CRect::Height
  0315f	85 c0		 test	 eax, eax
  03161	74 20		 je	 SHORT $L197696

; 856  : 	{
; 857  : 		AfxSetMainWindow(this);

  03163	8b 45 fc	 mov	 eax, DWORD PTR _this$[ebp]
  03166	50		 push	 eax
  03167	e8 00 00 00 00	 call	 ?AfxSetMainWindow@@YAXPAVCWnd@@@Z ; AfxSetMainWindow
  0316c	83 c4 04	 add	 esp, 4

; 858  : 		CIrregularBorderMgr::GetInstance()->OnMove(x,y);

  0316f	8b 4d 0c	 mov	 ecx, DWORD PTR _y$[ebp]
  03172	51		 push	 ecx
  03173	8b 55 08	 mov	 edx, DWORD PTR _x$[ebp]
  03176	52		 push	 edx
  03177	e8 00 00 00 00	 call	 ?GetInstance@CIrregularBorderMgr@@SAPAV1@XZ ; CIrregularBorderMgr::GetInstance
  0317c	8b c8		 mov	 ecx, eax
  0317e	e8 00 00 00 00	 call	 ?OnMove@CIrregularBorderMgr@@QAEXHH@Z ; CIrregularBorderMgr::OnMove
$L197696:

; 859  : 	}
; 860  : 	__super::OnMove(x,y);

  03183	8b 45 0c	 mov	 eax, DWORD PTR _y$[ebp]
  03186	50		 push	 eax
  03187	8b 4d 08	 mov	 ecx, DWORD PTR _x$[ebp]
  0318a	51		 push	 ecx
  0318b	8b 4d fc	 mov	 ecx, DWORD PTR _this$[ebp]
  0318e	e8 00 00 00 00	 call	 ?OnMove@CWnd@@IAEXHH@Z	; CWnd::OnMove

; 861  : }

  03193	52		 push	 edx
  03194	8b cd		 mov	 ecx, ebp
  03196	50		 push	 eax
  03197	8d 15 00 00 00
	00		 lea	 edx, DWORD PTR $L199951
  0319d	e8 00 00 00 00	 call	 @_RTC_CheckStackVars@8
  031a2	58		 pop	 eax
  031a3	5a		 pop	 edx
  031a4	5e		 pop	 esi
  031a5	83 c4 24	 add	 esp, 36			; 00000024H
  031a8	3b ec		 cmp	 ebp, esp
  031aa	e8 00 00 00 00	 call	 __RTC_CheckEsp
  031af	8b e5		 mov	 esp, ebp
  031b1	5d		 pop	 ebp
  031b2	c2 08 00	 ret	 8
$L199951:
  031b5	01 00 00 00	 DD	 1
  031b9	00 00 00 00	 DD	 $L199950
$L199950:
  031bd	e8 ff ff ff	 DD	 -24			; ffffffe8H
  031c1	10 00 00 00	 DD	 16			; 00000010H
  031c5	00 00 00 00	 DD	 $L199949
$L199949:
  031c9	72		 DB	 114			; 00000072H
  031ca	63		 DB	 99			; 00000063H
  031cb	00		 DB	 0
?OnMove@CPlayBoxDlg@@IAEXHH@Z ENDP			; CPlayBoxDlg::OnMove
_TEXT	ENDS
EXTRN	?OnShowWindow@CWnd@@IAEXHI@Z:NEAR		; CWnd::OnShowWindow
; Function compile flags: /Odt /RTCsu
_TEXT	SEGMENT
_rc$ = -24						; size = 16
_this$ = -4						; size = 4
_bShow$ = 8						; size = 4
_nStatus$ = 12						; size = 4
?OnShowWindow@CPlayBoxDlg@@IAEXHI@Z PROC NEAR		; CPlayBoxDlg::OnShowWindow
; _this$ = ecx

; 864  : {

  031d0	55		 push	 ebp
  031d1	8b ec		 mov	 ebp, esp
  031d3	83 ec 1c	 sub	 esp, 28			; 0000001cH
  031d6	b8 cc cc cc cc	 mov	 eax, -858993460		; ccccccccH
  031db	89 45 e4	 mov	 DWORD PTR [ebp-28], eax
  031de	89 45 e8	 mov	 DWORD PTR [ebp-24], eax
  031e1	89 45 ec	 mov	 DWORD PTR [ebp-20], eax
  031e4	89 45 f0	 mov	 DWORD PTR [ebp-16], eax
  031e7	89 45 f4	 mov	 DWORD PTR [ebp-12], eax
  031ea	89 45 f8	 mov	 DWORD PTR [ebp-8], eax
  031ed	89 45 fc	 mov	 DWORD PTR [ebp-4], eax
  031f0	89 4d fc	 mov	 DWORD PTR _this$[ebp], ecx

; 865  : 	CRect rc;

  031f3	8d 4d e8	 lea	 ecx, DWORD PTR _rc$[ebp]
  031f6	e8 00 00 00 00	 call	 ??0CRect@@QAE@XZ	; CRect::CRect

; 866  : 	GetWindowRect(&rc);

  031fb	8d 45 e8	 lea	 eax, DWORD PTR _rc$[ebp]
  031fe	50		 push	 eax
  031ff	8b 4d fc	 mov	 ecx, DWORD PTR _this$[ebp]
  03202	e8 00 00 00 00	 call	 ?GetWindowRect@CWnd@@QBEXPAUtagRECT@@@Z ; CWnd::GetWindowRect

; 867  : 
; 868  : 	if(rc.Width() != 0 && rc.Height() != 0)

  03207	8d 4d e8	 lea	 ecx, DWORD PTR _rc$[ebp]
  0320a	e8 00 00 00 00	 call	 ?Width@CRect@@QBEHXZ	; CRect::Width
  0320f	85 c0		 test	 eax, eax
  03211	74 20		 je	 SHORT $L197703
  03213	8d 4d e8	 lea	 ecx, DWORD PTR _rc$[ebp]
  03216	e8 00 00 00 00	 call	 ?Height@CRect@@QBEHXZ	; CRect::Height
  0321b	85 c0		 test	 eax, eax
  0321d	74 14		 je	 SHORT $L197703

; 869  : 		CIrregularBorderMgr::GetInstance()->ShowTransDlg(bShow);

  0321f	83 7d 08 00	 cmp	 DWORD PTR _bShow$[ebp], 0
  03223	0f 95 c1	 setne	 cl
  03226	51		 push	 ecx
  03227	e8 00 00 00 00	 call	 ?GetInstance@CIrregularBorderMgr@@SAPAV1@XZ ; CIrregularBorderMgr::GetInstance
  0322c	8b c8		 mov	 ecx, eax
  0322e	e8 00 00 00 00	 call	 ?ShowTransDlg@CIrregularBorderMgr@@QAEX_N@Z ; CIrregularBorderMgr::ShowTransDlg
$L197703:

; 870  : 	__super::OnShowWindow(bShow, nStatus);

  03233	8b 55 0c	 mov	 edx, DWORD PTR _nStatus$[ebp]
  03236	52		 push	 edx
  03237	8b 45 08	 mov	 eax, DWORD PTR _bShow$[ebp]
  0323a	50		 push	 eax
  0323b	8b 4d fc	 mov	 ecx, DWORD PTR _this$[ebp]
  0323e	e8 00 00 00 00	 call	 ?OnShowWindow@CWnd@@IAEXHI@Z ; CWnd::OnShowWindow

; 871  : }

  03243	52		 push	 edx
  03244	8b cd		 mov	 ecx, ebp
  03246	50		 push	 eax
  03247	8d 15 00 00 00
	00		 lea	 edx, DWORD PTR $L199955
  0324d	e8 00 00 00 00	 call	 @_RTC_CheckStackVars@8
  03252	58		 pop	 eax
  03253	5a		 pop	 edx
  03254	83 c4 1c	 add	 esp, 28			; 0000001cH
  03257	3b ec		 cmp	 ebp, esp
  03259	e8 00 00 00 00	 call	 __RTC_CheckEsp
  0325e	8b e5		 mov	 esp, ebp
  03260	5d		 pop	 ebp
  03261	c2 08 00	 ret	 8
$L199955:
  03264	01 00 00 00	 DD	 1
  03268	00 00 00 00	 DD	 $L199954
$L199954:
  0326c	e8 ff ff ff	 DD	 -24			; ffffffe8H
  03270	10 00 00 00	 DD	 16			; 00000010H
  03274	00 00 00 00	 DD	 $L199953
$L199953:
  03278	72		 DB	 114			; 00000072H
  03279	63		 DB	 99			; 00000063H
  0327a	00		 DB	 0
?OnShowWindow@CPlayBoxDlg@@IAEXHI@Z ENDP		; CPlayBoxDlg::OnShowWindow
_TEXT	ENDS
PUBLIC	?OnKooWoProtocol@CPlayBoxDlg@@IAEXPBUtagCOPYDATASTRUCT@@@Z ; CPlayBoxDlg::OnKooWoProtocol
; Function compile flags: /Odt /RTCsu
_TEXT	SEGMENT
tv65 = -8						; size = 4
_this$ = -4						; size = 4
_pWnd$ = 8						; size = 4
_pCopyDataStruct$ = 12					; size = 4
?OnCopyData@CPlayBoxDlg@@IAEHPAVCWnd@@PAUtagCOPYDATASTRUCT@@@Z PROC NEAR ; CPlayBoxDlg::OnCopyData
; _this$ = ecx

; 873  : {

  03280	55		 push	 ebp
  03281	8b ec		 mov	 ebp, esp
  03283	83 ec 08	 sub	 esp, 8
  03286	c7 45 f8 cc cc
	cc cc		 mov	 DWORD PTR [ebp-8], -858993460 ; ccccccccH
  0328d	c7 45 fc cc cc
	cc cc		 mov	 DWORD PTR [ebp-4], -858993460 ; ccccccccH
  03294	89 4d fc	 mov	 DWORD PTR _this$[ebp], ecx

; 874  : 	if (!pCopyDataStruct)

  03297	83 7d 0c 00	 cmp	 DWORD PTR _pCopyDataStruct$[ebp], 0
  0329b	75 04		 jne	 SHORT $L197709

; 875  : 		return FALSE;

  0329d	33 c0		 xor	 eax, eax
  0329f	eb 24		 jmp	 SHORT $L197708
$L197709:

; 876  : 
; 877  : 	switch(pCopyDataStruct->dwData)

  032a1	8b 45 0c	 mov	 eax, DWORD PTR _pCopyDataStruct$[ebp]
  032a4	8b 08		 mov	 ecx, DWORD PTR [eax]
  032a6	89 4d f8	 mov	 DWORD PTR tv65[ebp], ecx
  032a9	81 7d f8 64 04
	00 00		 cmp	 DWORD PTR tv65[ebp], 1124 ; 00000464H
  032b0	74 02		 je	 SHORT $L197714
  032b2	eb 0c		 jmp	 SHORT $L197711
$L197714:

; 878  : 	{
; 879  : 	case WM_PLAYBOX_PROTOCOL:
; 880  : 		OnKooWoProtocol(pCopyDataStruct);

  032b4	8b 55 0c	 mov	 edx, DWORD PTR _pCopyDataStruct$[ebp]
  032b7	52		 push	 edx
  032b8	8b 4d fc	 mov	 ecx, DWORD PTR _this$[ebp]
  032bb	e8 00 00 00 00	 call	 ?OnKooWoProtocol@CPlayBoxDlg@@IAEXPBUtagCOPYDATASTRUCT@@@Z ; CPlayBoxDlg::OnKooWoProtocol
$L197711:

; 881  : 		break;
; 882  : 	}
; 883  : 	return TRUE;

  032c0	b8 01 00 00 00	 mov	 eax, 1
$L197708:

; 884  : }

  032c5	83 c4 08	 add	 esp, 8
  032c8	3b ec		 cmp	 ebp, esp
  032ca	e8 00 00 00 00	 call	 __RTC_CheckEsp
  032cf	8b e5		 mov	 esp, ebp
  032d1	5d		 pop	 ebp
  032d2	c2 08 00	 ret	 8
?OnCopyData@CPlayBoxDlg@@IAEHPAVCWnd@@PAUtagCOPYDATASTRUCT@@@Z ENDP ; CPlayBoxDlg::OnCopyData
_TEXT	ENDS
PUBLIC	?OnExecWebCmd@CPlayBoxDlg@@IAEXPBD@Z		; CPlayBoxDlg::OnExecWebCmd
EXTRN	??_U@YAPAXIPBDH@Z:NEAR				; operator new[]
EXTRN	_strcpy:NEAR
EXTRN	_strlen:NEAR
EXTRN	__imp__strstr:NEAR
; Function compile flags: /Odt /RTCsu
_TEXT	SEGMENT
$T199958 = -20						; size = 4
_tmp$ = -16						; size = 4
_i$197725 = -12						; size = 4
_szBuf$ = -8						; size = 4
_this$ = -4						; size = 4
_pCopyDataStruct$ = 8					; size = 4
?OnKooWoProtocol@CPlayBoxDlg@@IAEXPBUtagCOPYDATASTRUCT@@@Z PROC NEAR ; CPlayBoxDlg::OnKooWoProtocol
; _this$ = ecx

; 887  : {

  032e0	55		 push	 ebp
  032e1	8b ec		 mov	 ebp, esp
  032e3	83 ec 14	 sub	 esp, 20			; 00000014H
  032e6	56		 push	 esi
  032e7	b8 cc cc cc cc	 mov	 eax, -858993460		; ccccccccH
  032ec	89 45 ec	 mov	 DWORD PTR [ebp-20], eax
  032ef	89 45 f0	 mov	 DWORD PTR [ebp-16], eax
  032f2	89 45 f4	 mov	 DWORD PTR [ebp-12], eax
  032f5	89 45 f8	 mov	 DWORD PTR [ebp-8], eax
  032f8	89 45 fc	 mov	 DWORD PTR [ebp-4], eax
  032fb	89 4d fc	 mov	 DWORD PTR _this$[ebp], ecx

; 888  : 	char* szBuf = new char[strlen( (LPCTSTR)pCopyDataStruct->lpData)+1];

  032fe	68 78 03 00 00	 push	 888			; 00000378H
  03303	68 00 00 00 00	 push	 OFFSET FLAT:$SG197723
  03308	8b 45 08	 mov	 eax, DWORD PTR _pCopyDataStruct$[ebp]
  0330b	8b 48 08	 mov	 ecx, DWORD PTR [eax+8]
  0330e	51		 push	 ecx
  0330f	e8 00 00 00 00	 call	 _strlen
  03314	83 c4 04	 add	 esp, 4
  03317	83 c0 01	 add	 eax, 1
  0331a	50		 push	 eax
  0331b	e8 00 00 00 00	 call	 ??_U@YAPAXIPBDH@Z	; operator new[]
  03320	83 c4 0c	 add	 esp, 12			; 0000000cH
  03323	89 45 ec	 mov	 DWORD PTR $T199958[ebp], eax
  03326	8b 55 ec	 mov	 edx, DWORD PTR $T199958[ebp]
  03329	89 55 f8	 mov	 DWORD PTR _szBuf$[ebp], edx

; 889  : 	strcpy(szBuf,(LPCTSTR)pCopyDataStruct->lpData);

  0332c	8b 45 08	 mov	 eax, DWORD PTR _pCopyDataStruct$[ebp]
  0332f	8b 48 08	 mov	 ecx, DWORD PTR [eax+8]
  03332	51		 push	 ecx
  03333	8b 55 f8	 mov	 edx, DWORD PTR _szBuf$[ebp]
  03336	52		 push	 edx
  03337	e8 00 00 00 00	 call	 _strcpy
  0333c	83 c4 08	 add	 esp, 8

; 890  : 
; 891  : 	for(int i = 0;i < strlen(szBuf);i++)

  0333f	c7 45 f4 00 00
	00 00		 mov	 DWORD PTR _i$197725[ebp], 0
  03346	eb 09		 jmp	 SHORT $L197726
$L197727:
  03348	8b 45 f4	 mov	 eax, DWORD PTR _i$197725[ebp]
  0334b	83 c0 01	 add	 eax, 1
  0334e	89 45 f4	 mov	 DWORD PTR _i$197725[ebp], eax
$L197726:
  03351	8b 4d f8	 mov	 ecx, DWORD PTR _szBuf$[ebp]
  03354	51		 push	 ecx
  03355	e8 00 00 00 00	 call	 _strlen
  0335a	83 c4 04	 add	 esp, 4
  0335d	39 45 f4	 cmp	 DWORD PTR _i$197725[ebp], eax
  03360	73 19		 jae	 SHORT $L197728

; 892  : 	{
; 893  : 		if( szBuf[i] == '\\')

  03362	8b 55 f8	 mov	 edx, DWORD PTR _szBuf$[ebp]
  03365	03 55 f4	 add	 edx, DWORD PTR _i$197725[ebp]
  03368	0f be 02	 movsx	 eax, BYTE PTR [edx]
  0336b	83 f8 5c	 cmp	 eax, 92			; 0000005cH
  0336e	75 09		 jne	 SHORT $L197729

; 894  : 		{
; 895  : 			szBuf[i] = '/';

  03370	8b 4d f8	 mov	 ecx, DWORD PTR _szBuf$[ebp]
  03373	03 4d f4	 add	 ecx, DWORD PTR _i$197725[ebp]
  03376	c6 01 2f	 mov	 BYTE PTR [ecx], 47	; 0000002fH
$L197729:

; 896  : 		}
; 897  : 	}

  03379	eb cd		 jmp	 SHORT $L197727
$L197728:

; 898  : 	char* tmp = (char*)strstr(szBuf, "://");	

  0337b	8b f4		 mov	 esi, esp
  0337d	68 00 00 00 00	 push	 OFFSET FLAT:$SG197732
  03382	8b 55 f8	 mov	 edx, DWORD PTR _szBuf$[ebp]
  03385	52		 push	 edx
  03386	ff 15 00 00 00
	00		 call	 DWORD PTR __imp__strstr
  0338c	83 c4 08	 add	 esp, 8
  0338f	3b f4		 cmp	 esi, esp
  03391	e8 00 00 00 00	 call	 __RTC_CheckEsp
  03396	89 45 f0	 mov	 DWORD PTR _tmp$[ebp], eax

; 899  : 
; 900  : 	if (tmp == NULL)

  03399	83 7d f0 00	 cmp	 DWORD PTR _tmp$[ebp], 0
  0339d	75 02		 jne	 SHORT $L197733

; 901  : 		return;

  0339f	eb 15		 jmp	 SHORT $L197718
$L197733:

; 902  : 
; 903  : 	tmp += 3;

  033a1	8b 45 f0	 mov	 eax, DWORD PTR _tmp$[ebp]
  033a4	83 c0 03	 add	 eax, 3
  033a7	89 45 f0	 mov	 DWORD PTR _tmp$[ebp], eax

; 904  : 	OnExecWebCmd( tmp );

  033aa	8b 4d f0	 mov	 ecx, DWORD PTR _tmp$[ebp]
  033ad	51		 push	 ecx
  033ae	8b 4d fc	 mov	 ecx, DWORD PTR _this$[ebp]
  033b1	e8 00 00 00 00	 call	 ?OnExecWebCmd@CPlayBoxDlg@@IAEXPBD@Z ; CPlayBoxDlg::OnExecWebCmd
$L197718:

; 905  : }

  033b6	5e		 pop	 esi
  033b7	83 c4 14	 add	 esp, 20			; 00000014H
  033ba	3b ec		 cmp	 ebp, esp
  033bc	e8 00 00 00 00	 call	 __RTC_CheckEsp
  033c1	8b e5		 mov	 esp, ebp
  033c3	5d		 pop	 ebp
  033c4	c2 04 00	 ret	 4
?OnKooWoProtocol@CPlayBoxDlg@@IAEXPBUtagCOPYDATASTRUCT@@@Z ENDP ; CPlayBoxDlg::OnKooWoProtocol
_TEXT	ENDS
PUBLIC	?NotifyWebRefresh@CPlayBoxDlg@@IAEXPBD@Z	; CPlayBoxDlg::NotifyWebRefresh
EXTRN	__imp__strncmp:NEAR
xdata$x	SEGMENT
$T199969 DD	0ffffffffH
	DD	FLAT:$L199961
$T199963 DD	019930520H
	DD	01H
	DD	FLAT:$T199969
	DD	2 DUP(00H)
	DD	2 DUP(00H)
; Function compile flags: /Odt /RTCsu
xdata$x	ENDS
_TEXT	SEGMENT
_strParam$ = -52					; size = 28
_this$ = -20						; size = 4
__$ArrayPad$ = -16					; size = 4
__$EHRec$ = -12						; size = 12
__$ReturnAddr$ = 4					; size = 4
_tmp$ = 8						; size = 4
?OnExecWebCmd@CPlayBoxDlg@@IAEXPBD@Z PROC NEAR		; CPlayBoxDlg::OnExecWebCmd
; _this$ = ecx

; 909  : {

  033d0	55		 push	 ebp
  033d1	8b ec		 mov	 ebp, esp
  033d3	6a ff		 push	 -1
  033d5	68 00 00 00 00	 push	 __ehhandler$?OnExecWebCmd@CPlayBoxDlg@@IAEXPBD@Z
  033da	64 a1 00 00 00
	00		 mov	 eax, DWORD PTR fs:__except_list
  033e0	50		 push	 eax
  033e1	64 89 25 00 00
	00 00		 mov	 DWORD PTR fs:__except_list, esp
  033e8	83 ec 2c	 sub	 esp, 44			; 0000002cH
  033eb	56		 push	 esi
  033ec	57		 push	 edi
  033ed	51		 push	 ecx
  033ee	8d 7d c8	 lea	 edi, DWORD PTR [ebp-56]
  033f1	b9 0b 00 00 00	 mov	 ecx, 11			; 0000000bH
  033f6	b8 cc cc cc cc	 mov	 eax, -858993460		; ccccccccH
  033fb	f3 ab		 rep stosd
  033fd	59		 pop	 ecx
  033fe	a1 00 00 00 00	 mov	 eax, DWORD PTR ___security_cookie
  03403	89 45 f0	 mov	 DWORD PTR __$ArrayPad$[ebp], eax
  03406	89 4d ec	 mov	 DWORD PTR _this$[ebp], ecx

; 910  : 	string strParam;

  03409	8b f4		 mov	 esi, esp
  0340b	8d 4d cc	 lea	 ecx, DWORD PTR _strParam$[ebp]
  0340e	ff 15 00 00 00
	00		 call	 DWORD PTR __imp_??0?$basic_string@DU?$char_traits@D@std@@V?$allocator@D@2@@std@@QAE@XZ
  03414	3b f4		 cmp	 esi, esp
  03416	e8 00 00 00 00	 call	 __RTC_CheckEsp
  0341b	c7 45 fc 00 00
	00 00		 mov	 DWORD PTR __$EHRec$[ebp+8], 0

; 911  : 	if (strncmp(tmp, "add", 3) == 0)

  03422	8b f4		 mov	 esi, esp
  03424	6a 03		 push	 3
  03426	68 00 00 00 00	 push	 OFFSET FLAT:$SG197740
  0342b	8b 45 08	 mov	 eax, DWORD PTR _tmp$[ebp]
  0342e	50		 push	 eax
  0342f	ff 15 00 00 00
	00		 call	 DWORD PTR __imp__strncmp
  03435	83 c4 0c	 add	 esp, 12			; 0000000cH
  03438	3b f4		 cmp	 esi, esp
  0343a	e8 00 00 00 00	 call	 __RTC_CheckEsp
  0343f	85 c0		 test	 eax, eax
  03441	75 02		 jne	 SHORT $L197739

; 912  : 	{	
; 913  : 	}
; 914  : 	else if(strncmp(tmp, "search", 6) == 0)

  03443	eb 50		 jmp	 SHORT $L197741
$L197739:
  03445	8b f4		 mov	 esi, esp
  03447	6a 06		 push	 6
  03449	68 00 00 00 00	 push	 OFFSET FLAT:$SG197743
  0344e	8b 4d 08	 mov	 ecx, DWORD PTR _tmp$[ebp]
  03451	51		 push	 ecx
  03452	ff 15 00 00 00
	00		 call	 DWORD PTR __imp__strncmp
  03458	83 c4 0c	 add	 esp, 12			; 0000000cH
  0345b	3b f4		 cmp	 esi, esp
  0345d	e8 00 00 00 00	 call	 __RTC_CheckEsp
  03462	85 c0		 test	 eax, eax
  03464	75 02		 jne	 SHORT $L197742

; 915  : 	{
; 916  : 	}
; 917  : 	else if(strncmp(tmp,"refresh",7) == 0 )

  03466	eb 2d		 jmp	 SHORT $L197741
$L197742:
  03468	8b f4		 mov	 esi, esp
  0346a	6a 07		 push	 7
  0346c	68 00 00 00 00	 push	 OFFSET FLAT:$SG197746
  03471	8b 55 08	 mov	 edx, DWORD PTR _tmp$[ebp]
  03474	52		 push	 edx
  03475	ff 15 00 00 00
	00		 call	 DWORD PTR __imp__strncmp
  0347b	83 c4 0c	 add	 esp, 12			; 0000000cH
  0347e	3b f4		 cmp	 esi, esp
  03480	e8 00 00 00 00	 call	 __RTC_CheckEsp
  03485	85 c0		 test	 eax, eax
  03487	75 0c		 jne	 SHORT $L197741

; 918  : 	{
; 919  : 		NotifyWebRefresh(tmp);

  03489	8b 45 08	 mov	 eax, DWORD PTR _tmp$[ebp]
  0348c	50		 push	 eax
  0348d	8b 4d ec	 mov	 ecx, DWORD PTR _this$[ebp]
  03490	e8 00 00 00 00	 call	 ?NotifyWebRefresh@CPlayBoxDlg@@IAEXPBD@Z ; CPlayBoxDlg::NotifyWebRefresh
$L197741:

; 920  : 	}
; 921  : }

  03495	c7 45 fc ff ff
	ff ff		 mov	 DWORD PTR __$EHRec$[ebp+8], -1
  0349c	8b f4		 mov	 esi, esp
  0349e	8d 4d cc	 lea	 ecx, DWORD PTR _strParam$[ebp]
  034a1	ff 15 00 00 00
	00		 call	 DWORD PTR __imp_??1?$basic_string@DU?$char_traits@D@std@@V?$allocator@D@2@@std@@QAE@XZ
  034a7	3b f4		 cmp	 esi, esp
  034a9	e8 00 00 00 00	 call	 __RTC_CheckEsp
  034ae	52		 push	 edx
  034af	8b cd		 mov	 ecx, ebp
  034b1	50		 push	 eax
  034b2	8d 15 00 00 00
	00		 lea	 edx, DWORD PTR $L199968
  034b8	e8 00 00 00 00	 call	 @_RTC_CheckStackVars@8
  034bd	58		 pop	 eax
  034be	5a		 pop	 edx
  034bf	8b 4d f4	 mov	 ecx, DWORD PTR __$EHRec$[ebp]
  034c2	64 89 0d 00 00
	00 00		 mov	 DWORD PTR fs:__except_list, ecx
  034c9	8b 4d f0	 mov	 ecx, DWORD PTR __$ArrayPad$[ebp]
  034cc	e8 00 00 00 00	 call	 @__security_check_cookie@4
  034d1	5f		 pop	 edi
  034d2	5e		 pop	 esi
  034d3	83 c4 38	 add	 esp, 56			; 00000038H
  034d6	3b ec		 cmp	 ebp, esp
  034d8	e8 00 00 00 00	 call	 __RTC_CheckEsp
  034dd	8b e5		 mov	 esp, ebp
  034df	5d		 pop	 ebp
  034e0	c2 04 00	 ret	 4
$L199968:
  034e3	01 00 00 00	 DD	 1
  034e7	00 00 00 00	 DD	 $L199967
$L199967:
  034eb	cc ff ff ff	 DD	 -52			; ffffffccH
  034ef	1c 00 00 00	 DD	 28			; 0000001cH
  034f3	00 00 00 00	 DD	 $L199964
$L199964:
  034f7	73		 DB	 115			; 00000073H
  034f8	74		 DB	 116			; 00000074H
  034f9	72		 DB	 114			; 00000072H
  034fa	50		 DB	 80			; 00000050H
  034fb	61		 DB	 97			; 00000061H
  034fc	72		 DB	 114			; 00000072H
  034fd	61		 DB	 97			; 00000061H
  034fe	6d		 DB	 109			; 0000006dH
  034ff	00		 DB	 0
_TEXT	ENDS
text$x	SEGMENT
$L199961:
  004a5	8b f4		 mov	 esi, esp
  004a7	8d 4d cc	 lea	 ecx, DWORD PTR _strParam$[ebp]
  004aa	ff 15 00 00 00
	00		 call	 DWORD PTR __imp_??1?$basic_string@DU?$char_traits@D@std@@V?$allocator@D@2@@std@@QAE@XZ
  004b0	3b f4		 cmp	 esi, esp
  004b2	e9 00 00 00 00	 jmp	 __RTC_CheckEsp
__ehhandler$?OnExecWebCmd@CPlayBoxDlg@@IAEXPBD@Z:
  004b7	b8 00 00 00 00	 mov	 eax, OFFSET FLAT:$T199963
  004bc	e9 00 00 00 00	 jmp	 ___CxxFrameHandler
text$x	ENDS
?OnExecWebCmd@CPlayBoxDlg@@IAEXPBD@Z ENDP		; CPlayBoxDlg::OnExecWebCmd
PUBLIC	??0?$list@PAVIMessageObserver@@V?$allocator@PAVIMessageObserver@@@std@@@std@@QAE@XZ ; std::list<IMessageObserver *,std::allocator<IMessageObserver *> >::list<IMessageObserver *,std::allocator<IMessageObserver *> >
PUBLIC	??1?$list@PAVIMessageObserver@@V?$allocator@PAVIMessageObserver@@@std@@@std@@QAE@XZ ; std::list<IMessageObserver *,std::allocator<IMessageObserver *> >::~list<IMessageObserver *,std::allocator<IMessageObserver *> >
PUBLIC	?begin@?$list@PAVIMessageObserver@@V?$allocator@PAVIMessageObserver@@@std@@@std@@QAE?AViterator@12@XZ ; std::list<IMessageObserver *,std::allocator<IMessageObserver *> >::begin
PUBLIC	?end@?$list@PAVIMessageObserver@@V?$allocator@PAVIMessageObserver@@@std@@@std@@QAE?AViterator@12@XZ ; std::list<IMessageObserver *,std::allocator<IMessageObserver *> >::end
PUBLIC	??9const_iterator@?$list@PAVIMessageObserver@@V?$allocator@PAVIMessageObserver@@@std@@@std@@QBE_NABV012@@Z ; std::list<IMessageObserver *,std::allocator<IMessageObserver *> >::const_iterator::operator!=
PUBLIC	??Diterator@?$list@PAVIMessageObserver@@V?$allocator@PAVIMessageObserver@@@std@@@std@@QBEAAPAVIMessageObserver@@XZ ; std::list<IMessageObserver *,std::allocator<IMessageObserver *> >::iterator::operator*
PUBLIC	??Eiterator@?$list@PAVIMessageObserver@@V?$allocator@PAVIMessageObserver@@@std@@@std@@QAE?AV012@H@Z ; std::list<IMessageObserver *,std::allocator<IMessageObserver *> >::iterator::operator++
PUBLIC	??_R0?AVIWebRefreshObserver@@@8			; IWebRefreshObserver `RTTI Type Descriptor'
EXTRN	___RTDynamicCast:NEAR
xdata$x	SEGMENT
$T199981 DD	0ffffffffH
	DD	FLAT:$L199973
$T199975 DD	019930520H
	DD	01H
	DD	FLAT:$T199981
	DD	2 DUP(00H)
	DD	2 DUP(00H)
xdata$x	ENDS
;	COMDAT ??_R0?AVIWebRefreshObserver@@@8
_DATA	SEGMENT
??_R0?AVIWebRefreshObserver@@@8 DD FLAT:??_7type_info@@6B@ ; IWebRefreshObserver `RTTI Type Descriptor'
	DD	00H
	DB	'.?AVIWebRefreshObserver@@', 00H
; Function compile flags: /Odt /RTCsu
_DATA	ENDS
_TEXT	SEGMENT
tv69 = -64						; size = 4
$T199972 = -60						; size = 4
$T199971 = -56						; size = 4
_pOb$198252 = -52					; size = 4
_itOb$198245 = -44					; size = 4
_listOb$ = -32						; size = 12
_this$ = -16						; size = 4
__$EHRec$ = -12						; size = 12
_psz$ = 8						; size = 4
?NotifyWebRefresh@CPlayBoxDlg@@IAEXPBD@Z PROC NEAR	; CPlayBoxDlg::NotifyWebRefresh
; _this$ = ecx

; 924  : {

  03500	55		 push	 ebp
  03501	8b ec		 mov	 ebp, esp
  03503	6a ff		 push	 -1
  03505	68 00 00 00 00	 push	 __ehhandler$?NotifyWebRefresh@CPlayBoxDlg@@IAEXPBD@Z
  0350a	64 a1 00 00 00
	00		 mov	 eax, DWORD PTR fs:__except_list
  03510	50		 push	 eax
  03511	64 89 25 00 00
	00 00		 mov	 DWORD PTR fs:__except_list, esp
  03518	83 ec 34	 sub	 esp, 52			; 00000034H
  0351b	56		 push	 esi
  0351c	57		 push	 edi
  0351d	51		 push	 ecx
  0351e	8d 7d c0	 lea	 edi, DWORD PTR [ebp-64]
  03521	b9 0d 00 00 00	 mov	 ecx, 13			; 0000000dH
  03526	b8 cc cc cc cc	 mov	 eax, -858993460		; ccccccccH
  0352b	f3 ab		 rep stosd
  0352d	59		 pop	 ecx
  0352e	89 4d f0	 mov	 DWORD PTR _this$[ebp], ecx

; 925  : 	list<IMessageObserver*> listOb;

  03531	8d 4d e0	 lea	 ecx, DWORD PTR _listOb$[ebp]
  03534	e8 00 00 00 00	 call	 ??0?$list@PAVIMessageObserver@@V?$allocator@PAVIMessageObserver@@@std@@@std@@QAE@XZ ; std::list<IMessageObserver *,std::allocator<IMessageObserver *> >::list<IMessageObserver *,std::allocator<IMessageObserver *> >
  03539	c7 45 fc 00 00
	00 00		 mov	 DWORD PTR __$EHRec$[ebp+8], 0

; 926  : 	AfxGetMessageManager()->QueryObservers( ID_MESSAGE_REFRESH,listOb);

  03540	e8 00 00 00 00	 call	 ?AfxGetMessageManager@@YAPAVIMessageManager@@XZ ; AfxGetMessageManager
  03545	89 45 c0	 mov	 DWORD PTR tv69[ebp], eax
  03548	8b f4		 mov	 esi, esp
  0354a	8d 45 e0	 lea	 eax, DWORD PTR _listOb$[ebp]
  0354d	50		 push	 eax
  0354e	68 00 00 00 00	 push	 OFFSET FLAT:_ID_MESSAGE_REFRESH
  03553	8b 4d c0	 mov	 ecx, DWORD PTR tv69[ebp]
  03556	8b 11		 mov	 edx, DWORD PTR [ecx]
  03558	8b 4d c0	 mov	 ecx, DWORD PTR tv69[ebp]
  0355b	ff 52 0c	 call	 DWORD PTR [edx+12]
  0355e	3b f4		 cmp	 esi, esp
  03560	e8 00 00 00 00	 call	 __RTC_CheckEsp

; 927  : 
; 928  : 	for( list<IMessageObserver*>::iterator itOb = listOb.begin();itOb != listOb.end();itOb++ )

  03565	8d 45 d4	 lea	 eax, DWORD PTR _itOb$198245[ebp]
  03568	50		 push	 eax
  03569	8d 4d e0	 lea	 ecx, DWORD PTR _listOb$[ebp]
  0356c	e8 00 00 00 00	 call	 ?begin@?$list@PAVIMessageObserver@@V?$allocator@PAVIMessageObserver@@@std@@@std@@QAE?AViterator@12@XZ ; std::list<IMessageObserver *,std::allocator<IMessageObserver *> >::begin
  03571	eb 0e		 jmp	 SHORT $L198249
$L198250:
  03573	6a 00		 push	 0
  03575	8d 4d c8	 lea	 ecx, DWORD PTR $T199971[ebp]
  03578	51		 push	 ecx
  03579	8d 4d d4	 lea	 ecx, DWORD PTR _itOb$198245[ebp]
  0357c	e8 00 00 00 00	 call	 ??Eiterator@?$list@PAVIMessageObserver@@V?$allocator@PAVIMessageObserver@@@std@@@std@@QAE?AV012@H@Z ; std::list<IMessageObserver *,std::allocator<IMessageObserver *> >::iterator::operator++
$L198249:
  03581	8d 55 c4	 lea	 edx, DWORD PTR $T199972[ebp]
  03584	52		 push	 edx
  03585	8d 4d e0	 lea	 ecx, DWORD PTR _listOb$[ebp]
  03588	e8 00 00 00 00	 call	 ?end@?$list@PAVIMessageObserver@@V?$allocator@PAVIMessageObserver@@@std@@@std@@QAE?AViterator@12@XZ ; std::list<IMessageObserver *,std::allocator<IMessageObserver *> >::end
  0358d	50		 push	 eax
  0358e	8d 4d d4	 lea	 ecx, DWORD PTR _itOb$198245[ebp]
  03591	e8 00 00 00 00	 call	 ??9const_iterator@?$list@PAVIMessageObserver@@V?$allocator@PAVIMessageObserver@@@std@@@std@@QBE_NABV012@@Z ; std::list<IMessageObserver *,std::allocator<IMessageObserver *> >::const_iterator::operator!=
  03596	0f b6 c0	 movzx	 eax, al
  03599	85 c0		 test	 eax, eax
  0359b	74 3e		 je	 SHORT $L198251

; 929  : 	{
; 930  : 		IWebRefreshObserver* pOb = dynamic_cast<IWebRefreshObserver*>(*itOb);

  0359d	6a 00		 push	 0
  0359f	68 00 00 00 00	 push	 OFFSET FLAT:??_R0?AVIWebRefreshObserver@@@8
  035a4	68 00 00 00 00	 push	 OFFSET FLAT:??_R0?AVIMessageObserver@@@8
  035a9	6a 00		 push	 0
  035ab	8d 4d d4	 lea	 ecx, DWORD PTR _itOb$198245[ebp]
  035ae	e8 00 00 00 00	 call	 ??Diterator@?$list@PAVIMessageObserver@@V?$allocator@PAVIMessageObserver@@@std@@@std@@QBEAAPAVIMessageObserver@@XZ ; std::list<IMessageObserver *,std::allocator<IMessageObserver *> >::iterator::operator*
  035b3	8b 08		 mov	 ecx, DWORD PTR [eax]
  035b5	51		 push	 ecx
  035b6	e8 00 00 00 00	 call	 ___RTDynamicCast
  035bb	83 c4 14	 add	 esp, 20			; 00000014H
  035be	89 45 cc	 mov	 DWORD PTR _pOb$198252[ebp], eax

; 931  : 		pOb->IWebRefreshOb_Refresh( psz);

  035c1	8b f4		 mov	 esi, esp
  035c3	8b 55 08	 mov	 edx, DWORD PTR _psz$[ebp]
  035c6	52		 push	 edx
  035c7	8b 45 cc	 mov	 eax, DWORD PTR _pOb$198252[ebp]
  035ca	8b 10		 mov	 edx, DWORD PTR [eax]
  035cc	8b 4d cc	 mov	 ecx, DWORD PTR _pOb$198252[ebp]
  035cf	ff 52 04	 call	 DWORD PTR [edx+4]
  035d2	3b f4		 cmp	 esi, esp
  035d4	e8 00 00 00 00	 call	 __RTC_CheckEsp

; 932  : 	}

  035d9	eb 98		 jmp	 SHORT $L198250
$L198251:

; 933  : }

  035db	c7 45 fc ff ff
	ff ff		 mov	 DWORD PTR __$EHRec$[ebp+8], -1
  035e2	8d 4d e0	 lea	 ecx, DWORD PTR _listOb$[ebp]
  035e5	e8 00 00 00 00	 call	 ??1?$list@PAVIMessageObserver@@V?$allocator@PAVIMessageObserver@@@std@@@std@@QAE@XZ ; std::list<IMessageObserver *,std::allocator<IMessageObserver *> >::~list<IMessageObserver *,std::allocator<IMessageObserver *> >
  035ea	52		 push	 edx
  035eb	8b cd		 mov	 ecx, ebp
  035ed	50		 push	 eax
  035ee	8d 15 00 00 00
	00		 lea	 edx, DWORD PTR $L199980
  035f4	e8 00 00 00 00	 call	 @_RTC_CheckStackVars@8
  035f9	58		 pop	 eax
  035fa	5a		 pop	 edx
  035fb	8b 4d f4	 mov	 ecx, DWORD PTR __$EHRec$[ebp]
  035fe	64 89 0d 00 00
	00 00		 mov	 DWORD PTR fs:__except_list, ecx
  03605	5f		 pop	 edi
  03606	5e		 pop	 esi
  03607	83 c4 40	 add	 esp, 64			; 00000040H
  0360a	3b ec		 cmp	 ebp, esp
  0360c	e8 00 00 00 00	 call	 __RTC_CheckEsp
  03611	8b e5		 mov	 esp, ebp
  03613	5d		 pop	 ebp
  03614	c2 04 00	 ret	 4
$L199980:
  03617	02 00 00 00	 DD	 2
  0361b	00 00 00 00	 DD	 $L199979
$L199979:
  0361f	e0 ff ff ff	 DD	 -32			; ffffffe0H
  03623	0c 00 00 00	 DD	 12			; 0000000cH
  03627	00 00 00 00	 DD	 $L199976
  0362b	d4 ff ff ff	 DD	 -44			; ffffffd4H
  0362f	04 00 00 00	 DD	 4
  03633	00 00 00 00	 DD	 $L199977
$L199977:
  03637	69		 DB	 105			; 00000069H
  03638	74		 DB	 116			; 00000074H
  03639	4f		 DB	 79			; 0000004fH
  0363a	62		 DB	 98			; 00000062H
  0363b	00		 DB	 0
$L199976:
  0363c	6c		 DB	 108			; 0000006cH
  0363d	69		 DB	 105			; 00000069H
  0363e	73		 DB	 115			; 00000073H
  0363f	74		 DB	 116			; 00000074H
  03640	4f		 DB	 79			; 0000004fH
  03641	62		 DB	 98			; 00000062H
  03642	00		 DB	 0
_TEXT	ENDS
text$x	SEGMENT
$L199973:
  004c1	8d 4d e0	 lea	 ecx, DWORD PTR _listOb$[ebp]
  004c4	e9 00 00 00 00	 jmp	 ??1?$list@PAVIMessageObserver@@V?$allocator@PAVIMessageObserver@@@std@@@std@@QAE@XZ ; std::list<IMessageObserver *,std::allocator<IMessageObserver *> >::~list<IMessageObserver *,std::allocator<IMessageObserver *> >
__ehhandler$?NotifyWebRefresh@CPlayBoxDlg@@IAEXPBD@Z:
  004c9	b8 00 00 00 00	 mov	 eax, OFFSET FLAT:$T199975
  004ce	e9 00 00 00 00	 jmp	 ___CxxFrameHandler
text$x	ENDS
?NotifyWebRefresh@CPlayBoxDlg@@IAEXPBD@Z ENDP		; CPlayBoxDlg::NotifyWebRefresh
EXTRN	?GetInstance@CTopPanelControl@@SAPAV1@XZ:NEAR	; CTopPanelControl::GetInstance
EXTRN	?DoMin@CTopPanelControl@@QAEXXZ:NEAR		; CTopPanelControl::DoMin
EXTRN	?checkUpdate@@YAXPBD@Z:NEAR			; checkUpdate
EXTRN	?checkPopUpUpdate@@YAXPAPAUHWND__@@@Z:NEAR	; checkPopUpUpdate
xdata$x	SEGMENT
$T199994 DD	0ffffffffH
	DD	FLAT:$L199987
	DD	00H
	DD	FLAT:$L199988
	DD	0ffffffffH
	DD	FLAT:$L199989
	DD	02H
	DD	FLAT:$L199990
$T199992 DD	019930520H
	DD	04H
	DD	FLAT:$T199994
	DD	2 DUP(00H)
	DD	2 DUP(00H)
; Function compile flags: /Odt /RTCsu
xdata$x	ENDS
_TEXT	SEGMENT
$T199986 = -128						; size = 28
$T199985 = -100						; size = 28
$T199984 = -72						; size = 28
$T199983 = -44						; size = 28
_this$ = -16						; size = 4
__$EHRec$ = -12						; size = 12
___formal$ = 8						; size = 4
___formal$ = 12						; size = 4
?OnAfterUiCreate@CPlayBoxDlg@@IAEJIJ@Z PROC NEAR	; CPlayBoxDlg::OnAfterUiCreate
; _this$ = ecx

; 937  : {

  03650	55		 push	 ebp
  03651	8b ec		 mov	 ebp, esp
  03653	6a ff		 push	 -1
  03655	68 00 00 00 00	 push	 __ehhandler$?OnAfterUiCreate@CPlayBoxDlg@@IAEJIJ@Z
  0365a	64 a1 00 00 00
	00		 mov	 eax, DWORD PTR fs:__except_list
  03660	50		 push	 eax
  03661	64 89 25 00 00
	00 00		 mov	 DWORD PTR fs:__except_list, esp
  03668	83 ec 74	 sub	 esp, 116		; 00000074H
  0366b	56		 push	 esi
  0366c	57		 push	 edi
  0366d	51		 push	 ecx
  0366e	8d 7d 80	 lea	 edi, DWORD PTR [ebp-128]
  03671	b9 1d 00 00 00	 mov	 ecx, 29			; 0000001dH
  03676	b8 cc cc cc cc	 mov	 eax, -858993460		; ccccccccH
  0367b	f3 ab		 rep stosd
  0367d	59		 pop	 ecx
  0367e	89 4d f0	 mov	 DWORD PTR _this$[ebp], ecx

; 938  : 	YL_Log( STR_LOG_FILE ,LOG_NOTICE,"PlayBoxDlg","OnAfterUiCreate==IN" );

  03681	8b f4		 mov	 esi, esp
  03683	68 00 00 00 00	 push	 OFFSET FLAT:$SG198263
  03688	8d 4d d4	 lea	 ecx, DWORD PTR $T199983[ebp]
  0368b	ff 15 00 00 00
	00		 call	 DWORD PTR __imp_??0?$basic_string@DU?$char_traits@D@std@@V?$allocator@D@2@@std@@QAE@PBD@Z
  03691	3b f4		 cmp	 esi, esp
  03693	e8 00 00 00 00	 call	 __RTC_CheckEsp
  03698	c7 45 fc 00 00
	00 00		 mov	 DWORD PTR __$EHRec$[ebp+8], 0
  0369f	8b f4		 mov	 esi, esp
  036a1	68 00 00 00 00	 push	 OFFSET FLAT:$SG198264
  036a6	8d 4d b8	 lea	 ecx, DWORD PTR $T199984[ebp]
  036a9	ff 15 00 00 00
	00		 call	 DWORD PTR __imp_??0?$basic_string@DU?$char_traits@D@std@@V?$allocator@D@2@@std@@QAE@PBD@Z
  036af	3b f4		 cmp	 esi, esp
  036b1	e8 00 00 00 00	 call	 __RTC_CheckEsp
  036b6	c6 45 fc 01	 mov	 BYTE PTR __$EHRec$[ebp+8], 1
  036ba	8b f4		 mov	 esi, esp
  036bc	68 00 00 00 00	 push	 OFFSET FLAT:$SG198262
  036c1	8d 45 d4	 lea	 eax, DWORD PTR $T199983[ebp]
  036c4	50		 push	 eax
  036c5	6a 01		 push	 1
  036c7	8d 4d b8	 lea	 ecx, DWORD PTR $T199984[ebp]
  036ca	51		 push	 ecx
  036cb	ff 15 00 00 00
	00		 call	 DWORD PTR __imp_?YL_Log@@YAXABV?$basic_string@DU?$char_traits@D@std@@V?$allocator@D@2@@std@@H0PBDZZ
  036d1	83 c4 10	 add	 esp, 16			; 00000010H
  036d4	3b f4		 cmp	 esi, esp
  036d6	e8 00 00 00 00	 call	 __RTC_CheckEsp
  036db	c6 45 fc 00	 mov	 BYTE PTR __$EHRec$[ebp+8], 0
  036df	8b f4		 mov	 esi, esp
  036e1	8d 4d b8	 lea	 ecx, DWORD PTR $T199984[ebp]
  036e4	ff 15 00 00 00
	00		 call	 DWORD PTR __imp_??1?$basic_string@DU?$char_traits@D@std@@V?$allocator@D@2@@std@@QAE@XZ
  036ea	3b f4		 cmp	 esi, esp
  036ec	e8 00 00 00 00	 call	 __RTC_CheckEsp
  036f1	c7 45 fc ff ff
	ff ff		 mov	 DWORD PTR __$EHRec$[ebp+8], -1
  036f8	8b f4		 mov	 esi, esp
  036fa	8d 4d d4	 lea	 ecx, DWORD PTR $T199983[ebp]
  036fd	ff 15 00 00 00
	00		 call	 DWORD PTR __imp_??1?$basic_string@DU?$char_traits@D@std@@V?$allocator@D@2@@std@@QAE@XZ
  03703	3b f4		 cmp	 esi, esp
  03705	e8 00 00 00 00	 call	 __RTC_CheckEsp

; 939  : 	checkPopUpUpdate(&g_hSharedWnd);

  0370a	68 00 00 00 00	 push	 OFFSET FLAT:?g_hSharedWnd@@3PAUHWND__@@A ; g_hSharedWnd
  0370f	e8 00 00 00 00	 call	 ?checkPopUpUpdate@@YAXPAPAUHWND__@@@Z ; checkPopUpUpdate
  03714	83 c4 04	 add	 esp, 4

; 940  : 	checkUpdate("PlayBox");

  03717	68 00 00 00 00	 push	 OFFSET FLAT:$SG198265
  0371c	e8 00 00 00 00	 call	 ?checkUpdate@@YAXPBD@Z	; checkUpdate
  03721	83 c4 04	 add	 esp, 4

; 941  : 	if (m_bStartupRun)

  03724	8b 55 f0	 mov	 edx, DWORD PTR _this$[ebp]
  03727	0f b6 82 88 00
	00 00		 movzx	 eax, BYTE PTR [edx+136]
  0372e	85 c0		 test	 eax, eax
  03730	74 0c		 je	 SHORT $L198266

; 942  : 	{
; 943  : 		CTopPanelControl::GetInstance()->DoMin();

  03732	e8 00 00 00 00	 call	 ?GetInstance@CTopPanelControl@@SAPAV1@XZ ; CTopPanelControl::GetInstance
  03737	8b c8		 mov	 ecx, eax
  03739	e8 00 00 00 00	 call	 ?DoMin@CTopPanelControl@@QAEXXZ ; CTopPanelControl::DoMin
$L198266:

; 944  : 	}
; 945  : 
; 946  : 	YL_Log( STR_LOG_FILE ,LOG_NOTICE,"PlayBoxDlg","OnAfterUiCreate==OUT" );

  0373e	8b f4		 mov	 esi, esp
  03740	68 00 00 00 00	 push	 OFFSET FLAT:$SG198270
  03745	8d 4d 9c	 lea	 ecx, DWORD PTR $T199985[ebp]
  03748	ff 15 00 00 00
	00		 call	 DWORD PTR __imp_??0?$basic_string@DU?$char_traits@D@std@@V?$allocator@D@2@@std@@QAE@PBD@Z
  0374e	3b f4		 cmp	 esi, esp
  03750	e8 00 00 00 00	 call	 __RTC_CheckEsp
  03755	c7 45 fc 02 00
	00 00		 mov	 DWORD PTR __$EHRec$[ebp+8], 2
  0375c	8b f4		 mov	 esi, esp
  0375e	68 00 00 00 00	 push	 OFFSET FLAT:$SG198271
  03763	8d 4d 80	 lea	 ecx, DWORD PTR $T199986[ebp]
  03766	ff 15 00 00 00
	00		 call	 DWORD PTR __imp_??0?$basic_string@DU?$char_traits@D@std@@V?$allocator@D@2@@std@@QAE@PBD@Z
  0376c	3b f4		 cmp	 esi, esp
  0376e	e8 00 00 00 00	 call	 __RTC_CheckEsp
  03773	c6 45 fc 03	 mov	 BYTE PTR __$EHRec$[ebp+8], 3
  03777	8b f4		 mov	 esi, esp
  03779	68 00 00 00 00	 push	 OFFSET FLAT:$SG198269
  0377e	8d 4d 9c	 lea	 ecx, DWORD PTR $T199985[ebp]
  03781	51		 push	 ecx
  03782	6a 01		 push	 1
  03784	8d 55 80	 lea	 edx, DWORD PTR $T199986[ebp]
  03787	52		 push	 edx
  03788	ff 15 00 00 00
	00		 call	 DWORD PTR __imp_?YL_Log@@YAXABV?$basic_string@DU?$char_traits@D@std@@V?$allocator@D@2@@std@@H0PBDZZ
  0378e	83 c4 10	 add	 esp, 16			; 00000010H
  03791	3b f4		 cmp	 esi, esp
  03793	e8 00 00 00 00	 call	 __RTC_CheckEsp
  03798	c6 45 fc 02	 mov	 BYTE PTR __$EHRec$[ebp+8], 2
  0379c	8b f4		 mov	 esi, esp
  0379e	8d 4d 80	 lea	 ecx, DWORD PTR $T199986[ebp]
  037a1	ff 15 00 00 00
	00		 call	 DWORD PTR __imp_??1?$basic_string@DU?$char_traits@D@std@@V?$allocator@D@2@@std@@QAE@XZ
  037a7	3b f4		 cmp	 esi, esp
  037a9	e8 00 00 00 00	 call	 __RTC_CheckEsp
  037ae	c7 45 fc ff ff
	ff ff		 mov	 DWORD PTR __$EHRec$[ebp+8], -1
  037b5	8b f4		 mov	 esi, esp
  037b7	8d 4d 9c	 lea	 ecx, DWORD PTR $T199985[ebp]
  037ba	ff 15 00 00 00
	00		 call	 DWORD PTR __imp_??1?$basic_string@DU?$char_traits@D@std@@V?$allocator@D@2@@std@@QAE@XZ
  037c0	3b f4		 cmp	 esi, esp
  037c2	e8 00 00 00 00	 call	 __RTC_CheckEsp

; 947  : 	return 0;

  037c7	33 c0		 xor	 eax, eax

; 948  : }

  037c9	8b 4d f4	 mov	 ecx, DWORD PTR __$EHRec$[ebp]
  037cc	64 89 0d 00 00
	00 00		 mov	 DWORD PTR fs:__except_list, ecx
  037d3	5f		 pop	 edi
  037d4	5e		 pop	 esi
  037d5	81 c4 80 00 00
	00		 add	 esp, 128		; 00000080H
  037db	3b ec		 cmp	 ebp, esp
  037dd	e8 00 00 00 00	 call	 __RTC_CheckEsp
  037e2	8b e5		 mov	 esp, ebp
  037e4	5d		 pop	 ebp
  037e5	c2 08 00	 ret	 8
_TEXT	ENDS
text$x	SEGMENT
$L199987:
  004d3	8b f4		 mov	 esi, esp
  004d5	8d 4d d4	 lea	 ecx, DWORD PTR $T199983[ebp]
  004d8	ff 15 00 00 00
	00		 call	 DWORD PTR __imp_??1?$basic_string@DU?$char_traits@D@std@@V?$allocator@D@2@@std@@QAE@XZ
  004de	3b f4		 cmp	 esi, esp
  004e0	e9 00 00 00 00	 jmp	 __RTC_CheckEsp
$L199988:
  004e5	8b f4		 mov	 esi, esp
  004e7	8d 4d b8	 lea	 ecx, DWORD PTR $T199984[ebp]
  004ea	ff 15 00 00 00
	00		 call	 DWORD PTR __imp_??1?$basic_string@DU?$char_traits@D@std@@V?$allocator@D@2@@std@@QAE@XZ
  004f0	3b f4		 cmp	 esi, esp
  004f2	e9 00 00 00 00	 jmp	 __RTC_CheckEsp
$L199989:
  004f7	8b f4		 mov	 esi, esp
  004f9	8d 4d 9c	 lea	 ecx, DWORD PTR $T199985[ebp]
  004fc	ff 15 00 00 00
	00		 call	 DWORD PTR __imp_??1?$basic_string@DU?$char_traits@D@std@@V?$allocator@D@2@@std@@QAE@XZ
  00502	3b f4		 cmp	 esi, esp
  00504	e9 00 00 00 00	 jmp	 __RTC_CheckEsp
$L199990:
  00509	8b f4		 mov	 esi, esp
  0050b	8d 4d 80	 lea	 ecx, DWORD PTR $T199986[ebp]
  0050e	ff 15 00 00 00
	00		 call	 DWORD PTR __imp_??1?$basic_string@DU?$char_traits@D@std@@V?$allocator@D@2@@std@@QAE@XZ
  00514	3b f4		 cmp	 esi, esp
  00516	e9 00 00 00 00	 jmp	 __RTC_CheckEsp
__ehhandler$?OnAfterUiCreate@CPlayBoxDlg@@IAEJIJ@Z:
  0051b	b8 00 00 00 00	 mov	 eax, OFFSET FLAT:$T199992
  00520	e9 00 00 00 00	 jmp	 ___CxxFrameHandler
text$x	ENDS
?OnAfterUiCreate@CPlayBoxDlg@@IAEJIJ@Z ENDP		; CPlayBoxDlg::OnAfterUiCreate
PUBLIC	??_R0?AVIConfUpdateObserver@@@8			; IConfUpdateObserver `RTTI Type Descriptor'
xdata$x	SEGMENT
$T200007 DD	0ffffffffH
	DD	FLAT:$L199999
$T200001 DD	019930520H
	DD	01H
	DD	FLAT:$T200007
	DD	2 DUP(00H)
	DD	2 DUP(00H)
xdata$x	ENDS
;	COMDAT ??_R0?AVIConfUpdateObserver@@@8
_DATA	SEGMENT
??_R0?AVIConfUpdateObserver@@@8 DD FLAT:??_7type_info@@6B@ ; IConfUpdateObserver `RTTI Type Descriptor'
	DD	00H
	DB	'.?AVIConfUpdateObserver@@', 00H
; Function compile flags: /Odt /RTCsu
_DATA	ENDS
_TEXT	SEGMENT
tv69 = -68						; size = 4
$T199998 = -64						; size = 4
$T199997 = -60						; size = 4
$T199996 = -56						; size = 4
_pOb$198287 = -52					; size = 4
_itOb$198280 = -44					; size = 4
_listOb$ = -32						; size = 12
_this$ = -16						; size = 4
__$EHRec$ = -12						; size = 12
___formal$ = 8						; size = 4
___formal$ = 12						; size = 4
?OnConfUpdate@CPlayBoxDlg@@IAEJIJ@Z PROC NEAR		; CPlayBoxDlg::OnConfUpdate
; _this$ = ecx

; 951  : {

  037f0	55		 push	 ebp
  037f1	8b ec		 mov	 ebp, esp
  037f3	6a ff		 push	 -1
  037f5	68 00 00 00 00	 push	 __ehhandler$?OnConfUpdate@CPlayBoxDlg@@IAEJIJ@Z
  037fa	64 a1 00 00 00
	00		 mov	 eax, DWORD PTR fs:__except_list
  03800	50		 push	 eax
  03801	64 89 25 00 00
	00 00		 mov	 DWORD PTR fs:__except_list, esp
  03808	83 ec 38	 sub	 esp, 56			; 00000038H
  0380b	56		 push	 esi
  0380c	57		 push	 edi
  0380d	51		 push	 ecx
  0380e	8d 7d bc	 lea	 edi, DWORD PTR [ebp-68]
  03811	b9 0e 00 00 00	 mov	 ecx, 14			; 0000000eH
  03816	b8 cc cc cc cc	 mov	 eax, -858993460		; ccccccccH
  0381b	f3 ab		 rep stosd
  0381d	59		 pop	 ecx
  0381e	89 4d f0	 mov	 DWORD PTR _this$[ebp], ecx

; 952  : 	list<IMessageObserver*> listOb;

  03821	8d 4d e0	 lea	 ecx, DWORD PTR _listOb$[ebp]
  03824	e8 00 00 00 00	 call	 ??0?$list@PAVIMessageObserver@@V?$allocator@PAVIMessageObserver@@@std@@@std@@QAE@XZ ; std::list<IMessageObserver *,std::allocator<IMessageObserver *> >::list<IMessageObserver *,std::allocator<IMessageObserver *> >
  03829	c7 45 fc 00 00
	00 00		 mov	 DWORD PTR __$EHRec$[ebp+8], 0

; 953  : 	AfxGetMessageManager()->QueryObservers( ID_MESSAGE_CONFUPDATE,listOb);

  03830	e8 00 00 00 00	 call	 ?AfxGetMessageManager@@YAPAVIMessageManager@@XZ ; AfxGetMessageManager
  03835	89 45 bc	 mov	 DWORD PTR tv69[ebp], eax
  03838	8b f4		 mov	 esi, esp
  0383a	8d 45 e0	 lea	 eax, DWORD PTR _listOb$[ebp]
  0383d	50		 push	 eax
  0383e	68 00 00 00 00	 push	 OFFSET FLAT:_ID_MESSAGE_CONFUPDATE
  03843	8b 4d bc	 mov	 ecx, DWORD PTR tv69[ebp]
  03846	8b 11		 mov	 edx, DWORD PTR [ecx]
  03848	8b 4d bc	 mov	 ecx, DWORD PTR tv69[ebp]
  0384b	ff 52 0c	 call	 DWORD PTR [edx+12]
  0384e	3b f4		 cmp	 esi, esp
  03850	e8 00 00 00 00	 call	 __RTC_CheckEsp

; 954  : 	for( list<IMessageObserver*>::iterator itOb = listOb.begin();itOb != listOb.end();itOb++ )

  03855	8d 45 d4	 lea	 eax, DWORD PTR _itOb$198280[ebp]
  03858	50		 push	 eax
  03859	8d 4d e0	 lea	 ecx, DWORD PTR _listOb$[ebp]
  0385c	e8 00 00 00 00	 call	 ?begin@?$list@PAVIMessageObserver@@V?$allocator@PAVIMessageObserver@@@std@@@std@@QAE?AViterator@12@XZ ; std::list<IMessageObserver *,std::allocator<IMessageObserver *> >::begin
  03861	eb 0e		 jmp	 SHORT $L198284
$L198285:
  03863	6a 00		 push	 0
  03865	8d 4d c8	 lea	 ecx, DWORD PTR $T199996[ebp]
  03868	51		 push	 ecx
  03869	8d 4d d4	 lea	 ecx, DWORD PTR _itOb$198280[ebp]
  0386c	e8 00 00 00 00	 call	 ??Eiterator@?$list@PAVIMessageObserver@@V?$allocator@PAVIMessageObserver@@@std@@@std@@QAE?AV012@H@Z ; std::list<IMessageObserver *,std::allocator<IMessageObserver *> >::iterator::operator++
$L198284:
  03871	8d 55 c4	 lea	 edx, DWORD PTR $T199997[ebp]
  03874	52		 push	 edx
  03875	8d 4d e0	 lea	 ecx, DWORD PTR _listOb$[ebp]
  03878	e8 00 00 00 00	 call	 ?end@?$list@PAVIMessageObserver@@V?$allocator@PAVIMessageObserver@@@std@@@std@@QAE?AViterator@12@XZ ; std::list<IMessageObserver *,std::allocator<IMessageObserver *> >::end
  0387d	50		 push	 eax
  0387e	8d 4d d4	 lea	 ecx, DWORD PTR _itOb$198280[ebp]
  03881	e8 00 00 00 00	 call	 ??9const_iterator@?$list@PAVIMessageObserver@@V?$allocator@PAVIMessageObserver@@@std@@@std@@QBE_NABV012@@Z ; std::list<IMessageObserver *,std::allocator<IMessageObserver *> >::const_iterator::operator!=
  03886	0f b6 c0	 movzx	 eax, al
  03889	85 c0		 test	 eax, eax
  0388b	74 39		 je	 SHORT $L198286

; 955  : 	{
; 956  : 		IConfUpdateObserver* pOb = dynamic_cast<IConfUpdateObserver*>(*itOb);

  0388d	6a 00		 push	 0
  0388f	68 00 00 00 00	 push	 OFFSET FLAT:??_R0?AVIConfUpdateObserver@@@8
  03894	68 00 00 00 00	 push	 OFFSET FLAT:??_R0?AVIMessageObserver@@@8
  03899	6a 00		 push	 0
  0389b	8d 4d d4	 lea	 ecx, DWORD PTR _itOb$198280[ebp]
  0389e	e8 00 00 00 00	 call	 ??Diterator@?$list@PAVIMessageObserver@@V?$allocator@PAVIMessageObserver@@@std@@@std@@QBEAAPAVIMessageObserver@@XZ ; std::list<IMessageObserver *,std::allocator<IMessageObserver *> >::iterator::operator*
  038a3	8b 08		 mov	 ecx, DWORD PTR [eax]
  038a5	51		 push	 ecx
  038a6	e8 00 00 00 00	 call	 ___RTDynamicCast
  038ab	83 c4 14	 add	 esp, 20			; 00000014H
  038ae	89 45 cc	 mov	 DWORD PTR _pOb$198287[ebp], eax

; 957  : 		pOb->IConfUpdate_Update();

  038b1	8b 55 cc	 mov	 edx, DWORD PTR _pOb$198287[ebp]
  038b4	8b 02		 mov	 eax, DWORD PTR [edx]
  038b6	8b f4		 mov	 esi, esp
  038b8	8b 4d cc	 mov	 ecx, DWORD PTR _pOb$198287[ebp]
  038bb	ff 10		 call	 DWORD PTR [eax]
  038bd	3b f4		 cmp	 esi, esp
  038bf	e8 00 00 00 00	 call	 __RTC_CheckEsp

; 958  : 	}

  038c4	eb 9d		 jmp	 SHORT $L198285
$L198286:

; 959  : 	return 0;

  038c6	c7 45 c0 00 00
	00 00		 mov	 DWORD PTR $T199998[ebp], 0
  038cd	c7 45 fc ff ff
	ff ff		 mov	 DWORD PTR __$EHRec$[ebp+8], -1
  038d4	8d 4d e0	 lea	 ecx, DWORD PTR _listOb$[ebp]
  038d7	e8 00 00 00 00	 call	 ??1?$list@PAVIMessageObserver@@V?$allocator@PAVIMessageObserver@@@std@@@std@@QAE@XZ ; std::list<IMessageObserver *,std::allocator<IMessageObserver *> >::~list<IMessageObserver *,std::allocator<IMessageObserver *> >
  038dc	8b 45 c0	 mov	 eax, DWORD PTR $T199998[ebp]

; 960  : }

  038df	52		 push	 edx
  038e0	8b cd		 mov	 ecx, ebp
  038e2	50		 push	 eax
  038e3	8d 15 00 00 00
	00		 lea	 edx, DWORD PTR $L200006
  038e9	e8 00 00 00 00	 call	 @_RTC_CheckStackVars@8
  038ee	58		 pop	 eax
  038ef	5a		 pop	 edx
  038f0	8b 4d f4	 mov	 ecx, DWORD PTR __$EHRec$[ebp]
  038f3	64 89 0d 00 00
	00 00		 mov	 DWORD PTR fs:__except_list, ecx
  038fa	5f		 pop	 edi
  038fb	5e		 pop	 esi
  038fc	83 c4 44	 add	 esp, 68			; 00000044H
  038ff	3b ec		 cmp	 ebp, esp
  03901	e8 00 00 00 00	 call	 __RTC_CheckEsp
  03906	8b e5		 mov	 esp, ebp
  03908	5d		 pop	 ebp
  03909	c2 08 00	 ret	 8
$L200006:
  0390c	02 00 00 00	 DD	 2
  03910	00 00 00 00	 DD	 $L200005
$L200005:
  03914	e0 ff ff ff	 DD	 -32			; ffffffe0H
  03918	0c 00 00 00	 DD	 12			; 0000000cH
  0391c	00 00 00 00	 DD	 $L200002
  03920	d4 ff ff ff	 DD	 -44			; ffffffd4H
  03924	04 00 00 00	 DD	 4
  03928	00 00 00 00	 DD	 $L200003
$L200003:
  0392c	69		 DB	 105			; 00000069H
  0392d	74		 DB	 116			; 00000074H
  0392e	4f		 DB	 79			; 0000004fH
  0392f	62		 DB	 98			; 00000062H
  03930	00		 DB	 0
$L200002:
  03931	6c		 DB	 108			; 0000006cH
  03932	69		 DB	 105			; 00000069H
  03933	73		 DB	 115			; 00000073H
  03934	74		 DB	 116			; 00000074H
  03935	4f		 DB	 79			; 0000004fH
  03936	62		 DB	 98			; 00000062H
  03937	00		 DB	 0
_TEXT	ENDS
text$x	SEGMENT
$L199999:
  00525	8d 4d e0	 lea	 ecx, DWORD PTR _listOb$[ebp]
  00528	e9 00 00 00 00	 jmp	 ??1?$list@PAVIMessageObserver@@V?$allocator@PAVIMessageObserver@@@std@@@std@@QAE@XZ ; std::list<IMessageObserver *,std::allocator<IMessageObserver *> >::~list<IMessageObserver *,std::allocator<IMessageObserver *> >
__ehhandler$?OnConfUpdate@CPlayBoxDlg@@IAEJIJ@Z:
  0052d	b8 00 00 00 00	 mov	 eax, OFFSET FLAT:$T200001
  00532	e9 00 00 00 00	 jmp	 ___CxxFrameHandler
text$x	ENDS
?OnConfUpdate@CPlayBoxDlg@@IAEJIJ@Z ENDP		; CPlayBoxDlg::OnConfUpdate
PUBLIC	??9ATL@@YA_NABV?$CStringT@DV?$StrTraitMFC_DLL@DV?$ChTraitsCRT@D@ATL@@@@@0@PBD@Z ; ATL::operator!=
EXTRN	__imp_?Mid@?$CStringT@DV?$StrTraitMFC_DLL@DV?$ChTraitsCRT@D@ATL@@@@@ATL@@QBE?AV12@H@Z:NEAR
EXTRN	__imp_??A?$CSimpleStringT@D$00@ATL@@QBEDH@Z:NEAR
EXTRN	__imp_??B?$CSimpleStringT@D$00@ATL@@QBEPBDXZ:NEAR
EXTRN	__imp_??0?$CStringT@DV?$StrTraitMFC_DLL@DV?$ChTraitsCRT@D@ATL@@@@@ATL@@QAE@PBD@Z:NEAR
EXTRN	__imp_??4?$CStringT@DV?$StrTraitMFC_DLL@DV?$ChTraitsCRT@D@ATL@@@@@ATL@@QAEAAV01@ABV01@@Z:NEAR
xdata$x	SEGMENT
$T200020 DD	0ffffffffH
	DD	00H
	DD	00H
	DD	FLAT:$L200012
	DD	01H
	DD	FLAT:$L200013
	DD	0ffffffffH
	DD	00H
$T200022 DD	00H
	DD	00H
	DD	00H
	DD	FLAT:$L200011
$T200021 DD	00H
	DD	02H
	DD	03H
	DD	01H
	DD	FLAT:$T200022
$T200015 DD	019930520H
	DD	04H
	DD	FLAT:$T200020
	DD	01H
	DD	FLAT:$T200021
	DD	2 DUP(00H)
; Function compile flags: /Odt /RTCsu
xdata$x	ENDS
_TEXT	SEGMENT
tv145 = -56						; size = 4
tv136 = -52						; size = 4
tv142 = -48						; size = 4
tv141 = -41						; size = 1
tv138 = -40						; size = 4
$T200009 = -36						; size = 4
_str$198298 = -28					; size = 4
_this$ = -20						; size = 4
__$EHRec$ = -16						; size = 16
_wp$ = 8						; size = 4
_lp$ = 12						; size = 4
?OnChangeText@CPlayBoxDlg@@IAEJIJ@Z PROC NEAR		; CPlayBoxDlg::OnChangeText
; _this$ = ecx

; 963  : {

  03940	55		 push	 ebp
  03941	8b ec		 mov	 ebp, esp
  03943	6a ff		 push	 -1
  03945	68 00 00 00 00	 push	 __ehhandler$?OnChangeText@CPlayBoxDlg@@IAEJIJ@Z
  0394a	64 a1 00 00 00
	00		 mov	 eax, DWORD PTR fs:__except_list
  03950	50		 push	 eax
  03951	64 89 25 00 00
	00 00		 mov	 DWORD PTR fs:__except_list, esp
  03958	51		 push	 ecx
  03959	83 ec 28	 sub	 esp, 40			; 00000028H
  0395c	53		 push	 ebx
  0395d	56		 push	 esi
  0395e	57		 push	 edi
  0395f	51		 push	 ecx
  03960	8d 7d c8	 lea	 edi, DWORD PTR [ebp-56]
  03963	b9 0a 00 00 00	 mov	 ecx, 10			; 0000000aH
  03968	b8 cc cc cc cc	 mov	 eax, -858993460		; ccccccccH
  0396d	f3 ab		 rep stosd
  0396f	59		 pop	 ecx
  03970	89 65 f0	 mov	 DWORD PTR __$EHRec$[ebp], esp
  03973	89 4d ec	 mov	 DWORD PTR _this$[ebp], ecx

; 964  : 	if(!IsWindow(m_hWnd))

  03976	8b f4		 mov	 esi, esp
  03978	8b 45 ec	 mov	 eax, DWORD PTR _this$[ebp]
  0397b	8b 48 20	 mov	 ecx, DWORD PTR [eax+32]
  0397e	51		 push	 ecx
  0397f	ff 15 00 00 00
	00		 call	 DWORD PTR __imp__IsWindow@4
  03985	3b f4		 cmp	 esi, esp
  03987	e8 00 00 00 00	 call	 __RTC_CheckEsp
  0398c	85 c0		 test	 eax, eax
  0398e	75 07		 jne	 SHORT $L198296

; 965  : 		return 0;

  03990	33 c0		 xor	 eax, eax
  03992	e9 17 01 00 00	 jmp	 $L198295
$L198296:

; 966  : 	try
; 967  : 	{

  03997	c7 45 fc 00 00
	00 00		 mov	 DWORD PTR __$EHRec$[ebp+12], 0

; 968  : 		CString str = (LPCSTR)wp;

  0399e	8b f4		 mov	 esi, esp
  039a0	8b 55 08	 mov	 edx, DWORD PTR _wp$[ebp]
  039a3	52		 push	 edx
  039a4	8d 4d e4	 lea	 ecx, DWORD PTR _str$198298[ebp]
  039a7	ff 15 00 00 00
	00		 call	 DWORD PTR __imp_??0?$CStringT@DV?$StrTraitMFC_DLL@DV?$ChTraitsCRT@D@ATL@@@@@ATL@@QAE@PBD@Z
  039ad	3b f4		 cmp	 esi, esp
  039af	e8 00 00 00 00	 call	 __RTC_CheckEsp
  039b4	89 45 d8	 mov	 DWORD PTR tv138[ebp], eax
  039b7	c6 45 fc 01	 mov	 BYTE PTR __$EHRec$[ebp+12], 1

; 969  : 		if(str != "" && str[0] == '-')

  039bb	68 00 00 00 00	 push	 OFFSET FLAT:$SG198301
  039c0	8d 45 e4	 lea	 eax, DWORD PTR _str$198298[ebp]
  039c3	50		 push	 eax
  039c4	e8 00 00 00 00	 call	 ??9ATL@@YA_NABV?$CStringT@DV?$StrTraitMFC_DLL@DV?$ChTraitsCRT@D@ATL@@@@@0@PBD@Z ; ATL::operator!=
  039c9	83 c4 08	 add	 esp, 8
  039cc	0f b6 c8	 movzx	 ecx, al
  039cf	85 c9		 test	 ecx, ecx
  039d1	74 71		 je	 SHORT $L198300
  039d3	8b f4		 mov	 esi, esp
  039d5	6a 00		 push	 0
  039d7	8d 4d e4	 lea	 ecx, DWORD PTR _str$198298[ebp]
  039da	ff 15 00 00 00
	00		 call	 DWORD PTR __imp_??A?$CSimpleStringT@D$00@ATL@@QBEDH@Z
  039e0	3b f4		 cmp	 esi, esp
  039e2	e8 00 00 00 00	 call	 __RTC_CheckEsp
  039e7	88 45 d7	 mov	 BYTE PTR tv141[ebp], al
  039ea	0f be 55 d7	 movsx	 edx, BYTE PTR tv141[ebp]
  039ee	83 fa 2d	 cmp	 edx, 45			; 0000002dH
  039f1	75 51		 jne	 SHORT $L198300

; 970  : 			str = str.Mid(1);

  039f3	8b f4		 mov	 esi, esp
  039f5	6a 01		 push	 1
  039f7	8d 45 dc	 lea	 eax, DWORD PTR $T200009[ebp]
  039fa	50		 push	 eax
  039fb	8d 4d e4	 lea	 ecx, DWORD PTR _str$198298[ebp]
  039fe	ff 15 00 00 00
	00		 call	 DWORD PTR __imp_?Mid@?$CStringT@DV?$StrTraitMFC_DLL@DV?$ChTraitsCRT@D@ATL@@@@@ATL@@QBE?AV12@H@Z
  03a04	3b f4		 cmp	 esi, esp
  03a06	e8 00 00 00 00	 call	 __RTC_CheckEsp
  03a0b	89 45 d0	 mov	 DWORD PTR tv142[ebp], eax
  03a0e	8b 4d d0	 mov	 ecx, DWORD PTR tv142[ebp]
  03a11	89 4d cc	 mov	 DWORD PTR tv136[ebp], ecx
  03a14	c6 45 fc 02	 mov	 BYTE PTR __$EHRec$[ebp+12], 2
  03a18	8b f4		 mov	 esi, esp
  03a1a	8b 55 cc	 mov	 edx, DWORD PTR tv136[ebp]
  03a1d	52		 push	 edx
  03a1e	8d 4d e4	 lea	 ecx, DWORD PTR _str$198298[ebp]
  03a21	ff 15 00 00 00
	00		 call	 DWORD PTR __imp_??4?$CStringT@DV?$StrTraitMFC_DLL@DV?$ChTraitsCRT@D@ATL@@@@@ATL@@QAEAAV01@ABV01@@Z
  03a27	3b f4		 cmp	 esi, esp
  03a29	e8 00 00 00 00	 call	 __RTC_CheckEsp
  03a2e	c6 45 fc 01	 mov	 BYTE PTR __$EHRec$[ebp+12], 1
  03a32	8b f4		 mov	 esi, esp
  03a34	8d 4d dc	 lea	 ecx, DWORD PTR $T200009[ebp]
  03a37	ff 15 00 00 00
	00		 call	 DWORD PTR __imp_??1?$CStringT@DV?$StrTraitMFC_DLL@DV?$ChTraitsCRT@D@ATL@@@@@ATL@@QAE@XZ
  03a3d	3b f4		 cmp	 esi, esp
  03a3f	e8 00 00 00 00	 call	 __RTC_CheckEsp
$L198300:

; 971  : 		SetWindowText(str);

  03a44	8b f4		 mov	 esi, esp
  03a46	8d 4d e4	 lea	 ecx, DWORD PTR _str$198298[ebp]
  03a49	ff 15 00 00 00
	00		 call	 DWORD PTR __imp_??B?$CSimpleStringT@D$00@ATL@@QBEPBDXZ
  03a4f	3b f4		 cmp	 esi, esp
  03a51	e8 00 00 00 00	 call	 __RTC_CheckEsp
  03a56	50		 push	 eax
  03a57	8b 4d ec	 mov	 ecx, DWORD PTR _this$[ebp]
  03a5a	e8 00 00 00 00	 call	 ?SetWindowTextA@CWnd@@QAEXPBD@Z ; CWnd::SetWindowTextA

; 972  : 		m_ptrayIcon->SetIcon(theApp.LoadIcon(IDR_MAINFRAME),(LPCSTR)wp);

  03a5f	68 80 00 00 00	 push	 128			; 00000080H
  03a64	b9 00 00 00 00	 mov	 ecx, OFFSET FLAT:?theApp@@3VCPlayBoxApp@@A
  03a69	e8 00 00 00 00	 call	 ?LoadIconA@CWinApp@@QBEPAUHICON__@@I@Z ; CWinApp::LoadIconA
  03a6e	89 45 c8	 mov	 DWORD PTR tv145[ebp], eax
  03a71	8b 45 08	 mov	 eax, DWORD PTR _wp$[ebp]
  03a74	50		 push	 eax
  03a75	8b 4d c8	 mov	 ecx, DWORD PTR tv145[ebp]
  03a78	51		 push	 ecx
  03a79	8b 55 ec	 mov	 edx, DWORD PTR _this$[ebp]
  03a7c	8b 8a 90 00 00
	00		 mov	 ecx, DWORD PTR [edx+144]
  03a82	e8 00 00 00 00	 call	 ?SetIcon@CTrayIcon@@QAEHPAUHICON__@@PBD@Z ; CTrayIcon::SetIcon

; 973  : 	}catch(...){}

  03a87	c6 45 fc 00	 mov	 BYTE PTR __$EHRec$[ebp+12], 0
  03a8b	8b f4		 mov	 esi, esp
  03a8d	8d 4d e4	 lea	 ecx, DWORD PTR _str$198298[ebp]
  03a90	ff 15 00 00 00
	00		 call	 DWORD PTR __imp_??1?$CStringT@DV?$StrTraitMFC_DLL@DV?$ChTraitsCRT@D@ATL@@@@@ATL@@QAE@XZ
  03a96	3b f4		 cmp	 esi, esp
  03a98	e8 00 00 00 00	 call	 __RTC_CheckEsp
  03a9d	eb 06		 jmp	 SHORT $L200010
$L200011:
  03a9f	b8 00 00 00 00	 mov	 eax, $L200010
  03aa4	c3		 ret	 0
$L200010:
  03aa5	c7 45 fc ff ff
	ff ff		 mov	 DWORD PTR __$EHRec$[ebp+12], -1

; 974  : 	return 0;

  03aac	33 c0		 xor	 eax, eax
$L198295:

; 975  : }

  03aae	52		 push	 edx
  03aaf	8b cd		 mov	 ecx, ebp
  03ab1	50		 push	 eax
  03ab2	8d 15 00 00 00
	00		 lea	 edx, DWORD PTR $L200019
  03ab8	e8 00 00 00 00	 call	 @_RTC_CheckStackVars@8
  03abd	58		 pop	 eax
  03abe	5a		 pop	 edx
  03abf	8b 4d f4	 mov	 ecx, DWORD PTR __$EHRec$[ebp+4]
  03ac2	64 89 0d 00 00
	00 00		 mov	 DWORD PTR fs:__except_list, ecx
  03ac9	5f		 pop	 edi
  03aca	5e		 pop	 esi
  03acb	5b		 pop	 ebx
  03acc	83 c4 38	 add	 esp, 56			; 00000038H
  03acf	3b ec		 cmp	 ebp, esp
  03ad1	e8 00 00 00 00	 call	 __RTC_CheckEsp
  03ad6	8b e5		 mov	 esp, ebp
  03ad8	5d		 pop	 ebp
  03ad9	c2 08 00	 ret	 8
$L200019:
  03adc	01 00 00 00	 DD	 1
  03ae0	00 00 00 00	 DD	 $L200018
$L200018:
  03ae4	e4 ff ff ff	 DD	 -28			; ffffffe4H
  03ae8	04 00 00 00	 DD	 4
  03aec	00 00 00 00	 DD	 $L200016
$L200016:
  03af0	73		 DB	 115			; 00000073H
  03af1	74		 DB	 116			; 00000074H
  03af2	72		 DB	 114			; 00000072H
  03af3	00		 DB	 0
_TEXT	ENDS
text$x	SEGMENT
$L200012:
  00537	8b f4		 mov	 esi, esp
  00539	8d 4d e4	 lea	 ecx, DWORD PTR _str$198298[ebp]
  0053c	ff 15 00 00 00
	00		 call	 DWORD PTR __imp_??1?$CStringT@DV?$StrTraitMFC_DLL@DV?$ChTraitsCRT@D@ATL@@@@@ATL@@QAE@XZ
  00542	3b f4		 cmp	 esi, esp
  00544	e9 00 00 00 00	 jmp	 __RTC_CheckEsp
$L200013:
  00549	8b f4		 mov	 esi, esp
  0054b	8d 4d dc	 lea	 ecx, DWORD PTR $T200009[ebp]
  0054e	ff 15 00 00 00
	00		 call	 DWORD PTR __imp_??1?$CStringT@DV?$StrTraitMFC_DLL@DV?$ChTraitsCRT@D@ATL@@@@@ATL@@QAE@XZ
  00554	3b f4		 cmp	 esi, esp
  00556	e9 00 00 00 00	 jmp	 __RTC_CheckEsp
__ehhandler$?OnChangeText@CPlayBoxDlg@@IAEJIJ@Z:
  0055b	b8 00 00 00 00	 mov	 eax, OFFSET FLAT:$T200015
  00560	e9 00 00 00 00	 jmp	 ___CxxFrameHandler
text$x	ENDS
?OnChangeText@CPlayBoxDlg@@IAEJIJ@Z ENDP		; CPlayBoxDlg::OnChangeText
EXTRN	?HTTPFinish_RegID@CHTTPControl@@SAXXZ:NEAR	; CHTTPControl::HTTPFinish_RegID
EXTRN	?HTTPFinish_ConfigFile@CHTTPControl@@SAXXZ:NEAR	; CHTTPControl::HTTPFinish_ConfigFile
EXTRN	?HTTPFinish_UpClientLog@CHTTPControl@@SAXXZ:NEAR ; CHTTPControl::HTTPFinish_UpClientLog
; Function compile flags: /Odt /RTCsu
_TEXT	SEGMENT
_this$ = -4						; size = 4
_w$ = 8							; size = 4
___formal$ = 12						; size = 4
?OnHTTPDonwload@CPlayBoxDlg@@IAEJIJ@Z PROC NEAR		; CPlayBoxDlg::OnHTTPDonwload
; _this$ = ecx

; 978  : {

  03b00	55		 push	 ebp
  03b01	8b ec		 mov	 ebp, esp
  03b03	51		 push	 ecx
  03b04	c7 45 fc cc cc
	cc cc		 mov	 DWORD PTR [ebp-4], -858993460 ; ccccccccH
  03b0b	89 4d fc	 mov	 DWORD PTR _this$[ebp], ecx

; 979  : 	//
; 980  : 	if( w == 1 )

  03b0e	83 7d 08 01	 cmp	 DWORD PTR _w$[ebp], 1
  03b12	75 05		 jne	 SHORT $L198309

; 981  : 	{
; 982  : 		CHTTPControl::HTTPFinish_RegID();

  03b14	e8 00 00 00 00	 call	 ?HTTPFinish_RegID@CHTTPControl@@SAXXZ ; CHTTPControl::HTTPFinish_RegID
$L198309:

; 983  : 	}
; 984  : 	if( w == 2)

  03b19	83 7d 08 02	 cmp	 DWORD PTR _w$[ebp], 2
  03b1d	75 05		 jne	 SHORT $L198310

; 985  : 	{
; 986  : 		CHTTPControl::HTTPFinish_ConfigFile();

  03b1f	e8 00 00 00 00	 call	 ?HTTPFinish_ConfigFile@CHTTPControl@@SAXXZ ; CHTTPControl::HTTPFinish_ConfigFile
$L198310:

; 987  : 		//,3.0,OnHTTPDonwload
; 988  : 		//CMainMsgControl::GetInstance()->ResetPopedMsgNum();
; 989  : 		//::SetTimer(m_hWnd,TIMER_POP_MESSAGE,3000,NULL);
; 990  : 		//
; 991  : 		//list<IMessageObserver*> listOb;
; 992  : 		//AfxGetMessageManager()->QueryObservers( ID_MESSAGE_CONFUPDATE,listOb);
; 993  : 		//for( list<IMessageObserver*>::iterator itOb = listOb.begin();itOb != listOb.end();itOb++ )
; 994  : 		//{
; 995  : 		//	IConfUpdateObserver* pOb = dynamic_cast<IConfUpdateObserver*>(*itOb);
; 996  : 		//	pOb->IConfUpdate_ConfigFile();
; 997  : 		//}
; 998  : 	}
; 999  : 	if( w == 3)

  03b24	83 7d 08 03	 cmp	 DWORD PTR _w$[ebp], 3
  03b28	75 05		 jne	 SHORT $L198311

; 1000 : 	{
; 1001 : 		CHTTPControl::HTTPFinish_UpClientLog();

  03b2a	e8 00 00 00 00	 call	 ?HTTPFinish_UpClientLog@CHTTPControl@@SAXXZ ; CHTTPControl::HTTPFinish_UpClientLog
$L198311:

; 1002 : 	}
; 1003 : 	return 0;

  03b2f	33 c0		 xor	 eax, eax

; 1004 : }

  03b31	83 c4 04	 add	 esp, 4
  03b34	3b ec		 cmp	 ebp, esp
  03b36	e8 00 00 00 00	 call	 __RTC_CheckEsp
  03b3b	8b e5		 mov	 esp, ebp
  03b3d	5d		 pop	 ebp
  03b3e	c2 08 00	 ret	 8
?OnHTTPDonwload@CPlayBoxDlg@@IAEJIJ@Z ENDP		; CPlayBoxDlg::OnHTTPDonwload
_TEXT	ENDS
EXTRN	?OnGetMinMaxInfo@CWnd@@IAEXPAUtagMINMAXINFO@@@Z:NEAR ; CWnd::OnGetMinMaxInfo
; Function compile flags: /Odt /RTCsu
_TEXT	SEGMENT
_rcWorkArea$ = -24					; size = 16
_this$ = -4						; size = 4
_lpMMI$ = 8						; size = 4
?OnGetMinMaxInfo@CPlayBoxDlg@@QAEXPAUtagMINMAXINFO@@@Z PROC NEAR ; CPlayBoxDlg::OnGetMinMaxInfo
; _this$ = ecx

; 1006 : {

  03b50	55		 push	 ebp
  03b51	8b ec		 mov	 ebp, esp
  03b53	83 ec 1c	 sub	 esp, 28			; 0000001cH
  03b56	56		 push	 esi
  03b57	b8 cc cc cc cc	 mov	 eax, -858993460		; ccccccccH
  03b5c	89 45 e4	 mov	 DWORD PTR [ebp-28], eax
  03b5f	89 45 e8	 mov	 DWORD PTR [ebp-24], eax
  03b62	89 45 ec	 mov	 DWORD PTR [ebp-20], eax
  03b65	89 45 f0	 mov	 DWORD PTR [ebp-16], eax
  03b68	89 45 f4	 mov	 DWORD PTR [ebp-12], eax
  03b6b	89 45 f8	 mov	 DWORD PTR [ebp-8], eax
  03b6e	89 45 fc	 mov	 DWORD PTR [ebp-4], eax
  03b71	89 4d fc	 mov	 DWORD PTR _this$[ebp], ecx

; 1007 : 	// TODO: Add your message handler code here and/or call default
; 1008 : 
; 1009 : 	RECT rcWorkArea;
; 1010 : 	SystemParametersInfo (SPI_GETWORKAREA, 0, (PVOID)&rcWorkArea, 0);

  03b74	8b f4		 mov	 esi, esp
  03b76	6a 00		 push	 0
  03b78	8d 45 e8	 lea	 eax, DWORD PTR _rcWorkArea$[ebp]
  03b7b	50		 push	 eax
  03b7c	6a 00		 push	 0
  03b7e	6a 30		 push	 48			; 00000030H
  03b80	ff 15 00 00 00
	00		 call	 DWORD PTR __imp__SystemParametersInfoA@16
  03b86	3b f4		 cmp	 esi, esp
  03b88	e8 00 00 00 00	 call	 __RTC_CheckEsp

; 1011 : 
; 1012 : 	if (lpMMI->ptMaxSize.x > rcWorkArea.right)

  03b8d	8b 4d 08	 mov	 ecx, DWORD PTR _lpMMI$[ebp]
  03b90	8b 51 08	 mov	 edx, DWORD PTR [ecx+8]
  03b93	3b 55 f0	 cmp	 edx, DWORD PTR _rcWorkArea$[ebp+8]
  03b96	7e 09		 jle	 SHORT $L198318

; 1013 : 		lpMMI->ptMaxSize.x = rcWorkArea.right;

  03b98	8b 45 08	 mov	 eax, DWORD PTR _lpMMI$[ebp]
  03b9b	8b 4d f0	 mov	 ecx, DWORD PTR _rcWorkArea$[ebp+8]
  03b9e	89 48 08	 mov	 DWORD PTR [eax+8], ecx
$L198318:

; 1014 : 
; 1015 : 	if (lpMMI->ptMaxSize.y > rcWorkArea.bottom)

  03ba1	8b 55 08	 mov	 edx, DWORD PTR _lpMMI$[ebp]
  03ba4	8b 42 0c	 mov	 eax, DWORD PTR [edx+12]
  03ba7	3b 45 f4	 cmp	 eax, DWORD PTR _rcWorkArea$[ebp+12]
  03baa	7e 09		 jle	 SHORT $L198319

; 1016 : 		lpMMI->ptMaxSize.y = rcWorkArea.bottom;

  03bac	8b 4d 08	 mov	 ecx, DWORD PTR _lpMMI$[ebp]
  03baf	8b 55 f4	 mov	 edx, DWORD PTR _rcWorkArea$[ebp+12]
  03bb2	89 51 0c	 mov	 DWORD PTR [ecx+12], edx
$L198319:

; 1017 : 
; 1018 : 	__super::OnGetMinMaxInfo(lpMMI);

  03bb5	8b 45 08	 mov	 eax, DWORD PTR _lpMMI$[ebp]
  03bb8	50		 push	 eax
  03bb9	8b 4d fc	 mov	 ecx, DWORD PTR _this$[ebp]
  03bbc	e8 00 00 00 00	 call	 ?OnGetMinMaxInfo@CWnd@@IAEXPAUtagMINMAXINFO@@@Z ; CWnd::OnGetMinMaxInfo

; 1019 : }

  03bc1	52		 push	 edx
  03bc2	8b cd		 mov	 ecx, ebp
  03bc4	50		 push	 eax
  03bc5	8d 15 00 00 00
	00		 lea	 edx, DWORD PTR $L200027
  03bcb	e8 00 00 00 00	 call	 @_RTC_CheckStackVars@8
  03bd0	58		 pop	 eax
  03bd1	5a		 pop	 edx
  03bd2	5e		 pop	 esi
  03bd3	83 c4 1c	 add	 esp, 28			; 0000001cH
  03bd6	3b ec		 cmp	 ebp, esp
  03bd8	e8 00 00 00 00	 call	 __RTC_CheckEsp
  03bdd	8b e5		 mov	 esp, ebp
  03bdf	5d		 pop	 ebp
  03be0	c2 04 00	 ret	 4
$L200027:
  03be3	01 00 00 00	 DD	 1
  03be7	00 00 00 00	 DD	 $L200026
$L200026:
  03beb	e8 ff ff ff	 DD	 -24			; ffffffe8H
  03bef	10 00 00 00	 DD	 16			; 00000010H
  03bf3	00 00 00 00	 DD	 $L200025
$L200025:
  03bf7	72		 DB	 114			; 00000072H
  03bf8	63		 DB	 99			; 00000063H
  03bf9	57		 DB	 87			; 00000057H
  03bfa	6f		 DB	 111			; 0000006fH
  03bfb	72		 DB	 114			; 00000072H
  03bfc	6b		 DB	 107			; 0000006bH
  03bfd	41		 DB	 65			; 00000041H
  03bfe	72		 DB	 114			; 00000072H
  03bff	65		 DB	 101			; 00000065H
  03c00	61		 DB	 97			; 00000061H
  03c01	00		 DB	 0
?OnGetMinMaxInfo@CPlayBoxDlg@@QAEXPAUtagMINMAXINFO@@@Z ENDP ; CPlayBoxDlg::OnGetMinMaxInfo
_TEXT	ENDS
EXTRN	__imp_?Compare@?$CStringT@DV?$StrTraitMFC_DLL@DV?$ChTraitsCRT@D@ATL@@@@@ATL@@QBEHPBD@Z:NEAR
; Function compile flags: /Odt /RTCsu
; File d:\program files (x86)\microsoft visual studio .net 2003\vc7\atlmfc\include\cstringt.h
;	COMDAT ??9ATL@@YA_NABV?$CStringT@DV?$StrTraitMFC_DLL@DV?$ChTraitsCRT@D@ATL@@@@@0@PBD@Z
_TEXT	SEGMENT
_str1$ = 8						; size = 4
_psz2$ = 12						; size = 4
??9ATL@@YA_NABV?$CStringT@DV?$StrTraitMFC_DLL@DV?$ChTraitsCRT@D@ATL@@@@@0@PBD@Z PROC NEAR ; ATL::operator!=, COMDAT

; 2121 : 	{

  00000	55		 push	 ebp
  00001	8b ec		 mov	 ebp, esp
  00003	56		 push	 esi

; 2122 : 		return( str1.Compare( psz2 ) != 0 );

  00004	8b f4		 mov	 esi, esp
  00006	8b 45 0c	 mov	 eax, DWORD PTR _psz2$[ebp]
  00009	50		 push	 eax
  0000a	8b 4d 08	 mov	 ecx, DWORD PTR _str1$[ebp]
  0000d	ff 15 00 00 00
	00		 call	 DWORD PTR __imp_?Compare@?$CStringT@DV?$StrTraitMFC_DLL@DV?$ChTraitsCRT@D@ATL@@@@@ATL@@QBEHPBD@Z
  00013	3b f4		 cmp	 esi, esp
  00015	e8 00 00 00 00	 call	 __RTC_CheckEsp
  0001a	f7 d8		 neg	 eax
  0001c	1b c0		 sbb	 eax, eax
  0001e	f7 d8		 neg	 eax

; 2123 : 	}

  00020	5e		 pop	 esi
  00021	3b ec		 cmp	 ebp, esp
  00023	e8 00 00 00 00	 call	 __RTC_CheckEsp
  00028	5d		 pop	 ebp
  00029	c3		 ret	 0
??9ATL@@YA_NABV?$CStringT@DV?$StrTraitMFC_DLL@DV?$ChTraitsCRT@D@ATL@@@@@0@PBD@Z ENDP ; ATL::operator!=
_TEXT	ENDS
PUBLIC	??0?$allocator@PAVIMessageObserver@@@std@@QAE@XZ ; std::allocator<IMessageObserver *>::allocator<IMessageObserver *>
PUBLIC	??0?$_List_val@PAVIMessageObserver@@V?$allocator@PAVIMessageObserver@@@std@@@std@@IAE@V?$allocator@PAVIMessageObserver@@@1@@Z ; std::_List_val<IMessageObserver *,std::allocator<IMessageObserver *> >::_List_val<IMessageObserver *,std::allocator<IMessageObserver *> >
PUBLIC	?_Buynode@?$list@PAVIMessageObserver@@V?$allocator@PAVIMessageObserver@@@std@@@std@@IAEPAU_Node@?$_List_nod@PAVIMessageObserver@@V?$allocator@PAVIMessageObserver@@@std@@@2@XZ ; std::list<IMessageObserver *,std::allocator<IMessageObserver *> >::_Buynode
; Function compile flags: /Odt /RTCsu
; File d:\program files (x86)\microsoft visual studio .net 2003\vc7\include\list
;	COMDAT ??0?$list@PAVIMessageObserver@@V?$allocator@PAVIMessageObserver@@@std@@@std@@QAE@XZ
_TEXT	SEGMENT
_this$ = -4						; size = 4
??0?$list@PAVIMessageObserver@@V?$allocator@PAVIMessageObserver@@@std@@@std@@QAE@XZ PROC NEAR ; std::list<IMessageObserver *,std::allocator<IMessageObserver *> >::list<IMessageObserver *,std::allocator<IMessageObserver *> >, COMDAT
; _this$ = ecx

; 280  : 		{	// construct empty list

  00000	55		 push	 ebp
  00001	8b ec		 mov	 ebp, esp
  00003	83 ec 08	 sub	 esp, 8
  00006	c7 45 f8 cc cc
	cc cc		 mov	 DWORD PTR [ebp-8], -858993460 ; ccccccccH
  0000d	c7 45 fc cc cc
	cc cc		 mov	 DWORD PTR [ebp-4], -858993460 ; ccccccccH
  00014	89 4d fc	 mov	 DWORD PTR _this$[ebp], ecx
  00017	51		 push	 ecx
  00018	8b cc		 mov	 ecx, esp
  0001a	e8 00 00 00 00	 call	 ??0?$allocator@PAVIMessageObserver@@@std@@QAE@XZ ; std::allocator<IMessageObserver *>::allocator<IMessageObserver *>
  0001f	8b 4d fc	 mov	 ecx, DWORD PTR _this$[ebp]
  00022	e8 00 00 00 00	 call	 ??0?$_List_val@PAVIMessageObserver@@V?$allocator@PAVIMessageObserver@@@std@@@std@@IAE@V?$allocator@PAVIMessageObserver@@@1@@Z ; std::_List_val<IMessageObserver *,std::allocator<IMessageObserver *> >::_List_val<IMessageObserver *,std::allocator<IMessageObserver *> >
  00027	8b 4d fc	 mov	 ecx, DWORD PTR _this$[ebp]
  0002a	e8 00 00 00 00	 call	 ?_Buynode@?$list@PAVIMessageObserver@@V?$allocator@PAVIMessageObserver@@@std@@@std@@IAEPAU_Node@?$_List_nod@PAVIMessageObserver@@V?$allocator@PAVIMessageObserver@@@std@@@2@XZ ; std::list<IMessageObserver *,std::allocator<IMessageObserver *> >::_Buynode
  0002f	8b 4d fc	 mov	 ecx, DWORD PTR _this$[ebp]
  00032	89 41 04	 mov	 DWORD PTR [ecx+4], eax
  00035	8b 55 fc	 mov	 edx, DWORD PTR _this$[ebp]
  00038	c7 42 08 00 00
	00 00		 mov	 DWORD PTR [edx+8], 0

; 281  : 		}

  0003f	8b 45 fc	 mov	 eax, DWORD PTR _this$[ebp]
  00042	83 c4 08	 add	 esp, 8
  00045	3b ec		 cmp	 ebp, esp
  00047	e8 00 00 00 00	 call	 __RTC_CheckEsp
  0004c	8b e5		 mov	 esp, ebp
  0004e	5d		 pop	 ebp
  0004f	c3		 ret	 0
??0?$list@PAVIMessageObserver@@V?$allocator@PAVIMessageObserver@@@std@@@std@@QAE@XZ ENDP ; std::list<IMessageObserver *,std::allocator<IMessageObserver *> >::list<IMessageObserver *,std::allocator<IMessageObserver *> >
_TEXT	ENDS
PUBLIC	?_Tidy@?$list@PAVIMessageObserver@@V?$allocator@PAVIMessageObserver@@@std@@@std@@IAEXXZ ; std::list<IMessageObserver *,std::allocator<IMessageObserver *> >::_Tidy
; Function compile flags: /Odt /RTCsu
;	COMDAT ??1?$list@PAVIMessageObserver@@V?$allocator@PAVIMessageObserver@@@std@@@std@@QAE@XZ
_TEXT	SEGMENT
_this$ = -4						; size = 4
??1?$list@PAVIMessageObserver@@V?$allocator@PAVIMessageObserver@@@std@@@std@@QAE@XZ PROC NEAR ; std::list<IMessageObserver *,std::allocator<IMessageObserver *> >::~list<IMessageObserver *,std::allocator<IMessageObserver *> >, COMDAT
; _this$ = ecx

; 364  : 		{	// destroy the object

  00000	55		 push	 ebp
  00001	8b ec		 mov	 ebp, esp
  00003	51		 push	 ecx
  00004	c7 45 fc cc cc
	cc cc		 mov	 DWORD PTR [ebp-4], -858993460 ; ccccccccH
  0000b	89 4d fc	 mov	 DWORD PTR _this$[ebp], ecx

; 365  : 		_Tidy();

  0000e	8b 4d fc	 mov	 ecx, DWORD PTR _this$[ebp]
  00011	e8 00 00 00 00	 call	 ?_Tidy@?$list@PAVIMessageObserver@@V?$allocator@PAVIMessageObserver@@@std@@@std@@IAEXXZ ; std::list<IMessageObserver *,std::allocator<IMessageObserver *> >::_Tidy

; 366  : 		}

  00016	83 c4 04	 add	 esp, 4
  00019	3b ec		 cmp	 ebp, esp
  0001b	e8 00 00 00 00	 call	 __RTC_CheckEsp
  00020	8b e5		 mov	 esp, ebp
  00022	5d		 pop	 ebp
  00023	c3		 ret	 0
??1?$list@PAVIMessageObserver@@V?$allocator@PAVIMessageObserver@@@std@@@std@@QAE@XZ ENDP ; std::list<IMessageObserver *,std::allocator<IMessageObserver *> >::~list<IMessageObserver *,std::allocator<IMessageObserver *> >
_TEXT	ENDS
PUBLIC	?_Nextnode@?$list@PAVIMessageObserver@@V?$allocator@PAVIMessageObserver@@@std@@@std@@KAAAPAU_Node@?$_List_nod@PAVIMessageObserver@@V?$allocator@PAVIMessageObserver@@@std@@@2@PAU342@@Z ; std::list<IMessageObserver *,std::allocator<IMessageObserver *> >::_Nextnode
PUBLIC	??0iterator@?$list@PAVIMessageObserver@@V?$allocator@PAVIMessageObserver@@@std@@@std@@QAE@PAU_Node@?$_List_nod@PAVIMessageObserver@@V?$allocator@PAVIMessageObserver@@@std@@@2@@Z ; std::list<IMessageObserver *,std::allocator<IMessageObserver *> >::iterator::iterator
; Function compile flags: /Odt /RTCsu
;	COMDAT ?begin@?$list@PAVIMessageObserver@@V?$allocator@PAVIMessageObserver@@@std@@@std@@QAE?AViterator@12@XZ
_TEXT	SEGMENT
_this$ = -4						; size = 4
___$ReturnUdt$ = 8					; size = 4
?begin@?$list@PAVIMessageObserver@@V?$allocator@PAVIMessageObserver@@@std@@@std@@QAE?AViterator@12@XZ PROC NEAR ; std::list<IMessageObserver *,std::allocator<IMessageObserver *> >::begin, COMDAT
; _this$ = ecx

; 376  : 		{	// return iterator for beginning of mutable sequence

  00000	55		 push	 ebp
  00001	8b ec		 mov	 ebp, esp
  00003	51		 push	 ecx
  00004	c7 45 fc cc cc
	cc cc		 mov	 DWORD PTR [ebp-4], -858993460 ; ccccccccH
  0000b	89 4d fc	 mov	 DWORD PTR _this$[ebp], ecx

; 377  : 		return (iterator(_Nextnode(_Myhead)));

  0000e	8b 45 fc	 mov	 eax, DWORD PTR _this$[ebp]
  00011	8b 48 04	 mov	 ecx, DWORD PTR [eax+4]
  00014	51		 push	 ecx
  00015	e8 00 00 00 00	 call	 ?_Nextnode@?$list@PAVIMessageObserver@@V?$allocator@PAVIMessageObserver@@@std@@@std@@KAAAPAU_Node@?$_List_nod@PAVIMessageObserver@@V?$allocator@PAVIMessageObserver@@@std@@@2@PAU342@@Z ; std::list<IMessageObserver *,std::allocator<IMessageObserver *> >::_Nextnode
  0001a	83 c4 04	 add	 esp, 4
  0001d	8b 10		 mov	 edx, DWORD PTR [eax]
  0001f	52		 push	 edx
  00020	8b 4d 08	 mov	 ecx, DWORD PTR ___$ReturnUdt$[ebp]
  00023	e8 00 00 00 00	 call	 ??0iterator@?$list@PAVIMessageObserver@@V?$allocator@PAVIMessageObserver@@@std@@@std@@QAE@PAU_Node@?$_List_nod@PAVIMessageObserver@@V?$allocator@PAVIMessageObserver@@@std@@@2@@Z ; std::list<IMessageObserver *,std::allocator<IMessageObserver *> >::iterator::iterator
  00028	8b 45 08	 mov	 eax, DWORD PTR ___$ReturnUdt$[ebp]

; 378  : 		}

  0002b	83 c4 04	 add	 esp, 4
  0002e	3b ec		 cmp	 ebp, esp
  00030	e8 00 00 00 00	 call	 __RTC_CheckEsp
  00035	8b e5		 mov	 esp, ebp
  00037	5d		 pop	 ebp
  00038	c2 04 00	 ret	 4
?begin@?$list@PAVIMessageObserver@@V?$allocator@PAVIMessageObserver@@@std@@@std@@QAE?AViterator@12@XZ ENDP ; std::list<IMessageObserver *,std::allocator<IMessageObserver *> >::begin
; Function compile flags: /Odt /RTCsu
_TEXT	ENDS
;	COMDAT ?end@?$list@PAVIMessageObserver@@V?$allocator@PAVIMessageObserver@@@std@@@std@@QAE?AViterator@12@XZ
_TEXT	SEGMENT
_this$ = -4						; size = 4
___$ReturnUdt$ = 8					; size = 4
?end@?$list@PAVIMessageObserver@@V?$allocator@PAVIMessageObserver@@@std@@@std@@QAE?AViterator@12@XZ PROC NEAR ; std::list<IMessageObserver *,std::allocator<IMessageObserver *> >::end, COMDAT
; _this$ = ecx

; 386  : 		{	// return iterator for end of mutable sequence

  00000	55		 push	 ebp
  00001	8b ec		 mov	 ebp, esp
  00003	51		 push	 ecx
  00004	c7 45 fc cc cc
	cc cc		 mov	 DWORD PTR [ebp-4], -858993460 ; ccccccccH
  0000b	89 4d fc	 mov	 DWORD PTR _this$[ebp], ecx

; 387  : 		return (iterator(_Myhead));

  0000e	8b 45 fc	 mov	 eax, DWORD PTR _this$[ebp]
  00011	8b 48 04	 mov	 ecx, DWORD PTR [eax+4]
  00014	51		 push	 ecx
  00015	8b 4d 08	 mov	 ecx, DWORD PTR ___$ReturnUdt$[ebp]
  00018	e8 00 00 00 00	 call	 ??0iterator@?$list@PAVIMessageObserver@@V?$allocator@PAVIMessageObserver@@@std@@@std@@QAE@PAU_Node@?$_List_nod@PAVIMessageObserver@@V?$allocator@PAVIMessageObserver@@@std@@@2@@Z ; std::list<IMessageObserver *,std::allocator<IMessageObserver *> >::iterator::iterator
  0001d	8b 45 08	 mov	 eax, DWORD PTR ___$ReturnUdt$[ebp]

; 388  : 		}

  00020	83 c4 04	 add	 esp, 4
  00023	3b ec		 cmp	 ebp, esp
  00025	e8 00 00 00 00	 call	 __RTC_CheckEsp
  0002a	8b e5		 mov	 esp, ebp
  0002c	5d		 pop	 ebp
  0002d	c2 04 00	 ret	 4
?end@?$list@PAVIMessageObserver@@V?$allocator@PAVIMessageObserver@@@std@@@std@@QAE?AViterator@12@XZ ENDP ; std::list<IMessageObserver *,std::allocator<IMessageObserver *> >::end
_TEXT	ENDS
PUBLIC	??Dconst_iterator@?$list@PAVIMessageObserver@@V?$allocator@PAVIMessageObserver@@@std@@@std@@QBEABQAVIMessageObserver@@XZ ; std::list<IMessageObserver *,std::allocator<IMessageObserver *> >::const_iterator::operator*
; Function compile flags: /Odt /RTCsu
;	COMDAT ??Diterator@?$list@PAVIMessageObserver@@V?$allocator@PAVIMessageObserver@@@std@@@std@@QBEAAPAVIMessageObserver@@XZ
_TEXT	SEGMENT
_this$ = -4						; size = 4
??Diterator@?$list@PAVIMessageObserver@@V?$allocator@PAVIMessageObserver@@@std@@@std@@QBEAAPAVIMessageObserver@@XZ PROC NEAR ; std::list<IMessageObserver *,std::allocator<IMessageObserver *> >::iterator::operator*, COMDAT
; _this$ = ecx

; 239  : 			{	// return designated value

  00000	55		 push	 ebp
  00001	8b ec		 mov	 ebp, esp
  00003	51		 push	 ecx
  00004	c7 45 fc cc cc
	cc cc		 mov	 DWORD PTR [ebp-4], -858993460 ; ccccccccH
  0000b	89 4d fc	 mov	 DWORD PTR _this$[ebp], ecx

; 240  : 			return ((reference)**(const_iterator *)this);

  0000e	8b 4d fc	 mov	 ecx, DWORD PTR _this$[ebp]
  00011	e8 00 00 00 00	 call	 ??Dconst_iterator@?$list@PAVIMessageObserver@@V?$allocator@PAVIMessageObserver@@@std@@@std@@QBEABQAVIMessageObserver@@XZ ; std::list<IMessageObserver *,std::allocator<IMessageObserver *> >::const_iterator::operator*

; 241  : 			}

  00016	83 c4 04	 add	 esp, 4
  00019	3b ec		 cmp	 ebp, esp
  0001b	e8 00 00 00 00	 call	 __RTC_CheckEsp
  00020	8b e5		 mov	 esp, ebp
  00022	5d		 pop	 ebp
  00023	c3		 ret	 0
??Diterator@?$list@PAVIMessageObserver@@V?$allocator@PAVIMessageObserver@@@std@@@std@@QBEAAPAVIMessageObserver@@XZ ENDP ; std::list<IMessageObserver *,std::allocator<IMessageObserver *> >::iterator::operator*
_TEXT	ENDS
PUBLIC	??Eiterator@?$list@PAVIMessageObserver@@V?$allocator@PAVIMessageObserver@@@std@@@std@@QAEAAV012@XZ ; std::list<IMessageObserver *,std::allocator<IMessageObserver *> >::iterator::operator++
; Function compile flags: /Odt /RTCsu
;	COMDAT ??Eiterator@?$list@PAVIMessageObserver@@V?$allocator@PAVIMessageObserver@@@std@@@std@@QAE?AV012@H@Z
_TEXT	SEGMENT
__Tmp$ = -12						; size = 4
_this$ = -4						; size = 4
___$ReturnUdt$ = 8					; size = 4
___formal$ = 12						; size = 4
??Eiterator@?$list@PAVIMessageObserver@@V?$allocator@PAVIMessageObserver@@@std@@@std@@QAE?AV012@H@Z PROC NEAR ; std::list<IMessageObserver *,std::allocator<IMessageObserver *> >::iterator::operator++, COMDAT
; _this$ = ecx

; 255  : 			{	// postincrement

  00000	55		 push	 ebp
  00001	8b ec		 mov	 ebp, esp
  00003	83 ec 10	 sub	 esp, 16			; 00000010H
  00006	b8 cc cc cc cc	 mov	 eax, -858993460		; ccccccccH
  0000b	89 45 f0	 mov	 DWORD PTR [ebp-16], eax
  0000e	89 45 f4	 mov	 DWORD PTR [ebp-12], eax
  00011	89 45 f8	 mov	 DWORD PTR [ebp-8], eax
  00014	89 45 fc	 mov	 DWORD PTR [ebp-4], eax
  00017	89 4d fc	 mov	 DWORD PTR _this$[ebp], ecx

; 256  : 			iterator _Tmp = *this;

  0001a	8b 45 fc	 mov	 eax, DWORD PTR _this$[ebp]
  0001d	8b 08		 mov	 ecx, DWORD PTR [eax]
  0001f	89 4d f4	 mov	 DWORD PTR __Tmp$[ebp], ecx

; 257  : 			++*this;

  00022	8b 4d fc	 mov	 ecx, DWORD PTR _this$[ebp]
  00025	e8 00 00 00 00	 call	 ??Eiterator@?$list@PAVIMessageObserver@@V?$allocator@PAVIMessageObserver@@@std@@@std@@QAEAAV012@XZ ; std::list<IMessageObserver *,std::allocator<IMessageObserver *> >::iterator::operator++

; 258  : 			return (_Tmp);

  0002a	8b 55 08	 mov	 edx, DWORD PTR ___$ReturnUdt$[ebp]
  0002d	8b 45 f4	 mov	 eax, DWORD PTR __Tmp$[ebp]
  00030	89 02		 mov	 DWORD PTR [edx], eax
  00032	8b 45 08	 mov	 eax, DWORD PTR ___$ReturnUdt$[ebp]

; 259  : 			}

  00035	52		 push	 edx
  00036	8b cd		 mov	 ecx, ebp
  00038	50		 push	 eax
  00039	8d 15 00 00 00
	00		 lea	 edx, DWORD PTR $L200038
  0003f	e8 00 00 00 00	 call	 @_RTC_CheckStackVars@8
  00044	58		 pop	 eax
  00045	5a		 pop	 edx
  00046	83 c4 10	 add	 esp, 16			; 00000010H
  00049	3b ec		 cmp	 ebp, esp
  0004b	e8 00 00 00 00	 call	 __RTC_CheckEsp
  00050	8b e5		 mov	 esp, ebp
  00052	5d		 pop	 ebp
  00053	c2 08 00	 ret	 8
$L200038:
  00056	01 00 00 00	 DD	 1
  0005a	00 00 00 00	 DD	 $L200037
$L200037:
  0005e	f4 ff ff ff	 DD	 -12			; fffffff4H
  00062	04 00 00 00	 DD	 4
  00066	00 00 00 00	 DD	 $L200036
$L200036:
  0006a	5f		 DB	 95			; 0000005fH
  0006b	54		 DB	 84			; 00000054H
  0006c	6d		 DB	 109			; 0000006dH
  0006d	70		 DB	 112			; 00000070H
  0006e	00		 DB	 0
??Eiterator@?$list@PAVIMessageObserver@@V?$allocator@PAVIMessageObserver@@@std@@@std@@QAE?AV012@H@Z ENDP ; std::list<IMessageObserver *,std::allocator<IMessageObserver *> >::iterator::operator++
_TEXT	ENDS
PUBLIC	??8const_iterator@?$list@PAVIMessageObserver@@V?$allocator@PAVIMessageObserver@@@std@@@std@@QBE_NABV012@@Z ; std::list<IMessageObserver *,std::allocator<IMessageObserver *> >::const_iterator::operator==
; Function compile flags: /Odt /RTCsu
;	COMDAT ??9const_iterator@?$list@PAVIMessageObserver@@V?$allocator@PAVIMessageObserver@@@std@@@std@@QBE_NABV012@@Z
_TEXT	SEGMENT
_this$ = -4						; size = 4
__Right$ = 8						; size = 4
??9const_iterator@?$list@PAVIMessageObserver@@V?$allocator@PAVIMessageObserver@@@std@@@std@@QBE_NABV012@@Z PROC NEAR ; std::list<IMessageObserver *,std::allocator<IMessageObserver *> >::const_iterator::operator!=, COMDAT
; _this$ = ecx

; 201  : 			{	// test for iterator inequality

  00000	55		 push	 ebp
  00001	8b ec		 mov	 ebp, esp
  00003	51		 push	 ecx
  00004	c7 45 fc cc cc
	cc cc		 mov	 DWORD PTR [ebp-4], -858993460 ; ccccccccH
  0000b	89 4d fc	 mov	 DWORD PTR _this$[ebp], ecx

; 202  : 			return (!(*this == _Right));

  0000e	8b 45 08	 mov	 eax, DWORD PTR __Right$[ebp]
  00011	50		 push	 eax
  00012	8b 4d fc	 mov	 ecx, DWORD PTR _this$[ebp]
  00015	e8 00 00 00 00	 call	 ??8const_iterator@?$list@PAVIMessageObserver@@V?$allocator@PAVIMessageObserver@@@std@@@std@@QBE_NABV012@@Z ; std::list<IMessageObserver *,std::allocator<IMessageObserver *> >::const_iterator::operator==
  0001a	0f b6 c0	 movzx	 eax, al
  0001d	f7 d8		 neg	 eax
  0001f	1b c0		 sbb	 eax, eax
  00021	40		 inc	 eax

; 203  : 			}

  00022	83 c4 04	 add	 esp, 4
  00025	3b ec		 cmp	 ebp, esp
  00027	e8 00 00 00 00	 call	 __RTC_CheckEsp
  0002c	8b e5		 mov	 esp, ebp
  0002e	5d		 pop	 ebp
  0002f	c2 04 00	 ret	 4
??9const_iterator@?$list@PAVIMessageObserver@@V?$allocator@PAVIMessageObserver@@@std@@@std@@QBE_NABV012@@Z ENDP ; std::list<IMessageObserver *,std::allocator<IMessageObserver *> >::const_iterator::operator!=
; Function compile flags: /Odt /RTCsu
_TEXT	ENDS
;	COMDAT ?_Nextnode@?$list@PAVIMessageObserver@@V?$allocator@PAVIMessageObserver@@@std@@@std@@KAAAPAU_Node@?$_List_nod@PAVIMessageObserver@@V?$allocator@PAVIMessageObserver@@@std@@@2@PAU342@@Z
_TEXT	SEGMENT
__Pnode$ = 8						; size = 4
?_Nextnode@?$list@PAVIMessageObserver@@V?$allocator@PAVIMessageObserver@@@std@@@std@@KAAAPAU_Node@?$_List_nod@PAVIMessageObserver@@V?$allocator@PAVIMessageObserver@@@std@@@2@PAU342@@Z PROC NEAR ; std::list<IMessageObserver *,std::allocator<IMessageObserver *> >::_Nextnode, COMDAT

; 107  : 		{	// return reference to successor pointer in node

  00000	55		 push	 ebp
  00001	8b ec		 mov	 ebp, esp

; 108  : 		return ((_Nodepref)(*_Pnode)._Next);

  00003	8b 45 08	 mov	 eax, DWORD PTR __Pnode$[ebp]

; 109  : 		}

  00006	5d		 pop	 ebp
  00007	c3		 ret	 0
?_Nextnode@?$list@PAVIMessageObserver@@V?$allocator@PAVIMessageObserver@@@std@@@std@@KAAAPAU_Node@?$_List_nod@PAVIMessageObserver@@V?$allocator@PAVIMessageObserver@@@std@@@2@PAU342@@Z ENDP ; std::list<IMessageObserver *,std::allocator<IMessageObserver *> >::_Nextnode
_TEXT	ENDS
PUBLIC	?deallocate@?$allocator@U_Node@?$_List_nod@PAVIMessageObserver@@V?$allocator@PAVIMessageObserver@@@std@@@std@@@std@@QAEXPAU_Node@?$_List_nod@PAVIMessageObserver@@V?$allocator@PAVIMessageObserver@@@std@@@2@I@Z ; std::allocator<std::_List_nod<IMessageObserver *,std::allocator<IMessageObserver *> >::_Node>::deallocate
PUBLIC	?allocate@?$allocator@U_Node@?$_List_nod@PAVIMessageObserver@@V?$allocator@PAVIMessageObserver@@@std@@@std@@@std@@QAEPAU_Node@?$_List_nod@PAVIMessageObserver@@V?$allocator@PAVIMessageObserver@@@std@@@2@I@Z ; std::allocator<std::_List_nod<IMessageObserver *,std::allocator<IMessageObserver *> >::_Node>::allocate
PUBLIC	?construct@?$allocator@PAU_Node@?$_List_nod@PAVIMessageObserver@@V?$allocator@PAVIMessageObserver@@@std@@@std@@@std@@QAEXPAPAU_Node@?$_List_nod@PAVIMessageObserver@@V?$allocator@PAVIMessageObserver@@@std@@@2@ABQAU342@@Z ; std::allocator<std::_List_nod<IMessageObserver *,std::allocator<IMessageObserver *> >::_Node *>::construct
PUBLIC	?destroy@?$allocator@PAU_Node@?$_List_nod@PAVIMessageObserver@@V?$allocator@PAVIMessageObserver@@@std@@@std@@@std@@QAEXPAPAU_Node@?$_List_nod@PAVIMessageObserver@@V?$allocator@PAVIMessageObserver@@@std@@@2@@Z ; std::allocator<std::_List_nod<IMessageObserver *,std::allocator<IMessageObserver *> >::_Node *>::destroy
PUBLIC	?_Prevnode@?$list@PAVIMessageObserver@@V?$allocator@PAVIMessageObserver@@@std@@@std@@KAAAPAU_Node@?$_List_nod@PAVIMessageObserver@@V?$allocator@PAVIMessageObserver@@@std@@@2@PAU342@@Z ; std::list<IMessageObserver *,std::allocator<IMessageObserver *> >::_Prevnode
EXTRN	__CxxThrowException@8:NEAR
;	COMDAT xdata$x
xdata$x	SEGMENT
$T200051 DD	0ffffffffH
	DD	00H
	DD	0ffffffffH
	DD	00H
$T200053 DD	00H
	DD	00H
	DD	00H
	DD	FLAT:$L200044
$T200052 DD	00H
	DD	00H
	DD	01H
	DD	01H
	DD	FLAT:$T200053
$T200046 DD	019930520H
	DD	02H
	DD	FLAT:$T200051
	DD	01H
	DD	FLAT:$T200052
	DD	2 DUP(00H)
; Function compile flags: /Odt /RTCsu
xdata$x	ENDS
;	COMDAT ?_Buynode@?$list@PAVIMessageObserver@@V?$allocator@PAVIMessageObserver@@@std@@@std@@IAEPAU_Node@?$_List_nod@PAVIMessageObserver@@V?$allocator@PAVIMessageObserver@@@std@@@2@XZ
_TEXT	SEGMENT
tv93 = -44						; size = 4
tv92 = -40						; size = 4
__Linkcnt$ = -36					; size = 4
__Pnode$ = -28						; size = 4
_this$ = -20						; size = 4
__$EHRec$ = -16						; size = 16
?_Buynode@?$list@PAVIMessageObserver@@V?$allocator@PAVIMessageObserver@@@std@@@std@@IAEPAU_Node@?$_List_nod@PAVIMessageObserver@@V?$allocator@PAVIMessageObserver@@@std@@@2@XZ PROC NEAR ; std::list<IMessageObserver *,std::allocator<IMessageObserver *> >::_Buynode, COMDAT
; _this$ = ecx

; 898  : 		{	// allocate a head node and set links

  00000	55		 push	 ebp
  00001	8b ec		 mov	 ebp, esp
  00003	6a ff		 push	 -1
  00005	68 00 00 00 00	 push	 __ehhandler$?_Buynode@?$list@PAVIMessageObserver@@V?$allocator@PAVIMessageObserver@@@std@@@std@@IAEPAU_Node@?$_List_nod@PAVIMessageObserver@@V?$allocator@PAVIMessageObserver@@@std@@@2@XZ
  0000a	64 a1 00 00 00
	00		 mov	 eax, DWORD PTR fs:__except_list
  00010	50		 push	 eax
  00011	64 89 25 00 00
	00 00		 mov	 DWORD PTR fs:__except_list, esp
  00018	51		 push	 ecx
  00019	83 ec 1c	 sub	 esp, 28			; 0000001cH
  0001c	53		 push	 ebx
  0001d	56		 push	 esi
  0001e	57		 push	 edi
  0001f	b8 cc cc cc cc	 mov	 eax, -858993460		; ccccccccH
  00024	89 45 d4	 mov	 DWORD PTR [ebp-44], eax
  00027	89 45 d8	 mov	 DWORD PTR [ebp-40], eax
  0002a	89 45 dc	 mov	 DWORD PTR [ebp-36], eax
  0002d	89 45 e0	 mov	 DWORD PTR [ebp-32], eax
  00030	89 45 e4	 mov	 DWORD PTR [ebp-28], eax
  00033	89 45 e8	 mov	 DWORD PTR [ebp-24], eax
  00036	89 45 ec	 mov	 DWORD PTR [ebp-20], eax
  00039	89 65 f0	 mov	 DWORD PTR __$EHRec$[ebp], esp
  0003c	89 4d ec	 mov	 DWORD PTR _this$[ebp], ecx

; 899  : 		_Nodeptr _Pnode = this->_Alnod.allocate(1);

  0003f	6a 01		 push	 1
  00041	8b 4d ec	 mov	 ecx, DWORD PTR _this$[ebp]
  00044	e8 00 00 00 00	 call	 ?allocate@?$allocator@U_Node@?$_List_nod@PAVIMessageObserver@@V?$allocator@PAVIMessageObserver@@@std@@@std@@@std@@QAEPAU_Node@?$_List_nod@PAVIMessageObserver@@V?$allocator@PAVIMessageObserver@@@std@@@2@I@Z ; std::allocator<std::_List_nod<IMessageObserver *,std::allocator<IMessageObserver *> >::_Node>::allocate
  00049	89 45 e4	 mov	 DWORD PTR __Pnode$[ebp], eax

; 900  : 		int _Linkcnt = 0;

  0004c	c7 45 dc 00 00
	00 00		 mov	 DWORD PTR __Linkcnt$[ebp], 0

; 901  : 
; 902  : 		_TRY_BEGIN

  00053	c7 45 fc 00 00
	00 00		 mov	 DWORD PTR __$EHRec$[ebp+12], 0

; 903  : 		this->_Alptr.construct(&_Nextnode(_Pnode), _Pnode);

  0005a	8b 45 e4	 mov	 eax, DWORD PTR __Pnode$[ebp]
  0005d	50		 push	 eax
  0005e	e8 00 00 00 00	 call	 ?_Nextnode@?$list@PAVIMessageObserver@@V?$allocator@PAVIMessageObserver@@@std@@@std@@KAAAPAU_Node@?$_List_nod@PAVIMessageObserver@@V?$allocator@PAVIMessageObserver@@@std@@@2@PAU342@@Z ; std::list<IMessageObserver *,std::allocator<IMessageObserver *> >::_Nextnode
  00063	83 c4 04	 add	 esp, 4
  00066	89 45 d8	 mov	 DWORD PTR tv92[ebp], eax
  00069	8d 4d e4	 lea	 ecx, DWORD PTR __Pnode$[ebp]
  0006c	51		 push	 ecx
  0006d	8b 55 d8	 mov	 edx, DWORD PTR tv92[ebp]
  00070	52		 push	 edx
  00071	8b 4d ec	 mov	 ecx, DWORD PTR _this$[ebp]
  00074	83 c1 01	 add	 ecx, 1
  00077	e8 00 00 00 00	 call	 ?construct@?$allocator@PAU_Node@?$_List_nod@PAVIMessageObserver@@V?$allocator@PAVIMessageObserver@@@std@@@std@@@std@@QAEXPAPAU_Node@?$_List_nod@PAVIMessageObserver@@V?$allocator@PAVIMessageObserver@@@std@@@2@ABQAU342@@Z ; std::allocator<std::_List_nod<IMessageObserver *,std::allocator<IMessageObserver *> >::_Node *>::construct

; 904  : 		++_Linkcnt;

  0007c	8b 45 dc	 mov	 eax, DWORD PTR __Linkcnt$[ebp]
  0007f	83 c0 01	 add	 eax, 1
  00082	89 45 dc	 mov	 DWORD PTR __Linkcnt$[ebp], eax

; 905  : 		this->_Alptr.construct(&_Prevnode(_Pnode), _Pnode);

  00085	8b 4d e4	 mov	 ecx, DWORD PTR __Pnode$[ebp]
  00088	51		 push	 ecx
  00089	e8 00 00 00 00	 call	 ?_Prevnode@?$list@PAVIMessageObserver@@V?$allocator@PAVIMessageObserver@@@std@@@std@@KAAAPAU_Node@?$_List_nod@PAVIMessageObserver@@V?$allocator@PAVIMessageObserver@@@std@@@2@PAU342@@Z ; std::list<IMessageObserver *,std::allocator<IMessageObserver *> >::_Prevnode
  0008e	83 c4 04	 add	 esp, 4
  00091	89 45 d4	 mov	 DWORD PTR tv93[ebp], eax
  00094	8d 55 e4	 lea	 edx, DWORD PTR __Pnode$[ebp]
  00097	52		 push	 edx
  00098	8b 45 d4	 mov	 eax, DWORD PTR tv93[ebp]
  0009b	50		 push	 eax
  0009c	8b 4d ec	 mov	 ecx, DWORD PTR _this$[ebp]
  0009f	83 c1 01	 add	 ecx, 1
  000a2	e8 00 00 00 00	 call	 ?construct@?$allocator@PAU_Node@?$_List_nod@PAVIMessageObserver@@V?$allocator@PAVIMessageObserver@@@std@@@std@@@std@@QAEXPAPAU_Node@?$_List_nod@PAVIMessageObserver@@V?$allocator@PAVIMessageObserver@@@std@@@2@ABQAU342@@Z ; std::allocator<std::_List_nod<IMessageObserver *,std::allocator<IMessageObserver *> >::_Node *>::construct
  000a7	eb 35		 jmp	 SHORT $L200043
$L200044:

; 906  : 		_CATCH_ALL
; 907  : 		if (0 < _Linkcnt)

  000a9	83 7d dc 00	 cmp	 DWORD PTR __Linkcnt$[ebp], 0
  000ad	7e 18		 jle	 SHORT $L198485

; 908  : 			this->_Alptr.destroy(&_Nextnode(_Pnode));

  000af	8b 4d e4	 mov	 ecx, DWORD PTR __Pnode$[ebp]
  000b2	51		 push	 ecx
  000b3	e8 00 00 00 00	 call	 ?_Nextnode@?$list@PAVIMessageObserver@@V?$allocator@PAVIMessageObserver@@@std@@@std@@KAAAPAU_Node@?$_List_nod@PAVIMessageObserver@@V?$allocator@PAVIMessageObserver@@@std@@@2@PAU342@@Z ; std::list<IMessageObserver *,std::allocator<IMessageObserver *> >::_Nextnode
  000b8	83 c4 04	 add	 esp, 4
  000bb	50		 push	 eax
  000bc	8b 4d ec	 mov	 ecx, DWORD PTR _this$[ebp]
  000bf	83 c1 01	 add	 ecx, 1
  000c2	e8 00 00 00 00	 call	 ?destroy@?$allocator@PAU_Node@?$_List_nod@PAVIMessageObserver@@V?$allocator@PAVIMessageObserver@@@std@@@std@@@std@@QAEXPAPAU_Node@?$_List_nod@PAVIMessageObserver@@V?$allocator@PAVIMessageObserver@@@std@@@2@@Z ; std::allocator<std::_List_nod<IMessageObserver *,std::allocator<IMessageObserver *> >::_Node *>::destroy
$L198485:

; 909  : 		this->_Alnod.deallocate(_Pnode, 1);

  000c7	6a 01		 push	 1
  000c9	8b 55 e4	 mov	 edx, DWORD PTR __Pnode$[ebp]
  000cc	52		 push	 edx
  000cd	8b 4d ec	 mov	 ecx, DWORD PTR _this$[ebp]
  000d0	e8 00 00 00 00	 call	 ?deallocate@?$allocator@U_Node@?$_List_nod@PAVIMessageObserver@@V?$allocator@PAVIMessageObserver@@@std@@@std@@@std@@QAEXPAU_Node@?$_List_nod@PAVIMessageObserver@@V?$allocator@PAVIMessageObserver@@@std@@@2@I@Z ; std::allocator<std::_List_nod<IMessageObserver *,std::allocator<IMessageObserver *> >::_Node>::deallocate

; 910  : 		_RERAISE;

  000d5	6a 00		 push	 0
  000d7	6a 00		 push	 0
  000d9	e8 00 00 00 00	 call	 __CxxThrowException@8
$L200043:

; 911  : 		_CATCH_END

  000de	c7 45 fc ff ff
	ff ff		 mov	 DWORD PTR __$EHRec$[ebp+12], -1

; 912  : 		return (_Pnode);

  000e5	8b 45 e4	 mov	 eax, DWORD PTR __Pnode$[ebp]
$L200041:

; 913  : 		}

  000e8	52		 push	 edx
  000e9	8b cd		 mov	 ecx, ebp
  000eb	50		 push	 eax
  000ec	8d 15 00 00 00
	00		 lea	 edx, DWORD PTR $L200050
  000f2	e8 00 00 00 00	 call	 @_RTC_CheckStackVars@8
  000f7	58		 pop	 eax
  000f8	5a		 pop	 edx
  000f9	8b 4d f4	 mov	 ecx, DWORD PTR __$EHRec$[ebp+4]
  000fc	64 89 0d 00 00
	00 00		 mov	 DWORD PTR fs:__except_list, ecx
  00103	5f		 pop	 edi
  00104	5e		 pop	 esi
  00105	5b		 pop	 ebx
  00106	83 c4 2c	 add	 esp, 44			; 0000002cH
  00109	3b ec		 cmp	 ebp, esp
  0010b	e8 00 00 00 00	 call	 __RTC_CheckEsp
  00110	8b e5		 mov	 esp, ebp
  00112	5d		 pop	 ebp
  00113	c3		 ret	 0
$L200050:
  00114	01 00 00 00	 DD	 1
  00118	00 00 00 00	 DD	 $L200049
$L200049:
  0011c	e4 ff ff ff	 DD	 -28			; ffffffe4H
  00120	04 00 00 00	 DD	 4
  00124	00 00 00 00	 DD	 $L200047
$L200047:
  00128	5f		 DB	 95			; 0000005fH
  00129	50		 DB	 80			; 00000050H
  0012a	6e		 DB	 110			; 0000006eH
  0012b	6f		 DB	 111			; 0000006fH
  0012c	64		 DB	 100			; 00000064H
  0012d	65		 DB	 101			; 00000065H
  0012e	00		 DB	 0
_TEXT	ENDS
;	COMDAT text$x
text$x	SEGMENT
__ehhandler$?_Buynode@?$list@PAVIMessageObserver@@V?$allocator@PAVIMessageObserver@@@std@@@std@@IAEPAU_Node@?$_List_nod@PAVIMessageObserver@@V?$allocator@PAVIMessageObserver@@@std@@@2@XZ:
  00000	b8 00 00 00 00	 mov	 eax, OFFSET FLAT:$T200046
  00005	e9 00 00 00 00	 jmp	 ___CxxFrameHandler
text$x	ENDS
?_Buynode@?$list@PAVIMessageObserver@@V?$allocator@PAVIMessageObserver@@@std@@@std@@IAEPAU_Node@?$_List_nod@PAVIMessageObserver@@V?$allocator@PAVIMessageObserver@@@std@@@2@XZ ENDP ; std::list<IMessageObserver *,std::allocator<IMessageObserver *> >::_Buynode
PUBLIC	?clear@?$list@PAVIMessageObserver@@V?$allocator@PAVIMessageObserver@@@std@@@std@@QAEXXZ ; std::list<IMessageObserver *,std::allocator<IMessageObserver *> >::clear
; Function compile flags: /Odt /RTCsu
;	COMDAT ?_Tidy@?$list@PAVIMessageObserver@@V?$allocator@PAVIMessageObserver@@@std@@@std@@IAEXXZ
_TEXT	SEGMENT
_this$ = -4						; size = 4
?_Tidy@?$list@PAVIMessageObserver@@V?$allocator@PAVIMessageObserver@@@std@@@std@@IAEXXZ PROC NEAR ; std::list<IMessageObserver *,std::allocator<IMessageObserver *> >::_Tidy, COMDAT
; _this$ = ecx

; 929  : 		{	// free all storage

  00000	55		 push	 ebp
  00001	8b ec		 mov	 ebp, esp
  00003	51		 push	 ecx
  00004	c7 45 fc cc cc
	cc cc		 mov	 DWORD PTR [ebp-4], -858993460 ; ccccccccH
  0000b	89 4d fc	 mov	 DWORD PTR _this$[ebp], ecx

; 930  : 		clear();

  0000e	8b 4d fc	 mov	 ecx, DWORD PTR _this$[ebp]
  00011	e8 00 00 00 00	 call	 ?clear@?$list@PAVIMessageObserver@@V?$allocator@PAVIMessageObserver@@@std@@@std@@QAEXXZ ; std::list<IMessageObserver *,std::allocator<IMessageObserver *> >::clear

; 931  : 		this->_Alptr.destroy(&_Nextnode(_Myhead));

  00016	8b 45 fc	 mov	 eax, DWORD PTR _this$[ebp]
  00019	8b 48 04	 mov	 ecx, DWORD PTR [eax+4]
  0001c	51		 push	 ecx
  0001d	e8 00 00 00 00	 call	 ?_Nextnode@?$list@PAVIMessageObserver@@V?$allocator@PAVIMessageObserver@@@std@@@std@@KAAAPAU_Node@?$_List_nod@PAVIMessageObserver@@V?$allocator@PAVIMessageObserver@@@std@@@2@PAU342@@Z ; std::list<IMessageObserver *,std::allocator<IMessageObserver *> >::_Nextnode
  00022	83 c4 04	 add	 esp, 4
  00025	50		 push	 eax
  00026	8b 4d fc	 mov	 ecx, DWORD PTR _this$[ebp]
  00029	83 c1 01	 add	 ecx, 1
  0002c	e8 00 00 00 00	 call	 ?destroy@?$allocator@PAU_Node@?$_List_nod@PAVIMessageObserver@@V?$allocator@PAVIMessageObserver@@@std@@@std@@@std@@QAEXPAPAU_Node@?$_List_nod@PAVIMessageObserver@@V?$allocator@PAVIMessageObserver@@@std@@@2@@Z ; std::allocator<std::_List_nod<IMessageObserver *,std::allocator<IMessageObserver *> >::_Node *>::destroy

; 932  : 		this->_Alptr.destroy(&_Prevnode(_Myhead));

  00031	8b 55 fc	 mov	 edx, DWORD PTR _this$[ebp]
  00034	8b 42 04	 mov	 eax, DWORD PTR [edx+4]
  00037	50		 push	 eax
  00038	e8 00 00 00 00	 call	 ?_Prevnode@?$list@PAVIMessageObserver@@V?$allocator@PAVIMessageObserver@@@std@@@std@@KAAAPAU_Node@?$_List_nod@PAVIMessageObserver@@V?$allocator@PAVIMessageObserver@@@std@@@2@PAU342@@Z ; std::list<IMessageObserver *,std::allocator<IMessageObserver *> >::_Prevnode
  0003d	83 c4 04	 add	 esp, 4
  00040	50		 push	 eax
  00041	8b 4d fc	 mov	 ecx, DWORD PTR _this$[ebp]
  00044	83 c1 01	 add	 ecx, 1
  00047	e8 00 00 00 00	 call	 ?destroy@?$allocator@PAU_Node@?$_List_nod@PAVIMessageObserver@@V?$allocator@PAVIMessageObserver@@@std@@@std@@@std@@QAEXPAPAU_Node@?$_List_nod@PAVIMessageObserver@@V?$allocator@PAVIMessageObserver@@@std@@@2@@Z ; std::allocator<std::_List_nod<IMessageObserver *,std::allocator<IMessageObserver *> >::_Node *>::destroy

; 933  : 		this->_Alnod.deallocate(_Myhead, 1);

  0004c	6a 01		 push	 1
  0004e	8b 4d fc	 mov	 ecx, DWORD PTR _this$[ebp]
  00051	8b 51 04	 mov	 edx, DWORD PTR [ecx+4]
  00054	52		 push	 edx
  00055	8b 4d fc	 mov	 ecx, DWORD PTR _this$[ebp]
  00058	e8 00 00 00 00	 call	 ?deallocate@?$allocator@U_Node@?$_List_nod@PAVIMessageObserver@@V?$allocator@PAVIMessageObserver@@@std@@@std@@@std@@QAEXPAU_Node@?$_List_nod@PAVIMessageObserver@@V?$allocator@PAVIMessageObserver@@@std@@@2@I@Z ; std::allocator<std::_List_nod<IMessageObserver *,std::allocator<IMessageObserver *> >::_Node>::deallocate

; 934  : 		_Myhead = 0;

  0005d	8b 45 fc	 mov	 eax, DWORD PTR _this$[ebp]
  00060	c7 40 04 00 00
	00 00		 mov	 DWORD PTR [eax+4], 0

; 935  : 		}

  00067	83 c4 04	 add	 esp, 4
  0006a	3b ec		 cmp	 ebp, esp
  0006c	e8 00 00 00 00	 call	 __RTC_CheckEsp
  00071	8b e5		 mov	 esp, ebp
  00073	5d		 pop	 ebp
  00074	c3		 ret	 0
?_Tidy@?$list@PAVIMessageObserver@@V?$allocator@PAVIMessageObserver@@@std@@@std@@IAEXXZ ENDP ; std::list<IMessageObserver *,std::allocator<IMessageObserver *> >::_Tidy
_TEXT	ENDS
PUBLIC	??0?$allocator@PAVIMessageObserver@@@std@@QAE@ABV01@@Z ; std::allocator<IMessageObserver *>::allocator<IMessageObserver *>
PUBLIC	??0?$_List_ptr@PAVIMessageObserver@@V?$allocator@PAVIMessageObserver@@@std@@@std@@IAE@V?$allocator@PAVIMessageObserver@@@1@@Z ; std::_List_ptr<IMessageObserver *,std::allocator<IMessageObserver *> >::_List_ptr<IMessageObserver *,std::allocator<IMessageObserver *> >
; Function compile flags: /Odt /RTCsu
;	COMDAT ??0?$_List_val@PAVIMessageObserver@@V?$allocator@PAVIMessageObserver@@@std@@@std@@IAE@V?$allocator@PAVIMessageObserver@@@1@@Z
_TEXT	SEGMENT
_this$ = -4						; size = 4
__Al$ = 8						; size = 1
??0?$_List_val@PAVIMessageObserver@@V?$allocator@PAVIMessageObserver@@@std@@@std@@IAE@V?$allocator@PAVIMessageObserver@@@1@@Z PROC NEAR ; std::_List_val<IMessageObserver *,std::allocator<IMessageObserver *> >::_List_val<IMessageObserver *,std::allocator<IMessageObserver *> >, COMDAT
; _this$ = ecx

; 82   : 		{	// construct base, and allocator from _Al

  00000	55		 push	 ebp
  00001	8b ec		 mov	 ebp, esp
  00003	83 ec 08	 sub	 esp, 8
  00006	c7 45 f8 cc cc
	cc cc		 mov	 DWORD PTR [ebp-8], -858993460 ; ccccccccH
  0000d	c7 45 fc cc cc
	cc cc		 mov	 DWORD PTR [ebp-4], -858993460 ; ccccccccH
  00014	89 4d fc	 mov	 DWORD PTR _this$[ebp], ecx
  00017	51		 push	 ecx
  00018	8b cc		 mov	 ecx, esp
  0001a	8d 45 08	 lea	 eax, DWORD PTR __Al$[ebp]
  0001d	50		 push	 eax
  0001e	e8 00 00 00 00	 call	 ??0?$allocator@PAVIMessageObserver@@@std@@QAE@ABV01@@Z ; std::allocator<IMessageObserver *>::allocator<IMessageObserver *>
  00023	8b 4d fc	 mov	 ecx, DWORD PTR _this$[ebp]
  00026	e8 00 00 00 00	 call	 ??0?$_List_ptr@PAVIMessageObserver@@V?$allocator@PAVIMessageObserver@@@std@@@std@@IAE@V?$allocator@PAVIMessageObserver@@@1@@Z ; std::_List_ptr<IMessageObserver *,std::allocator<IMessageObserver *> >::_List_ptr<IMessageObserver *,std::allocator<IMessageObserver *> >
  0002b	8d 4d 08	 lea	 ecx, DWORD PTR __Al$[ebp]
  0002e	51		 push	 ecx
  0002f	8b 4d fc	 mov	 ecx, DWORD PTR _this$[ebp]
  00032	83 c1 02	 add	 ecx, 2
  00035	e8 00 00 00 00	 call	 ??0?$allocator@PAVIMessageObserver@@@std@@QAE@ABV01@@Z ; std::allocator<IMessageObserver *>::allocator<IMessageObserver *>

; 83   : 		}

  0003a	8b 45 fc	 mov	 eax, DWORD PTR _this$[ebp]
  0003d	83 c4 08	 add	 esp, 8
  00040	3b ec		 cmp	 ebp, esp
  00042	e8 00 00 00 00	 call	 __RTC_CheckEsp
  00047	8b e5		 mov	 esp, ebp
  00049	5d		 pop	 ebp
  0004a	c2 04 00	 ret	 4
??0?$_List_val@PAVIMessageObserver@@V?$allocator@PAVIMessageObserver@@@std@@@std@@IAE@V?$allocator@PAVIMessageObserver@@@1@@Z ENDP ; std::_List_val<IMessageObserver *,std::allocator<IMessageObserver *> >::_List_val<IMessageObserver *,std::allocator<IMessageObserver *> >
; Function compile flags: /Odt /RTCsu
; File d:\program files (x86)\microsoft visual studio .net 2003\vc7\include\xmemory
_TEXT	ENDS
;	COMDAT ??0?$allocator@PAVIMessageObserver@@@std@@QAE@XZ
_TEXT	SEGMENT
_this$ = -4						; size = 4
??0?$allocator@PAVIMessageObserver@@@std@@QAE@XZ PROC NEAR ; std::allocator<IMessageObserver *>::allocator<IMessageObserver *>, COMDAT
; _this$ = ecx

; 111  : 	allocator()

  00000	55		 push	 ebp
  00001	8b ec		 mov	 ebp, esp
  00003	51		 push	 ecx
  00004	c7 45 fc cc cc
	cc cc		 mov	 DWORD PTR [ebp-4], -858993460 ; ccccccccH
  0000b	89 4d fc	 mov	 DWORD PTR _this$[ebp], ecx

; 112  : 		{	// construct default allocator (do nothing)
; 113  : 		}

  0000e	8b 45 fc	 mov	 eax, DWORD PTR _this$[ebp]
  00011	8b e5		 mov	 esp, ebp
  00013	5d		 pop	 ebp
  00014	c3		 ret	 0
??0?$allocator@PAVIMessageObserver@@@std@@QAE@XZ ENDP	; std::allocator<IMessageObserver *>::allocator<IMessageObserver *>
_TEXT	ENDS
PUBLIC	??0const_iterator@?$list@PAVIMessageObserver@@V?$allocator@PAVIMessageObserver@@@std@@@std@@QAE@PAU_Node@?$_List_nod@PAVIMessageObserver@@V?$allocator@PAVIMessageObserver@@@std@@@2@@Z ; std::list<IMessageObserver *,std::allocator<IMessageObserver *> >::const_iterator::const_iterator
; Function compile flags: /Odt /RTCsu
; File d:\program files (x86)\microsoft visual studio .net 2003\vc7\include\list
;	COMDAT ??0iterator@?$list@PAVIMessageObserver@@V?$allocator@PAVIMessageObserver@@@std@@@std@@QAE@PAU_Node@?$_List_nod@PAVIMessageObserver@@V?$allocator@PAVIMessageObserver@@@std@@@2@@Z
_TEXT	SEGMENT
_this$ = -4						; size = 4
__Pnode$ = 8						; size = 4
??0iterator@?$list@PAVIMessageObserver@@V?$allocator@PAVIMessageObserver@@@std@@@std@@QAE@PAU_Node@?$_List_nod@PAVIMessageObserver@@V?$allocator@PAVIMessageObserver@@@std@@@2@@Z PROC NEAR ; std::list<IMessageObserver *,std::allocator<IMessageObserver *> >::iterator::iterator, COMDAT
; _this$ = ecx

; 235  : 			{	// construct with node pointer _Pnode

  00000	55		 push	 ebp
  00001	8b ec		 mov	 ebp, esp
  00003	51		 push	 ecx
  00004	c7 45 fc cc cc
	cc cc		 mov	 DWORD PTR [ebp-4], -858993460 ; ccccccccH
  0000b	89 4d fc	 mov	 DWORD PTR _this$[ebp], ecx
  0000e	8b 45 08	 mov	 eax, DWORD PTR __Pnode$[ebp]
  00011	50		 push	 eax
  00012	8b 4d fc	 mov	 ecx, DWORD PTR _this$[ebp]
  00015	e8 00 00 00 00	 call	 ??0const_iterator@?$list@PAVIMessageObserver@@V?$allocator@PAVIMessageObserver@@@std@@@std@@QAE@PAU_Node@?$_List_nod@PAVIMessageObserver@@V?$allocator@PAVIMessageObserver@@@std@@@2@@Z ; std::list<IMessageObserver *,std::allocator<IMessageObserver *> >::const_iterator::const_iterator

; 236  : 			}

  0001a	8b 45 fc	 mov	 eax, DWORD PTR _this$[ebp]
  0001d	83 c4 04	 add	 esp, 4
  00020	3b ec		 cmp	 ebp, esp
  00022	e8 00 00 00 00	 call	 __RTC_CheckEsp
  00027	8b e5		 mov	 esp, ebp
  00029	5d		 pop	 ebp
  0002a	c2 04 00	 ret	 4
??0iterator@?$list@PAVIMessageObserver@@V?$allocator@PAVIMessageObserver@@@std@@@std@@QAE@PAU_Node@?$_List_nod@PAVIMessageObserver@@V?$allocator@PAVIMessageObserver@@@std@@@2@@Z ENDP ; std::list<IMessageObserver *,std::allocator<IMessageObserver *> >::iterator::iterator
_TEXT	ENDS
PUBLIC	??Econst_iterator@?$list@PAVIMessageObserver@@V?$allocator@PAVIMessageObserver@@@std@@@std@@QAEAAV012@XZ ; std::list<IMessageObserver *,std::allocator<IMessageObserver *> >::const_iterator::operator++
; Function compile flags: /Odt /RTCsu
;	COMDAT ??Eiterator@?$list@PAVIMessageObserver@@V?$allocator@PAVIMessageObserver@@@std@@@std@@QAEAAV012@XZ
_TEXT	SEGMENT
_this$ = -4						; size = 4
??Eiterator@?$list@PAVIMessageObserver@@V?$allocator@PAVIMessageObserver@@@std@@@std@@QAEAAV012@XZ PROC NEAR ; std::list<IMessageObserver *,std::allocator<IMessageObserver *> >::iterator::operator++, COMDAT
; _this$ = ecx

; 249  : 			{	// preincrement

  00000	55		 push	 ebp
  00001	8b ec		 mov	 ebp, esp
  00003	51		 push	 ecx
  00004	c7 45 fc cc cc
	cc cc		 mov	 DWORD PTR [ebp-4], -858993460 ; ccccccccH
  0000b	89 4d fc	 mov	 DWORD PTR _this$[ebp], ecx

; 250  : 			++(*(const_iterator *)this);

  0000e	8b 4d fc	 mov	 ecx, DWORD PTR _this$[ebp]
  00011	e8 00 00 00 00	 call	 ??Econst_iterator@?$list@PAVIMessageObserver@@V?$allocator@PAVIMessageObserver@@@std@@@std@@QAEAAV012@XZ ; std::list<IMessageObserver *,std::allocator<IMessageObserver *> >::const_iterator::operator++

; 251  : 			return (*this);

  00016	8b 45 fc	 mov	 eax, DWORD PTR _this$[ebp]

; 252  : 			}

  00019	83 c4 04	 add	 esp, 4
  0001c	3b ec		 cmp	 ebp, esp
  0001e	e8 00 00 00 00	 call	 __RTC_CheckEsp
  00023	8b e5		 mov	 esp, ebp
  00025	5d		 pop	 ebp
  00026	c3		 ret	 0
??Eiterator@?$list@PAVIMessageObserver@@V?$allocator@PAVIMessageObserver@@@std@@@std@@QAEAAV012@XZ ENDP ; std::list<IMessageObserver *,std::allocator<IMessageObserver *> >::iterator::operator++
_TEXT	ENDS
PUBLIC	?_Myval@?$list@PAVIMessageObserver@@V?$allocator@PAVIMessageObserver@@@std@@@std@@KAAAPAVIMessageObserver@@PAU_Node@?$_List_nod@PAVIMessageObserver@@V?$allocator@PAVIMessageObserver@@@std@@@2@@Z ; std::list<IMessageObserver *,std::allocator<IMessageObserver *> >::_Myval
; Function compile flags: /Odt /RTCsu
;	COMDAT ??Dconst_iterator@?$list@PAVIMessageObserver@@V?$allocator@PAVIMessageObserver@@@std@@@std@@QBEABQAVIMessageObserver@@XZ
_TEXT	SEGMENT
_this$ = -4						; size = 4
??Dconst_iterator@?$list@PAVIMessageObserver@@V?$allocator@PAVIMessageObserver@@@std@@@std@@QBEABQAVIMessageObserver@@XZ PROC NEAR ; std::list<IMessageObserver *,std::allocator<IMessageObserver *> >::const_iterator::operator*, COMDAT
; _this$ = ecx

; 160  : 			{	// return designated value

  00000	55		 push	 ebp
  00001	8b ec		 mov	 ebp, esp
  00003	51		 push	 ecx
  00004	c7 45 fc cc cc
	cc cc		 mov	 DWORD PTR [ebp-4], -858993460 ; ccccccccH
  0000b	89 4d fc	 mov	 DWORD PTR _this$[ebp], ecx

; 161  : 			return (_Myval(_Ptr));

  0000e	8b 45 fc	 mov	 eax, DWORD PTR _this$[ebp]
  00011	8b 08		 mov	 ecx, DWORD PTR [eax]
  00013	51		 push	 ecx
  00014	e8 00 00 00 00	 call	 ?_Myval@?$list@PAVIMessageObserver@@V?$allocator@PAVIMessageObserver@@@std@@@std@@KAAAPAVIMessageObserver@@PAU_Node@?$_List_nod@PAVIMessageObserver@@V?$allocator@PAVIMessageObserver@@@std@@@2@@Z ; std::list<IMessageObserver *,std::allocator<IMessageObserver *> >::_Myval
  00019	83 c4 04	 add	 esp, 4

; 162  : 			}

  0001c	83 c4 04	 add	 esp, 4
  0001f	3b ec		 cmp	 ebp, esp
  00021	e8 00 00 00 00	 call	 __RTC_CheckEsp
  00026	8b e5		 mov	 esp, ebp
  00028	5d		 pop	 ebp
  00029	c3		 ret	 0
??Dconst_iterator@?$list@PAVIMessageObserver@@V?$allocator@PAVIMessageObserver@@@std@@@std@@QBEABQAVIMessageObserver@@XZ ENDP ; std::list<IMessageObserver *,std::allocator<IMessageObserver *> >::const_iterator::operator*
; Function compile flags: /Odt /RTCsu
_TEXT	ENDS
;	COMDAT ??8const_iterator@?$list@PAVIMessageObserver@@V?$allocator@PAVIMessageObserver@@@std@@@std@@QBE_NABV012@@Z
_TEXT	SEGMENT
_this$ = -4						; size = 4
__Right$ = 8						; size = 4
??8const_iterator@?$list@PAVIMessageObserver@@V?$allocator@PAVIMessageObserver@@@std@@@std@@QBE_NABV012@@Z PROC NEAR ; std::list<IMessageObserver *,std::allocator<IMessageObserver *> >::const_iterator::operator==, COMDAT
; _this$ = ecx

; 196  : 			{	// test for iterator equality

  00000	55		 push	 ebp
  00001	8b ec		 mov	 ebp, esp
  00003	51		 push	 ecx
  00004	c7 45 fc cc cc
	cc cc		 mov	 DWORD PTR [ebp-4], -858993460 ; ccccccccH
  0000b	89 4d fc	 mov	 DWORD PTR _this$[ebp], ecx

; 197  : 			return (_Ptr == _Right._Ptr);

  0000e	8b 45 fc	 mov	 eax, DWORD PTR _this$[ebp]
  00011	8b 4d 08	 mov	 ecx, DWORD PTR __Right$[ebp]
  00014	8b 00		 mov	 eax, DWORD PTR [eax]
  00016	2b 01		 sub	 eax, DWORD PTR [ecx]
  00018	f7 d8		 neg	 eax
  0001a	1b c0		 sbb	 eax, eax
  0001c	40		 inc	 eax

; 198  : 			}

  0001d	8b e5		 mov	 esp, ebp
  0001f	5d		 pop	 ebp
  00020	c2 04 00	 ret	 4
??8const_iterator@?$list@PAVIMessageObserver@@V?$allocator@PAVIMessageObserver@@@std@@@std@@QBE_NABV012@@Z ENDP ; std::list<IMessageObserver *,std::allocator<IMessageObserver *> >::const_iterator::operator==
; Function compile flags: /Odt /RTCsu
_TEXT	ENDS
;	COMDAT ?_Prevnode@?$list@PAVIMessageObserver@@V?$allocator@PAVIMessageObserver@@@std@@@std@@KAAAPAU_Node@?$_List_nod@PAVIMessageObserver@@V?$allocator@PAVIMessageObserver@@@std@@@2@PAU342@@Z
_TEXT	SEGMENT
__Pnode$ = 8						; size = 4
?_Prevnode@?$list@PAVIMessageObserver@@V?$allocator@PAVIMessageObserver@@@std@@@std@@KAAAPAU_Node@?$_List_nod@PAVIMessageObserver@@V?$allocator@PAVIMessageObserver@@@std@@@2@PAU342@@Z PROC NEAR ; std::list<IMessageObserver *,std::allocator<IMessageObserver *> >::_Prevnode, COMDAT

; 112  : 		{	// return reference to predecessor pointer in node

  00000	55		 push	 ebp
  00001	8b ec		 mov	 ebp, esp

; 113  : 		return ((_Nodepref)(*_Pnode)._Prev);

  00003	8b 45 08	 mov	 eax, DWORD PTR __Pnode$[ebp]
  00006	83 c0 04	 add	 eax, 4

; 114  : 		}

  00009	5d		 pop	 ebp
  0000a	c3		 ret	 0
?_Prevnode@?$list@PAVIMessageObserver@@V?$allocator@PAVIMessageObserver@@@std@@@std@@KAAAPAU_Node@?$_List_nod@PAVIMessageObserver@@V?$allocator@PAVIMessageObserver@@@std@@@2@PAU342@@Z ENDP ; std::list<IMessageObserver *,std::allocator<IMessageObserver *> >::_Prevnode
; Function compile flags: /Odt /RTCsu
_TEXT	ENDS
;	COMDAT ?_Myval@?$list@PAVIMessageObserver@@V?$allocator@PAVIMessageObserver@@@std@@@std@@KAAAPAVIMessageObserver@@PAU_Node@?$_List_nod@PAVIMessageObserver@@V?$allocator@PAVIMessageObserver@@@std@@@2@@Z
_TEXT	SEGMENT
__Pnode$ = 8						; size = 4
?_Myval@?$list@PAVIMessageObserver@@V?$allocator@PAVIMessageObserver@@@std@@@std@@KAAAPAVIMessageObserver@@PAU_Node@?$_List_nod@PAVIMessageObserver@@V?$allocator@PAVIMessageObserver@@@std@@@2@@Z PROC NEAR ; std::list<IMessageObserver *,std::allocator<IMessageObserver *> >::_Myval, COMDAT

; 117  : 		{	// return reference to value in node

  00000	55		 push	 ebp
  00001	8b ec		 mov	 ebp, esp

; 118  : 		return ((_Vref)(*_Pnode)._Myval);

  00003	8b 45 08	 mov	 eax, DWORD PTR __Pnode$[ebp]
  00006	83 c0 08	 add	 eax, 8

; 119  : 		}

  00009	5d		 pop	 ebp
  0000a	c3		 ret	 0
?_Myval@?$list@PAVIMessageObserver@@V?$allocator@PAVIMessageObserver@@@std@@@std@@KAAAPAVIMessageObserver@@PAU_Node@?$_List_nod@PAVIMessageObserver@@V?$allocator@PAVIMessageObserver@@@std@@@2@@Z ENDP ; std::list<IMessageObserver *,std::allocator<IMessageObserver *> >::_Myval
_TEXT	ENDS
PUBLIC	?destroy@?$allocator@U_Node@?$_List_nod@PAVIMessageObserver@@V?$allocator@PAVIMessageObserver@@@std@@@std@@@std@@QAEXPAU_Node@?$_List_nod@PAVIMessageObserver@@V?$allocator@PAVIMessageObserver@@@std@@@2@@Z ; std::allocator<std::_List_nod<IMessageObserver *,std::allocator<IMessageObserver *> >::_Node>::destroy
; Function compile flags: /Odt /RTCsu
;	COMDAT ?clear@?$list@PAVIMessageObserver@@V?$allocator@PAVIMessageObserver@@@std@@@std@@QAEXXZ
_TEXT	SEGMENT
__Pnode$ = -12						; size = 4
__Pnext$ = -8						; size = 4
_this$ = -4						; size = 4
?clear@?$list@PAVIMessageObserver@@V?$allocator@PAVIMessageObserver@@@std@@@std@@QAEXXZ PROC NEAR ; std::list<IMessageObserver *,std::allocator<IMessageObserver *> >::clear, COMDAT
; _this$ = ecx

; 610  : 		{	// erase all

  00000	55		 push	 ebp
  00001	8b ec		 mov	 ebp, esp
  00003	83 ec 0c	 sub	 esp, 12			; 0000000cH
  00006	c7 45 f4 cc cc
	cc cc		 mov	 DWORD PTR [ebp-12], -858993460 ; ccccccccH
  0000d	c7 45 f8 cc cc
	cc cc		 mov	 DWORD PTR [ebp-8], -858993460 ; ccccccccH
  00014	c7 45 fc cc cc
	cc cc		 mov	 DWORD PTR [ebp-4], -858993460 ; ccccccccH
  0001b	89 4d fc	 mov	 DWORD PTR _this$[ebp], ecx

; 611  : 		_Nodeptr _Pnext;
; 612  : 		_Nodeptr _Pnode = _Nextnode(_Myhead);

  0001e	8b 45 fc	 mov	 eax, DWORD PTR _this$[ebp]
  00021	8b 48 04	 mov	 ecx, DWORD PTR [eax+4]
  00024	51		 push	 ecx
  00025	e8 00 00 00 00	 call	 ?_Nextnode@?$list@PAVIMessageObserver@@V?$allocator@PAVIMessageObserver@@@std@@@std@@KAAAPAU_Node@?$_List_nod@PAVIMessageObserver@@V?$allocator@PAVIMessageObserver@@@std@@@2@PAU342@@Z ; std::list<IMessageObserver *,std::allocator<IMessageObserver *> >::_Nextnode
  0002a	83 c4 04	 add	 esp, 4
  0002d	8b 10		 mov	 edx, DWORD PTR [eax]
  0002f	89 55 f4	 mov	 DWORD PTR __Pnode$[ebp], edx

; 613  : 		_Nextnode(_Myhead) = _Myhead;

  00032	8b 45 fc	 mov	 eax, DWORD PTR _this$[ebp]
  00035	8b 48 04	 mov	 ecx, DWORD PTR [eax+4]
  00038	51		 push	 ecx
  00039	e8 00 00 00 00	 call	 ?_Nextnode@?$list@PAVIMessageObserver@@V?$allocator@PAVIMessageObserver@@@std@@@std@@KAAAPAU_Node@?$_List_nod@PAVIMessageObserver@@V?$allocator@PAVIMessageObserver@@@std@@@2@PAU342@@Z ; std::list<IMessageObserver *,std::allocator<IMessageObserver *> >::_Nextnode
  0003e	83 c4 04	 add	 esp, 4
  00041	8b 55 fc	 mov	 edx, DWORD PTR _this$[ebp]
  00044	8b 4a 04	 mov	 ecx, DWORD PTR [edx+4]
  00047	89 08		 mov	 DWORD PTR [eax], ecx

; 614  : 		_Prevnode(_Myhead) = _Myhead;

  00049	8b 55 fc	 mov	 edx, DWORD PTR _this$[ebp]
  0004c	8b 42 04	 mov	 eax, DWORD PTR [edx+4]
  0004f	50		 push	 eax
  00050	e8 00 00 00 00	 call	 ?_Prevnode@?$list@PAVIMessageObserver@@V?$allocator@PAVIMessageObserver@@@std@@@std@@KAAAPAU_Node@?$_List_nod@PAVIMessageObserver@@V?$allocator@PAVIMessageObserver@@@std@@@2@PAU342@@Z ; std::list<IMessageObserver *,std::allocator<IMessageObserver *> >::_Prevnode
  00055	83 c4 04	 add	 esp, 4
  00058	8b 4d fc	 mov	 ecx, DWORD PTR _this$[ebp]
  0005b	8b 51 04	 mov	 edx, DWORD PTR [ecx+4]
  0005e	89 10		 mov	 DWORD PTR [eax], edx

; 615  : 		_Mysize = 0;

  00060	8b 45 fc	 mov	 eax, DWORD PTR _this$[ebp]
  00063	c7 40 08 00 00
	00 00		 mov	 DWORD PTR [eax+8], 0

; 616  : 
; 617  : 		for (; _Pnode != _Myhead; _Pnode = _Pnext)

  0006a	eb 06		 jmp	 SHORT $L198560
$L198561:
  0006c	8b 4d f8	 mov	 ecx, DWORD PTR __Pnext$[ebp]
  0006f	89 4d f4	 mov	 DWORD PTR __Pnode$[ebp], ecx
$L198560:
  00072	8b 55 fc	 mov	 edx, DWORD PTR _this$[ebp]
  00075	8b 45 f4	 mov	 eax, DWORD PTR __Pnode$[ebp]
  00078	3b 42 04	 cmp	 eax, DWORD PTR [edx+4]
  0007b	74 2d		 je	 SHORT $L198557

; 618  : 			{	// delete an element
; 619  : 			_Pnext = _Nextnode(_Pnode);

  0007d	8b 4d f4	 mov	 ecx, DWORD PTR __Pnode$[ebp]
  00080	51		 push	 ecx
  00081	e8 00 00 00 00	 call	 ?_Nextnode@?$list@PAVIMessageObserver@@V?$allocator@PAVIMessageObserver@@@std@@@std@@KAAAPAU_Node@?$_List_nod@PAVIMessageObserver@@V?$allocator@PAVIMessageObserver@@@std@@@2@PAU342@@Z ; std::list<IMessageObserver *,std::allocator<IMessageObserver *> >::_Nextnode
  00086	83 c4 04	 add	 esp, 4
  00089	8b 10		 mov	 edx, DWORD PTR [eax]
  0008b	89 55 f8	 mov	 DWORD PTR __Pnext$[ebp], edx

; 620  : 			this->_Alnod.destroy(_Pnode);

  0008e	8b 45 f4	 mov	 eax, DWORD PTR __Pnode$[ebp]
  00091	50		 push	 eax
  00092	8b 4d fc	 mov	 ecx, DWORD PTR _this$[ebp]
  00095	e8 00 00 00 00	 call	 ?destroy@?$allocator@U_Node@?$_List_nod@PAVIMessageObserver@@V?$allocator@PAVIMessageObserver@@@std@@@std@@@std@@QAEXPAU_Node@?$_List_nod@PAVIMessageObserver@@V?$allocator@PAVIMessageObserver@@@std@@@2@@Z ; std::allocator<std::_List_nod<IMessageObserver *,std::allocator<IMessageObserver *> >::_Node>::destroy

; 621  : 			this->_Alnod.deallocate(_Pnode, 1);

  0009a	6a 01		 push	 1
  0009c	8b 4d f4	 mov	 ecx, DWORD PTR __Pnode$[ebp]
  0009f	51		 push	 ecx
  000a0	8b 4d fc	 mov	 ecx, DWORD PTR _this$[ebp]
  000a3	e8 00 00 00 00	 call	 ?deallocate@?$allocator@U_Node@?$_List_nod@PAVIMessageObserver@@V?$allocator@PAVIMessageObserver@@@std@@@std@@@std@@QAEXPAU_Node@?$_List_nod@PAVIMessageObserver@@V?$allocator@PAVIMessageObserver@@@std@@@2@I@Z ; std::allocator<std::_List_nod<IMessageObserver *,std::allocator<IMessageObserver *> >::_Node>::deallocate

; 622  : 			}

  000a8	eb c2		 jmp	 SHORT $L198561
$L198557:

; 623  : 		}

  000aa	83 c4 0c	 add	 esp, 12			; 0000000cH
  000ad	3b ec		 cmp	 ebp, esp
  000af	e8 00 00 00 00	 call	 __RTC_CheckEsp
  000b4	8b e5		 mov	 esp, ebp
  000b6	5d		 pop	 ebp
  000b7	c3		 ret	 0
?clear@?$list@PAVIMessageObserver@@V?$allocator@PAVIMessageObserver@@@std@@@std@@QAEXXZ ENDP ; std::list<IMessageObserver *,std::allocator<IMessageObserver *> >::clear
_TEXT	ENDS
PUBLIC	??0?$_List_nod@PAVIMessageObserver@@V?$allocator@PAVIMessageObserver@@@std@@@std@@IAE@V?$allocator@PAVIMessageObserver@@@1@@Z ; std::_List_nod<IMessageObserver *,std::allocator<IMessageObserver *> >::_List_nod<IMessageObserver *,std::allocator<IMessageObserver *> >
PUBLIC	??$?0PAVIMessageObserver@@@?$allocator@PAU_Node@?$_List_nod@PAVIMessageObserver@@V?$allocator@PAVIMessageObserver@@@std@@@std@@@std@@QAE@ABV?$allocator@PAVIMessageObserver@@@1@@Z ; std::allocator<std::_List_nod<IMessageObserver *,std::allocator<IMessageObserver *> >::_Node *>::allocator<std::_List_nod<IMessageObserver *,std::allocator<IMessageObserver *> >::_Node *><IMessageObserver *>
; Function compile flags: /Odt /RTCsu
;	COMDAT ??0?$_List_ptr@PAVIMessageObserver@@V?$allocator@PAVIMessageObserver@@@std@@@std@@IAE@V?$allocator@PAVIMessageObserver@@@1@@Z
_TEXT	SEGMENT
_this$ = -4						; size = 4
__Al$ = 8						; size = 1
??0?$_List_ptr@PAVIMessageObserver@@V?$allocator@PAVIMessageObserver@@@std@@@std@@IAE@V?$allocator@PAVIMessageObserver@@@1@@Z PROC NEAR ; std::_List_ptr<IMessageObserver *,std::allocator<IMessageObserver *> >::_List_ptr<IMessageObserver *,std::allocator<IMessageObserver *> >, COMDAT
; _this$ = ecx

; 64   : 		{	// construct base, and allocator from _Al

  00000	55		 push	 ebp
  00001	8b ec		 mov	 ebp, esp
  00003	83 ec 08	 sub	 esp, 8
  00006	c7 45 f8 cc cc
	cc cc		 mov	 DWORD PTR [ebp-8], -858993460 ; ccccccccH
  0000d	c7 45 fc cc cc
	cc cc		 mov	 DWORD PTR [ebp-4], -858993460 ; ccccccccH
  00014	89 4d fc	 mov	 DWORD PTR _this$[ebp], ecx
  00017	51		 push	 ecx
  00018	8b cc		 mov	 ecx, esp
  0001a	8d 45 08	 lea	 eax, DWORD PTR __Al$[ebp]
  0001d	50		 push	 eax
  0001e	e8 00 00 00 00	 call	 ??0?$allocator@PAVIMessageObserver@@@std@@QAE@ABV01@@Z ; std::allocator<IMessageObserver *>::allocator<IMessageObserver *>
  00023	8b 4d fc	 mov	 ecx, DWORD PTR _this$[ebp]
  00026	e8 00 00 00 00	 call	 ??0?$_List_nod@PAVIMessageObserver@@V?$allocator@PAVIMessageObserver@@@std@@@std@@IAE@V?$allocator@PAVIMessageObserver@@@1@@Z ; std::_List_nod<IMessageObserver *,std::allocator<IMessageObserver *> >::_List_nod<IMessageObserver *,std::allocator<IMessageObserver *> >
  0002b	8d 4d 08	 lea	 ecx, DWORD PTR __Al$[ebp]
  0002e	51		 push	 ecx
  0002f	8b 4d fc	 mov	 ecx, DWORD PTR _this$[ebp]
  00032	83 c1 01	 add	 ecx, 1
  00035	e8 00 00 00 00	 call	 ??$?0PAVIMessageObserver@@@?$allocator@PAU_Node@?$_List_nod@PAVIMessageObserver@@V?$allocator@PAVIMessageObserver@@@std@@@std@@@std@@QAE@ABV?$allocator@PAVIMessageObserver@@@1@@Z ; std::allocator<std::_List_nod<IMessageObserver *,std::allocator<IMessageObserver *> >::_Node *>::allocator<std::_List_nod<IMessageObserver *,std::allocator<IMessageObserver *> >::_Node *><IMessageObserver *>

; 65   : 		}

  0003a	8b 45 fc	 mov	 eax, DWORD PTR _this$[ebp]
  0003d	83 c4 08	 add	 esp, 8
  00040	3b ec		 cmp	 ebp, esp
  00042	e8 00 00 00 00	 call	 __RTC_CheckEsp
  00047	8b e5		 mov	 esp, ebp
  00049	5d		 pop	 ebp
  0004a	c2 04 00	 ret	 4
??0?$_List_ptr@PAVIMessageObserver@@V?$allocator@PAVIMessageObserver@@@std@@@std@@IAE@V?$allocator@PAVIMessageObserver@@@1@@Z ENDP ; std::_List_ptr<IMessageObserver *,std::allocator<IMessageObserver *> >::_List_ptr<IMessageObserver *,std::allocator<IMessageObserver *> >
; Function compile flags: /Odt /RTCsu
; File d:\program files (x86)\microsoft visual studio .net 2003\vc7\include\xmemory
_TEXT	ENDS
;	COMDAT ??0?$allocator@PAVIMessageObserver@@@std@@QAE@ABV01@@Z
_TEXT	SEGMENT
_this$ = -4						; size = 4
___formal$ = 8						; size = 4
??0?$allocator@PAVIMessageObserver@@@std@@QAE@ABV01@@Z PROC NEAR ; std::allocator<IMessageObserver *>::allocator<IMessageObserver *>, COMDAT
; _this$ = ecx

; 115  : 	allocator(const allocator<_Ty>&)

  00000	55		 push	 ebp
  00001	8b ec		 mov	 ebp, esp
  00003	51		 push	 ecx
  00004	c7 45 fc cc cc
	cc cc		 mov	 DWORD PTR [ebp-4], -858993460 ; ccccccccH
  0000b	89 4d fc	 mov	 DWORD PTR _this$[ebp], ecx

; 116  : 		{	// construct by copying (do nothing)
; 117  : 		}

  0000e	8b 45 fc	 mov	 eax, DWORD PTR _this$[ebp]
  00011	8b e5		 mov	 esp, ebp
  00013	5d		 pop	 ebp
  00014	c2 04 00	 ret	 4
??0?$allocator@PAVIMessageObserver@@@std@@QAE@ABV01@@Z ENDP ; std::allocator<IMessageObserver *>::allocator<IMessageObserver *>
; Function compile flags: /Odt /RTCsu
_TEXT	ENDS
;	COMDAT ?deallocate@?$allocator@U_Node@?$_List_nod@PAVIMessageObserver@@V?$allocator@PAVIMessageObserver@@@std@@@std@@@std@@QAEXPAU_Node@?$_List_nod@PAVIMessageObserver@@V?$allocator@PAVIMessageObserver@@@std@@@2@I@Z
_TEXT	SEGMENT
_this$ = -4						; size = 4
__Ptr$ = 8						; size = 4
___formal$ = 12						; size = 4
?deallocate@?$allocator@U_Node@?$_List_nod@PAVIMessageObserver@@V?$allocator@PAVIMessageObserver@@@std@@@std@@@std@@QAEXPAU_Node@?$_List_nod@PAVIMessageObserver@@V?$allocator@PAVIMessageObserver@@@std@@@2@I@Z PROC NEAR ; std::allocator<std::_List_nod<IMessageObserver *,std::allocator<IMessageObserver *> >::_Node>::deallocate, COMDAT
; _this$ = ecx

; 131  : 		{	// deallocate object at _Ptr, ignore size

  00000	55		 push	 ebp
  00001	8b ec		 mov	 ebp, esp
  00003	51		 push	 ecx
  00004	c7 45 fc cc cc
	cc cc		 mov	 DWORD PTR [ebp-4], -858993460 ; ccccccccH
  0000b	89 4d fc	 mov	 DWORD PTR _this$[ebp], ecx

; 132  : 		operator delete(_Ptr);

  0000e	8b 45 08	 mov	 eax, DWORD PTR __Ptr$[ebp]
  00011	50		 push	 eax
  00012	e8 00 00 00 00	 call	 ??3@YAXPAX@Z		; operator delete
  00017	83 c4 04	 add	 esp, 4

; 133  : 		}

  0001a	83 c4 04	 add	 esp, 4
  0001d	3b ec		 cmp	 ebp, esp
  0001f	e8 00 00 00 00	 call	 __RTC_CheckEsp
  00024	8b e5		 mov	 esp, ebp
  00026	5d		 pop	 ebp
  00027	c2 08 00	 ret	 8
?deallocate@?$allocator@U_Node@?$_List_nod@PAVIMessageObserver@@V?$allocator@PAVIMessageObserver@@@std@@@std@@@std@@QAEXPAU_Node@?$_List_nod@PAVIMessageObserver@@V?$allocator@PAVIMessageObserver@@@std@@@2@I@Z ENDP ; std::allocator<std::_List_nod<IMessageObserver *,std::allocator<IMessageObserver *> >::_Node>::deallocate
_TEXT	ENDS
PUBLIC	??$_Allocate@U_Node@?$_List_nod@PAVIMessageObserver@@V?$allocator@PAVIMessageObserver@@@std@@@std@@@std@@YAPAU_Node@?$_List_nod@PAVIMessageObserver@@V?$allocator@PAVIMessageObserver@@@std@@@0@IPAU120@@Z ; std::_Allocate<std::_List_nod<IMessageObserver *,std::allocator<IMessageObserver *> >::_Node>
; Function compile flags: /Odt /RTCsu
;	COMDAT ?allocate@?$allocator@U_Node@?$_List_nod@PAVIMessageObserver@@V?$allocator@PAVIMessageObserver@@@std@@@std@@@std@@QAEPAU_Node@?$_List_nod@PAVIMessageObserver@@V?$allocator@PAVIMessageObserver@@@std@@@2@I@Z
_TEXT	SEGMENT
_this$ = -4						; size = 4
__Count$ = 8						; size = 4
?allocate@?$allocator@U_Node@?$_List_nod@PAVIMessageObserver@@V?$allocator@PAVIMessageObserver@@@std@@@std@@@std@@QAEPAU_Node@?$_List_nod@PAVIMessageObserver@@V?$allocator@PAVIMessageObserver@@@std@@@2@I@Z PROC NEAR ; std::allocator<std::_List_nod<IMessageObserver *,std::allocator<IMessageObserver *> >::_Node>::allocate, COMDAT
; _this$ = ecx

; 136  : 		{	// allocate array of _Count elements

  00000	55		 push	 ebp
  00001	8b ec		 mov	 ebp, esp
  00003	51		 push	 ecx
  00004	c7 45 fc cc cc
	cc cc		 mov	 DWORD PTR [ebp-4], -858993460 ; ccccccccH
  0000b	89 4d fc	 mov	 DWORD PTR _this$[ebp], ecx

; 137  : 		return (_Allocate(_Count, (pointer)0));

  0000e	6a 00		 push	 0
  00010	8b 45 08	 mov	 eax, DWORD PTR __Count$[ebp]
  00013	50		 push	 eax
  00014	e8 00 00 00 00	 call	 ??$_Allocate@U_Node@?$_List_nod@PAVIMessageObserver@@V?$allocator@PAVIMessageObserver@@@std@@@std@@@std@@YAPAU_Node@?$_List_nod@PAVIMessageObserver@@V?$allocator@PAVIMessageObserver@@@std@@@0@IPAU120@@Z ; std::_Allocate<std::_List_nod<IMessageObserver *,std::allocator<IMessageObserver *> >::_Node>
  00019	83 c4 08	 add	 esp, 8

; 138  : 		}

  0001c	83 c4 04	 add	 esp, 4
  0001f	3b ec		 cmp	 ebp, esp
  00021	e8 00 00 00 00	 call	 __RTC_CheckEsp
  00026	8b e5		 mov	 esp, ebp
  00028	5d		 pop	 ebp
  00029	c2 04 00	 ret	 4
?allocate@?$allocator@U_Node@?$_List_nod@PAVIMessageObserver@@V?$allocator@PAVIMessageObserver@@@std@@@std@@@std@@QAEPAU_Node@?$_List_nod@PAVIMessageObserver@@V?$allocator@PAVIMessageObserver@@@std@@@2@I@Z ENDP ; std::allocator<std::_List_nod<IMessageObserver *,std::allocator<IMessageObserver *> >::_Node>::allocate
_TEXT	ENDS
PUBLIC	??$_Construct@PAU_Node@?$_List_nod@PAVIMessageObserver@@V?$allocator@PAVIMessageObserver@@@std@@@std@@PAU123@@std@@YAXPAPAU_Node@?$_List_nod@PAVIMessageObserver@@V?$allocator@PAVIMessageObserver@@@std@@@0@ABQAU120@@Z ; std::_Construct<std::_List_nod<IMessageObserver *,std::allocator<IMessageObserver *> >::_Node *,std::_List_nod<IMessageObserver *,std::allocator<IMessageObserver *> >::_Node *>
; Function compile flags: /Odt /RTCsu
;	COMDAT ?construct@?$allocator@PAU_Node@?$_List_nod@PAVIMessageObserver@@V?$allocator@PAVIMessageObserver@@@std@@@std@@@std@@QAEXPAPAU_Node@?$_List_nod@PAVIMessageObserver@@V?$allocator@PAVIMessageObserver@@@std@@@2@ABQAU342@@Z
_TEXT	SEGMENT
_this$ = -4						; size = 4
__Ptr$ = 8						; size = 4
__Val$ = 12						; size = 4
?construct@?$allocator@PAU_Node@?$_List_nod@PAVIMessageObserver@@V?$allocator@PAVIMessageObserver@@@std@@@std@@@std@@QAEXPAPAU_Node@?$_List_nod@PAVIMessageObserver@@V?$allocator@PAVIMessageObserver@@@std@@@2@ABQAU342@@Z PROC NEAR ; std::allocator<std::_List_nod<IMessageObserver *,std::allocator<IMessageObserver *> >::_Node *>::construct, COMDAT
; _this$ = ecx

; 146  : 		{	// construct object at _Ptr with value _Val

  00000	55		 push	 ebp
  00001	8b ec		 mov	 ebp, esp
  00003	51		 push	 ecx
  00004	c7 45 fc cc cc
	cc cc		 mov	 DWORD PTR [ebp-4], -858993460 ; ccccccccH
  0000b	89 4d fc	 mov	 DWORD PTR _this$[ebp], ecx

; 147  : 		_Construct(_Ptr, _Val);

  0000e	8b 45 0c	 mov	 eax, DWORD PTR __Val$[ebp]
  00011	50		 push	 eax
  00012	8b 4d 08	 mov	 ecx, DWORD PTR __Ptr$[ebp]
  00015	51		 push	 ecx
  00016	e8 00 00 00 00	 call	 ??$_Construct@PAU_Node@?$_List_nod@PAVIMessageObserver@@V?$allocator@PAVIMessageObserver@@@std@@@std@@PAU123@@std@@YAXPAPAU_Node@?$_List_nod@PAVIMessageObserver@@V?$allocator@PAVIMessageObserver@@@std@@@0@ABQAU120@@Z ; std::_Construct<std::_List_nod<IMessageObserver *,std::allocator<IMessageObserver *> >::_Node *,std::_List_nod<IMessageObserver *,std::allocator<IMessageObserver *> >::_Node *>
  0001b	83 c4 08	 add	 esp, 8

; 148  : 		}

  0001e	83 c4 04	 add	 esp, 4
  00021	3b ec		 cmp	 ebp, esp
  00023	e8 00 00 00 00	 call	 __RTC_CheckEsp
  00028	8b e5		 mov	 esp, ebp
  0002a	5d		 pop	 ebp
  0002b	c2 08 00	 ret	 8
?construct@?$allocator@PAU_Node@?$_List_nod@PAVIMessageObserver@@V?$allocator@PAVIMessageObserver@@@std@@@std@@@std@@QAEXPAPAU_Node@?$_List_nod@PAVIMessageObserver@@V?$allocator@PAVIMessageObserver@@@std@@@2@ABQAU342@@Z ENDP ; std::allocator<std::_List_nod<IMessageObserver *,std::allocator<IMessageObserver *> >::_Node *>::construct
_TEXT	ENDS
PUBLIC	??$_Destroy@PAU_Node@?$_List_nod@PAVIMessageObserver@@V?$allocator@PAVIMessageObserver@@@std@@@std@@@std@@YAXPAPAU_Node@?$_List_nod@PAVIMessageObserver@@V?$allocator@PAVIMessageObserver@@@std@@@0@@Z ; std::_Destroy<std::_List_nod<IMessageObserver *,std::allocator<IMessageObserver *> >::_Node *>
; Function compile flags: /Odt /RTCsu
;	COMDAT ?destroy@?$allocator@PAU_Node@?$_List_nod@PAVIMessageObserver@@V?$allocator@PAVIMessageObserver@@@std@@@std@@@std@@QAEXPAPAU_Node@?$_List_nod@PAVIMessageObserver@@V?$allocator@PAVIMessageObserver@@@std@@@2@@Z
_TEXT	SEGMENT
_this$ = -4						; size = 4
__Ptr$ = 8						; size = 4
?destroy@?$allocator@PAU_Node@?$_List_nod@PAVIMessageObserver@@V?$allocator@PAVIMessageObserver@@@std@@@std@@@std@@QAEXPAPAU_Node@?$_List_nod@PAVIMessageObserver@@V?$allocator@PAVIMessageObserver@@@std@@@2@@Z PROC NEAR ; std::allocator<std::_List_nod<IMessageObserver *,std::allocator<IMessageObserver *> >::_Node *>::destroy, COMDAT
; _this$ = ecx

; 151  : 		{	// destroy object at _Ptr

  00000	55		 push	 ebp
  00001	8b ec		 mov	 ebp, esp
  00003	51		 push	 ecx
  00004	c7 45 fc cc cc
	cc cc		 mov	 DWORD PTR [ebp-4], -858993460 ; ccccccccH
  0000b	89 4d fc	 mov	 DWORD PTR _this$[ebp], ecx

; 152  : 		_Destroy(_Ptr);

  0000e	8b 45 08	 mov	 eax, DWORD PTR __Ptr$[ebp]
  00011	50		 push	 eax
  00012	e8 00 00 00 00	 call	 ??$_Destroy@PAU_Node@?$_List_nod@PAVIMessageObserver@@V?$allocator@PAVIMessageObserver@@@std@@@std@@@std@@YAXPAPAU_Node@?$_List_nod@PAVIMessageObserver@@V?$allocator@PAVIMessageObserver@@@std@@@0@@Z ; std::_Destroy<std::_List_nod<IMessageObserver *,std::allocator<IMessageObserver *> >::_Node *>
  00017	83 c4 04	 add	 esp, 4

; 153  : 		}

  0001a	83 c4 04	 add	 esp, 4
  0001d	3b ec		 cmp	 ebp, esp
  0001f	e8 00 00 00 00	 call	 __RTC_CheckEsp
  00024	8b e5		 mov	 esp, ebp
  00026	5d		 pop	 ebp
  00027	c2 04 00	 ret	 4
?destroy@?$allocator@PAU_Node@?$_List_nod@PAVIMessageObserver@@V?$allocator@PAVIMessageObserver@@@std@@@std@@@std@@QAEXPAPAU_Node@?$_List_nod@PAVIMessageObserver@@V?$allocator@PAVIMessageObserver@@@std@@@2@@Z ENDP ; std::allocator<std::_List_nod<IMessageObserver *,std::allocator<IMessageObserver *> >::_Node *>::destroy
; Function compile flags: /Odt /RTCsu
; File d:\program files (x86)\microsoft visual studio .net 2003\vc7\include\list
_TEXT	ENDS
;	COMDAT ??0const_iterator@?$list@PAVIMessageObserver@@V?$allocator@PAVIMessageObserver@@@std@@@std@@QAE@PAU_Node@?$_List_nod@PAVIMessageObserver@@V?$allocator@PAVIMessageObserver@@@std@@@2@@Z
_TEXT	SEGMENT
_this$ = -4						; size = 4
__Pnode$ = 8						; size = 4
??0const_iterator@?$list@PAVIMessageObserver@@V?$allocator@PAVIMessageObserver@@@std@@@std@@QAE@PAU_Node@?$_List_nod@PAVIMessageObserver@@V?$allocator@PAVIMessageObserver@@@std@@@2@@Z PROC NEAR ; std::list<IMessageObserver *,std::allocator<IMessageObserver *> >::const_iterator::const_iterator, COMDAT
; _this$ = ecx

; 156  : 			{	// construct with node pointer _Pnode

  00000	55		 push	 ebp
  00001	8b ec		 mov	 ebp, esp
  00003	51		 push	 ecx
  00004	c7 45 fc cc cc
	cc cc		 mov	 DWORD PTR [ebp-4], -858993460 ; ccccccccH
  0000b	89 4d fc	 mov	 DWORD PTR _this$[ebp], ecx
  0000e	8b 45 fc	 mov	 eax, DWORD PTR _this$[ebp]
  00011	8b 4d 08	 mov	 ecx, DWORD PTR __Pnode$[ebp]
  00014	89 08		 mov	 DWORD PTR [eax], ecx

; 157  : 			}

  00016	8b 45 fc	 mov	 eax, DWORD PTR _this$[ebp]
  00019	8b e5		 mov	 esp, ebp
  0001b	5d		 pop	 ebp
  0001c	c2 04 00	 ret	 4
??0const_iterator@?$list@PAVIMessageObserver@@V?$allocator@PAVIMessageObserver@@@std@@@std@@QAE@PAU_Node@?$_List_nod@PAVIMessageObserver@@V?$allocator@PAVIMessageObserver@@@std@@@2@@Z ENDP ; std::list<IMessageObserver *,std::allocator<IMessageObserver *> >::const_iterator::const_iterator
; Function compile flags: /Odt /RTCsu
_TEXT	ENDS
;	COMDAT ??Econst_iterator@?$list@PAVIMessageObserver@@V?$allocator@PAVIMessageObserver@@@std@@@std@@QAEAAV012@XZ
_TEXT	SEGMENT
_this$ = -4						; size = 4
??Econst_iterator@?$list@PAVIMessageObserver@@V?$allocator@PAVIMessageObserver@@@std@@@std@@QAEAAV012@XZ PROC NEAR ; std::list<IMessageObserver *,std::allocator<IMessageObserver *> >::const_iterator::operator++, COMDAT
; _this$ = ecx

; 170  : 			{	// preincrement

  00000	55		 push	 ebp
  00001	8b ec		 mov	 ebp, esp
  00003	51		 push	 ecx
  00004	c7 45 fc cc cc
	cc cc		 mov	 DWORD PTR [ebp-4], -858993460 ; ccccccccH
  0000b	89 4d fc	 mov	 DWORD PTR _this$[ebp], ecx

; 171  : 			_Ptr = _Nextnode(_Ptr);

  0000e	8b 45 fc	 mov	 eax, DWORD PTR _this$[ebp]
  00011	8b 08		 mov	 ecx, DWORD PTR [eax]
  00013	51		 push	 ecx
  00014	e8 00 00 00 00	 call	 ?_Nextnode@?$list@PAVIMessageObserver@@V?$allocator@PAVIMessageObserver@@@std@@@std@@KAAAPAU_Node@?$_List_nod@PAVIMessageObserver@@V?$allocator@PAVIMessageObserver@@@std@@@2@PAU342@@Z ; std::list<IMessageObserver *,std::allocator<IMessageObserver *> >::_Nextnode
  00019	83 c4 04	 add	 esp, 4
  0001c	8b 55 fc	 mov	 edx, DWORD PTR _this$[ebp]
  0001f	8b 00		 mov	 eax, DWORD PTR [eax]
  00021	89 02		 mov	 DWORD PTR [edx], eax

; 172  : 			return (*this);

  00023	8b 45 fc	 mov	 eax, DWORD PTR _this$[ebp]

; 173  : 			}

  00026	83 c4 04	 add	 esp, 4
  00029	3b ec		 cmp	 ebp, esp
  0002b	e8 00 00 00 00	 call	 __RTC_CheckEsp
  00030	8b e5		 mov	 esp, ebp
  00032	5d		 pop	 ebp
  00033	c3		 ret	 0
??Econst_iterator@?$list@PAVIMessageObserver@@V?$allocator@PAVIMessageObserver@@@std@@@std@@QAEAAV012@XZ ENDP ; std::list<IMessageObserver *,std::allocator<IMessageObserver *> >::const_iterator::operator++
_TEXT	ENDS
PUBLIC	??$?0PAVIMessageObserver@@@?$allocator@U_Node@?$_List_nod@PAVIMessageObserver@@V?$allocator@PAVIMessageObserver@@@std@@@std@@@std@@QAE@ABV?$allocator@PAVIMessageObserver@@@1@@Z ; std::allocator<std::_List_nod<IMessageObserver *,std::allocator<IMessageObserver *> >::_Node>::allocator<std::_List_nod<IMessageObserver *,std::allocator<IMessageObserver *> >::_Node><IMessageObserver *>
; Function compile flags: /Odt /RTCsu
;	COMDAT ??0?$_List_nod@PAVIMessageObserver@@V?$allocator@PAVIMessageObserver@@@std@@@std@@IAE@V?$allocator@PAVIMessageObserver@@@1@@Z
_TEXT	SEGMENT
_this$ = -4						; size = 4
__Al$ = 8						; size = 1
??0?$_List_nod@PAVIMessageObserver@@V?$allocator@PAVIMessageObserver@@@std@@@std@@IAE@V?$allocator@PAVIMessageObserver@@@1@@Z PROC NEAR ; std::_List_nod<IMessageObserver *,std::allocator<IMessageObserver *> >::_List_nod<IMessageObserver *,std::allocator<IMessageObserver *> >, COMDAT
; _this$ = ecx

; 44   : 		{	// construct allocator from _Al

  00000	55		 push	 ebp
  00001	8b ec		 mov	 ebp, esp
  00003	51		 push	 ecx
  00004	c7 45 fc cc cc
	cc cc		 mov	 DWORD PTR [ebp-4], -858993460 ; ccccccccH
  0000b	89 4d fc	 mov	 DWORD PTR _this$[ebp], ecx
  0000e	8d 45 08	 lea	 eax, DWORD PTR __Al$[ebp]
  00011	50		 push	 eax
  00012	8b 4d fc	 mov	 ecx, DWORD PTR _this$[ebp]
  00015	e8 00 00 00 00	 call	 ??$?0PAVIMessageObserver@@@?$allocator@U_Node@?$_List_nod@PAVIMessageObserver@@V?$allocator@PAVIMessageObserver@@@std@@@std@@@std@@QAE@ABV?$allocator@PAVIMessageObserver@@@1@@Z ; std::allocator<std::_List_nod<IMessageObserver *,std::allocator<IMessageObserver *> >::_Node>::allocator<std::_List_nod<IMessageObserver *,std::allocator<IMessageObserver *> >::_Node><IMessageObserver *>

; 45   : 		}

  0001a	8b 45 fc	 mov	 eax, DWORD PTR _this$[ebp]
  0001d	83 c4 04	 add	 esp, 4
  00020	3b ec		 cmp	 ebp, esp
  00022	e8 00 00 00 00	 call	 __RTC_CheckEsp
  00027	8b e5		 mov	 esp, ebp
  00029	5d		 pop	 ebp
  0002a	c2 04 00	 ret	 4
??0?$_List_nod@PAVIMessageObserver@@V?$allocator@PAVIMessageObserver@@@std@@@std@@IAE@V?$allocator@PAVIMessageObserver@@@1@@Z ENDP ; std::_List_nod<IMessageObserver *,std::allocator<IMessageObserver *> >::_List_nod<IMessageObserver *,std::allocator<IMessageObserver *> >
_TEXT	ENDS
PUBLIC	??$_Destroy@U_Node@?$_List_nod@PAVIMessageObserver@@V?$allocator@PAVIMessageObserver@@@std@@@std@@@std@@YAXPAU_Node@?$_List_nod@PAVIMessageObserver@@V?$allocator@PAVIMessageObserver@@@std@@@0@@Z ; std::_Destroy<std::_List_nod<IMessageObserver *,std::allocator<IMessageObserver *> >::_Node>
; Function compile flags: /Odt /RTCsu
; File d:\program files (x86)\microsoft visual studio .net 2003\vc7\include\xmemory
;	COMDAT ?destroy@?$allocator@U_Node@?$_List_nod@PAVIMessageObserver@@V?$allocator@PAVIMessageObserver@@@std@@@std@@@std@@QAEXPAU_Node@?$_List_nod@PAVIMessageObserver@@V?$allocator@PAVIMessageObserver@@@std@@@2@@Z
_TEXT	SEGMENT
_this$ = -4						; size = 4
__Ptr$ = 8						; size = 4
?destroy@?$allocator@U_Node@?$_List_nod@PAVIMessageObserver@@V?$allocator@PAVIMessageObserver@@@std@@@std@@@std@@QAEXPAU_Node@?$_List_nod@PAVIMessageObserver@@V?$allocator@PAVIMessageObserver@@@std@@@2@@Z PROC NEAR ; std::allocator<std::_List_nod<IMessageObserver *,std::allocator<IMessageObserver *> >::_Node>::destroy, COMDAT
; _this$ = ecx

; 151  : 		{	// destroy object at _Ptr

  00000	55		 push	 ebp
  00001	8b ec		 mov	 ebp, esp
  00003	51		 push	 ecx
  00004	c7 45 fc cc cc
	cc cc		 mov	 DWORD PTR [ebp-4], -858993460 ; ccccccccH
  0000b	89 4d fc	 mov	 DWORD PTR _this$[ebp], ecx

; 152  : 		_Destroy(_Ptr);

  0000e	8b 45 08	 mov	 eax, DWORD PTR __Ptr$[ebp]
  00011	50		 push	 eax
  00012	e8 00 00 00 00	 call	 ??$_Destroy@U_Node@?$_List_nod@PAVIMessageObserver@@V?$allocator@PAVIMessageObserver@@@std@@@std@@@std@@YAXPAU_Node@?$_List_nod@PAVIMessageObserver@@V?$allocator@PAVIMessageObserver@@@std@@@0@@Z ; std::_Destroy<std::_List_nod<IMessageObserver *,std::allocator<IMessageObserver *> >::_Node>
  00017	83 c4 04	 add	 esp, 4

; 153  : 		}

  0001a	83 c4 04	 add	 esp, 4
  0001d	3b ec		 cmp	 ebp, esp
  0001f	e8 00 00 00 00	 call	 __RTC_CheckEsp
  00024	8b e5		 mov	 esp, ebp
  00026	5d		 pop	 ebp
  00027	c2 04 00	 ret	 4
?destroy@?$allocator@U_Node@?$_List_nod@PAVIMessageObserver@@V?$allocator@PAVIMessageObserver@@@std@@@std@@@std@@QAEXPAU_Node@?$_List_nod@PAVIMessageObserver@@V?$allocator@PAVIMessageObserver@@@std@@@2@@Z ENDP ; std::allocator<std::_List_nod<IMessageObserver *,std::allocator<IMessageObserver *> >::_Node>::destroy
; Function compile flags: /Odt /RTCsu
_TEXT	ENDS
;	COMDAT ??$?0PAVIMessageObserver@@@?$allocator@PAU_Node@?$_List_nod@PAVIMessageObserver@@V?$allocator@PAVIMessageObserver@@@std@@@std@@@std@@QAE@ABV?$allocator@PAVIMessageObserver@@@1@@Z
_TEXT	SEGMENT
_this$ = -4						; size = 4
___formal$ = 8						; size = 4
??$?0PAVIMessageObserver@@@?$allocator@PAU_Node@?$_List_nod@PAVIMessageObserver@@V?$allocator@PAVIMessageObserver@@@std@@@std@@@std@@QAE@ABV?$allocator@PAVIMessageObserver@@@1@@Z PROC NEAR ; std::allocator<std::_List_nod<IMessageObserver *,std::allocator<IMessageObserver *> >::_Node *>::allocator<std::_List_nod<IMessageObserver *,std::allocator<IMessageObserver *> >::_Node *><IMessageObserver *>, COMDAT
; _this$ = ecx

; 120  : 		allocator(const allocator<_Other>&)

  00000	55		 push	 ebp
  00001	8b ec		 mov	 ebp, esp
  00003	51		 push	 ecx
  00004	c7 45 fc cc cc
	cc cc		 mov	 DWORD PTR [ebp-4], -858993460 ; ccccccccH
  0000b	89 4d fc	 mov	 DWORD PTR _this$[ebp], ecx

; 121  : 		{	// construct from a related allocator (do nothing)
; 122  : 		}

  0000e	8b 45 fc	 mov	 eax, DWORD PTR _this$[ebp]
  00011	8b e5		 mov	 esp, ebp
  00013	5d		 pop	 ebp
  00014	c2 04 00	 ret	 4
??$?0PAVIMessageObserver@@@?$allocator@PAU_Node@?$_List_nod@PAVIMessageObserver@@V?$allocator@PAVIMessageObserver@@@std@@@std@@@std@@QAE@ABV?$allocator@PAVIMessageObserver@@@1@@Z ENDP ; std::allocator<std::_List_nod<IMessageObserver *,std::allocator<IMessageObserver *> >::_Node *>::allocator<std::_List_nod<IMessageObserver *,std::allocator<IMessageObserver *> >::_Node *><IMessageObserver *>
_TEXT	ENDS
EXTRN	??2@YAPAXI@Z:NEAR				; operator new
; Function compile flags: /Odt /RTCsu
;	COMDAT ??$_Allocate@U_Node@?$_List_nod@PAVIMessageObserver@@V?$allocator@PAVIMessageObserver@@@std@@@std@@@std@@YAPAU_Node@?$_List_nod@PAVIMessageObserver@@V?$allocator@PAVIMessageObserver@@@std@@@0@IPAU120@@Z
_TEXT	SEGMENT
__Count$ = 8						; size = 4
___formal$ = 12						; size = 4
??$_Allocate@U_Node@?$_List_nod@PAVIMessageObserver@@V?$allocator@PAVIMessageObserver@@@std@@@std@@@std@@YAPAU_Node@?$_List_nod@PAVIMessageObserver@@V?$allocator@PAVIMessageObserver@@@std@@@0@IPAU120@@Z PROC NEAR ; std::_Allocate<std::_List_nod<IMessageObserver *,std::allocator<IMessageObserver *> >::_Node>, COMDAT

; 33   : 	{	// allocate storage for _Count elements of type _Ty

  00000	55		 push	 ebp
  00001	8b ec		 mov	 ebp, esp

; 34   : 	return ((_Ty _FARQ *)operator new(_Count * sizeof (_Ty)));

  00003	8b 45 08	 mov	 eax, DWORD PTR __Count$[ebp]
  00006	6b c0 0c	 imul	 eax, 12			; 0000000cH
  00009	50		 push	 eax
  0000a	e8 00 00 00 00	 call	 ??2@YAPAXI@Z		; operator new
  0000f	83 c4 04	 add	 esp, 4

; 35   : 	}

  00012	3b ec		 cmp	 ebp, esp
  00014	e8 00 00 00 00	 call	 __RTC_CheckEsp
  00019	5d		 pop	 ebp
  0001a	c3		 ret	 0
??$_Allocate@U_Node@?$_List_nod@PAVIMessageObserver@@V?$allocator@PAVIMessageObserver@@@std@@@std@@@std@@YAPAU_Node@?$_List_nod@PAVIMessageObserver@@V?$allocator@PAVIMessageObserver@@@std@@@0@IPAU120@@Z ENDP ; std::_Allocate<std::_List_nod<IMessageObserver *,std::allocator<IMessageObserver *> >::_Node>
_TEXT	ENDS
PUBLIC	??2@YAPAXIPAX@Z					; operator new
; Function compile flags: /Odt /RTCsu
;	COMDAT ??$_Construct@PAU_Node@?$_List_nod@PAVIMessageObserver@@V?$allocator@PAVIMessageObserver@@@std@@@std@@PAU123@@std@@YAXPAPAU_Node@?$_List_nod@PAVIMessageObserver@@V?$allocator@PAVIMessageObserver@@@std@@@0@ABQAU120@@Z
_TEXT	SEGMENT
tv68 = -8						; size = 4
$T200081 = -4						; size = 4
__Ptr$ = 8						; size = 4
__Val$ = 12						; size = 4
??$_Construct@PAU_Node@?$_List_nod@PAVIMessageObserver@@V?$allocator@PAVIMessageObserver@@@std@@@std@@PAU123@@std@@YAXPAPAU_Node@?$_List_nod@PAVIMessageObserver@@V?$allocator@PAVIMessageObserver@@@std@@@0@ABQAU120@@Z PROC NEAR ; std::_Construct<std::_List_nod<IMessageObserver *,std::allocator<IMessageObserver *> >::_Node *,std::_List_nod<IMessageObserver *,std::allocator<IMessageObserver *> >::_Node *>, COMDAT

; 41   : 	{	// construct object at _Ptr with value _Val

  00000	55		 push	 ebp
  00001	8b ec		 mov	 ebp, esp
  00003	83 ec 08	 sub	 esp, 8
  00006	c7 45 f8 cc cc
	cc cc		 mov	 DWORD PTR [ebp-8], -858993460 ; ccccccccH
  0000d	c7 45 fc cc cc
	cc cc		 mov	 DWORD PTR [ebp-4], -858993460 ; ccccccccH

; 42   : 	new ((void _FARQ *)_Ptr) _T1(_Val);

  00014	8b 45 08	 mov	 eax, DWORD PTR __Ptr$[ebp]
  00017	50		 push	 eax
  00018	6a 04		 push	 4
  0001a	e8 00 00 00 00	 call	 ??2@YAPAXIPAX@Z		; operator new
  0001f	83 c4 08	 add	 esp, 8
  00022	89 45 fc	 mov	 DWORD PTR $T200081[ebp], eax
  00025	83 7d fc 00	 cmp	 DWORD PTR $T200081[ebp], 0
  00029	74 12		 je	 SHORT $L200082
  0002b	8b 4d fc	 mov	 ecx, DWORD PTR $T200081[ebp]
  0002e	8b 55 0c	 mov	 edx, DWORD PTR __Val$[ebp]
  00031	8b 02		 mov	 eax, DWORD PTR [edx]
  00033	89 01		 mov	 DWORD PTR [ecx], eax
  00035	8b 4d fc	 mov	 ecx, DWORD PTR $T200081[ebp]
  00038	89 4d f8	 mov	 DWORD PTR tv68[ebp], ecx
  0003b	eb 07		 jmp	 SHORT $L198648
$L200082:
  0003d	c7 45 f8 00 00
	00 00		 mov	 DWORD PTR tv68[ebp], 0
$L198648:

; 43   : 	}

  00044	83 c4 08	 add	 esp, 8
  00047	3b ec		 cmp	 ebp, esp
  00049	e8 00 00 00 00	 call	 __RTC_CheckEsp
  0004e	8b e5		 mov	 esp, ebp
  00050	5d		 pop	 ebp
  00051	c3		 ret	 0
??$_Construct@PAU_Node@?$_List_nod@PAVIMessageObserver@@V?$allocator@PAVIMessageObserver@@@std@@@std@@PAU123@@std@@YAXPAPAU_Node@?$_List_nod@PAVIMessageObserver@@V?$allocator@PAVIMessageObserver@@@std@@@0@ABQAU120@@Z ENDP ; std::_Construct<std::_List_nod<IMessageObserver *,std::allocator<IMessageObserver *> >::_Node *,std::_List_nod<IMessageObserver *,std::allocator<IMessageObserver *> >::_Node *>
; Function compile flags: /Odt /RTCsu
; File d:\program files (x86)\microsoft visual studio .net 2003\vc7\include\new.h
_TEXT	ENDS
;	COMDAT ??2@YAPAXIPAX@Z
_TEXT	SEGMENT
___formal$ = 8						; size = 4
__P$ = 12						; size = 4
??2@YAPAXIPAX@Z PROC NEAR				; operator new, COMDAT

; 109  :         {return (_P); }

  00000	55		 push	 ebp
  00001	8b ec		 mov	 ebp, esp
  00003	8b 45 0c	 mov	 eax, DWORD PTR __P$[ebp]
  00006	5d		 pop	 ebp
  00007	c3		 ret	 0
??2@YAPAXIPAX@Z ENDP					; operator new
; Function compile flags: /Odt /RTCsu
; File d:\program files (x86)\microsoft visual studio .net 2003\vc7\include\xmemory
_TEXT	ENDS
;	COMDAT ??$_Destroy@PAU_Node@?$_List_nod@PAVIMessageObserver@@V?$allocator@PAVIMessageObserver@@@std@@@std@@@std@@YAXPAPAU_Node@?$_List_nod@PAVIMessageObserver@@V?$allocator@PAVIMessageObserver@@@std@@@0@@Z
_TEXT	SEGMENT
__Ptr$ = 8						; size = 4
??$_Destroy@PAU_Node@?$_List_nod@PAVIMessageObserver@@V?$allocator@PAVIMessageObserver@@@std@@@std@@@std@@YAXPAPAU_Node@?$_List_nod@PAVIMessageObserver@@V?$allocator@PAVIMessageObserver@@@std@@@0@@Z PROC NEAR ; std::_Destroy<std::_List_nod<IMessageObserver *,std::allocator<IMessageObserver *> >::_Node *>, COMDAT

; 48   : 	{	// destroy object at _Ptr

  00000	55		 push	 ebp
  00001	8b ec		 mov	 ebp, esp

; 49   : 	_DESTRUCTOR(_Ty, _Ptr);
; 50   : 	}

  00003	5d		 pop	 ebp
  00004	c3		 ret	 0
??$_Destroy@PAU_Node@?$_List_nod@PAVIMessageObserver@@V?$allocator@PAVIMessageObserver@@@std@@@std@@@std@@YAXPAPAU_Node@?$_List_nod@PAVIMessageObserver@@V?$allocator@PAVIMessageObserver@@@std@@@0@@Z ENDP ; std::_Destroy<std::_List_nod<IMessageObserver *,std::allocator<IMessageObserver *> >::_Node *>
; Function compile flags: /Odt /RTCsu
_TEXT	ENDS
;	COMDAT ??$?0PAVIMessageObserver@@@?$allocator@U_Node@?$_List_nod@PAVIMessageObserver@@V?$allocator@PAVIMessageObserver@@@std@@@std@@@std@@QAE@ABV?$allocator@PAVIMessageObserver@@@1@@Z
_TEXT	SEGMENT
_this$ = -4						; size = 4
___formal$ = 8						; size = 4
??$?0PAVIMessageObserver@@@?$allocator@U_Node@?$_List_nod@PAVIMessageObserver@@V?$allocator@PAVIMessageObserver@@@std@@@std@@@std@@QAE@ABV?$allocator@PAVIMessageObserver@@@1@@Z PROC NEAR ; std::allocator<std::_List_nod<IMessageObserver *,std::allocator<IMessageObserver *> >::_Node>::allocator<std::_List_nod<IMessageObserver *,std::allocator<IMessageObserver *> >::_Node><IMessageObserver *>, COMDAT
; _this$ = ecx

; 120  : 		allocator(const allocator<_Other>&)

  00000	55		 push	 ebp
  00001	8b ec		 mov	 ebp, esp
  00003	51		 push	 ecx
  00004	c7 45 fc cc cc
	cc cc		 mov	 DWORD PTR [ebp-4], -858993460 ; ccccccccH
  0000b	89 4d fc	 mov	 DWORD PTR _this$[ebp], ecx

; 121  : 		{	// construct from a related allocator (do nothing)
; 122  : 		}

  0000e	8b 45 fc	 mov	 eax, DWORD PTR _this$[ebp]
  00011	8b e5		 mov	 esp, ebp
  00013	5d		 pop	 ebp
  00014	c2 04 00	 ret	 4
??$?0PAVIMessageObserver@@@?$allocator@U_Node@?$_List_nod@PAVIMessageObserver@@V?$allocator@PAVIMessageObserver@@@std@@@std@@@std@@QAE@ABV?$allocator@PAVIMessageObserver@@@1@@Z ENDP ; std::allocator<std::_List_nod<IMessageObserver *,std::allocator<IMessageObserver *> >::_Node>::allocator<std::_List_nod<IMessageObserver *,std::allocator<IMessageObserver *> >::_Node><IMessageObserver *>
; Function compile flags: /Odt /RTCsu
_TEXT	ENDS
;	COMDAT ??$_Destroy@U_Node@?$_List_nod@PAVIMessageObserver@@V?$allocator@PAVIMessageObserver@@@std@@@std@@@std@@YAXPAU_Node@?$_List_nod@PAVIMessageObserver@@V?$allocator@PAVIMessageObserver@@@std@@@0@@Z
_TEXT	SEGMENT
__Ptr$ = 8						; size = 4
??$_Destroy@U_Node@?$_List_nod@PAVIMessageObserver@@V?$allocator@PAVIMessageObserver@@@std@@@std@@@std@@YAXPAU_Node@?$_List_nod@PAVIMessageObserver@@V?$allocator@PAVIMessageObserver@@@std@@@0@@Z PROC NEAR ; std::_Destroy<std::_List_nod<IMessageObserver *,std::allocator<IMessageObserver *> >::_Node>, COMDAT

; 48   : 	{	// destroy object at _Ptr

  00000	55		 push	 ebp
  00001	8b ec		 mov	 ebp, esp

; 49   : 	_DESTRUCTOR(_Ty, _Ptr);
; 50   : 	}

  00003	5d		 pop	 ebp
  00004	c3		 ret	 0
??$_Destroy@U_Node@?$_List_nod@PAVIMessageObserver@@V?$allocator@PAVIMessageObserver@@@std@@@std@@@std@@YAXPAU_Node@?$_List_nod@PAVIMessageObserver@@V?$allocator@PAVIMessageObserver@@@std@@@0@@Z ENDP ; std::_Destroy<std::_List_nod<IMessageObserver *,std::allocator<IMessageObserver *> >::_Node>
; Function compile flags: /Odt /RTCsu
_TEXT	ENDS
;	COMDAT ??_9@$BBFE@AE
_TEXT	SEGMENT
??_9@$BBFE@AE PROC NEAR					; `vcall', COMDAT
  00000	8b 01		 mov	 eax, DWORD PTR [ecx]
  00002	ff a0 54 01 00
	00		 jmp	 DWORD PTR [eax+340]
??_9@$BBFE@AE ENDP					; `vcall'
; Function compile flags: /Odt /RTCsu
_TEXT	ENDS
;	COMDAT ??_9@$BBFI@AE
_TEXT	SEGMENT
??_9@$BBFI@AE PROC NEAR					; `vcall', COMDAT
  00000	8b 01		 mov	 eax, DWORD PTR [ecx]
  00002	ff a0 58 01 00
	00		 jmp	 DWORD PTR [eax+344]
??_9@$BBFI@AE ENDP					; `vcall'
; Function compile flags: /Odt /RTCsu
_TEXT	ENDS
;	COMDAT ??_ECPlayBoxDlg@@WHI@AEPAXI@Z
_TEXT	SEGMENT
??_ECPlayBoxDlg@@WHI@AEPAXI@Z PROC NEAR			; [thunk]:CPlayBoxDlg::`vector deleting destructor', COMDAT
  00000	83 e9 78	 sub	 ecx, 120		; 00000078H
  00003	e9 00 00 00 00	 jmp	 ??_ECPlayBoxDlg@@UAEPAXI@Z
??_ECPlayBoxDlg@@WHI@AEPAXI@Z ENDP			; [thunk]:CPlayBoxDlg::`vector deleting destructor'
; Function compile flags: /Odt /RTCsu
_TEXT	ENDS
;	COMDAT ??_ECPlayBoxDlg@@WHM@AEPAXI@Z
_TEXT	SEGMENT
??_ECPlayBoxDlg@@WHM@AEPAXI@Z PROC NEAR			; [thunk]:CPlayBoxDlg::`vector deleting destructor', COMDAT
  00000	83 e9 7c	 sub	 ecx, 124		; 0000007cH
  00003	e9 00 00 00 00	 jmp	 ??_ECPlayBoxDlg@@UAEPAXI@Z
??_ECPlayBoxDlg@@WHM@AEPAXI@Z ENDP			; [thunk]:CPlayBoxDlg::`vector deleting destructor'
; Function compile flags: /Odt /RTCsu
; File d:\boxgit\playbox\playbox\dev\prj\playbox\src\core\imessageobserver.h
_TEXT	ENDS
;	COMDAT ??1IMessageObserver@@UAE@XZ
_TEXT	SEGMENT
_this$ = -4						; size = 4
??1IMessageObserver@@UAE@XZ PROC NEAR			; IMessageObserver::~IMessageObserver, COMDAT
; _this$ = ecx

; 16   : 	virtual ~IMessageObserver(){};

  00000	55		 push	 ebp
  00001	8b ec		 mov	 ebp, esp
  00003	51		 push	 ecx
  00004	c7 45 fc cc cc
	cc cc		 mov	 DWORD PTR [ebp-4], -858993460 ; ccccccccH
  0000b	89 4d fc	 mov	 DWORD PTR _this$[ebp], ecx
  0000e	8b 45 fc	 mov	 eax, DWORD PTR _this$[ebp]
  00011	c7 00 00 00 00
	00		 mov	 DWORD PTR [eax], OFFSET FLAT:??_7IMessageObserver@@6B@
  00017	8b e5		 mov	 esp, ebp
  00019	5d		 pop	 ebp
  0001a	c3		 ret	 0
??1IMessageObserver@@UAE@XZ ENDP			; IMessageObserver::~IMessageObserver
; Function compile flags: /Odt /RTCsu
_TEXT	ENDS
;	COMDAT ??_GIMessageObserver@@UAEPAXI@Z
_TEXT	SEGMENT
_this$ = -4						; size = 4
___flags$ = 8						; size = 4
??_GIMessageObserver@@UAEPAXI@Z PROC NEAR		; IMessageObserver::`scalar deleting destructor', COMDAT
; _this$ = ecx
  00000	55		 push	 ebp
  00001	8b ec		 mov	 ebp, esp
  00003	51		 push	 ecx
  00004	c7 45 fc cc cc
	cc cc		 mov	 DWORD PTR [ebp-4], -858993460 ; ccccccccH
  0000b	89 4d fc	 mov	 DWORD PTR _this$[ebp], ecx
  0000e	8b 4d fc	 mov	 ecx, DWORD PTR _this$[ebp]
  00011	e8 00 00 00 00	 call	 ??1IMessageObserver@@UAE@XZ ; IMessageObserver::~IMessageObserver
  00016	8b 45 08	 mov	 eax, DWORD PTR ___flags$[ebp]
  00019	83 e0 01	 and	 eax, 1
  0001c	74 0c		 je	 SHORT $L99513
  0001e	8b 4d fc	 mov	 ecx, DWORD PTR _this$[ebp]
  00021	51		 push	 ecx
  00022	e8 00 00 00 00	 call	 ??3@YAXPAX@Z		; operator delete
  00027	83 c4 04	 add	 esp, 4
$L99513:
  0002a	8b 45 fc	 mov	 eax, DWORD PTR _this$[ebp]
  0002d	83 c4 04	 add	 esp, 4
  00030	3b ec		 cmp	 ebp, esp
  00032	e8 00 00 00 00	 call	 __RTC_CheckEsp
  00037	8b e5		 mov	 esp, ebp
  00039	5d		 pop	 ebp
  0003a	c2 04 00	 ret	 4
??_GIMessageObserver@@UAEPAXI@Z ENDP			; IMessageObserver::`scalar deleting destructor'
; Function compile flags: /Odt /RTCsu
; File d:\program files (x86)\microsoft visual studio .net 2003\vc7\atlmfc\include\atlalloc.h
_TEXT	ENDS
;	COMDAT ??0?$CAtlSafeAllocBufferManager@VCCRTAllocator@ATL@@@_ATL_SAFE_ALLOCA_IMPL@ATL@@QAE@XZ
_TEXT	SEGMENT
_this$ = -4						; size = 4
??0?$CAtlSafeAllocBufferManager@VCCRTAllocator@ATL@@@_ATL_SAFE_ALLOCA_IMPL@ATL@@QAE@XZ PROC NEAR ; ATL::_ATL_SAFE_ALLOCA_IMPL::CAtlSafeAllocBufferManager<ATL::CCRTAllocator>::CAtlSafeAllocBufferManager<ATL::CCRTAllocator>, COMDAT
; _this$ = ecx

; 373  : 	CAtlSafeAllocBufferManager() : m_pHead(NULL) {};

  00000	55		 push	 ebp
  00001	8b ec		 mov	 ebp, esp
  00003	51		 push	 ecx
  00004	c7 45 fc cc cc
	cc cc		 mov	 DWORD PTR [ebp-4], -858993460 ; ccccccccH
  0000b	89 4d fc	 mov	 DWORD PTR _this$[ebp], ecx
  0000e	8b 45 fc	 mov	 eax, DWORD PTR _this$[ebp]
  00011	c7 00 00 00 00
	00		 mov	 DWORD PTR [eax], 0
  00017	8b 45 fc	 mov	 eax, DWORD PTR _this$[ebp]
  0001a	8b e5		 mov	 esp, ebp
  0001c	5d		 pop	 ebp
  0001d	c3		 ret	 0
??0?$CAtlSafeAllocBufferManager@VCCRTAllocator@ATL@@@_ATL_SAFE_ALLOCA_IMPL@ATL@@QAE@XZ ENDP ; ATL::_ATL_SAFE_ALLOCA_IMPL::CAtlSafeAllocBufferManager<ATL::CCRTAllocator>::CAtlSafeAllocBufferManager<ATL::CCRTAllocator>
_TEXT	ENDS
PUBLIC	?GetData@CAtlSafeAllocBufferNode@?$CAtlSafeAllocBufferManager@VCCRTAllocator@ATL@@@_ATL_SAFE_ALLOCA_IMPL@ATL@@QAEPAXXZ ; ATL::_ATL_SAFE_ALLOCA_IMPL::CAtlSafeAllocBufferManager<ATL::CCRTAllocator>::CAtlSafeAllocBufferNode::GetData
PUBLIC	?Allocate@CCRTAllocator@ATL@@SAPAXI@Z		; ATL::CCRTAllocator::Allocate
; Function compile flags: /Odt /RTCsu
;	COMDAT ?Allocate@?$CAtlSafeAllocBufferManager@VCCRTAllocator@ATL@@@_ATL_SAFE_ALLOCA_IMPL@ATL@@QAEPAXK@Z
_TEXT	SEGMENT
_p$ = -8						; size = 4
_this$ = -4						; size = 4
_nRequestedSize$ = 8					; size = 4
?Allocate@?$CAtlSafeAllocBufferManager@VCCRTAllocator@ATL@@@_ATL_SAFE_ALLOCA_IMPL@ATL@@QAEPAXK@Z PROC NEAR ; ATL::_ATL_SAFE_ALLOCA_IMPL::CAtlSafeAllocBufferManager<ATL::CCRTAllocator>::Allocate, COMDAT
; _this$ = ecx

; 375  : 	{

  00000	55		 push	 ebp
  00001	8b ec		 mov	 ebp, esp
  00003	83 ec 08	 sub	 esp, 8
  00006	c7 45 f8 cc cc
	cc cc		 mov	 DWORD PTR [ebp-8], -858993460 ; ccccccccH
  0000d	c7 45 fc cc cc
	cc cc		 mov	 DWORD PTR [ebp-4], -858993460 ; ccccccccH
  00014	89 4d fc	 mov	 DWORD PTR _this$[ebp], ecx

; 376  : 		CAtlSafeAllocBufferNode *p = (CAtlSafeAllocBufferNode*)Allocator::Allocate(nRequestedSize + sizeof(CAtlSafeAllocBufferNode));

  00017	8b 45 08	 mov	 eax, DWORD PTR _nRequestedSize$[ebp]
  0001a	83 c0 08	 add	 eax, 8
  0001d	50		 push	 eax
  0001e	e8 00 00 00 00	 call	 ?Allocate@CCRTAllocator@ATL@@SAPAXI@Z ; ATL::CCRTAllocator::Allocate
  00023	83 c4 04	 add	 esp, 4
  00026	89 45 f8	 mov	 DWORD PTR _p$[ebp], eax

; 377  : 		if (p == NULL)

  00029	83 7d f8 00	 cmp	 DWORD PTR _p$[ebp], 0
  0002d	75 04		 jne	 SHORT $L181568

; 378  : 			return NULL;

  0002f	33 c0		 xor	 eax, eax
  00031	eb 1a		 jmp	 SHORT $L181555
$L181568:

; 379  : 		
; 380  : 		// Add buffer to the list
; 381  : 		p->m_pNext = m_pHead;

  00033	8b 4d f8	 mov	 ecx, DWORD PTR _p$[ebp]
  00036	8b 55 fc	 mov	 edx, DWORD PTR _this$[ebp]
  00039	8b 02		 mov	 eax, DWORD PTR [edx]
  0003b	89 01		 mov	 DWORD PTR [ecx], eax

; 382  : 		m_pHead = p;

  0003d	8b 4d fc	 mov	 ecx, DWORD PTR _this$[ebp]
  00040	8b 55 f8	 mov	 edx, DWORD PTR _p$[ebp]
  00043	89 11		 mov	 DWORD PTR [ecx], edx

; 383  : 		
; 384  : 		return p->GetData();

  00045	8b 4d f8	 mov	 ecx, DWORD PTR _p$[ebp]
  00048	e8 00 00 00 00	 call	 ?GetData@CAtlSafeAllocBufferNode@?$CAtlSafeAllocBufferManager@VCCRTAllocator@ATL@@@_ATL_SAFE_ALLOCA_IMPL@ATL@@QAEPAXXZ ; ATL::_ATL_SAFE_ALLOCA_IMPL::CAtlSafeAllocBufferManager<ATL::CCRTAllocator>::CAtlSafeAllocBufferNode::GetData
$L181555:

; 385  : 	}

  0004d	83 c4 08	 add	 esp, 8
  00050	3b ec		 cmp	 ebp, esp
  00052	e8 00 00 00 00	 call	 __RTC_CheckEsp
  00057	8b e5		 mov	 esp, ebp
  00059	5d		 pop	 ebp
  0005a	c2 04 00	 ret	 4
?Allocate@?$CAtlSafeAllocBufferManager@VCCRTAllocator@ATL@@@_ATL_SAFE_ALLOCA_IMPL@ATL@@QAEPAXK@Z ENDP ; ATL::_ATL_SAFE_ALLOCA_IMPL::CAtlSafeAllocBufferManager<ATL::CCRTAllocator>::Allocate
_TEXT	ENDS
EXTRN	__imp__malloc:NEAR
; Function compile flags: /Odt /RTCsu
;	COMDAT ?Allocate@CCRTAllocator@ATL@@SAPAXI@Z
_TEXT	SEGMENT
_nBytes$ = 8						; size = 4
?Allocate@CCRTAllocator@ATL@@SAPAXI@Z PROC NEAR		; ATL::CCRTAllocator::Allocate, COMDAT

; 30   : 	{

  00000	55		 push	 ebp
  00001	8b ec		 mov	 ebp, esp
  00003	56		 push	 esi

; 31   : 		return malloc(nBytes);

  00004	8b f4		 mov	 esi, esp
  00006	8b 45 08	 mov	 eax, DWORD PTR _nBytes$[ebp]
  00009	50		 push	 eax
  0000a	ff 15 00 00 00
	00		 call	 DWORD PTR __imp__malloc
  00010	83 c4 04	 add	 esp, 4
  00013	3b f4		 cmp	 esi, esp
  00015	e8 00 00 00 00	 call	 __RTC_CheckEsp

; 32   : 	}

  0001a	5e		 pop	 esi
  0001b	3b ec		 cmp	 ebp, esp
  0001d	e8 00 00 00 00	 call	 __RTC_CheckEsp
  00022	5d		 pop	 ebp
  00023	c3		 ret	 0
?Allocate@CCRTAllocator@ATL@@SAPAXI@Z ENDP		; ATL::CCRTAllocator::Allocate
_TEXT	ENDS
PUBLIC	?Free@CCRTAllocator@ATL@@SAXPAX@Z		; ATL::CCRTAllocator::Free
; Function compile flags: /Odt /RTCsu
;	COMDAT ??1?$CAtlSafeAllocBufferManager@VCCRTAllocator@ATL@@@_ATL_SAFE_ALLOCA_IMPL@ATL@@QAE@XZ
_TEXT	SEGMENT
_p$181574 = -8						; size = 4
_this$ = -4						; size = 4
??1?$CAtlSafeAllocBufferManager@VCCRTAllocator@ATL@@@_ATL_SAFE_ALLOCA_IMPL@ATL@@QAE@XZ PROC NEAR ; ATL::_ATL_SAFE_ALLOCA_IMPL::CAtlSafeAllocBufferManager<ATL::CCRTAllocator>::~CAtlSafeAllocBufferManager<ATL::CCRTAllocator>, COMDAT
; _this$ = ecx

; 387  : 	{

  00000	55		 push	 ebp
  00001	8b ec		 mov	 ebp, esp
  00003	83 ec 08	 sub	 esp, 8
  00006	c7 45 f8 cc cc
	cc cc		 mov	 DWORD PTR [ebp-8], -858993460 ; ccccccccH
  0000d	c7 45 fc cc cc
	cc cc		 mov	 DWORD PTR [ebp-4], -858993460 ; ccccccccH
  00014	89 4d fc	 mov	 DWORD PTR _this$[ebp], ecx
$L181572:

; 388  : 		// Walk the list and free the buffers
; 389  : 		while (m_pHead != NULL)

  00017	8b 45 fc	 mov	 eax, DWORD PTR _this$[ebp]
  0001a	83 38 00	 cmp	 DWORD PTR [eax], 0
  0001d	74 22		 je	 SHORT $L181570

; 390  : 		{
; 391  : 			CAtlSafeAllocBufferNode* p = m_pHead;

  0001f	8b 4d fc	 mov	 ecx, DWORD PTR _this$[ebp]
  00022	8b 11		 mov	 edx, DWORD PTR [ecx]
  00024	89 55 f8	 mov	 DWORD PTR _p$181574[ebp], edx

; 392  : 			m_pHead = m_pHead->m_pNext;

  00027	8b 45 fc	 mov	 eax, DWORD PTR _this$[ebp]
  0002a	8b 08		 mov	 ecx, DWORD PTR [eax]
  0002c	8b 55 fc	 mov	 edx, DWORD PTR _this$[ebp]
  0002f	8b 01		 mov	 eax, DWORD PTR [ecx]
  00031	89 02		 mov	 DWORD PTR [edx], eax

; 393  : 			Allocator::Free(p);

  00033	8b 4d f8	 mov	 ecx, DWORD PTR _p$181574[ebp]
  00036	51		 push	 ecx
  00037	e8 00 00 00 00	 call	 ?Free@CCRTAllocator@ATL@@SAXPAX@Z ; ATL::CCRTAllocator::Free
  0003c	83 c4 04	 add	 esp, 4

; 394  : 		}

  0003f	eb d6		 jmp	 SHORT $L181572
$L181570:

; 395  : 	}

  00041	83 c4 08	 add	 esp, 8
  00044	3b ec		 cmp	 ebp, esp
  00046	e8 00 00 00 00	 call	 __RTC_CheckEsp
  0004b	8b e5		 mov	 esp, ebp
  0004d	5d		 pop	 ebp
  0004e	c3		 ret	 0
??1?$CAtlSafeAllocBufferManager@VCCRTAllocator@ATL@@@_ATL_SAFE_ALLOCA_IMPL@ATL@@QAE@XZ ENDP ; ATL::_ATL_SAFE_ALLOCA_IMPL::CAtlSafeAllocBufferManager<ATL::CCRTAllocator>::~CAtlSafeAllocBufferManager<ATL::CCRTAllocator>
_TEXT	ENDS
EXTRN	__imp__free:NEAR
; Function compile flags: /Odt /RTCsu
;	COMDAT ?Free@CCRTAllocator@ATL@@SAXPAX@Z
_TEXT	SEGMENT
_p$ = 8							; size = 4
?Free@CCRTAllocator@ATL@@SAXPAX@Z PROC NEAR		; ATL::CCRTAllocator::Free, COMDAT

; 35   : 	{

  00000	55		 push	 ebp
  00001	8b ec		 mov	 ebp, esp
  00003	56		 push	 esi

; 36   : 		free(p);

  00004	8b f4		 mov	 esi, esp
  00006	8b 45 08	 mov	 eax, DWORD PTR _p$[ebp]
  00009	50		 push	 eax
  0000a	ff 15 00 00 00
	00		 call	 DWORD PTR __imp__free
  00010	83 c4 04	 add	 esp, 4
  00013	3b f4		 cmp	 esi, esp
  00015	e8 00 00 00 00	 call	 __RTC_CheckEsp

; 37   : 	}

  0001a	5e		 pop	 esi
  0001b	3b ec		 cmp	 ebp, esp
  0001d	e8 00 00 00 00	 call	 __RTC_CheckEsp
  00022	5d		 pop	 ebp
  00023	c3		 ret	 0
?Free@CCRTAllocator@ATL@@SAXPAX@Z ENDP			; ATL::CCRTAllocator::Free
; Function compile flags: /Odt /RTCsu
_TEXT	ENDS
;	COMDAT ??0?$CTempBuffer@D$0IA@VCCRTAllocator@ATL@@@ATL@@QAE@XZ
_TEXT	SEGMENT
_this$ = -4						; size = 4
??0?$CTempBuffer@D$0IA@VCCRTAllocator@ATL@@@ATL@@QAE@XZ PROC NEAR ; ATL::CTempBuffer<char,128,ATL::CCRTAllocator>::CTempBuffer<char,128,ATL::CCRTAllocator>, COMDAT
; _this$ = ecx

; 216  : 	{

  00000	55		 push	 ebp
  00001	8b ec		 mov	 ebp, esp
  00003	51		 push	 ecx
  00004	c7 45 fc cc cc
	cc cc		 mov	 DWORD PTR [ebp-4], -858993460 ; ccccccccH
  0000b	89 4d fc	 mov	 DWORD PTR _this$[ebp], ecx
  0000e	8b 45 fc	 mov	 eax, DWORD PTR _this$[ebp]
  00011	c7 00 00 00 00
	00		 mov	 DWORD PTR [eax], 0

; 217  : 	}

  00017	8b 45 fc	 mov	 eax, DWORD PTR _this$[ebp]
  0001a	8b e5		 mov	 esp, ebp
  0001c	5d		 pop	 ebp
  0001d	c3		 ret	 0
??0?$CTempBuffer@D$0IA@VCCRTAllocator@ATL@@@ATL@@QAE@XZ ENDP ; ATL::CTempBuffer<char,128,ATL::CCRTAllocator>::CTempBuffer<char,128,ATL::CCRTAllocator>
_TEXT	ENDS
PUBLIC	?FreeHeap@?$CTempBuffer@D$0IA@VCCRTAllocator@ATL@@@ATL@@AAEXXZ ; ATL::CTempBuffer<char,128,ATL::CCRTAllocator>::FreeHeap
; Function compile flags: /Odt /RTCsu
;	COMDAT ??1?$CTempBuffer@D$0IA@VCCRTAllocator@ATL@@@ATL@@QAE@XZ
_TEXT	SEGMENT
_this$ = -4						; size = 4
??1?$CTempBuffer@D$0IA@VCCRTAllocator@ATL@@@ATL@@QAE@XZ PROC NEAR ; ATL::CTempBuffer<char,128,ATL::CCRTAllocator>::~CTempBuffer<char,128,ATL::CCRTAllocator>, COMDAT
; _this$ = ecx

; 225  : 	{

  00000	55		 push	 ebp
  00001	8b ec		 mov	 ebp, esp
  00003	51		 push	 ecx
  00004	c7 45 fc cc cc
	cc cc		 mov	 DWORD PTR [ebp-4], -858993460 ; ccccccccH
  0000b	89 4d fc	 mov	 DWORD PTR _this$[ebp], ecx

; 226  : 		if( m_p != reinterpret_cast< T* >( m_abFixedBuffer ) )

  0000e	8b 45 fc	 mov	 eax, DWORD PTR _this$[ebp]
  00011	83 c0 04	 add	 eax, 4
  00014	8b 4d fc	 mov	 ecx, DWORD PTR _this$[ebp]
  00017	39 01		 cmp	 DWORD PTR [ecx], eax
  00019	74 08		 je	 SHORT $L181578

; 227  : 		{
; 228  : 			FreeHeap();

  0001b	8b 4d fc	 mov	 ecx, DWORD PTR _this$[ebp]
  0001e	e8 00 00 00 00	 call	 ?FreeHeap@?$CTempBuffer@D$0IA@VCCRTAllocator@ATL@@@ATL@@AAEXXZ ; ATL::CTempBuffer<char,128,ATL::CCRTAllocator>::FreeHeap
$L181578:

; 229  : 		}
; 230  : 	}

  00023	83 c4 04	 add	 esp, 4
  00026	3b ec		 cmp	 ebp, esp
  00028	e8 00 00 00 00	 call	 __RTC_CheckEsp
  0002d	8b e5		 mov	 esp, ebp
  0002f	5d		 pop	 ebp
  00030	c3		 ret	 0
??1?$CTempBuffer@D$0IA@VCCRTAllocator@ATL@@@ATL@@QAE@XZ ENDP ; ATL::CTempBuffer<char,128,ATL::CCRTAllocator>::~CTempBuffer<char,128,ATL::CCRTAllocator>
; Function compile flags: /Odt /RTCsu
_TEXT	ENDS
;	COMDAT ??B?$CTempBuffer@D$0IA@VCCRTAllocator@ATL@@@ATL@@QBEPADXZ
_TEXT	SEGMENT
_this$ = -4						; size = 4
??B?$CTempBuffer@D$0IA@VCCRTAllocator@ATL@@@ATL@@QBEPADXZ PROC NEAR ; ATL::CTempBuffer<char,128,ATL::CCRTAllocator>::operator char *, COMDAT
; _this$ = ecx

; 233  : 	{

  00000	55		 push	 ebp
  00001	8b ec		 mov	 ebp, esp
  00003	51		 push	 ecx
  00004	c7 45 fc cc cc
	cc cc		 mov	 DWORD PTR [ebp-4], -858993460 ; ccccccccH
  0000b	89 4d fc	 mov	 DWORD PTR _this$[ebp], ecx

; 234  : 		return( m_p );

  0000e	8b 45 fc	 mov	 eax, DWORD PTR _this$[ebp]
  00011	8b 00		 mov	 eax, DWORD PTR [eax]

; 235  : 	}

  00013	8b e5		 mov	 esp, ebp
  00015	5d		 pop	 ebp
  00016	c3		 ret	 0
??B?$CTempBuffer@D$0IA@VCCRTAllocator@ATL@@@ATL@@QBEPADXZ ENDP ; ATL::CTempBuffer<char,128,ATL::CCRTAllocator>::operator char *
_TEXT	ENDS
PUBLIC	?AllocateBytes@?$CTempBuffer@D$0IA@VCCRTAllocator@ATL@@@ATL@@QAEPADI@Z ; ATL::CTempBuffer<char,128,ATL::CCRTAllocator>::AllocateBytes
; Function compile flags: /Odt /RTCsu
;	COMDAT ?Allocate@?$CTempBuffer@D$0IA@VCCRTAllocator@ATL@@@ATL@@QAEPADI@Z
_TEXT	SEGMENT
_this$ = -4						; size = 4
_nElements$ = 8						; size = 4
?Allocate@?$CTempBuffer@D$0IA@VCCRTAllocator@ATL@@@ATL@@QAEPADI@Z PROC NEAR ; ATL::CTempBuffer<char,128,ATL::CCRTAllocator>::Allocate, COMDAT
; _this$ = ecx

; 243  : 	{

  00000	55		 push	 ebp
  00001	8b ec		 mov	 ebp, esp
  00003	51		 push	 ecx
  00004	c7 45 fc cc cc
	cc cc		 mov	 DWORD PTR [ebp-4], -858993460 ; ccccccccH
  0000b	89 4d fc	 mov	 DWORD PTR _this$[ebp], ecx

; 244  : 		return( AllocateBytes( nElements*sizeof( T ) ) );

  0000e	8b 45 08	 mov	 eax, DWORD PTR _nElements$[ebp]
  00011	50		 push	 eax
  00012	8b 4d fc	 mov	 ecx, DWORD PTR _this$[ebp]
  00015	e8 00 00 00 00	 call	 ?AllocateBytes@?$CTempBuffer@D$0IA@VCCRTAllocator@ATL@@@ATL@@QAEPADI@Z ; ATL::CTempBuffer<char,128,ATL::CCRTAllocator>::AllocateBytes

; 245  : 	}

  0001a	83 c4 04	 add	 esp, 4
  0001d	3b ec		 cmp	 ebp, esp
  0001f	e8 00 00 00 00	 call	 __RTC_CheckEsp
  00024	8b e5		 mov	 esp, ebp
  00026	5d		 pop	 ebp
  00027	c2 04 00	 ret	 4
?Allocate@?$CTempBuffer@D$0IA@VCCRTAllocator@ATL@@@ATL@@QAEPADI@Z ENDP ; ATL::CTempBuffer<char,128,ATL::CCRTAllocator>::Allocate
_TEXT	ENDS
PUBLIC	?Init@?$CW2AEX@$0IA@@ATL@@AAEXPB_WI@Z		; ATL::CW2AEX<128>::Init
; Function compile flags: /Odt /RTCsu
; File d:\program files (x86)\microsoft visual studio .net 2003\vc7\atlmfc\include\atlconv.h
;	COMDAT ??0?$CW2AEX@$0IA@@ATL@@QAE@PB_W@Z
_TEXT	SEGMENT
_this$ = -4						; size = 4
_psz$ = 8						; size = 4
??0?$CW2AEX@$0IA@@ATL@@QAE@PB_W@Z PROC NEAR		; ATL::CW2AEX<128>::CW2AEX<128>, COMDAT
; _this$ = ecx

; 419  : 	{

  00000	55		 push	 ebp
  00001	8b ec		 mov	 ebp, esp
  00003	51		 push	 ecx
  00004	c7 45 fc cc cc
	cc cc		 mov	 DWORD PTR [ebp-4], -858993460 ; ccccccccH
  0000b	89 4d fc	 mov	 DWORD PTR _this$[ebp], ecx
  0000e	8b 45 fc	 mov	 eax, DWORD PTR _this$[ebp]
  00011	83 c0 04	 add	 eax, 4
  00014	8b 4d fc	 mov	 ecx, DWORD PTR _this$[ebp]
  00017	89 01		 mov	 DWORD PTR [ecx], eax

; 420  : 		Init( psz, _AtlGetConversionACP() );

  00019	e8 00 00 00 00	 call	 ?_AtlGetConversionACP@ATL@@YGIXZ ; ATL::_AtlGetConversionACP
  0001e	50		 push	 eax
  0001f	8b 55 08	 mov	 edx, DWORD PTR _psz$[ebp]
  00022	52		 push	 edx
  00023	8b 4d fc	 mov	 ecx, DWORD PTR _this$[ebp]
  00026	e8 00 00 00 00	 call	 ?Init@?$CW2AEX@$0IA@@ATL@@AAEXPB_WI@Z ; ATL::CW2AEX<128>::Init

; 421  : 	}

  0002b	8b 45 fc	 mov	 eax, DWORD PTR _this$[ebp]
  0002e	83 c4 04	 add	 esp, 4
  00031	3b ec		 cmp	 ebp, esp
  00033	e8 00 00 00 00	 call	 __RTC_CheckEsp
  00038	8b e5		 mov	 esp, ebp
  0003a	5d		 pop	 ebp
  0003b	c2 04 00	 ret	 4
??0?$CW2AEX@$0IA@@ATL@@QAE@PB_W@Z ENDP			; ATL::CW2AEX<128>::CW2AEX<128>
; Function compile flags: /Odt /RTCsu
_TEXT	ENDS
;	COMDAT ??1?$CW2AEX@$0IA@@ATL@@QAE@XZ
_TEXT	SEGMENT
_this$ = -4						; size = 4
??1?$CW2AEX@$0IA@@ATL@@QAE@XZ PROC NEAR			; ATL::CW2AEX<128>::~CW2AEX<128>, COMDAT
; _this$ = ecx

; 428  : 	{

  00000	55		 push	 ebp
  00001	8b ec		 mov	 ebp, esp
  00003	51		 push	 ecx
  00004	56		 push	 esi
  00005	c7 45 fc cc cc
	cc cc		 mov	 DWORD PTR [ebp-4], -858993460 ; ccccccccH
  0000c	89 4d fc	 mov	 DWORD PTR _this$[ebp], ecx

; 429  : 		if( m_psz != m_szBuffer )

  0000f	8b 45 fc	 mov	 eax, DWORD PTR _this$[ebp]
  00012	83 c0 04	 add	 eax, 4
  00015	8b 4d fc	 mov	 ecx, DWORD PTR _this$[ebp]
  00018	39 01		 cmp	 DWORD PTR [ecx], eax
  0001a	74 18		 je	 SHORT $L181589

; 430  : 		{
; 431  : 			free( m_psz );

  0001c	8b f4		 mov	 esi, esp
  0001e	8b 55 fc	 mov	 edx, DWORD PTR _this$[ebp]
  00021	8b 02		 mov	 eax, DWORD PTR [edx]
  00023	50		 push	 eax
  00024	ff 15 00 00 00
	00		 call	 DWORD PTR __imp__free
  0002a	83 c4 04	 add	 esp, 4
  0002d	3b f4		 cmp	 esi, esp
  0002f	e8 00 00 00 00	 call	 __RTC_CheckEsp
$L181589:

; 432  : 		}
; 433  : 	}

  00034	5e		 pop	 esi
  00035	83 c4 04	 add	 esp, 4
  00038	3b ec		 cmp	 ebp, esp
  0003a	e8 00 00 00 00	 call	 __RTC_CheckEsp
  0003f	8b e5		 mov	 esp, ebp
  00041	5d		 pop	 ebp
  00042	c3		 ret	 0
??1?$CW2AEX@$0IA@@ATL@@QAE@XZ ENDP			; ATL::CW2AEX<128>::~CW2AEX<128>
; Function compile flags: /Odt /RTCsu
_TEXT	ENDS
;	COMDAT ??B?$CW2AEX@$0IA@@ATL@@QBEPADXZ
_TEXT	SEGMENT
_this$ = -4						; size = 4
??B?$CW2AEX@$0IA@@ATL@@QBEPADXZ PROC NEAR		; ATL::CW2AEX<128>::operator char *, COMDAT
; _this$ = ecx

; 436  : 	{

  00000	55		 push	 ebp
  00001	8b ec		 mov	 ebp, esp
  00003	51		 push	 ecx
  00004	c7 45 fc cc cc
	cc cc		 mov	 DWORD PTR [ebp-4], -858993460 ; ccccccccH
  0000b	89 4d fc	 mov	 DWORD PTR _this$[ebp], ecx

; 437  : 		return( m_psz );

  0000e	8b 45 fc	 mov	 eax, DWORD PTR _this$[ebp]
  00011	8b 00		 mov	 eax, DWORD PTR [eax]

; 438  : 	}

  00013	8b e5		 mov	 esp, ebp
  00015	5d		 pop	 ebp
  00016	c3		 ret	 0
??B?$CW2AEX@$0IA@@ATL@@QBEPADXZ ENDP			; ATL::CW2AEX<128>::operator char *
_TEXT	ENDS
PUBLIC	??_C@_08GPODJFIN@m_p?5?$DN?$DN?50?$AA@		; `string'
PUBLIC	??_C@_0FH@BOCPFCEM@D?3?2Program?5Files?5?$CIx86?$CJ?2Microsoft@ ; `string'
PUBLIC	?AllocateHeap@?$CTempBuffer@D$0IA@VCCRTAllocator@ATL@@@ATL@@AAEXI@Z ; ATL::CTempBuffer<char,128,ATL::CCRTAllocator>::AllocateHeap
;	COMDAT ??_C@_08GPODJFIN@m_p?5?$DN?$DN?50?$AA@
; File d:\program files (x86)\microsoft visual studio .net 2003\vc7\atlmfc\include\atlalloc.h
CONST	SEGMENT
??_C@_08GPODJFIN@m_p?5?$DN?$DN?50?$AA@ DB 'm_p == 0', 00H ; `string'
CONST	ENDS
;	COMDAT ??_C@_0FH@BOCPFCEM@D?3?2Program?5Files?5?$CIx86?$CJ?2Microsoft@
CONST	SEGMENT
??_C@_0FH@BOCPFCEM@D?3?2Program?5Files?5?$CIx86?$CJ?2Microsoft@ DB 'D:\Pr'
	DB	'ogram Files (x86)\Microsoft Visual Studio .NET 2003\Vc7\atlmf'
	DB	'c\include\atlalloc.h', 00H			; `string'
; Function compile flags: /Odt /RTCsu
CONST	ENDS
;	COMDAT ?AllocateBytes@?$CTempBuffer@D$0IA@VCCRTAllocator@ATL@@@ATL@@QAEPADI@Z
_TEXT	SEGMENT
_this$ = -4						; size = 4
_nBytes$ = 8						; size = 4
?AllocateBytes@?$CTempBuffer@D$0IA@VCCRTAllocator@ATL@@@ATL@@QAEPADI@Z PROC NEAR ; ATL::CTempBuffer<char,128,ATL::CCRTAllocator>::AllocateBytes, COMDAT
; _this$ = ecx

; 276  : 	{

  00000	55		 push	 ebp
  00001	8b ec		 mov	 ebp, esp
  00003	51		 push	 ecx
  00004	56		 push	 esi
  00005	c7 45 fc cc cc
	cc cc		 mov	 DWORD PTR [ebp-4], -858993460 ; ccccccccH
  0000c	89 4d fc	 mov	 DWORD PTR _this$[ebp], ecx

; 277  : 		ATLASSERT( m_p == NULL );

  0000f	8b 45 fc	 mov	 eax, DWORD PTR _this$[ebp]
  00012	83 38 00	 cmp	 DWORD PTR [eax], 0
  00015	74 2b		 je	 SHORT $L200107
  00017	8b f4		 mov	 esi, esp
  00019	68 00 00 00 00	 push	 OFFSET FLAT:??_C@_08GPODJFIN@m_p?5?$DN?$DN?50?$AA@
  0001e	6a 00		 push	 0
  00020	68 15 01 00 00	 push	 277			; 00000115H
  00025	68 00 00 00 00	 push	 OFFSET FLAT:??_C@_0FH@BOCPFCEM@D?3?2Program?5Files?5?$CIx86?$CJ?2Microsoft@
  0002a	6a 02		 push	 2
  0002c	ff 15 00 00 00
	00		 call	 DWORD PTR __imp___CrtDbgReport
  00032	83 c4 14	 add	 esp, 20			; 00000014H
  00035	3b f4		 cmp	 esi, esp
  00037	e8 00 00 00 00	 call	 __RTC_CheckEsp
  0003c	83 f8 01	 cmp	 eax, 1
  0003f	75 01		 jne	 SHORT $L200107
  00041	cc		 int	 3
$L200107:

; 278  : 		if( nBytes > t_nFixedBytes )

  00042	81 7d 08 80 00
	00 00		 cmp	 DWORD PTR _nBytes$[ebp], 128 ; 00000080H
  00049	76 0e		 jbe	 SHORT $L183346

; 279  : 		{
; 280  : 			AllocateHeap( nBytes );

  0004b	8b 55 08	 mov	 edx, DWORD PTR _nBytes$[ebp]
  0004e	52		 push	 edx
  0004f	8b 4d fc	 mov	 ecx, DWORD PTR _this$[ebp]
  00052	e8 00 00 00 00	 call	 ?AllocateHeap@?$CTempBuffer@D$0IA@VCCRTAllocator@ATL@@@ATL@@AAEXI@Z ; ATL::CTempBuffer<char,128,ATL::CCRTAllocator>::AllocateHeap

; 281  : 		}
; 282  : 		else

  00057	eb 0b		 jmp	 SHORT $L183347
$L183346:

; 283  : 		{
; 284  : 			m_p = reinterpret_cast< T* >( m_abFixedBuffer );

  00059	8b 45 fc	 mov	 eax, DWORD PTR _this$[ebp]
  0005c	83 c0 04	 add	 eax, 4
  0005f	8b 4d fc	 mov	 ecx, DWORD PTR _this$[ebp]
  00062	89 01		 mov	 DWORD PTR [ecx], eax
$L183347:

; 285  : 		}
; 286  : 
; 287  : 		return( m_p );

  00064	8b 55 fc	 mov	 edx, DWORD PTR _this$[ebp]
  00067	8b 02		 mov	 eax, DWORD PTR [edx]

; 288  : 	}

  00069	5e		 pop	 esi
  0006a	83 c4 04	 add	 esp, 4
  0006d	3b ec		 cmp	 ebp, esp
  0006f	e8 00 00 00 00	 call	 __RTC_CheckEsp
  00074	8b e5		 mov	 esp, ebp
  00076	5d		 pop	 ebp
  00077	c2 04 00	 ret	 4
?AllocateBytes@?$CTempBuffer@D$0IA@VCCRTAllocator@ATL@@@ATL@@QAEPADI@Z ENDP ; ATL::CTempBuffer<char,128,ATL::CCRTAllocator>::AllocateBytes
; Function compile flags: /Odt /RTCsu
_TEXT	ENDS
;	COMDAT ?FreeHeap@?$CTempBuffer@D$0IA@VCCRTAllocator@ATL@@@ATL@@AAEXXZ
_TEXT	SEGMENT
_this$ = -4						; size = 4
?FreeHeap@?$CTempBuffer@D$0IA@VCCRTAllocator@ATL@@@ATL@@AAEXXZ PROC NEAR ; ATL::CTempBuffer<char,128,ATL::CCRTAllocator>::FreeHeap, COMDAT
; _this$ = ecx

; 312  : 	{

  00000	55		 push	 ebp
  00001	8b ec		 mov	 ebp, esp
  00003	51		 push	 ecx
  00004	c7 45 fc cc cc
	cc cc		 mov	 DWORD PTR [ebp-4], -858993460 ; ccccccccH
  0000b	89 4d fc	 mov	 DWORD PTR _this$[ebp], ecx

; 313  : 		Allocator::Free( m_p );

  0000e	8b 45 fc	 mov	 eax, DWORD PTR _this$[ebp]
  00011	8b 08		 mov	 ecx, DWORD PTR [eax]
  00013	51		 push	 ecx
  00014	e8 00 00 00 00	 call	 ?Free@CCRTAllocator@ATL@@SAXPAX@Z ; ATL::CCRTAllocator::Free
  00019	83 c4 04	 add	 esp, 4

; 314  : 	}

  0001c	83 c4 04	 add	 esp, 4
  0001f	3b ec		 cmp	 ebp, esp
  00021	e8 00 00 00 00	 call	 __RTC_CheckEsp
  00026	8b e5		 mov	 esp, ebp
  00028	5d		 pop	 ebp
  00029	c3		 ret	 0
?FreeHeap@?$CTempBuffer@D$0IA@VCCRTAllocator@ATL@@@ATL@@AAEXXZ ENDP ; ATL::CTempBuffer<char,128,ATL::CCRTAllocator>::FreeHeap
_TEXT	ENDS
PUBLIC	?AtlThrowLastWin32@ATL@@YGXXZ			; ATL::AtlThrowLastWin32
; Function compile flags: /Odt /RTCsu
; File d:\program files (x86)\microsoft visual studio .net 2003\vc7\atlmfc\include\atlconv.h
;	COMDAT ?Init@?$CW2AEX@$0IA@@ATL@@AAEXPB_WI@Z
_TEXT	SEGMENT
_nLengthA$ = -12					; size = 4
_nLengthW$ = -8						; size = 4
_this$ = -4						; size = 4
_psz$ = 8						; size = 4
_nCodePage$ = 12					; size = 4
?Init@?$CW2AEX@$0IA@@ATL@@AAEXPB_WI@Z PROC NEAR		; ATL::CW2AEX<128>::Init, COMDAT
; _this$ = ecx

; 442  : 	{

  00000	55		 push	 ebp
  00001	8b ec		 mov	 ebp, esp
  00003	83 ec 0c	 sub	 esp, 12			; 0000000cH
  00006	56		 push	 esi
  00007	c7 45 f4 cc cc
	cc cc		 mov	 DWORD PTR [ebp-12], -858993460 ; ccccccccH
  0000e	c7 45 f8 cc cc
	cc cc		 mov	 DWORD PTR [ebp-8], -858993460 ; ccccccccH
  00015	c7 45 fc cc cc
	cc cc		 mov	 DWORD PTR [ebp-4], -858993460 ; ccccccccH
  0001c	89 4d fc	 mov	 DWORD PTR _this$[ebp], ecx

; 443  : 		if (psz == NULL)

  0001f	83 7d 08 00	 cmp	 DWORD PTR _psz$[ebp], 0
  00023	75 0e		 jne	 SHORT $L183353

; 444  : 		{
; 445  : 			m_psz = NULL;

  00025	8b 45 fc	 mov	 eax, DWORD PTR _this$[ebp]
  00028	c7 00 00 00 00
	00		 mov	 DWORD PTR [eax], 0

; 446  : 			return;

  0002e	e9 8b 00 00 00	 jmp	 $L200109
$L183353:

; 447  : 		}
; 448  : 		int nLengthW = lstrlenW( psz )+1;

  00033	8b f4		 mov	 esi, esp
  00035	8b 4d 08	 mov	 ecx, DWORD PTR _psz$[ebp]
  00038	51		 push	 ecx
  00039	ff 15 00 00 00
	00		 call	 DWORD PTR __imp__lstrlenW@4
  0003f	3b f4		 cmp	 esi, esp
  00041	e8 00 00 00 00	 call	 __RTC_CheckEsp
  00046	83 c0 01	 add	 eax, 1
  00049	89 45 f8	 mov	 DWORD PTR _nLengthW$[ebp], eax

; 449  : 		int nLengthA = nLengthW*2;

  0004c	8b 55 f8	 mov	 edx, DWORD PTR _nLengthW$[ebp]
  0004f	d1 e2		 shl	 edx, 1
  00051	89 55 f4	 mov	 DWORD PTR _nLengthA$[ebp], edx

; 450  : 
; 451  : 		if( nLengthA > t_nBufferLength )

  00054	81 7d f4 80 00
	00 00		 cmp	 DWORD PTR _nLengthA$[ebp], 128 ; 00000080H
  0005b	7e 2d		 jle	 SHORT $L183356

; 452  : 		{
; 453  : 			m_psz = static_cast< LPSTR >( malloc( nLengthA*sizeof( char ) ) );

  0005d	8b f4		 mov	 esi, esp
  0005f	8b 45 f4	 mov	 eax, DWORD PTR _nLengthA$[ebp]
  00062	50		 push	 eax
  00063	ff 15 00 00 00
	00		 call	 DWORD PTR __imp__malloc
  00069	83 c4 04	 add	 esp, 4
  0006c	3b f4		 cmp	 esi, esp
  0006e	e8 00 00 00 00	 call	 __RTC_CheckEsp
  00073	8b 4d fc	 mov	 ecx, DWORD PTR _this$[ebp]
  00076	89 01		 mov	 DWORD PTR [ecx], eax

; 454  : 			if (m_psz == NULL)

  00078	8b 55 fc	 mov	 edx, DWORD PTR _this$[ebp]
  0007b	83 3a 00	 cmp	 DWORD PTR [edx], 0
  0007e	75 0a		 jne	 SHORT $L183356

; 455  : 			{
; 456  : 				AtlThrow( E_OUTOFMEMORY );

  00080	68 0e 00 07 80	 push	 -2147024882		; 8007000eH
  00085	e8 00 00 00 00	 call	 ?AtlThrow@ATL@@YGXJ@Z	; ATL::AtlThrow
$L183356:

; 457  : 			}
; 458  : 		}
; 459  : 
; 460  : 		if (::WideCharToMultiByte( nCodePage, 0, psz, nLengthW, m_psz, nLengthA, NULL, NULL ) == 0)

  0008a	8b f4		 mov	 esi, esp
  0008c	6a 00		 push	 0
  0008e	6a 00		 push	 0
  00090	8b 45 f4	 mov	 eax, DWORD PTR _nLengthA$[ebp]
  00093	50		 push	 eax
  00094	8b 4d fc	 mov	 ecx, DWORD PTR _this$[ebp]
  00097	8b 11		 mov	 edx, DWORD PTR [ecx]
  00099	52		 push	 edx
  0009a	8b 45 f8	 mov	 eax, DWORD PTR _nLengthW$[ebp]
  0009d	50		 push	 eax
  0009e	8b 4d 08	 mov	 ecx, DWORD PTR _psz$[ebp]
  000a1	51		 push	 ecx
  000a2	6a 00		 push	 0
  000a4	8b 55 0c	 mov	 edx, DWORD PTR _nCodePage$[ebp]
  000a7	52		 push	 edx
  000a8	ff 15 00 00 00
	00		 call	 DWORD PTR __imp__WideCharToMultiByte@32
  000ae	3b f4		 cmp	 esi, esp
  000b0	e8 00 00 00 00	 call	 __RTC_CheckEsp
  000b5	85 c0		 test	 eax, eax
  000b7	75 05		 jne	 SHORT $L200109

; 461  : 		{
; 462  : 			AtlThrowLastWin32();

  000b9	e8 00 00 00 00	 call	 ?AtlThrowLastWin32@ATL@@YGXXZ ; ATL::AtlThrowLastWin32
$L200109:

; 463  : 		}
; 464  : 	}

  000be	5e		 pop	 esi
  000bf	83 c4 0c	 add	 esp, 12			; 0000000cH
  000c2	3b ec		 cmp	 ebp, esp
  000c4	e8 00 00 00 00	 call	 __RTC_CheckEsp
  000c9	8b e5		 mov	 esp, ebp
  000cb	5d		 pop	 ebp
  000cc	c2 08 00	 ret	 8
?Init@?$CW2AEX@$0IA@@ATL@@AAEXPB_WI@Z ENDP		; ATL::CW2AEX<128>::Init
_TEXT	ENDS
EXTRN	__imp__GetLastError@0:NEAR
; Function compile flags: /Odt /RTCsu
; File d:\program files (x86)\microsoft visual studio .net 2003\vc7\atlmfc\include\atlexcept.h
;	COMDAT ?AtlThrowLastWin32@ATL@@YGXXZ
_TEXT	SEGMENT
tv69 = -8						; size = 4
_dwError$ = -4						; size = 4
?AtlThrowLastWin32@ATL@@YGXXZ PROC NEAR			; ATL::AtlThrowLastWin32, COMDAT

; 80   : {

  00000	55		 push	 ebp
  00001	8b ec		 mov	 ebp, esp
  00003	83 ec 08	 sub	 esp, 8
  00006	56		 push	 esi
  00007	c7 45 f8 cc cc
	cc cc		 mov	 DWORD PTR [ebp-8], -858993460 ; ccccccccH
  0000e	c7 45 fc cc cc
	cc cc		 mov	 DWORD PTR [ebp-4], -858993460 ; ccccccccH

; 81   : 	DWORD dwError = ::GetLastError();

  00015	8b f4		 mov	 esi, esp
  00017	ff 15 00 00 00
	00		 call	 DWORD PTR __imp__GetLastError@0
  0001d	3b f4		 cmp	 esi, esp
  0001f	e8 00 00 00 00	 call	 __RTC_CheckEsp
  00024	89 45 fc	 mov	 DWORD PTR _dwError$[ebp], eax

; 82   : 	AtlThrow( HRESULT_FROM_WIN32( dwError ) );

  00027	83 7d fc 00	 cmp	 DWORD PTR _dwError$[ebp], 0
  0002b	7f 08		 jg	 SHORT $L200111
  0002d	8b 45 fc	 mov	 eax, DWORD PTR _dwError$[ebp]
  00030	89 45 f8	 mov	 DWORD PTR tv69[ebp], eax
  00033	eb 18		 jmp	 SHORT $L200112
$L200111:
  00035	8b 4d fc	 mov	 ecx, DWORD PTR _dwError$[ebp]
  00038	81 e1 ff ff 00
	00		 and	 ecx, 65535		; 0000ffffH
  0003e	81 c9 00 00 07
	00		 or	 ecx, 458752		; 00070000H
  00044	81 c9 00 00 00
	80		 or	 ecx, -2147483648	; 80000000H
  0004a	89 4d f8	 mov	 DWORD PTR tv69[ebp], ecx
$L200112:
  0004d	8b 55 f8	 mov	 edx, DWORD PTR tv69[ebp]
  00050	52		 push	 edx
  00051	e8 00 00 00 00	 call	 ?AtlThrow@ATL@@YGXJ@Z	; ATL::AtlThrow
$L200110:

; 83   : }

  00056	5e		 pop	 esi
  00057	83 c4 08	 add	 esp, 8
  0005a	3b ec		 cmp	 ebp, esp
  0005c	e8 00 00 00 00	 call	 __RTC_CheckEsp
  00061	8b e5		 mov	 esp, ebp
  00063	5d		 pop	 ebp
  00064	c3		 ret	 0
?AtlThrowLastWin32@ATL@@YGXXZ ENDP			; ATL::AtlThrowLastWin32
; Function compile flags: /Odt /RTCsu
; File d:\program files (x86)\microsoft visual studio .net 2003\vc7\atlmfc\include\atlalloc.h
_TEXT	ENDS
;	COMDAT ?GetData@CAtlSafeAllocBufferNode@?$CAtlSafeAllocBufferManager@VCCRTAllocator@ATL@@@_ATL_SAFE_ALLOCA_IMPL@ATL@@QAEPAXXZ
_TEXT	SEGMENT
_this$ = -4						; size = 4
?GetData@CAtlSafeAllocBufferNode@?$CAtlSafeAllocBufferManager@VCCRTAllocator@ATL@@@_ATL_SAFE_ALLOCA_IMPL@ATL@@QAEPAXXZ PROC NEAR ; ATL::_ATL_SAFE_ALLOCA_IMPL::CAtlSafeAllocBufferManager<ATL::CCRTAllocator>::CAtlSafeAllocBufferNode::GetData, COMDAT
; _this$ = ecx

; 365  : 		{

  00000	55		 push	 ebp
  00001	8b ec		 mov	 ebp, esp
  00003	51		 push	 ecx
  00004	c7 45 fc cc cc
	cc cc		 mov	 DWORD PTR [ebp-4], -858993460 ; ccccccccH
  0000b	89 4d fc	 mov	 DWORD PTR _this$[ebp], ecx

; 366  : 			return (this + 1);

  0000e	8b 45 fc	 mov	 eax, DWORD PTR _this$[ebp]
  00011	83 c0 08	 add	 eax, 8

; 367  : 		}

  00014	8b e5		 mov	 esp, ebp
  00016	5d		 pop	 ebp
  00017	c3		 ret	 0
?GetData@CAtlSafeAllocBufferNode@?$CAtlSafeAllocBufferManager@VCCRTAllocator@ATL@@@_ATL_SAFE_ALLOCA_IMPL@ATL@@QAEPAXXZ ENDP ; ATL::_ATL_SAFE_ALLOCA_IMPL::CAtlSafeAllocBufferManager<ATL::CCRTAllocator>::CAtlSafeAllocBufferNode::GetData
; Function compile flags: /Odt /RTCsu
_TEXT	ENDS
;	COMDAT ?AllocateHeap@?$CTempBuffer@D$0IA@VCCRTAllocator@ATL@@@ATL@@AAEXI@Z
_TEXT	SEGMENT
_p$ = -8						; size = 4
_this$ = -4						; size = 4
_nBytes$ = 8						; size = 4
?AllocateHeap@?$CTempBuffer@D$0IA@VCCRTAllocator@ATL@@@ATL@@AAEXI@Z PROC NEAR ; ATL::CTempBuffer<char,128,ATL::CCRTAllocator>::AllocateHeap, COMDAT
; _this$ = ecx

; 292  : 	{

  00000	55		 push	 ebp
  00001	8b ec		 mov	 ebp, esp
  00003	83 ec 08	 sub	 esp, 8
  00006	c7 45 f8 cc cc
	cc cc		 mov	 DWORD PTR [ebp-8], -858993460 ; ccccccccH
  0000d	c7 45 fc cc cc
	cc cc		 mov	 DWORD PTR [ebp-4], -858993460 ; ccccccccH
  00014	89 4d fc	 mov	 DWORD PTR _this$[ebp], ecx

; 293  : 		T* p = static_cast< T* >( Allocator::Allocate( nBytes ) );

  00017	8b 45 08	 mov	 eax, DWORD PTR _nBytes$[ebp]
  0001a	50		 push	 eax
  0001b	e8 00 00 00 00	 call	 ?Allocate@CCRTAllocator@ATL@@SAPAXI@Z ; ATL::CCRTAllocator::Allocate
  00020	83 c4 04	 add	 esp, 4
  00023	89 45 f8	 mov	 DWORD PTR _p$[ebp], eax

; 294  : 		if( p == NULL )

  00026	83 7d f8 00	 cmp	 DWORD PTR _p$[ebp], 0
  0002a	75 0a		 jne	 SHORT $L184832

; 295  : 		{
; 296  : 			AtlThrow( E_OUTOFMEMORY );

  0002c	68 0e 00 07 80	 push	 -2147024882		; 8007000eH
  00031	e8 00 00 00 00	 call	 ?AtlThrow@ATL@@YGXJ@Z	; ATL::AtlThrow
$L184832:

; 297  : 		}
; 298  : 		m_p = p;

  00036	8b 4d fc	 mov	 ecx, DWORD PTR _this$[ebp]
  00039	8b 55 f8	 mov	 edx, DWORD PTR _p$[ebp]
  0003c	89 11		 mov	 DWORD PTR [ecx], edx
$L200114:

; 299  : 	}

  0003e	83 c4 08	 add	 esp, 8
  00041	3b ec		 cmp	 ebp, esp
  00043	e8 00 00 00 00	 call	 __RTC_CheckEsp
  00048	8b e5		 mov	 esp, ebp
  0004a	5d		 pop	 ebp
  0004b	c2 04 00	 ret	 4
?AllocateHeap@?$CTempBuffer@D$0IA@VCCRTAllocator@ATL@@@ATL@@AAEXI@Z ENDP ; ATL::CTempBuffer<char,128,ATL::CCRTAllocator>::AllocateHeap
_TEXT	ENDS
CRT$XCU	SEGMENT
_$S6	DD	FLAT:_$E5
; Function compile flags: /Odt /RTCsu
; File d:\boxgit\playbox\playbox\dev\prj\playbox\src\appconfig\config\configlayoutdef.h
CRT$XCU	ENDS
;	COMDAT _$E5
text$yc	SEGMENT
_$E5	PROC NEAR					; COMDAT

; 17   : 	CONF_LAYOUT_NORMAL,		TYPE_CONFIG_BOOL,

  00000	55		 push	 ebp
  00001	8b ec		 mov	 ebp, esp
  00003	a1 00 00 00 00	 mov	 eax, DWORD PTR _CONF_LAYOUT_NORMAL
  00008	a3 00 00 00 00	 mov	 DWORD PTR _CONF_LAYOUT, eax
  0000d	8b 0d 00 00 00
	00		 mov	 ecx, DWORD PTR _TYPE_CONFIG_BOOL
  00013	89 0d 04 00 00
	00		 mov	 DWORD PTR _CONF_LAYOUT+4, ecx

; 18   : 	CONF_LAYOUT_X_POS,		TYPE_CONFIG_INT,

  00019	8b 15 00 00 00
	00		 mov	 edx, DWORD PTR _CONF_LAYOUT_X_POS
  0001f	89 15 08 00 00
	00		 mov	 DWORD PTR _CONF_LAYOUT+8, edx
  00025	a1 00 00 00 00	 mov	 eax, DWORD PTR _TYPE_CONFIG_INT
  0002a	a3 0c 00 00 00	 mov	 DWORD PTR _CONF_LAYOUT+12, eax

; 19   : 	CONF_LAYOUT_Y_POS,		TYPE_CONFIG_INT,

  0002f	8b 0d 00 00 00
	00		 mov	 ecx, DWORD PTR _CONF_LAYOUT_Y_POS
  00035	89 0d 10 00 00
	00		 mov	 DWORD PTR _CONF_LAYOUT+16, ecx
  0003b	8b 15 00 00 00
	00		 mov	 edx, DWORD PTR _TYPE_CONFIG_INT
  00041	89 15 14 00 00
	00		 mov	 DWORD PTR _CONF_LAYOUT+20, edx

; 20   : 	CONF_LAYOUT_WIDTH,		TYPE_CONFIG_INT,

  00047	a1 00 00 00 00	 mov	 eax, DWORD PTR _CONF_LAYOUT_WIDTH
  0004c	a3 18 00 00 00	 mov	 DWORD PTR _CONF_LAYOUT+24, eax
  00051	8b 0d 00 00 00
	00		 mov	 ecx, DWORD PTR _TYPE_CONFIG_INT
  00057	89 0d 1c 00 00
	00		 mov	 DWORD PTR _CONF_LAYOUT+28, ecx

; 21   : 	CONF_LAYOUT_HEIGHT,		TYPE_CONFIG_INT,

  0005d	8b 15 00 00 00
	00		 mov	 edx, DWORD PTR _CONF_LAYOUT_HEIGHT
  00063	89 15 20 00 00
	00		 mov	 DWORD PTR _CONF_LAYOUT+32, edx
  00069	a1 00 00 00 00	 mov	 eax, DWORD PTR _TYPE_CONFIG_INT
  0006e	a3 24 00 00 00	 mov	 DWORD PTR _CONF_LAYOUT+36, eax

; 22   : 	CONF_LAYOUT_MIN_WIDTH,  TYPE_CONFIG_INT,

  00073	8b 0d 00 00 00
	00		 mov	 ecx, DWORD PTR _CONF_LAYOUT_MIN_WIDTH
  00079	89 0d 28 00 00
	00		 mov	 DWORD PTR _CONF_LAYOUT+40, ecx
  0007f	8b 15 00 00 00
	00		 mov	 edx, DWORD PTR _TYPE_CONFIG_INT
  00085	89 15 2c 00 00
	00		 mov	 DWORD PTR _CONF_LAYOUT+44, edx

; 23   : 	CONF_LAYOUT_MIN_HEIGHT, TYPE_CONFIG_INT

  0008b	a1 00 00 00 00	 mov	 eax, DWORD PTR _CONF_LAYOUT_MIN_HEIGHT
  00090	a3 30 00 00 00	 mov	 DWORD PTR _CONF_LAYOUT+48, eax

; 24   : };

  00095	8b 0d 00 00 00
	00		 mov	 ecx, DWORD PTR _TYPE_CONFIG_INT
  0009b	89 0d 34 00 00
	00		 mov	 DWORD PTR _CONF_LAYOUT+52, ecx
  000a1	5d		 pop	 ebp
  000a2	c3		 ret	 0
_$E5	ENDP
text$yc	ENDS
CRT$XCU	SEGMENT
_$S8	DD	FLAT:_$E7
; Function compile flags: /Odt /RTCsu
; File d:\boxgit\playbox\playbox\dev\prj\playbox\src\appconfig\config\configappdef.h
CRT$XCU	ENDS
;	COMDAT _$E7
text$yc	SEGMENT
_$E7	PROC NEAR					; COMDAT

; 19   : 	CONF_APP_SWF_PATH,			TYPE_CONFIG_STR,

  00000	55		 push	 ebp
  00001	8b ec		 mov	 ebp, esp
  00003	a1 00 00 00 00	 mov	 eax, DWORD PTR _CONF_APP_SWF_PATH
  00008	a3 00 00 00 00	 mov	 DWORD PTR _CONF_APP, eax
  0000d	8b 0d 00 00 00
	00		 mov	 ecx, DWORD PTR _TYPE_CONFIG_STR
  00013	89 0d 04 00 00
	00		 mov	 DWORD PTR _CONF_APP+4, ecx

; 20   : 	CONF_APP_MAINWND_HOLD,		TYPE_CONFIG_BOOL,

  00019	8b 15 00 00 00
	00		 mov	 edx, DWORD PTR _CONF_APP_MAINWND_HOLD
  0001f	89 15 08 00 00
	00		 mov	 DWORD PTR _CONF_APP+8, edx
  00025	a1 00 00 00 00	 mov	 eax, DWORD PTR _TYPE_CONFIG_BOOL
  0002a	a3 0c 00 00 00	 mov	 DWORD PTR _CONF_APP+12, eax

; 21   : 	CONF_APP_RUN_COUNT,			TYPE_CONFIG_INT,

  0002f	8b 0d 00 00 00
	00		 mov	 ecx, DWORD PTR _CONF_APP_RUN_COUNT
  00035	89 0d 10 00 00
	00		 mov	 DWORD PTR _CONF_APP+16, ecx
  0003b	8b 15 00 00 00
	00		 mov	 edx, DWORD PTR _TYPE_CONFIG_INT
  00041	89 15 14 00 00
	00		 mov	 DWORD PTR _CONF_APP+20, edx

; 22   : 	CONF_APP_PLAYED_GAME,		TYPE_CONFIG_INT,

  00047	a1 00 00 00 00	 mov	 eax, DWORD PTR _CONF_APP_PLAYED_GAME
  0004c	a3 18 00 00 00	 mov	 DWORD PTR _CONF_APP+24, eax
  00051	8b 0d 00 00 00
	00		 mov	 ecx, DWORD PTR _TYPE_CONFIG_INT
  00057	89 0d 1c 00 00
	00		 mov	 DWORD PTR _CONF_APP+28, ecx

; 23   : 	CONF_APP_PLAYED_PC_GAME,	TYPE_CONFIG_INT,

  0005d	8b 15 00 00 00
	00		 mov	 edx, DWORD PTR _CONF_APP_PLAYED_PC_GAME
  00063	89 15 20 00 00
	00		 mov	 DWORD PTR _CONF_APP+32, edx
  00069	a1 00 00 00 00	 mov	 eax, DWORD PTR _TYPE_CONFIG_INT
  0006e	a3 24 00 00 00	 mov	 DWORD PTR _CONF_APP+36, eax

; 24   : 	CONF_APP_PLAYED_ICON_SIZE,	TYPE_CONFIG_INT, //panelicon0,1,2

  00073	8b 0d 00 00 00
	00		 mov	 ecx, DWORD PTR _CONF_APP_PLAYED_ICON_SIZE
  00079	89 0d 28 00 00
	00		 mov	 DWORD PTR _CONF_APP+40, ecx
  0007f	8b 15 00 00 00
	00		 mov	 edx, DWORD PTR _TYPE_CONFIG_INT
  00085	89 15 2c 00 00
	00		 mov	 DWORD PTR _CONF_APP+44, edx

; 25   : 	CONF_APP_PIC_SAVE_PATH,		TYPE_CONFIG_STR

  0008b	a1 00 00 00 00	 mov	 eax, DWORD PTR _CONF_APP_PIC_SAVE_PATH
  00090	a3 30 00 00 00	 mov	 DWORD PTR _CONF_APP+48, eax

; 26   : };

  00095	8b 0d 00 00 00
	00		 mov	 ecx, DWORD PTR _TYPE_CONFIG_STR
  0009b	89 0d 34 00 00
	00		 mov	 DWORD PTR _CONF_APP+52, ecx
  000a1	5d		 pop	 ebp
  000a2	c3		 ret	 0
_$E7	ENDP
text$yc	ENDS
CRT$XCU	SEGMENT
_$S10	DD	FLAT:_$E9
; Function compile flags: /Odt /RTCsu
; File d:\boxgit\playbox\playbox\dev\prj\playbox\src\appconfig\config\configsettingdef.h
CRT$XCU	ENDS
;	COMDAT _$E9
text$yc	SEGMENT
_$E9	PROC NEAR					; COMDAT

; 25   : 	CONF_SETTING_SKIN_IDX,				TYPE_CONFIG_STR,

  00000	55		 push	 ebp
  00001	8b ec		 mov	 ebp, esp
  00003	a1 00 00 00 00	 mov	 eax, DWORD PTR _CONF_SETTING_SKIN_IDX
  00008	a3 00 00 00 00	 mov	 DWORD PTR _CONF_SETTING, eax
  0000d	8b 0d 00 00 00
	00		 mov	 ecx, DWORD PTR _TYPE_CONFIG_STR
  00013	89 0d 04 00 00
	00		 mov	 DWORD PTR _CONF_SETTING+4, ecx

; 26   : 	CONF_SETTING_CONFIG_MAIN_PAGE,		TYPE_CONFIG_STR,

  00019	8b 15 00 00 00
	00		 mov	 edx, DWORD PTR _CONF_SETTING_CONFIG_MAIN_PAGE
  0001f	89 15 08 00 00
	00		 mov	 DWORD PTR _CONF_SETTING+8, edx
  00025	a1 00 00 00 00	 mov	 eax, DWORD PTR _TYPE_CONFIG_STR
  0002a	a3 0c 00 00 00	 mov	 DWORD PTR _CONF_SETTING+12, eax

; 27   : 	CONF_SETTING_CONFIG_PROBLEM_REPORT,	TYPE_CONFIG_STR,

  0002f	8b 0d 00 00 00
	00		 mov	 ecx, DWORD PTR _CONF_SETTING_CONFIG_PROBLEM_REPORT
  00035	89 0d 10 00 00
	00		 mov	 DWORD PTR _CONF_SETTING+16, ecx
  0003b	8b 15 00 00 00
	00		 mov	 edx, DWORD PTR _TYPE_CONFIG_STR
  00041	89 15 14 00 00
	00		 mov	 DWORD PTR _CONF_SETTING+20, edx

; 28   : 	CONF_SETTING_CONFIG_HOME_PAGE,		TYPE_CONFIG_STR,

  00047	a1 00 00 00 00	 mov	 eax, DWORD PTR _CONF_SETTING_CONFIG_HOME_PAGE
  0004c	a3 18 00 00 00	 mov	 DWORD PTR _CONF_SETTING+24, eax
  00051	8b 0d 00 00 00
	00		 mov	 ecx, DWORD PTR _TYPE_CONFIG_STR
  00057	89 0d 1c 00 00
	00		 mov	 DWORD PTR _CONF_SETTING+28, ecx

; 29   : 	CONF_SETTING_CONFIG_IFASKEXIT,		TYPE_CONFIG_BOOL,

  0005d	8b 15 00 00 00
	00		 mov	 edx, DWORD PTR _CONF_SETTING_CONFIG_IFASKEXIT
  00063	89 15 20 00 00
	00		 mov	 DWORD PTR _CONF_SETTING+32, edx
  00069	a1 00 00 00 00	 mov	 eax, DWORD PTR _TYPE_CONFIG_BOOL
  0006e	a3 24 00 00 00	 mov	 DWORD PTR _CONF_SETTING+36, eax

; 30   : 	CONF_SETTING_CONFIG_EXITCHOICE,		TYPE_CONFIG_BOOL,

  00073	8b 0d 00 00 00
	00		 mov	 ecx, DWORD PTR _CONF_SETTING_CONFIG_EXITCHOICE
  00079	89 0d 28 00 00
	00		 mov	 DWORD PTR _CONF_SETTING+40, ecx
  0007f	8b 15 00 00 00
	00		 mov	 edx, DWORD PTR _TYPE_CONFIG_BOOL
  00085	89 15 2c 00 00
	00		 mov	 DWORD PTR _CONF_SETTING+44, edx

; 31   : 	CONF_SETTING_LOGIN_USER_NAME,		TYPE_CONFIG_STR,

  0008b	a1 00 00 00 00	 mov	 eax, DWORD PTR _CONF_SETTING_LOGIN_USER_NAME
  00090	a3 30 00 00 00	 mov	 DWORD PTR _CONF_SETTING+48, eax
  00095	8b 0d 00 00 00
	00		 mov	 ecx, DWORD PTR _TYPE_CONFIG_STR
  0009b	89 0d 34 00 00
	00		 mov	 DWORD PTR _CONF_SETTING+52, ecx

; 32   : 	CONF_SETTING_LOGIN_PASSWORD,		TYPE_CONFIG_STR,

  000a1	8b 15 00 00 00
	00		 mov	 edx, DWORD PTR _CONF_SETTING_LOGIN_PASSWORD
  000a7	89 15 38 00 00
	00		 mov	 DWORD PTR _CONF_SETTING+56, edx
  000ad	a1 00 00 00 00	 mov	 eax, DWORD PTR _TYPE_CONFIG_STR
  000b2	a3 3c 00 00 00	 mov	 DWORD PTR _CONF_SETTING+60, eax

; 33   : 	CONF_SETTING_NETID,					TYPE_CONFIG_STR,

  000b7	8b 0d 00 00 00
	00		 mov	 ecx, DWORD PTR _CONF_SETTING_NETID
  000bd	89 0d 40 00 00
	00		 mov	 DWORD PTR _CONF_SETTING+64, ecx
  000c3	8b 15 00 00 00
	00		 mov	 edx, DWORD PTR _TYPE_CONFIG_STR
  000c9	89 15 44 00 00
	00		 mov	 DWORD PTR _CONF_SETTING+68, edx

; 34   : 	CONF_SETTING_COLOR,					TYPE_CONFIG_INT,

  000cf	a1 00 00 00 00	 mov	 eax, DWORD PTR _CONF_SETTING_COLOR
  000d4	a3 48 00 00 00	 mov	 DWORD PTR _CONF_SETTING+72, eax
  000d9	8b 0d 00 00 00
	00		 mov	 ecx, DWORD PTR _TYPE_CONFIG_INT
  000df	89 0d 4c 00 00
	00		 mov	 DWORD PTR _CONF_SETTING+76, ecx

; 35   : 	CONF_SETTING_LIGHT,					TYPE_CONFIG_INT,

  000e5	8b 15 00 00 00
	00		 mov	 edx, DWORD PTR _CONF_SETTING_LIGHT
  000eb	89 15 50 00 00
	00		 mov	 DWORD PTR _CONF_SETTING+80, edx
  000f1	a1 00 00 00 00	 mov	 eax, DWORD PTR _TYPE_CONFIG_INT
  000f6	a3 54 00 00 00	 mov	 DWORD PTR _CONF_SETTING+84, eax

; 36   : 	CONF_SETTING_COLOR_BTN_INDEX,		TYPE_CONFIG_INT,

  000fb	8b 0d 00 00 00
	00		 mov	 ecx, DWORD PTR _CONF_SETTING_COLOR_BTN_INDEX
  00101	89 0d 58 00 00
	00		 mov	 DWORD PTR _CONF_SETTING+88, ecx
  00107	8b 15 00 00 00
	00		 mov	 edx, DWORD PTR _TYPE_CONFIG_INT
  0010d	89 15 5c 00 00
	00		 mov	 DWORD PTR _CONF_SETTING+92, edx

; 37   : 	CONF_SETTING_COLOR_USER,			TYPE_CONFIG_INT,

  00113	a1 00 00 00 00	 mov	 eax, DWORD PTR _CONF_SETTING_COLOR_USER
  00118	a3 60 00 00 00	 mov	 DWORD PTR _CONF_SETTING+96, eax
  0011d	8b 0d 00 00 00
	00		 mov	 ecx, DWORD PTR _TYPE_CONFIG_INT
  00123	89 0d 64 00 00
	00		 mov	 DWORD PTR _CONF_SETTING+100, ecx

; 38   : 	CONF_SETTING_FIRST_TIME_CHANGESKIN, TYPE_CONFIG_BOOL

  00129	8b 15 00 00 00
	00		 mov	 edx, DWORD PTR _CONF_SETTING_FIRST_TIME_CHANGESKIN
  0012f	89 15 68 00 00
	00		 mov	 DWORD PTR _CONF_SETTING+104, edx

; 39   : };

  00135	a1 00 00 00 00	 mov	 eax, DWORD PTR _TYPE_CONFIG_BOOL
  0013a	a3 6c 00 00 00	 mov	 DWORD PTR _CONF_SETTING+108, eax
  0013f	5d		 pop	 ebp
  00140	c3		 ret	 0
_$E9	ENDP
text$yc	ENDS
_BSS	SEGMENT
_CONF_LAYOUT DD	0eH DUP (?)
_CONF_APP DD	0eH DUP (?)
_CONF_SETTING DD 01cH DUP (?)
_BSS	ENDS
END
