; Listing generated by Microsoft (R) Optimizing Compiler Version 13.10.3077 

	TITLE	.\src\module\PlayedGamePanel\PlayedGameWnd.cpp
	.386P
include listing.inc
if @Version gt 510
.model FLAT
else
_TEXT	SEGMENT PARA USE32 PUBLIC 'CODE'
_TEXT	ENDS
_DATA	SEGMENT DWORD USE32 PUBLIC 'DATA'
_DATA	ENDS
CONST	SEGMENT DWORD USE32 PUBLIC 'CONST'
CONST	ENDS
_BSS	SEGMENT DWORD USE32 PUBLIC 'BSS'
_BSS	ENDS
$$SYMBOLS	SEGMENT BYTE USE32 'DEBSYM'
$$SYMBOLS	ENDS
_TLS	SEGMENT DWORD USE32 PUBLIC 'TLS'
_TLS	ENDS
;	COMDAT ??_C@_0EA@CPOAACJC@d?3?2boxgit?2playbox?2playbox?2dev?2pr@
CONST	SEGMENT DWORD USE32 PUBLIC 'CONST'
CONST	ENDS
;	COMDAT ??_C@_0DC@KJIHKHDE@?$CInCount?5?$DN?$DN?50?$CJ?5?$HM?$HM?5?$CI?$CIiFirst?$CLnCount@
CONST	SEGMENT DWORD USE32 PUBLIC 'CONST'
CONST	ENDS
;	COMDAT ??_C@_0EN@IBFBLEEG@D?3?2Program?5Files?5?$CIx86?$CJ?2Microsoft@
CONST	SEGMENT DWORD USE32 PUBLIC 'CONST'
CONST	ENDS
;	COMDAT ??_C@_0BD@OLBABOEK@vector?$DMT?$DO?5too?5long?$AA@
CONST	SEGMENT DWORD USE32 PUBLIC 'CONST'
CONST	ENDS
rdata$r	SEGMENT DWORD USE32 PUBLIC 'CONST'
rdata$r	ENDS
xdata$x	SEGMENT DWORD USE32 PUBLIC 'CONST'
xdata$x	ENDS
text$AFX_COL1	SEGMENT PARA USE32 PUBLIC ''
text$AFX_COL1	ENDS
text$yc	SEGMENT PARA USE32 PUBLIC 'CODE'
text$yc	ENDS
CRT$XCA	SEGMENT DWORD USE32 PUBLIC 'DATA'
CRT$XCA	ENDS
CRT$XCU	SEGMENT DWORD USE32 PUBLIC 'DATA'
CRT$XCU	ENDS
CRT$XCL	SEGMENT DWORD USE32 PUBLIC 'DATA'
CRT$XCL	ENDS
CRT$XCC	SEGMENT DWORD USE32 PUBLIC 'DATA'
CRT$XCC	ENDS
CRT$XCZ	SEGMENT DWORD USE32 PUBLIC 'DATA'
CRT$XCZ	ENDS
text$yd	SEGMENT PARA USE32 PUBLIC 'CODE'
text$yd	ENDS
ATL$__m	SEGMENT DWORD USE32 PUBLIC ''
ATL$__m	ENDS
ATL$__z	SEGMENT DWORD USE32 PUBLIC ''
ATL$__z	ENDS
ATL$__a	SEGMENT DWORD USE32 PUBLIC ''
ATL$__a	ENDS
;	COMDAT ??1_tagLMCItemInfo@@QAE@XZ
_TEXT	SEGMENT PARA USE32 PUBLIC 'CODE'
_TEXT	ENDS
;	COMDAT ??1BCMenuMemDC@@UAE@XZ
_TEXT	SEGMENT PARA USE32 PUBLIC 'CODE'
_TEXT	ENDS
;	COMDAT ??_GBCMenuMemDC@@UAEPAXI@Z
_TEXT	SEGMENT PARA USE32 PUBLIC 'CODE'
_TEXT	ENDS
;	COMDAT ??1CShowMenu@@QAE@XZ
_TEXT	SEGMENT PARA USE32 PUBLIC 'CODE'
_TEXT	ENDS
;	COMDAT ?IQQItemChangeOb_CountChange@IQQItemCountChangeObserver@@UAEXI@Z
_TEXT	SEGMENT PARA USE32 PUBLIC 'CODE'
_TEXT	ENDS
;	COMDAT ??1CGdiPlusBitmap@@UAE@XZ
_TEXT	SEGMENT PARA USE32 PUBLIC 'CODE'
_TEXT	ENDS
;	COMDAT ?Empty@CGdiPlusBitmap@@QAEXXZ
_TEXT	SEGMENT PARA USE32 PUBLIC 'CODE'
_TEXT	ENDS
;	COMDAT ?Load@CGdiPlusBitmap@@QAE_NPB_W@Z
_TEXT	SEGMENT PARA USE32 PUBLIC 'CODE'
_TEXT	ENDS
;	COMDAT ??_GCGdiPlusBitmap@@UAEPAXI@Z
_TEXT	SEGMENT PARA USE32 PUBLIC 'CODE'
_TEXT	ENDS
;	COMDAT ??1IData@@MAE@XZ
_TEXT	SEGMENT PARA USE32 PUBLIC 'CODE'
_TEXT	ENDS
;	COMDAT ?DataAppStart@IData@@UAEXXZ
_TEXT	SEGMENT PARA USE32 PUBLIC 'CODE'
_TEXT	ENDS
;	COMDAT ?DataAppExit@IData@@UAEXXZ
_TEXT	SEGMENT PARA USE32 PUBLIC 'CODE'
_TEXT	ENDS
;	COMDAT ??_GIData@@MAEPAXI@Z
_TEXT	SEGMENT PARA USE32 PUBLIC 'CODE'
_TEXT	ENDS
;	COMDAT ??0OneLocalGame@@QAE@XZ
_TEXT	SEGMENT PARA USE32 PUBLIC 'CODE'
_TEXT	ENDS
;	COMDAT ?clear@OneLocalGame@@QAEXXZ
_TEXT	SEGMENT PARA USE32 PUBLIC 'CODE'
_TEXT	ENDS
;	COMDAT _$E5
text$yc	SEGMENT PARA USE32 PUBLIC 'CODE'
text$yc	ENDS
;	COMDAT _$E7
text$yc	SEGMENT PARA USE32 PUBLIC 'CODE'
text$yc	ENDS
;	COMDAT ??_GPlayedGameWnd@@UAEPAXI@Z
_TEXT	SEGMENT PARA USE32 PUBLIC 'CODE'
_TEXT	ENDS
;	COMDAT ??0IQQItemCountChangeObserver@@QAE@XZ
_TEXT	SEGMENT PARA USE32 PUBLIC 'CODE'
_TEXT	ENDS
;	COMDAT ??1IQQItemCountChangeObserver@@UAE@XZ
_TEXT	SEGMENT PARA USE32 PUBLIC 'CODE'
_TEXT	ENDS
;	COMDAT ??_GIQQItemCountChangeObserver@@UAEPAXI@Z
_TEXT	SEGMENT PARA USE32 PUBLIC 'CODE'
_TEXT	ENDS
;	COMDAT ??0IMessageObserver@@QAE@XZ
_TEXT	SEGMENT PARA USE32 PUBLIC 'CODE'
_TEXT	ENDS
;	COMDAT ??_GCShowMenu@@QAEPAXI@Z
_TEXT	SEGMENT PARA USE32 PUBLIC 'CODE'
_TEXT	ENDS
;	COMDAT ??0_tagLMCItemInfo@@QAE@ABU0@@Z
_TEXT	SEGMENT PARA USE32 PUBLIC 'CODE'
_TEXT	ENDS
;	COMDAT ??0TAB_ITEM@@QAE@XZ
_TEXT	SEGMENT PARA USE32 PUBLIC 'CODE'
_TEXT	ENDS
;	COMDAT ??1TAB_ITEM@@QAE@XZ
_TEXT	SEGMENT PARA USE32 PUBLIC 'CODE'
_TEXT	ENDS
;	COMDAT ??1OneLocalGame@@QAE@XZ
_TEXT	SEGMENT PARA USE32 PUBLIC 'CODE'
_TEXT	ENDS
;	COMDAT ??B?$CComPtrBase@UITypeInfo2@@@ATL@@QBEPAUITypeInfo2@@XZ
_TEXT	SEGMENT PARA USE32 PUBLIC 'CODE'
_TEXT	ENDS
;	COMDAT ?equal@?$istreambuf_iterator@DU?$char_traits@D@std@@@std@@QBE_NABV12@@Z
_TEXT	SEGMENT PARA USE32 PUBLIC 'CODE'
_TEXT	ENDS
;	COMDAT ?equal@?$istreambuf_iterator@_WU?$char_traits@_W@std@@@std@@QBE_NABV12@@Z
_TEXT	SEGMENT PARA USE32 PUBLIC 'CODE'
_TEXT	ENDS
;	COMDAT ??A?$vector@U_tagLMCItemInfo@@V?$allocator@U_tagLMCItemInfo@@@std@@@std@@QAEAAU_tagLMCItemInfo@@I@Z
_TEXT	SEGMENT PARA USE32 PUBLIC 'CODE'
_TEXT	ENDS
;	COMDAT ??0?$vector@UOneLocalGame@@V?$allocator@UOneLocalGame@@@std@@@std@@QAE@XZ
_TEXT	SEGMENT PARA USE32 PUBLIC 'CODE'
_TEXT	ENDS
;	COMDAT ??1?$vector@UOneLocalGame@@V?$allocator@UOneLocalGame@@@std@@@std@@QAE@XZ
_TEXT	SEGMENT PARA USE32 PUBLIC 'CODE'
_TEXT	ENDS
;	COMDAT ?begin@?$vector@UOneLocalGame@@V?$allocator@UOneLocalGame@@@std@@@std@@QAE?AViterator@12@XZ
_TEXT	SEGMENT PARA USE32 PUBLIC 'CODE'
_TEXT	ENDS
;	COMDAT ?end@?$vector@UOneLocalGame@@V?$allocator@UOneLocalGame@@@std@@@std@@QAE?AViterator@12@XZ
_TEXT	SEGMENT PARA USE32 PUBLIC 'CODE'
_TEXT	ENDS
;	COMDAT ??0?$vector@HV?$allocator@H@std@@@std@@QAE@XZ
_TEXT	SEGMENT PARA USE32 PUBLIC 'CODE'
_TEXT	ENDS
;	COMDAT ??1?$vector@HV?$allocator@H@std@@@std@@QAE@XZ
_TEXT	SEGMENT PARA USE32 PUBLIC 'CODE'
_TEXT	ENDS
;	COMDAT ??4?$vector@HV?$allocator@H@std@@@std@@QAEAAV01@ABV01@@Z
_TEXT	SEGMENT PARA USE32 PUBLIC 'CODE'
_TEXT	ENDS
;	COMDAT ?size@?$vector@HV?$allocator@H@std@@@std@@QBEIXZ
_TEXT	SEGMENT PARA USE32 PUBLIC 'CODE'
_TEXT	ENDS
;	COMDAT ??A?$vector@HV?$allocator@H@std@@@std@@QAEAAHI@Z
_TEXT	SEGMENT PARA USE32 PUBLIC 'CODE'
_TEXT	ENDS
;	COMDAT ??0?$vector@V?$basic_string@DU?$char_traits@D@std@@V?$allocator@D@2@@std@@V?$allocator@V?$basic_string@DU?$char_traits@D@std@@V?$allocator@D@2@@std@@@2@@std@@QAE@XZ
_TEXT	SEGMENT PARA USE32 PUBLIC 'CODE'
_TEXT	ENDS
;	COMDAT ??1?$vector@V?$basic_string@DU?$char_traits@D@std@@V?$allocator@D@2@@std@@V?$allocator@V?$basic_string@DU?$char_traits@D@std@@V?$allocator@D@2@@std@@@2@@std@@QAE@XZ
_TEXT	SEGMENT PARA USE32 PUBLIC 'CODE'
_TEXT	ENDS
;	COMDAT ?begin@?$vector@V?$basic_string@DU?$char_traits@D@std@@V?$allocator@D@2@@std@@V?$allocator@V?$basic_string@DU?$char_traits@D@std@@V?$allocator@D@2@@std@@@2@@std@@QAE?AViterator@12@XZ
_TEXT	SEGMENT PARA USE32 PUBLIC 'CODE'
_TEXT	ENDS
;	COMDAT ?end@?$vector@V?$basic_string@DU?$char_traits@D@std@@V?$allocator@D@2@@std@@V?$allocator@V?$basic_string@DU?$char_traits@D@std@@V?$allocator@D@2@@std@@@2@@std@@QAE?AViterator@12@XZ
_TEXT	SEGMENT PARA USE32 PUBLIC 'CODE'
_TEXT	ENDS
;	COMDAT ?push_back@?$vector@V?$basic_string@DU?$char_traits@D@std@@V?$allocator@D@2@@std@@V?$allocator@V?$basic_string@DU?$char_traits@D@std@@V?$allocator@D@2@@std@@@2@@std@@QAEXABV?$basic_string@DU?$char_traits@D@std@@V?$allocator@D@2@@2@@Z
_TEXT	SEGMENT PARA USE32 PUBLIC 'CODE'
_TEXT	ENDS
;	COMDAT ?clear@?$vector@V?$basic_string@DU?$char_traits@D@std@@V?$allocator@D@2@@std@@V?$allocator@V?$basic_string@DU?$char_traits@D@std@@V?$allocator@D@2@@std@@@2@@std@@QAEXXZ
_TEXT	SEGMENT PARA USE32 PUBLIC 'CODE'
_TEXT	ENDS
;	COMDAT ??Diterator@?$vector@V?$basic_string@DU?$char_traits@D@std@@V?$allocator@D@2@@std@@V?$allocator@V?$basic_string@DU?$char_traits@D@std@@V?$allocator@D@2@@std@@@2@@std@@QBEAAV?$basic_string@DU?$char_traits@D@std@@V?$allocator@D@2@@2@XZ
_TEXT	SEGMENT PARA USE32 PUBLIC 'CODE'
_TEXT	ENDS
;	COMDAT ??Eiterator@?$vector@V?$basic_string@DU?$char_traits@D@std@@V?$allocator@D@2@@std@@V?$allocator@V?$basic_string@DU?$char_traits@D@std@@V?$allocator@D@2@@std@@@2@@std@@QAE?AV012@H@Z
_TEXT	SEGMENT PARA USE32 PUBLIC 'CODE'
_TEXT	ENDS
;	COMDAT ??9const_iterator@?$vector@V?$basic_string@DU?$char_traits@D@std@@V?$allocator@D@2@@std@@V?$allocator@V?$basic_string@DU?$char_traits@D@std@@V?$allocator@D@2@@std@@@2@@std@@QBE_NABV012@@Z
_TEXT	SEGMENT PARA USE32 PUBLIC 'CODE'
_TEXT	ENDS
;	COMDAT ??Citerator@?$vector@UOneLocalGame@@V?$allocator@UOneLocalGame@@@std@@@std@@QBEPAUOneLocalGame@@XZ
_TEXT	SEGMENT PARA USE32 PUBLIC 'CODE'
_TEXT	ENDS
;	COMDAT ??Eiterator@?$vector@UOneLocalGame@@V?$allocator@UOneLocalGame@@@std@@@std@@QAE?AV012@H@Z
_TEXT	SEGMENT PARA USE32 PUBLIC 'CODE'
_TEXT	ENDS
;	COMDAT ??9const_iterator@?$vector@UOneLocalGame@@V?$allocator@UOneLocalGame@@@std@@@std@@QBE_NABV012@@Z
_TEXT	SEGMENT PARA USE32 PUBLIC 'CODE'
_TEXT	ENDS
;	COMDAT ?StringFindCharRev@?$ChTraitsCRT@D@ATL@@SAPBDPBDD@Z
_TEXT	SEGMENT PARA USE32 PUBLIC 'CODE'
_TEXT	ENDS
;	COMDAT ??0?$allocator@V?$basic_string@DU?$char_traits@D@std@@V?$allocator@D@2@@std@@@std@@QAE@XZ
_TEXT	SEGMENT PARA USE32 PUBLIC 'CODE'
_TEXT	ENDS
;	COMDAT ?begin@?$vector@U_tagLMCItemInfo@@V?$allocator@U_tagLMCItemInfo@@@std@@@std@@QAE?AViterator@12@XZ
_TEXT	SEGMENT PARA USE32 PUBLIC 'CODE'
_TEXT	ENDS
;	COMDAT ?_Buy@?$vector@UOneLocalGame@@V?$allocator@UOneLocalGame@@@std@@@std@@IAE_NI@Z
_TEXT	SEGMENT PARA USE32 PUBLIC 'CODE'
_TEXT	ENDS
;	COMDAT ?_Tidy@?$vector@UOneLocalGame@@V?$allocator@UOneLocalGame@@@std@@@std@@IAEXXZ
_TEXT	SEGMENT PARA USE32 PUBLIC 'CODE'
_TEXT	ENDS
;	COMDAT ??0?$_Vector_val@UOneLocalGame@@V?$allocator@UOneLocalGame@@@std@@@std@@IAE@V?$allocator@UOneLocalGame@@@1@@Z
_TEXT	SEGMENT PARA USE32 PUBLIC 'CODE'
_TEXT	ENDS
;	COMDAT ??0?$allocator@UOneLocalGame@@@std@@QAE@XZ
_TEXT	SEGMENT PARA USE32 PUBLIC 'CODE'
_TEXT	ENDS
;	COMDAT ?capacity@?$vector@HV?$allocator@H@std@@@std@@QBEIXZ
_TEXT	SEGMENT PARA USE32 PUBLIC 'CODE'
_TEXT	ENDS
;	COMDAT ?begin@?$vector@HV?$allocator@H@std@@@std@@QAE?AViterator@12@XZ
_TEXT	SEGMENT PARA USE32 PUBLIC 'CODE'
_TEXT	ENDS
;	COMDAT ?clear@?$vector@HV?$allocator@H@std@@@std@@QAEXXZ
_TEXT	SEGMENT PARA USE32 PUBLIC 'CODE'
_TEXT	ENDS
;	COMDAT ?_Buy@?$vector@HV?$allocator@H@std@@@std@@IAE_NI@Z
_TEXT	SEGMENT PARA USE32 PUBLIC 'CODE'
_TEXT	ENDS
;	COMDAT ?_Destroy@?$vector@HV?$allocator@H@std@@@std@@IAEXPAH0@Z
_TEXT	SEGMENT PARA USE32 PUBLIC 'CODE'
_TEXT	ENDS
;	COMDAT ?_Tidy@?$vector@HV?$allocator@H@std@@@std@@IAEXXZ
_TEXT	SEGMENT PARA USE32 PUBLIC 'CODE'
_TEXT	ENDS
;	COMDAT ??0?$_Vector_val@HV?$allocator@H@std@@@std@@IAE@V?$allocator@H@1@@Z
_TEXT	SEGMENT PARA USE32 PUBLIC 'CODE'
_TEXT	ENDS
;	COMDAT ??0?$allocator@H@std@@QAE@XZ
_TEXT	SEGMENT PARA USE32 PUBLIC 'CODE'
_TEXT	ENDS
;	COMDAT ?deallocate@?$allocator@H@std@@QAEXPAHI@Z
_TEXT	SEGMENT PARA USE32 PUBLIC 'CODE'
_TEXT	ENDS
;	COMDAT ?capacity@?$vector@V?$basic_string@DU?$char_traits@D@std@@V?$allocator@D@2@@std@@V?$allocator@V?$basic_string@DU?$char_traits@D@std@@V?$allocator@D@2@@std@@@2@@std@@QBEIXZ
_TEXT	SEGMENT PARA USE32 PUBLIC 'CODE'
_TEXT	ENDS
;	COMDAT ?size@?$vector@V?$basic_string@DU?$char_traits@D@std@@V?$allocator@D@2@@std@@V?$allocator@V?$basic_string@DU?$char_traits@D@std@@V?$allocator@D@2@@std@@@2@@std@@QBEIXZ
_TEXT	SEGMENT PARA USE32 PUBLIC 'CODE'
_TEXT	ENDS
;	COMDAT ?insert@?$vector@V?$basic_string@DU?$char_traits@D@std@@V?$allocator@D@2@@std@@V?$allocator@V?$basic_string@DU?$char_traits@D@std@@V?$allocator@D@2@@std@@@2@@std@@QAE?AViterator@12@V312@ABV?$basic_string@DU?$char_traits@D@std@@V?$allocator@D@2@@2@@Z
_TEXT	SEGMENT PARA USE32 PUBLIC 'CODE'
_TEXT	ENDS
;	COMDAT ?_Buy@?$vector@V?$basic_string@DU?$char_traits@D@std@@V?$allocator@D@2@@std@@V?$allocator@V?$basic_string@DU?$char_traits@D@std@@V?$allocator@D@2@@std@@@2@@std@@IAE_NI@Z
_TEXT	SEGMENT PARA USE32 PUBLIC 'CODE'
_TEXT	ENDS
;	COMDAT ?_Tidy@?$vector@V?$basic_string@DU?$char_traits@D@std@@V?$allocator@D@2@@std@@V?$allocator@V?$basic_string@DU?$char_traits@D@std@@V?$allocator@D@2@@std@@@2@@std@@IAEXXZ
_TEXT	SEGMENT PARA USE32 PUBLIC 'CODE'
_TEXT	ENDS
;	COMDAT ?_Ufill@?$vector@V?$basic_string@DU?$char_traits@D@std@@V?$allocator@D@2@@std@@V?$allocator@V?$basic_string@DU?$char_traits@D@std@@V?$allocator@D@2@@std@@@2@@std@@IAEPAV?$basic_string@DU?$char_traits@D@std@@V?$allocator@D@2@@2@PAV32@IABV32@@Z
_TEXT	SEGMENT PARA USE32 PUBLIC 'CODE'
_TEXT	ENDS
;	COMDAT ??0?$_Vector_val@V?$basic_string@DU?$char_traits@D@std@@V?$allocator@D@2@@std@@V?$allocator@V?$basic_string@DU?$char_traits@D@std@@V?$allocator@D@2@@std@@@2@@std@@IAE@V?$allocator@V?$basic_string@DU?$char_traits@D@std@@V?$allocator@D@2@@std@@@1@@Z
_TEXT	SEGMENT PARA USE32 PUBLIC 'CODE'
_TEXT	ENDS
;	COMDAT ??0iterator@?$vector@V?$basic_string@DU?$char_traits@D@std@@V?$allocator@D@2@@std@@V?$allocator@V?$basic_string@DU?$char_traits@D@std@@V?$allocator@D@2@@std@@@2@@std@@QAE@PAV?$basic_string@DU?$char_traits@D@std@@V?$allocator@D@2@@2@@Z
_TEXT	SEGMENT PARA USE32 PUBLIC 'CODE'
_TEXT	ENDS
;	COMDAT ??Eiterator@?$vector@V?$basic_string@DU?$char_traits@D@std@@V?$allocator@D@2@@std@@V?$allocator@V?$basic_string@DU?$char_traits@D@std@@V?$allocator@D@2@@std@@@2@@std@@QAEAAV012@XZ
_TEXT	SEGMENT PARA USE32 PUBLIC 'CODE'
_TEXT	ENDS
;	COMDAT ??Dconst_iterator@?$vector@V?$basic_string@DU?$char_traits@D@std@@V?$allocator@D@2@@std@@V?$allocator@V?$basic_string@DU?$char_traits@D@std@@V?$allocator@D@2@@std@@@2@@std@@QBEABV?$basic_string@DU?$char_traits@D@std@@V?$allocator@D@2@@2@XZ
_TEXT	SEGMENT PARA USE32 PUBLIC 'CODE'
_TEXT	ENDS
;	COMDAT ??8const_iterator@?$vector@V?$basic_string@DU?$char_traits@D@std@@V?$allocator@D@2@@std@@V?$allocator@V?$basic_string@DU?$char_traits@D@std@@V?$allocator@D@2@@std@@@2@@std@@QBE_NABV012@@Z
_TEXT	SEGMENT PARA USE32 PUBLIC 'CODE'
_TEXT	ENDS
;	COMDAT ??0iterator@?$vector@UOneLocalGame@@V?$allocator@UOneLocalGame@@@std@@@std@@QAE@PAUOneLocalGame@@@Z
_TEXT	SEGMENT PARA USE32 PUBLIC 'CODE'
_TEXT	ENDS
;	COMDAT ??Diterator@?$vector@UOneLocalGame@@V?$allocator@UOneLocalGame@@@std@@@std@@QBEAAUOneLocalGame@@XZ
_TEXT	SEGMENT PARA USE32 PUBLIC 'CODE'
_TEXT	ENDS
;	COMDAT ??Eiterator@?$vector@UOneLocalGame@@V?$allocator@UOneLocalGame@@@std@@@std@@QAEAAV012@XZ
_TEXT	SEGMENT PARA USE32 PUBLIC 'CODE'
_TEXT	ENDS
;	COMDAT ??8const_iterator@?$vector@UOneLocalGame@@V?$allocator@UOneLocalGame@@@std@@@std@@QBE_NABV012@@Z
_TEXT	SEGMENT PARA USE32 PUBLIC 'CODE'
_TEXT	ENDS
;	COMDAT ??Diterator@?$vector@U_tagLMCItemInfo@@V?$allocator@U_tagLMCItemInfo@@@std@@@std@@QBEAAU_tagLMCItemInfo@@XZ
_TEXT	SEGMENT PARA USE32 PUBLIC 'CODE'
_TEXT	ENDS
;	COMDAT ??Hiterator@?$vector@U_tagLMCItemInfo@@V?$allocator@U_tagLMCItemInfo@@@std@@@std@@QBE?AV012@H@Z
_TEXT	SEGMENT PARA USE32 PUBLIC 'CODE'
_TEXT	ENDS
;	COMDAT ??Diterator@?$vector@HV?$allocator@H@std@@@std@@QBEAAHXZ
_TEXT	SEGMENT PARA USE32 PUBLIC 'CODE'
_TEXT	ENDS
;	COMDAT ??Hiterator@?$vector@HV?$allocator@H@std@@@std@@QBE?AV012@H@Z
_TEXT	SEGMENT PARA USE32 PUBLIC 'CODE'
_TEXT	ENDS
;	COMDAT ??0?$allocator@V?$basic_string@DU?$char_traits@D@std@@V?$allocator@D@2@@std@@@std@@QAE@ABV01@@Z
_TEXT	SEGMENT PARA USE32 PUBLIC 'CODE'
_TEXT	ENDS
;	COMDAT ?deallocate@?$allocator@V?$basic_string@DU?$char_traits@D@std@@V?$allocator@D@2@@std@@@std@@QAEXPAV?$basic_string@DU?$char_traits@D@std@@V?$allocator@D@2@@2@I@Z
_TEXT	SEGMENT PARA USE32 PUBLIC 'CODE'
_TEXT	ENDS
;	COMDAT ?allocate@?$allocator@V?$basic_string@DU?$char_traits@D@std@@V?$allocator@D@2@@std@@@std@@QAEPAV?$basic_string@DU?$char_traits@D@std@@V?$allocator@D@2@@2@I@Z
_TEXT	SEGMENT PARA USE32 PUBLIC 'CODE'
_TEXT	ENDS
;	COMDAT ??0iterator@?$basic_string@DU?$char_traits@D@std@@V?$allocator@D@2@@std@@QAE@PAD@Z
_TEXT	SEGMENT PARA USE32 PUBLIC 'CODE'
_TEXT	ENDS
;	COMDAT ?max_size@?$vector@UOneLocalGame@@V?$allocator@UOneLocalGame@@@std@@@std@@QBEIXZ
_TEXT	SEGMENT PARA USE32 PUBLIC 'CODE'
_TEXT	ENDS
;	COMDAT ?_Destroy@?$vector@UOneLocalGame@@V?$allocator@UOneLocalGame@@@std@@@std@@IAEXPAUOneLocalGame@@0@Z
_TEXT	SEGMENT PARA USE32 PUBLIC 'CODE'
_TEXT	ENDS
;	COMDAT ?_Xlen@?$vector@UOneLocalGame@@V?$allocator@UOneLocalGame@@@std@@@std@@IBEXXZ
_TEXT	SEGMENT PARA USE32 PUBLIC 'CODE'
_TEXT	ENDS
;	COMDAT ??0?$allocator@UOneLocalGame@@@std@@QAE@ABV01@@Z
_TEXT	SEGMENT PARA USE32 PUBLIC 'CODE'
_TEXT	ENDS
;	COMDAT ?deallocate@?$allocator@UOneLocalGame@@@std@@QAEXPAUOneLocalGame@@I@Z
_TEXT	SEGMENT PARA USE32 PUBLIC 'CODE'
_TEXT	ENDS
;	COMDAT ?allocate@?$allocator@UOneLocalGame@@@std@@QAEPAUOneLocalGame@@I@Z
_TEXT	SEGMENT PARA USE32 PUBLIC 'CODE'
_TEXT	ENDS
;	COMDAT ?max_size@?$vector@HV?$allocator@H@std@@@std@@QBEIXZ
_TEXT	SEGMENT PARA USE32 PUBLIC 'CODE'
_TEXT	ENDS
;	COMDAT ?_Xlen@?$vector@HV?$allocator@H@std@@@std@@IBEXXZ
_TEXT	SEGMENT PARA USE32 PUBLIC 'CODE'
_TEXT	ENDS
;	COMDAT ??0?$allocator@H@std@@QAE@ABV01@@Z
_TEXT	SEGMENT PARA USE32 PUBLIC 'CODE'
_TEXT	ENDS
;	COMDAT ?allocate@?$allocator@H@std@@QAEPAHI@Z
_TEXT	SEGMENT PARA USE32 PUBLIC 'CODE'
_TEXT	ENDS
;	COMDAT ?max_size@?$vector@V?$basic_string@DU?$char_traits@D@std@@V?$allocator@D@2@@std@@V?$allocator@V?$basic_string@DU?$char_traits@D@std@@V?$allocator@D@2@@std@@@2@@std@@QBEIXZ
_TEXT	SEGMENT PARA USE32 PUBLIC 'CODE'
_TEXT	ENDS
;	COMDAT ?_Destroy@?$vector@V?$basic_string@DU?$char_traits@D@std@@V?$allocator@D@2@@std@@V?$allocator@V?$basic_string@DU?$char_traits@D@std@@V?$allocator@D@2@@std@@@2@@std@@IAEXPAV?$basic_string@DU?$char_traits@D@std@@V?$allocator@D@2@@2@0@Z
_TEXT	SEGMENT PARA USE32 PUBLIC 'CODE'
_TEXT	ENDS
;	COMDAT ?_Insert_n@?$vector@V?$basic_string@DU?$char_traits@D@std@@V?$allocator@D@2@@std@@V?$allocator@V?$basic_string@DU?$char_traits@D@std@@V?$allocator@D@2@@std@@@2@@std@@IAEXViterator@12@IABV?$basic_string@DU?$char_traits@D@std@@V?$allocator@D@2@@2@@Z
_TEXT	SEGMENT PARA USE32 PUBLIC 'CODE'
_TEXT	ENDS
;	COMDAT ?_Xlen@?$vector@V?$basic_string@DU?$char_traits@D@std@@V?$allocator@D@2@@std@@V?$allocator@V?$basic_string@DU?$char_traits@D@std@@V?$allocator@D@2@@std@@@2@@std@@IBEXXZ
_TEXT	SEGMENT PARA USE32 PUBLIC 'CODE'
_TEXT	ENDS
;	COMDAT ??Hiterator@?$vector@V?$basic_string@DU?$char_traits@D@std@@V?$allocator@D@2@@std@@V?$allocator@V?$basic_string@DU?$char_traits@D@std@@V?$allocator@D@2@@std@@@2@@std@@QBE?AV012@H@Z
_TEXT	SEGMENT PARA USE32 PUBLIC 'CODE'
_TEXT	ENDS
;	COMDAT ??Giterator@?$vector@V?$basic_string@DU?$char_traits@D@std@@V?$allocator@D@2@@std@@V?$allocator@V?$basic_string@DU?$char_traits@D@std@@V?$allocator@D@2@@std@@@2@@std@@QBEHABVconst_iterator@12@@Z
_TEXT	SEGMENT PARA USE32 PUBLIC 'CODE'
_TEXT	ENDS
;	COMDAT ??0const_iterator@?$vector@V?$basic_string@DU?$char_traits@D@std@@V?$allocator@D@2@@std@@V?$allocator@V?$basic_string@DU?$char_traits@D@std@@V?$allocator@D@2@@std@@@2@@std@@QAE@PAV?$basic_string@DU?$char_traits@D@std@@V?$allocator@D@2@@2@@Z
_TEXT	SEGMENT PARA USE32 PUBLIC 'CODE'
_TEXT	ENDS
;	COMDAT ??0const_iterator@?$vector@UOneLocalGame@@V?$allocator@UOneLocalGame@@@std@@@std@@QAE@PAUOneLocalGame@@@Z
_TEXT	SEGMENT PARA USE32 PUBLIC 'CODE'
_TEXT	ENDS
;	COMDAT ??Dconst_iterator@?$vector@UOneLocalGame@@V?$allocator@UOneLocalGame@@@std@@@std@@QBEABUOneLocalGame@@XZ
_TEXT	SEGMENT PARA USE32 PUBLIC 'CODE'
_TEXT	ENDS
;	COMDAT ??0iterator@?$vector@U_tagLMCItemInfo@@V?$allocator@U_tagLMCItemInfo@@@std@@@std@@QAE@PAU_tagLMCItemInfo@@@Z
_TEXT	SEGMENT PARA USE32 PUBLIC 'CODE'
_TEXT	ENDS
;	COMDAT ??Yiterator@?$vector@U_tagLMCItemInfo@@V?$allocator@U_tagLMCItemInfo@@@std@@@std@@QAEAAV012@H@Z
_TEXT	SEGMENT PARA USE32 PUBLIC 'CODE'
_TEXT	ENDS
;	COMDAT ??Dconst_iterator@?$vector@U_tagLMCItemInfo@@V?$allocator@U_tagLMCItemInfo@@@std@@@std@@QBEABU_tagLMCItemInfo@@XZ
_TEXT	SEGMENT PARA USE32 PUBLIC 'CODE'
_TEXT	ENDS
;	COMDAT ??0iterator@?$vector@HV?$allocator@H@std@@@std@@QAE@PAH@Z
_TEXT	SEGMENT PARA USE32 PUBLIC 'CODE'
_TEXT	ENDS
;	COMDAT ??Yiterator@?$vector@HV?$allocator@H@std@@@std@@QAEAAV012@H@Z
_TEXT	SEGMENT PARA USE32 PUBLIC 'CODE'
_TEXT	ENDS
;	COMDAT ??Dconst_iterator@?$vector@HV?$allocator@H@std@@@std@@QBEABHXZ
_TEXT	SEGMENT PARA USE32 PUBLIC 'CODE'
_TEXT	ENDS
;	COMDAT ??0length_error@std@@QAE@ABV01@@Z
_TEXT	SEGMENT PARA USE32 PUBLIC 'CODE'
_TEXT	ENDS
;	COMDAT ?max_size@?$allocator@V?$basic_string@DU?$char_traits@D@std@@V?$allocator@D@2@@std@@@std@@QBEIXZ
_TEXT	SEGMENT PARA USE32 PUBLIC 'CODE'
_TEXT	ENDS
;	COMDAT ??0const_iterator@?$basic_string@DU?$char_traits@D@std@@V?$allocator@D@2@@std@@QAE@PBD@Z
_TEXT	SEGMENT PARA USE32 PUBLIC 'CODE'
_TEXT	ENDS
;	COMDAT ??Gconst_iterator@?$basic_string@DU?$char_traits@D@std@@V?$allocator@D@2@@std@@QBEHABV012@@Z
_TEXT	SEGMENT PARA USE32 PUBLIC 'CODE'
_TEXT	ENDS
;	COMDAT ?max_size@?$allocator@UOneLocalGame@@@std@@QBEIXZ
_TEXT	SEGMENT PARA USE32 PUBLIC 'CODE'
_TEXT	ENDS
;	COMDAT ?max_size@?$allocator@H@std@@QBEIXZ
_TEXT	SEGMENT PARA USE32 PUBLIC 'CODE'
_TEXT	ENDS
;	COMDAT ??Yiterator@?$vector@V?$basic_string@DU?$char_traits@D@std@@V?$allocator@D@2@@std@@V?$allocator@V?$basic_string@DU?$char_traits@D@std@@V?$allocator@D@2@@std@@@2@@std@@QAEAAV012@H@Z
_TEXT	SEGMENT PARA USE32 PUBLIC 'CODE'
_TEXT	ENDS
;	COMDAT ??Gconst_iterator@?$vector@V?$basic_string@DU?$char_traits@D@std@@V?$allocator@D@2@@std@@V?$allocator@V?$basic_string@DU?$char_traits@D@std@@V?$allocator@D@2@@std@@@2@@std@@QBEHABV012@@Z
_TEXT	SEGMENT PARA USE32 PUBLIC 'CODE'
_TEXT	ENDS
;	COMDAT ??0const_iterator@?$vector@U_tagLMCItemInfo@@V?$allocator@U_tagLMCItemInfo@@@std@@@std@@QAE@PAU_tagLMCItemInfo@@@Z
_TEXT	SEGMENT PARA USE32 PUBLIC 'CODE'
_TEXT	ENDS
;	COMDAT ??0const_iterator@?$vector@HV?$allocator@H@std@@@std@@QAE@PAH@Z
_TEXT	SEGMENT PARA USE32 PUBLIC 'CODE'
_TEXT	ENDS
;	COMDAT ?Unlock@?$CComCritSecLock@VCComCriticalSection@ATL@@@ATL@@QAEXXZ
_TEXT	SEGMENT PARA USE32 PUBLIC 'CODE'
_TEXT	ENDS
;	COMDAT ??1?$CArray@HAAH@@UAE@XZ
_TEXT	SEGMENT PARA USE32 PUBLIC 'CODE'
_TEXT	ENDS
;	COMDAT ?Serialize@?$CArray@HAAH@@UAEXAAVCArchive@@@Z
_TEXT	SEGMENT PARA USE32 PUBLIC 'CODE'
_TEXT	ENDS
;	COMDAT ?Dump@?$CArray@HAAH@@UBEXAAVCDumpContext@@@Z
_TEXT	SEGMENT PARA USE32 PUBLIC 'CODE'
_TEXT	ENDS
;	COMDAT ?AssertValid@?$CArray@HAAH@@UBEXXZ
_TEXT	SEGMENT PARA USE32 PUBLIC 'CODE'
_TEXT	ENDS
;	COMDAT ??$copy@PAHPAH@std@@YAPAHPAH00@Z
_TEXT	SEGMENT PARA USE32 PUBLIC 'CODE'
_TEXT	ENDS
;	COMDAT ??$_Ucopy@PAH@?$vector@HV?$allocator@H@std@@@std@@IAEPAHPAH00@Z
_TEXT	SEGMENT PARA USE32 PUBLIC 'CODE'
_TEXT	ENDS
;	COMDAT ??$_Destroy_range@HV?$allocator@H@std@@@std@@YAXPAH0AAV?$allocator@H@0@@Z
_TEXT	SEGMENT PARA USE32 PUBLIC 'CODE'
_TEXT	ENDS
;	COMDAT ??$_Uninitialized_fill_n@PAV?$basic_string@DU?$char_traits@D@std@@V?$allocator@D@2@@std@@IV12@V?$allocator@V?$basic_string@DU?$char_traits@D@std@@V?$allocator@D@2@@std@@@2@@std@@YAXPAV?$basic_string@DU?$char_traits@D@std@@V?$allocator@D@2@@0@IABV10@AAV?$allocator@V?$basic_string@DU?$char_traits@D@std@@V?$allocator@D@2@@std@@@0@@Z
_TEXT	SEGMENT PARA USE32 PUBLIC 'CODE'
_TEXT	ENDS
;	COMDAT ??$_Maklocstr@D@std@@YAPADPBDPADABU_Cvtvec@@@Z
_TEXT	SEGMENT PARA USE32 PUBLIC 'CODE'
_TEXT	ENDS
;	COMDAT ??$_Allocate@V?$basic_string@DU?$char_traits@D@std@@V?$allocator@D@2@@std@@@std@@YAPAV?$basic_string@DU?$char_traits@D@std@@V?$allocator@D@2@@0@IPAV10@@Z
_TEXT	SEGMENT PARA USE32 PUBLIC 'CODE'
_TEXT	ENDS
;	COMDAT ??$_Destroy_range@UOneLocalGame@@V?$allocator@UOneLocalGame@@@std@@@std@@YAXPAUOneLocalGame@@0AAV?$allocator@UOneLocalGame@@@0@@Z
_TEXT	SEGMENT PARA USE32 PUBLIC 'CODE'
_TEXT	ENDS
;	COMDAT ??$_Allocate@UOneLocalGame@@@std@@YAPAUOneLocalGame@@IPAU1@@Z
_TEXT	SEGMENT PARA USE32 PUBLIC 'CODE'
_TEXT	ENDS
;	COMDAT ??$_Allocate@H@std@@YAPAHIPAH@Z
_TEXT	SEGMENT PARA USE32 PUBLIC 'CODE'
_TEXT	ENDS
;	COMDAT ??$_Destroy_range@V?$basic_string@DU?$char_traits@D@std@@V?$allocator@D@2@@std@@V?$allocator@V?$basic_string@DU?$char_traits@D@std@@V?$allocator@D@2@@std@@@2@@std@@YAXPAV?$basic_string@DU?$char_traits@D@std@@V?$allocator@D@2@@0@0AAV?$allocator@V?$basic_string@DU?$char_traits@D@std@@V?$allocator@D@2@@std@@@0@@Z
_TEXT	SEGMENT PARA USE32 PUBLIC 'CODE'
_TEXT	ENDS
;	COMDAT ??$_Ucopy@PAV?$basic_string@DU?$char_traits@D@std@@V?$allocator@D@2@@std@@@?$vector@V?$basic_string@DU?$char_traits@D@std@@V?$allocator@D@2@@std@@V?$allocator@V?$basic_string@DU?$char_traits@D@std@@V?$allocator@D@2@@std@@@2@@std@@IAEPAV?$basic_string@DU?$char_traits@D@std@@V?$allocator@D@2@@1@PAV21@00@Z
_TEXT	SEGMENT PARA USE32 PUBLIC 'CODE'
_TEXT	ENDS
;	COMDAT ??$fill@PAV?$basic_string@DU?$char_traits@D@std@@V?$allocator@D@2@@std@@V12@@std@@YAXPAV?$basic_string@DU?$char_traits@D@std@@V?$allocator@D@2@@0@0ABV10@@Z
_TEXT	SEGMENT PARA USE32 PUBLIC 'CODE'
_TEXT	ENDS
;	COMDAT ??$copy_backward@PAV?$basic_string@DU?$char_traits@D@std@@V?$allocator@D@2@@std@@PAV12@@std@@YAPAV?$basic_string@DU?$char_traits@D@std@@V?$allocator@D@2@@0@PAV10@00@Z
_TEXT	SEGMENT PARA USE32 PUBLIC 'CODE'
_TEXT	ENDS
;	COMDAT ??_G?$CArray@HAAH@@UAEPAXI@Z
_TEXT	SEGMENT PARA USE32 PUBLIC 'CODE'
_TEXT	ENDS
;	COMDAT ?SetSize@?$CArray@HAAH@@QAEXHH@Z
_TEXT	SEGMENT PARA USE32 PUBLIC 'CODE'
_TEXT	ENDS
;	COMDAT ??$SerializeElements@H@@YGXAAVCArchive@@PAHH@Z
_TEXT	SEGMENT PARA USE32 PUBLIC 'CODE'
_TEXT	ENDS
;	COMDAT ??$DumpElements@H@@YGXAAVCDumpContext@@PBHH@Z
_TEXT	SEGMENT PARA USE32 PUBLIC 'CODE'
_TEXT	ENDS
;	COMDAT ??$_Copy_opt@PAHPAH@std@@YAPAHPAH00U_Scalar_ptr_iterator_tag@0@@Z
_TEXT	SEGMENT PARA USE32 PUBLIC 'CODE'
_TEXT	ENDS
;	COMDAT ??$_Uninitialized_copy@PAHPAHV?$allocator@H@std@@@std@@YAPAHPAH00AAV?$allocator@H@0@@Z
_TEXT	SEGMENT PARA USE32 PUBLIC 'CODE'
_TEXT	ENDS
;	COMDAT ??$_Destroy_range@HV?$allocator@H@std@@@std@@YAXPAH0AAV?$allocator@H@0@U_Scalar_ptr_iterator_tag@0@@Z
_TEXT	SEGMENT PARA USE32 PUBLIC 'CODE'
_TEXT	ENDS
;	COMDAT ??$_Ptr_cat@PAV?$basic_string@DU?$char_traits@D@std@@V?$allocator@D@2@@std@@PAV12@@std@@YA?AU_Nonscalar_ptr_iterator_tag@0@AAPAV?$basic_string@DU?$char_traits@D@std@@V?$allocator@D@2@@0@0@Z
_TEXT	SEGMENT PARA USE32 PUBLIC 'CODE'
_TEXT	ENDS
;	COMDAT ??$_Uninit_fill_n@PAV?$basic_string@DU?$char_traits@D@std@@V?$allocator@D@2@@std@@IV12@V?$allocator@V?$basic_string@DU?$char_traits@D@std@@V?$allocator@D@2@@std@@@2@@std@@YAXPAV?$basic_string@DU?$char_traits@D@std@@V?$allocator@D@2@@0@IABV10@AAV?$allocator@V?$basic_string@DU?$char_traits@D@std@@V?$allocator@D@2@@std@@@0@U_Nonscalar_ptr_iterator_tag@0@@Z
_TEXT	SEGMENT PARA USE32 PUBLIC 'CODE'
_TEXT	ENDS
;	COMDAT ??$_Ptr_cat@PAUOneLocalGame@@PAU1@@std@@YA?AU_Nonscalar_ptr_iterator_tag@0@AAPAUOneLocalGame@@0@Z
_TEXT	SEGMENT PARA USE32 PUBLIC 'CODE'
_TEXT	ENDS
;	COMDAT ??$_Destroy_range@UOneLocalGame@@V?$allocator@UOneLocalGame@@@std@@@std@@YAXPAUOneLocalGame@@0AAV?$allocator@UOneLocalGame@@@0@U_Nonscalar_ptr_iterator_tag@0@@Z
_TEXT	SEGMENT PARA USE32 PUBLIC 'CODE'
_TEXT	ENDS
;	COMDAT ??$_Destroy_range@V?$basic_string@DU?$char_traits@D@std@@V?$allocator@D@2@@std@@V?$allocator@V?$basic_string@DU?$char_traits@D@std@@V?$allocator@D@2@@std@@@2@@std@@YAXPAV?$basic_string@DU?$char_traits@D@std@@V?$allocator@D@2@@0@0AAV?$allocator@V?$basic_string@DU?$char_traits@D@std@@V?$allocator@D@2@@std@@@0@U_Nonscalar_ptr_iterator_tag@0@@Z
_TEXT	SEGMENT PARA USE32 PUBLIC 'CODE'
_TEXT	ENDS
;	COMDAT ??$_Uninitialized_copy@PAV?$basic_string@DU?$char_traits@D@std@@V?$allocator@D@2@@std@@PAV12@V?$allocator@V?$basic_string@DU?$char_traits@D@std@@V?$allocator@D@2@@std@@@2@@std@@YAPAV?$basic_string@DU?$char_traits@D@std@@V?$allocator@D@2@@0@PAV10@00AAV?$allocator@V?$basic_string@DU?$char_traits@D@std@@V?$allocator@D@2@@std@@@0@@Z
_TEXT	SEGMENT PARA USE32 PUBLIC 'CODE'
_TEXT	ENDS
;	COMDAT ??$_Copy_backward_opt@PAV?$basic_string@DU?$char_traits@D@std@@V?$allocator@D@2@@std@@PAV12@@std@@YAPAV?$basic_string@DU?$char_traits@D@std@@V?$allocator@D@2@@0@PAV10@00U_Nonscalar_ptr_iterator_tag@0@@Z
_TEXT	SEGMENT PARA USE32 PUBLIC 'CODE'
_TEXT	ENDS
;	COMDAT ?construct@?$allocator@V?$basic_string@DU?$char_traits@D@std@@V?$allocator@D@2@@std@@@std@@QAEXPAV?$basic_string@DU?$char_traits@D@std@@V?$allocator@D@2@@2@ABV32@@Z
_TEXT	SEGMENT PARA USE32 PUBLIC 'CODE'
_TEXT	ENDS
;	COMDAT ?destroy@?$allocator@V?$basic_string@DU?$char_traits@D@std@@V?$allocator@D@2@@std@@@std@@QAEXPAV?$basic_string@DU?$char_traits@D@std@@V?$allocator@D@2@@2@@Z
_TEXT	SEGMENT PARA USE32 PUBLIC 'CODE'
_TEXT	ENDS
;	COMDAT ?destroy@?$allocator@UOneLocalGame@@@std@@QAEXPAUOneLocalGame@@@Z
_TEXT	SEGMENT PARA USE32 PUBLIC 'CODE'
_TEXT	ENDS
;	COMDAT ??$_Uninit_copy@HH@std@@YAPAHPAH00AAV?$allocator@H@0@U_Scalar_ptr_iterator_tag@0@@Z
_TEXT	SEGMENT PARA USE32 PUBLIC 'CODE'
_TEXT	ENDS
;	COMDAT ??$_Uninit_copy@PAV?$basic_string@DU?$char_traits@D@std@@V?$allocator@D@2@@std@@PAV12@V?$allocator@V?$basic_string@DU?$char_traits@D@std@@V?$allocator@D@2@@std@@@2@@std@@YAPAV?$basic_string@DU?$char_traits@D@std@@V?$allocator@D@2@@0@PAV10@00AAV?$allocator@V?$basic_string@DU?$char_traits@D@std@@V?$allocator@D@2@@std@@@0@U_Nonscalar_ptr_iterator_tag@0@@Z
_TEXT	SEGMENT PARA USE32 PUBLIC 'CODE'
_TEXT	ENDS
;	COMDAT ??$_Construct@V?$basic_string@DU?$char_traits@D@std@@V?$allocator@D@2@@std@@V12@@std@@YAXPAV?$basic_string@DU?$char_traits@D@std@@V?$allocator@D@2@@0@ABV10@@Z
_TEXT	SEGMENT PARA USE32 PUBLIC 'CODE'
_TEXT	ENDS
;	COMDAT ??$_Destroy@V?$basic_string@DU?$char_traits@D@std@@V?$allocator@D@2@@std@@@std@@YAXPAV?$basic_string@DU?$char_traits@D@std@@V?$allocator@D@2@@0@@Z
_TEXT	SEGMENT PARA USE32 PUBLIC 'CODE'
_TEXT	ENDS
;	COMDAT ??$_Destroy@UOneLocalGame@@@std@@YAXPAUOneLocalGame@@@Z
_TEXT	SEGMENT PARA USE32 PUBLIC 'CODE'
_TEXT	ENDS
;	COMDAT ??_G?$basic_string@DU?$char_traits@D@std@@V?$allocator@D@2@@std@@QAEPAXI@Z
_TEXT	SEGMENT PARA USE32 PUBLIC 'CODE'
_TEXT	ENDS
;	COMDAT ??_GOneLocalGame@@QAEPAXI@Z
_TEXT	SEGMENT PARA USE32 PUBLIC 'CODE'
_TEXT	ENDS
;	COMDAT ??_EPlayedGameWnd@@WBIA@AEPAXI@Z
_TEXT	SEGMENT PARA USE32 PUBLIC 'CODE'
_TEXT	ENDS
;	COMDAT ??_R3?$numpunct@_W@std@@8
rdata$r	SEGMENT DWORD USE32 PUBLIC 'CONST'
rdata$r	ENDS
;	COMDAT ??_R3?$numpunct@D@std@@8
rdata$r	SEGMENT DWORD USE32 PUBLIC 'CONST'
rdata$r	ENDS
;	COMDAT ??_R3IData@@8
rdata$r	SEGMENT DWORD USE32 PUBLIC 'CONST'
rdata$r	ENDS
;	COMDAT ??_R3PlayedGameWnd@@8
rdata$r	SEGMENT DWORD USE32 PUBLIC 'CONST'
rdata$r	ENDS
;	COMDAT ??_R3BCMenuMemDC@@8
rdata$r	SEGMENT DWORD USE32 PUBLIC 'CONST'
rdata$r	ENDS
;	COMDAT ??_R3CGdiPlusBitmap@@8
rdata$r	SEGMENT DWORD USE32 PUBLIC 'CONST'
rdata$r	ENDS
;	COMDAT ??_R3IQQItemCountChangeObserver@@8
rdata$r	SEGMENT DWORD USE32 PUBLIC 'CONST'
rdata$r	ENDS
;	COMDAT ??_R3?$CArray@HAAH@@8
rdata$r	SEGMENT DWORD USE32 PUBLIC 'CONST'
rdata$r	ENDS
;	COMDAT ??_R2?$numpunct@_W@std@@8
rdata$r	SEGMENT DWORD USE32 PUBLIC 'CONST'
rdata$r	ENDS
;	COMDAT ??_R2?$numpunct@D@std@@8
rdata$r	SEGMENT DWORD USE32 PUBLIC 'CONST'
rdata$r	ENDS
;	COMDAT ??_R2IData@@8
rdata$r	SEGMENT DWORD USE32 PUBLIC 'CONST'
rdata$r	ENDS
;	COMDAT ??_R2PlayedGameWnd@@8
rdata$r	SEGMENT DWORD USE32 PUBLIC 'CONST'
rdata$r	ENDS
;	COMDAT ??_R2BCMenuMemDC@@8
rdata$r	SEGMENT DWORD USE32 PUBLIC 'CONST'
rdata$r	ENDS
;	COMDAT ??_R2CGdiPlusBitmap@@8
rdata$r	SEGMENT DWORD USE32 PUBLIC 'CONST'
rdata$r	ENDS
;	COMDAT ??_R2IQQItemCountChangeObserver@@8
rdata$r	SEGMENT DWORD USE32 PUBLIC 'CONST'
rdata$r	ENDS
;	COMDAT ??_R2?$CArray@HAAH@@8
rdata$r	SEGMENT DWORD USE32 PUBLIC 'CONST'
rdata$r	ENDS
;	COMDAT ??_R1A@?0A@A@?$numpunct@_W@std@@8
rdata$r	SEGMENT DWORD USE32 PUBLIC 'CONST'
rdata$r	ENDS
;	COMDAT ??_R1A@?0A@A@facet@locale@std@@8
rdata$r	SEGMENT DWORD USE32 PUBLIC 'CONST'
rdata$r	ENDS
;	COMDAT ??_R0?AVfacet@locale@std@@@8
_DATA	SEGMENT DWORD USE32 PUBLIC 'DATA'
_DATA	ENDS
;	COMDAT ??_R1A@?0A@A@?$numpunct@D@std@@8
rdata$r	SEGMENT DWORD USE32 PUBLIC 'CONST'
rdata$r	ENDS
;	COMDAT ??_R1A@?0A@A@IData@@8
rdata$r	SEGMENT DWORD USE32 PUBLIC 'CONST'
rdata$r	ENDS
;	COMDAT ??_R1BIA@?0A@A@IMessageObserver@@8
rdata$r	SEGMENT DWORD USE32 PUBLIC 'CONST'
rdata$r	ENDS
;	COMDAT ??_R1BIA@?0A@A@IQQItemCountChangeObserver@@8
rdata$r	SEGMENT DWORD USE32 PUBLIC 'CONST'
rdata$r	ENDS
;	COMDAT ??_R1A@?0A@A@CCmdTarget@@8
rdata$r	SEGMENT DWORD USE32 PUBLIC 'CONST'
rdata$r	ENDS
;	COMDAT ??_R0?AVCCmdTarget@@@8
_DATA	SEGMENT DWORD USE32 PUBLIC 'DATA'
_DATA	ENDS
;	COMDAT ??_R1A@?0A@A@CWnd@@8
rdata$r	SEGMENT DWORD USE32 PUBLIC 'CONST'
rdata$r	ENDS
;	COMDAT ??_R0?AVCWnd@@@8
_DATA	SEGMENT DWORD USE32 PUBLIC 'DATA'
_DATA	ENDS
;	COMDAT ??_R1A@?0A@A@CLocalMusicCoverList@@8
rdata$r	SEGMENT DWORD USE32 PUBLIC 'CONST'
rdata$r	ENDS
;	COMDAT ??_R1A@?0A@A@PlayedGameWnd@@8
rdata$r	SEGMENT DWORD USE32 PUBLIC 'CONST'
rdata$r	ENDS
;	COMDAT ??_R1A@?0A@A@CDC@@8
rdata$r	SEGMENT DWORD USE32 PUBLIC 'CONST'
rdata$r	ENDS
;	COMDAT ??_R0?AVCDC@@@8
_DATA	SEGMENT DWORD USE32 PUBLIC 'DATA'
_DATA	ENDS
;	COMDAT ??_R1A@?0A@A@BCMenuMemDC@@8
rdata$r	SEGMENT DWORD USE32 PUBLIC 'CONST'
rdata$r	ENDS
;	COMDAT ??_R1A@?0A@A@CGdiPlusBitmap@@8
rdata$r	SEGMENT DWORD USE32 PUBLIC 'CONST'
rdata$r	ENDS
;	COMDAT ??_R1A@?0A@A@IMessageObserver@@8
rdata$r	SEGMENT DWORD USE32 PUBLIC 'CONST'
rdata$r	ENDS
;	COMDAT ??_R1A@?0A@A@IQQItemCountChangeObserver@@8
rdata$r	SEGMENT DWORD USE32 PUBLIC 'CONST'
rdata$r	ENDS
;	COMDAT ??_R1A@?0A@A@CObject@@8
rdata$r	SEGMENT DWORD USE32 PUBLIC 'CONST'
rdata$r	ENDS
;	COMDAT ??_R0?AVCObject@@@8
_DATA	SEGMENT DWORD USE32 PUBLIC 'DATA'
_DATA	ENDS
;	COMDAT ??_R1A@?0A@A@?$CArray@HAAH@@8
rdata$r	SEGMENT DWORD USE32 PUBLIC 'CONST'
rdata$r	ENDS
;	COMDAT ??_R0?AV?$numpunct@_W@std@@@8
_DATA	SEGMENT DWORD USE32 PUBLIC 'DATA'
_DATA	ENDS
;	COMDAT ??_R0?AV?$numpunct@D@std@@@8
_DATA	SEGMENT DWORD USE32 PUBLIC 'DATA'
_DATA	ENDS
;	COMDAT ??_R0?AVIData@@@8
_DATA	SEGMENT DWORD USE32 PUBLIC 'DATA'
_DATA	ENDS
;	COMDAT ??_R0?AVIMessageObserver@@@8
_DATA	SEGMENT DWORD USE32 PUBLIC 'DATA'
_DATA	ENDS
;	COMDAT ??_R0?AVCLocalMusicCoverList@@@8
_DATA	SEGMENT DWORD USE32 PUBLIC 'DATA'
_DATA	ENDS
;	COMDAT ??_R0?AVPlayedGameWnd@@@8
_DATA	SEGMENT DWORD USE32 PUBLIC 'DATA'
_DATA	ENDS
;	COMDAT ??_R0?AVBCMenuMemDC@@@8
_DATA	SEGMENT DWORD USE32 PUBLIC 'DATA'
_DATA	ENDS
;	COMDAT ??_R0?AVCGdiPlusBitmap@@@8
_DATA	SEGMENT DWORD USE32 PUBLIC 'DATA'
_DATA	ENDS
;	COMDAT ??_R0?AVIQQItemCountChangeObserver@@@8
_DATA	SEGMENT DWORD USE32 PUBLIC 'DATA'
_DATA	ENDS
;	COMDAT ??_R0?AV?$CArray@HAAH@@@8
_DATA	SEGMENT DWORD USE32 PUBLIC 'DATA'
_DATA	ENDS
;	COMDAT ??0?$allocator@_W@std@@QAE@XZ
_TEXT	SEGMENT PARA USE32 PUBLIC 'CODE'
_TEXT	ENDS
;	COMDAT ??_G?$numpunct@_W@std@@MAEPAXI@Z
_TEXT	SEGMENT PARA USE32 PUBLIC 'CODE'
_TEXT	ENDS
;	COMDAT ??_R4?$numpunct@_W@std@@6B@
rdata$r	SEGMENT DWORD USE32 PUBLIC 'CONST'
rdata$r	ENDS
;	COMDAT ??_G?$numpunct@D@std@@MAEPAXI@Z
_TEXT	SEGMENT PARA USE32 PUBLIC 'CODE'
_TEXT	ENDS
;	COMDAT ??_R4?$numpunct@D@std@@6B@
rdata$r	SEGMENT DWORD USE32 PUBLIC 'CONST'
rdata$r	ENDS
;	COMDAT ??_R4IData@@6B@
rdata$r	SEGMENT DWORD USE32 PUBLIC 'CONST'
rdata$r	ENDS
;	COMDAT ??_R4PlayedGameWnd@@6BIQQItemCountChangeObserver@@@
rdata$r	SEGMENT DWORD USE32 PUBLIC 'CONST'
rdata$r	ENDS
;	COMDAT ??_R4PlayedGameWnd@@6BCLocalMusicCoverList@@@
rdata$r	SEGMENT DWORD USE32 PUBLIC 'CONST'
rdata$r	ENDS
;	COMDAT ??_R4BCMenuMemDC@@6B@
rdata$r	SEGMENT DWORD USE32 PUBLIC 'CONST'
rdata$r	ENDS
;	COMDAT ??_R4CGdiPlusBitmap@@6B@
rdata$r	SEGMENT DWORD USE32 PUBLIC 'CONST'
rdata$r	ENDS
;	COMDAT ??_R4IQQItemCountChangeObserver@@6B@
rdata$r	SEGMENT DWORD USE32 PUBLIC 'CONST'
rdata$r	ENDS
;	COMDAT ??_R4?$CArray@HAAH@@6B@
rdata$r	SEGMENT DWORD USE32 PUBLIC 'CONST'
rdata$r	ENDS
;	COMDAT ??3@YAXPAX0@Z
_TEXT	SEGMENT PARA USE32 PUBLIC 'CODE'
_TEXT	ENDS
;	COMDAT ??2@YAPAXIPAX@Z
_TEXT	SEGMENT PARA USE32 PUBLIC 'CODE'
_TEXT	ENDS
;	COMDAT ??_C@_0EN@CBMLGOH@D?3?2Program?5Files?5?$CIx86?$CJ?2Microsoft@
CONST	SEGMENT DWORD USE32 PUBLIC 'CONST'
CONST	ENDS
;	COMDAT ?_Ptr_cat@std@@YA?AU_Scalar_ptr_iterator_tag@1@PAH0@Z
_TEXT	SEGMENT PARA USE32 PUBLIC 'CODE'
_TEXT	ENDS
;	COMDAT ??_7?$CArray@HAAH@@6B@
CONST	SEGMENT DWORD USE32 PUBLIC 'CONST'
CONST	ENDS
;	COMDAT ?_Psave@?$_Facetptr@V?$numpunct@_W@std@@@std@@2PBVfacet@locale@2@B
_DATA	SEGMENT DWORD USE32 PUBLIC 'DATA'
_DATA	ENDS
;	COMDAT ?_Psave@?$_Facetptr@V?$numpunct@D@std@@@std@@2PBVfacet@locale@2@B
_DATA	SEGMENT DWORD USE32 PUBLIC 'DATA'
_DATA	ENDS
;	COMDAT ?Unlock@CComCriticalSection@ATL@@QAEJXZ
_TEXT	SEGMENT PARA USE32 PUBLIC 'CODE'
_TEXT	ENDS
;	COMDAT ??_C@_0FG@LDNDNCJM@D?3?2Program?5Files?5?$CIx86?$CJ?2Microsoft@
CONST	SEGMENT DWORD USE32 PUBLIC 'CONST'
CONST	ENDS
;	COMDAT ??_C@_09HIEJFN@m_bLocked?$AA@
CONST	SEGMENT DWORD USE32 PUBLIC 'CONST'
CONST	ENDS
;	COMDAT ?_Psave@?$_Facetptr@V?$ctype@_W@std@@@std@@2PBVfacet@locale@2@B
_DATA	SEGMENT DWORD USE32 PUBLIC 'DATA'
_DATA	ENDS
;	COMDAT ?_Psave@?$_Facetptr@V?$ctype@D@std@@@std@@2PBVfacet@locale@2@B
_DATA	SEGMENT DWORD USE32 PUBLIC 'DATA'
_DATA	ENDS
;	COMDAT ??_7length_error@std@@6B@
CONST	SEGMENT DWORD USE32 PUBLIC 'CONST'
CONST	ENDS
;	COMDAT ??_R4length_error@std@@6B@
rdata$r	SEGMENT DWORD USE32 PUBLIC 'CONST'
rdata$r	ENDS
;	COMDAT ??_R3length_error@std@@8
rdata$r	SEGMENT DWORD USE32 PUBLIC 'CONST'
rdata$r	ENDS
;	COMDAT ??_R2length_error@std@@8
rdata$r	SEGMENT DWORD USE32 PUBLIC 'CONST'
rdata$r	ENDS
;	COMDAT ??_R1A@?0A@A@length_error@std@@8
rdata$r	SEGMENT DWORD USE32 PUBLIC 'CONST'
rdata$r	ENDS
;	COMDAT ??_R1A@?0A@A@logic_error@std@@8
rdata$r	SEGMENT DWORD USE32 PUBLIC 'CONST'
rdata$r	ENDS
;	COMDAT ??_R0?AVlogic_error@std@@@8
_DATA	SEGMENT DWORD USE32 PUBLIC 'DATA'
_DATA	ENDS
;	COMDAT ??_R1A@?0A@A@exception@@8
rdata$r	SEGMENT DWORD USE32 PUBLIC 'CONST'
rdata$r	ENDS
;	COMDAT ??_R0?AVexception@@@8
_DATA	SEGMENT DWORD USE32 PUBLIC 'DATA'
_DATA	ENDS
;	COMDAT ??_Glength_error@std@@UAEPAXI@Z
_TEXT	SEGMENT PARA USE32 PUBLIC 'CODE'
_TEXT	ENDS
;	COMDAT ?what@logic_error@std@@UBEPBDXZ
_TEXT	SEGMENT PARA USE32 PUBLIC 'CODE'
_TEXT	ENDS
;	COMDAT ??1logic_error@std@@UAE@XZ
_TEXT	SEGMENT PARA USE32 PUBLIC 'CODE'
_TEXT	ENDS
;	COMDAT ??_7logic_error@std@@6B@
CONST	SEGMENT DWORD USE32 PUBLIC 'CONST'
CONST	ENDS
;	COMDAT ??_R4logic_error@std@@6B@
rdata$r	SEGMENT DWORD USE32 PUBLIC 'CONST'
rdata$r	ENDS
;	COMDAT ??_R3logic_error@std@@8
rdata$r	SEGMENT DWORD USE32 PUBLIC 'CONST'
rdata$r	ENDS
;	COMDAT ??_R2logic_error@std@@8
rdata$r	SEGMENT DWORD USE32 PUBLIC 'CONST'
rdata$r	ENDS
;	COMDAT ??_Glogic_error@std@@UAEPAXI@Z
_TEXT	SEGMENT PARA USE32 PUBLIC 'CODE'
_TEXT	ENDS
;	COMDAT ??0logic_error@std@@QAE@ABV01@@Z
_TEXT	SEGMENT PARA USE32 PUBLIC 'CODE'
_TEXT	ENDS
;	COMDAT __CTA3?AVlength_error@std@@
xdata$x	SEGMENT DWORD USE32 PUBLIC 'CONST'
xdata$x	ENDS
;	COMDAT ??1length_error@std@@UAE@XZ
_TEXT	SEGMENT PARA USE32 PUBLIC 'CODE'
_TEXT	ENDS
;	COMDAT __CT??_R0?AVexception@@@8??0exception@@QAE@ABV0@@Z12
xdata$x	SEGMENT DWORD USE32 PUBLIC 'CONST'
xdata$x	ENDS
;	COMDAT __CT??_R0?AVlogic_error@std@@@8??0logic_error@std@@QAE@ABV01@@Z40
xdata$x	SEGMENT DWORD USE32 PUBLIC 'CONST'
xdata$x	ENDS
;	COMDAT __CT??_R0?AVlength_error@std@@@8??0length_error@std@@QAE@ABV01@@Z40
xdata$x	SEGMENT DWORD USE32 PUBLIC 'CONST'
xdata$x	ENDS
;	COMDAT ??_R0?AVlength_error@std@@@8
_DATA	SEGMENT DWORD USE32 PUBLIC 'DATA'
_DATA	ENDS
;	COMDAT __TI3?AVlength_error@std@@
xdata$x	SEGMENT DWORD USE32 PUBLIC 'CONST'
xdata$x	ENDS
;	COMDAT ??0length_error@std@@QAE@ABV?$basic_string@DU?$char_traits@D@std@@V?$allocator@D@2@@1@@Z
_TEXT	SEGMENT PARA USE32 PUBLIC 'CODE'
_TEXT	ENDS
;	COMDAT ??0logic_error@std@@QAE@ABV?$basic_string@DU?$char_traits@D@std@@V?$allocator@D@2@@1@@Z
_TEXT	SEGMENT PARA USE32 PUBLIC 'CODE'
_TEXT	ENDS
;	COMDAT ??$_Maklocchr@_W@std@@YA_WDPA_WABU_Cvtvec@@@Z
_TEXT	SEGMENT PARA USE32 PUBLIC 'CODE'
_TEXT	ENDS
;	COMDAT ??$_DebugHeapDelete@X@std@@YAXPAX@Z
_TEXT	SEGMENT PARA USE32 PUBLIC 'CODE'
_TEXT	ENDS
;	COMDAT ??$_Maklocstr@_W@std@@YAPA_WPBDPA_WABU_Cvtvec@@@Z
_TEXT	SEGMENT PARA USE32 PUBLIC 'CODE'
_TEXT	ENDS
;	COMDAT ??$_Maklocchr@D@std@@YADDPADABU_Cvtvec@@@Z
_TEXT	SEGMENT PARA USE32 PUBLIC 'CODE'
_TEXT	ENDS
;	COMDAT ??_C@_04LOAJBDKD@true?$AA@
CONST	SEGMENT DWORD USE32 PUBLIC 'CONST'
CONST	ENDS
;	COMDAT ??_C@_05LAPONLG@false?$AA@
CONST	SEGMENT DWORD USE32 PUBLIC 'CONST'
CONST	ENDS
;	COMDAT _wmemcpy
_TEXT	SEGMENT PARA USE32 PUBLIC 'CODE'
_TEXT	ENDS
;	COMDAT ?max_size@?$allocator@_W@std@@QBEIXZ
_TEXT	SEGMENT PARA USE32 PUBLIC 'CODE'
_TEXT	ENDS
;	COMDAT ?allocate@?$allocator@_W@std@@QAEPA_WI@Z
_TEXT	SEGMENT PARA USE32 PUBLIC 'CODE'
_TEXT	ENDS
;	COMDAT ??$_Allocate@_W@std@@YAPA_WIPA_W@Z
_TEXT	SEGMENT PARA USE32 PUBLIC 'CODE'
_TEXT	ENDS
;	COMDAT ??_C@_0N@ILOMLJGA@nLength?5?$DO?$DN?50?$AA@
CONST	SEGMENT DWORD USE32 PUBLIC 'CONST'
CONST	ENDS
;	COMDAT ??_C@_0CD@EEFFJEGJ@nLength?5?$DM?$DN?5GetData?$CI?$CJ?9?$DOnAllocLeng@
CONST	SEGMENT DWORD USE32 PUBLIC 'CONST'
CONST	ENDS
;	COMDAT ?data@CStringData@ATL@@QAEPAXXZ
_TEXT	SEGMENT PARA USE32 PUBLIC 'CODE'
_TEXT	ENDS
;	COMDAT ??_C@_0FJ@DMHPDOJC@D?3?2Program?5Files?5?$CIx86?$CJ?2Microsoft@
CONST	SEGMENT DWORD USE32 PUBLIC 'CONST'
CONST	ENDS
;	COMDAT ??_C@_0BA@GOIMFHNK@pStringMgr?5?$CB?$DN?50?$AA@
CONST	SEGMENT DWORD USE32 PUBLIC 'CONST'
CONST	ENDS
;	COMDAT ??_C@_01GFHCPBMG@C?$AA@
CONST	SEGMENT DWORD USE32 PUBLIC 'CONST'
CONST	ENDS
;	COMDAT ?max_size@?$allocator@D@std@@QBEIXZ
_TEXT	SEGMENT PARA USE32 PUBLIC 'CODE'
_TEXT	ENDS
;	COMDAT ?allocate@?$allocator@D@std@@QAEPADI@Z
_TEXT	SEGMENT PARA USE32 PUBLIC 'CODE'
_TEXT	ENDS
;	COMDAT ??$_Allocate@D@std@@YAPADIPAD@Z
_TEXT	SEGMENT PARA USE32 PUBLIC 'CODE'
_TEXT	ENDS
;	COMDAT ?deallocate@?$allocator@D@std@@QAEXPADI@Z
_TEXT	SEGMENT PARA USE32 PUBLIC 'CODE'
_TEXT	ENDS
;	COMDAT ??_C@_0BA@GNIEOBOF@nNewLength?5?$DO?$DN?50?$AA@
CONST	SEGMENT DWORD USE32 PUBLIC 'CONST'
CONST	ENDS
;	COMDAT ?Format@?$ChTraitsCRT@D@ATL@@SAHPADPBD0@Z
_TEXT	SEGMENT PARA USE32 PUBLIC 'CODE'
_TEXT	ENDS
;	COMDAT ?IsShared@CStringData@ATL@@QBE_NXZ
_TEXT	SEGMENT PARA USE32 PUBLIC 'CODE'
_TEXT	ENDS
;	COMDAT ?Release@CStringData@ATL@@QAEXXZ
_TEXT	SEGMENT PARA USE32 PUBLIC 'CODE'
_TEXT	ENDS
;	COMDAT ??_C@_0L@OIIMFBNE@nRefs?5?$CB?$DN?50?$AA@
CONST	SEGMENT DWORD USE32 PUBLIC 'CONST'
CONST	ENDS
;	COMDAT ??_C@_0CB@GFHAPKDK@pOldData?9?$DOnAllocLength?5?$DM?5nLength@
CONST	SEGMENT DWORD USE32 PUBLIC 'CONST'
CONST	ENDS
;	COMDAT ?GetFormattedLength@?$ChTraitsCRT@D@ATL@@SAHPBDPAD@Z
_TEXT	SEGMENT PARA USE32 PUBLIC 'CODE'
_TEXT	ENDS
;	COMDAT ?AtlThrow@ATL@@YGXJ@Z
_TEXT	SEGMENT PARA USE32 PUBLIC 'CODE'
_TEXT	ENDS
;	COMDAT ??RCTraceFileAndLineInfo@ATL@@QBAXKIPBDZZ
_TEXT	SEGMENT PARA USE32 PUBLIC 'CODE'
_TEXT	ENDS
;	COMDAT ?TraceV@CTrace@ATL@@QBAXPBDHKI0PAD@Z
_TEXT	SEGMENT PARA USE32 PUBLIC 'CODE'
_TEXT	ENDS
;	COMDAT ??0CTraceFileAndLineInfo@ATL@@QAE@PBDH@Z
_TEXT	SEGMENT PARA USE32 PUBLIC 'CODE'
_TEXT	ENDS
;	COMDAT ??_C@_0FI@NHHJANPC@D?3?2Program?5Files?5?$CIx86?$CJ?2Microsoft@
CONST	SEGMENT DWORD USE32 PUBLIC 'CONST'
CONST	ENDS
;	COMDAT ??_C@_0BF@IAAKIJDJ@AtlThrow?3?5hr?5?$DN?50x?$CFx?6?$AA@
CONST	SEGMENT DWORD USE32 PUBLIC 'CONST'
CONST	ENDS
;	COMDAT ??BCTraceCategory@ATL@@QBEKXZ
_TEXT	SEGMENT PARA USE32 PUBLIC 'CODE'
_TEXT	ENDS
;	COMDAT ?_Peek@?$istreambuf_iterator@_WU?$char_traits@_W@std@@@std@@AAE_WXZ
_TEXT	SEGMENT PARA USE32 PUBLIC 'CODE'
_TEXT	ENDS
;	COMDAT ?_Peek@?$istreambuf_iterator@DU?$char_traits@D@std@@@std@@AAEDXZ
_TEXT	SEGMENT PARA USE32 PUBLIC 'CODE'
_TEXT	ENDS
;	COMDAT ??$use_facet@V?$ctype@_W@std@@@std@@YAABV?$ctype@_W@0@ABVlocale@0@@Z
_TEXT	SEGMENT PARA USE32 PUBLIC 'CODE'
_TEXT	ENDS
;	COMDAT ??_S?$ctype@_W@std@@6B@
CONST	SEGMENT DWORD USE32 PUBLIC 'CONST'
CONST	ENDS
;	COMDAT ??_R4?$ctype@_W@std@@6B@
rdata$r	SEGMENT DWORD USE32 PUBLIC 'CONST'
rdata$r	ENDS
;	COMDAT ??_R0?AV?$ctype@_W@std@@@8
_DATA	SEGMENT DWORD USE32 PUBLIC 'DATA'
_DATA	ENDS
;	COMDAT ??_R3?$ctype@_W@std@@8
rdata$r	SEGMENT DWORD USE32 PUBLIC 'CONST'
rdata$r	ENDS
;	COMDAT ??_R2?$ctype@_W@std@@8
rdata$r	SEGMENT DWORD USE32 PUBLIC 'CONST'
rdata$r	ENDS
;	COMDAT ??_R1A@?0A@A@?$ctype@_W@std@@8
rdata$r	SEGMENT DWORD USE32 PUBLIC 'CONST'
rdata$r	ENDS
;	COMDAT ??_R1A@?0A@A@ctype_base@std@@8
rdata$r	SEGMENT DWORD USE32 PUBLIC 'CONST'
rdata$r	ENDS
;	COMDAT ??_R0?AUctype_base@std@@@8
_DATA	SEGMENT DWORD USE32 PUBLIC 'DATA'
_DATA	ENDS
;	COMDAT ??_G?$ctype@_W@std@@MAEPAXI@Z
_TEXT	SEGMENT PARA USE32 PUBLIC 'CODE'
_TEXT	ENDS
;	COMDAT ??_C@_08EPJLHIJG@bad?5cast?$AA@
CONST	SEGMENT DWORD USE32 PUBLIC 'CONST'
CONST	ENDS
;	COMDAT __TI2?AVbad_cast@@
xdata$x	SEGMENT DWORD USE32 PUBLIC 'CONST'
xdata$x	ENDS
;	COMDAT __CTA2?AVbad_cast@@
xdata$x	SEGMENT DWORD USE32 PUBLIC 'CONST'
xdata$x	ENDS
;	COMDAT __CT??_R0?AVbad_cast@@@8??0bad_cast@@QAE@ABV0@@Z12
xdata$x	SEGMENT DWORD USE32 PUBLIC 'CONST'
xdata$x	ENDS
;	COMDAT ??_R0?AVbad_cast@@@8
_DATA	SEGMENT DWORD USE32 PUBLIC 'DATA'
_DATA	ENDS
;	COMDAT ??$_DebugHeapDelete@Vfacet@locale@std@@@std@@YAXPAVfacet@locale@0@@Z
_TEXT	SEGMENT PARA USE32 PUBLIC 'CODE'
_TEXT	ENDS
;	COMDAT ??$use_facet@V?$ctype@D@std@@@std@@YAABV?$ctype@D@0@ABVlocale@0@@Z
_TEXT	SEGMENT PARA USE32 PUBLIC 'CODE'
_TEXT	ENDS
;	COMDAT ??_S?$ctype@D@std@@6B@
CONST	SEGMENT DWORD USE32 PUBLIC 'CONST'
CONST	ENDS
;	COMDAT ??_R4?$ctype@D@std@@6B@
rdata$r	SEGMENT DWORD USE32 PUBLIC 'CONST'
rdata$r	ENDS
;	COMDAT ??_R0?AV?$ctype@D@std@@@8
_DATA	SEGMENT DWORD USE32 PUBLIC 'DATA'
_DATA	ENDS
;	COMDAT ??_R3?$ctype@D@std@@8
rdata$r	SEGMENT DWORD USE32 PUBLIC 'CONST'
rdata$r	ENDS
;	COMDAT ??_R2?$ctype@D@std@@8
rdata$r	SEGMENT DWORD USE32 PUBLIC 'CONST'
rdata$r	ENDS
;	COMDAT ??_R1A@?0A@A@?$ctype@D@std@@8
rdata$r	SEGMENT DWORD USE32 PUBLIC 'CONST'
rdata$r	ENDS
;	COMDAT ??_G?$ctype@D@std@@MAEPAXI@Z
_TEXT	SEGMENT PARA USE32 PUBLIC 'CODE'
_TEXT	ENDS
;	COMDAT ??_S?$numpunct@_W@std@@6B@
CONST	SEGMENT DWORD USE32 PUBLIC 'CONST'
CONST	ENDS
;	COMDAT ??_S?$numpunct@D@std@@6B@
CONST	SEGMENT DWORD USE32 PUBLIC 'CONST'
CONST	ENDS
;	COMDAT _wmemmove
_TEXT	SEGMENT PARA USE32 PUBLIC 'CODE'
_TEXT	ENDS
;	COMDAT ?deallocate@?$allocator@_W@std@@QAEXPA_WI@Z
_TEXT	SEGMENT PARA USE32 PUBLIC 'CODE'
_TEXT	ENDS
;	COMDAT ??0?$allocator@_W@std@@QAE@ABV01@@Z
_TEXT	SEGMENT PARA USE32 PUBLIC 'CODE'
_TEXT	ENDS
;	COMDAT ??_C@_0BO@OBIGOAOM@AtlIsValidString?$CI?5pszFormat?5?$CJ?$AA@
CONST	SEGMENT DWORD USE32 PUBLIC 'CONST'
CONST	ENDS
;	COMDAT ?AtlIsValidString@ATL@@YAHPBDI@Z
_TEXT	SEGMENT PARA USE32 PUBLIC 'CODE'
_TEXT	ENDS
;	COMDAT ??_C@_0FH@KDPNIMBO@D?3?2Program?5Files?5?$CIx86?$CJ?2Microsoft@
CONST	SEGMENT DWORD USE32 PUBLIC 'CONST'
CONST	ENDS
;	COMDAT ?ipreon@?7??OnMouseMove@PlayedGameWnd@@IAEXIVCPoint@@@Z@4HA
_DATA	SEGMENT DWORD USE32 PUBLIC 'DATA'
_DATA	ENDS
;	COMDAT ?ipreITem@?7??OnMouseMove@PlayedGameWnd@@IAEXIVCPoint@@@Z@4HA
_DATA	SEGMENT DWORD USE32 PUBLIC 'DATA'
_DATA	ENDS
;	COMDAT ?rcPre@?7??OnMouseMove@PlayedGameWnd@@IAEXIVCPoint@@@Z@4VCRect@@A
_BSS	SEGMENT DWORD USE32 PUBLIC 'BSS'
_BSS	ENDS
;	COMDAT ?$S9@?7??OnMouseMove@PlayedGameWnd@@IAEXIVCPoint@@@Z@4IA
_BSS	SEGMENT DWORD USE32 PUBLIC 'BSS'
_BSS	ENDS
;	COMDAT ?DrawImage@Graphics@Gdiplus@@QAE?AW4Status@2@PAVImage@2@ABVRect@2@@Z
_TEXT	SEGMENT PARA USE32 PUBLIC 'CODE'
_TEXT	ENDS
;	COMDAT ?DrawImage@Graphics@Gdiplus@@QAE?AW4Status@2@PAVImage@2@HHHH@Z
_TEXT	SEGMENT PARA USE32 PUBLIC 'CODE'
_TEXT	ENDS
;	COMDAT ?SetStatus@Graphics@Gdiplus@@IBE?AW4Status@2@W432@@Z
_TEXT	SEGMENT PARA USE32 PUBLIC 'CODE'
_TEXT	ENDS
;	COMDAT ??1Graphics@Gdiplus@@QAE@XZ
_TEXT	SEGMENT PARA USE32 PUBLIC 'CODE'
_TEXT	ENDS
;	COMDAT ??0Graphics@Gdiplus@@QAE@PAUHDC__@@@Z
_TEXT	SEGMENT PARA USE32 PUBLIC 'CODE'
_TEXT	ENDS
;	COMDAT ?SetNativeGraphics@Graphics@Gdiplus@@IAEXPAVGpGraphics@2@@Z
_TEXT	SEGMENT PARA USE32 PUBLIC 'CODE'
_TEXT	ENDS
;	COMDAT ?pImageOver@?1??DrawPlayBtn@PlayedGameWnd@@IAEXVCRect@@H@Z@4PAVImage@Gdiplus@@A
_DATA	SEGMENT DWORD USE32 PUBLIC 'DATA'
_DATA	ENDS
;	COMDAT ?Clone@Image@Gdiplus@@UAEPAV12@XZ
_TEXT	SEGMENT PARA USE32 PUBLIC 'CODE'
_TEXT	ENDS
;	COMDAT ?SetStatus@Image@Gdiplus@@IBE?AW4Status@2@W432@@Z
_TEXT	SEGMENT PARA USE32 PUBLIC 'CODE'
_TEXT	ENDS
;	COMDAT ??2GdiplusBase@Gdiplus@@SAPAXI@Z
_TEXT	SEGMENT PARA USE32 PUBLIC 'CODE'
_TEXT	ENDS
;	COMDAT ??3GdiplusBase@Gdiplus@@SAXPAX@Z
_TEXT	SEGMENT PARA USE32 PUBLIC 'CODE'
_TEXT	ENDS
;	COMDAT ??0Image@Gdiplus@@IAE@PAVGpImage@1@W4Status@1@@Z
_TEXT	SEGMENT PARA USE32 PUBLIC 'CODE'
_TEXT	ENDS
;	COMDAT ??_7Image@Gdiplus@@6B@
CONST	SEGMENT DWORD USE32 PUBLIC 'CONST'
CONST	ENDS
;	COMDAT ??_R4Image@Gdiplus@@6B@
rdata$r	SEGMENT DWORD USE32 PUBLIC 'CONST'
rdata$r	ENDS
;	COMDAT ??_R0?AVImage@Gdiplus@@@8
_DATA	SEGMENT DWORD USE32 PUBLIC 'DATA'
_DATA	ENDS
;	COMDAT ??_R3Image@Gdiplus@@8
rdata$r	SEGMENT DWORD USE32 PUBLIC 'CONST'
rdata$r	ENDS
;	COMDAT ??_R2Image@Gdiplus@@8
rdata$r	SEGMENT DWORD USE32 PUBLIC 'CONST'
rdata$r	ENDS
;	COMDAT ??_R1A@?0A@A@Image@Gdiplus@@8
rdata$r	SEGMENT DWORD USE32 PUBLIC 'CONST'
rdata$r	ENDS
;	COMDAT ??_R13?0A@A@GdiplusBase@Gdiplus@@8
rdata$r	SEGMENT DWORD USE32 PUBLIC 'CONST'
rdata$r	ENDS
;	COMDAT ??_R0?AVGdiplusBase@Gdiplus@@@8
_DATA	SEGMENT DWORD USE32 PUBLIC 'DATA'
_DATA	ENDS
;	COMDAT ??_GImage@Gdiplus@@UAEPAXI@Z
_TEXT	SEGMENT PARA USE32 PUBLIC 'CODE'
_TEXT	ENDS
;	COMDAT ?SetNativeImage@Image@Gdiplus@@IAEXPAVGpImage@2@@Z
_TEXT	SEGMENT PARA USE32 PUBLIC 'CODE'
_TEXT	ENDS
;	COMDAT ?pImageNormal@?1??DrawPlayBtn@PlayedGameWnd@@IAEXVCRect@@H@Z@4PAVImage@Gdiplus@@A
_DATA	SEGMENT DWORD USE32 PUBLIC 'DATA'
_DATA	ENDS
;	COMDAT ??1Image@Gdiplus@@UAE@XZ
_TEXT	SEGMENT PARA USE32 PUBLIC 'CODE'
_TEXT	ENDS
;	COMDAT ?AtlA2WHelper@@YGPA_WPA_WPBDHI@Z
_TEXT	SEGMENT PARA USE32 PUBLIC 'CODE'
_TEXT	ENDS
;	COMDAT ??_C@_08DMHHBMMN@lpa?5?$CB?$DN?50?$AA@
CONST	SEGMENT DWORD USE32 PUBLIC 'CONST'
CONST	ENDS
;	COMDAT ??_C@_08DIHJLFDJ@lpw?5?$CB?$DN?50?$AA@
CONST	SEGMENT DWORD USE32 PUBLIC 'CONST'
CONST	ENDS
;	COMDAT ??_C@_01GBGANLPD@0?$AA@
CONST	SEGMENT DWORD USE32 PUBLIC 'CONST'
CONST	ENDS
;	COMDAT ??_C@_0FG@PFHCBDBK@D?3?2Program?5Files?5?$CIx86?$CJ?2Microsoft@
CONST	SEGMENT DWORD USE32 PUBLIC 'CONST'
CONST	ENDS
;	COMDAT ??0Image@Gdiplus@@QAE@PB_WH@Z
_TEXT	SEGMENT PARA USE32 PUBLIC 'CODE'
_TEXT	ENDS
;	COMDAT ?_AtlGetConversionACP@ATL@@YGIXZ
_TEXT	SEGMENT PARA USE32 PUBLIC 'CODE'
_TEXT	ENDS
;	COMDAT ?g_pfnGetThreadACP@ATL@@3P6GIXZA
_DATA	SEGMENT DWORD USE32 PUBLIC 'DATA'
_DATA	ENDS
;	COMDAT ?_AtlGetThreadACPThunk@ATL@@YGIXZ
_TEXT	SEGMENT PARA USE32 PUBLIC 'CODE'
_TEXT	ENDS
;	COMDAT ?_AtlGetThreadACPReal@ATL@@YGIXZ
_TEXT	SEGMENT PARA USE32 PUBLIC 'CODE'
_TEXT	ENDS
;	COMDAT ?_AtlGetThreadACPFake@ATL@@YGIXZ
_TEXT	SEGMENT PARA USE32 PUBLIC 'CODE'
_TEXT	ENDS
;	COMDAT ?InterlockedExchangePointer@@YGPAXPAPAXPAX@Z
_TEXT	SEGMENT PARA USE32 PUBLIC 'CODE'
_TEXT	ENDS
;	COMDAT ?IsLocked@CStringData@ATL@@QBE_NXZ
_TEXT	SEGMENT PARA USE32 PUBLIC 'CODE'
_TEXT	ENDS
;	COMDAT ?AddRef@CStringData@ATL@@QAEXXZ
_TEXT	SEGMENT PARA USE32 PUBLIC 'CODE'
_TEXT	ENDS
;	COMDAT ??_C@_09EEBKLCFA@nRefs?5?$DO?50?$AA@
CONST	SEGMENT DWORD USE32 PUBLIC 'CONST'
CONST	ENDS
;	COMDAT ?blInit@?1??DrawPlayBtn@PlayedGameWnd@@IAEXVCRect@@H@Z@4HA
_DATA	SEGMENT DWORD USE32 PUBLIC 'DATA'
_DATA	ENDS
;	COMDAT ??0Rect@Gdiplus@@QAE@HHHH@Z
_TEXT	SEGMENT PARA USE32 PUBLIC 'CODE'
_TEXT	ENDS
;	COMDAT ?GetDefaultManager@?$StrTraitMFC_DLL@DV?$ChTraitsCRT@D@ATL@@@@SAPAUIAtlStringMgr@ATL@@XZ
_TEXT	SEGMENT PARA USE32 PUBLIC 'CODE'
_TEXT	ENDS
;	COMDAT ?FindStringResourceInstance@?$StrTraitMFC_DLL@DV?$ChTraitsCRT@D@ATL@@@@SAPAUHINSTANCE__@@I@Z
_TEXT	SEGMENT PARA USE32 PUBLIC 'CODE'
_TEXT	ENDS
;	COMDAT ?AtlGetStringResourceImage@ATL@@YAPBUATLSTRINGRESOURCEIMAGE@1@PAUHINSTANCE__@@I@Z
_TEXT	SEGMENT PARA USE32 PUBLIC 'CODE'
_TEXT	ENDS
;	COMDAT ?_AtlGetStringResourceImage@ATL@@YAPBUATLSTRINGRESOURCEIMAGE@1@PAUHINSTANCE__@@PAUHRSRC__@@I@Z
_TEXT	SEGMENT PARA USE32 PUBLIC 'CODE'
_TEXT	ENDS
;	COMDAT ?GetBaseTypeLength@?$ChTraitsCRT@D@ATL@@SAHPB_WH@Z
_TEXT	SEGMENT PARA USE32 PUBLIC 'CODE'
_TEXT	ENDS
;	COMDAT ?ConvertToBaseType@?$ChTraitsCRT@D@ATL@@SAXPADHPB_WH@Z
_TEXT	SEGMENT PARA USE32 PUBLIC 'CODE'
_TEXT	ENDS
;	COMDAT ??_C@_0CJ@FJEKGMMD@Warning?3?5implicit?5LoadString?$CI?$CFu?$CJ@
CONST	SEGMENT DWORD USE32 PUBLIC 'CONST'
CONST	ENDS
;	COMDAT ??$?HDU?$char_traits@D@std@@V?$allocator@D@1@@std@@YA?AV?$basic_string@DU?$char_traits@D@std@@V?$allocator@D@2@@0@ABV10@0@Z
_TEXT	SEGMENT PARA USE32 PUBLIC 'CODE'
_TEXT	ENDS
;	COMDAT ??$?HDU?$char_traits@D@std@@V?$allocator@D@1@@std@@YA?AV?$basic_string@DU?$char_traits@D@std@@V?$allocator@D@2@@0@ABV10@PBD@Z
_TEXT	SEGMENT PARA USE32 PUBLIC 'CODE'
_TEXT	ENDS
;	COMDAT ??0?$allocator@D@std@@QAE@ABV01@@Z
_TEXT	SEGMENT PARA USE32 PUBLIC 'CODE'
_TEXT	ENDS
;	COMDAT ?bPrompted@?1??OnCommand@PlayedGameWnd@@MAEHIJ@Z@4HA
_DATA	SEGMENT DWORD USE32 PUBLIC 'DATA'
_DATA	ENDS
;	COMDAT ?_messageEntries@PlayedGameWnd@@0QBUAFX_MSGMAP_ENTRY@@B
CONST	SEGMENT DWORD USE32 PUBLIC 'CONST'
CONST	ENDS
;	COMDAT ?messageMap@PlayedGameWnd@@1UAFX_MSGMAP@@B
CONST	SEGMENT DWORD USE32 PUBLIC 'CONST'
CONST	ENDS
;	COMDAT ??_7IMessageObserver@@6B@
CONST	SEGMENT DWORD USE32 PUBLIC 'CONST'
CONST	ENDS
;	COMDAT ??_R4IMessageObserver@@6B@
rdata$r	SEGMENT DWORD USE32 PUBLIC 'CONST'
rdata$r	ENDS
;	COMDAT ??_R3IMessageObserver@@8
rdata$r	SEGMENT DWORD USE32 PUBLIC 'CONST'
rdata$r	ENDS
;	COMDAT ??_R2IMessageObserver@@8
rdata$r	SEGMENT DWORD USE32 PUBLIC 'CONST'
rdata$r	ENDS
;	COMDAT ??_GIMessageObserver@@UAEPAXI@Z
_TEXT	SEGMENT PARA USE32 PUBLIC 'CODE'
_TEXT	ENDS
;	COMDAT ??_7IQQItemCountChangeObserver@@6B@
CONST	SEGMENT DWORD USE32 PUBLIC 'CONST'
CONST	ENDS
;	COMDAT ??1IMessageObserver@@UAE@XZ
_TEXT	SEGMENT PARA USE32 PUBLIC 'CODE'
_TEXT	ENDS
;	COMDAT ??0?$allocator@D@std@@QAE@XZ
_TEXT	SEGMENT PARA USE32 PUBLIC 'CODE'
_TEXT	ENDS
;	COMDAT ??_7PlayedGameWnd@@6BIQQItemCountChangeObserver@@@
CONST	SEGMENT DWORD USE32 PUBLIC 'CONST'
CONST	ENDS
;	COMDAT ??_7PlayedGameWnd@@6BCLocalMusicCoverList@@@
CONST	SEGMENT DWORD USE32 PUBLIC 'CONST'
CONST	ENDS
;	COMDAT ?classPlayedGameWnd@PlayedGameWnd@@2UCRuntimeClass@@B
CONST	SEGMENT DWORD USE32 PUBLIC 'CONST'
CONST	ENDS
;	COMDAT ??_7IData@@6B@
CONST	SEGMENT DWORD USE32 PUBLIC 'CONST'
CONST	ENDS
;	COMDAT ?GetLastStatus@Image@Gdiplus@@QBE?AW4Status@2@XZ
_TEXT	SEGMENT PARA USE32 PUBLIC 'CODE'
_TEXT	ENDS
;	COMDAT ?FromFile@Bitmap@Gdiplus@@SAPAV12@PB_WH@Z
_TEXT	SEGMENT PARA USE32 PUBLIC 'CODE'
_TEXT	ENDS
;	COMDAT ??0Bitmap@Gdiplus@@QAE@PB_WH@Z
_TEXT	SEGMENT PARA USE32 PUBLIC 'CODE'
_TEXT	ENDS
;	COMDAT ??0Image@Gdiplus@@IAE@XZ
_TEXT	SEGMENT PARA USE32 PUBLIC 'CODE'
_TEXT	ENDS
;	COMDAT ??_7Bitmap@Gdiplus@@6B@
CONST	SEGMENT DWORD USE32 PUBLIC 'CONST'
CONST	ENDS
;	COMDAT ??_R4Bitmap@Gdiplus@@6B@
rdata$r	SEGMENT DWORD USE32 PUBLIC 'CONST'
rdata$r	ENDS
;	COMDAT ??_R0?AVBitmap@Gdiplus@@@8
_DATA	SEGMENT DWORD USE32 PUBLIC 'DATA'
_DATA	ENDS
;	COMDAT ??_R3Bitmap@Gdiplus@@8
rdata$r	SEGMENT DWORD USE32 PUBLIC 'CONST'
rdata$r	ENDS
;	COMDAT ??_R2Bitmap@Gdiplus@@8
rdata$r	SEGMENT DWORD USE32 PUBLIC 'CONST'
rdata$r	ENDS
;	COMDAT ??_R1A@?0A@A@Bitmap@Gdiplus@@8
rdata$r	SEGMENT DWORD USE32 PUBLIC 'CONST'
rdata$r	ENDS
;	COMDAT ??_GBitmap@Gdiplus@@UAEPAXI@Z
_TEXT	SEGMENT PARA USE32 PUBLIC 'CODE'
_TEXT	ENDS
;	COMDAT ??1Bitmap@Gdiplus@@UAE@XZ
_TEXT	SEGMENT PARA USE32 PUBLIC 'CODE'
_TEXT	ENDS
;	COMDAT ??_7CGdiPlusBitmap@@6B@
CONST	SEGMENT DWORD USE32 PUBLIC 'CONST'
CONST	ENDS
;	COMDAT ??_7BCMenuMemDC@@6B@
CONST	SEGMENT DWORD USE32 PUBLIC 'CONST'
CONST	ENDS
sxdata	SEGMENT DWORD USE32 'SXDATA'
sxdata	ENDS
FLAT	GROUP _DATA, CONST, _BSS
	ASSUME	CS: FLAT, DS: FLAT, SS: FLAT
endif

INCLUDELIB MSVCRTD
INCLUDELIB OLDNAMES

PUBLIC	?g_pfnGetThreadACP@ATL@@3P6GIXZA		; ATL::g_pfnGetThreadACP
PUBLIC	?_AtlGetThreadACPThunk@ATL@@YGIXZ		; ATL::_AtlGetThreadACPThunk
PUBLIC	?classPlayedGameWnd@PlayedGameWnd@@2UCRuntimeClass@@B ; PlayedGameWnd::classPlayedGameWnd
PUBLIC	?_messageEntries@PlayedGameWnd@@0QBUAFX_MSGMAP_ENTRY@@B ; PlayedGameWnd::_messageEntries
PUBLIC	?messageMap@PlayedGameWnd@@1UAFX_MSGMAP@@B	; PlayedGameWnd::messageMap
PUBLIC	?OnShowWindow@PlayedGameWnd@@IAEXHI@Z		; PlayedGameWnd::OnShowWindow
PUBLIC	?OnRButtonUp@PlayedGameWnd@@IAEXIVCPoint@@@Z	; PlayedGameWnd::OnRButtonUp
PUBLIC	?OnLButtonDblClk@PlayedGameWnd@@IAEXIVCPoint@@@Z ; PlayedGameWnd::OnLButtonDblClk
PUBLIC	?OnCreate@PlayedGameWnd@@IAEHPAUtagCREATESTRUCTA@@@Z ; PlayedGameWnd::OnCreate
PUBLIC	?OnKeyDown@PlayedGameWnd@@IAEXIII@Z		; PlayedGameWnd::OnKeyDown
PUBLIC	?OnMouseMove@PlayedGameWnd@@IAEXIVCPoint@@@Z	; PlayedGameWnd::OnMouseMove
PUBLIC	?OnMouseLeave@PlayedGameWnd@@IAEJIJ@Z		; PlayedGameWnd::OnMouseLeave
PUBLIC	?OnLButtonDown@PlayedGameWnd@@IAEXIVCPoint@@@Z	; PlayedGameWnd::OnLButtonDown
PUBLIC	?OnLButtonUp@PlayedGameWnd@@IAEXIVCPoint@@@Z	; PlayedGameWnd::OnLButtonUp
PUBLIC	?OnDestroy@PlayedGameWnd@@QAEXXZ		; PlayedGameWnd::OnDestroy
PUBLIC	?OnMouseWheel@PlayedGameWnd@@QAEHIFVCPoint@@@Z	; PlayedGameWnd::OnMouseWheel
EXTRN	?GetThisClass@CLocalMusicCoverList@@SGPAUCRuntimeClass@@XZ:NEAR ; CLocalMusicCoverList::GetThisClass
EXTRN	?GetThisMessageMap@CLocalMusicCoverList@@KGPBUAFX_MSGMAP@@XZ:NEAR ; CLocalMusicCoverList::GetThisMessageMap
CONST	SEGMENT
$SG191838 DB	'int', 00H
CONST	ENDS
_DATA	SEGMENT
_TYPE_CONFIG_INT DD FLAT:$SG191838
_DATA	ENDS
CONST	SEGMENT
$SG191840 DB	'str', 00H
CONST	ENDS
_DATA	SEGMENT
_TYPE_CONFIG_STR DD FLAT:$SG191840
_DATA	ENDS
CONST	SEGMENT
$SG191842 DB	'double', 00H
CONST	ENDS
_DATA	SEGMENT
_TYPE_CONFIG_DOUBLE DD FLAT:$SG191842
_DATA	ENDS
CONST	SEGMENT
	ORG $+1
$SG191844 DB	'bool', 00H
CONST	ENDS
_DATA	SEGMENT
_TYPE_CONFIG_BOOL DD FLAT:$SG191844
_DATA	ENDS
CONST	SEGMENT
	ORG $+3
$SG191846 DB	'sepint', 00H
CONST	ENDS
_DATA	SEGMENT
_TYPE_CONFIG_INT_HASSEP DD FLAT:$SG191846
_DATA	ENDS
CONST	SEGMENT
	ORG $+1
$SG191848 DB	'sepstr', 00H
CONST	ENDS
_DATA	SEGMENT
_TYPE_CONFIG_STR_HASSEP DD FLAT:$SG191848
_DATA	ENDS
CONST	SEGMENT
	ORG $+1
$SG191850 DB	'sepdouble', 00H
CONST	ENDS
_DATA	SEGMENT
_TYPE_CONFIG_DOUBLE_HASSEP DD FLAT:$SG191850
_DATA	ENDS
CONST	SEGMENT
	ORG $+2
$SG191852 DB	'sepbool', 00H
CONST	ENDS
_DATA	SEGMENT
_TYPE_CONFIG_BOOL_HASSEP DD FLAT:$SG191852
_DATA	ENDS
CONST	SEGMENT
$SG191854 DB	'Setting', 00H
CONST	ENDS
_DATA	SEGMENT
_CONF_SETTING_MODULE_NAME DD FLAT:$SG191854
_DATA	ENDS
CONST	SEGMENT
$SG191856 DB	'skin', 00H
CONST	ENDS
_DATA	SEGMENT
_CONF_SETTING_SKIN_IDX DD FLAT:$SG191856
_DATA	ENDS
CONST	SEGMENT
	ORG $+3
$SG191858 DB	'MainPage', 00H
CONST	ENDS
_DATA	SEGMENT
_CONF_SETTING_CONFIG_MAIN_PAGE DD FLAT:$SG191858
_DATA	ENDS
CONST	SEGMENT
	ORG $+3
$SG191860 DB	'ProblemReport', 00H
CONST	ENDS
_DATA	SEGMENT
_CONF_SETTING_CONFIG_PROBLEM_REPORT DD FLAT:$SG191860
_DATA	ENDS
CONST	SEGMENT
	ORG $+2
$SG191862 DB	'HomePage', 00H
CONST	ENDS
_DATA	SEGMENT
_CONF_SETTING_CONFIG_HOME_PAGE DD FLAT:$SG191862
_DATA	ENDS
CONST	SEGMENT
	ORG $+3
$SG191864 DB	'askexit', 00H
CONST	ENDS
_DATA	SEGMENT
_CONF_SETTING_CONFIG_IFASKEXIT DD FLAT:$SG191864
_DATA	ENDS
CONST	SEGMENT
$SG191866 DB	'exitchoice', 00H
CONST	ENDS
_DATA	SEGMENT
_CONF_SETTING_CONFIG_EXITCHOICE DD FLAT:$SG191866
_DATA	ENDS
CONST	SEGMENT
	ORG $+1
$SG191868 DB	'UN', 00H
CONST	ENDS
_DATA	SEGMENT
_CONF_SETTING_LOGIN_USER_NAME DD FLAT:$SG191868
_DATA	ENDS
CONST	SEGMENT
	ORG $+1
$SG191870 DB	'PW', 00H
CONST	ENDS
_DATA	SEGMENT
_CONF_SETTING_LOGIN_PASSWORD DD FLAT:$SG191870
_DATA	ENDS
CONST	SEGMENT
	ORG $+1
$SG191872 DB	'NetID', 00H
CONST	ENDS
_DATA	SEGMENT
_CONF_SETTING_NETID DD FLAT:$SG191872
_DATA	ENDS
CONST	SEGMENT
	ORG $+2
$SG191874 DB	'ChangeColorValue', 00H
CONST	ENDS
_DATA	SEGMENT
_CONF_SETTING_COLOR DD FLAT:$SG191874
_DATA	ENDS
CONST	SEGMENT
	ORG $+3
$SG191876 DB	'changeColorLight', 00H
CONST	ENDS
_DATA	SEGMENT
_CONF_SETTING_LIGHT DD FLAT:$SG191876
_DATA	ENDS
CONST	SEGMENT
	ORG $+3
$SG191878 DB	'ColorIndex', 00H
CONST	ENDS
_DATA	SEGMENT
_CONF_SETTING_COLOR_BTN_INDEX DD FLAT:$SG191878
_DATA	ENDS
CONST	SEGMENT
	ORG $+1
$SG191880 DB	'ColorUser', 00H
CONST	ENDS
_DATA	SEGMENT
_CONF_SETTING_COLOR_USER DD FLAT:$SG191880
_DATA	ENDS
CONST	SEGMENT
	ORG $+2
$SG191882 DB	'FirstTimeChangeSkin', 00H
CONST	ENDS
_DATA	SEGMENT
_CONF_SETTING_FIRST_TIME_CHANGESKIN DD FLAT:$SG191882
_DATA	ENDS
CONST	SEGMENT
$SG191889 DB	'App', 00H
CONST	ENDS
_DATA	SEGMENT
_CONF_APP_MODULE_NAME DD FLAT:$SG191889
_DATA	ENDS
CONST	SEGMENT
$SG191891 DB	'SwfPath', 00H
CONST	ENDS
_DATA	SEGMENT
_CONF_APP_SWF_PATH DD FLAT:$SG191891
_DATA	ENDS
CONST	SEGMENT
$SG191893 DB	'MainWndHold', 00H
CONST	ENDS
_DATA	SEGMENT
_CONF_APP_MAINWND_HOLD DD FLAT:$SG191893
_DATA	ENDS
CONST	SEGMENT
$SG191895 DB	'RunCount', 00H
CONST	ENDS
_DATA	SEGMENT
_CONF_APP_RUN_COUNT DD FLAT:$SG191895
_DATA	ENDS
CONST	SEGMENT
	ORG $+3
$SG191897 DB	'PlayedGame', 00H
CONST	ENDS
_DATA	SEGMENT
_CONF_APP_PLAYED_GAME DD FLAT:$SG191897
_DATA	ENDS
CONST	SEGMENT
	ORG $+1
$SG191899 DB	'playedPcGame', 00H
CONST	ENDS
_DATA	SEGMENT
_CONF_APP_PLAYED_PC_GAME DD FLAT:$SG191899
_DATA	ENDS
CONST	SEGMENT
	ORG $+3
$SG191901 DB	'PlayedIconSize', 00H
CONST	ENDS
_DATA	SEGMENT
_CONF_APP_PLAYED_ICON_SIZE DD FLAT:$SG191901
_DATA	ENDS
CONST	SEGMENT
	ORG $+1
$SG191903 DB	'PictureSavePath', 00H
CONST	ENDS
_DATA	SEGMENT
_CONF_APP_PIC_SAVE_PATH DD FLAT:$SG191903
_DATA	ENDS
CONST	SEGMENT
$SG191908 DB	'PlayedGameWnd', 00H
CONST	ENDS
;	COMDAT ?classPlayedGameWnd@PlayedGameWnd@@2UCRuntimeClass@@B
CONST	SEGMENT
?classPlayedGameWnd@PlayedGameWnd@@2UCRuntimeClass@@B DD FLAT:$SG191908 ; PlayedGameWnd::classPlayedGameWnd
	DD	0260H
	DD	0ffffH
	DD	00H
	DD	FLAT:?GetThisClass@CLocalMusicCoverList@@SGPAUCRuntimeClass@@XZ
	DD	00H
	DD	00H
CONST	ENDS
CONST	SEGMENT
	ORG $+2
$SG191920 DB	'-1', 00H
$SG191921 DB	00H
CONST	ENDS
;	COMDAT ?_messageEntries@PlayedGameWnd@@0QBUAFX_MSGMAP_ENTRY@@B
CONST	SEGMENT
?_messageEntries@PlayedGameWnd@@0QBUAFX_MSGMAP_ENTRY@@B DD 018H ; PlayedGameWnd::_messageEntries
	DD	00H
	DD	00H
	DD	00H
	DD	012H
	DD	FLAT:?OnShowWindow@PlayedGameWnd@@IAEXHI@Z
	DD	0205H
	DD	00H
	DD	00H
	DD	00H
	DD	032H
	DD	FLAT:?OnRButtonUp@PlayedGameWnd@@IAEXIVCPoint@@@Z
	DD	0203H
	DD	00H
	DD	00H
	DD	00H
	DD	032H
	DD	FLAT:?OnLButtonDblClk@PlayedGameWnd@@IAEXIVCPoint@@@Z
	DD	01H
	DD	00H
	DD	00H
	DD	00H
	DD	0dH
	DD	FLAT:?OnCreate@PlayedGameWnd@@IAEHPAUtagCREATESTRUCTA@@@Z
	DD	0100H
	DD	00H
	DD	00H
	DD	00H
	DD	015H
	DD	FLAT:?OnKeyDown@PlayedGameWnd@@IAEXIII@Z
	DD	0200H
	DD	00H
	DD	00H
	DD	00H
	DD	032H
	DD	FLAT:?OnMouseMove@PlayedGameWnd@@IAEXIVCPoint@@@Z
	DD	02a3H
	DD	00H
	DD	00H
	DD	00H
	DD	0eH
	DD	FLAT:?OnMouseLeave@PlayedGameWnd@@IAEJIJ@Z
	DD	0201H
	DD	00H
	DD	00H
	DD	00H
	DD	032H
	DD	FLAT:?OnLButtonDown@PlayedGameWnd@@IAEXIVCPoint@@@Z
	DD	0202H
	DD	00H
	DD	00H
	DD	00H
	DD	032H
	DD	FLAT:?OnLButtonUp@PlayedGameWnd@@IAEXIVCPoint@@@Z
	DD	02H
	DD	00H
	DD	00H
	DD	00H
	DD	010H
	DD	FLAT:?OnDestroy@PlayedGameWnd@@QAEXXZ
	DD	020aH
	DD	00H
	DD	00H
	DD	00H
	DD	034H
	DD	FLAT:?OnMouseWheel@PlayedGameWnd@@QAEHIFVCPoint@@@Z
	DD	00H
	DD	00H
	DD	00H
	DD	00H
	DD	00H
	DD	00H
CONST	ENDS
;	COMDAT ?messageMap@PlayedGameWnd@@1UAFX_MSGMAP@@B
CONST	SEGMENT
?messageMap@PlayedGameWnd@@1UAFX_MSGMAP@@B DD FLAT:?GetThisMessageMap@CLocalMusicCoverList@@KGPBUAFX_MSGMAP@@XZ ; PlayedGameWnd::messageMap
	DD	FLAT:?_messageEntries@PlayedGameWnd@@0QBUAFX_MSGMAP_ENTRY@@B
CONST	ENDS
CONST	SEGMENT
$SG192058 DB	0d0H, 0a1H, 0b1H, 0a6H, 0b1H, 0b4H, 0d3H, 0ceH, 0cfH, 0b7H
	DB	0baH, 0d0H, 00H
	ORG $+3
$SG192059 DB	0c4H, 0faH, 0c8H, 0b7H, 0b6H, 0a8H, 0d2H, 0aaH, 0c9H, 0beH
	DB	0b3H, 0fdH, 0cbH, 0f9H, 0d1H, 0a1H, 0d3H, 0ceH, 0cfH, 0b7H, 0c2H
	DB	0f0H, 0a3H, 0bfH, 00H
	ORG $+3
$SG192649 DB	0aH, 00H
	ORG $+2
$SG192650 DB	'name=', 00H
	ORG $+2
$SG192651 DB	0aH, 00H
	ORG $+2
$SG192652 DB	'id=', 00H
$SG192653 DB	'method=playswfgame', 0aH, 0aH, 00H
$SG192801 DB	00H
	ORG $+2
$SG192802 DB	'tooltips_class32', 00H
	ORG $+3
$SG192852 DB	'\CoverPlayNormal.png', 00H
	ORG $+3
$SG192853 DB	'\CoverPlayOver.png', 00H
	ORG $+1
$SG192906 DB	0c3H, 0fbH, 0b3H, 0c6H, ': %s$#', 0d3H, 0ceH, 0cfH, 0b7H, 0bcH
	DB	0f2H, 0bdH, 0e9H, ':%s', 00H
	ORG $+2
$SG192908 DB	0c3H, 0fbH, 0b3H, 0c6H, ': %s', 00H
	ORG $+7
$SG193791 DB	'D:\Program Files (x86)\Microsoft Visual Studio .NET 2003'
	DB	'\Vc7\atlmfc\include\afxtempl.h', 00H
	ORG $+1
$SG193805 DB	'D:\Program Files (x86)\Microsoft Visual Studio .NET 2003'
	DB	'\Vc7\atlmfc\include\afxtempl.h', 00H
	ORG $+1
$SG193821 DB	'with ', 00H
	ORG $+2
$SG193822 DB	' elements', 00H
	ORG $+2
$SG193824 DB	0aH, 00H
	ORG $+2
$SG193831 DB	0aH, 00H
	ORG $+6
$SG193839 DB	'D:\Program Files (x86)\Microsoft Visual Studio .NET 2003'
	DB	'\Vc7\atlmfc\include\afxtempl.h', 00H
	ORG $+1
$SG193841 DB	'D:\Program Files (x86)\Microsoft Visual Studio .NET 2003'
	DB	'\Vc7\atlmfc\include\afxtempl.h', 00H
	ORG $+1
$SG193844 DB	'D:\Program Files (x86)\Microsoft Visual Studio .NET 2003'
	DB	'\Vc7\atlmfc\include\afxtempl.h', 00H
	ORG $+1
$SG193846 DB	'D:\Program Files (x86)\Microsoft Visual Studio .NET 2003'
	DB	'\Vc7\atlmfc\include\afxtempl.h', 00H
	ORG $+1
$SG193848 DB	'D:\Program Files (x86)\Microsoft Visual Studio .NET 2003'
	DB	'\Vc7\atlmfc\include\afxtempl.h', 00H
	ORG $+1
$SG193851 DB	'D:\Program Files (x86)\Microsoft Visual Studio .NET 2003'
	DB	'\Vc7\atlmfc\include\afxtempl.h', 00H
	ORG $+1
$SG194110 DB	'D:\Program Files (x86)\Microsoft Visual Studio .NET 2003'
	DB	'\Vc7\atlmfc\include\afxtempl.h', 00H
	ORG $+1
$SG194112 DB	'D:\Program Files (x86)\Microsoft Visual Studio .NET 2003'
	DB	'\Vc7\atlmfc\include\afxtempl.h', 00H
	ORG $+1
$SG194127 DB	'D:\Program Files (x86)\Microsoft Visual Studio .NET 2003'
	DB	'\Vc7\atlmfc\include\afxtempl.h', 00H
	ORG $+1
$SG194134 DB	'D:\Program Files (x86)\Microsoft Visual Studio .NET 2003'
	DB	'\Vc7\atlmfc\include\afxtempl.h', 00H
	ORG $+1
$SG194170 DB	'D:\Program Files (x86)\Microsoft Visual Studio .NET 2003'
	DB	'\Vc7\atlmfc\include\afxtempl.h', 00H
	ORG $+1
$SG194174 DB	'D:\Program Files (x86)\Microsoft Visual Studio .NET 2003'
	DB	'\Vc7\atlmfc\include\afxtempl.h', 00H
	ORG $+1
$SG194184 DB	'D:\Program Files (x86)\Microsoft Visual Studio .NET 2003'
	DB	'\Vc7\atlmfc\include\afxtempl.h', 00H
	ORG $+1
$SG194201 DB	'D:\Program Files (x86)\Microsoft Visual Studio .NET 2003'
	DB	'\Vc7\atlmfc\include\afxtempl.h', 00H
	ORG $+1
$SG194226 DB	'D:\Program Files (x86)\Microsoft Visual Studio .NET 2003'
	DB	'\Vc7\atlmfc\include\afxtempl.h', 00H
CONST	ENDS
;	COMDAT ?g_pfnGetThreadACP@ATL@@3P6GIXZA
_DATA	SEGMENT
?g_pfnGetThreadACP@ATL@@3P6GIXZA DD FLAT:?_AtlGetThreadACPThunk@ATL@@YGIXZ ; ATL::g_pfnGetThreadACP
_DATA	ENDS
CONST	SEGMENT
	ORG $+1
_ID_MESSAGE_QQ_ITEM_CHANGE DD 0eH
_ID_DATA_TABBAR DD 07H
_ID_DATA_LOCALGAME DD 0aH
CONST	ENDS
PUBLIC	?GetThisClass@PlayedGameWnd@@SGPAUCRuntimeClass@@XZ ; PlayedGameWnd::GetThisClass
EXTRN	__RTC_InitBase:NEAR
EXTRN	__RTC_Shutdown:NEAR
;	COMDAT rtc$IMZ
; File d:\boxgit\playbox\playbox\dev\prj\playbox\src\module\playedgamepanel\playedgamewnd.cpp
rtc$IMZ	SEGMENT
__RTC_InitBase.rtc$IMZ DD FLAT:__RTC_InitBase
rtc$IMZ	ENDS
;	COMDAT rtc$TMZ
rtc$TMZ	SEGMENT
__RTC_Shutdown.rtc$TMZ DD FLAT:__RTC_Shutdown
; Function compile flags: /Odt /RTCsu
rtc$TMZ	ENDS
_TEXT	SEGMENT
?GetThisClass@PlayedGameWnd@@SGPAUCRuntimeClass@@XZ PROC NEAR ; PlayedGameWnd::GetThisClass

; 15   : IMPLEMENT_DYNAMIC(PlayedGameWnd, CLocalMusicCoverList)

  00000	55		 push	 ebp
  00001	8b ec		 mov	 ebp, esp
  00003	b8 00 00 00 00	 mov	 eax, OFFSET FLAT:?classPlayedGameWnd@PlayedGameWnd@@2UCRuntimeClass@@B ; PlayedGameWnd::classPlayedGameWnd
  00008	5d		 pop	 ebp
  00009	c3		 ret	 0
?GetThisClass@PlayedGameWnd@@SGPAUCRuntimeClass@@XZ ENDP ; PlayedGameWnd::GetThisClass
_TEXT	ENDS
PUBLIC	?GetRuntimeClass@PlayedGameWnd@@UBEPAUCRuntimeClass@@XZ ; PlayedGameWnd::GetRuntimeClass
; Function compile flags: /Odt /RTCsu
_TEXT	SEGMENT
_this$ = -4						; size = 4
?GetRuntimeClass@PlayedGameWnd@@UBEPAUCRuntimeClass@@XZ PROC NEAR ; PlayedGameWnd::GetRuntimeClass
; _this$ = ecx

; 15   : IMPLEMENT_DYNAMIC(PlayedGameWnd, CLocalMusicCoverList)

  00010	55		 push	 ebp
  00011	8b ec		 mov	 ebp, esp
  00013	51		 push	 ecx
  00014	c7 45 fc cc cc
	cc cc		 mov	 DWORD PTR [ebp-4], -858993460 ; ccccccccH
  0001b	89 4d fc	 mov	 DWORD PTR _this$[ebp], ecx
  0001e	b8 00 00 00 00	 mov	 eax, OFFSET FLAT:?classPlayedGameWnd@PlayedGameWnd@@2UCRuntimeClass@@B ; PlayedGameWnd::classPlayedGameWnd
  00023	8b e5		 mov	 esp, ebp
  00025	5d		 pop	 ebp
  00026	c3		 ret	 0
?GetRuntimeClass@PlayedGameWnd@@UBEPAUCRuntimeClass@@XZ ENDP ; PlayedGameWnd::GetRuntimeClass
_TEXT	ENDS
PUBLIC	??_R1A@?0A@A@CWnd@@8				; CWnd::`RTTI Base Class Descriptor at (0,-1,0,0)'
PUBLIC	??_R0?AVCWnd@@@8				; CWnd `RTTI Type Descriptor'
PUBLIC	??_R1A@?0A@A@CCmdTarget@@8			; CCmdTarget::`RTTI Base Class Descriptor at (0,-1,0,0)'
PUBLIC	??_R0?AVCCmdTarget@@@8				; CCmdTarget `RTTI Type Descriptor'
PUBLIC	??_R1A@?0A@A@CObject@@8				; CObject::`RTTI Base Class Descriptor at (0,-1,0,0)'
PUBLIC	??_R0?AVCObject@@@8				; CObject `RTTI Type Descriptor'
PUBLIC	??_R0?AVIMessageObserver@@@8			; IMessageObserver `RTTI Type Descriptor'
PUBLIC	??0IQQItemCountChangeObserver@@QAE@XZ		; IQQItemCountChangeObserver::IQQItemCountChangeObserver
PUBLIC	??1IQQItemCountChangeObserver@@UAE@XZ		; IQQItemCountChangeObserver::~IQQItemCountChangeObserver
PUBLIC	??_R0?AVIQQItemCountChangeObserver@@@8		; IQQItemCountChangeObserver `RTTI Type Descriptor'
PUBLIC	??_R4PlayedGameWnd@@6BCLocalMusicCoverList@@@	; PlayedGameWnd::`RTTI Complete Object Locator'
PUBLIC	??_R0?AVPlayedGameWnd@@@8			; PlayedGameWnd `RTTI Type Descriptor'
PUBLIC	??_R3PlayedGameWnd@@8				; PlayedGameWnd::`RTTI Class Hierarchy Descriptor'
PUBLIC	??_R2PlayedGameWnd@@8				; PlayedGameWnd::`RTTI Base Class Array'
PUBLIC	??_R1A@?0A@A@PlayedGameWnd@@8			; PlayedGameWnd::`RTTI Base Class Descriptor at (0,-1,0,0)'
PUBLIC	??_R1A@?0A@A@CLocalMusicCoverList@@8		; CLocalMusicCoverList::`RTTI Base Class Descriptor at (0,-1,0,0)'
PUBLIC	??_R0?AVCLocalMusicCoverList@@@8		; CLocalMusicCoverList `RTTI Type Descriptor'
PUBLIC	??_R1BIA@?0A@A@IQQItemCountChangeObserver@@8	; IQQItemCountChangeObserver::`RTTI Base Class Descriptor at (384,-1,0,0)'
PUBLIC	??_R1BIA@?0A@A@IMessageObserver@@8		; IMessageObserver::`RTTI Base Class Descriptor at (384,-1,0,0)'
PUBLIC	??_EPlayedGameWnd@@WBIA@AEPAXI@Z		; [thunk]:PlayedGameWnd::`vector deleting destructor'
PUBLIC	??_R4PlayedGameWnd@@6BIQQItemCountChangeObserver@@@ ; PlayedGameWnd::`RTTI Complete Object Locator'
PUBLIC	??0PlayedGameWnd@@QAE@XZ			; PlayedGameWnd::PlayedGameWnd
PUBLIC	?GetMessageMap@PlayedGameWnd@@MBEPBUAFX_MSGMAP@@XZ ; PlayedGameWnd::GetMessageMap
PUBLIC	?OnCommand@PlayedGameWnd@@MAEHIJ@Z		; PlayedGameWnd::OnCommand
PUBLIC	?IQQItemChangeOb_CountChange@PlayedGameWnd@@UAEXI@Z ; PlayedGameWnd::IQQItemChangeOb_CountChange
PUBLIC	??_7PlayedGameWnd@@6BCLocalMusicCoverList@@@	; PlayedGameWnd::`vftable'
PUBLIC	??_7PlayedGameWnd@@6BIQQItemCountChangeObserver@@@ ; PlayedGameWnd::`vftable'
PUBLIC	??_GPlayedGameWnd@@UAEPAXI@Z			; PlayedGameWnd::`scalar deleting destructor'
EXTRN	?GetInterfaceMap@CWnd@@MBEPBUAFX_INTERFACEMAP@@XZ:NEAR ; CWnd::GetInterfaceMap
EXTRN	?EnsureStdObj@CWnd@@UAEJXZ:NEAR			; CWnd::EnsureStdObj
EXTRN	?get_accParent@CWnd@@UAEJPAPAUIDispatch@@@Z:NEAR ; CWnd::get_accParent
EXTRN	?OnCmdMsg@CCmdTarget@@UAEHIHPAXPAUAFX_CMDHANDLERINFO@@@Z:NEAR ; CCmdTarget::OnCmdMsg
EXTRN	?get_accChildCount@CWnd@@UAEJPAJ@Z:NEAR		; CWnd::get_accChildCount
EXTRN	?IsInvokeAllowed@CCmdTarget@@UAEHJ@Z:NEAR	; CCmdTarget::IsInvokeAllowed
EXTRN	?get_accChild@CWnd@@UAEJUtagVARIANT@@PAPAUIDispatch@@@Z:NEAR ; CWnd::get_accChild
EXTRN	?get_accName@CWnd@@UAEJUtagVARIANT@@PAPA_W@Z:NEAR ; CWnd::get_accName
EXTRN	?get_accValue@CWnd@@UAEJUtagVARIANT@@PAPA_W@Z:NEAR ; CWnd::get_accValue
EXTRN	?GetDispatchIID@CCmdTarget@@UAEHPAU_GUID@@@Z:NEAR ; CCmdTarget::GetDispatchIID
EXTRN	?GetTypeInfoCount@CCmdTarget@@UAEIXZ:NEAR	; CCmdTarget::GetTypeInfoCount
EXTRN	?GetTypeLibCache@CCmdTarget@@UAEPAVCTypeLibCache@@XZ:NEAR ; CCmdTarget::GetTypeLibCache
EXTRN	?get_accDescription@CWnd@@UAEJUtagVARIANT@@PAPA_W@Z:NEAR ; CWnd::get_accDescription
EXTRN	?AfxGetMessageManager@@YAPAVIMessageManager@@XZ:NEAR ; AfxGetMessageManager
EXTRN	?GetTypeLib@CCmdTarget@@UAEJKPAPAUITypeLib@@@Z:NEAR ; CCmdTarget::GetTypeLib
EXTRN	?get_accRole@CWnd@@UAEJUtagVARIANT@@PAU2@@Z:NEAR ; CWnd::get_accRole
EXTRN	?get_accState@CWnd@@UAEJUtagVARIANT@@PAU2@@Z:NEAR ; CWnd::get_accState
EXTRN	?get_accHelp@CWnd@@UAEJUtagVARIANT@@PAPA_W@Z:NEAR ; CWnd::get_accHelp
EXTRN	?get_accHelpTopic@CWnd@@UAEJPAPA_WUtagVARIANT@@PAJ@Z:NEAR ; CWnd::get_accHelpTopic
EXTRN	?get_accKeyboardShortcut@CWnd@@UAEJUtagVARIANT@@PAPA_W@Z:NEAR ; CWnd::get_accKeyboardShortcut
EXTRN	?get_accFocus@CWnd@@UAEJPAUtagVARIANT@@@Z:NEAR	; CWnd::get_accFocus
EXTRN	?get_accSelection@CWnd@@UAEJPAUtagVARIANT@@@Z:NEAR ; CWnd::get_accSelection
EXTRN	?get_accDefaultAction@CWnd@@UAEJUtagVARIANT@@PAPA_W@Z:NEAR ; CWnd::get_accDefaultAction
EXTRN	?GetCommandMap@CCmdTarget@@MBEPBUAFX_OLECMDMAP@@XZ:NEAR ; CCmdTarget::GetCommandMap
EXTRN	?accSelect@CWnd@@UAEJJUtagVARIANT@@@Z:NEAR	; CWnd::accSelect
EXTRN	?accLocation@CWnd@@UAEJPAJ000UtagVARIANT@@@Z:NEAR ; CWnd::accLocation
EXTRN	?GetDispatchMap@CCmdTarget@@MBEPBUAFX_DISPMAP@@XZ:NEAR ; CCmdTarget::GetDispatchMap
EXTRN	?accNavigate@CWnd@@UAEJJUtagVARIANT@@PAU2@@Z:NEAR ; CWnd::accNavigate
EXTRN	?accHitTest@CWnd@@UAEJJJPAUtagVARIANT@@@Z:NEAR	; CWnd::accHitTest
EXTRN	?GetConnectionMap@CCmdTarget@@MBEPBUAFX_CONNECTIONMAP@@XZ:NEAR ; CCmdTarget::GetConnectionMap
EXTRN	?accDoDefaultAction@CWnd@@UAEJUtagVARIANT@@@Z:NEAR ; CWnd::accDoDefaultAction
EXTRN	?put_accName@CWnd@@UAEJUtagVARIANT@@PA_W@Z:NEAR	; CWnd::put_accName
EXTRN	?put_accValue@CWnd@@UAEJUtagVARIANT@@PA_W@Z:NEAR ; CWnd::put_accValue
EXTRN	?SetProxy@CWnd@@UAEJPAUIAccessibleProxy@@@Z:NEAR ; CWnd::SetProxy
EXTRN	?CreateAccessibleProxy@CWnd@@UAEJIJPAJ@Z:NEAR	; CWnd::CreateAccessibleProxy
EXTRN	?GetEventSinkMap@CCmdTarget@@MBEPBUAFX_EVENTSINKMAP@@XZ:NEAR ; CCmdTarget::GetEventSinkMap
EXTRN	?OnCreateAggregates@CCmdTarget@@UAEHXZ:NEAR	; CCmdTarget::OnCreateAggregates
EXTRN	?GetInterfaceHook@CCmdTarget@@UAEPAUIUnknown@@PBX@Z:NEAR ; CCmdTarget::GetInterfaceHook
EXTRN	?OnNotify@CWnd@@MAEHIJPAJ@Z:NEAR		; CWnd::OnNotify
EXTRN	?GetExtraConnectionPoints@CCmdTarget@@MAEHPAVCPtrArray@@@Z:NEAR ; CCmdTarget::GetExtraConnectionPoints
EXTRN	?GetConnectionHook@CCmdTarget@@MAEPAUIConnectionPoint@@ABU_GUID@@@Z:NEAR ; CCmdTarget::GetConnectionHook
EXTRN	??0CLocalMusicCoverList@@QAE@XZ:NEAR		; CLocalMusicCoverList::CLocalMusicCoverList
EXTRN	??1CLocalMusicCoverList@@UAE@XZ:NEAR		; CLocalMusicCoverList::~CLocalMusicCoverList
EXTRN	?Create@CLocalMusicCoverList@@UAEHPBD0KABUtagRECT@@PAVCWnd@@IPAUCCreateContext@@@Z:NEAR ; CLocalMusicCoverList::Create
EXTRN	?PreSubclassWindow@CWnd@@UAEXXZ:NEAR		; CWnd::PreSubclassWindow
EXTRN	?OnMoveDraging@CLocalMusicCoverList@@UAEXXZ:NEAR ; CLocalMusicCoverList::OnMoveDraging
EXTRN	?OnEndDrag@CLocalMusicCoverList@@UAEXXZ:NEAR	; CLocalMusicCoverList::OnEndDrag
EXTRN	?CreateEx@CWnd@@UAEHKPBD0KHHHHPAUHWND__@@PAUHMENU__@@PAX@Z:NEAR ; CWnd::CreateEx
EXTRN	__imp_??0?$basic_string@DU?$char_traits@D@std@@V?$allocator@D@2@@std@@QAE@PBD@Z:NEAR
EXTRN	?CreateEx@CWnd@@UAEHKPBD0KABUtagRECT@@PAV1@IPAX@Z:NEAR ; CWnd::CreateEx
EXTRN	__imp_??1?$basic_string@DU?$char_traits@D@std@@V?$allocator@D@2@@std@@QAE@XZ:NEAR
EXTRN	?Serialize@CObject@@UAEXAAVCArchive@@@Z:NEAR	; CObject::Serialize
EXTRN	?DestroyWindow@CWnd@@UAEHXZ:NEAR		; CWnd::DestroyWindow
EXTRN	?PreCreateWindow@CWnd@@UAEHAAUtagCREATESTRUCTA@@@Z:NEAR ; CWnd::PreCreateWindow
EXTRN	?CalcWindowRect@CWnd@@UAEXPAUtagRECT@@I@Z:NEAR	; CWnd::CalcWindowRect
EXTRN	?GetSuperWndProcAddr@CWnd@@MAEPAP6GJPAUHWND__@@IIJ@ZXZ:NEAR ; CWnd::GetSuperWndProcAddr
EXTRN	?DoDataExchange@CWnd@@MAEXPAVCDataExchange@@@Z:NEAR ; CWnd::DoDataExchange
EXTRN	?BeginModalState@CWnd@@UAEXXZ:NEAR		; CWnd::BeginModalState
EXTRN	?EndModalState@CWnd@@UAEXXZ:NEAR		; CWnd::EndModalState
EXTRN	?OnAmbientProperty@CWnd@@UAEHPAVCOleControlSite@@JPAUtagVARIANT@@@Z:NEAR ; CWnd::OnAmbientProperty
EXTRN	?WindowProc@CWnd@@MAEJIIJ@Z:NEAR		; CWnd::WindowProc
EXTRN	?OnWndMsg@CWnd@@MAEHIIJPAJ@Z:NEAR		; CWnd::OnWndMsg
EXTRN	?DefWindowProcA@CWnd@@MAEJIIJ@Z:NEAR		; CWnd::DefWindowProcA
EXTRN	?PostNcDestroy@CWnd@@MAEXXZ:NEAR		; CWnd::PostNcDestroy
EXTRN	?OnChildNotify@CWnd@@MAEHIIJPAJ@Z:NEAR		; CWnd::OnChildNotify
EXTRN	?CheckAutoCenter@CWnd@@UAEHXZ:NEAR		; CWnd::CheckAutoCenter
EXTRN	?AssertValid@CWnd@@UBEXXZ:NEAR			; CWnd::AssertValid
EXTRN	?Dump@CWnd@@UBEXAAVCDumpContext@@@Z:NEAR	; CWnd::Dump
EXTRN	__RTC_CheckEsp:NEAR
EXTRN	__except_list:DWORD
EXTRN	___CxxFrameHandler:NEAR
EXTRN	?IsFrameWnd@CWnd@@UBEHXZ:NEAR			; CWnd::IsFrameWnd
EXTRN	?OnFinalRelease@CWnd@@UAEXXZ:NEAR		; CWnd::OnFinalRelease
EXTRN	??0CCWToolTips@@QAE@XZ:NEAR			; CCWToolTips::CCWToolTips
EXTRN	??1CCWToolTips@@UAE@XZ:NEAR			; CCWToolTips::~CCWToolTips
EXTRN	?CreateControlContainer@CWnd@@MAEHPAPAVCOleControlContainer@@@Z:NEAR ; CWnd::CreateControlContainer
EXTRN	?CreateControlSite@CWnd@@MAEHPAVCOleControlContainer@@PAPAVCOleControlSite@@IABU_GUID@@@Z:NEAR ; CWnd::CreateControlSite
EXTRN	?SetOccDialogInfo@CWnd@@MAEHPAU_AFX_OCC_DIALOG_INFO@@@Z:NEAR ; CWnd::SetOccDialogInfo
EXTRN	?OnToolHitTest@CWnd@@UBEHVCPoint@@PAUtagTOOLINFOA@@@Z:NEAR ; CWnd::OnToolHitTest
EXTRN	?GetScrollBarCtrl@CWnd@@UBEPAVCScrollBar@@H@Z:NEAR ; CWnd::GetScrollBarCtrl
EXTRN	?PreTranslateMessage@CLocalMusicCoverList@@UAEHPAUtagMSG@@@Z:NEAR ; CLocalMusicCoverList::PreTranslateMessage
EXTRN	?WinHelpA@CWnd@@UAEXKI@Z:NEAR			; CWnd::WinHelpA
EXTRN	?HtmlHelpA@CWnd@@UAEXKI@Z:NEAR			; CWnd::HtmlHelpA
EXTRN	??_7type_info@@6B@:QWORD			; type_info::`vftable'
EXTRN	?WinHelpInternal@CWnd@@UAEXKI@Z:NEAR		; CWnd::WinHelpInternal
EXTRN	??_EPlayedGameWnd@@UAEPAXI@Z:NEAR		; PlayedGameWnd::`vector deleting destructor'
EXTRN	?ContinueModal@CWnd@@UAEHXZ:NEAR		; CWnd::ContinueModal
EXTRN	?EndModalLoop@CWnd@@UAEXH@Z:NEAR		; CWnd::EndModalLoop
xdata$x	SEGMENT
$T195197 DD	0ffffffffH
	DD	FLAT:$L195185
	DD	00H
	DD	FLAT:$L195186
	DD	01H
	DD	FLAT:$L195187
	DD	02H
	DD	FLAT:$L195188
	DD	03H
	DD	FLAT:$L195189
$T195193 DD	019930520H
	DD	05H
	DD	FLAT:$T195197
	DD	2 DUP(00H)
	DD	2 DUP(00H)
xdata$x	ENDS
;	COMDAT ??_7PlayedGameWnd@@6BCLocalMusicCoverList@@@
CONST	SEGMENT
??_7PlayedGameWnd@@6BCLocalMusicCoverList@@@ DD FLAT:??_R4PlayedGameWnd@@6BCLocalMusicCoverList@@@ ; PlayedGameWnd::`vftable'
	DD	FLAT:?GetRuntimeClass@PlayedGameWnd@@UBEPAUCRuntimeClass@@XZ
	DD	FLAT:??_EPlayedGameWnd@@UAEPAXI@Z
	DD	FLAT:?Serialize@CObject@@UAEXAAVCArchive@@@Z
	DD	FLAT:?AssertValid@CWnd@@UBEXXZ
	DD	FLAT:?Dump@CWnd@@UBEXAAVCDumpContext@@@Z
	DD	FLAT:?OnCmdMsg@CCmdTarget@@UAEHIHPAXPAUAFX_CMDHANDLERINFO@@@Z
	DD	FLAT:?OnFinalRelease@CWnd@@UAEXXZ
	DD	FLAT:?IsInvokeAllowed@CCmdTarget@@UAEHJ@Z
	DD	FLAT:?GetDispatchIID@CCmdTarget@@UAEHPAU_GUID@@@Z
	DD	FLAT:?GetTypeInfoCount@CCmdTarget@@UAEIXZ
	DD	FLAT:?GetTypeLibCache@CCmdTarget@@UAEPAVCTypeLibCache@@XZ
	DD	FLAT:?GetTypeLib@CCmdTarget@@UAEJKPAPAUITypeLib@@@Z
	DD	FLAT:?GetMessageMap@PlayedGameWnd@@MBEPBUAFX_MSGMAP@@XZ
	DD	FLAT:?GetCommandMap@CCmdTarget@@MBEPBUAFX_OLECMDMAP@@XZ
	DD	FLAT:?GetDispatchMap@CCmdTarget@@MBEPBUAFX_DISPMAP@@XZ
	DD	FLAT:?GetConnectionMap@CCmdTarget@@MBEPBUAFX_CONNECTIONMAP@@XZ
	DD	FLAT:?GetInterfaceMap@CWnd@@MBEPBUAFX_INTERFACEMAP@@XZ
	DD	FLAT:?GetEventSinkMap@CCmdTarget@@MBEPBUAFX_EVENTSINKMAP@@XZ
	DD	FLAT:?OnCreateAggregates@CCmdTarget@@UAEHXZ
	DD	FLAT:?GetInterfaceHook@CCmdTarget@@UAEPAUIUnknown@@PBX@Z
	DD	FLAT:?GetExtraConnectionPoints@CCmdTarget@@MAEHPAVCPtrArray@@@Z
	DD	FLAT:?GetConnectionHook@CCmdTarget@@MAEPAUIConnectionPoint@@ABU_GUID@@@Z
	DD	FLAT:?PreSubclassWindow@CWnd@@UAEXXZ
	DD	FLAT:?Create@CLocalMusicCoverList@@UAEHPBD0KABUtagRECT@@PAVCWnd@@IPAUCCreateContext@@@Z
	DD	FLAT:?CreateEx@CWnd@@UAEHKPBD0KABUtagRECT@@PAV1@IPAX@Z
	DD	FLAT:?CreateEx@CWnd@@UAEHKPBD0KHHHHPAUHWND__@@PAUHMENU__@@PAX@Z
	DD	FLAT:?DestroyWindow@CWnd@@UAEHXZ
	DD	FLAT:?PreCreateWindow@CWnd@@UAEHAAUtagCREATESTRUCTA@@@Z
	DD	FLAT:?CalcWindowRect@CWnd@@UAEXPAUtagRECT@@I@Z
	DD	FLAT:?OnToolHitTest@CWnd@@UBEHVCPoint@@PAUtagTOOLINFOA@@@Z
	DD	FLAT:?GetScrollBarCtrl@CWnd@@UBEPAVCScrollBar@@H@Z
	DD	FLAT:?WinHelpA@CWnd@@UAEXKI@Z
	DD	FLAT:?HtmlHelpA@CWnd@@UAEXKI@Z
	DD	FLAT:?WinHelpInternal@CWnd@@UAEXKI@Z
	DD	FLAT:?ContinueModal@CWnd@@UAEHXZ
	DD	FLAT:?EndModalLoop@CWnd@@UAEXH@Z
	DD	FLAT:?EnsureStdObj@CWnd@@UAEJXZ
	DD	FLAT:?get_accParent@CWnd@@UAEJPAPAUIDispatch@@@Z
	DD	FLAT:?get_accChildCount@CWnd@@UAEJPAJ@Z
	DD	FLAT:?get_accChild@CWnd@@UAEJUtagVARIANT@@PAPAUIDispatch@@@Z
	DD	FLAT:?get_accName@CWnd@@UAEJUtagVARIANT@@PAPA_W@Z
	DD	FLAT:?get_accValue@CWnd@@UAEJUtagVARIANT@@PAPA_W@Z
	DD	FLAT:?get_accDescription@CWnd@@UAEJUtagVARIANT@@PAPA_W@Z
	DD	FLAT:?get_accRole@CWnd@@UAEJUtagVARIANT@@PAU2@@Z
	DD	FLAT:?get_accState@CWnd@@UAEJUtagVARIANT@@PAU2@@Z
	DD	FLAT:?get_accHelp@CWnd@@UAEJUtagVARIANT@@PAPA_W@Z
	DD	FLAT:?get_accHelpTopic@CWnd@@UAEJPAPA_WUtagVARIANT@@PAJ@Z
	DD	FLAT:?get_accKeyboardShortcut@CWnd@@UAEJUtagVARIANT@@PAPA_W@Z
	DD	FLAT:?get_accFocus@CWnd@@UAEJPAUtagVARIANT@@@Z
	DD	FLAT:?get_accSelection@CWnd@@UAEJPAUtagVARIANT@@@Z
	DD	FLAT:?get_accDefaultAction@CWnd@@UAEJUtagVARIANT@@PAPA_W@Z
	DD	FLAT:?accSelect@CWnd@@UAEJJUtagVARIANT@@@Z
	DD	FLAT:?accLocation@CWnd@@UAEJPAJ000UtagVARIANT@@@Z
	DD	FLAT:?accNavigate@CWnd@@UAEJJUtagVARIANT@@PAU2@@Z
	DD	FLAT:?accHitTest@CWnd@@UAEJJJPAUtagVARIANT@@@Z
	DD	FLAT:?accDoDefaultAction@CWnd@@UAEJUtagVARIANT@@@Z
	DD	FLAT:?put_accName@CWnd@@UAEJUtagVARIANT@@PA_W@Z
	DD	FLAT:?put_accValue@CWnd@@UAEJUtagVARIANT@@PA_W@Z
	DD	FLAT:?SetProxy@CWnd@@UAEJPAUIAccessibleProxy@@@Z
	DD	FLAT:?CreateAccessibleProxy@CWnd@@UAEJIJPAJ@Z
	DD	FLAT:?OnCommand@PlayedGameWnd@@MAEHIJ@Z
	DD	FLAT:?OnNotify@CWnd@@MAEHIJPAJ@Z
	DD	FLAT:?GetSuperWndProcAddr@CWnd@@MAEPAP6GJPAUHWND__@@IIJ@ZXZ
	DD	FLAT:?DoDataExchange@CWnd@@MAEXPAVCDataExchange@@@Z
	DD	FLAT:?BeginModalState@CWnd@@UAEXXZ
	DD	FLAT:?EndModalState@CWnd@@UAEXXZ
	DD	FLAT:?PreTranslateMessage@CLocalMusicCoverList@@UAEHPAUtagMSG@@@Z
	DD	FLAT:?OnAmbientProperty@CWnd@@UAEHPAVCOleControlSite@@JPAUtagVARIANT@@@Z
	DD	FLAT:?WindowProc@CWnd@@MAEJIIJ@Z
	DD	FLAT:?OnWndMsg@CWnd@@MAEHIIJPAJ@Z
	DD	FLAT:?DefWindowProcA@CWnd@@MAEJIIJ@Z
	DD	FLAT:?PostNcDestroy@CWnd@@MAEXXZ
	DD	FLAT:?OnChildNotify@CWnd@@MAEHIIJPAJ@Z
	DD	FLAT:?CheckAutoCenter@CWnd@@UAEHXZ
	DD	FLAT:?IsFrameWnd@CWnd@@UBEHXZ
	DD	FLAT:?CreateControlContainer@CWnd@@MAEHPAPAVCOleControlContainer@@@Z
	DD	FLAT:?CreateControlSite@CWnd@@MAEHPAVCOleControlContainer@@PAPAVCOleControlSite@@IABU_GUID@@@Z
	DD	FLAT:?SetOccDialogInfo@CWnd@@MAEHPAU_AFX_OCC_DIALOG_INFO@@@Z
	DD	FLAT:?OnMoveDraging@CLocalMusicCoverList@@UAEXXZ
	DD	FLAT:?OnEndDrag@CLocalMusicCoverList@@UAEXXZ
CONST	ENDS
;	COMDAT ??_7PlayedGameWnd@@6BIQQItemCountChangeObserver@@@
CONST	SEGMENT
??_7PlayedGameWnd@@6BIQQItemCountChangeObserver@@@ DD FLAT:??_R4PlayedGameWnd@@6BIQQItemCountChangeObserver@@@ ; PlayedGameWnd::`vftable'
	DD	FLAT:??_EPlayedGameWnd@@WBIA@AEPAXI@Z
	DD	FLAT:?IQQItemChangeOb_CountChange@PlayedGameWnd@@UAEXI@Z
CONST	ENDS
;	COMDAT ??_R4PlayedGameWnd@@6BCLocalMusicCoverList@@@
rdata$r	SEGMENT
??_R4PlayedGameWnd@@6BCLocalMusicCoverList@@@ DD 00H	; PlayedGameWnd::`RTTI Complete Object Locator'
	DD	00H
	DD	00H
	DD	FLAT:??_R0?AVPlayedGameWnd@@@8
	DD	FLAT:??_R3PlayedGameWnd@@8
rdata$r	ENDS
;	COMDAT ??_R0?AVPlayedGameWnd@@@8
_DATA	SEGMENT
??_R0?AVPlayedGameWnd@@@8 DD FLAT:??_7type_info@@6B@	; PlayedGameWnd `RTTI Type Descriptor'
	DD	00H
	DB	'.?AVPlayedGameWnd@@', 00H
_DATA	ENDS
;	COMDAT ??_R3PlayedGameWnd@@8
rdata$r	SEGMENT
??_R3PlayedGameWnd@@8 DD 00H				; PlayedGameWnd::`RTTI Class Hierarchy Descriptor'
	DD	01H
	DD	07H
	DD	FLAT:??_R2PlayedGameWnd@@8
rdata$r	ENDS
;	COMDAT ??_R2PlayedGameWnd@@8
rdata$r	SEGMENT
??_R2PlayedGameWnd@@8 DD FLAT:??_R1A@?0A@A@PlayedGameWnd@@8 ; PlayedGameWnd::`RTTI Base Class Array'
	DD	FLAT:??_R1A@?0A@A@CLocalMusicCoverList@@8
	DD	FLAT:??_R1A@?0A@A@CWnd@@8
	DD	FLAT:??_R1A@?0A@A@CCmdTarget@@8
	DD	FLAT:??_R1A@?0A@A@CObject@@8
	DD	FLAT:??_R1BIA@?0A@A@IQQItemCountChangeObserver@@8
	DD	FLAT:??_R1BIA@?0A@A@IMessageObserver@@8
rdata$r	ENDS
;	COMDAT ??_R1A@?0A@A@PlayedGameWnd@@8
rdata$r	SEGMENT
??_R1A@?0A@A@PlayedGameWnd@@8 DD FLAT:??_R0?AVPlayedGameWnd@@@8 ; PlayedGameWnd::`RTTI Base Class Descriptor at (0,-1,0,0)'
	DD	06H
	DD	00H
	DD	0ffffffffH
	DD	00H
	DD	00H
rdata$r	ENDS
;	COMDAT ??_R1A@?0A@A@CLocalMusicCoverList@@8
rdata$r	SEGMENT
??_R1A@?0A@A@CLocalMusicCoverList@@8 DD FLAT:??_R0?AVCLocalMusicCoverList@@@8 ; CLocalMusicCoverList::`RTTI Base Class Descriptor at (0,-1,0,0)'
	DD	03H
	DD	00H
	DD	0ffffffffH
	DD	00H
	DD	00H
rdata$r	ENDS
;	COMDAT ??_R0?AVCLocalMusicCoverList@@@8
_DATA	SEGMENT
??_R0?AVCLocalMusicCoverList@@@8 DD FLAT:??_7type_info@@6B@ ; CLocalMusicCoverList `RTTI Type Descriptor'
	DD	00H
	DB	'.?AVCLocalMusicCoverList@@', 00H
_DATA	ENDS
;	COMDAT ??_R1A@?0A@A@CWnd@@8
rdata$r	SEGMENT
??_R1A@?0A@A@CWnd@@8 DD FLAT:??_R0?AVCWnd@@@8		; CWnd::`RTTI Base Class Descriptor at (0,-1,0,0)'
	DD	02H
	DD	00H
	DD	0ffffffffH
	DD	00H
	DD	00H
rdata$r	ENDS
;	COMDAT ??_R0?AVCWnd@@@8
_DATA	SEGMENT
??_R0?AVCWnd@@@8 DD FLAT:??_7type_info@@6B@		; CWnd `RTTI Type Descriptor'
	DD	00H
	DB	'.?AVCWnd@@', 00H
_DATA	ENDS
;	COMDAT ??_R1A@?0A@A@CCmdTarget@@8
rdata$r	SEGMENT
??_R1A@?0A@A@CCmdTarget@@8 DD FLAT:??_R0?AVCCmdTarget@@@8 ; CCmdTarget::`RTTI Base Class Descriptor at (0,-1,0,0)'
	DD	01H
	DD	00H
	DD	0ffffffffH
	DD	00H
	DD	00H
rdata$r	ENDS
;	COMDAT ??_R0?AVCCmdTarget@@@8
_DATA	SEGMENT
??_R0?AVCCmdTarget@@@8 DD FLAT:??_7type_info@@6B@	; CCmdTarget `RTTI Type Descriptor'
	DD	00H
	DB	'.?AVCCmdTarget@@', 00H
_DATA	ENDS
;	COMDAT ??_R1A@?0A@A@CObject@@8
rdata$r	SEGMENT
??_R1A@?0A@A@CObject@@8 DD FLAT:??_R0?AVCObject@@@8	; CObject::`RTTI Base Class Descriptor at (0,-1,0,0)'
	DD	00H
	DD	00H
	DD	0ffffffffH
	DD	00H
	DD	00H
rdata$r	ENDS
;	COMDAT ??_R0?AVCObject@@@8
_DATA	SEGMENT
??_R0?AVCObject@@@8 DD FLAT:??_7type_info@@6B@		; CObject `RTTI Type Descriptor'
	DD	00H
	DB	'.?AVCObject@@', 00H
_DATA	ENDS
;	COMDAT ??_R1BIA@?0A@A@IQQItemCountChangeObserver@@8
rdata$r	SEGMENT
??_R1BIA@?0A@A@IQQItemCountChangeObserver@@8 DD FLAT:??_R0?AVIQQItemCountChangeObserver@@@8 ; IQQItemCountChangeObserver::`RTTI Base Class Descriptor at (384,-1,0,0)'
	DD	01H
	DD	0180H
	DD	0ffffffffH
	DD	00H
	DD	00H
rdata$r	ENDS
;	COMDAT ??_R0?AVIQQItemCountChangeObserver@@@8
_DATA	SEGMENT
??_R0?AVIQQItemCountChangeObserver@@@8 DD FLAT:??_7type_info@@6B@ ; IQQItemCountChangeObserver `RTTI Type Descriptor'
	DD	00H
	DB	'.?AVIQQItemCountChangeObserver@@', 00H
_DATA	ENDS
;	COMDAT ??_R1BIA@?0A@A@IMessageObserver@@8
rdata$r	SEGMENT
??_R1BIA@?0A@A@IMessageObserver@@8 DD FLAT:??_R0?AVIMessageObserver@@@8 ; IMessageObserver::`RTTI Base Class Descriptor at (384,-1,0,0)'
	DD	00H
	DD	0180H
	DD	0ffffffffH
	DD	00H
	DD	00H
rdata$r	ENDS
;	COMDAT ??_R0?AVIMessageObserver@@@8
_DATA	SEGMENT
??_R0?AVIMessageObserver@@@8 DD FLAT:??_7type_info@@6B@	; IMessageObserver `RTTI Type Descriptor'
	DD	00H
	DB	'.?AVIMessageObserver@@', 00H
	ORG $-31
	DD	FLAT:??_7type_info@@6B@
	DD	00H
	DB	'.?AVIMessageObserver@@', 00H
_DATA	ENDS
;	COMDAT ??_R4PlayedGameWnd@@6BIQQItemCountChangeObserver@@@
rdata$r	SEGMENT
??_R4PlayedGameWnd@@6BIQQItemCountChangeObserver@@@ DD 00H ; PlayedGameWnd::`RTTI Complete Object Locator'
	DD	0180H
	DD	00H
	DD	FLAT:??_R0?AVPlayedGameWnd@@@8
	DD	FLAT:??_R3PlayedGameWnd@@8
; Function compile flags: /Odt /RTCsu
rdata$r	ENDS
_TEXT	SEGMENT
tv135 = -24						; size = 4
tv141 = -20						; size = 4
_this$ = -16						; size = 4
__$EHRec$ = -12						; size = 12
??0PlayedGameWnd@@QAE@XZ PROC NEAR			; PlayedGameWnd::PlayedGameWnd
; _this$ = ecx

; 22   : {

  00030	55		 push	 ebp
  00031	8b ec		 mov	 ebp, esp
  00033	6a ff		 push	 -1
  00035	68 00 00 00 00	 push	 __ehhandler$??0PlayedGameWnd@@QAE@XZ
  0003a	64 a1 00 00 00
	00		 mov	 eax, DWORD PTR fs:__except_list
  00040	50		 push	 eax
  00041	64 89 25 00 00
	00 00		 mov	 DWORD PTR fs:__except_list, esp
  00048	83 ec 0c	 sub	 esp, 12			; 0000000cH
  0004b	56		 push	 esi
  0004c	c7 45 e8 cc cc
	cc cc		 mov	 DWORD PTR [ebp-24], -858993460 ; ccccccccH
  00053	c7 45 ec cc cc
	cc cc		 mov	 DWORD PTR [ebp-20], -858993460 ; ccccccccH
  0005a	c7 45 f0 cc cc
	cc cc		 mov	 DWORD PTR [ebp-16], -858993460 ; ccccccccH
  00061	89 4d f0	 mov	 DWORD PTR _this$[ebp], ecx
  00064	8b 4d f0	 mov	 ecx, DWORD PTR _this$[ebp]
  00067	e8 00 00 00 00	 call	 ??0CLocalMusicCoverList@@QAE@XZ ; CLocalMusicCoverList::CLocalMusicCoverList
  0006c	c7 45 fc 00 00
	00 00		 mov	 DWORD PTR __$EHRec$[ebp+8], 0
  00073	8b 4d f0	 mov	 ecx, DWORD PTR _this$[ebp]
  00076	81 c1 80 01 00
	00		 add	 ecx, 384		; 00000180H
  0007c	e8 00 00 00 00	 call	 ??0IQQItemCountChangeObserver@@QAE@XZ
  00081	c6 45 fc 01	 mov	 BYTE PTR __$EHRec$[ebp+8], 1
  00085	8b 45 f0	 mov	 eax, DWORD PTR _this$[ebp]
  00088	c7 00 00 00 00
	00		 mov	 DWORD PTR [eax], OFFSET FLAT:??_7PlayedGameWnd@@6BCLocalMusicCoverList@@@
  0008e	8b 4d f0	 mov	 ecx, DWORD PTR _this$[ebp]
  00091	c7 81 80 01 00
	00 00 00 00 00	 mov	 DWORD PTR [ecx+384], OFFSET FLAT:??_7PlayedGameWnd@@6BIQQItemCountChangeObserver@@@
  0009b	8b 4d f0	 mov	 ecx, DWORD PTR _this$[ebp]
  0009e	81 c1 88 01 00
	00		 add	 ecx, 392		; 00000188H
  000a4	e8 00 00 00 00	 call	 ??0CCWToolTips@@QAE@XZ	; CCWToolTips::CCWToolTips
  000a9	c6 45 fc 02	 mov	 BYTE PTR __$EHRec$[ebp+8], 2
  000ad	8b 55 f0	 mov	 edx, DWORD PTR _this$[ebp]
  000b0	c7 82 1c 02 00
	00 ff ff ff ff	 mov	 DWORD PTR [edx+540], -1
  000ba	8b f4		 mov	 esi, esp
  000bc	68 00 00 00 00	 push	 OFFSET FLAT:$SG191920
  000c1	8b 4d f0	 mov	 ecx, DWORD PTR _this$[ebp]
  000c4	81 c1 24 02 00
	00		 add	 ecx, 548		; 00000224H
  000ca	ff 15 00 00 00
	00		 call	 DWORD PTR __imp_??0?$basic_string@DU?$char_traits@D@std@@V?$allocator@D@2@@std@@QAE@PBD@Z
  000d0	3b f4		 cmp	 esi, esp
  000d2	e8 00 00 00 00	 call	 __RTC_CheckEsp
  000d7	c6 45 fc 03	 mov	 BYTE PTR __$EHRec$[ebp+8], 3
  000db	8b f4		 mov	 esi, esp
  000dd	68 00 00 00 00	 push	 OFFSET FLAT:$SG191921
  000e2	8b 4d f0	 mov	 ecx, DWORD PTR _this$[ebp]
  000e5	81 c1 40 02 00
	00		 add	 ecx, 576		; 00000240H
  000eb	ff 15 00 00 00
	00		 call	 DWORD PTR __imp_??0?$basic_string@DU?$char_traits@D@std@@V?$allocator@D@2@@std@@QAE@PBD@Z
  000f1	3b f4		 cmp	 esi, esp
  000f3	e8 00 00 00 00	 call	 __RTC_CheckEsp
  000f8	c6 45 fc 04	 mov	 BYTE PTR __$EHRec$[ebp+8], 4
  000fc	8b 45 f0	 mov	 eax, DWORD PTR _this$[ebp]
  000ff	c7 80 5c 02 00
	00 ff ff ff ff	 mov	 DWORD PTR [eax+604], -1

; 23   : 	m_bTrackMouse = false;

  00109	8b 4d f0	 mov	 ecx, DWORD PTR _this$[ebp]
  0010c	c6 81 18 02 00
	00 00		 mov	 BYTE PTR [ecx+536], 0

; 24   : 	AfxGetMessageManager()->AttachMessage( ID_MESSAGE_QQ_ITEM_CHANGE,(IQQItemCountChangeObserver*)this );

  00113	83 7d f0 00	 cmp	 DWORD PTR _this$[ebp], 0
  00117	74 0e		 je	 SHORT $L195183
  00119	8b 55 f0	 mov	 edx, DWORD PTR _this$[ebp]
  0011c	81 c2 80 01 00
	00		 add	 edx, 384		; 00000180H
  00122	89 55 ec	 mov	 DWORD PTR tv141[ebp], edx
  00125	eb 07		 jmp	 SHORT $L195184
$L195183:
  00127	c7 45 ec 00 00
	00 00		 mov	 DWORD PTR tv141[ebp], 0
$L195184:
  0012e	e8 00 00 00 00	 call	 ?AfxGetMessageManager@@YAPAVIMessageManager@@XZ ; AfxGetMessageManager
  00133	89 45 e8	 mov	 DWORD PTR tv135[ebp], eax
  00136	8b f4		 mov	 esi, esp
  00138	6a 02		 push	 2
  0013a	8b 45 ec	 mov	 eax, DWORD PTR tv141[ebp]
  0013d	50		 push	 eax
  0013e	68 00 00 00 00	 push	 OFFSET FLAT:_ID_MESSAGE_QQ_ITEM_CHANGE
  00143	8b 4d e8	 mov	 ecx, DWORD PTR tv135[ebp]
  00146	8b 11		 mov	 edx, DWORD PTR [ecx]
  00148	8b 4d e8	 mov	 ecx, DWORD PTR tv135[ebp]
  0014b	ff 52 04	 call	 DWORD PTR [edx+4]
  0014e	3b f4		 cmp	 esi, esp
  00150	e8 00 00 00 00	 call	 __RTC_CheckEsp

; 25   : }

  00155	c7 45 fc ff ff
	ff ff		 mov	 DWORD PTR __$EHRec$[ebp+8], -1
  0015c	8b 45 f0	 mov	 eax, DWORD PTR _this$[ebp]
  0015f	8b 4d f4	 mov	 ecx, DWORD PTR __$EHRec$[ebp]
  00162	64 89 0d 00 00
	00 00		 mov	 DWORD PTR fs:__except_list, ecx
  00169	5e		 pop	 esi
  0016a	83 c4 18	 add	 esp, 24			; 00000018H
  0016d	3b ec		 cmp	 ebp, esp
  0016f	e8 00 00 00 00	 call	 __RTC_CheckEsp
  00174	8b e5		 mov	 esp, ebp
  00176	5d		 pop	 ebp
  00177	c3		 ret	 0
_TEXT	ENDS
text$x	SEGMENT
$L195185:
  00000	8b 4d f0	 mov	 ecx, DWORD PTR _this$[ebp]
  00003	e9 00 00 00 00	 jmp	 ??1CLocalMusicCoverList@@UAE@XZ ; CLocalMusicCoverList::~CLocalMusicCoverList
$L195186:
  00008	8b 4d f0	 mov	 ecx, DWORD PTR _this$[ebp]
  0000b	81 c1 80 01 00
	00		 add	 ecx, 384		; 00000180H
  00011	e9 00 00 00 00	 jmp	 ??1IQQItemCountChangeObserver@@UAE@XZ
$L195187:
  00016	8b 4d f0	 mov	 ecx, DWORD PTR _this$[ebp]
  00019	81 c1 88 01 00
	00		 add	 ecx, 392		; 00000188H
  0001f	e9 00 00 00 00	 jmp	 ??1CCWToolTips@@UAE@XZ	; CCWToolTips::~CCWToolTips
$L195188:
  00024	8b 4d f0	 mov	 ecx, DWORD PTR _this$[ebp]
  00027	81 c1 24 02 00
	00		 add	 ecx, 548		; 00000224H
  0002d	8b f4		 mov	 esi, esp
  0002f	ff 15 00 00 00
	00		 call	 DWORD PTR __imp_??1?$basic_string@DU?$char_traits@D@std@@V?$allocator@D@2@@std@@QAE@XZ
  00035	3b f4		 cmp	 esi, esp
  00037	e9 00 00 00 00	 jmp	 __RTC_CheckEsp
$L195189:
  0003c	8b 4d f0	 mov	 ecx, DWORD PTR _this$[ebp]
  0003f	81 c1 40 02 00
	00		 add	 ecx, 576		; 00000240H
  00045	8b f4		 mov	 esi, esp
  00047	ff 15 00 00 00
	00		 call	 DWORD PTR __imp_??1?$basic_string@DU?$char_traits@D@std@@V?$allocator@D@2@@std@@QAE@XZ
  0004d	3b f4		 cmp	 esi, esp
  0004f	e9 00 00 00 00	 jmp	 __RTC_CheckEsp
__ehhandler$??0PlayedGameWnd@@QAE@XZ:
  00054	b8 00 00 00 00	 mov	 eax, OFFSET FLAT:$T195193
  00059	e9 00 00 00 00	 jmp	 ___CxxFrameHandler
text$x	ENDS
??0PlayedGameWnd@@QAE@XZ ENDP				; PlayedGameWnd::PlayedGameWnd
PUBLIC	??1PlayedGameWnd@@UAE@XZ			; PlayedGameWnd::~PlayedGameWnd
EXTRN	??3CObject@@SGXPAX@Z:NEAR			; CObject::operator delete
; Function compile flags: /Odt /RTCsu
;	COMDAT ??_GPlayedGameWnd@@UAEPAXI@Z
_TEXT	SEGMENT
_this$ = -4						; size = 4
___flags$ = 8						; size = 4
??_GPlayedGameWnd@@UAEPAXI@Z PROC NEAR			; PlayedGameWnd::`scalar deleting destructor', COMDAT
; _this$ = ecx
  00000	55		 push	 ebp
  00001	8b ec		 mov	 ebp, esp
  00003	51		 push	 ecx
  00004	c7 45 fc cc cc
	cc cc		 mov	 DWORD PTR [ebp-4], -858993460 ; ccccccccH
  0000b	89 4d fc	 mov	 DWORD PTR _this$[ebp], ecx
  0000e	8b 4d fc	 mov	 ecx, DWORD PTR _this$[ebp]
  00011	e8 00 00 00 00	 call	 ??1PlayedGameWnd@@UAE@XZ ; PlayedGameWnd::~PlayedGameWnd
  00016	8b 45 08	 mov	 eax, DWORD PTR ___flags$[ebp]
  00019	83 e0 01	 and	 eax, 1
  0001c	74 09		 je	 SHORT $L191926
  0001e	8b 4d fc	 mov	 ecx, DWORD PTR _this$[ebp]
  00021	51		 push	 ecx
  00022	e8 00 00 00 00	 call	 ??3CObject@@SGXPAX@Z	; CObject::operator delete
$L191926:
  00027	8b 45 fc	 mov	 eax, DWORD PTR _this$[ebp]
  0002a	83 c4 04	 add	 esp, 4
  0002d	3b ec		 cmp	 ebp, esp
  0002f	e8 00 00 00 00	 call	 __RTC_CheckEsp
  00034	8b e5		 mov	 esp, ebp
  00036	5d		 pop	 ebp
  00037	c2 04 00	 ret	 4
??_GPlayedGameWnd@@UAEPAXI@Z ENDP			; PlayedGameWnd::`scalar deleting destructor'
_TEXT	ENDS
PUBLIC	??0IMessageObserver@@QAE@XZ			; IMessageObserver::IMessageObserver
PUBLIC	??_R1A@?0A@A@IMessageObserver@@8		; IMessageObserver::`RTTI Base Class Descriptor at (0,-1,0,0)'
PUBLIC	?IQQItemChangeOb_CountChange@IQQItemCountChangeObserver@@UAEXI@Z ; IQQItemCountChangeObserver::IQQItemChangeOb_CountChange
PUBLIC	??_7IQQItemCountChangeObserver@@6B@		; IQQItemCountChangeObserver::`vftable'
PUBLIC	??_GIQQItemCountChangeObserver@@UAEPAXI@Z	; IQQItemCountChangeObserver::`scalar deleting destructor'
PUBLIC	??_R4IQQItemCountChangeObserver@@6B@		; IQQItemCountChangeObserver::`RTTI Complete Object Locator'
PUBLIC	??_R3IQQItemCountChangeObserver@@8		; IQQItemCountChangeObserver::`RTTI Class Hierarchy Descriptor'
PUBLIC	??_R2IQQItemCountChangeObserver@@8		; IQQItemCountChangeObserver::`RTTI Base Class Array'
PUBLIC	??_R1A@?0A@A@IQQItemCountChangeObserver@@8	; IQQItemCountChangeObserver::`RTTI Base Class Descriptor at (0,-1,0,0)'
EXTRN	??_EIQQItemCountChangeObserver@@UAEPAXI@Z:NEAR	; IQQItemCountChangeObserver::`vector deleting destructor'
;	COMDAT ??_7IQQItemCountChangeObserver@@6B@
CONST	SEGMENT
??_7IQQItemCountChangeObserver@@6B@ DD FLAT:??_R4IQQItemCountChangeObserver@@6B@ ; IQQItemCountChangeObserver::`vftable'
	DD	FLAT:??_EIQQItemCountChangeObserver@@UAEPAXI@Z
	DD	FLAT:?IQQItemChangeOb_CountChange@IQQItemCountChangeObserver@@UAEXI@Z
CONST	ENDS
;	COMDAT ??_R4IQQItemCountChangeObserver@@6B@
rdata$r	SEGMENT
??_R4IQQItemCountChangeObserver@@6B@ DD 00H		; IQQItemCountChangeObserver::`RTTI Complete Object Locator'
	DD	00H
	DD	00H
	DD	FLAT:??_R0?AVIQQItemCountChangeObserver@@@8
	DD	FLAT:??_R3IQQItemCountChangeObserver@@8
rdata$r	ENDS
;	COMDAT ??_R3IQQItemCountChangeObserver@@8
rdata$r	SEGMENT
??_R3IQQItemCountChangeObserver@@8 DD 00H		; IQQItemCountChangeObserver::`RTTI Class Hierarchy Descriptor'
	DD	00H
	DD	02H
	DD	FLAT:??_R2IQQItemCountChangeObserver@@8
rdata$r	ENDS
;	COMDAT ??_R2IQQItemCountChangeObserver@@8
rdata$r	SEGMENT
??_R2IQQItemCountChangeObserver@@8 DD FLAT:??_R1A@?0A@A@IQQItemCountChangeObserver@@8 ; IQQItemCountChangeObserver::`RTTI Base Class Array'
	DD	FLAT:??_R1A@?0A@A@IMessageObserver@@8
rdata$r	ENDS
;	COMDAT ??_R1A@?0A@A@IQQItemCountChangeObserver@@8
rdata$r	SEGMENT
??_R1A@?0A@A@IQQItemCountChangeObserver@@8 DD FLAT:??_R0?AVIQQItemCountChangeObserver@@@8 ; IQQItemCountChangeObserver::`RTTI Base Class Descriptor at (0,-1,0,0)'
	DD	01H
	DD	00H
	DD	0ffffffffH
	DD	00H
	DD	00H
rdata$r	ENDS
;	COMDAT ??_R1A@?0A@A@IMessageObserver@@8
rdata$r	SEGMENT
??_R1A@?0A@A@IMessageObserver@@8 DD FLAT:??_R0?AVIMessageObserver@@@8 ; IMessageObserver::`RTTI Base Class Descriptor at (0,-1,0,0)'
	DD	00H
	DD	00H
	DD	0ffffffffH
	DD	00H
	DD	00H
; Function compile flags: /Odt /RTCsu
rdata$r	ENDS
;	COMDAT ??0IQQItemCountChangeObserver@@QAE@XZ
_TEXT	SEGMENT
_this$ = -4						; size = 4
??0IQQItemCountChangeObserver@@QAE@XZ PROC NEAR		; IQQItemCountChangeObserver::IQQItemCountChangeObserver, COMDAT
; _this$ = ecx
  00000	55		 push	 ebp
  00001	8b ec		 mov	 ebp, esp
  00003	51		 push	 ecx
  00004	c7 45 fc cc cc
	cc cc		 mov	 DWORD PTR [ebp-4], -858993460 ; ccccccccH
  0000b	89 4d fc	 mov	 DWORD PTR _this$[ebp], ecx
  0000e	8b 4d fc	 mov	 ecx, DWORD PTR _this$[ebp]
  00011	e8 00 00 00 00	 call	 ??0IMessageObserver@@QAE@XZ
  00016	8b 45 fc	 mov	 eax, DWORD PTR _this$[ebp]
  00019	c7 00 00 00 00
	00		 mov	 DWORD PTR [eax], OFFSET FLAT:??_7IQQItemCountChangeObserver@@6B@
  0001f	8b 45 fc	 mov	 eax, DWORD PTR _this$[ebp]
  00022	83 c4 04	 add	 esp, 4
  00025	3b ec		 cmp	 ebp, esp
  00027	e8 00 00 00 00	 call	 __RTC_CheckEsp
  0002c	8b e5		 mov	 esp, ebp
  0002e	5d		 pop	 ebp
  0002f	c3		 ret	 0
??0IQQItemCountChangeObserver@@QAE@XZ ENDP		; IQQItemCountChangeObserver::IQQItemCountChangeObserver
; Function compile flags: /Odt /RTCsu
; File d:\boxgit\playbox\playbox\dev\prj\playbox\src\datainterface\iqqitemcountchangeobserver.h
_TEXT	ENDS
;	COMDAT ?IQQItemChangeOb_CountChange@IQQItemCountChangeObserver@@UAEXI@Z
_TEXT	SEGMENT
_this$ = -4						; size = 4
_iNewCount$ = 8						; size = 4
?IQQItemChangeOb_CountChange@IQQItemCountChangeObserver@@UAEXI@Z PROC NEAR ; IQQItemCountChangeObserver::IQQItemChangeOb_CountChange, COMDAT
; _this$ = ecx

; 9    : 	virtual void IQQItemChangeOb_CountChange( unsigned int iNewCount ){};

  00000	55		 push	 ebp
  00001	8b ec		 mov	 ebp, esp
  00003	51		 push	 ecx
  00004	c7 45 fc cc cc
	cc cc		 mov	 DWORD PTR [ebp-4], -858993460 ; ccccccccH
  0000b	89 4d fc	 mov	 DWORD PTR _this$[ebp], ecx
  0000e	8b e5		 mov	 esp, ebp
  00010	5d		 pop	 ebp
  00011	c2 04 00	 ret	 4
?IQQItemChangeOb_CountChange@IQQItemCountChangeObserver@@UAEXI@Z ENDP ; IQQItemCountChangeObserver::IQQItemChangeOb_CountChange
_TEXT	ENDS
PUBLIC	??1IMessageObserver@@UAE@XZ			; IMessageObserver::~IMessageObserver
; Function compile flags: /Odt /RTCsu
;	COMDAT ??1IQQItemCountChangeObserver@@UAE@XZ
_TEXT	SEGMENT
_this$ = -4						; size = 4
??1IQQItemCountChangeObserver@@UAE@XZ PROC NEAR		; IQQItemCountChangeObserver::~IQQItemCountChangeObserver, COMDAT
; _this$ = ecx
  00000	55		 push	 ebp
  00001	8b ec		 mov	 ebp, esp
  00003	51		 push	 ecx
  00004	c7 45 fc cc cc
	cc cc		 mov	 DWORD PTR [ebp-4], -858993460 ; ccccccccH
  0000b	89 4d fc	 mov	 DWORD PTR _this$[ebp], ecx
  0000e	8b 4d fc	 mov	 ecx, DWORD PTR _this$[ebp]
  00011	e8 00 00 00 00	 call	 ??1IMessageObserver@@UAE@XZ ; IMessageObserver::~IMessageObserver
  00016	83 c4 04	 add	 esp, 4
  00019	3b ec		 cmp	 ebp, esp
  0001b	e8 00 00 00 00	 call	 __RTC_CheckEsp
  00020	8b e5		 mov	 esp, ebp
  00022	5d		 pop	 ebp
  00023	c3		 ret	 0
??1IQQItemCountChangeObserver@@UAE@XZ ENDP		; IQQItemCountChangeObserver::~IQQItemCountChangeObserver
_TEXT	ENDS
EXTRN	??3@YAXPAX@Z:NEAR				; operator delete
; Function compile flags: /Odt /RTCsu
;	COMDAT ??_GIQQItemCountChangeObserver@@UAEPAXI@Z
_TEXT	SEGMENT
_this$ = -4						; size = 4
___flags$ = 8						; size = 4
??_GIQQItemCountChangeObserver@@UAEPAXI@Z PROC NEAR	; IQQItemCountChangeObserver::`scalar deleting destructor', COMDAT
; _this$ = ecx
  00000	55		 push	 ebp
  00001	8b ec		 mov	 ebp, esp
  00003	51		 push	 ecx
  00004	c7 45 fc cc cc
	cc cc		 mov	 DWORD PTR [ebp-4], -858993460 ; ccccccccH
  0000b	89 4d fc	 mov	 DWORD PTR _this$[ebp], ecx
  0000e	8b 4d fc	 mov	 ecx, DWORD PTR _this$[ebp]
  00011	e8 00 00 00 00	 call	 ??1IQQItemCountChangeObserver@@UAE@XZ
  00016	8b 45 08	 mov	 eax, DWORD PTR ___flags$[ebp]
  00019	83 e0 01	 and	 eax, 1
  0001c	74 0c		 je	 SHORT $L191934
  0001e	8b 4d fc	 mov	 ecx, DWORD PTR _this$[ebp]
  00021	51		 push	 ecx
  00022	e8 00 00 00 00	 call	 ??3@YAXPAX@Z		; operator delete
  00027	83 c4 04	 add	 esp, 4
$L191934:
  0002a	8b 45 fc	 mov	 eax, DWORD PTR _this$[ebp]
  0002d	83 c4 04	 add	 esp, 4
  00030	3b ec		 cmp	 ebp, esp
  00032	e8 00 00 00 00	 call	 __RTC_CheckEsp
  00037	8b e5		 mov	 esp, ebp
  00039	5d		 pop	 ebp
  0003a	c2 04 00	 ret	 4
??_GIQQItemCountChangeObserver@@UAEPAXI@Z ENDP		; IQQItemCountChangeObserver::`scalar deleting destructor'
_TEXT	ENDS
PUBLIC	??_7IMessageObserver@@6B@			; IMessageObserver::`vftable'
PUBLIC	??_GIMessageObserver@@UAEPAXI@Z			; IMessageObserver::`scalar deleting destructor'
PUBLIC	??_R4IMessageObserver@@6B@			; IMessageObserver::`RTTI Complete Object Locator'
PUBLIC	??_R3IMessageObserver@@8			; IMessageObserver::`RTTI Class Hierarchy Descriptor'
PUBLIC	??_R2IMessageObserver@@8			; IMessageObserver::`RTTI Base Class Array'
EXTRN	??_EIMessageObserver@@UAEPAXI@Z:NEAR		; IMessageObserver::`vector deleting destructor'
;	COMDAT ??_7IMessageObserver@@6B@
CONST	SEGMENT
??_7IMessageObserver@@6B@ DD FLAT:??_R4IMessageObserver@@6B@ ; IMessageObserver::`vftable'
	DD	FLAT:??_EIMessageObserver@@UAEPAXI@Z
CONST	ENDS
;	COMDAT ??_R4IMessageObserver@@6B@
rdata$r	SEGMENT
??_R4IMessageObserver@@6B@ DD 00H			; IMessageObserver::`RTTI Complete Object Locator'
	DD	00H
	DD	00H
	DD	FLAT:??_R0?AVIMessageObserver@@@8
	DD	FLAT:??_R3IMessageObserver@@8
rdata$r	ENDS
;	COMDAT ??_R3IMessageObserver@@8
rdata$r	SEGMENT
??_R3IMessageObserver@@8 DD 00H				; IMessageObserver::`RTTI Class Hierarchy Descriptor'
	DD	00H
	DD	01H
	DD	FLAT:??_R2IMessageObserver@@8
rdata$r	ENDS
;	COMDAT ??_R2IMessageObserver@@8
rdata$r	SEGMENT
??_R2IMessageObserver@@8 DD FLAT:??_R1A@?0A@A@IMessageObserver@@8 ; IMessageObserver::`RTTI Base Class Array'
; Function compile flags: /Odt /RTCsu
rdata$r	ENDS
;	COMDAT ??0IMessageObserver@@QAE@XZ
_TEXT	SEGMENT
_this$ = -4						; size = 4
??0IMessageObserver@@QAE@XZ PROC NEAR			; IMessageObserver::IMessageObserver, COMDAT
; _this$ = ecx
  00000	55		 push	 ebp
  00001	8b ec		 mov	 ebp, esp
  00003	51		 push	 ecx
  00004	c7 45 fc cc cc
	cc cc		 mov	 DWORD PTR [ebp-4], -858993460 ; ccccccccH
  0000b	89 4d fc	 mov	 DWORD PTR _this$[ebp], ecx
  0000e	8b 45 fc	 mov	 eax, DWORD PTR _this$[ebp]
  00011	c7 00 00 00 00
	00		 mov	 DWORD PTR [eax], OFFSET FLAT:??_7IMessageObserver@@6B@
  00017	8b 45 fc	 mov	 eax, DWORD PTR _this$[ebp]
  0001a	8b e5		 mov	 esp, ebp
  0001c	5d		 pop	 ebp
  0001d	c3		 ret	 0
??0IMessageObserver@@QAE@XZ ENDP			; IMessageObserver::IMessageObserver
_TEXT	ENDS
xdata$x	SEGMENT
$T195221 DD	0ffffffffH
	DD	FLAT:$L195211
	DD	00H
	DD	FLAT:$L195214
	DD	01H
	DD	FLAT:$L195215
	DD	02H
	DD	FLAT:$L195216
	DD	03H
	DD	FLAT:$L195217
$T195219 DD	019930520H
	DD	05H
	DD	FLAT:$T195221
	DD	2 DUP(00H)
	DD	2 DUP(00H)
; Function compile flags: /Odt /RTCsu
; File d:\boxgit\playbox\playbox\dev\prj\playbox\src\module\playedgamepanel\playedgamewnd.cpp
xdata$x	ENDS
_TEXT	SEGMENT
tv68 = -28						; size = 4
tv84 = -24						; size = 4
tv89 = -20						; size = 4
_this$ = -16						; size = 4
__$EHRec$ = -12						; size = 12
??1PlayedGameWnd@@UAE@XZ PROC NEAR			; PlayedGameWnd::~PlayedGameWnd
; _this$ = ecx

; 28   : {

  00180	55		 push	 ebp
  00181	8b ec		 mov	 ebp, esp
  00183	6a ff		 push	 -1
  00185	68 00 00 00 00	 push	 __ehhandler$??1PlayedGameWnd@@UAE@XZ
  0018a	64 a1 00 00 00
	00		 mov	 eax, DWORD PTR fs:__except_list
  00190	50		 push	 eax
  00191	64 89 25 00 00
	00 00		 mov	 DWORD PTR fs:__except_list, esp
  00198	83 ec 10	 sub	 esp, 16			; 00000010H
  0019b	56		 push	 esi
  0019c	b8 cc cc cc cc	 mov	 eax, -858993460		; ccccccccH
  001a1	89 45 e4	 mov	 DWORD PTR [ebp-28], eax
  001a4	89 45 e8	 mov	 DWORD PTR [ebp-24], eax
  001a7	89 45 ec	 mov	 DWORD PTR [ebp-20], eax
  001aa	89 45 f0	 mov	 DWORD PTR [ebp-16], eax
  001ad	89 4d f0	 mov	 DWORD PTR _this$[ebp], ecx
  001b0	8b 45 f0	 mov	 eax, DWORD PTR _this$[ebp]
  001b3	c7 00 00 00 00
	00		 mov	 DWORD PTR [eax], OFFSET FLAT:??_7PlayedGameWnd@@6BCLocalMusicCoverList@@@
  001b9	8b 4d f0	 mov	 ecx, DWORD PTR _this$[ebp]
  001bc	c7 81 80 01 00
	00 00 00 00 00	 mov	 DWORD PTR [ecx+384], OFFSET FLAT:??_7PlayedGameWnd@@6BIQQItemCountChangeObserver@@@
  001c6	c7 45 fc 04 00
	00 00		 mov	 DWORD PTR __$EHRec$[ebp+8], 4

; 29   : 	AfxGetMessageManager()->DetachMessage( ID_MESSAGE_QQ_ITEM_CHANGE,(IQQItemCountChangeObserver*)this );

  001cd	83 7d f0 00	 cmp	 DWORD PTR _this$[ebp], 0
  001d1	74 0e		 je	 SHORT $L195209
  001d3	8b 55 f0	 mov	 edx, DWORD PTR _this$[ebp]
  001d6	81 c2 80 01 00
	00		 add	 edx, 384		; 00000180H
  001dc	89 55 ec	 mov	 DWORD PTR tv89[ebp], edx
  001df	eb 07		 jmp	 SHORT $L195210
$L195209:
  001e1	c7 45 ec 00 00
	00 00		 mov	 DWORD PTR tv89[ebp], 0
$L195210:
  001e8	e8 00 00 00 00	 call	 ?AfxGetMessageManager@@YAPAVIMessageManager@@XZ ; AfxGetMessageManager
  001ed	89 45 e8	 mov	 DWORD PTR tv84[ebp], eax
  001f0	8b f4		 mov	 esi, esp
  001f2	8b 45 ec	 mov	 eax, DWORD PTR tv89[ebp]
  001f5	50		 push	 eax
  001f6	68 00 00 00 00	 push	 OFFSET FLAT:_ID_MESSAGE_QQ_ITEM_CHANGE
  001fb	8b 4d e8	 mov	 ecx, DWORD PTR tv84[ebp]
  001fe	8b 11		 mov	 edx, DWORD PTR [ecx]
  00200	8b 4d e8	 mov	 ecx, DWORD PTR tv84[ebp]
  00203	ff 52 08	 call	 DWORD PTR [edx+8]
  00206	3b f4		 cmp	 esi, esp
  00208	e8 00 00 00 00	 call	 __RTC_CheckEsp

; 30   : }

  0020d	c6 45 fc 03	 mov	 BYTE PTR __$EHRec$[ebp+8], 3
  00211	8b 4d f0	 mov	 ecx, DWORD PTR _this$[ebp]
  00214	81 c1 40 02 00
	00		 add	 ecx, 576		; 00000240H
  0021a	8b f4		 mov	 esi, esp
  0021c	ff 15 00 00 00
	00		 call	 DWORD PTR __imp_??1?$basic_string@DU?$char_traits@D@std@@V?$allocator@D@2@@std@@QAE@XZ
  00222	3b f4		 cmp	 esi, esp
  00224	e8 00 00 00 00	 call	 __RTC_CheckEsp
  00229	c6 45 fc 02	 mov	 BYTE PTR __$EHRec$[ebp+8], 2
  0022d	8b 4d f0	 mov	 ecx, DWORD PTR _this$[ebp]
  00230	81 c1 24 02 00
	00		 add	 ecx, 548		; 00000224H
  00236	8b f4		 mov	 esi, esp
  00238	ff 15 00 00 00
	00		 call	 DWORD PTR __imp_??1?$basic_string@DU?$char_traits@D@std@@V?$allocator@D@2@@std@@QAE@XZ
  0023e	3b f4		 cmp	 esi, esp
  00240	e8 00 00 00 00	 call	 __RTC_CheckEsp
  00245	c6 45 fc 01	 mov	 BYTE PTR __$EHRec$[ebp+8], 1
  00249	8b 4d f0	 mov	 ecx, DWORD PTR _this$[ebp]
  0024c	81 c1 88 01 00
	00		 add	 ecx, 392		; 00000188H
  00252	e8 00 00 00 00	 call	 ??1CCWToolTips@@UAE@XZ	; CCWToolTips::~CCWToolTips
  00257	c6 45 fc 00	 mov	 BYTE PTR __$EHRec$[ebp+8], 0
  0025b	83 7d f0 00	 cmp	 DWORD PTR _this$[ebp], 0
  0025f	74 0d		 je	 SHORT $L195207
  00261	8b 45 f0	 mov	 eax, DWORD PTR _this$[ebp]
  00264	05 80 01 00 00	 add	 eax, 384		; 00000180H
  00269	89 45 e4	 mov	 DWORD PTR tv68[ebp], eax
  0026c	eb 07		 jmp	 SHORT $L195208
$L195207:
  0026e	c7 45 e4 00 00
	00 00		 mov	 DWORD PTR tv68[ebp], 0
$L195208:
  00275	8b 4d e4	 mov	 ecx, DWORD PTR tv68[ebp]
  00278	e8 00 00 00 00	 call	 ??1IQQItemCountChangeObserver@@UAE@XZ
  0027d	c7 45 fc ff ff
	ff ff		 mov	 DWORD PTR __$EHRec$[ebp+8], -1
  00284	8b 4d f0	 mov	 ecx, DWORD PTR _this$[ebp]
  00287	e8 00 00 00 00	 call	 ??1CLocalMusicCoverList@@UAE@XZ ; CLocalMusicCoverList::~CLocalMusicCoverList
  0028c	8b 4d f4	 mov	 ecx, DWORD PTR __$EHRec$[ebp]
  0028f	64 89 0d 00 00
	00 00		 mov	 DWORD PTR fs:__except_list, ecx
  00296	5e		 pop	 esi
  00297	83 c4 1c	 add	 esp, 28			; 0000001cH
  0029a	3b ec		 cmp	 ebp, esp
  0029c	e8 00 00 00 00	 call	 __RTC_CheckEsp
  002a1	8b e5		 mov	 esp, ebp
  002a3	5d		 pop	 ebp
  002a4	c3		 ret	 0
_TEXT	ENDS
text$x	SEGMENT
$L195211:
  0005e	8b 4d f0	 mov	 ecx, DWORD PTR _this$[ebp]
  00061	e9 00 00 00 00	 jmp	 ??1CLocalMusicCoverList@@UAE@XZ ; CLocalMusicCoverList::~CLocalMusicCoverList
$L195214:
  00066	83 7d f0 00	 cmp	 DWORD PTR _this$[ebp], 0
  0006a	0f 84 10 00 00
	00		 je	 $L195212
  00070	8b 45 f0	 mov	 eax, DWORD PTR _this$[ebp]
  00073	05 80 01 00 00	 add	 eax, 384		; 00000180H
  00078	89 45 e4	 mov	 DWORD PTR tv68[ebp], eax
  0007b	e9 07 00 00 00	 jmp	 $L195213
$L195212:
  00080	c7 45 e4 00 00
	00 00		 mov	 DWORD PTR tv68[ebp], 0
$L195213:
  00087	8b 4d e4	 mov	 ecx, DWORD PTR tv68[ebp]
  0008a	e9 00 00 00 00	 jmp	 ??1IQQItemCountChangeObserver@@UAE@XZ
$L195215:
  0008f	8b 4d f0	 mov	 ecx, DWORD PTR _this$[ebp]
  00092	81 c1 88 01 00
	00		 add	 ecx, 392		; 00000188H
  00098	e9 00 00 00 00	 jmp	 ??1CCWToolTips@@UAE@XZ	; CCWToolTips::~CCWToolTips
$L195216:
  0009d	8b 4d f0	 mov	 ecx, DWORD PTR _this$[ebp]
  000a0	81 c1 24 02 00
	00		 add	 ecx, 548		; 00000224H
  000a6	8b f4		 mov	 esi, esp
  000a8	ff 15 00 00 00
	00		 call	 DWORD PTR __imp_??1?$basic_string@DU?$char_traits@D@std@@V?$allocator@D@2@@std@@QAE@XZ
  000ae	3b f4		 cmp	 esi, esp
  000b0	e9 00 00 00 00	 jmp	 __RTC_CheckEsp
$L195217:
  000b5	8b 4d f0	 mov	 ecx, DWORD PTR _this$[ebp]
  000b8	81 c1 40 02 00
	00		 add	 ecx, 576		; 00000240H
  000be	8b f4		 mov	 esi, esp
  000c0	ff 15 00 00 00
	00		 call	 DWORD PTR __imp_??1?$basic_string@DU?$char_traits@D@std@@V?$allocator@D@2@@std@@QAE@XZ
  000c6	3b f4		 cmp	 esi, esp
  000c8	e9 00 00 00 00	 jmp	 __RTC_CheckEsp
__ehhandler$??1PlayedGameWnd@@UAE@XZ:
  000cd	b8 00 00 00 00	 mov	 eax, OFFSET FLAT:$T195219
  000d2	e9 00 00 00 00	 jmp	 ___CxxFrameHandler
text$x	ENDS
??1PlayedGameWnd@@UAE@XZ ENDP				; PlayedGameWnd::~PlayedGameWnd
PUBLIC	?GetThisMessageMap@PlayedGameWnd@@KGPBUAFX_MSGMAP@@XZ ; PlayedGameWnd::GetThisMessageMap
; Function compile flags: /Odt /RTCsu
_TEXT	SEGMENT
?GetThisMessageMap@PlayedGameWnd@@KGPBUAFX_MSGMAP@@XZ PROC NEAR ; PlayedGameWnd::GetThisMessageMap

; 32   : BEGIN_MESSAGE_MAP(PlayedGameWnd, CLocalMusicCoverList)

  002b0	55		 push	 ebp
  002b1	8b ec		 mov	 ebp, esp
  002b3	b8 00 00 00 00	 mov	 eax, OFFSET FLAT:?messageMap@PlayedGameWnd@@1UAFX_MSGMAP@@B ; PlayedGameWnd::messageMap
  002b8	5d		 pop	 ebp
  002b9	c3		 ret	 0
?GetThisMessageMap@PlayedGameWnd@@KGPBUAFX_MSGMAP@@XZ ENDP ; PlayedGameWnd::GetThisMessageMap
; Function compile flags: /Odt /RTCsu
_this$ = -4						; size = 4
?GetMessageMap@PlayedGameWnd@@MBEPBUAFX_MSGMAP@@XZ PROC NEAR ; PlayedGameWnd::GetMessageMap
; _this$ = ecx

; 32   : BEGIN_MESSAGE_MAP(PlayedGameWnd, CLocalMusicCoverList)

  002c0	55		 push	 ebp
  002c1	8b ec		 mov	 ebp, esp
  002c3	51		 push	 ecx
  002c4	c7 45 fc cc cc
	cc cc		 mov	 DWORD PTR [ebp-4], -858993460 ; ccccccccH
  002cb	89 4d fc	 mov	 DWORD PTR _this$[ebp], ecx
  002ce	b8 00 00 00 00	 mov	 eax, OFFSET FLAT:?messageMap@PlayedGameWnd@@1UAFX_MSGMAP@@B ; PlayedGameWnd::messageMap
  002d3	8b e5		 mov	 esp, ebp
  002d5	5d		 pop	 ebp
  002d6	c3		 ret	 0
?GetMessageMap@PlayedGameWnd@@MBEPBUAFX_MSGMAP@@XZ ENDP	; PlayedGameWnd::GetMessageMap
_TEXT	ENDS
PUBLIC	?ReGetData@PlayedGameWnd@@IAEHXZ		; PlayedGameWnd::ReGetData
EXTRN	?OnShowWindow@CLocalMusicCoverList@@QAEXHI@Z:NEAR ; CLocalMusicCoverList::OnShowWindow
; Function compile flags: /Odt /RTCsu
_TEXT	SEGMENT
_this$ = -4						; size = 4
_bShow$ = 8						; size = 4
_nStatus$ = 12						; size = 4
?OnShowWindow@PlayedGameWnd@@IAEXHI@Z PROC NEAR		; PlayedGameWnd::OnShowWindow
; _this$ = ecx

; 47   : {

  002e0	55		 push	 ebp
  002e1	8b ec		 mov	 ebp, esp
  002e3	51		 push	 ecx
  002e4	c7 45 fc cc cc
	cc cc		 mov	 DWORD PTR [ebp-4], -858993460 ; ccccccccH
  002eb	89 4d fc	 mov	 DWORD PTR _this$[ebp], ecx

; 48   : 	if (bShow)

  002ee	83 7d 08 00	 cmp	 DWORD PTR _bShow$[ebp], 0
  002f2	74 08		 je	 SHORT $L192018

; 49   : 	{
; 50   : 		ReGetData();

  002f4	8b 4d fc	 mov	 ecx, DWORD PTR _this$[ebp]
  002f7	e8 00 00 00 00	 call	 ?ReGetData@PlayedGameWnd@@IAEHXZ ; PlayedGameWnd::ReGetData
$L192018:

; 51   : 	}
; 52   : 	__super::OnShowWindow(bShow, nStatus);

  002fc	8b 45 0c	 mov	 eax, DWORD PTR _nStatus$[ebp]
  002ff	50		 push	 eax
  00300	8b 4d 08	 mov	 ecx, DWORD PTR _bShow$[ebp]
  00303	51		 push	 ecx
  00304	8b 4d fc	 mov	 ecx, DWORD PTR _this$[ebp]
  00307	e8 00 00 00 00	 call	 ?OnShowWindow@CLocalMusicCoverList@@QAEXHI@Z ; CLocalMusicCoverList::OnShowWindow

; 53   : }

  0030c	83 c4 04	 add	 esp, 4
  0030f	3b ec		 cmp	 ebp, esp
  00311	e8 00 00 00 00	 call	 __RTC_CheckEsp
  00316	8b e5		 mov	 esp, ebp
  00318	5d		 pop	 ebp
  00319	c2 08 00	 ret	 8
?OnShowWindow@PlayedGameWnd@@IAEXHI@Z ENDP		; PlayedGameWnd::OnShowWindow
_TEXT	ENDS
PUBLIC	??_GCShowMenu@@QAEPAXI@Z			; CShowMenu::`scalar deleting destructor'
EXTRN	??2@YAPAXI@Z:NEAR				; operator new
EXTRN	?HitTest@CLocalMusicCoverList@@IAEHAAHVCPoint@@@Z:NEAR ; CLocalMusicCoverList::HitTest
EXTRN	??0CShowMenu@@QAE@PAVCWnd@@KK@Z:NEAR		; CShowMenu::CShowMenu
EXTRN	?DisableItem@CShowMenu@@QAEXK@Z:NEAR		; CShowMenu::DisableItem
EXTRN	?ShowMenu@CShowMenu@@QAEXABVCPoint@@@Z:NEAR	; CShowMenu::ShowMenu
EXTRN	?ClientToScreen@CWnd@@QBEXPAUtagPOINT@@@Z:NEAR	; CWnd::ClientToScreen
EXTRN	?OnRButtonUp@CLocalMusicCoverList@@QAEXIVCPoint@@@Z:NEAR ; CLocalMusicCoverList::OnRButtonUp
xdata$x	SEGMENT
$T195238 DD	0ffffffffH
	DD	FLAT:$L195234
$T195236 DD	019930520H
	DD	01H
	DD	FLAT:$T195238
	DD	2 DUP(00H)
	DD	2 DUP(00H)
; Function compile flags: /Odt /RTCsu
xdata$x	ENDS
_TEXT	SEGMENT
tv131 = -40						; size = 4
tv78 = -36						; size = 4
$T195231 = -32						; size = 4
$T195230 = -28						; size = 4
$T195227 = -24						; size = 4
$T195226 = -20						; size = 4
_this$ = -16						; size = 4
__$EHRec$ = -12						; size = 12
_nFlags$ = 8						; size = 4
_point$ = 12						; size = 8
?OnRButtonUp@PlayedGameWnd@@IAEXIVCPoint@@@Z PROC NEAR	; PlayedGameWnd::OnRButtonUp
; _this$ = ecx

; 56   : {

  00320	55		 push	 ebp
  00321	8b ec		 mov	 ebp, esp
  00323	6a ff		 push	 -1
  00325	68 00 00 00 00	 push	 __ehhandler$?OnRButtonUp@PlayedGameWnd@@IAEXIVCPoint@@@Z
  0032a	64 a1 00 00 00
	00		 mov	 eax, DWORD PTR fs:__except_list
  00330	50		 push	 eax
  00331	64 89 25 00 00
	00 00		 mov	 DWORD PTR fs:__except_list, esp
  00338	83 ec 1c	 sub	 esp, 28			; 0000001cH
  0033b	b8 cc cc cc cc	 mov	 eax, -858993460		; ccccccccH
  00340	89 45 d8	 mov	 DWORD PTR [ebp-40], eax
  00343	89 45 dc	 mov	 DWORD PTR [ebp-36], eax
  00346	89 45 e0	 mov	 DWORD PTR [ebp-32], eax
  00349	89 45 e4	 mov	 DWORD PTR [ebp-28], eax
  0034c	89 45 e8	 mov	 DWORD PTR [ebp-24], eax
  0034f	89 45 ec	 mov	 DWORD PTR [ebp-20], eax
  00352	89 45 f0	 mov	 DWORD PTR [ebp-16], eax
  00355	89 4d f0	 mov	 DWORD PTR _this$[ebp], ecx

; 57   : 	__super::OnRButtonUp(nFlags, point);

  00358	8b 45 10	 mov	 eax, DWORD PTR _point$[ebp+4]
  0035b	50		 push	 eax
  0035c	8b 4d 0c	 mov	 ecx, DWORD PTR _point$[ebp]
  0035f	51		 push	 ecx
  00360	8b 55 08	 mov	 edx, DWORD PTR _nFlags$[ebp]
  00363	52		 push	 edx
  00364	8b 4d f0	 mov	 ecx, DWORD PTR _this$[ebp]
  00367	e8 00 00 00 00	 call	 ?OnRButtonUp@CLocalMusicCoverList@@QAEXIVCPoint@@@Z ; CLocalMusicCoverList::OnRButtonUp

; 58   : 
; 59   : 	m_pMenu = new CShowMenu(this,IDR_MENU_COVERLIST);

  0036c	6a 6c		 push	 108			; 0000006cH
  0036e	e8 00 00 00 00	 call	 ??2@YAPAXI@Z		; operator new
  00373	83 c4 04	 add	 esp, 4
  00376	89 45 e8	 mov	 DWORD PTR $T195227[ebp], eax
  00379	c7 45 fc 00 00
	00 00		 mov	 DWORD PTR __$EHRec$[ebp+8], 0
  00380	83 7d e8 00	 cmp	 DWORD PTR $T195227[ebp], 0
  00384	74 18		 je	 SHORT $L195228
  00386	6a 00		 push	 0
  00388	68 8c 00 00 00	 push	 140			; 0000008cH
  0038d	8b 45 f0	 mov	 eax, DWORD PTR _this$[ebp]
  00390	50		 push	 eax
  00391	8b 4d e8	 mov	 ecx, DWORD PTR $T195227[ebp]
  00394	e8 00 00 00 00	 call	 ??0CShowMenu@@QAE@PAVCWnd@@KK@Z ; CShowMenu::CShowMenu
  00399	89 45 dc	 mov	 DWORD PTR tv78[ebp], eax
  0039c	eb 07		 jmp	 SHORT $L195229
$L195228:
  0039e	c7 45 dc 00 00
	00 00		 mov	 DWORD PTR tv78[ebp], 0
$L195229:
  003a5	8b 4d dc	 mov	 ecx, DWORD PTR tv78[ebp]
  003a8	89 4d ec	 mov	 DWORD PTR $T195226[ebp], ecx
  003ab	c7 45 fc ff ff
	ff ff		 mov	 DWORD PTR __$EHRec$[ebp+8], -1
  003b2	8b 55 f0	 mov	 edx, DWORD PTR _this$[ebp]
  003b5	8b 45 ec	 mov	 eax, DWORD PTR $T195226[ebp]
  003b8	89 82 84 01 00
	00		 mov	 DWORD PTR [edx+388], eax

; 60   : 	if( !HitTest(m_iMouseDownItem,point) )

  003be	8b 4d 10	 mov	 ecx, DWORD PTR _point$[ebp+4]
  003c1	51		 push	 ecx
  003c2	8b 55 0c	 mov	 edx, DWORD PTR _point$[ebp]
  003c5	52		 push	 edx
  003c6	8b 45 f0	 mov	 eax, DWORD PTR _this$[ebp]
  003c9	05 1c 02 00 00	 add	 eax, 540		; 0000021cH
  003ce	50		 push	 eax
  003cf	8b 4d f0	 mov	 ecx, DWORD PTR _this$[ebp]
  003d2	e8 00 00 00 00	 call	 ?HitTest@CLocalMusicCoverList@@IAEHAAHVCPoint@@@Z ; CLocalMusicCoverList::HitTest
  003d7	85 c0		 test	 eax, eax
  003d9	75 13		 jne	 SHORT $L192028

; 61   : 	{
; 62   :         //
; 63   : 		m_pMenu->DisableItem( ID_CL_DELFROMDISK );		

  003db	68 0a 80 00 00	 push	 32778			; 0000800aH
  003e0	8b 4d f0	 mov	 ecx, DWORD PTR _this$[ebp]
  003e3	8b 89 84 01 00
	00		 mov	 ecx, DWORD PTR [ecx+388]
  003e9	e8 00 00 00 00	 call	 ?DisableItem@CShowMenu@@QAEXK@Z ; CShowMenu::DisableItem
$L192028:

; 64   : 	}
; 65   : 	ClientToScreen(&point);

  003ee	8d 55 0c	 lea	 edx, DWORD PTR _point$[ebp]
  003f1	52		 push	 edx
  003f2	8b 4d f0	 mov	 ecx, DWORD PTR _this$[ebp]
  003f5	e8 00 00 00 00	 call	 ?ClientToScreen@CWnd@@QBEXPAUtagPOINT@@@Z ; CWnd::ClientToScreen

; 66   : 	m_pMenu->ShowMenu(point);

  003fa	8d 45 0c	 lea	 eax, DWORD PTR _point$[ebp]
  003fd	50		 push	 eax
  003fe	8b 4d f0	 mov	 ecx, DWORD PTR _this$[ebp]
  00401	8b 89 84 01 00
	00		 mov	 ecx, DWORD PTR [ecx+388]
  00407	e8 00 00 00 00	 call	 ?ShowMenu@CShowMenu@@QAEXABVCPoint@@@Z ; CShowMenu::ShowMenu

; 67   : 	delete m_pMenu;

  0040c	8b 55 f0	 mov	 edx, DWORD PTR _this$[ebp]
  0040f	8b 82 84 01 00
	00		 mov	 eax, DWORD PTR [edx+388]
  00415	89 45 e0	 mov	 DWORD PTR $T195231[ebp], eax
  00418	8b 4d e0	 mov	 ecx, DWORD PTR $T195231[ebp]
  0041b	89 4d e4	 mov	 DWORD PTR $T195230[ebp], ecx
  0041e	83 7d e4 00	 cmp	 DWORD PTR $T195230[ebp], 0
  00422	74 0f		 je	 SHORT $L195232
  00424	6a 01		 push	 1
  00426	8b 4d e4	 mov	 ecx, DWORD PTR $T195230[ebp]
  00429	e8 00 00 00 00	 call	 ??_GCShowMenu@@QAEPAXI@Z
  0042e	89 45 d8	 mov	 DWORD PTR tv131[ebp], eax
  00431	eb 07		 jmp	 SHORT $L195233
$L195232:
  00433	c7 45 d8 00 00
	00 00		 mov	 DWORD PTR tv131[ebp], 0
$L195233:

; 68   : 	m_pMenu = NULL;

  0043a	8b 55 f0	 mov	 edx, DWORD PTR _this$[ebp]
  0043d	c7 82 84 01 00
	00 00 00 00 00	 mov	 DWORD PTR [edx+388], 0

; 69   : }

  00447	8b 4d f4	 mov	 ecx, DWORD PTR __$EHRec$[ebp]
  0044a	64 89 0d 00 00
	00 00		 mov	 DWORD PTR fs:__except_list, ecx
  00451	83 c4 28	 add	 esp, 40			; 00000028H
  00454	3b ec		 cmp	 ebp, esp
  00456	e8 00 00 00 00	 call	 __RTC_CheckEsp
  0045b	8b e5		 mov	 esp, ebp
  0045d	5d		 pop	 ebp
  0045e	c2 0c 00	 ret	 12			; 0000000cH
_TEXT	ENDS
text$x	SEGMENT
$L195234:
  000d7	8b 45 e8	 mov	 eax, DWORD PTR $T195227[ebp]
  000da	50		 push	 eax
  000db	e8 00 00 00 00	 call	 ??3@YAXPAX@Z		; operator delete
  000e0	59		 pop	 ecx
  000e1	c3		 ret	 0
__ehhandler$?OnRButtonUp@PlayedGameWnd@@IAEXIVCPoint@@@Z:
  000e2	b8 00 00 00 00	 mov	 eax, OFFSET FLAT:$T195236
  000e7	e9 00 00 00 00	 jmp	 ___CxxFrameHandler
text$x	ENDS
?OnRButtonUp@PlayedGameWnd@@IAEXIVCPoint@@@Z ENDP	; PlayedGameWnd::OnRButtonUp
PUBLIC	??1CShowMenu@@QAE@XZ				; CShowMenu::~CShowMenu
; Function compile flags: /Odt /RTCsu
;	COMDAT ??_GCShowMenu@@QAEPAXI@Z
_TEXT	SEGMENT
_this$ = -4						; size = 4
___flags$ = 8						; size = 4
??_GCShowMenu@@QAEPAXI@Z PROC NEAR			; CShowMenu::`scalar deleting destructor', COMDAT
; _this$ = ecx
  00000	55		 push	 ebp
  00001	8b ec		 mov	 ebp, esp
  00003	51		 push	 ecx
  00004	c7 45 fc cc cc
	cc cc		 mov	 DWORD PTR [ebp-4], -858993460 ; ccccccccH
  0000b	89 4d fc	 mov	 DWORD PTR _this$[ebp], ecx
  0000e	8b 4d fc	 mov	 ecx, DWORD PTR _this$[ebp]
  00011	e8 00 00 00 00	 call	 ??1CShowMenu@@QAE@XZ	; CShowMenu::~CShowMenu
  00016	8b 45 08	 mov	 eax, DWORD PTR ___flags$[ebp]
  00019	83 e0 01	 and	 eax, 1
  0001c	74 0c		 je	 SHORT $L192034
  0001e	8b 4d fc	 mov	 ecx, DWORD PTR _this$[ebp]
  00021	51		 push	 ecx
  00022	e8 00 00 00 00	 call	 ??3@YAXPAX@Z		; operator delete
  00027	83 c4 04	 add	 esp, 4
$L192034:
  0002a	8b 45 fc	 mov	 eax, DWORD PTR _this$[ebp]
  0002d	83 c4 04	 add	 esp, 4
  00030	3b ec		 cmp	 ebp, esp
  00032	e8 00 00 00 00	 call	 __RTC_CheckEsp
  00037	8b e5		 mov	 esp, ebp
  00039	5d		 pop	 ebp
  0003a	c2 04 00	 ret	 4
??_GCShowMenu@@QAEPAXI@Z ENDP				; CShowMenu::`scalar deleting destructor'
_TEXT	ENDS
EXTRN	??1BCMenu@@UAE@XZ:NEAR				; BCMenu::~BCMenu
; Function compile flags: /Odt /RTCsu
; File d:\boxgit\playbox\playbox\dev\prj\playbox\src\gui\util\showmenu.h
;	COMDAT ??1CShowMenu@@QAE@XZ
_TEXT	SEGMENT
_this$ = -4						; size = 4
??1CShowMenu@@QAE@XZ PROC NEAR				; CShowMenu::~CShowMenu, COMDAT
; _this$ = ecx

; 11   : 	~CShowMenu(){};

  00000	55		 push	 ebp
  00001	8b ec		 mov	 ebp, esp
  00003	51		 push	 ecx
  00004	c7 45 fc cc cc
	cc cc		 mov	 DWORD PTR [ebp-4], -858993460 ; ccccccccH
  0000b	89 4d fc	 mov	 DWORD PTR _this$[ebp], ecx
  0000e	8b 4d fc	 mov	 ecx, DWORD PTR _this$[ebp]
  00011	e8 00 00 00 00	 call	 ??1BCMenu@@UAE@XZ	; BCMenu::~BCMenu
  00016	83 c4 04	 add	 esp, 4
  00019	3b ec		 cmp	 ebp, esp
  0001b	e8 00 00 00 00	 call	 __RTC_CheckEsp
  00020	8b e5		 mov	 esp, ebp
  00022	5d		 pop	 ebp
  00023	c3		 ret	 0
??1CShowMenu@@QAE@XZ ENDP				; CShowMenu::~CShowMenu
_TEXT	ENDS
PUBLIC	??9const_iterator@?$vector@V?$basic_string@DU?$char_traits@D@std@@V?$allocator@D@2@@std@@V?$allocator@V?$basic_string@DU?$char_traits@D@std@@V?$allocator@D@2@@std@@@2@@std@@QBE_NABV012@@Z ; std::vector<std::basic_string<char,std::char_traits<char>,std::allocator<char> >,std::allocator<std::basic_string<char,std::char_traits<char>,std::allocator<char> > > >::const_iterator::operator!=
PUBLIC	??Diterator@?$vector@V?$basic_string@DU?$char_traits@D@std@@V?$allocator@D@2@@std@@V?$allocator@V?$basic_string@DU?$char_traits@D@std@@V?$allocator@D@2@@std@@@2@@std@@QBEAAV?$basic_string@DU?$char_traits@D@std@@V?$allocator@D@2@@2@XZ ; std::vector<std::basic_string<char,std::char_traits<char>,std::allocator<char> >,std::allocator<std::basic_string<char,std::char_traits<char>,std::allocator<char> > > >::iterator::operator*
PUBLIC	??Eiterator@?$vector@V?$basic_string@DU?$char_traits@D@std@@V?$allocator@D@2@@std@@V?$allocator@V?$basic_string@DU?$char_traits@D@std@@V?$allocator@D@2@@std@@@2@@std@@QAE?AV012@H@Z ; std::vector<std::basic_string<char,std::char_traits<char>,std::allocator<char> >,std::allocator<std::basic_string<char,std::char_traits<char>,std::allocator<char> > > >::iterator::operator++
PUBLIC	??A?$vector@U_tagLMCItemInfo@@V?$allocator@U_tagLMCItemInfo@@@std@@@std@@QAEAAU_tagLMCItemInfo@@I@Z ; std::vector<_tagLMCItemInfo,std::allocator<_tagLMCItemInfo> >::operator[]
PUBLIC	??0?$vector@HV?$allocator@H@std@@@std@@QAE@XZ	; std::vector<int,std::allocator<int> >::vector<int,std::allocator<int> >
PUBLIC	??1?$vector@HV?$allocator@H@std@@@std@@QAE@XZ	; std::vector<int,std::allocator<int> >::~vector<int,std::allocator<int> >
PUBLIC	??4?$vector@HV?$allocator@H@std@@@std@@QAEAAV01@ABV01@@Z ; std::vector<int,std::allocator<int> >::operator=
PUBLIC	?size@?$vector@HV?$allocator@H@std@@@std@@QBEIXZ ; std::vector<int,std::allocator<int> >::size
PUBLIC	??A?$vector@HV?$allocator@H@std@@@std@@QAEAAHI@Z ; std::vector<int,std::allocator<int> >::operator[]
PUBLIC	??0?$vector@V?$basic_string@DU?$char_traits@D@std@@V?$allocator@D@2@@std@@V?$allocator@V?$basic_string@DU?$char_traits@D@std@@V?$allocator@D@2@@std@@@2@@std@@QAE@XZ ; std::vector<std::basic_string<char,std::char_traits<char>,std::allocator<char> >,std::allocator<std::basic_string<char,std::char_traits<char>,std::allocator<char> > > >::vector<std::basic_string<char,std::char_traits<char>,std::allocator<char> >,std::allocator<std::basic_string<char,std::char_traits<char>,std::allocator<char> > > >
PUBLIC	??1?$vector@V?$basic_string@DU?$char_traits@D@std@@V?$allocator@D@2@@std@@V?$allocator@V?$basic_string@DU?$char_traits@D@std@@V?$allocator@D@2@@std@@@2@@std@@QAE@XZ ; std::vector<std::basic_string<char,std::char_traits<char>,std::allocator<char> >,std::allocator<std::basic_string<char,std::char_traits<char>,std::allocator<char> > > >::~vector<std::basic_string<char,std::char_traits<char>,std::allocator<char> >,std::allocator<std::basic_string<char,std::char_traits<char>,std::allocator<char> > > >
PUBLIC	?begin@?$vector@V?$basic_string@DU?$char_traits@D@std@@V?$allocator@D@2@@std@@V?$allocator@V?$basic_string@DU?$char_traits@D@std@@V?$allocator@D@2@@std@@@2@@std@@QAE?AViterator@12@XZ ; std::vector<std::basic_string<char,std::char_traits<char>,std::allocator<char> >,std::allocator<std::basic_string<char,std::char_traits<char>,std::allocator<char> > > >::begin
PUBLIC	?end@?$vector@V?$basic_string@DU?$char_traits@D@std@@V?$allocator@D@2@@std@@V?$allocator@V?$basic_string@DU?$char_traits@D@std@@V?$allocator@D@2@@std@@@2@@std@@QAE?AViterator@12@XZ ; std::vector<std::basic_string<char,std::char_traits<char>,std::allocator<char> >,std::allocator<std::basic_string<char,std::char_traits<char>,std::allocator<char> > > >::end
PUBLIC	?push_back@?$vector@V?$basic_string@DU?$char_traits@D@std@@V?$allocator@D@2@@std@@V?$allocator@V?$basic_string@DU?$char_traits@D@std@@V?$allocator@D@2@@std@@@2@@std@@QAEXABV?$basic_string@DU?$char_traits@D@std@@V?$allocator@D@2@@2@@Z ; std::vector<std::basic_string<char,std::char_traits<char>,std::allocator<char> >,std::allocator<std::basic_string<char,std::char_traits<char>,std::allocator<char> > > >::push_back
PUBLIC	?clear@?$vector@V?$basic_string@DU?$char_traits@D@std@@V?$allocator@D@2@@std@@V?$allocator@V?$basic_string@DU?$char_traits@D@std@@V?$allocator@D@2@@std@@@2@@std@@QAEXXZ ; std::vector<std::basic_string<char,std::char_traits<char>,std::allocator<char> >,std::allocator<std::basic_string<char,std::char_traits<char>,std::allocator<char> > > >::clear
EXTRN	?AfxGetDataManager2@@YAPAVIDataManager@@XZ:NEAR	; AfxGetDataManager2
EXTRN	?AfxGetMainWindow@@YAPAVCWnd@@XZ:NEAR		; AfxGetMainWindow
EXTRN	?OnCommand@CWnd@@MAEHIJ@Z:NEAR			; CWnd::OnCommand
EXTRN	?SetImgState@CLocalMusicCoverList@@QAEXW4LMCImgState@@@Z:NEAR ; CLocalMusicCoverList::SetImgState
EXTRN	?GetSelectItem@CLocalMusicCoverList@@QAE?AV?$vector@HV?$allocator@H@std@@@std@@XZ:NEAR ; CLocalMusicCoverList::GetSelectItem
EXTRN	?OnMemoryDraw@CLocalMusicCoverList@@IAEXH@Z:NEAR ; CLocalMusicCoverList::OnMemoryDraw
EXTRN	__imp_??0?$basic_string@DU?$char_traits@D@std@@V?$allocator@D@2@@std@@QAE@ABV01@@Z:NEAR
EXTRN	?UpdateList@CLocalMusicCoverList@@IAEXXZ:NEAR	; CLocalMusicCoverList::UpdateList
EXTRN	__imp__MessageBoxA@16:NEAR
EXTRN	___security_cookie:DWORD
EXTRN	@_RTC_CheckStackVars@8:NEAR
EXTRN	@__security_check_cookie@4:NEAR
;	COMDAT ?bPrompted@?1??OnCommand@PlayedGameWnd@@MAEHIJ@Z@4HA
; File d:\boxgit\playbox\playbox\dev\prj\playbox\src\module\playedgamepanel\playedgamewnd.cpp
_BSS	SEGMENT
?bPrompted@?1??OnCommand@PlayedGameWnd@@MAEHIJ@Z@4HA DD 01H DUP (?) ; `PlayedGameWnd::OnCommand'::`2'::bPrompted
_BSS	ENDS
xdata$x	SEGMENT
$T195267 DD	0ffffffffH
	DD	FLAT:$L195248
	DD	00H
	DD	FLAT:$L195249
	DD	00H
	DD	FLAT:$L195250
	DD	02H
	DD	FLAT:$L195251
	DD	02H
	DD	FLAT:$L195252
$T195254 DD	019930520H
	DD	05H
	DD	FLAT:$T195267
	DD	2 DUP(00H)
	DD	2 DUP(00H)
; Function compile flags: /Odt /RTCsu
xdata$x	ENDS
_TEXT	SEGMENT
tv169 = -188						; size = 4
tv163 = -184						; size = 4
tv204 = -180						; size = 4
tv205 = -176						; size = 4
tv200 = -172						; size = 4
tv86 = -168						; size = 4
tv69 = -164						; size = 4
$T195247 = -160						; size = 4
$T195246 = -156						; size = 4
$T195245 = -152						; size = 4
$T195244 = -148						; size = 16
_it$192620 = -128					; size = 4
_strGID$192503 = -116					; size = 28
_i$192499 = -84						; size = 4
_rv$192498 = -76					; size = 16
_vAlbum$192303 = -52					; size = 16
_nRet$192057 = -32					; size = 4
_hiWord$ = -28						; size = 2
_lowWord$ = -24						; size = 2
_this$ = -20						; size = 4
__$ArrayPad$ = -16					; size = 4
__$EHRec$ = -12						; size = 12
__$ReturnAddr$ = 4					; size = 4
_wParam$ = 8						; size = 4
_lParam$ = 12						; size = 4
?OnCommand@PlayedGameWnd@@MAEHIJ@Z PROC NEAR		; PlayedGameWnd::OnCommand
; _this$ = ecx

; 72   : {

  00470	55		 push	 ebp
  00471	8b ec		 mov	 ebp, esp
  00473	6a ff		 push	 -1
  00475	68 00 00 00 00	 push	 __ehhandler$?OnCommand@PlayedGameWnd@@MAEHIJ@Z
  0047a	64 a1 00 00 00
	00		 mov	 eax, DWORD PTR fs:__except_list
  00480	50		 push	 eax
  00481	64 89 25 00 00
	00 00		 mov	 DWORD PTR fs:__except_list, esp
  00488	81 ec b0 00 00
	00		 sub	 esp, 176		; 000000b0H
  0048e	56		 push	 esi
  0048f	57		 push	 edi
  00490	51		 push	 ecx
  00491	8d bd 44 ff ff
	ff		 lea	 edi, DWORD PTR [ebp-188]
  00497	b9 2c 00 00 00	 mov	 ecx, 44			; 0000002cH
  0049c	b8 cc cc cc cc	 mov	 eax, -858993460		; ccccccccH
  004a1	f3 ab		 rep stosd
  004a3	59		 pop	 ecx
  004a4	a1 00 00 00 00	 mov	 eax, DWORD PTR ___security_cookie
  004a9	89 45 f0	 mov	 DWORD PTR __$ArrayPad$[ebp], eax
  004ac	89 4d ec	 mov	 DWORD PTR _this$[ebp], ecx

; 73   : 	static BOOL bPrompted = FALSE;
; 74   : 
; 75   : 	WORD lowWord	= LOWORD( wParam );

  004af	8b 45 08	 mov	 eax, DWORD PTR _wParam$[ebp]
  004b2	25 ff ff 00 00	 and	 eax, 65535		; 0000ffffH
  004b7	66 89 45 e8	 mov	 WORD PTR _lowWord$[ebp], ax

; 76   : 	WORD hiWord		= HIWORD( wParam );

  004bb	8b 4d 08	 mov	 ecx, DWORD PTR _wParam$[ebp]
  004be	c1 e9 10	 shr	 ecx, 16			; 00000010H
  004c1	66 89 4d e4	 mov	 WORD PTR _hiWord$[ebp], cx

; 77   : 	switch( lowWord )

  004c5	0f b7 55 e8	 movzx	 edx, WORD PTR _lowWord$[ebp]
  004c9	89 95 5c ff ff
	ff		 mov	 DWORD PTR tv69[ebp], edx
  004cf	8b 85 5c ff ff
	ff		 mov	 eax, DWORD PTR tv69[ebp]
  004d5	2d 04 80 00 00	 sub	 eax, 32772		; 00008004H
  004da	89 85 5c ff ff
	ff		 mov	 DWORD PTR tv69[ebp], eax
  004e0	83 bd 5c ff ff
	ff 06		 cmp	 DWORD PTR tv69[ebp], 6
  004e7	0f 87 4e 02 00
	00		 ja	 $L192049
  004ed	8b 8d 5c ff ff
	ff		 mov	 ecx, DWORD PTR tv69[ebp]
  004f3	ff 24 8d 00 00
	00 00		 jmp	 DWORD PTR $L195266[ecx*4]
$L192052:

; 78   : 	{
; 79   : 	case ID_CL_LARGEICON: // 
; 80   : 		SetImgState(LMCI_Big);

  004fa	6a 02		 push	 2
  004fc	8b 4d ec	 mov	 ecx, DWORD PTR _this$[ebp]
  004ff	e8 00 00 00 00	 call	 ?SetImgState@CLocalMusicCoverList@@QAEXW4LMCImgState@@@Z ; CLocalMusicCoverList::SetImgState

; 81   : 		break;

  00504	e9 32 02 00 00	 jmp	 $L192049
$L192053:

; 82   : 	case ID_CL_MIDICON: // 
; 83   : 		SetImgState(LMCI_Middle);

  00509	6a 01		 push	 1
  0050b	8b 4d ec	 mov	 ecx, DWORD PTR _this$[ebp]
  0050e	e8 00 00 00 00	 call	 ?SetImgState@CLocalMusicCoverList@@QAEXW4LMCImgState@@@Z ; CLocalMusicCoverList::SetImgState

; 84   : 		break;

  00513	e9 23 02 00 00	 jmp	 $L192049
$L192054:

; 85   : 	case ID_CL_SMALLICON: // 
; 86   : 		SetImgState(LMCI_Small);

  00518	6a 00		 push	 0
  0051a	8b 4d ec	 mov	 ecx, DWORD PTR _this$[ebp]
  0051d	e8 00 00 00 00	 call	 ?SetImgState@CLocalMusicCoverList@@QAEXW4LMCImgState@@@Z ; CLocalMusicCoverList::SetImgState

; 87   : 		break;

  00522	e9 14 02 00 00	 jmp	 $L192049
$L192055:

; 88   : 	case ID_CL_DELFROMDISK: // 
; 89   : 		{
; 90   : 			if (!bPrompted)

  00527	83 3d 00 00 00
	00 00		 cmp	 DWORD PTR ?bPrompted@?1??OnCommand@PlayedGameWnd@@MAEHIJ@Z@4HA, 0
  0052e	75 3c		 jne	 SHORT $L192056

; 91   : 			{
; 92   : 				bPrompted = TRUE;

  00530	c7 05 00 00 00
	00 01 00 00 00	 mov	 DWORD PTR ?bPrompted@?1??OnCommand@PlayedGameWnd@@MAEHIJ@Z@4HA, 1

; 93   : // 				int nRet = AfxMessageBox ("", MB_OKCANCEL);
; 94   : 				int nRet = ::MessageBox (AfxGetMainWindow ()->m_hWnd, "",
; 95   : 					"", MB_OKCANCEL);

  0053a	8b f4		 mov	 esi, esp
  0053c	6a 01		 push	 1
  0053e	68 00 00 00 00	 push	 OFFSET FLAT:$SG192058
  00543	68 00 00 00 00	 push	 OFFSET FLAT:$SG192059
  00548	e8 00 00 00 00	 call	 ?AfxGetMainWindow@@YAPAVCWnd@@XZ ; AfxGetMainWindow
  0054d	8b 50 20	 mov	 edx, DWORD PTR [eax+32]
  00550	52		 push	 edx
  00551	ff 15 00 00 00
	00		 call	 DWORD PTR __imp__MessageBoxA@16
  00557	3b f4		 cmp	 esi, esp
  00559	e8 00 00 00 00	 call	 __RTC_CheckEsp
  0055e	89 45 e0	 mov	 DWORD PTR _nRet$192057[ebp], eax

; 96   : 				if (nRet == IDCANCEL)

  00561	83 7d e0 02	 cmp	 DWORD PTR _nRet$192057[ebp], 2
  00565	75 05		 jne	 SHORT $L192056

; 97   : 					break;

  00567	e9 cf 01 00 00	 jmp	 $L192049
$L192056:

; 98   : 			}
; 99   : 			vector<int> vAlbum;

  0056c	8d 4d cc	 lea	 ecx, DWORD PTR _vAlbum$192303[ebp]
  0056f	e8 00 00 00 00	 call	 ??0?$vector@HV?$allocator@H@std@@@std@@QAE@XZ ; std::vector<int,std::allocator<int> >::vector<int,std::allocator<int> >
  00574	c7 45 fc 00 00
	00 00		 mov	 DWORD PTR __$EHRec$[ebp+8], 0

; 100  : 			vAlbum = GetSelectItem();

  0057b	8d 85 6c ff ff
	ff		 lea	 eax, DWORD PTR $T195244[ebp]
  00581	50		 push	 eax
  00582	8b 4d ec	 mov	 ecx, DWORD PTR _this$[ebp]
  00585	e8 00 00 00 00	 call	 ?GetSelectItem@CLocalMusicCoverList@@QAE?AV?$vector@HV?$allocator@H@std@@@std@@XZ ; CLocalMusicCoverList::GetSelectItem
  0058a	89 85 58 ff ff
	ff		 mov	 DWORD PTR tv86[ebp], eax
  00590	8b 8d 58 ff ff
	ff		 mov	 ecx, DWORD PTR tv86[ebp]
  00596	89 8d 54 ff ff
	ff		 mov	 DWORD PTR tv200[ebp], ecx
  0059c	c6 45 fc 01	 mov	 BYTE PTR __$EHRec$[ebp+8], 1
  005a0	8b 95 54 ff ff
	ff		 mov	 edx, DWORD PTR tv200[ebp]
  005a6	52		 push	 edx
  005a7	8d 4d cc	 lea	 ecx, DWORD PTR _vAlbum$192303[ebp]
  005aa	e8 00 00 00 00	 call	 ??4?$vector@HV?$allocator@H@std@@@std@@QAEAAV01@ABV01@@Z ; std::vector<int,std::allocator<int> >::operator=
  005af	c6 45 fc 00	 mov	 BYTE PTR __$EHRec$[ebp+8], 0
  005b3	8d 8d 6c ff ff
	ff		 lea	 ecx, DWORD PTR $T195244[ebp]
  005b9	e8 00 00 00 00	 call	 ??1?$vector@HV?$allocator@H@std@@@std@@QAE@XZ ; std::vector<int,std::allocator<int> >::~vector<int,std::allocator<int> >

; 101  : 			RidVector rv;

  005be	8d 4d b4	 lea	 ecx, DWORD PTR _rv$192498[ebp]
  005c1	e8 00 00 00 00	 call	 ??0?$vector@V?$basic_string@DU?$char_traits@D@std@@V?$allocator@D@2@@std@@V?$allocator@V?$basic_string@DU?$char_traits@D@std@@V?$allocator@D@2@@std@@@2@@std@@QAE@XZ ; std::vector<std::basic_string<char,std::char_traits<char>,std::allocator<char> >,std::allocator<std::basic_string<char,std::char_traits<char>,std::allocator<char> > > >::vector<std::basic_string<char,std::char_traits<char>,std::allocator<char> >,std::allocator<std::basic_string<char,std::char_traits<char>,std::allocator<char> > > >
  005c6	c6 45 fc 02	 mov	 BYTE PTR __$EHRec$[ebp+8], 2

; 102  : 			for (int i=0;i<vAlbum.size();i++)

  005ca	c7 45 ac 00 00
	00 00		 mov	 DWORD PTR _i$192499[ebp], 0
  005d1	eb 09		 jmp	 SHORT $L192500
$L192501:
  005d3	8b 45 ac	 mov	 eax, DWORD PTR _i$192499[ebp]
  005d6	83 c0 01	 add	 eax, 1
  005d9	89 45 ac	 mov	 DWORD PTR _i$192499[ebp], eax
$L192500:
  005dc	8d 4d cc	 lea	 ecx, DWORD PTR _vAlbum$192303[ebp]
  005df	e8 00 00 00 00	 call	 ?size@?$vector@HV?$allocator@H@std@@@std@@QBEIXZ ; std::vector<int,std::allocator<int> >::size
  005e4	39 45 ac	 cmp	 DWORD PTR _i$192499[ebp], eax
  005e7	73 58		 jae	 SHORT $L192502

; 103  : 			{
; 104  : 				string strGID = m_DataMgr.m_vItem[vAlbum[i]].strGID;

  005e9	8b 4d ac	 mov	 ecx, DWORD PTR _i$192499[ebp]
  005ec	51		 push	 ecx
  005ed	8d 4d cc	 lea	 ecx, DWORD PTR _vAlbum$192303[ebp]
  005f0	e8 00 00 00 00	 call	 ??A?$vector@HV?$allocator@H@std@@@std@@QAEAAHI@Z ; std::vector<int,std::allocator<int> >::operator[]
  005f5	8b 10		 mov	 edx, DWORD PTR [eax]
  005f7	52		 push	 edx
  005f8	8b 4d ec	 mov	 ecx, DWORD PTR _this$[ebp]
  005fb	81 c1 6c 01 00
	00		 add	 ecx, 364		; 0000016cH
  00601	e8 00 00 00 00	 call	 ??A?$vector@U_tagLMCItemInfo@@V?$allocator@U_tagLMCItemInfo@@@std@@@std@@QAEAAU_tagLMCItemInfo@@I@Z ; std::vector<_tagLMCItemInfo,std::allocator<_tagLMCItemInfo> >::operator[]
  00606	8b f4		 mov	 esi, esp
  00608	50		 push	 eax
  00609	8d 4d 8c	 lea	 ecx, DWORD PTR _strGID$192503[ebp]
  0060c	ff 15 00 00 00
	00		 call	 DWORD PTR __imp_??0?$basic_string@DU?$char_traits@D@std@@V?$allocator@D@2@@std@@QAE@ABV01@@Z
  00612	3b f4		 cmp	 esi, esp
  00614	e8 00 00 00 00	 call	 __RTC_CheckEsp
  00619	c6 45 fc 03	 mov	 BYTE PTR __$EHRec$[ebp+8], 3

; 105  : 				rv.push_back (strGID);

  0061d	8d 45 8c	 lea	 eax, DWORD PTR _strGID$192503[ebp]
  00620	50		 push	 eax
  00621	8d 4d b4	 lea	 ecx, DWORD PTR _rv$192498[ebp]
  00624	e8 00 00 00 00	 call	 ?push_back@?$vector@V?$basic_string@DU?$char_traits@D@std@@V?$allocator@D@2@@std@@V?$allocator@V?$basic_string@DU?$char_traits@D@std@@V?$allocator@D@2@@std@@@2@@std@@QAEXABV?$basic_string@DU?$char_traits@D@std@@V?$allocator@D@2@@2@@Z ; std::vector<std::basic_string<char,std::char_traits<char>,std::allocator<char> >,std::allocator<std::basic_string<char,std::char_traits<char>,std::allocator<char> > > >::push_back

; 106  : 			}

  00629	c6 45 fc 02	 mov	 BYTE PTR __$EHRec$[ebp+8], 2
  0062d	8b f4		 mov	 esi, esp
  0062f	8d 4d 8c	 lea	 ecx, DWORD PTR _strGID$192503[ebp]
  00632	ff 15 00 00 00
	00		 call	 DWORD PTR __imp_??1?$basic_string@DU?$char_traits@D@std@@V?$allocator@D@2@@std@@QAE@XZ
  00638	3b f4		 cmp	 esi, esp
  0063a	e8 00 00 00 00	 call	 __RTC_CheckEsp
  0063f	eb 92		 jmp	 SHORT $L192501
$L192502:

; 107  : 
; 108  : 			for (RidVector::iterator it = rv.begin (); it != rv.end (); it++)

  00641	8d 4d 80	 lea	 ecx, DWORD PTR _it$192620[ebp]
  00644	51		 push	 ecx
  00645	8d 4d b4	 lea	 ecx, DWORD PTR _rv$192498[ebp]
  00648	e8 00 00 00 00	 call	 ?begin@?$vector@V?$basic_string@DU?$char_traits@D@std@@V?$allocator@D@2@@std@@V?$allocator@V?$basic_string@DU?$char_traits@D@std@@V?$allocator@D@2@@std@@@2@@std@@QAE?AViterator@12@XZ ; std::vector<std::basic_string<char,std::char_traits<char>,std::allocator<char> >,std::allocator<std::basic_string<char,std::char_traits<char>,std::allocator<char> > > >::begin
  0064d	eb 11		 jmp	 SHORT $L192624
$L192625:
  0064f	6a 00		 push	 0
  00651	8d 95 68 ff ff
	ff		 lea	 edx, DWORD PTR $T195245[ebp]
  00657	52		 push	 edx
  00658	8d 4d 80	 lea	 ecx, DWORD PTR _it$192620[ebp]
  0065b	e8 00 00 00 00	 call	 ??Eiterator@?$vector@V?$basic_string@DU?$char_traits@D@std@@V?$allocator@D@2@@std@@V?$allocator@V?$basic_string@DU?$char_traits@D@std@@V?$allocator@D@2@@std@@@2@@std@@QAE?AV012@H@Z ; std::vector<std::basic_string<char,std::char_traits<char>,std::allocator<char> >,std::allocator<std::basic_string<char,std::char_traits<char>,std::allocator<char> > > >::iterator::operator++
$L192624:
  00660	8d 85 64 ff ff
	ff		 lea	 eax, DWORD PTR $T195246[ebp]
  00666	50		 push	 eax
  00667	8d 4d b4	 lea	 ecx, DWORD PTR _rv$192498[ebp]
  0066a	e8 00 00 00 00	 call	 ?end@?$vector@V?$basic_string@DU?$char_traits@D@std@@V?$allocator@D@2@@std@@V?$allocator@V?$basic_string@DU?$char_traits@D@std@@V?$allocator@D@2@@std@@@2@@std@@QAE?AViterator@12@XZ ; std::vector<std::basic_string<char,std::char_traits<char>,std::allocator<char> >,std::allocator<std::basic_string<char,std::char_traits<char>,std::allocator<char> > > >::end
  0066f	50		 push	 eax
  00670	8d 4d 80	 lea	 ecx, DWORD PTR _it$192620[ebp]
  00673	e8 00 00 00 00	 call	 ??9const_iterator@?$vector@V?$basic_string@DU?$char_traits@D@std@@V?$allocator@D@2@@std@@V?$allocator@V?$basic_string@DU?$char_traits@D@std@@V?$allocator@D@2@@std@@@2@@std@@QBE_NABV012@@Z ; std::vector<std::basic_string<char,std::char_traits<char>,std::allocator<char> >,std::allocator<std::basic_string<char,std::char_traits<char>,std::allocator<char> > > >::const_iterator::operator!=
  00678	0f b6 c8	 movzx	 ecx, al
  0067b	85 c9		 test	 ecx, ecx
  0067d	0f 84 83 00 00
	00		 je	 $L192626

; 109  : 			{
; 110  : 				GLOBAL_LOCALGAME->ILocalGameData_DelGame(*it);

  00683	8d 4d 80	 lea	 ecx, DWORD PTR _it$192620[ebp]
  00686	e8 00 00 00 00	 call	 ??Diterator@?$vector@V?$basic_string@DU?$char_traits@D@std@@V?$allocator@D@2@@std@@V?$allocator@V?$basic_string@DU?$char_traits@D@std@@V?$allocator@D@2@@std@@@2@@std@@QBEAAV?$basic_string@DU?$char_traits@D@std@@V?$allocator@D@2@@2@XZ ; std::vector<std::basic_string<char,std::char_traits<char>,std::allocator<char> >,std::allocator<std::basic_string<char,std::char_traits<char>,std::allocator<char> > > >::iterator::operator*
  0068b	83 ec 1c	 sub	 esp, 28			; 0000001cH
  0068e	8b cc		 mov	 ecx, esp
  00690	89 a5 60 ff ff
	ff		 mov	 DWORD PTR $T195247[ebp], esp
  00696	8b f4		 mov	 esi, esp
  00698	50		 push	 eax
  00699	ff 15 00 00 00
	00		 call	 DWORD PTR __imp_??0?$basic_string@DU?$char_traits@D@std@@V?$allocator@D@2@@std@@QAE@ABV01@@Z
  0069f	3b f4		 cmp	 esi, esp
  006a1	e8 00 00 00 00	 call	 __RTC_CheckEsp
  006a6	89 85 50 ff ff
	ff		 mov	 DWORD PTR tv205[ebp], eax
  006ac	8b 95 50 ff ff
	ff		 mov	 edx, DWORD PTR tv205[ebp]
  006b2	89 95 4c ff ff
	ff		 mov	 DWORD PTR tv204[ebp], edx
  006b8	c6 45 fc 04	 mov	 BYTE PTR __$EHRec$[ebp+8], 4
  006bc	e8 00 00 00 00	 call	 ?AfxGetDataManager2@@YAPAVIDataManager@@XZ ; AfxGetDataManager2
  006c1	89 85 48 ff ff
	ff		 mov	 DWORD PTR tv163[ebp], eax
  006c7	8b f4		 mov	 esi, esp
  006c9	68 00 00 00 00	 push	 OFFSET FLAT:_ID_DATA_LOCALGAME
  006ce	8b 85 48 ff ff
	ff		 mov	 eax, DWORD PTR tv163[ebp]
  006d4	8b 10		 mov	 edx, DWORD PTR [eax]
  006d6	8b 8d 48 ff ff
	ff		 mov	 ecx, DWORD PTR tv163[ebp]
  006dc	ff 52 0c	 call	 DWORD PTR [edx+12]
  006df	3b f4		 cmp	 esi, esp
  006e1	e8 00 00 00 00	 call	 __RTC_CheckEsp
  006e6	89 85 44 ff ff
	ff		 mov	 DWORD PTR tv169[ebp], eax
  006ec	8b 85 44 ff ff
	ff		 mov	 eax, DWORD PTR tv169[ebp]
  006f2	8b 10		 mov	 edx, DWORD PTR [eax]
  006f4	c6 45 fc 02	 mov	 BYTE PTR __$EHRec$[ebp+8], 2
  006f8	8b 8d 44 ff ff
	ff		 mov	 ecx, DWORD PTR tv169[ebp]
  006fe	ff 52 14	 call	 DWORD PTR [edx+20]

; 111  : 			}

  00701	e9 49 ff ff ff	 jmp	 $L192625
$L192626:

; 112  : 
; 113  : 			rv.clear ();

  00706	8d 4d b4	 lea	 ecx, DWORD PTR _rv$192498[ebp]
  00709	e8 00 00 00 00	 call	 ?clear@?$vector@V?$basic_string@DU?$char_traits@D@std@@V?$allocator@D@2@@std@@V?$allocator@V?$basic_string@DU?$char_traits@D@std@@V?$allocator@D@2@@std@@@2@@std@@QAEXXZ ; std::vector<std::basic_string<char,std::char_traits<char>,std::allocator<char> >,std::allocator<std::basic_string<char,std::char_traits<char>,std::allocator<char> > > >::clear

; 114  : 
; 115  : 			UpdateList();

  0070e	8b 4d ec	 mov	 ecx, DWORD PTR _this$[ebp]
  00711	e8 00 00 00 00	 call	 ?UpdateList@CLocalMusicCoverList@@IAEXXZ ; CLocalMusicCoverList::UpdateList

; 116  : 			OnMemoryDraw();

  00716	6a 01		 push	 1
  00718	8b 4d ec	 mov	 ecx, DWORD PTR _this$[ebp]
  0071b	e8 00 00 00 00	 call	 ?OnMemoryDraw@CLocalMusicCoverList@@IAEXH@Z ; CLocalMusicCoverList::OnMemoryDraw

; 117  : 		}

  00720	c6 45 fc 00	 mov	 BYTE PTR __$EHRec$[ebp+8], 0
  00724	8d 4d b4	 lea	 ecx, DWORD PTR _rv$192498[ebp]
  00727	e8 00 00 00 00	 call	 ??1?$vector@V?$basic_string@DU?$char_traits@D@std@@V?$allocator@D@2@@std@@V?$allocator@V?$basic_string@DU?$char_traits@D@std@@V?$allocator@D@2@@std@@@2@@std@@QAE@XZ ; std::vector<std::basic_string<char,std::char_traits<char>,std::allocator<char> >,std::allocator<std::basic_string<char,std::char_traits<char>,std::allocator<char> > > >::~vector<std::basic_string<char,std::char_traits<char>,std::allocator<char> >,std::allocator<std::basic_string<char,std::char_traits<char>,std::allocator<char> > > >
  0072c	c7 45 fc ff ff
	ff ff		 mov	 DWORD PTR __$EHRec$[ebp+8], -1
  00733	8d 4d cc	 lea	 ecx, DWORD PTR _vAlbum$192303[ebp]
  00736	e8 00 00 00 00	 call	 ??1?$vector@HV?$allocator@H@std@@@std@@QAE@XZ ; std::vector<int,std::allocator<int> >::~vector<int,std::allocator<int> >
$L192049:

; 118  : 		break;
; 119  : 	default:
; 120  : 		break;
; 121  : 	}
; 122  : 	return __super::OnCommand(wParam, lParam);

  0073b	8b 45 0c	 mov	 eax, DWORD PTR _lParam$[ebp]
  0073e	50		 push	 eax
  0073f	8b 4d 08	 mov	 ecx, DWORD PTR _wParam$[ebp]
  00742	51		 push	 ecx
  00743	8b 4d ec	 mov	 ecx, DWORD PTR _this$[ebp]
  00746	e8 00 00 00 00	 call	 ?OnCommand@CWnd@@MAEHIJ@Z ; CWnd::OnCommand

; 123  : }

  0074b	52		 push	 edx
  0074c	8b cd		 mov	 ecx, ebp
  0074e	50		 push	 eax
  0074f	8d 15 00 00 00
	00		 lea	 edx, DWORD PTR $L195263
  00755	e8 00 00 00 00	 call	 @_RTC_CheckStackVars@8
  0075a	58		 pop	 eax
  0075b	5a		 pop	 edx
  0075c	8b 4d f4	 mov	 ecx, DWORD PTR __$EHRec$[ebp]
  0075f	64 89 0d 00 00
	00 00		 mov	 DWORD PTR fs:__except_list, ecx
  00766	8b 4d f0	 mov	 ecx, DWORD PTR __$ArrayPad$[ebp]
  00769	e8 00 00 00 00	 call	 @__security_check_cookie@4
  0076e	5f		 pop	 edi
  0076f	5e		 pop	 esi
  00770	81 c4 bc 00 00
	00		 add	 esp, 188		; 000000bcH
  00776	3b ec		 cmp	 ebp, esp
  00778	e8 00 00 00 00	 call	 __RTC_CheckEsp
  0077d	8b e5		 mov	 esp, ebp
  0077f	5d		 pop	 ebp
  00780	c2 08 00	 ret	 8
$L195263:
  00783	04 00 00 00	 DD	 4
  00787	00 00 00 00	 DD	 $L195262
$L195262:
  0078b	cc ff ff ff	 DD	 -52			; ffffffccH
  0078f	10 00 00 00	 DD	 16			; 00000010H
  00793	00 00 00 00	 DD	 $L195255
  00797	b4 ff ff ff	 DD	 -76			; ffffffb4H
  0079b	10 00 00 00	 DD	 16			; 00000010H
  0079f	00 00 00 00	 DD	 $L195256
  007a3	8c ff ff ff	 DD	 -116			; ffffff8cH
  007a7	1c 00 00 00	 DD	 28			; 0000001cH
  007ab	00 00 00 00	 DD	 $L195257
  007af	80 ff ff ff	 DD	 -128			; ffffff80H
  007b3	04 00 00 00	 DD	 4
  007b7	00 00 00 00	 DD	 $L195258
$L195258:
  007bb	69		 DB	 105			; 00000069H
  007bc	74		 DB	 116			; 00000074H
  007bd	00		 DB	 0
$L195257:
  007be	73		 DB	 115			; 00000073H
  007bf	74		 DB	 116			; 00000074H
  007c0	72		 DB	 114			; 00000072H
  007c1	47		 DB	 71			; 00000047H
  007c2	49		 DB	 73			; 00000049H
  007c3	44		 DB	 68			; 00000044H
  007c4	00		 DB	 0
$L195256:
  007c5	72		 DB	 114			; 00000072H
  007c6	76		 DB	 118			; 00000076H
  007c7	00		 DB	 0
$L195255:
  007c8	76		 DB	 118			; 00000076H
  007c9	41		 DB	 65			; 00000041H
  007ca	6c		 DB	 108			; 0000006cH
  007cb	62		 DB	 98			; 00000062H
  007cc	75		 DB	 117			; 00000075H
  007cd	6d		 DB	 109			; 0000006dH
  007ce	00		 DB	 0
$L195266:
  007cf	00 00 00 00	 DD	 $L192052
  007d3	00 00 00 00	 DD	 $L192049
  007d7	00 00 00 00	 DD	 $L192053
  007db	00 00 00 00	 DD	 $L192049
  007df	00 00 00 00	 DD	 $L192054
  007e3	00 00 00 00	 DD	 $L192049
  007e7	00 00 00 00	 DD	 $L192055
_TEXT	ENDS
text$x	SEGMENT
$L195248:
  000ec	8d 4d cc	 lea	 ecx, DWORD PTR _vAlbum$192303[ebp]
  000ef	e9 00 00 00 00	 jmp	 ??1?$vector@HV?$allocator@H@std@@@std@@QAE@XZ ; std::vector<int,std::allocator<int> >::~vector<int,std::allocator<int> >
$L195249:
  000f4	8d 8d 6c ff ff
	ff		 lea	 ecx, DWORD PTR $T195244[ebp]
  000fa	e9 00 00 00 00	 jmp	 ??1?$vector@HV?$allocator@H@std@@@std@@QAE@XZ ; std::vector<int,std::allocator<int> >::~vector<int,std::allocator<int> >
$L195250:
  000ff	8d 4d b4	 lea	 ecx, DWORD PTR _rv$192498[ebp]
  00102	e9 00 00 00 00	 jmp	 ??1?$vector@V?$basic_string@DU?$char_traits@D@std@@V?$allocator@D@2@@std@@V?$allocator@V?$basic_string@DU?$char_traits@D@std@@V?$allocator@D@2@@std@@@2@@std@@QAE@XZ ; std::vector<std::basic_string<char,std::char_traits<char>,std::allocator<char> >,std::allocator<std::basic_string<char,std::char_traits<char>,std::allocator<char> > > >::~vector<std::basic_string<char,std::char_traits<char>,std::allocator<char> >,std::allocator<std::basic_string<char,std::char_traits<char>,std::allocator<char> > > >
$L195251:
  00107	8b f4		 mov	 esi, esp
  00109	8d 4d 8c	 lea	 ecx, DWORD PTR _strGID$192503[ebp]
  0010c	ff 15 00 00 00
	00		 call	 DWORD PTR __imp_??1?$basic_string@DU?$char_traits@D@std@@V?$allocator@D@2@@std@@QAE@XZ
  00112	3b f4		 cmp	 esi, esp
  00114	e9 00 00 00 00	 jmp	 __RTC_CheckEsp
$L195252:
  00119	8b f4		 mov	 esi, esp
  0011b	8b 8d 60 ff ff
	ff		 mov	 ecx, DWORD PTR $T195247[ebp]
  00121	ff 15 00 00 00
	00		 call	 DWORD PTR __imp_??1?$basic_string@DU?$char_traits@D@std@@V?$allocator@D@2@@std@@QAE@XZ
  00127	3b f4		 cmp	 esi, esp
  00129	e9 00 00 00 00	 jmp	 __RTC_CheckEsp
__ehhandler$?OnCommand@PlayedGameWnd@@MAEHIJ@Z:
  0012e	b8 00 00 00 00	 mov	 eax, OFFSET FLAT:$T195254
  00133	e9 00 00 00 00	 jmp	 ___CxxFrameHandler
text$x	ENDS
?OnCommand@PlayedGameWnd@@MAEHIJ@Z ENDP			; PlayedGameWnd::OnCommand
PUBLIC	?InterlockedExchangePointer@@YGPAXPAPAXPAX@Z	; InterlockedExchangePointer
PUBLIC	?_AtlGetThreadACPFake@ATL@@YGIXZ		; ATL::_AtlGetThreadACPFake
PUBLIC	?_AtlGetThreadACPReal@ATL@@YGIXZ		; ATL::_AtlGetThreadACPReal
EXTRN	__imp__GetVersionExA@4:NEAR
; Function compile flags: /Odt /RTCsu
; File d:\program files (x86)\microsoft visual studio .net 2003\vc7\atlmfc\include\atlconv.h
;	COMDAT ?_AtlGetThreadACPThunk@ATL@@YGIXZ
_TEXT	SEGMENT
_pfnGetThreadACP$ = -164				; size = 4
_ver$ = -156						; size = 148
__$ArrayPad$ = -4					; size = 4
__$ReturnAddr$ = 4					; size = 4
?_AtlGetThreadACPThunk@ATL@@YGIXZ PROC NEAR		; ATL::_AtlGetThreadACPThunk, COMDAT

; 134  : {

  00000	55		 push	 ebp
  00001	8b ec		 mov	 ebp, esp
  00003	81 ec a4 00 00
	00		 sub	 esp, 164		; 000000a4H
  00009	56		 push	 esi
  0000a	57		 push	 edi
  0000b	8d bd 5c ff ff
	ff		 lea	 edi, DWORD PTR [ebp-164]
  00011	b9 29 00 00 00	 mov	 ecx, 41			; 00000029H
  00016	b8 cc cc cc cc	 mov	 eax, -858993460		; ccccccccH
  0001b	f3 ab		 rep stosd
  0001d	a1 00 00 00 00	 mov	 eax, DWORD PTR ___security_cookie
  00022	89 45 fc	 mov	 DWORD PTR __$ArrayPad$[ebp], eax

; 135  : 	OSVERSIONINFO ver;
; 136  : 	ATLGETTHREADACP pfnGetThreadACP;
; 137  : 
; 138  : 	ver.dwOSVersionInfoSize = sizeof( ver );

  00025	c7 85 64 ff ff
	ff 94 00 00 00	 mov	 DWORD PTR _ver$[ebp], 148 ; 00000094H

; 139  : 	::GetVersionEx( &ver );

  0002f	8b f4		 mov	 esi, esp
  00031	8d 85 64 ff ff
	ff		 lea	 eax, DWORD PTR _ver$[ebp]
  00037	50		 push	 eax
  00038	ff 15 00 00 00
	00		 call	 DWORD PTR __imp__GetVersionExA@4
  0003e	3b f4		 cmp	 esi, esp
  00040	e8 00 00 00 00	 call	 __RTC_CheckEsp

; 140  : 	if( (ver.dwPlatformId == VER_PLATFORM_WIN32_NT) && (ver.dwMajorVersion >= 5) )

  00045	83 bd 74 ff ff
	ff 02		 cmp	 DWORD PTR _ver$[ebp+16], 2
  0004c	75 15		 jne	 SHORT $L24163
  0004e	83 bd 68 ff ff
	ff 05		 cmp	 DWORD PTR _ver$[ebp+4], 5
  00055	72 0c		 jb	 SHORT $L24163

; 141  : 	{
; 142  : 		// On Win2K, CP_THREAD_ACP is supported
; 143  : 		pfnGetThreadACP = _AtlGetThreadACPReal;

  00057	c7 85 5c ff ff
	ff 00 00 00 00	 mov	 DWORD PTR _pfnGetThreadACP$[ebp], OFFSET FLAT:?_AtlGetThreadACPReal@ATL@@YGIXZ ; ATL::_AtlGetThreadACPReal

; 144  : 	}
; 145  : 	else

  00061	eb 0a		 jmp	 SHORT $L24164
$L24163:

; 146  : 	{
; 147  : 		pfnGetThreadACP = _AtlGetThreadACPFake;

  00063	c7 85 5c ff ff
	ff 00 00 00 00	 mov	 DWORD PTR _pfnGetThreadACP$[ebp], OFFSET FLAT:?_AtlGetThreadACPFake@ATL@@YGIXZ ; ATL::_AtlGetThreadACPFake
$L24164:

; 148  : 	}
; 149  : 	InterlockedExchangePointer( reinterpret_cast< void** >(&g_pfnGetThreadACP), pfnGetThreadACP );

  0006d	8b 8d 5c ff ff
	ff		 mov	 ecx, DWORD PTR _pfnGetThreadACP$[ebp]
  00073	51		 push	 ecx
  00074	68 00 00 00 00	 push	 OFFSET FLAT:?g_pfnGetThreadACP@ATL@@3P6GIXZA ; ATL::g_pfnGetThreadACP
  00079	e8 00 00 00 00	 call	 ?InterlockedExchangePointer@@YGPAXPAPAXPAX@Z ; InterlockedExchangePointer

; 150  : 
; 151  : 	return( g_pfnGetThreadACP() );

  0007e	8b f4		 mov	 esi, esp
  00080	ff 15 00 00 00
	00		 call	 DWORD PTR ?g_pfnGetThreadACP@ATL@@3P6GIXZA ; ATL::g_pfnGetThreadACP
  00086	3b f4		 cmp	 esi, esp
  00088	e8 00 00 00 00	 call	 __RTC_CheckEsp

; 152  : }

  0008d	52		 push	 edx
  0008e	8b cd		 mov	 ecx, ebp
  00090	50		 push	 eax
  00091	8d 15 00 00 00
	00		 lea	 edx, DWORD PTR $L195274
  00097	e8 00 00 00 00	 call	 @_RTC_CheckStackVars@8
  0009c	58		 pop	 eax
  0009d	5a		 pop	 edx
  0009e	8b 4d fc	 mov	 ecx, DWORD PTR __$ArrayPad$[ebp]
  000a1	e8 00 00 00 00	 call	 @__security_check_cookie@4
  000a6	5f		 pop	 edi
  000a7	5e		 pop	 esi
  000a8	81 c4 a4 00 00
	00		 add	 esp, 164		; 000000a4H
  000ae	3b ec		 cmp	 ebp, esp
  000b0	e8 00 00 00 00	 call	 __RTC_CheckEsp
  000b5	8b e5		 mov	 esp, ebp
  000b7	5d		 pop	 ebp
  000b8	c3		 ret	 0
$L195274:
  000b9	01 00 00 00	 DD	 1
  000bd	00 00 00 00	 DD	 $L195273
$L195273:
  000c1	64 ff ff ff	 DD	 -156			; ffffff64H
  000c5	94 00 00 00	 DD	 148			; 00000094H
  000c9	00 00 00 00	 DD	 $L195271
$L195271:
  000cd	76		 DB	 118			; 00000076H
  000ce	65		 DB	 101			; 00000065H
  000cf	72		 DB	 114			; 00000072H
  000d0	00		 DB	 0
?_AtlGetThreadACPThunk@ATL@@YGIXZ ENDP			; ATL::_AtlGetThreadACPThunk
_TEXT	ENDS
EXTRN	__imp__InterlockedExchange@8:NEAR
; Function compile flags: /Odt /RTCsu
;	COMDAT ?InterlockedExchangePointer@@YGPAXPAPAXPAX@Z
_TEXT	SEGMENT
_pp$ = 8						; size = 4
_pNew$ = 12						; size = 4
?InterlockedExchangePointer@@YGPAXPAPAXPAX@Z PROC NEAR	; InterlockedExchangePointer, COMDAT

; 91   : {

  00000	55		 push	 ebp
  00001	8b ec		 mov	 ebp, esp
  00003	56		 push	 esi

; 92   : 	return( reinterpret_cast<void*>(static_cast<LONG_PTR>(::InterlockedExchange(reinterpret_cast<LONG*>(pp), static_cast<LONG>(reinterpret_cast<LONG_PTR>(pNew))))) );

  00004	8b f4		 mov	 esi, esp
  00006	8b 45 0c	 mov	 eax, DWORD PTR _pNew$[ebp]
  00009	50		 push	 eax
  0000a	8b 4d 08	 mov	 ecx, DWORD PTR _pp$[ebp]
  0000d	51		 push	 ecx
  0000e	ff 15 00 00 00
	00		 call	 DWORD PTR __imp__InterlockedExchange@8
  00014	3b f4		 cmp	 esi, esp
  00016	e8 00 00 00 00	 call	 __RTC_CheckEsp

; 93   : }

  0001b	5e		 pop	 esi
  0001c	3b ec		 cmp	 ebp, esp
  0001e	e8 00 00 00 00	 call	 __RTC_CheckEsp
  00023	5d		 pop	 ebp
  00024	c2 08 00	 ret	 8
?InterlockedExchangePointer@@YGPAXPAPAXPAX@Z ENDP	; InterlockedExchangePointer
_TEXT	ENDS
EXTRN	__imp__GetACP@0:NEAR
EXTRN	__imp__GetLocaleInfoA@16:NEAR
EXTRN	__imp__GetThreadLocale@0:NEAR
; Function compile flags: /Odt /RTCsu
;	COMDAT ?_AtlGetThreadACPFake@ATL@@YGIXZ
_TEXT	SEGMENT
_pch$24151 = -32					; size = 4
_szACP$ = -24						; size = 7
_lcidThread$ = -12					; size = 4
_nACP$ = -8						; size = 4
__$ArrayPad$ = -4					; size = 4
__$ReturnAddr$ = 4					; size = 4
?_AtlGetThreadACPFake@ATL@@YGIXZ PROC NEAR		; ATL::_AtlGetThreadACPFake, COMDAT

; 101  : {

  00000	55		 push	 ebp
  00001	8b ec		 mov	 ebp, esp
  00003	83 ec 20	 sub	 esp, 32			; 00000020H
  00006	56		 push	 esi
  00007	b8 cc cc cc cc	 mov	 eax, -858993460		; ccccccccH
  0000c	89 45 e0	 mov	 DWORD PTR [ebp-32], eax
  0000f	89 45 e4	 mov	 DWORD PTR [ebp-28], eax
  00012	89 45 e8	 mov	 DWORD PTR [ebp-24], eax
  00015	89 45 ec	 mov	 DWORD PTR [ebp-20], eax
  00018	89 45 f0	 mov	 DWORD PTR [ebp-16], eax
  0001b	89 45 f4	 mov	 DWORD PTR [ebp-12], eax
  0001e	89 45 f8	 mov	 DWORD PTR [ebp-8], eax
  00021	89 45 fc	 mov	 DWORD PTR [ebp-4], eax
  00024	a1 00 00 00 00	 mov	 eax, DWORD PTR ___security_cookie
  00029	89 45 fc	 mov	 DWORD PTR __$ArrayPad$[ebp], eax

; 102  : 	UINT nACP = 0;

  0002c	c7 45 f8 00 00
	00 00		 mov	 DWORD PTR _nACP$[ebp], 0

; 103  : 
; 104  : 	LCID lcidThread = ::GetThreadLocale();

  00033	8b f4		 mov	 esi, esp
  00035	ff 15 00 00 00
	00		 call	 DWORD PTR __imp__GetThreadLocale@0
  0003b	3b f4		 cmp	 esi, esp
  0003d	e8 00 00 00 00	 call	 __RTC_CheckEsp
  00042	89 45 f4	 mov	 DWORD PTR _lcidThread$[ebp], eax

; 105  : 
; 106  : 	char szACP[7];
; 107  : 	// GetLocaleInfoA will fail for a Unicode-only LCID, but those are only supported on 
; 108  : 	// Windows 2000.  Since Windows 2000 supports CP_THREAD_ACP, this code path is never
; 109  : 	// executed on Windows 2000.
; 110  : 	if (::GetLocaleInfoA(lcidThread, LOCALE_IDEFAULTANSICODEPAGE, szACP, 7) != 0)

  00045	8b f4		 mov	 esi, esp
  00047	6a 07		 push	 7
  00049	8d 45 e8	 lea	 eax, DWORD PTR _szACP$[ebp]
  0004c	50		 push	 eax
  0004d	68 04 10 00 00	 push	 4100			; 00001004H
  00052	8b 4d f4	 mov	 ecx, DWORD PTR _lcidThread$[ebp]
  00055	51		 push	 ecx
  00056	ff 15 00 00 00
	00		 call	 DWORD PTR __imp__GetLocaleInfoA@16
  0005c	3b f4		 cmp	 esi, esp
  0005e	e8 00 00 00 00	 call	 __RTC_CheckEsp
  00063	85 c0		 test	 eax, eax
  00065	74 34		 je	 SHORT $L24150

; 111  : 	{
; 112  : 		char* pch = szACP;

  00067	8d 55 e8	 lea	 edx, DWORD PTR _szACP$[ebp]
  0006a	89 55 e0	 mov	 DWORD PTR _pch$24151[ebp], edx
$L24153:

; 113  : 		while (*pch != '\0')

  0006d	8b 45 e0	 mov	 eax, DWORD PTR _pch$24151[ebp]
  00070	0f be 08	 movsx	 ecx, BYTE PTR [eax]
  00073	85 c9		 test	 ecx, ecx
  00075	74 24		 je	 SHORT $L24150

; 114  : 		{
; 115  : 			nACP *= 10;

  00077	8b 55 f8	 mov	 edx, DWORD PTR _nACP$[ebp]
  0007a	6b d2 0a	 imul	 edx, 10			; 0000000aH
  0007d	89 55 f8	 mov	 DWORD PTR _nACP$[ebp], edx

; 116  : 			nACP += *pch++ - '0';

  00080	8b 45 e0	 mov	 eax, DWORD PTR _pch$24151[ebp]
  00083	0f be 08	 movsx	 ecx, BYTE PTR [eax]
  00086	8b 55 f8	 mov	 edx, DWORD PTR _nACP$[ebp]
  00089	8d 44 0a d0	 lea	 eax, DWORD PTR [edx+ecx-48]
  0008d	89 45 f8	 mov	 DWORD PTR _nACP$[ebp], eax
  00090	8b 4d e0	 mov	 ecx, DWORD PTR _pch$24151[ebp]
  00093	83 c1 01	 add	 ecx, 1
  00096	89 4d e0	 mov	 DWORD PTR _pch$24151[ebp], ecx

; 117  : 		}

  00099	eb d2		 jmp	 SHORT $L24153
$L24150:

; 118  : 	}
; 119  : 	// Use the Default ANSI Code Page if we were unable to get the thread ACP or if one does not exist.
; 120  : 	if (nACP == 0)

  0009b	83 7d f8 00	 cmp	 DWORD PTR _nACP$[ebp], 0
  0009f	75 12		 jne	 SHORT $L24155

; 121  : 		nACP = ::GetACP();

  000a1	8b f4		 mov	 esi, esp
  000a3	ff 15 00 00 00
	00		 call	 DWORD PTR __imp__GetACP@0
  000a9	3b f4		 cmp	 esi, esp
  000ab	e8 00 00 00 00	 call	 __RTC_CheckEsp
  000b0	89 45 f8	 mov	 DWORD PTR _nACP$[ebp], eax
$L24155:

; 122  : 
; 123  : 	return nACP;

  000b3	8b 45 f8	 mov	 eax, DWORD PTR _nACP$[ebp]

; 124  : }

  000b6	52		 push	 edx
  000b7	8b cd		 mov	 ecx, ebp
  000b9	50		 push	 eax
  000ba	8d 15 00 00 00
	00		 lea	 edx, DWORD PTR $L195281
  000c0	e8 00 00 00 00	 call	 @_RTC_CheckStackVars@8
  000c5	58		 pop	 eax
  000c6	5a		 pop	 edx
  000c7	8b 4d fc	 mov	 ecx, DWORD PTR __$ArrayPad$[ebp]
  000ca	e8 00 00 00 00	 call	 @__security_check_cookie@4
  000cf	5e		 pop	 esi
  000d0	83 c4 20	 add	 esp, 32			; 00000020H
  000d3	3b ec		 cmp	 ebp, esp
  000d5	e8 00 00 00 00	 call	 __RTC_CheckEsp
  000da	8b e5		 mov	 esp, ebp
  000dc	5d		 pop	 ebp
  000dd	c3		 ret	 0
$L195281:
  000de	01 00 00 00	 DD	 1
  000e2	00 00 00 00	 DD	 $L195280
$L195280:
  000e6	e8 ff ff ff	 DD	 -24			; ffffffe8H
  000ea	07 00 00 00	 DD	 7
  000ee	00 00 00 00	 DD	 $L195278
$L195278:
  000f2	73		 DB	 115			; 00000073H
  000f3	7a		 DB	 122			; 0000007aH
  000f4	41		 DB	 65			; 00000041H
  000f5	43		 DB	 67			; 00000043H
  000f6	50		 DB	 80			; 00000050H
  000f7	00		 DB	 0
?_AtlGetThreadACPFake@ATL@@YGIXZ ENDP			; ATL::_AtlGetThreadACPFake
; Function compile flags: /Odt /RTCsu
_TEXT	ENDS
;	COMDAT ?_AtlGetThreadACPReal@ATL@@YGIXZ
_TEXT	SEGMENT
?_AtlGetThreadACPReal@ATL@@YGIXZ PROC NEAR		; ATL::_AtlGetThreadACPReal, COMDAT

; 127  : {

  00000	55		 push	 ebp
  00001	8b ec		 mov	 ebp, esp

; 128  : 	return( CP_THREAD_ACP );

  00003	b8 03 00 00 00	 mov	 eax, 3

; 129  : }

  00008	5d		 pop	 ebp
  00009	c3		 ret	 0
?_AtlGetThreadACPReal@ATL@@YGIXZ ENDP			; ATL::_AtlGetThreadACPReal
_TEXT	ENDS
PUBLIC	??$?HDU?$char_traits@D@std@@V?$allocator@D@1@@std@@YA?AV?$basic_string@DU?$char_traits@D@std@@V?$allocator@D@2@@0@ABV10@PBD@Z ; std::operator+<char,std::char_traits<char>,std::allocator<char> >
PUBLIC	??1_tagLMCItemInfo@@QAE@XZ			; _tagLMCItemInfo::~_tagLMCItemInfo
PUBLIC	??0_tagLMCItemInfo@@QAE@ABU0@@Z			; _tagLMCItemInfo::_tagLMCItemInfo
PUBLIC	??0TAB_ITEM@@QAE@XZ				; TAB_ITEM::TAB_ITEM
PUBLIC	??1TAB_ITEM@@QAE@XZ				; TAB_ITEM::~TAB_ITEM
PUBLIC	??$?HDU?$char_traits@D@std@@V?$allocator@D@1@@std@@YA?AV?$basic_string@DU?$char_traits@D@std@@V?$allocator@D@2@@0@ABV10@0@Z ; std::operator+<char,std::char_traits<char>,std::allocator<char> >
EXTRN	?OnLButtonDblClk@CWnd@@IAEXIVCPoint@@@Z:NEAR	; CWnd::OnLButtonDblClk
EXTRN	__imp_??4?$basic_string@DU?$char_traits@D@std@@V?$allocator@D@2@@std@@QAEAAV01@ABV01@@Z:NEAR
EXTRN	__imp_??B?$CSimpleStringT@D$00@ATL@@QBEPBDXZ:NEAR
xdata$x	SEGMENT
$T195313 DD	0ffffffffH
	DD	FLAT:$L195293
	DD	00H
	DD	FLAT:$L195294
	DD	01H
	DD	FLAT:$L195295
	DD	02H
	DD	FLAT:$L195296
	DD	02H
	DD	FLAT:$L195297
	DD	04H
	DD	FLAT:$L195298
	DD	05H
	DD	FLAT:$L195299
	DD	06H
	DD	FLAT:$L195300
	DD	07H
	DD	FLAT:$L195301
	DD	08H
	DD	FLAT:$L195302
	DD	09H
	DD	FLAT:$L195303
$T195305 DD	019930520H
	DD	0bH
	DD	FLAT:$T195313
	DD	2 DUP(00H)
	DD	2 DUP(00H)
; Function compile flags: /Odt /RTCsu
; File d:\boxgit\playbox\playbox\dev\prj\playbox\src\module\playedgamepanel\playedgamewnd.cpp
xdata$x	ENDS
_TEXT	SEGMENT
tv178 = -484						; size = 4
tv172 = -480						; size = 4
tv203 = -476						; size = 4
tv222 = -472						; size = 4
tv201 = -468						; size = 4
tv219 = -464						; size = 4
tv199 = -460						; size = 4
tv216 = -456						; size = 4
tv197 = -452						; size = 4
tv213 = -448						; size = 4
tv195 = -444						; size = 4
tv210 = -440						; size = 4
tv193 = -436						; size = 4
tv207 = -432						; size = 4
tv191 = -428						; size = 4
tv204 = -424						; size = 4
tv189 = -420						; size = 4
tv84 = -416						; size = 4
$T195292 = -412						; size = 28
$T195291 = -384						; size = 28
$T195290 = -356						; size = 28
$T195289 = -328						; size = 28
$T195288 = -300						; size = 28
$T195287 = -272						; size = 28
$T195286 = -244						; size = 28
$T195285 = -216						; size = 28
_tItem$192640 = -184					; size = 60
_ii$192639 = -116					; size = 68
_vSel$ = -40						; size = 16
_this$ = -20						; size = 4
__$ArrayPad$ = -16					; size = 4
__$EHRec$ = -12						; size = 12
__$ReturnAddr$ = 4					; size = 4
_nFlags$ = 8						; size = 4
_point$ = 12						; size = 8
?OnLButtonDblClk@PlayedGameWnd@@IAEXIVCPoint@@@Z PROC NEAR ; PlayedGameWnd::OnLButtonDblClk
; _this$ = ecx

; 126  : {

  007f0	55		 push	 ebp
  007f1	8b ec		 mov	 ebp, esp
  007f3	6a ff		 push	 -1
  007f5	68 00 00 00 00	 push	 __ehhandler$?OnLButtonDblClk@PlayedGameWnd@@IAEXIVCPoint@@@Z
  007fa	64 a1 00 00 00
	00		 mov	 eax, DWORD PTR fs:__except_list
  00800	50		 push	 eax
  00801	64 89 25 00 00
	00 00		 mov	 DWORD PTR fs:__except_list, esp
  00808	81 ec d8 01 00
	00		 sub	 esp, 472		; 000001d8H
  0080e	56		 push	 esi
  0080f	57		 push	 edi
  00810	51		 push	 ecx
  00811	8d bd 1c fe ff
	ff		 lea	 edi, DWORD PTR [ebp-484]
  00817	b9 76 00 00 00	 mov	 ecx, 118		; 00000076H
  0081c	b8 cc cc cc cc	 mov	 eax, -858993460		; ccccccccH
  00821	f3 ab		 rep stosd
  00823	59		 pop	 ecx
  00824	a1 00 00 00 00	 mov	 eax, DWORD PTR ___security_cookie
  00829	89 45 f0	 mov	 DWORD PTR __$ArrayPad$[ebp], eax
  0082c	89 4d ec	 mov	 DWORD PTR _this$[ebp], ecx

; 127  : 	vector<int> vSel = GetSelectItem();

  0082f	8d 45 d8	 lea	 eax, DWORD PTR _vSel$[ebp]
  00832	50		 push	 eax
  00833	8b 4d ec	 mov	 ecx, DWORD PTR _this$[ebp]
  00836	e8 00 00 00 00	 call	 ?GetSelectItem@CLocalMusicCoverList@@QAE?AV?$vector@HV?$allocator@H@std@@@std@@XZ ; CLocalMusicCoverList::GetSelectItem
  0083b	c7 45 fc 00 00
	00 00		 mov	 DWORD PTR __$EHRec$[ebp+8], 0

; 128  : 	if ( vSel.size() > 0 )

  00842	8d 4d d8	 lea	 ecx, DWORD PTR _vSel$[ebp]
  00845	e8 00 00 00 00	 call	 ?size@?$vector@HV?$allocator@H@std@@@std@@QBEIXZ ; std::vector<int,std::allocator<int> >::size
  0084a	85 c0		 test	 eax, eax
  0084c	0f 86 42 03 00
	00		 jbe	 $L192638

; 129  : 	{
; 130  : 		LMC_ItemInfo ii = m_DataMgr.m_vItem[vSel[0]];

  00852	6a 00		 push	 0
  00854	8d 4d d8	 lea	 ecx, DWORD PTR _vSel$[ebp]
  00857	e8 00 00 00 00	 call	 ??A?$vector@HV?$allocator@H@std@@@std@@QAEAAHI@Z ; std::vector<int,std::allocator<int> >::operator[]
  0085c	8b 08		 mov	 ecx, DWORD PTR [eax]
  0085e	51		 push	 ecx
  0085f	8b 4d ec	 mov	 ecx, DWORD PTR _this$[ebp]
  00862	81 c1 6c 01 00
	00		 add	 ecx, 364		; 0000016cH
  00868	e8 00 00 00 00	 call	 ??A?$vector@U_tagLMCItemInfo@@V?$allocator@U_tagLMCItemInfo@@@std@@@std@@QAEAAU_tagLMCItemInfo@@I@Z ; std::vector<_tagLMCItemInfo,std::allocator<_tagLMCItemInfo> >::operator[]
  0086d	50		 push	 eax
  0086e	8d 4d 8c	 lea	 ecx, DWORD PTR _ii$192639[ebp]
  00871	e8 00 00 00 00	 call	 ??0_tagLMCItemInfo@@QAE@ABU0@@Z
  00876	c6 45 fc 01	 mov	 BYTE PTR __$EHRec$[ebp+8], 1

; 131  : 
; 132  : 		TAB_ITEM tItem;

  0087a	8d 8d 48 ff ff
	ff		 lea	 ecx, DWORD PTR _tItem$192640[ebp]
  00880	e8 00 00 00 00	 call	 ??0TAB_ITEM@@QAE@XZ
  00885	c6 45 fc 02	 mov	 BYTE PTR __$EHRec$[ebp+8], 2

; 133  : 		tItem.eumType = TAB_GAME;

  00889	c7 85 64 ff ff
	ff 03 00 00 00	 mov	 DWORD PTR _tItem$192640[ebp+28], 3

; 134  : 		tItem.strName = string(ii.strItemName);

  00893	8b f4		 mov	 esi, esp
  00895	8d 4d b4	 lea	 ecx, DWORD PTR _ii$192639[ebp+40]
  00898	ff 15 00 00 00
	00		 call	 DWORD PTR __imp_??B?$CSimpleStringT@D$00@ATL@@QBEPBDXZ
  0089e	3b f4		 cmp	 esi, esp
  008a0	e8 00 00 00 00	 call	 __RTC_CheckEsp
  008a5	8b f4		 mov	 esi, esp
  008a7	50		 push	 eax
  008a8	8d 8d 28 ff ff
	ff		 lea	 ecx, DWORD PTR $T195285[ebp]
  008ae	ff 15 00 00 00
	00		 call	 DWORD PTR __imp_??0?$basic_string@DU?$char_traits@D@std@@V?$allocator@D@2@@std@@QAE@PBD@Z
  008b4	3b f4		 cmp	 esi, esp
  008b6	e8 00 00 00 00	 call	 __RTC_CheckEsp
  008bb	89 85 60 fe ff
	ff		 mov	 DWORD PTR tv84[ebp], eax
  008c1	8b 95 60 fe ff
	ff		 mov	 edx, DWORD PTR tv84[ebp]
  008c7	89 95 5c fe ff
	ff		 mov	 DWORD PTR tv189[ebp], edx
  008cd	c6 45 fc 03	 mov	 BYTE PTR __$EHRec$[ebp+8], 3
  008d1	8b f4		 mov	 esi, esp
  008d3	8b 85 5c fe ff
	ff		 mov	 eax, DWORD PTR tv189[ebp]
  008d9	50		 push	 eax
  008da	8d 8d 48 ff ff
	ff		 lea	 ecx, DWORD PTR _tItem$192640[ebp]
  008e0	ff 15 00 00 00
	00		 call	 DWORD PTR __imp_??4?$basic_string@DU?$char_traits@D@std@@V?$allocator@D@2@@std@@QAEAAV01@ABV01@@Z
  008e6	3b f4		 cmp	 esi, esp
  008e8	e8 00 00 00 00	 call	 __RTC_CheckEsp
  008ed	c6 45 fc 02	 mov	 BYTE PTR __$EHRec$[ebp+8], 2
  008f1	8b f4		 mov	 esi, esp
  008f3	8d 8d 28 ff ff
	ff		 lea	 ecx, DWORD PTR $T195285[ebp]
  008f9	ff 15 00 00 00
	00		 call	 DWORD PTR __imp_??1?$basic_string@DU?$char_traits@D@std@@V?$allocator@D@2@@std@@QAE@XZ
  008ff	3b f4		 cmp	 esi, esp
  00901	e8 00 00 00 00	 call	 __RTC_CheckEsp

; 135  : 		tItem.strParam = string("method=playswfgame\n\n") + "id=" + ii.strGID + "\n"
; 136  : 			+ "name=" + tItem.strName + "\n";

  00906	8b f4		 mov	 esi, esp
  00908	68 00 00 00 00	 push	 OFFSET FLAT:$SG192653
  0090d	8d 8d 0c ff ff
	ff		 lea	 ecx, DWORD PTR $T195286[ebp]
  00913	ff 15 00 00 00
	00		 call	 DWORD PTR __imp_??0?$basic_string@DU?$char_traits@D@std@@V?$allocator@D@2@@std@@QAE@PBD@Z
  00919	3b f4		 cmp	 esi, esp
  0091b	e8 00 00 00 00	 call	 __RTC_CheckEsp
  00920	89 85 58 fe ff
	ff		 mov	 DWORD PTR tv204[ebp], eax
  00926	8b 8d 58 fe ff
	ff		 mov	 ecx, DWORD PTR tv204[ebp]
  0092c	89 8d 54 fe ff
	ff		 mov	 DWORD PTR tv191[ebp], ecx
  00932	c6 45 fc 04	 mov	 BYTE PTR __$EHRec$[ebp+8], 4
  00936	68 00 00 00 00	 push	 OFFSET FLAT:$SG192652
  0093b	8b 95 54 fe ff
	ff		 mov	 edx, DWORD PTR tv191[ebp]
  00941	52		 push	 edx
  00942	8d 85 f0 fe ff
	ff		 lea	 eax, DWORD PTR $T195287[ebp]
  00948	50		 push	 eax
  00949	e8 00 00 00 00	 call	 ??$?HDU?$char_traits@D@std@@V?$allocator@D@1@@std@@YA?AV?$basic_string@DU?$char_traits@D@std@@V?$allocator@D@2@@0@ABV10@PBD@Z ; std::operator+<char,std::char_traits<char>,std::allocator<char> >
  0094e	83 c4 0c	 add	 esp, 12			; 0000000cH
  00951	89 85 50 fe ff
	ff		 mov	 DWORD PTR tv207[ebp], eax
  00957	8b 8d 50 fe ff
	ff		 mov	 ecx, DWORD PTR tv207[ebp]
  0095d	89 8d 4c fe ff
	ff		 mov	 DWORD PTR tv193[ebp], ecx
  00963	c6 45 fc 05	 mov	 BYTE PTR __$EHRec$[ebp+8], 5
  00967	8d 55 8c	 lea	 edx, DWORD PTR _ii$192639[ebp]
  0096a	52		 push	 edx
  0096b	8b 85 4c fe ff
	ff		 mov	 eax, DWORD PTR tv193[ebp]
  00971	50		 push	 eax
  00972	8d 8d d4 fe ff
	ff		 lea	 ecx, DWORD PTR $T195288[ebp]
  00978	51		 push	 ecx
  00979	e8 00 00 00 00	 call	 ??$?HDU?$char_traits@D@std@@V?$allocator@D@1@@std@@YA?AV?$basic_string@DU?$char_traits@D@std@@V?$allocator@D@2@@0@ABV10@0@Z ; std::operator+<char,std::char_traits<char>,std::allocator<char> >
  0097e	83 c4 0c	 add	 esp, 12			; 0000000cH
  00981	89 85 48 fe ff
	ff		 mov	 DWORD PTR tv210[ebp], eax
  00987	8b 95 48 fe ff
	ff		 mov	 edx, DWORD PTR tv210[ebp]
  0098d	89 95 44 fe ff
	ff		 mov	 DWORD PTR tv195[ebp], edx
  00993	c6 45 fc 06	 mov	 BYTE PTR __$EHRec$[ebp+8], 6
  00997	68 00 00 00 00	 push	 OFFSET FLAT:$SG192651
  0099c	8b 85 44 fe ff
	ff		 mov	 eax, DWORD PTR tv195[ebp]
  009a2	50		 push	 eax
  009a3	8d 8d b8 fe ff
	ff		 lea	 ecx, DWORD PTR $T195289[ebp]
  009a9	51		 push	 ecx
  009aa	e8 00 00 00 00	 call	 ??$?HDU?$char_traits@D@std@@V?$allocator@D@1@@std@@YA?AV?$basic_string@DU?$char_traits@D@std@@V?$allocator@D@2@@0@ABV10@PBD@Z ; std::operator+<char,std::char_traits<char>,std::allocator<char> >
  009af	83 c4 0c	 add	 esp, 12			; 0000000cH
  009b2	89 85 40 fe ff
	ff		 mov	 DWORD PTR tv213[ebp], eax
  009b8	8b 95 40 fe ff
	ff		 mov	 edx, DWORD PTR tv213[ebp]
  009be	89 95 3c fe ff
	ff		 mov	 DWORD PTR tv197[ebp], edx
  009c4	c6 45 fc 07	 mov	 BYTE PTR __$EHRec$[ebp+8], 7
  009c8	68 00 00 00 00	 push	 OFFSET FLAT:$SG192650
  009cd	8b 85 3c fe ff
	ff		 mov	 eax, DWORD PTR tv197[ebp]
  009d3	50		 push	 eax
  009d4	8d 8d 9c fe ff
	ff		 lea	 ecx, DWORD PTR $T195290[ebp]
  009da	51		 push	 ecx
  009db	e8 00 00 00 00	 call	 ??$?HDU?$char_traits@D@std@@V?$allocator@D@1@@std@@YA?AV?$basic_string@DU?$char_traits@D@std@@V?$allocator@D@2@@0@ABV10@PBD@Z ; std::operator+<char,std::char_traits<char>,std::allocator<char> >
  009e0	83 c4 0c	 add	 esp, 12			; 0000000cH
  009e3	89 85 38 fe ff
	ff		 mov	 DWORD PTR tv216[ebp], eax
  009e9	8b 95 38 fe ff
	ff		 mov	 edx, DWORD PTR tv216[ebp]
  009ef	89 95 34 fe ff
	ff		 mov	 DWORD PTR tv199[ebp], edx
  009f5	c6 45 fc 08	 mov	 BYTE PTR __$EHRec$[ebp+8], 8
  009f9	8d 85 48 ff ff
	ff		 lea	 eax, DWORD PTR _tItem$192640[ebp]
  009ff	50		 push	 eax
  00a00	8b 8d 34 fe ff
	ff		 mov	 ecx, DWORD PTR tv199[ebp]
  00a06	51		 push	 ecx
  00a07	8d 95 80 fe ff
	ff		 lea	 edx, DWORD PTR $T195291[ebp]
  00a0d	52		 push	 edx
  00a0e	e8 00 00 00 00	 call	 ??$?HDU?$char_traits@D@std@@V?$allocator@D@1@@std@@YA?AV?$basic_string@DU?$char_traits@D@std@@V?$allocator@D@2@@0@ABV10@0@Z ; std::operator+<char,std::char_traits<char>,std::allocator<char> >
  00a13	83 c4 0c	 add	 esp, 12			; 0000000cH
  00a16	89 85 30 fe ff
	ff		 mov	 DWORD PTR tv219[ebp], eax
  00a1c	8b 85 30 fe ff
	ff		 mov	 eax, DWORD PTR tv219[ebp]
  00a22	89 85 2c fe ff
	ff		 mov	 DWORD PTR tv201[ebp], eax
  00a28	c6 45 fc 09	 mov	 BYTE PTR __$EHRec$[ebp+8], 9
  00a2c	68 00 00 00 00	 push	 OFFSET FLAT:$SG192649
  00a31	8b 8d 2c fe ff
	ff		 mov	 ecx, DWORD PTR tv201[ebp]
  00a37	51		 push	 ecx
  00a38	8d 95 64 fe ff
	ff		 lea	 edx, DWORD PTR $T195292[ebp]
  00a3e	52		 push	 edx
  00a3f	e8 00 00 00 00	 call	 ??$?HDU?$char_traits@D@std@@V?$allocator@D@1@@std@@YA?AV?$basic_string@DU?$char_traits@D@std@@V?$allocator@D@2@@0@ABV10@PBD@Z ; std::operator+<char,std::char_traits<char>,std::allocator<char> >
  00a44	83 c4 0c	 add	 esp, 12			; 0000000cH
  00a47	89 85 28 fe ff
	ff		 mov	 DWORD PTR tv222[ebp], eax
  00a4d	8b 85 28 fe ff
	ff		 mov	 eax, DWORD PTR tv222[ebp]
  00a53	89 85 24 fe ff
	ff		 mov	 DWORD PTR tv203[ebp], eax
  00a59	c6 45 fc 0a	 mov	 BYTE PTR __$EHRec$[ebp+8], 10 ; 0000000aH
  00a5d	8b f4		 mov	 esi, esp
  00a5f	8b 8d 24 fe ff
	ff		 mov	 ecx, DWORD PTR tv203[ebp]
  00a65	51		 push	 ecx
  00a66	8d 8d 68 ff ff
	ff		 lea	 ecx, DWORD PTR _tItem$192640[ebp+32]
  00a6c	ff 15 00 00 00
	00		 call	 DWORD PTR __imp_??4?$basic_string@DU?$char_traits@D@std@@V?$allocator@D@2@@std@@QAEAAV01@ABV01@@Z
  00a72	3b f4		 cmp	 esi, esp
  00a74	e8 00 00 00 00	 call	 __RTC_CheckEsp
  00a79	c6 45 fc 09	 mov	 BYTE PTR __$EHRec$[ebp+8], 9
  00a7d	8b f4		 mov	 esi, esp
  00a7f	8d 8d 64 fe ff
	ff		 lea	 ecx, DWORD PTR $T195292[ebp]
  00a85	ff 15 00 00 00
	00		 call	 DWORD PTR __imp_??1?$basic_string@DU?$char_traits@D@std@@V?$allocator@D@2@@std@@QAE@XZ
  00a8b	3b f4		 cmp	 esi, esp
  00a8d	e8 00 00 00 00	 call	 __RTC_CheckEsp
  00a92	c6 45 fc 08	 mov	 BYTE PTR __$EHRec$[ebp+8], 8
  00a96	8b f4		 mov	 esi, esp
  00a98	8d 8d 80 fe ff
	ff		 lea	 ecx, DWORD PTR $T195291[ebp]
  00a9e	ff 15 00 00 00
	00		 call	 DWORD PTR __imp_??1?$basic_string@DU?$char_traits@D@std@@V?$allocator@D@2@@std@@QAE@XZ
  00aa4	3b f4		 cmp	 esi, esp
  00aa6	e8 00 00 00 00	 call	 __RTC_CheckEsp
  00aab	c6 45 fc 07	 mov	 BYTE PTR __$EHRec$[ebp+8], 7
  00aaf	8b f4		 mov	 esi, esp
  00ab1	8d 8d 9c fe ff
	ff		 lea	 ecx, DWORD PTR $T195290[ebp]
  00ab7	ff 15 00 00 00
	00		 call	 DWORD PTR __imp_??1?$basic_string@DU?$char_traits@D@std@@V?$allocator@D@2@@std@@QAE@XZ
  00abd	3b f4		 cmp	 esi, esp
  00abf	e8 00 00 00 00	 call	 __RTC_CheckEsp
  00ac4	c6 45 fc 06	 mov	 BYTE PTR __$EHRec$[ebp+8], 6
  00ac8	8b f4		 mov	 esi, esp
  00aca	8d 8d b8 fe ff
	ff		 lea	 ecx, DWORD PTR $T195289[ebp]
  00ad0	ff 15 00 00 00
	00		 call	 DWORD PTR __imp_??1?$basic_string@DU?$char_traits@D@std@@V?$allocator@D@2@@std@@QAE@XZ
  00ad6	3b f4		 cmp	 esi, esp
  00ad8	e8 00 00 00 00	 call	 __RTC_CheckEsp
  00add	c6 45 fc 05	 mov	 BYTE PTR __$EHRec$[ebp+8], 5
  00ae1	8b f4		 mov	 esi, esp
  00ae3	8d 8d d4 fe ff
	ff		 lea	 ecx, DWORD PTR $T195288[ebp]
  00ae9	ff 15 00 00 00
	00		 call	 DWORD PTR __imp_??1?$basic_string@DU?$char_traits@D@std@@V?$allocator@D@2@@std@@QAE@XZ
  00aef	3b f4		 cmp	 esi, esp
  00af1	e8 00 00 00 00	 call	 __RTC_CheckEsp
  00af6	c6 45 fc 04	 mov	 BYTE PTR __$EHRec$[ebp+8], 4
  00afa	8b f4		 mov	 esi, esp
  00afc	8d 8d f0 fe ff
	ff		 lea	 ecx, DWORD PTR $T195287[ebp]
  00b02	ff 15 00 00 00
	00		 call	 DWORD PTR __imp_??1?$basic_string@DU?$char_traits@D@std@@V?$allocator@D@2@@std@@QAE@XZ
  00b08	3b f4		 cmp	 esi, esp
  00b0a	e8 00 00 00 00	 call	 __RTC_CheckEsp
  00b0f	c6 45 fc 02	 mov	 BYTE PTR __$EHRec$[ebp+8], 2
  00b13	8b f4		 mov	 esi, esp
  00b15	8d 8d 0c ff ff
	ff		 lea	 ecx, DWORD PTR $T195286[ebp]
  00b1b	ff 15 00 00 00
	00		 call	 DWORD PTR __imp_??1?$basic_string@DU?$char_traits@D@std@@V?$allocator@D@2@@std@@QAE@XZ
  00b21	3b f4		 cmp	 esi, esp
  00b23	e8 00 00 00 00	 call	 __RTC_CheckEsp

; 137  : 
; 138  : 		GLOBAL_TABBARDATA->ITabBar_ChangeTab(tItem);

  00b28	e8 00 00 00 00	 call	 ?AfxGetDataManager2@@YAPAVIDataManager@@XZ ; AfxGetDataManager2
  00b2d	89 85 20 fe ff
	ff		 mov	 DWORD PTR tv172[ebp], eax
  00b33	8b f4		 mov	 esi, esp
  00b35	68 00 00 00 00	 push	 OFFSET FLAT:_ID_DATA_TABBAR
  00b3a	8b 95 20 fe ff
	ff		 mov	 edx, DWORD PTR tv172[ebp]
  00b40	8b 02		 mov	 eax, DWORD PTR [edx]
  00b42	8b 8d 20 fe ff
	ff		 mov	 ecx, DWORD PTR tv172[ebp]
  00b48	ff 50 0c	 call	 DWORD PTR [eax+12]
  00b4b	3b f4		 cmp	 esi, esp
  00b4d	e8 00 00 00 00	 call	 __RTC_CheckEsp
  00b52	89 85 1c fe ff
	ff		 mov	 DWORD PTR tv178[ebp], eax
  00b58	8b f4		 mov	 esi, esp
  00b5a	8d 8d 48 ff ff
	ff		 lea	 ecx, DWORD PTR _tItem$192640[ebp]
  00b60	51		 push	 ecx
  00b61	8b 95 1c fe ff
	ff		 mov	 edx, DWORD PTR tv178[ebp]
  00b67	8b 02		 mov	 eax, DWORD PTR [edx]
  00b69	8b 8d 1c fe ff
	ff		 mov	 ecx, DWORD PTR tv178[ebp]
  00b6f	ff 50 0c	 call	 DWORD PTR [eax+12]
  00b72	3b f4		 cmp	 esi, esp
  00b74	e8 00 00 00 00	 call	 __RTC_CheckEsp

; 139  : 
; 140  : 		//OnMemoryDraw ();
; 141  : 	}

  00b79	c6 45 fc 01	 mov	 BYTE PTR __$EHRec$[ebp+8], 1
  00b7d	8d 8d 48 ff ff
	ff		 lea	 ecx, DWORD PTR _tItem$192640[ebp]
  00b83	e8 00 00 00 00	 call	 ??1TAB_ITEM@@QAE@XZ
  00b88	c6 45 fc 00	 mov	 BYTE PTR __$EHRec$[ebp+8], 0
  00b8c	8d 4d 8c	 lea	 ecx, DWORD PTR _ii$192639[ebp]
  00b8f	e8 00 00 00 00	 call	 ??1_tagLMCItemInfo@@QAE@XZ
$L192638:

; 142  : 
; 143  : 	__super::OnLButtonDblClk(nFlags, point);

  00b94	8b 4d 10	 mov	 ecx, DWORD PTR _point$[ebp+4]
  00b97	51		 push	 ecx
  00b98	8b 55 0c	 mov	 edx, DWORD PTR _point$[ebp]
  00b9b	52		 push	 edx
  00b9c	8b 45 08	 mov	 eax, DWORD PTR _nFlags$[ebp]
  00b9f	50		 push	 eax
  00ba0	8b 4d ec	 mov	 ecx, DWORD PTR _this$[ebp]
  00ba3	e8 00 00 00 00	 call	 ?OnLButtonDblClk@CWnd@@IAEXIVCPoint@@@Z ; CWnd::OnLButtonDblClk

; 144  : }

  00ba8	c7 45 fc ff ff
	ff ff		 mov	 DWORD PTR __$EHRec$[ebp+8], -1
  00baf	8d 4d d8	 lea	 ecx, DWORD PTR _vSel$[ebp]
  00bb2	e8 00 00 00 00	 call	 ??1?$vector@HV?$allocator@H@std@@@std@@QAE@XZ ; std::vector<int,std::allocator<int> >::~vector<int,std::allocator<int> >
  00bb7	52		 push	 edx
  00bb8	8b cd		 mov	 ecx, ebp
  00bba	50		 push	 eax
  00bbb	8d 15 00 00 00
	00		 lea	 edx, DWORD PTR $L195312
  00bc1	e8 00 00 00 00	 call	 @_RTC_CheckStackVars@8
  00bc6	58		 pop	 eax
  00bc7	5a		 pop	 edx
  00bc8	8b 4d f4	 mov	 ecx, DWORD PTR __$EHRec$[ebp]
  00bcb	64 89 0d 00 00
	00 00		 mov	 DWORD PTR fs:__except_list, ecx
  00bd2	8b 4d f0	 mov	 ecx, DWORD PTR __$ArrayPad$[ebp]
  00bd5	e8 00 00 00 00	 call	 @__security_check_cookie@4
  00bda	5f		 pop	 edi
  00bdb	5e		 pop	 esi
  00bdc	81 c4 e4 01 00
	00		 add	 esp, 484		; 000001e4H
  00be2	3b ec		 cmp	 ebp, esp
  00be4	e8 00 00 00 00	 call	 __RTC_CheckEsp
  00be9	8b e5		 mov	 esp, ebp
  00beb	5d		 pop	 ebp
  00bec	c2 0c 00	 ret	 12			; 0000000cH
$L195312:
  00bef	03 00 00 00	 DD	 3
  00bf3	00 00 00 00	 DD	 $L195311
$L195311:
  00bf7	d8 ff ff ff	 DD	 -40			; ffffffd8H
  00bfb	10 00 00 00	 DD	 16			; 00000010H
  00bff	00 00 00 00	 DD	 $L195306
  00c03	8c ff ff ff	 DD	 -116			; ffffff8cH
  00c07	44 00 00 00	 DD	 68			; 00000044H
  00c0b	00 00 00 00	 DD	 $L195307
  00c0f	48 ff ff ff	 DD	 -184			; ffffff48H
  00c13	3c 00 00 00	 DD	 60			; 0000003cH
  00c17	00 00 00 00	 DD	 $L195308
$L195308:
  00c1b	74		 DB	 116			; 00000074H
  00c1c	49		 DB	 73			; 00000049H
  00c1d	74		 DB	 116			; 00000074H
  00c1e	65		 DB	 101			; 00000065H
  00c1f	6d		 DB	 109			; 0000006dH
  00c20	00		 DB	 0
$L195307:
  00c21	69		 DB	 105			; 00000069H
  00c22	69		 DB	 105			; 00000069H
  00c23	00		 DB	 0
$L195306:
  00c24	76		 DB	 118			; 00000076H
  00c25	53		 DB	 83			; 00000053H
  00c26	65		 DB	 101			; 00000065H
  00c27	6c		 DB	 108			; 0000006cH
  00c28	00		 DB	 0
_TEXT	ENDS
text$x	SEGMENT
$L195293:
  00138	8d 4d d8	 lea	 ecx, DWORD PTR _vSel$[ebp]
  0013b	e9 00 00 00 00	 jmp	 ??1?$vector@HV?$allocator@H@std@@@std@@QAE@XZ ; std::vector<int,std::allocator<int> >::~vector<int,std::allocator<int> >
$L195294:
  00140	8d 4d 8c	 lea	 ecx, DWORD PTR _ii$192639[ebp]
  00143	e9 00 00 00 00	 jmp	 ??1_tagLMCItemInfo@@QAE@XZ
$L195295:
  00148	8d 8d 48 ff ff
	ff		 lea	 ecx, DWORD PTR _tItem$192640[ebp]
  0014e	e9 00 00 00 00	 jmp	 ??1TAB_ITEM@@QAE@XZ
$L195296:
  00153	8b f4		 mov	 esi, esp
  00155	8d 8d 28 ff ff
	ff		 lea	 ecx, DWORD PTR $T195285[ebp]
  0015b	ff 15 00 00 00
	00		 call	 DWORD PTR __imp_??1?$basic_string@DU?$char_traits@D@std@@V?$allocator@D@2@@std@@QAE@XZ
  00161	3b f4		 cmp	 esi, esp
  00163	e9 00 00 00 00	 jmp	 __RTC_CheckEsp
$L195297:
  00168	8b f4		 mov	 esi, esp
  0016a	8d 8d 0c ff ff
	ff		 lea	 ecx, DWORD PTR $T195286[ebp]
  00170	ff 15 00 00 00
	00		 call	 DWORD PTR __imp_??1?$basic_string@DU?$char_traits@D@std@@V?$allocator@D@2@@std@@QAE@XZ
  00176	3b f4		 cmp	 esi, esp
  00178	e9 00 00 00 00	 jmp	 __RTC_CheckEsp
$L195298:
  0017d	8b f4		 mov	 esi, esp
  0017f	8d 8d f0 fe ff
	ff		 lea	 ecx, DWORD PTR $T195287[ebp]
  00185	ff 15 00 00 00
	00		 call	 DWORD PTR __imp_??1?$basic_string@DU?$char_traits@D@std@@V?$allocator@D@2@@std@@QAE@XZ
  0018b	3b f4		 cmp	 esi, esp
  0018d	e9 00 00 00 00	 jmp	 __RTC_CheckEsp
$L195299:
  00192	8b f4		 mov	 esi, esp
  00194	8d 8d d4 fe ff
	ff		 lea	 ecx, DWORD PTR $T195288[ebp]
  0019a	ff 15 00 00 00
	00		 call	 DWORD PTR __imp_??1?$basic_string@DU?$char_traits@D@std@@V?$allocator@D@2@@std@@QAE@XZ
  001a0	3b f4		 cmp	 esi, esp
  001a2	e9 00 00 00 00	 jmp	 __RTC_CheckEsp
$L195300:
  001a7	8b f4		 mov	 esi, esp
  001a9	8d 8d b8 fe ff
	ff		 lea	 ecx, DWORD PTR $T195289[ebp]
  001af	ff 15 00 00 00
	00		 call	 DWORD PTR __imp_??1?$basic_string@DU?$char_traits@D@std@@V?$allocator@D@2@@std@@QAE@XZ
  001b5	3b f4		 cmp	 esi, esp
  001b7	e9 00 00 00 00	 jmp	 __RTC_CheckEsp
$L195301:
  001bc	8b f4		 mov	 esi, esp
  001be	8d 8d 9c fe ff
	ff		 lea	 ecx, DWORD PTR $T195290[ebp]
  001c4	ff 15 00 00 00
	00		 call	 DWORD PTR __imp_??1?$basic_string@DU?$char_traits@D@std@@V?$allocator@D@2@@std@@QAE@XZ
  001ca	3b f4		 cmp	 esi, esp
  001cc	e9 00 00 00 00	 jmp	 __RTC_CheckEsp
$L195302:
  001d1	8b f4		 mov	 esi, esp
  001d3	8d 8d 80 fe ff
	ff		 lea	 ecx, DWORD PTR $T195291[ebp]
  001d9	ff 15 00 00 00
	00		 call	 DWORD PTR __imp_??1?$basic_string@DU?$char_traits@D@std@@V?$allocator@D@2@@std@@QAE@XZ
  001df	3b f4		 cmp	 esi, esp
  001e1	e9 00 00 00 00	 jmp	 __RTC_CheckEsp
$L195303:
  001e6	8b f4		 mov	 esi, esp
  001e8	8d 8d 64 fe ff
	ff		 lea	 ecx, DWORD PTR $T195292[ebp]
  001ee	ff 15 00 00 00
	00		 call	 DWORD PTR __imp_??1?$basic_string@DU?$char_traits@D@std@@V?$allocator@D@2@@std@@QAE@XZ
  001f4	3b f4		 cmp	 esi, esp
  001f6	e9 00 00 00 00	 jmp	 __RTC_CheckEsp
__ehhandler$?OnLButtonDblClk@PlayedGameWnd@@IAEXIVCPoint@@@Z:
  001fb	b8 00 00 00 00	 mov	 eax, OFFSET FLAT:$T195305
  00200	e9 00 00 00 00	 jmp	 ___CxxFrameHandler
text$x	ENDS
?OnLButtonDblClk@PlayedGameWnd@@IAEXIVCPoint@@@Z ENDP	; PlayedGameWnd::OnLButtonDblClk
EXTRN	__imp_??1?$CStringT@DV?$StrTraitMFC_DLL@DV?$ChTraitsCRT@D@ATL@@@@@ATL@@QAE@XZ:NEAR
; Function compile flags: /Odt /RTCsu
;	COMDAT ??1_tagLMCItemInfo@@QAE@XZ
_TEXT	SEGMENT
_this$ = -4						; size = 4
??1_tagLMCItemInfo@@QAE@XZ PROC NEAR			; _tagLMCItemInfo::~_tagLMCItemInfo, COMDAT
; _this$ = ecx
  00000	55		 push	 ebp
  00001	8b ec		 mov	 ebp, esp
  00003	51		 push	 ecx
  00004	56		 push	 esi
  00005	c7 45 fc cc cc
	cc cc		 mov	 DWORD PTR [ebp-4], -858993460 ; ccccccccH
  0000c	89 4d fc	 mov	 DWORD PTR _this$[ebp], ecx
  0000f	8b 4d fc	 mov	 ecx, DWORD PTR _this$[ebp]
  00012	83 c1 30	 add	 ecx, 48			; 00000030H
  00015	8b f4		 mov	 esi, esp
  00017	ff 15 00 00 00
	00		 call	 DWORD PTR __imp_??1?$CStringT@DV?$StrTraitMFC_DLL@DV?$ChTraitsCRT@D@ATL@@@@@ATL@@QAE@XZ
  0001d	3b f4		 cmp	 esi, esp
  0001f	e8 00 00 00 00	 call	 __RTC_CheckEsp
  00024	8b 4d fc	 mov	 ecx, DWORD PTR _this$[ebp]
  00027	83 c1 2c	 add	 ecx, 44			; 0000002cH
  0002a	8b f4		 mov	 esi, esp
  0002c	ff 15 00 00 00
	00		 call	 DWORD PTR __imp_??1?$CStringT@DV?$StrTraitMFC_DLL@DV?$ChTraitsCRT@D@ATL@@@@@ATL@@QAE@XZ
  00032	3b f4		 cmp	 esi, esp
  00034	e8 00 00 00 00	 call	 __RTC_CheckEsp
  00039	8b 4d fc	 mov	 ecx, DWORD PTR _this$[ebp]
  0003c	83 c1 28	 add	 ecx, 40			; 00000028H
  0003f	8b f4		 mov	 esi, esp
  00041	ff 15 00 00 00
	00		 call	 DWORD PTR __imp_??1?$CStringT@DV?$StrTraitMFC_DLL@DV?$ChTraitsCRT@D@ATL@@@@@ATL@@QAE@XZ
  00047	3b f4		 cmp	 esi, esp
  00049	e8 00 00 00 00	 call	 __RTC_CheckEsp
  0004e	8b f4		 mov	 esi, esp
  00050	8b 4d fc	 mov	 ecx, DWORD PTR _this$[ebp]
  00053	ff 15 00 00 00
	00		 call	 DWORD PTR __imp_??1?$basic_string@DU?$char_traits@D@std@@V?$allocator@D@2@@std@@QAE@XZ
  00059	3b f4		 cmp	 esi, esp
  0005b	e8 00 00 00 00	 call	 __RTC_CheckEsp
  00060	5e		 pop	 esi
  00061	83 c4 04	 add	 esp, 4
  00064	3b ec		 cmp	 ebp, esp
  00066	e8 00 00 00 00	 call	 __RTC_CheckEsp
  0006b	8b e5		 mov	 esp, ebp
  0006d	5d		 pop	 ebp
  0006e	c3		 ret	 0
??1_tagLMCItemInfo@@QAE@XZ ENDP				; _tagLMCItemInfo::~_tagLMCItemInfo
_TEXT	ENDS
EXTRN	__imp_??0?$CStringT@DV?$StrTraitMFC_DLL@DV?$ChTraitsCRT@D@ATL@@@@@ATL@@QAE@ABV01@@Z:NEAR
;	COMDAT xdata$x
xdata$x	SEGMENT
$T195327 DD	0ffffffffH
	DD	FLAT:$L195320
	DD	00H
	DD	FLAT:$L195321
	DD	01H
	DD	FLAT:$L195322
$T195325 DD	019930520H
	DD	03H
	DD	FLAT:$T195327
	DD	2 DUP(00H)
	DD	2 DUP(00H)
; Function compile flags: /Odt /RTCsu
xdata$x	ENDS
;	COMDAT ??0_tagLMCItemInfo@@QAE@ABU0@@Z
_TEXT	SEGMENT
_this$ = -16						; size = 4
__$EHRec$ = -12						; size = 12
___that$ = 8						; size = 4
??0_tagLMCItemInfo@@QAE@ABU0@@Z PROC NEAR		; _tagLMCItemInfo::_tagLMCItemInfo, COMDAT
; _this$ = ecx
  00000	55		 push	 ebp
  00001	8b ec		 mov	 ebp, esp
  00003	6a ff		 push	 -1
  00005	68 00 00 00 00	 push	 __ehhandler$??0_tagLMCItemInfo@@QAE@ABU0@@Z
  0000a	64 a1 00 00 00
	00		 mov	 eax, DWORD PTR fs:__except_list
  00010	50		 push	 eax
  00011	64 89 25 00 00
	00 00		 mov	 DWORD PTR fs:__except_list, esp
  00018	51		 push	 ecx
  00019	56		 push	 esi
  0001a	c7 45 f0 cc cc
	cc cc		 mov	 DWORD PTR [ebp-16], -858993460 ; ccccccccH
  00021	89 4d f0	 mov	 DWORD PTR _this$[ebp], ecx
  00024	8b f4		 mov	 esi, esp
  00026	8b 45 08	 mov	 eax, DWORD PTR ___that$[ebp]
  00029	50		 push	 eax
  0002a	8b 4d f0	 mov	 ecx, DWORD PTR _this$[ebp]
  0002d	ff 15 00 00 00
	00		 call	 DWORD PTR __imp_??0?$basic_string@DU?$char_traits@D@std@@V?$allocator@D@2@@std@@QAE@ABV01@@Z
  00033	3b f4		 cmp	 esi, esp
  00035	e8 00 00 00 00	 call	 __RTC_CheckEsp
  0003a	c7 45 fc 00 00
	00 00		 mov	 DWORD PTR __$EHRec$[ebp+8], 0
  00041	8b 4d f0	 mov	 ecx, DWORD PTR _this$[ebp]
  00044	8b 55 08	 mov	 edx, DWORD PTR ___that$[ebp]
  00047	8b 42 1c	 mov	 eax, DWORD PTR [edx+28]
  0004a	89 41 1c	 mov	 DWORD PTR [ecx+28], eax
  0004d	8b 4d f0	 mov	 ecx, DWORD PTR _this$[ebp]
  00050	8b 55 08	 mov	 edx, DWORD PTR ___that$[ebp]
  00053	8b 42 20	 mov	 eax, DWORD PTR [edx+32]
  00056	89 41 20	 mov	 DWORD PTR [ecx+32], eax
  00059	8b 4d f0	 mov	 ecx, DWORD PTR _this$[ebp]
  0005c	8b 55 08	 mov	 edx, DWORD PTR ___that$[ebp]
  0005f	8b 42 24	 mov	 eax, DWORD PTR [edx+36]
  00062	89 41 24	 mov	 DWORD PTR [ecx+36], eax
  00065	8b 4d 08	 mov	 ecx, DWORD PTR ___that$[ebp]
  00068	83 c1 28	 add	 ecx, 40			; 00000028H
  0006b	8b f4		 mov	 esi, esp
  0006d	51		 push	 ecx
  0006e	8b 4d f0	 mov	 ecx, DWORD PTR _this$[ebp]
  00071	83 c1 28	 add	 ecx, 40			; 00000028H
  00074	ff 15 00 00 00
	00		 call	 DWORD PTR __imp_??0?$CStringT@DV?$StrTraitMFC_DLL@DV?$ChTraitsCRT@D@ATL@@@@@ATL@@QAE@ABV01@@Z
  0007a	3b f4		 cmp	 esi, esp
  0007c	e8 00 00 00 00	 call	 __RTC_CheckEsp
  00081	c6 45 fc 01	 mov	 BYTE PTR __$EHRec$[ebp+8], 1
  00085	8b 55 08	 mov	 edx, DWORD PTR ___that$[ebp]
  00088	83 c2 2c	 add	 edx, 44			; 0000002cH
  0008b	8b f4		 mov	 esi, esp
  0008d	52		 push	 edx
  0008e	8b 4d f0	 mov	 ecx, DWORD PTR _this$[ebp]
  00091	83 c1 2c	 add	 ecx, 44			; 0000002cH
  00094	ff 15 00 00 00
	00		 call	 DWORD PTR __imp_??0?$CStringT@DV?$StrTraitMFC_DLL@DV?$ChTraitsCRT@D@ATL@@@@@ATL@@QAE@ABV01@@Z
  0009a	3b f4		 cmp	 esi, esp
  0009c	e8 00 00 00 00	 call	 __RTC_CheckEsp
  000a1	c6 45 fc 02	 mov	 BYTE PTR __$EHRec$[ebp+8], 2
  000a5	8b 45 08	 mov	 eax, DWORD PTR ___that$[ebp]
  000a8	83 c0 30	 add	 eax, 48			; 00000030H
  000ab	8b f4		 mov	 esi, esp
  000ad	50		 push	 eax
  000ae	8b 4d f0	 mov	 ecx, DWORD PTR _this$[ebp]
  000b1	83 c1 30	 add	 ecx, 48			; 00000030H
  000b4	ff 15 00 00 00
	00		 call	 DWORD PTR __imp_??0?$CStringT@DV?$StrTraitMFC_DLL@DV?$ChTraitsCRT@D@ATL@@@@@ATL@@QAE@ABV01@@Z
  000ba	3b f4		 cmp	 esi, esp
  000bc	e8 00 00 00 00	 call	 __RTC_CheckEsp
  000c1	8b 4d 08	 mov	 ecx, DWORD PTR ___that$[ebp]
  000c4	83 c1 34	 add	 ecx, 52			; 00000034H
  000c7	8b 55 f0	 mov	 edx, DWORD PTR _this$[ebp]
  000ca	83 c2 34	 add	 edx, 52			; 00000034H
  000cd	8b 01		 mov	 eax, DWORD PTR [ecx]
  000cf	89 02		 mov	 DWORD PTR [edx], eax
  000d1	8b 41 04	 mov	 eax, DWORD PTR [ecx+4]
  000d4	89 42 04	 mov	 DWORD PTR [edx+4], eax
  000d7	8b 41 08	 mov	 eax, DWORD PTR [ecx+8]
  000da	89 42 08	 mov	 DWORD PTR [edx+8], eax
  000dd	8b 49 0c	 mov	 ecx, DWORD PTR [ecx+12]
  000e0	89 4a 0c	 mov	 DWORD PTR [edx+12], ecx
  000e3	c7 45 fc ff ff
	ff ff		 mov	 DWORD PTR __$EHRec$[ebp+8], -1
  000ea	8b 45 f0	 mov	 eax, DWORD PTR _this$[ebp]
  000ed	8b 4d f4	 mov	 ecx, DWORD PTR __$EHRec$[ebp]
  000f0	64 89 0d 00 00
	00 00		 mov	 DWORD PTR fs:__except_list, ecx
  000f7	5e		 pop	 esi
  000f8	83 c4 10	 add	 esp, 16			; 00000010H
  000fb	3b ec		 cmp	 ebp, esp
  000fd	e8 00 00 00 00	 call	 __RTC_CheckEsp
  00102	8b e5		 mov	 esp, ebp
  00104	5d		 pop	 ebp
  00105	c2 04 00	 ret	 4
_TEXT	ENDS
;	COMDAT text$x
text$x	SEGMENT
$L195320:
  00000	8b f4		 mov	 esi, esp
  00002	8b 4d f0	 mov	 ecx, DWORD PTR _this$[ebp]
  00005	ff 15 00 00 00
	00		 call	 DWORD PTR __imp_??1?$basic_string@DU?$char_traits@D@std@@V?$allocator@D@2@@std@@QAE@XZ
  0000b	3b f4		 cmp	 esi, esp
  0000d	e9 00 00 00 00	 jmp	 __RTC_CheckEsp
$L195321:
  00012	8b 4d f0	 mov	 ecx, DWORD PTR _this$[ebp]
  00015	83 c1 28	 add	 ecx, 40			; 00000028H
  00018	8b f4		 mov	 esi, esp
  0001a	ff 15 00 00 00
	00		 call	 DWORD PTR __imp_??1?$CStringT@DV?$StrTraitMFC_DLL@DV?$ChTraitsCRT@D@ATL@@@@@ATL@@QAE@XZ
  00020	3b f4		 cmp	 esi, esp
  00022	e9 00 00 00 00	 jmp	 __RTC_CheckEsp
$L195322:
  00027	8b 4d f0	 mov	 ecx, DWORD PTR _this$[ebp]
  0002a	83 c1 2c	 add	 ecx, 44			; 0000002cH
  0002d	8b f4		 mov	 esi, esp
  0002f	ff 15 00 00 00
	00		 call	 DWORD PTR __imp_??1?$CStringT@DV?$StrTraitMFC_DLL@DV?$ChTraitsCRT@D@ATL@@@@@ATL@@QAE@XZ
  00035	3b f4		 cmp	 esi, esp
  00037	e9 00 00 00 00	 jmp	 __RTC_CheckEsp
__ehhandler$??0_tagLMCItemInfo@@QAE@ABU0@@Z:
  0003c	b8 00 00 00 00	 mov	 eax, OFFSET FLAT:$T195325
  00041	e9 00 00 00 00	 jmp	 ___CxxFrameHandler
text$x	ENDS
??0_tagLMCItemInfo@@QAE@ABU0@@Z ENDP			; _tagLMCItemInfo::_tagLMCItemInfo
EXTRN	__imp_??0?$basic_string@DU?$char_traits@D@std@@V?$allocator@D@2@@std@@QAE@XZ:NEAR
;	COMDAT xdata$x
xdata$x	SEGMENT
$T195336 DD	0ffffffffH
	DD	FLAT:$L195331
$T195334 DD	019930520H
	DD	01H
	DD	FLAT:$T195336
	DD	2 DUP(00H)
	DD	2 DUP(00H)
; Function compile flags: /Odt /RTCsu
xdata$x	ENDS
;	COMDAT ??0TAB_ITEM@@QAE@XZ
_TEXT	SEGMENT
_this$ = -16						; size = 4
__$EHRec$ = -12						; size = 12
??0TAB_ITEM@@QAE@XZ PROC NEAR				; TAB_ITEM::TAB_ITEM, COMDAT
; _this$ = ecx
  00000	55		 push	 ebp
  00001	8b ec		 mov	 ebp, esp
  00003	6a ff		 push	 -1
  00005	68 00 00 00 00	 push	 __ehhandler$??0TAB_ITEM@@QAE@XZ
  0000a	64 a1 00 00 00
	00		 mov	 eax, DWORD PTR fs:__except_list
  00010	50		 push	 eax
  00011	64 89 25 00 00
	00 00		 mov	 DWORD PTR fs:__except_list, esp
  00018	51		 push	 ecx
  00019	56		 push	 esi
  0001a	c7 45 f0 cc cc
	cc cc		 mov	 DWORD PTR [ebp-16], -858993460 ; ccccccccH
  00021	89 4d f0	 mov	 DWORD PTR _this$[ebp], ecx
  00024	8b f4		 mov	 esi, esp
  00026	8b 4d f0	 mov	 ecx, DWORD PTR _this$[ebp]
  00029	ff 15 00 00 00
	00		 call	 DWORD PTR __imp_??0?$basic_string@DU?$char_traits@D@std@@V?$allocator@D@2@@std@@QAE@XZ
  0002f	3b f4		 cmp	 esi, esp
  00031	e8 00 00 00 00	 call	 __RTC_CheckEsp
  00036	c7 45 fc 00 00
	00 00		 mov	 DWORD PTR __$EHRec$[ebp+8], 0
  0003d	8b 4d f0	 mov	 ecx, DWORD PTR _this$[ebp]
  00040	83 c1 20	 add	 ecx, 32			; 00000020H
  00043	8b f4		 mov	 esi, esp
  00045	ff 15 00 00 00
	00		 call	 DWORD PTR __imp_??0?$basic_string@DU?$char_traits@D@std@@V?$allocator@D@2@@std@@QAE@XZ
  0004b	3b f4		 cmp	 esi, esp
  0004d	e8 00 00 00 00	 call	 __RTC_CheckEsp
  00052	c7 45 fc ff ff
	ff ff		 mov	 DWORD PTR __$EHRec$[ebp+8], -1
  00059	8b 45 f0	 mov	 eax, DWORD PTR _this$[ebp]
  0005c	8b 4d f4	 mov	 ecx, DWORD PTR __$EHRec$[ebp]
  0005f	64 89 0d 00 00
	00 00		 mov	 DWORD PTR fs:__except_list, ecx
  00066	5e		 pop	 esi
  00067	83 c4 10	 add	 esp, 16			; 00000010H
  0006a	3b ec		 cmp	 ebp, esp
  0006c	e8 00 00 00 00	 call	 __RTC_CheckEsp
  00071	8b e5		 mov	 esp, ebp
  00073	5d		 pop	 ebp
  00074	c3		 ret	 0
_TEXT	ENDS
;	COMDAT text$x
text$x	SEGMENT
$L195331:
  00000	8b f4		 mov	 esi, esp
  00002	8b 4d f0	 mov	 ecx, DWORD PTR _this$[ebp]
  00005	ff 15 00 00 00
	00		 call	 DWORD PTR __imp_??1?$basic_string@DU?$char_traits@D@std@@V?$allocator@D@2@@std@@QAE@XZ
  0000b	3b f4		 cmp	 esi, esp
  0000d	e9 00 00 00 00	 jmp	 __RTC_CheckEsp
__ehhandler$??0TAB_ITEM@@QAE@XZ:
  00012	b8 00 00 00 00	 mov	 eax, OFFSET FLAT:$T195334
  00017	e9 00 00 00 00	 jmp	 ___CxxFrameHandler
text$x	ENDS
??0TAB_ITEM@@QAE@XZ ENDP				; TAB_ITEM::TAB_ITEM
;	COMDAT xdata$x
xdata$x	SEGMENT
$T195345 DD	0ffffffffH
	DD	FLAT:$L195340
$T195343 DD	019930520H
	DD	01H
	DD	FLAT:$T195345
	DD	2 DUP(00H)
	DD	2 DUP(00H)
; Function compile flags: /Odt /RTCsu
xdata$x	ENDS
;	COMDAT ??1TAB_ITEM@@QAE@XZ
_TEXT	SEGMENT
_this$ = -16						; size = 4
__$EHRec$ = -12						; size = 12
??1TAB_ITEM@@QAE@XZ PROC NEAR				; TAB_ITEM::~TAB_ITEM, COMDAT
; _this$ = ecx
  00000	55		 push	 ebp
  00001	8b ec		 mov	 ebp, esp
  00003	6a ff		 push	 -1
  00005	68 00 00 00 00	 push	 __ehhandler$??1TAB_ITEM@@QAE@XZ
  0000a	64 a1 00 00 00
	00		 mov	 eax, DWORD PTR fs:__except_list
  00010	50		 push	 eax
  00011	64 89 25 00 00
	00 00		 mov	 DWORD PTR fs:__except_list, esp
  00018	51		 push	 ecx
  00019	56		 push	 esi
  0001a	c7 45 f0 cc cc
	cc cc		 mov	 DWORD PTR [ebp-16], -858993460 ; ccccccccH
  00021	89 4d f0	 mov	 DWORD PTR _this$[ebp], ecx
  00024	c7 45 fc 00 00
	00 00		 mov	 DWORD PTR __$EHRec$[ebp+8], 0
  0002b	8b 4d f0	 mov	 ecx, DWORD PTR _this$[ebp]
  0002e	83 c1 20	 add	 ecx, 32			; 00000020H
  00031	8b f4		 mov	 esi, esp
  00033	ff 15 00 00 00
	00		 call	 DWORD PTR __imp_??1?$basic_string@DU?$char_traits@D@std@@V?$allocator@D@2@@std@@QAE@XZ
  00039	3b f4		 cmp	 esi, esp
  0003b	e8 00 00 00 00	 call	 __RTC_CheckEsp
  00040	c7 45 fc ff ff
	ff ff		 mov	 DWORD PTR __$EHRec$[ebp+8], -1
  00047	8b f4		 mov	 esi, esp
  00049	8b 4d f0	 mov	 ecx, DWORD PTR _this$[ebp]
  0004c	ff 15 00 00 00
	00		 call	 DWORD PTR __imp_??1?$basic_string@DU?$char_traits@D@std@@V?$allocator@D@2@@std@@QAE@XZ
  00052	3b f4		 cmp	 esi, esp
  00054	e8 00 00 00 00	 call	 __RTC_CheckEsp
  00059	8b 4d f4	 mov	 ecx, DWORD PTR __$EHRec$[ebp]
  0005c	64 89 0d 00 00
	00 00		 mov	 DWORD PTR fs:__except_list, ecx
  00063	5e		 pop	 esi
  00064	83 c4 10	 add	 esp, 16			; 00000010H
  00067	3b ec		 cmp	 ebp, esp
  00069	e8 00 00 00 00	 call	 __RTC_CheckEsp
  0006e	8b e5		 mov	 esp, ebp
  00070	5d		 pop	 ebp
  00071	c3		 ret	 0
_TEXT	ENDS
;	COMDAT text$x
text$x	SEGMENT
$L195340:
  00000	8b f4		 mov	 esi, esp
  00002	8b 4d f0	 mov	 ecx, DWORD PTR _this$[ebp]
  00005	ff 15 00 00 00
	00		 call	 DWORD PTR __imp_??1?$basic_string@DU?$char_traits@D@std@@V?$allocator@D@2@@std@@QAE@XZ
  0000b	3b f4		 cmp	 esi, esp
  0000d	e9 00 00 00 00	 jmp	 __RTC_CheckEsp
__ehhandler$??1TAB_ITEM@@QAE@XZ:
  00012	b8 00 00 00 00	 mov	 eax, OFFSET FLAT:$T195343
  00017	e9 00 00 00 00	 jmp	 ___CxxFrameHandler
text$x	ENDS
??1TAB_ITEM@@QAE@XZ ENDP				; TAB_ITEM::~TAB_ITEM
PUBLIC	??9const_iterator@?$vector@UOneLocalGame@@V?$allocator@UOneLocalGame@@@std@@@std@@QBE_NABV012@@Z ; std::vector<OneLocalGame,std::allocator<OneLocalGame> >::const_iterator::operator!=
PUBLIC	??Citerator@?$vector@UOneLocalGame@@V?$allocator@UOneLocalGame@@@std@@@std@@QBEPAUOneLocalGame@@XZ ; std::vector<OneLocalGame,std::allocator<OneLocalGame> >::iterator::operator->
PUBLIC	??Eiterator@?$vector@UOneLocalGame@@V?$allocator@UOneLocalGame@@@std@@@std@@QAE?AV012@H@Z ; std::vector<OneLocalGame,std::allocator<OneLocalGame> >::iterator::operator++
PUBLIC	??0?$vector@UOneLocalGame@@V?$allocator@UOneLocalGame@@@std@@@std@@QAE@XZ ; std::vector<OneLocalGame,std::allocator<OneLocalGame> >::vector<OneLocalGame,std::allocator<OneLocalGame> >
PUBLIC	??1?$vector@UOneLocalGame@@V?$allocator@UOneLocalGame@@@std@@@std@@QAE@XZ ; std::vector<OneLocalGame,std::allocator<OneLocalGame> >::~vector<OneLocalGame,std::allocator<OneLocalGame> >
PUBLIC	?begin@?$vector@UOneLocalGame@@V?$allocator@UOneLocalGame@@@std@@@std@@QAE?AViterator@12@XZ ; std::vector<OneLocalGame,std::allocator<OneLocalGame> >::begin
PUBLIC	?end@?$vector@UOneLocalGame@@V?$allocator@UOneLocalGame@@@std@@@std@@QAE?AViterator@12@XZ ; std::vector<OneLocalGame,std::allocator<OneLocalGame> >::end
EXTRN	?ClearData@CLMCDataMgr@@QAEXXZ:NEAR		; CLMCDataMgr::ClearData
EXTRN	?InsertItem@CLocalMusicCoverList@@QAEHPBDV?$CStringT@DV?$StrTraitMFC_DLL@DV?$ChTraitsCRT@D@ATL@@@@@ATL@@1V?$basic_string@DU?$char_traits@D@std@@V?$allocator@D@2@@std@@H@Z:NEAR ; CLocalMusicCoverList::InsertItem
EXTRN	__imp_?c_str@?$basic_string@DU?$char_traits@D@std@@V?$allocator@D@2@@std@@QBEPBDXZ:NEAR
EXTRN	__imp_??0?$CStringT@DV?$StrTraitMFC_DLL@DV?$ChTraitsCRT@D@ATL@@@@@ATL@@QAE@XZ:NEAR
EXTRN	__imp_??0?$CStringT@DV?$StrTraitMFC_DLL@DV?$ChTraitsCRT@D@ATL@@@@@ATL@@QAE@PBD@Z:NEAR
xdata$x	SEGMENT
$T195368 DD	0ffffffffH
	DD	FLAT:$L195355
	DD	00H
	DD	FLAT:$L195356
	DD	01H
	DD	FLAT:$L195357
	DD	02H
	DD	FLAT:$L195358
	DD	03H
	DD	FLAT:$L195359
$T195361 DD	019930520H
	DD	05H
	DD	FLAT:$T195368
	DD	2 DUP(00H)
	DD	2 DUP(00H)
; Function compile flags: /Odt /RTCsu
xdata$x	ENDS
_TEXT	SEGMENT
tv197 = -120						; size = 4
tv205 = -116						; size = 4
tv194 = -112						; size = 4
tv202 = -108						; size = 4
tv191 = -104						; size = 4
tv199 = -100						; size = 4
tv77 = -96						; size = 4
tv71 = -92						; size = 4
$T195354 = -88						; size = 4
$T195353 = -84						; size = 4
$T195352 = -80						; size = 4
$T195351 = -76						; size = 4
$T195350 = -72						; size = 4
$T195349 = -68						; size = 4
_strDetail$192790 = -60					; size = 4
_it1$192783 = -48					; size = 4
_lgl$ = -36						; size = 16
_this$ = -16						; size = 4
__$EHRec$ = -12						; size = 12
?ReGetData@PlayedGameWnd@@IAEHXZ PROC NEAR		; PlayedGameWnd::ReGetData
; _this$ = ecx

; 147  : {

  00c30	55		 push	 ebp
  00c31	8b ec		 mov	 ebp, esp
  00c33	6a ff		 push	 -1
  00c35	68 00 00 00 00	 push	 __ehhandler$?ReGetData@PlayedGameWnd@@IAEHXZ
  00c3a	64 a1 00 00 00
	00		 mov	 eax, DWORD PTR fs:__except_list
  00c40	50		 push	 eax
  00c41	64 89 25 00 00
	00 00		 mov	 DWORD PTR fs:__except_list, esp
  00c48	83 ec 6c	 sub	 esp, 108		; 0000006cH
  00c4b	56		 push	 esi
  00c4c	57		 push	 edi
  00c4d	51		 push	 ecx
  00c4e	8d 7d 88	 lea	 edi, DWORD PTR [ebp-120]
  00c51	b9 1b 00 00 00	 mov	 ecx, 27			; 0000001bH
  00c56	b8 cc cc cc cc	 mov	 eax, -858993460		; ccccccccH
  00c5b	f3 ab		 rep stosd
  00c5d	59		 pop	 ecx
  00c5e	89 4d f0	 mov	 DWORD PTR _this$[ebp], ecx

; 148  : 	m_DataMgr.ClearData();

  00c61	8b 4d f0	 mov	 ecx, DWORD PTR _this$[ebp]
  00c64	81 c1 6c 01 00
	00		 add	 ecx, 364		; 0000016cH
  00c6a	e8 00 00 00 00	 call	 ?ClearData@CLMCDataMgr@@QAEXXZ ; CLMCDataMgr::ClearData

; 149  : 
; 150  : 	LocalGameList lgl;

  00c6f	8d 4d dc	 lea	 ecx, DWORD PTR _lgl$[ebp]
  00c72	e8 00 00 00 00	 call	 ??0?$vector@UOneLocalGame@@V?$allocator@UOneLocalGame@@@std@@@std@@QAE@XZ ; std::vector<OneLocalGame,std::allocator<OneLocalGame> >::vector<OneLocalGame,std::allocator<OneLocalGame> >
  00c77	c7 45 fc 00 00
	00 00		 mov	 DWORD PTR __$EHRec$[ebp+8], 0

; 151  : 	GLOBAL_LOCALGAME->ILocalGameData_GetAllGame( lgl );

  00c7e	e8 00 00 00 00	 call	 ?AfxGetDataManager2@@YAPAVIDataManager@@XZ ; AfxGetDataManager2
  00c83	89 45 a4	 mov	 DWORD PTR tv71[ebp], eax
  00c86	8b f4		 mov	 esi, esp
  00c88	68 00 00 00 00	 push	 OFFSET FLAT:_ID_DATA_LOCALGAME
  00c8d	8b 45 a4	 mov	 eax, DWORD PTR tv71[ebp]
  00c90	8b 10		 mov	 edx, DWORD PTR [eax]
  00c92	8b 4d a4	 mov	 ecx, DWORD PTR tv71[ebp]
  00c95	ff 52 0c	 call	 DWORD PTR [edx+12]
  00c98	3b f4		 cmp	 esi, esp
  00c9a	e8 00 00 00 00	 call	 __RTC_CheckEsp
  00c9f	89 45 a0	 mov	 DWORD PTR tv77[ebp], eax
  00ca2	8b f4		 mov	 esi, esp
  00ca4	8d 45 dc	 lea	 eax, DWORD PTR _lgl$[ebp]
  00ca7	50		 push	 eax
  00ca8	8b 4d a0	 mov	 ecx, DWORD PTR tv77[ebp]
  00cab	8b 11		 mov	 edx, DWORD PTR [ecx]
  00cad	8b 4d a0	 mov	 ecx, DWORD PTR tv77[ebp]
  00cb0	ff 52 18	 call	 DWORD PTR [edx+24]
  00cb3	3b f4		 cmp	 esi, esp
  00cb5	e8 00 00 00 00	 call	 __RTC_CheckEsp

; 152  : 	for( LocalGameList::iterator it1 = lgl.begin(); it1 != lgl.end(); it1++ )

  00cba	8d 45 d0	 lea	 eax, DWORD PTR _it1$192783[ebp]
  00cbd	50		 push	 eax
  00cbe	8d 4d dc	 lea	 ecx, DWORD PTR _lgl$[ebp]
  00cc1	e8 00 00 00 00	 call	 ?begin@?$vector@UOneLocalGame@@V?$allocator@UOneLocalGame@@@std@@@std@@QAE?AViterator@12@XZ ; std::vector<OneLocalGame,std::allocator<OneLocalGame> >::begin
  00cc6	eb 0e		 jmp	 SHORT $L192787
$L192788:
  00cc8	6a 00		 push	 0
  00cca	8d 4d bc	 lea	 ecx, DWORD PTR $T195349[ebp]
  00ccd	51		 push	 ecx
  00cce	8d 4d d0	 lea	 ecx, DWORD PTR _it1$192783[ebp]
  00cd1	e8 00 00 00 00	 call	 ??Eiterator@?$vector@UOneLocalGame@@V?$allocator@UOneLocalGame@@@std@@@std@@QAE?AV012@H@Z ; std::vector<OneLocalGame,std::allocator<OneLocalGame> >::iterator::operator++
$L192787:
  00cd6	8d 55 b8	 lea	 edx, DWORD PTR $T195350[ebp]
  00cd9	52		 push	 edx
  00cda	8d 4d dc	 lea	 ecx, DWORD PTR _lgl$[ebp]
  00cdd	e8 00 00 00 00	 call	 ?end@?$vector@UOneLocalGame@@V?$allocator@UOneLocalGame@@@std@@@std@@QAE?AViterator@12@XZ ; std::vector<OneLocalGame,std::allocator<OneLocalGame> >::end
  00ce2	50		 push	 eax
  00ce3	8d 4d d0	 lea	 ecx, DWORD PTR _it1$192783[ebp]
  00ce6	e8 00 00 00 00	 call	 ??9const_iterator@?$vector@UOneLocalGame@@V?$allocator@UOneLocalGame@@@std@@@std@@QBE_NABV012@@Z ; std::vector<OneLocalGame,std::allocator<OneLocalGame> >::const_iterator::operator!=
  00ceb	0f b6 c0	 movzx	 eax, al
  00cee	85 c0		 test	 eax, eax
  00cf0	0f 84 ee 00 00
	00		 je	 $L192789

; 153  : 	{
; 154  : 		CString strDetail;

  00cf6	8b f4		 mov	 esi, esp
  00cf8	8d 4d c4	 lea	 ecx, DWORD PTR _strDetail$192790[ebp]
  00cfb	ff 15 00 00 00
	00		 call	 DWORD PTR __imp_??0?$CStringT@DV?$StrTraitMFC_DLL@DV?$ChTraitsCRT@D@ATL@@@@@ATL@@QAE@XZ
  00d01	3b f4		 cmp	 esi, esp
  00d03	e8 00 00 00 00	 call	 __RTC_CheckEsp
  00d08	c6 45 fc 01	 mov	 BYTE PTR __$EHRec$[ebp+8], 1

; 155  : 		InsertItem( it1->strPicPath.c_str(), 
; 156  : 			it1->strName.c_str(), strDetail, it1->strID, FALSE );

  00d0c	6a 00		 push	 0
  00d0e	8d 4d d0	 lea	 ecx, DWORD PTR _it1$192783[ebp]
  00d11	e8 00 00 00 00	 call	 ??Citerator@?$vector@UOneLocalGame@@V?$allocator@UOneLocalGame@@@std@@@std@@QBEPAUOneLocalGame@@XZ ; std::vector<OneLocalGame,std::allocator<OneLocalGame> >::iterator::operator->
  00d16	83 ec 1c	 sub	 esp, 28			; 0000001cH
  00d19	8b cc		 mov	 ecx, esp
  00d1b	89 65 b4	 mov	 DWORD PTR $T195351[ebp], esp
  00d1e	8b f4		 mov	 esi, esp
  00d20	50		 push	 eax
  00d21	ff 15 00 00 00
	00		 call	 DWORD PTR __imp_??0?$basic_string@DU?$char_traits@D@std@@V?$allocator@D@2@@std@@QAE@ABV01@@Z
  00d27	3b f4		 cmp	 esi, esp
  00d29	e8 00 00 00 00	 call	 __RTC_CheckEsp
  00d2e	89 45 9c	 mov	 DWORD PTR tv199[ebp], eax
  00d31	8b 4d 9c	 mov	 ecx, DWORD PTR tv199[ebp]
  00d34	89 4d 98	 mov	 DWORD PTR tv191[ebp], ecx
  00d37	c6 45 fc 02	 mov	 BYTE PTR __$EHRec$[ebp+8], 2
  00d3b	51		 push	 ecx
  00d3c	8b cc		 mov	 ecx, esp
  00d3e	89 65 b0	 mov	 DWORD PTR $T195352[ebp], esp
  00d41	8b f4		 mov	 esi, esp
  00d43	8d 55 c4	 lea	 edx, DWORD PTR _strDetail$192790[ebp]
  00d46	52		 push	 edx
  00d47	ff 15 00 00 00
	00		 call	 DWORD PTR __imp_??0?$CStringT@DV?$StrTraitMFC_DLL@DV?$ChTraitsCRT@D@ATL@@@@@ATL@@QAE@ABV01@@Z
  00d4d	3b f4		 cmp	 esi, esp
  00d4f	e8 00 00 00 00	 call	 __RTC_CheckEsp
  00d54	89 45 94	 mov	 DWORD PTR tv202[ebp], eax
  00d57	8b 45 94	 mov	 eax, DWORD PTR tv202[ebp]
  00d5a	89 45 90	 mov	 DWORD PTR tv194[ebp], eax
  00d5d	c6 45 fc 03	 mov	 BYTE PTR __$EHRec$[ebp+8], 3
  00d61	8d 4d d0	 lea	 ecx, DWORD PTR _it1$192783[ebp]
  00d64	e8 00 00 00 00	 call	 ??Citerator@?$vector@UOneLocalGame@@V?$allocator@UOneLocalGame@@@std@@@std@@QBEPAUOneLocalGame@@XZ ; std::vector<OneLocalGame,std::allocator<OneLocalGame> >::iterator::operator->
  00d69	83 c0 1c	 add	 eax, 28			; 0000001cH
  00d6c	8b f4		 mov	 esi, esp
  00d6e	8b c8		 mov	 ecx, eax
  00d70	ff 15 00 00 00
	00		 call	 DWORD PTR __imp_?c_str@?$basic_string@DU?$char_traits@D@std@@V?$allocator@D@2@@std@@QBEPBDXZ
  00d76	3b f4		 cmp	 esi, esp
  00d78	e8 00 00 00 00	 call	 __RTC_CheckEsp
  00d7d	51		 push	 ecx
  00d7e	8b cc		 mov	 ecx, esp
  00d80	89 65 ac	 mov	 DWORD PTR $T195353[ebp], esp
  00d83	8b f4		 mov	 esi, esp
  00d85	50		 push	 eax
  00d86	ff 15 00 00 00
	00		 call	 DWORD PTR __imp_??0?$CStringT@DV?$StrTraitMFC_DLL@DV?$ChTraitsCRT@D@ATL@@@@@ATL@@QAE@PBD@Z
  00d8c	3b f4		 cmp	 esi, esp
  00d8e	e8 00 00 00 00	 call	 __RTC_CheckEsp
  00d93	89 45 8c	 mov	 DWORD PTR tv205[ebp], eax
  00d96	8b 4d 8c	 mov	 ecx, DWORD PTR tv205[ebp]
  00d99	89 4d 88	 mov	 DWORD PTR tv197[ebp], ecx
  00d9c	c6 45 fc 04	 mov	 BYTE PTR __$EHRec$[ebp+8], 4
  00da0	8d 4d d0	 lea	 ecx, DWORD PTR _it1$192783[ebp]
  00da3	e8 00 00 00 00	 call	 ??Citerator@?$vector@UOneLocalGame@@V?$allocator@UOneLocalGame@@@std@@@std@@QBEPAUOneLocalGame@@XZ ; std::vector<OneLocalGame,std::allocator<OneLocalGame> >::iterator::operator->
  00da8	83 c0 54	 add	 eax, 84			; 00000054H
  00dab	8b f4		 mov	 esi, esp
  00dad	8b c8		 mov	 ecx, eax
  00daf	ff 15 00 00 00
	00		 call	 DWORD PTR __imp_?c_str@?$basic_string@DU?$char_traits@D@std@@V?$allocator@D@2@@std@@QBEPBDXZ
  00db5	3b f4		 cmp	 esi, esp
  00db7	e8 00 00 00 00	 call	 __RTC_CheckEsp
  00dbc	50		 push	 eax
  00dbd	c6 45 fc 01	 mov	 BYTE PTR __$EHRec$[ebp+8], 1
  00dc1	8b 4d f0	 mov	 ecx, DWORD PTR _this$[ebp]
  00dc4	e8 00 00 00 00	 call	 ?InsertItem@CLocalMusicCoverList@@QAEHPBDV?$CStringT@DV?$StrTraitMFC_DLL@DV?$ChTraitsCRT@D@ATL@@@@@ATL@@1V?$basic_string@DU?$char_traits@D@std@@V?$allocator@D@2@@std@@H@Z ; CLocalMusicCoverList::InsertItem

; 157  : 	}

  00dc9	c6 45 fc 00	 mov	 BYTE PTR __$EHRec$[ebp+8], 0
  00dcd	8b f4		 mov	 esi, esp
  00dcf	8d 4d c4	 lea	 ecx, DWORD PTR _strDetail$192790[ebp]
  00dd2	ff 15 00 00 00
	00		 call	 DWORD PTR __imp_??1?$CStringT@DV?$StrTraitMFC_DLL@DV?$ChTraitsCRT@D@ATL@@@@@ATL@@QAE@XZ
  00dd8	3b f4		 cmp	 esi, esp
  00dda	e8 00 00 00 00	 call	 __RTC_CheckEsp
  00ddf	e9 e4 fe ff ff	 jmp	 $L192788
$L192789:

; 158  : 	UpdateList();

  00de4	8b 4d f0	 mov	 ecx, DWORD PTR _this$[ebp]
  00de7	e8 00 00 00 00	 call	 ?UpdateList@CLocalMusicCoverList@@IAEXXZ ; CLocalMusicCoverList::UpdateList

; 159  : 	OnMemoryDraw();

  00dec	6a 01		 push	 1
  00dee	8b 4d f0	 mov	 ecx, DWORD PTR _this$[ebp]
  00df1	e8 00 00 00 00	 call	 ?OnMemoryDraw@CLocalMusicCoverList@@IAEXH@Z ; CLocalMusicCoverList::OnMemoryDraw

; 160  : 	return 10;

  00df6	c7 45 a8 0a 00
	00 00		 mov	 DWORD PTR $T195354[ebp], 10 ; 0000000aH
  00dfd	c7 45 fc ff ff
	ff ff		 mov	 DWORD PTR __$EHRec$[ebp+8], -1
  00e04	8d 4d dc	 lea	 ecx, DWORD PTR _lgl$[ebp]
  00e07	e8 00 00 00 00	 call	 ??1?$vector@UOneLocalGame@@V?$allocator@UOneLocalGame@@@std@@@std@@QAE@XZ ; std::vector<OneLocalGame,std::allocator<OneLocalGame> >::~vector<OneLocalGame,std::allocator<OneLocalGame> >
  00e0c	8b 45 a8	 mov	 eax, DWORD PTR $T195354[ebp]

; 161  : }

  00e0f	52		 push	 edx
  00e10	8b cd		 mov	 ecx, ebp
  00e12	50		 push	 eax
  00e13	8d 15 00 00 00
	00		 lea	 edx, DWORD PTR $L195367
  00e19	e8 00 00 00 00	 call	 @_RTC_CheckStackVars@8
  00e1e	58		 pop	 eax
  00e1f	5a		 pop	 edx
  00e20	8b 4d f4	 mov	 ecx, DWORD PTR __$EHRec$[ebp]
  00e23	64 89 0d 00 00
	00 00		 mov	 DWORD PTR fs:__except_list, ecx
  00e2a	5f		 pop	 edi
  00e2b	5e		 pop	 esi
  00e2c	83 c4 78	 add	 esp, 120		; 00000078H
  00e2f	3b ec		 cmp	 ebp, esp
  00e31	e8 00 00 00 00	 call	 __RTC_CheckEsp
  00e36	8b e5		 mov	 esp, ebp
  00e38	5d		 pop	 ebp
  00e39	c3		 ret	 0
$L195367:
  00e3a	03 00 00 00	 DD	 3
  00e3e	00 00 00 00	 DD	 $L195366
$L195366:
  00e42	dc ff ff ff	 DD	 -36			; ffffffdcH
  00e46	10 00 00 00	 DD	 16			; 00000010H
  00e4a	00 00 00 00	 DD	 $L195362
  00e4e	d0 ff ff ff	 DD	 -48			; ffffffd0H
  00e52	04 00 00 00	 DD	 4
  00e56	00 00 00 00	 DD	 $L195363
  00e5a	c4 ff ff ff	 DD	 -60			; ffffffc4H
  00e5e	04 00 00 00	 DD	 4
  00e62	00 00 00 00	 DD	 $L195364
$L195364:
  00e66	73		 DB	 115			; 00000073H
  00e67	74		 DB	 116			; 00000074H
  00e68	72		 DB	 114			; 00000072H
  00e69	44		 DB	 68			; 00000044H
  00e6a	65		 DB	 101			; 00000065H
  00e6b	74		 DB	 116			; 00000074H
  00e6c	61		 DB	 97			; 00000061H
  00e6d	69		 DB	 105			; 00000069H
  00e6e	6c		 DB	 108			; 0000006cH
  00e6f	00		 DB	 0
$L195363:
  00e70	69		 DB	 105			; 00000069H
  00e71	74		 DB	 116			; 00000074H
  00e72	31		 DB	 49			; 00000031H
  00e73	00		 DB	 0
$L195362:
  00e74	6c		 DB	 108			; 0000006cH
  00e75	67		 DB	 103			; 00000067H
  00e76	6c		 DB	 108			; 0000006cH
  00e77	00		 DB	 0
_TEXT	ENDS
text$x	SEGMENT
$L195355:
  00205	8d 4d dc	 lea	 ecx, DWORD PTR _lgl$[ebp]
  00208	e9 00 00 00 00	 jmp	 ??1?$vector@UOneLocalGame@@V?$allocator@UOneLocalGame@@@std@@@std@@QAE@XZ ; std::vector<OneLocalGame,std::allocator<OneLocalGame> >::~vector<OneLocalGame,std::allocator<OneLocalGame> >
$L195356:
  0020d	8b f4		 mov	 esi, esp
  0020f	8d 4d c4	 lea	 ecx, DWORD PTR _strDetail$192790[ebp]
  00212	ff 15 00 00 00
	00		 call	 DWORD PTR __imp_??1?$CStringT@DV?$StrTraitMFC_DLL@DV?$ChTraitsCRT@D@ATL@@@@@ATL@@QAE@XZ
  00218	3b f4		 cmp	 esi, esp
  0021a	e9 00 00 00 00	 jmp	 __RTC_CheckEsp
$L195357:
  0021f	8b f4		 mov	 esi, esp
  00221	8b 4d b4	 mov	 ecx, DWORD PTR $T195351[ebp]
  00224	ff 15 00 00 00
	00		 call	 DWORD PTR __imp_??1?$basic_string@DU?$char_traits@D@std@@V?$allocator@D@2@@std@@QAE@XZ
  0022a	3b f4		 cmp	 esi, esp
  0022c	e9 00 00 00 00	 jmp	 __RTC_CheckEsp
$L195358:
  00231	8b f4		 mov	 esi, esp
  00233	8b 4d b0	 mov	 ecx, DWORD PTR $T195352[ebp]
  00236	ff 15 00 00 00
	00		 call	 DWORD PTR __imp_??1?$CStringT@DV?$StrTraitMFC_DLL@DV?$ChTraitsCRT@D@ATL@@@@@ATL@@QAE@XZ
  0023c	3b f4		 cmp	 esi, esp
  0023e	e9 00 00 00 00	 jmp	 __RTC_CheckEsp
$L195359:
  00243	8b f4		 mov	 esi, esp
  00245	8b 4d ac	 mov	 ecx, DWORD PTR $T195353[ebp]
  00248	ff 15 00 00 00
	00		 call	 DWORD PTR __imp_??1?$CStringT@DV?$StrTraitMFC_DLL@DV?$ChTraitsCRT@D@ATL@@@@@ATL@@QAE@XZ
  0024e	3b f4		 cmp	 esi, esp
  00250	e9 00 00 00 00	 jmp	 __RTC_CheckEsp
__ehhandler$?ReGetData@PlayedGameWnd@@IAEHXZ:
  00255	b8 00 00 00 00	 mov	 eax, OFFSET FLAT:$T195361
  0025a	e9 00 00 00 00	 jmp	 ___CxxFrameHandler
text$x	ENDS
?ReGetData@PlayedGameWnd@@IAEHXZ ENDP			; PlayedGameWnd::ReGetData
EXTRN	?OnCreate@CLocalMusicCoverList@@IAEHPAUtagCREATESTRUCTA@@@Z:NEAR ; CLocalMusicCoverList::OnCreate
EXTRN	?GetSafeHwnd@CWnd@@QBEPAUHWND__@@XZ:NEAR	; CWnd::GetSafeHwnd
EXTRN	??0CRect@@QAE@HHHH@Z:NEAR			; CRect::CRect
; Function compile flags: /Odt /RTCsu
_TEXT	SEGMENT
$T195370 = -20						; size = 16
_this$ = -4						; size = 4
_lpCreateStruct$ = 8					; size = 4
?OnCreate@PlayedGameWnd@@IAEHPAUtagCREATESTRUCTA@@@Z PROC NEAR ; PlayedGameWnd::OnCreate
; _this$ = ecx

; 164  : {

  00e80	55		 push	 ebp
  00e81	8b ec		 mov	 ebp, esp
  00e83	83 ec 14	 sub	 esp, 20			; 00000014H
  00e86	56		 push	 esi
  00e87	b8 cc cc cc cc	 mov	 eax, -858993460		; ccccccccH
  00e8c	89 45 ec	 mov	 DWORD PTR [ebp-20], eax
  00e8f	89 45 f0	 mov	 DWORD PTR [ebp-16], eax
  00e92	89 45 f4	 mov	 DWORD PTR [ebp-12], eax
  00e95	89 45 f8	 mov	 DWORD PTR [ebp-8], eax
  00e98	89 45 fc	 mov	 DWORD PTR [ebp-4], eax
  00e9b	89 4d fc	 mov	 DWORD PTR _this$[ebp], ecx

; 165  : 	if (__super::OnCreate(lpCreateStruct) == -1)

  00e9e	8b 45 08	 mov	 eax, DWORD PTR _lpCreateStruct$[ebp]
  00ea1	50		 push	 eax
  00ea2	8b 4d fc	 mov	 ecx, DWORD PTR _this$[ebp]
  00ea5	e8 00 00 00 00	 call	 ?OnCreate@CLocalMusicCoverList@@IAEHPAUtagCREATESTRUCTA@@@Z ; CLocalMusicCoverList::OnCreate
  00eaa	83 f8 ff	 cmp	 eax, -1
  00ead	75 05		 jne	 SHORT $L192799

; 166  : 		return -1;

  00eaf	83 c8 ff	 or	 eax, -1
  00eb2	eb 72		 jmp	 SHORT $L192798
$L192799:

; 167  : 
; 168  : 	m_tootip.m_pClientWnd = this;

  00eb4	8b 4d fc	 mov	 ecx, DWORD PTR _this$[ebp]
  00eb7	8b 55 fc	 mov	 edx, DWORD PTR _this$[ebp]
  00eba	89 91 e8 01 00
	00		 mov	 DWORD PTR [ecx+488], edx

; 169  : 	m_tootip.CreateEx(WS_EX_TOOLWINDOW|WS_EX_TOPMOST,TOOLTIPS_CLASS,"",0,CRect(0,0,0,0),NULL,0);

  00ec0	8b f4		 mov	 esi, esp
  00ec2	6a 00		 push	 0
  00ec4	6a 00		 push	 0
  00ec6	6a 00		 push	 0
  00ec8	6a 00		 push	 0
  00eca	6a 00		 push	 0
  00ecc	6a 00		 push	 0
  00ece	6a 00		 push	 0
  00ed0	8d 4d ec	 lea	 ecx, DWORD PTR $T195370[ebp]
  00ed3	e8 00 00 00 00	 call	 ??0CRect@@QAE@HHHH@Z	; CRect::CRect
  00ed8	50		 push	 eax
  00ed9	6a 00		 push	 0
  00edb	68 00 00 00 00	 push	 OFFSET FLAT:$SG192801
  00ee0	68 00 00 00 00	 push	 OFFSET FLAT:$SG192802
  00ee5	68 88 00 00 00	 push	 136			; 00000088H
  00eea	8b 4d fc	 mov	 ecx, DWORD PTR _this$[ebp]
  00eed	81 c1 88 01 00
	00		 add	 ecx, 392		; 00000188H
  00ef3	8b 45 fc	 mov	 eax, DWORD PTR _this$[ebp]
  00ef6	8b 90 88 01 00
	00		 mov	 edx, DWORD PTR [eax+392]
  00efc	ff 52 60	 call	 DWORD PTR [edx+96]
  00eff	3b f4		 cmp	 esi, esp
  00f01	e8 00 00 00 00	 call	 __RTC_CheckEsp

; 170  : 	m_tootip.m_hParent = GetSafeHwnd();

  00f06	8b 4d fc	 mov	 ecx, DWORD PTR _this$[ebp]
  00f09	e8 00 00 00 00	 call	 ?GetSafeHwnd@CWnd@@QBEPAUHWND__@@XZ ; CWnd::GetSafeHwnd
  00f0e	8b 4d fc	 mov	 ecx, DWORD PTR _this$[ebp]
  00f11	89 81 10 02 00
	00		 mov	 DWORD PTR [ecx+528], eax

; 171  : 	m_tootip.m_clrBK = RGB(255, 255, 225);	

  00f17	8b 55 fc	 mov	 edx, DWORD PTR _this$[ebp]
  00f1a	c7 82 e4 01 00
	00 ff ff e1 00	 mov	 DWORD PTR [edx+484], 14811135 ; 00e1ffffH

; 172  : 
; 173  : 	return 0;

  00f24	33 c0		 xor	 eax, eax
$L192798:

; 174  : }

  00f26	5e		 pop	 esi
  00f27	83 c4 14	 add	 esp, 20			; 00000014H
  00f2a	3b ec		 cmp	 ebp, esp
  00f2c	e8 00 00 00 00	 call	 __RTC_CheckEsp
  00f31	8b e5		 mov	 esp, ebp
  00f33	5d		 pop	 ebp
  00f34	c2 04 00	 ret	 4
?OnCreate@PlayedGameWnd@@IAEHPAUtagCREATESTRUCTA@@@Z ENDP ; PlayedGameWnd::OnCreate
_TEXT	ENDS
EXTRN	?GetItemInfoByIndex@CLocalMusicCoverList@@QAE?AU_tagLMCItemInfo@@H@Z:NEAR ; CLocalMusicCoverList::GetItemInfoByIndex
EXTRN	?OnKeyDown@CLocalMusicCoverList@@QAEXIII@Z:NEAR	; CLocalMusicCoverList::OnKeyDown
xdata$x	SEGMENT
$T195390 DD	0ffffffffH
	DD	FLAT:$L195376
	DD	00H
	DD	FLAT:$L195377
	DD	01H
	DD	FLAT:$L195378
	DD	01H
	DD	FLAT:$L195379
$T195381 DD	019930520H
	DD	04H
	DD	FLAT:$T195390
	DD	2 DUP(00H)
	DD	2 DUP(00H)
; Function compile flags: /Odt /RTCsu
xdata$x	ENDS
_TEXT	SEGMENT
tv139 = -188						; size = 4
tv133 = -184						; size = 4
tv170 = -180						; size = 4
tv77 = -176						; size = 4
$T195375 = -172						; size = 4
$T195374 = -168						; size = 4
$T195373 = -164						; size = 4
_it$192826 = -156					; size = 4
_ii$192824 = -144					; size = 68
_rv$192820 = -68					; size = 16
_i$192819 = -48						; size = 4
_vItem$192817 = -40					; size = 16
_this$ = -20						; size = 4
__$ArrayPad$ = -16					; size = 4
__$EHRec$ = -12						; size = 12
__$ReturnAddr$ = 4					; size = 4
_nChar$ = 8						; size = 4
_nRepCnt$ = 12						; size = 4
_nFlags$ = 16						; size = 4
?OnKeyDown@PlayedGameWnd@@IAEXIII@Z PROC NEAR		; PlayedGameWnd::OnKeyDown
; _this$ = ecx

; 177  : {

  00f40	55		 push	 ebp
  00f41	8b ec		 mov	 ebp, esp
  00f43	6a ff		 push	 -1
  00f45	68 00 00 00 00	 push	 __ehhandler$?OnKeyDown@PlayedGameWnd@@IAEXIII@Z
  00f4a	64 a1 00 00 00
	00		 mov	 eax, DWORD PTR fs:__except_list
  00f50	50		 push	 eax
  00f51	64 89 25 00 00
	00 00		 mov	 DWORD PTR fs:__except_list, esp
  00f58	81 ec b0 00 00
	00		 sub	 esp, 176		; 000000b0H
  00f5e	56		 push	 esi
  00f5f	57		 push	 edi
  00f60	51		 push	 ecx
  00f61	8d bd 44 ff ff
	ff		 lea	 edi, DWORD PTR [ebp-188]
  00f67	b9 2c 00 00 00	 mov	 ecx, 44			; 0000002cH
  00f6c	b8 cc cc cc cc	 mov	 eax, -858993460		; ccccccccH
  00f71	f3 ab		 rep stosd
  00f73	59		 pop	 ecx
  00f74	a1 00 00 00 00	 mov	 eax, DWORD PTR ___security_cookie
  00f79	89 45 f0	 mov	 DWORD PTR __$ArrayPad$[ebp], eax
  00f7c	89 4d ec	 mov	 DWORD PTR _this$[ebp], ecx

; 178  : 	if (nChar==VK_DELETE)

  00f7f	83 7d 08 2e	 cmp	 DWORD PTR _nChar$[ebp], 46 ; 0000002eH
  00f83	0f 85 86 01 00
	00		 jne	 $L192815

; 179  : 	{
; 180  : 		vector<int> vItem = GetSelectItem();

  00f89	8d 45 d8	 lea	 eax, DWORD PTR _vItem$192817[ebp]
  00f8c	50		 push	 eax
  00f8d	8b 4d ec	 mov	 ecx, DWORD PTR _this$[ebp]
  00f90	e8 00 00 00 00	 call	 ?GetSelectItem@CLocalMusicCoverList@@QAE?AV?$vector@HV?$allocator@H@std@@@std@@XZ ; CLocalMusicCoverList::GetSelectItem
  00f95	c7 45 fc 00 00
	00 00		 mov	 DWORD PTR __$EHRec$[ebp+8], 0

; 181  : 		int i = 0;

  00f9c	c7 45 d0 00 00
	00 00		 mov	 DWORD PTR _i$192819[ebp], 0

; 182  : 		RidVector rv;

  00fa3	8d 4d bc	 lea	 ecx, DWORD PTR _rv$192820[ebp]
  00fa6	e8 00 00 00 00	 call	 ??0?$vector@V?$basic_string@DU?$char_traits@D@std@@V?$allocator@D@2@@std@@V?$allocator@V?$basic_string@DU?$char_traits@D@std@@V?$allocator@D@2@@std@@@2@@std@@QAE@XZ ; std::vector<std::basic_string<char,std::char_traits<char>,std::allocator<char> >,std::allocator<std::basic_string<char,std::char_traits<char>,std::allocator<char> > > >::vector<std::basic_string<char,std::char_traits<char>,std::allocator<char> >,std::allocator<std::basic_string<char,std::char_traits<char>,std::allocator<char> > > >
  00fab	c6 45 fc 01	 mov	 BYTE PTR __$EHRec$[ebp+8], 1

; 183  : 
; 184  : 		for( ; i<vItem.size(); i++  )

  00faf	eb 09		 jmp	 SHORT $L192821
$L192822:
  00fb1	8b 4d d0	 mov	 ecx, DWORD PTR _i$192819[ebp]
  00fb4	83 c1 01	 add	 ecx, 1
  00fb7	89 4d d0	 mov	 DWORD PTR _i$192819[ebp], ecx
$L192821:
  00fba	8d 4d d8	 lea	 ecx, DWORD PTR _vItem$192817[ebp]
  00fbd	e8 00 00 00 00	 call	 ?size@?$vector@HV?$allocator@H@std@@@std@@QBEIXZ ; std::vector<int,std::allocator<int> >::size
  00fc2	39 45 d0	 cmp	 DWORD PTR _i$192819[ebp], eax
  00fc5	73 42		 jae	 SHORT $L192823

; 185  : 		{
; 186  : 			LMC_ItemInfo ii = GetItemInfoByIndex( vItem[i] );

  00fc7	8b 55 d0	 mov	 edx, DWORD PTR _i$192819[ebp]
  00fca	52		 push	 edx
  00fcb	8d 4d d8	 lea	 ecx, DWORD PTR _vItem$192817[ebp]
  00fce	e8 00 00 00 00	 call	 ??A?$vector@HV?$allocator@H@std@@@std@@QAEAAHI@Z ; std::vector<int,std::allocator<int> >::operator[]
  00fd3	8b 00		 mov	 eax, DWORD PTR [eax]
  00fd5	50		 push	 eax
  00fd6	8d 8d 70 ff ff
	ff		 lea	 ecx, DWORD PTR _ii$192824[ebp]
  00fdc	51		 push	 ecx
  00fdd	8b 4d ec	 mov	 ecx, DWORD PTR _this$[ebp]
  00fe0	e8 00 00 00 00	 call	 ?GetItemInfoByIndex@CLocalMusicCoverList@@QAE?AU_tagLMCItemInfo@@H@Z ; CLocalMusicCoverList::GetItemInfoByIndex
  00fe5	c6 45 fc 02	 mov	 BYTE PTR __$EHRec$[ebp+8], 2

; 187  : 			rv.push_back (ii.strGID);

  00fe9	8d 95 70 ff ff
	ff		 lea	 edx, DWORD PTR _ii$192824[ebp]
  00fef	52		 push	 edx
  00ff0	8d 4d bc	 lea	 ecx, DWORD PTR _rv$192820[ebp]
  00ff3	e8 00 00 00 00	 call	 ?push_back@?$vector@V?$basic_string@DU?$char_traits@D@std@@V?$allocator@D@2@@std@@V?$allocator@V?$basic_string@DU?$char_traits@D@std@@V?$allocator@D@2@@std@@@2@@std@@QAEXABV?$basic_string@DU?$char_traits@D@std@@V?$allocator@D@2@@2@@Z ; std::vector<std::basic_string<char,std::char_traits<char>,std::allocator<char> >,std::allocator<std::basic_string<char,std::char_traits<char>,std::allocator<char> > > >::push_back

; 188  : // 			GLOBAL_LOCALGAME->ILocalGameData_DelGame( ii.strGID );
; 189  : 		}

  00ff8	c6 45 fc 01	 mov	 BYTE PTR __$EHRec$[ebp+8], 1
  00ffc	8d 8d 70 ff ff
	ff		 lea	 ecx, DWORD PTR _ii$192824[ebp]
  01002	e8 00 00 00 00	 call	 ??1_tagLMCItemInfo@@QAE@XZ
  01007	eb a8		 jmp	 SHORT $L192822
$L192823:

; 190  : 
; 191  : 		for (RidVector::iterator it = rv.begin (); it != rv.end (); it++)

  01009	8d 85 64 ff ff
	ff		 lea	 eax, DWORD PTR _it$192826[ebp]
  0100f	50		 push	 eax
  01010	8d 4d bc	 lea	 ecx, DWORD PTR _rv$192820[ebp]
  01013	e8 00 00 00 00	 call	 ?begin@?$vector@V?$basic_string@DU?$char_traits@D@std@@V?$allocator@D@2@@std@@V?$allocator@V?$basic_string@DU?$char_traits@D@std@@V?$allocator@D@2@@std@@@2@@std@@QAE?AViterator@12@XZ ; std::vector<std::basic_string<char,std::char_traits<char>,std::allocator<char> >,std::allocator<std::basic_string<char,std::char_traits<char>,std::allocator<char> > > >::begin
  01018	eb 14		 jmp	 SHORT $L192830
$L192831:
  0101a	6a 00		 push	 0
  0101c	8d 8d 5c ff ff
	ff		 lea	 ecx, DWORD PTR $T195373[ebp]
  01022	51		 push	 ecx
  01023	8d 8d 64 ff ff
	ff		 lea	 ecx, DWORD PTR _it$192826[ebp]
  01029	e8 00 00 00 00	 call	 ??Eiterator@?$vector@V?$basic_string@DU?$char_traits@D@std@@V?$allocator@D@2@@std@@V?$allocator@V?$basic_string@DU?$char_traits@D@std@@V?$allocator@D@2@@std@@@2@@std@@QAE?AV012@H@Z ; std::vector<std::basic_string<char,std::char_traits<char>,std::allocator<char> >,std::allocator<std::basic_string<char,std::char_traits<char>,std::allocator<char> > > >::iterator::operator++
$L192830:
  0102e	8d 95 58 ff ff
	ff		 lea	 edx, DWORD PTR $T195374[ebp]
  01034	52		 push	 edx
  01035	8d 4d bc	 lea	 ecx, DWORD PTR _rv$192820[ebp]
  01038	e8 00 00 00 00	 call	 ?end@?$vector@V?$basic_string@DU?$char_traits@D@std@@V?$allocator@D@2@@std@@V?$allocator@V?$basic_string@DU?$char_traits@D@std@@V?$allocator@D@2@@std@@@2@@std@@QAE?AViterator@12@XZ ; std::vector<std::basic_string<char,std::char_traits<char>,std::allocator<char> >,std::allocator<std::basic_string<char,std::char_traits<char>,std::allocator<char> > > >::end
  0103d	50		 push	 eax
  0103e	8d 8d 64 ff ff
	ff		 lea	 ecx, DWORD PTR _it$192826[ebp]
  01044	e8 00 00 00 00	 call	 ??9const_iterator@?$vector@V?$basic_string@DU?$char_traits@D@std@@V?$allocator@D@2@@std@@V?$allocator@V?$basic_string@DU?$char_traits@D@std@@V?$allocator@D@2@@std@@@2@@std@@QBE_NABV012@@Z ; std::vector<std::basic_string<char,std::char_traits<char>,std::allocator<char> >,std::allocator<std::basic_string<char,std::char_traits<char>,std::allocator<char> > > >::const_iterator::operator!=
  01049	0f b6 c0	 movzx	 eax, al
  0104c	85 c0		 test	 eax, eax
  0104e	0f 84 86 00 00
	00		 je	 $L192832

; 192  : 		{
; 193  : 			GLOBAL_LOCALGAME->ILocalGameData_DelGame(*it);

  01054	8d 8d 64 ff ff
	ff		 lea	 ecx, DWORD PTR _it$192826[ebp]
  0105a	e8 00 00 00 00	 call	 ??Diterator@?$vector@V?$basic_string@DU?$char_traits@D@std@@V?$allocator@D@2@@std@@V?$allocator@V?$basic_string@DU?$char_traits@D@std@@V?$allocator@D@2@@std@@@2@@std@@QBEAAV?$basic_string@DU?$char_traits@D@std@@V?$allocator@D@2@@2@XZ ; std::vector<std::basic_string<char,std::char_traits<char>,std::allocator<char> >,std::allocator<std::basic_string<char,std::char_traits<char>,std::allocator<char> > > >::iterator::operator*
  0105f	83 ec 1c	 sub	 esp, 28			; 0000001cH
  01062	8b cc		 mov	 ecx, esp
  01064	89 a5 54 ff ff
	ff		 mov	 DWORD PTR $T195375[ebp], esp
  0106a	8b f4		 mov	 esi, esp
  0106c	50		 push	 eax
  0106d	ff 15 00 00 00
	00		 call	 DWORD PTR __imp_??0?$basic_string@DU?$char_traits@D@std@@V?$allocator@D@2@@std@@QAE@ABV01@@Z
  01073	3b f4		 cmp	 esi, esp
  01075	e8 00 00 00 00	 call	 __RTC_CheckEsp
  0107a	89 85 50 ff ff
	ff		 mov	 DWORD PTR tv77[ebp], eax
  01080	8b 8d 50 ff ff
	ff		 mov	 ecx, DWORD PTR tv77[ebp]
  01086	89 8d 4c ff ff
	ff		 mov	 DWORD PTR tv170[ebp], ecx
  0108c	c6 45 fc 03	 mov	 BYTE PTR __$EHRec$[ebp+8], 3
  01090	e8 00 00 00 00	 call	 ?AfxGetDataManager2@@YAPAVIDataManager@@XZ ; AfxGetDataManager2
  01095	89 85 48 ff ff
	ff		 mov	 DWORD PTR tv133[ebp], eax
  0109b	8b f4		 mov	 esi, esp
  0109d	68 00 00 00 00	 push	 OFFSET FLAT:_ID_DATA_LOCALGAME
  010a2	8b 95 48 ff ff
	ff		 mov	 edx, DWORD PTR tv133[ebp]
  010a8	8b 02		 mov	 eax, DWORD PTR [edx]
  010aa	8b 8d 48 ff ff
	ff		 mov	 ecx, DWORD PTR tv133[ebp]
  010b0	ff 50 0c	 call	 DWORD PTR [eax+12]
  010b3	3b f4		 cmp	 esi, esp
  010b5	e8 00 00 00 00	 call	 __RTC_CheckEsp
  010ba	89 85 44 ff ff
	ff		 mov	 DWORD PTR tv139[ebp], eax
  010c0	8b 8d 44 ff ff
	ff		 mov	 ecx, DWORD PTR tv139[ebp]
  010c6	8b 11		 mov	 edx, DWORD PTR [ecx]
  010c8	c6 45 fc 01	 mov	 BYTE PTR __$EHRec$[ebp+8], 1
  010cc	8b 8d 44 ff ff
	ff		 mov	 ecx, DWORD PTR tv139[ebp]
  010d2	ff 52 14	 call	 DWORD PTR [edx+20]

; 194  : 		}

  010d5	e9 40 ff ff ff	 jmp	 $L192831
$L192832:

; 195  : 
; 196  : 		rv.clear ();

  010da	8d 4d bc	 lea	 ecx, DWORD PTR _rv$192820[ebp]
  010dd	e8 00 00 00 00	 call	 ?clear@?$vector@V?$basic_string@DU?$char_traits@D@std@@V?$allocator@D@2@@std@@V?$allocator@V?$basic_string@DU?$char_traits@D@std@@V?$allocator@D@2@@std@@@2@@std@@QAEXXZ ; std::vector<std::basic_string<char,std::char_traits<char>,std::allocator<char> >,std::allocator<std::basic_string<char,std::char_traits<char>,std::allocator<char> > > >::clear

; 197  : 
; 198  : 		UpdateList();

  010e2	8b 4d ec	 mov	 ecx, DWORD PTR _this$[ebp]
  010e5	e8 00 00 00 00	 call	 ?UpdateList@CLocalMusicCoverList@@IAEXXZ ; CLocalMusicCoverList::UpdateList

; 199  : 		OnMemoryDraw();

  010ea	6a 01		 push	 1
  010ec	8b 4d ec	 mov	 ecx, DWORD PTR _this$[ebp]
  010ef	e8 00 00 00 00	 call	 ?OnMemoryDraw@CLocalMusicCoverList@@IAEXH@Z ; CLocalMusicCoverList::OnMemoryDraw

; 200  : 
; 201  : // 		if( i > 0 ) //
; 202  : // 		{
; 203  : // 			ReGetData();
; 204  : // 		}		
; 205  : 	}

  010f4	c6 45 fc 00	 mov	 BYTE PTR __$EHRec$[ebp+8], 0
  010f8	8d 4d bc	 lea	 ecx, DWORD PTR _rv$192820[ebp]
  010fb	e8 00 00 00 00	 call	 ??1?$vector@V?$basic_string@DU?$char_traits@D@std@@V?$allocator@D@2@@std@@V?$allocator@V?$basic_string@DU?$char_traits@D@std@@V?$allocator@D@2@@std@@@2@@std@@QAE@XZ ; std::vector<std::basic_string<char,std::char_traits<char>,std::allocator<char> >,std::allocator<std::basic_string<char,std::char_traits<char>,std::allocator<char> > > >::~vector<std::basic_string<char,std::char_traits<char>,std::allocator<char> >,std::allocator<std::basic_string<char,std::char_traits<char>,std::allocator<char> > > >
  01100	c7 45 fc ff ff
	ff ff		 mov	 DWORD PTR __$EHRec$[ebp+8], -1
  01107	8d 4d d8	 lea	 ecx, DWORD PTR _vItem$192817[ebp]
  0110a	e8 00 00 00 00	 call	 ??1?$vector@HV?$allocator@H@std@@@std@@QAE@XZ ; std::vector<int,std::allocator<int> >::~vector<int,std::allocator<int> >
$L192815:

; 206  : 	__super::OnKeyDown(nChar, nRepCnt, nFlags);

  0110f	8b 45 10	 mov	 eax, DWORD PTR _nFlags$[ebp]
  01112	50		 push	 eax
  01113	8b 4d 0c	 mov	 ecx, DWORD PTR _nRepCnt$[ebp]
  01116	51		 push	 ecx
  01117	8b 55 08	 mov	 edx, DWORD PTR _nChar$[ebp]
  0111a	52		 push	 edx
  0111b	8b 4d ec	 mov	 ecx, DWORD PTR _this$[ebp]
  0111e	e8 00 00 00 00	 call	 ?OnKeyDown@CLocalMusicCoverList@@QAEXIII@Z ; CLocalMusicCoverList::OnKeyDown

; 207  : }

  01123	52		 push	 edx
  01124	8b cd		 mov	 ecx, ebp
  01126	50		 push	 eax
  01127	8d 15 00 00 00
	00		 lea	 edx, DWORD PTR $L195389
  0112d	e8 00 00 00 00	 call	 @_RTC_CheckStackVars@8
  01132	58		 pop	 eax
  01133	5a		 pop	 edx
  01134	8b 4d f4	 mov	 ecx, DWORD PTR __$EHRec$[ebp]
  01137	64 89 0d 00 00
	00 00		 mov	 DWORD PTR fs:__except_list, ecx
  0113e	8b 4d f0	 mov	 ecx, DWORD PTR __$ArrayPad$[ebp]
  01141	e8 00 00 00 00	 call	 @__security_check_cookie@4
  01146	5f		 pop	 edi
  01147	5e		 pop	 esi
  01148	81 c4 bc 00 00
	00		 add	 esp, 188		; 000000bcH
  0114e	3b ec		 cmp	 ebp, esp
  01150	e8 00 00 00 00	 call	 __RTC_CheckEsp
  01155	8b e5		 mov	 esp, ebp
  01157	5d		 pop	 ebp
  01158	c2 0c 00	 ret	 12			; 0000000cH
$L195389:
  0115b	04 00 00 00	 DD	 4
  0115f	00 00 00 00	 DD	 $L195388
$L195388:
  01163	d8 ff ff ff	 DD	 -40			; ffffffd8H
  01167	10 00 00 00	 DD	 16			; 00000010H
  0116b	00 00 00 00	 DD	 $L195382
  0116f	bc ff ff ff	 DD	 -68			; ffffffbcH
  01173	10 00 00 00	 DD	 16			; 00000010H
  01177	00 00 00 00	 DD	 $L195383
  0117b	70 ff ff ff	 DD	 -144			; ffffff70H
  0117f	44 00 00 00	 DD	 68			; 00000044H
  01183	00 00 00 00	 DD	 $L195384
  01187	64 ff ff ff	 DD	 -156			; ffffff64H
  0118b	04 00 00 00	 DD	 4
  0118f	00 00 00 00	 DD	 $L195385
$L195385:
  01193	69		 DB	 105			; 00000069H
  01194	74		 DB	 116			; 00000074H
  01195	00		 DB	 0
$L195384:
  01196	69		 DB	 105			; 00000069H
  01197	69		 DB	 105			; 00000069H
  01198	00		 DB	 0
$L195383:
  01199	72		 DB	 114			; 00000072H
  0119a	76		 DB	 118			; 00000076H
  0119b	00		 DB	 0
$L195382:
  0119c	76		 DB	 118			; 00000076H
  0119d	49		 DB	 73			; 00000049H
  0119e	74		 DB	 116			; 00000074H
  0119f	65		 DB	 101			; 00000065H
  011a0	6d		 DB	 109			; 0000006dH
  011a1	00		 DB	 0
_TEXT	ENDS
text$x	SEGMENT
$L195376:
  0025f	8d 4d d8	 lea	 ecx, DWORD PTR _vItem$192817[ebp]
  00262	e9 00 00 00 00	 jmp	 ??1?$vector@HV?$allocator@H@std@@@std@@QAE@XZ ; std::vector<int,std::allocator<int> >::~vector<int,std::allocator<int> >
$L195377:
  00267	8d 4d bc	 lea	 ecx, DWORD PTR _rv$192820[ebp]
  0026a	e9 00 00 00 00	 jmp	 ??1?$vector@V?$basic_string@DU?$char_traits@D@std@@V?$allocator@D@2@@std@@V?$allocator@V?$basic_string@DU?$char_traits@D@std@@V?$allocator@D@2@@std@@@2@@std@@QAE@XZ ; std::vector<std::basic_string<char,std::char_traits<char>,std::allocator<char> >,std::allocator<std::basic_string<char,std::char_traits<char>,std::allocator<char> > > >::~vector<std::basic_string<char,std::char_traits<char>,std::allocator<char> >,std::allocator<std::basic_string<char,std::char_traits<char>,std::allocator<char> > > >
$L195378:
  0026f	8d 8d 70 ff ff
	ff		 lea	 ecx, DWORD PTR _ii$192824[ebp]
  00275	e9 00 00 00 00	 jmp	 ??1_tagLMCItemInfo@@QAE@XZ
$L195379:
  0027a	8b f4		 mov	 esi, esp
  0027c	8b 8d 54 ff ff
	ff		 mov	 ecx, DWORD PTR $T195375[ebp]
  00282	ff 15 00 00 00
	00		 call	 DWORD PTR __imp_??1?$basic_string@DU?$char_traits@D@std@@V?$allocator@D@2@@std@@QAE@XZ
  00288	3b f4		 cmp	 esi, esp
  0028a	e9 00 00 00 00	 jmp	 __RTC_CheckEsp
__ehhandler$?OnKeyDown@PlayedGameWnd@@IAEXIII@Z:
  0028f	b8 00 00 00 00	 mov	 eax, OFFSET FLAT:$T195381
  00294	e9 00 00 00 00	 jmp	 ___CxxFrameHandler
text$x	ENDS
?OnKeyDown@PlayedGameWnd@@IAEXIII@Z ENDP		; PlayedGameWnd::OnKeyDown
PUBLIC	??0Graphics@Gdiplus@@QAE@PAUHDC__@@@Z		; Gdiplus::Graphics::Graphics
PUBLIC	??1Graphics@Gdiplus@@QAE@XZ			; Gdiplus::Graphics::~Graphics
PUBLIC	??0Rect@Gdiplus@@QAE@HHHH@Z			; Gdiplus::Rect::Rect
PUBLIC	?_AtlGetConversionACP@ATL@@YGIXZ		; ATL::_AtlGetConversionACP
PUBLIC	?AtlA2WHelper@@YGPA_WPA_WPBDHI@Z		; AtlA2WHelper
PUBLIC	?DrawImage@Graphics@Gdiplus@@QAE?AW4Status@2@PAVImage@2@ABVRect@2@@Z ; Gdiplus::Graphics::DrawImage
PUBLIC	??0Image@Gdiplus@@QAE@PB_WH@Z			; Gdiplus::Image::Image
PUBLIC	??1Image@Gdiplus@@UAE@XZ			; Gdiplus::Image::~Image
PUBLIC	?Clone@Image@Gdiplus@@UAEPAV12@XZ		; Gdiplus::Image::Clone
PUBLIC	?DrawPlayBtn@PlayedGameWnd@@IAEXVCRect@@H@Z	; PlayedGameWnd::DrawPlayBtn
EXTRN	__imp_?Mid@?$CStringT@DV?$StrTraitMFC_DLL@DV?$ChTraitsCRT@D@ATL@@@@@ATL@@QBE?AV12@HH@Z:NEAR
EXTRN	__imp__lstrlenA@4:NEAR
EXTRN	?Width@CRect@@QBEHXZ:NEAR			; CRect::Width
EXTRN	?Height@CRect@@QBEHXZ:NEAR			; CRect::Height
EXTRN	__imp__GetModuleFileNameA@12:NEAR
EXTRN	__imp_?GetBuffer@?$CSimpleStringT@D$00@ATL@@QAEPADXZ:NEAR
EXTRN	?GetDC@CWnd@@QAEPAVCDC@@XZ:NEAR			; CWnd::GetDC
EXTRN	__imp_??4?$CStringT@DV?$StrTraitMFC_DLL@DV?$ChTraitsCRT@D@ATL@@@@@ATL@@QAEAAV01@ABV01@@Z:NEAR
EXTRN	__alloca_probe:NEAR
EXTRN	__imp_??Y?$CStringT@DV?$StrTraitMFC_DLL@DV?$ChTraitsCRT@D@ATL@@@@@ATL@@QAEAAV01@PBD@Z:NEAR
EXTRN	__imp_?ReverseFind@?$CStringT@DV?$StrTraitMFC_DLL@DV?$ChTraitsCRT@D@ATL@@@@@ATL@@QBEHD@Z:NEAR
;	COMDAT ?pImageNormal@?1??DrawPlayBtn@PlayedGameWnd@@IAEXVCRect@@H@Z@4PAVImage@Gdiplus@@A
_BSS	SEGMENT
?pImageNormal@?1??DrawPlayBtn@PlayedGameWnd@@IAEXVCRect@@H@Z@4PAVImage@Gdiplus@@A DD 01H DUP (?) ; `PlayedGameWnd::DrawPlayBtn'::`2'::pImageNormal
_BSS	ENDS
;	COMDAT ?pImageOver@?1??DrawPlayBtn@PlayedGameWnd@@IAEXVCRect@@H@Z@4PAVImage@Gdiplus@@A
_BSS	SEGMENT
?pImageOver@?1??DrawPlayBtn@PlayedGameWnd@@IAEXVCRect@@H@Z@4PAVImage@Gdiplus@@A DD 01H DUP (?) ; `PlayedGameWnd::DrawPlayBtn'::`2'::pImageOver
_BSS	ENDS
xdata$x	SEGMENT
$T195418 DD	0ffffffffH
	DD	FLAT:$L195398
	DD	00H
	DD	FLAT:$L195399
	DD	00H
	DD	FLAT:$L195400
	DD	02H
	DD	FLAT:$L195401
	DD	03H
	DD	FLAT:$L195402
	DD	0ffffffffH
	DD	FLAT:$L195403
$T195405 DD	019930520H
	DD	06H
	DD	FLAT:$T195418
	DD	2 DUP(00H)
	DD	2 DUP(00H)
xdata$x	ENDS
;	COMDAT ?blInit@?1??DrawPlayBtn@PlayedGameWnd@@IAEXVCRect@@H@Z@4HA
_DATA	SEGMENT
?blInit@?1??DrawPlayBtn@PlayedGameWnd@@IAEXVCRect@@H@Z@4HA DD 01H ; `PlayedGameWnd::DrawPlayBtn'::`2'::blInit
; Function compile flags: /Odt /RTCsu
_DATA	ENDS
_TEXT	SEGMENT
tv174 = -444						; size = 4
tv178 = -440						; size = 4
tv151 = -436						; size = 4
tv155 = -432						; size = 4
tv199 = -428						; size = 4
tv205 = -424						; size = 4
$T195393 = -420						; size = 4
_gc$ = -412						; size = 8
_imgOver$192861 = -396					; size = 16
_img$192859 = -372					; size = 16
__lpa$192857 = -352					; size = 4
__lpw$192856 = -348					; size = 4
__acp$192855 = -344					; size = 4
__convert$192854 = -340					; size = 4
_szPlaybtnOver$192851 = -332				; size = 4
_szPlaybtnNormal$192849 = -320				; size = 4
_path_tmp$192848 = -308					; size = 260
_rcImg$ = -40						; size = 16
_this$ = -20						; size = 4
__$ArrayPad$ = -16					; size = 4
__$EHRec$ = -12						; size = 12
__$ReturnAddr$ = 4					; size = 4
_rc$ = 8						; size = 16
_blNormal$ = 24						; size = 4
?DrawPlayBtn@PlayedGameWnd@@IAEXVCRect@@H@Z PROC NEAR	; PlayedGameWnd::DrawPlayBtn
; _this$ = ecx

; 210  : {

  011b0	55		 push	 ebp
  011b1	8b ec		 mov	 ebp, esp
  011b3	6a ff		 push	 -1
  011b5	68 00 00 00 00	 push	 __ehhandler$?DrawPlayBtn@PlayedGameWnd@@IAEXVCRect@@H@Z
  011ba	64 a1 00 00 00
	00		 mov	 eax, DWORD PTR fs:__except_list
  011c0	50		 push	 eax
  011c1	64 89 25 00 00
	00 00		 mov	 DWORD PTR fs:__except_list, esp
  011c8	81 ec b0 01 00
	00		 sub	 esp, 432		; 000001b0H
  011ce	56		 push	 esi
  011cf	57		 push	 edi
  011d0	51		 push	 ecx
  011d1	8d bd 44 fe ff
	ff		 lea	 edi, DWORD PTR [ebp-444]
  011d7	b9 6c 00 00 00	 mov	 ecx, 108		; 0000006cH
  011dc	b8 cc cc cc cc	 mov	 eax, -858993460		; ccccccccH
  011e1	f3 ab		 rep stosd
  011e3	59		 pop	 ecx
  011e4	a1 00 00 00 00	 mov	 eax, DWORD PTR ___security_cookie
  011e9	89 45 f0	 mov	 DWORD PTR __$ArrayPad$[ebp], eax
  011ec	89 4d ec	 mov	 DWORD PTR _this$[ebp], ecx

; 211  : 	Rect rcImg(rc.left, rc.top,rc.Width(),rc.Height());

  011ef	8d 4d 08	 lea	 ecx, DWORD PTR _rc$[ebp]
  011f2	e8 00 00 00 00	 call	 ?Height@CRect@@QBEHXZ	; CRect::Height
  011f7	50		 push	 eax
  011f8	8d 4d 08	 lea	 ecx, DWORD PTR _rc$[ebp]
  011fb	e8 00 00 00 00	 call	 ?Width@CRect@@QBEHXZ	; CRect::Width
  01200	50		 push	 eax
  01201	8b 45 0c	 mov	 eax, DWORD PTR _rc$[ebp+4]
  01204	50		 push	 eax
  01205	8b 4d 08	 mov	 ecx, DWORD PTR _rc$[ebp]
  01208	51		 push	 ecx
  01209	8d 4d d8	 lea	 ecx, DWORD PTR _rcImg$[ebp]
  0120c	e8 00 00 00 00	 call	 ??0Rect@Gdiplus@@QAE@HHHH@Z ; Gdiplus::Rect::Rect

; 212  : 	static BOOL blInit=TRUE;
; 213  : 	static Image* pImageNormal = NULL;
; 214  : 	static Image* pImageOver = NULL;
; 215  : 	if (blInit)

  01211	83 3d 00 00 00
	00 00		 cmp	 DWORD PTR ?blInit@?1??DrawPlayBtn@PlayedGameWnd@@IAEXVCRect@@H@Z@4HA, 0
  01218	0f 84 22 03 00
	00		 je	 $L192847

; 216  : 	{
; 217  : 		blInit=FALSE;

  0121e	c7 05 00 00 00
	00 00 00 00 00	 mov	 DWORD PTR ?blInit@?1??DrawPlayBtn@PlayedGameWnd@@IAEXVCRect@@H@Z@4HA, 0

; 218  : 		TCHAR path_tmp[MAX_PATH]={0};

  01228	c6 85 cc fe ff
	ff 00		 mov	 BYTE PTR _path_tmp$192848[ebp], 0
  0122f	b9 40 00 00 00	 mov	 ecx, 64			; 00000040H
  01234	33 c0		 xor	 eax, eax
  01236	8d bd cd fe ff
	ff		 lea	 edi, DWORD PTR _path_tmp$192848[ebp+1]
  0123c	f3 ab		 rep stosd
  0123e	66 ab		 stosw
  01240	aa		 stosb

; 219  : 		::GetModuleFileName(NULL,path_tmp,MAX_PATH);

  01241	8b f4		 mov	 esi, esp
  01243	68 04 01 00 00	 push	 260			; 00000104H
  01248	8d 95 cc fe ff
	ff		 lea	 edx, DWORD PTR _path_tmp$192848[ebp]
  0124e	52		 push	 edx
  0124f	6a 00		 push	 0
  01251	ff 15 00 00 00
	00		 call	 DWORD PTR __imp__GetModuleFileNameA@12
  01257	3b f4		 cmp	 esi, esp
  01259	e8 00 00 00 00	 call	 __RTC_CheckEsp

; 220  : 		CString szPlaybtnNormal(path_tmp);

  0125e	8b f4		 mov	 esi, esp
  01260	8d 85 cc fe ff
	ff		 lea	 eax, DWORD PTR _path_tmp$192848[ebp]
  01266	50		 push	 eax
  01267	8d 8d c0 fe ff
	ff		 lea	 ecx, DWORD PTR _szPlaybtnNormal$192849[ebp]
  0126d	ff 15 00 00 00
	00		 call	 DWORD PTR __imp_??0?$CStringT@DV?$StrTraitMFC_DLL@DV?$ChTraitsCRT@D@ATL@@@@@ATL@@QAE@PBD@Z
  01273	3b f4		 cmp	 esi, esp
  01275	e8 00 00 00 00	 call	 __RTC_CheckEsp
  0127a	c7 45 fc 00 00
	00 00		 mov	 DWORD PTR __$EHRec$[ebp+8], 0

; 221  : 		szPlaybtnNormal=szPlaybtnNormal.Mid(0,szPlaybtnNormal.ReverseFind('\\'));

  01281	8b f4		 mov	 esi, esp
  01283	6a 5c		 push	 92			; 0000005cH
  01285	8d 8d c0 fe ff
	ff		 lea	 ecx, DWORD PTR _szPlaybtnNormal$192849[ebp]
  0128b	ff 15 00 00 00
	00		 call	 DWORD PTR __imp_?ReverseFind@?$CStringT@DV?$StrTraitMFC_DLL@DV?$ChTraitsCRT@D@ATL@@@@@ATL@@QBEHD@Z
  01291	3b f4		 cmp	 esi, esp
  01293	e8 00 00 00 00	 call	 __RTC_CheckEsp
  01298	8b f4		 mov	 esi, esp
  0129a	50		 push	 eax
  0129b	6a 00		 push	 0
  0129d	8d 8d 5c fe ff
	ff		 lea	 ecx, DWORD PTR $T195393[ebp]
  012a3	51		 push	 ecx
  012a4	8d 8d c0 fe ff
	ff		 lea	 ecx, DWORD PTR _szPlaybtnNormal$192849[ebp]
  012aa	ff 15 00 00 00
	00		 call	 DWORD PTR __imp_?Mid@?$CStringT@DV?$StrTraitMFC_DLL@DV?$ChTraitsCRT@D@ATL@@@@@ATL@@QBE?AV12@HH@Z
  012b0	3b f4		 cmp	 esi, esp
  012b2	e8 00 00 00 00	 call	 __RTC_CheckEsp
  012b7	89 85 58 fe ff
	ff		 mov	 DWORD PTR tv205[ebp], eax
  012bd	8b 95 58 fe ff
	ff		 mov	 edx, DWORD PTR tv205[ebp]
  012c3	89 95 54 fe ff
	ff		 mov	 DWORD PTR tv199[ebp], edx
  012c9	c6 45 fc 01	 mov	 BYTE PTR __$EHRec$[ebp+8], 1
  012cd	8b f4		 mov	 esi, esp
  012cf	8b 85 54 fe ff
	ff		 mov	 eax, DWORD PTR tv199[ebp]
  012d5	50		 push	 eax
  012d6	8d 8d c0 fe ff
	ff		 lea	 ecx, DWORD PTR _szPlaybtnNormal$192849[ebp]
  012dc	ff 15 00 00 00
	00		 call	 DWORD PTR __imp_??4?$CStringT@DV?$StrTraitMFC_DLL@DV?$ChTraitsCRT@D@ATL@@@@@ATL@@QAEAAV01@ABV01@@Z
  012e2	3b f4		 cmp	 esi, esp
  012e4	e8 00 00 00 00	 call	 __RTC_CheckEsp
  012e9	c6 45 fc 00	 mov	 BYTE PTR __$EHRec$[ebp+8], 0
  012ed	8b f4		 mov	 esi, esp
  012ef	8d 8d 5c fe ff
	ff		 lea	 ecx, DWORD PTR $T195393[ebp]
  012f5	ff 15 00 00 00
	00		 call	 DWORD PTR __imp_??1?$CStringT@DV?$StrTraitMFC_DLL@DV?$ChTraitsCRT@D@ATL@@@@@ATL@@QAE@XZ
  012fb	3b f4		 cmp	 esi, esp
  012fd	e8 00 00 00 00	 call	 __RTC_CheckEsp

; 222  : 		CString szPlaybtnOver = szPlaybtnNormal;

  01302	8b f4		 mov	 esi, esp
  01304	8d 8d c0 fe ff
	ff		 lea	 ecx, DWORD PTR _szPlaybtnNormal$192849[ebp]
  0130a	51		 push	 ecx
  0130b	8d 8d b4 fe ff
	ff		 lea	 ecx, DWORD PTR _szPlaybtnOver$192851[ebp]
  01311	ff 15 00 00 00
	00		 call	 DWORD PTR __imp_??0?$CStringT@DV?$StrTraitMFC_DLL@DV?$ChTraitsCRT@D@ATL@@@@@ATL@@QAE@ABV01@@Z
  01317	3b f4		 cmp	 esi, esp
  01319	e8 00 00 00 00	 call	 __RTC_CheckEsp
  0131e	c6 45 fc 02	 mov	 BYTE PTR __$EHRec$[ebp+8], 2

; 223  : 		szPlaybtnNormal+="\\CoverPlayNormal.png";

  01322	8b f4		 mov	 esi, esp
  01324	68 00 00 00 00	 push	 OFFSET FLAT:$SG192852
  01329	8d 8d c0 fe ff
	ff		 lea	 ecx, DWORD PTR _szPlaybtnNormal$192849[ebp]
  0132f	ff 15 00 00 00
	00		 call	 DWORD PTR __imp_??Y?$CStringT@DV?$StrTraitMFC_DLL@DV?$ChTraitsCRT@D@ATL@@@@@ATL@@QAEAAV01@PBD@Z
  01335	3b f4		 cmp	 esi, esp
  01337	e8 00 00 00 00	 call	 __RTC_CheckEsp

; 224  : 		szPlaybtnOver += "\\CoverPlayOver.png";

  0133c	8b f4		 mov	 esi, esp
  0133e	68 00 00 00 00	 push	 OFFSET FLAT:$SG192853
  01343	8d 8d b4 fe ff
	ff		 lea	 ecx, DWORD PTR _szPlaybtnOver$192851[ebp]
  01349	ff 15 00 00 00
	00		 call	 DWORD PTR __imp_??Y?$CStringT@DV?$StrTraitMFC_DLL@DV?$ChTraitsCRT@D@ATL@@@@@ATL@@QAEAAV01@PBD@Z
  0134f	3b f4		 cmp	 esi, esp
  01351	e8 00 00 00 00	 call	 __RTC_CheckEsp

; 225  : 		USES_CONVERSION;

  01356	c7 85 ac fe ff
	ff 00 00 00 00	 mov	 DWORD PTR __convert$192854[ebp], 0
  01360	e8 00 00 00 00	 call	 ?_AtlGetConversionACP@ATL@@YGIXZ ; ATL::_AtlGetConversionACP
  01365	89 85 a8 fe ff
	ff		 mov	 DWORD PTR __acp$192855[ebp], eax
  0136b	c7 85 a4 fe ff
	ff 00 00 00 00	 mov	 DWORD PTR __lpw$192856[ebp], 0
  01375	c7 85 a0 fe ff
	ff 00 00 00 00	 mov	 DWORD PTR __lpa$192857[ebp], 0

; 226  : 		Image img(A2W(szPlaybtnNormal.GetBuffer()),FALSE );

  0137f	8b f4		 mov	 esi, esp
  01381	8d 8d c0 fe ff
	ff		 lea	 ecx, DWORD PTR _szPlaybtnNormal$192849[ebp]
  01387	ff 15 00 00 00
	00		 call	 DWORD PTR __imp_?GetBuffer@?$CSimpleStringT@D$00@ATL@@QAEPADXZ
  0138d	3b f4		 cmp	 esi, esp
  0138f	e8 00 00 00 00	 call	 __RTC_CheckEsp
  01394	89 85 a0 fe ff
	ff		 mov	 DWORD PTR __lpa$192857[ebp], eax
  0139a	83 bd a0 fe ff
	ff 00		 cmp	 DWORD PTR __lpa$192857[ebp], 0
  013a1	75 0c		 jne	 SHORT $L195394
  013a3	c7 85 50 fe ff
	ff 00 00 00 00	 mov	 DWORD PTR tv155[ebp], 0
  013ad	eb 5f		 jmp	 SHORT $L195395
$L195394:
  013af	8b f4		 mov	 esi, esp
  013b1	8b 95 a0 fe ff
	ff		 mov	 edx, DWORD PTR __lpa$192857[ebp]
  013b7	52		 push	 edx
  013b8	ff 15 00 00 00
	00		 call	 DWORD PTR __imp__lstrlenA@4
  013be	3b f4		 cmp	 esi, esp
  013c0	e8 00 00 00 00	 call	 __RTC_CheckEsp
  013c5	83 c0 01	 add	 eax, 1
  013c8	89 85 ac fe ff
	ff		 mov	 DWORD PTR __convert$192854[ebp], eax
  013ce	8b 85 ac fe ff
	ff		 mov	 eax, DWORD PTR __convert$192854[ebp]
  013d4	d1 e0		 shl	 eax, 1
  013d6	83 c0 03	 add	 eax, 3
  013d9	83 e0 fc	 and	 eax, -4			; fffffffcH
  013dc	e8 00 00 00 00	 call	 __alloca_probe
  013e1	89 a5 4c fe ff
	ff		 mov	 DWORD PTR tv151[ebp], esp
  013e7	8b 85 a8 fe ff
	ff		 mov	 eax, DWORD PTR __acp$192855[ebp]
  013ed	50		 push	 eax
  013ee	8b 8d ac fe ff
	ff		 mov	 ecx, DWORD PTR __convert$192854[ebp]
  013f4	51		 push	 ecx
  013f5	8b 95 a0 fe ff
	ff		 mov	 edx, DWORD PTR __lpa$192857[ebp]
  013fb	52		 push	 edx
  013fc	8b 85 4c fe ff
	ff		 mov	 eax, DWORD PTR tv151[ebp]
  01402	50		 push	 eax
  01403	e8 00 00 00 00	 call	 ?AtlA2WHelper@@YGPA_WPA_WPBDHI@Z ; AtlA2WHelper
  01408	89 85 50 fe ff
	ff		 mov	 DWORD PTR tv155[ebp], eax
$L195395:
  0140e	6a 00		 push	 0
  01410	8b 8d 50 fe ff
	ff		 mov	 ecx, DWORD PTR tv155[ebp]
  01416	51		 push	 ecx
  01417	8d 8d 8c fe ff
	ff		 lea	 ecx, DWORD PTR _img$192859[ebp]
  0141d	e8 00 00 00 00	 call	 ??0Image@Gdiplus@@QAE@PB_WH@Z ; Gdiplus::Image::Image
  01422	c6 45 fc 03	 mov	 BYTE PTR __$EHRec$[ebp+8], 3

; 227  : 		pImageNormal=img.Clone();

  01426	8d 8d 8c fe ff
	ff		 lea	 ecx, DWORD PTR _img$192859[ebp]
  0142c	e8 00 00 00 00	 call	 ?Clone@Image@Gdiplus@@UAEPAV12@XZ ; Gdiplus::Image::Clone
  01431	a3 00 00 00 00	 mov	 DWORD PTR ?pImageNormal@?1??DrawPlayBtn@PlayedGameWnd@@IAEXVCRect@@H@Z@4PAVImage@Gdiplus@@A, eax

; 228  : 		Image imgOver(A2W(szPlaybtnOver.GetBuffer()));

  01436	8b f4		 mov	 esi, esp
  01438	8d 8d b4 fe ff
	ff		 lea	 ecx, DWORD PTR _szPlaybtnOver$192851[ebp]
  0143e	ff 15 00 00 00
	00		 call	 DWORD PTR __imp_?GetBuffer@?$CSimpleStringT@D$00@ATL@@QAEPADXZ
  01444	3b f4		 cmp	 esi, esp
  01446	e8 00 00 00 00	 call	 __RTC_CheckEsp
  0144b	89 85 a0 fe ff
	ff		 mov	 DWORD PTR __lpa$192857[ebp], eax
  01451	83 bd a0 fe ff
	ff 00		 cmp	 DWORD PTR __lpa$192857[ebp], 0
  01458	75 0c		 jne	 SHORT $L195396
  0145a	c7 85 48 fe ff
	ff 00 00 00 00	 mov	 DWORD PTR tv178[ebp], 0
  01464	eb 5f		 jmp	 SHORT $L195397
$L195396:
  01466	8b f4		 mov	 esi, esp
  01468	8b 95 a0 fe ff
	ff		 mov	 edx, DWORD PTR __lpa$192857[ebp]
  0146e	52		 push	 edx
  0146f	ff 15 00 00 00
	00		 call	 DWORD PTR __imp__lstrlenA@4
  01475	3b f4		 cmp	 esi, esp
  01477	e8 00 00 00 00	 call	 __RTC_CheckEsp
  0147c	83 c0 01	 add	 eax, 1
  0147f	89 85 ac fe ff
	ff		 mov	 DWORD PTR __convert$192854[ebp], eax
  01485	8b 85 ac fe ff
	ff		 mov	 eax, DWORD PTR __convert$192854[ebp]
  0148b	d1 e0		 shl	 eax, 1
  0148d	83 c0 03	 add	 eax, 3
  01490	83 e0 fc	 and	 eax, -4			; fffffffcH
  01493	e8 00 00 00 00	 call	 __alloca_probe
  01498	89 a5 44 fe ff
	ff		 mov	 DWORD PTR tv174[ebp], esp
  0149e	8b 85 a8 fe ff
	ff		 mov	 eax, DWORD PTR __acp$192855[ebp]
  014a4	50		 push	 eax
  014a5	8b 8d ac fe ff
	ff		 mov	 ecx, DWORD PTR __convert$192854[ebp]
  014ab	51		 push	 ecx
  014ac	8b 95 a0 fe ff
	ff		 mov	 edx, DWORD PTR __lpa$192857[ebp]
  014b2	52		 push	 edx
  014b3	8b 85 44 fe ff
	ff		 mov	 eax, DWORD PTR tv174[ebp]
  014b9	50		 push	 eax
  014ba	e8 00 00 00 00	 call	 ?AtlA2WHelper@@YGPA_WPA_WPBDHI@Z ; AtlA2WHelper
  014bf	89 85 48 fe ff
	ff		 mov	 DWORD PTR tv178[ebp], eax
$L195397:
  014c5	6a 00		 push	 0
  014c7	8b 8d 48 fe ff
	ff		 mov	 ecx, DWORD PTR tv178[ebp]
  014cd	51		 push	 ecx
  014ce	8d 8d 74 fe ff
	ff		 lea	 ecx, DWORD PTR _imgOver$192861[ebp]
  014d4	e8 00 00 00 00	 call	 ??0Image@Gdiplus@@QAE@PB_WH@Z ; Gdiplus::Image::Image
  014d9	c6 45 fc 04	 mov	 BYTE PTR __$EHRec$[ebp+8], 4

; 229  : 		pImageOver = imgOver.Clone();

  014dd	8d 8d 74 fe ff
	ff		 lea	 ecx, DWORD PTR _imgOver$192861[ebp]
  014e3	e8 00 00 00 00	 call	 ?Clone@Image@Gdiplus@@UAEPAV12@XZ ; Gdiplus::Image::Clone
  014e8	a3 00 00 00 00	 mov	 DWORD PTR ?pImageOver@?1??DrawPlayBtn@PlayedGameWnd@@IAEXVCRect@@H@Z@4PAVImage@Gdiplus@@A, eax

; 230  : 	}

  014ed	c6 45 fc 03	 mov	 BYTE PTR __$EHRec$[ebp+8], 3
  014f1	8d 8d 74 fe ff
	ff		 lea	 ecx, DWORD PTR _imgOver$192861[ebp]
  014f7	e8 00 00 00 00	 call	 ??1Image@Gdiplus@@UAE@XZ ; Gdiplus::Image::~Image
  014fc	c6 45 fc 02	 mov	 BYTE PTR __$EHRec$[ebp+8], 2
  01500	8d 8d 8c fe ff
	ff		 lea	 ecx, DWORD PTR _img$192859[ebp]
  01506	e8 00 00 00 00	 call	 ??1Image@Gdiplus@@UAE@XZ ; Gdiplus::Image::~Image
  0150b	c6 45 fc 00	 mov	 BYTE PTR __$EHRec$[ebp+8], 0
  0150f	8b f4		 mov	 esi, esp
  01511	8d 8d b4 fe ff
	ff		 lea	 ecx, DWORD PTR _szPlaybtnOver$192851[ebp]
  01517	ff 15 00 00 00
	00		 call	 DWORD PTR __imp_??1?$CStringT@DV?$StrTraitMFC_DLL@DV?$ChTraitsCRT@D@ATL@@@@@ATL@@QAE@XZ
  0151d	3b f4		 cmp	 esi, esp
  0151f	e8 00 00 00 00	 call	 __RTC_CheckEsp
  01524	c7 45 fc ff ff
	ff ff		 mov	 DWORD PTR __$EHRec$[ebp+8], -1
  0152b	8b f4		 mov	 esi, esp
  0152d	8d 8d c0 fe ff
	ff		 lea	 ecx, DWORD PTR _szPlaybtnNormal$192849[ebp]
  01533	ff 15 00 00 00
	00		 call	 DWORD PTR __imp_??1?$CStringT@DV?$StrTraitMFC_DLL@DV?$ChTraitsCRT@D@ATL@@@@@ATL@@QAE@XZ
  01539	3b f4		 cmp	 esi, esp
  0153b	e8 00 00 00 00	 call	 __RTC_CheckEsp
$L192847:

; 231  : 	Graphics gc(GetDC()->m_hDC);

  01540	8b 4d ec	 mov	 ecx, DWORD PTR _this$[ebp]
  01543	e8 00 00 00 00	 call	 ?GetDC@CWnd@@QAEPAVCDC@@XZ ; CWnd::GetDC
  01548	8b 50 04	 mov	 edx, DWORD PTR [eax+4]
  0154b	52		 push	 edx
  0154c	8d 8d 64 fe ff
	ff		 lea	 ecx, DWORD PTR _gc$[ebp]
  01552	e8 00 00 00 00	 call	 ??0Graphics@Gdiplus@@QAE@PAUHDC__@@@Z ; Gdiplus::Graphics::Graphics
  01557	c7 45 fc 05 00
	00 00		 mov	 DWORD PTR __$EHRec$[ebp+8], 5

; 232  : 	if (blNormal)

  0155e	83 7d 18 00	 cmp	 DWORD PTR _blNormal$[ebp], 0
  01562	74 18		 je	 SHORT $L192863

; 233  : 		gc.DrawImage(pImageNormal,rcImg);

  01564	8d 45 d8	 lea	 eax, DWORD PTR _rcImg$[ebp]
  01567	50		 push	 eax
  01568	8b 0d 00 00 00
	00		 mov	 ecx, DWORD PTR ?pImageNormal@?1??DrawPlayBtn@PlayedGameWnd@@IAEXVCRect@@H@Z@4PAVImage@Gdiplus@@A
  0156e	51		 push	 ecx
  0156f	8d 8d 64 fe ff
	ff		 lea	 ecx, DWORD PTR _gc$[ebp]
  01575	e8 00 00 00 00	 call	 ?DrawImage@Graphics@Gdiplus@@QAE?AW4Status@2@PAVImage@2@ABVRect@2@@Z ; Gdiplus::Graphics::DrawImage

; 234  : 	else

  0157a	eb 15		 jmp	 SHORT $L192864
$L192863:

; 235  : 		gc.DrawImage(pImageOver,rcImg);

  0157c	8d 55 d8	 lea	 edx, DWORD PTR _rcImg$[ebp]
  0157f	52		 push	 edx
  01580	a1 00 00 00 00	 mov	 eax, DWORD PTR ?pImageOver@?1??DrawPlayBtn@PlayedGameWnd@@IAEXVCRect@@H@Z@4PAVImage@Gdiplus@@A
  01585	50		 push	 eax
  01586	8d 8d 64 fe ff
	ff		 lea	 ecx, DWORD PTR _gc$[ebp]
  0158c	e8 00 00 00 00	 call	 ?DrawImage@Graphics@Gdiplus@@QAE?AW4Status@2@PAVImage@2@ABVRect@2@@Z ; Gdiplus::Graphics::DrawImage
$L192864:

; 236  : }

  01591	c7 45 fc ff ff
	ff ff		 mov	 DWORD PTR __$EHRec$[ebp+8], -1
  01598	8d 8d 64 fe ff
	ff		 lea	 ecx, DWORD PTR _gc$[ebp]
  0159e	e8 00 00 00 00	 call	 ??1Graphics@Gdiplus@@QAE@XZ ; Gdiplus::Graphics::~Graphics
  015a3	8d a5 3c fe ff
	ff		 lea	 esp, DWORD PTR [ebp-452]
  015a9	52		 push	 edx
  015aa	8b cd		 mov	 ecx, ebp
  015ac	50		 push	 eax
  015ad	8d 15 00 00 00
	00		 lea	 edx, DWORD PTR $L195417
  015b3	e8 00 00 00 00	 call	 @_RTC_CheckStackVars@8
  015b8	58		 pop	 eax
  015b9	5a		 pop	 edx
  015ba	8b 4d f4	 mov	 ecx, DWORD PTR __$EHRec$[ebp]
  015bd	64 89 0d 00 00
	00 00		 mov	 DWORD PTR fs:__except_list, ecx
  015c4	8b 4d f0	 mov	 ecx, DWORD PTR __$ArrayPad$[ebp]
  015c7	e8 00 00 00 00	 call	 @__security_check_cookie@4
  015cc	5f		 pop	 edi
  015cd	5e		 pop	 esi
  015ce	8b e5		 mov	 esp, ebp
  015d0	5d		 pop	 ebp
  015d1	c2 14 00	 ret	 20			; 00000014H
$L195417:
  015d4	07 00 00 00	 DD	 7
  015d8	00 00 00 00	 DD	 $L195416
$L195416:
  015dc	d8 ff ff ff	 DD	 -40			; ffffffd8H
  015e0	10 00 00 00	 DD	 16			; 00000010H
  015e4	00 00 00 00	 DD	 $L195407
  015e8	cc fe ff ff	 DD	 -308			; fffffeccH
  015ec	04 01 00 00	 DD	 260			; 00000104H
  015f0	00 00 00 00	 DD	 $L195408
  015f4	c0 fe ff ff	 DD	 -320			; fffffec0H
  015f8	04 00 00 00	 DD	 4
  015fc	00 00 00 00	 DD	 $L195409
  01600	b4 fe ff ff	 DD	 -332			; fffffeb4H
  01604	04 00 00 00	 DD	 4
  01608	00 00 00 00	 DD	 $L195410
  0160c	8c fe ff ff	 DD	 -372			; fffffe8cH
  01610	10 00 00 00	 DD	 16			; 00000010H
  01614	00 00 00 00	 DD	 $L195411
  01618	74 fe ff ff	 DD	 -396			; fffffe74H
  0161c	10 00 00 00	 DD	 16			; 00000010H
  01620	00 00 00 00	 DD	 $L195412
  01624	64 fe ff ff	 DD	 -412			; fffffe64H
  01628	08 00 00 00	 DD	 8
  0162c	00 00 00 00	 DD	 $L195413
$L195413:
  01630	67		 DB	 103			; 00000067H
  01631	63		 DB	 99			; 00000063H
  01632	00		 DB	 0
$L195412:
  01633	69		 DB	 105			; 00000069H
  01634	6d		 DB	 109			; 0000006dH
  01635	67		 DB	 103			; 00000067H
  01636	4f		 DB	 79			; 0000004fH
  01637	76		 DB	 118			; 00000076H
  01638	65		 DB	 101			; 00000065H
  01639	72		 DB	 114			; 00000072H
  0163a	00		 DB	 0
$L195411:
  0163b	69		 DB	 105			; 00000069H
  0163c	6d		 DB	 109			; 0000006dH
  0163d	67		 DB	 103			; 00000067H
  0163e	00		 DB	 0
$L195410:
  0163f	73		 DB	 115			; 00000073H
  01640	7a		 DB	 122			; 0000007aH
  01641	50		 DB	 80			; 00000050H
  01642	6c		 DB	 108			; 0000006cH
  01643	61		 DB	 97			; 00000061H
  01644	79		 DB	 121			; 00000079H
  01645	62		 DB	 98			; 00000062H
  01646	74		 DB	 116			; 00000074H
  01647	6e		 DB	 110			; 0000006eH
  01648	4f		 DB	 79			; 0000004fH
  01649	76		 DB	 118			; 00000076H
  0164a	65		 DB	 101			; 00000065H
  0164b	72		 DB	 114			; 00000072H
  0164c	00		 DB	 0
$L195409:
  0164d	73		 DB	 115			; 00000073H
  0164e	7a		 DB	 122			; 0000007aH
  0164f	50		 DB	 80			; 00000050H
  01650	6c		 DB	 108			; 0000006cH
  01651	61		 DB	 97			; 00000061H
  01652	79		 DB	 121			; 00000079H
  01653	62		 DB	 98			; 00000062H
  01654	74		 DB	 116			; 00000074H
  01655	6e		 DB	 110			; 0000006eH
  01656	4e		 DB	 78			; 0000004eH
  01657	6f		 DB	 111			; 0000006fH
  01658	72		 DB	 114			; 00000072H
  01659	6d		 DB	 109			; 0000006dH
  0165a	61		 DB	 97			; 00000061H
  0165b	6c		 DB	 108			; 0000006cH
  0165c	00		 DB	 0
$L195408:
  0165d	70		 DB	 112			; 00000070H
  0165e	61		 DB	 97			; 00000061H
  0165f	74		 DB	 116			; 00000074H
  01660	68		 DB	 104			; 00000068H
  01661	5f		 DB	 95			; 0000005fH
  01662	74		 DB	 116			; 00000074H
  01663	6d		 DB	 109			; 0000006dH
  01664	70		 DB	 112			; 00000070H
  01665	00		 DB	 0
$L195407:
  01666	72		 DB	 114			; 00000072H
  01667	63		 DB	 99			; 00000063H
  01668	49		 DB	 73			; 00000049H
  01669	6d		 DB	 109			; 0000006dH
  0166a	67		 DB	 103			; 00000067H
  0166b	00		 DB	 0
_TEXT	ENDS
text$x	SEGMENT
$L195398:
  00299	8b f4		 mov	 esi, esp
  0029b	8d 8d c0 fe ff
	ff		 lea	 ecx, DWORD PTR _szPlaybtnNormal$192849[ebp]
  002a1	ff 15 00 00 00
	00		 call	 DWORD PTR __imp_??1?$CStringT@DV?$StrTraitMFC_DLL@DV?$ChTraitsCRT@D@ATL@@@@@ATL@@QAE@XZ
  002a7	3b f4		 cmp	 esi, esp
  002a9	e9 00 00 00 00	 jmp	 __RTC_CheckEsp
$L195399:
  002ae	8b f4		 mov	 esi, esp
  002b0	8d 8d 5c fe ff
	ff		 lea	 ecx, DWORD PTR $T195393[ebp]
  002b6	ff 15 00 00 00
	00		 call	 DWORD PTR __imp_??1?$CStringT@DV?$StrTraitMFC_DLL@DV?$ChTraitsCRT@D@ATL@@@@@ATL@@QAE@XZ
  002bc	3b f4		 cmp	 esi, esp
  002be	e9 00 00 00 00	 jmp	 __RTC_CheckEsp
$L195400:
  002c3	8b f4		 mov	 esi, esp
  002c5	8d 8d b4 fe ff
	ff		 lea	 ecx, DWORD PTR _szPlaybtnOver$192851[ebp]
  002cb	ff 15 00 00 00
	00		 call	 DWORD PTR __imp_??1?$CStringT@DV?$StrTraitMFC_DLL@DV?$ChTraitsCRT@D@ATL@@@@@ATL@@QAE@XZ
  002d1	3b f4		 cmp	 esi, esp
  002d3	e9 00 00 00 00	 jmp	 __RTC_CheckEsp
$L195401:
  002d8	8d 8d 8c fe ff
	ff		 lea	 ecx, DWORD PTR _img$192859[ebp]
  002de	e9 00 00 00 00	 jmp	 ??1Image@Gdiplus@@UAE@XZ ; Gdiplus::Image::~Image
$L195402:
  002e3	8d 8d 74 fe ff
	ff		 lea	 ecx, DWORD PTR _imgOver$192861[ebp]
  002e9	e9 00 00 00 00	 jmp	 ??1Image@Gdiplus@@UAE@XZ ; Gdiplus::Image::~Image
$L195403:
  002ee	8d 8d 64 fe ff
	ff		 lea	 ecx, DWORD PTR _gc$[ebp]
  002f4	e9 00 00 00 00	 jmp	 ??1Graphics@Gdiplus@@QAE@XZ ; Gdiplus::Graphics::~Graphics
__ehhandler$?DrawPlayBtn@PlayedGameWnd@@IAEXVCRect@@H@Z:
  002f9	b8 00 00 00 00	 mov	 eax, OFFSET FLAT:$T195405
  002fe	e9 00 00 00 00	 jmp	 ___CxxFrameHandler
text$x	ENDS
?DrawPlayBtn@PlayedGameWnd@@IAEXVCRect@@H@Z ENDP	; PlayedGameWnd::DrawPlayBtn
; Function compile flags: /Odt /RTCsu
; File d:\program files (x86)\microsoft visual studio .net 2003\vc7\atlmfc\include\atlconv.h
;	COMDAT ?_AtlGetConversionACP@ATL@@YGIXZ
_TEXT	SEGMENT
?_AtlGetConversionACP@ATL@@YGIXZ PROC NEAR		; ATL::_AtlGetConversionACP, COMDAT

; 157  : {

  00000	55		 push	 ebp
  00001	8b ec		 mov	 ebp, esp
  00003	56		 push	 esi

; 158  : 	return( g_pfnGetThreadACP() );

  00004	8b f4		 mov	 esi, esp
  00006	ff 15 00 00 00
	00		 call	 DWORD PTR ?g_pfnGetThreadACP@ATL@@3P6GIXZA ; ATL::g_pfnGetThreadACP
  0000c	3b f4		 cmp	 esi, esp
  0000e	e8 00 00 00 00	 call	 __RTC_CheckEsp

; 159  : }

  00013	5e		 pop	 esi
  00014	3b ec		 cmp	 ebp, esp
  00016	e8 00 00 00 00	 call	 __RTC_CheckEsp
  0001b	5d		 pop	 ebp
  0001c	c3		 ret	 0
?_AtlGetConversionACP@ATL@@YGIXZ ENDP			; ATL::_AtlGetConversionACP
_TEXT	ENDS
PUBLIC	??_C@_08DMHHBMMN@lpa?5?$CB?$DN?50?$AA@		; `string'
PUBLIC	??_C@_0FG@PFHCBDBK@D?3?2Program?5Files?5?$CIx86?$CJ?2Microsoft@ ; `string'
PUBLIC	??_C@_08DIHJLFDJ@lpw?5?$CB?$DN?50?$AA@		; `string'
PUBLIC	??_C@_01GBGANLPD@0?$AA@				; `string'
EXTRN	__imp___CrtDbgReport:NEAR
EXTRN	__imp__MultiByteToWideChar@24:NEAR
;	COMDAT ??_C@_08DMHHBMMN@lpa?5?$CB?$DN?50?$AA@
CONST	SEGMENT
??_C@_08DMHHBMMN@lpa?5?$CB?$DN?50?$AA@ DB 'lpa != 0', 00H ; `string'
CONST	ENDS
;	COMDAT ??_C@_0FG@PFHCBDBK@D?3?2Program?5Files?5?$CIx86?$CJ?2Microsoft@
CONST	SEGMENT
??_C@_0FG@PFHCBDBK@D?3?2Program?5Files?5?$CIx86?$CJ?2Microsoft@ DB 'D:\Pr'
	DB	'ogram Files (x86)\Microsoft Visual Studio .NET 2003\Vc7\atlmf'
	DB	'c\include\atlconv.h', 00H			; `string'
CONST	ENDS
;	COMDAT ??_C@_08DIHJLFDJ@lpw?5?$CB?$DN?50?$AA@
CONST	SEGMENT
??_C@_08DIHJLFDJ@lpw?5?$CB?$DN?50?$AA@ DB 'lpw != 0', 00H ; `string'
CONST	ENDS
;	COMDAT ??_C@_01GBGANLPD@0?$AA@
CONST	SEGMENT
??_C@_01GBGANLPD@0?$AA@ DB '0', 00H			; `string'
; Function compile flags: /Odt /RTCsu
CONST	ENDS
;	COMDAT ?AtlA2WHelper@@YGPA_WPA_WPBDHI@Z
_TEXT	SEGMENT
_ret$ = -4						; size = 4
_lpw$ = 8						; size = 4
_lpa$ = 12						; size = 4
_nChars$ = 16						; size = 4
_acp$ = 20						; size = 4
?AtlA2WHelper@@YGPA_WPA_WPBDHI@Z PROC NEAR		; AtlA2WHelper, COMDAT

; 554  : {

  00000	55		 push	 ebp
  00001	8b ec		 mov	 ebp, esp
  00003	51		 push	 ecx
  00004	56		 push	 esi
  00005	c7 45 fc cc cc
	cc cc		 mov	 DWORD PTR [ebp-4], -858993460 ; ccccccccH

; 555  : 	ATLASSERT(lpa != NULL);

  0000c	83 7d 0c 00	 cmp	 DWORD PTR _lpa$[ebp], 0
  00010	75 2b		 jne	 SHORT $L195423
  00012	8b f4		 mov	 esi, esp
  00014	68 00 00 00 00	 push	 OFFSET FLAT:??_C@_08DMHHBMMN@lpa?5?$CB?$DN?50?$AA@
  00019	6a 00		 push	 0
  0001b	68 2b 02 00 00	 push	 555			; 0000022bH
  00020	68 00 00 00 00	 push	 OFFSET FLAT:??_C@_0FG@PFHCBDBK@D?3?2Program?5Files?5?$CIx86?$CJ?2Microsoft@
  00025	6a 02		 push	 2
  00027	ff 15 00 00 00
	00		 call	 DWORD PTR __imp___CrtDbgReport
  0002d	83 c4 14	 add	 esp, 20			; 00000014H
  00030	3b f4		 cmp	 esi, esp
  00032	e8 00 00 00 00	 call	 __RTC_CheckEsp
  00037	83 f8 01	 cmp	 eax, 1
  0003a	75 01		 jne	 SHORT $L195423
  0003c	cc		 int	 3
$L195423:

; 556  : 	ATLASSERT(lpw != NULL);

  0003d	83 7d 08 00	 cmp	 DWORD PTR _lpw$[ebp], 0
  00041	75 2b		 jne	 SHORT $L195424
  00043	8b f4		 mov	 esi, esp
  00045	68 00 00 00 00	 push	 OFFSET FLAT:??_C@_08DIHJLFDJ@lpw?5?$CB?$DN?50?$AA@
  0004a	6a 00		 push	 0
  0004c	68 2c 02 00 00	 push	 556			; 0000022cH
  00051	68 00 00 00 00	 push	 OFFSET FLAT:??_C@_0FG@PFHCBDBK@D?3?2Program?5Files?5?$CIx86?$CJ?2Microsoft@
  00056	6a 02		 push	 2
  00058	ff 15 00 00 00
	00		 call	 DWORD PTR __imp___CrtDbgReport
  0005e	83 c4 14	 add	 esp, 20			; 00000014H
  00061	3b f4		 cmp	 esi, esp
  00063	e8 00 00 00 00	 call	 __RTC_CheckEsp
  00068	83 f8 01	 cmp	 eax, 1
  0006b	75 01		 jne	 SHORT $L195424
  0006d	cc		 int	 3
$L195424:

; 557  : 	if (lpw == NULL || lpa == NULL)

  0006e	83 7d 08 00	 cmp	 DWORD PTR _lpw$[ebp], 0
  00072	74 06		 je	 SHORT $L24299
  00074	83 7d 0c 00	 cmp	 DWORD PTR _lpa$[ebp], 0
  00078	75 04		 jne	 SHORT $L24298
$L24299:

; 558  : 		return NULL;

  0007a	33 c0		 xor	 eax, eax
  0007c	eb 6a		 jmp	 SHORT $L24292
$L24298:

; 559  : 	// verify that no illegal character present
; 560  : 	// since lpw was allocated based on the size of lpa
; 561  : 	// don't worry about the number of chars
; 562  : 	lpw[0] = '\0';

  0007e	8b 55 08	 mov	 edx, DWORD PTR _lpw$[ebp]
  00081	66 c7 02 00 00	 mov	 WORD PTR [edx], 0

; 563  : 	int ret = MultiByteToWideChar(acp, 0, lpa, -1, lpw, nChars);

  00086	8b f4		 mov	 esi, esp
  00088	8b 45 10	 mov	 eax, DWORD PTR _nChars$[ebp]
  0008b	50		 push	 eax
  0008c	8b 4d 08	 mov	 ecx, DWORD PTR _lpw$[ebp]
  0008f	51		 push	 ecx
  00090	6a ff		 push	 -1
  00092	8b 55 0c	 mov	 edx, DWORD PTR _lpa$[ebp]
  00095	52		 push	 edx
  00096	6a 00		 push	 0
  00098	8b 45 14	 mov	 eax, DWORD PTR _acp$[ebp]
  0009b	50		 push	 eax
  0009c	ff 15 00 00 00
	00		 call	 DWORD PTR __imp__MultiByteToWideChar@24
  000a2	3b f4		 cmp	 esi, esp
  000a4	e8 00 00 00 00	 call	 __RTC_CheckEsp
  000a9	89 45 fc	 mov	 DWORD PTR _ret$[ebp], eax

; 564  : 	if(ret == 0)

  000ac	83 7d fc 00	 cmp	 DWORD PTR _ret$[ebp], 0
  000b0	75 33		 jne	 SHORT $L24301

; 565  : 	{
; 566  : 		ATLASSERT(FALSE);

  000b2	33 c9		 xor	 ecx, ecx
  000b4	75 2b		 jne	 SHORT $L195425
  000b6	8b f4		 mov	 esi, esp
  000b8	68 00 00 00 00	 push	 OFFSET FLAT:??_C@_01GBGANLPD@0?$AA@
  000bd	6a 00		 push	 0
  000bf	68 36 02 00 00	 push	 566			; 00000236H
  000c4	68 00 00 00 00	 push	 OFFSET FLAT:??_C@_0FG@PFHCBDBK@D?3?2Program?5Files?5?$CIx86?$CJ?2Microsoft@
  000c9	6a 02		 push	 2
  000cb	ff 15 00 00 00
	00		 call	 DWORD PTR __imp___CrtDbgReport
  000d1	83 c4 14	 add	 esp, 20			; 00000014H
  000d4	3b f4		 cmp	 esi, esp
  000d6	e8 00 00 00 00	 call	 __RTC_CheckEsp
  000db	83 f8 01	 cmp	 eax, 1
  000de	75 01		 jne	 SHORT $L195425
  000e0	cc		 int	 3
$L195425:

; 567  : 		return NULL;

  000e1	33 c0		 xor	 eax, eax
  000e3	eb 03		 jmp	 SHORT $L24292
$L24301:

; 568  : 	}		
; 569  : 	return lpw;

  000e5	8b 45 08	 mov	 eax, DWORD PTR _lpw$[ebp]
$L24292:

; 570  : }

  000e8	5e		 pop	 esi
  000e9	83 c4 04	 add	 esp, 4
  000ec	3b ec		 cmp	 ebp, esp
  000ee	e8 00 00 00 00	 call	 __RTC_CheckEsp
  000f3	8b e5		 mov	 esp, ebp
  000f5	5d		 pop	 ebp
  000f6	c2 10 00	 ret	 16			; 00000010H
?AtlA2WHelper@@YGPA_WPA_WPBDHI@Z ENDP			; AtlA2WHelper
_TEXT	ENDS
PUBLIC	??0OneLocalGame@@QAE@XZ				; OneLocalGame::OneLocalGame
PUBLIC	??1OneLocalGame@@QAE@XZ				; OneLocalGame::~OneLocalGame
EXTRN	__imp_?Format@?$CStringT@DV?$StrTraitMFC_DLL@DV?$ChTraitsCRT@D@ATL@@@@@ATL@@QAAXPBDZZ:NEAR
EXTRN	??0CPoint@@QAE@HH@Z:NEAR			; CPoint::CPoint
EXTRN	??9CPoint@@QBEHUtagPOINT@@@Z:NEAR		; CPoint::operator!=
EXTRN	?IsRectNull@CRect@@QBEHXZ:NEAR			; CRect::IsRectNull
EXTRN	?PtInRect@CRect@@QBEHUtagPOINT@@@Z:NEAR		; CRect::PtInRect
EXTRN	?SetRect@CRect@@QAEXHHHH@Z:NEAR			; CRect::SetRect
EXTRN	__imp_??4?$basic_string@DU?$char_traits@D@std@@V?$allocator@D@2@@std@@QAEAAV01@PBD@Z:NEAR
EXTRN	__imp__GetCursorPos@4:NEAR
EXTRN	?ShowToolTips@CCWToolTips@@QAEXV?$CStringT@DV?$StrTraitMFC_DLL@DV?$ChTraitsCRT@D@ATL@@@@@ATL@@VCPoint@@H@Z:NEAR ; CCWToolTips::ShowToolTips
EXTRN	?HideTooTips@CCWToolTips@@QAEXXZ:NEAR		; CCWToolTips::HideTooTips
EXTRN	?RedrawWindow@CWnd@@QAEHPBUtagRECT@@PAVCRgn@@I@Z:NEAR ; CWnd::RedrawWindow
EXTRN	_memset:NEAR
EXTRN	__imp___TrackMouseEvent@4:NEAR
EXTRN	?OnMouseMove@CLocalMusicCoverList@@QAEXIVCPoint@@@Z:NEAR ; CLocalMusicCoverList::OnMouseMove
;	COMDAT ?rcPre@?7??OnMouseMove@PlayedGameWnd@@IAEXIVCPoint@@@Z@4VCRect@@A
; File d:\boxgit\playbox\playbox\dev\prj\playbox\src\module\playedgamepanel\playedgamewnd.cpp
_BSS	SEGMENT
?rcPre@?7??OnMouseMove@PlayedGameWnd@@IAEXIVCPoint@@@Z@4VCRect@@A DB 010H DUP (?) ; `PlayedGameWnd::OnMouseMove'::`8'::rcPre
_BSS	ENDS
;	COMDAT ?$S9@?7??OnMouseMove@PlayedGameWnd@@IAEXIVCPoint@@@Z@4IA
_BSS	SEGMENT
?$S9@?7??OnMouseMove@PlayedGameWnd@@IAEXIVCPoint@@@Z@4IA DD 01H DUP (?) ; `PlayedGameWnd::OnMouseMove'::`8'::$S9
_BSS	ENDS
xdata$x	SEGMENT
$T195455 DD	0ffffffffH
	DD	FLAT:$L195434
	DD	00H
	DD	FLAT:$L195435
	DD	01H
	DD	FLAT:$L195436
	DD	02H
	DD	FLAT:$L195437
	DD	03H
	DD	FLAT:$L195438
$T195441 DD	019930520H
	DD	05H
	DD	FLAT:$T195455
	DD	2 DUP(00H)
	DD	2 DUP(00H)
xdata$x	ENDS
;	COMDAT ?ipreITem@?7??OnMouseMove@PlayedGameWnd@@IAEXIVCPoint@@@Z@4HA
_DATA	SEGMENT
?ipreITem@?7??OnMouseMove@PlayedGameWnd@@IAEXIVCPoint@@@Z@4HA DD 0ffffffffH ; `PlayedGameWnd::OnMouseMove'::`8'::ipreITem
_DATA	ENDS
;	COMDAT ?ipreon@?7??OnMouseMove@PlayedGameWnd@@IAEXIVCPoint@@@Z@4HA
_DATA	SEGMENT
?ipreon@?7??OnMouseMove@PlayedGameWnd@@IAEXIVCPoint@@@Z@4HA DD 0ffffffffH ; `PlayedGameWnd::OnMouseMove'::`8'::ipreon
; Function compile flags: /Odt /RTCsu
_DATA	ENDS
_TEXT	SEGMENT
tv346 = -440						; size = 4
tv342 = -433						; size = 1
tv260 = -432						; size = 4
tv222 = -428						; size = 4
tv341 = -424						; size = 4
tv211 = -420						; size = 4
$T195432 = -416						; size = 4
$T195431 = -412						; size = 8
$T195430 = -404						; size = 4
$T195429 = -400						; size = 8
$T195428 = -392						; size = 8
_pt$192909 = -380					; size = 8
_og$192901 = -364					; size = 144
_ii$192900 = -212					; size = 68
_info$192899 = -136					; size = 4
_ihitarea$192890 = -128					; size = 4
_rcImg$192889 = -120					; size = 16
_rc$192888 = -96					; size = 16
_gc$192887 = -72					; size = 8
_blHitTest$ = -60					; size = 4
_iItem$ = -52						; size = 4
_tme$192871 = -40					; size = 16
_this$ = -20						; size = 4
__$ArrayPad$ = -16					; size = 4
__$EHRec$ = -12						; size = 12
__$ReturnAddr$ = 4					; size = 4
_nFlags$ = 8						; size = 4
_point$ = 12						; size = 8
?OnMouseMove@PlayedGameWnd@@IAEXIVCPoint@@@Z PROC NEAR	; PlayedGameWnd::OnMouseMove
; _this$ = ecx

; 239  : {

  01670	55		 push	 ebp
  01671	8b ec		 mov	 ebp, esp
  01673	6a ff		 push	 -1
  01675	68 00 00 00 00	 push	 __ehhandler$?OnMouseMove@PlayedGameWnd@@IAEXIVCPoint@@@Z
  0167a	64 a1 00 00 00
	00		 mov	 eax, DWORD PTR fs:__except_list
  01680	50		 push	 eax
  01681	64 89 25 00 00
	00 00		 mov	 DWORD PTR fs:__except_list, esp
  01688	81 ec ac 01 00
	00		 sub	 esp, 428		; 000001acH
  0168e	56		 push	 esi
  0168f	57		 push	 edi
  01690	51		 push	 ecx
  01691	8d bd 48 fe ff
	ff		 lea	 edi, DWORD PTR [ebp-440]
  01697	b9 6b 00 00 00	 mov	 ecx, 107		; 0000006bH
  0169c	b8 cc cc cc cc	 mov	 eax, -858993460		; ccccccccH
  016a1	f3 ab		 rep stosd
  016a3	59		 pop	 ecx
  016a4	a1 00 00 00 00	 mov	 eax, DWORD PTR ___security_cookie
  016a9	89 45 f0	 mov	 DWORD PTR __$ArrayPad$[ebp], eax
  016ac	89 4d ec	 mov	 DWORD PTR _this$[ebp], ecx

; 240  : 	if (!m_bTrackMouse)

  016af	8b 45 ec	 mov	 eax, DWORD PTR _this$[ebp]
  016b2	0f b6 88 18 02
	00 00		 movzx	 ecx, BYTE PTR [eax+536]
  016b9	85 c9		 test	 ecx, ecx
  016bb	75 34		 jne	 SHORT $L192870

; 241  : 	{
; 242  : 		TRACKMOUSEEVENT tme;
; 243  : 		tme.cbSize = sizeof(tme);

  016bd	c7 45 d8 10 00
	00 00		 mov	 DWORD PTR _tme$192871[ebp], 16 ; 00000010H

; 244  : 		tme.hwndTrack = m_hWnd;

  016c4	8b 55 ec	 mov	 edx, DWORD PTR _this$[ebp]
  016c7	8b 42 20	 mov	 eax, DWORD PTR [edx+32]
  016ca	89 45 e0	 mov	 DWORD PTR _tme$192871[ebp+8], eax

; 245  : 		tme.dwFlags = TME_LEAVE;

  016cd	c7 45 dc 02 00
	00 00		 mov	 DWORD PTR _tme$192871[ebp+4], 2

; 246  : 		_TrackMouseEvent(&tme);

  016d4	8b f4		 mov	 esi, esp
  016d6	8d 4d d8	 lea	 ecx, DWORD PTR _tme$192871[ebp]
  016d9	51		 push	 ecx
  016da	ff 15 00 00 00
	00		 call	 DWORD PTR __imp___TrackMouseEvent@4
  016e0	3b f4		 cmp	 esi, esp
  016e2	e8 00 00 00 00	 call	 __RTC_CheckEsp

; 247  : 		m_bTrackMouse = TRUE;

  016e7	8b 55 ec	 mov	 edx, DWORD PTR _this$[ebp]
  016ea	c6 82 18 02 00
	00 01		 mov	 BYTE PTR [edx+536], 1
$L192870:

; 248  : 	}
; 249  : 
; 250  : 	if (m_blDrag||m_blTracker)

  016f1	8b 45 ec	 mov	 eax, DWORD PTR _this$[ebp]
  016f4	83 b8 7c 01 00
	00 00		 cmp	 DWORD PTR [eax+380], 0
  016fb	75 0c		 jne	 SHORT $L192873
  016fd	8b 4d ec	 mov	 ecx, DWORD PTR _this$[ebp]
  01700	83 b9 68 01 00
	00 00		 cmp	 DWORD PTR [ecx+360], 0
  01707	74 19		 je	 SHORT $L192872
$L192873:

; 251  : 	{
; 252  : 		return __super::OnMouseMove(nFlags,point);

  01709	8b 55 10	 mov	 edx, DWORD PTR _point$[ebp+4]
  0170c	52		 push	 edx
  0170d	8b 45 0c	 mov	 eax, DWORD PTR _point$[ebp]
  01710	50		 push	 eax
  01711	8b 4d 08	 mov	 ecx, DWORD PTR _nFlags$[ebp]
  01714	51		 push	 ecx
  01715	8b 4d ec	 mov	 ecx, DWORD PTR _this$[ebp]
  01718	e8 00 00 00 00	 call	 ?OnMouseMove@CLocalMusicCoverList@@QAEXIVCPoint@@@Z ; CLocalMusicCoverList::OnMouseMove
  0171d	e9 0d 05 00 00	 jmp	 $L192869
$L192872:

; 253  : 	}
; 254  : 
; 255  : 	static CRect rcPre(0,0,0,0);	

  01722	8b 15 00 00 00
	00		 mov	 edx, DWORD PTR ?$S9@?7??OnMouseMove@PlayedGameWnd@@IAEXIVCPoint@@@Z@4IA
  01728	83 e2 01	 and	 edx, 1
  0172b	75 1f		 jne	 SHORT $L192878
  0172d	a1 00 00 00 00	 mov	 eax, DWORD PTR ?$S9@?7??OnMouseMove@PlayedGameWnd@@IAEXIVCPoint@@@Z@4IA
  01732	83 c8 01	 or	 eax, 1
  01735	a3 00 00 00 00	 mov	 DWORD PTR ?$S9@?7??OnMouseMove@PlayedGameWnd@@IAEXIVCPoint@@@Z@4IA, eax
  0173a	6a 00		 push	 0
  0173c	6a 00		 push	 0
  0173e	6a 00		 push	 0
  01740	6a 00		 push	 0
  01742	b9 00 00 00 00	 mov	 ecx, OFFSET FLAT:?rcPre@?7??OnMouseMove@PlayedGameWnd@@IAEXIVCPoint@@@Z@4VCRect@@A
  01747	e8 00 00 00 00	 call	 ??0CRect@@QAE@HHHH@Z	; CRect::CRect
$L192878:

; 256  : 	int iItem;	
; 257  : 	BOOL blHitTest=HitTest(iItem,point);

  0174c	8b 4d 10	 mov	 ecx, DWORD PTR _point$[ebp+4]
  0174f	51		 push	 ecx
  01750	8b 55 0c	 mov	 edx, DWORD PTR _point$[ebp]
  01753	52		 push	 edx
  01754	8d 45 cc	 lea	 eax, DWORD PTR _iItem$[ebp]
  01757	50		 push	 eax
  01758	8b 4d ec	 mov	 ecx, DWORD PTR _this$[ebp]
  0175b	e8 00 00 00 00	 call	 ?HitTest@CLocalMusicCoverList@@IAEHAAHVCPoint@@@Z ; CLocalMusicCoverList::HitTest
  01760	89 45 c4	 mov	 DWORD PTR _blHitTest$[ebp], eax

; 258  : 	static int ipreITem = -1;
; 259  : 	static int ipreon = -1;
; 260  : 	if (blHitTest)

  01763	83 7d c4 00	 cmp	 DWORD PTR _blHitTest$[ebp], 0
  01767	0f 84 6f 04 00
	00		 je	 $L192885

; 261  : 	{
; 262  :  		if (!rcPre.IsRectNull()&&ipreITem!=iItem)

  0176d	b9 00 00 00 00	 mov	 ecx, OFFSET FLAT:?rcPre@?7??OnMouseMove@PlayedGameWnd@@IAEXIVCPoint@@@Z@4VCRect@@A
  01772	e8 00 00 00 00	 call	 ?IsRectNull@CRect@@QBEHXZ ; CRect::IsRectNull
  01777	85 c0		 test	 eax, eax
  01779	75 1f		 jne	 SHORT $L192886
  0177b	8b 0d 00 00 00
	00		 mov	 ecx, DWORD PTR ?ipreITem@?7??OnMouseMove@PlayedGameWnd@@IAEXIVCPoint@@@Z@4HA
  01781	3b 4d cc	 cmp	 ecx, DWORD PTR _iItem$[ebp]
  01784	74 14		 je	 SHORT $L192886

; 263  :  			RedrawWindow(&rcPre);

  01786	68 05 01 00 00	 push	 261			; 00000105H
  0178b	6a 00		 push	 0
  0178d	68 00 00 00 00	 push	 OFFSET FLAT:?rcPre@?7??OnMouseMove@PlayedGameWnd@@IAEXIVCPoint@@@Z@4VCRect@@A
  01792	8b 4d ec	 mov	 ecx, DWORD PTR _this$[ebp]
  01795	e8 00 00 00 00	 call	 ?RedrawWindow@CWnd@@QAEHPBUtagRECT@@PAVCRgn@@I@Z ; CWnd::RedrawWindow
$L192886:

; 264  : 
; 265  : 		Graphics gc(GetDC()->m_hDC);

  0179a	8b 4d ec	 mov	 ecx, DWORD PTR _this$[ebp]
  0179d	e8 00 00 00 00	 call	 ?GetDC@CWnd@@QAEPAVCDC@@XZ ; CWnd::GetDC
  017a2	8b 50 04	 mov	 edx, DWORD PTR [eax+4]
  017a5	52		 push	 edx
  017a6	8d 4d b8	 lea	 ecx, DWORD PTR _gc$192887[ebp]
  017a9	e8 00 00 00 00	 call	 ??0Graphics@Gdiplus@@QAE@PAUHDC__@@@Z ; Gdiplus::Graphics::Graphics
  017ae	c7 45 fc 00 00
	00 00		 mov	 DWORD PTR __$EHRec$[ebp+8], 0

; 266  : 		Rect rc(m_DataMgr.m_vItem[iItem].rc.right-32,m_DataMgr.m_vItem[iItem].rc.bottom-32,26,26);

  017b5	6a 1a		 push	 26			; 0000001aH
  017b7	6a 1a		 push	 26			; 0000001aH
  017b9	8b 45 cc	 mov	 eax, DWORD PTR _iItem$[ebp]
  017bc	50		 push	 eax
  017bd	8b 4d ec	 mov	 ecx, DWORD PTR _this$[ebp]
  017c0	81 c1 6c 01 00
	00		 add	 ecx, 364		; 0000016cH
  017c6	e8 00 00 00 00	 call	 ??A?$vector@U_tagLMCItemInfo@@V?$allocator@U_tagLMCItemInfo@@@std@@@std@@QAEAAU_tagLMCItemInfo@@I@Z ; std::vector<_tagLMCItemInfo,std::allocator<_tagLMCItemInfo> >::operator[]
  017cb	8b 48 40	 mov	 ecx, DWORD PTR [eax+64]
  017ce	83 e9 20	 sub	 ecx, 32			; 00000020H
  017d1	51		 push	 ecx
  017d2	8b 55 cc	 mov	 edx, DWORD PTR _iItem$[ebp]
  017d5	52		 push	 edx
  017d6	8b 4d ec	 mov	 ecx, DWORD PTR _this$[ebp]
  017d9	81 c1 6c 01 00
	00		 add	 ecx, 364		; 0000016cH
  017df	e8 00 00 00 00	 call	 ??A?$vector@U_tagLMCItemInfo@@V?$allocator@U_tagLMCItemInfo@@@std@@@std@@QAEAAU_tagLMCItemInfo@@I@Z ; std::vector<_tagLMCItemInfo,std::allocator<_tagLMCItemInfo> >::operator[]
  017e4	8b 40 3c	 mov	 eax, DWORD PTR [eax+60]
  017e7	83 e8 20	 sub	 eax, 32			; 00000020H
  017ea	50		 push	 eax
  017eb	8d 4d a0	 lea	 ecx, DWORD PTR _rc$192888[ebp]
  017ee	e8 00 00 00 00	 call	 ??0Rect@Gdiplus@@QAE@HHHH@Z ; Gdiplus::Rect::Rect

; 267  : 		CRect rcImg(rc.X,rc.Y,rc.Width+rc.X,rc.Height+rc.Y);

  017f3	8b 4d ac	 mov	 ecx, DWORD PTR _rc$192888[ebp+12]
  017f6	03 4d a4	 add	 ecx, DWORD PTR _rc$192888[ebp+4]
  017f9	51		 push	 ecx
  017fa	8b 55 a8	 mov	 edx, DWORD PTR _rc$192888[ebp+8]
  017fd	03 55 a0	 add	 edx, DWORD PTR _rc$192888[ebp]
  01800	52		 push	 edx
  01801	8b 45 a4	 mov	 eax, DWORD PTR _rc$192888[ebp+4]
  01804	50		 push	 eax
  01805	8b 4d a0	 mov	 ecx, DWORD PTR _rc$192888[ebp]
  01808	51		 push	 ecx
  01809	8d 4d 88	 lea	 ecx, DWORD PTR _rcImg$192889[ebp]
  0180c	e8 00 00 00 00	 call	 ??0CRect@@QAE@HHHH@Z	; CRect::CRect

; 268  : 		int ihitarea=-1;

  01811	c7 45 80 ff ff
	ff ff		 mov	 DWORD PTR _ihitarea$192890[ebp], -1

; 269  : 		if (rcImg.PtInRect(point))

  01818	8b 55 0c	 mov	 edx, DWORD PTR _point$[ebp]
  0181b	89 95 78 fe ff
	ff		 mov	 DWORD PTR $T195428[ebp], edx
  01821	8b 45 10	 mov	 eax, DWORD PTR _point$[ebp+4]
  01824	89 85 7c fe ff
	ff		 mov	 DWORD PTR $T195428[ebp+4], eax
  0182a	8b 8d 7c fe ff
	ff		 mov	 ecx, DWORD PTR $T195428[ebp+4]
  01830	51		 push	 ecx
  01831	8b 95 78 fe ff
	ff		 mov	 edx, DWORD PTR $T195428[ebp]
  01837	52		 push	 edx
  01838	8d 4d 88	 lea	 ecx, DWORD PTR _rcImg$192889[ebp]
  0183b	e8 00 00 00 00	 call	 ?PtInRect@CRect@@QBEHUtagPOINT@@@Z ; CRect::PtInRect
  01840	85 c0		 test	 eax, eax
  01842	74 09		 je	 SHORT $L192892

; 270  : 		{
; 271  : 			ihitarea = 1;

  01844	c7 45 80 01 00
	00 00		 mov	 DWORD PTR _ihitarea$192890[ebp], 1

; 272  : 		}
; 273  : 		else

  0184b	eb 07		 jmp	 SHORT $L192893
$L192892:

; 274  : 		{
; 275  : 			ihitarea = 2;

  0184d	c7 45 80 02 00
	00 00		 mov	 DWORD PTR _ihitarea$192890[ebp], 2
$L192893:

; 276  : 		}
; 277  : 
; 278  : 		if (iItem!=ipreITem ||ihitarea!=ipreon)

  01854	8b 45 cc	 mov	 eax, DWORD PTR _iItem$[ebp]
  01857	3b 05 00 00 00
	00		 cmp	 eax, DWORD PTR ?ipreITem@?7??OnMouseMove@PlayedGameWnd@@IAEXIVCPoint@@@Z@4HA
  0185d	75 0f		 jne	 SHORT $L192895
  0185f	8b 4d 80	 mov	 ecx, DWORD PTR _ihitarea$192890[ebp]
  01862	3b 0d 00 00 00
	00		 cmp	 ecx, DWORD PTR ?ipreon@?7??OnMouseMove@PlayedGameWnd@@IAEXIVCPoint@@@Z@4HA
  01868	0f 84 b6 00 00
	00		 je	 $L192894
$L192895:

; 279  : 		{
; 280  : 			if (rcImg.PtInRect(point) )

  0186e	8b 55 0c	 mov	 edx, DWORD PTR _point$[ebp]
  01871	89 95 70 fe ff
	ff		 mov	 DWORD PTR $T195429[ebp], edx
  01877	8b 45 10	 mov	 eax, DWORD PTR _point$[ebp+4]
  0187a	89 85 74 fe ff
	ff		 mov	 DWORD PTR $T195429[ebp+4], eax
  01880	8b 8d 74 fe ff
	ff		 mov	 ecx, DWORD PTR $T195429[ebp+4]
  01886	51		 push	 ecx
  01887	8b 95 70 fe ff
	ff		 mov	 edx, DWORD PTR $T195429[ebp]
  0188d	52		 push	 edx
  0188e	8d 4d 88	 lea	 ecx, DWORD PTR _rcImg$192889[ebp]
  01891	e8 00 00 00 00	 call	 ?PtInRect@CRect@@QBEHUtagPOINT@@@Z ; CRect::PtInRect
  01896	85 c0		 test	 eax, eax
  01898	74 46		 je	 SHORT $L192897

; 281  : 			{
; 282  : 				RedrawWindow(&rcPre);

  0189a	68 05 01 00 00	 push	 261			; 00000105H
  0189f	6a 00		 push	 0
  018a1	68 00 00 00 00	 push	 OFFSET FLAT:?rcPre@?7??OnMouseMove@PlayedGameWnd@@IAEXIVCPoint@@@Z@4VCRect@@A
  018a6	8b 4d ec	 mov	 ecx, DWORD PTR _this$[ebp]
  018a9	e8 00 00 00 00	 call	 ?RedrawWindow@CWnd@@QAEHPBUtagRECT@@PAVCRgn@@I@Z ; CWnd::RedrawWindow

; 283  : 				ipreon = 1;

  018ae	c7 05 00 00 00
	00 01 00 00 00	 mov	 DWORD PTR ?ipreon@?7??OnMouseMove@PlayedGameWnd@@IAEXIVCPoint@@@Z@4HA, 1

; 284  : 				DrawPlayBtn(rcImg,FALSE);

  018b8	6a 00		 push	 0
  018ba	83 ec 10	 sub	 esp, 16			; 00000010H
  018bd	8b c4		 mov	 eax, esp
  018bf	8b 4d 88	 mov	 ecx, DWORD PTR _rcImg$192889[ebp]
  018c2	89 08		 mov	 DWORD PTR [eax], ecx
  018c4	8b 55 8c	 mov	 edx, DWORD PTR _rcImg$192889[ebp+4]
  018c7	89 50 04	 mov	 DWORD PTR [eax+4], edx
  018ca	8b 4d 90	 mov	 ecx, DWORD PTR _rcImg$192889[ebp+8]
  018cd	89 48 08	 mov	 DWORD PTR [eax+8], ecx
  018d0	8b 55 94	 mov	 edx, DWORD PTR _rcImg$192889[ebp+12]
  018d3	89 50 0c	 mov	 DWORD PTR [eax+12], edx
  018d6	8b 4d ec	 mov	 ecx, DWORD PTR _this$[ebp]
  018d9	e8 00 00 00 00	 call	 ?DrawPlayBtn@PlayedGameWnd@@IAEXVCRect@@H@Z ; PlayedGameWnd::DrawPlayBtn

; 285  : 			}
; 286  : 			else 

  018de	eb 44		 jmp	 SHORT $L192894
$L192897:

; 287  : 			{
; 288  : 				RedrawWindow(&rcPre);

  018e0	68 05 01 00 00	 push	 261			; 00000105H
  018e5	6a 00		 push	 0
  018e7	68 00 00 00 00	 push	 OFFSET FLAT:?rcPre@?7??OnMouseMove@PlayedGameWnd@@IAEXIVCPoint@@@Z@4VCRect@@A
  018ec	8b 4d ec	 mov	 ecx, DWORD PTR _this$[ebp]
  018ef	e8 00 00 00 00	 call	 ?RedrawWindow@CWnd@@QAEHPBUtagRECT@@PAVCRgn@@I@Z ; CWnd::RedrawWindow

; 289  : 				ipreon = 2; 

  018f4	c7 05 00 00 00
	00 02 00 00 00	 mov	 DWORD PTR ?ipreon@?7??OnMouseMove@PlayedGameWnd@@IAEXIVCPoint@@@Z@4HA, 2

; 290  : 				DrawPlayBtn(rcImg,TRUE);

  018fe	6a 01		 push	 1
  01900	83 ec 10	 sub	 esp, 16			; 00000010H
  01903	8b c4		 mov	 eax, esp
  01905	8b 4d 88	 mov	 ecx, DWORD PTR _rcImg$192889[ebp]
  01908	89 08		 mov	 DWORD PTR [eax], ecx
  0190a	8b 55 8c	 mov	 edx, DWORD PTR _rcImg$192889[ebp+4]
  0190d	89 50 04	 mov	 DWORD PTR [eax+4], edx
  01910	8b 4d 90	 mov	 ecx, DWORD PTR _rcImg$192889[ebp+8]
  01913	89 48 08	 mov	 DWORD PTR [eax+8], ecx
  01916	8b 55 94	 mov	 edx, DWORD PTR _rcImg$192889[ebp+12]
  01919	89 50 0c	 mov	 DWORD PTR [eax+12], edx
  0191c	8b 4d ec	 mov	 ecx, DWORD PTR _this$[ebp]
  0191f	e8 00 00 00 00	 call	 ?DrawPlayBtn@PlayedGameWnd@@IAEXVCRect@@H@Z ; PlayedGameWnd::DrawPlayBtn
$L192894:

; 291  : 			}
; 292  : 		}
; 293  : 
; 294  : 		rcPre.SetRect(rc.X,rc.Y,rc.X+rc.Width,rc.Y+rc.Height);

  01924	8b 45 a4	 mov	 eax, DWORD PTR _rc$192888[ebp+4]
  01927	03 45 ac	 add	 eax, DWORD PTR _rc$192888[ebp+12]
  0192a	50		 push	 eax
  0192b	8b 4d a0	 mov	 ecx, DWORD PTR _rc$192888[ebp]
  0192e	03 4d a8	 add	 ecx, DWORD PTR _rc$192888[ebp+8]
  01931	51		 push	 ecx
  01932	8b 55 a4	 mov	 edx, DWORD PTR _rc$192888[ebp+4]
  01935	52		 push	 edx
  01936	8b 45 a0	 mov	 eax, DWORD PTR _rc$192888[ebp]
  01939	50		 push	 eax
  0193a	b9 00 00 00 00	 mov	 ecx, OFFSET FLAT:?rcPre@?7??OnMouseMove@PlayedGameWnd@@IAEXIVCPoint@@@Z@4VCRect@@A
  0193f	e8 00 00 00 00	 call	 ?SetRect@CRect@@QAEXHHHH@Z ; CRect::SetRect

; 295  : 		m_iMovePreItem=iItem;

  01944	8b 4d ec	 mov	 ecx, DWORD PTR _this$[ebp]
  01947	8b 55 cc	 mov	 edx, DWORD PTR _iItem$[ebp]
  0194a	89 91 5c 02 00
	00		 mov	 DWORD PTR [ecx+604], edx

; 296  : 		ipreITem = iItem;

  01950	8b 45 cc	 mov	 eax, DWORD PTR _iItem$[ebp]
  01953	a3 00 00 00 00	 mov	 DWORD PTR ?ipreITem@?7??OnMouseMove@PlayedGameWnd@@IAEXIVCPoint@@@Z@4HA, eax

; 297  : 		//tooltips
; 298  : 		CString info;

  01958	8b f4		 mov	 esi, esp
  0195a	8d 8d 78 ff ff
	ff		 lea	 ecx, DWORD PTR _info$192899[ebp]
  01960	ff 15 00 00 00
	00		 call	 DWORD PTR __imp_??0?$CStringT@DV?$StrTraitMFC_DLL@DV?$ChTraitsCRT@D@ATL@@@@@ATL@@QAE@XZ
  01966	3b f4		 cmp	 esi, esp
  01968	e8 00 00 00 00	 call	 __RTC_CheckEsp
  0196d	c6 45 fc 01	 mov	 BYTE PTR __$EHRec$[ebp+8], 1

; 299  : 		LMC_ItemInfo ii = m_DataMgr.m_vItem[iItem];

  01971	8b 4d cc	 mov	 ecx, DWORD PTR _iItem$[ebp]
  01974	51		 push	 ecx
  01975	8b 4d ec	 mov	 ecx, DWORD PTR _this$[ebp]
  01978	81 c1 6c 01 00
	00		 add	 ecx, 364		; 0000016cH
  0197e	e8 00 00 00 00	 call	 ??A?$vector@U_tagLMCItemInfo@@V?$allocator@U_tagLMCItemInfo@@@std@@@std@@QAEAAU_tagLMCItemInfo@@I@Z ; std::vector<_tagLMCItemInfo,std::allocator<_tagLMCItemInfo> >::operator[]
  01983	50		 push	 eax
  01984	8d 8d 2c ff ff
	ff		 lea	 ecx, DWORD PTR _ii$192900[ebp]
  0198a	e8 00 00 00 00	 call	 ??0_tagLMCItemInfo@@QAE@ABU0@@Z
  0198f	c6 45 fc 02	 mov	 BYTE PTR __$EHRec$[ebp+8], 2

; 300  : 
; 301  : 		OneLocalGame og;

  01993	8d 8d 94 fe ff
	ff		 lea	 ecx, DWORD PTR _og$192901[ebp]
  01999	e8 00 00 00 00	 call	 ??0OneLocalGame@@QAE@XZ	; OneLocalGame::OneLocalGame
  0199e	c6 45 fc 03	 mov	 BYTE PTR __$EHRec$[ebp+8], 3

; 302  : 		memset (&og, 0, sizeof (OneLocalGame));

  019a2	68 90 00 00 00	 push	 144			; 00000090H
  019a7	6a 00		 push	 0
  019a9	8d 95 94 fe ff
	ff		 lea	 edx, DWORD PTR _og$192901[ebp]
  019af	52		 push	 edx
  019b0	e8 00 00 00 00	 call	 _memset
  019b5	83 c4 0c	 add	 esp, 12			; 0000000cH

; 303  : 		og.strName = ii.strItemName;

  019b8	8b f4		 mov	 esi, esp
  019ba	8d 8d 54 ff ff
	ff		 lea	 ecx, DWORD PTR _ii$192900[ebp+40]
  019c0	ff 15 00 00 00
	00		 call	 DWORD PTR __imp_??B?$CSimpleStringT@D$00@ATL@@QBEPBDXZ
  019c6	3b f4		 cmp	 esi, esp
  019c8	e8 00 00 00 00	 call	 __RTC_CheckEsp
  019cd	8b f4		 mov	 esi, esp
  019cf	50		 push	 eax
  019d0	8d 8d b0 fe ff
	ff		 lea	 ecx, DWORD PTR _og$192901[ebp+28]
  019d6	ff 15 00 00 00
	00		 call	 DWORD PTR __imp_??4?$basic_string@DU?$char_traits@D@std@@V?$allocator@D@2@@std@@QAEAAV01@PBD@Z
  019dc	3b f4		 cmp	 esi, esp
  019de	e8 00 00 00 00	 call	 __RTC_CheckEsp

; 304  : 
; 305  : 		if( GLOBAL_LOCALGAME->ILocalGameData_GetGameByID( ii.strGID, og ) )

  019e3	8d 85 94 fe ff
	ff		 lea	 eax, DWORD PTR _og$192901[ebp]
  019e9	50		 push	 eax
  019ea	83 ec 1c	 sub	 esp, 28			; 0000001cH
  019ed	8b cc		 mov	 ecx, esp
  019ef	89 a5 6c fe ff
	ff		 mov	 DWORD PTR $T195430[ebp], esp
  019f5	8b f4		 mov	 esi, esp
  019f7	8d 95 2c ff ff
	ff		 lea	 edx, DWORD PTR _ii$192900[ebp]
  019fd	52		 push	 edx
  019fe	ff 15 00 00 00
	00		 call	 DWORD PTR __imp_??0?$basic_string@DU?$char_traits@D@std@@V?$allocator@D@2@@std@@QAE@ABV01@@Z
  01a04	3b f4		 cmp	 esi, esp
  01a06	e8 00 00 00 00	 call	 __RTC_CheckEsp
  01a0b	89 85 5c fe ff
	ff		 mov	 DWORD PTR tv211[ebp], eax
  01a11	8b 85 5c fe ff
	ff		 mov	 eax, DWORD PTR tv211[ebp]
  01a17	89 85 58 fe ff
	ff		 mov	 DWORD PTR tv341[ebp], eax
  01a1d	c6 45 fc 04	 mov	 BYTE PTR __$EHRec$[ebp+8], 4
  01a21	e8 00 00 00 00	 call	 ?AfxGetDataManager2@@YAPAVIDataManager@@XZ ; AfxGetDataManager2
  01a26	89 85 54 fe ff
	ff		 mov	 DWORD PTR tv222[ebp], eax
  01a2c	8b f4		 mov	 esi, esp
  01a2e	68 00 00 00 00	 push	 OFFSET FLAT:_ID_DATA_LOCALGAME
  01a33	8b 8d 54 fe ff
	ff		 mov	 ecx, DWORD PTR tv222[ebp]
  01a39	8b 11		 mov	 edx, DWORD PTR [ecx]
  01a3b	8b 8d 54 fe ff
	ff		 mov	 ecx, DWORD PTR tv222[ebp]
  01a41	ff 52 0c	 call	 DWORD PTR [edx+12]
  01a44	3b f4		 cmp	 esi, esp
  01a46	e8 00 00 00 00	 call	 __RTC_CheckEsp
  01a4b	89 85 50 fe ff
	ff		 mov	 DWORD PTR tv260[ebp], eax
  01a51	8b 85 50 fe ff
	ff		 mov	 eax, DWORD PTR tv260[ebp]
  01a57	8b 10		 mov	 edx, DWORD PTR [eax]
  01a59	c6 45 fc 03	 mov	 BYTE PTR __$EHRec$[ebp+8], 3
  01a5d	8b 8d 50 fe ff
	ff		 mov	 ecx, DWORD PTR tv260[ebp]
  01a63	ff 52 0c	 call	 DWORD PTR [edx+12]
  01a66	88 85 4f fe ff
	ff		 mov	 BYTE PTR tv342[ebp], al
  01a6c	0f b6 85 4f fe
	ff ff		 movzx	 eax, BYTE PTR tv342[ebp]
  01a73	85 c0		 test	 eax, eax
  01a75	74 4c		 je	 SHORT $L192905

; 306  : 		{
; 307  : 			info.Format(": %s$#:%s", og.strName.c_str(), og.strIntro.c_str() );

  01a77	8b f4		 mov	 esi, esp
  01a79	8d 8d 04 ff ff
	ff		 lea	 ecx, DWORD PTR _og$192901[ebp+112]
  01a7f	ff 15 00 00 00
	00		 call	 DWORD PTR __imp_?c_str@?$basic_string@DU?$char_traits@D@std@@V?$allocator@D@2@@std@@QBEPBDXZ
  01a85	3b f4		 cmp	 esi, esp
  01a87	e8 00 00 00 00	 call	 __RTC_CheckEsp
  01a8c	8b f4		 mov	 esi, esp
  01a8e	50		 push	 eax
  01a8f	8b fc		 mov	 edi, esp
  01a91	8d 8d b0 fe ff
	ff		 lea	 ecx, DWORD PTR _og$192901[ebp+28]
  01a97	ff 15 00 00 00
	00		 call	 DWORD PTR __imp_?c_str@?$basic_string@DU?$char_traits@D@std@@V?$allocator@D@2@@std@@QBEPBDXZ
  01a9d	3b fc		 cmp	 edi, esp
  01a9f	e8 00 00 00 00	 call	 __RTC_CheckEsp
  01aa4	50		 push	 eax
  01aa5	68 00 00 00 00	 push	 OFFSET FLAT:$SG192906
  01aaa	8d 8d 78 ff ff
	ff		 lea	 ecx, DWORD PTR _info$192899[ebp]
  01ab0	51		 push	 ecx
  01ab1	ff 15 00 00 00
	00		 call	 DWORD PTR __imp_?Format@?$CStringT@DV?$StrTraitMFC_DLL@DV?$ChTraitsCRT@D@ATL@@@@@ATL@@QAAXPBDZZ
  01ab7	83 c4 10	 add	 esp, 16			; 00000010H
  01aba	3b f4		 cmp	 esi, esp
  01abc	e8 00 00 00 00	 call	 __RTC_CheckEsp

; 308  : 		}else

  01ac1	eb 25		 jmp	 SHORT $L192907
$L192905:

; 309  : 		{
; 310  : 			info.Format(": %s", ii.strItemName );

  01ac3	8b f4		 mov	 esi, esp
  01ac5	8b 95 54 ff ff
	ff		 mov	 edx, DWORD PTR _ii$192900[ebp+40]
  01acb	52		 push	 edx
  01acc	68 00 00 00 00	 push	 OFFSET FLAT:$SG192908
  01ad1	8d 85 78 ff ff
	ff		 lea	 eax, DWORD PTR _info$192899[ebp]
  01ad7	50		 push	 eax
  01ad8	ff 15 00 00 00
	00		 call	 DWORD PTR __imp_?Format@?$CStringT@DV?$StrTraitMFC_DLL@DV?$ChTraitsCRT@D@ATL@@@@@ATL@@QAAXPBDZZ
  01ade	83 c4 0c	 add	 esp, 12			; 0000000cH
  01ae1	3b f4		 cmp	 esi, esp
  01ae3	e8 00 00 00 00	 call	 __RTC_CheckEsp
$L192907:

; 311  : 		}
; 312  : 		//ii.strGID
; 313  : 		CPoint pt(0,0);

  01ae8	6a 00		 push	 0
  01aea	6a 00		 push	 0
  01aec	8d 8d 84 fe ff
	ff		 lea	 ecx, DWORD PTR _pt$192909[ebp]
  01af2	e8 00 00 00 00	 call	 ??0CPoint@@QAE@HH@Z	; CPoint::CPoint

; 314  : 		GetCursorPos(&pt);

  01af7	8b f4		 mov	 esi, esp
  01af9	8d 8d 84 fe ff
	ff		 lea	 ecx, DWORD PTR _pt$192909[ebp]
  01aff	51		 push	 ecx
  01b00	ff 15 00 00 00
	00		 call	 DWORD PTR __imp__GetCursorPos@4
  01b06	3b f4		 cmp	 esi, esp
  01b08	e8 00 00 00 00	 call	 __RTC_CheckEsp

; 315  : 		if( m_tootip.m_lastPoint != pt )

  01b0d	8b 95 84 fe ff
	ff		 mov	 edx, DWORD PTR _pt$192909[ebp]
  01b13	89 95 64 fe ff
	ff		 mov	 DWORD PTR $T195431[ebp], edx
  01b19	8b 85 88 fe ff
	ff		 mov	 eax, DWORD PTR _pt$192909[ebp+4]
  01b1f	89 85 68 fe ff
	ff		 mov	 DWORD PTR $T195431[ebp+4], eax
  01b25	8b 8d 68 fe ff
	ff		 mov	 ecx, DWORD PTR $T195431[ebp+4]
  01b2b	51		 push	 ecx
  01b2c	8b 95 64 fe ff
	ff		 mov	 edx, DWORD PTR $T195431[ebp]
  01b32	52		 push	 edx
  01b33	8b 4d ec	 mov	 ecx, DWORD PTR _this$[ebp]
  01b36	81 c1 f0 01 00
	00		 add	 ecx, 496		; 000001f0H
  01b3c	e8 00 00 00 00	 call	 ??9CPoint@@QBEHUtagPOINT@@@Z ; CPoint::operator!=
  01b41	85 c0		 test	 eax, eax
  01b43	74 0e		 je	 SHORT $L192911

; 316  : 		{
; 317  : 			m_tootip.HideTooTips();

  01b45	8b 4d ec	 mov	 ecx, DWORD PTR _this$[ebp]
  01b48	81 c1 88 01 00
	00		 add	 ecx, 392		; 00000188H
  01b4e	e8 00 00 00 00	 call	 ?HideTooTips@CCWToolTips@@QAEXXZ ; CCWToolTips::HideTooTips
$L192911:

; 318  : 		}
; 319  : 		m_tootip.ShowToolTips( info,pt);

  01b53	6a 00		 push	 0
  01b55	8b 85 88 fe ff
	ff		 mov	 eax, DWORD PTR _pt$192909[ebp+4]
  01b5b	50		 push	 eax
  01b5c	8b 8d 84 fe ff
	ff		 mov	 ecx, DWORD PTR _pt$192909[ebp]
  01b62	51		 push	 ecx
  01b63	51		 push	 ecx
  01b64	8b cc		 mov	 ecx, esp
  01b66	89 a5 60 fe ff
	ff		 mov	 DWORD PTR $T195432[ebp], esp
  01b6c	8b f4		 mov	 esi, esp
  01b6e	8d 95 78 ff ff
	ff		 lea	 edx, DWORD PTR _info$192899[ebp]
  01b74	52		 push	 edx
  01b75	ff 15 00 00 00
	00		 call	 DWORD PTR __imp_??0?$CStringT@DV?$StrTraitMFC_DLL@DV?$ChTraitsCRT@D@ATL@@@@@ATL@@QAE@ABV01@@Z
  01b7b	3b f4		 cmp	 esi, esp
  01b7d	e8 00 00 00 00	 call	 __RTC_CheckEsp
  01b82	89 85 48 fe ff
	ff		 mov	 DWORD PTR tv346[ebp], eax
  01b88	8b 4d ec	 mov	 ecx, DWORD PTR _this$[ebp]
  01b8b	81 c1 88 01 00
	00		 add	 ecx, 392		; 00000188H
  01b91	e8 00 00 00 00	 call	 ?ShowToolTips@CCWToolTips@@QAEXV?$CStringT@DV?$StrTraitMFC_DLL@DV?$ChTraitsCRT@D@ATL@@@@@ATL@@VCPoint@@H@Z ; CCWToolTips::ShowToolTips

; 320  : 	}

  01b96	c6 45 fc 02	 mov	 BYTE PTR __$EHRec$[ebp+8], 2
  01b9a	8d 8d 94 fe ff
	ff		 lea	 ecx, DWORD PTR _og$192901[ebp]
  01ba0	e8 00 00 00 00	 call	 ??1OneLocalGame@@QAE@XZ
  01ba5	c6 45 fc 01	 mov	 BYTE PTR __$EHRec$[ebp+8], 1
  01ba9	8d 8d 2c ff ff
	ff		 lea	 ecx, DWORD PTR _ii$192900[ebp]
  01baf	e8 00 00 00 00	 call	 ??1_tagLMCItemInfo@@QAE@XZ
  01bb4	c6 45 fc 00	 mov	 BYTE PTR __$EHRec$[ebp+8], 0
  01bb8	8b f4		 mov	 esi, esp
  01bba	8d 8d 78 ff ff
	ff		 lea	 ecx, DWORD PTR _info$192899[ebp]
  01bc0	ff 15 00 00 00
	00		 call	 DWORD PTR __imp_??1?$CStringT@DV?$StrTraitMFC_DLL@DV?$ChTraitsCRT@D@ATL@@@@@ATL@@QAE@XZ
  01bc6	3b f4		 cmp	 esi, esp
  01bc8	e8 00 00 00 00	 call	 __RTC_CheckEsp
  01bcd	c7 45 fc ff ff
	ff ff		 mov	 DWORD PTR __$EHRec$[ebp+8], -1
  01bd4	8d 4d b8	 lea	 ecx, DWORD PTR _gc$192887[ebp]
  01bd7	e8 00 00 00 00	 call	 ??1Graphics@Gdiplus@@QAE@XZ ; Gdiplus::Graphics::~Graphics
$L192885:

; 321  : 	if (!blHitTest)

  01bdc	83 7d c4 00	 cmp	 DWORD PTR _blHitTest$[ebp], 0
  01be0	75 39		 jne	 SHORT $L192913

; 322  : 	{
; 323  : 		if (!rcPre.IsRectNull())

  01be2	b9 00 00 00 00	 mov	 ecx, OFFSET FLAT:?rcPre@?7??OnMouseMove@PlayedGameWnd@@IAEXIVCPoint@@@Z@4VCRect@@A
  01be7	e8 00 00 00 00	 call	 ?IsRectNull@CRect@@QBEHXZ ; CRect::IsRectNull
  01bec	85 c0		 test	 eax, eax
  01bee	75 14		 jne	 SHORT $L192914

; 324  : 			RedrawWindow(&rcPre);

  01bf0	68 05 01 00 00	 push	 261			; 00000105H
  01bf5	6a 00		 push	 0
  01bf7	68 00 00 00 00	 push	 OFFSET FLAT:?rcPre@?7??OnMouseMove@PlayedGameWnd@@IAEXIVCPoint@@@Z@4VCRect@@A
  01bfc	8b 4d ec	 mov	 ecx, DWORD PTR _this$[ebp]
  01bff	e8 00 00 00 00	 call	 ?RedrawWindow@CWnd@@QAEHPBUtagRECT@@PAVCRgn@@I@Z ; CWnd::RedrawWindow
$L192914:

; 325  : 		m_iMovePreItem=-1;

  01c04	8b 45 ec	 mov	 eax, DWORD PTR _this$[ebp]
  01c07	c7 80 5c 02 00
	00 ff ff ff ff	 mov	 DWORD PTR [eax+604], -1

; 326  : 		ipreITem = -1;

  01c11	c7 05 00 00 00
	00 ff ff ff ff	 mov	 DWORD PTR ?ipreITem@?7??OnMouseMove@PlayedGameWnd@@IAEXIVCPoint@@@Z@4HA, -1
$L192913:

; 327  : 	}
; 328  : 	__super::OnMouseMove(nFlags, point);

  01c1b	8b 4d 10	 mov	 ecx, DWORD PTR _point$[ebp+4]
  01c1e	51		 push	 ecx
  01c1f	8b 55 0c	 mov	 edx, DWORD PTR _point$[ebp]
  01c22	52		 push	 edx
  01c23	8b 45 08	 mov	 eax, DWORD PTR _nFlags$[ebp]
  01c26	50		 push	 eax
  01c27	8b 4d ec	 mov	 ecx, DWORD PTR _this$[ebp]
  01c2a	e8 00 00 00 00	 call	 ?OnMouseMove@CLocalMusicCoverList@@QAEXIVCPoint@@@Z ; CLocalMusicCoverList::OnMouseMove
$L192869:

; 329  : }

  01c2f	52		 push	 edx
  01c30	8b cd		 mov	 ecx, ebp
  01c32	50		 push	 eax
  01c33	8d 15 00 00 00
	00		 lea	 edx, DWORD PTR $L195454
  01c39	e8 00 00 00 00	 call	 @_RTC_CheckStackVars@8
  01c3e	58		 pop	 eax
  01c3f	5a		 pop	 edx
  01c40	8b 4d f4	 mov	 ecx, DWORD PTR __$EHRec$[ebp]
  01c43	64 89 0d 00 00
	00 00		 mov	 DWORD PTR fs:__except_list, ecx
  01c4a	8b 4d f0	 mov	 ecx, DWORD PTR __$ArrayPad$[ebp]
  01c4d	e8 00 00 00 00	 call	 @__security_check_cookie@4
  01c52	5f		 pop	 edi
  01c53	5e		 pop	 esi
  01c54	81 c4 b8 01 00
	00		 add	 esp, 440		; 000001b8H
  01c5a	3b ec		 cmp	 ebp, esp
  01c5c	e8 00 00 00 00	 call	 __RTC_CheckEsp
  01c61	8b e5		 mov	 esp, ebp
  01c63	5d		 pop	 ebp
  01c64	c2 0c 00	 ret	 12			; 0000000cH
$L195454:
  01c67	09 00 00 00	 DD	 9
  01c6b	00 00 00 00	 DD	 $L195453
$L195453:
  01c6f	d8 ff ff ff	 DD	 -40			; ffffffd8H
  01c73	10 00 00 00	 DD	 16			; 00000010H
  01c77	00 00 00 00	 DD	 $L195442
  01c7b	cc ff ff ff	 DD	 -52			; ffffffccH
  01c7f	04 00 00 00	 DD	 4
  01c83	00 00 00 00	 DD	 $L195443
  01c87	b8 ff ff ff	 DD	 -72			; ffffffb8H
  01c8b	08 00 00 00	 DD	 8
  01c8f	00 00 00 00	 DD	 $L195444
  01c93	a0 ff ff ff	 DD	 -96			; ffffffa0H
  01c97	10 00 00 00	 DD	 16			; 00000010H
  01c9b	00 00 00 00	 DD	 $L195445
  01c9f	88 ff ff ff	 DD	 -120			; ffffff88H
  01ca3	10 00 00 00	 DD	 16			; 00000010H
  01ca7	00 00 00 00	 DD	 $L195446
  01cab	78 ff ff ff	 DD	 -136			; ffffff78H
  01caf	04 00 00 00	 DD	 4
  01cb3	00 00 00 00	 DD	 $L195447
  01cb7	2c ff ff ff	 DD	 -212			; ffffff2cH
  01cbb	44 00 00 00	 DD	 68			; 00000044H
  01cbf	00 00 00 00	 DD	 $L195448
  01cc3	94 fe ff ff	 DD	 -364			; fffffe94H
  01cc7	90 00 00 00	 DD	 144			; 00000090H
  01ccb	00 00 00 00	 DD	 $L195449
  01ccf	84 fe ff ff	 DD	 -380			; fffffe84H
  01cd3	08 00 00 00	 DD	 8
  01cd7	00 00 00 00	 DD	 $L195450
$L195450:
  01cdb	70		 DB	 112			; 00000070H
  01cdc	74		 DB	 116			; 00000074H
  01cdd	00		 DB	 0
$L195449:
  01cde	6f		 DB	 111			; 0000006fH
  01cdf	67		 DB	 103			; 00000067H
  01ce0	00		 DB	 0
$L195448:
  01ce1	69		 DB	 105			; 00000069H
  01ce2	69		 DB	 105			; 00000069H
  01ce3	00		 DB	 0
$L195447:
  01ce4	69		 DB	 105			; 00000069H
  01ce5	6e		 DB	 110			; 0000006eH
  01ce6	66		 DB	 102			; 00000066H
  01ce7	6f		 DB	 111			; 0000006fH
  01ce8	00		 DB	 0
$L195446:
  01ce9	72		 DB	 114			; 00000072H
  01cea	63		 DB	 99			; 00000063H
  01ceb	49		 DB	 73			; 00000049H
  01cec	6d		 DB	 109			; 0000006dH
  01ced	67		 DB	 103			; 00000067H
  01cee	00		 DB	 0
$L195445:
  01cef	72		 DB	 114			; 00000072H
  01cf0	63		 DB	 99			; 00000063H
  01cf1	00		 DB	 0
$L195444:
  01cf2	67		 DB	 103			; 00000067H
  01cf3	63		 DB	 99			; 00000063H
  01cf4	00		 DB	 0
$L195443:
  01cf5	69		 DB	 105			; 00000069H
  01cf6	49		 DB	 73			; 00000049H
  01cf7	74		 DB	 116			; 00000074H
  01cf8	65		 DB	 101			; 00000065H
  01cf9	6d		 DB	 109			; 0000006dH
  01cfa	00		 DB	 0
$L195442:
  01cfb	74		 DB	 116			; 00000074H
  01cfc	6d		 DB	 109			; 0000006dH
  01cfd	65		 DB	 101			; 00000065H
  01cfe	00		 DB	 0
_TEXT	ENDS
text$x	SEGMENT
$L195434:
  00303	8d 4d b8	 lea	 ecx, DWORD PTR _gc$192887[ebp]
  00306	e9 00 00 00 00	 jmp	 ??1Graphics@Gdiplus@@QAE@XZ ; Gdiplus::Graphics::~Graphics
$L195435:
  0030b	8b f4		 mov	 esi, esp
  0030d	8d 8d 78 ff ff
	ff		 lea	 ecx, DWORD PTR _info$192899[ebp]
  00313	ff 15 00 00 00
	00		 call	 DWORD PTR __imp_??1?$CStringT@DV?$StrTraitMFC_DLL@DV?$ChTraitsCRT@D@ATL@@@@@ATL@@QAE@XZ
  00319	3b f4		 cmp	 esi, esp
  0031b	e9 00 00 00 00	 jmp	 __RTC_CheckEsp
$L195436:
  00320	8d 8d 2c ff ff
	ff		 lea	 ecx, DWORD PTR _ii$192900[ebp]
  00326	e9 00 00 00 00	 jmp	 ??1_tagLMCItemInfo@@QAE@XZ
$L195437:
  0032b	8d 8d 94 fe ff
	ff		 lea	 ecx, DWORD PTR _og$192901[ebp]
  00331	e9 00 00 00 00	 jmp	 ??1OneLocalGame@@QAE@XZ
$L195438:
  00336	8b f4		 mov	 esi, esp
  00338	8b 8d 6c fe ff
	ff		 mov	 ecx, DWORD PTR $T195430[ebp]
  0033e	ff 15 00 00 00
	00		 call	 DWORD PTR __imp_??1?$basic_string@DU?$char_traits@D@std@@V?$allocator@D@2@@std@@QAE@XZ
  00344	3b f4		 cmp	 esi, esp
  00346	e9 00 00 00 00	 jmp	 __RTC_CheckEsp
__ehhandler$?OnMouseMove@PlayedGameWnd@@IAEXIVCPoint@@@Z:
  0034b	b8 00 00 00 00	 mov	 eax, OFFSET FLAT:$T195441
  00350	e9 00 00 00 00	 jmp	 ___CxxFrameHandler
text$x	ENDS
?OnMouseMove@PlayedGameWnd@@IAEXIVCPoint@@@Z ENDP	; PlayedGameWnd::OnMouseMove
PUBLIC	?clear@OneLocalGame@@QAEXXZ			; OneLocalGame::clear
;	COMDAT xdata$x
; File d:\boxgit\playbox\playbox\dev\prj\playbox\src\datainterface\ilocalgamedata.h
xdata$x	SEGMENT
$T195465 DD	0ffffffffH
	DD	FLAT:$L195457
	DD	00H
	DD	FLAT:$L195458
	DD	01H
	DD	FLAT:$L195459
	DD	02H
	DD	FLAT:$L195460
	DD	03H
	DD	FLAT:$L195461
$T195463 DD	019930520H
	DD	05H
	DD	FLAT:$T195465
	DD	2 DUP(00H)
	DD	2 DUP(00H)
; Function compile flags: /Odt /RTCsu
xdata$x	ENDS
;	COMDAT ??0OneLocalGame@@QAE@XZ
_TEXT	SEGMENT
_this$ = -16						; size = 4
__$EHRec$ = -12						; size = 12
??0OneLocalGame@@QAE@XZ PROC NEAR			; OneLocalGame::OneLocalGame, COMDAT
; _this$ = ecx

; 20   : 	OneLocalGame()

  00000	55		 push	 ebp
  00001	8b ec		 mov	 ebp, esp
  00003	6a ff		 push	 -1
  00005	68 00 00 00 00	 push	 __ehhandler$??0OneLocalGame@@QAE@XZ
  0000a	64 a1 00 00 00
	00		 mov	 eax, DWORD PTR fs:__except_list
  00010	50		 push	 eax
  00011	64 89 25 00 00
	00 00		 mov	 DWORD PTR fs:__except_list, esp
  00018	51		 push	 ecx
  00019	56		 push	 esi
  0001a	c7 45 f0 cc cc
	cc cc		 mov	 DWORD PTR [ebp-16], -858993460 ; ccccccccH
  00021	89 4d f0	 mov	 DWORD PTR _this$[ebp], ecx
  00024	8b f4		 mov	 esi, esp
  00026	8b 4d f0	 mov	 ecx, DWORD PTR _this$[ebp]
  00029	ff 15 00 00 00
	00		 call	 DWORD PTR __imp_??0?$basic_string@DU?$char_traits@D@std@@V?$allocator@D@2@@std@@QAE@XZ
  0002f	3b f4		 cmp	 esi, esp
  00031	e8 00 00 00 00	 call	 __RTC_CheckEsp
  00036	c7 45 fc 00 00
	00 00		 mov	 DWORD PTR __$EHRec$[ebp+8], 0
  0003d	8b 4d f0	 mov	 ecx, DWORD PTR _this$[ebp]
  00040	83 c1 1c	 add	 ecx, 28			; 0000001cH
  00043	8b f4		 mov	 esi, esp
  00045	ff 15 00 00 00
	00		 call	 DWORD PTR __imp_??0?$basic_string@DU?$char_traits@D@std@@V?$allocator@D@2@@std@@QAE@XZ
  0004b	3b f4		 cmp	 esi, esp
  0004d	e8 00 00 00 00	 call	 __RTC_CheckEsp
  00052	c6 45 fc 01	 mov	 BYTE PTR __$EHRec$[ebp+8], 1
  00056	8b 4d f0	 mov	 ecx, DWORD PTR _this$[ebp]
  00059	83 c1 38	 add	 ecx, 56			; 00000038H
  0005c	8b f4		 mov	 esi, esp
  0005e	ff 15 00 00 00
	00		 call	 DWORD PTR __imp_??0?$basic_string@DU?$char_traits@D@std@@V?$allocator@D@2@@std@@QAE@XZ
  00064	3b f4		 cmp	 esi, esp
  00066	e8 00 00 00 00	 call	 __RTC_CheckEsp
  0006b	c6 45 fc 02	 mov	 BYTE PTR __$EHRec$[ebp+8], 2
  0006f	8b 4d f0	 mov	 ecx, DWORD PTR _this$[ebp]
  00072	83 c1 54	 add	 ecx, 84			; 00000054H
  00075	8b f4		 mov	 esi, esp
  00077	ff 15 00 00 00
	00		 call	 DWORD PTR __imp_??0?$basic_string@DU?$char_traits@D@std@@V?$allocator@D@2@@std@@QAE@XZ
  0007d	3b f4		 cmp	 esi, esp
  0007f	e8 00 00 00 00	 call	 __RTC_CheckEsp
  00084	c6 45 fc 03	 mov	 BYTE PTR __$EHRec$[ebp+8], 3
  00088	8b 4d f0	 mov	 ecx, DWORD PTR _this$[ebp]
  0008b	83 c1 70	 add	 ecx, 112		; 00000070H
  0008e	8b f4		 mov	 esi, esp
  00090	ff 15 00 00 00
	00		 call	 DWORD PTR __imp_??0?$basic_string@DU?$char_traits@D@std@@V?$allocator@D@2@@std@@QAE@XZ
  00096	3b f4		 cmp	 esi, esp
  00098	e8 00 00 00 00	 call	 __RTC_CheckEsp
  0009d	c6 45 fc 04	 mov	 BYTE PTR __$EHRec$[ebp+8], 4

; 21   : 	{
; 22   : 		clear();

  000a1	8b 4d f0	 mov	 ecx, DWORD PTR _this$[ebp]
  000a4	e8 00 00 00 00	 call	 ?clear@OneLocalGame@@QAEXXZ ; OneLocalGame::clear

; 23   : 	}

  000a9	c7 45 fc ff ff
	ff ff		 mov	 DWORD PTR __$EHRec$[ebp+8], -1
  000b0	8b 45 f0	 mov	 eax, DWORD PTR _this$[ebp]
  000b3	8b 4d f4	 mov	 ecx, DWORD PTR __$EHRec$[ebp]
  000b6	64 89 0d 00 00
	00 00		 mov	 DWORD PTR fs:__except_list, ecx
  000bd	5e		 pop	 esi
  000be	83 c4 10	 add	 esp, 16			; 00000010H
  000c1	3b ec		 cmp	 ebp, esp
  000c3	e8 00 00 00 00	 call	 __RTC_CheckEsp
  000c8	8b e5		 mov	 esp, ebp
  000ca	5d		 pop	 ebp
  000cb	c3		 ret	 0
_TEXT	ENDS
;	COMDAT text$x
text$x	SEGMENT
$L195457:
  00000	8b f4		 mov	 esi, esp
  00002	8b 4d f0	 mov	 ecx, DWORD PTR _this$[ebp]
  00005	ff 15 00 00 00
	00		 call	 DWORD PTR __imp_??1?$basic_string@DU?$char_traits@D@std@@V?$allocator@D@2@@std@@QAE@XZ
  0000b	3b f4		 cmp	 esi, esp
  0000d	e9 00 00 00 00	 jmp	 __RTC_CheckEsp
$L195458:
  00012	8b 4d f0	 mov	 ecx, DWORD PTR _this$[ebp]
  00015	83 c1 1c	 add	 ecx, 28			; 0000001cH
  00018	8b f4		 mov	 esi, esp
  0001a	ff 15 00 00 00
	00		 call	 DWORD PTR __imp_??1?$basic_string@DU?$char_traits@D@std@@V?$allocator@D@2@@std@@QAE@XZ
  00020	3b f4		 cmp	 esi, esp
  00022	e9 00 00 00 00	 jmp	 __RTC_CheckEsp
$L195459:
  00027	8b 4d f0	 mov	 ecx, DWORD PTR _this$[ebp]
  0002a	83 c1 38	 add	 ecx, 56			; 00000038H
  0002d	8b f4		 mov	 esi, esp
  0002f	ff 15 00 00 00
	00		 call	 DWORD PTR __imp_??1?$basic_string@DU?$char_traits@D@std@@V?$allocator@D@2@@std@@QAE@XZ
  00035	3b f4		 cmp	 esi, esp
  00037	e9 00 00 00 00	 jmp	 __RTC_CheckEsp
$L195460:
  0003c	8b 4d f0	 mov	 ecx, DWORD PTR _this$[ebp]
  0003f	83 c1 54	 add	 ecx, 84			; 00000054H
  00042	8b f4		 mov	 esi, esp
  00044	ff 15 00 00 00
	00		 call	 DWORD PTR __imp_??1?$basic_string@DU?$char_traits@D@std@@V?$allocator@D@2@@std@@QAE@XZ
  0004a	3b f4		 cmp	 esi, esp
  0004c	e9 00 00 00 00	 jmp	 __RTC_CheckEsp
$L195461:
  00051	8b 4d f0	 mov	 ecx, DWORD PTR _this$[ebp]
  00054	83 c1 70	 add	 ecx, 112		; 00000070H
  00057	8b f4		 mov	 esi, esp
  00059	ff 15 00 00 00
	00		 call	 DWORD PTR __imp_??1?$basic_string@DU?$char_traits@D@std@@V?$allocator@D@2@@std@@QAE@XZ
  0005f	3b f4		 cmp	 esi, esp
  00061	e9 00 00 00 00	 jmp	 __RTC_CheckEsp
__ehhandler$??0OneLocalGame@@QAE@XZ:
  00066	b8 00 00 00 00	 mov	 eax, OFFSET FLAT:$T195463
  0006b	e9 00 00 00 00	 jmp	 ___CxxFrameHandler
text$x	ENDS
??0OneLocalGame@@QAE@XZ ENDP				; OneLocalGame::OneLocalGame
EXTRN	__imp_?clear@?$basic_string@DU?$char_traits@D@std@@V?$allocator@D@2@@std@@QAEXXZ:NEAR
; Function compile flags: /Odt /RTCsu
;	COMDAT ?clear@OneLocalGame@@QAEXXZ
_TEXT	SEGMENT
_this$ = -4						; size = 4
?clear@OneLocalGame@@QAEXXZ PROC NEAR			; OneLocalGame::clear, COMDAT
; _this$ = ecx

; 25   : 	{

  00000	55		 push	 ebp
  00001	8b ec		 mov	 ebp, esp
  00003	51		 push	 ecx
  00004	56		 push	 esi
  00005	c7 45 fc cc cc
	cc cc		 mov	 DWORD PTR [ebp-4], -858993460 ; ccccccccH
  0000c	89 4d fc	 mov	 DWORD PTR _this$[ebp], ecx

; 26   : 		strID.clear();

  0000f	8b f4		 mov	 esi, esp
  00011	8b 4d fc	 mov	 ecx, DWORD PTR _this$[ebp]
  00014	ff 15 00 00 00
	00		 call	 DWORD PTR __imp_?clear@?$basic_string@DU?$char_traits@D@std@@V?$allocator@D@2@@std@@QAEXXZ
  0001a	3b f4		 cmp	 esi, esp
  0001c	e8 00 00 00 00	 call	 __RTC_CheckEsp

; 27   : 		strName.clear();

  00021	8b 4d fc	 mov	 ecx, DWORD PTR _this$[ebp]
  00024	83 c1 1c	 add	 ecx, 28			; 0000001cH
  00027	8b f4		 mov	 esi, esp
  00029	ff 15 00 00 00
	00		 call	 DWORD PTR __imp_?clear@?$basic_string@DU?$char_traits@D@std@@V?$allocator@D@2@@std@@QAEXXZ
  0002f	3b f4		 cmp	 esi, esp
  00031	e8 00 00 00 00	 call	 __RTC_CheckEsp

; 28   : 		strGamePath.clear();

  00036	8b 4d fc	 mov	 ecx, DWORD PTR _this$[ebp]
  00039	83 c1 38	 add	 ecx, 56			; 00000038H
  0003c	8b f4		 mov	 esi, esp
  0003e	ff 15 00 00 00
	00		 call	 DWORD PTR __imp_?clear@?$basic_string@DU?$char_traits@D@std@@V?$allocator@D@2@@std@@QAEXXZ
  00044	3b f4		 cmp	 esi, esp
  00046	e8 00 00 00 00	 call	 __RTC_CheckEsp

; 29   : 		strPicPath.clear();

  0004b	8b 4d fc	 mov	 ecx, DWORD PTR _this$[ebp]
  0004e	83 c1 54	 add	 ecx, 84			; 00000054H
  00051	8b f4		 mov	 esi, esp
  00053	ff 15 00 00 00
	00		 call	 DWORD PTR __imp_?clear@?$basic_string@DU?$char_traits@D@std@@V?$allocator@D@2@@std@@QAEXXZ
  00059	3b f4		 cmp	 esi, esp
  0005b	e8 00 00 00 00	 call	 __RTC_CheckEsp

; 30   : 		strIntro.clear();

  00060	8b 4d fc	 mov	 ecx, DWORD PTR _this$[ebp]
  00063	83 c1 70	 add	 ecx, 112		; 00000070H
  00066	8b f4		 mov	 esi, esp
  00068	ff 15 00 00 00
	00		 call	 DWORD PTR __imp_?clear@?$basic_string@DU?$char_traits@D@std@@V?$allocator@D@2@@std@@QAEXXZ
  0006e	3b f4		 cmp	 esi, esp
  00070	e8 00 00 00 00	 call	 __RTC_CheckEsp

; 31   : 		uiFileSize    = 0;

  00075	8b 45 fc	 mov	 eax, DWORD PTR _this$[ebp]
  00078	c7 80 8c 00 00
	00 00 00 00 00	 mov	 DWORD PTR [eax+140], 0

; 32   : 	}

  00082	5e		 pop	 esi
  00083	83 c4 04	 add	 esp, 4
  00086	3b ec		 cmp	 ebp, esp
  00088	e8 00 00 00 00	 call	 __RTC_CheckEsp
  0008d	8b e5		 mov	 esp, ebp
  0008f	5d		 pop	 ebp
  00090	c3		 ret	 0
?clear@OneLocalGame@@QAEXXZ ENDP			; OneLocalGame::clear
_TEXT	ENDS
;	COMDAT xdata$x
xdata$x	SEGMENT
$T195478 DD	0ffffffffH
	DD	FLAT:$L195470
	DD	00H
	DD	FLAT:$L195471
	DD	01H
	DD	FLAT:$L195472
	DD	02H
	DD	FLAT:$L195473
$T195476 DD	019930520H
	DD	04H
	DD	FLAT:$T195478
	DD	2 DUP(00H)
	DD	2 DUP(00H)
; Function compile flags: /Odt /RTCsu
xdata$x	ENDS
;	COMDAT ??1OneLocalGame@@QAE@XZ
_TEXT	SEGMENT
_this$ = -16						; size = 4
__$EHRec$ = -12						; size = 12
??1OneLocalGame@@QAE@XZ PROC NEAR			; OneLocalGame::~OneLocalGame, COMDAT
; _this$ = ecx
  00000	55		 push	 ebp
  00001	8b ec		 mov	 ebp, esp
  00003	6a ff		 push	 -1
  00005	68 00 00 00 00	 push	 __ehhandler$??1OneLocalGame@@QAE@XZ
  0000a	64 a1 00 00 00
	00		 mov	 eax, DWORD PTR fs:__except_list
  00010	50		 push	 eax
  00011	64 89 25 00 00
	00 00		 mov	 DWORD PTR fs:__except_list, esp
  00018	51		 push	 ecx
  00019	56		 push	 esi
  0001a	c7 45 f0 cc cc
	cc cc		 mov	 DWORD PTR [ebp-16], -858993460 ; ccccccccH
  00021	89 4d f0	 mov	 DWORD PTR _this$[ebp], ecx
  00024	c7 45 fc 03 00
	00 00		 mov	 DWORD PTR __$EHRec$[ebp+8], 3
  0002b	8b 4d f0	 mov	 ecx, DWORD PTR _this$[ebp]
  0002e	83 c1 70	 add	 ecx, 112		; 00000070H
  00031	8b f4		 mov	 esi, esp
  00033	ff 15 00 00 00
	00		 call	 DWORD PTR __imp_??1?$basic_string@DU?$char_traits@D@std@@V?$allocator@D@2@@std@@QAE@XZ
  00039	3b f4		 cmp	 esi, esp
  0003b	e8 00 00 00 00	 call	 __RTC_CheckEsp
  00040	c6 45 fc 02	 mov	 BYTE PTR __$EHRec$[ebp+8], 2
  00044	8b 4d f0	 mov	 ecx, DWORD PTR _this$[ebp]
  00047	83 c1 54	 add	 ecx, 84			; 00000054H
  0004a	8b f4		 mov	 esi, esp
  0004c	ff 15 00 00 00
	00		 call	 DWORD PTR __imp_??1?$basic_string@DU?$char_traits@D@std@@V?$allocator@D@2@@std@@QAE@XZ
  00052	3b f4		 cmp	 esi, esp
  00054	e8 00 00 00 00	 call	 __RTC_CheckEsp
  00059	c6 45 fc 01	 mov	 BYTE PTR __$EHRec$[ebp+8], 1
  0005d	8b 4d f0	 mov	 ecx, DWORD PTR _this$[ebp]
  00060	83 c1 38	 add	 ecx, 56			; 00000038H
  00063	8b f4		 mov	 esi, esp
  00065	ff 15 00 00 00
	00		 call	 DWORD PTR __imp_??1?$basic_string@DU?$char_traits@D@std@@V?$allocator@D@2@@std@@QAE@XZ
  0006b	3b f4		 cmp	 esi, esp
  0006d	e8 00 00 00 00	 call	 __RTC_CheckEsp
  00072	c6 45 fc 00	 mov	 BYTE PTR __$EHRec$[ebp+8], 0
  00076	8b 4d f0	 mov	 ecx, DWORD PTR _this$[ebp]
  00079	83 c1 1c	 add	 ecx, 28			; 0000001cH
  0007c	8b f4		 mov	 esi, esp
  0007e	ff 15 00 00 00
	00		 call	 DWORD PTR __imp_??1?$basic_string@DU?$char_traits@D@std@@V?$allocator@D@2@@std@@QAE@XZ
  00084	3b f4		 cmp	 esi, esp
  00086	e8 00 00 00 00	 call	 __RTC_CheckEsp
  0008b	c7 45 fc ff ff
	ff ff		 mov	 DWORD PTR __$EHRec$[ebp+8], -1
  00092	8b f4		 mov	 esi, esp
  00094	8b 4d f0	 mov	 ecx, DWORD PTR _this$[ebp]
  00097	ff 15 00 00 00
	00		 call	 DWORD PTR __imp_??1?$basic_string@DU?$char_traits@D@std@@V?$allocator@D@2@@std@@QAE@XZ
  0009d	3b f4		 cmp	 esi, esp
  0009f	e8 00 00 00 00	 call	 __RTC_CheckEsp
  000a4	8b 4d f4	 mov	 ecx, DWORD PTR __$EHRec$[ebp]
  000a7	64 89 0d 00 00
	00 00		 mov	 DWORD PTR fs:__except_list, ecx
  000ae	5e		 pop	 esi
  000af	83 c4 10	 add	 esp, 16			; 00000010H
  000b2	3b ec		 cmp	 ebp, esp
  000b4	e8 00 00 00 00	 call	 __RTC_CheckEsp
  000b9	8b e5		 mov	 esp, ebp
  000bb	5d		 pop	 ebp
  000bc	c3		 ret	 0
_TEXT	ENDS
;	COMDAT text$x
text$x	SEGMENT
$L195470:
  00000	8b f4		 mov	 esi, esp
  00002	8b 4d f0	 mov	 ecx, DWORD PTR _this$[ebp]
  00005	ff 15 00 00 00
	00		 call	 DWORD PTR __imp_??1?$basic_string@DU?$char_traits@D@std@@V?$allocator@D@2@@std@@QAE@XZ
  0000b	3b f4		 cmp	 esi, esp
  0000d	e9 00 00 00 00	 jmp	 __RTC_CheckEsp
$L195471:
  00012	8b 4d f0	 mov	 ecx, DWORD PTR _this$[ebp]
  00015	83 c1 1c	 add	 ecx, 28			; 0000001cH
  00018	8b f4		 mov	 esi, esp
  0001a	ff 15 00 00 00
	00		 call	 DWORD PTR __imp_??1?$basic_string@DU?$char_traits@D@std@@V?$allocator@D@2@@std@@QAE@XZ
  00020	3b f4		 cmp	 esi, esp
  00022	e9 00 00 00 00	 jmp	 __RTC_CheckEsp
$L195472:
  00027	8b 4d f0	 mov	 ecx, DWORD PTR _this$[ebp]
  0002a	83 c1 38	 add	 ecx, 56			; 00000038H
  0002d	8b f4		 mov	 esi, esp
  0002f	ff 15 00 00 00
	00		 call	 DWORD PTR __imp_??1?$basic_string@DU?$char_traits@D@std@@V?$allocator@D@2@@std@@QAE@XZ
  00035	3b f4		 cmp	 esi, esp
  00037	e9 00 00 00 00	 jmp	 __RTC_CheckEsp
$L195473:
  0003c	8b 4d f0	 mov	 ecx, DWORD PTR _this$[ebp]
  0003f	83 c1 54	 add	 ecx, 84			; 00000054H
  00042	8b f4		 mov	 esi, esp
  00044	ff 15 00 00 00
	00		 call	 DWORD PTR __imp_??1?$basic_string@DU?$char_traits@D@std@@V?$allocator@D@2@@std@@QAE@XZ
  0004a	3b f4		 cmp	 esi, esp
  0004c	e9 00 00 00 00	 jmp	 __RTC_CheckEsp
__ehhandler$??1OneLocalGame@@QAE@XZ:
  00051	b8 00 00 00 00	 mov	 eax, OFFSET FLAT:$T195476
  00056	e9 00 00 00 00	 jmp	 ___CxxFrameHandler
text$x	ENDS
??1OneLocalGame@@QAE@XZ ENDP				; OneLocalGame::~OneLocalGame
EXTRN	?OnLButtonDown@CLocalMusicCoverList@@QAEXIVCPoint@@@Z:NEAR ; CLocalMusicCoverList::OnLButtonDown
; Function compile flags: /Odt /RTCsu
; File d:\boxgit\playbox\playbox\dev\prj\playbox\src\module\playedgamepanel\playedgamewnd.cpp
_TEXT	SEGMENT
$T195482 = -52						; size = 8
_rc$192925 = -40					; size = 16
_blHittest$ = -20					; size = 4
_iItem$ = -12						; size = 4
_this$ = -4						; size = 4
_nFlags$ = 8						; size = 4
_point$ = 12						; size = 8
?OnLButtonDown@PlayedGameWnd@@IAEXIVCPoint@@@Z PROC NEAR ; PlayedGameWnd::OnLButtonDown
; _this$ = ecx

; 333  : {

  01d00	55		 push	 ebp
  01d01	8b ec		 mov	 ebp, esp
  01d03	83 ec 34	 sub	 esp, 52			; 00000034H
  01d06	57		 push	 edi
  01d07	51		 push	 ecx
  01d08	8d 7d cc	 lea	 edi, DWORD PTR [ebp-52]
  01d0b	b9 0d 00 00 00	 mov	 ecx, 13			; 0000000dH
  01d10	b8 cc cc cc cc	 mov	 eax, -858993460		; ccccccccH
  01d15	f3 ab		 rep stosd
  01d17	59		 pop	 ecx
  01d18	89 4d fc	 mov	 DWORD PTR _this$[ebp], ecx

; 334  : 	__super::OnLButtonDown(nFlags, point);

  01d1b	8b 45 10	 mov	 eax, DWORD PTR _point$[ebp+4]
  01d1e	50		 push	 eax
  01d1f	8b 4d 0c	 mov	 ecx, DWORD PTR _point$[ebp]
  01d22	51		 push	 ecx
  01d23	8b 55 08	 mov	 edx, DWORD PTR _nFlags$[ebp]
  01d26	52		 push	 edx
  01d27	8b 4d fc	 mov	 ecx, DWORD PTR _this$[ebp]
  01d2a	e8 00 00 00 00	 call	 ?OnLButtonDown@CLocalMusicCoverList@@QAEXIVCPoint@@@Z ; CLocalMusicCoverList::OnLButtonDown

; 335  : 	
; 336  : 	int iItem;
; 337  : 	BOOL blHittest = HitTest(iItem,point);

  01d2f	8b 45 10	 mov	 eax, DWORD PTR _point$[ebp+4]
  01d32	50		 push	 eax
  01d33	8b 4d 0c	 mov	 ecx, DWORD PTR _point$[ebp]
  01d36	51		 push	 ecx
  01d37	8d 55 f4	 lea	 edx, DWORD PTR _iItem$[ebp]
  01d3a	52		 push	 edx
  01d3b	8b 4d fc	 mov	 ecx, DWORD PTR _this$[ebp]
  01d3e	e8 00 00 00 00	 call	 ?HitTest@CLocalMusicCoverList@@IAEHAAHVCPoint@@@Z ; CLocalMusicCoverList::HitTest
  01d43	89 45 ec	 mov	 DWORD PTR _blHittest$[ebp], eax

; 338  : 	if (blHittest)

  01d46	83 7d ec 00	 cmp	 DWORD PTR _blHittest$[ebp], 0
  01d4a	0f 84 96 00 00
	00		 je	 $L192921

; 339  : 	{
; 340  : 		CRect rc=m_DataMgr.m_vItem[iItem].rc;

  01d50	8b 45 f4	 mov	 eax, DWORD PTR _iItem$[ebp]
  01d53	50		 push	 eax
  01d54	8b 4d fc	 mov	 ecx, DWORD PTR _this$[ebp]
  01d57	81 c1 6c 01 00
	00		 add	 ecx, 364		; 0000016cH
  01d5d	e8 00 00 00 00	 call	 ??A?$vector@U_tagLMCItemInfo@@V?$allocator@U_tagLMCItemInfo@@@std@@@std@@QAEAAU_tagLMCItemInfo@@I@Z ; std::vector<_tagLMCItemInfo,std::allocator<_tagLMCItemInfo> >::operator[]
  01d62	83 c0 34	 add	 eax, 52			; 00000034H
  01d65	8b 08		 mov	 ecx, DWORD PTR [eax]
  01d67	89 4d d8	 mov	 DWORD PTR _rc$192925[ebp], ecx
  01d6a	8b 50 04	 mov	 edx, DWORD PTR [eax+4]
  01d6d	89 55 dc	 mov	 DWORD PTR _rc$192925[ebp+4], edx
  01d70	8b 48 08	 mov	 ecx, DWORD PTR [eax+8]
  01d73	89 4d e0	 mov	 DWORD PTR _rc$192925[ebp+8], ecx
  01d76	8b 50 0c	 mov	 edx, DWORD PTR [eax+12]
  01d79	89 55 e4	 mov	 DWORD PTR _rc$192925[ebp+12], edx

; 341  : 		rc.SetRect(rc.right-32,rc.bottom-32,rc.right-7,rc.bottom-7);

  01d7c	8b 45 e4	 mov	 eax, DWORD PTR _rc$192925[ebp+12]
  01d7f	83 e8 07	 sub	 eax, 7
  01d82	50		 push	 eax
  01d83	8b 4d e0	 mov	 ecx, DWORD PTR _rc$192925[ebp+8]
  01d86	83 e9 07	 sub	 ecx, 7
  01d89	51		 push	 ecx
  01d8a	8b 55 e4	 mov	 edx, DWORD PTR _rc$192925[ebp+12]
  01d8d	83 ea 20	 sub	 edx, 32			; 00000020H
  01d90	52		 push	 edx
  01d91	8b 45 e0	 mov	 eax, DWORD PTR _rc$192925[ebp+8]
  01d94	83 e8 20	 sub	 eax, 32			; 00000020H
  01d97	50		 push	 eax
  01d98	8d 4d d8	 lea	 ecx, DWORD PTR _rc$192925[ebp]
  01d9b	e8 00 00 00 00	 call	 ?SetRect@CRect@@QAEXHHHH@Z ; CRect::SetRect

; 342  : 		if (rc.PtInRect(point))

  01da0	8b 4d 0c	 mov	 ecx, DWORD PTR _point$[ebp]
  01da3	89 4d cc	 mov	 DWORD PTR $T195482[ebp], ecx
  01da6	8b 55 10	 mov	 edx, DWORD PTR _point$[ebp+4]
  01da9	89 55 d0	 mov	 DWORD PTR $T195482[ebp+4], edx
  01dac	8b 45 d0	 mov	 eax, DWORD PTR $T195482[ebp+4]
  01daf	50		 push	 eax
  01db0	8b 4d cc	 mov	 ecx, DWORD PTR $T195482[ebp]
  01db3	51		 push	 ecx
  01db4	8d 4d d8	 lea	 ecx, DWORD PTR _rc$192925[ebp]
  01db7	e8 00 00 00 00	 call	 ?PtInRect@CRect@@QBEHUtagPOINT@@@Z ; CRect::PtInRect
  01dbc	85 c0		 test	 eax, eax
  01dbe	74 26		 je	 SHORT $L192921

; 343  : 		{
; 344  : 			DrawPlayBtn(rc,FALSE);

  01dc0	6a 00		 push	 0
  01dc2	83 ec 10	 sub	 esp, 16			; 00000010H
  01dc5	8b d4		 mov	 edx, esp
  01dc7	8b 45 d8	 mov	 eax, DWORD PTR _rc$192925[ebp]
  01dca	89 02		 mov	 DWORD PTR [edx], eax
  01dcc	8b 4d dc	 mov	 ecx, DWORD PTR _rc$192925[ebp+4]
  01dcf	89 4a 04	 mov	 DWORD PTR [edx+4], ecx
  01dd2	8b 45 e0	 mov	 eax, DWORD PTR _rc$192925[ebp+8]
  01dd5	89 42 08	 mov	 DWORD PTR [edx+8], eax
  01dd8	8b 4d e4	 mov	 ecx, DWORD PTR _rc$192925[ebp+12]
  01ddb	89 4a 0c	 mov	 DWORD PTR [edx+12], ecx
  01dde	8b 4d fc	 mov	 ecx, DWORD PTR _this$[ebp]
  01de1	e8 00 00 00 00	 call	 ?DrawPlayBtn@PlayedGameWnd@@IAEXVCRect@@H@Z ; PlayedGameWnd::DrawPlayBtn
$L192921:

; 345  : 			return ;
; 346  : 		}
; 347  : 	}
; 348  : }

  01de6	52		 push	 edx
  01de7	8b cd		 mov	 ecx, ebp
  01de9	50		 push	 eax
  01dea	8d 15 00 00 00
	00		 lea	 edx, DWORD PTR $L195486
  01df0	e8 00 00 00 00	 call	 @_RTC_CheckStackVars@8
  01df5	58		 pop	 eax
  01df6	5a		 pop	 edx
  01df7	5f		 pop	 edi
  01df8	83 c4 34	 add	 esp, 52			; 00000034H
  01dfb	3b ec		 cmp	 ebp, esp
  01dfd	e8 00 00 00 00	 call	 __RTC_CheckEsp
  01e02	8b e5		 mov	 esp, ebp
  01e04	5d		 pop	 ebp
  01e05	c2 0c 00	 ret	 12			; 0000000cH
$L195486:
  01e08	02 00 00 00	 DD	 2
  01e0c	00 00 00 00	 DD	 $L195485
$L195485:
  01e10	f4 ff ff ff	 DD	 -12			; fffffff4H
  01e14	04 00 00 00	 DD	 4
  01e18	00 00 00 00	 DD	 $L195483
  01e1c	d8 ff ff ff	 DD	 -40			; ffffffd8H
  01e20	10 00 00 00	 DD	 16			; 00000010H
  01e24	00 00 00 00	 DD	 $L195484
$L195484:
  01e28	72		 DB	 114			; 00000072H
  01e29	63		 DB	 99			; 00000063H
  01e2a	00		 DB	 0
$L195483:
  01e2b	69		 DB	 105			; 00000069H
  01e2c	49		 DB	 73			; 00000049H
  01e2d	74		 DB	 116			; 00000074H
  01e2e	65		 DB	 101			; 00000065H
  01e2f	6d		 DB	 109			; 0000006dH
  01e30	00		 DB	 0
?OnLButtonDown@PlayedGameWnd@@IAEXIVCPoint@@@Z ENDP	; PlayedGameWnd::OnLButtonDown
_TEXT	ENDS
EXTRN	?OnLButtonUp@CLocalMusicCoverList@@QAEXIVCPoint@@@Z:NEAR ; CLocalMusicCoverList::OnLButtonUp
; Function compile flags: /Odt /RTCsu
_TEXT	SEGMENT
$T195488 = -52						; size = 8
_rc$192936 = -40					; size = 16
_blHittest$ = -20					; size = 4
_iItem$ = -12						; size = 4
_this$ = -4						; size = 4
_nFlags$ = 8						; size = 4
_point$ = 12						; size = 8
?OnLButtonUp@PlayedGameWnd@@IAEXIVCPoint@@@Z PROC NEAR	; PlayedGameWnd::OnLButtonUp
; _this$ = ecx

; 351  : {

  01e40	55		 push	 ebp
  01e41	8b ec		 mov	 ebp, esp
  01e43	83 ec 34	 sub	 esp, 52			; 00000034H
  01e46	57		 push	 edi
  01e47	51		 push	 ecx
  01e48	8d 7d cc	 lea	 edi, DWORD PTR [ebp-52]
  01e4b	b9 0d 00 00 00	 mov	 ecx, 13			; 0000000dH
  01e50	b8 cc cc cc cc	 mov	 eax, -858993460		; ccccccccH
  01e55	f3 ab		 rep stosd
  01e57	59		 pop	 ecx
  01e58	89 4d fc	 mov	 DWORD PTR _this$[ebp], ecx

; 352  : 	int iItem;
; 353  : 	BOOL blHittest = HitTest(iItem,point);

  01e5b	8b 45 10	 mov	 eax, DWORD PTR _point$[ebp+4]
  01e5e	50		 push	 eax
  01e5f	8b 4d 0c	 mov	 ecx, DWORD PTR _point$[ebp]
  01e62	51		 push	 ecx
  01e63	8d 55 f4	 lea	 edx, DWORD PTR _iItem$[ebp]
  01e66	52		 push	 edx
  01e67	8b 4d fc	 mov	 ecx, DWORD PTR _this$[ebp]
  01e6a	e8 00 00 00 00	 call	 ?HitTest@CLocalMusicCoverList@@IAEHAAHVCPoint@@@Z ; CLocalMusicCoverList::HitTest
  01e6f	89 45 ec	 mov	 DWORD PTR _blHittest$[ebp], eax

; 354  : 	if (blHittest)

  01e72	83 7d ec 00	 cmp	 DWORD PTR _blHittest$[ebp], 0
  01e76	0f 84 98 00 00
	00		 je	 $L192935

; 355  : 	{
; 356  : 		CRect rc=m_DataMgr.m_vItem[iItem].rc;

  01e7c	8b 45 f4	 mov	 eax, DWORD PTR _iItem$[ebp]
  01e7f	50		 push	 eax
  01e80	8b 4d fc	 mov	 ecx, DWORD PTR _this$[ebp]
  01e83	81 c1 6c 01 00
	00		 add	 ecx, 364		; 0000016cH
  01e89	e8 00 00 00 00	 call	 ??A?$vector@U_tagLMCItemInfo@@V?$allocator@U_tagLMCItemInfo@@@std@@@std@@QAEAAU_tagLMCItemInfo@@I@Z ; std::vector<_tagLMCItemInfo,std::allocator<_tagLMCItemInfo> >::operator[]
  01e8e	83 c0 34	 add	 eax, 52			; 00000034H
  01e91	8b 08		 mov	 ecx, DWORD PTR [eax]
  01e93	89 4d d8	 mov	 DWORD PTR _rc$192936[ebp], ecx
  01e96	8b 50 04	 mov	 edx, DWORD PTR [eax+4]
  01e99	89 55 dc	 mov	 DWORD PTR _rc$192936[ebp+4], edx
  01e9c	8b 48 08	 mov	 ecx, DWORD PTR [eax+8]
  01e9f	89 4d e0	 mov	 DWORD PTR _rc$192936[ebp+8], ecx
  01ea2	8b 50 0c	 mov	 edx, DWORD PTR [eax+12]
  01ea5	89 55 e4	 mov	 DWORD PTR _rc$192936[ebp+12], edx

; 357  : 		rc.SetRect(rc.right-32,rc.bottom-32,rc.right-7,rc.bottom-7);

  01ea8	8b 45 e4	 mov	 eax, DWORD PTR _rc$192936[ebp+12]
  01eab	83 e8 07	 sub	 eax, 7
  01eae	50		 push	 eax
  01eaf	8b 4d e0	 mov	 ecx, DWORD PTR _rc$192936[ebp+8]
  01eb2	83 e9 07	 sub	 ecx, 7
  01eb5	51		 push	 ecx
  01eb6	8b 55 e4	 mov	 edx, DWORD PTR _rc$192936[ebp+12]
  01eb9	83 ea 20	 sub	 edx, 32			; 00000020H
  01ebc	52		 push	 edx
  01ebd	8b 45 e0	 mov	 eax, DWORD PTR _rc$192936[ebp+8]
  01ec0	83 e8 20	 sub	 eax, 32			; 00000020H
  01ec3	50		 push	 eax
  01ec4	8d 4d d8	 lea	 ecx, DWORD PTR _rc$192936[ebp]
  01ec7	e8 00 00 00 00	 call	 ?SetRect@CRect@@QAEXHHHH@Z ; CRect::SetRect

; 358  : 		if (rc.PtInRect(point))

  01ecc	8b 4d 0c	 mov	 ecx, DWORD PTR _point$[ebp]
  01ecf	89 4d cc	 mov	 DWORD PTR $T195488[ebp], ecx
  01ed2	8b 55 10	 mov	 edx, DWORD PTR _point$[ebp+4]
  01ed5	89 55 d0	 mov	 DWORD PTR $T195488[ebp+4], edx
  01ed8	8b 45 d0	 mov	 eax, DWORD PTR $T195488[ebp+4]
  01edb	50		 push	 eax
  01edc	8b 4d cc	 mov	 ecx, DWORD PTR $T195488[ebp]
  01edf	51		 push	 ecx
  01ee0	8d 4d d8	 lea	 ecx, DWORD PTR _rc$192936[ebp]
  01ee3	e8 00 00 00 00	 call	 ?PtInRect@CRect@@QBEHUtagPOINT@@@Z ; CRect::PtInRect
  01ee8	85 c0		 test	 eax, eax
  01eea	74 28		 je	 SHORT $L192935

; 359  : 		{
; 360  : 			//CString szArtist = m_DataMgr.m_vItem[iItem].strItemName;
; 361  : 			//vector<Song> vSong;
; 362  : 			//CPData::GetInstance()->GetSongByArtist(szArtist.GetBuffer(),vSong);
; 363  : 			//for (int i=0;i<vSong.size();i++)
; 364  : 			//	CLMCommon::PlayMusicUseMbox(vSong[i].strPath.c_str());
; 365  : 			DrawPlayBtn(rc,FALSE);

  01eec	6a 00		 push	 0
  01eee	83 ec 10	 sub	 esp, 16			; 00000010H
  01ef1	8b d4		 mov	 edx, esp
  01ef3	8b 45 d8	 mov	 eax, DWORD PTR _rc$192936[ebp]
  01ef6	89 02		 mov	 DWORD PTR [edx], eax
  01ef8	8b 4d dc	 mov	 ecx, DWORD PTR _rc$192936[ebp+4]
  01efb	89 4a 04	 mov	 DWORD PTR [edx+4], ecx
  01efe	8b 45 e0	 mov	 eax, DWORD PTR _rc$192936[ebp+8]
  01f01	89 42 08	 mov	 DWORD PTR [edx+8], eax
  01f04	8b 4d e4	 mov	 ecx, DWORD PTR _rc$192936[ebp+12]
  01f07	89 4a 0c	 mov	 DWORD PTR [edx+12], ecx
  01f0a	8b 4d fc	 mov	 ecx, DWORD PTR _this$[ebp]
  01f0d	e8 00 00 00 00	 call	 ?DrawPlayBtn@PlayedGameWnd@@IAEXVCRect@@H@Z ; PlayedGameWnd::DrawPlayBtn

; 366  : 			return ;

  01f12	eb 14		 jmp	 SHORT $L192932
$L192935:

; 367  : 		}
; 368  : 	}
; 369  : 	__super::OnLButtonUp(nFlags, point);

  01f14	8b 55 10	 mov	 edx, DWORD PTR _point$[ebp+4]
  01f17	52		 push	 edx
  01f18	8b 45 0c	 mov	 eax, DWORD PTR _point$[ebp]
  01f1b	50		 push	 eax
  01f1c	8b 4d 08	 mov	 ecx, DWORD PTR _nFlags$[ebp]
  01f1f	51		 push	 ecx
  01f20	8b 4d fc	 mov	 ecx, DWORD PTR _this$[ebp]
  01f23	e8 00 00 00 00	 call	 ?OnLButtonUp@CLocalMusicCoverList@@QAEXIVCPoint@@@Z ; CLocalMusicCoverList::OnLButtonUp
$L192932:

; 370  : }

  01f28	52		 push	 edx
  01f29	8b cd		 mov	 ecx, ebp
  01f2b	50		 push	 eax
  01f2c	8d 15 00 00 00
	00		 lea	 edx, DWORD PTR $L195492
  01f32	e8 00 00 00 00	 call	 @_RTC_CheckStackVars@8
  01f37	58		 pop	 eax
  01f38	5a		 pop	 edx
  01f39	5f		 pop	 edi
  01f3a	83 c4 34	 add	 esp, 52			; 00000034H
  01f3d	3b ec		 cmp	 ebp, esp
  01f3f	e8 00 00 00 00	 call	 __RTC_CheckEsp
  01f44	8b e5		 mov	 esp, ebp
  01f46	5d		 pop	 ebp
  01f47	c2 0c 00	 ret	 12			; 0000000cH
$L195492:
  01f4a	02 00 00 00	 DD	 2
  01f4e	00 00 00 00	 DD	 $L195491
$L195491:
  01f52	f4 ff ff ff	 DD	 -12			; fffffff4H
  01f56	04 00 00 00	 DD	 4
  01f5a	00 00 00 00	 DD	 $L195489
  01f5e	d8 ff ff ff	 DD	 -40			; ffffffd8H
  01f62	10 00 00 00	 DD	 16			; 00000010H
  01f66	00 00 00 00	 DD	 $L195490
$L195490:
  01f6a	72		 DB	 114			; 00000072H
  01f6b	63		 DB	 99			; 00000063H
  01f6c	00		 DB	 0
$L195489:
  01f6d	69		 DB	 105			; 00000069H
  01f6e	49		 DB	 73			; 00000049H
  01f6f	74		 DB	 116			; 00000074H
  01f70	65		 DB	 101			; 00000065H
  01f71	6d		 DB	 109			; 0000006dH
  01f72	00		 DB	 0
?OnLButtonUp@PlayedGameWnd@@IAEXIVCPoint@@@Z ENDP	; PlayedGameWnd::OnLButtonUp
_TEXT	ENDS
EXTRN	?OnDestroy@CLocalMusicCoverList@@QAEXXZ:NEAR	; CLocalMusicCoverList::OnDestroy
; Function compile flags: /Odt /RTCsu
_TEXT	SEGMENT
_this$ = -4						; size = 4
?OnDestroy@PlayedGameWnd@@QAEXXZ PROC NEAR		; PlayedGameWnd::OnDestroy
; _this$ = ecx

; 373  : {

  01f80	55		 push	 ebp
  01f81	8b ec		 mov	 ebp, esp
  01f83	51		 push	 ecx
  01f84	56		 push	 esi
  01f85	c7 45 fc cc cc
	cc cc		 mov	 DWORD PTR [ebp-4], -858993460 ; ccccccccH
  01f8c	89 4d fc	 mov	 DWORD PTR _this$[ebp], ecx

; 374  : 	m_tootip.DestroyWindow();

  01f8f	8b 4d fc	 mov	 ecx, DWORD PTR _this$[ebp]
  01f92	81 c1 88 01 00
	00		 add	 ecx, 392		; 00000188H
  01f98	8b 45 fc	 mov	 eax, DWORD PTR _this$[ebp]
  01f9b	8b 90 88 01 00
	00		 mov	 edx, DWORD PTR [eax+392]
  01fa1	8b f4		 mov	 esi, esp
  01fa3	ff 52 68	 call	 DWORD PTR [edx+104]
  01fa6	3b f4		 cmp	 esi, esp
  01fa8	e8 00 00 00 00	 call	 __RTC_CheckEsp

; 375  : 	CLocalMusicCoverList::OnDestroy();

  01fad	8b 4d fc	 mov	 ecx, DWORD PTR _this$[ebp]
  01fb0	e8 00 00 00 00	 call	 ?OnDestroy@CLocalMusicCoverList@@QAEXXZ ; CLocalMusicCoverList::OnDestroy

; 376  : }

  01fb5	5e		 pop	 esi
  01fb6	83 c4 04	 add	 esp, 4
  01fb9	3b ec		 cmp	 ebp, esp
  01fbb	e8 00 00 00 00	 call	 __RTC_CheckEsp
  01fc0	8b e5		 mov	 esp, ebp
  01fc2	5d		 pop	 ebp
  01fc3	c3		 ret	 0
?OnDestroy@PlayedGameWnd@@QAEXXZ ENDP			; PlayedGameWnd::OnDestroy
; Function compile flags: /Odt /RTCsu
_this$ = -4						; size = 4
_wp$ = 8						; size = 4
_lp$ = 12						; size = 4
?OnMouseLeave@PlayedGameWnd@@IAEJIJ@Z PROC NEAR		; PlayedGameWnd::OnMouseLeave
; _this$ = ecx

; 379  : {

  01fd0	55		 push	 ebp
  01fd1	8b ec		 mov	 ebp, esp
  01fd3	51		 push	 ecx
  01fd4	c7 45 fc cc cc
	cc cc		 mov	 DWORD PTR [ebp-4], -858993460 ; ccccccccH
  01fdb	89 4d fc	 mov	 DWORD PTR _this$[ebp], ecx

; 380  : 	m_bTrackMouse = FALSE;

  01fde	8b 45 fc	 mov	 eax, DWORD PTR _this$[ebp]
  01fe1	c6 80 18 02 00
	00 00		 mov	 BYTE PTR [eax+536], 0

; 381  : 	m_tootip.HideTooTips();

  01fe8	8b 4d fc	 mov	 ecx, DWORD PTR _this$[ebp]
  01feb	81 c1 88 01 00
	00		 add	 ecx, 392		; 00000188H
  01ff1	e8 00 00 00 00	 call	 ?HideTooTips@CCWToolTips@@QAEXXZ ; CCWToolTips::HideTooTips

; 382  : 	return 0;

  01ff6	33 c0		 xor	 eax, eax

; 383  : }

  01ff8	83 c4 04	 add	 esp, 4
  01ffb	3b ec		 cmp	 ebp, esp
  01ffd	e8 00 00 00 00	 call	 __RTC_CheckEsp
  02002	8b e5		 mov	 esp, ebp
  02004	5d		 pop	 ebp
  02005	c2 08 00	 ret	 8
?OnMouseLeave@PlayedGameWnd@@IAEJIJ@Z ENDP		; PlayedGameWnd::OnMouseLeave
_TEXT	ENDS
PUBLIC	?Recycle@PlayedGameWnd@@QAEXXZ			; PlayedGameWnd::Recycle
EXTRN	?ShowWindow@CWnd@@QAEHH@Z:NEAR			; CWnd::ShowWindow
; Function compile flags: /Odt /RTCsu
_TEXT	SEGMENT
_this$ = -4						; size = 4
?Recycle@PlayedGameWnd@@QAEXXZ PROC NEAR		; PlayedGameWnd::Recycle
; _this$ = ecx

; 386  : {

  02010	55		 push	 ebp
  02011	8b ec		 mov	 ebp, esp
  02013	51		 push	 ecx
  02014	c7 45 fc cc cc
	cc cc		 mov	 DWORD PTR [ebp-4], -858993460 ; ccccccccH
  0201b	89 4d fc	 mov	 DWORD PTR _this$[ebp], ecx

; 387  : 	ShowWindow( SW_HIDE ); //PlayedGameWndOnShowWindow

  0201e	6a 00		 push	 0
  02020	8b 4d fc	 mov	 ecx, DWORD PTR _this$[ebp]
  02023	e8 00 00 00 00	 call	 ?ShowWindow@CWnd@@QAEHH@Z ; CWnd::ShowWindow

; 388  : }

  02028	83 c4 04	 add	 esp, 4
  0202b	3b ec		 cmp	 ebp, esp
  0202d	e8 00 00 00 00	 call	 __RTC_CheckEsp
  02032	8b e5		 mov	 esp, ebp
  02034	5d		 pop	 ebp
  02035	c3		 ret	 0
?Recycle@PlayedGameWnd@@QAEXXZ ENDP			; PlayedGameWnd::Recycle
; Function compile flags: /Odt /RTCsu
_this$ = -4						; size = 4
_iNewCount$ = 8						; size = 4
?IQQItemChangeOb_CountChange@PlayedGameWnd@@UAEXI@Z PROC NEAR ; PlayedGameWnd::IQQItemChangeOb_CountChange
; _this$ = ecx

; 391  : {

  02040	55		 push	 ebp
  02041	8b ec		 mov	 ebp, esp
  02043	51		 push	 ecx
  02044	c7 45 fc cc cc
	cc cc		 mov	 DWORD PTR [ebp-4], -858993460 ; ccccccccH
  0204b	89 4d fc	 mov	 DWORD PTR _this$[ebp], ecx

; 392  : 	ReGetData();

  0204e	8b 4d fc	 mov	 ecx, DWORD PTR _this$[ebp]
  02051	81 e9 80 01 00
	00		 sub	 ecx, 384		; 00000180H
  02057	e8 00 00 00 00	 call	 ?ReGetData@PlayedGameWnd@@IAEHXZ ; PlayedGameWnd::ReGetData

; 393  : }

  0205c	83 c4 04	 add	 esp, 4
  0205f	3b ec		 cmp	 ebp, esp
  02061	e8 00 00 00 00	 call	 __RTC_CheckEsp
  02066	8b e5		 mov	 esp, ebp
  02068	5d		 pop	 ebp
  02069	c2 04 00	 ret	 4
?IQQItemChangeOb_CountChange@PlayedGameWnd@@UAEXI@Z ENDP ; PlayedGameWnd::IQQItemChangeOb_CountChange
_TEXT	ENDS
EXTRN	?OnMouseWheel@CLocalMusicCoverList@@QAEHIFVCPoint@@@Z:NEAR ; CLocalMusicCoverList::OnMouseWheel
; Function compile flags: /Odt /RTCsu
_TEXT	SEGMENT
_this$ = -4						; size = 4
_nFlags$ = 8						; size = 4
_zDelta$ = 12						; size = 2
_pt$ = 16						; size = 8
?OnMouseWheel@PlayedGameWnd@@QAEHIFVCPoint@@@Z PROC NEAR ; PlayedGameWnd::OnMouseWheel
; _this$ = ecx

; 396  : {

  02070	55		 push	 ebp
  02071	8b ec		 mov	 ebp, esp
  02073	51		 push	 ecx
  02074	c7 45 fc cc cc
	cc cc		 mov	 DWORD PTR [ebp-4], -858993460 ; ccccccccH
  0207b	89 4d fc	 mov	 DWORD PTR _this$[ebp], ecx

; 397  : 	m_tootip.HideTooTips();

  0207e	8b 4d fc	 mov	 ecx, DWORD PTR _this$[ebp]
  02081	81 c1 88 01 00
	00		 add	 ecx, 392		; 00000188H
  02087	e8 00 00 00 00	 call	 ?HideTooTips@CCWToolTips@@QAEXXZ ; CCWToolTips::HideTooTips

; 398  : 	return __super::OnMouseWheel(nFlags, zDelta, pt);

  0208c	8b 45 14	 mov	 eax, DWORD PTR _pt$[ebp+4]
  0208f	50		 push	 eax
  02090	8b 4d 10	 mov	 ecx, DWORD PTR _pt$[ebp]
  02093	51		 push	 ecx
  02094	66 8b 55 0c	 mov	 dx, WORD PTR _zDelta$[ebp]
  02098	52		 push	 edx
  02099	8b 45 08	 mov	 eax, DWORD PTR _nFlags$[ebp]
  0209c	50		 push	 eax
  0209d	8b 4d fc	 mov	 ecx, DWORD PTR _this$[ebp]
  020a0	e8 00 00 00 00	 call	 ?OnMouseWheel@CLocalMusicCoverList@@QAEHIFVCPoint@@@Z ; CLocalMusicCoverList::OnMouseWheel

; 399  : }

  020a5	83 c4 04	 add	 esp, 4
  020a8	3b ec		 cmp	 ebp, esp
  020aa	e8 00 00 00 00	 call	 __RTC_CheckEsp
  020af	8b e5		 mov	 esp, ebp
  020b1	5d		 pop	 ebp
  020b2	c2 10 00	 ret	 16			; 00000010H
?OnMouseWheel@PlayedGameWnd@@QAEHIFVCPoint@@@Z ENDP	; PlayedGameWnd::OnMouseWheel
_TEXT	ENDS
PUBLIC	?begin@?$vector@U_tagLMCItemInfo@@V?$allocator@U_tagLMCItemInfo@@@std@@@std@@QAE?AViterator@12@XZ ; std::vector<_tagLMCItemInfo,std::allocator<_tagLMCItemInfo> >::begin
PUBLIC	??Diterator@?$vector@U_tagLMCItemInfo@@V?$allocator@U_tagLMCItemInfo@@@std@@@std@@QBEAAU_tagLMCItemInfo@@XZ ; std::vector<_tagLMCItemInfo,std::allocator<_tagLMCItemInfo> >::iterator::operator*
PUBLIC	??Hiterator@?$vector@U_tagLMCItemInfo@@V?$allocator@U_tagLMCItemInfo@@@std@@@std@@QBE?AV012@H@Z ; std::vector<_tagLMCItemInfo,std::allocator<_tagLMCItemInfo> >::iterator::operator+
; Function compile flags: /Odt /RTCsu
; File d:\program files (x86)\microsoft visual studio .net 2003\vc7\include\vector
;	COMDAT ??A?$vector@U_tagLMCItemInfo@@V?$allocator@U_tagLMCItemInfo@@@std@@@std@@QAEAAU_tagLMCItemInfo@@I@Z
_TEXT	SEGMENT
$T195500 = -12						; size = 4
$T195499 = -8						; size = 4
_this$ = -4						; size = 4
__Pos$ = 8						; size = 4
??A?$vector@U_tagLMCItemInfo@@V?$allocator@U_tagLMCItemInfo@@@std@@@std@@QAEAAU_tagLMCItemInfo@@I@Z PROC NEAR ; std::vector<_tagLMCItemInfo,std::allocator<_tagLMCItemInfo> >::operator[], COMDAT
; _this$ = ecx

; 554  : 		{	// subscript mutable sequence

  00000	55		 push	 ebp
  00001	8b ec		 mov	 ebp, esp
  00003	83 ec 0c	 sub	 esp, 12			; 0000000cH
  00006	c7 45 f4 cc cc
	cc cc		 mov	 DWORD PTR [ebp-12], -858993460 ; ccccccccH
  0000d	c7 45 f8 cc cc
	cc cc		 mov	 DWORD PTR [ebp-8], -858993460 ; ccccccccH
  00014	c7 45 fc cc cc
	cc cc		 mov	 DWORD PTR [ebp-4], -858993460 ; ccccccccH
  0001b	89 4d fc	 mov	 DWORD PTR _this$[ebp], ecx

; 555  : 		return (*(begin() + _Pos));

  0001e	8b 45 08	 mov	 eax, DWORD PTR __Pos$[ebp]
  00021	50		 push	 eax
  00022	8d 4d f4	 lea	 ecx, DWORD PTR $T195500[ebp]
  00025	51		 push	 ecx
  00026	8d 55 f8	 lea	 edx, DWORD PTR $T195499[ebp]
  00029	52		 push	 edx
  0002a	8b 4d fc	 mov	 ecx, DWORD PTR _this$[ebp]
  0002d	e8 00 00 00 00	 call	 ?begin@?$vector@U_tagLMCItemInfo@@V?$allocator@U_tagLMCItemInfo@@@std@@@std@@QAE?AViterator@12@XZ ; std::vector<_tagLMCItemInfo,std::allocator<_tagLMCItemInfo> >::begin
  00032	8b c8		 mov	 ecx, eax
  00034	e8 00 00 00 00	 call	 ??Hiterator@?$vector@U_tagLMCItemInfo@@V?$allocator@U_tagLMCItemInfo@@@std@@@std@@QBE?AV012@H@Z ; std::vector<_tagLMCItemInfo,std::allocator<_tagLMCItemInfo> >::iterator::operator+
  00039	8b c8		 mov	 ecx, eax
  0003b	e8 00 00 00 00	 call	 ??Diterator@?$vector@U_tagLMCItemInfo@@V?$allocator@U_tagLMCItemInfo@@@std@@@std@@QBEAAU_tagLMCItemInfo@@XZ ; std::vector<_tagLMCItemInfo,std::allocator<_tagLMCItemInfo> >::iterator::operator*

; 556  : 		}

  00040	83 c4 0c	 add	 esp, 12			; 0000000cH
  00043	3b ec		 cmp	 ebp, esp
  00045	e8 00 00 00 00	 call	 __RTC_CheckEsp
  0004a	8b e5		 mov	 esp, ebp
  0004c	5d		 pop	 ebp
  0004d	c2 04 00	 ret	 4
??A?$vector@U_tagLMCItemInfo@@V?$allocator@U_tagLMCItemInfo@@@std@@@std@@QAEAAU_tagLMCItemInfo@@I@Z ENDP ; std::vector<_tagLMCItemInfo,std::allocator<_tagLMCItemInfo> >::operator[]
_TEXT	ENDS
PUBLIC	??0?$_Vector_val@UOneLocalGame@@V?$allocator@UOneLocalGame@@@std@@@std@@IAE@V?$allocator@UOneLocalGame@@@1@@Z ; std::_Vector_val<OneLocalGame,std::allocator<OneLocalGame> >::_Vector_val<OneLocalGame,std::allocator<OneLocalGame> >
PUBLIC	??0?$allocator@UOneLocalGame@@@std@@QAE@XZ	; std::allocator<OneLocalGame>::allocator<OneLocalGame>
PUBLIC	?_Buy@?$vector@UOneLocalGame@@V?$allocator@UOneLocalGame@@@std@@@std@@IAE_NI@Z ; std::vector<OneLocalGame,std::allocator<OneLocalGame> >::_Buy
; Function compile flags: /Odt /RTCsu
;	COMDAT ??0?$vector@UOneLocalGame@@V?$allocator@UOneLocalGame@@@std@@@std@@QAE@XZ
_TEXT	SEGMENT
_this$ = -4						; size = 4
??0?$vector@UOneLocalGame@@V?$allocator@UOneLocalGame@@@std@@@std@@QAE@XZ PROC NEAR ; std::vector<OneLocalGame,std::allocator<OneLocalGame> >::vector<OneLocalGame,std::allocator<OneLocalGame> >, COMDAT
; _this$ = ecx

; 299  : 		{	// construct empty vector

  00000	55		 push	 ebp
  00001	8b ec		 mov	 ebp, esp
  00003	83 ec 08	 sub	 esp, 8
  00006	c7 45 f8 cc cc
	cc cc		 mov	 DWORD PTR [ebp-8], -858993460 ; ccccccccH
  0000d	c7 45 fc cc cc
	cc cc		 mov	 DWORD PTR [ebp-4], -858993460 ; ccccccccH
  00014	89 4d fc	 mov	 DWORD PTR _this$[ebp], ecx
  00017	51		 push	 ecx
  00018	8b cc		 mov	 ecx, esp
  0001a	e8 00 00 00 00	 call	 ??0?$allocator@UOneLocalGame@@@std@@QAE@XZ ; std::allocator<OneLocalGame>::allocator<OneLocalGame>
  0001f	8b 4d fc	 mov	 ecx, DWORD PTR _this$[ebp]
  00022	e8 00 00 00 00	 call	 ??0?$_Vector_val@UOneLocalGame@@V?$allocator@UOneLocalGame@@@std@@@std@@IAE@V?$allocator@UOneLocalGame@@@1@@Z ; std::_Vector_val<OneLocalGame,std::allocator<OneLocalGame> >::_Vector_val<OneLocalGame,std::allocator<OneLocalGame> >

; 300  : 		_Buy(0);

  00027	6a 00		 push	 0
  00029	8b 4d fc	 mov	 ecx, DWORD PTR _this$[ebp]
  0002c	e8 00 00 00 00	 call	 ?_Buy@?$vector@UOneLocalGame@@V?$allocator@UOneLocalGame@@@std@@@std@@IAE_NI@Z ; std::vector<OneLocalGame,std::allocator<OneLocalGame> >::_Buy

; 301  : 		}

  00031	8b 45 fc	 mov	 eax, DWORD PTR _this$[ebp]
  00034	83 c4 08	 add	 esp, 8
  00037	3b ec		 cmp	 ebp, esp
  00039	e8 00 00 00 00	 call	 __RTC_CheckEsp
  0003e	8b e5		 mov	 esp, ebp
  00040	5d		 pop	 ebp
  00041	c3		 ret	 0
??0?$vector@UOneLocalGame@@V?$allocator@UOneLocalGame@@@std@@@std@@QAE@XZ ENDP ; std::vector<OneLocalGame,std::allocator<OneLocalGame> >::vector<OneLocalGame,std::allocator<OneLocalGame> >
_TEXT	ENDS
PUBLIC	?_Tidy@?$vector@UOneLocalGame@@V?$allocator@UOneLocalGame@@@std@@@std@@IAEXXZ ; std::vector<OneLocalGame,std::allocator<OneLocalGame> >::_Tidy
; Function compile flags: /Odt /RTCsu
;	COMDAT ??1?$vector@UOneLocalGame@@V?$allocator@UOneLocalGame@@@std@@@std@@QAE@XZ
_TEXT	SEGMENT
_this$ = -4						; size = 4
??1?$vector@UOneLocalGame@@V?$allocator@UOneLocalGame@@@std@@@std@@QAE@XZ PROC NEAR ; std::vector<OneLocalGame,std::allocator<OneLocalGame> >::~vector<OneLocalGame,std::allocator<OneLocalGame> >, COMDAT
; _this$ = ecx

; 387  : 		{	// destroy the object

  00000	55		 push	 ebp
  00001	8b ec		 mov	 ebp, esp
  00003	51		 push	 ecx
  00004	c7 45 fc cc cc
	cc cc		 mov	 DWORD PTR [ebp-4], -858993460 ; ccccccccH
  0000b	89 4d fc	 mov	 DWORD PTR _this$[ebp], ecx

; 388  : 		_Tidy();

  0000e	8b 4d fc	 mov	 ecx, DWORD PTR _this$[ebp]
  00011	e8 00 00 00 00	 call	 ?_Tidy@?$vector@UOneLocalGame@@V?$allocator@UOneLocalGame@@@std@@@std@@IAEXXZ ; std::vector<OneLocalGame,std::allocator<OneLocalGame> >::_Tidy

; 389  : 		}

  00016	83 c4 04	 add	 esp, 4
  00019	3b ec		 cmp	 ebp, esp
  0001b	e8 00 00 00 00	 call	 __RTC_CheckEsp
  00020	8b e5		 mov	 esp, ebp
  00022	5d		 pop	 ebp
  00023	c3		 ret	 0
??1?$vector@UOneLocalGame@@V?$allocator@UOneLocalGame@@@std@@@std@@QAE@XZ ENDP ; std::vector<OneLocalGame,std::allocator<OneLocalGame> >::~vector<OneLocalGame,std::allocator<OneLocalGame> >
_TEXT	ENDS
PUBLIC	??0iterator@?$vector@UOneLocalGame@@V?$allocator@UOneLocalGame@@@std@@@std@@QAE@PAUOneLocalGame@@@Z ; std::vector<OneLocalGame,std::allocator<OneLocalGame> >::iterator::iterator
; Function compile flags: /Odt /RTCsu
;	COMDAT ?begin@?$vector@UOneLocalGame@@V?$allocator@UOneLocalGame@@@std@@@std@@QAE?AViterator@12@XZ
_TEXT	SEGMENT
_this$ = -4						; size = 4
___$ReturnUdt$ = 8					; size = 4
?begin@?$vector@UOneLocalGame@@V?$allocator@UOneLocalGame@@@std@@@std@@QAE?AViterator@12@XZ PROC NEAR ; std::vector<OneLocalGame,std::allocator<OneLocalGame> >::begin, COMDAT
; _this$ = ecx

; 462  : 		{	// return iterator for beginning of mutable sequence

  00000	55		 push	 ebp
  00001	8b ec		 mov	 ebp, esp
  00003	51		 push	 ecx
  00004	c7 45 fc cc cc
	cc cc		 mov	 DWORD PTR [ebp-4], -858993460 ; ccccccccH
  0000b	89 4d fc	 mov	 DWORD PTR _this$[ebp], ecx

; 463  : 		return (iterator(_Myfirst));

  0000e	8b 45 fc	 mov	 eax, DWORD PTR _this$[ebp]
  00011	8b 48 04	 mov	 ecx, DWORD PTR [eax+4]
  00014	51		 push	 ecx
  00015	8b 4d 08	 mov	 ecx, DWORD PTR ___$ReturnUdt$[ebp]
  00018	e8 00 00 00 00	 call	 ??0iterator@?$vector@UOneLocalGame@@V?$allocator@UOneLocalGame@@@std@@@std@@QAE@PAUOneLocalGame@@@Z ; std::vector<OneLocalGame,std::allocator<OneLocalGame> >::iterator::iterator
  0001d	8b 45 08	 mov	 eax, DWORD PTR ___$ReturnUdt$[ebp]

; 464  : 		}

  00020	83 c4 04	 add	 esp, 4
  00023	3b ec		 cmp	 ebp, esp
  00025	e8 00 00 00 00	 call	 __RTC_CheckEsp
  0002a	8b e5		 mov	 esp, ebp
  0002c	5d		 pop	 ebp
  0002d	c2 04 00	 ret	 4
?begin@?$vector@UOneLocalGame@@V?$allocator@UOneLocalGame@@@std@@@std@@QAE?AViterator@12@XZ ENDP ; std::vector<OneLocalGame,std::allocator<OneLocalGame> >::begin
; Function compile flags: /Odt /RTCsu
_TEXT	ENDS
;	COMDAT ?end@?$vector@UOneLocalGame@@V?$allocator@UOneLocalGame@@@std@@@std@@QAE?AViterator@12@XZ
_TEXT	SEGMENT
_this$ = -4						; size = 4
___$ReturnUdt$ = 8					; size = 4
?end@?$vector@UOneLocalGame@@V?$allocator@UOneLocalGame@@@std@@@std@@QAE?AViterator@12@XZ PROC NEAR ; std::vector<OneLocalGame,std::allocator<OneLocalGame> >::end, COMDAT
; _this$ = ecx

; 472  : 		{	// return iterator for end of mutable sequence

  00000	55		 push	 ebp
  00001	8b ec		 mov	 ebp, esp
  00003	51		 push	 ecx
  00004	c7 45 fc cc cc
	cc cc		 mov	 DWORD PTR [ebp-4], -858993460 ; ccccccccH
  0000b	89 4d fc	 mov	 DWORD PTR _this$[ebp], ecx

; 473  : 		return (iterator(_Mylast));

  0000e	8b 45 fc	 mov	 eax, DWORD PTR _this$[ebp]
  00011	8b 48 08	 mov	 ecx, DWORD PTR [eax+8]
  00014	51		 push	 ecx
  00015	8b 4d 08	 mov	 ecx, DWORD PTR ___$ReturnUdt$[ebp]
  00018	e8 00 00 00 00	 call	 ??0iterator@?$vector@UOneLocalGame@@V?$allocator@UOneLocalGame@@@std@@@std@@QAE@PAUOneLocalGame@@@Z ; std::vector<OneLocalGame,std::allocator<OneLocalGame> >::iterator::iterator
  0001d	8b 45 08	 mov	 eax, DWORD PTR ___$ReturnUdt$[ebp]

; 474  : 		}

  00020	83 c4 04	 add	 esp, 4
  00023	3b ec		 cmp	 ebp, esp
  00025	e8 00 00 00 00	 call	 __RTC_CheckEsp
  0002a	8b e5		 mov	 esp, ebp
  0002c	5d		 pop	 ebp
  0002d	c2 04 00	 ret	 4
?end@?$vector@UOneLocalGame@@V?$allocator@UOneLocalGame@@@std@@@std@@QAE?AViterator@12@XZ ENDP ; std::vector<OneLocalGame,std::allocator<OneLocalGame> >::end
_TEXT	ENDS
PUBLIC	??0?$_Vector_val@HV?$allocator@H@std@@@std@@IAE@V?$allocator@H@1@@Z ; std::_Vector_val<int,std::allocator<int> >::_Vector_val<int,std::allocator<int> >
PUBLIC	??0?$allocator@H@std@@QAE@XZ			; std::allocator<int>::allocator<int>
PUBLIC	?_Buy@?$vector@HV?$allocator@H@std@@@std@@IAE_NI@Z ; std::vector<int,std::allocator<int> >::_Buy
; Function compile flags: /Odt /RTCsu
;	COMDAT ??0?$vector@HV?$allocator@H@std@@@std@@QAE@XZ
_TEXT	SEGMENT
_this$ = -4						; size = 4
??0?$vector@HV?$allocator@H@std@@@std@@QAE@XZ PROC NEAR	; std::vector<int,std::allocator<int> >::vector<int,std::allocator<int> >, COMDAT
; _this$ = ecx

; 299  : 		{	// construct empty vector

  00000	55		 push	 ebp
  00001	8b ec		 mov	 ebp, esp
  00003	83 ec 08	 sub	 esp, 8
  00006	c7 45 f8 cc cc
	cc cc		 mov	 DWORD PTR [ebp-8], -858993460 ; ccccccccH
  0000d	c7 45 fc cc cc
	cc cc		 mov	 DWORD PTR [ebp-4], -858993460 ; ccccccccH
  00014	89 4d fc	 mov	 DWORD PTR _this$[ebp], ecx
  00017	51		 push	 ecx
  00018	8b cc		 mov	 ecx, esp
  0001a	e8 00 00 00 00	 call	 ??0?$allocator@H@std@@QAE@XZ ; std::allocator<int>::allocator<int>
  0001f	8b 4d fc	 mov	 ecx, DWORD PTR _this$[ebp]
  00022	e8 00 00 00 00	 call	 ??0?$_Vector_val@HV?$allocator@H@std@@@std@@IAE@V?$allocator@H@1@@Z ; std::_Vector_val<int,std::allocator<int> >::_Vector_val<int,std::allocator<int> >

; 300  : 		_Buy(0);

  00027	6a 00		 push	 0
  00029	8b 4d fc	 mov	 ecx, DWORD PTR _this$[ebp]
  0002c	e8 00 00 00 00	 call	 ?_Buy@?$vector@HV?$allocator@H@std@@@std@@IAE_NI@Z ; std::vector<int,std::allocator<int> >::_Buy

; 301  : 		}

  00031	8b 45 fc	 mov	 eax, DWORD PTR _this$[ebp]
  00034	83 c4 08	 add	 esp, 8
  00037	3b ec		 cmp	 ebp, esp
  00039	e8 00 00 00 00	 call	 __RTC_CheckEsp
  0003e	8b e5		 mov	 esp, ebp
  00040	5d		 pop	 ebp
  00041	c3		 ret	 0
??0?$vector@HV?$allocator@H@std@@@std@@QAE@XZ ENDP	; std::vector<int,std::allocator<int> >::vector<int,std::allocator<int> >
_TEXT	ENDS
PUBLIC	?_Tidy@?$vector@HV?$allocator@H@std@@@std@@IAEXXZ ; std::vector<int,std::allocator<int> >::_Tidy
; Function compile flags: /Odt /RTCsu
;	COMDAT ??1?$vector@HV?$allocator@H@std@@@std@@QAE@XZ
_TEXT	SEGMENT
_this$ = -4						; size = 4
??1?$vector@HV?$allocator@H@std@@@std@@QAE@XZ PROC NEAR	; std::vector<int,std::allocator<int> >::~vector<int,std::allocator<int> >, COMDAT
; _this$ = ecx

; 387  : 		{	// destroy the object

  00000	55		 push	 ebp
  00001	8b ec		 mov	 ebp, esp
  00003	51		 push	 ecx
  00004	c7 45 fc cc cc
	cc cc		 mov	 DWORD PTR [ebp-4], -858993460 ; ccccccccH
  0000b	89 4d fc	 mov	 DWORD PTR _this$[ebp], ecx

; 388  : 		_Tidy();

  0000e	8b 4d fc	 mov	 ecx, DWORD PTR _this$[ebp]
  00011	e8 00 00 00 00	 call	 ?_Tidy@?$vector@HV?$allocator@H@std@@@std@@IAEXXZ ; std::vector<int,std::allocator<int> >::_Tidy

; 389  : 		}

  00016	83 c4 04	 add	 esp, 4
  00019	3b ec		 cmp	 ebp, esp
  0001b	e8 00 00 00 00	 call	 __RTC_CheckEsp
  00020	8b e5		 mov	 esp, ebp
  00022	5d		 pop	 ebp
  00023	c3		 ret	 0
??1?$vector@HV?$allocator@H@std@@@std@@QAE@XZ ENDP	; std::vector<int,std::allocator<int> >::~vector<int,std::allocator<int> >
_TEXT	ENDS
PUBLIC	?deallocate@?$allocator@H@std@@QAEXPAHI@Z	; std::allocator<int>::deallocate
PUBLIC	??$copy@PAHPAH@std@@YAPAHPAH00@Z		; std::copy<int *,int *>
PUBLIC	?capacity@?$vector@HV?$allocator@H@std@@@std@@QBEIXZ ; std::vector<int,std::allocator<int> >::capacity
PUBLIC	??$_Ucopy@PAH@?$vector@HV?$allocator@H@std@@@std@@IAEPAHPAH00@Z ; std::vector<int,std::allocator<int> >::_Ucopy<int *>
PUBLIC	?clear@?$vector@HV?$allocator@H@std@@@std@@QAEXXZ ; std::vector<int,std::allocator<int> >::clear
PUBLIC	?_Destroy@?$vector@HV?$allocator@H@std@@@std@@IAEXPAH0@Z ; std::vector<int,std::allocator<int> >::_Destroy
; Function compile flags: /Odt /RTCsu
;	COMDAT ??4?$vector@HV?$allocator@H@std@@@std@@QAEAAV01@ABV01@@Z
_TEXT	SEGMENT
__Ptr$193212 = -12					; size = 4
__Ptr$193202 = -8					; size = 4
_this$ = -4						; size = 4
__Right$ = 8						; size = 4
??4?$vector@HV?$allocator@H@std@@@std@@QAEAAV01@ABV01@@Z PROC NEAR ; std::vector<int,std::allocator<int> >::operator=, COMDAT
; _this$ = ecx

; 392  : 		{	// assign _Right

  00000	55		 push	 ebp
  00001	8b ec		 mov	 ebp, esp
  00003	83 ec 0c	 sub	 esp, 12			; 0000000cH
  00006	56		 push	 esi
  00007	c7 45 f4 cc cc
	cc cc		 mov	 DWORD PTR [ebp-12], -858993460 ; ccccccccH
  0000e	c7 45 f8 cc cc
	cc cc		 mov	 DWORD PTR [ebp-8], -858993460 ; ccccccccH
  00015	c7 45 fc cc cc
	cc cc		 mov	 DWORD PTR [ebp-4], -858993460 ; ccccccccH
  0001c	89 4d fc	 mov	 DWORD PTR _this$[ebp], ecx

; 393  : 		if (this != &_Right)

  0001f	8b 45 fc	 mov	 eax, DWORD PTR _this$[ebp]
  00022	3b 45 08	 cmp	 eax, DWORD PTR __Right$[ebp]
  00025	0f 84 5d 01 00
	00		 je	 $L193198

; 394  : 			{	// worth doing
; 395  : 
; 396  : 
; 397  : 			if (_Right.size() == 0)

  0002b	8b 4d 08	 mov	 ecx, DWORD PTR __Right$[ebp]
  0002e	e8 00 00 00 00	 call	 ?size@?$vector@HV?$allocator@H@std@@@std@@QBEIXZ ; std::vector<int,std::allocator<int> >::size
  00033	85 c0		 test	 eax, eax
  00035	75 0d		 jne	 SHORT $L193199

; 398  : 				clear();	// new sequence empty, free storage

  00037	8b 4d fc	 mov	 ecx, DWORD PTR _this$[ebp]
  0003a	e8 00 00 00 00	 call	 ?clear@?$vector@HV?$allocator@H@std@@@std@@QAEXXZ ; std::vector<int,std::allocator<int> >::clear

; 399  : 			else if (_Right.size() <= size())

  0003f	e9 44 01 00 00	 jmp	 $L193198
$L193199:
  00044	8b 4d 08	 mov	 ecx, DWORD PTR __Right$[ebp]
  00047	e8 00 00 00 00	 call	 ?size@?$vector@HV?$allocator@H@std@@@std@@QBEIXZ ; std::vector<int,std::allocator<int> >::size
  0004c	8b f0		 mov	 esi, eax
  0004e	8b 4d fc	 mov	 ecx, DWORD PTR _this$[ebp]
  00051	e8 00 00 00 00	 call	 ?size@?$vector@HV?$allocator@H@std@@@std@@QBEIXZ ; std::vector<int,std::allocator<int> >::size
  00056	3b f0		 cmp	 esi, eax
  00058	77 4f		 ja	 SHORT $L193201

; 400  : 				{	// enough elements, copy new and destroy old
; 401  : 				pointer _Ptr = copy(_Right._Myfirst, _Right._Mylast,
; 402  : 					_Myfirst);	// copy new

  0005a	8b 4d fc	 mov	 ecx, DWORD PTR _this$[ebp]
  0005d	8b 51 04	 mov	 edx, DWORD PTR [ecx+4]
  00060	52		 push	 edx
  00061	8b 45 08	 mov	 eax, DWORD PTR __Right$[ebp]
  00064	8b 48 08	 mov	 ecx, DWORD PTR [eax+8]
  00067	51		 push	 ecx
  00068	8b 55 08	 mov	 edx, DWORD PTR __Right$[ebp]
  0006b	8b 42 04	 mov	 eax, DWORD PTR [edx+4]
  0006e	50		 push	 eax
  0006f	e8 00 00 00 00	 call	 ??$copy@PAHPAH@std@@YAPAHPAH00@Z ; std::copy<int *,int *>
  00074	83 c4 0c	 add	 esp, 12			; 0000000cH
  00077	89 45 f8	 mov	 DWORD PTR __Ptr$193202[ebp], eax

; 403  : 				_Destroy(_Ptr, _Mylast);	// destroy old

  0007a	8b 4d fc	 mov	 ecx, DWORD PTR _this$[ebp]
  0007d	8b 51 08	 mov	 edx, DWORD PTR [ecx+8]
  00080	52		 push	 edx
  00081	8b 45 f8	 mov	 eax, DWORD PTR __Ptr$193202[ebp]
  00084	50		 push	 eax
  00085	8b 4d fc	 mov	 ecx, DWORD PTR _this$[ebp]
  00088	e8 00 00 00 00	 call	 ?_Destroy@?$vector@HV?$allocator@H@std@@@std@@IAEXPAH0@Z ; std::vector<int,std::allocator<int> >::_Destroy

; 404  : 				_Mylast = _Myfirst + _Right.size();

  0008d	8b 4d 08	 mov	 ecx, DWORD PTR __Right$[ebp]
  00090	e8 00 00 00 00	 call	 ?size@?$vector@HV?$allocator@H@std@@@std@@QBEIXZ ; std::vector<int,std::allocator<int> >::size
  00095	8b 4d fc	 mov	 ecx, DWORD PTR _this$[ebp]
  00098	8b 51 04	 mov	 edx, DWORD PTR [ecx+4]
  0009b	8d 04 82	 lea	 eax, DWORD PTR [edx+eax*4]
  0009e	8b 4d fc	 mov	 ecx, DWORD PTR _this$[ebp]
  000a1	89 41 08	 mov	 DWORD PTR [ecx+8], eax

; 405  : 				}
; 406  : 			else if (_Right.size() <= capacity())

  000a4	e9 df 00 00 00	 jmp	 $L193198
$L193201:
  000a9	8b 4d 08	 mov	 ecx, DWORD PTR __Right$[ebp]
  000ac	e8 00 00 00 00	 call	 ?size@?$vector@HV?$allocator@H@std@@@std@@QBEIXZ ; std::vector<int,std::allocator<int> >::size
  000b1	8b f0		 mov	 esi, eax
  000b3	8b 4d fc	 mov	 ecx, DWORD PTR _this$[ebp]
  000b6	e8 00 00 00 00	 call	 ?capacity@?$vector@HV?$allocator@H@std@@@std@@QBEIXZ ; std::vector<int,std::allocator<int> >::capacity
  000bb	3b f0		 cmp	 esi, eax
  000bd	77 50		 ja	 SHORT $L193211

; 407  : 				{	// enough room, copy and construct new
; 408  : 				pointer _Ptr = _Right._Myfirst + size();

  000bf	8b 4d fc	 mov	 ecx, DWORD PTR _this$[ebp]
  000c2	e8 00 00 00 00	 call	 ?size@?$vector@HV?$allocator@H@std@@@std@@QBEIXZ ; std::vector<int,std::allocator<int> >::size
  000c7	8b 55 08	 mov	 edx, DWORD PTR __Right$[ebp]
  000ca	8b 4a 04	 mov	 ecx, DWORD PTR [edx+4]
  000cd	8d 14 81	 lea	 edx, DWORD PTR [ecx+eax*4]
  000d0	89 55 f4	 mov	 DWORD PTR __Ptr$193212[ebp], edx

; 409  : 				copy(_Right._Myfirst, _Ptr, _Myfirst);

  000d3	8b 45 fc	 mov	 eax, DWORD PTR _this$[ebp]
  000d6	8b 48 04	 mov	 ecx, DWORD PTR [eax+4]
  000d9	51		 push	 ecx
  000da	8b 55 f4	 mov	 edx, DWORD PTR __Ptr$193212[ebp]
  000dd	52		 push	 edx
  000de	8b 45 08	 mov	 eax, DWORD PTR __Right$[ebp]
  000e1	8b 48 04	 mov	 ecx, DWORD PTR [eax+4]
  000e4	51		 push	 ecx
  000e5	e8 00 00 00 00	 call	 ??$copy@PAHPAH@std@@YAPAHPAH00@Z ; std::copy<int *,int *>
  000ea	83 c4 0c	 add	 esp, 12			; 0000000cH

; 410  : 				_Mylast = _Ucopy(_Ptr, _Right._Mylast, _Mylast);

  000ed	8b 55 fc	 mov	 edx, DWORD PTR _this$[ebp]
  000f0	8b 42 08	 mov	 eax, DWORD PTR [edx+8]
  000f3	50		 push	 eax
  000f4	8b 4d 08	 mov	 ecx, DWORD PTR __Right$[ebp]
  000f7	8b 51 08	 mov	 edx, DWORD PTR [ecx+8]
  000fa	52		 push	 edx
  000fb	8b 45 f4	 mov	 eax, DWORD PTR __Ptr$193212[ebp]
  000fe	50		 push	 eax
  000ff	8b 4d fc	 mov	 ecx, DWORD PTR _this$[ebp]
  00102	e8 00 00 00 00	 call	 ??$_Ucopy@PAH@?$vector@HV?$allocator@H@std@@@std@@IAEPAHPAH00@Z ; std::vector<int,std::allocator<int> >::_Ucopy<int *>
  00107	8b 4d fc	 mov	 ecx, DWORD PTR _this$[ebp]
  0010a	89 41 08	 mov	 DWORD PTR [ecx+8], eax

; 411  : 				}
; 412  : 			else

  0010d	eb 79		 jmp	 SHORT $L193198
$L193211:

; 413  : 				{	// not enough room, allocate new array and construct new
; 414  : 				if (_Myfirst != 0)

  0010f	8b 55 fc	 mov	 edx, DWORD PTR _this$[ebp]
  00112	83 7a 04 00	 cmp	 DWORD PTR [edx+4], 0
  00116	74 35		 je	 SHORT $L193219

; 415  : 					{	// discard old array
; 416  : 					_Destroy(_Myfirst, _Mylast);

  00118	8b 45 fc	 mov	 eax, DWORD PTR _this$[ebp]
  0011b	8b 48 08	 mov	 ecx, DWORD PTR [eax+8]
  0011e	51		 push	 ecx
  0011f	8b 55 fc	 mov	 edx, DWORD PTR _this$[ebp]
  00122	8b 42 04	 mov	 eax, DWORD PTR [edx+4]
  00125	50		 push	 eax
  00126	8b 4d fc	 mov	 ecx, DWORD PTR _this$[ebp]
  00129	e8 00 00 00 00	 call	 ?_Destroy@?$vector@HV?$allocator@H@std@@@std@@IAEXPAH0@Z ; std::vector<int,std::allocator<int> >::_Destroy

; 417  : 					this->_Alval.deallocate(_Myfirst, _Myend - _Myfirst);

  0012e	8b 4d fc	 mov	 ecx, DWORD PTR _this$[ebp]
  00131	8b 55 fc	 mov	 edx, DWORD PTR _this$[ebp]
  00134	8b 41 0c	 mov	 eax, DWORD PTR [ecx+12]
  00137	2b 42 04	 sub	 eax, DWORD PTR [edx+4]
  0013a	c1 f8 02	 sar	 eax, 2
  0013d	50		 push	 eax
  0013e	8b 4d fc	 mov	 ecx, DWORD PTR _this$[ebp]
  00141	8b 51 04	 mov	 edx, DWORD PTR [ecx+4]
  00144	52		 push	 edx
  00145	8b 4d fc	 mov	 ecx, DWORD PTR _this$[ebp]
  00148	e8 00 00 00 00	 call	 ?deallocate@?$allocator@H@std@@QAEXPAHI@Z ; std::allocator<int>::deallocate
$L193219:

; 418  : 					}
; 419  : 				if (_Buy(_Right.size()))

  0014d	8b 4d 08	 mov	 ecx, DWORD PTR __Right$[ebp]
  00150	e8 00 00 00 00	 call	 ?size@?$vector@HV?$allocator@H@std@@@std@@QBEIXZ ; std::vector<int,std::allocator<int> >::size
  00155	50		 push	 eax
  00156	8b 4d fc	 mov	 ecx, DWORD PTR _this$[ebp]
  00159	e8 00 00 00 00	 call	 ?_Buy@?$vector@HV?$allocator@H@std@@@std@@IAE_NI@Z ; std::vector<int,std::allocator<int> >::_Buy
  0015e	0f b6 c0	 movzx	 eax, al
  00161	85 c0		 test	 eax, eax
  00163	74 23		 je	 SHORT $L193198

; 420  : 					_Mylast = _Ucopy(_Right._Myfirst, _Right._Mylast,
; 421  : 						_Myfirst);

  00165	8b 4d fc	 mov	 ecx, DWORD PTR _this$[ebp]
  00168	8b 51 04	 mov	 edx, DWORD PTR [ecx+4]
  0016b	52		 push	 edx
  0016c	8b 45 08	 mov	 eax, DWORD PTR __Right$[ebp]
  0016f	8b 48 08	 mov	 ecx, DWORD PTR [eax+8]
  00172	51		 push	 ecx
  00173	8b 55 08	 mov	 edx, DWORD PTR __Right$[ebp]
  00176	8b 42 04	 mov	 eax, DWORD PTR [edx+4]
  00179	50		 push	 eax
  0017a	8b 4d fc	 mov	 ecx, DWORD PTR _this$[ebp]
  0017d	e8 00 00 00 00	 call	 ??$_Ucopy@PAH@?$vector@HV?$allocator@H@std@@@std@@IAEPAHPAH00@Z ; std::vector<int,std::allocator<int> >::_Ucopy<int *>
  00182	8b 4d fc	 mov	 ecx, DWORD PTR _this$[ebp]
  00185	89 41 08	 mov	 DWORD PTR [ecx+8], eax
$L193198:

; 422  : 				}
; 423  : 			}
; 424  : 		return (*this);

  00188	8b 45 fc	 mov	 eax, DWORD PTR _this$[ebp]

; 425  : 		}

  0018b	5e		 pop	 esi
  0018c	83 c4 0c	 add	 esp, 12			; 0000000cH
  0018f	3b ec		 cmp	 ebp, esp
  00191	e8 00 00 00 00	 call	 __RTC_CheckEsp
  00196	8b e5		 mov	 esp, ebp
  00198	5d		 pop	 ebp
  00199	c2 04 00	 ret	 4
??4?$vector@HV?$allocator@H@std@@@std@@QAEAAV01@ABV01@@Z ENDP ; std::vector<int,std::allocator<int> >::operator=
; Function compile flags: /Odt /RTCsu
_TEXT	ENDS
;	COMDAT ?size@?$vector@HV?$allocator@H@std@@@std@@QBEIXZ
_TEXT	SEGMENT
tv70 = -8						; size = 4
_this$ = -4						; size = 4
?size@?$vector@HV?$allocator@H@std@@@std@@QBEIXZ PROC NEAR ; std::vector<int,std::allocator<int> >::size, COMDAT
; _this$ = ecx

; 515  : 		{	// return length of sequence

  00000	55		 push	 ebp
  00001	8b ec		 mov	 ebp, esp
  00003	83 ec 08	 sub	 esp, 8
  00006	c7 45 f8 cc cc
	cc cc		 mov	 DWORD PTR [ebp-8], -858993460 ; ccccccccH
  0000d	c7 45 fc cc cc
	cc cc		 mov	 DWORD PTR [ebp-4], -858993460 ; ccccccccH
  00014	89 4d fc	 mov	 DWORD PTR _this$[ebp], ecx

; 516  : 		return (_Myfirst == 0 ? 0 : _Mylast - _Myfirst);

  00017	8b 45 fc	 mov	 eax, DWORD PTR _this$[ebp]
  0001a	83 78 04 00	 cmp	 DWORD PTR [eax+4], 0
  0001e	75 09		 jne	 SHORT $L195511
  00020	c7 45 f8 00 00
	00 00		 mov	 DWORD PTR tv70[ebp], 0
  00027	eb 12		 jmp	 SHORT $L195512
$L195511:
  00029	8b 4d fc	 mov	 ecx, DWORD PTR _this$[ebp]
  0002c	8b 55 fc	 mov	 edx, DWORD PTR _this$[ebp]
  0002f	8b 41 08	 mov	 eax, DWORD PTR [ecx+8]
  00032	2b 42 04	 sub	 eax, DWORD PTR [edx+4]
  00035	c1 f8 02	 sar	 eax, 2
  00038	89 45 f8	 mov	 DWORD PTR tv70[ebp], eax
$L195512:
  0003b	8b 45 f8	 mov	 eax, DWORD PTR tv70[ebp]

; 517  : 		}

  0003e	8b e5		 mov	 esp, ebp
  00040	5d		 pop	 ebp
  00041	c3		 ret	 0
?size@?$vector@HV?$allocator@H@std@@@std@@QBEIXZ ENDP	; std::vector<int,std::allocator<int> >::size
_TEXT	ENDS
PUBLIC	?begin@?$vector@HV?$allocator@H@std@@@std@@QAE?AViterator@12@XZ ; std::vector<int,std::allocator<int> >::begin
PUBLIC	??Diterator@?$vector@HV?$allocator@H@std@@@std@@QBEAAHXZ ; std::vector<int,std::allocator<int> >::iterator::operator*
PUBLIC	??Hiterator@?$vector@HV?$allocator@H@std@@@std@@QBE?AV012@H@Z ; std::vector<int,std::allocator<int> >::iterator::operator+
; Function compile flags: /Odt /RTCsu
;	COMDAT ??A?$vector@HV?$allocator@H@std@@@std@@QAEAAHI@Z
_TEXT	SEGMENT
$T195515 = -12						; size = 4
$T195514 = -8						; size = 4
_this$ = -4						; size = 4
__Pos$ = 8						; size = 4
??A?$vector@HV?$allocator@H@std@@@std@@QAEAAHI@Z PROC NEAR ; std::vector<int,std::allocator<int> >::operator[], COMDAT
; _this$ = ecx

; 554  : 		{	// subscript mutable sequence

  00000	55		 push	 ebp
  00001	8b ec		 mov	 ebp, esp
  00003	83 ec 0c	 sub	 esp, 12			; 0000000cH
  00006	c7 45 f4 cc cc
	cc cc		 mov	 DWORD PTR [ebp-12], -858993460 ; ccccccccH
  0000d	c7 45 f8 cc cc
	cc cc		 mov	 DWORD PTR [ebp-8], -858993460 ; ccccccccH
  00014	c7 45 fc cc cc
	cc cc		 mov	 DWORD PTR [ebp-4], -858993460 ; ccccccccH
  0001b	89 4d fc	 mov	 DWORD PTR _this$[ebp], ecx

; 555  : 		return (*(begin() + _Pos));

  0001e	8b 45 08	 mov	 eax, DWORD PTR __Pos$[ebp]
  00021	50		 push	 eax
  00022	8d 4d f4	 lea	 ecx, DWORD PTR $T195515[ebp]
  00025	51		 push	 ecx
  00026	8d 55 f8	 lea	 edx, DWORD PTR $T195514[ebp]
  00029	52		 push	 edx
  0002a	8b 4d fc	 mov	 ecx, DWORD PTR _this$[ebp]
  0002d	e8 00 00 00 00	 call	 ?begin@?$vector@HV?$allocator@H@std@@@std@@QAE?AViterator@12@XZ ; std::vector<int,std::allocator<int> >::begin
  00032	8b c8		 mov	 ecx, eax
  00034	e8 00 00 00 00	 call	 ??Hiterator@?$vector@HV?$allocator@H@std@@@std@@QBE?AV012@H@Z ; std::vector<int,std::allocator<int> >::iterator::operator+
  00039	8b c8		 mov	 ecx, eax
  0003b	e8 00 00 00 00	 call	 ??Diterator@?$vector@HV?$allocator@H@std@@@std@@QBEAAHXZ ; std::vector<int,std::allocator<int> >::iterator::operator*

; 556  : 		}

  00040	83 c4 0c	 add	 esp, 12			; 0000000cH
  00043	3b ec		 cmp	 ebp, esp
  00045	e8 00 00 00 00	 call	 __RTC_CheckEsp
  0004a	8b e5		 mov	 esp, ebp
  0004c	5d		 pop	 ebp
  0004d	c2 04 00	 ret	 4
??A?$vector@HV?$allocator@H@std@@@std@@QAEAAHI@Z ENDP	; std::vector<int,std::allocator<int> >::operator[]
_TEXT	ENDS
PUBLIC	??0?$allocator@V?$basic_string@DU?$char_traits@D@std@@V?$allocator@D@2@@std@@@std@@QAE@XZ ; std::allocator<std::basic_string<char,std::char_traits<char>,std::allocator<char> > >::allocator<std::basic_string<char,std::char_traits<char>,std::allocator<char> > >
PUBLIC	??0?$_Vector_val@V?$basic_string@DU?$char_traits@D@std@@V?$allocator@D@2@@std@@V?$allocator@V?$basic_string@DU?$char_traits@D@std@@V?$allocator@D@2@@std@@@2@@std@@IAE@V?$allocator@V?$basic_string@DU?$char_traits@D@std@@V?$allocator@D@2@@std@@@1@@Z ; std::_Vector_val<std::basic_string<char,std::char_traits<char>,std::allocator<char> >,std::allocator<std::basic_string<char,std::char_traits<char>,std::allocator<char> > > >::_Vector_val<std::basic_string<char,std::char_traits<char>,std::allocator<char> >,std::allocator<std::basic_string<char,std::char_traits<char>,std::allocator<char> > > >
PUBLIC	?_Buy@?$vector@V?$basic_string@DU?$char_traits@D@std@@V?$allocator@D@2@@std@@V?$allocator@V?$basic_string@DU?$char_traits@D@std@@V?$allocator@D@2@@std@@@2@@std@@IAE_NI@Z ; std::vector<std::basic_string<char,std::char_traits<char>,std::allocator<char> >,std::allocator<std::basic_string<char,std::char_traits<char>,std::allocator<char> > > >::_Buy
; Function compile flags: /Odt /RTCsu
;	COMDAT ??0?$vector@V?$basic_string@DU?$char_traits@D@std@@V?$allocator@D@2@@std@@V?$allocator@V?$basic_string@DU?$char_traits@D@std@@V?$allocator@D@2@@std@@@2@@std@@QAE@XZ
_TEXT	SEGMENT
_this$ = -4						; size = 4
??0?$vector@V?$basic_string@DU?$char_traits@D@std@@V?$allocator@D@2@@std@@V?$allocator@V?$basic_string@DU?$char_traits@D@std@@V?$allocator@D@2@@std@@@2@@std@@QAE@XZ PROC NEAR ; std::vector<std::basic_string<char,std::char_traits<char>,std::allocator<char> >,std::allocator<std::basic_string<char,std::char_traits<char>,std::allocator<char> > > >::vector<std::basic_string<char,std::char_traits<char>,std::allocator<char> >,std::allocator<std::basic_string<char,std::char_traits<char>,std::allocator<char> > > >, COMDAT
; _this$ = ecx

; 299  : 		{	// construct empty vector

  00000	55		 push	 ebp
  00001	8b ec		 mov	 ebp, esp
  00003	83 ec 08	 sub	 esp, 8
  00006	c7 45 f8 cc cc
	cc cc		 mov	 DWORD PTR [ebp-8], -858993460 ; ccccccccH
  0000d	c7 45 fc cc cc
	cc cc		 mov	 DWORD PTR [ebp-4], -858993460 ; ccccccccH
  00014	89 4d fc	 mov	 DWORD PTR _this$[ebp], ecx
  00017	51		 push	 ecx
  00018	8b cc		 mov	 ecx, esp
  0001a	e8 00 00 00 00	 call	 ??0?$allocator@V?$basic_string@DU?$char_traits@D@std@@V?$allocator@D@2@@std@@@std@@QAE@XZ ; std::allocator<std::basic_string<char,std::char_traits<char>,std::allocator<char> > >::allocator<std::basic_string<char,std::char_traits<char>,std::allocator<char> > >
  0001f	8b 4d fc	 mov	 ecx, DWORD PTR _this$[ebp]
  00022	e8 00 00 00 00	 call	 ??0?$_Vector_val@V?$basic_string@DU?$char_traits@D@std@@V?$allocator@D@2@@std@@V?$allocator@V?$basic_string@DU?$char_traits@D@std@@V?$allocator@D@2@@std@@@2@@std@@IAE@V?$allocator@V?$basic_string@DU?$char_traits@D@std@@V?$allocator@D@2@@std@@@1@@Z ; std::_Vector_val<std::basic_string<char,std::char_traits<char>,std::allocator<char> >,std::allocator<std::basic_string<char,std::char_traits<char>,std::allocator<char> > > >::_Vector_val<std::basic_string<char,std::char_traits<char>,std::allocator<char> >,std::allocator<std::basic_string<char,std::char_traits<char>,std::allocator<char> > > >

; 300  : 		_Buy(0);

  00027	6a 00		 push	 0
  00029	8b 4d fc	 mov	 ecx, DWORD PTR _this$[ebp]
  0002c	e8 00 00 00 00	 call	 ?_Buy@?$vector@V?$basic_string@DU?$char_traits@D@std@@V?$allocator@D@2@@std@@V?$allocator@V?$basic_string@DU?$char_traits@D@std@@V?$allocator@D@2@@std@@@2@@std@@IAE_NI@Z ; std::vector<std::basic_string<char,std::char_traits<char>,std::allocator<char> >,std::allocator<std::basic_string<char,std::char_traits<char>,std::allocator<char> > > >::_Buy

; 301  : 		}

  00031	8b 45 fc	 mov	 eax, DWORD PTR _this$[ebp]
  00034	83 c4 08	 add	 esp, 8
  00037	3b ec		 cmp	 ebp, esp
  00039	e8 00 00 00 00	 call	 __RTC_CheckEsp
  0003e	8b e5		 mov	 esp, ebp
  00040	5d		 pop	 ebp
  00041	c3		 ret	 0
??0?$vector@V?$basic_string@DU?$char_traits@D@std@@V?$allocator@D@2@@std@@V?$allocator@V?$basic_string@DU?$char_traits@D@std@@V?$allocator@D@2@@std@@@2@@std@@QAE@XZ ENDP ; std::vector<std::basic_string<char,std::char_traits<char>,std::allocator<char> >,std::allocator<std::basic_string<char,std::char_traits<char>,std::allocator<char> > > >::vector<std::basic_string<char,std::char_traits<char>,std::allocator<char> >,std::allocator<std::basic_string<char,std::char_traits<char>,std::allocator<char> > > >
_TEXT	ENDS
PUBLIC	?_Tidy@?$vector@V?$basic_string@DU?$char_traits@D@std@@V?$allocator@D@2@@std@@V?$allocator@V?$basic_string@DU?$char_traits@D@std@@V?$allocator@D@2@@std@@@2@@std@@IAEXXZ ; std::vector<std::basic_string<char,std::char_traits<char>,std::allocator<char> >,std::allocator<std::basic_string<char,std::char_traits<char>,std::allocator<char> > > >::_Tidy
; Function compile flags: /Odt /RTCsu
;	COMDAT ??1?$vector@V?$basic_string@DU?$char_traits@D@std@@V?$allocator@D@2@@std@@V?$allocator@V?$basic_string@DU?$char_traits@D@std@@V?$allocator@D@2@@std@@@2@@std@@QAE@XZ
_TEXT	SEGMENT
_this$ = -4						; size = 4
??1?$vector@V?$basic_string@DU?$char_traits@D@std@@V?$allocator@D@2@@std@@V?$allocator@V?$basic_string@DU?$char_traits@D@std@@V?$allocator@D@2@@std@@@2@@std@@QAE@XZ PROC NEAR ; std::vector<std::basic_string<char,std::char_traits<char>,std::allocator<char> >,std::allocator<std::basic_string<char,std::char_traits<char>,std::allocator<char> > > >::~vector<std::basic_string<char,std::char_traits<char>,std::allocator<char> >,std::allocator<std::basic_string<char,std::char_traits<char>,std::allocator<char> > > >, COMDAT
; _this$ = ecx

; 387  : 		{	// destroy the object

  00000	55		 push	 ebp
  00001	8b ec		 mov	 ebp, esp
  00003	51		 push	 ecx
  00004	c7 45 fc cc cc
	cc cc		 mov	 DWORD PTR [ebp-4], -858993460 ; ccccccccH
  0000b	89 4d fc	 mov	 DWORD PTR _this$[ebp], ecx

; 388  : 		_Tidy();

  0000e	8b 4d fc	 mov	 ecx, DWORD PTR _this$[ebp]
  00011	e8 00 00 00 00	 call	 ?_Tidy@?$vector@V?$basic_string@DU?$char_traits@D@std@@V?$allocator@D@2@@std@@V?$allocator@V?$basic_string@DU?$char_traits@D@std@@V?$allocator@D@2@@std@@@2@@std@@IAEXXZ ; std::vector<std::basic_string<char,std::char_traits<char>,std::allocator<char> >,std::allocator<std::basic_string<char,std::char_traits<char>,std::allocator<char> > > >::_Tidy

; 389  : 		}

  00016	83 c4 04	 add	 esp, 4
  00019	3b ec		 cmp	 ebp, esp
  0001b	e8 00 00 00 00	 call	 __RTC_CheckEsp
  00020	8b e5		 mov	 esp, ebp
  00022	5d		 pop	 ebp
  00023	c3		 ret	 0
??1?$vector@V?$basic_string@DU?$char_traits@D@std@@V?$allocator@D@2@@std@@V?$allocator@V?$basic_string@DU?$char_traits@D@std@@V?$allocator@D@2@@std@@@2@@std@@QAE@XZ ENDP ; std::vector<std::basic_string<char,std::char_traits<char>,std::allocator<char> >,std::allocator<std::basic_string<char,std::char_traits<char>,std::allocator<char> > > >::~vector<std::basic_string<char,std::char_traits<char>,std::allocator<char> >,std::allocator<std::basic_string<char,std::char_traits<char>,std::allocator<char> > > >
_TEXT	ENDS
PUBLIC	??0iterator@?$vector@V?$basic_string@DU?$char_traits@D@std@@V?$allocator@D@2@@std@@V?$allocator@V?$basic_string@DU?$char_traits@D@std@@V?$allocator@D@2@@std@@@2@@std@@QAE@PAV?$basic_string@DU?$char_traits@D@std@@V?$allocator@D@2@@2@@Z ; std::vector<std::basic_string<char,std::char_traits<char>,std::allocator<char> >,std::allocator<std::basic_string<char,std::char_traits<char>,std::allocator<char> > > >::iterator::iterator
; Function compile flags: /Odt /RTCsu
;	COMDAT ?begin@?$vector@V?$basic_string@DU?$char_traits@D@std@@V?$allocator@D@2@@std@@V?$allocator@V?$basic_string@DU?$char_traits@D@std@@V?$allocator@D@2@@std@@@2@@std@@QAE?AViterator@12@XZ
_TEXT	SEGMENT
_this$ = -4						; size = 4
___$ReturnUdt$ = 8					; size = 4
?begin@?$vector@V?$basic_string@DU?$char_traits@D@std@@V?$allocator@D@2@@std@@V?$allocator@V?$basic_string@DU?$char_traits@D@std@@V?$allocator@D@2@@std@@@2@@std@@QAE?AViterator@12@XZ PROC NEAR ; std::vector<std::basic_string<char,std::char_traits<char>,std::allocator<char> >,std::allocator<std::basic_string<char,std::char_traits<char>,std::allocator<char> > > >::begin, COMDAT
; _this$ = ecx

; 462  : 		{	// return iterator for beginning of mutable sequence

  00000	55		 push	 ebp
  00001	8b ec		 mov	 ebp, esp
  00003	51		 push	 ecx
  00004	c7 45 fc cc cc
	cc cc		 mov	 DWORD PTR [ebp-4], -858993460 ; ccccccccH
  0000b	89 4d fc	 mov	 DWORD PTR _this$[ebp], ecx

; 463  : 		return (iterator(_Myfirst));

  0000e	8b 45 fc	 mov	 eax, DWORD PTR _this$[ebp]
  00011	8b 48 04	 mov	 ecx, DWORD PTR [eax+4]
  00014	51		 push	 ecx
  00015	8b 4d 08	 mov	 ecx, DWORD PTR ___$ReturnUdt$[ebp]
  00018	e8 00 00 00 00	 call	 ??0iterator@?$vector@V?$basic_string@DU?$char_traits@D@std@@V?$allocator@D@2@@std@@V?$allocator@V?$basic_string@DU?$char_traits@D@std@@V?$allocator@D@2@@std@@@2@@std@@QAE@PAV?$basic_string@DU?$char_traits@D@std@@V?$allocator@D@2@@2@@Z ; std::vector<std::basic_string<char,std::char_traits<char>,std::allocator<char> >,std::allocator<std::basic_string<char,std::char_traits<char>,std::allocator<char> > > >::iterator::iterator
  0001d	8b 45 08	 mov	 eax, DWORD PTR ___$ReturnUdt$[ebp]

; 464  : 		}

  00020	83 c4 04	 add	 esp, 4
  00023	3b ec		 cmp	 ebp, esp
  00025	e8 00 00 00 00	 call	 __RTC_CheckEsp
  0002a	8b e5		 mov	 esp, ebp
  0002c	5d		 pop	 ebp
  0002d	c2 04 00	 ret	 4
?begin@?$vector@V?$basic_string@DU?$char_traits@D@std@@V?$allocator@D@2@@std@@V?$allocator@V?$basic_string@DU?$char_traits@D@std@@V?$allocator@D@2@@std@@@2@@std@@QAE?AViterator@12@XZ ENDP ; std::vector<std::basic_string<char,std::char_traits<char>,std::allocator<char> >,std::allocator<std::basic_string<char,std::char_traits<char>,std::allocator<char> > > >::begin
; Function compile flags: /Odt /RTCsu
_TEXT	ENDS
;	COMDAT ?end@?$vector@V?$basic_string@DU?$char_traits@D@std@@V?$allocator@D@2@@std@@V?$allocator@V?$basic_string@DU?$char_traits@D@std@@V?$allocator@D@2@@std@@@2@@std@@QAE?AViterator@12@XZ
_TEXT	SEGMENT
_this$ = -4						; size = 4
___$ReturnUdt$ = 8					; size = 4
?end@?$vector@V?$basic_string@DU?$char_traits@D@std@@V?$allocator@D@2@@std@@V?$allocator@V?$basic_string@DU?$char_traits@D@std@@V?$allocator@D@2@@std@@@2@@std@@QAE?AViterator@12@XZ PROC NEAR ; std::vector<std::basic_string<char,std::char_traits<char>,std::allocator<char> >,std::allocator<std::basic_string<char,std::char_traits<char>,std::allocator<char> > > >::end, COMDAT
; _this$ = ecx

; 472  : 		{	// return iterator for end of mutable sequence

  00000	55		 push	 ebp
  00001	8b ec		 mov	 ebp, esp
  00003	51		 push	 ecx
  00004	c7 45 fc cc cc
	cc cc		 mov	 DWORD PTR [ebp-4], -858993460 ; ccccccccH
  0000b	89 4d fc	 mov	 DWORD PTR _this$[ebp], ecx

; 473  : 		return (iterator(_Mylast));

  0000e	8b 45 fc	 mov	 eax, DWORD PTR _this$[ebp]
  00011	8b 48 08	 mov	 ecx, DWORD PTR [eax+8]
  00014	51		 push	 ecx
  00015	8b 4d 08	 mov	 ecx, DWORD PTR ___$ReturnUdt$[ebp]
  00018	e8 00 00 00 00	 call	 ??0iterator@?$vector@V?$basic_string@DU?$char_traits@D@std@@V?$allocator@D@2@@std@@V?$allocator@V?$basic_string@DU?$char_traits@D@std@@V?$allocator@D@2@@std@@@2@@std@@QAE@PAV?$basic_string@DU?$char_traits@D@std@@V?$allocator@D@2@@2@@Z ; std::vector<std::basic_string<char,std::char_traits<char>,std::allocator<char> >,std::allocator<std::basic_string<char,std::char_traits<char>,std::allocator<char> > > >::iterator::iterator
  0001d	8b 45 08	 mov	 eax, DWORD PTR ___$ReturnUdt$[ebp]

; 474  : 		}

  00020	83 c4 04	 add	 esp, 4
  00023	3b ec		 cmp	 ebp, esp
  00025	e8 00 00 00 00	 call	 __RTC_CheckEsp
  0002a	8b e5		 mov	 esp, ebp
  0002c	5d		 pop	 ebp
  0002d	c2 04 00	 ret	 4
?end@?$vector@V?$basic_string@DU?$char_traits@D@std@@V?$allocator@D@2@@std@@V?$allocator@V?$basic_string@DU?$char_traits@D@std@@V?$allocator@D@2@@std@@@2@@std@@QAE?AViterator@12@XZ ENDP ; std::vector<std::basic_string<char,std::char_traits<char>,std::allocator<char> >,std::allocator<std::basic_string<char,std::char_traits<char>,std::allocator<char> > > >::end
_TEXT	ENDS
PUBLIC	?capacity@?$vector@V?$basic_string@DU?$char_traits@D@std@@V?$allocator@D@2@@std@@V?$allocator@V?$basic_string@DU?$char_traits@D@std@@V?$allocator@D@2@@std@@@2@@std@@QBEIXZ ; std::vector<std::basic_string<char,std::char_traits<char>,std::allocator<char> >,std::allocator<std::basic_string<char,std::char_traits<char>,std::allocator<char> > > >::capacity
PUBLIC	?size@?$vector@V?$basic_string@DU?$char_traits@D@std@@V?$allocator@D@2@@std@@V?$allocator@V?$basic_string@DU?$char_traits@D@std@@V?$allocator@D@2@@std@@@2@@std@@QBEIXZ ; std::vector<std::basic_string<char,std::char_traits<char>,std::allocator<char> >,std::allocator<std::basic_string<char,std::char_traits<char>,std::allocator<char> > > >::size
PUBLIC	?insert@?$vector@V?$basic_string@DU?$char_traits@D@std@@V?$allocator@D@2@@std@@V?$allocator@V?$basic_string@DU?$char_traits@D@std@@V?$allocator@D@2@@std@@@2@@std@@QAE?AViterator@12@V312@ABV?$basic_string@DU?$char_traits@D@std@@V?$allocator@D@2@@2@@Z ; std::vector<std::basic_string<char,std::char_traits<char>,std::allocator<char> >,std::allocator<std::basic_string<char,std::char_traits<char>,std::allocator<char> > > >::insert
PUBLIC	?_Ufill@?$vector@V?$basic_string@DU?$char_traits@D@std@@V?$allocator@D@2@@std@@V?$allocator@V?$basic_string@DU?$char_traits@D@std@@V?$allocator@D@2@@std@@@2@@std@@IAEPAV?$basic_string@DU?$char_traits@D@std@@V?$allocator@D@2@@2@PAV32@IABV32@@Z ; std::vector<std::basic_string<char,std::char_traits<char>,std::allocator<char> >,std::allocator<std::basic_string<char,std::char_traits<char>,std::allocator<char> > > >::_Ufill
; Function compile flags: /Odt /RTCsu
;	COMDAT ?push_back@?$vector@V?$basic_string@DU?$char_traits@D@std@@V?$allocator@D@2@@std@@V?$allocator@V?$basic_string@DU?$char_traits@D@std@@V?$allocator@D@2@@std@@@2@@std@@QAEXABV?$basic_string@DU?$char_traits@D@std@@V?$allocator@D@2@@2@@Z
_TEXT	SEGMENT
$T195523 = -12						; size = 4
$T195522 = -8						; size = 4
_this$ = -4						; size = 4
__Val$ = 8						; size = 4
?push_back@?$vector@V?$basic_string@DU?$char_traits@D@std@@V?$allocator@D@2@@std@@V?$allocator@V?$basic_string@DU?$char_traits@D@std@@V?$allocator@D@2@@std@@@2@@std@@QAEXABV?$basic_string@DU?$char_traits@D@std@@V?$allocator@D@2@@2@@Z PROC NEAR ; std::vector<std::basic_string<char,std::char_traits<char>,std::allocator<char> >,std::allocator<std::basic_string<char,std::char_traits<char>,std::allocator<char> > > >::push_back, COMDAT
; _this$ = ecx

; 579  : 		{	// insert element at end

  00000	55		 push	 ebp
  00001	8b ec		 mov	 ebp, esp
  00003	83 ec 0c	 sub	 esp, 12			; 0000000cH
  00006	56		 push	 esi
  00007	c7 45 f4 cc cc
	cc cc		 mov	 DWORD PTR [ebp-12], -858993460 ; ccccccccH
  0000e	c7 45 f8 cc cc
	cc cc		 mov	 DWORD PTR [ebp-8], -858993460 ; ccccccccH
  00015	c7 45 fc cc cc
	cc cc		 mov	 DWORD PTR [ebp-4], -858993460 ; ccccccccH
  0001c	89 4d fc	 mov	 DWORD PTR _this$[ebp], ecx

; 580  : 		if (size() < capacity())

  0001f	8b 4d fc	 mov	 ecx, DWORD PTR _this$[ebp]
  00022	e8 00 00 00 00	 call	 ?size@?$vector@V?$basic_string@DU?$char_traits@D@std@@V?$allocator@D@2@@std@@V?$allocator@V?$basic_string@DU?$char_traits@D@std@@V?$allocator@D@2@@std@@@2@@std@@QBEIXZ ; std::vector<std::basic_string<char,std::char_traits<char>,std::allocator<char> >,std::allocator<std::basic_string<char,std::char_traits<char>,std::allocator<char> > > >::size
  00027	8b f0		 mov	 esi, eax
  00029	8b 4d fc	 mov	 ecx, DWORD PTR _this$[ebp]
  0002c	e8 00 00 00 00	 call	 ?capacity@?$vector@V?$basic_string@DU?$char_traits@D@std@@V?$allocator@D@2@@std@@V?$allocator@V?$basic_string@DU?$char_traits@D@std@@V?$allocator@D@2@@std@@@2@@std@@QBEIXZ ; std::vector<std::basic_string<char,std::char_traits<char>,std::allocator<char> >,std::allocator<std::basic_string<char,std::char_traits<char>,std::allocator<char> > > >::capacity
  00031	3b f0		 cmp	 esi, eax
  00033	73 1d		 jae	 SHORT $L193363

; 581  : 			_Mylast = _Ufill(_Mylast, 1, _Val);

  00035	8b 45 08	 mov	 eax, DWORD PTR __Val$[ebp]
  00038	50		 push	 eax
  00039	6a 01		 push	 1
  0003b	8b 4d fc	 mov	 ecx, DWORD PTR _this$[ebp]
  0003e	8b 51 08	 mov	 edx, DWORD PTR [ecx+8]
  00041	52		 push	 edx
  00042	8b 4d fc	 mov	 ecx, DWORD PTR _this$[ebp]
  00045	e8 00 00 00 00	 call	 ?_Ufill@?$vector@V?$basic_string@DU?$char_traits@D@std@@V?$allocator@D@2@@std@@V?$allocator@V?$basic_string@DU?$char_traits@D@std@@V?$allocator@D@2@@std@@@2@@std@@IAEPAV?$basic_string@DU?$char_traits@D@std@@V?$allocator@D@2@@2@PAV32@IABV32@@Z ; std::vector<std::basic_string<char,std::char_traits<char>,std::allocator<char> >,std::allocator<std::basic_string<char,std::char_traits<char>,std::allocator<char> > > >::_Ufill
  0004a	8b 4d fc	 mov	 ecx, DWORD PTR _this$[ebp]
  0004d	89 41 08	 mov	 DWORD PTR [ecx+8], eax

; 582  : 		else

  00050	eb 1f		 jmp	 SHORT $L193362
$L193363:

; 583  : 			insert(end(), _Val);

  00052	8b 55 08	 mov	 edx, DWORD PTR __Val$[ebp]
  00055	52		 push	 edx
  00056	8d 45 f8	 lea	 eax, DWORD PTR $T195522[ebp]
  00059	50		 push	 eax
  0005a	8b 4d fc	 mov	 ecx, DWORD PTR _this$[ebp]
  0005d	e8 00 00 00 00	 call	 ?end@?$vector@V?$basic_string@DU?$char_traits@D@std@@V?$allocator@D@2@@std@@V?$allocator@V?$basic_string@DU?$char_traits@D@std@@V?$allocator@D@2@@std@@@2@@std@@QAE?AViterator@12@XZ ; std::vector<std::basic_string<char,std::char_traits<char>,std::allocator<char> >,std::allocator<std::basic_string<char,std::char_traits<char>,std::allocator<char> > > >::end
  00062	8b 08		 mov	 ecx, DWORD PTR [eax]
  00064	51		 push	 ecx
  00065	8d 55 f4	 lea	 edx, DWORD PTR $T195523[ebp]
  00068	52		 push	 edx
  00069	8b 4d fc	 mov	 ecx, DWORD PTR _this$[ebp]
  0006c	e8 00 00 00 00	 call	 ?insert@?$vector@V?$basic_string@DU?$char_traits@D@std@@V?$allocator@D@2@@std@@V?$allocator@V?$basic_string@DU?$char_traits@D@std@@V?$allocator@D@2@@std@@@2@@std@@QAE?AViterator@12@V312@ABV?$basic_string@DU?$char_traits@D@std@@V?$allocator@D@2@@2@@Z ; std::vector<std::basic_string<char,std::char_traits<char>,std::allocator<char> >,std::allocator<std::basic_string<char,std::char_traits<char>,std::allocator<char> > > >::insert
$L193362:

; 584  : 		}

  00071	5e		 pop	 esi
  00072	83 c4 0c	 add	 esp, 12			; 0000000cH
  00075	3b ec		 cmp	 ebp, esp
  00077	e8 00 00 00 00	 call	 __RTC_CheckEsp
  0007c	8b e5		 mov	 esp, ebp
  0007e	5d		 pop	 ebp
  0007f	c2 04 00	 ret	 4
?push_back@?$vector@V?$basic_string@DU?$char_traits@D@std@@V?$allocator@D@2@@std@@V?$allocator@V?$basic_string@DU?$char_traits@D@std@@V?$allocator@D@2@@std@@@2@@std@@QAEXABV?$basic_string@DU?$char_traits@D@std@@V?$allocator@D@2@@2@@Z ENDP ; std::vector<std::basic_string<char,std::char_traits<char>,std::allocator<char> >,std::allocator<std::basic_string<char,std::char_traits<char>,std::allocator<char> > > >::push_back
; Function compile flags: /Odt /RTCsu
_TEXT	ENDS
;	COMDAT ?clear@?$vector@V?$basic_string@DU?$char_traits@D@std@@V?$allocator@D@2@@std@@V?$allocator@V?$basic_string@DU?$char_traits@D@std@@V?$allocator@D@2@@std@@@2@@std@@QAEXXZ
_TEXT	SEGMENT
_this$ = -4						; size = 4
?clear@?$vector@V?$basic_string@DU?$char_traits@D@std@@V?$allocator@D@2@@std@@V?$allocator@V?$basic_string@DU?$char_traits@D@std@@V?$allocator@D@2@@std@@@2@@std@@QAEXXZ PROC NEAR ; std::vector<std::basic_string<char,std::char_traits<char>,std::allocator<char> >,std::allocator<std::basic_string<char,std::char_traits<char>,std::allocator<char> > > >::clear, COMDAT
; _this$ = ecx

; 743  : 		{	// erase all

  00000	55		 push	 ebp
  00001	8b ec		 mov	 ebp, esp
  00003	51		 push	 ecx
  00004	c7 45 fc cc cc
	cc cc		 mov	 DWORD PTR [ebp-4], -858993460 ; ccccccccH
  0000b	89 4d fc	 mov	 DWORD PTR _this$[ebp], ecx

; 744  : 		_Tidy();

  0000e	8b 4d fc	 mov	 ecx, DWORD PTR _this$[ebp]
  00011	e8 00 00 00 00	 call	 ?_Tidy@?$vector@V?$basic_string@DU?$char_traits@D@std@@V?$allocator@D@2@@std@@V?$allocator@V?$basic_string@DU?$char_traits@D@std@@V?$allocator@D@2@@std@@@2@@std@@IAEXXZ ; std::vector<std::basic_string<char,std::char_traits<char>,std::allocator<char> >,std::allocator<std::basic_string<char,std::char_traits<char>,std::allocator<char> > > >::_Tidy

; 745  : 		}

  00016	83 c4 04	 add	 esp, 4
  00019	3b ec		 cmp	 ebp, esp
  0001b	e8 00 00 00 00	 call	 __RTC_CheckEsp
  00020	8b e5		 mov	 esp, ebp
  00022	5d		 pop	 ebp
  00023	c3		 ret	 0
?clear@?$vector@V?$basic_string@DU?$char_traits@D@std@@V?$allocator@D@2@@std@@V?$allocator@V?$basic_string@DU?$char_traits@D@std@@V?$allocator@D@2@@std@@@2@@std@@QAEXXZ ENDP ; std::vector<std::basic_string<char,std::char_traits<char>,std::allocator<char> >,std::allocator<std::basic_string<char,std::char_traits<char>,std::allocator<char> > > >::clear
_TEXT	ENDS
PUBLIC	??Dconst_iterator@?$vector@V?$basic_string@DU?$char_traits@D@std@@V?$allocator@D@2@@std@@V?$allocator@V?$basic_string@DU?$char_traits@D@std@@V?$allocator@D@2@@std@@@2@@std@@QBEABV?$basic_string@DU?$char_traits@D@std@@V?$allocator@D@2@@2@XZ ; std::vector<std::basic_string<char,std::char_traits<char>,std::allocator<char> >,std::allocator<std::basic_string<char,std::char_traits<char>,std::allocator<char> > > >::const_iterator::operator*
; Function compile flags: /Odt /RTCsu
;	COMDAT ??Diterator@?$vector@V?$basic_string@DU?$char_traits@D@std@@V?$allocator@D@2@@std@@V?$allocator@V?$basic_string@DU?$char_traits@D@std@@V?$allocator@D@2@@std@@@2@@std@@QBEAAV?$basic_string@DU?$char_traits@D@std@@V?$allocator@D@2@@2@XZ
_TEXT	SEGMENT
_this$ = -4						; size = 4
??Diterator@?$vector@V?$basic_string@DU?$char_traits@D@std@@V?$allocator@D@2@@std@@V?$allocator@V?$basic_string@DU?$char_traits@D@std@@V?$allocator@D@2@@std@@@2@@std@@QBEAAV?$basic_string@DU?$char_traits@D@std@@V?$allocator@D@2@@2@XZ PROC NEAR ; std::vector<std::basic_string<char,std::char_traits<char>,std::allocator<char> >,std::allocator<std::basic_string<char,std::char_traits<char>,std::allocator<char> > > >::iterator::operator*, COMDAT
; _this$ = ecx

; 219  : 			{	// return designated object

  00000	55		 push	 ebp
  00001	8b ec		 mov	 ebp, esp
  00003	51		 push	 ecx
  00004	c7 45 fc cc cc
	cc cc		 mov	 DWORD PTR [ebp-4], -858993460 ; ccccccccH
  0000b	89 4d fc	 mov	 DWORD PTR _this$[ebp], ecx

; 220  : 			return ((reference)**(const_iterator *)this);

  0000e	8b 4d fc	 mov	 ecx, DWORD PTR _this$[ebp]
  00011	e8 00 00 00 00	 call	 ??Dconst_iterator@?$vector@V?$basic_string@DU?$char_traits@D@std@@V?$allocator@D@2@@std@@V?$allocator@V?$basic_string@DU?$char_traits@D@std@@V?$allocator@D@2@@std@@@2@@std@@QBEABV?$basic_string@DU?$char_traits@D@std@@V?$allocator@D@2@@2@XZ ; std::vector<std::basic_string<char,std::char_traits<char>,std::allocator<char> >,std::allocator<std::basic_string<char,std::char_traits<char>,std::allocator<char> > > >::const_iterator::operator*

; 221  : 			}

  00016	83 c4 04	 add	 esp, 4
  00019	3b ec		 cmp	 ebp, esp
  0001b	e8 00 00 00 00	 call	 __RTC_CheckEsp
  00020	8b e5		 mov	 esp, ebp
  00022	5d		 pop	 ebp
  00023	c3		 ret	 0
??Diterator@?$vector@V?$basic_string@DU?$char_traits@D@std@@V?$allocator@D@2@@std@@V?$allocator@V?$basic_string@DU?$char_traits@D@std@@V?$allocator@D@2@@std@@@2@@std@@QBEAAV?$basic_string@DU?$char_traits@D@std@@V?$allocator@D@2@@2@XZ ENDP ; std::vector<std::basic_string<char,std::char_traits<char>,std::allocator<char> >,std::allocator<std::basic_string<char,std::char_traits<char>,std::allocator<char> > > >::iterator::operator*
_TEXT	ENDS
PUBLIC	??Eiterator@?$vector@V?$basic_string@DU?$char_traits@D@std@@V?$allocator@D@2@@std@@V?$allocator@V?$basic_string@DU?$char_traits@D@std@@V?$allocator@D@2@@std@@@2@@std@@QAEAAV012@XZ ; std::vector<std::basic_string<char,std::char_traits<char>,std::allocator<char> >,std::allocator<std::basic_string<char,std::char_traits<char>,std::allocator<char> > > >::iterator::operator++
; Function compile flags: /Odt /RTCsu
;	COMDAT ??Eiterator@?$vector@V?$basic_string@DU?$char_traits@D@std@@V?$allocator@D@2@@std@@V?$allocator@V?$basic_string@DU?$char_traits@D@std@@V?$allocator@D@2@@std@@@2@@std@@QAE?AV012@H@Z
_TEXT	SEGMENT
__Tmp$ = -12						; size = 4
_this$ = -4						; size = 4
___$ReturnUdt$ = 8					; size = 4
___formal$ = 12						; size = 4
??Eiterator@?$vector@V?$basic_string@DU?$char_traits@D@std@@V?$allocator@D@2@@std@@V?$allocator@V?$basic_string@DU?$char_traits@D@std@@V?$allocator@D@2@@std@@@2@@std@@QAE?AV012@H@Z PROC NEAR ; std::vector<std::basic_string<char,std::char_traits<char>,std::allocator<char> >,std::allocator<std::basic_string<char,std::char_traits<char>,std::allocator<char> > > >::iterator::operator++, COMDAT
; _this$ = ecx

; 235  : 			{	// postincrement

  00000	55		 push	 ebp
  00001	8b ec		 mov	 ebp, esp
  00003	83 ec 10	 sub	 esp, 16			; 00000010H
  00006	b8 cc cc cc cc	 mov	 eax, -858993460		; ccccccccH
  0000b	89 45 f0	 mov	 DWORD PTR [ebp-16], eax
  0000e	89 45 f4	 mov	 DWORD PTR [ebp-12], eax
  00011	89 45 f8	 mov	 DWORD PTR [ebp-8], eax
  00014	89 45 fc	 mov	 DWORD PTR [ebp-4], eax
  00017	89 4d fc	 mov	 DWORD PTR _this$[ebp], ecx

; 236  : 			iterator _Tmp = *this;

  0001a	8b 45 fc	 mov	 eax, DWORD PTR _this$[ebp]
  0001d	8b 08		 mov	 ecx, DWORD PTR [eax]
  0001f	89 4d f4	 mov	 DWORD PTR __Tmp$[ebp], ecx

; 237  : 			++*this;

  00022	8b 4d fc	 mov	 ecx, DWORD PTR _this$[ebp]
  00025	e8 00 00 00 00	 call	 ??Eiterator@?$vector@V?$basic_string@DU?$char_traits@D@std@@V?$allocator@D@2@@std@@V?$allocator@V?$basic_string@DU?$char_traits@D@std@@V?$allocator@D@2@@std@@@2@@std@@QAEAAV012@XZ ; std::vector<std::basic_string<char,std::char_traits<char>,std::allocator<char> >,std::allocator<std::basic_string<char,std::char_traits<char>,std::allocator<char> > > >::iterator::operator++

; 238  : 			return (_Tmp);

  0002a	8b 55 08	 mov	 edx, DWORD PTR ___$ReturnUdt$[ebp]
  0002d	8b 45 f4	 mov	 eax, DWORD PTR __Tmp$[ebp]
  00030	89 02		 mov	 DWORD PTR [edx], eax
  00032	8b 45 08	 mov	 eax, DWORD PTR ___$ReturnUdt$[ebp]

; 239  : 			}

  00035	52		 push	 edx
  00036	8b cd		 mov	 ecx, ebp
  00038	50		 push	 eax
  00039	8d 15 00 00 00
	00		 lea	 edx, DWORD PTR $L195529
  0003f	e8 00 00 00 00	 call	 @_RTC_CheckStackVars@8
  00044	58		 pop	 eax
  00045	5a		 pop	 edx
  00046	83 c4 10	 add	 esp, 16			; 00000010H
  00049	3b ec		 cmp	 ebp, esp
  0004b	e8 00 00 00 00	 call	 __RTC_CheckEsp
  00050	8b e5		 mov	 esp, ebp
  00052	5d		 pop	 ebp
  00053	c2 08 00	 ret	 8
$L195529:
  00056	01 00 00 00	 DD	 1
  0005a	00 00 00 00	 DD	 $L195528
$L195528:
  0005e	f4 ff ff ff	 DD	 -12			; fffffff4H
  00062	04 00 00 00	 DD	 4
  00066	00 00 00 00	 DD	 $L195527
$L195527:
  0006a	5f		 DB	 95			; 0000005fH
  0006b	54		 DB	 84			; 00000054H
  0006c	6d		 DB	 109			; 0000006dH
  0006d	70		 DB	 112			; 00000070H
  0006e	00		 DB	 0
??Eiterator@?$vector@V?$basic_string@DU?$char_traits@D@std@@V?$allocator@D@2@@std@@V?$allocator@V?$basic_string@DU?$char_traits@D@std@@V?$allocator@D@2@@std@@@2@@std@@QAE?AV012@H@Z ENDP ; std::vector<std::basic_string<char,std::char_traits<char>,std::allocator<char> >,std::allocator<std::basic_string<char,std::char_traits<char>,std::allocator<char> > > >::iterator::operator++
_TEXT	ENDS
PUBLIC	??8const_iterator@?$vector@V?$basic_string@DU?$char_traits@D@std@@V?$allocator@D@2@@std@@V?$allocator@V?$basic_string@DU?$char_traits@D@std@@V?$allocator@D@2@@std@@@2@@std@@QBE_NABV012@@Z ; std::vector<std::basic_string<char,std::char_traits<char>,std::allocator<char> >,std::allocator<std::basic_string<char,std::char_traits<char>,std::allocator<char> > > >::const_iterator::operator==
; Function compile flags: /Odt /RTCsu
;	COMDAT ??9const_iterator@?$vector@V?$basic_string@DU?$char_traits@D@std@@V?$allocator@D@2@@std@@V?$allocator@V?$basic_string@DU?$char_traits@D@std@@V?$allocator@D@2@@std@@@2@@std@@QBE_NABV012@@Z
_TEXT	SEGMENT
_this$ = -4						; size = 4
__Right$ = 8						; size = 4
??9const_iterator@?$vector@V?$basic_string@DU?$char_traits@D@std@@V?$allocator@D@2@@std@@V?$allocator@V?$basic_string@DU?$char_traits@D@std@@V?$allocator@D@2@@std@@@2@@std@@QBE_NABV012@@Z PROC NEAR ; std::vector<std::basic_string<char,std::char_traits<char>,std::allocator<char> >,std::allocator<std::basic_string<char,std::char_traits<char>,std::allocator<char> > > >::const_iterator::operator!=, COMDAT
; _this$ = ecx

; 159  : 			{	// test for iterator inequality

  00000	55		 push	 ebp
  00001	8b ec		 mov	 ebp, esp
  00003	51		 push	 ecx
  00004	c7 45 fc cc cc
	cc cc		 mov	 DWORD PTR [ebp-4], -858993460 ; ccccccccH
  0000b	89 4d fc	 mov	 DWORD PTR _this$[ebp], ecx

; 160  : 			return (!(*this == _Right));

  0000e	8b 45 08	 mov	 eax, DWORD PTR __Right$[ebp]
  00011	50		 push	 eax
  00012	8b 4d fc	 mov	 ecx, DWORD PTR _this$[ebp]
  00015	e8 00 00 00 00	 call	 ??8const_iterator@?$vector@V?$basic_string@DU?$char_traits@D@std@@V?$allocator@D@2@@std@@V?$allocator@V?$basic_string@DU?$char_traits@D@std@@V?$allocator@D@2@@std@@@2@@std@@QBE_NABV012@@Z ; std::vector<std::basic_string<char,std::char_traits<char>,std::allocator<char> >,std::allocator<std::basic_string<char,std::char_traits<char>,std::allocator<char> > > >::const_iterator::operator==
  0001a	0f b6 c0	 movzx	 eax, al
  0001d	f7 d8		 neg	 eax
  0001f	1b c0		 sbb	 eax, eax
  00021	40		 inc	 eax

; 161  : 			}

  00022	83 c4 04	 add	 esp, 4
  00025	3b ec		 cmp	 ebp, esp
  00027	e8 00 00 00 00	 call	 __RTC_CheckEsp
  0002c	8b e5		 mov	 esp, ebp
  0002e	5d		 pop	 ebp
  0002f	c2 04 00	 ret	 4
??9const_iterator@?$vector@V?$basic_string@DU?$char_traits@D@std@@V?$allocator@D@2@@std@@V?$allocator@V?$basic_string@DU?$char_traits@D@std@@V?$allocator@D@2@@std@@@2@@std@@QBE_NABV012@@Z ENDP ; std::vector<std::basic_string<char,std::char_traits<char>,std::allocator<char> >,std::allocator<std::basic_string<char,std::char_traits<char>,std::allocator<char> > > >::const_iterator::operator!=
_TEXT	ENDS
PUBLIC	??Diterator@?$vector@UOneLocalGame@@V?$allocator@UOneLocalGame@@@std@@@std@@QBEAAUOneLocalGame@@XZ ; std::vector<OneLocalGame,std::allocator<OneLocalGame> >::iterator::operator*
; Function compile flags: /Odt /RTCsu
;	COMDAT ??Citerator@?$vector@UOneLocalGame@@V?$allocator@UOneLocalGame@@@std@@@std@@QBEPAUOneLocalGame@@XZ
_TEXT	SEGMENT
_this$ = -4						; size = 4
??Citerator@?$vector@UOneLocalGame@@V?$allocator@UOneLocalGame@@@std@@@std@@QBEPAUOneLocalGame@@XZ PROC NEAR ; std::vector<OneLocalGame,std::allocator<OneLocalGame> >::iterator::operator->, COMDAT
; _this$ = ecx

; 224  : 			{	// return pointer to class object

  00000	55		 push	 ebp
  00001	8b ec		 mov	 ebp, esp
  00003	51		 push	 ecx
  00004	c7 45 fc cc cc
	cc cc		 mov	 DWORD PTR [ebp-4], -858993460 ; ccccccccH
  0000b	89 4d fc	 mov	 DWORD PTR _this$[ebp], ecx

; 225  : 			return (&**this);

  0000e	8b 4d fc	 mov	 ecx, DWORD PTR _this$[ebp]
  00011	e8 00 00 00 00	 call	 ??Diterator@?$vector@UOneLocalGame@@V?$allocator@UOneLocalGame@@@std@@@std@@QBEAAUOneLocalGame@@XZ ; std::vector<OneLocalGame,std::allocator<OneLocalGame> >::iterator::operator*

; 226  : 			}

  00016	83 c4 04	 add	 esp, 4
  00019	3b ec		 cmp	 ebp, esp
  0001b	e8 00 00 00 00	 call	 __RTC_CheckEsp
  00020	8b e5		 mov	 esp, ebp
  00022	5d		 pop	 ebp
  00023	c3		 ret	 0
??Citerator@?$vector@UOneLocalGame@@V?$allocator@UOneLocalGame@@@std@@@std@@QBEPAUOneLocalGame@@XZ ENDP ; std::vector<OneLocalGame,std::allocator<OneLocalGame> >::iterator::operator->
_TEXT	ENDS
PUBLIC	??Eiterator@?$vector@UOneLocalGame@@V?$allocator@UOneLocalGame@@@std@@@std@@QAEAAV012@XZ ; std::vector<OneLocalGame,std::allocator<OneLocalGame> >::iterator::operator++
; Function compile flags: /Odt /RTCsu
;	COMDAT ??Eiterator@?$vector@UOneLocalGame@@V?$allocator@UOneLocalGame@@@std@@@std@@QAE?AV012@H@Z
_TEXT	SEGMENT
__Tmp$ = -12						; size = 4
_this$ = -4						; size = 4
___$ReturnUdt$ = 8					; size = 4
___formal$ = 12						; size = 4
??Eiterator@?$vector@UOneLocalGame@@V?$allocator@UOneLocalGame@@@std@@@std@@QAE?AV012@H@Z PROC NEAR ; std::vector<OneLocalGame,std::allocator<OneLocalGame> >::iterator::operator++, COMDAT
; _this$ = ecx

; 235  : 			{	// postincrement

  00000	55		 push	 ebp
  00001	8b ec		 mov	 ebp, esp
  00003	83 ec 10	 sub	 esp, 16			; 00000010H
  00006	b8 cc cc cc cc	 mov	 eax, -858993460		; ccccccccH
  0000b	89 45 f0	 mov	 DWORD PTR [ebp-16], eax
  0000e	89 45 f4	 mov	 DWORD PTR [ebp-12], eax
  00011	89 45 f8	 mov	 DWORD PTR [ebp-8], eax
  00014	89 45 fc	 mov	 DWORD PTR [ebp-4], eax
  00017	89 4d fc	 mov	 DWORD PTR _this$[ebp], ecx

; 236  : 			iterator _Tmp = *this;

  0001a	8b 45 fc	 mov	 eax, DWORD PTR _this$[ebp]
  0001d	8b 08		 mov	 ecx, DWORD PTR [eax]
  0001f	89 4d f4	 mov	 DWORD PTR __Tmp$[ebp], ecx

; 237  : 			++*this;

  00022	8b 4d fc	 mov	 ecx, DWORD PTR _this$[ebp]
  00025	e8 00 00 00 00	 call	 ??Eiterator@?$vector@UOneLocalGame@@V?$allocator@UOneLocalGame@@@std@@@std@@QAEAAV012@XZ ; std::vector<OneLocalGame,std::allocator<OneLocalGame> >::iterator::operator++

; 238  : 			return (_Tmp);

  0002a	8b 55 08	 mov	 edx, DWORD PTR ___$ReturnUdt$[ebp]
  0002d	8b 45 f4	 mov	 eax, DWORD PTR __Tmp$[ebp]
  00030	89 02		 mov	 DWORD PTR [edx], eax
  00032	8b 45 08	 mov	 eax, DWORD PTR ___$ReturnUdt$[ebp]

; 239  : 			}

  00035	52		 push	 edx
  00036	8b cd		 mov	 ecx, ebp
  00038	50		 push	 eax
  00039	8d 15 00 00 00
	00		 lea	 edx, DWORD PTR $L195535
  0003f	e8 00 00 00 00	 call	 @_RTC_CheckStackVars@8
  00044	58		 pop	 eax
  00045	5a		 pop	 edx
  00046	83 c4 10	 add	 esp, 16			; 00000010H
  00049	3b ec		 cmp	 ebp, esp
  0004b	e8 00 00 00 00	 call	 __RTC_CheckEsp
  00050	8b e5		 mov	 esp, ebp
  00052	5d		 pop	 ebp
  00053	c2 08 00	 ret	 8
$L195535:
  00056	01 00 00 00	 DD	 1
  0005a	00 00 00 00	 DD	 $L195534
$L195534:
  0005e	f4 ff ff ff	 DD	 -12			; fffffff4H
  00062	04 00 00 00	 DD	 4
  00066	00 00 00 00	 DD	 $L195533
$L195533:
  0006a	5f		 DB	 95			; 0000005fH
  0006b	54		 DB	 84			; 00000054H
  0006c	6d		 DB	 109			; 0000006dH
  0006d	70		 DB	 112			; 00000070H
  0006e	00		 DB	 0
??Eiterator@?$vector@UOneLocalGame@@V?$allocator@UOneLocalGame@@@std@@@std@@QAE?AV012@H@Z ENDP ; std::vector<OneLocalGame,std::allocator<OneLocalGame> >::iterator::operator++
_TEXT	ENDS
PUBLIC	??8const_iterator@?$vector@UOneLocalGame@@V?$allocator@UOneLocalGame@@@std@@@std@@QBE_NABV012@@Z ; std::vector<OneLocalGame,std::allocator<OneLocalGame> >::const_iterator::operator==
; Function compile flags: /Odt /RTCsu
;	COMDAT ??9const_iterator@?$vector@UOneLocalGame@@V?$allocator@UOneLocalGame@@@std@@@std@@QBE_NABV012@@Z
_TEXT	SEGMENT
_this$ = -4						; size = 4
__Right$ = 8						; size = 4
??9const_iterator@?$vector@UOneLocalGame@@V?$allocator@UOneLocalGame@@@std@@@std@@QBE_NABV012@@Z PROC NEAR ; std::vector<OneLocalGame,std::allocator<OneLocalGame> >::const_iterator::operator!=, COMDAT
; _this$ = ecx

; 159  : 			{	// test for iterator inequality

  00000	55		 push	 ebp
  00001	8b ec		 mov	 ebp, esp
  00003	51		 push	 ecx
  00004	c7 45 fc cc cc
	cc cc		 mov	 DWORD PTR [ebp-4], -858993460 ; ccccccccH
  0000b	89 4d fc	 mov	 DWORD PTR _this$[ebp], ecx

; 160  : 			return (!(*this == _Right));

  0000e	8b 45 08	 mov	 eax, DWORD PTR __Right$[ebp]
  00011	50		 push	 eax
  00012	8b 4d fc	 mov	 ecx, DWORD PTR _this$[ebp]
  00015	e8 00 00 00 00	 call	 ??8const_iterator@?$vector@UOneLocalGame@@V?$allocator@UOneLocalGame@@@std@@@std@@QBE_NABV012@@Z ; std::vector<OneLocalGame,std::allocator<OneLocalGame> >::const_iterator::operator==
  0001a	0f b6 c0	 movzx	 eax, al
  0001d	f7 d8		 neg	 eax
  0001f	1b c0		 sbb	 eax, eax
  00021	40		 inc	 eax

; 161  : 			}

  00022	83 c4 04	 add	 esp, 4
  00025	3b ec		 cmp	 ebp, esp
  00027	e8 00 00 00 00	 call	 __RTC_CheckEsp
  0002c	8b e5		 mov	 esp, ebp
  0002e	5d		 pop	 ebp
  0002f	c2 04 00	 ret	 4
??9const_iterator@?$vector@UOneLocalGame@@V?$allocator@UOneLocalGame@@@std@@@std@@QBE_NABV012@@Z ENDP ; std::vector<OneLocalGame,std::allocator<OneLocalGame> >::const_iterator::operator!=
; Function compile flags: /Odt /RTCsu
; File d:\program files (x86)\microsoft visual studio .net 2003\vc7\include\xmemory
_TEXT	ENDS
;	COMDAT ??0?$allocator@V?$basic_string@DU?$char_traits@D@std@@V?$allocator@D@2@@std@@@std@@QAE@XZ
_TEXT	SEGMENT
_this$ = -4						; size = 4
??0?$allocator@V?$basic_string@DU?$char_traits@D@std@@V?$allocator@D@2@@std@@@std@@QAE@XZ PROC NEAR ; std::allocator<std::basic_string<char,std::char_traits<char>,std::allocator<char> > >::allocator<std::basic_string<char,std::char_traits<char>,std::allocator<char> > >, COMDAT
; _this$ = ecx

; 111  : 	allocator()

  00000	55		 push	 ebp
  00001	8b ec		 mov	 ebp, esp
  00003	51		 push	 ecx
  00004	c7 45 fc cc cc
	cc cc		 mov	 DWORD PTR [ebp-4], -858993460 ; ccccccccH
  0000b	89 4d fc	 mov	 DWORD PTR _this$[ebp], ecx

; 112  : 		{	// construct default allocator (do nothing)
; 113  : 		}

  0000e	8b 45 fc	 mov	 eax, DWORD PTR _this$[ebp]
  00011	8b e5		 mov	 esp, ebp
  00013	5d		 pop	 ebp
  00014	c3		 ret	 0
??0?$allocator@V?$basic_string@DU?$char_traits@D@std@@V?$allocator@D@2@@std@@@std@@QAE@XZ ENDP ; std::allocator<std::basic_string<char,std::char_traits<char>,std::allocator<char> > >::allocator<std::basic_string<char,std::char_traits<char>,std::allocator<char> > >
_TEXT	ENDS
PUBLIC	??0iterator@?$vector@U_tagLMCItemInfo@@V?$allocator@U_tagLMCItemInfo@@@std@@@std@@QAE@PAU_tagLMCItemInfo@@@Z ; std::vector<_tagLMCItemInfo,std::allocator<_tagLMCItemInfo> >::iterator::iterator
; Function compile flags: /Odt /RTCsu
; File d:\program files (x86)\microsoft visual studio .net 2003\vc7\include\vector
;	COMDAT ?begin@?$vector@U_tagLMCItemInfo@@V?$allocator@U_tagLMCItemInfo@@@std@@@std@@QAE?AViterator@12@XZ
_TEXT	SEGMENT
_this$ = -4						; size = 4
___$ReturnUdt$ = 8					; size = 4
?begin@?$vector@U_tagLMCItemInfo@@V?$allocator@U_tagLMCItemInfo@@@std@@@std@@QAE?AViterator@12@XZ PROC NEAR ; std::vector<_tagLMCItemInfo,std::allocator<_tagLMCItemInfo> >::begin, COMDAT
; _this$ = ecx

; 462  : 		{	// return iterator for beginning of mutable sequence

  00000	55		 push	 ebp
  00001	8b ec		 mov	 ebp, esp
  00003	51		 push	 ecx
  00004	c7 45 fc cc cc
	cc cc		 mov	 DWORD PTR [ebp-4], -858993460 ; ccccccccH
  0000b	89 4d fc	 mov	 DWORD PTR _this$[ebp], ecx

; 463  : 		return (iterator(_Myfirst));

  0000e	8b 45 fc	 mov	 eax, DWORD PTR _this$[ebp]
  00011	8b 48 04	 mov	 ecx, DWORD PTR [eax+4]
  00014	51		 push	 ecx
  00015	8b 4d 08	 mov	 ecx, DWORD PTR ___$ReturnUdt$[ebp]
  00018	e8 00 00 00 00	 call	 ??0iterator@?$vector@U_tagLMCItemInfo@@V?$allocator@U_tagLMCItemInfo@@@std@@@std@@QAE@PAU_tagLMCItemInfo@@@Z ; std::vector<_tagLMCItemInfo,std::allocator<_tagLMCItemInfo> >::iterator::iterator
  0001d	8b 45 08	 mov	 eax, DWORD PTR ___$ReturnUdt$[ebp]

; 464  : 		}

  00020	83 c4 04	 add	 esp, 4
  00023	3b ec		 cmp	 ebp, esp
  00025	e8 00 00 00 00	 call	 __RTC_CheckEsp
  0002a	8b e5		 mov	 esp, ebp
  0002c	5d		 pop	 ebp
  0002d	c2 04 00	 ret	 4
?begin@?$vector@U_tagLMCItemInfo@@V?$allocator@U_tagLMCItemInfo@@@std@@@std@@QAE?AViterator@12@XZ ENDP ; std::vector<_tagLMCItemInfo,std::allocator<_tagLMCItemInfo> >::begin
_TEXT	ENDS
PUBLIC	?allocate@?$allocator@UOneLocalGame@@@std@@QAEPAUOneLocalGame@@I@Z ; std::allocator<OneLocalGame>::allocate
PUBLIC	?max_size@?$vector@UOneLocalGame@@V?$allocator@UOneLocalGame@@@std@@@std@@QBEIXZ ; std::vector<OneLocalGame,std::allocator<OneLocalGame> >::max_size
PUBLIC	?_Xlen@?$vector@UOneLocalGame@@V?$allocator@UOneLocalGame@@@std@@@std@@IBEXXZ ; std::vector<OneLocalGame,std::allocator<OneLocalGame> >::_Xlen
; Function compile flags: /Odt /RTCsu
;	COMDAT ?_Buy@?$vector@UOneLocalGame@@V?$allocator@UOneLocalGame@@@std@@@std@@IAE_NI@Z
_TEXT	SEGMENT
_this$ = -4						; size = 4
__Capacity$ = 8						; size = 4
?_Buy@?$vector@UOneLocalGame@@V?$allocator@UOneLocalGame@@@std@@@std@@IAE_NI@Z PROC NEAR ; std::vector<OneLocalGame,std::allocator<OneLocalGame> >::_Buy, COMDAT
; _this$ = ecx

; 770  : 		{	// allocate array with _Capacity elements

  00000	55		 push	 ebp
  00001	8b ec		 mov	 ebp, esp
  00003	51		 push	 ecx
  00004	c7 45 fc cc cc
	cc cc		 mov	 DWORD PTR [ebp-4], -858993460 ; ccccccccH
  0000b	89 4d fc	 mov	 DWORD PTR _this$[ebp], ecx

; 771  : 		_Myfirst = 0, _Mylast = 0, _Myend = 0;

  0000e	8b 45 fc	 mov	 eax, DWORD PTR _this$[ebp]
  00011	c7 40 04 00 00
	00 00		 mov	 DWORD PTR [eax+4], 0
  00018	8b 4d fc	 mov	 ecx, DWORD PTR _this$[ebp]
  0001b	c7 41 08 00 00
	00 00		 mov	 DWORD PTR [ecx+8], 0
  00022	8b 55 fc	 mov	 edx, DWORD PTR _this$[ebp]
  00025	c7 42 0c 00 00
	00 00		 mov	 DWORD PTR [edx+12], 0

; 772  : 		if (_Capacity == 0)

  0002c	83 7d 08 00	 cmp	 DWORD PTR __Capacity$[ebp], 0
  00030	75 04		 jne	 SHORT $L193440

; 773  : 			return (false);

  00032	32 c0		 xor	 al, al
  00034	eb 4c		 jmp	 SHORT $L193439
$L193440:

; 774  : 		else if (max_size() < _Capacity)

  00036	8b 4d fc	 mov	 ecx, DWORD PTR _this$[ebp]
  00039	e8 00 00 00 00	 call	 ?max_size@?$vector@UOneLocalGame@@V?$allocator@UOneLocalGame@@@std@@@std@@QBEIXZ ; std::vector<OneLocalGame,std::allocator<OneLocalGame> >::max_size
  0003e	3b 45 08	 cmp	 eax, DWORD PTR __Capacity$[ebp]
  00041	73 0a		 jae	 SHORT $L193442

; 775  : 			_Xlen();	// result too long

  00043	8b 4d fc	 mov	 ecx, DWORD PTR _this$[ebp]
  00046	e8 00 00 00 00	 call	 ?_Xlen@?$vector@UOneLocalGame@@V?$allocator@UOneLocalGame@@@std@@@std@@IBEXXZ ; std::vector<OneLocalGame,std::allocator<OneLocalGame> >::_Xlen

; 776  : 		else

  0004b	eb 33		 jmp	 SHORT $L193441
$L193442:

; 777  : 			{	// nonempty array, allocate storage
; 778  : 			_Myfirst = this->_Alval.allocate(_Capacity);

  0004d	8b 45 08	 mov	 eax, DWORD PTR __Capacity$[ebp]
  00050	50		 push	 eax
  00051	8b 4d fc	 mov	 ecx, DWORD PTR _this$[ebp]
  00054	e8 00 00 00 00	 call	 ?allocate@?$allocator@UOneLocalGame@@@std@@QAEPAUOneLocalGame@@I@Z ; std::allocator<OneLocalGame>::allocate
  00059	8b 4d fc	 mov	 ecx, DWORD PTR _this$[ebp]
  0005c	89 41 04	 mov	 DWORD PTR [ecx+4], eax

; 779  : 			_Mylast = _Myfirst;

  0005f	8b 55 fc	 mov	 edx, DWORD PTR _this$[ebp]
  00062	8b 45 fc	 mov	 eax, DWORD PTR _this$[ebp]
  00065	8b 48 04	 mov	 ecx, DWORD PTR [eax+4]
  00068	89 4a 08	 mov	 DWORD PTR [edx+8], ecx

; 780  : 			_Myend = _Myfirst + _Capacity;

  0006b	8b 55 08	 mov	 edx, DWORD PTR __Capacity$[ebp]
  0006e	69 d2 90 00 00
	00		 imul	 edx, 144		; 00000090H
  00074	8b 45 fc	 mov	 eax, DWORD PTR _this$[ebp]
  00077	03 50 04	 add	 edx, DWORD PTR [eax+4]
  0007a	8b 4d fc	 mov	 ecx, DWORD PTR _this$[ebp]
  0007d	89 51 0c	 mov	 DWORD PTR [ecx+12], edx
$L193441:

; 781  : 			}
; 782  : 		return (true);

  00080	b0 01		 mov	 al, 1
$L193439:

; 783  : 		}

  00082	83 c4 04	 add	 esp, 4
  00085	3b ec		 cmp	 ebp, esp
  00087	e8 00 00 00 00	 call	 __RTC_CheckEsp
  0008c	8b e5		 mov	 esp, ebp
  0008e	5d		 pop	 ebp
  0008f	c2 04 00	 ret	 4
?_Buy@?$vector@UOneLocalGame@@V?$allocator@UOneLocalGame@@@std@@@std@@IAE_NI@Z ENDP ; std::vector<OneLocalGame,std::allocator<OneLocalGame> >::_Buy
_TEXT	ENDS
PUBLIC	?deallocate@?$allocator@UOneLocalGame@@@std@@QAEXPAUOneLocalGame@@I@Z ; std::allocator<OneLocalGame>::deallocate
PUBLIC	?_Destroy@?$vector@UOneLocalGame@@V?$allocator@UOneLocalGame@@@std@@@std@@IAEXPAUOneLocalGame@@0@Z ; std::vector<OneLocalGame,std::allocator<OneLocalGame> >::_Destroy
; Function compile flags: /Odt /RTCsu
;	COMDAT ?_Tidy@?$vector@UOneLocalGame@@V?$allocator@UOneLocalGame@@@std@@@std@@IAEXXZ
_TEXT	SEGMENT
_this$ = -4						; size = 4
?_Tidy@?$vector@UOneLocalGame@@V?$allocator@UOneLocalGame@@@std@@@std@@IAEXXZ PROC NEAR ; std::vector<OneLocalGame,std::allocator<OneLocalGame> >::_Tidy, COMDAT
; _this$ = ecx

; 791  : 		{	// free all storage

  00000	55		 push	 ebp
  00001	8b ec		 mov	 ebp, esp
  00003	51		 push	 ecx
  00004	c7 45 fc cc cc
	cc cc		 mov	 DWORD PTR [ebp-4], -858993460 ; ccccccccH
  0000b	89 4d fc	 mov	 DWORD PTR _this$[ebp], ecx

; 792  : 		if (_Myfirst != 0)

  0000e	8b 45 fc	 mov	 eax, DWORD PTR _this$[ebp]
  00011	83 78 04 00	 cmp	 DWORD PTR [eax+4], 0
  00015	74 3c		 je	 SHORT $L193446

; 793  : 			{	// something to free, destroy and deallocate it
; 794  : 			_Destroy(_Myfirst, _Mylast);

  00017	8b 4d fc	 mov	 ecx, DWORD PTR _this$[ebp]
  0001a	8b 51 08	 mov	 edx, DWORD PTR [ecx+8]
  0001d	52		 push	 edx
  0001e	8b 45 fc	 mov	 eax, DWORD PTR _this$[ebp]
  00021	8b 48 04	 mov	 ecx, DWORD PTR [eax+4]
  00024	51		 push	 ecx
  00025	8b 4d fc	 mov	 ecx, DWORD PTR _this$[ebp]
  00028	e8 00 00 00 00	 call	 ?_Destroy@?$vector@UOneLocalGame@@V?$allocator@UOneLocalGame@@@std@@@std@@IAEXPAUOneLocalGame@@0@Z ; std::vector<OneLocalGame,std::allocator<OneLocalGame> >::_Destroy

; 795  : 			this->_Alval.deallocate(_Myfirst, _Myend - _Myfirst);

  0002d	8b 55 fc	 mov	 edx, DWORD PTR _this$[ebp]
  00030	8b 45 fc	 mov	 eax, DWORD PTR _this$[ebp]
  00033	8b 4a 0c	 mov	 ecx, DWORD PTR [edx+12]
  00036	2b 48 04	 sub	 ecx, DWORD PTR [eax+4]
  00039	8b c1		 mov	 eax, ecx
  0003b	99		 cdq
  0003c	b9 90 00 00 00	 mov	 ecx, 144		; 00000090H
  00041	f7 f9		 idiv	 ecx
  00043	50		 push	 eax
  00044	8b 55 fc	 mov	 edx, DWORD PTR _this$[ebp]
  00047	8b 42 04	 mov	 eax, DWORD PTR [edx+4]
  0004a	50		 push	 eax
  0004b	8b 4d fc	 mov	 ecx, DWORD PTR _this$[ebp]
  0004e	e8 00 00 00 00	 call	 ?deallocate@?$allocator@UOneLocalGame@@@std@@QAEXPAUOneLocalGame@@I@Z ; std::allocator<OneLocalGame>::deallocate
$L193446:

; 796  : 			}
; 797  : 		_Myfirst = 0, _Mylast = 0, _Myend = 0;

  00053	8b 4d fc	 mov	 ecx, DWORD PTR _this$[ebp]
  00056	c7 41 04 00 00
	00 00		 mov	 DWORD PTR [ecx+4], 0
  0005d	8b 55 fc	 mov	 edx, DWORD PTR _this$[ebp]
  00060	c7 42 08 00 00
	00 00		 mov	 DWORD PTR [edx+8], 0
  00067	8b 45 fc	 mov	 eax, DWORD PTR _this$[ebp]
  0006a	c7 40 0c 00 00
	00 00		 mov	 DWORD PTR [eax+12], 0

; 798  : 		}

  00071	83 c4 04	 add	 esp, 4
  00074	3b ec		 cmp	 ebp, esp
  00076	e8 00 00 00 00	 call	 __RTC_CheckEsp
  0007b	8b e5		 mov	 esp, ebp
  0007d	5d		 pop	 ebp
  0007e	c3		 ret	 0
?_Tidy@?$vector@UOneLocalGame@@V?$allocator@UOneLocalGame@@@std@@@std@@IAEXXZ ENDP ; std::vector<OneLocalGame,std::allocator<OneLocalGame> >::_Tidy
_TEXT	ENDS
PUBLIC	??0?$allocator@UOneLocalGame@@@std@@QAE@ABV01@@Z ; std::allocator<OneLocalGame>::allocator<OneLocalGame>
; Function compile flags: /Odt /RTCsu
;	COMDAT ??0?$_Vector_val@UOneLocalGame@@V?$allocator@UOneLocalGame@@@std@@@std@@IAE@V?$allocator@UOneLocalGame@@@1@@Z
_TEXT	SEGMENT
_this$ = -4						; size = 4
__Al$ = 8						; size = 1
??0?$_Vector_val@UOneLocalGame@@V?$allocator@UOneLocalGame@@@std@@@std@@IAE@V?$allocator@UOneLocalGame@@@1@@Z PROC NEAR ; std::_Vector_val<OneLocalGame,std::allocator<OneLocalGame> >::_Vector_val<OneLocalGame,std::allocator<OneLocalGame> >, COMDAT
; _this$ = ecx

; 21   : 		{	// construct allocator from _Al

  00000	55		 push	 ebp
  00001	8b ec		 mov	 ebp, esp
  00003	51		 push	 ecx
  00004	c7 45 fc cc cc
	cc cc		 mov	 DWORD PTR [ebp-4], -858993460 ; ccccccccH
  0000b	89 4d fc	 mov	 DWORD PTR _this$[ebp], ecx
  0000e	8d 45 08	 lea	 eax, DWORD PTR __Al$[ebp]
  00011	50		 push	 eax
  00012	8b 4d fc	 mov	 ecx, DWORD PTR _this$[ebp]
  00015	e8 00 00 00 00	 call	 ??0?$allocator@UOneLocalGame@@@std@@QAE@ABV01@@Z ; std::allocator<OneLocalGame>::allocator<OneLocalGame>

; 22   : 		}

  0001a	8b 45 fc	 mov	 eax, DWORD PTR _this$[ebp]
  0001d	83 c4 04	 add	 esp, 4
  00020	3b ec		 cmp	 ebp, esp
  00022	e8 00 00 00 00	 call	 __RTC_CheckEsp
  00027	8b e5		 mov	 esp, ebp
  00029	5d		 pop	 ebp
  0002a	c2 04 00	 ret	 4
??0?$_Vector_val@UOneLocalGame@@V?$allocator@UOneLocalGame@@@std@@@std@@IAE@V?$allocator@UOneLocalGame@@@1@@Z ENDP ; std::_Vector_val<OneLocalGame,std::allocator<OneLocalGame> >::_Vector_val<OneLocalGame,std::allocator<OneLocalGame> >
; Function compile flags: /Odt /RTCsu
; File d:\program files (x86)\microsoft visual studio .net 2003\vc7\include\xmemory
_TEXT	ENDS
;	COMDAT ??0?$allocator@UOneLocalGame@@@std@@QAE@XZ
_TEXT	SEGMENT
_this$ = -4						; size = 4
??0?$allocator@UOneLocalGame@@@std@@QAE@XZ PROC NEAR	; std::allocator<OneLocalGame>::allocator<OneLocalGame>, COMDAT
; _this$ = ecx

; 111  : 	allocator()

  00000	55		 push	 ebp
  00001	8b ec		 mov	 ebp, esp
  00003	51		 push	 ecx
  00004	c7 45 fc cc cc
	cc cc		 mov	 DWORD PTR [ebp-4], -858993460 ; ccccccccH
  0000b	89 4d fc	 mov	 DWORD PTR _this$[ebp], ecx

; 112  : 		{	// construct default allocator (do nothing)
; 113  : 		}

  0000e	8b 45 fc	 mov	 eax, DWORD PTR _this$[ebp]
  00011	8b e5		 mov	 esp, ebp
  00013	5d		 pop	 ebp
  00014	c3		 ret	 0
??0?$allocator@UOneLocalGame@@@std@@QAE@XZ ENDP		; std::allocator<OneLocalGame>::allocator<OneLocalGame>
; Function compile flags: /Odt /RTCsu
; File d:\program files (x86)\microsoft visual studio .net 2003\vc7\include\vector
_TEXT	ENDS
;	COMDAT ?capacity@?$vector@HV?$allocator@H@std@@@std@@QBEIXZ
_TEXT	SEGMENT
tv70 = -8						; size = 4
_this$ = -4						; size = 4
?capacity@?$vector@HV?$allocator@H@std@@@std@@QBEIXZ PROC NEAR ; std::vector<int,std::allocator<int> >::capacity, COMDAT
; _this$ = ecx

; 457  : 		{	// return current length of allocated storage

  00000	55		 push	 ebp
  00001	8b ec		 mov	 ebp, esp
  00003	83 ec 08	 sub	 esp, 8
  00006	c7 45 f8 cc cc
	cc cc		 mov	 DWORD PTR [ebp-8], -858993460 ; ccccccccH
  0000d	c7 45 fc cc cc
	cc cc		 mov	 DWORD PTR [ebp-4], -858993460 ; ccccccccH
  00014	89 4d fc	 mov	 DWORD PTR _this$[ebp], ecx

; 458  : 		return (_Myfirst == 0 ? 0 : _Myend - _Myfirst);

  00017	8b 45 fc	 mov	 eax, DWORD PTR _this$[ebp]
  0001a	83 78 04 00	 cmp	 DWORD PTR [eax+4], 0
  0001e	75 09		 jne	 SHORT $L195544
  00020	c7 45 f8 00 00
	00 00		 mov	 DWORD PTR tv70[ebp], 0
  00027	eb 12		 jmp	 SHORT $L195545
$L195544:
  00029	8b 4d fc	 mov	 ecx, DWORD PTR _this$[ebp]
  0002c	8b 55 fc	 mov	 edx, DWORD PTR _this$[ebp]
  0002f	8b 41 0c	 mov	 eax, DWORD PTR [ecx+12]
  00032	2b 42 04	 sub	 eax, DWORD PTR [edx+4]
  00035	c1 f8 02	 sar	 eax, 2
  00038	89 45 f8	 mov	 DWORD PTR tv70[ebp], eax
$L195545:
  0003b	8b 45 f8	 mov	 eax, DWORD PTR tv70[ebp]

; 459  : 		}

  0003e	8b e5		 mov	 esp, ebp
  00040	5d		 pop	 ebp
  00041	c3		 ret	 0
?capacity@?$vector@HV?$allocator@H@std@@@std@@QBEIXZ ENDP ; std::vector<int,std::allocator<int> >::capacity
_TEXT	ENDS
PUBLIC	??0iterator@?$vector@HV?$allocator@H@std@@@std@@QAE@PAH@Z ; std::vector<int,std::allocator<int> >::iterator::iterator
; Function compile flags: /Odt /RTCsu
;	COMDAT ?begin@?$vector@HV?$allocator@H@std@@@std@@QAE?AViterator@12@XZ
_TEXT	SEGMENT
_this$ = -4						; size = 4
___$ReturnUdt$ = 8					; size = 4
?begin@?$vector@HV?$allocator@H@std@@@std@@QAE?AViterator@12@XZ PROC NEAR ; std::vector<int,std::allocator<int> >::begin, COMDAT
; _this$ = ecx

; 462  : 		{	// return iterator for beginning of mutable sequence

  00000	55		 push	 ebp
  00001	8b ec		 mov	 ebp, esp
  00003	51		 push	 ecx
  00004	c7 45 fc cc cc
	cc cc		 mov	 DWORD PTR [ebp-4], -858993460 ; ccccccccH
  0000b	89 4d fc	 mov	 DWORD PTR _this$[ebp], ecx

; 463  : 		return (iterator(_Myfirst));

  0000e	8b 45 fc	 mov	 eax, DWORD PTR _this$[ebp]
  00011	8b 48 04	 mov	 ecx, DWORD PTR [eax+4]
  00014	51		 push	 ecx
  00015	8b 4d 08	 mov	 ecx, DWORD PTR ___$ReturnUdt$[ebp]
  00018	e8 00 00 00 00	 call	 ??0iterator@?$vector@HV?$allocator@H@std@@@std@@QAE@PAH@Z ; std::vector<int,std::allocator<int> >::iterator::iterator
  0001d	8b 45 08	 mov	 eax, DWORD PTR ___$ReturnUdt$[ebp]

; 464  : 		}

  00020	83 c4 04	 add	 esp, 4
  00023	3b ec		 cmp	 ebp, esp
  00025	e8 00 00 00 00	 call	 __RTC_CheckEsp
  0002a	8b e5		 mov	 esp, ebp
  0002c	5d		 pop	 ebp
  0002d	c2 04 00	 ret	 4
?begin@?$vector@HV?$allocator@H@std@@@std@@QAE?AViterator@12@XZ ENDP ; std::vector<int,std::allocator<int> >::begin
; Function compile flags: /Odt /RTCsu
_TEXT	ENDS
;	COMDAT ?clear@?$vector@HV?$allocator@H@std@@@std@@QAEXXZ
_TEXT	SEGMENT
_this$ = -4						; size = 4
?clear@?$vector@HV?$allocator@H@std@@@std@@QAEXXZ PROC NEAR ; std::vector<int,std::allocator<int> >::clear, COMDAT
; _this$ = ecx

; 743  : 		{	// erase all

  00000	55		 push	 ebp
  00001	8b ec		 mov	 ebp, esp
  00003	51		 push	 ecx
  00004	c7 45 fc cc cc
	cc cc		 mov	 DWORD PTR [ebp-4], -858993460 ; ccccccccH
  0000b	89 4d fc	 mov	 DWORD PTR _this$[ebp], ecx

; 744  : 		_Tidy();

  0000e	8b 4d fc	 mov	 ecx, DWORD PTR _this$[ebp]
  00011	e8 00 00 00 00	 call	 ?_Tidy@?$vector@HV?$allocator@H@std@@@std@@IAEXXZ ; std::vector<int,std::allocator<int> >::_Tidy

; 745  : 		}

  00016	83 c4 04	 add	 esp, 4
  00019	3b ec		 cmp	 ebp, esp
  0001b	e8 00 00 00 00	 call	 __RTC_CheckEsp
  00020	8b e5		 mov	 esp, ebp
  00022	5d		 pop	 ebp
  00023	c3		 ret	 0
?clear@?$vector@HV?$allocator@H@std@@@std@@QAEXXZ ENDP	; std::vector<int,std::allocator<int> >::clear
_TEXT	ENDS
PUBLIC	?allocate@?$allocator@H@std@@QAEPAHI@Z		; std::allocator<int>::allocate
PUBLIC	?max_size@?$vector@HV?$allocator@H@std@@@std@@QBEIXZ ; std::vector<int,std::allocator<int> >::max_size
PUBLIC	?_Xlen@?$vector@HV?$allocator@H@std@@@std@@IBEXXZ ; std::vector<int,std::allocator<int> >::_Xlen
; Function compile flags: /Odt /RTCsu
;	COMDAT ?_Buy@?$vector@HV?$allocator@H@std@@@std@@IAE_NI@Z
_TEXT	SEGMENT
_this$ = -4						; size = 4
__Capacity$ = 8						; size = 4
?_Buy@?$vector@HV?$allocator@H@std@@@std@@IAE_NI@Z PROC NEAR ; std::vector<int,std::allocator<int> >::_Buy, COMDAT
; _this$ = ecx

; 770  : 		{	// allocate array with _Capacity elements

  00000	55		 push	 ebp
  00001	8b ec		 mov	 ebp, esp
  00003	51		 push	 ecx
  00004	c7 45 fc cc cc
	cc cc		 mov	 DWORD PTR [ebp-4], -858993460 ; ccccccccH
  0000b	89 4d fc	 mov	 DWORD PTR _this$[ebp], ecx

; 771  : 		_Myfirst = 0, _Mylast = 0, _Myend = 0;

  0000e	8b 45 fc	 mov	 eax, DWORD PTR _this$[ebp]
  00011	c7 40 04 00 00
	00 00		 mov	 DWORD PTR [eax+4], 0
  00018	8b 4d fc	 mov	 ecx, DWORD PTR _this$[ebp]
  0001b	c7 41 08 00 00
	00 00		 mov	 DWORD PTR [ecx+8], 0
  00022	8b 55 fc	 mov	 edx, DWORD PTR _this$[ebp]
  00025	c7 42 0c 00 00
	00 00		 mov	 DWORD PTR [edx+12], 0

; 772  : 		if (_Capacity == 0)

  0002c	83 7d 08 00	 cmp	 DWORD PTR __Capacity$[ebp], 0
  00030	75 04		 jne	 SHORT $L193461

; 773  : 			return (false);

  00032	32 c0		 xor	 al, al
  00034	eb 49		 jmp	 SHORT $L193460
$L193461:

; 774  : 		else if (max_size() < _Capacity)

  00036	8b 4d fc	 mov	 ecx, DWORD PTR _this$[ebp]
  00039	e8 00 00 00 00	 call	 ?max_size@?$vector@HV?$allocator@H@std@@@std@@QBEIXZ ; std::vector<int,std::allocator<int> >::max_size
  0003e	3b 45 08	 cmp	 eax, DWORD PTR __Capacity$[ebp]
  00041	73 0a		 jae	 SHORT $L193463

; 775  : 			_Xlen();	// result too long

  00043	8b 4d fc	 mov	 ecx, DWORD PTR _this$[ebp]
  00046	e8 00 00 00 00	 call	 ?_Xlen@?$vector@HV?$allocator@H@std@@@std@@IBEXXZ ; std::vector<int,std::allocator<int> >::_Xlen

; 776  : 		else

  0004b	eb 30		 jmp	 SHORT $L193462
$L193463:

; 777  : 			{	// nonempty array, allocate storage
; 778  : 			_Myfirst = this->_Alval.allocate(_Capacity);

  0004d	8b 45 08	 mov	 eax, DWORD PTR __Capacity$[ebp]
  00050	50		 push	 eax
  00051	8b 4d fc	 mov	 ecx, DWORD PTR _this$[ebp]
  00054	e8 00 00 00 00	 call	 ?allocate@?$allocator@H@std@@QAEPAHI@Z ; std::allocator<int>::allocate
  00059	8b 4d fc	 mov	 ecx, DWORD PTR _this$[ebp]
  0005c	89 41 04	 mov	 DWORD PTR [ecx+4], eax

; 779  : 			_Mylast = _Myfirst;

  0005f	8b 55 fc	 mov	 edx, DWORD PTR _this$[ebp]
  00062	8b 45 fc	 mov	 eax, DWORD PTR _this$[ebp]
  00065	8b 48 04	 mov	 ecx, DWORD PTR [eax+4]
  00068	89 4a 08	 mov	 DWORD PTR [edx+8], ecx

; 780  : 			_Myend = _Myfirst + _Capacity;

  0006b	8b 55 fc	 mov	 edx, DWORD PTR _this$[ebp]
  0006e	8b 42 04	 mov	 eax, DWORD PTR [edx+4]
  00071	8b 4d 08	 mov	 ecx, DWORD PTR __Capacity$[ebp]
  00074	8d 14 88	 lea	 edx, DWORD PTR [eax+ecx*4]
  00077	8b 45 fc	 mov	 eax, DWORD PTR _this$[ebp]
  0007a	89 50 0c	 mov	 DWORD PTR [eax+12], edx
$L193462:

; 781  : 			}
; 782  : 		return (true);

  0007d	b0 01		 mov	 al, 1
$L193460:

; 783  : 		}

  0007f	83 c4 04	 add	 esp, 4
  00082	3b ec		 cmp	 ebp, esp
  00084	e8 00 00 00 00	 call	 __RTC_CheckEsp
  00089	8b e5		 mov	 esp, ebp
  0008b	5d		 pop	 ebp
  0008c	c2 04 00	 ret	 4
?_Buy@?$vector@HV?$allocator@H@std@@@std@@IAE_NI@Z ENDP	; std::vector<int,std::allocator<int> >::_Buy
_TEXT	ENDS
PUBLIC	??$_Destroy_range@HV?$allocator@H@std@@@std@@YAXPAH0AAV?$allocator@H@0@@Z ; std::_Destroy_range<int,std::allocator<int> >
; Function compile flags: /Odt /RTCsu
;	COMDAT ?_Destroy@?$vector@HV?$allocator@H@std@@@std@@IAEXPAH0@Z
_TEXT	SEGMENT
_this$ = -4						; size = 4
__First$ = 8						; size = 4
__Last$ = 12						; size = 4
?_Destroy@?$vector@HV?$allocator@H@std@@@std@@IAEXPAH0@Z PROC NEAR ; std::vector<int,std::allocator<int> >::_Destroy, COMDAT
; _this$ = ecx

; 786  : 		{	// destroy [_First, _Last) using allocator

  00000	55		 push	 ebp
  00001	8b ec		 mov	 ebp, esp
  00003	51		 push	 ecx
  00004	c7 45 fc cc cc
	cc cc		 mov	 DWORD PTR [ebp-4], -858993460 ; ccccccccH
  0000b	89 4d fc	 mov	 DWORD PTR _this$[ebp], ecx

; 787  : 		_Destroy_range(_First, _Last, this->_Alval);

  0000e	8b 45 fc	 mov	 eax, DWORD PTR _this$[ebp]
  00011	50		 push	 eax
  00012	8b 4d 0c	 mov	 ecx, DWORD PTR __Last$[ebp]
  00015	51		 push	 ecx
  00016	8b 55 08	 mov	 edx, DWORD PTR __First$[ebp]
  00019	52		 push	 edx
  0001a	e8 00 00 00 00	 call	 ??$_Destroy_range@HV?$allocator@H@std@@@std@@YAXPAH0AAV?$allocator@H@0@@Z ; std::_Destroy_range<int,std::allocator<int> >
  0001f	83 c4 0c	 add	 esp, 12			; 0000000cH

; 788  : 		}

  00022	83 c4 04	 add	 esp, 4
  00025	3b ec		 cmp	 ebp, esp
  00027	e8 00 00 00 00	 call	 __RTC_CheckEsp
  0002c	8b e5		 mov	 esp, ebp
  0002e	5d		 pop	 ebp
  0002f	c2 08 00	 ret	 8
?_Destroy@?$vector@HV?$allocator@H@std@@@std@@IAEXPAH0@Z ENDP ; std::vector<int,std::allocator<int> >::_Destroy
; Function compile flags: /Odt /RTCsu
_TEXT	ENDS
;	COMDAT ?_Tidy@?$vector@HV?$allocator@H@std@@@std@@IAEXXZ
_TEXT	SEGMENT
_this$ = -4						; size = 4
?_Tidy@?$vector@HV?$allocator@H@std@@@std@@IAEXXZ PROC NEAR ; std::vector<int,std::allocator<int> >::_Tidy, COMDAT
; _this$ = ecx

; 791  : 		{	// free all storage

  00000	55		 push	 ebp
  00001	8b ec		 mov	 ebp, esp
  00003	51		 push	 ecx
  00004	c7 45 fc cc cc
	cc cc		 mov	 DWORD PTR [ebp-4], -858993460 ; ccccccccH
  0000b	89 4d fc	 mov	 DWORD PTR _this$[ebp], ecx

; 792  : 		if (_Myfirst != 0)

  0000e	8b 45 fc	 mov	 eax, DWORD PTR _this$[ebp]
  00011	83 78 04 00	 cmp	 DWORD PTR [eax+4], 0
  00015	74 35		 je	 SHORT $L193476

; 793  : 			{	// something to free, destroy and deallocate it
; 794  : 			_Destroy(_Myfirst, _Mylast);

  00017	8b 4d fc	 mov	 ecx, DWORD PTR _this$[ebp]
  0001a	8b 51 08	 mov	 edx, DWORD PTR [ecx+8]
  0001d	52		 push	 edx
  0001e	8b 45 fc	 mov	 eax, DWORD PTR _this$[ebp]
  00021	8b 48 04	 mov	 ecx, DWORD PTR [eax+4]
  00024	51		 push	 ecx
  00025	8b 4d fc	 mov	 ecx, DWORD PTR _this$[ebp]
  00028	e8 00 00 00 00	 call	 ?_Destroy@?$vector@HV?$allocator@H@std@@@std@@IAEXPAH0@Z ; std::vector<int,std::allocator<int> >::_Destroy

; 795  : 			this->_Alval.deallocate(_Myfirst, _Myend - _Myfirst);

  0002d	8b 55 fc	 mov	 edx, DWORD PTR _this$[ebp]
  00030	8b 45 fc	 mov	 eax, DWORD PTR _this$[ebp]
  00033	8b 4a 0c	 mov	 ecx, DWORD PTR [edx+12]
  00036	2b 48 04	 sub	 ecx, DWORD PTR [eax+4]
  00039	c1 f9 02	 sar	 ecx, 2
  0003c	51		 push	 ecx
  0003d	8b 55 fc	 mov	 edx, DWORD PTR _this$[ebp]
  00040	8b 42 04	 mov	 eax, DWORD PTR [edx+4]
  00043	50		 push	 eax
  00044	8b 4d fc	 mov	 ecx, DWORD PTR _this$[ebp]
  00047	e8 00 00 00 00	 call	 ?deallocate@?$allocator@H@std@@QAEXPAHI@Z ; std::allocator<int>::deallocate
$L193476:

; 796  : 			}
; 797  : 		_Myfirst = 0, _Mylast = 0, _Myend = 0;

  0004c	8b 4d fc	 mov	 ecx, DWORD PTR _this$[ebp]
  0004f	c7 41 04 00 00
	00 00		 mov	 DWORD PTR [ecx+4], 0
  00056	8b 55 fc	 mov	 edx, DWORD PTR _this$[ebp]
  00059	c7 42 08 00 00
	00 00		 mov	 DWORD PTR [edx+8], 0
  00060	8b 45 fc	 mov	 eax, DWORD PTR _this$[ebp]
  00063	c7 40 0c 00 00
	00 00		 mov	 DWORD PTR [eax+12], 0

; 798  : 		}

  0006a	83 c4 04	 add	 esp, 4
  0006d	3b ec		 cmp	 ebp, esp
  0006f	e8 00 00 00 00	 call	 __RTC_CheckEsp
  00074	8b e5		 mov	 esp, ebp
  00076	5d		 pop	 ebp
  00077	c3		 ret	 0
?_Tidy@?$vector@HV?$allocator@H@std@@@std@@IAEXXZ ENDP	; std::vector<int,std::allocator<int> >::_Tidy
_TEXT	ENDS
PUBLIC	??0?$allocator@H@std@@QAE@ABV01@@Z		; std::allocator<int>::allocator<int>
; Function compile flags: /Odt /RTCsu
;	COMDAT ??0?$_Vector_val@HV?$allocator@H@std@@@std@@IAE@V?$allocator@H@1@@Z
_TEXT	SEGMENT
_this$ = -4						; size = 4
__Al$ = 8						; size = 1
??0?$_Vector_val@HV?$allocator@H@std@@@std@@IAE@V?$allocator@H@1@@Z PROC NEAR ; std::_Vector_val<int,std::allocator<int> >::_Vector_val<int,std::allocator<int> >, COMDAT
; _this$ = ecx

; 21   : 		{	// construct allocator from _Al

  00000	55		 push	 ebp
  00001	8b ec		 mov	 ebp, esp
  00003	51		 push	 ecx
  00004	c7 45 fc cc cc
	cc cc		 mov	 DWORD PTR [ebp-4], -858993460 ; ccccccccH
  0000b	89 4d fc	 mov	 DWORD PTR _this$[ebp], ecx
  0000e	8d 45 08	 lea	 eax, DWORD PTR __Al$[ebp]
  00011	50		 push	 eax
  00012	8b 4d fc	 mov	 ecx, DWORD PTR _this$[ebp]
  00015	e8 00 00 00 00	 call	 ??0?$allocator@H@std@@QAE@ABV01@@Z ; std::allocator<int>::allocator<int>

; 22   : 		}

  0001a	8b 45 fc	 mov	 eax, DWORD PTR _this$[ebp]
  0001d	83 c4 04	 add	 esp, 4
  00020	3b ec		 cmp	 ebp, esp
  00022	e8 00 00 00 00	 call	 __RTC_CheckEsp
  00027	8b e5		 mov	 esp, ebp
  00029	5d		 pop	 ebp
  0002a	c2 04 00	 ret	 4
??0?$_Vector_val@HV?$allocator@H@std@@@std@@IAE@V?$allocator@H@1@@Z ENDP ; std::_Vector_val<int,std::allocator<int> >::_Vector_val<int,std::allocator<int> >
; Function compile flags: /Odt /RTCsu
; File d:\program files (x86)\microsoft visual studio .net 2003\vc7\include\xmemory
_TEXT	ENDS
;	COMDAT ??0?$allocator@H@std@@QAE@XZ
_TEXT	SEGMENT
_this$ = -4						; size = 4
??0?$allocator@H@std@@QAE@XZ PROC NEAR			; std::allocator<int>::allocator<int>, COMDAT
; _this$ = ecx

; 111  : 	allocator()

  00000	55		 push	 ebp
  00001	8b ec		 mov	 ebp, esp
  00003	51		 push	 ecx
  00004	c7 45 fc cc cc
	cc cc		 mov	 DWORD PTR [ebp-4], -858993460 ; ccccccccH
  0000b	89 4d fc	 mov	 DWORD PTR _this$[ebp], ecx

; 112  : 		{	// construct default allocator (do nothing)
; 113  : 		}

  0000e	8b 45 fc	 mov	 eax, DWORD PTR _this$[ebp]
  00011	8b e5		 mov	 esp, ebp
  00013	5d		 pop	 ebp
  00014	c3		 ret	 0
??0?$allocator@H@std@@QAE@XZ ENDP			; std::allocator<int>::allocator<int>
; Function compile flags: /Odt /RTCsu
_TEXT	ENDS
;	COMDAT ?deallocate@?$allocator@H@std@@QAEXPAHI@Z
_TEXT	SEGMENT
_this$ = -4						; size = 4
__Ptr$ = 8						; size = 4
___formal$ = 12						; size = 4
?deallocate@?$allocator@H@std@@QAEXPAHI@Z PROC NEAR	; std::allocator<int>::deallocate, COMDAT
; _this$ = ecx

; 131  : 		{	// deallocate object at _Ptr, ignore size

  00000	55		 push	 ebp
  00001	8b ec		 mov	 ebp, esp
  00003	51		 push	 ecx
  00004	c7 45 fc cc cc
	cc cc		 mov	 DWORD PTR [ebp-4], -858993460 ; ccccccccH
  0000b	89 4d fc	 mov	 DWORD PTR _this$[ebp], ecx

; 132  : 		operator delete(_Ptr);

  0000e	8b 45 08	 mov	 eax, DWORD PTR __Ptr$[ebp]
  00011	50		 push	 eax
  00012	e8 00 00 00 00	 call	 ??3@YAXPAX@Z		; operator delete
  00017	83 c4 04	 add	 esp, 4

; 133  : 		}

  0001a	83 c4 04	 add	 esp, 4
  0001d	3b ec		 cmp	 ebp, esp
  0001f	e8 00 00 00 00	 call	 __RTC_CheckEsp
  00024	8b e5		 mov	 esp, ebp
  00026	5d		 pop	 ebp
  00027	c2 08 00	 ret	 8
?deallocate@?$allocator@H@std@@QAEXPAHI@Z ENDP		; std::allocator<int>::deallocate
; Function compile flags: /Odt /RTCsu
; File d:\program files (x86)\microsoft visual studio .net 2003\vc7\include\vector
_TEXT	ENDS
;	COMDAT ?capacity@?$vector@V?$basic_string@DU?$char_traits@D@std@@V?$allocator@D@2@@std@@V?$allocator@V?$basic_string@DU?$char_traits@D@std@@V?$allocator@D@2@@std@@@2@@std@@QBEIXZ
_TEXT	SEGMENT
tv70 = -8						; size = 4
_this$ = -4						; size = 4
?capacity@?$vector@V?$basic_string@DU?$char_traits@D@std@@V?$allocator@D@2@@std@@V?$allocator@V?$basic_string@DU?$char_traits@D@std@@V?$allocator@D@2@@std@@@2@@std@@QBEIXZ PROC NEAR ; std::vector<std::basic_string<char,std::char_traits<char>,std::allocator<char> >,std::allocator<std::basic_string<char,std::char_traits<char>,std::allocator<char> > > >::capacity, COMDAT
; _this$ = ecx

; 457  : 		{	// return current length of allocated storage

  00000	55		 push	 ebp
  00001	8b ec		 mov	 ebp, esp
  00003	83 ec 08	 sub	 esp, 8
  00006	c7 45 f8 cc cc
	cc cc		 mov	 DWORD PTR [ebp-8], -858993460 ; ccccccccH
  0000d	c7 45 fc cc cc
	cc cc		 mov	 DWORD PTR [ebp-4], -858993460 ; ccccccccH
  00014	89 4d fc	 mov	 DWORD PTR _this$[ebp], ecx

; 458  : 		return (_Myfirst == 0 ? 0 : _Myend - _Myfirst);

  00017	8b 45 fc	 mov	 eax, DWORD PTR _this$[ebp]
  0001a	83 78 04 00	 cmp	 DWORD PTR [eax+4], 0
  0001e	75 09		 jne	 SHORT $L195555
  00020	c7 45 f8 00 00
	00 00		 mov	 DWORD PTR tv70[ebp], 0
  00027	eb 17		 jmp	 SHORT $L195556
$L195555:
  00029	8b 4d fc	 mov	 ecx, DWORD PTR _this$[ebp]
  0002c	8b 55 fc	 mov	 edx, DWORD PTR _this$[ebp]
  0002f	8b 41 0c	 mov	 eax, DWORD PTR [ecx+12]
  00032	2b 42 04	 sub	 eax, DWORD PTR [edx+4]
  00035	99		 cdq
  00036	b9 1c 00 00 00	 mov	 ecx, 28			; 0000001cH
  0003b	f7 f9		 idiv	 ecx
  0003d	89 45 f8	 mov	 DWORD PTR tv70[ebp], eax
$L195556:
  00040	8b 45 f8	 mov	 eax, DWORD PTR tv70[ebp]

; 459  : 		}

  00043	8b e5		 mov	 esp, ebp
  00045	5d		 pop	 ebp
  00046	c3		 ret	 0
?capacity@?$vector@V?$basic_string@DU?$char_traits@D@std@@V?$allocator@D@2@@std@@V?$allocator@V?$basic_string@DU?$char_traits@D@std@@V?$allocator@D@2@@std@@@2@@std@@QBEIXZ ENDP ; std::vector<std::basic_string<char,std::char_traits<char>,std::allocator<char> >,std::allocator<std::basic_string<char,std::char_traits<char>,std::allocator<char> > > >::capacity
; Function compile flags: /Odt /RTCsu
_TEXT	ENDS
;	COMDAT ?size@?$vector@V?$basic_string@DU?$char_traits@D@std@@V?$allocator@D@2@@std@@V?$allocator@V?$basic_string@DU?$char_traits@D@std@@V?$allocator@D@2@@std@@@2@@std@@QBEIXZ
_TEXT	SEGMENT
tv70 = -8						; size = 4
_this$ = -4						; size = 4
?size@?$vector@V?$basic_string@DU?$char_traits@D@std@@V?$allocator@D@2@@std@@V?$allocator@V?$basic_string@DU?$char_traits@D@std@@V?$allocator@D@2@@std@@@2@@std@@QBEIXZ PROC NEAR ; std::vector<std::basic_string<char,std::char_traits<char>,std::allocator<char> >,std::allocator<std::basic_string<char,std::char_traits<char>,std::allocator<char> > > >::size, COMDAT
; _this$ = ecx

; 515  : 		{	// return length of sequence

  00000	55		 push	 ebp
  00001	8b ec		 mov	 ebp, esp
  00003	83 ec 08	 sub	 esp, 8
  00006	c7 45 f8 cc cc
	cc cc		 mov	 DWORD PTR [ebp-8], -858993460 ; ccccccccH
  0000d	c7 45 fc cc cc
	cc cc		 mov	 DWORD PTR [ebp-4], -858993460 ; ccccccccH
  00014	89 4d fc	 mov	 DWORD PTR _this$[ebp], ecx

; 516  : 		return (_Myfirst == 0 ? 0 : _Mylast - _Myfirst);

  00017	8b 45 fc	 mov	 eax, DWORD PTR _this$[ebp]
  0001a	83 78 04 00	 cmp	 DWORD PTR [eax+4], 0
  0001e	75 09		 jne	 SHORT $L195558
  00020	c7 45 f8 00 00
	00 00		 mov	 DWORD PTR tv70[ebp], 0
  00027	eb 17		 jmp	 SHORT $L195559
$L195558:
  00029	8b 4d fc	 mov	 ecx, DWORD PTR _this$[ebp]
  0002c	8b 55 fc	 mov	 edx, DWORD PTR _this$[ebp]
  0002f	8b 41 08	 mov	 eax, DWORD PTR [ecx+8]
  00032	2b 42 04	 sub	 eax, DWORD PTR [edx+4]
  00035	99		 cdq
  00036	b9 1c 00 00 00	 mov	 ecx, 28			; 0000001cH
  0003b	f7 f9		 idiv	 ecx
  0003d	89 45 f8	 mov	 DWORD PTR tv70[ebp], eax
$L195559:
  00040	8b 45 f8	 mov	 eax, DWORD PTR tv70[ebp]

; 517  : 		}

  00043	8b e5		 mov	 esp, ebp
  00045	5d		 pop	 ebp
  00046	c3		 ret	 0
?size@?$vector@V?$basic_string@DU?$char_traits@D@std@@V?$allocator@D@2@@std@@V?$allocator@V?$basic_string@DU?$char_traits@D@std@@V?$allocator@D@2@@std@@@2@@std@@QBEIXZ ENDP ; std::vector<std::basic_string<char,std::char_traits<char>,std::allocator<char> >,std::allocator<std::basic_string<char,std::char_traits<char>,std::allocator<char> > > >::size
_TEXT	ENDS
PUBLIC	??Hiterator@?$vector@V?$basic_string@DU?$char_traits@D@std@@V?$allocator@D@2@@std@@V?$allocator@V?$basic_string@DU?$char_traits@D@std@@V?$allocator@D@2@@std@@@2@@std@@QBE?AV012@H@Z ; std::vector<std::basic_string<char,std::char_traits<char>,std::allocator<char> >,std::allocator<std::basic_string<char,std::char_traits<char>,std::allocator<char> > > >::iterator::operator+
PUBLIC	??Giterator@?$vector@V?$basic_string@DU?$char_traits@D@std@@V?$allocator@D@2@@std@@V?$allocator@V?$basic_string@DU?$char_traits@D@std@@V?$allocator@D@2@@std@@@2@@std@@QBEHABVconst_iterator@12@@Z ; std::vector<std::basic_string<char,std::char_traits<char>,std::allocator<char> >,std::allocator<std::basic_string<char,std::char_traits<char>,std::allocator<char> > > >::iterator::operator-
PUBLIC	?_Insert_n@?$vector@V?$basic_string@DU?$char_traits@D@std@@V?$allocator@D@2@@std@@V?$allocator@V?$basic_string@DU?$char_traits@D@std@@V?$allocator@D@2@@std@@@2@@std@@IAEXViterator@12@IABV?$basic_string@DU?$char_traits@D@std@@V?$allocator@D@2@@2@@Z ; std::vector<std::basic_string<char,std::char_traits<char>,std::allocator<char> >,std::allocator<std::basic_string<char,std::char_traits<char>,std::allocator<char> > > >::_Insert_n
; Function compile flags: /Odt /RTCsu
;	COMDAT ?insert@?$vector@V?$basic_string@DU?$char_traits@D@std@@V?$allocator@D@2@@std@@V?$allocator@V?$basic_string@DU?$char_traits@D@std@@V?$allocator@D@2@@std@@@2@@std@@QAE?AViterator@12@V312@ABV?$basic_string@DU?$char_traits@D@std@@V?$allocator@D@2@@2@@Z
_TEXT	SEGMENT
tv73 = -20						; size = 4
$T195564 = -16						; size = 4
$T195561 = -12						; size = 4
__Off$ = -8						; size = 4
_this$ = -4						; size = 4
___$ReturnUdt$ = 8					; size = 4
__Where$ = 12						; size = 4
__Val$ = 16						; size = 4
?insert@?$vector@V?$basic_string@DU?$char_traits@D@std@@V?$allocator@D@2@@std@@V?$allocator@V?$basic_string@DU?$char_traits@D@std@@V?$allocator@D@2@@std@@@2@@std@@QAE?AViterator@12@V312@ABV?$basic_string@DU?$char_traits@D@std@@V?$allocator@D@2@@2@@Z PROC NEAR ; std::vector<std::basic_string<char,std::char_traits<char>,std::allocator<char> >,std::allocator<std::basic_string<char,std::char_traits<char>,std::allocator<char> > > >::insert, COMDAT
; _this$ = ecx

; 620  : 		{	// insert _Val at _Where

  00000	55		 push	 ebp
  00001	8b ec		 mov	 ebp, esp
  00003	83 ec 14	 sub	 esp, 20			; 00000014H
  00006	b8 cc cc cc cc	 mov	 eax, -858993460		; ccccccccH
  0000b	89 45 ec	 mov	 DWORD PTR [ebp-20], eax
  0000e	89 45 f0	 mov	 DWORD PTR [ebp-16], eax
  00011	89 45 f4	 mov	 DWORD PTR [ebp-12], eax
  00014	89 45 f8	 mov	 DWORD PTR [ebp-8], eax
  00017	89 45 fc	 mov	 DWORD PTR [ebp-4], eax
  0001a	89 4d fc	 mov	 DWORD PTR _this$[ebp], ecx

; 621  : 		size_type _Off = size() == 0 ? 0 : _Where - begin();

  0001d	8b 4d fc	 mov	 ecx, DWORD PTR _this$[ebp]
  00020	e8 00 00 00 00	 call	 ?size@?$vector@V?$basic_string@DU?$char_traits@D@std@@V?$allocator@D@2@@std@@V?$allocator@V?$basic_string@DU?$char_traits@D@std@@V?$allocator@D@2@@std@@@2@@std@@QBEIXZ ; std::vector<std::basic_string<char,std::char_traits<char>,std::allocator<char> >,std::allocator<std::basic_string<char,std::char_traits<char>,std::allocator<char> > > >::size
  00025	85 c0		 test	 eax, eax
  00027	75 09		 jne	 SHORT $L195562
  00029	c7 45 ec 00 00
	00 00		 mov	 DWORD PTR tv73[ebp], 0
  00030	eb 18		 jmp	 SHORT $L195563
$L195562:
  00032	8d 45 f4	 lea	 eax, DWORD PTR $T195561[ebp]
  00035	50		 push	 eax
  00036	8b 4d fc	 mov	 ecx, DWORD PTR _this$[ebp]
  00039	e8 00 00 00 00	 call	 ?begin@?$vector@V?$basic_string@DU?$char_traits@D@std@@V?$allocator@D@2@@std@@V?$allocator@V?$basic_string@DU?$char_traits@D@std@@V?$allocator@D@2@@std@@@2@@std@@QAE?AViterator@12@XZ ; std::vector<std::basic_string<char,std::char_traits<char>,std::allocator<char> >,std::allocator<std::basic_string<char,std::char_traits<char>,std::allocator<char> > > >::begin
  0003e	50		 push	 eax
  0003f	8d 4d 0c	 lea	 ecx, DWORD PTR __Where$[ebp]
  00042	e8 00 00 00 00	 call	 ??Giterator@?$vector@V?$basic_string@DU?$char_traits@D@std@@V?$allocator@D@2@@std@@V?$allocator@V?$basic_string@DU?$char_traits@D@std@@V?$allocator@D@2@@std@@@2@@std@@QBEHABVconst_iterator@12@@Z ; std::vector<std::basic_string<char,std::char_traits<char>,std::allocator<char> >,std::allocator<std::basic_string<char,std::char_traits<char>,std::allocator<char> > > >::iterator::operator-
  00047	89 45 ec	 mov	 DWORD PTR tv73[ebp], eax
$L195563:
  0004a	8b 4d ec	 mov	 ecx, DWORD PTR tv73[ebp]
  0004d	89 4d f8	 mov	 DWORD PTR __Off$[ebp], ecx

; 622  : 		_Insert_n(_Where, (size_type)1, _Val);

  00050	8b 55 10	 mov	 edx, DWORD PTR __Val$[ebp]
  00053	52		 push	 edx
  00054	6a 01		 push	 1
  00056	8b 45 0c	 mov	 eax, DWORD PTR __Where$[ebp]
  00059	50		 push	 eax
  0005a	8b 4d fc	 mov	 ecx, DWORD PTR _this$[ebp]
  0005d	e8 00 00 00 00	 call	 ?_Insert_n@?$vector@V?$basic_string@DU?$char_traits@D@std@@V?$allocator@D@2@@std@@V?$allocator@V?$basic_string@DU?$char_traits@D@std@@V?$allocator@D@2@@std@@@2@@std@@IAEXViterator@12@IABV?$basic_string@DU?$char_traits@D@std@@V?$allocator@D@2@@2@@Z ; std::vector<std::basic_string<char,std::char_traits<char>,std::allocator<char> >,std::allocator<std::basic_string<char,std::char_traits<char>,std::allocator<char> > > >::_Insert_n

; 623  : 		return (begin() + _Off);

  00062	8b 4d f8	 mov	 ecx, DWORD PTR __Off$[ebp]
  00065	51		 push	 ecx
  00066	8b 55 08	 mov	 edx, DWORD PTR ___$ReturnUdt$[ebp]
  00069	52		 push	 edx
  0006a	8d 45 f0	 lea	 eax, DWORD PTR $T195564[ebp]
  0006d	50		 push	 eax
  0006e	8b 4d fc	 mov	 ecx, DWORD PTR _this$[ebp]
  00071	e8 00 00 00 00	 call	 ?begin@?$vector@V?$basic_string@DU?$char_traits@D@std@@V?$allocator@D@2@@std@@V?$allocator@V?$basic_string@DU?$char_traits@D@std@@V?$allocator@D@2@@std@@@2@@std@@QAE?AViterator@12@XZ ; std::vector<std::basic_string<char,std::char_traits<char>,std::allocator<char> >,std::allocator<std::basic_string<char,std::char_traits<char>,std::allocator<char> > > >::begin
  00076	8b c8		 mov	 ecx, eax
  00078	e8 00 00 00 00	 call	 ??Hiterator@?$vector@V?$basic_string@DU?$char_traits@D@std@@V?$allocator@D@2@@std@@V?$allocator@V?$basic_string@DU?$char_traits@D@std@@V?$allocator@D@2@@std@@@2@@std@@QBE?AV012@H@Z ; std::vector<std::basic_string<char,std::char_traits<char>,std::allocator<char> >,std::allocator<std::basic_string<char,std::char_traits<char>,std::allocator<char> > > >::iterator::operator+
  0007d	8b 45 08	 mov	 eax, DWORD PTR ___$ReturnUdt$[ebp]

; 624  : 		}

  00080	83 c4 14	 add	 esp, 20			; 00000014H
  00083	3b ec		 cmp	 ebp, esp
  00085	e8 00 00 00 00	 call	 __RTC_CheckEsp
  0008a	8b e5		 mov	 esp, ebp
  0008c	5d		 pop	 ebp
  0008d	c2 0c 00	 ret	 12			; 0000000cH
?insert@?$vector@V?$basic_string@DU?$char_traits@D@std@@V?$allocator@D@2@@std@@V?$allocator@V?$basic_string@DU?$char_traits@D@std@@V?$allocator@D@2@@std@@@2@@std@@QAE?AViterator@12@V312@ABV?$basic_string@DU?$char_traits@D@std@@V?$allocator@D@2@@2@@Z ENDP ; std::vector<std::basic_string<char,std::char_traits<char>,std::allocator<char> >,std::allocator<std::basic_string<char,std::char_traits<char>,std::allocator<char> > > >::insert
_TEXT	ENDS
PUBLIC	?allocate@?$allocator@V?$basic_string@DU?$char_traits@D@std@@V?$allocator@D@2@@std@@@std@@QAEPAV?$basic_string@DU?$char_traits@D@std@@V?$allocator@D@2@@2@I@Z ; std::allocator<std::basic_string<char,std::char_traits<char>,std::allocator<char> > >::allocate
PUBLIC	?max_size@?$vector@V?$basic_string@DU?$char_traits@D@std@@V?$allocator@D@2@@std@@V?$allocator@V?$basic_string@DU?$char_traits@D@std@@V?$allocator@D@2@@std@@@2@@std@@QBEIXZ ; std::vector<std::basic_string<char,std::char_traits<char>,std::allocator<char> >,std::allocator<std::basic_string<char,std::char_traits<char>,std::allocator<char> > > >::max_size
PUBLIC	?_Xlen@?$vector@V?$basic_string@DU?$char_traits@D@std@@V?$allocator@D@2@@std@@V?$allocator@V?$basic_string@DU?$char_traits@D@std@@V?$allocator@D@2@@std@@@2@@std@@IBEXXZ ; std::vector<std::basic_string<char,std::char_traits<char>,std::allocator<char> >,std::allocator<std::basic_string<char,std::char_traits<char>,std::allocator<char> > > >::_Xlen
; Function compile flags: /Odt /RTCsu
;	COMDAT ?_Buy@?$vector@V?$basic_string@DU?$char_traits@D@std@@V?$allocator@D@2@@std@@V?$allocator@V?$basic_string@DU?$char_traits@D@std@@V?$allocator@D@2@@std@@@2@@std@@IAE_NI@Z
_TEXT	SEGMENT
_this$ = -4						; size = 4
__Capacity$ = 8						; size = 4
?_Buy@?$vector@V?$basic_string@DU?$char_traits@D@std@@V?$allocator@D@2@@std@@V?$allocator@V?$basic_string@DU?$char_traits@D@std@@V?$allocator@D@2@@std@@@2@@std@@IAE_NI@Z PROC NEAR ; std::vector<std::basic_string<char,std::char_traits<char>,std::allocator<char> >,std::allocator<std::basic_string<char,std::char_traits<char>,std::allocator<char> > > >::_Buy, COMDAT
; _this$ = ecx

; 770  : 		{	// allocate array with _Capacity elements

  00000	55		 push	 ebp
  00001	8b ec		 mov	 ebp, esp
  00003	51		 push	 ecx
  00004	c7 45 fc cc cc
	cc cc		 mov	 DWORD PTR [ebp-4], -858993460 ; ccccccccH
  0000b	89 4d fc	 mov	 DWORD PTR _this$[ebp], ecx

; 771  : 		_Myfirst = 0, _Mylast = 0, _Myend = 0;

  0000e	8b 45 fc	 mov	 eax, DWORD PTR _this$[ebp]
  00011	c7 40 04 00 00
	00 00		 mov	 DWORD PTR [eax+4], 0
  00018	8b 4d fc	 mov	 ecx, DWORD PTR _this$[ebp]
  0001b	c7 41 08 00 00
	00 00		 mov	 DWORD PTR [ecx+8], 0
  00022	8b 55 fc	 mov	 edx, DWORD PTR _this$[ebp]
  00025	c7 42 0c 00 00
	00 00		 mov	 DWORD PTR [edx+12], 0

; 772  : 		if (_Capacity == 0)

  0002c	83 7d 08 00	 cmp	 DWORD PTR __Capacity$[ebp], 0
  00030	75 04		 jne	 SHORT $L193497

; 773  : 			return (false);

  00032	32 c0		 xor	 al, al
  00034	eb 49		 jmp	 SHORT $L193496
$L193497:

; 774  : 		else if (max_size() < _Capacity)

  00036	8b 4d fc	 mov	 ecx, DWORD PTR _this$[ebp]
  00039	e8 00 00 00 00	 call	 ?max_size@?$vector@V?$basic_string@DU?$char_traits@D@std@@V?$allocator@D@2@@std@@V?$allocator@V?$basic_string@DU?$char_traits@D@std@@V?$allocator@D@2@@std@@@2@@std@@QBEIXZ ; std::vector<std::basic_string<char,std::char_traits<char>,std::allocator<char> >,std::allocator<std::basic_string<char,std::char_traits<char>,std::allocator<char> > > >::max_size
  0003e	3b 45 08	 cmp	 eax, DWORD PTR __Capacity$[ebp]
  00041	73 0a		 jae	 SHORT $L193499

; 775  : 			_Xlen();	// result too long

  00043	8b 4d fc	 mov	 ecx, DWORD PTR _this$[ebp]
  00046	e8 00 00 00 00	 call	 ?_Xlen@?$vector@V?$basic_string@DU?$char_traits@D@std@@V?$allocator@D@2@@std@@V?$allocator@V?$basic_string@DU?$char_traits@D@std@@V?$allocator@D@2@@std@@@2@@std@@IBEXXZ ; std::vector<std::basic_string<char,std::char_traits<char>,std::allocator<char> >,std::allocator<std::basic_string<char,std::char_traits<char>,std::allocator<char> > > >::_Xlen

; 776  : 		else

  0004b	eb 30		 jmp	 SHORT $L193498
$L193499:

; 777  : 			{	// nonempty array, allocate storage
; 778  : 			_Myfirst = this->_Alval.allocate(_Capacity);

  0004d	8b 45 08	 mov	 eax, DWORD PTR __Capacity$[ebp]
  00050	50		 push	 eax
  00051	8b 4d fc	 mov	 ecx, DWORD PTR _this$[ebp]
  00054	e8 00 00 00 00	 call	 ?allocate@?$allocator@V?$basic_string@DU?$char_traits@D@std@@V?$allocator@D@2@@std@@@std@@QAEPAV?$basic_string@DU?$char_traits@D@std@@V?$allocator@D@2@@2@I@Z ; std::allocator<std::basic_string<char,std::char_traits<char>,std::allocator<char> > >::allocate
  00059	8b 4d fc	 mov	 ecx, DWORD PTR _this$[ebp]
  0005c	89 41 04	 mov	 DWORD PTR [ecx+4], eax

; 779  : 			_Mylast = _Myfirst;

  0005f	8b 55 fc	 mov	 edx, DWORD PTR _this$[ebp]
  00062	8b 45 fc	 mov	 eax, DWORD PTR _this$[ebp]
  00065	8b 48 04	 mov	 ecx, DWORD PTR [eax+4]
  00068	89 4a 08	 mov	 DWORD PTR [edx+8], ecx

; 780  : 			_Myend = _Myfirst + _Capacity;

  0006b	8b 55 08	 mov	 edx, DWORD PTR __Capacity$[ebp]
  0006e	6b d2 1c	 imul	 edx, 28			; 0000001cH
  00071	8b 45 fc	 mov	 eax, DWORD PTR _this$[ebp]
  00074	03 50 04	 add	 edx, DWORD PTR [eax+4]
  00077	8b 4d fc	 mov	 ecx, DWORD PTR _this$[ebp]
  0007a	89 51 0c	 mov	 DWORD PTR [ecx+12], edx
$L193498:

; 781  : 			}
; 782  : 		return (true);

  0007d	b0 01		 mov	 al, 1
$L193496:

; 783  : 		}

  0007f	83 c4 04	 add	 esp, 4
  00082	3b ec		 cmp	 ebp, esp
  00084	e8 00 00 00 00	 call	 __RTC_CheckEsp
  00089	8b e5		 mov	 esp, ebp
  0008b	5d		 pop	 ebp
  0008c	c2 04 00	 ret	 4
?_Buy@?$vector@V?$basic_string@DU?$char_traits@D@std@@V?$allocator@D@2@@std@@V?$allocator@V?$basic_string@DU?$char_traits@D@std@@V?$allocator@D@2@@std@@@2@@std@@IAE_NI@Z ENDP ; std::vector<std::basic_string<char,std::char_traits<char>,std::allocator<char> >,std::allocator<std::basic_string<char,std::char_traits<char>,std::allocator<char> > > >::_Buy
_TEXT	ENDS
PUBLIC	?deallocate@?$allocator@V?$basic_string@DU?$char_traits@D@std@@V?$allocator@D@2@@std@@@std@@QAEXPAV?$basic_string@DU?$char_traits@D@std@@V?$allocator@D@2@@2@I@Z ; std::allocator<std::basic_string<char,std::char_traits<char>,std::allocator<char> > >::deallocate
PUBLIC	?_Destroy@?$vector@V?$basic_string@DU?$char_traits@D@std@@V?$allocator@D@2@@std@@V?$allocator@V?$basic_string@DU?$char_traits@D@std@@V?$allocator@D@2@@std@@@2@@std@@IAEXPAV?$basic_string@DU?$char_traits@D@std@@V?$allocator@D@2@@2@0@Z ; std::vector<std::basic_string<char,std::char_traits<char>,std::allocator<char> >,std::allocator<std::basic_string<char,std::char_traits<char>,std::allocator<char> > > >::_Destroy
; Function compile flags: /Odt /RTCsu
;	COMDAT ?_Tidy@?$vector@V?$basic_string@DU?$char_traits@D@std@@V?$allocator@D@2@@std@@V?$allocator@V?$basic_string@DU?$char_traits@D@std@@V?$allocator@D@2@@std@@@2@@std@@IAEXXZ
_TEXT	SEGMENT
_this$ = -4						; size = 4
?_Tidy@?$vector@V?$basic_string@DU?$char_traits@D@std@@V?$allocator@D@2@@std@@V?$allocator@V?$basic_string@DU?$char_traits@D@std@@V?$allocator@D@2@@std@@@2@@std@@IAEXXZ PROC NEAR ; std::vector<std::basic_string<char,std::char_traits<char>,std::allocator<char> >,std::allocator<std::basic_string<char,std::char_traits<char>,std::allocator<char> > > >::_Tidy, COMDAT
; _this$ = ecx

; 791  : 		{	// free all storage

  00000	55		 push	 ebp
  00001	8b ec		 mov	 ebp, esp
  00003	51		 push	 ecx
  00004	c7 45 fc cc cc
	cc cc		 mov	 DWORD PTR [ebp-4], -858993460 ; ccccccccH
  0000b	89 4d fc	 mov	 DWORD PTR _this$[ebp], ecx

; 792  : 		if (_Myfirst != 0)

  0000e	8b 45 fc	 mov	 eax, DWORD PTR _this$[ebp]
  00011	83 78 04 00	 cmp	 DWORD PTR [eax+4], 0
  00015	74 3c		 je	 SHORT $L193503

; 793  : 			{	// something to free, destroy and deallocate it
; 794  : 			_Destroy(_Myfirst, _Mylast);

  00017	8b 4d fc	 mov	 ecx, DWORD PTR _this$[ebp]
  0001a	8b 51 08	 mov	 edx, DWORD PTR [ecx+8]
  0001d	52		 push	 edx
  0001e	8b 45 fc	 mov	 eax, DWORD PTR _this$[ebp]
  00021	8b 48 04	 mov	 ecx, DWORD PTR [eax+4]
  00024	51		 push	 ecx
  00025	8b 4d fc	 mov	 ecx, DWORD PTR _this$[ebp]
  00028	e8 00 00 00 00	 call	 ?_Destroy@?$vector@V?$basic_string@DU?$char_traits@D@std@@V?$allocator@D@2@@std@@V?$allocator@V?$basic_string@DU?$char_traits@D@std@@V?$allocator@D@2@@std@@@2@@std@@IAEXPAV?$basic_string@DU?$char_traits@D@std@@V?$allocator@D@2@@2@0@Z ; std::vector<std::basic_string<char,std::char_traits<char>,std::allocator<char> >,std::allocator<std::basic_string<char,std::char_traits<char>,std::allocator<char> > > >::_Destroy

; 795  : 			this->_Alval.deallocate(_Myfirst, _Myend - _Myfirst);

  0002d	8b 55 fc	 mov	 edx, DWORD PTR _this$[ebp]
  00030	8b 45 fc	 mov	 eax, DWORD PTR _this$[ebp]
  00033	8b 4a 0c	 mov	 ecx, DWORD PTR [edx+12]
  00036	2b 48 04	 sub	 ecx, DWORD PTR [eax+4]
  00039	8b c1		 mov	 eax, ecx
  0003b	99		 cdq
  0003c	b9 1c 00 00 00	 mov	 ecx, 28			; 0000001cH
  00041	f7 f9		 idiv	 ecx
  00043	50		 push	 eax
  00044	8b 55 fc	 mov	 edx, DWORD PTR _this$[ebp]
  00047	8b 42 04	 mov	 eax, DWORD PTR [edx+4]
  0004a	50		 push	 eax
  0004b	8b 4d fc	 mov	 ecx, DWORD PTR _this$[ebp]
  0004e	e8 00 00 00 00	 call	 ?deallocate@?$allocator@V?$basic_string@DU?$char_traits@D@std@@V?$allocator@D@2@@std@@@std@@QAEXPAV?$basic_string@DU?$char_traits@D@std@@V?$allocator@D@2@@2@I@Z ; std::allocator<std::basic_string<char,std::char_traits<char>,std::allocator<char> > >::deallocate
$L193503:

; 796  : 			}
; 797  : 		_Myfirst = 0, _Mylast = 0, _Myend = 0;

  00053	8b 4d fc	 mov	 ecx, DWORD PTR _this$[ebp]
  00056	c7 41 04 00 00
	00 00		 mov	 DWORD PTR [ecx+4], 0
  0005d	8b 55 fc	 mov	 edx, DWORD PTR _this$[ebp]
  00060	c7 42 08 00 00
	00 00		 mov	 DWORD PTR [edx+8], 0
  00067	8b 45 fc	 mov	 eax, DWORD PTR _this$[ebp]
  0006a	c7 40 0c 00 00
	00 00		 mov	 DWORD PTR [eax+12], 0

; 798  : 		}

  00071	83 c4 04	 add	 esp, 4
  00074	3b ec		 cmp	 ebp, esp
  00076	e8 00 00 00 00	 call	 __RTC_CheckEsp
  0007b	8b e5		 mov	 esp, ebp
  0007d	5d		 pop	 ebp
  0007e	c3		 ret	 0
?_Tidy@?$vector@V?$basic_string@DU?$char_traits@D@std@@V?$allocator@D@2@@std@@V?$allocator@V?$basic_string@DU?$char_traits@D@std@@V?$allocator@D@2@@std@@@2@@std@@IAEXXZ ENDP ; std::vector<std::basic_string<char,std::char_traits<char>,std::allocator<char> >,std::allocator<std::basic_string<char,std::char_traits<char>,std::allocator<char> > > >::_Tidy
_TEXT	ENDS
PUBLIC	??$_Uninitialized_fill_n@PAV?$basic_string@DU?$char_traits@D@std@@V?$allocator@D@2@@std@@IV12@V?$allocator@V?$basic_string@DU?$char_traits@D@std@@V?$allocator@D@2@@std@@@2@@std@@YAXPAV?$basic_string@DU?$char_traits@D@std@@V?$allocator@D@2@@0@IABV10@AAV?$allocator@V?$basic_string@DU?$char_traits@D@std@@V?$allocator@D@2@@std@@@0@@Z ; std::_Uninitialized_fill_n<std::basic_string<char,std::char_traits<char>,std::allocator<char> > *,unsigned int,std::basic_string<char,std::char_traits<char>,std::allocator<char> >,std::allocator<std::basic_string<char,std::char_traits<char>,std::allocator<char> > > >
; Function compile flags: /Odt /RTCsu
;	COMDAT ?_Ufill@?$vector@V?$basic_string@DU?$char_traits@D@std@@V?$allocator@D@2@@std@@V?$allocator@V?$basic_string@DU?$char_traits@D@std@@V?$allocator@D@2@@std@@@2@@std@@IAEPAV?$basic_string@DU?$char_traits@D@std@@V?$allocator@D@2@@2@PAV32@IABV32@@Z
_TEXT	SEGMENT
_this$ = -4						; size = 4
__Ptr$ = 8						; size = 4
__Count$ = 12						; size = 4
__Val$ = 16						; size = 4
?_Ufill@?$vector@V?$basic_string@DU?$char_traits@D@std@@V?$allocator@D@2@@std@@V?$allocator@V?$basic_string@DU?$char_traits@D@std@@V?$allocator@D@2@@std@@@2@@std@@IAEPAV?$basic_string@DU?$char_traits@D@std@@V?$allocator@D@2@@2@PAV32@IABV32@@Z PROC NEAR ; std::vector<std::basic_string<char,std::char_traits<char>,std::allocator<char> >,std::allocator<std::basic_string<char,std::char_traits<char>,std::allocator<char> > > >::_Ufill, COMDAT
; _this$ = ecx

; 877  : 		{	// copy initializing _Count * _Val, using allocator

  00000	55		 push	 ebp
  00001	8b ec		 mov	 ebp, esp
  00003	51		 push	 ecx
  00004	c7 45 fc cc cc
	cc cc		 mov	 DWORD PTR [ebp-4], -858993460 ; ccccccccH
  0000b	89 4d fc	 mov	 DWORD PTR _this$[ebp], ecx

; 878  : 		_Uninitialized_fill_n(_Ptr, _Count, _Val, this->_Alval);

  0000e	8b 45 fc	 mov	 eax, DWORD PTR _this$[ebp]
  00011	50		 push	 eax
  00012	8b 4d 10	 mov	 ecx, DWORD PTR __Val$[ebp]
  00015	51		 push	 ecx
  00016	8b 55 0c	 mov	 edx, DWORD PTR __Count$[ebp]
  00019	52		 push	 edx
  0001a	8b 45 08	 mov	 eax, DWORD PTR __Ptr$[ebp]
  0001d	50		 push	 eax
  0001e	e8 00 00 00 00	 call	 ??$_Uninitialized_fill_n@PAV?$basic_string@DU?$char_traits@D@std@@V?$allocator@D@2@@std@@IV12@V?$allocator@V?$basic_string@DU?$char_traits@D@std@@V?$allocator@D@2@@std@@@2@@std@@YAXPAV?$basic_string@DU?$char_traits@D@std@@V?$allocator@D@2@@0@IABV10@AAV?$allocator@V?$basic_string@DU?$char_traits@D@std@@V?$allocator@D@2@@std@@@0@@Z ; std::_Uninitialized_fill_n<std::basic_string<char,std::char_traits<char>,std::allocator<char> > *,unsigned int,std::basic_string<char,std::char_traits<char>,std::allocator<char> >,std::allocator<std::basic_string<char,std::char_traits<char>,std::allocator<char> > > >
  00023	83 c4 10	 add	 esp, 16			; 00000010H

; 879  : 		return (_Ptr + _Count);

  00026	8b 45 0c	 mov	 eax, DWORD PTR __Count$[ebp]
  00029	6b c0 1c	 imul	 eax, 28			; 0000001cH
  0002c	03 45 08	 add	 eax, DWORD PTR __Ptr$[ebp]

; 880  : 		}

  0002f	83 c4 04	 add	 esp, 4
  00032	3b ec		 cmp	 ebp, esp
  00034	e8 00 00 00 00	 call	 __RTC_CheckEsp
  00039	8b e5		 mov	 esp, ebp
  0003b	5d		 pop	 ebp
  0003c	c2 0c 00	 ret	 12			; 0000000cH
?_Ufill@?$vector@V?$basic_string@DU?$char_traits@D@std@@V?$allocator@D@2@@std@@V?$allocator@V?$basic_string@DU?$char_traits@D@std@@V?$allocator@D@2@@std@@@2@@std@@IAEPAV?$basic_string@DU?$char_traits@D@std@@V?$allocator@D@2@@2@PAV32@IABV32@@Z ENDP ; std::vector<std::basic_string<char,std::char_traits<char>,std::allocator<char> >,std::allocator<std::basic_string<char,std::char_traits<char>,std::allocator<char> > > >::_Ufill
_TEXT	ENDS
PUBLIC	??0?$allocator@V?$basic_string@DU?$char_traits@D@std@@V?$allocator@D@2@@std@@@std@@QAE@ABV01@@Z ; std::allocator<std::basic_string<char,std::char_traits<char>,std::allocator<char> > >::allocator<std::basic_string<char,std::char_traits<char>,std::allocator<char> > >
; Function compile flags: /Odt /RTCsu
;	COMDAT ??0?$_Vector_val@V?$basic_string@DU?$char_traits@D@std@@V?$allocator@D@2@@std@@V?$allocator@V?$basic_string@DU?$char_traits@D@std@@V?$allocator@D@2@@std@@@2@@std@@IAE@V?$allocator@V?$basic_string@DU?$char_traits@D@std@@V?$allocator@D@2@@std@@@1@@Z
_TEXT	SEGMENT
_this$ = -4						; size = 4
__Al$ = 8						; size = 1
??0?$_Vector_val@V?$basic_string@DU?$char_traits@D@std@@V?$allocator@D@2@@std@@V?$allocator@V?$basic_string@DU?$char_traits@D@std@@V?$allocator@D@2@@std@@@2@@std@@IAE@V?$allocator@V?$basic_string@DU?$char_traits@D@std@@V?$allocator@D@2@@std@@@1@@Z PROC NEAR ; std::_Vector_val<std::basic_string<char,std::char_traits<char>,std::allocator<char> >,std::allocator<std::basic_string<char,std::char_traits<char>,std::allocator<char> > > >::_Vector_val<std::basic_string<char,std::char_traits<char>,std::allocator<char> >,std::allocator<std::basic_string<char,std::char_traits<char>,std::allocator<char> > > >, COMDAT
; _this$ = ecx

; 21   : 		{	// construct allocator from _Al

  00000	55		 push	 ebp
  00001	8b ec		 mov	 ebp, esp
  00003	51		 push	 ecx
  00004	c7 45 fc cc cc
	cc cc		 mov	 DWORD PTR [ebp-4], -858993460 ; ccccccccH
  0000b	89 4d fc	 mov	 DWORD PTR _this$[ebp], ecx
  0000e	8d 45 08	 lea	 eax, DWORD PTR __Al$[ebp]
  00011	50		 push	 eax
  00012	8b 4d fc	 mov	 ecx, DWORD PTR _this$[ebp]
  00015	e8 00 00 00 00	 call	 ??0?$allocator@V?$basic_string@DU?$char_traits@D@std@@V?$allocator@D@2@@std@@@std@@QAE@ABV01@@Z ; std::allocator<std::basic_string<char,std::char_traits<char>,std::allocator<char> > >::allocator<std::basic_string<char,std::char_traits<char>,std::allocator<char> > >

; 22   : 		}

  0001a	8b 45 fc	 mov	 eax, DWORD PTR _this$[ebp]
  0001d	83 c4 04	 add	 esp, 4
  00020	3b ec		 cmp	 ebp, esp
  00022	e8 00 00 00 00	 call	 __RTC_CheckEsp
  00027	8b e5		 mov	 esp, ebp
  00029	5d		 pop	 ebp
  0002a	c2 04 00	 ret	 4
??0?$_Vector_val@V?$basic_string@DU?$char_traits@D@std@@V?$allocator@D@2@@std@@V?$allocator@V?$basic_string@DU?$char_traits@D@std@@V?$allocator@D@2@@std@@@2@@std@@IAE@V?$allocator@V?$basic_string@DU?$char_traits@D@std@@V?$allocator@D@2@@std@@@1@@Z ENDP ; std::_Vector_val<std::basic_string<char,std::char_traits<char>,std::allocator<char> >,std::allocator<std::basic_string<char,std::char_traits<char>,std::allocator<char> > > >::_Vector_val<std::basic_string<char,std::char_traits<char>,std::allocator<char> >,std::allocator<std::basic_string<char,std::char_traits<char>,std::allocator<char> > > >
_TEXT	ENDS
PUBLIC	??0const_iterator@?$vector@V?$basic_string@DU?$char_traits@D@std@@V?$allocator@D@2@@std@@V?$allocator@V?$basic_string@DU?$char_traits@D@std@@V?$allocator@D@2@@std@@@2@@std@@QAE@PAV?$basic_string@DU?$char_traits@D@std@@V?$allocator@D@2@@2@@Z ; std::vector<std::basic_string<char,std::char_traits<char>,std::allocator<char> >,std::allocator<std::basic_string<char,std::char_traits<char>,std::allocator<char> > > >::const_iterator::const_iterator
; Function compile flags: /Odt /RTCsu
;	COMDAT ??0iterator@?$vector@V?$basic_string@DU?$char_traits@D@std@@V?$allocator@D@2@@std@@V?$allocator@V?$basic_string@DU?$char_traits@D@std@@V?$allocator@D@2@@std@@@2@@std@@QAE@PAV?$basic_string@DU?$char_traits@D@std@@V?$allocator@D@2@@2@@Z
_TEXT	SEGMENT
_this$ = -4						; size = 4
__Ptr$ = 8						; size = 4
??0iterator@?$vector@V?$basic_string@DU?$char_traits@D@std@@V?$allocator@D@2@@std@@V?$allocator@V?$basic_string@DU?$char_traits@D@std@@V?$allocator@D@2@@std@@@2@@std@@QAE@PAV?$basic_string@DU?$char_traits@D@std@@V?$allocator@D@2@@2@@Z PROC NEAR ; std::vector<std::basic_string<char,std::char_traits<char>,std::allocator<char> >,std::allocator<std::basic_string<char,std::char_traits<char>,std::allocator<char> > > >::iterator::iterator, COMDAT
; _this$ = ecx

; 215  : 			{	// construct with pointer _Ptr

  00000	55		 push	 ebp
  00001	8b ec		 mov	 ebp, esp
  00003	51		 push	 ecx
  00004	c7 45 fc cc cc
	cc cc		 mov	 DWORD PTR [ebp-4], -858993460 ; ccccccccH
  0000b	89 4d fc	 mov	 DWORD PTR _this$[ebp], ecx
  0000e	8b 45 08	 mov	 eax, DWORD PTR __Ptr$[ebp]
  00011	50		 push	 eax
  00012	8b 4d fc	 mov	 ecx, DWORD PTR _this$[ebp]
  00015	e8 00 00 00 00	 call	 ??0const_iterator@?$vector@V?$basic_string@DU?$char_traits@D@std@@V?$allocator@D@2@@std@@V?$allocator@V?$basic_string@DU?$char_traits@D@std@@V?$allocator@D@2@@std@@@2@@std@@QAE@PAV?$basic_string@DU?$char_traits@D@std@@V?$allocator@D@2@@2@@Z ; std::vector<std::basic_string<char,std::char_traits<char>,std::allocator<char> >,std::allocator<std::basic_string<char,std::char_traits<char>,std::allocator<char> > > >::const_iterator::const_iterator

; 216  : 			}

  0001a	8b 45 fc	 mov	 eax, DWORD PTR _this$[ebp]
  0001d	83 c4 04	 add	 esp, 4
  00020	3b ec		 cmp	 ebp, esp
  00022	e8 00 00 00 00	 call	 __RTC_CheckEsp
  00027	8b e5		 mov	 esp, ebp
  00029	5d		 pop	 ebp
  0002a	c2 04 00	 ret	 4
??0iterator@?$vector@V?$basic_string@DU?$char_traits@D@std@@V?$allocator@D@2@@std@@V?$allocator@V?$basic_string@DU?$char_traits@D@std@@V?$allocator@D@2@@std@@@2@@std@@QAE@PAV?$basic_string@DU?$char_traits@D@std@@V?$allocator@D@2@@2@@Z ENDP ; std::vector<std::basic_string<char,std::char_traits<char>,std::allocator<char> >,std::allocator<std::basic_string<char,std::char_traits<char>,std::allocator<char> > > >::iterator::iterator
; Function compile flags: /Odt /RTCsu
_TEXT	ENDS
;	COMDAT ??Eiterator@?$vector@V?$basic_string@DU?$char_traits@D@std@@V?$allocator@D@2@@std@@V?$allocator@V?$basic_string@DU?$char_traits@D@std@@V?$allocator@D@2@@std@@@2@@std@@QAEAAV012@XZ
_TEXT	SEGMENT
_this$ = -4						; size = 4
??Eiterator@?$vector@V?$basic_string@DU?$char_traits@D@std@@V?$allocator@D@2@@std@@V?$allocator@V?$basic_string@DU?$char_traits@D@std@@V?$allocator@D@2@@std@@@2@@std@@QAEAAV012@XZ PROC NEAR ; std::vector<std::basic_string<char,std::char_traits<char>,std::allocator<char> >,std::allocator<std::basic_string<char,std::char_traits<char>,std::allocator<char> > > >::iterator::operator++, COMDAT
; _this$ = ecx

; 229  : 			{	// preincrement

  00000	55		 push	 ebp
  00001	8b ec		 mov	 ebp, esp
  00003	51		 push	 ecx
  00004	c7 45 fc cc cc
	cc cc		 mov	 DWORD PTR [ebp-4], -858993460 ; ccccccccH
  0000b	89 4d fc	 mov	 DWORD PTR _this$[ebp], ecx

; 230  : 			++this->_Myptr;

  0000e	8b 45 fc	 mov	 eax, DWORD PTR _this$[ebp]
  00011	8b 08		 mov	 ecx, DWORD PTR [eax]
  00013	83 c1 1c	 add	 ecx, 28			; 0000001cH
  00016	8b 55 fc	 mov	 edx, DWORD PTR _this$[ebp]
  00019	89 0a		 mov	 DWORD PTR [edx], ecx

; 231  : 			return (*this);

  0001b	8b 45 fc	 mov	 eax, DWORD PTR _this$[ebp]

; 232  : 			}

  0001e	8b e5		 mov	 esp, ebp
  00020	5d		 pop	 ebp
  00021	c3		 ret	 0
??Eiterator@?$vector@V?$basic_string@DU?$char_traits@D@std@@V?$allocator@D@2@@std@@V?$allocator@V?$basic_string@DU?$char_traits@D@std@@V?$allocator@D@2@@std@@@2@@std@@QAEAAV012@XZ ENDP ; std::vector<std::basic_string<char,std::char_traits<char>,std::allocator<char> >,std::allocator<std::basic_string<char,std::char_traits<char>,std::allocator<char> > > >::iterator::operator++
; Function compile flags: /Odt /RTCsu
_TEXT	ENDS
;	COMDAT ??Dconst_iterator@?$vector@V?$basic_string@DU?$char_traits@D@std@@V?$allocator@D@2@@std@@V?$allocator@V?$basic_string@DU?$char_traits@D@std@@V?$allocator@D@2@@std@@@2@@std@@QBEABV?$basic_string@DU?$char_traits@D@std@@V?$allocator@D@2@@2@XZ
_TEXT	SEGMENT
_this$ = -4						; size = 4
??Dconst_iterator@?$vector@V?$basic_string@DU?$char_traits@D@std@@V?$allocator@D@2@@std@@V?$allocator@V?$basic_string@DU?$char_traits@D@std@@V?$allocator@D@2@@std@@@2@@std@@QBEABV?$basic_string@DU?$char_traits@D@std@@V?$allocator@D@2@@2@XZ PROC NEAR ; std::vector<std::basic_string<char,std::char_traits<char>,std::allocator<char> >,std::allocator<std::basic_string<char,std::char_traits<char>,std::allocator<char> > > >::const_iterator::operator*, COMDAT
; _this$ = ecx

; 79   : 			{	// return designated object

  00000	55		 push	 ebp
  00001	8b ec		 mov	 ebp, esp
  00003	51		 push	 ecx
  00004	c7 45 fc cc cc
	cc cc		 mov	 DWORD PTR [ebp-4], -858993460 ; ccccccccH
  0000b	89 4d fc	 mov	 DWORD PTR _this$[ebp], ecx

; 80   : 
; 81   : 
; 82   : 			return (*_Myptr);

  0000e	8b 45 fc	 mov	 eax, DWORD PTR _this$[ebp]
  00011	8b 00		 mov	 eax, DWORD PTR [eax]

; 83   : 			}

  00013	8b e5		 mov	 esp, ebp
  00015	5d		 pop	 ebp
  00016	c3		 ret	 0
??Dconst_iterator@?$vector@V?$basic_string@DU?$char_traits@D@std@@V?$allocator@D@2@@std@@V?$allocator@V?$basic_string@DU?$char_traits@D@std@@V?$allocator@D@2@@std@@@2@@std@@QBEABV?$basic_string@DU?$char_traits@D@std@@V?$allocator@D@2@@2@XZ ENDP ; std::vector<std::basic_string<char,std::char_traits<char>,std::allocator<char> >,std::allocator<std::basic_string<char,std::char_traits<char>,std::allocator<char> > > >::const_iterator::operator*
; Function compile flags: /Odt /RTCsu
_TEXT	ENDS
;	COMDAT ??8const_iterator@?$vector@V?$basic_string@DU?$char_traits@D@std@@V?$allocator@D@2@@std@@V?$allocator@V?$basic_string@DU?$char_traits@D@std@@V?$allocator@D@2@@std@@@2@@std@@QBE_NABV012@@Z
_TEXT	SEGMENT
_this$ = -4						; size = 4
__Right$ = 8						; size = 4
??8const_iterator@?$vector@V?$basic_string@DU?$char_traits@D@std@@V?$allocator@D@2@@std@@V?$allocator@V?$basic_string@DU?$char_traits@D@std@@V?$allocator@D@2@@std@@@2@@std@@QBE_NABV012@@Z PROC NEAR ; std::vector<std::basic_string<char,std::char_traits<char>,std::allocator<char> >,std::allocator<std::basic_string<char,std::char_traits<char>,std::allocator<char> > > >::const_iterator::operator==, COMDAT
; _this$ = ecx

; 152  : 			{	// test for iterator equality

  00000	55		 push	 ebp
  00001	8b ec		 mov	 ebp, esp
  00003	51		 push	 ecx
  00004	c7 45 fc cc cc
	cc cc		 mov	 DWORD PTR [ebp-4], -858993460 ; ccccccccH
  0000b	89 4d fc	 mov	 DWORD PTR _this$[ebp], ecx

; 153  : 
; 154  : 
; 155  : 			return (_Myptr == _Right._Myptr);

  0000e	8b 45 fc	 mov	 eax, DWORD PTR _this$[ebp]
  00011	8b 4d 08	 mov	 ecx, DWORD PTR __Right$[ebp]
  00014	8b 00		 mov	 eax, DWORD PTR [eax]
  00016	2b 01		 sub	 eax, DWORD PTR [ecx]
  00018	f7 d8		 neg	 eax
  0001a	1b c0		 sbb	 eax, eax
  0001c	40		 inc	 eax

; 156  : 			}

  0001d	8b e5		 mov	 esp, ebp
  0001f	5d		 pop	 ebp
  00020	c2 04 00	 ret	 4
??8const_iterator@?$vector@V?$basic_string@DU?$char_traits@D@std@@V?$allocator@D@2@@std@@V?$allocator@V?$basic_string@DU?$char_traits@D@std@@V?$allocator@D@2@@std@@@2@@std@@QBE_NABV012@@Z ENDP ; std::vector<std::basic_string<char,std::char_traits<char>,std::allocator<char> >,std::allocator<std::basic_string<char,std::char_traits<char>,std::allocator<char> > > >::const_iterator::operator==
_TEXT	ENDS
PUBLIC	??0const_iterator@?$vector@UOneLocalGame@@V?$allocator@UOneLocalGame@@@std@@@std@@QAE@PAUOneLocalGame@@@Z ; std::vector<OneLocalGame,std::allocator<OneLocalGame> >::const_iterator::const_iterator
; Function compile flags: /Odt /RTCsu
;	COMDAT ??0iterator@?$vector@UOneLocalGame@@V?$allocator@UOneLocalGame@@@std@@@std@@QAE@PAUOneLocalGame@@@Z
_TEXT	SEGMENT
_this$ = -4						; size = 4
__Ptr$ = 8						; size = 4
??0iterator@?$vector@UOneLocalGame@@V?$allocator@UOneLocalGame@@@std@@@std@@QAE@PAUOneLocalGame@@@Z PROC NEAR ; std::vector<OneLocalGame,std::allocator<OneLocalGame> >::iterator::iterator, COMDAT
; _this$ = ecx

; 215  : 			{	// construct with pointer _Ptr

  00000	55		 push	 ebp
  00001	8b ec		 mov	 ebp, esp
  00003	51		 push	 ecx
  00004	c7 45 fc cc cc
	cc cc		 mov	 DWORD PTR [ebp-4], -858993460 ; ccccccccH
  0000b	89 4d fc	 mov	 DWORD PTR _this$[ebp], ecx
  0000e	8b 45 08	 mov	 eax, DWORD PTR __Ptr$[ebp]
  00011	50		 push	 eax
  00012	8b 4d fc	 mov	 ecx, DWORD PTR _this$[ebp]
  00015	e8 00 00 00 00	 call	 ??0const_iterator@?$vector@UOneLocalGame@@V?$allocator@UOneLocalGame@@@std@@@std@@QAE@PAUOneLocalGame@@@Z ; std::vector<OneLocalGame,std::allocator<OneLocalGame> >::const_iterator::const_iterator

; 216  : 			}

  0001a	8b 45 fc	 mov	 eax, DWORD PTR _this$[ebp]
  0001d	83 c4 04	 add	 esp, 4
  00020	3b ec		 cmp	 ebp, esp
  00022	e8 00 00 00 00	 call	 __RTC_CheckEsp
  00027	8b e5		 mov	 esp, ebp
  00029	5d		 pop	 ebp
  0002a	c2 04 00	 ret	 4
??0iterator@?$vector@UOneLocalGame@@V?$allocator@UOneLocalGame@@@std@@@std@@QAE@PAUOneLocalGame@@@Z ENDP ; std::vector<OneLocalGame,std::allocator<OneLocalGame> >::iterator::iterator
_TEXT	ENDS
PUBLIC	??Dconst_iterator@?$vector@UOneLocalGame@@V?$allocator@UOneLocalGame@@@std@@@std@@QBEABUOneLocalGame@@XZ ; std::vector<OneLocalGame,std::allocator<OneLocalGame> >::const_iterator::operator*
; Function compile flags: /Odt /RTCsu
;	COMDAT ??Diterator@?$vector@UOneLocalGame@@V?$allocator@UOneLocalGame@@@std@@@std@@QBEAAUOneLocalGame@@XZ
_TEXT	SEGMENT
_this$ = -4						; size = 4
??Diterator@?$vector@UOneLocalGame@@V?$allocator@UOneLocalGame@@@std@@@std@@QBEAAUOneLocalGame@@XZ PROC NEAR ; std::vector<OneLocalGame,std::allocator<OneLocalGame> >::iterator::operator*, COMDAT
; _this$ = ecx

; 219  : 			{	// return designated object

  00000	55		 push	 ebp
  00001	8b ec		 mov	 ebp, esp
  00003	51		 push	 ecx
  00004	c7 45 fc cc cc
	cc cc		 mov	 DWORD PTR [ebp-4], -858993460 ; ccccccccH
  0000b	89 4d fc	 mov	 DWORD PTR _this$[ebp], ecx

; 220  : 			return ((reference)**(const_iterator *)this);

  0000e	8b 4d fc	 mov	 ecx, DWORD PTR _this$[ebp]
  00011	e8 00 00 00 00	 call	 ??Dconst_iterator@?$vector@UOneLocalGame@@V?$allocator@UOneLocalGame@@@std@@@std@@QBEABUOneLocalGame@@XZ ; std::vector<OneLocalGame,std::allocator<OneLocalGame> >::const_iterator::operator*

; 221  : 			}

  00016	83 c4 04	 add	 esp, 4
  00019	3b ec		 cmp	 ebp, esp
  0001b	e8 00 00 00 00	 call	 __RTC_CheckEsp
  00020	8b e5		 mov	 esp, ebp
  00022	5d		 pop	 ebp
  00023	c3		 ret	 0
??Diterator@?$vector@UOneLocalGame@@V?$allocator@UOneLocalGame@@@std@@@std@@QBEAAUOneLocalGame@@XZ ENDP ; std::vector<OneLocalGame,std::allocator<OneLocalGame> >::iterator::operator*
; Function compile flags: /Odt /RTCsu
_TEXT	ENDS
;	COMDAT ??Eiterator@?$vector@UOneLocalGame@@V?$allocator@UOneLocalGame@@@std@@@std@@QAEAAV012@XZ
_TEXT	SEGMENT
_this$ = -4						; size = 4
??Eiterator@?$vector@UOneLocalGame@@V?$allocator@UOneLocalGame@@@std@@@std@@QAEAAV012@XZ PROC NEAR ; std::vector<OneLocalGame,std::allocator<OneLocalGame> >::iterator::operator++, COMDAT
; _this$ = ecx

; 229  : 			{	// preincrement

  00000	55		 push	 ebp
  00001	8b ec		 mov	 ebp, esp
  00003	51		 push	 ecx
  00004	c7 45 fc cc cc
	cc cc		 mov	 DWORD PTR [ebp-4], -858993460 ; ccccccccH
  0000b	89 4d fc	 mov	 DWORD PTR _this$[ebp], ecx

; 230  : 			++this->_Myptr;

  0000e	8b 45 fc	 mov	 eax, DWORD PTR _this$[ebp]
  00011	8b 08		 mov	 ecx, DWORD PTR [eax]
  00013	81 c1 90 00 00
	00		 add	 ecx, 144		; 00000090H
  00019	8b 55 fc	 mov	 edx, DWORD PTR _this$[ebp]
  0001c	89 0a		 mov	 DWORD PTR [edx], ecx

; 231  : 			return (*this);

  0001e	8b 45 fc	 mov	 eax, DWORD PTR _this$[ebp]

; 232  : 			}

  00021	8b e5		 mov	 esp, ebp
  00023	5d		 pop	 ebp
  00024	c3		 ret	 0
??Eiterator@?$vector@UOneLocalGame@@V?$allocator@UOneLocalGame@@@std@@@std@@QAEAAV012@XZ ENDP ; std::vector<OneLocalGame,std::allocator<OneLocalGame> >::iterator::operator++
; Function compile flags: /Odt /RTCsu
_TEXT	ENDS
;	COMDAT ??8const_iterator@?$vector@UOneLocalGame@@V?$allocator@UOneLocalGame@@@std@@@std@@QBE_NABV012@@Z
_TEXT	SEGMENT
_this$ = -4						; size = 4
__Right$ = 8						; size = 4
??8const_iterator@?$vector@UOneLocalGame@@V?$allocator@UOneLocalGame@@@std@@@std@@QBE_NABV012@@Z PROC NEAR ; std::vector<OneLocalGame,std::allocator<OneLocalGame> >::const_iterator::operator==, COMDAT
; _this$ = ecx

; 152  : 			{	// test for iterator equality

  00000	55		 push	 ebp
  00001	8b ec		 mov	 ebp, esp
  00003	51		 push	 ecx
  00004	c7 45 fc cc cc
	cc cc		 mov	 DWORD PTR [ebp-4], -858993460 ; ccccccccH
  0000b	89 4d fc	 mov	 DWORD PTR _this$[ebp], ecx

; 153  : 
; 154  : 
; 155  : 			return (_Myptr == _Right._Myptr);

  0000e	8b 45 fc	 mov	 eax, DWORD PTR _this$[ebp]
  00011	8b 4d 08	 mov	 ecx, DWORD PTR __Right$[ebp]
  00014	8b 00		 mov	 eax, DWORD PTR [eax]
  00016	2b 01		 sub	 eax, DWORD PTR [ecx]
  00018	f7 d8		 neg	 eax
  0001a	1b c0		 sbb	 eax, eax
  0001c	40		 inc	 eax

; 156  : 			}

  0001d	8b e5		 mov	 esp, ebp
  0001f	5d		 pop	 ebp
  00020	c2 04 00	 ret	 4
??8const_iterator@?$vector@UOneLocalGame@@V?$allocator@UOneLocalGame@@@std@@@std@@QBE_NABV012@@Z ENDP ; std::vector<OneLocalGame,std::allocator<OneLocalGame> >::const_iterator::operator==
_TEXT	ENDS
PUBLIC	??Dconst_iterator@?$vector@U_tagLMCItemInfo@@V?$allocator@U_tagLMCItemInfo@@@std@@@std@@QBEABU_tagLMCItemInfo@@XZ ; std::vector<_tagLMCItemInfo,std::allocator<_tagLMCItemInfo> >::const_iterator::operator*
; Function compile flags: /Odt /RTCsu
;	COMDAT ??Diterator@?$vector@U_tagLMCItemInfo@@V?$allocator@U_tagLMCItemInfo@@@std@@@std@@QBEAAU_tagLMCItemInfo@@XZ
_TEXT	SEGMENT
_this$ = -4						; size = 4
??Diterator@?$vector@U_tagLMCItemInfo@@V?$allocator@U_tagLMCItemInfo@@@std@@@std@@QBEAAU_tagLMCItemInfo@@XZ PROC NEAR ; std::vector<_tagLMCItemInfo,std::allocator<_tagLMCItemInfo> >::iterator::operator*, COMDAT
; _this$ = ecx

; 219  : 			{	// return designated object

  00000	55		 push	 ebp
  00001	8b ec		 mov	 ebp, esp
  00003	51		 push	 ecx
  00004	c7 45 fc cc cc
	cc cc		 mov	 DWORD PTR [ebp-4], -858993460 ; ccccccccH
  0000b	89 4d fc	 mov	 DWORD PTR _this$[ebp], ecx

; 220  : 			return ((reference)**(const_iterator *)this);

  0000e	8b 4d fc	 mov	 ecx, DWORD PTR _this$[ebp]
  00011	e8 00 00 00 00	 call	 ??Dconst_iterator@?$vector@U_tagLMCItemInfo@@V?$allocator@U_tagLMCItemInfo@@@std@@@std@@QBEABU_tagLMCItemInfo@@XZ ; std::vector<_tagLMCItemInfo,std::allocator<_tagLMCItemInfo> >::const_iterator::operator*

; 221  : 			}

  00016	83 c4 04	 add	 esp, 4
  00019	3b ec		 cmp	 ebp, esp
  0001b	e8 00 00 00 00	 call	 __RTC_CheckEsp
  00020	8b e5		 mov	 esp, ebp
  00022	5d		 pop	 ebp
  00023	c3		 ret	 0
??Diterator@?$vector@U_tagLMCItemInfo@@V?$allocator@U_tagLMCItemInfo@@@std@@@std@@QBEAAU_tagLMCItemInfo@@XZ ENDP ; std::vector<_tagLMCItemInfo,std::allocator<_tagLMCItemInfo> >::iterator::operator*
_TEXT	ENDS
PUBLIC	??Yiterator@?$vector@U_tagLMCItemInfo@@V?$allocator@U_tagLMCItemInfo@@@std@@@std@@QAEAAV012@H@Z ; std::vector<_tagLMCItemInfo,std::allocator<_tagLMCItemInfo> >::iterator::operator+=
; Function compile flags: /Odt /RTCsu
;	COMDAT ??Hiterator@?$vector@U_tagLMCItemInfo@@V?$allocator@U_tagLMCItemInfo@@@std@@@std@@QBE?AV012@H@Z
_TEXT	SEGMENT
__Tmp$ = -12						; size = 4
_this$ = -4						; size = 4
___$ReturnUdt$ = 8					; size = 4
__Off$ = 12						; size = 4
??Hiterator@?$vector@U_tagLMCItemInfo@@V?$allocator@U_tagLMCItemInfo@@@std@@@std@@QBE?AV012@H@Z PROC NEAR ; std::vector<_tagLMCItemInfo,std::allocator<_tagLMCItemInfo> >::iterator::operator+, COMDAT
; _this$ = ecx

; 261  : 			{	// return this + integer

  00000	55		 push	 ebp
  00001	8b ec		 mov	 ebp, esp
  00003	83 ec 10	 sub	 esp, 16			; 00000010H
  00006	b8 cc cc cc cc	 mov	 eax, -858993460		; ccccccccH
  0000b	89 45 f0	 mov	 DWORD PTR [ebp-16], eax
  0000e	89 45 f4	 mov	 DWORD PTR [ebp-12], eax
  00011	89 45 f8	 mov	 DWORD PTR [ebp-8], eax
  00014	89 45 fc	 mov	 DWORD PTR [ebp-4], eax
  00017	89 4d fc	 mov	 DWORD PTR _this$[ebp], ecx

; 262  : 			iterator _Tmp = *this;

  0001a	8b 45 fc	 mov	 eax, DWORD PTR _this$[ebp]
  0001d	8b 08		 mov	 ecx, DWORD PTR [eax]
  0001f	89 4d f4	 mov	 DWORD PTR __Tmp$[ebp], ecx

; 263  : 			return (_Tmp += _Off);

  00022	8b 55 0c	 mov	 edx, DWORD PTR __Off$[ebp]
  00025	52		 push	 edx
  00026	8d 4d f4	 lea	 ecx, DWORD PTR __Tmp$[ebp]
  00029	e8 00 00 00 00	 call	 ??Yiterator@?$vector@U_tagLMCItemInfo@@V?$allocator@U_tagLMCItemInfo@@@std@@@std@@QAEAAV012@H@Z ; std::vector<_tagLMCItemInfo,std::allocator<_tagLMCItemInfo> >::iterator::operator+=
  0002e	8b 00		 mov	 eax, DWORD PTR [eax]
  00030	8b 4d 08	 mov	 ecx, DWORD PTR ___$ReturnUdt$[ebp]
  00033	89 01		 mov	 DWORD PTR [ecx], eax
  00035	8b 45 08	 mov	 eax, DWORD PTR ___$ReturnUdt$[ebp]

; 264  : 			}

  00038	52		 push	 edx
  00039	8b cd		 mov	 ecx, ebp
  0003b	50		 push	 eax
  0003c	8d 15 00 00 00
	00		 lea	 edx, DWORD PTR $L195581
  00042	e8 00 00 00 00	 call	 @_RTC_CheckStackVars@8
  00047	58		 pop	 eax
  00048	5a		 pop	 edx
  00049	83 c4 10	 add	 esp, 16			; 00000010H
  0004c	3b ec		 cmp	 ebp, esp
  0004e	e8 00 00 00 00	 call	 __RTC_CheckEsp
  00053	8b e5		 mov	 esp, ebp
  00055	5d		 pop	 ebp
  00056	c2 08 00	 ret	 8
$L195581:
  00059	01 00 00 00	 DD	 1
  0005d	00 00 00 00	 DD	 $L195580
$L195580:
  00061	f4 ff ff ff	 DD	 -12			; fffffff4H
  00065	04 00 00 00	 DD	 4
  00069	00 00 00 00	 DD	 $L195579
$L195579:
  0006d	5f		 DB	 95			; 0000005fH
  0006e	54		 DB	 84			; 00000054H
  0006f	6d		 DB	 109			; 0000006dH
  00070	70		 DB	 112			; 00000070H
  00071	00		 DB	 0
??Hiterator@?$vector@U_tagLMCItemInfo@@V?$allocator@U_tagLMCItemInfo@@@std@@@std@@QBE?AV012@H@Z ENDP ; std::vector<_tagLMCItemInfo,std::allocator<_tagLMCItemInfo> >::iterator::operator+
_TEXT	ENDS
PUBLIC	??Dconst_iterator@?$vector@HV?$allocator@H@std@@@std@@QBEABHXZ ; std::vector<int,std::allocator<int> >::const_iterator::operator*
; Function compile flags: /Odt /RTCsu
;	COMDAT ??Diterator@?$vector@HV?$allocator@H@std@@@std@@QBEAAHXZ
_TEXT	SEGMENT
_this$ = -4						; size = 4
??Diterator@?$vector@HV?$allocator@H@std@@@std@@QBEAAHXZ PROC NEAR ; std::vector<int,std::allocator<int> >::iterator::operator*, COMDAT
; _this$ = ecx

; 219  : 			{	// return designated object

  00000	55		 push	 ebp
  00001	8b ec		 mov	 ebp, esp
  00003	51		 push	 ecx
  00004	c7 45 fc cc cc
	cc cc		 mov	 DWORD PTR [ebp-4], -858993460 ; ccccccccH
  0000b	89 4d fc	 mov	 DWORD PTR _this$[ebp], ecx

; 220  : 			return ((reference)**(const_iterator *)this);

  0000e	8b 4d fc	 mov	 ecx, DWORD PTR _this$[ebp]
  00011	e8 00 00 00 00	 call	 ??Dconst_iterator@?$vector@HV?$allocator@H@std@@@std@@QBEABHXZ ; std::vector<int,std::allocator<int> >::const_iterator::operator*

; 221  : 			}

  00016	83 c4 04	 add	 esp, 4
  00019	3b ec		 cmp	 ebp, esp
  0001b	e8 00 00 00 00	 call	 __RTC_CheckEsp
  00020	8b e5		 mov	 esp, ebp
  00022	5d		 pop	 ebp
  00023	c3		 ret	 0
??Diterator@?$vector@HV?$allocator@H@std@@@std@@QBEAAHXZ ENDP ; std::vector<int,std::allocator<int> >::iterator::operator*
_TEXT	ENDS
PUBLIC	??Yiterator@?$vector@HV?$allocator@H@std@@@std@@QAEAAV012@H@Z ; std::vector<int,std::allocator<int> >::iterator::operator+=
; Function compile flags: /Odt /RTCsu
;	COMDAT ??Hiterator@?$vector@HV?$allocator@H@std@@@std@@QBE?AV012@H@Z
_TEXT	SEGMENT
__Tmp$ = -12						; size = 4
_this$ = -4						; size = 4
___$ReturnUdt$ = 8					; size = 4
__Off$ = 12						; size = 4
??Hiterator@?$vector@HV?$allocator@H@std@@@std@@QBE?AV012@H@Z PROC NEAR ; std::vector<int,std::allocator<int> >::iterator::operator+, COMDAT
; _this$ = ecx

; 261  : 			{	// return this + integer

  00000	55		 push	 ebp
  00001	8b ec		 mov	 ebp, esp
  00003	83 ec 10	 sub	 esp, 16			; 00000010H
  00006	b8 cc cc cc cc	 mov	 eax, -858993460		; ccccccccH
  0000b	89 45 f0	 mov	 DWORD PTR [ebp-16], eax
  0000e	89 45 f4	 mov	 DWORD PTR [ebp-12], eax
  00011	89 45 f8	 mov	 DWORD PTR [ebp-8], eax
  00014	89 45 fc	 mov	 DWORD PTR [ebp-4], eax
  00017	89 4d fc	 mov	 DWORD PTR _this$[ebp], ecx

; 262  : 			iterator _Tmp = *this;

  0001a	8b 45 fc	 mov	 eax, DWORD PTR _this$[ebp]
  0001d	8b 08		 mov	 ecx, DWORD PTR [eax]
  0001f	89 4d f4	 mov	 DWORD PTR __Tmp$[ebp], ecx

; 263  : 			return (_Tmp += _Off);

  00022	8b 55 0c	 mov	 edx, DWORD PTR __Off$[ebp]
  00025	52		 push	 edx
  00026	8d 4d f4	 lea	 ecx, DWORD PTR __Tmp$[ebp]
  00029	e8 00 00 00 00	 call	 ??Yiterator@?$vector@HV?$allocator@H@std@@@std@@QAEAAV012@H@Z ; std::vector<int,std::allocator<int> >::iterator::operator+=
  0002e	8b 00		 mov	 eax, DWORD PTR [eax]
  00030	8b 4d 08	 mov	 ecx, DWORD PTR ___$ReturnUdt$[ebp]
  00033	89 01		 mov	 DWORD PTR [ecx], eax
  00035	8b 45 08	 mov	 eax, DWORD PTR ___$ReturnUdt$[ebp]

; 264  : 			}

  00038	52		 push	 edx
  00039	8b cd		 mov	 ecx, ebp
  0003b	50		 push	 eax
  0003c	8d 15 00 00 00
	00		 lea	 edx, DWORD PTR $L195586
  00042	e8 00 00 00 00	 call	 @_RTC_CheckStackVars@8
  00047	58		 pop	 eax
  00048	5a		 pop	 edx
  00049	83 c4 10	 add	 esp, 16			; 00000010H
  0004c	3b ec		 cmp	 ebp, esp
  0004e	e8 00 00 00 00	 call	 __RTC_CheckEsp
  00053	8b e5		 mov	 esp, ebp
  00055	5d		 pop	 ebp
  00056	c2 08 00	 ret	 8
$L195586:
  00059	01 00 00 00	 DD	 1
  0005d	00 00 00 00	 DD	 $L195585
$L195585:
  00061	f4 ff ff ff	 DD	 -12			; fffffff4H
  00065	04 00 00 00	 DD	 4
  00069	00 00 00 00	 DD	 $L195584
$L195584:
  0006d	5f		 DB	 95			; 0000005fH
  0006e	54		 DB	 84			; 00000054H
  0006f	6d		 DB	 109			; 0000006dH
  00070	70		 DB	 112			; 00000070H
  00071	00		 DB	 0
??Hiterator@?$vector@HV?$allocator@H@std@@@std@@QBE?AV012@H@Z ENDP ; std::vector<int,std::allocator<int> >::iterator::operator+
; Function compile flags: /Odt /RTCsu
; File d:\program files (x86)\microsoft visual studio .net 2003\vc7\include\xmemory
_TEXT	ENDS
;	COMDAT ??0?$allocator@V?$basic_string@DU?$char_traits@D@std@@V?$allocator@D@2@@std@@@std@@QAE@ABV01@@Z
_TEXT	SEGMENT
_this$ = -4						; size = 4
___formal$ = 8						; size = 4
??0?$allocator@V?$basic_string@DU?$char_traits@D@std@@V?$allocator@D@2@@std@@@std@@QAE@ABV01@@Z PROC NEAR ; std::allocator<std::basic_string<char,std::char_traits<char>,std::allocator<char> > >::allocator<std::basic_string<char,std::char_traits<char>,std::allocator<char> > >, COMDAT
; _this$ = ecx

; 115  : 	allocator(const allocator<_Ty>&)

  00000	55		 push	 ebp
  00001	8b ec		 mov	 ebp, esp
  00003	51		 push	 ecx
  00004	c7 45 fc cc cc
	cc cc		 mov	 DWORD PTR [ebp-4], -858993460 ; ccccccccH
  0000b	89 4d fc	 mov	 DWORD PTR _this$[ebp], ecx

; 116  : 		{	// construct by copying (do nothing)
; 117  : 		}

  0000e	8b 45 fc	 mov	 eax, DWORD PTR _this$[ebp]
  00011	8b e5		 mov	 esp, ebp
  00013	5d		 pop	 ebp
  00014	c2 04 00	 ret	 4
??0?$allocator@V?$basic_string@DU?$char_traits@D@std@@V?$allocator@D@2@@std@@@std@@QAE@ABV01@@Z ENDP ; std::allocator<std::basic_string<char,std::char_traits<char>,std::allocator<char> > >::allocator<std::basic_string<char,std::char_traits<char>,std::allocator<char> > >
; Function compile flags: /Odt /RTCsu
_TEXT	ENDS
;	COMDAT ?deallocate@?$allocator@V?$basic_string@DU?$char_traits@D@std@@V?$allocator@D@2@@std@@@std@@QAEXPAV?$basic_string@DU?$char_traits@D@std@@V?$allocator@D@2@@2@I@Z
_TEXT	SEGMENT
_this$ = -4						; size = 4
__Ptr$ = 8						; size = 4
___formal$ = 12						; size = 4
?deallocate@?$allocator@V?$basic_string@DU?$char_traits@D@std@@V?$allocator@D@2@@std@@@std@@QAEXPAV?$basic_string@DU?$char_traits@D@std@@V?$allocator@D@2@@2@I@Z PROC NEAR ; std::allocator<std::basic_string<char,std::char_traits<char>,std::allocator<char> > >::deallocate, COMDAT
; _this$ = ecx

; 131  : 		{	// deallocate object at _Ptr, ignore size

  00000	55		 push	 ebp
  00001	8b ec		 mov	 ebp, esp
  00003	51		 push	 ecx
  00004	c7 45 fc cc cc
	cc cc		 mov	 DWORD PTR [ebp-4], -858993460 ; ccccccccH
  0000b	89 4d fc	 mov	 DWORD PTR _this$[ebp], ecx

; 132  : 		operator delete(_Ptr);

  0000e	8b 45 08	 mov	 eax, DWORD PTR __Ptr$[ebp]
  00011	50		 push	 eax
  00012	e8 00 00 00 00	 call	 ??3@YAXPAX@Z		; operator delete
  00017	83 c4 04	 add	 esp, 4

; 133  : 		}

  0001a	83 c4 04	 add	 esp, 4
  0001d	3b ec		 cmp	 ebp, esp
  0001f	e8 00 00 00 00	 call	 __RTC_CheckEsp
  00024	8b e5		 mov	 esp, ebp
  00026	5d		 pop	 ebp
  00027	c2 08 00	 ret	 8
?deallocate@?$allocator@V?$basic_string@DU?$char_traits@D@std@@V?$allocator@D@2@@std@@@std@@QAEXPAV?$basic_string@DU?$char_traits@D@std@@V?$allocator@D@2@@2@I@Z ENDP ; std::allocator<std::basic_string<char,std::char_traits<char>,std::allocator<char> > >::deallocate
_TEXT	ENDS
PUBLIC	??$_Allocate@V?$basic_string@DU?$char_traits@D@std@@V?$allocator@D@2@@std@@@std@@YAPAV?$basic_string@DU?$char_traits@D@std@@V?$allocator@D@2@@0@IPAV10@@Z ; std::_Allocate<std::basic_string<char,std::char_traits<char>,std::allocator<char> > >
; Function compile flags: /Odt /RTCsu
;	COMDAT ?allocate@?$allocator@V?$basic_string@DU?$char_traits@D@std@@V?$allocator@D@2@@std@@@std@@QAEPAV?$basic_string@DU?$char_traits@D@std@@V?$allocator@D@2@@2@I@Z
_TEXT	SEGMENT
_this$ = -4						; size = 4
__Count$ = 8						; size = 4
?allocate@?$allocator@V?$basic_string@DU?$char_traits@D@std@@V?$allocator@D@2@@std@@@std@@QAEPAV?$basic_string@DU?$char_traits@D@std@@V?$allocator@D@2@@2@I@Z PROC NEAR ; std::allocator<std::basic_string<char,std::char_traits<char>,std::allocator<char> > >::allocate, COMDAT
; _this$ = ecx

; 136  : 		{	// allocate array of _Count elements

  00000	55		 push	 ebp
  00001	8b ec		 mov	 ebp, esp
  00003	51		 push	 ecx
  00004	c7 45 fc cc cc
	cc cc		 mov	 DWORD PTR [ebp-4], -858993460 ; ccccccccH
  0000b	89 4d fc	 mov	 DWORD PTR _this$[ebp], ecx

; 137  : 		return (_Allocate(_Count, (pointer)0));

  0000e	6a 00		 push	 0
  00010	8b 45 08	 mov	 eax, DWORD PTR __Count$[ebp]
  00013	50		 push	 eax
  00014	e8 00 00 00 00	 call	 ??$_Allocate@V?$basic_string@DU?$char_traits@D@std@@V?$allocator@D@2@@std@@@std@@YAPAV?$basic_string@DU?$char_traits@D@std@@V?$allocator@D@2@@0@IPAV10@@Z ; std::_Allocate<std::basic_string<char,std::char_traits<char>,std::allocator<char> > >
  00019	83 c4 08	 add	 esp, 8

; 138  : 		}

  0001c	83 c4 04	 add	 esp, 4
  0001f	3b ec		 cmp	 ebp, esp
  00021	e8 00 00 00 00	 call	 __RTC_CheckEsp
  00026	8b e5		 mov	 esp, ebp
  00028	5d		 pop	 ebp
  00029	c2 04 00	 ret	 4
?allocate@?$allocator@V?$basic_string@DU?$char_traits@D@std@@V?$allocator@D@2@@std@@@std@@QAEPAV?$basic_string@DU?$char_traits@D@std@@V?$allocator@D@2@@2@I@Z ENDP ; std::allocator<std::basic_string<char,std::char_traits<char>,std::allocator<char> > >::allocate
_TEXT	ENDS
PUBLIC	?max_size@?$allocator@UOneLocalGame@@@std@@QBEIXZ ; std::allocator<OneLocalGame>::max_size
; Function compile flags: /Odt /RTCsu
; File d:\program files (x86)\microsoft visual studio .net 2003\vc7\include\vector
;	COMDAT ?max_size@?$vector@UOneLocalGame@@V?$allocator@UOneLocalGame@@@std@@@std@@QBEIXZ
_TEXT	SEGMENT
_this$ = -4						; size = 4
?max_size@?$vector@UOneLocalGame@@V?$allocator@UOneLocalGame@@@std@@@std@@QBEIXZ PROC NEAR ; std::vector<OneLocalGame,std::allocator<OneLocalGame> >::max_size, COMDAT
; _this$ = ecx

; 520  : 		{	// return maximum possible length of sequence

  00000	55		 push	 ebp
  00001	8b ec		 mov	 ebp, esp
  00003	51		 push	 ecx
  00004	c7 45 fc cc cc
	cc cc		 mov	 DWORD PTR [ebp-4], -858993460 ; ccccccccH
  0000b	89 4d fc	 mov	 DWORD PTR _this$[ebp], ecx

; 521  : 		return (this->_Alval.max_size());

  0000e	8b 4d fc	 mov	 ecx, DWORD PTR _this$[ebp]
  00011	e8 00 00 00 00	 call	 ?max_size@?$allocator@UOneLocalGame@@@std@@QBEIXZ ; std::allocator<OneLocalGame>::max_size

; 522  : 		}

  00016	83 c4 04	 add	 esp, 4
  00019	3b ec		 cmp	 ebp, esp
  0001b	e8 00 00 00 00	 call	 __RTC_CheckEsp
  00020	8b e5		 mov	 esp, ebp
  00022	5d		 pop	 ebp
  00023	c3		 ret	 0
?max_size@?$vector@UOneLocalGame@@V?$allocator@UOneLocalGame@@@std@@@std@@QBEIXZ ENDP ; std::vector<OneLocalGame,std::allocator<OneLocalGame> >::max_size
_TEXT	ENDS
PUBLIC	??$_Destroy_range@UOneLocalGame@@V?$allocator@UOneLocalGame@@@std@@@std@@YAXPAUOneLocalGame@@0AAV?$allocator@UOneLocalGame@@@0@@Z ; std::_Destroy_range<OneLocalGame,std::allocator<OneLocalGame> >
; Function compile flags: /Odt /RTCsu
;	COMDAT ?_Destroy@?$vector@UOneLocalGame@@V?$allocator@UOneLocalGame@@@std@@@std@@IAEXPAUOneLocalGame@@0@Z
_TEXT	SEGMENT
_this$ = -4						; size = 4
__First$ = 8						; size = 4
__Last$ = 12						; size = 4
?_Destroy@?$vector@UOneLocalGame@@V?$allocator@UOneLocalGame@@@std@@@std@@IAEXPAUOneLocalGame@@0@Z PROC NEAR ; std::vector<OneLocalGame,std::allocator<OneLocalGame> >::_Destroy, COMDAT
; _this$ = ecx

; 786  : 		{	// destroy [_First, _Last) using allocator

  00000	55		 push	 ebp
  00001	8b ec		 mov	 ebp, esp
  00003	51		 push	 ecx
  00004	c7 45 fc cc cc
	cc cc		 mov	 DWORD PTR [ebp-4], -858993460 ; ccccccccH
  0000b	89 4d fc	 mov	 DWORD PTR _this$[ebp], ecx

; 787  : 		_Destroy_range(_First, _Last, this->_Alval);

  0000e	8b 45 fc	 mov	 eax, DWORD PTR _this$[ebp]
  00011	50		 push	 eax
  00012	8b 4d 0c	 mov	 ecx, DWORD PTR __Last$[ebp]
  00015	51		 push	 ecx
  00016	8b 55 08	 mov	 edx, DWORD PTR __First$[ebp]
  00019	52		 push	 edx
  0001a	e8 00 00 00 00	 call	 ??$_Destroy_range@UOneLocalGame@@V?$allocator@UOneLocalGame@@@std@@@std@@YAXPAUOneLocalGame@@0AAV?$allocator@UOneLocalGame@@@0@@Z ; std::_Destroy_range<OneLocalGame,std::allocator<OneLocalGame> >
  0001f	83 c4 0c	 add	 esp, 12			; 0000000cH

; 788  : 		}

  00022	83 c4 04	 add	 esp, 4
  00025	3b ec		 cmp	 ebp, esp
  00027	e8 00 00 00 00	 call	 __RTC_CheckEsp
  0002c	8b e5		 mov	 esp, ebp
  0002e	5d		 pop	 ebp
  0002f	c2 08 00	 ret	 8
?_Destroy@?$vector@UOneLocalGame@@V?$allocator@UOneLocalGame@@@std@@@std@@IAEXPAUOneLocalGame@@0@Z ENDP ; std::vector<OneLocalGame,std::allocator<OneLocalGame> >::_Destroy
_TEXT	ENDS
PUBLIC	__TI3?AVlength_error@std@@
PUBLIC	__CTA3?AVlength_error@std@@
PUBLIC	__CT??_R0?AVlength_error@std@@@8??0length_error@std@@QAE@ABV01@@Z40
PUBLIC	??_C@_0BD@OLBABOEK@vector?$DMT?$DO?5too?5long?$AA@ ; `string'
PUBLIC	??_R0?AVlogic_error@std@@@8			; std::logic_error `RTTI Type Descriptor'
PUBLIC	__CT??_R0?AVlogic_error@std@@@8??0logic_error@std@@QAE@ABV01@@Z40
PUBLIC	??_R0?AVexception@@@8				; exception `RTTI Type Descriptor'
PUBLIC	__CT??_R0?AVexception@@@8??0exception@@QAE@ABV0@@Z12
PUBLIC	??_R0?AVlength_error@std@@@8			; std::length_error `RTTI Type Descriptor'
PUBLIC	??0logic_error@std@@QAE@ABV01@@Z		; std::logic_error::logic_error
PUBLIC	??0length_error@std@@QAE@ABV?$basic_string@DU?$char_traits@D@std@@V?$allocator@D@2@@1@@Z ; std::length_error::length_error
PUBLIC	??1length_error@std@@UAE@XZ			; std::length_error::~length_error
PUBLIC	??0length_error@std@@QAE@ABV01@@Z		; std::length_error::length_error
EXTRN	__CxxThrowException@8:NEAR
EXTRN	??0exception@@QAE@ABV0@@Z:NEAR			; exception::exception
;	COMDAT xdata$x
xdata$x	SEGMENT
$T195600 DD	0ffffffffH
	DD	FLAT:$L195596
$T195598 DD	019930520H
	DD	01H
	DD	FLAT:$T195600
	DD	2 DUP(00H)
	DD	2 DUP(00H)
xdata$x	ENDS
;	COMDAT ??_C@_0BD@OLBABOEK@vector?$DMT?$DO?5too?5long?$AA@
CONST	SEGMENT
??_C@_0BD@OLBABOEK@vector?$DMT?$DO?5too?5long?$AA@ DB 'vector<T> too long'
	DB	00H						; `string'
CONST	ENDS
;	COMDAT __TI3?AVlength_error@std@@
xdata$x	SEGMENT
__TI3?AVlength_error@std@@ DD 00H
	DD	FLAT:??1length_error@std@@UAE@XZ
	DD	00H
	DD	FLAT:__CTA3?AVlength_error@std@@
xdata$x	ENDS
;	COMDAT __CTA3?AVlength_error@std@@
xdata$x	SEGMENT
__CTA3?AVlength_error@std@@ DD 03H
	DD	FLAT:__CT??_R0?AVlength_error@std@@@8??0length_error@std@@QAE@ABV01@@Z40
	DD	FLAT:__CT??_R0?AVlogic_error@std@@@8??0logic_error@std@@QAE@ABV01@@Z40
	DD	FLAT:__CT??_R0?AVexception@@@8??0exception@@QAE@ABV0@@Z12
xdata$x	ENDS
;	COMDAT __CT??_R0?AVlength_error@std@@@8??0length_error@std@@QAE@ABV01@@Z40
xdata$x	SEGMENT
__CT??_R0?AVlength_error@std@@@8??0length_error@std@@QAE@ABV01@@Z40 DD 00H
	DD	FLAT:??_R0?AVlength_error@std@@@8
	DD	00H
	DD	0ffffffffH
	ORG $+4
	DD	028H
	DD	FLAT:??0length_error@std@@QAE@ABV01@@Z
xdata$x	ENDS
;	COMDAT ??_R0?AVlength_error@std@@@8
_DATA	SEGMENT
??_R0?AVlength_error@std@@@8 DD FLAT:??_7type_info@@6B@	; std::length_error `RTTI Type Descriptor'
	DD	00H
	DB	'.?AVlength_error@std@@', 00H
	ORG $-31
	DD	FLAT:??_7type_info@@6B@
	DD	00H
	DB	'.?AVlength_error@std@@', 00H
_DATA	ENDS
;	COMDAT __CT??_R0?AVlogic_error@std@@@8??0logic_error@std@@QAE@ABV01@@Z40
xdata$x	SEGMENT
__CT??_R0?AVlogic_error@std@@@8??0logic_error@std@@QAE@ABV01@@Z40 DD 00H
	DD	FLAT:??_R0?AVlogic_error@std@@@8
	DD	00H
	DD	0ffffffffH
	ORG $+4
	DD	028H
	DD	FLAT:??0logic_error@std@@QAE@ABV01@@Z
xdata$x	ENDS
;	COMDAT ??_R0?AVlogic_error@std@@@8
_DATA	SEGMENT
??_R0?AVlogic_error@std@@@8 DD FLAT:??_7type_info@@6B@	; std::logic_error `RTTI Type Descriptor'
	DD	00H
	DB	'.?AVlogic_error@std@@', 00H
	ORG $-30
	DD	FLAT:??_7type_info@@6B@
	DD	00H
	DB	'.?AVlogic_error@std@@', 00H
_DATA	ENDS
;	COMDAT __CT??_R0?AVexception@@@8??0exception@@QAE@ABV0@@Z12
xdata$x	SEGMENT
__CT??_R0?AVexception@@@8??0exception@@QAE@ABV0@@Z12 DD 00H
	DD	FLAT:??_R0?AVexception@@@8
	DD	00H
	DD	0ffffffffH
	ORG $+4
	DD	0cH
	DD	FLAT:??0exception@@QAE@ABV0@@Z
xdata$x	ENDS
;	COMDAT ??_R0?AVexception@@@8
_DATA	SEGMENT
??_R0?AVexception@@@8 DD FLAT:??_7type_info@@6B@	; exception `RTTI Type Descriptor'
	DD	00H
	DB	'.?AVexception@@', 00H
	ORG $-24
	DD	FLAT:??_7type_info@@6B@
	DD	00H
	DB	'.?AVexception@@', 00H
; Function compile flags: /Odt /RTCsu
_DATA	ENDS
;	COMDAT ?_Xlen@?$vector@UOneLocalGame@@V?$allocator@UOneLocalGame@@@std@@@std@@IBEXXZ
_TEXT	SEGMENT
$T195594 = -84						; size = 28
$T195593 = -56						; size = 40
_this$ = -16						; size = 4
__$EHRec$ = -12						; size = 12
?_Xlen@?$vector@UOneLocalGame@@V?$allocator@UOneLocalGame@@@std@@@std@@IBEXXZ PROC NEAR ; std::vector<OneLocalGame,std::allocator<OneLocalGame> >::_Xlen, COMDAT
; _this$ = ecx

; 883  : 		{	// report a length_error

  00000	55		 push	 ebp
  00001	8b ec		 mov	 ebp, esp
  00003	6a ff		 push	 -1
  00005	68 00 00 00 00	 push	 __ehhandler$?_Xlen@?$vector@UOneLocalGame@@V?$allocator@UOneLocalGame@@@std@@@std@@IBEXXZ
  0000a	64 a1 00 00 00
	00		 mov	 eax, DWORD PTR fs:__except_list
  00010	50		 push	 eax
  00011	64 89 25 00 00
	00 00		 mov	 DWORD PTR fs:__except_list, esp
  00018	83 ec 48	 sub	 esp, 72			; 00000048H
  0001b	56		 push	 esi
  0001c	57		 push	 edi
  0001d	51		 push	 ecx
  0001e	8d 7d ac	 lea	 edi, DWORD PTR [ebp-84]
  00021	b9 12 00 00 00	 mov	 ecx, 18			; 00000012H
  00026	b8 cc cc cc cc	 mov	 eax, -858993460		; ccccccccH
  0002b	f3 ab		 rep stosd
  0002d	59		 pop	 ecx
  0002e	89 4d f0	 mov	 DWORD PTR _this$[ebp], ecx

; 884  : 		_THROW(length_error, "vector<T> too long");

  00031	8b f4		 mov	 esi, esp
  00033	68 00 00 00 00	 push	 OFFSET FLAT:??_C@_0BD@OLBABOEK@vector?$DMT?$DO?5too?5long?$AA@
  00038	8d 4d ac	 lea	 ecx, DWORD PTR $T195594[ebp]
  0003b	ff 15 00 00 00
	00		 call	 DWORD PTR __imp_??0?$basic_string@DU?$char_traits@D@std@@V?$allocator@D@2@@std@@QAE@PBD@Z
  00041	3b f4		 cmp	 esi, esp
  00043	e8 00 00 00 00	 call	 __RTC_CheckEsp
  00048	c7 45 fc 00 00
	00 00		 mov	 DWORD PTR __$EHRec$[ebp+8], 0
  0004f	8d 45 ac	 lea	 eax, DWORD PTR $T195594[ebp]
  00052	50		 push	 eax
  00053	8d 4d c8	 lea	 ecx, DWORD PTR $T195593[ebp]
  00056	e8 00 00 00 00	 call	 ??0length_error@std@@QAE@ABV?$basic_string@DU?$char_traits@D@std@@V?$allocator@D@2@@1@@Z ; std::length_error::length_error
  0005b	68 00 00 00 00	 push	 OFFSET FLAT:__TI3?AVlength_error@std@@
  00060	8d 4d c8	 lea	 ecx, DWORD PTR $T195593[ebp]
  00063	51		 push	 ecx
  00064	e8 00 00 00 00	 call	 __CxxThrowException@8
$L195592:

; 885  : 		}

  00069	8b 4d f4	 mov	 ecx, DWORD PTR __$EHRec$[ebp]
  0006c	64 89 0d 00 00
	00 00		 mov	 DWORD PTR fs:__except_list, ecx
  00073	5f		 pop	 edi
  00074	5e		 pop	 esi
  00075	83 c4 54	 add	 esp, 84			; 00000054H
  00078	3b ec		 cmp	 ebp, esp
  0007a	e8 00 00 00 00	 call	 __RTC_CheckEsp
  0007f	8b e5		 mov	 esp, ebp
  00081	5d		 pop	 ebp
  00082	c3		 ret	 0
_TEXT	ENDS
;	COMDAT text$x
text$x	SEGMENT
$L195596:
  00000	8b f4		 mov	 esi, esp
  00002	8d 4d ac	 lea	 ecx, DWORD PTR $T195594[ebp]
  00005	ff 15 00 00 00
	00		 call	 DWORD PTR __imp_??1?$basic_string@DU?$char_traits@D@std@@V?$allocator@D@2@@std@@QAE@XZ
  0000b	3b f4		 cmp	 esi, esp
  0000d	e9 00 00 00 00	 jmp	 __RTC_CheckEsp
__ehhandler$?_Xlen@?$vector@UOneLocalGame@@V?$allocator@UOneLocalGame@@@std@@@std@@IBEXXZ:
  00012	b8 00 00 00 00	 mov	 eax, OFFSET FLAT:$T195598
  00017	e9 00 00 00 00	 jmp	 ___CxxFrameHandler
text$x	ENDS
?_Xlen@?$vector@UOneLocalGame@@V?$allocator@UOneLocalGame@@@std@@@std@@IBEXXZ ENDP ; std::vector<OneLocalGame,std::allocator<OneLocalGame> >::_Xlen
; Function compile flags: /Odt /RTCsu
; File d:\program files (x86)\microsoft visual studio .net 2003\vc7\include\xmemory
;	COMDAT ??0?$allocator@UOneLocalGame@@@std@@QAE@ABV01@@Z
_TEXT	SEGMENT
_this$ = -4						; size = 4
___formal$ = 8						; size = 4
??0?$allocator@UOneLocalGame@@@std@@QAE@ABV01@@Z PROC NEAR ; std::allocator<OneLocalGame>::allocator<OneLocalGame>, COMDAT
; _this$ = ecx

; 115  : 	allocator(const allocator<_Ty>&)

  00000	55		 push	 ebp
  00001	8b ec		 mov	 ebp, esp
  00003	51		 push	 ecx
  00004	c7 45 fc cc cc
	cc cc		 mov	 DWORD PTR [ebp-4], -858993460 ; ccccccccH
  0000b	89 4d fc	 mov	 DWORD PTR _this$[ebp], ecx

; 116  : 		{	// construct by copying (do nothing)
; 117  : 		}

  0000e	8b 45 fc	 mov	 eax, DWORD PTR _this$[ebp]
  00011	8b e5		 mov	 esp, ebp
  00013	5d		 pop	 ebp
  00014	c2 04 00	 ret	 4
??0?$allocator@UOneLocalGame@@@std@@QAE@ABV01@@Z ENDP	; std::allocator<OneLocalGame>::allocator<OneLocalGame>
; Function compile flags: /Odt /RTCsu
_TEXT	ENDS
;	COMDAT ?deallocate@?$allocator@UOneLocalGame@@@std@@QAEXPAUOneLocalGame@@I@Z
_TEXT	SEGMENT
_this$ = -4						; size = 4
__Ptr$ = 8						; size = 4
___formal$ = 12						; size = 4
?deallocate@?$allocator@UOneLocalGame@@@std@@QAEXPAUOneLocalGame@@I@Z PROC NEAR ; std::allocator<OneLocalGame>::deallocate, COMDAT
; _this$ = ecx

; 131  : 		{	// deallocate object at _Ptr, ignore size

  00000	55		 push	 ebp
  00001	8b ec		 mov	 ebp, esp
  00003	51		 push	 ecx
  00004	c7 45 fc cc cc
	cc cc		 mov	 DWORD PTR [ebp-4], -858993460 ; ccccccccH
  0000b	89 4d fc	 mov	 DWORD PTR _this$[ebp], ecx

; 132  : 		operator delete(_Ptr);

  0000e	8b 45 08	 mov	 eax, DWORD PTR __Ptr$[ebp]
  00011	50		 push	 eax
  00012	e8 00 00 00 00	 call	 ??3@YAXPAX@Z		; operator delete
  00017	83 c4 04	 add	 esp, 4

; 133  : 		}

  0001a	83 c4 04	 add	 esp, 4
  0001d	3b ec		 cmp	 ebp, esp
  0001f	e8 00 00 00 00	 call	 __RTC_CheckEsp
  00024	8b e5		 mov	 esp, ebp
  00026	5d		 pop	 ebp
  00027	c2 08 00	 ret	 8
?deallocate@?$allocator@UOneLocalGame@@@std@@QAEXPAUOneLocalGame@@I@Z ENDP ; std::allocator<OneLocalGame>::deallocate
_TEXT	ENDS
PUBLIC	??$_Allocate@UOneLocalGame@@@std@@YAPAUOneLocalGame@@IPAU1@@Z ; std::_Allocate<OneLocalGame>
; Function compile flags: /Odt /RTCsu
;	COMDAT ?allocate@?$allocator@UOneLocalGame@@@std@@QAEPAUOneLocalGame@@I@Z
_TEXT	SEGMENT
_this$ = -4						; size = 4
__Count$ = 8						; size = 4
?allocate@?$allocator@UOneLocalGame@@@std@@QAEPAUOneLocalGame@@I@Z PROC NEAR ; std::allocator<OneLocalGame>::allocate, COMDAT
; _this$ = ecx

; 136  : 		{	// allocate array of _Count elements

  00000	55		 push	 ebp
  00001	8b ec		 mov	 ebp, esp
  00003	51		 push	 ecx
  00004	c7 45 fc cc cc
	cc cc		 mov	 DWORD PTR [ebp-4], -858993460 ; ccccccccH
  0000b	89 4d fc	 mov	 DWORD PTR _this$[ebp], ecx

; 137  : 		return (_Allocate(_Count, (pointer)0));

  0000e	6a 00		 push	 0
  00010	8b 45 08	 mov	 eax, DWORD PTR __Count$[ebp]
  00013	50		 push	 eax
  00014	e8 00 00 00 00	 call	 ??$_Allocate@UOneLocalGame@@@std@@YAPAUOneLocalGame@@IPAU1@@Z ; std::_Allocate<OneLocalGame>
  00019	83 c4 08	 add	 esp, 8

; 138  : 		}

  0001c	83 c4 04	 add	 esp, 4
  0001f	3b ec		 cmp	 ebp, esp
  00021	e8 00 00 00 00	 call	 __RTC_CheckEsp
  00026	8b e5		 mov	 esp, ebp
  00028	5d		 pop	 ebp
  00029	c2 04 00	 ret	 4
?allocate@?$allocator@UOneLocalGame@@@std@@QAEPAUOneLocalGame@@I@Z ENDP ; std::allocator<OneLocalGame>::allocate
_TEXT	ENDS
PUBLIC	?max_size@?$allocator@H@std@@QBEIXZ		; std::allocator<int>::max_size
; Function compile flags: /Odt /RTCsu
; File d:\program files (x86)\microsoft visual studio .net 2003\vc7\include\vector
;	COMDAT ?max_size@?$vector@HV?$allocator@H@std@@@std@@QBEIXZ
_TEXT	SEGMENT
_this$ = -4						; size = 4
?max_size@?$vector@HV?$allocator@H@std@@@std@@QBEIXZ PROC NEAR ; std::vector<int,std::allocator<int> >::max_size, COMDAT
; _this$ = ecx

; 520  : 		{	// return maximum possible length of sequence

  00000	55		 push	 ebp
  00001	8b ec		 mov	 ebp, esp
  00003	51		 push	 ecx
  00004	c7 45 fc cc cc
	cc cc		 mov	 DWORD PTR [ebp-4], -858993460 ; ccccccccH
  0000b	89 4d fc	 mov	 DWORD PTR _this$[ebp], ecx

; 521  : 		return (this->_Alval.max_size());

  0000e	8b 4d fc	 mov	 ecx, DWORD PTR _this$[ebp]
  00011	e8 00 00 00 00	 call	 ?max_size@?$allocator@H@std@@QBEIXZ ; std::allocator<int>::max_size

; 522  : 		}

  00016	83 c4 04	 add	 esp, 4
  00019	3b ec		 cmp	 ebp, esp
  0001b	e8 00 00 00 00	 call	 __RTC_CheckEsp
  00020	8b e5		 mov	 esp, ebp
  00022	5d		 pop	 ebp
  00023	c3		 ret	 0
?max_size@?$vector@HV?$allocator@H@std@@@std@@QBEIXZ ENDP ; std::vector<int,std::allocator<int> >::max_size
_TEXT	ENDS
;	COMDAT xdata$x
xdata$x	SEGMENT
$T195614 DD	0ffffffffH
	DD	FLAT:$L195610
$T195612 DD	019930520H
	DD	01H
	DD	FLAT:$T195614
	DD	2 DUP(00H)
	DD	2 DUP(00H)
; Function compile flags: /Odt /RTCsu
xdata$x	ENDS
;	COMDAT ?_Xlen@?$vector@HV?$allocator@H@std@@@std@@IBEXXZ
_TEXT	SEGMENT
$T195609 = -84						; size = 28
$T195608 = -56						; size = 40
_this$ = -16						; size = 4
__$EHRec$ = -12						; size = 12
?_Xlen@?$vector@HV?$allocator@H@std@@@std@@IBEXXZ PROC NEAR ; std::vector<int,std::allocator<int> >::_Xlen, COMDAT
; _this$ = ecx

; 883  : 		{	// report a length_error

  00000	55		 push	 ebp
  00001	8b ec		 mov	 ebp, esp
  00003	6a ff		 push	 -1
  00005	68 00 00 00 00	 push	 __ehhandler$?_Xlen@?$vector@HV?$allocator@H@std@@@std@@IBEXXZ
  0000a	64 a1 00 00 00
	00		 mov	 eax, DWORD PTR fs:__except_list
  00010	50		 push	 eax
  00011	64 89 25 00 00
	00 00		 mov	 DWORD PTR fs:__except_list, esp
  00018	83 ec 48	 sub	 esp, 72			; 00000048H
  0001b	56		 push	 esi
  0001c	57		 push	 edi
  0001d	51		 push	 ecx
  0001e	8d 7d ac	 lea	 edi, DWORD PTR [ebp-84]
  00021	b9 12 00 00 00	 mov	 ecx, 18			; 00000012H
  00026	b8 cc cc cc cc	 mov	 eax, -858993460		; ccccccccH
  0002b	f3 ab		 rep stosd
  0002d	59		 pop	 ecx
  0002e	89 4d f0	 mov	 DWORD PTR _this$[ebp], ecx

; 884  : 		_THROW(length_error, "vector<T> too long");

  00031	8b f4		 mov	 esi, esp
  00033	68 00 00 00 00	 push	 OFFSET FLAT:??_C@_0BD@OLBABOEK@vector?$DMT?$DO?5too?5long?$AA@
  00038	8d 4d ac	 lea	 ecx, DWORD PTR $T195609[ebp]
  0003b	ff 15 00 00 00
	00		 call	 DWORD PTR __imp_??0?$basic_string@DU?$char_traits@D@std@@V?$allocator@D@2@@std@@QAE@PBD@Z
  00041	3b f4		 cmp	 esi, esp
  00043	e8 00 00 00 00	 call	 __RTC_CheckEsp
  00048	c7 45 fc 00 00
	00 00		 mov	 DWORD PTR __$EHRec$[ebp+8], 0
  0004f	8d 45 ac	 lea	 eax, DWORD PTR $T195609[ebp]
  00052	50		 push	 eax
  00053	8d 4d c8	 lea	 ecx, DWORD PTR $T195608[ebp]
  00056	e8 00 00 00 00	 call	 ??0length_error@std@@QAE@ABV?$basic_string@DU?$char_traits@D@std@@V?$allocator@D@2@@1@@Z ; std::length_error::length_error
  0005b	68 00 00 00 00	 push	 OFFSET FLAT:__TI3?AVlength_error@std@@
  00060	8d 4d c8	 lea	 ecx, DWORD PTR $T195608[ebp]
  00063	51		 push	 ecx
  00064	e8 00 00 00 00	 call	 __CxxThrowException@8
$L195607:

; 885  : 		}

  00069	8b 4d f4	 mov	 ecx, DWORD PTR __$EHRec$[ebp]
  0006c	64 89 0d 00 00
	00 00		 mov	 DWORD PTR fs:__except_list, ecx
  00073	5f		 pop	 edi
  00074	5e		 pop	 esi
  00075	83 c4 54	 add	 esp, 84			; 00000054H
  00078	3b ec		 cmp	 ebp, esp
  0007a	e8 00 00 00 00	 call	 __RTC_CheckEsp
  0007f	8b e5		 mov	 esp, ebp
  00081	5d		 pop	 ebp
  00082	c3		 ret	 0
_TEXT	ENDS
;	COMDAT text$x
text$x	SEGMENT
$L195610:
  00000	8b f4		 mov	 esi, esp
  00002	8d 4d ac	 lea	 ecx, DWORD PTR $T195609[ebp]
  00005	ff 15 00 00 00
	00		 call	 DWORD PTR __imp_??1?$basic_string@DU?$char_traits@D@std@@V?$allocator@D@2@@std@@QAE@XZ
  0000b	3b f4		 cmp	 esi, esp
  0000d	e9 00 00 00 00	 jmp	 __RTC_CheckEsp
__ehhandler$?_Xlen@?$vector@HV?$allocator@H@std@@@std@@IBEXXZ:
  00012	b8 00 00 00 00	 mov	 eax, OFFSET FLAT:$T195612
  00017	e9 00 00 00 00	 jmp	 ___CxxFrameHandler
text$x	ENDS
?_Xlen@?$vector@HV?$allocator@H@std@@@std@@IBEXXZ ENDP	; std::vector<int,std::allocator<int> >::_Xlen
; Function compile flags: /Odt /RTCsu
; File d:\program files (x86)\microsoft visual studio .net 2003\vc7\include\xmemory
;	COMDAT ??0?$allocator@H@std@@QAE@ABV01@@Z
_TEXT	SEGMENT
_this$ = -4						; size = 4
___formal$ = 8						; size = 4
??0?$allocator@H@std@@QAE@ABV01@@Z PROC NEAR		; std::allocator<int>::allocator<int>, COMDAT
; _this$ = ecx

; 115  : 	allocator(const allocator<_Ty>&)

  00000	55		 push	 ebp
  00001	8b ec		 mov	 ebp, esp
  00003	51		 push	 ecx
  00004	c7 45 fc cc cc
	cc cc		 mov	 DWORD PTR [ebp-4], -858993460 ; ccccccccH
  0000b	89 4d fc	 mov	 DWORD PTR _this$[ebp], ecx

; 116  : 		{	// construct by copying (do nothing)
; 117  : 		}

  0000e	8b 45 fc	 mov	 eax, DWORD PTR _this$[ebp]
  00011	8b e5		 mov	 esp, ebp
  00013	5d		 pop	 ebp
  00014	c2 04 00	 ret	 4
??0?$allocator@H@std@@QAE@ABV01@@Z ENDP			; std::allocator<int>::allocator<int>
_TEXT	ENDS
PUBLIC	??$_Allocate@H@std@@YAPAHIPAH@Z			; std::_Allocate<int>
; Function compile flags: /Odt /RTCsu
;	COMDAT ?allocate@?$allocator@H@std@@QAEPAHI@Z
_TEXT	SEGMENT
_this$ = -4						; size = 4
__Count$ = 8						; size = 4
?allocate@?$allocator@H@std@@QAEPAHI@Z PROC NEAR	; std::allocator<int>::allocate, COMDAT
; _this$ = ecx

; 136  : 		{	// allocate array of _Count elements

  00000	55		 push	 ebp
  00001	8b ec		 mov	 ebp, esp
  00003	51		 push	 ecx
  00004	c7 45 fc cc cc
	cc cc		 mov	 DWORD PTR [ebp-4], -858993460 ; ccccccccH
  0000b	89 4d fc	 mov	 DWORD PTR _this$[ebp], ecx

; 137  : 		return (_Allocate(_Count, (pointer)0));

  0000e	6a 00		 push	 0
  00010	8b 45 08	 mov	 eax, DWORD PTR __Count$[ebp]
  00013	50		 push	 eax
  00014	e8 00 00 00 00	 call	 ??$_Allocate@H@std@@YAPAHIPAH@Z ; std::_Allocate<int>
  00019	83 c4 08	 add	 esp, 8

; 138  : 		}

  0001c	83 c4 04	 add	 esp, 4
  0001f	3b ec		 cmp	 ebp, esp
  00021	e8 00 00 00 00	 call	 __RTC_CheckEsp
  00026	8b e5		 mov	 esp, ebp
  00028	5d		 pop	 ebp
  00029	c2 04 00	 ret	 4
?allocate@?$allocator@H@std@@QAEPAHI@Z ENDP		; std::allocator<int>::allocate
_TEXT	ENDS
PUBLIC	?max_size@?$allocator@V?$basic_string@DU?$char_traits@D@std@@V?$allocator@D@2@@std@@@std@@QBEIXZ ; std::allocator<std::basic_string<char,std::char_traits<char>,std::allocator<char> > >::max_size
; Function compile flags: /Odt /RTCsu
; File d:\program files (x86)\microsoft visual studio .net 2003\vc7\include\vector
;	COMDAT ?max_size@?$vector@V?$basic_string@DU?$char_traits@D@std@@V?$allocator@D@2@@std@@V?$allocator@V?$basic_string@DU?$char_traits@D@std@@V?$allocator@D@2@@std@@@2@@std@@QBEIXZ
_TEXT	SEGMENT
_this$ = -4						; size = 4
?max_size@?$vector@V?$basic_string@DU?$char_traits@D@std@@V?$allocator@D@2@@std@@V?$allocator@V?$basic_string@DU?$char_traits@D@std@@V?$allocator@D@2@@std@@@2@@std@@QBEIXZ PROC NEAR ; std::vector<std::basic_string<char,std::char_traits<char>,std::allocator<char> >,std::allocator<std::basic_string<char,std::char_traits<char>,std::allocator<char> > > >::max_size, COMDAT
; _this$ = ecx

; 520  : 		{	// return maximum possible length of sequence

  00000	55		 push	 ebp
  00001	8b ec		 mov	 ebp, esp
  00003	51		 push	 ecx
  00004	c7 45 fc cc cc
	cc cc		 mov	 DWORD PTR [ebp-4], -858993460 ; ccccccccH
  0000b	89 4d fc	 mov	 DWORD PTR _this$[ebp], ecx

; 521  : 		return (this->_Alval.max_size());

  0000e	8b 4d fc	 mov	 ecx, DWORD PTR _this$[ebp]
  00011	e8 00 00 00 00	 call	 ?max_size@?$allocator@V?$basic_string@DU?$char_traits@D@std@@V?$allocator@D@2@@std@@@std@@QBEIXZ ; std::allocator<std::basic_string<char,std::char_traits<char>,std::allocator<char> > >::max_size

; 522  : 		}

  00016	83 c4 04	 add	 esp, 4
  00019	3b ec		 cmp	 ebp, esp
  0001b	e8 00 00 00 00	 call	 __RTC_CheckEsp
  00020	8b e5		 mov	 esp, ebp
  00022	5d		 pop	 ebp
  00023	c3		 ret	 0
?max_size@?$vector@V?$basic_string@DU?$char_traits@D@std@@V?$allocator@D@2@@std@@V?$allocator@V?$basic_string@DU?$char_traits@D@std@@V?$allocator@D@2@@std@@@2@@std@@QBEIXZ ENDP ; std::vector<std::basic_string<char,std::char_traits<char>,std::allocator<char> >,std::allocator<std::basic_string<char,std::char_traits<char>,std::allocator<char> > > >::max_size
_TEXT	ENDS
PUBLIC	??$_Destroy_range@V?$basic_string@DU?$char_traits@D@std@@V?$allocator@D@2@@std@@V?$allocator@V?$basic_string@DU?$char_traits@D@std@@V?$allocator@D@2@@std@@@2@@std@@YAXPAV?$basic_string@DU?$char_traits@D@std@@V?$allocator@D@2@@0@0AAV?$allocator@V?$basic_string@DU?$char_traits@D@std@@V?$allocator@D@2@@std@@@0@@Z ; std::_Destroy_range<std::basic_string<char,std::char_traits<char>,std::allocator<char> >,std::allocator<std::basic_string<char,std::char_traits<char>,std::allocator<char> > > >
; Function compile flags: /Odt /RTCsu
;	COMDAT ?_Destroy@?$vector@V?$basic_string@DU?$char_traits@D@std@@V?$allocator@D@2@@std@@V?$allocator@V?$basic_string@DU?$char_traits@D@std@@V?$allocator@D@2@@std@@@2@@std@@IAEXPAV?$basic_string@DU?$char_traits@D@std@@V?$allocator@D@2@@2@0@Z
_TEXT	SEGMENT
_this$ = -4						; size = 4
__First$ = 8						; size = 4
__Last$ = 12						; size = 4
?_Destroy@?$vector@V?$basic_string@DU?$char_traits@D@std@@V?$allocator@D@2@@std@@V?$allocator@V?$basic_string@DU?$char_traits@D@std@@V?$allocator@D@2@@std@@@2@@std@@IAEXPAV?$basic_string@DU?$char_traits@D@std@@V?$allocator@D@2@@2@0@Z PROC NEAR ; std::vector<std::basic_string<char,std::char_traits<char>,std::allocator<char> >,std::allocator<std::basic_string<char,std::char_traits<char>,std::allocator<char> > > >::_Destroy, COMDAT
; _this$ = ecx

; 786  : 		{	// destroy [_First, _Last) using allocator

  00000	55		 push	 ebp
  00001	8b ec		 mov	 ebp, esp
  00003	51		 push	 ecx
  00004	c7 45 fc cc cc
	cc cc		 mov	 DWORD PTR [ebp-4], -858993460 ; ccccccccH
  0000b	89 4d fc	 mov	 DWORD PTR _this$[ebp], ecx

; 787  : 		_Destroy_range(_First, _Last, this->_Alval);

  0000e	8b 45 fc	 mov	 eax, DWORD PTR _this$[ebp]
  00011	50		 push	 eax
  00012	8b 4d 0c	 mov	 ecx, DWORD PTR __Last$[ebp]
  00015	51		 push	 ecx
  00016	8b 55 08	 mov	 edx, DWORD PTR __First$[ebp]
  00019	52		 push	 edx
  0001a	e8 00 00 00 00	 call	 ??$_Destroy_range@V?$basic_string@DU?$char_traits@D@std@@V?$allocator@D@2@@std@@V?$allocator@V?$basic_string@DU?$char_traits@D@std@@V?$allocator@D@2@@std@@@2@@std@@YAXPAV?$basic_string@DU?$char_traits@D@std@@V?$allocator@D@2@@0@0AAV?$allocator@V?$basic_string@DU?$char_traits@D@std@@V?$allocator@D@2@@std@@@0@@Z ; std::_Destroy_range<std::basic_string<char,std::char_traits<char>,std::allocator<char> >,std::allocator<std::basic_string<char,std::char_traits<char>,std::allocator<char> > > >
  0001f	83 c4 0c	 add	 esp, 12			; 0000000cH

; 788  : 		}

  00022	83 c4 04	 add	 esp, 4
  00025	3b ec		 cmp	 ebp, esp
  00027	e8 00 00 00 00	 call	 __RTC_CheckEsp
  0002c	8b e5		 mov	 esp, ebp
  0002e	5d		 pop	 ebp
  0002f	c2 08 00	 ret	 8
?_Destroy@?$vector@V?$basic_string@DU?$char_traits@D@std@@V?$allocator@D@2@@std@@V?$allocator@V?$basic_string@DU?$char_traits@D@std@@V?$allocator@D@2@@std@@@2@@std@@IAEXPAV?$basic_string@DU?$char_traits@D@std@@V?$allocator@D@2@@2@0@Z ENDP ; std::vector<std::basic_string<char,std::char_traits<char>,std::allocator<char> >,std::allocator<std::basic_string<char,std::char_traits<char>,std::allocator<char> > > >::_Destroy
_TEXT	ENDS
PUBLIC	??$_Ucopy@PAV?$basic_string@DU?$char_traits@D@std@@V?$allocator@D@2@@std@@@?$vector@V?$basic_string@DU?$char_traits@D@std@@V?$allocator@D@2@@std@@V?$allocator@V?$basic_string@DU?$char_traits@D@std@@V?$allocator@D@2@@std@@@2@@std@@IAEPAV?$basic_string@DU?$char_traits@D@std@@V?$allocator@D@2@@1@PAV21@00@Z ; std::vector<std::basic_string<char,std::char_traits<char>,std::allocator<char> >,std::allocator<std::basic_string<char,std::char_traits<char>,std::allocator<char> > > >::_Ucopy<std::basic_string<char,std::char_traits<char>,std::allocator<char> > *>
PUBLIC	??$fill@PAV?$basic_string@DU?$char_traits@D@std@@V?$allocator@D@2@@std@@V12@@std@@YAXPAV?$basic_string@DU?$char_traits@D@std@@V?$allocator@D@2@@0@0ABV10@@Z ; std::fill<std::basic_string<char,std::char_traits<char>,std::allocator<char> > *,std::basic_string<char,std::char_traits<char>,std::allocator<char> > >
PUBLIC	??$copy_backward@PAV?$basic_string@DU?$char_traits@D@std@@V?$allocator@D@2@@std@@PAV12@@std@@YAPAV?$basic_string@DU?$char_traits@D@std@@V?$allocator@D@2@@0@PAV10@00@Z ; std::copy_backward<std::basic_string<char,std::char_traits<char>,std::allocator<char> > *,std::basic_string<char,std::char_traits<char>,std::allocator<char> > *>
;	COMDAT xdata$x
xdata$x	SEGMENT
$T195637 DD	0ffffffffH
	DD	FLAT:$L195629
	DD	00H
	DD	00H
	DD	00H
	DD	00H
	DD	00H
	DD	00H
	DD	00H
	DD	00H
$T195639 DD	00H
	DD	00H
	DD	00H
	DD	FLAT:$L195626
$T195640 DD	00H
	DD	00H
	DD	00H
	DD	FLAT:$L195628
$T195638 DD	01H
	DD	01H
	DD	02H
	DD	01H
	DD	FLAT:$T195639
	DD	03H
	DD	03H
	DD	04H
	DD	01H
	DD	FLAT:$T195640
$T195631 DD	019930520H
	DD	05H
	DD	FLAT:$T195637
	DD	02H
	DD	FLAT:$T195638
	DD	2 DUP(00H)
; Function compile flags: /Odt /RTCsu
xdata$x	ENDS
;	COMDAT ?_Insert_n@?$vector@V?$basic_string@DU?$char_traits@D@std@@V?$allocator@D@2@@std@@V?$allocator@V?$basic_string@DU?$char_traits@D@std@@V?$allocator@D@2@@std@@@2@@std@@IAEXViterator@12@IABV?$basic_string@DU?$char_traits@D@std@@V?$allocator@D@2@@2@@Z
_TEXT	SEGMENT
tv246 = -88						; size = 4
tv245 = -84						; size = 4
tv89 = -80						; size = 4
__Oldend$193708 = -76					; size = 4
__Ptr$193688 = -72					; size = 4
__Newvec$193687 = -68					; size = 4
__Capacity$ = -64					; size = 4
__Tmp$ = -56						; size = 28
_this$ = -24						; size = 4
__$ArrayPad$ = -20					; size = 4
__$EHRec$ = -16						; size = 16
__$ReturnAddr$ = 4					; size = 4
__Where$ = 8						; size = 4
__Count$ = 12						; size = 4
__Val$ = 16						; size = 4
?_Insert_n@?$vector@V?$basic_string@DU?$char_traits@D@std@@V?$allocator@D@2@@std@@V?$allocator@V?$basic_string@DU?$char_traits@D@std@@V?$allocator@D@2@@std@@@2@@std@@IAEXViterator@12@IABV?$basic_string@DU?$char_traits@D@std@@V?$allocator@D@2@@2@@Z PROC NEAR ; std::vector<std::basic_string<char,std::char_traits<char>,std::allocator<char> >,std::allocator<std::basic_string<char,std::char_traits<char>,std::allocator<char> > > >::_Insert_n, COMDAT
; _this$ = ecx

; 809  : 		{	// insert _Count * _Val at _Where

  00000	55		 push	 ebp
  00001	8b ec		 mov	 ebp, esp
  00003	6a ff		 push	 -1
  00005	68 00 00 00 00	 push	 __ehhandler$?_Insert_n@?$vector@V?$basic_string@DU?$char_traits@D@std@@V?$allocator@D@2@@std@@V?$allocator@V?$basic_string@DU?$char_traits@D@std@@V?$allocator@D@2@@std@@@2@@std@@IAEXViterator@12@IABV?$basic_string@DU?$char_traits@D@std@@V?$allocator@D@2@@2@@Z
  0000a	64 a1 00 00 00
	00		 mov	 eax, DWORD PTR fs:__except_list
  00010	50		 push	 eax
  00011	64 89 25 00 00
	00 00		 mov	 DWORD PTR fs:__except_list, esp
  00018	51		 push	 ecx
  00019	83 ec 48	 sub	 esp, 72			; 00000048H
  0001c	53		 push	 ebx
  0001d	56		 push	 esi
  0001e	57		 push	 edi
  0001f	51		 push	 ecx
  00020	8d 7d a8	 lea	 edi, DWORD PTR [ebp-88]
  00023	b9 12 00 00 00	 mov	 ecx, 18			; 00000012H
  00028	b8 cc cc cc cc	 mov	 eax, -858993460		; ccccccccH
  0002d	f3 ab		 rep stosd
  0002f	59		 pop	 ecx
  00030	a1 00 00 00 00	 mov	 eax, DWORD PTR ___security_cookie
  00035	89 45 ec	 mov	 DWORD PTR __$ArrayPad$[ebp], eax
  00038	89 65 f0	 mov	 DWORD PTR __$EHRec$[ebp], esp
  0003b	89 4d e8	 mov	 DWORD PTR _this$[ebp], ecx

; 810  : 		_Ty _Tmp = _Val;	// in case _Val is in sequence

  0003e	8b f4		 mov	 esi, esp
  00040	8b 45 10	 mov	 eax, DWORD PTR __Val$[ebp]
  00043	50		 push	 eax
  00044	8d 4d c8	 lea	 ecx, DWORD PTR __Tmp$[ebp]
  00047	ff 15 00 00 00
	00		 call	 DWORD PTR __imp_??0?$basic_string@DU?$char_traits@D@std@@V?$allocator@D@2@@std@@QAE@ABV01@@Z
  0004d	3b f4		 cmp	 esi, esp
  0004f	e8 00 00 00 00	 call	 __RTC_CheckEsp
  00054	c7 45 fc 00 00
	00 00		 mov	 DWORD PTR __$EHRec$[ebp+12], 0

; 811  : 		size_type _Capacity = capacity();

  0005b	8b 4d e8	 mov	 ecx, DWORD PTR _this$[ebp]
  0005e	e8 00 00 00 00	 call	 ?capacity@?$vector@V?$basic_string@DU?$char_traits@D@std@@V?$allocator@D@2@@std@@V?$allocator@V?$basic_string@DU?$char_traits@D@std@@V?$allocator@D@2@@std@@@2@@std@@QBEIXZ ; std::vector<std::basic_string<char,std::char_traits<char>,std::allocator<char> >,std::allocator<std::basic_string<char,std::char_traits<char>,std::allocator<char> > > >::capacity
  00063	89 45 c0	 mov	 DWORD PTR __Capacity$[ebp], eax

; 812  : 
; 813  : 		if (_Count == 0)

  00066	83 7d 0c 00	 cmp	 DWORD PTR __Count$[ebp], 0
  0006a	75 05		 jne	 SHORT $L193681

; 814  : 			;
; 815  : 		else if (max_size() - size() < _Count)

  0006c	e9 cf 02 00 00	 jmp	 $L193682
$L193681:
  00071	8b 4d e8	 mov	 ecx, DWORD PTR _this$[ebp]
  00074	e8 00 00 00 00	 call	 ?size@?$vector@V?$basic_string@DU?$char_traits@D@std@@V?$allocator@D@2@@std@@V?$allocator@V?$basic_string@DU?$char_traits@D@std@@V?$allocator@D@2@@std@@@2@@std@@QBEIXZ ; std::vector<std::basic_string<char,std::char_traits<char>,std::allocator<char> >,std::allocator<std::basic_string<char,std::char_traits<char>,std::allocator<char> > > >::size
  00079	8b f0		 mov	 esi, eax
  0007b	8b 4d e8	 mov	 ecx, DWORD PTR _this$[ebp]
  0007e	e8 00 00 00 00	 call	 ?max_size@?$vector@V?$basic_string@DU?$char_traits@D@std@@V?$allocator@D@2@@std@@V?$allocator@V?$basic_string@DU?$char_traits@D@std@@V?$allocator@D@2@@std@@@2@@std@@QBEIXZ ; std::vector<std::basic_string<char,std::char_traits<char>,std::allocator<char> >,std::allocator<std::basic_string<char,std::char_traits<char>,std::allocator<char> > > >::max_size
  00083	2b c6		 sub	 eax, esi
  00085	3b 45 0c	 cmp	 eax, DWORD PTR __Count$[ebp]
  00088	73 0d		 jae	 SHORT $L193683

; 816  : 			_Xlen();	// result too long

  0008a	8b 4d e8	 mov	 ecx, DWORD PTR _this$[ebp]
  0008d	e8 00 00 00 00	 call	 ?_Xlen@?$vector@V?$basic_string@DU?$char_traits@D@std@@V?$allocator@D@2@@std@@V?$allocator@V?$basic_string@DU?$char_traits@D@std@@V?$allocator@D@2@@std@@@2@@std@@IBEXXZ ; std::vector<std::basic_string<char,std::char_traits<char>,std::allocator<char> >,std::allocator<std::basic_string<char,std::char_traits<char>,std::allocator<char> > > >::_Xlen

; 817  : 		else if (_Capacity < size() + _Count)

  00092	e9 a9 02 00 00	 jmp	 $L193682
$L193683:
  00097	8b 4d e8	 mov	 ecx, DWORD PTR _this$[ebp]
  0009a	e8 00 00 00 00	 call	 ?size@?$vector@V?$basic_string@DU?$char_traits@D@std@@V?$allocator@D@2@@std@@V?$allocator@V?$basic_string@DU?$char_traits@D@std@@V?$allocator@D@2@@std@@@2@@std@@QBEIXZ ; std::vector<std::basic_string<char,std::char_traits<char>,std::allocator<char> >,std::allocator<std::basic_string<char,std::char_traits<char>,std::allocator<char> > > >::size
  0009f	03 45 0c	 add	 eax, DWORD PTR __Count$[ebp]
  000a2	39 45 c0	 cmp	 DWORD PTR __Capacity$[ebp], eax
  000a5	0f 83 68 01 00
	00		 jae	 $L193685

; 818  : 			{	// not enough room, reallocate
; 819  : 			_Capacity = max_size() - _Capacity / 2 < _Capacity
; 820  : 				? 0 : _Capacity + _Capacity / 2;	// try to grow by 50%

  000ab	8b 75 c0	 mov	 esi, DWORD PTR __Capacity$[ebp]
  000ae	d1 ee		 shr	 esi, 1
  000b0	8b 4d e8	 mov	 ecx, DWORD PTR _this$[ebp]
  000b3	e8 00 00 00 00	 call	 ?max_size@?$vector@V?$basic_string@DU?$char_traits@D@std@@V?$allocator@D@2@@std@@V?$allocator@V?$basic_string@DU?$char_traits@D@std@@V?$allocator@D@2@@std@@@2@@std@@QBEIXZ ; std::vector<std::basic_string<char,std::char_traits<char>,std::allocator<char> >,std::allocator<std::basic_string<char,std::char_traits<char>,std::allocator<char> > > >::max_size
  000b8	2b c6		 sub	 eax, esi
  000ba	3b 45 c0	 cmp	 eax, DWORD PTR __Capacity$[ebp]
  000bd	73 09		 jae	 SHORT $L195623
  000bf	c7 45 b0 00 00
	00 00		 mov	 DWORD PTR tv89[ebp], 0
  000c6	eb 0b		 jmp	 SHORT $L195624
$L195623:
  000c8	8b 4d c0	 mov	 ecx, DWORD PTR __Capacity$[ebp]
  000cb	d1 e9		 shr	 ecx, 1
  000cd	03 4d c0	 add	 ecx, DWORD PTR __Capacity$[ebp]
  000d0	89 4d b0	 mov	 DWORD PTR tv89[ebp], ecx
$L195624:
  000d3	8b 55 b0	 mov	 edx, DWORD PTR tv89[ebp]
  000d6	89 55 c0	 mov	 DWORD PTR __Capacity$[ebp], edx

; 821  : 			if (_Capacity < size() + _Count)

  000d9	8b 4d e8	 mov	 ecx, DWORD PTR _this$[ebp]
  000dc	e8 00 00 00 00	 call	 ?size@?$vector@V?$basic_string@DU?$char_traits@D@std@@V?$allocator@D@2@@std@@V?$allocator@V?$basic_string@DU?$char_traits@D@std@@V?$allocator@D@2@@std@@@2@@std@@QBEIXZ ; std::vector<std::basic_string<char,std::char_traits<char>,std::allocator<char> >,std::allocator<std::basic_string<char,std::char_traits<char>,std::allocator<char> > > >::size
  000e1	03 45 0c	 add	 eax, DWORD PTR __Count$[ebp]
  000e4	39 45 c0	 cmp	 DWORD PTR __Capacity$[ebp], eax
  000e7	73 0e		 jae	 SHORT $L193686

; 822  : 				_Capacity = size() + _Count;

  000e9	8b 4d e8	 mov	 ecx, DWORD PTR _this$[ebp]
  000ec	e8 00 00 00 00	 call	 ?size@?$vector@V?$basic_string@DU?$char_traits@D@std@@V?$allocator@D@2@@std@@V?$allocator@V?$basic_string@DU?$char_traits@D@std@@V?$allocator@D@2@@std@@@2@@std@@QBEIXZ ; std::vector<std::basic_string<char,std::char_traits<char>,std::allocator<char> >,std::allocator<std::basic_string<char,std::char_traits<char>,std::allocator<char> > > >::size
  000f1	03 45 0c	 add	 eax, DWORD PTR __Count$[ebp]
  000f4	89 45 c0	 mov	 DWORD PTR __Capacity$[ebp], eax
$L193686:

; 823  : 			pointer _Newvec = this->_Alval.allocate(_Capacity);

  000f7	8b 45 c0	 mov	 eax, DWORD PTR __Capacity$[ebp]
  000fa	50		 push	 eax
  000fb	8b 4d e8	 mov	 ecx, DWORD PTR _this$[ebp]
  000fe	e8 00 00 00 00	 call	 ?allocate@?$allocator@V?$basic_string@DU?$char_traits@D@std@@V?$allocator@D@2@@std@@@std@@QAEPAV?$basic_string@DU?$char_traits@D@std@@V?$allocator@D@2@@2@I@Z ; std::allocator<std::basic_string<char,std::char_traits<char>,std::allocator<char> > >::allocate
  00103	89 45 bc	 mov	 DWORD PTR __Newvec$193687[ebp], eax

; 824  : 			pointer _Ptr = _Newvec;

  00106	8b 4d bc	 mov	 ecx, DWORD PTR __Newvec$193687[ebp]
  00109	89 4d b8	 mov	 DWORD PTR __Ptr$193688[ebp], ecx

; 825  : 
; 826  : 			_TRY_BEGIN

  0010c	c6 45 fc 01	 mov	 BYTE PTR __$EHRec$[ebp+12], 1

; 827  : 			_Ptr = _Ucopy(_Myfirst, _ITER_BASE(_Where),
; 828  : 				_Newvec);	// copy prefix

  00110	8b 55 bc	 mov	 edx, DWORD PTR __Newvec$193687[ebp]
  00113	52		 push	 edx
  00114	8b 45 08	 mov	 eax, DWORD PTR __Where$[ebp]
  00117	50		 push	 eax
  00118	8b 4d e8	 mov	 ecx, DWORD PTR _this$[ebp]
  0011b	8b 51 04	 mov	 edx, DWORD PTR [ecx+4]
  0011e	52		 push	 edx
  0011f	8b 4d e8	 mov	 ecx, DWORD PTR _this$[ebp]
  00122	e8 00 00 00 00	 call	 ??$_Ucopy@PAV?$basic_string@DU?$char_traits@D@std@@V?$allocator@D@2@@std@@@?$vector@V?$basic_string@DU?$char_traits@D@std@@V?$allocator@D@2@@std@@V?$allocator@V?$basic_string@DU?$char_traits@D@std@@V?$allocator@D@2@@std@@@2@@std@@IAEPAV?$basic_string@DU?$char_traits@D@std@@V?$allocator@D@2@@1@PAV21@00@Z ; std::vector<std::basic_string<char,std::char_traits<char>,std::allocator<char> >,std::allocator<std::basic_string<char,std::char_traits<char>,std::allocator<char> > > >::_Ucopy<std::basic_string<char,std::char_traits<char>,std::allocator<char> > *>
  00127	89 45 ac	 mov	 DWORD PTR tv245[ebp], eax
  0012a	8b 45 ac	 mov	 eax, DWORD PTR tv245[ebp]
  0012d	89 45 b8	 mov	 DWORD PTR __Ptr$193688[ebp], eax

; 829  : 			_Ptr = _Ufill(_Ptr, _Count, _Tmp);	// add new stuff

  00130	8d 4d c8	 lea	 ecx, DWORD PTR __Tmp$[ebp]
  00133	51		 push	 ecx
  00134	8b 55 0c	 mov	 edx, DWORD PTR __Count$[ebp]
  00137	52		 push	 edx
  00138	8b 45 b8	 mov	 eax, DWORD PTR __Ptr$193688[ebp]
  0013b	50		 push	 eax
  0013c	8b 4d e8	 mov	 ecx, DWORD PTR _this$[ebp]
  0013f	e8 00 00 00 00	 call	 ?_Ufill@?$vector@V?$basic_string@DU?$char_traits@D@std@@V?$allocator@D@2@@std@@V?$allocator@V?$basic_string@DU?$char_traits@D@std@@V?$allocator@D@2@@std@@@2@@std@@IAEPAV?$basic_string@DU?$char_traits@D@std@@V?$allocator@D@2@@2@PAV32@IABV32@@Z ; std::vector<std::basic_string<char,std::char_traits<char>,std::allocator<char> >,std::allocator<std::basic_string<char,std::char_traits<char>,std::allocator<char> > > >::_Ufill
  00144	89 45 a8	 mov	 DWORD PTR tv246[ebp], eax
  00147	8b 4d a8	 mov	 ecx, DWORD PTR tv246[ebp]
  0014a	89 4d b8	 mov	 DWORD PTR __Ptr$193688[ebp], ecx

; 830  : 			_Ucopy(_ITER_BASE(_Where), _Mylast, _Ptr);	// copy suffix

  0014d	8b 55 b8	 mov	 edx, DWORD PTR __Ptr$193688[ebp]
  00150	52		 push	 edx
  00151	8b 45 e8	 mov	 eax, DWORD PTR _this$[ebp]
  00154	8b 48 08	 mov	 ecx, DWORD PTR [eax+8]
  00157	51		 push	 ecx
  00158	8b 55 08	 mov	 edx, DWORD PTR __Where$[ebp]
  0015b	52		 push	 edx
  0015c	8b 4d e8	 mov	 ecx, DWORD PTR _this$[ebp]
  0015f	e8 00 00 00 00	 call	 ??$_Ucopy@PAV?$basic_string@DU?$char_traits@D@std@@V?$allocator@D@2@@std@@@?$vector@V?$basic_string@DU?$char_traits@D@std@@V?$allocator@D@2@@std@@V?$allocator@V?$basic_string@DU?$char_traits@D@std@@V?$allocator@D@2@@std@@@2@@std@@IAEPAV?$basic_string@DU?$char_traits@D@std@@V?$allocator@D@2@@1@PAV21@00@Z ; std::vector<std::basic_string<char,std::char_traits<char>,std::allocator<char> >,std::allocator<std::basic_string<char,std::char_traits<char>,std::allocator<char> > > >::_Ucopy<std::basic_string<char,std::char_traits<char>,std::allocator<char> > *>
  00164	eb 29		 jmp	 SHORT $L195625
$L195626:

; 831  : 			_CATCH_ALL
; 832  : 			_Destroy(_Newvec, _Ptr);

  00166	8b 45 b8	 mov	 eax, DWORD PTR __Ptr$193688[ebp]
  00169	50		 push	 eax
  0016a	8b 4d bc	 mov	 ecx, DWORD PTR __Newvec$193687[ebp]
  0016d	51		 push	 ecx
  0016e	8b 4d e8	 mov	 ecx, DWORD PTR _this$[ebp]
  00171	e8 00 00 00 00	 call	 ?_Destroy@?$vector@V?$basic_string@DU?$char_traits@D@std@@V?$allocator@D@2@@std@@V?$allocator@V?$basic_string@DU?$char_traits@D@std@@V?$allocator@D@2@@std@@@2@@std@@IAEXPAV?$basic_string@DU?$char_traits@D@std@@V?$allocator@D@2@@2@0@Z ; std::vector<std::basic_string<char,std::char_traits<char>,std::allocator<char> >,std::allocator<std::basic_string<char,std::char_traits<char>,std::allocator<char> > > >::_Destroy

; 833  : 			this->_Alval.deallocate(_Newvec, _Capacity);

  00176	8b 55 c0	 mov	 edx, DWORD PTR __Capacity$[ebp]
  00179	52		 push	 edx
  0017a	8b 45 bc	 mov	 eax, DWORD PTR __Newvec$193687[ebp]
  0017d	50		 push	 eax
  0017e	8b 4d e8	 mov	 ecx, DWORD PTR _this$[ebp]
  00181	e8 00 00 00 00	 call	 ?deallocate@?$allocator@V?$basic_string@DU?$char_traits@D@std@@V?$allocator@D@2@@std@@@std@@QAEXPAV?$basic_string@DU?$char_traits@D@std@@V?$allocator@D@2@@2@I@Z ; std::allocator<std::basic_string<char,std::char_traits<char>,std::allocator<char> > >::deallocate

; 834  : 			_RERAISE;

  00186	6a 00		 push	 0
  00188	6a 00		 push	 0
  0018a	e8 00 00 00 00	 call	 __CxxThrowException@8
$L195625:

; 835  : 			_CATCH_END

  0018f	c7 45 fc 00 00
	00 00		 mov	 DWORD PTR __$EHRec$[ebp+12], 0

; 836  : 
; 837  : 			_Count += size();

  00196	8b 4d e8	 mov	 ecx, DWORD PTR _this$[ebp]
  00199	e8 00 00 00 00	 call	 ?size@?$vector@V?$basic_string@DU?$char_traits@D@std@@V?$allocator@D@2@@std@@V?$allocator@V?$basic_string@DU?$char_traits@D@std@@V?$allocator@D@2@@std@@@2@@std@@QBEIXZ ; std::vector<std::basic_string<char,std::char_traits<char>,std::allocator<char> >,std::allocator<std::basic_string<char,std::char_traits<char>,std::allocator<char> > > >::size
  0019e	03 45 0c	 add	 eax, DWORD PTR __Count$[ebp]
  001a1	89 45 0c	 mov	 DWORD PTR __Count$[ebp], eax

; 838  : 			if (_Myfirst != 0)

  001a4	8b 4d e8	 mov	 ecx, DWORD PTR _this$[ebp]
  001a7	83 79 04 00	 cmp	 DWORD PTR [ecx+4], 0
  001ab	74 3a		 je	 SHORT $L193695

; 839  : 				{	// destroy and deallocate old array
; 840  : 				_Destroy(_Myfirst, _Mylast);

  001ad	8b 55 e8	 mov	 edx, DWORD PTR _this$[ebp]
  001b0	8b 42 08	 mov	 eax, DWORD PTR [edx+8]
  001b3	50		 push	 eax
  001b4	8b 4d e8	 mov	 ecx, DWORD PTR _this$[ebp]
  001b7	8b 51 04	 mov	 edx, DWORD PTR [ecx+4]
  001ba	52		 push	 edx
  001bb	8b 4d e8	 mov	 ecx, DWORD PTR _this$[ebp]
  001be	e8 00 00 00 00	 call	 ?_Destroy@?$vector@V?$basic_string@DU?$char_traits@D@std@@V?$allocator@D@2@@std@@V?$allocator@V?$basic_string@DU?$char_traits@D@std@@V?$allocator@D@2@@std@@@2@@std@@IAEXPAV?$basic_string@DU?$char_traits@D@std@@V?$allocator@D@2@@2@0@Z ; std::vector<std::basic_string<char,std::char_traits<char>,std::allocator<char> >,std::allocator<std::basic_string<char,std::char_traits<char>,std::allocator<char> > > >::_Destroy

; 841  : 				this->_Alval.deallocate(_Myfirst, _Myend - _Myfirst);

  001c3	8b 45 e8	 mov	 eax, DWORD PTR _this$[ebp]
  001c6	8b 4d e8	 mov	 ecx, DWORD PTR _this$[ebp]
  001c9	8b 40 0c	 mov	 eax, DWORD PTR [eax+12]
  001cc	2b 41 04	 sub	 eax, DWORD PTR [ecx+4]
  001cf	99		 cdq
  001d0	b9 1c 00 00 00	 mov	 ecx, 28			; 0000001cH
  001d5	f7 f9		 idiv	 ecx
  001d7	50		 push	 eax
  001d8	8b 55 e8	 mov	 edx, DWORD PTR _this$[ebp]
  001db	8b 42 04	 mov	 eax, DWORD PTR [edx+4]
  001de	50		 push	 eax
  001df	8b 4d e8	 mov	 ecx, DWORD PTR _this$[ebp]
  001e2	e8 00 00 00 00	 call	 ?deallocate@?$allocator@V?$basic_string@DU?$char_traits@D@std@@V?$allocator@D@2@@std@@@std@@QAEXPAV?$basic_string@DU?$char_traits@D@std@@V?$allocator@D@2@@2@I@Z ; std::allocator<std::basic_string<char,std::char_traits<char>,std::allocator<char> > >::deallocate
$L193695:

; 842  : 				}
; 843  : 			_Myend = _Newvec + _Capacity;

  001e7	8b 4d c0	 mov	 ecx, DWORD PTR __Capacity$[ebp]
  001ea	6b c9 1c	 imul	 ecx, 28			; 0000001cH
  001ed	03 4d bc	 add	 ecx, DWORD PTR __Newvec$193687[ebp]
  001f0	8b 55 e8	 mov	 edx, DWORD PTR _this$[ebp]
  001f3	89 4a 0c	 mov	 DWORD PTR [edx+12], ecx

; 844  : 			_Mylast = _Newvec + _Count;

  001f6	8b 45 0c	 mov	 eax, DWORD PTR __Count$[ebp]
  001f9	6b c0 1c	 imul	 eax, 28			; 0000001cH
  001fc	03 45 bc	 add	 eax, DWORD PTR __Newvec$193687[ebp]
  001ff	8b 4d e8	 mov	 ecx, DWORD PTR _this$[ebp]
  00202	89 41 08	 mov	 DWORD PTR [ecx+8], eax

; 845  : 			_Myfirst = _Newvec;

  00205	8b 55 e8	 mov	 edx, DWORD PTR _this$[ebp]
  00208	8b 45 bc	 mov	 eax, DWORD PTR __Newvec$193687[ebp]
  0020b	89 42 04	 mov	 DWORD PTR [edx+4], eax

; 846  : 			}
; 847  : 		else if ((size_type)(_Mylast - _ITER_BASE(_Where)) < _Count)

  0020e	e9 2d 01 00 00	 jmp	 $L193682
$L193685:
  00213	8b 4d e8	 mov	 ecx, DWORD PTR _this$[ebp]
  00216	8b 41 08	 mov	 eax, DWORD PTR [ecx+8]
  00219	2b 45 08	 sub	 eax, DWORD PTR __Where$[ebp]
  0021c	99		 cdq
  0021d	b9 1c 00 00 00	 mov	 ecx, 28			; 0000001cH
  00222	f7 f9		 idiv	 ecx
  00224	3b 45 0c	 cmp	 eax, DWORD PTR __Count$[ebp]
  00227	0f 83 af 00 00
	00		 jae	 $L193698

; 848  : 			{	// new stuff spills off end
; 849  : 			_Ucopy(_ITER_BASE(_Where), _Mylast,
; 850  : 				_ITER_BASE(_Where) + _Count);	// copy suffix

  0022d	8b 55 0c	 mov	 edx, DWORD PTR __Count$[ebp]
  00230	6b d2 1c	 imul	 edx, 28			; 0000001cH
  00233	03 55 08	 add	 edx, DWORD PTR __Where$[ebp]
  00236	52		 push	 edx
  00237	8b 45 e8	 mov	 eax, DWORD PTR _this$[ebp]
  0023a	8b 48 08	 mov	 ecx, DWORD PTR [eax+8]
  0023d	51		 push	 ecx
  0023e	8b 55 08	 mov	 edx, DWORD PTR __Where$[ebp]
  00241	52		 push	 edx
  00242	8b 4d e8	 mov	 ecx, DWORD PTR _this$[ebp]
  00245	e8 00 00 00 00	 call	 ??$_Ucopy@PAV?$basic_string@DU?$char_traits@D@std@@V?$allocator@D@2@@std@@@?$vector@V?$basic_string@DU?$char_traits@D@std@@V?$allocator@D@2@@std@@V?$allocator@V?$basic_string@DU?$char_traits@D@std@@V?$allocator@D@2@@std@@@2@@std@@IAEPAV?$basic_string@DU?$char_traits@D@std@@V?$allocator@D@2@@1@PAV21@00@Z ; std::vector<std::basic_string<char,std::char_traits<char>,std::allocator<char> >,std::allocator<std::basic_string<char,std::char_traits<char>,std::allocator<char> > > >::_Ucopy<std::basic_string<char,std::char_traits<char>,std::allocator<char> > *>

; 851  : 
; 852  : 			_TRY_BEGIN

  0024a	c6 45 fc 03	 mov	 BYTE PTR __$EHRec$[ebp+12], 3

; 853  : 			_Ufill(_Mylast, _Count - (_Mylast - _ITER_BASE(_Where)),
; 854  : 				_Tmp);	// insert new stuff off end

  0024e	8d 45 c8	 lea	 eax, DWORD PTR __Tmp$[ebp]
  00251	50		 push	 eax
  00252	8b 4d e8	 mov	 ecx, DWORD PTR _this$[ebp]
  00255	8b 41 08	 mov	 eax, DWORD PTR [ecx+8]
  00258	2b 45 08	 sub	 eax, DWORD PTR __Where$[ebp]
  0025b	99		 cdq
  0025c	b9 1c 00 00 00	 mov	 ecx, 28			; 0000001cH
  00261	f7 f9		 idiv	 ecx
  00263	8b 55 0c	 mov	 edx, DWORD PTR __Count$[ebp]
  00266	2b d0		 sub	 edx, eax
  00268	52		 push	 edx
  00269	8b 45 e8	 mov	 eax, DWORD PTR _this$[ebp]
  0026c	8b 48 08	 mov	 ecx, DWORD PTR [eax+8]
  0026f	51		 push	 ecx
  00270	8b 4d e8	 mov	 ecx, DWORD PTR _this$[ebp]
  00273	e8 00 00 00 00	 call	 ?_Ufill@?$vector@V?$basic_string@DU?$char_traits@D@std@@V?$allocator@D@2@@std@@V?$allocator@V?$basic_string@DU?$char_traits@D@std@@V?$allocator@D@2@@std@@@2@@std@@IAEPAV?$basic_string@DU?$char_traits@D@std@@V?$allocator@D@2@@2@PAV32@IABV32@@Z ; std::vector<std::basic_string<char,std::char_traits<char>,std::allocator<char> >,std::allocator<std::basic_string<char,std::char_traits<char>,std::allocator<char> > > >::_Ufill
  00278	eb 28		 jmp	 SHORT $L195627
$L195628:

; 855  : 			_CATCH_ALL
; 856  : 			_Destroy(_ITER_BASE(_Where) + _Count, _Mylast + _Count);

  0027a	8b 55 0c	 mov	 edx, DWORD PTR __Count$[ebp]
  0027d	6b d2 1c	 imul	 edx, 28			; 0000001cH
  00280	8b 45 e8	 mov	 eax, DWORD PTR _this$[ebp]
  00283	03 50 08	 add	 edx, DWORD PTR [eax+8]
  00286	52		 push	 edx
  00287	8b 4d 0c	 mov	 ecx, DWORD PTR __Count$[ebp]
  0028a	6b c9 1c	 imul	 ecx, 28			; 0000001cH
  0028d	03 4d 08	 add	 ecx, DWORD PTR __Where$[ebp]
  00290	51		 push	 ecx
  00291	8b 4d e8	 mov	 ecx, DWORD PTR _this$[ebp]
  00294	e8 00 00 00 00	 call	 ?_Destroy@?$vector@V?$basic_string@DU?$char_traits@D@std@@V?$allocator@D@2@@std@@V?$allocator@V?$basic_string@DU?$char_traits@D@std@@V?$allocator@D@2@@std@@@2@@std@@IAEXPAV?$basic_string@DU?$char_traits@D@std@@V?$allocator@D@2@@2@0@Z ; std::vector<std::basic_string<char,std::char_traits<char>,std::allocator<char> >,std::allocator<std::basic_string<char,std::char_traits<char>,std::allocator<char> > > >::_Destroy

; 857  : 			_RERAISE;

  00299	6a 00		 push	 0
  0029b	6a 00		 push	 0
  0029d	e8 00 00 00 00	 call	 __CxxThrowException@8
$L195627:

; 858  : 			_CATCH_END

  002a2	c7 45 fc 00 00
	00 00		 mov	 DWORD PTR __$EHRec$[ebp+12], 0

; 859  : 
; 860  : 			_Mylast += _Count;

  002a9	8b 55 0c	 mov	 edx, DWORD PTR __Count$[ebp]
  002ac	6b d2 1c	 imul	 edx, 28			; 0000001cH
  002af	8b 45 e8	 mov	 eax, DWORD PTR _this$[ebp]
  002b2	03 50 08	 add	 edx, DWORD PTR [eax+8]
  002b5	8b 4d e8	 mov	 ecx, DWORD PTR _this$[ebp]
  002b8	89 51 08	 mov	 DWORD PTR [ecx+8], edx

; 861  : 			fill(_ITER_BASE(_Where), _Mylast - _Count,
; 862  : 				_Tmp);	// insert up to old end

  002bb	8d 55 c8	 lea	 edx, DWORD PTR __Tmp$[ebp]
  002be	52		 push	 edx
  002bf	8b 45 0c	 mov	 eax, DWORD PTR __Count$[ebp]
  002c2	6b c0 1c	 imul	 eax, 28			; 0000001cH
  002c5	8b 4d e8	 mov	 ecx, DWORD PTR _this$[ebp]
  002c8	8b 51 08	 mov	 edx, DWORD PTR [ecx+8]
  002cb	2b d0		 sub	 edx, eax
  002cd	52		 push	 edx
  002ce	8b 45 08	 mov	 eax, DWORD PTR __Where$[ebp]
  002d1	50		 push	 eax
  002d2	e8 00 00 00 00	 call	 ??$fill@PAV?$basic_string@DU?$char_traits@D@std@@V?$allocator@D@2@@std@@V12@@std@@YAXPAV?$basic_string@DU?$char_traits@D@std@@V?$allocator@D@2@@0@0ABV10@@Z ; std::fill<std::basic_string<char,std::char_traits<char>,std::allocator<char> > *,std::basic_string<char,std::char_traits<char>,std::allocator<char> > >
  002d7	83 c4 0c	 add	 esp, 12			; 0000000cH

; 863  : 			}
; 864  : 		else

  002da	eb 64		 jmp	 SHORT $L193682
$L193698:

; 865  : 			{	// new stuff can all be assigned
; 866  : 			pointer _Oldend = _Mylast;

  002dc	8b 4d e8	 mov	 ecx, DWORD PTR _this$[ebp]
  002df	8b 51 08	 mov	 edx, DWORD PTR [ecx+8]
  002e2	89 55 b4	 mov	 DWORD PTR __Oldend$193708[ebp], edx

; 867  : 			_Mylast = _Ucopy(_Oldend - _Count, _Oldend,
; 868  : 				_Mylast);	// copy suffix

  002e5	8b 45 e8	 mov	 eax, DWORD PTR _this$[ebp]
  002e8	8b 48 08	 mov	 ecx, DWORD PTR [eax+8]
  002eb	51		 push	 ecx
  002ec	8b 55 b4	 mov	 edx, DWORD PTR __Oldend$193708[ebp]
  002ef	52		 push	 edx
  002f0	8b 45 0c	 mov	 eax, DWORD PTR __Count$[ebp]
  002f3	6b c0 1c	 imul	 eax, 28			; 0000001cH
  002f6	8b 4d b4	 mov	 ecx, DWORD PTR __Oldend$193708[ebp]
  002f9	2b c8		 sub	 ecx, eax
  002fb	51		 push	 ecx
  002fc	8b 4d e8	 mov	 ecx, DWORD PTR _this$[ebp]
  002ff	e8 00 00 00 00	 call	 ??$_Ucopy@PAV?$basic_string@DU?$char_traits@D@std@@V?$allocator@D@2@@std@@@?$vector@V?$basic_string@DU?$char_traits@D@std@@V?$allocator@D@2@@std@@V?$allocator@V?$basic_string@DU?$char_traits@D@std@@V?$allocator@D@2@@std@@@2@@std@@IAEPAV?$basic_string@DU?$char_traits@D@std@@V?$allocator@D@2@@1@PAV21@00@Z ; std::vector<std::basic_string<char,std::char_traits<char>,std::allocator<char> >,std::allocator<std::basic_string<char,std::char_traits<char>,std::allocator<char> > > >::_Ucopy<std::basic_string<char,std::char_traits<char>,std::allocator<char> > *>
  00304	8b 55 e8	 mov	 edx, DWORD PTR _this$[ebp]
  00307	89 42 08	 mov	 DWORD PTR [edx+8], eax

; 869  : 			copy_backward(_ITER_BASE(_Where), _Oldend - _Count,
; 870  : 				_Oldend);	// copy hole

  0030a	8b 45 b4	 mov	 eax, DWORD PTR __Oldend$193708[ebp]
  0030d	50		 push	 eax
  0030e	8b 4d 0c	 mov	 ecx, DWORD PTR __Count$[ebp]
  00311	6b c9 1c	 imul	 ecx, 28			; 0000001cH
  00314	8b 55 b4	 mov	 edx, DWORD PTR __Oldend$193708[ebp]
  00317	2b d1		 sub	 edx, ecx
  00319	52		 push	 edx
  0031a	8b 45 08	 mov	 eax, DWORD PTR __Where$[ebp]
  0031d	50		 push	 eax
  0031e	e8 00 00 00 00	 call	 ??$copy_backward@PAV?$basic_string@DU?$char_traits@D@std@@V?$allocator@D@2@@std@@PAV12@@std@@YAPAV?$basic_string@DU?$char_traits@D@std@@V?$allocator@D@2@@0@PAV10@00@Z ; std::copy_backward<std::basic_string<char,std::char_traits<char>,std::allocator<char> > *,std::basic_string<char,std::char_traits<char>,std::allocator<char> > *>
  00323	83 c4 0c	 add	 esp, 12			; 0000000cH

; 871  : 			fill(_ITER_BASE(_Where), _ITER_BASE(_Where) + _Count,
; 872  : 				_Tmp);	// insert into hole

  00326	8d 4d c8	 lea	 ecx, DWORD PTR __Tmp$[ebp]
  00329	51		 push	 ecx
  0032a	8b 55 0c	 mov	 edx, DWORD PTR __Count$[ebp]
  0032d	6b d2 1c	 imul	 edx, 28			; 0000001cH
  00330	03 55 08	 add	 edx, DWORD PTR __Where$[ebp]
  00333	52		 push	 edx
  00334	8b 45 08	 mov	 eax, DWORD PTR __Where$[ebp]
  00337	50		 push	 eax
  00338	e8 00 00 00 00	 call	 ??$fill@PAV?$basic_string@DU?$char_traits@D@std@@V?$allocator@D@2@@std@@V12@@std@@YAXPAV?$basic_string@DU?$char_traits@D@std@@V?$allocator@D@2@@0@0ABV10@@Z ; std::fill<std::basic_string<char,std::char_traits<char>,std::allocator<char> > *,std::basic_string<char,std::char_traits<char>,std::allocator<char> > >
  0033d	83 c4 0c	 add	 esp, 12			; 0000000cH
$L193682:

; 873  : 			}
; 874  : 		}

  00340	c7 45 fc ff ff
	ff ff		 mov	 DWORD PTR __$EHRec$[ebp+12], -1
  00347	8b f4		 mov	 esi, esp
  00349	8d 4d c8	 lea	 ecx, DWORD PTR __Tmp$[ebp]
  0034c	ff 15 00 00 00
	00		 call	 DWORD PTR __imp_??1?$basic_string@DU?$char_traits@D@std@@V?$allocator@D@2@@std@@QAE@XZ
  00352	3b f4		 cmp	 esi, esp
  00354	e8 00 00 00 00	 call	 __RTC_CheckEsp
$L195622:
  00359	52		 push	 edx
  0035a	8b cd		 mov	 ecx, ebp
  0035c	50		 push	 eax
  0035d	8d 15 00 00 00
	00		 lea	 edx, DWORD PTR $L195636
  00363	e8 00 00 00 00	 call	 @_RTC_CheckStackVars@8
  00368	58		 pop	 eax
  00369	5a		 pop	 edx
  0036a	8b 4d f4	 mov	 ecx, DWORD PTR __$EHRec$[ebp+4]
  0036d	64 89 0d 00 00
	00 00		 mov	 DWORD PTR fs:__except_list, ecx
  00374	8b 4d ec	 mov	 ecx, DWORD PTR __$ArrayPad$[ebp]
  00377	e8 00 00 00 00	 call	 @__security_check_cookie@4
  0037c	5f		 pop	 edi
  0037d	5e		 pop	 esi
  0037e	5b		 pop	 ebx
  0037f	83 c4 58	 add	 esp, 88			; 00000058H
  00382	3b ec		 cmp	 ebp, esp
  00384	e8 00 00 00 00	 call	 __RTC_CheckEsp
  00389	8b e5		 mov	 esp, ebp
  0038b	5d		 pop	 ebp
  0038c	c2 0c 00	 ret	 12			; 0000000cH
$L195636:
  0038f	01 00 00 00	 DD	 1
  00393	00 00 00 00	 DD	 $L195635
$L195635:
  00397	c8 ff ff ff	 DD	 -56			; ffffffc8H
  0039b	1c 00 00 00	 DD	 28			; 0000001cH
  0039f	00 00 00 00	 DD	 $L195632
$L195632:
  003a3	5f		 DB	 95			; 0000005fH
  003a4	54		 DB	 84			; 00000054H
  003a5	6d		 DB	 109			; 0000006dH
  003a6	70		 DB	 112			; 00000070H
  003a7	00		 DB	 0
_TEXT	ENDS
;	COMDAT text$x
text$x	SEGMENT
$L195629:
  00000	8b f4		 mov	 esi, esp
  00002	8d 4d c8	 lea	 ecx, DWORD PTR __Tmp$[ebp]
  00005	ff 15 00 00 00
	00		 call	 DWORD PTR __imp_??1?$basic_string@DU?$char_traits@D@std@@V?$allocator@D@2@@std@@QAE@XZ
  0000b	3b f4		 cmp	 esi, esp
  0000d	e9 00 00 00 00	 jmp	 __RTC_CheckEsp
__ehhandler$?_Insert_n@?$vector@V?$basic_string@DU?$char_traits@D@std@@V?$allocator@D@2@@std@@V?$allocator@V?$basic_string@DU?$char_traits@D@std@@V?$allocator@D@2@@std@@@2@@std@@IAEXViterator@12@IABV?$basic_string@DU?$char_traits@D@std@@V?$allocator@D@2@@2@@Z:
  00012	b8 00 00 00 00	 mov	 eax, OFFSET FLAT:$T195631
  00017	e9 00 00 00 00	 jmp	 ___CxxFrameHandler
text$x	ENDS
?_Insert_n@?$vector@V?$basic_string@DU?$char_traits@D@std@@V?$allocator@D@2@@std@@V?$allocator@V?$basic_string@DU?$char_traits@D@std@@V?$allocator@D@2@@std@@@2@@std@@IAEXViterator@12@IABV?$basic_string@DU?$char_traits@D@std@@V?$allocator@D@2@@2@@Z ENDP ; std::vector<std::basic_string<char,std::char_traits<char>,std::allocator<char> >,std::allocator<std::basic_string<char,std::char_traits<char>,std::allocator<char> > > >::_Insert_n
;	COMDAT xdata$x
xdata$x	SEGMENT
$T195650 DD	0ffffffffH
	DD	FLAT:$L195646
$T195648 DD	019930520H
	DD	01H
	DD	FLAT:$T195650
	DD	2 DUP(00H)
	DD	2 DUP(00H)
; Function compile flags: /Odt /RTCsu
xdata$x	ENDS
;	COMDAT ?_Xlen@?$vector@V?$basic_string@DU?$char_traits@D@std@@V?$allocator@D@2@@std@@V?$allocator@V?$basic_string@DU?$char_traits@D@std@@V?$allocator@D@2@@std@@@2@@std@@IBEXXZ
_TEXT	SEGMENT
$T195645 = -84						; size = 28
$T195644 = -56						; size = 40
_this$ = -16						; size = 4
__$EHRec$ = -12						; size = 12
?_Xlen@?$vector@V?$basic_string@DU?$char_traits@D@std@@V?$allocator@D@2@@std@@V?$allocator@V?$basic_string@DU?$char_traits@D@std@@V?$allocator@D@2@@std@@@2@@std@@IBEXXZ PROC NEAR ; std::vector<std::basic_string<char,std::char_traits<char>,std::allocator<char> >,std::allocator<std::basic_string<char,std::char_traits<char>,std::allocator<char> > > >::_Xlen, COMDAT
; _this$ = ecx

; 883  : 		{	// report a length_error

  00000	55		 push	 ebp
  00001	8b ec		 mov	 ebp, esp
  00003	6a ff		 push	 -1
  00005	68 00 00 00 00	 push	 __ehhandler$?_Xlen@?$vector@V?$basic_string@DU?$char_traits@D@std@@V?$allocator@D@2@@std@@V?$allocator@V?$basic_string@DU?$char_traits@D@std@@V?$allocator@D@2@@std@@@2@@std@@IBEXXZ
  0000a	64 a1 00 00 00
	00		 mov	 eax, DWORD PTR fs:__except_list
  00010	50		 push	 eax
  00011	64 89 25 00 00
	00 00		 mov	 DWORD PTR fs:__except_list, esp
  00018	83 ec 48	 sub	 esp, 72			; 00000048H
  0001b	56		 push	 esi
  0001c	57		 push	 edi
  0001d	51		 push	 ecx
  0001e	8d 7d ac	 lea	 edi, DWORD PTR [ebp-84]
  00021	b9 12 00 00 00	 mov	 ecx, 18			; 00000012H
  00026	b8 cc cc cc cc	 mov	 eax, -858993460		; ccccccccH
  0002b	f3 ab		 rep stosd
  0002d	59		 pop	 ecx
  0002e	89 4d f0	 mov	 DWORD PTR _this$[ebp], ecx

; 884  : 		_THROW(length_error, "vector<T> too long");

  00031	8b f4		 mov	 esi, esp
  00033	68 00 00 00 00	 push	 OFFSET FLAT:??_C@_0BD@OLBABOEK@vector?$DMT?$DO?5too?5long?$AA@
  00038	8d 4d ac	 lea	 ecx, DWORD PTR $T195645[ebp]
  0003b	ff 15 00 00 00
	00		 call	 DWORD PTR __imp_??0?$basic_string@DU?$char_traits@D@std@@V?$allocator@D@2@@std@@QAE@PBD@Z
  00041	3b f4		 cmp	 esi, esp
  00043	e8 00 00 00 00	 call	 __RTC_CheckEsp
  00048	c7 45 fc 00 00
	00 00		 mov	 DWORD PTR __$EHRec$[ebp+8], 0
  0004f	8d 45 ac	 lea	 eax, DWORD PTR $T195645[ebp]
  00052	50		 push	 eax
  00053	8d 4d c8	 lea	 ecx, DWORD PTR $T195644[ebp]
  00056	e8 00 00 00 00	 call	 ??0length_error@std@@QAE@ABV?$basic_string@DU?$char_traits@D@std@@V?$allocator@D@2@@1@@Z ; std::length_error::length_error
  0005b	68 00 00 00 00	 push	 OFFSET FLAT:__TI3?AVlength_error@std@@
  00060	8d 4d c8	 lea	 ecx, DWORD PTR $T195644[ebp]
  00063	51		 push	 ecx
  00064	e8 00 00 00 00	 call	 __CxxThrowException@8
$L195643:

; 885  : 		}

  00069	8b 4d f4	 mov	 ecx, DWORD PTR __$EHRec$[ebp]
  0006c	64 89 0d 00 00
	00 00		 mov	 DWORD PTR fs:__except_list, ecx
  00073	5f		 pop	 edi
  00074	5e		 pop	 esi
  00075	83 c4 54	 add	 esp, 84			; 00000054H
  00078	3b ec		 cmp	 ebp, esp
  0007a	e8 00 00 00 00	 call	 __RTC_CheckEsp
  0007f	8b e5		 mov	 esp, ebp
  00081	5d		 pop	 ebp
  00082	c3		 ret	 0
_TEXT	ENDS
;	COMDAT text$x
text$x	SEGMENT
$L195646:
  00000	8b f4		 mov	 esi, esp
  00002	8d 4d ac	 lea	 ecx, DWORD PTR $T195645[ebp]
  00005	ff 15 00 00 00
	00		 call	 DWORD PTR __imp_??1?$basic_string@DU?$char_traits@D@std@@V?$allocator@D@2@@std@@QAE@XZ
  0000b	3b f4		 cmp	 esi, esp
  0000d	e9 00 00 00 00	 jmp	 __RTC_CheckEsp
__ehhandler$?_Xlen@?$vector@V?$basic_string@DU?$char_traits@D@std@@V?$allocator@D@2@@std@@V?$allocator@V?$basic_string@DU?$char_traits@D@std@@V?$allocator@D@2@@std@@@2@@std@@IBEXXZ:
  00012	b8 00 00 00 00	 mov	 eax, OFFSET FLAT:$T195648
  00017	e9 00 00 00 00	 jmp	 ___CxxFrameHandler
text$x	ENDS
?_Xlen@?$vector@V?$basic_string@DU?$char_traits@D@std@@V?$allocator@D@2@@std@@V?$allocator@V?$basic_string@DU?$char_traits@D@std@@V?$allocator@D@2@@std@@@2@@std@@IBEXXZ ENDP ; std::vector<std::basic_string<char,std::char_traits<char>,std::allocator<char> >,std::allocator<std::basic_string<char,std::char_traits<char>,std::allocator<char> > > >::_Xlen
PUBLIC	??Yiterator@?$vector@V?$basic_string@DU?$char_traits@D@std@@V?$allocator@D@2@@std@@V?$allocator@V?$basic_string@DU?$char_traits@D@std@@V?$allocator@D@2@@std@@@2@@std@@QAEAAV012@H@Z ; std::vector<std::basic_string<char,std::char_traits<char>,std::allocator<char> >,std::allocator<std::basic_string<char,std::char_traits<char>,std::allocator<char> > > >::iterator::operator+=
; Function compile flags: /Odt /RTCsu
;	COMDAT ??Hiterator@?$vector@V?$basic_string@DU?$char_traits@D@std@@V?$allocator@D@2@@std@@V?$allocator@V?$basic_string@DU?$char_traits@D@std@@V?$allocator@D@2@@std@@@2@@std@@QBE?AV012@H@Z
_TEXT	SEGMENT
__Tmp$ = -12						; size = 4
_this$ = -4						; size = 4
___$ReturnUdt$ = 8					; size = 4
__Off$ = 12						; size = 4
??Hiterator@?$vector@V?$basic_string@DU?$char_traits@D@std@@V?$allocator@D@2@@std@@V?$allocator@V?$basic_string@DU?$char_traits@D@std@@V?$allocator@D@2@@std@@@2@@std@@QBE?AV012@H@Z PROC NEAR ; std::vector<std::basic_string<char,std::char_traits<char>,std::allocator<char> >,std::allocator<std::basic_string<char,std::char_traits<char>,std::allocator<char> > > >::iterator::operator+, COMDAT
; _this$ = ecx

; 261  : 			{	// return this + integer

  00000	55		 push	 ebp
  00001	8b ec		 mov	 ebp, esp
  00003	83 ec 10	 sub	 esp, 16			; 00000010H
  00006	b8 cc cc cc cc	 mov	 eax, -858993460		; ccccccccH
  0000b	89 45 f0	 mov	 DWORD PTR [ebp-16], eax
  0000e	89 45 f4	 mov	 DWORD PTR [ebp-12], eax
  00011	89 45 f8	 mov	 DWORD PTR [ebp-8], eax
  00014	89 45 fc	 mov	 DWORD PTR [ebp-4], eax
  00017	89 4d fc	 mov	 DWORD PTR _this$[ebp], ecx

; 262  : 			iterator _Tmp = *this;

  0001a	8b 45 fc	 mov	 eax, DWORD PTR _this$[ebp]
  0001d	8b 08		 mov	 ecx, DWORD PTR [eax]
  0001f	89 4d f4	 mov	 DWORD PTR __Tmp$[ebp], ecx

; 263  : 			return (_Tmp += _Off);

  00022	8b 55 0c	 mov	 edx, DWORD PTR __Off$[ebp]
  00025	52		 push	 edx
  00026	8d 4d f4	 lea	 ecx, DWORD PTR __Tmp$[ebp]
  00029	e8 00 00 00 00	 call	 ??Yiterator@?$vector@V?$basic_string@DU?$char_traits@D@std@@V?$allocator@D@2@@std@@V?$allocator@V?$basic_string@DU?$char_traits@D@std@@V?$allocator@D@2@@std@@@2@@std@@QAEAAV012@H@Z ; std::vector<std::basic_string<char,std::char_traits<char>,std::allocator<char> >,std::allocator<std::basic_string<char,std::char_traits<char>,std::allocator<char> > > >::iterator::operator+=
  0002e	8b 00		 mov	 eax, DWORD PTR [eax]
  00030	8b 4d 08	 mov	 ecx, DWORD PTR ___$ReturnUdt$[ebp]
  00033	89 01		 mov	 DWORD PTR [ecx], eax
  00035	8b 45 08	 mov	 eax, DWORD PTR ___$ReturnUdt$[ebp]

; 264  : 			}

  00038	52		 push	 edx
  00039	8b cd		 mov	 ecx, ebp
  0003b	50		 push	 eax
  0003c	8d 15 00 00 00
	00		 lea	 edx, DWORD PTR $L195656
  00042	e8 00 00 00 00	 call	 @_RTC_CheckStackVars@8
  00047	58		 pop	 eax
  00048	5a		 pop	 edx
  00049	83 c4 10	 add	 esp, 16			; 00000010H
  0004c	3b ec		 cmp	 ebp, esp
  0004e	e8 00 00 00 00	 call	 __RTC_CheckEsp
  00053	8b e5		 mov	 esp, ebp
  00055	5d		 pop	 ebp
  00056	c2 08 00	 ret	 8
$L195656:
  00059	01 00 00 00	 DD	 1
  0005d	00 00 00 00	 DD	 $L195655
$L195655:
  00061	f4 ff ff ff	 DD	 -12			; fffffff4H
  00065	04 00 00 00	 DD	 4
  00069	00 00 00 00	 DD	 $L195654
$L195654:
  0006d	5f		 DB	 95			; 0000005fH
  0006e	54		 DB	 84			; 00000054H
  0006f	6d		 DB	 109			; 0000006dH
  00070	70		 DB	 112			; 00000070H
  00071	00		 DB	 0
??Hiterator@?$vector@V?$basic_string@DU?$char_traits@D@std@@V?$allocator@D@2@@std@@V?$allocator@V?$basic_string@DU?$char_traits@D@std@@V?$allocator@D@2@@std@@@2@@std@@QBE?AV012@H@Z ENDP ; std::vector<std::basic_string<char,std::char_traits<char>,std::allocator<char> >,std::allocator<std::basic_string<char,std::char_traits<char>,std::allocator<char> > > >::iterator::operator+
_TEXT	ENDS
PUBLIC	??Gconst_iterator@?$vector@V?$basic_string@DU?$char_traits@D@std@@V?$allocator@D@2@@std@@V?$allocator@V?$basic_string@DU?$char_traits@D@std@@V?$allocator@D@2@@std@@@2@@std@@QBEHABV012@@Z ; std::vector<std::basic_string<char,std::char_traits<char>,std::allocator<char> >,std::allocator<std::basic_string<char,std::char_traits<char>,std::allocator<char> > > >::const_iterator::operator-
; Function compile flags: /Odt /RTCsu
;	COMDAT ??Giterator@?$vector@V?$basic_string@DU?$char_traits@D@std@@V?$allocator@D@2@@std@@V?$allocator@V?$basic_string@DU?$char_traits@D@std@@V?$allocator@D@2@@std@@@2@@std@@QBEHABVconst_iterator@12@@Z
_TEXT	SEGMENT
$T195658 = -8						; size = 4
_this$ = -4						; size = 4
__Right$ = 8						; size = 4
??Giterator@?$vector@V?$basic_string@DU?$char_traits@D@std@@V?$allocator@D@2@@std@@V?$allocator@V?$basic_string@DU?$char_traits@D@std@@V?$allocator@D@2@@std@@@2@@std@@QBEHABVconst_iterator@12@@Z PROC NEAR ; std::vector<std::basic_string<char,std::char_traits<char>,std::allocator<char> >,std::allocator<std::basic_string<char,std::char_traits<char>,std::allocator<char> > > >::iterator::operator-, COMDAT
; _this$ = ecx

; 278  : 			{	// return difference of iterators

  00000	55		 push	 ebp
  00001	8b ec		 mov	 ebp, esp
  00003	83 ec 08	 sub	 esp, 8
  00006	c7 45 f8 cc cc
	cc cc		 mov	 DWORD PTR [ebp-8], -858993460 ; ccccccccH
  0000d	c7 45 fc cc cc
	cc cc		 mov	 DWORD PTR [ebp-4], -858993460 ; ccccccccH
  00014	89 4d fc	 mov	 DWORD PTR _this$[ebp], ecx

; 279  : 			return ((const_iterator)*this - _Right);

  00017	8b 45 fc	 mov	 eax, DWORD PTR _this$[ebp]
  0001a	8b 08		 mov	 ecx, DWORD PTR [eax]
  0001c	89 4d f8	 mov	 DWORD PTR $T195658[ebp], ecx
  0001f	8b 55 08	 mov	 edx, DWORD PTR __Right$[ebp]
  00022	52		 push	 edx
  00023	8d 4d f8	 lea	 ecx, DWORD PTR $T195658[ebp]
  00026	e8 00 00 00 00	 call	 ??Gconst_iterator@?$vector@V?$basic_string@DU?$char_traits@D@std@@V?$allocator@D@2@@std@@V?$allocator@V?$basic_string@DU?$char_traits@D@std@@V?$allocator@D@2@@std@@@2@@std@@QBEHABV012@@Z ; std::vector<std::basic_string<char,std::char_traits<char>,std::allocator<char> >,std::allocator<std::basic_string<char,std::char_traits<char>,std::allocator<char> > > >::const_iterator::operator-

; 280  : 			}

  0002b	83 c4 08	 add	 esp, 8
  0002e	3b ec		 cmp	 ebp, esp
  00030	e8 00 00 00 00	 call	 __RTC_CheckEsp
  00035	8b e5		 mov	 esp, ebp
  00037	5d		 pop	 ebp
  00038	c2 04 00	 ret	 4
??Giterator@?$vector@V?$basic_string@DU?$char_traits@D@std@@V?$allocator@D@2@@std@@V?$allocator@V?$basic_string@DU?$char_traits@D@std@@V?$allocator@D@2@@std@@@2@@std@@QBEHABVconst_iterator@12@@Z ENDP ; std::vector<std::basic_string<char,std::char_traits<char>,std::allocator<char> >,std::allocator<std::basic_string<char,std::char_traits<char>,std::allocator<char> > > >::iterator::operator-
; Function compile flags: /Odt /RTCsu
_TEXT	ENDS
;	COMDAT ??0const_iterator@?$vector@V?$basic_string@DU?$char_traits@D@std@@V?$allocator@D@2@@std@@V?$allocator@V?$basic_string@DU?$char_traits@D@std@@V?$allocator@D@2@@std@@@2@@std@@QAE@PAV?$basic_string@DU?$char_traits@D@std@@V?$allocator@D@2@@2@@Z
_TEXT	SEGMENT
_this$ = -4						; size = 4
__Ptr$ = 8						; size = 4
??0const_iterator@?$vector@V?$basic_string@DU?$char_traits@D@std@@V?$allocator@D@2@@std@@V?$allocator@V?$basic_string@DU?$char_traits@D@std@@V?$allocator@D@2@@std@@@2@@std@@QAE@PAV?$basic_string@DU?$char_traits@D@std@@V?$allocator@D@2@@2@@Z PROC NEAR ; std::vector<std::basic_string<char,std::char_traits<char>,std::allocator<char> >,std::allocator<std::basic_string<char,std::char_traits<char>,std::allocator<char> > > >::const_iterator::const_iterator, COMDAT
; _this$ = ecx

; 73   : 		const_iterator(_Tptr _Ptr)

  00000	55		 push	 ebp
  00001	8b ec		 mov	 ebp, esp
  00003	51		 push	 ecx
  00004	c7 45 fc cc cc
	cc cc		 mov	 DWORD PTR [ebp-4], -858993460 ; ccccccccH
  0000b	89 4d fc	 mov	 DWORD PTR _this$[ebp], ecx

; 74   : 			{	// construct with pointer _Ptr
; 75   : 			_Myptr = _Ptr;

  0000e	8b 45 fc	 mov	 eax, DWORD PTR _this$[ebp]
  00011	8b 4d 08	 mov	 ecx, DWORD PTR __Ptr$[ebp]
  00014	89 08		 mov	 DWORD PTR [eax], ecx

; 76   : 			}

  00016	8b 45 fc	 mov	 eax, DWORD PTR _this$[ebp]
  00019	8b e5		 mov	 esp, ebp
  0001b	5d		 pop	 ebp
  0001c	c2 04 00	 ret	 4
??0const_iterator@?$vector@V?$basic_string@DU?$char_traits@D@std@@V?$allocator@D@2@@std@@V?$allocator@V?$basic_string@DU?$char_traits@D@std@@V?$allocator@D@2@@std@@@2@@std@@QAE@PAV?$basic_string@DU?$char_traits@D@std@@V?$allocator@D@2@@2@@Z ENDP ; std::vector<std::basic_string<char,std::char_traits<char>,std::allocator<char> >,std::allocator<std::basic_string<char,std::char_traits<char>,std::allocator<char> > > >::const_iterator::const_iterator
; Function compile flags: /Odt /RTCsu
_TEXT	ENDS
;	COMDAT ??0const_iterator@?$vector@UOneLocalGame@@V?$allocator@UOneLocalGame@@@std@@@std@@QAE@PAUOneLocalGame@@@Z
_TEXT	SEGMENT
_this$ = -4						; size = 4
__Ptr$ = 8						; size = 4
??0const_iterator@?$vector@UOneLocalGame@@V?$allocator@UOneLocalGame@@@std@@@std@@QAE@PAUOneLocalGame@@@Z PROC NEAR ; std::vector<OneLocalGame,std::allocator<OneLocalGame> >::const_iterator::const_iterator, COMDAT
; _this$ = ecx

; 73   : 		const_iterator(_Tptr _Ptr)

  00000	55		 push	 ebp
  00001	8b ec		 mov	 ebp, esp
  00003	51		 push	 ecx
  00004	c7 45 fc cc cc
	cc cc		 mov	 DWORD PTR [ebp-4], -858993460 ; ccccccccH
  0000b	89 4d fc	 mov	 DWORD PTR _this$[ebp], ecx

; 74   : 			{	// construct with pointer _Ptr
; 75   : 			_Myptr = _Ptr;

  0000e	8b 45 fc	 mov	 eax, DWORD PTR _this$[ebp]
  00011	8b 4d 08	 mov	 ecx, DWORD PTR __Ptr$[ebp]
  00014	89 08		 mov	 DWORD PTR [eax], ecx

; 76   : 			}

  00016	8b 45 fc	 mov	 eax, DWORD PTR _this$[ebp]
  00019	8b e5		 mov	 esp, ebp
  0001b	5d		 pop	 ebp
  0001c	c2 04 00	 ret	 4
??0const_iterator@?$vector@UOneLocalGame@@V?$allocator@UOneLocalGame@@@std@@@std@@QAE@PAUOneLocalGame@@@Z ENDP ; std::vector<OneLocalGame,std::allocator<OneLocalGame> >::const_iterator::const_iterator
; Function compile flags: /Odt /RTCsu
_TEXT	ENDS
;	COMDAT ??Dconst_iterator@?$vector@UOneLocalGame@@V?$allocator@UOneLocalGame@@@std@@@std@@QBEABUOneLocalGame@@XZ
_TEXT	SEGMENT
_this$ = -4						; size = 4
??Dconst_iterator@?$vector@UOneLocalGame@@V?$allocator@UOneLocalGame@@@std@@@std@@QBEABUOneLocalGame@@XZ PROC NEAR ; std::vector<OneLocalGame,std::allocator<OneLocalGame> >::const_iterator::operator*, COMDAT
; _this$ = ecx

; 79   : 			{	// return designated object

  00000	55		 push	 ebp
  00001	8b ec		 mov	 ebp, esp
  00003	51		 push	 ecx
  00004	c7 45 fc cc cc
	cc cc		 mov	 DWORD PTR [ebp-4], -858993460 ; ccccccccH
  0000b	89 4d fc	 mov	 DWORD PTR _this$[ebp], ecx

; 80   : 
; 81   : 
; 82   : 			return (*_Myptr);

  0000e	8b 45 fc	 mov	 eax, DWORD PTR _this$[ebp]
  00011	8b 00		 mov	 eax, DWORD PTR [eax]

; 83   : 			}

  00013	8b e5		 mov	 esp, ebp
  00015	5d		 pop	 ebp
  00016	c3		 ret	 0
??Dconst_iterator@?$vector@UOneLocalGame@@V?$allocator@UOneLocalGame@@@std@@@std@@QBEABUOneLocalGame@@XZ ENDP ; std::vector<OneLocalGame,std::allocator<OneLocalGame> >::const_iterator::operator*
_TEXT	ENDS
PUBLIC	??0const_iterator@?$vector@U_tagLMCItemInfo@@V?$allocator@U_tagLMCItemInfo@@@std@@@std@@QAE@PAU_tagLMCItemInfo@@@Z ; std::vector<_tagLMCItemInfo,std::allocator<_tagLMCItemInfo> >::const_iterator::const_iterator
; Function compile flags: /Odt /RTCsu
;	COMDAT ??0iterator@?$vector@U_tagLMCItemInfo@@V?$allocator@U_tagLMCItemInfo@@@std@@@std@@QAE@PAU_tagLMCItemInfo@@@Z
_TEXT	SEGMENT
_this$ = -4						; size = 4
__Ptr$ = 8						; size = 4
??0iterator@?$vector@U_tagLMCItemInfo@@V?$allocator@U_tagLMCItemInfo@@@std@@@std@@QAE@PAU_tagLMCItemInfo@@@Z PROC NEAR ; std::vector<_tagLMCItemInfo,std::allocator<_tagLMCItemInfo> >::iterator::iterator, COMDAT
; _this$ = ecx

; 215  : 			{	// construct with pointer _Ptr

  00000	55		 push	 ebp
  00001	8b ec		 mov	 ebp, esp
  00003	51		 push	 ecx
  00004	c7 45 fc cc cc
	cc cc		 mov	 DWORD PTR [ebp-4], -858993460 ; ccccccccH
  0000b	89 4d fc	 mov	 DWORD PTR _this$[ebp], ecx
  0000e	8b 45 08	 mov	 eax, DWORD PTR __Ptr$[ebp]
  00011	50		 push	 eax
  00012	8b 4d fc	 mov	 ecx, DWORD PTR _this$[ebp]
  00015	e8 00 00 00 00	 call	 ??0const_iterator@?$vector@U_tagLMCItemInfo@@V?$allocator@U_tagLMCItemInfo@@@std@@@std@@QAE@PAU_tagLMCItemInfo@@@Z ; std::vector<_tagLMCItemInfo,std::allocator<_tagLMCItemInfo> >::const_iterator::const_iterator

; 216  : 			}

  0001a	8b 45 fc	 mov	 eax, DWORD PTR _this$[ebp]
  0001d	83 c4 04	 add	 esp, 4
  00020	3b ec		 cmp	 ebp, esp
  00022	e8 00 00 00 00	 call	 __RTC_CheckEsp
  00027	8b e5		 mov	 esp, ebp
  00029	5d		 pop	 ebp
  0002a	c2 04 00	 ret	 4
??0iterator@?$vector@U_tagLMCItemInfo@@V?$allocator@U_tagLMCItemInfo@@@std@@@std@@QAE@PAU_tagLMCItemInfo@@@Z ENDP ; std::vector<_tagLMCItemInfo,std::allocator<_tagLMCItemInfo> >::iterator::iterator
; Function compile flags: /Odt /RTCsu
_TEXT	ENDS
;	COMDAT ??Yiterator@?$vector@U_tagLMCItemInfo@@V?$allocator@U_tagLMCItemInfo@@@std@@@std@@QAEAAV012@H@Z
_TEXT	SEGMENT
_this$ = -4						; size = 4
__Off$ = 8						; size = 4
??Yiterator@?$vector@U_tagLMCItemInfo@@V?$allocator@U_tagLMCItemInfo@@@std@@@std@@QAEAAV012@H@Z PROC NEAR ; std::vector<_tagLMCItemInfo,std::allocator<_tagLMCItemInfo> >::iterator::operator+=, COMDAT
; _this$ = ecx

; 255  : 			{	// increment by integer

  00000	55		 push	 ebp
  00001	8b ec		 mov	 ebp, esp
  00003	51		 push	 ecx
  00004	c7 45 fc cc cc
	cc cc		 mov	 DWORD PTR [ebp-4], -858993460 ; ccccccccH
  0000b	89 4d fc	 mov	 DWORD PTR _this$[ebp], ecx

; 256  : 			this->_Myptr += _Off;

  0000e	8b 45 08	 mov	 eax, DWORD PTR __Off$[ebp]
  00011	6b c0 44	 imul	 eax, 68			; 00000044H
  00014	8b 4d fc	 mov	 ecx, DWORD PTR _this$[ebp]
  00017	03 01		 add	 eax, DWORD PTR [ecx]
  00019	8b 55 fc	 mov	 edx, DWORD PTR _this$[ebp]
  0001c	89 02		 mov	 DWORD PTR [edx], eax

; 257  : 			return (*this);

  0001e	8b 45 fc	 mov	 eax, DWORD PTR _this$[ebp]

; 258  : 			}

  00021	8b e5		 mov	 esp, ebp
  00023	5d		 pop	 ebp
  00024	c2 04 00	 ret	 4
??Yiterator@?$vector@U_tagLMCItemInfo@@V?$allocator@U_tagLMCItemInfo@@@std@@@std@@QAEAAV012@H@Z ENDP ; std::vector<_tagLMCItemInfo,std::allocator<_tagLMCItemInfo> >::iterator::operator+=
; Function compile flags: /Odt /RTCsu
_TEXT	ENDS
;	COMDAT ??Dconst_iterator@?$vector@U_tagLMCItemInfo@@V?$allocator@U_tagLMCItemInfo@@@std@@@std@@QBEABU_tagLMCItemInfo@@XZ
_TEXT	SEGMENT
_this$ = -4						; size = 4
??Dconst_iterator@?$vector@U_tagLMCItemInfo@@V?$allocator@U_tagLMCItemInfo@@@std@@@std@@QBEABU_tagLMCItemInfo@@XZ PROC NEAR ; std::vector<_tagLMCItemInfo,std::allocator<_tagLMCItemInfo> >::const_iterator::operator*, COMDAT
; _this$ = ecx

; 79   : 			{	// return designated object

  00000	55		 push	 ebp
  00001	8b ec		 mov	 ebp, esp
  00003	51		 push	 ecx
  00004	c7 45 fc cc cc
	cc cc		 mov	 DWORD PTR [ebp-4], -858993460 ; ccccccccH
  0000b	89 4d fc	 mov	 DWORD PTR _this$[ebp], ecx

; 80   : 
; 81   : 
; 82   : 			return (*_Myptr);

  0000e	8b 45 fc	 mov	 eax, DWORD PTR _this$[ebp]
  00011	8b 00		 mov	 eax, DWORD PTR [eax]

; 83   : 			}

  00013	8b e5		 mov	 esp, ebp
  00015	5d		 pop	 ebp
  00016	c3		 ret	 0
??Dconst_iterator@?$vector@U_tagLMCItemInfo@@V?$allocator@U_tagLMCItemInfo@@@std@@@std@@QBEABU_tagLMCItemInfo@@XZ ENDP ; std::vector<_tagLMCItemInfo,std::allocator<_tagLMCItemInfo> >::const_iterator::operator*
_TEXT	ENDS
PUBLIC	??0const_iterator@?$vector@HV?$allocator@H@std@@@std@@QAE@PAH@Z ; std::vector<int,std::allocator<int> >::const_iterator::const_iterator
; Function compile flags: /Odt /RTCsu
;	COMDAT ??0iterator@?$vector@HV?$allocator@H@std@@@std@@QAE@PAH@Z
_TEXT	SEGMENT
_this$ = -4						; size = 4
__Ptr$ = 8						; size = 4
??0iterator@?$vector@HV?$allocator@H@std@@@std@@QAE@PAH@Z PROC NEAR ; std::vector<int,std::allocator<int> >::iterator::iterator, COMDAT
; _this$ = ecx

; 215  : 			{	// construct with pointer _Ptr

  00000	55		 push	 ebp
  00001	8b ec		 mov	 ebp, esp
  00003	51		 push	 ecx
  00004	c7 45 fc cc cc
	cc cc		 mov	 DWORD PTR [ebp-4], -858993460 ; ccccccccH
  0000b	89 4d fc	 mov	 DWORD PTR _this$[ebp], ecx
  0000e	8b 45 08	 mov	 eax, DWORD PTR __Ptr$[ebp]
  00011	50		 push	 eax
  00012	8b 4d fc	 mov	 ecx, DWORD PTR _this$[ebp]
  00015	e8 00 00 00 00	 call	 ??0const_iterator@?$vector@HV?$allocator@H@std@@@std@@QAE@PAH@Z ; std::vector<int,std::allocator<int> >::const_iterator::const_iterator

; 216  : 			}

  0001a	8b 45 fc	 mov	 eax, DWORD PTR _this$[ebp]
  0001d	83 c4 04	 add	 esp, 4
  00020	3b ec		 cmp	 ebp, esp
  00022	e8 00 00 00 00	 call	 __RTC_CheckEsp
  00027	8b e5		 mov	 esp, ebp
  00029	5d		 pop	 ebp
  0002a	c2 04 00	 ret	 4
??0iterator@?$vector@HV?$allocator@H@std@@@std@@QAE@PAH@Z ENDP ; std::vector<int,std::allocator<int> >::iterator::iterator
; Function compile flags: /Odt /RTCsu
_TEXT	ENDS
;	COMDAT ??Yiterator@?$vector@HV?$allocator@H@std@@@std@@QAEAAV012@H@Z
_TEXT	SEGMENT
_this$ = -4						; size = 4
__Off$ = 8						; size = 4
??Yiterator@?$vector@HV?$allocator@H@std@@@std@@QAEAAV012@H@Z PROC NEAR ; std::vector<int,std::allocator<int> >::iterator::operator+=, COMDAT
; _this$ = ecx

; 255  : 			{	// increment by integer

  00000	55		 push	 ebp
  00001	8b ec		 mov	 ebp, esp
  00003	51		 push	 ecx
  00004	c7 45 fc cc cc
	cc cc		 mov	 DWORD PTR [ebp-4], -858993460 ; ccccccccH
  0000b	89 4d fc	 mov	 DWORD PTR _this$[ebp], ecx

; 256  : 			this->_Myptr += _Off;

  0000e	8b 45 fc	 mov	 eax, DWORD PTR _this$[ebp]
  00011	8b 08		 mov	 ecx, DWORD PTR [eax]
  00013	8b 55 08	 mov	 edx, DWORD PTR __Off$[ebp]
  00016	8d 04 91	 lea	 eax, DWORD PTR [ecx+edx*4]
  00019	8b 4d fc	 mov	 ecx, DWORD PTR _this$[ebp]
  0001c	89 01		 mov	 DWORD PTR [ecx], eax

; 257  : 			return (*this);

  0001e	8b 45 fc	 mov	 eax, DWORD PTR _this$[ebp]

; 258  : 			}

  00021	8b e5		 mov	 esp, ebp
  00023	5d		 pop	 ebp
  00024	c2 04 00	 ret	 4
??Yiterator@?$vector@HV?$allocator@H@std@@@std@@QAEAAV012@H@Z ENDP ; std::vector<int,std::allocator<int> >::iterator::operator+=
; Function compile flags: /Odt /RTCsu
_TEXT	ENDS
;	COMDAT ??Dconst_iterator@?$vector@HV?$allocator@H@std@@@std@@QBEABHXZ
_TEXT	SEGMENT
_this$ = -4						; size = 4
??Dconst_iterator@?$vector@HV?$allocator@H@std@@@std@@QBEABHXZ PROC NEAR ; std::vector<int,std::allocator<int> >::const_iterator::operator*, COMDAT
; _this$ = ecx

; 79   : 			{	// return designated object

  00000	55		 push	 ebp
  00001	8b ec		 mov	 ebp, esp
  00003	51		 push	 ecx
  00004	c7 45 fc cc cc
	cc cc		 mov	 DWORD PTR [ebp-4], -858993460 ; ccccccccH
  0000b	89 4d fc	 mov	 DWORD PTR _this$[ebp], ecx

; 80   : 
; 81   : 
; 82   : 			return (*_Myptr);

  0000e	8b 45 fc	 mov	 eax, DWORD PTR _this$[ebp]
  00011	8b 00		 mov	 eax, DWORD PTR [eax]

; 83   : 			}

  00013	8b e5		 mov	 esp, ebp
  00015	5d		 pop	 ebp
  00016	c3		 ret	 0
??Dconst_iterator@?$vector@HV?$allocator@H@std@@@std@@QBEABHXZ ENDP ; std::vector<int,std::allocator<int> >::const_iterator::operator*
_TEXT	ENDS
PUBLIC	??_R1A@?0A@A@exception@@8			; exception::`RTTI Base Class Descriptor at (0,-1,0,0)'
PUBLIC	??_R1A@?0A@A@logic_error@std@@8			; std::logic_error::`RTTI Base Class Descriptor at (0,-1,0,0)'
PUBLIC	??_R4length_error@std@@6B@			; std::length_error::`RTTI Complete Object Locator'
PUBLIC	??_R3length_error@std@@8			; std::length_error::`RTTI Class Hierarchy Descriptor'
PUBLIC	??_R2length_error@std@@8			; std::length_error::`RTTI Base Class Array'
PUBLIC	??_R1A@?0A@A@length_error@std@@8		; std::length_error::`RTTI Base Class Descriptor at (0,-1,0,0)'
PUBLIC	?what@logic_error@std@@UBEPBDXZ			; std::logic_error::what
PUBLIC	??_7length_error@std@@6B@			; std::length_error::`vftable'
PUBLIC	??_Glength_error@std@@UAEPAXI@Z			; std::length_error::`scalar deleting destructor'
EXTRN	??_Elength_error@std@@UAEPAXI@Z:NEAR		; std::length_error::`vector deleting destructor'
;	COMDAT ??_7length_error@std@@6B@
CONST	SEGMENT
??_7length_error@std@@6B@ DD FLAT:??_R4length_error@std@@6B@ ; std::length_error::`vftable'
	DD	FLAT:??_Elength_error@std@@UAEPAXI@Z
	DD	FLAT:?what@logic_error@std@@UBEPBDXZ
CONST	ENDS
;	COMDAT ??_R4length_error@std@@6B@
rdata$r	SEGMENT
??_R4length_error@std@@6B@ DD 00H			; std::length_error::`RTTI Complete Object Locator'
	DD	00H
	DD	00H
	DD	FLAT:??_R0?AVlength_error@std@@@8
	DD	FLAT:??_R3length_error@std@@8
rdata$r	ENDS
;	COMDAT ??_R3length_error@std@@8
rdata$r	SEGMENT
??_R3length_error@std@@8 DD 00H				; std::length_error::`RTTI Class Hierarchy Descriptor'
	DD	00H
	DD	03H
	DD	FLAT:??_R2length_error@std@@8
rdata$r	ENDS
;	COMDAT ??_R2length_error@std@@8
rdata$r	SEGMENT
??_R2length_error@std@@8 DD FLAT:??_R1A@?0A@A@length_error@std@@8 ; std::length_error::`RTTI Base Class Array'
	DD	FLAT:??_R1A@?0A@A@logic_error@std@@8
	DD	FLAT:??_R1A@?0A@A@exception@@8
rdata$r	ENDS
;	COMDAT ??_R1A@?0A@A@length_error@std@@8
rdata$r	SEGMENT
??_R1A@?0A@A@length_error@std@@8 DD FLAT:??_R0?AVlength_error@std@@@8 ; std::length_error::`RTTI Base Class Descriptor at (0,-1,0,0)'
	DD	02H
	DD	00H
	DD	0ffffffffH
	DD	00H
	DD	00H
rdata$r	ENDS
;	COMDAT ??_R1A@?0A@A@logic_error@std@@8
rdata$r	SEGMENT
??_R1A@?0A@A@logic_error@std@@8 DD FLAT:??_R0?AVlogic_error@std@@@8 ; std::logic_error::`RTTI Base Class Descriptor at (0,-1,0,0)'
	DD	01H
	DD	00H
	DD	0ffffffffH
	DD	00H
	DD	00H
rdata$r	ENDS
;	COMDAT ??_R1A@?0A@A@exception@@8
rdata$r	SEGMENT
??_R1A@?0A@A@exception@@8 DD FLAT:??_R0?AVexception@@@8	; exception::`RTTI Base Class Descriptor at (0,-1,0,0)'
	DD	00H
	DD	00H
	DD	0ffffffffH
	DD	00H
	DD	00H
; Function compile flags: /Odt /RTCsu
rdata$r	ENDS
;	COMDAT ??0length_error@std@@QAE@ABV01@@Z
_TEXT	SEGMENT
_this$ = -4						; size = 4
___that$ = 8						; size = 4
??0length_error@std@@QAE@ABV01@@Z PROC NEAR		; std::length_error::length_error, COMDAT
; _this$ = ecx
  00000	55		 push	 ebp
  00001	8b ec		 mov	 ebp, esp
  00003	51		 push	 ecx
  00004	c7 45 fc cc cc
	cc cc		 mov	 DWORD PTR [ebp-4], -858993460 ; ccccccccH
  0000b	89 4d fc	 mov	 DWORD PTR _this$[ebp], ecx
  0000e	8b 45 08	 mov	 eax, DWORD PTR ___that$[ebp]
  00011	50		 push	 eax
  00012	8b 4d fc	 mov	 ecx, DWORD PTR _this$[ebp]
  00015	e8 00 00 00 00	 call	 ??0logic_error@std@@QAE@ABV01@@Z
  0001a	8b 4d fc	 mov	 ecx, DWORD PTR _this$[ebp]
  0001d	c7 01 00 00 00
	00		 mov	 DWORD PTR [ecx], OFFSET FLAT:??_7length_error@std@@6B@
  00023	8b 45 fc	 mov	 eax, DWORD PTR _this$[ebp]
  00026	83 c4 04	 add	 esp, 4
  00029	3b ec		 cmp	 ebp, esp
  0002b	e8 00 00 00 00	 call	 __RTC_CheckEsp
  00030	8b e5		 mov	 esp, ebp
  00032	5d		 pop	 ebp
  00033	c2 04 00	 ret	 4
??0length_error@std@@QAE@ABV01@@Z ENDP			; std::length_error::length_error
; Function compile flags: /Odt /RTCsu
; File d:\program files (x86)\microsoft visual studio .net 2003\vc7\include\xmemory
_TEXT	ENDS
;	COMDAT ?max_size@?$allocator@V?$basic_string@DU?$char_traits@D@std@@V?$allocator@D@2@@std@@@std@@QBEIXZ
_TEXT	SEGMENT
tv65 = -12						; size = 4
__Count$ = -8						; size = 4
_this$ = -4						; size = 4
?max_size@?$allocator@V?$basic_string@DU?$char_traits@D@std@@V?$allocator@D@2@@std@@@std@@QBEIXZ PROC NEAR ; std::allocator<std::basic_string<char,std::char_traits<char>,std::allocator<char> > >::max_size, COMDAT
; _this$ = ecx

; 156  : 		{	// estimate maximum array size

  00000	55		 push	 ebp
  00001	8b ec		 mov	 ebp, esp
  00003	83 ec 0c	 sub	 esp, 12			; 0000000cH
  00006	c7 45 f4 cc cc
	cc cc		 mov	 DWORD PTR [ebp-12], -858993460 ; ccccccccH
  0000d	c7 45 f8 cc cc
	cc cc		 mov	 DWORD PTR [ebp-8], -858993460 ; ccccccccH
  00014	c7 45 fc cc cc
	cc cc		 mov	 DWORD PTR [ebp-4], -858993460 ; ccccccccH
  0001b	89 4d fc	 mov	 DWORD PTR _this$[ebp], ecx

; 157  : 		_SIZT _Count = (_SIZT)(-1) / sizeof (_Ty);

  0001e	c7 45 f8 49 92
	24 09		 mov	 DWORD PTR __Count$[ebp], 153391689 ; 09249249H

; 158  : 		return (0 < _Count ? _Count : 1);

  00025	83 7d f8 00	 cmp	 DWORD PTR __Count$[ebp], 0
  00029	76 08		 jbe	 SHORT $L195671
  0002b	8b 45 f8	 mov	 eax, DWORD PTR __Count$[ebp]
  0002e	89 45 f4	 mov	 DWORD PTR tv65[ebp], eax
  00031	eb 07		 jmp	 SHORT $L195672
$L195671:
  00033	c7 45 f4 01 00
	00 00		 mov	 DWORD PTR tv65[ebp], 1
$L195672:
  0003a	8b 45 f4	 mov	 eax, DWORD PTR tv65[ebp]

; 159  : 		}

  0003d	8b e5		 mov	 esp, ebp
  0003f	5d		 pop	 ebp
  00040	c3		 ret	 0
?max_size@?$allocator@V?$basic_string@DU?$char_traits@D@std@@V?$allocator@D@2@@std@@@std@@QBEIXZ ENDP ; std::allocator<std::basic_string<char,std::char_traits<char>,std::allocator<char> > >::max_size
; Function compile flags: /Odt /RTCsu
_TEXT	ENDS
;	COMDAT ?max_size@?$allocator@UOneLocalGame@@@std@@QBEIXZ
_TEXT	SEGMENT
tv65 = -12						; size = 4
__Count$ = -8						; size = 4
_this$ = -4						; size = 4
?max_size@?$allocator@UOneLocalGame@@@std@@QBEIXZ PROC NEAR ; std::allocator<OneLocalGame>::max_size, COMDAT
; _this$ = ecx

; 156  : 		{	// estimate maximum array size

  00000	55		 push	 ebp
  00001	8b ec		 mov	 ebp, esp
  00003	83 ec 0c	 sub	 esp, 12			; 0000000cH
  00006	c7 45 f4 cc cc
	cc cc		 mov	 DWORD PTR [ebp-12], -858993460 ; ccccccccH
  0000d	c7 45 f8 cc cc
	cc cc		 mov	 DWORD PTR [ebp-8], -858993460 ; ccccccccH
  00014	c7 45 fc cc cc
	cc cc		 mov	 DWORD PTR [ebp-4], -858993460 ; ccccccccH
  0001b	89 4d fc	 mov	 DWORD PTR _this$[ebp], ecx

; 157  : 		_SIZT _Count = (_SIZT)(-1) / sizeof (_Ty);

  0001e	c7 45 f8 71 1c
	c7 01		 mov	 DWORD PTR __Count$[ebp], 29826161 ; 01c71c71H

; 158  : 		return (0 < _Count ? _Count : 1);

  00025	83 7d f8 00	 cmp	 DWORD PTR __Count$[ebp], 0
  00029	76 08		 jbe	 SHORT $L195674
  0002b	8b 45 f8	 mov	 eax, DWORD PTR __Count$[ebp]
  0002e	89 45 f4	 mov	 DWORD PTR tv65[ebp], eax
  00031	eb 07		 jmp	 SHORT $L195675
$L195674:
  00033	c7 45 f4 01 00
	00 00		 mov	 DWORD PTR tv65[ebp], 1
$L195675:
  0003a	8b 45 f4	 mov	 eax, DWORD PTR tv65[ebp]

; 159  : 		}

  0003d	8b e5		 mov	 esp, ebp
  0003f	5d		 pop	 ebp
  00040	c3		 ret	 0
?max_size@?$allocator@UOneLocalGame@@@std@@QBEIXZ ENDP	; std::allocator<OneLocalGame>::max_size
; Function compile flags: /Odt /RTCsu
_TEXT	ENDS
;	COMDAT ?max_size@?$allocator@H@std@@QBEIXZ
_TEXT	SEGMENT
tv65 = -12						; size = 4
__Count$ = -8						; size = 4
_this$ = -4						; size = 4
?max_size@?$allocator@H@std@@QBEIXZ PROC NEAR		; std::allocator<int>::max_size, COMDAT
; _this$ = ecx

; 156  : 		{	// estimate maximum array size

  00000	55		 push	 ebp
  00001	8b ec		 mov	 ebp, esp
  00003	83 ec 0c	 sub	 esp, 12			; 0000000cH
  00006	c7 45 f4 cc cc
	cc cc		 mov	 DWORD PTR [ebp-12], -858993460 ; ccccccccH
  0000d	c7 45 f8 cc cc
	cc cc		 mov	 DWORD PTR [ebp-8], -858993460 ; ccccccccH
  00014	c7 45 fc cc cc
	cc cc		 mov	 DWORD PTR [ebp-4], -858993460 ; ccccccccH
  0001b	89 4d fc	 mov	 DWORD PTR _this$[ebp], ecx

; 157  : 		_SIZT _Count = (_SIZT)(-1) / sizeof (_Ty);

  0001e	c7 45 f8 ff ff
	ff 3f		 mov	 DWORD PTR __Count$[ebp], 1073741823 ; 3fffffffH

; 158  : 		return (0 < _Count ? _Count : 1);

  00025	83 7d f8 00	 cmp	 DWORD PTR __Count$[ebp], 0
  00029	76 08		 jbe	 SHORT $L195677
  0002b	8b 45 f8	 mov	 eax, DWORD PTR __Count$[ebp]
  0002e	89 45 f4	 mov	 DWORD PTR tv65[ebp], eax
  00031	eb 07		 jmp	 SHORT $L195678
$L195677:
  00033	c7 45 f4 01 00
	00 00		 mov	 DWORD PTR tv65[ebp], 1
$L195678:
  0003a	8b 45 f4	 mov	 eax, DWORD PTR tv65[ebp]

; 159  : 		}

  0003d	8b e5		 mov	 esp, ebp
  0003f	5d		 pop	 ebp
  00040	c3		 ret	 0
?max_size@?$allocator@H@std@@QBEIXZ ENDP		; std::allocator<int>::max_size
; Function compile flags: /Odt /RTCsu
; File d:\program files (x86)\microsoft visual studio .net 2003\vc7\include\vector
_TEXT	ENDS
;	COMDAT ??Yiterator@?$vector@V?$basic_string@DU?$char_traits@D@std@@V?$allocator@D@2@@std@@V?$allocator@V?$basic_string@DU?$char_traits@D@std@@V?$allocator@D@2@@std@@@2@@std@@QAEAAV012@H@Z
_TEXT	SEGMENT
_this$ = -4						; size = 4
__Off$ = 8						; size = 4
??Yiterator@?$vector@V?$basic_string@DU?$char_traits@D@std@@V?$allocator@D@2@@std@@V?$allocator@V?$basic_string@DU?$char_traits@D@std@@V?$allocator@D@2@@std@@@2@@std@@QAEAAV012@H@Z PROC NEAR ; std::vector<std::basic_string<char,std::char_traits<char>,std::allocator<char> >,std::allocator<std::basic_string<char,std::char_traits<char>,std::allocator<char> > > >::iterator::operator+=, COMDAT
; _this$ = ecx

; 255  : 			{	// increment by integer

  00000	55		 push	 ebp
  00001	8b ec		 mov	 ebp, esp
  00003	51		 push	 ecx
  00004	c7 45 fc cc cc
	cc cc		 mov	 DWORD PTR [ebp-4], -858993460 ; ccccccccH
  0000b	89 4d fc	 mov	 DWORD PTR _this$[ebp], ecx

; 256  : 			this->_Myptr += _Off;

  0000e	8b 45 08	 mov	 eax, DWORD PTR __Off$[ebp]
  00011	6b c0 1c	 imul	 eax, 28			; 0000001cH
  00014	8b 4d fc	 mov	 ecx, DWORD PTR _this$[ebp]
  00017	03 01		 add	 eax, DWORD PTR [ecx]
  00019	8b 55 fc	 mov	 edx, DWORD PTR _this$[ebp]
  0001c	89 02		 mov	 DWORD PTR [edx], eax

; 257  : 			return (*this);

  0001e	8b 45 fc	 mov	 eax, DWORD PTR _this$[ebp]

; 258  : 			}

  00021	8b e5		 mov	 esp, ebp
  00023	5d		 pop	 ebp
  00024	c2 04 00	 ret	 4
??Yiterator@?$vector@V?$basic_string@DU?$char_traits@D@std@@V?$allocator@D@2@@std@@V?$allocator@V?$basic_string@DU?$char_traits@D@std@@V?$allocator@D@2@@std@@@2@@std@@QAEAAV012@H@Z ENDP ; std::vector<std::basic_string<char,std::char_traits<char>,std::allocator<char> >,std::allocator<std::basic_string<char,std::char_traits<char>,std::allocator<char> > > >::iterator::operator+=
; Function compile flags: /Odt /RTCsu
_TEXT	ENDS
;	COMDAT ??Gconst_iterator@?$vector@V?$basic_string@DU?$char_traits@D@std@@V?$allocator@D@2@@std@@V?$allocator@V?$basic_string@DU?$char_traits@D@std@@V?$allocator@D@2@@std@@@2@@std@@QBEHABV012@@Z
_TEXT	SEGMENT
_this$ = -4						; size = 4
__Right$ = 8						; size = 4
??Gconst_iterator@?$vector@V?$basic_string@DU?$char_traits@D@std@@V?$allocator@D@2@@std@@V?$allocator@V?$basic_string@DU?$char_traits@D@std@@V?$allocator@D@2@@std@@@2@@std@@QBEHABV012@@Z PROC NEAR ; std::vector<std::basic_string<char,std::char_traits<char>,std::allocator<char> >,std::allocator<std::basic_string<char,std::char_traits<char>,std::allocator<char> > > >::const_iterator::operator-, COMDAT
; _this$ = ecx

; 140  : 			{	// return difference of iterators

  00000	55		 push	 ebp
  00001	8b ec		 mov	 ebp, esp
  00003	51		 push	 ecx
  00004	c7 45 fc cc cc
	cc cc		 mov	 DWORD PTR [ebp-4], -858993460 ; ccccccccH
  0000b	89 4d fc	 mov	 DWORD PTR _this$[ebp], ecx

; 141  : 
; 142  : 
; 143  : 			return (_Myptr - _Right._Myptr);

  0000e	8b 45 fc	 mov	 eax, DWORD PTR _this$[ebp]
  00011	8b 4d 08	 mov	 ecx, DWORD PTR __Right$[ebp]
  00014	8b 00		 mov	 eax, DWORD PTR [eax]
  00016	2b 01		 sub	 eax, DWORD PTR [ecx]
  00018	99		 cdq
  00019	b9 1c 00 00 00	 mov	 ecx, 28			; 0000001cH
  0001e	f7 f9		 idiv	 ecx

; 144  : 			}

  00020	8b e5		 mov	 esp, ebp
  00022	5d		 pop	 ebp
  00023	c2 04 00	 ret	 4
??Gconst_iterator@?$vector@V?$basic_string@DU?$char_traits@D@std@@V?$allocator@D@2@@std@@V?$allocator@V?$basic_string@DU?$char_traits@D@std@@V?$allocator@D@2@@std@@@2@@std@@QBEHABV012@@Z ENDP ; std::vector<std::basic_string<char,std::char_traits<char>,std::allocator<char> >,std::allocator<std::basic_string<char,std::char_traits<char>,std::allocator<char> > > >::const_iterator::operator-
; Function compile flags: /Odt /RTCsu
_TEXT	ENDS
;	COMDAT ??0const_iterator@?$vector@U_tagLMCItemInfo@@V?$allocator@U_tagLMCItemInfo@@@std@@@std@@QAE@PAU_tagLMCItemInfo@@@Z
_TEXT	SEGMENT
_this$ = -4						; size = 4
__Ptr$ = 8						; size = 4
??0const_iterator@?$vector@U_tagLMCItemInfo@@V?$allocator@U_tagLMCItemInfo@@@std@@@std@@QAE@PAU_tagLMCItemInfo@@@Z PROC NEAR ; std::vector<_tagLMCItemInfo,std::allocator<_tagLMCItemInfo> >::const_iterator::const_iterator, COMDAT
; _this$ = ecx

; 73   : 		const_iterator(_Tptr _Ptr)

  00000	55		 push	 ebp
  00001	8b ec		 mov	 ebp, esp
  00003	51		 push	 ecx
  00004	c7 45 fc cc cc
	cc cc		 mov	 DWORD PTR [ebp-4], -858993460 ; ccccccccH
  0000b	89 4d fc	 mov	 DWORD PTR _this$[ebp], ecx

; 74   : 			{	// construct with pointer _Ptr
; 75   : 			_Myptr = _Ptr;

  0000e	8b 45 fc	 mov	 eax, DWORD PTR _this$[ebp]
  00011	8b 4d 08	 mov	 ecx, DWORD PTR __Ptr$[ebp]
  00014	89 08		 mov	 DWORD PTR [eax], ecx

; 76   : 			}

  00016	8b 45 fc	 mov	 eax, DWORD PTR _this$[ebp]
  00019	8b e5		 mov	 esp, ebp
  0001b	5d		 pop	 ebp
  0001c	c2 04 00	 ret	 4
??0const_iterator@?$vector@U_tagLMCItemInfo@@V?$allocator@U_tagLMCItemInfo@@@std@@@std@@QAE@PAU_tagLMCItemInfo@@@Z ENDP ; std::vector<_tagLMCItemInfo,std::allocator<_tagLMCItemInfo> >::const_iterator::const_iterator
; Function compile flags: /Odt /RTCsu
_TEXT	ENDS
;	COMDAT ??0const_iterator@?$vector@HV?$allocator@H@std@@@std@@QAE@PAH@Z
_TEXT	SEGMENT
_this$ = -4						; size = 4
__Ptr$ = 8						; size = 4
??0const_iterator@?$vector@HV?$allocator@H@std@@@std@@QAE@PAH@Z PROC NEAR ; std::vector<int,std::allocator<int> >::const_iterator::const_iterator, COMDAT
; _this$ = ecx

; 73   : 		const_iterator(_Tptr _Ptr)

  00000	55		 push	 ebp
  00001	8b ec		 mov	 ebp, esp
  00003	51		 push	 ecx
  00004	c7 45 fc cc cc
	cc cc		 mov	 DWORD PTR [ebp-4], -858993460 ; ccccccccH
  0000b	89 4d fc	 mov	 DWORD PTR _this$[ebp], ecx

; 74   : 			{	// construct with pointer _Ptr
; 75   : 			_Myptr = _Ptr;

  0000e	8b 45 fc	 mov	 eax, DWORD PTR _this$[ebp]
  00011	8b 4d 08	 mov	 ecx, DWORD PTR __Ptr$[ebp]
  00014	89 08		 mov	 DWORD PTR [eax], ecx

; 76   : 			}

  00016	8b 45 fc	 mov	 eax, DWORD PTR _this$[ebp]
  00019	8b e5		 mov	 esp, ebp
  0001b	5d		 pop	 ebp
  0001c	c2 04 00	 ret	 4
??0const_iterator@?$vector@HV?$allocator@H@std@@@std@@QAE@PAH@Z ENDP ; std::vector<int,std::allocator<int> >::const_iterator::const_iterator
_TEXT	ENDS
PUBLIC	?_Ptr_cat@std@@YA?AU_Scalar_ptr_iterator_tag@1@PAH0@Z ; std::_Ptr_cat
PUBLIC	??$_Copy_opt@PAHPAH@std@@YAPAHPAH00U_Scalar_ptr_iterator_tag@0@@Z ; std::_Copy_opt<int *,int *>
; Function compile flags: /Odt /RTCsu
; File d:\program files (x86)\microsoft visual studio .net 2003\vc7\include\xutility
;	COMDAT ??$copy@PAHPAH@std@@YAPAHPAH00@Z
_TEXT	SEGMENT
$T195684 = -1						; size = 1
__First$ = 8						; size = 4
__Last$ = 12						; size = 4
__Dest$ = 16						; size = 4
??$copy@PAHPAH@std@@YAPAHPAH00@Z PROC NEAR		; std::copy<int *,int *>, COMDAT

; 1039 : 	{	// copy [_First, _Last) to [_Dest, ...)

  00000	55		 push	 ebp
  00001	8b ec		 mov	 ebp, esp
  00003	51		 push	 ecx
  00004	c7 45 fc cc cc
	cc cc		 mov	 DWORD PTR [ebp-4], -858993460 ; ccccccccH

; 1040 : 	return (_Copy_opt(_First, _Last, _Dest, _Ptr_cat(_First, _Dest)));

  0000b	8b 45 10	 mov	 eax, DWORD PTR __Dest$[ebp]
  0000e	50		 push	 eax
  0000f	8b 4d 08	 mov	 ecx, DWORD PTR __First$[ebp]
  00012	51		 push	 ecx
  00013	e8 00 00 00 00	 call	 ?_Ptr_cat@std@@YA?AU_Scalar_ptr_iterator_tag@1@PAH0@Z ; std::_Ptr_cat
  00018	83 c4 08	 add	 esp, 8
  0001b	88 45 ff	 mov	 BYTE PTR $T195684[ebp], al
  0001e	8a 55 ff	 mov	 dl, BYTE PTR $T195684[ebp]
  00021	52		 push	 edx
  00022	8b 45 10	 mov	 eax, DWORD PTR __Dest$[ebp]
  00025	50		 push	 eax
  00026	8b 4d 0c	 mov	 ecx, DWORD PTR __Last$[ebp]
  00029	51		 push	 ecx
  0002a	8b 55 08	 mov	 edx, DWORD PTR __First$[ebp]
  0002d	52		 push	 edx
  0002e	e8 00 00 00 00	 call	 ??$_Copy_opt@PAHPAH@std@@YAPAHPAH00U_Scalar_ptr_iterator_tag@0@@Z ; std::_Copy_opt<int *,int *>
  00033	83 c4 10	 add	 esp, 16			; 00000010H

; 1041 : 	}

  00036	83 c4 04	 add	 esp, 4
  00039	3b ec		 cmp	 ebp, esp
  0003b	e8 00 00 00 00	 call	 __RTC_CheckEsp
  00040	8b e5		 mov	 esp, ebp
  00042	5d		 pop	 ebp
  00043	c3		 ret	 0
??$copy@PAHPAH@std@@YAPAHPAH00@Z ENDP			; std::copy<int *,int *>
_TEXT	ENDS
PUBLIC	??$_Uninitialized_copy@PAHPAHV?$allocator@H@std@@@std@@YAPAHPAH00AAV?$allocator@H@0@@Z ; std::_Uninitialized_copy<int *,int *,std::allocator<int> >
; Function compile flags: /Odt /RTCsu
; File d:\program files (x86)\microsoft visual studio .net 2003\vc7\include\vector
;	COMDAT ??$_Ucopy@PAH@?$vector@HV?$allocator@H@std@@@std@@IAEPAHPAH00@Z
_TEXT	SEGMENT
_this$ = -4						; size = 4
__First$ = 8						; size = 4
__Last$ = 12						; size = 4
__Ptr$ = 16						; size = 4
??$_Ucopy@PAH@?$vector@HV?$allocator@H@std@@@std@@IAEPAHPAH00@Z PROC NEAR ; std::vector<int,std::allocator<int> >::_Ucopy<int *>, COMDAT
; _this$ = ecx

; 801  : 		pointer _Ucopy(_Iter _First, _Iter _Last, pointer _Ptr)

  00000	55		 push	 ebp
  00001	8b ec		 mov	 ebp, esp
  00003	51		 push	 ecx
  00004	c7 45 fc cc cc
	cc cc		 mov	 DWORD PTR [ebp-4], -858993460 ; ccccccccH
  0000b	89 4d fc	 mov	 DWORD PTR _this$[ebp], ecx

; 802  : 		{	// copy initializing [_First, _Last), using allocator
; 803  : 		return (_Uninitialized_copy(_First, _Last,
; 804  : 			_Ptr, this->_Alval));

  0000e	8b 45 fc	 mov	 eax, DWORD PTR _this$[ebp]
  00011	50		 push	 eax
  00012	8b 4d 10	 mov	 ecx, DWORD PTR __Ptr$[ebp]
  00015	51		 push	 ecx
  00016	8b 55 0c	 mov	 edx, DWORD PTR __Last$[ebp]
  00019	52		 push	 edx
  0001a	8b 45 08	 mov	 eax, DWORD PTR __First$[ebp]
  0001d	50		 push	 eax
  0001e	e8 00 00 00 00	 call	 ??$_Uninitialized_copy@PAHPAHV?$allocator@H@std@@@std@@YAPAHPAH00AAV?$allocator@H@0@@Z ; std::_Uninitialized_copy<int *,int *,std::allocator<int> >
  00023	83 c4 10	 add	 esp, 16			; 00000010H

; 805  : 		}

  00026	83 c4 04	 add	 esp, 4
  00029	3b ec		 cmp	 ebp, esp
  0002b	e8 00 00 00 00	 call	 __RTC_CheckEsp
  00030	8b e5		 mov	 esp, ebp
  00032	5d		 pop	 ebp
  00033	c2 0c 00	 ret	 12			; 0000000cH
??$_Ucopy@PAH@?$vector@HV?$allocator@H@std@@@std@@IAEPAHPAH00@Z ENDP ; std::vector<int,std::allocator<int> >::_Ucopy<int *>
_TEXT	ENDS
PUBLIC	??$_Destroy_range@HV?$allocator@H@std@@@std@@YAXPAH0AAV?$allocator@H@0@U_Scalar_ptr_iterator_tag@0@@Z ; std::_Destroy_range<int,std::allocator<int> >
; Function compile flags: /Odt /RTCsu
; File d:\program files (x86)\microsoft visual studio .net 2003\vc7\include\xmemory
;	COMDAT ??$_Destroy_range@HV?$allocator@H@std@@@std@@YAXPAH0AAV?$allocator@H@0@@Z
_TEXT	SEGMENT
$T195687 = -1						; size = 1
__First$ = 8						; size = 4
__Last$ = 12						; size = 4
__Al$ = 16						; size = 4
??$_Destroy_range@HV?$allocator@H@std@@@std@@YAXPAH0AAV?$allocator@H@0@@Z PROC NEAR ; std::_Destroy_range<int,std::allocator<int> >, COMDAT

; 216  : 	{	// destroy [_First, _Last)

  00000	55		 push	 ebp
  00001	8b ec		 mov	 ebp, esp
  00003	51		 push	 ecx
  00004	c7 45 fc cc cc
	cc cc		 mov	 DWORD PTR [ebp-4], -858993460 ; ccccccccH

; 217  : 	_Destroy_range(_First, _Last, _Al, _Ptr_cat(_First, _Last));

  0000b	8b 45 0c	 mov	 eax, DWORD PTR __Last$[ebp]
  0000e	50		 push	 eax
  0000f	8b 4d 08	 mov	 ecx, DWORD PTR __First$[ebp]
  00012	51		 push	 ecx
  00013	e8 00 00 00 00	 call	 ?_Ptr_cat@std@@YA?AU_Scalar_ptr_iterator_tag@1@PAH0@Z ; std::_Ptr_cat
  00018	83 c4 08	 add	 esp, 8
  0001b	88 45 ff	 mov	 BYTE PTR $T195687[ebp], al
  0001e	8a 55 ff	 mov	 dl, BYTE PTR $T195687[ebp]
  00021	52		 push	 edx
  00022	8b 45 10	 mov	 eax, DWORD PTR __Al$[ebp]
  00025	50		 push	 eax
  00026	8b 4d 0c	 mov	 ecx, DWORD PTR __Last$[ebp]
  00029	51		 push	 ecx
  0002a	8b 55 08	 mov	 edx, DWORD PTR __First$[ebp]
  0002d	52		 push	 edx
  0002e	e8 00 00 00 00	 call	 ??$_Destroy_range@HV?$allocator@H@std@@@std@@YAXPAH0AAV?$allocator@H@0@U_Scalar_ptr_iterator_tag@0@@Z ; std::_Destroy_range<int,std::allocator<int> >
  00033	83 c4 10	 add	 esp, 16			; 00000010H

; 218  : 	}

  00036	83 c4 04	 add	 esp, 4
  00039	3b ec		 cmp	 ebp, esp
  0003b	e8 00 00 00 00	 call	 __RTC_CheckEsp
  00040	8b e5		 mov	 esp, ebp
  00042	5d		 pop	 ebp
  00043	c3		 ret	 0
??$_Destroy_range@HV?$allocator@H@std@@@std@@YAXPAH0AAV?$allocator@H@0@@Z ENDP ; std::_Destroy_range<int,std::allocator<int> >
_TEXT	ENDS
PUBLIC	??$_Ptr_cat@PAV?$basic_string@DU?$char_traits@D@std@@V?$allocator@D@2@@std@@PAV12@@std@@YA?AU_Nonscalar_ptr_iterator_tag@0@AAPAV?$basic_string@DU?$char_traits@D@std@@V?$allocator@D@2@@0@0@Z ; std::_Ptr_cat<std::basic_string<char,std::char_traits<char>,std::allocator<char> > *,std::basic_string<char,std::char_traits<char>,std::allocator<char> > *>
PUBLIC	??$_Uninit_fill_n@PAV?$basic_string@DU?$char_traits@D@std@@V?$allocator@D@2@@std@@IV12@V?$allocator@V?$basic_string@DU?$char_traits@D@std@@V?$allocator@D@2@@std@@@2@@std@@YAXPAV?$basic_string@DU?$char_traits@D@std@@V?$allocator@D@2@@0@IABV10@AAV?$allocator@V?$basic_string@DU?$char_traits@D@std@@V?$allocator@D@2@@std@@@0@U_Nonscalar_ptr_iterator_tag@0@@Z ; std::_Uninit_fill_n<std::basic_string<char,std::char_traits<char>,std::allocator<char> > *,unsigned int,std::basic_string<char,std::char_traits<char>,std::allocator<char> >,std::allocator<std::basic_string<char,std::char_traits<char>,std::allocator<char> > > >
; Function compile flags: /Odt /RTCsu
; File d:\program files (x86)\microsoft visual studio .net 2003\vc7\include\memory
;	COMDAT ??$_Uninitialized_fill_n@PAV?$basic_string@DU?$char_traits@D@std@@V?$allocator@D@2@@std@@IV12@V?$allocator@V?$basic_string@DU?$char_traits@D@std@@V?$allocator@D@2@@std@@@2@@std@@YAXPAV?$basic_string@DU?$char_traits@D@std@@V?$allocator@D@2@@0@IABV10@AAV?$allocator@V?$basic_string@DU?$char_traits@D@std@@V?$allocator@D@2@@std@@@0@@Z
_TEXT	SEGMENT
$T195689 = -1						; size = 1
__First$ = 8						; size = 4
__Count$ = 12						; size = 4
__Val$ = 16						; size = 4
__Al$ = 20						; size = 4
??$_Uninitialized_fill_n@PAV?$basic_string@DU?$char_traits@D@std@@V?$allocator@D@2@@std@@IV12@V?$allocator@V?$basic_string@DU?$char_traits@D@std@@V?$allocator@D@2@@std@@@2@@std@@YAXPAV?$basic_string@DU?$char_traits@D@std@@V?$allocator@D@2@@0@IABV10@AAV?$allocator@V?$basic_string@DU?$char_traits@D@std@@V?$allocator@D@2@@std@@@0@@Z PROC NEAR ; std::_Uninitialized_fill_n<std::basic_string<char,std::char_traits<char>,std::allocator<char> > *,unsigned int,std::basic_string<char,std::char_traits<char>,std::allocator<char> >,std::allocator<std::basic_string<char,std::char_traits<char>,std::allocator<char> > > >, COMDAT

; 255  : 	{	// copy _Count *_Val to raw _First, using _Al

  00000	55		 push	 ebp
  00001	8b ec		 mov	 ebp, esp
  00003	51		 push	 ecx
  00004	c7 45 fc cc cc
	cc cc		 mov	 DWORD PTR [ebp-4], -858993460 ; ccccccccH

; 256  : 	_Uninit_fill_n(_First, _Count, _Val, _Al,
; 257  : 		_Ptr_cat(_First, _First));

  0000b	8d 45 08	 lea	 eax, DWORD PTR __First$[ebp]
  0000e	50		 push	 eax
  0000f	8d 4d 08	 lea	 ecx, DWORD PTR __First$[ebp]
  00012	51		 push	 ecx
  00013	e8 00 00 00 00	 call	 ??$_Ptr_cat@PAV?$basic_string@DU?$char_traits@D@std@@V?$allocator@D@2@@std@@PAV12@@std@@YA?AU_Nonscalar_ptr_iterator_tag@0@AAPAV?$basic_string@DU?$char_traits@D@std@@V?$allocator@D@2@@0@0@Z ; std::_Ptr_cat<std::basic_string<char,std::char_traits<char>,std::allocator<char> > *,std::basic_string<char,std::char_traits<char>,std::allocator<char> > *>
  00018	83 c4 08	 add	 esp, 8
  0001b	88 45 ff	 mov	 BYTE PTR $T195689[ebp], al
  0001e	8a 55 ff	 mov	 dl, BYTE PTR $T195689[ebp]
  00021	52		 push	 edx
  00022	8b 45 14	 mov	 eax, DWORD PTR __Al$[ebp]
  00025	50		 push	 eax
  00026	8b 4d 10	 mov	 ecx, DWORD PTR __Val$[ebp]
  00029	51		 push	 ecx
  0002a	8b 55 0c	 mov	 edx, DWORD PTR __Count$[ebp]
  0002d	52		 push	 edx
  0002e	8b 45 08	 mov	 eax, DWORD PTR __First$[ebp]
  00031	50		 push	 eax
  00032	e8 00 00 00 00	 call	 ??$_Uninit_fill_n@PAV?$basic_string@DU?$char_traits@D@std@@V?$allocator@D@2@@std@@IV12@V?$allocator@V?$basic_string@DU?$char_traits@D@std@@V?$allocator@D@2@@std@@@2@@std@@YAXPAV?$basic_string@DU?$char_traits@D@std@@V?$allocator@D@2@@0@IABV10@AAV?$allocator@V?$basic_string@DU?$char_traits@D@std@@V?$allocator@D@2@@std@@@0@U_Nonscalar_ptr_iterator_tag@0@@Z ; std::_Uninit_fill_n<std::basic_string<char,std::char_traits<char>,std::allocator<char> > *,unsigned int,std::basic_string<char,std::char_traits<char>,std::allocator<char> >,std::allocator<std::basic_string<char,std::char_traits<char>,std::allocator<char> > > >
  00037	83 c4 14	 add	 esp, 20			; 00000014H

; 258  : 	}

  0003a	83 c4 04	 add	 esp, 4
  0003d	3b ec		 cmp	 ebp, esp
  0003f	e8 00 00 00 00	 call	 __RTC_CheckEsp
  00044	8b e5		 mov	 esp, ebp
  00046	5d		 pop	 ebp
  00047	c3		 ret	 0
??$_Uninitialized_fill_n@PAV?$basic_string@DU?$char_traits@D@std@@V?$allocator@D@2@@std@@IV12@V?$allocator@V?$basic_string@DU?$char_traits@D@std@@V?$allocator@D@2@@std@@@2@@std@@YAXPAV?$basic_string@DU?$char_traits@D@std@@V?$allocator@D@2@@0@IABV10@AAV?$allocator@V?$basic_string@DU?$char_traits@D@std@@V?$allocator@D@2@@std@@@0@@Z ENDP ; std::_Uninitialized_fill_n<std::basic_string<char,std::char_traits<char>,std::allocator<char> > *,unsigned int,std::basic_string<char,std::char_traits<char>,std::allocator<char> >,std::allocator<std::basic_string<char,std::char_traits<char>,std::allocator<char> > > >
; Function compile flags: /Odt /RTCsu
; File d:\program files (x86)\microsoft visual studio .net 2003\vc7\include\xmemory
_TEXT	ENDS
;	COMDAT ??$_Allocate@V?$basic_string@DU?$char_traits@D@std@@V?$allocator@D@2@@std@@@std@@YAPAV?$basic_string@DU?$char_traits@D@std@@V?$allocator@D@2@@0@IPAV10@@Z
_TEXT	SEGMENT
__Count$ = 8						; size = 4
___formal$ = 12						; size = 4
??$_Allocate@V?$basic_string@DU?$char_traits@D@std@@V?$allocator@D@2@@std@@@std@@YAPAV?$basic_string@DU?$char_traits@D@std@@V?$allocator@D@2@@0@IPAV10@@Z PROC NEAR ; std::_Allocate<std::basic_string<char,std::char_traits<char>,std::allocator<char> > >, COMDAT

; 33   : 	{	// allocate storage for _Count elements of type _Ty

  00000	55		 push	 ebp
  00001	8b ec		 mov	 ebp, esp

; 34   : 	return ((_Ty _FARQ *)operator new(_Count * sizeof (_Ty)));

  00003	8b 45 08	 mov	 eax, DWORD PTR __Count$[ebp]
  00006	6b c0 1c	 imul	 eax, 28			; 0000001cH
  00009	50		 push	 eax
  0000a	e8 00 00 00 00	 call	 ??2@YAPAXI@Z		; operator new
  0000f	83 c4 04	 add	 esp, 4

; 35   : 	}

  00012	3b ec		 cmp	 ebp, esp
  00014	e8 00 00 00 00	 call	 __RTC_CheckEsp
  00019	5d		 pop	 ebp
  0001a	c3		 ret	 0
??$_Allocate@V?$basic_string@DU?$char_traits@D@std@@V?$allocator@D@2@@std@@@std@@YAPAV?$basic_string@DU?$char_traits@D@std@@V?$allocator@D@2@@0@IPAV10@@Z ENDP ; std::_Allocate<std::basic_string<char,std::char_traits<char>,std::allocator<char> > >
_TEXT	ENDS
PUBLIC	??$_Ptr_cat@PAUOneLocalGame@@PAU1@@std@@YA?AU_Nonscalar_ptr_iterator_tag@0@AAPAUOneLocalGame@@0@Z ; std::_Ptr_cat<OneLocalGame *,OneLocalGame *>
PUBLIC	??$_Destroy_range@UOneLocalGame@@V?$allocator@UOneLocalGame@@@std@@@std@@YAXPAUOneLocalGame@@0AAV?$allocator@UOneLocalGame@@@0@U_Nonscalar_ptr_iterator_tag@0@@Z ; std::_Destroy_range<OneLocalGame,std::allocator<OneLocalGame> >
; Function compile flags: /Odt /RTCsu
;	COMDAT ??$_Destroy_range@UOneLocalGame@@V?$allocator@UOneLocalGame@@@std@@@std@@YAXPAUOneLocalGame@@0AAV?$allocator@UOneLocalGame@@@0@@Z
_TEXT	SEGMENT
$T195692 = -1						; size = 1
__First$ = 8						; size = 4
__Last$ = 12						; size = 4
__Al$ = 16						; size = 4
??$_Destroy_range@UOneLocalGame@@V?$allocator@UOneLocalGame@@@std@@@std@@YAXPAUOneLocalGame@@0AAV?$allocator@UOneLocalGame@@@0@@Z PROC NEAR ; std::_Destroy_range<OneLocalGame,std::allocator<OneLocalGame> >, COMDAT

; 216  : 	{	// destroy [_First, _Last)

  00000	55		 push	 ebp
  00001	8b ec		 mov	 ebp, esp
  00003	51		 push	 ecx
  00004	c7 45 fc cc cc
	cc cc		 mov	 DWORD PTR [ebp-4], -858993460 ; ccccccccH

; 217  : 	_Destroy_range(_First, _Last, _Al, _Ptr_cat(_First, _Last));

  0000b	8d 45 0c	 lea	 eax, DWORD PTR __Last$[ebp]
  0000e	50		 push	 eax
  0000f	8d 4d 08	 lea	 ecx, DWORD PTR __First$[ebp]
  00012	51		 push	 ecx
  00013	e8 00 00 00 00	 call	 ??$_Ptr_cat@PAUOneLocalGame@@PAU1@@std@@YA?AU_Nonscalar_ptr_iterator_tag@0@AAPAUOneLocalGame@@0@Z ; std::_Ptr_cat<OneLocalGame *,OneLocalGame *>
  00018	83 c4 08	 add	 esp, 8
  0001b	88 45 ff	 mov	 BYTE PTR $T195692[ebp], al
  0001e	8a 55 ff	 mov	 dl, BYTE PTR $T195692[ebp]
  00021	52		 push	 edx
  00022	8b 45 10	 mov	 eax, DWORD PTR __Al$[ebp]
  00025	50		 push	 eax
  00026	8b 4d 0c	 mov	 ecx, DWORD PTR __Last$[ebp]
  00029	51		 push	 ecx
  0002a	8b 55 08	 mov	 edx, DWORD PTR __First$[ebp]
  0002d	52		 push	 edx
  0002e	e8 00 00 00 00	 call	 ??$_Destroy_range@UOneLocalGame@@V?$allocator@UOneLocalGame@@@std@@@std@@YAXPAUOneLocalGame@@0AAV?$allocator@UOneLocalGame@@@0@U_Nonscalar_ptr_iterator_tag@0@@Z ; std::_Destroy_range<OneLocalGame,std::allocator<OneLocalGame> >
  00033	83 c4 10	 add	 esp, 16			; 00000010H

; 218  : 	}

  00036	83 c4 04	 add	 esp, 4
  00039	3b ec		 cmp	 ebp, esp
  0003b	e8 00 00 00 00	 call	 __RTC_CheckEsp
  00040	8b e5		 mov	 esp, ebp
  00042	5d		 pop	 ebp
  00043	c3		 ret	 0
??$_Destroy_range@UOneLocalGame@@V?$allocator@UOneLocalGame@@@std@@@std@@YAXPAUOneLocalGame@@0AAV?$allocator@UOneLocalGame@@@0@@Z ENDP ; std::_Destroy_range<OneLocalGame,std::allocator<OneLocalGame> >
; Function compile flags: /Odt /RTCsu
_TEXT	ENDS
;	COMDAT ??$_Allocate@UOneLocalGame@@@std@@YAPAUOneLocalGame@@IPAU1@@Z
_TEXT	SEGMENT
__Count$ = 8						; size = 4
___formal$ = 12						; size = 4
??$_Allocate@UOneLocalGame@@@std@@YAPAUOneLocalGame@@IPAU1@@Z PROC NEAR ; std::_Allocate<OneLocalGame>, COMDAT

; 33   : 	{	// allocate storage for _Count elements of type _Ty

  00000	55		 push	 ebp
  00001	8b ec		 mov	 ebp, esp

; 34   : 	return ((_Ty _FARQ *)operator new(_Count * sizeof (_Ty)));

  00003	8b 45 08	 mov	 eax, DWORD PTR __Count$[ebp]
  00006	69 c0 90 00 00
	00		 imul	 eax, 144		; 00000090H
  0000c	50		 push	 eax
  0000d	e8 00 00 00 00	 call	 ??2@YAPAXI@Z		; operator new
  00012	83 c4 04	 add	 esp, 4

; 35   : 	}

  00015	3b ec		 cmp	 ebp, esp
  00017	e8 00 00 00 00	 call	 __RTC_CheckEsp
  0001c	5d		 pop	 ebp
  0001d	c3		 ret	 0
??$_Allocate@UOneLocalGame@@@std@@YAPAUOneLocalGame@@IPAU1@@Z ENDP ; std::_Allocate<OneLocalGame>
; Function compile flags: /Odt /RTCsu
_TEXT	ENDS
;	COMDAT ??$_Allocate@H@std@@YAPAHIPAH@Z
_TEXT	SEGMENT
__Count$ = 8						; size = 4
___formal$ = 12						; size = 4
??$_Allocate@H@std@@YAPAHIPAH@Z PROC NEAR		; std::_Allocate<int>, COMDAT

; 33   : 	{	// allocate storage for _Count elements of type _Ty

  00000	55		 push	 ebp
  00001	8b ec		 mov	 ebp, esp

; 34   : 	return ((_Ty _FARQ *)operator new(_Count * sizeof (_Ty)));

  00003	8b 45 08	 mov	 eax, DWORD PTR __Count$[ebp]
  00006	c1 e0 02	 shl	 eax, 2
  00009	50		 push	 eax
  0000a	e8 00 00 00 00	 call	 ??2@YAPAXI@Z		; operator new
  0000f	83 c4 04	 add	 esp, 4

; 35   : 	}

  00012	3b ec		 cmp	 ebp, esp
  00014	e8 00 00 00 00	 call	 __RTC_CheckEsp
  00019	5d		 pop	 ebp
  0001a	c3		 ret	 0
??$_Allocate@H@std@@YAPAHIPAH@Z ENDP			; std::_Allocate<int>
_TEXT	ENDS
PUBLIC	??$_Destroy_range@V?$basic_string@DU?$char_traits@D@std@@V?$allocator@D@2@@std@@V?$allocator@V?$basic_string@DU?$char_traits@D@std@@V?$allocator@D@2@@std@@@2@@std@@YAXPAV?$basic_string@DU?$char_traits@D@std@@V?$allocator@D@2@@0@0AAV?$allocator@V?$basic_string@DU?$char_traits@D@std@@V?$allocator@D@2@@std@@@0@U_Nonscalar_ptr_iterator_tag@0@@Z ; std::_Destroy_range<std::basic_string<char,std::char_traits<char>,std::allocator<char> >,std::allocator<std::basic_string<char,std::char_traits<char>,std::allocator<char> > > >
; Function compile flags: /Odt /RTCsu
;	COMDAT ??$_Destroy_range@V?$basic_string@DU?$char_traits@D@std@@V?$allocator@D@2@@std@@V?$allocator@V?$basic_string@DU?$char_traits@D@std@@V?$allocator@D@2@@std@@@2@@std@@YAXPAV?$basic_string@DU?$char_traits@D@std@@V?$allocator@D@2@@0@0AAV?$allocator@V?$basic_string@DU?$char_traits@D@std@@V?$allocator@D@2@@std@@@0@@Z
_TEXT	SEGMENT
$T195696 = -1						; size = 1
__First$ = 8						; size = 4
__Last$ = 12						; size = 4
__Al$ = 16						; size = 4
??$_Destroy_range@V?$basic_string@DU?$char_traits@D@std@@V?$allocator@D@2@@std@@V?$allocator@V?$basic_string@DU?$char_traits@D@std@@V?$allocator@D@2@@std@@@2@@std@@YAXPAV?$basic_string@DU?$char_traits@D@std@@V?$allocator@D@2@@0@0AAV?$allocator@V?$basic_string@DU?$char_traits@D@std@@V?$allocator@D@2@@std@@@0@@Z PROC NEAR ; std::_Destroy_range<std::basic_string<char,std::char_traits<char>,std::allocator<char> >,std::allocator<std::basic_string<char,std::char_traits<char>,std::allocator<char> > > >, COMDAT

; 216  : 	{	// destroy [_First, _Last)

  00000	55		 push	 ebp
  00001	8b ec		 mov	 ebp, esp
  00003	51		 push	 ecx
  00004	c7 45 fc cc cc
	cc cc		 mov	 DWORD PTR [ebp-4], -858993460 ; ccccccccH

; 217  : 	_Destroy_range(_First, _Last, _Al, _Ptr_cat(_First, _Last));

  0000b	8d 45 0c	 lea	 eax, DWORD PTR __Last$[ebp]
  0000e	50		 push	 eax
  0000f	8d 4d 08	 lea	 ecx, DWORD PTR __First$[ebp]
  00012	51		 push	 ecx
  00013	e8 00 00 00 00	 call	 ??$_Ptr_cat@PAV?$basic_string@DU?$char_traits@D@std@@V?$allocator@D@2@@std@@PAV12@@std@@YA?AU_Nonscalar_ptr_iterator_tag@0@AAPAV?$basic_string@DU?$char_traits@D@std@@V?$allocator@D@2@@0@0@Z ; std::_Ptr_cat<std::basic_string<char,std::char_traits<char>,std::allocator<char> > *,std::basic_string<char,std::char_traits<char>,std::allocator<char> > *>
  00018	83 c4 08	 add	 esp, 8
  0001b	88 45 ff	 mov	 BYTE PTR $T195696[ebp], al
  0001e	8a 55 ff	 mov	 dl, BYTE PTR $T195696[ebp]
  00021	52		 push	 edx
  00022	8b 45 10	 mov	 eax, DWORD PTR __Al$[ebp]
  00025	50		 push	 eax
  00026	8b 4d 0c	 mov	 ecx, DWORD PTR __Last$[ebp]
  00029	51		 push	 ecx
  0002a	8b 55 08	 mov	 edx, DWORD PTR __First$[ebp]
  0002d	52		 push	 edx
  0002e	e8 00 00 00 00	 call	 ??$_Destroy_range@V?$basic_string@DU?$char_traits@D@std@@V?$allocator@D@2@@std@@V?$allocator@V?$basic_string@DU?$char_traits@D@std@@V?$allocator@D@2@@std@@@2@@std@@YAXPAV?$basic_string@DU?$char_traits@D@std@@V?$allocator@D@2@@0@0AAV?$allocator@V?$basic_string@DU?$char_traits@D@std@@V?$allocator@D@2@@std@@@0@U_Nonscalar_ptr_iterator_tag@0@@Z ; std::_Destroy_range<std::basic_string<char,std::char_traits<char>,std::allocator<char> >,std::allocator<std::basic_string<char,std::char_traits<char>,std::allocator<char> > > >
  00033	83 c4 10	 add	 esp, 16			; 00000010H

; 218  : 	}

  00036	83 c4 04	 add	 esp, 4
  00039	3b ec		 cmp	 ebp, esp
  0003b	e8 00 00 00 00	 call	 __RTC_CheckEsp
  00040	8b e5		 mov	 esp, ebp
  00042	5d		 pop	 ebp
  00043	c3		 ret	 0
??$_Destroy_range@V?$basic_string@DU?$char_traits@D@std@@V?$allocator@D@2@@std@@V?$allocator@V?$basic_string@DU?$char_traits@D@std@@V?$allocator@D@2@@std@@@2@@std@@YAXPAV?$basic_string@DU?$char_traits@D@std@@V?$allocator@D@2@@0@0AAV?$allocator@V?$basic_string@DU?$char_traits@D@std@@V?$allocator@D@2@@std@@@0@@Z ENDP ; std::_Destroy_range<std::basic_string<char,std::char_traits<char>,std::allocator<char> >,std::allocator<std::basic_string<char,std::char_traits<char>,std::allocator<char> > > >
_TEXT	ENDS
PUBLIC	??$_Uninitialized_copy@PAV?$basic_string@DU?$char_traits@D@std@@V?$allocator@D@2@@std@@PAV12@V?$allocator@V?$basic_string@DU?$char_traits@D@std@@V?$allocator@D@2@@std@@@2@@std@@YAPAV?$basic_string@DU?$char_traits@D@std@@V?$allocator@D@2@@0@PAV10@00AAV?$allocator@V?$basic_string@DU?$char_traits@D@std@@V?$allocator@D@2@@std@@@0@@Z ; std::_Uninitialized_copy<std::basic_string<char,std::char_traits<char>,std::allocator<char> > *,std::basic_string<char,std::char_traits<char>,std::allocator<char> > *,std::allocator<std::basic_string<char,std::char_traits<char>,std::allocator<char> > > >
; Function compile flags: /Odt /RTCsu
; File d:\program files (x86)\microsoft visual studio .net 2003\vc7\include\vector
;	COMDAT ??$_Ucopy@PAV?$basic_string@DU?$char_traits@D@std@@V?$allocator@D@2@@std@@@?$vector@V?$basic_string@DU?$char_traits@D@std@@V?$allocator@D@2@@std@@V?$allocator@V?$basic_string@DU?$char_traits@D@std@@V?$allocator@D@2@@std@@@2@@std@@IAEPAV?$basic_string@DU?$char_traits@D@std@@V?$allocator@D@2@@1@PAV21@00@Z
_TEXT	SEGMENT
_this$ = -4						; size = 4
__First$ = 8						; size = 4
__Last$ = 12						; size = 4
__Ptr$ = 16						; size = 4
??$_Ucopy@PAV?$basic_string@DU?$char_traits@D@std@@V?$allocator@D@2@@std@@@?$vector@V?$basic_string@DU?$char_traits@D@std@@V?$allocator@D@2@@std@@V?$allocator@V?$basic_string@DU?$char_traits@D@std@@V?$allocator@D@2@@std@@@2@@std@@IAEPAV?$basic_string@DU?$char_traits@D@std@@V?$allocator@D@2@@1@PAV21@00@Z PROC NEAR ; std::vector<std::basic_string<char,std::char_traits<char>,std::allocator<char> >,std::allocator<std::basic_string<char,std::char_traits<char>,std::allocator<char> > > >::_Ucopy<std::basic_string<char,std::char_traits<char>,std::allocator<char> > *>, COMDAT
; _this$ = ecx

; 801  : 		pointer _Ucopy(_Iter _First, _Iter _Last, pointer _Ptr)

  00000	55		 push	 ebp
  00001	8b ec		 mov	 ebp, esp
  00003	51		 push	 ecx
  00004	c7 45 fc cc cc
	cc cc		 mov	 DWORD PTR [ebp-4], -858993460 ; ccccccccH
  0000b	89 4d fc	 mov	 DWORD PTR _this$[ebp], ecx

; 802  : 		{	// copy initializing [_First, _Last), using allocator
; 803  : 		return (_Uninitialized_copy(_First, _Last,
; 804  : 			_Ptr, this->_Alval));

  0000e	8b 45 fc	 mov	 eax, DWORD PTR _this$[ebp]
  00011	50		 push	 eax
  00012	8b 4d 10	 mov	 ecx, DWORD PTR __Ptr$[ebp]
  00015	51		 push	 ecx
  00016	8b 55 0c	 mov	 edx, DWORD PTR __Last$[ebp]
  00019	52		 push	 edx
  0001a	8b 45 08	 mov	 eax, DWORD PTR __First$[ebp]
  0001d	50		 push	 eax
  0001e	e8 00 00 00 00	 call	 ??$_Uninitialized_copy@PAV?$basic_string@DU?$char_traits@D@std@@V?$allocator@D@2@@std@@PAV12@V?$allocator@V?$basic_string@DU?$char_traits@D@std@@V?$allocator@D@2@@std@@@2@@std@@YAPAV?$basic_string@DU?$char_traits@D@std@@V?$allocator@D@2@@0@PAV10@00AAV?$allocator@V?$basic_string@DU?$char_traits@D@std@@V?$allocator@D@2@@std@@@0@@Z ; std::_Uninitialized_copy<std::basic_string<char,std::char_traits<char>,std::allocator<char> > *,std::basic_string<char,std::char_traits<char>,std::allocator<char> > *,std::allocator<std::basic_string<char,std::char_traits<char>,std::allocator<char> > > >
  00023	83 c4 10	 add	 esp, 16			; 00000010H

; 805  : 		}

  00026	83 c4 04	 add	 esp, 4
  00029	3b ec		 cmp	 ebp, esp
  0002b	e8 00 00 00 00	 call	 __RTC_CheckEsp
  00030	8b e5		 mov	 esp, ebp
  00032	5d		 pop	 ebp
  00033	c2 0c 00	 ret	 12			; 0000000cH
??$_Ucopy@PAV?$basic_string@DU?$char_traits@D@std@@V?$allocator@D@2@@std@@@?$vector@V?$basic_string@DU?$char_traits@D@std@@V?$allocator@D@2@@std@@V?$allocator@V?$basic_string@DU?$char_traits@D@std@@V?$allocator@D@2@@std@@@2@@std@@IAEPAV?$basic_string@DU?$char_traits@D@std@@V?$allocator@D@2@@1@PAV21@00@Z ENDP ; std::vector<std::basic_string<char,std::char_traits<char>,std::allocator<char> >,std::allocator<std::basic_string<char,std::char_traits<char>,std::allocator<char> > > >::_Ucopy<std::basic_string<char,std::char_traits<char>,std::allocator<char> > *>
; Function compile flags: /Odt /RTCsu
; File d:\program files (x86)\microsoft visual studio .net 2003\vc7\include\xutility
_TEXT	ENDS
;	COMDAT ??$fill@PAV?$basic_string@DU?$char_traits@D@std@@V?$allocator@D@2@@std@@V12@@std@@YAXPAV?$basic_string@DU?$char_traits@D@std@@V?$allocator@D@2@@0@0ABV10@@Z
_TEXT	SEGMENT
__First$ = 8						; size = 4
__Last$ = 12						; size = 4
__Val$ = 16						; size = 4
??$fill@PAV?$basic_string@DU?$char_traits@D@std@@V?$allocator@D@2@@std@@V12@@std@@YAXPAV?$basic_string@DU?$char_traits@D@std@@V?$allocator@D@2@@0@0ABV10@@Z PROC NEAR ; std::fill<std::basic_string<char,std::char_traits<char>,std::allocator<char> > *,std::basic_string<char,std::char_traits<char>,std::allocator<char> > >, COMDAT

; 1134 : 	{	// copy _Val through [_First, _Last)

  00000	55		 push	 ebp
  00001	8b ec		 mov	 ebp, esp
  00003	56		 push	 esi

; 1135 : 	for (; _First != _Last; ++_First)

  00004	eb 09		 jmp	 SHORT $L194078
$L194079:
  00006	8b 45 08	 mov	 eax, DWORD PTR __First$[ebp]
  00009	83 c0 1c	 add	 eax, 28			; 0000001cH
  0000c	89 45 08	 mov	 DWORD PTR __First$[ebp], eax
$L194078:
  0000f	8b 4d 08	 mov	 ecx, DWORD PTR __First$[ebp]
  00012	3b 4d 0c	 cmp	 ecx, DWORD PTR __Last$[ebp]
  00015	74 18		 je	 SHORT $L194077

; 1136 : 		*_First = _Val;

  00017	8b f4		 mov	 esi, esp
  00019	8b 55 10	 mov	 edx, DWORD PTR __Val$[ebp]
  0001c	52		 push	 edx
  0001d	8b 4d 08	 mov	 ecx, DWORD PTR __First$[ebp]
  00020	ff 15 00 00 00
	00		 call	 DWORD PTR __imp_??4?$basic_string@DU?$char_traits@D@std@@V?$allocator@D@2@@std@@QAEAAV01@ABV01@@Z
  00026	3b f4		 cmp	 esi, esp
  00028	e8 00 00 00 00	 call	 __RTC_CheckEsp
  0002d	eb d7		 jmp	 SHORT $L194079
$L194077:

; 1137 : 	}

  0002f	5e		 pop	 esi
  00030	3b ec		 cmp	 ebp, esp
  00032	e8 00 00 00 00	 call	 __RTC_CheckEsp
  00037	5d		 pop	 ebp
  00038	c3		 ret	 0
??$fill@PAV?$basic_string@DU?$char_traits@D@std@@V?$allocator@D@2@@std@@V12@@std@@YAXPAV?$basic_string@DU?$char_traits@D@std@@V?$allocator@D@2@@0@0ABV10@@Z ENDP ; std::fill<std::basic_string<char,std::char_traits<char>,std::allocator<char> > *,std::basic_string<char,std::char_traits<char>,std::allocator<char> > >
_TEXT	ENDS
PUBLIC	??$_Copy_backward_opt@PAV?$basic_string@DU?$char_traits@D@std@@V?$allocator@D@2@@std@@PAV12@@std@@YAPAV?$basic_string@DU?$char_traits@D@std@@V?$allocator@D@2@@0@PAV10@00U_Nonscalar_ptr_iterator_tag@0@@Z ; std::_Copy_backward_opt<std::basic_string<char,std::char_traits<char>,std::allocator<char> > *,std::basic_string<char,std::char_traits<char>,std::allocator<char> > *>
; Function compile flags: /Odt /RTCsu
;	COMDAT ??$copy_backward@PAV?$basic_string@DU?$char_traits@D@std@@V?$allocator@D@2@@std@@PAV12@@std@@YAPAV?$basic_string@DU?$char_traits@D@std@@V?$allocator@D@2@@0@PAV10@00@Z
_TEXT	SEGMENT
$T195700 = -1						; size = 1
__First$ = 8						; size = 4
__Last$ = 12						; size = 4
__Dest$ = 16						; size = 4
??$copy_backward@PAV?$basic_string@DU?$char_traits@D@std@@V?$allocator@D@2@@std@@PAV12@@std@@YAPAV?$basic_string@DU?$char_traits@D@std@@V?$allocator@D@2@@0@PAV10@00@Z PROC NEAR ; std::copy_backward<std::basic_string<char,std::char_traits<char>,std::allocator<char> > *,std::basic_string<char,std::char_traits<char>,std::allocator<char> > *>, COMDAT

; 1067 : 	{	// copy [_First, _Last) backwards to [..., _Dest)

  00000	55		 push	 ebp
  00001	8b ec		 mov	 ebp, esp
  00003	51		 push	 ecx
  00004	c7 45 fc cc cc
	cc cc		 mov	 DWORD PTR [ebp-4], -858993460 ; ccccccccH

; 1068 : 	return (_Copy_backward_opt(_First, _Last, _Dest,
; 1069 : 		_Ptr_cat(_First, _Dest)));

  0000b	8d 45 10	 lea	 eax, DWORD PTR __Dest$[ebp]
  0000e	50		 push	 eax
  0000f	8d 4d 08	 lea	 ecx, DWORD PTR __First$[ebp]
  00012	51		 push	 ecx
  00013	e8 00 00 00 00	 call	 ??$_Ptr_cat@PAV?$basic_string@DU?$char_traits@D@std@@V?$allocator@D@2@@std@@PAV12@@std@@YA?AU_Nonscalar_ptr_iterator_tag@0@AAPAV?$basic_string@DU?$char_traits@D@std@@V?$allocator@D@2@@0@0@Z ; std::_Ptr_cat<std::basic_string<char,std::char_traits<char>,std::allocator<char> > *,std::basic_string<char,std::char_traits<char>,std::allocator<char> > *>
  00018	83 c4 08	 add	 esp, 8
  0001b	88 45 ff	 mov	 BYTE PTR $T195700[ebp], al
  0001e	8a 55 ff	 mov	 dl, BYTE PTR $T195700[ebp]
  00021	52		 push	 edx
  00022	8b 45 10	 mov	 eax, DWORD PTR __Dest$[ebp]
  00025	50		 push	 eax
  00026	8b 4d 0c	 mov	 ecx, DWORD PTR __Last$[ebp]
  00029	51		 push	 ecx
  0002a	8b 55 08	 mov	 edx, DWORD PTR __First$[ebp]
  0002d	52		 push	 edx
  0002e	e8 00 00 00 00	 call	 ??$_Copy_backward_opt@PAV?$basic_string@DU?$char_traits@D@std@@V?$allocator@D@2@@std@@PAV12@@std@@YAPAV?$basic_string@DU?$char_traits@D@std@@V?$allocator@D@2@@0@PAV10@00U_Nonscalar_ptr_iterator_tag@0@@Z ; std::_Copy_backward_opt<std::basic_string<char,std::char_traits<char>,std::allocator<char> > *,std::basic_string<char,std::char_traits<char>,std::allocator<char> > *>
  00033	83 c4 10	 add	 esp, 16			; 00000010H

; 1070 : 	}

  00036	83 c4 04	 add	 esp, 4
  00039	3b ec		 cmp	 ebp, esp
  0003b	e8 00 00 00 00	 call	 __RTC_CheckEsp
  00040	8b e5		 mov	 esp, ebp
  00042	5d		 pop	 ebp
  00043	c3		 ret	 0
??$copy_backward@PAV?$basic_string@DU?$char_traits@D@std@@V?$allocator@D@2@@std@@PAV12@@std@@YAPAV?$basic_string@DU?$char_traits@D@std@@V?$allocator@D@2@@0@PAV10@00@Z ENDP ; std::copy_backward<std::basic_string<char,std::char_traits<char>,std::allocator<char> > *,std::basic_string<char,std::char_traits<char>,std::allocator<char> > *>
_TEXT	ENDS
EXTRN	__imp__memmove:NEAR
; Function compile flags: /Odt /RTCsu
;	COMDAT ??$_Copy_opt@PAHPAH@std@@YAPAHPAH00U_Scalar_ptr_iterator_tag@0@@Z
_TEXT	SEGMENT
__Off$ = -4						; size = 4
__First$ = 8						; size = 4
__Last$ = 12						; size = 4
__Dest$ = 16						; size = 4
___formal$ = 20						; size = 1
??$_Copy_opt@PAHPAH@std@@YAPAHPAH00U_Scalar_ptr_iterator_tag@0@@Z PROC NEAR ; std::_Copy_opt<int *,int *>, COMDAT

; 1030 : 	{	// copy [_First, _Last) to [_Dest, ...), pointers to scalars

  00000	55		 push	 ebp
  00001	8b ec		 mov	 ebp, esp
  00003	51		 push	 ecx
  00004	56		 push	 esi
  00005	c7 45 fc cc cc
	cc cc		 mov	 DWORD PTR [ebp-4], -858993460 ; ccccccccH

; 1031 : 	ptrdiff_t _Off = _Last - _First;	// NB: non-overlapping move

  0000c	8b 45 0c	 mov	 eax, DWORD PTR __Last$[ebp]
  0000f	2b 45 08	 sub	 eax, DWORD PTR __First$[ebp]
  00012	c1 f8 02	 sar	 eax, 2
  00015	89 45 fc	 mov	 DWORD PTR __Off$[ebp], eax

; 1032 : 	return ((_OutIt)::memmove(&*_Dest, &*_First,
; 1033 : 		_Off * sizeof (*_First)) + _Off);

  00018	8b 4d fc	 mov	 ecx, DWORD PTR __Off$[ebp]
  0001b	c1 e1 02	 shl	 ecx, 2
  0001e	8b f4		 mov	 esi, esp
  00020	51		 push	 ecx
  00021	8b 55 08	 mov	 edx, DWORD PTR __First$[ebp]
  00024	52		 push	 edx
  00025	8b 45 10	 mov	 eax, DWORD PTR __Dest$[ebp]
  00028	50		 push	 eax
  00029	ff 15 00 00 00
	00		 call	 DWORD PTR __imp__memmove
  0002f	83 c4 0c	 add	 esp, 12			; 0000000cH
  00032	3b f4		 cmp	 esi, esp
  00034	e8 00 00 00 00	 call	 __RTC_CheckEsp
  00039	8b 4d fc	 mov	 ecx, DWORD PTR __Off$[ebp]
  0003c	8d 04 88	 lea	 eax, DWORD PTR [eax+ecx*4]

; 1034 : 	}

  0003f	5e		 pop	 esi
  00040	83 c4 04	 add	 esp, 4
  00043	3b ec		 cmp	 ebp, esp
  00045	e8 00 00 00 00	 call	 __RTC_CheckEsp
  0004a	8b e5		 mov	 esp, ebp
  0004c	5d		 pop	 ebp
  0004d	c3		 ret	 0
??$_Copy_opt@PAHPAH@std@@YAPAHPAH00U_Scalar_ptr_iterator_tag@0@@Z ENDP ; std::_Copy_opt<int *,int *>
_TEXT	ENDS
PUBLIC	??$_Uninit_copy@HH@std@@YAPAHPAH00AAV?$allocator@H@0@U_Scalar_ptr_iterator_tag@0@@Z ; std::_Uninit_copy<int,int>
; Function compile flags: /Odt /RTCsu
; File d:\program files (x86)\microsoft visual studio .net 2003\vc7\include\memory
;	COMDAT ??$_Uninitialized_copy@PAHPAHV?$allocator@H@std@@@std@@YAPAHPAH00AAV?$allocator@H@0@@Z
_TEXT	SEGMENT
$T195703 = -1						; size = 1
__First$ = 8						; size = 4
__Last$ = 12						; size = 4
__Dest$ = 16						; size = 4
__Al$ = 20						; size = 4
??$_Uninitialized_copy@PAHPAHV?$allocator@H@std@@@std@@YAPAHPAH00AAV?$allocator@H@0@@Z PROC NEAR ; std::_Uninitialized_copy<int *,int *,std::allocator<int> >, COMDAT

; 126  : 	{	// copy [_First, _Last) to raw _Dest, using _Al

  00000	55		 push	 ebp
  00001	8b ec		 mov	 ebp, esp
  00003	51		 push	 ecx
  00004	c7 45 fc cc cc
	cc cc		 mov	 DWORD PTR [ebp-4], -858993460 ; ccccccccH

; 127  : 	return (_Uninit_copy(_First, _Last, _Dest, _Al,
; 128  : 		_Ptr_cat(_First, _Dest)));

  0000b	8b 45 10	 mov	 eax, DWORD PTR __Dest$[ebp]
  0000e	50		 push	 eax
  0000f	8b 4d 08	 mov	 ecx, DWORD PTR __First$[ebp]
  00012	51		 push	 ecx
  00013	e8 00 00 00 00	 call	 ?_Ptr_cat@std@@YA?AU_Scalar_ptr_iterator_tag@1@PAH0@Z ; std::_Ptr_cat
  00018	83 c4 08	 add	 esp, 8
  0001b	88 45 ff	 mov	 BYTE PTR $T195703[ebp], al
  0001e	8a 55 ff	 mov	 dl, BYTE PTR $T195703[ebp]
  00021	52		 push	 edx
  00022	8b 45 14	 mov	 eax, DWORD PTR __Al$[ebp]
  00025	50		 push	 eax
  00026	8b 4d 10	 mov	 ecx, DWORD PTR __Dest$[ebp]
  00029	51		 push	 ecx
  0002a	8b 55 0c	 mov	 edx, DWORD PTR __Last$[ebp]
  0002d	52		 push	 edx
  0002e	8b 45 08	 mov	 eax, DWORD PTR __First$[ebp]
  00031	50		 push	 eax
  00032	e8 00 00 00 00	 call	 ??$_Uninit_copy@HH@std@@YAPAHPAH00AAV?$allocator@H@0@U_Scalar_ptr_iterator_tag@0@@Z ; std::_Uninit_copy<int,int>
  00037	83 c4 14	 add	 esp, 20			; 00000014H

; 129  : 	}

  0003a	83 c4 04	 add	 esp, 4
  0003d	3b ec		 cmp	 ebp, esp
  0003f	e8 00 00 00 00	 call	 __RTC_CheckEsp
  00044	8b e5		 mov	 esp, ebp
  00046	5d		 pop	 ebp
  00047	c3		 ret	 0
??$_Uninitialized_copy@PAHPAHV?$allocator@H@std@@@std@@YAPAHPAH00AAV?$allocator@H@0@@Z ENDP ; std::_Uninitialized_copy<int *,int *,std::allocator<int> >
; Function compile flags: /Odt /RTCsu
; File d:\program files (x86)\microsoft visual studio .net 2003\vc7\include\xmemory
_TEXT	ENDS
;	COMDAT ??$_Destroy_range@HV?$allocator@H@std@@@std@@YAXPAH0AAV?$allocator@H@0@U_Scalar_ptr_iterator_tag@0@@Z
_TEXT	SEGMENT
__First$ = 8						; size = 4
__Last$ = 12						; size = 4
__Al$ = 16						; size = 4
___formal$ = 20						; size = 1
??$_Destroy_range@HV?$allocator@H@std@@@std@@YAXPAH0AAV?$allocator@H@0@U_Scalar_ptr_iterator_tag@0@@Z PROC NEAR ; std::_Destroy_range<int,std::allocator<int> >, COMDAT

; 233  : 	{	// destroy [_First, _Last), scalar type (do nothing)

  00000	55		 push	 ebp
  00001	8b ec		 mov	 ebp, esp

; 234  : 	}

  00003	5d		 pop	 ebp
  00004	c3		 ret	 0
??$_Destroy_range@HV?$allocator@H@std@@@std@@YAXPAH0AAV?$allocator@H@0@U_Scalar_ptr_iterator_tag@0@@Z ENDP ; std::_Destroy_range<int,std::allocator<int> >
; Function compile flags: /Odt /RTCsu
; File d:\program files (x86)\microsoft visual studio .net 2003\vc7\include\xutility
_TEXT	ENDS
;	COMDAT ??$_Ptr_cat@PAV?$basic_string@DU?$char_traits@D@std@@V?$allocator@D@2@@std@@PAV12@@std@@YA?AU_Nonscalar_ptr_iterator_tag@0@AAPAV?$basic_string@DU?$char_traits@D@std@@V?$allocator@D@2@@0@0@Z
_TEXT	SEGMENT
__Cat$ = -5						; size = 1
___formal$ = 8						; size = 4
___formal$ = 12						; size = 4
??$_Ptr_cat@PAV?$basic_string@DU?$char_traits@D@std@@V?$allocator@D@2@@std@@PAV12@@std@@YA?AU_Nonscalar_ptr_iterator_tag@0@AAPAV?$basic_string@DU?$char_traits@D@std@@V?$allocator@D@2@@0@0@Z PROC NEAR ; std::_Ptr_cat<std::basic_string<char,std::char_traits<char>,std::allocator<char> > *,std::basic_string<char,std::char_traits<char>,std::allocator<char> > *>, COMDAT

; 211  : 	{	// return pointer category from arbitrary arguments

  00000	55		 push	 ebp
  00001	8b ec		 mov	 ebp, esp
  00003	83 ec 0c	 sub	 esp, 12			; 0000000cH
  00006	c7 45 f4 cc cc
	cc cc		 mov	 DWORD PTR [ebp-12], -858993460 ; ccccccccH
  0000d	c7 45 f8 cc cc
	cc cc		 mov	 DWORD PTR [ebp-8], -858993460 ; ccccccccH
  00014	c7 45 fc cc cc
	cc cc		 mov	 DWORD PTR [ebp-4], -858993460 ; ccccccccH

; 212  : 	_Nonscalar_ptr_iterator_tag _Cat;
; 213  : 	return (_Cat);

  0001b	8a 45 fb	 mov	 al, BYTE PTR __Cat$[ebp]

; 214  : 	}

  0001e	52		 push	 edx
  0001f	8b cd		 mov	 ecx, ebp
  00021	50		 push	 eax
  00022	8d 15 00 00 00
	00		 lea	 edx, DWORD PTR $L195708
  00028	e8 00 00 00 00	 call	 @_RTC_CheckStackVars@8
  0002d	58		 pop	 eax
  0002e	5a		 pop	 edx
  0002f	8b e5		 mov	 esp, ebp
  00031	5d		 pop	 ebp
  00032	c3		 ret	 0
$L195708:
  00033	01 00 00 00	 DD	 1
  00037	00 00 00 00	 DD	 $L195707
$L195707:
  0003b	fb ff ff ff	 DD	 -5			; fffffffbH
  0003f	01 00 00 00	 DD	 1
  00043	00 00 00 00	 DD	 $L195706
$L195706:
  00047	5f		 DB	 95			; 0000005fH
  00048	43		 DB	 67			; 00000043H
  00049	61		 DB	 97			; 00000061H
  0004a	74		 DB	 116			; 00000074H
  0004b	00		 DB	 0
??$_Ptr_cat@PAV?$basic_string@DU?$char_traits@D@std@@V?$allocator@D@2@@std@@PAV12@@std@@YA?AU_Nonscalar_ptr_iterator_tag@0@AAPAV?$basic_string@DU?$char_traits@D@std@@V?$allocator@D@2@@0@0@Z ENDP ; std::_Ptr_cat<std::basic_string<char,std::char_traits<char>,std::allocator<char> > *,std::basic_string<char,std::char_traits<char>,std::allocator<char> > *>
_TEXT	ENDS
PUBLIC	?construct@?$allocator@V?$basic_string@DU?$char_traits@D@std@@V?$allocator@D@2@@std@@@std@@QAEXPAV?$basic_string@DU?$char_traits@D@std@@V?$allocator@D@2@@2@ABV32@@Z ; std::allocator<std::basic_string<char,std::char_traits<char>,std::allocator<char> > >::construct
PUBLIC	?destroy@?$allocator@V?$basic_string@DU?$char_traits@D@std@@V?$allocator@D@2@@std@@@std@@QAEXPAV?$basic_string@DU?$char_traits@D@std@@V?$allocator@D@2@@2@@Z ; std::allocator<std::basic_string<char,std::char_traits<char>,std::allocator<char> > >::destroy
;	COMDAT xdata$x
; File d:\program files (x86)\microsoft visual studio .net 2003\vc7\include\memory
xdata$x	SEGMENT
$T195715 DD	0ffffffffH
	DD	00H
	DD	0ffffffffH
	DD	00H
$T195717 DD	00H
	DD	00H
	DD	00H
	DD	FLAT:$L195711
$T195716 DD	00H
	DD	00H
	DD	01H
	DD	01H
	DD	FLAT:$T195717
$T195713 DD	019930520H
	DD	02H
	DD	FLAT:$T195715
	DD	01H
	DD	FLAT:$T195716
	DD	2 DUP(00H)
; Function compile flags: /Odt /RTCsu
xdata$x	ENDS
;	COMDAT ??$_Uninit_fill_n@PAV?$basic_string@DU?$char_traits@D@std@@V?$allocator@D@2@@std@@IV12@V?$allocator@V?$basic_string@DU?$char_traits@D@std@@V?$allocator@D@2@@std@@@2@@std@@YAXPAV?$basic_string@DU?$char_traits@D@std@@V?$allocator@D@2@@0@IABV10@AAV?$allocator@V?$basic_string@DU?$char_traits@D@std@@V?$allocator@D@2@@std@@@0@U_Nonscalar_ptr_iterator_tag@0@@Z
_TEXT	SEGMENT
__Next$ = -20						; size = 4
__$EHRec$ = -16						; size = 16
__First$ = 8						; size = 4
__Count$ = 12						; size = 4
__Val$ = 16						; size = 4
__Al$ = 20						; size = 4
___formal$ = 24						; size = 1
??$_Uninit_fill_n@PAV?$basic_string@DU?$char_traits@D@std@@V?$allocator@D@2@@std@@IV12@V?$allocator@V?$basic_string@DU?$char_traits@D@std@@V?$allocator@D@2@@std@@@2@@std@@YAXPAV?$basic_string@DU?$char_traits@D@std@@V?$allocator@D@2@@0@IABV10@AAV?$allocator@V?$basic_string@DU?$char_traits@D@std@@V?$allocator@D@2@@std@@@0@U_Nonscalar_ptr_iterator_tag@0@@Z PROC NEAR ; std::_Uninit_fill_n<std::basic_string<char,std::char_traits<char>,std::allocator<char> > *,unsigned int,std::basic_string<char,std::char_traits<char>,std::allocator<char> >,std::allocator<std::basic_string<char,std::char_traits<char>,std::allocator<char> > > >, COMDAT

; 207  : 	{	// copy _Count *_Val to raw _First, using _Al, arbitrary type

  00000	55		 push	 ebp
  00001	8b ec		 mov	 ebp, esp
  00003	6a ff		 push	 -1
  00005	68 00 00 00 00	 push	 __ehhandler$??$_Uninit_fill_n@PAV?$basic_string@DU?$char_traits@D@std@@V?$allocator@D@2@@std@@IV12@V?$allocator@V?$basic_string@DU?$char_traits@D@std@@V?$allocator@D@2@@std@@@2@@std@@YAXPAV?$basic_string@DU?$char_traits@D@std@@V?$allocator@D@2@@0@IABV10@AAV?$allocator@V?$basic_string@DU?$char_traits@D@std@@V?$allocator@D@2@@std@@@0@U_Nonscalar_ptr_iterator_tag@0@@Z
  0000a	64 a1 00 00 00
	00		 mov	 eax, DWORD PTR fs:__except_list
  00010	50		 push	 eax
  00011	64 89 25 00 00
	00 00		 mov	 DWORD PTR fs:__except_list, esp
  00018	51		 push	 ecx
  00019	51		 push	 ecx
  0001a	53		 push	 ebx
  0001b	56		 push	 esi
  0001c	57		 push	 edi
  0001d	c7 45 ec cc cc
	cc cc		 mov	 DWORD PTR [ebp-20], -858993460 ; ccccccccH
  00024	89 65 f0	 mov	 DWORD PTR __$EHRec$[ebp], esp

; 208  : 	_FwdIt _Next = _First;

  00027	8b 45 08	 mov	 eax, DWORD PTR __First$[ebp]
  0002a	89 45 ec	 mov	 DWORD PTR __Next$[ebp], eax

; 209  : 
; 210  : 	_TRY_BEGIN

  0002d	c7 45 fc 00 00
	00 00		 mov	 DWORD PTR __$EHRec$[ebp+12], 0

; 211  : 	for (; 0 < _Count; --_Count, ++_First)

  00034	eb 12		 jmp	 SHORT $L194326
$L194327:
  00036	8b 4d 0c	 mov	 ecx, DWORD PTR __Count$[ebp]
  00039	83 e9 01	 sub	 ecx, 1
  0003c	89 4d 0c	 mov	 DWORD PTR __Count$[ebp], ecx
  0003f	8b 55 08	 mov	 edx, DWORD PTR __First$[ebp]
  00042	83 c2 1c	 add	 edx, 28			; 0000001cH
  00045	89 55 08	 mov	 DWORD PTR __First$[ebp], edx
$L194326:
  00048	83 7d 0c 00	 cmp	 DWORD PTR __Count$[ebp], 0
  0004c	76 12		 jbe	 SHORT $L194328

; 212  : 		_Al.construct(_First, _Val);

  0004e	8b 45 10	 mov	 eax, DWORD PTR __Val$[ebp]
  00051	50		 push	 eax
  00052	8b 4d 08	 mov	 ecx, DWORD PTR __First$[ebp]
  00055	51		 push	 ecx
  00056	8b 4d 14	 mov	 ecx, DWORD PTR __Al$[ebp]
  00059	e8 00 00 00 00	 call	 ?construct@?$allocator@V?$basic_string@DU?$char_traits@D@std@@V?$allocator@D@2@@std@@@std@@QAEXPAV?$basic_string@DU?$char_traits@D@std@@V?$allocator@D@2@@2@ABV32@@Z ; std::allocator<std::basic_string<char,std::char_traits<char>,std::allocator<char> > >::construct
  0005e	eb d6		 jmp	 SHORT $L194327
$L194328:
  00060	eb 2a		 jmp	 SHORT $L195710
$L195711:

; 213  : 	_CATCH_ALL
; 214  : 	for (; _Next != _First; ++_Next)

  00062	eb 09		 jmp	 SHORT $L194329
$L194330:
  00064	8b 55 ec	 mov	 edx, DWORD PTR __Next$[ebp]
  00067	83 c2 1c	 add	 edx, 28			; 0000001cH
  0006a	89 55 ec	 mov	 DWORD PTR __Next$[ebp], edx
$L194329:
  0006d	8b 45 ec	 mov	 eax, DWORD PTR __Next$[ebp]
  00070	3b 45 08	 cmp	 eax, DWORD PTR __First$[ebp]
  00073	74 0e		 je	 SHORT $L194331

; 215  : 		_Al.destroy(_Next);

  00075	8b 4d ec	 mov	 ecx, DWORD PTR __Next$[ebp]
  00078	51		 push	 ecx
  00079	8b 4d 14	 mov	 ecx, DWORD PTR __Al$[ebp]
  0007c	e8 00 00 00 00	 call	 ?destroy@?$allocator@V?$basic_string@DU?$char_traits@D@std@@V?$allocator@D@2@@std@@@std@@QAEXPAV?$basic_string@DU?$char_traits@D@std@@V?$allocator@D@2@@2@@Z ; std::allocator<std::basic_string<char,std::char_traits<char>,std::allocator<char> > >::destroy
  00081	eb e1		 jmp	 SHORT $L194330
$L194331:

; 216  : 	_RERAISE;

  00083	6a 00		 push	 0
  00085	6a 00		 push	 0
  00087	e8 00 00 00 00	 call	 __CxxThrowException@8
$L195710:

; 217  : 	_CATCH_END

  0008c	c7 45 fc ff ff
	ff ff		 mov	 DWORD PTR __$EHRec$[ebp+12], -1
$L195709:

; 218  : 	}

  00093	8b 4d f4	 mov	 ecx, DWORD PTR __$EHRec$[ebp+4]
  00096	64 89 0d 00 00
	00 00		 mov	 DWORD PTR fs:__except_list, ecx
  0009d	5f		 pop	 edi
  0009e	5e		 pop	 esi
  0009f	5b		 pop	 ebx
  000a0	83 c4 14	 add	 esp, 20			; 00000014H
  000a3	3b ec		 cmp	 ebp, esp
  000a5	e8 00 00 00 00	 call	 __RTC_CheckEsp
  000aa	8b e5		 mov	 esp, ebp
  000ac	5d		 pop	 ebp
  000ad	c3		 ret	 0
_TEXT	ENDS
;	COMDAT text$x
text$x	SEGMENT
__ehhandler$??$_Uninit_fill_n@PAV?$basic_string@DU?$char_traits@D@std@@V?$allocator@D@2@@std@@IV12@V?$allocator@V?$basic_string@DU?$char_traits@D@std@@V?$allocator@D@2@@std@@@2@@std@@YAXPAV?$basic_string@DU?$char_traits@D@std@@V?$allocator@D@2@@0@IABV10@AAV?$allocator@V?$basic_string@DU?$char_traits@D@std@@V?$allocator@D@2@@std@@@0@U_Nonscalar_ptr_iterator_tag@0@@Z:
  00000	b8 00 00 00 00	 mov	 eax, OFFSET FLAT:$T195713
  00005	e9 00 00 00 00	 jmp	 ___CxxFrameHandler
text$x	ENDS
??$_Uninit_fill_n@PAV?$basic_string@DU?$char_traits@D@std@@V?$allocator@D@2@@std@@IV12@V?$allocator@V?$basic_string@DU?$char_traits@D@std@@V?$allocator@D@2@@std@@@2@@std@@YAXPAV?$basic_string@DU?$char_traits@D@std@@V?$allocator@D@2@@0@IABV10@AAV?$allocator@V?$basic_string@DU?$char_traits@D@std@@V?$allocator@D@2@@std@@@0@U_Nonscalar_ptr_iterator_tag@0@@Z ENDP ; std::_Uninit_fill_n<std::basic_string<char,std::char_traits<char>,std::allocator<char> > *,unsigned int,std::basic_string<char,std::char_traits<char>,std::allocator<char> >,std::allocator<std::basic_string<char,std::char_traits<char>,std::allocator<char> > > >
; Function compile flags: /Odt /RTCsu
; File d:\program files (x86)\microsoft visual studio .net 2003\vc7\include\xutility
;	COMDAT ??$_Ptr_cat@PAUOneLocalGame@@PAU1@@std@@YA?AU_Nonscalar_ptr_iterator_tag@0@AAPAUOneLocalGame@@0@Z
_TEXT	SEGMENT
__Cat$ = -5						; size = 1
___formal$ = 8						; size = 4
___formal$ = 12						; size = 4
??$_Ptr_cat@PAUOneLocalGame@@PAU1@@std@@YA?AU_Nonscalar_ptr_iterator_tag@0@AAPAUOneLocalGame@@0@Z PROC NEAR ; std::_Ptr_cat<OneLocalGame *,OneLocalGame *>, COMDAT

; 211  : 	{	// return pointer category from arbitrary arguments

  00000	55		 push	 ebp
  00001	8b ec		 mov	 ebp, esp
  00003	83 ec 0c	 sub	 esp, 12			; 0000000cH
  00006	c7 45 f4 cc cc
	cc cc		 mov	 DWORD PTR [ebp-12], -858993460 ; ccccccccH
  0000d	c7 45 f8 cc cc
	cc cc		 mov	 DWORD PTR [ebp-8], -858993460 ; ccccccccH
  00014	c7 45 fc cc cc
	cc cc		 mov	 DWORD PTR [ebp-4], -858993460 ; ccccccccH

; 212  : 	_Nonscalar_ptr_iterator_tag _Cat;
; 213  : 	return (_Cat);

  0001b	8a 45 fb	 mov	 al, BYTE PTR __Cat$[ebp]

; 214  : 	}

  0001e	52		 push	 edx
  0001f	8b cd		 mov	 ecx, ebp
  00021	50		 push	 eax
  00022	8d 15 00 00 00
	00		 lea	 edx, DWORD PTR $L195723
  00028	e8 00 00 00 00	 call	 @_RTC_CheckStackVars@8
  0002d	58		 pop	 eax
  0002e	5a		 pop	 edx
  0002f	8b e5		 mov	 esp, ebp
  00031	5d		 pop	 ebp
  00032	c3		 ret	 0
$L195723:
  00033	01 00 00 00	 DD	 1
  00037	00 00 00 00	 DD	 $L195722
$L195722:
  0003b	fb ff ff ff	 DD	 -5			; fffffffbH
  0003f	01 00 00 00	 DD	 1
  00043	00 00 00 00	 DD	 $L195721
$L195721:
  00047	5f		 DB	 95			; 0000005fH
  00048	43		 DB	 67			; 00000043H
  00049	61		 DB	 97			; 00000061H
  0004a	74		 DB	 116			; 00000074H
  0004b	00		 DB	 0
??$_Ptr_cat@PAUOneLocalGame@@PAU1@@std@@YA?AU_Nonscalar_ptr_iterator_tag@0@AAPAUOneLocalGame@@0@Z ENDP ; std::_Ptr_cat<OneLocalGame *,OneLocalGame *>
_TEXT	ENDS
PUBLIC	?destroy@?$allocator@UOneLocalGame@@@std@@QAEXPAUOneLocalGame@@@Z ; std::allocator<OneLocalGame>::destroy
; Function compile flags: /Odt /RTCsu
; File d:\program files (x86)\microsoft visual studio .net 2003\vc7\include\xmemory
;	COMDAT ??$_Destroy_range@UOneLocalGame@@V?$allocator@UOneLocalGame@@@std@@@std@@YAXPAUOneLocalGame@@0AAV?$allocator@UOneLocalGame@@@0@U_Nonscalar_ptr_iterator_tag@0@@Z
_TEXT	SEGMENT
__First$ = 8						; size = 4
__Last$ = 12						; size = 4
__Al$ = 16						; size = 4
___formal$ = 20						; size = 1
??$_Destroy_range@UOneLocalGame@@V?$allocator@UOneLocalGame@@@std@@@std@@YAXPAUOneLocalGame@@0AAV?$allocator@UOneLocalGame@@@0@U_Nonscalar_ptr_iterator_tag@0@@Z PROC NEAR ; std::_Destroy_range<OneLocalGame,std::allocator<OneLocalGame> >, COMDAT

; 224  : 	{	// destroy [_First, _Last), arbitrary type

  00000	55		 push	 ebp
  00001	8b ec		 mov	 ebp, esp

; 225  : 	for (; _First != _Last; ++_First)

  00003	eb 0b		 jmp	 SHORT $L194335
$L194336:
  00005	8b 45 08	 mov	 eax, DWORD PTR __First$[ebp]
  00008	05 90 00 00 00	 add	 eax, 144		; 00000090H
  0000d	89 45 08	 mov	 DWORD PTR __First$[ebp], eax
$L194335:
  00010	8b 4d 08	 mov	 ecx, DWORD PTR __First$[ebp]
  00013	3b 4d 0c	 cmp	 ecx, DWORD PTR __Last$[ebp]
  00016	74 0e		 je	 SHORT $L194334

; 226  : 		_Al.destroy(_First);

  00018	8b 55 08	 mov	 edx, DWORD PTR __First$[ebp]
  0001b	52		 push	 edx
  0001c	8b 4d 10	 mov	 ecx, DWORD PTR __Al$[ebp]
  0001f	e8 00 00 00 00	 call	 ?destroy@?$allocator@UOneLocalGame@@@std@@QAEXPAUOneLocalGame@@@Z ; std::allocator<OneLocalGame>::destroy
  00024	eb df		 jmp	 SHORT $L194336
$L194334:

; 227  : 	}

  00026	3b ec		 cmp	 ebp, esp
  00028	e8 00 00 00 00	 call	 __RTC_CheckEsp
  0002d	5d		 pop	 ebp
  0002e	c3		 ret	 0
??$_Destroy_range@UOneLocalGame@@V?$allocator@UOneLocalGame@@@std@@@std@@YAXPAUOneLocalGame@@0AAV?$allocator@UOneLocalGame@@@0@U_Nonscalar_ptr_iterator_tag@0@@Z ENDP ; std::_Destroy_range<OneLocalGame,std::allocator<OneLocalGame> >
; Function compile flags: /Odt /RTCsu
_TEXT	ENDS
;	COMDAT ??$_Destroy_range@V?$basic_string@DU?$char_traits@D@std@@V?$allocator@D@2@@std@@V?$allocator@V?$basic_string@DU?$char_traits@D@std@@V?$allocator@D@2@@std@@@2@@std@@YAXPAV?$basic_string@DU?$char_traits@D@std@@V?$allocator@D@2@@0@0AAV?$allocator@V?$basic_string@DU?$char_traits@D@std@@V?$allocator@D@2@@std@@@0@U_Nonscalar_ptr_iterator_tag@0@@Z
_TEXT	SEGMENT
__First$ = 8						; size = 4
__Last$ = 12						; size = 4
__Al$ = 16						; size = 4
___formal$ = 20						; size = 1
??$_Destroy_range@V?$basic_string@DU?$char_traits@D@std@@V?$allocator@D@2@@std@@V?$allocator@V?$basic_string@DU?$char_traits@D@std@@V?$allocator@D@2@@std@@@2@@std@@YAXPAV?$basic_string@DU?$char_traits@D@std@@V?$allocator@D@2@@0@0AAV?$allocator@V?$basic_string@DU?$char_traits@D@std@@V?$allocator@D@2@@std@@@0@U_Nonscalar_ptr_iterator_tag@0@@Z PROC NEAR ; std::_Destroy_range<std::basic_string<char,std::char_traits<char>,std::allocator<char> >,std::allocator<std::basic_string<char,std::char_traits<char>,std::allocator<char> > > >, COMDAT

; 224  : 	{	// destroy [_First, _Last), arbitrary type

  00000	55		 push	 ebp
  00001	8b ec		 mov	 ebp, esp

; 225  : 	for (; _First != _Last; ++_First)

  00003	eb 09		 jmp	 SHORT $L194339
$L194340:
  00005	8b 45 08	 mov	 eax, DWORD PTR __First$[ebp]
  00008	83 c0 1c	 add	 eax, 28			; 0000001cH
  0000b	89 45 08	 mov	 DWORD PTR __First$[ebp], eax
$L194339:
  0000e	8b 4d 08	 mov	 ecx, DWORD PTR __First$[ebp]
  00011	3b 4d 0c	 cmp	 ecx, DWORD PTR __Last$[ebp]
  00014	74 0e		 je	 SHORT $L194338

; 226  : 		_Al.destroy(_First);

  00016	8b 55 08	 mov	 edx, DWORD PTR __First$[ebp]
  00019	52		 push	 edx
  0001a	8b 4d 10	 mov	 ecx, DWORD PTR __Al$[ebp]
  0001d	e8 00 00 00 00	 call	 ?destroy@?$allocator@V?$basic_string@DU?$char_traits@D@std@@V?$allocator@D@2@@std@@@std@@QAEXPAV?$basic_string@DU?$char_traits@D@std@@V?$allocator@D@2@@2@@Z ; std::allocator<std::basic_string<char,std::char_traits<char>,std::allocator<char> > >::destroy
  00022	eb e1		 jmp	 SHORT $L194340
$L194338:

; 227  : 	}

  00024	3b ec		 cmp	 ebp, esp
  00026	e8 00 00 00 00	 call	 __RTC_CheckEsp
  0002b	5d		 pop	 ebp
  0002c	c3		 ret	 0
??$_Destroy_range@V?$basic_string@DU?$char_traits@D@std@@V?$allocator@D@2@@std@@V?$allocator@V?$basic_string@DU?$char_traits@D@std@@V?$allocator@D@2@@std@@@2@@std@@YAXPAV?$basic_string@DU?$char_traits@D@std@@V?$allocator@D@2@@0@0AAV?$allocator@V?$basic_string@DU?$char_traits@D@std@@V?$allocator@D@2@@std@@@0@U_Nonscalar_ptr_iterator_tag@0@@Z ENDP ; std::_Destroy_range<std::basic_string<char,std::char_traits<char>,std::allocator<char> >,std::allocator<std::basic_string<char,std::char_traits<char>,std::allocator<char> > > >
_TEXT	ENDS
PUBLIC	??$_Uninit_copy@PAV?$basic_string@DU?$char_traits@D@std@@V?$allocator@D@2@@std@@PAV12@V?$allocator@V?$basic_string@DU?$char_traits@D@std@@V?$allocator@D@2@@std@@@2@@std@@YAPAV?$basic_string@DU?$char_traits@D@std@@V?$allocator@D@2@@0@PAV10@00AAV?$allocator@V?$basic_string@DU?$char_traits@D@std@@V?$allocator@D@2@@std@@@0@U_Nonscalar_ptr_iterator_tag@0@@Z ; std::_Uninit_copy<std::basic_string<char,std::char_traits<char>,std::allocator<char> > *,std::basic_string<char,std::char_traits<char>,std::allocator<char> > *,std::allocator<std::basic_string<char,std::char_traits<char>,std::allocator<char> > > >
; Function compile flags: /Odt /RTCsu
; File d:\program files (x86)\microsoft visual studio .net 2003\vc7\include\memory
;	COMDAT ??$_Uninitialized_copy@PAV?$basic_string@DU?$char_traits@D@std@@V?$allocator@D@2@@std@@PAV12@V?$allocator@V?$basic_string@DU?$char_traits@D@std@@V?$allocator@D@2@@std@@@2@@std@@YAPAV?$basic_string@DU?$char_traits@D@std@@V?$allocator@D@2@@0@PAV10@00AAV?$allocator@V?$basic_string@DU?$char_traits@D@std@@V?$allocator@D@2@@std@@@0@@Z
_TEXT	SEGMENT
$T195727 = -1						; size = 1
__First$ = 8						; size = 4
__Last$ = 12						; size = 4
__Dest$ = 16						; size = 4
__Al$ = 20						; size = 4
??$_Uninitialized_copy@PAV?$basic_string@DU?$char_traits@D@std@@V?$allocator@D@2@@std@@PAV12@V?$allocator@V?$basic_string@DU?$char_traits@D@std@@V?$allocator@D@2@@std@@@2@@std@@YAPAV?$basic_string@DU?$char_traits@D@std@@V?$allocator@D@2@@0@PAV10@00AAV?$allocator@V?$basic_string@DU?$char_traits@D@std@@V?$allocator@D@2@@std@@@0@@Z PROC NEAR ; std::_Uninitialized_copy<std::basic_string<char,std::char_traits<char>,std::allocator<char> > *,std::basic_string<char,std::char_traits<char>,std::allocator<char> > *,std::allocator<std::basic_string<char,std::char_traits<char>,std::allocator<char> > > >, COMDAT

; 126  : 	{	// copy [_First, _Last) to raw _Dest, using _Al

  00000	55		 push	 ebp
  00001	8b ec		 mov	 ebp, esp
  00003	51		 push	 ecx
  00004	c7 45 fc cc cc
	cc cc		 mov	 DWORD PTR [ebp-4], -858993460 ; ccccccccH

; 127  : 	return (_Uninit_copy(_First, _Last, _Dest, _Al,
; 128  : 		_Ptr_cat(_First, _Dest)));

  0000b	8d 45 10	 lea	 eax, DWORD PTR __Dest$[ebp]
  0000e	50		 push	 eax
  0000f	8d 4d 08	 lea	 ecx, DWORD PTR __First$[ebp]
  00012	51		 push	 ecx
  00013	e8 00 00 00 00	 call	 ??$_Ptr_cat@PAV?$basic_string@DU?$char_traits@D@std@@V?$allocator@D@2@@std@@PAV12@@std@@YA?AU_Nonscalar_ptr_iterator_tag@0@AAPAV?$basic_string@DU?$char_traits@D@std@@V?$allocator@D@2@@0@0@Z ; std::_Ptr_cat<std::basic_string<char,std::char_traits<char>,std::allocator<char> > *,std::basic_string<char,std::char_traits<char>,std::allocator<char> > *>
  00018	83 c4 08	 add	 esp, 8
  0001b	88 45 ff	 mov	 BYTE PTR $T195727[ebp], al
  0001e	8a 55 ff	 mov	 dl, BYTE PTR $T195727[ebp]
  00021	52		 push	 edx
  00022	8b 45 14	 mov	 eax, DWORD PTR __Al$[ebp]
  00025	50		 push	 eax
  00026	8b 4d 10	 mov	 ecx, DWORD PTR __Dest$[ebp]
  00029	51		 push	 ecx
  0002a	8b 55 0c	 mov	 edx, DWORD PTR __Last$[ebp]
  0002d	52		 push	 edx
  0002e	8b 45 08	 mov	 eax, DWORD PTR __First$[ebp]
  00031	50		 push	 eax
  00032	e8 00 00 00 00	 call	 ??$_Uninit_copy@PAV?$basic_string@DU?$char_traits@D@std@@V?$allocator@D@2@@std@@PAV12@V?$allocator@V?$basic_string@DU?$char_traits@D@std@@V?$allocator@D@2@@std@@@2@@std@@YAPAV?$basic_string@DU?$char_traits@D@std@@V?$allocator@D@2@@0@PAV10@00AAV?$allocator@V?$basic_string@DU?$char_traits@D@std@@V?$allocator@D@2@@std@@@0@U_Nonscalar_ptr_iterator_tag@0@@Z ; std::_Uninit_copy<std::basic_string<char,std::char_traits<char>,std::allocator<char> > *,std::basic_string<char,std::char_traits<char>,std::allocator<char> > *,std::allocator<std::basic_string<char,std::char_traits<char>,std::allocator<char> > > >
  00037	83 c4 14	 add	 esp, 20			; 00000014H

; 129  : 	}

  0003a	83 c4 04	 add	 esp, 4
  0003d	3b ec		 cmp	 ebp, esp
  0003f	e8 00 00 00 00	 call	 __RTC_CheckEsp
  00044	8b e5		 mov	 esp, ebp
  00046	5d		 pop	 ebp
  00047	c3		 ret	 0
??$_Uninitialized_copy@PAV?$basic_string@DU?$char_traits@D@std@@V?$allocator@D@2@@std@@PAV12@V?$allocator@V?$basic_string@DU?$char_traits@D@std@@V?$allocator@D@2@@std@@@2@@std@@YAPAV?$basic_string@DU?$char_traits@D@std@@V?$allocator@D@2@@0@PAV10@00AAV?$allocator@V?$basic_string@DU?$char_traits@D@std@@V?$allocator@D@2@@std@@@0@@Z ENDP ; std::_Uninitialized_copy<std::basic_string<char,std::char_traits<char>,std::allocator<char> > *,std::basic_string<char,std::char_traits<char>,std::allocator<char> > *,std::allocator<std::basic_string<char,std::char_traits<char>,std::allocator<char> > > >
; Function compile flags: /Odt /RTCsu
; File d:\program files (x86)\microsoft visual studio .net 2003\vc7\include\xutility
_TEXT	ENDS
;	COMDAT ??$_Copy_backward_opt@PAV?$basic_string@DU?$char_traits@D@std@@V?$allocator@D@2@@std@@PAV12@@std@@YAPAV?$basic_string@DU?$char_traits@D@std@@V?$allocator@D@2@@0@PAV10@00U_Nonscalar_ptr_iterator_tag@0@@Z
_TEXT	SEGMENT
__First$ = 8						; size = 4
__Last$ = 12						; size = 4
__Dest$ = 16						; size = 4
___formal$ = 20						; size = 1
??$_Copy_backward_opt@PAV?$basic_string@DU?$char_traits@D@std@@V?$allocator@D@2@@std@@PAV12@@std@@YAPAV?$basic_string@DU?$char_traits@D@std@@V?$allocator@D@2@@0@PAV10@00U_Nonscalar_ptr_iterator_tag@0@@Z PROC NEAR ; std::_Copy_backward_opt<std::basic_string<char,std::char_traits<char>,std::allocator<char> > *,std::basic_string<char,std::char_traits<char>,std::allocator<char> > *>, COMDAT

; 1048 : 	{	// copy [_First, _Last) backwards to [..., _Dest), arbitrary iterators

  00000	55		 push	 ebp
  00001	8b ec		 mov	 ebp, esp
  00003	56		 push	 esi
$L194384:

; 1049 : 	while (_First != _Last)

  00004	8b 45 08	 mov	 eax, DWORD PTR __First$[ebp]
  00007	3b 45 0c	 cmp	 eax, DWORD PTR __Last$[ebp]
  0000a	74 2a		 je	 SHORT $L194385

; 1050 : 		*--_Dest = *--_Last;

  0000c	8b 4d 0c	 mov	 ecx, DWORD PTR __Last$[ebp]
  0000f	83 e9 1c	 sub	 ecx, 28			; 0000001cH
  00012	89 4d 0c	 mov	 DWORD PTR __Last$[ebp], ecx
  00015	8b 55 10	 mov	 edx, DWORD PTR __Dest$[ebp]
  00018	83 ea 1c	 sub	 edx, 28			; 0000001cH
  0001b	89 55 10	 mov	 DWORD PTR __Dest$[ebp], edx
  0001e	8b f4		 mov	 esi, esp
  00020	8b 45 0c	 mov	 eax, DWORD PTR __Last$[ebp]
  00023	50		 push	 eax
  00024	8b 4d 10	 mov	 ecx, DWORD PTR __Dest$[ebp]
  00027	ff 15 00 00 00
	00		 call	 DWORD PTR __imp_??4?$basic_string@DU?$char_traits@D@std@@V?$allocator@D@2@@std@@QAEAAV01@ABV01@@Z
  0002d	3b f4		 cmp	 esi, esp
  0002f	e8 00 00 00 00	 call	 __RTC_CheckEsp
  00034	eb ce		 jmp	 SHORT $L194384
$L194385:

; 1051 : 	return (_Dest);

  00036	8b 45 10	 mov	 eax, DWORD PTR __Dest$[ebp]

; 1052 : 	}

  00039	5e		 pop	 esi
  0003a	3b ec		 cmp	 ebp, esp
  0003c	e8 00 00 00 00	 call	 __RTC_CheckEsp
  00041	5d		 pop	 ebp
  00042	c3		 ret	 0
??$_Copy_backward_opt@PAV?$basic_string@DU?$char_traits@D@std@@V?$allocator@D@2@@std@@PAV12@@std@@YAPAV?$basic_string@DU?$char_traits@D@std@@V?$allocator@D@2@@0@PAV10@00U_Nonscalar_ptr_iterator_tag@0@@Z ENDP ; std::_Copy_backward_opt<std::basic_string<char,std::char_traits<char>,std::allocator<char> > *,std::basic_string<char,std::char_traits<char>,std::allocator<char> > *>
_TEXT	ENDS
PUBLIC	??$_Construct@V?$basic_string@DU?$char_traits@D@std@@V?$allocator@D@2@@std@@V12@@std@@YAXPAV?$basic_string@DU?$char_traits@D@std@@V?$allocator@D@2@@0@ABV10@@Z ; std::_Construct<std::basic_string<char,std::char_traits<char>,std::allocator<char> >,std::basic_string<char,std::char_traits<char>,std::allocator<char> > >
; Function compile flags: /Odt /RTCsu
; File d:\program files (x86)\microsoft visual studio .net 2003\vc7\include\xmemory
;	COMDAT ?construct@?$allocator@V?$basic_string@DU?$char_traits@D@std@@V?$allocator@D@2@@std@@@std@@QAEXPAV?$basic_string@DU?$char_traits@D@std@@V?$allocator@D@2@@2@ABV32@@Z
_TEXT	SEGMENT
_this$ = -4						; size = 4
__Ptr$ = 8						; size = 4
__Val$ = 12						; size = 4
?construct@?$allocator@V?$basic_string@DU?$char_traits@D@std@@V?$allocator@D@2@@std@@@std@@QAEXPAV?$basic_string@DU?$char_traits@D@std@@V?$allocator@D@2@@2@ABV32@@Z PROC NEAR ; std::allocator<std::basic_string<char,std::char_traits<char>,std::allocator<char> > >::construct, COMDAT
; _this$ = ecx

; 146  : 		{	// construct object at _Ptr with value _Val

  00000	55		 push	 ebp
  00001	8b ec		 mov	 ebp, esp
  00003	51		 push	 ecx
  00004	c7 45 fc cc cc
	cc cc		 mov	 DWORD PTR [ebp-4], -858993460 ; ccccccccH
  0000b	89 4d fc	 mov	 DWORD PTR _this$[ebp], ecx

; 147  : 		_Construct(_Ptr, _Val);

  0000e	8b 45 0c	 mov	 eax, DWORD PTR __Val$[ebp]
  00011	50		 push	 eax
  00012	8b 4d 08	 mov	 ecx, DWORD PTR __Ptr$[ebp]
  00015	51		 push	 ecx
  00016	e8 00 00 00 00	 call	 ??$_Construct@V?$basic_string@DU?$char_traits@D@std@@V?$allocator@D@2@@std@@V12@@std@@YAXPAV?$basic_string@DU?$char_traits@D@std@@V?$allocator@D@2@@0@ABV10@@Z ; std::_Construct<std::basic_string<char,std::char_traits<char>,std::allocator<char> >,std::basic_string<char,std::char_traits<char>,std::allocator<char> > >
  0001b	83 c4 08	 add	 esp, 8

; 148  : 		}

  0001e	83 c4 04	 add	 esp, 4
  00021	3b ec		 cmp	 ebp, esp
  00023	e8 00 00 00 00	 call	 __RTC_CheckEsp
  00028	8b e5		 mov	 esp, ebp
  0002a	5d		 pop	 ebp
  0002b	c2 08 00	 ret	 8
?construct@?$allocator@V?$basic_string@DU?$char_traits@D@std@@V?$allocator@D@2@@std@@@std@@QAEXPAV?$basic_string@DU?$char_traits@D@std@@V?$allocator@D@2@@2@ABV32@@Z ENDP ; std::allocator<std::basic_string<char,std::char_traits<char>,std::allocator<char> > >::construct
_TEXT	ENDS
PUBLIC	??$_Destroy@V?$basic_string@DU?$char_traits@D@std@@V?$allocator@D@2@@std@@@std@@YAXPAV?$basic_string@DU?$char_traits@D@std@@V?$allocator@D@2@@0@@Z ; std::_Destroy<std::basic_string<char,std::char_traits<char>,std::allocator<char> > >
; Function compile flags: /Odt /RTCsu
;	COMDAT ?destroy@?$allocator@V?$basic_string@DU?$char_traits@D@std@@V?$allocator@D@2@@std@@@std@@QAEXPAV?$basic_string@DU?$char_traits@D@std@@V?$allocator@D@2@@2@@Z
_TEXT	SEGMENT
_this$ = -4						; size = 4
__Ptr$ = 8						; size = 4
?destroy@?$allocator@V?$basic_string@DU?$char_traits@D@std@@V?$allocator@D@2@@std@@@std@@QAEXPAV?$basic_string@DU?$char_traits@D@std@@V?$allocator@D@2@@2@@Z PROC NEAR ; std::allocator<std::basic_string<char,std::char_traits<char>,std::allocator<char> > >::destroy, COMDAT
; _this$ = ecx

; 151  : 		{	// destroy object at _Ptr

  00000	55		 push	 ebp
  00001	8b ec		 mov	 ebp, esp
  00003	51		 push	 ecx
  00004	c7 45 fc cc cc
	cc cc		 mov	 DWORD PTR [ebp-4], -858993460 ; ccccccccH
  0000b	89 4d fc	 mov	 DWORD PTR _this$[ebp], ecx

; 152  : 		_Destroy(_Ptr);

  0000e	8b 45 08	 mov	 eax, DWORD PTR __Ptr$[ebp]
  00011	50		 push	 eax
  00012	e8 00 00 00 00	 call	 ??$_Destroy@V?$basic_string@DU?$char_traits@D@std@@V?$allocator@D@2@@std@@@std@@YAXPAV?$basic_string@DU?$char_traits@D@std@@V?$allocator@D@2@@0@@Z ; std::_Destroy<std::basic_string<char,std::char_traits<char>,std::allocator<char> > >
  00017	83 c4 04	 add	 esp, 4

; 153  : 		}

  0001a	83 c4 04	 add	 esp, 4
  0001d	3b ec		 cmp	 ebp, esp
  0001f	e8 00 00 00 00	 call	 __RTC_CheckEsp
  00024	8b e5		 mov	 esp, ebp
  00026	5d		 pop	 ebp
  00027	c2 04 00	 ret	 4
?destroy@?$allocator@V?$basic_string@DU?$char_traits@D@std@@V?$allocator@D@2@@std@@@std@@QAEXPAV?$basic_string@DU?$char_traits@D@std@@V?$allocator@D@2@@2@@Z ENDP ; std::allocator<std::basic_string<char,std::char_traits<char>,std::allocator<char> > >::destroy
_TEXT	ENDS
PUBLIC	??$_Destroy@UOneLocalGame@@@std@@YAXPAUOneLocalGame@@@Z ; std::_Destroy<OneLocalGame>
; Function compile flags: /Odt /RTCsu
;	COMDAT ?destroy@?$allocator@UOneLocalGame@@@std@@QAEXPAUOneLocalGame@@@Z
_TEXT	SEGMENT
_this$ = -4						; size = 4
__Ptr$ = 8						; size = 4
?destroy@?$allocator@UOneLocalGame@@@std@@QAEXPAUOneLocalGame@@@Z PROC NEAR ; std::allocator<OneLocalGame>::destroy, COMDAT
; _this$ = ecx

; 151  : 		{	// destroy object at _Ptr

  00000	55		 push	 ebp
  00001	8b ec		 mov	 ebp, esp
  00003	51		 push	 ecx
  00004	c7 45 fc cc cc
	cc cc		 mov	 DWORD PTR [ebp-4], -858993460 ; ccccccccH
  0000b	89 4d fc	 mov	 DWORD PTR _this$[ebp], ecx

; 152  : 		_Destroy(_Ptr);

  0000e	8b 45 08	 mov	 eax, DWORD PTR __Ptr$[ebp]
  00011	50		 push	 eax
  00012	e8 00 00 00 00	 call	 ??$_Destroy@UOneLocalGame@@@std@@YAXPAUOneLocalGame@@@Z ; std::_Destroy<OneLocalGame>
  00017	83 c4 04	 add	 esp, 4

; 153  : 		}

  0001a	83 c4 04	 add	 esp, 4
  0001d	3b ec		 cmp	 ebp, esp
  0001f	e8 00 00 00 00	 call	 __RTC_CheckEsp
  00024	8b e5		 mov	 esp, ebp
  00026	5d		 pop	 ebp
  00027	c2 04 00	 ret	 4
?destroy@?$allocator@UOneLocalGame@@@std@@QAEXPAUOneLocalGame@@@Z ENDP ; std::allocator<OneLocalGame>::destroy
; Function compile flags: /Odt /RTCsu
; File d:\program files (x86)\microsoft visual studio .net 2003\vc7\include\memory
_TEXT	ENDS
;	COMDAT ??$_Uninit_copy@HH@std@@YAPAHPAH00AAV?$allocator@H@0@U_Scalar_ptr_iterator_tag@0@@Z
_TEXT	SEGMENT
__Count$ = -4						; size = 4
__First$ = 8						; size = 4
__Last$ = 12						; size = 4
__Dest$ = 16						; size = 4
___formal$ = 20						; size = 4
___formal$ = 24						; size = 1
??$_Uninit_copy@HH@std@@YAPAHPAH00AAV?$allocator@H@0@U_Scalar_ptr_iterator_tag@0@@Z PROC NEAR ; std::_Uninit_copy<int,int>, COMDAT

; 105  : 	{	// copy [_First, _Last) to raw _Dest, (const) scalar type

  00000	55		 push	 ebp
  00001	8b ec		 mov	 ebp, esp
  00003	51		 push	 ecx
  00004	56		 push	 esi
  00005	c7 45 fc cc cc
	cc cc		 mov	 DWORD PTR [ebp-4], -858993460 ; ccccccccH

; 106  : 	size_t _Count = (size_t)(_Last - _First);

  0000c	8b 45 0c	 mov	 eax, DWORD PTR __Last$[ebp]
  0000f	2b 45 08	 sub	 eax, DWORD PTR __First$[ebp]
  00012	c1 f8 02	 sar	 eax, 2
  00015	89 45 fc	 mov	 DWORD PTR __Count$[ebp], eax

; 107  : 	return ((_Ty2 *)memmove(&*_Dest, &*_First,
; 108  : 		_Count * sizeof (*_First)) + _Count);	// NB: non-overlapping move

  00018	8b 4d fc	 mov	 ecx, DWORD PTR __Count$[ebp]
  0001b	c1 e1 02	 shl	 ecx, 2
  0001e	8b f4		 mov	 esi, esp
  00020	51		 push	 ecx
  00021	8b 55 08	 mov	 edx, DWORD PTR __First$[ebp]
  00024	52		 push	 edx
  00025	8b 45 10	 mov	 eax, DWORD PTR __Dest$[ebp]
  00028	50		 push	 eax
  00029	ff 15 00 00 00
	00		 call	 DWORD PTR __imp__memmove
  0002f	83 c4 0c	 add	 esp, 12			; 0000000cH
  00032	3b f4		 cmp	 esi, esp
  00034	e8 00 00 00 00	 call	 __RTC_CheckEsp
  00039	8b 4d fc	 mov	 ecx, DWORD PTR __Count$[ebp]
  0003c	8d 04 88	 lea	 eax, DWORD PTR [eax+ecx*4]

; 109  : 	}

  0003f	5e		 pop	 esi
  00040	83 c4 04	 add	 esp, 4
  00043	3b ec		 cmp	 ebp, esp
  00045	e8 00 00 00 00	 call	 __RTC_CheckEsp
  0004a	8b e5		 mov	 esp, ebp
  0004c	5d		 pop	 ebp
  0004d	c3		 ret	 0
??$_Uninit_copy@HH@std@@YAPAHPAH00AAV?$allocator@H@0@U_Scalar_ptr_iterator_tag@0@@Z ENDP ; std::_Uninit_copy<int,int>
_TEXT	ENDS
;	COMDAT xdata$x
xdata$x	SEGMENT
$T195739 DD	0ffffffffH
	DD	00H
	DD	0ffffffffH
	DD	00H
$T195741 DD	00H
	DD	00H
	DD	00H
	DD	FLAT:$L195735
$T195740 DD	00H
	DD	00H
	DD	01H
	DD	01H
	DD	FLAT:$T195741
$T195737 DD	019930520H
	DD	02H
	DD	FLAT:$T195739
	DD	01H
	DD	FLAT:$T195740
	DD	2 DUP(00H)
; Function compile flags: /Odt /RTCsu
xdata$x	ENDS
;	COMDAT ??$_Uninit_copy@PAV?$basic_string@DU?$char_traits@D@std@@V?$allocator@D@2@@std@@PAV12@V?$allocator@V?$basic_string@DU?$char_traits@D@std@@V?$allocator@D@2@@std@@@2@@std@@YAPAV?$basic_string@DU?$char_traits@D@std@@V?$allocator@D@2@@0@PAV10@00AAV?$allocator@V?$basic_string@DU?$char_traits@D@std@@V?$allocator@D@2@@std@@@0@U_Nonscalar_ptr_iterator_tag@0@@Z
_TEXT	SEGMENT
__Next$ = -20						; size = 4
__$EHRec$ = -16						; size = 16
__First$ = 8						; size = 4
__Last$ = 12						; size = 4
__Dest$ = 16						; size = 4
__Al$ = 20						; size = 4
___formal$ = 24						; size = 1
??$_Uninit_copy@PAV?$basic_string@DU?$char_traits@D@std@@V?$allocator@D@2@@std@@PAV12@V?$allocator@V?$basic_string@DU?$char_traits@D@std@@V?$allocator@D@2@@std@@@2@@std@@YAPAV?$basic_string@DU?$char_traits@D@std@@V?$allocator@D@2@@0@PAV10@00AAV?$allocator@V?$basic_string@DU?$char_traits@D@std@@V?$allocator@D@2@@std@@@0@U_Nonscalar_ptr_iterator_tag@0@@Z PROC NEAR ; std::_Uninit_copy<std::basic_string<char,std::char_traits<char>,std::allocator<char> > *,std::basic_string<char,std::char_traits<char>,std::allocator<char> > *,std::allocator<std::basic_string<char,std::char_traits<char>,std::allocator<char> > > >, COMDAT

; 77   : 	{	// copy [_First, _Last) to raw _Dest, using _Al, arbitrary type

  00000	55		 push	 ebp
  00001	8b ec		 mov	 ebp, esp
  00003	6a ff		 push	 -1
  00005	68 00 00 00 00	 push	 __ehhandler$??$_Uninit_copy@PAV?$basic_string@DU?$char_traits@D@std@@V?$allocator@D@2@@std@@PAV12@V?$allocator@V?$basic_string@DU?$char_traits@D@std@@V?$allocator@D@2@@std@@@2@@std@@YAPAV?$basic_string@DU?$char_traits@D@std@@V?$allocator@D@2@@0@PAV10@00AAV?$allocator@V?$basic_string@DU?$char_traits@D@std@@V?$allocator@D@2@@std@@@0@U_Nonscalar_ptr_iterator_tag@0@@Z
  0000a	64 a1 00 00 00
	00		 mov	 eax, DWORD PTR fs:__except_list
  00010	50		 push	 eax
  00011	64 89 25 00 00
	00 00		 mov	 DWORD PTR fs:__except_list, esp
  00018	51		 push	 ecx
  00019	51		 push	 ecx
  0001a	53		 push	 ebx
  0001b	56		 push	 esi
  0001c	57		 push	 edi
  0001d	c7 45 ec cc cc
	cc cc		 mov	 DWORD PTR [ebp-20], -858993460 ; ccccccccH
  00024	89 65 f0	 mov	 DWORD PTR __$EHRec$[ebp], esp

; 78   : 	_FwdIt _Next = _Dest;

  00027	8b 45 10	 mov	 eax, DWORD PTR __Dest$[ebp]
  0002a	89 45 ec	 mov	 DWORD PTR __Next$[ebp], eax

; 79   : 
; 80   : 	_TRY_BEGIN

  0002d	c7 45 fc 00 00
	00 00		 mov	 DWORD PTR __$EHRec$[ebp+12], 0

; 81   : 	for (; _First != _Last; ++_Dest, ++_First)

  00034	eb 12		 jmp	 SHORT $L194413
$L194414:
  00036	8b 4d 10	 mov	 ecx, DWORD PTR __Dest$[ebp]
  00039	83 c1 1c	 add	 ecx, 28			; 0000001cH
  0003c	89 4d 10	 mov	 DWORD PTR __Dest$[ebp], ecx
  0003f	8b 55 08	 mov	 edx, DWORD PTR __First$[ebp]
  00042	83 c2 1c	 add	 edx, 28			; 0000001cH
  00045	89 55 08	 mov	 DWORD PTR __First$[ebp], edx
$L194413:
  00048	8b 45 08	 mov	 eax, DWORD PTR __First$[ebp]
  0004b	3b 45 0c	 cmp	 eax, DWORD PTR __Last$[ebp]
  0004e	74 12		 je	 SHORT $L194415

; 82   : 		_Al.construct(_Dest, *_First);

  00050	8b 4d 08	 mov	 ecx, DWORD PTR __First$[ebp]
  00053	51		 push	 ecx
  00054	8b 55 10	 mov	 edx, DWORD PTR __Dest$[ebp]
  00057	52		 push	 edx
  00058	8b 4d 14	 mov	 ecx, DWORD PTR __Al$[ebp]
  0005b	e8 00 00 00 00	 call	 ?construct@?$allocator@V?$basic_string@DU?$char_traits@D@std@@V?$allocator@D@2@@std@@@std@@QAEXPAV?$basic_string@DU?$char_traits@D@std@@V?$allocator@D@2@@2@ABV32@@Z ; std::allocator<std::basic_string<char,std::char_traits<char>,std::allocator<char> > >::construct
  00060	eb d4		 jmp	 SHORT $L194414
$L194415:
  00062	eb 2a		 jmp	 SHORT $L195734
$L195735:

; 83   : 	_CATCH_ALL
; 84   : 	for (; _Next != _Dest; ++_Next)

  00064	eb 09		 jmp	 SHORT $L194416
$L194417:
  00066	8b 45 ec	 mov	 eax, DWORD PTR __Next$[ebp]
  00069	83 c0 1c	 add	 eax, 28			; 0000001cH
  0006c	89 45 ec	 mov	 DWORD PTR __Next$[ebp], eax
$L194416:
  0006f	8b 4d ec	 mov	 ecx, DWORD PTR __Next$[ebp]
  00072	3b 4d 10	 cmp	 ecx, DWORD PTR __Dest$[ebp]
  00075	74 0e		 je	 SHORT $L194418

; 85   : 		_Al.destroy(_Next);

  00077	8b 55 ec	 mov	 edx, DWORD PTR __Next$[ebp]
  0007a	52		 push	 edx
  0007b	8b 4d 14	 mov	 ecx, DWORD PTR __Al$[ebp]
  0007e	e8 00 00 00 00	 call	 ?destroy@?$allocator@V?$basic_string@DU?$char_traits@D@std@@V?$allocator@D@2@@std@@@std@@QAEXPAV?$basic_string@DU?$char_traits@D@std@@V?$allocator@D@2@@2@@Z ; std::allocator<std::basic_string<char,std::char_traits<char>,std::allocator<char> > >::destroy
  00083	eb e1		 jmp	 SHORT $L194417
$L194418:

; 86   : 	_RERAISE;

  00085	6a 00		 push	 0
  00087	6a 00		 push	 0
  00089	e8 00 00 00 00	 call	 __CxxThrowException@8
$L195734:

; 87   : 	_CATCH_END

  0008e	c7 45 fc ff ff
	ff ff		 mov	 DWORD PTR __$EHRec$[ebp+12], -1

; 88   : 	return (_Dest);

  00095	8b 45 10	 mov	 eax, DWORD PTR __Dest$[ebp]
$L195733:

; 89   : 	}

  00098	8b 4d f4	 mov	 ecx, DWORD PTR __$EHRec$[ebp+4]
  0009b	64 89 0d 00 00
	00 00		 mov	 DWORD PTR fs:__except_list, ecx
  000a2	5f		 pop	 edi
  000a3	5e		 pop	 esi
  000a4	5b		 pop	 ebx
  000a5	83 c4 14	 add	 esp, 20			; 00000014H
  000a8	3b ec		 cmp	 ebp, esp
  000aa	e8 00 00 00 00	 call	 __RTC_CheckEsp
  000af	8b e5		 mov	 esp, ebp
  000b1	5d		 pop	 ebp
  000b2	c3		 ret	 0
_TEXT	ENDS
;	COMDAT text$x
text$x	SEGMENT
__ehhandler$??$_Uninit_copy@PAV?$basic_string@DU?$char_traits@D@std@@V?$allocator@D@2@@std@@PAV12@V?$allocator@V?$basic_string@DU?$char_traits@D@std@@V?$allocator@D@2@@std@@@2@@std@@YAPAV?$basic_string@DU?$char_traits@D@std@@V?$allocator@D@2@@0@PAV10@00AAV?$allocator@V?$basic_string@DU?$char_traits@D@std@@V?$allocator@D@2@@std@@@0@U_Nonscalar_ptr_iterator_tag@0@@Z:
  00000	b8 00 00 00 00	 mov	 eax, OFFSET FLAT:$T195737
  00005	e9 00 00 00 00	 jmp	 ___CxxFrameHandler
text$x	ENDS
??$_Uninit_copy@PAV?$basic_string@DU?$char_traits@D@std@@V?$allocator@D@2@@std@@PAV12@V?$allocator@V?$basic_string@DU?$char_traits@D@std@@V?$allocator@D@2@@std@@@2@@std@@YAPAV?$basic_string@DU?$char_traits@D@std@@V?$allocator@D@2@@0@PAV10@00AAV?$allocator@V?$basic_string@DU?$char_traits@D@std@@V?$allocator@D@2@@std@@@0@U_Nonscalar_ptr_iterator_tag@0@@Z ENDP ; std::_Uninit_copy<std::basic_string<char,std::char_traits<char>,std::allocator<char> > *,std::basic_string<char,std::char_traits<char>,std::allocator<char> > *,std::allocator<std::basic_string<char,std::char_traits<char>,std::allocator<char> > > >
PUBLIC	??2@YAPAXIPAX@Z					; operator new
PUBLIC	??3@YAXPAX0@Z					; operator delete
;	COMDAT xdata$x
; File d:\program files (x86)\microsoft visual studio .net 2003\vc7\include\xmemory
xdata$x	SEGMENT
$T195753 DD	0ffffffffH
	DD	FLAT:$L195749
$T195751 DD	019930520H
	DD	01H
	DD	FLAT:$T195753
	DD	2 DUP(00H)
	DD	2 DUP(00H)
; Function compile flags: /Odt /RTCsu
xdata$x	ENDS
;	COMDAT ??$_Construct@V?$basic_string@DU?$char_traits@D@std@@V?$allocator@D@2@@std@@V12@@std@@YAXPAV?$basic_string@DU?$char_traits@D@std@@V?$allocator@D@2@@0@ABV10@@Z
_TEXT	SEGMENT
tv74 = -24						; size = 4
$T195746 = -20						; size = 4
$T195745 = -16						; size = 4
__$EHRec$ = -12						; size = 12
__Ptr$ = 8						; size = 4
__Val$ = 12						; size = 4
??$_Construct@V?$basic_string@DU?$char_traits@D@std@@V?$allocator@D@2@@std@@V12@@std@@YAXPAV?$basic_string@DU?$char_traits@D@std@@V?$allocator@D@2@@0@ABV10@@Z PROC NEAR ; std::_Construct<std::basic_string<char,std::char_traits<char>,std::allocator<char> >,std::basic_string<char,std::char_traits<char>,std::allocator<char> > >, COMDAT

; 41   : 	{	// construct object at _Ptr with value _Val

  00000	55		 push	 ebp
  00001	8b ec		 mov	 ebp, esp
  00003	6a ff		 push	 -1
  00005	68 00 00 00 00	 push	 __ehhandler$??$_Construct@V?$basic_string@DU?$char_traits@D@std@@V?$allocator@D@2@@std@@V12@@std@@YAXPAV?$basic_string@DU?$char_traits@D@std@@V?$allocator@D@2@@0@ABV10@@Z
  0000a	64 a1 00 00 00
	00		 mov	 eax, DWORD PTR fs:__except_list
  00010	50		 push	 eax
  00011	64 89 25 00 00
	00 00		 mov	 DWORD PTR fs:__except_list, esp
  00018	83 ec 0c	 sub	 esp, 12			; 0000000cH
  0001b	56		 push	 esi
  0001c	c7 45 e8 cc cc
	cc cc		 mov	 DWORD PTR [ebp-24], -858993460 ; ccccccccH
  00023	c7 45 ec cc cc
	cc cc		 mov	 DWORD PTR [ebp-20], -858993460 ; ccccccccH
  0002a	c7 45 f0 cc cc
	cc cc		 mov	 DWORD PTR [ebp-16], -858993460 ; ccccccccH

; 42   : 	new ((void _FARQ *)_Ptr) _T1(_Val);

  00031	8b 45 08	 mov	 eax, DWORD PTR __Ptr$[ebp]
  00034	50		 push	 eax
  00035	6a 1c		 push	 28			; 0000001cH
  00037	e8 00 00 00 00	 call	 ??2@YAPAXIPAX@Z		; operator new
  0003c	83 c4 08	 add	 esp, 8
  0003f	89 45 ec	 mov	 DWORD PTR $T195746[ebp], eax
  00042	c7 45 fc 00 00
	00 00		 mov	 DWORD PTR __$EHRec$[ebp+8], 0
  00049	83 7d ec 00	 cmp	 DWORD PTR $T195746[ebp], 0
  0004d	74 1b		 je	 SHORT $L195747
  0004f	8b f4		 mov	 esi, esp
  00051	8b 4d 0c	 mov	 ecx, DWORD PTR __Val$[ebp]
  00054	51		 push	 ecx
  00055	8b 4d ec	 mov	 ecx, DWORD PTR $T195746[ebp]
  00058	ff 15 00 00 00
	00		 call	 DWORD PTR __imp_??0?$basic_string@DU?$char_traits@D@std@@V?$allocator@D@2@@std@@QAE@ABV01@@Z
  0005e	3b f4		 cmp	 esi, esp
  00060	e8 00 00 00 00	 call	 __RTC_CheckEsp
  00065	89 45 e8	 mov	 DWORD PTR tv74[ebp], eax
  00068	eb 07		 jmp	 SHORT $L195748
$L195747:
  0006a	c7 45 e8 00 00
	00 00		 mov	 DWORD PTR tv74[ebp], 0
$L195748:
  00071	8b 55 e8	 mov	 edx, DWORD PTR tv74[ebp]
  00074	89 55 f0	 mov	 DWORD PTR $T195745[ebp], edx
  00077	c7 45 fc ff ff
	ff ff		 mov	 DWORD PTR __$EHRec$[ebp+8], -1

; 43   : 	}

  0007e	8b 4d f4	 mov	 ecx, DWORD PTR __$EHRec$[ebp]
  00081	64 89 0d 00 00
	00 00		 mov	 DWORD PTR fs:__except_list, ecx
  00088	5e		 pop	 esi
  00089	83 c4 18	 add	 esp, 24			; 00000018H
  0008c	3b ec		 cmp	 ebp, esp
  0008e	e8 00 00 00 00	 call	 __RTC_CheckEsp
  00093	8b e5		 mov	 esp, ebp
  00095	5d		 pop	 ebp
  00096	c3		 ret	 0
_TEXT	ENDS
;	COMDAT text$x
text$x	SEGMENT
$L195749:
  00000	8b 45 08	 mov	 eax, DWORD PTR __Ptr$[ebp]
  00003	50		 push	 eax
  00004	8b 4d ec	 mov	 ecx, DWORD PTR $T195746[ebp]
  00007	51		 push	 ecx
  00008	e8 00 00 00 00	 call	 ??3@YAXPAX0@Z		; operator delete
  0000d	83 c4 08	 add	 esp, 8
  00010	c3		 ret	 0
__ehhandler$??$_Construct@V?$basic_string@DU?$char_traits@D@std@@V?$allocator@D@2@@std@@V12@@std@@YAXPAV?$basic_string@DU?$char_traits@D@std@@V?$allocator@D@2@@0@ABV10@@Z:
  00011	b8 00 00 00 00	 mov	 eax, OFFSET FLAT:$T195751
  00016	e9 00 00 00 00	 jmp	 ___CxxFrameHandler
text$x	ENDS
??$_Construct@V?$basic_string@DU?$char_traits@D@std@@V?$allocator@D@2@@std@@V12@@std@@YAXPAV?$basic_string@DU?$char_traits@D@std@@V?$allocator@D@2@@0@ABV10@@Z ENDP ; std::_Construct<std::basic_string<char,std::char_traits<char>,std::allocator<char> >,std::basic_string<char,std::char_traits<char>,std::allocator<char> > >
; Function compile flags: /Odt /RTCsu
; File d:\program files (x86)\microsoft visual studio .net 2003\vc7\include\new.h
;	COMDAT ??2@YAPAXIPAX@Z
_TEXT	SEGMENT
___formal$ = 8						; size = 4
__P$ = 12						; size = 4
??2@YAPAXIPAX@Z PROC NEAR				; operator new, COMDAT

; 109  :         {return (_P); }

  00000	55		 push	 ebp
  00001	8b ec		 mov	 ebp, esp
  00003	8b 45 0c	 mov	 eax, DWORD PTR __P$[ebp]
  00006	5d		 pop	 ebp
  00007	c3		 ret	 0
??2@YAPAXIPAX@Z ENDP					; operator new
; Function compile flags: /Odt /RTCsu
_TEXT	ENDS
;	COMDAT ??3@YAXPAX0@Z
_TEXT	SEGMENT
___formal$ = 8						; size = 4
___formal$ = 12						; size = 4
??3@YAXPAX0@Z PROC NEAR					; operator delete, COMDAT

; 112  :         {return; }

  00000	55		 push	 ebp
  00001	8b ec		 mov	 ebp, esp
  00003	5d		 pop	 ebp
  00004	c3		 ret	 0
??3@YAXPAX0@Z ENDP					; operator delete
_TEXT	ENDS
PUBLIC	??_G?$basic_string@DU?$char_traits@D@std@@V?$allocator@D@2@@std@@QAEPAXI@Z ; std::basic_string<char,std::char_traits<char>,std::allocator<char> >::`scalar deleting destructor'
; Function compile flags: /Odt /RTCsu
; File d:\program files (x86)\microsoft visual studio .net 2003\vc7\include\xmemory
;	COMDAT ??$_Destroy@V?$basic_string@DU?$char_traits@D@std@@V?$allocator@D@2@@std@@@std@@YAXPAV?$basic_string@DU?$char_traits@D@std@@V?$allocator@D@2@@0@@Z
_TEXT	SEGMENT
__Ptr$ = 8						; size = 4
??$_Destroy@V?$basic_string@DU?$char_traits@D@std@@V?$allocator@D@2@@std@@@std@@YAXPAV?$basic_string@DU?$char_traits@D@std@@V?$allocator@D@2@@0@@Z PROC NEAR ; std::_Destroy<std::basic_string<char,std::char_traits<char>,std::allocator<char> > >, COMDAT

; 48   : 	{	// destroy object at _Ptr

  00000	55		 push	 ebp
  00001	8b ec		 mov	 ebp, esp

; 49   : 	_DESTRUCTOR(_Ty, _Ptr);

  00003	6a 00		 push	 0
  00005	8b 4d 08	 mov	 ecx, DWORD PTR __Ptr$[ebp]
  00008	e8 00 00 00 00	 call	 ??_G?$basic_string@DU?$char_traits@D@std@@V?$allocator@D@2@@std@@QAEPAXI@Z

; 50   : 	}

  0000d	3b ec		 cmp	 ebp, esp
  0000f	e8 00 00 00 00	 call	 __RTC_CheckEsp
  00014	5d		 pop	 ebp
  00015	c3		 ret	 0
??$_Destroy@V?$basic_string@DU?$char_traits@D@std@@V?$allocator@D@2@@std@@@std@@YAXPAV?$basic_string@DU?$char_traits@D@std@@V?$allocator@D@2@@0@@Z ENDP ; std::_Destroy<std::basic_string<char,std::char_traits<char>,std::allocator<char> > >
_TEXT	ENDS
PUBLIC	??_GOneLocalGame@@QAEPAXI@Z			; OneLocalGame::`scalar deleting destructor'
; Function compile flags: /Odt /RTCsu
;	COMDAT ??$_Destroy@UOneLocalGame@@@std@@YAXPAUOneLocalGame@@@Z
_TEXT	SEGMENT
__Ptr$ = 8						; size = 4
??$_Destroy@UOneLocalGame@@@std@@YAXPAUOneLocalGame@@@Z PROC NEAR ; std::_Destroy<OneLocalGame>, COMDAT

; 48   : 	{	// destroy object at _Ptr

  00000	55		 push	 ebp
  00001	8b ec		 mov	 ebp, esp

; 49   : 	_DESTRUCTOR(_Ty, _Ptr);

  00003	6a 00		 push	 0
  00005	8b 4d 08	 mov	 ecx, DWORD PTR __Ptr$[ebp]
  00008	e8 00 00 00 00	 call	 ??_GOneLocalGame@@QAEPAXI@Z

; 50   : 	}

  0000d	3b ec		 cmp	 ebp, esp
  0000f	e8 00 00 00 00	 call	 __RTC_CheckEsp
  00014	5d		 pop	 ebp
  00015	c3		 ret	 0
??$_Destroy@UOneLocalGame@@@std@@YAXPAUOneLocalGame@@@Z ENDP ; std::_Destroy<OneLocalGame>
; Function compile flags: /Odt /RTCsu
_TEXT	ENDS
;	COMDAT ??_G?$basic_string@DU?$char_traits@D@std@@V?$allocator@D@2@@std@@QAEPAXI@Z
_TEXT	SEGMENT
_this$ = -4						; size = 4
___flags$ = 8						; size = 4
??_G?$basic_string@DU?$char_traits@D@std@@V?$allocator@D@2@@std@@QAEPAXI@Z PROC NEAR ; std::basic_string<char,std::char_traits<char>,std::allocator<char> >::`scalar deleting destructor', COMDAT
; _this$ = ecx
  00000	55		 push	 ebp
  00001	8b ec		 mov	 ebp, esp
  00003	51		 push	 ecx
  00004	56		 push	 esi
  00005	c7 45 fc cc cc
	cc cc		 mov	 DWORD PTR [ebp-4], -858993460 ; ccccccccH
  0000c	89 4d fc	 mov	 DWORD PTR _this$[ebp], ecx
  0000f	8b f4		 mov	 esi, esp
  00011	8b 4d fc	 mov	 ecx, DWORD PTR _this$[ebp]
  00014	ff 15 00 00 00
	00		 call	 DWORD PTR __imp_??1?$basic_string@DU?$char_traits@D@std@@V?$allocator@D@2@@std@@QAE@XZ
  0001a	3b f4		 cmp	 esi, esp
  0001c	e8 00 00 00 00	 call	 __RTC_CheckEsp
  00021	8b 45 08	 mov	 eax, DWORD PTR ___flags$[ebp]
  00024	83 e0 01	 and	 eax, 1
  00027	74 0c		 je	 SHORT $L194432
  00029	8b 4d fc	 mov	 ecx, DWORD PTR _this$[ebp]
  0002c	51		 push	 ecx
  0002d	e8 00 00 00 00	 call	 ??3@YAXPAX@Z		; operator delete
  00032	83 c4 04	 add	 esp, 4
$L194432:
  00035	8b 45 fc	 mov	 eax, DWORD PTR _this$[ebp]
  00038	5e		 pop	 esi
  00039	83 c4 04	 add	 esp, 4
  0003c	3b ec		 cmp	 ebp, esp
  0003e	e8 00 00 00 00	 call	 __RTC_CheckEsp
  00043	8b e5		 mov	 esp, ebp
  00045	5d		 pop	 ebp
  00046	c2 04 00	 ret	 4
??_G?$basic_string@DU?$char_traits@D@std@@V?$allocator@D@2@@std@@QAEPAXI@Z ENDP ; std::basic_string<char,std::char_traits<char>,std::allocator<char> >::`scalar deleting destructor'
; Function compile flags: /Odt /RTCsu
_TEXT	ENDS
;	COMDAT ??_GOneLocalGame@@QAEPAXI@Z
_TEXT	SEGMENT
_this$ = -4						; size = 4
___flags$ = 8						; size = 4
??_GOneLocalGame@@QAEPAXI@Z PROC NEAR			; OneLocalGame::`scalar deleting destructor', COMDAT
; _this$ = ecx
  00000	55		 push	 ebp
  00001	8b ec		 mov	 ebp, esp
  00003	51		 push	 ecx
  00004	c7 45 fc cc cc
	cc cc		 mov	 DWORD PTR [ebp-4], -858993460 ; ccccccccH
  0000b	89 4d fc	 mov	 DWORD PTR _this$[ebp], ecx
  0000e	8b 4d fc	 mov	 ecx, DWORD PTR _this$[ebp]
  00011	e8 00 00 00 00	 call	 ??1OneLocalGame@@QAE@XZ
  00016	8b 45 08	 mov	 eax, DWORD PTR ___flags$[ebp]
  00019	83 e0 01	 and	 eax, 1
  0001c	74 0c		 je	 SHORT $L194435
  0001e	8b 4d fc	 mov	 ecx, DWORD PTR _this$[ebp]
  00021	51		 push	 ecx
  00022	e8 00 00 00 00	 call	 ??3@YAXPAX@Z		; operator delete
  00027	83 c4 04	 add	 esp, 4
$L194435:
  0002a	8b 45 fc	 mov	 eax, DWORD PTR _this$[ebp]
  0002d	83 c4 04	 add	 esp, 4
  00030	3b ec		 cmp	 ebp, esp
  00032	e8 00 00 00 00	 call	 __RTC_CheckEsp
  00037	8b e5		 mov	 esp, ebp
  00039	5d		 pop	 ebp
  0003a	c2 04 00	 ret	 4
??_GOneLocalGame@@QAEPAXI@Z ENDP			; OneLocalGame::`scalar deleting destructor'
; Function compile flags: /Odt /RTCsu
_TEXT	ENDS
;	COMDAT ??_EPlayedGameWnd@@WBIA@AEPAXI@Z
_TEXT	SEGMENT
??_EPlayedGameWnd@@WBIA@AEPAXI@Z PROC NEAR		; [thunk]:PlayedGameWnd::`vector deleting destructor', COMDAT
  00000	81 e9 80 01 00
	00		 sub	 ecx, 384		; 00000180H
  00006	e9 00 00 00 00	 jmp	 ??_EPlayedGameWnd@@UAEPAXI@Z
??_EPlayedGameWnd@@WBIA@AEPAXI@Z ENDP			; [thunk]:PlayedGameWnd::`vector deleting destructor'
; Function compile flags: /Odt /RTCsu
; File d:\program files (x86)\microsoft visual studio .net 2003\vc7\include\xutility
_TEXT	ENDS
;	COMDAT ?_Ptr_cat@std@@YA?AU_Scalar_ptr_iterator_tag@1@PAH0@Z
_TEXT	SEGMENT
__Cat$ = -5						; size = 1
___formal$ = 8						; size = 4
___formal$ = 12						; size = 4
?_Ptr_cat@std@@YA?AU_Scalar_ptr_iterator_tag@1@PAH0@Z PROC NEAR ; std::_Ptr_cat, COMDAT

; 335  : 	{	// return pointer category from pointer to int arguments

  00000	55		 push	 ebp
  00001	8b ec		 mov	 ebp, esp
  00003	83 ec 0c	 sub	 esp, 12			; 0000000cH
  00006	c7 45 f4 cc cc
	cc cc		 mov	 DWORD PTR [ebp-12], -858993460 ; ccccccccH
  0000d	c7 45 f8 cc cc
	cc cc		 mov	 DWORD PTR [ebp-8], -858993460 ; ccccccccH
  00014	c7 45 fc cc cc
	cc cc		 mov	 DWORD PTR [ebp-4], -858993460 ; ccccccccH

; 336  : 	_Scalar_ptr_iterator_tag _Cat;
; 337  : 	return (_Cat);

  0001b	8a 45 fb	 mov	 al, BYTE PTR __Cat$[ebp]

; 338  : 	}

  0001e	52		 push	 edx
  0001f	8b cd		 mov	 ecx, ebp
  00021	50		 push	 eax
  00022	8d 15 00 00 00
	00		 lea	 edx, DWORD PTR $L195766
  00028	e8 00 00 00 00	 call	 @_RTC_CheckStackVars@8
  0002d	58		 pop	 eax
  0002e	5a		 pop	 edx
  0002f	8b e5		 mov	 esp, ebp
  00031	5d		 pop	 ebp
  00032	c3		 ret	 0
$L195766:
  00033	01 00 00 00	 DD	 1
  00037	00 00 00 00	 DD	 $L195765
$L195765:
  0003b	fb ff ff ff	 DD	 -5			; fffffffbH
  0003f	01 00 00 00	 DD	 1
  00043	00 00 00 00	 DD	 $L195764
$L195764:
  00047	5f		 DB	 95			; 0000005fH
  00048	43		 DB	 67			; 00000043H
  00049	61		 DB	 97			; 00000061H
  0004a	74		 DB	 116			; 00000074H
  0004b	00		 DB	 0
?_Ptr_cat@std@@YA?AU_Scalar_ptr_iterator_tag@1@PAH0@Z ENDP ; std::_Ptr_cat
; Function compile flags: /Odt /RTCsu
; File d:\program files (x86)\microsoft visual studio .net 2003\vc7\include\stdexcept
_TEXT	ENDS
;	COMDAT ?what@logic_error@std@@UBEPBDXZ
_TEXT	SEGMENT
_this$ = -4						; size = 4
?what@logic_error@std@@UBEPBDXZ PROC NEAR		; std::logic_error::what, COMDAT
; _this$ = ecx

; 26   : 		{	// return pointer to message string

  00000	55		 push	 ebp
  00001	8b ec		 mov	 ebp, esp
  00003	51		 push	 ecx
  00004	56		 push	 esi
  00005	c7 45 fc cc cc
	cc cc		 mov	 DWORD PTR [ebp-4], -858993460 ; ccccccccH
  0000c	89 4d fc	 mov	 DWORD PTR _this$[ebp], ecx

; 27   : 		return (_Str.c_str());

  0000f	8b 4d fc	 mov	 ecx, DWORD PTR _this$[ebp]
  00012	83 c1 0c	 add	 ecx, 12			; 0000000cH
  00015	8b f4		 mov	 esi, esp
  00017	ff 15 00 00 00
	00		 call	 DWORD PTR __imp_?c_str@?$basic_string@DU?$char_traits@D@std@@V?$allocator@D@2@@std@@QBEPBDXZ
  0001d	3b f4		 cmp	 esi, esp
  0001f	e8 00 00 00 00	 call	 __RTC_CheckEsp

; 28   : 		}

  00024	5e		 pop	 esi
  00025	83 c4 04	 add	 esp, 4
  00028	3b ec		 cmp	 ebp, esp
  0002a	e8 00 00 00 00	 call	 __RTC_CheckEsp
  0002f	8b e5		 mov	 esp, ebp
  00031	5d		 pop	 ebp
  00032	c3		 ret	 0
?what@logic_error@std@@UBEPBDXZ ENDP			; std::logic_error::what
_TEXT	ENDS
PUBLIC	??0logic_error@std@@QAE@ABV?$basic_string@DU?$char_traits@D@std@@V?$allocator@D@2@@1@@Z ; std::logic_error::logic_error
; Function compile flags: /Odt /RTCsu
;	COMDAT ??0length_error@std@@QAE@ABV?$basic_string@DU?$char_traits@D@std@@V?$allocator@D@2@@1@@Z
_TEXT	SEGMENT
_this$ = -4						; size = 4
__Message$ = 8						; size = 4
??0length_error@std@@QAE@ABV?$basic_string@DU?$char_traits@D@std@@V?$allocator@D@2@@1@@Z PROC NEAR ; std::length_error::length_error, COMDAT
; _this$ = ecx

; 95   : 		{	// construct from message string

  00000	55		 push	 ebp
  00001	8b ec		 mov	 ebp, esp
  00003	51		 push	 ecx
  00004	c7 45 fc cc cc
	cc cc		 mov	 DWORD PTR [ebp-4], -858993460 ; ccccccccH
  0000b	89 4d fc	 mov	 DWORD PTR _this$[ebp], ecx
  0000e	8b 45 08	 mov	 eax, DWORD PTR __Message$[ebp]
  00011	50		 push	 eax
  00012	8b 4d fc	 mov	 ecx, DWORD PTR _this$[ebp]
  00015	e8 00 00 00 00	 call	 ??0logic_error@std@@QAE@ABV?$basic_string@DU?$char_traits@D@std@@V?$allocator@D@2@@1@@Z ; std::logic_error::logic_error
  0001a	8b 4d fc	 mov	 ecx, DWORD PTR _this$[ebp]
  0001d	c7 01 00 00 00
	00		 mov	 DWORD PTR [ecx], OFFSET FLAT:??_7length_error@std@@6B@

; 96   : 		}

  00023	8b 45 fc	 mov	 eax, DWORD PTR _this$[ebp]
  00026	83 c4 04	 add	 esp, 4
  00029	3b ec		 cmp	 ebp, esp
  0002b	e8 00 00 00 00	 call	 __RTC_CheckEsp
  00030	8b e5		 mov	 esp, ebp
  00032	5d		 pop	 ebp
  00033	c2 04 00	 ret	 4
??0length_error@std@@QAE@ABV?$basic_string@DU?$char_traits@D@std@@V?$allocator@D@2@@1@@Z ENDP ; std::length_error::length_error
_TEXT	ENDS
PUBLIC	??_7logic_error@std@@6B@			; std::logic_error::`vftable'
PUBLIC	??_Glogic_error@std@@UAEPAXI@Z			; std::logic_error::`scalar deleting destructor'
PUBLIC	??_R4logic_error@std@@6B@			; std::logic_error::`RTTI Complete Object Locator'
PUBLIC	??_R3logic_error@std@@8				; std::logic_error::`RTTI Class Hierarchy Descriptor'
PUBLIC	??_R2logic_error@std@@8				; std::logic_error::`RTTI Base Class Array'
EXTRN	__imp_??0exception@@QAE@XZ:NEAR
EXTRN	__imp_??1exception@@UAE@XZ:NEAR
EXTRN	??_Elogic_error@std@@UAEPAXI@Z:NEAR		; std::logic_error::`vector deleting destructor'
;	COMDAT xdata$x
xdata$x	SEGMENT
$T195776 DD	0ffffffffH
	DD	FLAT:$L195771
$T195774 DD	019930520H
	DD	01H
	DD	FLAT:$T195776
	DD	2 DUP(00H)
	DD	2 DUP(00H)
xdata$x	ENDS
;	COMDAT ??_7logic_error@std@@6B@
CONST	SEGMENT
??_7logic_error@std@@6B@ DD FLAT:??_R4logic_error@std@@6B@ ; std::logic_error::`vftable'
	DD	FLAT:??_Elogic_error@std@@UAEPAXI@Z
	DD	FLAT:?what@logic_error@std@@UBEPBDXZ
CONST	ENDS
;	COMDAT ??_R4logic_error@std@@6B@
rdata$r	SEGMENT
??_R4logic_error@std@@6B@ DD 00H			; std::logic_error::`RTTI Complete Object Locator'
	DD	00H
	DD	00H
	DD	FLAT:??_R0?AVlogic_error@std@@@8
	DD	FLAT:??_R3logic_error@std@@8
rdata$r	ENDS
;	COMDAT ??_R3logic_error@std@@8
rdata$r	SEGMENT
??_R3logic_error@std@@8 DD 00H				; std::logic_error::`RTTI Class Hierarchy Descriptor'
	DD	00H
	DD	02H
	DD	FLAT:??_R2logic_error@std@@8
rdata$r	ENDS
;	COMDAT ??_R2logic_error@std@@8
rdata$r	SEGMENT
??_R2logic_error@std@@8 DD FLAT:??_R1A@?0A@A@logic_error@std@@8 ; std::logic_error::`RTTI Base Class Array'
	DD	FLAT:??_R1A@?0A@A@exception@@8
; Function compile flags: /Odt /RTCsu
rdata$r	ENDS
;	COMDAT ??0logic_error@std@@QAE@ABV?$basic_string@DU?$char_traits@D@std@@V?$allocator@D@2@@1@@Z
_TEXT	SEGMENT
_this$ = -16						; size = 4
__$EHRec$ = -12						; size = 12
__Message$ = 8						; size = 4
??0logic_error@std@@QAE@ABV?$basic_string@DU?$char_traits@D@std@@V?$allocator@D@2@@1@@Z PROC NEAR ; std::logic_error::logic_error, COMDAT
; _this$ = ecx

; 19   : 		{	// construct from message string

  00000	55		 push	 ebp
  00001	8b ec		 mov	 ebp, esp
  00003	6a ff		 push	 -1
  00005	68 00 00 00 00	 push	 __ehhandler$??0logic_error@std@@QAE@ABV?$basic_string@DU?$char_traits@D@std@@V?$allocator@D@2@@1@@Z
  0000a	64 a1 00 00 00
	00		 mov	 eax, DWORD PTR fs:__except_list
  00010	50		 push	 eax
  00011	64 89 25 00 00
	00 00		 mov	 DWORD PTR fs:__except_list, esp
  00018	51		 push	 ecx
  00019	56		 push	 esi
  0001a	c7 45 f0 cc cc
	cc cc		 mov	 DWORD PTR [ebp-16], -858993460 ; ccccccccH
  00021	89 4d f0	 mov	 DWORD PTR _this$[ebp], ecx
  00024	8b f4		 mov	 esi, esp
  00026	8b 4d f0	 mov	 ecx, DWORD PTR _this$[ebp]
  00029	ff 15 00 00 00
	00		 call	 DWORD PTR __imp_??0exception@@QAE@XZ
  0002f	3b f4		 cmp	 esi, esp
  00031	e8 00 00 00 00	 call	 __RTC_CheckEsp
  00036	c7 45 fc 00 00
	00 00		 mov	 DWORD PTR __$EHRec$[ebp+8], 0
  0003d	8b 45 f0	 mov	 eax, DWORD PTR _this$[ebp]
  00040	c7 00 00 00 00
	00		 mov	 DWORD PTR [eax], OFFSET FLAT:??_7logic_error@std@@6B@
  00046	8b f4		 mov	 esi, esp
  00048	8b 4d 08	 mov	 ecx, DWORD PTR __Message$[ebp]
  0004b	51		 push	 ecx
  0004c	8b 4d f0	 mov	 ecx, DWORD PTR _this$[ebp]
  0004f	83 c1 0c	 add	 ecx, 12			; 0000000cH
  00052	ff 15 00 00 00
	00		 call	 DWORD PTR __imp_??0?$basic_string@DU?$char_traits@D@std@@V?$allocator@D@2@@std@@QAE@ABV01@@Z
  00058	3b f4		 cmp	 esi, esp
  0005a	e8 00 00 00 00	 call	 __RTC_CheckEsp

; 20   : 		}

  0005f	c7 45 fc ff ff
	ff ff		 mov	 DWORD PTR __$EHRec$[ebp+8], -1
  00066	8b 45 f0	 mov	 eax, DWORD PTR _this$[ebp]
  00069	8b 4d f4	 mov	 ecx, DWORD PTR __$EHRec$[ebp]
  0006c	64 89 0d 00 00
	00 00		 mov	 DWORD PTR fs:__except_list, ecx
  00073	5e		 pop	 esi
  00074	83 c4 10	 add	 esp, 16			; 00000010H
  00077	3b ec		 cmp	 ebp, esp
  00079	e8 00 00 00 00	 call	 __RTC_CheckEsp
  0007e	8b e5		 mov	 esp, ebp
  00080	5d		 pop	 ebp
  00081	c2 04 00	 ret	 4
_TEXT	ENDS
;	COMDAT text$x
text$x	SEGMENT
$L195771:
  00000	8b f4		 mov	 esi, esp
  00002	8b 4d f0	 mov	 ecx, DWORD PTR _this$[ebp]
  00005	ff 15 00 00 00
	00		 call	 DWORD PTR __imp_??1exception@@UAE@XZ
  0000b	3b f4		 cmp	 esi, esp
  0000d	e9 00 00 00 00	 jmp	 __RTC_CheckEsp
__ehhandler$??0logic_error@std@@QAE@ABV?$basic_string@DU?$char_traits@D@std@@V?$allocator@D@2@@1@@Z:
  00012	b8 00 00 00 00	 mov	 eax, OFFSET FLAT:$T195774
  00017	e9 00 00 00 00	 jmp	 ___CxxFrameHandler
text$x	ENDS
??0logic_error@std@@QAE@ABV?$basic_string@DU?$char_traits@D@std@@V?$allocator@D@2@@1@@Z ENDP ; std::logic_error::logic_error
PUBLIC	??1logic_error@std@@UAE@XZ			; std::logic_error::~logic_error
; Function compile flags: /Odt /RTCsu
;	COMDAT ??_Glogic_error@std@@UAEPAXI@Z
_TEXT	SEGMENT
_this$ = -4						; size = 4
___flags$ = 8						; size = 4
??_Glogic_error@std@@UAEPAXI@Z PROC NEAR		; std::logic_error::`scalar deleting destructor', COMDAT
; _this$ = ecx
  00000	55		 push	 ebp
  00001	8b ec		 mov	 ebp, esp
  00003	51		 push	 ecx
  00004	c7 45 fc cc cc
	cc cc		 mov	 DWORD PTR [ebp-4], -858993460 ; ccccccccH
  0000b	89 4d fc	 mov	 DWORD PTR _this$[ebp], ecx
  0000e	8b 4d fc	 mov	 ecx, DWORD PTR _this$[ebp]
  00011	e8 00 00 00 00	 call	 ??1logic_error@std@@UAE@XZ ; std::logic_error::~logic_error
  00016	8b 45 08	 mov	 eax, DWORD PTR ___flags$[ebp]
  00019	83 e0 01	 and	 eax, 1
  0001c	74 0c		 je	 SHORT $L91647
  0001e	8b 4d fc	 mov	 ecx, DWORD PTR _this$[ebp]
  00021	51		 push	 ecx
  00022	e8 00 00 00 00	 call	 ??3@YAXPAX@Z		; operator delete
  00027	83 c4 04	 add	 esp, 4
$L91647:
  0002a	8b 45 fc	 mov	 eax, DWORD PTR _this$[ebp]
  0002d	83 c4 04	 add	 esp, 4
  00030	3b ec		 cmp	 ebp, esp
  00032	e8 00 00 00 00	 call	 __RTC_CheckEsp
  00037	8b e5		 mov	 esp, ebp
  00039	5d		 pop	 ebp
  0003a	c2 04 00	 ret	 4
??_Glogic_error@std@@UAEPAXI@Z ENDP			; std::logic_error::`scalar deleting destructor'
_TEXT	ENDS
;	COMDAT xdata$x
xdata$x	SEGMENT
$T195786 DD	0ffffffffH
	DD	FLAT:$L195781
$T195784 DD	019930520H
	DD	01H
	DD	FLAT:$T195786
	DD	2 DUP(00H)
	DD	2 DUP(00H)
; Function compile flags: /Odt /RTCsu
xdata$x	ENDS
;	COMDAT ??1logic_error@std@@UAE@XZ
_TEXT	SEGMENT
_this$ = -16						; size = 4
__$EHRec$ = -12						; size = 12
??1logic_error@std@@UAE@XZ PROC NEAR			; std::logic_error::~logic_error, COMDAT
; _this$ = ecx

; 23   : 		{}	// destroy the object

  00000	55		 push	 ebp
  00001	8b ec		 mov	 ebp, esp
  00003	6a ff		 push	 -1
  00005	68 00 00 00 00	 push	 __ehhandler$??1logic_error@std@@UAE@XZ
  0000a	64 a1 00 00 00
	00		 mov	 eax, DWORD PTR fs:__except_list
  00010	50		 push	 eax
  00011	64 89 25 00 00
	00 00		 mov	 DWORD PTR fs:__except_list, esp
  00018	51		 push	 ecx
  00019	56		 push	 esi
  0001a	c7 45 f0 cc cc
	cc cc		 mov	 DWORD PTR [ebp-16], -858993460 ; ccccccccH
  00021	89 4d f0	 mov	 DWORD PTR _this$[ebp], ecx
  00024	8b 45 f0	 mov	 eax, DWORD PTR _this$[ebp]
  00027	c7 00 00 00 00
	00		 mov	 DWORD PTR [eax], OFFSET FLAT:??_7logic_error@std@@6B@
  0002d	c7 45 fc 00 00
	00 00		 mov	 DWORD PTR __$EHRec$[ebp+8], 0
  00034	8b 4d f0	 mov	 ecx, DWORD PTR _this$[ebp]
  00037	83 c1 0c	 add	 ecx, 12			; 0000000cH
  0003a	8b f4		 mov	 esi, esp
  0003c	ff 15 00 00 00
	00		 call	 DWORD PTR __imp_??1?$basic_string@DU?$char_traits@D@std@@V?$allocator@D@2@@std@@QAE@XZ
  00042	3b f4		 cmp	 esi, esp
  00044	e8 00 00 00 00	 call	 __RTC_CheckEsp
  00049	c7 45 fc ff ff
	ff ff		 mov	 DWORD PTR __$EHRec$[ebp+8], -1
  00050	8b f4		 mov	 esi, esp
  00052	8b 4d f0	 mov	 ecx, DWORD PTR _this$[ebp]
  00055	ff 15 00 00 00
	00		 call	 DWORD PTR __imp_??1exception@@UAE@XZ
  0005b	3b f4		 cmp	 esi, esp
  0005d	e8 00 00 00 00	 call	 __RTC_CheckEsp
  00062	8b 4d f4	 mov	 ecx, DWORD PTR __$EHRec$[ebp]
  00065	64 89 0d 00 00
	00 00		 mov	 DWORD PTR fs:__except_list, ecx
  0006c	5e		 pop	 esi
  0006d	83 c4 10	 add	 esp, 16			; 00000010H
  00070	3b ec		 cmp	 ebp, esp
  00072	e8 00 00 00 00	 call	 __RTC_CheckEsp
  00077	8b e5		 mov	 esp, ebp
  00079	5d		 pop	 ebp
  0007a	c3		 ret	 0
_TEXT	ENDS
;	COMDAT text$x
text$x	SEGMENT
$L195781:
  00000	8b f4		 mov	 esi, esp
  00002	8b 4d f0	 mov	 ecx, DWORD PTR _this$[ebp]
  00005	ff 15 00 00 00
	00		 call	 DWORD PTR __imp_??1exception@@UAE@XZ
  0000b	3b f4		 cmp	 esi, esp
  0000d	e9 00 00 00 00	 jmp	 __RTC_CheckEsp
__ehhandler$??1logic_error@std@@UAE@XZ:
  00012	b8 00 00 00 00	 mov	 eax, OFFSET FLAT:$T195784
  00017	e9 00 00 00 00	 jmp	 ___CxxFrameHandler
text$x	ENDS
??1logic_error@std@@UAE@XZ ENDP				; std::logic_error::~logic_error
; Function compile flags: /Odt /RTCsu
;	COMDAT ??1length_error@std@@UAE@XZ
_TEXT	SEGMENT
_this$ = -4						; size = 4
??1length_error@std@@UAE@XZ PROC NEAR			; std::length_error::~length_error, COMDAT
; _this$ = ecx

; 99   : 		{}	// destroy the object

  00000	55		 push	 ebp
  00001	8b ec		 mov	 ebp, esp
  00003	51		 push	 ecx
  00004	c7 45 fc cc cc
	cc cc		 mov	 DWORD PTR [ebp-4], -858993460 ; ccccccccH
  0000b	89 4d fc	 mov	 DWORD PTR _this$[ebp], ecx
  0000e	8b 45 fc	 mov	 eax, DWORD PTR _this$[ebp]
  00011	c7 00 00 00 00
	00		 mov	 DWORD PTR [eax], OFFSET FLAT:??_7length_error@std@@6B@
  00017	8b 4d fc	 mov	 ecx, DWORD PTR _this$[ebp]
  0001a	e8 00 00 00 00	 call	 ??1logic_error@std@@UAE@XZ ; std::logic_error::~logic_error
  0001f	83 c4 04	 add	 esp, 4
  00022	3b ec		 cmp	 ebp, esp
  00024	e8 00 00 00 00	 call	 __RTC_CheckEsp
  00029	8b e5		 mov	 esp, ebp
  0002b	5d		 pop	 ebp
  0002c	c3		 ret	 0
??1length_error@std@@UAE@XZ ENDP			; std::length_error::~length_error
; Function compile flags: /Odt /RTCsu
_TEXT	ENDS
;	COMDAT ??_Glength_error@std@@UAEPAXI@Z
_TEXT	SEGMENT
_this$ = -4						; size = 4
___flags$ = 8						; size = 4
??_Glength_error@std@@UAEPAXI@Z PROC NEAR		; std::length_error::`scalar deleting destructor', COMDAT
; _this$ = ecx
  00000	55		 push	 ebp
  00001	8b ec		 mov	 ebp, esp
  00003	51		 push	 ecx
  00004	c7 45 fc cc cc
	cc cc		 mov	 DWORD PTR [ebp-4], -858993460 ; ccccccccH
  0000b	89 4d fc	 mov	 DWORD PTR _this$[ebp], ecx
  0000e	8b 4d fc	 mov	 ecx, DWORD PTR _this$[ebp]
  00011	e8 00 00 00 00	 call	 ??1length_error@std@@UAE@XZ ; std::length_error::~length_error
  00016	8b 45 08	 mov	 eax, DWORD PTR ___flags$[ebp]
  00019	83 e0 01	 and	 eax, 1
  0001c	74 0c		 je	 SHORT $L91713
  0001e	8b 4d fc	 mov	 ecx, DWORD PTR _this$[ebp]
  00021	51		 push	 ecx
  00022	e8 00 00 00 00	 call	 ??3@YAXPAX@Z		; operator delete
  00027	83 c4 04	 add	 esp, 4
$L91713:
  0002a	8b 45 fc	 mov	 eax, DWORD PTR _this$[ebp]
  0002d	83 c4 04	 add	 esp, 4
  00030	3b ec		 cmp	 ebp, esp
  00032	e8 00 00 00 00	 call	 __RTC_CheckEsp
  00037	8b e5		 mov	 esp, ebp
  00039	5d		 pop	 ebp
  0003a	c2 04 00	 ret	 4
??_Glength_error@std@@UAEPAXI@Z ENDP			; std::length_error::`scalar deleting destructor'
; Function compile flags: /Odt /RTCsu
; File d:\boxgit\playbox\playbox\dev\prj\playbox\src\core\imessageobserver.h
_TEXT	ENDS
;	COMDAT ??1IMessageObserver@@UAE@XZ
_TEXT	SEGMENT
_this$ = -4						; size = 4
??1IMessageObserver@@UAE@XZ PROC NEAR			; IMessageObserver::~IMessageObserver, COMDAT
; _this$ = ecx

; 16   : 	virtual ~IMessageObserver(){};

  00000	55		 push	 ebp
  00001	8b ec		 mov	 ebp, esp
  00003	51		 push	 ecx
  00004	c7 45 fc cc cc
	cc cc		 mov	 DWORD PTR [ebp-4], -858993460 ; ccccccccH
  0000b	89 4d fc	 mov	 DWORD PTR _this$[ebp], ecx
  0000e	8b 45 fc	 mov	 eax, DWORD PTR _this$[ebp]
  00011	c7 00 00 00 00
	00		 mov	 DWORD PTR [eax], OFFSET FLAT:??_7IMessageObserver@@6B@
  00017	8b e5		 mov	 esp, ebp
  00019	5d		 pop	 ebp
  0001a	c3		 ret	 0
??1IMessageObserver@@UAE@XZ ENDP			; IMessageObserver::~IMessageObserver
; Function compile flags: /Odt /RTCsu
_TEXT	ENDS
;	COMDAT ??_GIMessageObserver@@UAEPAXI@Z
_TEXT	SEGMENT
_this$ = -4						; size = 4
___flags$ = 8						; size = 4
??_GIMessageObserver@@UAEPAXI@Z PROC NEAR		; IMessageObserver::`scalar deleting destructor', COMDAT
; _this$ = ecx
  00000	55		 push	 ebp
  00001	8b ec		 mov	 ebp, esp
  00003	51		 push	 ecx
  00004	c7 45 fc cc cc
	cc cc		 mov	 DWORD PTR [ebp-4], -858993460 ; ccccccccH
  0000b	89 4d fc	 mov	 DWORD PTR _this$[ebp], ecx
  0000e	8b 4d fc	 mov	 ecx, DWORD PTR _this$[ebp]
  00011	e8 00 00 00 00	 call	 ??1IMessageObserver@@UAE@XZ ; IMessageObserver::~IMessageObserver
  00016	8b 45 08	 mov	 eax, DWORD PTR ___flags$[ebp]
  00019	83 e0 01	 and	 eax, 1
  0001c	74 0c		 je	 SHORT $L99513
  0001e	8b 4d fc	 mov	 ecx, DWORD PTR _this$[ebp]
  00021	51		 push	 ecx
  00022	e8 00 00 00 00	 call	 ??3@YAXPAX@Z		; operator delete
  00027	83 c4 04	 add	 esp, 4
$L99513:
  0002a	8b 45 fc	 mov	 eax, DWORD PTR _this$[ebp]
  0002d	83 c4 04	 add	 esp, 4
  00030	3b ec		 cmp	 ebp, esp
  00032	e8 00 00 00 00	 call	 __RTC_CheckEsp
  00037	8b e5		 mov	 esp, ebp
  00039	5d		 pop	 ebp
  0003a	c2 04 00	 ret	 4
??_GIMessageObserver@@UAEPAXI@Z ENDP			; IMessageObserver::`scalar deleting destructor'
; Function compile flags: /Odt /RTCsu
; File d:\program files (x86)\microsoft visual studio .net 2003\vc7\platformsdk\include\gdiplustypes.h
_TEXT	ENDS
;	COMDAT ??0Rect@Gdiplus@@QAE@HHHH@Z
_TEXT	SEGMENT
_this$ = -4						; size = 4
_x$ = 8							; size = 4
_y$ = 12						; size = 4
_width$ = 16						; size = 4
_height$ = 20						; size = 4
??0Rect@Gdiplus@@QAE@HHHH@Z PROC NEAR			; Gdiplus::Rect::Rect, COMDAT
; _this$ = ecx

; 527  :     Rect(IN INT x,

  00000	55		 push	 ebp
  00001	8b ec		 mov	 ebp, esp
  00003	51		 push	 ecx
  00004	c7 45 fc cc cc
	cc cc		 mov	 DWORD PTR [ebp-4], -858993460 ; ccccccccH
  0000b	89 4d fc	 mov	 DWORD PTR _this$[ebp], ecx

; 528  :          IN INT y,
; 529  :          IN INT width,
; 530  :          IN INT height)
; 531  :     {
; 532  :         X = x;

  0000e	8b 45 fc	 mov	 eax, DWORD PTR _this$[ebp]
  00011	8b 4d 08	 mov	 ecx, DWORD PTR _x$[ebp]
  00014	89 08		 mov	 DWORD PTR [eax], ecx

; 533  :         Y = y;

  00016	8b 55 fc	 mov	 edx, DWORD PTR _this$[ebp]
  00019	8b 45 0c	 mov	 eax, DWORD PTR _y$[ebp]
  0001c	89 42 04	 mov	 DWORD PTR [edx+4], eax

; 534  :         Width = width;

  0001f	8b 4d fc	 mov	 ecx, DWORD PTR _this$[ebp]
  00022	8b 55 10	 mov	 edx, DWORD PTR _width$[ebp]
  00025	89 51 08	 mov	 DWORD PTR [ecx+8], edx

; 535  :         Height = height;

  00028	8b 45 fc	 mov	 eax, DWORD PTR _this$[ebp]
  0002b	8b 4d 14	 mov	 ecx, DWORD PTR _height$[ebp]
  0002e	89 48 0c	 mov	 DWORD PTR [eax+12], ecx

; 536  :     }

  00031	8b 45 fc	 mov	 eax, DWORD PTR _this$[ebp]
  00034	8b e5		 mov	 esp, ebp
  00036	5d		 pop	 ebp
  00037	c2 10 00	 ret	 16			; 00000010H
??0Rect@Gdiplus@@QAE@HHHH@Z ENDP			; Gdiplus::Rect::Rect
_TEXT	ENDS
PUBLIC	?SetNativeGraphics@Graphics@Gdiplus@@IAEXPAVGpGraphics@2@@Z ; Gdiplus::Graphics::SetNativeGraphics
EXTRN	_GdipCreateFromHDC@8:NEAR
; Function compile flags: /Odt /RTCsu
; File d:\program files (x86)\microsoft visual studio .net 2003\vc7\platformsdk\include\gdiplusgraphics.h
;	COMDAT ??0Graphics@Gdiplus@@QAE@PAUHDC__@@@Z
_TEXT	SEGMENT
_graphics$ = -12					; size = 4
_this$ = -4						; size = 4
_hdc$ = 8						; size = 4
??0Graphics@Gdiplus@@QAE@PAUHDC__@@@Z PROC NEAR		; Gdiplus::Graphics::Graphics, COMDAT
; _this$ = ecx

; 53   :     Graphics(IN HDC hdc)

  00000	55		 push	 ebp
  00001	8b ec		 mov	 ebp, esp
  00003	83 ec 10	 sub	 esp, 16			; 00000010H
  00006	b8 cc cc cc cc	 mov	 eax, -858993460		; ccccccccH
  0000b	89 45 f0	 mov	 DWORD PTR [ebp-16], eax
  0000e	89 45 f4	 mov	 DWORD PTR [ebp-12], eax
  00011	89 45 f8	 mov	 DWORD PTR [ebp-8], eax
  00014	89 45 fc	 mov	 DWORD PTR [ebp-4], eax
  00017	89 4d fc	 mov	 DWORD PTR _this$[ebp], ecx

; 54   :     {
; 55   :         GpGraphics *graphics = NULL;

  0001a	c7 45 f4 00 00
	00 00		 mov	 DWORD PTR _graphics$[ebp], 0

; 56   : 
; 57   :         lastResult = DllExports::GdipCreateFromHDC(hdc, &graphics);

  00021	8d 45 f4	 lea	 eax, DWORD PTR _graphics$[ebp]
  00024	50		 push	 eax
  00025	8b 4d 08	 mov	 ecx, DWORD PTR _hdc$[ebp]
  00028	51		 push	 ecx
  00029	e8 00 00 00 00	 call	 _GdipCreateFromHDC@8
  0002e	8b 55 fc	 mov	 edx, DWORD PTR _this$[ebp]
  00031	89 42 04	 mov	 DWORD PTR [edx+4], eax

; 58   : 
; 59   :         SetNativeGraphics(graphics);

  00034	8b 45 f4	 mov	 eax, DWORD PTR _graphics$[ebp]
  00037	50		 push	 eax
  00038	8b 4d fc	 mov	 ecx, DWORD PTR _this$[ebp]
  0003b	e8 00 00 00 00	 call	 ?SetNativeGraphics@Graphics@Gdiplus@@IAEXPAVGpGraphics@2@@Z ; Gdiplus::Graphics::SetNativeGraphics

; 60   :     }

  00040	8b 45 fc	 mov	 eax, DWORD PTR _this$[ebp]
  00043	52		 push	 edx
  00044	8b cd		 mov	 ecx, ebp
  00046	50		 push	 eax
  00047	8d 15 00 00 00
	00		 lea	 edx, DWORD PTR $L195798
  0004d	e8 00 00 00 00	 call	 @_RTC_CheckStackVars@8
  00052	58		 pop	 eax
  00053	5a		 pop	 edx
  00054	83 c4 10	 add	 esp, 16			; 00000010H
  00057	3b ec		 cmp	 ebp, esp
  00059	e8 00 00 00 00	 call	 __RTC_CheckEsp
  0005e	8b e5		 mov	 esp, ebp
  00060	5d		 pop	 ebp
  00061	c2 04 00	 ret	 4
$L195798:
  00064	01 00 00 00	 DD	 1
  00068	00 00 00 00	 DD	 $L195797
$L195797:
  0006c	f4 ff ff ff	 DD	 -12			; fffffff4H
  00070	04 00 00 00	 DD	 4
  00074	00 00 00 00	 DD	 $L195796
$L195796:
  00078	67		 DB	 103			; 00000067H
  00079	72		 DB	 114			; 00000072H
  0007a	61		 DB	 97			; 00000061H
  0007b	70		 DB	 112			; 00000070H
  0007c	68		 DB	 104			; 00000068H
  0007d	69		 DB	 105			; 00000069H
  0007e	63		 DB	 99			; 00000063H
  0007f	73		 DB	 115			; 00000073H
  00080	00		 DB	 0
??0Graphics@Gdiplus@@QAE@PAUHDC__@@@Z ENDP		; Gdiplus::Graphics::Graphics
_TEXT	ENDS
EXTRN	_GdipDeleteGraphics@4:NEAR
; Function compile flags: /Odt /RTCsu
;	COMDAT ??1Graphics@Gdiplus@@QAE@XZ
_TEXT	SEGMENT
_this$ = -4						; size = 4
??1Graphics@Gdiplus@@QAE@XZ PROC NEAR			; Gdiplus::Graphics::~Graphics, COMDAT
; _this$ = ecx

; 102  :     {

  00000	55		 push	 ebp
  00001	8b ec		 mov	 ebp, esp
  00003	51		 push	 ecx
  00004	c7 45 fc cc cc
	cc cc		 mov	 DWORD PTR [ebp-4], -858993460 ; ccccccccH
  0000b	89 4d fc	 mov	 DWORD PTR _this$[ebp], ecx

; 103  :         DllExports::GdipDeleteGraphics(nativeGraphics);

  0000e	8b 45 fc	 mov	 eax, DWORD PTR _this$[ebp]
  00011	8b 08		 mov	 ecx, DWORD PTR [eax]
  00013	51		 push	 ecx
  00014	e8 00 00 00 00	 call	 _GdipDeleteGraphics@4

; 104  :     }

  00019	83 c4 04	 add	 esp, 4
  0001c	3b ec		 cmp	 ebp, esp
  0001e	e8 00 00 00 00	 call	 __RTC_CheckEsp
  00023	8b e5		 mov	 esp, ebp
  00025	5d		 pop	 ebp
  00026	c3		 ret	 0
??1Graphics@Gdiplus@@QAE@XZ ENDP			; Gdiplus::Graphics::~Graphics
_TEXT	ENDS
PUBLIC	?DrawImage@Graphics@Gdiplus@@QAE?AW4Status@2@PAVImage@2@HHHH@Z ; Gdiplus::Graphics::DrawImage
; Function compile flags: /Odt /RTCsu
;	COMDAT ?DrawImage@Graphics@Gdiplus@@QAE?AW4Status@2@PAVImage@2@ABVRect@2@@Z
_TEXT	SEGMENT
_this$ = -4						; size = 4
_image$ = 8						; size = 4
_rect$ = 12						; size = 4
?DrawImage@Graphics@Gdiplus@@QAE?AW4Status@2@PAVImage@2@ABVRect@2@@Z PROC NEAR ; Gdiplus::Graphics::DrawImage, COMDAT
; _this$ = ecx

; 1546 :     {

  00000	55		 push	 ebp
  00001	8b ec		 mov	 ebp, esp
  00003	51		 push	 ecx
  00004	c7 45 fc cc cc
	cc cc		 mov	 DWORD PTR [ebp-4], -858993460 ; ccccccccH
  0000b	89 4d fc	 mov	 DWORD PTR _this$[ebp], ecx

; 1547 :         return DrawImage(image,
; 1548 :                          rect.X,
; 1549 :                          rect.Y,
; 1550 :                          rect.Width,
; 1551 :                          rect.Height);

  0000e	8b 45 0c	 mov	 eax, DWORD PTR _rect$[ebp]
  00011	8b 48 0c	 mov	 ecx, DWORD PTR [eax+12]
  00014	51		 push	 ecx
  00015	8b 55 0c	 mov	 edx, DWORD PTR _rect$[ebp]
  00018	8b 42 08	 mov	 eax, DWORD PTR [edx+8]
  0001b	50		 push	 eax
  0001c	8b 4d 0c	 mov	 ecx, DWORD PTR _rect$[ebp]
  0001f	8b 51 04	 mov	 edx, DWORD PTR [ecx+4]
  00022	52		 push	 edx
  00023	8b 45 0c	 mov	 eax, DWORD PTR _rect$[ebp]
  00026	8b 08		 mov	 ecx, DWORD PTR [eax]
  00028	51		 push	 ecx
  00029	8b 55 08	 mov	 edx, DWORD PTR _image$[ebp]
  0002c	52		 push	 edx
  0002d	8b 4d fc	 mov	 ecx, DWORD PTR _this$[ebp]
  00030	e8 00 00 00 00	 call	 ?DrawImage@Graphics@Gdiplus@@QAE?AW4Status@2@PAVImage@2@HHHH@Z ; Gdiplus::Graphics::DrawImage

; 1552 :     }

  00035	83 c4 04	 add	 esp, 4
  00038	3b ec		 cmp	 ebp, esp
  0003a	e8 00 00 00 00	 call	 __RTC_CheckEsp
  0003f	8b e5		 mov	 esp, ebp
  00041	5d		 pop	 ebp
  00042	c2 08 00	 ret	 8
?DrawImage@Graphics@Gdiplus@@QAE?AW4Status@2@PAVImage@2@ABVRect@2@@Z ENDP ; Gdiplus::Graphics::DrawImage
_TEXT	ENDS
PUBLIC	?SetStatus@Graphics@Gdiplus@@IBE?AW4Status@2@W432@@Z ; Gdiplus::Graphics::SetStatus
EXTRN	_GdipDrawImageRectI@24:NEAR
; Function compile flags: /Odt /RTCsu
;	COMDAT ?DrawImage@Graphics@Gdiplus@@QAE?AW4Status@2@PAVImage@2@HHHH@Z
_TEXT	SEGMENT
tv73 = -8						; size = 4
_this$ = -4						; size = 4
_image$ = 8						; size = 4
_x$ = 12						; size = 4
_y$ = 16						; size = 4
_width$ = 20						; size = 4
_height$ = 24						; size = 4
?DrawImage@Graphics@Gdiplus@@QAE?AW4Status@2@PAVImage@2@HHHH@Z PROC NEAR ; Gdiplus::Graphics::DrawImage, COMDAT
; _this$ = ecx

; 1558 :                      IN INT height) {

  00000	55		 push	 ebp
  00001	8b ec		 mov	 ebp, esp
  00003	83 ec 08	 sub	 esp, 8
  00006	c7 45 f8 cc cc
	cc cc		 mov	 DWORD PTR [ebp-8], -858993460 ; ccccccccH
  0000d	c7 45 fc cc cc
	cc cc		 mov	 DWORD PTR [ebp-4], -858993460 ; ccccccccH
  00014	89 4d fc	 mov	 DWORD PTR _this$[ebp], ecx

; 1559 :         return SetStatus(DllExports::GdipDrawImageRectI(nativeGraphics,
; 1560 :                                                         image ? image->nativeImage
; 1561 :                                                               : NULL,
; 1562 :                                                         x,
; 1563 :                                                         y,
; 1564 :                                                         width,
; 1565 :                                                         height));

  00017	83 7d 08 00	 cmp	 DWORD PTR _image$[ebp], 0
  0001b	74 0b		 je	 SHORT $L195802
  0001d	8b 45 08	 mov	 eax, DWORD PTR _image$[ebp]
  00020	8b 48 04	 mov	 ecx, DWORD PTR [eax+4]
  00023	89 4d f8	 mov	 DWORD PTR tv73[ebp], ecx
  00026	eb 07		 jmp	 SHORT $L195803
$L195802:
  00028	c7 45 f8 00 00
	00 00		 mov	 DWORD PTR tv73[ebp], 0
$L195803:
  0002f	8b 55 18	 mov	 edx, DWORD PTR _height$[ebp]
  00032	52		 push	 edx
  00033	8b 45 14	 mov	 eax, DWORD PTR _width$[ebp]
  00036	50		 push	 eax
  00037	8b 4d 10	 mov	 ecx, DWORD PTR _y$[ebp]
  0003a	51		 push	 ecx
  0003b	8b 55 0c	 mov	 edx, DWORD PTR _x$[ebp]
  0003e	52		 push	 edx
  0003f	8b 45 f8	 mov	 eax, DWORD PTR tv73[ebp]
  00042	50		 push	 eax
  00043	8b 4d fc	 mov	 ecx, DWORD PTR _this$[ebp]
  00046	8b 11		 mov	 edx, DWORD PTR [ecx]
  00048	52		 push	 edx
  00049	e8 00 00 00 00	 call	 _GdipDrawImageRectI@24
  0004e	50		 push	 eax
  0004f	8b 4d fc	 mov	 ecx, DWORD PTR _this$[ebp]
  00052	e8 00 00 00 00	 call	 ?SetStatus@Graphics@Gdiplus@@IBE?AW4Status@2@W432@@Z ; Gdiplus::Graphics::SetStatus

; 1566 :     }

  00057	83 c4 08	 add	 esp, 8
  0005a	3b ec		 cmp	 ebp, esp
  0005c	e8 00 00 00 00	 call	 __RTC_CheckEsp
  00061	8b e5		 mov	 esp, ebp
  00063	5d		 pop	 ebp
  00064	c2 14 00	 ret	 20			; 00000014H
?DrawImage@Graphics@Gdiplus@@QAE?AW4Status@2@PAVImage@2@HHHH@Z ENDP ; Gdiplus::Graphics::DrawImage
; Function compile flags: /Odt /RTCsu
_TEXT	ENDS
;	COMDAT ?SetNativeGraphics@Graphics@Gdiplus@@IAEXPAVGpGraphics@2@@Z
_TEXT	SEGMENT
_this$ = -4						; size = 4
_graphics$ = 8						; size = 4
?SetNativeGraphics@Graphics@Gdiplus@@IAEXPAVGpGraphics@2@@Z PROC NEAR ; Gdiplus::Graphics::SetNativeGraphics, COMDAT
; _this$ = ecx

; 2339 :     {

  00000	55		 push	 ebp
  00001	8b ec		 mov	 ebp, esp
  00003	51		 push	 ecx
  00004	c7 45 fc cc cc
	cc cc		 mov	 DWORD PTR [ebp-4], -858993460 ; ccccccccH
  0000b	89 4d fc	 mov	 DWORD PTR _this$[ebp], ecx

; 2340 :         this->nativeGraphics = graphics;

  0000e	8b 45 fc	 mov	 eax, DWORD PTR _this$[ebp]
  00011	8b 4d 08	 mov	 ecx, DWORD PTR _graphics$[ebp]
  00014	89 08		 mov	 DWORD PTR [eax], ecx

; 2341 :     }

  00016	8b e5		 mov	 esp, ebp
  00018	5d		 pop	 ebp
  00019	c2 04 00	 ret	 4
?SetNativeGraphics@Graphics@Gdiplus@@IAEXPAVGpGraphics@2@@Z ENDP ; Gdiplus::Graphics::SetNativeGraphics
; Function compile flags: /Odt /RTCsu
_TEXT	ENDS
;	COMDAT ?SetStatus@Graphics@Gdiplus@@IBE?AW4Status@2@W432@@Z
_TEXT	SEGMENT
_this$ = -4						; size = 4
_status$ = 8						; size = 4
?SetStatus@Graphics@Gdiplus@@IBE?AW4Status@2@W432@@Z PROC NEAR ; Gdiplus::Graphics::SetStatus, COMDAT
; _this$ = ecx

; 2344 :     {

  00000	55		 push	 ebp
  00001	8b ec		 mov	 ebp, esp
  00003	51		 push	 ecx
  00004	c7 45 fc cc cc
	cc cc		 mov	 DWORD PTR [ebp-4], -858993460 ; ccccccccH
  0000b	89 4d fc	 mov	 DWORD PTR _this$[ebp], ecx

; 2345 :         if (status != Ok)

  0000e	83 7d 08 00	 cmp	 DWORD PTR _status$[ebp], 0
  00012	74 0e		 je	 SHORT $L116181

; 2346 :             return (lastResult = status);

  00014	8b 45 fc	 mov	 eax, DWORD PTR _this$[ebp]
  00017	8b 4d 08	 mov	 ecx, DWORD PTR _status$[ebp]
  0001a	89 48 04	 mov	 DWORD PTR [eax+4], ecx
  0001d	8b 45 08	 mov	 eax, DWORD PTR _status$[ebp]
  00020	eb 03		 jmp	 SHORT $L116180
$L116181:

; 2347 :         else
; 2348 :             return status;

  00022	8b 45 08	 mov	 eax, DWORD PTR _status$[ebp]
$L116180:

; 2349 :     }

  00025	8b e5		 mov	 esp, ebp
  00027	5d		 pop	 ebp
  00028	c2 04 00	 ret	 4
?SetStatus@Graphics@Gdiplus@@IBE?AW4Status@2@W432@@Z ENDP ; Gdiplus::Graphics::SetStatus
_TEXT	ENDS
PUBLIC	??_R13?0A@A@GdiplusBase@Gdiplus@@8		; Gdiplus::GdiplusBase::`RTTI Base Class Descriptor at (4,-1,0,0)'
PUBLIC	??_R0?AVGdiplusBase@Gdiplus@@@8			; Gdiplus::GdiplusBase `RTTI Type Descriptor'
PUBLIC	??_R1A@?0A@A@Image@Gdiplus@@8			; Gdiplus::Image::`RTTI Base Class Descriptor at (0,-1,0,0)'
PUBLIC	??_R0?AVImage@Gdiplus@@@8			; Gdiplus::Image `RTTI Type Descriptor'
PUBLIC	??_R4Image@Gdiplus@@6B@				; Gdiplus::Image::`RTTI Complete Object Locator'
PUBLIC	??_R3Image@Gdiplus@@8				; Gdiplus::Image::`RTTI Class Hierarchy Descriptor'
PUBLIC	??_R2Image@Gdiplus@@8				; Gdiplus::Image::`RTTI Base Class Array'
PUBLIC	??_7Image@Gdiplus@@6B@				; Gdiplus::Image::`vftable'
PUBLIC	??_GImage@Gdiplus@@UAEPAXI@Z			; Gdiplus::Image::`scalar deleting destructor'
EXTRN	_GdipLoadImageFromFile@8:NEAR
EXTRN	_GdipLoadImageFromFileICM@8:NEAR
EXTRN	??_EImage@Gdiplus@@UAEPAXI@Z:NEAR		; Gdiplus::Image::`vector deleting destructor'
;	COMDAT ??_7Image@Gdiplus@@6B@
; File d:\program files (x86)\microsoft visual studio .net 2003\vc7\platformsdk\include\gdiplusbitmap.h
CONST	SEGMENT
??_7Image@Gdiplus@@6B@ DD FLAT:??_R4Image@Gdiplus@@6B@	; Gdiplus::Image::`vftable'
	DD	FLAT:??_EImage@Gdiplus@@UAEPAXI@Z
	DD	FLAT:?Clone@Image@Gdiplus@@UAEPAV12@XZ
CONST	ENDS
;	COMDAT ??_R4Image@Gdiplus@@6B@
rdata$r	SEGMENT
??_R4Image@Gdiplus@@6B@ DD 00H				; Gdiplus::Image::`RTTI Complete Object Locator'
	DD	00H
	DD	00H
	DD	FLAT:??_R0?AVImage@Gdiplus@@@8
	DD	FLAT:??_R3Image@Gdiplus@@8
rdata$r	ENDS
;	COMDAT ??_R0?AVImage@Gdiplus@@@8
_DATA	SEGMENT
??_R0?AVImage@Gdiplus@@@8 DD FLAT:??_7type_info@@6B@	; Gdiplus::Image `RTTI Type Descriptor'
	DD	00H
	DB	'.?AVImage@Gdiplus@@', 00H
_DATA	ENDS
;	COMDAT ??_R3Image@Gdiplus@@8
rdata$r	SEGMENT
??_R3Image@Gdiplus@@8 DD 00H				; Gdiplus::Image::`RTTI Class Hierarchy Descriptor'
	DD	00H
	DD	02H
	DD	FLAT:??_R2Image@Gdiplus@@8
rdata$r	ENDS
;	COMDAT ??_R2Image@Gdiplus@@8
rdata$r	SEGMENT
??_R2Image@Gdiplus@@8 DD FLAT:??_R1A@?0A@A@Image@Gdiplus@@8 ; Gdiplus::Image::`RTTI Base Class Array'
	DD	FLAT:??_R13?0A@A@GdiplusBase@Gdiplus@@8
rdata$r	ENDS
;	COMDAT ??_R1A@?0A@A@Image@Gdiplus@@8
rdata$r	SEGMENT
??_R1A@?0A@A@Image@Gdiplus@@8 DD FLAT:??_R0?AVImage@Gdiplus@@@8 ; Gdiplus::Image::`RTTI Base Class Descriptor at (0,-1,0,0)'
	DD	01H
	DD	00H
	DD	0ffffffffH
	DD	00H
	DD	00H
rdata$r	ENDS
;	COMDAT ??_R13?0A@A@GdiplusBase@Gdiplus@@8
rdata$r	SEGMENT
??_R13?0A@A@GdiplusBase@Gdiplus@@8 DD FLAT:??_R0?AVGdiplusBase@Gdiplus@@@8 ; Gdiplus::GdiplusBase::`RTTI Base Class Descriptor at (4,-1,0,0)'
	DD	00H
	DD	04H
	DD	0ffffffffH
	DD	00H
	DD	00H
rdata$r	ENDS
;	COMDAT ??_R0?AVGdiplusBase@Gdiplus@@@8
_DATA	SEGMENT
??_R0?AVGdiplusBase@Gdiplus@@@8 DD FLAT:??_7type_info@@6B@ ; Gdiplus::GdiplusBase `RTTI Type Descriptor'
	DD	00H
	DB	'.?AVGdiplusBase@Gdiplus@@', 00H
; Function compile flags: /Odt /RTCsu
_DATA	ENDS
;	COMDAT ??0Image@Gdiplus@@QAE@PB_WH@Z
_TEXT	SEGMENT
_this$ = -4						; size = 4
_filename$ = 8						; size = 4
_useEmbeddedColorManagement$ = 12			; size = 4
??0Image@Gdiplus@@QAE@PB_WH@Z PROC NEAR			; Gdiplus::Image::Image, COMDAT
; _this$ = ecx

; 23   : {

  00000	55		 push	 ebp
  00001	8b ec		 mov	 ebp, esp
  00003	51		 push	 ecx
  00004	c7 45 fc cc cc
	cc cc		 mov	 DWORD PTR [ebp-4], -858993460 ; ccccccccH
  0000b	89 4d fc	 mov	 DWORD PTR _this$[ebp], ecx
  0000e	8b 45 fc	 mov	 eax, DWORD PTR _this$[ebp]
  00011	c7 00 00 00 00
	00		 mov	 DWORD PTR [eax], OFFSET FLAT:??_7Image@Gdiplus@@6B@

; 24   :     nativeImage = NULL;

  00017	8b 4d fc	 mov	 ecx, DWORD PTR _this$[ebp]
  0001a	c7 41 04 00 00
	00 00		 mov	 DWORD PTR [ecx+4], 0

; 25   :     if(useEmbeddedColorManagement)

  00021	83 7d 0c 00	 cmp	 DWORD PTR _useEmbeddedColorManagement$[ebp], 0
  00025	74 18		 je	 SHORT $L116797

; 26   :     {
; 27   :         lastResult = DllExports::GdipLoadImageFromFileICM(
; 28   :             filename, 
; 29   :             &nativeImage
; 30   :         );

  00027	8b 55 fc	 mov	 edx, DWORD PTR _this$[ebp]
  0002a	83 c2 04	 add	 edx, 4
  0002d	52		 push	 edx
  0002e	8b 45 08	 mov	 eax, DWORD PTR _filename$[ebp]
  00031	50		 push	 eax
  00032	e8 00 00 00 00	 call	 _GdipLoadImageFromFileICM@8
  00037	8b 4d fc	 mov	 ecx, DWORD PTR _this$[ebp]
  0003a	89 41 08	 mov	 DWORD PTR [ecx+8], eax

; 31   :     }
; 32   :     else

  0003d	eb 16		 jmp	 SHORT $L116796
$L116797:

; 33   :     {      
; 34   :         lastResult = DllExports::GdipLoadImageFromFile(
; 35   :             filename, 
; 36   :             &nativeImage
; 37   :         );

  0003f	8b 55 fc	 mov	 edx, DWORD PTR _this$[ebp]
  00042	83 c2 04	 add	 edx, 4
  00045	52		 push	 edx
  00046	8b 45 08	 mov	 eax, DWORD PTR _filename$[ebp]
  00049	50		 push	 eax
  0004a	e8 00 00 00 00	 call	 _GdipLoadImageFromFile@8
  0004f	8b 4d fc	 mov	 ecx, DWORD PTR _this$[ebp]
  00052	89 41 08	 mov	 DWORD PTR [ecx+8], eax
$L116796:

; 38   :     }
; 39   : }

  00055	8b 45 fc	 mov	 eax, DWORD PTR _this$[ebp]
  00058	83 c4 04	 add	 esp, 4
  0005b	3b ec		 cmp	 ebp, esp
  0005d	e8 00 00 00 00	 call	 __RTC_CheckEsp
  00062	8b e5		 mov	 esp, ebp
  00064	5d		 pop	 ebp
  00065	c2 08 00	 ret	 8
??0Image@Gdiplus@@QAE@PB_WH@Z ENDP			; Gdiplus::Image::Image
_TEXT	ENDS
PUBLIC	??3GdiplusBase@Gdiplus@@SAXPAX@Z		; Gdiplus::GdiplusBase::operator delete
; Function compile flags: /Odt /RTCsu
;	COMDAT ??_GImage@Gdiplus@@UAEPAXI@Z
_TEXT	SEGMENT
_this$ = -4						; size = 4
___flags$ = 8						; size = 4
??_GImage@Gdiplus@@UAEPAXI@Z PROC NEAR			; Gdiplus::Image::`scalar deleting destructor', COMDAT
; _this$ = ecx
  00000	55		 push	 ebp
  00001	8b ec		 mov	 ebp, esp
  00003	51		 push	 ecx
  00004	c7 45 fc cc cc
	cc cc		 mov	 DWORD PTR [ebp-4], -858993460 ; ccccccccH
  0000b	89 4d fc	 mov	 DWORD PTR _this$[ebp], ecx
  0000e	8b 4d fc	 mov	 ecx, DWORD PTR _this$[ebp]
  00011	e8 00 00 00 00	 call	 ??1Image@Gdiplus@@UAE@XZ ; Gdiplus::Image::~Image
  00016	8b 45 08	 mov	 eax, DWORD PTR ___flags$[ebp]
  00019	83 e0 01	 and	 eax, 1
  0001c	74 0c		 je	 SHORT $L109528
  0001e	8b 4d fc	 mov	 ecx, DWORD PTR _this$[ebp]
  00021	51		 push	 ecx
  00022	e8 00 00 00 00	 call	 ??3GdiplusBase@Gdiplus@@SAXPAX@Z ; Gdiplus::GdiplusBase::operator delete
  00027	83 c4 04	 add	 esp, 4
$L109528:
  0002a	8b 45 fc	 mov	 eax, DWORD PTR _this$[ebp]
  0002d	83 c4 04	 add	 esp, 4
  00030	3b ec		 cmp	 ebp, esp
  00032	e8 00 00 00 00	 call	 __RTC_CheckEsp
  00037	8b e5		 mov	 esp, ebp
  00039	5d		 pop	 ebp
  0003a	c2 04 00	 ret	 4
??_GImage@Gdiplus@@UAEPAXI@Z ENDP			; Gdiplus::Image::`scalar deleting destructor'
_TEXT	ENDS
EXTRN	_GdipFree@4:NEAR
; Function compile flags: /Odt /RTCsu
; File d:\program files (x86)\microsoft visual studio .net 2003\vc7\platformsdk\include\gdiplusbase.h
;	COMDAT ??3GdiplusBase@Gdiplus@@SAXPAX@Z
_TEXT	SEGMENT
_in_pVoid$ = 8						; size = 4
??3GdiplusBase@Gdiplus@@SAXPAX@Z PROC NEAR		; Gdiplus::GdiplusBase::operator delete, COMDAT

; 22   :     {

  00000	55		 push	 ebp
  00001	8b ec		 mov	 ebp, esp

; 23   :        DllExports::GdipFree(in_pVoid);

  00003	8b 45 08	 mov	 eax, DWORD PTR _in_pVoid$[ebp]
  00006	50		 push	 eax
  00007	e8 00 00 00 00	 call	 _GdipFree@4

; 24   :     }

  0000c	3b ec		 cmp	 ebp, esp
  0000e	e8 00 00 00 00	 call	 __RTC_CheckEsp
  00013	5d		 pop	 ebp
  00014	c3		 ret	 0
??3GdiplusBase@Gdiplus@@SAXPAX@Z ENDP			; Gdiplus::GdiplusBase::operator delete
_TEXT	ENDS
EXTRN	_GdipDisposeImage@4:NEAR
; Function compile flags: /Odt /RTCsu
; File d:\program files (x86)\microsoft visual studio .net 2003\vc7\platformsdk\include\gdiplusbitmap.h
;	COMDAT ??1Image@Gdiplus@@UAE@XZ
_TEXT	SEGMENT
_this$ = -4						; size = 4
??1Image@Gdiplus@@UAE@XZ PROC NEAR			; Gdiplus::Image::~Image, COMDAT
; _this$ = ecx

; 90   : {

  00000	55		 push	 ebp
  00001	8b ec		 mov	 ebp, esp
  00003	51		 push	 ecx
  00004	c7 45 fc cc cc
	cc cc		 mov	 DWORD PTR [ebp-4], -858993460 ; ccccccccH
  0000b	89 4d fc	 mov	 DWORD PTR _this$[ebp], ecx
  0000e	8b 45 fc	 mov	 eax, DWORD PTR _this$[ebp]
  00011	c7 00 00 00 00
	00		 mov	 DWORD PTR [eax], OFFSET FLAT:??_7Image@Gdiplus@@6B@

; 91   :     DllExports::GdipDisposeImage(nativeImage);

  00017	8b 4d fc	 mov	 ecx, DWORD PTR _this$[ebp]
  0001a	8b 51 04	 mov	 edx, DWORD PTR [ecx+4]
  0001d	52		 push	 edx
  0001e	e8 00 00 00 00	 call	 _GdipDisposeImage@4

; 92   : }

  00023	83 c4 04	 add	 esp, 4
  00026	3b ec		 cmp	 ebp, esp
  00028	e8 00 00 00 00	 call	 __RTC_CheckEsp
  0002d	8b e5		 mov	 esp, ebp
  0002f	5d		 pop	 ebp
  00030	c3		 ret	 0
??1Image@Gdiplus@@UAE@XZ ENDP				; Gdiplus::Image::~Image
_TEXT	ENDS
PUBLIC	??2GdiplusBase@Gdiplus@@SAPAXI@Z		; Gdiplus::GdiplusBase::operator new
PUBLIC	??0Image@Gdiplus@@IAE@PAVGpImage@1@W4Status@1@@Z ; Gdiplus::Image::Image
PUBLIC	?SetStatus@Image@Gdiplus@@IBE?AW4Status@2@W432@@Z ; Gdiplus::Image::SetStatus
EXTRN	_GdipCloneImage@8:NEAR
;	COMDAT xdata$x
xdata$x	SEGMENT
$T195822 DD	0ffffffffH
	DD	FLAT:$L195815
$T195817 DD	019930520H
	DD	01H
	DD	FLAT:$T195822
	DD	2 DUP(00H)
	DD	2 DUP(00H)
; Function compile flags: /Odt /RTCsu
xdata$x	ENDS
;	COMDAT ?Clone@Image@Gdiplus@@UAEPAV12@XZ
_TEXT	SEGMENT
tv80 = -40						; size = 4
$T195812 = -36						; size = 4
$T195811 = -32						; size = 4
_cloneimage$ = -24					; size = 4
_this$ = -16						; size = 4
__$EHRec$ = -12						; size = 12
?Clone@Image@Gdiplus@@UAEPAV12@XZ PROC NEAR		; Gdiplus::Image::Clone, COMDAT
; _this$ = ecx

; 96   : {

  00000	55		 push	 ebp
  00001	8b ec		 mov	 ebp, esp
  00003	6a ff		 push	 -1
  00005	68 00 00 00 00	 push	 __ehhandler$?Clone@Image@Gdiplus@@UAEPAV12@XZ
  0000a	64 a1 00 00 00
	00		 mov	 eax, DWORD PTR fs:__except_list
  00010	50		 push	 eax
  00011	64 89 25 00 00
	00 00		 mov	 DWORD PTR fs:__except_list, esp
  00018	83 ec 1c	 sub	 esp, 28			; 0000001cH
  0001b	b8 cc cc cc cc	 mov	 eax, -858993460		; ccccccccH
  00020	89 45 d8	 mov	 DWORD PTR [ebp-40], eax
  00023	89 45 dc	 mov	 DWORD PTR [ebp-36], eax
  00026	89 45 e0	 mov	 DWORD PTR [ebp-32], eax
  00029	89 45 e4	 mov	 DWORD PTR [ebp-28], eax
  0002c	89 45 e8	 mov	 DWORD PTR [ebp-24], eax
  0002f	89 45 ec	 mov	 DWORD PTR [ebp-20], eax
  00032	89 45 f0	 mov	 DWORD PTR [ebp-16], eax
  00035	89 4d f0	 mov	 DWORD PTR _this$[ebp], ecx

; 97   :     GpImage *cloneimage = NULL;

  00038	c7 45 e8 00 00
	00 00		 mov	 DWORD PTR _cloneimage$[ebp], 0

; 98   : 
; 99   :     SetStatus(DllExports::GdipCloneImage(nativeImage, &cloneimage));

  0003f	8d 45 e8	 lea	 eax, DWORD PTR _cloneimage$[ebp]
  00042	50		 push	 eax
  00043	8b 4d f0	 mov	 ecx, DWORD PTR _this$[ebp]
  00046	8b 51 04	 mov	 edx, DWORD PTR [ecx+4]
  00049	52		 push	 edx
  0004a	e8 00 00 00 00	 call	 _GdipCloneImage@8
  0004f	50		 push	 eax
  00050	8b 4d f0	 mov	 ecx, DWORD PTR _this$[ebp]
  00053	e8 00 00 00 00	 call	 ?SetStatus@Image@Gdiplus@@IBE?AW4Status@2@W432@@Z ; Gdiplus::Image::SetStatus

; 100  : 
; 101  :     return new Image(cloneimage, lastResult);

  00058	6a 10		 push	 16			; 00000010H
  0005a	e8 00 00 00 00	 call	 ??2GdiplusBase@Gdiplus@@SAPAXI@Z ; Gdiplus::GdiplusBase::operator new
  0005f	83 c4 04	 add	 esp, 4
  00062	89 45 dc	 mov	 DWORD PTR $T195812[ebp], eax
  00065	c7 45 fc 00 00
	00 00		 mov	 DWORD PTR __$EHRec$[ebp+8], 0
  0006c	83 7d dc 00	 cmp	 DWORD PTR $T195812[ebp], 0
  00070	74 18		 je	 SHORT $L195813
  00072	8b 45 f0	 mov	 eax, DWORD PTR _this$[ebp]
  00075	8b 48 08	 mov	 ecx, DWORD PTR [eax+8]
  00078	51		 push	 ecx
  00079	8b 55 e8	 mov	 edx, DWORD PTR _cloneimage$[ebp]
  0007c	52		 push	 edx
  0007d	8b 4d dc	 mov	 ecx, DWORD PTR $T195812[ebp]
  00080	e8 00 00 00 00	 call	 ??0Image@Gdiplus@@IAE@PAVGpImage@1@W4Status@1@@Z ; Gdiplus::Image::Image
  00085	89 45 d8	 mov	 DWORD PTR tv80[ebp], eax
  00088	eb 07		 jmp	 SHORT $L195814
$L195813:
  0008a	c7 45 d8 00 00
	00 00		 mov	 DWORD PTR tv80[ebp], 0
$L195814:
  00091	8b 45 d8	 mov	 eax, DWORD PTR tv80[ebp]
  00094	89 45 e0	 mov	 DWORD PTR $T195811[ebp], eax
  00097	c7 45 fc ff ff
	ff ff		 mov	 DWORD PTR __$EHRec$[ebp+8], -1
  0009e	8b 45 e0	 mov	 eax, DWORD PTR $T195811[ebp]

; 102  : }

  000a1	52		 push	 edx
  000a2	8b cd		 mov	 ecx, ebp
  000a4	50		 push	 eax
  000a5	8d 15 00 00 00
	00		 lea	 edx, DWORD PTR $L195821
  000ab	e8 00 00 00 00	 call	 @_RTC_CheckStackVars@8
  000b0	58		 pop	 eax
  000b1	5a		 pop	 edx
  000b2	8b 4d f4	 mov	 ecx, DWORD PTR __$EHRec$[ebp]
  000b5	64 89 0d 00 00
	00 00		 mov	 DWORD PTR fs:__except_list, ecx
  000bc	83 c4 28	 add	 esp, 40			; 00000028H
  000bf	3b ec		 cmp	 ebp, esp
  000c1	e8 00 00 00 00	 call	 __RTC_CheckEsp
  000c6	8b e5		 mov	 esp, ebp
  000c8	5d		 pop	 ebp
  000c9	c3		 ret	 0
$L195821:
  000ca	01 00 00 00	 DD	 1
  000ce	00 00 00 00	 DD	 $L195820
$L195820:
  000d2	e8 ff ff ff	 DD	 -24			; ffffffe8H
  000d6	04 00 00 00	 DD	 4
  000da	00 00 00 00	 DD	 $L195818
$L195818:
  000de	63		 DB	 99			; 00000063H
  000df	6c		 DB	 108			; 0000006cH
  000e0	6f		 DB	 111			; 0000006fH
  000e1	6e		 DB	 110			; 0000006eH
  000e2	65		 DB	 101			; 00000065H
  000e3	69		 DB	 105			; 00000069H
  000e4	6d		 DB	 109			; 0000006dH
  000e5	61		 DB	 97			; 00000061H
  000e6	67		 DB	 103			; 00000067H
  000e7	65		 DB	 101			; 00000065H
  000e8	00		 DB	 0
_TEXT	ENDS
;	COMDAT text$x
text$x	SEGMENT
$L195815:
  00000	8b 45 dc	 mov	 eax, DWORD PTR $T195812[ebp]
  00003	50		 push	 eax
  00004	e8 00 00 00 00	 call	 ??3GdiplusBase@Gdiplus@@SAXPAX@Z ; Gdiplus::GdiplusBase::operator delete
  00009	59		 pop	 ecx
  0000a	c3		 ret	 0
__ehhandler$?Clone@Image@Gdiplus@@UAEPAV12@XZ:
  0000b	b8 00 00 00 00	 mov	 eax, OFFSET FLAT:$T195817
  00010	e9 00 00 00 00	 jmp	 ___CxxFrameHandler
text$x	ENDS
?Clone@Image@Gdiplus@@UAEPAV12@XZ ENDP			; Gdiplus::Image::Clone
EXTRN	_GdipAlloc@4:NEAR
; Function compile flags: /Odt /RTCsu
; File d:\program files (x86)\microsoft visual studio .net 2003\vc7\platformsdk\include\gdiplusbase.h
;	COMDAT ??2GdiplusBase@Gdiplus@@SAPAXI@Z
_TEXT	SEGMENT
_in_size$ = 8						; size = 4
??2GdiplusBase@Gdiplus@@SAPAXI@Z PROC NEAR		; Gdiplus::GdiplusBase::operator new, COMDAT

; 26   :     {

  00000	55		 push	 ebp
  00001	8b ec		 mov	 ebp, esp

; 27   :        return DllExports::GdipAlloc(in_size);

  00003	8b 45 08	 mov	 eax, DWORD PTR _in_size$[ebp]
  00006	50		 push	 eax
  00007	e8 00 00 00 00	 call	 _GdipAlloc@4

; 28   :     }

  0000c	3b ec		 cmp	 ebp, esp
  0000e	e8 00 00 00 00	 call	 __RTC_CheckEsp
  00013	5d		 pop	 ebp
  00014	c3		 ret	 0
??2GdiplusBase@Gdiplus@@SAPAXI@Z ENDP			; Gdiplus::GdiplusBase::operator new
; Function compile flags: /Odt /RTCsu
; File d:\program files (x86)\microsoft visual studio .net 2003\vc7\platformsdk\include\gdiplusheaders.h
_TEXT	ENDS
;	COMDAT ?SetStatus@Image@Gdiplus@@IBE?AW4Status@2@W432@@Z
_TEXT	SEGMENT
_this$ = -4						; size = 4
_status$ = 8						; size = 4
?SetStatus@Image@Gdiplus@@IBE?AW4Status@2@W432@@Z PROC NEAR ; Gdiplus::Image::SetStatus, COMDAT
; _this$ = ecx

; 472  :     {

  00000	55		 push	 ebp
  00001	8b ec		 mov	 ebp, esp
  00003	51		 push	 ecx
  00004	c7 45 fc cc cc
	cc cc		 mov	 DWORD PTR [ebp-4], -858993460 ; ccccccccH
  0000b	89 4d fc	 mov	 DWORD PTR _this$[ebp], ecx

; 473  :         if (status != Ok)

  0000e	83 7d 08 00	 cmp	 DWORD PTR _status$[ebp], 0
  00012	74 0e		 je	 SHORT $L109523

; 474  :             return (lastResult = status);

  00014	8b 45 fc	 mov	 eax, DWORD PTR _this$[ebp]
  00017	8b 4d 08	 mov	 ecx, DWORD PTR _status$[ebp]
  0001a	89 48 08	 mov	 DWORD PTR [eax+8], ecx
  0001d	8b 45 08	 mov	 eax, DWORD PTR _status$[ebp]
  00020	eb 03		 jmp	 SHORT $L109522
$L109523:

; 475  :         else
; 476  :             return status;

  00022	8b 45 08	 mov	 eax, DWORD PTR _status$[ebp]
$L109522:

; 477  :     }

  00025	8b e5		 mov	 esp, ebp
  00027	5d		 pop	 ebp
  00028	c2 04 00	 ret	 4
?SetStatus@Image@Gdiplus@@IBE?AW4Status@2@W432@@Z ENDP	; Gdiplus::Image::SetStatus
_TEXT	ENDS
PUBLIC	?SetNativeImage@Image@Gdiplus@@IAEXPAVGpImage@2@@Z ; Gdiplus::Image::SetNativeImage
; Function compile flags: /Odt /RTCsu
; File d:\program files (x86)\microsoft visual studio .net 2003\vc7\platformsdk\include\gdiplusbitmap.h
;	COMDAT ??0Image@Gdiplus@@IAE@PAVGpImage@1@W4Status@1@@Z
_TEXT	SEGMENT
_this$ = -4						; size = 4
_nativeImage$ = 8					; size = 4
_status$ = 12						; size = 4
??0Image@Gdiplus@@IAE@PAVGpImage@1@W4Status@1@@Z PROC NEAR ; Gdiplus::Image::Image, COMDAT
; _this$ = ecx

; 497  : {

  00000	55		 push	 ebp
  00001	8b ec		 mov	 ebp, esp
  00003	51		 push	 ecx
  00004	c7 45 fc cc cc
	cc cc		 mov	 DWORD PTR [ebp-4], -858993460 ; ccccccccH
  0000b	89 4d fc	 mov	 DWORD PTR _this$[ebp], ecx
  0000e	8b 45 fc	 mov	 eax, DWORD PTR _this$[ebp]
  00011	c7 00 00 00 00
	00		 mov	 DWORD PTR [eax], OFFSET FLAT:??_7Image@Gdiplus@@6B@

; 498  :     SetNativeImage(nativeImage);

  00017	8b 4d 08	 mov	 ecx, DWORD PTR _nativeImage$[ebp]
  0001a	51		 push	 ecx
  0001b	8b 4d fc	 mov	 ecx, DWORD PTR _this$[ebp]
  0001e	e8 00 00 00 00	 call	 ?SetNativeImage@Image@Gdiplus@@IAEXPAVGpImage@2@@Z ; Gdiplus::Image::SetNativeImage

; 499  :     lastResult = status;

  00023	8b 55 fc	 mov	 edx, DWORD PTR _this$[ebp]
  00026	8b 45 0c	 mov	 eax, DWORD PTR _status$[ebp]
  00029	89 42 08	 mov	 DWORD PTR [edx+8], eax

; 500  : }

  0002c	8b 45 fc	 mov	 eax, DWORD PTR _this$[ebp]
  0002f	83 c4 04	 add	 esp, 4
  00032	3b ec		 cmp	 ebp, esp
  00034	e8 00 00 00 00	 call	 __RTC_CheckEsp
  00039	8b e5		 mov	 esp, ebp
  0003b	5d		 pop	 ebp
  0003c	c2 08 00	 ret	 8
??0Image@Gdiplus@@IAE@PAVGpImage@1@W4Status@1@@Z ENDP	; Gdiplus::Image::Image
; Function compile flags: /Odt /RTCsu
_TEXT	ENDS
;	COMDAT ?SetNativeImage@Image@Gdiplus@@IAEXPAVGpImage@2@@Z
_TEXT	SEGMENT
_this$ = -4						; size = 4
_nativeImage$ = 8					; size = 4
?SetNativeImage@Image@Gdiplus@@IAEXPAVGpImage@2@@Z PROC NEAR ; Gdiplus::Image::SetNativeImage, COMDAT
; _this$ = ecx

; 504  : {

  00000	55		 push	 ebp
  00001	8b ec		 mov	 ebp, esp
  00003	51		 push	 ecx
  00004	c7 45 fc cc cc
	cc cc		 mov	 DWORD PTR [ebp-4], -858993460 ; ccccccccH
  0000b	89 4d fc	 mov	 DWORD PTR _this$[ebp], ecx

; 505  :     this->nativeImage = nativeImage;

  0000e	8b 45 fc	 mov	 eax, DWORD PTR _this$[ebp]
  00011	8b 4d 08	 mov	 ecx, DWORD PTR _nativeImage$[ebp]
  00014	89 48 04	 mov	 DWORD PTR [eax+4], ecx

; 506  : }

  00017	8b e5		 mov	 esp, ebp
  00019	5d		 pop	 ebp
  0001a	c2 04 00	 ret	 4
?SetNativeImage@Image@Gdiplus@@IAEXPAVGpImage@2@@Z ENDP	; Gdiplus::Image::SetNativeImage
_TEXT	ENDS
EXTRN	__imp_??0exception@@QAE@ABV0@@Z:NEAR
;	COMDAT xdata$x
xdata$x	SEGMENT
$T195835 DD	0ffffffffH
	DD	FLAT:$L195830
$T195833 DD	019930520H
	DD	01H
	DD	FLAT:$T195835
	DD	2 DUP(00H)
	DD	2 DUP(00H)
; Function compile flags: /Odt /RTCsu
xdata$x	ENDS
;	COMDAT ??0logic_error@std@@QAE@ABV01@@Z
_TEXT	SEGMENT
_this$ = -16						; size = 4
__$EHRec$ = -12						; size = 12
___that$ = 8						; size = 4
??0logic_error@std@@QAE@ABV01@@Z PROC NEAR		; std::logic_error::logic_error, COMDAT
; _this$ = ecx
  00000	55		 push	 ebp
  00001	8b ec		 mov	 ebp, esp
  00003	6a ff		 push	 -1
  00005	68 00 00 00 00	 push	 __ehhandler$??0logic_error@std@@QAE@ABV01@@Z
  0000a	64 a1 00 00 00
	00		 mov	 eax, DWORD PTR fs:__except_list
  00010	50		 push	 eax
  00011	64 89 25 00 00
	00 00		 mov	 DWORD PTR fs:__except_list, esp
  00018	51		 push	 ecx
  00019	56		 push	 esi
  0001a	c7 45 f0 cc cc
	cc cc		 mov	 DWORD PTR [ebp-16], -858993460 ; ccccccccH
  00021	89 4d f0	 mov	 DWORD PTR _this$[ebp], ecx
  00024	8b f4		 mov	 esi, esp
  00026	8b 45 08	 mov	 eax, DWORD PTR ___that$[ebp]
  00029	50		 push	 eax
  0002a	8b 4d f0	 mov	 ecx, DWORD PTR _this$[ebp]
  0002d	ff 15 00 00 00
	00		 call	 DWORD PTR __imp_??0exception@@QAE@ABV0@@Z
  00033	3b f4		 cmp	 esi, esp
  00035	e8 00 00 00 00	 call	 __RTC_CheckEsp
  0003a	c7 45 fc 00 00
	00 00		 mov	 DWORD PTR __$EHRec$[ebp+8], 0
  00041	8b 4d f0	 mov	 ecx, DWORD PTR _this$[ebp]
  00044	c7 01 00 00 00
	00		 mov	 DWORD PTR [ecx], OFFSET FLAT:??_7logic_error@std@@6B@
  0004a	8b 55 08	 mov	 edx, DWORD PTR ___that$[ebp]
  0004d	83 c2 0c	 add	 edx, 12			; 0000000cH
  00050	8b f4		 mov	 esi, esp
  00052	52		 push	 edx
  00053	8b 4d f0	 mov	 ecx, DWORD PTR _this$[ebp]
  00056	83 c1 0c	 add	 ecx, 12			; 0000000cH
  00059	ff 15 00 00 00
	00		 call	 DWORD PTR __imp_??0?$basic_string@DU?$char_traits@D@std@@V?$allocator@D@2@@std@@QAE@ABV01@@Z
  0005f	3b f4		 cmp	 esi, esp
  00061	e8 00 00 00 00	 call	 __RTC_CheckEsp
  00066	c7 45 fc ff ff
	ff ff		 mov	 DWORD PTR __$EHRec$[ebp+8], -1
  0006d	8b 45 f0	 mov	 eax, DWORD PTR _this$[ebp]
  00070	8b 4d f4	 mov	 ecx, DWORD PTR __$EHRec$[ebp]
  00073	64 89 0d 00 00
	00 00		 mov	 DWORD PTR fs:__except_list, ecx
  0007a	5e		 pop	 esi
  0007b	83 c4 10	 add	 esp, 16			; 00000010H
  0007e	3b ec		 cmp	 ebp, esp
  00080	e8 00 00 00 00	 call	 __RTC_CheckEsp
  00085	8b e5		 mov	 esp, ebp
  00087	5d		 pop	 ebp
  00088	c2 04 00	 ret	 4
_TEXT	ENDS
;	COMDAT text$x
text$x	SEGMENT
$L195830:
  00000	8b f4		 mov	 esi, esp
  00002	8b 4d f0	 mov	 ecx, DWORD PTR _this$[ebp]
  00005	ff 15 00 00 00
	00		 call	 DWORD PTR __imp_??1exception@@UAE@XZ
  0000b	3b f4		 cmp	 esi, esp
  0000d	e9 00 00 00 00	 jmp	 __RTC_CheckEsp
__ehhandler$??0logic_error@std@@QAE@ABV01@@Z:
  00012	b8 00 00 00 00	 mov	 eax, OFFSET FLAT:$T195833
  00017	e9 00 00 00 00	 jmp	 ___CxxFrameHandler
text$x	ENDS
??0logic_error@std@@QAE@ABV01@@Z ENDP			; std::logic_error::logic_error
EXTRN	__imp_??Y?$basic_string@DU?$char_traits@D@std@@V?$allocator@D@2@@std@@QAEAAV01@ABV01@@Z:NEAR
;	COMDAT xdata$x
; File d:\program files (x86)\microsoft visual studio .net 2003\vc7\include\string
xdata$x	SEGMENT
$T195847 DD	0ffffffffH
	DD	FLAT:$L195841
	DD	00H
	DD	FLAT:$L195840
$T195845 DD	019930520H
	DD	02H
	DD	FLAT:$T195847
	DD	2 DUP(00H)
	DD	2 DUP(00H)
; Function compile flags: /Odt /RTCsu
xdata$x	ENDS
;	COMDAT ??$?HDU?$char_traits@D@std@@V?$allocator@D@1@@std@@YA?AV?$basic_string@DU?$char_traits@D@std@@V?$allocator@D@2@@0@ABV10@0@Z
_TEXT	SEGMENT
tv77 = -52						; size = 4
tv82 = -48						; size = 4
$T195842 = -44						; size = 4
$T195839 = -40						; size = 28
__$EHRec$ = -12						; size = 12
___$ReturnUdt$ = 8					; size = 4
__Left$ = 12						; size = 4
__Right$ = 16						; size = 4
??$?HDU?$char_traits@D@std@@V?$allocator@D@1@@std@@YA?AV?$basic_string@DU?$char_traits@D@std@@V?$allocator@D@2@@0@ABV10@0@Z PROC NEAR ; std::operator+<char,std::char_traits<char>,std::allocator<char> >, COMDAT

; 21   : 	{	// return string + string

  00000	55		 push	 ebp
  00001	8b ec		 mov	 ebp, esp
  00003	6a ff		 push	 -1
  00005	68 00 00 00 00	 push	 __ehhandler$??$?HDU?$char_traits@D@std@@V?$allocator@D@1@@std@@YA?AV?$basic_string@DU?$char_traits@D@std@@V?$allocator@D@2@@0@ABV10@0@Z
  0000a	64 a1 00 00 00
	00		 mov	 eax, DWORD PTR fs:__except_list
  00010	50		 push	 eax
  00011	64 89 25 00 00
	00 00		 mov	 DWORD PTR fs:__except_list, esp
  00018	83 ec 28	 sub	 esp, 40			; 00000028H
  0001b	56		 push	 esi
  0001c	57		 push	 edi
  0001d	8d 7d cc	 lea	 edi, DWORD PTR [ebp-52]
  00020	b9 0a 00 00 00	 mov	 ecx, 10			; 0000000aH
  00025	b8 cc cc cc cc	 mov	 eax, -858993460		; ccccccccH
  0002a	f3 ab		 rep stosd
  0002c	c7 45 d4 00 00
	00 00		 mov	 DWORD PTR $T195842[ebp], 0

; 22   : 	return (basic_string<_Elem, _Traits, _Alloc>(_Left) += _Right);

  00033	8b f4		 mov	 esi, esp
  00035	8b 45 0c	 mov	 eax, DWORD PTR __Left$[ebp]
  00038	50		 push	 eax
  00039	8d 4d d8	 lea	 ecx, DWORD PTR $T195839[ebp]
  0003c	ff 15 00 00 00
	00		 call	 DWORD PTR __imp_??0?$basic_string@DU?$char_traits@D@std@@V?$allocator@D@2@@std@@QAE@ABV01@@Z
  00042	3b f4		 cmp	 esi, esp
  00044	e8 00 00 00 00	 call	 __RTC_CheckEsp
  00049	89 45 d0	 mov	 DWORD PTR tv82[ebp], eax
  0004c	8b 4d d0	 mov	 ecx, DWORD PTR tv82[ebp]
  0004f	89 4d cc	 mov	 DWORD PTR tv77[ebp], ecx
  00052	c7 45 fc 01 00
	00 00		 mov	 DWORD PTR __$EHRec$[ebp+8], 1
  00059	8b f4		 mov	 esi, esp
  0005b	8b 55 10	 mov	 edx, DWORD PTR __Right$[ebp]
  0005e	52		 push	 edx
  0005f	8b 4d cc	 mov	 ecx, DWORD PTR tv77[ebp]
  00062	ff 15 00 00 00
	00		 call	 DWORD PTR __imp_??Y?$basic_string@DU?$char_traits@D@std@@V?$allocator@D@2@@std@@QAEAAV01@ABV01@@Z
  00068	3b f4		 cmp	 esi, esp
  0006a	e8 00 00 00 00	 call	 __RTC_CheckEsp
  0006f	8b f4		 mov	 esi, esp
  00071	50		 push	 eax
  00072	8b 4d 08	 mov	 ecx, DWORD PTR ___$ReturnUdt$[ebp]
  00075	ff 15 00 00 00
	00		 call	 DWORD PTR __imp_??0?$basic_string@DU?$char_traits@D@std@@V?$allocator@D@2@@std@@QAE@ABV01@@Z
  0007b	3b f4		 cmp	 esi, esp
  0007d	e8 00 00 00 00	 call	 __RTC_CheckEsp
  00082	8b 45 d4	 mov	 eax, DWORD PTR $T195842[ebp]
  00085	83 c8 01	 or	 eax, 1
  00088	89 45 d4	 mov	 DWORD PTR $T195842[ebp], eax
  0008b	c6 45 fc 00	 mov	 BYTE PTR __$EHRec$[ebp+8], 0
  0008f	8b f4		 mov	 esi, esp
  00091	8d 4d d8	 lea	 ecx, DWORD PTR $T195839[ebp]
  00094	ff 15 00 00 00
	00		 call	 DWORD PTR __imp_??1?$basic_string@DU?$char_traits@D@std@@V?$allocator@D@2@@std@@QAE@XZ
  0009a	3b f4		 cmp	 esi, esp
  0009c	e8 00 00 00 00	 call	 __RTC_CheckEsp
  000a1	8b 45 08	 mov	 eax, DWORD PTR ___$ReturnUdt$[ebp]

; 23   : 	}

  000a4	8b 4d f4	 mov	 ecx, DWORD PTR __$EHRec$[ebp]
  000a7	64 89 0d 00 00
	00 00		 mov	 DWORD PTR fs:__except_list, ecx
  000ae	5f		 pop	 edi
  000af	5e		 pop	 esi
  000b0	83 c4 34	 add	 esp, 52			; 00000034H
  000b3	3b ec		 cmp	 ebp, esp
  000b5	e8 00 00 00 00	 call	 __RTC_CheckEsp
  000ba	8b e5		 mov	 esp, ebp
  000bc	5d		 pop	 ebp
  000bd	c3		 ret	 0
_TEXT	ENDS
;	COMDAT text$x
text$x	SEGMENT
$L195840:
  00000	8b f4		 mov	 esi, esp
  00002	8d 4d d8	 lea	 ecx, DWORD PTR $T195839[ebp]
  00005	ff 15 00 00 00
	00		 call	 DWORD PTR __imp_??1?$basic_string@DU?$char_traits@D@std@@V?$allocator@D@2@@std@@QAE@XZ
  0000b	3b f4		 cmp	 esi, esp
  0000d	e9 00 00 00 00	 jmp	 __RTC_CheckEsp
$L195841:
  00012	8b 45 d4	 mov	 eax, DWORD PTR $T195842[ebp]
  00015	83 e0 01	 and	 eax, 1
  00018	0f 84 16 00 00
	00		 je	 $L195843
  0001e	83 65 d4 fe	 and	 DWORD PTR $T195842[ebp], -2 ; fffffffeH
  00022	8b f4		 mov	 esi, esp
  00024	8b 4d 08	 mov	 ecx, DWORD PTR ___$ReturnUdt$[ebp]
  00027	ff 15 00 00 00
	00		 call	 DWORD PTR __imp_??1?$basic_string@DU?$char_traits@D@std@@V?$allocator@D@2@@std@@QAE@XZ
  0002d	3b f4		 cmp	 esi, esp
  0002f	e9 00 00 00 00	 jmp	 __RTC_CheckEsp
$L195843:
  00034	c3		 ret	 0
__ehhandler$??$?HDU?$char_traits@D@std@@V?$allocator@D@1@@std@@YA?AV?$basic_string@DU?$char_traits@D@std@@V?$allocator@D@2@@0@ABV10@0@Z:
  00035	b8 00 00 00 00	 mov	 eax, OFFSET FLAT:$T195845
  0003a	e9 00 00 00 00	 jmp	 ___CxxFrameHandler
text$x	ENDS
??$?HDU?$char_traits@D@std@@V?$allocator@D@1@@std@@YA?AV?$basic_string@DU?$char_traits@D@std@@V?$allocator@D@2@@0@ABV10@0@Z ENDP ; std::operator+<char,std::char_traits<char>,std::allocator<char> >
EXTRN	__imp_??Y?$basic_string@DU?$char_traits@D@std@@V?$allocator@D@2@@std@@QAEAAV01@PBD@Z:NEAR
;	COMDAT xdata$x
xdata$x	SEGMENT
$T195859 DD	0ffffffffH
	DD	FLAT:$L195853
	DD	00H
	DD	FLAT:$L195852
$T195857 DD	019930520H
	DD	02H
	DD	FLAT:$T195859
	DD	2 DUP(00H)
	DD	2 DUP(00H)
; Function compile flags: /Odt /RTCsu
xdata$x	ENDS
;	COMDAT ??$?HDU?$char_traits@D@std@@V?$allocator@D@1@@std@@YA?AV?$basic_string@DU?$char_traits@D@std@@V?$allocator@D@2@@0@ABV10@PBD@Z
_TEXT	SEGMENT
tv77 = -52						; size = 4
tv82 = -48						; size = 4
$T195854 = -44						; size = 4
$T195851 = -40						; size = 28
__$EHRec$ = -12						; size = 12
___$ReturnUdt$ = 8					; size = 4
__Left$ = 12						; size = 4
__Right$ = 16						; size = 4
??$?HDU?$char_traits@D@std@@V?$allocator@D@1@@std@@YA?AV?$basic_string@DU?$char_traits@D@std@@V?$allocator@D@2@@0@ABV10@PBD@Z PROC NEAR ; std::operator+<char,std::char_traits<char>,std::allocator<char> >, COMDAT

; 51   : 	{	// return string + NTCS

  00000	55		 push	 ebp
  00001	8b ec		 mov	 ebp, esp
  00003	6a ff		 push	 -1
  00005	68 00 00 00 00	 push	 __ehhandler$??$?HDU?$char_traits@D@std@@V?$allocator@D@1@@std@@YA?AV?$basic_string@DU?$char_traits@D@std@@V?$allocator@D@2@@0@ABV10@PBD@Z
  0000a	64 a1 00 00 00
	00		 mov	 eax, DWORD PTR fs:__except_list
  00010	50		 push	 eax
  00011	64 89 25 00 00
	00 00		 mov	 DWORD PTR fs:__except_list, esp
  00018	83 ec 28	 sub	 esp, 40			; 00000028H
  0001b	56		 push	 esi
  0001c	57		 push	 edi
  0001d	8d 7d cc	 lea	 edi, DWORD PTR [ebp-52]
  00020	b9 0a 00 00 00	 mov	 ecx, 10			; 0000000aH
  00025	b8 cc cc cc cc	 mov	 eax, -858993460		; ccccccccH
  0002a	f3 ab		 rep stosd
  0002c	c7 45 d4 00 00
	00 00		 mov	 DWORD PTR $T195854[ebp], 0

; 52   : 	return (basic_string<_Elem, _Traits, _Alloc>(_Left) += _Right);

  00033	8b f4		 mov	 esi, esp
  00035	8b 45 0c	 mov	 eax, DWORD PTR __Left$[ebp]
  00038	50		 push	 eax
  00039	8d 4d d8	 lea	 ecx, DWORD PTR $T195851[ebp]
  0003c	ff 15 00 00 00
	00		 call	 DWORD PTR __imp_??0?$basic_string@DU?$char_traits@D@std@@V?$allocator@D@2@@std@@QAE@ABV01@@Z
  00042	3b f4		 cmp	 esi, esp
  00044	e8 00 00 00 00	 call	 __RTC_CheckEsp
  00049	89 45 d0	 mov	 DWORD PTR tv82[ebp], eax
  0004c	8b 4d d0	 mov	 ecx, DWORD PTR tv82[ebp]
  0004f	89 4d cc	 mov	 DWORD PTR tv77[ebp], ecx
  00052	c7 45 fc 01 00
	00 00		 mov	 DWORD PTR __$EHRec$[ebp+8], 1
  00059	8b f4		 mov	 esi, esp
  0005b	8b 55 10	 mov	 edx, DWORD PTR __Right$[ebp]
  0005e	52		 push	 edx
  0005f	8b 4d cc	 mov	 ecx, DWORD PTR tv77[ebp]
  00062	ff 15 00 00 00
	00		 call	 DWORD PTR __imp_??Y?$basic_string@DU?$char_traits@D@std@@V?$allocator@D@2@@std@@QAEAAV01@PBD@Z
  00068	3b f4		 cmp	 esi, esp
  0006a	e8 00 00 00 00	 call	 __RTC_CheckEsp
  0006f	8b f4		 mov	 esi, esp
  00071	50		 push	 eax
  00072	8b 4d 08	 mov	 ecx, DWORD PTR ___$ReturnUdt$[ebp]
  00075	ff 15 00 00 00
	00		 call	 DWORD PTR __imp_??0?$basic_string@DU?$char_traits@D@std@@V?$allocator@D@2@@std@@QAE@ABV01@@Z
  0007b	3b f4		 cmp	 esi, esp
  0007d	e8 00 00 00 00	 call	 __RTC_CheckEsp
  00082	8b 45 d4	 mov	 eax, DWORD PTR $T195854[ebp]
  00085	83 c8 01	 or	 eax, 1
  00088	89 45 d4	 mov	 DWORD PTR $T195854[ebp], eax
  0008b	c6 45 fc 00	 mov	 BYTE PTR __$EHRec$[ebp+8], 0
  0008f	8b f4		 mov	 esi, esp
  00091	8d 4d d8	 lea	 ecx, DWORD PTR $T195851[ebp]
  00094	ff 15 00 00 00
	00		 call	 DWORD PTR __imp_??1?$basic_string@DU?$char_traits@D@std@@V?$allocator@D@2@@std@@QAE@XZ
  0009a	3b f4		 cmp	 esi, esp
  0009c	e8 00 00 00 00	 call	 __RTC_CheckEsp
  000a1	8b 45 08	 mov	 eax, DWORD PTR ___$ReturnUdt$[ebp]

; 53   : 	}

  000a4	8b 4d f4	 mov	 ecx, DWORD PTR __$EHRec$[ebp]
  000a7	64 89 0d 00 00
	00 00		 mov	 DWORD PTR fs:__except_list, ecx
  000ae	5f		 pop	 edi
  000af	5e		 pop	 esi
  000b0	83 c4 34	 add	 esp, 52			; 00000034H
  000b3	3b ec		 cmp	 ebp, esp
  000b5	e8 00 00 00 00	 call	 __RTC_CheckEsp
  000ba	8b e5		 mov	 esp, ebp
  000bc	5d		 pop	 ebp
  000bd	c3		 ret	 0
_TEXT	ENDS
;	COMDAT text$x
text$x	SEGMENT
$L195852:
  00000	8b f4		 mov	 esi, esp
  00002	8d 4d d8	 lea	 ecx, DWORD PTR $T195851[ebp]
  00005	ff 15 00 00 00
	00		 call	 DWORD PTR __imp_??1?$basic_string@DU?$char_traits@D@std@@V?$allocator@D@2@@std@@QAE@XZ
  0000b	3b f4		 cmp	 esi, esp
  0000d	e9 00 00 00 00	 jmp	 __RTC_CheckEsp
$L195853:
  00012	8b 45 d4	 mov	 eax, DWORD PTR $T195854[ebp]
  00015	83 e0 01	 and	 eax, 1
  00018	0f 84 16 00 00
	00		 je	 $L195855
  0001e	83 65 d4 fe	 and	 DWORD PTR $T195854[ebp], -2 ; fffffffeH
  00022	8b f4		 mov	 esi, esp
  00024	8b 4d 08	 mov	 ecx, DWORD PTR ___$ReturnUdt$[ebp]
  00027	ff 15 00 00 00
	00		 call	 DWORD PTR __imp_??1?$basic_string@DU?$char_traits@D@std@@V?$allocator@D@2@@std@@QAE@XZ
  0002d	3b f4		 cmp	 esi, esp
  0002f	e9 00 00 00 00	 jmp	 __RTC_CheckEsp
$L195855:
  00034	c3		 ret	 0
__ehhandler$??$?HDU?$char_traits@D@std@@V?$allocator@D@1@@std@@YA?AV?$basic_string@DU?$char_traits@D@std@@V?$allocator@D@2@@0@ABV10@PBD@Z:
  00035	b8 00 00 00 00	 mov	 eax, OFFSET FLAT:$T195857
  0003a	e9 00 00 00 00	 jmp	 ___CxxFrameHandler
text$x	ENDS
??$?HDU?$char_traits@D@std@@V?$allocator@D@1@@std@@YA?AV?$basic_string@DU?$char_traits@D@std@@V?$allocator@D@2@@0@ABV10@PBD@Z ENDP ; std::operator+<char,std::char_traits<char>,std::allocator<char> >
CRT$XCU	SEGMENT
_$S6	DD	FLAT:_$E5
; Function compile flags: /Odt /RTCsu
; File d:\boxgit\playbox\playbox\dev\prj\playbox\src\appconfig\config\configsettingdef.h
CRT$XCU	ENDS
;	COMDAT _$E5
text$yc	SEGMENT
_$E5	PROC NEAR					; COMDAT

; 25   : 	CONF_SETTING_SKIN_IDX,				TYPE_CONFIG_STR,

  00000	55		 push	 ebp
  00001	8b ec		 mov	 ebp, esp
  00003	a1 00 00 00 00	 mov	 eax, DWORD PTR _CONF_SETTING_SKIN_IDX
  00008	a3 00 00 00 00	 mov	 DWORD PTR _CONF_SETTING, eax
  0000d	8b 0d 00 00 00
	00		 mov	 ecx, DWORD PTR _TYPE_CONFIG_STR
  00013	89 0d 04 00 00
	00		 mov	 DWORD PTR _CONF_SETTING+4, ecx

; 26   : 	CONF_SETTING_CONFIG_MAIN_PAGE,		TYPE_CONFIG_STR,

  00019	8b 15 00 00 00
	00		 mov	 edx, DWORD PTR _CONF_SETTING_CONFIG_MAIN_PAGE
  0001f	89 15 08 00 00
	00		 mov	 DWORD PTR _CONF_SETTING+8, edx
  00025	a1 00 00 00 00	 mov	 eax, DWORD PTR _TYPE_CONFIG_STR
  0002a	a3 0c 00 00 00	 mov	 DWORD PTR _CONF_SETTING+12, eax

; 27   : 	CONF_SETTING_CONFIG_PROBLEM_REPORT,	TYPE_CONFIG_STR,

  0002f	8b 0d 00 00 00
	00		 mov	 ecx, DWORD PTR _CONF_SETTING_CONFIG_PROBLEM_REPORT
  00035	89 0d 10 00 00
	00		 mov	 DWORD PTR _CONF_SETTING+16, ecx
  0003b	8b 15 00 00 00
	00		 mov	 edx, DWORD PTR _TYPE_CONFIG_STR
  00041	89 15 14 00 00
	00		 mov	 DWORD PTR _CONF_SETTING+20, edx

; 28   : 	CONF_SETTING_CONFIG_HOME_PAGE,		TYPE_CONFIG_STR,

  00047	a1 00 00 00 00	 mov	 eax, DWORD PTR _CONF_SETTING_CONFIG_HOME_PAGE
  0004c	a3 18 00 00 00	 mov	 DWORD PTR _CONF_SETTING+24, eax
  00051	8b 0d 00 00 00
	00		 mov	 ecx, DWORD PTR _TYPE_CONFIG_STR
  00057	89 0d 1c 00 00
	00		 mov	 DWORD PTR _CONF_SETTING+28, ecx

; 29   : 	CONF_SETTING_CONFIG_IFASKEXIT,		TYPE_CONFIG_BOOL,

  0005d	8b 15 00 00 00
	00		 mov	 edx, DWORD PTR _CONF_SETTING_CONFIG_IFASKEXIT
  00063	89 15 20 00 00
	00		 mov	 DWORD PTR _CONF_SETTING+32, edx
  00069	a1 00 00 00 00	 mov	 eax, DWORD PTR _TYPE_CONFIG_BOOL
  0006e	a3 24 00 00 00	 mov	 DWORD PTR _CONF_SETTING+36, eax

; 30   : 	CONF_SETTING_CONFIG_EXITCHOICE,		TYPE_CONFIG_BOOL,

  00073	8b 0d 00 00 00
	00		 mov	 ecx, DWORD PTR _CONF_SETTING_CONFIG_EXITCHOICE
  00079	89 0d 28 00 00
	00		 mov	 DWORD PTR _CONF_SETTING+40, ecx
  0007f	8b 15 00 00 00
	00		 mov	 edx, DWORD PTR _TYPE_CONFIG_BOOL
  00085	89 15 2c 00 00
	00		 mov	 DWORD PTR _CONF_SETTING+44, edx

; 31   : 	CONF_SETTING_LOGIN_USER_NAME,		TYPE_CONFIG_STR,

  0008b	a1 00 00 00 00	 mov	 eax, DWORD PTR _CONF_SETTING_LOGIN_USER_NAME
  00090	a3 30 00 00 00	 mov	 DWORD PTR _CONF_SETTING+48, eax
  00095	8b 0d 00 00 00
	00		 mov	 ecx, DWORD PTR _TYPE_CONFIG_STR
  0009b	89 0d 34 00 00
	00		 mov	 DWORD PTR _CONF_SETTING+52, ecx

; 32   : 	CONF_SETTING_LOGIN_PASSWORD,		TYPE_CONFIG_STR,

  000a1	8b 15 00 00 00
	00		 mov	 edx, DWORD PTR _CONF_SETTING_LOGIN_PASSWORD
  000a7	89 15 38 00 00
	00		 mov	 DWORD PTR _CONF_SETTING+56, edx
  000ad	a1 00 00 00 00	 mov	 eax, DWORD PTR _TYPE_CONFIG_STR
  000b2	a3 3c 00 00 00	 mov	 DWORD PTR _CONF_SETTING+60, eax

; 33   : 	CONF_SETTING_NETID,					TYPE_CONFIG_STR,

  000b7	8b 0d 00 00 00
	00		 mov	 ecx, DWORD PTR _CONF_SETTING_NETID
  000bd	89 0d 40 00 00
	00		 mov	 DWORD PTR _CONF_SETTING+64, ecx
  000c3	8b 15 00 00 00
	00		 mov	 edx, DWORD PTR _TYPE_CONFIG_STR
  000c9	89 15 44 00 00
	00		 mov	 DWORD PTR _CONF_SETTING+68, edx

; 34   : 	CONF_SETTING_COLOR,					TYPE_CONFIG_INT,

  000cf	a1 00 00 00 00	 mov	 eax, DWORD PTR _CONF_SETTING_COLOR
  000d4	a3 48 00 00 00	 mov	 DWORD PTR _CONF_SETTING+72, eax
  000d9	8b 0d 00 00 00
	00		 mov	 ecx, DWORD PTR _TYPE_CONFIG_INT
  000df	89 0d 4c 00 00
	00		 mov	 DWORD PTR _CONF_SETTING+76, ecx

; 35   : 	CONF_SETTING_LIGHT,					TYPE_CONFIG_INT,

  000e5	8b 15 00 00 00
	00		 mov	 edx, DWORD PTR _CONF_SETTING_LIGHT
  000eb	89 15 50 00 00
	00		 mov	 DWORD PTR _CONF_SETTING+80, edx
  000f1	a1 00 00 00 00	 mov	 eax, DWORD PTR _TYPE_CONFIG_INT
  000f6	a3 54 00 00 00	 mov	 DWORD PTR _CONF_SETTING+84, eax

; 36   : 	CONF_SETTING_COLOR_BTN_INDEX,		TYPE_CONFIG_INT,

  000fb	8b 0d 00 00 00
	00		 mov	 ecx, DWORD PTR _CONF_SETTING_COLOR_BTN_INDEX
  00101	89 0d 58 00 00
	00		 mov	 DWORD PTR _CONF_SETTING+88, ecx
  00107	8b 15 00 00 00
	00		 mov	 edx, DWORD PTR _TYPE_CONFIG_INT
  0010d	89 15 5c 00 00
	00		 mov	 DWORD PTR _CONF_SETTING+92, edx

; 37   : 	CONF_SETTING_COLOR_USER,			TYPE_CONFIG_INT,

  00113	a1 00 00 00 00	 mov	 eax, DWORD PTR _CONF_SETTING_COLOR_USER
  00118	a3 60 00 00 00	 mov	 DWORD PTR _CONF_SETTING+96, eax
  0011d	8b 0d 00 00 00
	00		 mov	 ecx, DWORD PTR _TYPE_CONFIG_INT
  00123	89 0d 64 00 00
	00		 mov	 DWORD PTR _CONF_SETTING+100, ecx

; 38   : 	CONF_SETTING_FIRST_TIME_CHANGESKIN, TYPE_CONFIG_BOOL

  00129	8b 15 00 00 00
	00		 mov	 edx, DWORD PTR _CONF_SETTING_FIRST_TIME_CHANGESKIN
  0012f	89 15 68 00 00
	00		 mov	 DWORD PTR _CONF_SETTING+104, edx

; 39   : };

  00135	a1 00 00 00 00	 mov	 eax, DWORD PTR _TYPE_CONFIG_BOOL
  0013a	a3 6c 00 00 00	 mov	 DWORD PTR _CONF_SETTING+108, eax
  0013f	5d		 pop	 ebp
  00140	c3		 ret	 0
_$E5	ENDP
text$yc	ENDS
CRT$XCU	SEGMENT
_$S8	DD	FLAT:_$E7
; Function compile flags: /Odt /RTCsu
; File d:\boxgit\playbox\playbox\dev\prj\playbox\src\appconfig\config\configappdef.h
CRT$XCU	ENDS
;	COMDAT _$E7
text$yc	SEGMENT
_$E7	PROC NEAR					; COMDAT

; 19   : 	CONF_APP_SWF_PATH,			TYPE_CONFIG_STR,

  00000	55		 push	 ebp
  00001	8b ec		 mov	 ebp, esp
  00003	a1 00 00 00 00	 mov	 eax, DWORD PTR _CONF_APP_SWF_PATH
  00008	a3 00 00 00 00	 mov	 DWORD PTR _CONF_APP, eax
  0000d	8b 0d 00 00 00
	00		 mov	 ecx, DWORD PTR _TYPE_CONFIG_STR
  00013	89 0d 04 00 00
	00		 mov	 DWORD PTR _CONF_APP+4, ecx

; 20   : 	CONF_APP_MAINWND_HOLD,		TYPE_CONFIG_BOOL,

  00019	8b 15 00 00 00
	00		 mov	 edx, DWORD PTR _CONF_APP_MAINWND_HOLD
  0001f	89 15 08 00 00
	00		 mov	 DWORD PTR _CONF_APP+8, edx
  00025	a1 00 00 00 00	 mov	 eax, DWORD PTR _TYPE_CONFIG_BOOL
  0002a	a3 0c 00 00 00	 mov	 DWORD PTR _CONF_APP+12, eax

; 21   : 	CONF_APP_RUN_COUNT,			TYPE_CONFIG_INT,

  0002f	8b 0d 00 00 00
	00		 mov	 ecx, DWORD PTR _CONF_APP_RUN_COUNT
  00035	89 0d 10 00 00
	00		 mov	 DWORD PTR _CONF_APP+16, ecx
  0003b	8b 15 00 00 00
	00		 mov	 edx, DWORD PTR _TYPE_CONFIG_INT
  00041	89 15 14 00 00
	00		 mov	 DWORD PTR _CONF_APP+20, edx

; 22   : 	CONF_APP_PLAYED_GAME,		TYPE_CONFIG_INT,

  00047	a1 00 00 00 00	 mov	 eax, DWORD PTR _CONF_APP_PLAYED_GAME
  0004c	a3 18 00 00 00	 mov	 DWORD PTR _CONF_APP+24, eax
  00051	8b 0d 00 00 00
	00		 mov	 ecx, DWORD PTR _TYPE_CONFIG_INT
  00057	89 0d 1c 00 00
	00		 mov	 DWORD PTR _CONF_APP+28, ecx

; 23   : 	CONF_APP_PLAYED_PC_GAME,	TYPE_CONFIG_INT,

  0005d	8b 15 00 00 00
	00		 mov	 edx, DWORD PTR _CONF_APP_PLAYED_PC_GAME
  00063	89 15 20 00 00
	00		 mov	 DWORD PTR _CONF_APP+32, edx
  00069	a1 00 00 00 00	 mov	 eax, DWORD PTR _TYPE_CONFIG_INT
  0006e	a3 24 00 00 00	 mov	 DWORD PTR _CONF_APP+36, eax

; 24   : 	CONF_APP_PLAYED_ICON_SIZE,	TYPE_CONFIG_INT, //panelicon0,1,2

  00073	8b 0d 00 00 00
	00		 mov	 ecx, DWORD PTR _CONF_APP_PLAYED_ICON_SIZE
  00079	89 0d 28 00 00
	00		 mov	 DWORD PTR _CONF_APP+40, ecx
  0007f	8b 15 00 00 00
	00		 mov	 edx, DWORD PTR _TYPE_CONFIG_INT
  00085	89 15 2c 00 00
	00		 mov	 DWORD PTR _CONF_APP+44, edx

; 25   : 	CONF_APP_PIC_SAVE_PATH,		TYPE_CONFIG_STR

  0008b	a1 00 00 00 00	 mov	 eax, DWORD PTR _CONF_APP_PIC_SAVE_PATH
  00090	a3 30 00 00 00	 mov	 DWORD PTR _CONF_APP+48, eax

; 26   : };

  00095	8b 0d 00 00 00
	00		 mov	 ecx, DWORD PTR _TYPE_CONFIG_STR
  0009b	89 0d 34 00 00
	00		 mov	 DWORD PTR _CONF_APP+52, ecx
  000a1	5d		 pop	 ebp
  000a2	c3		 ret	 0
_$E7	ENDP
text$yc	ENDS
_BSS	SEGMENT
_CONF_SETTING DD 01cH DUP (?)
_CONF_APP DD	0eH DUP (?)
_BSS	ENDS
END
