; Listing generated by Microsoft (R) Optimizing Compiler Version 13.10.3077 

	TITLE	.\src\LayoutMgr\ChangeColor\ScrollBarEx.cpp
	.386P
include listing.inc
if @Version gt 510
.model FLAT
else
_TEXT	SEGMENT PARA USE32 PUBLIC 'CODE'
_TEXT	ENDS
_DATA	SEGMENT DWORD USE32 PUBLIC 'DATA'
_DATA	ENDS
CONST	SEGMENT DWORD USE32 PUBLIC 'CONST'
CONST	ENDS
_BSS	SEGMENT DWORD USE32 PUBLIC 'BSS'
_BSS	ENDS
$$SYMBOLS	SEGMENT BYTE USE32 'DEBSYM'
$$SYMBOLS	ENDS
_TLS	SEGMENT DWORD USE32 PUBLIC 'TLS'
_TLS	ENDS
;	COMDAT ??_C@_0FC@OGIBLEP@d?3?2boxgit?2playbox?2playbox?2dev?2pr@
CONST	SEGMENT DWORD USE32 PUBLIC 'CONST'
CONST	ENDS
;	COMDAT ??_C@_0BI@GIMJKKKN@AtlIsValidString?$CI?5psz?5?$CJ?$AA@
CONST	SEGMENT DWORD USE32 PUBLIC 'CONST'
CONST	ENDS
;	COMDAT ??_C@_0EN@IBFBLEEG@D?3?2Program?5Files?5?$CIx86?$CJ?2Microsoft@
CONST	SEGMENT DWORD USE32 PUBLIC 'CONST'
CONST	ENDS
rdata$r	SEGMENT DWORD USE32 PUBLIC 'CONST'
rdata$r	ENDS
xdata$x	SEGMENT DWORD USE32 PUBLIC 'CONST'
xdata$x	ENDS
text$AFX_COL1	SEGMENT PARA USE32 PUBLIC ''
text$AFX_COL1	ENDS
text$yc	SEGMENT PARA USE32 PUBLIC 'CODE'
text$yc	ENDS
CRT$XCA	SEGMENT DWORD USE32 PUBLIC 'DATA'
CRT$XCA	ENDS
CRT$XCU	SEGMENT DWORD USE32 PUBLIC 'DATA'
CRT$XCU	ENDS
CRT$XCL	SEGMENT DWORD USE32 PUBLIC 'DATA'
CRT$XCL	ENDS
CRT$XCC	SEGMENT DWORD USE32 PUBLIC 'DATA'
CRT$XCC	ENDS
CRT$XCZ	SEGMENT DWORD USE32 PUBLIC 'DATA'
CRT$XCZ	ENDS
text$yd	SEGMENT PARA USE32 PUBLIC 'CODE'
text$yd	ENDS
ATL$__m	SEGMENT DWORD USE32 PUBLIC ''
ATL$__m	ENDS
ATL$__z	SEGMENT DWORD USE32 PUBLIC ''
ATL$__z	ENDS
ATL$__a	SEGMENT DWORD USE32 PUBLIC ''
ATL$__a	ENDS
;	COMDAT ??1DIBINFO@@UAE@XZ
_TEXT	SEGMENT PARA USE32 PUBLIC 'CODE'
_TEXT	ENDS
;	COMDAT ??_GDIBINFO@@UAEPAXI@Z
_TEXT	SEGMENT PARA USE32 PUBLIC 'CODE'
_TEXT	ENDS
;	COMDAT ??0BaseColor@@QAE@XZ
_TEXT	SEGMENT PARA USE32 PUBLIC 'CODE'
_TEXT	ENDS
;	COMDAT ??1BaseColor@@QAE@XZ
_TEXT	SEGMENT PARA USE32 PUBLIC 'CODE'
_TEXT	ENDS
;	COMDAT ??_GBaseColor@@QAEPAXI@Z
_TEXT	SEGMENT PARA USE32 PUBLIC 'CODE'
_TEXT	ENDS
;	COMDAT ??_GCScrollBarEx@@UAEPAXI@Z
_TEXT	SEGMENT PARA USE32 PUBLIC 'CODE'
_TEXT	ENDS
;	COMDAT ??B?$CComPtrBase@UITypeInfo2@@@ATL@@QBEPAUITypeInfo2@@XZ
_TEXT	SEGMENT PARA USE32 PUBLIC 'CODE'
_TEXT	ENDS
;	COMDAT ?equal@?$istreambuf_iterator@DU?$char_traits@D@std@@@std@@QBE_NABV12@@Z
_TEXT	SEGMENT PARA USE32 PUBLIC 'CODE'
_TEXT	ENDS
;	COMDAT ?equal@?$istreambuf_iterator@_WU?$char_traits@_W@std@@@std@@QBE_NABV12@@Z
_TEXT	SEGMENT PARA USE32 PUBLIC 'CODE'
_TEXT	ENDS
;	COMDAT ?StringCompare@?$ChTraitsCRT@D@ATL@@SAHPBD0@Z
_TEXT	SEGMENT PARA USE32 PUBLIC 'CODE'
_TEXT	ENDS
;	COMDAT ?Unlock@?$CComCritSecLock@VCComCriticalSection@ATL@@@ATL@@QAEXXZ
_TEXT	SEGMENT PARA USE32 PUBLIC 'CODE'
_TEXT	ENDS
;	COMDAT ??$_Maklocstr@D@std@@YAPADPBDPADABU_Cvtvec@@@Z
_TEXT	SEGMENT PARA USE32 PUBLIC 'CODE'
_TEXT	ENDS
;	COMDAT ??_R3CScrollBarEx@@8
rdata$r	SEGMENT DWORD USE32 PUBLIC 'CONST'
rdata$r	ENDS
;	COMDAT ??_R3?$numpunct@_W@std@@8
rdata$r	SEGMENT DWORD USE32 PUBLIC 'CONST'
rdata$r	ENDS
;	COMDAT ??_R3?$numpunct@D@std@@8
rdata$r	SEGMENT DWORD USE32 PUBLIC 'CONST'
rdata$r	ENDS
;	COMDAT ??_R3DIBINFO@@8
rdata$r	SEGMENT DWORD USE32 PUBLIC 'CONST'
rdata$r	ENDS
;	COMDAT ??_R2CScrollBarEx@@8
rdata$r	SEGMENT DWORD USE32 PUBLIC 'CONST'
rdata$r	ENDS
;	COMDAT ??_R2?$numpunct@_W@std@@8
rdata$r	SEGMENT DWORD USE32 PUBLIC 'CONST'
rdata$r	ENDS
;	COMDAT ??_R2?$numpunct@D@std@@8
rdata$r	SEGMENT DWORD USE32 PUBLIC 'CONST'
rdata$r	ENDS
;	COMDAT ??_R2DIBINFO@@8
rdata$r	SEGMENT DWORD USE32 PUBLIC 'CONST'
rdata$r	ENDS
;	COMDAT ??_R1A@?0A@A@CObject@@8
rdata$r	SEGMENT DWORD USE32 PUBLIC 'CONST'
rdata$r	ENDS
;	COMDAT ??_R0?AVCObject@@@8
_DATA	SEGMENT DWORD USE32 PUBLIC 'DATA'
_DATA	ENDS
;	COMDAT ??_R1A@?0A@A@CCmdTarget@@8
rdata$r	SEGMENT DWORD USE32 PUBLIC 'CONST'
rdata$r	ENDS
;	COMDAT ??_R0?AVCCmdTarget@@@8
_DATA	SEGMENT DWORD USE32 PUBLIC 'DATA'
_DATA	ENDS
;	COMDAT ??_R1A@?0A@A@CWnd@@8
rdata$r	SEGMENT DWORD USE32 PUBLIC 'CONST'
rdata$r	ENDS
;	COMDAT ??_R0?AVCWnd@@@8
_DATA	SEGMENT DWORD USE32 PUBLIC 'DATA'
_DATA	ENDS
;	COMDAT ??_R1A@?0A@A@CStatic@@8
rdata$r	SEGMENT DWORD USE32 PUBLIC 'CONST'
rdata$r	ENDS
;	COMDAT ??_R1A@?0A@A@CScrollBarEx@@8
rdata$r	SEGMENT DWORD USE32 PUBLIC 'CONST'
rdata$r	ENDS
;	COMDAT ??_R1A@?0A@A@?$numpunct@_W@std@@8
rdata$r	SEGMENT DWORD USE32 PUBLIC 'CONST'
rdata$r	ENDS
;	COMDAT ??_R1A@?0A@A@facet@locale@std@@8
rdata$r	SEGMENT DWORD USE32 PUBLIC 'CONST'
rdata$r	ENDS
;	COMDAT ??_R0?AVfacet@locale@std@@@8
_DATA	SEGMENT DWORD USE32 PUBLIC 'DATA'
_DATA	ENDS
;	COMDAT ??_R1A@?0A@A@?$numpunct@D@std@@8
rdata$r	SEGMENT DWORD USE32 PUBLIC 'CONST'
rdata$r	ENDS
;	COMDAT ??_R1A@?0A@A@DIBINFO@@8
rdata$r	SEGMENT DWORD USE32 PUBLIC 'CONST'
rdata$r	ENDS
;	COMDAT ??_R0?AVCStatic@@@8
_DATA	SEGMENT DWORD USE32 PUBLIC 'DATA'
_DATA	ENDS
;	COMDAT ??_R0?AVCScrollBarEx@@@8
_DATA	SEGMENT DWORD USE32 PUBLIC 'DATA'
_DATA	ENDS
;	COMDAT ??_R0?AV?$numpunct@_W@std@@@8
_DATA	SEGMENT DWORD USE32 PUBLIC 'DATA'
_DATA	ENDS
;	COMDAT ??_R0?AV?$numpunct@D@std@@@8
_DATA	SEGMENT DWORD USE32 PUBLIC 'DATA'
_DATA	ENDS
;	COMDAT ??_R0?AVDIBINFO@@@8
_DATA	SEGMENT DWORD USE32 PUBLIC 'DATA'
_DATA	ENDS
;	COMDAT ??_R4CScrollBarEx@@6B@
rdata$r	SEGMENT DWORD USE32 PUBLIC 'CONST'
rdata$r	ENDS
;	COMDAT ??0?$allocator@_W@std@@QAE@XZ
_TEXT	SEGMENT PARA USE32 PUBLIC 'CODE'
_TEXT	ENDS
;	COMDAT ??0?$allocator@D@std@@QAE@ABV01@@Z
_TEXT	SEGMENT PARA USE32 PUBLIC 'CODE'
_TEXT	ENDS
;	COMDAT ??0?$allocator@D@std@@QAE@XZ
_TEXT	SEGMENT PARA USE32 PUBLIC 'CODE'
_TEXT	ENDS
;	COMDAT ?deallocate@?$allocator@D@std@@QAEXPADI@Z
_TEXT	SEGMENT PARA USE32 PUBLIC 'CODE'
_TEXT	ENDS
;	COMDAT ?max_size@?$allocator@D@std@@QBEIXZ
_TEXT	SEGMENT PARA USE32 PUBLIC 'CODE'
_TEXT	ENDS
;	COMDAT ?allocate@?$allocator@D@std@@QAEPADI@Z
_TEXT	SEGMENT PARA USE32 PUBLIC 'CODE'
_TEXT	ENDS
;	COMDAT ??$_Allocate@D@std@@YAPADIPAD@Z
_TEXT	SEGMENT PARA USE32 PUBLIC 'CODE'
_TEXT	ENDS
;	COMDAT ??_G?$numpunct@_W@std@@MAEPAXI@Z
_TEXT	SEGMENT PARA USE32 PUBLIC 'CODE'
_TEXT	ENDS
;	COMDAT ??_R4?$numpunct@_W@std@@6B@
rdata$r	SEGMENT DWORD USE32 PUBLIC 'CONST'
rdata$r	ENDS
;	COMDAT ??_G?$numpunct@D@std@@MAEPAXI@Z
_TEXT	SEGMENT PARA USE32 PUBLIC 'CODE'
_TEXT	ENDS
;	COMDAT ??_R4?$numpunct@D@std@@6B@
rdata$r	SEGMENT DWORD USE32 PUBLIC 'CONST'
rdata$r	ENDS
;	COMDAT ??_R4DIBINFO@@6B@
rdata$r	SEGMENT DWORD USE32 PUBLIC 'CONST'
rdata$r	ENDS
;	COMDAT ??_C@_0EN@CBMLGOH@D?3?2Program?5Files?5?$CIx86?$CJ?2Microsoft@
CONST	SEGMENT DWORD USE32 PUBLIC 'CONST'
CONST	ENDS
;	COMDAT ?_Psave@?$_Facetptr@V?$numpunct@_W@std@@@std@@2PBVfacet@locale@2@B
_DATA	SEGMENT DWORD USE32 PUBLIC 'DATA'
_DATA	ENDS
;	COMDAT ?_Psave@?$_Facetptr@V?$numpunct@D@std@@@std@@2PBVfacet@locale@2@B
_DATA	SEGMENT DWORD USE32 PUBLIC 'DATA'
_DATA	ENDS
;	COMDAT ?Unlock@CComCriticalSection@ATL@@QAEJXZ
_TEXT	SEGMENT PARA USE32 PUBLIC 'CODE'
_TEXT	ENDS
;	COMDAT ??_C@_0FG@LDNDNCJM@D?3?2Program?5Files?5?$CIx86?$CJ?2Microsoft@
CONST	SEGMENT DWORD USE32 PUBLIC 'CONST'
CONST	ENDS
;	COMDAT ??_C@_09HIEJFN@m_bLocked?$AA@
CONST	SEGMENT DWORD USE32 PUBLIC 'CONST'
CONST	ENDS
;	COMDAT ?_Psave@?$_Facetptr@V?$ctype@_W@std@@@std@@2PBVfacet@locale@2@B
_DATA	SEGMENT DWORD USE32 PUBLIC 'DATA'
_DATA	ENDS
;	COMDAT ?_Psave@?$_Facetptr@V?$ctype@D@std@@@std@@2PBVfacet@locale@2@B
_DATA	SEGMENT DWORD USE32 PUBLIC 'DATA'
_DATA	ENDS
;	COMDAT ??$_Maklocchr@_W@std@@YA_WDPA_WABU_Cvtvec@@@Z
_TEXT	SEGMENT PARA USE32 PUBLIC 'CODE'
_TEXT	ENDS
;	COMDAT ??$_DebugHeapDelete@X@std@@YAXPAX@Z
_TEXT	SEGMENT PARA USE32 PUBLIC 'CODE'
_TEXT	ENDS
;	COMDAT ??$_Maklocstr@_W@std@@YAPA_WPBDPA_WABU_Cvtvec@@@Z
_TEXT	SEGMENT PARA USE32 PUBLIC 'CODE'
_TEXT	ENDS
;	COMDAT ??$_Maklocchr@D@std@@YADDPADABU_Cvtvec@@@Z
_TEXT	SEGMENT PARA USE32 PUBLIC 'CODE'
_TEXT	ENDS
;	COMDAT ??_C@_04LOAJBDKD@true?$AA@
CONST	SEGMENT DWORD USE32 PUBLIC 'CONST'
CONST	ENDS
;	COMDAT ??_C@_05LAPONLG@false?$AA@
CONST	SEGMENT DWORD USE32 PUBLIC 'CONST'
CONST	ENDS
;	COMDAT _wmemcpy
_TEXT	SEGMENT PARA USE32 PUBLIC 'CODE'
_TEXT	ENDS
;	COMDAT ?max_size@?$allocator@_W@std@@QBEIXZ
_TEXT	SEGMENT PARA USE32 PUBLIC 'CODE'
_TEXT	ENDS
;	COMDAT ?allocate@?$allocator@_W@std@@QAEPA_WI@Z
_TEXT	SEGMENT PARA USE32 PUBLIC 'CODE'
_TEXT	ENDS
;	COMDAT ??$_Allocate@_W@std@@YAPA_WIPA_W@Z
_TEXT	SEGMENT PARA USE32 PUBLIC 'CODE'
_TEXT	ENDS
;	COMDAT ??_C@_01GFHCPBMG@C?$AA@
CONST	SEGMENT DWORD USE32 PUBLIC 'CONST'
CONST	ENDS
;	COMDAT ?_Peek@?$istreambuf_iterator@_WU?$char_traits@_W@std@@@std@@AAE_WXZ
_TEXT	SEGMENT PARA USE32 PUBLIC 'CODE'
_TEXT	ENDS
;	COMDAT ?_Peek@?$istreambuf_iterator@DU?$char_traits@D@std@@@std@@AAEDXZ
_TEXT	SEGMENT PARA USE32 PUBLIC 'CODE'
_TEXT	ENDS
;	COMDAT ??$use_facet@V?$ctype@_W@std@@@std@@YAABV?$ctype@_W@0@ABVlocale@0@@Z
_TEXT	SEGMENT PARA USE32 PUBLIC 'CODE'
_TEXT	ENDS
;	COMDAT ??_S?$ctype@_W@std@@6B@
CONST	SEGMENT DWORD USE32 PUBLIC 'CONST'
CONST	ENDS
;	COMDAT ??_R4?$ctype@_W@std@@6B@
rdata$r	SEGMENT DWORD USE32 PUBLIC 'CONST'
rdata$r	ENDS
;	COMDAT ??_R0?AV?$ctype@_W@std@@@8
_DATA	SEGMENT DWORD USE32 PUBLIC 'DATA'
_DATA	ENDS
;	COMDAT ??_R3?$ctype@_W@std@@8
rdata$r	SEGMENT DWORD USE32 PUBLIC 'CONST'
rdata$r	ENDS
;	COMDAT ??_R2?$ctype@_W@std@@8
rdata$r	SEGMENT DWORD USE32 PUBLIC 'CONST'
rdata$r	ENDS
;	COMDAT ??_R1A@?0A@A@?$ctype@_W@std@@8
rdata$r	SEGMENT DWORD USE32 PUBLIC 'CONST'
rdata$r	ENDS
;	COMDAT ??_R1A@?0A@A@ctype_base@std@@8
rdata$r	SEGMENT DWORD USE32 PUBLIC 'CONST'
rdata$r	ENDS
;	COMDAT ??_R0?AUctype_base@std@@@8
_DATA	SEGMENT DWORD USE32 PUBLIC 'DATA'
_DATA	ENDS
;	COMDAT ??_G?$ctype@_W@std@@MAEPAXI@Z
_TEXT	SEGMENT PARA USE32 PUBLIC 'CODE'
_TEXT	ENDS
;	COMDAT ??_C@_08EPJLHIJG@bad?5cast?$AA@
CONST	SEGMENT DWORD USE32 PUBLIC 'CONST'
CONST	ENDS
;	COMDAT __TI2?AVbad_cast@@
xdata$x	SEGMENT DWORD USE32 PUBLIC 'CONST'
xdata$x	ENDS
;	COMDAT __CTA2?AVbad_cast@@
xdata$x	SEGMENT DWORD USE32 PUBLIC 'CONST'
xdata$x	ENDS
;	COMDAT __CT??_R0?AVbad_cast@@@8??0bad_cast@@QAE@ABV0@@Z12
xdata$x	SEGMENT DWORD USE32 PUBLIC 'CONST'
xdata$x	ENDS
;	COMDAT ??_R0?AVbad_cast@@@8
_DATA	SEGMENT DWORD USE32 PUBLIC 'DATA'
_DATA	ENDS
;	COMDAT __CT??_R0?AVexception@@@8??0exception@@QAE@ABV0@@Z12
xdata$x	SEGMENT DWORD USE32 PUBLIC 'CONST'
xdata$x	ENDS
;	COMDAT ??_R0?AVexception@@@8
_DATA	SEGMENT DWORD USE32 PUBLIC 'DATA'
_DATA	ENDS
;	COMDAT ??$_DebugHeapDelete@Vfacet@locale@std@@@std@@YAXPAVfacet@locale@0@@Z
_TEXT	SEGMENT PARA USE32 PUBLIC 'CODE'
_TEXT	ENDS
;	COMDAT ??$use_facet@V?$ctype@D@std@@@std@@YAABV?$ctype@D@0@ABVlocale@0@@Z
_TEXT	SEGMENT PARA USE32 PUBLIC 'CODE'
_TEXT	ENDS
;	COMDAT ??_S?$ctype@D@std@@6B@
CONST	SEGMENT DWORD USE32 PUBLIC 'CONST'
CONST	ENDS
;	COMDAT ??_R4?$ctype@D@std@@6B@
rdata$r	SEGMENT DWORD USE32 PUBLIC 'CONST'
rdata$r	ENDS
;	COMDAT ??_R0?AV?$ctype@D@std@@@8
_DATA	SEGMENT DWORD USE32 PUBLIC 'DATA'
_DATA	ENDS
;	COMDAT ??_R3?$ctype@D@std@@8
rdata$r	SEGMENT DWORD USE32 PUBLIC 'CONST'
rdata$r	ENDS
;	COMDAT ??_R2?$ctype@D@std@@8
rdata$r	SEGMENT DWORD USE32 PUBLIC 'CONST'
rdata$r	ENDS
;	COMDAT ??_R1A@?0A@A@?$ctype@D@std@@8
rdata$r	SEGMENT DWORD USE32 PUBLIC 'CONST'
rdata$r	ENDS
;	COMDAT ??_G?$ctype@D@std@@MAEPAXI@Z
_TEXT	SEGMENT PARA USE32 PUBLIC 'CODE'
_TEXT	ENDS
;	COMDAT ??_S?$numpunct@_W@std@@6B@
CONST	SEGMENT DWORD USE32 PUBLIC 'CONST'
CONST	ENDS
;	COMDAT ??_S?$numpunct@D@std@@6B@
CONST	SEGMENT DWORD USE32 PUBLIC 'CONST'
CONST	ENDS
;	COMDAT _wmemmove
_TEXT	SEGMENT PARA USE32 PUBLIC 'CODE'
_TEXT	ENDS
;	COMDAT ?deallocate@?$allocator@_W@std@@QAEXPA_WI@Z
_TEXT	SEGMENT PARA USE32 PUBLIC 'CODE'
_TEXT	ENDS
;	COMDAT ??0?$allocator@_W@std@@QAE@ABV01@@Z
_TEXT	SEGMENT PARA USE32 PUBLIC 'CODE'
_TEXT	ENDS
;	COMDAT ??_C@_0FH@KDPNIMBO@D?3?2Program?5Files?5?$CIx86?$CJ?2Microsoft@
CONST	SEGMENT DWORD USE32 PUBLIC 'CONST'
CONST	ENDS
;	COMDAT ?AtlIsValidString@ATL@@YAHPBDI@Z
_TEXT	SEGMENT PARA USE32 PUBLIC 'CODE'
_TEXT	ENDS
;	COMDAT ??1CMemDC@@UAE@XZ
_TEXT	SEGMENT PARA USE32 PUBLIC 'CODE'
_TEXT	ENDS
;	COMDAT ??_7CMemDC@@6B@
CONST	SEGMENT DWORD USE32 PUBLIC 'CONST'
CONST	ENDS
;	COMDAT ??_R4CMemDC@@6B@
rdata$r	SEGMENT DWORD USE32 PUBLIC 'CONST'
rdata$r	ENDS
;	COMDAT ??_R0?AVCMemDC@@@8
_DATA	SEGMENT DWORD USE32 PUBLIC 'DATA'
_DATA	ENDS
;	COMDAT ??_R3CMemDC@@8
rdata$r	SEGMENT DWORD USE32 PUBLIC 'CONST'
rdata$r	ENDS
;	COMDAT ??_R2CMemDC@@8
rdata$r	SEGMENT DWORD USE32 PUBLIC 'CONST'
rdata$r	ENDS
;	COMDAT ??_R1A@?0A@A@CMemDC@@8
rdata$r	SEGMENT DWORD USE32 PUBLIC 'CONST'
rdata$r	ENDS
;	COMDAT ??_R1A@?0A@A@CDC@@8
rdata$r	SEGMENT DWORD USE32 PUBLIC 'CONST'
rdata$r	ENDS
;	COMDAT ??_R0?AVCDC@@@8
_DATA	SEGMENT DWORD USE32 PUBLIC 'DATA'
_DATA	ENDS
;	COMDAT ??_GCMemDC@@UAEPAXI@Z
_TEXT	SEGMENT PARA USE32 PUBLIC 'CODE'
_TEXT	ENDS
;	COMDAT ??0CMemDC@@QAE@PAVCDC@@ABVCRect@@@Z
_TEXT	SEGMENT PARA USE32 PUBLIC 'CODE'
_TEXT	ENDS
;	COMDAT ?Release@CStringData@ATL@@QAEXXZ
_TEXT	SEGMENT PARA USE32 PUBLIC 'CODE'
_TEXT	ENDS
;	COMDAT ??_C@_0L@OIIMFBNE@nRefs?5?$CB?$DN?50?$AA@
CONST	SEGMENT DWORD USE32 PUBLIC 'CONST'
CONST	ENDS
;	COMDAT ??_C@_0FJ@DMHPDOJC@D?3?2Program?5Files?5?$CIx86?$CJ?2Microsoft@
CONST	SEGMENT DWORD USE32 PUBLIC 'CONST'
CONST	ENDS
;	COMDAT ??_C@_0BA@GOIMFHNK@pStringMgr?5?$CB?$DN?50?$AA@
CONST	SEGMENT DWORD USE32 PUBLIC 'CONST'
CONST	ENDS
;	COMDAT ?data@CStringData@ATL@@QAEPAXXZ
_TEXT	SEGMENT PARA USE32 PUBLIC 'CODE'
_TEXT	ENDS
;	COMDAT ?GetDefaultManager@?$StrTraitMFC_DLL@DV?$ChTraitsCRT@D@ATL@@@@SAPAUIAtlStringMgr@ATL@@XZ
_TEXT	SEGMENT PARA USE32 PUBLIC 'CODE'
_TEXT	ENDS
;	COMDAT ?FindStringResourceInstance@?$StrTraitMFC_DLL@DV?$ChTraitsCRT@D@ATL@@@@SAPAUHINSTANCE__@@I@Z
_TEXT	SEGMENT PARA USE32 PUBLIC 'CODE'
_TEXT	ENDS
;	COMDAT ?AtlGetStringResourceImage@ATL@@YAPBUATLSTRINGRESOURCEIMAGE@1@PAUHINSTANCE__@@I@Z
_TEXT	SEGMENT PARA USE32 PUBLIC 'CODE'
_TEXT	ENDS
;	COMDAT ?_AtlGetStringResourceImage@ATL@@YAPBUATLSTRINGRESOURCEIMAGE@1@PAUHINSTANCE__@@PAUHRSRC__@@I@Z
_TEXT	SEGMENT PARA USE32 PUBLIC 'CODE'
_TEXT	ENDS
;	COMDAT ?GetBaseTypeLength@?$ChTraitsCRT@D@ATL@@SAHPB_WH@Z
_TEXT	SEGMENT PARA USE32 PUBLIC 'CODE'
_TEXT	ENDS
;	COMDAT ?_AtlGetConversionACP@ATL@@YGIXZ
_TEXT	SEGMENT PARA USE32 PUBLIC 'CODE'
_TEXT	ENDS
;	COMDAT ?g_pfnGetThreadACP@ATL@@3P6GIXZA
_DATA	SEGMENT DWORD USE32 PUBLIC 'DATA'
_DATA	ENDS
;	COMDAT ?_AtlGetThreadACPThunk@ATL@@YGIXZ
_TEXT	SEGMENT PARA USE32 PUBLIC 'CODE'
_TEXT	ENDS
;	COMDAT ?_AtlGetThreadACPReal@ATL@@YGIXZ
_TEXT	SEGMENT PARA USE32 PUBLIC 'CODE'
_TEXT	ENDS
;	COMDAT ?_AtlGetThreadACPFake@ATL@@YGIXZ
_TEXT	SEGMENT PARA USE32 PUBLIC 'CODE'
_TEXT	ENDS
;	COMDAT ?InterlockedExchangePointer@@YGPAXPAPAXPAX@Z
_TEXT	SEGMENT PARA USE32 PUBLIC 'CODE'
_TEXT	ENDS
;	COMDAT ?IsShared@CStringData@ATL@@QBE_NXZ
_TEXT	SEGMENT PARA USE32 PUBLIC 'CODE'
_TEXT	ENDS
;	COMDAT ?AtlThrow@ATL@@YGXJ@Z
_TEXT	SEGMENT PARA USE32 PUBLIC 'CODE'
_TEXT	ENDS
;	COMDAT ??_C@_0FI@NHHJANPC@D?3?2Program?5Files?5?$CIx86?$CJ?2Microsoft@
CONST	SEGMENT DWORD USE32 PUBLIC 'CONST'
CONST	ENDS
;	COMDAT ??_C@_0BF@IAAKIJDJ@AtlThrow?3?5hr?5?$DN?50x?$CFx?6?$AA@
CONST	SEGMENT DWORD USE32 PUBLIC 'CONST'
CONST	ENDS
;	COMDAT ??_C@_0CB@GFHAPKDK@pOldData?9?$DOnAllocLength?5?$DM?5nLength@
CONST	SEGMENT DWORD USE32 PUBLIC 'CONST'
CONST	ENDS
;	COMDAT ?ConvertToBaseType@?$ChTraitsCRT@D@ATL@@SAXPADHPB_WH@Z
_TEXT	SEGMENT PARA USE32 PUBLIC 'CODE'
_TEXT	ENDS
;	COMDAT ??_C@_0BA@GNIEOBOF@nNewLength?5?$DO?$DN?50?$AA@
CONST	SEGMENT DWORD USE32 PUBLIC 'CONST'
CONST	ENDS
;	COMDAT ??_C@_0N@ILOMLJGA@nLength?5?$DO?$DN?50?$AA@
CONST	SEGMENT DWORD USE32 PUBLIC 'CONST'
CONST	ENDS
;	COMDAT ??_C@_0CD@EEFFJEGJ@nLength?5?$DM?$DN?5GetData?$CI?$CJ?9?$DOnAllocLeng@
CONST	SEGMENT DWORD USE32 PUBLIC 'CONST'
CONST	ENDS
;	COMDAT ??RCTraceFileAndLineInfo@ATL@@QBAXKIPBDZZ
_TEXT	SEGMENT PARA USE32 PUBLIC 'CODE'
_TEXT	ENDS
;	COMDAT ?TraceV@CTrace@ATL@@QBAXPBDHKI0PAD@Z
_TEXT	SEGMENT PARA USE32 PUBLIC 'CODE'
_TEXT	ENDS
;	COMDAT ??0CTraceFileAndLineInfo@ATL@@QAE@PBDH@Z
_TEXT	SEGMENT PARA USE32 PUBLIC 'CODE'
_TEXT	ENDS
;	COMDAT ??_C@_0CJ@FJEKGMMD@Warning?3?5implicit?5LoadString?$CI?$CFu?$CJ@
CONST	SEGMENT DWORD USE32 PUBLIC 'CONST'
CONST	ENDS
;	COMDAT ??BCTraceCategory@ATL@@QBEKXZ
_TEXT	SEGMENT PARA USE32 PUBLIC 'CODE'
_TEXT	ENDS
;	COMDAT ?IsLocked@CStringData@ATL@@QBE_NXZ
_TEXT	SEGMENT PARA USE32 PUBLIC 'CODE'
_TEXT	ENDS
;	COMDAT ?_messageEntries@CScrollBarEx@@0QBUAFX_MSGMAP_ENTRY@@B
CONST	SEGMENT DWORD USE32 PUBLIC 'CONST'
CONST	ENDS
;	COMDAT ?messageMap@CScrollBarEx@@1UAFX_MSGMAP@@B
CONST	SEGMENT DWORD USE32 PUBLIC 'CONST'
CONST	ENDS
;	COMDAT ??_7CScrollBarEx@@6B@
CONST	SEGMENT DWORD USE32 PUBLIC 'CONST'
CONST	ENDS
;	COMDAT ??_7DIBINFO@@6B@
CONST	SEGMENT DWORD USE32 PUBLIC 'CONST'
CONST	ENDS
sxdata	SEGMENT DWORD USE32 'SXDATA'
sxdata	ENDS
FLAT	GROUP _DATA, CONST, _BSS
	ASSUME	CS: FLAT, DS: FLAT, SS: FLAT
endif

INCLUDELIB MSVCRTD
INCLUDELIB OLDNAMES

PUBLIC	?g_pfnGetThreadACP@ATL@@3P6GIXZA		; ATL::g_pfnGetThreadACP
PUBLIC	?_AtlGetThreadACPThunk@ATL@@YGIXZ		; ATL::_AtlGetThreadACPThunk
PUBLIC	?OnLButtonDown@CScrollBarEx@@IAEXIVCPoint@@@Z	; CScrollBarEx::OnLButtonDown
PUBLIC	?OnLButtonDblClk@CScrollBarEx@@IAEXIVCPoint@@@Z	; CScrollBarEx::OnLButtonDblClk
PUBLIC	?OnLButtonUp@CScrollBarEx@@IAEXIVCPoint@@@Z	; CScrollBarEx::OnLButtonUp
PUBLIC	?OnMouseMove@CScrollBarEx@@IAEXIVCPoint@@@Z	; CScrollBarEx::OnMouseMove
PUBLIC	?OnTimer@CScrollBarEx@@IAEXI@Z			; CScrollBarEx::OnTimer
PUBLIC	?OnDlgMouseWheel@CScrollBarEx@@IAEJIJ@Z		; CScrollBarEx::OnDlgMouseWheel
PUBLIC	?OnMouseLeave@CScrollBarEx@@IAEJIJ@Z		; CScrollBarEx::OnMouseLeave
PUBLIC	?_messageEntries@CScrollBarEx@@0QBUAFX_MSGMAP_ENTRY@@B ; CScrollBarEx::_messageEntries
PUBLIC	?messageMap@CScrollBarEx@@1UAFX_MSGMAP@@B	; CScrollBarEx::messageMap
PUBLIC	?OnCreate@CScrollBarEx@@QAEHPAUtagCREATESTRUCTA@@@Z ; CScrollBarEx::OnCreate
EXTRN	?GetThisMessageMap@CWnd@@KGPBUAFX_MSGMAP@@XZ:NEAR ; CWnd::GetThisMessageMap
_DATA	SEGMENT
_THIS_FILE DB	'.\src\LayoutMgr\ChangeColor\ScrollBarEx.cpp', 00H
_DATA	ENDS
;	COMDAT ?_messageEntries@CScrollBarEx@@0QBUAFX_MSGMAP_ENTRY@@B
CONST	SEGMENT
?_messageEntries@CScrollBarEx@@0QBUAFX_MSGMAP_ENTRY@@B DD 0201H ; CScrollBarEx::_messageEntries
	DD	00H
	DD	00H
	DD	00H
	DD	032H
	DD	FLAT:?OnLButtonDown@CScrollBarEx@@IAEXIVCPoint@@@Z
	DD	0203H
	DD	00H
	DD	00H
	DD	00H
	DD	032H
	DD	FLAT:?OnLButtonDblClk@CScrollBarEx@@IAEXIVCPoint@@@Z
	DD	0202H
	DD	00H
	DD	00H
	DD	00H
	DD	032H
	DD	FLAT:?OnLButtonUp@CScrollBarEx@@IAEXIVCPoint@@@Z
	DD	0200H
	DD	00H
	DD	00H
	DD	00H
	DD	032H
	DD	FLAT:?OnMouseMove@CScrollBarEx@@IAEXIVCPoint@@@Z
	DD	0113H
	DD	00H
	DD	00H
	DD	00H
	DD	011H
	DD	FLAT:?OnTimer@CScrollBarEx@@IAEXI@Z
	DD	02a3H
	DD	00H
	DD	00H
	DD	00H
	DD	0eH
	DD	FLAT:?OnMouseLeave@CScrollBarEx@@IAEJIJ@Z
	DD	07e8H
	DD	00H
	DD	00H
	DD	00H
	DD	0eH
	DD	FLAT:?OnDlgMouseWheel@CScrollBarEx@@IAEJIJ@Z
	DD	01H
	DD	00H
	DD	00H
	DD	00H
	DD	0dH
	DD	FLAT:?OnCreate@CScrollBarEx@@QAEHPAUtagCREATESTRUCTA@@@Z
	DD	00H
	DD	00H
	DD	00H
	DD	00H
	DD	00H
	DD	00H
CONST	ENDS
;	COMDAT ?messageMap@CScrollBarEx@@1UAFX_MSGMAP@@B
CONST	SEGMENT
?messageMap@CScrollBarEx@@1UAFX_MSGMAP@@B DD FLAT:?GetThisMessageMap@CWnd@@KGPBUAFX_MSGMAP@@XZ ; CScrollBarEx::messageMap
	DD	FLAT:?_messageEntries@CScrollBarEx@@0QBUAFX_MSGMAP_ENTRY@@B
CONST	ENDS
CONST	SEGMENT
$SG187678 DB	'SysListView32', 00H
	ORG $+2
$SG187719 DB	'SysListView32', 00H
	ORG $+2
$SG187911 DB	'AfxFrameOrView80ud', 00H
	ORG $+1
$SG187912 DB	'AfxFrameOrView70d', 00H
	ORG $+2
$SG187913 DB	'AfxFrameOrView80u', 00H
	ORG $+2
$SG187914 DB	'AfxFrameOrView70', 00H
CONST	ENDS
;	COMDAT ?g_pfnGetThreadACP@ATL@@3P6GIXZA
_DATA	SEGMENT
?g_pfnGetThreadACP@ATL@@3P6GIXZA DD FLAT:?_AtlGetThreadACPThunk@ATL@@YGIXZ ; ATL::g_pfnGetThreadACP
_DATA	ENDS
PUBLIC	??_R4CScrollBarEx@@6B@				; CScrollBarEx::`RTTI Complete Object Locator'
PUBLIC	??_R0?AVCScrollBarEx@@@8			; CScrollBarEx `RTTI Type Descriptor'
PUBLIC	??_R3CScrollBarEx@@8				; CScrollBarEx::`RTTI Class Hierarchy Descriptor'
PUBLIC	??_R2CScrollBarEx@@8				; CScrollBarEx::`RTTI Base Class Array'
PUBLIC	??_R1A@?0A@A@CScrollBarEx@@8			; CScrollBarEx::`RTTI Base Class Descriptor at (0,-1,0,0)'
PUBLIC	??_R1A@?0A@A@CStatic@@8				; CStatic::`RTTI Base Class Descriptor at (0,-1,0,0)'
PUBLIC	??_R0?AVCStatic@@@8				; CStatic `RTTI Type Descriptor'
PUBLIC	??_R1A@?0A@A@CWnd@@8				; CWnd::`RTTI Base Class Descriptor at (0,-1,0,0)'
PUBLIC	??_R0?AVCWnd@@@8				; CWnd `RTTI Type Descriptor'
PUBLIC	??_R1A@?0A@A@CCmdTarget@@8			; CCmdTarget::`RTTI Base Class Descriptor at (0,-1,0,0)'
PUBLIC	??_R0?AVCCmdTarget@@@8				; CCmdTarget `RTTI Type Descriptor'
PUBLIC	??_R1A@?0A@A@CObject@@8				; CObject::`RTTI Base Class Descriptor at (0,-1,0,0)'
PUBLIC	??_R0?AVCObject@@@8				; CObject `RTTI Type Descriptor'
PUBLIC	?PreSubclassWindow@CScrollBarEx@@MAEXXZ		; CScrollBarEx::PreSubclassWindow
PUBLIC	?GetMessageMap@CScrollBarEx@@MBEPBUAFX_MSGMAP@@XZ ; CScrollBarEx::GetMessageMap
PUBLIC	??0CScrollBarEx@@QAE@XZ				; CScrollBarEx::CScrollBarEx
PUBLIC	??_7CScrollBarEx@@6B@				; CScrollBarEx::`vftable'
PUBLIC	??_GCScrollBarEx@@UAEPAXI@Z			; CScrollBarEx::`scalar deleting destructor'
EXTRN	?GetInterfaceMap@CWnd@@MBEPBUAFX_INTERFACEMAP@@XZ:NEAR ; CWnd::GetInterfaceMap
EXTRN	?EnsureStdObj@CWnd@@UAEJXZ:NEAR			; CWnd::EnsureStdObj
EXTRN	?get_accParent@CWnd@@UAEJPAPAUIDispatch@@@Z:NEAR ; CWnd::get_accParent
EXTRN	?OnCmdMsg@CCmdTarget@@UAEHIHPAXPAUAFX_CMDHANDLERINFO@@@Z:NEAR ; CCmdTarget::OnCmdMsg
EXTRN	?get_accChildCount@CWnd@@UAEJPAJ@Z:NEAR		; CWnd::get_accChildCount
EXTRN	?IsInvokeAllowed@CCmdTarget@@UAEHJ@Z:NEAR	; CCmdTarget::IsInvokeAllowed
EXTRN	?get_accChild@CWnd@@UAEJUtagVARIANT@@PAPAUIDispatch@@@Z:NEAR ; CWnd::get_accChild
EXTRN	?get_accName@CWnd@@UAEJUtagVARIANT@@PAPA_W@Z:NEAR ; CWnd::get_accName
EXTRN	?get_accValue@CWnd@@UAEJUtagVARIANT@@PAPA_W@Z:NEAR ; CWnd::get_accValue
EXTRN	?GetDispatchIID@CCmdTarget@@UAEHPAU_GUID@@@Z:NEAR ; CCmdTarget::GetDispatchIID
EXTRN	?GetTypeInfoCount@CCmdTarget@@UAEIXZ:NEAR	; CCmdTarget::GetTypeInfoCount
EXTRN	?GetTypeLibCache@CCmdTarget@@UAEPAVCTypeLibCache@@XZ:NEAR ; CCmdTarget::GetTypeLibCache
EXTRN	?get_accDescription@CWnd@@UAEJUtagVARIANT@@PAPA_W@Z:NEAR ; CWnd::get_accDescription
EXTRN	?GetTypeLib@CCmdTarget@@UAEJKPAPAUITypeLib@@@Z:NEAR ; CCmdTarget::GetTypeLib
EXTRN	?get_accRole@CWnd@@UAEJUtagVARIANT@@PAU2@@Z:NEAR ; CWnd::get_accRole
EXTRN	?get_accState@CWnd@@UAEJUtagVARIANT@@PAU2@@Z:NEAR ; CWnd::get_accState
EXTRN	?get_accHelp@CWnd@@UAEJUtagVARIANT@@PAPA_W@Z:NEAR ; CWnd::get_accHelp
EXTRN	?get_accHelpTopic@CWnd@@UAEJPAPA_WUtagVARIANT@@PAJ@Z:NEAR ; CWnd::get_accHelpTopic
EXTRN	?get_accKeyboardShortcut@CWnd@@UAEJUtagVARIANT@@PAPA_W@Z:NEAR ; CWnd::get_accKeyboardShortcut
EXTRN	?get_accFocus@CWnd@@UAEJPAUtagVARIANT@@@Z:NEAR	; CWnd::get_accFocus
EXTRN	?get_accSelection@CWnd@@UAEJPAUtagVARIANT@@@Z:NEAR ; CWnd::get_accSelection
EXTRN	?get_accDefaultAction@CWnd@@UAEJUtagVARIANT@@PAPA_W@Z:NEAR ; CWnd::get_accDefaultAction
EXTRN	?GetCommandMap@CCmdTarget@@MBEPBUAFX_OLECMDMAP@@XZ:NEAR ; CCmdTarget::GetCommandMap
EXTRN	?accSelect@CWnd@@UAEJJUtagVARIANT@@@Z:NEAR	; CWnd::accSelect
EXTRN	?accLocation@CWnd@@UAEJPAJ000UtagVARIANT@@@Z:NEAR ; CWnd::accLocation
EXTRN	?GetDispatchMap@CCmdTarget@@MBEPBUAFX_DISPMAP@@XZ:NEAR ; CCmdTarget::GetDispatchMap
EXTRN	?accNavigate@CWnd@@UAEJJUtagVARIANT@@PAU2@@Z:NEAR ; CWnd::accNavigate
EXTRN	?accHitTest@CWnd@@UAEJJJPAUtagVARIANT@@@Z:NEAR	; CWnd::accHitTest
EXTRN	?GetConnectionMap@CCmdTarget@@MBEPBUAFX_CONNECTIONMAP@@XZ:NEAR ; CCmdTarget::GetConnectionMap
EXTRN	?accDoDefaultAction@CWnd@@UAEJUtagVARIANT@@@Z:NEAR ; CWnd::accDoDefaultAction
EXTRN	?put_accName@CWnd@@UAEJUtagVARIANT@@PA_W@Z:NEAR	; CWnd::put_accName
EXTRN	?put_accValue@CWnd@@UAEJUtagVARIANT@@PA_W@Z:NEAR ; CWnd::put_accValue
EXTRN	?SetProxy@CWnd@@UAEJPAUIAccessibleProxy@@@Z:NEAR ; CWnd::SetProxy
EXTRN	?CreateAccessibleProxy@CWnd@@UAEJIJPAJ@Z:NEAR	; CWnd::CreateAccessibleProxy
EXTRN	?GetEventSinkMap@CCmdTarget@@MBEPBUAFX_EVENTSINKMAP@@XZ:NEAR ; CCmdTarget::GetEventSinkMap
EXTRN	?OnCreateAggregates@CCmdTarget@@UAEHXZ:NEAR	; CCmdTarget::OnCreateAggregates
EXTRN	?OnCommand@CWnd@@MAEHIJ@Z:NEAR			; CWnd::OnCommand
EXTRN	?GetInterfaceHook@CCmdTarget@@UAEPAUIUnknown@@PBX@Z:NEAR ; CCmdTarget::GetInterfaceHook
EXTRN	?OnNotify@CWnd@@MAEHIJPAJ@Z:NEAR		; CWnd::OnNotify
EXTRN	?GetExtraConnectionPoints@CCmdTarget@@MAEHPAVCPtrArray@@@Z:NEAR ; CCmdTarget::GetExtraConnectionPoints
EXTRN	?GetConnectionHook@CCmdTarget@@MAEPAUIConnectionPoint@@ABU_GUID@@@Z:NEAR ; CCmdTarget::GetConnectionHook
EXTRN	??0CPoint@@QAE@XZ:NEAR				; CPoint::CPoint
EXTRN	__RTC_InitBase:NEAR
EXTRN	__RTC_Shutdown:NEAR
EXTRN	__RTC_CheckEsp:NEAR
EXTRN	?Create@CWnd@@UAEHPBD0KABUtagRECT@@PAV1@IPAUCCreateContext@@@Z:NEAR ; CWnd::Create
EXTRN	?CreateEx@CWnd@@UAEHKPBD0KHHHHPAUHWND__@@PAUHMENU__@@PAX@Z:NEAR ; CWnd::CreateEx
EXTRN	?CreateEx@CWnd@@UAEHKPBD0KABUtagRECT@@PAV1@IPAX@Z:NEAR ; CWnd::CreateEx
EXTRN	?Serialize@CObject@@UAEXAAVCArchive@@@Z:NEAR	; CObject::Serialize
EXTRN	?DestroyWindow@CWnd@@UAEHXZ:NEAR		; CWnd::DestroyWindow
EXTRN	?PreCreateWindow@CWnd@@UAEHAAUtagCREATESTRUCTA@@@Z:NEAR ; CWnd::PreCreateWindow
EXTRN	?CalcWindowRect@CWnd@@UAEXPAUtagRECT@@I@Z:NEAR	; CWnd::CalcWindowRect
EXTRN	?GetSuperWndProcAddr@CWnd@@MAEPAP6GJPAUHWND__@@IIJ@ZXZ:NEAR ; CWnd::GetSuperWndProcAddr
EXTRN	?DoDataExchange@CWnd@@MAEXPAVCDataExchange@@@Z:NEAR ; CWnd::DoDataExchange
EXTRN	?BeginModalState@CWnd@@UAEXXZ:NEAR		; CWnd::BeginModalState
EXTRN	?EndModalState@CWnd@@UAEXXZ:NEAR		; CWnd::EndModalState
EXTRN	?PreTranslateMessage@CWnd@@UAEHPAUtagMSG@@@Z:NEAR ; CWnd::PreTranslateMessage
EXTRN	?OnAmbientProperty@CWnd@@UAEHPAVCOleControlSite@@JPAUtagVARIANT@@@Z:NEAR ; CWnd::OnAmbientProperty
EXTRN	?WindowProc@CWnd@@MAEJIIJ@Z:NEAR		; CWnd::WindowProc
EXTRN	?OnWndMsg@CWnd@@MAEHIIJPAJ@Z:NEAR		; CWnd::OnWndMsg
EXTRN	?DefWindowProcA@CWnd@@MAEJIIJ@Z:NEAR		; CWnd::DefWindowProcA
EXTRN	?PostNcDestroy@CWnd@@MAEXXZ:NEAR		; CWnd::PostNcDestroy
EXTRN	?CheckAutoCenter@CWnd@@UAEHXZ:NEAR		; CWnd::CheckAutoCenter
EXTRN	?AssertValid@CWnd@@UBEXXZ:NEAR			; CWnd::AssertValid
EXTRN	?Dump@CWnd@@UBEXAAVCDumpContext@@@Z:NEAR	; CWnd::Dump
EXTRN	?IsFrameWnd@CWnd@@UBEHXZ:NEAR			; CWnd::IsFrameWnd
EXTRN	?OnFinalRelease@CWnd@@UAEXXZ:NEAR		; CWnd::OnFinalRelease
EXTRN	?CreateControlContainer@CWnd@@MAEHPAPAVCOleControlContainer@@@Z:NEAR ; CWnd::CreateControlContainer
EXTRN	?CreateControlSite@CWnd@@MAEHPAVCOleControlContainer@@PAPAVCOleControlSite@@IABU_GUID@@@Z:NEAR ; CWnd::CreateControlSite
EXTRN	?SetOccDialogInfo@CWnd@@MAEHPAU_AFX_OCC_DIALOG_INFO@@@Z:NEAR ; CWnd::SetOccDialogInfo
EXTRN	_memset:NEAR
EXTRN	?OnToolHitTest@CWnd@@UBEHVCPoint@@PAUtagTOOLINFOA@@@Z:NEAR ; CWnd::OnToolHitTest
EXTRN	??_ECScrollBarEx@@UAEPAXI@Z:NEAR		; CScrollBarEx::`vector deleting destructor'
EXTRN	?GetRuntimeClass@CStatic@@UBEPAUCRuntimeClass@@XZ:NEAR ; CStatic::GetRuntimeClass
EXTRN	??0CStatic@@QAE@XZ:NEAR				; CStatic::CStatic
EXTRN	?Create@CStatic@@UAEHPBDKABUtagRECT@@PAVCWnd@@I@Z:NEAR ; CStatic::Create
EXTRN	?GetScrollBarCtrl@CWnd@@UBEPAVCScrollBar@@H@Z:NEAR ; CWnd::GetScrollBarCtrl
EXTRN	?DrawItem@CStatic@@UAEXPAUtagDRAWITEMSTRUCT@@@Z:NEAR ; CStatic::DrawItem
EXTRN	?OnChildNotify@CStatic@@MAEHIIJPAJ@Z:NEAR	; CStatic::OnChildNotify
EXTRN	__imp__GetSystemMetrics@4:NEAR
EXTRN	?WinHelpA@CWnd@@UAEXKI@Z:NEAR			; CWnd::WinHelpA
EXTRN	?HtmlHelpA@CWnd@@UAEXKI@Z:NEAR			; CWnd::HtmlHelpA
EXTRN	??_7type_info@@6B@:QWORD			; type_info::`vftable'
EXTRN	?WinHelpInternal@CWnd@@UAEXKI@Z:NEAR		; CWnd::WinHelpInternal
EXTRN	?ContinueModal@CWnd@@UAEHXZ:NEAR		; CWnd::ContinueModal
EXTRN	?EndModalLoop@CWnd@@UAEXH@Z:NEAR		; CWnd::EndModalLoop
;	COMDAT rtc$IMZ
; File d:\boxgit\playbox\playbox\dev\prj\playbox\src\layoutmgr\changecolor\scrollbarex.cpp
rtc$IMZ	SEGMENT
__RTC_InitBase.rtc$IMZ DD FLAT:__RTC_InitBase
rtc$IMZ	ENDS
;	COMDAT rtc$TMZ
rtc$TMZ	SEGMENT
__RTC_Shutdown.rtc$TMZ DD FLAT:__RTC_Shutdown
rtc$TMZ	ENDS
;	COMDAT ??_7CScrollBarEx@@6B@
CONST	SEGMENT
??_7CScrollBarEx@@6B@ DD FLAT:??_R4CScrollBarEx@@6B@	; CScrollBarEx::`vftable'
	DD	FLAT:?GetRuntimeClass@CStatic@@UBEPAUCRuntimeClass@@XZ
	DD	FLAT:??_ECScrollBarEx@@UAEPAXI@Z
	DD	FLAT:?Serialize@CObject@@UAEXAAVCArchive@@@Z
	DD	FLAT:?AssertValid@CWnd@@UBEXXZ
	DD	FLAT:?Dump@CWnd@@UBEXAAVCDumpContext@@@Z
	DD	FLAT:?OnCmdMsg@CCmdTarget@@UAEHIHPAXPAUAFX_CMDHANDLERINFO@@@Z
	DD	FLAT:?OnFinalRelease@CWnd@@UAEXXZ
	DD	FLAT:?IsInvokeAllowed@CCmdTarget@@UAEHJ@Z
	DD	FLAT:?GetDispatchIID@CCmdTarget@@UAEHPAU_GUID@@@Z
	DD	FLAT:?GetTypeInfoCount@CCmdTarget@@UAEIXZ
	DD	FLAT:?GetTypeLibCache@CCmdTarget@@UAEPAVCTypeLibCache@@XZ
	DD	FLAT:?GetTypeLib@CCmdTarget@@UAEJKPAPAUITypeLib@@@Z
	DD	FLAT:?GetMessageMap@CScrollBarEx@@MBEPBUAFX_MSGMAP@@XZ
	DD	FLAT:?GetCommandMap@CCmdTarget@@MBEPBUAFX_OLECMDMAP@@XZ
	DD	FLAT:?GetDispatchMap@CCmdTarget@@MBEPBUAFX_DISPMAP@@XZ
	DD	FLAT:?GetConnectionMap@CCmdTarget@@MBEPBUAFX_CONNECTIONMAP@@XZ
	DD	FLAT:?GetInterfaceMap@CWnd@@MBEPBUAFX_INTERFACEMAP@@XZ
	DD	FLAT:?GetEventSinkMap@CCmdTarget@@MBEPBUAFX_EVENTSINKMAP@@XZ
	DD	FLAT:?OnCreateAggregates@CCmdTarget@@UAEHXZ
	DD	FLAT:?GetInterfaceHook@CCmdTarget@@UAEPAUIUnknown@@PBX@Z
	DD	FLAT:?GetExtraConnectionPoints@CCmdTarget@@MAEHPAVCPtrArray@@@Z
	DD	FLAT:?GetConnectionHook@CCmdTarget@@MAEPAUIConnectionPoint@@ABU_GUID@@@Z
	DD	FLAT:?PreSubclassWindow@CScrollBarEx@@MAEXXZ
	DD	FLAT:?Create@CWnd@@UAEHPBD0KABUtagRECT@@PAV1@IPAUCCreateContext@@@Z
	DD	FLAT:?CreateEx@CWnd@@UAEHKPBD0KABUtagRECT@@PAV1@IPAX@Z
	DD	FLAT:?CreateEx@CWnd@@UAEHKPBD0KHHHHPAUHWND__@@PAUHMENU__@@PAX@Z
	DD	FLAT:?DestroyWindow@CWnd@@UAEHXZ
	DD	FLAT:?PreCreateWindow@CWnd@@UAEHAAUtagCREATESTRUCTA@@@Z
	DD	FLAT:?CalcWindowRect@CWnd@@UAEXPAUtagRECT@@I@Z
	DD	FLAT:?OnToolHitTest@CWnd@@UBEHVCPoint@@PAUtagTOOLINFOA@@@Z
	DD	FLAT:?GetScrollBarCtrl@CWnd@@UBEPAVCScrollBar@@H@Z
	DD	FLAT:?WinHelpA@CWnd@@UAEXKI@Z
	DD	FLAT:?HtmlHelpA@CWnd@@UAEXKI@Z
	DD	FLAT:?WinHelpInternal@CWnd@@UAEXKI@Z
	DD	FLAT:?ContinueModal@CWnd@@UAEHXZ
	DD	FLAT:?EndModalLoop@CWnd@@UAEXH@Z
	DD	FLAT:?EnsureStdObj@CWnd@@UAEJXZ
	DD	FLAT:?get_accParent@CWnd@@UAEJPAPAUIDispatch@@@Z
	DD	FLAT:?get_accChildCount@CWnd@@UAEJPAJ@Z
	DD	FLAT:?get_accChild@CWnd@@UAEJUtagVARIANT@@PAPAUIDispatch@@@Z
	DD	FLAT:?get_accName@CWnd@@UAEJUtagVARIANT@@PAPA_W@Z
	DD	FLAT:?get_accValue@CWnd@@UAEJUtagVARIANT@@PAPA_W@Z
	DD	FLAT:?get_accDescription@CWnd@@UAEJUtagVARIANT@@PAPA_W@Z
	DD	FLAT:?get_accRole@CWnd@@UAEJUtagVARIANT@@PAU2@@Z
	DD	FLAT:?get_accState@CWnd@@UAEJUtagVARIANT@@PAU2@@Z
	DD	FLAT:?get_accHelp@CWnd@@UAEJUtagVARIANT@@PAPA_W@Z
	DD	FLAT:?get_accHelpTopic@CWnd@@UAEJPAPA_WUtagVARIANT@@PAJ@Z
	DD	FLAT:?get_accKeyboardShortcut@CWnd@@UAEJUtagVARIANT@@PAPA_W@Z
	DD	FLAT:?get_accFocus@CWnd@@UAEJPAUtagVARIANT@@@Z
	DD	FLAT:?get_accSelection@CWnd@@UAEJPAUtagVARIANT@@@Z
	DD	FLAT:?get_accDefaultAction@CWnd@@UAEJUtagVARIANT@@PAPA_W@Z
	DD	FLAT:?accSelect@CWnd@@UAEJJUtagVARIANT@@@Z
	DD	FLAT:?accLocation@CWnd@@UAEJPAJ000UtagVARIANT@@@Z
	DD	FLAT:?accNavigate@CWnd@@UAEJJUtagVARIANT@@PAU2@@Z
	DD	FLAT:?accHitTest@CWnd@@UAEJJJPAUtagVARIANT@@@Z
	DD	FLAT:?accDoDefaultAction@CWnd@@UAEJUtagVARIANT@@@Z
	DD	FLAT:?put_accName@CWnd@@UAEJUtagVARIANT@@PA_W@Z
	DD	FLAT:?put_accValue@CWnd@@UAEJUtagVARIANT@@PA_W@Z
	DD	FLAT:?SetProxy@CWnd@@UAEJPAUIAccessibleProxy@@@Z
	DD	FLAT:?CreateAccessibleProxy@CWnd@@UAEJIJPAJ@Z
	DD	FLAT:?OnCommand@CWnd@@MAEHIJ@Z
	DD	FLAT:?OnNotify@CWnd@@MAEHIJPAJ@Z
	DD	FLAT:?GetSuperWndProcAddr@CWnd@@MAEPAP6GJPAUHWND__@@IIJ@ZXZ
	DD	FLAT:?DoDataExchange@CWnd@@MAEXPAVCDataExchange@@@Z
	DD	FLAT:?BeginModalState@CWnd@@UAEXXZ
	DD	FLAT:?EndModalState@CWnd@@UAEXXZ
	DD	FLAT:?PreTranslateMessage@CWnd@@UAEHPAUtagMSG@@@Z
	DD	FLAT:?OnAmbientProperty@CWnd@@UAEHPAVCOleControlSite@@JPAUtagVARIANT@@@Z
	DD	FLAT:?WindowProc@CWnd@@MAEJIIJ@Z
	DD	FLAT:?OnWndMsg@CWnd@@MAEHIIJPAJ@Z
	DD	FLAT:?DefWindowProcA@CWnd@@MAEJIIJ@Z
	DD	FLAT:?PostNcDestroy@CWnd@@MAEXXZ
	DD	FLAT:?OnChildNotify@CStatic@@MAEHIIJPAJ@Z
	DD	FLAT:?CheckAutoCenter@CWnd@@UAEHXZ
	DD	FLAT:?IsFrameWnd@CWnd@@UBEHXZ
	DD	FLAT:?CreateControlContainer@CWnd@@MAEHPAPAVCOleControlContainer@@@Z
	DD	FLAT:?CreateControlSite@CWnd@@MAEHPAVCOleControlContainer@@PAPAVCOleControlSite@@IABU_GUID@@@Z
	DD	FLAT:?SetOccDialogInfo@CWnd@@MAEHPAU_AFX_OCC_DIALOG_INFO@@@Z
	DD	FLAT:?Create@CStatic@@UAEHPBDKABUtagRECT@@PAVCWnd@@I@Z
	DD	FLAT:?DrawItem@CStatic@@UAEXPAUtagDRAWITEMSTRUCT@@@Z
CONST	ENDS
;	COMDAT ??_R4CScrollBarEx@@6B@
rdata$r	SEGMENT
??_R4CScrollBarEx@@6B@ DD 00H				; CScrollBarEx::`RTTI Complete Object Locator'
	DD	00H
	DD	00H
	DD	FLAT:??_R0?AVCScrollBarEx@@@8
	DD	FLAT:??_R3CScrollBarEx@@8
rdata$r	ENDS
;	COMDAT ??_R0?AVCScrollBarEx@@@8
_DATA	SEGMENT
??_R0?AVCScrollBarEx@@@8 DD FLAT:??_7type_info@@6B@	; CScrollBarEx `RTTI Type Descriptor'
	DD	00H
	DB	'.?AVCScrollBarEx@@', 00H
_DATA	ENDS
;	COMDAT ??_R3CScrollBarEx@@8
rdata$r	SEGMENT
??_R3CScrollBarEx@@8 DD 00H				; CScrollBarEx::`RTTI Class Hierarchy Descriptor'
	DD	00H
	DD	05H
	DD	FLAT:??_R2CScrollBarEx@@8
rdata$r	ENDS
;	COMDAT ??_R2CScrollBarEx@@8
rdata$r	SEGMENT
??_R2CScrollBarEx@@8 DD FLAT:??_R1A@?0A@A@CScrollBarEx@@8 ; CScrollBarEx::`RTTI Base Class Array'
	DD	FLAT:??_R1A@?0A@A@CStatic@@8
	DD	FLAT:??_R1A@?0A@A@CWnd@@8
	DD	FLAT:??_R1A@?0A@A@CCmdTarget@@8
	DD	FLAT:??_R1A@?0A@A@CObject@@8
rdata$r	ENDS
;	COMDAT ??_R1A@?0A@A@CScrollBarEx@@8
rdata$r	SEGMENT
??_R1A@?0A@A@CScrollBarEx@@8 DD FLAT:??_R0?AVCScrollBarEx@@@8 ; CScrollBarEx::`RTTI Base Class Descriptor at (0,-1,0,0)'
	DD	04H
	DD	00H
	DD	0ffffffffH
	DD	00H
	DD	00H
rdata$r	ENDS
;	COMDAT ??_R1A@?0A@A@CStatic@@8
rdata$r	SEGMENT
??_R1A@?0A@A@CStatic@@8 DD FLAT:??_R0?AVCStatic@@@8	; CStatic::`RTTI Base Class Descriptor at (0,-1,0,0)'
	DD	03H
	DD	00H
	DD	0ffffffffH
	DD	00H
	DD	00H
rdata$r	ENDS
;	COMDAT ??_R0?AVCStatic@@@8
_DATA	SEGMENT
??_R0?AVCStatic@@@8 DD FLAT:??_7type_info@@6B@		; CStatic `RTTI Type Descriptor'
	DD	00H
	DB	'.?AVCStatic@@', 00H
_DATA	ENDS
;	COMDAT ??_R1A@?0A@A@CWnd@@8
rdata$r	SEGMENT
??_R1A@?0A@A@CWnd@@8 DD FLAT:??_R0?AVCWnd@@@8		; CWnd::`RTTI Base Class Descriptor at (0,-1,0,0)'
	DD	02H
	DD	00H
	DD	0ffffffffH
	DD	00H
	DD	00H
rdata$r	ENDS
;	COMDAT ??_R0?AVCWnd@@@8
_DATA	SEGMENT
??_R0?AVCWnd@@@8 DD FLAT:??_7type_info@@6B@		; CWnd `RTTI Type Descriptor'
	DD	00H
	DB	'.?AVCWnd@@', 00H
_DATA	ENDS
;	COMDAT ??_R1A@?0A@A@CCmdTarget@@8
rdata$r	SEGMENT
??_R1A@?0A@A@CCmdTarget@@8 DD FLAT:??_R0?AVCCmdTarget@@@8 ; CCmdTarget::`RTTI Base Class Descriptor at (0,-1,0,0)'
	DD	01H
	DD	00H
	DD	0ffffffffH
	DD	00H
	DD	00H
rdata$r	ENDS
;	COMDAT ??_R0?AVCCmdTarget@@@8
_DATA	SEGMENT
??_R0?AVCCmdTarget@@@8 DD FLAT:??_7type_info@@6B@	; CCmdTarget `RTTI Type Descriptor'
	DD	00H
	DB	'.?AVCCmdTarget@@', 00H
_DATA	ENDS
;	COMDAT ??_R1A@?0A@A@CObject@@8
rdata$r	SEGMENT
??_R1A@?0A@A@CObject@@8 DD FLAT:??_R0?AVCObject@@@8	; CObject::`RTTI Base Class Descriptor at (0,-1,0,0)'
	DD	00H
	DD	00H
	DD	0ffffffffH
	DD	00H
	DD	00H
rdata$r	ENDS
;	COMDAT ??_R0?AVCObject@@@8
_DATA	SEGMENT
??_R0?AVCObject@@@8 DD FLAT:??_7type_info@@6B@		; CObject `RTTI Type Descriptor'
	DD	00H
	DB	'.?AVCObject@@', 00H
; Function compile flags: /Odt /RTCsu
_DATA	ENDS
_TEXT	SEGMENT
_this$ = -4						; size = 4
??0CScrollBarEx@@QAE@XZ PROC NEAR			; CScrollBarEx::CScrollBarEx
; _this$ = ecx

; 17   : {

  00000	55		 push	 ebp
  00001	8b ec		 mov	 ebp, esp
  00003	51		 push	 ecx
  00004	56		 push	 esi
  00005	c7 45 fc cc cc
	cc cc		 mov	 DWORD PTR [ebp-4], -858993460 ; ccccccccH
  0000c	89 4d fc	 mov	 DWORD PTR _this$[ebp], ecx
  0000f	8b 4d fc	 mov	 ecx, DWORD PTR _this$[ebp]
  00012	e8 00 00 00 00	 call	 ??0CStatic@@QAE@XZ	; CStatic::CStatic
  00017	8b 45 fc	 mov	 eax, DWORD PTR _this$[ebp]
  0001a	c7 00 00 00 00
	00		 mov	 DWORD PTR [eax], OFFSET FLAT:??_7CScrollBarEx@@6B@
  00020	8b 4d fc	 mov	 ecx, DWORD PTR _this$[ebp]
  00023	81 c1 a8 00 00
	00		 add	 ecx, 168		; 000000a8H
  00029	e8 00 00 00 00	 call	 ??0CPoint@@QAE@XZ	; CPoint::CPoint

; 18   : 	mpWnd = NULL;

  0002e	8b 4d fc	 mov	 ecx, DWORD PTR _this$[ebp]
  00031	c7 41 54 00 00
	00 00		 mov	 DWORD PTR [ecx+84], 0

; 19   : 	mScrollOrientation = esoVertical;

  00038	8b 55 fc	 mov	 edx, DWORD PTR _this$[ebp]
  0003b	c7 82 80 00 00
	00 01 00 00 00	 mov	 DWORD PTR [edx+128], 1

; 20   : 	mbEnabled = false;

  00045	8b 45 fc	 mov	 eax, DWORD PTR _this$[ebp]
  00048	c6 80 98 00 00
	00 00		 mov	 BYTE PTR [eax+152], 0

; 21   : 	mbTrackLeave = false;

  0004f	8b 4d fc	 mov	 ecx, DWORD PTR _this$[ebp]
  00052	c6 81 99 00 00
	00 00		 mov	 BYTE PTR [ecx+153], 0

; 22   : 	mbLButtonDown = false;

  00059	8b 55 fc	 mov	 edx, DWORD PTR _this$[ebp]
  0005c	c6 82 9a 00 00
	00 00		 mov	 BYTE PTR [edx+154], 0

; 23   : 	mbUpArrowDown = false;

  00063	8b 45 fc	 mov	 eax, DWORD PTR _this$[ebp]
  00066	c6 80 9b 00 00
	00 00		 mov	 BYTE PTR [eax+155], 0

; 24   : 	mbDownArrowDown = false;

  0006d	8b 4d fc	 mov	 ecx, DWORD PTR _this$[ebp]
  00070	c6 81 9c 00 00
	00 00		 mov	 BYTE PTR [ecx+156], 0

; 25   : 	mbThumbDown = false;

  00077	8b 55 fc	 mov	 edx, DWORD PTR _this$[ebp]
  0007a	c6 82 9d 00 00
	00 00		 mov	 BYTE PTR [edx+157], 0

; 26   : 	mbThumbSpaceDown = false;

  00081	8b 45 fc	 mov	 eax, DWORD PTR _this$[ebp]
  00084	c6 80 9e 00 00
	00 00		 mov	 BYTE PTR [eax+158], 0

; 27   : 	miLastHitTest = HTNOWHERE;

  0008b	8b 4d fc	 mov	 ecx, DWORD PTR _this$[ebp]
  0008e	c7 81 a0 00 00
	00 00 00 00 00	 mov	 DWORD PTR [ecx+160], 0

; 28   : 	miLButtonDownHitTest = HTNOWHERE;

  00098	8b 55 fc	 mov	 edx, DWORD PTR _this$[ebp]
  0009b	c7 82 a4 00 00
	00 00 00 00 00	 mov	 DWORD PTR [edx+164], 0

; 29   : 	miButtonSize = GetSystemMetrics(SM_CXHTHUMB);

  000a5	8b f4		 mov	 esi, esp
  000a7	6a 0a		 push	 10			; 0000000aH
  000a9	ff 15 00 00 00
	00		 call	 DWORD PTR __imp__GetSystemMetrics@4
  000af	3b f4		 cmp	 esi, esp
  000b1	e8 00 00 00 00	 call	 __RTC_CheckEsp
  000b6	8b 4d fc	 mov	 ecx, DWORD PTR _this$[ebp]
  000b9	89 81 94 00 00
	00		 mov	 DWORD PTR [ecx+148], eax

; 30   : 	ZeroMemory(&mScrollInfo, sizeof(mScrollInfo));

  000bf	6a 1c		 push	 28			; 0000001cH
  000c1	6a 00		 push	 0
  000c3	8b 55 fc	 mov	 edx, DWORD PTR _this$[ebp]
  000c6	83 c2 64	 add	 edx, 100		; 00000064H
  000c9	52		 push	 edx
  000ca	e8 00 00 00 00	 call	 _memset
  000cf	83 c4 0c	 add	 esp, 12			; 0000000cH

; 31   : 	mScrollInfo.cbSize = sizeof(mScrollInfo);

  000d2	8b 45 fc	 mov	 eax, DWORD PTR _this$[ebp]
  000d5	c7 40 64 1c 00
	00 00		 mov	 DWORD PTR [eax+100], 28	; 0000001cH

; 32   : 
; 33   : 	mrcClient.left = 0;

  000dc	8b 4d fc	 mov	 ecx, DWORD PTR _this$[ebp]
  000df	c7 81 84 00 00
	00 00 00 00 00	 mov	 DWORD PTR [ecx+132], 0

; 34   : 	mrcClient.top = 0;

  000e9	8b 55 fc	 mov	 edx, DWORD PTR _this$[ebp]
  000ec	c7 82 88 00 00
	00 00 00 00 00	 mov	 DWORD PTR [edx+136], 0

; 35   : 	mrcClient.right = 0;

  000f6	8b 45 fc	 mov	 eax, DWORD PTR _this$[ebp]
  000f9	c7 80 8c 00 00
	00 00 00 00 00	 mov	 DWORD PTR [eax+140], 0

; 36   : 	mrcClient.bottom = 0;

  00103	8b 4d fc	 mov	 ecx, DWORD PTR _this$[ebp]
  00106	c7 81 90 00 00
	00 00 00 00 00	 mov	 DWORD PTR [ecx+144], 0

; 37   : 
; 38   : 
; 39   : 	/*mcolNormal1 = gWndColor.getColor(SCROLLBAR_CTROL)->colNormal1 ;
; 40   : 	mcolNormal2 = gWndColor.getColor(SCROLLBAR_CTROL)->colNormal2;
; 41   : 	mcolEnter1 = gWndColor.getColor(SCROLLBAR_CTROL)->colEnter1;
; 42   : 	mcolEnter2 = gWndColor.getColor(SCROLLBAR_CTROL)->colEnter2;
; 43   : 	mcolDown1 = gWndColor.getColor(SCROLLBAR_CTROL)->colDown1;
; 44   : 	mcolDown2 = gWndColor.getColor(SCROLLBAR_CTROL)->colDown2;
; 45   : 	mcolFrame1 = gWndColor.getColor(SCROLLBAR_CTROL)->structColBase->colFrame1;
; 46   : 	mcolFrame2 = gWndColor.getColor(SCROLLBAR_CTROL)->structColBase->colFrame2;
; 47   : 	mcolBtn1 = gWndColor.getColor(SCROLLBAR_CTROL)->colDisable1;
; 48   : 	mcolBtn2 = gWndColor.getColor(SCROLLBAR_CTROL)->colDisable2;
; 49   : 	mcolFont = gWndColor.getColor(SCROLLBAR_CTROL)->structColBase->colFont ;
; 50   : 	mcolBK = gWndColor.getColor(SCROLLBAR_CTROL)->structColBase->colBK;*/
; 51   : 
; 52   : 	misDlg = FALSE;

  00110	8b 55 fc	 mov	 edx, DWORD PTR _this$[ebp]
  00113	c7 82 e0 00 00
	00 00 00 00 00	 mov	 DWORD PTR [edx+224], 0

; 53   : //	mPointOffsetSum = 0;
; 54   : }

  0011d	8b 45 fc	 mov	 eax, DWORD PTR _this$[ebp]
  00120	5e		 pop	 esi
  00121	83 c4 04	 add	 esp, 4
  00124	3b ec		 cmp	 ebp, esp
  00126	e8 00 00 00 00	 call	 __RTC_CheckEsp
  0012b	8b e5		 mov	 esp, ebp
  0012d	5d		 pop	 ebp
  0012e	c3		 ret	 0
??0CScrollBarEx@@QAE@XZ ENDP				; CScrollBarEx::CScrollBarEx
_TEXT	ENDS
PUBLIC	??1CScrollBarEx@@UAE@XZ				; CScrollBarEx::~CScrollBarEx
EXTRN	??3CObject@@SGXPAX@Z:NEAR			; CObject::operator delete
; Function compile flags: /Odt /RTCsu
;	COMDAT ??_GCScrollBarEx@@UAEPAXI@Z
_TEXT	SEGMENT
_this$ = -4						; size = 4
___flags$ = 8						; size = 4
??_GCScrollBarEx@@UAEPAXI@Z PROC NEAR			; CScrollBarEx::`scalar deleting destructor', COMDAT
; _this$ = ecx
  00000	55		 push	 ebp
  00001	8b ec		 mov	 ebp, esp
  00003	51		 push	 ecx
  00004	c7 45 fc cc cc
	cc cc		 mov	 DWORD PTR [ebp-4], -858993460 ; ccccccccH
  0000b	89 4d fc	 mov	 DWORD PTR _this$[ebp], ecx
  0000e	8b 4d fc	 mov	 ecx, DWORD PTR _this$[ebp]
  00011	e8 00 00 00 00	 call	 ??1CScrollBarEx@@UAE@XZ	; CScrollBarEx::~CScrollBarEx
  00016	8b 45 08	 mov	 eax, DWORD PTR ___flags$[ebp]
  00019	83 e0 01	 and	 eax, 1
  0001c	74 09		 je	 SHORT $L187495
  0001e	8b 4d fc	 mov	 ecx, DWORD PTR _this$[ebp]
  00021	51		 push	 ecx
  00022	e8 00 00 00 00	 call	 ??3CObject@@SGXPAX@Z	; CObject::operator delete
$L187495:
  00027	8b 45 fc	 mov	 eax, DWORD PTR _this$[ebp]
  0002a	83 c4 04	 add	 esp, 4
  0002d	3b ec		 cmp	 ebp, esp
  0002f	e8 00 00 00 00	 call	 __RTC_CheckEsp
  00034	8b e5		 mov	 esp, ebp
  00036	5d		 pop	 ebp
  00037	c2 04 00	 ret	 4
??_GCScrollBarEx@@UAEPAXI@Z ENDP			; CScrollBarEx::`scalar deleting destructor'
_TEXT	ENDS
EXTRN	??1CStatic@@UAE@XZ:NEAR				; CStatic::~CStatic
; Function compile flags: /Odt /RTCsu
_TEXT	SEGMENT
_this$ = -4						; size = 4
??1CScrollBarEx@@UAE@XZ PROC NEAR			; CScrollBarEx::~CScrollBarEx
; _this$ = ecx

; 57   : {

  00130	55		 push	 ebp
  00131	8b ec		 mov	 ebp, esp
  00133	51		 push	 ecx
  00134	c7 45 fc cc cc
	cc cc		 mov	 DWORD PTR [ebp-4], -858993460 ; ccccccccH
  0013b	89 4d fc	 mov	 DWORD PTR _this$[ebp], ecx
  0013e	8b 45 fc	 mov	 eax, DWORD PTR _this$[ebp]
  00141	c7 00 00 00 00
	00		 mov	 DWORD PTR [eax], OFFSET FLAT:??_7CScrollBarEx@@6B@

; 58   : }

  00147	8b 4d fc	 mov	 ecx, DWORD PTR _this$[ebp]
  0014a	e8 00 00 00 00	 call	 ??1CStatic@@UAE@XZ	; CStatic::~CStatic
  0014f	83 c4 04	 add	 esp, 4
  00152	3b ec		 cmp	 ebp, esp
  00154	e8 00 00 00 00	 call	 __RTC_CheckEsp
  00159	8b e5		 mov	 esp, ebp
  0015b	5d		 pop	 ebp
  0015c	c3		 ret	 0
??1CScrollBarEx@@UAE@XZ ENDP				; CScrollBarEx::~CScrollBarEx
_TEXT	ENDS
PUBLIC	?GetThisMessageMap@CScrollBarEx@@KGPBUAFX_MSGMAP@@XZ ; CScrollBarEx::GetThisMessageMap
; Function compile flags: /Odt /RTCsu
_TEXT	SEGMENT
?GetThisMessageMap@CScrollBarEx@@KGPBUAFX_MSGMAP@@XZ PROC NEAR ; CScrollBarEx::GetThisMessageMap

; 60   : BEGIN_MESSAGE_MAP(CScrollBarEx, CStatic)

  00160	55		 push	 ebp
  00161	8b ec		 mov	 ebp, esp
  00163	b8 00 00 00 00	 mov	 eax, OFFSET FLAT:?messageMap@CScrollBarEx@@1UAFX_MSGMAP@@B ; CScrollBarEx::messageMap
  00168	5d		 pop	 ebp
  00169	c3		 ret	 0
?GetThisMessageMap@CScrollBarEx@@KGPBUAFX_MSGMAP@@XZ ENDP ; CScrollBarEx::GetThisMessageMap
; Function compile flags: /Odt /RTCsu
_this$ = -4						; size = 4
?GetMessageMap@CScrollBarEx@@MBEPBUAFX_MSGMAP@@XZ PROC NEAR ; CScrollBarEx::GetMessageMap
; _this$ = ecx

; 60   : BEGIN_MESSAGE_MAP(CScrollBarEx, CStatic)

  00170	55		 push	 ebp
  00171	8b ec		 mov	 ebp, esp
  00173	51		 push	 ecx
  00174	c7 45 fc cc cc
	cc cc		 mov	 DWORD PTR [ebp-4], -858993460 ; ccccccccH
  0017b	89 4d fc	 mov	 DWORD PTR _this$[ebp], ecx
  0017e	b8 00 00 00 00	 mov	 eax, OFFSET FLAT:?messageMap@CScrollBarEx@@1UAFX_MSGMAP@@B ; CScrollBarEx::messageMap
  00183	8b e5		 mov	 esp, ebp
  00185	5d		 pop	 ebp
  00186	c3		 ret	 0
?GetMessageMap@CScrollBarEx@@MBEPBUAFX_MSGMAP@@XZ ENDP	; CScrollBarEx::GetMessageMap
_TEXT	ENDS
PUBLIC	?SelfProc@CScrollBarEx@@KGJPAUHWND__@@IIJ@Z	; CScrollBarEx::SelfProc
EXTRN	?GetSafeHwnd@CWnd@@QBEPAUHWND__@@XZ:NEAR	; CWnd::GetSafeHwnd
EXTRN	?ModifyStyle@CWnd@@QAEHKKI@Z:NEAR		; CWnd::ModifyStyle
EXTRN	?PreSubclassWindow@CWnd@@UAEXXZ:NEAR		; CWnd::PreSubclassWindow
EXTRN	__imp__SetWindowLongA@12:NEAR
; Function compile flags: /Odt /RTCsu
_TEXT	SEGMENT
_this$ = -4						; size = 4
?PreSubclassWindow@CScrollBarEx@@MAEXXZ PROC NEAR	; CScrollBarEx::PreSubclassWindow
; _this$ = ecx

; 85   : {

  00190	55		 push	 ebp
  00191	8b ec		 mov	 ebp, esp
  00193	51		 push	 ecx
  00194	56		 push	 esi
  00195	c7 45 fc cc cc
	cc cc		 mov	 DWORD PTR [ebp-4], -858993460 ; ccccccccH
  0019c	89 4d fc	 mov	 DWORD PTR _this$[ebp], ecx

; 86   : 	ModifyStyle(0, SS_NOTIFY);	//使static控件能响应鼠标消息

  0019f	6a 00		 push	 0
  001a1	68 00 01 00 00	 push	 256			; 00000100H
  001a6	6a 00		 push	 0
  001a8	8b 4d fc	 mov	 ecx, DWORD PTR _this$[ebp]
  001ab	e8 00 00 00 00	 call	 ?ModifyStyle@CWnd@@QAEHKKI@Z ; CWnd::ModifyStyle

; 87   : 	mWndProc = (WNDPROC)SetWindowLong(this->GetSafeHwnd(), GWL_WNDPROC, (LONG)SelfProc);

  001b0	8b f4		 mov	 esi, esp
  001b2	68 00 00 00 00	 push	 OFFSET FLAT:?SelfProc@CScrollBarEx@@KGJPAUHWND__@@IIJ@Z ; CScrollBarEx::SelfProc
  001b7	6a fc		 push	 -4			; fffffffcH
  001b9	8b 4d fc	 mov	 ecx, DWORD PTR _this$[ebp]
  001bc	e8 00 00 00 00	 call	 ?GetSafeHwnd@CWnd@@QBEPAUHWND__@@XZ ; CWnd::GetSafeHwnd
  001c1	50		 push	 eax
  001c2	ff 15 00 00 00
	00		 call	 DWORD PTR __imp__SetWindowLongA@12
  001c8	3b f4		 cmp	 esi, esp
  001ca	e8 00 00 00 00	 call	 __RTC_CheckEsp
  001cf	8b 4d fc	 mov	 ecx, DWORD PTR _this$[ebp]
  001d2	89 41 58	 mov	 DWORD PTR [ecx+88], eax

; 88   : 	CStatic::PreSubclassWindow();

  001d5	8b 4d fc	 mov	 ecx, DWORD PTR _this$[ebp]
  001d8	e8 00 00 00 00	 call	 ?PreSubclassWindow@CWnd@@UAEXXZ ; CWnd::PreSubclassWindow

; 89   : }

  001dd	5e		 pop	 esi
  001de	83 c4 04	 add	 esp, 4
  001e1	3b ec		 cmp	 ebp, esp
  001e3	e8 00 00 00 00	 call	 __RTC_CheckEsp
  001e8	8b e5		 mov	 esp, ebp
  001ea	5d		 pop	 ebp
  001eb	c3		 ret	 0
?PreSubclassWindow@CScrollBarEx@@MAEXXZ ENDP		; CScrollBarEx::PreSubclassWindow
_TEXT	ENDS
PUBLIC	?Draw@CScrollBarEx@@AAEXPAUHWND__@@PAUHDC__@@@Z	; CScrollBarEx::Draw
EXTRN	__imp__CallWindowProcA@20:NEAR
EXTRN	__imp__BeginPaint@8:NEAR
EXTRN	__imp__EndPaint@8:NEAR
EXTRN	?FromHandle@CWnd@@SGPAV1@PAUHWND__@@@Z:NEAR	; CWnd::FromHandle
EXTRN	___security_cookie:DWORD
EXTRN	@_RTC_CheckStackVars@8:NEAR
EXTRN	@__security_check_cookie@4:NEAR
EXTRN	?Invalidate@CWnd@@QAEXH@Z:NEAR			; CWnd::Invalidate
; Function compile flags: /Odt /RTCsu
_TEXT	SEGMENT
tv67 = -92						; size = 4
_hDC$ = -88						; size = 4
_ps$ = -80						; size = 64
_lpThis$ = -12						; size = 4
_lReturn$ = -8						; size = 4
__$ArrayPad$ = -4					; size = 4
__$ReturnAddr$ = 4					; size = 4
_hWnd$ = 8						; size = 4
_uMsg$ = 12						; size = 4
_wParam$ = 16						; size = 4
_lParam$ = 20						; size = 4
?SelfProc@CScrollBarEx@@KGJPAUHWND__@@IIJ@Z PROC NEAR	; CScrollBarEx::SelfProc

; 92   : {

  001f0	55		 push	 ebp
  001f1	8b ec		 mov	 ebp, esp
  001f3	83 ec 5c	 sub	 esp, 92			; 0000005cH
  001f6	56		 push	 esi
  001f7	57		 push	 edi
  001f8	8d 7d a4	 lea	 edi, DWORD PTR [ebp-92]
  001fb	b9 17 00 00 00	 mov	 ecx, 23			; 00000017H
  00200	b8 cc cc cc cc	 mov	 eax, -858993460		; ccccccccH
  00205	f3 ab		 rep stosd
  00207	a1 00 00 00 00	 mov	 eax, DWORD PTR ___security_cookie
  0020c	89 45 fc	 mov	 DWORD PTR __$ArrayPad$[ebp], eax

; 93   : 	LONG lReturn = 0;

  0020f	c7 45 f8 00 00
	00 00		 mov	 DWORD PTR _lReturn$[ebp], 0

; 94   : 	CScrollBarEx* lpThis = NULL;

  00216	c7 45 f4 00 00
	00 00		 mov	 DWORD PTR _lpThis$[ebp], 0

; 95   : 	lpThis = (CScrollBarEx*)CWnd::FromHandle(hWnd);

  0021d	8b 45 08	 mov	 eax, DWORD PTR _hWnd$[ebp]
  00220	50		 push	 eax
  00221	e8 00 00 00 00	 call	 ?FromHandle@CWnd@@SGPAV1@PAUHWND__@@@Z ; CWnd::FromHandle
  00226	89 45 f4	 mov	 DWORD PTR _lpThis$[ebp], eax

; 96   : 	if (lpThis == NULL)

  00229	83 7d f4 00	 cmp	 DWORD PTR _lpThis$[ebp], 0
  0022d	75 08		 jne	 SHORT $L187557

; 97   : 		return lReturn;

  0022f	8b 45 f8	 mov	 eax, DWORD PTR _lReturn$[ebp]
  00232	e9 8f 00 00 00	 jmp	 $L187553
$L187557:

; 98   : 
; 99   : 	PAINTSTRUCT ps; 
; 100  : 	HDC hDC; 
; 101  : 	switch (uMsg)

  00237	8b 4d 0c	 mov	 ecx, DWORD PTR _uMsg$[ebp]
  0023a	89 4d a4	 mov	 DWORD PTR tv67[ebp], ecx
  0023d	83 7d a4 0a	 cmp	 DWORD PTR tv67[ebp], 10	; 0000000aH
  00241	74 4d		 je	 SHORT $L187565
  00243	83 7d a4 0f	 cmp	 DWORD PTR tv67[ebp], 15	; 0000000fH
  00247	74 02		 je	 SHORT $L187564
  00249	eb 4f		 jmp	 SHORT $L187561
$L187564:

; 102  : 	{
; 103  : 	case WM_PAINT:
; 104  : 		{
; 105  : 			hDC = ::BeginPaint(hWnd, &ps);

  0024b	8b f4		 mov	 esi, esp
  0024d	8d 55 b0	 lea	 edx, DWORD PTR _ps$[ebp]
  00250	52		 push	 edx
  00251	8b 45 08	 mov	 eax, DWORD PTR _hWnd$[ebp]
  00254	50		 push	 eax
  00255	ff 15 00 00 00
	00		 call	 DWORD PTR __imp__BeginPaint@8
  0025b	3b f4		 cmp	 esi, esp
  0025d	e8 00 00 00 00	 call	 __RTC_CheckEsp
  00262	89 45 a8	 mov	 DWORD PTR _hDC$[ebp], eax

; 106  : 			lpThis->Draw(hWnd, hDC);

  00265	8b 4d a8	 mov	 ecx, DWORD PTR _hDC$[ebp]
  00268	51		 push	 ecx
  00269	8b 55 08	 mov	 edx, DWORD PTR _hWnd$[ebp]
  0026c	52		 push	 edx
  0026d	8b 4d f4	 mov	 ecx, DWORD PTR _lpThis$[ebp]
  00270	e8 00 00 00 00	 call	 ?Draw@CScrollBarEx@@AAEXPAUHWND__@@PAUHDC__@@@Z ; CScrollBarEx::Draw

; 107  : 			::EndPaint(hWnd, &ps);

  00275	8b f4		 mov	 esi, esp
  00277	8d 45 b0	 lea	 eax, DWORD PTR _ps$[ebp]
  0027a	50		 push	 eax
  0027b	8b 4d 08	 mov	 ecx, DWORD PTR _hWnd$[ebp]
  0027e	51		 push	 ecx
  0027f	ff 15 00 00 00
	00		 call	 DWORD PTR __imp__EndPaint@8
  00285	3b f4		 cmp	 esi, esp
  00287	e8 00 00 00 00	 call	 __RTC_CheckEsp

; 108  : 			return 0L;

  0028c	33 c0		 xor	 eax, eax
  0028e	eb 36		 jmp	 SHORT $L187553
$L187565:

; 109  : 		}
; 110  : 		break;
; 111  : 	case WM_ENABLE:
; 112  : 		lpThis->Invalidate();

  00290	6a 01		 push	 1
  00292	8b 4d f4	 mov	 ecx, DWORD PTR _lpThis$[ebp]
  00295	e8 00 00 00 00	 call	 ?Invalidate@CWnd@@QAEXH@Z ; CWnd::Invalidate
$L187561:

; 113  : 		break;
; 114  : 	}
; 115  : 	// 调用原来的回调函数
; 116  : 	lReturn = (LONG)CallWindowProc(lpThis->mWndProc, hWnd, uMsg, wParam, lParam);

  0029a	8b f4		 mov	 esi, esp
  0029c	8b 55 14	 mov	 edx, DWORD PTR _lParam$[ebp]
  0029f	52		 push	 edx
  002a0	8b 45 10	 mov	 eax, DWORD PTR _wParam$[ebp]
  002a3	50		 push	 eax
  002a4	8b 4d 0c	 mov	 ecx, DWORD PTR _uMsg$[ebp]
  002a7	51		 push	 ecx
  002a8	8b 55 08	 mov	 edx, DWORD PTR _hWnd$[ebp]
  002ab	52		 push	 edx
  002ac	8b 45 f4	 mov	 eax, DWORD PTR _lpThis$[ebp]
  002af	8b 48 58	 mov	 ecx, DWORD PTR [eax+88]
  002b2	51		 push	 ecx
  002b3	ff 15 00 00 00
	00		 call	 DWORD PTR __imp__CallWindowProcA@20
  002b9	3b f4		 cmp	 esi, esp
  002bb	e8 00 00 00 00	 call	 __RTC_CheckEsp
  002c0	89 45 f8	 mov	 DWORD PTR _lReturn$[ebp], eax

; 117  : 	return lReturn;

  002c3	8b 45 f8	 mov	 eax, DWORD PTR _lReturn$[ebp]
$L187553:

; 118  : }

  002c6	52		 push	 edx
  002c7	8b cd		 mov	 ecx, ebp
  002c9	50		 push	 eax
  002ca	8d 15 00 00 00
	00		 lea	 edx, DWORD PTR $L188905
  002d0	e8 00 00 00 00	 call	 @_RTC_CheckStackVars@8
  002d5	58		 pop	 eax
  002d6	5a		 pop	 edx
  002d7	8b 4d fc	 mov	 ecx, DWORD PTR __$ArrayPad$[ebp]
  002da	e8 00 00 00 00	 call	 @__security_check_cookie@4
  002df	5f		 pop	 edi
  002e0	5e		 pop	 esi
  002e1	83 c4 5c	 add	 esp, 92			; 0000005cH
  002e4	3b ec		 cmp	 ebp, esp
  002e6	e8 00 00 00 00	 call	 __RTC_CheckEsp
  002eb	8b e5		 mov	 esp, ebp
  002ed	5d		 pop	 ebp
  002ee	c2 10 00	 ret	 16			; 00000010H
$L188905:
  002f1	01 00 00 00	 DD	 1
  002f5	00 00 00 00	 DD	 $L188904
$L188904:
  002f9	b0 ff ff ff	 DD	 -80			; ffffffb0H
  002fd	40 00 00 00	 DD	 64			; 00000040H
  00301	00 00 00 00	 DD	 $L188901
$L188901:
  00305	70		 DB	 112			; 00000070H
  00306	73		 DB	 115			; 00000073H
  00307	00		 DB	 0
?SelfProc@CScrollBarEx@@KGJPAUHWND__@@IIJ@Z ENDP	; CScrollBarEx::SelfProc
_TEXT	ENDS
PUBLIC	?HitTest@CScrollBarEx@@AAEIVCPoint@@@Z		; CScrollBarEx::HitTest
PUBLIC	?GetRect@CScrollBarEx@@AAE?AUtagRECT@@I@Z	; CScrollBarEx::GetRect
EXTRN	??0CPoint@@QAE@UtagSIZE@@@Z:NEAR		; CPoint::CPoint
EXTRN	??GCPoint@@QBE?AVCSize@@UtagPOINT@@@Z:NEAR	; CPoint::operator-
EXTRN	?OnLButtonDown@CWnd@@IAEXIVCPoint@@@Z:NEAR	; CWnd::OnLButtonDown
EXTRN	?SetTimer@CWnd@@QAEIIIP6GXPAUHWND__@@IIK@Z@Z:NEAR ; CWnd::SetTimer
EXTRN	?SetCapture@CWnd@@QAEPAV1@XZ:NEAR		; CWnd::SetCapture
; Function compile flags: /Odt /RTCsu
_TEXT	SEGMENT
$T188916 = -172						; size = 8
$T188915 = -164						; size = 8
$T188914 = -156						; size = 8
$T188913 = -148						; size = 8
$T188912 = -140						; size = 8
$T188911 = -132						; size = 8
$T188910 = -124						; size = 8
$T188909 = -116						; size = 8
_lPointCenter$187600 = -104				; size = 8
_lrcThumb$187598 = -88					; size = 16
_mrcThmb$187591 = -64					; size = 16
_lPointCenter$187576 = -40				; size = 8
_lrcThumb$187574 = -24					; size = 16
_this$ = -4						; size = 4
_aiFlags$ = 8						; size = 4
_aPoint$ = 12						; size = 8
?OnLButtonDown@CScrollBarEx@@IAEXIVCPoint@@@Z PROC NEAR	; CScrollBarEx::OnLButtonDown
; _this$ = ecx

; 121  : {

  00310	55		 push	 ebp
  00311	8b ec		 mov	 ebp, esp
  00313	81 ec ac 00 00
	00		 sub	 esp, 172		; 000000acH
  00319	57		 push	 edi
  0031a	51		 push	 ecx
  0031b	8d bd 54 ff ff
	ff		 lea	 edi, DWORD PTR [ebp-172]
  00321	b9 2b 00 00 00	 mov	 ecx, 43			; 0000002bH
  00326	b8 cc cc cc cc	 mov	 eax, -858993460		; ccccccccH
  0032b	f3 ab		 rep stosd
  0032d	59		 pop	 ecx
  0032e	89 4d fc	 mov	 DWORD PTR _this$[ebp], ecx

; 122  : 	if( TRUE == misDlg )

  00331	8b 45 fc	 mov	 eax, DWORD PTR _this$[ebp]
  00334	83 b8 e0 00 00
	00 01		 cmp	 DWORD PTR [eax+224], 1
  0033b	0f 85 72 01 00
	00		 jne	 $L187572

; 123  : 	{
; 124  : 		mbLButtonDown = true;

  00341	8b 4d fc	 mov	 ecx, DWORD PTR _this$[ebp]
  00344	c6 81 9a 00 00
	00 01		 mov	 BYTE PTR [ecx+154], 1

; 125  : 		SetCapture();

  0034b	8b 4d fc	 mov	 ecx, DWORD PTR _this$[ebp]
  0034e	e8 00 00 00 00	 call	 ?SetCapture@CWnd@@QAEPAV1@XZ ; CWnd::SetCapture

; 126  : 		Invalidate();

  00353	6a 01		 push	 1
  00355	8b 4d fc	 mov	 ecx, DWORD PTR _this$[ebp]
  00358	e8 00 00 00 00	 call	 ?Invalidate@CWnd@@QAEXH@Z ; CWnd::Invalidate

; 127  : 		miLButtonDownHitTest = HitTest(aPoint);

  0035d	8b 55 10	 mov	 edx, DWORD PTR _aPoint$[ebp+4]
  00360	52		 push	 edx
  00361	8b 45 0c	 mov	 eax, DWORD PTR _aPoint$[ebp]
  00364	50		 push	 eax
  00365	8b 4d fc	 mov	 ecx, DWORD PTR _this$[ebp]
  00368	e8 00 00 00 00	 call	 ?HitTest@CScrollBarEx@@AAEIVCPoint@@@Z ; CScrollBarEx::HitTest
  0036d	8b 4d fc	 mov	 ecx, DWORD PTR _this$[ebp]
  00370	89 81 a4 00 00
	00		 mov	 DWORD PTR [ecx+164], eax

; 128  : 
; 129  : 		if (miLButtonDownHitTest == HT_THUMB)

  00376	8b 55 fc	 mov	 edx, DWORD PTR _this$[ebp]
  00379	83 ba a4 00 00
	00 68		 cmp	 DWORD PTR [edx+164], 104 ; 00000068H
  00380	0f 85 a0 00 00
	00		 jne	 $L187573

; 130  : 		{
; 131  : 			mbThumbDown = true;

  00386	8b 45 fc	 mov	 eax, DWORD PTR _this$[ebp]
  00389	c6 80 9d 00 00
	00 01		 mov	 BYTE PTR [eax+157], 1

; 132  : 
; 133  : 			RECT lrcThumb = GetRect(HT_THUMB);

  00390	6a 68		 push	 104			; 00000068H
  00392	8d 4d e8	 lea	 ecx, DWORD PTR _lrcThumb$187574[ebp]
  00395	51		 push	 ecx
  00396	8b 4d fc	 mov	 ecx, DWORD PTR _this$[ebp]
  00399	e8 00 00 00 00	 call	 ?GetRect@CScrollBarEx@@AAE?AUtagRECT@@I@Z ; CScrollBarEx::GetRect

; 134  : 			CPoint lPointCenter;

  0039e	8d 4d d8	 lea	 ecx, DWORD PTR _lPointCenter$187576[ebp]
  003a1	e8 00 00 00 00	 call	 ??0CPoint@@QAE@XZ	; CPoint::CPoint

; 135  : 			lPointCenter.x = lrcThumb.left + (lrcThumb.right - lrcThumb.left) / 2;

  003a6	8b 45 f0	 mov	 eax, DWORD PTR _lrcThumb$187574[ebp+8]
  003a9	2b 45 e8	 sub	 eax, DWORD PTR _lrcThumb$187574[ebp]
  003ac	99		 cdq
  003ad	2b c2		 sub	 eax, edx
  003af	d1 f8		 sar	 eax, 1
  003b1	03 45 e8	 add	 eax, DWORD PTR _lrcThumb$187574[ebp]
  003b4	89 45 d8	 mov	 DWORD PTR _lPointCenter$187576[ebp], eax

; 136  : 			lPointCenter.y = lrcThumb.top + (lrcThumb.bottom - lrcThumb.top) / 2;

  003b7	8b 45 f4	 mov	 eax, DWORD PTR _lrcThumb$187574[ebp+12]
  003ba	2b 45 ec	 sub	 eax, DWORD PTR _lrcThumb$187574[ebp+4]
  003bd	99		 cdq
  003be	2b c2		 sub	 eax, edx
  003c0	d1 f8		 sar	 eax, 1
  003c2	03 45 ec	 add	 eax, DWORD PTR _lrcThumb$187574[ebp+4]
  003c5	89 45 dc	 mov	 DWORD PTR _lPointCenter$187576[ebp+4], eax

; 137  : 			mPointDragOffset = aPoint - lPointCenter;

  003c8	8b 55 d8	 mov	 edx, DWORD PTR _lPointCenter$187576[ebp]
  003cb	89 95 7c ff ff
	ff		 mov	 DWORD PTR $T188911[ebp], edx
  003d1	8b 45 dc	 mov	 eax, DWORD PTR _lPointCenter$187576[ebp+4]
  003d4	89 45 80	 mov	 DWORD PTR $T188911[ebp+4], eax
  003d7	8b 4d 80	 mov	 ecx, DWORD PTR $T188911[ebp+4]
  003da	51		 push	 ecx
  003db	8b 95 7c ff ff
	ff		 mov	 edx, DWORD PTR $T188911[ebp]
  003e1	52		 push	 edx
  003e2	8d 85 74 ff ff
	ff		 lea	 eax, DWORD PTR $T188912[ebp]
  003e8	50		 push	 eax
  003e9	8d 4d 0c	 lea	 ecx, DWORD PTR _aPoint$[ebp]
  003ec	e8 00 00 00 00	 call	 ??GCPoint@@QBE?AVCSize@@UtagPOINT@@@Z ; CPoint::operator-
  003f1	8b 08		 mov	 ecx, DWORD PTR [eax]
  003f3	8b 50 04	 mov	 edx, DWORD PTR [eax+4]
  003f6	89 4d 84	 mov	 DWORD PTR $T188910[ebp], ecx
  003f9	89 55 88	 mov	 DWORD PTR $T188910[ebp+4], edx
  003fc	8b 45 88	 mov	 eax, DWORD PTR $T188910[ebp+4]
  003ff	50		 push	 eax
  00400	8b 4d 84	 mov	 ecx, DWORD PTR $T188910[ebp]
  00403	51		 push	 ecx
  00404	8d 4d 8c	 lea	 ecx, DWORD PTR $T188909[ebp]
  00407	e8 00 00 00 00	 call	 ??0CPoint@@QAE@UtagSIZE@@@Z ; CPoint::CPoint
  0040c	8b 55 fc	 mov	 edx, DWORD PTR _this$[ebp]
  0040f	8b 45 8c	 mov	 eax, DWORD PTR $T188909[ebp]
  00412	89 82 a8 00 00
	00		 mov	 DWORD PTR [edx+168], eax
  00418	8b 4d 90	 mov	 ecx, DWORD PTR $T188909[ebp+4]
  0041b	89 8a ac 00 00
	00		 mov	 DWORD PTR [edx+172], ecx

; 138  : 			//mPointMoveOffset = aPoint ;
; 139  : 			
; 140  : 			
; 141  : 		}
; 142  : 		else if (miLButtonDownHitTest == HT_THUMB_SPACE)

  00421	e9 88 00 00 00	 jmp	 $L187581
$L187573:
  00426	8b 55 fc	 mov	 edx, DWORD PTR _this$[ebp]
  00429	83 ba a4 00 00
	00 69		 cmp	 DWORD PTR [edx+164], 105 ; 00000069H
  00430	75 1a		 jne	 SHORT $L187582

; 143  : 		{
; 144  : 			mbThumbSpaceDown = true;

  00432	8b 45 fc	 mov	 eax, DWORD PTR _this$[ebp]
  00435	c6 80 9e 00 00
	00 01		 mov	 BYTE PTR [eax+158], 1

; 145  : 			SetTimer(102, 30, NULL);

  0043c	6a 00		 push	 0
  0043e	6a 1e		 push	 30			; 0000001eH
  00440	6a 66		 push	 102			; 00000066H
  00442	8b 4d fc	 mov	 ecx, DWORD PTR _this$[ebp]
  00445	e8 00 00 00 00	 call	 ?SetTimer@CWnd@@QAEIIIP6GXPAUHWND__@@IIK@Z@Z ; CWnd::SetTimer

; 146  : 		}
; 147  : 		else if (miLButtonDownHitTest == HT_LEFTARROW || miLButtonDownHitTest == HT_UPARROW)

  0044a	eb 62		 jmp	 SHORT $L187581
$L187582:
  0044c	8b 4d fc	 mov	 ecx, DWORD PTR _this$[ebp]
  0044f	83 b9 a4 00 00
	00 66		 cmp	 DWORD PTR [ecx+164], 102 ; 00000066H
  00456	74 0c		 je	 SHORT $L187585
  00458	8b 55 fc	 mov	 edx, DWORD PTR _this$[ebp]
  0045b	83 ba a4 00 00
	00 64		 cmp	 DWORD PTR [edx+164], 100 ; 00000064H
  00462	75 1a		 jne	 SHORT $L187584
$L187585:

; 148  : 		{
; 149  : 			mbUpArrowDown = true;

  00464	8b 45 fc	 mov	 eax, DWORD PTR _this$[ebp]
  00467	c6 80 9b 00 00
	00 01		 mov	 BYTE PTR [eax+155], 1

; 150  : 			SetTimer(102, 60, NULL);

  0046e	6a 00		 push	 0
  00470	6a 3c		 push	 60			; 0000003cH
  00472	6a 66		 push	 102			; 00000066H
  00474	8b 4d fc	 mov	 ecx, DWORD PTR _this$[ebp]
  00477	e8 00 00 00 00	 call	 ?SetTimer@CWnd@@QAEIIIP6GXPAUHWND__@@IIK@Z@Z ; CWnd::SetTimer

; 151  : 		}
; 152  : 		else if (miLButtonDownHitTest == HT_RIGHTARROW || miLButtonDownHitTest == HT_DOWNARROW)

  0047c	eb 30		 jmp	 SHORT $L187581
$L187584:
  0047e	8b 4d fc	 mov	 ecx, DWORD PTR _this$[ebp]
  00481	83 b9 a4 00 00
	00 67		 cmp	 DWORD PTR [ecx+164], 103 ; 00000067H
  00488	74 0c		 je	 SHORT $L187588
  0048a	8b 55 fc	 mov	 edx, DWORD PTR _this$[ebp]
  0048d	83 ba a4 00 00
	00 65		 cmp	 DWORD PTR [edx+164], 101 ; 00000065H
  00494	75 18		 jne	 SHORT $L187581
$L187588:

; 153  : 		{
; 154  : 			mbDownArrowDown = true;

  00496	8b 45 fc	 mov	 eax, DWORD PTR _this$[ebp]
  00499	c6 80 9c 00 00
	00 01		 mov	 BYTE PTR [eax+156], 1

; 155  : 			SetTimer(102, 60, NULL);

  004a0	6a 00		 push	 0
  004a2	6a 3c		 push	 60			; 0000003cH
  004a4	6a 66		 push	 102			; 00000066H
  004a6	8b 4d fc	 mov	 ecx, DWORD PTR _this$[ebp]
  004a9	e8 00 00 00 00	 call	 ?SetTimer@CWnd@@QAEIIIP6GXPAUHWND__@@IIK@Z@Z ; CWnd::SetTimer
$L187581:

; 156  : 		}
; 157  : 	}
; 158  : 	else

  004ae	e9 e7 01 00 00	 jmp	 $L187589
$L187572:

; 159  : 	{
; 160  : 
; 161  : 	
; 162  : 		mbLButtonDown = true;

  004b3	8b 4d fc	 mov	 ecx, DWORD PTR _this$[ebp]
  004b6	c6 81 9a 00 00
	00 01		 mov	 BYTE PTR [ecx+154], 1

; 163  : 		miLButtonDownHitTest = HitTest(aPoint);

  004bd	8b 55 10	 mov	 edx, DWORD PTR _aPoint$[ebp+4]
  004c0	52		 push	 edx
  004c1	8b 45 0c	 mov	 eax, DWORD PTR _aPoint$[ebp]
  004c4	50		 push	 eax
  004c5	8b 4d fc	 mov	 ecx, DWORD PTR _this$[ebp]
  004c8	e8 00 00 00 00	 call	 ?HitTest@CScrollBarEx@@AAEIVCPoint@@@Z ; CScrollBarEx::HitTest
  004cd	8b 4d fc	 mov	 ecx, DWORD PTR _this$[ebp]
  004d0	89 81 a4 00 00
	00		 mov	 DWORD PTR [ecx+164], eax

; 164  : 
; 165  : 		//当返回为HT_THUMB_SPACE的时候需要做判断并返回有效结果
; 166  : 
; 167  : 		if (miLButtonDownHitTest==HT_THUMB_SPACE)

  004d6	8b 55 fc	 mov	 edx, DWORD PTR _this$[ebp]
  004d9	83 ba a4 00 00
	00 69		 cmp	 DWORD PTR [edx+164], 105 ; 00000069H
  004e0	75 53		 jne	 SHORT $L187590

; 168  : 		{
; 169  : 			RECT mrcThmb = GetRect(HT_THUMB);

  004e2	6a 68		 push	 104			; 00000068H
  004e4	8d 45 c0	 lea	 eax, DWORD PTR _mrcThmb$187591[ebp]
  004e7	50		 push	 eax
  004e8	8b 4d fc	 mov	 ecx, DWORD PTR _this$[ebp]
  004eb	e8 00 00 00 00	 call	 ?GetRect@CScrollBarEx@@AAE?AUtagRECT@@I@Z ; CScrollBarEx::GetRect

; 170  : 			if ((mScrollOrientation == esoVertical && (aPoint.x <= mrcThmb.left ||	aPoint.x >= mrcThmb.right))
; 171  : 				||
; 172  : 				(mScrollOrientation != esoVertical && (aPoint.y <= mrcThmb.top  ||	aPoint.y >= mrcThmb.bottom)))

  004f0	8b 4d fc	 mov	 ecx, DWORD PTR _this$[ebp]
  004f3	83 b9 80 00 00
	00 01		 cmp	 DWORD PTR [ecx+128], 1
  004fa	75 10		 jne	 SHORT $L187595
  004fc	8b 55 0c	 mov	 edx, DWORD PTR _aPoint$[ebp]
  004ff	3b 55 c0	 cmp	 edx, DWORD PTR _mrcThmb$187591[ebp]
  00502	7e 24		 jle	 SHORT $L187594
  00504	8b 45 0c	 mov	 eax, DWORD PTR _aPoint$[ebp]
  00507	3b 45 c8	 cmp	 eax, DWORD PTR _mrcThmb$187591[ebp+8]
  0050a	7d 1c		 jge	 SHORT $L187594
$L187595:
  0050c	8b 4d fc	 mov	 ecx, DWORD PTR _this$[ebp]
  0050f	83 b9 80 00 00
	00 01		 cmp	 DWORD PTR [ecx+128], 1
  00516	74 1d		 je	 SHORT $L187590
  00518	8b 55 10	 mov	 edx, DWORD PTR _aPoint$[ebp+4]
  0051b	3b 55 c4	 cmp	 edx, DWORD PTR _mrcThmb$187591[ebp+4]
  0051e	7e 08		 jle	 SHORT $L187594
  00520	8b 45 10	 mov	 eax, DWORD PTR _aPoint$[ebp+4]
  00523	3b 45 cc	 cmp	 eax, DWORD PTR _mrcThmb$187591[ebp+12]
  00526	7c 0d		 jl	 SHORT $L187590
$L187594:

; 173  : 			{
; 174  : 				miLButtonDownHitTest = HTNOWHERE ;

  00528	8b 4d fc	 mov	 ecx, DWORD PTR _this$[ebp]
  0052b	c7 81 a4 00 00
	00 00 00 00 00	 mov	 DWORD PTR [ecx+164], 0
$L187590:

; 175  : 			}
; 176  : 
; 177  : 		}
; 178  : 
; 179  : 
; 180  : 		
; 181  : 		///////////////////////////////////////////////////////////////
; 182  : 
; 183  : 		SetCapture();

  00535	8b 4d fc	 mov	 ecx, DWORD PTR _this$[ebp]
  00538	e8 00 00 00 00	 call	 ?SetCapture@CWnd@@QAEPAV1@XZ ; CWnd::SetCapture

; 184  : 		Invalidate();

  0053d	6a 01		 push	 1
  0053f	8b 4d fc	 mov	 ecx, DWORD PTR _this$[ebp]
  00542	e8 00 00 00 00	 call	 ?Invalidate@CWnd@@QAEXH@Z ; CWnd::Invalidate

; 185  : 
; 186  : 		if (miLButtonDownHitTest == HT_THUMB)

  00547	8b 55 fc	 mov	 edx, DWORD PTR _this$[ebp]
  0054a	83 ba a4 00 00
	00 68		 cmp	 DWORD PTR [edx+164], 104 ; 00000068H
  00551	0f 85 bb 00 00
	00		 jne	 $L187597

; 187  : 		{
; 188  : 			RECT lrcThumb = GetRect(HT_THUMB);

  00557	6a 68		 push	 104			; 00000068H
  00559	8d 45 a8	 lea	 eax, DWORD PTR _lrcThumb$187598[ebp]
  0055c	50		 push	 eax
  0055d	8b 4d fc	 mov	 ecx, DWORD PTR _this$[ebp]
  00560	e8 00 00 00 00	 call	 ?GetRect@CScrollBarEx@@AAE?AUtagRECT@@I@Z ; CScrollBarEx::GetRect

; 189  : 			CPoint lPointCenter;

  00565	8d 4d 98	 lea	 ecx, DWORD PTR _lPointCenter$187600[ebp]
  00568	e8 00 00 00 00	 call	 ??0CPoint@@QAE@XZ	; CPoint::CPoint

; 190  : 			//偏移值的计算
; 191  : 			lPointCenter.x = lrcThumb.left + (lrcThumb.right - lrcThumb.left) / 2;

  0056d	8b 45 b0	 mov	 eax, DWORD PTR _lrcThumb$187598[ebp+8]
  00570	2b 45 a8	 sub	 eax, DWORD PTR _lrcThumb$187598[ebp]
  00573	99		 cdq
  00574	2b c2		 sub	 eax, edx
  00576	d1 f8		 sar	 eax, 1
  00578	03 45 a8	 add	 eax, DWORD PTR _lrcThumb$187598[ebp]
  0057b	89 45 98	 mov	 DWORD PTR _lPointCenter$187600[ebp], eax

; 192  : 			lPointCenter.y = lrcThumb.top + (lrcThumb.bottom - lrcThumb.top) / 2;

  0057e	8b 45 b4	 mov	 eax, DWORD PTR _lrcThumb$187598[ebp+12]
  00581	2b 45 ac	 sub	 eax, DWORD PTR _lrcThumb$187598[ebp+4]
  00584	99		 cdq
  00585	2b c2		 sub	 eax, edx
  00587	d1 f8		 sar	 eax, 1
  00589	03 45 ac	 add	 eax, DWORD PTR _lrcThumb$187598[ebp+4]
  0058c	89 45 9c	 mov	 DWORD PTR _lPointCenter$187600[ebp+4], eax

; 193  : 
; 194  : 			mPointDragOffset = aPoint - lPointCenter;

  0058f	8b 4d 98	 mov	 ecx, DWORD PTR _lPointCenter$187600[ebp]
  00592	89 8d 5c ff ff
	ff		 mov	 DWORD PTR $T188915[ebp], ecx
  00598	8b 55 9c	 mov	 edx, DWORD PTR _lPointCenter$187600[ebp+4]
  0059b	89 95 60 ff ff
	ff		 mov	 DWORD PTR $T188915[ebp+4], edx
  005a1	8b 85 60 ff ff
	ff		 mov	 eax, DWORD PTR $T188915[ebp+4]
  005a7	50		 push	 eax
  005a8	8b 8d 5c ff ff
	ff		 mov	 ecx, DWORD PTR $T188915[ebp]
  005ae	51		 push	 ecx
  005af	8d 95 54 ff ff
	ff		 lea	 edx, DWORD PTR $T188916[ebp]
  005b5	52		 push	 edx
  005b6	8d 4d 0c	 lea	 ecx, DWORD PTR _aPoint$[ebp]
  005b9	e8 00 00 00 00	 call	 ??GCPoint@@QBE?AVCSize@@UtagPOINT@@@Z ; CPoint::operator-
  005be	8b 08		 mov	 ecx, DWORD PTR [eax]
  005c0	8b 50 04	 mov	 edx, DWORD PTR [eax+4]
  005c3	89 8d 64 ff ff
	ff		 mov	 DWORD PTR $T188914[ebp], ecx
  005c9	89 95 68 ff ff
	ff		 mov	 DWORD PTR $T188914[ebp+4], edx
  005cf	8b 85 68 ff ff
	ff		 mov	 eax, DWORD PTR $T188914[ebp+4]
  005d5	50		 push	 eax
  005d6	8b 8d 64 ff ff
	ff		 mov	 ecx, DWORD PTR $T188914[ebp]
  005dc	51		 push	 ecx
  005dd	8d 8d 6c ff ff
	ff		 lea	 ecx, DWORD PTR $T188913[ebp]
  005e3	e8 00 00 00 00	 call	 ??0CPoint@@QAE@UtagSIZE@@@Z ; CPoint::CPoint
  005e8	8b 55 fc	 mov	 edx, DWORD PTR _this$[ebp]
  005eb	8b 85 6c ff ff
	ff		 mov	 eax, DWORD PTR $T188913[ebp]
  005f1	89 82 a8 00 00
	00		 mov	 DWORD PTR [edx+168], eax
  005f7	8b 8d 70 ff ff
	ff		 mov	 ecx, DWORD PTR $T188913[ebp+4]
  005fd	89 8a ac 00 00
	00		 mov	 DWORD PTR [edx+172], ecx

; 195  : 			mbThumbDown = true;

  00603	8b 55 fc	 mov	 edx, DWORD PTR _this$[ebp]
  00606	c6 82 9d 00 00
	00 01		 mov	 BYTE PTR [edx+157], 1

; 196  : 		}
; 197  : 		else if (miLButtonDownHitTest == HT_THUMB_SPACE)

  0060d	e9 88 00 00 00	 jmp	 $L187589
$L187597:
  00612	8b 45 fc	 mov	 eax, DWORD PTR _this$[ebp]
  00615	83 b8 a4 00 00
	00 69		 cmp	 DWORD PTR [eax+164], 105 ; 00000069H
  0061c	75 1a		 jne	 SHORT $L187606

; 198  : 		{
; 199  : 			SetTimer(101, 60, NULL);

  0061e	6a 00		 push	 0
  00620	6a 3c		 push	 60			; 0000003cH
  00622	6a 65		 push	 101			; 00000065H
  00624	8b 4d fc	 mov	 ecx, DWORD PTR _this$[ebp]
  00627	e8 00 00 00 00	 call	 ?SetTimer@CWnd@@QAEIIIP6GXPAUHWND__@@IIK@Z@Z ; CWnd::SetTimer

; 200  : 			mbThumbSpaceDown = true;

  0062c	8b 4d fc	 mov	 ecx, DWORD PTR _this$[ebp]
  0062f	c6 81 9e 00 00
	00 01		 mov	 BYTE PTR [ecx+158], 1

; 201  : 		}
; 202  : 		else if (miLButtonDownHitTest == HT_LEFTARROW || miLButtonDownHitTest == HT_UPARROW)

  00636	eb 62		 jmp	 SHORT $L187589
$L187606:
  00638	8b 55 fc	 mov	 edx, DWORD PTR _this$[ebp]
  0063b	83 ba a4 00 00
	00 66		 cmp	 DWORD PTR [edx+164], 102 ; 00000066H
  00642	74 0c		 je	 SHORT $L187609
  00644	8b 45 fc	 mov	 eax, DWORD PTR _this$[ebp]
  00647	83 b8 a4 00 00
	00 64		 cmp	 DWORD PTR [eax+164], 100 ; 00000064H
  0064e	75 1a		 jne	 SHORT $L187608
$L187609:

; 203  : 		{
; 204  : 			SetTimer(101, 60, NULL);

  00650	6a 00		 push	 0
  00652	6a 3c		 push	 60			; 0000003cH
  00654	6a 65		 push	 101			; 00000065H
  00656	8b 4d fc	 mov	 ecx, DWORD PTR _this$[ebp]
  00659	e8 00 00 00 00	 call	 ?SetTimer@CWnd@@QAEIIIP6GXPAUHWND__@@IIK@Z@Z ; CWnd::SetTimer

; 205  : 			mbUpArrowDown = true;

  0065e	8b 4d fc	 mov	 ecx, DWORD PTR _this$[ebp]
  00661	c6 81 9b 00 00
	00 01		 mov	 BYTE PTR [ecx+155], 1

; 206  : 		}
; 207  : 		else if (miLButtonDownHitTest == HT_RIGHTARROW || miLButtonDownHitTest == HT_DOWNARROW)

  00668	eb 30		 jmp	 SHORT $L187589
$L187608:
  0066a	8b 55 fc	 mov	 edx, DWORD PTR _this$[ebp]
  0066d	83 ba a4 00 00
	00 67		 cmp	 DWORD PTR [edx+164], 103 ; 00000067H
  00674	74 0c		 je	 SHORT $L187612
  00676	8b 45 fc	 mov	 eax, DWORD PTR _this$[ebp]
  00679	83 b8 a4 00 00
	00 65		 cmp	 DWORD PTR [eax+164], 101 ; 00000065H
  00680	75 18		 jne	 SHORT $L187589
$L187612:

; 208  : 		{
; 209  : 			SetTimer(101, 60, NULL);

  00682	6a 00		 push	 0
  00684	6a 3c		 push	 60			; 0000003cH
  00686	6a 65		 push	 101			; 00000065H
  00688	8b 4d fc	 mov	 ecx, DWORD PTR _this$[ebp]
  0068b	e8 00 00 00 00	 call	 ?SetTimer@CWnd@@QAEIIIP6GXPAUHWND__@@IIK@Z@Z ; CWnd::SetTimer

; 210  : 			mbDownArrowDown = true;

  00690	8b 4d fc	 mov	 ecx, DWORD PTR _this$[ebp]
  00693	c6 81 9c 00 00
	00 01		 mov	 BYTE PTR [ecx+156], 1
$L187589:

; 211  : 		}
; 212  : 
; 213  : 	}
; 214  : 	CStatic::OnLButtonDown(aiFlags, aPoint);

  0069a	8b 55 10	 mov	 edx, DWORD PTR _aPoint$[ebp+4]
  0069d	52		 push	 edx
  0069e	8b 45 0c	 mov	 eax, DWORD PTR _aPoint$[ebp]
  006a1	50		 push	 eax
  006a2	8b 4d 08	 mov	 ecx, DWORD PTR _aiFlags$[ebp]
  006a5	51		 push	 ecx
  006a6	8b 4d fc	 mov	 ecx, DWORD PTR _this$[ebp]
  006a9	e8 00 00 00 00	 call	 ?OnLButtonDown@CWnd@@IAEXIVCPoint@@@Z ; CWnd::OnLButtonDown

; 215  : }

  006ae	52		 push	 edx
  006af	8b cd		 mov	 ecx, ebp
  006b1	50		 push	 eax
  006b2	8d 15 00 00 00
	00		 lea	 edx, DWORD PTR $L188923
  006b8	e8 00 00 00 00	 call	 @_RTC_CheckStackVars@8
  006bd	58		 pop	 eax
  006be	5a		 pop	 edx
  006bf	5f		 pop	 edi
  006c0	81 c4 ac 00 00
	00		 add	 esp, 172		; 000000acH
  006c6	3b ec		 cmp	 ebp, esp
  006c8	e8 00 00 00 00	 call	 __RTC_CheckEsp
  006cd	8b e5		 mov	 esp, ebp
  006cf	5d		 pop	 ebp
  006d0	c2 0c 00	 ret	 12			; 0000000cH
$L188923:
  006d3	05 00 00 00	 DD	 5
  006d7	00 00 00 00	 DD	 $L188922
$L188922:
  006db	e8 ff ff ff	 DD	 -24			; ffffffe8H
  006df	10 00 00 00	 DD	 16			; 00000010H
  006e3	00 00 00 00	 DD	 $L188917
  006e7	d8 ff ff ff	 DD	 -40			; ffffffd8H
  006eb	08 00 00 00	 DD	 8
  006ef	00 00 00 00	 DD	 $L188918
  006f3	c0 ff ff ff	 DD	 -64			; ffffffc0H
  006f7	10 00 00 00	 DD	 16			; 00000010H
  006fb	00 00 00 00	 DD	 $L188919
  006ff	a8 ff ff ff	 DD	 -88			; ffffffa8H
  00703	10 00 00 00	 DD	 16			; 00000010H
  00707	00 00 00 00	 DD	 $L188920
  0070b	98 ff ff ff	 DD	 -104			; ffffff98H
  0070f	08 00 00 00	 DD	 8
  00713	00 00 00 00	 DD	 $L188921
$L188921:
  00717	6c		 DB	 108			; 0000006cH
  00718	50		 DB	 80			; 00000050H
  00719	6f		 DB	 111			; 0000006fH
  0071a	69		 DB	 105			; 00000069H
  0071b	6e		 DB	 110			; 0000006eH
  0071c	74		 DB	 116			; 00000074H
  0071d	43		 DB	 67			; 00000043H
  0071e	65		 DB	 101			; 00000065H
  0071f	6e		 DB	 110			; 0000006eH
  00720	74		 DB	 116			; 00000074H
  00721	65		 DB	 101			; 00000065H
  00722	72		 DB	 114			; 00000072H
  00723	00		 DB	 0
$L188920:
  00724	6c		 DB	 108			; 0000006cH
  00725	72		 DB	 114			; 00000072H
  00726	63		 DB	 99			; 00000063H
  00727	54		 DB	 84			; 00000054H
  00728	68		 DB	 104			; 00000068H
  00729	75		 DB	 117			; 00000075H
  0072a	6d		 DB	 109			; 0000006dH
  0072b	62		 DB	 98			; 00000062H
  0072c	00		 DB	 0
$L188919:
  0072d	6d		 DB	 109			; 0000006dH
  0072e	72		 DB	 114			; 00000072H
  0072f	63		 DB	 99			; 00000063H
  00730	54		 DB	 84			; 00000054H
  00731	68		 DB	 104			; 00000068H
  00732	6d		 DB	 109			; 0000006dH
  00733	62		 DB	 98			; 00000062H
  00734	00		 DB	 0
$L188918:
  00735	6c		 DB	 108			; 0000006cH
  00736	50		 DB	 80			; 00000050H
  00737	6f		 DB	 111			; 0000006fH
  00738	69		 DB	 105			; 00000069H
  00739	6e		 DB	 110			; 0000006eH
  0073a	74		 DB	 116			; 00000074H
  0073b	43		 DB	 67			; 00000043H
  0073c	65		 DB	 101			; 00000065H
  0073d	6e		 DB	 110			; 0000006eH
  0073e	74		 DB	 116			; 00000074H
  0073f	65		 DB	 101			; 00000065H
  00740	72		 DB	 114			; 00000072H
  00741	00		 DB	 0
$L188917:
  00742	6c		 DB	 108			; 0000006cH
  00743	72		 DB	 114			; 00000072H
  00744	63		 DB	 99			; 00000063H
  00745	54		 DB	 84			; 00000054H
  00746	68		 DB	 104			; 00000068H
  00747	75		 DB	 117			; 00000075H
  00748	6d		 DB	 109			; 0000006dH
  00749	62		 DB	 98			; 00000062H
  0074a	00		 DB	 0
?OnLButtonDown@CScrollBarEx@@IAEXIVCPoint@@@Z ENDP	; CScrollBarEx::OnLButtonDown
; Function compile flags: /Odt /RTCsu
_this$ = -4						; size = 4
_aiFlags$ = 8						; size = 4
_aPoint$ = 12						; size = 8
?OnLButtonDblClk@CScrollBarEx@@IAEXIVCPoint@@@Z PROC NEAR ; CScrollBarEx::OnLButtonDblClk
; _this$ = ecx

; 218  : {

  00750	55		 push	 ebp
  00751	8b ec		 mov	 ebp, esp
  00753	51		 push	 ecx
  00754	c7 45 fc cc cc
	cc cc		 mov	 DWORD PTR [ebp-4], -858993460 ; ccccccccH
  0075b	89 4d fc	 mov	 DWORD PTR _this$[ebp], ecx

; 219  : 	OnLButtonDown(aiFlags, aPoint);

  0075e	8b 45 10	 mov	 eax, DWORD PTR _aPoint$[ebp+4]
  00761	50		 push	 eax
  00762	8b 4d 0c	 mov	 ecx, DWORD PTR _aPoint$[ebp]
  00765	51		 push	 ecx
  00766	8b 55 08	 mov	 edx, DWORD PTR _aiFlags$[ebp]
  00769	52		 push	 edx
  0076a	8b 4d fc	 mov	 ecx, DWORD PTR _this$[ebp]
  0076d	e8 00 00 00 00	 call	 ?OnLButtonDown@CScrollBarEx@@IAEXIVCPoint@@@Z ; CScrollBarEx::OnLButtonDown

; 220  : }

  00772	83 c4 04	 add	 esp, 4
  00775	3b ec		 cmp	 ebp, esp
  00777	e8 00 00 00 00	 call	 __RTC_CheckEsp
  0077c	8b e5		 mov	 esp, ebp
  0077e	5d		 pop	 ebp
  0077f	c2 0c 00	 ret	 12			; 0000000cH
?OnLButtonDblClk@CScrollBarEx@@IAEXIVCPoint@@@Z ENDP	; CScrollBarEx::OnLButtonDblClk
_TEXT	ENDS
EXTRN	?OnLButtonUp@CWnd@@IAEXIVCPoint@@@Z:NEAR	; CWnd::OnLButtonUp
EXTRN	?KillTimer@CWnd@@QAEHI@Z:NEAR			; CWnd::KillTimer
EXTRN	?GetCapture@CWnd@@SGPAV1@XZ:NEAR		; CWnd::GetCapture
EXTRN	__imp__ReleaseCapture@0:NEAR
; Function compile flags: /Odt /RTCsu
_TEXT	SEGMENT
_this$ = -4						; size = 4
_aiFlags$ = 8						; size = 4
_aPoint$ = 12						; size = 8
?OnLButtonUp@CScrollBarEx@@IAEXIVCPoint@@@Z PROC NEAR	; CScrollBarEx::OnLButtonUp
; _this$ = ecx

; 223  : {

  00790	55		 push	 ebp
  00791	8b ec		 mov	 ebp, esp
  00793	51		 push	 ecx
  00794	56		 push	 esi
  00795	c7 45 fc cc cc
	cc cc		 mov	 DWORD PTR [ebp-4], -858993460 ; ccccccccH
  0079c	89 4d fc	 mov	 DWORD PTR _this$[ebp], ecx

; 224  : 	if(TRUE == misDlg)

  0079f	8b 45 fc	 mov	 eax, DWORD PTR _this$[ebp]
  007a2	83 b8 e0 00 00
	00 01		 cmp	 DWORD PTR [eax+224], 1
  007a9	0f 85 a9 00 00
	00		 jne	 $L187623

; 225  : 	{
; 226  : 		if(true == mbThumbSpaceDown||true == mbUpArrowDown|| true ==mbDownArrowDown)

  007af	8b 4d fc	 mov	 ecx, DWORD PTR _this$[ebp]
  007b2	0f b6 91 9e 00
	00 00		 movzx	 edx, BYTE PTR [ecx+158]
  007b9	83 fa 01	 cmp	 edx, 1
  007bc	74 1e		 je	 SHORT $L187625
  007be	8b 45 fc	 mov	 eax, DWORD PTR _this$[ebp]
  007c1	0f b6 88 9b 00
	00 00		 movzx	 ecx, BYTE PTR [eax+155]
  007c8	83 f9 01	 cmp	 ecx, 1
  007cb	74 0f		 je	 SHORT $L187625
  007cd	8b 55 fc	 mov	 edx, DWORD PTR _this$[ebp]
  007d0	0f b6 82 9c 00
	00 00		 movzx	 eax, BYTE PTR [edx+156]
  007d7	83 f8 01	 cmp	 eax, 1
  007da	75 0a		 jne	 SHORT $L187624
$L187625:

; 227  : 		KillTimer(102);

  007dc	6a 66		 push	 102			; 00000066H
  007de	8b 4d fc	 mov	 ecx, DWORD PTR _this$[ebp]
  007e1	e8 00 00 00 00	 call	 ?KillTimer@CWnd@@QAEHI@Z ; CWnd::KillTimer
$L187624:

; 228  : 		miLButtonDownHitTest = HTNOWHERE;

  007e6	8b 4d fc	 mov	 ecx, DWORD PTR _this$[ebp]
  007e9	c7 81 a4 00 00
	00 00 00 00 00	 mov	 DWORD PTR [ecx+164], 0

; 229  : 		if ( mbLButtonDown && GetCapture() == this )

  007f3	8b 55 fc	 mov	 edx, DWORD PTR _this$[ebp]
  007f6	0f b6 82 9a 00
	00 00		 movzx	 eax, BYTE PTR [edx+154]
  007fd	85 c0		 test	 eax, eax
  007ff	74 55		 je	 SHORT $L187626
  00801	e8 00 00 00 00	 call	 ?GetCapture@CWnd@@SGPAV1@XZ ; CWnd::GetCapture
  00806	3b 45 fc	 cmp	 eax, DWORD PTR _this$[ebp]
  00809	75 4b		 jne	 SHORT $L187626

; 230  : 		{
; 231  : 			ReleaseCapture();

  0080b	8b f4		 mov	 esi, esp
  0080d	ff 15 00 00 00
	00		 call	 DWORD PTR __imp__ReleaseCapture@0
  00813	3b f4		 cmp	 esi, esp
  00815	e8 00 00 00 00	 call	 __RTC_CheckEsp

; 232  : 			mbLButtonDown = false;

  0081a	8b 4d fc	 mov	 ecx, DWORD PTR _this$[ebp]
  0081d	c6 81 9a 00 00
	00 00		 mov	 BYTE PTR [ecx+154], 0

; 233  : 			mbUpArrowDown = false;

  00824	8b 55 fc	 mov	 edx, DWORD PTR _this$[ebp]
  00827	c6 82 9b 00 00
	00 00		 mov	 BYTE PTR [edx+155], 0

; 234  : 			mbDownArrowDown = false;

  0082e	8b 45 fc	 mov	 eax, DWORD PTR _this$[ebp]
  00831	c6 80 9c 00 00
	00 00		 mov	 BYTE PTR [eax+156], 0

; 235  : 			mbThumbDown = false;

  00838	8b 4d fc	 mov	 ecx, DWORD PTR _this$[ebp]
  0083b	c6 81 9d 00 00
	00 00		 mov	 BYTE PTR [ecx+157], 0

; 236  : 			mbThumbSpaceDown = false;

  00842	8b 55 fc	 mov	 edx, DWORD PTR _this$[ebp]
  00845	c6 82 9e 00 00
	00 00		 mov	 BYTE PTR [edx+158], 0

; 237  : 			Invalidate();

  0084c	6a 01		 push	 1
  0084e	8b 4d fc	 mov	 ecx, DWORD PTR _this$[ebp]
  00851	e8 00 00 00 00	 call	 ?Invalidate@CWnd@@QAEXH@Z ; CWnd::Invalidate
$L187626:

; 238  : 		}
; 239  : 	}
; 240  : 	else

  00856	eb 7a		 jmp	 SHORT $L187627
$L187623:

; 241  : 	{
; 242  : 		KillTimer(101);

  00858	6a 65		 push	 101			; 00000065H
  0085a	8b 4d fc	 mov	 ecx, DWORD PTR _this$[ebp]
  0085d	e8 00 00 00 00	 call	 ?KillTimer@CWnd@@QAEHI@Z ; CWnd::KillTimer

; 243  : 		miLButtonDownHitTest = HTNOWHERE;

  00862	8b 45 fc	 mov	 eax, DWORD PTR _this$[ebp]
  00865	c7 80 a4 00 00
	00 00 00 00 00	 mov	 DWORD PTR [eax+164], 0

; 244  : 
; 245  : 		if (mbLButtonDown && GetCapture() == this)

  0086f	8b 4d fc	 mov	 ecx, DWORD PTR _this$[ebp]
  00872	0f b6 91 9a 00
	00 00		 movzx	 edx, BYTE PTR [ecx+154]
  00879	85 d2		 test	 edx, edx
  0087b	74 55		 je	 SHORT $L187627
  0087d	e8 00 00 00 00	 call	 ?GetCapture@CWnd@@SGPAV1@XZ ; CWnd::GetCapture
  00882	3b 45 fc	 cmp	 eax, DWORD PTR _this$[ebp]
  00885	75 4b		 jne	 SHORT $L187627

; 246  : 		{
; 247  : 			ReleaseCapture();

  00887	8b f4		 mov	 esi, esp
  00889	ff 15 00 00 00
	00		 call	 DWORD PTR __imp__ReleaseCapture@0
  0088f	3b f4		 cmp	 esi, esp
  00891	e8 00 00 00 00	 call	 __RTC_CheckEsp

; 248  : 			mbLButtonDown = false;

  00896	8b 45 fc	 mov	 eax, DWORD PTR _this$[ebp]
  00899	c6 80 9a 00 00
	00 00		 mov	 BYTE PTR [eax+154], 0

; 249  : 			mbUpArrowDown = false;

  008a0	8b 4d fc	 mov	 ecx, DWORD PTR _this$[ebp]
  008a3	c6 81 9b 00 00
	00 00		 mov	 BYTE PTR [ecx+155], 0

; 250  : 			mbDownArrowDown = false;

  008aa	8b 55 fc	 mov	 edx, DWORD PTR _this$[ebp]
  008ad	c6 82 9c 00 00
	00 00		 mov	 BYTE PTR [edx+156], 0

; 251  : 			mbThumbDown = false;

  008b4	8b 45 fc	 mov	 eax, DWORD PTR _this$[ebp]
  008b7	c6 80 9d 00 00
	00 00		 mov	 BYTE PTR [eax+157], 0

; 252  : 			mbThumbSpaceDown = false;

  008be	8b 4d fc	 mov	 ecx, DWORD PTR _this$[ebp]
  008c1	c6 81 9e 00 00
	00 00		 mov	 BYTE PTR [ecx+158], 0

; 253  : 			Invalidate();

  008c8	6a 01		 push	 1
  008ca	8b 4d fc	 mov	 ecx, DWORD PTR _this$[ebp]
  008cd	e8 00 00 00 00	 call	 ?Invalidate@CWnd@@QAEXH@Z ; CWnd::Invalidate
$L187627:

; 254  : 		}
; 255  : 
; 256  : 		/*CWnd* lpParent = GetParent();
; 257  : 		if(lpParent != NULL)
; 258  : 			lpParent->Invalidate();*/
; 259  : 	}
; 260  : 	
; 261  : 	CStatic::OnLButtonUp(aiFlags, aPoint);

  008d2	8b 55 10	 mov	 edx, DWORD PTR _aPoint$[ebp+4]
  008d5	52		 push	 edx
  008d6	8b 45 0c	 mov	 eax, DWORD PTR _aPoint$[ebp]
  008d9	50		 push	 eax
  008da	8b 4d 08	 mov	 ecx, DWORD PTR _aiFlags$[ebp]
  008dd	51		 push	 ecx
  008de	8b 4d fc	 mov	 ecx, DWORD PTR _this$[ebp]
  008e1	e8 00 00 00 00	 call	 ?OnLButtonUp@CWnd@@IAEXIVCPoint@@@Z ; CWnd::OnLButtonUp

; 262  : }

  008e6	5e		 pop	 esi
  008e7	83 c4 04	 add	 esp, 4
  008ea	3b ec		 cmp	 ebp, esp
  008ec	e8 00 00 00 00	 call	 __RTC_CheckEsp
  008f1	8b e5		 mov	 esp, ebp
  008f3	5d		 pop	 ebp
  008f4	c2 0c 00	 ret	 12			; 0000000cH
?OnLButtonUp@CScrollBarEx@@IAEXIVCPoint@@@Z ENDP	; CScrollBarEx::OnLButtonUp
_TEXT	ENDS
PUBLIC	?MoveThumb@CScrollBarEx@@AAEXVCPoint@@@Z	; CScrollBarEx::MoveThumb
EXTRN	?OnMouseMove@CWnd@@IAEXIVCPoint@@@Z:NEAR	; CWnd::OnMouseMove
EXTRN	__imp___TrackMouseEvent@4:NEAR
; Function compile flags: /Odt /RTCsu
_TEXT	SEGMENT
_liHitTest$187639 = -32					; size = 4
_tme$187638 = -24					; size = 16
_this$ = -4						; size = 4
_aiFlags$ = 8						; size = 4
_aPoint$ = 12						; size = 8
?OnMouseMove@CScrollBarEx@@IAEXIVCPoint@@@Z PROC NEAR	; CScrollBarEx::OnMouseMove
; _this$ = ecx

; 265  : {

  00900	55		 push	 ebp
  00901	8b ec		 mov	 ebp, esp
  00903	83 ec 20	 sub	 esp, 32			; 00000020H
  00906	56		 push	 esi
  00907	b8 cc cc cc cc	 mov	 eax, -858993460		; ccccccccH
  0090c	89 45 e0	 mov	 DWORD PTR [ebp-32], eax
  0090f	89 45 e4	 mov	 DWORD PTR [ebp-28], eax
  00912	89 45 e8	 mov	 DWORD PTR [ebp-24], eax
  00915	89 45 ec	 mov	 DWORD PTR [ebp-20], eax
  00918	89 45 f0	 mov	 DWORD PTR [ebp-16], eax
  0091b	89 45 f4	 mov	 DWORD PTR [ebp-12], eax
  0091e	89 45 f8	 mov	 DWORD PTR [ebp-8], eax
  00921	89 45 fc	 mov	 DWORD PTR [ebp-4], eax
  00924	89 4d fc	 mov	 DWORD PTR _this$[ebp], ecx

; 266  : 	
; 267  : 
; 268  : 
; 269  : 	
; 270  : 	if( TRUE == misDlg )

  00927	8b 45 fc	 mov	 eax, DWORD PTR _this$[ebp]
  0092a	83 b8 e0 00 00
	00 01		 cmp	 DWORD PTR [eax+224], 1
  00931	75 2a		 jne	 SHORT $L187634

; 271  : 	{
; 272  : 		//LOG_TRACE(3,true,"CULScrollBar_1",itoa(aPoint.y,string,10));
; 273  : 		if (miLButtonDownHitTest == HT_THUMB)

  00933	8b 4d fc	 mov	 ecx, DWORD PTR _this$[ebp]
  00936	83 b9 a4 00 00
	00 68		 cmp	 DWORD PTR [ecx+164], 104 ; 00000068H
  0093d	75 19		 jne	 SHORT $L187635

; 274  : 		{
; 275  : 			//char string[10];
; 276  : 			//char string1[10];
; 277  : 			MoveThumb(mPointDragOffset);

  0093f	8b 55 fc	 mov	 edx, DWORD PTR _this$[ebp]
  00942	8b 82 ac 00 00
	00		 mov	 eax, DWORD PTR [edx+172]
  00948	50		 push	 eax
  00949	8b 8a a8 00 00
	00		 mov	 ecx, DWORD PTR [edx+168]
  0094f	51		 push	 ecx
  00950	8b 4d fc	 mov	 ecx, DWORD PTR _this$[ebp]
  00953	e8 00 00 00 00	 call	 ?MoveThumb@CScrollBarEx@@AAEXVCPoint@@@Z ; CScrollBarEx::MoveThumb
$L187635:

; 278  : 			//int ly = aPoint.y-mPointMoveOffset.y;
; 279  : 			//mPointMoveOffset.y =  aPoint.y;
; 280  : 			//mPointOffsetSum += ly;
; 281  : 			//LOG_TRACE(3,true,"CULScrollBar_2",itoa(ly,string,10));
; 282  : 			//LOG_TRACE(3,true,"CULScrollBar_3",itoa(mPointOffsetSum,string1,10));
; 283  : 			
; 284  : 		}
; 285  : 	}
; 286  : 	else

  00958	e9 94 00 00 00	 jmp	 $L187636
$L187634:

; 287  : 	{
; 288  : 		if (!mbTrackLeave)

  0095d	8b 55 fc	 mov	 edx, DWORD PTR _this$[ebp]
  00960	0f b6 82 99 00
	00 00		 movzx	 eax, BYTE PTR [edx+153]
  00967	85 c0		 test	 eax, eax
  00969	75 36		 jne	 SHORT $L187637

; 289  : 		{
; 290  : 			TRACKMOUSEEVENT tme;
; 291  : 			tme.cbSize = sizeof(tme);

  0096b	c7 45 e8 10 00
	00 00		 mov	 DWORD PTR _tme$187638[ebp], 16 ; 00000010H

; 292  : 			tme.hwndTrack = this->GetSafeHwnd();

  00972	8b 4d fc	 mov	 ecx, DWORD PTR _this$[ebp]
  00975	e8 00 00 00 00	 call	 ?GetSafeHwnd@CWnd@@QBEPAUHWND__@@XZ ; CWnd::GetSafeHwnd
  0097a	89 45 f0	 mov	 DWORD PTR _tme$187638[ebp+8], eax

; 293  : 			tme.dwFlags = TME_LEAVE;

  0097d	c7 45 ec 02 00
	00 00		 mov	 DWORD PTR _tme$187638[ebp+4], 2

; 294  : 			_TrackMouseEvent(&tme);

  00984	8b f4		 mov	 esi, esp
  00986	8d 4d e8	 lea	 ecx, DWORD PTR _tme$187638[ebp]
  00989	51		 push	 ecx
  0098a	ff 15 00 00 00
	00		 call	 DWORD PTR __imp___TrackMouseEvent@4
  00990	3b f4		 cmp	 esi, esp
  00992	e8 00 00 00 00	 call	 __RTC_CheckEsp

; 295  : 			mbTrackLeave = TRUE;

  00997	8b 55 fc	 mov	 edx, DWORD PTR _this$[ebp]
  0099a	c6 82 99 00 00
	00 01		 mov	 BYTE PTR [edx+153], 1
$L187637:

; 296  : 		}
; 297  : 
; 298  : 		UINT liHitTest = HitTest(aPoint);

  009a1	8b 45 10	 mov	 eax, DWORD PTR _aPoint$[ebp+4]
  009a4	50		 push	 eax
  009a5	8b 4d 0c	 mov	 ecx, DWORD PTR _aPoint$[ebp]
  009a8	51		 push	 ecx
  009a9	8b 4d fc	 mov	 ecx, DWORD PTR _this$[ebp]
  009ac	e8 00 00 00 00	 call	 ?HitTest@CScrollBarEx@@AAEIVCPoint@@@Z ; CScrollBarEx::HitTest
  009b1	89 45 e0	 mov	 DWORD PTR _liHitTest$187639[ebp], eax

; 299  : 		if (miLastHitTest != liHitTest)

  009b4	8b 55 fc	 mov	 edx, DWORD PTR _this$[ebp]
  009b7	8b 82 a0 00 00
	00		 mov	 eax, DWORD PTR [edx+160]
  009bd	3b 45 e0	 cmp	 eax, DWORD PTR _liHitTest$187639[ebp]
  009c0	74 0a		 je	 SHORT $L187640

; 300  : 			Invalidate();

  009c2	6a 01		 push	 1
  009c4	8b 4d fc	 mov	 ecx, DWORD PTR _this$[ebp]
  009c7	e8 00 00 00 00	 call	 ?Invalidate@CWnd@@QAEXH@Z ; CWnd::Invalidate
$L187640:

; 301  : 
; 302  : 		if (miLButtonDownHitTest == HT_THUMB)

  009cc	8b 4d fc	 mov	 ecx, DWORD PTR _this$[ebp]
  009cf	83 b9 a4 00 00
	00 68		 cmp	 DWORD PTR [ecx+164], 104 ; 00000068H
  009d6	75 19		 jne	 SHORT $L187636

; 303  : 			MoveThumb(mPointDragOffset);

  009d8	8b 55 fc	 mov	 edx, DWORD PTR _this$[ebp]
  009db	8b 82 ac 00 00
	00		 mov	 eax, DWORD PTR [edx+172]
  009e1	50		 push	 eax
  009e2	8b 8a a8 00 00
	00		 mov	 ecx, DWORD PTR [edx+168]
  009e8	51		 push	 ecx
  009e9	8b 4d fc	 mov	 ecx, DWORD PTR _this$[ebp]
  009ec	e8 00 00 00 00	 call	 ?MoveThumb@CScrollBarEx@@AAEXVCPoint@@@Z ; CScrollBarEx::MoveThumb
$L187636:

; 304  : 	}
; 305  : 
; 306  : 	CStatic::OnMouseMove(aiFlags, aPoint);

  009f1	8b 55 10	 mov	 edx, DWORD PTR _aPoint$[ebp+4]
  009f4	52		 push	 edx
  009f5	8b 45 0c	 mov	 eax, DWORD PTR _aPoint$[ebp]
  009f8	50		 push	 eax
  009f9	8b 4d 08	 mov	 ecx, DWORD PTR _aiFlags$[ebp]
  009fc	51		 push	 ecx
  009fd	8b 4d fc	 mov	 ecx, DWORD PTR _this$[ebp]
  00a00	e8 00 00 00 00	 call	 ?OnMouseMove@CWnd@@IAEXIVCPoint@@@Z ; CWnd::OnMouseMove

; 307  : }

  00a05	52		 push	 edx
  00a06	8b cd		 mov	 ecx, ebp
  00a08	50		 push	 eax
  00a09	8d 15 00 00 00
	00		 lea	 edx, DWORD PTR $L188929
  00a0f	e8 00 00 00 00	 call	 @_RTC_CheckStackVars@8
  00a14	58		 pop	 eax
  00a15	5a		 pop	 edx
  00a16	5e		 pop	 esi
  00a17	83 c4 20	 add	 esp, 32			; 00000020H
  00a1a	3b ec		 cmp	 ebp, esp
  00a1c	e8 00 00 00 00	 call	 __RTC_CheckEsp
  00a21	8b e5		 mov	 esp, ebp
  00a23	5d		 pop	 ebp
  00a24	c2 0c 00	 ret	 12			; 0000000cH
$L188929:
  00a27	01 00 00 00	 DD	 1
  00a2b	00 00 00 00	 DD	 $L188928
$L188928:
  00a2f	e8 ff ff ff	 DD	 -24			; ffffffe8H
  00a33	10 00 00 00	 DD	 16			; 00000010H
  00a37	00 00 00 00	 DD	 $L188927
$L188927:
  00a3b	74		 DB	 116			; 00000074H
  00a3c	6d		 DB	 109			; 0000006dH
  00a3d	65		 DB	 101			; 00000065H
  00a3e	00		 DB	 0
?OnMouseMove@CScrollBarEx@@IAEXIVCPoint@@@Z ENDP	; CScrollBarEx::OnMouseMove
_TEXT	ENDS
PUBLIC	?HitTest@CScrollBarEx@@AAEIXZ			; CScrollBarEx::HitTest
; Function compile flags: /Odt /RTCsu
_TEXT	SEGMENT
_liHitTest$187648 = -8					; size = 4
_this$ = -4						; size = 4
_wParam$ = 8						; size = 4
_lParam$ = 12						; size = 4
?OnMouseLeave@CScrollBarEx@@IAEJIJ@Z PROC NEAR		; CScrollBarEx::OnMouseLeave
; _this$ = ecx

; 310  : {

  00a40	55		 push	 ebp
  00a41	8b ec		 mov	 ebp, esp
  00a43	83 ec 08	 sub	 esp, 8
  00a46	c7 45 f8 cc cc
	cc cc		 mov	 DWORD PTR [ebp-8], -858993460 ; ccccccccH
  00a4d	c7 45 fc cc cc
	cc cc		 mov	 DWORD PTR [ebp-4], -858993460 ; ccccccccH
  00a54	89 4d fc	 mov	 DWORD PTR _this$[ebp], ecx

; 311  : 	if (mbTrackLeave)

  00a57	8b 45 fc	 mov	 eax, DWORD PTR _this$[ebp]
  00a5a	0f b6 88 99 00
	00 00		 movzx	 ecx, BYTE PTR [eax+153]
  00a61	85 c9		 test	 ecx, ecx
  00a63	74 2c		 je	 SHORT $L187647

; 312  : 	{
; 313  : 		mbTrackLeave = FALSE; 

  00a65	8b 55 fc	 mov	 edx, DWORD PTR _this$[ebp]
  00a68	c6 82 99 00 00
	00 00		 mov	 BYTE PTR [edx+153], 0

; 314  : 		miLastHitTest = HTNOWHERE;

  00a6f	8b 45 fc	 mov	 eax, DWORD PTR _this$[ebp]
  00a72	c7 80 a0 00 00
	00 00 00 00 00	 mov	 DWORD PTR [eax+160], 0

; 315  : 		UINT liHitTest = HitTest();

  00a7c	8b 4d fc	 mov	 ecx, DWORD PTR _this$[ebp]
  00a7f	e8 00 00 00 00	 call	 ?HitTest@CScrollBarEx@@AAEIXZ ; CScrollBarEx::HitTest
  00a84	89 45 f8	 mov	 DWORD PTR _liHitTest$187648[ebp], eax

; 316  : 		Invalidate();

  00a87	6a 01		 push	 1
  00a89	8b 4d fc	 mov	 ecx, DWORD PTR _this$[ebp]
  00a8c	e8 00 00 00 00	 call	 ?Invalidate@CWnd@@QAEXH@Z ; CWnd::Invalidate
$L187647:

; 317  : 	}
; 318  : 	return 0;

  00a91	33 c0		 xor	 eax, eax

; 319  : }

  00a93	83 c4 08	 add	 esp, 8
  00a96	3b ec		 cmp	 ebp, esp
  00a98	e8 00 00 00 00	 call	 __RTC_CheckEsp
  00a9d	8b e5		 mov	 esp, ebp
  00a9f	5d		 pop	 ebp
  00aa0	c2 08 00	 ret	 8
?OnMouseLeave@CScrollBarEx@@IAEJIJ@Z ENDP		; CScrollBarEx::OnMouseLeave
_TEXT	ENDS
PUBLIC	__real@3fe0000000000000
PUBLIC	__real@0000000000000000
PUBLIC	?NotifyControlWnd@CScrollBarEx@@AAEXIH@Z	; CScrollBarEx::NotifyControlWnd
PUBLIC	?SetScrollInfo@CScrollBarEx@@QAEHPAUtagSCROLLINFO@@H@Z ; CScrollBarEx::SetScrollInfo
EXTRN	__imp__lstrcmpiA@8:NEAR
EXTRN	__ftol2:NEAR
EXTRN	__fltused:NEAR
EXTRN	__imp__GetCursorPos@4:NEAR
EXTRN	?ScreenToClient@CWnd@@QBEXPAUtagPOINT@@@Z:NEAR	; CWnd::ScreenToClient
EXTRN	__imp__GetClassNameA@12:NEAR
EXTRN	?GetScrollInfo@CWnd@@QAEHHPAUtagSCROLLINFO@@I@Z:NEAR ; CWnd::GetScrollInfo
EXTRN	?GetScrollLimit@CWnd@@QAEHH@Z:NEAR		; CWnd::GetScrollLimit
;	COMDAT __real@3fe0000000000000
CONST	SEGMENT
__real@3fe0000000000000 DQ 03fe0000000000000r	; 0.5
CONST	ENDS
;	COMDAT __real@0000000000000000
CONST	SEGMENT
__real@0000000000000000 DQ 00000000000000000r	; 0
; Function compile flags: /Odt /RTCsu
CONST	ENDS
_TEXT	SEGMENT
tv390 = -424						; size = 4
tv350 = -420						; size = 4
tv335 = -416						; size = 8
_liTimes$187715 = -408					; size = 4
_liTimes$187674 = -404					; size = 4
_szTemp$ = -396						; size = 260
_si$ = -128						; size = 28
_ldbTempPos$ = -96					; size = 8
_ldbTrackLength$ = -88					; size = 8
_ldbTrackArea$ = -80					; size = 8
_liThumbWidth$ = -72					; size = 4
_liThumbHeight$ = -68					; size = 4
_liTrackWidth$ = -64					; size = 4
_liTrackHeight$ = -60					; size = 4
_liPos$ = -56						; size = 4
_liCursorPos$ = -52					; size = 4
_lrcThumb$ = -44					; size = 16
_lPointCursor$ = -20					; size = 8
_this$ = -8						; size = 4
__$ArrayPad$ = -4					; size = 4
__$ReturnAddr$ = 4					; size = 4
_aPointOffset$ = 8					; size = 8
?MoveThumb@CScrollBarEx@@AAEXVCPoint@@@Z PROC NEAR	; CScrollBarEx::MoveThumb
; _this$ = ecx

; 328  : {

  00ab0	55		 push	 ebp
  00ab1	8b ec		 mov	 ebp, esp
  00ab3	81 ec a8 01 00
	00		 sub	 esp, 424		; 000001a8H
  00ab9	56		 push	 esi
  00aba	57		 push	 edi
  00abb	51		 push	 ecx
  00abc	8d bd 58 fe ff
	ff		 lea	 edi, DWORD PTR [ebp-424]
  00ac2	b9 6a 00 00 00	 mov	 ecx, 106		; 0000006aH
  00ac7	b8 cc cc cc cc	 mov	 eax, -858993460		; ccccccccH
  00acc	f3 ab		 rep stosd
  00ace	59		 pop	 ecx
  00acf	a1 00 00 00 00	 mov	 eax, DWORD PTR ___security_cookie
  00ad4	89 45 fc	 mov	 DWORD PTR __$ArrayPad$[ebp], eax
  00ad7	89 4d f8	 mov	 DWORD PTR _this$[ebp], ecx

; 329  : 	//取得当前鼠标坐标
; 330  : 	CPoint lPointCursor;

  00ada	8d 4d ec	 lea	 ecx, DWORD PTR _lPointCursor$[ebp]
  00add	e8 00 00 00 00	 call	 ??0CPoint@@QAE@XZ	; CPoint::CPoint

; 331  : 	GetCursorPos(&lPointCursor);

  00ae2	8b f4		 mov	 esi, esp
  00ae4	8d 45 ec	 lea	 eax, DWORD PTR _lPointCursor$[ebp]
  00ae7	50		 push	 eax
  00ae8	ff 15 00 00 00
	00		 call	 DWORD PTR __imp__GetCursorPos@4
  00aee	3b f4		 cmp	 esi, esp
  00af0	e8 00 00 00 00	 call	 __RTC_CheckEsp

; 332  : 	ScreenToClient(&lPointCursor);

  00af5	8d 4d ec	 lea	 ecx, DWORD PTR _lPointCursor$[ebp]
  00af8	51		 push	 ecx
  00af9	8b 4d f8	 mov	 ecx, DWORD PTR _this$[ebp]
  00afc	e8 00 00 00 00	 call	 ?ScreenToClient@CWnd@@QBEXPAUtagPOINT@@@Z ; CWnd::ScreenToClient

; 333  : 
; 334  : 	RECT lrcThumb = GetRect(HT_THUMB);

  00b01	6a 68		 push	 104			; 00000068H
  00b03	8d 55 d4	 lea	 edx, DWORD PTR _lrcThumb$[ebp]
  00b06	52		 push	 edx
  00b07	8b 4d f8	 mov	 ecx, DWORD PTR _this$[ebp]
  00b0a	e8 00 00 00 00	 call	 ?GetRect@CScrollBarEx@@AAE?AUtagRECT@@I@Z ; CScrollBarEx::GetRect

; 335  : 	int liCursorPos = 0;	//当前鼠标坐标

  00b0f	c7 45 cc 00 00
	00 00		 mov	 DWORD PTR _liCursorPos$[ebp], 0

; 336  : 	int liPos = 0;			//当前鼠标对应的滚动条位置Postion

  00b16	c7 45 c8 00 00
	00 00		 mov	 DWORD PTR _liPos$[ebp], 0

; 337  : 	int liTrackHeight = mrcClient.bottom - mrcClient.top - miButtonSize * 2 - 1;	//滑轨高度

  00b1d	8b 45 f8	 mov	 eax, DWORD PTR _this$[ebp]
  00b20	8b 4d f8	 mov	 ecx, DWORD PTR _this$[ebp]
  00b23	8b 90 90 00 00
	00		 mov	 edx, DWORD PTR [eax+144]
  00b29	2b 91 88 00 00
	00		 sub	 edx, DWORD PTR [ecx+136]
  00b2f	8b 45 f8	 mov	 eax, DWORD PTR _this$[ebp]
  00b32	8b 88 94 00 00
	00		 mov	 ecx, DWORD PTR [eax+148]
  00b38	d1 e1		 shl	 ecx, 1
  00b3a	2b d1		 sub	 edx, ecx
  00b3c	83 ea 01	 sub	 edx, 1
  00b3f	89 55 c4	 mov	 DWORD PTR _liTrackHeight$[ebp], edx

; 338  : 	int liTrackWidth = mrcClient.right - mrcClient.left - miButtonSize * 2 - 1;		//滑轨宽度

  00b42	8b 55 f8	 mov	 edx, DWORD PTR _this$[ebp]
  00b45	8b 45 f8	 mov	 eax, DWORD PTR _this$[ebp]
  00b48	8b 8a 8c 00 00
	00		 mov	 ecx, DWORD PTR [edx+140]
  00b4e	2b 88 84 00 00
	00		 sub	 ecx, DWORD PTR [eax+132]
  00b54	8b 55 f8	 mov	 edx, DWORD PTR _this$[ebp]
  00b57	8b 82 94 00 00
	00		 mov	 eax, DWORD PTR [edx+148]
  00b5d	d1 e0		 shl	 eax, 1
  00b5f	2b c8		 sub	 ecx, eax
  00b61	83 e9 01	 sub	 ecx, 1
  00b64	89 4d c0	 mov	 DWORD PTR _liTrackWidth$[ebp], ecx

; 339  : 	int liThumbHeight = lrcThumb.bottom - lrcThumb.top;		//滑块高度

  00b67	8b 4d e0	 mov	 ecx, DWORD PTR _lrcThumb$[ebp+12]
  00b6a	2b 4d d8	 sub	 ecx, DWORD PTR _lrcThumb$[ebp+4]
  00b6d	89 4d bc	 mov	 DWORD PTR _liThumbHeight$[ebp], ecx

; 340  : 	int liThumbWidth = lrcThumb.right - lrcThumb.left;		//滑块宽度

  00b70	8b 55 dc	 mov	 edx, DWORD PTR _lrcThumb$[ebp+8]
  00b73	2b 55 d4	 sub	 edx, DWORD PTR _lrcThumb$[ebp]
  00b76	89 55 b8	 mov	 DWORD PTR _liThumbWidth$[ebp], edx

; 341  : 	double ldbTrackArea = mScrollInfo.nMax - mScrollInfo.nMin - mScrollInfo.nPage + 0.5;		//滑块区域(相对于Position)

  00b79	8b 45 f8	 mov	 eax, DWORD PTR _this$[ebp]
  00b7c	8b 4d f8	 mov	 ecx, DWORD PTR _this$[ebp]
  00b7f	8b 50 70	 mov	 edx, DWORD PTR [eax+112]
  00b82	2b 51 6c	 sub	 edx, DWORD PTR [ecx+108]
  00b85	8b 45 f8	 mov	 eax, DWORD PTR _this$[ebp]
  00b88	2b 50 74	 sub	 edx, DWORD PTR [eax+116]
  00b8b	89 95 60 fe ff
	ff		 mov	 DWORD PTR tv335[ebp], edx
  00b91	c7 85 64 fe ff
	ff 00 00 00 00	 mov	 DWORD PTR tv335[ebp+4], 0
  00b9b	df ad 60 fe ff
	ff		 fild	 QWORD PTR tv335[ebp]
  00ba1	dc 05 00 00 00
	00		 fadd	 QWORD PTR __real@3fe0000000000000
  00ba7	dd 5d b0	 fstp	 QWORD PTR _ldbTrackArea$[ebp]

; 342  : 	double ldbTrackLength = 0.00;		//滑轨长度

  00baa	dd 05 00 00 00
	00		 fld	 QWORD PTR __real@0000000000000000
  00bb0	dd 5d a8	 fstp	 QWORD PTR _ldbTrackLength$[ebp]

; 343  : 	double ldbTempPos = 0.00;

  00bb3	dd 05 00 00 00
	00		 fld	 QWORD PTR __real@0000000000000000
  00bb9	dd 5d a0	 fstp	 QWORD PTR _ldbTempPos$[ebp]

; 344  : 
; 345  : 	SCROLLINFO si;
; 346  : 	si.cbSize = sizeof(si);

  00bbc	c7 45 80 1c 00
	00 00		 mov	 DWORD PTR _si$[ebp], 28	; 0000001cH

; 347  : 	si.fMask = SIF_RANGE;

  00bc3	c7 45 84 01 00
	00 00		 mov	 DWORD PTR _si$[ebp+4], 1

; 348  : 	if (mpWnd == NULL)

  00bca	8b 4d f8	 mov	 ecx, DWORD PTR _this$[ebp]
  00bcd	83 79 54 00	 cmp	 DWORD PTR [ecx+84], 0
  00bd1	75 05		 jne	 SHORT $L187666

; 349  : 		return;

  00bd3	e9 e8 02 00 00	 jmp	 $L187652
$L187666:

; 350  : 
; 351  : 	//取得父控件类名
; 352  : 	char szTemp[MAX_PATH];
; 353  : #if _MSC_VER   <   1400
; 354  : 	GetClassName(mpWnd->GetSafeHwnd(), (LPTSTR)szTemp, sizeof(szTemp));

  00bd8	8b f4		 mov	 esi, esp
  00bda	68 04 01 00 00	 push	 260			; 00000104H
  00bdf	8d 95 74 fe ff
	ff		 lea	 edx, DWORD PTR _szTemp$[ebp]
  00be5	52		 push	 edx
  00be6	8b 45 f8	 mov	 eax, DWORD PTR _this$[ebp]
  00be9	8b 48 54	 mov	 ecx, DWORD PTR [eax+84]
  00bec	e8 00 00 00 00	 call	 ?GetSafeHwnd@CWnd@@QBEPAUHWND__@@XZ ; CWnd::GetSafeHwnd
  00bf1	50		 push	 eax
  00bf2	ff 15 00 00 00
	00		 call	 DWORD PTR __imp__GetClassNameA@12
  00bf8	3b f4		 cmp	 esi, esp
  00bfa	e8 00 00 00 00	 call	 __RTC_CheckEsp

; 355  : #else
; 356  : 	GetClassName(mpWnd->GetSafeHwnd(), T2W((LPTSTR)szTemp), sizeof(szTemp));
; 357  : #endif
; 358  : 
; 359  : 	if (mScrollOrientation == esoVertical)

  00bff	8b 4d f8	 mov	 ecx, DWORD PTR _this$[ebp]
  00c02	83 b9 80 00 00
	00 01		 cmp	 DWORD PTR [ecx+128], 1
  00c09	0f 85 61 01 00
	00		 jne	 $L187669

; 360  : 	{
; 361  : 		mpWnd->GetScrollInfo(SB_VERT, &si);

  00c0f	6a 17		 push	 23			; 00000017H
  00c11	8d 55 80	 lea	 edx, DWORD PTR _si$[ebp]
  00c14	52		 push	 edx
  00c15	6a 01		 push	 1
  00c17	8b 45 f8	 mov	 eax, DWORD PTR _this$[ebp]
  00c1a	8b 48 54	 mov	 ecx, DWORD PTR [eax+84]
  00c1d	e8 00 00 00 00	 call	 ?GetScrollInfo@CWnd@@QAEHHPAUtagSCROLLINFO@@I@Z ; CWnd::GetScrollInfo

; 362  : 		ldbTrackLength = liTrackHeight - liThumbHeight;

  00c22	8b 4d c4	 mov	 ecx, DWORD PTR _liTrackHeight$[ebp]
  00c25	2b 4d bc	 sub	 ecx, DWORD PTR _liThumbHeight$[ebp]
  00c28	89 8d 5c fe ff
	ff		 mov	 DWORD PTR tv350[ebp], ecx
  00c2e	db 85 5c fe ff
	ff		 fild	 DWORD PTR tv350[ebp]
  00c34	dd 5d a8	 fstp	 QWORD PTR _ldbTrackLength$[ebp]

; 363  : 		liCursorPos = lPointCursor.y - miButtonSize - aPointOffset.y - liThumbHeight / 2;

  00c37	8b 55 f8	 mov	 edx, DWORD PTR _this$[ebp]
  00c3a	8b 4d f0	 mov	 ecx, DWORD PTR _lPointCursor$[ebp+4]
  00c3d	2b 8a 94 00 00
	00		 sub	 ecx, DWORD PTR [edx+148]
  00c43	2b 4d 0c	 sub	 ecx, DWORD PTR _aPointOffset$[ebp+4]
  00c46	8b 45 bc	 mov	 eax, DWORD PTR _liThumbHeight$[ebp]
  00c49	99		 cdq
  00c4a	2b c2		 sub	 eax, edx
  00c4c	d1 f8		 sar	 eax, 1
  00c4e	2b c8		 sub	 ecx, eax
  00c50	89 4d cc	 mov	 DWORD PTR _liCursorPos$[ebp], ecx

; 364  : 		ldbTempPos = (double)liCursorPos * (ldbTrackArea / ldbTrackLength);

  00c53	db 45 cc	 fild	 DWORD PTR _liCursorPos$[ebp]
  00c56	dd 45 b0	 fld	 QWORD PTR _ldbTrackArea$[ebp]
  00c59	dc 75 a8	 fdiv	 QWORD PTR _ldbTrackLength$[ebp]
  00c5c	de c9		 fmulp	 ST(1), ST(0)
  00c5e	dd 55 a0	 fst	 QWORD PTR _ldbTempPos$[ebp]

; 365  : 		liPos = (int)ldbTempPos;

  00c61	e8 00 00 00 00	 call	 __ftol2
  00c66	89 45 c8	 mov	 DWORD PTR _liPos$[ebp], eax

; 366  : 		ldbTempPos -= (double)liPos;

  00c69	db 45 c8	 fild	 DWORD PTR _liPos$[ebp]
  00c6c	dc 6d a0	 fsubr	 QWORD PTR _ldbTempPos$[ebp]
  00c6f	dd 5d a0	 fstp	 QWORD PTR _ldbTempPos$[ebp]

; 367  : 		if (ldbTempPos > 0)

  00c72	dd 45 a0	 fld	 QWORD PTR _ldbTempPos$[ebp]
  00c75	dc 1d 00 00 00
	00		 fcomp	 QWORD PTR __real@0000000000000000
  00c7b	df e0		 fnstsw	 ax
  00c7d	f6 c4 41	 test	 ah, 65			; 00000041H
  00c80	75 09		 jne	 SHORT $L187673

; 368  : 			liPos ++;

  00c82	8b 55 c8	 mov	 edx, DWORD PTR _liPos$[ebp]
  00c85	83 c2 01	 add	 edx, 1
  00c88	89 55 c8	 mov	 DWORD PTR _liPos$[ebp], edx
$L187673:

; 369  : 		int liTimes = 0;

  00c8b	c7 85 6c fe ff
	ff 00 00 00 00	 mov	 DWORD PTR _liTimes$187674[ebp], 0

; 370  : 
; 371  : 		if (liPos >= mScrollInfo.nMin && liPos <= mpWnd->GetScrollLimit(SB_VERT))

  00c95	8b 45 f8	 mov	 eax, DWORD PTR _this$[ebp]
  00c98	8b 4d c8	 mov	 ecx, DWORD PTR _liPos$[ebp]
  00c9b	3b 48 6c	 cmp	 ecx, DWORD PTR [eax+108]
  00c9e	7c 5b		 jl	 SHORT $L187675
  00ca0	6a 01		 push	 1
  00ca2	8b 55 f8	 mov	 edx, DWORD PTR _this$[ebp]
  00ca5	8b 4a 54	 mov	 ecx, DWORD PTR [edx+84]
  00ca8	e8 00 00 00 00	 call	 ?GetScrollLimit@CWnd@@QAEHH@Z ; CWnd::GetScrollLimit
  00cad	39 45 c8	 cmp	 DWORD PTR _liPos$[ebp], eax
  00cb0	7f 49		 jg	 SHORT $L187675

; 372  : 		{
; 373  : 			#if _MSC_VER   <   1400
; 374  : 			if (lstrcmpi( (LPTSTR)szTemp, _T("SysListView32")) == 0)		//ListCtrl单独处理

  00cb2	8b f4		 mov	 esi, esp
  00cb4	68 00 00 00 00	 push	 OFFSET FLAT:$SG187678
  00cb9	8d 85 74 fe ff
	ff		 lea	 eax, DWORD PTR _szTemp$[ebp]
  00cbf	50		 push	 eax
  00cc0	ff 15 00 00 00
	00		 call	 DWORD PTR __imp__lstrcmpiA@8
  00cc6	3b f4		 cmp	 esi, esp
  00cc8	e8 00 00 00 00	 call	 __RTC_CheckEsp
  00ccd	85 c0		 test	 eax, eax
  00ccf	75 02		 jne	 SHORT $L187677

; 375  : 			#else
; 376  : 			if (lstrcmpi(T2W((LPTSTR)szTemp), _T("SysListView32")) == 0)
; 377  :             #endif
; 378  : 			{
; 379  : 				/*bool lbDirDown = mScrollInfo.nPos < liPos;
; 380  : 				CSize lSize;
; 381  : 				lSize.cx = 0;
; 382  : 				lSize.cy = (liPos - mScrollInfo.nPos) * 13;
; 383  : 				if (IS_ODD(lSize.cy))
; 384  : 					lSize.cy ++;
; 385  : 				((CULListView*)mpWnd)->Scroll(lSize);*/
; 386  : 			}
; 387  : 			else

  00cd1	eb 20		 jmp	 SHORT $L187679
$L187677:

; 388  : 			//{ 
; 389  : 			    #if _MSC_VER   <   1400
; 390  : 				NotifyControlWnd(WM_VSCROLL, (int)MAKELPARAM(SB_THUMBTRACK, liPos));

  00cd3	8b 4d c8	 mov	 ecx, DWORD PTR _liPos$[ebp]
  00cd6	81 e1 ff ff 00
	00		 and	 ecx, 65535		; 0000ffffH
  00cdc	0f b7 d1	 movzx	 edx, cx
  00cdf	c1 e2 10	 shl	 edx, 16			; 00000010H
  00ce2	83 ca 05	 or	 edx, 5
  00ce5	52		 push	 edx
  00ce6	68 15 01 00 00	 push	 277			; 00000115H
  00ceb	8b 4d f8	 mov	 ecx, DWORD PTR _this$[ebp]
  00cee	e8 00 00 00 00	 call	 ?NotifyControlWnd@CScrollBarEx@@AAEXIH@Z ; CScrollBarEx::NotifyControlWnd
$L187679:

; 391  : 			    #else
; 392  : 				NotifyControlWnd(WM_VSCROLL, (int)MAKELPARAM(SB_THUMBTRACK, liPos));
; 393  :                 #endif
; 394  : 				//char string[10]; 
; 395  : 				//LOG_TRACE(3,true,"CULScrollBar_2",itoa(liPos,string,10));
; 396  : 			//}
; 397  : 			si.nPos = liPos;

  00cf3	8b 45 c8	 mov	 eax, DWORD PTR _liPos$[ebp]
  00cf6	89 45 94	 mov	 DWORD PTR _si$[ebp+20], eax

; 398  : 		}
; 399  : 		else if (liPos < mScrollInfo.nMin)

  00cf9	eb 56		 jmp	 SHORT $L187689
$L187675:
  00cfb	8b 4d f8	 mov	 ecx, DWORD PTR _this$[ebp]
  00cfe	8b 55 c8	 mov	 edx, DWORD PTR _liPos$[ebp]
  00d01	3b 51 6c	 cmp	 edx, DWORD PTR [ecx+108]
  00d04	7d 1a		 jge	 SHORT $L187690

; 400  : 		{
; 401  : 			NotifyControlWnd(WM_VSCROLL, MAKELPARAM(SB_TOP, 0));

  00d06	6a 06		 push	 6
  00d08	68 15 01 00 00	 push	 277			; 00000115H
  00d0d	8b 4d f8	 mov	 ecx, DWORD PTR _this$[ebp]
  00d10	e8 00 00 00 00	 call	 ?NotifyControlWnd@CScrollBarEx@@AAEXIH@Z ; CScrollBarEx::NotifyControlWnd

; 402  : 			si.nPos = mScrollInfo.nMin;

  00d15	8b 45 f8	 mov	 eax, DWORD PTR _this$[ebp]
  00d18	8b 48 6c	 mov	 ecx, DWORD PTR [eax+108]
  00d1b	89 4d 94	 mov	 DWORD PTR _si$[ebp+20], ecx

; 403  : 		}
; 404  : 		else if (liPos > mpWnd->GetScrollLimit(SB_VERT))

  00d1e	eb 31		 jmp	 SHORT $L187689
$L187690:
  00d20	6a 01		 push	 1
  00d22	8b 55 f8	 mov	 edx, DWORD PTR _this$[ebp]
  00d25	8b 4a 54	 mov	 ecx, DWORD PTR [edx+84]
  00d28	e8 00 00 00 00	 call	 ?GetScrollLimit@CWnd@@QAEHH@Z ; CWnd::GetScrollLimit
  00d2d	39 45 c8	 cmp	 DWORD PTR _liPos$[ebp], eax
  00d30	7e 1f		 jle	 SHORT $L187689

; 405  : 		{
; 406  : 			NotifyControlWnd(WM_VSCROLL, MAKELPARAM(SB_BOTTOM, 0));

  00d32	6a 07		 push	 7
  00d34	68 15 01 00 00	 push	 277			; 00000115H
  00d39	8b 4d f8	 mov	 ecx, DWORD PTR _this$[ebp]
  00d3c	e8 00 00 00 00	 call	 ?NotifyControlWnd@CScrollBarEx@@AAEXIH@Z ; CScrollBarEx::NotifyControlWnd

; 407  : 			si.nPos = mpWnd->GetScrollLimit(SB_VERT);

  00d41	6a 01		 push	 1
  00d43	8b 45 f8	 mov	 eax, DWORD PTR _this$[ebp]
  00d46	8b 48 54	 mov	 ecx, DWORD PTR [eax+84]
  00d49	e8 00 00 00 00	 call	 ?GetScrollLimit@CWnd@@QAEHH@Z ; CWnd::GetScrollLimit
  00d4e	89 45 94	 mov	 DWORD PTR _si$[ebp+20], eax
$L187689:

; 408  : 		}
; 409  : 		//更新滚动条信息
; 410  : 		if (false == misDlg)

  00d51	8b 4d f8	 mov	 ecx, DWORD PTR _this$[ebp]
  00d54	83 b9 e0 00 00
	00 00		 cmp	 DWORD PTR [ecx+224], 0
  00d5b	75 0e		 jne	 SHORT $L187709

; 411  : 		{
; 412  : 				SetScrollInfo(&si);

  00d5d	6a 01		 push	 1
  00d5f	8d 55 80	 lea	 edx, DWORD PTR _si$[ebp]
  00d62	52		 push	 edx
  00d63	8b 4d f8	 mov	 ecx, DWORD PTR _this$[ebp]
  00d66	e8 00 00 00 00	 call	 ?SetScrollInfo@CScrollBarEx@@QAEHPAUtagSCROLLINFO@@H@Z ; CScrollBarEx::SetScrollInfo
$L187709:

; 413  : 		}	
; 414  : 	}
; 415  : 	else

  00d6b	e9 50 01 00 00	 jmp	 $L187652
$L187669:

; 416  : 	{
; 417  : 		mpWnd->GetScrollInfo(SB_HORZ, &si);

  00d70	6a 17		 push	 23			; 00000017H
  00d72	8d 45 80	 lea	 eax, DWORD PTR _si$[ebp]
  00d75	50		 push	 eax
  00d76	6a 00		 push	 0
  00d78	8b 4d f8	 mov	 ecx, DWORD PTR _this$[ebp]
  00d7b	8b 49 54	 mov	 ecx, DWORD PTR [ecx+84]
  00d7e	e8 00 00 00 00	 call	 ?GetScrollInfo@CWnd@@QAEHHPAUtagSCROLLINFO@@I@Z ; CWnd::GetScrollInfo

; 418  : 		ldbTrackLength = liTrackWidth - liThumbWidth;

  00d83	8b 55 c0	 mov	 edx, DWORD PTR _liTrackWidth$[ebp]
  00d86	2b 55 b8	 sub	 edx, DWORD PTR _liThumbWidth$[ebp]
  00d89	89 95 58 fe ff
	ff		 mov	 DWORD PTR tv390[ebp], edx
  00d8f	db 85 58 fe ff
	ff		 fild	 DWORD PTR tv390[ebp]
  00d95	dd 5d a8	 fstp	 QWORD PTR _ldbTrackLength$[ebp]

; 419  : 		liCursorPos = lPointCursor.x - miButtonSize - aPointOffset.x - liThumbWidth / 2;

  00d98	8b 45 f8	 mov	 eax, DWORD PTR _this$[ebp]
  00d9b	8b 4d ec	 mov	 ecx, DWORD PTR _lPointCursor$[ebp]
  00d9e	2b 88 94 00 00
	00		 sub	 ecx, DWORD PTR [eax+148]
  00da4	2b 4d 08	 sub	 ecx, DWORD PTR _aPointOffset$[ebp]
  00da7	8b 45 b8	 mov	 eax, DWORD PTR _liThumbWidth$[ebp]
  00daa	99		 cdq
  00dab	2b c2		 sub	 eax, edx
  00dad	d1 f8		 sar	 eax, 1
  00daf	2b c8		 sub	 ecx, eax
  00db1	89 4d cc	 mov	 DWORD PTR _liCursorPos$[ebp], ecx

; 420  : 		ldbTempPos = (double)liCursorPos * (ldbTrackArea / ldbTrackLength);

  00db4	db 45 cc	 fild	 DWORD PTR _liCursorPos$[ebp]
  00db7	dd 45 b0	 fld	 QWORD PTR _ldbTrackArea$[ebp]
  00dba	dc 75 a8	 fdiv	 QWORD PTR _ldbTrackLength$[ebp]
  00dbd	de c9		 fmulp	 ST(1), ST(0)
  00dbf	dd 55 a0	 fst	 QWORD PTR _ldbTempPos$[ebp]

; 421  : 		liPos = (int)ldbTempPos;

  00dc2	e8 00 00 00 00	 call	 __ftol2
  00dc7	89 45 c8	 mov	 DWORD PTR _liPos$[ebp], eax

; 422  : 		ldbTempPos -= (double)liPos;

  00dca	db 45 c8	 fild	 DWORD PTR _liPos$[ebp]
  00dcd	dc 6d a0	 fsubr	 QWORD PTR _ldbTempPos$[ebp]
  00dd0	dd 5d a0	 fstp	 QWORD PTR _ldbTempPos$[ebp]

; 423  : 		if (ldbTempPos > 0)

  00dd3	dd 45 a0	 fld	 QWORD PTR _ldbTempPos$[ebp]
  00dd6	dc 1d 00 00 00
	00		 fcomp	 QWORD PTR __real@0000000000000000
  00ddc	df e0		 fnstsw	 ax
  00dde	f6 c4 41	 test	 ah, 65			; 00000041H
  00de1	75 09		 jne	 SHORT $L187714

; 424  : 			liPos ++;

  00de3	8b 55 c8	 mov	 edx, DWORD PTR _liPos$[ebp]
  00de6	83 c2 01	 add	 edx, 1
  00de9	89 55 c8	 mov	 DWORD PTR _liPos$[ebp], edx
$L187714:

; 425  : 		int liTimes = 0;

  00dec	c7 85 68 fe ff
	ff 00 00 00 00	 mov	 DWORD PTR _liTimes$187715[ebp], 0

; 426  : 
; 427  : 		if (liPos >= mScrollInfo.nMin && liPos <= mpWnd->GetScrollLimit(SB_HORZ))

  00df6	8b 45 f8	 mov	 eax, DWORD PTR _this$[ebp]
  00df9	8b 4d c8	 mov	 ecx, DWORD PTR _liPos$[ebp]
  00dfc	3b 48 6c	 cmp	 ecx, DWORD PTR [eax+108]
  00dff	7c 5b		 jl	 SHORT $L187716
  00e01	6a 00		 push	 0
  00e03	8b 55 f8	 mov	 edx, DWORD PTR _this$[ebp]
  00e06	8b 4a 54	 mov	 ecx, DWORD PTR [edx+84]
  00e09	e8 00 00 00 00	 call	 ?GetScrollLimit@CWnd@@QAEHH@Z ; CWnd::GetScrollLimit
  00e0e	39 45 c8	 cmp	 DWORD PTR _liPos$[ebp], eax
  00e11	7f 49		 jg	 SHORT $L187716

; 428  : 		{
; 429  : 			#if _MSC_VER   <   1400
; 430  : 			if (lstrcmpi( (LPTSTR)szTemp, _T("SysListView32")) == 0)		//ListCtrl单独处理

  00e13	8b f4		 mov	 esi, esp
  00e15	68 00 00 00 00	 push	 OFFSET FLAT:$SG187719
  00e1a	8d 85 74 fe ff
	ff		 lea	 eax, DWORD PTR _szTemp$[ebp]
  00e20	50		 push	 eax
  00e21	ff 15 00 00 00
	00		 call	 DWORD PTR __imp__lstrcmpiA@8
  00e27	3b f4		 cmp	 esi, esp
  00e29	e8 00 00 00 00	 call	 __RTC_CheckEsp
  00e2e	85 c0		 test	 eax, eax
  00e30	75 02		 jne	 SHORT $L187718

; 431  : 			#else
; 432  : 			if (lstrcmpi(T2W((LPTSTR)szTemp), _T("SysListView32")) == 0)
; 433  : 			#endif
; 434  : 			{
; 435  : 				/*bool lbDirDown = mScrollInfo.nPos < liPos;
; 436  : 				CSize lSize;
; 437  : 				lSize.cx = (liPos - mScrollInfo.nPos);
; 438  : 				lSize.cy = 0;
; 439  : 				((CULListView*)mpWnd)->Scroll(lSize);*/
; 440  : 			}
; 441  : 			else

  00e32	eb 20		 jmp	 SHORT $L187720
$L187718:

; 442  : 				NotifyControlWnd(WM_HSCROLL, (int)MAKELPARAM(SB_THUMBTRACK, liPos));

  00e34	8b 4d c8	 mov	 ecx, DWORD PTR _liPos$[ebp]
  00e37	81 e1 ff ff 00
	00		 and	 ecx, 65535		; 0000ffffH
  00e3d	0f b7 d1	 movzx	 edx, cx
  00e40	c1 e2 10	 shl	 edx, 16			; 00000010H
  00e43	83 ca 05	 or	 edx, 5
  00e46	52		 push	 edx
  00e47	68 14 01 00 00	 push	 276			; 00000114H
  00e4c	8b 4d f8	 mov	 ecx, DWORD PTR _this$[ebp]
  00e4f	e8 00 00 00 00	 call	 ?NotifyControlWnd@CScrollBarEx@@AAEXIH@Z ; CScrollBarEx::NotifyControlWnd
$L187720:

; 443  : 			si.nPos = liPos;

  00e54	8b 45 c8	 mov	 eax, DWORD PTR _liPos$[ebp]
  00e57	89 45 94	 mov	 DWORD PTR _si$[ebp+20], eax

; 444  : 		}
; 445  : 		else if (liPos < mScrollInfo.nMin)

  00e5a	eb 56		 jmp	 SHORT $L187730
$L187716:
  00e5c	8b 4d f8	 mov	 ecx, DWORD PTR _this$[ebp]
  00e5f	8b 55 c8	 mov	 edx, DWORD PTR _liPos$[ebp]
  00e62	3b 51 6c	 cmp	 edx, DWORD PTR [ecx+108]
  00e65	7d 1a		 jge	 SHORT $L187731

; 446  : 		{
; 447  : 			NotifyControlWnd(WM_HSCROLL, (int)MAKELPARAM(SB_TOP, 0));

  00e67	6a 06		 push	 6
  00e69	68 14 01 00 00	 push	 276			; 00000114H
  00e6e	8b 4d f8	 mov	 ecx, DWORD PTR _this$[ebp]
  00e71	e8 00 00 00 00	 call	 ?NotifyControlWnd@CScrollBarEx@@AAEXIH@Z ; CScrollBarEx::NotifyControlWnd

; 448  : 			si.nPos = mScrollInfo.nMin;

  00e76	8b 45 f8	 mov	 eax, DWORD PTR _this$[ebp]
  00e79	8b 48 6c	 mov	 ecx, DWORD PTR [eax+108]
  00e7c	89 4d 94	 mov	 DWORD PTR _si$[ebp+20], ecx

; 449  : 		}
; 450  : 		else if (liPos > mpWnd->GetScrollLimit(SB_HORZ))

  00e7f	eb 31		 jmp	 SHORT $L187730
$L187731:
  00e81	6a 00		 push	 0
  00e83	8b 55 f8	 mov	 edx, DWORD PTR _this$[ebp]
  00e86	8b 4a 54	 mov	 ecx, DWORD PTR [edx+84]
  00e89	e8 00 00 00 00	 call	 ?GetScrollLimit@CWnd@@QAEHH@Z ; CWnd::GetScrollLimit
  00e8e	39 45 c8	 cmp	 DWORD PTR _liPos$[ebp], eax
  00e91	7e 1f		 jle	 SHORT $L187730

; 451  : 		{
; 452  : 			NotifyControlWnd(WM_HSCROLL, (int)MAKELPARAM(SB_BOTTOM, 0));

  00e93	6a 07		 push	 7
  00e95	68 14 01 00 00	 push	 276			; 00000114H
  00e9a	8b 4d f8	 mov	 ecx, DWORD PTR _this$[ebp]
  00e9d	e8 00 00 00 00	 call	 ?NotifyControlWnd@CScrollBarEx@@AAEXIH@Z ; CScrollBarEx::NotifyControlWnd

; 453  : 			si.nPos = mpWnd->GetScrollLimit(SB_HORZ);

  00ea2	6a 00		 push	 0
  00ea4	8b 45 f8	 mov	 eax, DWORD PTR _this$[ebp]
  00ea7	8b 48 54	 mov	 ecx, DWORD PTR [eax+84]
  00eaa	e8 00 00 00 00	 call	 ?GetScrollLimit@CWnd@@QAEHH@Z ; CWnd::GetScrollLimit
  00eaf	89 45 94	 mov	 DWORD PTR _si$[ebp+20], eax
$L187730:

; 454  : 		}
; 455  : 		//更新滚动条信息
; 456  : 		SetScrollInfo(&si);

  00eb2	6a 01		 push	 1
  00eb4	8d 4d 80	 lea	 ecx, DWORD PTR _si$[ebp]
  00eb7	51		 push	 ecx
  00eb8	8b 4d f8	 mov	 ecx, DWORD PTR _this$[ebp]
  00ebb	e8 00 00 00 00	 call	 ?SetScrollInfo@CScrollBarEx@@QAEHPAUtagSCROLLINFO@@H@Z ; CScrollBarEx::SetScrollInfo
$L187652:

; 457  : 	}
; 458  : }

  00ec0	52		 push	 edx
  00ec1	8b cd		 mov	 ecx, ebp
  00ec3	50		 push	 eax
  00ec4	8d 15 00 00 00
	00		 lea	 edx, DWORD PTR $L188944
  00eca	e8 00 00 00 00	 call	 @_RTC_CheckStackVars@8
  00ecf	58		 pop	 eax
  00ed0	5a		 pop	 edx
  00ed1	8b 4d fc	 mov	 ecx, DWORD PTR __$ArrayPad$[ebp]
  00ed4	e8 00 00 00 00	 call	 @__security_check_cookie@4
  00ed9	5f		 pop	 edi
  00eda	5e		 pop	 esi
  00edb	81 c4 a8 01 00
	00		 add	 esp, 424		; 000001a8H
  00ee1	3b ec		 cmp	 ebp, esp
  00ee3	e8 00 00 00 00	 call	 __RTC_CheckEsp
  00ee8	8b e5		 mov	 esp, ebp
  00eea	5d		 pop	 ebp
  00eeb	c2 08 00	 ret	 8
$L188944:
  00eee	04 00 00 00	 DD	 4
  00ef2	00 00 00 00	 DD	 $L188943
$L188943:
  00ef6	ec ff ff ff	 DD	 -20			; ffffffecH
  00efa	08 00 00 00	 DD	 8
  00efe	00 00 00 00	 DD	 $L188938
  00f02	d4 ff ff ff	 DD	 -44			; ffffffd4H
  00f06	10 00 00 00	 DD	 16			; 00000010H
  00f0a	00 00 00 00	 DD	 $L188939
  00f0e	80 ff ff ff	 DD	 -128			; ffffff80H
  00f12	1c 00 00 00	 DD	 28			; 0000001cH
  00f16	00 00 00 00	 DD	 $L188940
  00f1a	74 fe ff ff	 DD	 -396			; fffffe74H
  00f1e	04 01 00 00	 DD	 260			; 00000104H
  00f22	00 00 00 00	 DD	 $L188941
$L188941:
  00f26	73		 DB	 115			; 00000073H
  00f27	7a		 DB	 122			; 0000007aH
  00f28	54		 DB	 84			; 00000054H
  00f29	65		 DB	 101			; 00000065H
  00f2a	6d		 DB	 109			; 0000006dH
  00f2b	70		 DB	 112			; 00000070H
  00f2c	00		 DB	 0
$L188940:
  00f2d	73		 DB	 115			; 00000073H
  00f2e	69		 DB	 105			; 00000069H
  00f2f	00		 DB	 0
$L188939:
  00f30	6c		 DB	 108			; 0000006cH
  00f31	72		 DB	 114			; 00000072H
  00f32	63		 DB	 99			; 00000063H
  00f33	54		 DB	 84			; 00000054H
  00f34	68		 DB	 104			; 00000068H
  00f35	75		 DB	 117			; 00000075H
  00f36	6d		 DB	 109			; 0000006dH
  00f37	62		 DB	 98			; 00000062H
  00f38	00		 DB	 0
$L188938:
  00f39	6c		 DB	 108			; 0000006cH
  00f3a	50		 DB	 80			; 00000050H
  00f3b	6f		 DB	 111			; 0000006fH
  00f3c	69		 DB	 105			; 00000069H
  00f3d	6e		 DB	 110			; 0000006eH
  00f3e	74		 DB	 116			; 00000074H
  00f3f	43		 DB	 67			; 00000043H
  00f40	75		 DB	 117			; 00000075H
  00f41	72		 DB	 114			; 00000072H
  00f42	73		 DB	 115			; 00000073H
  00f43	6f		 DB	 111			; 0000006fH
  00f44	72		 DB	 114			; 00000072H
  00f45	00		 DB	 0
?MoveThumb@CScrollBarEx@@AAEXVCPoint@@@Z ENDP		; CScrollBarEx::MoveThumb
_TEXT	ENDS
PUBLIC	?TrackSpace@CScrollBarEx@@AAEXXZ		; CScrollBarEx::TrackSpace
PUBLIC	?UpdateScrollBar@CScrollBarEx@@QAEXXZ		; CScrollBarEx::UpdateScrollBar
; Function compile flags: /Odt /RTCsu
_TEXT	SEGMENT
$T188948 = -112						; size = 16
$T188947 = -96						; size = 16
_bDirDown$187776 = -80					; size = 4
_bDirDown$187764 = -76					; size = 4
_liStep$ = -72						; size = 4
_liTimes$ = -68						; size = 4
_liMaxTimes$ = -64					; size = 4
_lPointCenter$ = -56					; size = 8
_lrcThumb$ = -40					; size = 16
_lPointCursor$ = -16					; size = 8
_this$ = -4						; size = 4
?TrackSpace@CScrollBarEx@@AAEXXZ PROC NEAR		; CScrollBarEx::TrackSpace
; _this$ = ecx

; 467  : {

  00f50	55		 push	 ebp
  00f51	8b ec		 mov	 ebp, esp
  00f53	83 ec 70	 sub	 esp, 112		; 00000070H
  00f56	56		 push	 esi
  00f57	57		 push	 edi
  00f58	51		 push	 ecx
  00f59	8d 7d 90	 lea	 edi, DWORD PTR [ebp-112]
  00f5c	b9 1c 00 00 00	 mov	 ecx, 28			; 0000001cH
  00f61	b8 cc cc cc cc	 mov	 eax, -858993460		; ccccccccH
  00f66	f3 ab		 rep stosd
  00f68	59		 pop	 ecx
  00f69	89 4d fc	 mov	 DWORD PTR _this$[ebp], ecx

; 468  : 	CPoint lPointCursor;

  00f6c	8d 4d f0	 lea	 ecx, DWORD PTR _lPointCursor$[ebp]
  00f6f	e8 00 00 00 00	 call	 ??0CPoint@@QAE@XZ	; CPoint::CPoint

; 469  : 	GetCursorPos(&lPointCursor);

  00f74	8b f4		 mov	 esi, esp
  00f76	8d 45 f0	 lea	 eax, DWORD PTR _lPointCursor$[ebp]
  00f79	50		 push	 eax
  00f7a	ff 15 00 00 00
	00		 call	 DWORD PTR __imp__GetCursorPos@4
  00f80	3b f4		 cmp	 esi, esp
  00f82	e8 00 00 00 00	 call	 __RTC_CheckEsp

; 470  : 	ScreenToClient(&lPointCursor);

  00f87	8d 4d f0	 lea	 ecx, DWORD PTR _lPointCursor$[ebp]
  00f8a	51		 push	 ecx
  00f8b	8b 4d fc	 mov	 ecx, DWORD PTR _this$[ebp]
  00f8e	e8 00 00 00 00	 call	 ?ScreenToClient@CWnd@@QBEXPAUtagPOINT@@@Z ; CWnd::ScreenToClient

; 471  : 
; 472  : 	RECT lrcThumb = GetRect(HT_THUMB);

  00f93	6a 68		 push	 104			; 00000068H
  00f95	8d 55 d8	 lea	 edx, DWORD PTR _lrcThumb$[ebp]
  00f98	52		 push	 edx
  00f99	8b 4d fc	 mov	 ecx, DWORD PTR _this$[ebp]
  00f9c	e8 00 00 00 00	 call	 ?GetRect@CScrollBarEx@@AAE?AUtagRECT@@I@Z ; CScrollBarEx::GetRect

; 473  : 	CPoint lPointCenter;

  00fa1	8d 4d c8	 lea	 ecx, DWORD PTR _lPointCenter$[ebp]
  00fa4	e8 00 00 00 00	 call	 ??0CPoint@@QAE@XZ	; CPoint::CPoint

; 474  : 
; 475  : 	int liMaxTimes = mScrollInfo.nPage;

  00fa9	8b 45 fc	 mov	 eax, DWORD PTR _this$[ebp]
  00fac	8b 48 74	 mov	 ecx, DWORD PTR [eax+116]
  00faf	89 4d c0	 mov	 DWORD PTR _liMaxTimes$[ebp], ecx

; 476  : 	int liTimes = 0;

  00fb2	c7 45 bc 00 00
	00 00		 mov	 DWORD PTR _liTimes$[ebp], 0

; 477  : 	int liStep = 1;

  00fb9	c7 45 b8 01 00
	00 00		 mov	 DWORD PTR _liStep$[ebp], 1

; 478  : 	if (mScrollOrientation == esoVertical)

  00fc0	8b 55 fc	 mov	 edx, DWORD PTR _this$[ebp]
  00fc3	83 ba 80 00 00
	00 01		 cmp	 DWORD PTR [edx+128], 1
  00fca	0f 85 82 00 00
	00		 jne	 $L187762

; 479  : 	{
; 480  : 		lrcThumb = GetRect(HT_THUMB);

  00fd0	6a 68		 push	 104			; 00000068H
  00fd2	8d 45 a0	 lea	 eax, DWORD PTR $T188947[ebp]
  00fd5	50		 push	 eax
  00fd6	8b 4d fc	 mov	 ecx, DWORD PTR _this$[ebp]
  00fd9	e8 00 00 00 00	 call	 ?GetRect@CScrollBarEx@@AAE?AUtagRECT@@I@Z ; CScrollBarEx::GetRect
  00fde	8b 08		 mov	 ecx, DWORD PTR [eax]
  00fe0	89 4d d8	 mov	 DWORD PTR _lrcThumb$[ebp], ecx
  00fe3	8b 50 04	 mov	 edx, DWORD PTR [eax+4]
  00fe6	89 55 dc	 mov	 DWORD PTR _lrcThumb$[ebp+4], edx
  00fe9	8b 48 08	 mov	 ecx, DWORD PTR [eax+8]
  00fec	89 4d e0	 mov	 DWORD PTR _lrcThumb$[ebp+8], ecx
  00fef	8b 50 0c	 mov	 edx, DWORD PTR [eax+12]
  00ff2	89 55 e4	 mov	 DWORD PTR _lrcThumb$[ebp+12], edx

; 481  : 		lPointCenter.x = lrcThumb.left + (lrcThumb.right - lrcThumb.left) / 2;

  00ff5	8b 45 e0	 mov	 eax, DWORD PTR _lrcThumb$[ebp+8]
  00ff8	2b 45 d8	 sub	 eax, DWORD PTR _lrcThumb$[ebp]
  00ffb	99		 cdq
  00ffc	2b c2		 sub	 eax, edx
  00ffe	d1 f8		 sar	 eax, 1
  01000	03 45 d8	 add	 eax, DWORD PTR _lrcThumb$[ebp]
  01003	89 45 c8	 mov	 DWORD PTR _lPointCenter$[ebp], eax

; 482  : 		lPointCenter.y = lrcThumb.top + (lrcThumb.bottom - lrcThumb.top) / 2;

  01006	8b 45 e4	 mov	 eax, DWORD PTR _lrcThumb$[ebp+12]
  01009	2b 45 dc	 sub	 eax, DWORD PTR _lrcThumb$[ebp+4]
  0100c	99		 cdq
  0100d	2b c2		 sub	 eax, edx
  0100f	d1 f8		 sar	 eax, 1
  01011	03 45 dc	 add	 eax, DWORD PTR _lrcThumb$[ebp+4]
  01014	89 45 cc	 mov	 DWORD PTR _lPointCenter$[ebp+4], eax

; 483  : 
; 484  : 		BOOL bDirDown = lPointCursor.y > lPointCenter.y;

  01017	8b 45 f4	 mov	 eax, DWORD PTR _lPointCursor$[ebp+4]
  0101a	33 c9		 xor	 ecx, ecx
  0101c	3b 45 cc	 cmp	 eax, DWORD PTR _lPointCenter$[ebp+4]
  0101f	0f 9f c1	 setg	 cl
  01022	89 4d b4	 mov	 DWORD PTR _bDirDown$187764[ebp], ecx

; 485  : 		NotifyControlWnd(WM_VSCROLL, (int)MAKEWPARAM(bDirDown?SB_PAGEDOWN:SB_PAGEUP, 0));

  01025	33 d2		 xor	 edx, edx
  01027	83 7d b4 00	 cmp	 DWORD PTR _bDirDown$187764[ebp], 0
  0102b	0f 95 c2	 setne	 dl
  0102e	83 c2 02	 add	 edx, 2
  01031	81 e2 ff ff 00
	00		 and	 edx, 65535		; 0000ffffH
  01037	0f b7 c2	 movzx	 eax, dx
  0103a	50		 push	 eax
  0103b	68 15 01 00 00	 push	 277			; 00000115H
  01040	8b 4d fc	 mov	 ecx, DWORD PTR _this$[ebp]
  01043	e8 00 00 00 00	 call	 ?NotifyControlWnd@CScrollBarEx@@AAEXIH@Z ; CScrollBarEx::NotifyControlWnd

; 486  : 		UpdateScrollBar();

  01048	8b 4d fc	 mov	 ecx, DWORD PTR _this$[ebp]
  0104b	e8 00 00 00 00	 call	 ?UpdateScrollBar@CScrollBarEx@@QAEXXZ ; CScrollBarEx::UpdateScrollBar

; 487  : 	}
; 488  : 	else//移动下面的滑块

  01050	eb 7f		 jmp	 SHORT $L187754
$L187762:

; 489  : 	{
; 490  : 
; 491  : 		lrcThumb = GetRect(HT_THUMB);

  01052	6a 68		 push	 104			; 00000068H
  01054	8d 4d 90	 lea	 ecx, DWORD PTR $T188948[ebp]
  01057	51		 push	 ecx
  01058	8b 4d fc	 mov	 ecx, DWORD PTR _this$[ebp]
  0105b	e8 00 00 00 00	 call	 ?GetRect@CScrollBarEx@@AAE?AUtagRECT@@I@Z ; CScrollBarEx::GetRect
  01060	8b 10		 mov	 edx, DWORD PTR [eax]
  01062	89 55 d8	 mov	 DWORD PTR _lrcThumb$[ebp], edx
  01065	8b 48 04	 mov	 ecx, DWORD PTR [eax+4]
  01068	89 4d dc	 mov	 DWORD PTR _lrcThumb$[ebp+4], ecx
  0106b	8b 50 08	 mov	 edx, DWORD PTR [eax+8]
  0106e	89 55 e0	 mov	 DWORD PTR _lrcThumb$[ebp+8], edx
  01071	8b 40 0c	 mov	 eax, DWORD PTR [eax+12]
  01074	89 45 e4	 mov	 DWORD PTR _lrcThumb$[ebp+12], eax

; 492  : 		lPointCenter.x = lrcThumb.left + (lrcThumb.right - lrcThumb.left) / 2;

  01077	8b 45 e0	 mov	 eax, DWORD PTR _lrcThumb$[ebp+8]
  0107a	2b 45 d8	 sub	 eax, DWORD PTR _lrcThumb$[ebp]
  0107d	99		 cdq
  0107e	2b c2		 sub	 eax, edx
  01080	d1 f8		 sar	 eax, 1
  01082	03 45 d8	 add	 eax, DWORD PTR _lrcThumb$[ebp]
  01085	89 45 c8	 mov	 DWORD PTR _lPointCenter$[ebp], eax

; 493  : 		lPointCenter.y = lrcThumb.top + (lrcThumb.bottom - lrcThumb.top) / 2;

  01088	8b 45 e4	 mov	 eax, DWORD PTR _lrcThumb$[ebp+12]
  0108b	2b 45 dc	 sub	 eax, DWORD PTR _lrcThumb$[ebp+4]
  0108e	99		 cdq
  0108f	2b c2		 sub	 eax, edx
  01091	d1 f8		 sar	 eax, 1
  01093	03 45 dc	 add	 eax, DWORD PTR _lrcThumb$[ebp+4]
  01096	89 45 cc	 mov	 DWORD PTR _lPointCenter$[ebp+4], eax

; 494  : 
; 495  : 		BOOL bDirDown = lPointCursor.x > lPointCenter.x;

  01099	8b 4d f0	 mov	 ecx, DWORD PTR _lPointCursor$[ebp]
  0109c	33 d2		 xor	 edx, edx
  0109e	3b 4d c8	 cmp	 ecx, DWORD PTR _lPointCenter$[ebp]
  010a1	0f 9f c2	 setg	 dl
  010a4	89 55 b0	 mov	 DWORD PTR _bDirDown$187776[ebp], edx

; 496  : 		//
; 497  : 		NotifyControlWnd(WM_HSCROLL, (int)MAKEWPARAM(bDirDown?SB_PAGEDOWN:SB_PAGEUP, 0));

  010a7	33 c0		 xor	 eax, eax
  010a9	83 7d b0 00	 cmp	 DWORD PTR _bDirDown$187776[ebp], 0
  010ad	0f 95 c0	 setne	 al
  010b0	83 c0 02	 add	 eax, 2
  010b3	25 ff ff 00 00	 and	 eax, 65535		; 0000ffffH
  010b8	0f b7 c8	 movzx	 ecx, ax
  010bb	51		 push	 ecx
  010bc	68 14 01 00 00	 push	 276			; 00000114H
  010c1	8b 4d fc	 mov	 ecx, DWORD PTR _this$[ebp]
  010c4	e8 00 00 00 00	 call	 ?NotifyControlWnd@CScrollBarEx@@AAEXIH@Z ; CScrollBarEx::NotifyControlWnd

; 498  : 		UpdateScrollBar();

  010c9	8b 4d fc	 mov	 ecx, DWORD PTR _this$[ebp]
  010cc	e8 00 00 00 00	 call	 ?UpdateScrollBar@CScrollBarEx@@QAEXXZ ; CScrollBarEx::UpdateScrollBar
$L187754:

; 499  : 	}
; 500  : }

  010d1	52		 push	 edx
  010d2	8b cd		 mov	 ecx, ebp
  010d4	50		 push	 eax
  010d5	8d 15 00 00 00
	00		 lea	 edx, DWORD PTR $L188953
  010db	e8 00 00 00 00	 call	 @_RTC_CheckStackVars@8
  010e0	58		 pop	 eax
  010e1	5a		 pop	 edx
  010e2	5f		 pop	 edi
  010e3	5e		 pop	 esi
  010e4	83 c4 70	 add	 esp, 112		; 00000070H
  010e7	3b ec		 cmp	 ebp, esp
  010e9	e8 00 00 00 00	 call	 __RTC_CheckEsp
  010ee	8b e5		 mov	 esp, ebp
  010f0	5d		 pop	 ebp
  010f1	c3		 ret	 0
$L188953:
  010f2	03 00 00 00	 DD	 3
  010f6	00 00 00 00	 DD	 $L188952
$L188952:
  010fa	f0 ff ff ff	 DD	 -16			; fffffff0H
  010fe	08 00 00 00	 DD	 8
  01102	00 00 00 00	 DD	 $L188949
  01106	d8 ff ff ff	 DD	 -40			; ffffffd8H
  0110a	10 00 00 00	 DD	 16			; 00000010H
  0110e	00 00 00 00	 DD	 $L188950
  01112	c8 ff ff ff	 DD	 -56			; ffffffc8H
  01116	08 00 00 00	 DD	 8
  0111a	00 00 00 00	 DD	 $L188951
$L188951:
  0111e	6c		 DB	 108			; 0000006cH
  0111f	50		 DB	 80			; 00000050H
  01120	6f		 DB	 111			; 0000006fH
  01121	69		 DB	 105			; 00000069H
  01122	6e		 DB	 110			; 0000006eH
  01123	74		 DB	 116			; 00000074H
  01124	43		 DB	 67			; 00000043H
  01125	65		 DB	 101			; 00000065H
  01126	6e		 DB	 110			; 0000006eH
  01127	74		 DB	 116			; 00000074H
  01128	65		 DB	 101			; 00000065H
  01129	72		 DB	 114			; 00000072H
  0112a	00		 DB	 0
$L188950:
  0112b	6c		 DB	 108			; 0000006cH
  0112c	72		 DB	 114			; 00000072H
  0112d	63		 DB	 99			; 00000063H
  0112e	54		 DB	 84			; 00000054H
  0112f	68		 DB	 104			; 00000068H
  01130	75		 DB	 117			; 00000075H
  01131	6d		 DB	 109			; 0000006dH
  01132	62		 DB	 98			; 00000062H
  01133	00		 DB	 0
$L188949:
  01134	6c		 DB	 108			; 0000006cH
  01135	50		 DB	 80			; 00000050H
  01136	6f		 DB	 111			; 0000006fH
  01137	69		 DB	 105			; 00000069H
  01138	6e		 DB	 110			; 0000006eH
  01139	74		 DB	 116			; 00000074H
  0113a	43		 DB	 67			; 00000043H
  0113b	75		 DB	 117			; 00000075H
  0113c	72		 DB	 114			; 00000072H
  0113d	73		 DB	 115			; 00000073H
  0113e	6f		 DB	 111			; 0000006fH
  0113f	72		 DB	 114			; 00000072H
  01140	00		 DB	 0
?TrackSpace@CScrollBarEx@@AAEXXZ ENDP			; CScrollBarEx::TrackSpace
_TEXT	ENDS
PUBLIC	?InterlockedExchangePointer@@YGPAXPAPAXPAX@Z	; InterlockedExchangePointer
PUBLIC	?_AtlGetThreadACPFake@ATL@@YGIXZ		; ATL::_AtlGetThreadACPFake
PUBLIC	?_AtlGetThreadACPReal@ATL@@YGIXZ		; ATL::_AtlGetThreadACPReal
EXTRN	__imp__GetVersionExA@4:NEAR
; Function compile flags: /Odt /RTCsu
; File d:\program files (x86)\microsoft visual studio .net 2003\vc7\atlmfc\include\atlconv.h
;	COMDAT ?_AtlGetThreadACPThunk@ATL@@YGIXZ
_TEXT	SEGMENT
_pfnGetThreadACP$ = -164				; size = 4
_ver$ = -156						; size = 148
__$ArrayPad$ = -4					; size = 4
__$ReturnAddr$ = 4					; size = 4
?_AtlGetThreadACPThunk@ATL@@YGIXZ PROC NEAR		; ATL::_AtlGetThreadACPThunk, COMDAT

; 134  : {

  00000	55		 push	 ebp
  00001	8b ec		 mov	 ebp, esp
  00003	81 ec a4 00 00
	00		 sub	 esp, 164		; 000000a4H
  00009	56		 push	 esi
  0000a	57		 push	 edi
  0000b	8d bd 5c ff ff
	ff		 lea	 edi, DWORD PTR [ebp-164]
  00011	b9 29 00 00 00	 mov	 ecx, 41			; 00000029H
  00016	b8 cc cc cc cc	 mov	 eax, -858993460		; ccccccccH
  0001b	f3 ab		 rep stosd
  0001d	a1 00 00 00 00	 mov	 eax, DWORD PTR ___security_cookie
  00022	89 45 fc	 mov	 DWORD PTR __$ArrayPad$[ebp], eax

; 135  : 	OSVERSIONINFO ver;
; 136  : 	ATLGETTHREADACP pfnGetThreadACP;
; 137  : 
; 138  : 	ver.dwOSVersionInfoSize = sizeof( ver );

  00025	c7 85 64 ff ff
	ff 94 00 00 00	 mov	 DWORD PTR _ver$[ebp], 148 ; 00000094H

; 139  : 	::GetVersionEx( &ver );

  0002f	8b f4		 mov	 esi, esp
  00031	8d 85 64 ff ff
	ff		 lea	 eax, DWORD PTR _ver$[ebp]
  00037	50		 push	 eax
  00038	ff 15 00 00 00
	00		 call	 DWORD PTR __imp__GetVersionExA@4
  0003e	3b f4		 cmp	 esi, esp
  00040	e8 00 00 00 00	 call	 __RTC_CheckEsp

; 140  : 	if( (ver.dwPlatformId == VER_PLATFORM_WIN32_NT) && (ver.dwMajorVersion >= 5) )

  00045	83 bd 74 ff ff
	ff 02		 cmp	 DWORD PTR _ver$[ebp+16], 2
  0004c	75 15		 jne	 SHORT $L24163
  0004e	83 bd 68 ff ff
	ff 05		 cmp	 DWORD PTR _ver$[ebp+4], 5
  00055	72 0c		 jb	 SHORT $L24163

; 141  : 	{
; 142  : 		// On Win2K, CP_THREAD_ACP is supported
; 143  : 		pfnGetThreadACP = _AtlGetThreadACPReal;

  00057	c7 85 5c ff ff
	ff 00 00 00 00	 mov	 DWORD PTR _pfnGetThreadACP$[ebp], OFFSET FLAT:?_AtlGetThreadACPReal@ATL@@YGIXZ ; ATL::_AtlGetThreadACPReal

; 144  : 	}
; 145  : 	else

  00061	eb 0a		 jmp	 SHORT $L24164
$L24163:

; 146  : 	{
; 147  : 		pfnGetThreadACP = _AtlGetThreadACPFake;

  00063	c7 85 5c ff ff
	ff 00 00 00 00	 mov	 DWORD PTR _pfnGetThreadACP$[ebp], OFFSET FLAT:?_AtlGetThreadACPFake@ATL@@YGIXZ ; ATL::_AtlGetThreadACPFake
$L24164:

; 148  : 	}
; 149  : 	InterlockedExchangePointer( reinterpret_cast< void** >(&g_pfnGetThreadACP), pfnGetThreadACP );

  0006d	8b 8d 5c ff ff
	ff		 mov	 ecx, DWORD PTR _pfnGetThreadACP$[ebp]
  00073	51		 push	 ecx
  00074	68 00 00 00 00	 push	 OFFSET FLAT:?g_pfnGetThreadACP@ATL@@3P6GIXZA ; ATL::g_pfnGetThreadACP
  00079	e8 00 00 00 00	 call	 ?InterlockedExchangePointer@@YGPAXPAPAXPAX@Z ; InterlockedExchangePointer

; 150  : 
; 151  : 	return( g_pfnGetThreadACP() );

  0007e	8b f4		 mov	 esi, esp
  00080	ff 15 00 00 00
	00		 call	 DWORD PTR ?g_pfnGetThreadACP@ATL@@3P6GIXZA ; ATL::g_pfnGetThreadACP
  00086	3b f4		 cmp	 esi, esp
  00088	e8 00 00 00 00	 call	 __RTC_CheckEsp

; 152  : }

  0008d	52		 push	 edx
  0008e	8b cd		 mov	 ecx, ebp
  00090	50		 push	 eax
  00091	8d 15 00 00 00
	00		 lea	 edx, DWORD PTR $L188959
  00097	e8 00 00 00 00	 call	 @_RTC_CheckStackVars@8
  0009c	58		 pop	 eax
  0009d	5a		 pop	 edx
  0009e	8b 4d fc	 mov	 ecx, DWORD PTR __$ArrayPad$[ebp]
  000a1	e8 00 00 00 00	 call	 @__security_check_cookie@4
  000a6	5f		 pop	 edi
  000a7	5e		 pop	 esi
  000a8	81 c4 a4 00 00
	00		 add	 esp, 164		; 000000a4H
  000ae	3b ec		 cmp	 ebp, esp
  000b0	e8 00 00 00 00	 call	 __RTC_CheckEsp
  000b5	8b e5		 mov	 esp, ebp
  000b7	5d		 pop	 ebp
  000b8	c3		 ret	 0
$L188959:
  000b9	01 00 00 00	 DD	 1
  000bd	00 00 00 00	 DD	 $L188958
$L188958:
  000c1	64 ff ff ff	 DD	 -156			; ffffff64H
  000c5	94 00 00 00	 DD	 148			; 00000094H
  000c9	00 00 00 00	 DD	 $L188956
$L188956:
  000cd	76		 DB	 118			; 00000076H
  000ce	65		 DB	 101			; 00000065H
  000cf	72		 DB	 114			; 00000072H
  000d0	00		 DB	 0
?_AtlGetThreadACPThunk@ATL@@YGIXZ ENDP			; ATL::_AtlGetThreadACPThunk
_TEXT	ENDS
EXTRN	__imp__InterlockedExchange@8:NEAR
; Function compile flags: /Odt /RTCsu
;	COMDAT ?InterlockedExchangePointer@@YGPAXPAPAXPAX@Z
_TEXT	SEGMENT
_pp$ = 8						; size = 4
_pNew$ = 12						; size = 4
?InterlockedExchangePointer@@YGPAXPAPAXPAX@Z PROC NEAR	; InterlockedExchangePointer, COMDAT

; 91   : {

  00000	55		 push	 ebp
  00001	8b ec		 mov	 ebp, esp
  00003	56		 push	 esi

; 92   : 	return( reinterpret_cast<void*>(static_cast<LONG_PTR>(::InterlockedExchange(reinterpret_cast<LONG*>(pp), static_cast<LONG>(reinterpret_cast<LONG_PTR>(pNew))))) );

  00004	8b f4		 mov	 esi, esp
  00006	8b 45 0c	 mov	 eax, DWORD PTR _pNew$[ebp]
  00009	50		 push	 eax
  0000a	8b 4d 08	 mov	 ecx, DWORD PTR _pp$[ebp]
  0000d	51		 push	 ecx
  0000e	ff 15 00 00 00
	00		 call	 DWORD PTR __imp__InterlockedExchange@8
  00014	3b f4		 cmp	 esi, esp
  00016	e8 00 00 00 00	 call	 __RTC_CheckEsp

; 93   : }

  0001b	5e		 pop	 esi
  0001c	3b ec		 cmp	 ebp, esp
  0001e	e8 00 00 00 00	 call	 __RTC_CheckEsp
  00023	5d		 pop	 ebp
  00024	c2 08 00	 ret	 8
?InterlockedExchangePointer@@YGPAXPAPAXPAX@Z ENDP	; InterlockedExchangePointer
_TEXT	ENDS
EXTRN	__imp__GetACP@0:NEAR
EXTRN	__imp__GetLocaleInfoA@16:NEAR
EXTRN	__imp__GetThreadLocale@0:NEAR
; Function compile flags: /Odt /RTCsu
;	COMDAT ?_AtlGetThreadACPFake@ATL@@YGIXZ
_TEXT	SEGMENT
_pch$24151 = -32					; size = 4
_szACP$ = -24						; size = 7
_lcidThread$ = -12					; size = 4
_nACP$ = -8						; size = 4
__$ArrayPad$ = -4					; size = 4
__$ReturnAddr$ = 4					; size = 4
?_AtlGetThreadACPFake@ATL@@YGIXZ PROC NEAR		; ATL::_AtlGetThreadACPFake, COMDAT

; 101  : {

  00000	55		 push	 ebp
  00001	8b ec		 mov	 ebp, esp
  00003	83 ec 20	 sub	 esp, 32			; 00000020H
  00006	56		 push	 esi
  00007	b8 cc cc cc cc	 mov	 eax, -858993460		; ccccccccH
  0000c	89 45 e0	 mov	 DWORD PTR [ebp-32], eax
  0000f	89 45 e4	 mov	 DWORD PTR [ebp-28], eax
  00012	89 45 e8	 mov	 DWORD PTR [ebp-24], eax
  00015	89 45 ec	 mov	 DWORD PTR [ebp-20], eax
  00018	89 45 f0	 mov	 DWORD PTR [ebp-16], eax
  0001b	89 45 f4	 mov	 DWORD PTR [ebp-12], eax
  0001e	89 45 f8	 mov	 DWORD PTR [ebp-8], eax
  00021	89 45 fc	 mov	 DWORD PTR [ebp-4], eax
  00024	a1 00 00 00 00	 mov	 eax, DWORD PTR ___security_cookie
  00029	89 45 fc	 mov	 DWORD PTR __$ArrayPad$[ebp], eax

; 102  : 	UINT nACP = 0;

  0002c	c7 45 f8 00 00
	00 00		 mov	 DWORD PTR _nACP$[ebp], 0

; 103  : 
; 104  : 	LCID lcidThread = ::GetThreadLocale();

  00033	8b f4		 mov	 esi, esp
  00035	ff 15 00 00 00
	00		 call	 DWORD PTR __imp__GetThreadLocale@0
  0003b	3b f4		 cmp	 esi, esp
  0003d	e8 00 00 00 00	 call	 __RTC_CheckEsp
  00042	89 45 f4	 mov	 DWORD PTR _lcidThread$[ebp], eax

; 105  : 
; 106  : 	char szACP[7];
; 107  : 	// GetLocaleInfoA will fail for a Unicode-only LCID, but those are only supported on 
; 108  : 	// Windows 2000.  Since Windows 2000 supports CP_THREAD_ACP, this code path is never
; 109  : 	// executed on Windows 2000.
; 110  : 	if (::GetLocaleInfoA(lcidThread, LOCALE_IDEFAULTANSICODEPAGE, szACP, 7) != 0)

  00045	8b f4		 mov	 esi, esp
  00047	6a 07		 push	 7
  00049	8d 45 e8	 lea	 eax, DWORD PTR _szACP$[ebp]
  0004c	50		 push	 eax
  0004d	68 04 10 00 00	 push	 4100			; 00001004H
  00052	8b 4d f4	 mov	 ecx, DWORD PTR _lcidThread$[ebp]
  00055	51		 push	 ecx
  00056	ff 15 00 00 00
	00		 call	 DWORD PTR __imp__GetLocaleInfoA@16
  0005c	3b f4		 cmp	 esi, esp
  0005e	e8 00 00 00 00	 call	 __RTC_CheckEsp
  00063	85 c0		 test	 eax, eax
  00065	74 34		 je	 SHORT $L24150

; 111  : 	{
; 112  : 		char* pch = szACP;

  00067	8d 55 e8	 lea	 edx, DWORD PTR _szACP$[ebp]
  0006a	89 55 e0	 mov	 DWORD PTR _pch$24151[ebp], edx
$L24153:

; 113  : 		while (*pch != '\0')

  0006d	8b 45 e0	 mov	 eax, DWORD PTR _pch$24151[ebp]
  00070	0f be 08	 movsx	 ecx, BYTE PTR [eax]
  00073	85 c9		 test	 ecx, ecx
  00075	74 24		 je	 SHORT $L24150

; 114  : 		{
; 115  : 			nACP *= 10;

  00077	8b 55 f8	 mov	 edx, DWORD PTR _nACP$[ebp]
  0007a	6b d2 0a	 imul	 edx, 10			; 0000000aH
  0007d	89 55 f8	 mov	 DWORD PTR _nACP$[ebp], edx

; 116  : 			nACP += *pch++ - '0';

  00080	8b 45 e0	 mov	 eax, DWORD PTR _pch$24151[ebp]
  00083	0f be 08	 movsx	 ecx, BYTE PTR [eax]
  00086	8b 55 f8	 mov	 edx, DWORD PTR _nACP$[ebp]
  00089	8d 44 0a d0	 lea	 eax, DWORD PTR [edx+ecx-48]
  0008d	89 45 f8	 mov	 DWORD PTR _nACP$[ebp], eax
  00090	8b 4d e0	 mov	 ecx, DWORD PTR _pch$24151[ebp]
  00093	83 c1 01	 add	 ecx, 1
  00096	89 4d e0	 mov	 DWORD PTR _pch$24151[ebp], ecx

; 117  : 		}

  00099	eb d2		 jmp	 SHORT $L24153
$L24150:

; 118  : 	}
; 119  : 	// Use the Default ANSI Code Page if we were unable to get the thread ACP or if one does not exist.
; 120  : 	if (nACP == 0)

  0009b	83 7d f8 00	 cmp	 DWORD PTR _nACP$[ebp], 0
  0009f	75 12		 jne	 SHORT $L24155

; 121  : 		nACP = ::GetACP();

  000a1	8b f4		 mov	 esi, esp
  000a3	ff 15 00 00 00
	00		 call	 DWORD PTR __imp__GetACP@0
  000a9	3b f4		 cmp	 esi, esp
  000ab	e8 00 00 00 00	 call	 __RTC_CheckEsp
  000b0	89 45 f8	 mov	 DWORD PTR _nACP$[ebp], eax
$L24155:

; 122  : 
; 123  : 	return nACP;

  000b3	8b 45 f8	 mov	 eax, DWORD PTR _nACP$[ebp]

; 124  : }

  000b6	52		 push	 edx
  000b7	8b cd		 mov	 ecx, ebp
  000b9	50		 push	 eax
  000ba	8d 15 00 00 00
	00		 lea	 edx, DWORD PTR $L188966
  000c0	e8 00 00 00 00	 call	 @_RTC_CheckStackVars@8
  000c5	58		 pop	 eax
  000c6	5a		 pop	 edx
  000c7	8b 4d fc	 mov	 ecx, DWORD PTR __$ArrayPad$[ebp]
  000ca	e8 00 00 00 00	 call	 @__security_check_cookie@4
  000cf	5e		 pop	 esi
  000d0	83 c4 20	 add	 esp, 32			; 00000020H
  000d3	3b ec		 cmp	 ebp, esp
  000d5	e8 00 00 00 00	 call	 __RTC_CheckEsp
  000da	8b e5		 mov	 esp, ebp
  000dc	5d		 pop	 ebp
  000dd	c3		 ret	 0
$L188966:
  000de	01 00 00 00	 DD	 1
  000e2	00 00 00 00	 DD	 $L188965
$L188965:
  000e6	e8 ff ff ff	 DD	 -24			; ffffffe8H
  000ea	07 00 00 00	 DD	 7
  000ee	00 00 00 00	 DD	 $L188963
$L188963:
  000f2	73		 DB	 115			; 00000073H
  000f3	7a		 DB	 122			; 0000007aH
  000f4	41		 DB	 65			; 00000041H
  000f5	43		 DB	 67			; 00000043H
  000f6	50		 DB	 80			; 00000050H
  000f7	00		 DB	 0
?_AtlGetThreadACPFake@ATL@@YGIXZ ENDP			; ATL::_AtlGetThreadACPFake
; Function compile flags: /Odt /RTCsu
_TEXT	ENDS
;	COMDAT ?_AtlGetThreadACPReal@ATL@@YGIXZ
_TEXT	SEGMENT
?_AtlGetThreadACPReal@ATL@@YGIXZ PROC NEAR		; ATL::_AtlGetThreadACPReal, COMDAT

; 127  : {

  00000	55		 push	 ebp
  00001	8b ec		 mov	 ebp, esp

; 128  : 	return( CP_THREAD_ACP );

  00003	b8 03 00 00 00	 mov	 eax, 3

; 129  : }

  00008	5d		 pop	 ebp
  00009	c3		 ret	 0
?_AtlGetThreadACPReal@ATL@@YGIXZ ENDP			; ATL::_AtlGetThreadACPReal
; Function compile flags: /Odt /RTCsu
; File d:\boxgit\playbox\playbox\dev\prj\playbox\src\layoutmgr\changecolor\scrollbarex.cpp
_TEXT	ENDS
_TEXT	SEGMENT
_liValue$187840 = -76					; size = 4
_liHitTest$187838 = -72					; size = 4
_bDirDown$187816 = -68					; size = 4
_lrcThumb$187814 = -60					; size = 16
_lPointCenter$187813 = -36				; size = 8
_lPointCursor$187812 = -20				; size = 8
_liHitTest$187791 = -8					; size = 4
_this$ = -4						; size = 4
_aiIDEvent$ = 8						; size = 4
?OnTimer@CScrollBarEx@@IAEXI@Z PROC NEAR		; CScrollBarEx::OnTimer
; _this$ = ecx

; 503  : {

  01150	55		 push	 ebp
  01151	8b ec		 mov	 ebp, esp
  01153	83 ec 4c	 sub	 esp, 76			; 0000004cH
  01156	56		 push	 esi
  01157	57		 push	 edi
  01158	51		 push	 ecx
  01159	8d 7d b4	 lea	 edi, DWORD PTR [ebp-76]
  0115c	b9 13 00 00 00	 mov	 ecx, 19			; 00000013H
  01161	b8 cc cc cc cc	 mov	 eax, -858993460		; ccccccccH
  01166	f3 ab		 rep stosd
  01168	59		 pop	 ecx
  01169	89 4d fc	 mov	 DWORD PTR _this$[ebp], ecx

; 504  : 	if (aiIDEvent == 102)

  0116c	83 7d 08 66	 cmp	 DWORD PTR _aiIDEvent$[ebp], 102 ; 00000066H
  01170	0f 85 db 00 00
	00		 jne	 $L187790

; 505  : 	{
; 506  : 		UINT liHitTest = HitTest();

  01176	8b 4d fc	 mov	 ecx, DWORD PTR _this$[ebp]
  01179	e8 00 00 00 00	 call	 ?HitTest@CScrollBarEx@@AAEIXZ ; CScrollBarEx::HitTest
  0117e	89 45 f8	 mov	 DWORD PTR _liHitTest$187791[ebp], eax

; 507  : 		if (miLButtonDownHitTest == liHitTest)

  01181	8b 45 fc	 mov	 eax, DWORD PTR _this$[ebp]
  01184	8b 88 a4 00 00
	00		 mov	 ecx, DWORD PTR [eax+164]
  0118a	3b 4d f8	 cmp	 ecx, DWORD PTR _liHitTest$187791[ebp]
  0118d	0f 85 be 00 00
	00		 jne	 $L187790

; 508  : 		{
; 509  : 			if(liHitTest == HT_DOWNARROW)

  01193	83 7d f8 65	 cmp	 DWORD PTR _liHitTest$187791[ebp], 101 ; 00000065H
  01197	75 0f		 jne	 SHORT $L187793

; 510  : 			{
; 511  : 				NotifyControlWnd(WM_VSCROLL, MAKEWPARAM(SB_LINEDOWN, 0));

  01199	6a 01		 push	 1
  0119b	68 15 01 00 00	 push	 277			; 00000115H
  011a0	8b 4d fc	 mov	 ecx, DWORD PTR _this$[ebp]
  011a3	e8 00 00 00 00	 call	 ?NotifyControlWnd@CScrollBarEx@@AAEXIH@Z ; CScrollBarEx::NotifyControlWnd
$L187793:

; 512  : 			}
; 513  : 			if (liHitTest == HT_UPARROW)

  011a8	83 7d f8 64	 cmp	 DWORD PTR _liHitTest$187791[ebp], 100 ; 00000064H
  011ac	75 0f		 jne	 SHORT $L187802

; 514  : 			{
; 515  : 				NotifyControlWnd(WM_VSCROLL, MAKEWPARAM(SB_LINEUP, 0));

  011ae	6a 00		 push	 0
  011b0	68 15 01 00 00	 push	 277			; 00000115H
  011b5	8b 4d fc	 mov	 ecx, DWORD PTR _this$[ebp]
  011b8	e8 00 00 00 00	 call	 ?NotifyControlWnd@CScrollBarEx@@AAEXIH@Z ; CScrollBarEx::NotifyControlWnd
$L187802:

; 516  : 			}
; 517  : 			if(liHitTest == HT_THUMB_SPACE)

  011bd	83 7d f8 69	 cmp	 DWORD PTR _liHitTest$187791[ebp], 105 ; 00000069H
  011c1	0f 85 8a 00 00
	00		 jne	 $L187790

; 518  : 			{
; 519  : 				CPoint lPointCursor;

  011c7	8d 4d ec	 lea	 ecx, DWORD PTR _lPointCursor$187812[ebp]
  011ca	e8 00 00 00 00	 call	 ??0CPoint@@QAE@XZ	; CPoint::CPoint

; 520  : 				CPoint lPointCenter;

  011cf	8d 4d dc	 lea	 ecx, DWORD PTR _lPointCenter$187813[ebp]
  011d2	e8 00 00 00 00	 call	 ??0CPoint@@QAE@XZ	; CPoint::CPoint

; 521  : 
; 522  : 				GetCursorPos(&lPointCursor);

  011d7	8b f4		 mov	 esi, esp
  011d9	8d 55 ec	 lea	 edx, DWORD PTR _lPointCursor$187812[ebp]
  011dc	52		 push	 edx
  011dd	ff 15 00 00 00
	00		 call	 DWORD PTR __imp__GetCursorPos@4
  011e3	3b f4		 cmp	 esi, esp
  011e5	e8 00 00 00 00	 call	 __RTC_CheckEsp

; 523  : 				ScreenToClient(&lPointCursor);

  011ea	8d 45 ec	 lea	 eax, DWORD PTR _lPointCursor$187812[ebp]
  011ed	50		 push	 eax
  011ee	8b 4d fc	 mov	 ecx, DWORD PTR _this$[ebp]
  011f1	e8 00 00 00 00	 call	 ?ScreenToClient@CWnd@@QBEXPAUtagPOINT@@@Z ; CWnd::ScreenToClient

; 524  : 
; 525  : 				RECT lrcThumb = GetRect(HT_THUMB);

  011f6	6a 68		 push	 104			; 00000068H
  011f8	8d 4d c4	 lea	 ecx, DWORD PTR _lrcThumb$187814[ebp]
  011fb	51		 push	 ecx
  011fc	8b 4d fc	 mov	 ecx, DWORD PTR _this$[ebp]
  011ff	e8 00 00 00 00	 call	 ?GetRect@CScrollBarEx@@AAE?AUtagRECT@@I@Z ; CScrollBarEx::GetRect

; 526  : 				lPointCenter.y = lrcThumb.top +  (lrcThumb.bottom - lrcThumb.top) / 2;

  01204	8b 45 d0	 mov	 eax, DWORD PTR _lrcThumb$187814[ebp+12]
  01207	2b 45 c8	 sub	 eax, DWORD PTR _lrcThumb$187814[ebp+4]
  0120a	99		 cdq
  0120b	2b c2		 sub	 eax, edx
  0120d	d1 f8		 sar	 eax, 1
  0120f	03 45 c8	 add	 eax, DWORD PTR _lrcThumb$187814[ebp+4]
  01212	89 45 e0	 mov	 DWORD PTR _lPointCenter$187813[ebp+4], eax

; 527  : 
; 528  : 				BOOL bDirDown = lPointCursor.y > lPointCenter.y;

  01215	8b 55 f0	 mov	 edx, DWORD PTR _lPointCursor$187812[ebp+4]
  01218	33 c0		 xor	 eax, eax
  0121a	3b 55 e0	 cmp	 edx, DWORD PTR _lPointCenter$187813[ebp+4]
  0121d	0f 9f c0	 setg	 al
  01220	89 45 bc	 mov	 DWORD PTR _bDirDown$187816[ebp], eax

; 529  : 				if(lPointCursor.y > lPointCenter.y)

  01223	8b 4d f0	 mov	 ecx, DWORD PTR _lPointCursor$187812[ebp+4]
  01226	3b 4d e0	 cmp	 ecx, DWORD PTR _lPointCenter$187813[ebp+4]
  01229	7e 0f		 jle	 SHORT $L187817

; 530  : 				{
; 531  : 					NotifyControlWnd(WM_VSCROLL, (int)MAKEWPARAM(SB_PAGEDOWN, 0));

  0122b	6a 03		 push	 3
  0122d	68 15 01 00 00	 push	 277			; 00000115H
  01232	8b 4d fc	 mov	 ecx, DWORD PTR _this$[ebp]
  01235	e8 00 00 00 00	 call	 ?NotifyControlWnd@CScrollBarEx@@AAEXIH@Z ; CScrollBarEx::NotifyControlWnd
$L187817:

; 532  : 				}
; 533  : 				if (lPointCursor.y < lPointCenter.y)

  0123a	8b 55 f0	 mov	 edx, DWORD PTR _lPointCursor$187812[ebp+4]
  0123d	3b 55 e0	 cmp	 edx, DWORD PTR _lPointCenter$187813[ebp+4]
  01240	7d 0f		 jge	 SHORT $L187790

; 534  : 				{
; 535  : 					NotifyControlWnd(WM_VSCROLL, (int)MAKEWPARAM(SB_PAGEUP, 0));

  01242	6a 02		 push	 2
  01244	68 15 01 00 00	 push	 277			; 00000115H
  01249	8b 4d fc	 mov	 ecx, DWORD PTR _this$[ebp]
  0124c	e8 00 00 00 00	 call	 ?NotifyControlWnd@CScrollBarEx@@AAEXIH@Z ; CScrollBarEx::NotifyControlWnd
$L187790:

; 536  : 				}
; 537  : 			}
; 538  : 		}
; 539  : 		
; 540  : 	}
; 541  : 	if (aiIDEvent == 101)

  01251	83 7d 08 65	 cmp	 DWORD PTR _aiIDEvent$[ebp], 101 ; 00000065H
  01255	0f 85 f8 00 00
	00		 jne	 $L187789

; 542  : 	{
; 543  : 		UINT liHitTest = HitTest();

  0125b	8b 4d fc	 mov	 ecx, DWORD PTR _this$[ebp]
  0125e	e8 00 00 00 00	 call	 ?HitTest@CScrollBarEx@@AAEIXZ ; CScrollBarEx::HitTest
  01263	89 45 b8	 mov	 DWORD PTR _liHitTest$187838[ebp], eax

; 544  : 		if (miLButtonDownHitTest == liHitTest)

  01266	8b 45 fc	 mov	 eax, DWORD PTR _this$[ebp]
  01269	8b 88 a4 00 00
	00		 mov	 ecx, DWORD PTR [eax+164]
  0126f	3b 4d b8	 cmp	 ecx, DWORD PTR _liHitTest$187838[ebp]
  01272	0f 85 db 00 00
	00		 jne	 $L187789

; 545  : 		{
; 546  : 			int liValue = SB_LINEDOWN;

  01278	c7 45 b4 01 00
	00 00		 mov	 DWORD PTR _liValue$187840[ebp], 1

; 547  : 
; 548  : 			if (mScrollOrientation == esoVertical)

  0127f	8b 55 fc	 mov	 edx, DWORD PTR _this$[ebp]
  01282	83 ba 80 00 00
	00 01		 cmp	 DWORD PTR [edx+128], 1
  01289	75 61		 jne	 SHORT $L187841

; 549  : 			{
; 550  : 				if (liHitTest == HT_UPARROW)

  0128b	83 7d b8 64	 cmp	 DWORD PTR _liHitTest$187838[ebp], 100 ; 00000064H
  0128f	75 22		 jne	 SHORT $L187842

; 551  : 				{
; 552  : 					liValue = SB_LINEUP;

  01291	c7 45 b4 00 00
	00 00		 mov	 DWORD PTR _liValue$187840[ebp], 0

; 553  : 					NotifyControlWnd(WM_VSCROLL, (int)MAKEWPARAM(liValue, 0));

  01298	8b 45 b4	 mov	 eax, DWORD PTR _liValue$187840[ebp]
  0129b	25 ff ff 00 00	 and	 eax, 65535		; 0000ffffH
  012a0	0f b7 c8	 movzx	 ecx, ax
  012a3	51		 push	 ecx
  012a4	68 15 01 00 00	 push	 277			; 00000115H
  012a9	8b 4d fc	 mov	 ecx, DWORD PTR _this$[ebp]
  012ac	e8 00 00 00 00	 call	 ?NotifyControlWnd@CScrollBarEx@@AAEXIH@Z ; CScrollBarEx::NotifyControlWnd

; 554  : 				}
; 555  : 				else if(liHitTest == HT_DOWNARROW)

  012b1	eb 37		 jmp	 SHORT $L187852
$L187842:
  012b3	83 7d b8 65	 cmp	 DWORD PTR _liHitTest$187838[ebp], 101 ; 00000065H
  012b7	75 23		 jne	 SHORT $L187853

; 556  : 				{
; 557  : 					liValue = SB_LINEDOWN;

  012b9	c7 45 b4 01 00
	00 00		 mov	 DWORD PTR _liValue$187840[ebp], 1

; 558  : 					NotifyControlWnd(WM_VSCROLL, (int)MAKEWPARAM(liValue, 0));

  012c0	8b 55 b4	 mov	 edx, DWORD PTR _liValue$187840[ebp]
  012c3	81 e2 ff ff 00
	00		 and	 edx, 65535		; 0000ffffH
  012c9	0f b7 c2	 movzx	 eax, dx
  012cc	50		 push	 eax
  012cd	68 15 01 00 00	 push	 277			; 00000115H
  012d2	8b 4d fc	 mov	 ecx, DWORD PTR _this$[ebp]
  012d5	e8 00 00 00 00	 call	 ?NotifyControlWnd@CScrollBarEx@@AAEXIH@Z ; CScrollBarEx::NotifyControlWnd

; 559  : 				}
; 560  : 				else if(liHitTest == HT_THUMB_SPACE)

  012da	eb 0e		 jmp	 SHORT $L187852
$L187853:
  012dc	83 7d b8 69	 cmp	 DWORD PTR _liHitTest$187838[ebp], 105 ; 00000069H
  012e0	75 08		 jne	 SHORT $L187852

; 561  : 				{
; 562  : 					TrackSpace();

  012e2	8b 4d fc	 mov	 ecx, DWORD PTR _this$[ebp]
  012e5	e8 00 00 00 00	 call	 ?TrackSpace@CScrollBarEx@@AAEXXZ ; CScrollBarEx::TrackSpace
$L187852:

; 563  : 				}
; 564  : 			}
; 565  : 			else

  012ea	eb 5f		 jmp	 SHORT $L187865
$L187841:

; 566  : 			{
; 567  : 				if (liHitTest == HT_LEFTARROW)

  012ec	83 7d b8 66	 cmp	 DWORD PTR _liHitTest$187838[ebp], 102 ; 00000066H
  012f0	75 23		 jne	 SHORT $L187866

; 568  : 				{
; 569  : 					liValue = SB_LINEUP;

  012f2	c7 45 b4 00 00
	00 00		 mov	 DWORD PTR _liValue$187840[ebp], 0

; 570  : 					NotifyControlWnd(WM_HSCROLL, (int)MAKEWPARAM(liValue, 0));

  012f9	8b 4d b4	 mov	 ecx, DWORD PTR _liValue$187840[ebp]
  012fc	81 e1 ff ff 00
	00		 and	 ecx, 65535		; 0000ffffH
  01302	0f b7 d1	 movzx	 edx, cx
  01305	52		 push	 edx
  01306	68 14 01 00 00	 push	 276			; 00000114H
  0130b	8b 4d fc	 mov	 ecx, DWORD PTR _this$[ebp]
  0130e	e8 00 00 00 00	 call	 ?NotifyControlWnd@CScrollBarEx@@AAEXIH@Z ; CScrollBarEx::NotifyControlWnd

; 571  : 				}
; 572  : 				else if(liHitTest == HT_RIGHTARROW)

  01313	eb 36		 jmp	 SHORT $L187865
$L187866:
  01315	83 7d b8 67	 cmp	 DWORD PTR _liHitTest$187838[ebp], 103 ; 00000067H
  01319	75 22		 jne	 SHORT $L187877

; 573  : 				{
; 574  : 					liValue = SB_LINEDOWN;

  0131b	c7 45 b4 01 00
	00 00		 mov	 DWORD PTR _liValue$187840[ebp], 1

; 575  : 					NotifyControlWnd(WM_HSCROLL, (int)MAKEWPARAM(liValue, 0));

  01322	8b 45 b4	 mov	 eax, DWORD PTR _liValue$187840[ebp]
  01325	25 ff ff 00 00	 and	 eax, 65535		; 0000ffffH
  0132a	0f b7 c8	 movzx	 ecx, ax
  0132d	51		 push	 ecx
  0132e	68 14 01 00 00	 push	 276			; 00000114H
  01333	8b 4d fc	 mov	 ecx, DWORD PTR _this$[ebp]
  01336	e8 00 00 00 00	 call	 ?NotifyControlWnd@CScrollBarEx@@AAEXIH@Z ; CScrollBarEx::NotifyControlWnd

; 576  : 				}
; 577  : 				else if(liHitTest == HT_THUMB_SPACE)

  0133b	eb 0e		 jmp	 SHORT $L187865
$L187877:
  0133d	83 7d b8 69	 cmp	 DWORD PTR _liHitTest$187838[ebp], 105 ; 00000069H
  01341	75 08		 jne	 SHORT $L187865

; 578  : 				{
; 579  : 					TrackSpace();

  01343	8b 4d fc	 mov	 ecx, DWORD PTR _this$[ebp]
  01346	e8 00 00 00 00	 call	 ?TrackSpace@CScrollBarEx@@AAEXXZ ; CScrollBarEx::TrackSpace
$L187865:

; 580  : 				}
; 581  : 			}
; 582  : 			UpdateScrollBar();

  0134b	8b 4d fc	 mov	 ecx, DWORD PTR _this$[ebp]
  0134e	e8 00 00 00 00	 call	 ?UpdateScrollBar@CScrollBarEx@@QAEXXZ ; CScrollBarEx::UpdateScrollBar
$L187789:

; 583  : 		}
; 584  : 	}
; 585  : }

  01353	52		 push	 edx
  01354	8b cd		 mov	 ecx, ebp
  01356	50		 push	 eax
  01357	8d 15 00 00 00
	00		 lea	 edx, DWORD PTR $L188973
  0135d	e8 00 00 00 00	 call	 @_RTC_CheckStackVars@8
  01362	58		 pop	 eax
  01363	5a		 pop	 edx
  01364	5f		 pop	 edi
  01365	5e		 pop	 esi
  01366	83 c4 4c	 add	 esp, 76			; 0000004cH
  01369	3b ec		 cmp	 ebp, esp
  0136b	e8 00 00 00 00	 call	 __RTC_CheckEsp
  01370	8b e5		 mov	 esp, ebp
  01372	5d		 pop	 ebp
  01373	c2 04 00	 ret	 4
$L188973:
  01376	03 00 00 00	 DD	 3
  0137a	00 00 00 00	 DD	 $L188972
$L188972:
  0137e	ec ff ff ff	 DD	 -20			; ffffffecH
  01382	08 00 00 00	 DD	 8
  01386	00 00 00 00	 DD	 $L188969
  0138a	dc ff ff ff	 DD	 -36			; ffffffdcH
  0138e	08 00 00 00	 DD	 8
  01392	00 00 00 00	 DD	 $L188970
  01396	c4 ff ff ff	 DD	 -60			; ffffffc4H
  0139a	10 00 00 00	 DD	 16			; 00000010H
  0139e	00 00 00 00	 DD	 $L188971
$L188971:
  013a2	6c		 DB	 108			; 0000006cH
  013a3	72		 DB	 114			; 00000072H
  013a4	63		 DB	 99			; 00000063H
  013a5	54		 DB	 84			; 00000054H
  013a6	68		 DB	 104			; 00000068H
  013a7	75		 DB	 117			; 00000075H
  013a8	6d		 DB	 109			; 0000006dH
  013a9	62		 DB	 98			; 00000062H
  013aa	00		 DB	 0
$L188970:
  013ab	6c		 DB	 108			; 0000006cH
  013ac	50		 DB	 80			; 00000050H
  013ad	6f		 DB	 111			; 0000006fH
  013ae	69		 DB	 105			; 00000069H
  013af	6e		 DB	 110			; 0000006eH
  013b0	74		 DB	 116			; 00000074H
  013b1	43		 DB	 67			; 00000043H
  013b2	65		 DB	 101			; 00000065H
  013b3	6e		 DB	 110			; 0000006eH
  013b4	74		 DB	 116			; 00000074H
  013b5	65		 DB	 101			; 00000065H
  013b6	72		 DB	 114			; 00000072H
  013b7	00		 DB	 0
$L188969:
  013b8	6c		 DB	 108			; 0000006cH
  013b9	50		 DB	 80			; 00000050H
  013ba	6f		 DB	 111			; 0000006fH
  013bb	69		 DB	 105			; 00000069H
  013bc	6e		 DB	 110			; 0000006eH
  013bd	74		 DB	 116			; 00000074H
  013be	43		 DB	 67			; 00000043H
  013bf	75		 DB	 117			; 00000075H
  013c0	72		 DB	 114			; 00000072H
  013c1	73		 DB	 115			; 00000073H
  013c2	6f		 DB	 111			; 0000006fH
  013c3	72		 DB	 114			; 00000072H
  013c4	00		 DB	 0
?OnTimer@CScrollBarEx@@IAEXI@Z ENDP			; CScrollBarEx::OnTimer
_TEXT	ENDS
EXTRN	?SendMessageA@CWnd@@QAEJIIJ@Z:NEAR		; CWnd::SendMessageA
; Function compile flags: /Odt /RTCsu
_TEXT	SEGMENT
_this$ = -4						; size = 4
_aiMsg$ = 8						; size = 4
_aiValue$ = 12						; size = 4
?NotifyControlWnd@CScrollBarEx@@AAEXIH@Z PROC NEAR	; CScrollBarEx::NotifyControlWnd
; _this$ = ecx

; 595  : {

  013d0	55		 push	 ebp
  013d1	8b ec		 mov	 ebp, esp
  013d3	51		 push	 ecx
  013d4	c7 45 fc cc cc
	cc cc		 mov	 DWORD PTR [ebp-4], -858993460 ; ccccccccH
  013db	89 4d fc	 mov	 DWORD PTR _this$[ebp], ecx

; 596  : 	if (mpWnd)

  013de	8b 45 fc	 mov	 eax, DWORD PTR _this$[ebp]
  013e1	83 78 54 00	 cmp	 DWORD PTR [eax+84], 0
  013e5	74 15		 je	 SHORT $L187893

; 597  : 		mpWnd->SendMessage(aiMsg, aiValue, 0);

  013e7	6a 00		 push	 0
  013e9	8b 4d 0c	 mov	 ecx, DWORD PTR _aiValue$[ebp]
  013ec	51		 push	 ecx
  013ed	8b 55 08	 mov	 edx, DWORD PTR _aiMsg$[ebp]
  013f0	52		 push	 edx
  013f1	8b 45 fc	 mov	 eax, DWORD PTR _this$[ebp]
  013f4	8b 48 54	 mov	 ecx, DWORD PTR [eax+84]
  013f7	e8 00 00 00 00	 call	 ?SendMessageA@CWnd@@QAEJIIJ@Z ; CWnd::SendMessageA
$L187893:

; 598  : }

  013fc	83 c4 04	 add	 esp, 4
  013ff	3b ec		 cmp	 ebp, esp
  01401	e8 00 00 00 00	 call	 __RTC_CheckEsp
  01406	8b e5		 mov	 esp, ebp
  01408	5d		 pop	 ebp
  01409	c2 08 00	 ret	 8
?NotifyControlWnd@CScrollBarEx@@AAEXIH@Z ENDP		; CScrollBarEx::NotifyControlWnd
_TEXT	ENDS
PUBLIC	?SetControlWnd@CScrollBarEx@@QAEXPAVCWnd@@@Z	; CScrollBarEx::SetControlWnd
; Function compile flags: /Odt /RTCsu
_TEXT	SEGMENT
_this$ = -4						; size = 4
_apWnd$ = 8						; size = 4
?SetControlWnd@CScrollBarEx@@QAEXPAVCWnd@@@Z PROC NEAR	; CScrollBarEx::SetControlWnd
; _this$ = ecx

; 607  : {

  01410	55		 push	 ebp
  01411	8b ec		 mov	 ebp, esp
  01413	51		 push	 ecx
  01414	c7 45 fc cc cc
	cc cc		 mov	 DWORD PTR [ebp-4], -858993460 ; ccccccccH
  0141b	89 4d fc	 mov	 DWORD PTR _this$[ebp], ecx

; 608  : 	mpWnd = apWnd;

  0141e	8b 45 fc	 mov	 eax, DWORD PTR _this$[ebp]
  01421	8b 4d 08	 mov	 ecx, DWORD PTR _apWnd$[ebp]
  01424	89 48 54	 mov	 DWORD PTR [eax+84], ecx

; 609  : }

  01427	8b e5		 mov	 esp, ebp
  01429	5d		 pop	 ebp
  0142a	c2 04 00	 ret	 4
?SetControlWnd@CScrollBarEx@@QAEXPAVCWnd@@@Z ENDP	; CScrollBarEx::SetControlWnd
_TEXT	ENDS
PUBLIC	?SetPosition@CScrollBarEx@@QAEXXZ		; CScrollBarEx::SetPosition
EXTRN	?GetStyle@CWnd@@QBEKXZ:NEAR			; CWnd::GetStyle
EXTRN	??0CRect@@QAE@XZ:NEAR				; CRect::CRect
EXTRN	??BCRect@@QAEPAUtagRECT@@XZ:NEAR		; CRect::operator tagRECT *
EXTRN	__except_list:DWORD
EXTRN	___CxxFrameHandler:NEAR
EXTRN	?MoveWindow@CWnd@@QAEXPBUtagRECT@@H@Z:NEAR	; CWnd::MoveWindow
EXTRN	?SetWindowPos@CWnd@@QAEHPBV1@HHHHI@Z:NEAR	; CWnd::SetWindowPos
EXTRN	?GetWindowRect@CWnd@@QBEXPAUtagRECT@@@Z:NEAR	; CWnd::GetWindowRect
EXTRN	?ScreenToClient@CWnd@@QBEXPAUtagRECT@@@Z:NEAR	; CWnd::ScreenToClient
EXTRN	?ShowWindow@CWnd@@QAEHH@Z:NEAR			; CWnd::ShowWindow
EXTRN	?IsWindowVisible@CWnd@@QBEHXZ:NEAR		; CWnd::IsWindowVisible
EXTRN	__imp__GetWindowLongA@8:NEAR
EXTRN	__imp_??0?$CStringT@DV?$StrTraitMFC_DLL@DV?$ChTraitsCRT@D@ATL@@@@@ATL@@QAE@PBD@Z:NEAR
EXTRN	__imp_??1?$CStringT@DV?$StrTraitMFC_DLL@DV?$ChTraitsCRT@D@ATL@@@@@ATL@@QAE@XZ:NEAR
EXTRN	__imp_?Compare@?$CStringT@DV?$StrTraitMFC_DLL@DV?$ChTraitsCRT@D@ATL@@@@@ATL@@QBEHPBD@Z:NEAR
EXTRN	?GetParent@CWnd@@QBEPAV1@XZ:NEAR		; CWnd::GetParent
xdata$x	SEGMENT
$T188993 DD	0ffffffffH
	DD	FLAT:$L188978
$T188982 DD	019930520H
	DD	01H
	DD	FLAT:$T188993
	DD	2 DUP(00H)
	DD	2 DUP(00H)
; Function compile flags: /Odt /RTCsu
xdata$x	ENDS
_TEXT	SEGMENT
_lrcHorizontalBar$ = -176				; size = 16
_lrcVerticleBar$ = -152					; size = 16
_liRightBottomSpaceSize$ = -132				; size = 4
_liHorizontalSpaceSize$ = -128				; size = 4
_liVerticleSpaceSize$ = -124				; size = 4
_lbHorizontal$ = -118					; size = 1
_lbVertical$ = -117					; size = 1
_dwStyles$ = -116					; size = 4
_liBorderWidth$ = -112					; size = 4
_liBorderHeight$ = -108					; size = 4
_lExStyle$ = -104					; size = 4
_lstr$ = -96						; size = 4
_szBuf$ = -84						; size = 32
_lpParent$ = -48					; size = 4
_lrcWindow$ = -40					; size = 16
_this$ = -20						; size = 4
__$ArrayPad$ = -16					; size = 4
__$EHRec$ = -12						; size = 12
__$ReturnAddr$ = 4					; size = 4
?SetPosition@CScrollBarEx@@QAEXXZ PROC NEAR		; CScrollBarEx::SetPosition
; _this$ = ecx

; 618  : {

  01430	55		 push	 ebp
  01431	8b ec		 mov	 ebp, esp
  01433	6a ff		 push	 -1
  01435	68 00 00 00 00	 push	 __ehhandler$?SetPosition@CScrollBarEx@@QAEXXZ
  0143a	64 a1 00 00 00
	00		 mov	 eax, DWORD PTR fs:__except_list
  01440	50		 push	 eax
  01441	64 89 25 00 00
	00 00		 mov	 DWORD PTR fs:__except_list, esp
  01448	81 ec a8 00 00
	00		 sub	 esp, 168		; 000000a8H
  0144e	56		 push	 esi
  0144f	57		 push	 edi
  01450	51		 push	 ecx
  01451	8d bd 4c ff ff
	ff		 lea	 edi, DWORD PTR [ebp-180]
  01457	b9 2a 00 00 00	 mov	 ecx, 42			; 0000002aH
  0145c	b8 cc cc cc cc	 mov	 eax, -858993460		; ccccccccH
  01461	f3 ab		 rep stosd
  01463	59		 pop	 ecx
  01464	a1 00 00 00 00	 mov	 eax, DWORD PTR ___security_cookie
  01469	89 45 f0	 mov	 DWORD PTR __$ArrayPad$[ebp], eax
  0146c	89 4d ec	 mov	 DWORD PTR _this$[ebp], ecx

; 619  : 	if (mpWnd == NULL)

  0146f	8b 45 ec	 mov	 eax, DWORD PTR _this$[ebp]
  01472	83 78 54 00	 cmp	 DWORD PTR [eax+84], 0
  01476	75 05		 jne	 SHORT $L187902

; 620  : 		return;

  01478	e9 8e 03 00 00	 jmp	 $L187901
$L187902:

; 621  : 
; 622  : 	CRect lrcWindow;

  0147d	8d 4d d8	 lea	 ecx, DWORD PTR _lrcWindow$[ebp]
  01480	e8 00 00 00 00	 call	 ??0CRect@@QAE@XZ	; CRect::CRect

; 623  : 	mpWnd->GetWindowRect(&lrcWindow);

  01485	8d 4d d8	 lea	 ecx, DWORD PTR _lrcWindow$[ebp]
  01488	51		 push	 ecx
  01489	8b 55 ec	 mov	 edx, DWORD PTR _this$[ebp]
  0148c	8b 4a 54	 mov	 ecx, DWORD PTR [edx+84]
  0148f	e8 00 00 00 00	 call	 ?GetWindowRect@CWnd@@QBEXPAUtagRECT@@@Z ; CWnd::GetWindowRect

; 624  : 	CWnd* lpParent = NULL;

  01494	c7 45 d0 00 00
	00 00		 mov	 DWORD PTR _lpParent$[ebp], 0

; 625  : 	lpParent = GetParent();

  0149b	8b 4d ec	 mov	 ecx, DWORD PTR _this$[ebp]
  0149e	e8 00 00 00 00	 call	 ?GetParent@CWnd@@QBEPAV1@XZ ; CWnd::GetParent
  014a3	89 45 d0	 mov	 DWORD PTR _lpParent$[ebp], eax

; 626  : 	if (lpParent == NULL)

  014a6	83 7d d0 00	 cmp	 DWORD PTR _lpParent$[ebp], 0
  014aa	75 05		 jne	 SHORT $L187905

; 627  : 		return;

  014ac	e9 5a 03 00 00	 jmp	 $L187901
$L187905:

; 628  :    
; 629  : 
; 630  : 	TCHAR   szBuf[32];  
; 631  : 	GetClassName(mpWnd->m_hWnd,   szBuf,   sizeof(szBuf)/sizeof(TCHAR))  ;

  014b1	8b f4		 mov	 esi, esp
  014b3	6a 20		 push	 32			; 00000020H
  014b5	8d 45 ac	 lea	 eax, DWORD PTR _szBuf$[ebp]
  014b8	50		 push	 eax
  014b9	8b 4d ec	 mov	 ecx, DWORD PTR _this$[ebp]
  014bc	8b 51 54	 mov	 edx, DWORD PTR [ecx+84]
  014bf	8b 42 20	 mov	 eax, DWORD PTR [edx+32]
  014c2	50		 push	 eax
  014c3	ff 15 00 00 00
	00		 call	 DWORD PTR __imp__GetClassNameA@12
  014c9	3b f4		 cmp	 esi, esp
  014cb	e8 00 00 00 00	 call	 __RTC_CheckEsp

; 632  :     CString lstr = szBuf;

  014d0	8b f4		 mov	 esi, esp
  014d2	8d 4d ac	 lea	 ecx, DWORD PTR _szBuf$[ebp]
  014d5	51		 push	 ecx
  014d6	8d 4d a0	 lea	 ecx, DWORD PTR _lstr$[ebp]
  014d9	ff 15 00 00 00
	00		 call	 DWORD PTR __imp_??0?$CStringT@DV?$StrTraitMFC_DLL@DV?$ChTraitsCRT@D@ATL@@@@@ATL@@QAE@PBD@Z
  014df	3b f4		 cmp	 esi, esp
  014e1	e8 00 00 00 00	 call	 __RTC_CheckEsp
  014e6	c7 45 fc 00 00
	00 00		 mov	 DWORD PTR __$EHRec$[ebp+8], 0

; 633  : 	if( ( 0 == lstr.Compare( "AfxFrameOrView80ud")) || (0 ==  lstr.Compare( "AfxFrameOrView70d") ) ||
; 634  : 		( 0 == lstr.Compare( "AfxFrameOrView80u")) || (0 ==  lstr.Compare( "AfxFrameOrView70") ) )

  014ed	8b f4		 mov	 esi, esp
  014ef	68 00 00 00 00	 push	 OFFSET FLAT:$SG187911
  014f4	8d 4d a0	 lea	 ecx, DWORD PTR _lstr$[ebp]
  014f7	ff 15 00 00 00
	00		 call	 DWORD PTR __imp_?Compare@?$CStringT@DV?$StrTraitMFC_DLL@DV?$ChTraitsCRT@D@ATL@@@@@ATL@@QBEHPBD@Z
  014fd	3b f4		 cmp	 esi, esp
  014ff	e8 00 00 00 00	 call	 __RTC_CheckEsp
  01504	85 c0		 test	 eax, eax
  01506	74 51		 je	 SHORT $L187910
  01508	8b f4		 mov	 esi, esp
  0150a	68 00 00 00 00	 push	 OFFSET FLAT:$SG187912
  0150f	8d 4d a0	 lea	 ecx, DWORD PTR _lstr$[ebp]
  01512	ff 15 00 00 00
	00		 call	 DWORD PTR __imp_?Compare@?$CStringT@DV?$StrTraitMFC_DLL@DV?$ChTraitsCRT@D@ATL@@@@@ATL@@QBEHPBD@Z
  01518	3b f4		 cmp	 esi, esp
  0151a	e8 00 00 00 00	 call	 __RTC_CheckEsp
  0151f	85 c0		 test	 eax, eax
  01521	74 36		 je	 SHORT $L187910
  01523	8b f4		 mov	 esi, esp
  01525	68 00 00 00 00	 push	 OFFSET FLAT:$SG187913
  0152a	8d 4d a0	 lea	 ecx, DWORD PTR _lstr$[ebp]
  0152d	ff 15 00 00 00
	00		 call	 DWORD PTR __imp_?Compare@?$CStringT@DV?$StrTraitMFC_DLL@DV?$ChTraitsCRT@D@ATL@@@@@ATL@@QBEHPBD@Z
  01533	3b f4		 cmp	 esi, esp
  01535	e8 00 00 00 00	 call	 __RTC_CheckEsp
  0153a	85 c0		 test	 eax, eax
  0153c	74 1b		 je	 SHORT $L187910
  0153e	8b f4		 mov	 esi, esp
  01540	68 00 00 00 00	 push	 OFFSET FLAT:$SG187914
  01545	8d 4d a0	 lea	 ecx, DWORD PTR _lstr$[ebp]
  01548	ff 15 00 00 00
	00		 call	 DWORD PTR __imp_?Compare@?$CStringT@DV?$StrTraitMFC_DLL@DV?$ChTraitsCRT@D@ATL@@@@@ATL@@QBEHPBD@Z
  0154e	3b f4		 cmp	 esi, esp
  01550	e8 00 00 00 00	 call	 __RTC_CheckEsp
  01555	85 c0		 test	 eax, eax
  01557	75 23		 jne	 SHORT $L187909
$L187910:

; 635  : 	{
; 636  : 		misDlg = TRUE;

  01559	8b 55 ec	 mov	 edx, DWORD PTR _this$[ebp]
  0155c	c7 82 e0 00 00
	00 01 00 00 00	 mov	 DWORD PTR [edx+224], 1

; 637  : 		mpWnd->ModifyStyle(NULL, WS_CLIPSIBLINGS);

  01566	6a 00		 push	 0
  01568	68 00 00 00 04	 push	 67108864		; 04000000H
  0156d	6a 00		 push	 0
  0156f	8b 45 ec	 mov	 eax, DWORD PTR _this$[ebp]
  01572	8b 48 54	 mov	 ecx, DWORD PTR [eax+84]
  01575	e8 00 00 00 00	 call	 ?ModifyStyle@CWnd@@QAEHKKI@Z ; CWnd::ModifyStyle

; 638  : 
; 639  : 	}
; 640  : 	else

  0157a	eb 14		 jmp	 SHORT $L187915
$L187909:

; 641  : 	{
; 642  : 		mpWnd->ModifyStyle(NULL, WS_CLIPCHILDREN | WS_CLIPSIBLINGS);

  0157c	6a 00		 push	 0
  0157e	68 00 00 00 06	 push	 100663296		; 06000000H
  01583	6a 00		 push	 0
  01585	8b 4d ec	 mov	 ecx, DWORD PTR _this$[ebp]
  01588	8b 49 54	 mov	 ecx, DWORD PTR [ecx+84]
  0158b	e8 00 00 00 00	 call	 ?ModifyStyle@CWnd@@QAEHKKI@Z ; CWnd::ModifyStyle
$L187915:

; 643  : 	}
; 644  : 	
; 645  : 	mpWnd->SetWindowPos(this, 0, 0, 0, 0, SWP_NOSIZE | SWP_NOMOVE | SWP_NOACTIVATE);

  01590	6a 13		 push	 19			; 00000013H
  01592	6a 00		 push	 0
  01594	6a 00		 push	 0
  01596	6a 00		 push	 0
  01598	6a 00		 push	 0
  0159a	8b 55 ec	 mov	 edx, DWORD PTR _this$[ebp]
  0159d	52		 push	 edx
  0159e	8b 45 ec	 mov	 eax, DWORD PTR _this$[ebp]
  015a1	8b 48 54	 mov	 ecx, DWORD PTR [eax+84]
  015a4	e8 00 00 00 00	 call	 ?SetWindowPos@CWnd@@QAEHPBV1@HHHHI@Z ; CWnd::SetWindowPos

; 646  : 	
; 647  : 	//取得边框的高度和宽度
; 648  : 	LONG lExStyle = GetWindowLong(mpWnd->GetSafeHwnd(), GWL_EXSTYLE);

  015a9	8b f4		 mov	 esi, esp
  015ab	6a ec		 push	 -20			; ffffffecH
  015ad	8b 4d ec	 mov	 ecx, DWORD PTR _this$[ebp]
  015b0	8b 49 54	 mov	 ecx, DWORD PTR [ecx+84]
  015b3	e8 00 00 00 00	 call	 ?GetSafeHwnd@CWnd@@QBEPAUHWND__@@XZ ; CWnd::GetSafeHwnd
  015b8	50		 push	 eax
  015b9	ff 15 00 00 00
	00		 call	 DWORD PTR __imp__GetWindowLongA@8
  015bf	3b f4		 cmp	 esi, esp
  015c1	e8 00 00 00 00	 call	 __RTC_CheckEsp
  015c6	89 45 98	 mov	 DWORD PTR _lExStyle$[ebp], eax

; 649  : 	int liBorderHeight = 0;

  015c9	c7 45 94 00 00
	00 00		 mov	 DWORD PTR _liBorderHeight$[ebp], 0

; 650  : 	int liBorderWidth = 0;

  015d0	c7 45 90 00 00
	00 00		 mov	 DWORD PTR _liBorderWidth$[ebp], 0

; 651  : 	if (lExStyle & WS_EX_CLIENTEDGE)

  015d7	8b 55 98	 mov	 edx, DWORD PTR _lExStyle$[ebp]
  015da	81 e2 00 02 00
	00		 and	 edx, 512		; 00000200H
  015e0	74 28		 je	 SHORT $L187919

; 652  : 	{
; 653  : 		liBorderHeight = GetSystemMetrics(SM_CYEDGE);

  015e2	8b f4		 mov	 esi, esp
  015e4	6a 2e		 push	 46			; 0000002eH
  015e6	ff 15 00 00 00
	00		 call	 DWORD PTR __imp__GetSystemMetrics@4
  015ec	3b f4		 cmp	 esi, esp
  015ee	e8 00 00 00 00	 call	 __RTC_CheckEsp
  015f3	89 45 94	 mov	 DWORD PTR _liBorderHeight$[ebp], eax

; 654  : 		liBorderWidth = GetSystemMetrics(SM_CXEDGE);

  015f6	8b f4		 mov	 esi, esp
  015f8	6a 2d		 push	 45			; 0000002dH
  015fa	ff 15 00 00 00
	00		 call	 DWORD PTR __imp__GetSystemMetrics@4
  01600	3b f4		 cmp	 esi, esp
  01602	e8 00 00 00 00	 call	 __RTC_CheckEsp
  01607	89 45 90	 mov	 DWORD PTR _liBorderWidth$[ebp], eax
$L187919:

; 655  : 	}
; 656  : 
; 657  : 	//取得绝对坐标区域
; 658  : 	lpParent->ScreenToClient(&lrcWindow);

  0160a	8d 45 d8	 lea	 eax, DWORD PTR _lrcWindow$[ebp]
  0160d	50		 push	 eax
  0160e	8b 4d d0	 mov	 ecx, DWORD PTR _lpParent$[ebp]
  01611	e8 00 00 00 00	 call	 ?ScreenToClient@CWnd@@QBEXPAUtagRECT@@@Z ; CWnd::ScreenToClient

; 659  : 
; 660  : 	//取得滚动条显示状态
; 661  : 	DWORD dwStyles = mpWnd->GetStyle();

  01616	8b 4d ec	 mov	 ecx, DWORD PTR _this$[ebp]
  01619	8b 49 54	 mov	 ecx, DWORD PTR [ecx+84]
  0161c	e8 00 00 00 00	 call	 ?GetStyle@CWnd@@QBEKXZ	; CWnd::GetStyle
  01621	89 45 8c	 mov	 DWORD PTR _dwStyles$[ebp], eax

; 662  : 	bool lbVertical, lbHorizontal;
; 663  : 	if (dwStyles & WS_VSCROLL)

  01624	8b 55 8c	 mov	 edx, DWORD PTR _dwStyles$[ebp]
  01627	81 e2 00 00 20
	00		 and	 edx, 2097152		; 00200000H
  0162d	74 06		 je	 SHORT $L187923

; 664  : 		lbVertical = true;

  0162f	c6 45 8b 01	 mov	 BYTE PTR _lbVertical$[ebp], 1

; 665  : 	else

  01633	eb 04		 jmp	 SHORT $L187924
$L187923:

; 666  : 		lbVertical = false;

  01635	c6 45 8b 00	 mov	 BYTE PTR _lbVertical$[ebp], 0
$L187924:

; 667  : 
; 668  : 	if (dwStyles & WS_HSCROLL)

  01639	8b 45 8c	 mov	 eax, DWORD PTR _dwStyles$[ebp]
  0163c	25 00 00 10 00	 and	 eax, 1048576		; 00100000H
  01641	74 06		 je	 SHORT $L187925

; 669  : 		lbHorizontal = true;

  01643	c6 45 8a 01	 mov	 BYTE PTR _lbHorizontal$[ebp], 1

; 670  : 	else

  01647	eb 04		 jmp	 SHORT $L187926
$L187925:

; 671  : 		lbHorizontal = false;

  01649	c6 45 8a 00	 mov	 BYTE PTR _lbHorizontal$[ebp], 0
$L187926:

; 672  : 
; 673  : 	//取得滚动条空白区域大小
; 674  : 	int liVerticleSpaceSize = 0;

  0164d	c7 45 84 00 00
	00 00		 mov	 DWORD PTR _liVerticleSpaceSize$[ebp], 0

; 675  : 	int liHorizontalSpaceSize = 0;

  01654	c7 45 80 00 00
	00 00		 mov	 DWORD PTR _liHorizontalSpaceSize$[ebp], 0

; 676  : 	int liRightBottomSpaceSize = 0;

  0165b	c7 85 7c ff ff
	ff 00 00 00 00	 mov	 DWORD PTR _liRightBottomSpaceSize$[ebp], 0

; 677  : 	if (lbVertical)

  01665	0f b6 4d 8b	 movzx	 ecx, BYTE PTR _lbVertical$[ebp]
  01669	85 c9		 test	 ecx, ecx
  0166b	74 0e		 je	 SHORT $L187930

; 678  : 		liHorizontalSpaceSize = miButtonSize;

  0166d	8b 55 ec	 mov	 edx, DWORD PTR _this$[ebp]
  01670	8b 82 94 00 00
	00		 mov	 eax, DWORD PTR [edx+148]
  01676	89 45 80	 mov	 DWORD PTR _liHorizontalSpaceSize$[ebp], eax

; 679  : 	else

  01679	eb 07		 jmp	 SHORT $L187931
$L187930:

; 680  : 		liHorizontalSpaceSize = 0;

  0167b	c7 45 80 00 00
	00 00		 mov	 DWORD PTR _liHorizontalSpaceSize$[ebp], 0
$L187931:

; 681  : 	if (lbHorizontal)

  01682	0f b6 4d 8a	 movzx	 ecx, BYTE PTR _lbHorizontal$[ebp]
  01686	85 c9		 test	 ecx, ecx
  01688	74 0e		 je	 SHORT $L187932

; 682  : 		liVerticleSpaceSize = miButtonSize;

  0168a	8b 55 ec	 mov	 edx, DWORD PTR _this$[ebp]
  0168d	8b 82 94 00 00
	00		 mov	 eax, DWORD PTR [edx+148]
  01693	89 45 84	 mov	 DWORD PTR _liVerticleSpaceSize$[ebp], eax

; 683  : 	else

  01696	eb 07		 jmp	 SHORT $L187933
$L187932:

; 684  : 		liVerticleSpaceSize = 0;

  01698	c7 45 84 00 00
	00 00		 mov	 DWORD PTR _liVerticleSpaceSize$[ebp], 0
$L187933:

; 685  : 	if (lbVertical && lbHorizontal)

  0169f	0f b6 4d 8b	 movzx	 ecx, BYTE PTR _lbVertical$[ebp]
  016a3	85 c9		 test	 ecx, ecx
  016a5	74 12		 je	 SHORT $L187934
  016a7	0f b6 55 8a	 movzx	 edx, BYTE PTR _lbHorizontal$[ebp]
  016ab	85 d2		 test	 edx, edx
  016ad	74 0a		 je	 SHORT $L187934

; 686  : 		liRightBottomSpaceSize = 1;

  016af	c7 85 7c ff ff
	ff 01 00 00 00	 mov	 DWORD PTR _liRightBottomSpaceSize$[ebp], 1
$L187934:

; 687  : 
; 688  : 	//设置纵向滚动条和横向滚动条的区域
; 689  : 	CRect lrcVerticleBar, lrcHorizontalBar;

  016b9	8d 8d 68 ff ff
	ff		 lea	 ecx, DWORD PTR _lrcVerticleBar$[ebp]
  016bf	e8 00 00 00 00	 call	 ??0CRect@@QAE@XZ	; CRect::CRect
  016c4	8d 8d 50 ff ff
	ff		 lea	 ecx, DWORD PTR _lrcHorizontalBar$[ebp]
  016ca	e8 00 00 00 00	 call	 ??0CRect@@QAE@XZ	; CRect::CRect

; 690  : 	if (mScrollOrientation == esoVertical)

  016cf	8b 45 ec	 mov	 eax, DWORD PTR _this$[ebp]
  016d2	83 b8 80 00 00
	00 01		 cmp	 DWORD PTR [eax+128], 1
  016d9	0f 85 87 00 00
	00		 jne	 $L187937

; 691  : 	{
; 692  : 		lrcVerticleBar.left = lrcWindow.right - liHorizontalSpaceSize - liBorderWidth;

  016df	8b 4d e0	 mov	 ecx, DWORD PTR _lrcWindow$[ebp+8]
  016e2	2b 4d 80	 sub	 ecx, DWORD PTR _liHorizontalSpaceSize$[ebp]
  016e5	2b 4d 90	 sub	 ecx, DWORD PTR _liBorderWidth$[ebp]
  016e8	89 8d 68 ff ff
	ff		 mov	 DWORD PTR _lrcVerticleBar$[ebp], ecx

; 693  : 		lrcVerticleBar.top = lrcWindow.top + liBorderHeight;

  016ee	8b 55 dc	 mov	 edx, DWORD PTR _lrcWindow$[ebp+4]
  016f1	03 55 94	 add	 edx, DWORD PTR _liBorderHeight$[ebp]
  016f4	89 95 6c ff ff
	ff		 mov	 DWORD PTR _lrcVerticleBar$[ebp+4], edx

; 694  : 		lrcVerticleBar.right = lrcWindow.right - liBorderWidth;

  016fa	8b 45 e0	 mov	 eax, DWORD PTR _lrcWindow$[ebp+8]
  016fd	2b 45 90	 sub	 eax, DWORD PTR _liBorderWidth$[ebp]
  01700	89 85 70 ff ff
	ff		 mov	 DWORD PTR _lrcVerticleBar$[ebp+8], eax

; 695  : 		lrcVerticleBar.bottom = lrcWindow.bottom - liVerticleSpaceSize - liBorderHeight - liRightBottomSpaceSize + 1;

  01706	8b 4d e4	 mov	 ecx, DWORD PTR _lrcWindow$[ebp+12]
  01709	2b 4d 84	 sub	 ecx, DWORD PTR _liVerticleSpaceSize$[ebp]
  0170c	2b 4d 94	 sub	 ecx, DWORD PTR _liBorderHeight$[ebp]
  0170f	2b 8d 7c ff ff
	ff		 sub	 ecx, DWORD PTR _liRightBottomSpaceSize$[ebp]
  01715	83 c1 01	 add	 ecx, 1
  01718	89 8d 74 ff ff
	ff		 mov	 DWORD PTR _lrcVerticleBar$[ebp+12], ecx

; 696  : 		if (lbVertical)

  0171e	0f b6 55 8b	 movzx	 edx, BYTE PTR _lbVertical$[ebp]
  01722	85 d2		 test	 edx, edx
  01724	74 1b		 je	 SHORT $L187938

; 697  : 		{
; 698  : 			if (mpWnd->IsWindowVisible())

  01726	8b 45 ec	 mov	 eax, DWORD PTR _this$[ebp]
  01729	8b 48 54	 mov	 ecx, DWORD PTR [eax+84]
  0172c	e8 00 00 00 00	 call	 ?IsWindowVisible@CWnd@@QBEHXZ ; CWnd::IsWindowVisible
  01731	85 c0		 test	 eax, eax
  01733	74 0a		 je	 SHORT $L187939

; 699  : 				ShowWindow(SW_SHOW);

  01735	6a 05		 push	 5
  01737	8b 4d ec	 mov	 ecx, DWORD PTR _this$[ebp]
  0173a	e8 00 00 00 00	 call	 ?ShowWindow@CWnd@@QAEHH@Z ; CWnd::ShowWindow
$L187939:

; 700  : 		}
; 701  : 		else

  0173f	eb 0a		 jmp	 SHORT $L187940
$L187938:

; 702  : 			ShowWindow(SW_HIDE);

  01741	6a 00		 push	 0
  01743	8b 4d ec	 mov	 ecx, DWORD PTR _this$[ebp]
  01746	e8 00 00 00 00	 call	 ?ShowWindow@CWnd@@QAEHH@Z ; CWnd::ShowWindow
$L187940:

; 703  : 		MoveWindow(lrcVerticleBar);

  0174b	6a 01		 push	 1
  0174d	8d 8d 68 ff ff
	ff		 lea	 ecx, DWORD PTR _lrcVerticleBar$[ebp]
  01753	e8 00 00 00 00	 call	 ??BCRect@@QAEPAUtagRECT@@XZ ; CRect::operator tagRECT *
  01758	50		 push	 eax
  01759	8b 4d ec	 mov	 ecx, DWORD PTR _this$[ebp]
  0175c	e8 00 00 00 00	 call	 ?MoveWindow@CWnd@@QAEXPBUtagRECT@@H@Z ; CWnd::MoveWindow

; 704  : 	}
; 705  : 	else

  01761	e9 82 00 00 00	 jmp	 $L187941
$L187937:

; 706  : 	{
; 707  : 		lrcHorizontalBar.left = lrcWindow.left + liBorderWidth;

  01766	8b 4d d8	 mov	 ecx, DWORD PTR _lrcWindow$[ebp]
  01769	03 4d 90	 add	 ecx, DWORD PTR _liBorderWidth$[ebp]
  0176c	89 8d 50 ff ff
	ff		 mov	 DWORD PTR _lrcHorizontalBar$[ebp], ecx

; 708  : 		lrcHorizontalBar.top = lrcWindow.bottom - liVerticleSpaceSize - liBorderHeight;

  01772	8b 55 e4	 mov	 edx, DWORD PTR _lrcWindow$[ebp+12]
  01775	2b 55 84	 sub	 edx, DWORD PTR _liVerticleSpaceSize$[ebp]
  01778	2b 55 94	 sub	 edx, DWORD PTR _liBorderHeight$[ebp]
  0177b	89 95 54 ff ff
	ff		 mov	 DWORD PTR _lrcHorizontalBar$[ebp+4], edx

; 709  : 		lrcHorizontalBar.right = lrcWindow.right - liHorizontalSpaceSize - liBorderWidth - liRightBottomSpaceSize + 1;

  01781	8b 45 e0	 mov	 eax, DWORD PTR _lrcWindow$[ebp+8]
  01784	2b 45 80	 sub	 eax, DWORD PTR _liHorizontalSpaceSize$[ebp]
  01787	2b 45 90	 sub	 eax, DWORD PTR _liBorderWidth$[ebp]
  0178a	2b 85 7c ff ff
	ff		 sub	 eax, DWORD PTR _liRightBottomSpaceSize$[ebp]
  01790	83 c0 01	 add	 eax, 1
  01793	89 85 58 ff ff
	ff		 mov	 DWORD PTR _lrcHorizontalBar$[ebp+8], eax

; 710  : 		lrcHorizontalBar.bottom = lrcWindow.bottom - liBorderHeight;

  01799	8b 4d e4	 mov	 ecx, DWORD PTR _lrcWindow$[ebp+12]
  0179c	2b 4d 94	 sub	 ecx, DWORD PTR _liBorderHeight$[ebp]
  0179f	89 8d 5c ff ff
	ff		 mov	 DWORD PTR _lrcHorizontalBar$[ebp+12], ecx

; 711  : 		if (lbHorizontal)

  017a5	0f b6 55 8a	 movzx	 edx, BYTE PTR _lbHorizontal$[ebp]
  017a9	85 d2		 test	 edx, edx
  017ab	74 1b		 je	 SHORT $L187942

; 712  : 		{
; 713  : 			if (mpWnd->IsWindowVisible())

  017ad	8b 45 ec	 mov	 eax, DWORD PTR _this$[ebp]
  017b0	8b 48 54	 mov	 ecx, DWORD PTR [eax+84]
  017b3	e8 00 00 00 00	 call	 ?IsWindowVisible@CWnd@@QBEHXZ ; CWnd::IsWindowVisible
  017b8	85 c0		 test	 eax, eax
  017ba	74 0a		 je	 SHORT $L187943

; 714  : 				ShowWindow(SW_SHOW);

  017bc	6a 05		 push	 5
  017be	8b 4d ec	 mov	 ecx, DWORD PTR _this$[ebp]
  017c1	e8 00 00 00 00	 call	 ?ShowWindow@CWnd@@QAEHH@Z ; CWnd::ShowWindow
$L187943:

; 715  : 		}
; 716  : 		else

  017c6	eb 0a		 jmp	 SHORT $L187944
$L187942:

; 717  : 			ShowWindow(SW_HIDE);

  017c8	6a 00		 push	 0
  017ca	8b 4d ec	 mov	 ecx, DWORD PTR _this$[ebp]
  017cd	e8 00 00 00 00	 call	 ?ShowWindow@CWnd@@QAEHH@Z ; CWnd::ShowWindow
$L187944:

; 718  : 		MoveWindow(lrcHorizontalBar);

  017d2	6a 01		 push	 1
  017d4	8d 8d 50 ff ff
	ff		 lea	 ecx, DWORD PTR _lrcHorizontalBar$[ebp]
  017da	e8 00 00 00 00	 call	 ??BCRect@@QAEPAUtagRECT@@XZ ; CRect::operator tagRECT *
  017df	50		 push	 eax
  017e0	8b 4d ec	 mov	 ecx, DWORD PTR _this$[ebp]
  017e3	e8 00 00 00 00	 call	 ?MoveWindow@CWnd@@QAEXPBUtagRECT@@H@Z ; CWnd::MoveWindow
$L187941:

; 719  : 	}
; 720  : 	Invalidate();

  017e8	6a 01		 push	 1
  017ea	8b 4d ec	 mov	 ecx, DWORD PTR _this$[ebp]
  017ed	e8 00 00 00 00	 call	 ?Invalidate@CWnd@@QAEXH@Z ; CWnd::Invalidate

; 721  : }

  017f2	c7 45 fc ff ff
	ff ff		 mov	 DWORD PTR __$EHRec$[ebp+8], -1
  017f9	8b f4		 mov	 esi, esp
  017fb	8d 4d a0	 lea	 ecx, DWORD PTR _lstr$[ebp]
  017fe	ff 15 00 00 00
	00		 call	 DWORD PTR __imp_??1?$CStringT@DV?$StrTraitMFC_DLL@DV?$ChTraitsCRT@D@ATL@@@@@ATL@@QAE@XZ
  01804	3b f4		 cmp	 esi, esp
  01806	e8 00 00 00 00	 call	 __RTC_CheckEsp
$L187901:
  0180b	52		 push	 edx
  0180c	8b cd		 mov	 ecx, ebp
  0180e	50		 push	 eax
  0180f	8d 15 00 00 00
	00		 lea	 edx, DWORD PTR $L188992
  01815	e8 00 00 00 00	 call	 @_RTC_CheckStackVars@8
  0181a	58		 pop	 eax
  0181b	5a		 pop	 edx
  0181c	8b 4d f4	 mov	 ecx, DWORD PTR __$EHRec$[ebp]
  0181f	64 89 0d 00 00
	00 00		 mov	 DWORD PTR fs:__except_list, ecx
  01826	8b 4d f0	 mov	 ecx, DWORD PTR __$ArrayPad$[ebp]
  01829	e8 00 00 00 00	 call	 @__security_check_cookie@4
  0182e	5f		 pop	 edi
  0182f	5e		 pop	 esi
  01830	81 c4 b4 00 00
	00		 add	 esp, 180		; 000000b4H
  01836	3b ec		 cmp	 ebp, esp
  01838	e8 00 00 00 00	 call	 __RTC_CheckEsp
  0183d	8b e5		 mov	 esp, ebp
  0183f	5d		 pop	 ebp
  01840	c3		 ret	 0
$L188992:
  01841	05 00 00 00	 DD	 5
  01845	00 00 00 00	 DD	 $L188991
$L188991:
  01849	d8 ff ff ff	 DD	 -40			; ffffffd8H
  0184d	10 00 00 00	 DD	 16			; 00000010H
  01851	00 00 00 00	 DD	 $L188983
  01855	ac ff ff ff	 DD	 -84			; ffffffacH
  01859	20 00 00 00	 DD	 32			; 00000020H
  0185d	00 00 00 00	 DD	 $L188984
  01861	a0 ff ff ff	 DD	 -96			; ffffffa0H
  01865	04 00 00 00	 DD	 4
  01869	00 00 00 00	 DD	 $L188985
  0186d	68 ff ff ff	 DD	 -152			; ffffff68H
  01871	10 00 00 00	 DD	 16			; 00000010H
  01875	00 00 00 00	 DD	 $L188986
  01879	50 ff ff ff	 DD	 -176			; ffffff50H
  0187d	10 00 00 00	 DD	 16			; 00000010H
  01881	00 00 00 00	 DD	 $L188987
$L188987:
  01885	6c		 DB	 108			; 0000006cH
  01886	72		 DB	 114			; 00000072H
  01887	63		 DB	 99			; 00000063H
  01888	48		 DB	 72			; 00000048H
  01889	6f		 DB	 111			; 0000006fH
  0188a	72		 DB	 114			; 00000072H
  0188b	69		 DB	 105			; 00000069H
  0188c	7a		 DB	 122			; 0000007aH
  0188d	6f		 DB	 111			; 0000006fH
  0188e	6e		 DB	 110			; 0000006eH
  0188f	74		 DB	 116			; 00000074H
  01890	61		 DB	 97			; 00000061H
  01891	6c		 DB	 108			; 0000006cH
  01892	42		 DB	 66			; 00000042H
  01893	61		 DB	 97			; 00000061H
  01894	72		 DB	 114			; 00000072H
  01895	00		 DB	 0
$L188986:
  01896	6c		 DB	 108			; 0000006cH
  01897	72		 DB	 114			; 00000072H
  01898	63		 DB	 99			; 00000063H
  01899	56		 DB	 86			; 00000056H
  0189a	65		 DB	 101			; 00000065H
  0189b	72		 DB	 114			; 00000072H
  0189c	74		 DB	 116			; 00000074H
  0189d	69		 DB	 105			; 00000069H
  0189e	63		 DB	 99			; 00000063H
  0189f	6c		 DB	 108			; 0000006cH
  018a0	65		 DB	 101			; 00000065H
  018a1	42		 DB	 66			; 00000042H
  018a2	61		 DB	 97			; 00000061H
  018a3	72		 DB	 114			; 00000072H
  018a4	00		 DB	 0
$L188985:
  018a5	6c		 DB	 108			; 0000006cH
  018a6	73		 DB	 115			; 00000073H
  018a7	74		 DB	 116			; 00000074H
  018a8	72		 DB	 114			; 00000072H
  018a9	00		 DB	 0
$L188984:
  018aa	73		 DB	 115			; 00000073H
  018ab	7a		 DB	 122			; 0000007aH
  018ac	42		 DB	 66			; 00000042H
  018ad	75		 DB	 117			; 00000075H
  018ae	66		 DB	 102			; 00000066H
  018af	00		 DB	 0
$L188983:
  018b0	6c		 DB	 108			; 0000006cH
  018b1	72		 DB	 114			; 00000072H
  018b2	63		 DB	 99			; 00000063H
  018b3	57		 DB	 87			; 00000057H
  018b4	69		 DB	 105			; 00000069H
  018b5	6e		 DB	 110			; 0000006eH
  018b6	64		 DB	 100			; 00000064H
  018b7	6f		 DB	 111			; 0000006fH
  018b8	77		 DB	 119			; 00000077H
  018b9	00		 DB	 0
_TEXT	ENDS
text$x	SEGMENT
$L188978:
  00000	8b f4		 mov	 esi, esp
  00002	8d 4d a0	 lea	 ecx, DWORD PTR _lstr$[ebp]
  00005	ff 15 00 00 00
	00		 call	 DWORD PTR __imp_??1?$CStringT@DV?$StrTraitMFC_DLL@DV?$ChTraitsCRT@D@ATL@@@@@ATL@@QAE@XZ
  0000b	3b f4		 cmp	 esi, esp
  0000d	e9 00 00 00 00	 jmp	 __RTC_CheckEsp
__ehhandler$?SetPosition@CScrollBarEx@@QAEXXZ:
  00012	b8 00 00 00 00	 mov	 eax, OFFSET FLAT:$T188982
  00017	e9 00 00 00 00	 jmp	 ___CxxFrameHandler
text$x	ENDS
?SetPosition@CScrollBarEx@@QAEXXZ ENDP			; CScrollBarEx::SetPosition
; Function compile flags: /Odt /RTCsu
_TEXT	SEGMENT
_si$ = -36						; size = 28
_this$ = -4						; size = 4
?UpdateScrollBar@CScrollBarEx@@QAEXXZ PROC NEAR		; CScrollBarEx::UpdateScrollBar
; _this$ = ecx

; 730  : {

  018c0	55		 push	 ebp
  018c1	8b ec		 mov	 ebp, esp
  018c3	83 ec 28	 sub	 esp, 40			; 00000028H
  018c6	57		 push	 edi
  018c7	51		 push	 ecx
  018c8	8d 7d d8	 lea	 edi, DWORD PTR [ebp-40]
  018cb	b9 0a 00 00 00	 mov	 ecx, 10			; 0000000aH
  018d0	b8 cc cc cc cc	 mov	 eax, -858993460		; ccccccccH
  018d5	f3 ab		 rep stosd
  018d7	59		 pop	 ecx
  018d8	89 4d fc	 mov	 DWORD PTR _this$[ebp], ecx

; 731  : 	SCROLLINFO si;
; 732  : 	si.cbSize = sizeof(si);

  018db	c7 45 dc 1c 00
	00 00		 mov	 DWORD PTR _si$[ebp], 28	; 0000001cH

; 733  : 	si.fMask = SIF_ALL;

  018e2	c7 45 e0 17 00
	00 00		 mov	 DWORD PTR _si$[ebp+4], 23 ; 00000017H

; 734  : 	if (mpWnd == NULL)

  018e9	8b 45 fc	 mov	 eax, DWORD PTR _this$[ebp]
  018ec	83 78 54 00	 cmp	 DWORD PTR [eax+84], 0
  018f0	75 02		 jne	 SHORT $L187949

; 735  : 		return;

  018f2	eb 5e		 jmp	 SHORT $L187947
$L187949:

; 736  : 
; 737  : 	if (mScrollOrientation == esoVertical)

  018f4	8b 4d fc	 mov	 ecx, DWORD PTR _this$[ebp]
  018f7	83 b9 80 00 00
	00 01		 cmp	 DWORD PTR [ecx+128], 1
  018fe	75 15		 jne	 SHORT $L187950

; 738  : 		mpWnd->GetScrollInfo(SB_VERT, &si);

  01900	6a 17		 push	 23			; 00000017H
  01902	8d 55 dc	 lea	 edx, DWORD PTR _si$[ebp]
  01905	52		 push	 edx
  01906	6a 01		 push	 1
  01908	8b 45 fc	 mov	 eax, DWORD PTR _this$[ebp]
  0190b	8b 48 54	 mov	 ecx, DWORD PTR [eax+84]
  0190e	e8 00 00 00 00	 call	 ?GetScrollInfo@CWnd@@QAEHHPAUtagSCROLLINFO@@I@Z ; CWnd::GetScrollInfo

; 739  : 	else

  01913	eb 13		 jmp	 SHORT $L187951
$L187950:

; 740  : 		mpWnd->GetScrollInfo(SB_HORZ, &si);

  01915	6a 17		 push	 23			; 00000017H
  01917	8d 4d dc	 lea	 ecx, DWORD PTR _si$[ebp]
  0191a	51		 push	 ecx
  0191b	6a 00		 push	 0
  0191d	8b 55 fc	 mov	 edx, DWORD PTR _this$[ebp]
  01920	8b 4a 54	 mov	 ecx, DWORD PTR [edx+84]
  01923	e8 00 00 00 00	 call	 ?GetScrollInfo@CWnd@@QAEHHPAUtagSCROLLINFO@@I@Z ; CWnd::GetScrollInfo
$L187951:

; 741  : 
; 742  : 	if (si.nMax <= 1)	//此时设置为禁用

  01928	83 7d e8 01	 cmp	 DWORD PTR _si$[ebp+12], 1
  0192c	7f 0c		 jg	 SHORT $L187952

; 743  : 		mbEnabled = false;

  0192e	8b 45 fc	 mov	 eax, DWORD PTR _this$[ebp]
  01931	c6 80 98 00 00
	00 00		 mov	 BYTE PTR [eax+152], 0

; 744  : 	else

  01938	eb 0a		 jmp	 SHORT $L187953
$L187952:

; 745  : 		mbEnabled = true;

  0193a	8b 4d fc	 mov	 ecx, DWORD PTR _this$[ebp]
  0193d	c6 81 98 00 00
	00 01		 mov	 BYTE PTR [ecx+152], 1
$L187953:

; 746  : 
; 747  : 	SetScrollInfo(&si);

  01944	6a 01		 push	 1
  01946	8d 55 dc	 lea	 edx, DWORD PTR _si$[ebp]
  01949	52		 push	 edx
  0194a	8b 4d fc	 mov	 ecx, DWORD PTR _this$[ebp]
  0194d	e8 00 00 00 00	 call	 ?SetScrollInfo@CScrollBarEx@@QAEHPAUtagSCROLLINFO@@H@Z ; CScrollBarEx::SetScrollInfo
$L187947:

; 748  : }

  01952	52		 push	 edx
  01953	8b cd		 mov	 ecx, ebp
  01955	50		 push	 eax
  01956	8d 15 00 00 00
	00		 lea	 edx, DWORD PTR $L188998
  0195c	e8 00 00 00 00	 call	 @_RTC_CheckStackVars@8
  01961	58		 pop	 eax
  01962	5a		 pop	 edx
  01963	5f		 pop	 edi
  01964	83 c4 28	 add	 esp, 40			; 00000028H
  01967	3b ec		 cmp	 ebp, esp
  01969	e8 00 00 00 00	 call	 __RTC_CheckEsp
  0196e	8b e5		 mov	 esp, ebp
  01970	5d		 pop	 ebp
  01971	c3		 ret	 0
$L188998:
  01972	01 00 00 00	 DD	 1
  01976	00 00 00 00	 DD	 $L188997
$L188997:
  0197a	dc ff ff ff	 DD	 -36			; ffffffdcH
  0197e	1c 00 00 00	 DD	 28			; 0000001cH
  01982	00 00 00 00	 DD	 $L188996
$L188996:
  01986	73		 DB	 115			; 00000073H
  01987	69		 DB	 105			; 00000069H
  01988	00		 DB	 0
?UpdateScrollBar@CScrollBarEx@@QAEXXZ ENDP		; CScrollBarEx::UpdateScrollBar
_TEXT	ENDS
PUBLIC	?DrawLeftBtn@CScrollBarEx@@AAEXPAUHDC__@@UtagRECT@@@Z ; CScrollBarEx::DrawLeftBtn
PUBLIC	?DrawRightBtn@CScrollBarEx@@AAEXPAUHDC__@@UtagRECT@@@Z ; CScrollBarEx::DrawRightBtn
PUBLIC	?DrawUpBtn@CScrollBarEx@@AAEXPAUHDC__@@UtagRECT@@@Z ; CScrollBarEx::DrawUpBtn
PUBLIC	?DrawDownBtn@CScrollBarEx@@AAEXPAUHDC__@@UtagRECT@@@Z ; CScrollBarEx::DrawDownBtn
PUBLIC	?DrawThumb@CScrollBarEx@@AAEXPAUHDC__@@UtagRECT@@@Z ; CScrollBarEx::DrawThumb
PUBLIC	?DrawThumbSpace@CScrollBarEx@@AAEXPAUHDC__@@UtagRECT@@@Z ; CScrollBarEx::DrawThumbSpace
EXTRN	__imp__GetWindowRect@8:NEAR
; Function compile flags: /Odt /RTCsu
_TEXT	SEGMENT
$T189005 = -100						; size = 16
$T189004 = -84						; size = 16
$T189003 = -68						; size = 16
$T189002 = -52						; size = 16
$T189001 = -36						; size = 16
$T189000 = -20						; size = 16
_this$ = -4						; size = 4
_hWnd$ = 8						; size = 4
_hDC$ = 12						; size = 4
?Draw@CScrollBarEx@@AAEXPAUHWND__@@PAUHDC__@@@Z PROC NEAR ; CScrollBarEx::Draw
; _this$ = ecx

; 758  : {

  01990	55		 push	 ebp
  01991	8b ec		 mov	 ebp, esp
  01993	83 ec 64	 sub	 esp, 100		; 00000064H
  01996	56		 push	 esi
  01997	57		 push	 edi
  01998	51		 push	 ecx
  01999	8d 7d 9c	 lea	 edi, DWORD PTR [ebp-100]
  0199c	b9 19 00 00 00	 mov	 ecx, 25			; 00000019H
  019a1	b8 cc cc cc cc	 mov	 eax, -858993460		; ccccccccH
  019a6	f3 ab		 rep stosd
  019a8	59		 pop	 ecx
  019a9	89 4d fc	 mov	 DWORD PTR _this$[ebp], ecx

; 759  : 	::GetWindowRect(hWnd, &mrcClient);

  019ac	8b 45 fc	 mov	 eax, DWORD PTR _this$[ebp]
  019af	05 84 00 00 00	 add	 eax, 132		; 00000084H
  019b4	8b f4		 mov	 esi, esp
  019b6	50		 push	 eax
  019b7	8b 4d 08	 mov	 ecx, DWORD PTR _hWnd$[ebp]
  019ba	51		 push	 ecx
  019bb	ff 15 00 00 00
	00		 call	 DWORD PTR __imp__GetWindowRect@8
  019c1	3b f4		 cmp	 esi, esp
  019c3	e8 00 00 00 00	 call	 __RTC_CheckEsp

; 760  : 	ScreenToClient(&mrcClient);

  019c8	8b 55 fc	 mov	 edx, DWORD PTR _this$[ebp]
  019cb	81 c2 84 00 00
	00		 add	 edx, 132		; 00000084H
  019d1	52		 push	 edx
  019d2	8b 4d fc	 mov	 ecx, DWORD PTR _this$[ebp]
  019d5	e8 00 00 00 00	 call	 ?ScreenToClient@CWnd@@QBEXPAUtagRECT@@@Z ; CWnd::ScreenToClient

; 761  : 
; 762  : 	DrawThumbSpace(hDC, GetRect(HT_THUMB_SPACE));

  019da	6a 69		 push	 105			; 00000069H
  019dc	8d 45 ec	 lea	 eax, DWORD PTR $T189000[ebp]
  019df	50		 push	 eax
  019e0	8b 4d fc	 mov	 ecx, DWORD PTR _this$[ebp]
  019e3	e8 00 00 00 00	 call	 ?GetRect@CScrollBarEx@@AAE?AUtagRECT@@I@Z ; CScrollBarEx::GetRect
  019e8	83 ec 10	 sub	 esp, 16			; 00000010H
  019eb	8b cc		 mov	 ecx, esp
  019ed	8b 10		 mov	 edx, DWORD PTR [eax]
  019ef	89 11		 mov	 DWORD PTR [ecx], edx
  019f1	8b 50 04	 mov	 edx, DWORD PTR [eax+4]
  019f4	89 51 04	 mov	 DWORD PTR [ecx+4], edx
  019f7	8b 50 08	 mov	 edx, DWORD PTR [eax+8]
  019fa	89 51 08	 mov	 DWORD PTR [ecx+8], edx
  019fd	8b 40 0c	 mov	 eax, DWORD PTR [eax+12]
  01a00	89 41 0c	 mov	 DWORD PTR [ecx+12], eax
  01a03	8b 4d 0c	 mov	 ecx, DWORD PTR _hDC$[ebp]
  01a06	51		 push	 ecx
  01a07	8b 4d fc	 mov	 ecx, DWORD PTR _this$[ebp]
  01a0a	e8 00 00 00 00	 call	 ?DrawThumbSpace@CScrollBarEx@@AAEXPAUHDC__@@UtagRECT@@@Z ; CScrollBarEx::DrawThumbSpace

; 763  : 	DrawThumb(hDC, GetRect(HT_THUMB));

  01a0f	6a 68		 push	 104			; 00000068H
  01a11	8d 55 dc	 lea	 edx, DWORD PTR $T189001[ebp]
  01a14	52		 push	 edx
  01a15	8b 4d fc	 mov	 ecx, DWORD PTR _this$[ebp]
  01a18	e8 00 00 00 00	 call	 ?GetRect@CScrollBarEx@@AAE?AUtagRECT@@I@Z ; CScrollBarEx::GetRect
  01a1d	83 ec 10	 sub	 esp, 16			; 00000010H
  01a20	8b cc		 mov	 ecx, esp
  01a22	8b 10		 mov	 edx, DWORD PTR [eax]
  01a24	89 11		 mov	 DWORD PTR [ecx], edx
  01a26	8b 50 04	 mov	 edx, DWORD PTR [eax+4]
  01a29	89 51 04	 mov	 DWORD PTR [ecx+4], edx
  01a2c	8b 50 08	 mov	 edx, DWORD PTR [eax+8]
  01a2f	89 51 08	 mov	 DWORD PTR [ecx+8], edx
  01a32	8b 40 0c	 mov	 eax, DWORD PTR [eax+12]
  01a35	89 41 0c	 mov	 DWORD PTR [ecx+12], eax
  01a38	8b 4d 0c	 mov	 ecx, DWORD PTR _hDC$[ebp]
  01a3b	51		 push	 ecx
  01a3c	8b 4d fc	 mov	 ecx, DWORD PTR _this$[ebp]
  01a3f	e8 00 00 00 00	 call	 ?DrawThumb@CScrollBarEx@@AAEXPAUHDC__@@UtagRECT@@@Z ; CScrollBarEx::DrawThumb

; 764  : 
; 765  : 	if (mScrollOrientation == esoVertical)

  01a44	8b 55 fc	 mov	 edx, DWORD PTR _this$[ebp]
  01a47	83 ba 80 00 00
	00 01		 cmp	 DWORD PTR [edx+128], 1
  01a4e	75 6c		 jne	 SHORT $L187961

; 766  : 	{
; 767  : 		DrawUpBtn(hDC, GetRect(HT_UPARROW));

  01a50	6a 64		 push	 100			; 00000064H
  01a52	8d 45 cc	 lea	 eax, DWORD PTR $T189002[ebp]
  01a55	50		 push	 eax
  01a56	8b 4d fc	 mov	 ecx, DWORD PTR _this$[ebp]
  01a59	e8 00 00 00 00	 call	 ?GetRect@CScrollBarEx@@AAE?AUtagRECT@@I@Z ; CScrollBarEx::GetRect
  01a5e	83 ec 10	 sub	 esp, 16			; 00000010H
  01a61	8b cc		 mov	 ecx, esp
  01a63	8b 10		 mov	 edx, DWORD PTR [eax]
  01a65	89 11		 mov	 DWORD PTR [ecx], edx
  01a67	8b 50 04	 mov	 edx, DWORD PTR [eax+4]
  01a6a	89 51 04	 mov	 DWORD PTR [ecx+4], edx
  01a6d	8b 50 08	 mov	 edx, DWORD PTR [eax+8]
  01a70	89 51 08	 mov	 DWORD PTR [ecx+8], edx
  01a73	8b 40 0c	 mov	 eax, DWORD PTR [eax+12]
  01a76	89 41 0c	 mov	 DWORD PTR [ecx+12], eax
  01a79	8b 4d 0c	 mov	 ecx, DWORD PTR _hDC$[ebp]
  01a7c	51		 push	 ecx
  01a7d	8b 4d fc	 mov	 ecx, DWORD PTR _this$[ebp]
  01a80	e8 00 00 00 00	 call	 ?DrawUpBtn@CScrollBarEx@@AAEXPAUHDC__@@UtagRECT@@@Z ; CScrollBarEx::DrawUpBtn

; 768  : 		DrawDownBtn(hDC, GetRect(HT_DOWNARROW));

  01a85	6a 65		 push	 101			; 00000065H
  01a87	8d 55 bc	 lea	 edx, DWORD PTR $T189003[ebp]
  01a8a	52		 push	 edx
  01a8b	8b 4d fc	 mov	 ecx, DWORD PTR _this$[ebp]
  01a8e	e8 00 00 00 00	 call	 ?GetRect@CScrollBarEx@@AAE?AUtagRECT@@I@Z ; CScrollBarEx::GetRect
  01a93	83 ec 10	 sub	 esp, 16			; 00000010H
  01a96	8b cc		 mov	 ecx, esp
  01a98	8b 10		 mov	 edx, DWORD PTR [eax]
  01a9a	89 11		 mov	 DWORD PTR [ecx], edx
  01a9c	8b 50 04	 mov	 edx, DWORD PTR [eax+4]
  01a9f	89 51 04	 mov	 DWORD PTR [ecx+4], edx
  01aa2	8b 50 08	 mov	 edx, DWORD PTR [eax+8]
  01aa5	89 51 08	 mov	 DWORD PTR [ecx+8], edx
  01aa8	8b 40 0c	 mov	 eax, DWORD PTR [eax+12]
  01aab	89 41 0c	 mov	 DWORD PTR [ecx+12], eax
  01aae	8b 4d 0c	 mov	 ecx, DWORD PTR _hDC$[ebp]
  01ab1	51		 push	 ecx
  01ab2	8b 4d fc	 mov	 ecx, DWORD PTR _this$[ebp]
  01ab5	e8 00 00 00 00	 call	 ?DrawDownBtn@CScrollBarEx@@AAEXPAUHDC__@@UtagRECT@@@Z ; CScrollBarEx::DrawDownBtn

; 769  : 	}
; 770  : 	else

  01aba	eb 6a		 jmp	 SHORT $L187958
$L187961:

; 771  : 	{
; 772  : 		DrawLeftBtn(hDC, GetRect(HT_LEFTARROW));

  01abc	6a 66		 push	 102			; 00000066H
  01abe	8d 55 ac	 lea	 edx, DWORD PTR $T189004[ebp]
  01ac1	52		 push	 edx
  01ac2	8b 4d fc	 mov	 ecx, DWORD PTR _this$[ebp]
  01ac5	e8 00 00 00 00	 call	 ?GetRect@CScrollBarEx@@AAE?AUtagRECT@@I@Z ; CScrollBarEx::GetRect
  01aca	83 ec 10	 sub	 esp, 16			; 00000010H
  01acd	8b cc		 mov	 ecx, esp
  01acf	8b 10		 mov	 edx, DWORD PTR [eax]
  01ad1	89 11		 mov	 DWORD PTR [ecx], edx
  01ad3	8b 50 04	 mov	 edx, DWORD PTR [eax+4]
  01ad6	89 51 04	 mov	 DWORD PTR [ecx+4], edx
  01ad9	8b 50 08	 mov	 edx, DWORD PTR [eax+8]
  01adc	89 51 08	 mov	 DWORD PTR [ecx+8], edx
  01adf	8b 40 0c	 mov	 eax, DWORD PTR [eax+12]
  01ae2	89 41 0c	 mov	 DWORD PTR [ecx+12], eax
  01ae5	8b 4d 0c	 mov	 ecx, DWORD PTR _hDC$[ebp]
  01ae8	51		 push	 ecx
  01ae9	8b 4d fc	 mov	 ecx, DWORD PTR _this$[ebp]
  01aec	e8 00 00 00 00	 call	 ?DrawLeftBtn@CScrollBarEx@@AAEXPAUHDC__@@UtagRECT@@@Z ; CScrollBarEx::DrawLeftBtn

; 773  : 		DrawRightBtn(hDC, GetRect(HT_RIGHTARROW));

  01af1	6a 67		 push	 103			; 00000067H
  01af3	8d 55 9c	 lea	 edx, DWORD PTR $T189005[ebp]
  01af6	52		 push	 edx
  01af7	8b 4d fc	 mov	 ecx, DWORD PTR _this$[ebp]
  01afa	e8 00 00 00 00	 call	 ?GetRect@CScrollBarEx@@AAE?AUtagRECT@@I@Z ; CScrollBarEx::GetRect
  01aff	83 ec 10	 sub	 esp, 16			; 00000010H
  01b02	8b cc		 mov	 ecx, esp
  01b04	8b 10		 mov	 edx, DWORD PTR [eax]
  01b06	89 11		 mov	 DWORD PTR [ecx], edx
  01b08	8b 50 04	 mov	 edx, DWORD PTR [eax+4]
  01b0b	89 51 04	 mov	 DWORD PTR [ecx+4], edx
  01b0e	8b 50 08	 mov	 edx, DWORD PTR [eax+8]
  01b11	89 51 08	 mov	 DWORD PTR [ecx+8], edx
  01b14	8b 40 0c	 mov	 eax, DWORD PTR [eax+12]
  01b17	89 41 0c	 mov	 DWORD PTR [ecx+12], eax
  01b1a	8b 4d 0c	 mov	 ecx, DWORD PTR _hDC$[ebp]
  01b1d	51		 push	 ecx
  01b1e	8b 4d fc	 mov	 ecx, DWORD PTR _this$[ebp]
  01b21	e8 00 00 00 00	 call	 ?DrawRightBtn@CScrollBarEx@@AAEXPAUHDC__@@UtagRECT@@@Z ; CScrollBarEx::DrawRightBtn
$L187958:

; 774  : 	}
; 775  : 
; 776  : 
; 777  : 	
; 778  : }

  01b26	5f		 pop	 edi
  01b27	5e		 pop	 esi
  01b28	83 c4 64	 add	 esp, 100		; 00000064H
  01b2b	3b ec		 cmp	 ebp, esp
  01b2d	e8 00 00 00 00	 call	 __RTC_CheckEsp
  01b32	8b e5		 mov	 esp, ebp
  01b34	5d		 pop	 ebp
  01b35	c2 08 00	 ret	 8
?Draw@CScrollBarEx@@AAEXPAUHWND__@@PAUHDC__@@@Z ENDP	; CScrollBarEx::Draw
_TEXT	ENDS
PUBLIC	?DrawHighlightFace@CScrollBarEx@@AAEXPAUHDC__@@UtagRECT@@H@Z ; CScrollBarEx::DrawHighlightFace
PUBLIC	?DrawDownFace@CScrollBarEx@@AAEXPAUHDC__@@UtagRECT@@H@Z ; CScrollBarEx::DrawDownFace
PUBLIC	?DrawNormalFace@CScrollBarEx@@AAEXPAUHDC__@@UtagRECT@@H@Z ; CScrollBarEx::DrawNormalFace
; Function compile flags: /Odt /RTCsu
_TEXT	SEGMENT
_this$ = -4						; size = 4
_hDC$ = 8						; size = 4
_aRect$ = 12						; size = 16
?DrawLeftBtn@CScrollBarEx@@AAEXPAUHDC__@@UtagRECT@@@Z PROC NEAR ; CScrollBarEx::DrawLeftBtn
; _this$ = ecx

; 788  : {

  01b40	55		 push	 ebp
  01b41	8b ec		 mov	 ebp, esp
  01b43	51		 push	 ecx
  01b44	c7 45 fc cc cc
	cc cc		 mov	 DWORD PTR [ebp-4], -858993460 ; ccccccccH
  01b4b	89 4d fc	 mov	 DWORD PTR _this$[ebp], ecx

; 789  : 	miLastHitTest = HitTest();

  01b4e	8b 4d fc	 mov	 ecx, DWORD PTR _this$[ebp]
  01b51	e8 00 00 00 00	 call	 ?HitTest@CScrollBarEx@@AAEIXZ ; CScrollBarEx::HitTest
  01b56	8b 4d fc	 mov	 ecx, DWORD PTR _this$[ebp]
  01b59	89 81 a0 00 00
	00		 mov	 DWORD PTR [ecx+160], eax

; 790  : 
; 791  : 	if (miLastHitTest == HT_LEFTARROW && !mbLButtonDown)		//高亮

  01b5f	8b 55 fc	 mov	 edx, DWORD PTR _this$[ebp]
  01b62	83 ba a0 00 00
	00 66		 cmp	 DWORD PTR [edx+160], 102 ; 00000066H
  01b69	75 3a		 jne	 SHORT $L187972
  01b6b	8b 45 fc	 mov	 eax, DWORD PTR _this$[ebp]
  01b6e	0f b6 88 9a 00
	00 00		 movzx	 ecx, BYTE PTR [eax+154]
  01b75	85 c9		 test	 ecx, ecx
  01b77	75 2c		 jne	 SHORT $L187972

; 792  : 		DrawHighlightFace(hDC, aRect, 0);

  01b79	6a 00		 push	 0
  01b7b	83 ec 10	 sub	 esp, 16			; 00000010H
  01b7e	8b d4		 mov	 edx, esp
  01b80	8b 45 0c	 mov	 eax, DWORD PTR _aRect$[ebp]
  01b83	89 02		 mov	 DWORD PTR [edx], eax
  01b85	8b 4d 10	 mov	 ecx, DWORD PTR _aRect$[ebp+4]
  01b88	89 4a 04	 mov	 DWORD PTR [edx+4], ecx
  01b8b	8b 45 14	 mov	 eax, DWORD PTR _aRect$[ebp+8]
  01b8e	89 42 08	 mov	 DWORD PTR [edx+8], eax
  01b91	8b 4d 18	 mov	 ecx, DWORD PTR _aRect$[ebp+12]
  01b94	89 4a 0c	 mov	 DWORD PTR [edx+12], ecx
  01b97	8b 55 08	 mov	 edx, DWORD PTR _hDC$[ebp]
  01b9a	52		 push	 edx
  01b9b	8b 4d fc	 mov	 ecx, DWORD PTR _this$[ebp]
  01b9e	e8 00 00 00 00	 call	 ?DrawHighlightFace@CScrollBarEx@@AAEXPAUHDC__@@UtagRECT@@H@Z ; CScrollBarEx::DrawHighlightFace

; 793  : 	else if (miLastHitTest == HT_LEFTARROW && mbUpArrowDown)	//按下

  01ba3	eb 70		 jmp	 SHORT $L187971
$L187972:
  01ba5	8b 45 fc	 mov	 eax, DWORD PTR _this$[ebp]
  01ba8	83 b8 a0 00 00
	00 66		 cmp	 DWORD PTR [eax+160], 102 ; 00000066H
  01baf	75 3a		 jne	 SHORT $L187974
  01bb1	8b 4d fc	 mov	 ecx, DWORD PTR _this$[ebp]
  01bb4	0f b6 91 9b 00
	00 00		 movzx	 edx, BYTE PTR [ecx+155]
  01bbb	85 d2		 test	 edx, edx
  01bbd	74 2c		 je	 SHORT $L187974

; 794  : 		DrawDownFace(hDC, aRect, 0);

  01bbf	6a 00		 push	 0
  01bc1	83 ec 10	 sub	 esp, 16			; 00000010H
  01bc4	8b c4		 mov	 eax, esp
  01bc6	8b 4d 0c	 mov	 ecx, DWORD PTR _aRect$[ebp]
  01bc9	89 08		 mov	 DWORD PTR [eax], ecx
  01bcb	8b 55 10	 mov	 edx, DWORD PTR _aRect$[ebp+4]
  01bce	89 50 04	 mov	 DWORD PTR [eax+4], edx
  01bd1	8b 4d 14	 mov	 ecx, DWORD PTR _aRect$[ebp+8]
  01bd4	89 48 08	 mov	 DWORD PTR [eax+8], ecx
  01bd7	8b 55 18	 mov	 edx, DWORD PTR _aRect$[ebp+12]
  01bda	89 50 0c	 mov	 DWORD PTR [eax+12], edx
  01bdd	8b 45 08	 mov	 eax, DWORD PTR _hDC$[ebp]
  01be0	50		 push	 eax
  01be1	8b 4d fc	 mov	 ecx, DWORD PTR _this$[ebp]
  01be4	e8 00 00 00 00	 call	 ?DrawDownFace@CScrollBarEx@@AAEXPAUHDC__@@UtagRECT@@H@Z ; CScrollBarEx::DrawDownFace

; 795  : 	else	//默认

  01be9	eb 2a		 jmp	 SHORT $L187971
$L187974:

; 796  : 		DrawNormalFace(hDC, aRect, 0);

  01beb	6a 00		 push	 0
  01bed	83 ec 10	 sub	 esp, 16			; 00000010H
  01bf0	8b cc		 mov	 ecx, esp
  01bf2	8b 55 0c	 mov	 edx, DWORD PTR _aRect$[ebp]
  01bf5	89 11		 mov	 DWORD PTR [ecx], edx
  01bf7	8b 45 10	 mov	 eax, DWORD PTR _aRect$[ebp+4]
  01bfa	89 41 04	 mov	 DWORD PTR [ecx+4], eax
  01bfd	8b 55 14	 mov	 edx, DWORD PTR _aRect$[ebp+8]
  01c00	89 51 08	 mov	 DWORD PTR [ecx+8], edx
  01c03	8b 45 18	 mov	 eax, DWORD PTR _aRect$[ebp+12]
  01c06	89 41 0c	 mov	 DWORD PTR [ecx+12], eax
  01c09	8b 4d 08	 mov	 ecx, DWORD PTR _hDC$[ebp]
  01c0c	51		 push	 ecx
  01c0d	8b 4d fc	 mov	 ecx, DWORD PTR _this$[ebp]
  01c10	e8 00 00 00 00	 call	 ?DrawNormalFace@CScrollBarEx@@AAEXPAUHDC__@@UtagRECT@@H@Z ; CScrollBarEx::DrawNormalFace
$L187971:

; 797  : }

  01c15	83 c4 04	 add	 esp, 4
  01c18	3b ec		 cmp	 ebp, esp
  01c1a	e8 00 00 00 00	 call	 __RTC_CheckEsp
  01c1f	8b e5		 mov	 esp, ebp
  01c21	5d		 pop	 ebp
  01c22	c2 14 00	 ret	 20			; 00000014H
?DrawLeftBtn@CScrollBarEx@@AAEXPAUHDC__@@UtagRECT@@@Z ENDP ; CScrollBarEx::DrawLeftBtn
; Function compile flags: /Odt /RTCsu
_this$ = -4						; size = 4
_hDC$ = 8						; size = 4
_aRect$ = 12						; size = 16
?DrawRightBtn@CScrollBarEx@@AAEXPAUHDC__@@UtagRECT@@@Z PROC NEAR ; CScrollBarEx::DrawRightBtn
; _this$ = ecx

; 807  : {

  01c30	55		 push	 ebp
  01c31	8b ec		 mov	 ebp, esp
  01c33	51		 push	 ecx
  01c34	c7 45 fc cc cc
	cc cc		 mov	 DWORD PTR [ebp-4], -858993460 ; ccccccccH
  01c3b	89 4d fc	 mov	 DWORD PTR _this$[ebp], ecx

; 808  : 	miLastHitTest = HitTest();

  01c3e	8b 4d fc	 mov	 ecx, DWORD PTR _this$[ebp]
  01c41	e8 00 00 00 00	 call	 ?HitTest@CScrollBarEx@@AAEIXZ ; CScrollBarEx::HitTest
  01c46	8b 4d fc	 mov	 ecx, DWORD PTR _this$[ebp]
  01c49	89 81 a0 00 00
	00		 mov	 DWORD PTR [ecx+160], eax

; 809  : 
; 810  : 	if (miLastHitTest == HT_RIGHTARROW && !mbLButtonDown)		//高亮

  01c4f	8b 55 fc	 mov	 edx, DWORD PTR _this$[ebp]
  01c52	83 ba a0 00 00
	00 67		 cmp	 DWORD PTR [edx+160], 103 ; 00000067H
  01c59	75 3a		 jne	 SHORT $L187981
  01c5b	8b 45 fc	 mov	 eax, DWORD PTR _this$[ebp]
  01c5e	0f b6 88 9a 00
	00 00		 movzx	 ecx, BYTE PTR [eax+154]
  01c65	85 c9		 test	 ecx, ecx
  01c67	75 2c		 jne	 SHORT $L187981

; 811  : 		DrawHighlightFace(hDC, aRect, 1);

  01c69	6a 01		 push	 1
  01c6b	83 ec 10	 sub	 esp, 16			; 00000010H
  01c6e	8b d4		 mov	 edx, esp
  01c70	8b 45 0c	 mov	 eax, DWORD PTR _aRect$[ebp]
  01c73	89 02		 mov	 DWORD PTR [edx], eax
  01c75	8b 4d 10	 mov	 ecx, DWORD PTR _aRect$[ebp+4]
  01c78	89 4a 04	 mov	 DWORD PTR [edx+4], ecx
  01c7b	8b 45 14	 mov	 eax, DWORD PTR _aRect$[ebp+8]
  01c7e	89 42 08	 mov	 DWORD PTR [edx+8], eax
  01c81	8b 4d 18	 mov	 ecx, DWORD PTR _aRect$[ebp+12]
  01c84	89 4a 0c	 mov	 DWORD PTR [edx+12], ecx
  01c87	8b 55 08	 mov	 edx, DWORD PTR _hDC$[ebp]
  01c8a	52		 push	 edx
  01c8b	8b 4d fc	 mov	 ecx, DWORD PTR _this$[ebp]
  01c8e	e8 00 00 00 00	 call	 ?DrawHighlightFace@CScrollBarEx@@AAEXPAUHDC__@@UtagRECT@@H@Z ; CScrollBarEx::DrawHighlightFace

; 812  : 	else if (miLastHitTest == HT_RIGHTARROW && mbDownArrowDown)	//按下

  01c93	eb 70		 jmp	 SHORT $L187980
$L187981:
  01c95	8b 45 fc	 mov	 eax, DWORD PTR _this$[ebp]
  01c98	83 b8 a0 00 00
	00 67		 cmp	 DWORD PTR [eax+160], 103 ; 00000067H
  01c9f	75 3a		 jne	 SHORT $L187983
  01ca1	8b 4d fc	 mov	 ecx, DWORD PTR _this$[ebp]
  01ca4	0f b6 91 9c 00
	00 00		 movzx	 edx, BYTE PTR [ecx+156]
  01cab	85 d2		 test	 edx, edx
  01cad	74 2c		 je	 SHORT $L187983

; 813  : 		DrawDownFace(hDC, aRect, 1);

  01caf	6a 01		 push	 1
  01cb1	83 ec 10	 sub	 esp, 16			; 00000010H
  01cb4	8b c4		 mov	 eax, esp
  01cb6	8b 4d 0c	 mov	 ecx, DWORD PTR _aRect$[ebp]
  01cb9	89 08		 mov	 DWORD PTR [eax], ecx
  01cbb	8b 55 10	 mov	 edx, DWORD PTR _aRect$[ebp+4]
  01cbe	89 50 04	 mov	 DWORD PTR [eax+4], edx
  01cc1	8b 4d 14	 mov	 ecx, DWORD PTR _aRect$[ebp+8]
  01cc4	89 48 08	 mov	 DWORD PTR [eax+8], ecx
  01cc7	8b 55 18	 mov	 edx, DWORD PTR _aRect$[ebp+12]
  01cca	89 50 0c	 mov	 DWORD PTR [eax+12], edx
  01ccd	8b 45 08	 mov	 eax, DWORD PTR _hDC$[ebp]
  01cd0	50		 push	 eax
  01cd1	8b 4d fc	 mov	 ecx, DWORD PTR _this$[ebp]
  01cd4	e8 00 00 00 00	 call	 ?DrawDownFace@CScrollBarEx@@AAEXPAUHDC__@@UtagRECT@@H@Z ; CScrollBarEx::DrawDownFace

; 814  : 	else	//默认

  01cd9	eb 2a		 jmp	 SHORT $L187980
$L187983:

; 815  : 		DrawNormalFace(hDC, aRect, 1);

  01cdb	6a 01		 push	 1
  01cdd	83 ec 10	 sub	 esp, 16			; 00000010H
  01ce0	8b cc		 mov	 ecx, esp
  01ce2	8b 55 0c	 mov	 edx, DWORD PTR _aRect$[ebp]
  01ce5	89 11		 mov	 DWORD PTR [ecx], edx
  01ce7	8b 45 10	 mov	 eax, DWORD PTR _aRect$[ebp+4]
  01cea	89 41 04	 mov	 DWORD PTR [ecx+4], eax
  01ced	8b 55 14	 mov	 edx, DWORD PTR _aRect$[ebp+8]
  01cf0	89 51 08	 mov	 DWORD PTR [ecx+8], edx
  01cf3	8b 45 18	 mov	 eax, DWORD PTR _aRect$[ebp+12]
  01cf6	89 41 0c	 mov	 DWORD PTR [ecx+12], eax
  01cf9	8b 4d 08	 mov	 ecx, DWORD PTR _hDC$[ebp]
  01cfc	51		 push	 ecx
  01cfd	8b 4d fc	 mov	 ecx, DWORD PTR _this$[ebp]
  01d00	e8 00 00 00 00	 call	 ?DrawNormalFace@CScrollBarEx@@AAEXPAUHDC__@@UtagRECT@@H@Z ; CScrollBarEx::DrawNormalFace
$L187980:

; 816  : }

  01d05	83 c4 04	 add	 esp, 4
  01d08	3b ec		 cmp	 ebp, esp
  01d0a	e8 00 00 00 00	 call	 __RTC_CheckEsp
  01d0f	8b e5		 mov	 esp, ebp
  01d11	5d		 pop	 ebp
  01d12	c2 14 00	 ret	 20			; 00000014H
?DrawRightBtn@CScrollBarEx@@AAEXPAUHDC__@@UtagRECT@@@Z ENDP ; CScrollBarEx::DrawRightBtn
_TEXT	ENDS
EXTRN	?gBitMapOperate@@3VCBitMapOperate@@A:BYTE	; gBitMapOperate
EXTRN	?DrawLine@CBitMapOperate@@UAEXPAUHDC__@@KMHHHHH@Z:NEAR ; CBitMapOperate::DrawLine
; Function compile flags: /Odt /RTCsu
_TEXT	SEGMENT
_this$ = -4						; size = 4
_hDC$ = 8						; size = 4
_aRect$ = 12						; size = 16
?DrawUpBtn@CScrollBarEx@@AAEXPAUHDC__@@UtagRECT@@@Z PROC NEAR ; CScrollBarEx::DrawUpBtn
; _this$ = ecx

; 826  : {

  01d20	55		 push	 ebp
  01d21	8b ec		 mov	 ebp, esp
  01d23	51		 push	 ecx
  01d24	c7 45 fc cc cc
	cc cc		 mov	 DWORD PTR [ebp-4], -858993460 ; ccccccccH
  01d2b	89 4d fc	 mov	 DWORD PTR _this$[ebp], ecx

; 827  : 	miLastHitTest = HitTest();

  01d2e	8b 4d fc	 mov	 ecx, DWORD PTR _this$[ebp]
  01d31	e8 00 00 00 00	 call	 ?HitTest@CScrollBarEx@@AAEIXZ ; CScrollBarEx::HitTest
  01d36	8b 4d fc	 mov	 ecx, DWORD PTR _this$[ebp]
  01d39	89 81 a0 00 00
	00		 mov	 DWORD PTR [ecx+160], eax

; 828  : 
; 829  : 	gBitMapOperate.DrawLine(hDC,RGB(255,255,255),1,aRect.left-2,aRect.top-2,aRect.right+1,aRect.top-2,false);

  01d3f	6a 00		 push	 0
  01d41	8b 55 10	 mov	 edx, DWORD PTR _aRect$[ebp+4]
  01d44	83 ea 02	 sub	 edx, 2
  01d47	52		 push	 edx
  01d48	8b 45 14	 mov	 eax, DWORD PTR _aRect$[ebp+8]
  01d4b	83 c0 01	 add	 eax, 1
  01d4e	50		 push	 eax
  01d4f	8b 4d 10	 mov	 ecx, DWORD PTR _aRect$[ebp+4]
  01d52	83 e9 02	 sub	 ecx, 2
  01d55	51		 push	 ecx
  01d56	8b 55 0c	 mov	 edx, DWORD PTR _aRect$[ebp]
  01d59	83 ea 02	 sub	 edx, 2
  01d5c	52		 push	 edx
  01d5d	68 00 00 80 3f	 push	 1065353216		; 3f800000H
  01d62	68 ff ff ff 00	 push	 16777215		; 00ffffffH
  01d67	8b 45 08	 mov	 eax, DWORD PTR _hDC$[ebp]
  01d6a	50		 push	 eax
  01d6b	b9 00 00 00 00	 mov	 ecx, OFFSET FLAT:?gBitMapOperate@@3VCBitMapOperate@@A
  01d70	e8 00 00 00 00	 call	 ?DrawLine@CBitMapOperate@@UAEXPAUHDC__@@KMHHHHH@Z ; CBitMapOperate::DrawLine

; 830  : 	gBitMapOperate.DrawLine(hDC,RGB(255,255,255),1,aRect.left-2,aRect.top-2,aRect.left-2,aRect.bottom+1,false);

  01d75	6a 00		 push	 0
  01d77	8b 4d 18	 mov	 ecx, DWORD PTR _aRect$[ebp+12]
  01d7a	83 c1 01	 add	 ecx, 1
  01d7d	51		 push	 ecx
  01d7e	8b 55 0c	 mov	 edx, DWORD PTR _aRect$[ebp]
  01d81	83 ea 02	 sub	 edx, 2
  01d84	52		 push	 edx
  01d85	8b 45 10	 mov	 eax, DWORD PTR _aRect$[ebp+4]
  01d88	83 e8 02	 sub	 eax, 2
  01d8b	50		 push	 eax
  01d8c	8b 4d 0c	 mov	 ecx, DWORD PTR _aRect$[ebp]
  01d8f	83 e9 02	 sub	 ecx, 2
  01d92	51		 push	 ecx
  01d93	68 00 00 80 3f	 push	 1065353216		; 3f800000H
  01d98	68 ff ff ff 00	 push	 16777215		; 00ffffffH
  01d9d	8b 55 08	 mov	 edx, DWORD PTR _hDC$[ebp]
  01da0	52		 push	 edx
  01da1	b9 00 00 00 00	 mov	 ecx, OFFSET FLAT:?gBitMapOperate@@3VCBitMapOperate@@A
  01da6	e8 00 00 00 00	 call	 ?DrawLine@CBitMapOperate@@UAEXPAUHDC__@@KMHHHHH@Z ; CBitMapOperate::DrawLine

; 831  : 	gBitMapOperate.DrawLine(hDC,RGB(255,255,255),1,aRect.right+1,aRect.top-2,aRect.right+1,aRect.bottom+1,false);

  01dab	6a 00		 push	 0
  01dad	8b 45 18	 mov	 eax, DWORD PTR _aRect$[ebp+12]
  01db0	83 c0 01	 add	 eax, 1
  01db3	50		 push	 eax
  01db4	8b 4d 14	 mov	 ecx, DWORD PTR _aRect$[ebp+8]
  01db7	83 c1 01	 add	 ecx, 1
  01dba	51		 push	 ecx
  01dbb	8b 55 10	 mov	 edx, DWORD PTR _aRect$[ebp+4]
  01dbe	83 ea 02	 sub	 edx, 2
  01dc1	52		 push	 edx
  01dc2	8b 45 14	 mov	 eax, DWORD PTR _aRect$[ebp+8]
  01dc5	83 c0 01	 add	 eax, 1
  01dc8	50		 push	 eax
  01dc9	68 00 00 80 3f	 push	 1065353216		; 3f800000H
  01dce	68 ff ff ff 00	 push	 16777215		; 00ffffffH
  01dd3	8b 4d 08	 mov	 ecx, DWORD PTR _hDC$[ebp]
  01dd6	51		 push	 ecx
  01dd7	b9 00 00 00 00	 mov	 ecx, OFFSET FLAT:?gBitMapOperate@@3VCBitMapOperate@@A
  01ddc	e8 00 00 00 00	 call	 ?DrawLine@CBitMapOperate@@UAEXPAUHDC__@@KMHHHHH@Z ; CBitMapOperate::DrawLine

; 832  : 		if (miLastHitTest == HT_UPARROW && !mbLButtonDown)		//高亮

  01de1	8b 55 fc	 mov	 edx, DWORD PTR _this$[ebp]
  01de4	83 ba a0 00 00
	00 64		 cmp	 DWORD PTR [edx+160], 100 ; 00000064H
  01deb	75 3a		 jne	 SHORT $L188008
  01ded	8b 45 fc	 mov	 eax, DWORD PTR _this$[ebp]
  01df0	0f b6 88 9a 00
	00 00		 movzx	 ecx, BYTE PTR [eax+154]
  01df7	85 c9		 test	 ecx, ecx
  01df9	75 2c		 jne	 SHORT $L188008

; 833  : 		DrawHighlightFace(hDC, aRect, 2);

  01dfb	6a 02		 push	 2
  01dfd	83 ec 10	 sub	 esp, 16			; 00000010H
  01e00	8b d4		 mov	 edx, esp
  01e02	8b 45 0c	 mov	 eax, DWORD PTR _aRect$[ebp]
  01e05	89 02		 mov	 DWORD PTR [edx], eax
  01e07	8b 4d 10	 mov	 ecx, DWORD PTR _aRect$[ebp+4]
  01e0a	89 4a 04	 mov	 DWORD PTR [edx+4], ecx
  01e0d	8b 45 14	 mov	 eax, DWORD PTR _aRect$[ebp+8]
  01e10	89 42 08	 mov	 DWORD PTR [edx+8], eax
  01e13	8b 4d 18	 mov	 ecx, DWORD PTR _aRect$[ebp+12]
  01e16	89 4a 0c	 mov	 DWORD PTR [edx+12], ecx
  01e19	8b 55 08	 mov	 edx, DWORD PTR _hDC$[ebp]
  01e1c	52		 push	 edx
  01e1d	8b 4d fc	 mov	 ecx, DWORD PTR _this$[ebp]
  01e20	e8 00 00 00 00	 call	 ?DrawHighlightFace@CScrollBarEx@@AAEXPAUHDC__@@UtagRECT@@H@Z ; CScrollBarEx::DrawHighlightFace

; 834  : 	else if (miLastHitTest == HT_UPARROW && mbUpArrowDown)	//按下

  01e25	eb 70		 jmp	 SHORT $L187989
$L188008:
  01e27	8b 45 fc	 mov	 eax, DWORD PTR _this$[ebp]
  01e2a	83 b8 a0 00 00
	00 64		 cmp	 DWORD PTR [eax+160], 100 ; 00000064H
  01e31	75 3a		 jne	 SHORT $L188010
  01e33	8b 4d fc	 mov	 ecx, DWORD PTR _this$[ebp]
  01e36	0f b6 91 9b 00
	00 00		 movzx	 edx, BYTE PTR [ecx+155]
  01e3d	85 d2		 test	 edx, edx
  01e3f	74 2c		 je	 SHORT $L188010

; 835  : 		DrawDownFace(hDC, aRect, 2);

  01e41	6a 02		 push	 2
  01e43	83 ec 10	 sub	 esp, 16			; 00000010H
  01e46	8b c4		 mov	 eax, esp
  01e48	8b 4d 0c	 mov	 ecx, DWORD PTR _aRect$[ebp]
  01e4b	89 08		 mov	 DWORD PTR [eax], ecx
  01e4d	8b 55 10	 mov	 edx, DWORD PTR _aRect$[ebp+4]
  01e50	89 50 04	 mov	 DWORD PTR [eax+4], edx
  01e53	8b 4d 14	 mov	 ecx, DWORD PTR _aRect$[ebp+8]
  01e56	89 48 08	 mov	 DWORD PTR [eax+8], ecx
  01e59	8b 55 18	 mov	 edx, DWORD PTR _aRect$[ebp+12]
  01e5c	89 50 0c	 mov	 DWORD PTR [eax+12], edx
  01e5f	8b 45 08	 mov	 eax, DWORD PTR _hDC$[ebp]
  01e62	50		 push	 eax
  01e63	8b 4d fc	 mov	 ecx, DWORD PTR _this$[ebp]
  01e66	e8 00 00 00 00	 call	 ?DrawDownFace@CScrollBarEx@@AAEXPAUHDC__@@UtagRECT@@H@Z ; CScrollBarEx::DrawDownFace

; 836  : 	else	//默认

  01e6b	eb 2a		 jmp	 SHORT $L187989
$L188010:

; 837  : 		DrawNormalFace(hDC, aRect, 2);

  01e6d	6a 02		 push	 2
  01e6f	83 ec 10	 sub	 esp, 16			; 00000010H
  01e72	8b cc		 mov	 ecx, esp
  01e74	8b 55 0c	 mov	 edx, DWORD PTR _aRect$[ebp]
  01e77	89 11		 mov	 DWORD PTR [ecx], edx
  01e79	8b 45 10	 mov	 eax, DWORD PTR _aRect$[ebp+4]
  01e7c	89 41 04	 mov	 DWORD PTR [ecx+4], eax
  01e7f	8b 55 14	 mov	 edx, DWORD PTR _aRect$[ebp+8]
  01e82	89 51 08	 mov	 DWORD PTR [ecx+8], edx
  01e85	8b 45 18	 mov	 eax, DWORD PTR _aRect$[ebp+12]
  01e88	89 41 0c	 mov	 DWORD PTR [ecx+12], eax
  01e8b	8b 4d 08	 mov	 ecx, DWORD PTR _hDC$[ebp]
  01e8e	51		 push	 ecx
  01e8f	8b 4d fc	 mov	 ecx, DWORD PTR _this$[ebp]
  01e92	e8 00 00 00 00	 call	 ?DrawNormalFace@CScrollBarEx@@AAEXPAUHDC__@@UtagRECT@@H@Z ; CScrollBarEx::DrawNormalFace
$L187989:

; 838  : }

  01e97	83 c4 04	 add	 esp, 4
  01e9a	3b ec		 cmp	 ebp, esp
  01e9c	e8 00 00 00 00	 call	 __RTC_CheckEsp
  01ea1	8b e5		 mov	 esp, ebp
  01ea3	5d		 pop	 ebp
  01ea4	c2 14 00	 ret	 20			; 00000014H
?DrawUpBtn@CScrollBarEx@@AAEXPAUHDC__@@UtagRECT@@@Z ENDP ; CScrollBarEx::DrawUpBtn
; Function compile flags: /Odt /RTCsu
_this$ = -4						; size = 4
_hDC$ = 8						; size = 4
_aRect$ = 12						; size = 16
?DrawDownBtn@CScrollBarEx@@AAEXPAUHDC__@@UtagRECT@@@Z PROC NEAR ; CScrollBarEx::DrawDownBtn
; _this$ = ecx

; 848  : {

  01eb0	55		 push	 ebp
  01eb1	8b ec		 mov	 ebp, esp
  01eb3	51		 push	 ecx
  01eb4	c7 45 fc cc cc
	cc cc		 mov	 DWORD PTR [ebp-4], -858993460 ; ccccccccH
  01ebb	89 4d fc	 mov	 DWORD PTR _this$[ebp], ecx

; 849  : 	miLastHitTest = HitTest();

  01ebe	8b 4d fc	 mov	 ecx, DWORD PTR _this$[ebp]
  01ec1	e8 00 00 00 00	 call	 ?HitTest@CScrollBarEx@@AAEIXZ ; CScrollBarEx::HitTest
  01ec6	8b 4d fc	 mov	 ecx, DWORD PTR _this$[ebp]
  01ec9	89 81 a0 00 00
	00		 mov	 DWORD PTR [ecx+160], eax

; 850  : 
; 851  : 	gBitMapOperate.DrawLine(hDC,RGB(255,255,255),1,aRect.left-2,aRect.bottom+1,aRect.right+2,aRect.bottom+1,false);

  01ecf	6a 00		 push	 0
  01ed1	8b 55 18	 mov	 edx, DWORD PTR _aRect$[ebp+12]
  01ed4	83 c2 01	 add	 edx, 1
  01ed7	52		 push	 edx
  01ed8	8b 45 14	 mov	 eax, DWORD PTR _aRect$[ebp+8]
  01edb	83 c0 02	 add	 eax, 2
  01ede	50		 push	 eax
  01edf	8b 4d 18	 mov	 ecx, DWORD PTR _aRect$[ebp+12]
  01ee2	83 c1 01	 add	 ecx, 1
  01ee5	51		 push	 ecx
  01ee6	8b 55 0c	 mov	 edx, DWORD PTR _aRect$[ebp]
  01ee9	83 ea 02	 sub	 edx, 2
  01eec	52		 push	 edx
  01eed	68 00 00 80 3f	 push	 1065353216		; 3f800000H
  01ef2	68 ff ff ff 00	 push	 16777215		; 00ffffffH
  01ef7	8b 45 08	 mov	 eax, DWORD PTR _hDC$[ebp]
  01efa	50		 push	 eax
  01efb	b9 00 00 00 00	 mov	 ecx, OFFSET FLAT:?gBitMapOperate@@3VCBitMapOperate@@A
  01f00	e8 00 00 00 00	 call	 ?DrawLine@CBitMapOperate@@UAEXPAUHDC__@@KMHHHHH@Z ; CBitMapOperate::DrawLine

; 852  : 	gBitMapOperate.DrawLine(hDC,RGB(255,255,255),1,aRect.left-2,aRect.top-2,aRect.left-2,aRect.bottom+1,false);

  01f05	6a 00		 push	 0
  01f07	8b 4d 18	 mov	 ecx, DWORD PTR _aRect$[ebp+12]
  01f0a	83 c1 01	 add	 ecx, 1
  01f0d	51		 push	 ecx
  01f0e	8b 55 0c	 mov	 edx, DWORD PTR _aRect$[ebp]
  01f11	83 ea 02	 sub	 edx, 2
  01f14	52		 push	 edx
  01f15	8b 45 10	 mov	 eax, DWORD PTR _aRect$[ebp+4]
  01f18	83 e8 02	 sub	 eax, 2
  01f1b	50		 push	 eax
  01f1c	8b 4d 0c	 mov	 ecx, DWORD PTR _aRect$[ebp]
  01f1f	83 e9 02	 sub	 ecx, 2
  01f22	51		 push	 ecx
  01f23	68 00 00 80 3f	 push	 1065353216		; 3f800000H
  01f28	68 ff ff ff 00	 push	 16777215		; 00ffffffH
  01f2d	8b 55 08	 mov	 edx, DWORD PTR _hDC$[ebp]
  01f30	52		 push	 edx
  01f31	b9 00 00 00 00	 mov	 ecx, OFFSET FLAT:?gBitMapOperate@@3VCBitMapOperate@@A
  01f36	e8 00 00 00 00	 call	 ?DrawLine@CBitMapOperate@@UAEXPAUHDC__@@KMHHHHH@Z ; CBitMapOperate::DrawLine

; 853  : 	gBitMapOperate.DrawLine(hDC,RGB(255,255,255),1,aRect.right+1,aRect.top-2,aRect.right+1,aRect.bottom+1,false);

  01f3b	6a 00		 push	 0
  01f3d	8b 45 18	 mov	 eax, DWORD PTR _aRect$[ebp+12]
  01f40	83 c0 01	 add	 eax, 1
  01f43	50		 push	 eax
  01f44	8b 4d 14	 mov	 ecx, DWORD PTR _aRect$[ebp+8]
  01f47	83 c1 01	 add	 ecx, 1
  01f4a	51		 push	 ecx
  01f4b	8b 55 10	 mov	 edx, DWORD PTR _aRect$[ebp+4]
  01f4e	83 ea 02	 sub	 edx, 2
  01f51	52		 push	 edx
  01f52	8b 45 14	 mov	 eax, DWORD PTR _aRect$[ebp+8]
  01f55	83 c0 01	 add	 eax, 1
  01f58	50		 push	 eax
  01f59	68 00 00 80 3f	 push	 1065353216		; 3f800000H
  01f5e	68 ff ff ff 00	 push	 16777215		; 00ffffffH
  01f63	8b 4d 08	 mov	 ecx, DWORD PTR _hDC$[ebp]
  01f66	51		 push	 ecx
  01f67	b9 00 00 00 00	 mov	 ecx, OFFSET FLAT:?gBitMapOperate@@3VCBitMapOperate@@A
  01f6c	e8 00 00 00 00	 call	 ?DrawLine@CBitMapOperate@@UAEXPAUHDC__@@KMHHHHH@Z ; CBitMapOperate::DrawLine

; 854  : 		if (miLastHitTest == HT_DOWNARROW && !mbLButtonDown)		//高亮

  01f71	8b 55 fc	 mov	 edx, DWORD PTR _this$[ebp]
  01f74	83 ba a0 00 00
	00 65		 cmp	 DWORD PTR [edx+160], 101 ; 00000065H
  01f7b	75 3a		 jne	 SHORT $L188035
  01f7d	8b 45 fc	 mov	 eax, DWORD PTR _this$[ebp]
  01f80	0f b6 88 9a 00
	00 00		 movzx	 ecx, BYTE PTR [eax+154]
  01f87	85 c9		 test	 ecx, ecx
  01f89	75 2c		 jne	 SHORT $L188035

; 855  : 		DrawHighlightFace(hDC, aRect, 3);

  01f8b	6a 03		 push	 3
  01f8d	83 ec 10	 sub	 esp, 16			; 00000010H
  01f90	8b d4		 mov	 edx, esp
  01f92	8b 45 0c	 mov	 eax, DWORD PTR _aRect$[ebp]
  01f95	89 02		 mov	 DWORD PTR [edx], eax
  01f97	8b 4d 10	 mov	 ecx, DWORD PTR _aRect$[ebp+4]
  01f9a	89 4a 04	 mov	 DWORD PTR [edx+4], ecx
  01f9d	8b 45 14	 mov	 eax, DWORD PTR _aRect$[ebp+8]
  01fa0	89 42 08	 mov	 DWORD PTR [edx+8], eax
  01fa3	8b 4d 18	 mov	 ecx, DWORD PTR _aRect$[ebp+12]
  01fa6	89 4a 0c	 mov	 DWORD PTR [edx+12], ecx
  01fa9	8b 55 08	 mov	 edx, DWORD PTR _hDC$[ebp]
  01fac	52		 push	 edx
  01fad	8b 4d fc	 mov	 ecx, DWORD PTR _this$[ebp]
  01fb0	e8 00 00 00 00	 call	 ?DrawHighlightFace@CScrollBarEx@@AAEXPAUHDC__@@UtagRECT@@H@Z ; CScrollBarEx::DrawHighlightFace

; 856  : 	else if (miLastHitTest == HT_DOWNARROW && mbDownArrowDown)	//按下

  01fb5	eb 70		 jmp	 SHORT $L188016
$L188035:
  01fb7	8b 45 fc	 mov	 eax, DWORD PTR _this$[ebp]
  01fba	83 b8 a0 00 00
	00 65		 cmp	 DWORD PTR [eax+160], 101 ; 00000065H
  01fc1	75 3a		 jne	 SHORT $L188037
  01fc3	8b 4d fc	 mov	 ecx, DWORD PTR _this$[ebp]
  01fc6	0f b6 91 9c 00
	00 00		 movzx	 edx, BYTE PTR [ecx+156]
  01fcd	85 d2		 test	 edx, edx
  01fcf	74 2c		 je	 SHORT $L188037

; 857  : 		DrawDownFace(hDC, aRect, 3);

  01fd1	6a 03		 push	 3
  01fd3	83 ec 10	 sub	 esp, 16			; 00000010H
  01fd6	8b c4		 mov	 eax, esp
  01fd8	8b 4d 0c	 mov	 ecx, DWORD PTR _aRect$[ebp]
  01fdb	89 08		 mov	 DWORD PTR [eax], ecx
  01fdd	8b 55 10	 mov	 edx, DWORD PTR _aRect$[ebp+4]
  01fe0	89 50 04	 mov	 DWORD PTR [eax+4], edx
  01fe3	8b 4d 14	 mov	 ecx, DWORD PTR _aRect$[ebp+8]
  01fe6	89 48 08	 mov	 DWORD PTR [eax+8], ecx
  01fe9	8b 55 18	 mov	 edx, DWORD PTR _aRect$[ebp+12]
  01fec	89 50 0c	 mov	 DWORD PTR [eax+12], edx
  01fef	8b 45 08	 mov	 eax, DWORD PTR _hDC$[ebp]
  01ff2	50		 push	 eax
  01ff3	8b 4d fc	 mov	 ecx, DWORD PTR _this$[ebp]
  01ff6	e8 00 00 00 00	 call	 ?DrawDownFace@CScrollBarEx@@AAEXPAUHDC__@@UtagRECT@@H@Z ; CScrollBarEx::DrawDownFace

; 858  : 	else	//默认

  01ffb	eb 2a		 jmp	 SHORT $L188016
$L188037:

; 859  : 		DrawNormalFace(hDC, aRect, 3);

  01ffd	6a 03		 push	 3
  01fff	83 ec 10	 sub	 esp, 16			; 00000010H
  02002	8b cc		 mov	 ecx, esp
  02004	8b 55 0c	 mov	 edx, DWORD PTR _aRect$[ebp]
  02007	89 11		 mov	 DWORD PTR [ecx], edx
  02009	8b 45 10	 mov	 eax, DWORD PTR _aRect$[ebp+4]
  0200c	89 41 04	 mov	 DWORD PTR [ecx+4], eax
  0200f	8b 55 14	 mov	 edx, DWORD PTR _aRect$[ebp+8]
  02012	89 51 08	 mov	 DWORD PTR [ecx+8], edx
  02015	8b 45 18	 mov	 eax, DWORD PTR _aRect$[ebp+12]
  02018	89 41 0c	 mov	 DWORD PTR [ecx+12], eax
  0201b	8b 4d 08	 mov	 ecx, DWORD PTR _hDC$[ebp]
  0201e	51		 push	 ecx
  0201f	8b 4d fc	 mov	 ecx, DWORD PTR _this$[ebp]
  02022	e8 00 00 00 00	 call	 ?DrawNormalFace@CScrollBarEx@@AAEXPAUHDC__@@UtagRECT@@H@Z ; CScrollBarEx::DrawNormalFace
$L188016:

; 860  : }

  02027	83 c4 04	 add	 esp, 4
  0202a	3b ec		 cmp	 ebp, esp
  0202c	e8 00 00 00 00	 call	 __RTC_CheckEsp
  02031	8b e5		 mov	 esp, ebp
  02033	5d		 pop	 ebp
  02034	c2 14 00	 ret	 20			; 00000014H
?DrawDownBtn@CScrollBarEx@@AAEXPAUHDC__@@UtagRECT@@@Z ENDP ; CScrollBarEx::DrawDownBtn
; Function compile flags: /Odt /RTCsu
_lrcBK$ = -24						; size = 16
_this$ = -4						; size = 4
_hDC$ = 8						; size = 4
_aRect$ = 12						; size = 16
?DrawThumb@CScrollBarEx@@AAEXPAUHDC__@@UtagRECT@@@Z PROC NEAR ; CScrollBarEx::DrawThumb
; _this$ = ecx

; 870  : {	

  02040	55		 push	 ebp
  02041	8b ec		 mov	 ebp, esp
  02043	83 ec 1c	 sub	 esp, 28			; 0000001cH
  02046	b8 cc cc cc cc	 mov	 eax, -858993460		; ccccccccH
  0204b	89 45 e4	 mov	 DWORD PTR [ebp-28], eax
  0204e	89 45 e8	 mov	 DWORD PTR [ebp-24], eax
  02051	89 45 ec	 mov	 DWORD PTR [ebp-20], eax
  02054	89 45 f0	 mov	 DWORD PTR [ebp-16], eax
  02057	89 45 f4	 mov	 DWORD PTR [ebp-12], eax
  0205a	89 45 f8	 mov	 DWORD PTR [ebp-8], eax
  0205d	89 45 fc	 mov	 DWORD PTR [ebp-4], eax
  02060	89 4d fc	 mov	 DWORD PTR _this$[ebp], ecx

; 871  : 	miLastHitTest = HitTest();

  02063	8b 4d fc	 mov	 ecx, DWORD PTR _this$[ebp]
  02066	e8 00 00 00 00	 call	 ?HitTest@CScrollBarEx@@AAEIXZ ; CScrollBarEx::HitTest
  0206b	8b 4d fc	 mov	 ecx, DWORD PTR _this$[ebp]
  0206e	89 81 a0 00 00
	00		 mov	 DWORD PTR [ecx+160], eax

; 872  : 	RECT lrcBK = aRect;

  02074	8b 55 0c	 mov	 edx, DWORD PTR _aRect$[ebp]
  02077	89 55 e8	 mov	 DWORD PTR _lrcBK$[ebp], edx
  0207a	8b 45 10	 mov	 eax, DWORD PTR _aRect$[ebp+4]
  0207d	89 45 ec	 mov	 DWORD PTR _lrcBK$[ebp+4], eax
  02080	8b 4d 14	 mov	 ecx, DWORD PTR _aRect$[ebp+8]
  02083	89 4d f0	 mov	 DWORD PTR _lrcBK$[ebp+8], ecx
  02086	8b 55 18	 mov	 edx, DWORD PTR _aRect$[ebp+12]
  02089	89 55 f4	 mov	 DWORD PTR _lrcBK$[ebp+12], edx

; 873  : 	if (mScrollOrientation == esoVertical)

  0208c	8b 45 fc	 mov	 eax, DWORD PTR _this$[ebp]
  0208f	83 b8 80 00 00
	00 01		 cmp	 DWORD PTR [eax+128], 1
  02096	75 66		 jne	 SHORT $L188045

; 874  : 	{
; 875  : 		gBitMapOperate.DrawLine(hDC,RGB(255,255,255),1,aRect.right+1,aRect.top-2,aRect.right+1,aRect.bottom,false);

  02098	6a 00		 push	 0
  0209a	8b 4d 18	 mov	 ecx, DWORD PTR _aRect$[ebp+12]
  0209d	51		 push	 ecx
  0209e	8b 55 14	 mov	 edx, DWORD PTR _aRect$[ebp+8]
  020a1	83 c2 01	 add	 edx, 1
  020a4	52		 push	 edx
  020a5	8b 45 10	 mov	 eax, DWORD PTR _aRect$[ebp+4]
  020a8	83 e8 02	 sub	 eax, 2
  020ab	50		 push	 eax
  020ac	8b 4d 14	 mov	 ecx, DWORD PTR _aRect$[ebp+8]
  020af	83 c1 01	 add	 ecx, 1
  020b2	51		 push	 ecx
  020b3	68 00 00 80 3f	 push	 1065353216		; 3f800000H
  020b8	68 ff ff ff 00	 push	 16777215		; 00ffffffH
  020bd	8b 55 08	 mov	 edx, DWORD PTR _hDC$[ebp]
  020c0	52		 push	 edx
  020c1	b9 00 00 00 00	 mov	 ecx, OFFSET FLAT:?gBitMapOperate@@3VCBitMapOperate@@A
  020c6	e8 00 00 00 00	 call	 ?DrawLine@CBitMapOperate@@UAEXPAUHDC__@@KMHHHHH@Z ; CBitMapOperate::DrawLine

; 876  : 		gBitMapOperate.DrawLine(hDC,RGB(255,255,255),1,aRect.left-2,aRect.top-1,aRect.left-2,aRect.bottom,false);

  020cb	6a 00		 push	 0
  020cd	8b 45 18	 mov	 eax, DWORD PTR _aRect$[ebp+12]
  020d0	50		 push	 eax
  020d1	8b 4d 0c	 mov	 ecx, DWORD PTR _aRect$[ebp]
  020d4	83 e9 02	 sub	 ecx, 2
  020d7	51		 push	 ecx
  020d8	8b 55 10	 mov	 edx, DWORD PTR _aRect$[ebp+4]
  020db	83 ea 01	 sub	 edx, 1
  020de	52		 push	 edx
  020df	8b 45 0c	 mov	 eax, DWORD PTR _aRect$[ebp]
  020e2	83 e8 02	 sub	 eax, 2
  020e5	50		 push	 eax
  020e6	68 00 00 80 3f	 push	 1065353216		; 3f800000H
  020eb	68 ff ff ff 00	 push	 16777215		; 00ffffffH
  020f0	8b 4d 08	 mov	 ecx, DWORD PTR _hDC$[ebp]
  020f3	51		 push	 ecx
  020f4	b9 00 00 00 00	 mov	 ecx, OFFSET FLAT:?gBitMapOperate@@3VCBitMapOperate@@A
  020f9	e8 00 00 00 00	 call	 ?DrawLine@CBitMapOperate@@UAEXPAUHDC__@@KMHHHHH@Z ; CBitMapOperate::DrawLine
$L188045:

; 877  : 	}
; 878  : 
; 879  : 	if (miLastHitTest == HT_THUMB && !mbLButtonDown)		//高亮

  020fe	8b 55 fc	 mov	 edx, DWORD PTR _this$[ebp]
  02101	83 ba a0 00 00
	00 68		 cmp	 DWORD PTR [edx+160], 104 ; 00000068H
  02108	75 3d		 jne	 SHORT $L188058
  0210a	8b 45 fc	 mov	 eax, DWORD PTR _this$[ebp]
  0210d	0f b6 88 9a 00
	00 00		 movzx	 ecx, BYTE PTR [eax+154]
  02114	85 c9		 test	 ecx, ecx
  02116	75 2f		 jne	 SHORT $L188058

; 880  : 		DrawHighlightFace(hDC, aRect, 4);

  02118	6a 04		 push	 4
  0211a	83 ec 10	 sub	 esp, 16			; 00000010H
  0211d	8b d4		 mov	 edx, esp
  0211f	8b 45 0c	 mov	 eax, DWORD PTR _aRect$[ebp]
  02122	89 02		 mov	 DWORD PTR [edx], eax
  02124	8b 4d 10	 mov	 ecx, DWORD PTR _aRect$[ebp+4]
  02127	89 4a 04	 mov	 DWORD PTR [edx+4], ecx
  0212a	8b 45 14	 mov	 eax, DWORD PTR _aRect$[ebp+8]
  0212d	89 42 08	 mov	 DWORD PTR [edx+8], eax
  02130	8b 4d 18	 mov	 ecx, DWORD PTR _aRect$[ebp+12]
  02133	89 4a 0c	 mov	 DWORD PTR [edx+12], ecx
  02136	8b 55 08	 mov	 edx, DWORD PTR _hDC$[ebp]
  02139	52		 push	 edx
  0213a	8b 4d fc	 mov	 ecx, DWORD PTR _this$[ebp]
  0213d	e8 00 00 00 00	 call	 ?DrawHighlightFace@CScrollBarEx@@AAEXPAUHDC__@@UtagRECT@@H@Z ; CScrollBarEx::DrawHighlightFace

; 881  : 	else if (miLastHitTest != HT_LEFTARROW &&

  02142	e9 ae 00 00 00	 jmp	 $L188043
$L188058:

; 882  : 		miLastHitTest != HT_RIGHTARROW &&
; 883  : 		miLastHitTest != HT_UPARROW &&
; 884  : 		miLastHitTest != HT_DOWNARROW &&
; 885  : 		miLastHitTest != HT_THUMB_SPACE &&
; 886  : 		mbThumbDown)	//按下

  02147	8b 45 fc	 mov	 eax, DWORD PTR _this$[ebp]
  0214a	83 b8 a0 00 00
	00 66		 cmp	 DWORD PTR [eax+160], 102 ; 00000066H
  02151	74 6a		 je	 SHORT $L188060
  02153	8b 4d fc	 mov	 ecx, DWORD PTR _this$[ebp]
  02156	83 b9 a0 00 00
	00 67		 cmp	 DWORD PTR [ecx+160], 103 ; 00000067H
  0215d	74 5e		 je	 SHORT $L188060
  0215f	8b 55 fc	 mov	 edx, DWORD PTR _this$[ebp]
  02162	83 ba a0 00 00
	00 64		 cmp	 DWORD PTR [edx+160], 100 ; 00000064H
  02169	74 52		 je	 SHORT $L188060
  0216b	8b 45 fc	 mov	 eax, DWORD PTR _this$[ebp]
  0216e	83 b8 a0 00 00
	00 65		 cmp	 DWORD PTR [eax+160], 101 ; 00000065H
  02175	74 46		 je	 SHORT $L188060
  02177	8b 4d fc	 mov	 ecx, DWORD PTR _this$[ebp]
  0217a	83 b9 a0 00 00
	00 69		 cmp	 DWORD PTR [ecx+160], 105 ; 00000069H
  02181	74 3a		 je	 SHORT $L188060
  02183	8b 55 fc	 mov	 edx, DWORD PTR _this$[ebp]
  02186	0f b6 82 9d 00
	00 00		 movzx	 eax, BYTE PTR [edx+157]
  0218d	85 c0		 test	 eax, eax
  0218f	74 2c		 je	 SHORT $L188060

; 887  : 		DrawDownFace(hDC, aRect, 4);

  02191	6a 04		 push	 4
  02193	83 ec 10	 sub	 esp, 16			; 00000010H
  02196	8b cc		 mov	 ecx, esp
  02198	8b 55 0c	 mov	 edx, DWORD PTR _aRect$[ebp]
  0219b	89 11		 mov	 DWORD PTR [ecx], edx
  0219d	8b 45 10	 mov	 eax, DWORD PTR _aRect$[ebp+4]
  021a0	89 41 04	 mov	 DWORD PTR [ecx+4], eax
  021a3	8b 55 14	 mov	 edx, DWORD PTR _aRect$[ebp+8]
  021a6	89 51 08	 mov	 DWORD PTR [ecx+8], edx
  021a9	8b 45 18	 mov	 eax, DWORD PTR _aRect$[ebp+12]
  021ac	89 41 0c	 mov	 DWORD PTR [ecx+12], eax
  021af	8b 4d 08	 mov	 ecx, DWORD PTR _hDC$[ebp]
  021b2	51		 push	 ecx
  021b3	8b 4d fc	 mov	 ecx, DWORD PTR _this$[ebp]
  021b6	e8 00 00 00 00	 call	 ?DrawDownFace@CScrollBarEx@@AAEXPAUHDC__@@UtagRECT@@H@Z ; CScrollBarEx::DrawDownFace

; 888  : 	else if(!mbThumbDown)	//默认

  021bb	eb 38		 jmp	 SHORT $L188043
$L188060:
  021bd	8b 55 fc	 mov	 edx, DWORD PTR _this$[ebp]
  021c0	0f b6 82 9d 00
	00 00		 movzx	 eax, BYTE PTR [edx+157]
  021c7	85 c0		 test	 eax, eax
  021c9	75 2a		 jne	 SHORT $L188043

; 889  : 		DrawNormalFace(hDC, aRect, 4);

  021cb	6a 04		 push	 4
  021cd	83 ec 10	 sub	 esp, 16			; 00000010H
  021d0	8b cc		 mov	 ecx, esp
  021d2	8b 55 0c	 mov	 edx, DWORD PTR _aRect$[ebp]
  021d5	89 11		 mov	 DWORD PTR [ecx], edx
  021d7	8b 45 10	 mov	 eax, DWORD PTR _aRect$[ebp+4]
  021da	89 41 04	 mov	 DWORD PTR [ecx+4], eax
  021dd	8b 55 14	 mov	 edx, DWORD PTR _aRect$[ebp+8]
  021e0	89 51 08	 mov	 DWORD PTR [ecx+8], edx
  021e3	8b 45 18	 mov	 eax, DWORD PTR _aRect$[ebp+12]
  021e6	89 41 0c	 mov	 DWORD PTR [ecx+12], eax
  021e9	8b 4d 08	 mov	 ecx, DWORD PTR _hDC$[ebp]
  021ec	51		 push	 ecx
  021ed	8b 4d fc	 mov	 ecx, DWORD PTR _this$[ebp]
  021f0	e8 00 00 00 00	 call	 ?DrawNormalFace@CScrollBarEx@@AAEXPAUHDC__@@UtagRECT@@H@Z ; CScrollBarEx::DrawNormalFace
$L188043:

; 890  : }

  021f5	52		 push	 edx
  021f6	8b cd		 mov	 ecx, ebp
  021f8	50		 push	 eax
  021f9	8d 15 00 00 00
	00		 lea	 edx, DWORD PTR $L189013
  021ff	e8 00 00 00 00	 call	 @_RTC_CheckStackVars@8
  02204	58		 pop	 eax
  02205	5a		 pop	 edx
  02206	83 c4 1c	 add	 esp, 28			; 0000001cH
  02209	3b ec		 cmp	 ebp, esp
  0220b	e8 00 00 00 00	 call	 __RTC_CheckEsp
  02210	8b e5		 mov	 esp, ebp
  02212	5d		 pop	 ebp
  02213	c2 14 00	 ret	 20			; 00000014H
$L189013:
  02216	01 00 00 00	 DD	 1
  0221a	00 00 00 00	 DD	 $L189012
$L189012:
  0221e	e8 ff ff ff	 DD	 -24			; ffffffe8H
  02222	10 00 00 00	 DD	 16			; 00000010H
  02226	00 00 00 00	 DD	 $L189011
$L189011:
  0222a	6c		 DB	 108			; 0000006cH
  0222b	72		 DB	 114			; 00000072H
  0222c	63		 DB	 99			; 00000063H
  0222d	42		 DB	 66			; 00000042H
  0222e	4b		 DB	 75			; 0000004bH
  0222f	00		 DB	 0
?DrawThumb@CScrollBarEx@@AAEXPAUHDC__@@UtagRECT@@@Z ENDP ; CScrollBarEx::DrawThumb
_TEXT	ENDS
EXTRN	?FillRectangle@CBitMapOperate@@UAEXPAUHDC__@@UtagRECT@@KH@Z:NEAR ; CBitMapOperate::FillRectangle
; Function compile flags: /Odt /RTCsu
_TEXT	SEGMENT
$T189015 = -116						; size = 16
_lrcBK$ = -96						; size = 16
_lrcThumb$ = -72					; size = 16
_lrcSpaceEnd$ = -48					; size = 16
_lrcSpaceBegin$ = -24					; size = 16
_this$ = -4						; size = 4
_hDC$ = 8						; size = 4
_aRect$ = 12						; size = 16
?DrawThumbSpace@CScrollBarEx@@AAEXPAUHDC__@@UtagRECT@@@Z PROC NEAR ; CScrollBarEx::DrawThumbSpace
; _this$ = ecx

; 900  : {

  02230	55		 push	 ebp
  02231	8b ec		 mov	 ebp, esp
  02233	83 ec 74	 sub	 esp, 116		; 00000074H
  02236	57		 push	 edi
  02237	51		 push	 ecx
  02238	8d 7d 8c	 lea	 edi, DWORD PTR [ebp-116]
  0223b	b9 1d 00 00 00	 mov	 ecx, 29			; 0000001dH
  02240	b8 cc cc cc cc	 mov	 eax, -858993460		; ccccccccH
  02245	f3 ab		 rep stosd
  02247	59		 pop	 ecx
  02248	89 4d fc	 mov	 DWORD PTR _this$[ebp], ecx

; 901  : 	RECT lrcSpaceBegin, lrcSpaceEnd, lrcThumb, lrcBK;
; 902  : 	lrcThumb = GetRect(HT_THUMB);

  0224b	6a 68		 push	 104			; 00000068H
  0224d	8d 45 8c	 lea	 eax, DWORD PTR $T189015[ebp]
  02250	50		 push	 eax
  02251	8b 4d fc	 mov	 ecx, DWORD PTR _this$[ebp]
  02254	e8 00 00 00 00	 call	 ?GetRect@CScrollBarEx@@AAE?AUtagRECT@@I@Z ; CScrollBarEx::GetRect
  02259	8b 08		 mov	 ecx, DWORD PTR [eax]
  0225b	89 4d b8	 mov	 DWORD PTR _lrcThumb$[ebp], ecx
  0225e	8b 50 04	 mov	 edx, DWORD PTR [eax+4]
  02261	89 55 bc	 mov	 DWORD PTR _lrcThumb$[ebp+4], edx
  02264	8b 48 08	 mov	 ecx, DWORD PTR [eax+8]
  02267	89 4d c0	 mov	 DWORD PTR _lrcThumb$[ebp+8], ecx
  0226a	8b 50 0c	 mov	 edx, DWORD PTR [eax+12]
  0226d	89 55 c4	 mov	 DWORD PTR _lrcThumb$[ebp+12], edx

; 903  : 	lrcSpaceBegin = lrcSpaceEnd = lrcBK = aRect;

  02270	8b 45 0c	 mov	 eax, DWORD PTR _aRect$[ebp]
  02273	89 45 a0	 mov	 DWORD PTR _lrcBK$[ebp], eax
  02276	8b 4d 10	 mov	 ecx, DWORD PTR _aRect$[ebp+4]
  02279	89 4d a4	 mov	 DWORD PTR _lrcBK$[ebp+4], ecx
  0227c	8b 55 14	 mov	 edx, DWORD PTR _aRect$[ebp+8]
  0227f	89 55 a8	 mov	 DWORD PTR _lrcBK$[ebp+8], edx
  02282	8b 45 18	 mov	 eax, DWORD PTR _aRect$[ebp+12]
  02285	89 45 ac	 mov	 DWORD PTR _lrcBK$[ebp+12], eax
  02288	8b 4d a0	 mov	 ecx, DWORD PTR _lrcBK$[ebp]
  0228b	89 4d d0	 mov	 DWORD PTR _lrcSpaceEnd$[ebp], ecx
  0228e	8b 55 a4	 mov	 edx, DWORD PTR _lrcBK$[ebp+4]
  02291	89 55 d4	 mov	 DWORD PTR _lrcSpaceEnd$[ebp+4], edx
  02294	8b 45 a8	 mov	 eax, DWORD PTR _lrcBK$[ebp+8]
  02297	89 45 d8	 mov	 DWORD PTR _lrcSpaceEnd$[ebp+8], eax
  0229a	8b 4d ac	 mov	 ecx, DWORD PTR _lrcBK$[ebp+12]
  0229d	89 4d dc	 mov	 DWORD PTR _lrcSpaceEnd$[ebp+12], ecx
  022a0	8b 55 d0	 mov	 edx, DWORD PTR _lrcSpaceEnd$[ebp]
  022a3	89 55 e8	 mov	 DWORD PTR _lrcSpaceBegin$[ebp], edx
  022a6	8b 45 d4	 mov	 eax, DWORD PTR _lrcSpaceEnd$[ebp+4]
  022a9	89 45 ec	 mov	 DWORD PTR _lrcSpaceBegin$[ebp+4], eax
  022ac	8b 4d d8	 mov	 ecx, DWORD PTR _lrcSpaceEnd$[ebp+8]
  022af	89 4d f0	 mov	 DWORD PTR _lrcSpaceBegin$[ebp+8], ecx
  022b2	8b 55 dc	 mov	 edx, DWORD PTR _lrcSpaceEnd$[ebp+12]
  022b5	89 55 f4	 mov	 DWORD PTR _lrcSpaceBegin$[ebp+12], edx

; 904  : 	lrcBK.left -=1; 

  022b8	8b 45 a0	 mov	 eax, DWORD PTR _lrcBK$[ebp]
  022bb	83 e8 01	 sub	 eax, 1
  022be	89 45 a0	 mov	 DWORD PTR _lrcBK$[ebp], eax

; 905  : 	lrcBK.right+= 1;

  022c1	8b 4d a8	 mov	 ecx, DWORD PTR _lrcBK$[ebp+8]
  022c4	83 c1 01	 add	 ecx, 1
  022c7	89 4d a8	 mov	 DWORD PTR _lrcBK$[ebp+8], ecx

; 906  : 	if (mScrollOrientation == esoVertical)

  022ca	8b 55 fc	 mov	 edx, DWORD PTR _this$[ebp]
  022cd	83 ba 80 00 00
	00 01		 cmp	 DWORD PTR [edx+128], 1
  022d4	0f 85 39 01 00
	00		 jne	 $L188073

; 907  : 	{
; 908  : 		lrcSpaceBegin.bottom = lrcThumb.top-1;

  022da	8b 45 bc	 mov	 eax, DWORD PTR _lrcThumb$[ebp+4]
  022dd	83 e8 01	 sub	 eax, 1
  022e0	89 45 f4	 mov	 DWORD PTR _lrcSpaceBegin$[ebp+12], eax

; 909  : 	//	if (lrcThumb.bottom > 0)
; 910  : 		//	lrcSpaceEnd.top = lrcThumb.bottom;
; 911  : 	//	else
; 912  : 		//	lrcSpaceEnd.top = miButtonSize;
; 913  : 		lrcSpaceEnd.top = lrcThumb.bottom+1;

  022e3	8b 4d c4	 mov	 ecx, DWORD PTR _lrcThumb$[ebp+12]
  022e6	83 c1 01	 add	 ecx, 1
  022e9	89 4d d4	 mov	 DWORD PTR _lrcSpaceEnd$[ebp+4], ecx

; 914  : 
; 915  : 		//gBitMapOperate.FillRectangle(hDC, lrcBK, RGB(255,0,255), FALSE);
; 916  : 		gBitMapOperate.DrawLine(hDC,RGB(255,255,255),1,lrcSpaceBegin.left-1,lrcSpaceBegin.top,lrcSpaceBegin.left-1,lrcSpaceBegin.bottom-1,false);

  022ec	6a 00		 push	 0
  022ee	8b 55 f4	 mov	 edx, DWORD PTR _lrcSpaceBegin$[ebp+12]
  022f1	83 ea 01	 sub	 edx, 1
  022f4	52		 push	 edx
  022f5	8b 45 e8	 mov	 eax, DWORD PTR _lrcSpaceBegin$[ebp]
  022f8	83 e8 01	 sub	 eax, 1
  022fb	50		 push	 eax
  022fc	8b 4d ec	 mov	 ecx, DWORD PTR _lrcSpaceBegin$[ebp+4]
  022ff	51		 push	 ecx
  02300	8b 55 e8	 mov	 edx, DWORD PTR _lrcSpaceBegin$[ebp]
  02303	83 ea 01	 sub	 edx, 1
  02306	52		 push	 edx
  02307	68 00 00 80 3f	 push	 1065353216		; 3f800000H
  0230c	68 ff ff ff 00	 push	 16777215		; 00ffffffH
  02311	8b 45 08	 mov	 eax, DWORD PTR _hDC$[ebp]
  02314	50		 push	 eax
  02315	b9 00 00 00 00	 mov	 ecx, OFFSET FLAT:?gBitMapOperate@@3VCBitMapOperate@@A
  0231a	e8 00 00 00 00	 call	 ?DrawLine@CBitMapOperate@@UAEXPAUHDC__@@KMHHHHH@Z ; CBitMapOperate::DrawLine

; 917  : 		gBitMapOperate.DrawLine(hDC,RGB(255,255,255),1,lrcSpaceBegin.right,lrcSpaceBegin.top,lrcSpaceBegin.right,lrcSpaceBegin.bottom-1,false);

  0231f	6a 00		 push	 0
  02321	8b 4d f4	 mov	 ecx, DWORD PTR _lrcSpaceBegin$[ebp+12]
  02324	83 e9 01	 sub	 ecx, 1
  02327	51		 push	 ecx
  02328	8b 55 f0	 mov	 edx, DWORD PTR _lrcSpaceBegin$[ebp+8]
  0232b	52		 push	 edx
  0232c	8b 45 ec	 mov	 eax, DWORD PTR _lrcSpaceBegin$[ebp+4]
  0232f	50		 push	 eax
  02330	8b 4d f0	 mov	 ecx, DWORD PTR _lrcSpaceBegin$[ebp+8]
  02333	51		 push	 ecx
  02334	68 00 00 80 3f	 push	 1065353216		; 3f800000H
  02339	68 ff ff ff 00	 push	 16777215		; 00ffffffH
  0233e	8b 55 08	 mov	 edx, DWORD PTR _hDC$[ebp]
  02341	52		 push	 edx
  02342	b9 00 00 00 00	 mov	 ecx, OFFSET FLAT:?gBitMapOperate@@3VCBitMapOperate@@A
  02347	e8 00 00 00 00	 call	 ?DrawLine@CBitMapOperate@@UAEXPAUHDC__@@KMHHHHH@Z ; CBitMapOperate::DrawLine

; 918  : 		gBitMapOperate.FillRectangle(hDC, lrcSpaceBegin, 0xf5f5f5, FALSE);

  0234c	6a 00		 push	 0
  0234e	68 f5 f5 f5 00	 push	 16119285		; 00f5f5f5H
  02353	83 ec 10	 sub	 esp, 16			; 00000010H
  02356	8b c4		 mov	 eax, esp
  02358	8b 4d e8	 mov	 ecx, DWORD PTR _lrcSpaceBegin$[ebp]
  0235b	89 08		 mov	 DWORD PTR [eax], ecx
  0235d	8b 55 ec	 mov	 edx, DWORD PTR _lrcSpaceBegin$[ebp+4]
  02360	89 50 04	 mov	 DWORD PTR [eax+4], edx
  02363	8b 4d f0	 mov	 ecx, DWORD PTR _lrcSpaceBegin$[ebp+8]
  02366	89 48 08	 mov	 DWORD PTR [eax+8], ecx
  02369	8b 55 f4	 mov	 edx, DWORD PTR _lrcSpaceBegin$[ebp+12]
  0236c	89 50 0c	 mov	 DWORD PTR [eax+12], edx
  0236f	8b 45 08	 mov	 eax, DWORD PTR _hDC$[ebp]
  02372	50		 push	 eax
  02373	b9 00 00 00 00	 mov	 ecx, OFFSET FLAT:?gBitMapOperate@@3VCBitMapOperate@@A
  02378	e8 00 00 00 00	 call	 ?FillRectangle@CBitMapOperate@@UAEXPAUHDC__@@UtagRECT@@KH@Z ; CBitMapOperate::FillRectangle

; 919  : 		gBitMapOperate.DrawLine(hDC,RGB(255,255,255),1,lrcSpaceEnd.left-1,lrcSpaceEnd.top,lrcSpaceEnd.left-1,lrcSpaceEnd.bottom-1,false);

  0237d	6a 00		 push	 0
  0237f	8b 4d dc	 mov	 ecx, DWORD PTR _lrcSpaceEnd$[ebp+12]
  02382	83 e9 01	 sub	 ecx, 1
  02385	51		 push	 ecx
  02386	8b 55 d0	 mov	 edx, DWORD PTR _lrcSpaceEnd$[ebp]
  02389	83 ea 01	 sub	 edx, 1
  0238c	52		 push	 edx
  0238d	8b 45 d4	 mov	 eax, DWORD PTR _lrcSpaceEnd$[ebp+4]
  02390	50		 push	 eax
  02391	8b 4d d0	 mov	 ecx, DWORD PTR _lrcSpaceEnd$[ebp]
  02394	83 e9 01	 sub	 ecx, 1
  02397	51		 push	 ecx
  02398	68 00 00 80 3f	 push	 1065353216		; 3f800000H
  0239d	68 ff ff ff 00	 push	 16777215		; 00ffffffH
  023a2	8b 55 08	 mov	 edx, DWORD PTR _hDC$[ebp]
  023a5	52		 push	 edx
  023a6	b9 00 00 00 00	 mov	 ecx, OFFSET FLAT:?gBitMapOperate@@3VCBitMapOperate@@A
  023ab	e8 00 00 00 00	 call	 ?DrawLine@CBitMapOperate@@UAEXPAUHDC__@@KMHHHHH@Z ; CBitMapOperate::DrawLine

; 920  : 		gBitMapOperate.DrawLine(hDC,RGB(255,255,255),1,lrcSpaceEnd.right,lrcSpaceEnd.top,lrcSpaceEnd.right,lrcSpaceEnd.bottom-1,false);

  023b0	6a 00		 push	 0
  023b2	8b 45 dc	 mov	 eax, DWORD PTR _lrcSpaceEnd$[ebp+12]
  023b5	83 e8 01	 sub	 eax, 1
  023b8	50		 push	 eax
  023b9	8b 4d d8	 mov	 ecx, DWORD PTR _lrcSpaceEnd$[ebp+8]
  023bc	51		 push	 ecx
  023bd	8b 55 d4	 mov	 edx, DWORD PTR _lrcSpaceEnd$[ebp+4]
  023c0	52		 push	 edx
  023c1	8b 45 d8	 mov	 eax, DWORD PTR _lrcSpaceEnd$[ebp+8]
  023c4	50		 push	 eax
  023c5	68 00 00 80 3f	 push	 1065353216		; 3f800000H
  023ca	68 ff ff ff 00	 push	 16777215		; 00ffffffH
  023cf	8b 4d 08	 mov	 ecx, DWORD PTR _hDC$[ebp]
  023d2	51		 push	 ecx
  023d3	b9 00 00 00 00	 mov	 ecx, OFFSET FLAT:?gBitMapOperate@@3VCBitMapOperate@@A
  023d8	e8 00 00 00 00	 call	 ?DrawLine@CBitMapOperate@@UAEXPAUHDC__@@KMHHHHH@Z ; CBitMapOperate::DrawLine

; 921  : 		gBitMapOperate.FillRectangle(hDC, lrcSpaceEnd,   0xf5f5f5, FALSE);

  023dd	6a 00		 push	 0
  023df	68 f5 f5 f5 00	 push	 16119285		; 00f5f5f5H
  023e4	83 ec 10	 sub	 esp, 16			; 00000010H
  023e7	8b d4		 mov	 edx, esp
  023e9	8b 45 d0	 mov	 eax, DWORD PTR _lrcSpaceEnd$[ebp]
  023ec	89 02		 mov	 DWORD PTR [edx], eax
  023ee	8b 4d d4	 mov	 ecx, DWORD PTR _lrcSpaceEnd$[ebp+4]
  023f1	89 4a 04	 mov	 DWORD PTR [edx+4], ecx
  023f4	8b 45 d8	 mov	 eax, DWORD PTR _lrcSpaceEnd$[ebp+8]
  023f7	89 42 08	 mov	 DWORD PTR [edx+8], eax
  023fa	8b 4d dc	 mov	 ecx, DWORD PTR _lrcSpaceEnd$[ebp+12]
  023fd	89 4a 0c	 mov	 DWORD PTR [edx+12], ecx
  02400	8b 55 08	 mov	 edx, DWORD PTR _hDC$[ebp]
  02403	52		 push	 edx
  02404	b9 00 00 00 00	 mov	 ecx, OFFSET FLAT:?gBitMapOperate@@3VCBitMapOperate@@A
  02409	e8 00 00 00 00	 call	 ?FillRectangle@CBitMapOperate@@UAEXPAUHDC__@@UtagRECT@@KH@Z ; CBitMapOperate::FillRectangle

; 922  : 	}
; 923  : 	else

  0240e	e9 82 00 00 00	 jmp	 $L188067
$L188073:

; 924  : 	{
; 925  : 		lrcSpaceBegin.right = lrcThumb.left;

  02413	8b 45 b8	 mov	 eax, DWORD PTR _lrcThumb$[ebp]
  02416	89 45 f0	 mov	 DWORD PTR _lrcSpaceBegin$[ebp+8], eax

; 926  : 		if (lrcThumb.right > 0)

  02419	83 7d c0 00	 cmp	 DWORD PTR _lrcThumb$[ebp+8], 0
  0241d	7e 08		 jle	 SHORT $L188099

; 927  : 			lrcSpaceEnd.left = lrcThumb.right;

  0241f	8b 4d c0	 mov	 ecx, DWORD PTR _lrcThumb$[ebp+8]
  02422	89 4d d0	 mov	 DWORD PTR _lrcSpaceEnd$[ebp], ecx

; 928  : 		else

  02425	eb 0c		 jmp	 SHORT $L188100
$L188099:

; 929  : 			lrcSpaceEnd.left = miButtonSize;

  02427	8b 55 fc	 mov	 edx, DWORD PTR _this$[ebp]
  0242a	8b 82 94 00 00
	00		 mov	 eax, DWORD PTR [edx+148]
  02430	89 45 d0	 mov	 DWORD PTR _lrcSpaceEnd$[ebp], eax
$L188100:

; 930  : 		gBitMapOperate.FillRectangle(hDC, lrcSpaceBegin, RGB(241, 241, 241), FALSE);

  02433	6a 00		 push	 0
  02435	68 f1 f1 f1 00	 push	 15856113		; 00f1f1f1H
  0243a	83 ec 10	 sub	 esp, 16			; 00000010H
  0243d	8b cc		 mov	 ecx, esp
  0243f	8b 55 e8	 mov	 edx, DWORD PTR _lrcSpaceBegin$[ebp]
  02442	89 11		 mov	 DWORD PTR [ecx], edx
  02444	8b 45 ec	 mov	 eax, DWORD PTR _lrcSpaceBegin$[ebp+4]
  02447	89 41 04	 mov	 DWORD PTR [ecx+4], eax
  0244a	8b 55 f0	 mov	 edx, DWORD PTR _lrcSpaceBegin$[ebp+8]
  0244d	89 51 08	 mov	 DWORD PTR [ecx+8], edx
  02450	8b 45 f4	 mov	 eax, DWORD PTR _lrcSpaceBegin$[ebp+12]
  02453	89 41 0c	 mov	 DWORD PTR [ecx+12], eax
  02456	8b 4d 08	 mov	 ecx, DWORD PTR _hDC$[ebp]
  02459	51		 push	 ecx
  0245a	b9 00 00 00 00	 mov	 ecx, OFFSET FLAT:?gBitMapOperate@@3VCBitMapOperate@@A
  0245f	e8 00 00 00 00	 call	 ?FillRectangle@CBitMapOperate@@UAEXPAUHDC__@@UtagRECT@@KH@Z ; CBitMapOperate::FillRectangle

; 931  : 		gBitMapOperate.FillRectangle(hDC, lrcSpaceEnd, RGB(241, 241, 241), FALSE);

  02464	6a 00		 push	 0
  02466	68 f1 f1 f1 00	 push	 15856113		; 00f1f1f1H
  0246b	83 ec 10	 sub	 esp, 16			; 00000010H
  0246e	8b d4		 mov	 edx, esp
  02470	8b 45 d0	 mov	 eax, DWORD PTR _lrcSpaceEnd$[ebp]
  02473	89 02		 mov	 DWORD PTR [edx], eax
  02475	8b 4d d4	 mov	 ecx, DWORD PTR _lrcSpaceEnd$[ebp+4]
  02478	89 4a 04	 mov	 DWORD PTR [edx+4], ecx
  0247b	8b 45 d8	 mov	 eax, DWORD PTR _lrcSpaceEnd$[ebp+8]
  0247e	89 42 08	 mov	 DWORD PTR [edx+8], eax
  02481	8b 4d dc	 mov	 ecx, DWORD PTR _lrcSpaceEnd$[ebp+12]
  02484	89 4a 0c	 mov	 DWORD PTR [edx+12], ecx
  02487	8b 55 08	 mov	 edx, DWORD PTR _hDC$[ebp]
  0248a	52		 push	 edx
  0248b	b9 00 00 00 00	 mov	 ecx, OFFSET FLAT:?gBitMapOperate@@3VCBitMapOperate@@A
  02490	e8 00 00 00 00	 call	 ?FillRectangle@CBitMapOperate@@UAEXPAUHDC__@@UtagRECT@@KH@Z ; CBitMapOperate::FillRectangle
$L188067:

; 932  : 	}
; 933  : }

  02495	52		 push	 edx
  02496	8b cd		 mov	 ecx, ebp
  02498	50		 push	 eax
  02499	8d 15 00 00 00
	00		 lea	 edx, DWORD PTR $L189021
  0249f	e8 00 00 00 00	 call	 @_RTC_CheckStackVars@8
  024a4	58		 pop	 eax
  024a5	5a		 pop	 edx
  024a6	5f		 pop	 edi
  024a7	83 c4 74	 add	 esp, 116		; 00000074H
  024aa	3b ec		 cmp	 ebp, esp
  024ac	e8 00 00 00 00	 call	 __RTC_CheckEsp
  024b1	8b e5		 mov	 esp, ebp
  024b3	5d		 pop	 ebp
  024b4	c2 14 00	 ret	 20			; 00000014H
$L189021:
  024b7	04 00 00 00	 DD	 4
  024bb	00 00 00 00	 DD	 $L189020
$L189020:
  024bf	e8 ff ff ff	 DD	 -24			; ffffffe8H
  024c3	10 00 00 00	 DD	 16			; 00000010H
  024c7	00 00 00 00	 DD	 $L189016
  024cb	d0 ff ff ff	 DD	 -48			; ffffffd0H
  024cf	10 00 00 00	 DD	 16			; 00000010H
  024d3	00 00 00 00	 DD	 $L189017
  024d7	b8 ff ff ff	 DD	 -72			; ffffffb8H
  024db	10 00 00 00	 DD	 16			; 00000010H
  024df	00 00 00 00	 DD	 $L189018
  024e3	a0 ff ff ff	 DD	 -96			; ffffffa0H
  024e7	10 00 00 00	 DD	 16			; 00000010H
  024eb	00 00 00 00	 DD	 $L189019
$L189019:
  024ef	6c		 DB	 108			; 0000006cH
  024f0	72		 DB	 114			; 00000072H
  024f1	63		 DB	 99			; 00000063H
  024f2	42		 DB	 66			; 00000042H
  024f3	4b		 DB	 75			; 0000004bH
  024f4	00		 DB	 0
$L189018:
  024f5	6c		 DB	 108			; 0000006cH
  024f6	72		 DB	 114			; 00000072H
  024f7	63		 DB	 99			; 00000063H
  024f8	54		 DB	 84			; 00000054H
  024f9	68		 DB	 104			; 00000068H
  024fa	75		 DB	 117			; 00000075H
  024fb	6d		 DB	 109			; 0000006dH
  024fc	62		 DB	 98			; 00000062H
  024fd	00		 DB	 0
$L189017:
  024fe	6c		 DB	 108			; 0000006cH
  024ff	72		 DB	 114			; 00000072H
  02500	63		 DB	 99			; 00000063H
  02501	53		 DB	 83			; 00000053H
  02502	70		 DB	 112			; 00000070H
  02503	61		 DB	 97			; 00000061H
  02504	63		 DB	 99			; 00000063H
  02505	65		 DB	 101			; 00000065H
  02506	45		 DB	 69			; 00000045H
  02507	6e		 DB	 110			; 0000006eH
  02508	64		 DB	 100			; 00000064H
  02509	00		 DB	 0
$L189016:
  0250a	6c		 DB	 108			; 0000006cH
  0250b	72		 DB	 114			; 00000072H
  0250c	63		 DB	 99			; 00000063H
  0250d	53		 DB	 83			; 00000053H
  0250e	70		 DB	 112			; 00000070H
  0250f	61		 DB	 97			; 00000061H
  02510	63		 DB	 99			; 00000063H
  02511	65		 DB	 101			; 00000065H
  02512	42		 DB	 66			; 00000042H
  02513	65		 DB	 101			; 00000065H
  02514	67		 DB	 103			; 00000067H
  02515	69		 DB	 105			; 00000069H
  02516	6e		 DB	 110			; 0000006eH
  02517	00		 DB	 0
?DrawThumbSpace@CScrollBarEx@@AAEXPAUHDC__@@UtagRECT@@@Z ENDP ; CScrollBarEx::DrawThumbSpace
_TEXT	ENDS
PUBLIC	??0CMemDC@@QAE@PAVCDC@@ABVCRect@@@Z		; CMemDC::CMemDC
PUBLIC	??1CMemDC@@UAE@XZ				; CMemDC::~CMemDC
EXTRN	__imp__SetPixel@16:NEAR
EXTRN	??0CRect@@QAE@PBUtagRECT@@@Z:NEAR		; CRect::CRect
EXTRN	??BCDC@@QBEPAUHDC__@@XZ:NEAR			; CDC::operator HDC__ *
EXTRN	?FromHandle@CDC@@SGPAV1@PAUHDC__@@@Z:NEAR	; CDC::FromHandle
EXTRN	__imp__InflateRect@12:NEAR
EXTRN	?FillRectangle@CBitMapOperate@@UAEXPAUHDC__@@UtagRECT@@KKW4ENUM_DrawOrientation@1@HI@Z:NEAR ; CBitMapOperate::FillRectangle
xdata$x	SEGMENT
$T189050 DD	0ffffffffH
	DD	FLAT:$L189029
	DD	0ffffffffH
	DD	FLAT:$L189030
	DD	0ffffffffH
	DD	FLAT:$L189031
	DD	0ffffffffH
	DD	FLAT:$L189032
	DD	0ffffffffH
	DD	FLAT:$L189033
	DD	0ffffffffH
	DD	FLAT:$L189034
$T189036 DD	019930520H
	DD	06H
	DD	FLAT:$T189050
	DD	2 DUP(00H)
	DD	2 DUP(00H)
; Function compile flags: /Odt /RTCsu
xdata$x	ENDS
_TEXT	SEGMENT
tv67 = -508						; size = 4
$T189028 = -504						; size = 16
$T189027 = -488						; size = 16
$T189026 = -472						; size = 16
$T189025 = -456						; size = 16
$T189024 = -440						; size = 16
$T189023 = -424						; size = 16
_liLift$188149 = -408					; size = 4
_lDC$188146 = -400					; size = 44
_liLift$188144 = -352					; size = 4
_lDC$188141 = -344					; size = 44
_lDC$188137 = -292					; size = 44
_lDC$188134 = -240					; size = 44
_lDC$188131 = -188					; size = 44
_lDC$188128 = -136					; size = 44
_lre3$ = -84						; size = 16
_lre2$ = -60						; size = 16
_lre1$ = -36						; size = 16
_this$ = -16						; size = 4
__$EHRec$ = -12						; size = 12
_hDC$ = 8						; size = 4
_aRect$ = 12						; size = 16
_aiType$ = 28						; size = 4
?DrawHighlightFace@CScrollBarEx@@AAEXPAUHDC__@@UtagRECT@@H@Z PROC NEAR ; CScrollBarEx::DrawHighlightFace
; _this$ = ecx

; 944  : {

  02520	55		 push	 ebp
  02521	8b ec		 mov	 ebp, esp
  02523	6a ff		 push	 -1
  02525	68 00 00 00 00	 push	 __ehhandler$?DrawHighlightFace@CScrollBarEx@@AAEXPAUHDC__@@UtagRECT@@H@Z
  0252a	64 a1 00 00 00
	00		 mov	 eax, DWORD PTR fs:__except_list
  02530	50		 push	 eax
  02531	64 89 25 00 00
	00 00		 mov	 DWORD PTR fs:__except_list, esp
  02538	81 ec f0 01 00
	00		 sub	 esp, 496		; 000001f0H
  0253e	56		 push	 esi
  0253f	57		 push	 edi
  02540	51		 push	 ecx
  02541	8d bd 04 fe ff
	ff		 lea	 edi, DWORD PTR [ebp-508]
  02547	b9 7c 00 00 00	 mov	 ecx, 124		; 0000007cH
  0254c	b8 cc cc cc cc	 mov	 eax, -858993460		; ccccccccH
  02551	f3 ab		 rep stosd
  02553	59		 pop	 ecx
  02554	89 4d f0	 mov	 DWORD PTR _this$[ebp], ecx

; 945  : 	if (!mbEnabled)

  02557	8b 45 f0	 mov	 eax, DWORD PTR _this$[ebp]
  0255a	0f b6 88 98 00
	00 00		 movzx	 ecx, BYTE PTR [eax+152]
  02561	85 c9		 test	 ecx, ecx
  02563	75 05		 jne	 SHORT $L188119

; 946  : 		return;

  02565	e9 e0 11 00 00	 jmp	 $L188118
$L188119:

; 947  : 	InflateRect(&aRect, 1, 1);

  0256a	8b f4		 mov	 esi, esp
  0256c	6a 01		 push	 1
  0256e	6a 01		 push	 1
  02570	8d 55 0c	 lea	 edx, DWORD PTR _aRect$[ebp]
  02573	52		 push	 edx
  02574	ff 15 00 00 00
	00		 call	 DWORD PTR __imp__InflateRect@12
  0257a	3b f4		 cmp	 esi, esp
  0257c	e8 00 00 00 00	 call	 __RTC_CheckEsp

; 948  : 	RECT lre1 = aRect;

  02581	8b 45 0c	 mov	 eax, DWORD PTR _aRect$[ebp]
  02584	89 45 dc	 mov	 DWORD PTR _lre1$[ebp], eax
  02587	8b 4d 10	 mov	 ecx, DWORD PTR _aRect$[ebp+4]
  0258a	89 4d e0	 mov	 DWORD PTR _lre1$[ebp+4], ecx
  0258d	8b 55 14	 mov	 edx, DWORD PTR _aRect$[ebp+8]
  02590	89 55 e4	 mov	 DWORD PTR _lre1$[ebp+8], edx
  02593	8b 45 18	 mov	 eax, DWORD PTR _aRect$[ebp+12]
  02596	89 45 e8	 mov	 DWORD PTR _lre1$[ebp+12], eax

; 949  : 	InflateRect(&aRect, -1, -1);

  02599	8b f4		 mov	 esi, esp
  0259b	6a ff		 push	 -1
  0259d	6a ff		 push	 -1
  0259f	8d 4d 0c	 lea	 ecx, DWORD PTR _aRect$[ebp]
  025a2	51		 push	 ecx
  025a3	ff 15 00 00 00
	00		 call	 DWORD PTR __imp__InflateRect@12
  025a9	3b f4		 cmp	 esi, esp
  025ab	e8 00 00 00 00	 call	 __RTC_CheckEsp

; 950  : 	RECT lre2 = aRect;

  025b0	8b 55 0c	 mov	 edx, DWORD PTR _aRect$[ebp]
  025b3	89 55 c4	 mov	 DWORD PTR _lre2$[ebp], edx
  025b6	8b 45 10	 mov	 eax, DWORD PTR _aRect$[ebp+4]
  025b9	89 45 c8	 mov	 DWORD PTR _lre2$[ebp+4], eax
  025bc	8b 4d 14	 mov	 ecx, DWORD PTR _aRect$[ebp+8]
  025bf	89 4d cc	 mov	 DWORD PTR _lre2$[ebp+8], ecx
  025c2	8b 55 18	 mov	 edx, DWORD PTR _aRect$[ebp+12]
  025c5	89 55 d0	 mov	 DWORD PTR _lre2$[ebp+12], edx

; 951  : 	InflateRect(&aRect, -1, -1);

  025c8	8b f4		 mov	 esi, esp
  025ca	6a ff		 push	 -1
  025cc	6a ff		 push	 -1
  025ce	8d 45 0c	 lea	 eax, DWORD PTR _aRect$[ebp]
  025d1	50		 push	 eax
  025d2	ff 15 00 00 00
	00		 call	 DWORD PTR __imp__InflateRect@12
  025d8	3b f4		 cmp	 esi, esp
  025da	e8 00 00 00 00	 call	 __RTC_CheckEsp

; 952  : 	RECT lre3 = aRect;

  025df	8b 4d 0c	 mov	 ecx, DWORD PTR _aRect$[ebp]
  025e2	89 4d ac	 mov	 DWORD PTR _lre3$[ebp], ecx
  025e5	8b 55 10	 mov	 edx, DWORD PTR _aRect$[ebp+4]
  025e8	89 55 b0	 mov	 DWORD PTR _lre3$[ebp+4], edx
  025eb	8b 45 14	 mov	 eax, DWORD PTR _aRect$[ebp+8]
  025ee	89 45 b4	 mov	 DWORD PTR _lre3$[ebp+8], eax
  025f1	8b 4d 18	 mov	 ecx, DWORD PTR _aRect$[ebp+12]
  025f4	89 4d b8	 mov	 DWORD PTR _lre3$[ebp+12], ecx

; 953  : 
; 954  : 	switch(aiType)

  025f7	8b 55 1c	 mov	 edx, DWORD PTR _aiType$[ebp]
  025fa	89 95 04 fe ff
	ff		 mov	 DWORD PTR tv67[ebp], edx
  02600	83 bd 04 fe ff
	ff 04		 cmp	 DWORD PTR tv67[ebp], 4
  02607	0f 87 3d 11 00
	00		 ja	 $L188118
  0260d	8b 85 04 fe ff
	ff		 mov	 eax, DWORD PTR tv67[ebp]
  02613	ff 24 85 00 00
	00 00		 jmp	 DWORD PTR $L189049[eax*4]
$L188127:

; 955  : 	{
; 956  : 	case 0:		//左箭头
; 957  : 		{
; 958  : 			CMemDC lDC(CDC::FromHandle(hDC), &lre1);

  0261a	8d 4d dc	 lea	 ecx, DWORD PTR _lre1$[ebp]
  0261d	51		 push	 ecx
  0261e	8d 8d 58 fe ff
	ff		 lea	 ecx, DWORD PTR $T189023[ebp]
  02624	e8 00 00 00 00	 call	 ??0CRect@@QAE@PBUtagRECT@@@Z ; CRect::CRect
  02629	8d 95 58 fe ff
	ff		 lea	 edx, DWORD PTR $T189023[ebp]
  0262f	52		 push	 edx
  02630	8b 45 08	 mov	 eax, DWORD PTR _hDC$[ebp]
  02633	50		 push	 eax
  02634	e8 00 00 00 00	 call	 ?FromHandle@CDC@@SGPAV1@PAUHDC__@@@Z ; CDC::FromHandle
  02639	50		 push	 eax
  0263a	8d 8d 78 ff ff
	ff		 lea	 ecx, DWORD PTR _lDC$188128[ebp]
  02640	e8 00 00 00 00	 call	 ??0CMemDC@@QAE@PAVCDC@@ABVCRect@@@Z ; CMemDC::CMemDC
  02645	c7 45 fc 00 00
	00 00		 mov	 DWORD PTR __$EHRec$[ebp+8], 0

; 959  : 			gBitMapOperate.FillRectangle(lDC, lre1, mcolFrame1, FALSE);

  0264c	6a 00		 push	 0
  0264e	8b 4d f0	 mov	 ecx, DWORD PTR _this$[ebp]
  02651	8b 91 c8 00 00
	00		 mov	 edx, DWORD PTR [ecx+200]
  02657	52		 push	 edx
  02658	83 ec 10	 sub	 esp, 16			; 00000010H
  0265b	8b c4		 mov	 eax, esp
  0265d	8b 4d dc	 mov	 ecx, DWORD PTR _lre1$[ebp]
  02660	89 08		 mov	 DWORD PTR [eax], ecx
  02662	8b 55 e0	 mov	 edx, DWORD PTR _lre1$[ebp+4]
  02665	89 50 04	 mov	 DWORD PTR [eax+4], edx
  02668	8b 4d e4	 mov	 ecx, DWORD PTR _lre1$[ebp+8]
  0266b	89 48 08	 mov	 DWORD PTR [eax+8], ecx
  0266e	8b 55 e8	 mov	 edx, DWORD PTR _lre1$[ebp+12]
  02671	89 50 0c	 mov	 DWORD PTR [eax+12], edx
  02674	8d 8d 78 ff ff
	ff		 lea	 ecx, DWORD PTR _lDC$188128[ebp]
  0267a	e8 00 00 00 00	 call	 ??BCDC@@QBEPAUHDC__@@XZ	; CDC::operator HDC__ *
  0267f	50		 push	 eax
  02680	b9 00 00 00 00	 mov	 ecx, OFFSET FLAT:?gBitMapOperate@@3VCBitMapOperate@@A
  02685	e8 00 00 00 00	 call	 ?FillRectangle@CBitMapOperate@@UAEXPAUHDC__@@UtagRECT@@KH@Z ; CBitMapOperate::FillRectangle

; 960  : 			gBitMapOperate.FillRectangle(lDC, lre2, mcolFrame2, FALSE);

  0268a	6a 00		 push	 0
  0268c	8b 45 f0	 mov	 eax, DWORD PTR _this$[ebp]
  0268f	8b 88 cc 00 00
	00		 mov	 ecx, DWORD PTR [eax+204]
  02695	51		 push	 ecx
  02696	83 ec 10	 sub	 esp, 16			; 00000010H
  02699	8b d4		 mov	 edx, esp
  0269b	8b 45 c4	 mov	 eax, DWORD PTR _lre2$[ebp]
  0269e	89 02		 mov	 DWORD PTR [edx], eax
  026a0	8b 4d c8	 mov	 ecx, DWORD PTR _lre2$[ebp+4]
  026a3	89 4a 04	 mov	 DWORD PTR [edx+4], ecx
  026a6	8b 45 cc	 mov	 eax, DWORD PTR _lre2$[ebp+8]
  026a9	89 42 08	 mov	 DWORD PTR [edx+8], eax
  026ac	8b 4d d0	 mov	 ecx, DWORD PTR _lre2$[ebp+12]
  026af	89 4a 0c	 mov	 DWORD PTR [edx+12], ecx
  026b2	8d 8d 78 ff ff
	ff		 lea	 ecx, DWORD PTR _lDC$188128[ebp]
  026b8	e8 00 00 00 00	 call	 ??BCDC@@QBEPAUHDC__@@XZ	; CDC::operator HDC__ *
  026bd	50		 push	 eax
  026be	b9 00 00 00 00	 mov	 ecx, OFFSET FLAT:?gBitMapOperate@@3VCBitMapOperate@@A
  026c3	e8 00 00 00 00	 call	 ?FillRectangle@CBitMapOperate@@UAEXPAUHDC__@@UtagRECT@@KH@Z ; CBitMapOperate::FillRectangle

; 961  : 			gBitMapOperate.FillRectangle(lDC, lre3, mcolBtn1,mcolBtn2,gBitMapOperate.edoVertical,FALSE);

  026c8	6a 01		 push	 1
  026ca	6a 00		 push	 0
  026cc	6a 01		 push	 1
  026ce	8b 55 f0	 mov	 edx, DWORD PTR _this$[ebp]
  026d1	8b 82 d4 00 00
	00		 mov	 eax, DWORD PTR [edx+212]
  026d7	50		 push	 eax
  026d8	8b 4d f0	 mov	 ecx, DWORD PTR _this$[ebp]
  026db	8b 91 d0 00 00
	00		 mov	 edx, DWORD PTR [ecx+208]
  026e1	52		 push	 edx
  026e2	83 ec 10	 sub	 esp, 16			; 00000010H
  026e5	8b c4		 mov	 eax, esp
  026e7	8b 4d ac	 mov	 ecx, DWORD PTR _lre3$[ebp]
  026ea	89 08		 mov	 DWORD PTR [eax], ecx
  026ec	8b 55 b0	 mov	 edx, DWORD PTR _lre3$[ebp+4]
  026ef	89 50 04	 mov	 DWORD PTR [eax+4], edx
  026f2	8b 4d b4	 mov	 ecx, DWORD PTR _lre3$[ebp+8]
  026f5	89 48 08	 mov	 DWORD PTR [eax+8], ecx
  026f8	8b 55 b8	 mov	 edx, DWORD PTR _lre3$[ebp+12]
  026fb	89 50 0c	 mov	 DWORD PTR [eax+12], edx
  026fe	8d 8d 78 ff ff
	ff		 lea	 ecx, DWORD PTR _lDC$188128[ebp]
  02704	e8 00 00 00 00	 call	 ??BCDC@@QBEPAUHDC__@@XZ	; CDC::operator HDC__ *
  02709	50		 push	 eax
  0270a	b9 00 00 00 00	 mov	 ecx, OFFSET FLAT:?gBitMapOperate@@3VCBitMapOperate@@A
  0270f	e8 00 00 00 00	 call	 ?FillRectangle@CBitMapOperate@@UAEXPAUHDC__@@UtagRECT@@KKW4ENUM_DrawOrientation@1@HI@Z ; CBitMapOperate::FillRectangle

; 962  : 			SetPixel(lDC,lre1.left,lre1.top, mcolNormal1);

  02714	8b f4		 mov	 esi, esp
  02716	8b 45 f0	 mov	 eax, DWORD PTR _this$[ebp]
  02719	8b 88 b0 00 00
	00		 mov	 ecx, DWORD PTR [eax+176]
  0271f	51		 push	 ecx
  02720	8b 55 e0	 mov	 edx, DWORD PTR _lre1$[ebp+4]
  02723	52		 push	 edx
  02724	8b 45 dc	 mov	 eax, DWORD PTR _lre1$[ebp]
  02727	50		 push	 eax
  02728	8d 8d 78 ff ff
	ff		 lea	 ecx, DWORD PTR _lDC$188128[ebp]
  0272e	e8 00 00 00 00	 call	 ??BCDC@@QBEPAUHDC__@@XZ	; CDC::operator HDC__ *
  02733	50		 push	 eax
  02734	ff 15 00 00 00
	00		 call	 DWORD PTR __imp__SetPixel@16
  0273a	3b f4		 cmp	 esi, esp
  0273c	e8 00 00 00 00	 call	 __RTC_CheckEsp

; 963  : 			SetPixel(lDC,lre1.right -1,lre1.top, mcolNormal1);

  02741	8b f4		 mov	 esi, esp
  02743	8b 4d f0	 mov	 ecx, DWORD PTR _this$[ebp]
  02746	8b 91 b0 00 00
	00		 mov	 edx, DWORD PTR [ecx+176]
  0274c	52		 push	 edx
  0274d	8b 45 e0	 mov	 eax, DWORD PTR _lre1$[ebp+4]
  02750	50		 push	 eax
  02751	8b 4d e4	 mov	 ecx, DWORD PTR _lre1$[ebp+8]
  02754	83 e9 01	 sub	 ecx, 1
  02757	51		 push	 ecx
  02758	8d 8d 78 ff ff
	ff		 lea	 ecx, DWORD PTR _lDC$188128[ebp]
  0275e	e8 00 00 00 00	 call	 ??BCDC@@QBEPAUHDC__@@XZ	; CDC::operator HDC__ *
  02763	50		 push	 eax
  02764	ff 15 00 00 00
	00		 call	 DWORD PTR __imp__SetPixel@16
  0276a	3b f4		 cmp	 esi, esp
  0276c	e8 00 00 00 00	 call	 __RTC_CheckEsp

; 964  : 			SetPixel(lDC,lre1.right -1,lre1.bottom-1, mcolNormal1);

  02771	8b f4		 mov	 esi, esp
  02773	8b 55 f0	 mov	 edx, DWORD PTR _this$[ebp]
  02776	8b 82 b0 00 00
	00		 mov	 eax, DWORD PTR [edx+176]
  0277c	50		 push	 eax
  0277d	8b 4d e8	 mov	 ecx, DWORD PTR _lre1$[ebp+12]
  02780	83 e9 01	 sub	 ecx, 1
  02783	51		 push	 ecx
  02784	8b 55 e4	 mov	 edx, DWORD PTR _lre1$[ebp+8]
  02787	83 ea 01	 sub	 edx, 1
  0278a	52		 push	 edx
  0278b	8d 8d 78 ff ff
	ff		 lea	 ecx, DWORD PTR _lDC$188128[ebp]
  02791	e8 00 00 00 00	 call	 ??BCDC@@QBEPAUHDC__@@XZ	; CDC::operator HDC__ *
  02796	50		 push	 eax
  02797	ff 15 00 00 00
	00		 call	 DWORD PTR __imp__SetPixel@16
  0279d	3b f4		 cmp	 esi, esp
  0279f	e8 00 00 00 00	 call	 __RTC_CheckEsp

; 965  : 			SetPixel(lDC,lre1.left,lre1.bottom-1, mcolNormal1);

  027a4	8b f4		 mov	 esi, esp
  027a6	8b 45 f0	 mov	 eax, DWORD PTR _this$[ebp]
  027a9	8b 88 b0 00 00
	00		 mov	 ecx, DWORD PTR [eax+176]
  027af	51		 push	 ecx
  027b0	8b 55 e8	 mov	 edx, DWORD PTR _lre1$[ebp+12]
  027b3	83 ea 01	 sub	 edx, 1
  027b6	52		 push	 edx
  027b7	8b 45 dc	 mov	 eax, DWORD PTR _lre1$[ebp]
  027ba	50		 push	 eax
  027bb	8d 8d 78 ff ff
	ff		 lea	 ecx, DWORD PTR _lDC$188128[ebp]
  027c1	e8 00 00 00 00	 call	 ??BCDC@@QBEPAUHDC__@@XZ	; CDC::operator HDC__ *
  027c6	50		 push	 eax
  027c7	ff 15 00 00 00
	00		 call	 DWORD PTR __imp__SetPixel@16
  027cd	3b f4		 cmp	 esi, esp
  027cf	e8 00 00 00 00	 call	 __RTC_CheckEsp

; 966  : 
; 967  : 			gBitMapOperate.DrawLine(lDC, mcolFont, 1,  lre2.left+6, lre2.top+4, lre2.left+4, lre2.top+6, FALSE);

  027d4	6a 00		 push	 0
  027d6	8b 4d c8	 mov	 ecx, DWORD PTR _lre2$[ebp+4]
  027d9	83 c1 06	 add	 ecx, 6
  027dc	51		 push	 ecx
  027dd	8b 55 c4	 mov	 edx, DWORD PTR _lre2$[ebp]
  027e0	83 c2 04	 add	 edx, 4
  027e3	52		 push	 edx
  027e4	8b 45 c8	 mov	 eax, DWORD PTR _lre2$[ebp+4]
  027e7	83 c0 04	 add	 eax, 4
  027ea	50		 push	 eax
  027eb	8b 4d c4	 mov	 ecx, DWORD PTR _lre2$[ebp]
  027ee	83 c1 06	 add	 ecx, 6
  027f1	51		 push	 ecx
  027f2	68 00 00 80 3f	 push	 1065353216		; 3f800000H
  027f7	8b 55 f0	 mov	 edx, DWORD PTR _this$[ebp]
  027fa	8b 82 d8 00 00
	00		 mov	 eax, DWORD PTR [edx+216]
  02800	50		 push	 eax
  02801	8d 8d 78 ff ff
	ff		 lea	 ecx, DWORD PTR _lDC$188128[ebp]
  02807	e8 00 00 00 00	 call	 ??BCDC@@QBEPAUHDC__@@XZ	; CDC::operator HDC__ *
  0280c	50		 push	 eax
  0280d	b9 00 00 00 00	 mov	 ecx, OFFSET FLAT:?gBitMapOperate@@3VCBitMapOperate@@A
  02812	e8 00 00 00 00	 call	 ?DrawLine@CBitMapOperate@@UAEXPAUHDC__@@KMHHHHH@Z ; CBitMapOperate::DrawLine

; 968  : 			gBitMapOperate.DrawLine(lDC, mcolFont, 1,  lre2.left+4, lre2.top+6, lre2.left+7, lre2.top+9, FALSE);

  02817	6a 00		 push	 0
  02819	8b 4d c8	 mov	 ecx, DWORD PTR _lre2$[ebp+4]
  0281c	83 c1 09	 add	 ecx, 9
  0281f	51		 push	 ecx
  02820	8b 55 c4	 mov	 edx, DWORD PTR _lre2$[ebp]
  02823	83 c2 07	 add	 edx, 7
  02826	52		 push	 edx
  02827	8b 45 c8	 mov	 eax, DWORD PTR _lre2$[ebp+4]
  0282a	83 c0 06	 add	 eax, 6
  0282d	50		 push	 eax
  0282e	8b 4d c4	 mov	 ecx, DWORD PTR _lre2$[ebp]
  02831	83 c1 04	 add	 ecx, 4
  02834	51		 push	 ecx
  02835	68 00 00 80 3f	 push	 1065353216		; 3f800000H
  0283a	8b 55 f0	 mov	 edx, DWORD PTR _this$[ebp]
  0283d	8b 82 d8 00 00
	00		 mov	 eax, DWORD PTR [edx+216]
  02843	50		 push	 eax
  02844	8d 8d 78 ff ff
	ff		 lea	 ecx, DWORD PTR _lDC$188128[ebp]
  0284a	e8 00 00 00 00	 call	 ??BCDC@@QBEPAUHDC__@@XZ	; CDC::operator HDC__ *
  0284f	50		 push	 eax
  02850	b9 00 00 00 00	 mov	 ecx, OFFSET FLAT:?gBitMapOperate@@3VCBitMapOperate@@A
  02855	e8 00 00 00 00	 call	 ?DrawLine@CBitMapOperate@@UAEXPAUHDC__@@KMHHHHH@Z ; CBitMapOperate::DrawLine

; 969  : 			gBitMapOperate.DrawLine(lDC, mcolFont, 1,  lre2.left+6, lre2.top+3, lre2.left+3, lre2.top+6, FALSE);

  0285a	6a 00		 push	 0
  0285c	8b 4d c8	 mov	 ecx, DWORD PTR _lre2$[ebp+4]
  0285f	83 c1 06	 add	 ecx, 6
  02862	51		 push	 ecx
  02863	8b 55 c4	 mov	 edx, DWORD PTR _lre2$[ebp]
  02866	83 c2 03	 add	 edx, 3
  02869	52		 push	 edx
  0286a	8b 45 c8	 mov	 eax, DWORD PTR _lre2$[ebp+4]
  0286d	83 c0 03	 add	 eax, 3
  02870	50		 push	 eax
  02871	8b 4d c4	 mov	 ecx, DWORD PTR _lre2$[ebp]
  02874	83 c1 06	 add	 ecx, 6
  02877	51		 push	 ecx
  02878	68 00 00 80 3f	 push	 1065353216		; 3f800000H
  0287d	8b 55 f0	 mov	 edx, DWORD PTR _this$[ebp]
  02880	8b 82 d8 00 00
	00		 mov	 eax, DWORD PTR [edx+216]
  02886	50		 push	 eax
  02887	8d 8d 78 ff ff
	ff		 lea	 ecx, DWORD PTR _lDC$188128[ebp]
  0288d	e8 00 00 00 00	 call	 ??BCDC@@QBEPAUHDC__@@XZ	; CDC::operator HDC__ *
  02892	50		 push	 eax
  02893	b9 00 00 00 00	 mov	 ecx, OFFSET FLAT:?gBitMapOperate@@3VCBitMapOperate@@A
  02898	e8 00 00 00 00	 call	 ?DrawLine@CBitMapOperate@@UAEXPAUHDC__@@KMHHHHH@Z ; CBitMapOperate::DrawLine

; 970  : 			gBitMapOperate.DrawLine(lDC, mcolFont, 1,  lre2.left+3, lre2.top+6, lre2.left+7, lre2.top+10, FALSE);

  0289d	6a 00		 push	 0
  0289f	8b 4d c8	 mov	 ecx, DWORD PTR _lre2$[ebp+4]
  028a2	83 c1 0a	 add	 ecx, 10			; 0000000aH
  028a5	51		 push	 ecx
  028a6	8b 55 c4	 mov	 edx, DWORD PTR _lre2$[ebp]
  028a9	83 c2 07	 add	 edx, 7
  028ac	52		 push	 edx
  028ad	8b 45 c8	 mov	 eax, DWORD PTR _lre2$[ebp+4]
  028b0	83 c0 06	 add	 eax, 6
  028b3	50		 push	 eax
  028b4	8b 4d c4	 mov	 ecx, DWORD PTR _lre2$[ebp]
  028b7	83 c1 03	 add	 ecx, 3
  028ba	51		 push	 ecx
  028bb	68 00 00 80 3f	 push	 1065353216		; 3f800000H
  028c0	8b 55 f0	 mov	 edx, DWORD PTR _this$[ebp]
  028c3	8b 82 d8 00 00
	00		 mov	 eax, DWORD PTR [edx+216]
  028c9	50		 push	 eax
  028ca	8d 8d 78 ff ff
	ff		 lea	 ecx, DWORD PTR _lDC$188128[ebp]
  028d0	e8 00 00 00 00	 call	 ??BCDC@@QBEPAUHDC__@@XZ	; CDC::operator HDC__ *
  028d5	50		 push	 eax
  028d6	b9 00 00 00 00	 mov	 ecx, OFFSET FLAT:?gBitMapOperate@@3VCBitMapOperate@@A
  028db	e8 00 00 00 00	 call	 ?DrawLine@CBitMapOperate@@UAEXPAUHDC__@@KMHHHHH@Z ; CBitMapOperate::DrawLine

; 971  : 
; 972  : 		}

  028e0	c7 45 fc ff ff
	ff ff		 mov	 DWORD PTR __$EHRec$[ebp+8], -1
  028e7	8d 8d 78 ff ff
	ff		 lea	 ecx, DWORD PTR _lDC$188128[ebp]
  028ed	e8 00 00 00 00	 call	 ??1CMemDC@@UAE@XZ	; CMemDC::~CMemDC

; 973  : 		break;

  028f2	e9 53 0e 00 00	 jmp	 $L188118
$L188130:

; 974  : 	case 1:		//右箭头
; 975  : 		{
; 976  : 			CMemDC lDC(CDC::FromHandle(hDC), &lre1);

  028f7	8d 4d dc	 lea	 ecx, DWORD PTR _lre1$[ebp]
  028fa	51		 push	 ecx
  028fb	8d 8d 48 fe ff
	ff		 lea	 ecx, DWORD PTR $T189024[ebp]
  02901	e8 00 00 00 00	 call	 ??0CRect@@QAE@PBUtagRECT@@@Z ; CRect::CRect
  02906	8d 95 48 fe ff
	ff		 lea	 edx, DWORD PTR $T189024[ebp]
  0290c	52		 push	 edx
  0290d	8b 45 08	 mov	 eax, DWORD PTR _hDC$[ebp]
  02910	50		 push	 eax
  02911	e8 00 00 00 00	 call	 ?FromHandle@CDC@@SGPAV1@PAUHDC__@@@Z ; CDC::FromHandle
  02916	50		 push	 eax
  02917	8d 8d 44 ff ff
	ff		 lea	 ecx, DWORD PTR _lDC$188131[ebp]
  0291d	e8 00 00 00 00	 call	 ??0CMemDC@@QAE@PAVCDC@@ABVCRect@@@Z ; CMemDC::CMemDC
  02922	c7 45 fc 01 00
	00 00		 mov	 DWORD PTR __$EHRec$[ebp+8], 1

; 977  : 			gBitMapOperate.FillRectangle(lDC, lre1, mcolFrame1, FALSE);

  02929	6a 00		 push	 0
  0292b	8b 4d f0	 mov	 ecx, DWORD PTR _this$[ebp]
  0292e	8b 91 c8 00 00
	00		 mov	 edx, DWORD PTR [ecx+200]
  02934	52		 push	 edx
  02935	83 ec 10	 sub	 esp, 16			; 00000010H
  02938	8b c4		 mov	 eax, esp
  0293a	8b 4d dc	 mov	 ecx, DWORD PTR _lre1$[ebp]
  0293d	89 08		 mov	 DWORD PTR [eax], ecx
  0293f	8b 55 e0	 mov	 edx, DWORD PTR _lre1$[ebp+4]
  02942	89 50 04	 mov	 DWORD PTR [eax+4], edx
  02945	8b 4d e4	 mov	 ecx, DWORD PTR _lre1$[ebp+8]
  02948	89 48 08	 mov	 DWORD PTR [eax+8], ecx
  0294b	8b 55 e8	 mov	 edx, DWORD PTR _lre1$[ebp+12]
  0294e	89 50 0c	 mov	 DWORD PTR [eax+12], edx
  02951	8d 8d 44 ff ff
	ff		 lea	 ecx, DWORD PTR _lDC$188131[ebp]
  02957	e8 00 00 00 00	 call	 ??BCDC@@QBEPAUHDC__@@XZ	; CDC::operator HDC__ *
  0295c	50		 push	 eax
  0295d	b9 00 00 00 00	 mov	 ecx, OFFSET FLAT:?gBitMapOperate@@3VCBitMapOperate@@A
  02962	e8 00 00 00 00	 call	 ?FillRectangle@CBitMapOperate@@UAEXPAUHDC__@@UtagRECT@@KH@Z ; CBitMapOperate::FillRectangle

; 978  : 			gBitMapOperate.FillRectangle(lDC, lre2, mcolFrame2, FALSE);

  02967	6a 00		 push	 0
  02969	8b 45 f0	 mov	 eax, DWORD PTR _this$[ebp]
  0296c	8b 88 cc 00 00
	00		 mov	 ecx, DWORD PTR [eax+204]
  02972	51		 push	 ecx
  02973	83 ec 10	 sub	 esp, 16			; 00000010H
  02976	8b d4		 mov	 edx, esp
  02978	8b 45 c4	 mov	 eax, DWORD PTR _lre2$[ebp]
  0297b	89 02		 mov	 DWORD PTR [edx], eax
  0297d	8b 4d c8	 mov	 ecx, DWORD PTR _lre2$[ebp+4]
  02980	89 4a 04	 mov	 DWORD PTR [edx+4], ecx
  02983	8b 45 cc	 mov	 eax, DWORD PTR _lre2$[ebp+8]
  02986	89 42 08	 mov	 DWORD PTR [edx+8], eax
  02989	8b 4d d0	 mov	 ecx, DWORD PTR _lre2$[ebp+12]
  0298c	89 4a 0c	 mov	 DWORD PTR [edx+12], ecx
  0298f	8d 8d 44 ff ff
	ff		 lea	 ecx, DWORD PTR _lDC$188131[ebp]
  02995	e8 00 00 00 00	 call	 ??BCDC@@QBEPAUHDC__@@XZ	; CDC::operator HDC__ *
  0299a	50		 push	 eax
  0299b	b9 00 00 00 00	 mov	 ecx, OFFSET FLAT:?gBitMapOperate@@3VCBitMapOperate@@A
  029a0	e8 00 00 00 00	 call	 ?FillRectangle@CBitMapOperate@@UAEXPAUHDC__@@UtagRECT@@KH@Z ; CBitMapOperate::FillRectangle

; 979  : 			gBitMapOperate.FillRectangle(lDC, lre3, mcolBtn2,mcolBtn1,gBitMapOperate.edoVertical,FALSE);

  029a5	6a 01		 push	 1
  029a7	6a 00		 push	 0
  029a9	6a 01		 push	 1
  029ab	8b 55 f0	 mov	 edx, DWORD PTR _this$[ebp]
  029ae	8b 82 d0 00 00
	00		 mov	 eax, DWORD PTR [edx+208]
  029b4	50		 push	 eax
  029b5	8b 4d f0	 mov	 ecx, DWORD PTR _this$[ebp]
  029b8	8b 91 d4 00 00
	00		 mov	 edx, DWORD PTR [ecx+212]
  029be	52		 push	 edx
  029bf	83 ec 10	 sub	 esp, 16			; 00000010H
  029c2	8b c4		 mov	 eax, esp
  029c4	8b 4d ac	 mov	 ecx, DWORD PTR _lre3$[ebp]
  029c7	89 08		 mov	 DWORD PTR [eax], ecx
  029c9	8b 55 b0	 mov	 edx, DWORD PTR _lre3$[ebp+4]
  029cc	89 50 04	 mov	 DWORD PTR [eax+4], edx
  029cf	8b 4d b4	 mov	 ecx, DWORD PTR _lre3$[ebp+8]
  029d2	89 48 08	 mov	 DWORD PTR [eax+8], ecx
  029d5	8b 55 b8	 mov	 edx, DWORD PTR _lre3$[ebp+12]
  029d8	89 50 0c	 mov	 DWORD PTR [eax+12], edx
  029db	8d 8d 44 ff ff
	ff		 lea	 ecx, DWORD PTR _lDC$188131[ebp]
  029e1	e8 00 00 00 00	 call	 ??BCDC@@QBEPAUHDC__@@XZ	; CDC::operator HDC__ *
  029e6	50		 push	 eax
  029e7	b9 00 00 00 00	 mov	 ecx, OFFSET FLAT:?gBitMapOperate@@3VCBitMapOperate@@A
  029ec	e8 00 00 00 00	 call	 ?FillRectangle@CBitMapOperate@@UAEXPAUHDC__@@UtagRECT@@KKW4ENUM_DrawOrientation@1@HI@Z ; CBitMapOperate::FillRectangle

; 980  : 			SetPixel(lDC,lre1.left,lre1.top, mcolNormal1);

  029f1	8b f4		 mov	 esi, esp
  029f3	8b 45 f0	 mov	 eax, DWORD PTR _this$[ebp]
  029f6	8b 88 b0 00 00
	00		 mov	 ecx, DWORD PTR [eax+176]
  029fc	51		 push	 ecx
  029fd	8b 55 e0	 mov	 edx, DWORD PTR _lre1$[ebp+4]
  02a00	52		 push	 edx
  02a01	8b 45 dc	 mov	 eax, DWORD PTR _lre1$[ebp]
  02a04	50		 push	 eax
  02a05	8d 8d 44 ff ff
	ff		 lea	 ecx, DWORD PTR _lDC$188131[ebp]
  02a0b	e8 00 00 00 00	 call	 ??BCDC@@QBEPAUHDC__@@XZ	; CDC::operator HDC__ *
  02a10	50		 push	 eax
  02a11	ff 15 00 00 00
	00		 call	 DWORD PTR __imp__SetPixel@16
  02a17	3b f4		 cmp	 esi, esp
  02a19	e8 00 00 00 00	 call	 __RTC_CheckEsp

; 981  : 			SetPixel(lDC,lre1.right -1,lre1.top, mcolNormal1);

  02a1e	8b f4		 mov	 esi, esp
  02a20	8b 4d f0	 mov	 ecx, DWORD PTR _this$[ebp]
  02a23	8b 91 b0 00 00
	00		 mov	 edx, DWORD PTR [ecx+176]
  02a29	52		 push	 edx
  02a2a	8b 45 e0	 mov	 eax, DWORD PTR _lre1$[ebp+4]
  02a2d	50		 push	 eax
  02a2e	8b 4d e4	 mov	 ecx, DWORD PTR _lre1$[ebp+8]
  02a31	83 e9 01	 sub	 ecx, 1
  02a34	51		 push	 ecx
  02a35	8d 8d 44 ff ff
	ff		 lea	 ecx, DWORD PTR _lDC$188131[ebp]
  02a3b	e8 00 00 00 00	 call	 ??BCDC@@QBEPAUHDC__@@XZ	; CDC::operator HDC__ *
  02a40	50		 push	 eax
  02a41	ff 15 00 00 00
	00		 call	 DWORD PTR __imp__SetPixel@16
  02a47	3b f4		 cmp	 esi, esp
  02a49	e8 00 00 00 00	 call	 __RTC_CheckEsp

; 982  : 			SetPixel(lDC,lre1.right -1,lre1.bottom-1, mcolNormal1);

  02a4e	8b f4		 mov	 esi, esp
  02a50	8b 55 f0	 mov	 edx, DWORD PTR _this$[ebp]
  02a53	8b 82 b0 00 00
	00		 mov	 eax, DWORD PTR [edx+176]
  02a59	50		 push	 eax
  02a5a	8b 4d e8	 mov	 ecx, DWORD PTR _lre1$[ebp+12]
  02a5d	83 e9 01	 sub	 ecx, 1
  02a60	51		 push	 ecx
  02a61	8b 55 e4	 mov	 edx, DWORD PTR _lre1$[ebp+8]
  02a64	83 ea 01	 sub	 edx, 1
  02a67	52		 push	 edx
  02a68	8d 8d 44 ff ff
	ff		 lea	 ecx, DWORD PTR _lDC$188131[ebp]
  02a6e	e8 00 00 00 00	 call	 ??BCDC@@QBEPAUHDC__@@XZ	; CDC::operator HDC__ *
  02a73	50		 push	 eax
  02a74	ff 15 00 00 00
	00		 call	 DWORD PTR __imp__SetPixel@16
  02a7a	3b f4		 cmp	 esi, esp
  02a7c	e8 00 00 00 00	 call	 __RTC_CheckEsp

; 983  : 			SetPixel(lDC,lre1.left,lre1.bottom-1, mcolNormal1);

  02a81	8b f4		 mov	 esi, esp
  02a83	8b 45 f0	 mov	 eax, DWORD PTR _this$[ebp]
  02a86	8b 88 b0 00 00
	00		 mov	 ecx, DWORD PTR [eax+176]
  02a8c	51		 push	 ecx
  02a8d	8b 55 e8	 mov	 edx, DWORD PTR _lre1$[ebp+12]
  02a90	83 ea 01	 sub	 edx, 1
  02a93	52		 push	 edx
  02a94	8b 45 dc	 mov	 eax, DWORD PTR _lre1$[ebp]
  02a97	50		 push	 eax
  02a98	8d 8d 44 ff ff
	ff		 lea	 ecx, DWORD PTR _lDC$188131[ebp]
  02a9e	e8 00 00 00 00	 call	 ??BCDC@@QBEPAUHDC__@@XZ	; CDC::operator HDC__ *
  02aa3	50		 push	 eax
  02aa4	ff 15 00 00 00
	00		 call	 DWORD PTR __imp__SetPixel@16
  02aaa	3b f4		 cmp	 esi, esp
  02aac	e8 00 00 00 00	 call	 __RTC_CheckEsp

; 984  : 
; 985  : 			gBitMapOperate.DrawLine(lDC, mcolFont, 1,  lre2.left+6, lre2.top+4, lre2.left+8, lre2.top+6, FALSE);

  02ab1	6a 00		 push	 0
  02ab3	8b 4d c8	 mov	 ecx, DWORD PTR _lre2$[ebp+4]
  02ab6	83 c1 06	 add	 ecx, 6
  02ab9	51		 push	 ecx
  02aba	8b 55 c4	 mov	 edx, DWORD PTR _lre2$[ebp]
  02abd	83 c2 08	 add	 edx, 8
  02ac0	52		 push	 edx
  02ac1	8b 45 c8	 mov	 eax, DWORD PTR _lre2$[ebp+4]
  02ac4	83 c0 04	 add	 eax, 4
  02ac7	50		 push	 eax
  02ac8	8b 4d c4	 mov	 ecx, DWORD PTR _lre2$[ebp]
  02acb	83 c1 06	 add	 ecx, 6
  02ace	51		 push	 ecx
  02acf	68 00 00 80 3f	 push	 1065353216		; 3f800000H
  02ad4	8b 55 f0	 mov	 edx, DWORD PTR _this$[ebp]
  02ad7	8b 82 d8 00 00
	00		 mov	 eax, DWORD PTR [edx+216]
  02add	50		 push	 eax
  02ade	8d 8d 44 ff ff
	ff		 lea	 ecx, DWORD PTR _lDC$188131[ebp]
  02ae4	e8 00 00 00 00	 call	 ??BCDC@@QBEPAUHDC__@@XZ	; CDC::operator HDC__ *
  02ae9	50		 push	 eax
  02aea	b9 00 00 00 00	 mov	 ecx, OFFSET FLAT:?gBitMapOperate@@3VCBitMapOperate@@A
  02aef	e8 00 00 00 00	 call	 ?DrawLine@CBitMapOperate@@UAEXPAUHDC__@@KMHHHHH@Z ; CBitMapOperate::DrawLine

; 986  : 			gBitMapOperate.DrawLine(lDC, mcolFont, 1,  lre2.left+8, lre2.top+6, lre2.left+5, lre2.top+9, FALSE);

  02af4	6a 00		 push	 0
  02af6	8b 4d c8	 mov	 ecx, DWORD PTR _lre2$[ebp+4]
  02af9	83 c1 09	 add	 ecx, 9
  02afc	51		 push	 ecx
  02afd	8b 55 c4	 mov	 edx, DWORD PTR _lre2$[ebp]
  02b00	83 c2 05	 add	 edx, 5
  02b03	52		 push	 edx
  02b04	8b 45 c8	 mov	 eax, DWORD PTR _lre2$[ebp+4]
  02b07	83 c0 06	 add	 eax, 6
  02b0a	50		 push	 eax
  02b0b	8b 4d c4	 mov	 ecx, DWORD PTR _lre2$[ebp]
  02b0e	83 c1 08	 add	 ecx, 8
  02b11	51		 push	 ecx
  02b12	68 00 00 80 3f	 push	 1065353216		; 3f800000H
  02b17	8b 55 f0	 mov	 edx, DWORD PTR _this$[ebp]
  02b1a	8b 82 d8 00 00
	00		 mov	 eax, DWORD PTR [edx+216]
  02b20	50		 push	 eax
  02b21	8d 8d 44 ff ff
	ff		 lea	 ecx, DWORD PTR _lDC$188131[ebp]
  02b27	e8 00 00 00 00	 call	 ??BCDC@@QBEPAUHDC__@@XZ	; CDC::operator HDC__ *
  02b2c	50		 push	 eax
  02b2d	b9 00 00 00 00	 mov	 ecx, OFFSET FLAT:?gBitMapOperate@@3VCBitMapOperate@@A
  02b32	e8 00 00 00 00	 call	 ?DrawLine@CBitMapOperate@@UAEXPAUHDC__@@KMHHHHH@Z ; CBitMapOperate::DrawLine

; 987  : 			gBitMapOperate.DrawLine(lDC, mcolFont, 1,  lre2.left+6, lre2.top+3, lre2.left+9, lre2.top+6, FALSE);

  02b37	6a 00		 push	 0
  02b39	8b 4d c8	 mov	 ecx, DWORD PTR _lre2$[ebp+4]
  02b3c	83 c1 06	 add	 ecx, 6
  02b3f	51		 push	 ecx
  02b40	8b 55 c4	 mov	 edx, DWORD PTR _lre2$[ebp]
  02b43	83 c2 09	 add	 edx, 9
  02b46	52		 push	 edx
  02b47	8b 45 c8	 mov	 eax, DWORD PTR _lre2$[ebp+4]
  02b4a	83 c0 03	 add	 eax, 3
  02b4d	50		 push	 eax
  02b4e	8b 4d c4	 mov	 ecx, DWORD PTR _lre2$[ebp]
  02b51	83 c1 06	 add	 ecx, 6
  02b54	51		 push	 ecx
  02b55	68 00 00 80 3f	 push	 1065353216		; 3f800000H
  02b5a	8b 55 f0	 mov	 edx, DWORD PTR _this$[ebp]
  02b5d	8b 82 d8 00 00
	00		 mov	 eax, DWORD PTR [edx+216]
  02b63	50		 push	 eax
  02b64	8d 8d 44 ff ff
	ff		 lea	 ecx, DWORD PTR _lDC$188131[ebp]
  02b6a	e8 00 00 00 00	 call	 ??BCDC@@QBEPAUHDC__@@XZ	; CDC::operator HDC__ *
  02b6f	50		 push	 eax
  02b70	b9 00 00 00 00	 mov	 ecx, OFFSET FLAT:?gBitMapOperate@@3VCBitMapOperate@@A
  02b75	e8 00 00 00 00	 call	 ?DrawLine@CBitMapOperate@@UAEXPAUHDC__@@KMHHHHH@Z ; CBitMapOperate::DrawLine

; 988  : 			gBitMapOperate.DrawLine(lDC, mcolFont, 1,  lre2.left+9, lre2.top+6, lre2.left+5, lre2.top+10, FALSE);

  02b7a	6a 00		 push	 0
  02b7c	8b 4d c8	 mov	 ecx, DWORD PTR _lre2$[ebp+4]
  02b7f	83 c1 0a	 add	 ecx, 10			; 0000000aH
  02b82	51		 push	 ecx
  02b83	8b 55 c4	 mov	 edx, DWORD PTR _lre2$[ebp]
  02b86	83 c2 05	 add	 edx, 5
  02b89	52		 push	 edx
  02b8a	8b 45 c8	 mov	 eax, DWORD PTR _lre2$[ebp+4]
  02b8d	83 c0 06	 add	 eax, 6
  02b90	50		 push	 eax
  02b91	8b 4d c4	 mov	 ecx, DWORD PTR _lre2$[ebp]
  02b94	83 c1 09	 add	 ecx, 9
  02b97	51		 push	 ecx
  02b98	68 00 00 80 3f	 push	 1065353216		; 3f800000H
  02b9d	8b 55 f0	 mov	 edx, DWORD PTR _this$[ebp]
  02ba0	8b 82 d8 00 00
	00		 mov	 eax, DWORD PTR [edx+216]
  02ba6	50		 push	 eax
  02ba7	8d 8d 44 ff ff
	ff		 lea	 ecx, DWORD PTR _lDC$188131[ebp]
  02bad	e8 00 00 00 00	 call	 ??BCDC@@QBEPAUHDC__@@XZ	; CDC::operator HDC__ *
  02bb2	50		 push	 eax
  02bb3	b9 00 00 00 00	 mov	 ecx, OFFSET FLAT:?gBitMapOperate@@3VCBitMapOperate@@A
  02bb8	e8 00 00 00 00	 call	 ?DrawLine@CBitMapOperate@@UAEXPAUHDC__@@KMHHHHH@Z ; CBitMapOperate::DrawLine

; 989  : 		}

  02bbd	c7 45 fc ff ff
	ff ff		 mov	 DWORD PTR __$EHRec$[ebp+8], -1
  02bc4	8d 8d 44 ff ff
	ff		 lea	 ecx, DWORD PTR _lDC$188131[ebp]
  02bca	e8 00 00 00 00	 call	 ??1CMemDC@@UAE@XZ	; CMemDC::~CMemDC

; 990  : 		break;

  02bcf	e9 76 0b 00 00	 jmp	 $L188118
$L188133:

; 991  : 	case 2:		//上箭头
; 992  : 		{
; 993  : 
; 994  : 			CMemDC lDC(CDC::FromHandle(hDC), &lre1);

  02bd4	8d 4d dc	 lea	 ecx, DWORD PTR _lre1$[ebp]
  02bd7	51		 push	 ecx
  02bd8	8d 8d 38 fe ff
	ff		 lea	 ecx, DWORD PTR $T189025[ebp]
  02bde	e8 00 00 00 00	 call	 ??0CRect@@QAE@PBUtagRECT@@@Z ; CRect::CRect
  02be3	8d 95 38 fe ff
	ff		 lea	 edx, DWORD PTR $T189025[ebp]
  02be9	52		 push	 edx
  02bea	8b 45 08	 mov	 eax, DWORD PTR _hDC$[ebp]
  02bed	50		 push	 eax
  02bee	e8 00 00 00 00	 call	 ?FromHandle@CDC@@SGPAV1@PAUHDC__@@@Z ; CDC::FromHandle
  02bf3	50		 push	 eax
  02bf4	8d 8d 10 ff ff
	ff		 lea	 ecx, DWORD PTR _lDC$188134[ebp]
  02bfa	e8 00 00 00 00	 call	 ??0CMemDC@@QAE@PAVCDC@@ABVCRect@@@Z ; CMemDC::CMemDC
  02bff	c7 45 fc 02 00
	00 00		 mov	 DWORD PTR __$EHRec$[ebp+8], 2

; 995  : 			gBitMapOperate.FillRectangle(lDC, lre1, mcolFrame1, FALSE);

  02c06	6a 00		 push	 0
  02c08	8b 4d f0	 mov	 ecx, DWORD PTR _this$[ebp]
  02c0b	8b 91 c8 00 00
	00		 mov	 edx, DWORD PTR [ecx+200]
  02c11	52		 push	 edx
  02c12	83 ec 10	 sub	 esp, 16			; 00000010H
  02c15	8b c4		 mov	 eax, esp
  02c17	8b 4d dc	 mov	 ecx, DWORD PTR _lre1$[ebp]
  02c1a	89 08		 mov	 DWORD PTR [eax], ecx
  02c1c	8b 55 e0	 mov	 edx, DWORD PTR _lre1$[ebp+4]
  02c1f	89 50 04	 mov	 DWORD PTR [eax+4], edx
  02c22	8b 4d e4	 mov	 ecx, DWORD PTR _lre1$[ebp+8]
  02c25	89 48 08	 mov	 DWORD PTR [eax+8], ecx
  02c28	8b 55 e8	 mov	 edx, DWORD PTR _lre1$[ebp+12]
  02c2b	89 50 0c	 mov	 DWORD PTR [eax+12], edx
  02c2e	8d 8d 10 ff ff
	ff		 lea	 ecx, DWORD PTR _lDC$188134[ebp]
  02c34	e8 00 00 00 00	 call	 ??BCDC@@QBEPAUHDC__@@XZ	; CDC::operator HDC__ *
  02c39	50		 push	 eax
  02c3a	b9 00 00 00 00	 mov	 ecx, OFFSET FLAT:?gBitMapOperate@@3VCBitMapOperate@@A
  02c3f	e8 00 00 00 00	 call	 ?FillRectangle@CBitMapOperate@@UAEXPAUHDC__@@UtagRECT@@KH@Z ; CBitMapOperate::FillRectangle

; 996  : 			gBitMapOperate.FillRectangle(lDC, lre2, mcolFrame2, FALSE);

  02c44	6a 00		 push	 0
  02c46	8b 45 f0	 mov	 eax, DWORD PTR _this$[ebp]
  02c49	8b 88 cc 00 00
	00		 mov	 ecx, DWORD PTR [eax+204]
  02c4f	51		 push	 ecx
  02c50	83 ec 10	 sub	 esp, 16			; 00000010H
  02c53	8b d4		 mov	 edx, esp
  02c55	8b 45 c4	 mov	 eax, DWORD PTR _lre2$[ebp]
  02c58	89 02		 mov	 DWORD PTR [edx], eax
  02c5a	8b 4d c8	 mov	 ecx, DWORD PTR _lre2$[ebp+4]
  02c5d	89 4a 04	 mov	 DWORD PTR [edx+4], ecx
  02c60	8b 45 cc	 mov	 eax, DWORD PTR _lre2$[ebp+8]
  02c63	89 42 08	 mov	 DWORD PTR [edx+8], eax
  02c66	8b 4d d0	 mov	 ecx, DWORD PTR _lre2$[ebp+12]
  02c69	89 4a 0c	 mov	 DWORD PTR [edx+12], ecx
  02c6c	8d 8d 10 ff ff
	ff		 lea	 ecx, DWORD PTR _lDC$188134[ebp]
  02c72	e8 00 00 00 00	 call	 ??BCDC@@QBEPAUHDC__@@XZ	; CDC::operator HDC__ *
  02c77	50		 push	 eax
  02c78	b9 00 00 00 00	 mov	 ecx, OFFSET FLAT:?gBitMapOperate@@3VCBitMapOperate@@A
  02c7d	e8 00 00 00 00	 call	 ?FillRectangle@CBitMapOperate@@UAEXPAUHDC__@@UtagRECT@@KH@Z ; CBitMapOperate::FillRectangle

; 997  : 			gBitMapOperate.FillRectangle(lDC, lre3, mcolBtn1,mcolBtn2,gBitMapOperate.edoVertical,FALSE);

  02c82	6a 01		 push	 1
  02c84	6a 00		 push	 0
  02c86	6a 01		 push	 1
  02c88	8b 55 f0	 mov	 edx, DWORD PTR _this$[ebp]
  02c8b	8b 82 d4 00 00
	00		 mov	 eax, DWORD PTR [edx+212]
  02c91	50		 push	 eax
  02c92	8b 4d f0	 mov	 ecx, DWORD PTR _this$[ebp]
  02c95	8b 91 d0 00 00
	00		 mov	 edx, DWORD PTR [ecx+208]
  02c9b	52		 push	 edx
  02c9c	83 ec 10	 sub	 esp, 16			; 00000010H
  02c9f	8b c4		 mov	 eax, esp
  02ca1	8b 4d ac	 mov	 ecx, DWORD PTR _lre3$[ebp]
  02ca4	89 08		 mov	 DWORD PTR [eax], ecx
  02ca6	8b 55 b0	 mov	 edx, DWORD PTR _lre3$[ebp+4]
  02ca9	89 50 04	 mov	 DWORD PTR [eax+4], edx
  02cac	8b 4d b4	 mov	 ecx, DWORD PTR _lre3$[ebp+8]
  02caf	89 48 08	 mov	 DWORD PTR [eax+8], ecx
  02cb2	8b 55 b8	 mov	 edx, DWORD PTR _lre3$[ebp+12]
  02cb5	89 50 0c	 mov	 DWORD PTR [eax+12], edx
  02cb8	8d 8d 10 ff ff
	ff		 lea	 ecx, DWORD PTR _lDC$188134[ebp]
  02cbe	e8 00 00 00 00	 call	 ??BCDC@@QBEPAUHDC__@@XZ	; CDC::operator HDC__ *
  02cc3	50		 push	 eax
  02cc4	b9 00 00 00 00	 mov	 ecx, OFFSET FLAT:?gBitMapOperate@@3VCBitMapOperate@@A
  02cc9	e8 00 00 00 00	 call	 ?FillRectangle@CBitMapOperate@@UAEXPAUHDC__@@UtagRECT@@KKW4ENUM_DrawOrientation@1@HI@Z ; CBitMapOperate::FillRectangle

; 998  : 			SetPixel(lDC,lre1.left,lre1.top, mcolNormal1);

  02cce	8b f4		 mov	 esi, esp
  02cd0	8b 45 f0	 mov	 eax, DWORD PTR _this$[ebp]
  02cd3	8b 88 b0 00 00
	00		 mov	 ecx, DWORD PTR [eax+176]
  02cd9	51		 push	 ecx
  02cda	8b 55 e0	 mov	 edx, DWORD PTR _lre1$[ebp+4]
  02cdd	52		 push	 edx
  02cde	8b 45 dc	 mov	 eax, DWORD PTR _lre1$[ebp]
  02ce1	50		 push	 eax
  02ce2	8d 8d 10 ff ff
	ff		 lea	 ecx, DWORD PTR _lDC$188134[ebp]
  02ce8	e8 00 00 00 00	 call	 ??BCDC@@QBEPAUHDC__@@XZ	; CDC::operator HDC__ *
  02ced	50		 push	 eax
  02cee	ff 15 00 00 00
	00		 call	 DWORD PTR __imp__SetPixel@16
  02cf4	3b f4		 cmp	 esi, esp
  02cf6	e8 00 00 00 00	 call	 __RTC_CheckEsp

; 999  : 			SetPixel(lDC,lre1.right -1,lre1.top, mcolNormal1);

  02cfb	8b f4		 mov	 esi, esp
  02cfd	8b 4d f0	 mov	 ecx, DWORD PTR _this$[ebp]
  02d00	8b 91 b0 00 00
	00		 mov	 edx, DWORD PTR [ecx+176]
  02d06	52		 push	 edx
  02d07	8b 45 e0	 mov	 eax, DWORD PTR _lre1$[ebp+4]
  02d0a	50		 push	 eax
  02d0b	8b 4d e4	 mov	 ecx, DWORD PTR _lre1$[ebp+8]
  02d0e	83 e9 01	 sub	 ecx, 1
  02d11	51		 push	 ecx
  02d12	8d 8d 10 ff ff
	ff		 lea	 ecx, DWORD PTR _lDC$188134[ebp]
  02d18	e8 00 00 00 00	 call	 ??BCDC@@QBEPAUHDC__@@XZ	; CDC::operator HDC__ *
  02d1d	50		 push	 eax
  02d1e	ff 15 00 00 00
	00		 call	 DWORD PTR __imp__SetPixel@16
  02d24	3b f4		 cmp	 esi, esp
  02d26	e8 00 00 00 00	 call	 __RTC_CheckEsp

; 1000 : 			SetPixel(lDC,lre1.right -1,lre1.bottom-1, mcolNormal1);

  02d2b	8b f4		 mov	 esi, esp
  02d2d	8b 55 f0	 mov	 edx, DWORD PTR _this$[ebp]
  02d30	8b 82 b0 00 00
	00		 mov	 eax, DWORD PTR [edx+176]
  02d36	50		 push	 eax
  02d37	8b 4d e8	 mov	 ecx, DWORD PTR _lre1$[ebp+12]
  02d3a	83 e9 01	 sub	 ecx, 1
  02d3d	51		 push	 ecx
  02d3e	8b 55 e4	 mov	 edx, DWORD PTR _lre1$[ebp+8]
  02d41	83 ea 01	 sub	 edx, 1
  02d44	52		 push	 edx
  02d45	8d 8d 10 ff ff
	ff		 lea	 ecx, DWORD PTR _lDC$188134[ebp]
  02d4b	e8 00 00 00 00	 call	 ??BCDC@@QBEPAUHDC__@@XZ	; CDC::operator HDC__ *
  02d50	50		 push	 eax
  02d51	ff 15 00 00 00
	00		 call	 DWORD PTR __imp__SetPixel@16
  02d57	3b f4		 cmp	 esi, esp
  02d59	e8 00 00 00 00	 call	 __RTC_CheckEsp

; 1001 : 			SetPixel(lDC,lre1.left,lre1.bottom-1, mcolNormal1);

  02d5e	8b f4		 mov	 esi, esp
  02d60	8b 45 f0	 mov	 eax, DWORD PTR _this$[ebp]
  02d63	8b 88 b0 00 00
	00		 mov	 ecx, DWORD PTR [eax+176]
  02d69	51		 push	 ecx
  02d6a	8b 55 e8	 mov	 edx, DWORD PTR _lre1$[ebp+12]
  02d6d	83 ea 01	 sub	 edx, 1
  02d70	52		 push	 edx
  02d71	8b 45 dc	 mov	 eax, DWORD PTR _lre1$[ebp]
  02d74	50		 push	 eax
  02d75	8d 8d 10 ff ff
	ff		 lea	 ecx, DWORD PTR _lDC$188134[ebp]
  02d7b	e8 00 00 00 00	 call	 ??BCDC@@QBEPAUHDC__@@XZ	; CDC::operator HDC__ *
  02d80	50		 push	 eax
  02d81	ff 15 00 00 00
	00		 call	 DWORD PTR __imp__SetPixel@16
  02d87	3b f4		 cmp	 esi, esp
  02d89	e8 00 00 00 00	 call	 __RTC_CheckEsp

; 1002 : 
; 1003 : 			lre2.left = lre2.left -1;

  02d8e	8b 4d c4	 mov	 ecx, DWORD PTR _lre2$[ebp]
  02d91	83 e9 01	 sub	 ecx, 1
  02d94	89 4d c4	 mov	 DWORD PTR _lre2$[ebp], ecx

; 1004 : 			lre2.top = lre2.top -1;

  02d97	8b 55 c8	 mov	 edx, DWORD PTR _lre2$[ebp+4]
  02d9a	83 ea 01	 sub	 edx, 1
  02d9d	89 55 c8	 mov	 DWORD PTR _lre2$[ebp+4], edx

; 1005 : 			gBitMapOperate.DrawLine(lDC, mcolFont, 1,  lre2.left+5, lre2.top+7, lre2.left+7, lre2.top+5, FALSE);

  02da0	6a 00		 push	 0
  02da2	8b 45 c8	 mov	 eax, DWORD PTR _lre2$[ebp+4]
  02da5	83 c0 05	 add	 eax, 5
  02da8	50		 push	 eax
  02da9	8b 4d c4	 mov	 ecx, DWORD PTR _lre2$[ebp]
  02dac	83 c1 07	 add	 ecx, 7
  02daf	51		 push	 ecx
  02db0	8b 55 c8	 mov	 edx, DWORD PTR _lre2$[ebp+4]
  02db3	83 c2 07	 add	 edx, 7
  02db6	52		 push	 edx
  02db7	8b 45 c4	 mov	 eax, DWORD PTR _lre2$[ebp]
  02dba	83 c0 05	 add	 eax, 5
  02dbd	50		 push	 eax
  02dbe	68 00 00 80 3f	 push	 1065353216		; 3f800000H
  02dc3	8b 4d f0	 mov	 ecx, DWORD PTR _this$[ebp]
  02dc6	8b 91 d8 00 00
	00		 mov	 edx, DWORD PTR [ecx+216]
  02dcc	52		 push	 edx
  02dcd	8d 8d 10 ff ff
	ff		 lea	 ecx, DWORD PTR _lDC$188134[ebp]
  02dd3	e8 00 00 00 00	 call	 ??BCDC@@QBEPAUHDC__@@XZ	; CDC::operator HDC__ *
  02dd8	50		 push	 eax
  02dd9	b9 00 00 00 00	 mov	 ecx, OFFSET FLAT:?gBitMapOperate@@3VCBitMapOperate@@A
  02dde	e8 00 00 00 00	 call	 ?DrawLine@CBitMapOperate@@UAEXPAUHDC__@@KMHHHHH@Z ; CBitMapOperate::DrawLine

; 1006 : 			gBitMapOperate.DrawLine(lDC, mcolFont, 1,  lre2.left+7, lre2.top+5, lre2.left+10, lre2.top+8, FALSE);

  02de3	6a 00		 push	 0
  02de5	8b 45 c8	 mov	 eax, DWORD PTR _lre2$[ebp+4]
  02de8	83 c0 08	 add	 eax, 8
  02deb	50		 push	 eax
  02dec	8b 4d c4	 mov	 ecx, DWORD PTR _lre2$[ebp]
  02def	83 c1 0a	 add	 ecx, 10			; 0000000aH
  02df2	51		 push	 ecx
  02df3	8b 55 c8	 mov	 edx, DWORD PTR _lre2$[ebp+4]
  02df6	83 c2 05	 add	 edx, 5
  02df9	52		 push	 edx
  02dfa	8b 45 c4	 mov	 eax, DWORD PTR _lre2$[ebp]
  02dfd	83 c0 07	 add	 eax, 7
  02e00	50		 push	 eax
  02e01	68 00 00 80 3f	 push	 1065353216		; 3f800000H
  02e06	8b 4d f0	 mov	 ecx, DWORD PTR _this$[ebp]
  02e09	8b 91 d8 00 00
	00		 mov	 edx, DWORD PTR [ecx+216]
  02e0f	52		 push	 edx
  02e10	8d 8d 10 ff ff
	ff		 lea	 ecx, DWORD PTR _lDC$188134[ebp]
  02e16	e8 00 00 00 00	 call	 ??BCDC@@QBEPAUHDC__@@XZ	; CDC::operator HDC__ *
  02e1b	50		 push	 eax
  02e1c	b9 00 00 00 00	 mov	 ecx, OFFSET FLAT:?gBitMapOperate@@3VCBitMapOperate@@A
  02e21	e8 00 00 00 00	 call	 ?DrawLine@CBitMapOperate@@UAEXPAUHDC__@@KMHHHHH@Z ; CBitMapOperate::DrawLine

; 1007 : 			gBitMapOperate.DrawLine(lDC, mcolFont, 1,  lre2.left+4, lre2.top+7, lre2.left+7, lre2.top+4, FALSE);

  02e26	6a 00		 push	 0
  02e28	8b 45 c8	 mov	 eax, DWORD PTR _lre2$[ebp+4]
  02e2b	83 c0 04	 add	 eax, 4
  02e2e	50		 push	 eax
  02e2f	8b 4d c4	 mov	 ecx, DWORD PTR _lre2$[ebp]
  02e32	83 c1 07	 add	 ecx, 7
  02e35	51		 push	 ecx
  02e36	8b 55 c8	 mov	 edx, DWORD PTR _lre2$[ebp+4]
  02e39	83 c2 07	 add	 edx, 7
  02e3c	52		 push	 edx
  02e3d	8b 45 c4	 mov	 eax, DWORD PTR _lre2$[ebp]
  02e40	83 c0 04	 add	 eax, 4
  02e43	50		 push	 eax
  02e44	68 00 00 80 3f	 push	 1065353216		; 3f800000H
  02e49	8b 4d f0	 mov	 ecx, DWORD PTR _this$[ebp]
  02e4c	8b 91 d8 00 00
	00		 mov	 edx, DWORD PTR [ecx+216]
  02e52	52		 push	 edx
  02e53	8d 8d 10 ff ff
	ff		 lea	 ecx, DWORD PTR _lDC$188134[ebp]
  02e59	e8 00 00 00 00	 call	 ??BCDC@@QBEPAUHDC__@@XZ	; CDC::operator HDC__ *
  02e5e	50		 push	 eax
  02e5f	b9 00 00 00 00	 mov	 ecx, OFFSET FLAT:?gBitMapOperate@@3VCBitMapOperate@@A
  02e64	e8 00 00 00 00	 call	 ?DrawLine@CBitMapOperate@@UAEXPAUHDC__@@KMHHHHH@Z ; CBitMapOperate::DrawLine

; 1008 : 			gBitMapOperate.DrawLine(lDC, mcolFont, 1,  lre2.left+7, lre2.top+4, lre2.left+11, lre2.top+8, FALSE);

  02e69	6a 00		 push	 0
  02e6b	8b 45 c8	 mov	 eax, DWORD PTR _lre2$[ebp+4]
  02e6e	83 c0 08	 add	 eax, 8
  02e71	50		 push	 eax
  02e72	8b 4d c4	 mov	 ecx, DWORD PTR _lre2$[ebp]
  02e75	83 c1 0b	 add	 ecx, 11			; 0000000bH
  02e78	51		 push	 ecx
  02e79	8b 55 c8	 mov	 edx, DWORD PTR _lre2$[ebp+4]
  02e7c	83 c2 04	 add	 edx, 4
  02e7f	52		 push	 edx
  02e80	8b 45 c4	 mov	 eax, DWORD PTR _lre2$[ebp]
  02e83	83 c0 07	 add	 eax, 7
  02e86	50		 push	 eax
  02e87	68 00 00 80 3f	 push	 1065353216		; 3f800000H
  02e8c	8b 4d f0	 mov	 ecx, DWORD PTR _this$[ebp]
  02e8f	8b 91 d8 00 00
	00		 mov	 edx, DWORD PTR [ecx+216]
  02e95	52		 push	 edx
  02e96	8d 8d 10 ff ff
	ff		 lea	 ecx, DWORD PTR _lDC$188134[ebp]
  02e9c	e8 00 00 00 00	 call	 ??BCDC@@QBEPAUHDC__@@XZ	; CDC::operator HDC__ *
  02ea1	50		 push	 eax
  02ea2	b9 00 00 00 00	 mov	 ecx, OFFSET FLAT:?gBitMapOperate@@3VCBitMapOperate@@A
  02ea7	e8 00 00 00 00	 call	 ?DrawLine@CBitMapOperate@@UAEXPAUHDC__@@KMHHHHH@Z ; CBitMapOperate::DrawLine

; 1009 : 
; 1010 : 		}

  02eac	c7 45 fc ff ff
	ff ff		 mov	 DWORD PTR __$EHRec$[ebp+8], -1
  02eb3	8d 8d 10 ff ff
	ff		 lea	 ecx, DWORD PTR _lDC$188134[ebp]
  02eb9	e8 00 00 00 00	 call	 ??1CMemDC@@UAE@XZ	; CMemDC::~CMemDC

; 1011 : 		break;

  02ebe	e9 87 08 00 00	 jmp	 $L188118
$L188136:

; 1012 : 	case 3:		//下箭头
; 1013 : 		{
; 1014 : 			CMemDC lDC(CDC::FromHandle(hDC), &lre1);

  02ec3	8d 45 dc	 lea	 eax, DWORD PTR _lre1$[ebp]
  02ec6	50		 push	 eax
  02ec7	8d 8d 28 fe ff
	ff		 lea	 ecx, DWORD PTR $T189026[ebp]
  02ecd	e8 00 00 00 00	 call	 ??0CRect@@QAE@PBUtagRECT@@@Z ; CRect::CRect
  02ed2	8d 8d 28 fe ff
	ff		 lea	 ecx, DWORD PTR $T189026[ebp]
  02ed8	51		 push	 ecx
  02ed9	8b 55 08	 mov	 edx, DWORD PTR _hDC$[ebp]
  02edc	52		 push	 edx
  02edd	e8 00 00 00 00	 call	 ?FromHandle@CDC@@SGPAV1@PAUHDC__@@@Z ; CDC::FromHandle
  02ee2	50		 push	 eax
  02ee3	8d 8d dc fe ff
	ff		 lea	 ecx, DWORD PTR _lDC$188137[ebp]
  02ee9	e8 00 00 00 00	 call	 ??0CMemDC@@QAE@PAVCDC@@ABVCRect@@@Z ; CMemDC::CMemDC
  02eee	c7 45 fc 03 00
	00 00		 mov	 DWORD PTR __$EHRec$[ebp+8], 3

; 1015 : 			gBitMapOperate.FillRectangle(lDC, lre1, mcolFrame1, FALSE);

  02ef5	6a 00		 push	 0
  02ef7	8b 45 f0	 mov	 eax, DWORD PTR _this$[ebp]
  02efa	8b 88 c8 00 00
	00		 mov	 ecx, DWORD PTR [eax+200]
  02f00	51		 push	 ecx
  02f01	83 ec 10	 sub	 esp, 16			; 00000010H
  02f04	8b d4		 mov	 edx, esp
  02f06	8b 45 dc	 mov	 eax, DWORD PTR _lre1$[ebp]
  02f09	89 02		 mov	 DWORD PTR [edx], eax
  02f0b	8b 4d e0	 mov	 ecx, DWORD PTR _lre1$[ebp+4]
  02f0e	89 4a 04	 mov	 DWORD PTR [edx+4], ecx
  02f11	8b 45 e4	 mov	 eax, DWORD PTR _lre1$[ebp+8]
  02f14	89 42 08	 mov	 DWORD PTR [edx+8], eax
  02f17	8b 4d e8	 mov	 ecx, DWORD PTR _lre1$[ebp+12]
  02f1a	89 4a 0c	 mov	 DWORD PTR [edx+12], ecx
  02f1d	8d 8d dc fe ff
	ff		 lea	 ecx, DWORD PTR _lDC$188137[ebp]
  02f23	e8 00 00 00 00	 call	 ??BCDC@@QBEPAUHDC__@@XZ	; CDC::operator HDC__ *
  02f28	50		 push	 eax
  02f29	b9 00 00 00 00	 mov	 ecx, OFFSET FLAT:?gBitMapOperate@@3VCBitMapOperate@@A
  02f2e	e8 00 00 00 00	 call	 ?FillRectangle@CBitMapOperate@@UAEXPAUHDC__@@UtagRECT@@KH@Z ; CBitMapOperate::FillRectangle

; 1016 : 			gBitMapOperate.FillRectangle(lDC, lre2, mcolFrame2, FALSE);

  02f33	6a 00		 push	 0
  02f35	8b 55 f0	 mov	 edx, DWORD PTR _this$[ebp]
  02f38	8b 82 cc 00 00
	00		 mov	 eax, DWORD PTR [edx+204]
  02f3e	50		 push	 eax
  02f3f	83 ec 10	 sub	 esp, 16			; 00000010H
  02f42	8b cc		 mov	 ecx, esp
  02f44	8b 55 c4	 mov	 edx, DWORD PTR _lre2$[ebp]
  02f47	89 11		 mov	 DWORD PTR [ecx], edx
  02f49	8b 45 c8	 mov	 eax, DWORD PTR _lre2$[ebp+4]
  02f4c	89 41 04	 mov	 DWORD PTR [ecx+4], eax
  02f4f	8b 55 cc	 mov	 edx, DWORD PTR _lre2$[ebp+8]
  02f52	89 51 08	 mov	 DWORD PTR [ecx+8], edx
  02f55	8b 45 d0	 mov	 eax, DWORD PTR _lre2$[ebp+12]
  02f58	89 41 0c	 mov	 DWORD PTR [ecx+12], eax
  02f5b	8d 8d dc fe ff
	ff		 lea	 ecx, DWORD PTR _lDC$188137[ebp]
  02f61	e8 00 00 00 00	 call	 ??BCDC@@QBEPAUHDC__@@XZ	; CDC::operator HDC__ *
  02f66	50		 push	 eax
  02f67	b9 00 00 00 00	 mov	 ecx, OFFSET FLAT:?gBitMapOperate@@3VCBitMapOperate@@A
  02f6c	e8 00 00 00 00	 call	 ?FillRectangle@CBitMapOperate@@UAEXPAUHDC__@@UtagRECT@@KH@Z ; CBitMapOperate::FillRectangle

; 1017 : 			gBitMapOperate.FillRectangle(lDC, lre3, mcolBtn2,mcolBtn1,gBitMapOperate.edoVertical,FALSE);

  02f71	6a 01		 push	 1
  02f73	6a 00		 push	 0
  02f75	6a 01		 push	 1
  02f77	8b 4d f0	 mov	 ecx, DWORD PTR _this$[ebp]
  02f7a	8b 91 d0 00 00
	00		 mov	 edx, DWORD PTR [ecx+208]
  02f80	52		 push	 edx
  02f81	8b 45 f0	 mov	 eax, DWORD PTR _this$[ebp]
  02f84	8b 88 d4 00 00
	00		 mov	 ecx, DWORD PTR [eax+212]
  02f8a	51		 push	 ecx
  02f8b	83 ec 10	 sub	 esp, 16			; 00000010H
  02f8e	8b d4		 mov	 edx, esp
  02f90	8b 45 ac	 mov	 eax, DWORD PTR _lre3$[ebp]
  02f93	89 02		 mov	 DWORD PTR [edx], eax
  02f95	8b 4d b0	 mov	 ecx, DWORD PTR _lre3$[ebp+4]
  02f98	89 4a 04	 mov	 DWORD PTR [edx+4], ecx
  02f9b	8b 45 b4	 mov	 eax, DWORD PTR _lre3$[ebp+8]
  02f9e	89 42 08	 mov	 DWORD PTR [edx+8], eax
  02fa1	8b 4d b8	 mov	 ecx, DWORD PTR _lre3$[ebp+12]
  02fa4	89 4a 0c	 mov	 DWORD PTR [edx+12], ecx
  02fa7	8d 8d dc fe ff
	ff		 lea	 ecx, DWORD PTR _lDC$188137[ebp]
  02fad	e8 00 00 00 00	 call	 ??BCDC@@QBEPAUHDC__@@XZ	; CDC::operator HDC__ *
  02fb2	50		 push	 eax
  02fb3	b9 00 00 00 00	 mov	 ecx, OFFSET FLAT:?gBitMapOperate@@3VCBitMapOperate@@A
  02fb8	e8 00 00 00 00	 call	 ?FillRectangle@CBitMapOperate@@UAEXPAUHDC__@@UtagRECT@@KKW4ENUM_DrawOrientation@1@HI@Z ; CBitMapOperate::FillRectangle

; 1018 : 			SetPixel(lDC,lre1.left,lre1.top, mcolNormal1);

  02fbd	8b f4		 mov	 esi, esp
  02fbf	8b 55 f0	 mov	 edx, DWORD PTR _this$[ebp]
  02fc2	8b 82 b0 00 00
	00		 mov	 eax, DWORD PTR [edx+176]
  02fc8	50		 push	 eax
  02fc9	8b 4d e0	 mov	 ecx, DWORD PTR _lre1$[ebp+4]
  02fcc	51		 push	 ecx
  02fcd	8b 55 dc	 mov	 edx, DWORD PTR _lre1$[ebp]
  02fd0	52		 push	 edx
  02fd1	8d 8d dc fe ff
	ff		 lea	 ecx, DWORD PTR _lDC$188137[ebp]
  02fd7	e8 00 00 00 00	 call	 ??BCDC@@QBEPAUHDC__@@XZ	; CDC::operator HDC__ *
  02fdc	50		 push	 eax
  02fdd	ff 15 00 00 00
	00		 call	 DWORD PTR __imp__SetPixel@16
  02fe3	3b f4		 cmp	 esi, esp
  02fe5	e8 00 00 00 00	 call	 __RTC_CheckEsp

; 1019 : 			SetPixel(lDC,lre1.right -1,lre1.top, mcolNormal1);

  02fea	8b f4		 mov	 esi, esp
  02fec	8b 45 f0	 mov	 eax, DWORD PTR _this$[ebp]
  02fef	8b 88 b0 00 00
	00		 mov	 ecx, DWORD PTR [eax+176]
  02ff5	51		 push	 ecx
  02ff6	8b 55 e0	 mov	 edx, DWORD PTR _lre1$[ebp+4]
  02ff9	52		 push	 edx
  02ffa	8b 45 e4	 mov	 eax, DWORD PTR _lre1$[ebp+8]
  02ffd	83 e8 01	 sub	 eax, 1
  03000	50		 push	 eax
  03001	8d 8d dc fe ff
	ff		 lea	 ecx, DWORD PTR _lDC$188137[ebp]
  03007	e8 00 00 00 00	 call	 ??BCDC@@QBEPAUHDC__@@XZ	; CDC::operator HDC__ *
  0300c	50		 push	 eax
  0300d	ff 15 00 00 00
	00		 call	 DWORD PTR __imp__SetPixel@16
  03013	3b f4		 cmp	 esi, esp
  03015	e8 00 00 00 00	 call	 __RTC_CheckEsp

; 1020 : 			SetPixel(lDC,lre1.right -1,lre1.bottom-1, mcolNormal1);

  0301a	8b f4		 mov	 esi, esp
  0301c	8b 4d f0	 mov	 ecx, DWORD PTR _this$[ebp]
  0301f	8b 91 b0 00 00
	00		 mov	 edx, DWORD PTR [ecx+176]
  03025	52		 push	 edx
  03026	8b 45 e8	 mov	 eax, DWORD PTR _lre1$[ebp+12]
  03029	83 e8 01	 sub	 eax, 1
  0302c	50		 push	 eax
  0302d	8b 4d e4	 mov	 ecx, DWORD PTR _lre1$[ebp+8]
  03030	83 e9 01	 sub	 ecx, 1
  03033	51		 push	 ecx
  03034	8d 8d dc fe ff
	ff		 lea	 ecx, DWORD PTR _lDC$188137[ebp]
  0303a	e8 00 00 00 00	 call	 ??BCDC@@QBEPAUHDC__@@XZ	; CDC::operator HDC__ *
  0303f	50		 push	 eax
  03040	ff 15 00 00 00
	00		 call	 DWORD PTR __imp__SetPixel@16
  03046	3b f4		 cmp	 esi, esp
  03048	e8 00 00 00 00	 call	 __RTC_CheckEsp

; 1021 : 			SetPixel(lDC,lre1.left,lre1.bottom-1, mcolNormal1);

  0304d	8b f4		 mov	 esi, esp
  0304f	8b 55 f0	 mov	 edx, DWORD PTR _this$[ebp]
  03052	8b 82 b0 00 00
	00		 mov	 eax, DWORD PTR [edx+176]
  03058	50		 push	 eax
  03059	8b 4d e8	 mov	 ecx, DWORD PTR _lre1$[ebp+12]
  0305c	83 e9 01	 sub	 ecx, 1
  0305f	51		 push	 ecx
  03060	8b 55 dc	 mov	 edx, DWORD PTR _lre1$[ebp]
  03063	52		 push	 edx
  03064	8d 8d dc fe ff
	ff		 lea	 ecx, DWORD PTR _lDC$188137[ebp]
  0306a	e8 00 00 00 00	 call	 ??BCDC@@QBEPAUHDC__@@XZ	; CDC::operator HDC__ *
  0306f	50		 push	 eax
  03070	ff 15 00 00 00
	00		 call	 DWORD PTR __imp__SetPixel@16
  03076	3b f4		 cmp	 esi, esp
  03078	e8 00 00 00 00	 call	 __RTC_CheckEsp

; 1022 : 
; 1023 : 			lre2.left = lre2.left -1;

  0307d	8b 45 c4	 mov	 eax, DWORD PTR _lre2$[ebp]
  03080	83 e8 01	 sub	 eax, 1
  03083	89 45 c4	 mov	 DWORD PTR _lre2$[ebp], eax

; 1024 : 			gBitMapOperate.DrawLine(lDC, mcolFont, 1,  lre2.left+5, lre2.top+6, lre2.left+7, lre2.top+8, FALSE);

  03086	6a 00		 push	 0
  03088	8b 4d c8	 mov	 ecx, DWORD PTR _lre2$[ebp+4]
  0308b	83 c1 08	 add	 ecx, 8
  0308e	51		 push	 ecx
  0308f	8b 55 c4	 mov	 edx, DWORD PTR _lre2$[ebp]
  03092	83 c2 07	 add	 edx, 7
  03095	52		 push	 edx
  03096	8b 45 c8	 mov	 eax, DWORD PTR _lre2$[ebp+4]
  03099	83 c0 06	 add	 eax, 6
  0309c	50		 push	 eax
  0309d	8b 4d c4	 mov	 ecx, DWORD PTR _lre2$[ebp]
  030a0	83 c1 05	 add	 ecx, 5
  030a3	51		 push	 ecx
  030a4	68 00 00 80 3f	 push	 1065353216		; 3f800000H
  030a9	8b 55 f0	 mov	 edx, DWORD PTR _this$[ebp]
  030ac	8b 82 d8 00 00
	00		 mov	 eax, DWORD PTR [edx+216]
  030b2	50		 push	 eax
  030b3	8d 8d dc fe ff
	ff		 lea	 ecx, DWORD PTR _lDC$188137[ebp]
  030b9	e8 00 00 00 00	 call	 ??BCDC@@QBEPAUHDC__@@XZ	; CDC::operator HDC__ *
  030be	50		 push	 eax
  030bf	b9 00 00 00 00	 mov	 ecx, OFFSET FLAT:?gBitMapOperate@@3VCBitMapOperate@@A
  030c4	e8 00 00 00 00	 call	 ?DrawLine@CBitMapOperate@@UAEXPAUHDC__@@KMHHHHH@Z ; CBitMapOperate::DrawLine

; 1025 : 			gBitMapOperate.DrawLine(lDC, mcolFont, 1,  lre2.left+7, lre2.top+8, lre2.left+10, lre2.top+5, FALSE);

  030c9	6a 00		 push	 0
  030cb	8b 4d c8	 mov	 ecx, DWORD PTR _lre2$[ebp+4]
  030ce	83 c1 05	 add	 ecx, 5
  030d1	51		 push	 ecx
  030d2	8b 55 c4	 mov	 edx, DWORD PTR _lre2$[ebp]
  030d5	83 c2 0a	 add	 edx, 10			; 0000000aH
  030d8	52		 push	 edx
  030d9	8b 45 c8	 mov	 eax, DWORD PTR _lre2$[ebp+4]
  030dc	83 c0 08	 add	 eax, 8
  030df	50		 push	 eax
  030e0	8b 4d c4	 mov	 ecx, DWORD PTR _lre2$[ebp]
  030e3	83 c1 07	 add	 ecx, 7
  030e6	51		 push	 ecx
  030e7	68 00 00 80 3f	 push	 1065353216		; 3f800000H
  030ec	8b 55 f0	 mov	 edx, DWORD PTR _this$[ebp]
  030ef	8b 82 d8 00 00
	00		 mov	 eax, DWORD PTR [edx+216]
  030f5	50		 push	 eax
  030f6	8d 8d dc fe ff
	ff		 lea	 ecx, DWORD PTR _lDC$188137[ebp]
  030fc	e8 00 00 00 00	 call	 ??BCDC@@QBEPAUHDC__@@XZ	; CDC::operator HDC__ *
  03101	50		 push	 eax
  03102	b9 00 00 00 00	 mov	 ecx, OFFSET FLAT:?gBitMapOperate@@3VCBitMapOperate@@A
  03107	e8 00 00 00 00	 call	 ?DrawLine@CBitMapOperate@@UAEXPAUHDC__@@KMHHHHH@Z ; CBitMapOperate::DrawLine

; 1026 : 			gBitMapOperate.DrawLine(lDC, mcolFont, 1,  lre2.left+4, lre2.top+6, lre2.left+7, lre2.top+9, FALSE);

  0310c	6a 00		 push	 0
  0310e	8b 4d c8	 mov	 ecx, DWORD PTR _lre2$[ebp+4]
  03111	83 c1 09	 add	 ecx, 9
  03114	51		 push	 ecx
  03115	8b 55 c4	 mov	 edx, DWORD PTR _lre2$[ebp]
  03118	83 c2 07	 add	 edx, 7
  0311b	52		 push	 edx
  0311c	8b 45 c8	 mov	 eax, DWORD PTR _lre2$[ebp+4]
  0311f	83 c0 06	 add	 eax, 6
  03122	50		 push	 eax
  03123	8b 4d c4	 mov	 ecx, DWORD PTR _lre2$[ebp]
  03126	83 c1 04	 add	 ecx, 4
  03129	51		 push	 ecx
  0312a	68 00 00 80 3f	 push	 1065353216		; 3f800000H
  0312f	8b 55 f0	 mov	 edx, DWORD PTR _this$[ebp]
  03132	8b 82 d8 00 00
	00		 mov	 eax, DWORD PTR [edx+216]
  03138	50		 push	 eax
  03139	8d 8d dc fe ff
	ff		 lea	 ecx, DWORD PTR _lDC$188137[ebp]
  0313f	e8 00 00 00 00	 call	 ??BCDC@@QBEPAUHDC__@@XZ	; CDC::operator HDC__ *
  03144	50		 push	 eax
  03145	b9 00 00 00 00	 mov	 ecx, OFFSET FLAT:?gBitMapOperate@@3VCBitMapOperate@@A
  0314a	e8 00 00 00 00	 call	 ?DrawLine@CBitMapOperate@@UAEXPAUHDC__@@KMHHHHH@Z ; CBitMapOperate::DrawLine

; 1027 : 			gBitMapOperate.DrawLine(lDC, mcolFont, 1,  lre2.left+7, lre2.top+9, lre2.left+11, lre2.top+5, FALSE);

  0314f	6a 00		 push	 0
  03151	8b 4d c8	 mov	 ecx, DWORD PTR _lre2$[ebp+4]
  03154	83 c1 05	 add	 ecx, 5
  03157	51		 push	 ecx
  03158	8b 55 c4	 mov	 edx, DWORD PTR _lre2$[ebp]
  0315b	83 c2 0b	 add	 edx, 11			; 0000000bH
  0315e	52		 push	 edx
  0315f	8b 45 c8	 mov	 eax, DWORD PTR _lre2$[ebp+4]
  03162	83 c0 09	 add	 eax, 9
  03165	50		 push	 eax
  03166	8b 4d c4	 mov	 ecx, DWORD PTR _lre2$[ebp]
  03169	83 c1 07	 add	 ecx, 7
  0316c	51		 push	 ecx
  0316d	68 00 00 80 3f	 push	 1065353216		; 3f800000H
  03172	8b 55 f0	 mov	 edx, DWORD PTR _this$[ebp]
  03175	8b 82 d8 00 00
	00		 mov	 eax, DWORD PTR [edx+216]
  0317b	50		 push	 eax
  0317c	8d 8d dc fe ff
	ff		 lea	 ecx, DWORD PTR _lDC$188137[ebp]
  03182	e8 00 00 00 00	 call	 ??BCDC@@QBEPAUHDC__@@XZ	; CDC::operator HDC__ *
  03187	50		 push	 eax
  03188	b9 00 00 00 00	 mov	 ecx, OFFSET FLAT:?gBitMapOperate@@3VCBitMapOperate@@A
  0318d	e8 00 00 00 00	 call	 ?DrawLine@CBitMapOperate@@UAEXPAUHDC__@@KMHHHHH@Z ; CBitMapOperate::DrawLine

; 1028 : 
; 1029 : 		}

  03192	c7 45 fc ff ff
	ff ff		 mov	 DWORD PTR __$EHRec$[ebp+8], -1
  03199	8d 8d dc fe ff
	ff		 lea	 ecx, DWORD PTR _lDC$188137[ebp]
  0319f	e8 00 00 00 00	 call	 ??1CMemDC@@UAE@XZ	; CMemDC::~CMemDC

; 1030 : 		break;

  031a4	e9 a1 05 00 00	 jmp	 $L188118
$L188139:

; 1031 : 	case 4:		//滑块条纹
; 1032 : 		if (mScrollOrientation == esoVertical)

  031a9	8b 4d f0	 mov	 ecx, DWORD PTR _this$[ebp]
  031ac	83 b9 80 00 00
	00 01		 cmp	 DWORD PTR [ecx+128], 1
  031b3	0f 85 cb 02 00
	00		 jne	 $L188140

; 1033 : 		{
; 1034 : 			CMemDC lDC(CDC::FromHandle(hDC), &lre1);

  031b9	8d 55 dc	 lea	 edx, DWORD PTR _lre1$[ebp]
  031bc	52		 push	 edx
  031bd	8d 8d 18 fe ff
	ff		 lea	 ecx, DWORD PTR $T189027[ebp]
  031c3	e8 00 00 00 00	 call	 ??0CRect@@QAE@PBUtagRECT@@@Z ; CRect::CRect
  031c8	8d 85 18 fe ff
	ff		 lea	 eax, DWORD PTR $T189027[ebp]
  031ce	50		 push	 eax
  031cf	8b 4d 08	 mov	 ecx, DWORD PTR _hDC$[ebp]
  031d2	51		 push	 ecx
  031d3	e8 00 00 00 00	 call	 ?FromHandle@CDC@@SGPAV1@PAUHDC__@@@Z ; CDC::FromHandle
  031d8	50		 push	 eax
  031d9	8d 8d a8 fe ff
	ff		 lea	 ecx, DWORD PTR _lDC$188141[ebp]
  031df	e8 00 00 00 00	 call	 ??0CMemDC@@QAE@PAVCDC@@ABVCRect@@@Z ; CMemDC::CMemDC
  031e4	c7 45 fc 04 00
	00 00		 mov	 DWORD PTR __$EHRec$[ebp+8], 4

; 1035 : 			gBitMapOperate.FillRectangle(lDC, lre1, mcolFrame1, FALSE);

  031eb	6a 00		 push	 0
  031ed	8b 55 f0	 mov	 edx, DWORD PTR _this$[ebp]
  031f0	8b 82 c8 00 00
	00		 mov	 eax, DWORD PTR [edx+200]
  031f6	50		 push	 eax
  031f7	83 ec 10	 sub	 esp, 16			; 00000010H
  031fa	8b cc		 mov	 ecx, esp
  031fc	8b 55 dc	 mov	 edx, DWORD PTR _lre1$[ebp]
  031ff	89 11		 mov	 DWORD PTR [ecx], edx
  03201	8b 45 e0	 mov	 eax, DWORD PTR _lre1$[ebp+4]
  03204	89 41 04	 mov	 DWORD PTR [ecx+4], eax
  03207	8b 55 e4	 mov	 edx, DWORD PTR _lre1$[ebp+8]
  0320a	89 51 08	 mov	 DWORD PTR [ecx+8], edx
  0320d	8b 45 e8	 mov	 eax, DWORD PTR _lre1$[ebp+12]
  03210	89 41 0c	 mov	 DWORD PTR [ecx+12], eax
  03213	8d 8d a8 fe ff
	ff		 lea	 ecx, DWORD PTR _lDC$188141[ebp]
  03219	e8 00 00 00 00	 call	 ??BCDC@@QBEPAUHDC__@@XZ	; CDC::operator HDC__ *
  0321e	50		 push	 eax
  0321f	b9 00 00 00 00	 mov	 ecx, OFFSET FLAT:?gBitMapOperate@@3VCBitMapOperate@@A
  03224	e8 00 00 00 00	 call	 ?FillRectangle@CBitMapOperate@@UAEXPAUHDC__@@UtagRECT@@KH@Z ; CBitMapOperate::FillRectangle

; 1036 : 			gBitMapOperate.FillRectangle(lDC, lre2, mcolFrame2, FALSE);

  03229	6a 00		 push	 0
  0322b	8b 4d f0	 mov	 ecx, DWORD PTR _this$[ebp]
  0322e	8b 91 cc 00 00
	00		 mov	 edx, DWORD PTR [ecx+204]
  03234	52		 push	 edx
  03235	83 ec 10	 sub	 esp, 16			; 00000010H
  03238	8b c4		 mov	 eax, esp
  0323a	8b 4d c4	 mov	 ecx, DWORD PTR _lre2$[ebp]
  0323d	89 08		 mov	 DWORD PTR [eax], ecx
  0323f	8b 55 c8	 mov	 edx, DWORD PTR _lre2$[ebp+4]
  03242	89 50 04	 mov	 DWORD PTR [eax+4], edx
  03245	8b 4d cc	 mov	 ecx, DWORD PTR _lre2$[ebp+8]
  03248	89 48 08	 mov	 DWORD PTR [eax+8], ecx
  0324b	8b 55 d0	 mov	 edx, DWORD PTR _lre2$[ebp+12]
  0324e	89 50 0c	 mov	 DWORD PTR [eax+12], edx
  03251	8d 8d a8 fe ff
	ff		 lea	 ecx, DWORD PTR _lDC$188141[ebp]
  03257	e8 00 00 00 00	 call	 ??BCDC@@QBEPAUHDC__@@XZ	; CDC::operator HDC__ *
  0325c	50		 push	 eax
  0325d	b9 00 00 00 00	 mov	 ecx, OFFSET FLAT:?gBitMapOperate@@3VCBitMapOperate@@A
  03262	e8 00 00 00 00	 call	 ?FillRectangle@CBitMapOperate@@UAEXPAUHDC__@@UtagRECT@@KH@Z ; CBitMapOperate::FillRectangle

; 1037 : 			gBitMapOperate.FillRectangle(lDC, lre3, mcolEnter1,mcolEnter2,gBitMapOperate.edoVertical,FALSE);

  03267	6a 01		 push	 1
  03269	6a 00		 push	 0
  0326b	6a 01		 push	 1
  0326d	8b 45 f0	 mov	 eax, DWORD PTR _this$[ebp]
  03270	8b 88 bc 00 00
	00		 mov	 ecx, DWORD PTR [eax+188]
  03276	51		 push	 ecx
  03277	8b 55 f0	 mov	 edx, DWORD PTR _this$[ebp]
  0327a	8b 82 b8 00 00
	00		 mov	 eax, DWORD PTR [edx+184]
  03280	50		 push	 eax
  03281	83 ec 10	 sub	 esp, 16			; 00000010H
  03284	8b cc		 mov	 ecx, esp
  03286	8b 55 ac	 mov	 edx, DWORD PTR _lre3$[ebp]
  03289	89 11		 mov	 DWORD PTR [ecx], edx
  0328b	8b 45 b0	 mov	 eax, DWORD PTR _lre3$[ebp+4]
  0328e	89 41 04	 mov	 DWORD PTR [ecx+4], eax
  03291	8b 55 b4	 mov	 edx, DWORD PTR _lre3$[ebp+8]
  03294	89 51 08	 mov	 DWORD PTR [ecx+8], edx
  03297	8b 45 b8	 mov	 eax, DWORD PTR _lre3$[ebp+12]
  0329a	89 41 0c	 mov	 DWORD PTR [ecx+12], eax
  0329d	8d 8d a8 fe ff
	ff		 lea	 ecx, DWORD PTR _lDC$188141[ebp]
  032a3	e8 00 00 00 00	 call	 ??BCDC@@QBEPAUHDC__@@XZ	; CDC::operator HDC__ *
  032a8	50		 push	 eax
  032a9	b9 00 00 00 00	 mov	 ecx, OFFSET FLAT:?gBitMapOperate@@3VCBitMapOperate@@A
  032ae	e8 00 00 00 00	 call	 ?FillRectangle@CBitMapOperate@@UAEXPAUHDC__@@UtagRECT@@KKW4ENUM_DrawOrientation@1@HI@Z ; CBitMapOperate::FillRectangle

; 1038 : 			SetPixel(lDC,lre1.left,lre1.top, mcolNormal1);

  032b3	8b f4		 mov	 esi, esp
  032b5	8b 4d f0	 mov	 ecx, DWORD PTR _this$[ebp]
  032b8	8b 91 b0 00 00
	00		 mov	 edx, DWORD PTR [ecx+176]
  032be	52		 push	 edx
  032bf	8b 45 e0	 mov	 eax, DWORD PTR _lre1$[ebp+4]
  032c2	50		 push	 eax
  032c3	8b 4d dc	 mov	 ecx, DWORD PTR _lre1$[ebp]
  032c6	51		 push	 ecx
  032c7	8d 8d a8 fe ff
	ff		 lea	 ecx, DWORD PTR _lDC$188141[ebp]
  032cd	e8 00 00 00 00	 call	 ??BCDC@@QBEPAUHDC__@@XZ	; CDC::operator HDC__ *
  032d2	50		 push	 eax
  032d3	ff 15 00 00 00
	00		 call	 DWORD PTR __imp__SetPixel@16
  032d9	3b f4		 cmp	 esi, esp
  032db	e8 00 00 00 00	 call	 __RTC_CheckEsp

; 1039 : 			SetPixel(lDC,lre1.right -1,lre1.top, mcolNormal1);

  032e0	8b f4		 mov	 esi, esp
  032e2	8b 55 f0	 mov	 edx, DWORD PTR _this$[ebp]
  032e5	8b 82 b0 00 00
	00		 mov	 eax, DWORD PTR [edx+176]
  032eb	50		 push	 eax
  032ec	8b 4d e0	 mov	 ecx, DWORD PTR _lre1$[ebp+4]
  032ef	51		 push	 ecx
  032f0	8b 55 e4	 mov	 edx, DWORD PTR _lre1$[ebp+8]
  032f3	83 ea 01	 sub	 edx, 1
  032f6	52		 push	 edx
  032f7	8d 8d a8 fe ff
	ff		 lea	 ecx, DWORD PTR _lDC$188141[ebp]
  032fd	e8 00 00 00 00	 call	 ??BCDC@@QBEPAUHDC__@@XZ	; CDC::operator HDC__ *
  03302	50		 push	 eax
  03303	ff 15 00 00 00
	00		 call	 DWORD PTR __imp__SetPixel@16
  03309	3b f4		 cmp	 esi, esp
  0330b	e8 00 00 00 00	 call	 __RTC_CheckEsp

; 1040 : 			SetPixel(lDC,lre1.right -1,lre1.bottom-1, mcolNormal1);

  03310	8b f4		 mov	 esi, esp
  03312	8b 45 f0	 mov	 eax, DWORD PTR _this$[ebp]
  03315	8b 88 b0 00 00
	00		 mov	 ecx, DWORD PTR [eax+176]
  0331b	51		 push	 ecx
  0331c	8b 55 e8	 mov	 edx, DWORD PTR _lre1$[ebp+12]
  0331f	83 ea 01	 sub	 edx, 1
  03322	52		 push	 edx
  03323	8b 45 e4	 mov	 eax, DWORD PTR _lre1$[ebp+8]
  03326	83 e8 01	 sub	 eax, 1
  03329	50		 push	 eax
  0332a	8d 8d a8 fe ff
	ff		 lea	 ecx, DWORD PTR _lDC$188141[ebp]
  03330	e8 00 00 00 00	 call	 ??BCDC@@QBEPAUHDC__@@XZ	; CDC::operator HDC__ *
  03335	50		 push	 eax
  03336	ff 15 00 00 00
	00		 call	 DWORD PTR __imp__SetPixel@16
  0333c	3b f4		 cmp	 esi, esp
  0333e	e8 00 00 00 00	 call	 __RTC_CheckEsp

; 1041 : 			SetPixel(lDC,lre1.left,lre1.bottom-1, mcolNormal1);

  03343	8b f4		 mov	 esi, esp
  03345	8b 4d f0	 mov	 ecx, DWORD PTR _this$[ebp]
  03348	8b 91 b0 00 00
	00		 mov	 edx, DWORD PTR [ecx+176]
  0334e	52		 push	 edx
  0334f	8b 45 e8	 mov	 eax, DWORD PTR _lre1$[ebp+12]
  03352	83 e8 01	 sub	 eax, 1
  03355	50		 push	 eax
  03356	8b 4d dc	 mov	 ecx, DWORD PTR _lre1$[ebp]
  03359	51		 push	 ecx
  0335a	8d 8d a8 fe ff
	ff		 lea	 ecx, DWORD PTR _lDC$188141[ebp]
  03360	e8 00 00 00 00	 call	 ??BCDC@@QBEPAUHDC__@@XZ	; CDC::operator HDC__ *
  03365	50		 push	 eax
  03366	ff 15 00 00 00
	00		 call	 DWORD PTR __imp__SetPixel@16
  0336c	3b f4		 cmp	 esi, esp
  0336e	e8 00 00 00 00	 call	 __RTC_CheckEsp

; 1042 : 			// 三条线
; 1043 : 			if( lre2.bottom >= 15 )

  03373	83 7d d0 0f	 cmp	 DWORD PTR _lre2$[ebp+12], 15 ; 0000000fH
  03377	0f 8c f0 00 00
	00		 jl	 $L188143

; 1044 : 			{
; 1045 : 				int liLift = lre2.top + (lre2.bottom - 11 -lre2.top)/2 + 1;

  0337d	8b 45 d0	 mov	 eax, DWORD PTR _lre2$[ebp+12]
  03380	83 e8 0b	 sub	 eax, 11			; 0000000bH
  03383	2b 45 c8	 sub	 eax, DWORD PTR _lre2$[ebp+4]
  03386	99		 cdq
  03387	2b c2		 sub	 eax, edx
  03389	d1 f8		 sar	 eax, 1
  0338b	8b 55 c8	 mov	 edx, DWORD PTR _lre2$[ebp+4]
  0338e	8d 44 02 01	 lea	 eax, DWORD PTR [edx+eax+1]
  03392	89 85 a0 fe ff
	ff		 mov	 DWORD PTR _liLift$188144[ebp], eax

; 1046 : 
; 1047 : 				gBitMapOperate.DrawLine(lDC, mcolBK,  1, lre2.left+2, liLift,   lre2.right-3, liLift, FALSE);

  03398	6a 00		 push	 0
  0339a	8b 8d a0 fe ff
	ff		 mov	 ecx, DWORD PTR _liLift$188144[ebp]
  033a0	51		 push	 ecx
  033a1	8b 55 cc	 mov	 edx, DWORD PTR _lre2$[ebp+8]
  033a4	83 ea 03	 sub	 edx, 3
  033a7	52		 push	 edx
  033a8	8b 85 a0 fe ff
	ff		 mov	 eax, DWORD PTR _liLift$188144[ebp]
  033ae	50		 push	 eax
  033af	8b 4d c4	 mov	 ecx, DWORD PTR _lre2$[ebp]
  033b2	83 c1 02	 add	 ecx, 2
  033b5	51		 push	 ecx
  033b6	68 00 00 80 3f	 push	 1065353216		; 3f800000H
  033bb	8b 55 f0	 mov	 edx, DWORD PTR _this$[ebp]
  033be	8b 82 dc 00 00
	00		 mov	 eax, DWORD PTR [edx+220]
  033c4	50		 push	 eax
  033c5	8d 8d a8 fe ff
	ff		 lea	 ecx, DWORD PTR _lDC$188141[ebp]
  033cb	e8 00 00 00 00	 call	 ??BCDC@@QBEPAUHDC__@@XZ	; CDC::operator HDC__ *
  033d0	50		 push	 eax
  033d1	b9 00 00 00 00	 mov	 ecx, OFFSET FLAT:?gBitMapOperate@@3VCBitMapOperate@@A
  033d6	e8 00 00 00 00	 call	 ?DrawLine@CBitMapOperate@@UAEXPAUHDC__@@KMHHHHH@Z ; CBitMapOperate::DrawLine

; 1048 : 				gBitMapOperate.DrawLine(lDC, mcolBK,  1, lre2.left+2, liLift+4, lre2.right-3, liLift+4, FALSE);

  033db	6a 00		 push	 0
  033dd	8b 8d a0 fe ff
	ff		 mov	 ecx, DWORD PTR _liLift$188144[ebp]
  033e3	83 c1 04	 add	 ecx, 4
  033e6	51		 push	 ecx
  033e7	8b 55 cc	 mov	 edx, DWORD PTR _lre2$[ebp+8]
  033ea	83 ea 03	 sub	 edx, 3
  033ed	52		 push	 edx
  033ee	8b 85 a0 fe ff
	ff		 mov	 eax, DWORD PTR _liLift$188144[ebp]
  033f4	83 c0 04	 add	 eax, 4
  033f7	50		 push	 eax
  033f8	8b 4d c4	 mov	 ecx, DWORD PTR _lre2$[ebp]
  033fb	83 c1 02	 add	 ecx, 2
  033fe	51		 push	 ecx
  033ff	68 00 00 80 3f	 push	 1065353216		; 3f800000H
  03404	8b 55 f0	 mov	 edx, DWORD PTR _this$[ebp]
  03407	8b 82 dc 00 00
	00		 mov	 eax, DWORD PTR [edx+220]
  0340d	50		 push	 eax
  0340e	8d 8d a8 fe ff
	ff		 lea	 ecx, DWORD PTR _lDC$188141[ebp]
  03414	e8 00 00 00 00	 call	 ??BCDC@@QBEPAUHDC__@@XZ	; CDC::operator HDC__ *
  03419	50		 push	 eax
  0341a	b9 00 00 00 00	 mov	 ecx, OFFSET FLAT:?gBitMapOperate@@3VCBitMapOperate@@A
  0341f	e8 00 00 00 00	 call	 ?DrawLine@CBitMapOperate@@UAEXPAUHDC__@@KMHHHHH@Z ; CBitMapOperate::DrawLine

; 1049 : 				gBitMapOperate.DrawLine(lDC, mcolBK,  1, lre2.left+2, liLift+8, lre2.right-3, liLift+8, FALSE);

  03424	6a 00		 push	 0
  03426	8b 8d a0 fe ff
	ff		 mov	 ecx, DWORD PTR _liLift$188144[ebp]
  0342c	83 c1 08	 add	 ecx, 8
  0342f	51		 push	 ecx
  03430	8b 55 cc	 mov	 edx, DWORD PTR _lre2$[ebp+8]
  03433	83 ea 03	 sub	 edx, 3
  03436	52		 push	 edx
  03437	8b 85 a0 fe ff
	ff		 mov	 eax, DWORD PTR _liLift$188144[ebp]
  0343d	83 c0 08	 add	 eax, 8
  03440	50		 push	 eax
  03441	8b 4d c4	 mov	 ecx, DWORD PTR _lre2$[ebp]
  03444	83 c1 02	 add	 ecx, 2
  03447	51		 push	 ecx
  03448	68 00 00 80 3f	 push	 1065353216		; 3f800000H
  0344d	8b 55 f0	 mov	 edx, DWORD PTR _this$[ebp]
  03450	8b 82 dc 00 00
	00		 mov	 eax, DWORD PTR [edx+220]
  03456	50		 push	 eax
  03457	8d 8d a8 fe ff
	ff		 lea	 ecx, DWORD PTR _lDC$188141[ebp]
  0345d	e8 00 00 00 00	 call	 ??BCDC@@QBEPAUHDC__@@XZ	; CDC::operator HDC__ *
  03462	50		 push	 eax
  03463	b9 00 00 00 00	 mov	 ecx, OFFSET FLAT:?gBitMapOperate@@3VCBitMapOperate@@A
  03468	e8 00 00 00 00	 call	 ?DrawLine@CBitMapOperate@@UAEXPAUHDC__@@KMHHHHH@Z ; CBitMapOperate::DrawLine
$L188143:

; 1050 : 			}
; 1051 : 
; 1052 : 
; 1053 : 		}

  0346d	c7 45 fc ff ff
	ff ff		 mov	 DWORD PTR __$EHRec$[ebp+8], -1
  03474	8d 8d a8 fe ff
	ff		 lea	 ecx, DWORD PTR _lDC$188141[ebp]
  0347a	e8 00 00 00 00	 call	 ??1CMemDC@@UAE@XZ	; CMemDC::~CMemDC

; 1054 : 		else	//esoHorizontal

  0347f	e9 c6 02 00 00	 jmp	 $L188118
$L188140:

; 1055 : 		{
; 1056 : 			CMemDC lDC(CDC::FromHandle(hDC), &lre1);

  03484	8d 4d dc	 lea	 ecx, DWORD PTR _lre1$[ebp]
  03487	51		 push	 ecx
  03488	8d 8d 08 fe ff
	ff		 lea	 ecx, DWORD PTR $T189028[ebp]
  0348e	e8 00 00 00 00	 call	 ??0CRect@@QAE@PBUtagRECT@@@Z ; CRect::CRect
  03493	8d 95 08 fe ff
	ff		 lea	 edx, DWORD PTR $T189028[ebp]
  03499	52		 push	 edx
  0349a	8b 45 08	 mov	 eax, DWORD PTR _hDC$[ebp]
  0349d	50		 push	 eax
  0349e	e8 00 00 00 00	 call	 ?FromHandle@CDC@@SGPAV1@PAUHDC__@@@Z ; CDC::FromHandle
  034a3	50		 push	 eax
  034a4	8d 8d 70 fe ff
	ff		 lea	 ecx, DWORD PTR _lDC$188146[ebp]
  034aa	e8 00 00 00 00	 call	 ??0CMemDC@@QAE@PAVCDC@@ABVCRect@@@Z ; CMemDC::CMemDC
  034af	c7 45 fc 05 00
	00 00		 mov	 DWORD PTR __$EHRec$[ebp+8], 5

; 1057 : 			gBitMapOperate.FillRectangle(lDC, lre1, mcolFrame1, FALSE);

  034b6	6a 00		 push	 0
  034b8	8b 4d f0	 mov	 ecx, DWORD PTR _this$[ebp]
  034bb	8b 91 c8 00 00
	00		 mov	 edx, DWORD PTR [ecx+200]
  034c1	52		 push	 edx
  034c2	83 ec 10	 sub	 esp, 16			; 00000010H
  034c5	8b c4		 mov	 eax, esp
  034c7	8b 4d dc	 mov	 ecx, DWORD PTR _lre1$[ebp]
  034ca	89 08		 mov	 DWORD PTR [eax], ecx
  034cc	8b 55 e0	 mov	 edx, DWORD PTR _lre1$[ebp+4]
  034cf	89 50 04	 mov	 DWORD PTR [eax+4], edx
  034d2	8b 4d e4	 mov	 ecx, DWORD PTR _lre1$[ebp+8]
  034d5	89 48 08	 mov	 DWORD PTR [eax+8], ecx
  034d8	8b 55 e8	 mov	 edx, DWORD PTR _lre1$[ebp+12]
  034db	89 50 0c	 mov	 DWORD PTR [eax+12], edx
  034de	8d 8d 70 fe ff
	ff		 lea	 ecx, DWORD PTR _lDC$188146[ebp]
  034e4	e8 00 00 00 00	 call	 ??BCDC@@QBEPAUHDC__@@XZ	; CDC::operator HDC__ *
  034e9	50		 push	 eax
  034ea	b9 00 00 00 00	 mov	 ecx, OFFSET FLAT:?gBitMapOperate@@3VCBitMapOperate@@A
  034ef	e8 00 00 00 00	 call	 ?FillRectangle@CBitMapOperate@@UAEXPAUHDC__@@UtagRECT@@KH@Z ; CBitMapOperate::FillRectangle

; 1058 : 			gBitMapOperate.FillRectangle(lDC, lre2, mcolFrame2, FALSE);

  034f4	6a 00		 push	 0
  034f6	8b 45 f0	 mov	 eax, DWORD PTR _this$[ebp]
  034f9	8b 88 cc 00 00
	00		 mov	 ecx, DWORD PTR [eax+204]
  034ff	51		 push	 ecx
  03500	83 ec 10	 sub	 esp, 16			; 00000010H
  03503	8b d4		 mov	 edx, esp
  03505	8b 45 c4	 mov	 eax, DWORD PTR _lre2$[ebp]
  03508	89 02		 mov	 DWORD PTR [edx], eax
  0350a	8b 4d c8	 mov	 ecx, DWORD PTR _lre2$[ebp+4]
  0350d	89 4a 04	 mov	 DWORD PTR [edx+4], ecx
  03510	8b 45 cc	 mov	 eax, DWORD PTR _lre2$[ebp+8]
  03513	89 42 08	 mov	 DWORD PTR [edx+8], eax
  03516	8b 4d d0	 mov	 ecx, DWORD PTR _lre2$[ebp+12]
  03519	89 4a 0c	 mov	 DWORD PTR [edx+12], ecx
  0351c	8d 8d 70 fe ff
	ff		 lea	 ecx, DWORD PTR _lDC$188146[ebp]
  03522	e8 00 00 00 00	 call	 ??BCDC@@QBEPAUHDC__@@XZ	; CDC::operator HDC__ *
  03527	50		 push	 eax
  03528	b9 00 00 00 00	 mov	 ecx, OFFSET FLAT:?gBitMapOperate@@3VCBitMapOperate@@A
  0352d	e8 00 00 00 00	 call	 ?FillRectangle@CBitMapOperate@@UAEXPAUHDC__@@UtagRECT@@KH@Z ; CBitMapOperate::FillRectangle

; 1059 : 			gBitMapOperate.FillRectangle(lDC, lre3, mcolEnter1,mcolEnter2,gBitMapOperate.edoVertical,FALSE);

  03532	6a 01		 push	 1
  03534	6a 00		 push	 0
  03536	6a 01		 push	 1
  03538	8b 55 f0	 mov	 edx, DWORD PTR _this$[ebp]
  0353b	8b 82 bc 00 00
	00		 mov	 eax, DWORD PTR [edx+188]
  03541	50		 push	 eax
  03542	8b 4d f0	 mov	 ecx, DWORD PTR _this$[ebp]
  03545	8b 91 b8 00 00
	00		 mov	 edx, DWORD PTR [ecx+184]
  0354b	52		 push	 edx
  0354c	83 ec 10	 sub	 esp, 16			; 00000010H
  0354f	8b c4		 mov	 eax, esp
  03551	8b 4d ac	 mov	 ecx, DWORD PTR _lre3$[ebp]
  03554	89 08		 mov	 DWORD PTR [eax], ecx
  03556	8b 55 b0	 mov	 edx, DWORD PTR _lre3$[ebp+4]
  03559	89 50 04	 mov	 DWORD PTR [eax+4], edx
  0355c	8b 4d b4	 mov	 ecx, DWORD PTR _lre3$[ebp+8]
  0355f	89 48 08	 mov	 DWORD PTR [eax+8], ecx
  03562	8b 55 b8	 mov	 edx, DWORD PTR _lre3$[ebp+12]
  03565	89 50 0c	 mov	 DWORD PTR [eax+12], edx
  03568	8d 8d 70 fe ff
	ff		 lea	 ecx, DWORD PTR _lDC$188146[ebp]
  0356e	e8 00 00 00 00	 call	 ??BCDC@@QBEPAUHDC__@@XZ	; CDC::operator HDC__ *
  03573	50		 push	 eax
  03574	b9 00 00 00 00	 mov	 ecx, OFFSET FLAT:?gBitMapOperate@@3VCBitMapOperate@@A
  03579	e8 00 00 00 00	 call	 ?FillRectangle@CBitMapOperate@@UAEXPAUHDC__@@UtagRECT@@KKW4ENUM_DrawOrientation@1@HI@Z ; CBitMapOperate::FillRectangle

; 1060 : 			SetPixel(lDC,lre1.left,lre1.top, mcolNormal1);

  0357e	8b f4		 mov	 esi, esp
  03580	8b 45 f0	 mov	 eax, DWORD PTR _this$[ebp]
  03583	8b 88 b0 00 00
	00		 mov	 ecx, DWORD PTR [eax+176]
  03589	51		 push	 ecx
  0358a	8b 55 e0	 mov	 edx, DWORD PTR _lre1$[ebp+4]
  0358d	52		 push	 edx
  0358e	8b 45 dc	 mov	 eax, DWORD PTR _lre1$[ebp]
  03591	50		 push	 eax
  03592	8d 8d 70 fe ff
	ff		 lea	 ecx, DWORD PTR _lDC$188146[ebp]
  03598	e8 00 00 00 00	 call	 ??BCDC@@QBEPAUHDC__@@XZ	; CDC::operator HDC__ *
  0359d	50		 push	 eax
  0359e	ff 15 00 00 00
	00		 call	 DWORD PTR __imp__SetPixel@16
  035a4	3b f4		 cmp	 esi, esp
  035a6	e8 00 00 00 00	 call	 __RTC_CheckEsp

; 1061 : 			SetPixel(lDC,lre1.right -1,lre1.top, mcolNormal1);

  035ab	8b f4		 mov	 esi, esp
  035ad	8b 4d f0	 mov	 ecx, DWORD PTR _this$[ebp]
  035b0	8b 91 b0 00 00
	00		 mov	 edx, DWORD PTR [ecx+176]
  035b6	52		 push	 edx
  035b7	8b 45 e0	 mov	 eax, DWORD PTR _lre1$[ebp+4]
  035ba	50		 push	 eax
  035bb	8b 4d e4	 mov	 ecx, DWORD PTR _lre1$[ebp+8]
  035be	83 e9 01	 sub	 ecx, 1
  035c1	51		 push	 ecx
  035c2	8d 8d 70 fe ff
	ff		 lea	 ecx, DWORD PTR _lDC$188146[ebp]
  035c8	e8 00 00 00 00	 call	 ??BCDC@@QBEPAUHDC__@@XZ	; CDC::operator HDC__ *
  035cd	50		 push	 eax
  035ce	ff 15 00 00 00
	00		 call	 DWORD PTR __imp__SetPixel@16
  035d4	3b f4		 cmp	 esi, esp
  035d6	e8 00 00 00 00	 call	 __RTC_CheckEsp

; 1062 : 			SetPixel(lDC,lre1.right -1,lre1.bottom-1, mcolNormal1);

  035db	8b f4		 mov	 esi, esp
  035dd	8b 55 f0	 mov	 edx, DWORD PTR _this$[ebp]
  035e0	8b 82 b0 00 00
	00		 mov	 eax, DWORD PTR [edx+176]
  035e6	50		 push	 eax
  035e7	8b 4d e8	 mov	 ecx, DWORD PTR _lre1$[ebp+12]
  035ea	83 e9 01	 sub	 ecx, 1
  035ed	51		 push	 ecx
  035ee	8b 55 e4	 mov	 edx, DWORD PTR _lre1$[ebp+8]
  035f1	83 ea 01	 sub	 edx, 1
  035f4	52		 push	 edx
  035f5	8d 8d 70 fe ff
	ff		 lea	 ecx, DWORD PTR _lDC$188146[ebp]
  035fb	e8 00 00 00 00	 call	 ??BCDC@@QBEPAUHDC__@@XZ	; CDC::operator HDC__ *
  03600	50		 push	 eax
  03601	ff 15 00 00 00
	00		 call	 DWORD PTR __imp__SetPixel@16
  03607	3b f4		 cmp	 esi, esp
  03609	e8 00 00 00 00	 call	 __RTC_CheckEsp

; 1063 : 			SetPixel(lDC,lre1.left,lre1.bottom-1, mcolNormal1);

  0360e	8b f4		 mov	 esi, esp
  03610	8b 45 f0	 mov	 eax, DWORD PTR _this$[ebp]
  03613	8b 88 b0 00 00
	00		 mov	 ecx, DWORD PTR [eax+176]
  03619	51		 push	 ecx
  0361a	8b 55 e8	 mov	 edx, DWORD PTR _lre1$[ebp+12]
  0361d	83 ea 01	 sub	 edx, 1
  03620	52		 push	 edx
  03621	8b 45 dc	 mov	 eax, DWORD PTR _lre1$[ebp]
  03624	50		 push	 eax
  03625	8d 8d 70 fe ff
	ff		 lea	 ecx, DWORD PTR _lDC$188146[ebp]
  0362b	e8 00 00 00 00	 call	 ??BCDC@@QBEPAUHDC__@@XZ	; CDC::operator HDC__ *
  03630	50		 push	 eax
  03631	ff 15 00 00 00
	00		 call	 DWORD PTR __imp__SetPixel@16
  03637	3b f4		 cmp	 esi, esp
  03639	e8 00 00 00 00	 call	 __RTC_CheckEsp

; 1064 : 
; 1065 : 			// 三条线
; 1066 : 			if( lre2.right >= 15 )

  0363e	83 7d cc 0f	 cmp	 DWORD PTR _lre2$[ebp+8], 15 ; 0000000fH
  03642	0f 8c f0 00 00
	00		 jl	 $L188148

; 1067 : 			{
; 1068 : 				int liLift = lre2.left + (lre2.right - 11 -lre2.left)/2 + 1;

  03648	8b 45 cc	 mov	 eax, DWORD PTR _lre2$[ebp+8]
  0364b	83 e8 0b	 sub	 eax, 11			; 0000000bH
  0364e	2b 45 c4	 sub	 eax, DWORD PTR _lre2$[ebp]
  03651	99		 cdq
  03652	2b c2		 sub	 eax, edx
  03654	d1 f8		 sar	 eax, 1
  03656	8b 4d c4	 mov	 ecx, DWORD PTR _lre2$[ebp]
  03659	8d 54 01 01	 lea	 edx, DWORD PTR [ecx+eax+1]
  0365d	89 95 68 fe ff
	ff		 mov	 DWORD PTR _liLift$188149[ebp], edx

; 1069 : 
; 1070 : 				gBitMapOperate.DrawLine(lDC,mcolBK,  1, liLift, lre2.top+2, liLift, lre2.bottom-3, FALSE);

  03663	6a 00		 push	 0
  03665	8b 45 d0	 mov	 eax, DWORD PTR _lre2$[ebp+12]
  03668	83 e8 03	 sub	 eax, 3
  0366b	50		 push	 eax
  0366c	8b 8d 68 fe ff
	ff		 mov	 ecx, DWORD PTR _liLift$188149[ebp]
  03672	51		 push	 ecx
  03673	8b 55 c8	 mov	 edx, DWORD PTR _lre2$[ebp+4]
  03676	83 c2 02	 add	 edx, 2
  03679	52		 push	 edx
  0367a	8b 85 68 fe ff
	ff		 mov	 eax, DWORD PTR _liLift$188149[ebp]
  03680	50		 push	 eax
  03681	68 00 00 80 3f	 push	 1065353216		; 3f800000H
  03686	8b 4d f0	 mov	 ecx, DWORD PTR _this$[ebp]
  03689	8b 91 dc 00 00
	00		 mov	 edx, DWORD PTR [ecx+220]
  0368f	52		 push	 edx
  03690	8d 8d 70 fe ff
	ff		 lea	 ecx, DWORD PTR _lDC$188146[ebp]
  03696	e8 00 00 00 00	 call	 ??BCDC@@QBEPAUHDC__@@XZ	; CDC::operator HDC__ *
  0369b	50		 push	 eax
  0369c	b9 00 00 00 00	 mov	 ecx, OFFSET FLAT:?gBitMapOperate@@3VCBitMapOperate@@A
  036a1	e8 00 00 00 00	 call	 ?DrawLine@CBitMapOperate@@UAEXPAUHDC__@@KMHHHHH@Z ; CBitMapOperate::DrawLine

; 1071 : 				gBitMapOperate.DrawLine(lDC, mcolBK,  1, liLift+4, lre2.top+2, liLift+4, lre2.bottom-3, FALSE);

  036a6	6a 00		 push	 0
  036a8	8b 45 d0	 mov	 eax, DWORD PTR _lre2$[ebp+12]
  036ab	83 e8 03	 sub	 eax, 3
  036ae	50		 push	 eax
  036af	8b 8d 68 fe ff
	ff		 mov	 ecx, DWORD PTR _liLift$188149[ebp]
  036b5	83 c1 04	 add	 ecx, 4
  036b8	51		 push	 ecx
  036b9	8b 55 c8	 mov	 edx, DWORD PTR _lre2$[ebp+4]
  036bc	83 c2 02	 add	 edx, 2
  036bf	52		 push	 edx
  036c0	8b 85 68 fe ff
	ff		 mov	 eax, DWORD PTR _liLift$188149[ebp]
  036c6	83 c0 04	 add	 eax, 4
  036c9	50		 push	 eax
  036ca	68 00 00 80 3f	 push	 1065353216		; 3f800000H
  036cf	8b 4d f0	 mov	 ecx, DWORD PTR _this$[ebp]
  036d2	8b 91 dc 00 00
	00		 mov	 edx, DWORD PTR [ecx+220]
  036d8	52		 push	 edx
  036d9	8d 8d 70 fe ff
	ff		 lea	 ecx, DWORD PTR _lDC$188146[ebp]
  036df	e8 00 00 00 00	 call	 ??BCDC@@QBEPAUHDC__@@XZ	; CDC::operator HDC__ *
  036e4	50		 push	 eax
  036e5	b9 00 00 00 00	 mov	 ecx, OFFSET FLAT:?gBitMapOperate@@3VCBitMapOperate@@A
  036ea	e8 00 00 00 00	 call	 ?DrawLine@CBitMapOperate@@UAEXPAUHDC__@@KMHHHHH@Z ; CBitMapOperate::DrawLine

; 1072 : 				gBitMapOperate.DrawLine(lDC,mcolBK,  1, liLift+8, lre2.top+2, liLift+8, lre2.bottom-3, FALSE);

  036ef	6a 00		 push	 0
  036f1	8b 45 d0	 mov	 eax, DWORD PTR _lre2$[ebp+12]
  036f4	83 e8 03	 sub	 eax, 3
  036f7	50		 push	 eax
  036f8	8b 8d 68 fe ff
	ff		 mov	 ecx, DWORD PTR _liLift$188149[ebp]
  036fe	83 c1 08	 add	 ecx, 8
  03701	51		 push	 ecx
  03702	8b 55 c8	 mov	 edx, DWORD PTR _lre2$[ebp+4]
  03705	83 c2 02	 add	 edx, 2
  03708	52		 push	 edx
  03709	8b 85 68 fe ff
	ff		 mov	 eax, DWORD PTR _liLift$188149[ebp]
  0370f	83 c0 08	 add	 eax, 8
  03712	50		 push	 eax
  03713	68 00 00 80 3f	 push	 1065353216		; 3f800000H
  03718	8b 4d f0	 mov	 ecx, DWORD PTR _this$[ebp]
  0371b	8b 91 dc 00 00
	00		 mov	 edx, DWORD PTR [ecx+220]
  03721	52		 push	 edx
  03722	8d 8d 70 fe ff
	ff		 lea	 ecx, DWORD PTR _lDC$188146[ebp]
  03728	e8 00 00 00 00	 call	 ??BCDC@@QBEPAUHDC__@@XZ	; CDC::operator HDC__ *
  0372d	50		 push	 eax
  0372e	b9 00 00 00 00	 mov	 ecx, OFFSET FLAT:?gBitMapOperate@@3VCBitMapOperate@@A
  03733	e8 00 00 00 00	 call	 ?DrawLine@CBitMapOperate@@UAEXPAUHDC__@@KMHHHHH@Z ; CBitMapOperate::DrawLine
$L188148:

; 1073 : 			}
; 1074 : 
; 1075 : 		}

  03738	c7 45 fc ff ff
	ff ff		 mov	 DWORD PTR __$EHRec$[ebp+8], -1
  0373f	8d 8d 70 fe ff
	ff		 lea	 ecx, DWORD PTR _lDC$188146[ebp]
  03745	e8 00 00 00 00	 call	 ??1CMemDC@@UAE@XZ	; CMemDC::~CMemDC
$L188118:

; 1076 : 
; 1077 : 		break;
; 1078 : 	}
; 1079 : }

  0374a	52		 push	 edx
  0374b	8b cd		 mov	 ecx, ebp
  0374d	50		 push	 eax
  0374e	8d 15 00 00 00
	00		 lea	 edx, DWORD PTR $L189048
  03754	e8 00 00 00 00	 call	 @_RTC_CheckStackVars@8
  03759	58		 pop	 eax
  0375a	5a		 pop	 edx
  0375b	8b 4d f4	 mov	 ecx, DWORD PTR __$EHRec$[ebp]
  0375e	64 89 0d 00 00
	00 00		 mov	 DWORD PTR fs:__except_list, ecx
  03765	5f		 pop	 edi
  03766	5e		 pop	 esi
  03767	81 c4 fc 01 00
	00		 add	 esp, 508		; 000001fcH
  0376d	3b ec		 cmp	 ebp, esp
  0376f	e8 00 00 00 00	 call	 __RTC_CheckEsp
  03774	8b e5		 mov	 esp, ebp
  03776	5d		 pop	 ebp
  03777	c2 18 00	 ret	 24			; 00000018H
$L189048:
  0377a	09 00 00 00	 DD	 9
  0377e	00 00 00 00	 DD	 $L189047
$L189047:
  03782	dc ff ff ff	 DD	 -36			; ffffffdcH
  03786	10 00 00 00	 DD	 16			; 00000010H
  0378a	00 00 00 00	 DD	 $L189037
  0378e	c4 ff ff ff	 DD	 -60			; ffffffc4H
  03792	10 00 00 00	 DD	 16			; 00000010H
  03796	00 00 00 00	 DD	 $L189038
  0379a	ac ff ff ff	 DD	 -84			; ffffffacH
  0379e	10 00 00 00	 DD	 16			; 00000010H
  037a2	00 00 00 00	 DD	 $L189039
  037a6	78 ff ff ff	 DD	 -136			; ffffff78H
  037aa	2c 00 00 00	 DD	 44			; 0000002cH
  037ae	00 00 00 00	 DD	 $L189040
  037b2	44 ff ff ff	 DD	 -188			; ffffff44H
  037b6	2c 00 00 00	 DD	 44			; 0000002cH
  037ba	00 00 00 00	 DD	 $L189041
  037be	10 ff ff ff	 DD	 -240			; ffffff10H
  037c2	2c 00 00 00	 DD	 44			; 0000002cH
  037c6	00 00 00 00	 DD	 $L189042
  037ca	dc fe ff ff	 DD	 -292			; fffffedcH
  037ce	2c 00 00 00	 DD	 44			; 0000002cH
  037d2	00 00 00 00	 DD	 $L189043
  037d6	a8 fe ff ff	 DD	 -344			; fffffea8H
  037da	2c 00 00 00	 DD	 44			; 0000002cH
  037de	00 00 00 00	 DD	 $L189044
  037e2	70 fe ff ff	 DD	 -400			; fffffe70H
  037e6	2c 00 00 00	 DD	 44			; 0000002cH
  037ea	00 00 00 00	 DD	 $L189045
$L189045:
  037ee	6c		 DB	 108			; 0000006cH
  037ef	44		 DB	 68			; 00000044H
  037f0	43		 DB	 67			; 00000043H
  037f1	00		 DB	 0
$L189044:
  037f2	6c		 DB	 108			; 0000006cH
  037f3	44		 DB	 68			; 00000044H
  037f4	43		 DB	 67			; 00000043H
  037f5	00		 DB	 0
$L189043:
  037f6	6c		 DB	 108			; 0000006cH
  037f7	44		 DB	 68			; 00000044H
  037f8	43		 DB	 67			; 00000043H
  037f9	00		 DB	 0
$L189042:
  037fa	6c		 DB	 108			; 0000006cH
  037fb	44		 DB	 68			; 00000044H
  037fc	43		 DB	 67			; 00000043H
  037fd	00		 DB	 0
$L189041:
  037fe	6c		 DB	 108			; 0000006cH
  037ff	44		 DB	 68			; 00000044H
  03800	43		 DB	 67			; 00000043H
  03801	00		 DB	 0
$L189040:
  03802	6c		 DB	 108			; 0000006cH
  03803	44		 DB	 68			; 00000044H
  03804	43		 DB	 67			; 00000043H
  03805	00		 DB	 0
$L189039:
  03806	6c		 DB	 108			; 0000006cH
  03807	72		 DB	 114			; 00000072H
  03808	65		 DB	 101			; 00000065H
  03809	33		 DB	 51			; 00000033H
  0380a	00		 DB	 0
$L189038:
  0380b	6c		 DB	 108			; 0000006cH
  0380c	72		 DB	 114			; 00000072H
  0380d	65		 DB	 101			; 00000065H
  0380e	32		 DB	 50			; 00000032H
  0380f	00		 DB	 0
$L189037:
  03810	6c		 DB	 108			; 0000006cH
  03811	72		 DB	 114			; 00000072H
  03812	65		 DB	 101			; 00000065H
  03813	31		 DB	 49			; 00000031H
  03814	00		 DB	 0
$L189049:
  03815	00 00 00 00	 DD	 $L188127
  03819	00 00 00 00	 DD	 $L188130
  0381d	00 00 00 00	 DD	 $L188133
  03821	00 00 00 00	 DD	 $L188136
  03825	00 00 00 00	 DD	 $L188139
_TEXT	ENDS
text$x	SEGMENT
$L189029:
  0001c	8d 8d 78 ff ff
	ff		 lea	 ecx, DWORD PTR _lDC$188128[ebp]
  00022	e9 00 00 00 00	 jmp	 ??1CMemDC@@UAE@XZ	; CMemDC::~CMemDC
$L189030:
  00027	8d 8d 44 ff ff
	ff		 lea	 ecx, DWORD PTR _lDC$188131[ebp]
  0002d	e9 00 00 00 00	 jmp	 ??1CMemDC@@UAE@XZ	; CMemDC::~CMemDC
$L189031:
  00032	8d 8d 10 ff ff
	ff		 lea	 ecx, DWORD PTR _lDC$188134[ebp]
  00038	e9 00 00 00 00	 jmp	 ??1CMemDC@@UAE@XZ	; CMemDC::~CMemDC
$L189032:
  0003d	8d 8d dc fe ff
	ff		 lea	 ecx, DWORD PTR _lDC$188137[ebp]
  00043	e9 00 00 00 00	 jmp	 ??1CMemDC@@UAE@XZ	; CMemDC::~CMemDC
$L189033:
  00048	8d 8d a8 fe ff
	ff		 lea	 ecx, DWORD PTR _lDC$188141[ebp]
  0004e	e9 00 00 00 00	 jmp	 ??1CMemDC@@UAE@XZ	; CMemDC::~CMemDC
$L189034:
  00053	8d 8d 70 fe ff
	ff		 lea	 ecx, DWORD PTR _lDC$188146[ebp]
  00059	e9 00 00 00 00	 jmp	 ??1CMemDC@@UAE@XZ	; CMemDC::~CMemDC
__ehhandler$?DrawHighlightFace@CScrollBarEx@@AAEXPAUHDC__@@UtagRECT@@H@Z:
  0005e	b8 00 00 00 00	 mov	 eax, OFFSET FLAT:$T189036
  00063	e9 00 00 00 00	 jmp	 ___CxxFrameHandler
text$x	ENDS
?DrawHighlightFace@CScrollBarEx@@AAEXPAUHDC__@@UtagRECT@@H@Z ENDP ; CScrollBarEx::DrawHighlightFace
xdata$x	SEGMENT
$T189079 DD	0ffffffffH
	DD	FLAT:$L189058
	DD	0ffffffffH
	DD	FLAT:$L189059
	DD	0ffffffffH
	DD	FLAT:$L189060
	DD	0ffffffffH
	DD	FLAT:$L189061
	DD	0ffffffffH
	DD	FLAT:$L189062
	DD	0ffffffffH
	DD	FLAT:$L189063
$T189065 DD	019930520H
	DD	06H
	DD	FLAT:$T189079
	DD	2 DUP(00H)
	DD	2 DUP(00H)
; Function compile flags: /Odt /RTCsu
xdata$x	ENDS
_TEXT	SEGMENT
tv67 = -508						; size = 4
$T189057 = -504						; size = 16
$T189056 = -488						; size = 16
$T189055 = -472						; size = 16
$T189054 = -456						; size = 16
$T189053 = -440						; size = 16
$T189052 = -424						; size = 16
_liLift$188186 = -408					; size = 4
_lDC$188183 = -400					; size = 44
_liLift$188181 = -352					; size = 4
_lDC$188178 = -344					; size = 44
_lDC$188174 = -292					; size = 44
_lDC$188171 = -240					; size = 44
_lDC$188168 = -188					; size = 44
_lDC$188165 = -136					; size = 44
_lre3$ = -84						; size = 16
_lre2$ = -60						; size = 16
_lre1$ = -36						; size = 16
_this$ = -16						; size = 4
__$EHRec$ = -12						; size = 12
_hDC$ = 8						; size = 4
_aRect$ = 12						; size = 16
_aiType$ = 28						; size = 4
?DrawDownFace@CScrollBarEx@@AAEXPAUHDC__@@UtagRECT@@H@Z PROC NEAR ; CScrollBarEx::DrawDownFace
; _this$ = ecx

; 1090 : {

  03830	55		 push	 ebp
  03831	8b ec		 mov	 ebp, esp
  03833	6a ff		 push	 -1
  03835	68 00 00 00 00	 push	 __ehhandler$?DrawDownFace@CScrollBarEx@@AAEXPAUHDC__@@UtagRECT@@H@Z
  0383a	64 a1 00 00 00
	00		 mov	 eax, DWORD PTR fs:__except_list
  03840	50		 push	 eax
  03841	64 89 25 00 00
	00 00		 mov	 DWORD PTR fs:__except_list, esp
  03848	81 ec f0 01 00
	00		 sub	 esp, 496		; 000001f0H
  0384e	56		 push	 esi
  0384f	57		 push	 edi
  03850	51		 push	 ecx
  03851	8d bd 04 fe ff
	ff		 lea	 edi, DWORD PTR [ebp-508]
  03857	b9 7c 00 00 00	 mov	 ecx, 124		; 0000007cH
  0385c	b8 cc cc cc cc	 mov	 eax, -858993460		; ccccccccH
  03861	f3 ab		 rep stosd
  03863	59		 pop	 ecx
  03864	89 4d f0	 mov	 DWORD PTR _this$[ebp], ecx

; 1091 : 	if (!mbEnabled)

  03867	8b 45 f0	 mov	 eax, DWORD PTR _this$[ebp]
  0386a	0f b6 88 98 00
	00 00		 movzx	 ecx, BYTE PTR [eax+152]
  03871	85 c9		 test	 ecx, ecx
  03873	75 05		 jne	 SHORT $L188156

; 1092 : 		return;

  03875	e9 e0 11 00 00	 jmp	 $L188155
$L188156:

; 1093 : 
; 1094 : 	InflateRect(&aRect, 1, 1);

  0387a	8b f4		 mov	 esi, esp
  0387c	6a 01		 push	 1
  0387e	6a 01		 push	 1
  03880	8d 55 0c	 lea	 edx, DWORD PTR _aRect$[ebp]
  03883	52		 push	 edx
  03884	ff 15 00 00 00
	00		 call	 DWORD PTR __imp__InflateRect@12
  0388a	3b f4		 cmp	 esi, esp
  0388c	e8 00 00 00 00	 call	 __RTC_CheckEsp

; 1095 : 	RECT lre1 = aRect;

  03891	8b 45 0c	 mov	 eax, DWORD PTR _aRect$[ebp]
  03894	89 45 dc	 mov	 DWORD PTR _lre1$[ebp], eax
  03897	8b 4d 10	 mov	 ecx, DWORD PTR _aRect$[ebp+4]
  0389a	89 4d e0	 mov	 DWORD PTR _lre1$[ebp+4], ecx
  0389d	8b 55 14	 mov	 edx, DWORD PTR _aRect$[ebp+8]
  038a0	89 55 e4	 mov	 DWORD PTR _lre1$[ebp+8], edx
  038a3	8b 45 18	 mov	 eax, DWORD PTR _aRect$[ebp+12]
  038a6	89 45 e8	 mov	 DWORD PTR _lre1$[ebp+12], eax

; 1096 : 	InflateRect(&aRect, -1, -1);

  038a9	8b f4		 mov	 esi, esp
  038ab	6a ff		 push	 -1
  038ad	6a ff		 push	 -1
  038af	8d 4d 0c	 lea	 ecx, DWORD PTR _aRect$[ebp]
  038b2	51		 push	 ecx
  038b3	ff 15 00 00 00
	00		 call	 DWORD PTR __imp__InflateRect@12
  038b9	3b f4		 cmp	 esi, esp
  038bb	e8 00 00 00 00	 call	 __RTC_CheckEsp

; 1097 : 	RECT lre2 = aRect;

  038c0	8b 55 0c	 mov	 edx, DWORD PTR _aRect$[ebp]
  038c3	89 55 c4	 mov	 DWORD PTR _lre2$[ebp], edx
  038c6	8b 45 10	 mov	 eax, DWORD PTR _aRect$[ebp+4]
  038c9	89 45 c8	 mov	 DWORD PTR _lre2$[ebp+4], eax
  038cc	8b 4d 14	 mov	 ecx, DWORD PTR _aRect$[ebp+8]
  038cf	89 4d cc	 mov	 DWORD PTR _lre2$[ebp+8], ecx
  038d2	8b 55 18	 mov	 edx, DWORD PTR _aRect$[ebp+12]
  038d5	89 55 d0	 mov	 DWORD PTR _lre2$[ebp+12], edx

; 1098 : 	InflateRect(&aRect, -1, -1);

  038d8	8b f4		 mov	 esi, esp
  038da	6a ff		 push	 -1
  038dc	6a ff		 push	 -1
  038de	8d 45 0c	 lea	 eax, DWORD PTR _aRect$[ebp]
  038e1	50		 push	 eax
  038e2	ff 15 00 00 00
	00		 call	 DWORD PTR __imp__InflateRect@12
  038e8	3b f4		 cmp	 esi, esp
  038ea	e8 00 00 00 00	 call	 __RTC_CheckEsp

; 1099 : 	RECT lre3 = aRect;

  038ef	8b 4d 0c	 mov	 ecx, DWORD PTR _aRect$[ebp]
  038f2	89 4d ac	 mov	 DWORD PTR _lre3$[ebp], ecx
  038f5	8b 55 10	 mov	 edx, DWORD PTR _aRect$[ebp+4]
  038f8	89 55 b0	 mov	 DWORD PTR _lre3$[ebp+4], edx
  038fb	8b 45 14	 mov	 eax, DWORD PTR _aRect$[ebp+8]
  038fe	89 45 b4	 mov	 DWORD PTR _lre3$[ebp+8], eax
  03901	8b 4d 18	 mov	 ecx, DWORD PTR _aRect$[ebp+12]
  03904	89 4d b8	 mov	 DWORD PTR _lre3$[ebp+12], ecx

; 1100 : 
; 1101 : 	switch(aiType)

  03907	8b 55 1c	 mov	 edx, DWORD PTR _aiType$[ebp]
  0390a	89 95 04 fe ff
	ff		 mov	 DWORD PTR tv67[ebp], edx
  03910	83 bd 04 fe ff
	ff 04		 cmp	 DWORD PTR tv67[ebp], 4
  03917	0f 87 3d 11 00
	00		 ja	 $L188155
  0391d	8b 85 04 fe ff
	ff		 mov	 eax, DWORD PTR tv67[ebp]
  03923	ff 24 85 00 00
	00 00		 jmp	 DWORD PTR $L189078[eax*4]
$L188164:

; 1102 : 	{
; 1103 : 	case 0:		//左箭头
; 1104 : 		{
; 1105 : 			CMemDC lDC(CDC::FromHandle(hDC), &lre1);

  0392a	8d 4d dc	 lea	 ecx, DWORD PTR _lre1$[ebp]
  0392d	51		 push	 ecx
  0392e	8d 8d 58 fe ff
	ff		 lea	 ecx, DWORD PTR $T189052[ebp]
  03934	e8 00 00 00 00	 call	 ??0CRect@@QAE@PBUtagRECT@@@Z ; CRect::CRect
  03939	8d 95 58 fe ff
	ff		 lea	 edx, DWORD PTR $T189052[ebp]
  0393f	52		 push	 edx
  03940	8b 45 08	 mov	 eax, DWORD PTR _hDC$[ebp]
  03943	50		 push	 eax
  03944	e8 00 00 00 00	 call	 ?FromHandle@CDC@@SGPAV1@PAUHDC__@@@Z ; CDC::FromHandle
  03949	50		 push	 eax
  0394a	8d 8d 78 ff ff
	ff		 lea	 ecx, DWORD PTR _lDC$188165[ebp]
  03950	e8 00 00 00 00	 call	 ??0CMemDC@@QAE@PAVCDC@@ABVCRect@@@Z ; CMemDC::CMemDC
  03955	c7 45 fc 00 00
	00 00		 mov	 DWORD PTR __$EHRec$[ebp+8], 0

; 1106 : 			gBitMapOperate.FillRectangle(lDC, lre1, mcolFrame1, FALSE);

  0395c	6a 00		 push	 0
  0395e	8b 4d f0	 mov	 ecx, DWORD PTR _this$[ebp]
  03961	8b 91 c8 00 00
	00		 mov	 edx, DWORD PTR [ecx+200]
  03967	52		 push	 edx
  03968	83 ec 10	 sub	 esp, 16			; 00000010H
  0396b	8b c4		 mov	 eax, esp
  0396d	8b 4d dc	 mov	 ecx, DWORD PTR _lre1$[ebp]
  03970	89 08		 mov	 DWORD PTR [eax], ecx
  03972	8b 55 e0	 mov	 edx, DWORD PTR _lre1$[ebp+4]
  03975	89 50 04	 mov	 DWORD PTR [eax+4], edx
  03978	8b 4d e4	 mov	 ecx, DWORD PTR _lre1$[ebp+8]
  0397b	89 48 08	 mov	 DWORD PTR [eax+8], ecx
  0397e	8b 55 e8	 mov	 edx, DWORD PTR _lre1$[ebp+12]
  03981	89 50 0c	 mov	 DWORD PTR [eax+12], edx
  03984	8d 8d 78 ff ff
	ff		 lea	 ecx, DWORD PTR _lDC$188165[ebp]
  0398a	e8 00 00 00 00	 call	 ??BCDC@@QBEPAUHDC__@@XZ	; CDC::operator HDC__ *
  0398f	50		 push	 eax
  03990	b9 00 00 00 00	 mov	 ecx, OFFSET FLAT:?gBitMapOperate@@3VCBitMapOperate@@A
  03995	e8 00 00 00 00	 call	 ?FillRectangle@CBitMapOperate@@UAEXPAUHDC__@@UtagRECT@@KH@Z ; CBitMapOperate::FillRectangle

; 1107 : 			gBitMapOperate.FillRectangle(lDC, lre2, mcolFrame2, FALSE);

  0399a	6a 00		 push	 0
  0399c	8b 45 f0	 mov	 eax, DWORD PTR _this$[ebp]
  0399f	8b 88 cc 00 00
	00		 mov	 ecx, DWORD PTR [eax+204]
  039a5	51		 push	 ecx
  039a6	83 ec 10	 sub	 esp, 16			; 00000010H
  039a9	8b d4		 mov	 edx, esp
  039ab	8b 45 c4	 mov	 eax, DWORD PTR _lre2$[ebp]
  039ae	89 02		 mov	 DWORD PTR [edx], eax
  039b0	8b 4d c8	 mov	 ecx, DWORD PTR _lre2$[ebp+4]
  039b3	89 4a 04	 mov	 DWORD PTR [edx+4], ecx
  039b6	8b 45 cc	 mov	 eax, DWORD PTR _lre2$[ebp+8]
  039b9	89 42 08	 mov	 DWORD PTR [edx+8], eax
  039bc	8b 4d d0	 mov	 ecx, DWORD PTR _lre2$[ebp+12]
  039bf	89 4a 0c	 mov	 DWORD PTR [edx+12], ecx
  039c2	8d 8d 78 ff ff
	ff		 lea	 ecx, DWORD PTR _lDC$188165[ebp]
  039c8	e8 00 00 00 00	 call	 ??BCDC@@QBEPAUHDC__@@XZ	; CDC::operator HDC__ *
  039cd	50		 push	 eax
  039ce	b9 00 00 00 00	 mov	 ecx, OFFSET FLAT:?gBitMapOperate@@3VCBitMapOperate@@A
  039d3	e8 00 00 00 00	 call	 ?FillRectangle@CBitMapOperate@@UAEXPAUHDC__@@UtagRECT@@KH@Z ; CBitMapOperate::FillRectangle

; 1108 : 			gBitMapOperate.FillRectangle(lDC, lre3, mcolBtn1,mcolBtn2,gBitMapOperate.edoVertical,FALSE);

  039d8	6a 01		 push	 1
  039da	6a 00		 push	 0
  039dc	6a 01		 push	 1
  039de	8b 55 f0	 mov	 edx, DWORD PTR _this$[ebp]
  039e1	8b 82 d4 00 00
	00		 mov	 eax, DWORD PTR [edx+212]
  039e7	50		 push	 eax
  039e8	8b 4d f0	 mov	 ecx, DWORD PTR _this$[ebp]
  039eb	8b 91 d0 00 00
	00		 mov	 edx, DWORD PTR [ecx+208]
  039f1	52		 push	 edx
  039f2	83 ec 10	 sub	 esp, 16			; 00000010H
  039f5	8b c4		 mov	 eax, esp
  039f7	8b 4d ac	 mov	 ecx, DWORD PTR _lre3$[ebp]
  039fa	89 08		 mov	 DWORD PTR [eax], ecx
  039fc	8b 55 b0	 mov	 edx, DWORD PTR _lre3$[ebp+4]
  039ff	89 50 04	 mov	 DWORD PTR [eax+4], edx
  03a02	8b 4d b4	 mov	 ecx, DWORD PTR _lre3$[ebp+8]
  03a05	89 48 08	 mov	 DWORD PTR [eax+8], ecx
  03a08	8b 55 b8	 mov	 edx, DWORD PTR _lre3$[ebp+12]
  03a0b	89 50 0c	 mov	 DWORD PTR [eax+12], edx
  03a0e	8d 8d 78 ff ff
	ff		 lea	 ecx, DWORD PTR _lDC$188165[ebp]
  03a14	e8 00 00 00 00	 call	 ??BCDC@@QBEPAUHDC__@@XZ	; CDC::operator HDC__ *
  03a19	50		 push	 eax
  03a1a	b9 00 00 00 00	 mov	 ecx, OFFSET FLAT:?gBitMapOperate@@3VCBitMapOperate@@A
  03a1f	e8 00 00 00 00	 call	 ?FillRectangle@CBitMapOperate@@UAEXPAUHDC__@@UtagRECT@@KKW4ENUM_DrawOrientation@1@HI@Z ; CBitMapOperate::FillRectangle

; 1109 : 			SetPixel(lDC,lre1.left,lre1.top, mcolNormal1);

  03a24	8b f4		 mov	 esi, esp
  03a26	8b 45 f0	 mov	 eax, DWORD PTR _this$[ebp]
  03a29	8b 88 b0 00 00
	00		 mov	 ecx, DWORD PTR [eax+176]
  03a2f	51		 push	 ecx
  03a30	8b 55 e0	 mov	 edx, DWORD PTR _lre1$[ebp+4]
  03a33	52		 push	 edx
  03a34	8b 45 dc	 mov	 eax, DWORD PTR _lre1$[ebp]
  03a37	50		 push	 eax
  03a38	8d 8d 78 ff ff
	ff		 lea	 ecx, DWORD PTR _lDC$188165[ebp]
  03a3e	e8 00 00 00 00	 call	 ??BCDC@@QBEPAUHDC__@@XZ	; CDC::operator HDC__ *
  03a43	50		 push	 eax
  03a44	ff 15 00 00 00
	00		 call	 DWORD PTR __imp__SetPixel@16
  03a4a	3b f4		 cmp	 esi, esp
  03a4c	e8 00 00 00 00	 call	 __RTC_CheckEsp

; 1110 : 			SetPixel(lDC,lre1.right -1,lre1.top, mcolNormal1);

  03a51	8b f4		 mov	 esi, esp
  03a53	8b 4d f0	 mov	 ecx, DWORD PTR _this$[ebp]
  03a56	8b 91 b0 00 00
	00		 mov	 edx, DWORD PTR [ecx+176]
  03a5c	52		 push	 edx
  03a5d	8b 45 e0	 mov	 eax, DWORD PTR _lre1$[ebp+4]
  03a60	50		 push	 eax
  03a61	8b 4d e4	 mov	 ecx, DWORD PTR _lre1$[ebp+8]
  03a64	83 e9 01	 sub	 ecx, 1
  03a67	51		 push	 ecx
  03a68	8d 8d 78 ff ff
	ff		 lea	 ecx, DWORD PTR _lDC$188165[ebp]
  03a6e	e8 00 00 00 00	 call	 ??BCDC@@QBEPAUHDC__@@XZ	; CDC::operator HDC__ *
  03a73	50		 push	 eax
  03a74	ff 15 00 00 00
	00		 call	 DWORD PTR __imp__SetPixel@16
  03a7a	3b f4		 cmp	 esi, esp
  03a7c	e8 00 00 00 00	 call	 __RTC_CheckEsp

; 1111 : 			SetPixel(lDC,lre1.right -1,lre1.bottom-1, mcolNormal1);

  03a81	8b f4		 mov	 esi, esp
  03a83	8b 55 f0	 mov	 edx, DWORD PTR _this$[ebp]
  03a86	8b 82 b0 00 00
	00		 mov	 eax, DWORD PTR [edx+176]
  03a8c	50		 push	 eax
  03a8d	8b 4d e8	 mov	 ecx, DWORD PTR _lre1$[ebp+12]
  03a90	83 e9 01	 sub	 ecx, 1
  03a93	51		 push	 ecx
  03a94	8b 55 e4	 mov	 edx, DWORD PTR _lre1$[ebp+8]
  03a97	83 ea 01	 sub	 edx, 1
  03a9a	52		 push	 edx
  03a9b	8d 8d 78 ff ff
	ff		 lea	 ecx, DWORD PTR _lDC$188165[ebp]
  03aa1	e8 00 00 00 00	 call	 ??BCDC@@QBEPAUHDC__@@XZ	; CDC::operator HDC__ *
  03aa6	50		 push	 eax
  03aa7	ff 15 00 00 00
	00		 call	 DWORD PTR __imp__SetPixel@16
  03aad	3b f4		 cmp	 esi, esp
  03aaf	e8 00 00 00 00	 call	 __RTC_CheckEsp

; 1112 : 			SetPixel(lDC,lre1.left,lre1.bottom-1, mcolNormal1);

  03ab4	8b f4		 mov	 esi, esp
  03ab6	8b 45 f0	 mov	 eax, DWORD PTR _this$[ebp]
  03ab9	8b 88 b0 00 00
	00		 mov	 ecx, DWORD PTR [eax+176]
  03abf	51		 push	 ecx
  03ac0	8b 55 e8	 mov	 edx, DWORD PTR _lre1$[ebp+12]
  03ac3	83 ea 01	 sub	 edx, 1
  03ac6	52		 push	 edx
  03ac7	8b 45 dc	 mov	 eax, DWORD PTR _lre1$[ebp]
  03aca	50		 push	 eax
  03acb	8d 8d 78 ff ff
	ff		 lea	 ecx, DWORD PTR _lDC$188165[ebp]
  03ad1	e8 00 00 00 00	 call	 ??BCDC@@QBEPAUHDC__@@XZ	; CDC::operator HDC__ *
  03ad6	50		 push	 eax
  03ad7	ff 15 00 00 00
	00		 call	 DWORD PTR __imp__SetPixel@16
  03add	3b f4		 cmp	 esi, esp
  03adf	e8 00 00 00 00	 call	 __RTC_CheckEsp

; 1113 : 
; 1114 : 
; 1115 : 			gBitMapOperate.DrawLine(lDC, mcolFont, 1,  lre2.left+6, lre2.top+4, lre2.left+4, lre2.top+6, FALSE);

  03ae4	6a 00		 push	 0
  03ae6	8b 4d c8	 mov	 ecx, DWORD PTR _lre2$[ebp+4]
  03ae9	83 c1 06	 add	 ecx, 6
  03aec	51		 push	 ecx
  03aed	8b 55 c4	 mov	 edx, DWORD PTR _lre2$[ebp]
  03af0	83 c2 04	 add	 edx, 4
  03af3	52		 push	 edx
  03af4	8b 45 c8	 mov	 eax, DWORD PTR _lre2$[ebp+4]
  03af7	83 c0 04	 add	 eax, 4
  03afa	50		 push	 eax
  03afb	8b 4d c4	 mov	 ecx, DWORD PTR _lre2$[ebp]
  03afe	83 c1 06	 add	 ecx, 6
  03b01	51		 push	 ecx
  03b02	68 00 00 80 3f	 push	 1065353216		; 3f800000H
  03b07	8b 55 f0	 mov	 edx, DWORD PTR _this$[ebp]
  03b0a	8b 82 d8 00 00
	00		 mov	 eax, DWORD PTR [edx+216]
  03b10	50		 push	 eax
  03b11	8d 8d 78 ff ff
	ff		 lea	 ecx, DWORD PTR _lDC$188165[ebp]
  03b17	e8 00 00 00 00	 call	 ??BCDC@@QBEPAUHDC__@@XZ	; CDC::operator HDC__ *
  03b1c	50		 push	 eax
  03b1d	b9 00 00 00 00	 mov	 ecx, OFFSET FLAT:?gBitMapOperate@@3VCBitMapOperate@@A
  03b22	e8 00 00 00 00	 call	 ?DrawLine@CBitMapOperate@@UAEXPAUHDC__@@KMHHHHH@Z ; CBitMapOperate::DrawLine

; 1116 : 			gBitMapOperate.DrawLine(lDC, mcolFont, 1,  lre2.left+4, lre2.top+6, lre2.left+7, lre2.top+9, FALSE);

  03b27	6a 00		 push	 0
  03b29	8b 4d c8	 mov	 ecx, DWORD PTR _lre2$[ebp+4]
  03b2c	83 c1 09	 add	 ecx, 9
  03b2f	51		 push	 ecx
  03b30	8b 55 c4	 mov	 edx, DWORD PTR _lre2$[ebp]
  03b33	83 c2 07	 add	 edx, 7
  03b36	52		 push	 edx
  03b37	8b 45 c8	 mov	 eax, DWORD PTR _lre2$[ebp+4]
  03b3a	83 c0 06	 add	 eax, 6
  03b3d	50		 push	 eax
  03b3e	8b 4d c4	 mov	 ecx, DWORD PTR _lre2$[ebp]
  03b41	83 c1 04	 add	 ecx, 4
  03b44	51		 push	 ecx
  03b45	68 00 00 80 3f	 push	 1065353216		; 3f800000H
  03b4a	8b 55 f0	 mov	 edx, DWORD PTR _this$[ebp]
  03b4d	8b 82 d8 00 00
	00		 mov	 eax, DWORD PTR [edx+216]
  03b53	50		 push	 eax
  03b54	8d 8d 78 ff ff
	ff		 lea	 ecx, DWORD PTR _lDC$188165[ebp]
  03b5a	e8 00 00 00 00	 call	 ??BCDC@@QBEPAUHDC__@@XZ	; CDC::operator HDC__ *
  03b5f	50		 push	 eax
  03b60	b9 00 00 00 00	 mov	 ecx, OFFSET FLAT:?gBitMapOperate@@3VCBitMapOperate@@A
  03b65	e8 00 00 00 00	 call	 ?DrawLine@CBitMapOperate@@UAEXPAUHDC__@@KMHHHHH@Z ; CBitMapOperate::DrawLine

; 1117 : 			gBitMapOperate.DrawLine(lDC, mcolFont, 1,  lre2.left+6, lre2.top+3, lre2.left+3, lre2.top+6, FALSE);

  03b6a	6a 00		 push	 0
  03b6c	8b 4d c8	 mov	 ecx, DWORD PTR _lre2$[ebp+4]
  03b6f	83 c1 06	 add	 ecx, 6
  03b72	51		 push	 ecx
  03b73	8b 55 c4	 mov	 edx, DWORD PTR _lre2$[ebp]
  03b76	83 c2 03	 add	 edx, 3
  03b79	52		 push	 edx
  03b7a	8b 45 c8	 mov	 eax, DWORD PTR _lre2$[ebp+4]
  03b7d	83 c0 03	 add	 eax, 3
  03b80	50		 push	 eax
  03b81	8b 4d c4	 mov	 ecx, DWORD PTR _lre2$[ebp]
  03b84	83 c1 06	 add	 ecx, 6
  03b87	51		 push	 ecx
  03b88	68 00 00 80 3f	 push	 1065353216		; 3f800000H
  03b8d	8b 55 f0	 mov	 edx, DWORD PTR _this$[ebp]
  03b90	8b 82 d8 00 00
	00		 mov	 eax, DWORD PTR [edx+216]
  03b96	50		 push	 eax
  03b97	8d 8d 78 ff ff
	ff		 lea	 ecx, DWORD PTR _lDC$188165[ebp]
  03b9d	e8 00 00 00 00	 call	 ??BCDC@@QBEPAUHDC__@@XZ	; CDC::operator HDC__ *
  03ba2	50		 push	 eax
  03ba3	b9 00 00 00 00	 mov	 ecx, OFFSET FLAT:?gBitMapOperate@@3VCBitMapOperate@@A
  03ba8	e8 00 00 00 00	 call	 ?DrawLine@CBitMapOperate@@UAEXPAUHDC__@@KMHHHHH@Z ; CBitMapOperate::DrawLine

; 1118 : 			gBitMapOperate.DrawLine(lDC, mcolFont, 1,  lre2.left+3, lre2.top+6, lre2.left+7, lre2.top+10, FALSE);

  03bad	6a 00		 push	 0
  03baf	8b 4d c8	 mov	 ecx, DWORD PTR _lre2$[ebp+4]
  03bb2	83 c1 0a	 add	 ecx, 10			; 0000000aH
  03bb5	51		 push	 ecx
  03bb6	8b 55 c4	 mov	 edx, DWORD PTR _lre2$[ebp]
  03bb9	83 c2 07	 add	 edx, 7
  03bbc	52		 push	 edx
  03bbd	8b 45 c8	 mov	 eax, DWORD PTR _lre2$[ebp+4]
  03bc0	83 c0 06	 add	 eax, 6
  03bc3	50		 push	 eax
  03bc4	8b 4d c4	 mov	 ecx, DWORD PTR _lre2$[ebp]
  03bc7	83 c1 03	 add	 ecx, 3
  03bca	51		 push	 ecx
  03bcb	68 00 00 80 3f	 push	 1065353216		; 3f800000H
  03bd0	8b 55 f0	 mov	 edx, DWORD PTR _this$[ebp]
  03bd3	8b 82 d8 00 00
	00		 mov	 eax, DWORD PTR [edx+216]
  03bd9	50		 push	 eax
  03bda	8d 8d 78 ff ff
	ff		 lea	 ecx, DWORD PTR _lDC$188165[ebp]
  03be0	e8 00 00 00 00	 call	 ??BCDC@@QBEPAUHDC__@@XZ	; CDC::operator HDC__ *
  03be5	50		 push	 eax
  03be6	b9 00 00 00 00	 mov	 ecx, OFFSET FLAT:?gBitMapOperate@@3VCBitMapOperate@@A
  03beb	e8 00 00 00 00	 call	 ?DrawLine@CBitMapOperate@@UAEXPAUHDC__@@KMHHHHH@Z ; CBitMapOperate::DrawLine

; 1119 : 
; 1120 : 		}

  03bf0	c7 45 fc ff ff
	ff ff		 mov	 DWORD PTR __$EHRec$[ebp+8], -1
  03bf7	8d 8d 78 ff ff
	ff		 lea	 ecx, DWORD PTR _lDC$188165[ebp]
  03bfd	e8 00 00 00 00	 call	 ??1CMemDC@@UAE@XZ	; CMemDC::~CMemDC

; 1121 : 		break;

  03c02	e9 53 0e 00 00	 jmp	 $L188155
$L188167:

; 1122 : 	case 1:		//右箭头
; 1123 : 		{
; 1124 : 			CMemDC lDC(CDC::FromHandle(hDC), &lre1);

  03c07	8d 4d dc	 lea	 ecx, DWORD PTR _lre1$[ebp]
  03c0a	51		 push	 ecx
  03c0b	8d 8d 48 fe ff
	ff		 lea	 ecx, DWORD PTR $T189053[ebp]
  03c11	e8 00 00 00 00	 call	 ??0CRect@@QAE@PBUtagRECT@@@Z ; CRect::CRect
  03c16	8d 95 48 fe ff
	ff		 lea	 edx, DWORD PTR $T189053[ebp]
  03c1c	52		 push	 edx
  03c1d	8b 45 08	 mov	 eax, DWORD PTR _hDC$[ebp]
  03c20	50		 push	 eax
  03c21	e8 00 00 00 00	 call	 ?FromHandle@CDC@@SGPAV1@PAUHDC__@@@Z ; CDC::FromHandle
  03c26	50		 push	 eax
  03c27	8d 8d 44 ff ff
	ff		 lea	 ecx, DWORD PTR _lDC$188168[ebp]
  03c2d	e8 00 00 00 00	 call	 ??0CMemDC@@QAE@PAVCDC@@ABVCRect@@@Z ; CMemDC::CMemDC
  03c32	c7 45 fc 01 00
	00 00		 mov	 DWORD PTR __$EHRec$[ebp+8], 1

; 1125 : 			gBitMapOperate.FillRectangle(lDC, lre1, mcolFrame1, FALSE);

  03c39	6a 00		 push	 0
  03c3b	8b 4d f0	 mov	 ecx, DWORD PTR _this$[ebp]
  03c3e	8b 91 c8 00 00
	00		 mov	 edx, DWORD PTR [ecx+200]
  03c44	52		 push	 edx
  03c45	83 ec 10	 sub	 esp, 16			; 00000010H
  03c48	8b c4		 mov	 eax, esp
  03c4a	8b 4d dc	 mov	 ecx, DWORD PTR _lre1$[ebp]
  03c4d	89 08		 mov	 DWORD PTR [eax], ecx
  03c4f	8b 55 e0	 mov	 edx, DWORD PTR _lre1$[ebp+4]
  03c52	89 50 04	 mov	 DWORD PTR [eax+4], edx
  03c55	8b 4d e4	 mov	 ecx, DWORD PTR _lre1$[ebp+8]
  03c58	89 48 08	 mov	 DWORD PTR [eax+8], ecx
  03c5b	8b 55 e8	 mov	 edx, DWORD PTR _lre1$[ebp+12]
  03c5e	89 50 0c	 mov	 DWORD PTR [eax+12], edx
  03c61	8d 8d 44 ff ff
	ff		 lea	 ecx, DWORD PTR _lDC$188168[ebp]
  03c67	e8 00 00 00 00	 call	 ??BCDC@@QBEPAUHDC__@@XZ	; CDC::operator HDC__ *
  03c6c	50		 push	 eax
  03c6d	b9 00 00 00 00	 mov	 ecx, OFFSET FLAT:?gBitMapOperate@@3VCBitMapOperate@@A
  03c72	e8 00 00 00 00	 call	 ?FillRectangle@CBitMapOperate@@UAEXPAUHDC__@@UtagRECT@@KH@Z ; CBitMapOperate::FillRectangle

; 1126 : 			gBitMapOperate.FillRectangle(lDC, lre2, mcolFrame2, FALSE);

  03c77	6a 00		 push	 0
  03c79	8b 45 f0	 mov	 eax, DWORD PTR _this$[ebp]
  03c7c	8b 88 cc 00 00
	00		 mov	 ecx, DWORD PTR [eax+204]
  03c82	51		 push	 ecx
  03c83	83 ec 10	 sub	 esp, 16			; 00000010H
  03c86	8b d4		 mov	 edx, esp
  03c88	8b 45 c4	 mov	 eax, DWORD PTR _lre2$[ebp]
  03c8b	89 02		 mov	 DWORD PTR [edx], eax
  03c8d	8b 4d c8	 mov	 ecx, DWORD PTR _lre2$[ebp+4]
  03c90	89 4a 04	 mov	 DWORD PTR [edx+4], ecx
  03c93	8b 45 cc	 mov	 eax, DWORD PTR _lre2$[ebp+8]
  03c96	89 42 08	 mov	 DWORD PTR [edx+8], eax
  03c99	8b 4d d0	 mov	 ecx, DWORD PTR _lre2$[ebp+12]
  03c9c	89 4a 0c	 mov	 DWORD PTR [edx+12], ecx
  03c9f	8d 8d 44 ff ff
	ff		 lea	 ecx, DWORD PTR _lDC$188168[ebp]
  03ca5	e8 00 00 00 00	 call	 ??BCDC@@QBEPAUHDC__@@XZ	; CDC::operator HDC__ *
  03caa	50		 push	 eax
  03cab	b9 00 00 00 00	 mov	 ecx, OFFSET FLAT:?gBitMapOperate@@3VCBitMapOperate@@A
  03cb0	e8 00 00 00 00	 call	 ?FillRectangle@CBitMapOperate@@UAEXPAUHDC__@@UtagRECT@@KH@Z ; CBitMapOperate::FillRectangle

; 1127 : 			gBitMapOperate.FillRectangle(lDC, lre3, mcolBtn2,mcolBtn1,gBitMapOperate.edoVertical,FALSE);

  03cb5	6a 01		 push	 1
  03cb7	6a 00		 push	 0
  03cb9	6a 01		 push	 1
  03cbb	8b 55 f0	 mov	 edx, DWORD PTR _this$[ebp]
  03cbe	8b 82 d0 00 00
	00		 mov	 eax, DWORD PTR [edx+208]
  03cc4	50		 push	 eax
  03cc5	8b 4d f0	 mov	 ecx, DWORD PTR _this$[ebp]
  03cc8	8b 91 d4 00 00
	00		 mov	 edx, DWORD PTR [ecx+212]
  03cce	52		 push	 edx
  03ccf	83 ec 10	 sub	 esp, 16			; 00000010H
  03cd2	8b c4		 mov	 eax, esp
  03cd4	8b 4d ac	 mov	 ecx, DWORD PTR _lre3$[ebp]
  03cd7	89 08		 mov	 DWORD PTR [eax], ecx
  03cd9	8b 55 b0	 mov	 edx, DWORD PTR _lre3$[ebp+4]
  03cdc	89 50 04	 mov	 DWORD PTR [eax+4], edx
  03cdf	8b 4d b4	 mov	 ecx, DWORD PTR _lre3$[ebp+8]
  03ce2	89 48 08	 mov	 DWORD PTR [eax+8], ecx
  03ce5	8b 55 b8	 mov	 edx, DWORD PTR _lre3$[ebp+12]
  03ce8	89 50 0c	 mov	 DWORD PTR [eax+12], edx
  03ceb	8d 8d 44 ff ff
	ff		 lea	 ecx, DWORD PTR _lDC$188168[ebp]
  03cf1	e8 00 00 00 00	 call	 ??BCDC@@QBEPAUHDC__@@XZ	; CDC::operator HDC__ *
  03cf6	50		 push	 eax
  03cf7	b9 00 00 00 00	 mov	 ecx, OFFSET FLAT:?gBitMapOperate@@3VCBitMapOperate@@A
  03cfc	e8 00 00 00 00	 call	 ?FillRectangle@CBitMapOperate@@UAEXPAUHDC__@@UtagRECT@@KKW4ENUM_DrawOrientation@1@HI@Z ; CBitMapOperate::FillRectangle

; 1128 : 			SetPixel(lDC,lre1.left,lre1.top, mcolNormal1);

  03d01	8b f4		 mov	 esi, esp
  03d03	8b 45 f0	 mov	 eax, DWORD PTR _this$[ebp]
  03d06	8b 88 b0 00 00
	00		 mov	 ecx, DWORD PTR [eax+176]
  03d0c	51		 push	 ecx
  03d0d	8b 55 e0	 mov	 edx, DWORD PTR _lre1$[ebp+4]
  03d10	52		 push	 edx
  03d11	8b 45 dc	 mov	 eax, DWORD PTR _lre1$[ebp]
  03d14	50		 push	 eax
  03d15	8d 8d 44 ff ff
	ff		 lea	 ecx, DWORD PTR _lDC$188168[ebp]
  03d1b	e8 00 00 00 00	 call	 ??BCDC@@QBEPAUHDC__@@XZ	; CDC::operator HDC__ *
  03d20	50		 push	 eax
  03d21	ff 15 00 00 00
	00		 call	 DWORD PTR __imp__SetPixel@16
  03d27	3b f4		 cmp	 esi, esp
  03d29	e8 00 00 00 00	 call	 __RTC_CheckEsp

; 1129 : 			SetPixel(lDC,lre1.right -1,lre1.top, mcolNormal1);

  03d2e	8b f4		 mov	 esi, esp
  03d30	8b 4d f0	 mov	 ecx, DWORD PTR _this$[ebp]
  03d33	8b 91 b0 00 00
	00		 mov	 edx, DWORD PTR [ecx+176]
  03d39	52		 push	 edx
  03d3a	8b 45 e0	 mov	 eax, DWORD PTR _lre1$[ebp+4]
  03d3d	50		 push	 eax
  03d3e	8b 4d e4	 mov	 ecx, DWORD PTR _lre1$[ebp+8]
  03d41	83 e9 01	 sub	 ecx, 1
  03d44	51		 push	 ecx
  03d45	8d 8d 44 ff ff
	ff		 lea	 ecx, DWORD PTR _lDC$188168[ebp]
  03d4b	e8 00 00 00 00	 call	 ??BCDC@@QBEPAUHDC__@@XZ	; CDC::operator HDC__ *
  03d50	50		 push	 eax
  03d51	ff 15 00 00 00
	00		 call	 DWORD PTR __imp__SetPixel@16
  03d57	3b f4		 cmp	 esi, esp
  03d59	e8 00 00 00 00	 call	 __RTC_CheckEsp

; 1130 : 			SetPixel(lDC,lre1.right -1,lre1.bottom-1, mcolNormal1);

  03d5e	8b f4		 mov	 esi, esp
  03d60	8b 55 f0	 mov	 edx, DWORD PTR _this$[ebp]
  03d63	8b 82 b0 00 00
	00		 mov	 eax, DWORD PTR [edx+176]
  03d69	50		 push	 eax
  03d6a	8b 4d e8	 mov	 ecx, DWORD PTR _lre1$[ebp+12]
  03d6d	83 e9 01	 sub	 ecx, 1
  03d70	51		 push	 ecx
  03d71	8b 55 e4	 mov	 edx, DWORD PTR _lre1$[ebp+8]
  03d74	83 ea 01	 sub	 edx, 1
  03d77	52		 push	 edx
  03d78	8d 8d 44 ff ff
	ff		 lea	 ecx, DWORD PTR _lDC$188168[ebp]
  03d7e	e8 00 00 00 00	 call	 ??BCDC@@QBEPAUHDC__@@XZ	; CDC::operator HDC__ *
  03d83	50		 push	 eax
  03d84	ff 15 00 00 00
	00		 call	 DWORD PTR __imp__SetPixel@16
  03d8a	3b f4		 cmp	 esi, esp
  03d8c	e8 00 00 00 00	 call	 __RTC_CheckEsp

; 1131 : 			SetPixel(lDC,lre1.left,lre1.bottom-1, mcolNormal1);

  03d91	8b f4		 mov	 esi, esp
  03d93	8b 45 f0	 mov	 eax, DWORD PTR _this$[ebp]
  03d96	8b 88 b0 00 00
	00		 mov	 ecx, DWORD PTR [eax+176]
  03d9c	51		 push	 ecx
  03d9d	8b 55 e8	 mov	 edx, DWORD PTR _lre1$[ebp+12]
  03da0	83 ea 01	 sub	 edx, 1
  03da3	52		 push	 edx
  03da4	8b 45 dc	 mov	 eax, DWORD PTR _lre1$[ebp]
  03da7	50		 push	 eax
  03da8	8d 8d 44 ff ff
	ff		 lea	 ecx, DWORD PTR _lDC$188168[ebp]
  03dae	e8 00 00 00 00	 call	 ??BCDC@@QBEPAUHDC__@@XZ	; CDC::operator HDC__ *
  03db3	50		 push	 eax
  03db4	ff 15 00 00 00
	00		 call	 DWORD PTR __imp__SetPixel@16
  03dba	3b f4		 cmp	 esi, esp
  03dbc	e8 00 00 00 00	 call	 __RTC_CheckEsp

; 1132 : 
; 1133 : 			gBitMapOperate.DrawLine(lDC, mcolFont, 1,  lre2.left+6, lre2.top+4, lre2.left+8, lre2.top+6, FALSE);

  03dc1	6a 00		 push	 0
  03dc3	8b 4d c8	 mov	 ecx, DWORD PTR _lre2$[ebp+4]
  03dc6	83 c1 06	 add	 ecx, 6
  03dc9	51		 push	 ecx
  03dca	8b 55 c4	 mov	 edx, DWORD PTR _lre2$[ebp]
  03dcd	83 c2 08	 add	 edx, 8
  03dd0	52		 push	 edx
  03dd1	8b 45 c8	 mov	 eax, DWORD PTR _lre2$[ebp+4]
  03dd4	83 c0 04	 add	 eax, 4
  03dd7	50		 push	 eax
  03dd8	8b 4d c4	 mov	 ecx, DWORD PTR _lre2$[ebp]
  03ddb	83 c1 06	 add	 ecx, 6
  03dde	51		 push	 ecx
  03ddf	68 00 00 80 3f	 push	 1065353216		; 3f800000H
  03de4	8b 55 f0	 mov	 edx, DWORD PTR _this$[ebp]
  03de7	8b 82 d8 00 00
	00		 mov	 eax, DWORD PTR [edx+216]
  03ded	50		 push	 eax
  03dee	8d 8d 44 ff ff
	ff		 lea	 ecx, DWORD PTR _lDC$188168[ebp]
  03df4	e8 00 00 00 00	 call	 ??BCDC@@QBEPAUHDC__@@XZ	; CDC::operator HDC__ *
  03df9	50		 push	 eax
  03dfa	b9 00 00 00 00	 mov	 ecx, OFFSET FLAT:?gBitMapOperate@@3VCBitMapOperate@@A
  03dff	e8 00 00 00 00	 call	 ?DrawLine@CBitMapOperate@@UAEXPAUHDC__@@KMHHHHH@Z ; CBitMapOperate::DrawLine

; 1134 : 			gBitMapOperate.DrawLine(lDC, mcolFont, 1,  lre2.left+8, lre2.top+6, lre2.left+5, lre2.top+9, FALSE);

  03e04	6a 00		 push	 0
  03e06	8b 4d c8	 mov	 ecx, DWORD PTR _lre2$[ebp+4]
  03e09	83 c1 09	 add	 ecx, 9
  03e0c	51		 push	 ecx
  03e0d	8b 55 c4	 mov	 edx, DWORD PTR _lre2$[ebp]
  03e10	83 c2 05	 add	 edx, 5
  03e13	52		 push	 edx
  03e14	8b 45 c8	 mov	 eax, DWORD PTR _lre2$[ebp+4]
  03e17	83 c0 06	 add	 eax, 6
  03e1a	50		 push	 eax
  03e1b	8b 4d c4	 mov	 ecx, DWORD PTR _lre2$[ebp]
  03e1e	83 c1 08	 add	 ecx, 8
  03e21	51		 push	 ecx
  03e22	68 00 00 80 3f	 push	 1065353216		; 3f800000H
  03e27	8b 55 f0	 mov	 edx, DWORD PTR _this$[ebp]
  03e2a	8b 82 d8 00 00
	00		 mov	 eax, DWORD PTR [edx+216]
  03e30	50		 push	 eax
  03e31	8d 8d 44 ff ff
	ff		 lea	 ecx, DWORD PTR _lDC$188168[ebp]
  03e37	e8 00 00 00 00	 call	 ??BCDC@@QBEPAUHDC__@@XZ	; CDC::operator HDC__ *
  03e3c	50		 push	 eax
  03e3d	b9 00 00 00 00	 mov	 ecx, OFFSET FLAT:?gBitMapOperate@@3VCBitMapOperate@@A
  03e42	e8 00 00 00 00	 call	 ?DrawLine@CBitMapOperate@@UAEXPAUHDC__@@KMHHHHH@Z ; CBitMapOperate::DrawLine

; 1135 : 			gBitMapOperate.DrawLine(lDC, mcolFont, 1,  lre2.left+6, lre2.top+3, lre2.left+9, lre2.top+6, FALSE);

  03e47	6a 00		 push	 0
  03e49	8b 4d c8	 mov	 ecx, DWORD PTR _lre2$[ebp+4]
  03e4c	83 c1 06	 add	 ecx, 6
  03e4f	51		 push	 ecx
  03e50	8b 55 c4	 mov	 edx, DWORD PTR _lre2$[ebp]
  03e53	83 c2 09	 add	 edx, 9
  03e56	52		 push	 edx
  03e57	8b 45 c8	 mov	 eax, DWORD PTR _lre2$[ebp+4]
  03e5a	83 c0 03	 add	 eax, 3
  03e5d	50		 push	 eax
  03e5e	8b 4d c4	 mov	 ecx, DWORD PTR _lre2$[ebp]
  03e61	83 c1 06	 add	 ecx, 6
  03e64	51		 push	 ecx
  03e65	68 00 00 80 3f	 push	 1065353216		; 3f800000H
  03e6a	8b 55 f0	 mov	 edx, DWORD PTR _this$[ebp]
  03e6d	8b 82 d8 00 00
	00		 mov	 eax, DWORD PTR [edx+216]
  03e73	50		 push	 eax
  03e74	8d 8d 44 ff ff
	ff		 lea	 ecx, DWORD PTR _lDC$188168[ebp]
  03e7a	e8 00 00 00 00	 call	 ??BCDC@@QBEPAUHDC__@@XZ	; CDC::operator HDC__ *
  03e7f	50		 push	 eax
  03e80	b9 00 00 00 00	 mov	 ecx, OFFSET FLAT:?gBitMapOperate@@3VCBitMapOperate@@A
  03e85	e8 00 00 00 00	 call	 ?DrawLine@CBitMapOperate@@UAEXPAUHDC__@@KMHHHHH@Z ; CBitMapOperate::DrawLine

; 1136 : 			gBitMapOperate.DrawLine(lDC, mcolFont, 1,  lre2.left+9, lre2.top+6, lre2.left+5, lre2.top+10, FALSE);

  03e8a	6a 00		 push	 0
  03e8c	8b 4d c8	 mov	 ecx, DWORD PTR _lre2$[ebp+4]
  03e8f	83 c1 0a	 add	 ecx, 10			; 0000000aH
  03e92	51		 push	 ecx
  03e93	8b 55 c4	 mov	 edx, DWORD PTR _lre2$[ebp]
  03e96	83 c2 05	 add	 edx, 5
  03e99	52		 push	 edx
  03e9a	8b 45 c8	 mov	 eax, DWORD PTR _lre2$[ebp+4]
  03e9d	83 c0 06	 add	 eax, 6
  03ea0	50		 push	 eax
  03ea1	8b 4d c4	 mov	 ecx, DWORD PTR _lre2$[ebp]
  03ea4	83 c1 09	 add	 ecx, 9
  03ea7	51		 push	 ecx
  03ea8	68 00 00 80 3f	 push	 1065353216		; 3f800000H
  03ead	8b 55 f0	 mov	 edx, DWORD PTR _this$[ebp]
  03eb0	8b 82 d8 00 00
	00		 mov	 eax, DWORD PTR [edx+216]
  03eb6	50		 push	 eax
  03eb7	8d 8d 44 ff ff
	ff		 lea	 ecx, DWORD PTR _lDC$188168[ebp]
  03ebd	e8 00 00 00 00	 call	 ??BCDC@@QBEPAUHDC__@@XZ	; CDC::operator HDC__ *
  03ec2	50		 push	 eax
  03ec3	b9 00 00 00 00	 mov	 ecx, OFFSET FLAT:?gBitMapOperate@@3VCBitMapOperate@@A
  03ec8	e8 00 00 00 00	 call	 ?DrawLine@CBitMapOperate@@UAEXPAUHDC__@@KMHHHHH@Z ; CBitMapOperate::DrawLine

; 1137 : 	}

  03ecd	c7 45 fc ff ff
	ff ff		 mov	 DWORD PTR __$EHRec$[ebp+8], -1
  03ed4	8d 8d 44 ff ff
	ff		 lea	 ecx, DWORD PTR _lDC$188168[ebp]
  03eda	e8 00 00 00 00	 call	 ??1CMemDC@@UAE@XZ	; CMemDC::~CMemDC

; 1138 : 		break;

  03edf	e9 76 0b 00 00	 jmp	 $L188155
$L188170:

; 1139 : 	case 2:		//上箭头
; 1140 : 		{
; 1141 : 
; 1142 : 			CMemDC lDC(CDC::FromHandle(hDC), &lre1);

  03ee4	8d 4d dc	 lea	 ecx, DWORD PTR _lre1$[ebp]
  03ee7	51		 push	 ecx
  03ee8	8d 8d 38 fe ff
	ff		 lea	 ecx, DWORD PTR $T189054[ebp]
  03eee	e8 00 00 00 00	 call	 ??0CRect@@QAE@PBUtagRECT@@@Z ; CRect::CRect
  03ef3	8d 95 38 fe ff
	ff		 lea	 edx, DWORD PTR $T189054[ebp]
  03ef9	52		 push	 edx
  03efa	8b 45 08	 mov	 eax, DWORD PTR _hDC$[ebp]
  03efd	50		 push	 eax
  03efe	e8 00 00 00 00	 call	 ?FromHandle@CDC@@SGPAV1@PAUHDC__@@@Z ; CDC::FromHandle
  03f03	50		 push	 eax
  03f04	8d 8d 10 ff ff
	ff		 lea	 ecx, DWORD PTR _lDC$188171[ebp]
  03f0a	e8 00 00 00 00	 call	 ??0CMemDC@@QAE@PAVCDC@@ABVCRect@@@Z ; CMemDC::CMemDC
  03f0f	c7 45 fc 02 00
	00 00		 mov	 DWORD PTR __$EHRec$[ebp+8], 2

; 1143 : 			gBitMapOperate.FillRectangle(lDC, lre1, mcolFrame1, FALSE);

  03f16	6a 00		 push	 0
  03f18	8b 4d f0	 mov	 ecx, DWORD PTR _this$[ebp]
  03f1b	8b 91 c8 00 00
	00		 mov	 edx, DWORD PTR [ecx+200]
  03f21	52		 push	 edx
  03f22	83 ec 10	 sub	 esp, 16			; 00000010H
  03f25	8b c4		 mov	 eax, esp
  03f27	8b 4d dc	 mov	 ecx, DWORD PTR _lre1$[ebp]
  03f2a	89 08		 mov	 DWORD PTR [eax], ecx
  03f2c	8b 55 e0	 mov	 edx, DWORD PTR _lre1$[ebp+4]
  03f2f	89 50 04	 mov	 DWORD PTR [eax+4], edx
  03f32	8b 4d e4	 mov	 ecx, DWORD PTR _lre1$[ebp+8]
  03f35	89 48 08	 mov	 DWORD PTR [eax+8], ecx
  03f38	8b 55 e8	 mov	 edx, DWORD PTR _lre1$[ebp+12]
  03f3b	89 50 0c	 mov	 DWORD PTR [eax+12], edx
  03f3e	8d 8d 10 ff ff
	ff		 lea	 ecx, DWORD PTR _lDC$188171[ebp]
  03f44	e8 00 00 00 00	 call	 ??BCDC@@QBEPAUHDC__@@XZ	; CDC::operator HDC__ *
  03f49	50		 push	 eax
  03f4a	b9 00 00 00 00	 mov	 ecx, OFFSET FLAT:?gBitMapOperate@@3VCBitMapOperate@@A
  03f4f	e8 00 00 00 00	 call	 ?FillRectangle@CBitMapOperate@@UAEXPAUHDC__@@UtagRECT@@KH@Z ; CBitMapOperate::FillRectangle

; 1144 : 			gBitMapOperate.FillRectangle(lDC, lre2, mcolFrame2, FALSE);

  03f54	6a 00		 push	 0
  03f56	8b 45 f0	 mov	 eax, DWORD PTR _this$[ebp]
  03f59	8b 88 cc 00 00
	00		 mov	 ecx, DWORD PTR [eax+204]
  03f5f	51		 push	 ecx
  03f60	83 ec 10	 sub	 esp, 16			; 00000010H
  03f63	8b d4		 mov	 edx, esp
  03f65	8b 45 c4	 mov	 eax, DWORD PTR _lre2$[ebp]
  03f68	89 02		 mov	 DWORD PTR [edx], eax
  03f6a	8b 4d c8	 mov	 ecx, DWORD PTR _lre2$[ebp+4]
  03f6d	89 4a 04	 mov	 DWORD PTR [edx+4], ecx
  03f70	8b 45 cc	 mov	 eax, DWORD PTR _lre2$[ebp+8]
  03f73	89 42 08	 mov	 DWORD PTR [edx+8], eax
  03f76	8b 4d d0	 mov	 ecx, DWORD PTR _lre2$[ebp+12]
  03f79	89 4a 0c	 mov	 DWORD PTR [edx+12], ecx
  03f7c	8d 8d 10 ff ff
	ff		 lea	 ecx, DWORD PTR _lDC$188171[ebp]
  03f82	e8 00 00 00 00	 call	 ??BCDC@@QBEPAUHDC__@@XZ	; CDC::operator HDC__ *
  03f87	50		 push	 eax
  03f88	b9 00 00 00 00	 mov	 ecx, OFFSET FLAT:?gBitMapOperate@@3VCBitMapOperate@@A
  03f8d	e8 00 00 00 00	 call	 ?FillRectangle@CBitMapOperate@@UAEXPAUHDC__@@UtagRECT@@KH@Z ; CBitMapOperate::FillRectangle

; 1145 : 			gBitMapOperate.FillRectangle(lDC, lre3, mcolBtn1,mcolBtn2,gBitMapOperate.edoVertical,FALSE);

  03f92	6a 01		 push	 1
  03f94	6a 00		 push	 0
  03f96	6a 01		 push	 1
  03f98	8b 55 f0	 mov	 edx, DWORD PTR _this$[ebp]
  03f9b	8b 82 d4 00 00
	00		 mov	 eax, DWORD PTR [edx+212]
  03fa1	50		 push	 eax
  03fa2	8b 4d f0	 mov	 ecx, DWORD PTR _this$[ebp]
  03fa5	8b 91 d0 00 00
	00		 mov	 edx, DWORD PTR [ecx+208]
  03fab	52		 push	 edx
  03fac	83 ec 10	 sub	 esp, 16			; 00000010H
  03faf	8b c4		 mov	 eax, esp
  03fb1	8b 4d ac	 mov	 ecx, DWORD PTR _lre3$[ebp]
  03fb4	89 08		 mov	 DWORD PTR [eax], ecx
  03fb6	8b 55 b0	 mov	 edx, DWORD PTR _lre3$[ebp+4]
  03fb9	89 50 04	 mov	 DWORD PTR [eax+4], edx
  03fbc	8b 4d b4	 mov	 ecx, DWORD PTR _lre3$[ebp+8]
  03fbf	89 48 08	 mov	 DWORD PTR [eax+8], ecx
  03fc2	8b 55 b8	 mov	 edx, DWORD PTR _lre3$[ebp+12]
  03fc5	89 50 0c	 mov	 DWORD PTR [eax+12], edx
  03fc8	8d 8d 10 ff ff
	ff		 lea	 ecx, DWORD PTR _lDC$188171[ebp]
  03fce	e8 00 00 00 00	 call	 ??BCDC@@QBEPAUHDC__@@XZ	; CDC::operator HDC__ *
  03fd3	50		 push	 eax
  03fd4	b9 00 00 00 00	 mov	 ecx, OFFSET FLAT:?gBitMapOperate@@3VCBitMapOperate@@A
  03fd9	e8 00 00 00 00	 call	 ?FillRectangle@CBitMapOperate@@UAEXPAUHDC__@@UtagRECT@@KKW4ENUM_DrawOrientation@1@HI@Z ; CBitMapOperate::FillRectangle

; 1146 : 			SetPixel(lDC,lre1.left,lre1.top, mcolNormal1);

  03fde	8b f4		 mov	 esi, esp
  03fe0	8b 45 f0	 mov	 eax, DWORD PTR _this$[ebp]
  03fe3	8b 88 b0 00 00
	00		 mov	 ecx, DWORD PTR [eax+176]
  03fe9	51		 push	 ecx
  03fea	8b 55 e0	 mov	 edx, DWORD PTR _lre1$[ebp+4]
  03fed	52		 push	 edx
  03fee	8b 45 dc	 mov	 eax, DWORD PTR _lre1$[ebp]
  03ff1	50		 push	 eax
  03ff2	8d 8d 10 ff ff
	ff		 lea	 ecx, DWORD PTR _lDC$188171[ebp]
  03ff8	e8 00 00 00 00	 call	 ??BCDC@@QBEPAUHDC__@@XZ	; CDC::operator HDC__ *
  03ffd	50		 push	 eax
  03ffe	ff 15 00 00 00
	00		 call	 DWORD PTR __imp__SetPixel@16
  04004	3b f4		 cmp	 esi, esp
  04006	e8 00 00 00 00	 call	 __RTC_CheckEsp

; 1147 : 			SetPixel(lDC,lre1.right -1,lre1.top, mcolNormal1);

  0400b	8b f4		 mov	 esi, esp
  0400d	8b 4d f0	 mov	 ecx, DWORD PTR _this$[ebp]
  04010	8b 91 b0 00 00
	00		 mov	 edx, DWORD PTR [ecx+176]
  04016	52		 push	 edx
  04017	8b 45 e0	 mov	 eax, DWORD PTR _lre1$[ebp+4]
  0401a	50		 push	 eax
  0401b	8b 4d e4	 mov	 ecx, DWORD PTR _lre1$[ebp+8]
  0401e	83 e9 01	 sub	 ecx, 1
  04021	51		 push	 ecx
  04022	8d 8d 10 ff ff
	ff		 lea	 ecx, DWORD PTR _lDC$188171[ebp]
  04028	e8 00 00 00 00	 call	 ??BCDC@@QBEPAUHDC__@@XZ	; CDC::operator HDC__ *
  0402d	50		 push	 eax
  0402e	ff 15 00 00 00
	00		 call	 DWORD PTR __imp__SetPixel@16
  04034	3b f4		 cmp	 esi, esp
  04036	e8 00 00 00 00	 call	 __RTC_CheckEsp

; 1148 : 			SetPixel(lDC,lre1.right -1,lre1.bottom-1, mcolNormal1);

  0403b	8b f4		 mov	 esi, esp
  0403d	8b 55 f0	 mov	 edx, DWORD PTR _this$[ebp]
  04040	8b 82 b0 00 00
	00		 mov	 eax, DWORD PTR [edx+176]
  04046	50		 push	 eax
  04047	8b 4d e8	 mov	 ecx, DWORD PTR _lre1$[ebp+12]
  0404a	83 e9 01	 sub	 ecx, 1
  0404d	51		 push	 ecx
  0404e	8b 55 e4	 mov	 edx, DWORD PTR _lre1$[ebp+8]
  04051	83 ea 01	 sub	 edx, 1
  04054	52		 push	 edx
  04055	8d 8d 10 ff ff
	ff		 lea	 ecx, DWORD PTR _lDC$188171[ebp]
  0405b	e8 00 00 00 00	 call	 ??BCDC@@QBEPAUHDC__@@XZ	; CDC::operator HDC__ *
  04060	50		 push	 eax
  04061	ff 15 00 00 00
	00		 call	 DWORD PTR __imp__SetPixel@16
  04067	3b f4		 cmp	 esi, esp
  04069	e8 00 00 00 00	 call	 __RTC_CheckEsp

; 1149 : 			SetPixel(lDC,lre1.left,lre1.bottom-1, mcolNormal1);

  0406e	8b f4		 mov	 esi, esp
  04070	8b 45 f0	 mov	 eax, DWORD PTR _this$[ebp]
  04073	8b 88 b0 00 00
	00		 mov	 ecx, DWORD PTR [eax+176]
  04079	51		 push	 ecx
  0407a	8b 55 e8	 mov	 edx, DWORD PTR _lre1$[ebp+12]
  0407d	83 ea 01	 sub	 edx, 1
  04080	52		 push	 edx
  04081	8b 45 dc	 mov	 eax, DWORD PTR _lre1$[ebp]
  04084	50		 push	 eax
  04085	8d 8d 10 ff ff
	ff		 lea	 ecx, DWORD PTR _lDC$188171[ebp]
  0408b	e8 00 00 00 00	 call	 ??BCDC@@QBEPAUHDC__@@XZ	; CDC::operator HDC__ *
  04090	50		 push	 eax
  04091	ff 15 00 00 00
	00		 call	 DWORD PTR __imp__SetPixel@16
  04097	3b f4		 cmp	 esi, esp
  04099	e8 00 00 00 00	 call	 __RTC_CheckEsp

; 1150 : 
; 1151 : 			lre2.left = lre2.left -1;

  0409e	8b 4d c4	 mov	 ecx, DWORD PTR _lre2$[ebp]
  040a1	83 e9 01	 sub	 ecx, 1
  040a4	89 4d c4	 mov	 DWORD PTR _lre2$[ebp], ecx

; 1152 : 			lre2.top = lre2.top -1;

  040a7	8b 55 c8	 mov	 edx, DWORD PTR _lre2$[ebp+4]
  040aa	83 ea 01	 sub	 edx, 1
  040ad	89 55 c8	 mov	 DWORD PTR _lre2$[ebp+4], edx

; 1153 : 			gBitMapOperate.DrawLine(lDC, mcolFont, 1,  lre2.left+5, lre2.top+7, lre2.left+7, lre2.top+5, FALSE);

  040b0	6a 00		 push	 0
  040b2	8b 45 c8	 mov	 eax, DWORD PTR _lre2$[ebp+4]
  040b5	83 c0 05	 add	 eax, 5
  040b8	50		 push	 eax
  040b9	8b 4d c4	 mov	 ecx, DWORD PTR _lre2$[ebp]
  040bc	83 c1 07	 add	 ecx, 7
  040bf	51		 push	 ecx
  040c0	8b 55 c8	 mov	 edx, DWORD PTR _lre2$[ebp+4]
  040c3	83 c2 07	 add	 edx, 7
  040c6	52		 push	 edx
  040c7	8b 45 c4	 mov	 eax, DWORD PTR _lre2$[ebp]
  040ca	83 c0 05	 add	 eax, 5
  040cd	50		 push	 eax
  040ce	68 00 00 80 3f	 push	 1065353216		; 3f800000H
  040d3	8b 4d f0	 mov	 ecx, DWORD PTR _this$[ebp]
  040d6	8b 91 d8 00 00
	00		 mov	 edx, DWORD PTR [ecx+216]
  040dc	52		 push	 edx
  040dd	8d 8d 10 ff ff
	ff		 lea	 ecx, DWORD PTR _lDC$188171[ebp]
  040e3	e8 00 00 00 00	 call	 ??BCDC@@QBEPAUHDC__@@XZ	; CDC::operator HDC__ *
  040e8	50		 push	 eax
  040e9	b9 00 00 00 00	 mov	 ecx, OFFSET FLAT:?gBitMapOperate@@3VCBitMapOperate@@A
  040ee	e8 00 00 00 00	 call	 ?DrawLine@CBitMapOperate@@UAEXPAUHDC__@@KMHHHHH@Z ; CBitMapOperate::DrawLine

; 1154 : 			gBitMapOperate.DrawLine(lDC, mcolFont, 1,  lre2.left+7, lre2.top+5, lre2.left+10, lre2.top+8, FALSE);

  040f3	6a 00		 push	 0
  040f5	8b 45 c8	 mov	 eax, DWORD PTR _lre2$[ebp+4]
  040f8	83 c0 08	 add	 eax, 8
  040fb	50		 push	 eax
  040fc	8b 4d c4	 mov	 ecx, DWORD PTR _lre2$[ebp]
  040ff	83 c1 0a	 add	 ecx, 10			; 0000000aH
  04102	51		 push	 ecx
  04103	8b 55 c8	 mov	 edx, DWORD PTR _lre2$[ebp+4]
  04106	83 c2 05	 add	 edx, 5
  04109	52		 push	 edx
  0410a	8b 45 c4	 mov	 eax, DWORD PTR _lre2$[ebp]
  0410d	83 c0 07	 add	 eax, 7
  04110	50		 push	 eax
  04111	68 00 00 80 3f	 push	 1065353216		; 3f800000H
  04116	8b 4d f0	 mov	 ecx, DWORD PTR _this$[ebp]
  04119	8b 91 d8 00 00
	00		 mov	 edx, DWORD PTR [ecx+216]
  0411f	52		 push	 edx
  04120	8d 8d 10 ff ff
	ff		 lea	 ecx, DWORD PTR _lDC$188171[ebp]
  04126	e8 00 00 00 00	 call	 ??BCDC@@QBEPAUHDC__@@XZ	; CDC::operator HDC__ *
  0412b	50		 push	 eax
  0412c	b9 00 00 00 00	 mov	 ecx, OFFSET FLAT:?gBitMapOperate@@3VCBitMapOperate@@A
  04131	e8 00 00 00 00	 call	 ?DrawLine@CBitMapOperate@@UAEXPAUHDC__@@KMHHHHH@Z ; CBitMapOperate::DrawLine

; 1155 : 			gBitMapOperate.DrawLine(lDC, mcolFont, 1,  lre2.left+4, lre2.top+7, lre2.left+7, lre2.top+4, FALSE);

  04136	6a 00		 push	 0
  04138	8b 45 c8	 mov	 eax, DWORD PTR _lre2$[ebp+4]
  0413b	83 c0 04	 add	 eax, 4
  0413e	50		 push	 eax
  0413f	8b 4d c4	 mov	 ecx, DWORD PTR _lre2$[ebp]
  04142	83 c1 07	 add	 ecx, 7
  04145	51		 push	 ecx
  04146	8b 55 c8	 mov	 edx, DWORD PTR _lre2$[ebp+4]
  04149	83 c2 07	 add	 edx, 7
  0414c	52		 push	 edx
  0414d	8b 45 c4	 mov	 eax, DWORD PTR _lre2$[ebp]
  04150	83 c0 04	 add	 eax, 4
  04153	50		 push	 eax
  04154	68 00 00 80 3f	 push	 1065353216		; 3f800000H
  04159	8b 4d f0	 mov	 ecx, DWORD PTR _this$[ebp]
  0415c	8b 91 d8 00 00
	00		 mov	 edx, DWORD PTR [ecx+216]
  04162	52		 push	 edx
  04163	8d 8d 10 ff ff
	ff		 lea	 ecx, DWORD PTR _lDC$188171[ebp]
  04169	e8 00 00 00 00	 call	 ??BCDC@@QBEPAUHDC__@@XZ	; CDC::operator HDC__ *
  0416e	50		 push	 eax
  0416f	b9 00 00 00 00	 mov	 ecx, OFFSET FLAT:?gBitMapOperate@@3VCBitMapOperate@@A
  04174	e8 00 00 00 00	 call	 ?DrawLine@CBitMapOperate@@UAEXPAUHDC__@@KMHHHHH@Z ; CBitMapOperate::DrawLine

; 1156 : 			gBitMapOperate.DrawLine(lDC, mcolFont, 1,  lre2.left+7, lre2.top+4, lre2.left+11, lre2.top+8, FALSE);

  04179	6a 00		 push	 0
  0417b	8b 45 c8	 mov	 eax, DWORD PTR _lre2$[ebp+4]
  0417e	83 c0 08	 add	 eax, 8
  04181	50		 push	 eax
  04182	8b 4d c4	 mov	 ecx, DWORD PTR _lre2$[ebp]
  04185	83 c1 0b	 add	 ecx, 11			; 0000000bH
  04188	51		 push	 ecx
  04189	8b 55 c8	 mov	 edx, DWORD PTR _lre2$[ebp+4]
  0418c	83 c2 04	 add	 edx, 4
  0418f	52		 push	 edx
  04190	8b 45 c4	 mov	 eax, DWORD PTR _lre2$[ebp]
  04193	83 c0 07	 add	 eax, 7
  04196	50		 push	 eax
  04197	68 00 00 80 3f	 push	 1065353216		; 3f800000H
  0419c	8b 4d f0	 mov	 ecx, DWORD PTR _this$[ebp]
  0419f	8b 91 d8 00 00
	00		 mov	 edx, DWORD PTR [ecx+216]
  041a5	52		 push	 edx
  041a6	8d 8d 10 ff ff
	ff		 lea	 ecx, DWORD PTR _lDC$188171[ebp]
  041ac	e8 00 00 00 00	 call	 ??BCDC@@QBEPAUHDC__@@XZ	; CDC::operator HDC__ *
  041b1	50		 push	 eax
  041b2	b9 00 00 00 00	 mov	 ecx, OFFSET FLAT:?gBitMapOperate@@3VCBitMapOperate@@A
  041b7	e8 00 00 00 00	 call	 ?DrawLine@CBitMapOperate@@UAEXPAUHDC__@@KMHHHHH@Z ; CBitMapOperate::DrawLine

; 1157 : 
; 1158 : 		}

  041bc	c7 45 fc ff ff
	ff ff		 mov	 DWORD PTR __$EHRec$[ebp+8], -1
  041c3	8d 8d 10 ff ff
	ff		 lea	 ecx, DWORD PTR _lDC$188171[ebp]
  041c9	e8 00 00 00 00	 call	 ??1CMemDC@@UAE@XZ	; CMemDC::~CMemDC

; 1159 : 		break;

  041ce	e9 87 08 00 00	 jmp	 $L188155
$L188173:

; 1160 : 	case 3:		//下箭头
; 1161 : 		{
; 1162 : 			CMemDC lDC(CDC::FromHandle(hDC), &lre1);

  041d3	8d 45 dc	 lea	 eax, DWORD PTR _lre1$[ebp]
  041d6	50		 push	 eax
  041d7	8d 8d 28 fe ff
	ff		 lea	 ecx, DWORD PTR $T189055[ebp]
  041dd	e8 00 00 00 00	 call	 ??0CRect@@QAE@PBUtagRECT@@@Z ; CRect::CRect
  041e2	8d 8d 28 fe ff
	ff		 lea	 ecx, DWORD PTR $T189055[ebp]
  041e8	51		 push	 ecx
  041e9	8b 55 08	 mov	 edx, DWORD PTR _hDC$[ebp]
  041ec	52		 push	 edx
  041ed	e8 00 00 00 00	 call	 ?FromHandle@CDC@@SGPAV1@PAUHDC__@@@Z ; CDC::FromHandle
  041f2	50		 push	 eax
  041f3	8d 8d dc fe ff
	ff		 lea	 ecx, DWORD PTR _lDC$188174[ebp]
  041f9	e8 00 00 00 00	 call	 ??0CMemDC@@QAE@PAVCDC@@ABVCRect@@@Z ; CMemDC::CMemDC
  041fe	c7 45 fc 03 00
	00 00		 mov	 DWORD PTR __$EHRec$[ebp+8], 3

; 1163 : 			gBitMapOperate.FillRectangle(lDC, lre1, mcolFrame1, FALSE);

  04205	6a 00		 push	 0
  04207	8b 45 f0	 mov	 eax, DWORD PTR _this$[ebp]
  0420a	8b 88 c8 00 00
	00		 mov	 ecx, DWORD PTR [eax+200]
  04210	51		 push	 ecx
  04211	83 ec 10	 sub	 esp, 16			; 00000010H
  04214	8b d4		 mov	 edx, esp
  04216	8b 45 dc	 mov	 eax, DWORD PTR _lre1$[ebp]
  04219	89 02		 mov	 DWORD PTR [edx], eax
  0421b	8b 4d e0	 mov	 ecx, DWORD PTR _lre1$[ebp+4]
  0421e	89 4a 04	 mov	 DWORD PTR [edx+4], ecx
  04221	8b 45 e4	 mov	 eax, DWORD PTR _lre1$[ebp+8]
  04224	89 42 08	 mov	 DWORD PTR [edx+8], eax
  04227	8b 4d e8	 mov	 ecx, DWORD PTR _lre1$[ebp+12]
  0422a	89 4a 0c	 mov	 DWORD PTR [edx+12], ecx
  0422d	8d 8d dc fe ff
	ff		 lea	 ecx, DWORD PTR _lDC$188174[ebp]
  04233	e8 00 00 00 00	 call	 ??BCDC@@QBEPAUHDC__@@XZ	; CDC::operator HDC__ *
  04238	50		 push	 eax
  04239	b9 00 00 00 00	 mov	 ecx, OFFSET FLAT:?gBitMapOperate@@3VCBitMapOperate@@A
  0423e	e8 00 00 00 00	 call	 ?FillRectangle@CBitMapOperate@@UAEXPAUHDC__@@UtagRECT@@KH@Z ; CBitMapOperate::FillRectangle

; 1164 : 			gBitMapOperate.FillRectangle(lDC, lre2, mcolFrame2, FALSE);

  04243	6a 00		 push	 0
  04245	8b 55 f0	 mov	 edx, DWORD PTR _this$[ebp]
  04248	8b 82 cc 00 00
	00		 mov	 eax, DWORD PTR [edx+204]
  0424e	50		 push	 eax
  0424f	83 ec 10	 sub	 esp, 16			; 00000010H
  04252	8b cc		 mov	 ecx, esp
  04254	8b 55 c4	 mov	 edx, DWORD PTR _lre2$[ebp]
  04257	89 11		 mov	 DWORD PTR [ecx], edx
  04259	8b 45 c8	 mov	 eax, DWORD PTR _lre2$[ebp+4]
  0425c	89 41 04	 mov	 DWORD PTR [ecx+4], eax
  0425f	8b 55 cc	 mov	 edx, DWORD PTR _lre2$[ebp+8]
  04262	89 51 08	 mov	 DWORD PTR [ecx+8], edx
  04265	8b 45 d0	 mov	 eax, DWORD PTR _lre2$[ebp+12]
  04268	89 41 0c	 mov	 DWORD PTR [ecx+12], eax
  0426b	8d 8d dc fe ff
	ff		 lea	 ecx, DWORD PTR _lDC$188174[ebp]
  04271	e8 00 00 00 00	 call	 ??BCDC@@QBEPAUHDC__@@XZ	; CDC::operator HDC__ *
  04276	50		 push	 eax
  04277	b9 00 00 00 00	 mov	 ecx, OFFSET FLAT:?gBitMapOperate@@3VCBitMapOperate@@A
  0427c	e8 00 00 00 00	 call	 ?FillRectangle@CBitMapOperate@@UAEXPAUHDC__@@UtagRECT@@KH@Z ; CBitMapOperate::FillRectangle

; 1165 : 			gBitMapOperate.FillRectangle(lDC, lre3, mcolBtn2,mcolBtn1,gBitMapOperate.edoVertical,FALSE);

  04281	6a 01		 push	 1
  04283	6a 00		 push	 0
  04285	6a 01		 push	 1
  04287	8b 4d f0	 mov	 ecx, DWORD PTR _this$[ebp]
  0428a	8b 91 d0 00 00
	00		 mov	 edx, DWORD PTR [ecx+208]
  04290	52		 push	 edx
  04291	8b 45 f0	 mov	 eax, DWORD PTR _this$[ebp]
  04294	8b 88 d4 00 00
	00		 mov	 ecx, DWORD PTR [eax+212]
  0429a	51		 push	 ecx
  0429b	83 ec 10	 sub	 esp, 16			; 00000010H
  0429e	8b d4		 mov	 edx, esp
  042a0	8b 45 ac	 mov	 eax, DWORD PTR _lre3$[ebp]
  042a3	89 02		 mov	 DWORD PTR [edx], eax
  042a5	8b 4d b0	 mov	 ecx, DWORD PTR _lre3$[ebp+4]
  042a8	89 4a 04	 mov	 DWORD PTR [edx+4], ecx
  042ab	8b 45 b4	 mov	 eax, DWORD PTR _lre3$[ebp+8]
  042ae	89 42 08	 mov	 DWORD PTR [edx+8], eax
  042b1	8b 4d b8	 mov	 ecx, DWORD PTR _lre3$[ebp+12]
  042b4	89 4a 0c	 mov	 DWORD PTR [edx+12], ecx
  042b7	8d 8d dc fe ff
	ff		 lea	 ecx, DWORD PTR _lDC$188174[ebp]
  042bd	e8 00 00 00 00	 call	 ??BCDC@@QBEPAUHDC__@@XZ	; CDC::operator HDC__ *
  042c2	50		 push	 eax
  042c3	b9 00 00 00 00	 mov	 ecx, OFFSET FLAT:?gBitMapOperate@@3VCBitMapOperate@@A
  042c8	e8 00 00 00 00	 call	 ?FillRectangle@CBitMapOperate@@UAEXPAUHDC__@@UtagRECT@@KKW4ENUM_DrawOrientation@1@HI@Z ; CBitMapOperate::FillRectangle

; 1166 : 			SetPixel(lDC,lre1.left,lre1.top, mcolNormal1);

  042cd	8b f4		 mov	 esi, esp
  042cf	8b 55 f0	 mov	 edx, DWORD PTR _this$[ebp]
  042d2	8b 82 b0 00 00
	00		 mov	 eax, DWORD PTR [edx+176]
  042d8	50		 push	 eax
  042d9	8b 4d e0	 mov	 ecx, DWORD PTR _lre1$[ebp+4]
  042dc	51		 push	 ecx
  042dd	8b 55 dc	 mov	 edx, DWORD PTR _lre1$[ebp]
  042e0	52		 push	 edx
  042e1	8d 8d dc fe ff
	ff		 lea	 ecx, DWORD PTR _lDC$188174[ebp]
  042e7	e8 00 00 00 00	 call	 ??BCDC@@QBEPAUHDC__@@XZ	; CDC::operator HDC__ *
  042ec	50		 push	 eax
  042ed	ff 15 00 00 00
	00		 call	 DWORD PTR __imp__SetPixel@16
  042f3	3b f4		 cmp	 esi, esp
  042f5	e8 00 00 00 00	 call	 __RTC_CheckEsp

; 1167 : 			SetPixel(lDC,lre1.right -1,lre1.top, mcolNormal1);

  042fa	8b f4		 mov	 esi, esp
  042fc	8b 45 f0	 mov	 eax, DWORD PTR _this$[ebp]
  042ff	8b 88 b0 00 00
	00		 mov	 ecx, DWORD PTR [eax+176]
  04305	51		 push	 ecx
  04306	8b 55 e0	 mov	 edx, DWORD PTR _lre1$[ebp+4]
  04309	52		 push	 edx
  0430a	8b 45 e4	 mov	 eax, DWORD PTR _lre1$[ebp+8]
  0430d	83 e8 01	 sub	 eax, 1
  04310	50		 push	 eax
  04311	8d 8d dc fe ff
	ff		 lea	 ecx, DWORD PTR _lDC$188174[ebp]
  04317	e8 00 00 00 00	 call	 ??BCDC@@QBEPAUHDC__@@XZ	; CDC::operator HDC__ *
  0431c	50		 push	 eax
  0431d	ff 15 00 00 00
	00		 call	 DWORD PTR __imp__SetPixel@16
  04323	3b f4		 cmp	 esi, esp
  04325	e8 00 00 00 00	 call	 __RTC_CheckEsp

; 1168 : 			SetPixel(lDC,lre1.right -1,lre1.bottom-1, mcolNormal1);

  0432a	8b f4		 mov	 esi, esp
  0432c	8b 4d f0	 mov	 ecx, DWORD PTR _this$[ebp]
  0432f	8b 91 b0 00 00
	00		 mov	 edx, DWORD PTR [ecx+176]
  04335	52		 push	 edx
  04336	8b 45 e8	 mov	 eax, DWORD PTR _lre1$[ebp+12]
  04339	83 e8 01	 sub	 eax, 1
  0433c	50		 push	 eax
  0433d	8b 4d e4	 mov	 ecx, DWORD PTR _lre1$[ebp+8]
  04340	83 e9 01	 sub	 ecx, 1
  04343	51		 push	 ecx
  04344	8d 8d dc fe ff
	ff		 lea	 ecx, DWORD PTR _lDC$188174[ebp]
  0434a	e8 00 00 00 00	 call	 ??BCDC@@QBEPAUHDC__@@XZ	; CDC::operator HDC__ *
  0434f	50		 push	 eax
  04350	ff 15 00 00 00
	00		 call	 DWORD PTR __imp__SetPixel@16
  04356	3b f4		 cmp	 esi, esp
  04358	e8 00 00 00 00	 call	 __RTC_CheckEsp

; 1169 : 			SetPixel(lDC,lre1.left,lre1.bottom-1, mcolNormal1);

  0435d	8b f4		 mov	 esi, esp
  0435f	8b 55 f0	 mov	 edx, DWORD PTR _this$[ebp]
  04362	8b 82 b0 00 00
	00		 mov	 eax, DWORD PTR [edx+176]
  04368	50		 push	 eax
  04369	8b 4d e8	 mov	 ecx, DWORD PTR _lre1$[ebp+12]
  0436c	83 e9 01	 sub	 ecx, 1
  0436f	51		 push	 ecx
  04370	8b 55 dc	 mov	 edx, DWORD PTR _lre1$[ebp]
  04373	52		 push	 edx
  04374	8d 8d dc fe ff
	ff		 lea	 ecx, DWORD PTR _lDC$188174[ebp]
  0437a	e8 00 00 00 00	 call	 ??BCDC@@QBEPAUHDC__@@XZ	; CDC::operator HDC__ *
  0437f	50		 push	 eax
  04380	ff 15 00 00 00
	00		 call	 DWORD PTR __imp__SetPixel@16
  04386	3b f4		 cmp	 esi, esp
  04388	e8 00 00 00 00	 call	 __RTC_CheckEsp

; 1170 : 
; 1171 : 			lre2.left = lre2.left -1;

  0438d	8b 45 c4	 mov	 eax, DWORD PTR _lre2$[ebp]
  04390	83 e8 01	 sub	 eax, 1
  04393	89 45 c4	 mov	 DWORD PTR _lre2$[ebp], eax

; 1172 : 			gBitMapOperate.DrawLine(lDC, mcolFont, 1,  lre2.left+5, lre2.top+6, lre2.left+7, lre2.top+8, FALSE);

  04396	6a 00		 push	 0
  04398	8b 4d c8	 mov	 ecx, DWORD PTR _lre2$[ebp+4]
  0439b	83 c1 08	 add	 ecx, 8
  0439e	51		 push	 ecx
  0439f	8b 55 c4	 mov	 edx, DWORD PTR _lre2$[ebp]
  043a2	83 c2 07	 add	 edx, 7
  043a5	52		 push	 edx
  043a6	8b 45 c8	 mov	 eax, DWORD PTR _lre2$[ebp+4]
  043a9	83 c0 06	 add	 eax, 6
  043ac	50		 push	 eax
  043ad	8b 4d c4	 mov	 ecx, DWORD PTR _lre2$[ebp]
  043b0	83 c1 05	 add	 ecx, 5
  043b3	51		 push	 ecx
  043b4	68 00 00 80 3f	 push	 1065353216		; 3f800000H
  043b9	8b 55 f0	 mov	 edx, DWORD PTR _this$[ebp]
  043bc	8b 82 d8 00 00
	00		 mov	 eax, DWORD PTR [edx+216]
  043c2	50		 push	 eax
  043c3	8d 8d dc fe ff
	ff		 lea	 ecx, DWORD PTR _lDC$188174[ebp]
  043c9	e8 00 00 00 00	 call	 ??BCDC@@QBEPAUHDC__@@XZ	; CDC::operator HDC__ *
  043ce	50		 push	 eax
  043cf	b9 00 00 00 00	 mov	 ecx, OFFSET FLAT:?gBitMapOperate@@3VCBitMapOperate@@A
  043d4	e8 00 00 00 00	 call	 ?DrawLine@CBitMapOperate@@UAEXPAUHDC__@@KMHHHHH@Z ; CBitMapOperate::DrawLine

; 1173 : 			gBitMapOperate.DrawLine(lDC, mcolFont, 1,  lre2.left+7, lre2.top+8, lre2.left+10, lre2.top+5, FALSE);

  043d9	6a 00		 push	 0
  043db	8b 4d c8	 mov	 ecx, DWORD PTR _lre2$[ebp+4]
  043de	83 c1 05	 add	 ecx, 5
  043e1	51		 push	 ecx
  043e2	8b 55 c4	 mov	 edx, DWORD PTR _lre2$[ebp]
  043e5	83 c2 0a	 add	 edx, 10			; 0000000aH
  043e8	52		 push	 edx
  043e9	8b 45 c8	 mov	 eax, DWORD PTR _lre2$[ebp+4]
  043ec	83 c0 08	 add	 eax, 8
  043ef	50		 push	 eax
  043f0	8b 4d c4	 mov	 ecx, DWORD PTR _lre2$[ebp]
  043f3	83 c1 07	 add	 ecx, 7
  043f6	51		 push	 ecx
  043f7	68 00 00 80 3f	 push	 1065353216		; 3f800000H
  043fc	8b 55 f0	 mov	 edx, DWORD PTR _this$[ebp]
  043ff	8b 82 d8 00 00
	00		 mov	 eax, DWORD PTR [edx+216]
  04405	50		 push	 eax
  04406	8d 8d dc fe ff
	ff		 lea	 ecx, DWORD PTR _lDC$188174[ebp]
  0440c	e8 00 00 00 00	 call	 ??BCDC@@QBEPAUHDC__@@XZ	; CDC::operator HDC__ *
  04411	50		 push	 eax
  04412	b9 00 00 00 00	 mov	 ecx, OFFSET FLAT:?gBitMapOperate@@3VCBitMapOperate@@A
  04417	e8 00 00 00 00	 call	 ?DrawLine@CBitMapOperate@@UAEXPAUHDC__@@KMHHHHH@Z ; CBitMapOperate::DrawLine

; 1174 : 			gBitMapOperate.DrawLine(lDC, mcolFont, 1,  lre2.left+4, lre2.top+6, lre2.left+7, lre2.top+9, FALSE);

  0441c	6a 00		 push	 0
  0441e	8b 4d c8	 mov	 ecx, DWORD PTR _lre2$[ebp+4]
  04421	83 c1 09	 add	 ecx, 9
  04424	51		 push	 ecx
  04425	8b 55 c4	 mov	 edx, DWORD PTR _lre2$[ebp]
  04428	83 c2 07	 add	 edx, 7
  0442b	52		 push	 edx
  0442c	8b 45 c8	 mov	 eax, DWORD PTR _lre2$[ebp+4]
  0442f	83 c0 06	 add	 eax, 6
  04432	50		 push	 eax
  04433	8b 4d c4	 mov	 ecx, DWORD PTR _lre2$[ebp]
  04436	83 c1 04	 add	 ecx, 4
  04439	51		 push	 ecx
  0443a	68 00 00 80 3f	 push	 1065353216		; 3f800000H
  0443f	8b 55 f0	 mov	 edx, DWORD PTR _this$[ebp]
  04442	8b 82 d8 00 00
	00		 mov	 eax, DWORD PTR [edx+216]
  04448	50		 push	 eax
  04449	8d 8d dc fe ff
	ff		 lea	 ecx, DWORD PTR _lDC$188174[ebp]
  0444f	e8 00 00 00 00	 call	 ??BCDC@@QBEPAUHDC__@@XZ	; CDC::operator HDC__ *
  04454	50		 push	 eax
  04455	b9 00 00 00 00	 mov	 ecx, OFFSET FLAT:?gBitMapOperate@@3VCBitMapOperate@@A
  0445a	e8 00 00 00 00	 call	 ?DrawLine@CBitMapOperate@@UAEXPAUHDC__@@KMHHHHH@Z ; CBitMapOperate::DrawLine

; 1175 : 			gBitMapOperate.DrawLine(lDC, mcolFont, 1,  lre2.left+7, lre2.top+9, lre2.left+11, lre2.top+5, FALSE);

  0445f	6a 00		 push	 0
  04461	8b 4d c8	 mov	 ecx, DWORD PTR _lre2$[ebp+4]
  04464	83 c1 05	 add	 ecx, 5
  04467	51		 push	 ecx
  04468	8b 55 c4	 mov	 edx, DWORD PTR _lre2$[ebp]
  0446b	83 c2 0b	 add	 edx, 11			; 0000000bH
  0446e	52		 push	 edx
  0446f	8b 45 c8	 mov	 eax, DWORD PTR _lre2$[ebp+4]
  04472	83 c0 09	 add	 eax, 9
  04475	50		 push	 eax
  04476	8b 4d c4	 mov	 ecx, DWORD PTR _lre2$[ebp]
  04479	83 c1 07	 add	 ecx, 7
  0447c	51		 push	 ecx
  0447d	68 00 00 80 3f	 push	 1065353216		; 3f800000H
  04482	8b 55 f0	 mov	 edx, DWORD PTR _this$[ebp]
  04485	8b 82 d8 00 00
	00		 mov	 eax, DWORD PTR [edx+216]
  0448b	50		 push	 eax
  0448c	8d 8d dc fe ff
	ff		 lea	 ecx, DWORD PTR _lDC$188174[ebp]
  04492	e8 00 00 00 00	 call	 ??BCDC@@QBEPAUHDC__@@XZ	; CDC::operator HDC__ *
  04497	50		 push	 eax
  04498	b9 00 00 00 00	 mov	 ecx, OFFSET FLAT:?gBitMapOperate@@3VCBitMapOperate@@A
  0449d	e8 00 00 00 00	 call	 ?DrawLine@CBitMapOperate@@UAEXPAUHDC__@@KMHHHHH@Z ; CBitMapOperate::DrawLine

; 1176 : 
; 1177 : 		}

  044a2	c7 45 fc ff ff
	ff ff		 mov	 DWORD PTR __$EHRec$[ebp+8], -1
  044a9	8d 8d dc fe ff
	ff		 lea	 ecx, DWORD PTR _lDC$188174[ebp]
  044af	e8 00 00 00 00	 call	 ??1CMemDC@@UAE@XZ	; CMemDC::~CMemDC

; 1178 : 		break;

  044b4	e9 a1 05 00 00	 jmp	 $L188155
$L188176:

; 1179 : 	case 4:		//滑块条纹
; 1180 : 		if (mScrollOrientation == esoVertical)

  044b9	8b 4d f0	 mov	 ecx, DWORD PTR _this$[ebp]
  044bc	83 b9 80 00 00
	00 01		 cmp	 DWORD PTR [ecx+128], 1
  044c3	0f 85 cb 02 00
	00		 jne	 $L188177

; 1181 : 		{
; 1182 : 			CMemDC lDC(CDC::FromHandle(hDC), &lre1);

  044c9	8d 55 dc	 lea	 edx, DWORD PTR _lre1$[ebp]
  044cc	52		 push	 edx
  044cd	8d 8d 18 fe ff
	ff		 lea	 ecx, DWORD PTR $T189056[ebp]
  044d3	e8 00 00 00 00	 call	 ??0CRect@@QAE@PBUtagRECT@@@Z ; CRect::CRect
  044d8	8d 85 18 fe ff
	ff		 lea	 eax, DWORD PTR $T189056[ebp]
  044de	50		 push	 eax
  044df	8b 4d 08	 mov	 ecx, DWORD PTR _hDC$[ebp]
  044e2	51		 push	 ecx
  044e3	e8 00 00 00 00	 call	 ?FromHandle@CDC@@SGPAV1@PAUHDC__@@@Z ; CDC::FromHandle
  044e8	50		 push	 eax
  044e9	8d 8d a8 fe ff
	ff		 lea	 ecx, DWORD PTR _lDC$188178[ebp]
  044ef	e8 00 00 00 00	 call	 ??0CMemDC@@QAE@PAVCDC@@ABVCRect@@@Z ; CMemDC::CMemDC
  044f4	c7 45 fc 04 00
	00 00		 mov	 DWORD PTR __$EHRec$[ebp+8], 4

; 1183 : 			gBitMapOperate.FillRectangle(lDC, lre1, mcolFrame1, FALSE);

  044fb	6a 00		 push	 0
  044fd	8b 55 f0	 mov	 edx, DWORD PTR _this$[ebp]
  04500	8b 82 c8 00 00
	00		 mov	 eax, DWORD PTR [edx+200]
  04506	50		 push	 eax
  04507	83 ec 10	 sub	 esp, 16			; 00000010H
  0450a	8b cc		 mov	 ecx, esp
  0450c	8b 55 dc	 mov	 edx, DWORD PTR _lre1$[ebp]
  0450f	89 11		 mov	 DWORD PTR [ecx], edx
  04511	8b 45 e0	 mov	 eax, DWORD PTR _lre1$[ebp+4]
  04514	89 41 04	 mov	 DWORD PTR [ecx+4], eax
  04517	8b 55 e4	 mov	 edx, DWORD PTR _lre1$[ebp+8]
  0451a	89 51 08	 mov	 DWORD PTR [ecx+8], edx
  0451d	8b 45 e8	 mov	 eax, DWORD PTR _lre1$[ebp+12]
  04520	89 41 0c	 mov	 DWORD PTR [ecx+12], eax
  04523	8d 8d a8 fe ff
	ff		 lea	 ecx, DWORD PTR _lDC$188178[ebp]
  04529	e8 00 00 00 00	 call	 ??BCDC@@QBEPAUHDC__@@XZ	; CDC::operator HDC__ *
  0452e	50		 push	 eax
  0452f	b9 00 00 00 00	 mov	 ecx, OFFSET FLAT:?gBitMapOperate@@3VCBitMapOperate@@A
  04534	e8 00 00 00 00	 call	 ?FillRectangle@CBitMapOperate@@UAEXPAUHDC__@@UtagRECT@@KH@Z ; CBitMapOperate::FillRectangle

; 1184 : 			gBitMapOperate.FillRectangle(lDC, lre2, mcolFrame2, FALSE);

  04539	6a 00		 push	 0
  0453b	8b 4d f0	 mov	 ecx, DWORD PTR _this$[ebp]
  0453e	8b 91 cc 00 00
	00		 mov	 edx, DWORD PTR [ecx+204]
  04544	52		 push	 edx
  04545	83 ec 10	 sub	 esp, 16			; 00000010H
  04548	8b c4		 mov	 eax, esp
  0454a	8b 4d c4	 mov	 ecx, DWORD PTR _lre2$[ebp]
  0454d	89 08		 mov	 DWORD PTR [eax], ecx
  0454f	8b 55 c8	 mov	 edx, DWORD PTR _lre2$[ebp+4]
  04552	89 50 04	 mov	 DWORD PTR [eax+4], edx
  04555	8b 4d cc	 mov	 ecx, DWORD PTR _lre2$[ebp+8]
  04558	89 48 08	 mov	 DWORD PTR [eax+8], ecx
  0455b	8b 55 d0	 mov	 edx, DWORD PTR _lre2$[ebp+12]
  0455e	89 50 0c	 mov	 DWORD PTR [eax+12], edx
  04561	8d 8d a8 fe ff
	ff		 lea	 ecx, DWORD PTR _lDC$188178[ebp]
  04567	e8 00 00 00 00	 call	 ??BCDC@@QBEPAUHDC__@@XZ	; CDC::operator HDC__ *
  0456c	50		 push	 eax
  0456d	b9 00 00 00 00	 mov	 ecx, OFFSET FLAT:?gBitMapOperate@@3VCBitMapOperate@@A
  04572	e8 00 00 00 00	 call	 ?FillRectangle@CBitMapOperate@@UAEXPAUHDC__@@UtagRECT@@KH@Z ; CBitMapOperate::FillRectangle

; 1185 : 			gBitMapOperate.FillRectangle(lDC, lre3, mcolDown1,mcolDown2,gBitMapOperate.edoVertical,FALSE);

  04577	6a 01		 push	 1
  04579	6a 00		 push	 0
  0457b	6a 01		 push	 1
  0457d	8b 45 f0	 mov	 eax, DWORD PTR _this$[ebp]
  04580	8b 88 c4 00 00
	00		 mov	 ecx, DWORD PTR [eax+196]
  04586	51		 push	 ecx
  04587	8b 55 f0	 mov	 edx, DWORD PTR _this$[ebp]
  0458a	8b 82 c0 00 00
	00		 mov	 eax, DWORD PTR [edx+192]
  04590	50		 push	 eax
  04591	83 ec 10	 sub	 esp, 16			; 00000010H
  04594	8b cc		 mov	 ecx, esp
  04596	8b 55 ac	 mov	 edx, DWORD PTR _lre3$[ebp]
  04599	89 11		 mov	 DWORD PTR [ecx], edx
  0459b	8b 45 b0	 mov	 eax, DWORD PTR _lre3$[ebp+4]
  0459e	89 41 04	 mov	 DWORD PTR [ecx+4], eax
  045a1	8b 55 b4	 mov	 edx, DWORD PTR _lre3$[ebp+8]
  045a4	89 51 08	 mov	 DWORD PTR [ecx+8], edx
  045a7	8b 45 b8	 mov	 eax, DWORD PTR _lre3$[ebp+12]
  045aa	89 41 0c	 mov	 DWORD PTR [ecx+12], eax
  045ad	8d 8d a8 fe ff
	ff		 lea	 ecx, DWORD PTR _lDC$188178[ebp]
  045b3	e8 00 00 00 00	 call	 ??BCDC@@QBEPAUHDC__@@XZ	; CDC::operator HDC__ *
  045b8	50		 push	 eax
  045b9	b9 00 00 00 00	 mov	 ecx, OFFSET FLAT:?gBitMapOperate@@3VCBitMapOperate@@A
  045be	e8 00 00 00 00	 call	 ?FillRectangle@CBitMapOperate@@UAEXPAUHDC__@@UtagRECT@@KKW4ENUM_DrawOrientation@1@HI@Z ; CBitMapOperate::FillRectangle

; 1186 : 			SetPixel(lDC,lre1.left,lre1.top, mcolNormal1);

  045c3	8b f4		 mov	 esi, esp
  045c5	8b 4d f0	 mov	 ecx, DWORD PTR _this$[ebp]
  045c8	8b 91 b0 00 00
	00		 mov	 edx, DWORD PTR [ecx+176]
  045ce	52		 push	 edx
  045cf	8b 45 e0	 mov	 eax, DWORD PTR _lre1$[ebp+4]
  045d2	50		 push	 eax
  045d3	8b 4d dc	 mov	 ecx, DWORD PTR _lre1$[ebp]
  045d6	51		 push	 ecx
  045d7	8d 8d a8 fe ff
	ff		 lea	 ecx, DWORD PTR _lDC$188178[ebp]
  045dd	e8 00 00 00 00	 call	 ??BCDC@@QBEPAUHDC__@@XZ	; CDC::operator HDC__ *
  045e2	50		 push	 eax
  045e3	ff 15 00 00 00
	00		 call	 DWORD PTR __imp__SetPixel@16
  045e9	3b f4		 cmp	 esi, esp
  045eb	e8 00 00 00 00	 call	 __RTC_CheckEsp

; 1187 : 			SetPixel(lDC,lre1.right -1,lre1.top, mcolNormal1);

  045f0	8b f4		 mov	 esi, esp
  045f2	8b 55 f0	 mov	 edx, DWORD PTR _this$[ebp]
  045f5	8b 82 b0 00 00
	00		 mov	 eax, DWORD PTR [edx+176]
  045fb	50		 push	 eax
  045fc	8b 4d e0	 mov	 ecx, DWORD PTR _lre1$[ebp+4]
  045ff	51		 push	 ecx
  04600	8b 55 e4	 mov	 edx, DWORD PTR _lre1$[ebp+8]
  04603	83 ea 01	 sub	 edx, 1
  04606	52		 push	 edx
  04607	8d 8d a8 fe ff
	ff		 lea	 ecx, DWORD PTR _lDC$188178[ebp]
  0460d	e8 00 00 00 00	 call	 ??BCDC@@QBEPAUHDC__@@XZ	; CDC::operator HDC__ *
  04612	50		 push	 eax
  04613	ff 15 00 00 00
	00		 call	 DWORD PTR __imp__SetPixel@16
  04619	3b f4		 cmp	 esi, esp
  0461b	e8 00 00 00 00	 call	 __RTC_CheckEsp

; 1188 : 			SetPixel(lDC,lre1.right -1,lre1.bottom-1, mcolNormal1);

  04620	8b f4		 mov	 esi, esp
  04622	8b 45 f0	 mov	 eax, DWORD PTR _this$[ebp]
  04625	8b 88 b0 00 00
	00		 mov	 ecx, DWORD PTR [eax+176]
  0462b	51		 push	 ecx
  0462c	8b 55 e8	 mov	 edx, DWORD PTR _lre1$[ebp+12]
  0462f	83 ea 01	 sub	 edx, 1
  04632	52		 push	 edx
  04633	8b 45 e4	 mov	 eax, DWORD PTR _lre1$[ebp+8]
  04636	83 e8 01	 sub	 eax, 1
  04639	50		 push	 eax
  0463a	8d 8d a8 fe ff
	ff		 lea	 ecx, DWORD PTR _lDC$188178[ebp]
  04640	e8 00 00 00 00	 call	 ??BCDC@@QBEPAUHDC__@@XZ	; CDC::operator HDC__ *
  04645	50		 push	 eax
  04646	ff 15 00 00 00
	00		 call	 DWORD PTR __imp__SetPixel@16
  0464c	3b f4		 cmp	 esi, esp
  0464e	e8 00 00 00 00	 call	 __RTC_CheckEsp

; 1189 : 			SetPixel(lDC,lre1.left,lre1.bottom-1, mcolNormal1);

  04653	8b f4		 mov	 esi, esp
  04655	8b 4d f0	 mov	 ecx, DWORD PTR _this$[ebp]
  04658	8b 91 b0 00 00
	00		 mov	 edx, DWORD PTR [ecx+176]
  0465e	52		 push	 edx
  0465f	8b 45 e8	 mov	 eax, DWORD PTR _lre1$[ebp+12]
  04662	83 e8 01	 sub	 eax, 1
  04665	50		 push	 eax
  04666	8b 4d dc	 mov	 ecx, DWORD PTR _lre1$[ebp]
  04669	51		 push	 ecx
  0466a	8d 8d a8 fe ff
	ff		 lea	 ecx, DWORD PTR _lDC$188178[ebp]
  04670	e8 00 00 00 00	 call	 ??BCDC@@QBEPAUHDC__@@XZ	; CDC::operator HDC__ *
  04675	50		 push	 eax
  04676	ff 15 00 00 00
	00		 call	 DWORD PTR __imp__SetPixel@16
  0467c	3b f4		 cmp	 esi, esp
  0467e	e8 00 00 00 00	 call	 __RTC_CheckEsp

; 1190 : 			// 三条线
; 1191 : 			if( lre2.bottom >= 15 )

  04683	83 7d d0 0f	 cmp	 DWORD PTR _lre2$[ebp+12], 15 ; 0000000fH
  04687	0f 8c f0 00 00
	00		 jl	 $L188180

; 1192 : 			{
; 1193 : 				int liLift = lre2.top + (lre2.bottom - 11 -lre2.top)/2 + 1;

  0468d	8b 45 d0	 mov	 eax, DWORD PTR _lre2$[ebp+12]
  04690	83 e8 0b	 sub	 eax, 11			; 0000000bH
  04693	2b 45 c8	 sub	 eax, DWORD PTR _lre2$[ebp+4]
  04696	99		 cdq
  04697	2b c2		 sub	 eax, edx
  04699	d1 f8		 sar	 eax, 1
  0469b	8b 55 c8	 mov	 edx, DWORD PTR _lre2$[ebp+4]
  0469e	8d 44 02 01	 lea	 eax, DWORD PTR [edx+eax+1]
  046a2	89 85 a0 fe ff
	ff		 mov	 DWORD PTR _liLift$188181[ebp], eax

; 1194 : 
; 1195 : 				gBitMapOperate.DrawLine(lDC, mcolBK,  1, lre2.left+2, liLift,   lre2.right-3, liLift, FALSE);

  046a8	6a 00		 push	 0
  046aa	8b 8d a0 fe ff
	ff		 mov	 ecx, DWORD PTR _liLift$188181[ebp]
  046b0	51		 push	 ecx
  046b1	8b 55 cc	 mov	 edx, DWORD PTR _lre2$[ebp+8]
  046b4	83 ea 03	 sub	 edx, 3
  046b7	52		 push	 edx
  046b8	8b 85 a0 fe ff
	ff		 mov	 eax, DWORD PTR _liLift$188181[ebp]
  046be	50		 push	 eax
  046bf	8b 4d c4	 mov	 ecx, DWORD PTR _lre2$[ebp]
  046c2	83 c1 02	 add	 ecx, 2
  046c5	51		 push	 ecx
  046c6	68 00 00 80 3f	 push	 1065353216		; 3f800000H
  046cb	8b 55 f0	 mov	 edx, DWORD PTR _this$[ebp]
  046ce	8b 82 dc 00 00
	00		 mov	 eax, DWORD PTR [edx+220]
  046d4	50		 push	 eax
  046d5	8d 8d a8 fe ff
	ff		 lea	 ecx, DWORD PTR _lDC$188178[ebp]
  046db	e8 00 00 00 00	 call	 ??BCDC@@QBEPAUHDC__@@XZ	; CDC::operator HDC__ *
  046e0	50		 push	 eax
  046e1	b9 00 00 00 00	 mov	 ecx, OFFSET FLAT:?gBitMapOperate@@3VCBitMapOperate@@A
  046e6	e8 00 00 00 00	 call	 ?DrawLine@CBitMapOperate@@UAEXPAUHDC__@@KMHHHHH@Z ; CBitMapOperate::DrawLine

; 1196 : 				gBitMapOperate.DrawLine(lDC, mcolBK,  1, lre2.left+2, liLift+4, lre2.right-3, liLift+4, FALSE);

  046eb	6a 00		 push	 0
  046ed	8b 8d a0 fe ff
	ff		 mov	 ecx, DWORD PTR _liLift$188181[ebp]
  046f3	83 c1 04	 add	 ecx, 4
  046f6	51		 push	 ecx
  046f7	8b 55 cc	 mov	 edx, DWORD PTR _lre2$[ebp+8]
  046fa	83 ea 03	 sub	 edx, 3
  046fd	52		 push	 edx
  046fe	8b 85 a0 fe ff
	ff		 mov	 eax, DWORD PTR _liLift$188181[ebp]
  04704	83 c0 04	 add	 eax, 4
  04707	50		 push	 eax
  04708	8b 4d c4	 mov	 ecx, DWORD PTR _lre2$[ebp]
  0470b	83 c1 02	 add	 ecx, 2
  0470e	51		 push	 ecx
  0470f	68 00 00 80 3f	 push	 1065353216		; 3f800000H
  04714	8b 55 f0	 mov	 edx, DWORD PTR _this$[ebp]
  04717	8b 82 dc 00 00
	00		 mov	 eax, DWORD PTR [edx+220]
  0471d	50		 push	 eax
  0471e	8d 8d a8 fe ff
	ff		 lea	 ecx, DWORD PTR _lDC$188178[ebp]
  04724	e8 00 00 00 00	 call	 ??BCDC@@QBEPAUHDC__@@XZ	; CDC::operator HDC__ *
  04729	50		 push	 eax
  0472a	b9 00 00 00 00	 mov	 ecx, OFFSET FLAT:?gBitMapOperate@@3VCBitMapOperate@@A
  0472f	e8 00 00 00 00	 call	 ?DrawLine@CBitMapOperate@@UAEXPAUHDC__@@KMHHHHH@Z ; CBitMapOperate::DrawLine

; 1197 : 				gBitMapOperate.DrawLine(lDC, mcolBK,  1, lre2.left+2, liLift+8, lre2.right-3, liLift+8, FALSE);

  04734	6a 00		 push	 0
  04736	8b 8d a0 fe ff
	ff		 mov	 ecx, DWORD PTR _liLift$188181[ebp]
  0473c	83 c1 08	 add	 ecx, 8
  0473f	51		 push	 ecx
  04740	8b 55 cc	 mov	 edx, DWORD PTR _lre2$[ebp+8]
  04743	83 ea 03	 sub	 edx, 3
  04746	52		 push	 edx
  04747	8b 85 a0 fe ff
	ff		 mov	 eax, DWORD PTR _liLift$188181[ebp]
  0474d	83 c0 08	 add	 eax, 8
  04750	50		 push	 eax
  04751	8b 4d c4	 mov	 ecx, DWORD PTR _lre2$[ebp]
  04754	83 c1 02	 add	 ecx, 2
  04757	51		 push	 ecx
  04758	68 00 00 80 3f	 push	 1065353216		; 3f800000H
  0475d	8b 55 f0	 mov	 edx, DWORD PTR _this$[ebp]
  04760	8b 82 dc 00 00
	00		 mov	 eax, DWORD PTR [edx+220]
  04766	50		 push	 eax
  04767	8d 8d a8 fe ff
	ff		 lea	 ecx, DWORD PTR _lDC$188178[ebp]
  0476d	e8 00 00 00 00	 call	 ??BCDC@@QBEPAUHDC__@@XZ	; CDC::operator HDC__ *
  04772	50		 push	 eax
  04773	b9 00 00 00 00	 mov	 ecx, OFFSET FLAT:?gBitMapOperate@@3VCBitMapOperate@@A
  04778	e8 00 00 00 00	 call	 ?DrawLine@CBitMapOperate@@UAEXPAUHDC__@@KMHHHHH@Z ; CBitMapOperate::DrawLine
$L188180:

; 1198 : 			}
; 1199 : 
; 1200 : 
; 1201 : 		}

  0477d	c7 45 fc ff ff
	ff ff		 mov	 DWORD PTR __$EHRec$[ebp+8], -1
  04784	8d 8d a8 fe ff
	ff		 lea	 ecx, DWORD PTR _lDC$188178[ebp]
  0478a	e8 00 00 00 00	 call	 ??1CMemDC@@UAE@XZ	; CMemDC::~CMemDC

; 1202 : 		else	//esoHorizontal

  0478f	e9 c6 02 00 00	 jmp	 $L188155
$L188177:

; 1203 : 		{
; 1204 : 			CMemDC lDC(CDC::FromHandle(hDC), &lre1);

  04794	8d 4d dc	 lea	 ecx, DWORD PTR _lre1$[ebp]
  04797	51		 push	 ecx
  04798	8d 8d 08 fe ff
	ff		 lea	 ecx, DWORD PTR $T189057[ebp]
  0479e	e8 00 00 00 00	 call	 ??0CRect@@QAE@PBUtagRECT@@@Z ; CRect::CRect
  047a3	8d 95 08 fe ff
	ff		 lea	 edx, DWORD PTR $T189057[ebp]
  047a9	52		 push	 edx
  047aa	8b 45 08	 mov	 eax, DWORD PTR _hDC$[ebp]
  047ad	50		 push	 eax
  047ae	e8 00 00 00 00	 call	 ?FromHandle@CDC@@SGPAV1@PAUHDC__@@@Z ; CDC::FromHandle
  047b3	50		 push	 eax
  047b4	8d 8d 70 fe ff
	ff		 lea	 ecx, DWORD PTR _lDC$188183[ebp]
  047ba	e8 00 00 00 00	 call	 ??0CMemDC@@QAE@PAVCDC@@ABVCRect@@@Z ; CMemDC::CMemDC
  047bf	c7 45 fc 05 00
	00 00		 mov	 DWORD PTR __$EHRec$[ebp+8], 5

; 1205 : 			gBitMapOperate.FillRectangle(lDC, lre1, mcolFrame1, FALSE);

  047c6	6a 00		 push	 0
  047c8	8b 4d f0	 mov	 ecx, DWORD PTR _this$[ebp]
  047cb	8b 91 c8 00 00
	00		 mov	 edx, DWORD PTR [ecx+200]
  047d1	52		 push	 edx
  047d2	83 ec 10	 sub	 esp, 16			; 00000010H
  047d5	8b c4		 mov	 eax, esp
  047d7	8b 4d dc	 mov	 ecx, DWORD PTR _lre1$[ebp]
  047da	89 08		 mov	 DWORD PTR [eax], ecx
  047dc	8b 55 e0	 mov	 edx, DWORD PTR _lre1$[ebp+4]
  047df	89 50 04	 mov	 DWORD PTR [eax+4], edx
  047e2	8b 4d e4	 mov	 ecx, DWORD PTR _lre1$[ebp+8]
  047e5	89 48 08	 mov	 DWORD PTR [eax+8], ecx
  047e8	8b 55 e8	 mov	 edx, DWORD PTR _lre1$[ebp+12]
  047eb	89 50 0c	 mov	 DWORD PTR [eax+12], edx
  047ee	8d 8d 70 fe ff
	ff		 lea	 ecx, DWORD PTR _lDC$188183[ebp]
  047f4	e8 00 00 00 00	 call	 ??BCDC@@QBEPAUHDC__@@XZ	; CDC::operator HDC__ *
  047f9	50		 push	 eax
  047fa	b9 00 00 00 00	 mov	 ecx, OFFSET FLAT:?gBitMapOperate@@3VCBitMapOperate@@A
  047ff	e8 00 00 00 00	 call	 ?FillRectangle@CBitMapOperate@@UAEXPAUHDC__@@UtagRECT@@KH@Z ; CBitMapOperate::FillRectangle

; 1206 : 			gBitMapOperate.FillRectangle(lDC, lre2, mcolFrame2, FALSE);

  04804	6a 00		 push	 0
  04806	8b 45 f0	 mov	 eax, DWORD PTR _this$[ebp]
  04809	8b 88 cc 00 00
	00		 mov	 ecx, DWORD PTR [eax+204]
  0480f	51		 push	 ecx
  04810	83 ec 10	 sub	 esp, 16			; 00000010H
  04813	8b d4		 mov	 edx, esp
  04815	8b 45 c4	 mov	 eax, DWORD PTR _lre2$[ebp]
  04818	89 02		 mov	 DWORD PTR [edx], eax
  0481a	8b 4d c8	 mov	 ecx, DWORD PTR _lre2$[ebp+4]
  0481d	89 4a 04	 mov	 DWORD PTR [edx+4], ecx
  04820	8b 45 cc	 mov	 eax, DWORD PTR _lre2$[ebp+8]
  04823	89 42 08	 mov	 DWORD PTR [edx+8], eax
  04826	8b 4d d0	 mov	 ecx, DWORD PTR _lre2$[ebp+12]
  04829	89 4a 0c	 mov	 DWORD PTR [edx+12], ecx
  0482c	8d 8d 70 fe ff
	ff		 lea	 ecx, DWORD PTR _lDC$188183[ebp]
  04832	e8 00 00 00 00	 call	 ??BCDC@@QBEPAUHDC__@@XZ	; CDC::operator HDC__ *
  04837	50		 push	 eax
  04838	b9 00 00 00 00	 mov	 ecx, OFFSET FLAT:?gBitMapOperate@@3VCBitMapOperate@@A
  0483d	e8 00 00 00 00	 call	 ?FillRectangle@CBitMapOperate@@UAEXPAUHDC__@@UtagRECT@@KH@Z ; CBitMapOperate::FillRectangle

; 1207 : 			gBitMapOperate.FillRectangle(lDC, lre3, mcolDown1,mcolDown2,gBitMapOperate.edoVertical,FALSE);

  04842	6a 01		 push	 1
  04844	6a 00		 push	 0
  04846	6a 01		 push	 1
  04848	8b 55 f0	 mov	 edx, DWORD PTR _this$[ebp]
  0484b	8b 82 c4 00 00
	00		 mov	 eax, DWORD PTR [edx+196]
  04851	50		 push	 eax
  04852	8b 4d f0	 mov	 ecx, DWORD PTR _this$[ebp]
  04855	8b 91 c0 00 00
	00		 mov	 edx, DWORD PTR [ecx+192]
  0485b	52		 push	 edx
  0485c	83 ec 10	 sub	 esp, 16			; 00000010H
  0485f	8b c4		 mov	 eax, esp
  04861	8b 4d ac	 mov	 ecx, DWORD PTR _lre3$[ebp]
  04864	89 08		 mov	 DWORD PTR [eax], ecx
  04866	8b 55 b0	 mov	 edx, DWORD PTR _lre3$[ebp+4]
  04869	89 50 04	 mov	 DWORD PTR [eax+4], edx
  0486c	8b 4d b4	 mov	 ecx, DWORD PTR _lre3$[ebp+8]
  0486f	89 48 08	 mov	 DWORD PTR [eax+8], ecx
  04872	8b 55 b8	 mov	 edx, DWORD PTR _lre3$[ebp+12]
  04875	89 50 0c	 mov	 DWORD PTR [eax+12], edx
  04878	8d 8d 70 fe ff
	ff		 lea	 ecx, DWORD PTR _lDC$188183[ebp]
  0487e	e8 00 00 00 00	 call	 ??BCDC@@QBEPAUHDC__@@XZ	; CDC::operator HDC__ *
  04883	50		 push	 eax
  04884	b9 00 00 00 00	 mov	 ecx, OFFSET FLAT:?gBitMapOperate@@3VCBitMapOperate@@A
  04889	e8 00 00 00 00	 call	 ?FillRectangle@CBitMapOperate@@UAEXPAUHDC__@@UtagRECT@@KKW4ENUM_DrawOrientation@1@HI@Z ; CBitMapOperate::FillRectangle

; 1208 : 			SetPixel(lDC,lre1.left,lre1.top, mcolNormal1);

  0488e	8b f4		 mov	 esi, esp
  04890	8b 45 f0	 mov	 eax, DWORD PTR _this$[ebp]
  04893	8b 88 b0 00 00
	00		 mov	 ecx, DWORD PTR [eax+176]
  04899	51		 push	 ecx
  0489a	8b 55 e0	 mov	 edx, DWORD PTR _lre1$[ebp+4]
  0489d	52		 push	 edx
  0489e	8b 45 dc	 mov	 eax, DWORD PTR _lre1$[ebp]
  048a1	50		 push	 eax
  048a2	8d 8d 70 fe ff
	ff		 lea	 ecx, DWORD PTR _lDC$188183[ebp]
  048a8	e8 00 00 00 00	 call	 ??BCDC@@QBEPAUHDC__@@XZ	; CDC::operator HDC__ *
  048ad	50		 push	 eax
  048ae	ff 15 00 00 00
	00		 call	 DWORD PTR __imp__SetPixel@16
  048b4	3b f4		 cmp	 esi, esp
  048b6	e8 00 00 00 00	 call	 __RTC_CheckEsp

; 1209 : 			SetPixel(lDC,lre1.right -1,lre1.top, mcolNormal1);

  048bb	8b f4		 mov	 esi, esp
  048bd	8b 4d f0	 mov	 ecx, DWORD PTR _this$[ebp]
  048c0	8b 91 b0 00 00
	00		 mov	 edx, DWORD PTR [ecx+176]
  048c6	52		 push	 edx
  048c7	8b 45 e0	 mov	 eax, DWORD PTR _lre1$[ebp+4]
  048ca	50		 push	 eax
  048cb	8b 4d e4	 mov	 ecx, DWORD PTR _lre1$[ebp+8]
  048ce	83 e9 01	 sub	 ecx, 1
  048d1	51		 push	 ecx
  048d2	8d 8d 70 fe ff
	ff		 lea	 ecx, DWORD PTR _lDC$188183[ebp]
  048d8	e8 00 00 00 00	 call	 ??BCDC@@QBEPAUHDC__@@XZ	; CDC::operator HDC__ *
  048dd	50		 push	 eax
  048de	ff 15 00 00 00
	00		 call	 DWORD PTR __imp__SetPixel@16
  048e4	3b f4		 cmp	 esi, esp
  048e6	e8 00 00 00 00	 call	 __RTC_CheckEsp

; 1210 : 			SetPixel(lDC,lre1.right -1,lre1.bottom-1, mcolNormal1);

  048eb	8b f4		 mov	 esi, esp
  048ed	8b 55 f0	 mov	 edx, DWORD PTR _this$[ebp]
  048f0	8b 82 b0 00 00
	00		 mov	 eax, DWORD PTR [edx+176]
  048f6	50		 push	 eax
  048f7	8b 4d e8	 mov	 ecx, DWORD PTR _lre1$[ebp+12]
  048fa	83 e9 01	 sub	 ecx, 1
  048fd	51		 push	 ecx
  048fe	8b 55 e4	 mov	 edx, DWORD PTR _lre1$[ebp+8]
  04901	83 ea 01	 sub	 edx, 1
  04904	52		 push	 edx
  04905	8d 8d 70 fe ff
	ff		 lea	 ecx, DWORD PTR _lDC$188183[ebp]
  0490b	e8 00 00 00 00	 call	 ??BCDC@@QBEPAUHDC__@@XZ	; CDC::operator HDC__ *
  04910	50		 push	 eax
  04911	ff 15 00 00 00
	00		 call	 DWORD PTR __imp__SetPixel@16
  04917	3b f4		 cmp	 esi, esp
  04919	e8 00 00 00 00	 call	 __RTC_CheckEsp

; 1211 : 			SetPixel(lDC,lre1.left,lre1.bottom-1, mcolNormal1);

  0491e	8b f4		 mov	 esi, esp
  04920	8b 45 f0	 mov	 eax, DWORD PTR _this$[ebp]
  04923	8b 88 b0 00 00
	00		 mov	 ecx, DWORD PTR [eax+176]
  04929	51		 push	 ecx
  0492a	8b 55 e8	 mov	 edx, DWORD PTR _lre1$[ebp+12]
  0492d	83 ea 01	 sub	 edx, 1
  04930	52		 push	 edx
  04931	8b 45 dc	 mov	 eax, DWORD PTR _lre1$[ebp]
  04934	50		 push	 eax
  04935	8d 8d 70 fe ff
	ff		 lea	 ecx, DWORD PTR _lDC$188183[ebp]
  0493b	e8 00 00 00 00	 call	 ??BCDC@@QBEPAUHDC__@@XZ	; CDC::operator HDC__ *
  04940	50		 push	 eax
  04941	ff 15 00 00 00
	00		 call	 DWORD PTR __imp__SetPixel@16
  04947	3b f4		 cmp	 esi, esp
  04949	e8 00 00 00 00	 call	 __RTC_CheckEsp

; 1212 : 
; 1213 : 			// 三条线
; 1214 : 			if( lre2.right >= 15 )

  0494e	83 7d cc 0f	 cmp	 DWORD PTR _lre2$[ebp+8], 15 ; 0000000fH
  04952	0f 8c f0 00 00
	00		 jl	 $L188185

; 1215 : 			{
; 1216 : 				int liLift = lre2.left + (lre2.right - 11 -lre2.left)/2 + 1;

  04958	8b 45 cc	 mov	 eax, DWORD PTR _lre2$[ebp+8]
  0495b	83 e8 0b	 sub	 eax, 11			; 0000000bH
  0495e	2b 45 c4	 sub	 eax, DWORD PTR _lre2$[ebp]
  04961	99		 cdq
  04962	2b c2		 sub	 eax, edx
  04964	d1 f8		 sar	 eax, 1
  04966	8b 4d c4	 mov	 ecx, DWORD PTR _lre2$[ebp]
  04969	8d 54 01 01	 lea	 edx, DWORD PTR [ecx+eax+1]
  0496d	89 95 68 fe ff
	ff		 mov	 DWORD PTR _liLift$188186[ebp], edx

; 1217 : 
; 1218 : 				gBitMapOperate.DrawLine(lDC,mcolBK,  1, liLift, lre2.top+2, liLift, lre2.bottom-3, FALSE);

  04973	6a 00		 push	 0
  04975	8b 45 d0	 mov	 eax, DWORD PTR _lre2$[ebp+12]
  04978	83 e8 03	 sub	 eax, 3
  0497b	50		 push	 eax
  0497c	8b 8d 68 fe ff
	ff		 mov	 ecx, DWORD PTR _liLift$188186[ebp]
  04982	51		 push	 ecx
  04983	8b 55 c8	 mov	 edx, DWORD PTR _lre2$[ebp+4]
  04986	83 c2 02	 add	 edx, 2
  04989	52		 push	 edx
  0498a	8b 85 68 fe ff
	ff		 mov	 eax, DWORD PTR _liLift$188186[ebp]
  04990	50		 push	 eax
  04991	68 00 00 80 3f	 push	 1065353216		; 3f800000H
  04996	8b 4d f0	 mov	 ecx, DWORD PTR _this$[ebp]
  04999	8b 91 dc 00 00
	00		 mov	 edx, DWORD PTR [ecx+220]
  0499f	52		 push	 edx
  049a0	8d 8d 70 fe ff
	ff		 lea	 ecx, DWORD PTR _lDC$188183[ebp]
  049a6	e8 00 00 00 00	 call	 ??BCDC@@QBEPAUHDC__@@XZ	; CDC::operator HDC__ *
  049ab	50		 push	 eax
  049ac	b9 00 00 00 00	 mov	 ecx, OFFSET FLAT:?gBitMapOperate@@3VCBitMapOperate@@A
  049b1	e8 00 00 00 00	 call	 ?DrawLine@CBitMapOperate@@UAEXPAUHDC__@@KMHHHHH@Z ; CBitMapOperate::DrawLine

; 1219 : 				gBitMapOperate.DrawLine(lDC, mcolBK, 1, liLift+4, lre2.top+2, liLift+4, lre2.bottom-3, FALSE);

  049b6	6a 00		 push	 0
  049b8	8b 45 d0	 mov	 eax, DWORD PTR _lre2$[ebp+12]
  049bb	83 e8 03	 sub	 eax, 3
  049be	50		 push	 eax
  049bf	8b 8d 68 fe ff
	ff		 mov	 ecx, DWORD PTR _liLift$188186[ebp]
  049c5	83 c1 04	 add	 ecx, 4
  049c8	51		 push	 ecx
  049c9	8b 55 c8	 mov	 edx, DWORD PTR _lre2$[ebp+4]
  049cc	83 c2 02	 add	 edx, 2
  049cf	52		 push	 edx
  049d0	8b 85 68 fe ff
	ff		 mov	 eax, DWORD PTR _liLift$188186[ebp]
  049d6	83 c0 04	 add	 eax, 4
  049d9	50		 push	 eax
  049da	68 00 00 80 3f	 push	 1065353216		; 3f800000H
  049df	8b 4d f0	 mov	 ecx, DWORD PTR _this$[ebp]
  049e2	8b 91 dc 00 00
	00		 mov	 edx, DWORD PTR [ecx+220]
  049e8	52		 push	 edx
  049e9	8d 8d 70 fe ff
	ff		 lea	 ecx, DWORD PTR _lDC$188183[ebp]
  049ef	e8 00 00 00 00	 call	 ??BCDC@@QBEPAUHDC__@@XZ	; CDC::operator HDC__ *
  049f4	50		 push	 eax
  049f5	b9 00 00 00 00	 mov	 ecx, OFFSET FLAT:?gBitMapOperate@@3VCBitMapOperate@@A
  049fa	e8 00 00 00 00	 call	 ?DrawLine@CBitMapOperate@@UAEXPAUHDC__@@KMHHHHH@Z ; CBitMapOperate::DrawLine

; 1220 : 				gBitMapOperate.DrawLine(lDC,mcolBK,  1, liLift+8, lre2.top+2, liLift+8, lre2.bottom-3, FALSE);

  049ff	6a 00		 push	 0
  04a01	8b 45 d0	 mov	 eax, DWORD PTR _lre2$[ebp+12]
  04a04	83 e8 03	 sub	 eax, 3
  04a07	50		 push	 eax
  04a08	8b 8d 68 fe ff
	ff		 mov	 ecx, DWORD PTR _liLift$188186[ebp]
  04a0e	83 c1 08	 add	 ecx, 8
  04a11	51		 push	 ecx
  04a12	8b 55 c8	 mov	 edx, DWORD PTR _lre2$[ebp+4]
  04a15	83 c2 02	 add	 edx, 2
  04a18	52		 push	 edx
  04a19	8b 85 68 fe ff
	ff		 mov	 eax, DWORD PTR _liLift$188186[ebp]
  04a1f	83 c0 08	 add	 eax, 8
  04a22	50		 push	 eax
  04a23	68 00 00 80 3f	 push	 1065353216		; 3f800000H
  04a28	8b 4d f0	 mov	 ecx, DWORD PTR _this$[ebp]
  04a2b	8b 91 dc 00 00
	00		 mov	 edx, DWORD PTR [ecx+220]
  04a31	52		 push	 edx
  04a32	8d 8d 70 fe ff
	ff		 lea	 ecx, DWORD PTR _lDC$188183[ebp]
  04a38	e8 00 00 00 00	 call	 ??BCDC@@QBEPAUHDC__@@XZ	; CDC::operator HDC__ *
  04a3d	50		 push	 eax
  04a3e	b9 00 00 00 00	 mov	 ecx, OFFSET FLAT:?gBitMapOperate@@3VCBitMapOperate@@A
  04a43	e8 00 00 00 00	 call	 ?DrawLine@CBitMapOperate@@UAEXPAUHDC__@@KMHHHHH@Z ; CBitMapOperate::DrawLine
$L188185:

; 1221 : 			}
; 1222 : 
; 1223 : 		}

  04a48	c7 45 fc ff ff
	ff ff		 mov	 DWORD PTR __$EHRec$[ebp+8], -1
  04a4f	8d 8d 70 fe ff
	ff		 lea	 ecx, DWORD PTR _lDC$188183[ebp]
  04a55	e8 00 00 00 00	 call	 ??1CMemDC@@UAE@XZ	; CMemDC::~CMemDC
$L188155:

; 1224 : 		break;
; 1225 : 	}
; 1226 : }

  04a5a	52		 push	 edx
  04a5b	8b cd		 mov	 ecx, ebp
  04a5d	50		 push	 eax
  04a5e	8d 15 00 00 00
	00		 lea	 edx, DWORD PTR $L189077
  04a64	e8 00 00 00 00	 call	 @_RTC_CheckStackVars@8
  04a69	58		 pop	 eax
  04a6a	5a		 pop	 edx
  04a6b	8b 4d f4	 mov	 ecx, DWORD PTR __$EHRec$[ebp]
  04a6e	64 89 0d 00 00
	00 00		 mov	 DWORD PTR fs:__except_list, ecx
  04a75	5f		 pop	 edi
  04a76	5e		 pop	 esi
  04a77	81 c4 fc 01 00
	00		 add	 esp, 508		; 000001fcH
  04a7d	3b ec		 cmp	 ebp, esp
  04a7f	e8 00 00 00 00	 call	 __RTC_CheckEsp
  04a84	8b e5		 mov	 esp, ebp
  04a86	5d		 pop	 ebp
  04a87	c2 18 00	 ret	 24			; 00000018H
$L189077:
  04a8a	09 00 00 00	 DD	 9
  04a8e	00 00 00 00	 DD	 $L189076
$L189076:
  04a92	dc ff ff ff	 DD	 -36			; ffffffdcH
  04a96	10 00 00 00	 DD	 16			; 00000010H
  04a9a	00 00 00 00	 DD	 $L189066
  04a9e	c4 ff ff ff	 DD	 -60			; ffffffc4H
  04aa2	10 00 00 00	 DD	 16			; 00000010H
  04aa6	00 00 00 00	 DD	 $L189067
  04aaa	ac ff ff ff	 DD	 -84			; ffffffacH
  04aae	10 00 00 00	 DD	 16			; 00000010H
  04ab2	00 00 00 00	 DD	 $L189068
  04ab6	78 ff ff ff	 DD	 -136			; ffffff78H
  04aba	2c 00 00 00	 DD	 44			; 0000002cH
  04abe	00 00 00 00	 DD	 $L189069
  04ac2	44 ff ff ff	 DD	 -188			; ffffff44H
  04ac6	2c 00 00 00	 DD	 44			; 0000002cH
  04aca	00 00 00 00	 DD	 $L189070
  04ace	10 ff ff ff	 DD	 -240			; ffffff10H
  04ad2	2c 00 00 00	 DD	 44			; 0000002cH
  04ad6	00 00 00 00	 DD	 $L189071
  04ada	dc fe ff ff	 DD	 -292			; fffffedcH
  04ade	2c 00 00 00	 DD	 44			; 0000002cH
  04ae2	00 00 00 00	 DD	 $L189072
  04ae6	a8 fe ff ff	 DD	 -344			; fffffea8H
  04aea	2c 00 00 00	 DD	 44			; 0000002cH
  04aee	00 00 00 00	 DD	 $L189073
  04af2	70 fe ff ff	 DD	 -400			; fffffe70H
  04af6	2c 00 00 00	 DD	 44			; 0000002cH
  04afa	00 00 00 00	 DD	 $L189074
$L189074:
  04afe	6c		 DB	 108			; 0000006cH
  04aff	44		 DB	 68			; 00000044H
  04b00	43		 DB	 67			; 00000043H
  04b01	00		 DB	 0
$L189073:
  04b02	6c		 DB	 108			; 0000006cH
  04b03	44		 DB	 68			; 00000044H
  04b04	43		 DB	 67			; 00000043H
  04b05	00		 DB	 0
$L189072:
  04b06	6c		 DB	 108			; 0000006cH
  04b07	44		 DB	 68			; 00000044H
  04b08	43		 DB	 67			; 00000043H
  04b09	00		 DB	 0
$L189071:
  04b0a	6c		 DB	 108			; 0000006cH
  04b0b	44		 DB	 68			; 00000044H
  04b0c	43		 DB	 67			; 00000043H
  04b0d	00		 DB	 0
$L189070:
  04b0e	6c		 DB	 108			; 0000006cH
  04b0f	44		 DB	 68			; 00000044H
  04b10	43		 DB	 67			; 00000043H
  04b11	00		 DB	 0
$L189069:
  04b12	6c		 DB	 108			; 0000006cH
  04b13	44		 DB	 68			; 00000044H
  04b14	43		 DB	 67			; 00000043H
  04b15	00		 DB	 0
$L189068:
  04b16	6c		 DB	 108			; 0000006cH
  04b17	72		 DB	 114			; 00000072H
  04b18	65		 DB	 101			; 00000065H
  04b19	33		 DB	 51			; 00000033H
  04b1a	00		 DB	 0
$L189067:
  04b1b	6c		 DB	 108			; 0000006cH
  04b1c	72		 DB	 114			; 00000072H
  04b1d	65		 DB	 101			; 00000065H
  04b1e	32		 DB	 50			; 00000032H
  04b1f	00		 DB	 0
$L189066:
  04b20	6c		 DB	 108			; 0000006cH
  04b21	72		 DB	 114			; 00000072H
  04b22	65		 DB	 101			; 00000065H
  04b23	31		 DB	 49			; 00000031H
  04b24	00		 DB	 0
$L189078:
  04b25	00 00 00 00	 DD	 $L188164
  04b29	00 00 00 00	 DD	 $L188167
  04b2d	00 00 00 00	 DD	 $L188170
  04b31	00 00 00 00	 DD	 $L188173
  04b35	00 00 00 00	 DD	 $L188176
_TEXT	ENDS
text$x	SEGMENT
$L189058:
  00068	8d 8d 78 ff ff
	ff		 lea	 ecx, DWORD PTR _lDC$188165[ebp]
  0006e	e9 00 00 00 00	 jmp	 ??1CMemDC@@UAE@XZ	; CMemDC::~CMemDC
$L189059:
  00073	8d 8d 44 ff ff
	ff		 lea	 ecx, DWORD PTR _lDC$188168[ebp]
  00079	e9 00 00 00 00	 jmp	 ??1CMemDC@@UAE@XZ	; CMemDC::~CMemDC
$L189060:
  0007e	8d 8d 10 ff ff
	ff		 lea	 ecx, DWORD PTR _lDC$188171[ebp]
  00084	e9 00 00 00 00	 jmp	 ??1CMemDC@@UAE@XZ	; CMemDC::~CMemDC
$L189061:
  00089	8d 8d dc fe ff
	ff		 lea	 ecx, DWORD PTR _lDC$188174[ebp]
  0008f	e9 00 00 00 00	 jmp	 ??1CMemDC@@UAE@XZ	; CMemDC::~CMemDC
$L189062:
  00094	8d 8d a8 fe ff
	ff		 lea	 ecx, DWORD PTR _lDC$188178[ebp]
  0009a	e9 00 00 00 00	 jmp	 ??1CMemDC@@UAE@XZ	; CMemDC::~CMemDC
$L189063:
  0009f	8d 8d 70 fe ff
	ff		 lea	 ecx, DWORD PTR _lDC$188183[ebp]
  000a5	e9 00 00 00 00	 jmp	 ??1CMemDC@@UAE@XZ	; CMemDC::~CMemDC
__ehhandler$?DrawDownFace@CScrollBarEx@@AAEXPAUHDC__@@UtagRECT@@H@Z:
  000aa	b8 00 00 00 00	 mov	 eax, OFFSET FLAT:$T189065
  000af	e9 00 00 00 00	 jmp	 ___CxxFrameHandler
text$x	ENDS
?DrawDownFace@CScrollBarEx@@AAEXPAUHDC__@@UtagRECT@@H@Z ENDP ; CScrollBarEx::DrawDownFace
xdata$x	SEGMENT
$T189108 DD	0ffffffffH
	DD	FLAT:$L189087
	DD	0ffffffffH
	DD	FLAT:$L189088
	DD	0ffffffffH
	DD	FLAT:$L189089
	DD	0ffffffffH
	DD	FLAT:$L189090
	DD	0ffffffffH
	DD	FLAT:$L189091
	DD	0ffffffffH
	DD	FLAT:$L189092
$T189094 DD	019930520H
	DD	06H
	DD	FLAT:$T189108
	DD	2 DUP(00H)
	DD	2 DUP(00H)
; Function compile flags: /Odt /RTCsu
xdata$x	ENDS
_TEXT	SEGMENT
tv64 = -508						; size = 4
$T189086 = -504						; size = 16
$T189085 = -488						; size = 16
$T189084 = -472						; size = 16
$T189083 = -456						; size = 16
$T189082 = -440						; size = 16
$T189081 = -424						; size = 16
_liLift$188222 = -408					; size = 4
_lDC$188219 = -400					; size = 44
_liLift$188217 = -352					; size = 4
_lDC$188214 = -344					; size = 44
_lDC$188210 = -292					; size = 44
_lDC$188207 = -240					; size = 44
_lDC$188204 = -188					; size = 44
_lDC$188201 = -136					; size = 44
_lre3$ = -84						; size = 16
_lre2$ = -60						; size = 16
_lre1$ = -36						; size = 16
_this$ = -16						; size = 4
__$EHRec$ = -12						; size = 12
_hDC$ = 8						; size = 4
_aRect$ = 12						; size = 16
_aiType$ = 28						; size = 4
?DrawNormalFace@CScrollBarEx@@AAEXPAUHDC__@@UtagRECT@@H@Z PROC NEAR ; CScrollBarEx::DrawNormalFace
; _this$ = ecx

; 1237 : {

  04b40	55		 push	 ebp
  04b41	8b ec		 mov	 ebp, esp
  04b43	6a ff		 push	 -1
  04b45	68 00 00 00 00	 push	 __ehhandler$?DrawNormalFace@CScrollBarEx@@AAEXPAUHDC__@@UtagRECT@@H@Z
  04b4a	64 a1 00 00 00
	00		 mov	 eax, DWORD PTR fs:__except_list
  04b50	50		 push	 eax
  04b51	64 89 25 00 00
	00 00		 mov	 DWORD PTR fs:__except_list, esp
  04b58	81 ec f0 01 00
	00		 sub	 esp, 496		; 000001f0H
  04b5e	56		 push	 esi
  04b5f	57		 push	 edi
  04b60	51		 push	 ecx
  04b61	8d bd 04 fe ff
	ff		 lea	 edi, DWORD PTR [ebp-508]
  04b67	b9 7c 00 00 00	 mov	 ecx, 124		; 0000007cH
  04b6c	b8 cc cc cc cc	 mov	 eax, -858993460		; ccccccccH
  04b71	f3 ab		 rep stosd
  04b73	59		 pop	 ecx
  04b74	89 4d f0	 mov	 DWORD PTR _this$[ebp], ecx

; 1238 : 	InflateRect(&aRect, 1, 1);

  04b77	8b f4		 mov	 esi, esp
  04b79	6a 01		 push	 1
  04b7b	6a 01		 push	 1
  04b7d	8d 45 0c	 lea	 eax, DWORD PTR _aRect$[ebp]
  04b80	50		 push	 eax
  04b81	ff 15 00 00 00
	00		 call	 DWORD PTR __imp__InflateRect@12
  04b87	3b f4		 cmp	 esi, esp
  04b89	e8 00 00 00 00	 call	 __RTC_CheckEsp

; 1239 : 	RECT lre1 = aRect;

  04b8e	8b 4d 0c	 mov	 ecx, DWORD PTR _aRect$[ebp]
  04b91	89 4d dc	 mov	 DWORD PTR _lre1$[ebp], ecx
  04b94	8b 55 10	 mov	 edx, DWORD PTR _aRect$[ebp+4]
  04b97	89 55 e0	 mov	 DWORD PTR _lre1$[ebp+4], edx
  04b9a	8b 45 14	 mov	 eax, DWORD PTR _aRect$[ebp+8]
  04b9d	89 45 e4	 mov	 DWORD PTR _lre1$[ebp+8], eax
  04ba0	8b 4d 18	 mov	 ecx, DWORD PTR _aRect$[ebp+12]
  04ba3	89 4d e8	 mov	 DWORD PTR _lre1$[ebp+12], ecx

; 1240 : 	InflateRect(&aRect, -1, -1);

  04ba6	8b f4		 mov	 esi, esp
  04ba8	6a ff		 push	 -1
  04baa	6a ff		 push	 -1
  04bac	8d 55 0c	 lea	 edx, DWORD PTR _aRect$[ebp]
  04baf	52		 push	 edx
  04bb0	ff 15 00 00 00
	00		 call	 DWORD PTR __imp__InflateRect@12
  04bb6	3b f4		 cmp	 esi, esp
  04bb8	e8 00 00 00 00	 call	 __RTC_CheckEsp

; 1241 : 	RECT lre2 = aRect;

  04bbd	8b 45 0c	 mov	 eax, DWORD PTR _aRect$[ebp]
  04bc0	89 45 c4	 mov	 DWORD PTR _lre2$[ebp], eax
  04bc3	8b 4d 10	 mov	 ecx, DWORD PTR _aRect$[ebp+4]
  04bc6	89 4d c8	 mov	 DWORD PTR _lre2$[ebp+4], ecx
  04bc9	8b 55 14	 mov	 edx, DWORD PTR _aRect$[ebp+8]
  04bcc	89 55 cc	 mov	 DWORD PTR _lre2$[ebp+8], edx
  04bcf	8b 45 18	 mov	 eax, DWORD PTR _aRect$[ebp+12]
  04bd2	89 45 d0	 mov	 DWORD PTR _lre2$[ebp+12], eax

; 1242 : 	InflateRect(&aRect, -1, -1);

  04bd5	8b f4		 mov	 esi, esp
  04bd7	6a ff		 push	 -1
  04bd9	6a ff		 push	 -1
  04bdb	8d 4d 0c	 lea	 ecx, DWORD PTR _aRect$[ebp]
  04bde	51		 push	 ecx
  04bdf	ff 15 00 00 00
	00		 call	 DWORD PTR __imp__InflateRect@12
  04be5	3b f4		 cmp	 esi, esp
  04be7	e8 00 00 00 00	 call	 __RTC_CheckEsp

; 1243 : 	RECT lre3 = aRect;

  04bec	8b 55 0c	 mov	 edx, DWORD PTR _aRect$[ebp]
  04bef	89 55 ac	 mov	 DWORD PTR _lre3$[ebp], edx
  04bf2	8b 45 10	 mov	 eax, DWORD PTR _aRect$[ebp+4]
  04bf5	89 45 b0	 mov	 DWORD PTR _lre3$[ebp+4], eax
  04bf8	8b 4d 14	 mov	 ecx, DWORD PTR _aRect$[ebp+8]
  04bfb	89 4d b4	 mov	 DWORD PTR _lre3$[ebp+8], ecx
  04bfe	8b 55 18	 mov	 edx, DWORD PTR _aRect$[ebp+12]
  04c01	89 55 b8	 mov	 DWORD PTR _lre3$[ebp+12], edx

; 1244 : 
; 1245 : 	switch(aiType)

  04c04	8b 45 1c	 mov	 eax, DWORD PTR _aiType$[ebp]
  04c07	89 85 04 fe ff
	ff		 mov	 DWORD PTR tv64[ebp], eax
  04c0d	83 bd 04 fe ff
	ff 04		 cmp	 DWORD PTR tv64[ebp], 4
  04c14	0f 87 3d 11 00
	00		 ja	 $L188192
  04c1a	8b 8d 04 fe ff
	ff		 mov	 ecx, DWORD PTR tv64[ebp]
  04c20	ff 24 8d 00 00
	00 00		 jmp	 DWORD PTR $L189107[ecx*4]
$L188200:

; 1246 : 	{
; 1247 : 	case 0:		//左箭头
; 1248 : 		{
; 1249 : 			CMemDC lDC(CDC::FromHandle(hDC), &lre1);

  04c27	8d 55 dc	 lea	 edx, DWORD PTR _lre1$[ebp]
  04c2a	52		 push	 edx
  04c2b	8d 8d 58 fe ff
	ff		 lea	 ecx, DWORD PTR $T189081[ebp]
  04c31	e8 00 00 00 00	 call	 ??0CRect@@QAE@PBUtagRECT@@@Z ; CRect::CRect
  04c36	8d 85 58 fe ff
	ff		 lea	 eax, DWORD PTR $T189081[ebp]
  04c3c	50		 push	 eax
  04c3d	8b 4d 08	 mov	 ecx, DWORD PTR _hDC$[ebp]
  04c40	51		 push	 ecx
  04c41	e8 00 00 00 00	 call	 ?FromHandle@CDC@@SGPAV1@PAUHDC__@@@Z ; CDC::FromHandle
  04c46	50		 push	 eax
  04c47	8d 8d 78 ff ff
	ff		 lea	 ecx, DWORD PTR _lDC$188201[ebp]
  04c4d	e8 00 00 00 00	 call	 ??0CMemDC@@QAE@PAVCDC@@ABVCRect@@@Z ; CMemDC::CMemDC
  04c52	c7 45 fc 00 00
	00 00		 mov	 DWORD PTR __$EHRec$[ebp+8], 0

; 1250 : 			gBitMapOperate.FillRectangle(lDC, lre1, mcolFrame1, FALSE);

  04c59	6a 00		 push	 0
  04c5b	8b 55 f0	 mov	 edx, DWORD PTR _this$[ebp]
  04c5e	8b 82 c8 00 00
	00		 mov	 eax, DWORD PTR [edx+200]
  04c64	50		 push	 eax
  04c65	83 ec 10	 sub	 esp, 16			; 00000010H
  04c68	8b cc		 mov	 ecx, esp
  04c6a	8b 55 dc	 mov	 edx, DWORD PTR _lre1$[ebp]
  04c6d	89 11		 mov	 DWORD PTR [ecx], edx
  04c6f	8b 45 e0	 mov	 eax, DWORD PTR _lre1$[ebp+4]
  04c72	89 41 04	 mov	 DWORD PTR [ecx+4], eax
  04c75	8b 55 e4	 mov	 edx, DWORD PTR _lre1$[ebp+8]
  04c78	89 51 08	 mov	 DWORD PTR [ecx+8], edx
  04c7b	8b 45 e8	 mov	 eax, DWORD PTR _lre1$[ebp+12]
  04c7e	89 41 0c	 mov	 DWORD PTR [ecx+12], eax
  04c81	8d 8d 78 ff ff
	ff		 lea	 ecx, DWORD PTR _lDC$188201[ebp]
  04c87	e8 00 00 00 00	 call	 ??BCDC@@QBEPAUHDC__@@XZ	; CDC::operator HDC__ *
  04c8c	50		 push	 eax
  04c8d	b9 00 00 00 00	 mov	 ecx, OFFSET FLAT:?gBitMapOperate@@3VCBitMapOperate@@A
  04c92	e8 00 00 00 00	 call	 ?FillRectangle@CBitMapOperate@@UAEXPAUHDC__@@UtagRECT@@KH@Z ; CBitMapOperate::FillRectangle

; 1251 : 			gBitMapOperate.FillRectangle(lDC, lre2, mcolFrame2, FALSE);

  04c97	6a 00		 push	 0
  04c99	8b 4d f0	 mov	 ecx, DWORD PTR _this$[ebp]
  04c9c	8b 91 cc 00 00
	00		 mov	 edx, DWORD PTR [ecx+204]
  04ca2	52		 push	 edx
  04ca3	83 ec 10	 sub	 esp, 16			; 00000010H
  04ca6	8b c4		 mov	 eax, esp
  04ca8	8b 4d c4	 mov	 ecx, DWORD PTR _lre2$[ebp]
  04cab	89 08		 mov	 DWORD PTR [eax], ecx
  04cad	8b 55 c8	 mov	 edx, DWORD PTR _lre2$[ebp+4]
  04cb0	89 50 04	 mov	 DWORD PTR [eax+4], edx
  04cb3	8b 4d cc	 mov	 ecx, DWORD PTR _lre2$[ebp+8]
  04cb6	89 48 08	 mov	 DWORD PTR [eax+8], ecx
  04cb9	8b 55 d0	 mov	 edx, DWORD PTR _lre2$[ebp+12]
  04cbc	89 50 0c	 mov	 DWORD PTR [eax+12], edx
  04cbf	8d 8d 78 ff ff
	ff		 lea	 ecx, DWORD PTR _lDC$188201[ebp]
  04cc5	e8 00 00 00 00	 call	 ??BCDC@@QBEPAUHDC__@@XZ	; CDC::operator HDC__ *
  04cca	50		 push	 eax
  04ccb	b9 00 00 00 00	 mov	 ecx, OFFSET FLAT:?gBitMapOperate@@3VCBitMapOperate@@A
  04cd0	e8 00 00 00 00	 call	 ?FillRectangle@CBitMapOperate@@UAEXPAUHDC__@@UtagRECT@@KH@Z ; CBitMapOperate::FillRectangle

; 1252 : 			gBitMapOperate.FillRectangle(lDC, lre3, mcolBtn1,mcolBtn2,gBitMapOperate.edoVertical,FALSE);

  04cd5	6a 01		 push	 1
  04cd7	6a 00		 push	 0
  04cd9	6a 01		 push	 1
  04cdb	8b 45 f0	 mov	 eax, DWORD PTR _this$[ebp]
  04cde	8b 88 d4 00 00
	00		 mov	 ecx, DWORD PTR [eax+212]
  04ce4	51		 push	 ecx
  04ce5	8b 55 f0	 mov	 edx, DWORD PTR _this$[ebp]
  04ce8	8b 82 d0 00 00
	00		 mov	 eax, DWORD PTR [edx+208]
  04cee	50		 push	 eax
  04cef	83 ec 10	 sub	 esp, 16			; 00000010H
  04cf2	8b cc		 mov	 ecx, esp
  04cf4	8b 55 ac	 mov	 edx, DWORD PTR _lre3$[ebp]
  04cf7	89 11		 mov	 DWORD PTR [ecx], edx
  04cf9	8b 45 b0	 mov	 eax, DWORD PTR _lre3$[ebp+4]
  04cfc	89 41 04	 mov	 DWORD PTR [ecx+4], eax
  04cff	8b 55 b4	 mov	 edx, DWORD PTR _lre3$[ebp+8]
  04d02	89 51 08	 mov	 DWORD PTR [ecx+8], edx
  04d05	8b 45 b8	 mov	 eax, DWORD PTR _lre3$[ebp+12]
  04d08	89 41 0c	 mov	 DWORD PTR [ecx+12], eax
  04d0b	8d 8d 78 ff ff
	ff		 lea	 ecx, DWORD PTR _lDC$188201[ebp]
  04d11	e8 00 00 00 00	 call	 ??BCDC@@QBEPAUHDC__@@XZ	; CDC::operator HDC__ *
  04d16	50		 push	 eax
  04d17	b9 00 00 00 00	 mov	 ecx, OFFSET FLAT:?gBitMapOperate@@3VCBitMapOperate@@A
  04d1c	e8 00 00 00 00	 call	 ?FillRectangle@CBitMapOperate@@UAEXPAUHDC__@@UtagRECT@@KKW4ENUM_DrawOrientation@1@HI@Z ; CBitMapOperate::FillRectangle

; 1253 : 			SetPixel(lDC,lre1.left,lre1.top, mcolNormal1);

  04d21	8b f4		 mov	 esi, esp
  04d23	8b 4d f0	 mov	 ecx, DWORD PTR _this$[ebp]
  04d26	8b 91 b0 00 00
	00		 mov	 edx, DWORD PTR [ecx+176]
  04d2c	52		 push	 edx
  04d2d	8b 45 e0	 mov	 eax, DWORD PTR _lre1$[ebp+4]
  04d30	50		 push	 eax
  04d31	8b 4d dc	 mov	 ecx, DWORD PTR _lre1$[ebp]
  04d34	51		 push	 ecx
  04d35	8d 8d 78 ff ff
	ff		 lea	 ecx, DWORD PTR _lDC$188201[ebp]
  04d3b	e8 00 00 00 00	 call	 ??BCDC@@QBEPAUHDC__@@XZ	; CDC::operator HDC__ *
  04d40	50		 push	 eax
  04d41	ff 15 00 00 00
	00		 call	 DWORD PTR __imp__SetPixel@16
  04d47	3b f4		 cmp	 esi, esp
  04d49	e8 00 00 00 00	 call	 __RTC_CheckEsp

; 1254 : 			SetPixel(lDC,lre1.right -1,lre1.top, mcolNormal1);

  04d4e	8b f4		 mov	 esi, esp
  04d50	8b 55 f0	 mov	 edx, DWORD PTR _this$[ebp]
  04d53	8b 82 b0 00 00
	00		 mov	 eax, DWORD PTR [edx+176]
  04d59	50		 push	 eax
  04d5a	8b 4d e0	 mov	 ecx, DWORD PTR _lre1$[ebp+4]
  04d5d	51		 push	 ecx
  04d5e	8b 55 e4	 mov	 edx, DWORD PTR _lre1$[ebp+8]
  04d61	83 ea 01	 sub	 edx, 1
  04d64	52		 push	 edx
  04d65	8d 8d 78 ff ff
	ff		 lea	 ecx, DWORD PTR _lDC$188201[ebp]
  04d6b	e8 00 00 00 00	 call	 ??BCDC@@QBEPAUHDC__@@XZ	; CDC::operator HDC__ *
  04d70	50		 push	 eax
  04d71	ff 15 00 00 00
	00		 call	 DWORD PTR __imp__SetPixel@16
  04d77	3b f4		 cmp	 esi, esp
  04d79	e8 00 00 00 00	 call	 __RTC_CheckEsp

; 1255 : 			SetPixel(lDC,lre1.right -1,lre1.bottom-1, mcolNormal1);

  04d7e	8b f4		 mov	 esi, esp
  04d80	8b 45 f0	 mov	 eax, DWORD PTR _this$[ebp]
  04d83	8b 88 b0 00 00
	00		 mov	 ecx, DWORD PTR [eax+176]
  04d89	51		 push	 ecx
  04d8a	8b 55 e8	 mov	 edx, DWORD PTR _lre1$[ebp+12]
  04d8d	83 ea 01	 sub	 edx, 1
  04d90	52		 push	 edx
  04d91	8b 45 e4	 mov	 eax, DWORD PTR _lre1$[ebp+8]
  04d94	83 e8 01	 sub	 eax, 1
  04d97	50		 push	 eax
  04d98	8d 8d 78 ff ff
	ff		 lea	 ecx, DWORD PTR _lDC$188201[ebp]
  04d9e	e8 00 00 00 00	 call	 ??BCDC@@QBEPAUHDC__@@XZ	; CDC::operator HDC__ *
  04da3	50		 push	 eax
  04da4	ff 15 00 00 00
	00		 call	 DWORD PTR __imp__SetPixel@16
  04daa	3b f4		 cmp	 esi, esp
  04dac	e8 00 00 00 00	 call	 __RTC_CheckEsp

; 1256 : 			SetPixel(lDC,lre1.left,lre1.bottom-1, mcolNormal1);

  04db1	8b f4		 mov	 esi, esp
  04db3	8b 4d f0	 mov	 ecx, DWORD PTR _this$[ebp]
  04db6	8b 91 b0 00 00
	00		 mov	 edx, DWORD PTR [ecx+176]
  04dbc	52		 push	 edx
  04dbd	8b 45 e8	 mov	 eax, DWORD PTR _lre1$[ebp+12]
  04dc0	83 e8 01	 sub	 eax, 1
  04dc3	50		 push	 eax
  04dc4	8b 4d dc	 mov	 ecx, DWORD PTR _lre1$[ebp]
  04dc7	51		 push	 ecx
  04dc8	8d 8d 78 ff ff
	ff		 lea	 ecx, DWORD PTR _lDC$188201[ebp]
  04dce	e8 00 00 00 00	 call	 ??BCDC@@QBEPAUHDC__@@XZ	; CDC::operator HDC__ *
  04dd3	50		 push	 eax
  04dd4	ff 15 00 00 00
	00		 call	 DWORD PTR __imp__SetPixel@16
  04dda	3b f4		 cmp	 esi, esp
  04ddc	e8 00 00 00 00	 call	 __RTC_CheckEsp

; 1257 : 
; 1258 : 
; 1259 : 			gBitMapOperate.DrawLine(lDC, mcolFont, 1,  lre2.left+6, lre2.top+4, lre2.left+4, lre2.top+6, FALSE);

  04de1	6a 00		 push	 0
  04de3	8b 55 c8	 mov	 edx, DWORD PTR _lre2$[ebp+4]
  04de6	83 c2 06	 add	 edx, 6
  04de9	52		 push	 edx
  04dea	8b 45 c4	 mov	 eax, DWORD PTR _lre2$[ebp]
  04ded	83 c0 04	 add	 eax, 4
  04df0	50		 push	 eax
  04df1	8b 4d c8	 mov	 ecx, DWORD PTR _lre2$[ebp+4]
  04df4	83 c1 04	 add	 ecx, 4
  04df7	51		 push	 ecx
  04df8	8b 55 c4	 mov	 edx, DWORD PTR _lre2$[ebp]
  04dfb	83 c2 06	 add	 edx, 6
  04dfe	52		 push	 edx
  04dff	68 00 00 80 3f	 push	 1065353216		; 3f800000H
  04e04	8b 45 f0	 mov	 eax, DWORD PTR _this$[ebp]
  04e07	8b 88 d8 00 00
	00		 mov	 ecx, DWORD PTR [eax+216]
  04e0d	51		 push	 ecx
  04e0e	8d 8d 78 ff ff
	ff		 lea	 ecx, DWORD PTR _lDC$188201[ebp]
  04e14	e8 00 00 00 00	 call	 ??BCDC@@QBEPAUHDC__@@XZ	; CDC::operator HDC__ *
  04e19	50		 push	 eax
  04e1a	b9 00 00 00 00	 mov	 ecx, OFFSET FLAT:?gBitMapOperate@@3VCBitMapOperate@@A
  04e1f	e8 00 00 00 00	 call	 ?DrawLine@CBitMapOperate@@UAEXPAUHDC__@@KMHHHHH@Z ; CBitMapOperate::DrawLine

; 1260 : 			gBitMapOperate.DrawLine(lDC, mcolFont, 1,  lre2.left+4, lre2.top+6, lre2.left+7, lre2.top+9, FALSE);

  04e24	6a 00		 push	 0
  04e26	8b 55 c8	 mov	 edx, DWORD PTR _lre2$[ebp+4]
  04e29	83 c2 09	 add	 edx, 9
  04e2c	52		 push	 edx
  04e2d	8b 45 c4	 mov	 eax, DWORD PTR _lre2$[ebp]
  04e30	83 c0 07	 add	 eax, 7
  04e33	50		 push	 eax
  04e34	8b 4d c8	 mov	 ecx, DWORD PTR _lre2$[ebp+4]
  04e37	83 c1 06	 add	 ecx, 6
  04e3a	51		 push	 ecx
  04e3b	8b 55 c4	 mov	 edx, DWORD PTR _lre2$[ebp]
  04e3e	83 c2 04	 add	 edx, 4
  04e41	52		 push	 edx
  04e42	68 00 00 80 3f	 push	 1065353216		; 3f800000H
  04e47	8b 45 f0	 mov	 eax, DWORD PTR _this$[ebp]
  04e4a	8b 88 d8 00 00
	00		 mov	 ecx, DWORD PTR [eax+216]
  04e50	51		 push	 ecx
  04e51	8d 8d 78 ff ff
	ff		 lea	 ecx, DWORD PTR _lDC$188201[ebp]
  04e57	e8 00 00 00 00	 call	 ??BCDC@@QBEPAUHDC__@@XZ	; CDC::operator HDC__ *
  04e5c	50		 push	 eax
  04e5d	b9 00 00 00 00	 mov	 ecx, OFFSET FLAT:?gBitMapOperate@@3VCBitMapOperate@@A
  04e62	e8 00 00 00 00	 call	 ?DrawLine@CBitMapOperate@@UAEXPAUHDC__@@KMHHHHH@Z ; CBitMapOperate::DrawLine

; 1261 : 			gBitMapOperate.DrawLine(lDC, mcolFont, 1,  lre2.left+6, lre2.top+3, lre2.left+3, lre2.top+6, FALSE);

  04e67	6a 00		 push	 0
  04e69	8b 55 c8	 mov	 edx, DWORD PTR _lre2$[ebp+4]
  04e6c	83 c2 06	 add	 edx, 6
  04e6f	52		 push	 edx
  04e70	8b 45 c4	 mov	 eax, DWORD PTR _lre2$[ebp]
  04e73	83 c0 03	 add	 eax, 3
  04e76	50		 push	 eax
  04e77	8b 4d c8	 mov	 ecx, DWORD PTR _lre2$[ebp+4]
  04e7a	83 c1 03	 add	 ecx, 3
  04e7d	51		 push	 ecx
  04e7e	8b 55 c4	 mov	 edx, DWORD PTR _lre2$[ebp]
  04e81	83 c2 06	 add	 edx, 6
  04e84	52		 push	 edx
  04e85	68 00 00 80 3f	 push	 1065353216		; 3f800000H
  04e8a	8b 45 f0	 mov	 eax, DWORD PTR _this$[ebp]
  04e8d	8b 88 d8 00 00
	00		 mov	 ecx, DWORD PTR [eax+216]
  04e93	51		 push	 ecx
  04e94	8d 8d 78 ff ff
	ff		 lea	 ecx, DWORD PTR _lDC$188201[ebp]
  04e9a	e8 00 00 00 00	 call	 ??BCDC@@QBEPAUHDC__@@XZ	; CDC::operator HDC__ *
  04e9f	50		 push	 eax
  04ea0	b9 00 00 00 00	 mov	 ecx, OFFSET FLAT:?gBitMapOperate@@3VCBitMapOperate@@A
  04ea5	e8 00 00 00 00	 call	 ?DrawLine@CBitMapOperate@@UAEXPAUHDC__@@KMHHHHH@Z ; CBitMapOperate::DrawLine

; 1262 : 			gBitMapOperate.DrawLine(lDC, mcolFont, 1,  lre2.left+3, lre2.top+6, lre2.left+7, lre2.top+10, FALSE);

  04eaa	6a 00		 push	 0
  04eac	8b 55 c8	 mov	 edx, DWORD PTR _lre2$[ebp+4]
  04eaf	83 c2 0a	 add	 edx, 10			; 0000000aH
  04eb2	52		 push	 edx
  04eb3	8b 45 c4	 mov	 eax, DWORD PTR _lre2$[ebp]
  04eb6	83 c0 07	 add	 eax, 7
  04eb9	50		 push	 eax
  04eba	8b 4d c8	 mov	 ecx, DWORD PTR _lre2$[ebp+4]
  04ebd	83 c1 06	 add	 ecx, 6
  04ec0	51		 push	 ecx
  04ec1	8b 55 c4	 mov	 edx, DWORD PTR _lre2$[ebp]
  04ec4	83 c2 03	 add	 edx, 3
  04ec7	52		 push	 edx
  04ec8	68 00 00 80 3f	 push	 1065353216		; 3f800000H
  04ecd	8b 45 f0	 mov	 eax, DWORD PTR _this$[ebp]
  04ed0	8b 88 d8 00 00
	00		 mov	 ecx, DWORD PTR [eax+216]
  04ed6	51		 push	 ecx
  04ed7	8d 8d 78 ff ff
	ff		 lea	 ecx, DWORD PTR _lDC$188201[ebp]
  04edd	e8 00 00 00 00	 call	 ??BCDC@@QBEPAUHDC__@@XZ	; CDC::operator HDC__ *
  04ee2	50		 push	 eax
  04ee3	b9 00 00 00 00	 mov	 ecx, OFFSET FLAT:?gBitMapOperate@@3VCBitMapOperate@@A
  04ee8	e8 00 00 00 00	 call	 ?DrawLine@CBitMapOperate@@UAEXPAUHDC__@@KMHHHHH@Z ; CBitMapOperate::DrawLine

; 1263 : 
; 1264 : 		}

  04eed	c7 45 fc ff ff
	ff ff		 mov	 DWORD PTR __$EHRec$[ebp+8], -1
  04ef4	8d 8d 78 ff ff
	ff		 lea	 ecx, DWORD PTR _lDC$188201[ebp]
  04efa	e8 00 00 00 00	 call	 ??1CMemDC@@UAE@XZ	; CMemDC::~CMemDC

; 1265 : 		break;

  04eff	e9 53 0e 00 00	 jmp	 $L188192
$L188203:

; 1266 : 	case 1:		//右箭头
; 1267 : 		{
; 1268 : 			CMemDC lDC(CDC::FromHandle(hDC), &lre1);

  04f04	8d 55 dc	 lea	 edx, DWORD PTR _lre1$[ebp]
  04f07	52		 push	 edx
  04f08	8d 8d 48 fe ff
	ff		 lea	 ecx, DWORD PTR $T189082[ebp]
  04f0e	e8 00 00 00 00	 call	 ??0CRect@@QAE@PBUtagRECT@@@Z ; CRect::CRect
  04f13	8d 85 48 fe ff
	ff		 lea	 eax, DWORD PTR $T189082[ebp]
  04f19	50		 push	 eax
  04f1a	8b 4d 08	 mov	 ecx, DWORD PTR _hDC$[ebp]
  04f1d	51		 push	 ecx
  04f1e	e8 00 00 00 00	 call	 ?FromHandle@CDC@@SGPAV1@PAUHDC__@@@Z ; CDC::FromHandle
  04f23	50		 push	 eax
  04f24	8d 8d 44 ff ff
	ff		 lea	 ecx, DWORD PTR _lDC$188204[ebp]
  04f2a	e8 00 00 00 00	 call	 ??0CMemDC@@QAE@PAVCDC@@ABVCRect@@@Z ; CMemDC::CMemDC
  04f2f	c7 45 fc 01 00
	00 00		 mov	 DWORD PTR __$EHRec$[ebp+8], 1

; 1269 : 			gBitMapOperate.FillRectangle(lDC, lre1, mcolFrame1, FALSE);

  04f36	6a 00		 push	 0
  04f38	8b 55 f0	 mov	 edx, DWORD PTR _this$[ebp]
  04f3b	8b 82 c8 00 00
	00		 mov	 eax, DWORD PTR [edx+200]
  04f41	50		 push	 eax
  04f42	83 ec 10	 sub	 esp, 16			; 00000010H
  04f45	8b cc		 mov	 ecx, esp
  04f47	8b 55 dc	 mov	 edx, DWORD PTR _lre1$[ebp]
  04f4a	89 11		 mov	 DWORD PTR [ecx], edx
  04f4c	8b 45 e0	 mov	 eax, DWORD PTR _lre1$[ebp+4]
  04f4f	89 41 04	 mov	 DWORD PTR [ecx+4], eax
  04f52	8b 55 e4	 mov	 edx, DWORD PTR _lre1$[ebp+8]
  04f55	89 51 08	 mov	 DWORD PTR [ecx+8], edx
  04f58	8b 45 e8	 mov	 eax, DWORD PTR _lre1$[ebp+12]
  04f5b	89 41 0c	 mov	 DWORD PTR [ecx+12], eax
  04f5e	8d 8d 44 ff ff
	ff		 lea	 ecx, DWORD PTR _lDC$188204[ebp]
  04f64	e8 00 00 00 00	 call	 ??BCDC@@QBEPAUHDC__@@XZ	; CDC::operator HDC__ *
  04f69	50		 push	 eax
  04f6a	b9 00 00 00 00	 mov	 ecx, OFFSET FLAT:?gBitMapOperate@@3VCBitMapOperate@@A
  04f6f	e8 00 00 00 00	 call	 ?FillRectangle@CBitMapOperate@@UAEXPAUHDC__@@UtagRECT@@KH@Z ; CBitMapOperate::FillRectangle

; 1270 : 			gBitMapOperate.FillRectangle(lDC, lre2, mcolFrame2, FALSE);

  04f74	6a 00		 push	 0
  04f76	8b 4d f0	 mov	 ecx, DWORD PTR _this$[ebp]
  04f79	8b 91 cc 00 00
	00		 mov	 edx, DWORD PTR [ecx+204]
  04f7f	52		 push	 edx
  04f80	83 ec 10	 sub	 esp, 16			; 00000010H
  04f83	8b c4		 mov	 eax, esp
  04f85	8b 4d c4	 mov	 ecx, DWORD PTR _lre2$[ebp]
  04f88	89 08		 mov	 DWORD PTR [eax], ecx
  04f8a	8b 55 c8	 mov	 edx, DWORD PTR _lre2$[ebp+4]
  04f8d	89 50 04	 mov	 DWORD PTR [eax+4], edx
  04f90	8b 4d cc	 mov	 ecx, DWORD PTR _lre2$[ebp+8]
  04f93	89 48 08	 mov	 DWORD PTR [eax+8], ecx
  04f96	8b 55 d0	 mov	 edx, DWORD PTR _lre2$[ebp+12]
  04f99	89 50 0c	 mov	 DWORD PTR [eax+12], edx
  04f9c	8d 8d 44 ff ff
	ff		 lea	 ecx, DWORD PTR _lDC$188204[ebp]
  04fa2	e8 00 00 00 00	 call	 ??BCDC@@QBEPAUHDC__@@XZ	; CDC::operator HDC__ *
  04fa7	50		 push	 eax
  04fa8	b9 00 00 00 00	 mov	 ecx, OFFSET FLAT:?gBitMapOperate@@3VCBitMapOperate@@A
  04fad	e8 00 00 00 00	 call	 ?FillRectangle@CBitMapOperate@@UAEXPAUHDC__@@UtagRECT@@KH@Z ; CBitMapOperate::FillRectangle

; 1271 : 			gBitMapOperate.FillRectangle(lDC, lre3, mcolBtn2,mcolBtn1,gBitMapOperate.edoVertical,FALSE);

  04fb2	6a 01		 push	 1
  04fb4	6a 00		 push	 0
  04fb6	6a 01		 push	 1
  04fb8	8b 45 f0	 mov	 eax, DWORD PTR _this$[ebp]
  04fbb	8b 88 d0 00 00
	00		 mov	 ecx, DWORD PTR [eax+208]
  04fc1	51		 push	 ecx
  04fc2	8b 55 f0	 mov	 edx, DWORD PTR _this$[ebp]
  04fc5	8b 82 d4 00 00
	00		 mov	 eax, DWORD PTR [edx+212]
  04fcb	50		 push	 eax
  04fcc	83 ec 10	 sub	 esp, 16			; 00000010H
  04fcf	8b cc		 mov	 ecx, esp
  04fd1	8b 55 ac	 mov	 edx, DWORD PTR _lre3$[ebp]
  04fd4	89 11		 mov	 DWORD PTR [ecx], edx
  04fd6	8b 45 b0	 mov	 eax, DWORD PTR _lre3$[ebp+4]
  04fd9	89 41 04	 mov	 DWORD PTR [ecx+4], eax
  04fdc	8b 55 b4	 mov	 edx, DWORD PTR _lre3$[ebp+8]
  04fdf	89 51 08	 mov	 DWORD PTR [ecx+8], edx
  04fe2	8b 45 b8	 mov	 eax, DWORD PTR _lre3$[ebp+12]
  04fe5	89 41 0c	 mov	 DWORD PTR [ecx+12], eax
  04fe8	8d 8d 44 ff ff
	ff		 lea	 ecx, DWORD PTR _lDC$188204[ebp]
  04fee	e8 00 00 00 00	 call	 ??BCDC@@QBEPAUHDC__@@XZ	; CDC::operator HDC__ *
  04ff3	50		 push	 eax
  04ff4	b9 00 00 00 00	 mov	 ecx, OFFSET FLAT:?gBitMapOperate@@3VCBitMapOperate@@A
  04ff9	e8 00 00 00 00	 call	 ?FillRectangle@CBitMapOperate@@UAEXPAUHDC__@@UtagRECT@@KKW4ENUM_DrawOrientation@1@HI@Z ; CBitMapOperate::FillRectangle

; 1272 : 			
; 1273 : 			SetPixel(lDC,lre1.left,lre1.top, mcolNormal1);

  04ffe	8b f4		 mov	 esi, esp
  05000	8b 4d f0	 mov	 ecx, DWORD PTR _this$[ebp]
  05003	8b 91 b0 00 00
	00		 mov	 edx, DWORD PTR [ecx+176]
  05009	52		 push	 edx
  0500a	8b 45 e0	 mov	 eax, DWORD PTR _lre1$[ebp+4]
  0500d	50		 push	 eax
  0500e	8b 4d dc	 mov	 ecx, DWORD PTR _lre1$[ebp]
  05011	51		 push	 ecx
  05012	8d 8d 44 ff ff
	ff		 lea	 ecx, DWORD PTR _lDC$188204[ebp]
  05018	e8 00 00 00 00	 call	 ??BCDC@@QBEPAUHDC__@@XZ	; CDC::operator HDC__ *
  0501d	50		 push	 eax
  0501e	ff 15 00 00 00
	00		 call	 DWORD PTR __imp__SetPixel@16
  05024	3b f4		 cmp	 esi, esp
  05026	e8 00 00 00 00	 call	 __RTC_CheckEsp

; 1274 : 			SetPixel(lDC,lre1.right -1,lre1.top, mcolNormal1);

  0502b	8b f4		 mov	 esi, esp
  0502d	8b 55 f0	 mov	 edx, DWORD PTR _this$[ebp]
  05030	8b 82 b0 00 00
	00		 mov	 eax, DWORD PTR [edx+176]
  05036	50		 push	 eax
  05037	8b 4d e0	 mov	 ecx, DWORD PTR _lre1$[ebp+4]
  0503a	51		 push	 ecx
  0503b	8b 55 e4	 mov	 edx, DWORD PTR _lre1$[ebp+8]
  0503e	83 ea 01	 sub	 edx, 1
  05041	52		 push	 edx
  05042	8d 8d 44 ff ff
	ff		 lea	 ecx, DWORD PTR _lDC$188204[ebp]
  05048	e8 00 00 00 00	 call	 ??BCDC@@QBEPAUHDC__@@XZ	; CDC::operator HDC__ *
  0504d	50		 push	 eax
  0504e	ff 15 00 00 00
	00		 call	 DWORD PTR __imp__SetPixel@16
  05054	3b f4		 cmp	 esi, esp
  05056	e8 00 00 00 00	 call	 __RTC_CheckEsp

; 1275 : 			SetPixel(lDC,lre1.right -1,lre1.bottom-1, mcolNormal1);

  0505b	8b f4		 mov	 esi, esp
  0505d	8b 45 f0	 mov	 eax, DWORD PTR _this$[ebp]
  05060	8b 88 b0 00 00
	00		 mov	 ecx, DWORD PTR [eax+176]
  05066	51		 push	 ecx
  05067	8b 55 e8	 mov	 edx, DWORD PTR _lre1$[ebp+12]
  0506a	83 ea 01	 sub	 edx, 1
  0506d	52		 push	 edx
  0506e	8b 45 e4	 mov	 eax, DWORD PTR _lre1$[ebp+8]
  05071	83 e8 01	 sub	 eax, 1
  05074	50		 push	 eax
  05075	8d 8d 44 ff ff
	ff		 lea	 ecx, DWORD PTR _lDC$188204[ebp]
  0507b	e8 00 00 00 00	 call	 ??BCDC@@QBEPAUHDC__@@XZ	; CDC::operator HDC__ *
  05080	50		 push	 eax
  05081	ff 15 00 00 00
	00		 call	 DWORD PTR __imp__SetPixel@16
  05087	3b f4		 cmp	 esi, esp
  05089	e8 00 00 00 00	 call	 __RTC_CheckEsp

; 1276 : 			SetPixel(lDC,lre1.left,lre1.bottom-1, mcolNormal1);

  0508e	8b f4		 mov	 esi, esp
  05090	8b 4d f0	 mov	 ecx, DWORD PTR _this$[ebp]
  05093	8b 91 b0 00 00
	00		 mov	 edx, DWORD PTR [ecx+176]
  05099	52		 push	 edx
  0509a	8b 45 e8	 mov	 eax, DWORD PTR _lre1$[ebp+12]
  0509d	83 e8 01	 sub	 eax, 1
  050a0	50		 push	 eax
  050a1	8b 4d dc	 mov	 ecx, DWORD PTR _lre1$[ebp]
  050a4	51		 push	 ecx
  050a5	8d 8d 44 ff ff
	ff		 lea	 ecx, DWORD PTR _lDC$188204[ebp]
  050ab	e8 00 00 00 00	 call	 ??BCDC@@QBEPAUHDC__@@XZ	; CDC::operator HDC__ *
  050b0	50		 push	 eax
  050b1	ff 15 00 00 00
	00		 call	 DWORD PTR __imp__SetPixel@16
  050b7	3b f4		 cmp	 esi, esp
  050b9	e8 00 00 00 00	 call	 __RTC_CheckEsp

; 1277 : 
; 1278 : 			gBitMapOperate.DrawLine(lDC, mcolFont, 1,  lre2.left+6, lre2.top+4, lre2.left+8, lre2.top+6, FALSE);

  050be	6a 00		 push	 0
  050c0	8b 55 c8	 mov	 edx, DWORD PTR _lre2$[ebp+4]
  050c3	83 c2 06	 add	 edx, 6
  050c6	52		 push	 edx
  050c7	8b 45 c4	 mov	 eax, DWORD PTR _lre2$[ebp]
  050ca	83 c0 08	 add	 eax, 8
  050cd	50		 push	 eax
  050ce	8b 4d c8	 mov	 ecx, DWORD PTR _lre2$[ebp+4]
  050d1	83 c1 04	 add	 ecx, 4
  050d4	51		 push	 ecx
  050d5	8b 55 c4	 mov	 edx, DWORD PTR _lre2$[ebp]
  050d8	83 c2 06	 add	 edx, 6
  050db	52		 push	 edx
  050dc	68 00 00 80 3f	 push	 1065353216		; 3f800000H
  050e1	8b 45 f0	 mov	 eax, DWORD PTR _this$[ebp]
  050e4	8b 88 d8 00 00
	00		 mov	 ecx, DWORD PTR [eax+216]
  050ea	51		 push	 ecx
  050eb	8d 8d 44 ff ff
	ff		 lea	 ecx, DWORD PTR _lDC$188204[ebp]
  050f1	e8 00 00 00 00	 call	 ??BCDC@@QBEPAUHDC__@@XZ	; CDC::operator HDC__ *
  050f6	50		 push	 eax
  050f7	b9 00 00 00 00	 mov	 ecx, OFFSET FLAT:?gBitMapOperate@@3VCBitMapOperate@@A
  050fc	e8 00 00 00 00	 call	 ?DrawLine@CBitMapOperate@@UAEXPAUHDC__@@KMHHHHH@Z ; CBitMapOperate::DrawLine

; 1279 : 			gBitMapOperate.DrawLine(lDC, mcolFont, 1,  lre2.left+8, lre2.top+6, lre2.left+5, lre2.top+9, FALSE);

  05101	6a 00		 push	 0
  05103	8b 55 c8	 mov	 edx, DWORD PTR _lre2$[ebp+4]
  05106	83 c2 09	 add	 edx, 9
  05109	52		 push	 edx
  0510a	8b 45 c4	 mov	 eax, DWORD PTR _lre2$[ebp]
  0510d	83 c0 05	 add	 eax, 5
  05110	50		 push	 eax
  05111	8b 4d c8	 mov	 ecx, DWORD PTR _lre2$[ebp+4]
  05114	83 c1 06	 add	 ecx, 6
  05117	51		 push	 ecx
  05118	8b 55 c4	 mov	 edx, DWORD PTR _lre2$[ebp]
  0511b	83 c2 08	 add	 edx, 8
  0511e	52		 push	 edx
  0511f	68 00 00 80 3f	 push	 1065353216		; 3f800000H
  05124	8b 45 f0	 mov	 eax, DWORD PTR _this$[ebp]
  05127	8b 88 d8 00 00
	00		 mov	 ecx, DWORD PTR [eax+216]
  0512d	51		 push	 ecx
  0512e	8d 8d 44 ff ff
	ff		 lea	 ecx, DWORD PTR _lDC$188204[ebp]
  05134	e8 00 00 00 00	 call	 ??BCDC@@QBEPAUHDC__@@XZ	; CDC::operator HDC__ *
  05139	50		 push	 eax
  0513a	b9 00 00 00 00	 mov	 ecx, OFFSET FLAT:?gBitMapOperate@@3VCBitMapOperate@@A
  0513f	e8 00 00 00 00	 call	 ?DrawLine@CBitMapOperate@@UAEXPAUHDC__@@KMHHHHH@Z ; CBitMapOperate::DrawLine

; 1280 : 			gBitMapOperate.DrawLine(lDC, mcolFont, 1,  lre2.left+6, lre2.top+3, lre2.left+9, lre2.top+6, FALSE);

  05144	6a 00		 push	 0
  05146	8b 55 c8	 mov	 edx, DWORD PTR _lre2$[ebp+4]
  05149	83 c2 06	 add	 edx, 6
  0514c	52		 push	 edx
  0514d	8b 45 c4	 mov	 eax, DWORD PTR _lre2$[ebp]
  05150	83 c0 09	 add	 eax, 9
  05153	50		 push	 eax
  05154	8b 4d c8	 mov	 ecx, DWORD PTR _lre2$[ebp+4]
  05157	83 c1 03	 add	 ecx, 3
  0515a	51		 push	 ecx
  0515b	8b 55 c4	 mov	 edx, DWORD PTR _lre2$[ebp]
  0515e	83 c2 06	 add	 edx, 6
  05161	52		 push	 edx
  05162	68 00 00 80 3f	 push	 1065353216		; 3f800000H
  05167	8b 45 f0	 mov	 eax, DWORD PTR _this$[ebp]
  0516a	8b 88 d8 00 00
	00		 mov	 ecx, DWORD PTR [eax+216]
  05170	51		 push	 ecx
  05171	8d 8d 44 ff ff
	ff		 lea	 ecx, DWORD PTR _lDC$188204[ebp]
  05177	e8 00 00 00 00	 call	 ??BCDC@@QBEPAUHDC__@@XZ	; CDC::operator HDC__ *
  0517c	50		 push	 eax
  0517d	b9 00 00 00 00	 mov	 ecx, OFFSET FLAT:?gBitMapOperate@@3VCBitMapOperate@@A
  05182	e8 00 00 00 00	 call	 ?DrawLine@CBitMapOperate@@UAEXPAUHDC__@@KMHHHHH@Z ; CBitMapOperate::DrawLine

; 1281 : 			gBitMapOperate.DrawLine(lDC, mcolFont, 1,  lre2.left+9, lre2.top+6, lre2.left+5, lre2.top+10, FALSE);

  05187	6a 00		 push	 0
  05189	8b 55 c8	 mov	 edx, DWORD PTR _lre2$[ebp+4]
  0518c	83 c2 0a	 add	 edx, 10			; 0000000aH
  0518f	52		 push	 edx
  05190	8b 45 c4	 mov	 eax, DWORD PTR _lre2$[ebp]
  05193	83 c0 05	 add	 eax, 5
  05196	50		 push	 eax
  05197	8b 4d c8	 mov	 ecx, DWORD PTR _lre2$[ebp+4]
  0519a	83 c1 06	 add	 ecx, 6
  0519d	51		 push	 ecx
  0519e	8b 55 c4	 mov	 edx, DWORD PTR _lre2$[ebp]
  051a1	83 c2 09	 add	 edx, 9
  051a4	52		 push	 edx
  051a5	68 00 00 80 3f	 push	 1065353216		; 3f800000H
  051aa	8b 45 f0	 mov	 eax, DWORD PTR _this$[ebp]
  051ad	8b 88 d8 00 00
	00		 mov	 ecx, DWORD PTR [eax+216]
  051b3	51		 push	 ecx
  051b4	8d 8d 44 ff ff
	ff		 lea	 ecx, DWORD PTR _lDC$188204[ebp]
  051ba	e8 00 00 00 00	 call	 ??BCDC@@QBEPAUHDC__@@XZ	; CDC::operator HDC__ *
  051bf	50		 push	 eax
  051c0	b9 00 00 00 00	 mov	 ecx, OFFSET FLAT:?gBitMapOperate@@3VCBitMapOperate@@A
  051c5	e8 00 00 00 00	 call	 ?DrawLine@CBitMapOperate@@UAEXPAUHDC__@@KMHHHHH@Z ; CBitMapOperate::DrawLine

; 1282 : 
; 1283 : 		}

  051ca	c7 45 fc ff ff
	ff ff		 mov	 DWORD PTR __$EHRec$[ebp+8], -1
  051d1	8d 8d 44 ff ff
	ff		 lea	 ecx, DWORD PTR _lDC$188204[ebp]
  051d7	e8 00 00 00 00	 call	 ??1CMemDC@@UAE@XZ	; CMemDC::~CMemDC

; 1284 : 		break;

  051dc	e9 76 0b 00 00	 jmp	 $L188192
$L188206:

; 1285 : 	case 2:		//上箭头
; 1286 : 		{
; 1287 : 
; 1288 : 			CMemDC lDC(CDC::FromHandle(hDC), &lre1);

  051e1	8d 55 dc	 lea	 edx, DWORD PTR _lre1$[ebp]
  051e4	52		 push	 edx
  051e5	8d 8d 38 fe ff
	ff		 lea	 ecx, DWORD PTR $T189083[ebp]
  051eb	e8 00 00 00 00	 call	 ??0CRect@@QAE@PBUtagRECT@@@Z ; CRect::CRect
  051f0	8d 85 38 fe ff
	ff		 lea	 eax, DWORD PTR $T189083[ebp]
  051f6	50		 push	 eax
  051f7	8b 4d 08	 mov	 ecx, DWORD PTR _hDC$[ebp]
  051fa	51		 push	 ecx
  051fb	e8 00 00 00 00	 call	 ?FromHandle@CDC@@SGPAV1@PAUHDC__@@@Z ; CDC::FromHandle
  05200	50		 push	 eax
  05201	8d 8d 10 ff ff
	ff		 lea	 ecx, DWORD PTR _lDC$188207[ebp]
  05207	e8 00 00 00 00	 call	 ??0CMemDC@@QAE@PAVCDC@@ABVCRect@@@Z ; CMemDC::CMemDC
  0520c	c7 45 fc 02 00
	00 00		 mov	 DWORD PTR __$EHRec$[ebp+8], 2

; 1289 : 			gBitMapOperate.FillRectangle(lDC, lre1, mcolFrame1, FALSE);

  05213	6a 00		 push	 0
  05215	8b 55 f0	 mov	 edx, DWORD PTR _this$[ebp]
  05218	8b 82 c8 00 00
	00		 mov	 eax, DWORD PTR [edx+200]
  0521e	50		 push	 eax
  0521f	83 ec 10	 sub	 esp, 16			; 00000010H
  05222	8b cc		 mov	 ecx, esp
  05224	8b 55 dc	 mov	 edx, DWORD PTR _lre1$[ebp]
  05227	89 11		 mov	 DWORD PTR [ecx], edx
  05229	8b 45 e0	 mov	 eax, DWORD PTR _lre1$[ebp+4]
  0522c	89 41 04	 mov	 DWORD PTR [ecx+4], eax
  0522f	8b 55 e4	 mov	 edx, DWORD PTR _lre1$[ebp+8]
  05232	89 51 08	 mov	 DWORD PTR [ecx+8], edx
  05235	8b 45 e8	 mov	 eax, DWORD PTR _lre1$[ebp+12]
  05238	89 41 0c	 mov	 DWORD PTR [ecx+12], eax
  0523b	8d 8d 10 ff ff
	ff		 lea	 ecx, DWORD PTR _lDC$188207[ebp]
  05241	e8 00 00 00 00	 call	 ??BCDC@@QBEPAUHDC__@@XZ	; CDC::operator HDC__ *
  05246	50		 push	 eax
  05247	b9 00 00 00 00	 mov	 ecx, OFFSET FLAT:?gBitMapOperate@@3VCBitMapOperate@@A
  0524c	e8 00 00 00 00	 call	 ?FillRectangle@CBitMapOperate@@UAEXPAUHDC__@@UtagRECT@@KH@Z ; CBitMapOperate::FillRectangle

; 1290 : 			gBitMapOperate.FillRectangle(lDC, lre2, mcolFrame2, FALSE);

  05251	6a 00		 push	 0
  05253	8b 4d f0	 mov	 ecx, DWORD PTR _this$[ebp]
  05256	8b 91 cc 00 00
	00		 mov	 edx, DWORD PTR [ecx+204]
  0525c	52		 push	 edx
  0525d	83 ec 10	 sub	 esp, 16			; 00000010H
  05260	8b c4		 mov	 eax, esp
  05262	8b 4d c4	 mov	 ecx, DWORD PTR _lre2$[ebp]
  05265	89 08		 mov	 DWORD PTR [eax], ecx
  05267	8b 55 c8	 mov	 edx, DWORD PTR _lre2$[ebp+4]
  0526a	89 50 04	 mov	 DWORD PTR [eax+4], edx
  0526d	8b 4d cc	 mov	 ecx, DWORD PTR _lre2$[ebp+8]
  05270	89 48 08	 mov	 DWORD PTR [eax+8], ecx
  05273	8b 55 d0	 mov	 edx, DWORD PTR _lre2$[ebp+12]
  05276	89 50 0c	 mov	 DWORD PTR [eax+12], edx
  05279	8d 8d 10 ff ff
	ff		 lea	 ecx, DWORD PTR _lDC$188207[ebp]
  0527f	e8 00 00 00 00	 call	 ??BCDC@@QBEPAUHDC__@@XZ	; CDC::operator HDC__ *
  05284	50		 push	 eax
  05285	b9 00 00 00 00	 mov	 ecx, OFFSET FLAT:?gBitMapOperate@@3VCBitMapOperate@@A
  0528a	e8 00 00 00 00	 call	 ?FillRectangle@CBitMapOperate@@UAEXPAUHDC__@@UtagRECT@@KH@Z ; CBitMapOperate::FillRectangle

; 1291 : 			gBitMapOperate.FillRectangle(lDC, lre3, mcolBtn1,mcolBtn2,gBitMapOperate.edoVertical,FALSE);

  0528f	6a 01		 push	 1
  05291	6a 00		 push	 0
  05293	6a 01		 push	 1
  05295	8b 45 f0	 mov	 eax, DWORD PTR _this$[ebp]
  05298	8b 88 d4 00 00
	00		 mov	 ecx, DWORD PTR [eax+212]
  0529e	51		 push	 ecx
  0529f	8b 55 f0	 mov	 edx, DWORD PTR _this$[ebp]
  052a2	8b 82 d0 00 00
	00		 mov	 eax, DWORD PTR [edx+208]
  052a8	50		 push	 eax
  052a9	83 ec 10	 sub	 esp, 16			; 00000010H
  052ac	8b cc		 mov	 ecx, esp
  052ae	8b 55 ac	 mov	 edx, DWORD PTR _lre3$[ebp]
  052b1	89 11		 mov	 DWORD PTR [ecx], edx
  052b3	8b 45 b0	 mov	 eax, DWORD PTR _lre3$[ebp+4]
  052b6	89 41 04	 mov	 DWORD PTR [ecx+4], eax
  052b9	8b 55 b4	 mov	 edx, DWORD PTR _lre3$[ebp+8]
  052bc	89 51 08	 mov	 DWORD PTR [ecx+8], edx
  052bf	8b 45 b8	 mov	 eax, DWORD PTR _lre3$[ebp+12]
  052c2	89 41 0c	 mov	 DWORD PTR [ecx+12], eax
  052c5	8d 8d 10 ff ff
	ff		 lea	 ecx, DWORD PTR _lDC$188207[ebp]
  052cb	e8 00 00 00 00	 call	 ??BCDC@@QBEPAUHDC__@@XZ	; CDC::operator HDC__ *
  052d0	50		 push	 eax
  052d1	b9 00 00 00 00	 mov	 ecx, OFFSET FLAT:?gBitMapOperate@@3VCBitMapOperate@@A
  052d6	e8 00 00 00 00	 call	 ?FillRectangle@CBitMapOperate@@UAEXPAUHDC__@@UtagRECT@@KKW4ENUM_DrawOrientation@1@HI@Z ; CBitMapOperate::FillRectangle

; 1292 : 
; 1293 : 			SetPixel(lDC,lre1.left,lre1.top, mcolNormal1);

  052db	8b f4		 mov	 esi, esp
  052dd	8b 4d f0	 mov	 ecx, DWORD PTR _this$[ebp]
  052e0	8b 91 b0 00 00
	00		 mov	 edx, DWORD PTR [ecx+176]
  052e6	52		 push	 edx
  052e7	8b 45 e0	 mov	 eax, DWORD PTR _lre1$[ebp+4]
  052ea	50		 push	 eax
  052eb	8b 4d dc	 mov	 ecx, DWORD PTR _lre1$[ebp]
  052ee	51		 push	 ecx
  052ef	8d 8d 10 ff ff
	ff		 lea	 ecx, DWORD PTR _lDC$188207[ebp]
  052f5	e8 00 00 00 00	 call	 ??BCDC@@QBEPAUHDC__@@XZ	; CDC::operator HDC__ *
  052fa	50		 push	 eax
  052fb	ff 15 00 00 00
	00		 call	 DWORD PTR __imp__SetPixel@16
  05301	3b f4		 cmp	 esi, esp
  05303	e8 00 00 00 00	 call	 __RTC_CheckEsp

; 1294 : 			SetPixel(lDC,lre1.right -1,lre1.top, mcolNormal1);

  05308	8b f4		 mov	 esi, esp
  0530a	8b 55 f0	 mov	 edx, DWORD PTR _this$[ebp]
  0530d	8b 82 b0 00 00
	00		 mov	 eax, DWORD PTR [edx+176]
  05313	50		 push	 eax
  05314	8b 4d e0	 mov	 ecx, DWORD PTR _lre1$[ebp+4]
  05317	51		 push	 ecx
  05318	8b 55 e4	 mov	 edx, DWORD PTR _lre1$[ebp+8]
  0531b	83 ea 01	 sub	 edx, 1
  0531e	52		 push	 edx
  0531f	8d 8d 10 ff ff
	ff		 lea	 ecx, DWORD PTR _lDC$188207[ebp]
  05325	e8 00 00 00 00	 call	 ??BCDC@@QBEPAUHDC__@@XZ	; CDC::operator HDC__ *
  0532a	50		 push	 eax
  0532b	ff 15 00 00 00
	00		 call	 DWORD PTR __imp__SetPixel@16
  05331	3b f4		 cmp	 esi, esp
  05333	e8 00 00 00 00	 call	 __RTC_CheckEsp

; 1295 : 			SetPixel(lDC,lre1.right -1,lre1.bottom-1, mcolNormal1);

  05338	8b f4		 mov	 esi, esp
  0533a	8b 45 f0	 mov	 eax, DWORD PTR _this$[ebp]
  0533d	8b 88 b0 00 00
	00		 mov	 ecx, DWORD PTR [eax+176]
  05343	51		 push	 ecx
  05344	8b 55 e8	 mov	 edx, DWORD PTR _lre1$[ebp+12]
  05347	83 ea 01	 sub	 edx, 1
  0534a	52		 push	 edx
  0534b	8b 45 e4	 mov	 eax, DWORD PTR _lre1$[ebp+8]
  0534e	83 e8 01	 sub	 eax, 1
  05351	50		 push	 eax
  05352	8d 8d 10 ff ff
	ff		 lea	 ecx, DWORD PTR _lDC$188207[ebp]
  05358	e8 00 00 00 00	 call	 ??BCDC@@QBEPAUHDC__@@XZ	; CDC::operator HDC__ *
  0535d	50		 push	 eax
  0535e	ff 15 00 00 00
	00		 call	 DWORD PTR __imp__SetPixel@16
  05364	3b f4		 cmp	 esi, esp
  05366	e8 00 00 00 00	 call	 __RTC_CheckEsp

; 1296 : 			SetPixel(lDC,lre1.left,lre1.bottom-1, mcolNormal1);

  0536b	8b f4		 mov	 esi, esp
  0536d	8b 4d f0	 mov	 ecx, DWORD PTR _this$[ebp]
  05370	8b 91 b0 00 00
	00		 mov	 edx, DWORD PTR [ecx+176]
  05376	52		 push	 edx
  05377	8b 45 e8	 mov	 eax, DWORD PTR _lre1$[ebp+12]
  0537a	83 e8 01	 sub	 eax, 1
  0537d	50		 push	 eax
  0537e	8b 4d dc	 mov	 ecx, DWORD PTR _lre1$[ebp]
  05381	51		 push	 ecx
  05382	8d 8d 10 ff ff
	ff		 lea	 ecx, DWORD PTR _lDC$188207[ebp]
  05388	e8 00 00 00 00	 call	 ??BCDC@@QBEPAUHDC__@@XZ	; CDC::operator HDC__ *
  0538d	50		 push	 eax
  0538e	ff 15 00 00 00
	00		 call	 DWORD PTR __imp__SetPixel@16
  05394	3b f4		 cmp	 esi, esp
  05396	e8 00 00 00 00	 call	 __RTC_CheckEsp

; 1297 : 
; 1298 : 
; 1299 : 			lre2.left = lre2.left -1;

  0539b	8b 55 c4	 mov	 edx, DWORD PTR _lre2$[ebp]
  0539e	83 ea 01	 sub	 edx, 1
  053a1	89 55 c4	 mov	 DWORD PTR _lre2$[ebp], edx

; 1300 : 			lre2.top = lre2.top -1;

  053a4	8b 45 c8	 mov	 eax, DWORD PTR _lre2$[ebp+4]
  053a7	83 e8 01	 sub	 eax, 1
  053aa	89 45 c8	 mov	 DWORD PTR _lre2$[ebp+4], eax

; 1301 : 			gBitMapOperate.DrawLine(lDC, mcolFont, 1,  lre2.left+5, lre2.top+7, lre2.left+7, lre2.top+5, FALSE);

  053ad	6a 00		 push	 0
  053af	8b 4d c8	 mov	 ecx, DWORD PTR _lre2$[ebp+4]
  053b2	83 c1 05	 add	 ecx, 5
  053b5	51		 push	 ecx
  053b6	8b 55 c4	 mov	 edx, DWORD PTR _lre2$[ebp]
  053b9	83 c2 07	 add	 edx, 7
  053bc	52		 push	 edx
  053bd	8b 45 c8	 mov	 eax, DWORD PTR _lre2$[ebp+4]
  053c0	83 c0 07	 add	 eax, 7
  053c3	50		 push	 eax
  053c4	8b 4d c4	 mov	 ecx, DWORD PTR _lre2$[ebp]
  053c7	83 c1 05	 add	 ecx, 5
  053ca	51		 push	 ecx
  053cb	68 00 00 80 3f	 push	 1065353216		; 3f800000H
  053d0	8b 55 f0	 mov	 edx, DWORD PTR _this$[ebp]
  053d3	8b 82 d8 00 00
	00		 mov	 eax, DWORD PTR [edx+216]
  053d9	50		 push	 eax
  053da	8d 8d 10 ff ff
	ff		 lea	 ecx, DWORD PTR _lDC$188207[ebp]
  053e0	e8 00 00 00 00	 call	 ??BCDC@@QBEPAUHDC__@@XZ	; CDC::operator HDC__ *
  053e5	50		 push	 eax
  053e6	b9 00 00 00 00	 mov	 ecx, OFFSET FLAT:?gBitMapOperate@@3VCBitMapOperate@@A
  053eb	e8 00 00 00 00	 call	 ?DrawLine@CBitMapOperate@@UAEXPAUHDC__@@KMHHHHH@Z ; CBitMapOperate::DrawLine

; 1302 : 			gBitMapOperate.DrawLine(lDC, mcolFont, 1,  lre2.left+7, lre2.top+5, lre2.left+10, lre2.top+8, FALSE);

  053f0	6a 00		 push	 0
  053f2	8b 4d c8	 mov	 ecx, DWORD PTR _lre2$[ebp+4]
  053f5	83 c1 08	 add	 ecx, 8
  053f8	51		 push	 ecx
  053f9	8b 55 c4	 mov	 edx, DWORD PTR _lre2$[ebp]
  053fc	83 c2 0a	 add	 edx, 10			; 0000000aH
  053ff	52		 push	 edx
  05400	8b 45 c8	 mov	 eax, DWORD PTR _lre2$[ebp+4]
  05403	83 c0 05	 add	 eax, 5
  05406	50		 push	 eax
  05407	8b 4d c4	 mov	 ecx, DWORD PTR _lre2$[ebp]
  0540a	83 c1 07	 add	 ecx, 7
  0540d	51		 push	 ecx
  0540e	68 00 00 80 3f	 push	 1065353216		; 3f800000H
  05413	8b 55 f0	 mov	 edx, DWORD PTR _this$[ebp]
  05416	8b 82 d8 00 00
	00		 mov	 eax, DWORD PTR [edx+216]
  0541c	50		 push	 eax
  0541d	8d 8d 10 ff ff
	ff		 lea	 ecx, DWORD PTR _lDC$188207[ebp]
  05423	e8 00 00 00 00	 call	 ??BCDC@@QBEPAUHDC__@@XZ	; CDC::operator HDC__ *
  05428	50		 push	 eax
  05429	b9 00 00 00 00	 mov	 ecx, OFFSET FLAT:?gBitMapOperate@@3VCBitMapOperate@@A
  0542e	e8 00 00 00 00	 call	 ?DrawLine@CBitMapOperate@@UAEXPAUHDC__@@KMHHHHH@Z ; CBitMapOperate::DrawLine

; 1303 : 			gBitMapOperate.DrawLine(lDC, mcolFont, 1,  lre2.left+4, lre2.top+7, lre2.left+7, lre2.top+4, FALSE);

  05433	6a 00		 push	 0
  05435	8b 4d c8	 mov	 ecx, DWORD PTR _lre2$[ebp+4]
  05438	83 c1 04	 add	 ecx, 4
  0543b	51		 push	 ecx
  0543c	8b 55 c4	 mov	 edx, DWORD PTR _lre2$[ebp]
  0543f	83 c2 07	 add	 edx, 7
  05442	52		 push	 edx
  05443	8b 45 c8	 mov	 eax, DWORD PTR _lre2$[ebp+4]
  05446	83 c0 07	 add	 eax, 7
  05449	50		 push	 eax
  0544a	8b 4d c4	 mov	 ecx, DWORD PTR _lre2$[ebp]
  0544d	83 c1 04	 add	 ecx, 4
  05450	51		 push	 ecx
  05451	68 00 00 80 3f	 push	 1065353216		; 3f800000H
  05456	8b 55 f0	 mov	 edx, DWORD PTR _this$[ebp]
  05459	8b 82 d8 00 00
	00		 mov	 eax, DWORD PTR [edx+216]
  0545f	50		 push	 eax
  05460	8d 8d 10 ff ff
	ff		 lea	 ecx, DWORD PTR _lDC$188207[ebp]
  05466	e8 00 00 00 00	 call	 ??BCDC@@QBEPAUHDC__@@XZ	; CDC::operator HDC__ *
  0546b	50		 push	 eax
  0546c	b9 00 00 00 00	 mov	 ecx, OFFSET FLAT:?gBitMapOperate@@3VCBitMapOperate@@A
  05471	e8 00 00 00 00	 call	 ?DrawLine@CBitMapOperate@@UAEXPAUHDC__@@KMHHHHH@Z ; CBitMapOperate::DrawLine

; 1304 : 			gBitMapOperate.DrawLine(lDC, mcolFont, 1,  lre2.left+7, lre2.top+4, lre2.left+11, lre2.top+8, FALSE);

  05476	6a 00		 push	 0
  05478	8b 4d c8	 mov	 ecx, DWORD PTR _lre2$[ebp+4]
  0547b	83 c1 08	 add	 ecx, 8
  0547e	51		 push	 ecx
  0547f	8b 55 c4	 mov	 edx, DWORD PTR _lre2$[ebp]
  05482	83 c2 0b	 add	 edx, 11			; 0000000bH
  05485	52		 push	 edx
  05486	8b 45 c8	 mov	 eax, DWORD PTR _lre2$[ebp+4]
  05489	83 c0 04	 add	 eax, 4
  0548c	50		 push	 eax
  0548d	8b 4d c4	 mov	 ecx, DWORD PTR _lre2$[ebp]
  05490	83 c1 07	 add	 ecx, 7
  05493	51		 push	 ecx
  05494	68 00 00 80 3f	 push	 1065353216		; 3f800000H
  05499	8b 55 f0	 mov	 edx, DWORD PTR _this$[ebp]
  0549c	8b 82 d8 00 00
	00		 mov	 eax, DWORD PTR [edx+216]
  054a2	50		 push	 eax
  054a3	8d 8d 10 ff ff
	ff		 lea	 ecx, DWORD PTR _lDC$188207[ebp]
  054a9	e8 00 00 00 00	 call	 ??BCDC@@QBEPAUHDC__@@XZ	; CDC::operator HDC__ *
  054ae	50		 push	 eax
  054af	b9 00 00 00 00	 mov	 ecx, OFFSET FLAT:?gBitMapOperate@@3VCBitMapOperate@@A
  054b4	e8 00 00 00 00	 call	 ?DrawLine@CBitMapOperate@@UAEXPAUHDC__@@KMHHHHH@Z ; CBitMapOperate::DrawLine

; 1305 : 
; 1306 : 		}

  054b9	c7 45 fc ff ff
	ff ff		 mov	 DWORD PTR __$EHRec$[ebp+8], -1
  054c0	8d 8d 10 ff ff
	ff		 lea	 ecx, DWORD PTR _lDC$188207[ebp]
  054c6	e8 00 00 00 00	 call	 ??1CMemDC@@UAE@XZ	; CMemDC::~CMemDC

; 1307 : 		break;

  054cb	e9 87 08 00 00	 jmp	 $L188192
$L188209:

; 1308 : 	case 3:		//下箭头
; 1309 : 		{
; 1310 : 			CMemDC lDC(CDC::FromHandle(hDC), &lre1);

  054d0	8d 4d dc	 lea	 ecx, DWORD PTR _lre1$[ebp]
  054d3	51		 push	 ecx
  054d4	8d 8d 28 fe ff
	ff		 lea	 ecx, DWORD PTR $T189084[ebp]
  054da	e8 00 00 00 00	 call	 ??0CRect@@QAE@PBUtagRECT@@@Z ; CRect::CRect
  054df	8d 95 28 fe ff
	ff		 lea	 edx, DWORD PTR $T189084[ebp]
  054e5	52		 push	 edx
  054e6	8b 45 08	 mov	 eax, DWORD PTR _hDC$[ebp]
  054e9	50		 push	 eax
  054ea	e8 00 00 00 00	 call	 ?FromHandle@CDC@@SGPAV1@PAUHDC__@@@Z ; CDC::FromHandle
  054ef	50		 push	 eax
  054f0	8d 8d dc fe ff
	ff		 lea	 ecx, DWORD PTR _lDC$188210[ebp]
  054f6	e8 00 00 00 00	 call	 ??0CMemDC@@QAE@PAVCDC@@ABVCRect@@@Z ; CMemDC::CMemDC
  054fb	c7 45 fc 03 00
	00 00		 mov	 DWORD PTR __$EHRec$[ebp+8], 3

; 1311 : 			gBitMapOperate.FillRectangle(lDC, lre1, mcolFrame1, FALSE);

  05502	6a 00		 push	 0
  05504	8b 4d f0	 mov	 ecx, DWORD PTR _this$[ebp]
  05507	8b 91 c8 00 00
	00		 mov	 edx, DWORD PTR [ecx+200]
  0550d	52		 push	 edx
  0550e	83 ec 10	 sub	 esp, 16			; 00000010H
  05511	8b c4		 mov	 eax, esp
  05513	8b 4d dc	 mov	 ecx, DWORD PTR _lre1$[ebp]
  05516	89 08		 mov	 DWORD PTR [eax], ecx
  05518	8b 55 e0	 mov	 edx, DWORD PTR _lre1$[ebp+4]
  0551b	89 50 04	 mov	 DWORD PTR [eax+4], edx
  0551e	8b 4d e4	 mov	 ecx, DWORD PTR _lre1$[ebp+8]
  05521	89 48 08	 mov	 DWORD PTR [eax+8], ecx
  05524	8b 55 e8	 mov	 edx, DWORD PTR _lre1$[ebp+12]
  05527	89 50 0c	 mov	 DWORD PTR [eax+12], edx
  0552a	8d 8d dc fe ff
	ff		 lea	 ecx, DWORD PTR _lDC$188210[ebp]
  05530	e8 00 00 00 00	 call	 ??BCDC@@QBEPAUHDC__@@XZ	; CDC::operator HDC__ *
  05535	50		 push	 eax
  05536	b9 00 00 00 00	 mov	 ecx, OFFSET FLAT:?gBitMapOperate@@3VCBitMapOperate@@A
  0553b	e8 00 00 00 00	 call	 ?FillRectangle@CBitMapOperate@@UAEXPAUHDC__@@UtagRECT@@KH@Z ; CBitMapOperate::FillRectangle

; 1312 : 			gBitMapOperate.FillRectangle(lDC, lre2, mcolFrame2, FALSE);

  05540	6a 00		 push	 0
  05542	8b 45 f0	 mov	 eax, DWORD PTR _this$[ebp]
  05545	8b 88 cc 00 00
	00		 mov	 ecx, DWORD PTR [eax+204]
  0554b	51		 push	 ecx
  0554c	83 ec 10	 sub	 esp, 16			; 00000010H
  0554f	8b d4		 mov	 edx, esp
  05551	8b 45 c4	 mov	 eax, DWORD PTR _lre2$[ebp]
  05554	89 02		 mov	 DWORD PTR [edx], eax
  05556	8b 4d c8	 mov	 ecx, DWORD PTR _lre2$[ebp+4]
  05559	89 4a 04	 mov	 DWORD PTR [edx+4], ecx
  0555c	8b 45 cc	 mov	 eax, DWORD PTR _lre2$[ebp+8]
  0555f	89 42 08	 mov	 DWORD PTR [edx+8], eax
  05562	8b 4d d0	 mov	 ecx, DWORD PTR _lre2$[ebp+12]
  05565	89 4a 0c	 mov	 DWORD PTR [edx+12], ecx
  05568	8d 8d dc fe ff
	ff		 lea	 ecx, DWORD PTR _lDC$188210[ebp]
  0556e	e8 00 00 00 00	 call	 ??BCDC@@QBEPAUHDC__@@XZ	; CDC::operator HDC__ *
  05573	50		 push	 eax
  05574	b9 00 00 00 00	 mov	 ecx, OFFSET FLAT:?gBitMapOperate@@3VCBitMapOperate@@A
  05579	e8 00 00 00 00	 call	 ?FillRectangle@CBitMapOperate@@UAEXPAUHDC__@@UtagRECT@@KH@Z ; CBitMapOperate::FillRectangle

; 1313 : 			gBitMapOperate.FillRectangle(lDC, lre3, mcolBtn2,mcolBtn1,gBitMapOperate.edoVertical,FALSE);

  0557e	6a 01		 push	 1
  05580	6a 00		 push	 0
  05582	6a 01		 push	 1
  05584	8b 55 f0	 mov	 edx, DWORD PTR _this$[ebp]
  05587	8b 82 d0 00 00
	00		 mov	 eax, DWORD PTR [edx+208]
  0558d	50		 push	 eax
  0558e	8b 4d f0	 mov	 ecx, DWORD PTR _this$[ebp]
  05591	8b 91 d4 00 00
	00		 mov	 edx, DWORD PTR [ecx+212]
  05597	52		 push	 edx
  05598	83 ec 10	 sub	 esp, 16			; 00000010H
  0559b	8b c4		 mov	 eax, esp
  0559d	8b 4d ac	 mov	 ecx, DWORD PTR _lre3$[ebp]
  055a0	89 08		 mov	 DWORD PTR [eax], ecx
  055a2	8b 55 b0	 mov	 edx, DWORD PTR _lre3$[ebp+4]
  055a5	89 50 04	 mov	 DWORD PTR [eax+4], edx
  055a8	8b 4d b4	 mov	 ecx, DWORD PTR _lre3$[ebp+8]
  055ab	89 48 08	 mov	 DWORD PTR [eax+8], ecx
  055ae	8b 55 b8	 mov	 edx, DWORD PTR _lre3$[ebp+12]
  055b1	89 50 0c	 mov	 DWORD PTR [eax+12], edx
  055b4	8d 8d dc fe ff
	ff		 lea	 ecx, DWORD PTR _lDC$188210[ebp]
  055ba	e8 00 00 00 00	 call	 ??BCDC@@QBEPAUHDC__@@XZ	; CDC::operator HDC__ *
  055bf	50		 push	 eax
  055c0	b9 00 00 00 00	 mov	 ecx, OFFSET FLAT:?gBitMapOperate@@3VCBitMapOperate@@A
  055c5	e8 00 00 00 00	 call	 ?FillRectangle@CBitMapOperate@@UAEXPAUHDC__@@UtagRECT@@KKW4ENUM_DrawOrientation@1@HI@Z ; CBitMapOperate::FillRectangle

; 1314 : 			
; 1315 : 			SetPixel(lDC,lre1.left,lre1.top, mcolNormal1);

  055ca	8b f4		 mov	 esi, esp
  055cc	8b 45 f0	 mov	 eax, DWORD PTR _this$[ebp]
  055cf	8b 88 b0 00 00
	00		 mov	 ecx, DWORD PTR [eax+176]
  055d5	51		 push	 ecx
  055d6	8b 55 e0	 mov	 edx, DWORD PTR _lre1$[ebp+4]
  055d9	52		 push	 edx
  055da	8b 45 dc	 mov	 eax, DWORD PTR _lre1$[ebp]
  055dd	50		 push	 eax
  055de	8d 8d dc fe ff
	ff		 lea	 ecx, DWORD PTR _lDC$188210[ebp]
  055e4	e8 00 00 00 00	 call	 ??BCDC@@QBEPAUHDC__@@XZ	; CDC::operator HDC__ *
  055e9	50		 push	 eax
  055ea	ff 15 00 00 00
	00		 call	 DWORD PTR __imp__SetPixel@16
  055f0	3b f4		 cmp	 esi, esp
  055f2	e8 00 00 00 00	 call	 __RTC_CheckEsp

; 1316 : 			SetPixel(lDC,lre1.right -1,lre1.top, mcolNormal1);

  055f7	8b f4		 mov	 esi, esp
  055f9	8b 4d f0	 mov	 ecx, DWORD PTR _this$[ebp]
  055fc	8b 91 b0 00 00
	00		 mov	 edx, DWORD PTR [ecx+176]
  05602	52		 push	 edx
  05603	8b 45 e0	 mov	 eax, DWORD PTR _lre1$[ebp+4]
  05606	50		 push	 eax
  05607	8b 4d e4	 mov	 ecx, DWORD PTR _lre1$[ebp+8]
  0560a	83 e9 01	 sub	 ecx, 1
  0560d	51		 push	 ecx
  0560e	8d 8d dc fe ff
	ff		 lea	 ecx, DWORD PTR _lDC$188210[ebp]
  05614	e8 00 00 00 00	 call	 ??BCDC@@QBEPAUHDC__@@XZ	; CDC::operator HDC__ *
  05619	50		 push	 eax
  0561a	ff 15 00 00 00
	00		 call	 DWORD PTR __imp__SetPixel@16
  05620	3b f4		 cmp	 esi, esp
  05622	e8 00 00 00 00	 call	 __RTC_CheckEsp

; 1317 : 			SetPixel(lDC,lre1.right -1,lre1.bottom-1, mcolNormal1);

  05627	8b f4		 mov	 esi, esp
  05629	8b 55 f0	 mov	 edx, DWORD PTR _this$[ebp]
  0562c	8b 82 b0 00 00
	00		 mov	 eax, DWORD PTR [edx+176]
  05632	50		 push	 eax
  05633	8b 4d e8	 mov	 ecx, DWORD PTR _lre1$[ebp+12]
  05636	83 e9 01	 sub	 ecx, 1
  05639	51		 push	 ecx
  0563a	8b 55 e4	 mov	 edx, DWORD PTR _lre1$[ebp+8]
  0563d	83 ea 01	 sub	 edx, 1
  05640	52		 push	 edx
  05641	8d 8d dc fe ff
	ff		 lea	 ecx, DWORD PTR _lDC$188210[ebp]
  05647	e8 00 00 00 00	 call	 ??BCDC@@QBEPAUHDC__@@XZ	; CDC::operator HDC__ *
  0564c	50		 push	 eax
  0564d	ff 15 00 00 00
	00		 call	 DWORD PTR __imp__SetPixel@16
  05653	3b f4		 cmp	 esi, esp
  05655	e8 00 00 00 00	 call	 __RTC_CheckEsp

; 1318 : 			SetPixel(lDC,lre1.left,lre1.bottom-1, mcolNormal1);

  0565a	8b f4		 mov	 esi, esp
  0565c	8b 45 f0	 mov	 eax, DWORD PTR _this$[ebp]
  0565f	8b 88 b0 00 00
	00		 mov	 ecx, DWORD PTR [eax+176]
  05665	51		 push	 ecx
  05666	8b 55 e8	 mov	 edx, DWORD PTR _lre1$[ebp+12]
  05669	83 ea 01	 sub	 edx, 1
  0566c	52		 push	 edx
  0566d	8b 45 dc	 mov	 eax, DWORD PTR _lre1$[ebp]
  05670	50		 push	 eax
  05671	8d 8d dc fe ff
	ff		 lea	 ecx, DWORD PTR _lDC$188210[ebp]
  05677	e8 00 00 00 00	 call	 ??BCDC@@QBEPAUHDC__@@XZ	; CDC::operator HDC__ *
  0567c	50		 push	 eax
  0567d	ff 15 00 00 00
	00		 call	 DWORD PTR __imp__SetPixel@16
  05683	3b f4		 cmp	 esi, esp
  05685	e8 00 00 00 00	 call	 __RTC_CheckEsp

; 1319 : 			lre2.left = lre2.left -1;

  0568a	8b 4d c4	 mov	 ecx, DWORD PTR _lre2$[ebp]
  0568d	83 e9 01	 sub	 ecx, 1
  05690	89 4d c4	 mov	 DWORD PTR _lre2$[ebp], ecx

; 1320 : 			gBitMapOperate.DrawLine(lDC, mcolFont, 1,  lre2.left+5, lre2.top+6, lre2.left+7, lre2.top+8, FALSE);

  05693	6a 00		 push	 0
  05695	8b 55 c8	 mov	 edx, DWORD PTR _lre2$[ebp+4]
  05698	83 c2 08	 add	 edx, 8
  0569b	52		 push	 edx
  0569c	8b 45 c4	 mov	 eax, DWORD PTR _lre2$[ebp]
  0569f	83 c0 07	 add	 eax, 7
  056a2	50		 push	 eax
  056a3	8b 4d c8	 mov	 ecx, DWORD PTR _lre2$[ebp+4]
  056a6	83 c1 06	 add	 ecx, 6
  056a9	51		 push	 ecx
  056aa	8b 55 c4	 mov	 edx, DWORD PTR _lre2$[ebp]
  056ad	83 c2 05	 add	 edx, 5
  056b0	52		 push	 edx
  056b1	68 00 00 80 3f	 push	 1065353216		; 3f800000H
  056b6	8b 45 f0	 mov	 eax, DWORD PTR _this$[ebp]
  056b9	8b 88 d8 00 00
	00		 mov	 ecx, DWORD PTR [eax+216]
  056bf	51		 push	 ecx
  056c0	8d 8d dc fe ff
	ff		 lea	 ecx, DWORD PTR _lDC$188210[ebp]
  056c6	e8 00 00 00 00	 call	 ??BCDC@@QBEPAUHDC__@@XZ	; CDC::operator HDC__ *
  056cb	50		 push	 eax
  056cc	b9 00 00 00 00	 mov	 ecx, OFFSET FLAT:?gBitMapOperate@@3VCBitMapOperate@@A
  056d1	e8 00 00 00 00	 call	 ?DrawLine@CBitMapOperate@@UAEXPAUHDC__@@KMHHHHH@Z ; CBitMapOperate::DrawLine

; 1321 : 			gBitMapOperate.DrawLine(lDC, mcolFont, 1,  lre2.left+7, lre2.top+8, lre2.left+10, lre2.top+5, FALSE);

  056d6	6a 00		 push	 0
  056d8	8b 55 c8	 mov	 edx, DWORD PTR _lre2$[ebp+4]
  056db	83 c2 05	 add	 edx, 5
  056de	52		 push	 edx
  056df	8b 45 c4	 mov	 eax, DWORD PTR _lre2$[ebp]
  056e2	83 c0 0a	 add	 eax, 10			; 0000000aH
  056e5	50		 push	 eax
  056e6	8b 4d c8	 mov	 ecx, DWORD PTR _lre2$[ebp+4]
  056e9	83 c1 08	 add	 ecx, 8
  056ec	51		 push	 ecx
  056ed	8b 55 c4	 mov	 edx, DWORD PTR _lre2$[ebp]
  056f0	83 c2 07	 add	 edx, 7
  056f3	52		 push	 edx
  056f4	68 00 00 80 3f	 push	 1065353216		; 3f800000H
  056f9	8b 45 f0	 mov	 eax, DWORD PTR _this$[ebp]
  056fc	8b 88 d8 00 00
	00		 mov	 ecx, DWORD PTR [eax+216]
  05702	51		 push	 ecx
  05703	8d 8d dc fe ff
	ff		 lea	 ecx, DWORD PTR _lDC$188210[ebp]
  05709	e8 00 00 00 00	 call	 ??BCDC@@QBEPAUHDC__@@XZ	; CDC::operator HDC__ *
  0570e	50		 push	 eax
  0570f	b9 00 00 00 00	 mov	 ecx, OFFSET FLAT:?gBitMapOperate@@3VCBitMapOperate@@A
  05714	e8 00 00 00 00	 call	 ?DrawLine@CBitMapOperate@@UAEXPAUHDC__@@KMHHHHH@Z ; CBitMapOperate::DrawLine

; 1322 : 			gBitMapOperate.DrawLine(lDC, mcolFont, 1,  lre2.left+4, lre2.top+6, lre2.left+7, lre2.top+9, FALSE);

  05719	6a 00		 push	 0
  0571b	8b 55 c8	 mov	 edx, DWORD PTR _lre2$[ebp+4]
  0571e	83 c2 09	 add	 edx, 9
  05721	52		 push	 edx
  05722	8b 45 c4	 mov	 eax, DWORD PTR _lre2$[ebp]
  05725	83 c0 07	 add	 eax, 7
  05728	50		 push	 eax
  05729	8b 4d c8	 mov	 ecx, DWORD PTR _lre2$[ebp+4]
  0572c	83 c1 06	 add	 ecx, 6
  0572f	51		 push	 ecx
  05730	8b 55 c4	 mov	 edx, DWORD PTR _lre2$[ebp]
  05733	83 c2 04	 add	 edx, 4
  05736	52		 push	 edx
  05737	68 00 00 80 3f	 push	 1065353216		; 3f800000H
  0573c	8b 45 f0	 mov	 eax, DWORD PTR _this$[ebp]
  0573f	8b 88 d8 00 00
	00		 mov	 ecx, DWORD PTR [eax+216]
  05745	51		 push	 ecx
  05746	8d 8d dc fe ff
	ff		 lea	 ecx, DWORD PTR _lDC$188210[ebp]
  0574c	e8 00 00 00 00	 call	 ??BCDC@@QBEPAUHDC__@@XZ	; CDC::operator HDC__ *
  05751	50		 push	 eax
  05752	b9 00 00 00 00	 mov	 ecx, OFFSET FLAT:?gBitMapOperate@@3VCBitMapOperate@@A
  05757	e8 00 00 00 00	 call	 ?DrawLine@CBitMapOperate@@UAEXPAUHDC__@@KMHHHHH@Z ; CBitMapOperate::DrawLine

; 1323 : 			gBitMapOperate.DrawLine(lDC, mcolFont, 1,  lre2.left+7, lre2.top+9, lre2.left+11, lre2.top+5, FALSE);

  0575c	6a 00		 push	 0
  0575e	8b 55 c8	 mov	 edx, DWORD PTR _lre2$[ebp+4]
  05761	83 c2 05	 add	 edx, 5
  05764	52		 push	 edx
  05765	8b 45 c4	 mov	 eax, DWORD PTR _lre2$[ebp]
  05768	83 c0 0b	 add	 eax, 11			; 0000000bH
  0576b	50		 push	 eax
  0576c	8b 4d c8	 mov	 ecx, DWORD PTR _lre2$[ebp+4]
  0576f	83 c1 09	 add	 ecx, 9
  05772	51		 push	 ecx
  05773	8b 55 c4	 mov	 edx, DWORD PTR _lre2$[ebp]
  05776	83 c2 07	 add	 edx, 7
  05779	52		 push	 edx
  0577a	68 00 00 80 3f	 push	 1065353216		; 3f800000H
  0577f	8b 45 f0	 mov	 eax, DWORD PTR _this$[ebp]
  05782	8b 88 d8 00 00
	00		 mov	 ecx, DWORD PTR [eax+216]
  05788	51		 push	 ecx
  05789	8d 8d dc fe ff
	ff		 lea	 ecx, DWORD PTR _lDC$188210[ebp]
  0578f	e8 00 00 00 00	 call	 ??BCDC@@QBEPAUHDC__@@XZ	; CDC::operator HDC__ *
  05794	50		 push	 eax
  05795	b9 00 00 00 00	 mov	 ecx, OFFSET FLAT:?gBitMapOperate@@3VCBitMapOperate@@A
  0579a	e8 00 00 00 00	 call	 ?DrawLine@CBitMapOperate@@UAEXPAUHDC__@@KMHHHHH@Z ; CBitMapOperate::DrawLine

; 1324 : 		
; 1325 : 		}

  0579f	c7 45 fc ff ff
	ff ff		 mov	 DWORD PTR __$EHRec$[ebp+8], -1
  057a6	8d 8d dc fe ff
	ff		 lea	 ecx, DWORD PTR _lDC$188210[ebp]
  057ac	e8 00 00 00 00	 call	 ??1CMemDC@@UAE@XZ	; CMemDC::~CMemDC

; 1326 : 		break;

  057b1	e9 a1 05 00 00	 jmp	 $L188192
$L188212:

; 1327 : 	case 4:		//滑块条纹
; 1328 : 		if (mScrollOrientation == esoVertical)

  057b6	8b 55 f0	 mov	 edx, DWORD PTR _this$[ebp]
  057b9	83 ba 80 00 00
	00 01		 cmp	 DWORD PTR [edx+128], 1
  057c0	0f 85 cb 02 00
	00		 jne	 $L188213

; 1329 : 		{
; 1330 : 			CMemDC lDC(CDC::FromHandle(hDC), &lre1);

  057c6	8d 45 dc	 lea	 eax, DWORD PTR _lre1$[ebp]
  057c9	50		 push	 eax
  057ca	8d 8d 18 fe ff
	ff		 lea	 ecx, DWORD PTR $T189085[ebp]
  057d0	e8 00 00 00 00	 call	 ??0CRect@@QAE@PBUtagRECT@@@Z ; CRect::CRect
  057d5	8d 8d 18 fe ff
	ff		 lea	 ecx, DWORD PTR $T189085[ebp]
  057db	51		 push	 ecx
  057dc	8b 55 08	 mov	 edx, DWORD PTR _hDC$[ebp]
  057df	52		 push	 edx
  057e0	e8 00 00 00 00	 call	 ?FromHandle@CDC@@SGPAV1@PAUHDC__@@@Z ; CDC::FromHandle
  057e5	50		 push	 eax
  057e6	8d 8d a8 fe ff
	ff		 lea	 ecx, DWORD PTR _lDC$188214[ebp]
  057ec	e8 00 00 00 00	 call	 ??0CMemDC@@QAE@PAVCDC@@ABVCRect@@@Z ; CMemDC::CMemDC
  057f1	c7 45 fc 04 00
	00 00		 mov	 DWORD PTR __$EHRec$[ebp+8], 4

; 1331 : 			gBitMapOperate.FillRectangle(lDC, lre1, mcolFrame1, FALSE);

  057f8	6a 00		 push	 0
  057fa	8b 45 f0	 mov	 eax, DWORD PTR _this$[ebp]
  057fd	8b 88 c8 00 00
	00		 mov	 ecx, DWORD PTR [eax+200]
  05803	51		 push	 ecx
  05804	83 ec 10	 sub	 esp, 16			; 00000010H
  05807	8b d4		 mov	 edx, esp
  05809	8b 45 dc	 mov	 eax, DWORD PTR _lre1$[ebp]
  0580c	89 02		 mov	 DWORD PTR [edx], eax
  0580e	8b 4d e0	 mov	 ecx, DWORD PTR _lre1$[ebp+4]
  05811	89 4a 04	 mov	 DWORD PTR [edx+4], ecx
  05814	8b 45 e4	 mov	 eax, DWORD PTR _lre1$[ebp+8]
  05817	89 42 08	 mov	 DWORD PTR [edx+8], eax
  0581a	8b 4d e8	 mov	 ecx, DWORD PTR _lre1$[ebp+12]
  0581d	89 4a 0c	 mov	 DWORD PTR [edx+12], ecx
  05820	8d 8d a8 fe ff
	ff		 lea	 ecx, DWORD PTR _lDC$188214[ebp]
  05826	e8 00 00 00 00	 call	 ??BCDC@@QBEPAUHDC__@@XZ	; CDC::operator HDC__ *
  0582b	50		 push	 eax
  0582c	b9 00 00 00 00	 mov	 ecx, OFFSET FLAT:?gBitMapOperate@@3VCBitMapOperate@@A
  05831	e8 00 00 00 00	 call	 ?FillRectangle@CBitMapOperate@@UAEXPAUHDC__@@UtagRECT@@KH@Z ; CBitMapOperate::FillRectangle

; 1332 : 			gBitMapOperate.FillRectangle(lDC, lre2, mcolFrame2, FALSE);

  05836	6a 00		 push	 0
  05838	8b 55 f0	 mov	 edx, DWORD PTR _this$[ebp]
  0583b	8b 82 cc 00 00
	00		 mov	 eax, DWORD PTR [edx+204]
  05841	50		 push	 eax
  05842	83 ec 10	 sub	 esp, 16			; 00000010H
  05845	8b cc		 mov	 ecx, esp
  05847	8b 55 c4	 mov	 edx, DWORD PTR _lre2$[ebp]
  0584a	89 11		 mov	 DWORD PTR [ecx], edx
  0584c	8b 45 c8	 mov	 eax, DWORD PTR _lre2$[ebp+4]
  0584f	89 41 04	 mov	 DWORD PTR [ecx+4], eax
  05852	8b 55 cc	 mov	 edx, DWORD PTR _lre2$[ebp+8]
  05855	89 51 08	 mov	 DWORD PTR [ecx+8], edx
  05858	8b 45 d0	 mov	 eax, DWORD PTR _lre2$[ebp+12]
  0585b	89 41 0c	 mov	 DWORD PTR [ecx+12], eax
  0585e	8d 8d a8 fe ff
	ff		 lea	 ecx, DWORD PTR _lDC$188214[ebp]
  05864	e8 00 00 00 00	 call	 ??BCDC@@QBEPAUHDC__@@XZ	; CDC::operator HDC__ *
  05869	50		 push	 eax
  0586a	b9 00 00 00 00	 mov	 ecx, OFFSET FLAT:?gBitMapOperate@@3VCBitMapOperate@@A
  0586f	e8 00 00 00 00	 call	 ?FillRectangle@CBitMapOperate@@UAEXPAUHDC__@@UtagRECT@@KH@Z ; CBitMapOperate::FillRectangle

; 1333 : 			gBitMapOperate.FillRectangle(lDC, lre3, mcolNormal1,mcolNormal2,gBitMapOperate.edoVertical,FALSE);

  05874	6a 01		 push	 1
  05876	6a 00		 push	 0
  05878	6a 01		 push	 1
  0587a	8b 4d f0	 mov	 ecx, DWORD PTR _this$[ebp]
  0587d	8b 91 b4 00 00
	00		 mov	 edx, DWORD PTR [ecx+180]
  05883	52		 push	 edx
  05884	8b 45 f0	 mov	 eax, DWORD PTR _this$[ebp]
  05887	8b 88 b0 00 00
	00		 mov	 ecx, DWORD PTR [eax+176]
  0588d	51		 push	 ecx
  0588e	83 ec 10	 sub	 esp, 16			; 00000010H
  05891	8b d4		 mov	 edx, esp
  05893	8b 45 ac	 mov	 eax, DWORD PTR _lre3$[ebp]
  05896	89 02		 mov	 DWORD PTR [edx], eax
  05898	8b 4d b0	 mov	 ecx, DWORD PTR _lre3$[ebp+4]
  0589b	89 4a 04	 mov	 DWORD PTR [edx+4], ecx
  0589e	8b 45 b4	 mov	 eax, DWORD PTR _lre3$[ebp+8]
  058a1	89 42 08	 mov	 DWORD PTR [edx+8], eax
  058a4	8b 4d b8	 mov	 ecx, DWORD PTR _lre3$[ebp+12]
  058a7	89 4a 0c	 mov	 DWORD PTR [edx+12], ecx
  058aa	8d 8d a8 fe ff
	ff		 lea	 ecx, DWORD PTR _lDC$188214[ebp]
  058b0	e8 00 00 00 00	 call	 ??BCDC@@QBEPAUHDC__@@XZ	; CDC::operator HDC__ *
  058b5	50		 push	 eax
  058b6	b9 00 00 00 00	 mov	 ecx, OFFSET FLAT:?gBitMapOperate@@3VCBitMapOperate@@A
  058bb	e8 00 00 00 00	 call	 ?FillRectangle@CBitMapOperate@@UAEXPAUHDC__@@UtagRECT@@KKW4ENUM_DrawOrientation@1@HI@Z ; CBitMapOperate::FillRectangle

; 1334 : 
; 1335 : 			SetPixel(lDC,lre1.left,lre1.top, mcolNormal1);

  058c0	8b f4		 mov	 esi, esp
  058c2	8b 55 f0	 mov	 edx, DWORD PTR _this$[ebp]
  058c5	8b 82 b0 00 00
	00		 mov	 eax, DWORD PTR [edx+176]
  058cb	50		 push	 eax
  058cc	8b 4d e0	 mov	 ecx, DWORD PTR _lre1$[ebp+4]
  058cf	51		 push	 ecx
  058d0	8b 55 dc	 mov	 edx, DWORD PTR _lre1$[ebp]
  058d3	52		 push	 edx
  058d4	8d 8d a8 fe ff
	ff		 lea	 ecx, DWORD PTR _lDC$188214[ebp]
  058da	e8 00 00 00 00	 call	 ??BCDC@@QBEPAUHDC__@@XZ	; CDC::operator HDC__ *
  058df	50		 push	 eax
  058e0	ff 15 00 00 00
	00		 call	 DWORD PTR __imp__SetPixel@16
  058e6	3b f4		 cmp	 esi, esp
  058e8	e8 00 00 00 00	 call	 __RTC_CheckEsp

; 1336 : 			SetPixel(lDC,lre1.right -1,lre1.top, mcolNormal1);

  058ed	8b f4		 mov	 esi, esp
  058ef	8b 45 f0	 mov	 eax, DWORD PTR _this$[ebp]
  058f2	8b 88 b0 00 00
	00		 mov	 ecx, DWORD PTR [eax+176]
  058f8	51		 push	 ecx
  058f9	8b 55 e0	 mov	 edx, DWORD PTR _lre1$[ebp+4]
  058fc	52		 push	 edx
  058fd	8b 45 e4	 mov	 eax, DWORD PTR _lre1$[ebp+8]
  05900	83 e8 01	 sub	 eax, 1
  05903	50		 push	 eax
  05904	8d 8d a8 fe ff
	ff		 lea	 ecx, DWORD PTR _lDC$188214[ebp]
  0590a	e8 00 00 00 00	 call	 ??BCDC@@QBEPAUHDC__@@XZ	; CDC::operator HDC__ *
  0590f	50		 push	 eax
  05910	ff 15 00 00 00
	00		 call	 DWORD PTR __imp__SetPixel@16
  05916	3b f4		 cmp	 esi, esp
  05918	e8 00 00 00 00	 call	 __RTC_CheckEsp

; 1337 : 			SetPixel(lDC,lre1.right -1,lre1.bottom-1, mcolNormal1);

  0591d	8b f4		 mov	 esi, esp
  0591f	8b 4d f0	 mov	 ecx, DWORD PTR _this$[ebp]
  05922	8b 91 b0 00 00
	00		 mov	 edx, DWORD PTR [ecx+176]
  05928	52		 push	 edx
  05929	8b 45 e8	 mov	 eax, DWORD PTR _lre1$[ebp+12]
  0592c	83 e8 01	 sub	 eax, 1
  0592f	50		 push	 eax
  05930	8b 4d e4	 mov	 ecx, DWORD PTR _lre1$[ebp+8]
  05933	83 e9 01	 sub	 ecx, 1
  05936	51		 push	 ecx
  05937	8d 8d a8 fe ff
	ff		 lea	 ecx, DWORD PTR _lDC$188214[ebp]
  0593d	e8 00 00 00 00	 call	 ??BCDC@@QBEPAUHDC__@@XZ	; CDC::operator HDC__ *
  05942	50		 push	 eax
  05943	ff 15 00 00 00
	00		 call	 DWORD PTR __imp__SetPixel@16
  05949	3b f4		 cmp	 esi, esp
  0594b	e8 00 00 00 00	 call	 __RTC_CheckEsp

; 1338 : 			SetPixel(lDC,lre1.left,lre1.bottom-1, mcolNormal1);

  05950	8b f4		 mov	 esi, esp
  05952	8b 55 f0	 mov	 edx, DWORD PTR _this$[ebp]
  05955	8b 82 b0 00 00
	00		 mov	 eax, DWORD PTR [edx+176]
  0595b	50		 push	 eax
  0595c	8b 4d e8	 mov	 ecx, DWORD PTR _lre1$[ebp+12]
  0595f	83 e9 01	 sub	 ecx, 1
  05962	51		 push	 ecx
  05963	8b 55 dc	 mov	 edx, DWORD PTR _lre1$[ebp]
  05966	52		 push	 edx
  05967	8d 8d a8 fe ff
	ff		 lea	 ecx, DWORD PTR _lDC$188214[ebp]
  0596d	e8 00 00 00 00	 call	 ??BCDC@@QBEPAUHDC__@@XZ	; CDC::operator HDC__ *
  05972	50		 push	 eax
  05973	ff 15 00 00 00
	00		 call	 DWORD PTR __imp__SetPixel@16
  05979	3b f4		 cmp	 esi, esp
  0597b	e8 00 00 00 00	 call	 __RTC_CheckEsp

; 1339 : 
; 1340 : 			// 三条线
; 1341 : 			if( lre2.bottom  >= 15 )

  05980	83 7d d0 0f	 cmp	 DWORD PTR _lre2$[ebp+12], 15 ; 0000000fH
  05984	0f 8c f0 00 00
	00		 jl	 $L188216

; 1342 : 			{
; 1343 : 				int liLift = lre2.top + (lre2.bottom - 11 -lre2.top)/2 + 1;

  0598a	8b 45 d0	 mov	 eax, DWORD PTR _lre2$[ebp+12]
  0598d	83 e8 0b	 sub	 eax, 11			; 0000000bH
  05990	2b 45 c8	 sub	 eax, DWORD PTR _lre2$[ebp+4]
  05993	99		 cdq
  05994	2b c2		 sub	 eax, edx
  05996	d1 f8		 sar	 eax, 1
  05998	8b 4d c8	 mov	 ecx, DWORD PTR _lre2$[ebp+4]
  0599b	8d 54 01 01	 lea	 edx, DWORD PTR [ecx+eax+1]
  0599f	89 95 a0 fe ff
	ff		 mov	 DWORD PTR _liLift$188217[ebp], edx

; 1344 : 
; 1345 : 				gBitMapOperate.DrawLine(lDC, mcolFont,  1, lre2.left+2, liLift,   lre2.right-3, liLift, FALSE);

  059a5	6a 00		 push	 0
  059a7	8b 85 a0 fe ff
	ff		 mov	 eax, DWORD PTR _liLift$188217[ebp]
  059ad	50		 push	 eax
  059ae	8b 4d cc	 mov	 ecx, DWORD PTR _lre2$[ebp+8]
  059b1	83 e9 03	 sub	 ecx, 3
  059b4	51		 push	 ecx
  059b5	8b 95 a0 fe ff
	ff		 mov	 edx, DWORD PTR _liLift$188217[ebp]
  059bb	52		 push	 edx
  059bc	8b 45 c4	 mov	 eax, DWORD PTR _lre2$[ebp]
  059bf	83 c0 02	 add	 eax, 2
  059c2	50		 push	 eax
  059c3	68 00 00 80 3f	 push	 1065353216		; 3f800000H
  059c8	8b 4d f0	 mov	 ecx, DWORD PTR _this$[ebp]
  059cb	8b 91 d8 00 00
	00		 mov	 edx, DWORD PTR [ecx+216]
  059d1	52		 push	 edx
  059d2	8d 8d a8 fe ff
	ff		 lea	 ecx, DWORD PTR _lDC$188214[ebp]
  059d8	e8 00 00 00 00	 call	 ??BCDC@@QBEPAUHDC__@@XZ	; CDC::operator HDC__ *
  059dd	50		 push	 eax
  059de	b9 00 00 00 00	 mov	 ecx, OFFSET FLAT:?gBitMapOperate@@3VCBitMapOperate@@A
  059e3	e8 00 00 00 00	 call	 ?DrawLine@CBitMapOperate@@UAEXPAUHDC__@@KMHHHHH@Z ; CBitMapOperate::DrawLine

; 1346 : 				gBitMapOperate.DrawLine(lDC, mcolFont,  1, lre2.left+2, liLift+4, lre2.right-3, liLift+4, FALSE);

  059e8	6a 00		 push	 0
  059ea	8b 85 a0 fe ff
	ff		 mov	 eax, DWORD PTR _liLift$188217[ebp]
  059f0	83 c0 04	 add	 eax, 4
  059f3	50		 push	 eax
  059f4	8b 4d cc	 mov	 ecx, DWORD PTR _lre2$[ebp+8]
  059f7	83 e9 03	 sub	 ecx, 3
  059fa	51		 push	 ecx
  059fb	8b 95 a0 fe ff
	ff		 mov	 edx, DWORD PTR _liLift$188217[ebp]
  05a01	83 c2 04	 add	 edx, 4
  05a04	52		 push	 edx
  05a05	8b 45 c4	 mov	 eax, DWORD PTR _lre2$[ebp]
  05a08	83 c0 02	 add	 eax, 2
  05a0b	50		 push	 eax
  05a0c	68 00 00 80 3f	 push	 1065353216		; 3f800000H
  05a11	8b 4d f0	 mov	 ecx, DWORD PTR _this$[ebp]
  05a14	8b 91 d8 00 00
	00		 mov	 edx, DWORD PTR [ecx+216]
  05a1a	52		 push	 edx
  05a1b	8d 8d a8 fe ff
	ff		 lea	 ecx, DWORD PTR _lDC$188214[ebp]
  05a21	e8 00 00 00 00	 call	 ??BCDC@@QBEPAUHDC__@@XZ	; CDC::operator HDC__ *
  05a26	50		 push	 eax
  05a27	b9 00 00 00 00	 mov	 ecx, OFFSET FLAT:?gBitMapOperate@@3VCBitMapOperate@@A
  05a2c	e8 00 00 00 00	 call	 ?DrawLine@CBitMapOperate@@UAEXPAUHDC__@@KMHHHHH@Z ; CBitMapOperate::DrawLine

; 1347 : 				gBitMapOperate.DrawLine(lDC, mcolFont,  1, lre2.left+2, liLift+8, lre2.right-3, liLift+8, FALSE);

  05a31	6a 00		 push	 0
  05a33	8b 85 a0 fe ff
	ff		 mov	 eax, DWORD PTR _liLift$188217[ebp]
  05a39	83 c0 08	 add	 eax, 8
  05a3c	50		 push	 eax
  05a3d	8b 4d cc	 mov	 ecx, DWORD PTR _lre2$[ebp+8]
  05a40	83 e9 03	 sub	 ecx, 3
  05a43	51		 push	 ecx
  05a44	8b 95 a0 fe ff
	ff		 mov	 edx, DWORD PTR _liLift$188217[ebp]
  05a4a	83 c2 08	 add	 edx, 8
  05a4d	52		 push	 edx
  05a4e	8b 45 c4	 mov	 eax, DWORD PTR _lre2$[ebp]
  05a51	83 c0 02	 add	 eax, 2
  05a54	50		 push	 eax
  05a55	68 00 00 80 3f	 push	 1065353216		; 3f800000H
  05a5a	8b 4d f0	 mov	 ecx, DWORD PTR _this$[ebp]
  05a5d	8b 91 d8 00 00
	00		 mov	 edx, DWORD PTR [ecx+216]
  05a63	52		 push	 edx
  05a64	8d 8d a8 fe ff
	ff		 lea	 ecx, DWORD PTR _lDC$188214[ebp]
  05a6a	e8 00 00 00 00	 call	 ??BCDC@@QBEPAUHDC__@@XZ	; CDC::operator HDC__ *
  05a6f	50		 push	 eax
  05a70	b9 00 00 00 00	 mov	 ecx, OFFSET FLAT:?gBitMapOperate@@3VCBitMapOperate@@A
  05a75	e8 00 00 00 00	 call	 ?DrawLine@CBitMapOperate@@UAEXPAUHDC__@@KMHHHHH@Z ; CBitMapOperate::DrawLine
$L188216:

; 1348 : 			}
; 1349 : 
; 1350 : 
; 1351 : 		}

  05a7a	c7 45 fc ff ff
	ff ff		 mov	 DWORD PTR __$EHRec$[ebp+8], -1
  05a81	8d 8d a8 fe ff
	ff		 lea	 ecx, DWORD PTR _lDC$188214[ebp]
  05a87	e8 00 00 00 00	 call	 ??1CMemDC@@UAE@XZ	; CMemDC::~CMemDC

; 1352 : 		else	//esoHorizontal

  05a8c	e9 c6 02 00 00	 jmp	 $L188192
$L188213:

; 1353 : 		{
; 1354 : 			CMemDC lDC(CDC::FromHandle(hDC), &lre1);

  05a91	8d 45 dc	 lea	 eax, DWORD PTR _lre1$[ebp]
  05a94	50		 push	 eax
  05a95	8d 8d 08 fe ff
	ff		 lea	 ecx, DWORD PTR $T189086[ebp]
  05a9b	e8 00 00 00 00	 call	 ??0CRect@@QAE@PBUtagRECT@@@Z ; CRect::CRect
  05aa0	8d 8d 08 fe ff
	ff		 lea	 ecx, DWORD PTR $T189086[ebp]
  05aa6	51		 push	 ecx
  05aa7	8b 55 08	 mov	 edx, DWORD PTR _hDC$[ebp]
  05aaa	52		 push	 edx
  05aab	e8 00 00 00 00	 call	 ?FromHandle@CDC@@SGPAV1@PAUHDC__@@@Z ; CDC::FromHandle
  05ab0	50		 push	 eax
  05ab1	8d 8d 70 fe ff
	ff		 lea	 ecx, DWORD PTR _lDC$188219[ebp]
  05ab7	e8 00 00 00 00	 call	 ??0CMemDC@@QAE@PAVCDC@@ABVCRect@@@Z ; CMemDC::CMemDC
  05abc	c7 45 fc 05 00
	00 00		 mov	 DWORD PTR __$EHRec$[ebp+8], 5

; 1355 : 			gBitMapOperate.FillRectangle(lDC, lre1, mcolFrame1, FALSE);

  05ac3	6a 00		 push	 0
  05ac5	8b 45 f0	 mov	 eax, DWORD PTR _this$[ebp]
  05ac8	8b 88 c8 00 00
	00		 mov	 ecx, DWORD PTR [eax+200]
  05ace	51		 push	 ecx
  05acf	83 ec 10	 sub	 esp, 16			; 00000010H
  05ad2	8b d4		 mov	 edx, esp
  05ad4	8b 45 dc	 mov	 eax, DWORD PTR _lre1$[ebp]
  05ad7	89 02		 mov	 DWORD PTR [edx], eax
  05ad9	8b 4d e0	 mov	 ecx, DWORD PTR _lre1$[ebp+4]
  05adc	89 4a 04	 mov	 DWORD PTR [edx+4], ecx
  05adf	8b 45 e4	 mov	 eax, DWORD PTR _lre1$[ebp+8]
  05ae2	89 42 08	 mov	 DWORD PTR [edx+8], eax
  05ae5	8b 4d e8	 mov	 ecx, DWORD PTR _lre1$[ebp+12]
  05ae8	89 4a 0c	 mov	 DWORD PTR [edx+12], ecx
  05aeb	8d 8d 70 fe ff
	ff		 lea	 ecx, DWORD PTR _lDC$188219[ebp]
  05af1	e8 00 00 00 00	 call	 ??BCDC@@QBEPAUHDC__@@XZ	; CDC::operator HDC__ *
  05af6	50		 push	 eax
  05af7	b9 00 00 00 00	 mov	 ecx, OFFSET FLAT:?gBitMapOperate@@3VCBitMapOperate@@A
  05afc	e8 00 00 00 00	 call	 ?FillRectangle@CBitMapOperate@@UAEXPAUHDC__@@UtagRECT@@KH@Z ; CBitMapOperate::FillRectangle

; 1356 : 			gBitMapOperate.FillRectangle(lDC, lre2, mcolFrame2, FALSE);

  05b01	6a 00		 push	 0
  05b03	8b 55 f0	 mov	 edx, DWORD PTR _this$[ebp]
  05b06	8b 82 cc 00 00
	00		 mov	 eax, DWORD PTR [edx+204]
  05b0c	50		 push	 eax
  05b0d	83 ec 10	 sub	 esp, 16			; 00000010H
  05b10	8b cc		 mov	 ecx, esp
  05b12	8b 55 c4	 mov	 edx, DWORD PTR _lre2$[ebp]
  05b15	89 11		 mov	 DWORD PTR [ecx], edx
  05b17	8b 45 c8	 mov	 eax, DWORD PTR _lre2$[ebp+4]
  05b1a	89 41 04	 mov	 DWORD PTR [ecx+4], eax
  05b1d	8b 55 cc	 mov	 edx, DWORD PTR _lre2$[ebp+8]
  05b20	89 51 08	 mov	 DWORD PTR [ecx+8], edx
  05b23	8b 45 d0	 mov	 eax, DWORD PTR _lre2$[ebp+12]
  05b26	89 41 0c	 mov	 DWORD PTR [ecx+12], eax
  05b29	8d 8d 70 fe ff
	ff		 lea	 ecx, DWORD PTR _lDC$188219[ebp]
  05b2f	e8 00 00 00 00	 call	 ??BCDC@@QBEPAUHDC__@@XZ	; CDC::operator HDC__ *
  05b34	50		 push	 eax
  05b35	b9 00 00 00 00	 mov	 ecx, OFFSET FLAT:?gBitMapOperate@@3VCBitMapOperate@@A
  05b3a	e8 00 00 00 00	 call	 ?FillRectangle@CBitMapOperate@@UAEXPAUHDC__@@UtagRECT@@KH@Z ; CBitMapOperate::FillRectangle

; 1357 : 			gBitMapOperate.FillRectangle(lDC, lre3, mcolNormal1,mcolNormal2,gBitMapOperate.edoVertical,FALSE);

  05b3f	6a 01		 push	 1
  05b41	6a 00		 push	 0
  05b43	6a 01		 push	 1
  05b45	8b 4d f0	 mov	 ecx, DWORD PTR _this$[ebp]
  05b48	8b 91 b4 00 00
	00		 mov	 edx, DWORD PTR [ecx+180]
  05b4e	52		 push	 edx
  05b4f	8b 45 f0	 mov	 eax, DWORD PTR _this$[ebp]
  05b52	8b 88 b0 00 00
	00		 mov	 ecx, DWORD PTR [eax+176]
  05b58	51		 push	 ecx
  05b59	83 ec 10	 sub	 esp, 16			; 00000010H
  05b5c	8b d4		 mov	 edx, esp
  05b5e	8b 45 ac	 mov	 eax, DWORD PTR _lre3$[ebp]
  05b61	89 02		 mov	 DWORD PTR [edx], eax
  05b63	8b 4d b0	 mov	 ecx, DWORD PTR _lre3$[ebp+4]
  05b66	89 4a 04	 mov	 DWORD PTR [edx+4], ecx
  05b69	8b 45 b4	 mov	 eax, DWORD PTR _lre3$[ebp+8]
  05b6c	89 42 08	 mov	 DWORD PTR [edx+8], eax
  05b6f	8b 4d b8	 mov	 ecx, DWORD PTR _lre3$[ebp+12]
  05b72	89 4a 0c	 mov	 DWORD PTR [edx+12], ecx
  05b75	8d 8d 70 fe ff
	ff		 lea	 ecx, DWORD PTR _lDC$188219[ebp]
  05b7b	e8 00 00 00 00	 call	 ??BCDC@@QBEPAUHDC__@@XZ	; CDC::operator HDC__ *
  05b80	50		 push	 eax
  05b81	b9 00 00 00 00	 mov	 ecx, OFFSET FLAT:?gBitMapOperate@@3VCBitMapOperate@@A
  05b86	e8 00 00 00 00	 call	 ?FillRectangle@CBitMapOperate@@UAEXPAUHDC__@@UtagRECT@@KKW4ENUM_DrawOrientation@1@HI@Z ; CBitMapOperate::FillRectangle

; 1358 : 			SetPixel(lDC,lre1.left,lre1.top, mcolNormal1);

  05b8b	8b f4		 mov	 esi, esp
  05b8d	8b 55 f0	 mov	 edx, DWORD PTR _this$[ebp]
  05b90	8b 82 b0 00 00
	00		 mov	 eax, DWORD PTR [edx+176]
  05b96	50		 push	 eax
  05b97	8b 4d e0	 mov	 ecx, DWORD PTR _lre1$[ebp+4]
  05b9a	51		 push	 ecx
  05b9b	8b 55 dc	 mov	 edx, DWORD PTR _lre1$[ebp]
  05b9e	52		 push	 edx
  05b9f	8d 8d 70 fe ff
	ff		 lea	 ecx, DWORD PTR _lDC$188219[ebp]
  05ba5	e8 00 00 00 00	 call	 ??BCDC@@QBEPAUHDC__@@XZ	; CDC::operator HDC__ *
  05baa	50		 push	 eax
  05bab	ff 15 00 00 00
	00		 call	 DWORD PTR __imp__SetPixel@16
  05bb1	3b f4		 cmp	 esi, esp
  05bb3	e8 00 00 00 00	 call	 __RTC_CheckEsp

; 1359 : 			SetPixel(lDC,lre1.right -1,lre1.top, mcolNormal1);

  05bb8	8b f4		 mov	 esi, esp
  05bba	8b 45 f0	 mov	 eax, DWORD PTR _this$[ebp]
  05bbd	8b 88 b0 00 00
	00		 mov	 ecx, DWORD PTR [eax+176]
  05bc3	51		 push	 ecx
  05bc4	8b 55 e0	 mov	 edx, DWORD PTR _lre1$[ebp+4]
  05bc7	52		 push	 edx
  05bc8	8b 45 e4	 mov	 eax, DWORD PTR _lre1$[ebp+8]
  05bcb	83 e8 01	 sub	 eax, 1
  05bce	50		 push	 eax
  05bcf	8d 8d 70 fe ff
	ff		 lea	 ecx, DWORD PTR _lDC$188219[ebp]
  05bd5	e8 00 00 00 00	 call	 ??BCDC@@QBEPAUHDC__@@XZ	; CDC::operator HDC__ *
  05bda	50		 push	 eax
  05bdb	ff 15 00 00 00
	00		 call	 DWORD PTR __imp__SetPixel@16
  05be1	3b f4		 cmp	 esi, esp
  05be3	e8 00 00 00 00	 call	 __RTC_CheckEsp

; 1360 : 			SetPixel(lDC,lre1.right -1,lre1.bottom-1, mcolNormal1);

  05be8	8b f4		 mov	 esi, esp
  05bea	8b 4d f0	 mov	 ecx, DWORD PTR _this$[ebp]
  05bed	8b 91 b0 00 00
	00		 mov	 edx, DWORD PTR [ecx+176]
  05bf3	52		 push	 edx
  05bf4	8b 45 e8	 mov	 eax, DWORD PTR _lre1$[ebp+12]
  05bf7	83 e8 01	 sub	 eax, 1
  05bfa	50		 push	 eax
  05bfb	8b 4d e4	 mov	 ecx, DWORD PTR _lre1$[ebp+8]
  05bfe	83 e9 01	 sub	 ecx, 1
  05c01	51		 push	 ecx
  05c02	8d 8d 70 fe ff
	ff		 lea	 ecx, DWORD PTR _lDC$188219[ebp]
  05c08	e8 00 00 00 00	 call	 ??BCDC@@QBEPAUHDC__@@XZ	; CDC::operator HDC__ *
  05c0d	50		 push	 eax
  05c0e	ff 15 00 00 00
	00		 call	 DWORD PTR __imp__SetPixel@16
  05c14	3b f4		 cmp	 esi, esp
  05c16	e8 00 00 00 00	 call	 __RTC_CheckEsp

; 1361 : 			SetPixel(lDC,lre1.left,lre1.bottom-1, mcolNormal1);

  05c1b	8b f4		 mov	 esi, esp
  05c1d	8b 55 f0	 mov	 edx, DWORD PTR _this$[ebp]
  05c20	8b 82 b0 00 00
	00		 mov	 eax, DWORD PTR [edx+176]
  05c26	50		 push	 eax
  05c27	8b 4d e8	 mov	 ecx, DWORD PTR _lre1$[ebp+12]
  05c2a	83 e9 01	 sub	 ecx, 1
  05c2d	51		 push	 ecx
  05c2e	8b 55 dc	 mov	 edx, DWORD PTR _lre1$[ebp]
  05c31	52		 push	 edx
  05c32	8d 8d 70 fe ff
	ff		 lea	 ecx, DWORD PTR _lDC$188219[ebp]
  05c38	e8 00 00 00 00	 call	 ??BCDC@@QBEPAUHDC__@@XZ	; CDC::operator HDC__ *
  05c3d	50		 push	 eax
  05c3e	ff 15 00 00 00
	00		 call	 DWORD PTR __imp__SetPixel@16
  05c44	3b f4		 cmp	 esi, esp
  05c46	e8 00 00 00 00	 call	 __RTC_CheckEsp

; 1362 : 
; 1363 : 			// 三条线
; 1364 : 			if( lre2.right >= 15 )

  05c4b	83 7d cc 0f	 cmp	 DWORD PTR _lre2$[ebp+8], 15 ; 0000000fH
  05c4f	0f 8c f0 00 00
	00		 jl	 $L188221

; 1365 : 			{
; 1366 : 				int liLift = lre2.left + (lre2.right - 11 -lre2.left)/2 + 1;

  05c55	8b 45 cc	 mov	 eax, DWORD PTR _lre2$[ebp+8]
  05c58	83 e8 0b	 sub	 eax, 11			; 0000000bH
  05c5b	2b 45 c4	 sub	 eax, DWORD PTR _lre2$[ebp]
  05c5e	99		 cdq
  05c5f	2b c2		 sub	 eax, edx
  05c61	d1 f8		 sar	 eax, 1
  05c63	8b 4d c4	 mov	 ecx, DWORD PTR _lre2$[ebp]
  05c66	8d 54 01 01	 lea	 edx, DWORD PTR [ecx+eax+1]
  05c6a	89 95 68 fe ff
	ff		 mov	 DWORD PTR _liLift$188222[ebp], edx

; 1367 : 
; 1368 : 				gBitMapOperate.DrawLine(lDC,mcolFont,  1, liLift, lre2.top+2, liLift, lre2.bottom-3, FALSE);

  05c70	6a 00		 push	 0
  05c72	8b 45 d0	 mov	 eax, DWORD PTR _lre2$[ebp+12]
  05c75	83 e8 03	 sub	 eax, 3
  05c78	50		 push	 eax
  05c79	8b 8d 68 fe ff
	ff		 mov	 ecx, DWORD PTR _liLift$188222[ebp]
  05c7f	51		 push	 ecx
  05c80	8b 55 c8	 mov	 edx, DWORD PTR _lre2$[ebp+4]
  05c83	83 c2 02	 add	 edx, 2
  05c86	52		 push	 edx
  05c87	8b 85 68 fe ff
	ff		 mov	 eax, DWORD PTR _liLift$188222[ebp]
  05c8d	50		 push	 eax
  05c8e	68 00 00 80 3f	 push	 1065353216		; 3f800000H
  05c93	8b 4d f0	 mov	 ecx, DWORD PTR _this$[ebp]
  05c96	8b 91 d8 00 00
	00		 mov	 edx, DWORD PTR [ecx+216]
  05c9c	52		 push	 edx
  05c9d	8d 8d 70 fe ff
	ff		 lea	 ecx, DWORD PTR _lDC$188219[ebp]
  05ca3	e8 00 00 00 00	 call	 ??BCDC@@QBEPAUHDC__@@XZ	; CDC::operator HDC__ *
  05ca8	50		 push	 eax
  05ca9	b9 00 00 00 00	 mov	 ecx, OFFSET FLAT:?gBitMapOperate@@3VCBitMapOperate@@A
  05cae	e8 00 00 00 00	 call	 ?DrawLine@CBitMapOperate@@UAEXPAUHDC__@@KMHHHHH@Z ; CBitMapOperate::DrawLine

; 1369 : 				gBitMapOperate.DrawLine(lDC, mcolFont,  1, liLift+4, lre2.top+2, liLift+4, lre2.bottom-3, FALSE);

  05cb3	6a 00		 push	 0
  05cb5	8b 45 d0	 mov	 eax, DWORD PTR _lre2$[ebp+12]
  05cb8	83 e8 03	 sub	 eax, 3
  05cbb	50		 push	 eax
  05cbc	8b 8d 68 fe ff
	ff		 mov	 ecx, DWORD PTR _liLift$188222[ebp]
  05cc2	83 c1 04	 add	 ecx, 4
  05cc5	51		 push	 ecx
  05cc6	8b 55 c8	 mov	 edx, DWORD PTR _lre2$[ebp+4]
  05cc9	83 c2 02	 add	 edx, 2
  05ccc	52		 push	 edx
  05ccd	8b 85 68 fe ff
	ff		 mov	 eax, DWORD PTR _liLift$188222[ebp]
  05cd3	83 c0 04	 add	 eax, 4
  05cd6	50		 push	 eax
  05cd7	68 00 00 80 3f	 push	 1065353216		; 3f800000H
  05cdc	8b 4d f0	 mov	 ecx, DWORD PTR _this$[ebp]
  05cdf	8b 91 d8 00 00
	00		 mov	 edx, DWORD PTR [ecx+216]
  05ce5	52		 push	 edx
  05ce6	8d 8d 70 fe ff
	ff		 lea	 ecx, DWORD PTR _lDC$188219[ebp]
  05cec	e8 00 00 00 00	 call	 ??BCDC@@QBEPAUHDC__@@XZ	; CDC::operator HDC__ *
  05cf1	50		 push	 eax
  05cf2	b9 00 00 00 00	 mov	 ecx, OFFSET FLAT:?gBitMapOperate@@3VCBitMapOperate@@A
  05cf7	e8 00 00 00 00	 call	 ?DrawLine@CBitMapOperate@@UAEXPAUHDC__@@KMHHHHH@Z ; CBitMapOperate::DrawLine

; 1370 : 				gBitMapOperate.DrawLine(lDC,mcolFont,  1, liLift+8, lre2.top+2, liLift+8, lre2.bottom-3, FALSE);

  05cfc	6a 00		 push	 0
  05cfe	8b 45 d0	 mov	 eax, DWORD PTR _lre2$[ebp+12]
  05d01	83 e8 03	 sub	 eax, 3
  05d04	50		 push	 eax
  05d05	8b 8d 68 fe ff
	ff		 mov	 ecx, DWORD PTR _liLift$188222[ebp]
  05d0b	83 c1 08	 add	 ecx, 8
  05d0e	51		 push	 ecx
  05d0f	8b 55 c8	 mov	 edx, DWORD PTR _lre2$[ebp+4]
  05d12	83 c2 02	 add	 edx, 2
  05d15	52		 push	 edx
  05d16	8b 85 68 fe ff
	ff		 mov	 eax, DWORD PTR _liLift$188222[ebp]
  05d1c	83 c0 08	 add	 eax, 8
  05d1f	50		 push	 eax
  05d20	68 00 00 80 3f	 push	 1065353216		; 3f800000H
  05d25	8b 4d f0	 mov	 ecx, DWORD PTR _this$[ebp]
  05d28	8b 91 d8 00 00
	00		 mov	 edx, DWORD PTR [ecx+216]
  05d2e	52		 push	 edx
  05d2f	8d 8d 70 fe ff
	ff		 lea	 ecx, DWORD PTR _lDC$188219[ebp]
  05d35	e8 00 00 00 00	 call	 ??BCDC@@QBEPAUHDC__@@XZ	; CDC::operator HDC__ *
  05d3a	50		 push	 eax
  05d3b	b9 00 00 00 00	 mov	 ecx, OFFSET FLAT:?gBitMapOperate@@3VCBitMapOperate@@A
  05d40	e8 00 00 00 00	 call	 ?DrawLine@CBitMapOperate@@UAEXPAUHDC__@@KMHHHHH@Z ; CBitMapOperate::DrawLine
$L188221:

; 1371 : 			}
; 1372 : 
; 1373 : 		}

  05d45	c7 45 fc ff ff
	ff ff		 mov	 DWORD PTR __$EHRec$[ebp+8], -1
  05d4c	8d 8d 70 fe ff
	ff		 lea	 ecx, DWORD PTR _lDC$188219[ebp]
  05d52	e8 00 00 00 00	 call	 ??1CMemDC@@UAE@XZ	; CMemDC::~CMemDC
$L188192:

; 1374 : 		break;
; 1375 : 	}
; 1376 : }

  05d57	52		 push	 edx
  05d58	8b cd		 mov	 ecx, ebp
  05d5a	50		 push	 eax
  05d5b	8d 15 00 00 00
	00		 lea	 edx, DWORD PTR $L189106
  05d61	e8 00 00 00 00	 call	 @_RTC_CheckStackVars@8
  05d66	58		 pop	 eax
  05d67	5a		 pop	 edx
  05d68	8b 4d f4	 mov	 ecx, DWORD PTR __$EHRec$[ebp]
  05d6b	64 89 0d 00 00
	00 00		 mov	 DWORD PTR fs:__except_list, ecx
  05d72	5f		 pop	 edi
  05d73	5e		 pop	 esi
  05d74	81 c4 fc 01 00
	00		 add	 esp, 508		; 000001fcH
  05d7a	3b ec		 cmp	 ebp, esp
  05d7c	e8 00 00 00 00	 call	 __RTC_CheckEsp
  05d81	8b e5		 mov	 esp, ebp
  05d83	5d		 pop	 ebp
  05d84	c2 18 00	 ret	 24			; 00000018H
$L189106:
  05d87	09 00 00 00	 DD	 9
  05d8b	00 00 00 00	 DD	 $L189105
$L189105:
  05d8f	dc ff ff ff	 DD	 -36			; ffffffdcH
  05d93	10 00 00 00	 DD	 16			; 00000010H
  05d97	00 00 00 00	 DD	 $L189095
  05d9b	c4 ff ff ff	 DD	 -60			; ffffffc4H
  05d9f	10 00 00 00	 DD	 16			; 00000010H
  05da3	00 00 00 00	 DD	 $L189096
  05da7	ac ff ff ff	 DD	 -84			; ffffffacH
  05dab	10 00 00 00	 DD	 16			; 00000010H
  05daf	00 00 00 00	 DD	 $L189097
  05db3	78 ff ff ff	 DD	 -136			; ffffff78H
  05db7	2c 00 00 00	 DD	 44			; 0000002cH
  05dbb	00 00 00 00	 DD	 $L189098
  05dbf	44 ff ff ff	 DD	 -188			; ffffff44H
  05dc3	2c 00 00 00	 DD	 44			; 0000002cH
  05dc7	00 00 00 00	 DD	 $L189099
  05dcb	10 ff ff ff	 DD	 -240			; ffffff10H
  05dcf	2c 00 00 00	 DD	 44			; 0000002cH
  05dd3	00 00 00 00	 DD	 $L189100
  05dd7	dc fe ff ff	 DD	 -292			; fffffedcH
  05ddb	2c 00 00 00	 DD	 44			; 0000002cH
  05ddf	00 00 00 00	 DD	 $L189101
  05de3	a8 fe ff ff	 DD	 -344			; fffffea8H
  05de7	2c 00 00 00	 DD	 44			; 0000002cH
  05deb	00 00 00 00	 DD	 $L189102
  05def	70 fe ff ff	 DD	 -400			; fffffe70H
  05df3	2c 00 00 00	 DD	 44			; 0000002cH
  05df7	00 00 00 00	 DD	 $L189103
$L189103:
  05dfb	6c		 DB	 108			; 0000006cH
  05dfc	44		 DB	 68			; 00000044H
  05dfd	43		 DB	 67			; 00000043H
  05dfe	00		 DB	 0
$L189102:
  05dff	6c		 DB	 108			; 0000006cH
  05e00	44		 DB	 68			; 00000044H
  05e01	43		 DB	 67			; 00000043H
  05e02	00		 DB	 0
$L189101:
  05e03	6c		 DB	 108			; 0000006cH
  05e04	44		 DB	 68			; 00000044H
  05e05	43		 DB	 67			; 00000043H
  05e06	00		 DB	 0
$L189100:
  05e07	6c		 DB	 108			; 0000006cH
  05e08	44		 DB	 68			; 00000044H
  05e09	43		 DB	 67			; 00000043H
  05e0a	00		 DB	 0
$L189099:
  05e0b	6c		 DB	 108			; 0000006cH
  05e0c	44		 DB	 68			; 00000044H
  05e0d	43		 DB	 67			; 00000043H
  05e0e	00		 DB	 0
$L189098:
  05e0f	6c		 DB	 108			; 0000006cH
  05e10	44		 DB	 68			; 00000044H
  05e11	43		 DB	 67			; 00000043H
  05e12	00		 DB	 0
$L189097:
  05e13	6c		 DB	 108			; 0000006cH
  05e14	72		 DB	 114			; 00000072H
  05e15	65		 DB	 101			; 00000065H
  05e16	33		 DB	 51			; 00000033H
  05e17	00		 DB	 0
$L189096:
  05e18	6c		 DB	 108			; 0000006cH
  05e19	72		 DB	 114			; 00000072H
  05e1a	65		 DB	 101			; 00000065H
  05e1b	32		 DB	 50			; 00000032H
  05e1c	00		 DB	 0
$L189095:
  05e1d	6c		 DB	 108			; 0000006cH
  05e1e	72		 DB	 114			; 00000072H
  05e1f	65		 DB	 101			; 00000065H
  05e20	31		 DB	 49			; 00000031H
  05e21	00		 DB	 0
$L189107:
  05e22	00 00 00 00	 DD	 $L188200
  05e26	00 00 00 00	 DD	 $L188203
  05e2a	00 00 00 00	 DD	 $L188206
  05e2e	00 00 00 00	 DD	 $L188209
  05e32	00 00 00 00	 DD	 $L188212
_TEXT	ENDS
text$x	SEGMENT
$L189087:
  000b4	8d 8d 78 ff ff
	ff		 lea	 ecx, DWORD PTR _lDC$188201[ebp]
  000ba	e9 00 00 00 00	 jmp	 ??1CMemDC@@UAE@XZ	; CMemDC::~CMemDC
$L189088:
  000bf	8d 8d 44 ff ff
	ff		 lea	 ecx, DWORD PTR _lDC$188204[ebp]
  000c5	e9 00 00 00 00	 jmp	 ??1CMemDC@@UAE@XZ	; CMemDC::~CMemDC
$L189089:
  000ca	8d 8d 10 ff ff
	ff		 lea	 ecx, DWORD PTR _lDC$188207[ebp]
  000d0	e9 00 00 00 00	 jmp	 ??1CMemDC@@UAE@XZ	; CMemDC::~CMemDC
$L189090:
  000d5	8d 8d dc fe ff
	ff		 lea	 ecx, DWORD PTR _lDC$188210[ebp]
  000db	e9 00 00 00 00	 jmp	 ??1CMemDC@@UAE@XZ	; CMemDC::~CMemDC
$L189091:
  000e0	8d 8d a8 fe ff
	ff		 lea	 ecx, DWORD PTR _lDC$188214[ebp]
  000e6	e9 00 00 00 00	 jmp	 ??1CMemDC@@UAE@XZ	; CMemDC::~CMemDC
$L189092:
  000eb	8d 8d 70 fe ff
	ff		 lea	 ecx, DWORD PTR _lDC$188219[ebp]
  000f1	e9 00 00 00 00	 jmp	 ??1CMemDC@@UAE@XZ	; CMemDC::~CMemDC
__ehhandler$?DrawNormalFace@CScrollBarEx@@AAEXPAUHDC__@@UtagRECT@@H@Z:
  000f6	b8 00 00 00 00	 mov	 eax, OFFSET FLAT:$T189094
  000fb	e9 00 00 00 00	 jmp	 ___CxxFrameHandler
text$x	ENDS
?DrawNormalFace@CScrollBarEx@@AAEXPAUHDC__@@UtagRECT@@H@Z ENDP ; CScrollBarEx::DrawNormalFace
EXTRN	__imp__PtInRect@12:NEAR
; Function compile flags: /Odt /RTCsu
_TEXT	SEGMENT
$T189110 = -72						; size = 8
_lrcTest$188232 = -60					; size = 16
_i$188228 = -40						; size = 4
_liIDArr$ = -32						; size = 24
_this$ = -4						; size = 4
_aPoint$ = 8						; size = 8
?HitTest@CScrollBarEx@@AAEIVCPoint@@@Z PROC NEAR	; CScrollBarEx::HitTest
; _this$ = ecx

; 1385 : {

  05e40	55		 push	 ebp
  05e41	8b ec		 mov	 ebp, esp
  05e43	83 ec 48	 sub	 esp, 72			; 00000048H
  05e46	56		 push	 esi
  05e47	57		 push	 edi
  05e48	51		 push	 ecx
  05e49	8d 7d b8	 lea	 edi, DWORD PTR [ebp-72]
  05e4c	b9 12 00 00 00	 mov	 ecx, 18			; 00000012H
  05e51	b8 cc cc cc cc	 mov	 eax, -858993460		; ccccccccH
  05e56	f3 ab		 rep stosd
  05e58	59		 pop	 ecx
  05e59	89 4d fc	 mov	 DWORD PTR _this$[ebp], ecx

; 1386 : 	UINT liIDArr[] = {HT_UPARROW, HT_DOWNARROW, HT_LEFTARROW, HT_RIGHTARROW, HT_THUMB, HT_THUMB_SPACE};

  05e5c	c7 45 e0 64 00
	00 00		 mov	 DWORD PTR _liIDArr$[ebp], 100 ; 00000064H
  05e63	c7 45 e4 65 00
	00 00		 mov	 DWORD PTR _liIDArr$[ebp+4], 101 ; 00000065H
  05e6a	c7 45 e8 66 00
	00 00		 mov	 DWORD PTR _liIDArr$[ebp+8], 102 ; 00000066H
  05e71	c7 45 ec 67 00
	00 00		 mov	 DWORD PTR _liIDArr$[ebp+12], 103 ; 00000067H
  05e78	c7 45 f0 68 00
	00 00		 mov	 DWORD PTR _liIDArr$[ebp+16], 104 ; 00000068H
  05e7f	c7 45 f4 69 00
	00 00		 mov	 DWORD PTR _liIDArr$[ebp+20], 105 ; 00000069H

; 1387 : 	for (int i = 0; i < COUNT_OF(liIDArr); i++)

  05e86	c7 45 d8 00 00
	00 00		 mov	 DWORD PTR _i$188228[ebp], 0
  05e8d	eb 09		 jmp	 SHORT $L188229
$L188230:
  05e8f	8b 45 d8	 mov	 eax, DWORD PTR _i$188228[ebp]
  05e92	83 c0 01	 add	 eax, 1
  05e95	89 45 d8	 mov	 DWORD PTR _i$188228[ebp], eax
$L188229:
  05e98	83 7d d8 06	 cmp	 DWORD PTR _i$188228[ebp], 6
  05e9c	73 4a		 jae	 SHORT $L188231

; 1388 : 	{
; 1389 : 		RECT lrcTest = GetRect(liIDArr[i]);

  05e9e	8b 4d d8	 mov	 ecx, DWORD PTR _i$188228[ebp]
  05ea1	8b 54 8d e0	 mov	 edx, DWORD PTR _liIDArr$[ebp+ecx*4]
  05ea5	52		 push	 edx
  05ea6	8d 45 c4	 lea	 eax, DWORD PTR _lrcTest$188232[ebp]
  05ea9	50		 push	 eax
  05eaa	8b 4d fc	 mov	 ecx, DWORD PTR _this$[ebp]
  05ead	e8 00 00 00 00	 call	 ?GetRect@CScrollBarEx@@AAE?AUtagRECT@@I@Z ; CScrollBarEx::GetRect

; 1390 : 		if (PtInRect(&lrcTest, aPoint))

  05eb2	8b 4d 08	 mov	 ecx, DWORD PTR _aPoint$[ebp]
  05eb5	89 4d b8	 mov	 DWORD PTR $T189110[ebp], ecx
  05eb8	8b 55 0c	 mov	 edx, DWORD PTR _aPoint$[ebp+4]
  05ebb	89 55 bc	 mov	 DWORD PTR $T189110[ebp+4], edx
  05ebe	8b f4		 mov	 esi, esp
  05ec0	8b 45 bc	 mov	 eax, DWORD PTR $T189110[ebp+4]
  05ec3	50		 push	 eax
  05ec4	8b 4d b8	 mov	 ecx, DWORD PTR $T189110[ebp]
  05ec7	51		 push	 ecx
  05ec8	8d 55 c4	 lea	 edx, DWORD PTR _lrcTest$188232[ebp]
  05ecb	52		 push	 edx
  05ecc	ff 15 00 00 00
	00		 call	 DWORD PTR __imp__PtInRect@12
  05ed2	3b f4		 cmp	 esi, esp
  05ed4	e8 00 00 00 00	 call	 __RTC_CheckEsp
  05ed9	85 c0		 test	 eax, eax
  05edb	74 09		 je	 SHORT $L188235

; 1391 : 			return liIDArr[i];

  05edd	8b 45 d8	 mov	 eax, DWORD PTR _i$188228[ebp]
  05ee0	8b 44 85 e0	 mov	 eax, DWORD PTR _liIDArr$[ebp+eax*4]
  05ee4	eb 04		 jmp	 SHORT $L188226
$L188235:

; 1392 : 		//现在如果返回为HT_THUMB_SPACE的时候
; 1393 : 
; 1394 : 	}

  05ee6	eb a7		 jmp	 SHORT $L188230
$L188231:

; 1395 : 	return HTNOWHERE;

  05ee8	33 c0		 xor	 eax, eax
$L188226:

; 1396 : }

  05eea	52		 push	 edx
  05eeb	8b cd		 mov	 ecx, ebp
  05eed	50		 push	 eax
  05eee	8d 15 00 00 00
	00		 lea	 edx, DWORD PTR $L189114
  05ef4	e8 00 00 00 00	 call	 @_RTC_CheckStackVars@8
  05ef9	58		 pop	 eax
  05efa	5a		 pop	 edx
  05efb	5f		 pop	 edi
  05efc	5e		 pop	 esi
  05efd	83 c4 48	 add	 esp, 72			; 00000048H
  05f00	3b ec		 cmp	 ebp, esp
  05f02	e8 00 00 00 00	 call	 __RTC_CheckEsp
  05f07	8b e5		 mov	 esp, ebp
  05f09	5d		 pop	 ebp
  05f0a	c2 08 00	 ret	 8
$L189114:
  05f0d	02 00 00 00	 DD	 2
  05f11	00 00 00 00	 DD	 $L189113
$L189113:
  05f15	e0 ff ff ff	 DD	 -32			; ffffffe0H
  05f19	18 00 00 00	 DD	 24			; 00000018H
  05f1d	00 00 00 00	 DD	 $L189111
  05f21	c4 ff ff ff	 DD	 -60			; ffffffc4H
  05f25	10 00 00 00	 DD	 16			; 00000010H
  05f29	00 00 00 00	 DD	 $L189112
$L189112:
  05f2d	6c		 DB	 108			; 0000006cH
  05f2e	72		 DB	 114			; 00000072H
  05f2f	63		 DB	 99			; 00000063H
  05f30	54		 DB	 84			; 00000054H
  05f31	65		 DB	 101			; 00000065H
  05f32	73		 DB	 115			; 00000073H
  05f33	74		 DB	 116			; 00000074H
  05f34	00		 DB	 0
$L189111:
  05f35	6c		 DB	 108			; 0000006cH
  05f36	69		 DB	 105			; 00000069H
  05f37	49		 DB	 73			; 00000049H
  05f38	44		 DB	 68			; 00000044H
  05f39	41		 DB	 65			; 00000041H
  05f3a	72		 DB	 114			; 00000072H
  05f3b	72		 DB	 114			; 00000072H
  05f3c	00		 DB	 0
?HitTest@CScrollBarEx@@AAEIVCPoint@@@Z ENDP		; CScrollBarEx::HitTest
; Function compile flags: /Odt /RTCsu
_lPoint$ = -16						; size = 8
_this$ = -4						; size = 4
?HitTest@CScrollBarEx@@AAEIXZ PROC NEAR			; CScrollBarEx::HitTest
; _this$ = ecx

; 1405 : {

  05f40	55		 push	 ebp
  05f41	8b ec		 mov	 ebp, esp
  05f43	83 ec 14	 sub	 esp, 20			; 00000014H
  05f46	56		 push	 esi
  05f47	b8 cc cc cc cc	 mov	 eax, -858993460		; ccccccccH
  05f4c	89 45 ec	 mov	 DWORD PTR [ebp-20], eax
  05f4f	89 45 f0	 mov	 DWORD PTR [ebp-16], eax
  05f52	89 45 f4	 mov	 DWORD PTR [ebp-12], eax
  05f55	89 45 f8	 mov	 DWORD PTR [ebp-8], eax
  05f58	89 45 fc	 mov	 DWORD PTR [ebp-4], eax
  05f5b	89 4d fc	 mov	 DWORD PTR _this$[ebp], ecx

; 1406 : 	CPoint lPoint;

  05f5e	8d 4d f0	 lea	 ecx, DWORD PTR _lPoint$[ebp]
  05f61	e8 00 00 00 00	 call	 ??0CPoint@@QAE@XZ	; CPoint::CPoint

; 1407 : 	GetCursorPos(&lPoint);

  05f66	8b f4		 mov	 esi, esp
  05f68	8d 45 f0	 lea	 eax, DWORD PTR _lPoint$[ebp]
  05f6b	50		 push	 eax
  05f6c	ff 15 00 00 00
	00		 call	 DWORD PTR __imp__GetCursorPos@4
  05f72	3b f4		 cmp	 esi, esp
  05f74	e8 00 00 00 00	 call	 __RTC_CheckEsp

; 1408 : 	ScreenToClient(&lPoint);

  05f79	8d 4d f0	 lea	 ecx, DWORD PTR _lPoint$[ebp]
  05f7c	51		 push	 ecx
  05f7d	8b 4d fc	 mov	 ecx, DWORD PTR _this$[ebp]
  05f80	e8 00 00 00 00	 call	 ?ScreenToClient@CWnd@@QBEXPAUtagPOINT@@@Z ; CWnd::ScreenToClient

; 1409 : 	return HitTest(lPoint);

  05f85	8b 55 f4	 mov	 edx, DWORD PTR _lPoint$[ebp+4]
  05f88	52		 push	 edx
  05f89	8b 45 f0	 mov	 eax, DWORD PTR _lPoint$[ebp]
  05f8c	50		 push	 eax
  05f8d	8b 4d fc	 mov	 ecx, DWORD PTR _this$[ebp]
  05f90	e8 00 00 00 00	 call	 ?HitTest@CScrollBarEx@@AAEIVCPoint@@@Z ; CScrollBarEx::HitTest

; 1410 : }

  05f95	52		 push	 edx
  05f96	8b cd		 mov	 ecx, ebp
  05f98	50		 push	 eax
  05f99	8d 15 00 00 00
	00		 lea	 edx, DWORD PTR $L189118
  05f9f	e8 00 00 00 00	 call	 @_RTC_CheckStackVars@8
  05fa4	58		 pop	 eax
  05fa5	5a		 pop	 edx
  05fa6	5e		 pop	 esi
  05fa7	83 c4 14	 add	 esp, 20			; 00000014H
  05faa	3b ec		 cmp	 ebp, esp
  05fac	e8 00 00 00 00	 call	 __RTC_CheckEsp
  05fb1	8b e5		 mov	 esp, ebp
  05fb3	5d		 pop	 ebp
  05fb4	c3		 ret	 0
$L189118:
  05fb5	01 00 00 00	 DD	 1
  05fb9	00 00 00 00	 DD	 $L189117
$L189117:
  05fbd	f0 ff ff ff	 DD	 -16			; fffffff0H
  05fc1	08 00 00 00	 DD	 8
  05fc5	00 00 00 00	 DD	 $L189116
$L189116:
  05fc9	6c		 DB	 108			; 0000006cH
  05fca	50		 DB	 80			; 00000050H
  05fcb	6f		 DB	 111			; 0000006fH
  05fcc	69		 DB	 105			; 00000069H
  05fcd	6e		 DB	 110			; 0000006eH
  05fce	74		 DB	 116			; 00000074H
  05fcf	00		 DB	 0
?HitTest@CScrollBarEx@@AAEIXZ ENDP			; CScrollBarEx::HitTest
; Function compile flags: /Odt /RTCsu
tv64 = -48						; size = 4
_liCenter$188262 = -44					; size = 4
_liLength$188261 = -40					; size = 4
_liThumbSpace$188260 = -36				; size = 4
_si$188259 = -32					; size = 4
_lrcResult$ = -24					; size = 16
_this$ = -4						; size = 4
___$ReturnUdt$ = 8					; size = 4
_aiHitTest$ = 12					; size = 4
?GetRect@CScrollBarEx@@AAE?AUtagRECT@@I@Z PROC NEAR	; CScrollBarEx::GetRect
; _this$ = ecx

; 1419 : {

  05fd0	55		 push	 ebp
  05fd1	8b ec		 mov	 ebp, esp
  05fd3	83 ec 30	 sub	 esp, 48			; 00000030H
  05fd6	56		 push	 esi
  05fd7	57		 push	 edi
  05fd8	51		 push	 ecx
  05fd9	8d 7d d0	 lea	 edi, DWORD PTR [ebp-48]
  05fdc	b9 0c 00 00 00	 mov	 ecx, 12			; 0000000cH
  05fe1	b8 cc cc cc cc	 mov	 eax, -858993460		; ccccccccH
  05fe6	f3 ab		 rep stosd
  05fe8	59		 pop	 ecx
  05fe9	89 4d fc	 mov	 DWORD PTR _this$[ebp], ecx

; 1420 : 	RECT lrcResult;
; 1421 : 	lrcResult.left = 0;

  05fec	c7 45 e8 00 00
	00 00		 mov	 DWORD PTR _lrcResult$[ebp], 0

; 1422 : 	lrcResult.top = 0;

  05ff3	c7 45 ec 00 00
	00 00		 mov	 DWORD PTR _lrcResult$[ebp+4], 0

; 1423 : 	lrcResult.right = 0;

  05ffa	c7 45 f0 00 00
	00 00		 mov	 DWORD PTR _lrcResult$[ebp+8], 0

; 1424 : 	lrcResult.bottom = 0;

  06001	c7 45 f4 00 00
	00 00		 mov	 DWORD PTR _lrcResult$[ebp+12], 0

; 1425 : 
; 1426 : 	switch(aiHitTest) 

  06008	8b 45 0c	 mov	 eax, DWORD PTR _aiHitTest$[ebp]
  0600b	89 45 d0	 mov	 DWORD PTR tv64[ebp], eax
  0600e	8b 4d d0	 mov	 ecx, DWORD PTR tv64[ebp]
  06011	83 e9 64	 sub	 ecx, 100		; 00000064H
  06014	89 4d d0	 mov	 DWORD PTR tv64[ebp], ecx
  06017	83 7d d0 05	 cmp	 DWORD PTR tv64[ebp], 5
  0601b	0f 87 bb 03 00
	00		 ja	 $L188247
  06021	8b 55 d0	 mov	 edx, DWORD PTR tv64[ebp]
  06024	ff 24 95 00 00
	00 00		 jmp	 DWORD PTR $L189123[edx*4]
$L188250:

; 1427 : 	{
; 1428 : 	case HT_UPARROW:
; 1429 : 		{
; 1430 : 			if (mScrollOrientation == esoVertical)

  0602b	8b 45 fc	 mov	 eax, DWORD PTR _this$[ebp]
  0602e	83 b8 80 00 00
	00 01		 cmp	 DWORD PTR [eax+128], 1
  06035	75 2c		 jne	 SHORT $L188251

; 1431 : 			{
; 1432 : 				lrcResult.left = 2;

  06037	c7 45 e8 02 00
	00 00		 mov	 DWORD PTR _lrcResult$[ebp], 2

; 1433 : 				lrcResult.top = 2;

  0603e	c7 45 ec 02 00
	00 00		 mov	 DWORD PTR _lrcResult$[ebp+4], 2

; 1434 : 				lrcResult.right = mrcClient.right - 2;

  06045	8b 4d fc	 mov	 ecx, DWORD PTR _this$[ebp]
  06048	8b 91 8c 00 00
	00		 mov	 edx, DWORD PTR [ecx+140]
  0604e	83 ea 02	 sub	 edx, 2
  06051	89 55 f0	 mov	 DWORD PTR _lrcResult$[ebp+8], edx

; 1435 : 				lrcResult.bottom = miButtonSize - 2;

  06054	8b 45 fc	 mov	 eax, DWORD PTR _this$[ebp]
  06057	8b 88 94 00 00
	00		 mov	 ecx, DWORD PTR [eax+148]
  0605d	83 e9 02	 sub	 ecx, 2
  06060	89 4d f4	 mov	 DWORD PTR _lrcResult$[ebp+12], ecx
$L188251:

; 1436 : 			}
; 1437 : 		}
; 1438 : 		break;

  06063	e9 74 03 00 00	 jmp	 $L188247
$L188252:

; 1439 : 	case HT_DOWNARROW:
; 1440 : 		{
; 1441 : 			if (mScrollOrientation == esoVertical)

  06068	8b 55 fc	 mov	 edx, DWORD PTR _this$[ebp]
  0606b	83 ba 80 00 00
	00 01		 cmp	 DWORD PTR [edx+128], 1
  06072	75 3d		 jne	 SHORT $L188253

; 1442 : 			{
; 1443 : 				lrcResult.left = 2;

  06074	c7 45 e8 02 00
	00 00		 mov	 DWORD PTR _lrcResult$[ebp], 2

; 1444 : 				lrcResult.top = mrcClient.bottom - miButtonSize + 1;

  0607b	8b 45 fc	 mov	 eax, DWORD PTR _this$[ebp]
  0607e	8b 4d fc	 mov	 ecx, DWORD PTR _this$[ebp]
  06081	8b 90 90 00 00
	00		 mov	 edx, DWORD PTR [eax+144]
  06087	2b 91 94 00 00
	00		 sub	 edx, DWORD PTR [ecx+148]
  0608d	83 c2 01	 add	 edx, 1
  06090	89 55 ec	 mov	 DWORD PTR _lrcResult$[ebp+4], edx

; 1445 : 				lrcResult.right = mrcClient.right - 2;

  06093	8b 45 fc	 mov	 eax, DWORD PTR _this$[ebp]
  06096	8b 88 8c 00 00
	00		 mov	 ecx, DWORD PTR [eax+140]
  0609c	83 e9 02	 sub	 ecx, 2
  0609f	89 4d f0	 mov	 DWORD PTR _lrcResult$[ebp+8], ecx

; 1446 : 				lrcResult.bottom = mrcClient.bottom - 3;

  060a2	8b 55 fc	 mov	 edx, DWORD PTR _this$[ebp]
  060a5	8b 82 90 00 00
	00		 mov	 eax, DWORD PTR [edx+144]
  060ab	83 e8 03	 sub	 eax, 3
  060ae	89 45 f4	 mov	 DWORD PTR _lrcResult$[ebp+12], eax
$L188253:

; 1447 : 			}
; 1448 : 		}
; 1449 : 		break;

  060b1	e9 26 03 00 00	 jmp	 $L188247
$L188254:

; 1450 : 	case HT_LEFTARROW:
; 1451 : 		{
; 1452 : 			if (mScrollOrientation == esoHorizontal)

  060b6	8b 4d fc	 mov	 ecx, DWORD PTR _this$[ebp]
  060b9	83 b9 80 00 00
	00 00		 cmp	 DWORD PTR [ecx+128], 0
  060c0	75 2c		 jne	 SHORT $L188255

; 1453 : 			{
; 1454 : 				lrcResult.left = 1;

  060c2	c7 45 e8 01 00
	00 00		 mov	 DWORD PTR _lrcResult$[ebp], 1

; 1455 : 				lrcResult.top = 2;

  060c9	c7 45 ec 02 00
	00 00		 mov	 DWORD PTR _lrcResult$[ebp+4], 2

; 1456 : 				lrcResult.right = miButtonSize - 2;

  060d0	8b 55 fc	 mov	 edx, DWORD PTR _this$[ebp]
  060d3	8b 82 94 00 00
	00		 mov	 eax, DWORD PTR [edx+148]
  060d9	83 e8 02	 sub	 eax, 2
  060dc	89 45 f0	 mov	 DWORD PTR _lrcResult$[ebp+8], eax

; 1457 : 				lrcResult.bottom = mrcClient.bottom - 2;

  060df	8b 4d fc	 mov	 ecx, DWORD PTR _this$[ebp]
  060e2	8b 91 90 00 00
	00		 mov	 edx, DWORD PTR [ecx+144]
  060e8	83 ea 02	 sub	 edx, 2
  060eb	89 55 f4	 mov	 DWORD PTR _lrcResult$[ebp+12], edx
$L188255:

; 1458 : 			}
; 1459 : 		}
; 1460 : 		break;

  060ee	e9 e9 02 00 00	 jmp	 $L188247
$L188256:

; 1461 : 	case HT_RIGHTARROW:
; 1462 : 		{
; 1463 : 			if (mScrollOrientation == esoHorizontal)

  060f3	8b 45 fc	 mov	 eax, DWORD PTR _this$[ebp]
  060f6	83 b8 80 00 00
	00 00		 cmp	 DWORD PTR [eax+128], 0
  060fd	75 3d		 jne	 SHORT $L188257

; 1464 : 			{
; 1465 : 				lrcResult.left = mrcClient.right - miButtonSize + 2;

  060ff	8b 4d fc	 mov	 ecx, DWORD PTR _this$[ebp]
  06102	8b 55 fc	 mov	 edx, DWORD PTR _this$[ebp]
  06105	8b 81 8c 00 00
	00		 mov	 eax, DWORD PTR [ecx+140]
  0610b	2b 82 94 00 00
	00		 sub	 eax, DWORD PTR [edx+148]
  06111	83 c0 02	 add	 eax, 2
  06114	89 45 e8	 mov	 DWORD PTR _lrcResult$[ebp], eax

; 1466 : 				lrcResult.top = 2;

  06117	c7 45 ec 02 00
	00 00		 mov	 DWORD PTR _lrcResult$[ebp+4], 2

; 1467 : 				lrcResult.right = mrcClient.right - 1;

  0611e	8b 4d fc	 mov	 ecx, DWORD PTR _this$[ebp]
  06121	8b 91 8c 00 00
	00		 mov	 edx, DWORD PTR [ecx+140]
  06127	83 ea 01	 sub	 edx, 1
  0612a	89 55 f0	 mov	 DWORD PTR _lrcResult$[ebp+8], edx

; 1468 : 				lrcResult.bottom = mrcClient.bottom - 2;

  0612d	8b 45 fc	 mov	 eax, DWORD PTR _this$[ebp]
  06130	8b 88 90 00 00
	00		 mov	 ecx, DWORD PTR [eax+144]
  06136	83 e9 02	 sub	 ecx, 2
  06139	89 4d f4	 mov	 DWORD PTR _lrcResult$[ebp+12], ecx
$L188257:

; 1469 : 			}
; 1470 : 		}
; 1471 : 		break;

  0613c	e9 9b 02 00 00	 jmp	 $L188247
$L188258:

; 1472 : 	case HT_THUMB:
; 1473 : 		{
; 1474 : 			SCROLLINFO &si = mScrollInfo;

  06141	8b 55 fc	 mov	 edx, DWORD PTR _this$[ebp]
  06144	83 c2 64	 add	 edx, 100		; 00000064H
  06147	89 55 e0	 mov	 DWORD PTR _si$188259[ebp], edx

; 1475 : 			int liThumbSpace;
; 1476 : 			int liLength;
; 1477 : 			int liCenter;
; 1478 : 
; 1479 : 			if (si.nMax > si.nMin && si.nMax > 1)

  0614a	8b 45 e0	 mov	 eax, DWORD PTR _si$188259[ebp]
  0614d	8b 4d e0	 mov	 ecx, DWORD PTR _si$188259[ebp]
  06150	8b 50 0c	 mov	 edx, DWORD PTR [eax+12]
  06153	3b 51 08	 cmp	 edx, DWORD PTR [ecx+8]
  06156	0f 8e ed 01 00
	00		 jle	 $L188263
  0615c	8b 45 e0	 mov	 eax, DWORD PTR _si$188259[ebp]
  0615f	83 78 0c 01	 cmp	 DWORD PTR [eax+12], 1
  06163	0f 8e e0 01 00
	00		 jle	 $L188263

; 1480 : 			{
; 1481 : 				if (mScrollOrientation == esoVertical)

  06169	8b 4d fc	 mov	 ecx, DWORD PTR _this$[ebp]
  0616c	83 b9 80 00 00
	00 01		 cmp	 DWORD PTR [ecx+128], 1
  06173	0f 85 2d 01 00
	00		 jne	 $L188264

; 1482 : 				{
; 1483 : 					lrcResult.left = 2;

  06179	c7 45 e8 02 00
	00 00		 mov	 DWORD PTR _lrcResult$[ebp], 2

; 1484 : 					lrcResult.right = mrcClient.right - 2;

  06180	8b 55 fc	 mov	 edx, DWORD PTR _this$[ebp]
  06183	8b 82 8c 00 00
	00		 mov	 eax, DWORD PTR [edx+140]
  06189	83 e8 02	 sub	 eax, 2
  0618c	89 45 f0	 mov	 DWORD PTR _lrcResult$[ebp+8], eax

; 1485 : 					liThumbSpace = (mrcClient.bottom - mrcClient.top) - miButtonSize * 2;

  0618f	8b 4d fc	 mov	 ecx, DWORD PTR _this$[ebp]
  06192	8b 55 fc	 mov	 edx, DWORD PTR _this$[ebp]
  06195	8b 81 90 00 00
	00		 mov	 eax, DWORD PTR [ecx+144]
  0619b	2b 82 88 00 00
	00		 sub	 eax, DWORD PTR [edx+136]
  061a1	8b 4d fc	 mov	 ecx, DWORD PTR _this$[ebp]
  061a4	8b 91 94 00 00
	00		 mov	 edx, DWORD PTR [ecx+148]
  061aa	d1 e2		 shl	 edx, 1
  061ac	2b c2		 sub	 eax, edx
  061ae	89 45 dc	 mov	 DWORD PTR _liThumbSpace$188260[ebp], eax

; 1486 : 					liLength = (int)(liThumbSpace * si.nPage / (si.nMax - si.nMin + 1));

  061b1	8b 45 e0	 mov	 eax, DWORD PTR _si$188259[ebp]
  061b4	8b 4d dc	 mov	 ecx, DWORD PTR _liThumbSpace$188260[ebp]
  061b7	0f af 48 10	 imul	 ecx, DWORD PTR [eax+16]
  061bb	8b 55 e0	 mov	 edx, DWORD PTR _si$188259[ebp]
  061be	8b 45 e0	 mov	 eax, DWORD PTR _si$188259[ebp]
  061c1	8b 72 0c	 mov	 esi, DWORD PTR [edx+12]
  061c4	2b 70 08	 sub	 esi, DWORD PTR [eax+8]
  061c7	83 c6 01	 add	 esi, 1
  061ca	8b c1		 mov	 eax, ecx
  061cc	33 d2		 xor	 edx, edx
  061ce	f7 f6		 div	 esi
  061d0	89 45 d8	 mov	 DWORD PTR _liLength$188261[ebp], eax

; 1487 : 					liCenter = (int)(liThumbSpace * (si.nPos + si.nPage) / (si.nMax - si.nMin + 1));

  061d3	8b 4d e0	 mov	 ecx, DWORD PTR _si$188259[ebp]
  061d6	8b 51 14	 mov	 edx, DWORD PTR [ecx+20]
  061d9	8b 45 e0	 mov	 eax, DWORD PTR _si$188259[ebp]
  061dc	03 50 10	 add	 edx, DWORD PTR [eax+16]
  061df	8b c2		 mov	 eax, edx
  061e1	0f af 45 dc	 imul	 eax, DWORD PTR _liThumbSpace$188260[ebp]
  061e5	8b 4d e0	 mov	 ecx, DWORD PTR _si$188259[ebp]
  061e8	8b 55 e0	 mov	 edx, DWORD PTR _si$188259[ebp]
  061eb	8b 49 0c	 mov	 ecx, DWORD PTR [ecx+12]
  061ee	2b 4a 08	 sub	 ecx, DWORD PTR [edx+8]
  061f1	83 c1 01	 add	 ecx, 1
  061f4	33 d2		 xor	 edx, edx
  061f6	f7 f1		 div	 ecx
  061f8	89 45 d4	 mov	 DWORD PTR _liCenter$188262[ebp], eax

; 1488 : 					if (liLength > 5)

  061fb	83 7d d8 05	 cmp	 DWORD PTR _liLength$188261[ebp], 5
  061ff	7e 23		 jle	 SHORT $L188267

; 1489 : 					{
; 1490 : 						lrcResult.top = miButtonSize + liCenter - liLength;

  06201	8b 55 fc	 mov	 edx, DWORD PTR _this$[ebp]
  06204	8b 82 94 00 00
	00		 mov	 eax, DWORD PTR [edx+148]
  0620a	03 45 d4	 add	 eax, DWORD PTR _liCenter$188262[ebp]
  0620d	2b 45 d8	 sub	 eax, DWORD PTR _liLength$188261[ebp]
  06210	89 45 ec	 mov	 DWORD PTR _lrcResult$[ebp+4], eax

; 1491 : 						lrcResult.bottom = miButtonSize + liCenter;

  06213	8b 4d fc	 mov	 ecx, DWORD PTR _this$[ebp]
  06216	8b 91 94 00 00
	00		 mov	 edx, DWORD PTR [ecx+148]
  0621c	03 55 d4	 add	 edx, DWORD PTR _liCenter$188262[ebp]
  0621f	89 55 f4	 mov	 DWORD PTR _lrcResult$[ebp+12], edx

; 1492 : 					}
; 1493 : 					else if (miButtonSize + liCenter + 2 < mrcClient.bottom - miButtonSize)

  06222	eb 7d		 jmp	 SHORT $L188268
$L188267:
  06224	8b 45 fc	 mov	 eax, DWORD PTR _this$[ebp]
  06227	8b 88 94 00 00
	00		 mov	 ecx, DWORD PTR [eax+148]
  0622d	8b 55 d4	 mov	 edx, DWORD PTR _liCenter$188262[ebp]
  06230	8d 44 11 02	 lea	 eax, DWORD PTR [ecx+edx+2]
  06234	8b 4d fc	 mov	 ecx, DWORD PTR _this$[ebp]
  06237	8b 55 fc	 mov	 edx, DWORD PTR _this$[ebp]
  0623a	8b 89 90 00 00
	00		 mov	 ecx, DWORD PTR [ecx+144]
  06240	2b 8a 94 00 00
	00		 sub	 ecx, DWORD PTR [edx+148]
  06246	3b c1		 cmp	 eax, ecx
  06248	7d 2a		 jge	 SHORT $L188269

; 1494 : 					{
; 1495 : 						lrcResult.top = miButtonSize + liCenter - liLength;

  0624a	8b 55 fc	 mov	 edx, DWORD PTR _this$[ebp]
  0624d	8b 82 94 00 00
	00		 mov	 eax, DWORD PTR [edx+148]
  06253	03 45 d4	 add	 eax, DWORD PTR _liCenter$188262[ebp]
  06256	2b 45 d8	 sub	 eax, DWORD PTR _liLength$188261[ebp]
  06259	89 45 ec	 mov	 DWORD PTR _lrcResult$[ebp+4], eax

; 1496 : 						lrcResult.bottom = miButtonSize + liCenter + 5 - liLength;

  0625c	8b 4d fc	 mov	 ecx, DWORD PTR _this$[ebp]
  0625f	8b 91 94 00 00
	00		 mov	 edx, DWORD PTR [ecx+148]
  06265	8b 45 d4	 mov	 eax, DWORD PTR _liCenter$188262[ebp]
  06268	8d 4c 02 05	 lea	 ecx, DWORD PTR [edx+eax+5]
  0626c	2b 4d d8	 sub	 ecx, DWORD PTR _liLength$188261[ebp]
  0626f	89 4d f4	 mov	 DWORD PTR _lrcResult$[ebp+12], ecx

; 1497 : 					}
; 1498 : 					else

  06272	eb 2d		 jmp	 SHORT $L188268
$L188269:

; 1499 : 					{
; 1500 : 						lrcResult.top = mrcClient.bottom - miButtonSize - 5;

  06274	8b 55 fc	 mov	 edx, DWORD PTR _this$[ebp]
  06277	8b 45 fc	 mov	 eax, DWORD PTR _this$[ebp]
  0627a	8b 8a 90 00 00
	00		 mov	 ecx, DWORD PTR [edx+144]
  06280	2b 88 94 00 00
	00		 sub	 ecx, DWORD PTR [eax+148]
  06286	83 e9 05	 sub	 ecx, 5
  06289	89 4d ec	 mov	 DWORD PTR _lrcResult$[ebp+4], ecx

; 1501 : 						lrcResult.bottom = mrcClient.bottom - miButtonSize;

  0628c	8b 55 fc	 mov	 edx, DWORD PTR _this$[ebp]
  0628f	8b 45 fc	 mov	 eax, DWORD PTR _this$[ebp]
  06292	8b 8a 90 00 00
	00		 mov	 ecx, DWORD PTR [edx+144]
  06298	2b 88 94 00 00
	00		 sub	 ecx, DWORD PTR [eax+148]
  0629e	89 4d f4	 mov	 DWORD PTR _lrcResult$[ebp+12], ecx
$L188268:

; 1502 : 					}
; 1503 : 				}
; 1504 : 				else

  062a1	e9 a3 00 00 00	 jmp	 $L188263
$L188264:

; 1505 : 				{
; 1506 : 					lrcResult.top = 2;

  062a6	c7 45 ec 02 00
	00 00		 mov	 DWORD PTR _lrcResult$[ebp+4], 2

; 1507 : 					lrcResult.bottom = mrcClient.bottom - 2;

  062ad	8b 55 fc	 mov	 edx, DWORD PTR _this$[ebp]
  062b0	8b 82 90 00 00
	00		 mov	 eax, DWORD PTR [edx+144]
  062b6	83 e8 02	 sub	 eax, 2
  062b9	89 45 f4	 mov	 DWORD PTR _lrcResult$[ebp+12], eax

; 1508 : 					liThumbSpace = (mrcClient.right - mrcClient.left) - miButtonSize * 2;

  062bc	8b 4d fc	 mov	 ecx, DWORD PTR _this$[ebp]
  062bf	8b 55 fc	 mov	 edx, DWORD PTR _this$[ebp]
  062c2	8b 81 8c 00 00
	00		 mov	 eax, DWORD PTR [ecx+140]
  062c8	2b 82 84 00 00
	00		 sub	 eax, DWORD PTR [edx+132]
  062ce	8b 4d fc	 mov	 ecx, DWORD PTR _this$[ebp]
  062d1	8b 91 94 00 00
	00		 mov	 edx, DWORD PTR [ecx+148]
  062d7	d1 e2		 shl	 edx, 1
  062d9	2b c2		 sub	 eax, edx
  062db	89 45 dc	 mov	 DWORD PTR _liThumbSpace$188260[ebp], eax

; 1509 : 					liLength = (int)(liThumbSpace * si.nPage / (si.nMax - si.nMin + 1));

  062de	8b 45 e0	 mov	 eax, DWORD PTR _si$188259[ebp]
  062e1	8b 4d dc	 mov	 ecx, DWORD PTR _liThumbSpace$188260[ebp]
  062e4	0f af 48 10	 imul	 ecx, DWORD PTR [eax+16]
  062e8	8b 55 e0	 mov	 edx, DWORD PTR _si$188259[ebp]
  062eb	8b 45 e0	 mov	 eax, DWORD PTR _si$188259[ebp]
  062ee	8b 72 0c	 mov	 esi, DWORD PTR [edx+12]
  062f1	2b 70 08	 sub	 esi, DWORD PTR [eax+8]
  062f4	83 c6 01	 add	 esi, 1
  062f7	8b c1		 mov	 eax, ecx
  062f9	33 d2		 xor	 edx, edx
  062fb	f7 f6		 div	 esi
  062fd	89 45 d8	 mov	 DWORD PTR _liLength$188261[ebp], eax

; 1510 : 					liCenter = (int)(liThumbSpace * (si.nPos + si.nPage) / (si.nMax - si.nMin + 1));

  06300	8b 4d e0	 mov	 ecx, DWORD PTR _si$188259[ebp]
  06303	8b 51 14	 mov	 edx, DWORD PTR [ecx+20]
  06306	8b 45 e0	 mov	 eax, DWORD PTR _si$188259[ebp]
  06309	03 50 10	 add	 edx, DWORD PTR [eax+16]
  0630c	8b c2		 mov	 eax, edx
  0630e	0f af 45 dc	 imul	 eax, DWORD PTR _liThumbSpace$188260[ebp]
  06312	8b 4d e0	 mov	 ecx, DWORD PTR _si$188259[ebp]
  06315	8b 55 e0	 mov	 edx, DWORD PTR _si$188259[ebp]
  06318	8b 49 0c	 mov	 ecx, DWORD PTR [ecx+12]
  0631b	2b 4a 08	 sub	 ecx, DWORD PTR [edx+8]
  0631e	83 c1 01	 add	 ecx, 1
  06321	33 d2		 xor	 edx, edx
  06323	f7 f1		 div	 ecx
  06325	89 45 d4	 mov	 DWORD PTR _liCenter$188262[ebp], eax

; 1511 : 					lrcResult.left = miButtonSize + liCenter - liLength;

  06328	8b 55 fc	 mov	 edx, DWORD PTR _this$[ebp]
  0632b	8b 82 94 00 00
	00		 mov	 eax, DWORD PTR [edx+148]
  06331	03 45 d4	 add	 eax, DWORD PTR _liCenter$188262[ebp]
  06334	2b 45 d8	 sub	 eax, DWORD PTR _liLength$188261[ebp]
  06337	89 45 e8	 mov	 DWORD PTR _lrcResult$[ebp], eax

; 1512 : 					lrcResult.right = miButtonSize + liCenter;

  0633a	8b 4d fc	 mov	 ecx, DWORD PTR _this$[ebp]
  0633d	8b 91 94 00 00
	00		 mov	 edx, DWORD PTR [ecx+148]
  06343	03 55 d4	 add	 edx, DWORD PTR _liCenter$188262[ebp]
  06346	89 55 f0	 mov	 DWORD PTR _lrcResult$[ebp+8], edx
$L188263:

; 1513 : 				}
; 1514 : 			}
; 1515 : 		}
; 1516 : 		break;

  06349	e9 8e 00 00 00	 jmp	 $L188247
$L188274:

; 1517 : 	case HT_THUMB_SPACE:
; 1518 : 		{
; 1519 : 			if (mScrollOrientation == esoVertical)

  0634e	8b 45 fc	 mov	 eax, DWORD PTR _this$[ebp]
  06351	83 b8 80 00 00
	00 01		 cmp	 DWORD PTR [eax+128], 1
  06358	75 3c		 jne	 SHORT $L188275

; 1520 : 			{
; 1521 : 				lrcResult.left = 1;

  0635a	c7 45 e8 01 00
	00 00		 mov	 DWORD PTR _lrcResult$[ebp], 1

; 1522 : 				lrcResult.top = miButtonSize-1 ;

  06361	8b 4d fc	 mov	 ecx, DWORD PTR _this$[ebp]
  06364	8b 91 94 00 00
	00		 mov	 edx, DWORD PTR [ecx+148]
  0636a	83 ea 01	 sub	 edx, 1
  0636d	89 55 ec	 mov	 DWORD PTR _lrcResult$[ebp+4], edx

; 1523 : 				lrcResult.right = mrcClient.right-1;

  06370	8b 45 fc	 mov	 eax, DWORD PTR _this$[ebp]
  06373	8b 88 8c 00 00
	00		 mov	 ecx, DWORD PTR [eax+140]
  06379	83 e9 01	 sub	 ecx, 1
  0637c	89 4d f0	 mov	 DWORD PTR _lrcResult$[ebp+8], ecx

; 1524 : 				//lrcResult.bottom = (mrcClient.bottom - mrcClient.top) - miButtonSize + 1;
; 1525 : 				lrcResult.bottom = mrcClient.bottom - miButtonSize;

  0637f	8b 55 fc	 mov	 edx, DWORD PTR _this$[ebp]
  06382	8b 45 fc	 mov	 eax, DWORD PTR _this$[ebp]
  06385	8b 8a 90 00 00
	00		 mov	 ecx, DWORD PTR [edx+144]
  0638b	2b 88 94 00 00
	00		 sub	 ecx, DWORD PTR [eax+148]
  06391	89 4d f4	 mov	 DWORD PTR _lrcResult$[ebp+12], ecx

; 1526 : 			}
; 1527 : 			else

  06394	eb 46		 jmp	 SHORT $L188247
$L188275:

; 1528 : 			{
; 1529 : 				lrcResult.left = miButtonSize -1;

  06396	8b 55 fc	 mov	 edx, DWORD PTR _this$[ebp]
  06399	8b 82 94 00 00
	00		 mov	 eax, DWORD PTR [edx+148]
  0639f	83 e8 01	 sub	 eax, 1
  063a2	89 45 e8	 mov	 DWORD PTR _lrcResult$[ebp], eax

; 1530 : 				lrcResult.top = 1;

  063a5	c7 45 ec 01 00
	00 00		 mov	 DWORD PTR _lrcResult$[ebp+4], 1

; 1531 : 				lrcResult.right = (mrcClient.right - mrcClient.left) - miButtonSize +1;

  063ac	8b 4d fc	 mov	 ecx, DWORD PTR _this$[ebp]
  063af	8b 55 fc	 mov	 edx, DWORD PTR _this$[ebp]
  063b2	8b 81 8c 00 00
	00		 mov	 eax, DWORD PTR [ecx+140]
  063b8	2b 82 84 00 00
	00		 sub	 eax, DWORD PTR [edx+132]
  063be	8b 4d fc	 mov	 ecx, DWORD PTR _this$[ebp]
  063c1	2b 81 94 00 00
	00		 sub	 eax, DWORD PTR [ecx+148]
  063c7	83 c0 01	 add	 eax, 1
  063ca	89 45 f0	 mov	 DWORD PTR _lrcResult$[ebp+8], eax

; 1532 : 				lrcResult.bottom = mrcClient.bottom-2;

  063cd	8b 55 fc	 mov	 edx, DWORD PTR _this$[ebp]
  063d0	8b 82 90 00 00
	00		 mov	 eax, DWORD PTR [edx+144]
  063d6	83 e8 02	 sub	 eax, 2
  063d9	89 45 f4	 mov	 DWORD PTR _lrcResult$[ebp+12], eax
$L188247:

; 1533 : 			}
; 1534 : 		}
; 1535 : 		break;
; 1536 : 	}
; 1537 : 
; 1538 : 	return lrcResult;

  063dc	8b 4d 08	 mov	 ecx, DWORD PTR ___$ReturnUdt$[ebp]
  063df	8b 55 e8	 mov	 edx, DWORD PTR _lrcResult$[ebp]
  063e2	89 11		 mov	 DWORD PTR [ecx], edx
  063e4	8b 45 ec	 mov	 eax, DWORD PTR _lrcResult$[ebp+4]
  063e7	89 41 04	 mov	 DWORD PTR [ecx+4], eax
  063ea	8b 55 f0	 mov	 edx, DWORD PTR _lrcResult$[ebp+8]
  063ed	89 51 08	 mov	 DWORD PTR [ecx+8], edx
  063f0	8b 45 f4	 mov	 eax, DWORD PTR _lrcResult$[ebp+12]
  063f3	89 41 0c	 mov	 DWORD PTR [ecx+12], eax
  063f6	8b 45 08	 mov	 eax, DWORD PTR ___$ReturnUdt$[ebp]

; 1539 : }

  063f9	52		 push	 edx
  063fa	8b cd		 mov	 ecx, ebp
  063fc	50		 push	 eax
  063fd	8d 15 00 00 00
	00		 lea	 edx, DWORD PTR $L189122
  06403	e8 00 00 00 00	 call	 @_RTC_CheckStackVars@8
  06408	58		 pop	 eax
  06409	5a		 pop	 edx
  0640a	5f		 pop	 edi
  0640b	5e		 pop	 esi
  0640c	8b e5		 mov	 esp, ebp
  0640e	5d		 pop	 ebp
  0640f	c2 08 00	 ret	 8
$L189122:
  06412	01 00 00 00	 DD	 1
  06416	00 00 00 00	 DD	 $L189121
$L189121:
  0641a	e8 ff ff ff	 DD	 -24			; ffffffe8H
  0641e	10 00 00 00	 DD	 16			; 00000010H
  06422	00 00 00 00	 DD	 $L189120
$L189120:
  06426	6c		 DB	 108			; 0000006cH
  06427	72		 DB	 114			; 00000072H
  06428	63		 DB	 99			; 00000063H
  06429	52		 DB	 82			; 00000052H
  0642a	65		 DB	 101			; 00000065H
  0642b	73		 DB	 115			; 00000073H
  0642c	75		 DB	 117			; 00000075H
  0642d	6c		 DB	 108			; 0000006cH
  0642e	74		 DB	 116			; 00000074H
  0642f	00		 DB	 0
$L189123:
  06430	00 00 00 00	 DD	 $L188250
  06434	00 00 00 00	 DD	 $L188252
  06438	00 00 00 00	 DD	 $L188254
  0643c	00 00 00 00	 DD	 $L188256
  06440	00 00 00 00	 DD	 $L188258
  06444	00 00 00 00	 DD	 $L188274
?GetRect@CScrollBarEx@@AAE?AUtagRECT@@I@Z ENDP		; CScrollBarEx::GetRect
_TEXT	ENDS
PUBLIC	?GetScrollInfo@CScrollBarEx@@QAEHPAUtagSCROLLINFO@@I@Z ; CScrollBarEx::GetScrollInfo
EXTRN	_memcpy:NEAR
; Function compile flags: /Odt /RTCsu
_TEXT	SEGMENT
_this$ = -4						; size = 4
_aScrollInfo$ = 8					; size = 4
_aiMask$ = 12						; size = 4
?GetScrollInfo@CScrollBarEx@@QAEHPAUtagSCROLLINFO@@I@Z PROC NEAR ; CScrollBarEx::GetScrollInfo
; _this$ = ecx

; 1549 : {

  06450	55		 push	 ebp
  06451	8b ec		 mov	 ebp, esp
  06453	51		 push	 ecx
  06454	c7 45 fc cc cc
	cc cc		 mov	 DWORD PTR [ebp-4], -858993460 ; ccccccccH
  0645b	89 4d fc	 mov	 DWORD PTR _this$[ebp], ecx

; 1550 : 	memcpy(aScrollInfo, &mScrollInfo, sizeof(mScrollInfo));

  0645e	6a 1c		 push	 28			; 0000001cH
  06460	8b 45 fc	 mov	 eax, DWORD PTR _this$[ebp]
  06463	83 c0 64	 add	 eax, 100		; 00000064H
  06466	50		 push	 eax
  06467	8b 4d 08	 mov	 ecx, DWORD PTR _aScrollInfo$[ebp]
  0646a	51		 push	 ecx
  0646b	e8 00 00 00 00	 call	 _memcpy
  06470	83 c4 0c	 add	 esp, 12			; 0000000cH

; 1551 : 	return TRUE;

  06473	b8 01 00 00 00	 mov	 eax, 1

; 1552 : }

  06478	83 c4 04	 add	 esp, 4
  0647b	3b ec		 cmp	 ebp, esp
  0647d	e8 00 00 00 00	 call	 __RTC_CheckEsp
  06482	8b e5		 mov	 esp, ebp
  06484	5d		 pop	 ebp
  06485	c2 08 00	 ret	 8
?GetScrollInfo@CScrollBarEx@@QAEHPAUtagSCROLLINFO@@I@Z ENDP ; CScrollBarEx::GetScrollInfo
_TEXT	ENDS
PUBLIC	?GetScrollLimit@CScrollBarEx@@QAEHXZ		; CScrollBarEx::GetScrollLimit
; Function compile flags: /Odt /RTCsu
_TEXT	SEGMENT
_this$ = -4						; size = 4
?GetScrollLimit@CScrollBarEx@@QAEHXZ PROC NEAR		; CScrollBarEx::GetScrollLimit
; _this$ = ecx

; 1561 : {

  06490	55		 push	 ebp
  06491	8b ec		 mov	 ebp, esp
  06493	51		 push	 ecx
  06494	c7 45 fc cc cc
	cc cc		 mov	 DWORD PTR [ebp-4], -858993460 ; ccccccccH
  0649b	89 4d fc	 mov	 DWORD PTR _this$[ebp], ecx

; 1562 : 	return mScrollInfo.nMax;

  0649e	8b 45 fc	 mov	 eax, DWORD PTR _this$[ebp]
  064a1	8b 40 70	 mov	 eax, DWORD PTR [eax+112]

; 1563 : }

  064a4	8b e5		 mov	 esp, ebp
  064a6	5d		 pop	 ebp
  064a7	c3		 ret	 0
?GetScrollLimit@CScrollBarEx@@QAEHXZ ENDP		; CScrollBarEx::GetScrollLimit
_TEXT	ENDS
PUBLIC	?GetScrollPos@CScrollBarEx@@QAEHXZ		; CScrollBarEx::GetScrollPos
; Function compile flags: /Odt /RTCsu
_TEXT	SEGMENT
_this$ = -4						; size = 4
?GetScrollPos@CScrollBarEx@@QAEHXZ PROC NEAR		; CScrollBarEx::GetScrollPos
; _this$ = ecx

; 1572 : {

  064b0	55		 push	 ebp
  064b1	8b ec		 mov	 ebp, esp
  064b3	51		 push	 ecx
  064b4	c7 45 fc cc cc
	cc cc		 mov	 DWORD PTR [ebp-4], -858993460 ; ccccccccH
  064bb	89 4d fc	 mov	 DWORD PTR _this$[ebp], ecx

; 1573 : 	return mScrollInfo.nPos;

  064be	8b 45 fc	 mov	 eax, DWORD PTR _this$[ebp]
  064c1	8b 40 78	 mov	 eax, DWORD PTR [eax+120]

; 1574 : }

  064c4	8b e5		 mov	 esp, ebp
  064c6	5d		 pop	 ebp
  064c7	c3		 ret	 0
?GetScrollPos@CScrollBarEx@@QAEHXZ ENDP			; CScrollBarEx::GetScrollPos
_TEXT	ENDS
PUBLIC	?GetScrollRange@CScrollBarEx@@QAEXPAH0@Z	; CScrollBarEx::GetScrollRange
; Function compile flags: /Odt /RTCsu
_TEXT	SEGMENT
_this$ = -4						; size = 4
_aiMinPos$ = 8						; size = 4
_aiMaxPos$ = 12						; size = 4
?GetScrollRange@CScrollBarEx@@QAEXPAH0@Z PROC NEAR	; CScrollBarEx::GetScrollRange
; _this$ = ecx

; 1584 : {

  064d0	55		 push	 ebp
  064d1	8b ec		 mov	 ebp, esp
  064d3	51		 push	 ecx
  064d4	c7 45 fc cc cc
	cc cc		 mov	 DWORD PTR [ebp-4], -858993460 ; ccccccccH
  064db	89 4d fc	 mov	 DWORD PTR _this$[ebp], ecx

; 1585 : 	memcpy(aiMinPos, &mScrollInfo.nMin, sizeof(mScrollInfo.nMin));

  064de	6a 04		 push	 4
  064e0	8b 45 fc	 mov	 eax, DWORD PTR _this$[ebp]
  064e3	83 c0 6c	 add	 eax, 108		; 0000006cH
  064e6	50		 push	 eax
  064e7	8b 4d 08	 mov	 ecx, DWORD PTR _aiMinPos$[ebp]
  064ea	51		 push	 ecx
  064eb	e8 00 00 00 00	 call	 _memcpy
  064f0	83 c4 0c	 add	 esp, 12			; 0000000cH

; 1586 : 	memcpy(aiMaxPos, &mScrollInfo.nMax, sizeof(mScrollInfo.nMin));

  064f3	6a 04		 push	 4
  064f5	8b 55 fc	 mov	 edx, DWORD PTR _this$[ebp]
  064f8	83 c2 70	 add	 edx, 112		; 00000070H
  064fb	52		 push	 edx
  064fc	8b 45 0c	 mov	 eax, DWORD PTR _aiMaxPos$[ebp]
  064ff	50		 push	 eax
  06500	e8 00 00 00 00	 call	 _memcpy
  06505	83 c4 0c	 add	 esp, 12			; 0000000cH

; 1587 : }

  06508	83 c4 04	 add	 esp, 4
  0650b	3b ec		 cmp	 ebp, esp
  0650d	e8 00 00 00 00	 call	 __RTC_CheckEsp
  06512	8b e5		 mov	 esp, ebp
  06514	5d		 pop	 ebp
  06515	c2 08 00	 ret	 8
?GetScrollRange@CScrollBarEx@@QAEXPAH0@Z ENDP		; CScrollBarEx::GetScrollRange
_TEXT	ENDS
PUBLIC	?GetScrollOrientation@CScrollBarEx@@QAE?AW4ENUM_ScrollOrientation@@XZ ; CScrollBarEx::GetScrollOrientation
; Function compile flags: /Odt /RTCsu
_TEXT	SEGMENT
_this$ = -4						; size = 4
?GetScrollOrientation@CScrollBarEx@@QAE?AW4ENUM_ScrollOrientation@@XZ PROC NEAR ; CScrollBarEx::GetScrollOrientation
; _this$ = ecx

; 1596 : {

  06520	55		 push	 ebp
  06521	8b ec		 mov	 ebp, esp
  06523	51		 push	 ecx
  06524	c7 45 fc cc cc
	cc cc		 mov	 DWORD PTR [ebp-4], -858993460 ; ccccccccH
  0652b	89 4d fc	 mov	 DWORD PTR _this$[ebp], ecx

; 1597 : 	return mScrollOrientation;

  0652e	8b 45 fc	 mov	 eax, DWORD PTR _this$[ebp]
  06531	8b 80 80 00 00
	00		 mov	 eax, DWORD PTR [eax+128]

; 1598 : }

  06537	8b e5		 mov	 esp, ebp
  06539	5d		 pop	 ebp
  0653a	c3		 ret	 0
?GetScrollOrientation@CScrollBarEx@@QAE?AW4ENUM_ScrollOrientation@@XZ ENDP ; CScrollBarEx::GetScrollOrientation
_TEXT	ENDS
EXTRN	?RedrawWindow@CWnd@@QAEHPBUtagRECT@@PAVCRgn@@I@Z:NEAR ; CWnd::RedrawWindow
; Function compile flags: /Odt /RTCsu
_TEXT	SEGMENT
_si$ = -8						; size = 4
_this$ = -4						; size = 4
_aScrollInfo$ = 8					; size = 4
_abRedraw$ = 12						; size = 4
?SetScrollInfo@CScrollBarEx@@QAEHPAUtagSCROLLINFO@@H@Z PROC NEAR ; CScrollBarEx::SetScrollInfo
; _this$ = ecx

; 1608 : {

  06540	55		 push	 ebp
  06541	8b ec		 mov	 ebp, esp
  06543	83 ec 08	 sub	 esp, 8
  06546	c7 45 f8 cc cc
	cc cc		 mov	 DWORD PTR [ebp-8], -858993460 ; ccccccccH
  0654d	c7 45 fc cc cc
	cc cc		 mov	 DWORD PTR [ebp-4], -858993460 ; ccccccccH
  06554	89 4d fc	 mov	 DWORD PTR _this$[ebp], ecx

; 1609 : 	const SCROLLINFO& si = mScrollInfo;

  06557	8b 45 fc	 mov	 eax, DWORD PTR _this$[ebp]
  0655a	83 c0 64	 add	 eax, 100		; 00000064H
  0655d	89 45 f8	 mov	 DWORD PTR _si$[ebp], eax

; 1610 : 	if (si.nMax != aScrollInfo->nMax
; 1611 : 		|| si.nMin != aScrollInfo->nMin
; 1612 : 		|| si.nPage != aScrollInfo->nPage
; 1613 : 		|| si.nPos != aScrollInfo->nPos
; 1614 : 		|| si.nTrackPos != aScrollInfo->nTrackPos)

  06560	8b 4d f8	 mov	 ecx, DWORD PTR _si$[ebp]
  06563	8b 55 08	 mov	 edx, DWORD PTR _aScrollInfo$[ebp]
  06566	8b 41 0c	 mov	 eax, DWORD PTR [ecx+12]
  06569	3b 42 0c	 cmp	 eax, DWORD PTR [edx+12]
  0656c	75 38		 jne	 SHORT $L188303
  0656e	8b 4d f8	 mov	 ecx, DWORD PTR _si$[ebp]
  06571	8b 55 08	 mov	 edx, DWORD PTR _aScrollInfo$[ebp]
  06574	8b 41 08	 mov	 eax, DWORD PTR [ecx+8]
  06577	3b 42 08	 cmp	 eax, DWORD PTR [edx+8]
  0657a	75 2a		 jne	 SHORT $L188303
  0657c	8b 4d f8	 mov	 ecx, DWORD PTR _si$[ebp]
  0657f	8b 55 08	 mov	 edx, DWORD PTR _aScrollInfo$[ebp]
  06582	8b 41 10	 mov	 eax, DWORD PTR [ecx+16]
  06585	3b 42 10	 cmp	 eax, DWORD PTR [edx+16]
  06588	75 1c		 jne	 SHORT $L188303
  0658a	8b 4d f8	 mov	 ecx, DWORD PTR _si$[ebp]
  0658d	8b 55 08	 mov	 edx, DWORD PTR _aScrollInfo$[ebp]
  06590	8b 41 14	 mov	 eax, DWORD PTR [ecx+20]
  06593	3b 42 14	 cmp	 eax, DWORD PTR [edx+20]
  06596	75 0e		 jne	 SHORT $L188303
  06598	8b 4d f8	 mov	 ecx, DWORD PTR _si$[ebp]
  0659b	8b 55 08	 mov	 edx, DWORD PTR _aScrollInfo$[ebp]
  0659e	8b 41 18	 mov	 eax, DWORD PTR [ecx+24]
  065a1	3b 42 18	 cmp	 eax, DWORD PTR [edx+24]
  065a4	74 02		 je	 SHORT $L188302
$L188303:

; 1615 : 	{
; 1616 : 	}
; 1617 : 	else

  065a6	eb 07		 jmp	 SHORT $L188304
$L188302:

; 1618 : 		return TRUE;

  065a8	b8 01 00 00 00	 mov	 eax, 1
  065ad	eb 31		 jmp	 SHORT $L188300
$L188304:

; 1619 : 
; 1620 : 	memcpy(&mScrollInfo, aScrollInfo, sizeof(mScrollInfo));

  065af	6a 1c		 push	 28			; 0000001cH
  065b1	8b 4d 08	 mov	 ecx, DWORD PTR _aScrollInfo$[ebp]
  065b4	51		 push	 ecx
  065b5	8b 55 fc	 mov	 edx, DWORD PTR _this$[ebp]
  065b8	83 c2 64	 add	 edx, 100		; 00000064H
  065bb	52		 push	 edx
  065bc	e8 00 00 00 00	 call	 _memcpy
  065c1	83 c4 0c	 add	 esp, 12			; 0000000cH

; 1621 : 
; 1622 : 	if (abRedraw)

  065c4	83 7d 0c 00	 cmp	 DWORD PTR _abRedraw$[ebp], 0
  065c8	74 11		 je	 SHORT $L188305

; 1623 : 		RedrawWindow();

  065ca	68 05 01 00 00	 push	 261			; 00000105H
  065cf	6a 00		 push	 0
  065d1	6a 00		 push	 0
  065d3	8b 4d fc	 mov	 ecx, DWORD PTR _this$[ebp]
  065d6	e8 00 00 00 00	 call	 ?RedrawWindow@CWnd@@QAEHPBUtagRECT@@PAVCRgn@@I@Z ; CWnd::RedrawWindow
$L188305:

; 1624 : 
; 1625 : 	return TRUE;

  065db	b8 01 00 00 00	 mov	 eax, 1
$L188300:

; 1626 : }

  065e0	83 c4 08	 add	 esp, 8
  065e3	3b ec		 cmp	 ebp, esp
  065e5	e8 00 00 00 00	 call	 __RTC_CheckEsp
  065ea	8b e5		 mov	 esp, ebp
  065ec	5d		 pop	 ebp
  065ed	c2 08 00	 ret	 8
?SetScrollInfo@CScrollBarEx@@QAEHPAUtagSCROLLINFO@@H@Z ENDP ; CScrollBarEx::SetScrollInfo
_TEXT	ENDS
PUBLIC	?SetScrollPos@CScrollBarEx@@QAEHHH@Z		; CScrollBarEx::SetScrollPos
; Function compile flags: /Odt /RTCsu
_TEXT	SEGMENT
_this$ = -4						; size = 4
_aiPos$ = 8						; size = 4
_abRedraw$ = 12						; size = 4
?SetScrollPos@CScrollBarEx@@QAEHHH@Z PROC NEAR		; CScrollBarEx::SetScrollPos
; _this$ = ecx

; 1636 : {

  065f0	55		 push	 ebp
  065f1	8b ec		 mov	 ebp, esp
  065f3	51		 push	 ecx
  065f4	c7 45 fc cc cc
	cc cc		 mov	 DWORD PTR [ebp-4], -858993460 ; ccccccccH
  065fb	89 4d fc	 mov	 DWORD PTR _this$[ebp], ecx

; 1637 : 	mScrollInfo.nPos = aiPos;

  065fe	8b 45 fc	 mov	 eax, DWORD PTR _this$[ebp]
  06601	8b 4d 08	 mov	 ecx, DWORD PTR _aiPos$[ebp]
  06604	89 48 78	 mov	 DWORD PTR [eax+120], ecx

; 1638 : 	if (abRedraw)

  06607	83 7d 0c 00	 cmp	 DWORD PTR _abRedraw$[ebp], 0
  0660b	74 0a		 je	 SHORT $L188311

; 1639 : 		Invalidate();

  0660d	6a 01		 push	 1
  0660f	8b 4d fc	 mov	 ecx, DWORD PTR _this$[ebp]
  06612	e8 00 00 00 00	 call	 ?Invalidate@CWnd@@QAEXH@Z ; CWnd::Invalidate
$L188311:

; 1640 : 	return mScrollInfo.nPos;

  06617	8b 55 fc	 mov	 edx, DWORD PTR _this$[ebp]
  0661a	8b 42 78	 mov	 eax, DWORD PTR [edx+120]

; 1641 : }

  0661d	83 c4 04	 add	 esp, 4
  06620	3b ec		 cmp	 ebp, esp
  06622	e8 00 00 00 00	 call	 __RTC_CheckEsp
  06627	8b e5		 mov	 esp, ebp
  06629	5d		 pop	 ebp
  0662a	c2 08 00	 ret	 8
?SetScrollPos@CScrollBarEx@@QAEHHH@Z ENDP		; CScrollBarEx::SetScrollPos
_TEXT	ENDS
PUBLIC	?SetScrollRange@CScrollBarEx@@QAEXHHH@Z		; CScrollBarEx::SetScrollRange
; Function compile flags: /Odt /RTCsu
_TEXT	SEGMENT
_this$ = -4						; size = 4
_aiMinPos$ = 8						; size = 4
_aiMaxPos$ = 12						; size = 4
_abRedraw$ = 16						; size = 4
?SetScrollRange@CScrollBarEx@@QAEXHHH@Z PROC NEAR	; CScrollBarEx::SetScrollRange
; _this$ = ecx

; 1652 : {

  06630	55		 push	 ebp
  06631	8b ec		 mov	 ebp, esp
  06633	51		 push	 ecx
  06634	c7 45 fc cc cc
	cc cc		 mov	 DWORD PTR [ebp-4], -858993460 ; ccccccccH
  0663b	89 4d fc	 mov	 DWORD PTR _this$[ebp], ecx

; 1653 : 	mScrollInfo.nMin = aiMinPos;

  0663e	8b 45 fc	 mov	 eax, DWORD PTR _this$[ebp]
  06641	8b 4d 08	 mov	 ecx, DWORD PTR _aiMinPos$[ebp]
  06644	89 48 6c	 mov	 DWORD PTR [eax+108], ecx

; 1654 : 	mScrollInfo.nMax = aiMaxPos;

  06647	8b 55 fc	 mov	 edx, DWORD PTR _this$[ebp]
  0664a	8b 45 0c	 mov	 eax, DWORD PTR _aiMaxPos$[ebp]
  0664d	89 42 70	 mov	 DWORD PTR [edx+112], eax

; 1655 : 	if (abRedraw)

  06650	83 7d 10 00	 cmp	 DWORD PTR _abRedraw$[ebp], 0
  06654	74 0a		 je	 SHORT $L188317

; 1656 : 		Invalidate();

  06656	6a 01		 push	 1
  06658	8b 4d fc	 mov	 ecx, DWORD PTR _this$[ebp]
  0665b	e8 00 00 00 00	 call	 ?Invalidate@CWnd@@QAEXH@Z ; CWnd::Invalidate
$L188317:

; 1657 : }

  06660	83 c4 04	 add	 esp, 4
  06663	3b ec		 cmp	 ebp, esp
  06665	e8 00 00 00 00	 call	 __RTC_CheckEsp
  0666a	8b e5		 mov	 esp, ebp
  0666c	5d		 pop	 ebp
  0666d	c2 0c 00	 ret	 12			; 0000000cH
?SetScrollRange@CScrollBarEx@@QAEXHHH@Z ENDP		; CScrollBarEx::SetScrollRange
_TEXT	ENDS
PUBLIC	?SetScrollOrientation@CScrollBarEx@@QAEXW4ENUM_ScrollOrientation@@@Z ; CScrollBarEx::SetScrollOrientation
; Function compile flags: /Odt /RTCsu
_TEXT	SEGMENT
_this$ = -4						; size = 4
_aScrollOrientation$ = 8				; size = 4
?SetScrollOrientation@CScrollBarEx@@QAEXW4ENUM_ScrollOrientation@@@Z PROC NEAR ; CScrollBarEx::SetScrollOrientation
; _this$ = ecx

; 1666 : {

  06670	55		 push	 ebp
  06671	8b ec		 mov	 ebp, esp
  06673	51		 push	 ecx
  06674	c7 45 fc cc cc
	cc cc		 mov	 DWORD PTR [ebp-4], -858993460 ; ccccccccH
  0667b	89 4d fc	 mov	 DWORD PTR _this$[ebp], ecx

; 1667 : 	mScrollOrientation = aScrollOrientation;

  0667e	8b 45 fc	 mov	 eax, DWORD PTR _this$[ebp]
  06681	8b 4d 08	 mov	 ecx, DWORD PTR _aScrollOrientation$[ebp]
  06684	89 88 80 00 00
	00		 mov	 DWORD PTR [eax+128], ecx

; 1668 : }

  0668a	8b e5		 mov	 esp, ebp
  0668c	5d		 pop	 ebp
  0668d	c2 04 00	 ret	 4
?SetScrollOrientation@CScrollBarEx@@QAEXW4ENUM_ScrollOrientation@@@Z ENDP ; CScrollBarEx::SetScrollOrientation
; Function compile flags: /Odt /RTCsu
_this$ = -4						; size = 4
_wParam$ = 8						; size = 4
_lParam$ = 12						; size = 4
?OnDlgMouseWheel@CScrollBarEx@@IAEJIJ@Z PROC NEAR	; CScrollBarEx::OnDlgMouseWheel
; _this$ = ecx

; 1672 : {

  06690	55		 push	 ebp
  06691	8b ec		 mov	 ebp, esp
  06693	51		 push	 ecx
  06694	c7 45 fc cc cc
	cc cc		 mov	 DWORD PTR [ebp-4], -858993460 ; ccccccccH
  0669b	89 4d fc	 mov	 DWORD PTR _this$[ebp], ecx

; 1673 : 	return SetScrollPos((int)lParam,TRUE);

  0669e	6a 01		 push	 1
  066a0	8b 45 0c	 mov	 eax, DWORD PTR _lParam$[ebp]
  066a3	50		 push	 eax
  066a4	8b 4d fc	 mov	 ecx, DWORD PTR _this$[ebp]
  066a7	e8 00 00 00 00	 call	 ?SetScrollPos@CScrollBarEx@@QAEHHH@Z ; CScrollBarEx::SetScrollPos

; 1674 : 	
; 1675 : }

  066ac	83 c4 04	 add	 esp, 4
  066af	3b ec		 cmp	 ebp, esp
  066b1	e8 00 00 00 00	 call	 __RTC_CheckEsp
  066b6	8b e5		 mov	 esp, ebp
  066b8	5d		 pop	 ebp
  066b9	c2 08 00	 ret	 8
?OnDlgMouseWheel@CScrollBarEx@@IAEJIJ@Z ENDP		; CScrollBarEx::OnDlgMouseWheel
_TEXT	ENDS
EXTRN	?getColor@CWndColorMgr@@QAEPAUCtrColBase@@I@Z:NEAR ; CWndColorMgr::getColor
EXTRN	?gWndColor@@3VCWndColorMgr@@A:DWORD		; gWndColor
EXTRN	?OnCreate@CWnd@@IAEHPAUtagCREATESTRUCTA@@@Z:NEAR ; CWnd::OnCreate
; Function compile flags: /Odt /RTCsu
_TEXT	SEGMENT
_this$ = -4						; size = 4
_lpCreateStruct$ = 8					; size = 4
?OnCreate@CScrollBarEx@@QAEHPAUtagCREATESTRUCTA@@@Z PROC NEAR ; CScrollBarEx::OnCreate
; _this$ = ecx

; 1677 : {

  066c0	55		 push	 ebp
  066c1	8b ec		 mov	 ebp, esp
  066c3	51		 push	 ecx
  066c4	c7 45 fc cc cc
	cc cc		 mov	 DWORD PTR [ebp-4], -858993460 ; ccccccccH
  066cb	89 4d fc	 mov	 DWORD PTR _this$[ebp], ecx

; 1678 : 	if (CStatic::OnCreate(lpCreateStruct) == -1)

  066ce	8b 45 08	 mov	 eax, DWORD PTR _lpCreateStruct$[ebp]
  066d1	50		 push	 eax
  066d2	8b 4d fc	 mov	 ecx, DWORD PTR _this$[ebp]
  066d5	e8 00 00 00 00	 call	 ?OnCreate@CWnd@@IAEHPAUtagCREATESTRUCTA@@@Z ; CWnd::OnCreate
  066da	83 f8 ff	 cmp	 eax, -1
  066dd	75 08		 jne	 SHORT $L188333

; 1679 : 		return -1;

  066df	83 c8 ff	 or	 eax, -1
  066e2	e9 29 01 00 00	 jmp	 $L188332
$L188333:

; 1680 : 
; 1681 : 	mcolNormal1 = gWndColor.getColor(SCROLLBAR_CTROL)->colNormal1 ;

  066e7	6a 03		 push	 3
  066e9	b9 00 00 00 00	 mov	 ecx, OFFSET FLAT:?gWndColor@@3VCWndColorMgr@@A ; gWndColor
  066ee	e8 00 00 00 00	 call	 ?getColor@CWndColorMgr@@QAEPAUCtrColBase@@I@Z ; CWndColorMgr::getColor
  066f3	8b 4d fc	 mov	 ecx, DWORD PTR _this$[ebp]
  066f6	8b 50 08	 mov	 edx, DWORD PTR [eax+8]
  066f9	89 91 b0 00 00
	00		 mov	 DWORD PTR [ecx+176], edx

; 1682 : 	mcolNormal2 = gWndColor.getColor(SCROLLBAR_CTROL)->colNormal2;

  066ff	6a 03		 push	 3
  06701	b9 00 00 00 00	 mov	 ecx, OFFSET FLAT:?gWndColor@@3VCWndColorMgr@@A ; gWndColor
  06706	e8 00 00 00 00	 call	 ?getColor@CWndColorMgr@@QAEPAUCtrColBase@@I@Z ; CWndColorMgr::getColor
  0670b	8b 4d fc	 mov	 ecx, DWORD PTR _this$[ebp]
  0670e	8b 50 0c	 mov	 edx, DWORD PTR [eax+12]
  06711	89 91 b4 00 00
	00		 mov	 DWORD PTR [ecx+180], edx

; 1683 : 	mcolEnter1 = gWndColor.getColor(SCROLLBAR_CTROL)->colEnter1;

  06717	6a 03		 push	 3
  06719	b9 00 00 00 00	 mov	 ecx, OFFSET FLAT:?gWndColor@@3VCWndColorMgr@@A ; gWndColor
  0671e	e8 00 00 00 00	 call	 ?getColor@CWndColorMgr@@QAEPAUCtrColBase@@I@Z ; CWndColorMgr::getColor
  06723	8b 4d fc	 mov	 ecx, DWORD PTR _this$[ebp]
  06726	8b 50 10	 mov	 edx, DWORD PTR [eax+16]
  06729	89 91 b8 00 00
	00		 mov	 DWORD PTR [ecx+184], edx

; 1684 : 	mcolEnter2 = gWndColor.getColor(SCROLLBAR_CTROL)->colEnter2;

  0672f	6a 03		 push	 3
  06731	b9 00 00 00 00	 mov	 ecx, OFFSET FLAT:?gWndColor@@3VCWndColorMgr@@A ; gWndColor
  06736	e8 00 00 00 00	 call	 ?getColor@CWndColorMgr@@QAEPAUCtrColBase@@I@Z ; CWndColorMgr::getColor
  0673b	8b 4d fc	 mov	 ecx, DWORD PTR _this$[ebp]
  0673e	8b 50 14	 mov	 edx, DWORD PTR [eax+20]
  06741	89 91 bc 00 00
	00		 mov	 DWORD PTR [ecx+188], edx

; 1685 : 	mcolDown1 = gWndColor.getColor(SCROLLBAR_CTROL)->colDown1;

  06747	6a 03		 push	 3
  06749	b9 00 00 00 00	 mov	 ecx, OFFSET FLAT:?gWndColor@@3VCWndColorMgr@@A ; gWndColor
  0674e	e8 00 00 00 00	 call	 ?getColor@CWndColorMgr@@QAEPAUCtrColBase@@I@Z ; CWndColorMgr::getColor
  06753	8b 4d fc	 mov	 ecx, DWORD PTR _this$[ebp]
  06756	8b 50 18	 mov	 edx, DWORD PTR [eax+24]
  06759	89 91 c0 00 00
	00		 mov	 DWORD PTR [ecx+192], edx

; 1686 : 	mcolDown2 = gWndColor.getColor(SCROLLBAR_CTROL)->colDown2;

  0675f	6a 03		 push	 3
  06761	b9 00 00 00 00	 mov	 ecx, OFFSET FLAT:?gWndColor@@3VCWndColorMgr@@A ; gWndColor
  06766	e8 00 00 00 00	 call	 ?getColor@CWndColorMgr@@QAEPAUCtrColBase@@I@Z ; CWndColorMgr::getColor
  0676b	8b 4d fc	 mov	 ecx, DWORD PTR _this$[ebp]
  0676e	8b 50 1c	 mov	 edx, DWORD PTR [eax+28]
  06771	89 91 c4 00 00
	00		 mov	 DWORD PTR [ecx+196], edx

; 1687 : 	mcolFrame1 = gWndColor.getColor(SCROLLBAR_CTROL)->structColBase->colFrame1;

  06777	6a 03		 push	 3
  06779	b9 00 00 00 00	 mov	 ecx, OFFSET FLAT:?gWndColor@@3VCWndColorMgr@@A ; gWndColor
  0677e	e8 00 00 00 00	 call	 ?getColor@CWndColorMgr@@QAEPAUCtrColBase@@I@Z ; CWndColorMgr::getColor
  06783	8b 00		 mov	 eax, DWORD PTR [eax]
  06785	8b 4d fc	 mov	 ecx, DWORD PTR _this$[ebp]
  06788	8b 10		 mov	 edx, DWORD PTR [eax]
  0678a	89 91 c8 00 00
	00		 mov	 DWORD PTR [ecx+200], edx

; 1688 : 	mcolFrame2 = gWndColor.getColor(SCROLLBAR_CTROL)->structColBase->colFrame2;

  06790	6a 03		 push	 3
  06792	b9 00 00 00 00	 mov	 ecx, OFFSET FLAT:?gWndColor@@3VCWndColorMgr@@A ; gWndColor
  06797	e8 00 00 00 00	 call	 ?getColor@CWndColorMgr@@QAEPAUCtrColBase@@I@Z ; CWndColorMgr::getColor
  0679c	8b 00		 mov	 eax, DWORD PTR [eax]
  0679e	8b 4d fc	 mov	 ecx, DWORD PTR _this$[ebp]
  067a1	8b 50 04	 mov	 edx, DWORD PTR [eax+4]
  067a4	89 91 cc 00 00
	00		 mov	 DWORD PTR [ecx+204], edx

; 1689 : 	mcolBtn1 = gWndColor.getColor(SCROLLBAR_CTROL)->colDisable1;

  067aa	6a 03		 push	 3
  067ac	b9 00 00 00 00	 mov	 ecx, OFFSET FLAT:?gWndColor@@3VCWndColorMgr@@A ; gWndColor
  067b1	e8 00 00 00 00	 call	 ?getColor@CWndColorMgr@@QAEPAUCtrColBase@@I@Z ; CWndColorMgr::getColor
  067b6	8b 4d fc	 mov	 ecx, DWORD PTR _this$[ebp]
  067b9	8b 50 20	 mov	 edx, DWORD PTR [eax+32]
  067bc	89 91 d0 00 00
	00		 mov	 DWORD PTR [ecx+208], edx

; 1690 : 	mcolBtn2 = gWndColor.getColor(SCROLLBAR_CTROL)->colDisable2;

  067c2	6a 03		 push	 3
  067c4	b9 00 00 00 00	 mov	 ecx, OFFSET FLAT:?gWndColor@@3VCWndColorMgr@@A ; gWndColor
  067c9	e8 00 00 00 00	 call	 ?getColor@CWndColorMgr@@QAEPAUCtrColBase@@I@Z ; CWndColorMgr::getColor
  067ce	8b 4d fc	 mov	 ecx, DWORD PTR _this$[ebp]
  067d1	8b 50 24	 mov	 edx, DWORD PTR [eax+36]
  067d4	89 91 d4 00 00
	00		 mov	 DWORD PTR [ecx+212], edx

; 1691 : 	mcolFont = gWndColor.getColor(SCROLLBAR_CTROL)->structColBase->colFont ;

  067da	6a 03		 push	 3
  067dc	b9 00 00 00 00	 mov	 ecx, OFFSET FLAT:?gWndColor@@3VCWndColorMgr@@A ; gWndColor
  067e1	e8 00 00 00 00	 call	 ?getColor@CWndColorMgr@@QAEPAUCtrColBase@@I@Z ; CWndColorMgr::getColor
  067e6	8b 00		 mov	 eax, DWORD PTR [eax]
  067e8	8b 4d fc	 mov	 ecx, DWORD PTR _this$[ebp]
  067eb	8b 50 0c	 mov	 edx, DWORD PTR [eax+12]
  067ee	89 91 d8 00 00
	00		 mov	 DWORD PTR [ecx+216], edx

; 1692 : 	mcolBK = gWndColor.getColor(SCROLLBAR_CTROL)->structColBase->colBK;

  067f4	6a 03		 push	 3
  067f6	b9 00 00 00 00	 mov	 ecx, OFFSET FLAT:?gWndColor@@3VCWndColorMgr@@A ; gWndColor
  067fb	e8 00 00 00 00	 call	 ?getColor@CWndColorMgr@@QAEPAUCtrColBase@@I@Z ; CWndColorMgr::getColor
  06800	8b 00		 mov	 eax, DWORD PTR [eax]
  06802	8b 4d fc	 mov	 ecx, DWORD PTR _this$[ebp]
  06805	8b 50 10	 mov	 edx, DWORD PTR [eax+16]
  06808	89 91 dc 00 00
	00		 mov	 DWORD PTR [ecx+220], edx

; 1693 : 
; 1694 : 	return 0;

  0680e	33 c0		 xor	 eax, eax
$L188332:

; 1695 : }

  06810	83 c4 04	 add	 esp, 4
  06813	3b ec		 cmp	 ebp, esp
  06815	e8 00 00 00 00	 call	 __RTC_CheckEsp
  0681a	8b e5		 mov	 esp, ebp
  0681c	5d		 pop	 ebp
  0681d	c2 04 00	 ret	 4
?OnCreate@CScrollBarEx@@QAEHPAUtagCREATESTRUCTA@@@Z ENDP ; CScrollBarEx::OnCreate
_TEXT	ENDS
PUBLIC	??_7CMemDC@@6B@					; CMemDC::`vftable'
PUBLIC	??_GCMemDC@@UAEPAXI@Z				; CMemDC::`scalar deleting destructor'
PUBLIC	??_R4CMemDC@@6B@				; CMemDC::`RTTI Complete Object Locator'
PUBLIC	??_R0?AVCMemDC@@@8				; CMemDC `RTTI Type Descriptor'
PUBLIC	??_R3CMemDC@@8					; CMemDC::`RTTI Class Hierarchy Descriptor'
PUBLIC	??_R2CMemDC@@8					; CMemDC::`RTTI Base Class Array'
PUBLIC	??_R1A@?0A@A@CMemDC@@8				; CMemDC::`RTTI Base Class Descriptor at (0,-1,0,0)'
PUBLIC	??_R1A@?0A@A@CDC@@8				; CDC::`RTTI Base Class Descriptor at (0,-1,0,0)'
PUBLIC	??_R0?AVCDC@@@8					; CDC `RTTI Type Descriptor'
EXTRN	?TextOutA@CDC@@UAEHHHPBDH@Z:NEAR		; CDC::TextOutA
EXTRN	?ExtTextOutA@CDC@@UAEHHHIPBUtagRECT@@PBDIPAH@Z:NEAR ; CDC::ExtTextOutA
EXTRN	?TabbedTextOutA@CDC@@UAE?AVCSize@@HHPBDHHPAHH@Z:NEAR ; CDC::TabbedTextOutA
EXTRN	?DrawTextA@CDC@@UAEHPBDHPAUtagRECT@@I@Z:NEAR	; CDC::DrawTextA
EXTRN	?DrawTextExA@CDC@@UAEHPADHPAUtagRECT@@IPAUtagDRAWTEXTPARAMS@@@Z:NEAR ; CDC::DrawTextExA
EXTRN	?GrayStringA@CDC@@UAEHPAVCBrush@@P6GHPAUHDC__@@JH@ZJHHHHH@Z:NEAR ; CDC::GrayStringA
EXTRN	?Escape@CDC@@UAEHHHPBDPAX@Z:NEAR		; CDC::Escape
EXTRN	??1CDC@@UAE@XZ:NEAR				; CDC::~CDC
EXTRN	?AssertValid@CDC@@UBEXXZ:NEAR			; CDC::AssertValid
EXTRN	?Dump@CDC@@UBEXAAVCDumpContext@@@Z:NEAR		; CDC::Dump
EXTRN	??0CBitmap@@QAE@XZ:NEAR				; CBitmap::CBitmap
EXTRN	?Width@CRect@@QBEHXZ:NEAR			; CRect::Width
EXTRN	?Height@CRect@@QBEHXZ:NEAR			; CRect::Height
EXTRN	?CreateCompatibleBitmap@CBitmap@@QAEHPAVCDC@@HH@Z:NEAR ; CBitmap::CreateCompatibleBitmap
EXTRN	??2CObject@@SGPAXI@Z:NEAR			; CObject::operator new
EXTRN	??_ECMemDC@@UAEPAXI@Z:NEAR			; CMemDC::`vector deleting destructor'
EXTRN	?GetRuntimeClass@CDC@@UBEPAUCRuntimeClass@@XZ:NEAR ; CDC::GetRuntimeClass
EXTRN	?SetAttribDC@CDC@@UAEXPAUHDC__@@@Z:NEAR		; CDC::SetAttribDC
EXTRN	?SetOutputDC@CDC@@UAEXPAUHDC__@@@Z:NEAR		; CDC::SetOutputDC
EXTRN	?ReleaseAttribDC@CDC@@UAEXXZ:NEAR		; CDC::ReleaseAttribDC
EXTRN	?ReleaseOutputDC@CDC@@UAEXXZ:NEAR		; CDC::ReleaseOutputDC
EXTRN	??0CDC@@QAE@XZ:NEAR				; CDC::CDC
EXTRN	?CreateCompatibleDC@CDC@@QAEHPAV1@@Z:NEAR	; CDC::CreateCompatibleDC
EXTRN	?SaveDC@CDC@@UAEHXZ:NEAR			; CDC::SaveDC
EXTRN	?RestoreDC@CDC@@UAEHH@Z:NEAR			; CDC::RestoreDC
EXTRN	?SelectStockObject@CDC@@UAEPAVCGdiObject@@H@Z:NEAR ; CDC::SelectStockObject
EXTRN	?SelectObject@CDC@@UAEPAVCFont@@PAV2@@Z:NEAR	; CDC::SelectObject
EXTRN	?SelectObject@CDC@@QAEPAVCBitmap@@PAV2@@Z:NEAR	; CDC::SelectObject
EXTRN	?SetBkColor@CDC@@UAEKK@Z:NEAR			; CDC::SetBkColor
EXTRN	?SetTextColor@CDC@@UAEKK@Z:NEAR			; CDC::SetTextColor
EXTRN	?SetMapMode@CDC@@UAEHH@Z:NEAR			; CDC::SetMapMode
EXTRN	?SetViewportOrg@CDC@@UAE?AVCPoint@@HH@Z:NEAR	; CDC::SetViewportOrg
EXTRN	?OffsetViewportOrg@CDC@@UAE?AVCPoint@@HH@Z:NEAR	; CDC::OffsetViewportOrg
EXTRN	?SetViewportExt@CDC@@UAE?AVCSize@@HH@Z:NEAR	; CDC::SetViewportExt
EXTRN	?ScaleViewportExt@CDC@@UAE?AVCSize@@HHHH@Z:NEAR	; CDC::ScaleViewportExt
EXTRN	?SetWindowExt@CDC@@UAE?AVCSize@@HH@Z:NEAR	; CDC::SetWindowExt
EXTRN	?ScaleWindowExt@CDC@@UAE?AVCSize@@HHHH@Z:NEAR	; CDC::ScaleWindowExt
EXTRN	?GetClipBox@CDC@@UBEHPAUtagRECT@@@Z:NEAR	; CDC::GetClipBox
EXTRN	?PtVisible@CDC@@UBEHHH@Z:NEAR			; CDC::PtVisible
EXTRN	?RectVisible@CDC@@UBEHPBUtagRECT@@@Z:NEAR	; CDC::RectVisible
;	COMDAT xdata$x
; File d:\boxgit\playbox\playbox\dev\prj\playbox\src\gui\commoncontrol\listctrol\gdiex.h
xdata$x	SEGMENT
$T189145 DD	0ffffffffH
	DD	FLAT:$L189140
	DD	00H
	DD	FLAT:$L189141
$T189143 DD	019930520H
	DD	02H
	DD	FLAT:$T189145
	DD	2 DUP(00H)
	DD	2 DUP(00H)
xdata$x	ENDS
;	COMDAT ??_7CMemDC@@6B@
CONST	SEGMENT
??_7CMemDC@@6B@ DD FLAT:??_R4CMemDC@@6B@		; CMemDC::`vftable'
	DD	FLAT:?GetRuntimeClass@CDC@@UBEPAUCRuntimeClass@@XZ
	DD	FLAT:??_ECMemDC@@UAEPAXI@Z
	DD	FLAT:?Serialize@CObject@@UAEXAAVCArchive@@@Z
	DD	FLAT:?AssertValid@CDC@@UBEXXZ
	DD	FLAT:?Dump@CDC@@UBEXAAVCDumpContext@@@Z
	DD	FLAT:?SetAttribDC@CDC@@UAEXPAUHDC__@@@Z
	DD	FLAT:?SetOutputDC@CDC@@UAEXPAUHDC__@@@Z
	DD	FLAT:?ReleaseAttribDC@CDC@@UAEXXZ
	DD	FLAT:?ReleaseOutputDC@CDC@@UAEXXZ
	DD	FLAT:?SaveDC@CDC@@UAEHXZ
	DD	FLAT:?RestoreDC@CDC@@UAEHH@Z
	DD	FLAT:?SelectStockObject@CDC@@UAEPAVCGdiObject@@H@Z
	DD	FLAT:?SelectObject@CDC@@UAEPAVCFont@@PAV2@@Z
	DD	FLAT:?SetBkColor@CDC@@UAEKK@Z
	DD	FLAT:?SetTextColor@CDC@@UAEKK@Z
	DD	FLAT:?SetMapMode@CDC@@UAEHH@Z
	DD	FLAT:?SetViewportOrg@CDC@@UAE?AVCPoint@@HH@Z
	DD	FLAT:?OffsetViewportOrg@CDC@@UAE?AVCPoint@@HH@Z
	DD	FLAT:?SetViewportExt@CDC@@UAE?AVCSize@@HH@Z
	DD	FLAT:?ScaleViewportExt@CDC@@UAE?AVCSize@@HHHH@Z
	DD	FLAT:?SetWindowExt@CDC@@UAE?AVCSize@@HH@Z
	DD	FLAT:?ScaleWindowExt@CDC@@UAE?AVCSize@@HHHH@Z
	DD	FLAT:?GetClipBox@CDC@@UBEHPAUtagRECT@@@Z
	DD	FLAT:?PtVisible@CDC@@UBEHHH@Z
	DD	FLAT:?RectVisible@CDC@@UBEHPBUtagRECT@@@Z
	DD	FLAT:?TextOutA@CDC@@UAEHHHPBDH@Z
	DD	FLAT:?ExtTextOutA@CDC@@UAEHHHIPBUtagRECT@@PBDIPAH@Z
	DD	FLAT:?TabbedTextOutA@CDC@@UAE?AVCSize@@HHPBDHHPAHH@Z
	DD	FLAT:?DrawTextA@CDC@@UAEHPBDHPAUtagRECT@@I@Z
	DD	FLAT:?DrawTextExA@CDC@@UAEHPADHPAUtagRECT@@IPAUtagDRAWTEXTPARAMS@@@Z
	DD	FLAT:?GrayStringA@CDC@@UAEHPAVCBrush@@P6GHPAUHDC__@@JH@ZJHHHHH@Z
	DD	FLAT:?Escape@CDC@@UAEHHHPBDPAX@Z
CONST	ENDS
;	COMDAT ??_R4CMemDC@@6B@
rdata$r	SEGMENT
??_R4CMemDC@@6B@ DD 00H					; CMemDC::`RTTI Complete Object Locator'
	DD	00H
	DD	00H
	DD	FLAT:??_R0?AVCMemDC@@@8
	DD	FLAT:??_R3CMemDC@@8
rdata$r	ENDS
;	COMDAT ??_R0?AVCMemDC@@@8
_DATA	SEGMENT
??_R0?AVCMemDC@@@8 DD FLAT:??_7type_info@@6B@		; CMemDC `RTTI Type Descriptor'
	DD	00H
	DB	'.?AVCMemDC@@', 00H
_DATA	ENDS
;	COMDAT ??_R3CMemDC@@8
rdata$r	SEGMENT
??_R3CMemDC@@8 DD 00H					; CMemDC::`RTTI Class Hierarchy Descriptor'
	DD	00H
	DD	03H
	DD	FLAT:??_R2CMemDC@@8
rdata$r	ENDS
;	COMDAT ??_R2CMemDC@@8
rdata$r	SEGMENT
??_R2CMemDC@@8 DD FLAT:??_R1A@?0A@A@CMemDC@@8		; CMemDC::`RTTI Base Class Array'
	DD	FLAT:??_R1A@?0A@A@CDC@@8
	DD	FLAT:??_R1A@?0A@A@CObject@@8
rdata$r	ENDS
;	COMDAT ??_R1A@?0A@A@CMemDC@@8
rdata$r	SEGMENT
??_R1A@?0A@A@CMemDC@@8 DD FLAT:??_R0?AVCMemDC@@@8	; CMemDC::`RTTI Base Class Descriptor at (0,-1,0,0)'
	DD	02H
	DD	00H
	DD	0ffffffffH
	DD	00H
	DD	00H
rdata$r	ENDS
;	COMDAT ??_R1A@?0A@A@CDC@@8
rdata$r	SEGMENT
??_R1A@?0A@A@CDC@@8 DD FLAT:??_R0?AVCDC@@@8		; CDC::`RTTI Base Class Descriptor at (0,-1,0,0)'
	DD	01H
	DD	00H
	DD	0ffffffffH
	DD	00H
	DD	00H
rdata$r	ENDS
;	COMDAT ??_R0?AVCDC@@@8
_DATA	SEGMENT
??_R0?AVCDC@@@8 DD FLAT:??_7type_info@@6B@		; CDC `RTTI Type Descriptor'
	DD	00H
	DB	'.?AVCDC@@', 00H
; Function compile flags: /Odt /RTCsu
_DATA	ENDS
;	COMDAT ??0CMemDC@@QAE@PAVCDC@@ABVCRect@@@Z
_TEXT	SEGMENT
tv79 = -28						; size = 4
$T189137 = -24						; size = 4
$T189136 = -20						; size = 4
_this$ = -16						; size = 4
__$EHRec$ = -12						; size = 12
_apDC$ = 8						; size = 4
_arcBounds$ = 12					; size = 4
??0CMemDC@@QAE@PAVCDC@@ABVCRect@@@Z PROC NEAR		; CMemDC::CMemDC, COMDAT
; _this$ = ecx

; 69   : 	{

  00000	55		 push	 ebp
  00001	8b ec		 mov	 ebp, esp
  00003	6a ff		 push	 -1
  00005	68 00 00 00 00	 push	 __ehhandler$??0CMemDC@@QAE@PAVCDC@@ABVCRect@@@Z
  0000a	64 a1 00 00 00
	00		 mov	 eax, DWORD PTR fs:__except_list
  00010	50		 push	 eax
  00011	64 89 25 00 00
	00 00		 mov	 DWORD PTR fs:__except_list, esp
  00018	83 ec 10	 sub	 esp, 16			; 00000010H
  0001b	b8 cc cc cc cc	 mov	 eax, -858993460		; ccccccccH
  00020	89 45 e4	 mov	 DWORD PTR [ebp-28], eax
  00023	89 45 e8	 mov	 DWORD PTR [ebp-24], eax
  00026	89 45 ec	 mov	 DWORD PTR [ebp-20], eax
  00029	89 45 f0	 mov	 DWORD PTR [ebp-16], eax
  0002c	89 4d f0	 mov	 DWORD PTR _this$[ebp], ecx
  0002f	8b 4d f0	 mov	 ecx, DWORD PTR _this$[ebp]
  00032	e8 00 00 00 00	 call	 ??0CDC@@QAE@XZ		; CDC::CDC
  00037	c7 45 fc 00 00
	00 00		 mov	 DWORD PTR __$EHRec$[ebp+8], 0
  0003e	8b 45 f0	 mov	 eax, DWORD PTR _this$[ebp]
  00041	c7 00 00 00 00
	00		 mov	 DWORD PTR [eax], OFFSET FLAT:??_7CMemDC@@6B@
  00047	8b 4d f0	 mov	 ecx, DWORD PTR _this$[ebp]
  0004a	83 c1 1c	 add	 ecx, 28			; 0000001cH
  0004d	e8 00 00 00 00	 call	 ??0CRect@@QAE@XZ	; CRect::CRect

; 70   : 		CreateCompatibleDC(apDC);

  00052	8b 4d 08	 mov	 ecx, DWORD PTR _apDC$[ebp]
  00055	51		 push	 ecx
  00056	8b 4d f0	 mov	 ecx, DWORD PTR _this$[ebp]
  00059	e8 00 00 00 00	 call	 ?CreateCompatibleDC@CDC@@QAEHPAV1@@Z ; CDC::CreateCompatibleDC

; 71   : 		mpBitmap = new CBitmap;

  0005e	6a 08		 push	 8
  00060	e8 00 00 00 00	 call	 ??2CObject@@SGPAXI@Z	; CObject::operator new
  00065	89 45 e8	 mov	 DWORD PTR $T189137[ebp], eax
  00068	c6 45 fc 01	 mov	 BYTE PTR __$EHRec$[ebp+8], 1
  0006c	83 7d e8 00	 cmp	 DWORD PTR $T189137[ebp], 0
  00070	74 0d		 je	 SHORT $L189138
  00072	8b 4d e8	 mov	 ecx, DWORD PTR $T189137[ebp]
  00075	e8 00 00 00 00	 call	 ??0CBitmap@@QAE@XZ	; CBitmap::CBitmap
  0007a	89 45 e4	 mov	 DWORD PTR tv79[ebp], eax
  0007d	eb 07		 jmp	 SHORT $L189139
$L189138:
  0007f	c7 45 e4 00 00
	00 00		 mov	 DWORD PTR tv79[ebp], 0
$L189139:
  00086	8b 55 e4	 mov	 edx, DWORD PTR tv79[ebp]
  00089	89 55 ec	 mov	 DWORD PTR $T189136[ebp], edx
  0008c	c6 45 fc 00	 mov	 BYTE PTR __$EHRec$[ebp+8], 0
  00090	8b 45 f0	 mov	 eax, DWORD PTR _this$[ebp]
  00093	8b 4d ec	 mov	 ecx, DWORD PTR $T189136[ebp]
  00096	89 48 10	 mov	 DWORD PTR [eax+16], ecx

; 72   : 		mpBitmap->CreateCompatibleBitmap(apDC, arcBounds.Width() + arcBounds.left, arcBounds.Height() + arcBounds.top);

  00099	8b 4d 0c	 mov	 ecx, DWORD PTR _arcBounds$[ebp]
  0009c	e8 00 00 00 00	 call	 ?Height@CRect@@QBEHXZ	; CRect::Height
  000a1	8b 55 0c	 mov	 edx, DWORD PTR _arcBounds$[ebp]
  000a4	03 42 04	 add	 eax, DWORD PTR [edx+4]
  000a7	50		 push	 eax
  000a8	8b 4d 0c	 mov	 ecx, DWORD PTR _arcBounds$[ebp]
  000ab	e8 00 00 00 00	 call	 ?Width@CRect@@QBEHXZ	; CRect::Width
  000b0	8b 4d 0c	 mov	 ecx, DWORD PTR _arcBounds$[ebp]
  000b3	03 01		 add	 eax, DWORD PTR [ecx]
  000b5	50		 push	 eax
  000b6	8b 55 08	 mov	 edx, DWORD PTR _apDC$[ebp]
  000b9	52		 push	 edx
  000ba	8b 45 f0	 mov	 eax, DWORD PTR _this$[ebp]
  000bd	8b 48 10	 mov	 ecx, DWORD PTR [eax+16]
  000c0	e8 00 00 00 00	 call	 ?CreateCompatibleBitmap@CBitmap@@QAEHPAVCDC@@HH@Z ; CBitmap::CreateCompatibleBitmap

; 73   : 		mpOldBitmap = SelectObject(mpBitmap);

  000c5	8b 4d f0	 mov	 ecx, DWORD PTR _this$[ebp]
  000c8	8b 51 10	 mov	 edx, DWORD PTR [ecx+16]
  000cb	52		 push	 edx
  000cc	8b 4d f0	 mov	 ecx, DWORD PTR _this$[ebp]
  000cf	e8 00 00 00 00	 call	 ?SelectObject@CDC@@QAEPAVCBitmap@@PAV2@@Z ; CDC::SelectObject
  000d4	8b 4d f0	 mov	 ecx, DWORD PTR _this$[ebp]
  000d7	89 41 14	 mov	 DWORD PTR [ecx+20], eax

; 74   : 		mpDC = apDC;

  000da	8b 55 f0	 mov	 edx, DWORD PTR _this$[ebp]
  000dd	8b 45 08	 mov	 eax, DWORD PTR _apDC$[ebp]
  000e0	89 42 18	 mov	 DWORD PTR [edx+24], eax

; 75   : 		mrcBounds = arcBounds;

  000e3	8b 4d 0c	 mov	 ecx, DWORD PTR _arcBounds$[ebp]
  000e6	8b 55 f0	 mov	 edx, DWORD PTR _this$[ebp]
  000e9	83 c2 1c	 add	 edx, 28			; 0000001cH
  000ec	8b 01		 mov	 eax, DWORD PTR [ecx]
  000ee	89 02		 mov	 DWORD PTR [edx], eax
  000f0	8b 41 04	 mov	 eax, DWORD PTR [ecx+4]
  000f3	89 42 04	 mov	 DWORD PTR [edx+4], eax
  000f6	8b 41 08	 mov	 eax, DWORD PTR [ecx+8]
  000f9	89 42 08	 mov	 DWORD PTR [edx+8], eax
  000fc	8b 49 0c	 mov	 ecx, DWORD PTR [ecx+12]
  000ff	89 4a 0c	 mov	 DWORD PTR [edx+12], ecx

; 76   : 	}

  00102	c7 45 fc ff ff
	ff ff		 mov	 DWORD PTR __$EHRec$[ebp+8], -1
  00109	8b 45 f0	 mov	 eax, DWORD PTR _this$[ebp]
  0010c	8b 4d f4	 mov	 ecx, DWORD PTR __$EHRec$[ebp]
  0010f	64 89 0d 00 00
	00 00		 mov	 DWORD PTR fs:__except_list, ecx
  00116	83 c4 1c	 add	 esp, 28			; 0000001cH
  00119	3b ec		 cmp	 ebp, esp
  0011b	e8 00 00 00 00	 call	 __RTC_CheckEsp
  00120	8b e5		 mov	 esp, ebp
  00122	5d		 pop	 ebp
  00123	c2 08 00	 ret	 8
_TEXT	ENDS
;	COMDAT text$x
text$x	SEGMENT
$L189140:
  00000	8b 4d f0	 mov	 ecx, DWORD PTR _this$[ebp]
  00003	e9 00 00 00 00	 jmp	 ??1CDC@@UAE@XZ		; CDC::~CDC
$L189141:
  00008	8b 45 e8	 mov	 eax, DWORD PTR $T189137[ebp]
  0000b	50		 push	 eax
  0000c	e8 00 00 00 00	 call	 ??3CObject@@SGXPAX@Z	; CObject::operator delete
  00011	c3		 ret	 0
__ehhandler$??0CMemDC@@QAE@PAVCDC@@ABVCRect@@@Z:
  00012	b8 00 00 00 00	 mov	 eax, OFFSET FLAT:$T189143
  00017	e9 00 00 00 00	 jmp	 ___CxxFrameHandler
text$x	ENDS
??0CMemDC@@QAE@PAVCDC@@ABVCRect@@@Z ENDP		; CMemDC::CMemDC
EXTRN	?BitBlt@CDC@@QAEHHHHHPAV1@HHK@Z:NEAR		; CDC::BitBlt
;	COMDAT xdata$x
xdata$x	SEGMENT
$T189157 DD	0ffffffffH
	DD	FLAT:$L189153
$T189155 DD	019930520H
	DD	01H
	DD	FLAT:$T189157
	DD	2 DUP(00H)
	DD	2 DUP(00H)
; Function compile flags: /Odt /RTCsu
xdata$x	ENDS
;	COMDAT ??1CMemDC@@UAE@XZ
_TEXT	SEGMENT
tv134 = -28						; size = 4
$T189150 = -24						; size = 4
$T189149 = -20						; size = 4
_this$ = -16						; size = 4
__$EHRec$ = -12						; size = 12
??1CMemDC@@UAE@XZ PROC NEAR				; CMemDC::~CMemDC, COMDAT
; _this$ = ecx

; 78   : 	{

  00000	55		 push	 ebp
  00001	8b ec		 mov	 ebp, esp
  00003	6a ff		 push	 -1
  00005	68 00 00 00 00	 push	 __ehhandler$??1CMemDC@@UAE@XZ
  0000a	64 a1 00 00 00
	00		 mov	 eax, DWORD PTR fs:__except_list
  00010	50		 push	 eax
  00011	64 89 25 00 00
	00 00		 mov	 DWORD PTR fs:__except_list, esp
  00018	83 ec 10	 sub	 esp, 16			; 00000010H
  0001b	56		 push	 esi
  0001c	b8 cc cc cc cc	 mov	 eax, -858993460		; ccccccccH
  00021	89 45 e4	 mov	 DWORD PTR [ebp-28], eax
  00024	89 45 e8	 mov	 DWORD PTR [ebp-24], eax
  00027	89 45 ec	 mov	 DWORD PTR [ebp-20], eax
  0002a	89 45 f0	 mov	 DWORD PTR [ebp-16], eax
  0002d	89 4d f0	 mov	 DWORD PTR _this$[ebp], ecx
  00030	8b 45 f0	 mov	 eax, DWORD PTR _this$[ebp]
  00033	c7 00 00 00 00
	00		 mov	 DWORD PTR [eax], OFFSET FLAT:??_7CMemDC@@6B@
  00039	c7 45 fc 00 00
	00 00		 mov	 DWORD PTR __$EHRec$[ebp+8], 0

; 79   : 		mpDC->BitBlt(mrcBounds.left, mrcBounds.top, mrcBounds.Width(), mrcBounds.Height(), 
; 80   : 					this, mrcBounds.left, mrcBounds.top, SRCCOPY);

  00040	68 20 00 cc 00	 push	 13369376		; 00cc0020H
  00045	8b 4d f0	 mov	 ecx, DWORD PTR _this$[ebp]
  00048	8b 51 20	 mov	 edx, DWORD PTR [ecx+32]
  0004b	52		 push	 edx
  0004c	8b 45 f0	 mov	 eax, DWORD PTR _this$[ebp]
  0004f	8b 48 1c	 mov	 ecx, DWORD PTR [eax+28]
  00052	51		 push	 ecx
  00053	8b 55 f0	 mov	 edx, DWORD PTR _this$[ebp]
  00056	52		 push	 edx
  00057	8b 4d f0	 mov	 ecx, DWORD PTR _this$[ebp]
  0005a	83 c1 1c	 add	 ecx, 28			; 0000001cH
  0005d	e8 00 00 00 00	 call	 ?Height@CRect@@QBEHXZ	; CRect::Height
  00062	50		 push	 eax
  00063	8b 4d f0	 mov	 ecx, DWORD PTR _this$[ebp]
  00066	83 c1 1c	 add	 ecx, 28			; 0000001cH
  00069	e8 00 00 00 00	 call	 ?Width@CRect@@QBEHXZ	; CRect::Width
  0006e	50		 push	 eax
  0006f	8b 45 f0	 mov	 eax, DWORD PTR _this$[ebp]
  00072	8b 48 20	 mov	 ecx, DWORD PTR [eax+32]
  00075	51		 push	 ecx
  00076	8b 55 f0	 mov	 edx, DWORD PTR _this$[ebp]
  00079	8b 42 1c	 mov	 eax, DWORD PTR [edx+28]
  0007c	50		 push	 eax
  0007d	8b 4d f0	 mov	 ecx, DWORD PTR _this$[ebp]
  00080	8b 49 18	 mov	 ecx, DWORD PTR [ecx+24]
  00083	e8 00 00 00 00	 call	 ?BitBlt@CDC@@QAEHHHHHPAV1@HHK@Z ; CDC::BitBlt

; 81   : 		SelectObject(mpOldBitmap);

  00088	8b 55 f0	 mov	 edx, DWORD PTR _this$[ebp]
  0008b	8b 42 14	 mov	 eax, DWORD PTR [edx+20]
  0008e	50		 push	 eax
  0008f	8b 4d f0	 mov	 ecx, DWORD PTR _this$[ebp]
  00092	e8 00 00 00 00	 call	 ?SelectObject@CDC@@QAEPAVCBitmap@@PAV2@@Z ; CDC::SelectObject

; 82   : 		if (mpBitmap != NULL)

  00097	8b 4d f0	 mov	 ecx, DWORD PTR _this$[ebp]
  0009a	83 79 10 00	 cmp	 DWORD PTR [ecx+16], 0
  0009e	74 41		 je	 SHORT $L107046

; 83   : 		{
; 84   : 			delete mpBitmap;

  000a0	8b 55 f0	 mov	 edx, DWORD PTR _this$[ebp]
  000a3	8b 42 10	 mov	 eax, DWORD PTR [edx+16]
  000a6	89 45 e8	 mov	 DWORD PTR $T189150[ebp], eax
  000a9	8b 4d e8	 mov	 ecx, DWORD PTR $T189150[ebp]
  000ac	89 4d ec	 mov	 DWORD PTR $T189149[ebp], ecx
  000af	83 7d ec 00	 cmp	 DWORD PTR $T189149[ebp], 0
  000b3	74 1b		 je	 SHORT $L189151
  000b5	8b f4		 mov	 esi, esp
  000b7	6a 01		 push	 1
  000b9	8b 55 ec	 mov	 edx, DWORD PTR $T189149[ebp]
  000bc	8b 02		 mov	 eax, DWORD PTR [edx]
  000be	8b 4d ec	 mov	 ecx, DWORD PTR $T189149[ebp]
  000c1	ff 50 04	 call	 DWORD PTR [eax+4]
  000c4	3b f4		 cmp	 esi, esp
  000c6	e8 00 00 00 00	 call	 __RTC_CheckEsp
  000cb	89 45 e4	 mov	 DWORD PTR tv134[ebp], eax
  000ce	eb 07		 jmp	 SHORT $L189152
$L189151:
  000d0	c7 45 e4 00 00
	00 00		 mov	 DWORD PTR tv134[ebp], 0
$L189152:

; 85   : 			mpBitmap = NULL;

  000d7	8b 4d f0	 mov	 ecx, DWORD PTR _this$[ebp]
  000da	c7 41 10 00 00
	00 00		 mov	 DWORD PTR [ecx+16], 0
$L107046:

; 86   : 		}
; 87   : 	}

  000e1	c7 45 fc ff ff
	ff ff		 mov	 DWORD PTR __$EHRec$[ebp+8], -1
  000e8	8b 4d f0	 mov	 ecx, DWORD PTR _this$[ebp]
  000eb	e8 00 00 00 00	 call	 ??1CDC@@UAE@XZ		; CDC::~CDC
  000f0	8b 4d f4	 mov	 ecx, DWORD PTR __$EHRec$[ebp]
  000f3	64 89 0d 00 00
	00 00		 mov	 DWORD PTR fs:__except_list, ecx
  000fa	5e		 pop	 esi
  000fb	83 c4 1c	 add	 esp, 28			; 0000001cH
  000fe	3b ec		 cmp	 ebp, esp
  00100	e8 00 00 00 00	 call	 __RTC_CheckEsp
  00105	8b e5		 mov	 esp, ebp
  00107	5d		 pop	 ebp
  00108	c3		 ret	 0
_TEXT	ENDS
;	COMDAT text$x
text$x	SEGMENT
$L189153:
  00000	8b 4d f0	 mov	 ecx, DWORD PTR _this$[ebp]
  00003	e9 00 00 00 00	 jmp	 ??1CDC@@UAE@XZ		; CDC::~CDC
__ehhandler$??1CMemDC@@UAE@XZ:
  00008	b8 00 00 00 00	 mov	 eax, OFFSET FLAT:$T189155
  0000d	e9 00 00 00 00	 jmp	 ___CxxFrameHandler
text$x	ENDS
??1CMemDC@@UAE@XZ ENDP					; CMemDC::~CMemDC
; Function compile flags: /Odt /RTCsu
;	COMDAT ??_GCMemDC@@UAEPAXI@Z
_TEXT	SEGMENT
_this$ = -4						; size = 4
___flags$ = 8						; size = 4
??_GCMemDC@@UAEPAXI@Z PROC NEAR				; CMemDC::`scalar deleting destructor', COMDAT
; _this$ = ecx
  00000	55		 push	 ebp
  00001	8b ec		 mov	 ebp, esp
  00003	51		 push	 ecx
  00004	c7 45 fc cc cc
	cc cc		 mov	 DWORD PTR [ebp-4], -858993460 ; ccccccccH
  0000b	89 4d fc	 mov	 DWORD PTR _this$[ebp], ecx
  0000e	8b 4d fc	 mov	 ecx, DWORD PTR _this$[ebp]
  00011	e8 00 00 00 00	 call	 ??1CMemDC@@UAE@XZ	; CMemDC::~CMemDC
  00016	8b 45 08	 mov	 eax, DWORD PTR ___flags$[ebp]
  00019	83 e0 01	 and	 eax, 1
  0001c	74 09		 je	 SHORT $L107056
  0001e	8b 4d fc	 mov	 ecx, DWORD PTR _this$[ebp]
  00021	51		 push	 ecx
  00022	e8 00 00 00 00	 call	 ??3CObject@@SGXPAX@Z	; CObject::operator delete
$L107056:
  00027	8b 45 fc	 mov	 eax, DWORD PTR _this$[ebp]
  0002a	83 c4 04	 add	 esp, 4
  0002d	3b ec		 cmp	 ebp, esp
  0002f	e8 00 00 00 00	 call	 __RTC_CheckEsp
  00034	8b e5		 mov	 esp, ebp
  00036	5d		 pop	 ebp
  00037	c2 04 00	 ret	 4
??_GCMemDC@@UAEPAXI@Z ENDP				; CMemDC::`scalar deleting destructor'
_TEXT	ENDS
END
