; Listing generated by Microsoft (R) Optimizing Compiler Version 13.10.3077 

	TITLE	.\src\AppConfig\config\SetBaseCtrls\SetBaseStatic.cpp
	.386P
include listing.inc
if @Version gt 510
.model FLAT
else
_TEXT	SEGMENT PARA USE32 PUBLIC 'CODE'
_TEXT	ENDS
_DATA	SEGMENT DWORD USE32 PUBLIC 'DATA'
_DATA	ENDS
CONST	SEGMENT DWORD USE32 PUBLIC 'CONST'
CONST	ENDS
_BSS	SEGMENT DWORD USE32 PUBLIC 'BSS'
_BSS	ENDS
$$SYMBOLS	SEGMENT BYTE USE32 'DEBSYM'
$$SYMBOLS	ENDS
_TLS	SEGMENT DWORD USE32 PUBLIC 'TLS'
_TLS	ENDS
;	COMDAT ??_C@_0EN@IBFBLEEG@D?3?2Program?5Files?5?$CIx86?$CJ?2Microsoft@
CONST	SEGMENT DWORD USE32 PUBLIC 'CONST'
CONST	ENDS
rdata$r	SEGMENT DWORD USE32 PUBLIC 'CONST'
rdata$r	ENDS
xdata$x	SEGMENT DWORD USE32 PUBLIC 'CONST'
xdata$x	ENDS
text$AFX_COL1	SEGMENT PARA USE32 PUBLIC ''
text$AFX_COL1	ENDS
text$yc	SEGMENT PARA USE32 PUBLIC 'CODE'
text$yc	ENDS
CRT$XCA	SEGMENT DWORD USE32 PUBLIC 'DATA'
CRT$XCA	ENDS
CRT$XCU	SEGMENT DWORD USE32 PUBLIC 'DATA'
CRT$XCU	ENDS
CRT$XCL	SEGMENT DWORD USE32 PUBLIC 'DATA'
CRT$XCL	ENDS
CRT$XCC	SEGMENT DWORD USE32 PUBLIC 'DATA'
CRT$XCC	ENDS
CRT$XCZ	SEGMENT DWORD USE32 PUBLIC 'DATA'
CRT$XCZ	ENDS
text$yd	SEGMENT PARA USE32 PUBLIC 'CODE'
text$yd	ENDS
ATL$__m	SEGMENT DWORD USE32 PUBLIC ''
ATL$__m	ENDS
ATL$__z	SEGMENT DWORD USE32 PUBLIC ''
ATL$__z	ENDS
ATL$__a	SEGMENT DWORD USE32 PUBLIC ''
ATL$__a	ENDS
;	COMDAT ??_GSetBaseStatic@@UAEPAXI@Z
_TEXT	SEGMENT PARA USE32 PUBLIC 'CODE'
_TEXT	ENDS
;	COMDAT ??B?$CComPtrBase@UITypeInfo2@@@ATL@@QBEPAUITypeInfo2@@XZ
_TEXT	SEGMENT PARA USE32 PUBLIC 'CODE'
_TEXT	ENDS
;	COMDAT ?equal@?$istreambuf_iterator@DU?$char_traits@D@std@@@std@@QBE_NABV12@@Z
_TEXT	SEGMENT PARA USE32 PUBLIC 'CODE'
_TEXT	ENDS
;	COMDAT ?equal@?$istreambuf_iterator@_WU?$char_traits@_W@std@@@std@@QBE_NABV12@@Z
_TEXT	SEGMENT PARA USE32 PUBLIC 'CODE'
_TEXT	ENDS
;	COMDAT ?Unlock@?$CComCritSecLock@VCComCriticalSection@ATL@@@ATL@@QAEXXZ
_TEXT	SEGMENT PARA USE32 PUBLIC 'CODE'
_TEXT	ENDS
;	COMDAT ??$_Maklocstr@D@std@@YAPADPBDPADABU_Cvtvec@@@Z
_TEXT	SEGMENT PARA USE32 PUBLIC 'CODE'
_TEXT	ENDS
;	COMDAT ??_R3SetBaseStatic@@8
rdata$r	SEGMENT DWORD USE32 PUBLIC 'CONST'
rdata$r	ENDS
;	COMDAT ??_R3?$numpunct@_W@std@@8
rdata$r	SEGMENT DWORD USE32 PUBLIC 'CONST'
rdata$r	ENDS
;	COMDAT ??_R3?$numpunct@D@std@@8
rdata$r	SEGMENT DWORD USE32 PUBLIC 'CONST'
rdata$r	ENDS
;	COMDAT ??_R2SetBaseStatic@@8
rdata$r	SEGMENT DWORD USE32 PUBLIC 'CONST'
rdata$r	ENDS
;	COMDAT ??_R2?$numpunct@_W@std@@8
rdata$r	SEGMENT DWORD USE32 PUBLIC 'CONST'
rdata$r	ENDS
;	COMDAT ??_R2?$numpunct@D@std@@8
rdata$r	SEGMENT DWORD USE32 PUBLIC 'CONST'
rdata$r	ENDS
;	COMDAT ??_R1A@?0A@A@CObject@@8
rdata$r	SEGMENT DWORD USE32 PUBLIC 'CONST'
rdata$r	ENDS
;	COMDAT ??_R0?AVCObject@@@8
_DATA	SEGMENT DWORD USE32 PUBLIC 'DATA'
_DATA	ENDS
;	COMDAT ??_R1A@?0A@A@CCmdTarget@@8
rdata$r	SEGMENT DWORD USE32 PUBLIC 'CONST'
rdata$r	ENDS
;	COMDAT ??_R0?AVCCmdTarget@@@8
_DATA	SEGMENT DWORD USE32 PUBLIC 'DATA'
_DATA	ENDS
;	COMDAT ??_R1A@?0A@A@CWnd@@8
rdata$r	SEGMENT DWORD USE32 PUBLIC 'CONST'
rdata$r	ENDS
;	COMDAT ??_R0?AVCWnd@@@8
_DATA	SEGMENT DWORD USE32 PUBLIC 'DATA'
_DATA	ENDS
;	COMDAT ??_R1A@?0A@A@CStatic@@8
rdata$r	SEGMENT DWORD USE32 PUBLIC 'CONST'
rdata$r	ENDS
;	COMDAT ??_R1A@?0A@A@SetBaseStatic@@8
rdata$r	SEGMENT DWORD USE32 PUBLIC 'CONST'
rdata$r	ENDS
;	COMDAT ??_R1A@?0A@A@?$numpunct@_W@std@@8
rdata$r	SEGMENT DWORD USE32 PUBLIC 'CONST'
rdata$r	ENDS
;	COMDAT ??_R1A@?0A@A@facet@locale@std@@8
rdata$r	SEGMENT DWORD USE32 PUBLIC 'CONST'
rdata$r	ENDS
;	COMDAT ??_R0?AVfacet@locale@std@@@8
_DATA	SEGMENT DWORD USE32 PUBLIC 'DATA'
_DATA	ENDS
;	COMDAT ??_R1A@?0A@A@?$numpunct@D@std@@8
rdata$r	SEGMENT DWORD USE32 PUBLIC 'CONST'
rdata$r	ENDS
;	COMDAT ??_R0?AVCStatic@@@8
_DATA	SEGMENT DWORD USE32 PUBLIC 'DATA'
_DATA	ENDS
;	COMDAT ??_R0?AVSetBaseStatic@@@8
_DATA	SEGMENT DWORD USE32 PUBLIC 'DATA'
_DATA	ENDS
;	COMDAT ??_R0?AV?$numpunct@_W@std@@@8
_DATA	SEGMENT DWORD USE32 PUBLIC 'DATA'
_DATA	ENDS
;	COMDAT ??_R0?AV?$numpunct@D@std@@@8
_DATA	SEGMENT DWORD USE32 PUBLIC 'DATA'
_DATA	ENDS
;	COMDAT ??_R4SetBaseStatic@@6B@
rdata$r	SEGMENT DWORD USE32 PUBLIC 'CONST'
rdata$r	ENDS
;	COMDAT ??0?$allocator@_W@std@@QAE@XZ
_TEXT	SEGMENT PARA USE32 PUBLIC 'CODE'
_TEXT	ENDS
;	COMDAT ??0?$allocator@D@std@@QAE@ABV01@@Z
_TEXT	SEGMENT PARA USE32 PUBLIC 'CODE'
_TEXT	ENDS
;	COMDAT ??0?$allocator@D@std@@QAE@XZ
_TEXT	SEGMENT PARA USE32 PUBLIC 'CODE'
_TEXT	ENDS
;	COMDAT ?deallocate@?$allocator@D@std@@QAEXPADI@Z
_TEXT	SEGMENT PARA USE32 PUBLIC 'CODE'
_TEXT	ENDS
;	COMDAT ?max_size@?$allocator@D@std@@QBEIXZ
_TEXT	SEGMENT PARA USE32 PUBLIC 'CODE'
_TEXT	ENDS
;	COMDAT ?allocate@?$allocator@D@std@@QAEPADI@Z
_TEXT	SEGMENT PARA USE32 PUBLIC 'CODE'
_TEXT	ENDS
;	COMDAT ??$_Allocate@D@std@@YAPADIPAD@Z
_TEXT	SEGMENT PARA USE32 PUBLIC 'CODE'
_TEXT	ENDS
;	COMDAT ??_G?$numpunct@_W@std@@MAEPAXI@Z
_TEXT	SEGMENT PARA USE32 PUBLIC 'CODE'
_TEXT	ENDS
;	COMDAT ??_R4?$numpunct@_W@std@@6B@
rdata$r	SEGMENT DWORD USE32 PUBLIC 'CONST'
rdata$r	ENDS
;	COMDAT ??_G?$numpunct@D@std@@MAEPAXI@Z
_TEXT	SEGMENT PARA USE32 PUBLIC 'CODE'
_TEXT	ENDS
;	COMDAT ??_R4?$numpunct@D@std@@6B@
rdata$r	SEGMENT DWORD USE32 PUBLIC 'CONST'
rdata$r	ENDS
;	COMDAT ??_C@_0EN@CBMLGOH@D?3?2Program?5Files?5?$CIx86?$CJ?2Microsoft@
CONST	SEGMENT DWORD USE32 PUBLIC 'CONST'
CONST	ENDS
;	COMDAT ?_Psave@?$_Facetptr@V?$numpunct@_W@std@@@std@@2PBVfacet@locale@2@B
_DATA	SEGMENT DWORD USE32 PUBLIC 'DATA'
_DATA	ENDS
;	COMDAT ?_Psave@?$_Facetptr@V?$numpunct@D@std@@@std@@2PBVfacet@locale@2@B
_DATA	SEGMENT DWORD USE32 PUBLIC 'DATA'
_DATA	ENDS
;	COMDAT ?Unlock@CComCriticalSection@ATL@@QAEJXZ
_TEXT	SEGMENT PARA USE32 PUBLIC 'CODE'
_TEXT	ENDS
;	COMDAT ??_C@_0FG@LDNDNCJM@D?3?2Program?5Files?5?$CIx86?$CJ?2Microsoft@
CONST	SEGMENT DWORD USE32 PUBLIC 'CONST'
CONST	ENDS
;	COMDAT ??_C@_09HIEJFN@m_bLocked?$AA@
CONST	SEGMENT DWORD USE32 PUBLIC 'CONST'
CONST	ENDS
;	COMDAT ?_Psave@?$_Facetptr@V?$ctype@_W@std@@@std@@2PBVfacet@locale@2@B
_DATA	SEGMENT DWORD USE32 PUBLIC 'DATA'
_DATA	ENDS
;	COMDAT ?_Psave@?$_Facetptr@V?$ctype@D@std@@@std@@2PBVfacet@locale@2@B
_DATA	SEGMENT DWORD USE32 PUBLIC 'DATA'
_DATA	ENDS
;	COMDAT ??$_Maklocchr@_W@std@@YA_WDPA_WABU_Cvtvec@@@Z
_TEXT	SEGMENT PARA USE32 PUBLIC 'CODE'
_TEXT	ENDS
;	COMDAT ??$_DebugHeapDelete@X@std@@YAXPAX@Z
_TEXT	SEGMENT PARA USE32 PUBLIC 'CODE'
_TEXT	ENDS
;	COMDAT ??$_Maklocstr@_W@std@@YAPA_WPBDPA_WABU_Cvtvec@@@Z
_TEXT	SEGMENT PARA USE32 PUBLIC 'CODE'
_TEXT	ENDS
;	COMDAT ??$_Maklocchr@D@std@@YADDPADABU_Cvtvec@@@Z
_TEXT	SEGMENT PARA USE32 PUBLIC 'CODE'
_TEXT	ENDS
;	COMDAT ??_C@_04LOAJBDKD@true?$AA@
CONST	SEGMENT DWORD USE32 PUBLIC 'CONST'
CONST	ENDS
;	COMDAT ??_C@_05LAPONLG@false?$AA@
CONST	SEGMENT DWORD USE32 PUBLIC 'CONST'
CONST	ENDS
;	COMDAT _wmemcpy
_TEXT	SEGMENT PARA USE32 PUBLIC 'CODE'
_TEXT	ENDS
;	COMDAT ?max_size@?$allocator@_W@std@@QBEIXZ
_TEXT	SEGMENT PARA USE32 PUBLIC 'CODE'
_TEXT	ENDS
;	COMDAT ?allocate@?$allocator@_W@std@@QAEPA_WI@Z
_TEXT	SEGMENT PARA USE32 PUBLIC 'CODE'
_TEXT	ENDS
;	COMDAT ??$_Allocate@_W@std@@YAPA_WIPA_W@Z
_TEXT	SEGMENT PARA USE32 PUBLIC 'CODE'
_TEXT	ENDS
;	COMDAT ??_C@_01GFHCPBMG@C?$AA@
CONST	SEGMENT DWORD USE32 PUBLIC 'CONST'
CONST	ENDS
;	COMDAT ?_Peek@?$istreambuf_iterator@_WU?$char_traits@_W@std@@@std@@AAE_WXZ
_TEXT	SEGMENT PARA USE32 PUBLIC 'CODE'
_TEXT	ENDS
;	COMDAT ?_Peek@?$istreambuf_iterator@DU?$char_traits@D@std@@@std@@AAEDXZ
_TEXT	SEGMENT PARA USE32 PUBLIC 'CODE'
_TEXT	ENDS
;	COMDAT ??$use_facet@V?$ctype@_W@std@@@std@@YAABV?$ctype@_W@0@ABVlocale@0@@Z
_TEXT	SEGMENT PARA USE32 PUBLIC 'CODE'
_TEXT	ENDS
;	COMDAT ??_S?$ctype@_W@std@@6B@
CONST	SEGMENT DWORD USE32 PUBLIC 'CONST'
CONST	ENDS
;	COMDAT ??_R4?$ctype@_W@std@@6B@
rdata$r	SEGMENT DWORD USE32 PUBLIC 'CONST'
rdata$r	ENDS
;	COMDAT ??_R0?AV?$ctype@_W@std@@@8
_DATA	SEGMENT DWORD USE32 PUBLIC 'DATA'
_DATA	ENDS
;	COMDAT ??_R3?$ctype@_W@std@@8
rdata$r	SEGMENT DWORD USE32 PUBLIC 'CONST'
rdata$r	ENDS
;	COMDAT ??_R2?$ctype@_W@std@@8
rdata$r	SEGMENT DWORD USE32 PUBLIC 'CONST'
rdata$r	ENDS
;	COMDAT ??_R1A@?0A@A@?$ctype@_W@std@@8
rdata$r	SEGMENT DWORD USE32 PUBLIC 'CONST'
rdata$r	ENDS
;	COMDAT ??_R1A@?0A@A@ctype_base@std@@8
rdata$r	SEGMENT DWORD USE32 PUBLIC 'CONST'
rdata$r	ENDS
;	COMDAT ??_R0?AUctype_base@std@@@8
_DATA	SEGMENT DWORD USE32 PUBLIC 'DATA'
_DATA	ENDS
;	COMDAT ??_G?$ctype@_W@std@@MAEPAXI@Z
_TEXT	SEGMENT PARA USE32 PUBLIC 'CODE'
_TEXT	ENDS
;	COMDAT ??_C@_08EPJLHIJG@bad?5cast?$AA@
CONST	SEGMENT DWORD USE32 PUBLIC 'CONST'
CONST	ENDS
;	COMDAT __TI2?AVbad_cast@@
xdata$x	SEGMENT DWORD USE32 PUBLIC 'CONST'
xdata$x	ENDS
;	COMDAT __CTA2?AVbad_cast@@
xdata$x	SEGMENT DWORD USE32 PUBLIC 'CONST'
xdata$x	ENDS
;	COMDAT __CT??_R0?AVbad_cast@@@8??0bad_cast@@QAE@ABV0@@Z12
xdata$x	SEGMENT DWORD USE32 PUBLIC 'CONST'
xdata$x	ENDS
;	COMDAT ??_R0?AVbad_cast@@@8
_DATA	SEGMENT DWORD USE32 PUBLIC 'DATA'
_DATA	ENDS
;	COMDAT __CT??_R0?AVexception@@@8??0exception@@QAE@ABV0@@Z12
xdata$x	SEGMENT DWORD USE32 PUBLIC 'CONST'
xdata$x	ENDS
;	COMDAT ??_R0?AVexception@@@8
_DATA	SEGMENT DWORD USE32 PUBLIC 'DATA'
_DATA	ENDS
;	COMDAT ??$_DebugHeapDelete@Vfacet@locale@std@@@std@@YAXPAVfacet@locale@0@@Z
_TEXT	SEGMENT PARA USE32 PUBLIC 'CODE'
_TEXT	ENDS
;	COMDAT ??$use_facet@V?$ctype@D@std@@@std@@YAABV?$ctype@D@0@ABVlocale@0@@Z
_TEXT	SEGMENT PARA USE32 PUBLIC 'CODE'
_TEXT	ENDS
;	COMDAT ??_S?$ctype@D@std@@6B@
CONST	SEGMENT DWORD USE32 PUBLIC 'CONST'
CONST	ENDS
;	COMDAT ??_R4?$ctype@D@std@@6B@
rdata$r	SEGMENT DWORD USE32 PUBLIC 'CONST'
rdata$r	ENDS
;	COMDAT ??_R0?AV?$ctype@D@std@@@8
_DATA	SEGMENT DWORD USE32 PUBLIC 'DATA'
_DATA	ENDS
;	COMDAT ??_R3?$ctype@D@std@@8
rdata$r	SEGMENT DWORD USE32 PUBLIC 'CONST'
rdata$r	ENDS
;	COMDAT ??_R2?$ctype@D@std@@8
rdata$r	SEGMENT DWORD USE32 PUBLIC 'CONST'
rdata$r	ENDS
;	COMDAT ??_R1A@?0A@A@?$ctype@D@std@@8
rdata$r	SEGMENT DWORD USE32 PUBLIC 'CONST'
rdata$r	ENDS
;	COMDAT ??_G?$ctype@D@std@@MAEPAXI@Z
_TEXT	SEGMENT PARA USE32 PUBLIC 'CODE'
_TEXT	ENDS
;	COMDAT ??_S?$numpunct@_W@std@@6B@
CONST	SEGMENT DWORD USE32 PUBLIC 'CONST'
CONST	ENDS
;	COMDAT ??_S?$numpunct@D@std@@6B@
CONST	SEGMENT DWORD USE32 PUBLIC 'CONST'
CONST	ENDS
;	COMDAT _wmemmove
_TEXT	SEGMENT PARA USE32 PUBLIC 'CODE'
_TEXT	ENDS
;	COMDAT ?deallocate@?$allocator@_W@std@@QAEXPA_WI@Z
_TEXT	SEGMENT PARA USE32 PUBLIC 'CODE'
_TEXT	ENDS
;	COMDAT ??0?$allocator@_W@std@@QAE@ABV01@@Z
_TEXT	SEGMENT PARA USE32 PUBLIC 'CODE'
_TEXT	ENDS
;	COMDAT ?Release@CStringData@ATL@@QAEXXZ
_TEXT	SEGMENT PARA USE32 PUBLIC 'CODE'
_TEXT	ENDS
;	COMDAT ??_C@_0L@OIIMFBNE@nRefs?5?$CB?$DN?50?$AA@
CONST	SEGMENT DWORD USE32 PUBLIC 'CONST'
CONST	ENDS
;	COMDAT ??_C@_0FJ@DMHPDOJC@D?3?2Program?5Files?5?$CIx86?$CJ?2Microsoft@
CONST	SEGMENT DWORD USE32 PUBLIC 'CONST'
CONST	ENDS
;	COMDAT ??_C@_0BA@GOIMFHNK@pStringMgr?5?$CB?$DN?50?$AA@
CONST	SEGMENT DWORD USE32 PUBLIC 'CONST'
CONST	ENDS
;	COMDAT ?data@CStringData@ATL@@QAEPAXXZ
_TEXT	SEGMENT PARA USE32 PUBLIC 'CODE'
_TEXT	ENDS
;	COMDAT ?GetDefaultManager@?$StrTraitMFC_DLL@DV?$ChTraitsCRT@D@ATL@@@@SAPAUIAtlStringMgr@ATL@@XZ
_TEXT	SEGMENT PARA USE32 PUBLIC 'CODE'
_TEXT	ENDS
;	COMDAT ?_messageEntries@SetBaseStatic@@0QBUAFX_MSGMAP_ENTRY@@B
CONST	SEGMENT DWORD USE32 PUBLIC 'CONST'
CONST	ENDS
;	COMDAT ?messageMap@SetBaseStatic@@1UAFX_MSGMAP@@B
CONST	SEGMENT DWORD USE32 PUBLIC 'CONST'
CONST	ENDS
;	COMDAT ??_7SetBaseStatic@@6B@
CONST	SEGMENT DWORD USE32 PUBLIC 'CONST'
CONST	ENDS
;	COMDAT ?classSetBaseStatic@SetBaseStatic@@2UCRuntimeClass@@B
CONST	SEGMENT DWORD USE32 PUBLIC 'CONST'
CONST	ENDS
sxdata	SEGMENT DWORD USE32 'SXDATA'
sxdata	ENDS
FLAT	GROUP _DATA, CONST, _BSS
	ASSUME	CS: FLAT, DS: FLAT, SS: FLAT
endif

INCLUDELIB MSVCRTD
INCLUDELIB OLDNAMES

PUBLIC	?classSetBaseStatic@SetBaseStatic@@2UCRuntimeClass@@B ; SetBaseStatic::classSetBaseStatic
PUBLIC	?_messageEntries@SetBaseStatic@@0QBUAFX_MSGMAP_ENTRY@@B ; SetBaseStatic::_messageEntries
PUBLIC	?messageMap@SetBaseStatic@@1UAFX_MSGMAP@@B	; SetBaseStatic::messageMap
EXTRN	?GetThisMessageMap@CWnd@@KGPBUAFX_MSGMAP@@XZ:NEAR ; CWnd::GetThisMessageMap
EXTRN	?GetThisClass@CStatic@@SGPAUCRuntimeClass@@XZ:NEAR ; CStatic::GetThisClass
CONST	SEGMENT
$SG187046 DB	'SetBaseStatic', 00H
CONST	ENDS
;	COMDAT ?classSetBaseStatic@SetBaseStatic@@2UCRuntimeClass@@B
CONST	SEGMENT
?classSetBaseStatic@SetBaseStatic@@2UCRuntimeClass@@B DD FLAT:$SG187046 ; SetBaseStatic::classSetBaseStatic
	DD	064H
	DD	0ffffH
	DD	00H
	DD	FLAT:?GetThisClass@CStatic@@SGPAUCRuntimeClass@@XZ
	DD	00H
	DD	00H
CONST	ENDS
;	COMDAT ?_messageEntries@SetBaseStatic@@0QBUAFX_MSGMAP_ENTRY@@B
CONST	SEGMENT
?_messageEntries@SetBaseStatic@@0QBUAFX_MSGMAP_ENTRY@@B DD 00H ; SetBaseStatic::_messageEntries
	DD	00H
	DD	00H
	DD	00H
	DD	00H
	DD	00H
CONST	ENDS
;	COMDAT ?messageMap@SetBaseStatic@@1UAFX_MSGMAP@@B
CONST	SEGMENT
?messageMap@SetBaseStatic@@1UAFX_MSGMAP@@B DD FLAT:?GetThisMessageMap@CWnd@@KGPBUAFX_MSGMAP@@XZ ; SetBaseStatic::messageMap
	DD	FLAT:?_messageEntries@SetBaseStatic@@0QBUAFX_MSGMAP_ENTRY@@B
CONST	ENDS
CONST	SEGMENT
	ORG $+2
$SG187085 DB	0cbH, 0ceH, 0ccH, 0e5H, 00H
CONST	ENDS
PUBLIC	?GetThisClass@SetBaseStatic@@SGPAUCRuntimeClass@@XZ ; SetBaseStatic::GetThisClass
EXTRN	__RTC_InitBase:NEAR
EXTRN	__RTC_Shutdown:NEAR
;	COMDAT rtc$IMZ
; File d:\boxgit\playbox\playbox\dev\prj\playbox\src\appconfig\config\setbasectrls\setbasestatic.cpp
rtc$IMZ	SEGMENT
__RTC_InitBase.rtc$IMZ DD FLAT:__RTC_InitBase
rtc$IMZ	ENDS
;	COMDAT rtc$TMZ
rtc$TMZ	SEGMENT
__RTC_Shutdown.rtc$TMZ DD FLAT:__RTC_Shutdown
; Function compile flags: /Odt /RTCsu
rtc$TMZ	ENDS
_TEXT	SEGMENT
?GetThisClass@SetBaseStatic@@SGPAUCRuntimeClass@@XZ PROC NEAR ; SetBaseStatic::GetThisClass

; 4    : IMPLEMENT_DYNAMIC(SetBaseStatic, CStatic)

  00000	55		 push	 ebp
  00001	8b ec		 mov	 ebp, esp
  00003	b8 00 00 00 00	 mov	 eax, OFFSET FLAT:?classSetBaseStatic@SetBaseStatic@@2UCRuntimeClass@@B ; SetBaseStatic::classSetBaseStatic
  00008	5d		 pop	 ebp
  00009	c3		 ret	 0
?GetThisClass@SetBaseStatic@@SGPAUCRuntimeClass@@XZ ENDP ; SetBaseStatic::GetThisClass
_TEXT	ENDS
PUBLIC	?GetRuntimeClass@SetBaseStatic@@UBEPAUCRuntimeClass@@XZ ; SetBaseStatic::GetRuntimeClass
; Function compile flags: /Odt /RTCsu
_TEXT	SEGMENT
_this$ = -4						; size = 4
?GetRuntimeClass@SetBaseStatic@@UBEPAUCRuntimeClass@@XZ PROC NEAR ; SetBaseStatic::GetRuntimeClass
; _this$ = ecx

; 4    : IMPLEMENT_DYNAMIC(SetBaseStatic, CStatic)

  00010	55		 push	 ebp
  00011	8b ec		 mov	 ebp, esp
  00013	51		 push	 ecx
  00014	c7 45 fc cc cc
	cc cc		 mov	 DWORD PTR [ebp-4], -858993460 ; ccccccccH
  0001b	89 4d fc	 mov	 DWORD PTR _this$[ebp], ecx
  0001e	b8 00 00 00 00	 mov	 eax, OFFSET FLAT:?classSetBaseStatic@SetBaseStatic@@2UCRuntimeClass@@B ; SetBaseStatic::classSetBaseStatic
  00023	8b e5		 mov	 esp, ebp
  00025	5d		 pop	 ebp
  00026	c3		 ret	 0
?GetRuntimeClass@SetBaseStatic@@UBEPAUCRuntimeClass@@XZ ENDP ; SetBaseStatic::GetRuntimeClass
_TEXT	ENDS
PUBLIC	??_R1A@?0A@A@CWnd@@8				; CWnd::`RTTI Base Class Descriptor at (0,-1,0,0)'
PUBLIC	??_R0?AVCWnd@@@8				; CWnd `RTTI Type Descriptor'
PUBLIC	??_R1A@?0A@A@CCmdTarget@@8			; CCmdTarget::`RTTI Base Class Descriptor at (0,-1,0,0)'
PUBLIC	??_R0?AVCCmdTarget@@@8				; CCmdTarget `RTTI Type Descriptor'
PUBLIC	??_R1A@?0A@A@CObject@@8				; CObject::`RTTI Base Class Descriptor at (0,-1,0,0)'
PUBLIC	??_R0?AVCObject@@@8				; CObject `RTTI Type Descriptor'
PUBLIC	??0SetBaseStatic@@QAE@XZ			; SetBaseStatic::SetBaseStatic
PUBLIC	?GetMessageMap@SetBaseStatic@@MBEPBUAFX_MSGMAP@@XZ ; SetBaseStatic::GetMessageMap
PUBLIC	??_7SetBaseStatic@@6B@				; SetBaseStatic::`vftable'
PUBLIC	??_GSetBaseStatic@@UAEPAXI@Z			; SetBaseStatic::`scalar deleting destructor'
PUBLIC	??_R4SetBaseStatic@@6B@				; SetBaseStatic::`RTTI Complete Object Locator'
PUBLIC	??_R0?AVSetBaseStatic@@@8			; SetBaseStatic `RTTI Type Descriptor'
PUBLIC	??_R3SetBaseStatic@@8				; SetBaseStatic::`RTTI Class Hierarchy Descriptor'
PUBLIC	??_R2SetBaseStatic@@8				; SetBaseStatic::`RTTI Base Class Array'
PUBLIC	??_R1A@?0A@A@SetBaseStatic@@8			; SetBaseStatic::`RTTI Base Class Descriptor at (0,-1,0,0)'
PUBLIC	??_R1A@?0A@A@CStatic@@8				; CStatic::`RTTI Base Class Descriptor at (0,-1,0,0)'
PUBLIC	??_R0?AVCStatic@@@8				; CStatic `RTTI Type Descriptor'
EXTRN	?GetInterfaceMap@CWnd@@MBEPBUAFX_INTERFACEMAP@@XZ:NEAR ; CWnd::GetInterfaceMap
EXTRN	?EnsureStdObj@CWnd@@UAEJXZ:NEAR			; CWnd::EnsureStdObj
EXTRN	?get_accParent@CWnd@@UAEJPAPAUIDispatch@@@Z:NEAR ; CWnd::get_accParent
EXTRN	?OnCmdMsg@CCmdTarget@@UAEHIHPAXPAUAFX_CMDHANDLERINFO@@@Z:NEAR ; CCmdTarget::OnCmdMsg
EXTRN	?get_accChildCount@CWnd@@UAEJPAJ@Z:NEAR		; CWnd::get_accChildCount
EXTRN	?IsInvokeAllowed@CCmdTarget@@UAEHJ@Z:NEAR	; CCmdTarget::IsInvokeAllowed
EXTRN	?get_accChild@CWnd@@UAEJUtagVARIANT@@PAPAUIDispatch@@@Z:NEAR ; CWnd::get_accChild
EXTRN	?get_accName@CWnd@@UAEJUtagVARIANT@@PAPA_W@Z:NEAR ; CWnd::get_accName
EXTRN	__RTC_CheckEsp:NEAR
EXTRN	?get_accValue@CWnd@@UAEJUtagVARIANT@@PAPA_W@Z:NEAR ; CWnd::get_accValue
EXTRN	?GetDispatchIID@CCmdTarget@@UAEHPAU_GUID@@@Z:NEAR ; CCmdTarget::GetDispatchIID
EXTRN	?GetTypeInfoCount@CCmdTarget@@UAEIXZ:NEAR	; CCmdTarget::GetTypeInfoCount
EXTRN	?GetTypeLibCache@CCmdTarget@@UAEPAVCTypeLibCache@@XZ:NEAR ; CCmdTarget::GetTypeLibCache
EXTRN	?get_accDescription@CWnd@@UAEJUtagVARIANT@@PAPA_W@Z:NEAR ; CWnd::get_accDescription
EXTRN	?GetTypeLib@CCmdTarget@@UAEJKPAPAUITypeLib@@@Z:NEAR ; CCmdTarget::GetTypeLib
EXTRN	?get_accRole@CWnd@@UAEJUtagVARIANT@@PAU2@@Z:NEAR ; CWnd::get_accRole
EXTRN	?get_accState@CWnd@@UAEJUtagVARIANT@@PAU2@@Z:NEAR ; CWnd::get_accState
EXTRN	?get_accHelp@CWnd@@UAEJUtagVARIANT@@PAPA_W@Z:NEAR ; CWnd::get_accHelp
EXTRN	?get_accHelpTopic@CWnd@@UAEJPAPA_WUtagVARIANT@@PAJ@Z:NEAR ; CWnd::get_accHelpTopic
EXTRN	?get_accKeyboardShortcut@CWnd@@UAEJUtagVARIANT@@PAPA_W@Z:NEAR ; CWnd::get_accKeyboardShortcut
EXTRN	?get_accFocus@CWnd@@UAEJPAUtagVARIANT@@@Z:NEAR	; CWnd::get_accFocus
EXTRN	?get_accSelection@CWnd@@UAEJPAUtagVARIANT@@@Z:NEAR ; CWnd::get_accSelection
EXTRN	?get_accDefaultAction@CWnd@@UAEJUtagVARIANT@@PAPA_W@Z:NEAR ; CWnd::get_accDefaultAction
EXTRN	?GetCommandMap@CCmdTarget@@MBEPBUAFX_OLECMDMAP@@XZ:NEAR ; CCmdTarget::GetCommandMap
EXTRN	?accSelect@CWnd@@UAEJJUtagVARIANT@@@Z:NEAR	; CWnd::accSelect
EXTRN	?accLocation@CWnd@@UAEJPAJ000UtagVARIANT@@@Z:NEAR ; CWnd::accLocation
EXTRN	?GetDispatchMap@CCmdTarget@@MBEPBUAFX_DISPMAP@@XZ:NEAR ; CCmdTarget::GetDispatchMap
EXTRN	?accNavigate@CWnd@@UAEJJUtagVARIANT@@PAU2@@Z:NEAR ; CWnd::accNavigate
EXTRN	?accHitTest@CWnd@@UAEJJJPAUtagVARIANT@@@Z:NEAR	; CWnd::accHitTest
EXTRN	?GetConnectionMap@CCmdTarget@@MBEPBUAFX_CONNECTIONMAP@@XZ:NEAR ; CCmdTarget::GetConnectionMap
EXTRN	?accDoDefaultAction@CWnd@@UAEJUtagVARIANT@@@Z:NEAR ; CWnd::accDoDefaultAction
EXTRN	?put_accName@CWnd@@UAEJUtagVARIANT@@PA_W@Z:NEAR	; CWnd::put_accName
EXTRN	?put_accValue@CWnd@@UAEJUtagVARIANT@@PA_W@Z:NEAR ; CWnd::put_accValue
EXTRN	?SetProxy@CWnd@@UAEJPAUIAccessibleProxy@@@Z:NEAR ; CWnd::SetProxy
EXTRN	?CreateAccessibleProxy@CWnd@@UAEJIJPAJ@Z:NEAR	; CWnd::CreateAccessibleProxy
EXTRN	?GetEventSinkMap@CCmdTarget@@MBEPBUAFX_EVENTSINKMAP@@XZ:NEAR ; CCmdTarget::GetEventSinkMap
EXTRN	?OnCreateAggregates@CCmdTarget@@UAEHXZ:NEAR	; CCmdTarget::OnCreateAggregates
EXTRN	?OnCommand@CWnd@@MAEHIJ@Z:NEAR			; CWnd::OnCommand
EXTRN	?GetInterfaceHook@CCmdTarget@@UAEPAUIUnknown@@PBX@Z:NEAR ; CCmdTarget::GetInterfaceHook
EXTRN	?OnNotify@CWnd@@MAEHIJPAJ@Z:NEAR		; CWnd::OnNotify
EXTRN	?GetExtraConnectionPoints@CCmdTarget@@MAEHPAVCPtrArray@@@Z:NEAR ; CCmdTarget::GetExtraConnectionPoints
EXTRN	?GetConnectionHook@CCmdTarget@@MAEPAUIConnectionPoint@@ABU_GUID@@@Z:NEAR ; CCmdTarget::GetConnectionHook
EXTRN	?PreSubclassWindow@CWnd@@UAEXXZ:NEAR		; CWnd::PreSubclassWindow
EXTRN	?Create@CWnd@@UAEHPBD0KABUtagRECT@@PAV1@IPAUCCreateContext@@@Z:NEAR ; CWnd::Create
EXTRN	?CreateEx@CWnd@@UAEHKPBD0KHHHHPAUHWND__@@PAUHMENU__@@PAX@Z:NEAR ; CWnd::CreateEx
EXTRN	?CreateEx@CWnd@@UAEHKPBD0KABUtagRECT@@PAV1@IPAX@Z:NEAR ; CWnd::CreateEx
EXTRN	?Serialize@CObject@@UAEXAAVCArchive@@@Z:NEAR	; CObject::Serialize
EXTRN	?DestroyWindow@CWnd@@UAEHXZ:NEAR		; CWnd::DestroyWindow
EXTRN	?PreCreateWindow@CWnd@@UAEHAAUtagCREATESTRUCTA@@@Z:NEAR ; CWnd::PreCreateWindow
EXTRN	?CalcWindowRect@CWnd@@UAEXPAUtagRECT@@I@Z:NEAR	; CWnd::CalcWindowRect
EXTRN	?GetSuperWndProcAddr@CWnd@@MAEPAP6GJPAUHWND__@@IIJ@ZXZ:NEAR ; CWnd::GetSuperWndProcAddr
EXTRN	?DoDataExchange@CWnd@@MAEXPAVCDataExchange@@@Z:NEAR ; CWnd::DoDataExchange
EXTRN	?BeginModalState@CWnd@@UAEXXZ:NEAR		; CWnd::BeginModalState
EXTRN	?EndModalState@CWnd@@UAEXXZ:NEAR		; CWnd::EndModalState
EXTRN	?PreTranslateMessage@CWnd@@UAEHPAUtagMSG@@@Z:NEAR ; CWnd::PreTranslateMessage
EXTRN	?OnAmbientProperty@CWnd@@UAEHPAVCOleControlSite@@JPAUtagVARIANT@@@Z:NEAR ; CWnd::OnAmbientProperty
EXTRN	?WindowProc@CWnd@@MAEJIIJ@Z:NEAR		; CWnd::WindowProc
EXTRN	?OnWndMsg@CWnd@@MAEHIIJPAJ@Z:NEAR		; CWnd::OnWndMsg
EXTRN	?DefWindowProcA@CWnd@@MAEJIIJ@Z:NEAR		; CWnd::DefWindowProcA
EXTRN	?PostNcDestroy@CWnd@@MAEXXZ:NEAR		; CWnd::PostNcDestroy
EXTRN	?CheckAutoCenter@CWnd@@UAEHXZ:NEAR		; CWnd::CheckAutoCenter
EXTRN	?AssertValid@CWnd@@UBEXXZ:NEAR			; CWnd::AssertValid
EXTRN	?Dump@CWnd@@UBEXAAVCDumpContext@@@Z:NEAR	; CWnd::Dump
EXTRN	?IsFrameWnd@CWnd@@UBEHXZ:NEAR			; CWnd::IsFrameWnd
EXTRN	?OnFinalRelease@CWnd@@UAEXXZ:NEAR		; CWnd::OnFinalRelease
EXTRN	??_ESetBaseStatic@@UAEPAXI@Z:NEAR		; SetBaseStatic::`vector deleting destructor'
EXTRN	?CreateControlContainer@CWnd@@MAEHPAPAVCOleControlContainer@@@Z:NEAR ; CWnd::CreateControlContainer
EXTRN	?CreateControlSite@CWnd@@MAEHPAVCOleControlContainer@@PAPAVCOleControlSite@@IABU_GUID@@@Z:NEAR ; CWnd::CreateControlSite
EXTRN	?SetOccDialogInfo@CWnd@@MAEHPAU_AFX_OCC_DIALOG_INFO@@@Z:NEAR ; CWnd::SetOccDialogInfo
EXTRN	?OnToolHitTest@CWnd@@UBEHVCPoint@@PAUtagTOOLINFOA@@@Z:NEAR ; CWnd::OnToolHitTest
EXTRN	??0CStatic@@QAE@XZ:NEAR				; CStatic::CStatic
EXTRN	?Create@CStatic@@UAEHPBDKABUtagRECT@@PAVCWnd@@I@Z:NEAR ; CStatic::Create
EXTRN	?GetScrollBarCtrl@CWnd@@UBEPAVCScrollBar@@H@Z:NEAR ; CWnd::GetScrollBarCtrl
EXTRN	?DrawItem@CStatic@@UAEXPAUtagDRAWITEMSTRUCT@@@Z:NEAR ; CStatic::DrawItem
EXTRN	?OnChildNotify@CStatic@@MAEHIIJPAJ@Z:NEAR	; CStatic::OnChildNotify
EXTRN	?WinHelpA@CWnd@@UAEXKI@Z:NEAR			; CWnd::WinHelpA
EXTRN	?HtmlHelpA@CWnd@@UAEXKI@Z:NEAR			; CWnd::HtmlHelpA
EXTRN	??_7type_info@@6B@:QWORD			; type_info::`vftable'
EXTRN	?WinHelpInternal@CWnd@@UAEXKI@Z:NEAR		; CWnd::WinHelpInternal
EXTRN	?ContinueModal@CWnd@@UAEHXZ:NEAR		; CWnd::ContinueModal
EXTRN	?EndModalLoop@CWnd@@UAEXH@Z:NEAR		; CWnd::EndModalLoop
;	COMDAT ??_7SetBaseStatic@@6B@
CONST	SEGMENT
??_7SetBaseStatic@@6B@ DD FLAT:??_R4SetBaseStatic@@6B@	; SetBaseStatic::`vftable'
	DD	FLAT:?GetRuntimeClass@SetBaseStatic@@UBEPAUCRuntimeClass@@XZ
	DD	FLAT:??_ESetBaseStatic@@UAEPAXI@Z
	DD	FLAT:?Serialize@CObject@@UAEXAAVCArchive@@@Z
	DD	FLAT:?AssertValid@CWnd@@UBEXXZ
	DD	FLAT:?Dump@CWnd@@UBEXAAVCDumpContext@@@Z
	DD	FLAT:?OnCmdMsg@CCmdTarget@@UAEHIHPAXPAUAFX_CMDHANDLERINFO@@@Z
	DD	FLAT:?OnFinalRelease@CWnd@@UAEXXZ
	DD	FLAT:?IsInvokeAllowed@CCmdTarget@@UAEHJ@Z
	DD	FLAT:?GetDispatchIID@CCmdTarget@@UAEHPAU_GUID@@@Z
	DD	FLAT:?GetTypeInfoCount@CCmdTarget@@UAEIXZ
	DD	FLAT:?GetTypeLibCache@CCmdTarget@@UAEPAVCTypeLibCache@@XZ
	DD	FLAT:?GetTypeLib@CCmdTarget@@UAEJKPAPAUITypeLib@@@Z
	DD	FLAT:?GetMessageMap@SetBaseStatic@@MBEPBUAFX_MSGMAP@@XZ
	DD	FLAT:?GetCommandMap@CCmdTarget@@MBEPBUAFX_OLECMDMAP@@XZ
	DD	FLAT:?GetDispatchMap@CCmdTarget@@MBEPBUAFX_DISPMAP@@XZ
	DD	FLAT:?GetConnectionMap@CCmdTarget@@MBEPBUAFX_CONNECTIONMAP@@XZ
	DD	FLAT:?GetInterfaceMap@CWnd@@MBEPBUAFX_INTERFACEMAP@@XZ
	DD	FLAT:?GetEventSinkMap@CCmdTarget@@MBEPBUAFX_EVENTSINKMAP@@XZ
	DD	FLAT:?OnCreateAggregates@CCmdTarget@@UAEHXZ
	DD	FLAT:?GetInterfaceHook@CCmdTarget@@UAEPAUIUnknown@@PBX@Z
	DD	FLAT:?GetExtraConnectionPoints@CCmdTarget@@MAEHPAVCPtrArray@@@Z
	DD	FLAT:?GetConnectionHook@CCmdTarget@@MAEPAUIConnectionPoint@@ABU_GUID@@@Z
	DD	FLAT:?PreSubclassWindow@CWnd@@UAEXXZ
	DD	FLAT:?Create@CWnd@@UAEHPBD0KABUtagRECT@@PAV1@IPAUCCreateContext@@@Z
	DD	FLAT:?CreateEx@CWnd@@UAEHKPBD0KABUtagRECT@@PAV1@IPAX@Z
	DD	FLAT:?CreateEx@CWnd@@UAEHKPBD0KHHHHPAUHWND__@@PAUHMENU__@@PAX@Z
	DD	FLAT:?DestroyWindow@CWnd@@UAEHXZ
	DD	FLAT:?PreCreateWindow@CWnd@@UAEHAAUtagCREATESTRUCTA@@@Z
	DD	FLAT:?CalcWindowRect@CWnd@@UAEXPAUtagRECT@@I@Z
	DD	FLAT:?OnToolHitTest@CWnd@@UBEHVCPoint@@PAUtagTOOLINFOA@@@Z
	DD	FLAT:?GetScrollBarCtrl@CWnd@@UBEPAVCScrollBar@@H@Z
	DD	FLAT:?WinHelpA@CWnd@@UAEXKI@Z
	DD	FLAT:?HtmlHelpA@CWnd@@UAEXKI@Z
	DD	FLAT:?WinHelpInternal@CWnd@@UAEXKI@Z
	DD	FLAT:?ContinueModal@CWnd@@UAEHXZ
	DD	FLAT:?EndModalLoop@CWnd@@UAEXH@Z
	DD	FLAT:?EnsureStdObj@CWnd@@UAEJXZ
	DD	FLAT:?get_accParent@CWnd@@UAEJPAPAUIDispatch@@@Z
	DD	FLAT:?get_accChildCount@CWnd@@UAEJPAJ@Z
	DD	FLAT:?get_accChild@CWnd@@UAEJUtagVARIANT@@PAPAUIDispatch@@@Z
	DD	FLAT:?get_accName@CWnd@@UAEJUtagVARIANT@@PAPA_W@Z
	DD	FLAT:?get_accValue@CWnd@@UAEJUtagVARIANT@@PAPA_W@Z
	DD	FLAT:?get_accDescription@CWnd@@UAEJUtagVARIANT@@PAPA_W@Z
	DD	FLAT:?get_accRole@CWnd@@UAEJUtagVARIANT@@PAU2@@Z
	DD	FLAT:?get_accState@CWnd@@UAEJUtagVARIANT@@PAU2@@Z
	DD	FLAT:?get_accHelp@CWnd@@UAEJUtagVARIANT@@PAPA_W@Z
	DD	FLAT:?get_accHelpTopic@CWnd@@UAEJPAPA_WUtagVARIANT@@PAJ@Z
	DD	FLAT:?get_accKeyboardShortcut@CWnd@@UAEJUtagVARIANT@@PAPA_W@Z
	DD	FLAT:?get_accFocus@CWnd@@UAEJPAUtagVARIANT@@@Z
	DD	FLAT:?get_accSelection@CWnd@@UAEJPAUtagVARIANT@@@Z
	DD	FLAT:?get_accDefaultAction@CWnd@@UAEJUtagVARIANT@@PAPA_W@Z
	DD	FLAT:?accSelect@CWnd@@UAEJJUtagVARIANT@@@Z
	DD	FLAT:?accLocation@CWnd@@UAEJPAJ000UtagVARIANT@@@Z
	DD	FLAT:?accNavigate@CWnd@@UAEJJUtagVARIANT@@PAU2@@Z
	DD	FLAT:?accHitTest@CWnd@@UAEJJJPAUtagVARIANT@@@Z
	DD	FLAT:?accDoDefaultAction@CWnd@@UAEJUtagVARIANT@@@Z
	DD	FLAT:?put_accName@CWnd@@UAEJUtagVARIANT@@PA_W@Z
	DD	FLAT:?put_accValue@CWnd@@UAEJUtagVARIANT@@PA_W@Z
	DD	FLAT:?SetProxy@CWnd@@UAEJPAUIAccessibleProxy@@@Z
	DD	FLAT:?CreateAccessibleProxy@CWnd@@UAEJIJPAJ@Z
	DD	FLAT:?OnCommand@CWnd@@MAEHIJ@Z
	DD	FLAT:?OnNotify@CWnd@@MAEHIJPAJ@Z
	DD	FLAT:?GetSuperWndProcAddr@CWnd@@MAEPAP6GJPAUHWND__@@IIJ@ZXZ
	DD	FLAT:?DoDataExchange@CWnd@@MAEXPAVCDataExchange@@@Z
	DD	FLAT:?BeginModalState@CWnd@@UAEXXZ
	DD	FLAT:?EndModalState@CWnd@@UAEXXZ
	DD	FLAT:?PreTranslateMessage@CWnd@@UAEHPAUtagMSG@@@Z
	DD	FLAT:?OnAmbientProperty@CWnd@@UAEHPAVCOleControlSite@@JPAUtagVARIANT@@@Z
	DD	FLAT:?WindowProc@CWnd@@MAEJIIJ@Z
	DD	FLAT:?OnWndMsg@CWnd@@MAEHIIJPAJ@Z
	DD	FLAT:?DefWindowProcA@CWnd@@MAEJIIJ@Z
	DD	FLAT:?PostNcDestroy@CWnd@@MAEXXZ
	DD	FLAT:?OnChildNotify@CStatic@@MAEHIIJPAJ@Z
	DD	FLAT:?CheckAutoCenter@CWnd@@UAEHXZ
	DD	FLAT:?IsFrameWnd@CWnd@@UBEHXZ
	DD	FLAT:?CreateControlContainer@CWnd@@MAEHPAPAVCOleControlContainer@@@Z
	DD	FLAT:?CreateControlSite@CWnd@@MAEHPAVCOleControlContainer@@PAPAVCOleControlSite@@IABU_GUID@@@Z
	DD	FLAT:?SetOccDialogInfo@CWnd@@MAEHPAU_AFX_OCC_DIALOG_INFO@@@Z
	DD	FLAT:?Create@CStatic@@UAEHPBDKABUtagRECT@@PAVCWnd@@I@Z
	DD	FLAT:?DrawItem@CStatic@@UAEXPAUtagDRAWITEMSTRUCT@@@Z
CONST	ENDS
;	COMDAT ??_R4SetBaseStatic@@6B@
rdata$r	SEGMENT
??_R4SetBaseStatic@@6B@ DD 00H				; SetBaseStatic::`RTTI Complete Object Locator'
	DD	00H
	DD	00H
	DD	FLAT:??_R0?AVSetBaseStatic@@@8
	DD	FLAT:??_R3SetBaseStatic@@8
rdata$r	ENDS
;	COMDAT ??_R0?AVSetBaseStatic@@@8
_DATA	SEGMENT
??_R0?AVSetBaseStatic@@@8 DD FLAT:??_7type_info@@6B@	; SetBaseStatic `RTTI Type Descriptor'
	DD	00H
	DB	'.?AVSetBaseStatic@@', 00H
_DATA	ENDS
;	COMDAT ??_R3SetBaseStatic@@8
rdata$r	SEGMENT
??_R3SetBaseStatic@@8 DD 00H				; SetBaseStatic::`RTTI Class Hierarchy Descriptor'
	DD	00H
	DD	05H
	DD	FLAT:??_R2SetBaseStatic@@8
rdata$r	ENDS
;	COMDAT ??_R2SetBaseStatic@@8
rdata$r	SEGMENT
??_R2SetBaseStatic@@8 DD FLAT:??_R1A@?0A@A@SetBaseStatic@@8 ; SetBaseStatic::`RTTI Base Class Array'
	DD	FLAT:??_R1A@?0A@A@CStatic@@8
	DD	FLAT:??_R1A@?0A@A@CWnd@@8
	DD	FLAT:??_R1A@?0A@A@CCmdTarget@@8
	DD	FLAT:??_R1A@?0A@A@CObject@@8
rdata$r	ENDS
;	COMDAT ??_R1A@?0A@A@SetBaseStatic@@8
rdata$r	SEGMENT
??_R1A@?0A@A@SetBaseStatic@@8 DD FLAT:??_R0?AVSetBaseStatic@@@8 ; SetBaseStatic::`RTTI Base Class Descriptor at (0,-1,0,0)'
	DD	04H
	DD	00H
	DD	0ffffffffH
	DD	00H
	DD	00H
rdata$r	ENDS
;	COMDAT ??_R1A@?0A@A@CStatic@@8
rdata$r	SEGMENT
??_R1A@?0A@A@CStatic@@8 DD FLAT:??_R0?AVCStatic@@@8	; CStatic::`RTTI Base Class Descriptor at (0,-1,0,0)'
	DD	03H
	DD	00H
	DD	0ffffffffH
	DD	00H
	DD	00H
rdata$r	ENDS
;	COMDAT ??_R0?AVCStatic@@@8
_DATA	SEGMENT
??_R0?AVCStatic@@@8 DD FLAT:??_7type_info@@6B@		; CStatic `RTTI Type Descriptor'
	DD	00H
	DB	'.?AVCStatic@@', 00H
_DATA	ENDS
;	COMDAT ??_R1A@?0A@A@CWnd@@8
rdata$r	SEGMENT
??_R1A@?0A@A@CWnd@@8 DD FLAT:??_R0?AVCWnd@@@8		; CWnd::`RTTI Base Class Descriptor at (0,-1,0,0)'
	DD	02H
	DD	00H
	DD	0ffffffffH
	DD	00H
	DD	00H
rdata$r	ENDS
;	COMDAT ??_R0?AVCWnd@@@8
_DATA	SEGMENT
??_R0?AVCWnd@@@8 DD FLAT:??_7type_info@@6B@		; CWnd `RTTI Type Descriptor'
	DD	00H
	DB	'.?AVCWnd@@', 00H
_DATA	ENDS
;	COMDAT ??_R1A@?0A@A@CCmdTarget@@8
rdata$r	SEGMENT
??_R1A@?0A@A@CCmdTarget@@8 DD FLAT:??_R0?AVCCmdTarget@@@8 ; CCmdTarget::`RTTI Base Class Descriptor at (0,-1,0,0)'
	DD	01H
	DD	00H
	DD	0ffffffffH
	DD	00H
	DD	00H
rdata$r	ENDS
;	COMDAT ??_R0?AVCCmdTarget@@@8
_DATA	SEGMENT
??_R0?AVCCmdTarget@@@8 DD FLAT:??_7type_info@@6B@	; CCmdTarget `RTTI Type Descriptor'
	DD	00H
	DB	'.?AVCCmdTarget@@', 00H
_DATA	ENDS
;	COMDAT ??_R1A@?0A@A@CObject@@8
rdata$r	SEGMENT
??_R1A@?0A@A@CObject@@8 DD FLAT:??_R0?AVCObject@@@8	; CObject::`RTTI Base Class Descriptor at (0,-1,0,0)'
	DD	00H
	DD	00H
	DD	0ffffffffH
	DD	00H
	DD	00H
rdata$r	ENDS
;	COMDAT ??_R0?AVCObject@@@8
_DATA	SEGMENT
??_R0?AVCObject@@@8 DD FLAT:??_7type_info@@6B@		; CObject `RTTI Type Descriptor'
	DD	00H
	DB	'.?AVCObject@@', 00H
; Function compile flags: /Odt /RTCsu
_DATA	ENDS
_TEXT	SEGMENT
_this$ = -4						; size = 4
??0SetBaseStatic@@QAE@XZ PROC NEAR			; SetBaseStatic::SetBaseStatic
; _this$ = ecx

; 6    : {

  00030	55		 push	 ebp
  00031	8b ec		 mov	 ebp, esp
  00033	51		 push	 ecx
  00034	c7 45 fc cc cc
	cc cc		 mov	 DWORD PTR [ebp-4], -858993460 ; ccccccccH
  0003b	89 4d fc	 mov	 DWORD PTR _this$[ebp], ecx
  0003e	8b 4d fc	 mov	 ecx, DWORD PTR _this$[ebp]
  00041	e8 00 00 00 00	 call	 ??0CStatic@@QAE@XZ	; CStatic::CStatic
  00046	8b 45 fc	 mov	 eax, DWORD PTR _this$[ebp]
  00049	c7 00 00 00 00
	00		 mov	 DWORD PTR [eax], OFFSET FLAT:??_7SetBaseStatic@@6B@

; 7    : 	m_bTrans = false;

  0004f	8b 4d fc	 mov	 ecx, DWORD PTR _this$[ebp]
  00052	c7 41 5c 00 00
	00 00		 mov	 DWORD PTR [ecx+92], 0

; 8    : 	m_FontSize = 12;

  00059	8b 55 fc	 mov	 edx, DWORD PTR _this$[ebp]
  0005c	c7 42 58 0c 00
	00 00		 mov	 DWORD PTR [edx+88], 12	; 0000000cH

; 9    : 	m_TextColor = RGB(0,0,0);

  00063	8b 45 fc	 mov	 eax, DWORD PTR _this$[ebp]
  00066	c7 40 54 00 00
	00 00		 mov	 DWORD PTR [eax+84], 0

; 10   : 	m_bBold = false;

  0006d	8b 4d fc	 mov	 ecx, DWORD PTR _this$[ebp]
  00070	c7 41 60 00 00
	00 00		 mov	 DWORD PTR [ecx+96], 0

; 11   : }

  00077	8b 45 fc	 mov	 eax, DWORD PTR _this$[ebp]
  0007a	83 c4 04	 add	 esp, 4
  0007d	3b ec		 cmp	 ebp, esp
  0007f	e8 00 00 00 00	 call	 __RTC_CheckEsp
  00084	8b e5		 mov	 esp, ebp
  00086	5d		 pop	 ebp
  00087	c3		 ret	 0
??0SetBaseStatic@@QAE@XZ ENDP				; SetBaseStatic::SetBaseStatic
_TEXT	ENDS
PUBLIC	??1SetBaseStatic@@UAE@XZ			; SetBaseStatic::~SetBaseStatic
EXTRN	??3CObject@@SGXPAX@Z:NEAR			; CObject::operator delete
; Function compile flags: /Odt /RTCsu
;	COMDAT ??_GSetBaseStatic@@UAEPAXI@Z
_TEXT	SEGMENT
_this$ = -4						; size = 4
___flags$ = 8						; size = 4
??_GSetBaseStatic@@UAEPAXI@Z PROC NEAR			; SetBaseStatic::`scalar deleting destructor', COMDAT
; _this$ = ecx
  00000	55		 push	 ebp
  00001	8b ec		 mov	 ebp, esp
  00003	51		 push	 ecx
  00004	c7 45 fc cc cc
	cc cc		 mov	 DWORD PTR [ebp-4], -858993460 ; ccccccccH
  0000b	89 4d fc	 mov	 DWORD PTR _this$[ebp], ecx
  0000e	8b 4d fc	 mov	 ecx, DWORD PTR _this$[ebp]
  00011	e8 00 00 00 00	 call	 ??1SetBaseStatic@@UAE@XZ ; SetBaseStatic::~SetBaseStatic
  00016	8b 45 08	 mov	 eax, DWORD PTR ___flags$[ebp]
  00019	83 e0 01	 and	 eax, 1
  0001c	74 09		 je	 SHORT $L187067
  0001e	8b 4d fc	 mov	 ecx, DWORD PTR _this$[ebp]
  00021	51		 push	 ecx
  00022	e8 00 00 00 00	 call	 ??3CObject@@SGXPAX@Z	; CObject::operator delete
$L187067:
  00027	8b 45 fc	 mov	 eax, DWORD PTR _this$[ebp]
  0002a	83 c4 04	 add	 esp, 4
  0002d	3b ec		 cmp	 ebp, esp
  0002f	e8 00 00 00 00	 call	 __RTC_CheckEsp
  00034	8b e5		 mov	 esp, ebp
  00036	5d		 pop	 ebp
  00037	c2 04 00	 ret	 4
??_GSetBaseStatic@@UAEPAXI@Z ENDP			; SetBaseStatic::`scalar deleting destructor'
_TEXT	ENDS
EXTRN	??1CStatic@@UAE@XZ:NEAR				; CStatic::~CStatic
; Function compile flags: /Odt /RTCsu
_TEXT	SEGMENT
_this$ = -4						; size = 4
??1SetBaseStatic@@UAE@XZ PROC NEAR			; SetBaseStatic::~SetBaseStatic
; _this$ = ecx

; 14   : {

  00090	55		 push	 ebp
  00091	8b ec		 mov	 ebp, esp
  00093	51		 push	 ecx
  00094	c7 45 fc cc cc
	cc cc		 mov	 DWORD PTR [ebp-4], -858993460 ; ccccccccH
  0009b	89 4d fc	 mov	 DWORD PTR _this$[ebp], ecx
  0009e	8b 45 fc	 mov	 eax, DWORD PTR _this$[ebp]
  000a1	c7 00 00 00 00
	00		 mov	 DWORD PTR [eax], OFFSET FLAT:??_7SetBaseStatic@@6B@

; 15   : }

  000a7	8b 4d fc	 mov	 ecx, DWORD PTR _this$[ebp]
  000aa	e8 00 00 00 00	 call	 ??1CStatic@@UAE@XZ	; CStatic::~CStatic
  000af	83 c4 04	 add	 esp, 4
  000b2	3b ec		 cmp	 ebp, esp
  000b4	e8 00 00 00 00	 call	 __RTC_CheckEsp
  000b9	8b e5		 mov	 esp, ebp
  000bb	5d		 pop	 ebp
  000bc	c3		 ret	 0
??1SetBaseStatic@@UAE@XZ ENDP				; SetBaseStatic::~SetBaseStatic
_TEXT	ENDS
PUBLIC	?GetThisMessageMap@SetBaseStatic@@KGPBUAFX_MSGMAP@@XZ ; SetBaseStatic::GetThisMessageMap
; Function compile flags: /Odt /RTCsu
_TEXT	SEGMENT
?GetThisMessageMap@SetBaseStatic@@KGPBUAFX_MSGMAP@@XZ PROC NEAR ; SetBaseStatic::GetThisMessageMap

; 17   : BEGIN_MESSAGE_MAP(SetBaseStatic, CStatic)

  000c0	55		 push	 ebp
  000c1	8b ec		 mov	 ebp, esp
  000c3	b8 00 00 00 00	 mov	 eax, OFFSET FLAT:?messageMap@SetBaseStatic@@1UAFX_MSGMAP@@B ; SetBaseStatic::messageMap
  000c8	5d		 pop	 ebp
  000c9	c3		 ret	 0
?GetThisMessageMap@SetBaseStatic@@KGPBUAFX_MSGMAP@@XZ ENDP ; SetBaseStatic::GetThisMessageMap
; Function compile flags: /Odt /RTCsu
_this$ = -4						; size = 4
?GetMessageMap@SetBaseStatic@@MBEPBUAFX_MSGMAP@@XZ PROC NEAR ; SetBaseStatic::GetMessageMap
; _this$ = ecx

; 17   : BEGIN_MESSAGE_MAP(SetBaseStatic, CStatic)

  000d0	55		 push	 ebp
  000d1	8b ec		 mov	 ebp, esp
  000d3	51		 push	 ecx
  000d4	c7 45 fc cc cc
	cc cc		 mov	 DWORD PTR [ebp-4], -858993460 ; ccccccccH
  000db	89 4d fc	 mov	 DWORD PTR _this$[ebp], ecx
  000de	b8 00 00 00 00	 mov	 eax, OFFSET FLAT:?messageMap@SetBaseStatic@@1UAFX_MSGMAP@@B ; SetBaseStatic::messageMap
  000e3	8b e5		 mov	 esp, ebp
  000e5	5d		 pop	 ebp
  000e6	c3		 ret	 0
?GetMessageMap@SetBaseStatic@@MBEPBUAFX_MSGMAP@@XZ ENDP	; SetBaseStatic::GetMessageMap
_TEXT	ENDS
PUBLIC	?OnPaint@SetBaseStatic@@IAEXXZ			; SetBaseStatic::OnPaint
EXTRN	__except_list:DWORD
EXTRN	___security_cookie:DWORD
EXTRN	@_RTC_CheckStackVars@8:NEAR
EXTRN	@__security_check_cookie@4:NEAR
EXTRN	___CxxFrameHandler:NEAR
EXTRN	__imp__DrawTextA@20:NEAR
EXTRN	?DeleteObject@CGdiObject@@QAEHXZ:NEAR		; CGdiObject::DeleteObject
EXTRN	?OnPaint@CWnd@@IAEXXZ:NEAR			; CWnd::OnPaint
EXTRN	??0CFont@@QAE@XZ:NEAR				; CFont::CFont
EXTRN	?CreateFontIndirectA@CFont@@QAEHPBUtagLOGFONTA@@@Z:NEAR ; CFont::CreateFontIndirectA
EXTRN	??1CFont@@UAE@XZ:NEAR				; CFont::~CFont
EXTRN	??0CPaintDC@@QAE@PAVCWnd@@@Z:NEAR		; CPaintDC::CPaintDC
EXTRN	??1CPaintDC@@UAE@XZ:NEAR			; CPaintDC::~CPaintDC
EXTRN	?GetWindowTextA@CWnd@@QBEXAAV?$CStringT@DV?$StrTraitMFC_DLL@DV?$ChTraitsCRT@D@ATL@@@@@ATL@@@Z:NEAR ; CWnd::GetWindowTextA
EXTRN	__imp_??B?$CSimpleStringT@D$00@ATL@@QBEPBDXZ:NEAR
EXTRN	?GetClientRect@CWnd@@QBEXPAUtagRECT@@@Z:NEAR	; CWnd::GetClientRect
EXTRN	__imp_?GetLength@?$CSimpleStringT@D$00@ATL@@QBEHXZ:NEAR
EXTRN	?SelectObject@CDC@@UAEPAVCFont@@PAV2@@Z:NEAR	; CDC::SelectObject
EXTRN	?SetBkMode@CDC@@QAEHH@Z:NEAR			; CDC::SetBkMode
EXTRN	?SetTextColor@CDC@@UAEKK@Z:NEAR			; CDC::SetTextColor
EXTRN	_memset:NEAR
EXTRN	_strcpy:NEAR
EXTRN	__imp_??0?$CStringT@DV?$StrTraitMFC_DLL@DV?$ChTraitsCRT@D@ATL@@@@@ATL@@QAE@XZ:NEAR
EXTRN	__imp_??1?$CStringT@DV?$StrTraitMFC_DLL@DV?$ChTraitsCRT@D@ATL@@@@@ATL@@QAE@XZ:NEAR
xdata$x	SEGMENT
$T187603 DD	0ffffffffH
	DD	FLAT:$L187583
	DD	00H
	DD	FLAT:$L187584
	DD	01H
	DD	FLAT:$L187585
$T187589 DD	019930520H
	DD	03H
	DD	FLAT:$T187603
	DD	2 DUP(00H)
	DD	2 DUP(00H)
; Function compile flags: /Odt /RTCsu
xdata$x	ENDS
_TEXT	SEGMENT
_oldFont$187087 = -236					; size = 4
_font$187086 = -228					; size = 8
_lf$187084 = -212					; size = 60
_strContent$187083 = -144				; size = 4
_rect$187082 = -132					; size = 16
_dc$187081 = -108					; size = 84
_this$ = -20						; size = 4
__$ArrayPad$ = -16					; size = 4
__$EHRec$ = -12						; size = 12
__$ReturnAddr$ = 4					; size = 4
?OnPaint@SetBaseStatic@@IAEXXZ PROC NEAR		; SetBaseStatic::OnPaint
; _this$ = ecx

; 24   : {

  000f0	55		 push	 ebp
  000f1	8b ec		 mov	 ebp, esp
  000f3	6a ff		 push	 -1
  000f5	68 00 00 00 00	 push	 __ehhandler$?OnPaint@SetBaseStatic@@IAEXXZ
  000fa	64 a1 00 00 00
	00		 mov	 eax, DWORD PTR fs:__except_list
  00100	50		 push	 eax
  00101	64 89 25 00 00
	00 00		 mov	 DWORD PTR fs:__except_list, esp
  00108	81 ec e0 00 00
	00		 sub	 esp, 224		; 000000e0H
  0010e	56		 push	 esi
  0010f	57		 push	 edi
  00110	51		 push	 ecx
  00111	8d bd 14 ff ff
	ff		 lea	 edi, DWORD PTR [ebp-236]
  00117	b9 38 00 00 00	 mov	 ecx, 56			; 00000038H
  0011c	b8 cc cc cc cc	 mov	 eax, -858993460		; ccccccccH
  00121	f3 ab		 rep stosd
  00123	59		 pop	 ecx
  00124	a1 00 00 00 00	 mov	 eax, DWORD PTR ___security_cookie
  00129	89 45 f0	 mov	 DWORD PTR __$ArrayPad$[ebp], eax
  0012c	89 4d ec	 mov	 DWORD PTR _this$[ebp], ecx

; 25   : 	if(m_bTrans)

  0012f	8b 45 ec	 mov	 eax, DWORD PTR _this$[ebp]
  00132	83 78 5c 00	 cmp	 DWORD PTR [eax+92], 0
  00136	0f 84 c1 01 00
	00		 je	 $L187080

; 26   : 	{
; 27   : 		CPaintDC dc(this);

  0013c	8b 4d ec	 mov	 ecx, DWORD PTR _this$[ebp]
  0013f	51		 push	 ecx
  00140	8d 4d 94	 lea	 ecx, DWORD PTR _dc$187081[ebp]
  00143	e8 00 00 00 00	 call	 ??0CPaintDC@@QAE@PAVCWnd@@@Z ; CPaintDC::CPaintDC
  00148	c7 45 fc 00 00
	00 00		 mov	 DWORD PTR __$EHRec$[ebp+8], 0

; 28   : 		RECT rect;
; 29   : 		GetClientRect(&rect);			// get clip region

  0014f	8d 95 7c ff ff
	ff		 lea	 edx, DWORD PTR _rect$187082[ebp]
  00155	52		 push	 edx
  00156	8b 4d ec	 mov	 ecx, DWORD PTR _this$[ebp]
  00159	e8 00 00 00 00	 call	 ?GetClientRect@CWnd@@QBEXPAUtagRECT@@@Z ; CWnd::GetClientRect

; 30   : 		dc.SetBkMode(TRANSPARENT);		// preserve background

  0015e	6a 01		 push	 1
  00160	8d 4d 94	 lea	 ecx, DWORD PTR _dc$187081[ebp]
  00163	e8 00 00 00 00	 call	 ?SetBkMode@CDC@@QAEHH@Z	; CDC::SetBkMode

; 31   : 		dc.SetTextColor(m_TextColor);

  00168	8b 45 ec	 mov	 eax, DWORD PTR _this$[ebp]
  0016b	8b 48 54	 mov	 ecx, DWORD PTR [eax+84]
  0016e	51		 push	 ecx
  0016f	8d 4d 94	 lea	 ecx, DWORD PTR _dc$187081[ebp]
  00172	e8 00 00 00 00	 call	 ?SetTextColor@CDC@@UAEKK@Z ; CDC::SetTextColor

; 32   : 
; 33   : 		CString strContent ;

  00177	8b f4		 mov	 esi, esp
  00179	8d 8d 70 ff ff
	ff		 lea	 ecx, DWORD PTR _strContent$187083[ebp]
  0017f	ff 15 00 00 00
	00		 call	 DWORD PTR __imp_??0?$CStringT@DV?$StrTraitMFC_DLL@DV?$ChTraitsCRT@D@ATL@@@@@ATL@@QAE@XZ
  00185	3b f4		 cmp	 esi, esp
  00187	e8 00 00 00 00	 call	 __RTC_CheckEsp
  0018c	c6 45 fc 01	 mov	 BYTE PTR __$EHRec$[ebp+8], 1

; 34   : 		GetWindowText(strContent);

  00190	8d 95 70 ff ff
	ff		 lea	 edx, DWORD PTR _strContent$187083[ebp]
  00196	52		 push	 edx
  00197	8b 4d ec	 mov	 ecx, DWORD PTR _this$[ebp]
  0019a	e8 00 00 00 00	 call	 ?GetWindowTextA@CWnd@@QBEXAAV?$CStringT@DV?$StrTraitMFC_DLL@DV?$ChTraitsCRT@D@ATL@@@@@ATL@@@Z ; CWnd::GetWindowTextA

; 35   : 
; 36   : 		LOGFONT  lf;
; 37   : 		ZeroMemory(&lf,sizeof(lf));

  0019f	6a 3c		 push	 60			; 0000003cH
  001a1	6a 00		 push	 0
  001a3	8d 85 2c ff ff
	ff		 lea	 eax, DWORD PTR _lf$187084[ebp]
  001a9	50		 push	 eax
  001aa	e8 00 00 00 00	 call	 _memset
  001af	83 c4 0c	 add	 esp, 12			; 0000000cH

; 38   : 
; 39   : 		lf.lfHeight = m_FontSize; /*-MulDiv(m_FontSize,GetDeviceCaps(dc.m_hDC,LOGPIXELSY),72);*/

  001b2	8b 4d ec	 mov	 ecx, DWORD PTR _this$[ebp]
  001b5	8b 51 58	 mov	 edx, DWORD PTR [ecx+88]
  001b8	89 95 2c ff ff
	ff		 mov	 DWORD PTR _lf$187084[ebp], edx

; 40   : 		lf.lfWeight = (m_bBold)?FW_BOLD:FW_NORMAL;

  001be	8b 45 ec	 mov	 eax, DWORD PTR _this$[ebp]
  001c1	8b 48 60	 mov	 ecx, DWORD PTR [eax+96]
  001c4	f7 d9		 neg	 ecx
  001c6	1b c9		 sbb	 ecx, ecx
  001c8	81 e1 2c 01 00
	00		 and	 ecx, 300		; 0000012cH
  001ce	81 c1 90 01 00
	00		 add	 ecx, 400		; 00000190H
  001d4	89 8d 3c ff ff
	ff		 mov	 DWORD PTR _lf$187084[ebp+16], ecx

; 41   : 		lf.lfWidth = 0;

  001da	c7 85 30 ff ff
	ff 00 00 00 00	 mov	 DWORD PTR _lf$187084[ebp+4], 0

; 42   : 		lf.lfCharSet = GB2312_CHARSET;

  001e4	c6 85 43 ff ff
	ff 86		 mov	 BYTE PTR _lf$187084[ebp+23], 134 ; 00000086H

; 43   : 		lf.lfStrikeOut = FALSE;

  001eb	c6 85 42 ff ff
	ff 00		 mov	 BYTE PTR _lf$187084[ebp+22], 0

; 44   : 		//	lf.lfCharSet= 0;
; 45   : 		lf.lfOutPrecision = OUT_DEFAULT_PRECIS;

  001f2	c6 85 44 ff ff
	ff 00		 mov	 BYTE PTR _lf$187084[ebp+24], 0

; 46   : 		lf.lfClipPrecision = CLIP_DEFAULT_PRECIS;

  001f9	c6 85 45 ff ff
	ff 00		 mov	 BYTE PTR _lf$187084[ebp+25], 0

; 47   : 		lf.lfQuality = DEFAULT_QUALITY;

  00200	c6 85 46 ff ff
	ff 00		 mov	 BYTE PTR _lf$187084[ebp+26], 0

; 48   : 		lf.lfPitchAndFamily = FF_DONTCARE | DEFAULT_PITCH;

  00207	c6 85 47 ff ff
	ff 00		 mov	 BYTE PTR _lf$187084[ebp+27], 0

; 49   : 		lf.lfUnderline = false;

  0020e	c6 85 41 ff ff
	ff 00		 mov	 BYTE PTR _lf$187084[ebp+21], 0

; 50   : 		strcpy(lf.lfFaceName, "ו");

  00215	68 00 00 00 00	 push	 OFFSET FLAT:$SG187085
  0021a	8d 95 48 ff ff
	ff		 lea	 edx, DWORD PTR _lf$187084[ebp+28]
  00220	52		 push	 edx
  00221	e8 00 00 00 00	 call	 _strcpy
  00226	83 c4 08	 add	 esp, 8

; 51   : 
; 52   : 		CFont font;

  00229	8d 8d 1c ff ff
	ff		 lea	 ecx, DWORD PTR _font$187086[ebp]
  0022f	e8 00 00 00 00	 call	 ??0CFont@@QAE@XZ	; CFont::CFont
  00234	c6 45 fc 02	 mov	 BYTE PTR __$EHRec$[ebp+8], 2

; 53   : 		font.CreateFontIndirect(&lf);

  00238	8d 85 2c ff ff
	ff		 lea	 eax, DWORD PTR _lf$187084[ebp]
  0023e	50		 push	 eax
  0023f	8d 8d 1c ff ff
	ff		 lea	 ecx, DWORD PTR _font$187086[ebp]
  00245	e8 00 00 00 00	 call	 ?CreateFontIndirectA@CFont@@QAEHPBUtagLOGFONTA@@@Z ; CFont::CreateFontIndirectA

; 54   : 		CFont* oldFont = (CFont*)dc.SelectObject(&font);

  0024a	8d 8d 1c ff ff
	ff		 lea	 ecx, DWORD PTR _font$187086[ebp]
  00250	51		 push	 ecx
  00251	8d 4d 94	 lea	 ecx, DWORD PTR _dc$187081[ebp]
  00254	e8 00 00 00 00	 call	 ?SelectObject@CDC@@UAEPAVCFont@@PAV2@@Z ; CDC::SelectObject
  00259	89 85 14 ff ff
	ff		 mov	 DWORD PTR _oldFont$187087[ebp], eax

; 55   : 
; 56   : 
; 57   : 		::DrawText(
; 58   : 			dc.m_hDC,
; 59   : 			strContent,
; 60   : 			strContent.GetLength(),
; 61   : 			&rect,
; 62   : 			DT_SINGLELINE|DT_END_ELLIPSIS|DT_NOPREFIX/*|DT_EXTERNALLEADING|DT_WORDBREAK|DT_END_ELLIPSIS|DT_EDITCONTROL*/
; 63   : 			);

  0025f	8b f4		 mov	 esi, esp
  00261	68 20 88 00 00	 push	 34848			; 00008820H
  00266	8d 95 7c ff ff
	ff		 lea	 edx, DWORD PTR _rect$187082[ebp]
  0026c	52		 push	 edx
  0026d	8b fc		 mov	 edi, esp
  0026f	8d 8d 70 ff ff
	ff		 lea	 ecx, DWORD PTR _strContent$187083[ebp]
  00275	ff 15 00 00 00
	00		 call	 DWORD PTR __imp_?GetLength@?$CSimpleStringT@D$00@ATL@@QBEHXZ
  0027b	3b fc		 cmp	 edi, esp
  0027d	e8 00 00 00 00	 call	 __RTC_CheckEsp
  00282	50		 push	 eax
  00283	8b fc		 mov	 edi, esp
  00285	8d 8d 70 ff ff
	ff		 lea	 ecx, DWORD PTR _strContent$187083[ebp]
  0028b	ff 15 00 00 00
	00		 call	 DWORD PTR __imp_??B?$CSimpleStringT@D$00@ATL@@QBEPBDXZ
  00291	3b fc		 cmp	 edi, esp
  00293	e8 00 00 00 00	 call	 __RTC_CheckEsp
  00298	50		 push	 eax
  00299	8b 45 98	 mov	 eax, DWORD PTR _dc$187081[ebp+4]
  0029c	50		 push	 eax
  0029d	ff 15 00 00 00
	00		 call	 DWORD PTR __imp__DrawTextA@20
  002a3	3b f4		 cmp	 esi, esp
  002a5	e8 00 00 00 00	 call	 __RTC_CheckEsp

; 64   : 
; 65   : 		//dc.SetTextColor(ltempColor);
; 66   : 		dc.SelectObject(oldFont);

  002aa	8b 8d 14 ff ff
	ff		 mov	 ecx, DWORD PTR _oldFont$187087[ebp]
  002b0	51		 push	 ecx
  002b1	8d 4d 94	 lea	 ecx, DWORD PTR _dc$187081[ebp]
  002b4	e8 00 00 00 00	 call	 ?SelectObject@CDC@@UAEPAVCFont@@PAV2@@Z ; CDC::SelectObject

; 67   : 		font.DeleteObject();

  002b9	8d 8d 1c ff ff
	ff		 lea	 ecx, DWORD PTR _font$187086[ebp]
  002bf	e8 00 00 00 00	 call	 ?DeleteObject@CGdiObject@@QAEHXZ ; CGdiObject::DeleteObject

; 68   : 	}

  002c4	c6 45 fc 01	 mov	 BYTE PTR __$EHRec$[ebp+8], 1
  002c8	8d 8d 1c ff ff
	ff		 lea	 ecx, DWORD PTR _font$187086[ebp]
  002ce	e8 00 00 00 00	 call	 ??1CFont@@UAE@XZ	; CFont::~CFont
  002d3	c6 45 fc 00	 mov	 BYTE PTR __$EHRec$[ebp+8], 0
  002d7	8b f4		 mov	 esi, esp
  002d9	8d 8d 70 ff ff
	ff		 lea	 ecx, DWORD PTR _strContent$187083[ebp]
  002df	ff 15 00 00 00
	00		 call	 DWORD PTR __imp_??1?$CStringT@DV?$StrTraitMFC_DLL@DV?$ChTraitsCRT@D@ATL@@@@@ATL@@QAE@XZ
  002e5	3b f4		 cmp	 esi, esp
  002e7	e8 00 00 00 00	 call	 __RTC_CheckEsp
  002ec	c7 45 fc ff ff
	ff ff		 mov	 DWORD PTR __$EHRec$[ebp+8], -1
  002f3	8d 4d 94	 lea	 ecx, DWORD PTR _dc$187081[ebp]
  002f6	e8 00 00 00 00	 call	 ??1CPaintDC@@UAE@XZ	; CPaintDC::~CPaintDC

; 69   : 	else

  002fb	eb 08		 jmp	 SHORT $L187079
$L187080:

; 70   : 	{
; 71   : 		CStatic::OnPaint();

  002fd	8b 4d ec	 mov	 ecx, DWORD PTR _this$[ebp]
  00300	e8 00 00 00 00	 call	 ?OnPaint@CWnd@@IAEXXZ	; CWnd::OnPaint
$L187079:

; 72   : 	}
; 73   : 
; 74   : }

  00305	52		 push	 edx
  00306	8b cd		 mov	 ecx, ebp
  00308	50		 push	 eax
  00309	8d 15 00 00 00
	00		 lea	 edx, DWORD PTR $L187600
  0030f	e8 00 00 00 00	 call	 @_RTC_CheckStackVars@8
  00314	58		 pop	 eax
  00315	5a		 pop	 edx
  00316	8b 4d f4	 mov	 ecx, DWORD PTR __$EHRec$[ebp]
  00319	64 89 0d 00 00
	00 00		 mov	 DWORD PTR fs:__except_list, ecx
  00320	8b 4d f0	 mov	 ecx, DWORD PTR __$ArrayPad$[ebp]
  00323	e8 00 00 00 00	 call	 @__security_check_cookie@4
  00328	5f		 pop	 edi
  00329	5e		 pop	 esi
  0032a	81 c4 ec 00 00
	00		 add	 esp, 236		; 000000ecH
  00330	3b ec		 cmp	 ebp, esp
  00332	e8 00 00 00 00	 call	 __RTC_CheckEsp
  00337	8b e5		 mov	 esp, ebp
  00339	5d		 pop	 ebp
  0033a	c3		 ret	 0
$L187600:
  0033b	05 00 00 00	 DD	 5
  0033f	00 00 00 00	 DD	 $L187599
$L187599:
  00343	94 ff ff ff	 DD	 -108			; ffffff94H
  00347	54 00 00 00	 DD	 84			; 00000054H
  0034b	00 00 00 00	 DD	 $L187590
  0034f	7c ff ff ff	 DD	 -132			; ffffff7cH
  00353	10 00 00 00	 DD	 16			; 00000010H
  00357	00 00 00 00	 DD	 $L187591
  0035b	70 ff ff ff	 DD	 -144			; ffffff70H
  0035f	04 00 00 00	 DD	 4
  00363	00 00 00 00	 DD	 $L187592
  00367	2c ff ff ff	 DD	 -212			; ffffff2cH
  0036b	3c 00 00 00	 DD	 60			; 0000003cH
  0036f	00 00 00 00	 DD	 $L187593
  00373	1c ff ff ff	 DD	 -228			; ffffff1cH
  00377	08 00 00 00	 DD	 8
  0037b	00 00 00 00	 DD	 $L187594
$L187594:
  0037f	66		 DB	 102			; 00000066H
  00380	6f		 DB	 111			; 0000006fH
  00381	6e		 DB	 110			; 0000006eH
  00382	74		 DB	 116			; 00000074H
  00383	00		 DB	 0
$L187593:
  00384	6c		 DB	 108			; 0000006cH
  00385	66		 DB	 102			; 00000066H
  00386	00		 DB	 0
$L187592:
  00387	73		 DB	 115			; 00000073H
  00388	74		 DB	 116			; 00000074H
  00389	72		 DB	 114			; 00000072H
  0038a	43		 DB	 67			; 00000043H
  0038b	6f		 DB	 111			; 0000006fH
  0038c	6e		 DB	 110			; 0000006eH
  0038d	74		 DB	 116			; 00000074H
  0038e	65		 DB	 101			; 00000065H
  0038f	6e		 DB	 110			; 0000006eH
  00390	74		 DB	 116			; 00000074H
  00391	00		 DB	 0
$L187591:
  00392	72		 DB	 114			; 00000072H
  00393	65		 DB	 101			; 00000065H
  00394	63		 DB	 99			; 00000063H
  00395	74		 DB	 116			; 00000074H
  00396	00		 DB	 0
$L187590:
  00397	64		 DB	 100			; 00000064H
  00398	63		 DB	 99			; 00000063H
  00399	00		 DB	 0
_TEXT	ENDS
text$x	SEGMENT
$L187583:
  00000	8d 4d 94	 lea	 ecx, DWORD PTR _dc$187081[ebp]
  00003	e9 00 00 00 00	 jmp	 ??1CPaintDC@@UAE@XZ	; CPaintDC::~CPaintDC
$L187584:
  00008	8b f4		 mov	 esi, esp
  0000a	8d 8d 70 ff ff
	ff		 lea	 ecx, DWORD PTR _strContent$187083[ebp]
  00010	ff 15 00 00 00
	00		 call	 DWORD PTR __imp_??1?$CStringT@DV?$StrTraitMFC_DLL@DV?$ChTraitsCRT@D@ATL@@@@@ATL@@QAE@XZ
  00016	3b f4		 cmp	 esi, esp
  00018	e9 00 00 00 00	 jmp	 __RTC_CheckEsp
$L187585:
  0001d	8d 8d 1c ff ff
	ff		 lea	 ecx, DWORD PTR _font$187086[ebp]
  00023	e9 00 00 00 00	 jmp	 ??1CFont@@UAE@XZ	; CFont::~CFont
__ehhandler$?OnPaint@SetBaseStatic@@IAEXXZ:
  00028	b8 00 00 00 00	 mov	 eax, OFFSET FLAT:$T187589
  0002d	e9 00 00 00 00	 jmp	 ___CxxFrameHandler
text$x	ENDS
?OnPaint@SetBaseStatic@@IAEXXZ ENDP			; SetBaseStatic::OnPaint
PUBLIC	?OnSetText@SetBaseStatic@@IAEJIJ@Z		; SetBaseStatic::OnSetText
EXTRN	??0CRect@@QAE@XZ:NEAR				; CRect::CRect
EXTRN	?Default@CWnd@@IAEJXZ:NEAR			; CWnd::Default
EXTRN	?GetWindowRect@CWnd@@QBEXPAUtagRECT@@@Z:NEAR	; CWnd::GetWindowRect
EXTRN	?ScreenToClient@CWnd@@QBEXPAUtagRECT@@@Z:NEAR	; CWnd::ScreenToClient
EXTRN	?UpdateWindow@CWnd@@QAEXXZ:NEAR			; CWnd::UpdateWindow
EXTRN	?InvalidateRect@CWnd@@QAEXPBUtagRECT@@H@Z:NEAR	; CWnd::InvalidateRect
EXTRN	?GetParent@CWnd@@QBEPAV1@XZ:NEAR		; CWnd::GetParent
; Function compile flags: /Odt /RTCsu
_TEXT	SEGMENT
_Rect$187097 = -28					; size = 16
_Result$ = -8						; size = 4
_this$ = -4						; size = 4
_wParam$ = 8						; size = 4
_lParam$ = 12						; size = 4
?OnSetText@SetBaseStatic@@IAEJIJ@Z PROC NEAR		; SetBaseStatic::OnSetText
; _this$ = ecx

; 77   : {

  003a0	55		 push	 ebp
  003a1	8b ec		 mov	 ebp, esp
  003a3	83 ec 20	 sub	 esp, 32			; 00000020H
  003a6	b8 cc cc cc cc	 mov	 eax, -858993460		; ccccccccH
  003ab	89 45 e0	 mov	 DWORD PTR [ebp-32], eax
  003ae	89 45 e4	 mov	 DWORD PTR [ebp-28], eax
  003b1	89 45 e8	 mov	 DWORD PTR [ebp-24], eax
  003b4	89 45 ec	 mov	 DWORD PTR [ebp-20], eax
  003b7	89 45 f0	 mov	 DWORD PTR [ebp-16], eax
  003ba	89 45 f4	 mov	 DWORD PTR [ebp-12], eax
  003bd	89 45 f8	 mov	 DWORD PTR [ebp-8], eax
  003c0	89 45 fc	 mov	 DWORD PTR [ebp-4], eax
  003c3	89 4d fc	 mov	 DWORD PTR _this$[ebp], ecx

; 78   : 	LRESULT Result = Default();

  003c6	8b 4d fc	 mov	 ecx, DWORD PTR _this$[ebp]
  003c9	e8 00 00 00 00	 call	 ?Default@CWnd@@IAEJXZ	; CWnd::Default
  003ce	89 45 f8	 mov	 DWORD PTR _Result$[ebp], eax

; 79   : 	if(m_bTrans)

  003d1	8b 45 fc	 mov	 eax, DWORD PTR _this$[ebp]
  003d4	83 78 5c 00	 cmp	 DWORD PTR [eax+92], 0
  003d8	74 4b		 je	 SHORT $L187096

; 80   : 	{
; 81   : 		CRect Rect;

  003da	8d 4d e4	 lea	 ecx, DWORD PTR _Rect$187097[ebp]
  003dd	e8 00 00 00 00	 call	 ??0CRect@@QAE@XZ	; CRect::CRect

; 82   : 		GetWindowRect(&Rect);

  003e2	8d 4d e4	 lea	 ecx, DWORD PTR _Rect$187097[ebp]
  003e5	51		 push	 ecx
  003e6	8b 4d fc	 mov	 ecx, DWORD PTR _this$[ebp]
  003e9	e8 00 00 00 00	 call	 ?GetWindowRect@CWnd@@QBEXPAUtagRECT@@@Z ; CWnd::GetWindowRect

; 83   : 		GetParent()->ScreenToClient(&Rect);

  003ee	8d 55 e4	 lea	 edx, DWORD PTR _Rect$187097[ebp]
  003f1	52		 push	 edx
  003f2	8b 4d fc	 mov	 ecx, DWORD PTR _this$[ebp]
  003f5	e8 00 00 00 00	 call	 ?GetParent@CWnd@@QBEPAV1@XZ ; CWnd::GetParent
  003fa	8b c8		 mov	 ecx, eax
  003fc	e8 00 00 00 00	 call	 ?ScreenToClient@CWnd@@QBEXPAUtagRECT@@@Z ; CWnd::ScreenToClient

; 84   : 		GetParent()->InvalidateRect(&Rect);

  00401	6a 01		 push	 1
  00403	8d 45 e4	 lea	 eax, DWORD PTR _Rect$187097[ebp]
  00406	50		 push	 eax
  00407	8b 4d fc	 mov	 ecx, DWORD PTR _this$[ebp]
  0040a	e8 00 00 00 00	 call	 ?GetParent@CWnd@@QBEPAV1@XZ ; CWnd::GetParent
  0040f	8b c8		 mov	 ecx, eax
  00411	e8 00 00 00 00	 call	 ?InvalidateRect@CWnd@@QAEXPBUtagRECT@@H@Z ; CWnd::InvalidateRect

; 85   : 		GetParent()->UpdateWindow();

  00416	8b 4d fc	 mov	 ecx, DWORD PTR _this$[ebp]
  00419	e8 00 00 00 00	 call	 ?GetParent@CWnd@@QBEPAV1@XZ ; CWnd::GetParent
  0041e	8b c8		 mov	 ecx, eax
  00420	e8 00 00 00 00	 call	 ?UpdateWindow@CWnd@@QAEXXZ ; CWnd::UpdateWindow
$L187096:

; 86   : 	}
; 87   : 	return Result;

  00425	8b 45 f8	 mov	 eax, DWORD PTR _Result$[ebp]

; 88   : }

  00428	52		 push	 edx
  00429	8b cd		 mov	 ecx, ebp
  0042b	50		 push	 eax
  0042c	8d 15 00 00 00
	00		 lea	 edx, DWORD PTR $L187608
  00432	e8 00 00 00 00	 call	 @_RTC_CheckStackVars@8
  00437	58		 pop	 eax
  00438	5a		 pop	 edx
  00439	83 c4 20	 add	 esp, 32			; 00000020H
  0043c	3b ec		 cmp	 ebp, esp
  0043e	e8 00 00 00 00	 call	 __RTC_CheckEsp
  00443	8b e5		 mov	 esp, ebp
  00445	5d		 pop	 ebp
  00446	c2 08 00	 ret	 8
$L187608:
  00449	01 00 00 00	 DD	 1
  0044d	00 00 00 00	 DD	 $L187607
$L187607:
  00451	e4 ff ff ff	 DD	 -28			; ffffffe4H
  00455	10 00 00 00	 DD	 16			; 00000010H
  00459	00 00 00 00	 DD	 $L187606
$L187606:
  0045d	52		 DB	 82			; 00000052H
  0045e	65		 DB	 101			; 00000065H
  0045f	63		 DB	 99			; 00000063H
  00460	74		 DB	 116			; 00000074H
  00461	00		 DB	 0
?OnSetText@SetBaseStatic@@IAEJIJ@Z ENDP			; SetBaseStatic::OnSetText
_TEXT	ENDS
PUBLIC	?CtlColor@SetBaseStatic@@IAEPAUHBRUSH__@@PAVCDC@@I@Z ; SetBaseStatic::CtlColor
EXTRN	__imp__CreateSolidBrush@4:NEAR
EXTRN	__imp__GetStockObject@4:NEAR
; Function compile flags: /Odt /RTCsu
_TEXT	SEGMENT
_this$ = -4						; size = 4
_pDC$ = 8						; size = 4
_nCtlColor$ = 12					; size = 4
?CtlColor@SetBaseStatic@@IAEPAUHBRUSH__@@PAVCDC@@I@Z PROC NEAR ; SetBaseStatic::CtlColor
; _this$ = ecx

; 91   : {

  00470	55		 push	 ebp
  00471	8b ec		 mov	 ebp, esp
  00473	51		 push	 ecx
  00474	56		 push	 esi
  00475	c7 45 fc cc cc
	cc cc		 mov	 DWORD PTR [ebp-4], -858993460 ; ccccccccH
  0047c	89 4d fc	 mov	 DWORD PTR _this$[ebp], ecx

; 92   : 	if(m_bTrans)

  0047f	8b 45 fc	 mov	 eax, DWORD PTR _this$[ebp]
  00482	83 78 5c 00	 cmp	 DWORD PTR [eax+92], 0
  00486	74 1d		 je	 SHORT $L187103

; 93   : 	{
; 94   : 		pDC->SetBkMode(TRANSPARENT);

  00488	6a 01		 push	 1
  0048a	8b 4d 08	 mov	 ecx, DWORD PTR _pDC$[ebp]
  0048d	e8 00 00 00 00	 call	 ?SetBkMode@CDC@@QAEHH@Z	; CDC::SetBkMode

; 95   : 		return (HBRUSH)GetStockObject(NULL_BRUSH);

  00492	8b f4		 mov	 esi, esp
  00494	6a 05		 push	 5
  00496	ff 15 00 00 00
	00		 call	 DWORD PTR __imp__GetStockObject@4
  0049c	3b f4		 cmp	 esi, esp
  0049e	e8 00 00 00 00	 call	 __RTC_CheckEsp
  004a3	eb 37		 jmp	 SHORT $L187102
$L187103:

; 96   : 	}
; 97   : 	else
; 98   : 	{
; 99   : 		pDC->SetBkMode( TRANSPARENT );

  004a5	6a 01		 push	 1
  004a7	8b 4d 08	 mov	 ecx, DWORD PTR _pDC$[ebp]
  004aa	e8 00 00 00 00	 call	 ?SetBkMode@CDC@@QAEHH@Z	; CDC::SetBkMode

; 100  : 		pDC->SetBkColor( RGB(255,255,255) );

  004af	8b f4		 mov	 esi, esp
  004b1	68 ff ff ff 00	 push	 16777215		; 00ffffffH
  004b6	8b 4d 08	 mov	 ecx, DWORD PTR _pDC$[ebp]
  004b9	8b 11		 mov	 edx, DWORD PTR [ecx]
  004bb	8b 4d 08	 mov	 ecx, DWORD PTR _pDC$[ebp]
  004be	ff 52 34	 call	 DWORD PTR [edx+52]
  004c1	3b f4		 cmp	 esi, esp
  004c3	e8 00 00 00 00	 call	 __RTC_CheckEsp

; 101  : 		return ::CreateSolidBrush( RGB(255,255,255) );

  004c8	8b f4		 mov	 esi, esp
  004ca	68 ff ff ff 00	 push	 16777215		; 00ffffffH
  004cf	ff 15 00 00 00
	00		 call	 DWORD PTR __imp__CreateSolidBrush@4
  004d5	3b f4		 cmp	 esi, esp
  004d7	e8 00 00 00 00	 call	 __RTC_CheckEsp
$L187102:

; 102  : 	}
; 103  : }

  004dc	5e		 pop	 esi
  004dd	83 c4 04	 add	 esp, 4
  004e0	3b ec		 cmp	 ebp, esp
  004e2	e8 00 00 00 00	 call	 __RTC_CheckEsp
  004e7	8b e5		 mov	 esp, ebp
  004e9	5d		 pop	 ebp
  004ea	c2 08 00	 ret	 8
?CtlColor@SetBaseStatic@@IAEPAUHBRUSH__@@PAVCDC@@I@Z ENDP ; SetBaseStatic::CtlColor
_TEXT	ENDS
PUBLIC	?OnEraseBkgnd@SetBaseStatic@@IAEHPAVCDC@@@Z	; SetBaseStatic::OnEraseBkgnd
; Function compile flags: /Odt /RTCsu
_TEXT	SEGMENT
_this$ = -4						; size = 4
_pDC$ = 8						; size = 4
?OnEraseBkgnd@SetBaseStatic@@IAEHPAVCDC@@@Z PROC NEAR	; SetBaseStatic::OnEraseBkgnd
; _this$ = ecx

; 106  : {

  004f0	55		 push	 ebp
  004f1	8b ec		 mov	 ebp, esp
  004f3	51		 push	 ecx
  004f4	c7 45 fc cc cc
	cc cc		 mov	 DWORD PTR [ebp-4], -858993460 ; ccccccccH
  004fb	89 4d fc	 mov	 DWORD PTR _this$[ebp], ecx

; 107  : 	return TRUE;

  004fe	b8 01 00 00 00	 mov	 eax, 1

; 108  : }

  00503	8b e5		 mov	 esp, ebp
  00505	5d		 pop	 ebp
  00506	c2 04 00	 ret	 4
?OnEraseBkgnd@SetBaseStatic@@IAEHPAVCDC@@@Z ENDP	; SetBaseStatic::OnEraseBkgnd
_TEXT	ENDS
END
