; Listing generated by Microsoft (R) Optimizing Compiler Version 13.10.3077 

	TITLE	.\src\Gui\CommonControl\SkinButton2.cpp
	.386P
include listing.inc
if @Version gt 510
.model FLAT
else
_TEXT	SEGMENT PARA USE32 PUBLIC 'CODE'
_TEXT	ENDS
_DATA	SEGMENT DWORD USE32 PUBLIC 'DATA'
_DATA	ENDS
CONST	SEGMENT DWORD USE32 PUBLIC 'CONST'
CONST	ENDS
_BSS	SEGMENT DWORD USE32 PUBLIC 'BSS'
_BSS	ENDS
$$SYMBOLS	SEGMENT BYTE USE32 'DEBSYM'
$$SYMBOLS	ENDS
_TLS	SEGMENT DWORD USE32 PUBLIC 'TLS'
_TLS	ENDS
;	COMDAT ??_C@_0EN@IBFBLEEG@D?3?2Program?5Files?5?$CIx86?$CJ?2Microsoft@
CONST	SEGMENT DWORD USE32 PUBLIC 'CONST'
CONST	ENDS
rdata$r	SEGMENT DWORD USE32 PUBLIC 'CONST'
rdata$r	ENDS
xdata$x	SEGMENT DWORD USE32 PUBLIC 'CONST'
xdata$x	ENDS
text$AFX_COL1	SEGMENT PARA USE32 PUBLIC ''
text$AFX_COL1	ENDS
text$yc	SEGMENT PARA USE32 PUBLIC 'CODE'
text$yc	ENDS
CRT$XCA	SEGMENT DWORD USE32 PUBLIC 'DATA'
CRT$XCA	ENDS
CRT$XCU	SEGMENT DWORD USE32 PUBLIC 'DATA'
CRT$XCU	ENDS
CRT$XCL	SEGMENT DWORD USE32 PUBLIC 'DATA'
CRT$XCL	ENDS
CRT$XCC	SEGMENT DWORD USE32 PUBLIC 'DATA'
CRT$XCC	ENDS
CRT$XCZ	SEGMENT DWORD USE32 PUBLIC 'DATA'
CRT$XCZ	ENDS
text$yd	SEGMENT PARA USE32 PUBLIC 'CODE'
text$yd	ENDS
ATL$__m	SEGMENT DWORD USE32 PUBLIC ''
ATL$__m	ENDS
ATL$__z	SEGMENT DWORD USE32 PUBLIC ''
ATL$__z	ENDS
ATL$__a	SEGMENT DWORD USE32 PUBLIC ''
ATL$__a	ENDS
;	COMDAT ??0CGdiPlusBitmap@@QAE@XZ
_TEXT	SEGMENT PARA USE32 PUBLIC 'CODE'
_TEXT	ENDS
;	COMDAT ??1CGdiPlusBitmap@@UAE@XZ
_TEXT	SEGMENT PARA USE32 PUBLIC 'CODE'
_TEXT	ENDS
;	COMDAT ?Empty@CGdiPlusBitmap@@QAEXXZ
_TEXT	SEGMENT PARA USE32 PUBLIC 'CODE'
_TEXT	ENDS
;	COMDAT ?Load@CGdiPlusBitmap@@QAE_NPB_W@Z
_TEXT	SEGMENT PARA USE32 PUBLIC 'CODE'
_TEXT	ENDS
;	COMDAT ??BCGdiPlusBitmap@@QBEPAVBitmap@Gdiplus@@XZ
_TEXT	SEGMENT PARA USE32 PUBLIC 'CODE'
_TEXT	ENDS
;	COMDAT ??_GCGdiPlusBitmap@@UAEPAXI@Z
_TEXT	SEGMENT PARA USE32 PUBLIC 'CODE'
_TEXT	ENDS
;	COMDAT ??_GCSkinButton2@@UAEPAXI@Z
_TEXT	SEGMENT PARA USE32 PUBLIC 'CODE'
_TEXT	ENDS
;	COMDAT ??_GFont@Gdiplus@@QAEPAXI@Z
_TEXT	SEGMENT PARA USE32 PUBLIC 'CODE'
_TEXT	ENDS
;	COMDAT ??B?$CComPtrBase@UITypeInfo2@@@ATL@@QBEPAUITypeInfo2@@XZ
_TEXT	SEGMENT PARA USE32 PUBLIC 'CODE'
_TEXT	ENDS
;	COMDAT ?equal@?$istreambuf_iterator@DU?$char_traits@D@std@@@std@@QBE_NABV12@@Z
_TEXT	SEGMENT PARA USE32 PUBLIC 'CODE'
_TEXT	ENDS
;	COMDAT ?equal@?$istreambuf_iterator@_WU?$char_traits@_W@std@@@std@@QBE_NABV12@@Z
_TEXT	SEGMENT PARA USE32 PUBLIC 'CODE'
_TEXT	ENDS
;	COMDAT ?Unlock@?$CComCritSecLock@VCComCriticalSection@ATL@@@ATL@@QAEXXZ
_TEXT	SEGMENT PARA USE32 PUBLIC 'CODE'
_TEXT	ENDS
;	COMDAT ??$_Maklocstr@D@std@@YAPADPBDPADABU_Cvtvec@@@Z
_TEXT	SEGMENT PARA USE32 PUBLIC 'CODE'
_TEXT	ENDS
;	COMDAT ??_R3CGdiPlusBitmap@@8
rdata$r	SEGMENT DWORD USE32 PUBLIC 'CONST'
rdata$r	ENDS
;	COMDAT ??_R3?$numpunct@_W@std@@8
rdata$r	SEGMENT DWORD USE32 PUBLIC 'CONST'
rdata$r	ENDS
;	COMDAT ??_R3?$numpunct@D@std@@8
rdata$r	SEGMENT DWORD USE32 PUBLIC 'CONST'
rdata$r	ENDS
;	COMDAT ??_R3CSkinButton2@@8
rdata$r	SEGMENT DWORD USE32 PUBLIC 'CONST'
rdata$r	ENDS
;	COMDAT ??_R2CGdiPlusBitmap@@8
rdata$r	SEGMENT DWORD USE32 PUBLIC 'CONST'
rdata$r	ENDS
;	COMDAT ??_R2?$numpunct@_W@std@@8
rdata$r	SEGMENT DWORD USE32 PUBLIC 'CONST'
rdata$r	ENDS
;	COMDAT ??_R2?$numpunct@D@std@@8
rdata$r	SEGMENT DWORD USE32 PUBLIC 'CONST'
rdata$r	ENDS
;	COMDAT ??_R2CSkinButton2@@8
rdata$r	SEGMENT DWORD USE32 PUBLIC 'CONST'
rdata$r	ENDS
;	COMDAT ??_R1A@?0A@A@CGdiPlusBitmap@@8
rdata$r	SEGMENT DWORD USE32 PUBLIC 'CONST'
rdata$r	ENDS
;	COMDAT ??_R1A@?0A@A@?$numpunct@_W@std@@8
rdata$r	SEGMENT DWORD USE32 PUBLIC 'CONST'
rdata$r	ENDS
;	COMDAT ??_R1A@?0A@A@facet@locale@std@@8
rdata$r	SEGMENT DWORD USE32 PUBLIC 'CONST'
rdata$r	ENDS
;	COMDAT ??_R0?AVfacet@locale@std@@@8
_DATA	SEGMENT DWORD USE32 PUBLIC 'DATA'
_DATA	ENDS
;	COMDAT ??_R1A@?0A@A@?$numpunct@D@std@@8
rdata$r	SEGMENT DWORD USE32 PUBLIC 'CONST'
rdata$r	ENDS
;	COMDAT ??_R1A@?0A@A@CObject@@8
rdata$r	SEGMENT DWORD USE32 PUBLIC 'CONST'
rdata$r	ENDS
;	COMDAT ??_R0?AVCObject@@@8
_DATA	SEGMENT DWORD USE32 PUBLIC 'DATA'
_DATA	ENDS
;	COMDAT ??_R1A@?0A@A@CCmdTarget@@8
rdata$r	SEGMENT DWORD USE32 PUBLIC 'CONST'
rdata$r	ENDS
;	COMDAT ??_R0?AVCCmdTarget@@@8
_DATA	SEGMENT DWORD USE32 PUBLIC 'DATA'
_DATA	ENDS
;	COMDAT ??_R1A@?0A@A@CWnd@@8
rdata$r	SEGMENT DWORD USE32 PUBLIC 'CONST'
rdata$r	ENDS
;	COMDAT ??_R0?AVCWnd@@@8
_DATA	SEGMENT DWORD USE32 PUBLIC 'DATA'
_DATA	ENDS
;	COMDAT ??_R1A@?0A@A@CButton@@8
rdata$r	SEGMENT DWORD USE32 PUBLIC 'CONST'
rdata$r	ENDS
;	COMDAT ??_R1A@?0A@A@CSkinButton2@@8
rdata$r	SEGMENT DWORD USE32 PUBLIC 'CONST'
rdata$r	ENDS
;	COMDAT ??_R0?AVCGdiPlusBitmap@@@8
_DATA	SEGMENT DWORD USE32 PUBLIC 'DATA'
_DATA	ENDS
;	COMDAT ??_R0?AV?$numpunct@_W@std@@@8
_DATA	SEGMENT DWORD USE32 PUBLIC 'DATA'
_DATA	ENDS
;	COMDAT ??_R0?AV?$numpunct@D@std@@@8
_DATA	SEGMENT DWORD USE32 PUBLIC 'DATA'
_DATA	ENDS
;	COMDAT ??_R0?AVCButton@@@8
_DATA	SEGMENT DWORD USE32 PUBLIC 'DATA'
_DATA	ENDS
;	COMDAT ??_R0?AVCSkinButton2@@@8
_DATA	SEGMENT DWORD USE32 PUBLIC 'DATA'
_DATA	ENDS
;	COMDAT ??_R4CGdiPlusBitmap@@6B@
rdata$r	SEGMENT DWORD USE32 PUBLIC 'CONST'
rdata$r	ENDS
;	COMDAT ??0?$allocator@_W@std@@QAE@XZ
_TEXT	SEGMENT PARA USE32 PUBLIC 'CODE'
_TEXT	ENDS
;	COMDAT ??0?$allocator@D@std@@QAE@ABV01@@Z
_TEXT	SEGMENT PARA USE32 PUBLIC 'CODE'
_TEXT	ENDS
;	COMDAT ??0?$allocator@D@std@@QAE@XZ
_TEXT	SEGMENT PARA USE32 PUBLIC 'CODE'
_TEXT	ENDS
;	COMDAT ?deallocate@?$allocator@D@std@@QAEXPADI@Z
_TEXT	SEGMENT PARA USE32 PUBLIC 'CODE'
_TEXT	ENDS
;	COMDAT ?max_size@?$allocator@D@std@@QBEIXZ
_TEXT	SEGMENT PARA USE32 PUBLIC 'CODE'
_TEXT	ENDS
;	COMDAT ?allocate@?$allocator@D@std@@QAEPADI@Z
_TEXT	SEGMENT PARA USE32 PUBLIC 'CODE'
_TEXT	ENDS
;	COMDAT ??$_Allocate@D@std@@YAPADIPAD@Z
_TEXT	SEGMENT PARA USE32 PUBLIC 'CODE'
_TEXT	ENDS
;	COMDAT ??_G?$numpunct@_W@std@@MAEPAXI@Z
_TEXT	SEGMENT PARA USE32 PUBLIC 'CODE'
_TEXT	ENDS
;	COMDAT ??_R4?$numpunct@_W@std@@6B@
rdata$r	SEGMENT DWORD USE32 PUBLIC 'CONST'
rdata$r	ENDS
;	COMDAT ??_G?$numpunct@D@std@@MAEPAXI@Z
_TEXT	SEGMENT PARA USE32 PUBLIC 'CODE'
_TEXT	ENDS
;	COMDAT ??_R4?$numpunct@D@std@@6B@
rdata$r	SEGMENT DWORD USE32 PUBLIC 'CONST'
rdata$r	ENDS
;	COMDAT ??_R4CSkinButton2@@6B@
rdata$r	SEGMENT DWORD USE32 PUBLIC 'CONST'
rdata$r	ENDS
;	COMDAT ??_C@_0EN@CBMLGOH@D?3?2Program?5Files?5?$CIx86?$CJ?2Microsoft@
CONST	SEGMENT DWORD USE32 PUBLIC 'CONST'
CONST	ENDS
;	COMDAT ?_Psave@?$_Facetptr@V?$numpunct@_W@std@@@std@@2PBVfacet@locale@2@B
_DATA	SEGMENT DWORD USE32 PUBLIC 'DATA'
_DATA	ENDS
;	COMDAT ?_Psave@?$_Facetptr@V?$numpunct@D@std@@@std@@2PBVfacet@locale@2@B
_DATA	SEGMENT DWORD USE32 PUBLIC 'DATA'
_DATA	ENDS
;	COMDAT ?Unlock@CComCriticalSection@ATL@@QAEJXZ
_TEXT	SEGMENT PARA USE32 PUBLIC 'CODE'
_TEXT	ENDS
;	COMDAT ??_C@_0FG@LDNDNCJM@D?3?2Program?5Files?5?$CIx86?$CJ?2Microsoft@
CONST	SEGMENT DWORD USE32 PUBLIC 'CONST'
CONST	ENDS
;	COMDAT ??_C@_09HIEJFN@m_bLocked?$AA@
CONST	SEGMENT DWORD USE32 PUBLIC 'CONST'
CONST	ENDS
;	COMDAT ?_Psave@?$_Facetptr@V?$ctype@_W@std@@@std@@2PBVfacet@locale@2@B
_DATA	SEGMENT DWORD USE32 PUBLIC 'DATA'
_DATA	ENDS
;	COMDAT ?_Psave@?$_Facetptr@V?$ctype@D@std@@@std@@2PBVfacet@locale@2@B
_DATA	SEGMENT DWORD USE32 PUBLIC 'DATA'
_DATA	ENDS
;	COMDAT ??$_Maklocchr@_W@std@@YA_WDPA_WABU_Cvtvec@@@Z
_TEXT	SEGMENT PARA USE32 PUBLIC 'CODE'
_TEXT	ENDS
;	COMDAT ??$_DebugHeapDelete@X@std@@YAXPAX@Z
_TEXT	SEGMENT PARA USE32 PUBLIC 'CODE'
_TEXT	ENDS
;	COMDAT ??$_Maklocstr@_W@std@@YAPA_WPBDPA_WABU_Cvtvec@@@Z
_TEXT	SEGMENT PARA USE32 PUBLIC 'CODE'
_TEXT	ENDS
;	COMDAT ??$_Maklocchr@D@std@@YADDPADABU_Cvtvec@@@Z
_TEXT	SEGMENT PARA USE32 PUBLIC 'CODE'
_TEXT	ENDS
;	COMDAT ??_C@_04LOAJBDKD@true?$AA@
CONST	SEGMENT DWORD USE32 PUBLIC 'CONST'
CONST	ENDS
;	COMDAT ??_C@_05LAPONLG@false?$AA@
CONST	SEGMENT DWORD USE32 PUBLIC 'CONST'
CONST	ENDS
;	COMDAT _wmemcpy
_TEXT	SEGMENT PARA USE32 PUBLIC 'CODE'
_TEXT	ENDS
;	COMDAT ?max_size@?$allocator@_W@std@@QBEIXZ
_TEXT	SEGMENT PARA USE32 PUBLIC 'CODE'
_TEXT	ENDS
;	COMDAT ?allocate@?$allocator@_W@std@@QAEPA_WI@Z
_TEXT	SEGMENT PARA USE32 PUBLIC 'CODE'
_TEXT	ENDS
;	COMDAT ??$_Allocate@_W@std@@YAPA_WIPA_W@Z
_TEXT	SEGMENT PARA USE32 PUBLIC 'CODE'
_TEXT	ENDS
;	COMDAT ??_C@_01GFHCPBMG@C?$AA@
CONST	SEGMENT DWORD USE32 PUBLIC 'CONST'
CONST	ENDS
;	COMDAT ?_Peek@?$istreambuf_iterator@_WU?$char_traits@_W@std@@@std@@AAE_WXZ
_TEXT	SEGMENT PARA USE32 PUBLIC 'CODE'
_TEXT	ENDS
;	COMDAT ?_Peek@?$istreambuf_iterator@DU?$char_traits@D@std@@@std@@AAEDXZ
_TEXT	SEGMENT PARA USE32 PUBLIC 'CODE'
_TEXT	ENDS
;	COMDAT ??$use_facet@V?$ctype@_W@std@@@std@@YAABV?$ctype@_W@0@ABVlocale@0@@Z
_TEXT	SEGMENT PARA USE32 PUBLIC 'CODE'
_TEXT	ENDS
;	COMDAT ??_S?$ctype@_W@std@@6B@
CONST	SEGMENT DWORD USE32 PUBLIC 'CONST'
CONST	ENDS
;	COMDAT ??_R4?$ctype@_W@std@@6B@
rdata$r	SEGMENT DWORD USE32 PUBLIC 'CONST'
rdata$r	ENDS
;	COMDAT ??_R0?AV?$ctype@_W@std@@@8
_DATA	SEGMENT DWORD USE32 PUBLIC 'DATA'
_DATA	ENDS
;	COMDAT ??_R3?$ctype@_W@std@@8
rdata$r	SEGMENT DWORD USE32 PUBLIC 'CONST'
rdata$r	ENDS
;	COMDAT ??_R2?$ctype@_W@std@@8
rdata$r	SEGMENT DWORD USE32 PUBLIC 'CONST'
rdata$r	ENDS
;	COMDAT ??_R1A@?0A@A@?$ctype@_W@std@@8
rdata$r	SEGMENT DWORD USE32 PUBLIC 'CONST'
rdata$r	ENDS
;	COMDAT ??_R1A@?0A@A@ctype_base@std@@8
rdata$r	SEGMENT DWORD USE32 PUBLIC 'CONST'
rdata$r	ENDS
;	COMDAT ??_R0?AUctype_base@std@@@8
_DATA	SEGMENT DWORD USE32 PUBLIC 'DATA'
_DATA	ENDS
;	COMDAT ??_G?$ctype@_W@std@@MAEPAXI@Z
_TEXT	SEGMENT PARA USE32 PUBLIC 'CODE'
_TEXT	ENDS
;	COMDAT ??_C@_08EPJLHIJG@bad?5cast?$AA@
CONST	SEGMENT DWORD USE32 PUBLIC 'CONST'
CONST	ENDS
;	COMDAT __TI2?AVbad_cast@@
xdata$x	SEGMENT DWORD USE32 PUBLIC 'CONST'
xdata$x	ENDS
;	COMDAT __CTA2?AVbad_cast@@
xdata$x	SEGMENT DWORD USE32 PUBLIC 'CONST'
xdata$x	ENDS
;	COMDAT __CT??_R0?AVbad_cast@@@8??0bad_cast@@QAE@ABV0@@Z12
xdata$x	SEGMENT DWORD USE32 PUBLIC 'CONST'
xdata$x	ENDS
;	COMDAT ??_R0?AVbad_cast@@@8
_DATA	SEGMENT DWORD USE32 PUBLIC 'DATA'
_DATA	ENDS
;	COMDAT __CT??_R0?AVexception@@@8??0exception@@QAE@ABV0@@Z12
xdata$x	SEGMENT DWORD USE32 PUBLIC 'CONST'
xdata$x	ENDS
;	COMDAT ??_R0?AVexception@@@8
_DATA	SEGMENT DWORD USE32 PUBLIC 'DATA'
_DATA	ENDS
;	COMDAT ??$_DebugHeapDelete@Vfacet@locale@std@@@std@@YAXPAVfacet@locale@0@@Z
_TEXT	SEGMENT PARA USE32 PUBLIC 'CODE'
_TEXT	ENDS
;	COMDAT ??$use_facet@V?$ctype@D@std@@@std@@YAABV?$ctype@D@0@ABVlocale@0@@Z
_TEXT	SEGMENT PARA USE32 PUBLIC 'CODE'
_TEXT	ENDS
;	COMDAT ??_S?$ctype@D@std@@6B@
CONST	SEGMENT DWORD USE32 PUBLIC 'CONST'
CONST	ENDS
;	COMDAT ??_R4?$ctype@D@std@@6B@
rdata$r	SEGMENT DWORD USE32 PUBLIC 'CONST'
rdata$r	ENDS
;	COMDAT ??_R0?AV?$ctype@D@std@@@8
_DATA	SEGMENT DWORD USE32 PUBLIC 'DATA'
_DATA	ENDS
;	COMDAT ??_R3?$ctype@D@std@@8
rdata$r	SEGMENT DWORD USE32 PUBLIC 'CONST'
rdata$r	ENDS
;	COMDAT ??_R2?$ctype@D@std@@8
rdata$r	SEGMENT DWORD USE32 PUBLIC 'CONST'
rdata$r	ENDS
;	COMDAT ??_R1A@?0A@A@?$ctype@D@std@@8
rdata$r	SEGMENT DWORD USE32 PUBLIC 'CONST'
rdata$r	ENDS
;	COMDAT ??_G?$ctype@D@std@@MAEPAXI@Z
_TEXT	SEGMENT PARA USE32 PUBLIC 'CODE'
_TEXT	ENDS
;	COMDAT ??_S?$numpunct@_W@std@@6B@
CONST	SEGMENT DWORD USE32 PUBLIC 'CONST'
CONST	ENDS
;	COMDAT ??_S?$numpunct@D@std@@6B@
CONST	SEGMENT DWORD USE32 PUBLIC 'CONST'
CONST	ENDS
;	COMDAT _wmemmove
_TEXT	SEGMENT PARA USE32 PUBLIC 'CODE'
_TEXT	ENDS
;	COMDAT ?deallocate@?$allocator@_W@std@@QAEXPA_WI@Z
_TEXT	SEGMENT PARA USE32 PUBLIC 'CODE'
_TEXT	ENDS
;	COMDAT ??0?$allocator@_W@std@@QAE@ABV01@@Z
_TEXT	SEGMENT PARA USE32 PUBLIC 'CODE'
_TEXT	ENDS
;	COMDAT ?IsLocked@CStringData@ATL@@QBE_NXZ
_TEXT	SEGMENT PARA USE32 PUBLIC 'CODE'
_TEXT	ENDS
;	COMDAT ??_C@_0N@ILOMLJGA@nLength?5?$DO?$DN?50?$AA@
CONST	SEGMENT DWORD USE32 PUBLIC 'CONST'
CONST	ENDS
;	COMDAT ??_C@_0CD@EEFFJEGJ@nLength?5?$DM?$DN?5GetData?$CI?$CJ?9?$DOnAllocLeng@
CONST	SEGMENT DWORD USE32 PUBLIC 'CONST'
CONST	ENDS
;	COMDAT ??_C@_0FJ@DMHPDOJC@D?3?2Program?5Files?5?$CIx86?$CJ?2Microsoft@
CONST	SEGMENT DWORD USE32 PUBLIC 'CONST'
CONST	ENDS
;	COMDAT ?AtlThrow@ATL@@YGXJ@Z
_TEXT	SEGMENT PARA USE32 PUBLIC 'CODE'
_TEXT	ENDS
;	COMDAT ??RCTraceFileAndLineInfo@ATL@@QBAXKIPBDZZ
_TEXT	SEGMENT PARA USE32 PUBLIC 'CODE'
_TEXT	ENDS
;	COMDAT ?TraceV@CTrace@ATL@@QBAXPBDHKI0PAD@Z
_TEXT	SEGMENT PARA USE32 PUBLIC 'CODE'
_TEXT	ENDS
;	COMDAT ??0CTraceFileAndLineInfo@ATL@@QAE@PBDH@Z
_TEXT	SEGMENT PARA USE32 PUBLIC 'CODE'
_TEXT	ENDS
;	COMDAT ??_C@_0FI@NHHJANPC@D?3?2Program?5Files?5?$CIx86?$CJ?2Microsoft@
CONST	SEGMENT DWORD USE32 PUBLIC 'CONST'
CONST	ENDS
;	COMDAT ??_C@_0BF@IAAKIJDJ@AtlThrow?3?5hr?5?$DN?50x?$CFx?6?$AA@
CONST	SEGMENT DWORD USE32 PUBLIC 'CONST'
CONST	ENDS
;	COMDAT ??BCTraceCategory@ATL@@QBEKXZ
_TEXT	SEGMENT PARA USE32 PUBLIC 'CODE'
_TEXT	ENDS
;	COMDAT ?IsShared@CStringData@ATL@@QBE_NXZ
_TEXT	SEGMENT PARA USE32 PUBLIC 'CODE'
_TEXT	ENDS
;	COMDAT ?data@CStringData@ATL@@QAEPAXXZ
_TEXT	SEGMENT PARA USE32 PUBLIC 'CODE'
_TEXT	ENDS
;	COMDAT ??_C@_0CB@GFHAPKDK@pOldData?9?$DOnAllocLength?5?$DM?5nLength@
CONST	SEGMENT DWORD USE32 PUBLIC 'CONST'
CONST	ENDS
;	COMDAT ??_C@_0BA@GNIEOBOF@nNewLength?5?$DO?$DN?50?$AA@
CONST	SEGMENT DWORD USE32 PUBLIC 'CONST'
CONST	ENDS
;	COMDAT ?AddRef@CStringData@ATL@@QAEXXZ
_TEXT	SEGMENT PARA USE32 PUBLIC 'CODE'
_TEXT	ENDS
;	COMDAT ??_C@_09EEBKLCFA@nRefs?5?$DO?50?$AA@
CONST	SEGMENT DWORD USE32 PUBLIC 'CONST'
CONST	ENDS
;	COMDAT ?Release@CStringData@ATL@@QAEXXZ
_TEXT	SEGMENT PARA USE32 PUBLIC 'CODE'
_TEXT	ENDS
;	COMDAT ??_C@_0L@OIIMFBNE@nRefs?5?$CB?$DN?50?$AA@
CONST	SEGMENT DWORD USE32 PUBLIC 'CONST'
CONST	ENDS
;	COMDAT ?DrawArc@Graphics@Gdiplus@@QAE?AW4Status@2@PBVPen@2@ABVRectF@2@MM@Z
_TEXT	SEGMENT PARA USE32 PUBLIC 'CODE'
_TEXT	ENDS
;	COMDAT ?DrawArc@Graphics@Gdiplus@@QAE?AW4Status@2@PBVPen@2@MMMMMM@Z
_TEXT	SEGMENT PARA USE32 PUBLIC 'CODE'
_TEXT	ENDS
;	COMDAT ?SetStatus@Graphics@Gdiplus@@IBE?AW4Status@2@W432@@Z
_TEXT	SEGMENT PARA USE32 PUBLIC 'CODE'
_TEXT	ENDS
;	COMDAT ??0Color@Gdiplus@@QAE@K@Z
_TEXT	SEGMENT PARA USE32 PUBLIC 'CODE'
_TEXT	ENDS
;	COMDAT ?Inflate@RectF@Gdiplus@@QAEXMM@Z
_TEXT	SEGMENT PARA USE32 PUBLIC 'CODE'
_TEXT	ENDS
;	COMDAT ?FillRectangle@Graphics@Gdiplus@@QAE?AW4Status@2@PBVBrush@2@ABVRectF@2@@Z
_TEXT	SEGMENT PARA USE32 PUBLIC 'CODE'
_TEXT	ENDS
;	COMDAT ?FillRectangle@Graphics@Gdiplus@@QAE?AW4Status@2@PBVBrush@2@MMMM@Z
_TEXT	SEGMENT PARA USE32 PUBLIC 'CODE'
_TEXT	ENDS
;	COMDAT ??1LinearGradientBrush@Gdiplus@@UAE@XZ
_TEXT	SEGMENT PARA USE32 PUBLIC 'CODE'
_TEXT	ENDS
;	COMDAT ??1Brush@Gdiplus@@UAE@XZ
_TEXT	SEGMENT PARA USE32 PUBLIC 'CODE'
_TEXT	ENDS
;	COMDAT ??_7Brush@Gdiplus@@6B@
CONST	SEGMENT DWORD USE32 PUBLIC 'CONST'
CONST	ENDS
;	COMDAT ??_R4Brush@Gdiplus@@6B@
rdata$r	SEGMENT DWORD USE32 PUBLIC 'CONST'
rdata$r	ENDS
;	COMDAT ??_R0?AVBrush@Gdiplus@@@8
_DATA	SEGMENT DWORD USE32 PUBLIC 'DATA'
_DATA	ENDS
;	COMDAT ??_R3Brush@Gdiplus@@8
rdata$r	SEGMENT DWORD USE32 PUBLIC 'CONST'
rdata$r	ENDS
;	COMDAT ??_R2Brush@Gdiplus@@8
rdata$r	SEGMENT DWORD USE32 PUBLIC 'CONST'
rdata$r	ENDS
;	COMDAT ??_R1A@?0A@A@Brush@Gdiplus@@8
rdata$r	SEGMENT DWORD USE32 PUBLIC 'CONST'
rdata$r	ENDS
;	COMDAT ??_R13?0A@A@GdiplusBase@Gdiplus@@8
rdata$r	SEGMENT DWORD USE32 PUBLIC 'CONST'
rdata$r	ENDS
;	COMDAT ??_R0?AVGdiplusBase@Gdiplus@@@8
_DATA	SEGMENT DWORD USE32 PUBLIC 'DATA'
_DATA	ENDS
;	COMDAT ??_GBrush@Gdiplus@@UAEPAXI@Z
_TEXT	SEGMENT PARA USE32 PUBLIC 'CODE'
_TEXT	ENDS
;	COMDAT ?Clone@Brush@Gdiplus@@UBEPAV12@XZ
_TEXT	SEGMENT PARA USE32 PUBLIC 'CODE'
_TEXT	ENDS
;	COMDAT ?SetStatus@Brush@Gdiplus@@IBE?AW4Status@2@W432@@Z
_TEXT	SEGMENT PARA USE32 PUBLIC 'CODE'
_TEXT	ENDS
;	COMDAT ??0Brush@Gdiplus@@IAE@PAVGpBrush@1@W4Status@1@@Z
_TEXT	SEGMENT PARA USE32 PUBLIC 'CODE'
_TEXT	ENDS
;	COMDAT ?SetNativeBrush@Brush@Gdiplus@@IAEXPAVGpBrush@2@@Z
_TEXT	SEGMENT PARA USE32 PUBLIC 'CODE'
_TEXT	ENDS
;	COMDAT ??0LinearGradientBrush@Gdiplus@@QAE@ABVRectF@1@ABVColor@1@1W4LinearGradientMode@1@@Z
_TEXT	SEGMENT PARA USE32 PUBLIC 'CODE'
_TEXT	ENDS
;	COMDAT ??0Brush@Gdiplus@@IAE@XZ
_TEXT	SEGMENT PARA USE32 PUBLIC 'CODE'
_TEXT	ENDS
;	COMDAT ??_7LinearGradientBrush@Gdiplus@@6B@
CONST	SEGMENT DWORD USE32 PUBLIC 'CONST'
CONST	ENDS
;	COMDAT ??_R4LinearGradientBrush@Gdiplus@@6B@
rdata$r	SEGMENT DWORD USE32 PUBLIC 'CONST'
rdata$r	ENDS
;	COMDAT ??_R0?AVLinearGradientBrush@Gdiplus@@@8
_DATA	SEGMENT DWORD USE32 PUBLIC 'DATA'
_DATA	ENDS
;	COMDAT ??_R3LinearGradientBrush@Gdiplus@@8
rdata$r	SEGMENT DWORD USE32 PUBLIC 'CONST'
rdata$r	ENDS
;	COMDAT ??_R2LinearGradientBrush@Gdiplus@@8
rdata$r	SEGMENT DWORD USE32 PUBLIC 'CONST'
rdata$r	ENDS
;	COMDAT ??_R1A@?0A@A@LinearGradientBrush@Gdiplus@@8
rdata$r	SEGMENT DWORD USE32 PUBLIC 'CONST'
rdata$r	ENDS
;	COMDAT ??_GLinearGradientBrush@Gdiplus@@UAEPAXI@Z
_TEXT	SEGMENT PARA USE32 PUBLIC 'CODE'
_TEXT	ENDS
;	COMDAT ?GetValue@Color@Gdiplus@@QBEKXZ
_TEXT	SEGMENT PARA USE32 PUBLIC 'CODE'
_TEXT	ENDS
;	COMDAT ?SetColor@Pen@Gdiplus@@QAE?AW4Status@2@ABVColor@2@@Z
_TEXT	SEGMENT PARA USE32 PUBLIC 'CODE'
_TEXT	ENDS
;	COMDAT ?SetStatus@Pen@Gdiplus@@IBE?AW4Status@2@W432@@Z
_TEXT	SEGMENT PARA USE32 PUBLIC 'CODE'
_TEXT	ENDS
;	COMDAT ?GetA@Color@Gdiplus@@QBEEXZ
_TEXT	SEGMENT PARA USE32 PUBLIC 'CODE'
_TEXT	ENDS
;	COMDAT ?GetAlpha@Color@Gdiplus@@QBEEXZ
_TEXT	SEGMENT PARA USE32 PUBLIC 'CODE'
_TEXT	ENDS
;	COMDAT ?GetR@Color@Gdiplus@@QBEEXZ
_TEXT	SEGMENT PARA USE32 PUBLIC 'CODE'
_TEXT	ENDS
;	COMDAT ?GetRed@Color@Gdiplus@@QBEEXZ
_TEXT	SEGMENT PARA USE32 PUBLIC 'CODE'
_TEXT	ENDS
;	COMDAT ?GetG@Color@Gdiplus@@QBEEXZ
_TEXT	SEGMENT PARA USE32 PUBLIC 'CODE'
_TEXT	ENDS
;	COMDAT ?GetGreen@Color@Gdiplus@@QBEEXZ
_TEXT	SEGMENT PARA USE32 PUBLIC 'CODE'
_TEXT	ENDS
;	COMDAT ?GetB@Color@Gdiplus@@QBEEXZ
_TEXT	SEGMENT PARA USE32 PUBLIC 'CODE'
_TEXT	ENDS
;	COMDAT ?GetBlue@Color@Gdiplus@@QBEEXZ
_TEXT	SEGMENT PARA USE32 PUBLIC 'CODE'
_TEXT	ENDS
;	COMDAT ?GetColor@Pen@Gdiplus@@QBE?AW4Status@2@PAVColor@2@@Z
_TEXT	SEGMENT PARA USE32 PUBLIC 'CODE'
_TEXT	ENDS
;	COMDAT ?GetPenType@Pen@Gdiplus@@QBE?AW4PenType@2@XZ
_TEXT	SEGMENT PARA USE32 PUBLIC 'CODE'
_TEXT	ENDS
;	COMDAT ?DrawLine@Graphics@Gdiplus@@QAE?AW4Status@2@PBVPen@2@HHHH@Z
_TEXT	SEGMENT PARA USE32 PUBLIC 'CODE'
_TEXT	ENDS
;	COMDAT ??1Pen@Gdiplus@@QAE@XZ
_TEXT	SEGMENT PARA USE32 PUBLIC 'CODE'
_TEXT	ENDS
;	COMDAT ??0Pen@Gdiplus@@QAE@ABVColor@1@M@Z
_TEXT	SEGMENT PARA USE32 PUBLIC 'CODE'
_TEXT	ENDS
;	COMDAT ?SetColorMatrix@ImageAttributes@Gdiplus@@QAE?AW4Status@2@PBUColorMatrix@2@W4ColorMatrixFlags@2@W4ColorAdjustType@2@@Z
_TEXT	SEGMENT PARA USE32 PUBLIC 'CODE'
_TEXT	ENDS
;	COMDAT ?SetStatus@ImageAttributes@Gdiplus@@IBE?AW4Status@2@W432@@Z
_TEXT	SEGMENT PARA USE32 PUBLIC 'CODE'
_TEXT	ENDS
;	COMDAT ??1ImageAttributes@Gdiplus@@QAE@XZ
_TEXT	SEGMENT PARA USE32 PUBLIC 'CODE'
_TEXT	ENDS
;	COMDAT ??0ImageAttributes@Gdiplus@@QAE@XZ
_TEXT	SEGMENT PARA USE32 PUBLIC 'CODE'
_TEXT	ENDS
;	COMDAT ?DrawImage@Graphics@Gdiplus@@QAE?AW4Status@2@PAVImage@2@ABVRectF@2@@Z
_TEXT	SEGMENT PARA USE32 PUBLIC 'CODE'
_TEXT	ENDS
;	COMDAT ?DrawImage@Graphics@Gdiplus@@QAE?AW4Status@2@PAVImage@2@MMMM@Z
_TEXT	SEGMENT PARA USE32 PUBLIC 'CODE'
_TEXT	ENDS
;	COMDAT ?GetWidth@Image@Gdiplus@@QAEIXZ
_TEXT	SEGMENT PARA USE32 PUBLIC 'CODE'
_TEXT	ENDS
;	COMDAT ?SetStatus@Image@Gdiplus@@IBE?AW4Status@2@W432@@Z
_TEXT	SEGMENT PARA USE32 PUBLIC 'CODE'
_TEXT	ENDS
;	COMDAT ?GetHeight@Image@Gdiplus@@QAEIXZ
_TEXT	SEGMENT PARA USE32 PUBLIC 'CODE'
_TEXT	ENDS
;	COMDAT ?DrawImage@Graphics@Gdiplus@@QAE?AW4Status@2@PAVImage@2@ABVRectF@2@MMMMW4Unit@2@PBVImageAttributes@2@P6GHPAX@Z4@Z
_TEXT	SEGMENT PARA USE32 PUBLIC 'CODE'
_TEXT	ENDS
;	COMDAT ??1SolidBrush@Gdiplus@@UAE@XZ
_TEXT	SEGMENT PARA USE32 PUBLIC 'CODE'
_TEXT	ENDS
;	COMDAT ??0Color@Gdiplus@@QAE@EEEE@Z
_TEXT	SEGMENT PARA USE32 PUBLIC 'CODE'
_TEXT	ENDS
;	COMDAT ??0SolidBrush@Gdiplus@@QAE@ABVColor@1@@Z
_TEXT	SEGMENT PARA USE32 PUBLIC 'CODE'
_TEXT	ENDS
;	COMDAT ??_7SolidBrush@Gdiplus@@6B@
CONST	SEGMENT DWORD USE32 PUBLIC 'CONST'
CONST	ENDS
;	COMDAT ??_R4SolidBrush@Gdiplus@@6B@
rdata$r	SEGMENT DWORD USE32 PUBLIC 'CONST'
rdata$r	ENDS
;	COMDAT ??_R0?AVSolidBrush@Gdiplus@@@8
_DATA	SEGMENT DWORD USE32 PUBLIC 'DATA'
_DATA	ENDS
;	COMDAT ??_R3SolidBrush@Gdiplus@@8
rdata$r	SEGMENT DWORD USE32 PUBLIC 'CONST'
rdata$r	ENDS
;	COMDAT ??_R2SolidBrush@Gdiplus@@8
rdata$r	SEGMENT DWORD USE32 PUBLIC 'CONST'
rdata$r	ENDS
;	COMDAT ??_R1A@?0A@A@SolidBrush@Gdiplus@@8
rdata$r	SEGMENT DWORD USE32 PUBLIC 'CONST'
rdata$r	ENDS
;	COMDAT ??_GSolidBrush@Gdiplus@@UAEPAXI@Z
_TEXT	SEGMENT PARA USE32 PUBLIC 'CODE'
_TEXT	ENDS
;	COMDAT ?DrawString@Graphics@Gdiplus@@QAE?AW4Status@2@PB_WHPBVFont@2@ABVRectF@2@PBVStringFormat@2@PBVBrush@2@@Z
_TEXT	SEGMENT PARA USE32 PUBLIC 'CODE'
_TEXT	ENDS
;	COMDAT ??0RectF@Gdiplus@@QAE@XZ
_TEXT	SEGMENT PARA USE32 PUBLIC 'CODE'
_TEXT	ENDS
;	COMDAT ?SetAlignment@StringFormat@Gdiplus@@QAE?AW4Status@2@W4StringAlignment@2@@Z
_TEXT	SEGMENT PARA USE32 PUBLIC 'CODE'
_TEXT	ENDS
;	COMDAT ?SetStatus@StringFormat@Gdiplus@@IBE?AW4Status@2@W432@@Z
_TEXT	SEGMENT PARA USE32 PUBLIC 'CODE'
_TEXT	ENDS
;	COMDAT ??1StringFormat@Gdiplus@@QAE@XZ
_TEXT	SEGMENT PARA USE32 PUBLIC 'CODE'
_TEXT	ENDS
;	COMDAT ??0StringFormat@Gdiplus@@QAE@HG@Z
_TEXT	SEGMENT PARA USE32 PUBLIC 'CODE'
_TEXT	ENDS
;	COMDAT ??0RectF@Gdiplus@@QAE@MMMM@Z
_TEXT	SEGMENT PARA USE32 PUBLIC 'CODE'
_TEXT	ENDS
;	COMDAT ?FromImage@Graphics@Gdiplus@@SAPAV12@PAVImage@2@@Z
_TEXT	SEGMENT PARA USE32 PUBLIC 'CODE'
_TEXT	ENDS
;	COMDAT ??0Graphics@Gdiplus@@QAE@PAVImage@1@@Z
_TEXT	SEGMENT PARA USE32 PUBLIC 'CODE'
_TEXT	ENDS
;	COMDAT ?SetNativeGraphics@Graphics@Gdiplus@@IAEXPAVGpGraphics@2@@Z
_TEXT	SEGMENT PARA USE32 PUBLIC 'CODE'
_TEXT	ENDS
;	COMDAT ??1Bitmap@Gdiplus@@UAE@XZ
_TEXT	SEGMENT PARA USE32 PUBLIC 'CODE'
_TEXT	ENDS
;	COMDAT ??1Image@Gdiplus@@UAE@XZ
_TEXT	SEGMENT PARA USE32 PUBLIC 'CODE'
_TEXT	ENDS
;	COMDAT ??_7Image@Gdiplus@@6B@
CONST	SEGMENT DWORD USE32 PUBLIC 'CONST'
CONST	ENDS
;	COMDAT ??_R4Image@Gdiplus@@6B@
rdata$r	SEGMENT DWORD USE32 PUBLIC 'CONST'
rdata$r	ENDS
;	COMDAT ??_R0?AVImage@Gdiplus@@@8
_DATA	SEGMENT DWORD USE32 PUBLIC 'DATA'
_DATA	ENDS
;	COMDAT ??_R3Image@Gdiplus@@8
rdata$r	SEGMENT DWORD USE32 PUBLIC 'CONST'
rdata$r	ENDS
;	COMDAT ??_R2Image@Gdiplus@@8
rdata$r	SEGMENT DWORD USE32 PUBLIC 'CONST'
rdata$r	ENDS
;	COMDAT ??_R1A@?0A@A@Image@Gdiplus@@8
rdata$r	SEGMENT DWORD USE32 PUBLIC 'CONST'
rdata$r	ENDS
;	COMDAT ??_GImage@Gdiplus@@UAEPAXI@Z
_TEXT	SEGMENT PARA USE32 PUBLIC 'CODE'
_TEXT	ENDS
;	COMDAT ?Clone@Image@Gdiplus@@UAEPAV12@XZ
_TEXT	SEGMENT PARA USE32 PUBLIC 'CODE'
_TEXT	ENDS
;	COMDAT ??0Image@Gdiplus@@IAE@PAVGpImage@1@W4Status@1@@Z
_TEXT	SEGMENT PARA USE32 PUBLIC 'CODE'
_TEXT	ENDS
;	COMDAT ?SetNativeImage@Image@Gdiplus@@IAEXPAVGpImage@2@@Z
_TEXT	SEGMENT PARA USE32 PUBLIC 'CODE'
_TEXT	ENDS
;	COMDAT ??0Bitmap@Gdiplus@@QAE@HHPAVGraphics@1@@Z
_TEXT	SEGMENT PARA USE32 PUBLIC 'CODE'
_TEXT	ENDS
;	COMDAT ??0Image@Gdiplus@@IAE@XZ
_TEXT	SEGMENT PARA USE32 PUBLIC 'CODE'
_TEXT	ENDS
;	COMDAT ??_7Bitmap@Gdiplus@@6B@
CONST	SEGMENT DWORD USE32 PUBLIC 'CONST'
CONST	ENDS
;	COMDAT ??_R4Bitmap@Gdiplus@@6B@
rdata$r	SEGMENT DWORD USE32 PUBLIC 'CONST'
rdata$r	ENDS
;	COMDAT ??_R0?AVBitmap@Gdiplus@@@8
_DATA	SEGMENT DWORD USE32 PUBLIC 'DATA'
_DATA	ENDS
;	COMDAT ??_R3Bitmap@Gdiplus@@8
rdata$r	SEGMENT DWORD USE32 PUBLIC 'CONST'
rdata$r	ENDS
;	COMDAT ??_R2Bitmap@Gdiplus@@8
rdata$r	SEGMENT DWORD USE32 PUBLIC 'CONST'
rdata$r	ENDS
;	COMDAT ??_R1A@?0A@A@Bitmap@Gdiplus@@8
rdata$r	SEGMENT DWORD USE32 PUBLIC 'CONST'
rdata$r	ENDS
;	COMDAT ??_GBitmap@Gdiplus@@UAEPAXI@Z
_TEXT	SEGMENT PARA USE32 PUBLIC 'CODE'
_TEXT	ENDS
;	COMDAT ??1Graphics@Gdiplus@@QAE@XZ
_TEXT	SEGMENT PARA USE32 PUBLIC 'CODE'
_TEXT	ENDS
;	COMDAT ??CCMemDC@@QAEPAV0@XZ
_TEXT	SEGMENT PARA USE32 PUBLIC 'CODE'
_TEXT	ENDS
;	COMDAT ??0Graphics@Gdiplus@@QAE@PAUHDC__@@@Z
_TEXT	SEGMENT PARA USE32 PUBLIC 'CODE'
_TEXT	ENDS
;	COMDAT ??1CMemDC@@UAE@XZ
_TEXT	SEGMENT PARA USE32 PUBLIC 'CODE'
_TEXT	ENDS
;	COMDAT ??_7CMemDC@@6B@
CONST	SEGMENT DWORD USE32 PUBLIC 'CONST'
CONST	ENDS
;	COMDAT ??_R4CMemDC@@6B@
rdata$r	SEGMENT DWORD USE32 PUBLIC 'CONST'
rdata$r	ENDS
;	COMDAT ??_R0?AVCMemDC@@@8
_DATA	SEGMENT DWORD USE32 PUBLIC 'DATA'
_DATA	ENDS
;	COMDAT ??_R3CMemDC@@8
rdata$r	SEGMENT DWORD USE32 PUBLIC 'CONST'
rdata$r	ENDS
;	COMDAT ??_R2CMemDC@@8
rdata$r	SEGMENT DWORD USE32 PUBLIC 'CONST'
rdata$r	ENDS
;	COMDAT ??_R1A@?0A@A@CMemDC@@8
rdata$r	SEGMENT DWORD USE32 PUBLIC 'CONST'
rdata$r	ENDS
;	COMDAT ??_R1A@?0A@A@CDC@@8
rdata$r	SEGMENT DWORD USE32 PUBLIC 'CONST'
rdata$r	ENDS
;	COMDAT ??_R0?AVCDC@@@8
_DATA	SEGMENT DWORD USE32 PUBLIC 'DATA'
_DATA	ENDS
;	COMDAT ??_GCMemDC@@UAEPAXI@Z
_TEXT	SEGMENT PARA USE32 PUBLIC 'CODE'
_TEXT	ENDS
;	COMDAT ??0CMemDC@@QAE@PAVCDC@@ABVCRect@@@Z
_TEXT	SEGMENT PARA USE32 PUBLIC 'CODE'
_TEXT	ENDS
;	COMDAT ?_messageEntries@CSkinButton2@@0QBUAFX_MSGMAP_ENTRY@@B
CONST	SEGMENT DWORD USE32 PUBLIC 'CONST'
CONST	ENDS
;	COMDAT ?messageMap@CSkinButton2@@1UAFX_MSGMAP@@B
CONST	SEGMENT DWORD USE32 PUBLIC 'CONST'
CONST	ENDS
;	COMDAT ??1Font@Gdiplus@@QAE@XZ
_TEXT	SEGMENT PARA USE32 PUBLIC 'CODE'
_TEXT	ENDS
;	COMDAT ??0Font@Gdiplus@@QAE@PBVFontFamily@1@MHW4Unit@1@@Z
_TEXT	SEGMENT PARA USE32 PUBLIC 'CODE'
_TEXT	ENDS
;	COMDAT ?SetNativeFont@Font@Gdiplus@@IAEXPAVGpFont@2@@Z
_TEXT	SEGMENT PARA USE32 PUBLIC 'CODE'
_TEXT	ENDS
;	COMDAT ??3GdiplusBase@Gdiplus@@SAXPAX@Z
_TEXT	SEGMENT PARA USE32 PUBLIC 'CODE'
_TEXT	ENDS
;	COMDAT ??2GdiplusBase@Gdiplus@@SAPAXI@Z
_TEXT	SEGMENT PARA USE32 PUBLIC 'CODE'
_TEXT	ENDS
;	COMDAT ??1FontFamily@Gdiplus@@QAE@XZ
_TEXT	SEGMENT PARA USE32 PUBLIC 'CODE'
_TEXT	ENDS
;	COMDAT ??0FontFamily@Gdiplus@@QAE@PB_WPBVFontCollection@1@@Z
_TEXT	SEGMENT PARA USE32 PUBLIC 'CODE'
_TEXT	ENDS
;	COMDAT ?MakeARGB@Color@Gdiplus@@SAKEEEE@Z
_TEXT	SEGMENT PARA USE32 PUBLIC 'CODE'
_TEXT	ENDS
;	COMDAT ?SetValue@Color@Gdiplus@@QAEXK@Z
_TEXT	SEGMENT PARA USE32 PUBLIC 'CODE'
_TEXT	ENDS
;	COMDAT ??0Color@Gdiplus@@QAE@XZ
_TEXT	SEGMENT PARA USE32 PUBLIC 'CODE'
_TEXT	ENDS
;	COMDAT ??_C@_0BA@GOIMFHNK@pStringMgr?5?$CB?$DN?50?$AA@
CONST	SEGMENT DWORD USE32 PUBLIC 'CONST'
CONST	ENDS
;	COMDAT ?GetDefaultManager@?$StrTraitMFC_DLL@DV?$ChTraitsCRT@D@ATL@@@@SAPAUIAtlStringMgr@ATL@@XZ
_TEXT	SEGMENT PARA USE32 PUBLIC 'CODE'
_TEXT	ENDS
;	COMDAT ??_7CSkinButton2@@6B@
CONST	SEGMENT DWORD USE32 PUBLIC 'CONST'
CONST	ENDS
;	COMDAT ?classCSkinButton2@CSkinButton2@@2UCRuntimeClass@@B
CONST	SEGMENT DWORD USE32 PUBLIC 'CONST'
CONST	ENDS
;	COMDAT ?GetLastStatus@Image@Gdiplus@@QBE?AW4Status@2@XZ
_TEXT	SEGMENT PARA USE32 PUBLIC 'CODE'
_TEXT	ENDS
;	COMDAT ?FromFile@Bitmap@Gdiplus@@SAPAV12@PB_WH@Z
_TEXT	SEGMENT PARA USE32 PUBLIC 'CODE'
_TEXT	ENDS
;	COMDAT ??0Bitmap@Gdiplus@@QAE@PB_WH@Z
_TEXT	SEGMENT PARA USE32 PUBLIC 'CODE'
_TEXT	ENDS
;	COMDAT ??_7CGdiPlusBitmap@@6B@
CONST	SEGMENT DWORD USE32 PUBLIC 'CONST'
CONST	ENDS
sxdata	SEGMENT DWORD USE32 'SXDATA'
sxdata	ENDS
FLAT	GROUP _DATA, CONST, _BSS
	ASSUME	CS: FLAT, DS: FLAT, SS: FLAT
endif

INCLUDELIB MSVCRTD
INCLUDELIB OLDNAMES

PUBLIC	?classCSkinButton2@CSkinButton2@@2UCRuntimeClass@@B ; CSkinButton2::classCSkinButton2
PUBLIC	?_messageEntries@CSkinButton2@@0QBUAFX_MSGMAP_ENTRY@@B ; CSkinButton2::_messageEntries
PUBLIC	?messageMap@CSkinButton2@@1UAFX_MSGMAP@@B	; CSkinButton2::messageMap
PUBLIC	?OnCreate@CSkinButton2@@QAEHPAUtagCREATESTRUCTA@@@Z ; CSkinButton2::OnCreate
PUBLIC	?OnEraseBkgnd@CSkinButton2@@QAEHPAVCDC@@@Z	; CSkinButton2::OnEraseBkgnd
PUBLIC	?OnMouseMove@CSkinButton2@@QAEXIVCPoint@@@Z	; CSkinButton2::OnMouseMove
PUBLIC	?OnMouseLeave@CSkinButton2@@QAEJIJ@Z		; CSkinButton2::OnMouseLeave
PUBLIC	?OnMouseHover@CSkinButton2@@QAEJIJ@Z		; CSkinButton2::OnMouseHover
PUBLIC	?OnLButtonDown@CSkinButton2@@QAEXIVCPoint@@@Z	; CSkinButton2::OnLButtonDown
PUBLIC	?OnLButtonUp@CSkinButton2@@QAEXIVCPoint@@@Z	; CSkinButton2::OnLButtonUp
EXTRN	?GetThisMessageMap@CWnd@@KGPBUAFX_MSGMAP@@XZ:NEAR ; CWnd::GetThisMessageMap
EXTRN	?GetThisClass@CButton@@SGPAUCRuntimeClass@@XZ:NEAR ; CButton::GetThisClass
CONST	SEGMENT
$SG187192 DB	'CSkinButton2', 00H
CONST	ENDS
;	COMDAT ?classCSkinButton2@CSkinButton2@@2UCRuntimeClass@@B
CONST	SEGMENT
?classCSkinButton2@CSkinButton2@@2UCRuntimeClass@@B DD FLAT:$SG187192 ; CSkinButton2::classCSkinButton2
	DD	0188H
	DD	0ffffH
	DD	00H
	DD	FLAT:?GetThisClass@CButton@@SGPAUCRuntimeClass@@XZ
	DD	00H
	DD	00H
CONST	ENDS
CONST	SEGMENT
	ORG $+3
$SG187209 DB	08bH, '[SO', 00H, 00H
CONST	ENDS
;	COMDAT ?_messageEntries@CSkinButton2@@0QBUAFX_MSGMAP_ENTRY@@B
CONST	SEGMENT
?_messageEntries@CSkinButton2@@0QBUAFX_MSGMAP_ENTRY@@B DD 01H ; CSkinButton2::_messageEntries
	DD	00H
	DD	00H
	DD	00H
	DD	0dH
	DD	FLAT:?OnCreate@CSkinButton2@@QAEHPAUtagCREATESTRUCTA@@@Z
	DD	014H
	DD	00H
	DD	00H
	DD	00H
	DD	01H
	DD	FLAT:?OnEraseBkgnd@CSkinButton2@@QAEHPAVCDC@@@Z
	DD	0200H
	DD	00H
	DD	00H
	DD	00H
	DD	032H
	DD	FLAT:?OnMouseMove@CSkinButton2@@QAEXIVCPoint@@@Z
	DD	02a3H
	DD	00H
	DD	00H
	DD	00H
	DD	0eH
	DD	FLAT:?OnMouseLeave@CSkinButton2@@QAEJIJ@Z
	DD	02a1H
	DD	00H
	DD	00H
	DD	00H
	DD	0eH
	DD	FLAT:?OnMouseHover@CSkinButton2@@QAEJIJ@Z
	DD	0201H
	DD	00H
	DD	00H
	DD	00H
	DD	032H
	DD	FLAT:?OnLButtonDown@CSkinButton2@@QAEXIVCPoint@@@Z
	DD	0202H
	DD	00H
	DD	00H
	DD	00H
	DD	032H
	DD	FLAT:?OnLButtonUp@CSkinButton2@@QAEXIVCPoint@@@Z
	DD	00H
	DD	00H
	DD	00H
	DD	00H
	DD	00H
	DD	00H
CONST	ENDS
;	COMDAT ?messageMap@CSkinButton2@@1UAFX_MSGMAP@@B
CONST	SEGMENT
?messageMap@CSkinButton2@@1UAFX_MSGMAP@@B DD FLAT:?GetThisMessageMap@CWnd@@KGPBUAFX_MSGMAP@@XZ ; CSkinButton2::messageMap
	DD	FLAT:?_messageEntries@CSkinButton2@@0QBUAFX_MSGMAP_ENTRY@@B
CONST	ENDS
PUBLIC	?GetThisClass@CSkinButton2@@SGPAUCRuntimeClass@@XZ ; CSkinButton2::GetThisClass
EXTRN	__RTC_InitBase:NEAR
EXTRN	__RTC_Shutdown:NEAR
;	COMDAT rtc$IMZ
; File d:\boxgit\playbox\playbox\dev\prj\playbox\src\gui\commoncontrol\skinbutton2.cpp
rtc$IMZ	SEGMENT
__RTC_InitBase.rtc$IMZ DD FLAT:__RTC_InitBase
rtc$IMZ	ENDS
;	COMDAT rtc$TMZ
rtc$TMZ	SEGMENT
__RTC_Shutdown.rtc$TMZ DD FLAT:__RTC_Shutdown
; Function compile flags: /Odt /RTCsu
rtc$TMZ	ENDS
_TEXT	SEGMENT
?GetThisClass@CSkinButton2@@SGPAUCRuntimeClass@@XZ PROC NEAR ; CSkinButton2::GetThisClass

; 6    : IMPLEMENT_DYNAMIC(CSkinButton2, CButton)

  00000	55		 push	 ebp
  00001	8b ec		 mov	 ebp, esp
  00003	b8 00 00 00 00	 mov	 eax, OFFSET FLAT:?classCSkinButton2@CSkinButton2@@2UCRuntimeClass@@B ; CSkinButton2::classCSkinButton2
  00008	5d		 pop	 ebp
  00009	c3		 ret	 0
?GetThisClass@CSkinButton2@@SGPAUCRuntimeClass@@XZ ENDP	; CSkinButton2::GetThisClass
_TEXT	ENDS
PUBLIC	?GetRuntimeClass@CSkinButton2@@UBEPAUCRuntimeClass@@XZ ; CSkinButton2::GetRuntimeClass
; Function compile flags: /Odt /RTCsu
_TEXT	SEGMENT
_this$ = -4						; size = 4
?GetRuntimeClass@CSkinButton2@@UBEPAUCRuntimeClass@@XZ PROC NEAR ; CSkinButton2::GetRuntimeClass
; _this$ = ecx

; 6    : IMPLEMENT_DYNAMIC(CSkinButton2, CButton)

  00010	55		 push	 ebp
  00011	8b ec		 mov	 ebp, esp
  00013	51		 push	 ecx
  00014	c7 45 fc cc cc
	cc cc		 mov	 DWORD PTR [ebp-4], -858993460 ; ccccccccH
  0001b	89 4d fc	 mov	 DWORD PTR _this$[ebp], ecx
  0001e	b8 00 00 00 00	 mov	 eax, OFFSET FLAT:?classCSkinButton2@CSkinButton2@@2UCRuntimeClass@@B ; CSkinButton2::classCSkinButton2
  00023	8b e5		 mov	 esp, ebp
  00025	5d		 pop	 ebp
  00026	c3		 ret	 0
?GetRuntimeClass@CSkinButton2@@UBEPAUCRuntimeClass@@XZ ENDP ; CSkinButton2::GetRuntimeClass
_TEXT	ENDS
PUBLIC	??_R1A@?0A@A@CWnd@@8				; CWnd::`RTTI Base Class Descriptor at (0,-1,0,0)'
PUBLIC	??_R4CSkinButton2@@6B@				; CSkinButton2::`RTTI Complete Object Locator'
PUBLIC	??_R0?AVCWnd@@@8				; CWnd `RTTI Type Descriptor'
PUBLIC	??_R0?AVCSkinButton2@@@8			; CSkinButton2 `RTTI Type Descriptor'
PUBLIC	??_R1A@?0A@A@CCmdTarget@@8			; CCmdTarget::`RTTI Base Class Descriptor at (0,-1,0,0)'
PUBLIC	??_R0?AVCCmdTarget@@@8				; CCmdTarget `RTTI Type Descriptor'
PUBLIC	??_R3CSkinButton2@@8				; CSkinButton2::`RTTI Class Hierarchy Descriptor'
PUBLIC	??_R1A@?0A@A@CObject@@8				; CObject::`RTTI Base Class Descriptor at (0,-1,0,0)'
PUBLIC	??_R2CSkinButton2@@8				; CSkinButton2::`RTTI Base Class Array'
PUBLIC	??_R1A@?0A@A@CSkinButton2@@8			; CSkinButton2::`RTTI Base Class Descriptor at (0,-1,0,0)'
PUBLIC	??_R0?AVCObject@@@8				; CObject `RTTI Type Descriptor'
PUBLIC	??_R1A@?0A@A@CButton@@8				; CButton::`RTTI Base Class Descriptor at (0,-1,0,0)'
PUBLIC	??_R0?AVCButton@@@8				; CButton `RTTI Type Descriptor'
PUBLIC	??3GdiplusBase@Gdiplus@@SAXPAX@Z		; Gdiplus::GdiplusBase::operator delete
PUBLIC	??2GdiplusBase@Gdiplus@@SAPAXI@Z		; Gdiplus::GdiplusBase::operator new
PUBLIC	??0FontFamily@Gdiplus@@QAE@PB_WPBVFontCollection@1@@Z ; Gdiplus::FontFamily::FontFamily
PUBLIC	??1FontFamily@Gdiplus@@QAE@XZ			; Gdiplus::FontFamily::~FontFamily
PUBLIC	??0CSkinButton2@@QAE@XZ				; CSkinButton2::CSkinButton2
PUBLIC	??0Font@Gdiplus@@QAE@PBVFontFamily@1@MHW4Unit@1@@Z ; Gdiplus::Font::Font
PUBLIC	?GetMessageMap@CSkinButton2@@MBEPBUAFX_MSGMAP@@XZ ; CSkinButton2::GetMessageMap
PUBLIC	??0Color@Gdiplus@@QAE@XZ			; Gdiplus::Color::Color
PUBLIC	?DrawItem@CSkinButton2@@UAEXPAUtagDRAWITEMSTRUCT@@@Z ; CSkinButton2::DrawItem
PUBLIC	?PreSubclassWindow@CSkinButton2@@MAEXXZ		; CSkinButton2::PreSubclassWindow
PUBLIC	?PreTranslateMessage@CSkinButton2@@UAEHPAUtagMSG@@@Z ; CSkinButton2::PreTranslateMessage
PUBLIC	?SetValue@Color@Gdiplus@@QAEXK@Z		; Gdiplus::Color::SetValue
PUBLIC	??_7CSkinButton2@@6B@				; CSkinButton2::`vftable'
PUBLIC	??_GCSkinButton2@@UAEPAXI@Z			; CSkinButton2::`scalar deleting destructor'
PUBLIC	?MakeARGB@Color@Gdiplus@@SAKEEEE@Z		; Gdiplus::Color::MakeARGB
EXTRN	?GetInterfaceMap@CWnd@@MBEPBUAFX_INTERFACEMAP@@XZ:NEAR ; CWnd::GetInterfaceMap
EXTRN	?EnsureStdObj@CWnd@@UAEJXZ:NEAR			; CWnd::EnsureStdObj
EXTRN	?get_accParent@CWnd@@UAEJPAPAUIDispatch@@@Z:NEAR ; CWnd::get_accParent
EXTRN	?OnCmdMsg@CCmdTarget@@UAEHIHPAXPAUAFX_CMDHANDLERINFO@@@Z:NEAR ; CCmdTarget::OnCmdMsg
EXTRN	?get_accChildCount@CWnd@@UAEJPAJ@Z:NEAR		; CWnd::get_accChildCount
EXTRN	?IsInvokeAllowed@CCmdTarget@@UAEHJ@Z:NEAR	; CCmdTarget::IsInvokeAllowed
EXTRN	?get_accChild@CWnd@@UAEJUtagVARIANT@@PAPAUIDispatch@@@Z:NEAR ; CWnd::get_accChild
EXTRN	?get_accName@CWnd@@UAEJUtagVARIANT@@PAPA_W@Z:NEAR ; CWnd::get_accName
EXTRN	?get_accValue@CWnd@@UAEJUtagVARIANT@@PAPA_W@Z:NEAR ; CWnd::get_accValue
EXTRN	?GetDispatchIID@CCmdTarget@@UAEHPAU_GUID@@@Z:NEAR ; CCmdTarget::GetDispatchIID
EXTRN	?GetTypeInfoCount@CCmdTarget@@UAEIXZ:NEAR	; CCmdTarget::GetTypeInfoCount
EXTRN	?GetTypeLibCache@CCmdTarget@@UAEPAVCTypeLibCache@@XZ:NEAR ; CCmdTarget::GetTypeLibCache
EXTRN	?get_accDescription@CWnd@@UAEJUtagVARIANT@@PAPA_W@Z:NEAR ; CWnd::get_accDescription
EXTRN	?GetTypeLib@CCmdTarget@@UAEJKPAPAUITypeLib@@@Z:NEAR ; CCmdTarget::GetTypeLib
EXTRN	?get_accRole@CWnd@@UAEJUtagVARIANT@@PAU2@@Z:NEAR ; CWnd::get_accRole
EXTRN	?get_accState@CWnd@@UAEJUtagVARIANT@@PAU2@@Z:NEAR ; CWnd::get_accState
EXTRN	?get_accHelp@CWnd@@UAEJUtagVARIANT@@PAPA_W@Z:NEAR ; CWnd::get_accHelp
EXTRN	?get_accHelpTopic@CWnd@@UAEJPAPA_WUtagVARIANT@@PAJ@Z:NEAR ; CWnd::get_accHelpTopic
EXTRN	?get_accKeyboardShortcut@CWnd@@UAEJUtagVARIANT@@PAPA_W@Z:NEAR ; CWnd::get_accKeyboardShortcut
EXTRN	?get_accFocus@CWnd@@UAEJPAUtagVARIANT@@@Z:NEAR	; CWnd::get_accFocus
EXTRN	?get_accSelection@CWnd@@UAEJPAUtagVARIANT@@@Z:NEAR ; CWnd::get_accSelection
EXTRN	?get_accDefaultAction@CWnd@@UAEJUtagVARIANT@@PAPA_W@Z:NEAR ; CWnd::get_accDefaultAction
EXTRN	?GetCommandMap@CCmdTarget@@MBEPBUAFX_OLECMDMAP@@XZ:NEAR ; CCmdTarget::GetCommandMap
EXTRN	?accSelect@CWnd@@UAEJJUtagVARIANT@@@Z:NEAR	; CWnd::accSelect
EXTRN	?accLocation@CWnd@@UAEJPAJ000UtagVARIANT@@@Z:NEAR ; CWnd::accLocation
EXTRN	?GetDispatchMap@CCmdTarget@@MBEPBUAFX_DISPMAP@@XZ:NEAR ; CCmdTarget::GetDispatchMap
EXTRN	?accNavigate@CWnd@@UAEJJUtagVARIANT@@PAU2@@Z:NEAR ; CWnd::accNavigate
EXTRN	?accHitTest@CWnd@@UAEJJJPAUtagVARIANT@@@Z:NEAR	; CWnd::accHitTest
EXTRN	?GetConnectionMap@CCmdTarget@@MBEPBUAFX_CONNECTIONMAP@@XZ:NEAR ; CCmdTarget::GetConnectionMap
EXTRN	?accDoDefaultAction@CWnd@@UAEJUtagVARIANT@@@Z:NEAR ; CWnd::accDoDefaultAction
EXTRN	?put_accName@CWnd@@UAEJUtagVARIANT@@PA_W@Z:NEAR	; CWnd::put_accName
EXTRN	?put_accValue@CWnd@@UAEJUtagVARIANT@@PA_W@Z:NEAR ; CWnd::put_accValue
EXTRN	?SetProxy@CWnd@@UAEJPAUIAccessibleProxy@@@Z:NEAR ; CWnd::SetProxy
EXTRN	?CreateAccessibleProxy@CWnd@@UAEJIJPAJ@Z:NEAR	; CWnd::CreateAccessibleProxy
EXTRN	?GetEventSinkMap@CCmdTarget@@MBEPBUAFX_EVENTSINKMAP@@XZ:NEAR ; CCmdTarget::GetEventSinkMap
EXTRN	?OnCreateAggregates@CCmdTarget@@UAEHXZ:NEAR	; CCmdTarget::OnCreateAggregates
EXTRN	?OnCommand@CWnd@@MAEHIJ@Z:NEAR			; CWnd::OnCommand
EXTRN	?GetInterfaceHook@CCmdTarget@@UAEPAUIUnknown@@PBX@Z:NEAR ; CCmdTarget::GetInterfaceHook
EXTRN	?OnNotify@CWnd@@MAEHIJPAJ@Z:NEAR		; CWnd::OnNotify
EXTRN	?GetExtraConnectionPoints@CCmdTarget@@MAEHPAVCPtrArray@@@Z:NEAR ; CCmdTarget::GetExtraConnectionPoints
EXTRN	?GetConnectionHook@CCmdTarget@@MAEPAUIConnectionPoint@@ABU_GUID@@@Z:NEAR ; CCmdTarget::GetConnectionHook
EXTRN	??1CDC@@UAE@XZ:NEAR				; CDC::~CDC
EXTRN	??0CRect@@QAE@XZ:NEAR				; CRect::CRect
EXTRN	?Create@CWnd@@UAEHPBD0KABUtagRECT@@PAV1@IPAUCCreateContext@@@Z:NEAR ; CWnd::Create
EXTRN	?CreateEx@CWnd@@UAEHKPBD0KHHHHPAUHWND__@@PAUHMENU__@@PAX@Z:NEAR ; CWnd::CreateEx
EXTRN	?CreateEx@CWnd@@UAEHKPBD0KABUtagRECT@@PAV1@IPAX@Z:NEAR ; CWnd::CreateEx
EXTRN	?Serialize@CObject@@UAEXAAVCArchive@@@Z:NEAR	; CObject::Serialize
EXTRN	?DestroyWindow@CWnd@@UAEHXZ:NEAR		; CWnd::DestroyWindow
EXTRN	?PreCreateWindow@CWnd@@UAEHAAUtagCREATESTRUCTA@@@Z:NEAR ; CWnd::PreCreateWindow
EXTRN	?CalcWindowRect@CWnd@@UAEXPAUtagRECT@@I@Z:NEAR	; CWnd::CalcWindowRect
EXTRN	?GetSuperWndProcAddr@CWnd@@MAEPAP6GJPAUHWND__@@IIJ@ZXZ:NEAR ; CWnd::GetSuperWndProcAddr
EXTRN	?DoDataExchange@CWnd@@MAEXPAVCDataExchange@@@Z:NEAR ; CWnd::DoDataExchange
EXTRN	?BeginModalState@CWnd@@UAEXXZ:NEAR		; CWnd::BeginModalState
EXTRN	?EndModalState@CWnd@@UAEXXZ:NEAR		; CWnd::EndModalState
EXTRN	?OnAmbientProperty@CWnd@@UAEHPAVCOleControlSite@@JPAUtagVARIANT@@@Z:NEAR ; CWnd::OnAmbientProperty
EXTRN	?WindowProc@CWnd@@MAEJIIJ@Z:NEAR		; CWnd::WindowProc
EXTRN	?OnWndMsg@CWnd@@MAEHIIJPAJ@Z:NEAR		; CWnd::OnWndMsg
EXTRN	?DefWindowProcA@CWnd@@MAEJIIJ@Z:NEAR		; CWnd::DefWindowProcA
EXTRN	?PostNcDestroy@CWnd@@MAEXXZ:NEAR		; CWnd::PostNcDestroy
EXTRN	?CheckAutoCenter@CWnd@@UAEHXZ:NEAR		; CWnd::CheckAutoCenter
EXTRN	?AssertValid@CWnd@@UBEXXZ:NEAR			; CWnd::AssertValid
EXTRN	?Dump@CWnd@@UBEXAAVCDumpContext@@@Z:NEAR	; CWnd::Dump
EXTRN	?IsFrameWnd@CWnd@@UBEHXZ:NEAR			; CWnd::IsFrameWnd
EXTRN	?OnFinalRelease@CWnd@@UAEXXZ:NEAR		; CWnd::OnFinalRelease
EXTRN	??0CDC@@QAE@XZ:NEAR				; CDC::CDC
EXTRN	?CreateControlContainer@CWnd@@MAEHPAPAVCOleControlContainer@@@Z:NEAR ; CWnd::CreateControlContainer
EXTRN	?CreateControlSite@CWnd@@MAEHPAVCOleControlContainer@@PAPAVCOleControlSite@@IABU_GUID@@@Z:NEAR ; CWnd::CreateControlSite
EXTRN	?SetOccDialogInfo@CWnd@@MAEHPAU_AFX_OCC_DIALOG_INFO@@@Z:NEAR ; CWnd::SetOccDialogInfo
EXTRN	_memcpy:NEAR
EXTRN	__imp_??0?$CStringT@DV?$StrTraitMFC_DLL@DV?$ChTraitsCRT@D@ATL@@@@@ATL@@QAE@XZ:NEAR
EXTRN	?OnToolHitTest@CWnd@@UBEHVCPoint@@PAUtagTOOLINFOA@@@Z:NEAR ; CWnd::OnToolHitTest
EXTRN	??_ECSkinButton2@@UAEPAXI@Z:NEAR		; CSkinButton2::`vector deleting destructor'
EXTRN	__imp_??1?$CStringT@DV?$StrTraitMFC_DLL@DV?$ChTraitsCRT@D@ATL@@@@@ATL@@QAE@XZ:NEAR
EXTRN	__RTC_CheckEsp:NEAR
EXTRN	__except_list:DWORD
EXTRN	@_RTC_CheckStackVars@8:NEAR
EXTRN	__fltused:NEAR
EXTRN	___CxxFrameHandler:NEAR
EXTRN	?GetScrollBarCtrl@CWnd@@UBEPAVCScrollBar@@H@Z:NEAR ; CWnd::GetScrollBarCtrl
EXTRN	??0CButton@@QAE@XZ:NEAR				; CButton::CButton
EXTRN	?Create@CButton@@UAEHPBDKABUtagRECT@@PAVCWnd@@I@Z:NEAR ; CButton::Create
EXTRN	??1CButton@@UAE@XZ:NEAR				; CButton::~CButton
EXTRN	?OnChildNotify@CButton@@MAEHIIJPAJ@Z:NEAR	; CButton::OnChildNotify
EXTRN	?WinHelpA@CWnd@@UAEXKI@Z:NEAR			; CWnd::WinHelpA
EXTRN	?HtmlHelpA@CWnd@@UAEXKI@Z:NEAR			; CWnd::HtmlHelpA
EXTRN	??_7type_info@@6B@:QWORD			; type_info::`vftable'
EXTRN	?WinHelpInternal@CWnd@@UAEXKI@Z:NEAR		; CWnd::WinHelpInternal
EXTRN	?ContinueModal@CWnd@@UAEHXZ:NEAR		; CWnd::ContinueModal
EXTRN	?EndModalLoop@CWnd@@UAEXH@Z:NEAR		; CWnd::EndModalLoop
xdata$x	SEGMENT
$T188247 DD	0ffffffffH
	DD	FLAT:$L188227
	DD	00H
	DD	FLAT:$L188228
	DD	01H
	DD	FLAT:$L188229
	DD	02H
	DD	FLAT:$L188230
	DD	03H
	DD	FLAT:$L188231
	DD	04H
	DD	FLAT:$L188232
$T188236 DD	019930520H
	DD	06H
	DD	FLAT:$T188247
	DD	2 DUP(00H)
	DD	2 DUP(00H)
xdata$x	ENDS
;	COMDAT ??_7CSkinButton2@@6B@
CONST	SEGMENT
??_7CSkinButton2@@6B@ DD FLAT:??_R4CSkinButton2@@6B@	; CSkinButton2::`vftable'
	DD	FLAT:?GetRuntimeClass@CSkinButton2@@UBEPAUCRuntimeClass@@XZ
	DD	FLAT:??_ECSkinButton2@@UAEPAXI@Z
	DD	FLAT:?Serialize@CObject@@UAEXAAVCArchive@@@Z
	DD	FLAT:?AssertValid@CWnd@@UBEXXZ
	DD	FLAT:?Dump@CWnd@@UBEXAAVCDumpContext@@@Z
	DD	FLAT:?OnCmdMsg@CCmdTarget@@UAEHIHPAXPAUAFX_CMDHANDLERINFO@@@Z
	DD	FLAT:?OnFinalRelease@CWnd@@UAEXXZ
	DD	FLAT:?IsInvokeAllowed@CCmdTarget@@UAEHJ@Z
	DD	FLAT:?GetDispatchIID@CCmdTarget@@UAEHPAU_GUID@@@Z
	DD	FLAT:?GetTypeInfoCount@CCmdTarget@@UAEIXZ
	DD	FLAT:?GetTypeLibCache@CCmdTarget@@UAEPAVCTypeLibCache@@XZ
	DD	FLAT:?GetTypeLib@CCmdTarget@@UAEJKPAPAUITypeLib@@@Z
	DD	FLAT:?GetMessageMap@CSkinButton2@@MBEPBUAFX_MSGMAP@@XZ
	DD	FLAT:?GetCommandMap@CCmdTarget@@MBEPBUAFX_OLECMDMAP@@XZ
	DD	FLAT:?GetDispatchMap@CCmdTarget@@MBEPBUAFX_DISPMAP@@XZ
	DD	FLAT:?GetConnectionMap@CCmdTarget@@MBEPBUAFX_CONNECTIONMAP@@XZ
	DD	FLAT:?GetInterfaceMap@CWnd@@MBEPBUAFX_INTERFACEMAP@@XZ
	DD	FLAT:?GetEventSinkMap@CCmdTarget@@MBEPBUAFX_EVENTSINKMAP@@XZ
	DD	FLAT:?OnCreateAggregates@CCmdTarget@@UAEHXZ
	DD	FLAT:?GetInterfaceHook@CCmdTarget@@UAEPAUIUnknown@@PBX@Z
	DD	FLAT:?GetExtraConnectionPoints@CCmdTarget@@MAEHPAVCPtrArray@@@Z
	DD	FLAT:?GetConnectionHook@CCmdTarget@@MAEPAUIConnectionPoint@@ABU_GUID@@@Z
	DD	FLAT:?PreSubclassWindow@CSkinButton2@@MAEXXZ
	DD	FLAT:?Create@CWnd@@UAEHPBD0KABUtagRECT@@PAV1@IPAUCCreateContext@@@Z
	DD	FLAT:?CreateEx@CWnd@@UAEHKPBD0KABUtagRECT@@PAV1@IPAX@Z
	DD	FLAT:?CreateEx@CWnd@@UAEHKPBD0KHHHHPAUHWND__@@PAUHMENU__@@PAX@Z
	DD	FLAT:?DestroyWindow@CWnd@@UAEHXZ
	DD	FLAT:?PreCreateWindow@CWnd@@UAEHAAUtagCREATESTRUCTA@@@Z
	DD	FLAT:?CalcWindowRect@CWnd@@UAEXPAUtagRECT@@I@Z
	DD	FLAT:?OnToolHitTest@CWnd@@UBEHVCPoint@@PAUtagTOOLINFOA@@@Z
	DD	FLAT:?GetScrollBarCtrl@CWnd@@UBEPAVCScrollBar@@H@Z
	DD	FLAT:?WinHelpA@CWnd@@UAEXKI@Z
	DD	FLAT:?HtmlHelpA@CWnd@@UAEXKI@Z
	DD	FLAT:?WinHelpInternal@CWnd@@UAEXKI@Z
	DD	FLAT:?ContinueModal@CWnd@@UAEHXZ
	DD	FLAT:?EndModalLoop@CWnd@@UAEXH@Z
	DD	FLAT:?EnsureStdObj@CWnd@@UAEJXZ
	DD	FLAT:?get_accParent@CWnd@@UAEJPAPAUIDispatch@@@Z
	DD	FLAT:?get_accChildCount@CWnd@@UAEJPAJ@Z
	DD	FLAT:?get_accChild@CWnd@@UAEJUtagVARIANT@@PAPAUIDispatch@@@Z
	DD	FLAT:?get_accName@CWnd@@UAEJUtagVARIANT@@PAPA_W@Z
	DD	FLAT:?get_accValue@CWnd@@UAEJUtagVARIANT@@PAPA_W@Z
	DD	FLAT:?get_accDescription@CWnd@@UAEJUtagVARIANT@@PAPA_W@Z
	DD	FLAT:?get_accRole@CWnd@@UAEJUtagVARIANT@@PAU2@@Z
	DD	FLAT:?get_accState@CWnd@@UAEJUtagVARIANT@@PAU2@@Z
	DD	FLAT:?get_accHelp@CWnd@@UAEJUtagVARIANT@@PAPA_W@Z
	DD	FLAT:?get_accHelpTopic@CWnd@@UAEJPAPA_WUtagVARIANT@@PAJ@Z
	DD	FLAT:?get_accKeyboardShortcut@CWnd@@UAEJUtagVARIANT@@PAPA_W@Z
	DD	FLAT:?get_accFocus@CWnd@@UAEJPAUtagVARIANT@@@Z
	DD	FLAT:?get_accSelection@CWnd@@UAEJPAUtagVARIANT@@@Z
	DD	FLAT:?get_accDefaultAction@CWnd@@UAEJUtagVARIANT@@PAPA_W@Z
	DD	FLAT:?accSelect@CWnd@@UAEJJUtagVARIANT@@@Z
	DD	FLAT:?accLocation@CWnd@@UAEJPAJ000UtagVARIANT@@@Z
	DD	FLAT:?accNavigate@CWnd@@UAEJJUtagVARIANT@@PAU2@@Z
	DD	FLAT:?accHitTest@CWnd@@UAEJJJPAUtagVARIANT@@@Z
	DD	FLAT:?accDoDefaultAction@CWnd@@UAEJUtagVARIANT@@@Z
	DD	FLAT:?put_accName@CWnd@@UAEJUtagVARIANT@@PA_W@Z
	DD	FLAT:?put_accValue@CWnd@@UAEJUtagVARIANT@@PA_W@Z
	DD	FLAT:?SetProxy@CWnd@@UAEJPAUIAccessibleProxy@@@Z
	DD	FLAT:?CreateAccessibleProxy@CWnd@@UAEJIJPAJ@Z
	DD	FLAT:?OnCommand@CWnd@@MAEHIJ@Z
	DD	FLAT:?OnNotify@CWnd@@MAEHIJPAJ@Z
	DD	FLAT:?GetSuperWndProcAddr@CWnd@@MAEPAP6GJPAUHWND__@@IIJ@ZXZ
	DD	FLAT:?DoDataExchange@CWnd@@MAEXPAVCDataExchange@@@Z
	DD	FLAT:?BeginModalState@CWnd@@UAEXXZ
	DD	FLAT:?EndModalState@CWnd@@UAEXXZ
	DD	FLAT:?PreTranslateMessage@CSkinButton2@@UAEHPAUtagMSG@@@Z
	DD	FLAT:?OnAmbientProperty@CWnd@@UAEHPAVCOleControlSite@@JPAUtagVARIANT@@@Z
	DD	FLAT:?WindowProc@CWnd@@MAEJIIJ@Z
	DD	FLAT:?OnWndMsg@CWnd@@MAEHIIJPAJ@Z
	DD	FLAT:?DefWindowProcA@CWnd@@MAEJIIJ@Z
	DD	FLAT:?PostNcDestroy@CWnd@@MAEXXZ
	DD	FLAT:?OnChildNotify@CButton@@MAEHIIJPAJ@Z
	DD	FLAT:?CheckAutoCenter@CWnd@@UAEHXZ
	DD	FLAT:?IsFrameWnd@CWnd@@UBEHXZ
	DD	FLAT:?CreateControlContainer@CWnd@@MAEHPAPAVCOleControlContainer@@@Z
	DD	FLAT:?CreateControlSite@CWnd@@MAEHPAVCOleControlContainer@@PAPAVCOleControlSite@@IABU_GUID@@@Z
	DD	FLAT:?SetOccDialogInfo@CWnd@@MAEHPAU_AFX_OCC_DIALOG_INFO@@@Z
	DD	FLAT:?Create@CButton@@UAEHPBDKABUtagRECT@@PAVCWnd@@I@Z
	DD	FLAT:?DrawItem@CSkinButton2@@UAEXPAUtagDRAWITEMSTRUCT@@@Z
CONST	ENDS
;	COMDAT ??_R4CSkinButton2@@6B@
rdata$r	SEGMENT
??_R4CSkinButton2@@6B@ DD 00H				; CSkinButton2::`RTTI Complete Object Locator'
	DD	00H
	DD	00H
	DD	FLAT:??_R0?AVCSkinButton2@@@8
	DD	FLAT:??_R3CSkinButton2@@8
rdata$r	ENDS
;	COMDAT ??_R0?AVCSkinButton2@@@8
_DATA	SEGMENT
??_R0?AVCSkinButton2@@@8 DD FLAT:??_7type_info@@6B@	; CSkinButton2 `RTTI Type Descriptor'
	DD	00H
	DB	'.?AVCSkinButton2@@', 00H
_DATA	ENDS
;	COMDAT ??_R3CSkinButton2@@8
rdata$r	SEGMENT
??_R3CSkinButton2@@8 DD 00H				; CSkinButton2::`RTTI Class Hierarchy Descriptor'
	DD	00H
	DD	05H
	DD	FLAT:??_R2CSkinButton2@@8
rdata$r	ENDS
;	COMDAT ??_R2CSkinButton2@@8
rdata$r	SEGMENT
??_R2CSkinButton2@@8 DD FLAT:??_R1A@?0A@A@CSkinButton2@@8 ; CSkinButton2::`RTTI Base Class Array'
	DD	FLAT:??_R1A@?0A@A@CButton@@8
	DD	FLAT:??_R1A@?0A@A@CWnd@@8
	DD	FLAT:??_R1A@?0A@A@CCmdTarget@@8
	DD	FLAT:??_R1A@?0A@A@CObject@@8
rdata$r	ENDS
;	COMDAT ??_R1A@?0A@A@CSkinButton2@@8
rdata$r	SEGMENT
??_R1A@?0A@A@CSkinButton2@@8 DD FLAT:??_R0?AVCSkinButton2@@@8 ; CSkinButton2::`RTTI Base Class Descriptor at (0,-1,0,0)'
	DD	04H
	DD	00H
	DD	0ffffffffH
	DD	00H
	DD	00H
rdata$r	ENDS
;	COMDAT ??_R1A@?0A@A@CButton@@8
rdata$r	SEGMENT
??_R1A@?0A@A@CButton@@8 DD FLAT:??_R0?AVCButton@@@8	; CButton::`RTTI Base Class Descriptor at (0,-1,0,0)'
	DD	03H
	DD	00H
	DD	0ffffffffH
	DD	00H
	DD	00H
rdata$r	ENDS
;	COMDAT ??_R0?AVCButton@@@8
_DATA	SEGMENT
??_R0?AVCButton@@@8 DD FLAT:??_7type_info@@6B@		; CButton `RTTI Type Descriptor'
	DD	00H
	DB	'.?AVCButton@@', 00H
_DATA	ENDS
;	COMDAT ??_R1A@?0A@A@CWnd@@8
rdata$r	SEGMENT
??_R1A@?0A@A@CWnd@@8 DD FLAT:??_R0?AVCWnd@@@8		; CWnd::`RTTI Base Class Descriptor at (0,-1,0,0)'
	DD	02H
	DD	00H
	DD	0ffffffffH
	DD	00H
	DD	00H
rdata$r	ENDS
;	COMDAT ??_R0?AVCWnd@@@8
_DATA	SEGMENT
??_R0?AVCWnd@@@8 DD FLAT:??_7type_info@@6B@		; CWnd `RTTI Type Descriptor'
	DD	00H
	DB	'.?AVCWnd@@', 00H
_DATA	ENDS
;	COMDAT ??_R1A@?0A@A@CCmdTarget@@8
rdata$r	SEGMENT
??_R1A@?0A@A@CCmdTarget@@8 DD FLAT:??_R0?AVCCmdTarget@@@8 ; CCmdTarget::`RTTI Base Class Descriptor at (0,-1,0,0)'
	DD	01H
	DD	00H
	DD	0ffffffffH
	DD	00H
	DD	00H
rdata$r	ENDS
;	COMDAT ??_R0?AVCCmdTarget@@@8
_DATA	SEGMENT
??_R0?AVCCmdTarget@@@8 DD FLAT:??_7type_info@@6B@	; CCmdTarget `RTTI Type Descriptor'
	DD	00H
	DB	'.?AVCCmdTarget@@', 00H
_DATA	ENDS
;	COMDAT ??_R1A@?0A@A@CObject@@8
rdata$r	SEGMENT
??_R1A@?0A@A@CObject@@8 DD FLAT:??_R0?AVCObject@@@8	; CObject::`RTTI Base Class Descriptor at (0,-1,0,0)'
	DD	00H
	DD	00H
	DD	0ffffffffH
	DD	00H
	DD	00H
rdata$r	ENDS
;	COMDAT ??_R0?AVCObject@@@8
_DATA	SEGMENT
??_R0?AVCObject@@@8 DD FLAT:??_7type_info@@6B@		; CObject `RTTI Type Descriptor'
	DD	00H
	DB	'.?AVCObject@@', 00H
; Function compile flags: /Odt /RTCsu
_DATA	ENDS
_TEXT	SEGMENT
tv305 = -268						; size = 4
tv392 = -264						; size = 8
$T188224 = -256						; size = 4
$T188223 = -252						; size = 4
_fontFamily$ = -244					; size = 8
_ma2$ = -228						; size = 100
_ma$ = -120						; size = 100
_this$ = -16						; size = 4
__$EHRec$ = -12						; size = 12
??0CSkinButton2@@QAE@XZ PROC NEAR			; CSkinButton2::CSkinButton2
; _this$ = ecx

; 19   : {

  00030	55		 push	 ebp
  00031	8b ec		 mov	 ebp, esp
  00033	6a ff		 push	 -1
  00035	68 00 00 00 00	 push	 __ehhandler$??0CSkinButton2@@QAE@XZ
  0003a	64 a1 00 00 00
	00		 mov	 eax, DWORD PTR fs:__except_list
  00040	50		 push	 eax
  00041	64 89 25 00 00
	00 00		 mov	 DWORD PTR fs:__except_list, esp
  00048	81 ec 00 01 00
	00		 sub	 esp, 256		; 00000100H
  0004e	56		 push	 esi
  0004f	57		 push	 edi
  00050	51		 push	 ecx
  00051	8d bd f4 fe ff
	ff		 lea	 edi, DWORD PTR [ebp-268]
  00057	b9 40 00 00 00	 mov	 ecx, 64			; 00000040H
  0005c	b8 cc cc cc cc	 mov	 eax, -858993460		; ccccccccH
  00061	f3 ab		 rep stosd
  00063	59		 pop	 ecx
  00064	89 4d f0	 mov	 DWORD PTR _this$[ebp], ecx
  00067	8b 4d f0	 mov	 ecx, DWORD PTR _this$[ebp]
  0006a	e8 00 00 00 00	 call	 ??0CButton@@QAE@XZ	; CButton::CButton
  0006f	c7 45 fc 00 00
	00 00		 mov	 DWORD PTR __$EHRec$[ebp+8], 0
  00076	8b 45 f0	 mov	 eax, DWORD PTR _this$[ebp]
  00079	c7 00 00 00 00
	00		 mov	 DWORD PTR [eax], OFFSET FLAT:??_7CSkinButton2@@6B@
  0007f	8b 4d f0	 mov	 ecx, DWORD PTR _this$[ebp]
  00082	c7 41 54 00 00
	00 00		 mov	 DWORD PTR [ecx+84], 0
  00089	8b 55 f0	 mov	 edx, DWORD PTR _this$[ebp]
  0008c	c7 42 5c 01 00
	00 00		 mov	 DWORD PTR [edx+92], 1
  00093	8b 4d f0	 mov	 ecx, DWORD PTR _this$[ebp]
  00096	83 c1 60	 add	 ecx, 96			; 00000060H
  00099	e8 00 00 00 00	 call	 ??0CRect@@QAE@XZ	; CRect::CRect
  0009e	8b 45 f0	 mov	 eax, DWORD PTR _this$[ebp]
  000a1	c7 40 70 00 00
	00 00		 mov	 DWORD PTR [eax+112], 0
  000a8	8b 4d f0	 mov	 ecx, DWORD PTR _this$[ebp]
  000ab	c7 41 74 00 00
	00 00		 mov	 DWORD PTR [ecx+116], 0
  000b2	8b 4d f0	 mov	 ecx, DWORD PTR _this$[ebp]
  000b5	83 c1 78	 add	 ecx, 120		; 00000078H
  000b8	8b f4		 mov	 esi, esp
  000ba	ff 15 00 00 00
	00		 call	 DWORD PTR __imp_??0?$CStringT@DV?$StrTraitMFC_DLL@DV?$ChTraitsCRT@D@ATL@@@@@ATL@@QAE@XZ
  000c0	3b f4		 cmp	 esi, esp
  000c2	e8 00 00 00 00	 call	 __RTC_CheckEsp
  000c7	c6 45 fc 01	 mov	 BYTE PTR __$EHRec$[ebp+8], 1
  000cb	8b 55 f0	 mov	 edx, DWORD PTR _this$[ebp]
  000ce	c7 42 7c 00 00
	00 00		 mov	 DWORD PTR [edx+124], 0
  000d5	8b 45 f0	 mov	 eax, DWORD PTR _this$[ebp]
  000d8	c7 80 80 00 00
	00 00 00 00 00	 mov	 DWORD PTR [eax+128], 0
  000e2	8b 4d f0	 mov	 ecx, DWORD PTR _this$[ebp]
  000e5	c7 81 84 00 00
	00 00 00 00 00	 mov	 DWORD PTR [ecx+132], 0
  000ef	8b 55 f0	 mov	 edx, DWORD PTR _this$[ebp]
  000f2	c7 82 88 00 00
	00 00 00 00 00	 mov	 DWORD PTR [edx+136], 0
  000fc	8b 4d f0	 mov	 ecx, DWORD PTR _this$[ebp]
  000ff	81 c1 8c 00 00
	00		 add	 ecx, 140		; 0000008cH
  00105	e8 00 00 00 00	 call	 ??0CDC@@QAE@XZ		; CDC::CDC
  0010a	c6 45 fc 02	 mov	 BYTE PTR __$EHRec$[ebp+8], 2
  0010e	8b 4d f0	 mov	 ecx, DWORD PTR _this$[ebp]
  00111	81 c1 64 01 00
	00		 add	 ecx, 356		; 00000164H
  00117	8b f4		 mov	 esi, esp
  00119	ff 15 00 00 00
	00		 call	 DWORD PTR __imp_??0?$CStringT@DV?$StrTraitMFC_DLL@DV?$ChTraitsCRT@D@ATL@@@@@ATL@@QAE@XZ
  0011f	3b f4		 cmp	 esi, esp
  00121	e8 00 00 00 00	 call	 __RTC_CheckEsp
  00126	c6 45 fc 03	 mov	 BYTE PTR __$EHRec$[ebp+8], 3
  0012a	8b 45 f0	 mov	 eax, DWORD PTR _this$[ebp]
  0012d	c7 80 68 01 00
	00 0c 00 00 00	 mov	 DWORD PTR [eax+360], 12	; 0000000cH
  00137	8b 4d f0	 mov	 ecx, DWORD PTR _this$[ebp]
  0013a	81 c1 6c 01 00
	00		 add	 ecx, 364		; 0000016cH
  00140	e8 00 00 00 00	 call	 ??0Color@Gdiplus@@QAE@XZ ; Gdiplus::Color::Color
  00145	8b 4d f0	 mov	 ecx, DWORD PTR _this$[ebp]
  00148	81 c1 70 01 00
	00		 add	 ecx, 368		; 00000170H
  0014e	e8 00 00 00 00	 call	 ??0Color@Gdiplus@@QAE@XZ ; Gdiplus::Color::Color
  00153	8b 4d f0	 mov	 ecx, DWORD PTR _this$[ebp]
  00156	81 c1 74 01 00
	00		 add	 ecx, 372		; 00000174H
  0015c	e8 00 00 00 00	 call	 ??0Color@Gdiplus@@QAE@XZ ; Gdiplus::Color::Color
  00161	8b 4d f0	 mov	 ecx, DWORD PTR _this$[ebp]
  00164	81 c1 78 01 00
	00		 add	 ecx, 376		; 00000178H
  0016a	e8 00 00 00 00	 call	 ??0Color@Gdiplus@@QAE@XZ ; Gdiplus::Color::Color
  0016f	8b 4d f0	 mov	 ecx, DWORD PTR _this$[ebp]
  00172	81 c1 7c 01 00
	00		 add	 ecx, 380		; 0000017cH
  00178	e8 00 00 00 00	 call	 ??0Color@Gdiplus@@QAE@XZ ; Gdiplus::Color::Color
  0017d	8b 4d f0	 mov	 ecx, DWORD PTR _this$[ebp]
  00180	c7 81 84 01 00
	00 00 00 00 00	 mov	 DWORD PTR [ecx+388], 0

; 20   : 	ColorMatrix  ma = {
; 21   : 		1.00f, 0.00f, 0.00f, 0.00f, 0.00f,

  0018a	c7 45 88 00 00
	80 3f		 mov	 DWORD PTR _ma$[ebp], 1065353216 ; 3f800000H
  00191	c7 45 8c 00 00
	00 00		 mov	 DWORD PTR _ma$[ebp+4], 0
  00198	c7 45 90 00 00
	00 00		 mov	 DWORD PTR _ma$[ebp+8], 0
  0019f	c7 45 94 00 00
	00 00		 mov	 DWORD PTR _ma$[ebp+12], 0
  001a6	c7 45 98 00 00
	00 00		 mov	 DWORD PTR _ma$[ebp+16], 0

; 22   : 
; 23   : 			0.00f, 1.00f, 0.00f, 0.00f, 0.00f,

  001ad	c7 45 9c 00 00
	00 00		 mov	 DWORD PTR _ma$[ebp+20], 0
  001b4	c7 45 a0 00 00
	80 3f		 mov	 DWORD PTR _ma$[ebp+24], 1065353216 ; 3f800000H
  001bb	c7 45 a4 00 00
	00 00		 mov	 DWORD PTR _ma$[ebp+28], 0
  001c2	c7 45 a8 00 00
	00 00		 mov	 DWORD PTR _ma$[ebp+32], 0
  001c9	c7 45 ac 00 00
	00 00		 mov	 DWORD PTR _ma$[ebp+36], 0

; 24   : 
; 25   : 			0.00f, 0.00f, 1.00f, 0.00f, 0.00f,

  001d0	c7 45 b0 00 00
	00 00		 mov	 DWORD PTR _ma$[ebp+40], 0
  001d7	c7 45 b4 00 00
	00 00		 mov	 DWORD PTR _ma$[ebp+44], 0
  001de	c7 45 b8 00 00
	80 3f		 mov	 DWORD PTR _ma$[ebp+48], 1065353216 ; 3f800000H
  001e5	c7 45 bc 00 00
	00 00		 mov	 DWORD PTR _ma$[ebp+52], 0
  001ec	c7 45 c0 00 00
	00 00		 mov	 DWORD PTR _ma$[ebp+56], 0

; 26   : 
; 27   : 			0.00f, 0.00f, 0.00f, 1.00f, 0.00f,

  001f3	c7 45 c4 00 00
	00 00		 mov	 DWORD PTR _ma$[ebp+60], 0
  001fa	c7 45 c8 00 00
	00 00		 mov	 DWORD PTR _ma$[ebp+64], 0
  00201	c7 45 cc 00 00
	00 00		 mov	 DWORD PTR _ma$[ebp+68], 0
  00208	c7 45 d0 00 00
	80 3f		 mov	 DWORD PTR _ma$[ebp+72], 1065353216 ; 3f800000H
  0020f	c7 45 d4 00 00
	00 00		 mov	 DWORD PTR _ma$[ebp+76], 0

; 28   : 
; 29   : 			0.15f, 0.15f, 0.15f, 0.00f, 1.00f	};

  00216	c7 45 d8 9a 99
	19 3e		 mov	 DWORD PTR _ma$[ebp+80], 1041865114 ; 3e19999aH
  0021d	c7 45 dc 9a 99
	19 3e		 mov	 DWORD PTR _ma$[ebp+84], 1041865114 ; 3e19999aH
  00224	c7 45 e0 9a 99
	19 3e		 mov	 DWORD PTR _ma$[ebp+88], 1041865114 ; 3e19999aH
  0022b	c7 45 e4 00 00
	00 00		 mov	 DWORD PTR _ma$[ebp+92], 0
  00232	c7 45 e8 00 00
	80 3f		 mov	 DWORD PTR _ma$[ebp+96], 1065353216 ; 3f800000H

; 30   : 	memcpy( &m_LightMat, &ma,  sizeof( ColorMatrix ) );

  00239	6a 64		 push	 100			; 00000064H
  0023b	8d 55 88	 lea	 edx, DWORD PTR _ma$[ebp]
  0023e	52		 push	 edx
  0023f	8b 45 f0	 mov	 eax, DWORD PTR _this$[ebp]
  00242	05 9c 00 00 00	 add	 eax, 156		; 0000009cH
  00247	50		 push	 eax
  00248	e8 00 00 00 00	 call	 _memcpy
  0024d	83 c4 0c	 add	 esp, 12			; 0000000cH

; 31   : 
; 32   : 	ColorMatrix ma2 = {
; 33   : 			0.40f, 0.40f, 0.40f, 0.00f, 0.00f,

  00250	c7 85 1c ff ff
	ff cd cc cc 3e	 mov	 DWORD PTR _ma2$[ebp], 1053609165 ; 3ecccccdH
  0025a	c7 85 20 ff ff
	ff cd cc cc 3e	 mov	 DWORD PTR _ma2$[ebp+4], 1053609165 ; 3ecccccdH
  00264	c7 85 24 ff ff
	ff cd cc cc 3e	 mov	 DWORD PTR _ma2$[ebp+8], 1053609165 ; 3ecccccdH
  0026e	c7 85 28 ff ff
	ff 00 00 00 00	 mov	 DWORD PTR _ma2$[ebp+12], 0
  00278	c7 85 2c ff ff
	ff 00 00 00 00	 mov	 DWORD PTR _ma2$[ebp+16], 0

; 34   : 
; 35   : 				0.50f, 0.50f, 0.50f, 0.00f, 0.00f,

  00282	c7 85 30 ff ff
	ff 00 00 00 3f	 mov	 DWORD PTR _ma2$[ebp+20], 1056964608 ; 3f000000H
  0028c	c7 85 34 ff ff
	ff 00 00 00 3f	 mov	 DWORD PTR _ma2$[ebp+24], 1056964608 ; 3f000000H
  00296	c7 85 38 ff ff
	ff 00 00 00 3f	 mov	 DWORD PTR _ma2$[ebp+28], 1056964608 ; 3f000000H
  002a0	c7 85 3c ff ff
	ff 00 00 00 00	 mov	 DWORD PTR _ma2$[ebp+32], 0
  002aa	c7 85 40 ff ff
	ff 00 00 00 00	 mov	 DWORD PTR _ma2$[ebp+36], 0

; 36   : 
; 37   : 				0.10f, 0.10f, 0.10f, 0.00f, 0.00f,

  002b4	c7 85 44 ff ff
	ff cd cc cc 3d	 mov	 DWORD PTR _ma2$[ebp+40], 1036831949 ; 3dcccccdH
  002be	c7 85 48 ff ff
	ff cd cc cc 3d	 mov	 DWORD PTR _ma2$[ebp+44], 1036831949 ; 3dcccccdH
  002c8	c7 85 4c ff ff
	ff cd cc cc 3d	 mov	 DWORD PTR _ma2$[ebp+48], 1036831949 ; 3dcccccdH
  002d2	c7 85 50 ff ff
	ff 00 00 00 00	 mov	 DWORD PTR _ma2$[ebp+52], 0
  002dc	c7 85 54 ff ff
	ff 00 00 00 00	 mov	 DWORD PTR _ma2$[ebp+56], 0

; 38   : 
; 39   : 				0.00f, 0.00f, 0.00f, 1.00f, 0.00f,

  002e6	c7 85 58 ff ff
	ff 00 00 00 00	 mov	 DWORD PTR _ma2$[ebp+60], 0
  002f0	c7 85 5c ff ff
	ff 00 00 00 00	 mov	 DWORD PTR _ma2$[ebp+64], 0
  002fa	c7 85 60 ff ff
	ff 00 00 00 00	 mov	 DWORD PTR _ma2$[ebp+68], 0
  00304	c7 85 64 ff ff
	ff 00 00 80 3f	 mov	 DWORD PTR _ma2$[ebp+72], 1065353216 ; 3f800000H
  0030e	c7 85 68 ff ff
	ff 00 00 00 00	 mov	 DWORD PTR _ma2$[ebp+76], 0

; 40   : 
; 41   : 				0.00f, 0.00f, 0.00f, 0.00f, 1.00f	};

  00318	c7 85 6c ff ff
	ff 00 00 00 00	 mov	 DWORD PTR _ma2$[ebp+80], 0
  00322	c7 85 70 ff ff
	ff 00 00 00 00	 mov	 DWORD PTR _ma2$[ebp+84], 0
  0032c	c7 85 74 ff ff
	ff 00 00 00 00	 mov	 DWORD PTR _ma2$[ebp+88], 0
  00336	c7 85 78 ff ff
	ff 00 00 00 00	 mov	 DWORD PTR _ma2$[ebp+92], 0
  00340	c7 85 7c ff ff
	ff 00 00 80 3f	 mov	 DWORD PTR _ma2$[ebp+96], 1065353216 ; 3f800000H

; 42   : 
; 43   : 	::memcpy( &m_GrayMat, &ma2, sizeof( ColorMatrix ) );

  0034a	6a 64		 push	 100			; 00000064H
  0034c	8d 8d 1c ff ff
	ff		 lea	 ecx, DWORD PTR _ma2$[ebp]
  00352	51		 push	 ecx
  00353	8b 55 f0	 mov	 edx, DWORD PTR _this$[ebp]
  00356	81 c2 00 01 00
	00		 add	 edx, 256		; 00000100H
  0035c	52		 push	 edx
  0035d	e8 00 00 00 00	 call	 _memcpy
  00362	83 c4 0c	 add	 esp, 12			; 0000000cH

; 44   : 
; 45   : 	m_colFrame1.SetValue( Gdiplus::Color::MakeARGB(50,0,0,0) );

  00365	6a 00		 push	 0
  00367	6a 00		 push	 0
  00369	6a 00		 push	 0
  0036b	6a 32		 push	 50			; 00000032H
  0036d	e8 00 00 00 00	 call	 ?MakeARGB@Color@Gdiplus@@SAKEEEE@Z ; Gdiplus::Color::MakeARGB
  00372	83 c4 10	 add	 esp, 16			; 00000010H
  00375	50		 push	 eax
  00376	8b 4d f0	 mov	 ecx, DWORD PTR _this$[ebp]
  00379	81 c1 70 01 00
	00		 add	 ecx, 368		; 00000170H
  0037f	e8 00 00 00 00	 call	 ?SetValue@Color@Gdiplus@@QAEXK@Z ; Gdiplus::Color::SetValue

; 46   : 	m_colFrame2.SetValue( Gdiplus::Color::MakeARGB(200,255,255,255)  );

  00384	68 ff 00 00 00	 push	 255			; 000000ffH
  00389	68 ff 00 00 00	 push	 255			; 000000ffH
  0038e	68 ff 00 00 00	 push	 255			; 000000ffH
  00393	68 c8 00 00 00	 push	 200			; 000000c8H
  00398	e8 00 00 00 00	 call	 ?MakeARGB@Color@Gdiplus@@SAKEEEE@Z ; Gdiplus::Color::MakeARGB
  0039d	83 c4 10	 add	 esp, 16			; 00000010H
  003a0	50		 push	 eax
  003a1	8b 4d f0	 mov	 ecx, DWORD PTR _this$[ebp]
  003a4	81 c1 74 01 00
	00		 add	 ecx, 372		; 00000174H
  003aa	e8 00 00 00 00	 call	 ?SetValue@Color@Gdiplus@@QAEXK@Z ; Gdiplus::Color::SetValue

; 47   : 	m_colBrush2.SetValue( Gdiplus::Color::MakeARGB(80,255,255,255)  );

  003af	68 ff 00 00 00	 push	 255			; 000000ffH
  003b4	68 ff 00 00 00	 push	 255			; 000000ffH
  003b9	68 ff 00 00 00	 push	 255			; 000000ffH
  003be	6a 50		 push	 80			; 00000050H
  003c0	e8 00 00 00 00	 call	 ?MakeARGB@Color@Gdiplus@@SAKEEEE@Z ; Gdiplus::Color::MakeARGB
  003c5	83 c4 10	 add	 esp, 16			; 00000010H
  003c8	50		 push	 eax
  003c9	8b 4d f0	 mov	 ecx, DWORD PTR _this$[ebp]
  003cc	81 c1 7c 01 00
	00		 add	 ecx, 380		; 0000017cH
  003d2	e8 00 00 00 00	 call	 ?SetValue@Color@Gdiplus@@QAEXK@Z ; Gdiplus::Color::SetValue

; 48   : 	m_colBrush1.SetValue( Gdiplus::Color::MakeARGB(100,255,255,255)  );

  003d7	68 ff 00 00 00	 push	 255			; 000000ffH
  003dc	68 ff 00 00 00	 push	 255			; 000000ffH
  003e1	68 ff 00 00 00	 push	 255			; 000000ffH
  003e6	6a 64		 push	 100			; 00000064H
  003e8	e8 00 00 00 00	 call	 ?MakeARGB@Color@Gdiplus@@SAKEEEE@Z ; Gdiplus::Color::MakeARGB
  003ed	83 c4 10	 add	 esp, 16			; 00000010H
  003f0	50		 push	 eax
  003f1	8b 4d f0	 mov	 ecx, DWORD PTR _this$[ebp]
  003f4	81 c1 78 01 00
	00		 add	 ecx, 376		; 00000178H
  003fa	e8 00 00 00 00	 call	 ?SetValue@Color@Gdiplus@@QAEXK@Z ; Gdiplus::Color::SetValue

; 49   : 	m_colBK.SetValue( Gdiplus::Color::MakeARGB(255,255,255,255) );

  003ff	68 ff 00 00 00	 push	 255			; 000000ffH
  00404	68 ff 00 00 00	 push	 255			; 000000ffH
  00409	68 ff 00 00 00	 push	 255			; 000000ffH
  0040e	68 ff 00 00 00	 push	 255			; 000000ffH
  00413	e8 00 00 00 00	 call	 ?MakeARGB@Color@Gdiplus@@SAKEEEE@Z ; Gdiplus::Color::MakeARGB
  00418	83 c4 10	 add	 esp, 16			; 00000010H
  0041b	50		 push	 eax
  0041c	8b 4d f0	 mov	 ecx, DWORD PTR _this$[ebp]
  0041f	81 c1 6c 01 00
	00		 add	 ecx, 364		; 0000016cH
  00425	e8 00 00 00 00	 call	 ?SetValue@Color@Gdiplus@@QAEXK@Z ; Gdiplus::Color::SetValue

; 50   : 	FontFamily fontFamily(L"");

  0042a	6a 00		 push	 0
  0042c	68 00 00 00 00	 push	 OFFSET FLAT:$SG187209
  00431	8d 8d 0c ff ff
	ff		 lea	 ecx, DWORD PTR _fontFamily$[ebp]
  00437	e8 00 00 00 00	 call	 ??0FontFamily@Gdiplus@@QAE@PB_WPBVFontCollection@1@@Z ; Gdiplus::FontFamily::FontFamily
  0043c	c6 45 fc 04	 mov	 BYTE PTR __$EHRec$[ebp+8], 4

; 51   : 	mp_font = new Gdiplus::Font( &fontFamily,m_nWidth, Gdiplus::FontStyleRegular, Gdiplus::UnitPixel);

  00440	6a 08		 push	 8
  00442	e8 00 00 00 00	 call	 ??2GdiplusBase@Gdiplus@@SAPAXI@Z ; Gdiplus::GdiplusBase::operator new
  00447	83 c4 04	 add	 esp, 4
  0044a	89 85 00 ff ff
	ff		 mov	 DWORD PTR $T188224[ebp], eax
  00450	c6 45 fc 05	 mov	 BYTE PTR __$EHRec$[ebp+8], 5
  00454	83 bd 00 ff ff
	ff 00		 cmp	 DWORD PTR $T188224[ebp], 0
  0045b	74 41		 je	 SHORT $L188225
  0045d	6a 02		 push	 2
  0045f	6a 00		 push	 0
  00461	8b 45 f0	 mov	 eax, DWORD PTR _this$[ebp]
  00464	8b 88 68 01 00
	00		 mov	 ecx, DWORD PTR [eax+360]
  0046a	89 8d f8 fe ff
	ff		 mov	 DWORD PTR tv392[ebp], ecx
  00470	c7 85 fc fe ff
	ff 00 00 00 00	 mov	 DWORD PTR tv392[ebp+4], 0
  0047a	df ad f8 fe ff
	ff		 fild	 QWORD PTR tv392[ebp]
  00480	51		 push	 ecx
  00481	d9 1c 24	 fstp	 DWORD PTR [esp]
  00484	8d 95 0c ff ff
	ff		 lea	 edx, DWORD PTR _fontFamily$[ebp]
  0048a	52		 push	 edx
  0048b	8b 8d 00 ff ff
	ff		 mov	 ecx, DWORD PTR $T188224[ebp]
  00491	e8 00 00 00 00	 call	 ??0Font@Gdiplus@@QAE@PBVFontFamily@1@MHW4Unit@1@@Z ; Gdiplus::Font::Font
  00496	89 85 f4 fe ff
	ff		 mov	 DWORD PTR tv305[ebp], eax
  0049c	eb 0a		 jmp	 SHORT $L188226
$L188225:
  0049e	c7 85 f4 fe ff
	ff 00 00 00 00	 mov	 DWORD PTR tv305[ebp], 0
$L188226:
  004a8	8b 85 f4 fe ff
	ff		 mov	 eax, DWORD PTR tv305[ebp]
  004ae	89 85 04 ff ff
	ff		 mov	 DWORD PTR $T188223[ebp], eax
  004b4	c6 45 fc 04	 mov	 BYTE PTR __$EHRec$[ebp+8], 4
  004b8	8b 4d f0	 mov	 ecx, DWORD PTR _this$[ebp]
  004bb	8b 95 04 ff ff
	ff		 mov	 edx, DWORD PTR $T188223[ebp]
  004c1	89 91 80 01 00
	00		 mov	 DWORD PTR [ecx+384], edx

; 52   : 	m_pToolTip = NULL;

  004c7	8b 45 f0	 mov	 eax, DWORD PTR _this$[ebp]
  004ca	c7 40 74 00 00
	00 00		 mov	 DWORD PTR [eax+116], 0

; 53   : 	m_enmuDrawType = TOP_ARC;

  004d1	8b 4d f0	 mov	 ecx, DWORD PTR _this$[ebp]
  004d4	c7 41 54 01 00
	00 00		 mov	 DWORD PTR [ecx+84], 1

; 54   : }

  004db	c6 45 fc 03	 mov	 BYTE PTR __$EHRec$[ebp+8], 3
  004df	8d 8d 0c ff ff
	ff		 lea	 ecx, DWORD PTR _fontFamily$[ebp]
  004e5	e8 00 00 00 00	 call	 ??1FontFamily@Gdiplus@@QAE@XZ ; Gdiplus::FontFamily::~FontFamily
  004ea	c7 45 fc ff ff
	ff ff		 mov	 DWORD PTR __$EHRec$[ebp+8], -1
  004f1	8b 45 f0	 mov	 eax, DWORD PTR _this$[ebp]
  004f4	52		 push	 edx
  004f5	8b cd		 mov	 ecx, ebp
  004f7	50		 push	 eax
  004f8	8d 15 00 00 00
	00		 lea	 edx, DWORD PTR $L188244
  004fe	e8 00 00 00 00	 call	 @_RTC_CheckStackVars@8
  00503	58		 pop	 eax
  00504	5a		 pop	 edx
  00505	8b 4d f4	 mov	 ecx, DWORD PTR __$EHRec$[ebp]
  00508	64 89 0d 00 00
	00 00		 mov	 DWORD PTR fs:__except_list, ecx
  0050f	5f		 pop	 edi
  00510	5e		 pop	 esi
  00511	81 c4 0c 01 00
	00		 add	 esp, 268		; 0000010cH
  00517	3b ec		 cmp	 ebp, esp
  00519	e8 00 00 00 00	 call	 __RTC_CheckEsp
  0051e	8b e5		 mov	 esp, ebp
  00520	5d		 pop	 ebp
  00521	c3		 ret	 0
$L188244:
  00522	03 00 00 00	 DD	 3
  00526	00 00 00 00	 DD	 $L188243
$L188243:
  0052a	88 ff ff ff	 DD	 -120			; ffffff88H
  0052e	64 00 00 00	 DD	 100			; 00000064H
  00532	00 00 00 00	 DD	 $L188238
  00536	1c ff ff ff	 DD	 -228			; ffffff1cH
  0053a	64 00 00 00	 DD	 100			; 00000064H
  0053e	00 00 00 00	 DD	 $L188239
  00542	0c ff ff ff	 DD	 -244			; ffffff0cH
  00546	08 00 00 00	 DD	 8
  0054a	00 00 00 00	 DD	 $L188240
$L188240:
  0054e	66		 DB	 102			; 00000066H
  0054f	6f		 DB	 111			; 0000006fH
  00550	6e		 DB	 110			; 0000006eH
  00551	74		 DB	 116			; 00000074H
  00552	46		 DB	 70			; 00000046H
  00553	61		 DB	 97			; 00000061H
  00554	6d		 DB	 109			; 0000006dH
  00555	69		 DB	 105			; 00000069H
  00556	6c		 DB	 108			; 0000006cH
  00557	79		 DB	 121			; 00000079H
  00558	00		 DB	 0
$L188239:
  00559	6d		 DB	 109			; 0000006dH
  0055a	61		 DB	 97			; 00000061H
  0055b	32		 DB	 50			; 00000032H
  0055c	00		 DB	 0
$L188238:
  0055d	6d		 DB	 109			; 0000006dH
  0055e	61		 DB	 97			; 00000061H
  0055f	00		 DB	 0
_TEXT	ENDS
text$x	SEGMENT
$L188227:
  00000	8b 4d f0	 mov	 ecx, DWORD PTR _this$[ebp]
  00003	e9 00 00 00 00	 jmp	 ??1CButton@@UAE@XZ	; CButton::~CButton
$L188228:
  00008	8b 4d f0	 mov	 ecx, DWORD PTR _this$[ebp]
  0000b	83 c1 78	 add	 ecx, 120		; 00000078H
  0000e	8b f4		 mov	 esi, esp
  00010	ff 15 00 00 00
	00		 call	 DWORD PTR __imp_??1?$CStringT@DV?$StrTraitMFC_DLL@DV?$ChTraitsCRT@D@ATL@@@@@ATL@@QAE@XZ
  00016	3b f4		 cmp	 esi, esp
  00018	e9 00 00 00 00	 jmp	 __RTC_CheckEsp
$L188229:
  0001d	8b 4d f0	 mov	 ecx, DWORD PTR _this$[ebp]
  00020	81 c1 8c 00 00
	00		 add	 ecx, 140		; 0000008cH
  00026	e9 00 00 00 00	 jmp	 ??1CDC@@UAE@XZ		; CDC::~CDC
$L188230:
  0002b	8b 4d f0	 mov	 ecx, DWORD PTR _this$[ebp]
  0002e	81 c1 64 01 00
	00		 add	 ecx, 356		; 00000164H
  00034	8b f4		 mov	 esi, esp
  00036	ff 15 00 00 00
	00		 call	 DWORD PTR __imp_??1?$CStringT@DV?$StrTraitMFC_DLL@DV?$ChTraitsCRT@D@ATL@@@@@ATL@@QAE@XZ
  0003c	3b f4		 cmp	 esi, esp
  0003e	e9 00 00 00 00	 jmp	 __RTC_CheckEsp
$L188231:
  00043	8d 8d 0c ff ff
	ff		 lea	 ecx, DWORD PTR _fontFamily$[ebp]
  00049	e9 00 00 00 00	 jmp	 ??1FontFamily@Gdiplus@@QAE@XZ ; Gdiplus::FontFamily::~FontFamily
$L188232:
  0004e	8b 85 00 ff ff
	ff		 mov	 eax, DWORD PTR $T188224[ebp]
  00054	50		 push	 eax
  00055	e8 00 00 00 00	 call	 ??3GdiplusBase@Gdiplus@@SAXPAX@Z ; Gdiplus::GdiplusBase::operator delete
  0005a	59		 pop	 ecx
  0005b	c3		 ret	 0
__ehhandler$??0CSkinButton2@@QAE@XZ:
  0005c	b8 00 00 00 00	 mov	 eax, OFFSET FLAT:$T188236
  00061	e9 00 00 00 00	 jmp	 ___CxxFrameHandler
text$x	ENDS
??0CSkinButton2@@QAE@XZ ENDP				; CSkinButton2::CSkinButton2
PUBLIC	??1CSkinButton2@@UAE@XZ				; CSkinButton2::~CSkinButton2
EXTRN	??3CObject@@SGXPAX@Z:NEAR			; CObject::operator delete
; Function compile flags: /Odt /RTCsu
;	COMDAT ??_GCSkinButton2@@UAEPAXI@Z
_TEXT	SEGMENT
_this$ = -4						; size = 4
___flags$ = 8						; size = 4
??_GCSkinButton2@@UAEPAXI@Z PROC NEAR			; CSkinButton2::`scalar deleting destructor', COMDAT
; _this$ = ecx
  00000	55		 push	 ebp
  00001	8b ec		 mov	 ebp, esp
  00003	51		 push	 ecx
  00004	c7 45 fc cc cc
	cc cc		 mov	 DWORD PTR [ebp-4], -858993460 ; ccccccccH
  0000b	89 4d fc	 mov	 DWORD PTR _this$[ebp], ecx
  0000e	8b 4d fc	 mov	 ecx, DWORD PTR _this$[ebp]
  00011	e8 00 00 00 00	 call	 ??1CSkinButton2@@UAE@XZ	; CSkinButton2::~CSkinButton2
  00016	8b 45 08	 mov	 eax, DWORD PTR ___flags$[ebp]
  00019	83 e0 01	 and	 eax, 1
  0001c	74 09		 je	 SHORT $L187217
  0001e	8b 4d fc	 mov	 ecx, DWORD PTR _this$[ebp]
  00021	51		 push	 ecx
  00022	e8 00 00 00 00	 call	 ??3CObject@@SGXPAX@Z	; CObject::operator delete
$L187217:
  00027	8b 45 fc	 mov	 eax, DWORD PTR _this$[ebp]
  0002a	83 c4 04	 add	 esp, 4
  0002d	3b ec		 cmp	 ebp, esp
  0002f	e8 00 00 00 00	 call	 __RTC_CheckEsp
  00034	8b e5		 mov	 esp, ebp
  00036	5d		 pop	 ebp
  00037	c2 04 00	 ret	 4
??_GCSkinButton2@@UAEPAXI@Z ENDP			; CSkinButton2::`scalar deleting destructor'
_TEXT	ENDS
PUBLIC	??_GFont@Gdiplus@@QAEPAXI@Z			; Gdiplus::Font::`scalar deleting destructor'
xdata$x	SEGMENT
$T188270 DD	0ffffffffH
	DD	FLAT:$L188263
	DD	00H
	DD	FLAT:$L188264
	DD	01H
	DD	FLAT:$L188265
	DD	02H
	DD	FLAT:$L188266
$T188268 DD	019930520H
	DD	04H
	DD	FLAT:$T188270
	DD	2 DUP(00H)
	DD	2 DUP(00H)
; Function compile flags: /Odt /RTCsu
xdata$x	ENDS
_TEXT	SEGMENT
tv134 = -52						; size = 4
tv128 = -48						; size = 4
tv86 = -44						; size = 4
$T188260 = -40						; size = 4
$T188259 = -36						; size = 4
$T188256 = -32						; size = 4
$T188255 = -28						; size = 4
$T188252 = -24						; size = 4
$T188251 = -20						; size = 4
_this$ = -16						; size = 4
__$EHRec$ = -12						; size = 12
??1CSkinButton2@@UAE@XZ PROC NEAR			; CSkinButton2::~CSkinButton2
; _this$ = ecx

; 57   : {

  00560	55		 push	 ebp
  00561	8b ec		 mov	 ebp, esp
  00563	6a ff		 push	 -1
  00565	68 00 00 00 00	 push	 __ehhandler$??1CSkinButton2@@UAE@XZ
  0056a	64 a1 00 00 00
	00		 mov	 eax, DWORD PTR fs:__except_list
  00570	50		 push	 eax
  00571	64 89 25 00 00
	00 00		 mov	 DWORD PTR fs:__except_list, esp
  00578	83 ec 28	 sub	 esp, 40			; 00000028H
  0057b	56		 push	 esi
  0057c	57		 push	 edi
  0057d	51		 push	 ecx
  0057e	8d 7d cc	 lea	 edi, DWORD PTR [ebp-52]
  00581	b9 0a 00 00 00	 mov	 ecx, 10			; 0000000aH
  00586	b8 cc cc cc cc	 mov	 eax, -858993460		; ccccccccH
  0058b	f3 ab		 rep stosd
  0058d	59		 pop	 ecx
  0058e	89 4d f0	 mov	 DWORD PTR _this$[ebp], ecx
  00591	8b 45 f0	 mov	 eax, DWORD PTR _this$[ebp]
  00594	c7 00 00 00 00
	00		 mov	 DWORD PTR [eax], OFFSET FLAT:??_7CSkinButton2@@6B@
  0059a	c7 45 fc 03 00
	00 00		 mov	 DWORD PTR __$EHRec$[ebp+8], 3

; 58   : 	if(m_pToolTip)	delete m_pToolTip;

  005a1	8b 4d f0	 mov	 ecx, DWORD PTR _this$[ebp]
  005a4	83 79 74 00	 cmp	 DWORD PTR [ecx+116], 0
  005a8	74 37		 je	 SHORT $L187221
  005aa	8b 55 f0	 mov	 edx, DWORD PTR _this$[ebp]
  005ad	8b 42 74	 mov	 eax, DWORD PTR [edx+116]
  005b0	89 45 e8	 mov	 DWORD PTR $T188252[ebp], eax
  005b3	8b 4d e8	 mov	 ecx, DWORD PTR $T188252[ebp]
  005b6	89 4d ec	 mov	 DWORD PTR $T188251[ebp], ecx
  005b9	83 7d ec 00	 cmp	 DWORD PTR $T188251[ebp], 0
  005bd	74 1b		 je	 SHORT $L188253
  005bf	8b f4		 mov	 esi, esp
  005c1	6a 01		 push	 1
  005c3	8b 55 ec	 mov	 edx, DWORD PTR $T188251[ebp]
  005c6	8b 02		 mov	 eax, DWORD PTR [edx]
  005c8	8b 4d ec	 mov	 ecx, DWORD PTR $T188251[ebp]
  005cb	ff 50 04	 call	 DWORD PTR [eax+4]
  005ce	3b f4		 cmp	 esi, esp
  005d0	e8 00 00 00 00	 call	 __RTC_CheckEsp
  005d5	89 45 d4	 mov	 DWORD PTR tv86[ebp], eax
  005d8	eb 07		 jmp	 SHORT $L187221
$L188253:
  005da	c7 45 d4 00 00
	00 00		 mov	 DWORD PTR tv86[ebp], 0
$L187221:

; 59   : 	if(m_pPngImage) delete m_pPngImage;

  005e1	8b 4d f0	 mov	 ecx, DWORD PTR _this$[ebp]
  005e4	83 79 7c 00	 cmp	 DWORD PTR [ecx+124], 0
  005e8	74 36		 je	 SHORT $L187224
  005ea	8b 55 f0	 mov	 edx, DWORD PTR _this$[ebp]
  005ed	8b 42 7c	 mov	 eax, DWORD PTR [edx+124]
  005f0	89 45 e0	 mov	 DWORD PTR $T188256[ebp], eax
  005f3	8b 4d e0	 mov	 ecx, DWORD PTR $T188256[ebp]
  005f6	89 4d e4	 mov	 DWORD PTR $T188255[ebp], ecx
  005f9	83 7d e4 00	 cmp	 DWORD PTR $T188255[ebp], 0
  005fd	74 1a		 je	 SHORT $L188257
  005ff	8b f4		 mov	 esi, esp
  00601	6a 01		 push	 1
  00603	8b 55 e4	 mov	 edx, DWORD PTR $T188255[ebp]
  00606	8b 02		 mov	 eax, DWORD PTR [edx]
  00608	8b 4d e4	 mov	 ecx, DWORD PTR $T188255[ebp]
  0060b	ff 10		 call	 DWORD PTR [eax]
  0060d	3b f4		 cmp	 esi, esp
  0060f	e8 00 00 00 00	 call	 __RTC_CheckEsp
  00614	89 45 d0	 mov	 DWORD PTR tv128[ebp], eax
  00617	eb 07		 jmp	 SHORT $L187224
$L188257:
  00619	c7 45 d0 00 00
	00 00		 mov	 DWORD PTR tv128[ebp], 0
$L187224:

; 60   : 	delete mp_font;

  00620	8b 4d f0	 mov	 ecx, DWORD PTR _this$[ebp]
  00623	8b 91 80 01 00
	00		 mov	 edx, DWORD PTR [ecx+384]
  00629	89 55 d8	 mov	 DWORD PTR $T188260[ebp], edx
  0062c	8b 45 d8	 mov	 eax, DWORD PTR $T188260[ebp]
  0062f	89 45 dc	 mov	 DWORD PTR $T188259[ebp], eax
  00632	83 7d dc 00	 cmp	 DWORD PTR $T188259[ebp], 0
  00636	74 0f		 je	 SHORT $L188261
  00638	6a 01		 push	 1
  0063a	8b 4d dc	 mov	 ecx, DWORD PTR $T188259[ebp]
  0063d	e8 00 00 00 00	 call	 ??_GFont@Gdiplus@@QAEPAXI@Z
  00642	89 45 cc	 mov	 DWORD PTR tv134[ebp], eax
  00645	eb 07		 jmp	 SHORT $L187220
$L188261:
  00647	c7 45 cc 00 00
	00 00		 mov	 DWORD PTR tv134[ebp], 0
$L187220:

; 61   : }

  0064e	c6 45 fc 02	 mov	 BYTE PTR __$EHRec$[ebp+8], 2
  00652	8b 4d f0	 mov	 ecx, DWORD PTR _this$[ebp]
  00655	81 c1 64 01 00
	00		 add	 ecx, 356		; 00000164H
  0065b	8b f4		 mov	 esi, esp
  0065d	ff 15 00 00 00
	00		 call	 DWORD PTR __imp_??1?$CStringT@DV?$StrTraitMFC_DLL@DV?$ChTraitsCRT@D@ATL@@@@@ATL@@QAE@XZ
  00663	3b f4		 cmp	 esi, esp
  00665	e8 00 00 00 00	 call	 __RTC_CheckEsp
  0066a	c6 45 fc 01	 mov	 BYTE PTR __$EHRec$[ebp+8], 1
  0066e	8b 4d f0	 mov	 ecx, DWORD PTR _this$[ebp]
  00671	81 c1 8c 00 00
	00		 add	 ecx, 140		; 0000008cH
  00677	e8 00 00 00 00	 call	 ??1CDC@@UAE@XZ		; CDC::~CDC
  0067c	c6 45 fc 00	 mov	 BYTE PTR __$EHRec$[ebp+8], 0
  00680	8b 4d f0	 mov	 ecx, DWORD PTR _this$[ebp]
  00683	83 c1 78	 add	 ecx, 120		; 00000078H
  00686	8b f4		 mov	 esi, esp
  00688	ff 15 00 00 00
	00		 call	 DWORD PTR __imp_??1?$CStringT@DV?$StrTraitMFC_DLL@DV?$ChTraitsCRT@D@ATL@@@@@ATL@@QAE@XZ
  0068e	3b f4		 cmp	 esi, esp
  00690	e8 00 00 00 00	 call	 __RTC_CheckEsp
  00695	c7 45 fc ff ff
	ff ff		 mov	 DWORD PTR __$EHRec$[ebp+8], -1
  0069c	8b 4d f0	 mov	 ecx, DWORD PTR _this$[ebp]
  0069f	e8 00 00 00 00	 call	 ??1CButton@@UAE@XZ	; CButton::~CButton
  006a4	8b 4d f4	 mov	 ecx, DWORD PTR __$EHRec$[ebp]
  006a7	64 89 0d 00 00
	00 00		 mov	 DWORD PTR fs:__except_list, ecx
  006ae	5f		 pop	 edi
  006af	5e		 pop	 esi
  006b0	83 c4 34	 add	 esp, 52			; 00000034H
  006b3	3b ec		 cmp	 ebp, esp
  006b5	e8 00 00 00 00	 call	 __RTC_CheckEsp
  006ba	8b e5		 mov	 esp, ebp
  006bc	5d		 pop	 ebp
  006bd	c3		 ret	 0
_TEXT	ENDS
text$x	SEGMENT
$L188263:
  00066	8b 4d f0	 mov	 ecx, DWORD PTR _this$[ebp]
  00069	e9 00 00 00 00	 jmp	 ??1CButton@@UAE@XZ	; CButton::~CButton
$L188264:
  0006e	8b 4d f0	 mov	 ecx, DWORD PTR _this$[ebp]
  00071	83 c1 78	 add	 ecx, 120		; 00000078H
  00074	8b f4		 mov	 esi, esp
  00076	ff 15 00 00 00
	00		 call	 DWORD PTR __imp_??1?$CStringT@DV?$StrTraitMFC_DLL@DV?$ChTraitsCRT@D@ATL@@@@@ATL@@QAE@XZ
  0007c	3b f4		 cmp	 esi, esp
  0007e	e9 00 00 00 00	 jmp	 __RTC_CheckEsp
$L188265:
  00083	8b 4d f0	 mov	 ecx, DWORD PTR _this$[ebp]
  00086	81 c1 8c 00 00
	00		 add	 ecx, 140		; 0000008cH
  0008c	e9 00 00 00 00	 jmp	 ??1CDC@@UAE@XZ		; CDC::~CDC
$L188266:
  00091	8b 4d f0	 mov	 ecx, DWORD PTR _this$[ebp]
  00094	81 c1 64 01 00
	00		 add	 ecx, 356		; 00000164H
  0009a	8b f4		 mov	 esi, esp
  0009c	ff 15 00 00 00
	00		 call	 DWORD PTR __imp_??1?$CStringT@DV?$StrTraitMFC_DLL@DV?$ChTraitsCRT@D@ATL@@@@@ATL@@QAE@XZ
  000a2	3b f4		 cmp	 esi, esp
  000a4	e9 00 00 00 00	 jmp	 __RTC_CheckEsp
__ehhandler$??1CSkinButton2@@UAE@XZ:
  000a9	b8 00 00 00 00	 mov	 eax, OFFSET FLAT:$T188268
  000ae	e9 00 00 00 00	 jmp	 ___CxxFrameHandler
text$x	ENDS
??1CSkinButton2@@UAE@XZ ENDP				; CSkinButton2::~CSkinButton2
PUBLIC	??1Font@Gdiplus@@QAE@XZ				; Gdiplus::Font::~Font
; Function compile flags: /Odt /RTCsu
;	COMDAT ??_GFont@Gdiplus@@QAEPAXI@Z
_TEXT	SEGMENT
_this$ = -4						; size = 4
___flags$ = 8						; size = 4
??_GFont@Gdiplus@@QAEPAXI@Z PROC NEAR			; Gdiplus::Font::`scalar deleting destructor', COMDAT
; _this$ = ecx
  00000	55		 push	 ebp
  00001	8b ec		 mov	 ebp, esp
  00003	51		 push	 ecx
  00004	c7 45 fc cc cc
	cc cc		 mov	 DWORD PTR [ebp-4], -858993460 ; ccccccccH
  0000b	89 4d fc	 mov	 DWORD PTR _this$[ebp], ecx
  0000e	8b 4d fc	 mov	 ecx, DWORD PTR _this$[ebp]
  00011	e8 00 00 00 00	 call	 ??1Font@Gdiplus@@QAE@XZ	; Gdiplus::Font::~Font
  00016	8b 45 08	 mov	 eax, DWORD PTR ___flags$[ebp]
  00019	83 e0 01	 and	 eax, 1
  0001c	74 0c		 je	 SHORT $L187232
  0001e	8b 4d fc	 mov	 ecx, DWORD PTR _this$[ebp]
  00021	51		 push	 ecx
  00022	e8 00 00 00 00	 call	 ??3GdiplusBase@Gdiplus@@SAXPAX@Z ; Gdiplus::GdiplusBase::operator delete
  00027	83 c4 04	 add	 esp, 4
$L187232:
  0002a	8b 45 fc	 mov	 eax, DWORD PTR _this$[ebp]
  0002d	83 c4 04	 add	 esp, 4
  00030	3b ec		 cmp	 ebp, esp
  00032	e8 00 00 00 00	 call	 __RTC_CheckEsp
  00037	8b e5		 mov	 esp, ebp
  00039	5d		 pop	 ebp
  0003a	c2 04 00	 ret	 4
??_GFont@Gdiplus@@QAEPAXI@Z ENDP			; Gdiplus::Font::`scalar deleting destructor'
_TEXT	ENDS
PUBLIC	?GetThisMessageMap@CSkinButton2@@KGPBUAFX_MSGMAP@@XZ ; CSkinButton2::GetThisMessageMap
; Function compile flags: /Odt /RTCsu
_TEXT	SEGMENT
?GetThisMessageMap@CSkinButton2@@KGPBUAFX_MSGMAP@@XZ PROC NEAR ; CSkinButton2::GetThisMessageMap

; 63   : BEGIN_MESSAGE_MAP(CSkinButton2, CButton)

  006c0	55		 push	 ebp
  006c1	8b ec		 mov	 ebp, esp
  006c3	b8 00 00 00 00	 mov	 eax, OFFSET FLAT:?messageMap@CSkinButton2@@1UAFX_MSGMAP@@B ; CSkinButton2::messageMap
  006c8	5d		 pop	 ebp
  006c9	c3		 ret	 0
?GetThisMessageMap@CSkinButton2@@KGPBUAFX_MSGMAP@@XZ ENDP ; CSkinButton2::GetThisMessageMap
; Function compile flags: /Odt /RTCsu
_this$ = -4						; size = 4
?GetMessageMap@CSkinButton2@@MBEPBUAFX_MSGMAP@@XZ PROC NEAR ; CSkinButton2::GetMessageMap
; _this$ = ecx

; 63   : BEGIN_MESSAGE_MAP(CSkinButton2, CButton)

  006d0	55		 push	 ebp
  006d1	8b ec		 mov	 ebp, esp
  006d3	51		 push	 ecx
  006d4	c7 45 fc cc cc
	cc cc		 mov	 DWORD PTR [ebp-4], -858993460 ; ccccccccH
  006db	89 4d fc	 mov	 DWORD PTR _this$[ebp], ecx
  006de	b8 00 00 00 00	 mov	 eax, OFFSET FLAT:?messageMap@CSkinButton2@@1UAFX_MSGMAP@@B ; CSkinButton2::messageMap
  006e3	8b e5		 mov	 esp, ebp
  006e5	5d		 pop	 ebp
  006e6	c3		 ret	 0
?GetMessageMap@CSkinButton2@@MBEPBUAFX_MSGMAP@@XZ ENDP	; CSkinButton2::GetMessageMap
_TEXT	ENDS
EXTRN	?OnCreate@CWnd@@IAEHPAUtagCREATESTRUCTA@@@Z:NEAR ; CWnd::OnCreate
; Function compile flags: /Odt /RTCsu
_TEXT	SEGMENT
_this$ = -4						; size = 4
_lpCreateStruct$ = 8					; size = 4
?OnCreate@CSkinButton2@@QAEHPAUtagCREATESTRUCTA@@@Z PROC NEAR ; CSkinButton2::OnCreate
; _this$ = ecx

; 77   : {

  006f0	55		 push	 ebp
  006f1	8b ec		 mov	 ebp, esp
  006f3	51		 push	 ecx
  006f4	c7 45 fc cc cc
	cc cc		 mov	 DWORD PTR [ebp-4], -858993460 ; ccccccccH
  006fb	89 4d fc	 mov	 DWORD PTR _this$[ebp], ecx

; 78   : 	if (CButton::OnCreate(lpCreateStruct) == -1)

  006fe	8b 45 08	 mov	 eax, DWORD PTR _lpCreateStruct$[ebp]
  00701	50		 push	 eax
  00702	8b 4d fc	 mov	 ecx, DWORD PTR _this$[ebp]
  00705	e8 00 00 00 00	 call	 ?OnCreate@CWnd@@IAEHPAUtagCREATESTRUCTA@@@Z ; CWnd::OnCreate
  0070a	83 f8 ff	 cmp	 eax, -1
  0070d	75 05		 jne	 SHORT $L187276

; 79   : 		return -1;

  0070f	83 c8 ff	 or	 eax, -1
  00712	eb 02		 jmp	 SHORT $L187275
$L187276:

; 80   : 
; 81   : 	return 0;

  00714	33 c0		 xor	 eax, eax
$L187275:

; 82   : }

  00716	83 c4 04	 add	 esp, 4
  00719	3b ec		 cmp	 ebp, esp
  0071b	e8 00 00 00 00	 call	 __RTC_CheckEsp
  00720	8b e5		 mov	 esp, ebp
  00722	5d		 pop	 ebp
  00723	c2 04 00	 ret	 4
?OnCreate@CSkinButton2@@QAEHPAUtagCREATESTRUCTA@@@Z ENDP ; CSkinButton2::OnCreate
_TEXT	ENDS
PUBLIC	?SetCheck@CSkinButton2@@QAEXH@Z			; CSkinButton2::SetCheck
EXTRN	?GetWindowRectInParentCoordinates@CGdiEx@@QAEHPAUHWND__@@PAUtagRECT@@@Z:NEAR ; CGdiEx::GetWindowRectInParentCoordinates
EXTRN	?InvalidateRect@CWnd@@QAEXPBUtagRECT@@H@Z:NEAR	; CWnd::InvalidateRect
EXTRN	?RedrawWindow@CWnd@@QAEHPBUtagRECT@@PAVCRgn@@I@Z:NEAR ; CWnd::RedrawWindow
EXTRN	?gGdiExOperate@@3VCGdiEx@@A:DWORD		; gGdiExOperate
EXTRN	?GetParent@CWnd@@QBEPAV1@XZ:NEAR		; CWnd::GetParent
; Function compile flags: /Odt /RTCsu
_TEXT	SEGMENT
_rect$ = -24						; size = 16
_this$ = -4						; size = 4
_nCheck$ = 8						; size = 4
?SetCheck@CSkinButton2@@QAEXH@Z PROC NEAR		; CSkinButton2::SetCheck
; _this$ = ecx

; 84   : {

  00730	55		 push	 ebp
  00731	8b ec		 mov	 ebp, esp
  00733	83 ec 1c	 sub	 esp, 28			; 0000001cH
  00736	b8 cc cc cc cc	 mov	 eax, -858993460		; ccccccccH
  0073b	89 45 e4	 mov	 DWORD PTR [ebp-28], eax
  0073e	89 45 e8	 mov	 DWORD PTR [ebp-24], eax
  00741	89 45 ec	 mov	 DWORD PTR [ebp-20], eax
  00744	89 45 f0	 mov	 DWORD PTR [ebp-16], eax
  00747	89 45 f4	 mov	 DWORD PTR [ebp-12], eax
  0074a	89 45 f8	 mov	 DWORD PTR [ebp-8], eax
  0074d	89 45 fc	 mov	 DWORD PTR [ebp-4], eax
  00750	89 4d fc	 mov	 DWORD PTR _this$[ebp], ecx

; 85   : 	m_bSelected = BOOL(nCheck);

  00753	8b 45 fc	 mov	 eax, DWORD PTR _this$[ebp]
  00756	8b 4d 08	 mov	 ecx, DWORD PTR _nCheck$[ebp]
  00759	89 88 84 00 00
	00		 mov	 DWORD PTR [eax+132], ecx

; 86   : 	if( !m_bSelected )

  0075f	8b 55 fc	 mov	 edx, DWORD PTR _this$[ebp]
  00762	83 ba 84 00 00
	00 00		 cmp	 DWORD PTR [edx+132], 0
  00769	75 0d		 jne	 SHORT $L187281

; 87   : 	{
; 88   : 		m_bMouseDown = false;

  0076b	8b 45 fc	 mov	 eax, DWORD PTR _this$[ebp]
  0076e	c7 80 88 00 00
	00 00 00 00 00	 mov	 DWORD PTR [eax+136], 0
$L187281:

; 89   : 	}
; 90   : 	this->RedrawWindow(NULL, NULL, RDW_INVALIDATE | RDW_UPDATENOW | RDW_ERASE | RDW_ALLCHILDREN);

  00778	68 85 01 00 00	 push	 389			; 00000185H
  0077d	6a 00		 push	 0
  0077f	6a 00		 push	 0
  00781	8b 4d fc	 mov	 ecx, DWORD PTR _this$[ebp]
  00784	e8 00 00 00 00	 call	 ?RedrawWindow@CWnd@@QAEHPBUtagRECT@@PAVCRgn@@I@Z ; CWnd::RedrawWindow

; 91   : 
; 92   : 	CRect rect;

  00789	8d 4d e8	 lea	 ecx, DWORD PTR _rect$[ebp]
  0078c	e8 00 00 00 00	 call	 ??0CRect@@QAE@XZ	; CRect::CRect

; 93   : 	gGdiExOperate.GetWindowRectInParentCoordinates( this->m_hWnd, &rect );

  00791	8d 4d e8	 lea	 ecx, DWORD PTR _rect$[ebp]
  00794	51		 push	 ecx
  00795	8b 55 fc	 mov	 edx, DWORD PTR _this$[ebp]
  00798	8b 42 20	 mov	 eax, DWORD PTR [edx+32]
  0079b	50		 push	 eax
  0079c	b9 00 00 00 00	 mov	 ecx, OFFSET FLAT:?gGdiExOperate@@3VCGdiEx@@A ; gGdiExOperate
  007a1	e8 00 00 00 00	 call	 ?GetWindowRectInParentCoordinates@CGdiEx@@QAEHPAUHWND__@@PAUtagRECT@@@Z ; CGdiEx::GetWindowRectInParentCoordinates

; 94   : 	this->GetParent()->InvalidateRect( &rect, TRUE );

  007a6	6a 01		 push	 1
  007a8	8d 4d e8	 lea	 ecx, DWORD PTR _rect$[ebp]
  007ab	51		 push	 ecx
  007ac	8b 4d fc	 mov	 ecx, DWORD PTR _this$[ebp]
  007af	e8 00 00 00 00	 call	 ?GetParent@CWnd@@QBEPAV1@XZ ; CWnd::GetParent
  007b4	8b c8		 mov	 ecx, eax
  007b6	e8 00 00 00 00	 call	 ?InvalidateRect@CWnd@@QAEXPBUtagRECT@@H@Z ; CWnd::InvalidateRect

; 95   : }

  007bb	52		 push	 edx
  007bc	8b cd		 mov	 ecx, ebp
  007be	50		 push	 eax
  007bf	8d 15 00 00 00
	00		 lea	 edx, DWORD PTR $L188278
  007c5	e8 00 00 00 00	 call	 @_RTC_CheckStackVars@8
  007ca	58		 pop	 eax
  007cb	5a		 pop	 edx
  007cc	83 c4 1c	 add	 esp, 28			; 0000001cH
  007cf	3b ec		 cmp	 ebp, esp
  007d1	e8 00 00 00 00	 call	 __RTC_CheckEsp
  007d6	8b e5		 mov	 esp, ebp
  007d8	5d		 pop	 ebp
  007d9	c2 04 00	 ret	 4
$L188278:
  007dc	01 00 00 00	 DD	 1
  007e0	00 00 00 00	 DD	 $L188277
$L188277:
  007e4	e8 ff ff ff	 DD	 -24			; ffffffe8H
  007e8	10 00 00 00	 DD	 16			; 00000010H
  007ec	00 00 00 00	 DD	 $L188276
$L188276:
  007f0	72		 DB	 114			; 00000072H
  007f1	65		 DB	 101			; 00000065H
  007f2	63		 DB	 99			; 00000063H
  007f3	74		 DB	 116			; 00000074H
  007f4	00		 DB	 0
?SetCheck@CSkinButton2@@QAEXH@Z ENDP			; CSkinButton2::SetCheck
_TEXT	ENDS
PUBLIC	?GetCheck@CSkinButton2@@QBEHXZ			; CSkinButton2::GetCheck
; Function compile flags: /Odt /RTCsu
_TEXT	SEGMENT
_this$ = -4						; size = 4
?GetCheck@CSkinButton2@@QBEHXZ PROC NEAR		; CSkinButton2::GetCheck
; _this$ = ecx

; 97   : {

  00800	55		 push	 ebp
  00801	8b ec		 mov	 ebp, esp
  00803	51		 push	 ecx
  00804	c7 45 fc cc cc
	cc cc		 mov	 DWORD PTR [ebp-4], -858993460 ; ccccccccH
  0080b	89 4d fc	 mov	 DWORD PTR _this$[ebp], ecx

; 98   : 	return (int)m_bSelected;

  0080e	8b 45 fc	 mov	 eax, DWORD PTR _this$[ebp]
  00811	8b 80 84 00 00
	00		 mov	 eax, DWORD PTR [eax+132]

; 99   : }

  00817	8b e5		 mov	 esp, ebp
  00819	5d		 pop	 ebp
  0081a	c3		 ret	 0
?GetCheck@CSkinButton2@@QBEHXZ ENDP			; CSkinButton2::GetCheck
_TEXT	ENDS
PUBLIC	??0CGdiPlusBitmap@@QAE@XZ			; CGdiPlusBitmap::CGdiPlusBitmap
PUBLIC	?Load@CGdiPlusBitmap@@QAE_NPB_W@Z		; CGdiPlusBitmap::Load
PUBLIC	?SetSkin@CSkinButton2@@QAEHV?$CStringT@DV?$StrTraitMFC_DLL@DV?$ChTraitsCRT@D@ATL@@@@@ATL@@H@Z ; CSkinButton2::SetSkin
EXTRN	??2@YAPAXI@Z:NEAR				; operator new
EXTRN	??3@YAXPAX@Z:NEAR				; operator delete
EXTRN	__imp__MultiByteToWideChar@24:NEAR
EXTRN	__imp_??B?$CSimpleStringT@D$00@ATL@@QBEPBDXZ:NEAR
EXTRN	?Invalidate@CWnd@@QAEXH@Z:NEAR			; CWnd::Invalidate
EXTRN	___security_cookie:DWORD
EXTRN	@__security_check_cookie@4:NEAR
xdata$x	SEGMENT
$T188302 DD	0ffffffffH
	DD	FLAT:$L188291
	DD	00H
	DD	FLAT:$L188292
$T188294 DD	019930520H
	DD	02H
	DD	FLAT:$T188302
	DD	2 DUP(00H)
	DD	2 DUP(00H)
; Function compile flags: /Odt /RTCsu
xdata$x	ENDS
_TEXT	SEGMENT
tv83 = -580						; size = 4
tv74 = -576						; size = 4
$T188290 = -572						; size = 4
$T188287 = -568						; size = 4
$T188286 = -564						; size = 4
$T188283 = -560						; size = 4
$T188282 = -556						; size = 4
_bReturn$ = -549					; size = 1
_wFile$ = -544						; size = 520
_this$ = -20						; size = 4
__$ArrayPad$ = -16					; size = 4
__$EHRec$ = -12						; size = 12
__$ReturnAddr$ = 4					; size = 4
_str$ = 8						; size = 4
_bDisable$ = 12						; size = 4
?SetSkin@CSkinButton2@@QAEHV?$CStringT@DV?$StrTraitMFC_DLL@DV?$ChTraitsCRT@D@ATL@@@@@ATL@@H@Z PROC NEAR ; CSkinButton2::SetSkin
; _this$ = ecx

; 101  : {

  00820	55		 push	 ebp
  00821	8b ec		 mov	 ebp, esp
  00823	6a ff		 push	 -1
  00825	68 00 00 00 00	 push	 __ehhandler$?SetSkin@CSkinButton2@@QAEHV?$CStringT@DV?$StrTraitMFC_DLL@DV?$ChTraitsCRT@D@ATL@@@@@ATL@@H@Z
  0082a	64 a1 00 00 00
	00		 mov	 eax, DWORD PTR fs:__except_list
  00830	50		 push	 eax
  00831	64 89 25 00 00
	00 00		 mov	 DWORD PTR fs:__except_list, esp
  00838	81 ec 38 02 00
	00		 sub	 esp, 568		; 00000238H
  0083e	56		 push	 esi
  0083f	57		 push	 edi
  00840	51		 push	 ecx
  00841	8d bd bc fd ff
	ff		 lea	 edi, DWORD PTR [ebp-580]
  00847	b9 8e 00 00 00	 mov	 ecx, 142		; 0000008eH
  0084c	b8 cc cc cc cc	 mov	 eax, -858993460		; ccccccccH
  00851	f3 ab		 rep stosd
  00853	59		 pop	 ecx
  00854	a1 00 00 00 00	 mov	 eax, DWORD PTR ___security_cookie
  00859	89 45 f0	 mov	 DWORD PTR __$ArrayPad$[ebp], eax
  0085c	89 4d ec	 mov	 DWORD PTR _this$[ebp], ecx
  0085f	c7 45 fc 00 00
	00 00		 mov	 DWORD PTR __$EHRec$[ebp+8], 0

; 102  : 	if( m_pPngImage != NULL )

  00866	8b 45 ec	 mov	 eax, DWORD PTR _this$[ebp]
  00869	83 78 7c 00	 cmp	 DWORD PTR [eax+124], 0
  0086d	74 4e		 je	 SHORT $L187292

; 103  : 		delete m_pPngImage;

  0086f	8b 4d ec	 mov	 ecx, DWORD PTR _this$[ebp]
  00872	8b 51 7c	 mov	 edx, DWORD PTR [ecx+124]
  00875	89 95 d0 fd ff
	ff		 mov	 DWORD PTR $T188283[ebp], edx
  0087b	8b 85 d0 fd ff
	ff		 mov	 eax, DWORD PTR $T188283[ebp]
  00881	89 85 d4 fd ff
	ff		 mov	 DWORD PTR $T188282[ebp], eax
  00887	83 bd d4 fd ff
	ff 00		 cmp	 DWORD PTR $T188282[ebp], 0
  0088e	74 23		 je	 SHORT $L188284
  00890	8b f4		 mov	 esi, esp
  00892	6a 01		 push	 1
  00894	8b 8d d4 fd ff
	ff		 mov	 ecx, DWORD PTR $T188282[ebp]
  0089a	8b 11		 mov	 edx, DWORD PTR [ecx]
  0089c	8b 8d d4 fd ff
	ff		 mov	 ecx, DWORD PTR $T188282[ebp]
  008a2	ff 12		 call	 DWORD PTR [edx]
  008a4	3b f4		 cmp	 esi, esp
  008a6	e8 00 00 00 00	 call	 __RTC_CheckEsp
  008ab	89 85 c0 fd ff
	ff		 mov	 DWORD PTR tv74[ebp], eax
  008b1	eb 0a		 jmp	 SHORT $L187292
$L188284:
  008b3	c7 85 c0 fd ff
	ff 00 00 00 00	 mov	 DWORD PTR tv74[ebp], 0
$L187292:

; 104  : 	m_pPngImage = new CGdiPlusBitmap;

  008bd	6a 08		 push	 8
  008bf	e8 00 00 00 00	 call	 ??2@YAPAXI@Z		; operator new
  008c4	83 c4 04	 add	 esp, 4
  008c7	89 85 c8 fd ff
	ff		 mov	 DWORD PTR $T188287[ebp], eax
  008cd	c6 45 fc 01	 mov	 BYTE PTR __$EHRec$[ebp+8], 1
  008d1	83 bd c8 fd ff
	ff 00		 cmp	 DWORD PTR $T188287[ebp], 0
  008d8	74 13		 je	 SHORT $L188288
  008da	8b 8d c8 fd ff
	ff		 mov	 ecx, DWORD PTR $T188287[ebp]
  008e0	e8 00 00 00 00	 call	 ??0CGdiPlusBitmap@@QAE@XZ ; CGdiPlusBitmap::CGdiPlusBitmap
  008e5	89 85 bc fd ff
	ff		 mov	 DWORD PTR tv83[ebp], eax
  008eb	eb 0a		 jmp	 SHORT $L188289
$L188288:
  008ed	c7 85 bc fd ff
	ff 00 00 00 00	 mov	 DWORD PTR tv83[ebp], 0
$L188289:
  008f7	8b 85 bc fd ff
	ff		 mov	 eax, DWORD PTR tv83[ebp]
  008fd	89 85 cc fd ff
	ff		 mov	 DWORD PTR $T188286[ebp], eax
  00903	c6 45 fc 00	 mov	 BYTE PTR __$EHRec$[ebp+8], 0
  00907	8b 4d ec	 mov	 ecx, DWORD PTR _this$[ebp]
  0090a	8b 95 cc fd ff
	ff		 mov	 edx, DWORD PTR $T188286[ebp]
  00910	89 51 7c	 mov	 DWORD PTR [ecx+124], edx

; 105  : 
; 106  : 	WCHAR   wFile[MAX_PATH];   
; 107  : #ifndef   UNICODE   
; 108  : 	MultiByteToWideChar(CP_ACP,   0,   LPCTSTR(str),   -1,   wFile,   MAX_PATH);   

  00913	8b f4		 mov	 esi, esp
  00915	68 04 01 00 00	 push	 260			; 00000104H
  0091a	8d 85 e0 fd ff
	ff		 lea	 eax, DWORD PTR _wFile$[ebp]
  00920	50		 push	 eax
  00921	6a ff		 push	 -1
  00923	8b fc		 mov	 edi, esp
  00925	8d 4d 08	 lea	 ecx, DWORD PTR _str$[ebp]
  00928	ff 15 00 00 00
	00		 call	 DWORD PTR __imp_??B?$CSimpleStringT@D$00@ATL@@QBEPBDXZ
  0092e	3b fc		 cmp	 edi, esp
  00930	e8 00 00 00 00	 call	 __RTC_CheckEsp
  00935	50		 push	 eax
  00936	6a 00		 push	 0
  00938	6a 00		 push	 0
  0093a	ff 15 00 00 00
	00		 call	 DWORD PTR __imp__MultiByteToWideChar@24
  00940	3b f4		 cmp	 esi, esp
  00942	e8 00 00 00 00	 call	 __RTC_CheckEsp

; 109  : #else   
; 110  : 	lstrcpy(wFile,   szFile);   
; 111  : #endif   
; 112  : 	bool bReturn = m_pPngImage->Load( wFile );

  00947	8d 8d e0 fd ff
	ff		 lea	 ecx, DWORD PTR _wFile$[ebp]
  0094d	51		 push	 ecx
  0094e	8b 55 ec	 mov	 edx, DWORD PTR _this$[ebp]
  00951	8b 4a 7c	 mov	 ecx, DWORD PTR [edx+124]
  00954	e8 00 00 00 00	 call	 ?Load@CGdiPlusBitmap@@QAE_NPB_W@Z ; CGdiPlusBitmap::Load
  00959	88 85 db fd ff
	ff		 mov	 BYTE PTR _bReturn$[ebp], al

; 113  : 	if( bReturn ) this->Invalidate();

  0095f	0f b6 85 db fd
	ff ff		 movzx	 eax, BYTE PTR _bReturn$[ebp]
  00966	85 c0		 test	 eax, eax
  00968	74 0a		 je	 SHORT $L187301
  0096a	6a 01		 push	 1
  0096c	8b 4d ec	 mov	 ecx, DWORD PTR _this$[ebp]
  0096f	e8 00 00 00 00	 call	 ?Invalidate@CWnd@@QAEXH@Z ; CWnd::Invalidate
$L187301:

; 114  : 
; 115  : 	m_bDisable = bDisable;

  00974	8b 4d ec	 mov	 ecx, DWORD PTR _this$[ebp]
  00977	8b 55 0c	 mov	 edx, DWORD PTR _bDisable$[ebp]
  0097a	89 91 84 01 00
	00		 mov	 DWORD PTR [ecx+388], edx

; 116  : 	return bReturn;

  00980	0f b6 85 db fd
	ff ff		 movzx	 eax, BYTE PTR _bReturn$[ebp]
  00987	89 85 c4 fd ff
	ff		 mov	 DWORD PTR $T188290[ebp], eax
  0098d	c7 45 fc ff ff
	ff ff		 mov	 DWORD PTR __$EHRec$[ebp+8], -1
  00994	8b f4		 mov	 esi, esp
  00996	8d 4d 08	 lea	 ecx, DWORD PTR _str$[ebp]
  00999	ff 15 00 00 00
	00		 call	 DWORD PTR __imp_??1?$CStringT@DV?$StrTraitMFC_DLL@DV?$ChTraitsCRT@D@ATL@@@@@ATL@@QAE@XZ
  0099f	3b f4		 cmp	 esi, esp
  009a1	e8 00 00 00 00	 call	 __RTC_CheckEsp
  009a6	8b 85 c4 fd ff
	ff		 mov	 eax, DWORD PTR $T188290[ebp]

; 117  : }

  009ac	52		 push	 edx
  009ad	8b cd		 mov	 ecx, ebp
  009af	50		 push	 eax
  009b0	8d 15 00 00 00
	00		 lea	 edx, DWORD PTR $L188300
  009b6	e8 00 00 00 00	 call	 @_RTC_CheckStackVars@8
  009bb	58		 pop	 eax
  009bc	5a		 pop	 edx
  009bd	8b 4d f4	 mov	 ecx, DWORD PTR __$EHRec$[ebp]
  009c0	64 89 0d 00 00
	00 00		 mov	 DWORD PTR fs:__except_list, ecx
  009c7	8b 4d f0	 mov	 ecx, DWORD PTR __$ArrayPad$[ebp]
  009ca	e8 00 00 00 00	 call	 @__security_check_cookie@4
  009cf	5f		 pop	 edi
  009d0	5e		 pop	 esi
  009d1	81 c4 44 02 00
	00		 add	 esp, 580		; 00000244H
  009d7	3b ec		 cmp	 ebp, esp
  009d9	e8 00 00 00 00	 call	 __RTC_CheckEsp
  009de	8b e5		 mov	 esp, ebp
  009e0	5d		 pop	 ebp
  009e1	c2 08 00	 ret	 8
$L188300:
  009e4	01 00 00 00	 DD	 1
  009e8	00 00 00 00	 DD	 $L188299
$L188299:
  009ec	e0 fd ff ff	 DD	 -544			; fffffde0H
  009f0	08 02 00 00	 DD	 520			; 00000208H
  009f4	00 00 00 00	 DD	 $L188295
$L188295:
  009f8	77		 DB	 119			; 00000077H
  009f9	46		 DB	 70			; 00000046H
  009fa	69		 DB	 105			; 00000069H
  009fb	6c		 DB	 108			; 0000006cH
  009fc	65		 DB	 101			; 00000065H
  009fd	00		 DB	 0
_TEXT	ENDS
text$x	SEGMENT
$L188291:
  000b3	8b f4		 mov	 esi, esp
  000b5	8d 4d 08	 lea	 ecx, DWORD PTR _str$[ebp]
  000b8	ff 15 00 00 00
	00		 call	 DWORD PTR __imp_??1?$CStringT@DV?$StrTraitMFC_DLL@DV?$ChTraitsCRT@D@ATL@@@@@ATL@@QAE@XZ
  000be	3b f4		 cmp	 esi, esp
  000c0	e9 00 00 00 00	 jmp	 __RTC_CheckEsp
$L188292:
  000c5	8b 85 c8 fd ff
	ff		 mov	 eax, DWORD PTR $T188287[ebp]
  000cb	50		 push	 eax
  000cc	e8 00 00 00 00	 call	 ??3@YAXPAX@Z		; operator delete
  000d1	59		 pop	 ecx
  000d2	c3		 ret	 0
__ehhandler$?SetSkin@CSkinButton2@@QAEHV?$CStringT@DV?$StrTraitMFC_DLL@DV?$ChTraitsCRT@D@ATL@@@@@ATL@@H@Z:
  000d3	b8 00 00 00 00	 mov	 eax, OFFSET FLAT:$T188294
  000d8	e9 00 00 00 00	 jmp	 ___CxxFrameHandler
text$x	ENDS
?SetSkin@CSkinButton2@@QAEHV?$CStringT@DV?$StrTraitMFC_DLL@DV?$ChTraitsCRT@D@ATL@@@@@ATL@@H@Z ENDP ; CSkinButton2::SetSkin
PUBLIC	??_R4CGdiPlusBitmap@@6B@			; CGdiPlusBitmap::`RTTI Complete Object Locator'
PUBLIC	??_R0?AVCGdiPlusBitmap@@@8			; CGdiPlusBitmap `RTTI Type Descriptor'
PUBLIC	??_R3CGdiPlusBitmap@@8				; CGdiPlusBitmap::`RTTI Class Hierarchy Descriptor'
PUBLIC	??_R2CGdiPlusBitmap@@8				; CGdiPlusBitmap::`RTTI Base Class Array'
PUBLIC	??_R1A@?0A@A@CGdiPlusBitmap@@8			; CGdiPlusBitmap::`RTTI Base Class Descriptor at (0,-1,0,0)'
PUBLIC	??_7CGdiPlusBitmap@@6B@				; CGdiPlusBitmap::`vftable'
PUBLIC	??_GCGdiPlusBitmap@@UAEPAXI@Z			; CGdiPlusBitmap::`scalar deleting destructor'
EXTRN	??_ECGdiPlusBitmap@@UAEPAXI@Z:NEAR		; CGdiPlusBitmap::`vector deleting destructor'
;	COMDAT ??_7CGdiPlusBitmap@@6B@
; File d:\boxgit\playbox\playbox\dev\prj\playbox\src\gui\commoncontrol\skinbutton2.h
CONST	SEGMENT
??_7CGdiPlusBitmap@@6B@ DD FLAT:??_R4CGdiPlusBitmap@@6B@ ; CGdiPlusBitmap::`vftable'
	DD	FLAT:??_ECGdiPlusBitmap@@UAEPAXI@Z
CONST	ENDS
;	COMDAT ??_R4CGdiPlusBitmap@@6B@
rdata$r	SEGMENT
??_R4CGdiPlusBitmap@@6B@ DD 00H				; CGdiPlusBitmap::`RTTI Complete Object Locator'
	DD	00H
	DD	00H
	DD	FLAT:??_R0?AVCGdiPlusBitmap@@@8
	DD	FLAT:??_R3CGdiPlusBitmap@@8
rdata$r	ENDS
;	COMDAT ??_R0?AVCGdiPlusBitmap@@@8
_DATA	SEGMENT
??_R0?AVCGdiPlusBitmap@@@8 DD FLAT:??_7type_info@@6B@	; CGdiPlusBitmap `RTTI Type Descriptor'
	DD	00H
	DB	'.?AVCGdiPlusBitmap@@', 00H
_DATA	ENDS
;	COMDAT ??_R3CGdiPlusBitmap@@8
rdata$r	SEGMENT
??_R3CGdiPlusBitmap@@8 DD 00H				; CGdiPlusBitmap::`RTTI Class Hierarchy Descriptor'
	DD	00H
	DD	01H
	DD	FLAT:??_R2CGdiPlusBitmap@@8
rdata$r	ENDS
;	COMDAT ??_R2CGdiPlusBitmap@@8
rdata$r	SEGMENT
??_R2CGdiPlusBitmap@@8 DD FLAT:??_R1A@?0A@A@CGdiPlusBitmap@@8 ; CGdiPlusBitmap::`RTTI Base Class Array'
rdata$r	ENDS
;	COMDAT ??_R1A@?0A@A@CGdiPlusBitmap@@8
rdata$r	SEGMENT
??_R1A@?0A@A@CGdiPlusBitmap@@8 DD FLAT:??_R0?AVCGdiPlusBitmap@@@8 ; CGdiPlusBitmap::`RTTI Base Class Descriptor at (0,-1,0,0)'
	DD	00H
	DD	00H
	DD	0ffffffffH
	DD	00H
	DD	00H
; Function compile flags: /Odt /RTCsu
rdata$r	ENDS
;	COMDAT ??0CGdiPlusBitmap@@QAE@XZ
_TEXT	SEGMENT
_this$ = -4						; size = 4
??0CGdiPlusBitmap@@QAE@XZ PROC NEAR			; CGdiPlusBitmap::CGdiPlusBitmap, COMDAT
; _this$ = ecx

; 13   : 	CGdiPlusBitmap()							{ m_pBitmap = NULL; }

  00000	55		 push	 ebp
  00001	8b ec		 mov	 ebp, esp
  00003	51		 push	 ecx
  00004	c7 45 fc cc cc
	cc cc		 mov	 DWORD PTR [ebp-4], -858993460 ; ccccccccH
  0000b	89 4d fc	 mov	 DWORD PTR _this$[ebp], ecx
  0000e	8b 45 fc	 mov	 eax, DWORD PTR _this$[ebp]
  00011	c7 00 00 00 00
	00		 mov	 DWORD PTR [eax], OFFSET FLAT:??_7CGdiPlusBitmap@@6B@
  00017	8b 4d fc	 mov	 ecx, DWORD PTR _this$[ebp]
  0001a	c7 41 04 00 00
	00 00		 mov	 DWORD PTR [ecx+4], 0
  00021	8b 45 fc	 mov	 eax, DWORD PTR _this$[ebp]
  00024	8b e5		 mov	 esp, ebp
  00026	5d		 pop	 ebp
  00027	c3		 ret	 0
??0CGdiPlusBitmap@@QAE@XZ ENDP				; CGdiPlusBitmap::CGdiPlusBitmap
_TEXT	ENDS
PUBLIC	?Empty@CGdiPlusBitmap@@QAEXXZ			; CGdiPlusBitmap::Empty
PUBLIC	?GetLastStatus@Image@Gdiplus@@QBE?AW4Status@2@XZ ; Gdiplus::Image::GetLastStatus
PUBLIC	?FromFile@Bitmap@Gdiplus@@SAPAV12@PB_WH@Z	; Gdiplus::Bitmap::FromFile
; Function compile flags: /Odt /RTCsu
;	COMDAT ?Load@CGdiPlusBitmap@@QAE_NPB_W@Z
_TEXT	SEGMENT
_this$ = -4						; size = 4
_pFile$ = 8						; size = 4
?Load@CGdiPlusBitmap@@QAE_NPB_W@Z PROC NEAR		; CGdiPlusBitmap::Load, COMDAT
; _this$ = ecx

; 20   : 	{

  00000	55		 push	 ebp
  00001	8b ec		 mov	 ebp, esp
  00003	51		 push	 ecx
  00004	c7 45 fc cc cc
	cc cc		 mov	 DWORD PTR [ebp-4], -858993460 ; ccccccccH
  0000b	89 4d fc	 mov	 DWORD PTR _this$[ebp], ecx

; 21   : 		
; 22   : 		Empty();

  0000e	8b 4d fc	 mov	 ecx, DWORD PTR _this$[ebp]
  00011	e8 00 00 00 00	 call	 ?Empty@CGdiPlusBitmap@@QAEXXZ ; CGdiPlusBitmap::Empty

; 23   : 		m_pBitmap = Gdiplus::Bitmap::FromFile(pFile);

  00016	6a 00		 push	 0
  00018	8b 45 08	 mov	 eax, DWORD PTR _pFile$[ebp]
  0001b	50		 push	 eax
  0001c	e8 00 00 00 00	 call	 ?FromFile@Bitmap@Gdiplus@@SAPAV12@PB_WH@Z ; Gdiplus::Bitmap::FromFile
  00021	83 c4 08	 add	 esp, 8
  00024	8b 4d fc	 mov	 ecx, DWORD PTR _this$[ebp]
  00027	89 41 04	 mov	 DWORD PTR [ecx+4], eax

; 24   : 		return m_pBitmap->GetLastStatus() == Gdiplus::Ok;

  0002a	8b 55 fc	 mov	 edx, DWORD PTR _this$[ebp]
  0002d	8b 4a 04	 mov	 ecx, DWORD PTR [edx+4]
  00030	e8 00 00 00 00	 call	 ?GetLastStatus@Image@Gdiplus@@QBE?AW4Status@2@XZ ; Gdiplus::Image::GetLastStatus
  00035	f7 d8		 neg	 eax
  00037	1b c0		 sbb	 eax, eax
  00039	40		 inc	 eax

; 25   : 	}

  0003a	83 c4 04	 add	 esp, 4
  0003d	3b ec		 cmp	 ebp, esp
  0003f	e8 00 00 00 00	 call	 __RTC_CheckEsp
  00044	8b e5		 mov	 esp, ebp
  00046	5d		 pop	 ebp
  00047	c2 04 00	 ret	 4
?Load@CGdiPlusBitmap@@QAE_NPB_W@Z ENDP			; CGdiPlusBitmap::Load
; Function compile flags: /Odt /RTCsu
_TEXT	ENDS
;	COMDAT ?Empty@CGdiPlusBitmap@@QAEXXZ
_TEXT	SEGMENT
tv71 = -16						; size = 4
$T188307 = -12						; size = 4
$T188306 = -8						; size = 4
_this$ = -4						; size = 4
?Empty@CGdiPlusBitmap@@QAEXXZ PROC NEAR			; CGdiPlusBitmap::Empty, COMDAT
; _this$ = ecx

; 17   : 	void Empty()								{ delete m_pBitmap; m_pBitmap = NULL; }

  00000	55		 push	 ebp
  00001	8b ec		 mov	 ebp, esp
  00003	83 ec 10	 sub	 esp, 16			; 00000010H
  00006	56		 push	 esi
  00007	b8 cc cc cc cc	 mov	 eax, -858993460		; ccccccccH
  0000c	89 45 f0	 mov	 DWORD PTR [ebp-16], eax
  0000f	89 45 f4	 mov	 DWORD PTR [ebp-12], eax
  00012	89 45 f8	 mov	 DWORD PTR [ebp-8], eax
  00015	89 45 fc	 mov	 DWORD PTR [ebp-4], eax
  00018	89 4d fc	 mov	 DWORD PTR _this$[ebp], ecx
  0001b	8b 45 fc	 mov	 eax, DWORD PTR _this$[ebp]
  0001e	8b 48 04	 mov	 ecx, DWORD PTR [eax+4]
  00021	89 4d f4	 mov	 DWORD PTR $T188307[ebp], ecx
  00024	8b 55 f4	 mov	 edx, DWORD PTR $T188307[ebp]
  00027	89 55 f8	 mov	 DWORD PTR $T188306[ebp], edx
  0002a	83 7d f8 00	 cmp	 DWORD PTR $T188306[ebp], 0
  0002e	74 1a		 je	 SHORT $L188308
  00030	8b f4		 mov	 esi, esp
  00032	6a 01		 push	 1
  00034	8b 45 f8	 mov	 eax, DWORD PTR $T188306[ebp]
  00037	8b 10		 mov	 edx, DWORD PTR [eax]
  00039	8b 4d f8	 mov	 ecx, DWORD PTR $T188306[ebp]
  0003c	ff 12		 call	 DWORD PTR [edx]
  0003e	3b f4		 cmp	 esi, esp
  00040	e8 00 00 00 00	 call	 __RTC_CheckEsp
  00045	89 45 f0	 mov	 DWORD PTR tv71[ebp], eax
  00048	eb 07		 jmp	 SHORT $L188309
$L188308:
  0004a	c7 45 f0 00 00
	00 00		 mov	 DWORD PTR tv71[ebp], 0
$L188309:
  00051	8b 45 fc	 mov	 eax, DWORD PTR _this$[ebp]
  00054	c7 40 04 00 00
	00 00		 mov	 DWORD PTR [eax+4], 0
  0005b	5e		 pop	 esi
  0005c	83 c4 10	 add	 esp, 16			; 00000010H
  0005f	3b ec		 cmp	 ebp, esp
  00061	e8 00 00 00 00	 call	 __RTC_CheckEsp
  00066	8b e5		 mov	 esp, ebp
  00068	5d		 pop	 ebp
  00069	c3		 ret	 0
?Empty@CGdiPlusBitmap@@QAEXXZ ENDP			; CGdiPlusBitmap::Empty
_TEXT	ENDS
PUBLIC	??1CGdiPlusBitmap@@UAE@XZ			; CGdiPlusBitmap::~CGdiPlusBitmap
; Function compile flags: /Odt /RTCsu
;	COMDAT ??_GCGdiPlusBitmap@@UAEPAXI@Z
_TEXT	SEGMENT
_this$ = -4						; size = 4
___flags$ = 8						; size = 4
??_GCGdiPlusBitmap@@UAEPAXI@Z PROC NEAR			; CGdiPlusBitmap::`scalar deleting destructor', COMDAT
; _this$ = ecx
  00000	55		 push	 ebp
  00001	8b ec		 mov	 ebp, esp
  00003	51		 push	 ecx
  00004	c7 45 fc cc cc
	cc cc		 mov	 DWORD PTR [ebp-4], -858993460 ; ccccccccH
  0000b	89 4d fc	 mov	 DWORD PTR _this$[ebp], ecx
  0000e	8b 4d fc	 mov	 ecx, DWORD PTR _this$[ebp]
  00011	e8 00 00 00 00	 call	 ??1CGdiPlusBitmap@@UAE@XZ ; CGdiPlusBitmap::~CGdiPlusBitmap
  00016	8b 45 08	 mov	 eax, DWORD PTR ___flags$[ebp]
  00019	83 e0 01	 and	 eax, 1
  0001c	74 0c		 je	 SHORT $L187052
  0001e	8b 4d fc	 mov	 ecx, DWORD PTR _this$[ebp]
  00021	51		 push	 ecx
  00022	e8 00 00 00 00	 call	 ??3@YAXPAX@Z		; operator delete
  00027	83 c4 04	 add	 esp, 4
$L187052:
  0002a	8b 45 fc	 mov	 eax, DWORD PTR _this$[ebp]
  0002d	83 c4 04	 add	 esp, 4
  00030	3b ec		 cmp	 ebp, esp
  00032	e8 00 00 00 00	 call	 __RTC_CheckEsp
  00037	8b e5		 mov	 esp, ebp
  00039	5d		 pop	 ebp
  0003a	c2 04 00	 ret	 4
??_GCGdiPlusBitmap@@UAEPAXI@Z ENDP			; CGdiPlusBitmap::`scalar deleting destructor'
; Function compile flags: /Odt /RTCsu
_TEXT	ENDS
;	COMDAT ??1CGdiPlusBitmap@@UAE@XZ
_TEXT	SEGMENT
_this$ = -4						; size = 4
??1CGdiPlusBitmap@@UAE@XZ PROC NEAR			; CGdiPlusBitmap::~CGdiPlusBitmap, COMDAT
; _this$ = ecx

; 15   : 	virtual ~CGdiPlusBitmap()					{ Empty(); }

  00000	55		 push	 ebp
  00001	8b ec		 mov	 ebp, esp
  00003	51		 push	 ecx
  00004	c7 45 fc cc cc
	cc cc		 mov	 DWORD PTR [ebp-4], -858993460 ; ccccccccH
  0000b	89 4d fc	 mov	 DWORD PTR _this$[ebp], ecx
  0000e	8b 45 fc	 mov	 eax, DWORD PTR _this$[ebp]
  00011	c7 00 00 00 00
	00		 mov	 DWORD PTR [eax], OFFSET FLAT:??_7CGdiPlusBitmap@@6B@
  00017	8b 4d fc	 mov	 ecx, DWORD PTR _this$[ebp]
  0001a	e8 00 00 00 00	 call	 ?Empty@CGdiPlusBitmap@@QAEXXZ ; CGdiPlusBitmap::Empty
  0001f	83 c4 04	 add	 esp, 4
  00022	3b ec		 cmp	 ebp, esp
  00024	e8 00 00 00 00	 call	 __RTC_CheckEsp
  00029	8b e5		 mov	 esp, ebp
  0002b	5d		 pop	 ebp
  0002c	c3		 ret	 0
??1CGdiPlusBitmap@@UAE@XZ ENDP				; CGdiPlusBitmap::~CGdiPlusBitmap
_TEXT	ENDS
PUBLIC	?SetBkGround@CSkinButton2@@QAEXPAVCDC@@@Z	; CSkinButton2::SetBkGround
EXTRN	?BitBlt@CDC@@QAEHHHHHPAV1@HHK@Z:NEAR		; CDC::BitBlt
EXTRN	?DeleteObject@CGdiObject@@QAEHXZ:NEAR		; CGdiObject::DeleteObject
EXTRN	??0CBitmap@@QAE@XZ:NEAR				; CBitmap::CBitmap
EXTRN	?Width@CRect@@QBEHXZ:NEAR			; CRect::Width
EXTRN	?Height@CRect@@QBEHXZ:NEAR			; CRect::Height
EXTRN	?CreateCompatibleBitmap@CBitmap@@QAEHPAVCDC@@HH@Z:NEAR ; CBitmap::CreateCompatibleBitmap
EXTRN	??BCRect@@QAEPAUtagRECT@@XZ:NEAR		; CRect::operator tagRECT *
EXTRN	??1CBitmap@@UAE@XZ:NEAR				; CBitmap::~CBitmap
EXTRN	?GetWindowRect@CWnd@@QBEXPAUtagRECT@@@Z:NEAR	; CWnd::GetWindowRect
EXTRN	?GetClientRect@CWnd@@QBEXPAUtagRECT@@@Z:NEAR	; CWnd::GetClientRect
EXTRN	?ScreenToClient@CWnd@@QBEXPAUtagRECT@@@Z:NEAR	; CWnd::ScreenToClient
EXTRN	?CreateCompatibleDC@CDC@@QAEHPAV1@@Z:NEAR	; CDC::CreateCompatibleDC
EXTRN	?DeleteDC@CDC@@QAEHXZ:NEAR			; CDC::DeleteDC
EXTRN	?SelectObject@CDC@@QAEPAVCBitmap@@PAV2@@Z:NEAR	; CDC::SelectObject
xdata$x	SEGMENT
$T188322 DD	0ffffffffH
	DD	FLAT:$L188313
$T188315 DD	019930520H
	DD	01H
	DD	FLAT:$T188322
	DD	2 DUP(00H)
	DD	2 DUP(00H)
; Function compile flags: /Odt /RTCsu
; File d:\boxgit\playbox\playbox\dev\prj\playbox\src\gui\commoncontrol\skinbutton2.cpp
xdata$x	ENDS
_TEXT	SEGMENT
_pOldBitmap$ = -84					; size = 4
_bmp$ = -76						; size = 8
_rectS$ = -60						; size = 16
_rect$ = -36						; size = 16
_this$ = -16						; size = 4
__$EHRec$ = -12						; size = 12
_pDC$ = 8						; size = 4
?SetBkGround@CSkinButton2@@QAEXPAVCDC@@@Z PROC NEAR	; CSkinButton2::SetBkGround
; _this$ = ecx

; 119  : {

  00a00	55		 push	 ebp
  00a01	8b ec		 mov	 ebp, esp
  00a03	6a ff		 push	 -1
  00a05	68 00 00 00 00	 push	 __ehhandler$?SetBkGround@CSkinButton2@@QAEXPAVCDC@@@Z
  00a0a	64 a1 00 00 00
	00		 mov	 eax, DWORD PTR fs:__except_list
  00a10	50		 push	 eax
  00a11	64 89 25 00 00
	00 00		 mov	 DWORD PTR fs:__except_list, esp
  00a18	83 ec 48	 sub	 esp, 72			; 00000048H
  00a1b	57		 push	 edi
  00a1c	51		 push	 ecx
  00a1d	8d 7d ac	 lea	 edi, DWORD PTR [ebp-84]
  00a20	b9 12 00 00 00	 mov	 ecx, 18			; 00000012H
  00a25	b8 cc cc cc cc	 mov	 eax, -858993460		; ccccccccH
  00a2a	f3 ab		 rep stosd
  00a2c	59		 pop	 ecx
  00a2d	89 4d f0	 mov	 DWORD PTR _this$[ebp], ecx

; 120  : 	CRect rect, rectS;

  00a30	8d 4d dc	 lea	 ecx, DWORD PTR _rect$[ebp]
  00a33	e8 00 00 00 00	 call	 ??0CRect@@QAE@XZ	; CRect::CRect
  00a38	8d 4d c4	 lea	 ecx, DWORD PTR _rectS$[ebp]
  00a3b	e8 00 00 00 00	 call	 ??0CRect@@QAE@XZ	; CRect::CRect

; 121  : 	CBitmap bmp, *pOldBitmap;

  00a40	8d 4d b4	 lea	 ecx, DWORD PTR _bmp$[ebp]
  00a43	e8 00 00 00 00	 call	 ??0CBitmap@@QAE@XZ	; CBitmap::CBitmap
  00a48	c7 45 fc 00 00
	00 00		 mov	 DWORD PTR __$EHRec$[ebp+8], 0

; 122  : 
; 123  : 	GetClientRect(rect);

  00a4f	8d 4d dc	 lea	 ecx, DWORD PTR _rect$[ebp]
  00a52	e8 00 00 00 00	 call	 ??BCRect@@QAEPAUtagRECT@@XZ ; CRect::operator tagRECT *
  00a57	50		 push	 eax
  00a58	8b 4d f0	 mov	 ecx, DWORD PTR _this$[ebp]
  00a5b	e8 00 00 00 00	 call	 ?GetClientRect@CWnd@@QBEXPAUtagRECT@@@Z ; CWnd::GetClientRect

; 124  : 	GetWindowRect(rectS);

  00a60	8d 4d c4	 lea	 ecx, DWORD PTR _rectS$[ebp]
  00a63	e8 00 00 00 00	 call	 ??BCRect@@QAEPAUtagRECT@@XZ ; CRect::operator tagRECT *
  00a68	50		 push	 eax
  00a69	8b 4d f0	 mov	 ecx, DWORD PTR _this$[ebp]
  00a6c	e8 00 00 00 00	 call	 ?GetWindowRect@CWnd@@QBEXPAUtagRECT@@@Z ; CWnd::GetWindowRect

; 125  : 	GetParent()->ScreenToClient(rectS);

  00a71	8d 4d c4	 lea	 ecx, DWORD PTR _rectS$[ebp]
  00a74	e8 00 00 00 00	 call	 ??BCRect@@QAEPAUtagRECT@@XZ ; CRect::operator tagRECT *
  00a79	50		 push	 eax
  00a7a	8b 4d f0	 mov	 ecx, DWORD PTR _this$[ebp]
  00a7d	e8 00 00 00 00	 call	 ?GetParent@CWnd@@QBEPAV1@XZ ; CWnd::GetParent
  00a82	8b c8		 mov	 ecx, eax
  00a84	e8 00 00 00 00	 call	 ?ScreenToClient@CWnd@@QBEXPAUtagRECT@@@Z ; CWnd::ScreenToClient

; 126  : 
; 127  : 	m_dcBk.DeleteDC();

  00a89	8b 4d f0	 mov	 ecx, DWORD PTR _this$[ebp]
  00a8c	81 c1 8c 00 00
	00		 add	 ecx, 140		; 0000008cH
  00a92	e8 00 00 00 00	 call	 ?DeleteDC@CDC@@QAEHXZ	; CDC::DeleteDC

; 128  : 
; 129  : 	m_dcBk.CreateCompatibleDC(pDC);

  00a97	8b 45 08	 mov	 eax, DWORD PTR _pDC$[ebp]
  00a9a	50		 push	 eax
  00a9b	8b 4d f0	 mov	 ecx, DWORD PTR _this$[ebp]
  00a9e	81 c1 8c 00 00
	00		 add	 ecx, 140		; 0000008cH
  00aa4	e8 00 00 00 00	 call	 ?CreateCompatibleDC@CDC@@QAEHPAV1@@Z ; CDC::CreateCompatibleDC

; 130  : 	bmp.CreateCompatibleBitmap(pDC, rect.Width(), rect.Height());

  00aa9	8d 4d dc	 lea	 ecx, DWORD PTR _rect$[ebp]
  00aac	e8 00 00 00 00	 call	 ?Height@CRect@@QBEHXZ	; CRect::Height
  00ab1	50		 push	 eax
  00ab2	8d 4d dc	 lea	 ecx, DWORD PTR _rect$[ebp]
  00ab5	e8 00 00 00 00	 call	 ?Width@CRect@@QBEHXZ	; CRect::Width
  00aba	50		 push	 eax
  00abb	8b 4d 08	 mov	 ecx, DWORD PTR _pDC$[ebp]
  00abe	51		 push	 ecx
  00abf	8d 4d b4	 lea	 ecx, DWORD PTR _bmp$[ebp]
  00ac2	e8 00 00 00 00	 call	 ?CreateCompatibleBitmap@CBitmap@@QAEHPAVCDC@@HH@Z ; CBitmap::CreateCompatibleBitmap

; 131  : 	pOldBitmap = m_dcBk.SelectObject(&bmp);

  00ac7	8d 55 b4	 lea	 edx, DWORD PTR _bmp$[ebp]
  00aca	52		 push	 edx
  00acb	8b 4d f0	 mov	 ecx, DWORD PTR _this$[ebp]
  00ace	81 c1 8c 00 00
	00		 add	 ecx, 140		; 0000008cH
  00ad4	e8 00 00 00 00	 call	 ?SelectObject@CDC@@QAEPAVCBitmap@@PAV2@@Z ; CDC::SelectObject
  00ad9	89 45 ac	 mov	 DWORD PTR _pOldBitmap$[ebp], eax

; 132  : 	m_dcBk.BitBlt(0, 0, rect.Width(), rect.Height(), pDC, rectS.left, rectS.top, SRCCOPY);

  00adc	68 20 00 cc 00	 push	 13369376		; 00cc0020H
  00ae1	8b 45 c8	 mov	 eax, DWORD PTR _rectS$[ebp+4]
  00ae4	50		 push	 eax
  00ae5	8b 4d c4	 mov	 ecx, DWORD PTR _rectS$[ebp]
  00ae8	51		 push	 ecx
  00ae9	8b 55 08	 mov	 edx, DWORD PTR _pDC$[ebp]
  00aec	52		 push	 edx
  00aed	8d 4d dc	 lea	 ecx, DWORD PTR _rect$[ebp]
  00af0	e8 00 00 00 00	 call	 ?Height@CRect@@QBEHXZ	; CRect::Height
  00af5	50		 push	 eax
  00af6	8d 4d dc	 lea	 ecx, DWORD PTR _rect$[ebp]
  00af9	e8 00 00 00 00	 call	 ?Width@CRect@@QBEHXZ	; CRect::Width
  00afe	50		 push	 eax
  00aff	6a 00		 push	 0
  00b01	6a 00		 push	 0
  00b03	8b 4d f0	 mov	 ecx, DWORD PTR _this$[ebp]
  00b06	81 c1 8c 00 00
	00		 add	 ecx, 140		; 0000008cH
  00b0c	e8 00 00 00 00	 call	 ?BitBlt@CDC@@QAEHHHHHPAV1@HHK@Z ; CDC::BitBlt

; 133  : 	bmp.DeleteObject();

  00b11	8d 4d b4	 lea	 ecx, DWORD PTR _bmp$[ebp]
  00b14	e8 00 00 00 00	 call	 ?DeleteObject@CGdiObject@@QAEHXZ ; CGdiObject::DeleteObject

; 134  : 	Invalidate(true);

  00b19	6a 01		 push	 1
  00b1b	8b 4d f0	 mov	 ecx, DWORD PTR _this$[ebp]
  00b1e	e8 00 00 00 00	 call	 ?Invalidate@CWnd@@QAEXH@Z ; CWnd::Invalidate

; 135  : }

  00b23	c7 45 fc ff ff
	ff ff		 mov	 DWORD PTR __$EHRec$[ebp+8], -1
  00b2a	8d 4d b4	 lea	 ecx, DWORD PTR _bmp$[ebp]
  00b2d	e8 00 00 00 00	 call	 ??1CBitmap@@UAE@XZ	; CBitmap::~CBitmap
  00b32	52		 push	 edx
  00b33	8b cd		 mov	 ecx, ebp
  00b35	50		 push	 eax
  00b36	8d 15 00 00 00
	00		 lea	 edx, DWORD PTR $L188321
  00b3c	e8 00 00 00 00	 call	 @_RTC_CheckStackVars@8
  00b41	58		 pop	 eax
  00b42	5a		 pop	 edx
  00b43	8b 4d f4	 mov	 ecx, DWORD PTR __$EHRec$[ebp]
  00b46	64 89 0d 00 00
	00 00		 mov	 DWORD PTR fs:__except_list, ecx
  00b4d	5f		 pop	 edi
  00b4e	83 c4 54	 add	 esp, 84			; 00000054H
  00b51	3b ec		 cmp	 ebp, esp
  00b53	e8 00 00 00 00	 call	 __RTC_CheckEsp
  00b58	8b e5		 mov	 esp, ebp
  00b5a	5d		 pop	 ebp
  00b5b	c2 04 00	 ret	 4
$L188321:
  00b5e	03 00 00 00	 DD	 3
  00b62	00 00 00 00	 DD	 $L188320
$L188320:
  00b66	dc ff ff ff	 DD	 -36			; ffffffdcH
  00b6a	10 00 00 00	 DD	 16			; 00000010H
  00b6e	00 00 00 00	 DD	 $L188316
  00b72	c4 ff ff ff	 DD	 -60			; ffffffc4H
  00b76	10 00 00 00	 DD	 16			; 00000010H
  00b7a	00 00 00 00	 DD	 $L188317
  00b7e	b4 ff ff ff	 DD	 -76			; ffffffb4H
  00b82	08 00 00 00	 DD	 8
  00b86	00 00 00 00	 DD	 $L188318
$L188318:
  00b8a	62		 DB	 98			; 00000062H
  00b8b	6d		 DB	 109			; 0000006dH
  00b8c	70		 DB	 112			; 00000070H
  00b8d	00		 DB	 0
$L188317:
  00b8e	72		 DB	 114			; 00000072H
  00b8f	65		 DB	 101			; 00000065H
  00b90	63		 DB	 99			; 00000063H
  00b91	74		 DB	 116			; 00000074H
  00b92	53		 DB	 83			; 00000053H
  00b93	00		 DB	 0
$L188316:
  00b94	72		 DB	 114			; 00000072H
  00b95	65		 DB	 101			; 00000065H
  00b96	63		 DB	 99			; 00000063H
  00b97	74		 DB	 116			; 00000074H
  00b98	00		 DB	 0
_TEXT	ENDS
text$x	SEGMENT
$L188313:
  000dd	8d 4d b4	 lea	 ecx, DWORD PTR _bmp$[ebp]
  000e0	e9 00 00 00 00	 jmp	 ??1CBitmap@@UAE@XZ	; CBitmap::~CBitmap
__ehhandler$?SetBkGround@CSkinButton2@@QAEXPAVCDC@@@Z:
  000e5	b8 00 00 00 00	 mov	 eax, OFFSET FLAT:$T188315
  000ea	e9 00 00 00 00	 jmp	 ___CxxFrameHandler
text$x	ENDS
?SetBkGround@CSkinButton2@@QAEXPAVCDC@@@Z ENDP		; CSkinButton2::SetBkGround
; Function compile flags: /Odt /RTCsu
_TEXT	SEGMENT
_this$ = -4						; size = 4
_pDC$ = 8						; size = 4
?OnEraseBkgnd@CSkinButton2@@QAEHPAVCDC@@@Z PROC NEAR	; CSkinButton2::OnEraseBkgnd
; _this$ = ecx

; 137  : {

  00ba0	55		 push	 ebp
  00ba1	8b ec		 mov	 ebp, esp
  00ba3	51		 push	 ecx
  00ba4	c7 45 fc cc cc
	cc cc		 mov	 DWORD PTR [ebp-4], -858993460 ; ccccccccH
  00bab	89 4d fc	 mov	 DWORD PTR _this$[ebp], ecx

; 138  : 	// TODO: /
; 139  : 
; 140  : 	return TRUE;//CButton::OnEraseBkgnd(pDC);

  00bae	b8 01 00 00 00	 mov	 eax, 1

; 141  : }

  00bb3	8b e5		 mov	 esp, ebp
  00bb5	5d		 pop	 ebp
  00bb6	c2 04 00	 ret	 4
?OnEraseBkgnd@CSkinButton2@@QAEHPAVCDC@@@Z ENDP		; CSkinButton2::OnEraseBkgnd
_TEXT	ENDS
PUBLIC	?SendMouseMessageToParent@CSkinButton2@@QAEXIIVCPoint@@@Z ; CSkinButton2::SendMouseMessageToParent
EXTRN	__imp__SendMessageA@16:NEAR
EXTRN	__imp__ScreenToClient@8:NEAR
EXTRN	?ClientToScreen@CWnd@@QBEXPAUtagPOINT@@@Z:NEAR	; CWnd::ClientToScreen
; Function compile flags: /Odt /RTCsu
_TEXT	SEGMENT
_lParam$ = -12						; size = 4
_wParam$ = -8						; size = 4
_this$ = -4						; size = 4
_msg$ = 8						; size = 4
_nFlags$ = 12						; size = 4
_point$ = 16						; size = 8
?SendMouseMessageToParent@CSkinButton2@@QAEXIIVCPoint@@@Z PROC NEAR ; CSkinButton2::SendMouseMessageToParent
; _this$ = ecx

; 144  : {

  00bc0	55		 push	 ebp
  00bc1	8b ec		 mov	 ebp, esp
  00bc3	83 ec 0c	 sub	 esp, 12			; 0000000cH
  00bc6	56		 push	 esi
  00bc7	c7 45 f4 cc cc
	cc cc		 mov	 DWORD PTR [ebp-12], -858993460 ; ccccccccH
  00bce	c7 45 f8 cc cc
	cc cc		 mov	 DWORD PTR [ebp-8], -858993460 ; ccccccccH
  00bd5	c7 45 fc cc cc
	cc cc		 mov	 DWORD PTR [ebp-4], -858993460 ; ccccccccH
  00bdc	89 4d fc	 mov	 DWORD PTR _this$[ebp], ecx

; 145  : 	WPARAM wParam;
; 146  : 	LPARAM lParam;
; 147  : 
; 148  : 	ClientToScreen( &point);

  00bdf	8d 45 10	 lea	 eax, DWORD PTR _point$[ebp]
  00be2	50		 push	 eax
  00be3	8b 4d fc	 mov	 ecx, DWORD PTR _this$[ebp]
  00be6	e8 00 00 00 00	 call	 ?ClientToScreen@CWnd@@QBEXPAUtagPOINT@@@Z ; CWnd::ClientToScreen

; 149  : 	::ScreenToClient( GetParent()->m_hWnd,&point );

  00beb	8b f4		 mov	 esi, esp
  00bed	8d 4d 10	 lea	 ecx, DWORD PTR _point$[ebp]
  00bf0	51		 push	 ecx
  00bf1	8b 4d fc	 mov	 ecx, DWORD PTR _this$[ebp]
  00bf4	e8 00 00 00 00	 call	 ?GetParent@CWnd@@QBEPAV1@XZ ; CWnd::GetParent
  00bf9	8b 50 20	 mov	 edx, DWORD PTR [eax+32]
  00bfc	52		 push	 edx
  00bfd	ff 15 00 00 00
	00		 call	 DWORD PTR __imp__ScreenToClient@8
  00c03	3b f4		 cmp	 esi, esp
  00c05	e8 00 00 00 00	 call	 __RTC_CheckEsp

; 150  : 
; 151  : 	wParam = nFlags;

  00c0a	8b 45 0c	 mov	 eax, DWORD PTR _nFlags$[ebp]
  00c0d	89 45 f8	 mov	 DWORD PTR _wParam$[ebp], eax

; 152  : 	lParam = (WORD)point.x;

  00c10	0f b7 4d 10	 movzx	 ecx, WORD PTR _point$[ebp]
  00c14	89 4d f4	 mov	 DWORD PTR _lParam$[ebp], ecx

; 153  : 	lParam += ((WORD)point.y) << 16;		

  00c17	0f b7 55 14	 movzx	 edx, WORD PTR _point$[ebp+4]
  00c1b	c1 e2 10	 shl	 edx, 16			; 00000010H
  00c1e	03 55 f4	 add	 edx, DWORD PTR _lParam$[ebp]
  00c21	89 55 f4	 mov	 DWORD PTR _lParam$[ebp], edx

; 154  : 	::SendMessage(this->GetParent()->m_hWnd,msg, wParam,lParam );	

  00c24	8b f4		 mov	 esi, esp
  00c26	8b 45 f4	 mov	 eax, DWORD PTR _lParam$[ebp]
  00c29	50		 push	 eax
  00c2a	8b 4d f8	 mov	 ecx, DWORD PTR _wParam$[ebp]
  00c2d	51		 push	 ecx
  00c2e	8b 55 08	 mov	 edx, DWORD PTR _msg$[ebp]
  00c31	52		 push	 edx
  00c32	8b 4d fc	 mov	 ecx, DWORD PTR _this$[ebp]
  00c35	e8 00 00 00 00	 call	 ?GetParent@CWnd@@QBEPAV1@XZ ; CWnd::GetParent
  00c3a	8b 40 20	 mov	 eax, DWORD PTR [eax+32]
  00c3d	50		 push	 eax
  00c3e	ff 15 00 00 00
	00		 call	 DWORD PTR __imp__SendMessageA@16
  00c44	3b f4		 cmp	 esi, esp
  00c46	e8 00 00 00 00	 call	 __RTC_CheckEsp

; 155  : }

  00c4b	5e		 pop	 esi
  00c4c	83 c4 0c	 add	 esp, 12			; 0000000cH
  00c4f	3b ec		 cmp	 ebp, esp
  00c51	e8 00 00 00 00	 call	 __RTC_CheckEsp
  00c56	8b e5		 mov	 esp, ebp
  00c58	5d		 pop	 ebp
  00c59	c2 10 00	 ret	 16			; 00000010H
?SendMouseMessageToParent@CSkinButton2@@QAEXIIVCPoint@@@Z ENDP ; CSkinButton2::SendMouseMessageToParent
_TEXT	ENDS
EXTRN	?ModifyStyle@CWnd@@QAEHKKI@Z:NEAR		; CWnd::ModifyStyle
EXTRN	?PreSubclassWindow@CWnd@@UAEXXZ:NEAR		; CWnd::PreSubclassWindow
; Function compile flags: /Odt /RTCsu
_TEXT	SEGMENT
_this$ = -4						; size = 4
?PreSubclassWindow@CSkinButton2@@MAEXXZ PROC NEAR	; CSkinButton2::PreSubclassWindow
; _this$ = ecx

; 158  : {

  00c60	55		 push	 ebp
  00c61	8b ec		 mov	 ebp, esp
  00c63	51		 push	 ecx
  00c64	c7 45 fc cc cc
	cc cc		 mov	 DWORD PTR [ebp-4], -858993460 ; ccccccccH
  00c6b	89 4d fc	 mov	 DWORD PTR _this$[ebp], ecx

; 159  : 	ModifyStyle(0, BS_OWNERDRAW);

  00c6e	6a 00		 push	 0
  00c70	6a 0b		 push	 11			; 0000000bH
  00c72	6a 00		 push	 0
  00c74	8b 4d fc	 mov	 ecx, DWORD PTR _this$[ebp]
  00c77	e8 00 00 00 00	 call	 ?ModifyStyle@CWnd@@QAEHKKI@Z ; CWnd::ModifyStyle

; 160  : 
; 161  : 	CButton::PreSubclassWindow();

  00c7c	8b 4d fc	 mov	 ecx, DWORD PTR _this$[ebp]
  00c7f	e8 00 00 00 00	 call	 ?PreSubclassWindow@CWnd@@UAEXXZ ; CWnd::PreSubclassWindow

; 162  : }

  00c84	83 c4 04	 add	 esp, 4
  00c87	3b ec		 cmp	 ebp, esp
  00c89	e8 00 00 00 00	 call	 __RTC_CheckEsp
  00c8e	8b e5		 mov	 esp, ebp
  00c90	5d		 pop	 ebp
  00c91	c3		 ret	 0
?PreSubclassWindow@CSkinButton2@@MAEXXZ ENDP		; CSkinButton2::PreSubclassWindow
_TEXT	ENDS
EXTRN	?OnMouseMove@CWnd@@IAEXIVCPoint@@@Z:NEAR	; CWnd::OnMouseMove
EXTRN	?PtInRect@CRect@@QBEHUtagPOINT@@@Z:NEAR		; CRect::PtInRect
EXTRN	__imp__SetCursor@4:NEAR
EXTRN	?IsWindowEnabled@CWnd@@QBEHXZ:NEAR		; CWnd::IsWindowEnabled
EXTRN	__imp___TrackMouseEvent@4:NEAR
EXTRN	__imp__LoadCursorA@8:NEAR
; Function compile flags: /Odt /RTCsu
_TEXT	SEGMENT
$T188327 = -36						; size = 8
_tme$187341 = -24					; size = 16
_this$ = -4						; size = 4
_nFlags$ = 8						; size = 4
_point$ = 12						; size = 8
?OnMouseMove@CSkinButton2@@QAEXIVCPoint@@@Z PROC NEAR	; CSkinButton2::OnMouseMove
; _this$ = ecx

; 164  : {

  00ca0	55		 push	 ebp
  00ca1	8b ec		 mov	 ebp, esp
  00ca3	83 ec 24	 sub	 esp, 36			; 00000024H
  00ca6	56		 push	 esi
  00ca7	b8 cc cc cc cc	 mov	 eax, -858993460		; ccccccccH
  00cac	89 45 dc	 mov	 DWORD PTR [ebp-36], eax
  00caf	89 45 e0	 mov	 DWORD PTR [ebp-32], eax
  00cb2	89 45 e4	 mov	 DWORD PTR [ebp-28], eax
  00cb5	89 45 e8	 mov	 DWORD PTR [ebp-24], eax
  00cb8	89 45 ec	 mov	 DWORD PTR [ebp-20], eax
  00cbb	89 45 f0	 mov	 DWORD PTR [ebp-16], eax
  00cbe	89 45 f4	 mov	 DWORD PTR [ebp-12], eax
  00cc1	89 45 f8	 mov	 DWORD PTR [ebp-8], eax
  00cc4	89 45 fc	 mov	 DWORD PTR [ebp-4], eax
  00cc7	89 4d fc	 mov	 DWORD PTR _this$[ebp], ecx

; 165  : 	if(m_bUseResponseRect && !m_rcResponse.PtInRect(point))

  00cca	8b 45 fc	 mov	 eax, DWORD PTR _this$[ebp]
  00ccd	83 78 70 00	 cmp	 DWORD PTR [eax+112], 0
  00cd1	74 41		 je	 SHORT $L187335
  00cd3	8b 4d 0c	 mov	 ecx, DWORD PTR _point$[ebp]
  00cd6	89 4d dc	 mov	 DWORD PTR $T188327[ebp], ecx
  00cd9	8b 55 10	 mov	 edx, DWORD PTR _point$[ebp+4]
  00cdc	89 55 e0	 mov	 DWORD PTR $T188327[ebp+4], edx
  00cdf	8b 45 e0	 mov	 eax, DWORD PTR $T188327[ebp+4]
  00ce2	50		 push	 eax
  00ce3	8b 4d dc	 mov	 ecx, DWORD PTR $T188327[ebp]
  00ce6	51		 push	 ecx
  00ce7	8b 4d fc	 mov	 ecx, DWORD PTR _this$[ebp]
  00cea	83 c1 60	 add	 ecx, 96			; 00000060H
  00ced	e8 00 00 00 00	 call	 ?PtInRect@CRect@@QBEHUtagPOINT@@@Z ; CRect::PtInRect
  00cf2	85 c0		 test	 eax, eax
  00cf4	75 1e		 jne	 SHORT $L187335

; 166  : 	{
; 167  : 		//CButton::OnMouseMove(nFlags, point);
; 168  : 		SendMouseMessageToParent(WM_MOUSEMOVE, nFlags, point);

  00cf6	8b 55 10	 mov	 edx, DWORD PTR _point$[ebp+4]
  00cf9	52		 push	 edx
  00cfa	8b 45 0c	 mov	 eax, DWORD PTR _point$[ebp]
  00cfd	50		 push	 eax
  00cfe	8b 4d 08	 mov	 ecx, DWORD PTR _nFlags$[ebp]
  00d01	51		 push	 ecx
  00d02	68 00 02 00 00	 push	 512			; 00000200H
  00d07	8b 4d fc	 mov	 ecx, DWORD PTR _this$[ebp]
  00d0a	e8 00 00 00 00	 call	 ?SendMouseMessageToParent@CSkinButton2@@QAEXIIVCPoint@@@Z ; CSkinButton2::SendMouseMessageToParent

; 169  : 		return;

  00d0f	e9 a1 00 00 00	 jmp	 $L187333
$L187335:

; 170  : 	}
; 171  : 	if( !m_bSelected && IsWindowEnabled()&&m_bHandMouse )

  00d14	8b 55 fc	 mov	 edx, DWORD PTR _this$[ebp]
  00d17	83 ba 84 00 00
	00 00		 cmp	 DWORD PTR [edx+132], 0
  00d1e	75 3b		 jne	 SHORT $L187336
  00d20	8b 4d fc	 mov	 ecx, DWORD PTR _this$[ebp]
  00d23	e8 00 00 00 00	 call	 ?IsWindowEnabled@CWnd@@QBEHXZ ; CWnd::IsWindowEnabled
  00d28	85 c0		 test	 eax, eax
  00d2a	74 2f		 je	 SHORT $L187336
  00d2c	8b 45 fc	 mov	 eax, DWORD PTR _this$[ebp]
  00d2f	83 78 5c 00	 cmp	 DWORD PTR [eax+92], 0
  00d33	74 26		 je	 SHORT $L187336

; 172  : 	{
; 173  : #ifndef IDC_HAND
; 174  : #define IDC_HAND            MAKEINTRESOURCE(32649)
; 175  : #endif
; 176  : 		::SetCursor(::LoadCursor(NULL, IDC_HAND));

  00d35	8b f4		 mov	 esi, esp
  00d37	68 89 7f 00 00	 push	 32649			; 00007f89H
  00d3c	6a 00		 push	 0
  00d3e	ff 15 00 00 00
	00		 call	 DWORD PTR __imp__LoadCursorA@8
  00d44	3b f4		 cmp	 esi, esp
  00d46	e8 00 00 00 00	 call	 __RTC_CheckEsp
  00d4b	8b f4		 mov	 esi, esp
  00d4d	50		 push	 eax
  00d4e	ff 15 00 00 00
	00		 call	 DWORD PTR __imp__SetCursor@4
  00d54	3b f4		 cmp	 esi, esp
  00d56	e8 00 00 00 00	 call	 __RTC_CheckEsp
$L187336:

; 177  : 	}
; 178  : 
; 179  : 	if (!m_bMouseOnButton) 

  00d5b	8b 4d fc	 mov	 ecx, DWORD PTR _this$[ebp]
  00d5e	83 b9 80 00 00
	00 00		 cmp	 DWORD PTR [ecx+128], 0
  00d65	75 3a		 jne	 SHORT $L187340

; 180  : 	{ 
; 181  : 		TRACKMOUSEEVENT   tme; 
; 182  : 		tme.cbSize   =   sizeof(tme); 

  00d67	c7 45 e8 10 00
	00 00		 mov	 DWORD PTR _tme$187341[ebp], 16 ; 00000010H

; 183  : 		tme.hwndTrack   =   m_hWnd; 

  00d6e	8b 55 fc	 mov	 edx, DWORD PTR _this$[ebp]
  00d71	8b 42 20	 mov	 eax, DWORD PTR [edx+32]
  00d74	89 45 f0	 mov	 DWORD PTR _tme$187341[ebp+8], eax

; 184  : 		tme.dwFlags   =   TME_LEAVE   |   TME_HOVER; 

  00d77	c7 45 ec 03 00
	00 00		 mov	 DWORD PTR _tme$187341[ebp+4], 3

; 185  : 		tme.dwHoverTime   =   1; 

  00d7e	c7 45 f4 01 00
	00 00		 mov	 DWORD PTR _tme$187341[ebp+12], 1

; 186  : 		m_bMouseOnButton   =   _TrackMouseEvent(&tme); 

  00d85	8b f4		 mov	 esi, esp
  00d87	8d 4d e8	 lea	 ecx, DWORD PTR _tme$187341[ebp]
  00d8a	51		 push	 ecx
  00d8b	ff 15 00 00 00
	00		 call	 DWORD PTR __imp___TrackMouseEvent@4
  00d91	3b f4		 cmp	 esi, esp
  00d93	e8 00 00 00 00	 call	 __RTC_CheckEsp
  00d98	8b 55 fc	 mov	 edx, DWORD PTR _this$[ebp]
  00d9b	89 82 80 00 00
	00		 mov	 DWORD PTR [edx+128], eax
$L187340:

; 187  : 	} 
; 188  : 	CButton::OnMouseMove(nFlags, point);

  00da1	8b 45 10	 mov	 eax, DWORD PTR _point$[ebp+4]
  00da4	50		 push	 eax
  00da5	8b 4d 0c	 mov	 ecx, DWORD PTR _point$[ebp]
  00da8	51		 push	 ecx
  00da9	8b 55 08	 mov	 edx, DWORD PTR _nFlags$[ebp]
  00dac	52		 push	 edx
  00dad	8b 4d fc	 mov	 ecx, DWORD PTR _this$[ebp]
  00db0	e8 00 00 00 00	 call	 ?OnMouseMove@CWnd@@IAEXIVCPoint@@@Z ; CWnd::OnMouseMove
$L187333:

; 189  : }

  00db5	52		 push	 edx
  00db6	8b cd		 mov	 ecx, ebp
  00db8	50		 push	 eax
  00db9	8d 15 00 00 00
	00		 lea	 edx, DWORD PTR $L188330
  00dbf	e8 00 00 00 00	 call	 @_RTC_CheckStackVars@8
  00dc4	58		 pop	 eax
  00dc5	5a		 pop	 edx
  00dc6	5e		 pop	 esi
  00dc7	83 c4 24	 add	 esp, 36			; 00000024H
  00dca	3b ec		 cmp	 ebp, esp
  00dcc	e8 00 00 00 00	 call	 __RTC_CheckEsp
  00dd1	8b e5		 mov	 esp, ebp
  00dd3	5d		 pop	 ebp
  00dd4	c2 0c 00	 ret	 12			; 0000000cH
$L188330:
  00dd7	01 00 00 00	 DD	 1
  00ddb	00 00 00 00	 DD	 $L188329
$L188329:
  00ddf	e8 ff ff ff	 DD	 -24			; ffffffe8H
  00de3	10 00 00 00	 DD	 16			; 00000010H
  00de7	00 00 00 00	 DD	 $L188328
$L188328:
  00deb	74		 DB	 116			; 00000074H
  00dec	6d		 DB	 109			; 0000006dH
  00ded	65		 DB	 101			; 00000065H
  00dee	00		 DB	 0
?OnMouseMove@CSkinButton2@@QAEXIVCPoint@@@Z ENDP	; CSkinButton2::OnMouseMove
_TEXT	ENDS
PUBLIC	?SetToolTipText@CSkinButton2@@QAEXV?$CStringT@DV?$StrTraitMFC_DLL@DV?$ChTraitsCRT@D@ATL@@@@@ATL@@H@Z ; CSkinButton2::SetToolTipText
PUBLIC	?DeleteToolTip@CSkinButton2@@QAEXXZ		; CSkinButton2::DeleteToolTip
EXTRN	__imp__IsWindow@4:NEAR
EXTRN	?Update@CToolTipCtrl@@QAEXXZ:NEAR		; CToolTipCtrl::Update
EXTRN	__imp_??0?$CStringT@DV?$StrTraitMFC_DLL@DV?$ChTraitsCRT@D@ATL@@@@@ATL@@QAE@ABV01@@Z:NEAR
; Function compile flags: /Odt /RTCsu
_TEXT	SEGMENT
tv129 = -12						; size = 4
$T188332 = -8						; size = 4
_this$ = -4						; size = 4
_wParam$ = 8						; size = 4
_lParam$ = 12						; size = 4
?OnMouseHover@CSkinButton2@@QAEJIJ@Z PROC NEAR		; CSkinButton2::OnMouseHover
; _this$ = ecx

; 191  : { 	

  00df0	55		 push	 ebp
  00df1	8b ec		 mov	 ebp, esp
  00df3	83 ec 0c	 sub	 esp, 12			; 0000000cH
  00df6	56		 push	 esi
  00df7	c7 45 f4 cc cc
	cc cc		 mov	 DWORD PTR [ebp-12], -858993460 ; ccccccccH
  00dfe	c7 45 f8 cc cc
	cc cc		 mov	 DWORD PTR [ebp-8], -858993460 ; ccccccccH
  00e05	c7 45 fc cc cc
	cc cc		 mov	 DWORD PTR [ebp-4], -858993460 ; ccccccccH
  00e0c	89 4d fc	 mov	 DWORD PTR _this$[ebp], ecx

; 192  : 	m_bMouseOnButton = TRUE;

  00e0f	8b 45 fc	 mov	 eax, DWORD PTR _this$[ebp]
  00e12	c7 80 80 00 00
	00 01 00 00 00	 mov	 DWORD PTR [eax+128], 1

; 193  : 	this->Invalidate();

  00e1c	6a 01		 push	 1
  00e1e	8b 4d fc	 mov	 ecx, DWORD PTR _this$[ebp]
  00e21	e8 00 00 00 00	 call	 ?Invalidate@CWnd@@QAEXH@Z ; CWnd::Invalidate

; 194  : 
; 195  : 	DeleteToolTip();

  00e26	8b 4d fc	 mov	 ecx, DWORD PTR _this$[ebp]
  00e29	e8 00 00 00 00	 call	 ?DeleteToolTip@CSkinButton2@@QAEXXZ ; CSkinButton2::DeleteToolTip

; 196  : 
; 197  : 	SetToolTipText(m_tooltext);

  00e2e	6a 01		 push	 1
  00e30	8b 4d fc	 mov	 ecx, DWORD PTR _this$[ebp]
  00e33	83 c1 78	 add	 ecx, 120		; 00000078H
  00e36	51		 push	 ecx
  00e37	8b d4		 mov	 edx, esp
  00e39	89 65 f8	 mov	 DWORD PTR $T188332[ebp], esp
  00e3c	8b f4		 mov	 esi, esp
  00e3e	51		 push	 ecx
  00e3f	8b ca		 mov	 ecx, edx
  00e41	ff 15 00 00 00
	00		 call	 DWORD PTR __imp_??0?$CStringT@DV?$StrTraitMFC_DLL@DV?$ChTraitsCRT@D@ATL@@@@@ATL@@QAE@ABV01@@Z
  00e47	3b f4		 cmp	 esi, esp
  00e49	e8 00 00 00 00	 call	 __RTC_CheckEsp
  00e4e	89 45 f4	 mov	 DWORD PTR tv129[ebp], eax
  00e51	8b 4d fc	 mov	 ecx, DWORD PTR _this$[ebp]
  00e54	e8 00 00 00 00	 call	 ?SetToolTipText@CSkinButton2@@QAEXV?$CStringT@DV?$StrTraitMFC_DLL@DV?$ChTraitsCRT@D@ATL@@@@@ATL@@H@Z ; CSkinButton2::SetToolTipText

; 198  : 
; 199  : 	if (m_pToolTip != NULL)

  00e59	8b 45 fc	 mov	 eax, DWORD PTR _this$[ebp]
  00e5c	83 78 74 00	 cmp	 DWORD PTR [eax+116], 0
  00e60	74 28		 je	 SHORT $L187348

; 200  : 	{
; 201  : 		if (::IsWindow(m_pToolTip->m_hWnd))

  00e62	8b 4d fc	 mov	 ecx, DWORD PTR _this$[ebp]
  00e65	8b 51 74	 mov	 edx, DWORD PTR [ecx+116]
  00e68	8b f4		 mov	 esi, esp
  00e6a	8b 42 20	 mov	 eax, DWORD PTR [edx+32]
  00e6d	50		 push	 eax
  00e6e	ff 15 00 00 00
	00		 call	 DWORD PTR __imp__IsWindow@4
  00e74	3b f4		 cmp	 esi, esp
  00e76	e8 00 00 00 00	 call	 __RTC_CheckEsp
  00e7b	85 c0		 test	 eax, eax
  00e7d	74 0b		 je	 SHORT $L187348

; 202  : 		{
; 203  : 		m_pToolTip->Update();

  00e7f	8b 4d fc	 mov	 ecx, DWORD PTR _this$[ebp]
  00e82	8b 49 74	 mov	 ecx, DWORD PTR [ecx+116]
  00e85	e8 00 00 00 00	 call	 ?Update@CToolTipCtrl@@QAEXXZ ; CToolTipCtrl::Update
$L187348:

; 204  : 		}
; 205  : 	}
; 206  : 	return 1;

  00e8a	b8 01 00 00 00	 mov	 eax, 1

; 207  : } 

  00e8f	5e		 pop	 esi
  00e90	83 c4 0c	 add	 esp, 12			; 0000000cH
  00e93	3b ec		 cmp	 ebp, esp
  00e95	e8 00 00 00 00	 call	 __RTC_CheckEsp
  00e9a	8b e5		 mov	 esp, ebp
  00e9c	5d		 pop	 ebp
  00e9d	c2 08 00	 ret	 8
?OnMouseHover@CSkinButton2@@QAEJIJ@Z ENDP		; CSkinButton2::OnMouseHover
; Function compile flags: /Odt /RTCsu
_this$ = -4						; size = 4
_wParam$ = 8						; size = 4
_lParam$ = 12						; size = 4
?OnMouseLeave@CSkinButton2@@QAEJIJ@Z PROC NEAR		; CSkinButton2::OnMouseLeave
; _this$ = ecx

; 209  : { 	

  00ea0	55		 push	 ebp
  00ea1	8b ec		 mov	 ebp, esp
  00ea3	51		 push	 ecx
  00ea4	c7 45 fc cc cc
	cc cc		 mov	 DWORD PTR [ebp-4], -858993460 ; ccccccccH
  00eab	89 4d fc	 mov	 DWORD PTR _this$[ebp], ecx

; 210  : 	m_bMouseOnButton = FALSE;

  00eae	8b 45 fc	 mov	 eax, DWORD PTR _this$[ebp]
  00eb1	c7 80 80 00 00
	00 00 00 00 00	 mov	 DWORD PTR [eax+128], 0

; 211  : 	this->Invalidate();

  00ebb	6a 01		 push	 1
  00ebd	8b 4d fc	 mov	 ecx, DWORD PTR _this$[ebp]
  00ec0	e8 00 00 00 00	 call	 ?Invalidate@CWnd@@QAEXH@Z ; CWnd::Invalidate

; 212  : 	return 1;

  00ec5	b8 01 00 00 00	 mov	 eax, 1

; 213  : }

  00eca	83 c4 04	 add	 esp, 4
  00ecd	3b ec		 cmp	 ebp, esp
  00ecf	e8 00 00 00 00	 call	 __RTC_CheckEsp
  00ed4	8b e5		 mov	 esp, ebp
  00ed6	5d		 pop	 ebp
  00ed7	c2 08 00	 ret	 8
?OnMouseLeave@CSkinButton2@@QAEJIJ@Z ENDP		; CSkinButton2::OnMouseLeave
_TEXT	ENDS
EXTRN	?OnLButtonDown@CWnd@@IAEXIVCPoint@@@Z:NEAR	; CWnd::OnLButtonDown
EXTRN	?SetCapture@CWnd@@QAEPAV1@XZ:NEAR		; CWnd::SetCapture
; Function compile flags: /Odt /RTCsu
_TEXT	SEGMENT
$T188336 = -12						; size = 8
_this$ = -4						; size = 4
_nFlags$ = 8						; size = 4
_point$ = 12						; size = 8
?OnLButtonDown@CSkinButton2@@QAEXIVCPoint@@@Z PROC NEAR	; CSkinButton2::OnLButtonDown
; _this$ = ecx

; 215  : {

  00ee0	55		 push	 ebp
  00ee1	8b ec		 mov	 ebp, esp
  00ee3	83 ec 0c	 sub	 esp, 12			; 0000000cH
  00ee6	c7 45 f4 cc cc
	cc cc		 mov	 DWORD PTR [ebp-12], -858993460 ; ccccccccH
  00eed	c7 45 f8 cc cc
	cc cc		 mov	 DWORD PTR [ebp-8], -858993460 ; ccccccccH
  00ef4	c7 45 fc cc cc
	cc cc		 mov	 DWORD PTR [ebp-4], -858993460 ; ccccccccH
  00efb	89 4d fc	 mov	 DWORD PTR _this$[ebp], ecx

; 216  : 	// TODO: /
; 217  : 	if(m_bUseResponseRect && !m_rcResponse.PtInRect(point))

  00efe	8b 45 fc	 mov	 eax, DWORD PTR _this$[ebp]
  00f01	83 78 70 00	 cmp	 DWORD PTR [eax+112], 0
  00f05	74 3e		 je	 SHORT $L187361
  00f07	8b 4d 0c	 mov	 ecx, DWORD PTR _point$[ebp]
  00f0a	89 4d f4	 mov	 DWORD PTR $T188336[ebp], ecx
  00f0d	8b 55 10	 mov	 edx, DWORD PTR _point$[ebp+4]
  00f10	89 55 f8	 mov	 DWORD PTR $T188336[ebp+4], edx
  00f13	8b 45 f8	 mov	 eax, DWORD PTR $T188336[ebp+4]
  00f16	50		 push	 eax
  00f17	8b 4d f4	 mov	 ecx, DWORD PTR $T188336[ebp]
  00f1a	51		 push	 ecx
  00f1b	8b 4d fc	 mov	 ecx, DWORD PTR _this$[ebp]
  00f1e	83 c1 60	 add	 ecx, 96			; 00000060H
  00f21	e8 00 00 00 00	 call	 ?PtInRect@CRect@@QBEHUtagPOINT@@@Z ; CRect::PtInRect
  00f26	85 c0		 test	 eax, eax
  00f28	75 1b		 jne	 SHORT $L187361

; 218  : 	{
; 219  : 		//CButton::OnMouseMove(nFlags, point);
; 220  : 		SendMouseMessageToParent(WM_LBUTTONDOWN, nFlags, point);

  00f2a	8b 55 10	 mov	 edx, DWORD PTR _point$[ebp+4]
  00f2d	52		 push	 edx
  00f2e	8b 45 0c	 mov	 eax, DWORD PTR _point$[ebp]
  00f31	50		 push	 eax
  00f32	8b 4d 08	 mov	 ecx, DWORD PTR _nFlags$[ebp]
  00f35	51		 push	 ecx
  00f36	68 01 02 00 00	 push	 513			; 00000201H
  00f3b	8b 4d fc	 mov	 ecx, DWORD PTR _this$[ebp]
  00f3e	e8 00 00 00 00	 call	 ?SendMouseMessageToParent@CSkinButton2@@QAEXIIVCPoint@@@Z ; CSkinButton2::SendMouseMessageToParent

; 221  : 		return;

  00f43	eb 37		 jmp	 SHORT $L187359
$L187361:

; 222  : 	}
; 223  : 
; 224  : 	if( m_bSelected )

  00f45	8b 55 fc	 mov	 edx, DWORD PTR _this$[ebp]
  00f48	83 ba 84 00 00
	00 00		 cmp	 DWORD PTR [edx+132], 0
  00f4f	74 0a		 je	 SHORT $L187362

; 225  : 	{
; 226  : 		this->SetCapture();

  00f51	8b 4d fc	 mov	 ecx, DWORD PTR _this$[ebp]
  00f54	e8 00 00 00 00	 call	 ?SetCapture@CWnd@@QAEPAV1@XZ ; CWnd::SetCapture

; 227  : 		return ;

  00f59	eb 21		 jmp	 SHORT $L187359
$L187362:

; 228  : 	}
; 229  : 	m_bMouseDown = TRUE;

  00f5b	8b 45 fc	 mov	 eax, DWORD PTR _this$[ebp]
  00f5e	c7 80 88 00 00
	00 01 00 00 00	 mov	 DWORD PTR [eax+136], 1

; 230  : 	CButton::OnLButtonDown(nFlags, point);

  00f68	8b 4d 10	 mov	 ecx, DWORD PTR _point$[ebp+4]
  00f6b	51		 push	 ecx
  00f6c	8b 55 0c	 mov	 edx, DWORD PTR _point$[ebp]
  00f6f	52		 push	 edx
  00f70	8b 45 08	 mov	 eax, DWORD PTR _nFlags$[ebp]
  00f73	50		 push	 eax
  00f74	8b 4d fc	 mov	 ecx, DWORD PTR _this$[ebp]
  00f77	e8 00 00 00 00	 call	 ?OnLButtonDown@CWnd@@IAEXIVCPoint@@@Z ; CWnd::OnLButtonDown
$L187359:

; 231  : }

  00f7c	83 c4 0c	 add	 esp, 12			; 0000000cH
  00f7f	3b ec		 cmp	 ebp, esp
  00f81	e8 00 00 00 00	 call	 __RTC_CheckEsp
  00f86	8b e5		 mov	 esp, ebp
  00f88	5d		 pop	 ebp
  00f89	c2 0c 00	 ret	 12			; 0000000cH
?OnLButtonDown@CSkinButton2@@QAEXIVCPoint@@@Z ENDP	; CSkinButton2::OnLButtonDown
_TEXT	ENDS
EXTRN	?OnLButtonUp@CWnd@@IAEXIVCPoint@@@Z:NEAR	; CWnd::OnLButtonUp
EXTRN	__imp__ReleaseCapture@0:NEAR
; Function compile flags: /Odt /RTCsu
_TEXT	SEGMENT
$T188338 = -12						; size = 8
_this$ = -4						; size = 4
_nFlags$ = 8						; size = 4
_point$ = 12						; size = 8
?OnLButtonUp@CSkinButton2@@QAEXIVCPoint@@@Z PROC NEAR	; CSkinButton2::OnLButtonUp
; _this$ = ecx

; 234  : {

  00f90	55		 push	 ebp
  00f91	8b ec		 mov	 ebp, esp
  00f93	83 ec 0c	 sub	 esp, 12			; 0000000cH
  00f96	56		 push	 esi
  00f97	c7 45 f4 cc cc
	cc cc		 mov	 DWORD PTR [ebp-12], -858993460 ; ccccccccH
  00f9e	c7 45 f8 cc cc
	cc cc		 mov	 DWORD PTR [ebp-8], -858993460 ; ccccccccH
  00fa5	c7 45 fc cc cc
	cc cc		 mov	 DWORD PTR [ebp-4], -858993460 ; ccccccccH
  00fac	89 4d fc	 mov	 DWORD PTR _this$[ebp], ecx

; 235  : 	// TODO: /
; 236  : 	if(m_bUseResponseRect && !m_rcResponse.PtInRect(point))

  00faf	8b 45 fc	 mov	 eax, DWORD PTR _this$[ebp]
  00fb2	83 78 70 00	 cmp	 DWORD PTR [eax+112], 0
  00fb6	74 4d		 je	 SHORT $L187369
  00fb8	8b 4d 0c	 mov	 ecx, DWORD PTR _point$[ebp]
  00fbb	89 4d f4	 mov	 DWORD PTR $T188338[ebp], ecx
  00fbe	8b 55 10	 mov	 edx, DWORD PTR _point$[ebp+4]
  00fc1	89 55 f8	 mov	 DWORD PTR $T188338[ebp+4], edx
  00fc4	8b 45 f8	 mov	 eax, DWORD PTR $T188338[ebp+4]
  00fc7	50		 push	 eax
  00fc8	8b 4d f4	 mov	 ecx, DWORD PTR $T188338[ebp]
  00fcb	51		 push	 ecx
  00fcc	8b 4d fc	 mov	 ecx, DWORD PTR _this$[ebp]
  00fcf	83 c1 60	 add	 ecx, 96			; 00000060H
  00fd2	e8 00 00 00 00	 call	 ?PtInRect@CRect@@QBEHUtagPOINT@@@Z ; CRect::PtInRect
  00fd7	85 c0		 test	 eax, eax
  00fd9	75 2a		 jne	 SHORT $L187369

; 237  : 	{
; 238  : 		//CButton::OnMouseMove(nFlags, point);
; 239  : 		::ReleaseCapture();

  00fdb	8b f4		 mov	 esi, esp
  00fdd	ff 15 00 00 00
	00		 call	 DWORD PTR __imp__ReleaseCapture@0
  00fe3	3b f4		 cmp	 esi, esp
  00fe5	e8 00 00 00 00	 call	 __RTC_CheckEsp

; 240  : 		SendMouseMessageToParent(WM_LBUTTONUP, nFlags, point);

  00fea	8b 55 10	 mov	 edx, DWORD PTR _point$[ebp+4]
  00fed	52		 push	 edx
  00fee	8b 45 0c	 mov	 eax, DWORD PTR _point$[ebp]
  00ff1	50		 push	 eax
  00ff2	8b 4d 08	 mov	 ecx, DWORD PTR _nFlags$[ebp]
  00ff5	51		 push	 ecx
  00ff6	68 02 02 00 00	 push	 514			; 00000202H
  00ffb	8b 4d fc	 mov	 ecx, DWORD PTR _this$[ebp]
  00ffe	e8 00 00 00 00	 call	 ?SendMouseMessageToParent@CSkinButton2@@QAEXIIVCPoint@@@Z ; CSkinButton2::SendMouseMessageToParent

; 241  : 		return;

  01003	eb 3e		 jmp	 SHORT $L187367
$L187369:

; 242  : 	}
; 243  : 
; 244  : 	if( m_bSelected )

  01005	8b 55 fc	 mov	 edx, DWORD PTR _this$[ebp]
  01008	83 ba 84 00 00
	00 00		 cmp	 DWORD PTR [edx+132], 0
  0100f	74 11		 je	 SHORT $L187370

; 245  : 	{
; 246  : 		::ReleaseCapture();

  01011	8b f4		 mov	 esi, esp
  01013	ff 15 00 00 00
	00		 call	 DWORD PTR __imp__ReleaseCapture@0
  01019	3b f4		 cmp	 esi, esp
  0101b	e8 00 00 00 00	 call	 __RTC_CheckEsp

; 247  : 		return ;

  01020	eb 21		 jmp	 SHORT $L187367
$L187370:

; 248  : 	}
; 249  : 	m_bMouseDown = FALSE;

  01022	8b 45 fc	 mov	 eax, DWORD PTR _this$[ebp]
  01025	c7 80 88 00 00
	00 00 00 00 00	 mov	 DWORD PTR [eax+136], 0

; 250  : 	CButton::OnLButtonUp(nFlags, point);

  0102f	8b 4d 10	 mov	 ecx, DWORD PTR _point$[ebp+4]
  01032	51		 push	 ecx
  01033	8b 55 0c	 mov	 edx, DWORD PTR _point$[ebp]
  01036	52		 push	 edx
  01037	8b 45 08	 mov	 eax, DWORD PTR _nFlags$[ebp]
  0103a	50		 push	 eax
  0103b	8b 4d fc	 mov	 ecx, DWORD PTR _this$[ebp]
  0103e	e8 00 00 00 00	 call	 ?OnLButtonUp@CWnd@@IAEXIVCPoint@@@Z ; CWnd::OnLButtonUp
$L187367:

; 251  : }

  01043	5e		 pop	 esi
  01044	83 c4 0c	 add	 esp, 12			; 0000000cH
  01047	3b ec		 cmp	 ebp, esp
  01049	e8 00 00 00 00	 call	 __RTC_CheckEsp
  0104e	8b e5		 mov	 esp, ebp
  01050	5d		 pop	 ebp
  01051	c2 0c 00	 ret	 12			; 0000000cH
?OnLButtonUp@CSkinButton2@@QAEXIVCPoint@@@Z ENDP	; CSkinButton2::OnLButtonUp
_TEXT	ENDS
PUBLIC	??1Bitmap@Gdiplus@@UAE@XZ			; Gdiplus::Bitmap::~Bitmap
PUBLIC	??0SolidBrush@Gdiplus@@QAE@ABVColor@1@@Z	; Gdiplus::SolidBrush::SolidBrush
PUBLIC	??1SolidBrush@Gdiplus@@UAE@XZ			; Gdiplus::SolidBrush::~SolidBrush
PUBLIC	?FromImage@Graphics@Gdiplus@@SAPAV12@PAVImage@2@@Z ; Gdiplus::Graphics::FromImage
PUBLIC	??0Graphics@Gdiplus@@QAE@PAUHDC__@@@Z		; Gdiplus::Graphics::Graphics
PUBLIC	??1Graphics@Gdiplus@@QAE@XZ			; Gdiplus::Graphics::~Graphics
PUBLIC	??0RectF@Gdiplus@@QAE@XZ			; Gdiplus::RectF::RectF
PUBLIC	??0RectF@Gdiplus@@QAE@MMMM@Z			; Gdiplus::RectF::RectF
PUBLIC	??0CMemDC@@QAE@PAVCDC@@ABVCRect@@@Z		; CMemDC::CMemDC
PUBLIC	??1CMemDC@@UAE@XZ				; CMemDC::~CMemDC
PUBLIC	??CCMemDC@@QAEPAV0@XZ				; CMemDC::operator->
PUBLIC	?DrawString@Graphics@Gdiplus@@QAE?AW4Status@2@PB_WHPBVFont@2@ABVRectF@2@PBVStringFormat@2@PBVBrush@2@@Z ; Gdiplus::Graphics::DrawString
PUBLIC	?DrawImage@Graphics@Gdiplus@@QAE?AW4Status@2@PAVImage@2@ABVRectF@2@MMMMW4Unit@2@PBVImageAttributes@2@P6GHPAX@Z4@Z ; Gdiplus::Graphics::DrawImage
PUBLIC	?DrawImage@CSkinButton2@@AAEXAAVGraphics@Gdiplus@@W4BTN_DRAW_HUE@1@@Z ; CSkinButton2::DrawImage
PUBLIC	?DrawFrame@CSkinButton2@@AAEXAAVGraphics@Gdiplus@@AAVCRect@@@Z ; CSkinButton2::DrawFrame
PUBLIC	??0Color@Gdiplus@@QAE@EEEE@Z			; Gdiplus::Color::Color
PUBLIC	??0StringFormat@Gdiplus@@QAE@HG@Z		; Gdiplus::StringFormat::StringFormat
PUBLIC	??1StringFormat@Gdiplus@@QAE@XZ			; Gdiplus::StringFormat::~StringFormat
PUBLIC	?SetAlignment@StringFormat@Gdiplus@@QAE?AW4Status@2@W4StringAlignment@2@@Z ; Gdiplus::StringFormat::SetAlignment
PUBLIC	?GetWidth@Image@Gdiplus@@QAEIXZ			; Gdiplus::Image::GetWidth
PUBLIC	?GetHeight@Image@Gdiplus@@QAEIXZ		; Gdiplus::Image::GetHeight
PUBLIC	__real@40000000
PUBLIC	__real@3f800000
PUBLIC	??0Bitmap@Gdiplus@@QAE@HHPAVGraphics@1@@Z	; Gdiplus::Bitmap::Bitmap
EXTRN	??0CClientDC@@QAE@PAVCWnd@@@Z:NEAR		; CClientDC::CClientDC
EXTRN	??1CClientDC@@UAE@XZ:NEAR			; CClientDC::~CClientDC
EXTRN	?FromHandle@CDC@@SGPAV1@PAUHDC__@@@Z:NEAR	; CDC::FromHandle
EXTRN	__imp_?GetLength@?$CSimpleStringT@D$00@ATL@@QBEHXZ:NEAR
xdata$x	SEGMENT
$T188375 DD	0ffffffffH
	DD	FLAT:$L188345
	DD	00H
	DD	FLAT:$L188346
	DD	01H
	DD	FLAT:$L188347
	DD	02H
	DD	FLAT:$L188348
	DD	02H
	DD	FLAT:$L188349
	DD	04H
	DD	FLAT:$L188350
	DD	05H
	DD	FLAT:$L188351
	DD	05H
	DD	FLAT:$L188352
$T188354 DD	019930520H
	DD	08H
	DD	FLAT:$T188375
	DD	2 DUP(00H)
	DD	2 DUP(00H)
xdata$x	ENDS
;	COMDAT __real@40000000
CONST	SEGMENT
__real@40000000 DD 040000000r			; 2
CONST	ENDS
;	COMDAT __real@3f800000
CONST	SEGMENT
__real@3f800000 DD 03f800000r			; 1
; Function compile flags: /Odt /RTCsu
CONST	ENDS
_TEXT	SEGMENT
tv416 = -2464						; size = 4
tv254 = -2460						; size = 4
tv541 = -2456						; size = 8
tv537 = -2448						; size = 8
tv414 = -2440						; size = 4
tv288 = -2436						; size = 4
tv522 = -2432						; size = 8
tv516 = -2424						; size = 8
tv508 = -2416						; size = 8
tv502 = -2408						; size = 8
tv487 = -2400						; size = 4
tv485 = -2396						; size = 4
$T188344 = -2392					; size = 4
$T188343 = -2388					; size = 12
$T188342 = -2376					; size = 4
$T188341 = -2372					; size = 12
_rectBack$187411 = -2356				; size = 16
_rectText$187410 = -2332				; size = 16
_format$187409 = -2308					; size = 8
_wFile$187408 = -2292					; size = 2048
_rc$187407 = -236					; size = 16
_Ptext$187406 = -216					; size = 4
_bmpText$187405 = -208					; size = 16
_clDC$187383 = -184					; size = 20
_rect1$187382 = -156					; size = 16
_pOldBitmap$ = -136					; size = 4
_bmp$ = -128						; size = 8
_graphics$ = -112					; size = 8
_pDC$ = -96						; size = 44
_rect$ = -44						; size = 16
_lState$ = -24						; size = 4
_this$ = -20						; size = 4
__$ArrayPad$ = -16					; size = 4
__$EHRec$ = -12						; size = 12
__$ReturnAddr$ = 4					; size = 4
_lpDrawItemStruct$ = 8					; size = 4
?DrawItem@CSkinButton2@@UAEXPAUtagDRAWITEMSTRUCT@@@Z PROC NEAR ; CSkinButton2::DrawItem
; _this$ = ecx

; 254  : {	

  01060	55		 push	 ebp
  01061	8b ec		 mov	 ebp, esp
  01063	6a ff		 push	 -1
  01065	68 00 00 00 00	 push	 __ehhandler$?DrawItem@CSkinButton2@@UAEXPAUtagDRAWITEMSTRUCT@@@Z
  0106a	64 a1 00 00 00
	00		 mov	 eax, DWORD PTR fs:__except_list
  01070	50		 push	 eax
  01071	64 89 25 00 00
	00 00		 mov	 DWORD PTR fs:__except_list, esp
  01078	81 ec 94 09 00
	00		 sub	 esp, 2452		; 00000994H
  0107e	56		 push	 esi
  0107f	57		 push	 edi
  01080	51		 push	 ecx
  01081	8d bd 60 f6 ff
	ff		 lea	 edi, DWORD PTR [ebp-2464]
  01087	b9 65 02 00 00	 mov	 ecx, 613		; 00000265H
  0108c	b8 cc cc cc cc	 mov	 eax, -858993460		; ccccccccH
  01091	f3 ab		 rep stosd
  01093	59		 pop	 ecx
  01094	a1 00 00 00 00	 mov	 eax, DWORD PTR ___security_cookie
  01099	89 45 f0	 mov	 DWORD PTR __$ArrayPad$[ebp], eax
  0109c	89 4d ec	 mov	 DWORD PTR _this$[ebp], ecx

; 255  : 	UINT lState = lpDrawItemStruct->itemState;	

  0109f	8b 45 08	 mov	 eax, DWORD PTR _lpDrawItemStruct$[ebp]
  010a2	8b 48 10	 mov	 ecx, DWORD PTR [eax+16]
  010a5	89 4d e8	 mov	 DWORD PTR _lState$[ebp], ecx

; 256  : 
; 257  : 	CRect rect;

  010a8	8d 4d d4	 lea	 ecx, DWORD PTR _rect$[ebp]
  010ab	e8 00 00 00 00	 call	 ??0CRect@@QAE@XZ	; CRect::CRect

; 258  : 	GetClientRect(rect);

  010b0	8d 4d d4	 lea	 ecx, DWORD PTR _rect$[ebp]
  010b3	e8 00 00 00 00	 call	 ??BCRect@@QAEPAUtagRECT@@XZ ; CRect::operator tagRECT *
  010b8	50		 push	 eax
  010b9	8b 4d ec	 mov	 ecx, DWORD PTR _this$[ebp]
  010bc	e8 00 00 00 00	 call	 ?GetClientRect@CWnd@@QBEXPAUtagRECT@@@Z ; CWnd::GetClientRect

; 259  : 
; 260  : 	CMemDC pDC( CDC::FromHandle(lpDrawItemStruct->hDC), rect);

  010c1	8d 55 d4	 lea	 edx, DWORD PTR _rect$[ebp]
  010c4	52		 push	 edx
  010c5	8b 45 08	 mov	 eax, DWORD PTR _lpDrawItemStruct$[ebp]
  010c8	8b 48 18	 mov	 ecx, DWORD PTR [eax+24]
  010cb	51		 push	 ecx
  010cc	e8 00 00 00 00	 call	 ?FromHandle@CDC@@SGPAV1@PAUHDC__@@@Z ; CDC::FromHandle
  010d1	50		 push	 eax
  010d2	8d 4d a0	 lea	 ecx, DWORD PTR _pDC$[ebp]
  010d5	e8 00 00 00 00	 call	 ??0CMemDC@@QAE@PAVCDC@@ABVCRect@@@Z ; CMemDC::CMemDC
  010da	c7 45 fc 00 00
	00 00		 mov	 DWORD PTR __$EHRec$[ebp+8], 0

; 261  : 	Gdiplus::Graphics graphics(pDC->m_hDC);

  010e1	8d 4d a0	 lea	 ecx, DWORD PTR _pDC$[ebp]
  010e4	e8 00 00 00 00	 call	 ??CCMemDC@@QAEPAV0@XZ	; CMemDC::operator->
  010e9	8b 50 04	 mov	 edx, DWORD PTR [eax+4]
  010ec	52		 push	 edx
  010ed	8d 4d 90	 lea	 ecx, DWORD PTR _graphics$[ebp]
  010f0	e8 00 00 00 00	 call	 ??0Graphics@Gdiplus@@QAE@PAUHDC__@@@Z ; Gdiplus::Graphics::Graphics
  010f5	c6 45 fc 01	 mov	 BYTE PTR __$EHRec$[ebp+8], 1

; 262  : 
; 263  : 	// get background
; 264  : 	CBitmap bmp, *pOldBitmap;

  010f9	8d 4d 80	 lea	 ecx, DWORD PTR _bmp$[ebp]
  010fc	e8 00 00 00 00	 call	 ??0CBitmap@@QAE@XZ	; CBitmap::CBitmap
  01101	c6 45 fc 02	 mov	 BYTE PTR __$EHRec$[ebp+8], 2

; 265  : 	if (m_dcBk.m_hDC == NULL)

  01105	8b 45 ec	 mov	 eax, DWORD PTR _this$[ebp]
  01108	83 b8 90 00 00
	00 00		 cmp	 DWORD PTR [eax+144], 0
  0110f	0f 85 f5 00 00
	00		 jne	 $L187381

; 266  : 	{
; 267  : 		CRect rect1;

  01115	8d 8d 64 ff ff
	ff		 lea	 ecx, DWORD PTR _rect1$187382[ebp]
  0111b	e8 00 00 00 00	 call	 ??0CRect@@QAE@XZ	; CRect::CRect

; 268  : 		CClientDC clDC(GetParent());

  01120	8b 4d ec	 mov	 ecx, DWORD PTR _this$[ebp]
  01123	e8 00 00 00 00	 call	 ?GetParent@CWnd@@QBEPAV1@XZ ; CWnd::GetParent
  01128	50		 push	 eax
  01129	8d 8d 48 ff ff
	ff		 lea	 ecx, DWORD PTR _clDC$187383[ebp]
  0112f	e8 00 00 00 00	 call	 ??0CClientDC@@QAE@PAVCWnd@@@Z ; CClientDC::CClientDC
  01134	c6 45 fc 03	 mov	 BYTE PTR __$EHRec$[ebp+8], 3

; 269  : 		GetWindowRect(rect1);

  01138	8d 8d 64 ff ff
	ff		 lea	 ecx, DWORD PTR _rect1$187382[ebp]
  0113e	e8 00 00 00 00	 call	 ??BCRect@@QAEPAUtagRECT@@XZ ; CRect::operator tagRECT *
  01143	50		 push	 eax
  01144	8b 4d ec	 mov	 ecx, DWORD PTR _this$[ebp]
  01147	e8 00 00 00 00	 call	 ?GetWindowRect@CWnd@@QBEXPAUtagRECT@@@Z ; CWnd::GetWindowRect

; 270  : 		GetParent()->ScreenToClient(rect1);

  0114c	8d 8d 64 ff ff
	ff		 lea	 ecx, DWORD PTR _rect1$187382[ebp]
  01152	e8 00 00 00 00	 call	 ??BCRect@@QAEPAUtagRECT@@XZ ; CRect::operator tagRECT *
  01157	50		 push	 eax
  01158	8b 4d ec	 mov	 ecx, DWORD PTR _this$[ebp]
  0115b	e8 00 00 00 00	 call	 ?GetParent@CWnd@@QBEPAV1@XZ ; CWnd::GetParent
  01160	8b c8		 mov	 ecx, eax
  01162	e8 00 00 00 00	 call	 ?ScreenToClient@CWnd@@QBEXPAUtagRECT@@@Z ; CWnd::ScreenToClient

; 271  : 
; 272  : 		m_dcBk.CreateCompatibleDC(&clDC);

  01167	8d 8d 48 ff ff
	ff		 lea	 ecx, DWORD PTR _clDC$187383[ebp]
  0116d	51		 push	 ecx
  0116e	8b 4d ec	 mov	 ecx, DWORD PTR _this$[ebp]
  01171	81 c1 8c 00 00
	00		 add	 ecx, 140		; 0000008cH
  01177	e8 00 00 00 00	 call	 ?CreateCompatibleDC@CDC@@QAEHPAV1@@Z ; CDC::CreateCompatibleDC

; 273  : 		bmp.CreateCompatibleBitmap(&clDC, rect.Width(), rect.Height());

  0117c	8d 4d d4	 lea	 ecx, DWORD PTR _rect$[ebp]
  0117f	e8 00 00 00 00	 call	 ?Height@CRect@@QBEHXZ	; CRect::Height
  01184	50		 push	 eax
  01185	8d 4d d4	 lea	 ecx, DWORD PTR _rect$[ebp]
  01188	e8 00 00 00 00	 call	 ?Width@CRect@@QBEHXZ	; CRect::Width
  0118d	50		 push	 eax
  0118e	8d 95 48 ff ff
	ff		 lea	 edx, DWORD PTR _clDC$187383[ebp]
  01194	52		 push	 edx
  01195	8d 4d 80	 lea	 ecx, DWORD PTR _bmp$[ebp]
  01198	e8 00 00 00 00	 call	 ?CreateCompatibleBitmap@CBitmap@@QAEHPAVCDC@@HH@Z ; CBitmap::CreateCompatibleBitmap

; 274  : 		pOldBitmap = m_dcBk.SelectObject(&bmp);

  0119d	8d 45 80	 lea	 eax, DWORD PTR _bmp$[ebp]
  011a0	50		 push	 eax
  011a1	8b 4d ec	 mov	 ecx, DWORD PTR _this$[ebp]
  011a4	81 c1 8c 00 00
	00		 add	 ecx, 140		; 0000008cH
  011aa	e8 00 00 00 00	 call	 ?SelectObject@CDC@@QAEPAVCBitmap@@PAV2@@Z ; CDC::SelectObject
  011af	89 85 78 ff ff
	ff		 mov	 DWORD PTR _pOldBitmap$[ebp], eax

; 275  : 		m_dcBk.BitBlt(0, 0, rect.Width(), rect.Height(), &clDC, rect1.left, rect1.top, SRCCOPY);

  011b5	68 20 00 cc 00	 push	 13369376		; 00cc0020H
  011ba	8b 8d 68 ff ff
	ff		 mov	 ecx, DWORD PTR _rect1$187382[ebp+4]
  011c0	51		 push	 ecx
  011c1	8b 95 64 ff ff
	ff		 mov	 edx, DWORD PTR _rect1$187382[ebp]
  011c7	52		 push	 edx
  011c8	8d 85 48 ff ff
	ff		 lea	 eax, DWORD PTR _clDC$187383[ebp]
  011ce	50		 push	 eax
  011cf	8d 4d d4	 lea	 ecx, DWORD PTR _rect$[ebp]
  011d2	e8 00 00 00 00	 call	 ?Height@CRect@@QBEHXZ	; CRect::Height
  011d7	50		 push	 eax
  011d8	8d 4d d4	 lea	 ecx, DWORD PTR _rect$[ebp]
  011db	e8 00 00 00 00	 call	 ?Width@CRect@@QBEHXZ	; CRect::Width
  011e0	50		 push	 eax
  011e1	6a 00		 push	 0
  011e3	6a 00		 push	 0
  011e5	8b 4d ec	 mov	 ecx, DWORD PTR _this$[ebp]
  011e8	81 c1 8c 00 00
	00		 add	 ecx, 140		; 0000008cH
  011ee	e8 00 00 00 00	 call	 ?BitBlt@CDC@@QAEHHHHHPAV1@HHK@Z ; CDC::BitBlt

; 276  : 		bmp.DeleteObject();

  011f3	8d 4d 80	 lea	 ecx, DWORD PTR _bmp$[ebp]
  011f6	e8 00 00 00 00	 call	 ?DeleteObject@CGdiObject@@QAEHXZ ; CGdiObject::DeleteObject

; 277  : 	}

  011fb	c6 45 fc 02	 mov	 BYTE PTR __$EHRec$[ebp+8], 2
  011ff	8d 8d 48 ff ff
	ff		 lea	 ecx, DWORD PTR _clDC$187383[ebp]
  01205	e8 00 00 00 00	 call	 ??1CClientDC@@UAE@XZ	; CClientDC::~CClientDC
$L187381:

; 278  : 	// paint backGround
; 279  : 
; 280  : 	pDC->BitBlt(0, 0, rect.Width(), rect.Height(), &m_dcBk, 0, 0, SRCCOPY);

  0120a	68 20 00 cc 00	 push	 13369376		; 00cc0020H
  0120f	6a 00		 push	 0
  01211	6a 00		 push	 0
  01213	8b 4d ec	 mov	 ecx, DWORD PTR _this$[ebp]
  01216	81 c1 8c 00 00
	00		 add	 ecx, 140		; 0000008cH
  0121c	51		 push	 ecx
  0121d	8d 4d d4	 lea	 ecx, DWORD PTR _rect$[ebp]
  01220	e8 00 00 00 00	 call	 ?Height@CRect@@QBEHXZ	; CRect::Height
  01225	50		 push	 eax
  01226	8d 4d d4	 lea	 ecx, DWORD PTR _rect$[ebp]
  01229	e8 00 00 00 00	 call	 ?Width@CRect@@QBEHXZ	; CRect::Width
  0122e	50		 push	 eax
  0122f	6a 00		 push	 0
  01231	6a 00		 push	 0
  01233	8d 4d a0	 lea	 ecx, DWORD PTR _pDC$[ebp]
  01236	e8 00 00 00 00	 call	 ??CCMemDC@@QAEPAV0@XZ	; CMemDC::operator->
  0123b	8b c8		 mov	 ecx, eax
  0123d	e8 00 00 00 00	 call	 ?BitBlt@CDC@@QAEHHHHHPAV1@HHK@Z ; CDC::BitBlt

; 281  : 
; 282  : 	if( m_bDisable )

  01242	8b 55 ec	 mov	 edx, DWORD PTR _this$[ebp]
  01245	83 ba 84 01 00
	00 00		 cmp	 DWORD PTR [edx+388], 0
  0124c	74 13		 je	 SHORT $L187386

; 283  : 	{
; 284  : 		DrawImage(graphics);

  0124e	6a 00		 push	 0
  01250	8d 45 90	 lea	 eax, DWORD PTR _graphics$[ebp]
  01253	50		 push	 eax
  01254	8b 4d ec	 mov	 ecx, DWORD PTR _this$[ebp]
  01257	e8 00 00 00 00	 call	 ?DrawImage@CSkinButton2@@AAEXAAVGraphics@Gdiplus@@W4BTN_DRAW_HUE@1@@Z ; CSkinButton2::DrawImage

; 285  : 	}
; 286  : 	else

  0125c	e9 1d 01 00 00	 jmp	 $L187387
$L187386:

; 287  : 	{
; 288  : 		if (lState & ODS_DISABLED)

  01261	8b 4d e8	 mov	 ecx, DWORD PTR _lState$[ebp]
  01264	83 e1 04	 and	 ecx, 4
  01267	74 13		 je	 SHORT $L187388

; 289  : 		{
; 290  : 			DrawImage(graphics, DRAW_GRAY);

  01269	6a 02		 push	 2
  0126b	8d 55 90	 lea	 edx, DWORD PTR _graphics$[ebp]
  0126e	52		 push	 edx
  0126f	8b 4d ec	 mov	 ecx, DWORD PTR _this$[ebp]
  01272	e8 00 00 00 00	 call	 ?DrawImage@CSkinButton2@@AAEXAAVGraphics@Gdiplus@@W4BTN_DRAW_HUE@1@@Z ; CSkinButton2::DrawImage

; 291  : 		}
; 292  : 		else

  01277	e9 02 01 00 00	 jmp	 $L187387
$L187388:

; 293  : 		{
; 294  : 			if (m_bSelected )

  0127c	8b 45 ec	 mov	 eax, DWORD PTR _this$[ebp]
  0127f	83 b8 84 00 00
	00 00		 cmp	 DWORD PTR [eax+132], 0
  01286	74 23		 je	 SHORT $L187390

; 295  : 			{
; 296  : 				DrawFrame(graphics,rect );

  01288	8d 4d d4	 lea	 ecx, DWORD PTR _rect$[ebp]
  0128b	51		 push	 ecx
  0128c	8d 55 90	 lea	 edx, DWORD PTR _graphics$[ebp]
  0128f	52		 push	 edx
  01290	8b 4d ec	 mov	 ecx, DWORD PTR _this$[ebp]
  01293	e8 00 00 00 00	 call	 ?DrawFrame@CSkinButton2@@AAEXAAVGraphics@Gdiplus@@AAVCRect@@@Z ; CSkinButton2::DrawFrame

; 297  : 				DrawImage(graphics, DRAW_LIGHT);

  01298	6a 01		 push	 1
  0129a	8d 45 90	 lea	 eax, DWORD PTR _graphics$[ebp]
  0129d	50		 push	 eax
  0129e	8b 4d ec	 mov	 ecx, DWORD PTR _this$[ebp]
  012a1	e8 00 00 00 00	 call	 ?DrawImage@CSkinButton2@@AAEXAAVGraphics@Gdiplus@@W4BTN_DRAW_HUE@1@@Z ; CSkinButton2::DrawImage

; 298  : 			}
; 299  : 			else

  012a6	e9 d3 00 00 00	 jmp	 $L187387
$L187390:

; 300  : 			{
; 301  : 				if (lState & ODS_SELECTED)

  012ab	8b 4d e8	 mov	 ecx, DWORD PTR _lState$[ebp]
  012ae	83 e1 01	 and	 ecx, 1
  012b1	74 2c		 je	 SHORT $L187392

; 302  : 				{
; 303  : 					DrawFrame(graphics,rect );

  012b3	8d 55 d4	 lea	 edx, DWORD PTR _rect$[ebp]
  012b6	52		 push	 edx
  012b7	8d 45 90	 lea	 eax, DWORD PTR _graphics$[ebp]
  012ba	50		 push	 eax
  012bb	8b 4d ec	 mov	 ecx, DWORD PTR _this$[ebp]
  012be	e8 00 00 00 00	 call	 ?DrawFrame@CSkinButton2@@AAEXAAVGraphics@Gdiplus@@AAVCRect@@@Z ; CSkinButton2::DrawFrame

; 304  : 					if( m_enmuDrawType != NO_FRAME_SELECT )

  012c3	8b 4d ec	 mov	 ecx, DWORD PTR _this$[ebp]
  012c6	83 79 54 10	 cmp	 DWORD PTR [ecx+84], 16	; 00000010H
  012ca	74 0e		 je	 SHORT $L187393

; 305  : 					{
; 306  : 						DrawImage(graphics, DRAW_LIGHT);

  012cc	6a 01		 push	 1
  012ce	8d 55 90	 lea	 edx, DWORD PTR _graphics$[ebp]
  012d1	52		 push	 edx
  012d2	8b 4d ec	 mov	 ecx, DWORD PTR _this$[ebp]
  012d5	e8 00 00 00 00	 call	 ?DrawImage@CSkinButton2@@AAEXAAVGraphics@Gdiplus@@W4BTN_DRAW_HUE@1@@Z ; CSkinButton2::DrawImage
$L187393:

; 307  : 					}
; 308  : 				}
; 309  : 				else if (m_bMouseOnButton)

  012da	e9 9f 00 00 00	 jmp	 $L187387
$L187392:
  012df	8b 45 ec	 mov	 eax, DWORD PTR _this$[ebp]
  012e2	83 b8 80 00 00
	00 00		 cmp	 DWORD PTR [eax+128], 0
  012e9	74 29		 je	 SHORT $L187395

; 310  : 				{
; 311  : 					DrawFrame(graphics,rect );

  012eb	8d 4d d4	 lea	 ecx, DWORD PTR _rect$[ebp]
  012ee	51		 push	 ecx
  012ef	8d 55 90	 lea	 edx, DWORD PTR _graphics$[ebp]
  012f2	52		 push	 edx
  012f3	8b 4d ec	 mov	 ecx, DWORD PTR _this$[ebp]
  012f6	e8 00 00 00 00	 call	 ?DrawFrame@CSkinButton2@@AAEXAAVGraphics@Gdiplus@@AAVCRect@@@Z ; CSkinButton2::DrawFrame

; 312  : 					if( m_enmuDrawType != NO_FRAME_SELECT )

  012fb	8b 45 ec	 mov	 eax, DWORD PTR _this$[ebp]
  012fe	83 78 54 10	 cmp	 DWORD PTR [eax+84], 16	; 00000010H
  01302	74 0e		 je	 SHORT $L187396

; 313  : 					{
; 314  : 						DrawImage(graphics,DRAW_LIGHT);

  01304	6a 01		 push	 1
  01306	8d 4d 90	 lea	 ecx, DWORD PTR _graphics$[ebp]
  01309	51		 push	 ecx
  0130a	8b 4d ec	 mov	 ecx, DWORD PTR _this$[ebp]
  0130d	e8 00 00 00 00	 call	 ?DrawImage@CSkinButton2@@AAEXAAVGraphics@Gdiplus@@W4BTN_DRAW_HUE@1@@Z ; CSkinButton2::DrawImage
$L187396:

; 315  : 					}	
; 316  : 				}
; 317  : 				else if (lState & ODS_FOCUS)

  01312	eb 6a		 jmp	 SHORT $L187387
$L187395:
  01314	8b 55 e8	 mov	 edx, DWORD PTR _lState$[ebp]
  01317	83 e2 10	 and	 edx, 16			; 00000010H
  0131a	74 32		 je	 SHORT $L187398

; 318  : 				{				
; 319  : 					if( m_enmuDrawType == NO_FRAME_SELECT )

  0131c	8b 45 ec	 mov	 eax, DWORD PTR _this$[ebp]
  0131f	83 78 54 10	 cmp	 DWORD PTR [eax+84], 16	; 00000010H
  01323	75 10		 jne	 SHORT $L187399

; 320  : 					{
; 321  : 						DrawFrame(graphics,rect );

  01325	8d 4d d4	 lea	 ecx, DWORD PTR _rect$[ebp]
  01328	51		 push	 ecx
  01329	8d 55 90	 lea	 edx, DWORD PTR _graphics$[ebp]
  0132c	52		 push	 edx
  0132d	8b 4d ec	 mov	 ecx, DWORD PTR _this$[ebp]
  01330	e8 00 00 00 00	 call	 ?DrawFrame@CSkinButton2@@AAEXAAVGraphics@Gdiplus@@AAVCRect@@@Z ; CSkinButton2::DrawFrame
$L187399:

; 322  : 					}
; 323  : 					if( m_enmuDrawType != NO_FRAME_SELECT )

  01335	8b 45 ec	 mov	 eax, DWORD PTR _this$[ebp]
  01338	83 78 54 10	 cmp	 DWORD PTR [eax+84], 16	; 00000010H
  0133c	74 0e		 je	 SHORT $L187400

; 324  : 					{
; 325  : 						DrawImage(graphics);

  0133e	6a 00		 push	 0
  01340	8d 4d 90	 lea	 ecx, DWORD PTR _graphics$[ebp]
  01343	51		 push	 ecx
  01344	8b 4d ec	 mov	 ecx, DWORD PTR _this$[ebp]
  01347	e8 00 00 00 00	 call	 ?DrawImage@CSkinButton2@@AAEXAAVGraphics@Gdiplus@@W4BTN_DRAW_HUE@1@@Z ; CSkinButton2::DrawImage
$L187400:

; 326  : 					}
; 327  : 				}
; 328  : 				else

  0134c	eb 30		 jmp	 SHORT $L187387
$L187398:

; 329  : 				{
; 330  : 					if( m_enmuDrawType == NO_FRAME_SELECT )

  0134e	8b 55 ec	 mov	 edx, DWORD PTR _this$[ebp]
  01351	83 7a 54 10	 cmp	 DWORD PTR [edx+84], 16	; 00000010H
  01355	75 10		 jne	 SHORT $L187402

; 331  : 					{
; 332  : 						DrawFrame(graphics,rect );

  01357	8d 45 d4	 lea	 eax, DWORD PTR _rect$[ebp]
  0135a	50		 push	 eax
  0135b	8d 4d 90	 lea	 ecx, DWORD PTR _graphics$[ebp]
  0135e	51		 push	 ecx
  0135f	8b 4d ec	 mov	 ecx, DWORD PTR _this$[ebp]
  01362	e8 00 00 00 00	 call	 ?DrawFrame@CSkinButton2@@AAEXAAVGraphics@Gdiplus@@AAVCRect@@@Z ; CSkinButton2::DrawFrame
$L187402:

; 333  : 					}
; 334  : 					if( m_enmuDrawType != NO_FRAME_SELECT )

  01367	8b 55 ec	 mov	 edx, DWORD PTR _this$[ebp]
  0136a	83 7a 54 10	 cmp	 DWORD PTR [edx+84], 16	; 00000010H
  0136e	74 0e		 je	 SHORT $L187387

; 335  : 					{
; 336  : 						DrawImage(graphics);

  01370	6a 00		 push	 0
  01372	8d 45 90	 lea	 eax, DWORD PTR _graphics$[ebp]
  01375	50		 push	 eax
  01376	8b 4d ec	 mov	 ecx, DWORD PTR _this$[ebp]
  01379	e8 00 00 00 00	 call	 ?DrawImage@CSkinButton2@@AAEXAAVGraphics@Gdiplus@@W4BTN_DRAW_HUE@1@@Z ; CSkinButton2::DrawImage
$L187387:

; 337  : 					}
; 338  : 				}
; 339  : 			}
; 340  : 			//graphics
; 341  : 		}
; 342  : 	}
; 343  : 
; 344  : 	if( m_strText.GetLength() > 0 && m_pPngImage == NULL )

  0137e	8b 4d ec	 mov	 ecx, DWORD PTR _this$[ebp]
  01381	81 c1 64 01 00
	00		 add	 ecx, 356		; 00000164H
  01387	8b f4		 mov	 esi, esp
  01389	ff 15 00 00 00
	00		 call	 DWORD PTR __imp_?GetLength@?$CSimpleStringT@D$00@ATL@@QBEHXZ
  0138f	3b f4		 cmp	 esi, esp
  01391	e8 00 00 00 00	 call	 __RTC_CheckEsp
  01396	85 c0		 test	 eax, eax
  01398	0f 8e 9f 03 00
	00		 jle	 $L187404
  0139e	8b 4d ec	 mov	 ecx, DWORD PTR _this$[ebp]
  013a1	83 79 7c 00	 cmp	 DWORD PTR [ecx+124], 0
  013a5	0f 85 92 03 00
	00		 jne	 $L187404

; 345  : 	{
; 346  : 		Gdiplus::Bitmap bmpText( rect.Width(), rect.Height(), &graphics );

  013ab	8d 55 90	 lea	 edx, DWORD PTR _graphics$[ebp]
  013ae	52		 push	 edx
  013af	8d 4d d4	 lea	 ecx, DWORD PTR _rect$[ebp]
  013b2	e8 00 00 00 00	 call	 ?Height@CRect@@QBEHXZ	; CRect::Height
  013b7	50		 push	 eax
  013b8	8d 4d d4	 lea	 ecx, DWORD PTR _rect$[ebp]
  013bb	e8 00 00 00 00	 call	 ?Width@CRect@@QBEHXZ	; CRect::Width
  013c0	50		 push	 eax
  013c1	8d 8d 30 ff ff
	ff		 lea	 ecx, DWORD PTR _bmpText$187405[ebp]
  013c7	e8 00 00 00 00	 call	 ??0Bitmap@Gdiplus@@QAE@HHPAVGraphics@1@@Z ; Gdiplus::Bitmap::Bitmap
  013cc	c6 45 fc 04	 mov	 BYTE PTR __$EHRec$[ebp+8], 4

; 347  : 		Graphics* Ptext=Graphics::FromImage(&bmpText);

  013d0	8d 85 30 ff ff
	ff		 lea	 eax, DWORD PTR _bmpText$187405[ebp]
  013d6	50		 push	 eax
  013d7	e8 00 00 00 00	 call	 ?FromImage@Graphics@Gdiplus@@SAPAV12@PAVImage@2@@Z ; Gdiplus::Graphics::FromImage
  013dc	83 c4 04	 add	 esp, 4
  013df	89 85 28 ff ff
	ff		 mov	 DWORD PTR _Ptext$187406[ebp], eax

; 348  : 		//	Ptext->SetTextRenderingHint(Gdiplus::TextRenderingHintAntiAlias);
; 349  : 
; 350  : 		//Matrix mx(0.25f,0,0,0.25f,1,1);
; 351  : 		//Ptext->SetTransform(&mx);
; 352  : 
; 353  : 		Gdiplus::RectF rc( rect.left, rect.top, rect.Width(), rect.Height() );

  013e5	8d 4d d4	 lea	 ecx, DWORD PTR _rect$[ebp]
  013e8	e8 00 00 00 00	 call	 ?Height@CRect@@QBEHXZ	; CRect::Height
  013ed	89 85 a4 f6 ff
	ff		 mov	 DWORD PTR tv485[ebp], eax
  013f3	db 85 a4 f6 ff
	ff		 fild	 DWORD PTR tv485[ebp]
  013f9	51		 push	 ecx
  013fa	d9 1c 24	 fstp	 DWORD PTR [esp]
  013fd	8d 4d d4	 lea	 ecx, DWORD PTR _rect$[ebp]
  01400	e8 00 00 00 00	 call	 ?Width@CRect@@QBEHXZ	; CRect::Width
  01405	89 85 a0 f6 ff
	ff		 mov	 DWORD PTR tv487[ebp], eax
  0140b	db 85 a0 f6 ff
	ff		 fild	 DWORD PTR tv487[ebp]
  01411	51		 push	 ecx
  01412	d9 1c 24	 fstp	 DWORD PTR [esp]
  01415	db 45 d8	 fild	 DWORD PTR _rect$[ebp+4]
  01418	51		 push	 ecx
  01419	d9 1c 24	 fstp	 DWORD PTR [esp]
  0141c	db 45 d4	 fild	 DWORD PTR _rect$[ebp]
  0141f	51		 push	 ecx
  01420	d9 1c 24	 fstp	 DWORD PTR [esp]
  01423	8d 8d 14 ff ff
	ff		 lea	 ecx, DWORD PTR _rc$187407[ebp]
  01429	e8 00 00 00 00	 call	 ??0RectF@Gdiplus@@QAE@MMMM@Z ; Gdiplus::RectF::RectF

; 354  : 
; 355  : 		WCHAR   wFile[1024];   
; 356  : #ifndef   UNICODE   
; 357  : 		MultiByteToWideChar(CP_ACP,   0,   LPCTSTR(m_strText),   -1,   wFile,  1024 );   

  0142e	8b f4		 mov	 esi, esp
  01430	68 00 04 00 00	 push	 1024			; 00000400H
  01435	8d 8d 0c f7 ff
	ff		 lea	 ecx, DWORD PTR _wFile$187408[ebp]
  0143b	51		 push	 ecx
  0143c	6a ff		 push	 -1
  0143e	8b 4d ec	 mov	 ecx, DWORD PTR _this$[ebp]
  01441	81 c1 64 01 00
	00		 add	 ecx, 356		; 00000164H
  01447	8b fc		 mov	 edi, esp
  01449	ff 15 00 00 00
	00		 call	 DWORD PTR __imp_??B?$CSimpleStringT@D$00@ATL@@QBEPBDXZ
  0144f	3b fc		 cmp	 edi, esp
  01451	e8 00 00 00 00	 call	 __RTC_CheckEsp
  01456	50		 push	 eax
  01457	6a 00		 push	 0
  01459	6a 00		 push	 0
  0145b	ff 15 00 00 00
	00		 call	 DWORD PTR __imp__MultiByteToWideChar@24
  01461	3b f4		 cmp	 esi, esp
  01463	e8 00 00 00 00	 call	 __RTC_CheckEsp

; 358  : #else   
; 359  : 		lstrcpy(wFile,   szFile);   
; 360  : #endif 
; 361  : 
; 362  : 		StringFormat format;

  01468	6a 00		 push	 0
  0146a	6a 00		 push	 0
  0146c	8d 8d fc f6 ff
	ff		 lea	 ecx, DWORD PTR _format$187409[ebp]
  01472	e8 00 00 00 00	 call	 ??0StringFormat@Gdiplus@@QAE@HG@Z ; Gdiplus::StringFormat::StringFormat
  01477	c6 45 fc 05	 mov	 BYTE PTR __$EHRec$[ebp+8], 5

; 363  : 		format.SetAlignment( StringAlignmentCenter );

  0147b	6a 01		 push	 1
  0147d	8d 8d fc f6 ff
	ff		 lea	 ecx, DWORD PTR _format$187409[ebp]
  01483	e8 00 00 00 00	 call	 ?SetAlignment@StringFormat@Gdiplus@@QAE?AW4Status@2@W4StringAlignment@2@@Z ; Gdiplus::StringFormat::SetAlignment

; 364  : 
; 365  : 		Gdiplus::RectF rectText, rectBack;

  01488	8d 8d e4 f6 ff
	ff		 lea	 ecx, DWORD PTR _rectText$187410[ebp]
  0148e	e8 00 00 00 00	 call	 ??0RectF@Gdiplus@@QAE@XZ ; Gdiplus::RectF::RectF
  01493	8d 8d cc f6 ff
	ff		 lea	 ecx, DWORD PTR _rectBack$187411[ebp]
  01499	e8 00 00 00 00	 call	 ??0RectF@Gdiplus@@QAE@XZ ; Gdiplus::RectF::RectF

; 366  : 		rectText.X = rc.X;

  0149e	8b 95 14 ff ff
	ff		 mov	 edx, DWORD PTR _rc$187407[ebp]
  014a4	89 95 e4 f6 ff
	ff		 mov	 DWORD PTR _rectText$187410[ebp], edx

; 367  : 		rectText.Y = rc.Y+ ( rc.Height-m_nWidth)/2;

  014aa	8b 45 ec	 mov	 eax, DWORD PTR _this$[ebp]
  014ad	8b 88 68 01 00
	00		 mov	 ecx, DWORD PTR [eax+360]
  014b3	89 8d 98 f6 ff
	ff		 mov	 DWORD PTR tv502[ebp], ecx
  014b9	c7 85 9c f6 ff
	ff 00 00 00 00	 mov	 DWORD PTR tv502[ebp+4], 0
  014c3	df ad 98 f6 ff
	ff		 fild	 QWORD PTR tv502[ebp]
  014c9	d8 ad 20 ff ff
	ff		 fsubr	 DWORD PTR _rc$187407[ebp+12]
  014cf	d8 35 00 00 00
	00		 fdiv	 DWORD PTR __real@40000000
  014d5	d8 85 18 ff ff
	ff		 fadd	 DWORD PTR _rc$187407[ebp+4]
  014db	d9 9d e8 f6 ff
	ff		 fstp	 DWORD PTR _rectText$187410[ebp+4]

; 368  : 		rectText.Width = rc.Width;

  014e1	8b 95 1c ff ff
	ff		 mov	 edx, DWORD PTR _rc$187407[ebp+8]
  014e7	89 95 ec f6 ff
	ff		 mov	 DWORD PTR _rectText$187410[ebp+8], edx

; 369  : 		rectText.Height = m_nWidth + rc.Height/2;

  014ed	8b 45 ec	 mov	 eax, DWORD PTR _this$[ebp]
  014f0	8b 88 68 01 00
	00		 mov	 ecx, DWORD PTR [eax+360]
  014f6	89 8d 90 f6 ff
	ff		 mov	 DWORD PTR tv508[ebp], ecx
  014fc	c7 85 94 f6 ff
	ff 00 00 00 00	 mov	 DWORD PTR tv508[ebp+4], 0
  01506	df ad 90 f6 ff
	ff		 fild	 QWORD PTR tv508[ebp]
  0150c	d9 85 20 ff ff
	ff		 fld	 DWORD PTR _rc$187407[ebp+12]
  01512	d8 35 00 00 00
	00		 fdiv	 DWORD PTR __real@40000000
  01518	de c1		 faddp	 ST(1), ST(0)
  0151a	d9 9d f0 f6 ff
	ff		 fstp	 DWORD PTR _rectText$187410[ebp+12]

; 370  : 
; 371  : 		rectBack.X = rc.X+2;

  01520	d9 85 14 ff ff
	ff		 fld	 DWORD PTR _rc$187407[ebp]
  01526	d8 05 00 00 00
	00		 fadd	 DWORD PTR __real@40000000
  0152c	d9 9d cc f6 ff
	ff		 fstp	 DWORD PTR _rectBack$187411[ebp]

; 372  : 		rectBack.Y = rc.Y+1+ ( rc.Height-m_nWidth)/2;

  01532	d9 85 18 ff ff
	ff		 fld	 DWORD PTR _rc$187407[ebp+4]
  01538	d8 05 00 00 00
	00		 fadd	 DWORD PTR __real@3f800000
  0153e	8b 55 ec	 mov	 edx, DWORD PTR _this$[ebp]
  01541	8b 82 68 01 00
	00		 mov	 eax, DWORD PTR [edx+360]
  01547	89 85 88 f6 ff
	ff		 mov	 DWORD PTR tv516[ebp], eax
  0154d	c7 85 8c f6 ff
	ff 00 00 00 00	 mov	 DWORD PTR tv516[ebp+4], 0
  01557	df ad 88 f6 ff
	ff		 fild	 QWORD PTR tv516[ebp]
  0155d	d8 ad 20 ff ff
	ff		 fsubr	 DWORD PTR _rc$187407[ebp+12]
  01563	d8 35 00 00 00
	00		 fdiv	 DWORD PTR __real@40000000
  01569	de c1		 faddp	 ST(1), ST(0)
  0156b	d9 9d d0 f6 ff
	ff		 fstp	 DWORD PTR _rectBack$187411[ebp+4]

; 373  : 		rectBack.Width = rc.Width-2;

  01571	d9 85 1c ff ff
	ff		 fld	 DWORD PTR _rc$187407[ebp+8]
  01577	d8 25 00 00 00
	00		 fsub	 DWORD PTR __real@40000000
  0157d	d9 9d d4 f6 ff
	ff		 fstp	 DWORD PTR _rectBack$187411[ebp+8]

; 374  : 		rectBack.Height = m_nWidth + rc.Height/2-1;

  01583	8b 4d ec	 mov	 ecx, DWORD PTR _this$[ebp]
  01586	8b 91 68 01 00
	00		 mov	 edx, DWORD PTR [ecx+360]
  0158c	89 95 80 f6 ff
	ff		 mov	 DWORD PTR tv522[ebp], edx
  01592	c7 85 84 f6 ff
	ff 00 00 00 00	 mov	 DWORD PTR tv522[ebp+4], 0
  0159c	df ad 80 f6 ff
	ff		 fild	 QWORD PTR tv522[ebp]
  015a2	d9 85 20 ff ff
	ff		 fld	 DWORD PTR _rc$187407[ebp+12]
  015a8	d8 35 00 00 00
	00		 fdiv	 DWORD PTR __real@40000000
  015ae	de c1		 faddp	 ST(1), ST(0)
  015b0	d8 25 00 00 00
	00		 fsub	 DWORD PTR __real@3f800000
  015b6	d9 9d d8 f6 ff
	ff		 fstp	 DWORD PTR _rectBack$187411[ebp+12]

; 375  : 
; 376  : 		Ptext->DrawString( wFile,-1 ,mp_font,rectBack,&format,&SolidBrush(Color(100,0,0,0)) );

  015bc	6a 00		 push	 0
  015be	6a 00		 push	 0
  015c0	6a 00		 push	 0
  015c2	6a 64		 push	 100			; 00000064H
  015c4	8d 8d b8 f6 ff
	ff		 lea	 ecx, DWORD PTR $T188342[ebp]
  015ca	e8 00 00 00 00	 call	 ??0Color@Gdiplus@@QAE@EEEE@Z ; Gdiplus::Color::Color
  015cf	50		 push	 eax
  015d0	8d 8d bc f6 ff
	ff		 lea	 ecx, DWORD PTR $T188341[ebp]
  015d6	e8 00 00 00 00	 call	 ??0SolidBrush@Gdiplus@@QAE@ABVColor@1@@Z ; Gdiplus::SolidBrush::SolidBrush
  015db	89 85 7c f6 ff
	ff		 mov	 DWORD PTR tv288[ebp], eax
  015e1	8b 85 7c f6 ff
	ff		 mov	 eax, DWORD PTR tv288[ebp]
  015e7	89 85 78 f6 ff
	ff		 mov	 DWORD PTR tv414[ebp], eax
  015ed	c6 45 fc 06	 mov	 BYTE PTR __$EHRec$[ebp+8], 6
  015f1	8b 8d 78 f6 ff
	ff		 mov	 ecx, DWORD PTR tv414[ebp]
  015f7	51		 push	 ecx
  015f8	8d 95 fc f6 ff
	ff		 lea	 edx, DWORD PTR _format$187409[ebp]
  015fe	52		 push	 edx
  015ff	8d 85 cc f6 ff
	ff		 lea	 eax, DWORD PTR _rectBack$187411[ebp]
  01605	50		 push	 eax
  01606	8b 4d ec	 mov	 ecx, DWORD PTR _this$[ebp]
  01609	8b 91 80 01 00
	00		 mov	 edx, DWORD PTR [ecx+384]
  0160f	52		 push	 edx
  01610	6a ff		 push	 -1
  01612	8d 85 0c f7 ff
	ff		 lea	 eax, DWORD PTR _wFile$187408[ebp]
  01618	50		 push	 eax
  01619	8b 8d 28 ff ff
	ff		 mov	 ecx, DWORD PTR _Ptext$187406[ebp]
  0161f	e8 00 00 00 00	 call	 ?DrawString@Graphics@Gdiplus@@QAE?AW4Status@2@PB_WHPBVFont@2@ABVRectF@2@PBVStringFormat@2@PBVBrush@2@@Z ; Gdiplus::Graphics::DrawString
  01624	c6 45 fc 05	 mov	 BYTE PTR __$EHRec$[ebp+8], 5
  01628	8d 8d bc f6 ff
	ff		 lea	 ecx, DWORD PTR $T188341[ebp]
  0162e	e8 00 00 00 00	 call	 ??1SolidBrush@Gdiplus@@UAE@XZ

; 377  : 		//graphics.SetInterpolationMode( Gdiplus::InterpolationModeHighQualityBicubic);
; 378  : 		//graphics.SetTextRenderingHint(  Gdiplus::TextRenderingHintAntiAlias);
; 379  : 		graphics.DrawImage(&bmpText,rc,0,0,bmpText.GetWidth(),bmpText.GetHeight(),UnitPixel);

  01633	6a 00		 push	 0
  01635	6a 00		 push	 0
  01637	6a 00		 push	 0
  01639	6a 02		 push	 2
  0163b	8d 8d 30 ff ff
	ff		 lea	 ecx, DWORD PTR _bmpText$187405[ebp]
  01641	e8 00 00 00 00	 call	 ?GetHeight@Image@Gdiplus@@QAEIXZ ; Gdiplus::Image::GetHeight
  01646	89 85 70 f6 ff
	ff		 mov	 DWORD PTR tv537[ebp], eax
  0164c	c7 85 74 f6 ff
	ff 00 00 00 00	 mov	 DWORD PTR tv537[ebp+4], 0
  01656	df ad 70 f6 ff
	ff		 fild	 QWORD PTR tv537[ebp]
  0165c	51		 push	 ecx
  0165d	d9 1c 24	 fstp	 DWORD PTR [esp]
  01660	8d 8d 30 ff ff
	ff		 lea	 ecx, DWORD PTR _bmpText$187405[ebp]
  01666	e8 00 00 00 00	 call	 ?GetWidth@Image@Gdiplus@@QAEIXZ ; Gdiplus::Image::GetWidth
  0166b	89 85 68 f6 ff
	ff		 mov	 DWORD PTR tv541[ebp], eax
  01671	c7 85 6c f6 ff
	ff 00 00 00 00	 mov	 DWORD PTR tv541[ebp+4], 0
  0167b	df ad 68 f6 ff
	ff		 fild	 QWORD PTR tv541[ebp]
  01681	51		 push	 ecx
  01682	d9 1c 24	 fstp	 DWORD PTR [esp]
  01685	6a 00		 push	 0
  01687	6a 00		 push	 0
  01689	8d 8d 14 ff ff
	ff		 lea	 ecx, DWORD PTR _rc$187407[ebp]
  0168f	51		 push	 ecx
  01690	8d 95 30 ff ff
	ff		 lea	 edx, DWORD PTR _bmpText$187405[ebp]
  01696	52		 push	 edx
  01697	8d 4d 90	 lea	 ecx, DWORD PTR _graphics$[ebp]
  0169a	e8 00 00 00 00	 call	 ?DrawImage@Graphics@Gdiplus@@QAE?AW4Status@2@PAVImage@2@ABVRectF@2@MMMMW4Unit@2@PBVImageAttributes@2@P6GHPAX@Z4@Z ; Gdiplus::Graphics::DrawImage

; 380  : 		graphics.DrawString(wFile,-1,mp_font,rectText,&format,&SolidBrush(Color(255,255,255,255)));

  0169f	68 ff 00 00 00	 push	 255			; 000000ffH
  016a4	68 ff 00 00 00	 push	 255			; 000000ffH
  016a9	68 ff 00 00 00	 push	 255			; 000000ffH
  016ae	68 ff 00 00 00	 push	 255			; 000000ffH
  016b3	8d 8d a8 f6 ff
	ff		 lea	 ecx, DWORD PTR $T188344[ebp]
  016b9	e8 00 00 00 00	 call	 ??0Color@Gdiplus@@QAE@EEEE@Z ; Gdiplus::Color::Color
  016be	50		 push	 eax
  016bf	8d 8d ac f6 ff
	ff		 lea	 ecx, DWORD PTR $T188343[ebp]
  016c5	e8 00 00 00 00	 call	 ??0SolidBrush@Gdiplus@@QAE@ABVColor@1@@Z ; Gdiplus::SolidBrush::SolidBrush
  016ca	89 85 64 f6 ff
	ff		 mov	 DWORD PTR tv254[ebp], eax
  016d0	8b 85 64 f6 ff
	ff		 mov	 eax, DWORD PTR tv254[ebp]
  016d6	89 85 60 f6 ff
	ff		 mov	 DWORD PTR tv416[ebp], eax
  016dc	c6 45 fc 07	 mov	 BYTE PTR __$EHRec$[ebp+8], 7
  016e0	8b 8d 60 f6 ff
	ff		 mov	 ecx, DWORD PTR tv416[ebp]
  016e6	51		 push	 ecx
  016e7	8d 95 fc f6 ff
	ff		 lea	 edx, DWORD PTR _format$187409[ebp]
  016ed	52		 push	 edx
  016ee	8d 85 e4 f6 ff
	ff		 lea	 eax, DWORD PTR _rectText$187410[ebp]
  016f4	50		 push	 eax
  016f5	8b 4d ec	 mov	 ecx, DWORD PTR _this$[ebp]
  016f8	8b 91 80 01 00
	00		 mov	 edx, DWORD PTR [ecx+384]
  016fe	52		 push	 edx
  016ff	6a ff		 push	 -1
  01701	8d 85 0c f7 ff
	ff		 lea	 eax, DWORD PTR _wFile$187408[ebp]
  01707	50		 push	 eax
  01708	8d 4d 90	 lea	 ecx, DWORD PTR _graphics$[ebp]
  0170b	e8 00 00 00 00	 call	 ?DrawString@Graphics@Gdiplus@@QAE?AW4Status@2@PB_WHPBVFont@2@ABVRectF@2@PBVStringFormat@2@PBVBrush@2@@Z ; Gdiplus::Graphics::DrawString
  01710	c6 45 fc 05	 mov	 BYTE PTR __$EHRec$[ebp+8], 5
  01714	8d 8d ac f6 ff
	ff		 lea	 ecx, DWORD PTR $T188343[ebp]
  0171a	e8 00 00 00 00	 call	 ??1SolidBrush@Gdiplus@@UAE@XZ

; 381  : 	}

  0171f	c6 45 fc 04	 mov	 BYTE PTR __$EHRec$[ebp+8], 4
  01723	8d 8d fc f6 ff
	ff		 lea	 ecx, DWORD PTR _format$187409[ebp]
  01729	e8 00 00 00 00	 call	 ??1StringFormat@Gdiplus@@QAE@XZ ; Gdiplus::StringFormat::~StringFormat
  0172e	c6 45 fc 02	 mov	 BYTE PTR __$EHRec$[ebp+8], 2
  01732	8d 8d 30 ff ff
	ff		 lea	 ecx, DWORD PTR _bmpText$187405[ebp]
  01738	e8 00 00 00 00	 call	 ??1Bitmap@Gdiplus@@UAE@XZ
$L187404:

; 382  : }

  0173d	c6 45 fc 01	 mov	 BYTE PTR __$EHRec$[ebp+8], 1
  01741	8d 4d 80	 lea	 ecx, DWORD PTR _bmp$[ebp]
  01744	e8 00 00 00 00	 call	 ??1CBitmap@@UAE@XZ	; CBitmap::~CBitmap
  01749	c6 45 fc 00	 mov	 BYTE PTR __$EHRec$[ebp+8], 0
  0174d	8d 4d 90	 lea	 ecx, DWORD PTR _graphics$[ebp]
  01750	e8 00 00 00 00	 call	 ??1Graphics@Gdiplus@@QAE@XZ ; Gdiplus::Graphics::~Graphics
  01755	c7 45 fc ff ff
	ff ff		 mov	 DWORD PTR __$EHRec$[ebp+8], -1
  0175c	8d 4d a0	 lea	 ecx, DWORD PTR _pDC$[ebp]
  0175f	e8 00 00 00 00	 call	 ??1CMemDC@@UAE@XZ	; CMemDC::~CMemDC
  01764	52		 push	 edx
  01765	8b cd		 mov	 ecx, ebp
  01767	50		 push	 eax
  01768	8d 15 00 00 00
	00		 lea	 edx, DWORD PTR $L188374
  0176e	e8 00 00 00 00	 call	 @_RTC_CheckStackVars@8
  01773	58		 pop	 eax
  01774	5a		 pop	 edx
  01775	8b 4d f4	 mov	 ecx, DWORD PTR __$EHRec$[ebp]
  01778	64 89 0d 00 00
	00 00		 mov	 DWORD PTR fs:__except_list, ecx
  0177f	8b 4d f0	 mov	 ecx, DWORD PTR __$ArrayPad$[ebp]
  01782	e8 00 00 00 00	 call	 @__security_check_cookie@4
  01787	5f		 pop	 edi
  01788	5e		 pop	 esi
  01789	81 c4 a0 09 00
	00		 add	 esp, 2464		; 000009a0H
  0178f	3b ec		 cmp	 ebp, esp
  01791	e8 00 00 00 00	 call	 __RTC_CheckEsp
  01796	8b e5		 mov	 esp, ebp
  01798	5d		 pop	 ebp
  01799	c2 04 00	 ret	 4
$L188374:
  0179c	0c 00 00 00	 DD	 12			; 0000000cH
  017a0	00 00 00 00	 DD	 $L188373
$L188373:
  017a4	d4 ff ff ff	 DD	 -44			; ffffffd4H
  017a8	10 00 00 00	 DD	 16			; 00000010H
  017ac	00 00 00 00	 DD	 $L188359
  017b0	a0 ff ff ff	 DD	 -96			; ffffffa0H
  017b4	2c 00 00 00	 DD	 44			; 0000002cH
  017b8	00 00 00 00	 DD	 $L188360
  017bc	90 ff ff ff	 DD	 -112			; ffffff90H
  017c0	08 00 00 00	 DD	 8
  017c4	00 00 00 00	 DD	 $L188361
  017c8	80 ff ff ff	 DD	 -128			; ffffff80H
  017cc	08 00 00 00	 DD	 8
  017d0	00 00 00 00	 DD	 $L188362
  017d4	64 ff ff ff	 DD	 -156			; ffffff64H
  017d8	10 00 00 00	 DD	 16			; 00000010H
  017dc	00 00 00 00	 DD	 $L188363
  017e0	48 ff ff ff	 DD	 -184			; ffffff48H
  017e4	14 00 00 00	 DD	 20			; 00000014H
  017e8	00 00 00 00	 DD	 $L188364
  017ec	30 ff ff ff	 DD	 -208			; ffffff30H
  017f0	10 00 00 00	 DD	 16			; 00000010H
  017f4	00 00 00 00	 DD	 $L188365
  017f8	14 ff ff ff	 DD	 -236			; ffffff14H
  017fc	10 00 00 00	 DD	 16			; 00000010H
  01800	00 00 00 00	 DD	 $L188366
  01804	0c f7 ff ff	 DD	 -2292			; fffff70cH
  01808	00 08 00 00	 DD	 2048			; 00000800H
  0180c	00 00 00 00	 DD	 $L188367
  01810	fc f6 ff ff	 DD	 -2308			; fffff6fcH
  01814	08 00 00 00	 DD	 8
  01818	00 00 00 00	 DD	 $L188368
  0181c	e4 f6 ff ff	 DD	 -2332			; fffff6e4H
  01820	10 00 00 00	 DD	 16			; 00000010H
  01824	00 00 00 00	 DD	 $L188369
  01828	cc f6 ff ff	 DD	 -2356			; fffff6ccH
  0182c	10 00 00 00	 DD	 16			; 00000010H
  01830	00 00 00 00	 DD	 $L188370
$L188370:
  01834	72		 DB	 114			; 00000072H
  01835	65		 DB	 101			; 00000065H
  01836	63		 DB	 99			; 00000063H
  01837	74		 DB	 116			; 00000074H
  01838	42		 DB	 66			; 00000042H
  01839	61		 DB	 97			; 00000061H
  0183a	63		 DB	 99			; 00000063H
  0183b	6b		 DB	 107			; 0000006bH
  0183c	00		 DB	 0
$L188369:
  0183d	72		 DB	 114			; 00000072H
  0183e	65		 DB	 101			; 00000065H
  0183f	63		 DB	 99			; 00000063H
  01840	74		 DB	 116			; 00000074H
  01841	54		 DB	 84			; 00000054H
  01842	65		 DB	 101			; 00000065H
  01843	78		 DB	 120			; 00000078H
  01844	74		 DB	 116			; 00000074H
  01845	00		 DB	 0
$L188368:
  01846	66		 DB	 102			; 00000066H
  01847	6f		 DB	 111			; 0000006fH
  01848	72		 DB	 114			; 00000072H
  01849	6d		 DB	 109			; 0000006dH
  0184a	61		 DB	 97			; 00000061H
  0184b	74		 DB	 116			; 00000074H
  0184c	00		 DB	 0
$L188367:
  0184d	77		 DB	 119			; 00000077H
  0184e	46		 DB	 70			; 00000046H
  0184f	69		 DB	 105			; 00000069H
  01850	6c		 DB	 108			; 0000006cH
  01851	65		 DB	 101			; 00000065H
  01852	00		 DB	 0
$L188366:
  01853	72		 DB	 114			; 00000072H
  01854	63		 DB	 99			; 00000063H
  01855	00		 DB	 0
$L188365:
  01856	62		 DB	 98			; 00000062H
  01857	6d		 DB	 109			; 0000006dH
  01858	70		 DB	 112			; 00000070H
  01859	54		 DB	 84			; 00000054H
  0185a	65		 DB	 101			; 00000065H
  0185b	78		 DB	 120			; 00000078H
  0185c	74		 DB	 116			; 00000074H
  0185d	00		 DB	 0
$L188364:
  0185e	63		 DB	 99			; 00000063H
  0185f	6c		 DB	 108			; 0000006cH
  01860	44		 DB	 68			; 00000044H
  01861	43		 DB	 67			; 00000043H
  01862	00		 DB	 0
$L188363:
  01863	72		 DB	 114			; 00000072H
  01864	65		 DB	 101			; 00000065H
  01865	63		 DB	 99			; 00000063H
  01866	74		 DB	 116			; 00000074H
  01867	31		 DB	 49			; 00000031H
  01868	00		 DB	 0
$L188362:
  01869	62		 DB	 98			; 00000062H
  0186a	6d		 DB	 109			; 0000006dH
  0186b	70		 DB	 112			; 00000070H
  0186c	00		 DB	 0
$L188361:
  0186d	67		 DB	 103			; 00000067H
  0186e	72		 DB	 114			; 00000072H
  0186f	61		 DB	 97			; 00000061H
  01870	70		 DB	 112			; 00000070H
  01871	68		 DB	 104			; 00000068H
  01872	69		 DB	 105			; 00000069H
  01873	63		 DB	 99			; 00000063H
  01874	73		 DB	 115			; 00000073H
  01875	00		 DB	 0
$L188360:
  01876	70		 DB	 112			; 00000070H
  01877	44		 DB	 68			; 00000044H
  01878	43		 DB	 67			; 00000043H
  01879	00		 DB	 0
$L188359:
  0187a	72		 DB	 114			; 00000072H
  0187b	65		 DB	 101			; 00000065H
  0187c	63		 DB	 99			; 00000063H
  0187d	74		 DB	 116			; 00000074H
  0187e	00		 DB	 0
_TEXT	ENDS
text$x	SEGMENT
$L188345:
  000ef	8d 4d a0	 lea	 ecx, DWORD PTR _pDC$[ebp]
  000f2	e9 00 00 00 00	 jmp	 ??1CMemDC@@UAE@XZ	; CMemDC::~CMemDC
$L188346:
  000f7	8d 4d 90	 lea	 ecx, DWORD PTR _graphics$[ebp]
  000fa	e9 00 00 00 00	 jmp	 ??1Graphics@Gdiplus@@QAE@XZ ; Gdiplus::Graphics::~Graphics
$L188347:
  000ff	8d 4d 80	 lea	 ecx, DWORD PTR _bmp$[ebp]
  00102	e9 00 00 00 00	 jmp	 ??1CBitmap@@UAE@XZ	; CBitmap::~CBitmap
$L188348:
  00107	8d 8d 48 ff ff
	ff		 lea	 ecx, DWORD PTR _clDC$187383[ebp]
  0010d	e9 00 00 00 00	 jmp	 ??1CClientDC@@UAE@XZ	; CClientDC::~CClientDC
$L188349:
  00112	8d 8d 30 ff ff
	ff		 lea	 ecx, DWORD PTR _bmpText$187405[ebp]
  00118	e9 00 00 00 00	 jmp	 ??1Bitmap@Gdiplus@@UAE@XZ
$L188350:
  0011d	8d 8d fc f6 ff
	ff		 lea	 ecx, DWORD PTR _format$187409[ebp]
  00123	e9 00 00 00 00	 jmp	 ??1StringFormat@Gdiplus@@QAE@XZ ; Gdiplus::StringFormat::~StringFormat
$L188351:
  00128	8d 8d bc f6 ff
	ff		 lea	 ecx, DWORD PTR $T188341[ebp]
  0012e	e9 00 00 00 00	 jmp	 ??1SolidBrush@Gdiplus@@UAE@XZ
$L188352:
  00133	8d 8d ac f6 ff
	ff		 lea	 ecx, DWORD PTR $T188343[ebp]
  00139	e9 00 00 00 00	 jmp	 ??1SolidBrush@Gdiplus@@UAE@XZ
__ehhandler$?DrawItem@CSkinButton2@@UAEXPAUtagDRAWITEMSTRUCT@@@Z:
  0013e	b8 00 00 00 00	 mov	 eax, OFFSET FLAT:$T188354
  00143	e9 00 00 00 00	 jmp	 ___CxxFrameHandler
text$x	ENDS
?DrawItem@CSkinButton2@@UAEXPAUtagDRAWITEMSTRUCT@@@Z ENDP ; CSkinButton2::DrawItem
PUBLIC	??BCGdiPlusBitmap@@QBEPAVBitmap@Gdiplus@@XZ	; CGdiPlusBitmap::operator Gdiplus::Bitmap *
PUBLIC	?DrawImage@Graphics@Gdiplus@@QAE?AW4Status@2@PAVImage@2@ABVRectF@2@@Z ; Gdiplus::Graphics::DrawImage
PUBLIC	??0ImageAttributes@Gdiplus@@QAE@XZ		; Gdiplus::ImageAttributes::ImageAttributes
PUBLIC	??1ImageAttributes@Gdiplus@@QAE@XZ		; Gdiplus::ImageAttributes::~ImageAttributes
PUBLIC	?SetColorMatrix@ImageAttributes@Gdiplus@@QAE?AW4Status@2@PBUColorMatrix@2@W4ColorMatrixFlags@2@W4ColorAdjustType@2@@Z ; Gdiplus::ImageAttributes::SetColorMatrix
xdata$x	SEGMENT
$T188389 DD	0ffffffffH
	DD	FLAT:$L188377
	DD	0ffffffffH
	DD	FLAT:$L188378
$T188380 DD	019930520H
	DD	02H
	DD	FLAT:$T188389
	DD	2 DUP(00H)
	DD	2 DUP(00H)
; Function compile flags: /Odt /RTCsu
xdata$x	ENDS
_TEXT	SEGMENT
tv295 = -168						; size = 8
tv290 = -160						; size = 8
tv272 = -152						; size = 8
tv267 = -144						; size = 8
tv256 = -136						; size = 8
tv251 = -128						; size = 8
_grect$187433 = -116					; size = 16
_ia$187432 = -92					; size = 8
_grect$187428 = -76					; size = 16
_ia$187427 = -52					; size = 8
_grect$187423 = -36					; size = 16
_this$ = -16						; size = 4
__$EHRec$ = -12						; size = 12
_gdi$ = 8						; size = 4
_hue$ = 12						; size = 4
?DrawImage@CSkinButton2@@AAEXAAVGraphics@Gdiplus@@W4BTN_DRAW_HUE@1@@Z PROC NEAR ; CSkinButton2::DrawImage
; _this$ = ecx

; 385  : {

  01880	55		 push	 ebp
  01881	8b ec		 mov	 ebp, esp
  01883	6a ff		 push	 -1
  01885	68 00 00 00 00	 push	 __ehhandler$?DrawImage@CSkinButton2@@AAEXAAVGraphics@Gdiplus@@W4BTN_DRAW_HUE@1@@Z
  0188a	64 a1 00 00 00
	00		 mov	 eax, DWORD PTR fs:__except_list
  01890	50		 push	 eax
  01891	64 89 25 00 00
	00 00		 mov	 DWORD PTR fs:__except_list, esp
  01898	81 ec 9c 00 00
	00		 sub	 esp, 156		; 0000009cH
  0189e	57		 push	 edi
  0189f	51		 push	 ecx
  018a0	8d bd 58 ff ff
	ff		 lea	 edi, DWORD PTR [ebp-168]
  018a6	b9 27 00 00 00	 mov	 ecx, 39			; 00000027H
  018ab	b8 cc cc cc cc	 mov	 eax, -858993460		; ccccccccH
  018b0	f3 ab		 rep stosd
  018b2	59		 pop	 ecx
  018b3	89 4d f0	 mov	 DWORD PTR _this$[ebp], ecx

; 386  : 	if(hue == DRAW_NORMAL)

  018b6	83 7d 0c 00	 cmp	 DWORD PTR _hue$[ebp], 0
  018ba	0f 85 8d 00 00
	00		 jne	 $L187421

; 387  : 	{
; 388  : 		if( m_pPngImage && m_pPngImage->m_pBitmap )

  018c0	8b 45 f0	 mov	 eax, DWORD PTR _this$[ebp]
  018c3	83 78 7c 00	 cmp	 DWORD PTR [eax+124], 0
  018c7	74 7f		 je	 SHORT $L187422
  018c9	8b 4d f0	 mov	 ecx, DWORD PTR _this$[ebp]
  018cc	8b 51 7c	 mov	 edx, DWORD PTR [ecx+124]
  018cf	83 7a 04 00	 cmp	 DWORD PTR [edx+4], 0
  018d3	74 73		 je	 SHORT $L187422

; 389  : 		{
; 390  : 			RectF grect; grect.X=0, grect.Y=0; grect.Width = m_pPngImage->m_pBitmap->GetWidth(); grect.Height = m_pPngImage->m_pBitmap->GetHeight();

  018d5	8d 4d dc	 lea	 ecx, DWORD PTR _grect$187423[ebp]
  018d8	e8 00 00 00 00	 call	 ??0RectF@Gdiplus@@QAE@XZ ; Gdiplus::RectF::RectF
  018dd	c7 45 dc 00 00
	00 00		 mov	 DWORD PTR _grect$187423[ebp], 0
  018e4	c7 45 e0 00 00
	00 00		 mov	 DWORD PTR _grect$187423[ebp+4], 0
  018eb	8b 45 f0	 mov	 eax, DWORD PTR _this$[ebp]
  018ee	8b 48 7c	 mov	 ecx, DWORD PTR [eax+124]
  018f1	8b 49 04	 mov	 ecx, DWORD PTR [ecx+4]
  018f4	e8 00 00 00 00	 call	 ?GetWidth@Image@Gdiplus@@QAEIXZ ; Gdiplus::Image::GetWidth
  018f9	89 45 80	 mov	 DWORD PTR tv251[ebp], eax
  018fc	c7 45 84 00 00
	00 00		 mov	 DWORD PTR tv251[ebp+4], 0
  01903	df 6d 80	 fild	 QWORD PTR tv251[ebp]
  01906	d9 5d e4	 fstp	 DWORD PTR _grect$187423[ebp+8]
  01909	8b 55 f0	 mov	 edx, DWORD PTR _this$[ebp]
  0190c	8b 42 7c	 mov	 eax, DWORD PTR [edx+124]
  0190f	8b 48 04	 mov	 ecx, DWORD PTR [eax+4]
  01912	e8 00 00 00 00	 call	 ?GetHeight@Image@Gdiplus@@QAEIXZ ; Gdiplus::Image::GetHeight
  01917	89 85 78 ff ff
	ff		 mov	 DWORD PTR tv256[ebp], eax
  0191d	c7 85 7c ff ff
	ff 00 00 00 00	 mov	 DWORD PTR tv256[ebp+4], 0
  01927	df ad 78 ff ff
	ff		 fild	 QWORD PTR tv256[ebp]
  0192d	d9 5d e8	 fstp	 DWORD PTR _grect$187423[ebp+12]

; 391  : 			gdi.DrawImage(*m_pPngImage,grect );

  01930	8d 4d dc	 lea	 ecx, DWORD PTR _grect$187423[ebp]
  01933	51		 push	 ecx
  01934	8b 55 f0	 mov	 edx, DWORD PTR _this$[ebp]
  01937	8b 4a 7c	 mov	 ecx, DWORD PTR [edx+124]
  0193a	e8 00 00 00 00	 call	 ??BCGdiPlusBitmap@@QBEPAVBitmap@Gdiplus@@XZ ; CGdiPlusBitmap::operator Gdiplus::Bitmap *
  0193f	50		 push	 eax
  01940	8b 4d 08	 mov	 ecx, DWORD PTR _gdi$[ebp]
  01943	e8 00 00 00 00	 call	 ?DrawImage@Graphics@Gdiplus@@QAE?AW4Status@2@PAVImage@2@ABVRectF@2@@Z ; Gdiplus::Graphics::DrawImage
$L187422:

; 392  : 		}
; 393  : 	}
; 394  : 	else if(hue == DRAW_LIGHT)

  01948	e9 de 01 00 00	 jmp	 $L187420
$L187421:
  0194d	83 7d 0c 01	 cmp	 DWORD PTR _hue$[ebp], 1
  01951	0f 85 e7 00 00
	00		 jne	 $L187425

; 395  : 	{
; 396  : 		if( m_pPngImage && m_pPngImage->m_pBitmap )

  01957	8b 45 f0	 mov	 eax, DWORD PTR _this$[ebp]
  0195a	83 78 7c 00	 cmp	 DWORD PTR [eax+124], 0
  0195e	0f 84 d5 00 00
	00		 je	 $L187426
  01964	8b 4d f0	 mov	 ecx, DWORD PTR _this$[ebp]
  01967	8b 51 7c	 mov	 edx, DWORD PTR [ecx+124]
  0196a	83 7a 04 00	 cmp	 DWORD PTR [edx+4], 0
  0196e	0f 84 c5 00 00
	00		 je	 $L187426

; 397  : 		{
; 398  : 			ImageAttributes ia;

  01974	8d 4d cc	 lea	 ecx, DWORD PTR _ia$187427[ebp]
  01977	e8 00 00 00 00	 call	 ??0ImageAttributes@Gdiplus@@QAE@XZ ; Gdiplus::ImageAttributes::ImageAttributes
  0197c	c7 45 fc 00 00
	00 00		 mov	 DWORD PTR __$EHRec$[ebp+8], 0

; 399  : 			ia.SetColorMatrix(&m_LightMat);

  01983	6a 00		 push	 0
  01985	6a 00		 push	 0
  01987	8b 45 f0	 mov	 eax, DWORD PTR _this$[ebp]
  0198a	05 9c 00 00 00	 add	 eax, 156		; 0000009cH
  0198f	50		 push	 eax
  01990	8d 4d cc	 lea	 ecx, DWORD PTR _ia$187427[ebp]
  01993	e8 00 00 00 00	 call	 ?SetColorMatrix@ImageAttributes@Gdiplus@@QAE?AW4Status@2@PBUColorMatrix@2@W4ColorMatrixFlags@2@W4ColorAdjustType@2@@Z ; Gdiplus::ImageAttributes::SetColorMatrix

; 400  : 			RectF grect; grect.X=0, grect.Y=0; grect.Width = m_pPngImage->m_pBitmap->GetWidth(); grect.Height = m_pPngImage->m_pBitmap->GetHeight();

  01998	8d 4d b4	 lea	 ecx, DWORD PTR _grect$187428[ebp]
  0199b	e8 00 00 00 00	 call	 ??0RectF@Gdiplus@@QAE@XZ ; Gdiplus::RectF::RectF
  019a0	c7 45 b4 00 00
	00 00		 mov	 DWORD PTR _grect$187428[ebp], 0
  019a7	c7 45 b8 00 00
	00 00		 mov	 DWORD PTR _grect$187428[ebp+4], 0
  019ae	8b 4d f0	 mov	 ecx, DWORD PTR _this$[ebp]
  019b1	8b 51 7c	 mov	 edx, DWORD PTR [ecx+124]
  019b4	8b 4a 04	 mov	 ecx, DWORD PTR [edx+4]
  019b7	e8 00 00 00 00	 call	 ?GetWidth@Image@Gdiplus@@QAEIXZ ; Gdiplus::Image::GetWidth
  019bc	89 85 70 ff ff
	ff		 mov	 DWORD PTR tv267[ebp], eax
  019c2	c7 85 74 ff ff
	ff 00 00 00 00	 mov	 DWORD PTR tv267[ebp+4], 0
  019cc	df ad 70 ff ff
	ff		 fild	 QWORD PTR tv267[ebp]
  019d2	d9 5d bc	 fstp	 DWORD PTR _grect$187428[ebp+8]
  019d5	8b 45 f0	 mov	 eax, DWORD PTR _this$[ebp]
  019d8	8b 48 7c	 mov	 ecx, DWORD PTR [eax+124]
  019db	8b 49 04	 mov	 ecx, DWORD PTR [ecx+4]
  019de	e8 00 00 00 00	 call	 ?GetHeight@Image@Gdiplus@@QAEIXZ ; Gdiplus::Image::GetHeight
  019e3	89 85 68 ff ff
	ff		 mov	 DWORD PTR tv272[ebp], eax
  019e9	c7 85 6c ff ff
	ff 00 00 00 00	 mov	 DWORD PTR tv272[ebp+4], 0
  019f3	df ad 68 ff ff
	ff		 fild	 QWORD PTR tv272[ebp]
  019f9	d9 5d c0	 fstp	 DWORD PTR _grect$187428[ebp+12]

; 401  : 			gdi.DrawImage(*m_pPngImage, grect, 0, 0, grect.Width, grect.Height, UnitPixel, &ia);

  019fc	6a 00		 push	 0
  019fe	6a 00		 push	 0
  01a00	8d 55 cc	 lea	 edx, DWORD PTR _ia$187427[ebp]
  01a03	52		 push	 edx
  01a04	6a 02		 push	 2
  01a06	8b 45 c0	 mov	 eax, DWORD PTR _grect$187428[ebp+12]
  01a09	50		 push	 eax
  01a0a	8b 4d bc	 mov	 ecx, DWORD PTR _grect$187428[ebp+8]
  01a0d	51		 push	 ecx
  01a0e	6a 00		 push	 0
  01a10	6a 00		 push	 0
  01a12	8d 55 b4	 lea	 edx, DWORD PTR _grect$187428[ebp]
  01a15	52		 push	 edx
  01a16	8b 45 f0	 mov	 eax, DWORD PTR _this$[ebp]
  01a19	8b 48 7c	 mov	 ecx, DWORD PTR [eax+124]
  01a1c	e8 00 00 00 00	 call	 ??BCGdiPlusBitmap@@QBEPAVBitmap@Gdiplus@@XZ ; CGdiPlusBitmap::operator Gdiplus::Bitmap *
  01a21	50		 push	 eax
  01a22	8b 4d 08	 mov	 ecx, DWORD PTR _gdi$[ebp]
  01a25	e8 00 00 00 00	 call	 ?DrawImage@Graphics@Gdiplus@@QAE?AW4Status@2@PAVImage@2@ABVRectF@2@MMMMW4Unit@2@PBVImageAttributes@2@P6GHPAX@Z4@Z ; Gdiplus::Graphics::DrawImage

; 402  : 		}

  01a2a	c7 45 fc ff ff
	ff ff		 mov	 DWORD PTR __$EHRec$[ebp+8], -1
  01a31	8d 4d cc	 lea	 ecx, DWORD PTR _ia$187427[ebp]
  01a34	e8 00 00 00 00	 call	 ??1ImageAttributes@Gdiplus@@QAE@XZ ; Gdiplus::ImageAttributes::~ImageAttributes
$L187426:

; 403  : 	}
; 404  : 	else if(hue == DRAW_GRAY )

  01a39	e9 ed 00 00 00	 jmp	 $L187420
$L187425:
  01a3e	83 7d 0c 02	 cmp	 DWORD PTR _hue$[ebp], 2
  01a42	0f 85 e3 00 00
	00		 jne	 $L187420

; 405  : 	{
; 406  : 		if( m_pPngImage && m_pPngImage->m_pBitmap )

  01a48	8b 4d f0	 mov	 ecx, DWORD PTR _this$[ebp]
  01a4b	83 79 7c 00	 cmp	 DWORD PTR [ecx+124], 0
  01a4f	0f 84 d6 00 00
	00		 je	 $L187420
  01a55	8b 55 f0	 mov	 edx, DWORD PTR _this$[ebp]
  01a58	8b 42 7c	 mov	 eax, DWORD PTR [edx+124]
  01a5b	83 78 04 00	 cmp	 DWORD PTR [eax+4], 0
  01a5f	0f 84 c6 00 00
	00		 je	 $L187420

; 407  : 		{
; 408  : 			ImageAttributes ia;

  01a65	8d 4d a4	 lea	 ecx, DWORD PTR _ia$187432[ebp]
  01a68	e8 00 00 00 00	 call	 ??0ImageAttributes@Gdiplus@@QAE@XZ ; Gdiplus::ImageAttributes::ImageAttributes
  01a6d	c7 45 fc 01 00
	00 00		 mov	 DWORD PTR __$EHRec$[ebp+8], 1

; 409  : 			ia.SetColorMatrix(&m_GrayMat);

  01a74	6a 00		 push	 0
  01a76	6a 00		 push	 0
  01a78	8b 4d f0	 mov	 ecx, DWORD PTR _this$[ebp]
  01a7b	81 c1 00 01 00
	00		 add	 ecx, 256		; 00000100H
  01a81	51		 push	 ecx
  01a82	8d 4d a4	 lea	 ecx, DWORD PTR _ia$187432[ebp]
  01a85	e8 00 00 00 00	 call	 ?SetColorMatrix@ImageAttributes@Gdiplus@@QAE?AW4Status@2@PBUColorMatrix@2@W4ColorMatrixFlags@2@W4ColorAdjustType@2@@Z ; Gdiplus::ImageAttributes::SetColorMatrix

; 410  : 			RectF grect; grect.X=0, grect.Y=0; grect.Width = m_pPngImage->m_pBitmap->GetWidth(); grect.Height = m_pPngImage->m_pBitmap->GetHeight();

  01a8a	8d 4d 8c	 lea	 ecx, DWORD PTR _grect$187433[ebp]
  01a8d	e8 00 00 00 00	 call	 ??0RectF@Gdiplus@@QAE@XZ ; Gdiplus::RectF::RectF
  01a92	c7 45 8c 00 00
	00 00		 mov	 DWORD PTR _grect$187433[ebp], 0
  01a99	c7 45 90 00 00
	00 00		 mov	 DWORD PTR _grect$187433[ebp+4], 0
  01aa0	8b 55 f0	 mov	 edx, DWORD PTR _this$[ebp]
  01aa3	8b 42 7c	 mov	 eax, DWORD PTR [edx+124]
  01aa6	8b 48 04	 mov	 ecx, DWORD PTR [eax+4]
  01aa9	e8 00 00 00 00	 call	 ?GetWidth@Image@Gdiplus@@QAEIXZ ; Gdiplus::Image::GetWidth
  01aae	89 85 60 ff ff
	ff		 mov	 DWORD PTR tv290[ebp], eax
  01ab4	c7 85 64 ff ff
	ff 00 00 00 00	 mov	 DWORD PTR tv290[ebp+4], 0
  01abe	df ad 60 ff ff
	ff		 fild	 QWORD PTR tv290[ebp]
  01ac4	d9 5d 94	 fstp	 DWORD PTR _grect$187433[ebp+8]
  01ac7	8b 4d f0	 mov	 ecx, DWORD PTR _this$[ebp]
  01aca	8b 51 7c	 mov	 edx, DWORD PTR [ecx+124]
  01acd	8b 4a 04	 mov	 ecx, DWORD PTR [edx+4]
  01ad0	e8 00 00 00 00	 call	 ?GetHeight@Image@Gdiplus@@QAEIXZ ; Gdiplus::Image::GetHeight
  01ad5	89 85 58 ff ff
	ff		 mov	 DWORD PTR tv295[ebp], eax
  01adb	c7 85 5c ff ff
	ff 00 00 00 00	 mov	 DWORD PTR tv295[ebp+4], 0
  01ae5	df ad 58 ff ff
	ff		 fild	 QWORD PTR tv295[ebp]
  01aeb	d9 5d 98	 fstp	 DWORD PTR _grect$187433[ebp+12]

; 411  : 			gdi.DrawImage(*m_pPngImage, grect, 0, 0, grect.Width, grect.Height, UnitPixel, &ia);

  01aee	6a 00		 push	 0
  01af0	6a 00		 push	 0
  01af2	8d 45 a4	 lea	 eax, DWORD PTR _ia$187432[ebp]
  01af5	50		 push	 eax
  01af6	6a 02		 push	 2
  01af8	8b 4d 98	 mov	 ecx, DWORD PTR _grect$187433[ebp+12]
  01afb	51		 push	 ecx
  01afc	8b 55 94	 mov	 edx, DWORD PTR _grect$187433[ebp+8]
  01aff	52		 push	 edx
  01b00	6a 00		 push	 0
  01b02	6a 00		 push	 0
  01b04	8d 45 8c	 lea	 eax, DWORD PTR _grect$187433[ebp]
  01b07	50		 push	 eax
  01b08	8b 4d f0	 mov	 ecx, DWORD PTR _this$[ebp]
  01b0b	8b 49 7c	 mov	 ecx, DWORD PTR [ecx+124]
  01b0e	e8 00 00 00 00	 call	 ??BCGdiPlusBitmap@@QBEPAVBitmap@Gdiplus@@XZ ; CGdiPlusBitmap::operator Gdiplus::Bitmap *
  01b13	50		 push	 eax
  01b14	8b 4d 08	 mov	 ecx, DWORD PTR _gdi$[ebp]
  01b17	e8 00 00 00 00	 call	 ?DrawImage@Graphics@Gdiplus@@QAE?AW4Status@2@PAVImage@2@ABVRectF@2@MMMMW4Unit@2@PBVImageAttributes@2@P6GHPAX@Z4@Z ; Gdiplus::Graphics::DrawImage

; 412  : 		}

  01b1c	c7 45 fc ff ff
	ff ff		 mov	 DWORD PTR __$EHRec$[ebp+8], -1
  01b23	8d 4d a4	 lea	 ecx, DWORD PTR _ia$187432[ebp]
  01b26	e8 00 00 00 00	 call	 ??1ImageAttributes@Gdiplus@@QAE@XZ ; Gdiplus::ImageAttributes::~ImageAttributes
$L187420:

; 413  : 	}
; 414  : }

  01b2b	52		 push	 edx
  01b2c	8b cd		 mov	 ecx, ebp
  01b2e	50		 push	 eax
  01b2f	8d 15 00 00 00
	00		 lea	 edx, DWORD PTR $L188388
  01b35	e8 00 00 00 00	 call	 @_RTC_CheckStackVars@8
  01b3a	58		 pop	 eax
  01b3b	5a		 pop	 edx
  01b3c	8b 4d f4	 mov	 ecx, DWORD PTR __$EHRec$[ebp]
  01b3f	64 89 0d 00 00
	00 00		 mov	 DWORD PTR fs:__except_list, ecx
  01b46	5f		 pop	 edi
  01b47	81 c4 a8 00 00
	00		 add	 esp, 168		; 000000a8H
  01b4d	3b ec		 cmp	 ebp, esp
  01b4f	e8 00 00 00 00	 call	 __RTC_CheckEsp
  01b54	8b e5		 mov	 esp, ebp
  01b56	5d		 pop	 ebp
  01b57	c2 08 00	 ret	 8
$L188388:
  01b5a	05 00 00 00	 DD	 5
  01b5e	00 00 00 00	 DD	 $L188387
$L188387:
  01b62	dc ff ff ff	 DD	 -36			; ffffffdcH
  01b66	10 00 00 00	 DD	 16			; 00000010H
  01b6a	00 00 00 00	 DD	 $L188381
  01b6e	cc ff ff ff	 DD	 -52			; ffffffccH
  01b72	08 00 00 00	 DD	 8
  01b76	00 00 00 00	 DD	 $L188382
  01b7a	b4 ff ff ff	 DD	 -76			; ffffffb4H
  01b7e	10 00 00 00	 DD	 16			; 00000010H
  01b82	00 00 00 00	 DD	 $L188383
  01b86	a4 ff ff ff	 DD	 -92			; ffffffa4H
  01b8a	08 00 00 00	 DD	 8
  01b8e	00 00 00 00	 DD	 $L188384
  01b92	8c ff ff ff	 DD	 -116			; ffffff8cH
  01b96	10 00 00 00	 DD	 16			; 00000010H
  01b9a	00 00 00 00	 DD	 $L188385
$L188385:
  01b9e	67		 DB	 103			; 00000067H
  01b9f	72		 DB	 114			; 00000072H
  01ba0	65		 DB	 101			; 00000065H
  01ba1	63		 DB	 99			; 00000063H
  01ba2	74		 DB	 116			; 00000074H
  01ba3	00		 DB	 0
$L188384:
  01ba4	69		 DB	 105			; 00000069H
  01ba5	61		 DB	 97			; 00000061H
  01ba6	00		 DB	 0
$L188383:
  01ba7	67		 DB	 103			; 00000067H
  01ba8	72		 DB	 114			; 00000072H
  01ba9	65		 DB	 101			; 00000065H
  01baa	63		 DB	 99			; 00000063H
  01bab	74		 DB	 116			; 00000074H
  01bac	00		 DB	 0
$L188382:
  01bad	69		 DB	 105			; 00000069H
  01bae	61		 DB	 97			; 00000061H
  01baf	00		 DB	 0
$L188381:
  01bb0	67		 DB	 103			; 00000067H
  01bb1	72		 DB	 114			; 00000072H
  01bb2	65		 DB	 101			; 00000065H
  01bb3	63		 DB	 99			; 00000063H
  01bb4	74		 DB	 116			; 00000074H
  01bb5	00		 DB	 0
_TEXT	ENDS
text$x	SEGMENT
$L188377:
  00148	8d 4d cc	 lea	 ecx, DWORD PTR _ia$187427[ebp]
  0014b	e9 00 00 00 00	 jmp	 ??1ImageAttributes@Gdiplus@@QAE@XZ ; Gdiplus::ImageAttributes::~ImageAttributes
$L188378:
  00150	8d 4d a4	 lea	 ecx, DWORD PTR _ia$187432[ebp]
  00153	e9 00 00 00 00	 jmp	 ??1ImageAttributes@Gdiplus@@QAE@XZ ; Gdiplus::ImageAttributes::~ImageAttributes
__ehhandler$?DrawImage@CSkinButton2@@AAEXAAVGraphics@Gdiplus@@W4BTN_DRAW_HUE@1@@Z:
  00158	b8 00 00 00 00	 mov	 eax, OFFSET FLAT:$T188380
  0015d	e9 00 00 00 00	 jmp	 ___CxxFrameHandler
text$x	ENDS
?DrawImage@CSkinButton2@@AAEXAAVGraphics@Gdiplus@@W4BTN_DRAW_HUE@1@@Z ENDP ; CSkinButton2::DrawImage
; Function compile flags: /Odt /RTCsu
; File d:\boxgit\playbox\playbox\dev\prj\playbox\src\gui\commoncontrol\skinbutton2.h
;	COMDAT ??BCGdiPlusBitmap@@QBEPAVBitmap@Gdiplus@@XZ
_TEXT	SEGMENT
_this$ = -4						; size = 4
??BCGdiPlusBitmap@@QBEPAVBitmap@Gdiplus@@XZ PROC NEAR	; CGdiPlusBitmap::operator Gdiplus::Bitmap *, COMDAT
; _this$ = ecx

; 27   : 	operator Gdiplus::Bitmap*() const			{ return m_pBitmap; }

  00000	55		 push	 ebp
  00001	8b ec		 mov	 ebp, esp
  00003	51		 push	 ecx
  00004	c7 45 fc cc cc
	cc cc		 mov	 DWORD PTR [ebp-4], -858993460 ; ccccccccH
  0000b	89 4d fc	 mov	 DWORD PTR _this$[ebp], ecx
  0000e	8b 45 fc	 mov	 eax, DWORD PTR _this$[ebp]
  00011	8b 40 04	 mov	 eax, DWORD PTR [eax+4]
  00014	8b e5		 mov	 esp, ebp
  00016	5d		 pop	 ebp
  00017	c3		 ret	 0
??BCGdiPlusBitmap@@QBEPAVBitmap@Gdiplus@@XZ ENDP	; CGdiPlusBitmap::operator Gdiplus::Bitmap *
_TEXT	ENDS
PUBLIC	??0LinearGradientBrush@Gdiplus@@QAE@ABVRectF@1@ABVColor@1@1W4LinearGradientMode@1@@Z ; Gdiplus::LinearGradientBrush::LinearGradientBrush
PUBLIC	?DrawLine@Graphics@Gdiplus@@QAE?AW4Status@2@PBVPen@2@HHHH@Z ; Gdiplus::Graphics::DrawLine
PUBLIC	?DrawArc@Graphics@Gdiplus@@QAE?AW4Status@2@PBVPen@2@ABVRectF@2@MM@Z ; Gdiplus::Graphics::DrawArc
PUBLIC	??1LinearGradientBrush@Gdiplus@@UAE@XZ		; Gdiplus::LinearGradientBrush::~LinearGradientBrush
PUBLIC	?Inflate@RectF@Gdiplus@@QAEXMM@Z		; Gdiplus::RectF::Inflate
PUBLIC	?FillRectangle@Graphics@Gdiplus@@QAE?AW4Status@2@PBVBrush@2@ABVRectF@2@@Z ; Gdiplus::Graphics::FillRectangle
PUBLIC	??0Pen@Gdiplus@@QAE@ABVColor@1@M@Z		; Gdiplus::Pen::Pen
PUBLIC	??1Pen@Gdiplus@@QAE@XZ				; Gdiplus::Pen::~Pen
PUBLIC	?SetColor@Pen@Gdiplus@@QAE?AW4Status@2@ABVColor@2@@Z ; Gdiplus::Pen::SetColor
PUBLIC	?GetColor@Pen@Gdiplus@@QBE?AW4Status@2@PAVColor@2@@Z ; Gdiplus::Pen::GetColor
PUBLIC	??0Color@Gdiplus@@QAE@K@Z			; Gdiplus::Color::Color
PUBLIC	?GetA@Color@Gdiplus@@QBEEXZ			; Gdiplus::Color::GetA
PUBLIC	?GetR@Color@Gdiplus@@QBEEXZ			; Gdiplus::Color::GetR
PUBLIC	?GetG@Color@Gdiplus@@QBEEXZ			; Gdiplus::Color::GetG
PUBLIC	?GetB@Color@Gdiplus@@QBEEXZ			; Gdiplus::Color::GetB
EXTRN	__imp__InflateRect@12:NEAR
xdata$x	SEGMENT
$T188453 DD	0ffffffffH
	DD	FLAT:$L188392
	DD	00H
	DD	FLAT:$L188393
	DD	01H
	DD	FLAT:$L188394
	DD	02H
	DD	FLAT:$L188395
	DD	01H
	DD	FLAT:$L188396
	DD	01H
	DD	FLAT:$L188397
	DD	0ffffffffH
	DD	FLAT:$L188398
	DD	06H
	DD	FLAT:$L188399
	DD	07H
	DD	FLAT:$L188400
	DD	08H
	DD	FLAT:$L188401
	DD	07H
	DD	FLAT:$L188402
	DD	0aH
	DD	FLAT:$L188403
	DD	0ffffffffH
	DD	FLAT:$L188404
	DD	0cH
	DD	FLAT:$L188405
	DD	0cH
	DD	FLAT:$L188406
	DD	0cH
	DD	FLAT:$L188407
$T188409 DD	019930520H
	DD	010H
	DD	FLAT:$T188453
	DD	2 DUP(00H)
	DD	2 DUP(00H)
; Function compile flags: /Odt /RTCsu
; File d:\boxgit\playbox\playbox\dev\prj\playbox\src\gui\commoncontrol\skinbutton2.cpp
xdata$x	ENDS
_TEXT	SEGMENT
tv1606 = -812						; size = 4
tv1604 = -808						; size = 4
tv1586 = -804						; size = 4
tv1584 = -800						; size = 4
tv1571 = -796						; size = 4
tv1559 = -792						; size = 4
tv1478 = -788						; size = 4
tv1471 = -784						; size = 4
tv1469 = -780						; size = 4
tv1451 = -776						; size = 4
tv1449 = -772						; size = 4
tv1282 = -768						; size = 4
tv1280 = -764						; size = 4
tv1262 = -760						; size = 4
tv1260 = -756						; size = 4
_brush$187493 = -748					; size = 12
_rc$187492 = -728					; size = 16
_brush$187490 = -704					; size = 12
_colBrush2$187489 = -684				; size = 4
_colBrush1$187488 = -672				; size = 4
_rc$187487 = -660					; size = 16
_rectRightTop$187485 = -636				; size = 16
_rectLeftTop$187484 = -612				; size = 16
_rectRightTop2$187483 = -588				; size = 16
_rectLeftTop2$187482 = -564				; size = 16
_pen2$187481 = -540					; size = 8
_rect2$187479 = -524					; size = 16
_pen1$187478 = -500					; size = 8
_brush2$187476 = -484					; size = 12
_rc1$187475 = -464					; size = 16
_colBlack2$187474 = -440				; size = 4
_colBlack1$187473 = -428				; size = 4
_brush$187472 = -416					; size = 12
_rc$187471 = -396					; size = 16
_rect3$187470 = -372					; size = 16
_penPix2$187469 = -348					; size = 8
_colpix2$187468 = -332					; size = 4
_pen2$187465 = -320					; size = 8
_rect2$187463 = -304					; size = 16
_penPix1$187462 = -280					; size = 8
_colpix$187461 = -264					; size = 4
_pen1$187460 = -252					; size = 8
_brush$187457 = -236					; size = 12
_rc$187456 = -216					; size = 16
_brush$187454 = -192					; size = 12
_colBrush2$187453 = -172				; size = 4
_colBrush1$187452 = -160				; size = 4
_rc$187451 = -148					; size = 16
_penPix2$187449 = -124					; size = 8
_colpix2$187448 = -108					; size = 4
_pen2$187445 = -96					; size = 8
_rect2$187443 = -80					; size = 16
_penPix1$187442 = -56					; size = 8
_colpix$187441 = -40					; size = 4
_pen1$187440 = -28					; size = 8
_this$ = -16						; size = 4
__$EHRec$ = -12						; size = 12
_gdi$ = 8						; size = 4
_rect$ = 12						; size = 4
?DrawFrame@CSkinButton2@@AAEXAAVGraphics@Gdiplus@@AAVCRect@@@Z PROC NEAR ; CSkinButton2::DrawFrame
; _this$ = ecx

; 416  : {

  01bc0	55		 push	 ebp
  01bc1	8b ec		 mov	 ebp, esp
  01bc3	6a ff		 push	 -1
  01bc5	68 00 00 00 00	 push	 __ehhandler$?DrawFrame@CSkinButton2@@AAEXAAVGraphics@Gdiplus@@AAVCRect@@@Z
  01bca	64 a1 00 00 00
	00		 mov	 eax, DWORD PTR fs:__except_list
  01bd0	50		 push	 eax
  01bd1	64 89 25 00 00
	00 00		 mov	 DWORD PTR fs:__except_list, esp
  01bd8	81 ec 20 03 00
	00		 sub	 esp, 800		; 00000320H
  01bde	56		 push	 esi
  01bdf	57		 push	 edi
  01be0	51		 push	 ecx
  01be1	8d bd d4 fc ff
	ff		 lea	 edi, DWORD PTR [ebp-812]
  01be7	b9 c8 00 00 00	 mov	 ecx, 200		; 000000c8H
  01bec	b8 cc cc cc cc	 mov	 eax, -858993460		; ccccccccH
  01bf1	f3 ab		 rep stosd
  01bf3	59		 pop	 ecx
  01bf4	89 4d f0	 mov	 DWORD PTR _this$[ebp], ecx

; 417  : 	if( m_enmuDrawType == NO_FRAME )

  01bf7	8b 45 f0	 mov	 eax, DWORD PTR _this$[ebp]
  01bfa	83 78 54 00	 cmp	 DWORD PTR [eax+84], 0
  01bfe	0f 85 03 06 00
	00		 jne	 $L187439

; 418  : 	{
; 419  : 		Gdiplus::Pen pen1( m_colFrame1 );

  01c04	68 00 00 80 3f	 push	 1065353216		; 3f800000H
  01c09	8b 4d f0	 mov	 ecx, DWORD PTR _this$[ebp]
  01c0c	81 c1 70 01 00
	00		 add	 ecx, 368		; 00000170H
  01c12	51		 push	 ecx
  01c13	8d 4d e4	 lea	 ecx, DWORD PTR _pen1$187440[ebp]
  01c16	e8 00 00 00 00	 call	 ??0Pen@Gdiplus@@QAE@ABVColor@1@M@Z ; Gdiplus::Pen::Pen
  01c1b	c7 45 fc 00 00
	00 00		 mov	 DWORD PTR __$EHRec$[ebp+8], 0

; 420  : 		gdi.DrawLine( &pen1, rect.left+1, rect.top, rect.right-2, rect.top );

  01c22	8b 55 0c	 mov	 edx, DWORD PTR _rect$[ebp]
  01c25	8b 42 04	 mov	 eax, DWORD PTR [edx+4]
  01c28	50		 push	 eax
  01c29	8b 4d 0c	 mov	 ecx, DWORD PTR _rect$[ebp]
  01c2c	8b 51 08	 mov	 edx, DWORD PTR [ecx+8]
  01c2f	83 ea 02	 sub	 edx, 2
  01c32	52		 push	 edx
  01c33	8b 45 0c	 mov	 eax, DWORD PTR _rect$[ebp]
  01c36	8b 48 04	 mov	 ecx, DWORD PTR [eax+4]
  01c39	51		 push	 ecx
  01c3a	8b 55 0c	 mov	 edx, DWORD PTR _rect$[ebp]
  01c3d	8b 02		 mov	 eax, DWORD PTR [edx]
  01c3f	83 c0 01	 add	 eax, 1
  01c42	50		 push	 eax
  01c43	8d 4d e4	 lea	 ecx, DWORD PTR _pen1$187440[ebp]
  01c46	51		 push	 ecx
  01c47	8b 4d 08	 mov	 ecx, DWORD PTR _gdi$[ebp]
  01c4a	e8 00 00 00 00	 call	 ?DrawLine@Graphics@Gdiplus@@QAE?AW4Status@2@PBVPen@2@HHHH@Z ; Gdiplus::Graphics::DrawLine

; 421  : 		gdi.DrawLine( &pen1, rect.left+1, rect.bottom-1, rect.right-2, rect.bottom-1 );

  01c4f	8b 55 0c	 mov	 edx, DWORD PTR _rect$[ebp]
  01c52	8b 42 0c	 mov	 eax, DWORD PTR [edx+12]
  01c55	83 e8 01	 sub	 eax, 1
  01c58	50		 push	 eax
  01c59	8b 4d 0c	 mov	 ecx, DWORD PTR _rect$[ebp]
  01c5c	8b 51 08	 mov	 edx, DWORD PTR [ecx+8]
  01c5f	83 ea 02	 sub	 edx, 2
  01c62	52		 push	 edx
  01c63	8b 45 0c	 mov	 eax, DWORD PTR _rect$[ebp]
  01c66	8b 48 0c	 mov	 ecx, DWORD PTR [eax+12]
  01c69	83 e9 01	 sub	 ecx, 1
  01c6c	51		 push	 ecx
  01c6d	8b 55 0c	 mov	 edx, DWORD PTR _rect$[ebp]
  01c70	8b 02		 mov	 eax, DWORD PTR [edx]
  01c72	83 c0 01	 add	 eax, 1
  01c75	50		 push	 eax
  01c76	8d 4d e4	 lea	 ecx, DWORD PTR _pen1$187440[ebp]
  01c79	51		 push	 ecx
  01c7a	8b 4d 08	 mov	 ecx, DWORD PTR _gdi$[ebp]
  01c7d	e8 00 00 00 00	 call	 ?DrawLine@Graphics@Gdiplus@@QAE?AW4Status@2@PBVPen@2@HHHH@Z ; Gdiplus::Graphics::DrawLine

; 422  : 		gdi.DrawLine( &pen1, rect.left, rect.top+1, rect.left, rect.bottom-2 );

  01c82	8b 55 0c	 mov	 edx, DWORD PTR _rect$[ebp]
  01c85	8b 42 0c	 mov	 eax, DWORD PTR [edx+12]
  01c88	83 e8 02	 sub	 eax, 2
  01c8b	50		 push	 eax
  01c8c	8b 4d 0c	 mov	 ecx, DWORD PTR _rect$[ebp]
  01c8f	8b 11		 mov	 edx, DWORD PTR [ecx]
  01c91	52		 push	 edx
  01c92	8b 45 0c	 mov	 eax, DWORD PTR _rect$[ebp]
  01c95	8b 48 04	 mov	 ecx, DWORD PTR [eax+4]
  01c98	83 c1 01	 add	 ecx, 1
  01c9b	51		 push	 ecx
  01c9c	8b 55 0c	 mov	 edx, DWORD PTR _rect$[ebp]
  01c9f	8b 02		 mov	 eax, DWORD PTR [edx]
  01ca1	50		 push	 eax
  01ca2	8d 4d e4	 lea	 ecx, DWORD PTR _pen1$187440[ebp]
  01ca5	51		 push	 ecx
  01ca6	8b 4d 08	 mov	 ecx, DWORD PTR _gdi$[ebp]
  01ca9	e8 00 00 00 00	 call	 ?DrawLine@Graphics@Gdiplus@@QAE?AW4Status@2@PBVPen@2@HHHH@Z ; Gdiplus::Graphics::DrawLine

; 423  : 		gdi.DrawLine( &pen1, rect.right-1, rect.top+1, rect.right-1, rect.bottom-2 );

  01cae	8b 55 0c	 mov	 edx, DWORD PTR _rect$[ebp]
  01cb1	8b 42 0c	 mov	 eax, DWORD PTR [edx+12]
  01cb4	83 e8 02	 sub	 eax, 2
  01cb7	50		 push	 eax
  01cb8	8b 4d 0c	 mov	 ecx, DWORD PTR _rect$[ebp]
  01cbb	8b 51 08	 mov	 edx, DWORD PTR [ecx+8]
  01cbe	83 ea 01	 sub	 edx, 1
  01cc1	52		 push	 edx
  01cc2	8b 45 0c	 mov	 eax, DWORD PTR _rect$[ebp]
  01cc5	8b 48 04	 mov	 ecx, DWORD PTR [eax+4]
  01cc8	83 c1 01	 add	 ecx, 1
  01ccb	51		 push	 ecx
  01ccc	8b 55 0c	 mov	 edx, DWORD PTR _rect$[ebp]
  01ccf	8b 42 08	 mov	 eax, DWORD PTR [edx+8]
  01cd2	83 e8 01	 sub	 eax, 1
  01cd5	50		 push	 eax
  01cd6	8d 4d e4	 lea	 ecx, DWORD PTR _pen1$187440[ebp]
  01cd9	51		 push	 ecx
  01cda	8b 4d 08	 mov	 ecx, DWORD PTR _gdi$[ebp]
  01cdd	e8 00 00 00 00	 call	 ?DrawLine@Graphics@Gdiplus@@QAE?AW4Status@2@PBVPen@2@HHHH@Z ; Gdiplus::Graphics::DrawLine

; 424  : 
; 425  : 		Gdiplus::Color colpix;

  01ce2	8d 4d d8	 lea	 ecx, DWORD PTR _colpix$187441[ebp]
  01ce5	e8 00 00 00 00	 call	 ??0Color@Gdiplus@@QAE@XZ ; Gdiplus::Color::Color

; 426  : 		pen1.GetColor( &colpix );

  01cea	8d 55 d8	 lea	 edx, DWORD PTR _colpix$187441[ebp]
  01ced	52		 push	 edx
  01cee	8d 4d e4	 lea	 ecx, DWORD PTR _pen1$187440[ebp]
  01cf1	e8 00 00 00 00	 call	 ?GetColor@Pen@Gdiplus@@QBE?AW4Status@2@PAVColor@2@@Z ; Gdiplus::Pen::GetColor

; 427  : 		colpix.SetValue( Gdiplus::Color::MakeARGB(colpix.GetA()/2,colpix.GetR(),colpix.GetG(),colpix.GetB() ) );

  01cf6	8d 4d d8	 lea	 ecx, DWORD PTR _colpix$187441[ebp]
  01cf9	e8 00 00 00 00	 call	 ?GetB@Color@Gdiplus@@QBEEXZ ; Gdiplus::Color::GetB
  01cfe	50		 push	 eax
  01cff	8d 4d d8	 lea	 ecx, DWORD PTR _colpix$187441[ebp]
  01d02	e8 00 00 00 00	 call	 ?GetG@Color@Gdiplus@@QBEEXZ ; Gdiplus::Color::GetG
  01d07	50		 push	 eax
  01d08	8d 4d d8	 lea	 ecx, DWORD PTR _colpix$187441[ebp]
  01d0b	e8 00 00 00 00	 call	 ?GetR@Color@Gdiplus@@QBEEXZ ; Gdiplus::Color::GetR
  01d10	50		 push	 eax
  01d11	8d 4d d8	 lea	 ecx, DWORD PTR _colpix$187441[ebp]
  01d14	e8 00 00 00 00	 call	 ?GetA@Color@Gdiplus@@QBEEXZ ; Gdiplus::Color::GetA
  01d19	0f b6 c0	 movzx	 eax, al
  01d1c	99		 cdq
  01d1d	2b c2		 sub	 eax, edx
  01d1f	d1 f8		 sar	 eax, 1
  01d21	50		 push	 eax
  01d22	e8 00 00 00 00	 call	 ?MakeARGB@Color@Gdiplus@@SAKEEEE@Z ; Gdiplus::Color::MakeARGB
  01d27	83 c4 10	 add	 esp, 16			; 00000010H
  01d2a	50		 push	 eax
  01d2b	8d 4d d8	 lea	 ecx, DWORD PTR _colpix$187441[ebp]
  01d2e	e8 00 00 00 00	 call	 ?SetValue@Color@Gdiplus@@QAEXK@Z ; Gdiplus::Color::SetValue

; 428  : 		Gdiplus::Pen penPix1( colpix );

  01d33	68 00 00 80 3f	 push	 1065353216		; 3f800000H
  01d38	8d 45 d8	 lea	 eax, DWORD PTR _colpix$187441[ebp]
  01d3b	50		 push	 eax
  01d3c	8d 4d c8	 lea	 ecx, DWORD PTR _penPix1$187442[ebp]
  01d3f	e8 00 00 00 00	 call	 ??0Pen@Gdiplus@@QAE@ABVColor@1@M@Z ; Gdiplus::Pen::Pen
  01d44	c6 45 fc 01	 mov	 BYTE PTR __$EHRec$[ebp+8], 1

; 429  : 		gdi.DrawLine( &penPix1, rect.left, rect.top, rect.left+1, rect.top );

  01d48	8b 4d 0c	 mov	 ecx, DWORD PTR _rect$[ebp]
  01d4b	8b 51 04	 mov	 edx, DWORD PTR [ecx+4]
  01d4e	52		 push	 edx
  01d4f	8b 45 0c	 mov	 eax, DWORD PTR _rect$[ebp]
  01d52	8b 08		 mov	 ecx, DWORD PTR [eax]
  01d54	83 c1 01	 add	 ecx, 1
  01d57	51		 push	 ecx
  01d58	8b 55 0c	 mov	 edx, DWORD PTR _rect$[ebp]
  01d5b	8b 42 04	 mov	 eax, DWORD PTR [edx+4]
  01d5e	50		 push	 eax
  01d5f	8b 4d 0c	 mov	 ecx, DWORD PTR _rect$[ebp]
  01d62	8b 11		 mov	 edx, DWORD PTR [ecx]
  01d64	52		 push	 edx
  01d65	8d 45 c8	 lea	 eax, DWORD PTR _penPix1$187442[ebp]
  01d68	50		 push	 eax
  01d69	8b 4d 08	 mov	 ecx, DWORD PTR _gdi$[ebp]
  01d6c	e8 00 00 00 00	 call	 ?DrawLine@Graphics@Gdiplus@@QAE?AW4Status@2@PBVPen@2@HHHH@Z ; Gdiplus::Graphics::DrawLine

; 430  : 		gdi.DrawLine( &penPix1, rect.right-1, rect.top, rect.right-1, rect.top+1 );

  01d71	8b 4d 0c	 mov	 ecx, DWORD PTR _rect$[ebp]
  01d74	8b 51 04	 mov	 edx, DWORD PTR [ecx+4]
  01d77	83 c2 01	 add	 edx, 1
  01d7a	52		 push	 edx
  01d7b	8b 45 0c	 mov	 eax, DWORD PTR _rect$[ebp]
  01d7e	8b 48 08	 mov	 ecx, DWORD PTR [eax+8]
  01d81	83 e9 01	 sub	 ecx, 1
  01d84	51		 push	 ecx
  01d85	8b 55 0c	 mov	 edx, DWORD PTR _rect$[ebp]
  01d88	8b 42 04	 mov	 eax, DWORD PTR [edx+4]
  01d8b	50		 push	 eax
  01d8c	8b 4d 0c	 mov	 ecx, DWORD PTR _rect$[ebp]
  01d8f	8b 51 08	 mov	 edx, DWORD PTR [ecx+8]
  01d92	83 ea 01	 sub	 edx, 1
  01d95	52		 push	 edx
  01d96	8d 45 c8	 lea	 eax, DWORD PTR _penPix1$187442[ebp]
  01d99	50		 push	 eax
  01d9a	8b 4d 08	 mov	 ecx, DWORD PTR _gdi$[ebp]
  01d9d	e8 00 00 00 00	 call	 ?DrawLine@Graphics@Gdiplus@@QAE?AW4Status@2@PBVPen@2@HHHH@Z ; Gdiplus::Graphics::DrawLine

; 431  : 		gdi.DrawLine( &penPix1, rect.right-1, rect.bottom-1, rect.right-2, rect.bottom-1 );

  01da2	8b 4d 0c	 mov	 ecx, DWORD PTR _rect$[ebp]
  01da5	8b 51 0c	 mov	 edx, DWORD PTR [ecx+12]
  01da8	83 ea 01	 sub	 edx, 1
  01dab	52		 push	 edx
  01dac	8b 45 0c	 mov	 eax, DWORD PTR _rect$[ebp]
  01daf	8b 48 08	 mov	 ecx, DWORD PTR [eax+8]
  01db2	83 e9 02	 sub	 ecx, 2
  01db5	51		 push	 ecx
  01db6	8b 55 0c	 mov	 edx, DWORD PTR _rect$[ebp]
  01db9	8b 42 0c	 mov	 eax, DWORD PTR [edx+12]
  01dbc	83 e8 01	 sub	 eax, 1
  01dbf	50		 push	 eax
  01dc0	8b 4d 0c	 mov	 ecx, DWORD PTR _rect$[ebp]
  01dc3	8b 51 08	 mov	 edx, DWORD PTR [ecx+8]
  01dc6	83 ea 01	 sub	 edx, 1
  01dc9	52		 push	 edx
  01dca	8d 45 c8	 lea	 eax, DWORD PTR _penPix1$187442[ebp]
  01dcd	50		 push	 eax
  01dce	8b 4d 08	 mov	 ecx, DWORD PTR _gdi$[ebp]
  01dd1	e8 00 00 00 00	 call	 ?DrawLine@Graphics@Gdiplus@@QAE?AW4Status@2@PBVPen@2@HHHH@Z ; Gdiplus::Graphics::DrawLine

; 432  : 		gdi.DrawLine( &penPix1, rect.left,  rect.bottom-1, rect.left+1,  rect.bottom-1 );

  01dd6	8b 4d 0c	 mov	 ecx, DWORD PTR _rect$[ebp]
  01dd9	8b 51 0c	 mov	 edx, DWORD PTR [ecx+12]
  01ddc	83 ea 01	 sub	 edx, 1
  01ddf	52		 push	 edx
  01de0	8b 45 0c	 mov	 eax, DWORD PTR _rect$[ebp]
  01de3	8b 08		 mov	 ecx, DWORD PTR [eax]
  01de5	83 c1 01	 add	 ecx, 1
  01de8	51		 push	 ecx
  01de9	8b 55 0c	 mov	 edx, DWORD PTR _rect$[ebp]
  01dec	8b 42 0c	 mov	 eax, DWORD PTR [edx+12]
  01def	83 e8 01	 sub	 eax, 1
  01df2	50		 push	 eax
  01df3	8b 4d 0c	 mov	 ecx, DWORD PTR _rect$[ebp]
  01df6	8b 11		 mov	 edx, DWORD PTR [ecx]
  01df8	52		 push	 edx
  01df9	8d 45 c8	 lea	 eax, DWORD PTR _penPix1$187442[ebp]
  01dfc	50		 push	 eax
  01dfd	8b 4d 08	 mov	 ecx, DWORD PTR _gdi$[ebp]
  01e00	e8 00 00 00 00	 call	 ?DrawLine@Graphics@Gdiplus@@QAE?AW4Status@2@PBVPen@2@HHHH@Z ; Gdiplus::Graphics::DrawLine

; 433  : 
; 434  : 		CRect rect2 = rect;

  01e05	8b 4d 0c	 mov	 ecx, DWORD PTR _rect$[ebp]
  01e08	8b 11		 mov	 edx, DWORD PTR [ecx]
  01e0a	89 55 b0	 mov	 DWORD PTR _rect2$187443[ebp], edx
  01e0d	8b 41 04	 mov	 eax, DWORD PTR [ecx+4]
  01e10	89 45 b4	 mov	 DWORD PTR _rect2$187443[ebp+4], eax
  01e13	8b 51 08	 mov	 edx, DWORD PTR [ecx+8]
  01e16	89 55 b8	 mov	 DWORD PTR _rect2$187443[ebp+8], edx
  01e19	8b 41 0c	 mov	 eax, DWORD PTR [ecx+12]
  01e1c	89 45 bc	 mov	 DWORD PTR _rect2$187443[ebp+12], eax

; 435  : 		::InflateRect( &rect2, -1,-1 );

  01e1f	8b f4		 mov	 esi, esp
  01e21	6a ff		 push	 -1
  01e23	6a ff		 push	 -1
  01e25	8d 4d b0	 lea	 ecx, DWORD PTR _rect2$187443[ebp]
  01e28	51		 push	 ecx
  01e29	ff 15 00 00 00
	00		 call	 DWORD PTR __imp__InflateRect@12
  01e2f	3b f4		 cmp	 esi, esp
  01e31	e8 00 00 00 00	 call	 __RTC_CheckEsp

; 436  : 		if( !m_bMouseDown )

  01e36	8b 55 f0	 mov	 edx, DWORD PTR _this$[ebp]
  01e39	83 ba 88 00 00
	00 00		 cmp	 DWORD PTR [edx+136], 0
  01e40	0f 85 ee 01 00
	00		 jne	 $L187444

; 437  : 		{
; 438  : 			Gdiplus::Pen pen2(m_colFrame2);

  01e46	68 00 00 80 3f	 push	 1065353216		; 3f800000H
  01e4b	8b 45 f0	 mov	 eax, DWORD PTR _this$[ebp]
  01e4e	05 74 01 00 00	 add	 eax, 372		; 00000174H
  01e53	50		 push	 eax
  01e54	8d 4d a0	 lea	 ecx, DWORD PTR _pen2$187445[ebp]
  01e57	e8 00 00 00 00	 call	 ??0Pen@Gdiplus@@QAE@ABVColor@1@M@Z ; Gdiplus::Pen::Pen
  01e5c	c6 45 fc 02	 mov	 BYTE PTR __$EHRec$[ebp+8], 2

; 439  : 			if( m_bMouseDown )

  01e60	8b 4d f0	 mov	 ecx, DWORD PTR _this$[ebp]
  01e63	83 b9 88 00 00
	00 00		 cmp	 DWORD PTR [ecx+136], 0
  01e6a	74 14		 je	 SHORT $L187446

; 440  : 				pen2.SetColor(m_colFrame1);

  01e6c	8b 55 f0	 mov	 edx, DWORD PTR _this$[ebp]
  01e6f	81 c2 70 01 00
	00		 add	 edx, 368		; 00000170H
  01e75	52		 push	 edx
  01e76	8d 4d a0	 lea	 ecx, DWORD PTR _pen2$187445[ebp]
  01e79	e8 00 00 00 00	 call	 ?SetColor@Pen@Gdiplus@@QAE?AW4Status@2@ABVColor@2@@Z ; Gdiplus::Pen::SetColor

; 441  : 			else

  01e7e	eb 11		 jmp	 SHORT $L187447
$L187446:

; 442  : 				pen2.SetColor(m_colFrame2);

  01e80	8b 45 f0	 mov	 eax, DWORD PTR _this$[ebp]
  01e83	05 74 01 00 00	 add	 eax, 372		; 00000174H
  01e88	50		 push	 eax
  01e89	8d 4d a0	 lea	 ecx, DWORD PTR _pen2$187445[ebp]
  01e8c	e8 00 00 00 00	 call	 ?SetColor@Pen@Gdiplus@@QAE?AW4Status@2@ABVColor@2@@Z ; Gdiplus::Pen::SetColor
$L187447:

; 443  : 
; 444  : 			gdi.DrawLine( &pen2, rect2.left+1, rect2.top, rect2.right-2, rect2.top );

  01e91	8b 4d b4	 mov	 ecx, DWORD PTR _rect2$187443[ebp+4]
  01e94	51		 push	 ecx
  01e95	8b 55 b8	 mov	 edx, DWORD PTR _rect2$187443[ebp+8]
  01e98	83 ea 02	 sub	 edx, 2
  01e9b	52		 push	 edx
  01e9c	8b 45 b4	 mov	 eax, DWORD PTR _rect2$187443[ebp+4]
  01e9f	50		 push	 eax
  01ea0	8b 4d b0	 mov	 ecx, DWORD PTR _rect2$187443[ebp]
  01ea3	83 c1 01	 add	 ecx, 1
  01ea6	51		 push	 ecx
  01ea7	8d 55 a0	 lea	 edx, DWORD PTR _pen2$187445[ebp]
  01eaa	52		 push	 edx
  01eab	8b 4d 08	 mov	 ecx, DWORD PTR _gdi$[ebp]
  01eae	e8 00 00 00 00	 call	 ?DrawLine@Graphics@Gdiplus@@QAE?AW4Status@2@PBVPen@2@HHHH@Z ; Gdiplus::Graphics::DrawLine

; 445  : 			gdi.DrawLine( &pen2, rect2.left+1, rect2.bottom-1, rect2.right-2, rect2.bottom-1 );

  01eb3	8b 45 bc	 mov	 eax, DWORD PTR _rect2$187443[ebp+12]
  01eb6	83 e8 01	 sub	 eax, 1
  01eb9	50		 push	 eax
  01eba	8b 4d b8	 mov	 ecx, DWORD PTR _rect2$187443[ebp+8]
  01ebd	83 e9 02	 sub	 ecx, 2
  01ec0	51		 push	 ecx
  01ec1	8b 55 bc	 mov	 edx, DWORD PTR _rect2$187443[ebp+12]
  01ec4	83 ea 01	 sub	 edx, 1
  01ec7	52		 push	 edx
  01ec8	8b 45 b0	 mov	 eax, DWORD PTR _rect2$187443[ebp]
  01ecb	83 c0 01	 add	 eax, 1
  01ece	50		 push	 eax
  01ecf	8d 4d a0	 lea	 ecx, DWORD PTR _pen2$187445[ebp]
  01ed2	51		 push	 ecx
  01ed3	8b 4d 08	 mov	 ecx, DWORD PTR _gdi$[ebp]
  01ed6	e8 00 00 00 00	 call	 ?DrawLine@Graphics@Gdiplus@@QAE?AW4Status@2@PBVPen@2@HHHH@Z ; Gdiplus::Graphics::DrawLine

; 446  : 			gdi.DrawLine( &pen2, rect2.left, rect2.top+1, rect2.left, rect2.bottom-2 );

  01edb	8b 55 bc	 mov	 edx, DWORD PTR _rect2$187443[ebp+12]
  01ede	83 ea 02	 sub	 edx, 2
  01ee1	52		 push	 edx
  01ee2	8b 45 b0	 mov	 eax, DWORD PTR _rect2$187443[ebp]
  01ee5	50		 push	 eax
  01ee6	8b 4d b4	 mov	 ecx, DWORD PTR _rect2$187443[ebp+4]
  01ee9	83 c1 01	 add	 ecx, 1
  01eec	51		 push	 ecx
  01eed	8b 55 b0	 mov	 edx, DWORD PTR _rect2$187443[ebp]
  01ef0	52		 push	 edx
  01ef1	8d 45 a0	 lea	 eax, DWORD PTR _pen2$187445[ebp]
  01ef4	50		 push	 eax
  01ef5	8b 4d 08	 mov	 ecx, DWORD PTR _gdi$[ebp]
  01ef8	e8 00 00 00 00	 call	 ?DrawLine@Graphics@Gdiplus@@QAE?AW4Status@2@PBVPen@2@HHHH@Z ; Gdiplus::Graphics::DrawLine

; 447  : 			gdi.DrawLine( &pen2, rect2.right-1, rect2.top+1, rect2.right-1, rect2.bottom-2 );

  01efd	8b 4d bc	 mov	 ecx, DWORD PTR _rect2$187443[ebp+12]
  01f00	83 e9 02	 sub	 ecx, 2
  01f03	51		 push	 ecx
  01f04	8b 55 b8	 mov	 edx, DWORD PTR _rect2$187443[ebp+8]
  01f07	83 ea 01	 sub	 edx, 1
  01f0a	52		 push	 edx
  01f0b	8b 45 b4	 mov	 eax, DWORD PTR _rect2$187443[ebp+4]
  01f0e	83 c0 01	 add	 eax, 1
  01f11	50		 push	 eax
  01f12	8b 4d b8	 mov	 ecx, DWORD PTR _rect2$187443[ebp+8]
  01f15	83 e9 01	 sub	 ecx, 1
  01f18	51		 push	 ecx
  01f19	8d 55 a0	 lea	 edx, DWORD PTR _pen2$187445[ebp]
  01f1c	52		 push	 edx
  01f1d	8b 4d 08	 mov	 ecx, DWORD PTR _gdi$[ebp]
  01f20	e8 00 00 00 00	 call	 ?DrawLine@Graphics@Gdiplus@@QAE?AW4Status@2@PBVPen@2@HHHH@Z ; Gdiplus::Graphics::DrawLine

; 448  : 
; 449  : 			Gdiplus::Color colpix2;

  01f25	8d 4d 94	 lea	 ecx, DWORD PTR _colpix2$187448[ebp]
  01f28	e8 00 00 00 00	 call	 ??0Color@Gdiplus@@QAE@XZ ; Gdiplus::Color::Color

; 450  : 			pen2.GetColor( &colpix2 );

  01f2d	8d 45 94	 lea	 eax, DWORD PTR _colpix2$187448[ebp]
  01f30	50		 push	 eax
  01f31	8d 4d a0	 lea	 ecx, DWORD PTR _pen2$187445[ebp]
  01f34	e8 00 00 00 00	 call	 ?GetColor@Pen@Gdiplus@@QBE?AW4Status@2@PAVColor@2@@Z ; Gdiplus::Pen::GetColor

; 451  : 			colpix2.SetValue( Gdiplus::Color::MakeARGB(colpix2.GetA()/2,colpix2.GetR(),colpix2.GetG(),colpix2.GetB() ) );

  01f39	8d 4d 94	 lea	 ecx, DWORD PTR _colpix2$187448[ebp]
  01f3c	e8 00 00 00 00	 call	 ?GetB@Color@Gdiplus@@QBEEXZ ; Gdiplus::Color::GetB
  01f41	50		 push	 eax
  01f42	8d 4d 94	 lea	 ecx, DWORD PTR _colpix2$187448[ebp]
  01f45	e8 00 00 00 00	 call	 ?GetG@Color@Gdiplus@@QBEEXZ ; Gdiplus::Color::GetG
  01f4a	50		 push	 eax
  01f4b	8d 4d 94	 lea	 ecx, DWORD PTR _colpix2$187448[ebp]
  01f4e	e8 00 00 00 00	 call	 ?GetR@Color@Gdiplus@@QBEEXZ ; Gdiplus::Color::GetR
  01f53	50		 push	 eax
  01f54	8d 4d 94	 lea	 ecx, DWORD PTR _colpix2$187448[ebp]
  01f57	e8 00 00 00 00	 call	 ?GetA@Color@Gdiplus@@QBEEXZ ; Gdiplus::Color::GetA
  01f5c	0f b6 c0	 movzx	 eax, al
  01f5f	99		 cdq
  01f60	2b c2		 sub	 eax, edx
  01f62	d1 f8		 sar	 eax, 1
  01f64	50		 push	 eax
  01f65	e8 00 00 00 00	 call	 ?MakeARGB@Color@Gdiplus@@SAKEEEE@Z ; Gdiplus::Color::MakeARGB
  01f6a	83 c4 10	 add	 esp, 16			; 00000010H
  01f6d	50		 push	 eax
  01f6e	8d 4d 94	 lea	 ecx, DWORD PTR _colpix2$187448[ebp]
  01f71	e8 00 00 00 00	 call	 ?SetValue@Color@Gdiplus@@QAEXK@Z ; Gdiplus::Color::SetValue

; 452  : 			Gdiplus::Pen penPix2( colpix2 );

  01f76	68 00 00 80 3f	 push	 1065353216		; 3f800000H
  01f7b	8d 4d 94	 lea	 ecx, DWORD PTR _colpix2$187448[ebp]
  01f7e	51		 push	 ecx
  01f7f	8d 4d 84	 lea	 ecx, DWORD PTR _penPix2$187449[ebp]
  01f82	e8 00 00 00 00	 call	 ??0Pen@Gdiplus@@QAE@ABVColor@1@M@Z ; Gdiplus::Pen::Pen
  01f87	c6 45 fc 03	 mov	 BYTE PTR __$EHRec$[ebp+8], 3

; 453  : 			gdi.DrawLine( &penPix2, rect2.left, rect2.top, rect2.left+1, rect2.top );

  01f8b	8b 55 b4	 mov	 edx, DWORD PTR _rect2$187443[ebp+4]
  01f8e	52		 push	 edx
  01f8f	8b 45 b0	 mov	 eax, DWORD PTR _rect2$187443[ebp]
  01f92	83 c0 01	 add	 eax, 1
  01f95	50		 push	 eax
  01f96	8b 4d b4	 mov	 ecx, DWORD PTR _rect2$187443[ebp+4]
  01f99	51		 push	 ecx
  01f9a	8b 55 b0	 mov	 edx, DWORD PTR _rect2$187443[ebp]
  01f9d	52		 push	 edx
  01f9e	8d 45 84	 lea	 eax, DWORD PTR _penPix2$187449[ebp]
  01fa1	50		 push	 eax
  01fa2	8b 4d 08	 mov	 ecx, DWORD PTR _gdi$[ebp]
  01fa5	e8 00 00 00 00	 call	 ?DrawLine@Graphics@Gdiplus@@QAE?AW4Status@2@PBVPen@2@HHHH@Z ; Gdiplus::Graphics::DrawLine

; 454  : 			gdi.DrawLine( &penPix2, rect2.right-1, rect2.top, rect2.right-1, rect2.top+1 );

  01faa	8b 4d b4	 mov	 ecx, DWORD PTR _rect2$187443[ebp+4]
  01fad	83 c1 01	 add	 ecx, 1
  01fb0	51		 push	 ecx
  01fb1	8b 55 b8	 mov	 edx, DWORD PTR _rect2$187443[ebp+8]
  01fb4	83 ea 01	 sub	 edx, 1
  01fb7	52		 push	 edx
  01fb8	8b 45 b4	 mov	 eax, DWORD PTR _rect2$187443[ebp+4]
  01fbb	50		 push	 eax
  01fbc	8b 4d b8	 mov	 ecx, DWORD PTR _rect2$187443[ebp+8]
  01fbf	83 e9 01	 sub	 ecx, 1
  01fc2	51		 push	 ecx
  01fc3	8d 55 84	 lea	 edx, DWORD PTR _penPix2$187449[ebp]
  01fc6	52		 push	 edx
  01fc7	8b 4d 08	 mov	 ecx, DWORD PTR _gdi$[ebp]
  01fca	e8 00 00 00 00	 call	 ?DrawLine@Graphics@Gdiplus@@QAE?AW4Status@2@PBVPen@2@HHHH@Z ; Gdiplus::Graphics::DrawLine

; 455  : 			gdi.DrawLine( &penPix2, rect2.right-1, rect2.bottom-1, rect2.right-2, rect2.bottom-1 );

  01fcf	8b 45 bc	 mov	 eax, DWORD PTR _rect2$187443[ebp+12]
  01fd2	83 e8 01	 sub	 eax, 1
  01fd5	50		 push	 eax
  01fd6	8b 4d b8	 mov	 ecx, DWORD PTR _rect2$187443[ebp+8]
  01fd9	83 e9 02	 sub	 ecx, 2
  01fdc	51		 push	 ecx
  01fdd	8b 55 bc	 mov	 edx, DWORD PTR _rect2$187443[ebp+12]
  01fe0	83 ea 01	 sub	 edx, 1
  01fe3	52		 push	 edx
  01fe4	8b 45 b8	 mov	 eax, DWORD PTR _rect2$187443[ebp+8]
  01fe7	83 e8 01	 sub	 eax, 1
  01fea	50		 push	 eax
  01feb	8d 4d 84	 lea	 ecx, DWORD PTR _penPix2$187449[ebp]
  01fee	51		 push	 ecx
  01fef	8b 4d 08	 mov	 ecx, DWORD PTR _gdi$[ebp]
  01ff2	e8 00 00 00 00	 call	 ?DrawLine@Graphics@Gdiplus@@QAE?AW4Status@2@PBVPen@2@HHHH@Z ; Gdiplus::Graphics::DrawLine

; 456  : 			gdi.DrawLine( &penPix2, rect2.left,  rect2.bottom-1, rect2.left+1,  rect2.bottom-1 );

  01ff7	8b 55 bc	 mov	 edx, DWORD PTR _rect2$187443[ebp+12]
  01ffa	83 ea 01	 sub	 edx, 1
  01ffd	52		 push	 edx
  01ffe	8b 45 b0	 mov	 eax, DWORD PTR _rect2$187443[ebp]
  02001	83 c0 01	 add	 eax, 1
  02004	50		 push	 eax
  02005	8b 4d bc	 mov	 ecx, DWORD PTR _rect2$187443[ebp+12]
  02008	83 e9 01	 sub	 ecx, 1
  0200b	51		 push	 ecx
  0200c	8b 55 b0	 mov	 edx, DWORD PTR _rect2$187443[ebp]
  0200f	52		 push	 edx
  02010	8d 45 84	 lea	 eax, DWORD PTR _penPix2$187449[ebp]
  02013	50		 push	 eax
  02014	8b 4d 08	 mov	 ecx, DWORD PTR _gdi$[ebp]
  02017	e8 00 00 00 00	 call	 ?DrawLine@Graphics@Gdiplus@@QAE?AW4Status@2@PBVPen@2@HHHH@Z ; Gdiplus::Graphics::DrawLine

; 457  : 		}

  0201c	c6 45 fc 02	 mov	 BYTE PTR __$EHRec$[ebp+8], 2
  02020	8d 4d 84	 lea	 ecx, DWORD PTR _penPix2$187449[ebp]
  02023	e8 00 00 00 00	 call	 ??1Pen@Gdiplus@@QAE@XZ	; Gdiplus::Pen::~Pen
  02028	c6 45 fc 01	 mov	 BYTE PTR __$EHRec$[ebp+8], 1
  0202c	8d 4d a0	 lea	 ecx, DWORD PTR _pen2$187445[ebp]
  0202f	e8 00 00 00 00	 call	 ??1Pen@Gdiplus@@QAE@XZ	; Gdiplus::Pen::~Pen
$L187444:

; 458  : 
; 459  : 		if( m_bMouseDown )

  02034	8b 4d f0	 mov	 ecx, DWORD PTR _this$[ebp]
  02037	83 b9 88 00 00
	00 00		 cmp	 DWORD PTR [ecx+136], 0
  0203e	0f 84 ef 00 00
	00		 je	 $L187450

; 460  : 		{
; 461  : 			Gdiplus::RectF rc( rect2.left, rect2.top, rect2.Width(), rect2.Height()/3 );

  02044	8d 4d b0	 lea	 ecx, DWORD PTR _rect2$187443[ebp]
  02047	e8 00 00 00 00	 call	 ?Height@CRect@@QBEHXZ	; CRect::Height
  0204c	99		 cdq
  0204d	b9 03 00 00 00	 mov	 ecx, 3
  02052	f7 f9		 idiv	 ecx
  02054	89 85 0c fd ff
	ff		 mov	 DWORD PTR tv1260[ebp], eax
  0205a	db 85 0c fd ff
	ff		 fild	 DWORD PTR tv1260[ebp]
  02060	51		 push	 ecx
  02061	d9 1c 24	 fstp	 DWORD PTR [esp]
  02064	8d 4d b0	 lea	 ecx, DWORD PTR _rect2$187443[ebp]
  02067	e8 00 00 00 00	 call	 ?Width@CRect@@QBEHXZ	; CRect::Width
  0206c	89 85 08 fd ff
	ff		 mov	 DWORD PTR tv1262[ebp], eax
  02072	db 85 08 fd ff
	ff		 fild	 DWORD PTR tv1262[ebp]
  02078	51		 push	 ecx
  02079	d9 1c 24	 fstp	 DWORD PTR [esp]
  0207c	db 45 b4	 fild	 DWORD PTR _rect2$187443[ebp+4]
  0207f	51		 push	 ecx
  02080	d9 1c 24	 fstp	 DWORD PTR [esp]
  02083	db 45 b0	 fild	 DWORD PTR _rect2$187443[ebp]
  02086	51		 push	 ecx
  02087	d9 1c 24	 fstp	 DWORD PTR [esp]
  0208a	8d 8d 6c ff ff
	ff		 lea	 ecx, DWORD PTR _rc$187451[ebp]
  02090	e8 00 00 00 00	 call	 ??0RectF@Gdiplus@@QAE@MMMM@Z ; Gdiplus::RectF::RectF

; 462  : 			Gdiplus::Color colBrush1,colBrush2;

  02095	8d 8d 60 ff ff
	ff		 lea	 ecx, DWORD PTR _colBrush1$187452[ebp]
  0209b	e8 00 00 00 00	 call	 ??0Color@Gdiplus@@QAE@XZ ; Gdiplus::Color::Color
  020a0	8d 8d 54 ff ff
	ff		 lea	 ecx, DWORD PTR _colBrush2$187453[ebp]
  020a6	e8 00 00 00 00	 call	 ??0Color@Gdiplus@@QAE@XZ ; Gdiplus::Color::Color

; 463  : 			colBrush1.SetValue( Gdiplus::Color::MakeARGB(15,1,1,1)  );

  020ab	6a 01		 push	 1
  020ad	6a 01		 push	 1
  020af	6a 01		 push	 1
  020b1	6a 0f		 push	 15			; 0000000fH
  020b3	e8 00 00 00 00	 call	 ?MakeARGB@Color@Gdiplus@@SAKEEEE@Z ; Gdiplus::Color::MakeARGB
  020b8	83 c4 10	 add	 esp, 16			; 00000010H
  020bb	50		 push	 eax
  020bc	8d 8d 60 ff ff
	ff		 lea	 ecx, DWORD PTR _colBrush1$187452[ebp]
  020c2	e8 00 00 00 00	 call	 ?SetValue@Color@Gdiplus@@QAEXK@Z ; Gdiplus::Color::SetValue

; 464  : 			colBrush2.SetValue( Gdiplus::Color::MakeARGB(0,1,1,1)  );

  020c7	6a 01		 push	 1
  020c9	6a 01		 push	 1
  020cb	6a 01		 push	 1
  020cd	6a 00		 push	 0
  020cf	e8 00 00 00 00	 call	 ?MakeARGB@Color@Gdiplus@@SAKEEEE@Z ; Gdiplus::Color::MakeARGB
  020d4	83 c4 10	 add	 esp, 16			; 00000010H
  020d7	50		 push	 eax
  020d8	8d 8d 54 ff ff
	ff		 lea	 ecx, DWORD PTR _colBrush2$187453[ebp]
  020de	e8 00 00 00 00	 call	 ?SetValue@Color@Gdiplus@@QAEXK@Z ; Gdiplus::Color::SetValue

; 465  : 
; 466  : 			LinearGradientBrush brush( rc, colBrush1, colBrush2,LinearGradientModeVertical );

  020e3	6a 01		 push	 1
  020e5	8d 95 54 ff ff
	ff		 lea	 edx, DWORD PTR _colBrush2$187453[ebp]
  020eb	52		 push	 edx
  020ec	8d 85 60 ff ff
	ff		 lea	 eax, DWORD PTR _colBrush1$187452[ebp]
  020f2	50		 push	 eax
  020f3	8d 8d 6c ff ff
	ff		 lea	 ecx, DWORD PTR _rc$187451[ebp]
  020f9	51		 push	 ecx
  020fa	8d 8d 40 ff ff
	ff		 lea	 ecx, DWORD PTR _brush$187454[ebp]
  02100	e8 00 00 00 00	 call	 ??0LinearGradientBrush@Gdiplus@@QAE@ABVRectF@1@ABVColor@1@1W4LinearGradientMode@1@@Z ; Gdiplus::LinearGradientBrush::LinearGradientBrush
  02105	c6 45 fc 04	 mov	 BYTE PTR __$EHRec$[ebp+8], 4

; 467  : 			gdi.FillRectangle( &brush, rc );

  02109	8d 95 6c ff ff
	ff		 lea	 edx, DWORD PTR _rc$187451[ebp]
  0210f	52		 push	 edx
  02110	8d 85 40 ff ff
	ff		 lea	 eax, DWORD PTR _brush$187454[ebp]
  02116	50		 push	 eax
  02117	8b 4d 08	 mov	 ecx, DWORD PTR _gdi$[ebp]
  0211a	e8 00 00 00 00	 call	 ?FillRectangle@Graphics@Gdiplus@@QAE?AW4Status@2@PBVBrush@2@ABVRectF@2@@Z ; Gdiplus::Graphics::FillRectangle

; 468  : 		}

  0211f	c6 45 fc 01	 mov	 BYTE PTR __$EHRec$[ebp+8], 1
  02123	8d 8d 40 ff ff
	ff		 lea	 ecx, DWORD PTR _brush$187454[ebp]
  02129	e8 00 00 00 00	 call	 ??1LinearGradientBrush@Gdiplus@@UAE@XZ

; 469  : 		else

  0212e	e9 b4 00 00 00	 jmp	 $L187455
$L187450:

; 470  : 		{
; 471  : 			Gdiplus::RectF rc( rect2.left, rect2.top, rect2.Width(), rect2.Height()/2 );

  02133	8d 4d b0	 lea	 ecx, DWORD PTR _rect2$187443[ebp]
  02136	e8 00 00 00 00	 call	 ?Height@CRect@@QBEHXZ	; CRect::Height
  0213b	99		 cdq
  0213c	2b c2		 sub	 eax, edx
  0213e	d1 f8		 sar	 eax, 1
  02140	89 85 04 fd ff
	ff		 mov	 DWORD PTR tv1280[ebp], eax
  02146	db 85 04 fd ff
	ff		 fild	 DWORD PTR tv1280[ebp]
  0214c	51		 push	 ecx
  0214d	d9 1c 24	 fstp	 DWORD PTR [esp]
  02150	8d 4d b0	 lea	 ecx, DWORD PTR _rect2$187443[ebp]
  02153	e8 00 00 00 00	 call	 ?Width@CRect@@QBEHXZ	; CRect::Width
  02158	89 85 00 fd ff
	ff		 mov	 DWORD PTR tv1282[ebp], eax
  0215e	db 85 00 fd ff
	ff		 fild	 DWORD PTR tv1282[ebp]
  02164	51		 push	 ecx
  02165	d9 1c 24	 fstp	 DWORD PTR [esp]
  02168	db 45 b4	 fild	 DWORD PTR _rect2$187443[ebp+4]
  0216b	51		 push	 ecx
  0216c	d9 1c 24	 fstp	 DWORD PTR [esp]
  0216f	db 45 b0	 fild	 DWORD PTR _rect2$187443[ebp]
  02172	51		 push	 ecx
  02173	d9 1c 24	 fstp	 DWORD PTR [esp]
  02176	8d 8d 28 ff ff
	ff		 lea	 ecx, DWORD PTR _rc$187456[ebp]
  0217c	e8 00 00 00 00	 call	 ??0RectF@Gdiplus@@QAE@MMMM@Z ; Gdiplus::RectF::RectF

; 472  : 			rc.Inflate(-1,-1);

  02181	68 00 00 80 bf	 push	 -1082130432		; bf800000H
  02186	68 00 00 80 bf	 push	 -1082130432		; bf800000H
  0218b	8d 8d 28 ff ff
	ff		 lea	 ecx, DWORD PTR _rc$187456[ebp]
  02191	e8 00 00 00 00	 call	 ?Inflate@RectF@Gdiplus@@QAEXMM@Z ; Gdiplus::RectF::Inflate

; 473  : 			LinearGradientBrush brush( rc, m_colBrush1, m_colBrush2,LinearGradientModeVertical );

  02196	6a 01		 push	 1
  02198	8b 4d f0	 mov	 ecx, DWORD PTR _this$[ebp]
  0219b	81 c1 7c 01 00
	00		 add	 ecx, 380		; 0000017cH
  021a1	51		 push	 ecx
  021a2	8b 55 f0	 mov	 edx, DWORD PTR _this$[ebp]
  021a5	81 c2 78 01 00
	00		 add	 edx, 376		; 00000178H
  021ab	52		 push	 edx
  021ac	8d 85 28 ff ff
	ff		 lea	 eax, DWORD PTR _rc$187456[ebp]
  021b2	50		 push	 eax
  021b3	8d 8d 14 ff ff
	ff		 lea	 ecx, DWORD PTR _brush$187457[ebp]
  021b9	e8 00 00 00 00	 call	 ??0LinearGradientBrush@Gdiplus@@QAE@ABVRectF@1@ABVColor@1@1W4LinearGradientMode@1@@Z ; Gdiplus::LinearGradientBrush::LinearGradientBrush
  021be	c6 45 fc 05	 mov	 BYTE PTR __$EHRec$[ebp+8], 5

; 474  : 			gdi.FillRectangle( &brush, rc );

  021c2	8d 8d 28 ff ff
	ff		 lea	 ecx, DWORD PTR _rc$187456[ebp]
  021c8	51		 push	 ecx
  021c9	8d 95 14 ff ff
	ff		 lea	 edx, DWORD PTR _brush$187457[ebp]
  021cf	52		 push	 edx
  021d0	8b 4d 08	 mov	 ecx, DWORD PTR _gdi$[ebp]
  021d3	e8 00 00 00 00	 call	 ?FillRectangle@Graphics@Gdiplus@@QAE?AW4Status@2@PBVBrush@2@ABVRectF@2@@Z ; Gdiplus::Graphics::FillRectangle

; 475  : 		}

  021d8	c6 45 fc 01	 mov	 BYTE PTR __$EHRec$[ebp+8], 1
  021dc	8d 8d 14 ff ff
	ff		 lea	 ecx, DWORD PTR _brush$187457[ebp]
  021e2	e8 00 00 00 00	 call	 ??1LinearGradientBrush@Gdiplus@@UAE@XZ
$L187455:

; 476  : 
; 477  : 		return;

  021e7	c6 45 fc 00	 mov	 BYTE PTR __$EHRec$[ebp+8], 0
  021eb	8d 4d c8	 lea	 ecx, DWORD PTR _penPix1$187442[ebp]
  021ee	e8 00 00 00 00	 call	 ??1Pen@Gdiplus@@QAE@XZ	; Gdiplus::Pen::~Pen
  021f3	c7 45 fc ff ff
	ff ff		 mov	 DWORD PTR __$EHRec$[ebp+8], -1
  021fa	8d 4d e4	 lea	 ecx, DWORD PTR _pen1$187440[ebp]
  021fd	e8 00 00 00 00	 call	 ??1Pen@Gdiplus@@QAE@XZ	; Gdiplus::Pen::~Pen
  02202	e9 cc 0c 00 00	 jmp	 $L187438
$L187439:

; 478  : 	}
; 479  : 	else if( m_enmuDrawType == NO_FRAME_SELECT )

  02207	8b 45 f0	 mov	 eax, DWORD PTR _this$[ebp]
  0220a	83 78 54 10	 cmp	 DWORD PTR [eax+84], 16	; 00000010H
  0220e	0f 85 2b 07 00
	00		 jne	 $L187458

; 480  : 	{
; 481  : 		Gdiplus::Pen pen1( m_colFrame1 );

  02214	68 00 00 80 3f	 push	 1065353216		; 3f800000H
  02219	8b 4d f0	 mov	 ecx, DWORD PTR _this$[ebp]
  0221c	81 c1 70 01 00
	00		 add	 ecx, 368		; 00000170H
  02222	51		 push	 ecx
  02223	8d 8d 04 ff ff
	ff		 lea	 ecx, DWORD PTR _pen1$187460[ebp]
  02229	e8 00 00 00 00	 call	 ??0Pen@Gdiplus@@QAE@ABVColor@1@M@Z ; Gdiplus::Pen::Pen
  0222e	c7 45 fc 06 00
	00 00		 mov	 DWORD PTR __$EHRec$[ebp+8], 6

; 482  : 		gdi.DrawLine( &pen1, rect.left+1, rect.top, rect.right-2, rect.top );

  02235	8b 55 0c	 mov	 edx, DWORD PTR _rect$[ebp]
  02238	8b 42 04	 mov	 eax, DWORD PTR [edx+4]
  0223b	50		 push	 eax
  0223c	8b 4d 0c	 mov	 ecx, DWORD PTR _rect$[ebp]
  0223f	8b 51 08	 mov	 edx, DWORD PTR [ecx+8]
  02242	83 ea 02	 sub	 edx, 2
  02245	52		 push	 edx
  02246	8b 45 0c	 mov	 eax, DWORD PTR _rect$[ebp]
  02249	8b 48 04	 mov	 ecx, DWORD PTR [eax+4]
  0224c	51		 push	 ecx
  0224d	8b 55 0c	 mov	 edx, DWORD PTR _rect$[ebp]
  02250	8b 02		 mov	 eax, DWORD PTR [edx]
  02252	83 c0 01	 add	 eax, 1
  02255	50		 push	 eax
  02256	8d 8d 04 ff ff
	ff		 lea	 ecx, DWORD PTR _pen1$187460[ebp]
  0225c	51		 push	 ecx
  0225d	8b 4d 08	 mov	 ecx, DWORD PTR _gdi$[ebp]
  02260	e8 00 00 00 00	 call	 ?DrawLine@Graphics@Gdiplus@@QAE?AW4Status@2@PBVPen@2@HHHH@Z ; Gdiplus::Graphics::DrawLine

; 483  : 		gdi.DrawLine( &pen1, rect.left+1, rect.bottom-1, rect.right-2, rect.bottom-1 );

  02265	8b 55 0c	 mov	 edx, DWORD PTR _rect$[ebp]
  02268	8b 42 0c	 mov	 eax, DWORD PTR [edx+12]
  0226b	83 e8 01	 sub	 eax, 1
  0226e	50		 push	 eax
  0226f	8b 4d 0c	 mov	 ecx, DWORD PTR _rect$[ebp]
  02272	8b 51 08	 mov	 edx, DWORD PTR [ecx+8]
  02275	83 ea 02	 sub	 edx, 2
  02278	52		 push	 edx
  02279	8b 45 0c	 mov	 eax, DWORD PTR _rect$[ebp]
  0227c	8b 48 0c	 mov	 ecx, DWORD PTR [eax+12]
  0227f	83 e9 01	 sub	 ecx, 1
  02282	51		 push	 ecx
  02283	8b 55 0c	 mov	 edx, DWORD PTR _rect$[ebp]
  02286	8b 02		 mov	 eax, DWORD PTR [edx]
  02288	83 c0 01	 add	 eax, 1
  0228b	50		 push	 eax
  0228c	8d 8d 04 ff ff
	ff		 lea	 ecx, DWORD PTR _pen1$187460[ebp]
  02292	51		 push	 ecx
  02293	8b 4d 08	 mov	 ecx, DWORD PTR _gdi$[ebp]
  02296	e8 00 00 00 00	 call	 ?DrawLine@Graphics@Gdiplus@@QAE?AW4Status@2@PBVPen@2@HHHH@Z ; Gdiplus::Graphics::DrawLine

; 484  : 		gdi.DrawLine( &pen1, rect.left, rect.top+1, rect.left, rect.bottom-2 );

  0229b	8b 55 0c	 mov	 edx, DWORD PTR _rect$[ebp]
  0229e	8b 42 0c	 mov	 eax, DWORD PTR [edx+12]
  022a1	83 e8 02	 sub	 eax, 2
  022a4	50		 push	 eax
  022a5	8b 4d 0c	 mov	 ecx, DWORD PTR _rect$[ebp]
  022a8	8b 11		 mov	 edx, DWORD PTR [ecx]
  022aa	52		 push	 edx
  022ab	8b 45 0c	 mov	 eax, DWORD PTR _rect$[ebp]
  022ae	8b 48 04	 mov	 ecx, DWORD PTR [eax+4]
  022b1	83 c1 01	 add	 ecx, 1
  022b4	51		 push	 ecx
  022b5	8b 55 0c	 mov	 edx, DWORD PTR _rect$[ebp]
  022b8	8b 02		 mov	 eax, DWORD PTR [edx]
  022ba	50		 push	 eax
  022bb	8d 8d 04 ff ff
	ff		 lea	 ecx, DWORD PTR _pen1$187460[ebp]
  022c1	51		 push	 ecx
  022c2	8b 4d 08	 mov	 ecx, DWORD PTR _gdi$[ebp]
  022c5	e8 00 00 00 00	 call	 ?DrawLine@Graphics@Gdiplus@@QAE?AW4Status@2@PBVPen@2@HHHH@Z ; Gdiplus::Graphics::DrawLine

; 485  : 		gdi.DrawLine( &pen1, rect.right-1, rect.top+1, rect.right-1, rect.bottom-2 );

  022ca	8b 55 0c	 mov	 edx, DWORD PTR _rect$[ebp]
  022cd	8b 42 0c	 mov	 eax, DWORD PTR [edx+12]
  022d0	83 e8 02	 sub	 eax, 2
  022d3	50		 push	 eax
  022d4	8b 4d 0c	 mov	 ecx, DWORD PTR _rect$[ebp]
  022d7	8b 51 08	 mov	 edx, DWORD PTR [ecx+8]
  022da	83 ea 01	 sub	 edx, 1
  022dd	52		 push	 edx
  022de	8b 45 0c	 mov	 eax, DWORD PTR _rect$[ebp]
  022e1	8b 48 04	 mov	 ecx, DWORD PTR [eax+4]
  022e4	83 c1 01	 add	 ecx, 1
  022e7	51		 push	 ecx
  022e8	8b 55 0c	 mov	 edx, DWORD PTR _rect$[ebp]
  022eb	8b 42 08	 mov	 eax, DWORD PTR [edx+8]
  022ee	83 e8 01	 sub	 eax, 1
  022f1	50		 push	 eax
  022f2	8d 8d 04 ff ff
	ff		 lea	 ecx, DWORD PTR _pen1$187460[ebp]
  022f8	51		 push	 ecx
  022f9	8b 4d 08	 mov	 ecx, DWORD PTR _gdi$[ebp]
  022fc	e8 00 00 00 00	 call	 ?DrawLine@Graphics@Gdiplus@@QAE?AW4Status@2@PBVPen@2@HHHH@Z ; Gdiplus::Graphics::DrawLine

; 486  : 
; 487  : 		Gdiplus::Color colpix;

  02301	8d 8d f8 fe ff
	ff		 lea	 ecx, DWORD PTR _colpix$187461[ebp]
  02307	e8 00 00 00 00	 call	 ??0Color@Gdiplus@@QAE@XZ ; Gdiplus::Color::Color

; 488  : 		pen1.GetColor( &colpix );

  0230c	8d 95 f8 fe ff
	ff		 lea	 edx, DWORD PTR _colpix$187461[ebp]
  02312	52		 push	 edx
  02313	8d 8d 04 ff ff
	ff		 lea	 ecx, DWORD PTR _pen1$187460[ebp]
  02319	e8 00 00 00 00	 call	 ?GetColor@Pen@Gdiplus@@QBE?AW4Status@2@PAVColor@2@@Z ; Gdiplus::Pen::GetColor

; 489  : 		colpix.SetValue( Gdiplus::Color::MakeARGB(colpix.GetA()/2,colpix.GetR(),colpix.GetG(),colpix.GetB() ) );

  0231e	8d 8d f8 fe ff
	ff		 lea	 ecx, DWORD PTR _colpix$187461[ebp]
  02324	e8 00 00 00 00	 call	 ?GetB@Color@Gdiplus@@QBEEXZ ; Gdiplus::Color::GetB
  02329	50		 push	 eax
  0232a	8d 8d f8 fe ff
	ff		 lea	 ecx, DWORD PTR _colpix$187461[ebp]
  02330	e8 00 00 00 00	 call	 ?GetG@Color@Gdiplus@@QBEEXZ ; Gdiplus::Color::GetG
  02335	50		 push	 eax
  02336	8d 8d f8 fe ff
	ff		 lea	 ecx, DWORD PTR _colpix$187461[ebp]
  0233c	e8 00 00 00 00	 call	 ?GetR@Color@Gdiplus@@QBEEXZ ; Gdiplus::Color::GetR
  02341	50		 push	 eax
  02342	8d 8d f8 fe ff
	ff		 lea	 ecx, DWORD PTR _colpix$187461[ebp]
  02348	e8 00 00 00 00	 call	 ?GetA@Color@Gdiplus@@QBEEXZ ; Gdiplus::Color::GetA
  0234d	0f b6 c0	 movzx	 eax, al
  02350	99		 cdq
  02351	2b c2		 sub	 eax, edx
  02353	d1 f8		 sar	 eax, 1
  02355	50		 push	 eax
  02356	e8 00 00 00 00	 call	 ?MakeARGB@Color@Gdiplus@@SAKEEEE@Z ; Gdiplus::Color::MakeARGB
  0235b	83 c4 10	 add	 esp, 16			; 00000010H
  0235e	50		 push	 eax
  0235f	8d 8d f8 fe ff
	ff		 lea	 ecx, DWORD PTR _colpix$187461[ebp]
  02365	e8 00 00 00 00	 call	 ?SetValue@Color@Gdiplus@@QAEXK@Z ; Gdiplus::Color::SetValue

; 490  : 		Gdiplus::Pen penPix1( colpix );

  0236a	68 00 00 80 3f	 push	 1065353216		; 3f800000H
  0236f	8d 85 f8 fe ff
	ff		 lea	 eax, DWORD PTR _colpix$187461[ebp]
  02375	50		 push	 eax
  02376	8d 8d e8 fe ff
	ff		 lea	 ecx, DWORD PTR _penPix1$187462[ebp]
  0237c	e8 00 00 00 00	 call	 ??0Pen@Gdiplus@@QAE@ABVColor@1@M@Z ; Gdiplus::Pen::Pen
  02381	c6 45 fc 07	 mov	 BYTE PTR __$EHRec$[ebp+8], 7

; 491  : 		gdi.DrawLine( &penPix1, rect.left, rect.top, rect.left+1, rect.top );

  02385	8b 4d 0c	 mov	 ecx, DWORD PTR _rect$[ebp]
  02388	8b 51 04	 mov	 edx, DWORD PTR [ecx+4]
  0238b	52		 push	 edx
  0238c	8b 45 0c	 mov	 eax, DWORD PTR _rect$[ebp]
  0238f	8b 08		 mov	 ecx, DWORD PTR [eax]
  02391	83 c1 01	 add	 ecx, 1
  02394	51		 push	 ecx
  02395	8b 55 0c	 mov	 edx, DWORD PTR _rect$[ebp]
  02398	8b 42 04	 mov	 eax, DWORD PTR [edx+4]
  0239b	50		 push	 eax
  0239c	8b 4d 0c	 mov	 ecx, DWORD PTR _rect$[ebp]
  0239f	8b 11		 mov	 edx, DWORD PTR [ecx]
  023a1	52		 push	 edx
  023a2	8d 85 e8 fe ff
	ff		 lea	 eax, DWORD PTR _penPix1$187462[ebp]
  023a8	50		 push	 eax
  023a9	8b 4d 08	 mov	 ecx, DWORD PTR _gdi$[ebp]
  023ac	e8 00 00 00 00	 call	 ?DrawLine@Graphics@Gdiplus@@QAE?AW4Status@2@PBVPen@2@HHHH@Z ; Gdiplus::Graphics::DrawLine

; 492  : 		gdi.DrawLine( &penPix1, rect.right-1, rect.top, rect.right-1, rect.top+1 );

  023b1	8b 4d 0c	 mov	 ecx, DWORD PTR _rect$[ebp]
  023b4	8b 51 04	 mov	 edx, DWORD PTR [ecx+4]
  023b7	83 c2 01	 add	 edx, 1
  023ba	52		 push	 edx
  023bb	8b 45 0c	 mov	 eax, DWORD PTR _rect$[ebp]
  023be	8b 48 08	 mov	 ecx, DWORD PTR [eax+8]
  023c1	83 e9 01	 sub	 ecx, 1
  023c4	51		 push	 ecx
  023c5	8b 55 0c	 mov	 edx, DWORD PTR _rect$[ebp]
  023c8	8b 42 04	 mov	 eax, DWORD PTR [edx+4]
  023cb	50		 push	 eax
  023cc	8b 4d 0c	 mov	 ecx, DWORD PTR _rect$[ebp]
  023cf	8b 51 08	 mov	 edx, DWORD PTR [ecx+8]
  023d2	83 ea 01	 sub	 edx, 1
  023d5	52		 push	 edx
  023d6	8d 85 e8 fe ff
	ff		 lea	 eax, DWORD PTR _penPix1$187462[ebp]
  023dc	50		 push	 eax
  023dd	8b 4d 08	 mov	 ecx, DWORD PTR _gdi$[ebp]
  023e0	e8 00 00 00 00	 call	 ?DrawLine@Graphics@Gdiplus@@QAE?AW4Status@2@PBVPen@2@HHHH@Z ; Gdiplus::Graphics::DrawLine

; 493  : 		gdi.DrawLine( &penPix1, rect.right-1, rect.bottom-1, rect.right-2, rect.bottom-1 );

  023e5	8b 4d 0c	 mov	 ecx, DWORD PTR _rect$[ebp]
  023e8	8b 51 0c	 mov	 edx, DWORD PTR [ecx+12]
  023eb	83 ea 01	 sub	 edx, 1
  023ee	52		 push	 edx
  023ef	8b 45 0c	 mov	 eax, DWORD PTR _rect$[ebp]
  023f2	8b 48 08	 mov	 ecx, DWORD PTR [eax+8]
  023f5	83 e9 02	 sub	 ecx, 2
  023f8	51		 push	 ecx
  023f9	8b 55 0c	 mov	 edx, DWORD PTR _rect$[ebp]
  023fc	8b 42 0c	 mov	 eax, DWORD PTR [edx+12]
  023ff	83 e8 01	 sub	 eax, 1
  02402	50		 push	 eax
  02403	8b 4d 0c	 mov	 ecx, DWORD PTR _rect$[ebp]
  02406	8b 51 08	 mov	 edx, DWORD PTR [ecx+8]
  02409	83 ea 01	 sub	 edx, 1
  0240c	52		 push	 edx
  0240d	8d 85 e8 fe ff
	ff		 lea	 eax, DWORD PTR _penPix1$187462[ebp]
  02413	50		 push	 eax
  02414	8b 4d 08	 mov	 ecx, DWORD PTR _gdi$[ebp]
  02417	e8 00 00 00 00	 call	 ?DrawLine@Graphics@Gdiplus@@QAE?AW4Status@2@PBVPen@2@HHHH@Z ; Gdiplus::Graphics::DrawLine

; 494  : 		gdi.DrawLine( &penPix1, rect.left,  rect.bottom-1, rect.left+1,  rect.bottom-1 );

  0241c	8b 4d 0c	 mov	 ecx, DWORD PTR _rect$[ebp]
  0241f	8b 51 0c	 mov	 edx, DWORD PTR [ecx+12]
  02422	83 ea 01	 sub	 edx, 1
  02425	52		 push	 edx
  02426	8b 45 0c	 mov	 eax, DWORD PTR _rect$[ebp]
  02429	8b 08		 mov	 ecx, DWORD PTR [eax]
  0242b	83 c1 01	 add	 ecx, 1
  0242e	51		 push	 ecx
  0242f	8b 55 0c	 mov	 edx, DWORD PTR _rect$[ebp]
  02432	8b 42 0c	 mov	 eax, DWORD PTR [edx+12]
  02435	83 e8 01	 sub	 eax, 1
  02438	50		 push	 eax
  02439	8b 4d 0c	 mov	 ecx, DWORD PTR _rect$[ebp]
  0243c	8b 11		 mov	 edx, DWORD PTR [ecx]
  0243e	52		 push	 edx
  0243f	8d 85 e8 fe ff
	ff		 lea	 eax, DWORD PTR _penPix1$187462[ebp]
  02445	50		 push	 eax
  02446	8b 4d 08	 mov	 ecx, DWORD PTR _gdi$[ebp]
  02449	e8 00 00 00 00	 call	 ?DrawLine@Graphics@Gdiplus@@QAE?AW4Status@2@PBVPen@2@HHHH@Z ; Gdiplus::Graphics::DrawLine

; 495  : 
; 496  : 		CRect rect2 = rect;

  0244e	8b 4d 0c	 mov	 ecx, DWORD PTR _rect$[ebp]
  02451	8b 11		 mov	 edx, DWORD PTR [ecx]
  02453	89 95 d0 fe ff
	ff		 mov	 DWORD PTR _rect2$187463[ebp], edx
  02459	8b 41 04	 mov	 eax, DWORD PTR [ecx+4]
  0245c	89 85 d4 fe ff
	ff		 mov	 DWORD PTR _rect2$187463[ebp+4], eax
  02462	8b 51 08	 mov	 edx, DWORD PTR [ecx+8]
  02465	89 95 d8 fe ff
	ff		 mov	 DWORD PTR _rect2$187463[ebp+8], edx
  0246b	8b 41 0c	 mov	 eax, DWORD PTR [ecx+12]
  0246e	89 85 dc fe ff
	ff		 mov	 DWORD PTR _rect2$187463[ebp+12], eax

; 497  : 		::InflateRect( &rect2, -1,-1 );

  02474	8b f4		 mov	 esi, esp
  02476	6a ff		 push	 -1
  02478	6a ff		 push	 -1
  0247a	8d 8d d0 fe ff
	ff		 lea	 ecx, DWORD PTR _rect2$187463[ebp]
  02480	51		 push	 ecx
  02481	ff 15 00 00 00
	00		 call	 DWORD PTR __imp__InflateRect@12
  02487	3b f4		 cmp	 esi, esp
  02489	e8 00 00 00 00	 call	 __RTC_CheckEsp

; 498  : 		if( !m_bMouseDown )

  0248e	8b 55 f0	 mov	 edx, DWORD PTR _this$[ebp]
  02491	83 ba 88 00 00
	00 00		 cmp	 DWORD PTR [edx+136], 0
  02498	0f 85 93 02 00
	00		 jne	 $L187464

; 499  : 		{
; 500  : 			Gdiplus::Pen pen2(m_colFrame2);

  0249e	68 00 00 80 3f	 push	 1065353216		; 3f800000H
  024a3	8b 45 f0	 mov	 eax, DWORD PTR _this$[ebp]
  024a6	05 74 01 00 00	 add	 eax, 372		; 00000174H
  024ab	50		 push	 eax
  024ac	8d 8d c0 fe ff
	ff		 lea	 ecx, DWORD PTR _pen2$187465[ebp]
  024b2	e8 00 00 00 00	 call	 ??0Pen@Gdiplus@@QAE@ABVColor@1@M@Z ; Gdiplus::Pen::Pen
  024b7	c6 45 fc 08	 mov	 BYTE PTR __$EHRec$[ebp+8], 8

; 501  : 			if( m_bMouseDown )

  024bb	8b 4d f0	 mov	 ecx, DWORD PTR _this$[ebp]
  024be	83 b9 88 00 00
	00 00		 cmp	 DWORD PTR [ecx+136], 0
  024c5	74 17		 je	 SHORT $L187466

; 502  : 				pen2.SetColor(m_colFrame1);

  024c7	8b 55 f0	 mov	 edx, DWORD PTR _this$[ebp]
  024ca	81 c2 70 01 00
	00		 add	 edx, 368		; 00000170H
  024d0	52		 push	 edx
  024d1	8d 8d c0 fe ff
	ff		 lea	 ecx, DWORD PTR _pen2$187465[ebp]
  024d7	e8 00 00 00 00	 call	 ?SetColor@Pen@Gdiplus@@QAE?AW4Status@2@ABVColor@2@@Z ; Gdiplus::Pen::SetColor

; 503  : 			else

  024dc	eb 14		 jmp	 SHORT $L187467
$L187466:

; 504  : 				pen2.SetColor(m_colFrame2);

  024de	8b 45 f0	 mov	 eax, DWORD PTR _this$[ebp]
  024e1	05 74 01 00 00	 add	 eax, 372		; 00000174H
  024e6	50		 push	 eax
  024e7	8d 8d c0 fe ff
	ff		 lea	 ecx, DWORD PTR _pen2$187465[ebp]
  024ed	e8 00 00 00 00	 call	 ?SetColor@Pen@Gdiplus@@QAE?AW4Status@2@ABVColor@2@@Z ; Gdiplus::Pen::SetColor
$L187467:

; 505  : 
; 506  : 			gdi.DrawLine( &pen2, rect2.left+1, rect2.top, rect2.right-2, rect2.top );

  024f2	8b 8d d4 fe ff
	ff		 mov	 ecx, DWORD PTR _rect2$187463[ebp+4]
  024f8	51		 push	 ecx
  024f9	8b 95 d8 fe ff
	ff		 mov	 edx, DWORD PTR _rect2$187463[ebp+8]
  024ff	83 ea 02	 sub	 edx, 2
  02502	52		 push	 edx
  02503	8b 85 d4 fe ff
	ff		 mov	 eax, DWORD PTR _rect2$187463[ebp+4]
  02509	50		 push	 eax
  0250a	8b 8d d0 fe ff
	ff		 mov	 ecx, DWORD PTR _rect2$187463[ebp]
  02510	83 c1 01	 add	 ecx, 1
  02513	51		 push	 ecx
  02514	8d 95 c0 fe ff
	ff		 lea	 edx, DWORD PTR _pen2$187465[ebp]
  0251a	52		 push	 edx
  0251b	8b 4d 08	 mov	 ecx, DWORD PTR _gdi$[ebp]
  0251e	e8 00 00 00 00	 call	 ?DrawLine@Graphics@Gdiplus@@QAE?AW4Status@2@PBVPen@2@HHHH@Z ; Gdiplus::Graphics::DrawLine

; 507  : 			gdi.DrawLine( &pen2, rect2.left+1, rect2.bottom-1, rect2.right-2, rect2.bottom-1 );

  02523	8b 85 dc fe ff
	ff		 mov	 eax, DWORD PTR _rect2$187463[ebp+12]
  02529	83 e8 01	 sub	 eax, 1
  0252c	50		 push	 eax
  0252d	8b 8d d8 fe ff
	ff		 mov	 ecx, DWORD PTR _rect2$187463[ebp+8]
  02533	83 e9 02	 sub	 ecx, 2
  02536	51		 push	 ecx
  02537	8b 95 dc fe ff
	ff		 mov	 edx, DWORD PTR _rect2$187463[ebp+12]
  0253d	83 ea 01	 sub	 edx, 1
  02540	52		 push	 edx
  02541	8b 85 d0 fe ff
	ff		 mov	 eax, DWORD PTR _rect2$187463[ebp]
  02547	83 c0 01	 add	 eax, 1
  0254a	50		 push	 eax
  0254b	8d 8d c0 fe ff
	ff		 lea	 ecx, DWORD PTR _pen2$187465[ebp]
  02551	51		 push	 ecx
  02552	8b 4d 08	 mov	 ecx, DWORD PTR _gdi$[ebp]
  02555	e8 00 00 00 00	 call	 ?DrawLine@Graphics@Gdiplus@@QAE?AW4Status@2@PBVPen@2@HHHH@Z ; Gdiplus::Graphics::DrawLine

; 508  : 			gdi.DrawLine( &pen2, rect2.left, rect2.top+1, rect2.left, rect2.bottom-2 );

  0255a	8b 95 dc fe ff
	ff		 mov	 edx, DWORD PTR _rect2$187463[ebp+12]
  02560	83 ea 02	 sub	 edx, 2
  02563	52		 push	 edx
  02564	8b 85 d0 fe ff
	ff		 mov	 eax, DWORD PTR _rect2$187463[ebp]
  0256a	50		 push	 eax
  0256b	8b 8d d4 fe ff
	ff		 mov	 ecx, DWORD PTR _rect2$187463[ebp+4]
  02571	83 c1 01	 add	 ecx, 1
  02574	51		 push	 ecx
  02575	8b 95 d0 fe ff
	ff		 mov	 edx, DWORD PTR _rect2$187463[ebp]
  0257b	52		 push	 edx
  0257c	8d 85 c0 fe ff
	ff		 lea	 eax, DWORD PTR _pen2$187465[ebp]
  02582	50		 push	 eax
  02583	8b 4d 08	 mov	 ecx, DWORD PTR _gdi$[ebp]
  02586	e8 00 00 00 00	 call	 ?DrawLine@Graphics@Gdiplus@@QAE?AW4Status@2@PBVPen@2@HHHH@Z ; Gdiplus::Graphics::DrawLine

; 509  : 			gdi.DrawLine( &pen2, rect2.right-1, rect2.top+1, rect2.right-1, rect2.bottom-2 );

  0258b	8b 8d dc fe ff
	ff		 mov	 ecx, DWORD PTR _rect2$187463[ebp+12]
  02591	83 e9 02	 sub	 ecx, 2
  02594	51		 push	 ecx
  02595	8b 95 d8 fe ff
	ff		 mov	 edx, DWORD PTR _rect2$187463[ebp+8]
  0259b	83 ea 01	 sub	 edx, 1
  0259e	52		 push	 edx
  0259f	8b 85 d4 fe ff
	ff		 mov	 eax, DWORD PTR _rect2$187463[ebp+4]
  025a5	83 c0 01	 add	 eax, 1
  025a8	50		 push	 eax
  025a9	8b 8d d8 fe ff
	ff		 mov	 ecx, DWORD PTR _rect2$187463[ebp+8]
  025af	83 e9 01	 sub	 ecx, 1
  025b2	51		 push	 ecx
  025b3	8d 95 c0 fe ff
	ff		 lea	 edx, DWORD PTR _pen2$187465[ebp]
  025b9	52		 push	 edx
  025ba	8b 4d 08	 mov	 ecx, DWORD PTR _gdi$[ebp]
  025bd	e8 00 00 00 00	 call	 ?DrawLine@Graphics@Gdiplus@@QAE?AW4Status@2@PBVPen@2@HHHH@Z ; Gdiplus::Graphics::DrawLine

; 510  : 
; 511  : 			Gdiplus::Color colpix2;

  025c2	8d 8d b4 fe ff
	ff		 lea	 ecx, DWORD PTR _colpix2$187468[ebp]
  025c8	e8 00 00 00 00	 call	 ??0Color@Gdiplus@@QAE@XZ ; Gdiplus::Color::Color

; 512  : 			pen2.GetColor( &colpix2 );

  025cd	8d 85 b4 fe ff
	ff		 lea	 eax, DWORD PTR _colpix2$187468[ebp]
  025d3	50		 push	 eax
  025d4	8d 8d c0 fe ff
	ff		 lea	 ecx, DWORD PTR _pen2$187465[ebp]
  025da	e8 00 00 00 00	 call	 ?GetColor@Pen@Gdiplus@@QBE?AW4Status@2@PAVColor@2@@Z ; Gdiplus::Pen::GetColor

; 513  : 			colpix2.SetValue( Gdiplus::Color::MakeARGB(colpix2.GetA()/2,colpix2.GetR(),colpix2.GetG(),colpix2.GetB() ) );

  025df	8d 8d b4 fe ff
	ff		 lea	 ecx, DWORD PTR _colpix2$187468[ebp]
  025e5	e8 00 00 00 00	 call	 ?GetB@Color@Gdiplus@@QBEEXZ ; Gdiplus::Color::GetB
  025ea	50		 push	 eax
  025eb	8d 8d b4 fe ff
	ff		 lea	 ecx, DWORD PTR _colpix2$187468[ebp]
  025f1	e8 00 00 00 00	 call	 ?GetG@Color@Gdiplus@@QBEEXZ ; Gdiplus::Color::GetG
  025f6	50		 push	 eax
  025f7	8d 8d b4 fe ff
	ff		 lea	 ecx, DWORD PTR _colpix2$187468[ebp]
  025fd	e8 00 00 00 00	 call	 ?GetR@Color@Gdiplus@@QBEEXZ ; Gdiplus::Color::GetR
  02602	50		 push	 eax
  02603	8d 8d b4 fe ff
	ff		 lea	 ecx, DWORD PTR _colpix2$187468[ebp]
  02609	e8 00 00 00 00	 call	 ?GetA@Color@Gdiplus@@QBEEXZ ; Gdiplus::Color::GetA
  0260e	0f b6 c0	 movzx	 eax, al
  02611	99		 cdq
  02612	2b c2		 sub	 eax, edx
  02614	d1 f8		 sar	 eax, 1
  02616	50		 push	 eax
  02617	e8 00 00 00 00	 call	 ?MakeARGB@Color@Gdiplus@@SAKEEEE@Z ; Gdiplus::Color::MakeARGB
  0261c	83 c4 10	 add	 esp, 16			; 00000010H
  0261f	50		 push	 eax
  02620	8d 8d b4 fe ff
	ff		 lea	 ecx, DWORD PTR _colpix2$187468[ebp]
  02626	e8 00 00 00 00	 call	 ?SetValue@Color@Gdiplus@@QAEXK@Z ; Gdiplus::Color::SetValue

; 514  : 			Gdiplus::Pen penPix2( colpix2 );

  0262b	68 00 00 80 3f	 push	 1065353216		; 3f800000H
  02630	8d 8d b4 fe ff
	ff		 lea	 ecx, DWORD PTR _colpix2$187468[ebp]
  02636	51		 push	 ecx
  02637	8d 8d a4 fe ff
	ff		 lea	 ecx, DWORD PTR _penPix2$187469[ebp]
  0263d	e8 00 00 00 00	 call	 ??0Pen@Gdiplus@@QAE@ABVColor@1@M@Z ; Gdiplus::Pen::Pen
  02642	c6 45 fc 09	 mov	 BYTE PTR __$EHRec$[ebp+8], 9

; 515  : 			gdi.DrawLine( &penPix2, rect2.left, rect2.top, rect2.left+1, rect2.top );

  02646	8b 95 d4 fe ff
	ff		 mov	 edx, DWORD PTR _rect2$187463[ebp+4]
  0264c	52		 push	 edx
  0264d	8b 85 d0 fe ff
	ff		 mov	 eax, DWORD PTR _rect2$187463[ebp]
  02653	83 c0 01	 add	 eax, 1
  02656	50		 push	 eax
  02657	8b 8d d4 fe ff
	ff		 mov	 ecx, DWORD PTR _rect2$187463[ebp+4]
  0265d	51		 push	 ecx
  0265e	8b 95 d0 fe ff
	ff		 mov	 edx, DWORD PTR _rect2$187463[ebp]
  02664	52		 push	 edx
  02665	8d 85 a4 fe ff
	ff		 lea	 eax, DWORD PTR _penPix2$187469[ebp]
  0266b	50		 push	 eax
  0266c	8b 4d 08	 mov	 ecx, DWORD PTR _gdi$[ebp]
  0266f	e8 00 00 00 00	 call	 ?DrawLine@Graphics@Gdiplus@@QAE?AW4Status@2@PBVPen@2@HHHH@Z ; Gdiplus::Graphics::DrawLine

; 516  : 			gdi.DrawLine( &penPix2, rect2.right-1, rect2.top, rect2.right-1, rect2.top+1 );

  02674	8b 8d d4 fe ff
	ff		 mov	 ecx, DWORD PTR _rect2$187463[ebp+4]
  0267a	83 c1 01	 add	 ecx, 1
  0267d	51		 push	 ecx
  0267e	8b 95 d8 fe ff
	ff		 mov	 edx, DWORD PTR _rect2$187463[ebp+8]
  02684	83 ea 01	 sub	 edx, 1
  02687	52		 push	 edx
  02688	8b 85 d4 fe ff
	ff		 mov	 eax, DWORD PTR _rect2$187463[ebp+4]
  0268e	50		 push	 eax
  0268f	8b 8d d8 fe ff
	ff		 mov	 ecx, DWORD PTR _rect2$187463[ebp+8]
  02695	83 e9 01	 sub	 ecx, 1
  02698	51		 push	 ecx
  02699	8d 95 a4 fe ff
	ff		 lea	 edx, DWORD PTR _penPix2$187469[ebp]
  0269f	52		 push	 edx
  026a0	8b 4d 08	 mov	 ecx, DWORD PTR _gdi$[ebp]
  026a3	e8 00 00 00 00	 call	 ?DrawLine@Graphics@Gdiplus@@QAE?AW4Status@2@PBVPen@2@HHHH@Z ; Gdiplus::Graphics::DrawLine

; 517  : 			gdi.DrawLine( &penPix2, rect2.right-1, rect2.bottom-1, rect2.right-2, rect2.bottom-1 );

  026a8	8b 85 dc fe ff
	ff		 mov	 eax, DWORD PTR _rect2$187463[ebp+12]
  026ae	83 e8 01	 sub	 eax, 1
  026b1	50		 push	 eax
  026b2	8b 8d d8 fe ff
	ff		 mov	 ecx, DWORD PTR _rect2$187463[ebp+8]
  026b8	83 e9 02	 sub	 ecx, 2
  026bb	51		 push	 ecx
  026bc	8b 95 dc fe ff
	ff		 mov	 edx, DWORD PTR _rect2$187463[ebp+12]
  026c2	83 ea 01	 sub	 edx, 1
  026c5	52		 push	 edx
  026c6	8b 85 d8 fe ff
	ff		 mov	 eax, DWORD PTR _rect2$187463[ebp+8]
  026cc	83 e8 01	 sub	 eax, 1
  026cf	50		 push	 eax
  026d0	8d 8d a4 fe ff
	ff		 lea	 ecx, DWORD PTR _penPix2$187469[ebp]
  026d6	51		 push	 ecx
  026d7	8b 4d 08	 mov	 ecx, DWORD PTR _gdi$[ebp]
  026da	e8 00 00 00 00	 call	 ?DrawLine@Graphics@Gdiplus@@QAE?AW4Status@2@PBVPen@2@HHHH@Z ; Gdiplus::Graphics::DrawLine

; 518  : 			gdi.DrawLine( &penPix2, rect2.left,  rect2.bottom-1, rect2.left+1,  rect2.bottom-1 );

  026df	8b 95 dc fe ff
	ff		 mov	 edx, DWORD PTR _rect2$187463[ebp+12]
  026e5	83 ea 01	 sub	 edx, 1
  026e8	52		 push	 edx
  026e9	8b 85 d0 fe ff
	ff		 mov	 eax, DWORD PTR _rect2$187463[ebp]
  026ef	83 c0 01	 add	 eax, 1
  026f2	50		 push	 eax
  026f3	8b 8d dc fe ff
	ff		 mov	 ecx, DWORD PTR _rect2$187463[ebp+12]
  026f9	83 e9 01	 sub	 ecx, 1
  026fc	51		 push	 ecx
  026fd	8b 95 d0 fe ff
	ff		 mov	 edx, DWORD PTR _rect2$187463[ebp]
  02703	52		 push	 edx
  02704	8d 85 a4 fe ff
	ff		 lea	 eax, DWORD PTR _penPix2$187469[ebp]
  0270a	50		 push	 eax
  0270b	8b 4d 08	 mov	 ecx, DWORD PTR _gdi$[ebp]
  0270e	e8 00 00 00 00	 call	 ?DrawLine@Graphics@Gdiplus@@QAE?AW4Status@2@PBVPen@2@HHHH@Z ; Gdiplus::Graphics::DrawLine

; 519  : 		}

  02713	c6 45 fc 08	 mov	 BYTE PTR __$EHRec$[ebp+8], 8
  02717	8d 8d a4 fe ff
	ff		 lea	 ecx, DWORD PTR _penPix2$187469[ebp]
  0271d	e8 00 00 00 00	 call	 ??1Pen@Gdiplus@@QAE@XZ	; Gdiplus::Pen::~Pen
  02722	c6 45 fc 07	 mov	 BYTE PTR __$EHRec$[ebp+8], 7
  02726	8d 8d c0 fe ff
	ff		 lea	 ecx, DWORD PTR _pen2$187465[ebp]
  0272c	e8 00 00 00 00	 call	 ??1Pen@Gdiplus@@QAE@XZ	; Gdiplus::Pen::~Pen
$L187464:

; 520  : 
; 521  : 	/*	if( m_bMouseDown )
; 522  : 		{
; 523  : 			Gdiplus::RectF rc( rect2.left, rect2.top, rect2.Width(), rect2.Height()/3 );
; 524  : 			Gdiplus::Color colBrush1,colBrush2;
; 525  : 			colBrush1.SetValue( Gdiplus::Color::MakeARGB(15,1,1,1)  );
; 526  : 			colBrush2.SetValue( Gdiplus::Color::MakeARGB(0,1,1,1)  );
; 527  : 
; 528  : 			LinearGradientBrush brush( rc, colBrush1, colBrush2,LinearGradientModeVertical );
; 529  : 			gdi.FillRectangle( &brush, rc );
; 530  : 		}
; 531  : 		else
; 532  : 		{
; 533  : 			Gdiplus::RectF rc( rect2.left, rect2.top, rect2.Width(), rect2.Height()/2 );
; 534  : 			rc.Inflate(-1,-1);
; 535  : 			LinearGradientBrush brush( rc, m_colBrush1, m_colBrush2,LinearGradientModeVertical );
; 536  : 			gdi.FillRectangle( &brush, rc );
; 537  : 		}*/
; 538  : 
; 539  : 		CRect rect3 = rect2;

  02731	8b 8d d0 fe ff
	ff		 mov	 ecx, DWORD PTR _rect2$187463[ebp]
  02737	89 8d 8c fe ff
	ff		 mov	 DWORD PTR _rect3$187470[ebp], ecx
  0273d	8b 95 d4 fe ff
	ff		 mov	 edx, DWORD PTR _rect2$187463[ebp+4]
  02743	89 95 90 fe ff
	ff		 mov	 DWORD PTR _rect3$187470[ebp+4], edx
  02749	8b 85 d8 fe ff
	ff		 mov	 eax, DWORD PTR _rect2$187463[ebp+8]
  0274f	89 85 94 fe ff
	ff		 mov	 DWORD PTR _rect3$187470[ebp+8], eax
  02755	8b 8d dc fe ff
	ff		 mov	 ecx, DWORD PTR _rect2$187463[ebp+12]
  0275b	89 8d 98 fe ff
	ff		 mov	 DWORD PTR _rect3$187470[ebp+12], ecx

; 540  : 		::InflateRect( &rect3, -1,-1 );

  02761	8b f4		 mov	 esi, esp
  02763	6a ff		 push	 -1
  02765	6a ff		 push	 -1
  02767	8d 95 8c fe ff
	ff		 lea	 edx, DWORD PTR _rect3$187470[ebp]
  0276d	52		 push	 edx
  0276e	ff 15 00 00 00
	00		 call	 DWORD PTR __imp__InflateRect@12
  02774	3b f4		 cmp	 esi, esp
  02776	e8 00 00 00 00	 call	 __RTC_CheckEsp

; 541  : 		Gdiplus::RectF rc( rect3.left, rect3.top, rect3.Width(), rect3.Height() );

  0277b	8d 8d 8c fe ff
	ff		 lea	 ecx, DWORD PTR _rect3$187470[ebp]
  02781	e8 00 00 00 00	 call	 ?Height@CRect@@QBEHXZ	; CRect::Height
  02786	89 85 fc fc ff
	ff		 mov	 DWORD PTR tv1449[ebp], eax
  0278c	db 85 fc fc ff
	ff		 fild	 DWORD PTR tv1449[ebp]
  02792	51		 push	 ecx
  02793	d9 1c 24	 fstp	 DWORD PTR [esp]
  02796	8d 8d 8c fe ff
	ff		 lea	 ecx, DWORD PTR _rect3$187470[ebp]
  0279c	e8 00 00 00 00	 call	 ?Width@CRect@@QBEHXZ	; CRect::Width
  027a1	89 85 f8 fc ff
	ff		 mov	 DWORD PTR tv1451[ebp], eax
  027a7	db 85 f8 fc ff
	ff		 fild	 DWORD PTR tv1451[ebp]
  027ad	51		 push	 ecx
  027ae	d9 1c 24	 fstp	 DWORD PTR [esp]
  027b1	db 85 90 fe ff
	ff		 fild	 DWORD PTR _rect3$187470[ebp+4]
  027b7	51		 push	 ecx
  027b8	d9 1c 24	 fstp	 DWORD PTR [esp]
  027bb	db 85 8c fe ff
	ff		 fild	 DWORD PTR _rect3$187470[ebp]
  027c1	51		 push	 ecx
  027c2	d9 1c 24	 fstp	 DWORD PTR [esp]
  027c5	8d 8d 74 fe ff
	ff		 lea	 ecx, DWORD PTR _rc$187471[ebp]
  027cb	e8 00 00 00 00	 call	 ??0RectF@Gdiplus@@QAE@MMMM@Z ; Gdiplus::RectF::RectF

; 542  : 		LinearGradientBrush brush( rc, m_colBK, m_colBK,LinearGradientModeVertical );

  027d0	6a 01		 push	 1
  027d2	8b 45 f0	 mov	 eax, DWORD PTR _this$[ebp]
  027d5	05 6c 01 00 00	 add	 eax, 364		; 0000016cH
  027da	50		 push	 eax
  027db	8b 4d f0	 mov	 ecx, DWORD PTR _this$[ebp]
  027de	81 c1 6c 01 00
	00		 add	 ecx, 364		; 0000016cH
  027e4	51		 push	 ecx
  027e5	8d 95 74 fe ff
	ff		 lea	 edx, DWORD PTR _rc$187471[ebp]
  027eb	52		 push	 edx
  027ec	8d 8d 60 fe ff
	ff		 lea	 ecx, DWORD PTR _brush$187472[ebp]
  027f2	e8 00 00 00 00	 call	 ??0LinearGradientBrush@Gdiplus@@QAE@ABVRectF@1@ABVColor@1@1W4LinearGradientMode@1@@Z ; Gdiplus::LinearGradientBrush::LinearGradientBrush
  027f7	c6 45 fc 0a	 mov	 BYTE PTR __$EHRec$[ebp+8], 10 ; 0000000aH

; 543  : 		gdi.FillRectangle( &brush, rc );

  027fb	8d 85 74 fe ff
	ff		 lea	 eax, DWORD PTR _rc$187471[ebp]
  02801	50		 push	 eax
  02802	8d 8d 60 fe ff
	ff		 lea	 ecx, DWORD PTR _brush$187472[ebp]
  02808	51		 push	 ecx
  02809	8b 4d 08	 mov	 ecx, DWORD PTR _gdi$[ebp]
  0280c	e8 00 00 00 00	 call	 ?FillRectangle@Graphics@Gdiplus@@QAE?AW4Status@2@PBVBrush@2@ABVRectF@2@@Z ; Gdiplus::Graphics::FillRectangle

; 544  : 
; 545  : 		Gdiplus::Color colBlack1 = Gdiplus::Color::MakeARGB(30,50,50,50);

  02811	6a 32		 push	 50			; 00000032H
  02813	6a 32		 push	 50			; 00000032H
  02815	6a 32		 push	 50			; 00000032H
  02817	6a 1e		 push	 30			; 0000001eH
  02819	e8 00 00 00 00	 call	 ?MakeARGB@Color@Gdiplus@@SAKEEEE@Z ; Gdiplus::Color::MakeARGB
  0281e	83 c4 10	 add	 esp, 16			; 00000010H
  02821	50		 push	 eax
  02822	8d 8d 54 fe ff
	ff		 lea	 ecx, DWORD PTR _colBlack1$187473[ebp]
  02828	e8 00 00 00 00	 call	 ??0Color@Gdiplus@@QAE@K@Z ; Gdiplus::Color::Color

; 546  : 		Gdiplus::Color colBlack2 = Gdiplus::Color::MakeARGB(15,50,50,50);

  0282d	6a 32		 push	 50			; 00000032H
  0282f	6a 32		 push	 50			; 00000032H
  02831	6a 32		 push	 50			; 00000032H
  02833	6a 0f		 push	 15			; 0000000fH
  02835	e8 00 00 00 00	 call	 ?MakeARGB@Color@Gdiplus@@SAKEEEE@Z ; Gdiplus::Color::MakeARGB
  0283a	83 c4 10	 add	 esp, 16			; 00000010H
  0283d	50		 push	 eax
  0283e	8d 8d 48 fe ff
	ff		 lea	 ecx, DWORD PTR _colBlack2$187474[ebp]
  02844	e8 00 00 00 00	 call	 ??0Color@Gdiplus@@QAE@K@Z ; Gdiplus::Color::Color

; 547  : 	    Gdiplus::RectF rc1( rect3.left, rect3.top+rect3.Height()/2, rect3.Width(), rect3.Height()/2 );

  02849	8d 8d 8c fe ff
	ff		 lea	 ecx, DWORD PTR _rect3$187470[ebp]
  0284f	e8 00 00 00 00	 call	 ?Height@CRect@@QBEHXZ	; CRect::Height
  02854	99		 cdq
  02855	2b c2		 sub	 eax, edx
  02857	d1 f8		 sar	 eax, 1
  02859	89 85 f4 fc ff
	ff		 mov	 DWORD PTR tv1469[ebp], eax
  0285f	db 85 f4 fc ff
	ff		 fild	 DWORD PTR tv1469[ebp]
  02865	51		 push	 ecx
  02866	d9 1c 24	 fstp	 DWORD PTR [esp]
  02869	8d 8d 8c fe ff
	ff		 lea	 ecx, DWORD PTR _rect3$187470[ebp]
  0286f	e8 00 00 00 00	 call	 ?Width@CRect@@QBEHXZ	; CRect::Width
  02874	89 85 f0 fc ff
	ff		 mov	 DWORD PTR tv1471[ebp], eax
  0287a	db 85 f0 fc ff
	ff		 fild	 DWORD PTR tv1471[ebp]
  02880	51		 push	 ecx
  02881	d9 1c 24	 fstp	 DWORD PTR [esp]
  02884	8d 8d 8c fe ff
	ff		 lea	 ecx, DWORD PTR _rect3$187470[ebp]
  0288a	e8 00 00 00 00	 call	 ?Height@CRect@@QBEHXZ	; CRect::Height
  0288f	99		 cdq
  02890	2b c2		 sub	 eax, edx
  02892	d1 f8		 sar	 eax, 1
  02894	03 85 90 fe ff
	ff		 add	 eax, DWORD PTR _rect3$187470[ebp+4]
  0289a	89 85 ec fc ff
	ff		 mov	 DWORD PTR tv1478[ebp], eax
  028a0	db 85 ec fc ff
	ff		 fild	 DWORD PTR tv1478[ebp]
  028a6	51		 push	 ecx
  028a7	d9 1c 24	 fstp	 DWORD PTR [esp]
  028aa	db 85 8c fe ff
	ff		 fild	 DWORD PTR _rect3$187470[ebp]
  028b0	51		 push	 ecx
  028b1	d9 1c 24	 fstp	 DWORD PTR [esp]
  028b4	8d 8d 30 fe ff
	ff		 lea	 ecx, DWORD PTR _rc1$187475[ebp]
  028ba	e8 00 00 00 00	 call	 ??0RectF@Gdiplus@@QAE@MMMM@Z ; Gdiplus::RectF::RectF

; 548  : 		LinearGradientBrush brush2( rc1, colBlack1, colBlack2,LinearGradientModeVertical );

  028bf	6a 01		 push	 1
  028c1	8d 95 48 fe ff
	ff		 lea	 edx, DWORD PTR _colBlack2$187474[ebp]
  028c7	52		 push	 edx
  028c8	8d 85 54 fe ff
	ff		 lea	 eax, DWORD PTR _colBlack1$187473[ebp]
  028ce	50		 push	 eax
  028cf	8d 8d 30 fe ff
	ff		 lea	 ecx, DWORD PTR _rc1$187475[ebp]
  028d5	51		 push	 ecx
  028d6	8d 8d 1c fe ff
	ff		 lea	 ecx, DWORD PTR _brush2$187476[ebp]
  028dc	e8 00 00 00 00	 call	 ??0LinearGradientBrush@Gdiplus@@QAE@ABVRectF@1@ABVColor@1@1W4LinearGradientMode@1@@Z ; Gdiplus::LinearGradientBrush::LinearGradientBrush
  028e1	c6 45 fc 0b	 mov	 BYTE PTR __$EHRec$[ebp+8], 11 ; 0000000bH

; 549  : 		gdi.FillRectangle( &brush2, rc1 );

  028e5	8d 95 30 fe ff
	ff		 lea	 edx, DWORD PTR _rc1$187475[ebp]
  028eb	52		 push	 edx
  028ec	8d 85 1c fe ff
	ff		 lea	 eax, DWORD PTR _brush2$187476[ebp]
  028f2	50		 push	 eax
  028f3	8b 4d 08	 mov	 ecx, DWORD PTR _gdi$[ebp]
  028f6	e8 00 00 00 00	 call	 ?FillRectangle@Graphics@Gdiplus@@QAE?AW4Status@2@PBVBrush@2@ABVRectF@2@@Z ; Gdiplus::Graphics::FillRectangle

; 550  : 		return;

  028fb	c6 45 fc 0a	 mov	 BYTE PTR __$EHRec$[ebp+8], 10 ; 0000000aH
  028ff	8d 8d 1c fe ff
	ff		 lea	 ecx, DWORD PTR _brush2$187476[ebp]
  02905	e8 00 00 00 00	 call	 ??1LinearGradientBrush@Gdiplus@@UAE@XZ
  0290a	c6 45 fc 07	 mov	 BYTE PTR __$EHRec$[ebp+8], 7
  0290e	8d 8d 60 fe ff
	ff		 lea	 ecx, DWORD PTR _brush$187472[ebp]
  02914	e8 00 00 00 00	 call	 ??1LinearGradientBrush@Gdiplus@@UAE@XZ
  02919	c6 45 fc 06	 mov	 BYTE PTR __$EHRec$[ebp+8], 6
  0291d	8d 8d e8 fe ff
	ff		 lea	 ecx, DWORD PTR _penPix1$187462[ebp]
  02923	e8 00 00 00 00	 call	 ??1Pen@Gdiplus@@QAE@XZ	; Gdiplus::Pen::~Pen
  02928	c7 45 fc ff ff
	ff ff		 mov	 DWORD PTR __$EHRec$[ebp+8], -1
  0292f	8d 8d 04 ff ff
	ff		 lea	 ecx, DWORD PTR _pen1$187460[ebp]
  02935	e8 00 00 00 00	 call	 ??1Pen@Gdiplus@@QAE@XZ	; Gdiplus::Pen::~Pen
  0293a	e9 94 05 00 00	 jmp	 $L187438
$L187458:

; 551  : 	}
; 552  : 	if( m_enmuDrawType == TOP_ARC )

  0293f	8b 4d f0	 mov	 ecx, DWORD PTR _this$[ebp]
  02942	83 79 54 01	 cmp	 DWORD PTR [ecx+84], 1
  02946	0f 85 87 05 00
	00		 jne	 $L187438

; 553  : 	{
; 554  : 		Gdiplus::Pen pen1( m_colFrame1 );

  0294c	68 00 00 80 3f	 push	 1065353216		; 3f800000H
  02951	8b 55 f0	 mov	 edx, DWORD PTR _this$[ebp]
  02954	81 c2 70 01 00
	00		 add	 edx, 368		; 00000170H
  0295a	52		 push	 edx
  0295b	8d 8d 0c fe ff
	ff		 lea	 ecx, DWORD PTR _pen1$187478[ebp]
  02961	e8 00 00 00 00	 call	 ??0Pen@Gdiplus@@QAE@ABVColor@1@M@Z ; Gdiplus::Pen::Pen
  02966	c7 45 fc 0c 00
	00 00		 mov	 DWORD PTR __$EHRec$[ebp+8], 12 ; 0000000cH

; 555  : 		gdi.DrawLine( &pen1, rect.left+5, rect.top, rect.right-7, rect.top );

  0296d	8b 45 0c	 mov	 eax, DWORD PTR _rect$[ebp]
  02970	8b 48 04	 mov	 ecx, DWORD PTR [eax+4]
  02973	51		 push	 ecx
  02974	8b 55 0c	 mov	 edx, DWORD PTR _rect$[ebp]
  02977	8b 42 08	 mov	 eax, DWORD PTR [edx+8]
  0297a	83 e8 07	 sub	 eax, 7
  0297d	50		 push	 eax
  0297e	8b 4d 0c	 mov	 ecx, DWORD PTR _rect$[ebp]
  02981	8b 51 04	 mov	 edx, DWORD PTR [ecx+4]
  02984	52		 push	 edx
  02985	8b 45 0c	 mov	 eax, DWORD PTR _rect$[ebp]
  02988	8b 08		 mov	 ecx, DWORD PTR [eax]
  0298a	83 c1 05	 add	 ecx, 5
  0298d	51		 push	 ecx
  0298e	8d 95 0c fe ff
	ff		 lea	 edx, DWORD PTR _pen1$187478[ebp]
  02994	52		 push	 edx
  02995	8b 4d 08	 mov	 ecx, DWORD PTR _gdi$[ebp]
  02998	e8 00 00 00 00	 call	 ?DrawLine@Graphics@Gdiplus@@QAE?AW4Status@2@PBVPen@2@HHHH@Z ; Gdiplus::Graphics::DrawLine

; 556  : 		gdi.DrawLine( &pen1, rect.left, rect.bottom-1, rect.right, rect.bottom-1 );

  0299d	8b 45 0c	 mov	 eax, DWORD PTR _rect$[ebp]
  029a0	8b 48 0c	 mov	 ecx, DWORD PTR [eax+12]
  029a3	83 e9 01	 sub	 ecx, 1
  029a6	51		 push	 ecx
  029a7	8b 55 0c	 mov	 edx, DWORD PTR _rect$[ebp]
  029aa	8b 42 08	 mov	 eax, DWORD PTR [edx+8]
  029ad	50		 push	 eax
  029ae	8b 4d 0c	 mov	 ecx, DWORD PTR _rect$[ebp]
  029b1	8b 51 0c	 mov	 edx, DWORD PTR [ecx+12]
  029b4	83 ea 01	 sub	 edx, 1
  029b7	52		 push	 edx
  029b8	8b 45 0c	 mov	 eax, DWORD PTR _rect$[ebp]
  029bb	8b 08		 mov	 ecx, DWORD PTR [eax]
  029bd	51		 push	 ecx
  029be	8d 95 0c fe ff
	ff		 lea	 edx, DWORD PTR _pen1$187478[ebp]
  029c4	52		 push	 edx
  029c5	8b 4d 08	 mov	 ecx, DWORD PTR _gdi$[ebp]
  029c8	e8 00 00 00 00	 call	 ?DrawLine@Graphics@Gdiplus@@QAE?AW4Status@2@PBVPen@2@HHHH@Z ; Gdiplus::Graphics::DrawLine

; 557  : 		gdi.DrawLine( &pen1, rect.left, rect.top+5, rect.left, rect.bottom-2 );

  029cd	8b 45 0c	 mov	 eax, DWORD PTR _rect$[ebp]
  029d0	8b 48 0c	 mov	 ecx, DWORD PTR [eax+12]
  029d3	83 e9 02	 sub	 ecx, 2
  029d6	51		 push	 ecx
  029d7	8b 55 0c	 mov	 edx, DWORD PTR _rect$[ebp]
  029da	8b 02		 mov	 eax, DWORD PTR [edx]
  029dc	50		 push	 eax
  029dd	8b 4d 0c	 mov	 ecx, DWORD PTR _rect$[ebp]
  029e0	8b 51 04	 mov	 edx, DWORD PTR [ecx+4]
  029e3	83 c2 05	 add	 edx, 5
  029e6	52		 push	 edx
  029e7	8b 45 0c	 mov	 eax, DWORD PTR _rect$[ebp]
  029ea	8b 08		 mov	 ecx, DWORD PTR [eax]
  029ec	51		 push	 ecx
  029ed	8d 95 0c fe ff
	ff		 lea	 edx, DWORD PTR _pen1$187478[ebp]
  029f3	52		 push	 edx
  029f4	8b 4d 08	 mov	 ecx, DWORD PTR _gdi$[ebp]
  029f7	e8 00 00 00 00	 call	 ?DrawLine@Graphics@Gdiplus@@QAE?AW4Status@2@PBVPen@2@HHHH@Z ; Gdiplus::Graphics::DrawLine

; 558  : 		gdi.DrawLine( &pen1, rect.right-1, rect.top+5, rect.right-1, rect.bottom-2 );

  029fc	8b 45 0c	 mov	 eax, DWORD PTR _rect$[ebp]
  029ff	8b 48 0c	 mov	 ecx, DWORD PTR [eax+12]
  02a02	83 e9 02	 sub	 ecx, 2
  02a05	51		 push	 ecx
  02a06	8b 55 0c	 mov	 edx, DWORD PTR _rect$[ebp]
  02a09	8b 42 08	 mov	 eax, DWORD PTR [edx+8]
  02a0c	83 e8 01	 sub	 eax, 1
  02a0f	50		 push	 eax
  02a10	8b 4d 0c	 mov	 ecx, DWORD PTR _rect$[ebp]
  02a13	8b 51 04	 mov	 edx, DWORD PTR [ecx+4]
  02a16	83 c2 05	 add	 edx, 5
  02a19	52		 push	 edx
  02a1a	8b 45 0c	 mov	 eax, DWORD PTR _rect$[ebp]
  02a1d	8b 48 08	 mov	 ecx, DWORD PTR [eax+8]
  02a20	83 e9 01	 sub	 ecx, 1
  02a23	51		 push	 ecx
  02a24	8d 95 0c fe ff
	ff		 lea	 edx, DWORD PTR _pen1$187478[ebp]
  02a2a	52		 push	 edx
  02a2b	8b 4d 08	 mov	 ecx, DWORD PTR _gdi$[ebp]
  02a2e	e8 00 00 00 00	 call	 ?DrawLine@Graphics@Gdiplus@@QAE?AW4Status@2@PBVPen@2@HHHH@Z ; Gdiplus::Graphics::DrawLine

; 559  : 
; 560  : 		CRect rect2 = rect;

  02a33	8b 45 0c	 mov	 eax, DWORD PTR _rect$[ebp]
  02a36	8b 08		 mov	 ecx, DWORD PTR [eax]
  02a38	89 8d f4 fd ff
	ff		 mov	 DWORD PTR _rect2$187479[ebp], ecx
  02a3e	8b 50 04	 mov	 edx, DWORD PTR [eax+4]
  02a41	89 95 f8 fd ff
	ff		 mov	 DWORD PTR _rect2$187479[ebp+4], edx
  02a47	8b 48 08	 mov	 ecx, DWORD PTR [eax+8]
  02a4a	89 8d fc fd ff
	ff		 mov	 DWORD PTR _rect2$187479[ebp+8], ecx
  02a50	8b 50 0c	 mov	 edx, DWORD PTR [eax+12]
  02a53	89 95 00 fe ff
	ff		 mov	 DWORD PTR _rect2$187479[ebp+12], edx

; 561  : 		::InflateRect( &rect2, -1,-1 );

  02a59	8b f4		 mov	 esi, esp
  02a5b	6a ff		 push	 -1
  02a5d	6a ff		 push	 -1
  02a5f	8d 85 f4 fd ff
	ff		 lea	 eax, DWORD PTR _rect2$187479[ebp]
  02a65	50		 push	 eax
  02a66	ff 15 00 00 00
	00		 call	 DWORD PTR __imp__InflateRect@12
  02a6c	3b f4		 cmp	 esi, esp
  02a6e	e8 00 00 00 00	 call	 __RTC_CheckEsp

; 562  : 		if( !m_bMouseDown )

  02a73	8b 4d f0	 mov	 ecx, DWORD PTR _this$[ebp]
  02a76	83 b9 88 00 00
	00 00		 cmp	 DWORD PTR [ecx+136], 0
  02a7d	0f 85 b7 01 00
	00		 jne	 $L187480

; 563  : 		{
; 564  : 			Gdiplus::Pen pen2(m_colFrame2);

  02a83	68 00 00 80 3f	 push	 1065353216		; 3f800000H
  02a88	8b 55 f0	 mov	 edx, DWORD PTR _this$[ebp]
  02a8b	81 c2 74 01 00
	00		 add	 edx, 372		; 00000174H
  02a91	52		 push	 edx
  02a92	8d 8d e4 fd ff
	ff		 lea	 ecx, DWORD PTR _pen2$187481[ebp]
  02a98	e8 00 00 00 00	 call	 ??0Pen@Gdiplus@@QAE@ABVColor@1@M@Z ; Gdiplus::Pen::Pen
  02a9d	c6 45 fc 0d	 mov	 BYTE PTR __$EHRec$[ebp+8], 13 ; 0000000dH

; 565  : 			gdi.DrawLine( &pen2, rect2.left+4, rect2.top, rect2.right-5, rect2.top );

  02aa1	8b 85 f8 fd ff
	ff		 mov	 eax, DWORD PTR _rect2$187479[ebp+4]
  02aa7	50		 push	 eax
  02aa8	8b 8d fc fd ff
	ff		 mov	 ecx, DWORD PTR _rect2$187479[ebp+8]
  02aae	83 e9 05	 sub	 ecx, 5
  02ab1	51		 push	 ecx
  02ab2	8b 95 f8 fd ff
	ff		 mov	 edx, DWORD PTR _rect2$187479[ebp+4]
  02ab8	52		 push	 edx
  02ab9	8b 85 f4 fd ff
	ff		 mov	 eax, DWORD PTR _rect2$187479[ebp]
  02abf	83 c0 04	 add	 eax, 4
  02ac2	50		 push	 eax
  02ac3	8d 8d e4 fd ff
	ff		 lea	 ecx, DWORD PTR _pen2$187481[ebp]
  02ac9	51		 push	 ecx
  02aca	8b 4d 08	 mov	 ecx, DWORD PTR _gdi$[ebp]
  02acd	e8 00 00 00 00	 call	 ?DrawLine@Graphics@Gdiplus@@QAE?AW4Status@2@PBVPen@2@HHHH@Z ; Gdiplus::Graphics::DrawLine

; 566  : 			gdi.DrawLine( &pen2, rect2.left, rect2.bottom-1, rect2.right-1, rect2.bottom-1 );

  02ad2	8b 95 00 fe ff
	ff		 mov	 edx, DWORD PTR _rect2$187479[ebp+12]
  02ad8	83 ea 01	 sub	 edx, 1
  02adb	52		 push	 edx
  02adc	8b 85 fc fd ff
	ff		 mov	 eax, DWORD PTR _rect2$187479[ebp+8]
  02ae2	83 e8 01	 sub	 eax, 1
  02ae5	50		 push	 eax
  02ae6	8b 8d 00 fe ff
	ff		 mov	 ecx, DWORD PTR _rect2$187479[ebp+12]
  02aec	83 e9 01	 sub	 ecx, 1
  02aef	51		 push	 ecx
  02af0	8b 95 f4 fd ff
	ff		 mov	 edx, DWORD PTR _rect2$187479[ebp]
  02af6	52		 push	 edx
  02af7	8d 85 e4 fd ff
	ff		 lea	 eax, DWORD PTR _pen2$187481[ebp]
  02afd	50		 push	 eax
  02afe	8b 4d 08	 mov	 ecx, DWORD PTR _gdi$[ebp]
  02b01	e8 00 00 00 00	 call	 ?DrawLine@Graphics@Gdiplus@@QAE?AW4Status@2@PBVPen@2@HHHH@Z ; Gdiplus::Graphics::DrawLine

; 567  : 			gdi.DrawLine( &pen2, rect2.left, rect2.top+4, rect2.left, rect2.bottom-2 );

  02b06	8b 8d 00 fe ff
	ff		 mov	 ecx, DWORD PTR _rect2$187479[ebp+12]
  02b0c	83 e9 02	 sub	 ecx, 2
  02b0f	51		 push	 ecx
  02b10	8b 95 f4 fd ff
	ff		 mov	 edx, DWORD PTR _rect2$187479[ebp]
  02b16	52		 push	 edx
  02b17	8b 85 f8 fd ff
	ff		 mov	 eax, DWORD PTR _rect2$187479[ebp+4]
  02b1d	83 c0 04	 add	 eax, 4
  02b20	50		 push	 eax
  02b21	8b 8d f4 fd ff
	ff		 mov	 ecx, DWORD PTR _rect2$187479[ebp]
  02b27	51		 push	 ecx
  02b28	8d 95 e4 fd ff
	ff		 lea	 edx, DWORD PTR _pen2$187481[ebp]
  02b2e	52		 push	 edx
  02b2f	8b 4d 08	 mov	 ecx, DWORD PTR _gdi$[ebp]
  02b32	e8 00 00 00 00	 call	 ?DrawLine@Graphics@Gdiplus@@QAE?AW4Status@2@PBVPen@2@HHHH@Z ; Gdiplus::Graphics::DrawLine

; 568  : 			gdi.DrawLine( &pen2, rect2.right-1, rect2.top+4, rect2.right-1, rect2.bottom-2 );

  02b37	8b 85 00 fe ff
	ff		 mov	 eax, DWORD PTR _rect2$187479[ebp+12]
  02b3d	83 e8 02	 sub	 eax, 2
  02b40	50		 push	 eax
  02b41	8b 8d fc fd ff
	ff		 mov	 ecx, DWORD PTR _rect2$187479[ebp+8]
  02b47	83 e9 01	 sub	 ecx, 1
  02b4a	51		 push	 ecx
  02b4b	8b 95 f8 fd ff
	ff		 mov	 edx, DWORD PTR _rect2$187479[ebp+4]
  02b51	83 c2 04	 add	 edx, 4
  02b54	52		 push	 edx
  02b55	8b 85 fc fd ff
	ff		 mov	 eax, DWORD PTR _rect2$187479[ebp+8]
  02b5b	83 e8 01	 sub	 eax, 1
  02b5e	50		 push	 eax
  02b5f	8d 8d e4 fd ff
	ff		 lea	 ecx, DWORD PTR _pen2$187481[ebp]
  02b65	51		 push	 ecx
  02b66	8b 4d 08	 mov	 ecx, DWORD PTR _gdi$[ebp]
  02b69	e8 00 00 00 00	 call	 ?DrawLine@Graphics@Gdiplus@@QAE?AW4Status@2@PBVPen@2@HHHH@Z ; Gdiplus::Graphics::DrawLine

; 569  : 
; 570  : 			Gdiplus::RectF rectLeftTop2;

  02b6e	8d 8d cc fd ff
	ff		 lea	 ecx, DWORD PTR _rectLeftTop2$187482[ebp]
  02b74	e8 00 00 00 00	 call	 ??0RectF@Gdiplus@@QAE@XZ ; Gdiplus::RectF::RectF

; 571  : 			rectLeftTop2.X = rect2.left;

  02b79	db 85 f4 fd ff
	ff		 fild	 DWORD PTR _rect2$187479[ebp]
  02b7f	d9 9d cc fd ff
	ff		 fstp	 DWORD PTR _rectLeftTop2$187482[ebp]

; 572  : 			rectLeftTop2.Y  = rect2.top;

  02b85	db 85 f8 fd ff
	ff		 fild	 DWORD PTR _rect2$187479[ebp+4]
  02b8b	d9 9d d0 fd ff
	ff		 fstp	 DWORD PTR _rectLeftTop2$187482[ebp+4]

; 573  : 			rectLeftTop2.Width = 6;

  02b91	c7 85 d4 fd ff
	ff 00 00 c0 40	 mov	 DWORD PTR _rectLeftTop2$187482[ebp+8], 1086324736 ; 40c00000H

; 574  : 			rectLeftTop2.Height  = 6;

  02b9b	c7 85 d8 fd ff
	ff 00 00 c0 40	 mov	 DWORD PTR _rectLeftTop2$187482[ebp+12], 1086324736 ; 40c00000H

; 575  : 			gdi.DrawArc(  &pen2, rectLeftTop2,180,90 );

  02ba5	68 00 00 b4 42	 push	 1119092736		; 42b40000H
  02baa	68 00 00 34 43	 push	 1127481344		; 43340000H
  02baf	8d 95 cc fd ff
	ff		 lea	 edx, DWORD PTR _rectLeftTop2$187482[ebp]
  02bb5	52		 push	 edx
  02bb6	8d 85 e4 fd ff
	ff		 lea	 eax, DWORD PTR _pen2$187481[ebp]
  02bbc	50		 push	 eax
  02bbd	8b 4d 08	 mov	 ecx, DWORD PTR _gdi$[ebp]
  02bc0	e8 00 00 00 00	 call	 ?DrawArc@Graphics@Gdiplus@@QAE?AW4Status@2@PBVPen@2@ABVRectF@2@MM@Z ; Gdiplus::Graphics::DrawArc

; 576  : 
; 577  : 			Gdiplus::RectF rectRightTop2;

  02bc5	8d 8d b4 fd ff
	ff		 lea	 ecx, DWORD PTR _rectRightTop2$187483[ebp]
  02bcb	e8 00 00 00 00	 call	 ??0RectF@Gdiplus@@QAE@XZ ; Gdiplus::RectF::RectF

; 578  : 			rectRightTop2.X = rect2.right-7;

  02bd0	8b 8d fc fd ff
	ff		 mov	 ecx, DWORD PTR _rect2$187479[ebp+8]
  02bd6	83 e9 07	 sub	 ecx, 7
  02bd9	89 8d e8 fc ff
	ff		 mov	 DWORD PTR tv1559[ebp], ecx
  02bdf	db 85 e8 fc ff
	ff		 fild	 DWORD PTR tv1559[ebp]
  02be5	d9 9d b4 fd ff
	ff		 fstp	 DWORD PTR _rectRightTop2$187483[ebp]

; 579  : 			rectRightTop2.Y  = rect2.top;

  02beb	db 85 f8 fd ff
	ff		 fild	 DWORD PTR _rect2$187479[ebp+4]
  02bf1	d9 9d b8 fd ff
	ff		 fstp	 DWORD PTR _rectRightTop2$187483[ebp+4]

; 580  : 			rectRightTop2.Width = 6;

  02bf7	c7 85 bc fd ff
	ff 00 00 c0 40	 mov	 DWORD PTR _rectRightTop2$187483[ebp+8], 1086324736 ; 40c00000H

; 581  : 			rectRightTop2.Height  = 6;

  02c01	c7 85 c0 fd ff
	ff 00 00 c0 40	 mov	 DWORD PTR _rectRightTop2$187483[ebp+12], 1086324736 ; 40c00000H

; 582  : 			gdi.DrawArc(  &pen2, rectRightTop2,270,90 );

  02c0b	68 00 00 b4 42	 push	 1119092736		; 42b40000H
  02c10	68 00 00 87 43	 push	 1132920832		; 43870000H
  02c15	8d 95 b4 fd ff
	ff		 lea	 edx, DWORD PTR _rectRightTop2$187483[ebp]
  02c1b	52		 push	 edx
  02c1c	8d 85 e4 fd ff
	ff		 lea	 eax, DWORD PTR _pen2$187481[ebp]
  02c22	50		 push	 eax
  02c23	8b 4d 08	 mov	 ecx, DWORD PTR _gdi$[ebp]
  02c26	e8 00 00 00 00	 call	 ?DrawArc@Graphics@Gdiplus@@QAE?AW4Status@2@PBVPen@2@ABVRectF@2@MM@Z ; Gdiplus::Graphics::DrawArc

; 583  : 		}

  02c2b	c6 45 fc 0c	 mov	 BYTE PTR __$EHRec$[ebp+8], 12 ; 0000000cH
  02c2f	8d 8d e4 fd ff
	ff		 lea	 ecx, DWORD PTR _pen2$187481[ebp]
  02c35	e8 00 00 00 00	 call	 ??1Pen@Gdiplus@@QAE@XZ	; Gdiplus::Pen::~Pen
$L187480:

; 584  : 
; 585  : 		Gdiplus::RectF rectLeftTop;

  02c3a	8d 8d 9c fd ff
	ff		 lea	 ecx, DWORD PTR _rectLeftTop$187484[ebp]
  02c40	e8 00 00 00 00	 call	 ??0RectF@Gdiplus@@QAE@XZ ; Gdiplus::RectF::RectF

; 586  : 		rectLeftTop.X = rect.left;

  02c45	8b 4d 0c	 mov	 ecx, DWORD PTR _rect$[ebp]
  02c48	db 01		 fild	 DWORD PTR [ecx]
  02c4a	d9 9d 9c fd ff
	ff		 fstp	 DWORD PTR _rectLeftTop$187484[ebp]

; 587  : 		rectLeftTop.Y  = rect.top;

  02c50	8b 55 0c	 mov	 edx, DWORD PTR _rect$[ebp]
  02c53	db 42 04	 fild	 DWORD PTR [edx+4]
  02c56	d9 9d a0 fd ff
	ff		 fstp	 DWORD PTR _rectLeftTop$187484[ebp+4]

; 588  : 		rectLeftTop.Width = 9;

  02c5c	c7 85 a4 fd ff
	ff 00 00 10 41	 mov	 DWORD PTR _rectLeftTop$187484[ebp+8], 1091567616 ; 41100000H

; 589  : 		rectLeftTop.Height  = 9;

  02c66	c7 85 a8 fd ff
	ff 00 00 10 41	 mov	 DWORD PTR _rectLeftTop$187484[ebp+12], 1091567616 ; 41100000H

; 590  : 		gdi.DrawArc(  &pen1, rectLeftTop,180,90 );

  02c70	68 00 00 b4 42	 push	 1119092736		; 42b40000H
  02c75	68 00 00 34 43	 push	 1127481344		; 43340000H
  02c7a	8d 85 9c fd ff
	ff		 lea	 eax, DWORD PTR _rectLeftTop$187484[ebp]
  02c80	50		 push	 eax
  02c81	8d 8d 0c fe ff
	ff		 lea	 ecx, DWORD PTR _pen1$187478[ebp]
  02c87	51		 push	 ecx
  02c88	8b 4d 08	 mov	 ecx, DWORD PTR _gdi$[ebp]
  02c8b	e8 00 00 00 00	 call	 ?DrawArc@Graphics@Gdiplus@@QAE?AW4Status@2@PBVPen@2@ABVRectF@2@MM@Z ; Gdiplus::Graphics::DrawArc

; 591  : 
; 592  : 		Gdiplus::RectF rectRightTop;

  02c90	8d 8d 84 fd ff
	ff		 lea	 ecx, DWORD PTR _rectRightTop$187485[ebp]
  02c96	e8 00 00 00 00	 call	 ??0RectF@Gdiplus@@QAE@XZ ; Gdiplus::RectF::RectF

; 593  : 		rectRightTop.X = rect.right-10;

  02c9b	8b 55 0c	 mov	 edx, DWORD PTR _rect$[ebp]
  02c9e	8b 42 08	 mov	 eax, DWORD PTR [edx+8]
  02ca1	83 e8 0a	 sub	 eax, 10			; 0000000aH
  02ca4	89 85 e4 fc ff
	ff		 mov	 DWORD PTR tv1571[ebp], eax
  02caa	db 85 e4 fc ff
	ff		 fild	 DWORD PTR tv1571[ebp]
  02cb0	d9 9d 84 fd ff
	ff		 fstp	 DWORD PTR _rectRightTop$187485[ebp]

; 594  : 		rectRightTop.Y  = rect.top;

  02cb6	8b 4d 0c	 mov	 ecx, DWORD PTR _rect$[ebp]
  02cb9	db 41 04	 fild	 DWORD PTR [ecx+4]
  02cbc	d9 9d 88 fd ff
	ff		 fstp	 DWORD PTR _rectRightTop$187485[ebp+4]

; 595  : 		rectRightTop.Width = 9;

  02cc2	c7 85 8c fd ff
	ff 00 00 10 41	 mov	 DWORD PTR _rectRightTop$187485[ebp+8], 1091567616 ; 41100000H

; 596  : 		rectRightTop.Height  = 9;

  02ccc	c7 85 90 fd ff
	ff 00 00 10 41	 mov	 DWORD PTR _rectRightTop$187485[ebp+12], 1091567616 ; 41100000H

; 597  : 		gdi.DrawArc(  &pen1, rectRightTop,270,90 );

  02cd6	68 00 00 b4 42	 push	 1119092736		; 42b40000H
  02cdb	68 00 00 87 43	 push	 1132920832		; 43870000H
  02ce0	8d 95 84 fd ff
	ff		 lea	 edx, DWORD PTR _rectRightTop$187485[ebp]
  02ce6	52		 push	 edx
  02ce7	8d 85 0c fe ff
	ff		 lea	 eax, DWORD PTR _pen1$187478[ebp]
  02ced	50		 push	 eax
  02cee	8b 4d 08	 mov	 ecx, DWORD PTR _gdi$[ebp]
  02cf1	e8 00 00 00 00	 call	 ?DrawArc@Graphics@Gdiplus@@QAE?AW4Status@2@PBVPen@2@ABVRectF@2@MM@Z ; Gdiplus::Graphics::DrawArc

; 598  : 
; 599  : 		/*Gdiplus::SolidBrush sb( m_colBrush );
; 600  : 		Gdiplus::Brush *pbrush = sb.Clone();*/
; 601  : 		if( m_bMouseDown )

  02cf6	8b 4d f0	 mov	 ecx, DWORD PTR _this$[ebp]
  02cf9	83 b9 88 00 00
	00 00		 cmp	 DWORD PTR [ecx+136], 0
  02d00	0f 84 fb 00 00
	00		 je	 $L187486

; 602  : 		{
; 603  : 			Gdiplus::RectF rc( rect2.left, rect2.top, rect2.Width(), rect2.Height()/3 );

  02d06	8d 8d f4 fd ff
	ff		 lea	 ecx, DWORD PTR _rect2$187479[ebp]
  02d0c	e8 00 00 00 00	 call	 ?Height@CRect@@QBEHXZ	; CRect::Height
  02d11	99		 cdq
  02d12	b9 03 00 00 00	 mov	 ecx, 3
  02d17	f7 f9		 idiv	 ecx
  02d19	89 85 e0 fc ff
	ff		 mov	 DWORD PTR tv1584[ebp], eax
  02d1f	db 85 e0 fc ff
	ff		 fild	 DWORD PTR tv1584[ebp]
  02d25	51		 push	 ecx
  02d26	d9 1c 24	 fstp	 DWORD PTR [esp]
  02d29	8d 8d f4 fd ff
	ff		 lea	 ecx, DWORD PTR _rect2$187479[ebp]
  02d2f	e8 00 00 00 00	 call	 ?Width@CRect@@QBEHXZ	; CRect::Width
  02d34	89 85 dc fc ff
	ff		 mov	 DWORD PTR tv1586[ebp], eax
  02d3a	db 85 dc fc ff
	ff		 fild	 DWORD PTR tv1586[ebp]
  02d40	51		 push	 ecx
  02d41	d9 1c 24	 fstp	 DWORD PTR [esp]
  02d44	db 85 f8 fd ff
	ff		 fild	 DWORD PTR _rect2$187479[ebp+4]
  02d4a	51		 push	 ecx
  02d4b	d9 1c 24	 fstp	 DWORD PTR [esp]
  02d4e	db 85 f4 fd ff
	ff		 fild	 DWORD PTR _rect2$187479[ebp]
  02d54	51		 push	 ecx
  02d55	d9 1c 24	 fstp	 DWORD PTR [esp]
  02d58	8d 8d 6c fd ff
	ff		 lea	 ecx, DWORD PTR _rc$187487[ebp]
  02d5e	e8 00 00 00 00	 call	 ??0RectF@Gdiplus@@QAE@MMMM@Z ; Gdiplus::RectF::RectF

; 604  : 			Gdiplus::Color colBrush1,colBrush2;

  02d63	8d 8d 60 fd ff
	ff		 lea	 ecx, DWORD PTR _colBrush1$187488[ebp]
  02d69	e8 00 00 00 00	 call	 ??0Color@Gdiplus@@QAE@XZ ; Gdiplus::Color::Color
  02d6e	8d 8d 54 fd ff
	ff		 lea	 ecx, DWORD PTR _colBrush2$187489[ebp]
  02d74	e8 00 00 00 00	 call	 ??0Color@Gdiplus@@QAE@XZ ; Gdiplus::Color::Color

; 605  : 			colBrush1.SetValue( Gdiplus::Color::MakeARGB(15,1,1,1)  );

  02d79	6a 01		 push	 1
  02d7b	6a 01		 push	 1
  02d7d	6a 01		 push	 1
  02d7f	6a 0f		 push	 15			; 0000000fH
  02d81	e8 00 00 00 00	 call	 ?MakeARGB@Color@Gdiplus@@SAKEEEE@Z ; Gdiplus::Color::MakeARGB
  02d86	83 c4 10	 add	 esp, 16			; 00000010H
  02d89	50		 push	 eax
  02d8a	8d 8d 60 fd ff
	ff		 lea	 ecx, DWORD PTR _colBrush1$187488[ebp]
  02d90	e8 00 00 00 00	 call	 ?SetValue@Color@Gdiplus@@QAEXK@Z ; Gdiplus::Color::SetValue

; 606  : 			colBrush2.SetValue( Gdiplus::Color::MakeARGB(0,1,1,1)  );

  02d95	6a 01		 push	 1
  02d97	6a 01		 push	 1
  02d99	6a 01		 push	 1
  02d9b	6a 00		 push	 0
  02d9d	e8 00 00 00 00	 call	 ?MakeARGB@Color@Gdiplus@@SAKEEEE@Z ; Gdiplus::Color::MakeARGB
  02da2	83 c4 10	 add	 esp, 16			; 00000010H
  02da5	50		 push	 eax
  02da6	8d 8d 54 fd ff
	ff		 lea	 ecx, DWORD PTR _colBrush2$187489[ebp]
  02dac	e8 00 00 00 00	 call	 ?SetValue@Color@Gdiplus@@QAEXK@Z ; Gdiplus::Color::SetValue

; 607  : 
; 608  : 			LinearGradientBrush brush( rc, colBrush1, colBrush2,LinearGradientModeVertical );

  02db1	6a 01		 push	 1
  02db3	8d 95 54 fd ff
	ff		 lea	 edx, DWORD PTR _colBrush2$187489[ebp]
  02db9	52		 push	 edx
  02dba	8d 85 60 fd ff
	ff		 lea	 eax, DWORD PTR _colBrush1$187488[ebp]
  02dc0	50		 push	 eax
  02dc1	8d 8d 6c fd ff
	ff		 lea	 ecx, DWORD PTR _rc$187487[ebp]
  02dc7	51		 push	 ecx
  02dc8	8d 8d 40 fd ff
	ff		 lea	 ecx, DWORD PTR _brush$187490[ebp]
  02dce	e8 00 00 00 00	 call	 ??0LinearGradientBrush@Gdiplus@@QAE@ABVRectF@1@ABVColor@1@1W4LinearGradientMode@1@@Z ; Gdiplus::LinearGradientBrush::LinearGradientBrush
  02dd3	c6 45 fc 0e	 mov	 BYTE PTR __$EHRec$[ebp+8], 14 ; 0000000eH

; 609  : 			gdi.FillRectangle( &brush, rc );

  02dd7	8d 95 6c fd ff
	ff		 lea	 edx, DWORD PTR _rc$187487[ebp]
  02ddd	52		 push	 edx
  02dde	8d 85 40 fd ff
	ff		 lea	 eax, DWORD PTR _brush$187490[ebp]
  02de4	50		 push	 eax
  02de5	8b 4d 08	 mov	 ecx, DWORD PTR _gdi$[ebp]
  02de8	e8 00 00 00 00	 call	 ?FillRectangle@Graphics@Gdiplus@@QAE?AW4Status@2@PBVBrush@2@ABVRectF@2@@Z ; Gdiplus::Graphics::FillRectangle

; 610  : 		}

  02ded	c6 45 fc 0c	 mov	 BYTE PTR __$EHRec$[ebp+8], 12 ; 0000000cH
  02df1	8d 8d 40 fd ff
	ff		 lea	 ecx, DWORD PTR _brush$187490[ebp]
  02df7	e8 00 00 00 00	 call	 ??1LinearGradientBrush@Gdiplus@@UAE@XZ

; 611  : 		else

  02dfc	e9 c0 00 00 00	 jmp	 $L187491
$L187486:

; 612  : 		{
; 613  : 			Gdiplus::RectF rc( rect2.left, rect2.top, rect2.Width(), rect2.Height()/2 );

  02e01	8d 8d f4 fd ff
	ff		 lea	 ecx, DWORD PTR _rect2$187479[ebp]
  02e07	e8 00 00 00 00	 call	 ?Height@CRect@@QBEHXZ	; CRect::Height
  02e0c	99		 cdq
  02e0d	2b c2		 sub	 eax, edx
  02e0f	d1 f8		 sar	 eax, 1
  02e11	89 85 d8 fc ff
	ff		 mov	 DWORD PTR tv1604[ebp], eax
  02e17	db 85 d8 fc ff
	ff		 fild	 DWORD PTR tv1604[ebp]
  02e1d	51		 push	 ecx
  02e1e	d9 1c 24	 fstp	 DWORD PTR [esp]
  02e21	8d 8d f4 fd ff
	ff		 lea	 ecx, DWORD PTR _rect2$187479[ebp]
  02e27	e8 00 00 00 00	 call	 ?Width@CRect@@QBEHXZ	; CRect::Width
  02e2c	89 85 d4 fc ff
	ff		 mov	 DWORD PTR tv1606[ebp], eax
  02e32	db 85 d4 fc ff
	ff		 fild	 DWORD PTR tv1606[ebp]
  02e38	51		 push	 ecx
  02e39	d9 1c 24	 fstp	 DWORD PTR [esp]
  02e3c	db 85 f8 fd ff
	ff		 fild	 DWORD PTR _rect2$187479[ebp+4]
  02e42	51		 push	 ecx
  02e43	d9 1c 24	 fstp	 DWORD PTR [esp]
  02e46	db 85 f4 fd ff
	ff		 fild	 DWORD PTR _rect2$187479[ebp]
  02e4c	51		 push	 ecx
  02e4d	d9 1c 24	 fstp	 DWORD PTR [esp]
  02e50	8d 8d 28 fd ff
	ff		 lea	 ecx, DWORD PTR _rc$187492[ebp]
  02e56	e8 00 00 00 00	 call	 ??0RectF@Gdiplus@@QAE@MMMM@Z ; Gdiplus::RectF::RectF

; 614  : 			rc.Inflate(-1,-1);

  02e5b	68 00 00 80 bf	 push	 -1082130432		; bf800000H
  02e60	68 00 00 80 bf	 push	 -1082130432		; bf800000H
  02e65	8d 8d 28 fd ff
	ff		 lea	 ecx, DWORD PTR _rc$187492[ebp]
  02e6b	e8 00 00 00 00	 call	 ?Inflate@RectF@Gdiplus@@QAEXMM@Z ; Gdiplus::RectF::Inflate

; 615  : 			LinearGradientBrush brush( rc, m_colBrush1, m_colBrush2,LinearGradientModeVertical );

  02e70	6a 01		 push	 1
  02e72	8b 4d f0	 mov	 ecx, DWORD PTR _this$[ebp]
  02e75	81 c1 7c 01 00
	00		 add	 ecx, 380		; 0000017cH
  02e7b	51		 push	 ecx
  02e7c	8b 55 f0	 mov	 edx, DWORD PTR _this$[ebp]
  02e7f	81 c2 78 01 00
	00		 add	 edx, 376		; 00000178H
  02e85	52		 push	 edx
  02e86	8d 85 28 fd ff
	ff		 lea	 eax, DWORD PTR _rc$187492[ebp]
  02e8c	50		 push	 eax
  02e8d	8d 8d 14 fd ff
	ff		 lea	 ecx, DWORD PTR _brush$187493[ebp]
  02e93	e8 00 00 00 00	 call	 ??0LinearGradientBrush@Gdiplus@@QAE@ABVRectF@1@ABVColor@1@1W4LinearGradientMode@1@@Z ; Gdiplus::LinearGradientBrush::LinearGradientBrush
  02e98	c6 45 fc 0f	 mov	 BYTE PTR __$EHRec$[ebp+8], 15 ; 0000000fH

; 616  : 			gdi.FillRectangle( &brush, rc );

  02e9c	8d 8d 28 fd ff
	ff		 lea	 ecx, DWORD PTR _rc$187492[ebp]
  02ea2	51		 push	 ecx
  02ea3	8d 95 14 fd ff
	ff		 lea	 edx, DWORD PTR _brush$187493[ebp]
  02ea9	52		 push	 edx
  02eaa	8b 4d 08	 mov	 ecx, DWORD PTR _gdi$[ebp]
  02ead	e8 00 00 00 00	 call	 ?FillRectangle@Graphics@Gdiplus@@QAE?AW4Status@2@PBVBrush@2@ABVRectF@2@@Z ; Gdiplus::Graphics::FillRectangle

; 617  : 		}

  02eb2	c6 45 fc 0c	 mov	 BYTE PTR __$EHRec$[ebp+8], 12 ; 0000000cH
  02eb6	8d 8d 14 fd ff
	ff		 lea	 ecx, DWORD PTR _brush$187493[ebp]
  02ebc	e8 00 00 00 00	 call	 ??1LinearGradientBrush@Gdiplus@@UAE@XZ
$L187491:

; 618  : 	}

  02ec1	c7 45 fc ff ff
	ff ff		 mov	 DWORD PTR __$EHRec$[ebp+8], -1
  02ec8	8d 8d 0c fe ff
	ff		 lea	 ecx, DWORD PTR _pen1$187478[ebp]
  02ece	e8 00 00 00 00	 call	 ??1Pen@Gdiplus@@QAE@XZ	; Gdiplus::Pen::~Pen
$L187438:

; 619  : 	else if( m_enmuDrawType == BOTTON_ARC )
; 620  : 	{
; 621  : 	}
; 622  : 	else if( m_enmuDrawType == RIGHT_ARC )
; 623  : 	{
; 624  : 	}
; 625  : 	else if( m_enmuDrawType == LEFT_ARC )
; 626  : 	{
; 627  : 	}
; 628  : 	else if( m_enmuDrawType & (TOP_ARC|BOTTON_ARC) || m_enmuDrawType & (RIGHT_ARC|LEFT_ARC) )
; 629  : 	{
; 630  : 		// 
; 631  : 	}
; 632  : 
; 633  : 	//gdi.DrawString(
; 634  : }

  02ed3	52		 push	 edx
  02ed4	8b cd		 mov	 ecx, ebp
  02ed6	50		 push	 eax
  02ed7	8d 15 00 00 00
	00		 lea	 edx, DWORD PTR $L188452
  02edd	e8 00 00 00 00	 call	 @_RTC_CheckStackVars@8
  02ee2	58		 pop	 eax
  02ee3	5a		 pop	 edx
  02ee4	8b 4d f4	 mov	 ecx, DWORD PTR __$EHRec$[ebp]
  02ee7	64 89 0d 00 00
	00 00		 mov	 DWORD PTR fs:__except_list, ecx
  02eee	5f		 pop	 edi
  02eef	5e		 pop	 esi
  02ef0	81 c4 2c 03 00
	00		 add	 esp, 812		; 0000032cH
  02ef6	3b ec		 cmp	 ebp, esp
  02ef8	e8 00 00 00 00	 call	 __RTC_CheckEsp
  02efd	8b e5		 mov	 esp, ebp
  02eff	5d		 pop	 ebp
  02f00	c2 08 00	 ret	 8
$L188452:
  02f03	28 00 00 00	 DD	 40			; 00000028H
  02f07	00 00 00 00	 DD	 $L188451
$L188451:
  02f0b	e4 ff ff ff	 DD	 -28			; ffffffe4H
  02f0f	08 00 00 00	 DD	 8
  02f13	00 00 00 00	 DD	 $L188410
  02f17	d8 ff ff ff	 DD	 -40			; ffffffd8H
  02f1b	04 00 00 00	 DD	 4
  02f1f	00 00 00 00	 DD	 $L188411
  02f23	c8 ff ff ff	 DD	 -56			; ffffffc8H
  02f27	08 00 00 00	 DD	 8
  02f2b	00 00 00 00	 DD	 $L188412
  02f2f	b0 ff ff ff	 DD	 -80			; ffffffb0H
  02f33	10 00 00 00	 DD	 16			; 00000010H
  02f37	00 00 00 00	 DD	 $L188413
  02f3b	a0 ff ff ff	 DD	 -96			; ffffffa0H
  02f3f	08 00 00 00	 DD	 8
  02f43	00 00 00 00	 DD	 $L188414
  02f47	94 ff ff ff	 DD	 -108			; ffffff94H
  02f4b	04 00 00 00	 DD	 4
  02f4f	00 00 00 00	 DD	 $L188415
  02f53	84 ff ff ff	 DD	 -124			; ffffff84H
  02f57	08 00 00 00	 DD	 8
  02f5b	00 00 00 00	 DD	 $L188416
  02f5f	6c ff ff ff	 DD	 -148			; ffffff6cH
  02f63	10 00 00 00	 DD	 16			; 00000010H
  02f67	00 00 00 00	 DD	 $L188417
  02f6b	60 ff ff ff	 DD	 -160			; ffffff60H
  02f6f	04 00 00 00	 DD	 4
  02f73	00 00 00 00	 DD	 $L188418
  02f77	54 ff ff ff	 DD	 -172			; ffffff54H
  02f7b	04 00 00 00	 DD	 4
  02f7f	00 00 00 00	 DD	 $L188419
  02f83	40 ff ff ff	 DD	 -192			; ffffff40H
  02f87	0c 00 00 00	 DD	 12			; 0000000cH
  02f8b	00 00 00 00	 DD	 $L188420
  02f8f	28 ff ff ff	 DD	 -216			; ffffff28H
  02f93	10 00 00 00	 DD	 16			; 00000010H
  02f97	00 00 00 00	 DD	 $L188421
  02f9b	14 ff ff ff	 DD	 -236			; ffffff14H
  02f9f	0c 00 00 00	 DD	 12			; 0000000cH
  02fa3	00 00 00 00	 DD	 $L188422
  02fa7	04 ff ff ff	 DD	 -252			; ffffff04H
  02fab	08 00 00 00	 DD	 8
  02faf	00 00 00 00	 DD	 $L188423
  02fb3	f8 fe ff ff	 DD	 -264			; fffffef8H
  02fb7	04 00 00 00	 DD	 4
  02fbb	00 00 00 00	 DD	 $L188424
  02fbf	e8 fe ff ff	 DD	 -280			; fffffee8H
  02fc3	08 00 00 00	 DD	 8
  02fc7	00 00 00 00	 DD	 $L188425
  02fcb	d0 fe ff ff	 DD	 -304			; fffffed0H
  02fcf	10 00 00 00	 DD	 16			; 00000010H
  02fd3	00 00 00 00	 DD	 $L188426
  02fd7	c0 fe ff ff	 DD	 -320			; fffffec0H
  02fdb	08 00 00 00	 DD	 8
  02fdf	00 00 00 00	 DD	 $L188427
  02fe3	b4 fe ff ff	 DD	 -332			; fffffeb4H
  02fe7	04 00 00 00	 DD	 4
  02feb	00 00 00 00	 DD	 $L188428
  02fef	a4 fe ff ff	 DD	 -348			; fffffea4H
  02ff3	08 00 00 00	 DD	 8
  02ff7	00 00 00 00	 DD	 $L188429
  02ffb	8c fe ff ff	 DD	 -372			; fffffe8cH
  02fff	10 00 00 00	 DD	 16			; 00000010H
  03003	00 00 00 00	 DD	 $L188430
  03007	74 fe ff ff	 DD	 -396			; fffffe74H
  0300b	10 00 00 00	 DD	 16			; 00000010H
  0300f	00 00 00 00	 DD	 $L188431
  03013	60 fe ff ff	 DD	 -416			; fffffe60H
  03017	0c 00 00 00	 DD	 12			; 0000000cH
  0301b	00 00 00 00	 DD	 $L188432
  0301f	54 fe ff ff	 DD	 -428			; fffffe54H
  03023	04 00 00 00	 DD	 4
  03027	00 00 00 00	 DD	 $L188433
  0302b	48 fe ff ff	 DD	 -440			; fffffe48H
  0302f	04 00 00 00	 DD	 4
  03033	00 00 00 00	 DD	 $L188434
  03037	30 fe ff ff	 DD	 -464			; fffffe30H
  0303b	10 00 00 00	 DD	 16			; 00000010H
  0303f	00 00 00 00	 DD	 $L188435
  03043	1c fe ff ff	 DD	 -484			; fffffe1cH
  03047	0c 00 00 00	 DD	 12			; 0000000cH
  0304b	00 00 00 00	 DD	 $L188436
  0304f	0c fe ff ff	 DD	 -500			; fffffe0cH
  03053	08 00 00 00	 DD	 8
  03057	00 00 00 00	 DD	 $L188437
  0305b	f4 fd ff ff	 DD	 -524			; fffffdf4H
  0305f	10 00 00 00	 DD	 16			; 00000010H
  03063	00 00 00 00	 DD	 $L188438
  03067	e4 fd ff ff	 DD	 -540			; fffffde4H
  0306b	08 00 00 00	 DD	 8
  0306f	00 00 00 00	 DD	 $L188439
  03073	cc fd ff ff	 DD	 -564			; fffffdccH
  03077	10 00 00 00	 DD	 16			; 00000010H
  0307b	00 00 00 00	 DD	 $L188440
  0307f	b4 fd ff ff	 DD	 -588			; fffffdb4H
  03083	10 00 00 00	 DD	 16			; 00000010H
  03087	00 00 00 00	 DD	 $L188441
  0308b	9c fd ff ff	 DD	 -612			; fffffd9cH
  0308f	10 00 00 00	 DD	 16			; 00000010H
  03093	00 00 00 00	 DD	 $L188442
  03097	84 fd ff ff	 DD	 -636			; fffffd84H
  0309b	10 00 00 00	 DD	 16			; 00000010H
  0309f	00 00 00 00	 DD	 $L188443
  030a3	6c fd ff ff	 DD	 -660			; fffffd6cH
  030a7	10 00 00 00	 DD	 16			; 00000010H
  030ab	00 00 00 00	 DD	 $L188444
  030af	60 fd ff ff	 DD	 -672			; fffffd60H
  030b3	04 00 00 00	 DD	 4
  030b7	00 00 00 00	 DD	 $L188445
  030bb	54 fd ff ff	 DD	 -684			; fffffd54H
  030bf	04 00 00 00	 DD	 4
  030c3	00 00 00 00	 DD	 $L188446
  030c7	40 fd ff ff	 DD	 -704			; fffffd40H
  030cb	0c 00 00 00	 DD	 12			; 0000000cH
  030cf	00 00 00 00	 DD	 $L188447
  030d3	28 fd ff ff	 DD	 -728			; fffffd28H
  030d7	10 00 00 00	 DD	 16			; 00000010H
  030db	00 00 00 00	 DD	 $L188448
  030df	14 fd ff ff	 DD	 -748			; fffffd14H
  030e3	0c 00 00 00	 DD	 12			; 0000000cH
  030e7	00 00 00 00	 DD	 $L188449
$L188449:
  030eb	62		 DB	 98			; 00000062H
  030ec	72		 DB	 114			; 00000072H
  030ed	75		 DB	 117			; 00000075H
  030ee	73		 DB	 115			; 00000073H
  030ef	68		 DB	 104			; 00000068H
  030f0	00		 DB	 0
$L188448:
  030f1	72		 DB	 114			; 00000072H
  030f2	63		 DB	 99			; 00000063H
  030f3	00		 DB	 0
$L188447:
  030f4	62		 DB	 98			; 00000062H
  030f5	72		 DB	 114			; 00000072H
  030f6	75		 DB	 117			; 00000075H
  030f7	73		 DB	 115			; 00000073H
  030f8	68		 DB	 104			; 00000068H
  030f9	00		 DB	 0
$L188446:
  030fa	63		 DB	 99			; 00000063H
  030fb	6f		 DB	 111			; 0000006fH
  030fc	6c		 DB	 108			; 0000006cH
  030fd	42		 DB	 66			; 00000042H
  030fe	72		 DB	 114			; 00000072H
  030ff	75		 DB	 117			; 00000075H
  03100	73		 DB	 115			; 00000073H
  03101	68		 DB	 104			; 00000068H
  03102	32		 DB	 50			; 00000032H
  03103	00		 DB	 0
$L188445:
  03104	63		 DB	 99			; 00000063H
  03105	6f		 DB	 111			; 0000006fH
  03106	6c		 DB	 108			; 0000006cH
  03107	42		 DB	 66			; 00000042H
  03108	72		 DB	 114			; 00000072H
  03109	75		 DB	 117			; 00000075H
  0310a	73		 DB	 115			; 00000073H
  0310b	68		 DB	 104			; 00000068H
  0310c	31		 DB	 49			; 00000031H
  0310d	00		 DB	 0
$L188444:
  0310e	72		 DB	 114			; 00000072H
  0310f	63		 DB	 99			; 00000063H
  03110	00		 DB	 0
$L188443:
  03111	72		 DB	 114			; 00000072H
  03112	65		 DB	 101			; 00000065H
  03113	63		 DB	 99			; 00000063H
  03114	74		 DB	 116			; 00000074H
  03115	52		 DB	 82			; 00000052H
  03116	69		 DB	 105			; 00000069H
  03117	67		 DB	 103			; 00000067H
  03118	68		 DB	 104			; 00000068H
  03119	74		 DB	 116			; 00000074H
  0311a	54		 DB	 84			; 00000054H
  0311b	6f		 DB	 111			; 0000006fH
  0311c	70		 DB	 112			; 00000070H
  0311d	00		 DB	 0
$L188442:
  0311e	72		 DB	 114			; 00000072H
  0311f	65		 DB	 101			; 00000065H
  03120	63		 DB	 99			; 00000063H
  03121	74		 DB	 116			; 00000074H
  03122	4c		 DB	 76			; 0000004cH
  03123	65		 DB	 101			; 00000065H
  03124	66		 DB	 102			; 00000066H
  03125	74		 DB	 116			; 00000074H
  03126	54		 DB	 84			; 00000054H
  03127	6f		 DB	 111			; 0000006fH
  03128	70		 DB	 112			; 00000070H
  03129	00		 DB	 0
$L188441:
  0312a	72		 DB	 114			; 00000072H
  0312b	65		 DB	 101			; 00000065H
  0312c	63		 DB	 99			; 00000063H
  0312d	74		 DB	 116			; 00000074H
  0312e	52		 DB	 82			; 00000052H
  0312f	69		 DB	 105			; 00000069H
  03130	67		 DB	 103			; 00000067H
  03131	68		 DB	 104			; 00000068H
  03132	74		 DB	 116			; 00000074H
  03133	54		 DB	 84			; 00000054H
  03134	6f		 DB	 111			; 0000006fH
  03135	70		 DB	 112			; 00000070H
  03136	32		 DB	 50			; 00000032H
  03137	00		 DB	 0
$L188440:
  03138	72		 DB	 114			; 00000072H
  03139	65		 DB	 101			; 00000065H
  0313a	63		 DB	 99			; 00000063H
  0313b	74		 DB	 116			; 00000074H
  0313c	4c		 DB	 76			; 0000004cH
  0313d	65		 DB	 101			; 00000065H
  0313e	66		 DB	 102			; 00000066H
  0313f	74		 DB	 116			; 00000074H
  03140	54		 DB	 84			; 00000054H
  03141	6f		 DB	 111			; 0000006fH
  03142	70		 DB	 112			; 00000070H
  03143	32		 DB	 50			; 00000032H
  03144	00		 DB	 0
$L188439:
  03145	70		 DB	 112			; 00000070H
  03146	65		 DB	 101			; 00000065H
  03147	6e		 DB	 110			; 0000006eH
  03148	32		 DB	 50			; 00000032H
  03149	00		 DB	 0
$L188438:
  0314a	72		 DB	 114			; 00000072H
  0314b	65		 DB	 101			; 00000065H
  0314c	63		 DB	 99			; 00000063H
  0314d	74		 DB	 116			; 00000074H
  0314e	32		 DB	 50			; 00000032H
  0314f	00		 DB	 0
$L188437:
  03150	70		 DB	 112			; 00000070H
  03151	65		 DB	 101			; 00000065H
  03152	6e		 DB	 110			; 0000006eH
  03153	31		 DB	 49			; 00000031H
  03154	00		 DB	 0
$L188436:
  03155	62		 DB	 98			; 00000062H
  03156	72		 DB	 114			; 00000072H
  03157	75		 DB	 117			; 00000075H
  03158	73		 DB	 115			; 00000073H
  03159	68		 DB	 104			; 00000068H
  0315a	32		 DB	 50			; 00000032H
  0315b	00		 DB	 0
$L188435:
  0315c	72		 DB	 114			; 00000072H
  0315d	63		 DB	 99			; 00000063H
  0315e	31		 DB	 49			; 00000031H
  0315f	00		 DB	 0
$L188434:
  03160	63		 DB	 99			; 00000063H
  03161	6f		 DB	 111			; 0000006fH
  03162	6c		 DB	 108			; 0000006cH
  03163	42		 DB	 66			; 00000042H
  03164	6c		 DB	 108			; 0000006cH
  03165	61		 DB	 97			; 00000061H
  03166	63		 DB	 99			; 00000063H
  03167	6b		 DB	 107			; 0000006bH
  03168	32		 DB	 50			; 00000032H
  03169	00		 DB	 0
$L188433:
  0316a	63		 DB	 99			; 00000063H
  0316b	6f		 DB	 111			; 0000006fH
  0316c	6c		 DB	 108			; 0000006cH
  0316d	42		 DB	 66			; 00000042H
  0316e	6c		 DB	 108			; 0000006cH
  0316f	61		 DB	 97			; 00000061H
  03170	63		 DB	 99			; 00000063H
  03171	6b		 DB	 107			; 0000006bH
  03172	31		 DB	 49			; 00000031H
  03173	00		 DB	 0
$L188432:
  03174	62		 DB	 98			; 00000062H
  03175	72		 DB	 114			; 00000072H
  03176	75		 DB	 117			; 00000075H
  03177	73		 DB	 115			; 00000073H
  03178	68		 DB	 104			; 00000068H
  03179	00		 DB	 0
$L188431:
  0317a	72		 DB	 114			; 00000072H
  0317b	63		 DB	 99			; 00000063H
  0317c	00		 DB	 0
$L188430:
  0317d	72		 DB	 114			; 00000072H
  0317e	65		 DB	 101			; 00000065H
  0317f	63		 DB	 99			; 00000063H
  03180	74		 DB	 116			; 00000074H
  03181	33		 DB	 51			; 00000033H
  03182	00		 DB	 0
$L188429:
  03183	70		 DB	 112			; 00000070H
  03184	65		 DB	 101			; 00000065H
  03185	6e		 DB	 110			; 0000006eH
  03186	50		 DB	 80			; 00000050H
  03187	69		 DB	 105			; 00000069H
  03188	78		 DB	 120			; 00000078H
  03189	32		 DB	 50			; 00000032H
  0318a	00		 DB	 0
$L188428:
  0318b	63		 DB	 99			; 00000063H
  0318c	6f		 DB	 111			; 0000006fH
  0318d	6c		 DB	 108			; 0000006cH
  0318e	70		 DB	 112			; 00000070H
  0318f	69		 DB	 105			; 00000069H
  03190	78		 DB	 120			; 00000078H
  03191	32		 DB	 50			; 00000032H
  03192	00		 DB	 0
$L188427:
  03193	70		 DB	 112			; 00000070H
  03194	65		 DB	 101			; 00000065H
  03195	6e		 DB	 110			; 0000006eH
  03196	32		 DB	 50			; 00000032H
  03197	00		 DB	 0
$L188426:
  03198	72		 DB	 114			; 00000072H
  03199	65		 DB	 101			; 00000065H
  0319a	63		 DB	 99			; 00000063H
  0319b	74		 DB	 116			; 00000074H
  0319c	32		 DB	 50			; 00000032H
  0319d	00		 DB	 0
$L188425:
  0319e	70		 DB	 112			; 00000070H
  0319f	65		 DB	 101			; 00000065H
  031a0	6e		 DB	 110			; 0000006eH
  031a1	50		 DB	 80			; 00000050H
  031a2	69		 DB	 105			; 00000069H
  031a3	78		 DB	 120			; 00000078H
  031a4	31		 DB	 49			; 00000031H
  031a5	00		 DB	 0
$L188424:
  031a6	63		 DB	 99			; 00000063H
  031a7	6f		 DB	 111			; 0000006fH
  031a8	6c		 DB	 108			; 0000006cH
  031a9	70		 DB	 112			; 00000070H
  031aa	69		 DB	 105			; 00000069H
  031ab	78		 DB	 120			; 00000078H
  031ac	00		 DB	 0
$L188423:
  031ad	70		 DB	 112			; 00000070H
  031ae	65		 DB	 101			; 00000065H
  031af	6e		 DB	 110			; 0000006eH
  031b0	31		 DB	 49			; 00000031H
  031b1	00		 DB	 0
$L188422:
  031b2	62		 DB	 98			; 00000062H
  031b3	72		 DB	 114			; 00000072H
  031b4	75		 DB	 117			; 00000075H
  031b5	73		 DB	 115			; 00000073H
  031b6	68		 DB	 104			; 00000068H
  031b7	00		 DB	 0
$L188421:
  031b8	72		 DB	 114			; 00000072H
  031b9	63		 DB	 99			; 00000063H
  031ba	00		 DB	 0
$L188420:
  031bb	62		 DB	 98			; 00000062H
  031bc	72		 DB	 114			; 00000072H
  031bd	75		 DB	 117			; 00000075H
  031be	73		 DB	 115			; 00000073H
  031bf	68		 DB	 104			; 00000068H
  031c0	00		 DB	 0
$L188419:
  031c1	63		 DB	 99			; 00000063H
  031c2	6f		 DB	 111			; 0000006fH
  031c3	6c		 DB	 108			; 0000006cH
  031c4	42		 DB	 66			; 00000042H
  031c5	72		 DB	 114			; 00000072H
  031c6	75		 DB	 117			; 00000075H
  031c7	73		 DB	 115			; 00000073H
  031c8	68		 DB	 104			; 00000068H
  031c9	32		 DB	 50			; 00000032H
  031ca	00		 DB	 0
$L188418:
  031cb	63		 DB	 99			; 00000063H
  031cc	6f		 DB	 111			; 0000006fH
  031cd	6c		 DB	 108			; 0000006cH
  031ce	42		 DB	 66			; 00000042H
  031cf	72		 DB	 114			; 00000072H
  031d0	75		 DB	 117			; 00000075H
  031d1	73		 DB	 115			; 00000073H
  031d2	68		 DB	 104			; 00000068H
  031d3	31		 DB	 49			; 00000031H
  031d4	00		 DB	 0
$L188417:
  031d5	72		 DB	 114			; 00000072H
  031d6	63		 DB	 99			; 00000063H
  031d7	00		 DB	 0
$L188416:
  031d8	70		 DB	 112			; 00000070H
  031d9	65		 DB	 101			; 00000065H
  031da	6e		 DB	 110			; 0000006eH
  031db	50		 DB	 80			; 00000050H
  031dc	69		 DB	 105			; 00000069H
  031dd	78		 DB	 120			; 00000078H
  031de	32		 DB	 50			; 00000032H
  031df	00		 DB	 0
$L188415:
  031e0	63		 DB	 99			; 00000063H
  031e1	6f		 DB	 111			; 0000006fH
  031e2	6c		 DB	 108			; 0000006cH
  031e3	70		 DB	 112			; 00000070H
  031e4	69		 DB	 105			; 00000069H
  031e5	78		 DB	 120			; 00000078H
  031e6	32		 DB	 50			; 00000032H
  031e7	00		 DB	 0
$L188414:
  031e8	70		 DB	 112			; 00000070H
  031e9	65		 DB	 101			; 00000065H
  031ea	6e		 DB	 110			; 0000006eH
  031eb	32		 DB	 50			; 00000032H
  031ec	00		 DB	 0
$L188413:
  031ed	72		 DB	 114			; 00000072H
  031ee	65		 DB	 101			; 00000065H
  031ef	63		 DB	 99			; 00000063H
  031f0	74		 DB	 116			; 00000074H
  031f1	32		 DB	 50			; 00000032H
  031f2	00		 DB	 0
$L188412:
  031f3	70		 DB	 112			; 00000070H
  031f4	65		 DB	 101			; 00000065H
  031f5	6e		 DB	 110			; 0000006eH
  031f6	50		 DB	 80			; 00000050H
  031f7	69		 DB	 105			; 00000069H
  031f8	78		 DB	 120			; 00000078H
  031f9	31		 DB	 49			; 00000031H
  031fa	00		 DB	 0
$L188411:
  031fb	63		 DB	 99			; 00000063H
  031fc	6f		 DB	 111			; 0000006fH
  031fd	6c		 DB	 108			; 0000006cH
  031fe	70		 DB	 112			; 00000070H
  031ff	69		 DB	 105			; 00000069H
  03200	78		 DB	 120			; 00000078H
  03201	00		 DB	 0
$L188410:
  03202	70		 DB	 112			; 00000070H
  03203	65		 DB	 101			; 00000065H
  03204	6e		 DB	 110			; 0000006eH
  03205	31		 DB	 49			; 00000031H
  03206	00		 DB	 0
_TEXT	ENDS
text$x	SEGMENT
$L188392:
  00162	8d 4d e4	 lea	 ecx, DWORD PTR _pen1$187440[ebp]
  00165	e9 00 00 00 00	 jmp	 ??1Pen@Gdiplus@@QAE@XZ	; Gdiplus::Pen::~Pen
$L188393:
  0016a	8d 4d c8	 lea	 ecx, DWORD PTR _penPix1$187442[ebp]
  0016d	e9 00 00 00 00	 jmp	 ??1Pen@Gdiplus@@QAE@XZ	; Gdiplus::Pen::~Pen
$L188394:
  00172	8d 4d a0	 lea	 ecx, DWORD PTR _pen2$187445[ebp]
  00175	e9 00 00 00 00	 jmp	 ??1Pen@Gdiplus@@QAE@XZ	; Gdiplus::Pen::~Pen
$L188395:
  0017a	8d 4d 84	 lea	 ecx, DWORD PTR _penPix2$187449[ebp]
  0017d	e9 00 00 00 00	 jmp	 ??1Pen@Gdiplus@@QAE@XZ	; Gdiplus::Pen::~Pen
$L188396:
  00182	8d 8d 40 ff ff
	ff		 lea	 ecx, DWORD PTR _brush$187454[ebp]
  00188	e9 00 00 00 00	 jmp	 ??1LinearGradientBrush@Gdiplus@@UAE@XZ
$L188397:
  0018d	8d 8d 14 ff ff
	ff		 lea	 ecx, DWORD PTR _brush$187457[ebp]
  00193	e9 00 00 00 00	 jmp	 ??1LinearGradientBrush@Gdiplus@@UAE@XZ
$L188398:
  00198	8d 8d 04 ff ff
	ff		 lea	 ecx, DWORD PTR _pen1$187460[ebp]
  0019e	e9 00 00 00 00	 jmp	 ??1Pen@Gdiplus@@QAE@XZ	; Gdiplus::Pen::~Pen
$L188399:
  001a3	8d 8d e8 fe ff
	ff		 lea	 ecx, DWORD PTR _penPix1$187462[ebp]
  001a9	e9 00 00 00 00	 jmp	 ??1Pen@Gdiplus@@QAE@XZ	; Gdiplus::Pen::~Pen
$L188400:
  001ae	8d 8d c0 fe ff
	ff		 lea	 ecx, DWORD PTR _pen2$187465[ebp]
  001b4	e9 00 00 00 00	 jmp	 ??1Pen@Gdiplus@@QAE@XZ	; Gdiplus::Pen::~Pen
$L188401:
  001b9	8d 8d a4 fe ff
	ff		 lea	 ecx, DWORD PTR _penPix2$187469[ebp]
  001bf	e9 00 00 00 00	 jmp	 ??1Pen@Gdiplus@@QAE@XZ	; Gdiplus::Pen::~Pen
$L188402:
  001c4	8d 8d 60 fe ff
	ff		 lea	 ecx, DWORD PTR _brush$187472[ebp]
  001ca	e9 00 00 00 00	 jmp	 ??1LinearGradientBrush@Gdiplus@@UAE@XZ
$L188403:
  001cf	8d 8d 1c fe ff
	ff		 lea	 ecx, DWORD PTR _brush2$187476[ebp]
  001d5	e9 00 00 00 00	 jmp	 ??1LinearGradientBrush@Gdiplus@@UAE@XZ
$L188404:
  001da	8d 8d 0c fe ff
	ff		 lea	 ecx, DWORD PTR _pen1$187478[ebp]
  001e0	e9 00 00 00 00	 jmp	 ??1Pen@Gdiplus@@QAE@XZ	; Gdiplus::Pen::~Pen
$L188405:
  001e5	8d 8d e4 fd ff
	ff		 lea	 ecx, DWORD PTR _pen2$187481[ebp]
  001eb	e9 00 00 00 00	 jmp	 ??1Pen@Gdiplus@@QAE@XZ	; Gdiplus::Pen::~Pen
$L188406:
  001f0	8d 8d 40 fd ff
	ff		 lea	 ecx, DWORD PTR _brush$187490[ebp]
  001f6	e9 00 00 00 00	 jmp	 ??1LinearGradientBrush@Gdiplus@@UAE@XZ
$L188407:
  001fb	8d 8d 14 fd ff
	ff		 lea	 ecx, DWORD PTR _brush$187493[ebp]
  00201	e9 00 00 00 00	 jmp	 ??1LinearGradientBrush@Gdiplus@@UAE@XZ
__ehhandler$?DrawFrame@CSkinButton2@@AAEXAAVGraphics@Gdiplus@@AAVCRect@@@Z:
  00206	b8 00 00 00 00	 mov	 eax, OFFSET FLAT:$T188409
  0020b	e9 00 00 00 00	 jmp	 ___CxxFrameHandler
text$x	ENDS
?DrawFrame@CSkinButton2@@AAEXAAVGraphics@Gdiplus@@AAVCRect@@@Z ENDP ; CSkinButton2::DrawFrame
PUBLIC	?SetWindowsText@CSkinButton2@@QAEXV?$CStringT@DV?$StrTraitMFC_DLL@DV?$ChTraitsCRT@D@ATL@@@@@ATL@@@Z ; CSkinButton2::SetWindowsText
EXTRN	__imp_??4?$CStringT@DV?$StrTraitMFC_DLL@DV?$ChTraitsCRT@D@ATL@@@@@ATL@@QAEAAV01@ABV01@@Z:NEAR
xdata$x	SEGMENT
$T188459 DD	0ffffffffH
	DD	FLAT:$L188455
$T188457 DD	019930520H
	DD	01H
	DD	FLAT:$T188459
	DD	2 DUP(00H)
	DD	2 DUP(00H)
; Function compile flags: /Odt /RTCsu
xdata$x	ENDS
_TEXT	SEGMENT
_this$ = -16						; size = 4
__$EHRec$ = -12						; size = 12
_str$ = 8						; size = 4
?SetWindowsText@CSkinButton2@@QAEXV?$CStringT@DV?$StrTraitMFC_DLL@DV?$ChTraitsCRT@D@ATL@@@@@ATL@@@Z PROC NEAR ; CSkinButton2::SetWindowsText
; _this$ = ecx

; 637  : {

  03210	55		 push	 ebp
  03211	8b ec		 mov	 ebp, esp
  03213	6a ff		 push	 -1
  03215	68 00 00 00 00	 push	 __ehhandler$?SetWindowsText@CSkinButton2@@QAEXV?$CStringT@DV?$StrTraitMFC_DLL@DV?$ChTraitsCRT@D@ATL@@@@@ATL@@@Z
  0321a	64 a1 00 00 00
	00		 mov	 eax, DWORD PTR fs:__except_list
  03220	50		 push	 eax
  03221	64 89 25 00 00
	00 00		 mov	 DWORD PTR fs:__except_list, esp
  03228	51		 push	 ecx
  03229	56		 push	 esi
  0322a	c7 45 f0 cc cc
	cc cc		 mov	 DWORD PTR [ebp-16], -858993460 ; ccccccccH
  03231	89 4d f0	 mov	 DWORD PTR _this$[ebp], ecx
  03234	c7 45 fc 00 00
	00 00		 mov	 DWORD PTR __$EHRec$[ebp+8], 0

; 638  : 	m_strText = str;

  0323b	8b f4		 mov	 esi, esp
  0323d	8d 45 08	 lea	 eax, DWORD PTR _str$[ebp]
  03240	50		 push	 eax
  03241	8b 4d f0	 mov	 ecx, DWORD PTR _this$[ebp]
  03244	81 c1 64 01 00
	00		 add	 ecx, 356		; 00000164H
  0324a	ff 15 00 00 00
	00		 call	 DWORD PTR __imp_??4?$CStringT@DV?$StrTraitMFC_DLL@DV?$ChTraitsCRT@D@ATL@@@@@ATL@@QAEAAV01@ABV01@@Z
  03250	3b f4		 cmp	 esi, esp
  03252	e8 00 00 00 00	 call	 __RTC_CheckEsp

; 639  : 	if( this->m_hWnd )

  03257	8b 4d f0	 mov	 ecx, DWORD PTR _this$[ebp]
  0325a	83 79 20 00	 cmp	 DWORD PTR [ecx+32], 0
  0325e	74 0a		 je	 SHORT $L187507

; 640  : 		this->Invalidate();

  03260	6a 01		 push	 1
  03262	8b 4d f0	 mov	 ecx, DWORD PTR _this$[ebp]
  03265	e8 00 00 00 00	 call	 ?Invalidate@CWnd@@QAEXH@Z ; CWnd::Invalidate
$L187507:

; 641  : }

  0326a	c7 45 fc ff ff
	ff ff		 mov	 DWORD PTR __$EHRec$[ebp+8], -1
  03271	8b f4		 mov	 esi, esp
  03273	8d 4d 08	 lea	 ecx, DWORD PTR _str$[ebp]
  03276	ff 15 00 00 00
	00		 call	 DWORD PTR __imp_??1?$CStringT@DV?$StrTraitMFC_DLL@DV?$ChTraitsCRT@D@ATL@@@@@ATL@@QAE@XZ
  0327c	3b f4		 cmp	 esi, esp
  0327e	e8 00 00 00 00	 call	 __RTC_CheckEsp
  03283	8b 4d f4	 mov	 ecx, DWORD PTR __$EHRec$[ebp]
  03286	64 89 0d 00 00
	00 00		 mov	 DWORD PTR fs:__except_list, ecx
  0328d	5e		 pop	 esi
  0328e	83 c4 10	 add	 esp, 16			; 00000010H
  03291	3b ec		 cmp	 ebp, esp
  03293	e8 00 00 00 00	 call	 __RTC_CheckEsp
  03298	8b e5		 mov	 esp, ebp
  0329a	5d		 pop	 ebp
  0329b	c2 04 00	 ret	 4
_TEXT	ENDS
text$x	SEGMENT
$L188455:
  00210	8b f4		 mov	 esi, esp
  00212	8d 4d 08	 lea	 ecx, DWORD PTR _str$[ebp]
  00215	ff 15 00 00 00
	00		 call	 DWORD PTR __imp_??1?$CStringT@DV?$StrTraitMFC_DLL@DV?$ChTraitsCRT@D@ATL@@@@@ATL@@QAE@XZ
  0021b	3b f4		 cmp	 esi, esp
  0021d	e9 00 00 00 00	 jmp	 __RTC_CheckEsp
__ehhandler$?SetWindowsText@CSkinButton2@@QAEXV?$CStringT@DV?$StrTraitMFC_DLL@DV?$ChTraitsCRT@D@ATL@@@@@ATL@@@Z:
  00222	b8 00 00 00 00	 mov	 eax, OFFSET FLAT:$T188457
  00227	e9 00 00 00 00	 jmp	 ___CxxFrameHandler
text$x	ENDS
?SetWindowsText@CSkinButton2@@QAEXV?$CStringT@DV?$StrTraitMFC_DLL@DV?$ChTraitsCRT@D@ATL@@@@@ATL@@@Z ENDP ; CSkinButton2::SetWindowsText
PUBLIC	?GetWindowsText@CSkinButton2@@QAEXAAV?$CStringT@DV?$StrTraitMFC_DLL@DV?$ChTraitsCRT@D@ATL@@@@@ATL@@@Z ; CSkinButton2::GetWindowsText
EXTRN	__imp_?IsEmpty@?$CSimpleStringT@D$00@ATL@@QBE_NXZ:NEAR
; Function compile flags: /Odt /RTCsu
_TEXT	SEGMENT
_this$ = -4						; size = 4
_str$ = 8						; size = 4
?GetWindowsText@CSkinButton2@@QAEXAAV?$CStringT@DV?$StrTraitMFC_DLL@DV?$ChTraitsCRT@D@ATL@@@@@ATL@@@Z PROC NEAR ; CSkinButton2::GetWindowsText
; _this$ = ecx

; 644  : {

  032a0	55		 push	 ebp
  032a1	8b ec		 mov	 ebp, esp
  032a3	51		 push	 ecx
  032a4	56		 push	 esi
  032a5	c7 45 fc cc cc
	cc cc		 mov	 DWORD PTR [ebp-4], -858993460 ; ccccccccH
  032ac	89 4d fc	 mov	 DWORD PTR _this$[ebp], ecx

; 645  : 	if( !m_strText.IsEmpty() )

  032af	8b 4d fc	 mov	 ecx, DWORD PTR _this$[ebp]
  032b2	81 c1 64 01 00
	00		 add	 ecx, 356		; 00000164H
  032b8	8b f4		 mov	 esi, esp
  032ba	ff 15 00 00 00
	00		 call	 DWORD PTR __imp_?IsEmpty@?$CSimpleStringT@D$00@ATL@@QBE_NXZ
  032c0	3b f4		 cmp	 esi, esp
  032c2	e8 00 00 00 00	 call	 __RTC_CheckEsp
  032c7	0f b6 c0	 movzx	 eax, al
  032ca	85 c0		 test	 eax, eax
  032cc	75 1c		 jne	 SHORT $L187511

; 646  : 	str = m_strText;

  032ce	8b 4d fc	 mov	 ecx, DWORD PTR _this$[ebp]
  032d1	81 c1 64 01 00
	00		 add	 ecx, 356		; 00000164H
  032d7	8b f4		 mov	 esi, esp
  032d9	51		 push	 ecx
  032da	8b 4d 08	 mov	 ecx, DWORD PTR _str$[ebp]
  032dd	ff 15 00 00 00
	00		 call	 DWORD PTR __imp_??4?$CStringT@DV?$StrTraitMFC_DLL@DV?$ChTraitsCRT@D@ATL@@@@@ATL@@QAEAAV01@ABV01@@Z
  032e3	3b f4		 cmp	 esi, esp
  032e5	e8 00 00 00 00	 call	 __RTC_CheckEsp
$L187511:

; 647  : }

  032ea	5e		 pop	 esi
  032eb	83 c4 04	 add	 esp, 4
  032ee	3b ec		 cmp	 ebp, esp
  032f0	e8 00 00 00 00	 call	 __RTC_CheckEsp
  032f5	8b e5		 mov	 esp, ebp
  032f7	5d		 pop	 ebp
  032f8	c2 04 00	 ret	 4
?GetWindowsText@CSkinButton2@@QAEXAAV?$CStringT@DV?$StrTraitMFC_DLL@DV?$ChTraitsCRT@D@ATL@@@@@ATL@@@Z ENDP ; CSkinButton2::GetWindowsText
_TEXT	ENDS
PUBLIC	?SetFrameColor1@CSkinButton2@@QAEXEEEE@Z	; CSkinButton2::SetFrameColor1
; Function compile flags: /Odt /RTCsu
_TEXT	SEGMENT
_this$ = -4						; size = 4
_a$ = 8							; size = 1
_r$ = 12						; size = 1
_g$ = 16						; size = 1
_b$ = 20						; size = 1
?SetFrameColor1@CSkinButton2@@QAEXEEEE@Z PROC NEAR	; CSkinButton2::SetFrameColor1
; _this$ = ecx

; 650  : {

  03300	55		 push	 ebp
  03301	8b ec		 mov	 ebp, esp
  03303	51		 push	 ecx
  03304	c7 45 fc cc cc
	cc cc		 mov	 DWORD PTR [ebp-4], -858993460 ; ccccccccH
  0330b	89 4d fc	 mov	 DWORD PTR _this$[ebp], ecx

; 651  : 	m_colFrame1.SetValue( Gdiplus::Color::MakeARGB(a,r,g,b) );

  0330e	8a 45 14	 mov	 al, BYTE PTR _b$[ebp]
  03311	50		 push	 eax
  03312	8a 4d 10	 mov	 cl, BYTE PTR _g$[ebp]
  03315	51		 push	 ecx
  03316	8a 55 0c	 mov	 dl, BYTE PTR _r$[ebp]
  03319	52		 push	 edx
  0331a	8a 45 08	 mov	 al, BYTE PTR _a$[ebp]
  0331d	50		 push	 eax
  0331e	e8 00 00 00 00	 call	 ?MakeARGB@Color@Gdiplus@@SAKEEEE@Z ; Gdiplus::Color::MakeARGB
  03323	83 c4 10	 add	 esp, 16			; 00000010H
  03326	50		 push	 eax
  03327	8b 4d fc	 mov	 ecx, DWORD PTR _this$[ebp]
  0332a	81 c1 70 01 00
	00		 add	 ecx, 368		; 00000170H
  03330	e8 00 00 00 00	 call	 ?SetValue@Color@Gdiplus@@QAEXK@Z ; Gdiplus::Color::SetValue

; 652  : }

  03335	83 c4 04	 add	 esp, 4
  03338	3b ec		 cmp	 ebp, esp
  0333a	e8 00 00 00 00	 call	 __RTC_CheckEsp
  0333f	8b e5		 mov	 esp, ebp
  03341	5d		 pop	 ebp
  03342	c2 10 00	 ret	 16			; 00000010H
?SetFrameColor1@CSkinButton2@@QAEXEEEE@Z ENDP		; CSkinButton2::SetFrameColor1
_TEXT	ENDS
PUBLIC	?SetFrameColor2@CSkinButton2@@QAEXEEEE@Z	; CSkinButton2::SetFrameColor2
; Function compile flags: /Odt /RTCsu
_TEXT	SEGMENT
_this$ = -4						; size = 4
_a$ = 8							; size = 1
_r$ = 12						; size = 1
_g$ = 16						; size = 1
_b$ = 20						; size = 1
?SetFrameColor2@CSkinButton2@@QAEXEEEE@Z PROC NEAR	; CSkinButton2::SetFrameColor2
; _this$ = ecx

; 654  : {

  03350	55		 push	 ebp
  03351	8b ec		 mov	 ebp, esp
  03353	51		 push	 ecx
  03354	c7 45 fc cc cc
	cc cc		 mov	 DWORD PTR [ebp-4], -858993460 ; ccccccccH
  0335b	89 4d fc	 mov	 DWORD PTR _this$[ebp], ecx

; 655  : 	m_colFrame2.SetValue( Gdiplus::Color::MakeARGB(a,r,g,b) );

  0335e	8a 45 14	 mov	 al, BYTE PTR _b$[ebp]
  03361	50		 push	 eax
  03362	8a 4d 10	 mov	 cl, BYTE PTR _g$[ebp]
  03365	51		 push	 ecx
  03366	8a 55 0c	 mov	 dl, BYTE PTR _r$[ebp]
  03369	52		 push	 edx
  0336a	8a 45 08	 mov	 al, BYTE PTR _a$[ebp]
  0336d	50		 push	 eax
  0336e	e8 00 00 00 00	 call	 ?MakeARGB@Color@Gdiplus@@SAKEEEE@Z ; Gdiplus::Color::MakeARGB
  03373	83 c4 10	 add	 esp, 16			; 00000010H
  03376	50		 push	 eax
  03377	8b 4d fc	 mov	 ecx, DWORD PTR _this$[ebp]
  0337a	81 c1 74 01 00
	00		 add	 ecx, 372		; 00000174H
  03380	e8 00 00 00 00	 call	 ?SetValue@Color@Gdiplus@@QAEXK@Z ; Gdiplus::Color::SetValue

; 656  : }

  03385	83 c4 04	 add	 esp, 4
  03388	3b ec		 cmp	 ebp, esp
  0338a	e8 00 00 00 00	 call	 __RTC_CheckEsp
  0338f	8b e5		 mov	 esp, ebp
  03391	5d		 pop	 ebp
  03392	c2 10 00	 ret	 16			; 00000010H
?SetFrameColor2@CSkinButton2@@QAEXEEEE@Z ENDP		; CSkinButton2::SetFrameColor2
_TEXT	ENDS
PUBLIC	?SetFrameBrush@CSkinButton2@@QAEXEEEE@Z		; CSkinButton2::SetFrameBrush
; Function compile flags: /Odt /RTCsu
_TEXT	SEGMENT
_this$ = -4						; size = 4
_a$ = 8							; size = 1
_r$ = 12						; size = 1
_g$ = 16						; size = 1
_b$ = 20						; size = 1
?SetFrameBrush@CSkinButton2@@QAEXEEEE@Z PROC NEAR	; CSkinButton2::SetFrameBrush
; _this$ = ecx

; 658  : {

  033a0	55		 push	 ebp
  033a1	8b ec		 mov	 ebp, esp
  033a3	51		 push	 ecx
  033a4	c7 45 fc cc cc
	cc cc		 mov	 DWORD PTR [ebp-4], -858993460 ; ccccccccH
  033ab	89 4d fc	 mov	 DWORD PTR _this$[ebp], ecx

; 659  : 	m_colBrush1.SetValue( Gdiplus::Color::MakeARGB(a,r,g,b) );

  033ae	8a 45 14	 mov	 al, BYTE PTR _b$[ebp]
  033b1	50		 push	 eax
  033b2	8a 4d 10	 mov	 cl, BYTE PTR _g$[ebp]
  033b5	51		 push	 ecx
  033b6	8a 55 0c	 mov	 dl, BYTE PTR _r$[ebp]
  033b9	52		 push	 edx
  033ba	8a 45 08	 mov	 al, BYTE PTR _a$[ebp]
  033bd	50		 push	 eax
  033be	e8 00 00 00 00	 call	 ?MakeARGB@Color@Gdiplus@@SAKEEEE@Z ; Gdiplus::Color::MakeARGB
  033c3	83 c4 10	 add	 esp, 16			; 00000010H
  033c6	50		 push	 eax
  033c7	8b 4d fc	 mov	 ecx, DWORD PTR _this$[ebp]
  033ca	81 c1 78 01 00
	00		 add	 ecx, 376		; 00000178H
  033d0	e8 00 00 00 00	 call	 ?SetValue@Color@Gdiplus@@QAEXK@Z ; Gdiplus::Color::SetValue

; 660  : }

  033d5	83 c4 04	 add	 esp, 4
  033d8	3b ec		 cmp	 ebp, esp
  033da	e8 00 00 00 00	 call	 __RTC_CheckEsp
  033df	8b e5		 mov	 esp, ebp
  033e1	5d		 pop	 ebp
  033e2	c2 10 00	 ret	 16			; 00000010H
?SetFrameBrush@CSkinButton2@@QAEXEEEE@Z ENDP		; CSkinButton2::SetFrameBrush
_TEXT	ENDS
PUBLIC	?SetBKColor@CSkinButton2@@QAEXEEEE@Z		; CSkinButton2::SetBKColor
; Function compile flags: /Odt /RTCsu
_TEXT	SEGMENT
_this$ = -4						; size = 4
_a$ = 8							; size = 1
_r$ = 12						; size = 1
_g$ = 16						; size = 1
_b$ = 20						; size = 1
?SetBKColor@CSkinButton2@@QAEXEEEE@Z PROC NEAR		; CSkinButton2::SetBKColor
; _this$ = ecx

; 662  : {

  033f0	55		 push	 ebp
  033f1	8b ec		 mov	 ebp, esp
  033f3	51		 push	 ecx
  033f4	c7 45 fc cc cc
	cc cc		 mov	 DWORD PTR [ebp-4], -858993460 ; ccccccccH
  033fb	89 4d fc	 mov	 DWORD PTR _this$[ebp], ecx

; 663  : 	m_colBK.SetValue( Gdiplus::Color::MakeARGB(a,r,g,b) );

  033fe	8a 45 14	 mov	 al, BYTE PTR _b$[ebp]
  03401	50		 push	 eax
  03402	8a 4d 10	 mov	 cl, BYTE PTR _g$[ebp]
  03405	51		 push	 ecx
  03406	8a 55 0c	 mov	 dl, BYTE PTR _r$[ebp]
  03409	52		 push	 edx
  0340a	8a 45 08	 mov	 al, BYTE PTR _a$[ebp]
  0340d	50		 push	 eax
  0340e	e8 00 00 00 00	 call	 ?MakeARGB@Color@Gdiplus@@SAKEEEE@Z ; Gdiplus::Color::MakeARGB
  03413	83 c4 10	 add	 esp, 16			; 00000010H
  03416	50		 push	 eax
  03417	8b 4d fc	 mov	 ecx, DWORD PTR _this$[ebp]
  0341a	81 c1 6c 01 00
	00		 add	 ecx, 364		; 0000016cH
  03420	e8 00 00 00 00	 call	 ?SetValue@Color@Gdiplus@@QAEXK@Z ; Gdiplus::Color::SetValue

; 664  : 	if( this->m_hWnd )

  03425	8b 4d fc	 mov	 ecx, DWORD PTR _this$[ebp]
  03428	83 79 20 00	 cmp	 DWORD PTR [ecx+32], 0
  0342c	74 0a		 je	 SHORT $L187540

; 665  : 	this->Invalidate();

  0342e	6a 01		 push	 1
  03430	8b 4d fc	 mov	 ecx, DWORD PTR _this$[ebp]
  03433	e8 00 00 00 00	 call	 ?Invalidate@CWnd@@QAEXH@Z ; CWnd::Invalidate
$L187540:

; 666  : }

  03438	83 c4 04	 add	 esp, 4
  0343b	3b ec		 cmp	 ebp, esp
  0343d	e8 00 00 00 00	 call	 __RTC_CheckEsp
  03442	8b e5		 mov	 esp, ebp
  03444	5d		 pop	 ebp
  03445	c2 10 00	 ret	 16			; 00000010H
?SetBKColor@CSkinButton2@@QAEXEEEE@Z ENDP		; CSkinButton2::SetBKColor
_TEXT	ENDS
PUBLIC	?GetBKColor@CSkinButton2@@QBEKXZ		; CSkinButton2::GetBKColor
; Function compile flags: /Odt /RTCsu
_TEXT	SEGMENT
_this$ = -4						; size = 4
?GetBKColor@CSkinButton2@@QBEKXZ PROC NEAR		; CSkinButton2::GetBKColor
; _this$ = ecx

; 668  : {

  03450	55		 push	 ebp
  03451	8b ec		 mov	 ebp, esp
  03453	51		 push	 ecx
  03454	56		 push	 esi
  03455	c7 45 fc cc cc
	cc cc		 mov	 DWORD PTR [ebp-4], -858993460 ; ccccccccH
  0345c	89 4d fc	 mov	 DWORD PTR _this$[ebp], ecx

; 669  :    return RGB( m_colBK.GetR(), m_colBK.GetG(), m_colBK.GetB() );

  0345f	8b 4d fc	 mov	 ecx, DWORD PTR _this$[ebp]
  03462	81 c1 6c 01 00
	00		 add	 ecx, 364		; 0000016cH
  03468	e8 00 00 00 00	 call	 ?GetR@Color@Gdiplus@@QBEEXZ ; Gdiplus::Color::GetR
  0346d	0f b6 f0	 movzx	 esi, al
  03470	8b 4d fc	 mov	 ecx, DWORD PTR _this$[ebp]
  03473	81 c1 6c 01 00
	00		 add	 ecx, 364		; 0000016cH
  03479	e8 00 00 00 00	 call	 ?GetG@Color@Gdiplus@@QBEEXZ ; Gdiplus::Color::GetG
  0347e	0f b6 c0	 movzx	 eax, al
  03481	c1 e0 08	 shl	 eax, 8
  03484	0b f0		 or	 esi, eax
  03486	8b 4d fc	 mov	 ecx, DWORD PTR _this$[ebp]
  03489	81 c1 6c 01 00
	00		 add	 ecx, 364		; 0000016cH
  0348f	e8 00 00 00 00	 call	 ?GetB@Color@Gdiplus@@QBEEXZ ; Gdiplus::Color::GetB
  03494	0f b6 c8	 movzx	 ecx, al
  03497	c1 e1 10	 shl	 ecx, 16			; 00000010H
  0349a	0b f1		 or	 esi, ecx
  0349c	8b c6		 mov	 eax, esi

; 670  : }

  0349e	5e		 pop	 esi
  0349f	83 c4 04	 add	 esp, 4
  034a2	3b ec		 cmp	 ebp, esp
  034a4	e8 00 00 00 00	 call	 __RTC_CheckEsp
  034a9	8b e5		 mov	 esp, ebp
  034ab	5d		 pop	 ebp
  034ac	c3		 ret	 0
?GetBKColor@CSkinButton2@@QBEKXZ ENDP			; CSkinButton2::GetBKColor
_TEXT	ENDS
EXTRN	?PreTranslateMessage@CWnd@@UAEHPAUtagMSG@@@Z:NEAR ; CWnd::PreTranslateMessage
EXTRN	?RelayEvent@CToolTipCtrl@@QAEXPAUtagMSG@@@Z:NEAR ; CToolTipCtrl::RelayEvent
; Function compile flags: /Odt /RTCsu
_TEXT	SEGMENT
_this$ = -4						; size = 4
_pMsg$ = 8						; size = 4
?PreTranslateMessage@CSkinButton2@@UAEHPAUtagMSG@@@Z PROC NEAR ; CSkinButton2::PreTranslateMessage
; _this$ = ecx

; 672  : {

  034b0	55		 push	 ebp
  034b1	8b ec		 mov	 ebp, esp
  034b3	51		 push	 ecx
  034b4	56		 push	 esi
  034b5	c7 45 fc cc cc
	cc cc		 mov	 DWORD PTR [ebp-4], -858993460 ; ccccccccH
  034bc	89 4d fc	 mov	 DWORD PTR _this$[ebp], ecx

; 673  : 	if (pMsg->message == WM_LBUTTONDBLCLK)

  034bf	8b 45 08	 mov	 eax, DWORD PTR _pMsg$[ebp]
  034c2	81 78 04 03 02
	00 00		 cmp	 DWORD PTR [eax+4], 515	; 00000203H
  034c9	75 0a		 jne	 SHORT $L187555

; 674  : 		pMsg->message = WM_LBUTTONDOWN;

  034cb	8b 4d 08	 mov	 ecx, DWORD PTR _pMsg$[ebp]
  034ce	c7 41 04 01 02
	00 00		 mov	 DWORD PTR [ecx+4], 513	; 00000201H
$L187555:

; 675  : 
; 676  : 	if (m_pToolTip != NULL)

  034d5	8b 55 fc	 mov	 edx, DWORD PTR _this$[ebp]
  034d8	83 7a 74 00	 cmp	 DWORD PTR [edx+116], 0
  034dc	74 2c		 je	 SHORT $L187556

; 677  : 	{
; 678  : 		if (::IsWindow(m_pToolTip->m_hWnd))

  034de	8b 45 fc	 mov	 eax, DWORD PTR _this$[ebp]
  034e1	8b 48 74	 mov	 ecx, DWORD PTR [eax+116]
  034e4	8b f4		 mov	 esi, esp
  034e6	8b 51 20	 mov	 edx, DWORD PTR [ecx+32]
  034e9	52		 push	 edx
  034ea	ff 15 00 00 00
	00		 call	 DWORD PTR __imp__IsWindow@4
  034f0	3b f4		 cmp	 esi, esp
  034f2	e8 00 00 00 00	 call	 __RTC_CheckEsp
  034f7	85 c0		 test	 eax, eax
  034f9	74 0f		 je	 SHORT $L187556

; 679  : 		{
; 680  : 			m_pToolTip->RelayEvent(pMsg);		

  034fb	8b 45 08	 mov	 eax, DWORD PTR _pMsg$[ebp]
  034fe	50		 push	 eax
  034ff	8b 4d fc	 mov	 ecx, DWORD PTR _this$[ebp]
  03502	8b 49 74	 mov	 ecx, DWORD PTR [ecx+116]
  03505	e8 00 00 00 00	 call	 ?RelayEvent@CToolTipCtrl@@QAEXPAUtagMSG@@@Z ; CToolTipCtrl::RelayEvent
$L187556:

; 681  : 		}
; 682  : 	}
; 683  : 
; 684  : 	return CButton::PreTranslateMessage(pMsg);

  0350a	8b 55 08	 mov	 edx, DWORD PTR _pMsg$[ebp]
  0350d	52		 push	 edx
  0350e	8b 4d fc	 mov	 ecx, DWORD PTR _this$[ebp]
  03511	e8 00 00 00 00	 call	 ?PreTranslateMessage@CWnd@@UAEHPAUtagMSG@@@Z ; CWnd::PreTranslateMessage

; 685  : }

  03516	5e		 pop	 esi
  03517	83 c4 04	 add	 esp, 4
  0351a	3b ec		 cmp	 ebp, esp
  0351c	e8 00 00 00 00	 call	 __RTC_CheckEsp
  03521	8b e5		 mov	 esp, ebp
  03523	5d		 pop	 ebp
  03524	c2 04 00	 ret	 4
?PreTranslateMessage@CSkinButton2@@UAEHPAUtagMSG@@@Z ENDP ; CSkinButton2::PreTranslateMessage
_TEXT	ENDS
PUBLIC	?InitToolTip@CSkinButton2@@IAEXXZ		; CSkinButton2::InitToolTip
EXTRN	?GetToolCount@CToolTipCtrl@@QBEHXZ:NEAR		; CToolTipCtrl::GetToolCount
EXTRN	?Activate@CToolTipCtrl@@QAEXH@Z:NEAR		; CToolTipCtrl::Activate
EXTRN	?AddTool@CToolTipCtrl@@QAEHPAVCWnd@@PBDPBUtagRECT@@I@Z:NEAR ; CToolTipCtrl::AddTool
EXTRN	?SetDelayTime@CToolTipCtrl@@QAEXI@Z:NEAR	; CToolTipCtrl::SetDelayTime
EXTRN	?UpdateTipText@CToolTipCtrl@@QAEXPBDPAVCWnd@@I@Z:NEAR ; CToolTipCtrl::UpdateTipText
xdata$x	SEGMENT
$T188475 DD	0ffffffffH
	DD	FLAT:$L188468
$T188470 DD	019930520H
	DD	01H
	DD	FLAT:$T188475
	DD	2 DUP(00H)
	DD	2 DUP(00H)
; Function compile flags: /Odt /RTCsu
xdata$x	ENDS
_TEXT	SEGMENT
_rectBtn$187565 = -36					; size = 16
_this$ = -16						; size = 4
__$EHRec$ = -12						; size = 12
_sText$ = 8						; size = 4
_bActivate$ = 12					; size = 4
?SetToolTipText@CSkinButton2@@QAEXV?$CStringT@DV?$StrTraitMFC_DLL@DV?$ChTraitsCRT@D@ATL@@@@@ATL@@H@Z PROC NEAR ; CSkinButton2::SetToolTipText
; _this$ = ecx

; 687  : {

  03530	55		 push	 ebp
  03531	8b ec		 mov	 ebp, esp
  03533	6a ff		 push	 -1
  03535	68 00 00 00 00	 push	 __ehhandler$?SetToolTipText@CSkinButton2@@QAEXV?$CStringT@DV?$StrTraitMFC_DLL@DV?$ChTraitsCRT@D@ATL@@@@@ATL@@H@Z
  0353a	64 a1 00 00 00
	00		 mov	 eax, DWORD PTR fs:__except_list
  03540	50		 push	 eax
  03541	64 89 25 00 00
	00 00		 mov	 DWORD PTR fs:__except_list, esp
  03548	83 ec 1c	 sub	 esp, 28			; 0000001cH
  0354b	56		 push	 esi
  0354c	b8 cc cc cc cc	 mov	 eax, -858993460		; ccccccccH
  03551	89 45 d8	 mov	 DWORD PTR [ebp-40], eax
  03554	89 45 dc	 mov	 DWORD PTR [ebp-36], eax
  03557	89 45 e0	 mov	 DWORD PTR [ebp-32], eax
  0355a	89 45 e4	 mov	 DWORD PTR [ebp-28], eax
  0355d	89 45 e8	 mov	 DWORD PTR [ebp-24], eax
  03560	89 45 ec	 mov	 DWORD PTR [ebp-20], eax
  03563	89 45 f0	 mov	 DWORD PTR [ebp-16], eax
  03566	89 4d f0	 mov	 DWORD PTR _this$[ebp], ecx
  03569	c7 45 fc 00 00
	00 00		 mov	 DWORD PTR __$EHRec$[ebp+8], 0

; 688  : 	if (sText.IsEmpty()) return;

  03570	8b f4		 mov	 esi, esp
  03572	8d 4d 08	 lea	 ecx, DWORD PTR _sText$[ebp]
  03575	ff 15 00 00 00
	00		 call	 DWORD PTR __imp_?IsEmpty@?$CSimpleStringT@D$00@ATL@@QBE_NXZ
  0357b	3b f4		 cmp	 esi, esp
  0357d	e8 00 00 00 00	 call	 __RTC_CheckEsp
  03582	0f b6 c0	 movzx	 eax, al
  03585	85 c0		 test	 eax, eax
  03587	74 1e		 je	 SHORT $L187563
  03589	c7 45 fc ff ff
	ff ff		 mov	 DWORD PTR __$EHRec$[ebp+8], -1
  03590	8b f4		 mov	 esi, esp
  03592	8d 4d 08	 lea	 ecx, DWORD PTR _sText$[ebp]
  03595	ff 15 00 00 00
	00		 call	 DWORD PTR __imp_??1?$CStringT@DV?$StrTraitMFC_DLL@DV?$ChTraitsCRT@D@ATL@@@@@ATL@@QAE@XZ
  0359b	3b f4		 cmp	 esi, esp
  0359d	e8 00 00 00 00	 call	 __RTC_CheckEsp
  035a2	e9 d8 00 00 00	 jmp	 $L187562
$L187563:

; 689  : 
; 690  : 	InitToolTip();

  035a7	8b 4d f0	 mov	 ecx, DWORD PTR _this$[ebp]
  035aa	e8 00 00 00 00	 call	 ?InitToolTip@CSkinButton2@@IAEXXZ ; CSkinButton2::InitToolTip

; 691  : 	m_tooltext = sText;

  035af	8b f4		 mov	 esi, esp
  035b1	8d 4d 08	 lea	 ecx, DWORD PTR _sText$[ebp]
  035b4	51		 push	 ecx
  035b5	8b 4d f0	 mov	 ecx, DWORD PTR _this$[ebp]
  035b8	83 c1 78	 add	 ecx, 120		; 00000078H
  035bb	ff 15 00 00 00
	00		 call	 DWORD PTR __imp_??4?$CStringT@DV?$StrTraitMFC_DLL@DV?$ChTraitsCRT@D@ATL@@@@@ATL@@QAEAAV01@ABV01@@Z
  035c1	3b f4		 cmp	 esi, esp
  035c3	e8 00 00 00 00	 call	 __RTC_CheckEsp

; 692  : 
; 693  : 	if (m_pToolTip->GetToolCount() == 0)

  035c8	8b 55 f0	 mov	 edx, DWORD PTR _this$[ebp]
  035cb	8b 4a 74	 mov	 ecx, DWORD PTR [edx+116]
  035ce	e8 00 00 00 00	 call	 ?GetToolCount@CToolTipCtrl@@QBEHXZ ; CToolTipCtrl::GetToolCount
  035d3	85 c0		 test	 eax, eax
  035d5	75 49		 jne	 SHORT $L187564

; 694  : 	{
; 695  : 		CRect rectBtn; 

  035d7	8d 4d dc	 lea	 ecx, DWORD PTR _rectBtn$187565[ebp]
  035da	e8 00 00 00 00	 call	 ??0CRect@@QAE@XZ	; CRect::CRect

; 696  : 		GetClientRect(rectBtn);

  035df	8d 4d dc	 lea	 ecx, DWORD PTR _rectBtn$187565[ebp]
  035e2	e8 00 00 00 00	 call	 ??BCRect@@QAEPAUtagRECT@@XZ ; CRect::operator tagRECT *
  035e7	50		 push	 eax
  035e8	8b 4d f0	 mov	 ecx, DWORD PTR _this$[ebp]
  035eb	e8 00 00 00 00	 call	 ?GetClientRect@CWnd@@QBEXPAUtagRECT@@@Z ; CWnd::GetClientRect

; 697  : 		m_pToolTip->AddTool(this, m_tooltext, rectBtn, 1);

  035f0	6a 01		 push	 1
  035f2	8d 4d dc	 lea	 ecx, DWORD PTR _rectBtn$187565[ebp]
  035f5	e8 00 00 00 00	 call	 ??BCRect@@QAEPAUtagRECT@@XZ ; CRect::operator tagRECT *
  035fa	50		 push	 eax
  035fb	8b 4d f0	 mov	 ecx, DWORD PTR _this$[ebp]
  035fe	83 c1 78	 add	 ecx, 120		; 00000078H
  03601	8b f4		 mov	 esi, esp
  03603	ff 15 00 00 00
	00		 call	 DWORD PTR __imp_??B?$CSimpleStringT@D$00@ATL@@QBEPBDXZ
  03609	3b f4		 cmp	 esi, esp
  0360b	e8 00 00 00 00	 call	 __RTC_CheckEsp
  03610	50		 push	 eax
  03611	8b 45 f0	 mov	 eax, DWORD PTR _this$[ebp]
  03614	50		 push	 eax
  03615	8b 4d f0	 mov	 ecx, DWORD PTR _this$[ebp]
  03618	8b 49 74	 mov	 ecx, DWORD PTR [ecx+116]
  0361b	e8 00 00 00 00	 call	 ?AddTool@CToolTipCtrl@@QAEHPAVCWnd@@PBDPBUtagRECT@@I@Z ; CToolTipCtrl::AddTool
$L187564:

; 698  : 	}
; 699  : 
; 700  : 	m_pToolTip->UpdateTipText(m_tooltext, this, 1);

  03620	6a 01		 push	 1
  03622	8b 55 f0	 mov	 edx, DWORD PTR _this$[ebp]
  03625	52		 push	 edx
  03626	8b 4d f0	 mov	 ecx, DWORD PTR _this$[ebp]
  03629	83 c1 78	 add	 ecx, 120		; 00000078H
  0362c	8b f4		 mov	 esi, esp
  0362e	ff 15 00 00 00
	00		 call	 DWORD PTR __imp_??B?$CSimpleStringT@D$00@ATL@@QBEPBDXZ
  03634	3b f4		 cmp	 esi, esp
  03636	e8 00 00 00 00	 call	 __RTC_CheckEsp
  0363b	50		 push	 eax
  0363c	8b 45 f0	 mov	 eax, DWORD PTR _this$[ebp]
  0363f	8b 48 74	 mov	 ecx, DWORD PTR [eax+116]
  03642	e8 00 00 00 00	 call	 ?UpdateTipText@CToolTipCtrl@@QAEXPBDPAVCWnd@@I@Z ; CToolTipCtrl::UpdateTipText

; 701  : 	m_pToolTip->SetDelayTime(2000);

  03647	68 d0 07 00 00	 push	 2000			; 000007d0H
  0364c	8b 4d f0	 mov	 ecx, DWORD PTR _this$[ebp]
  0364f	8b 49 74	 mov	 ecx, DWORD PTR [ecx+116]
  03652	e8 00 00 00 00	 call	 ?SetDelayTime@CToolTipCtrl@@QAEXI@Z ; CToolTipCtrl::SetDelayTime

; 702  : 	m_pToolTip->Activate(bActivate);

  03657	8b 55 0c	 mov	 edx, DWORD PTR _bActivate$[ebp]
  0365a	52		 push	 edx
  0365b	8b 45 f0	 mov	 eax, DWORD PTR _this$[ebp]
  0365e	8b 48 74	 mov	 ecx, DWORD PTR [eax+116]
  03661	e8 00 00 00 00	 call	 ?Activate@CToolTipCtrl@@QAEXH@Z ; CToolTipCtrl::Activate

; 703  : }

  03666	c7 45 fc ff ff
	ff ff		 mov	 DWORD PTR __$EHRec$[ebp+8], -1
  0366d	8b f4		 mov	 esi, esp
  0366f	8d 4d 08	 lea	 ecx, DWORD PTR _sText$[ebp]
  03672	ff 15 00 00 00
	00		 call	 DWORD PTR __imp_??1?$CStringT@DV?$StrTraitMFC_DLL@DV?$ChTraitsCRT@D@ATL@@@@@ATL@@QAE@XZ
  03678	3b f4		 cmp	 esi, esp
  0367a	e8 00 00 00 00	 call	 __RTC_CheckEsp
$L187562:
  0367f	52		 push	 edx
  03680	8b cd		 mov	 ecx, ebp
  03682	50		 push	 eax
  03683	8d 15 00 00 00
	00		 lea	 edx, DWORD PTR $L188474
  03689	e8 00 00 00 00	 call	 @_RTC_CheckStackVars@8
  0368e	58		 pop	 eax
  0368f	5a		 pop	 edx
  03690	8b 4d f4	 mov	 ecx, DWORD PTR __$EHRec$[ebp]
  03693	64 89 0d 00 00
	00 00		 mov	 DWORD PTR fs:__except_list, ecx
  0369a	5e		 pop	 esi
  0369b	83 c4 28	 add	 esp, 40			; 00000028H
  0369e	3b ec		 cmp	 ebp, esp
  036a0	e8 00 00 00 00	 call	 __RTC_CheckEsp
  036a5	8b e5		 mov	 esp, ebp
  036a7	5d		 pop	 ebp
  036a8	c2 08 00	 ret	 8
$L188474:
  036ab	01 00 00 00	 DD	 1
  036af	00 00 00 00	 DD	 $L188473
$L188473:
  036b3	dc ff ff ff	 DD	 -36			; ffffffdcH
  036b7	10 00 00 00	 DD	 16			; 00000010H
  036bb	00 00 00 00	 DD	 $L188471
$L188471:
  036bf	72		 DB	 114			; 00000072H
  036c0	65		 DB	 101			; 00000065H
  036c1	63		 DB	 99			; 00000063H
  036c2	74		 DB	 116			; 00000074H
  036c3	42		 DB	 66			; 00000042H
  036c4	74		 DB	 116			; 00000074H
  036c5	6e		 DB	 110			; 0000006eH
  036c6	00		 DB	 0
_TEXT	ENDS
text$x	SEGMENT
$L188468:
  0022c	8b f4		 mov	 esi, esp
  0022e	8d 4d 08	 lea	 ecx, DWORD PTR _sText$[ebp]
  00231	ff 15 00 00 00
	00		 call	 DWORD PTR __imp_??1?$CStringT@DV?$StrTraitMFC_DLL@DV?$ChTraitsCRT@D@ATL@@@@@ATL@@QAE@XZ
  00237	3b f4		 cmp	 esi, esp
  00239	e9 00 00 00 00	 jmp	 __RTC_CheckEsp
__ehhandler$?SetToolTipText@CSkinButton2@@QAEXV?$CStringT@DV?$StrTraitMFC_DLL@DV?$ChTraitsCRT@D@ATL@@@@@ATL@@H@Z:
  0023e	b8 00 00 00 00	 mov	 eax, OFFSET FLAT:$T188470
  00243	e9 00 00 00 00	 jmp	 ___CxxFrameHandler
text$x	ENDS
?SetToolTipText@CSkinButton2@@QAEXV?$CStringT@DV?$StrTraitMFC_DLL@DV?$ChTraitsCRT@D@ATL@@@@@ATL@@H@Z ENDP ; CSkinButton2::SetToolTipText
EXTRN	??2CObject@@SGPAXI@Z:NEAR			; CObject::operator new
EXTRN	??0CToolTipCtrl@@QAE@XZ:NEAR			; CToolTipCtrl::CToolTipCtrl
xdata$x	SEGMENT
$T188485 DD	0ffffffffH
	DD	FLAT:$L188481
$T188483 DD	019930520H
	DD	01H
	DD	FLAT:$T188485
	DD	2 DUP(00H)
	DD	2 DUP(00H)
; Function compile flags: /Odt /RTCsu
xdata$x	ENDS
_TEXT	SEGMENT
tv74 = -28						; size = 4
$T188478 = -24						; size = 4
$T188477 = -20						; size = 4
_this$ = -16						; size = 4
__$EHRec$ = -12						; size = 12
?InitToolTip@CSkinButton2@@IAEXXZ PROC NEAR		; CSkinButton2::InitToolTip
; _this$ = ecx

; 706  : {

  036d0	55		 push	 ebp
  036d1	8b ec		 mov	 ebp, esp
  036d3	6a ff		 push	 -1
  036d5	68 00 00 00 00	 push	 __ehhandler$?InitToolTip@CSkinButton2@@IAEXXZ
  036da	64 a1 00 00 00
	00		 mov	 eax, DWORD PTR fs:__except_list
  036e0	50		 push	 eax
  036e1	64 89 25 00 00
	00 00		 mov	 DWORD PTR fs:__except_list, esp
  036e8	83 ec 10	 sub	 esp, 16			; 00000010H
  036eb	56		 push	 esi
  036ec	b8 cc cc cc cc	 mov	 eax, -858993460		; ccccccccH
  036f1	89 45 e4	 mov	 DWORD PTR [ebp-28], eax
  036f4	89 45 e8	 mov	 DWORD PTR [ebp-24], eax
  036f7	89 45 ec	 mov	 DWORD PTR [ebp-20], eax
  036fa	89 45 f0	 mov	 DWORD PTR [ebp-16], eax
  036fd	89 4d f0	 mov	 DWORD PTR _this$[ebp], ecx

; 707  : 	if (m_pToolTip == NULL)

  03700	8b 45 f0	 mov	 eax, DWORD PTR _this$[ebp]
  03703	83 78 74 00	 cmp	 DWORD PTR [eax+116], 0
  03707	75 71		 jne	 SHORT $L187568

; 708  : 	{
; 709  : 		m_pToolTip = new CToolTipCtrl;

  03709	6a 70		 push	 112			; 00000070H
  0370b	e8 00 00 00 00	 call	 ??2CObject@@SGPAXI@Z	; CObject::operator new
  03710	89 45 e8	 mov	 DWORD PTR $T188478[ebp], eax
  03713	c7 45 fc 00 00
	00 00		 mov	 DWORD PTR __$EHRec$[ebp+8], 0
  0371a	83 7d e8 00	 cmp	 DWORD PTR $T188478[ebp], 0
  0371e	74 0d		 je	 SHORT $L188479
  03720	8b 4d e8	 mov	 ecx, DWORD PTR $T188478[ebp]
  03723	e8 00 00 00 00	 call	 ??0CToolTipCtrl@@QAE@XZ	; CToolTipCtrl::CToolTipCtrl
  03728	89 45 e4	 mov	 DWORD PTR tv74[ebp], eax
  0372b	eb 07		 jmp	 SHORT $L188480
$L188479:
  0372d	c7 45 e4 00 00
	00 00		 mov	 DWORD PTR tv74[ebp], 0
$L188480:
  03734	8b 4d e4	 mov	 ecx, DWORD PTR tv74[ebp]
  03737	89 4d ec	 mov	 DWORD PTR $T188477[ebp], ecx
  0373a	c7 45 fc ff ff
	ff ff		 mov	 DWORD PTR __$EHRec$[ebp+8], -1
  03741	8b 55 f0	 mov	 edx, DWORD PTR _this$[ebp]
  03744	8b 45 ec	 mov	 eax, DWORD PTR $T188477[ebp]
  03747	89 42 74	 mov	 DWORD PTR [edx+116], eax

; 710  : 		// Create ToolTip control
; 711  : 		m_pToolTip->Create(this);

  0374a	8b f4		 mov	 esi, esp
  0374c	6a 00		 push	 0
  0374e	8b 4d f0	 mov	 ecx, DWORD PTR _this$[ebp]
  03751	51		 push	 ecx
  03752	8b 55 f0	 mov	 edx, DWORD PTR _this$[ebp]
  03755	8b 42 74	 mov	 eax, DWORD PTR [edx+116]
  03758	8b 4d f0	 mov	 ecx, DWORD PTR _this$[ebp]
  0375b	8b 49 74	 mov	 ecx, DWORD PTR [ecx+116]
  0375e	8b 10		 mov	 edx, DWORD PTR [eax]
  03760	ff 92 38 01 00
	00		 call	 DWORD PTR [edx+312]
  03766	3b f4		 cmp	 esi, esp
  03768	e8 00 00 00 00	 call	 __RTC_CheckEsp

; 712  : 		m_pToolTip->Activate(TRUE);

  0376d	6a 01		 push	 1
  0376f	8b 45 f0	 mov	 eax, DWORD PTR _this$[ebp]
  03772	8b 48 74	 mov	 ecx, DWORD PTR [eax+116]
  03775	e8 00 00 00 00	 call	 ?Activate@CToolTipCtrl@@QAEXH@Z ; CToolTipCtrl::Activate
$L187568:

; 713  : 	}
; 714  : } 

  0377a	8b 4d f4	 mov	 ecx, DWORD PTR __$EHRec$[ebp]
  0377d	64 89 0d 00 00
	00 00		 mov	 DWORD PTR fs:__except_list, ecx
  03784	5e		 pop	 esi
  03785	83 c4 1c	 add	 esp, 28			; 0000001cH
  03788	3b ec		 cmp	 ebp, esp
  0378a	e8 00 00 00 00	 call	 __RTC_CheckEsp
  0378f	8b e5		 mov	 esp, ebp
  03791	5d		 pop	 ebp
  03792	c3		 ret	 0
_TEXT	ENDS
text$x	SEGMENT
$L188481:
  00248	8b 45 e8	 mov	 eax, DWORD PTR $T188478[ebp]
  0024b	50		 push	 eax
  0024c	e8 00 00 00 00	 call	 ??3CObject@@SGXPAX@Z	; CObject::operator delete
  00251	c3		 ret	 0
__ehhandler$?InitToolTip@CSkinButton2@@IAEXXZ:
  00252	b8 00 00 00 00	 mov	 eax, OFFSET FLAT:$T188483
  00257	e9 00 00 00 00	 jmp	 ___CxxFrameHandler
text$x	ENDS
?InitToolTip@CSkinButton2@@IAEXXZ ENDP			; CSkinButton2::InitToolTip
; Function compile flags: /Odt /RTCsu
_TEXT	SEGMENT
tv73 = -16						; size = 4
$T188488 = -12						; size = 4
$T188487 = -8						; size = 4
_this$ = -4						; size = 4
?DeleteToolTip@CSkinButton2@@QAEXXZ PROC NEAR		; CSkinButton2::DeleteToolTip
; _this$ = ecx

; 717  : {

  037a0	55		 push	 ebp
  037a1	8b ec		 mov	 ebp, esp
  037a3	83 ec 10	 sub	 esp, 16			; 00000010H
  037a6	56		 push	 esi
  037a7	b8 cc cc cc cc	 mov	 eax, -858993460		; ccccccccH
  037ac	89 45 f0	 mov	 DWORD PTR [ebp-16], eax
  037af	89 45 f4	 mov	 DWORD PTR [ebp-12], eax
  037b2	89 45 f8	 mov	 DWORD PTR [ebp-8], eax
  037b5	89 45 fc	 mov	 DWORD PTR [ebp-4], eax
  037b8	89 4d fc	 mov	 DWORD PTR _this$[ebp], ecx

; 718  : 	if (m_pToolTip != NULL)

  037bb	8b 45 fc	 mov	 eax, DWORD PTR _this$[ebp]
  037be	83 78 74 00	 cmp	 DWORD PTR [eax+116], 0
  037c2	74 41		 je	 SHORT $L187576

; 719  : 	{
; 720  : 		delete m_pToolTip;

  037c4	8b 4d fc	 mov	 ecx, DWORD PTR _this$[ebp]
  037c7	8b 51 74	 mov	 edx, DWORD PTR [ecx+116]
  037ca	89 55 f4	 mov	 DWORD PTR $T188488[ebp], edx
  037cd	8b 45 f4	 mov	 eax, DWORD PTR $T188488[ebp]
  037d0	89 45 f8	 mov	 DWORD PTR $T188487[ebp], eax
  037d3	83 7d f8 00	 cmp	 DWORD PTR $T188487[ebp], 0
  037d7	74 1b		 je	 SHORT $L188489
  037d9	8b f4		 mov	 esi, esp
  037db	6a 01		 push	 1
  037dd	8b 4d f8	 mov	 ecx, DWORD PTR $T188487[ebp]
  037e0	8b 11		 mov	 edx, DWORD PTR [ecx]
  037e2	8b 4d f8	 mov	 ecx, DWORD PTR $T188487[ebp]
  037e5	ff 52 04	 call	 DWORD PTR [edx+4]
  037e8	3b f4		 cmp	 esi, esp
  037ea	e8 00 00 00 00	 call	 __RTC_CheckEsp
  037ef	89 45 f0	 mov	 DWORD PTR tv73[ebp], eax
  037f2	eb 07		 jmp	 SHORT $L188490
$L188489:
  037f4	c7 45 f0 00 00
	00 00		 mov	 DWORD PTR tv73[ebp], 0
$L188490:

; 721  : 		m_pToolTip = NULL;

  037fb	8b 45 fc	 mov	 eax, DWORD PTR _this$[ebp]
  037fe	c7 40 74 00 00
	00 00		 mov	 DWORD PTR [eax+116], 0
$L187576:

; 722  : 	}
; 723  : }

  03805	5e		 pop	 esi
  03806	83 c4 10	 add	 esp, 16			; 00000010H
  03809	3b ec		 cmp	 ebp, esp
  0380b	e8 00 00 00 00	 call	 __RTC_CheckEsp
  03810	8b e5		 mov	 esp, ebp
  03812	5d		 pop	 ebp
  03813	c3		 ret	 0
?DeleteToolTip@CSkinButton2@@QAEXXZ ENDP		; CSkinButton2::DeleteToolTip
_TEXT	ENDS
PUBLIC	?GetSkinSize@CSkinButton2@@QAE?AVCSize@@XZ	; CSkinButton2::GetSkinSize
EXTRN	??0CSize@@QAE@HH@Z:NEAR				; CSize::CSize
; Function compile flags: /Odt /RTCsu
_TEXT	SEGMENT
_size$ = -16						; size = 8
_this$ = -4						; size = 4
___$ReturnUdt$ = 8					; size = 4
?GetSkinSize@CSkinButton2@@QAE?AVCSize@@XZ PROC NEAR	; CSkinButton2::GetSkinSize
; _this$ = ecx

; 725  : {

  03820	55		 push	 ebp
  03821	8b ec		 mov	 ebp, esp
  03823	83 ec 14	 sub	 esp, 20			; 00000014H
  03826	b8 cc cc cc cc	 mov	 eax, -858993460		; ccccccccH
  0382b	89 45 ec	 mov	 DWORD PTR [ebp-20], eax
  0382e	89 45 f0	 mov	 DWORD PTR [ebp-16], eax
  03831	89 45 f4	 mov	 DWORD PTR [ebp-12], eax
  03834	89 45 f8	 mov	 DWORD PTR [ebp-8], eax
  03837	89 45 fc	 mov	 DWORD PTR [ebp-4], eax
  0383a	89 4d fc	 mov	 DWORD PTR _this$[ebp], ecx

; 726  : 	CSize size(0,0);

  0383d	6a 00		 push	 0
  0383f	6a 00		 push	 0
  03841	8d 4d f0	 lea	 ecx, DWORD PTR _size$[ebp]
  03844	e8 00 00 00 00	 call	 ??0CSize@@QAE@HH@Z	; CSize::CSize

; 727  : 	if( NULL != m_pPngImage )

  03849	8b 45 fc	 mov	 eax, DWORD PTR _this$[ebp]
  0384c	83 78 7c 00	 cmp	 DWORD PTR [eax+124], 0
  03850	74 22		 je	 SHORT $L187585

; 728  : 	{
; 729  : 		size.cx = m_pPngImage->m_pBitmap->GetWidth();

  03852	8b 4d fc	 mov	 ecx, DWORD PTR _this$[ebp]
  03855	8b 51 7c	 mov	 edx, DWORD PTR [ecx+124]
  03858	8b 4a 04	 mov	 ecx, DWORD PTR [edx+4]
  0385b	e8 00 00 00 00	 call	 ?GetWidth@Image@Gdiplus@@QAEIXZ ; Gdiplus::Image::GetWidth
  03860	89 45 f0	 mov	 DWORD PTR _size$[ebp], eax

; 730  : 		size.cy = m_pPngImage->m_pBitmap->GetHeight();

  03863	8b 45 fc	 mov	 eax, DWORD PTR _this$[ebp]
  03866	8b 48 7c	 mov	 ecx, DWORD PTR [eax+124]
  03869	8b 49 04	 mov	 ecx, DWORD PTR [ecx+4]
  0386c	e8 00 00 00 00	 call	 ?GetHeight@Image@Gdiplus@@QAEIXZ ; Gdiplus::Image::GetHeight
  03871	89 45 f4	 mov	 DWORD PTR _size$[ebp+4], eax
$L187585:

; 731  : 	}
; 732  : 	return size;

  03874	8b 55 08	 mov	 edx, DWORD PTR ___$ReturnUdt$[ebp]
  03877	8b 45 f0	 mov	 eax, DWORD PTR _size$[ebp]
  0387a	89 02		 mov	 DWORD PTR [edx], eax
  0387c	8b 4d f4	 mov	 ecx, DWORD PTR _size$[ebp+4]
  0387f	89 4a 04	 mov	 DWORD PTR [edx+4], ecx
  03882	8b 45 08	 mov	 eax, DWORD PTR ___$ReturnUdt$[ebp]

; 733  : }

  03885	52		 push	 edx
  03886	8b cd		 mov	 ecx, ebp
  03888	50		 push	 eax
  03889	8d 15 00 00 00
	00		 lea	 edx, DWORD PTR $L188494
  0388f	e8 00 00 00 00	 call	 @_RTC_CheckStackVars@8
  03894	58		 pop	 eax
  03895	5a		 pop	 edx
  03896	83 c4 14	 add	 esp, 20			; 00000014H
  03899	3b ec		 cmp	 ebp, esp
  0389b	e8 00 00 00 00	 call	 __RTC_CheckEsp
  038a0	8b e5		 mov	 esp, ebp
  038a2	5d		 pop	 ebp
  038a3	c2 04 00	 ret	 4
$L188494:
  038a6	01 00 00 00	 DD	 1
  038aa	00 00 00 00	 DD	 $L188493
$L188493:
  038ae	f0 ff ff ff	 DD	 -16			; fffffff0H
  038b2	08 00 00 00	 DD	 8
  038b6	00 00 00 00	 DD	 $L188492
$L188492:
  038ba	73		 DB	 115			; 00000073H
  038bb	69		 DB	 105			; 00000069H
  038bc	7a		 DB	 122			; 0000007aH
  038bd	65		 DB	 101			; 00000065H
  038be	00		 DB	 0
?GetSkinSize@CSkinButton2@@QAE?AVCSize@@XZ ENDP		; CSkinButton2::GetSkinSize
_TEXT	ENDS
PUBLIC	??_7CMemDC@@6B@					; CMemDC::`vftable'
PUBLIC	??_GCMemDC@@UAEPAXI@Z				; CMemDC::`scalar deleting destructor'
PUBLIC	??_R4CMemDC@@6B@				; CMemDC::`RTTI Complete Object Locator'
PUBLIC	??_R0?AVCMemDC@@@8				; CMemDC `RTTI Type Descriptor'
PUBLIC	??_R3CMemDC@@8					; CMemDC::`RTTI Class Hierarchy Descriptor'
PUBLIC	??_R2CMemDC@@8					; CMemDC::`RTTI Base Class Array'
PUBLIC	??_R1A@?0A@A@CMemDC@@8				; CMemDC::`RTTI Base Class Descriptor at (0,-1,0,0)'
PUBLIC	??_R1A@?0A@A@CDC@@8				; CDC::`RTTI Base Class Descriptor at (0,-1,0,0)'
PUBLIC	??_R0?AVCDC@@@8					; CDC `RTTI Type Descriptor'
EXTRN	?TextOutA@CDC@@UAEHHHPBDH@Z:NEAR		; CDC::TextOutA
EXTRN	?ExtTextOutA@CDC@@UAEHHHIPBUtagRECT@@PBDIPAH@Z:NEAR ; CDC::ExtTextOutA
EXTRN	?TabbedTextOutA@CDC@@UAE?AVCSize@@HHPBDHHPAHH@Z:NEAR ; CDC::TabbedTextOutA
EXTRN	?DrawTextA@CDC@@UAEHPBDHPAUtagRECT@@I@Z:NEAR	; CDC::DrawTextA
EXTRN	?DrawTextExA@CDC@@UAEHPADHPAUtagRECT@@IPAUtagDRAWTEXTPARAMS@@@Z:NEAR ; CDC::DrawTextExA
EXTRN	?GrayStringA@CDC@@UAEHPAVCBrush@@P6GHPAUHDC__@@JH@ZJHHHHH@Z:NEAR ; CDC::GrayStringA
EXTRN	?Escape@CDC@@UAEHHHPBDPAX@Z:NEAR		; CDC::Escape
EXTRN	?AssertValid@CDC@@UBEXXZ:NEAR			; CDC::AssertValid
EXTRN	?Dump@CDC@@UBEXAAVCDumpContext@@@Z:NEAR		; CDC::Dump
EXTRN	??_ECMemDC@@UAEPAXI@Z:NEAR			; CMemDC::`vector deleting destructor'
EXTRN	?GetRuntimeClass@CDC@@UBEPAUCRuntimeClass@@XZ:NEAR ; CDC::GetRuntimeClass
EXTRN	?SetAttribDC@CDC@@UAEXPAUHDC__@@@Z:NEAR		; CDC::SetAttribDC
EXTRN	?SetOutputDC@CDC@@UAEXPAUHDC__@@@Z:NEAR		; CDC::SetOutputDC
EXTRN	?ReleaseAttribDC@CDC@@UAEXXZ:NEAR		; CDC::ReleaseAttribDC
EXTRN	?ReleaseOutputDC@CDC@@UAEXXZ:NEAR		; CDC::ReleaseOutputDC
EXTRN	?SaveDC@CDC@@UAEHXZ:NEAR			; CDC::SaveDC
EXTRN	?RestoreDC@CDC@@UAEHH@Z:NEAR			; CDC::RestoreDC
EXTRN	?SelectStockObject@CDC@@UAEPAVCGdiObject@@H@Z:NEAR ; CDC::SelectStockObject
EXTRN	?SelectObject@CDC@@UAEPAVCFont@@PAV2@@Z:NEAR	; CDC::SelectObject
EXTRN	?SetBkColor@CDC@@UAEKK@Z:NEAR			; CDC::SetBkColor
EXTRN	?SetTextColor@CDC@@UAEKK@Z:NEAR			; CDC::SetTextColor
EXTRN	?SetMapMode@CDC@@UAEHH@Z:NEAR			; CDC::SetMapMode
EXTRN	?SetViewportOrg@CDC@@UAE?AVCPoint@@HH@Z:NEAR	; CDC::SetViewportOrg
EXTRN	?OffsetViewportOrg@CDC@@UAE?AVCPoint@@HH@Z:NEAR	; CDC::OffsetViewportOrg
EXTRN	?SetViewportExt@CDC@@UAE?AVCSize@@HH@Z:NEAR	; CDC::SetViewportExt
EXTRN	?ScaleViewportExt@CDC@@UAE?AVCSize@@HHHH@Z:NEAR	; CDC::ScaleViewportExt
EXTRN	?SetWindowExt@CDC@@UAE?AVCSize@@HH@Z:NEAR	; CDC::SetWindowExt
EXTRN	?ScaleWindowExt@CDC@@UAE?AVCSize@@HHHH@Z:NEAR	; CDC::ScaleWindowExt
EXTRN	?GetClipBox@CDC@@UBEHPAUtagRECT@@@Z:NEAR	; CDC::GetClipBox
EXTRN	?PtVisible@CDC@@UBEHHH@Z:NEAR			; CDC::PtVisible
EXTRN	?RectVisible@CDC@@UBEHPBUtagRECT@@@Z:NEAR	; CDC::RectVisible
;	COMDAT xdata$x
; File d:\boxgit\playbox\playbox\dev\prj\playbox\src\gui\commoncontrol\listctrol\gdiex.h
xdata$x	SEGMENT
$T188505 DD	0ffffffffH
	DD	FLAT:$L188500
	DD	00H
	DD	FLAT:$L188501
$T188503 DD	019930520H
	DD	02H
	DD	FLAT:$T188505
	DD	2 DUP(00H)
	DD	2 DUP(00H)
xdata$x	ENDS
;	COMDAT ??_7CMemDC@@6B@
CONST	SEGMENT
??_7CMemDC@@6B@ DD FLAT:??_R4CMemDC@@6B@		; CMemDC::`vftable'
	DD	FLAT:?GetRuntimeClass@CDC@@UBEPAUCRuntimeClass@@XZ
	DD	FLAT:??_ECMemDC@@UAEPAXI@Z
	DD	FLAT:?Serialize@CObject@@UAEXAAVCArchive@@@Z
	DD	FLAT:?AssertValid@CDC@@UBEXXZ
	DD	FLAT:?Dump@CDC@@UBEXAAVCDumpContext@@@Z
	DD	FLAT:?SetAttribDC@CDC@@UAEXPAUHDC__@@@Z
	DD	FLAT:?SetOutputDC@CDC@@UAEXPAUHDC__@@@Z
	DD	FLAT:?ReleaseAttribDC@CDC@@UAEXXZ
	DD	FLAT:?ReleaseOutputDC@CDC@@UAEXXZ
	DD	FLAT:?SaveDC@CDC@@UAEHXZ
	DD	FLAT:?RestoreDC@CDC@@UAEHH@Z
	DD	FLAT:?SelectStockObject@CDC@@UAEPAVCGdiObject@@H@Z
	DD	FLAT:?SelectObject@CDC@@UAEPAVCFont@@PAV2@@Z
	DD	FLAT:?SetBkColor@CDC@@UAEKK@Z
	DD	FLAT:?SetTextColor@CDC@@UAEKK@Z
	DD	FLAT:?SetMapMode@CDC@@UAEHH@Z
	DD	FLAT:?SetViewportOrg@CDC@@UAE?AVCPoint@@HH@Z
	DD	FLAT:?OffsetViewportOrg@CDC@@UAE?AVCPoint@@HH@Z
	DD	FLAT:?SetViewportExt@CDC@@UAE?AVCSize@@HH@Z
	DD	FLAT:?ScaleViewportExt@CDC@@UAE?AVCSize@@HHHH@Z
	DD	FLAT:?SetWindowExt@CDC@@UAE?AVCSize@@HH@Z
	DD	FLAT:?ScaleWindowExt@CDC@@UAE?AVCSize@@HHHH@Z
	DD	FLAT:?GetClipBox@CDC@@UBEHPAUtagRECT@@@Z
	DD	FLAT:?PtVisible@CDC@@UBEHHH@Z
	DD	FLAT:?RectVisible@CDC@@UBEHPBUtagRECT@@@Z
	DD	FLAT:?TextOutA@CDC@@UAEHHHPBDH@Z
	DD	FLAT:?ExtTextOutA@CDC@@UAEHHHIPBUtagRECT@@PBDIPAH@Z
	DD	FLAT:?TabbedTextOutA@CDC@@UAE?AVCSize@@HHPBDHHPAHH@Z
	DD	FLAT:?DrawTextA@CDC@@UAEHPBDHPAUtagRECT@@I@Z
	DD	FLAT:?DrawTextExA@CDC@@UAEHPADHPAUtagRECT@@IPAUtagDRAWTEXTPARAMS@@@Z
	DD	FLAT:?GrayStringA@CDC@@UAEHPAVCBrush@@P6GHPAUHDC__@@JH@ZJHHHHH@Z
	DD	FLAT:?Escape@CDC@@UAEHHHPBDPAX@Z
CONST	ENDS
;	COMDAT ??_R4CMemDC@@6B@
rdata$r	SEGMENT
??_R4CMemDC@@6B@ DD 00H					; CMemDC::`RTTI Complete Object Locator'
	DD	00H
	DD	00H
	DD	FLAT:??_R0?AVCMemDC@@@8
	DD	FLAT:??_R3CMemDC@@8
rdata$r	ENDS
;	COMDAT ??_R0?AVCMemDC@@@8
_DATA	SEGMENT
??_R0?AVCMemDC@@@8 DD FLAT:??_7type_info@@6B@		; CMemDC `RTTI Type Descriptor'
	DD	00H
	DB	'.?AVCMemDC@@', 00H
_DATA	ENDS
;	COMDAT ??_R3CMemDC@@8
rdata$r	SEGMENT
??_R3CMemDC@@8 DD 00H					; CMemDC::`RTTI Class Hierarchy Descriptor'
	DD	00H
	DD	03H
	DD	FLAT:??_R2CMemDC@@8
rdata$r	ENDS
;	COMDAT ??_R2CMemDC@@8
rdata$r	SEGMENT
??_R2CMemDC@@8 DD FLAT:??_R1A@?0A@A@CMemDC@@8		; CMemDC::`RTTI Base Class Array'
	DD	FLAT:??_R1A@?0A@A@CDC@@8
	DD	FLAT:??_R1A@?0A@A@CObject@@8
rdata$r	ENDS
;	COMDAT ??_R1A@?0A@A@CMemDC@@8
rdata$r	SEGMENT
??_R1A@?0A@A@CMemDC@@8 DD FLAT:??_R0?AVCMemDC@@@8	; CMemDC::`RTTI Base Class Descriptor at (0,-1,0,0)'
	DD	02H
	DD	00H
	DD	0ffffffffH
	DD	00H
	DD	00H
rdata$r	ENDS
;	COMDAT ??_R1A@?0A@A@CDC@@8
rdata$r	SEGMENT
??_R1A@?0A@A@CDC@@8 DD FLAT:??_R0?AVCDC@@@8		; CDC::`RTTI Base Class Descriptor at (0,-1,0,0)'
	DD	01H
	DD	00H
	DD	0ffffffffH
	DD	00H
	DD	00H
rdata$r	ENDS
;	COMDAT ??_R0?AVCDC@@@8
_DATA	SEGMENT
??_R0?AVCDC@@@8 DD FLAT:??_7type_info@@6B@		; CDC `RTTI Type Descriptor'
	DD	00H
	DB	'.?AVCDC@@', 00H
; Function compile flags: /Odt /RTCsu
_DATA	ENDS
;	COMDAT ??0CMemDC@@QAE@PAVCDC@@ABVCRect@@@Z
_TEXT	SEGMENT
tv79 = -28						; size = 4
$T188497 = -24						; size = 4
$T188496 = -20						; size = 4
_this$ = -16						; size = 4
__$EHRec$ = -12						; size = 12
_apDC$ = 8						; size = 4
_arcBounds$ = 12					; size = 4
??0CMemDC@@QAE@PAVCDC@@ABVCRect@@@Z PROC NEAR		; CMemDC::CMemDC, COMDAT
; _this$ = ecx

; 69   : 	{

  00000	55		 push	 ebp
  00001	8b ec		 mov	 ebp, esp
  00003	6a ff		 push	 -1
  00005	68 00 00 00 00	 push	 __ehhandler$??0CMemDC@@QAE@PAVCDC@@ABVCRect@@@Z
  0000a	64 a1 00 00 00
	00		 mov	 eax, DWORD PTR fs:__except_list
  00010	50		 push	 eax
  00011	64 89 25 00 00
	00 00		 mov	 DWORD PTR fs:__except_list, esp
  00018	83 ec 10	 sub	 esp, 16			; 00000010H
  0001b	b8 cc cc cc cc	 mov	 eax, -858993460		; ccccccccH
  00020	89 45 e4	 mov	 DWORD PTR [ebp-28], eax
  00023	89 45 e8	 mov	 DWORD PTR [ebp-24], eax
  00026	89 45 ec	 mov	 DWORD PTR [ebp-20], eax
  00029	89 45 f0	 mov	 DWORD PTR [ebp-16], eax
  0002c	89 4d f0	 mov	 DWORD PTR _this$[ebp], ecx
  0002f	8b 4d f0	 mov	 ecx, DWORD PTR _this$[ebp]
  00032	e8 00 00 00 00	 call	 ??0CDC@@QAE@XZ		; CDC::CDC
  00037	c7 45 fc 00 00
	00 00		 mov	 DWORD PTR __$EHRec$[ebp+8], 0
  0003e	8b 45 f0	 mov	 eax, DWORD PTR _this$[ebp]
  00041	c7 00 00 00 00
	00		 mov	 DWORD PTR [eax], OFFSET FLAT:??_7CMemDC@@6B@
  00047	8b 4d f0	 mov	 ecx, DWORD PTR _this$[ebp]
  0004a	83 c1 1c	 add	 ecx, 28			; 0000001cH
  0004d	e8 00 00 00 00	 call	 ??0CRect@@QAE@XZ	; CRect::CRect

; 70   : 		CreateCompatibleDC(apDC);

  00052	8b 4d 08	 mov	 ecx, DWORD PTR _apDC$[ebp]
  00055	51		 push	 ecx
  00056	8b 4d f0	 mov	 ecx, DWORD PTR _this$[ebp]
  00059	e8 00 00 00 00	 call	 ?CreateCompatibleDC@CDC@@QAEHPAV1@@Z ; CDC::CreateCompatibleDC

; 71   : 		mpBitmap = new CBitmap;

  0005e	6a 08		 push	 8
  00060	e8 00 00 00 00	 call	 ??2CObject@@SGPAXI@Z	; CObject::operator new
  00065	89 45 e8	 mov	 DWORD PTR $T188497[ebp], eax
  00068	c6 45 fc 01	 mov	 BYTE PTR __$EHRec$[ebp+8], 1
  0006c	83 7d e8 00	 cmp	 DWORD PTR $T188497[ebp], 0
  00070	74 0d		 je	 SHORT $L188498
  00072	8b 4d e8	 mov	 ecx, DWORD PTR $T188497[ebp]
  00075	e8 00 00 00 00	 call	 ??0CBitmap@@QAE@XZ	; CBitmap::CBitmap
  0007a	89 45 e4	 mov	 DWORD PTR tv79[ebp], eax
  0007d	eb 07		 jmp	 SHORT $L188499
$L188498:
  0007f	c7 45 e4 00 00
	00 00		 mov	 DWORD PTR tv79[ebp], 0
$L188499:
  00086	8b 55 e4	 mov	 edx, DWORD PTR tv79[ebp]
  00089	89 55 ec	 mov	 DWORD PTR $T188496[ebp], edx
  0008c	c6 45 fc 00	 mov	 BYTE PTR __$EHRec$[ebp+8], 0
  00090	8b 45 f0	 mov	 eax, DWORD PTR _this$[ebp]
  00093	8b 4d ec	 mov	 ecx, DWORD PTR $T188496[ebp]
  00096	89 48 10	 mov	 DWORD PTR [eax+16], ecx

; 72   : 		mpBitmap->CreateCompatibleBitmap(apDC, arcBounds.Width() + arcBounds.left, arcBounds.Height() + arcBounds.top);

  00099	8b 4d 0c	 mov	 ecx, DWORD PTR _arcBounds$[ebp]
  0009c	e8 00 00 00 00	 call	 ?Height@CRect@@QBEHXZ	; CRect::Height
  000a1	8b 55 0c	 mov	 edx, DWORD PTR _arcBounds$[ebp]
  000a4	03 42 04	 add	 eax, DWORD PTR [edx+4]
  000a7	50		 push	 eax
  000a8	8b 4d 0c	 mov	 ecx, DWORD PTR _arcBounds$[ebp]
  000ab	e8 00 00 00 00	 call	 ?Width@CRect@@QBEHXZ	; CRect::Width
  000b0	8b 4d 0c	 mov	 ecx, DWORD PTR _arcBounds$[ebp]
  000b3	03 01		 add	 eax, DWORD PTR [ecx]
  000b5	50		 push	 eax
  000b6	8b 55 08	 mov	 edx, DWORD PTR _apDC$[ebp]
  000b9	52		 push	 edx
  000ba	8b 45 f0	 mov	 eax, DWORD PTR _this$[ebp]
  000bd	8b 48 10	 mov	 ecx, DWORD PTR [eax+16]
  000c0	e8 00 00 00 00	 call	 ?CreateCompatibleBitmap@CBitmap@@QAEHPAVCDC@@HH@Z ; CBitmap::CreateCompatibleBitmap

; 73   : 		mpOldBitmap = SelectObject(mpBitmap);

  000c5	8b 4d f0	 mov	 ecx, DWORD PTR _this$[ebp]
  000c8	8b 51 10	 mov	 edx, DWORD PTR [ecx+16]
  000cb	52		 push	 edx
  000cc	8b 4d f0	 mov	 ecx, DWORD PTR _this$[ebp]
  000cf	e8 00 00 00 00	 call	 ?SelectObject@CDC@@QAEPAVCBitmap@@PAV2@@Z ; CDC::SelectObject
  000d4	8b 4d f0	 mov	 ecx, DWORD PTR _this$[ebp]
  000d7	89 41 14	 mov	 DWORD PTR [ecx+20], eax

; 74   : 		mpDC = apDC;

  000da	8b 55 f0	 mov	 edx, DWORD PTR _this$[ebp]
  000dd	8b 45 08	 mov	 eax, DWORD PTR _apDC$[ebp]
  000e0	89 42 18	 mov	 DWORD PTR [edx+24], eax

; 75   : 		mrcBounds = arcBounds;

  000e3	8b 4d 0c	 mov	 ecx, DWORD PTR _arcBounds$[ebp]
  000e6	8b 55 f0	 mov	 edx, DWORD PTR _this$[ebp]
  000e9	83 c2 1c	 add	 edx, 28			; 0000001cH
  000ec	8b 01		 mov	 eax, DWORD PTR [ecx]
  000ee	89 02		 mov	 DWORD PTR [edx], eax
  000f0	8b 41 04	 mov	 eax, DWORD PTR [ecx+4]
  000f3	89 42 04	 mov	 DWORD PTR [edx+4], eax
  000f6	8b 41 08	 mov	 eax, DWORD PTR [ecx+8]
  000f9	89 42 08	 mov	 DWORD PTR [edx+8], eax
  000fc	8b 49 0c	 mov	 ecx, DWORD PTR [ecx+12]
  000ff	89 4a 0c	 mov	 DWORD PTR [edx+12], ecx

; 76   : 	}

  00102	c7 45 fc ff ff
	ff ff		 mov	 DWORD PTR __$EHRec$[ebp+8], -1
  00109	8b 45 f0	 mov	 eax, DWORD PTR _this$[ebp]
  0010c	8b 4d f4	 mov	 ecx, DWORD PTR __$EHRec$[ebp]
  0010f	64 89 0d 00 00
	00 00		 mov	 DWORD PTR fs:__except_list, ecx
  00116	83 c4 1c	 add	 esp, 28			; 0000001cH
  00119	3b ec		 cmp	 ebp, esp
  0011b	e8 00 00 00 00	 call	 __RTC_CheckEsp
  00120	8b e5		 mov	 esp, ebp
  00122	5d		 pop	 ebp
  00123	c2 08 00	 ret	 8
_TEXT	ENDS
;	COMDAT text$x
text$x	SEGMENT
$L188500:
  00000	8b 4d f0	 mov	 ecx, DWORD PTR _this$[ebp]
  00003	e9 00 00 00 00	 jmp	 ??1CDC@@UAE@XZ		; CDC::~CDC
$L188501:
  00008	8b 45 e8	 mov	 eax, DWORD PTR $T188497[ebp]
  0000b	50		 push	 eax
  0000c	e8 00 00 00 00	 call	 ??3CObject@@SGXPAX@Z	; CObject::operator delete
  00011	c3		 ret	 0
__ehhandler$??0CMemDC@@QAE@PAVCDC@@ABVCRect@@@Z:
  00012	b8 00 00 00 00	 mov	 eax, OFFSET FLAT:$T188503
  00017	e9 00 00 00 00	 jmp	 ___CxxFrameHandler
text$x	ENDS
??0CMemDC@@QAE@PAVCDC@@ABVCRect@@@Z ENDP		; CMemDC::CMemDC
;	COMDAT xdata$x
xdata$x	SEGMENT
$T188517 DD	0ffffffffH
	DD	FLAT:$L188513
$T188515 DD	019930520H
	DD	01H
	DD	FLAT:$T188517
	DD	2 DUP(00H)
	DD	2 DUP(00H)
; Function compile flags: /Odt /RTCsu
xdata$x	ENDS
;	COMDAT ??1CMemDC@@UAE@XZ
_TEXT	SEGMENT
tv134 = -28						; size = 4
$T188510 = -24						; size = 4
$T188509 = -20						; size = 4
_this$ = -16						; size = 4
__$EHRec$ = -12						; size = 12
??1CMemDC@@UAE@XZ PROC NEAR				; CMemDC::~CMemDC, COMDAT
; _this$ = ecx

; 78   : 	{

  00000	55		 push	 ebp
  00001	8b ec		 mov	 ebp, esp
  00003	6a ff		 push	 -1
  00005	68 00 00 00 00	 push	 __ehhandler$??1CMemDC@@UAE@XZ
  0000a	64 a1 00 00 00
	00		 mov	 eax, DWORD PTR fs:__except_list
  00010	50		 push	 eax
  00011	64 89 25 00 00
	00 00		 mov	 DWORD PTR fs:__except_list, esp
  00018	83 ec 10	 sub	 esp, 16			; 00000010H
  0001b	56		 push	 esi
  0001c	b8 cc cc cc cc	 mov	 eax, -858993460		; ccccccccH
  00021	89 45 e4	 mov	 DWORD PTR [ebp-28], eax
  00024	89 45 e8	 mov	 DWORD PTR [ebp-24], eax
  00027	89 45 ec	 mov	 DWORD PTR [ebp-20], eax
  0002a	89 45 f0	 mov	 DWORD PTR [ebp-16], eax
  0002d	89 4d f0	 mov	 DWORD PTR _this$[ebp], ecx
  00030	8b 45 f0	 mov	 eax, DWORD PTR _this$[ebp]
  00033	c7 00 00 00 00
	00		 mov	 DWORD PTR [eax], OFFSET FLAT:??_7CMemDC@@6B@
  00039	c7 45 fc 00 00
	00 00		 mov	 DWORD PTR __$EHRec$[ebp+8], 0

; 79   : 		mpDC->BitBlt(mrcBounds.left, mrcBounds.top, mrcBounds.Width(), mrcBounds.Height(), 
; 80   : 					this, mrcBounds.left, mrcBounds.top, SRCCOPY);

  00040	68 20 00 cc 00	 push	 13369376		; 00cc0020H
  00045	8b 4d f0	 mov	 ecx, DWORD PTR _this$[ebp]
  00048	8b 51 20	 mov	 edx, DWORD PTR [ecx+32]
  0004b	52		 push	 edx
  0004c	8b 45 f0	 mov	 eax, DWORD PTR _this$[ebp]
  0004f	8b 48 1c	 mov	 ecx, DWORD PTR [eax+28]
  00052	51		 push	 ecx
  00053	8b 55 f0	 mov	 edx, DWORD PTR _this$[ebp]
  00056	52		 push	 edx
  00057	8b 4d f0	 mov	 ecx, DWORD PTR _this$[ebp]
  0005a	83 c1 1c	 add	 ecx, 28			; 0000001cH
  0005d	e8 00 00 00 00	 call	 ?Height@CRect@@QBEHXZ	; CRect::Height
  00062	50		 push	 eax
  00063	8b 4d f0	 mov	 ecx, DWORD PTR _this$[ebp]
  00066	83 c1 1c	 add	 ecx, 28			; 0000001cH
  00069	e8 00 00 00 00	 call	 ?Width@CRect@@QBEHXZ	; CRect::Width
  0006e	50		 push	 eax
  0006f	8b 45 f0	 mov	 eax, DWORD PTR _this$[ebp]
  00072	8b 48 20	 mov	 ecx, DWORD PTR [eax+32]
  00075	51		 push	 ecx
  00076	8b 55 f0	 mov	 edx, DWORD PTR _this$[ebp]
  00079	8b 42 1c	 mov	 eax, DWORD PTR [edx+28]
  0007c	50		 push	 eax
  0007d	8b 4d f0	 mov	 ecx, DWORD PTR _this$[ebp]
  00080	8b 49 18	 mov	 ecx, DWORD PTR [ecx+24]
  00083	e8 00 00 00 00	 call	 ?BitBlt@CDC@@QAEHHHHHPAV1@HHK@Z ; CDC::BitBlt

; 81   : 		SelectObject(mpOldBitmap);

  00088	8b 55 f0	 mov	 edx, DWORD PTR _this$[ebp]
  0008b	8b 42 14	 mov	 eax, DWORD PTR [edx+20]
  0008e	50		 push	 eax
  0008f	8b 4d f0	 mov	 ecx, DWORD PTR _this$[ebp]
  00092	e8 00 00 00 00	 call	 ?SelectObject@CDC@@QAEPAVCBitmap@@PAV2@@Z ; CDC::SelectObject

; 82   : 		if (mpBitmap != NULL)

  00097	8b 4d f0	 mov	 ecx, DWORD PTR _this$[ebp]
  0009a	83 79 10 00	 cmp	 DWORD PTR [ecx+16], 0
  0009e	74 41		 je	 SHORT $L107046

; 83   : 		{
; 84   : 			delete mpBitmap;

  000a0	8b 55 f0	 mov	 edx, DWORD PTR _this$[ebp]
  000a3	8b 42 10	 mov	 eax, DWORD PTR [edx+16]
  000a6	89 45 e8	 mov	 DWORD PTR $T188510[ebp], eax
  000a9	8b 4d e8	 mov	 ecx, DWORD PTR $T188510[ebp]
  000ac	89 4d ec	 mov	 DWORD PTR $T188509[ebp], ecx
  000af	83 7d ec 00	 cmp	 DWORD PTR $T188509[ebp], 0
  000b3	74 1b		 je	 SHORT $L188511
  000b5	8b f4		 mov	 esi, esp
  000b7	6a 01		 push	 1
  000b9	8b 55 ec	 mov	 edx, DWORD PTR $T188509[ebp]
  000bc	8b 02		 mov	 eax, DWORD PTR [edx]
  000be	8b 4d ec	 mov	 ecx, DWORD PTR $T188509[ebp]
  000c1	ff 50 04	 call	 DWORD PTR [eax+4]
  000c4	3b f4		 cmp	 esi, esp
  000c6	e8 00 00 00 00	 call	 __RTC_CheckEsp
  000cb	89 45 e4	 mov	 DWORD PTR tv134[ebp], eax
  000ce	eb 07		 jmp	 SHORT $L188512
$L188511:
  000d0	c7 45 e4 00 00
	00 00		 mov	 DWORD PTR tv134[ebp], 0
$L188512:

; 85   : 			mpBitmap = NULL;

  000d7	8b 4d f0	 mov	 ecx, DWORD PTR _this$[ebp]
  000da	c7 41 10 00 00
	00 00		 mov	 DWORD PTR [ecx+16], 0
$L107046:

; 86   : 		}
; 87   : 	}

  000e1	c7 45 fc ff ff
	ff ff		 mov	 DWORD PTR __$EHRec$[ebp+8], -1
  000e8	8b 4d f0	 mov	 ecx, DWORD PTR _this$[ebp]
  000eb	e8 00 00 00 00	 call	 ??1CDC@@UAE@XZ		; CDC::~CDC
  000f0	8b 4d f4	 mov	 ecx, DWORD PTR __$EHRec$[ebp]
  000f3	64 89 0d 00 00
	00 00		 mov	 DWORD PTR fs:__except_list, ecx
  000fa	5e		 pop	 esi
  000fb	83 c4 1c	 add	 esp, 28			; 0000001cH
  000fe	3b ec		 cmp	 ebp, esp
  00100	e8 00 00 00 00	 call	 __RTC_CheckEsp
  00105	8b e5		 mov	 esp, ebp
  00107	5d		 pop	 ebp
  00108	c3		 ret	 0
_TEXT	ENDS
;	COMDAT text$x
text$x	SEGMENT
$L188513:
  00000	8b 4d f0	 mov	 ecx, DWORD PTR _this$[ebp]
  00003	e9 00 00 00 00	 jmp	 ??1CDC@@UAE@XZ		; CDC::~CDC
__ehhandler$??1CMemDC@@UAE@XZ:
  00008	b8 00 00 00 00	 mov	 eax, OFFSET FLAT:$T188515
  0000d	e9 00 00 00 00	 jmp	 ___CxxFrameHandler
text$x	ENDS
??1CMemDC@@UAE@XZ ENDP					; CMemDC::~CMemDC
; Function compile flags: /Odt /RTCsu
;	COMDAT ??CCMemDC@@QAEPAV0@XZ
_TEXT	SEGMENT
_this$ = -4						; size = 4
??CCMemDC@@QAEPAV0@XZ PROC NEAR				; CMemDC::operator->, COMDAT
; _this$ = ecx

; 89   : 	{

  00000	55		 push	 ebp
  00001	8b ec		 mov	 ebp, esp
  00003	51		 push	 ecx
  00004	c7 45 fc cc cc
	cc cc		 mov	 DWORD PTR [ebp-4], -858993460 ; ccccccccH
  0000b	89 4d fc	 mov	 DWORD PTR _this$[ebp], ecx

; 90   : 		return this;

  0000e	8b 45 fc	 mov	 eax, DWORD PTR _this$[ebp]

; 91   : 	}

  00011	8b e5		 mov	 esp, ebp
  00013	5d		 pop	 ebp
  00014	c3		 ret	 0
??CCMemDC@@QAEPAV0@XZ ENDP				; CMemDC::operator->
; Function compile flags: /Odt /RTCsu
_TEXT	ENDS
;	COMDAT ??_GCMemDC@@UAEPAXI@Z
_TEXT	SEGMENT
_this$ = -4						; size = 4
___flags$ = 8						; size = 4
??_GCMemDC@@UAEPAXI@Z PROC NEAR				; CMemDC::`scalar deleting destructor', COMDAT
; _this$ = ecx
  00000	55		 push	 ebp
  00001	8b ec		 mov	 ebp, esp
  00003	51		 push	 ecx
  00004	c7 45 fc cc cc
	cc cc		 mov	 DWORD PTR [ebp-4], -858993460 ; ccccccccH
  0000b	89 4d fc	 mov	 DWORD PTR _this$[ebp], ecx
  0000e	8b 4d fc	 mov	 ecx, DWORD PTR _this$[ebp]
  00011	e8 00 00 00 00	 call	 ??1CMemDC@@UAE@XZ	; CMemDC::~CMemDC
  00016	8b 45 08	 mov	 eax, DWORD PTR ___flags$[ebp]
  00019	83 e0 01	 and	 eax, 1
  0001c	74 09		 je	 SHORT $L107056
  0001e	8b 4d fc	 mov	 ecx, DWORD PTR _this$[ebp]
  00021	51		 push	 ecx
  00022	e8 00 00 00 00	 call	 ??3CObject@@SGXPAX@Z	; CObject::operator delete
$L107056:
  00027	8b 45 fc	 mov	 eax, DWORD PTR _this$[ebp]
  0002a	83 c4 04	 add	 esp, 4
  0002d	3b ec		 cmp	 ebp, esp
  0002f	e8 00 00 00 00	 call	 __RTC_CheckEsp
  00034	8b e5		 mov	 esp, ebp
  00036	5d		 pop	 ebp
  00037	c2 04 00	 ret	 4
??_GCMemDC@@UAEPAXI@Z ENDP				; CMemDC::`scalar deleting destructor'
_TEXT	ENDS
EXTRN	_GdipFree@4:NEAR
; Function compile flags: /Odt /RTCsu
; File d:\program files (x86)\microsoft visual studio .net 2003\vc7\platformsdk\include\gdiplusbase.h
;	COMDAT ??3GdiplusBase@Gdiplus@@SAXPAX@Z
_TEXT	SEGMENT
_in_pVoid$ = 8						; size = 4
??3GdiplusBase@Gdiplus@@SAXPAX@Z PROC NEAR		; Gdiplus::GdiplusBase::operator delete, COMDAT

; 22   :     {

  00000	55		 push	 ebp
  00001	8b ec		 mov	 ebp, esp

; 23   :        DllExports::GdipFree(in_pVoid);

  00003	8b 45 08	 mov	 eax, DWORD PTR _in_pVoid$[ebp]
  00006	50		 push	 eax
  00007	e8 00 00 00 00	 call	 _GdipFree@4

; 24   :     }

  0000c	3b ec		 cmp	 ebp, esp
  0000e	e8 00 00 00 00	 call	 __RTC_CheckEsp
  00013	5d		 pop	 ebp
  00014	c3		 ret	 0
??3GdiplusBase@Gdiplus@@SAXPAX@Z ENDP			; Gdiplus::GdiplusBase::operator delete
_TEXT	ENDS
EXTRN	_GdipAlloc@4:NEAR
; Function compile flags: /Odt /RTCsu
;	COMDAT ??2GdiplusBase@Gdiplus@@SAPAXI@Z
_TEXT	SEGMENT
_in_size$ = 8						; size = 4
??2GdiplusBase@Gdiplus@@SAPAXI@Z PROC NEAR		; Gdiplus::GdiplusBase::operator new, COMDAT

; 26   :     {

  00000	55		 push	 ebp
  00001	8b ec		 mov	 ebp, esp

; 27   :        return DllExports::GdipAlloc(in_size);

  00003	8b 45 08	 mov	 eax, DWORD PTR _in_size$[ebp]
  00006	50		 push	 eax
  00007	e8 00 00 00 00	 call	 _GdipAlloc@4

; 28   :     }

  0000c	3b ec		 cmp	 ebp, esp
  0000e	e8 00 00 00 00	 call	 __RTC_CheckEsp
  00013	5d		 pop	 ebp
  00014	c3		 ret	 0
??2GdiplusBase@Gdiplus@@SAPAXI@Z ENDP			; Gdiplus::GdiplusBase::operator new
; Function compile flags: /Odt /RTCsu
; File d:\program files (x86)\microsoft visual studio .net 2003\vc7\platformsdk\include\gdiplustypes.h
_TEXT	ENDS
;	COMDAT ??0RectF@Gdiplus@@QAE@XZ
_TEXT	SEGMENT
_this$ = -4						; size = 4
??0RectF@Gdiplus@@QAE@XZ PROC NEAR			; Gdiplus::RectF::RectF, COMDAT
; _this$ = ecx

; 334  :     RectF()

  00000	55		 push	 ebp
  00001	8b ec		 mov	 ebp, esp
  00003	51		 push	 ecx
  00004	c7 45 fc cc cc
	cc cc		 mov	 DWORD PTR [ebp-4], -858993460 ; ccccccccH
  0000b	89 4d fc	 mov	 DWORD PTR _this$[ebp], ecx

; 335  :     {
; 336  :         X = Y = Width = Height = 0.0f;

  0000e	8b 45 fc	 mov	 eax, DWORD PTR _this$[ebp]
  00011	c7 40 0c 00 00
	00 00		 mov	 DWORD PTR [eax+12], 0
  00018	8b 4d fc	 mov	 ecx, DWORD PTR _this$[ebp]
  0001b	c7 41 08 00 00
	00 00		 mov	 DWORD PTR [ecx+8], 0
  00022	8b 55 fc	 mov	 edx, DWORD PTR _this$[ebp]
  00025	c7 42 04 00 00
	00 00		 mov	 DWORD PTR [edx+4], 0
  0002c	8b 45 fc	 mov	 eax, DWORD PTR _this$[ebp]
  0002f	c7 00 00 00 00
	00		 mov	 DWORD PTR [eax], 0

; 337  :     }

  00035	8b 45 fc	 mov	 eax, DWORD PTR _this$[ebp]
  00038	8b e5		 mov	 esp, ebp
  0003a	5d		 pop	 ebp
  0003b	c3		 ret	 0
??0RectF@Gdiplus@@QAE@XZ ENDP				; Gdiplus::RectF::RectF
; Function compile flags: /Odt /RTCsu
_TEXT	ENDS
;	COMDAT ??0RectF@Gdiplus@@QAE@MMMM@Z
_TEXT	SEGMENT
_this$ = -4						; size = 4
_x$ = 8							; size = 4
_y$ = 12						; size = 4
_width$ = 16						; size = 4
_height$ = 20						; size = 4
??0RectF@Gdiplus@@QAE@MMMM@Z PROC NEAR			; Gdiplus::RectF::RectF, COMDAT
; _this$ = ecx

; 339  :     RectF(IN REAL x,

  00000	55		 push	 ebp
  00001	8b ec		 mov	 ebp, esp
  00003	51		 push	 ecx
  00004	c7 45 fc cc cc
	cc cc		 mov	 DWORD PTR [ebp-4], -858993460 ; ccccccccH
  0000b	89 4d fc	 mov	 DWORD PTR _this$[ebp], ecx

; 340  :           IN REAL y,
; 341  :           IN REAL width,
; 342  :           IN REAL height)
; 343  :     {
; 344  :         X = x;

  0000e	8b 45 fc	 mov	 eax, DWORD PTR _this$[ebp]
  00011	8b 4d 08	 mov	 ecx, DWORD PTR _x$[ebp]
  00014	89 08		 mov	 DWORD PTR [eax], ecx

; 345  :         Y = y;

  00016	8b 55 fc	 mov	 edx, DWORD PTR _this$[ebp]
  00019	8b 45 0c	 mov	 eax, DWORD PTR _y$[ebp]
  0001c	89 42 04	 mov	 DWORD PTR [edx+4], eax

; 346  :         Width = width;

  0001f	8b 4d fc	 mov	 ecx, DWORD PTR _this$[ebp]
  00022	8b 55 10	 mov	 edx, DWORD PTR _width$[ebp]
  00025	89 51 08	 mov	 DWORD PTR [ecx+8], edx

; 347  :         Height = height;

  00028	8b 45 fc	 mov	 eax, DWORD PTR _this$[ebp]
  0002b	8b 4d 14	 mov	 ecx, DWORD PTR _height$[ebp]
  0002e	89 48 0c	 mov	 DWORD PTR [eax+12], ecx

; 348  :     }

  00031	8b 45 fc	 mov	 eax, DWORD PTR _this$[ebp]
  00034	8b e5		 mov	 esp, ebp
  00036	5d		 pop	 ebp
  00037	c2 10 00	 ret	 16			; 00000010H
??0RectF@Gdiplus@@QAE@MMMM@Z ENDP			; Gdiplus::RectF::RectF
; Function compile flags: /Odt /RTCsu
_TEXT	ENDS
;	COMDAT ?Inflate@RectF@Gdiplus@@QAEXMM@Z
_TEXT	SEGMENT
_this$ = -4						; size = 4
_dx$ = 8						; size = 4
_dy$ = 12						; size = 4
?Inflate@RectF@Gdiplus@@QAEXMM@Z PROC NEAR		; Gdiplus::RectF::Inflate, COMDAT
; _this$ = ecx

; 437  :     {

  00000	55		 push	 ebp
  00001	8b ec		 mov	 ebp, esp
  00003	51		 push	 ecx
  00004	c7 45 fc cc cc
	cc cc		 mov	 DWORD PTR [ebp-4], -858993460 ; ccccccccH
  0000b	89 4d fc	 mov	 DWORD PTR _this$[ebp], ecx

; 438  :         X -= dx;

  0000e	8b 45 fc	 mov	 eax, DWORD PTR _this$[ebp]
  00011	d9 00		 fld	 DWORD PTR [eax]
  00013	d8 65 08	 fsub	 DWORD PTR _dx$[ebp]
  00016	8b 4d fc	 mov	 ecx, DWORD PTR _this$[ebp]
  00019	d9 19		 fstp	 DWORD PTR [ecx]

; 439  :         Y -= dy;

  0001b	8b 55 fc	 mov	 edx, DWORD PTR _this$[ebp]
  0001e	d9 42 04	 fld	 DWORD PTR [edx+4]
  00021	d8 65 0c	 fsub	 DWORD PTR _dy$[ebp]
  00024	8b 45 fc	 mov	 eax, DWORD PTR _this$[ebp]
  00027	d9 58 04	 fstp	 DWORD PTR [eax+4]

; 440  :         Width += 2*dx;

  0002a	d9 05 00 00 00
	00		 fld	 DWORD PTR __real@40000000
  00030	d8 4d 08	 fmul	 DWORD PTR _dx$[ebp]
  00033	8b 4d fc	 mov	 ecx, DWORD PTR _this$[ebp]
  00036	d8 41 08	 fadd	 DWORD PTR [ecx+8]
  00039	8b 55 fc	 mov	 edx, DWORD PTR _this$[ebp]
  0003c	d9 5a 08	 fstp	 DWORD PTR [edx+8]

; 441  :         Height += 2*dy;

  0003f	d9 05 00 00 00
	00		 fld	 DWORD PTR __real@40000000
  00045	d8 4d 0c	 fmul	 DWORD PTR _dy$[ebp]
  00048	8b 45 fc	 mov	 eax, DWORD PTR _this$[ebp]
  0004b	d8 40 0c	 fadd	 DWORD PTR [eax+12]
  0004e	8b 4d fc	 mov	 ecx, DWORD PTR _this$[ebp]
  00051	d9 59 0c	 fstp	 DWORD PTR [ecx+12]

; 442  :     }

  00054	8b e5		 mov	 esp, ebp
  00056	5d		 pop	 ebp
  00057	c2 08 00	 ret	 8
?Inflate@RectF@Gdiplus@@QAEXMM@Z ENDP			; Gdiplus::RectF::Inflate
; Function compile flags: /Odt /RTCsu
; File d:\program files (x86)\microsoft visual studio .net 2003\vc7\platformsdk\include\gdipluscolor.h
_TEXT	ENDS
;	COMDAT ??0Color@Gdiplus@@QAE@XZ
_TEXT	SEGMENT
_this$ = -4						; size = 4
??0Color@Gdiplus@@QAE@XZ PROC NEAR			; Gdiplus::Color::Color, COMDAT
; _this$ = ecx

; 49   :     Color()

  00000	55		 push	 ebp
  00001	8b ec		 mov	 ebp, esp
  00003	51		 push	 ecx
  00004	c7 45 fc cc cc
	cc cc		 mov	 DWORD PTR [ebp-4], -858993460 ; ccccccccH
  0000b	89 4d fc	 mov	 DWORD PTR _this$[ebp], ecx

; 50   :     {
; 51   :         Argb = (ARGB)Color::Black;

  0000e	8b 45 fc	 mov	 eax, DWORD PTR _this$[ebp]
  00011	c7 00 00 00 00
	ff		 mov	 DWORD PTR [eax], -16777216 ; ff000000H

; 52   :     }

  00017	8b 45 fc	 mov	 eax, DWORD PTR _this$[ebp]
  0001a	8b e5		 mov	 esp, ebp
  0001c	5d		 pop	 ebp
  0001d	c3		 ret	 0
??0Color@Gdiplus@@QAE@XZ ENDP				; Gdiplus::Color::Color
; Function compile flags: /Odt /RTCsu
_TEXT	ENDS
;	COMDAT ??0Color@Gdiplus@@QAE@EEEE@Z
_TEXT	SEGMENT
_this$ = -4						; size = 4
_a$ = 8							; size = 1
_r$ = 12						; size = 1
_g$ = 16						; size = 1
_b$ = 20						; size = 1
??0Color@Gdiplus@@QAE@EEEE@Z PROC NEAR			; Gdiplus::Color::Color, COMDAT
; _this$ = ecx

; 66   :     Color(IN BYTE a,

  00000	55		 push	 ebp
  00001	8b ec		 mov	 ebp, esp
  00003	51		 push	 ecx
  00004	c7 45 fc cc cc
	cc cc		 mov	 DWORD PTR [ebp-4], -858993460 ; ccccccccH
  0000b	89 4d fc	 mov	 DWORD PTR _this$[ebp], ecx

; 67   :           IN BYTE r,
; 68   :           IN BYTE g,
; 69   :           IN BYTE b)
; 70   :     {
; 71   :         Argb = MakeARGB(a, r, g, b);

  0000e	8a 45 14	 mov	 al, BYTE PTR _b$[ebp]
  00011	50		 push	 eax
  00012	8a 4d 10	 mov	 cl, BYTE PTR _g$[ebp]
  00015	51		 push	 ecx
  00016	8a 55 0c	 mov	 dl, BYTE PTR _r$[ebp]
  00019	52		 push	 edx
  0001a	8a 45 08	 mov	 al, BYTE PTR _a$[ebp]
  0001d	50		 push	 eax
  0001e	e8 00 00 00 00	 call	 ?MakeARGB@Color@Gdiplus@@SAKEEEE@Z ; Gdiplus::Color::MakeARGB
  00023	83 c4 10	 add	 esp, 16			; 00000010H
  00026	8b 4d fc	 mov	 ecx, DWORD PTR _this$[ebp]
  00029	89 01		 mov	 DWORD PTR [ecx], eax

; 72   :     }

  0002b	8b 45 fc	 mov	 eax, DWORD PTR _this$[ebp]
  0002e	83 c4 04	 add	 esp, 4
  00031	3b ec		 cmp	 ebp, esp
  00033	e8 00 00 00 00	 call	 __RTC_CheckEsp
  00038	8b e5		 mov	 esp, ebp
  0003a	5d		 pop	 ebp
  0003b	c2 10 00	 ret	 16			; 00000010H
??0Color@Gdiplus@@QAE@EEEE@Z ENDP			; Gdiplus::Color::Color
; Function compile flags: /Odt /RTCsu
_TEXT	ENDS
;	COMDAT ??0Color@Gdiplus@@QAE@K@Z
_TEXT	SEGMENT
_this$ = -4						; size = 4
_argb$ = 8						; size = 4
??0Color@Gdiplus@@QAE@K@Z PROC NEAR			; Gdiplus::Color::Color, COMDAT
; _this$ = ecx

; 74   :     Color(IN ARGB argb)

  00000	55		 push	 ebp
  00001	8b ec		 mov	 ebp, esp
  00003	51		 push	 ecx
  00004	c7 45 fc cc cc
	cc cc		 mov	 DWORD PTR [ebp-4], -858993460 ; ccccccccH
  0000b	89 4d fc	 mov	 DWORD PTR _this$[ebp], ecx

; 75   :     {
; 76   :         Argb = argb;

  0000e	8b 45 fc	 mov	 eax, DWORD PTR _this$[ebp]
  00011	8b 4d 08	 mov	 ecx, DWORD PTR _argb$[ebp]
  00014	89 08		 mov	 DWORD PTR [eax], ecx

; 77   :     }

  00016	8b 45 fc	 mov	 eax, DWORD PTR _this$[ebp]
  00019	8b e5		 mov	 esp, ebp
  0001b	5d		 pop	 ebp
  0001c	c2 04 00	 ret	 4
??0Color@Gdiplus@@QAE@K@Z ENDP				; Gdiplus::Color::Color
_TEXT	ENDS
PUBLIC	?GetAlpha@Color@Gdiplus@@QBEEXZ			; Gdiplus::Color::GetAlpha
; Function compile flags: /Odt /RTCsu
;	COMDAT ?GetA@Color@Gdiplus@@QBEEXZ
_TEXT	SEGMENT
_this$ = -4						; size = 4
?GetA@Color@Gdiplus@@QBEEXZ PROC NEAR			; Gdiplus::Color::GetA, COMDAT
; _this$ = ecx

; 85   :     {

  00000	55		 push	 ebp
  00001	8b ec		 mov	 ebp, esp
  00003	51		 push	 ecx
  00004	c7 45 fc cc cc
	cc cc		 mov	 DWORD PTR [ebp-4], -858993460 ; ccccccccH
  0000b	89 4d fc	 mov	 DWORD PTR _this$[ebp], ecx

; 86   :         return GetAlpha();

  0000e	8b 4d fc	 mov	 ecx, DWORD PTR _this$[ebp]
  00011	e8 00 00 00 00	 call	 ?GetAlpha@Color@Gdiplus@@QBEEXZ ; Gdiplus::Color::GetAlpha

; 87   :     }

  00016	83 c4 04	 add	 esp, 4
  00019	3b ec		 cmp	 ebp, esp
  0001b	e8 00 00 00 00	 call	 __RTC_CheckEsp
  00020	8b e5		 mov	 esp, ebp
  00022	5d		 pop	 ebp
  00023	c3		 ret	 0
?GetA@Color@Gdiplus@@QBEEXZ ENDP			; Gdiplus::Color::GetA
; Function compile flags: /Odt /RTCsu
_TEXT	ENDS
;	COMDAT ?GetAlpha@Color@Gdiplus@@QBEEXZ
_TEXT	SEGMENT
_this$ = -4						; size = 4
?GetAlpha@Color@Gdiplus@@QBEEXZ PROC NEAR		; Gdiplus::Color::GetAlpha, COMDAT
; _this$ = ecx

; 80   :     {

  00000	55		 push	 ebp
  00001	8b ec		 mov	 ebp, esp
  00003	51		 push	 ecx
  00004	c7 45 fc cc cc
	cc cc		 mov	 DWORD PTR [ebp-4], -858993460 ; ccccccccH
  0000b	89 4d fc	 mov	 DWORD PTR _this$[ebp], ecx

; 81   :         return (BYTE) (Argb >> AlphaShift);

  0000e	8b 45 fc	 mov	 eax, DWORD PTR _this$[ebp]
  00011	8b 00		 mov	 eax, DWORD PTR [eax]
  00013	c1 e8 18	 shr	 eax, 24			; 00000018H

; 82   :     }

  00016	8b e5		 mov	 esp, ebp
  00018	5d		 pop	 ebp
  00019	c3		 ret	 0
?GetAlpha@Color@Gdiplus@@QBEEXZ ENDP			; Gdiplus::Color::GetAlpha
_TEXT	ENDS
PUBLIC	?GetRed@Color@Gdiplus@@QBEEXZ			; Gdiplus::Color::GetRed
; Function compile flags: /Odt /RTCsu
;	COMDAT ?GetR@Color@Gdiplus@@QBEEXZ
_TEXT	SEGMENT
_this$ = -4						; size = 4
?GetR@Color@Gdiplus@@QBEEXZ PROC NEAR			; Gdiplus::Color::GetR, COMDAT
; _this$ = ecx

; 95   :     {

  00000	55		 push	 ebp
  00001	8b ec		 mov	 ebp, esp
  00003	51		 push	 ecx
  00004	c7 45 fc cc cc
	cc cc		 mov	 DWORD PTR [ebp-4], -858993460 ; ccccccccH
  0000b	89 4d fc	 mov	 DWORD PTR _this$[ebp], ecx

; 96   :         return GetRed();

  0000e	8b 4d fc	 mov	 ecx, DWORD PTR _this$[ebp]
  00011	e8 00 00 00 00	 call	 ?GetRed@Color@Gdiplus@@QBEEXZ ; Gdiplus::Color::GetRed

; 97   :     }

  00016	83 c4 04	 add	 esp, 4
  00019	3b ec		 cmp	 ebp, esp
  0001b	e8 00 00 00 00	 call	 __RTC_CheckEsp
  00020	8b e5		 mov	 esp, ebp
  00022	5d		 pop	 ebp
  00023	c3		 ret	 0
?GetR@Color@Gdiplus@@QBEEXZ ENDP			; Gdiplus::Color::GetR
; Function compile flags: /Odt /RTCsu
_TEXT	ENDS
;	COMDAT ?GetRed@Color@Gdiplus@@QBEEXZ
_TEXT	SEGMENT
_this$ = -4						; size = 4
?GetRed@Color@Gdiplus@@QBEEXZ PROC NEAR			; Gdiplus::Color::GetRed, COMDAT
; _this$ = ecx

; 90   :     {

  00000	55		 push	 ebp
  00001	8b ec		 mov	 ebp, esp
  00003	51		 push	 ecx
  00004	c7 45 fc cc cc
	cc cc		 mov	 DWORD PTR [ebp-4], -858993460 ; ccccccccH
  0000b	89 4d fc	 mov	 DWORD PTR _this$[ebp], ecx

; 91   :         return (BYTE) (Argb >> RedShift);

  0000e	8b 45 fc	 mov	 eax, DWORD PTR _this$[ebp]
  00011	8b 00		 mov	 eax, DWORD PTR [eax]
  00013	c1 e8 10	 shr	 eax, 16			; 00000010H

; 92   :     }

  00016	8b e5		 mov	 esp, ebp
  00018	5d		 pop	 ebp
  00019	c3		 ret	 0
?GetRed@Color@Gdiplus@@QBEEXZ ENDP			; Gdiplus::Color::GetRed
_TEXT	ENDS
PUBLIC	?GetGreen@Color@Gdiplus@@QBEEXZ			; Gdiplus::Color::GetGreen
; Function compile flags: /Odt /RTCsu
;	COMDAT ?GetG@Color@Gdiplus@@QBEEXZ
_TEXT	SEGMENT
_this$ = -4						; size = 4
?GetG@Color@Gdiplus@@QBEEXZ PROC NEAR			; Gdiplus::Color::GetG, COMDAT
; _this$ = ecx

; 105  :     {

  00000	55		 push	 ebp
  00001	8b ec		 mov	 ebp, esp
  00003	51		 push	 ecx
  00004	c7 45 fc cc cc
	cc cc		 mov	 DWORD PTR [ebp-4], -858993460 ; ccccccccH
  0000b	89 4d fc	 mov	 DWORD PTR _this$[ebp], ecx

; 106  :         return GetGreen();

  0000e	8b 4d fc	 mov	 ecx, DWORD PTR _this$[ebp]
  00011	e8 00 00 00 00	 call	 ?GetGreen@Color@Gdiplus@@QBEEXZ ; Gdiplus::Color::GetGreen

; 107  :     }

  00016	83 c4 04	 add	 esp, 4
  00019	3b ec		 cmp	 ebp, esp
  0001b	e8 00 00 00 00	 call	 __RTC_CheckEsp
  00020	8b e5		 mov	 esp, ebp
  00022	5d		 pop	 ebp
  00023	c3		 ret	 0
?GetG@Color@Gdiplus@@QBEEXZ ENDP			; Gdiplus::Color::GetG
; Function compile flags: /Odt /RTCsu
_TEXT	ENDS
;	COMDAT ?GetGreen@Color@Gdiplus@@QBEEXZ
_TEXT	SEGMENT
_this$ = -4						; size = 4
?GetGreen@Color@Gdiplus@@QBEEXZ PROC NEAR		; Gdiplus::Color::GetGreen, COMDAT
; _this$ = ecx

; 100  :     {

  00000	55		 push	 ebp
  00001	8b ec		 mov	 ebp, esp
  00003	51		 push	 ecx
  00004	c7 45 fc cc cc
	cc cc		 mov	 DWORD PTR [ebp-4], -858993460 ; ccccccccH
  0000b	89 4d fc	 mov	 DWORD PTR _this$[ebp], ecx

; 101  :         return (BYTE) (Argb >> GreenShift);

  0000e	8b 45 fc	 mov	 eax, DWORD PTR _this$[ebp]
  00011	8b 00		 mov	 eax, DWORD PTR [eax]
  00013	c1 e8 08	 shr	 eax, 8

; 102  :     }

  00016	8b e5		 mov	 esp, ebp
  00018	5d		 pop	 ebp
  00019	c3		 ret	 0
?GetGreen@Color@Gdiplus@@QBEEXZ ENDP			; Gdiplus::Color::GetGreen
_TEXT	ENDS
PUBLIC	?GetBlue@Color@Gdiplus@@QBEEXZ			; Gdiplus::Color::GetBlue
; Function compile flags: /Odt /RTCsu
;	COMDAT ?GetB@Color@Gdiplus@@QBEEXZ
_TEXT	SEGMENT
_this$ = -4						; size = 4
?GetB@Color@Gdiplus@@QBEEXZ PROC NEAR			; Gdiplus::Color::GetB, COMDAT
; _this$ = ecx

; 115  :     {

  00000	55		 push	 ebp
  00001	8b ec		 mov	 ebp, esp
  00003	51		 push	 ecx
  00004	c7 45 fc cc cc
	cc cc		 mov	 DWORD PTR [ebp-4], -858993460 ; ccccccccH
  0000b	89 4d fc	 mov	 DWORD PTR _this$[ebp], ecx

; 116  :         return GetBlue();

  0000e	8b 4d fc	 mov	 ecx, DWORD PTR _this$[ebp]
  00011	e8 00 00 00 00	 call	 ?GetBlue@Color@Gdiplus@@QBEEXZ ; Gdiplus::Color::GetBlue

; 117  :     }

  00016	83 c4 04	 add	 esp, 4
  00019	3b ec		 cmp	 ebp, esp
  0001b	e8 00 00 00 00	 call	 __RTC_CheckEsp
  00020	8b e5		 mov	 esp, ebp
  00022	5d		 pop	 ebp
  00023	c3		 ret	 0
?GetB@Color@Gdiplus@@QBEEXZ ENDP			; Gdiplus::Color::GetB
; Function compile flags: /Odt /RTCsu
_TEXT	ENDS
;	COMDAT ?GetBlue@Color@Gdiplus@@QBEEXZ
_TEXT	SEGMENT
_this$ = -4						; size = 4
?GetBlue@Color@Gdiplus@@QBEEXZ PROC NEAR		; Gdiplus::Color::GetBlue, COMDAT
; _this$ = ecx

; 110  :     {

  00000	55		 push	 ebp
  00001	8b ec		 mov	 ebp, esp
  00003	51		 push	 ecx
  00004	c7 45 fc cc cc
	cc cc		 mov	 DWORD PTR [ebp-4], -858993460 ; ccccccccH
  0000b	89 4d fc	 mov	 DWORD PTR _this$[ebp], ecx

; 111  :         return (BYTE) (Argb >> BlueShift);

  0000e	8b 45 fc	 mov	 eax, DWORD PTR _this$[ebp]
  00011	8a 00		 mov	 al, BYTE PTR [eax]

; 112  :     }

  00013	8b e5		 mov	 esp, ebp
  00015	5d		 pop	 ebp
  00016	c3		 ret	 0
?GetBlue@Color@Gdiplus@@QBEEXZ ENDP			; Gdiplus::Color::GetBlue
; Function compile flags: /Odt /RTCsu
_TEXT	ENDS
;	COMDAT ?SetValue@Color@Gdiplus@@QAEXK@Z
_TEXT	SEGMENT
_this$ = -4						; size = 4
_argb$ = 8						; size = 4
?SetValue@Color@Gdiplus@@QAEXK@Z PROC NEAR		; Gdiplus::Color::SetValue, COMDAT
; _this$ = ecx

; 125  :     {

  00000	55		 push	 ebp
  00001	8b ec		 mov	 ebp, esp
  00003	51		 push	 ecx
  00004	c7 45 fc cc cc
	cc cc		 mov	 DWORD PTR [ebp-4], -858993460 ; ccccccccH
  0000b	89 4d fc	 mov	 DWORD PTR _this$[ebp], ecx

; 126  :         Argb = argb;

  0000e	8b 45 fc	 mov	 eax, DWORD PTR _this$[ebp]
  00011	8b 4d 08	 mov	 ecx, DWORD PTR _argb$[ebp]
  00014	89 08		 mov	 DWORD PTR [eax], ecx

; 127  :     }

  00016	8b e5		 mov	 esp, ebp
  00018	5d		 pop	 ebp
  00019	c2 04 00	 ret	 4
?SetValue@Color@Gdiplus@@QAEXK@Z ENDP			; Gdiplus::Color::SetValue
; Function compile flags: /Odt /RTCsu
_TEXT	ENDS
;	COMDAT ?MakeARGB@Color@Gdiplus@@SAKEEEE@Z
_TEXT	SEGMENT
_a$ = 8							; size = 1
_r$ = 12						; size = 1
_g$ = 16						; size = 1
_b$ = 20						; size = 1
?MakeARGB@Color@Gdiplus@@SAKEEEE@Z PROC NEAR		; Gdiplus::Color::MakeARGB, COMDAT

; 312  :     {

  00000	55		 push	 ebp
  00001	8b ec		 mov	 ebp, esp

; 313  :         return (((ARGB) (b) <<  BlueShift) |
; 314  :                 ((ARGB) (g) << GreenShift) |
; 315  :                 ((ARGB) (r) <<   RedShift) |
; 316  :                 ((ARGB) (a) << AlphaShift));

  00003	0f b6 45 14	 movzx	 eax, BYTE PTR _b$[ebp]
  00007	0f b6 4d 10	 movzx	 ecx, BYTE PTR _g$[ebp]
  0000b	c1 e1 08	 shl	 ecx, 8
  0000e	0b c1		 or	 eax, ecx
  00010	0f b6 55 0c	 movzx	 edx, BYTE PTR _r$[ebp]
  00014	c1 e2 10	 shl	 edx, 16			; 00000010H
  00017	0b c2		 or	 eax, edx
  00019	0f b6 4d 08	 movzx	 ecx, BYTE PTR _a$[ebp]
  0001d	c1 e1 18	 shl	 ecx, 24			; 00000018H
  00020	0b c1		 or	 eax, ecx

; 317  :     }

  00022	5d		 pop	 ebp
  00023	c3		 ret	 0
?MakeARGB@Color@Gdiplus@@SAKEEEE@Z ENDP			; Gdiplus::Color::MakeARGB
_TEXT	ENDS
EXTRN	_GdipCreateImageAttributes@4:NEAR
; Function compile flags: /Odt /RTCsu
; File d:\program files (x86)\microsoft visual studio .net 2003\vc7\platformsdk\include\gdiplusimageattributes.h
;	COMDAT ??0ImageAttributes@Gdiplus@@QAE@XZ
_TEXT	SEGMENT
_this$ = -4						; size = 4
??0ImageAttributes@Gdiplus@@QAE@XZ PROC NEAR		; Gdiplus::ImageAttributes::ImageAttributes, COMDAT
; _this$ = ecx

; 45   :     ImageAttributes()

  00000	55		 push	 ebp
  00001	8b ec		 mov	 ebp, esp
  00003	51		 push	 ecx
  00004	c7 45 fc cc cc
	cc cc		 mov	 DWORD PTR [ebp-4], -858993460 ; ccccccccH
  0000b	89 4d fc	 mov	 DWORD PTR _this$[ebp], ecx

; 46   :     {
; 47   :         nativeImageAttr = NULL;

  0000e	8b 45 fc	 mov	 eax, DWORD PTR _this$[ebp]
  00011	c7 00 00 00 00
	00		 mov	 DWORD PTR [eax], 0

; 48   :         lastResult = DllExports::GdipCreateImageAttributes(&nativeImageAttr);

  00017	8b 4d fc	 mov	 ecx, DWORD PTR _this$[ebp]
  0001a	51		 push	 ecx
  0001b	e8 00 00 00 00	 call	 _GdipCreateImageAttributes@4
  00020	8b 55 fc	 mov	 edx, DWORD PTR _this$[ebp]
  00023	89 42 04	 mov	 DWORD PTR [edx+4], eax

; 49   :     }

  00026	8b 45 fc	 mov	 eax, DWORD PTR _this$[ebp]
  00029	83 c4 04	 add	 esp, 4
  0002c	3b ec		 cmp	 ebp, esp
  0002e	e8 00 00 00 00	 call	 __RTC_CheckEsp
  00033	8b e5		 mov	 esp, ebp
  00035	5d		 pop	 ebp
  00036	c3		 ret	 0
??0ImageAttributes@Gdiplus@@QAE@XZ ENDP			; Gdiplus::ImageAttributes::ImageAttributes
_TEXT	ENDS
EXTRN	_GdipDisposeImageAttributes@4:NEAR
; Function compile flags: /Odt /RTCsu
;	COMDAT ??1ImageAttributes@Gdiplus@@QAE@XZ
_TEXT	SEGMENT
_this$ = -4						; size = 4
??1ImageAttributes@Gdiplus@@QAE@XZ PROC NEAR		; Gdiplus::ImageAttributes::~ImageAttributes, COMDAT
; _this$ = ecx

; 52   :     {

  00000	55		 push	 ebp
  00001	8b ec		 mov	 ebp, esp
  00003	51		 push	 ecx
  00004	c7 45 fc cc cc
	cc cc		 mov	 DWORD PTR [ebp-4], -858993460 ; ccccccccH
  0000b	89 4d fc	 mov	 DWORD PTR _this$[ebp], ecx

; 53   :         DllExports::GdipDisposeImageAttributes(nativeImageAttr);

  0000e	8b 45 fc	 mov	 eax, DWORD PTR _this$[ebp]
  00011	8b 08		 mov	 ecx, DWORD PTR [eax]
  00013	51		 push	 ecx
  00014	e8 00 00 00 00	 call	 _GdipDisposeImageAttributes@4

; 54   :     }

  00019	83 c4 04	 add	 esp, 4
  0001c	3b ec		 cmp	 ebp, esp
  0001e	e8 00 00 00 00	 call	 __RTC_CheckEsp
  00023	8b e5		 mov	 esp, ebp
  00025	5d		 pop	 ebp
  00026	c3		 ret	 0
??1ImageAttributes@Gdiplus@@QAE@XZ ENDP			; Gdiplus::ImageAttributes::~ImageAttributes
_TEXT	ENDS
PUBLIC	?SetStatus@ImageAttributes@Gdiplus@@IBE?AW4Status@2@W432@@Z ; Gdiplus::ImageAttributes::SetStatus
EXTRN	_GdipSetImageAttributesColorMatrix@24:NEAR
; Function compile flags: /Odt /RTCsu
;	COMDAT ?SetColorMatrix@ImageAttributes@Gdiplus@@QAE?AW4Status@2@PBUColorMatrix@2@W4ColorMatrixFlags@2@W4ColorAdjustType@2@@Z
_TEXT	SEGMENT
_this$ = -4						; size = 4
_colorMatrix$ = 8					; size = 4
_mode$ = 12						; size = 4
_type$ = 16						; size = 4
?SetColorMatrix@ImageAttributes@Gdiplus@@QAE?AW4Status@2@PBUColorMatrix@2@W4ColorMatrixFlags@2@W4ColorAdjustType@2@@Z PROC NEAR ; Gdiplus::ImageAttributes::SetColorMatrix, COMDAT
; _this$ = ecx

; 93   :     {

  00000	55		 push	 ebp
  00001	8b ec		 mov	 ebp, esp
  00003	51		 push	 ecx
  00004	c7 45 fc cc cc
	cc cc		 mov	 DWORD PTR [ebp-4], -858993460 ; ccccccccH
  0000b	89 4d fc	 mov	 DWORD PTR _this$[ebp], ecx

; 94   :         return SetStatus(DllExports::GdipSetImageAttributesColorMatrix(
; 95   :                                             nativeImageAttr,
; 96   :                                             type,
; 97   :                                             TRUE,
; 98   :                                             colorMatrix,
; 99   :                                             NULL,
; 100  :                                             mode));

  0000e	8b 45 0c	 mov	 eax, DWORD PTR _mode$[ebp]
  00011	50		 push	 eax
  00012	6a 00		 push	 0
  00014	8b 4d 08	 mov	 ecx, DWORD PTR _colorMatrix$[ebp]
  00017	51		 push	 ecx
  00018	6a 01		 push	 1
  0001a	8b 55 10	 mov	 edx, DWORD PTR _type$[ebp]
  0001d	52		 push	 edx
  0001e	8b 45 fc	 mov	 eax, DWORD PTR _this$[ebp]
  00021	8b 08		 mov	 ecx, DWORD PTR [eax]
  00023	51		 push	 ecx
  00024	e8 00 00 00 00	 call	 _GdipSetImageAttributesColorMatrix@24
  00029	50		 push	 eax
  0002a	8b 4d fc	 mov	 ecx, DWORD PTR _this$[ebp]
  0002d	e8 00 00 00 00	 call	 ?SetStatus@ImageAttributes@Gdiplus@@IBE?AW4Status@2@W432@@Z ; Gdiplus::ImageAttributes::SetStatus

; 101  :     }

  00032	83 c4 04	 add	 esp, 4
  00035	3b ec		 cmp	 ebp, esp
  00037	e8 00 00 00 00	 call	 __RTC_CheckEsp
  0003c	8b e5		 mov	 esp, ebp
  0003e	5d		 pop	 ebp
  0003f	c2 0c 00	 ret	 12			; 0000000cH
?SetColorMatrix@ImageAttributes@Gdiplus@@QAE?AW4Status@2@PBUColorMatrix@2@W4ColorMatrixFlags@2@W4ColorAdjustType@2@@Z ENDP ; Gdiplus::ImageAttributes::SetColorMatrix
; Function compile flags: /Odt /RTCsu
_TEXT	ENDS
;	COMDAT ?SetStatus@ImageAttributes@Gdiplus@@IBE?AW4Status@2@W432@@Z
_TEXT	SEGMENT
_this$ = -4						; size = 4
_status$ = 8						; size = 4
?SetStatus@ImageAttributes@Gdiplus@@IBE?AW4Status@2@W432@@Z PROC NEAR ; Gdiplus::ImageAttributes::SetStatus, COMDAT
; _this$ = ecx

; 365  :     {

  00000	55		 push	 ebp
  00001	8b ec		 mov	 ebp, esp
  00003	51		 push	 ecx
  00004	c7 45 fc cc cc
	cc cc		 mov	 DWORD PTR [ebp-4], -858993460 ; ccccccccH
  0000b	89 4d fc	 mov	 DWORD PTR _this$[ebp], ecx

; 366  :         if (status != Ok)

  0000e	83 7d 08 00	 cmp	 DWORD PTR _status$[ebp], 0
  00012	74 0e		 je	 SHORT $L112516

; 367  :             return (lastResult = status);

  00014	8b 45 fc	 mov	 eax, DWORD PTR _this$[ebp]
  00017	8b 4d 08	 mov	 ecx, DWORD PTR _status$[ebp]
  0001a	89 48 04	 mov	 DWORD PTR [eax+4], ecx
  0001d	8b 45 08	 mov	 eax, DWORD PTR _status$[ebp]
  00020	eb 03		 jmp	 SHORT $L112515
$L112516:

; 368  :         else 
; 369  :             return status;

  00022	8b 45 08	 mov	 eax, DWORD PTR _status$[ebp]
$L112515:

; 370  :     }

  00025	8b e5		 mov	 esp, ebp
  00027	5d		 pop	 ebp
  00028	c2 04 00	 ret	 4
?SetStatus@ImageAttributes@Gdiplus@@IBE?AW4Status@2@W432@@Z ENDP ; Gdiplus::ImageAttributes::SetStatus
_TEXT	ENDS
PUBLIC	??1Brush@Gdiplus@@UAE@XZ			; Gdiplus::Brush::~Brush
PUBLIC	?Clone@Brush@Gdiplus@@UBEPAV12@XZ		; Gdiplus::Brush::Clone
PUBLIC	??0Brush@Gdiplus@@IAE@XZ			; Gdiplus::Brush::Brush
PUBLIC	?SetNativeBrush@Brush@Gdiplus@@IAEXPAVGpBrush@2@@Z ; Gdiplus::Brush::SetNativeBrush
PUBLIC	??_7SolidBrush@Gdiplus@@6B@			; Gdiplus::SolidBrush::`vftable'
PUBLIC	??_GSolidBrush@Gdiplus@@UAEPAXI@Z		; Gdiplus::SolidBrush::`scalar deleting destructor'
PUBLIC	??_R0?AVBrush@Gdiplus@@@8			; Gdiplus::Brush `RTTI Type Descriptor'
PUBLIC	??_R1A@?0A@A@Brush@Gdiplus@@8			; Gdiplus::Brush::`RTTI Base Class Descriptor at (0,-1,0,0)'
PUBLIC	??_R13?0A@A@GdiplusBase@Gdiplus@@8		; Gdiplus::GdiplusBase::`RTTI Base Class Descriptor at (4,-1,0,0)'
PUBLIC	??_R0?AVGdiplusBase@Gdiplus@@@8			; Gdiplus::GdiplusBase `RTTI Type Descriptor'
PUBLIC	??_R4SolidBrush@Gdiplus@@6B@			; Gdiplus::SolidBrush::`RTTI Complete Object Locator'
PUBLIC	??_R0?AVSolidBrush@Gdiplus@@@8			; Gdiplus::SolidBrush `RTTI Type Descriptor'
PUBLIC	??_R3SolidBrush@Gdiplus@@8			; Gdiplus::SolidBrush::`RTTI Class Hierarchy Descriptor'
PUBLIC	??_R2SolidBrush@Gdiplus@@8			; Gdiplus::SolidBrush::`RTTI Base Class Array'
PUBLIC	??_R1A@?0A@A@SolidBrush@Gdiplus@@8		; Gdiplus::SolidBrush::`RTTI Base Class Descriptor at (0,-1,0,0)'
PUBLIC	?GetValue@Color@Gdiplus@@QBEKXZ			; Gdiplus::Color::GetValue
EXTRN	??_ESolidBrush@Gdiplus@@UAEPAXI@Z:NEAR		; Gdiplus::SolidBrush::`vector deleting destructor'
EXTRN	_GdipCreateSolidFill@8:NEAR
;	COMDAT xdata$x
; File d:\program files (x86)\microsoft visual studio .net 2003\vc7\platformsdk\include\gdiplusbrush.h
xdata$x	SEGMENT
$T188552 DD	0ffffffffH
	DD	FLAT:$L188545
$T188547 DD	019930520H
	DD	01H
	DD	FLAT:$T188552
	DD	2 DUP(00H)
	DD	2 DUP(00H)
xdata$x	ENDS
;	COMDAT ??_7SolidBrush@Gdiplus@@6B@
CONST	SEGMENT
??_7SolidBrush@Gdiplus@@6B@ DD FLAT:??_R4SolidBrush@Gdiplus@@6B@ ; Gdiplus::SolidBrush::`vftable'
	DD	FLAT:??_ESolidBrush@Gdiplus@@UAEPAXI@Z
	DD	FLAT:?Clone@Brush@Gdiplus@@UBEPAV12@XZ
CONST	ENDS
;	COMDAT ??_R4SolidBrush@Gdiplus@@6B@
rdata$r	SEGMENT
??_R4SolidBrush@Gdiplus@@6B@ DD 00H			; Gdiplus::SolidBrush::`RTTI Complete Object Locator'
	DD	00H
	DD	00H
	DD	FLAT:??_R0?AVSolidBrush@Gdiplus@@@8
	DD	FLAT:??_R3SolidBrush@Gdiplus@@8
rdata$r	ENDS
;	COMDAT ??_R0?AVSolidBrush@Gdiplus@@@8
_DATA	SEGMENT
??_R0?AVSolidBrush@Gdiplus@@@8 DD FLAT:??_7type_info@@6B@ ; Gdiplus::SolidBrush `RTTI Type Descriptor'
	DD	00H
	DB	'.?AVSolidBrush@Gdiplus@@', 00H
_DATA	ENDS
;	COMDAT ??_R3SolidBrush@Gdiplus@@8
rdata$r	SEGMENT
??_R3SolidBrush@Gdiplus@@8 DD 00H			; Gdiplus::SolidBrush::`RTTI Class Hierarchy Descriptor'
	DD	00H
	DD	03H
	DD	FLAT:??_R2SolidBrush@Gdiplus@@8
rdata$r	ENDS
;	COMDAT ??_R2SolidBrush@Gdiplus@@8
rdata$r	SEGMENT
??_R2SolidBrush@Gdiplus@@8 DD FLAT:??_R1A@?0A@A@SolidBrush@Gdiplus@@8 ; Gdiplus::SolidBrush::`RTTI Base Class Array'
	DD	FLAT:??_R1A@?0A@A@Brush@Gdiplus@@8
	DD	FLAT:??_R13?0A@A@GdiplusBase@Gdiplus@@8
rdata$r	ENDS
;	COMDAT ??_R1A@?0A@A@SolidBrush@Gdiplus@@8
rdata$r	SEGMENT
??_R1A@?0A@A@SolidBrush@Gdiplus@@8 DD FLAT:??_R0?AVSolidBrush@Gdiplus@@@8 ; Gdiplus::SolidBrush::`RTTI Base Class Descriptor at (0,-1,0,0)'
	DD	02H
	DD	00H
	DD	0ffffffffH
	DD	00H
	DD	00H
rdata$r	ENDS
;	COMDAT ??_R1A@?0A@A@Brush@Gdiplus@@8
rdata$r	SEGMENT
??_R1A@?0A@A@Brush@Gdiplus@@8 DD FLAT:??_R0?AVBrush@Gdiplus@@@8 ; Gdiplus::Brush::`RTTI Base Class Descriptor at (0,-1,0,0)'
	DD	01H
	DD	00H
	DD	0ffffffffH
	DD	00H
	DD	00H
rdata$r	ENDS
;	COMDAT ??_R0?AVBrush@Gdiplus@@@8
_DATA	SEGMENT
??_R0?AVBrush@Gdiplus@@@8 DD FLAT:??_7type_info@@6B@	; Gdiplus::Brush `RTTI Type Descriptor'
	DD	00H
	DB	'.?AVBrush@Gdiplus@@', 00H
_DATA	ENDS
;	COMDAT ??_R13?0A@A@GdiplusBase@Gdiplus@@8
rdata$r	SEGMENT
??_R13?0A@A@GdiplusBase@Gdiplus@@8 DD FLAT:??_R0?AVGdiplusBase@Gdiplus@@@8 ; Gdiplus::GdiplusBase::`RTTI Base Class Descriptor at (4,-1,0,0)'
	DD	00H
	DD	04H
	DD	0ffffffffH
	DD	00H
	DD	00H
rdata$r	ENDS
;	COMDAT ??_R0?AVGdiplusBase@Gdiplus@@@8
_DATA	SEGMENT
??_R0?AVGdiplusBase@Gdiplus@@@8 DD FLAT:??_7type_info@@6B@ ; Gdiplus::GdiplusBase `RTTI Type Descriptor'
	DD	00H
	DB	'.?AVGdiplusBase@Gdiplus@@', 00H
; Function compile flags: /Odt /RTCsu
_DATA	ENDS
;	COMDAT ??0SolidBrush@Gdiplus@@QAE@ABVColor@1@@Z
_TEXT	SEGMENT
_brush$ = -24						; size = 4
_this$ = -16						; size = 4
__$EHRec$ = -12						; size = 12
_color$ = 8						; size = 4
??0SolidBrush@Gdiplus@@QAE@ABVColor@1@@Z PROC NEAR	; Gdiplus::SolidBrush::SolidBrush, COMDAT
; _this$ = ecx

; 112  :     SolidBrush(IN const Color& color)

  00000	55		 push	 ebp
  00001	8b ec		 mov	 ebp, esp
  00003	6a ff		 push	 -1
  00005	68 00 00 00 00	 push	 __ehhandler$??0SolidBrush@Gdiplus@@QAE@ABVColor@1@@Z
  0000a	64 a1 00 00 00
	00		 mov	 eax, DWORD PTR fs:__except_list
  00010	50		 push	 eax
  00011	64 89 25 00 00
	00 00		 mov	 DWORD PTR fs:__except_list, esp
  00018	83 ec 10	 sub	 esp, 16			; 00000010H
  0001b	b8 cc cc cc cc	 mov	 eax, -858993460		; ccccccccH
  00020	89 45 e4	 mov	 DWORD PTR [ebp-28], eax
  00023	89 45 e8	 mov	 DWORD PTR [ebp-24], eax
  00026	89 45 ec	 mov	 DWORD PTR [ebp-20], eax
  00029	89 45 f0	 mov	 DWORD PTR [ebp-16], eax
  0002c	89 4d f0	 mov	 DWORD PTR _this$[ebp], ecx
  0002f	8b 4d f0	 mov	 ecx, DWORD PTR _this$[ebp]
  00032	e8 00 00 00 00	 call	 ??0Brush@Gdiplus@@IAE@XZ ; Gdiplus::Brush::Brush
  00037	c7 45 fc 00 00
	00 00		 mov	 DWORD PTR __$EHRec$[ebp+8], 0
  0003e	8b 45 f0	 mov	 eax, DWORD PTR _this$[ebp]
  00041	c7 00 00 00 00
	00		 mov	 DWORD PTR [eax], OFFSET FLAT:??_7SolidBrush@Gdiplus@@6B@

; 113  :     {
; 114  :         GpSolidFill *brush = NULL;

  00047	c7 45 e8 00 00
	00 00		 mov	 DWORD PTR _brush$[ebp], 0

; 115  : 
; 116  :         lastResult = DllExports::GdipCreateSolidFill(color.GetValue(), &brush);

  0004e	8d 4d e8	 lea	 ecx, DWORD PTR _brush$[ebp]
  00051	51		 push	 ecx
  00052	8b 4d 08	 mov	 ecx, DWORD PTR _color$[ebp]
  00055	e8 00 00 00 00	 call	 ?GetValue@Color@Gdiplus@@QBEKXZ ; Gdiplus::Color::GetValue
  0005a	50		 push	 eax
  0005b	e8 00 00 00 00	 call	 _GdipCreateSolidFill@8
  00060	8b 55 f0	 mov	 edx, DWORD PTR _this$[ebp]
  00063	89 42 08	 mov	 DWORD PTR [edx+8], eax

; 117  : 
; 118  :         SetNativeBrush(brush);

  00066	8b 45 e8	 mov	 eax, DWORD PTR _brush$[ebp]
  00069	50		 push	 eax
  0006a	8b 4d f0	 mov	 ecx, DWORD PTR _this$[ebp]
  0006d	e8 00 00 00 00	 call	 ?SetNativeBrush@Brush@Gdiplus@@IAEXPAVGpBrush@2@@Z ; Gdiplus::Brush::SetNativeBrush

; 119  :     }

  00072	c7 45 fc ff ff
	ff ff		 mov	 DWORD PTR __$EHRec$[ebp+8], -1
  00079	8b 45 f0	 mov	 eax, DWORD PTR _this$[ebp]
  0007c	52		 push	 edx
  0007d	8b cd		 mov	 ecx, ebp
  0007f	50		 push	 eax
  00080	8d 15 00 00 00
	00		 lea	 edx, DWORD PTR $L188551
  00086	e8 00 00 00 00	 call	 @_RTC_CheckStackVars@8
  0008b	58		 pop	 eax
  0008c	5a		 pop	 edx
  0008d	8b 4d f4	 mov	 ecx, DWORD PTR __$EHRec$[ebp]
  00090	64 89 0d 00 00
	00 00		 mov	 DWORD PTR fs:__except_list, ecx
  00097	83 c4 1c	 add	 esp, 28			; 0000001cH
  0009a	3b ec		 cmp	 ebp, esp
  0009c	e8 00 00 00 00	 call	 __RTC_CheckEsp
  000a1	8b e5		 mov	 esp, ebp
  000a3	5d		 pop	 ebp
  000a4	c2 04 00	 ret	 4
$L188551:
  000a7	01 00 00 00	 DD	 1
  000ab	00 00 00 00	 DD	 $L188550
$L188550:
  000af	e8 ff ff ff	 DD	 -24			; ffffffe8H
  000b3	04 00 00 00	 DD	 4
  000b7	00 00 00 00	 DD	 $L188548
$L188548:
  000bb	62		 DB	 98			; 00000062H
  000bc	72		 DB	 114			; 00000072H
  000bd	75		 DB	 117			; 00000075H
  000be	73		 DB	 115			; 00000073H
  000bf	68		 DB	 104			; 00000068H
  000c0	00		 DB	 0
_TEXT	ENDS
;	COMDAT text$x
text$x	SEGMENT
$L188545:
  00000	8b 4d f0	 mov	 ecx, DWORD PTR _this$[ebp]
  00003	e9 00 00 00 00	 jmp	 ??1Brush@Gdiplus@@UAE@XZ ; Gdiplus::Brush::~Brush
__ehhandler$??0SolidBrush@Gdiplus@@QAE@ABVColor@1@@Z:
  00008	b8 00 00 00 00	 mov	 eax, OFFSET FLAT:$T188547
  0000d	e9 00 00 00 00	 jmp	 ___CxxFrameHandler
text$x	ENDS
??0SolidBrush@Gdiplus@@QAE@ABVColor@1@@Z ENDP		; Gdiplus::SolidBrush::SolidBrush
; Function compile flags: /Odt /RTCsu
; File d:\program files (x86)\microsoft visual studio .net 2003\vc7\platformsdk\include\gdipluscolor.h
;	COMDAT ?GetValue@Color@Gdiplus@@QBEKXZ
_TEXT	SEGMENT
_this$ = -4						; size = 4
?GetValue@Color@Gdiplus@@QBEKXZ PROC NEAR		; Gdiplus::Color::GetValue, COMDAT
; _this$ = ecx

; 120  :     {

  00000	55		 push	 ebp
  00001	8b ec		 mov	 ebp, esp
  00003	51		 push	 ecx
  00004	c7 45 fc cc cc
	cc cc		 mov	 DWORD PTR [ebp-4], -858993460 ; ccccccccH
  0000b	89 4d fc	 mov	 DWORD PTR _this$[ebp], ecx

; 121  :         return Argb;

  0000e	8b 45 fc	 mov	 eax, DWORD PTR _this$[ebp]
  00011	8b 00		 mov	 eax, DWORD PTR [eax]

; 122  :     }

  00013	8b e5		 mov	 esp, ebp
  00015	5d		 pop	 ebp
  00016	c3		 ret	 0
?GetValue@Color@Gdiplus@@QBEKXZ ENDP			; Gdiplus::Color::GetValue
_TEXT	ENDS
PUBLIC	??_7Brush@Gdiplus@@6B@				; Gdiplus::Brush::`vftable'
PUBLIC	??_GBrush@Gdiplus@@UAEPAXI@Z			; Gdiplus::Brush::`scalar deleting destructor'
PUBLIC	??_R4Brush@Gdiplus@@6B@				; Gdiplus::Brush::`RTTI Complete Object Locator'
PUBLIC	??_R3Brush@Gdiplus@@8				; Gdiplus::Brush::`RTTI Class Hierarchy Descriptor'
PUBLIC	??_R2Brush@Gdiplus@@8				; Gdiplus::Brush::`RTTI Base Class Array'
EXTRN	??_EBrush@Gdiplus@@UAEPAXI@Z:NEAR		; Gdiplus::Brush::`vector deleting destructor'
EXTRN	_GdipDeleteBrush@4:NEAR
;	COMDAT ??_7Brush@Gdiplus@@6B@
; File d:\program files (x86)\microsoft visual studio .net 2003\vc7\platformsdk\include\gdiplusbrush.h
CONST	SEGMENT
??_7Brush@Gdiplus@@6B@ DD FLAT:??_R4Brush@Gdiplus@@6B@	; Gdiplus::Brush::`vftable'
	DD	FLAT:??_EBrush@Gdiplus@@UAEPAXI@Z
	DD	FLAT:?Clone@Brush@Gdiplus@@UBEPAV12@XZ
CONST	ENDS
;	COMDAT ??_R4Brush@Gdiplus@@6B@
rdata$r	SEGMENT
??_R4Brush@Gdiplus@@6B@ DD 00H				; Gdiplus::Brush::`RTTI Complete Object Locator'
	DD	00H
	DD	00H
	DD	FLAT:??_R0?AVBrush@Gdiplus@@@8
	DD	FLAT:??_R3Brush@Gdiplus@@8
rdata$r	ENDS
;	COMDAT ??_R3Brush@Gdiplus@@8
rdata$r	SEGMENT
??_R3Brush@Gdiplus@@8 DD 00H				; Gdiplus::Brush::`RTTI Class Hierarchy Descriptor'
	DD	00H
	DD	02H
	DD	FLAT:??_R2Brush@Gdiplus@@8
rdata$r	ENDS
;	COMDAT ??_R2Brush@Gdiplus@@8
rdata$r	SEGMENT
??_R2Brush@Gdiplus@@8 DD FLAT:??_R1A@?0A@A@Brush@Gdiplus@@8 ; Gdiplus::Brush::`RTTI Base Class Array'
	DD	FLAT:??_R13?0A@A@GdiplusBase@Gdiplus@@8
; Function compile flags: /Odt /RTCsu
rdata$r	ENDS
;	COMDAT ??1Brush@Gdiplus@@UAE@XZ
_TEXT	SEGMENT
_this$ = -4						; size = 4
??1Brush@Gdiplus@@UAE@XZ PROC NEAR			; Gdiplus::Brush::~Brush, COMDAT
; _this$ = ecx

; 31   :     {

  00000	55		 push	 ebp
  00001	8b ec		 mov	 ebp, esp
  00003	51		 push	 ecx
  00004	c7 45 fc cc cc
	cc cc		 mov	 DWORD PTR [ebp-4], -858993460 ; ccccccccH
  0000b	89 4d fc	 mov	 DWORD PTR _this$[ebp], ecx
  0000e	8b 45 fc	 mov	 eax, DWORD PTR _this$[ebp]
  00011	c7 00 00 00 00
	00		 mov	 DWORD PTR [eax], OFFSET FLAT:??_7Brush@Gdiplus@@6B@

; 32   :         DllExports::GdipDeleteBrush(nativeBrush);

  00017	8b 4d fc	 mov	 ecx, DWORD PTR _this$[ebp]
  0001a	8b 51 04	 mov	 edx, DWORD PTR [ecx+4]
  0001d	52		 push	 edx
  0001e	e8 00 00 00 00	 call	 _GdipDeleteBrush@4

; 33   :     }

  00023	83 c4 04	 add	 esp, 4
  00026	3b ec		 cmp	 ebp, esp
  00028	e8 00 00 00 00	 call	 __RTC_CheckEsp
  0002d	8b e5		 mov	 esp, ebp
  0002f	5d		 pop	 ebp
  00030	c3		 ret	 0
??1Brush@Gdiplus@@UAE@XZ ENDP				; Gdiplus::Brush::~Brush
_TEXT	ENDS
PUBLIC	??0Brush@Gdiplus@@IAE@PAVGpBrush@1@W4Status@1@@Z ; Gdiplus::Brush::Brush
PUBLIC	?SetStatus@Brush@Gdiplus@@IBE?AW4Status@2@W432@@Z ; Gdiplus::Brush::SetStatus
EXTRN	_GdipCloneBrush@8:NEAR
;	COMDAT xdata$x
xdata$x	SEGMENT
$T188569 DD	0ffffffffH
	DD	FLAT:$L188562
$T188564 DD	019930520H
	DD	01H
	DD	FLAT:$T188569
	DD	2 DUP(00H)
	DD	2 DUP(00H)
; Function compile flags: /Odt /RTCsu
xdata$x	ENDS
;	COMDAT ?Clone@Brush@Gdiplus@@UBEPAV12@XZ
_TEXT	SEGMENT
tv80 = -44						; size = 4
$T188559 = -40						; size = 4
$T188558 = -36						; size = 4
_newBrush$ = -32					; size = 4
_brush$ = -24						; size = 4
_this$ = -16						; size = 4
__$EHRec$ = -12						; size = 12
?Clone@Brush@Gdiplus@@UBEPAV12@XZ PROC NEAR		; Gdiplus::Brush::Clone, COMDAT
; _this$ = ecx

; 36   :     {

  00000	55		 push	 ebp
  00001	8b ec		 mov	 ebp, esp
  00003	6a ff		 push	 -1
  00005	68 00 00 00 00	 push	 __ehhandler$?Clone@Brush@Gdiplus@@UBEPAV12@XZ
  0000a	64 a1 00 00 00
	00		 mov	 eax, DWORD PTR fs:__except_list
  00010	50		 push	 eax
  00011	64 89 25 00 00
	00 00		 mov	 DWORD PTR fs:__except_list, esp
  00018	83 ec 20	 sub	 esp, 32			; 00000020H
  0001b	b8 cc cc cc cc	 mov	 eax, -858993460		; ccccccccH
  00020	89 45 d4	 mov	 DWORD PTR [ebp-44], eax
  00023	89 45 d8	 mov	 DWORD PTR [ebp-40], eax
  00026	89 45 dc	 mov	 DWORD PTR [ebp-36], eax
  00029	89 45 e0	 mov	 DWORD PTR [ebp-32], eax
  0002c	89 45 e4	 mov	 DWORD PTR [ebp-28], eax
  0002f	89 45 e8	 mov	 DWORD PTR [ebp-24], eax
  00032	89 45 ec	 mov	 DWORD PTR [ebp-20], eax
  00035	89 45 f0	 mov	 DWORD PTR [ebp-16], eax
  00038	89 4d f0	 mov	 DWORD PTR _this$[ebp], ecx

; 37   :         GpBrush *brush = NULL;

  0003b	c7 45 e8 00 00
	00 00		 mov	 DWORD PTR _brush$[ebp], 0

; 38   : 
; 39   :         SetStatus(DllExports::GdipCloneBrush(nativeBrush, &brush));

  00042	8d 45 e8	 lea	 eax, DWORD PTR _brush$[ebp]
  00045	50		 push	 eax
  00046	8b 4d f0	 mov	 ecx, DWORD PTR _this$[ebp]
  00049	8b 51 04	 mov	 edx, DWORD PTR [ecx+4]
  0004c	52		 push	 edx
  0004d	e8 00 00 00 00	 call	 _GdipCloneBrush@8
  00052	50		 push	 eax
  00053	8b 4d f0	 mov	 ecx, DWORD PTR _this$[ebp]
  00056	e8 00 00 00 00	 call	 ?SetStatus@Brush@Gdiplus@@IBE?AW4Status@2@W432@@Z ; Gdiplus::Brush::SetStatus

; 40   : 
; 41   :         Brush *newBrush = new Brush(brush, lastResult);

  0005b	6a 0c		 push	 12			; 0000000cH
  0005d	e8 00 00 00 00	 call	 ??2GdiplusBase@Gdiplus@@SAPAXI@Z ; Gdiplus::GdiplusBase::operator new
  00062	83 c4 04	 add	 esp, 4
  00065	89 45 d8	 mov	 DWORD PTR $T188559[ebp], eax
  00068	c7 45 fc 00 00
	00 00		 mov	 DWORD PTR __$EHRec$[ebp+8], 0
  0006f	83 7d d8 00	 cmp	 DWORD PTR $T188559[ebp], 0
  00073	74 18		 je	 SHORT $L188560
  00075	8b 45 f0	 mov	 eax, DWORD PTR _this$[ebp]
  00078	8b 48 08	 mov	 ecx, DWORD PTR [eax+8]
  0007b	51		 push	 ecx
  0007c	8b 55 e8	 mov	 edx, DWORD PTR _brush$[ebp]
  0007f	52		 push	 edx
  00080	8b 4d d8	 mov	 ecx, DWORD PTR $T188559[ebp]
  00083	e8 00 00 00 00	 call	 ??0Brush@Gdiplus@@IAE@PAVGpBrush@1@W4Status@1@@Z ; Gdiplus::Brush::Brush
  00088	89 45 d4	 mov	 DWORD PTR tv80[ebp], eax
  0008b	eb 07		 jmp	 SHORT $L188561
$L188560:
  0008d	c7 45 d4 00 00
	00 00		 mov	 DWORD PTR tv80[ebp], 0
$L188561:
  00094	8b 45 d4	 mov	 eax, DWORD PTR tv80[ebp]
  00097	89 45 dc	 mov	 DWORD PTR $T188558[ebp], eax
  0009a	c7 45 fc ff ff
	ff ff		 mov	 DWORD PTR __$EHRec$[ebp+8], -1
  000a1	8b 4d dc	 mov	 ecx, DWORD PTR $T188558[ebp]
  000a4	89 4d e0	 mov	 DWORD PTR _newBrush$[ebp], ecx

; 42   :         
; 43   :         if (newBrush == NULL) 

  000a7	83 7d e0 00	 cmp	 DWORD PTR _newBrush$[ebp], 0
  000ab	75 09		 jne	 SHORT $L112722

; 44   :         {
; 45   :             DllExports::GdipDeleteBrush(brush);

  000ad	8b 55 e8	 mov	 edx, DWORD PTR _brush$[ebp]
  000b0	52		 push	 edx
  000b1	e8 00 00 00 00	 call	 _GdipDeleteBrush@4
$L112722:

; 46   :         }
; 47   : 
; 48   :         return newBrush;

  000b6	8b 45 e0	 mov	 eax, DWORD PTR _newBrush$[ebp]

; 49   :     }

  000b9	52		 push	 edx
  000ba	8b cd		 mov	 ecx, ebp
  000bc	50		 push	 eax
  000bd	8d 15 00 00 00
	00		 lea	 edx, DWORD PTR $L188568
  000c3	e8 00 00 00 00	 call	 @_RTC_CheckStackVars@8
  000c8	58		 pop	 eax
  000c9	5a		 pop	 edx
  000ca	8b 4d f4	 mov	 ecx, DWORD PTR __$EHRec$[ebp]
  000cd	64 89 0d 00 00
	00 00		 mov	 DWORD PTR fs:__except_list, ecx
  000d4	83 c4 2c	 add	 esp, 44			; 0000002cH
  000d7	3b ec		 cmp	 ebp, esp
  000d9	e8 00 00 00 00	 call	 __RTC_CheckEsp
  000de	8b e5		 mov	 esp, ebp
  000e0	5d		 pop	 ebp
  000e1	c3		 ret	 0
$L188568:
  000e2	01 00 00 00	 DD	 1
  000e6	00 00 00 00	 DD	 $L188567
$L188567:
  000ea	e8 ff ff ff	 DD	 -24			; ffffffe8H
  000ee	04 00 00 00	 DD	 4
  000f2	00 00 00 00	 DD	 $L188565
$L188565:
  000f6	62		 DB	 98			; 00000062H
  000f7	72		 DB	 114			; 00000072H
  000f8	75		 DB	 117			; 00000075H
  000f9	73		 DB	 115			; 00000073H
  000fa	68		 DB	 104			; 00000068H
  000fb	00		 DB	 0
_TEXT	ENDS
;	COMDAT text$x
text$x	SEGMENT
$L188562:
  00000	8b 45 d8	 mov	 eax, DWORD PTR $T188559[ebp]
  00003	50		 push	 eax
  00004	e8 00 00 00 00	 call	 ??3GdiplusBase@Gdiplus@@SAXPAX@Z ; Gdiplus::GdiplusBase::operator delete
  00009	59		 pop	 ecx
  0000a	c3		 ret	 0
__ehhandler$?Clone@Brush@Gdiplus@@UBEPAV12@XZ:
  0000b	b8 00 00 00 00	 mov	 eax, OFFSET FLAT:$T188564
  00010	e9 00 00 00 00	 jmp	 ___CxxFrameHandler
text$x	ENDS
?Clone@Brush@Gdiplus@@UBEPAV12@XZ ENDP			; Gdiplus::Brush::Clone
; Function compile flags: /Odt /RTCsu
;	COMDAT ??0Brush@Gdiplus@@IAE@XZ
_TEXT	SEGMENT
_this$ = -4						; size = 4
??0Brush@Gdiplus@@IAE@XZ PROC NEAR			; Gdiplus::Brush::Brush, COMDAT
; _this$ = ecx

; 70   :     Brush()

  00000	55		 push	 ebp
  00001	8b ec		 mov	 ebp, esp
  00003	51		 push	 ecx
  00004	c7 45 fc cc cc
	cc cc		 mov	 DWORD PTR [ebp-4], -858993460 ; ccccccccH
  0000b	89 4d fc	 mov	 DWORD PTR _this$[ebp], ecx
  0000e	8b 45 fc	 mov	 eax, DWORD PTR _this$[ebp]
  00011	c7 00 00 00 00
	00		 mov	 DWORD PTR [eax], OFFSET FLAT:??_7Brush@Gdiplus@@6B@

; 71   :     {
; 72   :         SetStatus(NotImplemented);

  00017	6a 06		 push	 6
  00019	8b 4d fc	 mov	 ecx, DWORD PTR _this$[ebp]
  0001c	e8 00 00 00 00	 call	 ?SetStatus@Brush@Gdiplus@@IBE?AW4Status@2@W432@@Z ; Gdiplus::Brush::SetStatus

; 73   :     }

  00021	8b 45 fc	 mov	 eax, DWORD PTR _this$[ebp]
  00024	83 c4 04	 add	 esp, 4
  00027	3b ec		 cmp	 ebp, esp
  00029	e8 00 00 00 00	 call	 __RTC_CheckEsp
  0002e	8b e5		 mov	 esp, ebp
  00030	5d		 pop	 ebp
  00031	c3		 ret	 0
??0Brush@Gdiplus@@IAE@XZ ENDP				; Gdiplus::Brush::Brush
; Function compile flags: /Odt /RTCsu
_TEXT	ENDS
;	COMDAT ??0Brush@Gdiplus@@IAE@PAVGpBrush@1@W4Status@1@@Z
_TEXT	SEGMENT
_this$ = -4						; size = 4
_nativeBrush$ = 8					; size = 4
_status$ = 12						; size = 4
??0Brush@Gdiplus@@IAE@PAVGpBrush@1@W4Status@1@@Z PROC NEAR ; Gdiplus::Brush::Brush, COMDAT
; _this$ = ecx

; 80   :     Brush(GpBrush* nativeBrush, Status status)

  00000	55		 push	 ebp
  00001	8b ec		 mov	 ebp, esp
  00003	51		 push	 ecx
  00004	c7 45 fc cc cc
	cc cc		 mov	 DWORD PTR [ebp-4], -858993460 ; ccccccccH
  0000b	89 4d fc	 mov	 DWORD PTR _this$[ebp], ecx
  0000e	8b 45 fc	 mov	 eax, DWORD PTR _this$[ebp]
  00011	c7 00 00 00 00
	00		 mov	 DWORD PTR [eax], OFFSET FLAT:??_7Brush@Gdiplus@@6B@

; 81   :     {
; 82   :         lastResult = status;

  00017	8b 4d fc	 mov	 ecx, DWORD PTR _this$[ebp]
  0001a	8b 55 0c	 mov	 edx, DWORD PTR _status$[ebp]
  0001d	89 51 08	 mov	 DWORD PTR [ecx+8], edx

; 83   :         SetNativeBrush(nativeBrush);

  00020	8b 45 08	 mov	 eax, DWORD PTR _nativeBrush$[ebp]
  00023	50		 push	 eax
  00024	8b 4d fc	 mov	 ecx, DWORD PTR _this$[ebp]
  00027	e8 00 00 00 00	 call	 ?SetNativeBrush@Brush@Gdiplus@@IAEXPAVGpBrush@2@@Z ; Gdiplus::Brush::SetNativeBrush

; 84   :     }

  0002c	8b 45 fc	 mov	 eax, DWORD PTR _this$[ebp]
  0002f	83 c4 04	 add	 esp, 4
  00032	3b ec		 cmp	 ebp, esp
  00034	e8 00 00 00 00	 call	 __RTC_CheckEsp
  00039	8b e5		 mov	 esp, ebp
  0003b	5d		 pop	 ebp
  0003c	c2 08 00	 ret	 8
??0Brush@Gdiplus@@IAE@PAVGpBrush@1@W4Status@1@@Z ENDP	; Gdiplus::Brush::Brush
; Function compile flags: /Odt /RTCsu
_TEXT	ENDS
;	COMDAT ?SetNativeBrush@Brush@Gdiplus@@IAEXPAVGpBrush@2@@Z
_TEXT	SEGMENT
_this$ = -4						; size = 4
_nativeBrush$ = 8					; size = 4
?SetNativeBrush@Brush@Gdiplus@@IAEXPAVGpBrush@2@@Z PROC NEAR ; Gdiplus::Brush::SetNativeBrush, COMDAT
; _this$ = ecx

; 87   :     {

  00000	55		 push	 ebp
  00001	8b ec		 mov	 ebp, esp
  00003	51		 push	 ecx
  00004	c7 45 fc cc cc
	cc cc		 mov	 DWORD PTR [ebp-4], -858993460 ; ccccccccH
  0000b	89 4d fc	 mov	 DWORD PTR _this$[ebp], ecx

; 88   :         this->nativeBrush = nativeBrush;

  0000e	8b 45 fc	 mov	 eax, DWORD PTR _this$[ebp]
  00011	8b 4d 08	 mov	 ecx, DWORD PTR _nativeBrush$[ebp]
  00014	89 48 04	 mov	 DWORD PTR [eax+4], ecx

; 89   :     }

  00017	8b e5		 mov	 esp, ebp
  00019	5d		 pop	 ebp
  0001a	c2 04 00	 ret	 4
?SetNativeBrush@Brush@Gdiplus@@IAEXPAVGpBrush@2@@Z ENDP	; Gdiplus::Brush::SetNativeBrush
; Function compile flags: /Odt /RTCsu
_TEXT	ENDS
;	COMDAT ?SetStatus@Brush@Gdiplus@@IBE?AW4Status@2@W432@@Z
_TEXT	SEGMENT
_this$ = -4						; size = 4
_status$ = 8						; size = 4
?SetStatus@Brush@Gdiplus@@IBE?AW4Status@2@W432@@Z PROC NEAR ; Gdiplus::Brush::SetStatus, COMDAT
; _this$ = ecx

; 92   :     {

  00000	55		 push	 ebp
  00001	8b ec		 mov	 ebp, esp
  00003	51		 push	 ecx
  00004	c7 45 fc cc cc
	cc cc		 mov	 DWORD PTR [ebp-4], -858993460 ; ccccccccH
  0000b	89 4d fc	 mov	 DWORD PTR _this$[ebp], ecx

; 93   :         if (status != Ok)

  0000e	83 7d 08 00	 cmp	 DWORD PTR _status$[ebp], 0
  00012	74 0e		 je	 SHORT $L112738

; 94   :             return (lastResult = status);

  00014	8b 45 fc	 mov	 eax, DWORD PTR _this$[ebp]
  00017	8b 4d 08	 mov	 ecx, DWORD PTR _status$[ebp]
  0001a	89 48 08	 mov	 DWORD PTR [eax+8], ecx
  0001d	8b 45 08	 mov	 eax, DWORD PTR _status$[ebp]
  00020	eb 03		 jmp	 SHORT $L112737
$L112738:

; 95   :         else
; 96   :             return status;

  00022	8b 45 08	 mov	 eax, DWORD PTR _status$[ebp]
$L112737:

; 97   :     }

  00025	8b e5		 mov	 esp, ebp
  00027	5d		 pop	 ebp
  00028	c2 04 00	 ret	 4
?SetStatus@Brush@Gdiplus@@IBE?AW4Status@2@W432@@Z ENDP	; Gdiplus::Brush::SetStatus
; Function compile flags: /Odt /RTCsu
_TEXT	ENDS
;	COMDAT ??_GBrush@Gdiplus@@UAEPAXI@Z
_TEXT	SEGMENT
_this$ = -4						; size = 4
___flags$ = 8						; size = 4
??_GBrush@Gdiplus@@UAEPAXI@Z PROC NEAR			; Gdiplus::Brush::`scalar deleting destructor', COMDAT
; _this$ = ecx
  00000	55		 push	 ebp
  00001	8b ec		 mov	 ebp, esp
  00003	51		 push	 ecx
  00004	c7 45 fc cc cc
	cc cc		 mov	 DWORD PTR [ebp-4], -858993460 ; ccccccccH
  0000b	89 4d fc	 mov	 DWORD PTR _this$[ebp], ecx
  0000e	8b 4d fc	 mov	 ecx, DWORD PTR _this$[ebp]
  00011	e8 00 00 00 00	 call	 ??1Brush@Gdiplus@@UAE@XZ ; Gdiplus::Brush::~Brush
  00016	8b 45 08	 mov	 eax, DWORD PTR ___flags$[ebp]
  00019	83 e0 01	 and	 eax, 1
  0001c	74 0c		 je	 SHORT $L112743
  0001e	8b 4d fc	 mov	 ecx, DWORD PTR _this$[ebp]
  00021	51		 push	 ecx
  00022	e8 00 00 00 00	 call	 ??3GdiplusBase@Gdiplus@@SAXPAX@Z ; Gdiplus::GdiplusBase::operator delete
  00027	83 c4 04	 add	 esp, 4
$L112743:
  0002a	8b 45 fc	 mov	 eax, DWORD PTR _this$[ebp]
  0002d	83 c4 04	 add	 esp, 4
  00030	3b ec		 cmp	 ebp, esp
  00032	e8 00 00 00 00	 call	 __RTC_CheckEsp
  00037	8b e5		 mov	 esp, ebp
  00039	5d		 pop	 ebp
  0003a	c2 04 00	 ret	 4
??_GBrush@Gdiplus@@UAEPAXI@Z ENDP			; Gdiplus::Brush::`scalar deleting destructor'
; Function compile flags: /Odt /RTCsu
_TEXT	ENDS
;	COMDAT ??_GSolidBrush@Gdiplus@@UAEPAXI@Z
_TEXT	SEGMENT
_this$ = -4						; size = 4
___flags$ = 8						; size = 4
??_GSolidBrush@Gdiplus@@UAEPAXI@Z PROC NEAR		; Gdiplus::SolidBrush::`scalar deleting destructor', COMDAT
; _this$ = ecx
  00000	55		 push	 ebp
  00001	8b ec		 mov	 ebp, esp
  00003	51		 push	 ecx
  00004	c7 45 fc cc cc
	cc cc		 mov	 DWORD PTR [ebp-4], -858993460 ; ccccccccH
  0000b	89 4d fc	 mov	 DWORD PTR _this$[ebp], ecx
  0000e	8b 4d fc	 mov	 ecx, DWORD PTR _this$[ebp]
  00011	e8 00 00 00 00	 call	 ??1SolidBrush@Gdiplus@@UAE@XZ
  00016	8b 45 08	 mov	 eax, DWORD PTR ___flags$[ebp]
  00019	83 e0 01	 and	 eax, 1
  0001c	74 0c		 je	 SHORT $L112780
  0001e	8b 4d fc	 mov	 ecx, DWORD PTR _this$[ebp]
  00021	51		 push	 ecx
  00022	e8 00 00 00 00	 call	 ??3GdiplusBase@Gdiplus@@SAXPAX@Z ; Gdiplus::GdiplusBase::operator delete
  00027	83 c4 04	 add	 esp, 4
$L112780:
  0002a	8b 45 fc	 mov	 eax, DWORD PTR _this$[ebp]
  0002d	83 c4 04	 add	 esp, 4
  00030	3b ec		 cmp	 ebp, esp
  00032	e8 00 00 00 00	 call	 __RTC_CheckEsp
  00037	8b e5		 mov	 esp, ebp
  00039	5d		 pop	 ebp
  0003a	c2 04 00	 ret	 4
??_GSolidBrush@Gdiplus@@UAEPAXI@Z ENDP			; Gdiplus::SolidBrush::`scalar deleting destructor'
; Function compile flags: /Odt /RTCsu
_TEXT	ENDS
;	COMDAT ??1SolidBrush@Gdiplus@@UAE@XZ
_TEXT	SEGMENT
_this$ = -4						; size = 4
??1SolidBrush@Gdiplus@@UAE@XZ PROC NEAR			; Gdiplus::SolidBrush::~SolidBrush, COMDAT
; _this$ = ecx
  00000	55		 push	 ebp
  00001	8b ec		 mov	 ebp, esp
  00003	51		 push	 ecx
  00004	c7 45 fc cc cc
	cc cc		 mov	 DWORD PTR [ebp-4], -858993460 ; ccccccccH
  0000b	89 4d fc	 mov	 DWORD PTR _this$[ebp], ecx
  0000e	8b 4d fc	 mov	 ecx, DWORD PTR _this$[ebp]
  00011	e8 00 00 00 00	 call	 ??1Brush@Gdiplus@@UAE@XZ ; Gdiplus::Brush::~Brush
  00016	83 c4 04	 add	 esp, 4
  00019	3b ec		 cmp	 ebp, esp
  0001b	e8 00 00 00 00	 call	 __RTC_CheckEsp
  00020	8b e5		 mov	 esp, ebp
  00022	5d		 pop	 ebp
  00023	c3		 ret	 0
??1SolidBrush@Gdiplus@@UAE@XZ ENDP			; Gdiplus::SolidBrush::~SolidBrush
_TEXT	ENDS
PUBLIC	??_7LinearGradientBrush@Gdiplus@@6B@		; Gdiplus::LinearGradientBrush::`vftable'
PUBLIC	??_GLinearGradientBrush@Gdiplus@@UAEPAXI@Z	; Gdiplus::LinearGradientBrush::`scalar deleting destructor'
PUBLIC	??_R4LinearGradientBrush@Gdiplus@@6B@		; Gdiplus::LinearGradientBrush::`RTTI Complete Object Locator'
PUBLIC	??_R0?AVLinearGradientBrush@Gdiplus@@@8		; Gdiplus::LinearGradientBrush `RTTI Type Descriptor'
PUBLIC	??_R3LinearGradientBrush@Gdiplus@@8		; Gdiplus::LinearGradientBrush::`RTTI Class Hierarchy Descriptor'
PUBLIC	??_R2LinearGradientBrush@Gdiplus@@8		; Gdiplus::LinearGradientBrush::`RTTI Base Class Array'
PUBLIC	??_R1A@?0A@A@LinearGradientBrush@Gdiplus@@8	; Gdiplus::LinearGradientBrush::`RTTI Base Class Descriptor at (0,-1,0,0)'
EXTRN	??_ELinearGradientBrush@Gdiplus@@UAEPAXI@Z:NEAR	; Gdiplus::LinearGradientBrush::`vector deleting destructor'
EXTRN	_GdipCreateLineBrushFromRect@24:NEAR
;	COMDAT xdata$x
xdata$x	SEGMENT
$T188588 DD	0ffffffffH
	DD	FLAT:$L188581
$T188583 DD	019930520H
	DD	01H
	DD	FLAT:$T188588
	DD	2 DUP(00H)
	DD	2 DUP(00H)
xdata$x	ENDS
;	COMDAT ??_7LinearGradientBrush@Gdiplus@@6B@
CONST	SEGMENT
??_7LinearGradientBrush@Gdiplus@@6B@ DD FLAT:??_R4LinearGradientBrush@Gdiplus@@6B@ ; Gdiplus::LinearGradientBrush::`vftable'
	DD	FLAT:??_ELinearGradientBrush@Gdiplus@@UAEPAXI@Z
	DD	FLAT:?Clone@Brush@Gdiplus@@UBEPAV12@XZ
CONST	ENDS
;	COMDAT ??_R4LinearGradientBrush@Gdiplus@@6B@
rdata$r	SEGMENT
??_R4LinearGradientBrush@Gdiplus@@6B@ DD 00H		; Gdiplus::LinearGradientBrush::`RTTI Complete Object Locator'
	DD	00H
	DD	00H
	DD	FLAT:??_R0?AVLinearGradientBrush@Gdiplus@@@8
	DD	FLAT:??_R3LinearGradientBrush@Gdiplus@@8
rdata$r	ENDS
;	COMDAT ??_R0?AVLinearGradientBrush@Gdiplus@@@8
_DATA	SEGMENT
??_R0?AVLinearGradientBrush@Gdiplus@@@8 DD FLAT:??_7type_info@@6B@ ; Gdiplus::LinearGradientBrush `RTTI Type Descriptor'
	DD	00H
	DB	'.?AVLinearGradientBrush@Gdiplus@@', 00H
_DATA	ENDS
;	COMDAT ??_R3LinearGradientBrush@Gdiplus@@8
rdata$r	SEGMENT
??_R3LinearGradientBrush@Gdiplus@@8 DD 00H		; Gdiplus::LinearGradientBrush::`RTTI Class Hierarchy Descriptor'
	DD	00H
	DD	03H
	DD	FLAT:??_R2LinearGradientBrush@Gdiplus@@8
rdata$r	ENDS
;	COMDAT ??_R2LinearGradientBrush@Gdiplus@@8
rdata$r	SEGMENT
??_R2LinearGradientBrush@Gdiplus@@8 DD FLAT:??_R1A@?0A@A@LinearGradientBrush@Gdiplus@@8 ; Gdiplus::LinearGradientBrush::`RTTI Base Class Array'
	DD	FLAT:??_R1A@?0A@A@Brush@Gdiplus@@8
	DD	FLAT:??_R13?0A@A@GdiplusBase@Gdiplus@@8
rdata$r	ENDS
;	COMDAT ??_R1A@?0A@A@LinearGradientBrush@Gdiplus@@8
rdata$r	SEGMENT
??_R1A@?0A@A@LinearGradientBrush@Gdiplus@@8 DD FLAT:??_R0?AVLinearGradientBrush@Gdiplus@@@8 ; Gdiplus::LinearGradientBrush::`RTTI Base Class Descriptor at (0,-1,0,0)'
	DD	02H
	DD	00H
	DD	0ffffffffH
	DD	00H
	DD	00H
; Function compile flags: /Odt /RTCsu
rdata$r	ENDS
;	COMDAT ??0LinearGradientBrush@Gdiplus@@QAE@ABVRectF@1@ABVColor@1@1W4LinearGradientMode@1@@Z
_TEXT	SEGMENT
_brush$ = -24						; size = 4
_this$ = -16						; size = 4
__$EHRec$ = -12						; size = 12
_rect$ = 8						; size = 4
_color1$ = 12						; size = 4
_color2$ = 16						; size = 4
_mode$ = 20						; size = 4
??0LinearGradientBrush@Gdiplus@@QAE@ABVRectF@1@ABVColor@1@1W4LinearGradientMode@1@@Z PROC NEAR ; Gdiplus::LinearGradientBrush::LinearGradientBrush, COMDAT
; _this$ = ecx

; 435  :     LinearGradientBrush(IN const RectF& rect,

  00000	55		 push	 ebp
  00001	8b ec		 mov	 ebp, esp
  00003	6a ff		 push	 -1
  00005	68 00 00 00 00	 push	 __ehhandler$??0LinearGradientBrush@Gdiplus@@QAE@ABVRectF@1@ABVColor@1@1W4LinearGradientMode@1@@Z
  0000a	64 a1 00 00 00
	00		 mov	 eax, DWORD PTR fs:__except_list
  00010	50		 push	 eax
  00011	64 89 25 00 00
	00 00		 mov	 DWORD PTR fs:__except_list, esp
  00018	83 ec 10	 sub	 esp, 16			; 00000010H
  0001b	b8 cc cc cc cc	 mov	 eax, -858993460		; ccccccccH
  00020	89 45 e4	 mov	 DWORD PTR [ebp-28], eax
  00023	89 45 e8	 mov	 DWORD PTR [ebp-24], eax
  00026	89 45 ec	 mov	 DWORD PTR [ebp-20], eax
  00029	89 45 f0	 mov	 DWORD PTR [ebp-16], eax
  0002c	89 4d f0	 mov	 DWORD PTR _this$[ebp], ecx
  0002f	8b 4d f0	 mov	 ecx, DWORD PTR _this$[ebp]
  00032	e8 00 00 00 00	 call	 ??0Brush@Gdiplus@@IAE@XZ ; Gdiplus::Brush::Brush
  00037	c7 45 fc 00 00
	00 00		 mov	 DWORD PTR __$EHRec$[ebp+8], 0
  0003e	8b 45 f0	 mov	 eax, DWORD PTR _this$[ebp]
  00041	c7 00 00 00 00
	00		 mov	 DWORD PTR [eax], OFFSET FLAT:??_7LinearGradientBrush@Gdiplus@@6B@

; 436  :                         IN const Color& color1,
; 437  :                         IN const Color& color2,
; 438  :                         IN LinearGradientMode mode)
; 439  :     {
; 440  :         GpLineGradient *brush = NULL;

  00047	c7 45 e8 00 00
	00 00		 mov	 DWORD PTR _brush$[ebp], 0

; 441  : 
; 442  :         lastResult = DllExports::GdipCreateLineBrushFromRect(&rect,
; 443  :                                                              color1.GetValue(),
; 444  :                                                              color2.GetValue(),
; 445  :                                                              mode,
; 446  :                                                              WrapModeTile,
; 447  :                                                              &brush);

  0004e	8d 4d e8	 lea	 ecx, DWORD PTR _brush$[ebp]
  00051	51		 push	 ecx
  00052	6a 00		 push	 0
  00054	8b 55 14	 mov	 edx, DWORD PTR _mode$[ebp]
  00057	52		 push	 edx
  00058	8b 4d 10	 mov	 ecx, DWORD PTR _color2$[ebp]
  0005b	e8 00 00 00 00	 call	 ?GetValue@Color@Gdiplus@@QBEKXZ ; Gdiplus::Color::GetValue
  00060	50		 push	 eax
  00061	8b 4d 0c	 mov	 ecx, DWORD PTR _color1$[ebp]
  00064	e8 00 00 00 00	 call	 ?GetValue@Color@Gdiplus@@QBEKXZ ; Gdiplus::Color::GetValue
  00069	50		 push	 eax
  0006a	8b 45 08	 mov	 eax, DWORD PTR _rect$[ebp]
  0006d	50		 push	 eax
  0006e	e8 00 00 00 00	 call	 _GdipCreateLineBrushFromRect@24
  00073	8b 4d f0	 mov	 ecx, DWORD PTR _this$[ebp]
  00076	89 41 08	 mov	 DWORD PTR [ecx+8], eax

; 448  : 
; 449  :         SetNativeBrush(brush);

  00079	8b 55 e8	 mov	 edx, DWORD PTR _brush$[ebp]
  0007c	52		 push	 edx
  0007d	8b 4d f0	 mov	 ecx, DWORD PTR _this$[ebp]
  00080	e8 00 00 00 00	 call	 ?SetNativeBrush@Brush@Gdiplus@@IAEXPAVGpBrush@2@@Z ; Gdiplus::Brush::SetNativeBrush

; 450  :     }

  00085	c7 45 fc ff ff
	ff ff		 mov	 DWORD PTR __$EHRec$[ebp+8], -1
  0008c	8b 45 f0	 mov	 eax, DWORD PTR _this$[ebp]
  0008f	52		 push	 edx
  00090	8b cd		 mov	 ecx, ebp
  00092	50		 push	 eax
  00093	8d 15 00 00 00
	00		 lea	 edx, DWORD PTR $L188587
  00099	e8 00 00 00 00	 call	 @_RTC_CheckStackVars@8
  0009e	58		 pop	 eax
  0009f	5a		 pop	 edx
  000a0	8b 4d f4	 mov	 ecx, DWORD PTR __$EHRec$[ebp]
  000a3	64 89 0d 00 00
	00 00		 mov	 DWORD PTR fs:__except_list, ecx
  000aa	83 c4 1c	 add	 esp, 28			; 0000001cH
  000ad	3b ec		 cmp	 ebp, esp
  000af	e8 00 00 00 00	 call	 __RTC_CheckEsp
  000b4	8b e5		 mov	 esp, ebp
  000b6	5d		 pop	 ebp
  000b7	c2 10 00	 ret	 16			; 00000010H
$L188587:
  000ba	01 00 00 00	 DD	 1
  000be	00 00 00 00	 DD	 $L188586
$L188586:
  000c2	e8 ff ff ff	 DD	 -24			; ffffffe8H
  000c6	04 00 00 00	 DD	 4
  000ca	00 00 00 00	 DD	 $L188584
$L188584:
  000ce	62		 DB	 98			; 00000062H
  000cf	72		 DB	 114			; 00000072H
  000d0	75		 DB	 117			; 00000075H
  000d1	73		 DB	 115			; 00000073H
  000d2	68		 DB	 104			; 00000068H
  000d3	00		 DB	 0
_TEXT	ENDS
;	COMDAT text$x
text$x	SEGMENT
$L188581:
  00000	8b 4d f0	 mov	 ecx, DWORD PTR _this$[ebp]
  00003	e9 00 00 00 00	 jmp	 ??1Brush@Gdiplus@@UAE@XZ ; Gdiplus::Brush::~Brush
__ehhandler$??0LinearGradientBrush@Gdiplus@@QAE@ABVRectF@1@ABVColor@1@1W4LinearGradientMode@1@@Z:
  00008	b8 00 00 00 00	 mov	 eax, OFFSET FLAT:$T188583
  0000d	e9 00 00 00 00	 jmp	 ___CxxFrameHandler
text$x	ENDS
??0LinearGradientBrush@Gdiplus@@QAE@ABVRectF@1@ABVColor@1@1W4LinearGradientMode@1@@Z ENDP ; Gdiplus::LinearGradientBrush::LinearGradientBrush
; Function compile flags: /Odt /RTCsu
;	COMDAT ??_GLinearGradientBrush@Gdiplus@@UAEPAXI@Z
_TEXT	SEGMENT
_this$ = -4						; size = 4
___flags$ = 8						; size = 4
??_GLinearGradientBrush@Gdiplus@@UAEPAXI@Z PROC NEAR	; Gdiplus::LinearGradientBrush::`scalar deleting destructor', COMDAT
; _this$ = ecx
  00000	55		 push	 ebp
  00001	8b ec		 mov	 ebp, esp
  00003	51		 push	 ecx
  00004	c7 45 fc cc cc
	cc cc		 mov	 DWORD PTR [ebp-4], -858993460 ; ccccccccH
  0000b	89 4d fc	 mov	 DWORD PTR _this$[ebp], ecx
  0000e	8b 4d fc	 mov	 ecx, DWORD PTR _this$[ebp]
  00011	e8 00 00 00 00	 call	 ??1LinearGradientBrush@Gdiplus@@UAE@XZ
  00016	8b 45 08	 mov	 eax, DWORD PTR ___flags$[ebp]
  00019	83 e0 01	 and	 eax, 1
  0001c	74 0c		 je	 SHORT $L113154
  0001e	8b 4d fc	 mov	 ecx, DWORD PTR _this$[ebp]
  00021	51		 push	 ecx
  00022	e8 00 00 00 00	 call	 ??3GdiplusBase@Gdiplus@@SAXPAX@Z ; Gdiplus::GdiplusBase::operator delete
  00027	83 c4 04	 add	 esp, 4
$L113154:
  0002a	8b 45 fc	 mov	 eax, DWORD PTR _this$[ebp]
  0002d	83 c4 04	 add	 esp, 4
  00030	3b ec		 cmp	 ebp, esp
  00032	e8 00 00 00 00	 call	 __RTC_CheckEsp
  00037	8b e5		 mov	 esp, ebp
  00039	5d		 pop	 ebp
  0003a	c2 04 00	 ret	 4
??_GLinearGradientBrush@Gdiplus@@UAEPAXI@Z ENDP		; Gdiplus::LinearGradientBrush::`scalar deleting destructor'
; Function compile flags: /Odt /RTCsu
_TEXT	ENDS
;	COMDAT ??1LinearGradientBrush@Gdiplus@@UAE@XZ
_TEXT	SEGMENT
_this$ = -4						; size = 4
??1LinearGradientBrush@Gdiplus@@UAE@XZ PROC NEAR	; Gdiplus::LinearGradientBrush::~LinearGradientBrush, COMDAT
; _this$ = ecx
  00000	55		 push	 ebp
  00001	8b ec		 mov	 ebp, esp
  00003	51		 push	 ecx
  00004	c7 45 fc cc cc
	cc cc		 mov	 DWORD PTR [ebp-4], -858993460 ; ccccccccH
  0000b	89 4d fc	 mov	 DWORD PTR _this$[ebp], ecx
  0000e	8b 4d fc	 mov	 ecx, DWORD PTR _this$[ebp]
  00011	e8 00 00 00 00	 call	 ??1Brush@Gdiplus@@UAE@XZ ; Gdiplus::Brush::~Brush
  00016	83 c4 04	 add	 esp, 4
  00019	3b ec		 cmp	 ebp, esp
  0001b	e8 00 00 00 00	 call	 __RTC_CheckEsp
  00020	8b e5		 mov	 esp, ebp
  00022	5d		 pop	 ebp
  00023	c3		 ret	 0
??1LinearGradientBrush@Gdiplus@@UAE@XZ ENDP		; Gdiplus::LinearGradientBrush::~LinearGradientBrush
_TEXT	ENDS
EXTRN	_GdipCreatePen1@16:NEAR
; Function compile flags: /Odt /RTCsu
; File d:\program files (x86)\microsoft visual studio .net 2003\vc7\platformsdk\include\gdipluspen.h
;	COMDAT ??0Pen@Gdiplus@@QAE@ABVColor@1@M@Z
_TEXT	SEGMENT
_unit$ = -8						; size = 4
_this$ = -4						; size = 4
_color$ = 8						; size = 4
_width$ = 12						; size = 4
??0Pen@Gdiplus@@QAE@ABVColor@1@M@Z PROC NEAR		; Gdiplus::Pen::Pen, COMDAT
; _this$ = ecx

; 27   :     Pen(IN const Color& color, 

  00000	55		 push	 ebp
  00001	8b ec		 mov	 ebp, esp
  00003	83 ec 08	 sub	 esp, 8
  00006	c7 45 f8 cc cc
	cc cc		 mov	 DWORD PTR [ebp-8], -858993460 ; ccccccccH
  0000d	c7 45 fc cc cc
	cc cc		 mov	 DWORD PTR [ebp-4], -858993460 ; ccccccccH
  00014	89 4d fc	 mov	 DWORD PTR _this$[ebp], ecx

; 28   :         IN REAL width = 1.0f)
; 29   :     {
; 30   :         Unit unit = UnitWorld;

  00017	c7 45 f8 00 00
	00 00		 mov	 DWORD PTR _unit$[ebp], 0

; 31   :         nativePen = NULL;

  0001e	8b 45 fc	 mov	 eax, DWORD PTR _this$[ebp]
  00021	c7 00 00 00 00
	00		 mov	 DWORD PTR [eax], 0

; 32   :         lastResult = DllExports::GdipCreatePen1(color.GetValue(),
; 33   :                                     width, unit, &nativePen);

  00027	8b 4d fc	 mov	 ecx, DWORD PTR _this$[ebp]
  0002a	51		 push	 ecx
  0002b	8b 55 f8	 mov	 edx, DWORD PTR _unit$[ebp]
  0002e	52		 push	 edx
  0002f	8b 45 0c	 mov	 eax, DWORD PTR _width$[ebp]
  00032	50		 push	 eax
  00033	8b 4d 08	 mov	 ecx, DWORD PTR _color$[ebp]
  00036	e8 00 00 00 00	 call	 ?GetValue@Color@Gdiplus@@QBEKXZ ; Gdiplus::Color::GetValue
  0003b	50		 push	 eax
  0003c	e8 00 00 00 00	 call	 _GdipCreatePen1@16
  00041	8b 4d fc	 mov	 ecx, DWORD PTR _this$[ebp]
  00044	89 41 04	 mov	 DWORD PTR [ecx+4], eax

; 34   :     }

  00047	8b 45 fc	 mov	 eax, DWORD PTR _this$[ebp]
  0004a	83 c4 08	 add	 esp, 8
  0004d	3b ec		 cmp	 ebp, esp
  0004f	e8 00 00 00 00	 call	 __RTC_CheckEsp
  00054	8b e5		 mov	 esp, ebp
  00056	5d		 pop	 ebp
  00057	c2 08 00	 ret	 8
??0Pen@Gdiplus@@QAE@ABVColor@1@M@Z ENDP			; Gdiplus::Pen::Pen
_TEXT	ENDS
EXTRN	_GdipDeletePen@4:NEAR
; Function compile flags: /Odt /RTCsu
;	COMDAT ??1Pen@Gdiplus@@QAE@XZ
_TEXT	SEGMENT
_this$ = -4						; size = 4
??1Pen@Gdiplus@@QAE@XZ PROC NEAR			; Gdiplus::Pen::~Pen, COMDAT
; _this$ = ecx

; 46   :     {

  00000	55		 push	 ebp
  00001	8b ec		 mov	 ebp, esp
  00003	51		 push	 ecx
  00004	c7 45 fc cc cc
	cc cc		 mov	 DWORD PTR [ebp-4], -858993460 ; ccccccccH
  0000b	89 4d fc	 mov	 DWORD PTR _this$[ebp], ecx

; 47   :         DllExports::GdipDeletePen(nativePen);

  0000e	8b 45 fc	 mov	 eax, DWORD PTR _this$[ebp]
  00011	8b 08		 mov	 ecx, DWORD PTR [eax]
  00013	51		 push	 ecx
  00014	e8 00 00 00 00	 call	 _GdipDeletePen@4

; 48   :     }

  00019	83 c4 04	 add	 esp, 4
  0001c	3b ec		 cmp	 ebp, esp
  0001e	e8 00 00 00 00	 call	 __RTC_CheckEsp
  00023	8b e5		 mov	 esp, ebp
  00025	5d		 pop	 ebp
  00026	c3		 ret	 0
??1Pen@Gdiplus@@QAE@XZ ENDP				; Gdiplus::Pen::~Pen
_TEXT	ENDS
PUBLIC	?SetStatus@Pen@Gdiplus@@IBE?AW4Status@2@W432@@Z	; Gdiplus::Pen::SetStatus
EXTRN	_GdipSetPenColor@8:NEAR
; Function compile flags: /Odt /RTCsu
;	COMDAT ?SetColor@Pen@Gdiplus@@QAE?AW4Status@2@ABVColor@2@@Z
_TEXT	SEGMENT
_this$ = -4						; size = 4
_color$ = 8						; size = 4
?SetColor@Pen@Gdiplus@@QAE?AW4Status@2@ABVColor@2@@Z PROC NEAR ; Gdiplus::Pen::SetColor, COMDAT
; _this$ = ecx

; 272  :     {

  00000	55		 push	 ebp
  00001	8b ec		 mov	 ebp, esp
  00003	51		 push	 ecx
  00004	c7 45 fc cc cc
	cc cc		 mov	 DWORD PTR [ebp-4], -858993460 ; ccccccccH
  0000b	89 4d fc	 mov	 DWORD PTR _this$[ebp], ecx

; 273  :         return SetStatus(DllExports::GdipSetPenColor(nativePen,
; 274  :                                                      color.GetValue()));

  0000e	8b 4d 08	 mov	 ecx, DWORD PTR _color$[ebp]
  00011	e8 00 00 00 00	 call	 ?GetValue@Color@Gdiplus@@QBEKXZ ; Gdiplus::Color::GetValue
  00016	50		 push	 eax
  00017	8b 45 fc	 mov	 eax, DWORD PTR _this$[ebp]
  0001a	8b 08		 mov	 ecx, DWORD PTR [eax]
  0001c	51		 push	 ecx
  0001d	e8 00 00 00 00	 call	 _GdipSetPenColor@8
  00022	50		 push	 eax
  00023	8b 4d fc	 mov	 ecx, DWORD PTR _this$[ebp]
  00026	e8 00 00 00 00	 call	 ?SetStatus@Pen@Gdiplus@@IBE?AW4Status@2@W432@@Z ; Gdiplus::Pen::SetStatus

; 275  :     }

  0002b	83 c4 04	 add	 esp, 4
  0002e	3b ec		 cmp	 ebp, esp
  00030	e8 00 00 00 00	 call	 __RTC_CheckEsp
  00035	8b e5		 mov	 esp, ebp
  00037	5d		 pop	 ebp
  00038	c2 04 00	 ret	 4
?SetColor@Pen@Gdiplus@@QAE?AW4Status@2@ABVColor@2@@Z ENDP ; Gdiplus::Pen::SetColor
_TEXT	ENDS
PUBLIC	?GetPenType@Pen@Gdiplus@@QBE?AW4PenType@2@XZ	; Gdiplus::Pen::GetPenType
EXTRN	_GdipGetPenColor@8:NEAR
; Function compile flags: /Odt /RTCsu
;	COMDAT ?GetColor@Pen@Gdiplus@@QBE?AW4Status@2@PAVColor@2@@Z
_TEXT	SEGMENT
_argb$ = -16						; size = 4
_type$ = -8						; size = 4
_this$ = -4						; size = 4
_color$ = 8						; size = 4
?GetColor@Pen@Gdiplus@@QBE?AW4Status@2@PAVColor@2@@Z PROC NEAR ; Gdiplus::Pen::GetColor, COMDAT
; _this$ = ecx

; 284  :     {

  00000	55		 push	 ebp
  00001	8b ec		 mov	 ebp, esp
  00003	83 ec 14	 sub	 esp, 20			; 00000014H
  00006	b8 cc cc cc cc	 mov	 eax, -858993460		; ccccccccH
  0000b	89 45 ec	 mov	 DWORD PTR [ebp-20], eax
  0000e	89 45 f0	 mov	 DWORD PTR [ebp-16], eax
  00011	89 45 f4	 mov	 DWORD PTR [ebp-12], eax
  00014	89 45 f8	 mov	 DWORD PTR [ebp-8], eax
  00017	89 45 fc	 mov	 DWORD PTR [ebp-4], eax
  0001a	89 4d fc	 mov	 DWORD PTR _this$[ebp], ecx

; 285  :         if (color == NULL) 

  0001d	83 7d 08 00	 cmp	 DWORD PTR _color$[ebp], 0
  00021	75 0c		 jne	 SHORT $L113403

; 286  :         {
; 287  :             return SetStatus(InvalidParameter);

  00023	6a 02		 push	 2
  00025	8b 4d fc	 mov	 ecx, DWORD PTR _this$[ebp]
  00028	e8 00 00 00 00	 call	 ?SetStatus@Pen@Gdiplus@@IBE?AW4Status@2@W432@@Z ; Gdiplus::Pen::SetStatus
  0002d	eb 4b		 jmp	 SHORT $L113402
$L113403:

; 288  :         }
; 289  :         
; 290  :         PenType type = GetPenType();

  0002f	8b 4d fc	 mov	 ecx, DWORD PTR _this$[ebp]
  00032	e8 00 00 00 00	 call	 ?GetPenType@Pen@Gdiplus@@QBE?AW4PenType@2@XZ ; Gdiplus::Pen::GetPenType
  00037	89 45 f8	 mov	 DWORD PTR _type$[ebp], eax

; 291  : 
; 292  :         if (type != PenTypeSolidColor) 

  0003a	83 7d f8 00	 cmp	 DWORD PTR _type$[ebp], 0
  0003e	74 07		 je	 SHORT $L113405

; 293  :         {
; 294  :             return WrongState;

  00040	b8 08 00 00 00	 mov	 eax, 8
  00045	eb 33		 jmp	 SHORT $L113402
$L113405:

; 295  :         }
; 296  :         
; 297  :         ARGB argb;
; 298  :         
; 299  :         SetStatus(DllExports::GdipGetPenColor(nativePen,
; 300  :                                               &argb));

  00047	8d 45 f0	 lea	 eax, DWORD PTR _argb$[ebp]
  0004a	50		 push	 eax
  0004b	8b 4d fc	 mov	 ecx, DWORD PTR _this$[ebp]
  0004e	8b 11		 mov	 edx, DWORD PTR [ecx]
  00050	52		 push	 edx
  00051	e8 00 00 00 00	 call	 _GdipGetPenColor@8
  00056	50		 push	 eax
  00057	8b 4d fc	 mov	 ecx, DWORD PTR _this$[ebp]
  0005a	e8 00 00 00 00	 call	 ?SetStatus@Pen@Gdiplus@@IBE?AW4Status@2@W432@@Z ; Gdiplus::Pen::SetStatus

; 301  :         if (lastResult == Ok)

  0005f	8b 45 fc	 mov	 eax, DWORD PTR _this$[ebp]
  00062	83 78 04 00	 cmp	 DWORD PTR [eax+4], 0
  00066	75 0c		 jne	 SHORT $L113407

; 302  :         {
; 303  :             color->SetValue(argb);

  00068	8b 4d f0	 mov	 ecx, DWORD PTR _argb$[ebp]
  0006b	51		 push	 ecx
  0006c	8b 4d 08	 mov	 ecx, DWORD PTR _color$[ebp]
  0006f	e8 00 00 00 00	 call	 ?SetValue@Color@Gdiplus@@QAEXK@Z ; Gdiplus::Color::SetValue
$L113407:

; 304  :         }
; 305  :         
; 306  :         return lastResult;

  00074	8b 55 fc	 mov	 edx, DWORD PTR _this$[ebp]
  00077	8b 42 04	 mov	 eax, DWORD PTR [edx+4]
$L113402:

; 307  :     }

  0007a	52		 push	 edx
  0007b	8b cd		 mov	 ecx, ebp
  0007d	50		 push	 eax
  0007e	8d 15 00 00 00
	00		 lea	 edx, DWORD PTR $L188600
  00084	e8 00 00 00 00	 call	 @_RTC_CheckStackVars@8
  00089	58		 pop	 eax
  0008a	5a		 pop	 edx
  0008b	83 c4 14	 add	 esp, 20			; 00000014H
  0008e	3b ec		 cmp	 ebp, esp
  00090	e8 00 00 00 00	 call	 __RTC_CheckEsp
  00095	8b e5		 mov	 esp, ebp
  00097	5d		 pop	 ebp
  00098	c2 04 00	 ret	 4
$L188600:
  0009b	01 00 00 00	 DD	 1
  0009f	00 00 00 00	 DD	 $L188599
$L188599:
  000a3	f0 ff ff ff	 DD	 -16			; fffffff0H
  000a7	04 00 00 00	 DD	 4
  000ab	00 00 00 00	 DD	 $L188598
$L188598:
  000af	61		 DB	 97			; 00000061H
  000b0	72		 DB	 114			; 00000072H
  000b1	67		 DB	 103			; 00000067H
  000b2	62		 DB	 98			; 00000062H
  000b3	00		 DB	 0
?GetColor@Pen@Gdiplus@@QBE?AW4Status@2@PAVColor@2@@Z ENDP ; Gdiplus::Pen::GetColor
_TEXT	ENDS
EXTRN	_GdipGetPenFillType@8:NEAR
; Function compile flags: /Odt /RTCsu
;	COMDAT ?GetPenType@Pen@Gdiplus@@QBE?AW4PenType@2@XZ
_TEXT	SEGMENT
_type$ = -12						; size = 4
_this$ = -4						; size = 4
?GetPenType@Pen@Gdiplus@@QBE?AW4PenType@2@XZ PROC NEAR	; Gdiplus::Pen::GetPenType, COMDAT
; _this$ = ecx

; 264  :     {

  00000	55		 push	 ebp
  00001	8b ec		 mov	 ebp, esp
  00003	83 ec 10	 sub	 esp, 16			; 00000010H
  00006	b8 cc cc cc cc	 mov	 eax, -858993460		; ccccccccH
  0000b	89 45 f0	 mov	 DWORD PTR [ebp-16], eax
  0000e	89 45 f4	 mov	 DWORD PTR [ebp-12], eax
  00011	89 45 f8	 mov	 DWORD PTR [ebp-8], eax
  00014	89 45 fc	 mov	 DWORD PTR [ebp-4], eax
  00017	89 4d fc	 mov	 DWORD PTR _this$[ebp], ecx

; 265  :        PenType type;
; 266  :        SetStatus(DllExports::GdipGetPenFillType(nativePen, &type));

  0001a	8d 45 f4	 lea	 eax, DWORD PTR _type$[ebp]
  0001d	50		 push	 eax
  0001e	8b 4d fc	 mov	 ecx, DWORD PTR _this$[ebp]
  00021	8b 11		 mov	 edx, DWORD PTR [ecx]
  00023	52		 push	 edx
  00024	e8 00 00 00 00	 call	 _GdipGetPenFillType@8
  00029	50		 push	 eax
  0002a	8b 4d fc	 mov	 ecx, DWORD PTR _this$[ebp]
  0002d	e8 00 00 00 00	 call	 ?SetStatus@Pen@Gdiplus@@IBE?AW4Status@2@W432@@Z ; Gdiplus::Pen::SetStatus

; 267  : 
; 268  :        return type;

  00032	8b 45 f4	 mov	 eax, DWORD PTR _type$[ebp]

; 269  :     }

  00035	52		 push	 edx
  00036	8b cd		 mov	 ecx, ebp
  00038	50		 push	 eax
  00039	8d 15 00 00 00
	00		 lea	 edx, DWORD PTR $L188604
  0003f	e8 00 00 00 00	 call	 @_RTC_CheckStackVars@8
  00044	58		 pop	 eax
  00045	5a		 pop	 edx
  00046	83 c4 10	 add	 esp, 16			; 00000010H
  00049	3b ec		 cmp	 ebp, esp
  0004b	e8 00 00 00 00	 call	 __RTC_CheckEsp
  00050	8b e5		 mov	 esp, ebp
  00052	5d		 pop	 ebp
  00053	c3		 ret	 0
$L188604:
  00054	01 00 00 00	 DD	 1
  00058	00 00 00 00	 DD	 $L188603
$L188603:
  0005c	f4 ff ff ff	 DD	 -12			; fffffff4H
  00060	04 00 00 00	 DD	 4
  00064	00 00 00 00	 DD	 $L188602
$L188602:
  00068	74		 DB	 116			; 00000074H
  00069	79		 DB	 121			; 00000079H
  0006a	70		 DB	 112			; 00000070H
  0006b	65		 DB	 101			; 00000065H
  0006c	00		 DB	 0
?GetPenType@Pen@Gdiplus@@QBE?AW4PenType@2@XZ ENDP	; Gdiplus::Pen::GetPenType
; Function compile flags: /Odt /RTCsu
_TEXT	ENDS
;	COMDAT ?SetStatus@Pen@Gdiplus@@IBE?AW4Status@2@W432@@Z
_TEXT	SEGMENT
_this$ = -4						; size = 4
_status$ = 8						; size = 4
?SetStatus@Pen@Gdiplus@@IBE?AW4Status@2@W432@@Z PROC NEAR ; Gdiplus::Pen::SetStatus, COMDAT
; _this$ = ecx

; 463  :     {

  00000	55		 push	 ebp
  00001	8b ec		 mov	 ebp, esp
  00003	51		 push	 ecx
  00004	c7 45 fc cc cc
	cc cc		 mov	 DWORD PTR [ebp-4], -858993460 ; ccccccccH
  0000b	89 4d fc	 mov	 DWORD PTR _this$[ebp], ecx

; 464  :         if (status != Ok)

  0000e	83 7d 08 00	 cmp	 DWORD PTR _status$[ebp], 0
  00012	74 0e		 je	 SHORT $L113481

; 465  :             return (lastResult = status);

  00014	8b 45 fc	 mov	 eax, DWORD PTR _this$[ebp]
  00017	8b 4d 08	 mov	 ecx, DWORD PTR _status$[ebp]
  0001a	89 48 04	 mov	 DWORD PTR [eax+4], ecx
  0001d	8b 45 08	 mov	 eax, DWORD PTR _status$[ebp]
  00020	eb 03		 jmp	 SHORT $L113480
$L113481:

; 466  :         else 
; 467  :             return status;

  00022	8b 45 08	 mov	 eax, DWORD PTR _status$[ebp]
$L113480:

; 468  :     }

  00025	8b e5		 mov	 esp, ebp
  00027	5d		 pop	 ebp
  00028	c2 04 00	 ret	 4
?SetStatus@Pen@Gdiplus@@IBE?AW4Status@2@W432@@Z ENDP	; Gdiplus::Pen::SetStatus
_TEXT	ENDS
EXTRN	_GdipCreateStringFormat@12:NEAR
; Function compile flags: /Odt /RTCsu
; File d:\program files (x86)\microsoft visual studio .net 2003\vc7\platformsdk\include\gdiplusstringformat.h
;	COMDAT ??0StringFormat@Gdiplus@@QAE@HG@Z
_TEXT	SEGMENT
_this$ = -4						; size = 4
_formatFlags$ = 8					; size = 4
_language$ = 12						; size = 2
??0StringFormat@Gdiplus@@QAE@HG@Z PROC NEAR		; Gdiplus::StringFormat::StringFormat, COMDAT
; _this$ = ecx

; 25   :     StringFormat(

  00000	55		 push	 ebp
  00001	8b ec		 mov	 ebp, esp
  00003	51		 push	 ecx
  00004	c7 45 fc cc cc
	cc cc		 mov	 DWORD PTR [ebp-4], -858993460 ; ccccccccH
  0000b	89 4d fc	 mov	 DWORD PTR _this$[ebp], ecx

; 26   :         IN INT     formatFlags = 0,
; 27   :         IN LANGID  language = LANG_NEUTRAL
; 28   :     )
; 29   :     {
; 30   :         nativeFormat = NULL;

  0000e	8b 45 fc	 mov	 eax, DWORD PTR _this$[ebp]
  00011	c7 00 00 00 00
	00		 mov	 DWORD PTR [eax], 0

; 31   :         lastError = DllExports::GdipCreateStringFormat(
; 32   :             formatFlags,
; 33   :             language,
; 34   :             &nativeFormat
; 35   :         );

  00017	8b 4d fc	 mov	 ecx, DWORD PTR _this$[ebp]
  0001a	51		 push	 ecx
  0001b	66 8b 55 0c	 mov	 dx, WORD PTR _language$[ebp]
  0001f	52		 push	 edx
  00020	8b 45 08	 mov	 eax, DWORD PTR _formatFlags$[ebp]
  00023	50		 push	 eax
  00024	e8 00 00 00 00	 call	 _GdipCreateStringFormat@12
  00029	8b 4d fc	 mov	 ecx, DWORD PTR _this$[ebp]
  0002c	89 41 04	 mov	 DWORD PTR [ecx+4], eax

; 36   :     }

  0002f	8b 45 fc	 mov	 eax, DWORD PTR _this$[ebp]
  00032	83 c4 04	 add	 esp, 4
  00035	3b ec		 cmp	 ebp, esp
  00037	e8 00 00 00 00	 call	 __RTC_CheckEsp
  0003c	8b e5		 mov	 esp, ebp
  0003e	5d		 pop	 ebp
  0003f	c2 08 00	 ret	 8
??0StringFormat@Gdiplus@@QAE@HG@Z ENDP			; Gdiplus::StringFormat::StringFormat
_TEXT	ENDS
EXTRN	_GdipDeleteStringFormat@4:NEAR
; Function compile flags: /Odt /RTCsu
;	COMDAT ??1StringFormat@Gdiplus@@QAE@XZ
_TEXT	SEGMENT
_this$ = -4						; size = 4
??1StringFormat@Gdiplus@@QAE@XZ PROC NEAR		; Gdiplus::StringFormat::~StringFormat, COMDAT
; _this$ = ecx

; 68   :     {

  00000	55		 push	 ebp
  00001	8b ec		 mov	 ebp, esp
  00003	51		 push	 ecx
  00004	c7 45 fc cc cc
	cc cc		 mov	 DWORD PTR [ebp-4], -858993460 ; ccccccccH
  0000b	89 4d fc	 mov	 DWORD PTR _this$[ebp], ecx

; 69   :         DllExports::GdipDeleteStringFormat(nativeFormat);

  0000e	8b 45 fc	 mov	 eax, DWORD PTR _this$[ebp]
  00011	8b 08		 mov	 ecx, DWORD PTR [eax]
  00013	51		 push	 ecx
  00014	e8 00 00 00 00	 call	 _GdipDeleteStringFormat@4

; 70   :     }

  00019	83 c4 04	 add	 esp, 4
  0001c	3b ec		 cmp	 ebp, esp
  0001e	e8 00 00 00 00	 call	 __RTC_CheckEsp
  00023	8b e5		 mov	 esp, ebp
  00025	5d		 pop	 ebp
  00026	c3		 ret	 0
??1StringFormat@Gdiplus@@QAE@XZ ENDP			; Gdiplus::StringFormat::~StringFormat
_TEXT	ENDS
PUBLIC	?SetStatus@StringFormat@Gdiplus@@IBE?AW4Status@2@W432@@Z ; Gdiplus::StringFormat::SetStatus
EXTRN	_GdipSetStringFormatAlign@8:NEAR
; Function compile flags: /Odt /RTCsu
;	COMDAT ?SetAlignment@StringFormat@Gdiplus@@QAE?AW4Status@2@W4StringAlignment@2@@Z
_TEXT	SEGMENT
_this$ = -4						; size = 4
_align$ = 8						; size = 4
?SetAlignment@StringFormat@Gdiplus@@QAE?AW4Status@2@W4StringAlignment@2@@Z PROC NEAR ; Gdiplus::StringFormat::SetAlignment, COMDAT
; _this$ = ecx

; 88   :     {

  00000	55		 push	 ebp
  00001	8b ec		 mov	 ebp, esp
  00003	51		 push	 ecx
  00004	c7 45 fc cc cc
	cc cc		 mov	 DWORD PTR [ebp-4], -858993460 ; ccccccccH
  0000b	89 4d fc	 mov	 DWORD PTR _this$[ebp], ecx

; 89   :         return SetStatus(DllExports::GdipSetStringFormatAlign(
; 90   :             nativeFormat,
; 91   :             align
; 92   :         ));

  0000e	8b 45 08	 mov	 eax, DWORD PTR _align$[ebp]
  00011	50		 push	 eax
  00012	8b 4d fc	 mov	 ecx, DWORD PTR _this$[ebp]
  00015	8b 11		 mov	 edx, DWORD PTR [ecx]
  00017	52		 push	 edx
  00018	e8 00 00 00 00	 call	 _GdipSetStringFormatAlign@8
  0001d	50		 push	 eax
  0001e	8b 4d fc	 mov	 ecx, DWORD PTR _this$[ebp]
  00021	e8 00 00 00 00	 call	 ?SetStatus@StringFormat@Gdiplus@@IBE?AW4Status@2@W432@@Z ; Gdiplus::StringFormat::SetStatus

; 93   :     }

  00026	83 c4 04	 add	 esp, 4
  00029	3b ec		 cmp	 ebp, esp
  0002b	e8 00 00 00 00	 call	 __RTC_CheckEsp
  00030	8b e5		 mov	 esp, ebp
  00032	5d		 pop	 ebp
  00033	c2 04 00	 ret	 4
?SetAlignment@StringFormat@Gdiplus@@QAE?AW4Status@2@W4StringAlignment@2@@Z ENDP ; Gdiplus::StringFormat::SetAlignment
; Function compile flags: /Odt /RTCsu
_TEXT	ENDS
;	COMDAT ?SetStatus@StringFormat@Gdiplus@@IBE?AW4Status@2@W432@@Z
_TEXT	SEGMENT
_this$ = -4						; size = 4
_newStatus$ = 8						; size = 4
?SetStatus@StringFormat@Gdiplus@@IBE?AW4Status@2@W432@@Z PROC NEAR ; Gdiplus::StringFormat::SetStatus, COMDAT
; _this$ = ecx

; 263  :     {

  00000	55		 push	 ebp
  00001	8b ec		 mov	 ebp, esp
  00003	51		 push	 ecx
  00004	c7 45 fc cc cc
	cc cc		 mov	 DWORD PTR [ebp-4], -858993460 ; ccccccccH
  0000b	89 4d fc	 mov	 DWORD PTR _this$[ebp], ecx

; 264  :         if (newStatus == Ok)

  0000e	83 7d 08 00	 cmp	 DWORD PTR _newStatus$[ebp], 0
  00012	75 04		 jne	 SHORT $L113611

; 265  :         {
; 266  :             return Ok;

  00014	33 c0		 xor	 eax, eax
  00016	eb 0c		 jmp	 SHORT $L113610
$L113611:

; 267  :         }
; 268  :         else
; 269  :         {
; 270  :             return lastError = newStatus;

  00018	8b 45 fc	 mov	 eax, DWORD PTR _this$[ebp]
  0001b	8b 4d 08	 mov	 ecx, DWORD PTR _newStatus$[ebp]
  0001e	89 48 04	 mov	 DWORD PTR [eax+4], ecx
  00021	8b 45 08	 mov	 eax, DWORD PTR _newStatus$[ebp]
$L113610:

; 271  :         }
; 272  :     }

  00024	8b e5		 mov	 esp, ebp
  00026	5d		 pop	 ebp
  00027	c2 04 00	 ret	 4
?SetStatus@StringFormat@Gdiplus@@IBE?AW4Status@2@W432@@Z ENDP ; Gdiplus::StringFormat::SetStatus
_TEXT	ENDS
PUBLIC	??0Graphics@Gdiplus@@QAE@PAVImage@1@@Z		; Gdiplus::Graphics::Graphics
;	COMDAT xdata$x
; File d:\program files (x86)\microsoft visual studio .net 2003\vc7\platformsdk\include\gdiplusgraphics.h
xdata$x	SEGMENT
$T188619 DD	0ffffffffH
	DD	FLAT:$L188615
$T188617 DD	019930520H
	DD	01H
	DD	FLAT:$T188619
	DD	2 DUP(00H)
	DD	2 DUP(00H)
; Function compile flags: /Odt /RTCsu
xdata$x	ENDS
;	COMDAT ?FromImage@Graphics@Gdiplus@@SAPAV12@PAVImage@2@@Z
_TEXT	SEGMENT
tv72 = -24						; size = 4
$T188612 = -20						; size = 4
$T188611 = -16						; size = 4
__$EHRec$ = -12						; size = 12
_image$ = 8						; size = 4
?FromImage@Graphics@Gdiplus@@SAPAV12@PAVImage@2@@Z PROC NEAR ; Gdiplus::Graphics::FromImage, COMDAT

; 49   :     {

  00000	55		 push	 ebp
  00001	8b ec		 mov	 ebp, esp
  00003	6a ff		 push	 -1
  00005	68 00 00 00 00	 push	 __ehhandler$?FromImage@Graphics@Gdiplus@@SAPAV12@PAVImage@2@@Z
  0000a	64 a1 00 00 00
	00		 mov	 eax, DWORD PTR fs:__except_list
  00010	50		 push	 eax
  00011	64 89 25 00 00
	00 00		 mov	 DWORD PTR fs:__except_list, esp
  00018	83 ec 0c	 sub	 esp, 12			; 0000000cH
  0001b	c7 45 e8 cc cc
	cc cc		 mov	 DWORD PTR [ebp-24], -858993460 ; ccccccccH
  00022	c7 45 ec cc cc
	cc cc		 mov	 DWORD PTR [ebp-20], -858993460 ; ccccccccH
  00029	c7 45 f0 cc cc
	cc cc		 mov	 DWORD PTR [ebp-16], -858993460 ; ccccccccH

; 50   :         return new Graphics(image);

  00030	6a 08		 push	 8
  00032	e8 00 00 00 00	 call	 ??2GdiplusBase@Gdiplus@@SAPAXI@Z ; Gdiplus::GdiplusBase::operator new
  00037	83 c4 04	 add	 esp, 4
  0003a	89 45 ec	 mov	 DWORD PTR $T188612[ebp], eax
  0003d	c7 45 fc 00 00
	00 00		 mov	 DWORD PTR __$EHRec$[ebp+8], 0
  00044	83 7d ec 00	 cmp	 DWORD PTR $T188612[ebp], 0
  00048	74 11		 je	 SHORT $L188613
  0004a	8b 45 08	 mov	 eax, DWORD PTR _image$[ebp]
  0004d	50		 push	 eax
  0004e	8b 4d ec	 mov	 ecx, DWORD PTR $T188612[ebp]
  00051	e8 00 00 00 00	 call	 ??0Graphics@Gdiplus@@QAE@PAVImage@1@@Z ; Gdiplus::Graphics::Graphics
  00056	89 45 e8	 mov	 DWORD PTR tv72[ebp], eax
  00059	eb 07		 jmp	 SHORT $L188614
$L188613:
  0005b	c7 45 e8 00 00
	00 00		 mov	 DWORD PTR tv72[ebp], 0
$L188614:
  00062	8b 4d e8	 mov	 ecx, DWORD PTR tv72[ebp]
  00065	89 4d f0	 mov	 DWORD PTR $T188611[ebp], ecx
  00068	c7 45 fc ff ff
	ff ff		 mov	 DWORD PTR __$EHRec$[ebp+8], -1
  0006f	8b 45 f0	 mov	 eax, DWORD PTR $T188611[ebp]

; 51   :     }

  00072	8b 4d f4	 mov	 ecx, DWORD PTR __$EHRec$[ebp]
  00075	64 89 0d 00 00
	00 00		 mov	 DWORD PTR fs:__except_list, ecx
  0007c	83 c4 18	 add	 esp, 24			; 00000018H
  0007f	3b ec		 cmp	 ebp, esp
  00081	e8 00 00 00 00	 call	 __RTC_CheckEsp
  00086	8b e5		 mov	 esp, ebp
  00088	5d		 pop	 ebp
  00089	c3		 ret	 0
_TEXT	ENDS
;	COMDAT text$x
text$x	SEGMENT
$L188615:
  00000	8b 45 ec	 mov	 eax, DWORD PTR $T188612[ebp]
  00003	50		 push	 eax
  00004	e8 00 00 00 00	 call	 ??3GdiplusBase@Gdiplus@@SAXPAX@Z ; Gdiplus::GdiplusBase::operator delete
  00009	59		 pop	 ecx
  0000a	c3		 ret	 0
__ehhandler$?FromImage@Graphics@Gdiplus@@SAPAV12@PAVImage@2@@Z:
  0000b	b8 00 00 00 00	 mov	 eax, OFFSET FLAT:$T188617
  00010	e9 00 00 00 00	 jmp	 ___CxxFrameHandler
text$x	ENDS
?FromImage@Graphics@Gdiplus@@SAPAV12@PAVImage@2@@Z ENDP	; Gdiplus::Graphics::FromImage
PUBLIC	?SetNativeGraphics@Graphics@Gdiplus@@IAEXPAVGpGraphics@2@@Z ; Gdiplus::Graphics::SetNativeGraphics
EXTRN	_GdipCreateFromHDC@8:NEAR
; Function compile flags: /Odt /RTCsu
;	COMDAT ??0Graphics@Gdiplus@@QAE@PAUHDC__@@@Z
_TEXT	SEGMENT
_graphics$ = -12					; size = 4
_this$ = -4						; size = 4
_hdc$ = 8						; size = 4
??0Graphics@Gdiplus@@QAE@PAUHDC__@@@Z PROC NEAR		; Gdiplus::Graphics::Graphics, COMDAT
; _this$ = ecx

; 53   :     Graphics(IN HDC hdc)

  00000	55		 push	 ebp
  00001	8b ec		 mov	 ebp, esp
  00003	83 ec 10	 sub	 esp, 16			; 00000010H
  00006	b8 cc cc cc cc	 mov	 eax, -858993460		; ccccccccH
  0000b	89 45 f0	 mov	 DWORD PTR [ebp-16], eax
  0000e	89 45 f4	 mov	 DWORD PTR [ebp-12], eax
  00011	89 45 f8	 mov	 DWORD PTR [ebp-8], eax
  00014	89 45 fc	 mov	 DWORD PTR [ebp-4], eax
  00017	89 4d fc	 mov	 DWORD PTR _this$[ebp], ecx

; 54   :     {
; 55   :         GpGraphics *graphics = NULL;

  0001a	c7 45 f4 00 00
	00 00		 mov	 DWORD PTR _graphics$[ebp], 0

; 56   : 
; 57   :         lastResult = DllExports::GdipCreateFromHDC(hdc, &graphics);

  00021	8d 45 f4	 lea	 eax, DWORD PTR _graphics$[ebp]
  00024	50		 push	 eax
  00025	8b 4d 08	 mov	 ecx, DWORD PTR _hdc$[ebp]
  00028	51		 push	 ecx
  00029	e8 00 00 00 00	 call	 _GdipCreateFromHDC@8
  0002e	8b 55 fc	 mov	 edx, DWORD PTR _this$[ebp]
  00031	89 42 04	 mov	 DWORD PTR [edx+4], eax

; 58   : 
; 59   :         SetNativeGraphics(graphics);

  00034	8b 45 f4	 mov	 eax, DWORD PTR _graphics$[ebp]
  00037	50		 push	 eax
  00038	8b 4d fc	 mov	 ecx, DWORD PTR _this$[ebp]
  0003b	e8 00 00 00 00	 call	 ?SetNativeGraphics@Graphics@Gdiplus@@IAEXPAVGpGraphics@2@@Z ; Gdiplus::Graphics::SetNativeGraphics

; 60   :     }

  00040	8b 45 fc	 mov	 eax, DWORD PTR _this$[ebp]
  00043	52		 push	 edx
  00044	8b cd		 mov	 ecx, ebp
  00046	50		 push	 eax
  00047	8d 15 00 00 00
	00		 lea	 edx, DWORD PTR $L188625
  0004d	e8 00 00 00 00	 call	 @_RTC_CheckStackVars@8
  00052	58		 pop	 eax
  00053	5a		 pop	 edx
  00054	83 c4 10	 add	 esp, 16			; 00000010H
  00057	3b ec		 cmp	 ebp, esp
  00059	e8 00 00 00 00	 call	 __RTC_CheckEsp
  0005e	8b e5		 mov	 esp, ebp
  00060	5d		 pop	 ebp
  00061	c2 04 00	 ret	 4
$L188625:
  00064	01 00 00 00	 DD	 1
  00068	00 00 00 00	 DD	 $L188624
$L188624:
  0006c	f4 ff ff ff	 DD	 -12			; fffffff4H
  00070	04 00 00 00	 DD	 4
  00074	00 00 00 00	 DD	 $L188623
$L188623:
  00078	67		 DB	 103			; 00000067H
  00079	72		 DB	 114			; 00000072H
  0007a	61		 DB	 97			; 00000061H
  0007b	70		 DB	 112			; 00000070H
  0007c	68		 DB	 104			; 00000068H
  0007d	69		 DB	 105			; 00000069H
  0007e	63		 DB	 99			; 00000063H
  0007f	73		 DB	 115			; 00000073H
  00080	00		 DB	 0
??0Graphics@Gdiplus@@QAE@PAUHDC__@@@Z ENDP		; Gdiplus::Graphics::Graphics
_TEXT	ENDS
EXTRN	_GdipGetImageGraphicsContext@8:NEAR
; Function compile flags: /Odt /RTCsu
;	COMDAT ??0Graphics@Gdiplus@@QAE@PAVImage@1@@Z
_TEXT	SEGMENT
_graphics$ = -12					; size = 4
_this$ = -4						; size = 4
_image$ = 8						; size = 4
??0Graphics@Gdiplus@@QAE@PAVImage@1@@Z PROC NEAR	; Gdiplus::Graphics::Graphics, COMDAT
; _this$ = ecx

; 89   :     Graphics(IN Image* image)

  00000	55		 push	 ebp
  00001	8b ec		 mov	 ebp, esp
  00003	83 ec 10	 sub	 esp, 16			; 00000010H
  00006	b8 cc cc cc cc	 mov	 eax, -858993460		; ccccccccH
  0000b	89 45 f0	 mov	 DWORD PTR [ebp-16], eax
  0000e	89 45 f4	 mov	 DWORD PTR [ebp-12], eax
  00011	89 45 f8	 mov	 DWORD PTR [ebp-8], eax
  00014	89 45 fc	 mov	 DWORD PTR [ebp-4], eax
  00017	89 4d fc	 mov	 DWORD PTR _this$[ebp], ecx

; 90   :     {
; 91   :         GpGraphics *graphics = NULL;

  0001a	c7 45 f4 00 00
	00 00		 mov	 DWORD PTR _graphics$[ebp], 0

; 92   : 
; 93   :         if (image != NULL)

  00021	83 7d 08 00	 cmp	 DWORD PTR _image$[ebp], 0
  00025	74 16		 je	 SHORT $L115744

; 94   :         {
; 95   :             lastResult = DllExports::GdipGetImageGraphicsContext(
; 96   :                                                                 image->nativeImage, &graphics);

  00027	8d 45 f4	 lea	 eax, DWORD PTR _graphics$[ebp]
  0002a	50		 push	 eax
  0002b	8b 4d 08	 mov	 ecx, DWORD PTR _image$[ebp]
  0002e	8b 51 04	 mov	 edx, DWORD PTR [ecx+4]
  00031	52		 push	 edx
  00032	e8 00 00 00 00	 call	 _GdipGetImageGraphicsContext@8
  00037	8b 4d fc	 mov	 ecx, DWORD PTR _this$[ebp]
  0003a	89 41 04	 mov	 DWORD PTR [ecx+4], eax
$L115744:

; 97   :         }
; 98   :         SetNativeGraphics(graphics);

  0003d	8b 55 f4	 mov	 edx, DWORD PTR _graphics$[ebp]
  00040	52		 push	 edx
  00041	8b 4d fc	 mov	 ecx, DWORD PTR _this$[ebp]
  00044	e8 00 00 00 00	 call	 ?SetNativeGraphics@Graphics@Gdiplus@@IAEXPAVGpGraphics@2@@Z ; Gdiplus::Graphics::SetNativeGraphics

; 99   :     }

  00049	8b 45 fc	 mov	 eax, DWORD PTR _this$[ebp]
  0004c	52		 push	 edx
  0004d	8b cd		 mov	 ecx, ebp
  0004f	50		 push	 eax
  00050	8d 15 00 00 00
	00		 lea	 edx, DWORD PTR $L188629
  00056	e8 00 00 00 00	 call	 @_RTC_CheckStackVars@8
  0005b	58		 pop	 eax
  0005c	5a		 pop	 edx
  0005d	83 c4 10	 add	 esp, 16			; 00000010H
  00060	3b ec		 cmp	 ebp, esp
  00062	e8 00 00 00 00	 call	 __RTC_CheckEsp
  00067	8b e5		 mov	 esp, ebp
  00069	5d		 pop	 ebp
  0006a	c2 04 00	 ret	 4
$L188629:
  0006d	01 00 00 00	 DD	 1
  00071	00 00 00 00	 DD	 $L188628
$L188628:
  00075	f4 ff ff ff	 DD	 -12			; fffffff4H
  00079	04 00 00 00	 DD	 4
  0007d	00 00 00 00	 DD	 $L188627
$L188627:
  00081	67		 DB	 103			; 00000067H
  00082	72		 DB	 114			; 00000072H
  00083	61		 DB	 97			; 00000061H
  00084	70		 DB	 112			; 00000070H
  00085	68		 DB	 104			; 00000068H
  00086	69		 DB	 105			; 00000069H
  00087	63		 DB	 99			; 00000063H
  00088	73		 DB	 115			; 00000073H
  00089	00		 DB	 0
??0Graphics@Gdiplus@@QAE@PAVImage@1@@Z ENDP		; Gdiplus::Graphics::Graphics
_TEXT	ENDS
EXTRN	_GdipDeleteGraphics@4:NEAR
; Function compile flags: /Odt /RTCsu
;	COMDAT ??1Graphics@Gdiplus@@QAE@XZ
_TEXT	SEGMENT
_this$ = -4						; size = 4
??1Graphics@Gdiplus@@QAE@XZ PROC NEAR			; Gdiplus::Graphics::~Graphics, COMDAT
; _this$ = ecx

; 102  :     {

  00000	55		 push	 ebp
  00001	8b ec		 mov	 ebp, esp
  00003	51		 push	 ecx
  00004	c7 45 fc cc cc
	cc cc		 mov	 DWORD PTR [ebp-4], -858993460 ; ccccccccH
  0000b	89 4d fc	 mov	 DWORD PTR _this$[ebp], ecx

; 103  :         DllExports::GdipDeleteGraphics(nativeGraphics);

  0000e	8b 45 fc	 mov	 eax, DWORD PTR _this$[ebp]
  00011	8b 08		 mov	 ecx, DWORD PTR [eax]
  00013	51		 push	 ecx
  00014	e8 00 00 00 00	 call	 _GdipDeleteGraphics@4

; 104  :     }

  00019	83 c4 04	 add	 esp, 4
  0001c	3b ec		 cmp	 ebp, esp
  0001e	e8 00 00 00 00	 call	 __RTC_CheckEsp
  00023	8b e5		 mov	 esp, ebp
  00025	5d		 pop	 ebp
  00026	c3		 ret	 0
??1Graphics@Gdiplus@@QAE@XZ ENDP			; Gdiplus::Graphics::~Graphics
_TEXT	ENDS
PUBLIC	?SetStatus@Graphics@Gdiplus@@IBE?AW4Status@2@W432@@Z ; Gdiplus::Graphics::SetStatus
EXTRN	_GdipDrawLineI@24:NEAR
; Function compile flags: /Odt /RTCsu
;	COMDAT ?DrawLine@Graphics@Gdiplus@@QAE?AW4Status@2@PBVPen@2@HHHH@Z
_TEXT	SEGMENT
_this$ = -4						; size = 4
_pen$ = 8						; size = 4
_x1$ = 12						; size = 4
_y1$ = 16						; size = 4
_x2$ = 20						; size = 4
_y2$ = 24						; size = 4
?DrawLine@Graphics@Gdiplus@@QAE?AW4Status@2@PBVPen@2@HHHH@Z PROC NEAR ; Gdiplus::Graphics::DrawLine, COMDAT
; _this$ = ecx

; 443  :     {

  00000	55		 push	 ebp
  00001	8b ec		 mov	 ebp, esp
  00003	51		 push	 ecx
  00004	c7 45 fc cc cc
	cc cc		 mov	 DWORD PTR [ebp-4], -858993460 ; ccccccccH
  0000b	89 4d fc	 mov	 DWORD PTR _this$[ebp], ecx

; 444  :         return SetStatus(DllExports::GdipDrawLineI(nativeGraphics,
; 445  :                                                    pen->nativePen,
; 446  :                                                    x1,
; 447  :                                                    y1,
; 448  :                                                    x2,
; 449  :                                                    y2));

  0000e	8b 45 18	 mov	 eax, DWORD PTR _y2$[ebp]
  00011	50		 push	 eax
  00012	8b 4d 14	 mov	 ecx, DWORD PTR _x2$[ebp]
  00015	51		 push	 ecx
  00016	8b 55 10	 mov	 edx, DWORD PTR _y1$[ebp]
  00019	52		 push	 edx
  0001a	8b 45 0c	 mov	 eax, DWORD PTR _x1$[ebp]
  0001d	50		 push	 eax
  0001e	8b 4d 08	 mov	 ecx, DWORD PTR _pen$[ebp]
  00021	8b 11		 mov	 edx, DWORD PTR [ecx]
  00023	52		 push	 edx
  00024	8b 45 fc	 mov	 eax, DWORD PTR _this$[ebp]
  00027	8b 08		 mov	 ecx, DWORD PTR [eax]
  00029	51		 push	 ecx
  0002a	e8 00 00 00 00	 call	 _GdipDrawLineI@24
  0002f	50		 push	 eax
  00030	8b 4d fc	 mov	 ecx, DWORD PTR _this$[ebp]
  00033	e8 00 00 00 00	 call	 ?SetStatus@Graphics@Gdiplus@@IBE?AW4Status@2@W432@@Z ; Gdiplus::Graphics::SetStatus

; 450  :     }

  00038	83 c4 04	 add	 esp, 4
  0003b	3b ec		 cmp	 ebp, esp
  0003d	e8 00 00 00 00	 call	 __RTC_CheckEsp
  00042	8b e5		 mov	 esp, ebp
  00044	5d		 pop	 ebp
  00045	c2 14 00	 ret	 20			; 00000014H
?DrawLine@Graphics@Gdiplus@@QAE?AW4Status@2@PBVPen@2@HHHH@Z ENDP ; Gdiplus::Graphics::DrawLine
_TEXT	ENDS
PUBLIC	?DrawArc@Graphics@Gdiplus@@QAE?AW4Status@2@PBVPen@2@MMMMMM@Z ; Gdiplus::Graphics::DrawArc
; Function compile flags: /Odt /RTCsu
;	COMDAT ?DrawArc@Graphics@Gdiplus@@QAE?AW4Status@2@PBVPen@2@ABVRectF@2@MM@Z
_TEXT	SEGMENT
_this$ = -4						; size = 4
_pen$ = 8						; size = 4
_rect$ = 12						; size = 4
_startAngle$ = 16					; size = 4
_sweepAngle$ = 20					; size = 4
?DrawArc@Graphics@Gdiplus@@QAE?AW4Status@2@PBVPen@2@ABVRectF@2@MM@Z PROC NEAR ; Gdiplus::Graphics::DrawArc, COMDAT
; _this$ = ecx

; 495  :     {

  00000	55		 push	 ebp
  00001	8b ec		 mov	 ebp, esp
  00003	51		 push	 ecx
  00004	c7 45 fc cc cc
	cc cc		 mov	 DWORD PTR [ebp-4], -858993460 ; ccccccccH
  0000b	89 4d fc	 mov	 DWORD PTR _this$[ebp], ecx

; 496  :         return DrawArc(pen, rect.X, rect.Y, rect.Width, rect.Height,
; 497  :                        startAngle, sweepAngle);

  0000e	8b 45 14	 mov	 eax, DWORD PTR _sweepAngle$[ebp]
  00011	50		 push	 eax
  00012	8b 4d 10	 mov	 ecx, DWORD PTR _startAngle$[ebp]
  00015	51		 push	 ecx
  00016	8b 55 0c	 mov	 edx, DWORD PTR _rect$[ebp]
  00019	8b 42 0c	 mov	 eax, DWORD PTR [edx+12]
  0001c	50		 push	 eax
  0001d	8b 4d 0c	 mov	 ecx, DWORD PTR _rect$[ebp]
  00020	8b 51 08	 mov	 edx, DWORD PTR [ecx+8]
  00023	52		 push	 edx
  00024	8b 45 0c	 mov	 eax, DWORD PTR _rect$[ebp]
  00027	8b 48 04	 mov	 ecx, DWORD PTR [eax+4]
  0002a	51		 push	 ecx
  0002b	8b 55 0c	 mov	 edx, DWORD PTR _rect$[ebp]
  0002e	8b 02		 mov	 eax, DWORD PTR [edx]
  00030	50		 push	 eax
  00031	8b 4d 08	 mov	 ecx, DWORD PTR _pen$[ebp]
  00034	51		 push	 ecx
  00035	8b 4d fc	 mov	 ecx, DWORD PTR _this$[ebp]
  00038	e8 00 00 00 00	 call	 ?DrawArc@Graphics@Gdiplus@@QAE?AW4Status@2@PBVPen@2@MMMMMM@Z ; Gdiplus::Graphics::DrawArc

; 498  :     }

  0003d	83 c4 04	 add	 esp, 4
  00040	3b ec		 cmp	 ebp, esp
  00042	e8 00 00 00 00	 call	 __RTC_CheckEsp
  00047	8b e5		 mov	 esp, ebp
  00049	5d		 pop	 ebp
  0004a	c2 10 00	 ret	 16			; 00000010H
?DrawArc@Graphics@Gdiplus@@QAE?AW4Status@2@PBVPen@2@ABVRectF@2@MM@Z ENDP ; Gdiplus::Graphics::DrawArc
_TEXT	ENDS
EXTRN	_GdipDrawArc@32:NEAR
; Function compile flags: /Odt /RTCsu
;	COMDAT ?DrawArc@Graphics@Gdiplus@@QAE?AW4Status@2@PBVPen@2@MMMMMM@Z
_TEXT	SEGMENT
_this$ = -4						; size = 4
_pen$ = 8						; size = 4
_x$ = 12						; size = 4
_y$ = 16						; size = 4
_width$ = 20						; size = 4
_height$ = 24						; size = 4
_startAngle$ = 28					; size = 4
_sweepAngle$ = 32					; size = 4
?DrawArc@Graphics@Gdiplus@@QAE?AW4Status@2@PBVPen@2@MMMMMM@Z PROC NEAR ; Gdiplus::Graphics::DrawArc, COMDAT
; _this$ = ecx

; 480  :     {

  00000	55		 push	 ebp
  00001	8b ec		 mov	 ebp, esp
  00003	51		 push	 ecx
  00004	c7 45 fc cc cc
	cc cc		 mov	 DWORD PTR [ebp-4], -858993460 ; ccccccccH
  0000b	89 4d fc	 mov	 DWORD PTR _this$[ebp], ecx

; 481  :         return SetStatus(DllExports::GdipDrawArc(nativeGraphics,
; 482  :                                                  pen->nativePen,
; 483  :                                                  x,
; 484  :                                                  y,
; 485  :                                                  width,
; 486  :                                                  height,
; 487  :                                                  startAngle,
; 488  :                                                  sweepAngle));

  0000e	8b 45 20	 mov	 eax, DWORD PTR _sweepAngle$[ebp]
  00011	50		 push	 eax
  00012	8b 4d 1c	 mov	 ecx, DWORD PTR _startAngle$[ebp]
  00015	51		 push	 ecx
  00016	8b 55 18	 mov	 edx, DWORD PTR _height$[ebp]
  00019	52		 push	 edx
  0001a	8b 45 14	 mov	 eax, DWORD PTR _width$[ebp]
  0001d	50		 push	 eax
  0001e	8b 4d 10	 mov	 ecx, DWORD PTR _y$[ebp]
  00021	51		 push	 ecx
  00022	8b 55 0c	 mov	 edx, DWORD PTR _x$[ebp]
  00025	52		 push	 edx
  00026	8b 45 08	 mov	 eax, DWORD PTR _pen$[ebp]
  00029	8b 08		 mov	 ecx, DWORD PTR [eax]
  0002b	51		 push	 ecx
  0002c	8b 55 fc	 mov	 edx, DWORD PTR _this$[ebp]
  0002f	8b 02		 mov	 eax, DWORD PTR [edx]
  00031	50		 push	 eax
  00032	e8 00 00 00 00	 call	 _GdipDrawArc@32
  00037	50		 push	 eax
  00038	8b 4d fc	 mov	 ecx, DWORD PTR _this$[ebp]
  0003b	e8 00 00 00 00	 call	 ?SetStatus@Graphics@Gdiplus@@IBE?AW4Status@2@W432@@Z ; Gdiplus::Graphics::SetStatus

; 489  :     }

  00040	83 c4 04	 add	 esp, 4
  00043	3b ec		 cmp	 ebp, esp
  00045	e8 00 00 00 00	 call	 __RTC_CheckEsp
  0004a	8b e5		 mov	 esp, ebp
  0004c	5d		 pop	 ebp
  0004d	c2 1c 00	 ret	 28			; 0000001cH
?DrawArc@Graphics@Gdiplus@@QAE?AW4Status@2@PBVPen@2@MMMMMM@Z ENDP ; Gdiplus::Graphics::DrawArc
_TEXT	ENDS
PUBLIC	?FillRectangle@Graphics@Gdiplus@@QAE?AW4Status@2@PBVBrush@2@MMMM@Z ; Gdiplus::Graphics::FillRectangle
; Function compile flags: /Odt /RTCsu
;	COMDAT ?FillRectangle@Graphics@Gdiplus@@QAE?AW4Status@2@PBVBrush@2@ABVRectF@2@@Z
_TEXT	SEGMENT
_this$ = -4						; size = 4
_brush$ = 8						; size = 4
_rect$ = 12						; size = 4
?FillRectangle@Graphics@Gdiplus@@QAE?AW4Status@2@PBVBrush@2@ABVRectF@2@@Z PROC NEAR ; Gdiplus::Graphics::FillRectangle, COMDAT
; _this$ = ecx

; 941  :     {

  00000	55		 push	 ebp
  00001	8b ec		 mov	 ebp, esp
  00003	51		 push	 ecx
  00004	c7 45 fc cc cc
	cc cc		 mov	 DWORD PTR [ebp-4], -858993460 ; ccccccccH
  0000b	89 4d fc	 mov	 DWORD PTR _this$[ebp], ecx

; 942  :         return FillRectangle(brush, rect.X, rect.Y, rect.Width, rect.Height);

  0000e	8b 45 0c	 mov	 eax, DWORD PTR _rect$[ebp]
  00011	8b 48 0c	 mov	 ecx, DWORD PTR [eax+12]
  00014	51		 push	 ecx
  00015	8b 55 0c	 mov	 edx, DWORD PTR _rect$[ebp]
  00018	8b 42 08	 mov	 eax, DWORD PTR [edx+8]
  0001b	50		 push	 eax
  0001c	8b 4d 0c	 mov	 ecx, DWORD PTR _rect$[ebp]
  0001f	8b 51 04	 mov	 edx, DWORD PTR [ecx+4]
  00022	52		 push	 edx
  00023	8b 45 0c	 mov	 eax, DWORD PTR _rect$[ebp]
  00026	8b 08		 mov	 ecx, DWORD PTR [eax]
  00028	51		 push	 ecx
  00029	8b 55 08	 mov	 edx, DWORD PTR _brush$[ebp]
  0002c	52		 push	 edx
  0002d	8b 4d fc	 mov	 ecx, DWORD PTR _this$[ebp]
  00030	e8 00 00 00 00	 call	 ?FillRectangle@Graphics@Gdiplus@@QAE?AW4Status@2@PBVBrush@2@MMMM@Z ; Gdiplus::Graphics::FillRectangle

; 943  :     }

  00035	83 c4 04	 add	 esp, 4
  00038	3b ec		 cmp	 ebp, esp
  0003a	e8 00 00 00 00	 call	 __RTC_CheckEsp
  0003f	8b e5		 mov	 esp, ebp
  00041	5d		 pop	 ebp
  00042	c2 08 00	 ret	 8
?FillRectangle@Graphics@Gdiplus@@QAE?AW4Status@2@PBVBrush@2@ABVRectF@2@@Z ENDP ; Gdiplus::Graphics::FillRectangle
_TEXT	ENDS
EXTRN	_GdipFillRectangle@24:NEAR
; Function compile flags: /Odt /RTCsu
;	COMDAT ?FillRectangle@Graphics@Gdiplus@@QAE?AW4Status@2@PBVBrush@2@MMMM@Z
_TEXT	SEGMENT
_this$ = -4						; size = 4
_brush$ = 8						; size = 4
_x$ = 12						; size = 4
_y$ = 16						; size = 4
_width$ = 20						; size = 4
_height$ = 24						; size = 4
?FillRectangle@Graphics@Gdiplus@@QAE?AW4Status@2@PBVBrush@2@MMMM@Z PROC NEAR ; Gdiplus::Graphics::FillRectangle, COMDAT
; _this$ = ecx

; 950  :     {

  00000	55		 push	 ebp
  00001	8b ec		 mov	 ebp, esp
  00003	51		 push	 ecx
  00004	c7 45 fc cc cc
	cc cc		 mov	 DWORD PTR [ebp-4], -858993460 ; ccccccccH
  0000b	89 4d fc	 mov	 DWORD PTR _this$[ebp], ecx

; 951  :         return SetStatus(DllExports::GdipFillRectangle(nativeGraphics,
; 952  :                                                        brush->nativeBrush, x, y,
; 953  :                                                        width, height));

  0000e	8b 45 18	 mov	 eax, DWORD PTR _height$[ebp]
  00011	50		 push	 eax
  00012	8b 4d 14	 mov	 ecx, DWORD PTR _width$[ebp]
  00015	51		 push	 ecx
  00016	8b 55 10	 mov	 edx, DWORD PTR _y$[ebp]
  00019	52		 push	 edx
  0001a	8b 45 0c	 mov	 eax, DWORD PTR _x$[ebp]
  0001d	50		 push	 eax
  0001e	8b 4d 08	 mov	 ecx, DWORD PTR _brush$[ebp]
  00021	8b 51 04	 mov	 edx, DWORD PTR [ecx+4]
  00024	52		 push	 edx
  00025	8b 45 fc	 mov	 eax, DWORD PTR _this$[ebp]
  00028	8b 08		 mov	 ecx, DWORD PTR [eax]
  0002a	51		 push	 ecx
  0002b	e8 00 00 00 00	 call	 _GdipFillRectangle@24
  00030	50		 push	 eax
  00031	8b 4d fc	 mov	 ecx, DWORD PTR _this$[ebp]
  00034	e8 00 00 00 00	 call	 ?SetStatus@Graphics@Gdiplus@@IBE?AW4Status@2@W432@@Z ; Gdiplus::Graphics::SetStatus

; 954  :     }

  00039	83 c4 04	 add	 esp, 4
  0003c	3b ec		 cmp	 ebp, esp
  0003e	e8 00 00 00 00	 call	 __RTC_CheckEsp
  00043	8b e5		 mov	 esp, ebp
  00045	5d		 pop	 ebp
  00046	c2 14 00	 ret	 20			; 00000014H
?FillRectangle@Graphics@Gdiplus@@QAE?AW4Status@2@PBVBrush@2@MMMM@Z ENDP ; Gdiplus::Graphics::FillRectangle
_TEXT	ENDS
EXTRN	_GdipDrawString@28:NEAR
; Function compile flags: /Odt /RTCsu
;	COMDAT ?DrawString@Graphics@Gdiplus@@QAE?AW4Status@2@PB_WHPBVFont@2@ABVRectF@2@PBVStringFormat@2@PBVBrush@2@@Z
_TEXT	SEGMENT
tv76 = -16						; size = 4
tv72 = -12						; size = 4
tv69 = -8						; size = 4
_this$ = -4						; size = 4
_string$ = 8						; size = 4
_length$ = 12						; size = 4
_font$ = 16						; size = 4
_layoutRect$ = 20					; size = 4
_stringFormat$ = 24					; size = 4
_brush$ = 28						; size = 4
?DrawString@Graphics@Gdiplus@@QAE?AW4Status@2@PB_WHPBVFont@2@ABVRectF@2@PBVStringFormat@2@PBVBrush@2@@Z PROC NEAR ; Gdiplus::Graphics::DrawString, COMDAT
; _this$ = ecx

; 1190 :     {

  00000	55		 push	 ebp
  00001	8b ec		 mov	 ebp, esp
  00003	83 ec 10	 sub	 esp, 16			; 00000010H
  00006	b8 cc cc cc cc	 mov	 eax, -858993460		; ccccccccH
  0000b	89 45 f0	 mov	 DWORD PTR [ebp-16], eax
  0000e	89 45 f4	 mov	 DWORD PTR [ebp-12], eax
  00011	89 45 f8	 mov	 DWORD PTR [ebp-8], eax
  00014	89 45 fc	 mov	 DWORD PTR [ebp-4], eax
  00017	89 4d fc	 mov	 DWORD PTR _this$[ebp], ecx

; 1191 :         return SetStatus(DllExports::GdipDrawString(
; 1192 :             nativeGraphics,
; 1193 :             string,
; 1194 :             length,
; 1195 :             font ? font->nativeFont : NULL,
; 1196 :             &layoutRect,
; 1197 :             stringFormat ? stringFormat->nativeFormat : NULL,
; 1198 :             brush ? brush->nativeBrush : NULL
; 1199 :         ));

  0001a	83 7d 1c 00	 cmp	 DWORD PTR _brush$[ebp], 0
  0001e	74 0b		 je	 SHORT $L188637
  00020	8b 45 1c	 mov	 eax, DWORD PTR _brush$[ebp]
  00023	8b 48 04	 mov	 ecx, DWORD PTR [eax+4]
  00026	89 4d f8	 mov	 DWORD PTR tv69[ebp], ecx
  00029	eb 07		 jmp	 SHORT $L188638
$L188637:
  0002b	c7 45 f8 00 00
	00 00		 mov	 DWORD PTR tv69[ebp], 0
$L188638:
  00032	83 7d 18 00	 cmp	 DWORD PTR _stringFormat$[ebp], 0
  00036	74 0a		 je	 SHORT $L188639
  00038	8b 55 18	 mov	 edx, DWORD PTR _stringFormat$[ebp]
  0003b	8b 02		 mov	 eax, DWORD PTR [edx]
  0003d	89 45 f4	 mov	 DWORD PTR tv72[ebp], eax
  00040	eb 07		 jmp	 SHORT $L188640
$L188639:
  00042	c7 45 f4 00 00
	00 00		 mov	 DWORD PTR tv72[ebp], 0
$L188640:
  00049	83 7d 10 00	 cmp	 DWORD PTR _font$[ebp], 0
  0004d	74 0a		 je	 SHORT $L188641
  0004f	8b 4d 10	 mov	 ecx, DWORD PTR _font$[ebp]
  00052	8b 11		 mov	 edx, DWORD PTR [ecx]
  00054	89 55 f0	 mov	 DWORD PTR tv76[ebp], edx
  00057	eb 07		 jmp	 SHORT $L188642
$L188641:
  00059	c7 45 f0 00 00
	00 00		 mov	 DWORD PTR tv76[ebp], 0
$L188642:
  00060	8b 45 f8	 mov	 eax, DWORD PTR tv69[ebp]
  00063	50		 push	 eax
  00064	8b 4d f4	 mov	 ecx, DWORD PTR tv72[ebp]
  00067	51		 push	 ecx
  00068	8b 55 14	 mov	 edx, DWORD PTR _layoutRect$[ebp]
  0006b	52		 push	 edx
  0006c	8b 45 f0	 mov	 eax, DWORD PTR tv76[ebp]
  0006f	50		 push	 eax
  00070	8b 4d 0c	 mov	 ecx, DWORD PTR _length$[ebp]
  00073	51		 push	 ecx
  00074	8b 55 08	 mov	 edx, DWORD PTR _string$[ebp]
  00077	52		 push	 edx
  00078	8b 45 fc	 mov	 eax, DWORD PTR _this$[ebp]
  0007b	8b 08		 mov	 ecx, DWORD PTR [eax]
  0007d	51		 push	 ecx
  0007e	e8 00 00 00 00	 call	 _GdipDrawString@28
  00083	50		 push	 eax
  00084	8b 4d fc	 mov	 ecx, DWORD PTR _this$[ebp]
  00087	e8 00 00 00 00	 call	 ?SetStatus@Graphics@Gdiplus@@IBE?AW4Status@2@W432@@Z ; Gdiplus::Graphics::SetStatus

; 1200 :     }

  0008c	83 c4 10	 add	 esp, 16			; 00000010H
  0008f	3b ec		 cmp	 ebp, esp
  00091	e8 00 00 00 00	 call	 __RTC_CheckEsp
  00096	8b e5		 mov	 esp, ebp
  00098	5d		 pop	 ebp
  00099	c2 18 00	 ret	 24			; 00000018H
?DrawString@Graphics@Gdiplus@@QAE?AW4Status@2@PB_WHPBVFont@2@ABVRectF@2@PBVStringFormat@2@PBVBrush@2@@Z ENDP ; Gdiplus::Graphics::DrawString
_TEXT	ENDS
PUBLIC	?DrawImage@Graphics@Gdiplus@@QAE?AW4Status@2@PAVImage@2@MMMM@Z ; Gdiplus::Graphics::DrawImage
; Function compile flags: /Odt /RTCsu
;	COMDAT ?DrawImage@Graphics@Gdiplus@@QAE?AW4Status@2@PAVImage@2@ABVRectF@2@@Z
_TEXT	SEGMENT
_this$ = -4						; size = 4
_image$ = 8						; size = 4
_rect$ = 12						; size = 4
?DrawImage@Graphics@Gdiplus@@QAE?AW4Status@2@PAVImage@2@ABVRectF@2@@Z PROC NEAR ; Gdiplus::Graphics::DrawImage, COMDAT
; _this$ = ecx

; 1508 :     {

  00000	55		 push	 ebp
  00001	8b ec		 mov	 ebp, esp
  00003	51		 push	 ecx
  00004	c7 45 fc cc cc
	cc cc		 mov	 DWORD PTR [ebp-4], -858993460 ; ccccccccH
  0000b	89 4d fc	 mov	 DWORD PTR _this$[ebp], ecx

; 1509 :         return DrawImage(image, rect.X, rect.Y, rect.Width, rect.Height);

  0000e	8b 45 0c	 mov	 eax, DWORD PTR _rect$[ebp]
  00011	8b 48 0c	 mov	 ecx, DWORD PTR [eax+12]
  00014	51		 push	 ecx
  00015	8b 55 0c	 mov	 edx, DWORD PTR _rect$[ebp]
  00018	8b 42 08	 mov	 eax, DWORD PTR [edx+8]
  0001b	50		 push	 eax
  0001c	8b 4d 0c	 mov	 ecx, DWORD PTR _rect$[ebp]
  0001f	8b 51 04	 mov	 edx, DWORD PTR [ecx+4]
  00022	52		 push	 edx
  00023	8b 45 0c	 mov	 eax, DWORD PTR _rect$[ebp]
  00026	8b 08		 mov	 ecx, DWORD PTR [eax]
  00028	51		 push	 ecx
  00029	8b 55 08	 mov	 edx, DWORD PTR _image$[ebp]
  0002c	52		 push	 edx
  0002d	8b 4d fc	 mov	 ecx, DWORD PTR _this$[ebp]
  00030	e8 00 00 00 00	 call	 ?DrawImage@Graphics@Gdiplus@@QAE?AW4Status@2@PAVImage@2@MMMM@Z ; Gdiplus::Graphics::DrawImage

; 1510 :     }

  00035	83 c4 04	 add	 esp, 4
  00038	3b ec		 cmp	 ebp, esp
  0003a	e8 00 00 00 00	 call	 __RTC_CheckEsp
  0003f	8b e5		 mov	 esp, ebp
  00041	5d		 pop	 ebp
  00042	c2 08 00	 ret	 8
?DrawImage@Graphics@Gdiplus@@QAE?AW4Status@2@PAVImage@2@ABVRectF@2@@Z ENDP ; Gdiplus::Graphics::DrawImage
_TEXT	ENDS
EXTRN	_GdipDrawImageRect@24:NEAR
; Function compile flags: /Odt /RTCsu
;	COMDAT ?DrawImage@Graphics@Gdiplus@@QAE?AW4Status@2@PAVImage@2@MMMM@Z
_TEXT	SEGMENT
tv73 = -8						; size = 4
_this$ = -4						; size = 4
_image$ = 8						; size = 4
_x$ = 12						; size = 4
_y$ = 16						; size = 4
_width$ = 20						; size = 4
_height$ = 24						; size = 4
?DrawImage@Graphics@Gdiplus@@QAE?AW4Status@2@PAVImage@2@MMMM@Z PROC NEAR ; Gdiplus::Graphics::DrawImage, COMDAT
; _this$ = ecx

; 1517 :     {

  00000	55		 push	 ebp
  00001	8b ec		 mov	 ebp, esp
  00003	83 ec 08	 sub	 esp, 8
  00006	c7 45 f8 cc cc
	cc cc		 mov	 DWORD PTR [ebp-8], -858993460 ; ccccccccH
  0000d	c7 45 fc cc cc
	cc cc		 mov	 DWORD PTR [ebp-4], -858993460 ; ccccccccH
  00014	89 4d fc	 mov	 DWORD PTR _this$[ebp], ecx

; 1518 :         return SetStatus(DllExports::GdipDrawImageRect(nativeGraphics,
; 1519 :                                                        image ? image->nativeImage
; 1520 :                                                              : NULL,
; 1521 :                                                        x,
; 1522 :                                                        y,
; 1523 :                                                        width,
; 1524 :                                                        height));

  00017	83 7d 08 00	 cmp	 DWORD PTR _image$[ebp], 0
  0001b	74 0b		 je	 SHORT $L188645
  0001d	8b 45 08	 mov	 eax, DWORD PTR _image$[ebp]
  00020	8b 48 04	 mov	 ecx, DWORD PTR [eax+4]
  00023	89 4d f8	 mov	 DWORD PTR tv73[ebp], ecx
  00026	eb 07		 jmp	 SHORT $L188646
$L188645:
  00028	c7 45 f8 00 00
	00 00		 mov	 DWORD PTR tv73[ebp], 0
$L188646:
  0002f	8b 55 18	 mov	 edx, DWORD PTR _height$[ebp]
  00032	52		 push	 edx
  00033	8b 45 14	 mov	 eax, DWORD PTR _width$[ebp]
  00036	50		 push	 eax
  00037	8b 4d 10	 mov	 ecx, DWORD PTR _y$[ebp]
  0003a	51		 push	 ecx
  0003b	8b 55 0c	 mov	 edx, DWORD PTR _x$[ebp]
  0003e	52		 push	 edx
  0003f	8b 45 f8	 mov	 eax, DWORD PTR tv73[ebp]
  00042	50		 push	 eax
  00043	8b 4d fc	 mov	 ecx, DWORD PTR _this$[ebp]
  00046	8b 11		 mov	 edx, DWORD PTR [ecx]
  00048	52		 push	 edx
  00049	e8 00 00 00 00	 call	 _GdipDrawImageRect@24
  0004e	50		 push	 eax
  0004f	8b 4d fc	 mov	 ecx, DWORD PTR _this$[ebp]
  00052	e8 00 00 00 00	 call	 ?SetStatus@Graphics@Gdiplus@@IBE?AW4Status@2@W432@@Z ; Gdiplus::Graphics::SetStatus

; 1525 :     }

  00057	83 c4 08	 add	 esp, 8
  0005a	3b ec		 cmp	 ebp, esp
  0005c	e8 00 00 00 00	 call	 __RTC_CheckEsp
  00061	8b e5		 mov	 esp, ebp
  00063	5d		 pop	 ebp
  00064	c2 14 00	 ret	 20			; 00000014H
?DrawImage@Graphics@Gdiplus@@QAE?AW4Status@2@PAVImage@2@MMMM@Z ENDP ; Gdiplus::Graphics::DrawImage
_TEXT	ENDS
EXTRN	_GdipDrawImageRectRect@56:NEAR
; Function compile flags: /Odt /RTCsu
;	COMDAT ?DrawImage@Graphics@Gdiplus@@QAE?AW4Status@2@PAVImage@2@ABVRectF@2@MMMMW4Unit@2@PBVImageAttributes@2@P6GHPAX@Z4@Z
_TEXT	SEGMENT
tv86 = -12						; size = 4
tv70 = -8						; size = 4
_this$ = -4						; size = 4
_image$ = 8						; size = 4
_destRect$ = 12						; size = 4
_srcx$ = 16						; size = 4
_srcy$ = 20						; size = 4
_srcwidth$ = 24						; size = 4
_srcheight$ = 28					; size = 4
_srcUnit$ = 32						; size = 4
_imageAttributes$ = 36					; size = 4
_callback$ = 40						; size = 4
_callbackData$ = 44					; size = 4
?DrawImage@Graphics@Gdiplus@@QAE?AW4Status@2@PAVImage@2@ABVRectF@2@MMMMW4Unit@2@PBVImageAttributes@2@P6GHPAX@Z4@Z PROC NEAR ; Gdiplus::Graphics::DrawImage, COMDAT
; _this$ = ecx

; 1631 :     {

  00000	55		 push	 ebp
  00001	8b ec		 mov	 ebp, esp
  00003	83 ec 0c	 sub	 esp, 12			; 0000000cH
  00006	c7 45 f4 cc cc
	cc cc		 mov	 DWORD PTR [ebp-12], -858993460 ; ccccccccH
  0000d	c7 45 f8 cc cc
	cc cc		 mov	 DWORD PTR [ebp-8], -858993460 ; ccccccccH
  00014	c7 45 fc cc cc
	cc cc		 mov	 DWORD PTR [ebp-4], -858993460 ; ccccccccH
  0001b	89 4d fc	 mov	 DWORD PTR _this$[ebp], ecx

; 1632 :         return SetStatus(DllExports::GdipDrawImageRectRect(nativeGraphics,
; 1633 :                                                            image ? image->nativeImage
; 1634 :                                                                  : NULL,
; 1635 :                                                            destRect.X,
; 1636 :                                                            destRect.Y,
; 1637 :                                                            destRect.Width,
; 1638 :                                                            destRect.Height,
; 1639 :                                                            srcx, srcy,
; 1640 :                                                            srcwidth, srcheight,
; 1641 :                                                            srcUnit,
; 1642 :                                                            imageAttributes
; 1643 :                                                             ? imageAttributes->nativeImageAttr
; 1644 :                                                             : NULL,
; 1645 :                                                            callback,
; 1646 :                                                            callbackData));

  0001e	83 7d 24 00	 cmp	 DWORD PTR _imageAttributes$[ebp], 0
  00022	74 0a		 je	 SHORT $L188648
  00024	8b 45 24	 mov	 eax, DWORD PTR _imageAttributes$[ebp]
  00027	8b 08		 mov	 ecx, DWORD PTR [eax]
  00029	89 4d f8	 mov	 DWORD PTR tv70[ebp], ecx
  0002c	eb 07		 jmp	 SHORT $L188649
$L188648:
  0002e	c7 45 f8 00 00
	00 00		 mov	 DWORD PTR tv70[ebp], 0
$L188649:
  00035	83 7d 08 00	 cmp	 DWORD PTR _image$[ebp], 0
  00039	74 0b		 je	 SHORT $L188650
  0003b	8b 55 08	 mov	 edx, DWORD PTR _image$[ebp]
  0003e	8b 42 04	 mov	 eax, DWORD PTR [edx+4]
  00041	89 45 f4	 mov	 DWORD PTR tv86[ebp], eax
  00044	eb 07		 jmp	 SHORT $L188651
$L188650:
  00046	c7 45 f4 00 00
	00 00		 mov	 DWORD PTR tv86[ebp], 0
$L188651:
  0004d	8b 4d 2c	 mov	 ecx, DWORD PTR _callbackData$[ebp]
  00050	51		 push	 ecx
  00051	8b 55 28	 mov	 edx, DWORD PTR _callback$[ebp]
  00054	52		 push	 edx
  00055	8b 45 f8	 mov	 eax, DWORD PTR tv70[ebp]
  00058	50		 push	 eax
  00059	8b 4d 20	 mov	 ecx, DWORD PTR _srcUnit$[ebp]
  0005c	51		 push	 ecx
  0005d	8b 55 1c	 mov	 edx, DWORD PTR _srcheight$[ebp]
  00060	52		 push	 edx
  00061	8b 45 18	 mov	 eax, DWORD PTR _srcwidth$[ebp]
  00064	50		 push	 eax
  00065	8b 4d 14	 mov	 ecx, DWORD PTR _srcy$[ebp]
  00068	51		 push	 ecx
  00069	8b 55 10	 mov	 edx, DWORD PTR _srcx$[ebp]
  0006c	52		 push	 edx
  0006d	8b 45 0c	 mov	 eax, DWORD PTR _destRect$[ebp]
  00070	8b 48 0c	 mov	 ecx, DWORD PTR [eax+12]
  00073	51		 push	 ecx
  00074	8b 55 0c	 mov	 edx, DWORD PTR _destRect$[ebp]
  00077	8b 42 08	 mov	 eax, DWORD PTR [edx+8]
  0007a	50		 push	 eax
  0007b	8b 4d 0c	 mov	 ecx, DWORD PTR _destRect$[ebp]
  0007e	8b 51 04	 mov	 edx, DWORD PTR [ecx+4]
  00081	52		 push	 edx
  00082	8b 45 0c	 mov	 eax, DWORD PTR _destRect$[ebp]
  00085	8b 08		 mov	 ecx, DWORD PTR [eax]
  00087	51		 push	 ecx
  00088	8b 55 f4	 mov	 edx, DWORD PTR tv86[ebp]
  0008b	52		 push	 edx
  0008c	8b 45 fc	 mov	 eax, DWORD PTR _this$[ebp]
  0008f	8b 08		 mov	 ecx, DWORD PTR [eax]
  00091	51		 push	 ecx
  00092	e8 00 00 00 00	 call	 _GdipDrawImageRectRect@56
  00097	50		 push	 eax
  00098	8b 4d fc	 mov	 ecx, DWORD PTR _this$[ebp]
  0009b	e8 00 00 00 00	 call	 ?SetStatus@Graphics@Gdiplus@@IBE?AW4Status@2@W432@@Z ; Gdiplus::Graphics::SetStatus

; 1647 :     }

  000a0	83 c4 0c	 add	 esp, 12			; 0000000cH
  000a3	3b ec		 cmp	 ebp, esp
  000a5	e8 00 00 00 00	 call	 __RTC_CheckEsp
  000aa	8b e5		 mov	 esp, ebp
  000ac	5d		 pop	 ebp
  000ad	c2 28 00	 ret	 40			; 00000028H
?DrawImage@Graphics@Gdiplus@@QAE?AW4Status@2@PAVImage@2@ABVRectF@2@MMMMW4Unit@2@PBVImageAttributes@2@P6GHPAX@Z4@Z ENDP ; Gdiplus::Graphics::DrawImage
; Function compile flags: /Odt /RTCsu
_TEXT	ENDS
;	COMDAT ?SetNativeGraphics@Graphics@Gdiplus@@IAEXPAVGpGraphics@2@@Z
_TEXT	SEGMENT
_this$ = -4						; size = 4
_graphics$ = 8						; size = 4
?SetNativeGraphics@Graphics@Gdiplus@@IAEXPAVGpGraphics@2@@Z PROC NEAR ; Gdiplus::Graphics::SetNativeGraphics, COMDAT
; _this$ = ecx

; 2339 :     {

  00000	55		 push	 ebp
  00001	8b ec		 mov	 ebp, esp
  00003	51		 push	 ecx
  00004	c7 45 fc cc cc
	cc cc		 mov	 DWORD PTR [ebp-4], -858993460 ; ccccccccH
  0000b	89 4d fc	 mov	 DWORD PTR _this$[ebp], ecx

; 2340 :         this->nativeGraphics = graphics;

  0000e	8b 45 fc	 mov	 eax, DWORD PTR _this$[ebp]
  00011	8b 4d 08	 mov	 ecx, DWORD PTR _graphics$[ebp]
  00014	89 08		 mov	 DWORD PTR [eax], ecx

; 2341 :     }

  00016	8b e5		 mov	 esp, ebp
  00018	5d		 pop	 ebp
  00019	c2 04 00	 ret	 4
?SetNativeGraphics@Graphics@Gdiplus@@IAEXPAVGpGraphics@2@@Z ENDP ; Gdiplus::Graphics::SetNativeGraphics
; Function compile flags: /Odt /RTCsu
_TEXT	ENDS
;	COMDAT ?SetStatus@Graphics@Gdiplus@@IBE?AW4Status@2@W432@@Z
_TEXT	SEGMENT
_this$ = -4						; size = 4
_status$ = 8						; size = 4
?SetStatus@Graphics@Gdiplus@@IBE?AW4Status@2@W432@@Z PROC NEAR ; Gdiplus::Graphics::SetStatus, COMDAT
; _this$ = ecx

; 2344 :     {

  00000	55		 push	 ebp
  00001	8b ec		 mov	 ebp, esp
  00003	51		 push	 ecx
  00004	c7 45 fc cc cc
	cc cc		 mov	 DWORD PTR [ebp-4], -858993460 ; ccccccccH
  0000b	89 4d fc	 mov	 DWORD PTR _this$[ebp], ecx

; 2345 :         if (status != Ok)

  0000e	83 7d 08 00	 cmp	 DWORD PTR _status$[ebp], 0
  00012	74 0e		 je	 SHORT $L116181

; 2346 :             return (lastResult = status);

  00014	8b 45 fc	 mov	 eax, DWORD PTR _this$[ebp]
  00017	8b 4d 08	 mov	 ecx, DWORD PTR _status$[ebp]
  0001a	89 48 04	 mov	 DWORD PTR [eax+4], ecx
  0001d	8b 45 08	 mov	 eax, DWORD PTR _status$[ebp]
  00020	eb 03		 jmp	 SHORT $L116180
$L116181:

; 2347 :         else
; 2348 :             return status;

  00022	8b 45 08	 mov	 eax, DWORD PTR _status$[ebp]
$L116180:

; 2349 :     }

  00025	8b e5		 mov	 esp, ebp
  00027	5d		 pop	 ebp
  00028	c2 04 00	 ret	 4
?SetStatus@Graphics@Gdiplus@@IBE?AW4Status@2@W432@@Z ENDP ; Gdiplus::Graphics::SetStatus
_TEXT	ENDS
EXTRN	_GdipCreateFontFamilyFromName@12:NEAR
; Function compile flags: /Odt /RTCsu
; File d:\program files (x86)\microsoft visual studio .net 2003\vc7\platformsdk\include\gdiplusfontfamily.h
;	COMDAT ??0FontFamily@Gdiplus@@QAE@PB_WPBVFontCollection@1@@Z
_TEXT	SEGMENT
tv69 = -8						; size = 4
_this$ = -4						; size = 4
_name$ = 8						; size = 4
_fontCollection$ = 12					; size = 4
??0FontFamily@Gdiplus@@QAE@PB_WPBVFontCollection@1@@Z PROC NEAR ; Gdiplus::FontFamily::FontFamily, COMDAT
; _this$ = ecx

; 30   : {

  00000	55		 push	 ebp
  00001	8b ec		 mov	 ebp, esp
  00003	83 ec 08	 sub	 esp, 8
  00006	c7 45 f8 cc cc
	cc cc		 mov	 DWORD PTR [ebp-8], -858993460 ; ccccccccH
  0000d	c7 45 fc cc cc
	cc cc		 mov	 DWORD PTR [ebp-4], -858993460 ; ccccccccH
  00014	89 4d fc	 mov	 DWORD PTR _this$[ebp], ecx

; 31   :     nativeFamily = NULL;

  00017	8b 45 fc	 mov	 eax, DWORD PTR _this$[ebp]
  0001a	c7 00 00 00 00
	00		 mov	 DWORD PTR [eax], 0

; 32   :     lastResult = DllExports::GdipCreateFontFamilyFromName(
; 33   :         name,
; 34   :         fontCollection ? fontCollection->nativeFontCollection : NULL,
; 35   :         &nativeFamily
; 36   :     );

  00020	83 7d 0c 00	 cmp	 DWORD PTR _fontCollection$[ebp], 0
  00024	74 0b		 je	 SHORT $L188655
  00026	8b 4d 0c	 mov	 ecx, DWORD PTR _fontCollection$[ebp]
  00029	8b 51 04	 mov	 edx, DWORD PTR [ecx+4]
  0002c	89 55 f8	 mov	 DWORD PTR tv69[ebp], edx
  0002f	eb 07		 jmp	 SHORT $L188656
$L188655:
  00031	c7 45 f8 00 00
	00 00		 mov	 DWORD PTR tv69[ebp], 0
$L188656:
  00038	8b 45 fc	 mov	 eax, DWORD PTR _this$[ebp]
  0003b	50		 push	 eax
  0003c	8b 4d f8	 mov	 ecx, DWORD PTR tv69[ebp]
  0003f	51		 push	 ecx
  00040	8b 55 08	 mov	 edx, DWORD PTR _name$[ebp]
  00043	52		 push	 edx
  00044	e8 00 00 00 00	 call	 _GdipCreateFontFamilyFromName@12
  00049	8b 4d fc	 mov	 ecx, DWORD PTR _this$[ebp]
  0004c	89 41 04	 mov	 DWORD PTR [ecx+4], eax

; 37   : }

  0004f	8b 45 fc	 mov	 eax, DWORD PTR _this$[ebp]
  00052	83 c4 08	 add	 esp, 8
  00055	3b ec		 cmp	 ebp, esp
  00057	e8 00 00 00 00	 call	 __RTC_CheckEsp
  0005c	8b e5		 mov	 esp, ebp
  0005e	5d		 pop	 ebp
  0005f	c2 08 00	 ret	 8
??0FontFamily@Gdiplus@@QAE@PB_WPBVFontCollection@1@@Z ENDP ; Gdiplus::FontFamily::FontFamily
_TEXT	ENDS
EXTRN	_GdipDeleteFontFamily@4:NEAR
; Function compile flags: /Odt /RTCsu
;	COMDAT ??1FontFamily@Gdiplus@@QAE@XZ
_TEXT	SEGMENT
_this$ = -4						; size = 4
??1FontFamily@Gdiplus@@QAE@XZ PROC NEAR			; Gdiplus::FontFamily::~FontFamily, COMDAT
; _this$ = ecx

; 107  : {

  00000	55		 push	 ebp
  00001	8b ec		 mov	 ebp, esp
  00003	51		 push	 ecx
  00004	c7 45 fc cc cc
	cc cc		 mov	 DWORD PTR [ebp-4], -858993460 ; ccccccccH
  0000b	89 4d fc	 mov	 DWORD PTR _this$[ebp], ecx

; 108  :     DllExports::GdipDeleteFontFamily (nativeFamily);

  0000e	8b 45 fc	 mov	 eax, DWORD PTR _this$[ebp]
  00011	8b 08		 mov	 ecx, DWORD PTR [eax]
  00013	51		 push	 ecx
  00014	e8 00 00 00 00	 call	 _GdipDeleteFontFamily@4

; 109  : }

  00019	83 c4 04	 add	 esp, 4
  0001c	3b ec		 cmp	 ebp, esp
  0001e	e8 00 00 00 00	 call	 __RTC_CheckEsp
  00023	8b e5		 mov	 esp, ebp
  00025	5d		 pop	 ebp
  00026	c3		 ret	 0
??1FontFamily@Gdiplus@@QAE@XZ ENDP			; Gdiplus::FontFamily::~FontFamily
_TEXT	ENDS
PUBLIC	?SetNativeFont@Font@Gdiplus@@IAEXPAVGpFont@2@@Z	; Gdiplus::Font::SetNativeFont
EXTRN	_GdipCreateFont@20:NEAR
; Function compile flags: /Odt /RTCsu
; File d:\program files (x86)\microsoft visual studio .net 2003\vc7\platformsdk\include\gdiplusfont.h
;	COMDAT ??0Font@Gdiplus@@QAE@PBVFontFamily@1@MHW4Unit@1@@Z
_TEXT	SEGMENT
tv71 = -20						; size = 4
_font$ = -12						; size = 4
_this$ = -4						; size = 4
_family$ = 8						; size = 4
_emSize$ = 12						; size = 4
_style$ = 16						; size = 4
_unit$ = 20						; size = 4
??0Font@Gdiplus@@QAE@PBVFontFamily@1@MHW4Unit@1@@Z PROC NEAR ; Gdiplus::Font::Font, COMDAT
; _this$ = ecx

; 92   : {

  00000	55		 push	 ebp
  00001	8b ec		 mov	 ebp, esp
  00003	83 ec 14	 sub	 esp, 20			; 00000014H
  00006	b8 cc cc cc cc	 mov	 eax, -858993460		; ccccccccH
  0000b	89 45 ec	 mov	 DWORD PTR [ebp-20], eax
  0000e	89 45 f0	 mov	 DWORD PTR [ebp-16], eax
  00011	89 45 f4	 mov	 DWORD PTR [ebp-12], eax
  00014	89 45 f8	 mov	 DWORD PTR [ebp-8], eax
  00017	89 45 fc	 mov	 DWORD PTR [ebp-4], eax
  0001a	89 4d fc	 mov	 DWORD PTR _this$[ebp], ecx

; 93   :     GpFont *font = NULL;

  0001d	c7 45 f4 00 00
	00 00		 mov	 DWORD PTR _font$[ebp], 0

; 94   : 
; 95   :     lastResult = DllExports::GdipCreateFont(family ? family->nativeFamily : NULL,
; 96   :                     emSize,
; 97   :                     style,
; 98   :                     unit,
; 99   :                     &font);

  00024	83 7d 08 00	 cmp	 DWORD PTR _family$[ebp], 0
  00028	74 0a		 je	 SHORT $L188659
  0002a	8b 45 08	 mov	 eax, DWORD PTR _family$[ebp]
  0002d	8b 08		 mov	 ecx, DWORD PTR [eax]
  0002f	89 4d ec	 mov	 DWORD PTR tv71[ebp], ecx
  00032	eb 07		 jmp	 SHORT $L188660
$L188659:
  00034	c7 45 ec 00 00
	00 00		 mov	 DWORD PTR tv71[ebp], 0
$L188660:
  0003b	8d 55 f4	 lea	 edx, DWORD PTR _font$[ebp]
  0003e	52		 push	 edx
  0003f	8b 45 14	 mov	 eax, DWORD PTR _unit$[ebp]
  00042	50		 push	 eax
  00043	8b 4d 10	 mov	 ecx, DWORD PTR _style$[ebp]
  00046	51		 push	 ecx
  00047	8b 55 0c	 mov	 edx, DWORD PTR _emSize$[ebp]
  0004a	52		 push	 edx
  0004b	8b 45 ec	 mov	 eax, DWORD PTR tv71[ebp]
  0004e	50		 push	 eax
  0004f	e8 00 00 00 00	 call	 _GdipCreateFont@20
  00054	8b 4d fc	 mov	 ecx, DWORD PTR _this$[ebp]
  00057	89 41 04	 mov	 DWORD PTR [ecx+4], eax

; 100  : 
; 101  :     SetNativeFont(font);

  0005a	8b 55 f4	 mov	 edx, DWORD PTR _font$[ebp]
  0005d	52		 push	 edx
  0005e	8b 4d fc	 mov	 ecx, DWORD PTR _this$[ebp]
  00061	e8 00 00 00 00	 call	 ?SetNativeFont@Font@Gdiplus@@IAEXPAVGpFont@2@@Z ; Gdiplus::Font::SetNativeFont

; 102  : }

  00066	8b 45 fc	 mov	 eax, DWORD PTR _this$[ebp]
  00069	52		 push	 edx
  0006a	8b cd		 mov	 ecx, ebp
  0006c	50		 push	 eax
  0006d	8d 15 00 00 00
	00		 lea	 edx, DWORD PTR $L188663
  00073	e8 00 00 00 00	 call	 @_RTC_CheckStackVars@8
  00078	58		 pop	 eax
  00079	5a		 pop	 edx
  0007a	83 c4 14	 add	 esp, 20			; 00000014H
  0007d	3b ec		 cmp	 ebp, esp
  0007f	e8 00 00 00 00	 call	 __RTC_CheckEsp
  00084	8b e5		 mov	 esp, ebp
  00086	5d		 pop	 ebp
  00087	c2 10 00	 ret	 16			; 00000010H
$L188663:
  0008a	01 00 00 00	 DD	 1
  0008e	00 00 00 00	 DD	 $L188662
$L188662:
  00092	f4 ff ff ff	 DD	 -12			; fffffff4H
  00096	04 00 00 00	 DD	 4
  0009a	00 00 00 00	 DD	 $L188661
$L188661:
  0009e	66		 DB	 102			; 00000066H
  0009f	6f		 DB	 111			; 0000006fH
  000a0	6e		 DB	 110			; 0000006eH
  000a1	74		 DB	 116			; 00000074H
  000a2	00		 DB	 0
??0Font@Gdiplus@@QAE@PBVFontFamily@1@MHW4Unit@1@@Z ENDP	; Gdiplus::Font::Font
_TEXT	ENDS
EXTRN	_GdipDeleteFont@4:NEAR
; Function compile flags: /Odt /RTCsu
;	COMDAT ??1Font@Gdiplus@@QAE@XZ
_TEXT	SEGMENT
_this$ = -4						; size = 4
??1Font@Gdiplus@@QAE@XZ PROC NEAR			; Gdiplus::Font::~Font, COMDAT
; _this$ = ecx

; 178  : {

  00000	55		 push	 ebp
  00001	8b ec		 mov	 ebp, esp
  00003	51		 push	 ecx
  00004	c7 45 fc cc cc
	cc cc		 mov	 DWORD PTR [ebp-4], -858993460 ; ccccccccH
  0000b	89 4d fc	 mov	 DWORD PTR _this$[ebp], ecx

; 179  :     DllExports::GdipDeleteFont(nativeFont);

  0000e	8b 45 fc	 mov	 eax, DWORD PTR _this$[ebp]
  00011	8b 08		 mov	 ecx, DWORD PTR [eax]
  00013	51		 push	 ecx
  00014	e8 00 00 00 00	 call	 _GdipDeleteFont@4

; 180  : }

  00019	83 c4 04	 add	 esp, 4
  0001c	3b ec		 cmp	 ebp, esp
  0001e	e8 00 00 00 00	 call	 __RTC_CheckEsp
  00023	8b e5		 mov	 esp, ebp
  00025	5d		 pop	 ebp
  00026	c3		 ret	 0
??1Font@Gdiplus@@QAE@XZ ENDP				; Gdiplus::Font::~Font
; Function compile flags: /Odt /RTCsu
_TEXT	ENDS
;	COMDAT ?SetNativeFont@Font@Gdiplus@@IAEXPAVGpFont@2@@Z
_TEXT	SEGMENT
_this$ = -4						; size = 4
_Font$ = 8						; size = 4
?SetNativeFont@Font@Gdiplus@@IAEXPAVGpFont@2@@Z PROC NEAR ; Gdiplus::Font::SetNativeFont, COMDAT
; _this$ = ecx

; 261  : {

  00000	55		 push	 ebp
  00001	8b ec		 mov	 ebp, esp
  00003	51		 push	 ecx
  00004	c7 45 fc cc cc
	cc cc		 mov	 DWORD PTR [ebp-4], -858993460 ; ccccccccH
  0000b	89 4d fc	 mov	 DWORD PTR _this$[ebp], ecx

; 262  :     nativeFont = Font;

  0000e	8b 45 fc	 mov	 eax, DWORD PTR _this$[ebp]
  00011	8b 4d 08	 mov	 ecx, DWORD PTR _Font$[ebp]
  00014	89 08		 mov	 DWORD PTR [eax], ecx

; 263  : }

  00016	8b e5		 mov	 esp, ebp
  00018	5d		 pop	 ebp
  00019	c2 04 00	 ret	 4
?SetNativeFont@Font@Gdiplus@@IAEXPAVGpFont@2@@Z ENDP	; Gdiplus::Font::SetNativeFont
_TEXT	ENDS
PUBLIC	?SetStatus@Image@Gdiplus@@IBE?AW4Status@2@W432@@Z ; Gdiplus::Image::SetStatus
EXTRN	_GdipGetImageWidth@8:NEAR
; Function compile flags: /Odt /RTCsu
; File d:\program files (x86)\microsoft visual studio .net 2003\vc7\platformsdk\include\gdiplusbitmap.h
;	COMDAT ?GetWidth@Image@Gdiplus@@QAEIXZ
_TEXT	SEGMENT
_width$ = -12						; size = 4
_this$ = -4						; size = 4
?GetWidth@Image@Gdiplus@@QAEIXZ PROC NEAR		; Gdiplus::Image::GetWidth, COMDAT
; _this$ = ecx

; 225  : {

  00000	55		 push	 ebp
  00001	8b ec		 mov	 ebp, esp
  00003	83 ec 10	 sub	 esp, 16			; 00000010H
  00006	b8 cc cc cc cc	 mov	 eax, -858993460		; ccccccccH
  0000b	89 45 f0	 mov	 DWORD PTR [ebp-16], eax
  0000e	89 45 f4	 mov	 DWORD PTR [ebp-12], eax
  00011	89 45 f8	 mov	 DWORD PTR [ebp-8], eax
  00014	89 45 fc	 mov	 DWORD PTR [ebp-4], eax
  00017	89 4d fc	 mov	 DWORD PTR _this$[ebp], ecx

; 226  :     UINT width = 0;

  0001a	c7 45 f4 00 00
	00 00		 mov	 DWORD PTR _width$[ebp], 0

; 227  : 
; 228  :     SetStatus(DllExports::GdipGetImageWidth(nativeImage, &width));

  00021	8d 45 f4	 lea	 eax, DWORD PTR _width$[ebp]
  00024	50		 push	 eax
  00025	8b 4d fc	 mov	 ecx, DWORD PTR _this$[ebp]
  00028	8b 51 04	 mov	 edx, DWORD PTR [ecx+4]
  0002b	52		 push	 edx
  0002c	e8 00 00 00 00	 call	 _GdipGetImageWidth@8
  00031	50		 push	 eax
  00032	8b 4d fc	 mov	 ecx, DWORD PTR _this$[ebp]
  00035	e8 00 00 00 00	 call	 ?SetStatus@Image@Gdiplus@@IBE?AW4Status@2@W432@@Z ; Gdiplus::Image::SetStatus

; 229  : 
; 230  :     return width;

  0003a	8b 45 f4	 mov	 eax, DWORD PTR _width$[ebp]

; 231  : }

  0003d	52		 push	 edx
  0003e	8b cd		 mov	 ecx, ebp
  00040	50		 push	 eax
  00041	8d 15 00 00 00
	00		 lea	 edx, DWORD PTR $L188669
  00047	e8 00 00 00 00	 call	 @_RTC_CheckStackVars@8
  0004c	58		 pop	 eax
  0004d	5a		 pop	 edx
  0004e	83 c4 10	 add	 esp, 16			; 00000010H
  00051	3b ec		 cmp	 ebp, esp
  00053	e8 00 00 00 00	 call	 __RTC_CheckEsp
  00058	8b e5		 mov	 esp, ebp
  0005a	5d		 pop	 ebp
  0005b	c3		 ret	 0
$L188669:
  0005c	01 00 00 00	 DD	 1
  00060	00 00 00 00	 DD	 $L188668
$L188668:
  00064	f4 ff ff ff	 DD	 -12			; fffffff4H
  00068	04 00 00 00	 DD	 4
  0006c	00 00 00 00	 DD	 $L188667
$L188667:
  00070	77		 DB	 119			; 00000077H
  00071	69		 DB	 105			; 00000069H
  00072	64		 DB	 100			; 00000064H
  00073	74		 DB	 116			; 00000074H
  00074	68		 DB	 104			; 00000068H
  00075	00		 DB	 0
?GetWidth@Image@Gdiplus@@QAEIXZ ENDP			; Gdiplus::Image::GetWidth
; Function compile flags: /Odt /RTCsu
; File d:\program files (x86)\microsoft visual studio .net 2003\vc7\platformsdk\include\gdiplusheaders.h
_TEXT	ENDS
;	COMDAT ?SetStatus@Image@Gdiplus@@IBE?AW4Status@2@W432@@Z
_TEXT	SEGMENT
_this$ = -4						; size = 4
_status$ = 8						; size = 4
?SetStatus@Image@Gdiplus@@IBE?AW4Status@2@W432@@Z PROC NEAR ; Gdiplus::Image::SetStatus, COMDAT
; _this$ = ecx

; 472  :     {

  00000	55		 push	 ebp
  00001	8b ec		 mov	 ebp, esp
  00003	51		 push	 ecx
  00004	c7 45 fc cc cc
	cc cc		 mov	 DWORD PTR [ebp-4], -858993460 ; ccccccccH
  0000b	89 4d fc	 mov	 DWORD PTR _this$[ebp], ecx

; 473  :         if (status != Ok)

  0000e	83 7d 08 00	 cmp	 DWORD PTR _status$[ebp], 0
  00012	74 0e		 je	 SHORT $L109523

; 474  :             return (lastResult = status);

  00014	8b 45 fc	 mov	 eax, DWORD PTR _this$[ebp]
  00017	8b 4d 08	 mov	 ecx, DWORD PTR _status$[ebp]
  0001a	89 48 08	 mov	 DWORD PTR [eax+8], ecx
  0001d	8b 45 08	 mov	 eax, DWORD PTR _status$[ebp]
  00020	eb 03		 jmp	 SHORT $L109522
$L109523:

; 475  :         else
; 476  :             return status;

  00022	8b 45 08	 mov	 eax, DWORD PTR _status$[ebp]
$L109522:

; 477  :     }

  00025	8b e5		 mov	 esp, ebp
  00027	5d		 pop	 ebp
  00028	c2 04 00	 ret	 4
?SetStatus@Image@Gdiplus@@IBE?AW4Status@2@W432@@Z ENDP	; Gdiplus::Image::SetStatus
_TEXT	ENDS
EXTRN	_GdipGetImageHeight@8:NEAR
; Function compile flags: /Odt /RTCsu
; File d:\program files (x86)\microsoft visual studio .net 2003\vc7\platformsdk\include\gdiplusbitmap.h
;	COMDAT ?GetHeight@Image@Gdiplus@@QAEIXZ
_TEXT	SEGMENT
_height$ = -12						; size = 4
_this$ = -4						; size = 4
?GetHeight@Image@Gdiplus@@QAEIXZ PROC NEAR		; Gdiplus::Image::GetHeight, COMDAT
; _this$ = ecx

; 235  : {

  00000	55		 push	 ebp
  00001	8b ec		 mov	 ebp, esp
  00003	83 ec 10	 sub	 esp, 16			; 00000010H
  00006	b8 cc cc cc cc	 mov	 eax, -858993460		; ccccccccH
  0000b	89 45 f0	 mov	 DWORD PTR [ebp-16], eax
  0000e	89 45 f4	 mov	 DWORD PTR [ebp-12], eax
  00011	89 45 f8	 mov	 DWORD PTR [ebp-8], eax
  00014	89 45 fc	 mov	 DWORD PTR [ebp-4], eax
  00017	89 4d fc	 mov	 DWORD PTR _this$[ebp], ecx

; 236  :     UINT height = 0;

  0001a	c7 45 f4 00 00
	00 00		 mov	 DWORD PTR _height$[ebp], 0

; 237  : 
; 238  :     SetStatus(DllExports::GdipGetImageHeight(nativeImage, &height));

  00021	8d 45 f4	 lea	 eax, DWORD PTR _height$[ebp]
  00024	50		 push	 eax
  00025	8b 4d fc	 mov	 ecx, DWORD PTR _this$[ebp]
  00028	8b 51 04	 mov	 edx, DWORD PTR [ecx+4]
  0002b	52		 push	 edx
  0002c	e8 00 00 00 00	 call	 _GdipGetImageHeight@8
  00031	50		 push	 eax
  00032	8b 4d fc	 mov	 ecx, DWORD PTR _this$[ebp]
  00035	e8 00 00 00 00	 call	 ?SetStatus@Image@Gdiplus@@IBE?AW4Status@2@W432@@Z ; Gdiplus::Image::SetStatus

; 239  : 
; 240  :     return height;

  0003a	8b 45 f4	 mov	 eax, DWORD PTR _height$[ebp]

; 241  : }

  0003d	52		 push	 edx
  0003e	8b cd		 mov	 ecx, ebp
  00040	50		 push	 eax
  00041	8d 15 00 00 00
	00		 lea	 edx, DWORD PTR $L188674
  00047	e8 00 00 00 00	 call	 @_RTC_CheckStackVars@8
  0004c	58		 pop	 eax
  0004d	5a		 pop	 edx
  0004e	83 c4 10	 add	 esp, 16			; 00000010H
  00051	3b ec		 cmp	 ebp, esp
  00053	e8 00 00 00 00	 call	 __RTC_CheckEsp
  00058	8b e5		 mov	 esp, ebp
  0005a	5d		 pop	 ebp
  0005b	c3		 ret	 0
$L188674:
  0005c	01 00 00 00	 DD	 1
  00060	00 00 00 00	 DD	 $L188673
$L188673:
  00064	f4 ff ff ff	 DD	 -12			; fffffff4H
  00068	04 00 00 00	 DD	 4
  0006c	00 00 00 00	 DD	 $L188672
$L188672:
  00070	68		 DB	 104			; 00000068H
  00071	65		 DB	 101			; 00000065H
  00072	69		 DB	 105			; 00000069H
  00073	67		 DB	 103			; 00000067H
  00074	68		 DB	 104			; 00000068H
  00075	74		 DB	 116			; 00000074H
  00076	00		 DB	 0
?GetHeight@Image@Gdiplus@@QAEIXZ ENDP			; Gdiplus::Image::GetHeight
; Function compile flags: /Odt /RTCsu
_TEXT	ENDS
;	COMDAT ?GetLastStatus@Image@Gdiplus@@QBE?AW4Status@2@XZ
_TEXT	SEGMENT
_lastStatus$ = -8					; size = 4
_this$ = -4						; size = 4
?GetLastStatus@Image@Gdiplus@@QBE?AW4Status@2@XZ PROC NEAR ; Gdiplus::Image::GetLastStatus, COMDAT
; _this$ = ecx

; 488  : {

  00000	55		 push	 ebp
  00001	8b ec		 mov	 ebp, esp
  00003	83 ec 08	 sub	 esp, 8
  00006	c7 45 f8 cc cc
	cc cc		 mov	 DWORD PTR [ebp-8], -858993460 ; ccccccccH
  0000d	c7 45 fc cc cc
	cc cc		 mov	 DWORD PTR [ebp-4], -858993460 ; ccccccccH
  00014	89 4d fc	 mov	 DWORD PTR _this$[ebp], ecx

; 489  :     Status lastStatus = lastResult;

  00017	8b 45 fc	 mov	 eax, DWORD PTR _this$[ebp]
  0001a	8b 48 08	 mov	 ecx, DWORD PTR [eax+8]
  0001d	89 4d f8	 mov	 DWORD PTR _lastStatus$[ebp], ecx

; 490  :     lastResult = Ok;

  00020	8b 55 fc	 mov	 edx, DWORD PTR _this$[ebp]
  00023	c7 42 08 00 00
	00 00		 mov	 DWORD PTR [edx+8], 0

; 491  : 
; 492  :     return lastStatus;

  0002a	8b 45 f8	 mov	 eax, DWORD PTR _lastStatus$[ebp]

; 493  : }

  0002d	8b e5		 mov	 esp, ebp
  0002f	5d		 pop	 ebp
  00030	c3		 ret	 0
?GetLastStatus@Image@Gdiplus@@QBE?AW4Status@2@XZ ENDP	; Gdiplus::Image::GetLastStatus
_TEXT	ENDS
PUBLIC	??1Image@Gdiplus@@UAE@XZ			; Gdiplus::Image::~Image
; Function compile flags: /Odt /RTCsu
;	COMDAT ??1Bitmap@Gdiplus@@UAE@XZ
_TEXT	SEGMENT
_this$ = -4						; size = 4
??1Bitmap@Gdiplus@@UAE@XZ PROC NEAR			; Gdiplus::Bitmap::~Bitmap, COMDAT
; _this$ = ecx
  00000	55		 push	 ebp
  00001	8b ec		 mov	 ebp, esp
  00003	51		 push	 ecx
  00004	c7 45 fc cc cc
	cc cc		 mov	 DWORD PTR [ebp-4], -858993460 ; ccccccccH
  0000b	89 4d fc	 mov	 DWORD PTR _this$[ebp], ecx
  0000e	8b 4d fc	 mov	 ecx, DWORD PTR _this$[ebp]
  00011	e8 00 00 00 00	 call	 ??1Image@Gdiplus@@UAE@XZ ; Gdiplus::Image::~Image
  00016	83 c4 04	 add	 esp, 4
  00019	3b ec		 cmp	 ebp, esp
  0001b	e8 00 00 00 00	 call	 __RTC_CheckEsp
  00020	8b e5		 mov	 esp, ebp
  00022	5d		 pop	 ebp
  00023	c3		 ret	 0
??1Bitmap@Gdiplus@@UAE@XZ ENDP				; Gdiplus::Bitmap::~Bitmap
_TEXT	ENDS
PUBLIC	??_R1A@?0A@A@Image@Gdiplus@@8			; Gdiplus::Image::`RTTI Base Class Descriptor at (0,-1,0,0)'
PUBLIC	??_R0?AVImage@Gdiplus@@@8			; Gdiplus::Image `RTTI Type Descriptor'
PUBLIC	??_R4Image@Gdiplus@@6B@				; Gdiplus::Image::`RTTI Complete Object Locator'
PUBLIC	??_R3Image@Gdiplus@@8				; Gdiplus::Image::`RTTI Class Hierarchy Descriptor'
PUBLIC	??_R2Image@Gdiplus@@8				; Gdiplus::Image::`RTTI Base Class Array'
PUBLIC	?Clone@Image@Gdiplus@@UAEPAV12@XZ		; Gdiplus::Image::Clone
PUBLIC	??_7Image@Gdiplus@@6B@				; Gdiplus::Image::`vftable'
PUBLIC	??_GImage@Gdiplus@@UAEPAXI@Z			; Gdiplus::Image::`scalar deleting destructor'
EXTRN	_GdipDisposeImage@4:NEAR
EXTRN	??_EImage@Gdiplus@@UAEPAXI@Z:NEAR		; Gdiplus::Image::`vector deleting destructor'
;	COMDAT ??_7Image@Gdiplus@@6B@
CONST	SEGMENT
??_7Image@Gdiplus@@6B@ DD FLAT:??_R4Image@Gdiplus@@6B@	; Gdiplus::Image::`vftable'
	DD	FLAT:??_EImage@Gdiplus@@UAEPAXI@Z
	DD	FLAT:?Clone@Image@Gdiplus@@UAEPAV12@XZ
CONST	ENDS
;	COMDAT ??_R4Image@Gdiplus@@6B@
rdata$r	SEGMENT
??_R4Image@Gdiplus@@6B@ DD 00H				; Gdiplus::Image::`RTTI Complete Object Locator'
	DD	00H
	DD	00H
	DD	FLAT:??_R0?AVImage@Gdiplus@@@8
	DD	FLAT:??_R3Image@Gdiplus@@8
rdata$r	ENDS
;	COMDAT ??_R0?AVImage@Gdiplus@@@8
_DATA	SEGMENT
??_R0?AVImage@Gdiplus@@@8 DD FLAT:??_7type_info@@6B@	; Gdiplus::Image `RTTI Type Descriptor'
	DD	00H
	DB	'.?AVImage@Gdiplus@@', 00H
_DATA	ENDS
;	COMDAT ??_R3Image@Gdiplus@@8
rdata$r	SEGMENT
??_R3Image@Gdiplus@@8 DD 00H				; Gdiplus::Image::`RTTI Class Hierarchy Descriptor'
	DD	00H
	DD	02H
	DD	FLAT:??_R2Image@Gdiplus@@8
rdata$r	ENDS
;	COMDAT ??_R2Image@Gdiplus@@8
rdata$r	SEGMENT
??_R2Image@Gdiplus@@8 DD FLAT:??_R1A@?0A@A@Image@Gdiplus@@8 ; Gdiplus::Image::`RTTI Base Class Array'
	DD	FLAT:??_R13?0A@A@GdiplusBase@Gdiplus@@8
rdata$r	ENDS
;	COMDAT ??_R1A@?0A@A@Image@Gdiplus@@8
rdata$r	SEGMENT
??_R1A@?0A@A@Image@Gdiplus@@8 DD FLAT:??_R0?AVImage@Gdiplus@@@8 ; Gdiplus::Image::`RTTI Base Class Descriptor at (0,-1,0,0)'
	DD	01H
	DD	00H
	DD	0ffffffffH
	DD	00H
	DD	00H
; Function compile flags: /Odt /RTCsu
rdata$r	ENDS
;	COMDAT ??1Image@Gdiplus@@UAE@XZ
_TEXT	SEGMENT
_this$ = -4						; size = 4
??1Image@Gdiplus@@UAE@XZ PROC NEAR			; Gdiplus::Image::~Image, COMDAT
; _this$ = ecx

; 90   : {

  00000	55		 push	 ebp
  00001	8b ec		 mov	 ebp, esp
  00003	51		 push	 ecx
  00004	c7 45 fc cc cc
	cc cc		 mov	 DWORD PTR [ebp-4], -858993460 ; ccccccccH
  0000b	89 4d fc	 mov	 DWORD PTR _this$[ebp], ecx
  0000e	8b 45 fc	 mov	 eax, DWORD PTR _this$[ebp]
  00011	c7 00 00 00 00
	00		 mov	 DWORD PTR [eax], OFFSET FLAT:??_7Image@Gdiplus@@6B@

; 91   :     DllExports::GdipDisposeImage(nativeImage);

  00017	8b 4d fc	 mov	 ecx, DWORD PTR _this$[ebp]
  0001a	8b 51 04	 mov	 edx, DWORD PTR [ecx+4]
  0001d	52		 push	 edx
  0001e	e8 00 00 00 00	 call	 _GdipDisposeImage@4

; 92   : }

  00023	83 c4 04	 add	 esp, 4
  00026	3b ec		 cmp	 ebp, esp
  00028	e8 00 00 00 00	 call	 __RTC_CheckEsp
  0002d	8b e5		 mov	 esp, ebp
  0002f	5d		 pop	 ebp
  00030	c3		 ret	 0
??1Image@Gdiplus@@UAE@XZ ENDP				; Gdiplus::Image::~Image
; Function compile flags: /Odt /RTCsu
_TEXT	ENDS
;	COMDAT ??_GImage@Gdiplus@@UAEPAXI@Z
_TEXT	SEGMENT
_this$ = -4						; size = 4
___flags$ = 8						; size = 4
??_GImage@Gdiplus@@UAEPAXI@Z PROC NEAR			; Gdiplus::Image::`scalar deleting destructor', COMDAT
; _this$ = ecx
  00000	55		 push	 ebp
  00001	8b ec		 mov	 ebp, esp
  00003	51		 push	 ecx
  00004	c7 45 fc cc cc
	cc cc		 mov	 DWORD PTR [ebp-4], -858993460 ; ccccccccH
  0000b	89 4d fc	 mov	 DWORD PTR _this$[ebp], ecx
  0000e	8b 4d fc	 mov	 ecx, DWORD PTR _this$[ebp]
  00011	e8 00 00 00 00	 call	 ??1Image@Gdiplus@@UAE@XZ ; Gdiplus::Image::~Image
  00016	8b 45 08	 mov	 eax, DWORD PTR ___flags$[ebp]
  00019	83 e0 01	 and	 eax, 1
  0001c	74 0c		 je	 SHORT $L109528
  0001e	8b 4d fc	 mov	 ecx, DWORD PTR _this$[ebp]
  00021	51		 push	 ecx
  00022	e8 00 00 00 00	 call	 ??3GdiplusBase@Gdiplus@@SAXPAX@Z ; Gdiplus::GdiplusBase::operator delete
  00027	83 c4 04	 add	 esp, 4
$L109528:
  0002a	8b 45 fc	 mov	 eax, DWORD PTR _this$[ebp]
  0002d	83 c4 04	 add	 esp, 4
  00030	3b ec		 cmp	 ebp, esp
  00032	e8 00 00 00 00	 call	 __RTC_CheckEsp
  00037	8b e5		 mov	 esp, ebp
  00039	5d		 pop	 ebp
  0003a	c2 04 00	 ret	 4
??_GImage@Gdiplus@@UAEPAXI@Z ENDP			; Gdiplus::Image::`scalar deleting destructor'
_TEXT	ENDS
PUBLIC	??0Image@Gdiplus@@IAE@PAVGpImage@1@W4Status@1@@Z ; Gdiplus::Image::Image
EXTRN	_GdipCloneImage@8:NEAR
;	COMDAT xdata$x
xdata$x	SEGMENT
$T188692 DD	0ffffffffH
	DD	FLAT:$L188685
$T188687 DD	019930520H
	DD	01H
	DD	FLAT:$T188692
	DD	2 DUP(00H)
	DD	2 DUP(00H)
; Function compile flags: /Odt /RTCsu
xdata$x	ENDS
;	COMDAT ?Clone@Image@Gdiplus@@UAEPAV12@XZ
_TEXT	SEGMENT
tv80 = -40						; size = 4
$T188682 = -36						; size = 4
$T188681 = -32						; size = 4
_cloneimage$ = -24					; size = 4
_this$ = -16						; size = 4
__$EHRec$ = -12						; size = 12
?Clone@Image@Gdiplus@@UAEPAV12@XZ PROC NEAR		; Gdiplus::Image::Clone, COMDAT
; _this$ = ecx

; 96   : {

  00000	55		 push	 ebp
  00001	8b ec		 mov	 ebp, esp
  00003	6a ff		 push	 -1
  00005	68 00 00 00 00	 push	 __ehhandler$?Clone@Image@Gdiplus@@UAEPAV12@XZ
  0000a	64 a1 00 00 00
	00		 mov	 eax, DWORD PTR fs:__except_list
  00010	50		 push	 eax
  00011	64 89 25 00 00
	00 00		 mov	 DWORD PTR fs:__except_list, esp
  00018	83 ec 1c	 sub	 esp, 28			; 0000001cH
  0001b	b8 cc cc cc cc	 mov	 eax, -858993460		; ccccccccH
  00020	89 45 d8	 mov	 DWORD PTR [ebp-40], eax
  00023	89 45 dc	 mov	 DWORD PTR [ebp-36], eax
  00026	89 45 e0	 mov	 DWORD PTR [ebp-32], eax
  00029	89 45 e4	 mov	 DWORD PTR [ebp-28], eax
  0002c	89 45 e8	 mov	 DWORD PTR [ebp-24], eax
  0002f	89 45 ec	 mov	 DWORD PTR [ebp-20], eax
  00032	89 45 f0	 mov	 DWORD PTR [ebp-16], eax
  00035	89 4d f0	 mov	 DWORD PTR _this$[ebp], ecx

; 97   :     GpImage *cloneimage = NULL;

  00038	c7 45 e8 00 00
	00 00		 mov	 DWORD PTR _cloneimage$[ebp], 0

; 98   : 
; 99   :     SetStatus(DllExports::GdipCloneImage(nativeImage, &cloneimage));

  0003f	8d 45 e8	 lea	 eax, DWORD PTR _cloneimage$[ebp]
  00042	50		 push	 eax
  00043	8b 4d f0	 mov	 ecx, DWORD PTR _this$[ebp]
  00046	8b 51 04	 mov	 edx, DWORD PTR [ecx+4]
  00049	52		 push	 edx
  0004a	e8 00 00 00 00	 call	 _GdipCloneImage@8
  0004f	50		 push	 eax
  00050	8b 4d f0	 mov	 ecx, DWORD PTR _this$[ebp]
  00053	e8 00 00 00 00	 call	 ?SetStatus@Image@Gdiplus@@IBE?AW4Status@2@W432@@Z ; Gdiplus::Image::SetStatus

; 100  : 
; 101  :     return new Image(cloneimage, lastResult);

  00058	6a 10		 push	 16			; 00000010H
  0005a	e8 00 00 00 00	 call	 ??2GdiplusBase@Gdiplus@@SAPAXI@Z ; Gdiplus::GdiplusBase::operator new
  0005f	83 c4 04	 add	 esp, 4
  00062	89 45 dc	 mov	 DWORD PTR $T188682[ebp], eax
  00065	c7 45 fc 00 00
	00 00		 mov	 DWORD PTR __$EHRec$[ebp+8], 0
  0006c	83 7d dc 00	 cmp	 DWORD PTR $T188682[ebp], 0
  00070	74 18		 je	 SHORT $L188683
  00072	8b 45 f0	 mov	 eax, DWORD PTR _this$[ebp]
  00075	8b 48 08	 mov	 ecx, DWORD PTR [eax+8]
  00078	51		 push	 ecx
  00079	8b 55 e8	 mov	 edx, DWORD PTR _cloneimage$[ebp]
  0007c	52		 push	 edx
  0007d	8b 4d dc	 mov	 ecx, DWORD PTR $T188682[ebp]
  00080	e8 00 00 00 00	 call	 ??0Image@Gdiplus@@IAE@PAVGpImage@1@W4Status@1@@Z ; Gdiplus::Image::Image
  00085	89 45 d8	 mov	 DWORD PTR tv80[ebp], eax
  00088	eb 07		 jmp	 SHORT $L188684
$L188683:
  0008a	c7 45 d8 00 00
	00 00		 mov	 DWORD PTR tv80[ebp], 0
$L188684:
  00091	8b 45 d8	 mov	 eax, DWORD PTR tv80[ebp]
  00094	89 45 e0	 mov	 DWORD PTR $T188681[ebp], eax
  00097	c7 45 fc ff ff
	ff ff		 mov	 DWORD PTR __$EHRec$[ebp+8], -1
  0009e	8b 45 e0	 mov	 eax, DWORD PTR $T188681[ebp]

; 102  : }

  000a1	52		 push	 edx
  000a2	8b cd		 mov	 ecx, ebp
  000a4	50		 push	 eax
  000a5	8d 15 00 00 00
	00		 lea	 edx, DWORD PTR $L188691
  000ab	e8 00 00 00 00	 call	 @_RTC_CheckStackVars@8
  000b0	58		 pop	 eax
  000b1	5a		 pop	 edx
  000b2	8b 4d f4	 mov	 ecx, DWORD PTR __$EHRec$[ebp]
  000b5	64 89 0d 00 00
	00 00		 mov	 DWORD PTR fs:__except_list, ecx
  000bc	83 c4 28	 add	 esp, 40			; 00000028H
  000bf	3b ec		 cmp	 ebp, esp
  000c1	e8 00 00 00 00	 call	 __RTC_CheckEsp
  000c6	8b e5		 mov	 esp, ebp
  000c8	5d		 pop	 ebp
  000c9	c3		 ret	 0
$L188691:
  000ca	01 00 00 00	 DD	 1
  000ce	00 00 00 00	 DD	 $L188690
$L188690:
  000d2	e8 ff ff ff	 DD	 -24			; ffffffe8H
  000d6	04 00 00 00	 DD	 4
  000da	00 00 00 00	 DD	 $L188688
$L188688:
  000de	63		 DB	 99			; 00000063H
  000df	6c		 DB	 108			; 0000006cH
  000e0	6f		 DB	 111			; 0000006fH
  000e1	6e		 DB	 110			; 0000006eH
  000e2	65		 DB	 101			; 00000065H
  000e3	69		 DB	 105			; 00000069H
  000e4	6d		 DB	 109			; 0000006dH
  000e5	61		 DB	 97			; 00000061H
  000e6	67		 DB	 103			; 00000067H
  000e7	65		 DB	 101			; 00000065H
  000e8	00		 DB	 0
_TEXT	ENDS
;	COMDAT text$x
text$x	SEGMENT
$L188685:
  00000	8b 45 dc	 mov	 eax, DWORD PTR $T188682[ebp]
  00003	50		 push	 eax
  00004	e8 00 00 00 00	 call	 ??3GdiplusBase@Gdiplus@@SAXPAX@Z ; Gdiplus::GdiplusBase::operator delete
  00009	59		 pop	 ecx
  0000a	c3		 ret	 0
__ehhandler$?Clone@Image@Gdiplus@@UAEPAV12@XZ:
  0000b	b8 00 00 00 00	 mov	 eax, OFFSET FLAT:$T188687
  00010	e9 00 00 00 00	 jmp	 ___CxxFrameHandler
text$x	ENDS
?Clone@Image@Gdiplus@@UAEPAV12@XZ ENDP			; Gdiplus::Image::Clone
PUBLIC	?SetNativeImage@Image@Gdiplus@@IAEXPAVGpImage@2@@Z ; Gdiplus::Image::SetNativeImage
; Function compile flags: /Odt /RTCsu
;	COMDAT ??0Image@Gdiplus@@IAE@PAVGpImage@1@W4Status@1@@Z
_TEXT	SEGMENT
_this$ = -4						; size = 4
_nativeImage$ = 8					; size = 4
_status$ = 12						; size = 4
??0Image@Gdiplus@@IAE@PAVGpImage@1@W4Status@1@@Z PROC NEAR ; Gdiplus::Image::Image, COMDAT
; _this$ = ecx

; 497  : {

  00000	55		 push	 ebp
  00001	8b ec		 mov	 ebp, esp
  00003	51		 push	 ecx
  00004	c7 45 fc cc cc
	cc cc		 mov	 DWORD PTR [ebp-4], -858993460 ; ccccccccH
  0000b	89 4d fc	 mov	 DWORD PTR _this$[ebp], ecx
  0000e	8b 45 fc	 mov	 eax, DWORD PTR _this$[ebp]
  00011	c7 00 00 00 00
	00		 mov	 DWORD PTR [eax], OFFSET FLAT:??_7Image@Gdiplus@@6B@

; 498  :     SetNativeImage(nativeImage);

  00017	8b 4d 08	 mov	 ecx, DWORD PTR _nativeImage$[ebp]
  0001a	51		 push	 ecx
  0001b	8b 4d fc	 mov	 ecx, DWORD PTR _this$[ebp]
  0001e	e8 00 00 00 00	 call	 ?SetNativeImage@Image@Gdiplus@@IAEXPAVGpImage@2@@Z ; Gdiplus::Image::SetNativeImage

; 499  :     lastResult = status;

  00023	8b 55 fc	 mov	 edx, DWORD PTR _this$[ebp]
  00026	8b 45 0c	 mov	 eax, DWORD PTR _status$[ebp]
  00029	89 42 08	 mov	 DWORD PTR [edx+8], eax

; 500  : }

  0002c	8b 45 fc	 mov	 eax, DWORD PTR _this$[ebp]
  0002f	83 c4 04	 add	 esp, 4
  00032	3b ec		 cmp	 ebp, esp
  00034	e8 00 00 00 00	 call	 __RTC_CheckEsp
  00039	8b e5		 mov	 esp, ebp
  0003b	5d		 pop	 ebp
  0003c	c2 08 00	 ret	 8
??0Image@Gdiplus@@IAE@PAVGpImage@1@W4Status@1@@Z ENDP	; Gdiplus::Image::Image
; Function compile flags: /Odt /RTCsu
_TEXT	ENDS
;	COMDAT ?SetNativeImage@Image@Gdiplus@@IAEXPAVGpImage@2@@Z
_TEXT	SEGMENT
_this$ = -4						; size = 4
_nativeImage$ = 8					; size = 4
?SetNativeImage@Image@Gdiplus@@IAEXPAVGpImage@2@@Z PROC NEAR ; Gdiplus::Image::SetNativeImage, COMDAT
; _this$ = ecx

; 504  : {

  00000	55		 push	 ebp
  00001	8b ec		 mov	 ebp, esp
  00003	51		 push	 ecx
  00004	c7 45 fc cc cc
	cc cc		 mov	 DWORD PTR [ebp-4], -858993460 ; ccccccccH
  0000b	89 4d fc	 mov	 DWORD PTR _this$[ebp], ecx

; 505  :     this->nativeImage = nativeImage;

  0000e	8b 45 fc	 mov	 eax, DWORD PTR _this$[ebp]
  00011	8b 4d 08	 mov	 ecx, DWORD PTR _nativeImage$[ebp]
  00014	89 48 04	 mov	 DWORD PTR [eax+4], ecx

; 506  : }

  00017	8b e5		 mov	 esp, ebp
  00019	5d		 pop	 ebp
  0001a	c2 04 00	 ret	 4
?SetNativeImage@Image@Gdiplus@@IAEXPAVGpImage@2@@Z ENDP	; Gdiplus::Image::SetNativeImage
_TEXT	ENDS
PUBLIC	??_7Bitmap@Gdiplus@@6B@				; Gdiplus::Bitmap::`vftable'
PUBLIC	??_GBitmap@Gdiplus@@UAEPAXI@Z			; Gdiplus::Bitmap::`scalar deleting destructor'
PUBLIC	??_R4Bitmap@Gdiplus@@6B@			; Gdiplus::Bitmap::`RTTI Complete Object Locator'
PUBLIC	??_R0?AVBitmap@Gdiplus@@@8			; Gdiplus::Bitmap `RTTI Type Descriptor'
PUBLIC	??_R3Bitmap@Gdiplus@@8				; Gdiplus::Bitmap::`RTTI Class Hierarchy Descriptor'
PUBLIC	??_R2Bitmap@Gdiplus@@8				; Gdiplus::Bitmap::`RTTI Base Class Array'
PUBLIC	??_R1A@?0A@A@Bitmap@Gdiplus@@8			; Gdiplus::Bitmap::`RTTI Base Class Descriptor at (0,-1,0,0)'
PUBLIC	??0Image@Gdiplus@@IAE@XZ			; Gdiplus::Image::Image
EXTRN	??_EBitmap@Gdiplus@@UAEPAXI@Z:NEAR		; Gdiplus::Bitmap::`vector deleting destructor'
EXTRN	_GdipCreateBitmapFromGraphics@16:NEAR
;	COMDAT xdata$x
xdata$x	SEGMENT
$T188705 DD	0ffffffffH
	DD	FLAT:$L188698
$T188700 DD	019930520H
	DD	01H
	DD	FLAT:$T188705
	DD	2 DUP(00H)
	DD	2 DUP(00H)
xdata$x	ENDS
;	COMDAT ??_7Bitmap@Gdiplus@@6B@
CONST	SEGMENT
??_7Bitmap@Gdiplus@@6B@ DD FLAT:??_R4Bitmap@Gdiplus@@6B@ ; Gdiplus::Bitmap::`vftable'
	DD	FLAT:??_EBitmap@Gdiplus@@UAEPAXI@Z
	DD	FLAT:?Clone@Image@Gdiplus@@UAEPAV12@XZ
CONST	ENDS
;	COMDAT ??_R4Bitmap@Gdiplus@@6B@
rdata$r	SEGMENT
??_R4Bitmap@Gdiplus@@6B@ DD 00H				; Gdiplus::Bitmap::`RTTI Complete Object Locator'
	DD	00H
	DD	00H
	DD	FLAT:??_R0?AVBitmap@Gdiplus@@@8
	DD	FLAT:??_R3Bitmap@Gdiplus@@8
rdata$r	ENDS
;	COMDAT ??_R0?AVBitmap@Gdiplus@@@8
_DATA	SEGMENT
??_R0?AVBitmap@Gdiplus@@@8 DD FLAT:??_7type_info@@6B@	; Gdiplus::Bitmap `RTTI Type Descriptor'
	DD	00H
	DB	'.?AVBitmap@Gdiplus@@', 00H
_DATA	ENDS
;	COMDAT ??_R3Bitmap@Gdiplus@@8
rdata$r	SEGMENT
??_R3Bitmap@Gdiplus@@8 DD 00H				; Gdiplus::Bitmap::`RTTI Class Hierarchy Descriptor'
	DD	00H
	DD	03H
	DD	FLAT:??_R2Bitmap@Gdiplus@@8
rdata$r	ENDS
;	COMDAT ??_R2Bitmap@Gdiplus@@8
rdata$r	SEGMENT
??_R2Bitmap@Gdiplus@@8 DD FLAT:??_R1A@?0A@A@Bitmap@Gdiplus@@8 ; Gdiplus::Bitmap::`RTTI Base Class Array'
	DD	FLAT:??_R1A@?0A@A@Image@Gdiplus@@8
	DD	FLAT:??_R13?0A@A@GdiplusBase@Gdiplus@@8
rdata$r	ENDS
;	COMDAT ??_R1A@?0A@A@Bitmap@Gdiplus@@8
rdata$r	SEGMENT
??_R1A@?0A@A@Bitmap@Gdiplus@@8 DD FLAT:??_R0?AVBitmap@Gdiplus@@@8 ; Gdiplus::Bitmap::`RTTI Base Class Descriptor at (0,-1,0,0)'
	DD	02H
	DD	00H
	DD	0ffffffffH
	DD	00H
	DD	00H
; Function compile flags: /Odt /RTCsu
rdata$r	ENDS
;	COMDAT ??0Bitmap@Gdiplus@@QAE@HHPAVGraphics@1@@Z
_TEXT	SEGMENT
_bitmap$ = -24						; size = 4
_this$ = -16						; size = 4
__$EHRec$ = -12						; size = 12
_width$ = 8						; size = 4
_height$ = 12						; size = 4
_target$ = 16						; size = 4
??0Bitmap@Gdiplus@@QAE@HHPAVGraphics@1@@Z PROC NEAR	; Gdiplus::Bitmap::Bitmap, COMDAT
; _this$ = ecx

; 593  : {

  00000	55		 push	 ebp
  00001	8b ec		 mov	 ebp, esp
  00003	6a ff		 push	 -1
  00005	68 00 00 00 00	 push	 __ehhandler$??0Bitmap@Gdiplus@@QAE@HHPAVGraphics@1@@Z
  0000a	64 a1 00 00 00
	00		 mov	 eax, DWORD PTR fs:__except_list
  00010	50		 push	 eax
  00011	64 89 25 00 00
	00 00		 mov	 DWORD PTR fs:__except_list, esp
  00018	83 ec 10	 sub	 esp, 16			; 00000010H
  0001b	b8 cc cc cc cc	 mov	 eax, -858993460		; ccccccccH
  00020	89 45 e4	 mov	 DWORD PTR [ebp-28], eax
  00023	89 45 e8	 mov	 DWORD PTR [ebp-24], eax
  00026	89 45 ec	 mov	 DWORD PTR [ebp-20], eax
  00029	89 45 f0	 mov	 DWORD PTR [ebp-16], eax
  0002c	89 4d f0	 mov	 DWORD PTR _this$[ebp], ecx
  0002f	8b 4d f0	 mov	 ecx, DWORD PTR _this$[ebp]
  00032	e8 00 00 00 00	 call	 ??0Image@Gdiplus@@IAE@XZ ; Gdiplus::Image::Image
  00037	c7 45 fc 00 00
	00 00		 mov	 DWORD PTR __$EHRec$[ebp+8], 0
  0003e	8b 45 f0	 mov	 eax, DWORD PTR _this$[ebp]
  00041	c7 00 00 00 00
	00		 mov	 DWORD PTR [eax], OFFSET FLAT:??_7Bitmap@Gdiplus@@6B@

; 594  :     GpBitmap *bitmap = NULL;

  00047	c7 45 e8 00 00
	00 00		 mov	 DWORD PTR _bitmap$[ebp], 0

; 595  : 
; 596  :     lastResult = DllExports::GdipCreateBitmapFromGraphics(width,
; 597  :                                                           height,
; 598  :                                                           target->nativeGraphics,
; 599  :                                                           &bitmap);

  0004e	8d 4d e8	 lea	 ecx, DWORD PTR _bitmap$[ebp]
  00051	51		 push	 ecx
  00052	8b 55 10	 mov	 edx, DWORD PTR _target$[ebp]
  00055	8b 02		 mov	 eax, DWORD PTR [edx]
  00057	50		 push	 eax
  00058	8b 4d 0c	 mov	 ecx, DWORD PTR _height$[ebp]
  0005b	51		 push	 ecx
  0005c	8b 55 08	 mov	 edx, DWORD PTR _width$[ebp]
  0005f	52		 push	 edx
  00060	e8 00 00 00 00	 call	 _GdipCreateBitmapFromGraphics@16
  00065	8b 4d f0	 mov	 ecx, DWORD PTR _this$[ebp]
  00068	89 41 08	 mov	 DWORD PTR [ecx+8], eax

; 600  : 
; 601  :     SetNativeImage(bitmap);

  0006b	8b 55 e8	 mov	 edx, DWORD PTR _bitmap$[ebp]
  0006e	52		 push	 edx
  0006f	8b 4d f0	 mov	 ecx, DWORD PTR _this$[ebp]
  00072	e8 00 00 00 00	 call	 ?SetNativeImage@Image@Gdiplus@@IAEXPAVGpImage@2@@Z ; Gdiplus::Image::SetNativeImage

; 602  : }

  00077	c7 45 fc ff ff
	ff ff		 mov	 DWORD PTR __$EHRec$[ebp+8], -1
  0007e	8b 45 f0	 mov	 eax, DWORD PTR _this$[ebp]
  00081	52		 push	 edx
  00082	8b cd		 mov	 ecx, ebp
  00084	50		 push	 eax
  00085	8d 15 00 00 00
	00		 lea	 edx, DWORD PTR $L188704
  0008b	e8 00 00 00 00	 call	 @_RTC_CheckStackVars@8
  00090	58		 pop	 eax
  00091	5a		 pop	 edx
  00092	8b 4d f4	 mov	 ecx, DWORD PTR __$EHRec$[ebp]
  00095	64 89 0d 00 00
	00 00		 mov	 DWORD PTR fs:__except_list, ecx
  0009c	83 c4 1c	 add	 esp, 28			; 0000001cH
  0009f	3b ec		 cmp	 ebp, esp
  000a1	e8 00 00 00 00	 call	 __RTC_CheckEsp
  000a6	8b e5		 mov	 esp, ebp
  000a8	5d		 pop	 ebp
  000a9	c2 0c 00	 ret	 12			; 0000000cH
$L188704:
  000ac	01 00 00 00	 DD	 1
  000b0	00 00 00 00	 DD	 $L188703
$L188703:
  000b4	e8 ff ff ff	 DD	 -24			; ffffffe8H
  000b8	04 00 00 00	 DD	 4
  000bc	00 00 00 00	 DD	 $L188701
$L188701:
  000c0	62		 DB	 98			; 00000062H
  000c1	69		 DB	 105			; 00000069H
  000c2	74		 DB	 116			; 00000074H
  000c3	6d		 DB	 109			; 0000006dH
  000c4	61		 DB	 97			; 00000061H
  000c5	70		 DB	 112			; 00000070H
  000c6	00		 DB	 0
_TEXT	ENDS
;	COMDAT text$x
text$x	SEGMENT
$L188698:
  00000	8b 4d f0	 mov	 ecx, DWORD PTR _this$[ebp]
  00003	e9 00 00 00 00	 jmp	 ??1Image@Gdiplus@@UAE@XZ ; Gdiplus::Image::~Image
__ehhandler$??0Bitmap@Gdiplus@@QAE@HHPAVGraphics@1@@Z:
  00008	b8 00 00 00 00	 mov	 eax, OFFSET FLAT:$T188700
  0000d	e9 00 00 00 00	 jmp	 ___CxxFrameHandler
text$x	ENDS
??0Bitmap@Gdiplus@@QAE@HHPAVGraphics@1@@Z ENDP		; Gdiplus::Bitmap::Bitmap
; Function compile flags: /Odt /RTCsu
; File d:\program files (x86)\microsoft visual studio .net 2003\vc7\platformsdk\include\gdiplusheaders.h
;	COMDAT ??0Image@Gdiplus@@IAE@XZ
_TEXT	SEGMENT
_this$ = -4						; size = 4
??0Image@Gdiplus@@IAE@XZ PROC NEAR			; Gdiplus::Image::Image, COMDAT
; _this$ = ecx

; 465  :     Image() {}

  00000	55		 push	 ebp
  00001	8b ec		 mov	 ebp, esp
  00003	51		 push	 ecx
  00004	c7 45 fc cc cc
	cc cc		 mov	 DWORD PTR [ebp-4], -858993460 ; ccccccccH
  0000b	89 4d fc	 mov	 DWORD PTR _this$[ebp], ecx
  0000e	8b 45 fc	 mov	 eax, DWORD PTR _this$[ebp]
  00011	c7 00 00 00 00
	00		 mov	 DWORD PTR [eax], OFFSET FLAT:??_7Image@Gdiplus@@6B@
  00017	8b 45 fc	 mov	 eax, DWORD PTR _this$[ebp]
  0001a	8b e5		 mov	 esp, ebp
  0001c	5d		 pop	 ebp
  0001d	c3		 ret	 0
??0Image@Gdiplus@@IAE@XZ ENDP				; Gdiplus::Image::Image
; Function compile flags: /Odt /RTCsu
_TEXT	ENDS
;	COMDAT ??_GBitmap@Gdiplus@@UAEPAXI@Z
_TEXT	SEGMENT
_this$ = -4						; size = 4
___flags$ = 8						; size = 4
??_GBitmap@Gdiplus@@UAEPAXI@Z PROC NEAR			; Gdiplus::Bitmap::`scalar deleting destructor', COMDAT
; _this$ = ecx
  00000	55		 push	 ebp
  00001	8b ec		 mov	 ebp, esp
  00003	51		 push	 ecx
  00004	c7 45 fc cc cc
	cc cc		 mov	 DWORD PTR [ebp-4], -858993460 ; ccccccccH
  0000b	89 4d fc	 mov	 DWORD PTR _this$[ebp], ecx
  0000e	8b 4d fc	 mov	 ecx, DWORD PTR _this$[ebp]
  00011	e8 00 00 00 00	 call	 ??1Bitmap@Gdiplus@@UAE@XZ
  00016	8b 45 08	 mov	 eax, DWORD PTR ___flags$[ebp]
  00019	83 e0 01	 and	 eax, 1
  0001c	74 0c		 je	 SHORT $L117025
  0001e	8b 4d fc	 mov	 ecx, DWORD PTR _this$[ebp]
  00021	51		 push	 ecx
  00022	e8 00 00 00 00	 call	 ??3GdiplusBase@Gdiplus@@SAXPAX@Z ; Gdiplus::GdiplusBase::operator delete
  00027	83 c4 04	 add	 esp, 4
$L117025:
  0002a	8b 45 fc	 mov	 eax, DWORD PTR _this$[ebp]
  0002d	83 c4 04	 add	 esp, 4
  00030	3b ec		 cmp	 ebp, esp
  00032	e8 00 00 00 00	 call	 __RTC_CheckEsp
  00037	8b e5		 mov	 esp, ebp
  00039	5d		 pop	 ebp
  0003a	c2 04 00	 ret	 4
??_GBitmap@Gdiplus@@UAEPAXI@Z ENDP			; Gdiplus::Bitmap::`scalar deleting destructor'
_TEXT	ENDS
PUBLIC	??0Bitmap@Gdiplus@@QAE@PB_WH@Z			; Gdiplus::Bitmap::Bitmap
;	COMDAT xdata$x
; File d:\program files (x86)\microsoft visual studio .net 2003\vc7\platformsdk\include\gdiplusbitmap.h
xdata$x	SEGMENT
$T188719 DD	0ffffffffH
	DD	FLAT:$L188715
$T188717 DD	019930520H
	DD	01H
	DD	FLAT:$T188719
	DD	2 DUP(00H)
	DD	2 DUP(00H)
; Function compile flags: /Odt /RTCsu
xdata$x	ENDS
;	COMDAT ?FromFile@Bitmap@Gdiplus@@SAPAV12@PB_WH@Z
_TEXT	SEGMENT
tv73 = -24						; size = 4
$T188712 = -20						; size = 4
$T188711 = -16						; size = 4
__$EHRec$ = -12						; size = 12
_filename$ = 8						; size = 4
_useEmbeddedColorManagement$ = 12			; size = 4
?FromFile@Bitmap@Gdiplus@@SAPAV12@PB_WH@Z PROC NEAR	; Gdiplus::Bitmap::FromFile, COMDAT

; 678  : {

  00000	55		 push	 ebp
  00001	8b ec		 mov	 ebp, esp
  00003	6a ff		 push	 -1
  00005	68 00 00 00 00	 push	 __ehhandler$?FromFile@Bitmap@Gdiplus@@SAPAV12@PB_WH@Z
  0000a	64 a1 00 00 00
	00		 mov	 eax, DWORD PTR fs:__except_list
  00010	50		 push	 eax
  00011	64 89 25 00 00
	00 00		 mov	 DWORD PTR fs:__except_list, esp
  00018	83 ec 0c	 sub	 esp, 12			; 0000000cH
  0001b	c7 45 e8 cc cc
	cc cc		 mov	 DWORD PTR [ebp-24], -858993460 ; ccccccccH
  00022	c7 45 ec cc cc
	cc cc		 mov	 DWORD PTR [ebp-20], -858993460 ; ccccccccH
  00029	c7 45 f0 cc cc
	cc cc		 mov	 DWORD PTR [ebp-16], -858993460 ; ccccccccH

; 679  :     return new Bitmap(

  00030	6a 10		 push	 16			; 00000010H
  00032	e8 00 00 00 00	 call	 ??2GdiplusBase@Gdiplus@@SAPAXI@Z ; Gdiplus::GdiplusBase::operator new
  00037	83 c4 04	 add	 esp, 4
  0003a	89 45 ec	 mov	 DWORD PTR $T188712[ebp], eax
  0003d	c7 45 fc 00 00
	00 00		 mov	 DWORD PTR __$EHRec$[ebp+8], 0
  00044	83 7d ec 00	 cmp	 DWORD PTR $T188712[ebp], 0
  00048	74 15		 je	 SHORT $L188713
  0004a	8b 45 0c	 mov	 eax, DWORD PTR _useEmbeddedColorManagement$[ebp]
  0004d	50		 push	 eax
  0004e	8b 4d 08	 mov	 ecx, DWORD PTR _filename$[ebp]
  00051	51		 push	 ecx
  00052	8b 4d ec	 mov	 ecx, DWORD PTR $T188712[ebp]
  00055	e8 00 00 00 00	 call	 ??0Bitmap@Gdiplus@@QAE@PB_WH@Z ; Gdiplus::Bitmap::Bitmap
  0005a	89 45 e8	 mov	 DWORD PTR tv73[ebp], eax
  0005d	eb 07		 jmp	 SHORT $L188714
$L188713:
  0005f	c7 45 e8 00 00
	00 00		 mov	 DWORD PTR tv73[ebp], 0
$L188714:
  00066	8b 55 e8	 mov	 edx, DWORD PTR tv73[ebp]
  00069	89 55 f0	 mov	 DWORD PTR $T188711[ebp], edx
  0006c	c7 45 fc ff ff
	ff ff		 mov	 DWORD PTR __$EHRec$[ebp+8], -1
  00073	8b 45 f0	 mov	 eax, DWORD PTR $T188711[ebp]

; 680  :         filename, 
; 681  :         useEmbeddedColorManagement
; 682  :     );
; 683  : }

  00076	8b 4d f4	 mov	 ecx, DWORD PTR __$EHRec$[ebp]
  00079	64 89 0d 00 00
	00 00		 mov	 DWORD PTR fs:__except_list, ecx
  00080	83 c4 18	 add	 esp, 24			; 00000018H
  00083	3b ec		 cmp	 ebp, esp
  00085	e8 00 00 00 00	 call	 __RTC_CheckEsp
  0008a	8b e5		 mov	 esp, ebp
  0008c	5d		 pop	 ebp
  0008d	c3		 ret	 0
_TEXT	ENDS
;	COMDAT text$x
text$x	SEGMENT
$L188715:
  00000	8b 45 ec	 mov	 eax, DWORD PTR $T188712[ebp]
  00003	50		 push	 eax
  00004	e8 00 00 00 00	 call	 ??3GdiplusBase@Gdiplus@@SAXPAX@Z ; Gdiplus::GdiplusBase::operator delete
  00009	59		 pop	 ecx
  0000a	c3		 ret	 0
__ehhandler$?FromFile@Bitmap@Gdiplus@@SAPAV12@PB_WH@Z:
  0000b	b8 00 00 00 00	 mov	 eax, OFFSET FLAT:$T188717
  00010	e9 00 00 00 00	 jmp	 ___CxxFrameHandler
text$x	ENDS
?FromFile@Bitmap@Gdiplus@@SAPAV12@PB_WH@Z ENDP		; Gdiplus::Bitmap::FromFile
EXTRN	_GdipCreateBitmapFromFile@8:NEAR
EXTRN	_GdipCreateBitmapFromFileICM@8:NEAR
;	COMDAT xdata$x
xdata$x	SEGMENT
$T188730 DD	0ffffffffH
	DD	FLAT:$L188723
$T188725 DD	019930520H
	DD	01H
	DD	FLAT:$T188730
	DD	2 DUP(00H)
	DD	2 DUP(00H)
; Function compile flags: /Odt /RTCsu
xdata$x	ENDS
;	COMDAT ??0Bitmap@Gdiplus@@QAE@PB_WH@Z
_TEXT	SEGMENT
_bitmap$ = -24						; size = 4
_this$ = -16						; size = 4
__$EHRec$ = -12						; size = 12
_filename$ = 8						; size = 4
_useEmbeddedColorManagement$ = 12			; size = 4
??0Bitmap@Gdiplus@@QAE@PB_WH@Z PROC NEAR		; Gdiplus::Bitmap::Bitmap, COMDAT
; _this$ = ecx

; 513  : {

  00000	55		 push	 ebp
  00001	8b ec		 mov	 ebp, esp
  00003	6a ff		 push	 -1
  00005	68 00 00 00 00	 push	 __ehhandler$??0Bitmap@Gdiplus@@QAE@PB_WH@Z
  0000a	64 a1 00 00 00
	00		 mov	 eax, DWORD PTR fs:__except_list
  00010	50		 push	 eax
  00011	64 89 25 00 00
	00 00		 mov	 DWORD PTR fs:__except_list, esp
  00018	83 ec 10	 sub	 esp, 16			; 00000010H
  0001b	b8 cc cc cc cc	 mov	 eax, -858993460		; ccccccccH
  00020	89 45 e4	 mov	 DWORD PTR [ebp-28], eax
  00023	89 45 e8	 mov	 DWORD PTR [ebp-24], eax
  00026	89 45 ec	 mov	 DWORD PTR [ebp-20], eax
  00029	89 45 f0	 mov	 DWORD PTR [ebp-16], eax
  0002c	89 4d f0	 mov	 DWORD PTR _this$[ebp], ecx
  0002f	8b 4d f0	 mov	 ecx, DWORD PTR _this$[ebp]
  00032	e8 00 00 00 00	 call	 ??0Image@Gdiplus@@IAE@XZ ; Gdiplus::Image::Image
  00037	c7 45 fc 00 00
	00 00		 mov	 DWORD PTR __$EHRec$[ebp+8], 0
  0003e	8b 45 f0	 mov	 eax, DWORD PTR _this$[ebp]
  00041	c7 00 00 00 00
	00		 mov	 DWORD PTR [eax], OFFSET FLAT:??_7Bitmap@Gdiplus@@6B@

; 514  :     GpBitmap *bitmap = NULL;

  00047	c7 45 e8 00 00
	00 00		 mov	 DWORD PTR _bitmap$[ebp], 0

; 515  : 
; 516  :     if(useEmbeddedColorManagement) 

  0004e	83 7d 0c 00	 cmp	 DWORD PTR _useEmbeddedColorManagement$[ebp], 0
  00052	74 15		 je	 SHORT $L117020

; 517  :     {
; 518  :         lastResult = DllExports::GdipCreateBitmapFromFileICM(filename, &bitmap);

  00054	8d 4d e8	 lea	 ecx, DWORD PTR _bitmap$[ebp]
  00057	51		 push	 ecx
  00058	8b 55 08	 mov	 edx, DWORD PTR _filename$[ebp]
  0005b	52		 push	 edx
  0005c	e8 00 00 00 00	 call	 _GdipCreateBitmapFromFileICM@8
  00061	8b 4d f0	 mov	 ecx, DWORD PTR _this$[ebp]
  00064	89 41 08	 mov	 DWORD PTR [ecx+8], eax

; 519  :     }
; 520  :     else

  00067	eb 13		 jmp	 SHORT $L117021
$L117020:

; 521  :     {
; 522  :         lastResult = DllExports::GdipCreateBitmapFromFile(filename, &bitmap);

  00069	8d 55 e8	 lea	 edx, DWORD PTR _bitmap$[ebp]
  0006c	52		 push	 edx
  0006d	8b 45 08	 mov	 eax, DWORD PTR _filename$[ebp]
  00070	50		 push	 eax
  00071	e8 00 00 00 00	 call	 _GdipCreateBitmapFromFile@8
  00076	8b 4d f0	 mov	 ecx, DWORD PTR _this$[ebp]
  00079	89 41 08	 mov	 DWORD PTR [ecx+8], eax
$L117021:

; 523  :     }
; 524  : 
; 525  :     SetNativeImage(bitmap);

  0007c	8b 55 e8	 mov	 edx, DWORD PTR _bitmap$[ebp]
  0007f	52		 push	 edx
  00080	8b 4d f0	 mov	 ecx, DWORD PTR _this$[ebp]
  00083	e8 00 00 00 00	 call	 ?SetNativeImage@Image@Gdiplus@@IAEXPAVGpImage@2@@Z ; Gdiplus::Image::SetNativeImage

; 526  : }

  00088	c7 45 fc ff ff
	ff ff		 mov	 DWORD PTR __$EHRec$[ebp+8], -1
  0008f	8b 45 f0	 mov	 eax, DWORD PTR _this$[ebp]
  00092	52		 push	 edx
  00093	8b cd		 mov	 ecx, ebp
  00095	50		 push	 eax
  00096	8d 15 00 00 00
	00		 lea	 edx, DWORD PTR $L188729
  0009c	e8 00 00 00 00	 call	 @_RTC_CheckStackVars@8
  000a1	58		 pop	 eax
  000a2	5a		 pop	 edx
  000a3	8b 4d f4	 mov	 ecx, DWORD PTR __$EHRec$[ebp]
  000a6	64 89 0d 00 00
	00 00		 mov	 DWORD PTR fs:__except_list, ecx
  000ad	83 c4 1c	 add	 esp, 28			; 0000001cH
  000b0	3b ec		 cmp	 ebp, esp
  000b2	e8 00 00 00 00	 call	 __RTC_CheckEsp
  000b7	8b e5		 mov	 esp, ebp
  000b9	5d		 pop	 ebp
  000ba	c2 08 00	 ret	 8
$L188729:
  000bd	01 00 00 00	 DD	 1
  000c1	00 00 00 00	 DD	 $L188728
$L188728:
  000c5	e8 ff ff ff	 DD	 -24			; ffffffe8H
  000c9	04 00 00 00	 DD	 4
  000cd	00 00 00 00	 DD	 $L188726
$L188726:
  000d1	62		 DB	 98			; 00000062H
  000d2	69		 DB	 105			; 00000069H
  000d3	74		 DB	 116			; 00000074H
  000d4	6d		 DB	 109			; 0000006dH
  000d5	61		 DB	 97			; 00000061H
  000d6	70		 DB	 112			; 00000070H
  000d7	00		 DB	 0
_TEXT	ENDS
;	COMDAT text$x
text$x	SEGMENT
$L188723:
  00000	8b 4d f0	 mov	 ecx, DWORD PTR _this$[ebp]
  00003	e9 00 00 00 00	 jmp	 ??1Image@Gdiplus@@UAE@XZ ; Gdiplus::Image::~Image
__ehhandler$??0Bitmap@Gdiplus@@QAE@PB_WH@Z:
  00008	b8 00 00 00 00	 mov	 eax, OFFSET FLAT:$T188725
  0000d	e9 00 00 00 00	 jmp	 ___CxxFrameHandler
text$x	ENDS
??0Bitmap@Gdiplus@@QAE@PB_WH@Z ENDP			; Gdiplus::Bitmap::Bitmap
END
