; Listing generated by Microsoft (R) Optimizing Compiler Version 13.10.3077 

	TITLE	.\src\LayoutMgr\ChangeColor\SkinWnd.cpp
	.386P
include listing.inc
if @Version gt 510
.model FLAT
else
_TEXT	SEGMENT PARA USE32 PUBLIC 'CODE'
_TEXT	ENDS
_DATA	SEGMENT DWORD USE32 PUBLIC 'DATA'
_DATA	ENDS
CONST	SEGMENT DWORD USE32 PUBLIC 'CONST'
CONST	ENDS
_BSS	SEGMENT DWORD USE32 PUBLIC 'BSS'
_BSS	ENDS
$$SYMBOLS	SEGMENT BYTE USE32 'DEBSYM'
$$SYMBOLS	ENDS
_TLS	SEGMENT DWORD USE32 PUBLIC 'TLS'
_TLS	ENDS
;	COMDAT ??_C@_0FC@OGIBLEP@d?3?2boxgit?2playbox?2playbox?2dev?2pr@
CONST	SEGMENT DWORD USE32 PUBLIC 'CONST'
CONST	ENDS
;	COMDAT ??_C@_0EN@IBFBLEEG@D?3?2Program?5Files?5?$CIx86?$CJ?2Microsoft@
CONST	SEGMENT DWORD USE32 PUBLIC 'CONST'
CONST	ENDS
;	COMDAT ??_C@_0BI@GIMJKKKN@AtlIsValidString?$CI?5psz?5?$CJ?$AA@
CONST	SEGMENT DWORD USE32 PUBLIC 'CONST'
CONST	ENDS
;	COMDAT ??_C@_0BE@JONHPENG@map?1set?$DMT?$DO?5too?5long?$AA@
CONST	SEGMENT DWORD USE32 PUBLIC 'CONST'
CONST	ENDS
;	COMDAT ??_C@_0BB@MOGOBHAF@list?$DMT?$DO?5too?5long?$AA@
CONST	SEGMENT DWORD USE32 PUBLIC 'CONST'
CONST	ENDS
rdata$r	SEGMENT DWORD USE32 PUBLIC 'CONST'
rdata$r	ENDS
xdata$x	SEGMENT DWORD USE32 PUBLIC 'CONST'
xdata$x	ENDS
text$AFX_COL1	SEGMENT PARA USE32 PUBLIC ''
text$AFX_COL1	ENDS
text$yc	SEGMENT PARA USE32 PUBLIC 'CODE'
text$yc	ENDS
CRT$XCA	SEGMENT DWORD USE32 PUBLIC 'DATA'
CRT$XCA	ENDS
CRT$XCU	SEGMENT DWORD USE32 PUBLIC 'DATA'
CRT$XCU	ENDS
CRT$XCL	SEGMENT DWORD USE32 PUBLIC 'DATA'
CRT$XCL	ENDS
CRT$XCC	SEGMENT DWORD USE32 PUBLIC 'DATA'
CRT$XCC	ENDS
CRT$XCZ	SEGMENT DWORD USE32 PUBLIC 'DATA'
CRT$XCZ	ENDS
text$yd	SEGMENT PARA USE32 PUBLIC 'CODE'
text$yd	ENDS
ATL$__m	SEGMENT DWORD USE32 PUBLIC ''
ATL$__m	ENDS
ATL$__z	SEGMENT DWORD USE32 PUBLIC ''
ATL$__z	ENDS
ATL$__a	SEGMENT DWORD USE32 PUBLIC ''
ATL$__a	ENDS
;	COMDAT ??1CGdiPlusBitmap@CSkinButton@@UAE@XZ
_TEXT	SEGMENT PARA USE32 PUBLIC 'CODE'
_TEXT	ENDS
;	COMDAT ?Empty@CGdiPlusBitmap@CSkinButton@@QAEXXZ
_TEXT	SEGMENT PARA USE32 PUBLIC 'CODE'
_TEXT	ENDS
;	COMDAT ?Load@CGdiPlusBitmap@CSkinButton@@QAE_NPB_W@Z
_TEXT	SEGMENT PARA USE32 PUBLIC 'CODE'
_TEXT	ENDS
;	COMDAT ?SetBitmap@CSkinButton@@QAEXPAVCBitmap@@@Z
_TEXT	SEGMENT PARA USE32 PUBLIC 'CODE'
_TEXT	ENDS
;	COMDAT ?SetSkinPath@CSkinButton@@QAEXV?$basic_string@DU?$char_traits@D@std@@V?$allocator@D@2@@std@@@Z
_TEXT	SEGMENT PARA USE32 PUBLIC 'CODE'
_TEXT	ENDS
;	COMDAT ?SetBottonType@CSkinButton@@QAEXI@Z
_TEXT	SEGMENT PARA USE32 PUBLIC 'CODE'
_TEXT	ENDS
;	COMDAT ?SetText@CSkinButton@@QAEXV?$CStringT@DV?$StrTraitMFC_DLL@DV?$ChTraitsCRT@D@ATL@@@@@ATL@@@Z
_TEXT	SEGMENT PARA USE32 PUBLIC 'CODE'
_TEXT	ENDS
;	COMDAT ?GetText@CSkinButton@@QBE?AV?$CStringT@DV?$StrTraitMFC_DLL@DV?$ChTraitsCRT@D@ATL@@@@@ATL@@XZ
_TEXT	SEGMENT PARA USE32 PUBLIC 'CODE'
_TEXT	ENDS
;	COMDAT ?GetBitmapEx@CSkinButton@@QBEPAVCBitmap@@XZ
_TEXT	SEGMENT PARA USE32 PUBLIC 'CODE'
_TEXT	ENDS
;	COMDAT ?GetSkinPath@CSkinButton@@QBE?AV?$CStringT@DV?$StrTraitMFC_DLL@DV?$ChTraitsCRT@D@ATL@@@@@ATL@@XZ
_TEXT	SEGMENT PARA USE32 PUBLIC 'CODE'
_TEXT	ENDS
;	COMDAT ?SetListener@CSkinButton@@QAEXPAVIEventListener@@@Z
_TEXT	SEGMENT PARA USE32 PUBLIC 'CODE'
_TEXT	ENDS
;	COMDAT ?SetSelected@CSkinButton@@QAEX_N@Z
_TEXT	SEGMENT PARA USE32 PUBLIC 'CODE'
_TEXT	ENDS
;	COMDAT ?GetSelected@CSkinButton@@QBE_NXZ
_TEXT	SEGMENT PARA USE32 PUBLIC 'CODE'
_TEXT	ENDS
;	COMDAT ??_GCGdiPlusBitmap@CSkinButton@@UAEPAXI@Z
_TEXT	SEGMENT PARA USE32 PUBLIC 'CODE'
_TEXT	ENDS
;	COMDAT ?OnCliekButton@IEventListener@@UAEXPAVCButton@@@Z
_TEXT	SEGMENT PARA USE32 PUBLIC 'CODE'
_TEXT	ENDS
;	COMDAT ?OnCliekSlide@IEventListener@@UAEXPAVCSliderCtrl@@@Z
_TEXT	SEGMENT PARA USE32 PUBLIC 'CODE'
_TEXT	ENDS
;	COMDAT ?OnSendChangeColor@IEventListener@@UAEXKI_N@Z
_TEXT	SEGMENT PARA USE32 PUBLIC 'CODE'
_TEXT	ENDS
;	COMDAT ?OnSendChangeSkin@IEventListener@@UAEXV?$CStringT@DV?$StrTraitMFC_DLL@DV?$ChTraitsCRT@D@ATL@@@@@ATL@@@Z
_TEXT	SEGMENT PARA USE32 PUBLIC 'CODE'
_TEXT	ENDS
;	COMDAT ?OnSendChangeSubject@IEventListener@@UAEXV?$CStringT@DV?$StrTraitMFC_DLL@DV?$ChTraitsCRT@D@ATL@@@@@ATL@@0@Z
_TEXT	SEGMENT PARA USE32 PUBLIC 'CODE'
_TEXT	ENDS
;	COMDAT ?OnChangeSkinAndSub@IEventListener@@UAEXABV?$CStringT@DV?$StrTraitMFC_DLL@DV?$ChTraitsCRT@D@ATL@@@@@ATL@@0@Z
_TEXT	SEGMENT PARA USE32 PUBLIC 'CODE'
_TEXT	ENDS
;	COMDAT ?OnStartDownSubject@IEventListener@@UAEXABV?$CStringT@DV?$StrTraitMFC_DLL@DV?$ChTraitsCRT@D@ATL@@@@@ATL@@@Z
_TEXT	SEGMENT PARA USE32 PUBLIC 'CODE'
_TEXT	ENDS
;	COMDAT ?OnFinishDownSubject@IEventListener@@UAEXH@Z
_TEXT	SEGMENT PARA USE32 PUBLIC 'CODE'
_TEXT	ENDS
;	COMDAT ?OnCliekSlide@CSkinWnd@@MAEXPAVCSliderCtrl@@@Z
_TEXT	SEGMENT PARA USE32 PUBLIC 'CODE'
_TEXT	ENDS
;	COMDAT ?OnSendChangeColor@CSkinWnd@@MAEXKI@Z
_TEXT	SEGMENT PARA USE32 PUBLIC 'CODE'
_TEXT	ENDS
;	COMDAT ?OnSendChangeSkin@CSkinWnd@@MAEXV?$CStringT@DV?$StrTraitMFC_DLL@DV?$ChTraitsCRT@D@ATL@@@@@ATL@@@Z
_TEXT	SEGMENT PARA USE32 PUBLIC 'CODE'
_TEXT	ENDS
;	COMDAT ??1DIBINFO@@UAE@XZ
_TEXT	SEGMENT PARA USE32 PUBLIC 'CODE'
_TEXT	ENDS
;	COMDAT ??_GDIBINFO@@UAEPAXI@Z
_TEXT	SEGMENT PARA USE32 PUBLIC 'CODE'
_TEXT	ENDS
;	COMDAT ??0BaseColor@@QAE@XZ
_TEXT	SEGMENT PARA USE32 PUBLIC 'CODE'
_TEXT	ENDS
;	COMDAT ??1BaseColor@@QAE@XZ
_TEXT	SEGMENT PARA USE32 PUBLIC 'CODE'
_TEXT	ENDS
;	COMDAT ??_GBaseColor@@QAEPAXI@Z
_TEXT	SEGMENT PARA USE32 PUBLIC 'CODE'
_TEXT	ENDS
;	COMDAT ??1CGdiPlusBitmap@@UAE@XZ
_TEXT	SEGMENT PARA USE32 PUBLIC 'CODE'
_TEXT	ENDS
;	COMDAT ?Empty@CGdiPlusBitmap@@QAEXXZ
_TEXT	SEGMENT PARA USE32 PUBLIC 'CODE'
_TEXT	ENDS
;	COMDAT ?Load@CGdiPlusBitmap@@QAE_NPB_W@Z
_TEXT	SEGMENT PARA USE32 PUBLIC 'CODE'
_TEXT	ENDS
;	COMDAT ??_GCGdiPlusBitmap@@UAEPAXI@Z
_TEXT	SEGMENT PARA USE32 PUBLIC 'CODE'
_TEXT	ENDS
;	COMDAT ??1IData@@MAE@XZ
_TEXT	SEGMENT PARA USE32 PUBLIC 'CODE'
_TEXT	ENDS
;	COMDAT ?DataAppStart@IData@@UAEXXZ
_TEXT	SEGMENT PARA USE32 PUBLIC 'CODE'
_TEXT	ENDS
;	COMDAT ?DataAppExit@IData@@UAEXXZ
_TEXT	SEGMENT PARA USE32 PUBLIC 'CODE'
_TEXT	ENDS
;	COMDAT ??_GIData@@MAEPAXI@Z
_TEXT	SEGMENT PARA USE32 PUBLIC 'CODE'
_TEXT	ENDS
;	COMDAT ??1HTTPObserver@@UAE@XZ
_TEXT	SEGMENT PARA USE32 PUBLIC 'CODE'
_TEXT	ENDS
;	COMDAT ?HTTPOb_DownStart@HTTPObserver@@UAEXPBD0I@Z
_TEXT	SEGMENT PARA USE32 PUBLIC 'CODE'
_TEXT	ENDS
;	COMDAT ?HTTPOb_DownFinish@HTTPObserver@@UAEXPBD@Z
_TEXT	SEGMENT PARA USE32 PUBLIC 'CODE'
_TEXT	ENDS
;	COMDAT ?HTTPOb_DownFailed@HTTPObserver@@UAEXPBDW4HTTP_DOWN_FAILED_REASON@@@Z
_TEXT	SEGMENT PARA USE32 PUBLIC 'CODE'
_TEXT	ENDS
;	COMDAT ?HTTPOb_DownProgress@HTTPObserver@@UAEXPBDII@Z
_TEXT	SEGMENT PARA USE32 PUBLIC 'CODE'
_TEXT	ENDS
;	COMDAT ?HTTPOb_DownloadPause@HTTPObserver@@UAEXPBD@Z
_TEXT	SEGMENT PARA USE32 PUBLIC 'CODE'
_TEXT	ENDS
;	COMDAT ??_GHTTPObserver@@UAEPAXI@Z
_TEXT	SEGMENT PARA USE32 PUBLIC 'CODE'
_TEXT	ENDS
;	COMDAT ??1P2PObserver@@UAE@XZ
_TEXT	SEGMENT PARA USE32 PUBLIC 'CODE'
_TEXT	ENDS
;	COMDAT ?P2POb_DownStart@P2PObserver@@UAEXABV?$basic_string@DU?$char_traits@D@std@@V?$allocator@D@2@@std@@PBDI@Z
_TEXT	SEGMENT PARA USE32 PUBLIC 'CODE'
_TEXT	ENDS
;	COMDAT ?P2POb_DownFinish@P2PObserver@@UAEXABV?$basic_string@DU?$char_traits@D@std@@V?$allocator@D@2@@std@@@Z
_TEXT	SEGMENT PARA USE32 PUBLIC 'CODE'
_TEXT	ENDS
;	COMDAT ?P2POb_DownFailed@P2PObserver@@UAEXABV?$basic_string@DU?$char_traits@D@std@@V?$allocator@D@2@@std@@W4P2P_DOWN_FAILED_REASON@@@Z
_TEXT	SEGMENT PARA USE32 PUBLIC 'CODE'
_TEXT	ENDS
;	COMDAT ?P2POb_DownProgress@P2PObserver@@UAEXABV?$basic_string@DU?$char_traits@D@std@@V?$allocator@D@2@@std@@III@Z
_TEXT	SEGMENT PARA USE32 PUBLIC 'CODE'
_TEXT	ENDS
;	COMDAT ?P2POb_DownPause@P2PObserver@@UAEXABV?$basic_string@DU?$char_traits@D@std@@V?$allocator@D@2@@std@@@Z
_TEXT	SEGMENT PARA USE32 PUBLIC 'CODE'
_TEXT	ENDS
;	COMDAT ?P2POb_SigChange@P2PObserver@@UAEXABV?$basic_string@DU?$char_traits@D@std@@V?$allocator@D@2@@std@@0PBD@Z
_TEXT	SEGMENT PARA USE32 PUBLIC 'CODE'
_TEXT	ENDS
;	COMDAT ??_GP2PObserver@@UAEPAXI@Z
_TEXT	SEGMENT PARA USE32 PUBLIC 'CODE'
_TEXT	ENDS
;	COMDAT ?GetClsid@CShockwaveFlash@@QAEABU_GUID@@XZ
_TEXT	SEGMENT PARA USE32 PUBLIC 'CODE'
_TEXT	ENDS
;	COMDAT _$E5
text$yc	SEGMENT PARA USE32 PUBLIC 'CODE'
text$yc	ENDS
;	COMDAT ??_GCSkinWnd@@UAEPAXI@Z
_TEXT	SEGMENT PARA USE32 PUBLIC 'CODE'
_TEXT	ENDS
;	COMDAT ??0IEventListener@@QAE@XZ
_TEXT	SEGMENT PARA USE32 PUBLIC 'CODE'
_TEXT	ENDS
;	COMDAT ??1?$map@V?$CStringT@DV?$StrTraitMFC_DLL@DV?$ChTraitsCRT@D@ATL@@@@@ATL@@PAVCSkinButton@@U?$less@V?$CStringT@DV?$StrTraitMFC_DLL@DV?$ChTraitsCRT@D@ATL@@@@@ATL@@@std@@V?$allocator@U?$pair@$$CBV?$CStringT@DV?$StrTraitMFC_DLL@DV?$ChTraitsCRT@D@ATL@@@@@ATL@@PAVCSkinButton@@@std@@@5@@std@@QAE@XZ
_TEXT	SEGMENT PARA USE32 PUBLIC 'CODE'
_TEXT	ENDS
;	COMDAT ??1?$pair@V?$CStringT@DV?$StrTraitMFC_DLL@DV?$ChTraitsCRT@D@ATL@@@@@ATL@@PAVCSkinButton@@@std@@QAE@XZ
_TEXT	SEGMENT PARA USE32 PUBLIC 'CODE'
_TEXT	ENDS
;	COMDAT ??1?$pair@$$CBV?$CStringT@DV?$StrTraitMFC_DLL@DV?$ChTraitsCRT@D@ATL@@@@@ATL@@PAVCSkinButton@@@std@@QAE@XZ
_TEXT	SEGMENT PARA USE32 PUBLIC 'CODE'
_TEXT	ENDS
;	COMDAT ??HATL@@YA?AV?$CStringT@DV?$StrTraitMFC_DLL@DV?$ChTraitsCRT@D@ATL@@@@@0@ABV10@0@Z
_TEXT	SEGMENT PARA USE32 PUBLIC 'CODE'
_TEXT	ENDS
;	COMDAT ??HATL@@YA?AV?$CStringT@DV?$StrTraitMFC_DLL@DV?$ChTraitsCRT@D@ATL@@@@@0@ABV10@PBD@Z
_TEXT	SEGMENT PARA USE32 PUBLIC 'CODE'
_TEXT	ENDS
;	COMDAT ??8ATL@@YA_NABV?$CStringT@DV?$StrTraitMFC_DLL@DV?$ChTraitsCRT@D@ATL@@@@@0@0@Z
_TEXT	SEGMENT PARA USE32 PUBLIC 'CODE'
_TEXT	ENDS
;	COMDAT ??8ATL@@YA_NABV?$CStringT@DV?$StrTraitMFC_DLL@DV?$ChTraitsCRT@D@ATL@@@@@0@PBD@Z
_TEXT	SEGMENT PARA USE32 PUBLIC 'CODE'
_TEXT	ENDS
;	COMDAT ??9ATL@@YA_NABV?$CStringT@DV?$StrTraitMFC_DLL@DV?$ChTraitsCRT@D@ATL@@@@@0@PBD@Z
_TEXT	SEGMENT PARA USE32 PUBLIC 'CODE'
_TEXT	ENDS
;	COMDAT ??B?$CComPtrBase@UITypeInfo2@@@ATL@@QBEPAUITypeInfo2@@XZ
_TEXT	SEGMENT PARA USE32 PUBLIC 'CODE'
_TEXT	ENDS
;	COMDAT ?equal@?$istreambuf_iterator@DU?$char_traits@D@std@@@std@@QBE_NABV12@@Z
_TEXT	SEGMENT PARA USE32 PUBLIC 'CODE'
_TEXT	ENDS
;	COMDAT ?equal@?$istreambuf_iterator@_WU?$char_traits@_W@std@@@std@@QBE_NABV12@@Z
_TEXT	SEGMENT PARA USE32 PUBLIC 'CODE'
_TEXT	ENDS
;	COMDAT ??0?$list@PAVCSkinButton@@V?$allocator@PAVCSkinButton@@@std@@@std@@QAE@XZ
_TEXT	SEGMENT PARA USE32 PUBLIC 'CODE'
_TEXT	ENDS
;	COMDAT ??1?$list@PAVCSkinButton@@V?$allocator@PAVCSkinButton@@@std@@@std@@QAE@XZ
_TEXT	SEGMENT PARA USE32 PUBLIC 'CODE'
_TEXT	ENDS
;	COMDAT ?begin@?$list@PAVCSkinButton@@V?$allocator@PAVCSkinButton@@@std@@@std@@QAE?AViterator@12@XZ
_TEXT	SEGMENT PARA USE32 PUBLIC 'CODE'
_TEXT	ENDS
;	COMDAT ?end@?$list@PAVCSkinButton@@V?$allocator@PAVCSkinButton@@@std@@@std@@QAE?AViterator@12@XZ
_TEXT	SEGMENT PARA USE32 PUBLIC 'CODE'
_TEXT	ENDS
;	COMDAT ?size@?$list@PAVCSkinButton@@V?$allocator@PAVCSkinButton@@@std@@@std@@QBEIXZ
_TEXT	SEGMENT PARA USE32 PUBLIC 'CODE'
_TEXT	ENDS
;	COMDAT ?push_back@?$list@PAVCSkinButton@@V?$allocator@PAVCSkinButton@@@std@@@std@@QAEXABQAVCSkinButton@@@Z
_TEXT	SEGMENT PARA USE32 PUBLIC 'CODE'
_TEXT	ENDS
;	COMDAT ??0iterator@?$list@PAVCSkinButton@@V?$allocator@PAVCSkinButton@@@std@@@std@@QAE@XZ
_TEXT	SEGMENT PARA USE32 PUBLIC 'CODE'
_TEXT	ENDS
;	COMDAT ??Diterator@?$list@PAVCSkinButton@@V?$allocator@PAVCSkinButton@@@std@@@std@@QBEAAPAVCSkinButton@@XZ
_TEXT	SEGMENT PARA USE32 PUBLIC 'CODE'
_TEXT	ENDS
;	COMDAT ??Eiterator@?$list@PAVCSkinButton@@V?$allocator@PAVCSkinButton@@@std@@@std@@QAE?AV012@H@Z
_TEXT	SEGMENT PARA USE32 PUBLIC 'CODE'
_TEXT	ENDS
;	COMDAT ??9const_iterator@?$list@PAVCSkinButton@@V?$allocator@PAVCSkinButton@@@std@@@std@@QBE_NABV012@@Z
_TEXT	SEGMENT PARA USE32 PUBLIC 'CODE'
_TEXT	ENDS
;	COMDAT ??0?$map@V?$CStringT@DV?$StrTraitMFC_DLL@DV?$ChTraitsCRT@D@ATL@@@@@ATL@@PAVCSkinButton@@U?$less@V?$CStringT@DV?$StrTraitMFC_DLL@DV?$ChTraitsCRT@D@ATL@@@@@ATL@@@std@@V?$allocator@U?$pair@$$CBV?$CStringT@DV?$StrTraitMFC_DLL@DV?$ChTraitsCRT@D@ATL@@@@@ATL@@PAVCSkinButton@@@std@@@5@@std@@QAE@XZ
_TEXT	SEGMENT PARA USE32 PUBLIC 'CODE'
_TEXT	ENDS
;	COMDAT ??1?$_Tree@V?$_Tmap_traits@V?$CStringT@DV?$StrTraitMFC_DLL@DV?$ChTraitsCRT@D@ATL@@@@@ATL@@PAVCSkinButton@@U?$less@V?$CStringT@DV?$StrTraitMFC_DLL@DV?$ChTraitsCRT@D@ATL@@@@@ATL@@@std@@V?$allocator@U?$pair@$$CBV?$CStringT@DV?$StrTraitMFC_DLL@DV?$ChTraitsCRT@D@ATL@@@@@ATL@@PAVCSkinButton@@@std@@@5@$0A@@std@@@std@@QAE@XZ
_TEXT	SEGMENT PARA USE32 PUBLIC 'CODE'
_TEXT	ENDS
;	COMDAT ?end@?$_Tree@V?$_Tmap_traits@V?$CStringT@DV?$StrTraitMFC_DLL@DV?$ChTraitsCRT@D@ATL@@@@@ATL@@PAVCSkinButton@@U?$less@V?$CStringT@DV?$StrTraitMFC_DLL@DV?$ChTraitsCRT@D@ATL@@@@@ATL@@@std@@V?$allocator@U?$pair@$$CBV?$CStringT@DV?$StrTraitMFC_DLL@DV?$ChTraitsCRT@D@ATL@@@@@ATL@@PAVCSkinButton@@@std@@@5@$0A@@std@@@std@@QAE?AViterator@12@XZ
_TEXT	SEGMENT PARA USE32 PUBLIC 'CODE'
_TEXT	ENDS
;	COMDAT ?insert@?$_Tree@V?$_Tmap_traits@V?$CStringT@DV?$StrTraitMFC_DLL@DV?$ChTraitsCRT@D@ATL@@@@@ATL@@PAVCSkinButton@@U?$less@V?$CStringT@DV?$StrTraitMFC_DLL@DV?$ChTraitsCRT@D@ATL@@@@@ATL@@@std@@V?$allocator@U?$pair@$$CBV?$CStringT@DV?$StrTraitMFC_DLL@DV?$ChTraitsCRT@D@ATL@@@@@ATL@@PAVCSkinButton@@@std@@@5@$0A@@std@@@std@@QAE?AU?$pair@Viterator@?$_Tree@V?$_Tmap_traits@V?$CStringT@DV?$StrTraitMFC_DLL@DV?$ChTraitsCRT@D@ATL@@@@@ATL@@PAVCSkinButton@@U?$less@V?$CStringT@DV?$StrTraitMFC_DLL@DV?$ChTraitsCRT@D@ATL@@@@@ATL@@@std@@V?$allocator@U?$pair@$$CBV?$CStringT@DV?$StrTraitMFC_DLL@DV?$ChTraitsCRT@D@ATL@@@@@ATL@@PAVCSkinButton@@@std@@@5@$0A@@std@@@std@@_N@2@ABU?$pair@$$CBV?$CStringT@DV?$StrTraitMFC_DLL@DV?$ChTraitsCRT@D@ATL@@@@@ATL@@PAVCSkinButton@@@2@@Z
_TEXT	SEGMENT PARA USE32 PUBLIC 'CODE'
_TEXT	ENDS
;	COMDAT ?erase@?$_Tree@V?$_Tmap_traits@V?$CStringT@DV?$StrTraitMFC_DLL@DV?$ChTraitsCRT@D@ATL@@@@@ATL@@PAVCSkinButton@@U?$less@V?$CStringT@DV?$StrTraitMFC_DLL@DV?$ChTraitsCRT@D@ATL@@@@@ATL@@@std@@V?$allocator@U?$pair@$$CBV?$CStringT@DV?$StrTraitMFC_DLL@DV?$ChTraitsCRT@D@ATL@@@@@ATL@@PAVCSkinButton@@@std@@@5@$0A@@std@@@std@@QAE?AViterator@12@V312@@Z
_TEXT	SEGMENT PARA USE32 PUBLIC 'CODE'
_TEXT	ENDS
;	COMDAT ?clear@?$_Tree@V?$_Tmap_traits@V?$CStringT@DV?$StrTraitMFC_DLL@DV?$ChTraitsCRT@D@ATL@@@@@ATL@@PAVCSkinButton@@U?$less@V?$CStringT@DV?$StrTraitMFC_DLL@DV?$ChTraitsCRT@D@ATL@@@@@ATL@@@std@@V?$allocator@U?$pair@$$CBV?$CStringT@DV?$StrTraitMFC_DLL@DV?$ChTraitsCRT@D@ATL@@@@@ATL@@PAVCSkinButton@@@std@@@5@$0A@@std@@@std@@QAEXXZ
_TEXT	SEGMENT PARA USE32 PUBLIC 'CODE'
_TEXT	ENDS
;	COMDAT ?find@?$_Tree@V?$_Tmap_traits@V?$CStringT@DV?$StrTraitMFC_DLL@DV?$ChTraitsCRT@D@ATL@@@@@ATL@@PAVCSkinButton@@U?$less@V?$CStringT@DV?$StrTraitMFC_DLL@DV?$ChTraitsCRT@D@ATL@@@@@ATL@@@std@@V?$allocator@U?$pair@$$CBV?$CStringT@DV?$StrTraitMFC_DLL@DV?$ChTraitsCRT@D@ATL@@@@@ATL@@PAVCSkinButton@@@std@@@5@$0A@@std@@@std@@QAE?AViterator@12@ABV?$CStringT@DV?$StrTraitMFC_DLL@DV?$ChTraitsCRT@D@ATL@@@@@ATL@@@Z
_TEXT	SEGMENT PARA USE32 PUBLIC 'CODE'
_TEXT	ENDS
;	COMDAT ??0?$pair@V?$CStringT@DV?$StrTraitMFC_DLL@DV?$ChTraitsCRT@D@ATL@@@@@ATL@@PAVCSkinButton@@@std@@QAE@XZ
_TEXT	SEGMENT PARA USE32 PUBLIC 'CODE'
_TEXT	ENDS
;	COMDAT ??0iterator@?$_Tree@V?$_Tmap_traits@V?$CStringT@DV?$StrTraitMFC_DLL@DV?$ChTraitsCRT@D@ATL@@@@@ATL@@PAVCSkinButton@@U?$less@V?$CStringT@DV?$StrTraitMFC_DLL@DV?$ChTraitsCRT@D@ATL@@@@@ATL@@@std@@V?$allocator@U?$pair@$$CBV?$CStringT@DV?$StrTraitMFC_DLL@DV?$ChTraitsCRT@D@ATL@@@@@ATL@@PAVCSkinButton@@@std@@@5@$0A@@std@@@std@@QAE@XZ
_TEXT	SEGMENT PARA USE32 PUBLIC 'CODE'
_TEXT	ENDS
;	COMDAT ??Diterator@?$_Tree@V?$_Tmap_traits@V?$CStringT@DV?$StrTraitMFC_DLL@DV?$ChTraitsCRT@D@ATL@@@@@ATL@@PAVCSkinButton@@U?$less@V?$CStringT@DV?$StrTraitMFC_DLL@DV?$ChTraitsCRT@D@ATL@@@@@ATL@@@std@@V?$allocator@U?$pair@$$CBV?$CStringT@DV?$StrTraitMFC_DLL@DV?$ChTraitsCRT@D@ATL@@@@@ATL@@PAVCSkinButton@@@std@@@5@$0A@@std@@@std@@QBEAAU?$pair@$$CBV?$CStringT@DV?$StrTraitMFC_DLL@DV?$ChTraitsCRT@D@ATL@@@@@ATL@@PAVCSkinButton@@@2@XZ
_TEXT	SEGMENT PARA USE32 PUBLIC 'CODE'
_TEXT	ENDS
;	COMDAT ??8const_iterator@?$_Tree@V?$_Tmap_traits@V?$CStringT@DV?$StrTraitMFC_DLL@DV?$ChTraitsCRT@D@ATL@@@@@ATL@@PAVCSkinButton@@U?$less@V?$CStringT@DV?$StrTraitMFC_DLL@DV?$ChTraitsCRT@D@ATL@@@@@ATL@@@std@@V?$allocator@U?$pair@$$CBV?$CStringT@DV?$StrTraitMFC_DLL@DV?$ChTraitsCRT@D@ATL@@@@@ATL@@PAVCSkinButton@@@std@@@5@$0A@@std@@@std@@QBE_NABV012@@Z
_TEXT	SEGMENT PARA USE32 PUBLIC 'CODE'
_TEXT	ENDS
;	COMDAT ?_Nextnode@?$list@PAVCSkinButton@@V?$allocator@PAVCSkinButton@@@std@@@std@@KAAAPAU_Node@?$_List_nod@PAVCSkinButton@@V?$allocator@PAVCSkinButton@@@std@@@2@PAU342@@Z
_TEXT	SEGMENT PARA USE32 PUBLIC 'CODE'
_TEXT	ENDS
;	COMDAT ?_Insert@?$list@PAVCSkinButton@@V?$allocator@PAVCSkinButton@@@std@@@std@@QAEXViterator@12@ABQAVCSkinButton@@@Z
_TEXT	SEGMENT PARA USE32 PUBLIC 'CODE'
_TEXT	ENDS
;	COMDAT ?_Buynode@?$list@PAVCSkinButton@@V?$allocator@PAVCSkinButton@@@std@@@std@@IAEPAU_Node@?$_List_nod@PAVCSkinButton@@V?$allocator@PAVCSkinButton@@@std@@@2@XZ
_TEXT	SEGMENT PARA USE32 PUBLIC 'CODE'
_TEXT	ENDS
;	COMDAT ?_Tidy@?$list@PAVCSkinButton@@V?$allocator@PAVCSkinButton@@@std@@@std@@IAEXXZ
_TEXT	SEGMENT PARA USE32 PUBLIC 'CODE'
_TEXT	ENDS
;	COMDAT ??0?$_List_val@PAVCSkinButton@@V?$allocator@PAVCSkinButton@@@std@@@std@@IAE@V?$allocator@PAVCSkinButton@@@1@@Z
_TEXT	SEGMENT PARA USE32 PUBLIC 'CODE'
_TEXT	ENDS
;	COMDAT ??0?$allocator@PAVCSkinButton@@@std@@QAE@XZ
_TEXT	SEGMENT PARA USE32 PUBLIC 'CODE'
_TEXT	ENDS
;	COMDAT ??0iterator@?$list@PAVCSkinButton@@V?$allocator@PAVCSkinButton@@@std@@@std@@QAE@PAU_Node@?$_List_nod@PAVCSkinButton@@V?$allocator@PAVCSkinButton@@@std@@@2@@Z
_TEXT	SEGMENT PARA USE32 PUBLIC 'CODE'
_TEXT	ENDS
;	COMDAT ??Eiterator@?$list@PAVCSkinButton@@V?$allocator@PAVCSkinButton@@@std@@@std@@QAEAAV012@XZ
_TEXT	SEGMENT PARA USE32 PUBLIC 'CODE'
_TEXT	ENDS
;	COMDAT ??0const_iterator@?$list@PAVCSkinButton@@V?$allocator@PAVCSkinButton@@@std@@@std@@QAE@XZ
_TEXT	SEGMENT PARA USE32 PUBLIC 'CODE'
_TEXT	ENDS
;	COMDAT ??Dconst_iterator@?$list@PAVCSkinButton@@V?$allocator@PAVCSkinButton@@@std@@@std@@QBEABQAVCSkinButton@@XZ
_TEXT	SEGMENT PARA USE32 PUBLIC 'CODE'
_TEXT	ENDS
;	COMDAT ??8const_iterator@?$list@PAVCSkinButton@@V?$allocator@PAVCSkinButton@@@std@@@std@@QBE_NABV012@@Z
_TEXT	SEGMENT PARA USE32 PUBLIC 'CODE'
_TEXT	ENDS
;	COMDAT ?_Color@?$_Tree@V?$_Tmap_traits@V?$CStringT@DV?$StrTraitMFC_DLL@DV?$ChTraitsCRT@D@ATL@@@@@ATL@@PAVCSkinButton@@U?$less@V?$CStringT@DV?$StrTraitMFC_DLL@DV?$ChTraitsCRT@D@ATL@@@@@ATL@@@std@@V?$allocator@U?$pair@$$CBV?$CStringT@DV?$StrTraitMFC_DLL@DV?$ChTraitsCRT@D@ATL@@@@@ATL@@PAVCSkinButton@@@std@@@5@$0A@@std@@@std@@KAAADPAU_Node@?$_Tree_nod@V?$_Tmap_traits@V?$CStringT@DV?$StrTraitMFC_DLL@DV?$ChTraitsCRT@D@ATL@@@@@ATL@@PAVCSkinButton@@U?$less@V?$CStringT@DV?$StrTraitMFC_DLL@DV?$ChTraitsCRT@D@ATL@@@@@ATL@@@std@@V?$allocator@U?$pair@$$CBV?$CStringT@DV?$StrTraitMFC_DLL@DV?$ChTraitsCRT@D@ATL@@@@@ATL@@PAVCSkinButton@@@std@@@5@$0A@@std@@@2@@Z
_TEXT	SEGMENT PARA USE32 PUBLIC 'CODE'
_TEXT	ENDS
;	COMDAT ?_Isnil@?$_Tree@V?$_Tmap_traits@V?$CStringT@DV?$StrTraitMFC_DLL@DV?$ChTraitsCRT@D@ATL@@@@@ATL@@PAVCSkinButton@@U?$less@V?$CStringT@DV?$StrTraitMFC_DLL@DV?$ChTraitsCRT@D@ATL@@@@@ATL@@@std@@V?$allocator@U?$pair@$$CBV?$CStringT@DV?$StrTraitMFC_DLL@DV?$ChTraitsCRT@D@ATL@@@@@ATL@@PAVCSkinButton@@@std@@@5@$0A@@std@@@std@@KAAADPAU_Node@?$_Tree_nod@V?$_Tmap_traits@V?$CStringT@DV?$StrTraitMFC_DLL@DV?$ChTraitsCRT@D@ATL@@@@@ATL@@PAVCSkinButton@@U?$less@V?$CStringT@DV?$StrTraitMFC_DLL@DV?$ChTraitsCRT@D@ATL@@@@@ATL@@@std@@V?$allocator@U?$pair@$$CBV?$CStringT@DV?$StrTraitMFC_DLL@DV?$ChTraitsCRT@D@ATL@@@@@ATL@@PAVCSkinButton@@@std@@@5@$0A@@std@@@2@@Z
_TEXT	SEGMENT PARA USE32 PUBLIC 'CODE'
_TEXT	ENDS
;	COMDAT ?_Key@?$_Tree@V?$_Tmap_traits@V?$CStringT@DV?$StrTraitMFC_DLL@DV?$ChTraitsCRT@D@ATL@@@@@ATL@@PAVCSkinButton@@U?$less@V?$CStringT@DV?$StrTraitMFC_DLL@DV?$ChTraitsCRT@D@ATL@@@@@ATL@@@std@@V?$allocator@U?$pair@$$CBV?$CStringT@DV?$StrTraitMFC_DLL@DV?$ChTraitsCRT@D@ATL@@@@@ATL@@PAVCSkinButton@@@std@@@5@$0A@@std@@@std@@KAABV?$CStringT@DV?$StrTraitMFC_DLL@DV?$ChTraitsCRT@D@ATL@@@@@ATL@@PAU_Node@?$_Tree_nod@V?$_Tmap_traits@V?$CStringT@DV?$StrTraitMFC_DLL@DV?$ChTraitsCRT@D@ATL@@@@@ATL@@PAVCSkinButton@@U?$less@V?$CStringT@DV?$StrTraitMFC_DLL@DV?$ChTraitsCRT@D@ATL@@@@@ATL@@@std@@V?$allocator@U?$pair@$$CBV?$CStringT@DV?$StrTraitMFC_DLL@DV?$ChTraitsCRT@D@ATL@@@@@ATL@@PAVCSkinButton@@@std@@@5@$0A@@std@@@2@@Z
_TEXT	SEGMENT PARA USE32 PUBLIC 'CODE'
_TEXT	ENDS
;	COMDAT ?_Left@?$_Tree@V?$_Tmap_traits@V?$CStringT@DV?$StrTraitMFC_DLL@DV?$ChTraitsCRT@D@ATL@@@@@ATL@@PAVCSkinButton@@U?$less@V?$CStringT@DV?$StrTraitMFC_DLL@DV?$ChTraitsCRT@D@ATL@@@@@ATL@@@std@@V?$allocator@U?$pair@$$CBV?$CStringT@DV?$StrTraitMFC_DLL@DV?$ChTraitsCRT@D@ATL@@@@@ATL@@PAVCSkinButton@@@std@@@5@$0A@@std@@@std@@KAAAPAU_Node@?$_Tree_nod@V?$_Tmap_traits@V?$CStringT@DV?$StrTraitMFC_DLL@DV?$ChTraitsCRT@D@ATL@@@@@ATL@@PAVCSkinButton@@U?$less@V?$CStringT@DV?$StrTraitMFC_DLL@DV?$ChTraitsCRT@D@ATL@@@@@ATL@@@std@@V?$allocator@U?$pair@$$CBV?$CStringT@DV?$StrTraitMFC_DLL@DV?$ChTraitsCRT@D@ATL@@@@@ATL@@PAVCSkinButton@@@std@@@5@$0A@@std@@@2@PAU342@@Z
_TEXT	SEGMENT PARA USE32 PUBLIC 'CODE'
_TEXT	ENDS
;	COMDAT ?_Parent@?$_Tree@V?$_Tmap_traits@V?$CStringT@DV?$StrTraitMFC_DLL@DV?$ChTraitsCRT@D@ATL@@@@@ATL@@PAVCSkinButton@@U?$less@V?$CStringT@DV?$StrTraitMFC_DLL@DV?$ChTraitsCRT@D@ATL@@@@@ATL@@@std@@V?$allocator@U?$pair@$$CBV?$CStringT@DV?$StrTraitMFC_DLL@DV?$ChTraitsCRT@D@ATL@@@@@ATL@@PAVCSkinButton@@@std@@@5@$0A@@std@@@std@@KAAAPAU_Node@?$_Tree_nod@V?$_Tmap_traits@V?$CStringT@DV?$StrTraitMFC_DLL@DV?$ChTraitsCRT@D@ATL@@@@@ATL@@PAVCSkinButton@@U?$less@V?$CStringT@DV?$StrTraitMFC_DLL@DV?$ChTraitsCRT@D@ATL@@@@@ATL@@@std@@V?$allocator@U?$pair@$$CBV?$CStringT@DV?$StrTraitMFC_DLL@DV?$ChTraitsCRT@D@ATL@@@@@ATL@@PAVCSkinButton@@@std@@@5@$0A@@std@@@2@PAU342@@Z
_TEXT	SEGMENT PARA USE32 PUBLIC 'CODE'
_TEXT	ENDS
;	COMDAT ?_Right@?$_Tree@V?$_Tmap_traits@V?$CStringT@DV?$StrTraitMFC_DLL@DV?$ChTraitsCRT@D@ATL@@@@@ATL@@PAVCSkinButton@@U?$less@V?$CStringT@DV?$StrTraitMFC_DLL@DV?$ChTraitsCRT@D@ATL@@@@@ATL@@@std@@V?$allocator@U?$pair@$$CBV?$CStringT@DV?$StrTraitMFC_DLL@DV?$ChTraitsCRT@D@ATL@@@@@ATL@@PAVCSkinButton@@@std@@@5@$0A@@std@@@std@@KAAAPAU_Node@?$_Tree_nod@V?$_Tmap_traits@V?$CStringT@DV?$StrTraitMFC_DLL@DV?$ChTraitsCRT@D@ATL@@@@@ATL@@PAVCSkinButton@@U?$less@V?$CStringT@DV?$StrTraitMFC_DLL@DV?$ChTraitsCRT@D@ATL@@@@@ATL@@@std@@V?$allocator@U?$pair@$$CBV?$CStringT@DV?$StrTraitMFC_DLL@DV?$ChTraitsCRT@D@ATL@@@@@ATL@@PAVCSkinButton@@@std@@@5@$0A@@std@@@2@PAU342@@Z
_TEXT	SEGMENT PARA USE32 PUBLIC 'CODE'
_TEXT	ENDS
;	COMDAT ??0?$_Tree@V?$_Tmap_traits@V?$CStringT@DV?$StrTraitMFC_DLL@DV?$ChTraitsCRT@D@ATL@@@@@ATL@@PAVCSkinButton@@U?$less@V?$CStringT@DV?$StrTraitMFC_DLL@DV?$ChTraitsCRT@D@ATL@@@@@ATL@@@std@@V?$allocator@U?$pair@$$CBV?$CStringT@DV?$StrTraitMFC_DLL@DV?$ChTraitsCRT@D@ATL@@@@@ATL@@PAVCSkinButton@@@std@@@5@$0A@@std@@@std@@QAE@ABU?$less@V?$CStringT@DV?$StrTraitMFC_DLL@DV?$ChTraitsCRT@D@ATL@@@@@ATL@@@1@ABV?$allocator@U?$pair@$$CBV?$CStringT@DV?$StrTraitMFC_DLL@DV?$ChTraitsCRT@D@ATL@@@@@ATL@@PAVCSkinButton@@@std@@@1@@Z
_TEXT	SEGMENT PARA USE32 PUBLIC 'CODE'
_TEXT	ENDS
;	COMDAT ?begin@?$_Tree@V?$_Tmap_traits@V?$CStringT@DV?$StrTraitMFC_DLL@DV?$ChTraitsCRT@D@ATL@@@@@ATL@@PAVCSkinButton@@U?$less@V?$CStringT@DV?$StrTraitMFC_DLL@DV?$ChTraitsCRT@D@ATL@@@@@ATL@@@std@@V?$allocator@U?$pair@$$CBV?$CStringT@DV?$StrTraitMFC_DLL@DV?$ChTraitsCRT@D@ATL@@@@@ATL@@PAVCSkinButton@@@std@@@5@$0A@@std@@@std@@QAE?AViterator@12@XZ
_TEXT	SEGMENT PARA USE32 PUBLIC 'CODE'
_TEXT	ENDS
;	COMDAT ?lower_bound@?$_Tree@V?$_Tmap_traits@V?$CStringT@DV?$StrTraitMFC_DLL@DV?$ChTraitsCRT@D@ATL@@@@@ATL@@PAVCSkinButton@@U?$less@V?$CStringT@DV?$StrTraitMFC_DLL@DV?$ChTraitsCRT@D@ATL@@@@@ATL@@@std@@V?$allocator@U?$pair@$$CBV?$CStringT@DV?$StrTraitMFC_DLL@DV?$ChTraitsCRT@D@ATL@@@@@ATL@@PAVCSkinButton@@@std@@@5@$0A@@std@@@std@@QAE?AViterator@12@ABV?$CStringT@DV?$StrTraitMFC_DLL@DV?$ChTraitsCRT@D@ATL@@@@@ATL@@@Z
_TEXT	SEGMENT PARA USE32 PUBLIC 'CODE'
_TEXT	ENDS
;	COMDAT ?_Erase@?$_Tree@V?$_Tmap_traits@V?$CStringT@DV?$StrTraitMFC_DLL@DV?$ChTraitsCRT@D@ATL@@@@@ATL@@PAVCSkinButton@@U?$less@V?$CStringT@DV?$StrTraitMFC_DLL@DV?$ChTraitsCRT@D@ATL@@@@@ATL@@@std@@V?$allocator@U?$pair@$$CBV?$CStringT@DV?$StrTraitMFC_DLL@DV?$ChTraitsCRT@D@ATL@@@@@ATL@@PAVCSkinButton@@@std@@@5@$0A@@std@@@std@@IAEXPAU_Node@?$_Tree_nod@V?$_Tmap_traits@V?$CStringT@DV?$StrTraitMFC_DLL@DV?$ChTraitsCRT@D@ATL@@@@@ATL@@PAVCSkinButton@@U?$less@V?$CStringT@DV?$StrTraitMFC_DLL@DV?$ChTraitsCRT@D@ATL@@@@@ATL@@@std@@V?$allocator@U?$pair@$$CBV?$CStringT@DV?$StrTraitMFC_DLL@DV?$ChTraitsCRT@D@ATL@@@@@ATL@@PAVCSkinButton@@@std@@@5@$0A@@std@@@2@@Z
_TEXT	SEGMENT PARA USE32 PUBLIC 'CODE'
_TEXT	ENDS
;	COMDAT ?_Insert@?$_Tree@V?$_Tmap_traits@V?$CStringT@DV?$StrTraitMFC_DLL@DV?$ChTraitsCRT@D@ATL@@@@@ATL@@PAVCSkinButton@@U?$less@V?$CStringT@DV?$StrTraitMFC_DLL@DV?$ChTraitsCRT@D@ATL@@@@@ATL@@@std@@V?$allocator@U?$pair@$$CBV?$CStringT@DV?$StrTraitMFC_DLL@DV?$ChTraitsCRT@D@ATL@@@@@ATL@@PAVCSkinButton@@@std@@@5@$0A@@std@@@std@@IAE?AViterator@12@_NPAU_Node@?$_Tree_nod@V?$_Tmap_traits@V?$CStringT@DV?$StrTraitMFC_DLL@DV?$ChTraitsCRT@D@ATL@@@@@ATL@@PAVCSkinButton@@U?$less@V?$CStringT@DV?$StrTraitMFC_DLL@DV?$ChTraitsCRT@D@ATL@@@@@ATL@@@std@@V?$allocator@U?$pair@$$CBV?$CStringT@DV?$StrTraitMFC_DLL@DV?$ChTraitsCRT@D@ATL@@@@@ATL@@PAVCSkinButton@@@std@@@5@$0A@@std@@@2@ABU?$pair@$$CBV?$CStringT@DV?$StrTraitMFC_DLL@DV?$ChTraitsCRT@D@ATL@@@@@ATL@@PAVCSkinButton@@@2@@Z
_TEXT	SEGMENT PARA USE32 PUBLIC 'CODE'
_TEXT	ENDS
;	COMDAT ?_Lmost@?$_Tree@V?$_Tmap_traits@V?$CStringT@DV?$StrTraitMFC_DLL@DV?$ChTraitsCRT@D@ATL@@@@@ATL@@PAVCSkinButton@@U?$less@V?$CStringT@DV?$StrTraitMFC_DLL@DV?$ChTraitsCRT@D@ATL@@@@@ATL@@@std@@V?$allocator@U?$pair@$$CBV?$CStringT@DV?$StrTraitMFC_DLL@DV?$ChTraitsCRT@D@ATL@@@@@ATL@@PAVCSkinButton@@@std@@@5@$0A@@std@@@std@@IAEAAPAU_Node@?$_Tree_nod@V?$_Tmap_traits@V?$CStringT@DV?$StrTraitMFC_DLL@DV?$ChTraitsCRT@D@ATL@@@@@ATL@@PAVCSkinButton@@U?$less@V?$CStringT@DV?$StrTraitMFC_DLL@DV?$ChTraitsCRT@D@ATL@@@@@ATL@@@std@@V?$allocator@U?$pair@$$CBV?$CStringT@DV?$StrTraitMFC_DLL@DV?$ChTraitsCRT@D@ATL@@@@@ATL@@PAVCSkinButton@@@std@@@5@$0A@@std@@@2@XZ
_TEXT	SEGMENT PARA USE32 PUBLIC 'CODE'
_TEXT	ENDS
;	COMDAT ?_Lrotate@?$_Tree@V?$_Tmap_traits@V?$CStringT@DV?$StrTraitMFC_DLL@DV?$ChTraitsCRT@D@ATL@@@@@ATL@@PAVCSkinButton@@U?$less@V?$CStringT@DV?$StrTraitMFC_DLL@DV?$ChTraitsCRT@D@ATL@@@@@ATL@@@std@@V?$allocator@U?$pair@$$CBV?$CStringT@DV?$StrTraitMFC_DLL@DV?$ChTraitsCRT@D@ATL@@@@@ATL@@PAVCSkinButton@@@std@@@5@$0A@@std@@@std@@IAEXPAU_Node@?$_Tree_nod@V?$_Tmap_traits@V?$CStringT@DV?$StrTraitMFC_DLL@DV?$ChTraitsCRT@D@ATL@@@@@ATL@@PAVCSkinButton@@U?$less@V?$CStringT@DV?$StrTraitMFC_DLL@DV?$ChTraitsCRT@D@ATL@@@@@ATL@@@std@@V?$allocator@U?$pair@$$CBV?$CStringT@DV?$StrTraitMFC_DLL@DV?$ChTraitsCRT@D@ATL@@@@@ATL@@PAVCSkinButton@@@std@@@5@$0A@@std@@@2@@Z
_TEXT	SEGMENT PARA USE32 PUBLIC 'CODE'
_TEXT	ENDS
;	COMDAT ?_Max@?$_Tree@V?$_Tmap_traits@V?$CStringT@DV?$StrTraitMFC_DLL@DV?$ChTraitsCRT@D@ATL@@@@@ATL@@PAVCSkinButton@@U?$less@V?$CStringT@DV?$StrTraitMFC_DLL@DV?$ChTraitsCRT@D@ATL@@@@@ATL@@@std@@V?$allocator@U?$pair@$$CBV?$CStringT@DV?$StrTraitMFC_DLL@DV?$ChTraitsCRT@D@ATL@@@@@ATL@@PAVCSkinButton@@@std@@@5@$0A@@std@@@std@@KAPAU_Node@?$_Tree_nod@V?$_Tmap_traits@V?$CStringT@DV?$StrTraitMFC_DLL@DV?$ChTraitsCRT@D@ATL@@@@@ATL@@PAVCSkinButton@@U?$less@V?$CStringT@DV?$StrTraitMFC_DLL@DV?$ChTraitsCRT@D@ATL@@@@@ATL@@@std@@V?$allocator@U?$pair@$$CBV?$CStringT@DV?$StrTraitMFC_DLL@DV?$ChTraitsCRT@D@ATL@@@@@ATL@@PAVCSkinButton@@@std@@@5@$0A@@std@@@2@PAU342@@Z
_TEXT	SEGMENT PARA USE32 PUBLIC 'CODE'
_TEXT	ENDS
;	COMDAT ?_Min@?$_Tree@V?$_Tmap_traits@V?$CStringT@DV?$StrTraitMFC_DLL@DV?$ChTraitsCRT@D@ATL@@@@@ATL@@PAVCSkinButton@@U?$less@V?$CStringT@DV?$StrTraitMFC_DLL@DV?$ChTraitsCRT@D@ATL@@@@@ATL@@@std@@V?$allocator@U?$pair@$$CBV?$CStringT@DV?$StrTraitMFC_DLL@DV?$ChTraitsCRT@D@ATL@@@@@ATL@@PAVCSkinButton@@@std@@@5@$0A@@std@@@std@@KAPAU_Node@?$_Tree_nod@V?$_Tmap_traits@V?$CStringT@DV?$StrTraitMFC_DLL@DV?$ChTraitsCRT@D@ATL@@@@@ATL@@PAVCSkinButton@@U?$less@V?$CStringT@DV?$StrTraitMFC_DLL@DV?$ChTraitsCRT@D@ATL@@@@@ATL@@@std@@V?$allocator@U?$pair@$$CBV?$CStringT@DV?$StrTraitMFC_DLL@DV?$ChTraitsCRT@D@ATL@@@@@ATL@@PAVCSkinButton@@@std@@@5@$0A@@std@@@2@PAU342@@Z
_TEXT	SEGMENT PARA USE32 PUBLIC 'CODE'
_TEXT	ENDS
;	COMDAT ?_Rmost@?$_Tree@V?$_Tmap_traits@V?$CStringT@DV?$StrTraitMFC_DLL@DV?$ChTraitsCRT@D@ATL@@@@@ATL@@PAVCSkinButton@@U?$less@V?$CStringT@DV?$StrTraitMFC_DLL@DV?$ChTraitsCRT@D@ATL@@@@@ATL@@@std@@V?$allocator@U?$pair@$$CBV?$CStringT@DV?$StrTraitMFC_DLL@DV?$ChTraitsCRT@D@ATL@@@@@ATL@@PAVCSkinButton@@@std@@@5@$0A@@std@@@std@@IAEAAPAU_Node@?$_Tree_nod@V?$_Tmap_traits@V?$CStringT@DV?$StrTraitMFC_DLL@DV?$ChTraitsCRT@D@ATL@@@@@ATL@@PAVCSkinButton@@U?$less@V?$CStringT@DV?$StrTraitMFC_DLL@DV?$ChTraitsCRT@D@ATL@@@@@ATL@@@std@@V?$allocator@U?$pair@$$CBV?$CStringT@DV?$StrTraitMFC_DLL@DV?$ChTraitsCRT@D@ATL@@@@@ATL@@PAVCSkinButton@@@std@@@5@$0A@@std@@@2@XZ
_TEXT	SEGMENT PARA USE32 PUBLIC 'CODE'
_TEXT	ENDS
;	COMDAT ?_Root@?$_Tree@V?$_Tmap_traits@V?$CStringT@DV?$StrTraitMFC_DLL@DV?$ChTraitsCRT@D@ATL@@@@@ATL@@PAVCSkinButton@@U?$less@V?$CStringT@DV?$StrTraitMFC_DLL@DV?$ChTraitsCRT@D@ATL@@@@@ATL@@@std@@V?$allocator@U?$pair@$$CBV?$CStringT@DV?$StrTraitMFC_DLL@DV?$ChTraitsCRT@D@ATL@@@@@ATL@@PAVCSkinButton@@@std@@@5@$0A@@std@@@std@@IAEAAPAU_Node@?$_Tree_nod@V?$_Tmap_traits@V?$CStringT@DV?$StrTraitMFC_DLL@DV?$ChTraitsCRT@D@ATL@@@@@ATL@@PAVCSkinButton@@U?$less@V?$CStringT@DV?$StrTraitMFC_DLL@DV?$ChTraitsCRT@D@ATL@@@@@ATL@@@std@@V?$allocator@U?$pair@$$CBV?$CStringT@DV?$StrTraitMFC_DLL@DV?$ChTraitsCRT@D@ATL@@@@@ATL@@PAVCSkinButton@@@std@@@5@$0A@@std@@@2@XZ
_TEXT	SEGMENT PARA USE32 PUBLIC 'CODE'
_TEXT	ENDS
;	COMDAT ?_Rrotate@?$_Tree@V?$_Tmap_traits@V?$CStringT@DV?$StrTraitMFC_DLL@DV?$ChTraitsCRT@D@ATL@@@@@ATL@@PAVCSkinButton@@U?$less@V?$CStringT@DV?$StrTraitMFC_DLL@DV?$ChTraitsCRT@D@ATL@@@@@ATL@@@std@@V?$allocator@U?$pair@$$CBV?$CStringT@DV?$StrTraitMFC_DLL@DV?$ChTraitsCRT@D@ATL@@@@@ATL@@PAVCSkinButton@@@std@@@5@$0A@@std@@@std@@IAEXPAU_Node@?$_Tree_nod@V?$_Tmap_traits@V?$CStringT@DV?$StrTraitMFC_DLL@DV?$ChTraitsCRT@D@ATL@@@@@ATL@@PAVCSkinButton@@U?$less@V?$CStringT@DV?$StrTraitMFC_DLL@DV?$ChTraitsCRT@D@ATL@@@@@ATL@@@std@@V?$allocator@U?$pair@$$CBV?$CStringT@DV?$StrTraitMFC_DLL@DV?$ChTraitsCRT@D@ATL@@@@@ATL@@PAVCSkinButton@@@std@@@5@$0A@@std@@@2@@Z
_TEXT	SEGMENT PARA USE32 PUBLIC 'CODE'
_TEXT	ENDS
;	COMDAT ?_Tidy@?$_Tree@V?$_Tmap_traits@V?$CStringT@DV?$StrTraitMFC_DLL@DV?$ChTraitsCRT@D@ATL@@@@@ATL@@PAVCSkinButton@@U?$less@V?$CStringT@DV?$StrTraitMFC_DLL@DV?$ChTraitsCRT@D@ATL@@@@@ATL@@@std@@V?$allocator@U?$pair@$$CBV?$CStringT@DV?$StrTraitMFC_DLL@DV?$ChTraitsCRT@D@ATL@@@@@ATL@@PAVCSkinButton@@@std@@@5@$0A@@std@@@std@@IAEXXZ
_TEXT	SEGMENT PARA USE32 PUBLIC 'CODE'
_TEXT	ENDS
;	COMDAT ?_Kfn@?$_Tmap_traits@V?$CStringT@DV?$StrTraitMFC_DLL@DV?$ChTraitsCRT@D@ATL@@@@@ATL@@PAVCSkinButton@@U?$less@V?$CStringT@DV?$StrTraitMFC_DLL@DV?$ChTraitsCRT@D@ATL@@@@@ATL@@@std@@V?$allocator@U?$pair@$$CBV?$CStringT@DV?$StrTraitMFC_DLL@DV?$ChTraitsCRT@D@ATL@@@@@ATL@@PAVCSkinButton@@@std@@@5@$0A@@std@@SAABV?$CStringT@DV?$StrTraitMFC_DLL@DV?$ChTraitsCRT@D@ATL@@@@@ATL@@ABU?$pair@$$CBV?$CStringT@DV?$StrTraitMFC_DLL@DV?$ChTraitsCRT@D@ATL@@@@@ATL@@PAVCSkinButton@@@2@@Z
_TEXT	SEGMENT PARA USE32 PUBLIC 'CODE'
_TEXT	ENDS
;	COMDAT ??0?$allocator@U?$pair@$$CBV?$CStringT@DV?$StrTraitMFC_DLL@DV?$ChTraitsCRT@D@ATL@@@@@ATL@@PAVCSkinButton@@@std@@@std@@QAE@XZ
_TEXT	SEGMENT PARA USE32 PUBLIC 'CODE'
_TEXT	ENDS
;	COMDAT ??R?$less@V?$CStringT@DV?$StrTraitMFC_DLL@DV?$ChTraitsCRT@D@ATL@@@@@ATL@@@std@@QBE_NABV?$CStringT@DV?$StrTraitMFC_DLL@DV?$ChTraitsCRT@D@ATL@@@@@ATL@@0@Z
_TEXT	SEGMENT PARA USE32 PUBLIC 'CODE'
_TEXT	ENDS
;	COMDAT ?deallocate@?$allocator@U_Node@?$_Tree_nod@V?$_Tmap_traits@V?$CStringT@DV?$StrTraitMFC_DLL@DV?$ChTraitsCRT@D@ATL@@@@@ATL@@PAVCSkinButton@@U?$less@V?$CStringT@DV?$StrTraitMFC_DLL@DV?$ChTraitsCRT@D@ATL@@@@@ATL@@@std@@V?$allocator@U?$pair@$$CBV?$CStringT@DV?$StrTraitMFC_DLL@DV?$ChTraitsCRT@D@ATL@@@@@ATL@@PAVCSkinButton@@@std@@@5@$0A@@std@@@std@@@std@@QAEXPAU_Node@?$_Tree_nod@V?$_Tmap_traits@V?$CStringT@DV?$StrTraitMFC_DLL@DV?$ChTraitsCRT@D@ATL@@@@@ATL@@PAVCSkinButton@@U?$less@V?$CStringT@DV?$StrTraitMFC_DLL@DV?$ChTraitsCRT@D@ATL@@@@@ATL@@@std@@V?$allocator@U?$pair@$$CBV?$CStringT@DV?$StrTraitMFC_DLL@DV?$ChTraitsCRT@D@ATL@@@@@ATL@@PAVCSkinButton@@@std@@@5@$0A@@std@@@2@I@Z
_TEXT	SEGMENT PARA USE32 PUBLIC 'CODE'
_TEXT	ENDS
;	COMDAT ?destroy@?$allocator@U_Node@?$_Tree_nod@V?$_Tmap_traits@V?$CStringT@DV?$StrTraitMFC_DLL@DV?$ChTraitsCRT@D@ATL@@@@@ATL@@PAVCSkinButton@@U?$less@V?$CStringT@DV?$StrTraitMFC_DLL@DV?$ChTraitsCRT@D@ATL@@@@@ATL@@@std@@V?$allocator@U?$pair@$$CBV?$CStringT@DV?$StrTraitMFC_DLL@DV?$ChTraitsCRT@D@ATL@@@@@ATL@@PAVCSkinButton@@@std@@@5@$0A@@std@@@std@@@std@@QAEXPAU_Node@?$_Tree_nod@V?$_Tmap_traits@V?$CStringT@DV?$StrTraitMFC_DLL@DV?$ChTraitsCRT@D@ATL@@@@@ATL@@PAVCSkinButton@@U?$less@V?$CStringT@DV?$StrTraitMFC_DLL@DV?$ChTraitsCRT@D@ATL@@@@@ATL@@@std@@V?$allocator@U?$pair@$$CBV?$CStringT@DV?$StrTraitMFC_DLL@DV?$ChTraitsCRT@D@ATL@@@@@ATL@@PAVCSkinButton@@@std@@@5@$0A@@std@@@2@@Z
_TEXT	SEGMENT PARA USE32 PUBLIC 'CODE'
_TEXT	ENDS
;	COMDAT ??0?$pair@Viterator@?$_Tree@V?$_Tmap_traits@V?$CStringT@DV?$StrTraitMFC_DLL@DV?$ChTraitsCRT@D@ATL@@@@@ATL@@PAVCSkinButton@@U?$less@V?$CStringT@DV?$StrTraitMFC_DLL@DV?$ChTraitsCRT@D@ATL@@@@@ATL@@@std@@V?$allocator@U?$pair@$$CBV?$CStringT@DV?$StrTraitMFC_DLL@DV?$ChTraitsCRT@D@ATL@@@@@ATL@@PAVCSkinButton@@@std@@@5@$0A@@std@@@std@@_N@std@@QAE@ABViterator@?$_Tree@V?$_Tmap_traits@V?$CStringT@DV?$StrTraitMFC_DLL@DV?$ChTraitsCRT@D@ATL@@@@@ATL@@PAVCSkinButton@@U?$less@V?$CStringT@DV?$StrTraitMFC_DLL@DV?$ChTraitsCRT@D@ATL@@@@@ATL@@@std@@V?$allocator@U?$pair@$$CBV?$CStringT@DV?$StrTraitMFC_DLL@DV?$ChTraitsCRT@D@ATL@@@@@ATL@@PAVCSkinButton@@@std@@@5@$0A@@std@@@1@AB_N@Z
_TEXT	SEGMENT PARA USE32 PUBLIC 'CODE'
_TEXT	ENDS
;	COMDAT ??0iterator@?$_Tree@V?$_Tmap_traits@V?$CStringT@DV?$StrTraitMFC_DLL@DV?$ChTraitsCRT@D@ATL@@@@@ATL@@PAVCSkinButton@@U?$less@V?$CStringT@DV?$StrTraitMFC_DLL@DV?$ChTraitsCRT@D@ATL@@@@@ATL@@@std@@V?$allocator@U?$pair@$$CBV?$CStringT@DV?$StrTraitMFC_DLL@DV?$ChTraitsCRT@D@ATL@@@@@ATL@@PAVCSkinButton@@@std@@@5@$0A@@std@@@std@@QAE@PAU_Node@?$_Tree_nod@V?$_Tmap_traits@V?$CStringT@DV?$StrTraitMFC_DLL@DV?$ChTraitsCRT@D@ATL@@@@@ATL@@PAVCSkinButton@@U?$less@V?$CStringT@DV?$StrTraitMFC_DLL@DV?$ChTraitsCRT@D@ATL@@@@@ATL@@@std@@V?$allocator@U?$pair@$$CBV?$CStringT@DV?$StrTraitMFC_DLL@DV?$ChTraitsCRT@D@ATL@@@@@ATL@@PAVCSkinButton@@@std@@@5@$0A@@std@@@2@@Z
_TEXT	SEGMENT PARA USE32 PUBLIC 'CODE'
_TEXT	ENDS
;	COMDAT ??Eiterator@?$_Tree@V?$_Tmap_traits@V?$CStringT@DV?$StrTraitMFC_DLL@DV?$ChTraitsCRT@D@ATL@@@@@ATL@@PAVCSkinButton@@U?$less@V?$CStringT@DV?$StrTraitMFC_DLL@DV?$ChTraitsCRT@D@ATL@@@@@ATL@@@std@@V?$allocator@U?$pair@$$CBV?$CStringT@DV?$StrTraitMFC_DLL@DV?$ChTraitsCRT@D@ATL@@@@@ATL@@PAVCSkinButton@@@std@@@5@$0A@@std@@@std@@QAEAAV012@XZ
_TEXT	SEGMENT PARA USE32 PUBLIC 'CODE'
_TEXT	ENDS
;	COMDAT ??Fiterator@?$_Tree@V?$_Tmap_traits@V?$CStringT@DV?$StrTraitMFC_DLL@DV?$ChTraitsCRT@D@ATL@@@@@ATL@@PAVCSkinButton@@U?$less@V?$CStringT@DV?$StrTraitMFC_DLL@DV?$ChTraitsCRT@D@ATL@@@@@ATL@@@std@@V?$allocator@U?$pair@$$CBV?$CStringT@DV?$StrTraitMFC_DLL@DV?$ChTraitsCRT@D@ATL@@@@@ATL@@PAVCSkinButton@@@std@@@5@$0A@@std@@@std@@QAEAAV012@XZ
_TEXT	SEGMENT PARA USE32 PUBLIC 'CODE'
_TEXT	ENDS
;	COMDAT ??0const_iterator@?$_Tree@V?$_Tmap_traits@V?$CStringT@DV?$StrTraitMFC_DLL@DV?$ChTraitsCRT@D@ATL@@@@@ATL@@PAVCSkinButton@@U?$less@V?$CStringT@DV?$StrTraitMFC_DLL@DV?$ChTraitsCRT@D@ATL@@@@@ATL@@@std@@V?$allocator@U?$pair@$$CBV?$CStringT@DV?$StrTraitMFC_DLL@DV?$ChTraitsCRT@D@ATL@@@@@ATL@@PAVCSkinButton@@@std@@@5@$0A@@std@@@std@@QAE@XZ
_TEXT	SEGMENT PARA USE32 PUBLIC 'CODE'
_TEXT	ENDS
;	COMDAT ??Dconst_iterator@?$_Tree@V?$_Tmap_traits@V?$CStringT@DV?$StrTraitMFC_DLL@DV?$ChTraitsCRT@D@ATL@@@@@ATL@@PAVCSkinButton@@U?$less@V?$CStringT@DV?$StrTraitMFC_DLL@DV?$ChTraitsCRT@D@ATL@@@@@ATL@@@std@@V?$allocator@U?$pair@$$CBV?$CStringT@DV?$StrTraitMFC_DLL@DV?$ChTraitsCRT@D@ATL@@@@@ATL@@PAVCSkinButton@@@std@@@5@$0A@@std@@@std@@QBEABU?$pair@$$CBV?$CStringT@DV?$StrTraitMFC_DLL@DV?$ChTraitsCRT@D@ATL@@@@@ATL@@PAVCSkinButton@@@2@XZ
_TEXT	SEGMENT PARA USE32 PUBLIC 'CODE'
_TEXT	ENDS
;	COMDAT ?_Mynode@const_iterator@?$_Tree@V?$_Tmap_traits@V?$CStringT@DV?$StrTraitMFC_DLL@DV?$ChTraitsCRT@D@ATL@@@@@ATL@@PAVCSkinButton@@U?$less@V?$CStringT@DV?$StrTraitMFC_DLL@DV?$ChTraitsCRT@D@ATL@@@@@ATL@@@std@@V?$allocator@U?$pair@$$CBV?$CStringT@DV?$StrTraitMFC_DLL@DV?$ChTraitsCRT@D@ATL@@@@@ATL@@PAVCSkinButton@@@std@@@5@$0A@@std@@@std@@QBEPAU_Node@?$_Tree_nod@V?$_Tmap_traits@V?$CStringT@DV?$StrTraitMFC_DLL@DV?$ChTraitsCRT@D@ATL@@@@@ATL@@PAVCSkinButton@@U?$less@V?$CStringT@DV?$StrTraitMFC_DLL@DV?$ChTraitsCRT@D@ATL@@@@@ATL@@@std@@V?$allocator@U?$pair@$$CBV?$CStringT@DV?$StrTraitMFC_DLL@DV?$ChTraitsCRT@D@ATL@@@@@ATL@@PAVCSkinButton@@@std@@@5@$0A@@std@@@3@XZ
_TEXT	SEGMENT PARA USE32 PUBLIC 'CODE'
_TEXT	ENDS
;	COMDAT ??0length_error@std@@QAE@ABV01@@Z
_TEXT	SEGMENT PARA USE32 PUBLIC 'CODE'
_TEXT	ENDS
;	COMDAT ??MATL@@YA_NABV?$CStringT@DV?$StrTraitMFC_DLL@DV?$ChTraitsCRT@D@ATL@@@@@0@0@Z
_TEXT	SEGMENT PARA USE32 PUBLIC 'CODE'
_TEXT	ENDS
;	COMDAT ?StringCompare@?$ChTraitsCRT@D@ATL@@SAHPBD0@Z
_TEXT	SEGMENT PARA USE32 PUBLIC 'CODE'
_TEXT	ENDS
;	COMDAT ?_Prevnode@?$list@PAVCSkinButton@@V?$allocator@PAVCSkinButton@@@std@@@std@@KAAAPAU_Node@?$_List_nod@PAVCSkinButton@@V?$allocator@PAVCSkinButton@@@std@@@2@PAU342@@Z
_TEXT	SEGMENT PARA USE32 PUBLIC 'CODE'
_TEXT	ENDS
;	COMDAT ?_Myval@?$list@PAVCSkinButton@@V?$allocator@PAVCSkinButton@@@std@@@std@@KAAAPAVCSkinButton@@PAU_Node@?$_List_nod@PAVCSkinButton@@V?$allocator@PAVCSkinButton@@@std@@@2@@Z
_TEXT	SEGMENT PARA USE32 PUBLIC 'CODE'
_TEXT	ENDS
;	COMDAT ?clear@?$list@PAVCSkinButton@@V?$allocator@PAVCSkinButton@@@std@@@std@@QAEXXZ
_TEXT	SEGMENT PARA USE32 PUBLIC 'CODE'
_TEXT	ENDS
;	COMDAT ?_Buynode@?$list@PAVCSkinButton@@V?$allocator@PAVCSkinButton@@@std@@@std@@IAEPAU_Node@?$_List_nod@PAVCSkinButton@@V?$allocator@PAVCSkinButton@@@std@@@2@PAU342@0ABQAVCSkinButton@@@Z
_TEXT	SEGMENT PARA USE32 PUBLIC 'CODE'
_TEXT	ENDS
;	COMDAT ?_Incsize@?$list@PAVCSkinButton@@V?$allocator@PAVCSkinButton@@@std@@@std@@IAEXI@Z
_TEXT	SEGMENT PARA USE32 PUBLIC 'CODE'
_TEXT	ENDS
;	COMDAT ??0?$_List_ptr@PAVCSkinButton@@V?$allocator@PAVCSkinButton@@@std@@@std@@IAE@V?$allocator@PAVCSkinButton@@@1@@Z
_TEXT	SEGMENT PARA USE32 PUBLIC 'CODE'
_TEXT	ENDS
;	COMDAT ??0?$allocator@PAVCSkinButton@@@std@@QAE@ABV01@@Z
_TEXT	SEGMENT PARA USE32 PUBLIC 'CODE'
_TEXT	ENDS
;	COMDAT ?deallocate@?$allocator@U_Node@?$_List_nod@PAVCSkinButton@@V?$allocator@PAVCSkinButton@@@std@@@std@@@std@@QAEXPAU_Node@?$_List_nod@PAVCSkinButton@@V?$allocator@PAVCSkinButton@@@std@@@2@I@Z
_TEXT	SEGMENT PARA USE32 PUBLIC 'CODE'
_TEXT	ENDS
;	COMDAT ?allocate@?$allocator@U_Node@?$_List_nod@PAVCSkinButton@@V?$allocator@PAVCSkinButton@@@std@@@std@@@std@@QAEPAU_Node@?$_List_nod@PAVCSkinButton@@V?$allocator@PAVCSkinButton@@@std@@@2@I@Z
_TEXT	SEGMENT PARA USE32 PUBLIC 'CODE'
_TEXT	ENDS
;	COMDAT ?construct@?$allocator@PAU_Node@?$_List_nod@PAVCSkinButton@@V?$allocator@PAVCSkinButton@@@std@@@std@@@std@@QAEXPAPAU_Node@?$_List_nod@PAVCSkinButton@@V?$allocator@PAVCSkinButton@@@std@@@2@ABQAU342@@Z
_TEXT	SEGMENT PARA USE32 PUBLIC 'CODE'
_TEXT	ENDS
;	COMDAT ?destroy@?$allocator@PAU_Node@?$_List_nod@PAVCSkinButton@@V?$allocator@PAVCSkinButton@@@std@@@std@@@std@@QAEXPAPAU_Node@?$_List_nod@PAVCSkinButton@@V?$allocator@PAVCSkinButton@@@std@@@2@@Z
_TEXT	SEGMENT PARA USE32 PUBLIC 'CODE'
_TEXT	ENDS
;	COMDAT ??0const_iterator@?$list@PAVCSkinButton@@V?$allocator@PAVCSkinButton@@@std@@@std@@QAE@PAU_Node@?$_List_nod@PAVCSkinButton@@V?$allocator@PAVCSkinButton@@@std@@@2@@Z
_TEXT	SEGMENT PARA USE32 PUBLIC 'CODE'
_TEXT	ENDS
;	COMDAT ??Econst_iterator@?$list@PAVCSkinButton@@V?$allocator@PAVCSkinButton@@@std@@@std@@QAEAAV012@XZ
_TEXT	SEGMENT PARA USE32 PUBLIC 'CODE'
_TEXT	ENDS
;	COMDAT ?_Mynode@const_iterator@?$list@PAVCSkinButton@@V?$allocator@PAVCSkinButton@@@std@@@std@@QBEPAU_Node@?$_List_nod@PAVCSkinButton@@V?$allocator@PAVCSkinButton@@@std@@@3@XZ
_TEXT	SEGMENT PARA USE32 PUBLIC 'CODE'
_TEXT	ENDS
;	COMDAT ?_Myval@?$_Tree@V?$_Tmap_traits@V?$CStringT@DV?$StrTraitMFC_DLL@DV?$ChTraitsCRT@D@ATL@@@@@ATL@@PAVCSkinButton@@U?$less@V?$CStringT@DV?$StrTraitMFC_DLL@DV?$ChTraitsCRT@D@ATL@@@@@ATL@@@std@@V?$allocator@U?$pair@$$CBV?$CStringT@DV?$StrTraitMFC_DLL@DV?$ChTraitsCRT@D@ATL@@@@@ATL@@PAVCSkinButton@@@std@@@5@$0A@@std@@@std@@KAAAU?$pair@$$CBV?$CStringT@DV?$StrTraitMFC_DLL@DV?$ChTraitsCRT@D@ATL@@@@@ATL@@PAVCSkinButton@@@2@PAU_Node@?$_Tree_nod@V?$_Tmap_traits@V?$CStringT@DV?$StrTraitMFC_DLL@DV?$ChTraitsCRT@D@ATL@@@@@ATL@@PAVCSkinButton@@U?$less@V?$CStringT@DV?$StrTraitMFC_DLL@DV?$ChTraitsCRT@D@ATL@@@@@ATL@@@std@@V?$allocator@U?$pair@$$CBV?$CStringT@DV?$StrTraitMFC_DLL@DV?$ChTraitsCRT@D@ATL@@@@@ATL@@PAVCSkinButton@@@std@@@5@$0A@@std@@@2@@Z
_TEXT	SEGMENT PARA USE32 PUBLIC 'CODE'
_TEXT	ENDS
;	COMDAT ?max_size@?$_Tree@V?$_Tmap_traits@V?$CStringT@DV?$StrTraitMFC_DLL@DV?$ChTraitsCRT@D@ATL@@@@@ATL@@PAVCSkinButton@@U?$less@V?$CStringT@DV?$StrTraitMFC_DLL@DV?$ChTraitsCRT@D@ATL@@@@@ATL@@@std@@V?$allocator@U?$pair@$$CBV?$CStringT@DV?$StrTraitMFC_DLL@DV?$ChTraitsCRT@D@ATL@@@@@ATL@@PAVCSkinButton@@@std@@@5@$0A@@std@@@std@@QBEIXZ
_TEXT	SEGMENT PARA USE32 PUBLIC 'CODE'
_TEXT	ENDS
;	COMDAT ?erase@?$_Tree@V?$_Tmap_traits@V?$CStringT@DV?$StrTraitMFC_DLL@DV?$ChTraitsCRT@D@ATL@@@@@ATL@@PAVCSkinButton@@U?$less@V?$CStringT@DV?$StrTraitMFC_DLL@DV?$ChTraitsCRT@D@ATL@@@@@ATL@@@std@@V?$allocator@U?$pair@$$CBV?$CStringT@DV?$StrTraitMFC_DLL@DV?$ChTraitsCRT@D@ATL@@@@@ATL@@PAVCSkinButton@@@std@@@5@$0A@@std@@@std@@QAE?AViterator@12@V312@0@Z
_TEXT	SEGMENT PARA USE32 PUBLIC 'CODE'
_TEXT	ENDS
;	COMDAT ?_Init@?$_Tree@V?$_Tmap_traits@V?$CStringT@DV?$StrTraitMFC_DLL@DV?$ChTraitsCRT@D@ATL@@@@@ATL@@PAVCSkinButton@@U?$less@V?$CStringT@DV?$StrTraitMFC_DLL@DV?$ChTraitsCRT@D@ATL@@@@@ATL@@@std@@V?$allocator@U?$pair@$$CBV?$CStringT@DV?$StrTraitMFC_DLL@DV?$ChTraitsCRT@D@ATL@@@@@ATL@@PAVCSkinButton@@@std@@@5@$0A@@std@@@std@@IAEXXZ
_TEXT	SEGMENT PARA USE32 PUBLIC 'CODE'
_TEXT	ENDS
;	COMDAT ?_Lbound@?$_Tree@V?$_Tmap_traits@V?$CStringT@DV?$StrTraitMFC_DLL@DV?$ChTraitsCRT@D@ATL@@@@@ATL@@PAVCSkinButton@@U?$less@V?$CStringT@DV?$StrTraitMFC_DLL@DV?$ChTraitsCRT@D@ATL@@@@@ATL@@@std@@V?$allocator@U?$pair@$$CBV?$CStringT@DV?$StrTraitMFC_DLL@DV?$ChTraitsCRT@D@ATL@@@@@ATL@@PAVCSkinButton@@@std@@@5@$0A@@std@@@std@@IBEPAU_Node@?$_Tree_nod@V?$_Tmap_traits@V?$CStringT@DV?$StrTraitMFC_DLL@DV?$ChTraitsCRT@D@ATL@@@@@ATL@@PAVCSkinButton@@U?$less@V?$CStringT@DV?$StrTraitMFC_DLL@DV?$ChTraitsCRT@D@ATL@@@@@ATL@@@std@@V?$allocator@U?$pair@$$CBV?$CStringT@DV?$StrTraitMFC_DLL@DV?$ChTraitsCRT@D@ATL@@@@@ATL@@PAVCSkinButton@@@std@@@5@$0A@@std@@@2@ABV?$CStringT@DV?$StrTraitMFC_DLL@DV?$ChTraitsCRT@D@ATL@@@@@ATL@@@Z
_TEXT	SEGMENT PARA USE32 PUBLIC 'CODE'
_TEXT	ENDS
;	COMDAT ?_Buynode@?$_Tree@V?$_Tmap_traits@V?$CStringT@DV?$StrTraitMFC_DLL@DV?$ChTraitsCRT@D@ATL@@@@@ATL@@PAVCSkinButton@@U?$less@V?$CStringT@DV?$StrTraitMFC_DLL@DV?$ChTraitsCRT@D@ATL@@@@@ATL@@@std@@V?$allocator@U?$pair@$$CBV?$CStringT@DV?$StrTraitMFC_DLL@DV?$ChTraitsCRT@D@ATL@@@@@ATL@@PAVCSkinButton@@@std@@@5@$0A@@std@@@std@@IAEPAU_Node@?$_Tree_nod@V?$_Tmap_traits@V?$CStringT@DV?$StrTraitMFC_DLL@DV?$ChTraitsCRT@D@ATL@@@@@ATL@@PAVCSkinButton@@U?$less@V?$CStringT@DV?$StrTraitMFC_DLL@DV?$ChTraitsCRT@D@ATL@@@@@ATL@@@std@@V?$allocator@U?$pair@$$CBV?$CStringT@DV?$StrTraitMFC_DLL@DV?$ChTraitsCRT@D@ATL@@@@@ATL@@PAVCSkinButton@@@std@@@5@$0A@@std@@@2@PAU342@00ABU?$pair@$$CBV?$CStringT@DV?$StrTraitMFC_DLL@DV?$ChTraitsCRT@D@ATL@@@@@ATL@@PAVCSkinButton@@@2@D@Z
_TEXT	SEGMENT PARA USE32 PUBLIC 'CODE'
_TEXT	ENDS
;	COMDAT ??0?$_Tree_val@V?$_Tmap_traits@V?$CStringT@DV?$StrTraitMFC_DLL@DV?$ChTraitsCRT@D@ATL@@@@@ATL@@PAVCSkinButton@@U?$less@V?$CStringT@DV?$StrTraitMFC_DLL@DV?$ChTraitsCRT@D@ATL@@@@@ATL@@@std@@V?$allocator@U?$pair@$$CBV?$CStringT@DV?$StrTraitMFC_DLL@DV?$ChTraitsCRT@D@ATL@@@@@ATL@@PAVCSkinButton@@@std@@@5@$0A@@std@@@std@@IAE@ABU?$less@V?$CStringT@DV?$StrTraitMFC_DLL@DV?$ChTraitsCRT@D@ATL@@@@@ATL@@@1@V?$allocator@U?$pair@$$CBV?$CStringT@DV?$StrTraitMFC_DLL@DV?$ChTraitsCRT@D@ATL@@@@@ATL@@PAVCSkinButton@@@std@@@1@@Z
_TEXT	SEGMENT PARA USE32 PUBLIC 'CODE'
_TEXT	ENDS
;	COMDAT ??0?$allocator@U?$pair@$$CBV?$CStringT@DV?$StrTraitMFC_DLL@DV?$ChTraitsCRT@D@ATL@@@@@ATL@@PAVCSkinButton@@@std@@@std@@QAE@ABV01@@Z
_TEXT	SEGMENT PARA USE32 PUBLIC 'CODE'
_TEXT	ENDS
;	COMDAT ?destroy@?$allocator@PAU_Node@?$_Tree_nod@V?$_Tmap_traits@V?$CStringT@DV?$StrTraitMFC_DLL@DV?$ChTraitsCRT@D@ATL@@@@@ATL@@PAVCSkinButton@@U?$less@V?$CStringT@DV?$StrTraitMFC_DLL@DV?$ChTraitsCRT@D@ATL@@@@@ATL@@@std@@V?$allocator@U?$pair@$$CBV?$CStringT@DV?$StrTraitMFC_DLL@DV?$ChTraitsCRT@D@ATL@@@@@ATL@@PAVCSkinButton@@@std@@@5@$0A@@std@@@std@@@std@@QAEXPAPAU_Node@?$_Tree_nod@V?$_Tmap_traits@V?$CStringT@DV?$StrTraitMFC_DLL@DV?$ChTraitsCRT@D@ATL@@@@@ATL@@PAVCSkinButton@@U?$less@V?$CStringT@DV?$StrTraitMFC_DLL@DV?$ChTraitsCRT@D@ATL@@@@@ATL@@@std@@V?$allocator@U?$pair@$$CBV?$CStringT@DV?$StrTraitMFC_DLL@DV?$ChTraitsCRT@D@ATL@@@@@ATL@@PAVCSkinButton@@@std@@@5@$0A@@std@@@2@@Z
_TEXT	SEGMENT PARA USE32 PUBLIC 'CODE'
_TEXT	ENDS
;	COMDAT ??0const_iterator@?$_Tree@V?$_Tmap_traits@V?$CStringT@DV?$StrTraitMFC_DLL@DV?$ChTraitsCRT@D@ATL@@@@@ATL@@PAVCSkinButton@@U?$less@V?$CStringT@DV?$StrTraitMFC_DLL@DV?$ChTraitsCRT@D@ATL@@@@@ATL@@@std@@V?$allocator@U?$pair@$$CBV?$CStringT@DV?$StrTraitMFC_DLL@DV?$ChTraitsCRT@D@ATL@@@@@ATL@@PAVCSkinButton@@@std@@@5@$0A@@std@@@std@@QAE@PAU_Node@?$_Tree_nod@V?$_Tmap_traits@V?$CStringT@DV?$StrTraitMFC_DLL@DV?$ChTraitsCRT@D@ATL@@@@@ATL@@PAVCSkinButton@@U?$less@V?$CStringT@DV?$StrTraitMFC_DLL@DV?$ChTraitsCRT@D@ATL@@@@@ATL@@@std@@V?$allocator@U?$pair@$$CBV?$CStringT@DV?$StrTraitMFC_DLL@DV?$ChTraitsCRT@D@ATL@@@@@ATL@@PAVCSkinButton@@@std@@@5@$0A@@std@@@2@@Z
_TEXT	SEGMENT PARA USE32 PUBLIC 'CODE'
_TEXT	ENDS
;	COMDAT ??Econst_iterator@?$_Tree@V?$_Tmap_traits@V?$CStringT@DV?$StrTraitMFC_DLL@DV?$ChTraitsCRT@D@ATL@@@@@ATL@@PAVCSkinButton@@U?$less@V?$CStringT@DV?$StrTraitMFC_DLL@DV?$ChTraitsCRT@D@ATL@@@@@ATL@@@std@@V?$allocator@U?$pair@$$CBV?$CStringT@DV?$StrTraitMFC_DLL@DV?$ChTraitsCRT@D@ATL@@@@@ATL@@PAVCSkinButton@@@std@@@5@$0A@@std@@@std@@QAEAAV012@XZ
_TEXT	SEGMENT PARA USE32 PUBLIC 'CODE'
_TEXT	ENDS
;	COMDAT ??Fconst_iterator@?$_Tree@V?$_Tmap_traits@V?$CStringT@DV?$StrTraitMFC_DLL@DV?$ChTraitsCRT@D@ATL@@@@@ATL@@PAVCSkinButton@@U?$less@V?$CStringT@DV?$StrTraitMFC_DLL@DV?$ChTraitsCRT@D@ATL@@@@@ATL@@@std@@V?$allocator@U?$pair@$$CBV?$CStringT@DV?$StrTraitMFC_DLL@DV?$ChTraitsCRT@D@ATL@@@@@ATL@@PAVCSkinButton@@@std@@@5@$0A@@std@@@std@@QAEAAV012@XZ
_TEXT	SEGMENT PARA USE32 PUBLIC 'CODE'
_TEXT	ENDS
;	COMDAT ?max_size@?$list@PAVCSkinButton@@V?$allocator@PAVCSkinButton@@@std@@@std@@QBEIXZ
_TEXT	SEGMENT PARA USE32 PUBLIC 'CODE'
_TEXT	ENDS
;	COMDAT ??0?$_List_nod@PAVCSkinButton@@V?$allocator@PAVCSkinButton@@@std@@@std@@IAE@V?$allocator@PAVCSkinButton@@@1@@Z
_TEXT	SEGMENT PARA USE32 PUBLIC 'CODE'
_TEXT	ENDS
;	COMDAT ?destroy@?$allocator@U_Node@?$_List_nod@PAVCSkinButton@@V?$allocator@PAVCSkinButton@@@std@@@std@@@std@@QAEXPAU_Node@?$_List_nod@PAVCSkinButton@@V?$allocator@PAVCSkinButton@@@std@@@2@@Z
_TEXT	SEGMENT PARA USE32 PUBLIC 'CODE'
_TEXT	ENDS
;	COMDAT ?_Root@?$_Tree@V?$_Tmap_traits@V?$CStringT@DV?$StrTraitMFC_DLL@DV?$ChTraitsCRT@D@ATL@@@@@ATL@@PAVCSkinButton@@U?$less@V?$CStringT@DV?$StrTraitMFC_DLL@DV?$ChTraitsCRT@D@ATL@@@@@ATL@@@std@@V?$allocator@U?$pair@$$CBV?$CStringT@DV?$StrTraitMFC_DLL@DV?$ChTraitsCRT@D@ATL@@@@@ATL@@PAVCSkinButton@@@std@@@5@$0A@@std@@@std@@IBEAAPAU_Node@?$_Tree_nod@V?$_Tmap_traits@V?$CStringT@DV?$StrTraitMFC_DLL@DV?$ChTraitsCRT@D@ATL@@@@@ATL@@PAVCSkinButton@@U?$less@V?$CStringT@DV?$StrTraitMFC_DLL@DV?$ChTraitsCRT@D@ATL@@@@@ATL@@@std@@V?$allocator@U?$pair@$$CBV?$CStringT@DV?$StrTraitMFC_DLL@DV?$ChTraitsCRT@D@ATL@@@@@ATL@@PAVCSkinButton@@@std@@@5@$0A@@std@@@2@XZ
_TEXT	SEGMENT PARA USE32 PUBLIC 'CODE'
_TEXT	ENDS
;	COMDAT ?_Buynode@?$_Tree@V?$_Tmap_traits@V?$CStringT@DV?$StrTraitMFC_DLL@DV?$ChTraitsCRT@D@ATL@@@@@ATL@@PAVCSkinButton@@U?$less@V?$CStringT@DV?$StrTraitMFC_DLL@DV?$ChTraitsCRT@D@ATL@@@@@ATL@@@std@@V?$allocator@U?$pair@$$CBV?$CStringT@DV?$StrTraitMFC_DLL@DV?$ChTraitsCRT@D@ATL@@@@@ATL@@PAVCSkinButton@@@std@@@5@$0A@@std@@@std@@IAEPAU_Node@?$_Tree_nod@V?$_Tmap_traits@V?$CStringT@DV?$StrTraitMFC_DLL@DV?$ChTraitsCRT@D@ATL@@@@@ATL@@PAVCSkinButton@@U?$less@V?$CStringT@DV?$StrTraitMFC_DLL@DV?$ChTraitsCRT@D@ATL@@@@@ATL@@@std@@V?$allocator@U?$pair@$$CBV?$CStringT@DV?$StrTraitMFC_DLL@DV?$ChTraitsCRT@D@ATL@@@@@ATL@@PAVCSkinButton@@@std@@@5@$0A@@std@@@2@XZ
_TEXT	SEGMENT PARA USE32 PUBLIC 'CODE'
_TEXT	ENDS
;	COMDAT ??0?$_Tree_ptr@V?$_Tmap_traits@V?$CStringT@DV?$StrTraitMFC_DLL@DV?$ChTraitsCRT@D@ATL@@@@@ATL@@PAVCSkinButton@@U?$less@V?$CStringT@DV?$StrTraitMFC_DLL@DV?$ChTraitsCRT@D@ATL@@@@@ATL@@@std@@V?$allocator@U?$pair@$$CBV?$CStringT@DV?$StrTraitMFC_DLL@DV?$ChTraitsCRT@D@ATL@@@@@ATL@@PAVCSkinButton@@@std@@@5@$0A@@std@@@std@@IAE@ABU?$less@V?$CStringT@DV?$StrTraitMFC_DLL@DV?$ChTraitsCRT@D@ATL@@@@@ATL@@@1@V?$allocator@U?$pair@$$CBV?$CStringT@DV?$StrTraitMFC_DLL@DV?$ChTraitsCRT@D@ATL@@@@@ATL@@PAVCSkinButton@@@std@@@1@@Z
_TEXT	SEGMENT PARA USE32 PUBLIC 'CODE'
_TEXT	ENDS
;	COMDAT ?max_size@?$allocator@U?$pair@$$CBV?$CStringT@DV?$StrTraitMFC_DLL@DV?$ChTraitsCRT@D@ATL@@@@@ATL@@PAVCSkinButton@@@std@@@std@@QBEIXZ
_TEXT	SEGMENT PARA USE32 PUBLIC 'CODE'
_TEXT	ENDS
;	COMDAT ?allocate@?$allocator@U_Node@?$_Tree_nod@V?$_Tmap_traits@V?$CStringT@DV?$StrTraitMFC_DLL@DV?$ChTraitsCRT@D@ATL@@@@@ATL@@PAVCSkinButton@@U?$less@V?$CStringT@DV?$StrTraitMFC_DLL@DV?$ChTraitsCRT@D@ATL@@@@@ATL@@@std@@V?$allocator@U?$pair@$$CBV?$CStringT@DV?$StrTraitMFC_DLL@DV?$ChTraitsCRT@D@ATL@@@@@ATL@@PAVCSkinButton@@@std@@@5@$0A@@std@@@std@@@std@@QAEPAU_Node@?$_Tree_nod@V?$_Tmap_traits@V?$CStringT@DV?$StrTraitMFC_DLL@DV?$ChTraitsCRT@D@ATL@@@@@ATL@@PAVCSkinButton@@U?$less@V?$CStringT@DV?$StrTraitMFC_DLL@DV?$ChTraitsCRT@D@ATL@@@@@ATL@@@std@@V?$allocator@U?$pair@$$CBV?$CStringT@DV?$StrTraitMFC_DLL@DV?$ChTraitsCRT@D@ATL@@@@@ATL@@PAVCSkinButton@@@std@@@5@$0A@@std@@@2@I@Z
_TEXT	SEGMENT PARA USE32 PUBLIC 'CODE'
_TEXT	ENDS
;	COMDAT ??Eiterator@?$_Tree@V?$_Tmap_traits@V?$CStringT@DV?$StrTraitMFC_DLL@DV?$ChTraitsCRT@D@ATL@@@@@ATL@@PAVCSkinButton@@U?$less@V?$CStringT@DV?$StrTraitMFC_DLL@DV?$ChTraitsCRT@D@ATL@@@@@ATL@@@std@@V?$allocator@U?$pair@$$CBV?$CStringT@DV?$StrTraitMFC_DLL@DV?$ChTraitsCRT@D@ATL@@@@@ATL@@PAVCSkinButton@@@std@@@5@$0A@@std@@@std@@QAE?AV012@H@Z
_TEXT	SEGMENT PARA USE32 PUBLIC 'CODE'
_TEXT	ENDS
;	COMDAT ??9const_iterator@?$_Tree@V?$_Tmap_traits@V?$CStringT@DV?$StrTraitMFC_DLL@DV?$ChTraitsCRT@D@ATL@@@@@ATL@@PAVCSkinButton@@U?$less@V?$CStringT@DV?$StrTraitMFC_DLL@DV?$ChTraitsCRT@D@ATL@@@@@ATL@@@std@@V?$allocator@U?$pair@$$CBV?$CStringT@DV?$StrTraitMFC_DLL@DV?$ChTraitsCRT@D@ATL@@@@@ATL@@PAVCSkinButton@@@std@@@5@$0A@@std@@@std@@QBE_NABV012@@Z
_TEXT	SEGMENT PARA USE32 PUBLIC 'CODE'
_TEXT	ENDS
;	COMDAT ?_Dec@const_iterator@?$_Tree@V?$_Tmap_traits@V?$CStringT@DV?$StrTraitMFC_DLL@DV?$ChTraitsCRT@D@ATL@@@@@ATL@@PAVCSkinButton@@U?$less@V?$CStringT@DV?$StrTraitMFC_DLL@DV?$ChTraitsCRT@D@ATL@@@@@ATL@@@std@@V?$allocator@U?$pair@$$CBV?$CStringT@DV?$StrTraitMFC_DLL@DV?$ChTraitsCRT@D@ATL@@@@@ATL@@PAVCSkinButton@@@std@@@5@$0A@@std@@@std@@QAEXXZ
_TEXT	SEGMENT PARA USE32 PUBLIC 'CODE'
_TEXT	ENDS
;	COMDAT ?_Inc@const_iterator@?$_Tree@V?$_Tmap_traits@V?$CStringT@DV?$StrTraitMFC_DLL@DV?$ChTraitsCRT@D@ATL@@@@@ATL@@PAVCSkinButton@@U?$less@V?$CStringT@DV?$StrTraitMFC_DLL@DV?$ChTraitsCRT@D@ATL@@@@@ATL@@@std@@V?$allocator@U?$pair@$$CBV?$CStringT@DV?$StrTraitMFC_DLL@DV?$ChTraitsCRT@D@ATL@@@@@ATL@@PAVCSkinButton@@@std@@@5@$0A@@std@@@std@@QAEXXZ
_TEXT	SEGMENT PARA USE32 PUBLIC 'CODE'
_TEXT	ENDS
;	COMDAT ??0_Node@?$_List_nod@PAVCSkinButton@@V?$allocator@PAVCSkinButton@@@std@@@std@@QAE@PAU012@0ABQAVCSkinButton@@@Z
_TEXT	SEGMENT PARA USE32 PUBLIC 'CODE'
_TEXT	ENDS
;	COMDAT ??0_Node@?$_Tree_nod@V?$_Tmap_traits@V?$CStringT@DV?$StrTraitMFC_DLL@DV?$ChTraitsCRT@D@ATL@@@@@ATL@@PAVCSkinButton@@U?$less@V?$CStringT@DV?$StrTraitMFC_DLL@DV?$ChTraitsCRT@D@ATL@@@@@ATL@@@std@@V?$allocator@U?$pair@$$CBV?$CStringT@DV?$StrTraitMFC_DLL@DV?$ChTraitsCRT@D@ATL@@@@@ATL@@PAVCSkinButton@@@std@@@5@$0A@@std@@@std@@QAE@PAU012@00ABU?$pair@$$CBV?$CStringT@DV?$StrTraitMFC_DLL@DV?$ChTraitsCRT@D@ATL@@@@@ATL@@PAVCSkinButton@@@2@D@Z
_TEXT	SEGMENT PARA USE32 PUBLIC 'CODE'
_TEXT	ENDS
;	COMDAT ??0?$pair@$$CBV?$CStringT@DV?$StrTraitMFC_DLL@DV?$ChTraitsCRT@D@ATL@@@@@ATL@@PAVCSkinButton@@@std@@QAE@ABU01@@Z
_TEXT	SEGMENT PARA USE32 PUBLIC 'CODE'
_TEXT	ENDS
;	COMDAT ?max_size@?$allocator@PAVCSkinButton@@@std@@QBEIXZ
_TEXT	SEGMENT PARA USE32 PUBLIC 'CODE'
_TEXT	ENDS
;	COMDAT ??0?$_Tree_nod@V?$_Tmap_traits@V?$CStringT@DV?$StrTraitMFC_DLL@DV?$ChTraitsCRT@D@ATL@@@@@ATL@@PAVCSkinButton@@U?$less@V?$CStringT@DV?$StrTraitMFC_DLL@DV?$ChTraitsCRT@D@ATL@@@@@ATL@@@std@@V?$allocator@U?$pair@$$CBV?$CStringT@DV?$StrTraitMFC_DLL@DV?$ChTraitsCRT@D@ATL@@@@@ATL@@PAVCSkinButton@@@std@@@5@$0A@@std@@@std@@IAE@ABU?$less@V?$CStringT@DV?$StrTraitMFC_DLL@DV?$ChTraitsCRT@D@ATL@@@@@ATL@@@1@V?$allocator@U?$pair@$$CBV?$CStringT@DV?$StrTraitMFC_DLL@DV?$ChTraitsCRT@D@ATL@@@@@ATL@@PAVCSkinButton@@@std@@@1@@Z
_TEXT	SEGMENT PARA USE32 PUBLIC 'CODE'
_TEXT	ENDS
;	COMDAT ?construct@?$allocator@PAU_Node@?$_Tree_nod@V?$_Tmap_traits@V?$CStringT@DV?$StrTraitMFC_DLL@DV?$ChTraitsCRT@D@ATL@@@@@ATL@@PAVCSkinButton@@U?$less@V?$CStringT@DV?$StrTraitMFC_DLL@DV?$ChTraitsCRT@D@ATL@@@@@ATL@@@std@@V?$allocator@U?$pair@$$CBV?$CStringT@DV?$StrTraitMFC_DLL@DV?$ChTraitsCRT@D@ATL@@@@@ATL@@PAVCSkinButton@@@std@@@5@$0A@@std@@@std@@@std@@QAEXPAPAU_Node@?$_Tree_nod@V?$_Tmap_traits@V?$CStringT@DV?$StrTraitMFC_DLL@DV?$ChTraitsCRT@D@ATL@@@@@ATL@@PAVCSkinButton@@U?$less@V?$CStringT@DV?$StrTraitMFC_DLL@DV?$ChTraitsCRT@D@ATL@@@@@ATL@@@std@@V?$allocator@U?$pair@$$CBV?$CStringT@DV?$StrTraitMFC_DLL@DV?$ChTraitsCRT@D@ATL@@@@@ATL@@PAVCSkinButton@@@std@@@5@$0A@@std@@@2@ABQAU342@@Z
_TEXT	SEGMENT PARA USE32 PUBLIC 'CODE'
_TEXT	ENDS
;	COMDAT ??0?$_Tmap_traits@V?$CStringT@DV?$StrTraitMFC_DLL@DV?$ChTraitsCRT@D@ATL@@@@@ATL@@PAVCSkinButton@@U?$less@V?$CStringT@DV?$StrTraitMFC_DLL@DV?$ChTraitsCRT@D@ATL@@@@@ATL@@@std@@V?$allocator@U?$pair@$$CBV?$CStringT@DV?$StrTraitMFC_DLL@DV?$ChTraitsCRT@D@ATL@@@@@ATL@@PAVCSkinButton@@@std@@@5@$0A@@std@@QAE@U?$less@V?$CStringT@DV?$StrTraitMFC_DLL@DV?$ChTraitsCRT@D@ATL@@@@@ATL@@@1@@Z
_TEXT	SEGMENT PARA USE32 PUBLIC 'CODE'
_TEXT	ENDS
;	COMDAT ?Unlock@?$CComCritSecLock@VCComCriticalSection@ATL@@@ATL@@QAEXXZ
_TEXT	SEGMENT PARA USE32 PUBLIC 'CODE'
_TEXT	ENDS
;	COMDAT ??$?0V?$CStringT@DV?$StrTraitMFC_DLL@DV?$ChTraitsCRT@D@ATL@@@@@ATL@@PAVCSkinButton@@@?$pair@$$CBV?$CStringT@DV?$StrTraitMFC_DLL@DV?$ChTraitsCRT@D@ATL@@@@@ATL@@PAVCSkinButton@@@std@@QAE@ABU?$pair@V?$CStringT@DV?$StrTraitMFC_DLL@DV?$ChTraitsCRT@D@ATL@@@@@ATL@@PAVCSkinButton@@@1@@Z
_TEXT	SEGMENT PARA USE32 PUBLIC 'CODE'
_TEXT	ENDS
;	COMDAT ??$_Destroy@U_Node@?$_Tree_nod@V?$_Tmap_traits@V?$CStringT@DV?$StrTraitMFC_DLL@DV?$ChTraitsCRT@D@ATL@@@@@ATL@@PAVCSkinButton@@U?$less@V?$CStringT@DV?$StrTraitMFC_DLL@DV?$ChTraitsCRT@D@ATL@@@@@ATL@@@std@@V?$allocator@U?$pair@$$CBV?$CStringT@DV?$StrTraitMFC_DLL@DV?$ChTraitsCRT@D@ATL@@@@@ATL@@PAVCSkinButton@@@std@@@5@$0A@@std@@@std@@@std@@YAXPAU_Node@?$_Tree_nod@V?$_Tmap_traits@V?$CStringT@DV?$StrTraitMFC_DLL@DV?$ChTraitsCRT@D@ATL@@@@@ATL@@PAVCSkinButton@@U?$less@V?$CStringT@DV?$StrTraitMFC_DLL@DV?$ChTraitsCRT@D@ATL@@@@@ATL@@@std@@V?$allocator@U?$pair@$$CBV?$CStringT@DV?$StrTraitMFC_DLL@DV?$ChTraitsCRT@D@ATL@@@@@ATL@@PAVCSkinButton@@@std@@@5@$0A@@std@@@0@@Z
_TEXT	SEGMENT PARA USE32 PUBLIC 'CODE'
_TEXT	ENDS
;	COMDAT ??$_Maklocstr@D@std@@YAPADPBDPADABU_Cvtvec@@@Z
_TEXT	SEGMENT PARA USE32 PUBLIC 'CODE'
_TEXT	ENDS
;	COMDAT ??$?0PAVCSkinButton@@@?$allocator@PAU_Node@?$_List_nod@PAVCSkinButton@@V?$allocator@PAVCSkinButton@@@std@@@std@@@std@@QAE@ABV?$allocator@PAVCSkinButton@@@1@@Z
_TEXT	SEGMENT PARA USE32 PUBLIC 'CODE'
_TEXT	ENDS
;	COMDAT ??$_Allocate@U_Node@?$_List_nod@PAVCSkinButton@@V?$allocator@PAVCSkinButton@@@std@@@std@@@std@@YAPAU_Node@?$_List_nod@PAVCSkinButton@@V?$allocator@PAVCSkinButton@@@std@@@0@IPAU120@@Z
_TEXT	SEGMENT PARA USE32 PUBLIC 'CODE'
_TEXT	ENDS
;	COMDAT ??$_Construct@PAU_Node@?$_List_nod@PAVCSkinButton@@V?$allocator@PAVCSkinButton@@@std@@@std@@PAU123@@std@@YAXPAPAU_Node@?$_List_nod@PAVCSkinButton@@V?$allocator@PAVCSkinButton@@@std@@@0@ABQAU120@@Z
_TEXT	SEGMENT PARA USE32 PUBLIC 'CODE'
_TEXT	ENDS
;	COMDAT ??$_Destroy@PAU_Node@?$_List_nod@PAVCSkinButton@@V?$allocator@PAVCSkinButton@@@std@@@std@@@std@@YAXPAPAU_Node@?$_List_nod@PAVCSkinButton@@V?$allocator@PAVCSkinButton@@@std@@@0@@Z
_TEXT	SEGMENT PARA USE32 PUBLIC 'CODE'
_TEXT	ENDS
;	COMDAT ??$_Destroy@PAU_Node@?$_Tree_nod@V?$_Tmap_traits@V?$CStringT@DV?$StrTraitMFC_DLL@DV?$ChTraitsCRT@D@ATL@@@@@ATL@@PAVCSkinButton@@U?$less@V?$CStringT@DV?$StrTraitMFC_DLL@DV?$ChTraitsCRT@D@ATL@@@@@ATL@@@std@@V?$allocator@U?$pair@$$CBV?$CStringT@DV?$StrTraitMFC_DLL@DV?$ChTraitsCRT@D@ATL@@@@@ATL@@PAVCSkinButton@@@std@@@5@$0A@@std@@@std@@@std@@YAXPAPAU_Node@?$_Tree_nod@V?$_Tmap_traits@V?$CStringT@DV?$StrTraitMFC_DLL@DV?$ChTraitsCRT@D@ATL@@@@@ATL@@PAVCSkinButton@@U?$less@V?$CStringT@DV?$StrTraitMFC_DLL@DV?$ChTraitsCRT@D@ATL@@@@@ATL@@@std@@V?$allocator@U?$pair@$$CBV?$CStringT@DV?$StrTraitMFC_DLL@DV?$ChTraitsCRT@D@ATL@@@@@ATL@@PAVCSkinButton@@@std@@@5@$0A@@std@@@0@@Z
_TEXT	SEGMENT PARA USE32 PUBLIC 'CODE'
_TEXT	ENDS
;	COMDAT ??$?0PAVCSkinButton@@@?$allocator@U_Node@?$_List_nod@PAVCSkinButton@@V?$allocator@PAVCSkinButton@@@std@@@std@@@std@@QAE@ABV?$allocator@PAVCSkinButton@@@1@@Z
_TEXT	SEGMENT PARA USE32 PUBLIC 'CODE'
_TEXT	ENDS
;	COMDAT ??$_Destroy@U_Node@?$_List_nod@PAVCSkinButton@@V?$allocator@PAVCSkinButton@@@std@@@std@@@std@@YAXPAU_Node@?$_List_nod@PAVCSkinButton@@V?$allocator@PAVCSkinButton@@@std@@@0@@Z
_TEXT	SEGMENT PARA USE32 PUBLIC 'CODE'
_TEXT	ENDS
;	COMDAT ??$?0U?$pair@$$CBV?$CStringT@DV?$StrTraitMFC_DLL@DV?$ChTraitsCRT@D@ATL@@@@@ATL@@PAVCSkinButton@@@std@@@?$allocator@PAU_Node@?$_Tree_nod@V?$_Tmap_traits@V?$CStringT@DV?$StrTraitMFC_DLL@DV?$ChTraitsCRT@D@ATL@@@@@ATL@@PAVCSkinButton@@U?$less@V?$CStringT@DV?$StrTraitMFC_DLL@DV?$ChTraitsCRT@D@ATL@@@@@ATL@@@std@@V?$allocator@U?$pair@$$CBV?$CStringT@DV?$StrTraitMFC_DLL@DV?$ChTraitsCRT@D@ATL@@@@@ATL@@PAVCSkinButton@@@std@@@5@$0A@@std@@@std@@@std@@QAE@ABV?$allocator@U?$pair@$$CBV?$CStringT@DV?$StrTraitMFC_DLL@DV?$ChTraitsCRT@D@ATL@@@@@ATL@@PAVCSkinButton@@@std@@@1@@Z
_TEXT	SEGMENT PARA USE32 PUBLIC 'CODE'
_TEXT	ENDS
;	COMDAT ??$_Allocate@U_Node@?$_Tree_nod@V?$_Tmap_traits@V?$CStringT@DV?$StrTraitMFC_DLL@DV?$ChTraitsCRT@D@ATL@@@@@ATL@@PAVCSkinButton@@U?$less@V?$CStringT@DV?$StrTraitMFC_DLL@DV?$ChTraitsCRT@D@ATL@@@@@ATL@@@std@@V?$allocator@U?$pair@$$CBV?$CStringT@DV?$StrTraitMFC_DLL@DV?$ChTraitsCRT@D@ATL@@@@@ATL@@PAVCSkinButton@@@std@@@5@$0A@@std@@@std@@@std@@YAPAU_Node@?$_Tree_nod@V?$_Tmap_traits@V?$CStringT@DV?$StrTraitMFC_DLL@DV?$ChTraitsCRT@D@ATL@@@@@ATL@@PAVCSkinButton@@U?$less@V?$CStringT@DV?$StrTraitMFC_DLL@DV?$ChTraitsCRT@D@ATL@@@@@ATL@@@std@@V?$allocator@U?$pair@$$CBV?$CStringT@DV?$StrTraitMFC_DLL@DV?$ChTraitsCRT@D@ATL@@@@@ATL@@PAVCSkinButton@@@std@@@5@$0A@@std@@@0@IPAU120@@Z
_TEXT	SEGMENT PARA USE32 PUBLIC 'CODE'
_TEXT	ENDS
;	COMDAT ??$?0U?$pair@$$CBV?$CStringT@DV?$StrTraitMFC_DLL@DV?$ChTraitsCRT@D@ATL@@@@@ATL@@PAVCSkinButton@@@std@@@?$allocator@U_Node@?$_Tree_nod@V?$_Tmap_traits@V?$CStringT@DV?$StrTraitMFC_DLL@DV?$ChTraitsCRT@D@ATL@@@@@ATL@@PAVCSkinButton@@U?$less@V?$CStringT@DV?$StrTraitMFC_DLL@DV?$ChTraitsCRT@D@ATL@@@@@ATL@@@std@@V?$allocator@U?$pair@$$CBV?$CStringT@DV?$StrTraitMFC_DLL@DV?$ChTraitsCRT@D@ATL@@@@@ATL@@PAVCSkinButton@@@std@@@5@$0A@@std@@@std@@@std@@QAE@ABV?$allocator@U?$pair@$$CBV?$CStringT@DV?$StrTraitMFC_DLL@DV?$ChTraitsCRT@D@ATL@@@@@ATL@@PAVCSkinButton@@@std@@@1@@Z
_TEXT	SEGMENT PARA USE32 PUBLIC 'CODE'
_TEXT	ENDS
;	COMDAT ??$_Construct@PAU_Node@?$_Tree_nod@V?$_Tmap_traits@V?$CStringT@DV?$StrTraitMFC_DLL@DV?$ChTraitsCRT@D@ATL@@@@@ATL@@PAVCSkinButton@@U?$less@V?$CStringT@DV?$StrTraitMFC_DLL@DV?$ChTraitsCRT@D@ATL@@@@@ATL@@@std@@V?$allocator@U?$pair@$$CBV?$CStringT@DV?$StrTraitMFC_DLL@DV?$ChTraitsCRT@D@ATL@@@@@ATL@@PAVCSkinButton@@@std@@@5@$0A@@std@@@std@@PAU123@@std@@YAXPAPAU_Node@?$_Tree_nod@V?$_Tmap_traits@V?$CStringT@DV?$StrTraitMFC_DLL@DV?$ChTraitsCRT@D@ATL@@@@@ATL@@PAVCSkinButton@@U?$less@V?$CStringT@DV?$StrTraitMFC_DLL@DV?$ChTraitsCRT@D@ATL@@@@@ATL@@@std@@V?$allocator@U?$pair@$$CBV?$CStringT@DV?$StrTraitMFC_DLL@DV?$ChTraitsCRT@D@ATL@@@@@ATL@@PAVCSkinButton@@@std@@@5@$0A@@std@@@0@ABQAU120@@Z
_TEXT	SEGMENT PARA USE32 PUBLIC 'CODE'
_TEXT	ENDS
;	COMDAT ??_G_Node@?$_Tree_nod@V?$_Tmap_traits@V?$CStringT@DV?$StrTraitMFC_DLL@DV?$ChTraitsCRT@D@ATL@@@@@ATL@@PAVCSkinButton@@U?$less@V?$CStringT@DV?$StrTraitMFC_DLL@DV?$ChTraitsCRT@D@ATL@@@@@ATL@@@std@@V?$allocator@U?$pair@$$CBV?$CStringT@DV?$StrTraitMFC_DLL@DV?$ChTraitsCRT@D@ATL@@@@@ATL@@PAVCSkinButton@@@std@@@5@$0A@@std@@@std@@QAEPAXI@Z
_TEXT	SEGMENT PARA USE32 PUBLIC 'CODE'
_TEXT	ENDS
;	COMDAT ??1_Node@?$_Tree_nod@V?$_Tmap_traits@V?$CStringT@DV?$StrTraitMFC_DLL@DV?$ChTraitsCRT@D@ATL@@@@@ATL@@PAVCSkinButton@@U?$less@V?$CStringT@DV?$StrTraitMFC_DLL@DV?$ChTraitsCRT@D@ATL@@@@@ATL@@@std@@V?$allocator@U?$pair@$$CBV?$CStringT@DV?$StrTraitMFC_DLL@DV?$ChTraitsCRT@D@ATL@@@@@ATL@@PAVCSkinButton@@@std@@@5@$0A@@std@@@std@@QAE@XZ
_TEXT	SEGMENT PARA USE32 PUBLIC 'CODE'
_TEXT	ENDS
;	COMDAT ??_R3CSkinWnd@@8
rdata$r	SEGMENT DWORD USE32 PUBLIC 'CONST'
rdata$r	ENDS
;	COMDAT ??_R3CGdiPlusBitmap@@8
rdata$r	SEGMENT DWORD USE32 PUBLIC 'CONST'
rdata$r	ENDS
;	COMDAT ??_R3CGdiPlusBitmap@CSkinButton@@8
rdata$r	SEGMENT DWORD USE32 PUBLIC 'CONST'
rdata$r	ENDS
;	COMDAT ??_R3HTTPObserver@@8
rdata$r	SEGMENT DWORD USE32 PUBLIC 'CONST'
rdata$r	ENDS
;	COMDAT ??_R3?$numpunct@_W@std@@8
rdata$r	SEGMENT DWORD USE32 PUBLIC 'CONST'
rdata$r	ENDS
;	COMDAT ??_R3?$numpunct@D@std@@8
rdata$r	SEGMENT DWORD USE32 PUBLIC 'CONST'
rdata$r	ENDS
;	COMDAT ??_R3IData@@8
rdata$r	SEGMENT DWORD USE32 PUBLIC 'CONST'
rdata$r	ENDS
;	COMDAT ??_R3DIBINFO@@8
rdata$r	SEGMENT DWORD USE32 PUBLIC 'CONST'
rdata$r	ENDS
;	COMDAT ??_R3IEventListener@@8
rdata$r	SEGMENT DWORD USE32 PUBLIC 'CONST'
rdata$r	ENDS
;	COMDAT ??_R3P2PObserver@@8
rdata$r	SEGMENT DWORD USE32 PUBLIC 'CONST'
rdata$r	ENDS
;	COMDAT ??_R2CSkinWnd@@8
rdata$r	SEGMENT DWORD USE32 PUBLIC 'CONST'
rdata$r	ENDS
;	COMDAT ??_R2CGdiPlusBitmap@@8
rdata$r	SEGMENT DWORD USE32 PUBLIC 'CONST'
rdata$r	ENDS
;	COMDAT ??_R2CGdiPlusBitmap@CSkinButton@@8
rdata$r	SEGMENT DWORD USE32 PUBLIC 'CONST'
rdata$r	ENDS
;	COMDAT ??_R2HTTPObserver@@8
rdata$r	SEGMENT DWORD USE32 PUBLIC 'CONST'
rdata$r	ENDS
;	COMDAT ??_R2?$numpunct@_W@std@@8
rdata$r	SEGMENT DWORD USE32 PUBLIC 'CONST'
rdata$r	ENDS
;	COMDAT ??_R2?$numpunct@D@std@@8
rdata$r	SEGMENT DWORD USE32 PUBLIC 'CONST'
rdata$r	ENDS
;	COMDAT ??_R2IData@@8
rdata$r	SEGMENT DWORD USE32 PUBLIC 'CONST'
rdata$r	ENDS
;	COMDAT ??_R2DIBINFO@@8
rdata$r	SEGMENT DWORD USE32 PUBLIC 'CONST'
rdata$r	ENDS
;	COMDAT ??_R2IEventListener@@8
rdata$r	SEGMENT DWORD USE32 PUBLIC 'CONST'
rdata$r	ENDS
;	COMDAT ??_R2P2PObserver@@8
rdata$r	SEGMENT DWORD USE32 PUBLIC 'CONST'
rdata$r	ENDS
;	COMDAT ??_R1NE@?0A@A@IEventListener@@8
rdata$r	SEGMENT DWORD USE32 PUBLIC 'CONST'
rdata$r	ENDS
;	COMDAT ??_R1A@?0A@A@CObject@@8
rdata$r	SEGMENT DWORD USE32 PUBLIC 'CONST'
rdata$r	ENDS
;	COMDAT ??_R0?AVCObject@@@8
_DATA	SEGMENT DWORD USE32 PUBLIC 'DATA'
_DATA	ENDS
;	COMDAT ??_R1A@?0A@A@CCmdTarget@@8
rdata$r	SEGMENT DWORD USE32 PUBLIC 'CONST'
rdata$r	ENDS
;	COMDAT ??_R0?AVCCmdTarget@@@8
_DATA	SEGMENT DWORD USE32 PUBLIC 'DATA'
_DATA	ENDS
;	COMDAT ??_R1A@?0A@A@CWnd@@8
rdata$r	SEGMENT DWORD USE32 PUBLIC 'CONST'
rdata$r	ENDS
;	COMDAT ??_R0?AVCWnd@@@8
_DATA	SEGMENT DWORD USE32 PUBLIC 'DATA'
_DATA	ENDS
;	COMDAT ??_R1A@?0A@A@CFrameWnd@@8
rdata$r	SEGMENT DWORD USE32 PUBLIC 'CONST'
rdata$r	ENDS
;	COMDAT ??_R1A@?0A@A@CSkinWnd@@8
rdata$r	SEGMENT DWORD USE32 PUBLIC 'CONST'
rdata$r	ENDS
;	COMDAT ??_R1A@?0A@A@CGdiPlusBitmap@@8
rdata$r	SEGMENT DWORD USE32 PUBLIC 'CONST'
rdata$r	ENDS
;	COMDAT ??_R1A@?0A@A@CGdiPlusBitmap@CSkinButton@@8
rdata$r	SEGMENT DWORD USE32 PUBLIC 'CONST'
rdata$r	ENDS
;	COMDAT ??_R1A@?0A@A@HTTPObserver@@8
rdata$r	SEGMENT DWORD USE32 PUBLIC 'CONST'
rdata$r	ENDS
;	COMDAT ??_R1A@?0A@A@?$numpunct@_W@std@@8
rdata$r	SEGMENT DWORD USE32 PUBLIC 'CONST'
rdata$r	ENDS
;	COMDAT ??_R1A@?0A@A@facet@locale@std@@8
rdata$r	SEGMENT DWORD USE32 PUBLIC 'CONST'
rdata$r	ENDS
;	COMDAT ??_R0?AVfacet@locale@std@@@8
_DATA	SEGMENT DWORD USE32 PUBLIC 'DATA'
_DATA	ENDS
;	COMDAT ??_R1A@?0A@A@?$numpunct@D@std@@8
rdata$r	SEGMENT DWORD USE32 PUBLIC 'CONST'
rdata$r	ENDS
;	COMDAT ??_R1A@?0A@A@IData@@8
rdata$r	SEGMENT DWORD USE32 PUBLIC 'CONST'
rdata$r	ENDS
;	COMDAT ??_R1A@?0A@A@DIBINFO@@8
rdata$r	SEGMENT DWORD USE32 PUBLIC 'CONST'
rdata$r	ENDS
;	COMDAT ??_R1A@?0A@A@IEventListener@@8
rdata$r	SEGMENT DWORD USE32 PUBLIC 'CONST'
rdata$r	ENDS
;	COMDAT ??_R1A@?0A@A@P2PObserver@@8
rdata$r	SEGMENT DWORD USE32 PUBLIC 'CONST'
rdata$r	ENDS
;	COMDAT ??_R0?AVCFrameWnd@@@8
_DATA	SEGMENT DWORD USE32 PUBLIC 'DATA'
_DATA	ENDS
;	COMDAT ??_R0?AVCSkinWnd@@@8
_DATA	SEGMENT DWORD USE32 PUBLIC 'DATA'
_DATA	ENDS
;	COMDAT ??_R0?AVCGdiPlusBitmap@@@8
_DATA	SEGMENT DWORD USE32 PUBLIC 'DATA'
_DATA	ENDS
;	COMDAT ??_R0?AVCGdiPlusBitmap@CSkinButton@@@8
_DATA	SEGMENT DWORD USE32 PUBLIC 'DATA'
_DATA	ENDS
;	COMDAT ??_R0?AVHTTPObserver@@@8
_DATA	SEGMENT DWORD USE32 PUBLIC 'DATA'
_DATA	ENDS
;	COMDAT ??_R0?AV?$numpunct@_W@std@@@8
_DATA	SEGMENT DWORD USE32 PUBLIC 'DATA'
_DATA	ENDS
;	COMDAT ??_R0?AV?$numpunct@D@std@@@8
_DATA	SEGMENT DWORD USE32 PUBLIC 'DATA'
_DATA	ENDS
;	COMDAT ??_R0?AVIData@@@8
_DATA	SEGMENT DWORD USE32 PUBLIC 'DATA'
_DATA	ENDS
;	COMDAT ??_R0?AVDIBINFO@@@8
_DATA	SEGMENT DWORD USE32 PUBLIC 'DATA'
_DATA	ENDS
;	COMDAT ??_R0?AVIEventListener@@@8
_DATA	SEGMENT DWORD USE32 PUBLIC 'DATA'
_DATA	ENDS
;	COMDAT ??_R0?AVP2PObserver@@@8
_DATA	SEGMENT DWORD USE32 PUBLIC 'DATA'
_DATA	ENDS
;	COMDAT ??_R4CSkinWnd@@6BIEventListener@@@
rdata$r	SEGMENT DWORD USE32 PUBLIC 'CONST'
rdata$r	ENDS
;	COMDAT ??_R4CSkinWnd@@6BCFrameWnd@@@
rdata$r	SEGMENT DWORD USE32 PUBLIC 'CONST'
rdata$r	ENDS
;	COMDAT ??_R4CGdiPlusBitmap@@6B@
rdata$r	SEGMENT DWORD USE32 PUBLIC 'CONST'
rdata$r	ENDS
;	COMDAT ??_R4CGdiPlusBitmap@CSkinButton@@6B@
rdata$r	SEGMENT DWORD USE32 PUBLIC 'CONST'
rdata$r	ENDS
;	COMDAT ??_R4HTTPObserver@@6B@
rdata$r	SEGMENT DWORD USE32 PUBLIC 'CONST'
rdata$r	ENDS
;	COMDAT ??0?$allocator@_W@std@@QAE@XZ
_TEXT	SEGMENT PARA USE32 PUBLIC 'CODE'
_TEXT	ENDS
;	COMDAT ??_G?$numpunct@_W@std@@MAEPAXI@Z
_TEXT	SEGMENT PARA USE32 PUBLIC 'CODE'
_TEXT	ENDS
;	COMDAT ??_R4?$numpunct@_W@std@@6B@
rdata$r	SEGMENT DWORD USE32 PUBLIC 'CONST'
rdata$r	ENDS
;	COMDAT ??_G?$numpunct@D@std@@MAEPAXI@Z
_TEXT	SEGMENT PARA USE32 PUBLIC 'CODE'
_TEXT	ENDS
;	COMDAT ??_R4?$numpunct@D@std@@6B@
rdata$r	SEGMENT DWORD USE32 PUBLIC 'CONST'
rdata$r	ENDS
;	COMDAT ??_R4IData@@6B@
rdata$r	SEGMENT DWORD USE32 PUBLIC 'CONST'
rdata$r	ENDS
;	COMDAT ??_R4DIBINFO@@6B@
rdata$r	SEGMENT DWORD USE32 PUBLIC 'CONST'
rdata$r	ENDS
;	COMDAT ??_R4IEventListener@@6B@
rdata$r	SEGMENT DWORD USE32 PUBLIC 'CONST'
rdata$r	ENDS
;	COMDAT ??_R4P2PObserver@@6B@
rdata$r	SEGMENT DWORD USE32 PUBLIC 'CONST'
rdata$r	ENDS
;	COMDAT ??_C@_0EN@CBMLGOH@D?3?2Program?5Files?5?$CIx86?$CJ?2Microsoft@
CONST	SEGMENT DWORD USE32 PUBLIC 'CONST'
CONST	ENDS
;	COMDAT ?_Psave@?$_Facetptr@V?$numpunct@_W@std@@@std@@2PBVfacet@locale@2@B
_DATA	SEGMENT DWORD USE32 PUBLIC 'DATA'
_DATA	ENDS
;	COMDAT ?_Psave@?$_Facetptr@V?$numpunct@D@std@@@std@@2PBVfacet@locale@2@B
_DATA	SEGMENT DWORD USE32 PUBLIC 'DATA'
_DATA	ENDS
;	COMDAT ?Unlock@CComCriticalSection@ATL@@QAEJXZ
_TEXT	SEGMENT PARA USE32 PUBLIC 'CODE'
_TEXT	ENDS
;	COMDAT ??_C@_0FG@LDNDNCJM@D?3?2Program?5Files?5?$CIx86?$CJ?2Microsoft@
CONST	SEGMENT DWORD USE32 PUBLIC 'CONST'
CONST	ENDS
;	COMDAT ??_C@_09HIEJFN@m_bLocked?$AA@
CONST	SEGMENT DWORD USE32 PUBLIC 'CONST'
CONST	ENDS
;	COMDAT ?_Psave@?$_Facetptr@V?$ctype@_W@std@@@std@@2PBVfacet@locale@2@B
_DATA	SEGMENT DWORD USE32 PUBLIC 'DATA'
_DATA	ENDS
;	COMDAT ?_Psave@?$_Facetptr@V?$ctype@D@std@@@std@@2PBVfacet@locale@2@B
_DATA	SEGMENT DWORD USE32 PUBLIC 'DATA'
_DATA	ENDS
;	COMDAT ??3@YAXPAX0@Z
_TEXT	SEGMENT PARA USE32 PUBLIC 'CODE'
_TEXT	ENDS
;	COMDAT ??2@YAPAXIPAX@Z
_TEXT	SEGMENT PARA USE32 PUBLIC 'CODE'
_TEXT	ENDS
;	COMDAT ??$_Maklocchr@_W@std@@YA_WDPA_WABU_Cvtvec@@@Z
_TEXT	SEGMENT PARA USE32 PUBLIC 'CODE'
_TEXT	ENDS
;	COMDAT ??$_DebugHeapDelete@X@std@@YAXPAX@Z
_TEXT	SEGMENT PARA USE32 PUBLIC 'CODE'
_TEXT	ENDS
;	COMDAT ??$_Maklocstr@_W@std@@YAPA_WPBDPA_WABU_Cvtvec@@@Z
_TEXT	SEGMENT PARA USE32 PUBLIC 'CODE'
_TEXT	ENDS
;	COMDAT ??$_Maklocchr@D@std@@YADDPADABU_Cvtvec@@@Z
_TEXT	SEGMENT PARA USE32 PUBLIC 'CODE'
_TEXT	ENDS
;	COMDAT ??_C@_04LOAJBDKD@true?$AA@
CONST	SEGMENT DWORD USE32 PUBLIC 'CONST'
CONST	ENDS
;	COMDAT ??_C@_05LAPONLG@false?$AA@
CONST	SEGMENT DWORD USE32 PUBLIC 'CONST'
CONST	ENDS
;	COMDAT _wmemcpy
_TEXT	SEGMENT PARA USE32 PUBLIC 'CODE'
_TEXT	ENDS
;	COMDAT ?max_size@?$allocator@_W@std@@QBEIXZ
_TEXT	SEGMENT PARA USE32 PUBLIC 'CODE'
_TEXT	ENDS
;	COMDAT ?allocate@?$allocator@_W@std@@QAEPA_WI@Z
_TEXT	SEGMENT PARA USE32 PUBLIC 'CODE'
_TEXT	ENDS
;	COMDAT ??$_Allocate@_W@std@@YAPA_WIPA_W@Z
_TEXT	SEGMENT PARA USE32 PUBLIC 'CODE'
_TEXT	ENDS
;	COMDAT ??_7length_error@std@@6B@
CONST	SEGMENT DWORD USE32 PUBLIC 'CONST'
CONST	ENDS
;	COMDAT ??_R4length_error@std@@6B@
rdata$r	SEGMENT DWORD USE32 PUBLIC 'CONST'
rdata$r	ENDS
;	COMDAT ??_R3length_error@std@@8
rdata$r	SEGMENT DWORD USE32 PUBLIC 'CONST'
rdata$r	ENDS
;	COMDAT ??_R2length_error@std@@8
rdata$r	SEGMENT DWORD USE32 PUBLIC 'CONST'
rdata$r	ENDS
;	COMDAT ??_R1A@?0A@A@length_error@std@@8
rdata$r	SEGMENT DWORD USE32 PUBLIC 'CONST'
rdata$r	ENDS
;	COMDAT ??_R1A@?0A@A@logic_error@std@@8
rdata$r	SEGMENT DWORD USE32 PUBLIC 'CONST'
rdata$r	ENDS
;	COMDAT ??_R0?AVlogic_error@std@@@8
_DATA	SEGMENT DWORD USE32 PUBLIC 'DATA'
_DATA	ENDS
;	COMDAT ??_R1A@?0A@A@exception@@8
rdata$r	SEGMENT DWORD USE32 PUBLIC 'CONST'
rdata$r	ENDS
;	COMDAT ??_R0?AVexception@@@8
_DATA	SEGMENT DWORD USE32 PUBLIC 'DATA'
_DATA	ENDS
;	COMDAT ??_Glength_error@std@@UAEPAXI@Z
_TEXT	SEGMENT PARA USE32 PUBLIC 'CODE'
_TEXT	ENDS
;	COMDAT ?what@logic_error@std@@UBEPBDXZ
_TEXT	SEGMENT PARA USE32 PUBLIC 'CODE'
_TEXT	ENDS
;	COMDAT ??1logic_error@std@@UAE@XZ
_TEXT	SEGMENT PARA USE32 PUBLIC 'CODE'
_TEXT	ENDS
;	COMDAT ??_7logic_error@std@@6B@
CONST	SEGMENT DWORD USE32 PUBLIC 'CONST'
CONST	ENDS
;	COMDAT ??_R4logic_error@std@@6B@
rdata$r	SEGMENT DWORD USE32 PUBLIC 'CONST'
rdata$r	ENDS
;	COMDAT ??_R3logic_error@std@@8
rdata$r	SEGMENT DWORD USE32 PUBLIC 'CONST'
rdata$r	ENDS
;	COMDAT ??_R2logic_error@std@@8
rdata$r	SEGMENT DWORD USE32 PUBLIC 'CONST'
rdata$r	ENDS
;	COMDAT ??_Glogic_error@std@@UAEPAXI@Z
_TEXT	SEGMENT PARA USE32 PUBLIC 'CODE'
_TEXT	ENDS
;	COMDAT ??0logic_error@std@@QAE@ABV01@@Z
_TEXT	SEGMENT PARA USE32 PUBLIC 'CODE'
_TEXT	ENDS
;	COMDAT __CTA3?AVlength_error@std@@
xdata$x	SEGMENT DWORD USE32 PUBLIC 'CONST'
xdata$x	ENDS
;	COMDAT ??1length_error@std@@UAE@XZ
_TEXT	SEGMENT PARA USE32 PUBLIC 'CODE'
_TEXT	ENDS
;	COMDAT __CT??_R0?AVexception@@@8??0exception@@QAE@ABV0@@Z12
xdata$x	SEGMENT DWORD USE32 PUBLIC 'CONST'
xdata$x	ENDS
;	COMDAT __CT??_R0?AVlogic_error@std@@@8??0logic_error@std@@QAE@ABV01@@Z40
xdata$x	SEGMENT DWORD USE32 PUBLIC 'CONST'
xdata$x	ENDS
;	COMDAT __CT??_R0?AVlength_error@std@@@8??0length_error@std@@QAE@ABV01@@Z40
xdata$x	SEGMENT DWORD USE32 PUBLIC 'CONST'
xdata$x	ENDS
;	COMDAT ??_R0?AVlength_error@std@@@8
_DATA	SEGMENT DWORD USE32 PUBLIC 'DATA'
_DATA	ENDS
;	COMDAT __TI3?AVlength_error@std@@
xdata$x	SEGMENT DWORD USE32 PUBLIC 'CONST'
xdata$x	ENDS
;	COMDAT ??0length_error@std@@QAE@ABV?$basic_string@DU?$char_traits@D@std@@V?$allocator@D@2@@1@@Z
_TEXT	SEGMENT PARA USE32 PUBLIC 'CODE'
_TEXT	ENDS
;	COMDAT ??0logic_error@std@@QAE@ABV?$basic_string@DU?$char_traits@D@std@@V?$allocator@D@2@@1@@Z
_TEXT	SEGMENT PARA USE32 PUBLIC 'CODE'
_TEXT	ENDS
;	COMDAT ??_C@_01GFHCPBMG@C?$AA@
CONST	SEGMENT DWORD USE32 PUBLIC 'CONST'
CONST	ENDS
;	COMDAT ?max_size@?$allocator@D@std@@QBEIXZ
_TEXT	SEGMENT PARA USE32 PUBLIC 'CODE'
_TEXT	ENDS
;	COMDAT ?allocate@?$allocator@D@std@@QAEPADI@Z
_TEXT	SEGMENT PARA USE32 PUBLIC 'CODE'
_TEXT	ENDS
;	COMDAT ??$_Allocate@D@std@@YAPADIPAD@Z
_TEXT	SEGMENT PARA USE32 PUBLIC 'CODE'
_TEXT	ENDS
;	COMDAT ?deallocate@?$allocator@D@std@@QAEXPADI@Z
_TEXT	SEGMENT PARA USE32 PUBLIC 'CODE'
_TEXT	ENDS
;	COMDAT ??0?$allocator@D@std@@QAE@XZ
_TEXT	SEGMENT PARA USE32 PUBLIC 'CODE'
_TEXT	ENDS
;	COMDAT ??0?$allocator@D@std@@QAE@ABV01@@Z
_TEXT	SEGMENT PARA USE32 PUBLIC 'CODE'
_TEXT	ENDS
;	COMDAT ??_C@_0FH@KDPNIMBO@D?3?2Program?5Files?5?$CIx86?$CJ?2Microsoft@
CONST	SEGMENT DWORD USE32 PUBLIC 'CONST'
CONST	ENDS
;	COMDAT ?AtlIsValidString@ATL@@YAHPBDI@Z
_TEXT	SEGMENT PARA USE32 PUBLIC 'CODE'
_TEXT	ENDS
;	COMDAT ?Release@CStringData@ATL@@QAEXXZ
_TEXT	SEGMENT PARA USE32 PUBLIC 'CODE'
_TEXT	ENDS
;	COMDAT ??_C@_0L@OIIMFBNE@nRefs?5?$CB?$DN?50?$AA@
CONST	SEGMENT DWORD USE32 PUBLIC 'CONST'
CONST	ENDS
;	COMDAT ??_C@_0FJ@DMHPDOJC@D?3?2Program?5Files?5?$CIx86?$CJ?2Microsoft@
CONST	SEGMENT DWORD USE32 PUBLIC 'CONST'
CONST	ENDS
;	COMDAT ??_C@_0BA@GOIMFHNK@pStringMgr?5?$CB?$DN?50?$AA@
CONST	SEGMENT DWORD USE32 PUBLIC 'CONST'
CONST	ENDS
;	COMDAT ?data@CStringData@ATL@@QAEPAXXZ
_TEXT	SEGMENT PARA USE32 PUBLIC 'CODE'
_TEXT	ENDS
;	COMDAT ??_C@_0BA@GNIEOBOF@nNewLength?5?$DO?$DN?50?$AA@
CONST	SEGMENT DWORD USE32 PUBLIC 'CONST'
CONST	ENDS
;	COMDAT ??_C@_0N@ILOMLJGA@nLength?5?$DO?$DN?50?$AA@
CONST	SEGMENT DWORD USE32 PUBLIC 'CONST'
CONST	ENDS
;	COMDAT ??_C@_0CD@EEFFJEGJ@nLength?5?$DM?$DN?5GetData?$CI?$CJ?9?$DOnAllocLeng@
CONST	SEGMENT DWORD USE32 PUBLIC 'CONST'
CONST	ENDS
;	COMDAT ?AtlThrow@ATL@@YGXJ@Z
_TEXT	SEGMENT PARA USE32 PUBLIC 'CODE'
_TEXT	ENDS
;	COMDAT ??RCTraceFileAndLineInfo@ATL@@QBAXKIPBDZZ
_TEXT	SEGMENT PARA USE32 PUBLIC 'CODE'
_TEXT	ENDS
;	COMDAT ?TraceV@CTrace@ATL@@QBAXPBDHKI0PAD@Z
_TEXT	SEGMENT PARA USE32 PUBLIC 'CODE'
_TEXT	ENDS
;	COMDAT ??0CTraceFileAndLineInfo@ATL@@QAE@PBDH@Z
_TEXT	SEGMENT PARA USE32 PUBLIC 'CODE'
_TEXT	ENDS
;	COMDAT ??_C@_0FI@NHHJANPC@D?3?2Program?5Files?5?$CIx86?$CJ?2Microsoft@
CONST	SEGMENT DWORD USE32 PUBLIC 'CONST'
CONST	ENDS
;	COMDAT ??_C@_0BF@IAAKIJDJ@AtlThrow?3?5hr?5?$DN?50x?$CFx?6?$AA@
CONST	SEGMENT DWORD USE32 PUBLIC 'CONST'
CONST	ENDS
;	COMDAT ??BCTraceCategory@ATL@@QBEKXZ
_TEXT	SEGMENT PARA USE32 PUBLIC 'CODE'
_TEXT	ENDS
;	COMDAT ?IsShared@CStringData@ATL@@QBE_NXZ
_TEXT	SEGMENT PARA USE32 PUBLIC 'CODE'
_TEXT	ENDS
;	COMDAT ??_C@_0CB@GFHAPKDK@pOldData?9?$DOnAllocLength?5?$DM?5nLength@
CONST	SEGMENT DWORD USE32 PUBLIC 'CONST'
CONST	ENDS
;	COMDAT ?GetDefaultManager@?$StrTraitMFC_DLL@DV?$ChTraitsCRT@D@ATL@@@@SAPAUIAtlStringMgr@ATL@@XZ
_TEXT	SEGMENT PARA USE32 PUBLIC 'CODE'
_TEXT	ENDS
;	COMDAT ??$swap@D@std@@YAXAAD0@Z
_TEXT	SEGMENT PARA USE32 PUBLIC 'CODE'
_TEXT	ENDS
;	COMDAT __TI3?AVout_of_range@std@@
xdata$x	SEGMENT DWORD USE32 PUBLIC 'CONST'
xdata$x	ENDS
;	COMDAT ??1out_of_range@std@@UAE@XZ
_TEXT	SEGMENT PARA USE32 PUBLIC 'CODE'
_TEXT	ENDS
;	COMDAT ??_7out_of_range@std@@6B@
CONST	SEGMENT DWORD USE32 PUBLIC 'CONST'
CONST	ENDS
;	COMDAT ??_R4out_of_range@std@@6B@
rdata$r	SEGMENT DWORD USE32 PUBLIC 'CONST'
rdata$r	ENDS
;	COMDAT ??_R0?AVout_of_range@std@@@8
_DATA	SEGMENT DWORD USE32 PUBLIC 'DATA'
_DATA	ENDS
;	COMDAT ??_R3out_of_range@std@@8
rdata$r	SEGMENT DWORD USE32 PUBLIC 'CONST'
rdata$r	ENDS
;	COMDAT ??_R2out_of_range@std@@8
rdata$r	SEGMENT DWORD USE32 PUBLIC 'CONST'
rdata$r	ENDS
;	COMDAT ??_R1A@?0A@A@out_of_range@std@@8
rdata$r	SEGMENT DWORD USE32 PUBLIC 'CONST'
rdata$r	ENDS
;	COMDAT ??_Gout_of_range@std@@UAEPAXI@Z
_TEXT	SEGMENT PARA USE32 PUBLIC 'CODE'
_TEXT	ENDS
;	COMDAT __CTA3?AVout_of_range@std@@
xdata$x	SEGMENT DWORD USE32 PUBLIC 'CONST'
xdata$x	ENDS
;	COMDAT __CT??_R0?AVout_of_range@std@@@8??0out_of_range@std@@QAE@ABV01@@Z40
xdata$x	SEGMENT DWORD USE32 PUBLIC 'CONST'
xdata$x	ENDS
;	COMDAT ??0out_of_range@std@@QAE@ABV01@@Z
_TEXT	SEGMENT PARA USE32 PUBLIC 'CODE'
_TEXT	ENDS
;	COMDAT ??_C@_0BM@PAPJHAGI@invalid?5map?1set?$DMT?$DO?5iterator?$AA@
CONST	SEGMENT DWORD USE32 PUBLIC 'CONST'
CONST	ENDS
;	COMDAT ??0out_of_range@std@@QAE@ABV?$basic_string@DU?$char_traits@D@std@@V?$allocator@D@2@@1@@Z
_TEXT	SEGMENT PARA USE32 PUBLIC 'CODE'
_TEXT	ENDS
;	COMDAT ?_Peek@?$istreambuf_iterator@_WU?$char_traits@_W@std@@@std@@AAE_WXZ
_TEXT	SEGMENT PARA USE32 PUBLIC 'CODE'
_TEXT	ENDS
;	COMDAT ?_Peek@?$istreambuf_iterator@DU?$char_traits@D@std@@@std@@AAEDXZ
_TEXT	SEGMENT PARA USE32 PUBLIC 'CODE'
_TEXT	ENDS
;	COMDAT ??$use_facet@V?$ctype@_W@std@@@std@@YAABV?$ctype@_W@0@ABVlocale@0@@Z
_TEXT	SEGMENT PARA USE32 PUBLIC 'CODE'
_TEXT	ENDS
;	COMDAT ??_S?$ctype@_W@std@@6B@
CONST	SEGMENT DWORD USE32 PUBLIC 'CONST'
CONST	ENDS
;	COMDAT ??_R4?$ctype@_W@std@@6B@
rdata$r	SEGMENT DWORD USE32 PUBLIC 'CONST'
rdata$r	ENDS
;	COMDAT ??_R0?AV?$ctype@_W@std@@@8
_DATA	SEGMENT DWORD USE32 PUBLIC 'DATA'
_DATA	ENDS
;	COMDAT ??_R3?$ctype@_W@std@@8
rdata$r	SEGMENT DWORD USE32 PUBLIC 'CONST'
rdata$r	ENDS
;	COMDAT ??_R2?$ctype@_W@std@@8
rdata$r	SEGMENT DWORD USE32 PUBLIC 'CONST'
rdata$r	ENDS
;	COMDAT ??_R1A@?0A@A@?$ctype@_W@std@@8
rdata$r	SEGMENT DWORD USE32 PUBLIC 'CONST'
rdata$r	ENDS
;	COMDAT ??_R1A@?0A@A@ctype_base@std@@8
rdata$r	SEGMENT DWORD USE32 PUBLIC 'CONST'
rdata$r	ENDS
;	COMDAT ??_R0?AUctype_base@std@@@8
_DATA	SEGMENT DWORD USE32 PUBLIC 'DATA'
_DATA	ENDS
;	COMDAT ??_G?$ctype@_W@std@@MAEPAXI@Z
_TEXT	SEGMENT PARA USE32 PUBLIC 'CODE'
_TEXT	ENDS
;	COMDAT ??_C@_08EPJLHIJG@bad?5cast?$AA@
CONST	SEGMENT DWORD USE32 PUBLIC 'CONST'
CONST	ENDS
;	COMDAT __TI2?AVbad_cast@@
xdata$x	SEGMENT DWORD USE32 PUBLIC 'CONST'
xdata$x	ENDS
;	COMDAT __CTA2?AVbad_cast@@
xdata$x	SEGMENT DWORD USE32 PUBLIC 'CONST'
xdata$x	ENDS
;	COMDAT __CT??_R0?AVbad_cast@@@8??0bad_cast@@QAE@ABV0@@Z12
xdata$x	SEGMENT DWORD USE32 PUBLIC 'CONST'
xdata$x	ENDS
;	COMDAT ??_R0?AVbad_cast@@@8
_DATA	SEGMENT DWORD USE32 PUBLIC 'DATA'
_DATA	ENDS
;	COMDAT ??$_DebugHeapDelete@Vfacet@locale@std@@@std@@YAXPAVfacet@locale@0@@Z
_TEXT	SEGMENT PARA USE32 PUBLIC 'CODE'
_TEXT	ENDS
;	COMDAT ??$use_facet@V?$ctype@D@std@@@std@@YAABV?$ctype@D@0@ABVlocale@0@@Z
_TEXT	SEGMENT PARA USE32 PUBLIC 'CODE'
_TEXT	ENDS
;	COMDAT ??_S?$ctype@D@std@@6B@
CONST	SEGMENT DWORD USE32 PUBLIC 'CONST'
CONST	ENDS
;	COMDAT ??_R4?$ctype@D@std@@6B@
rdata$r	SEGMENT DWORD USE32 PUBLIC 'CONST'
rdata$r	ENDS
;	COMDAT ??_R0?AV?$ctype@D@std@@@8
_DATA	SEGMENT DWORD USE32 PUBLIC 'DATA'
_DATA	ENDS
;	COMDAT ??_R3?$ctype@D@std@@8
rdata$r	SEGMENT DWORD USE32 PUBLIC 'CONST'
rdata$r	ENDS
;	COMDAT ??_R2?$ctype@D@std@@8
rdata$r	SEGMENT DWORD USE32 PUBLIC 'CONST'
rdata$r	ENDS
;	COMDAT ??_R1A@?0A@A@?$ctype@D@std@@8
rdata$r	SEGMENT DWORD USE32 PUBLIC 'CONST'
rdata$r	ENDS
;	COMDAT ??_G?$ctype@D@std@@MAEPAXI@Z
_TEXT	SEGMENT PARA USE32 PUBLIC 'CODE'
_TEXT	ENDS
;	COMDAT ??_S?$numpunct@_W@std@@6B@
CONST	SEGMENT DWORD USE32 PUBLIC 'CONST'
CONST	ENDS
;	COMDAT ??_S?$numpunct@D@std@@6B@
CONST	SEGMENT DWORD USE32 PUBLIC 'CONST'
CONST	ENDS
;	COMDAT _wmemmove
_TEXT	SEGMENT PARA USE32 PUBLIC 'CODE'
_TEXT	ENDS
;	COMDAT ?deallocate@?$allocator@_W@std@@QAEXPA_WI@Z
_TEXT	SEGMENT PARA USE32 PUBLIC 'CODE'
_TEXT	ENDS
;	COMDAT ??0?$allocator@_W@std@@QAE@ABV01@@Z
_TEXT	SEGMENT PARA USE32 PUBLIC 'CODE'
_TEXT	ENDS
;	COMDAT ??$?HDU?$char_traits@D@std@@V?$allocator@D@1@@std@@YA?AV?$basic_string@DU?$char_traits@D@std@@V?$allocator@D@2@@0@ABV10@PBD@Z
_TEXT	SEGMENT PARA USE32 PUBLIC 'CODE'
_TEXT	ENDS
;	COMDAT ?IsLocked@CStringData@ATL@@QBE_NXZ
_TEXT	SEGMENT PARA USE32 PUBLIC 'CODE'
_TEXT	ENDS
;	COMDAT ?_messageEntries@CSkinWnd@@0QBUAFX_MSGMAP_ENTRY@@B
CONST	SEGMENT DWORD USE32 PUBLIC 'CONST'
CONST	ENDS
;	COMDAT ?messageMap@CSkinWnd@@1UAFX_MSGMAP@@B
CONST	SEGMENT DWORD USE32 PUBLIC 'CONST'
CONST	ENDS
;	COMDAT ??_7IEventListener@@6B@
CONST	SEGMENT DWORD USE32 PUBLIC 'CONST'
CONST	ENDS
;	COMDAT ??_7CSkinWnd@@6BIEventListener@@@
CONST	SEGMENT DWORD USE32 PUBLIC 'CONST'
CONST	ENDS
;	COMDAT ??_7CSkinWnd@@6BCFrameWnd@@@
CONST	SEGMENT DWORD USE32 PUBLIC 'CONST'
CONST	ENDS
;	COMDAT ?classCSkinWnd@CSkinWnd@@2UCRuntimeClass@@B
CONST	SEGMENT DWORD USE32 PUBLIC 'CONST'
CONST	ENDS
;	COMDAT ?clsid@?1??GetClsid@CShockwaveFlash@@QAEABU_GUID@@XZ@4U3@B
CONST	SEGMENT DWORD USE32 PUBLIC 'CONST'
CONST	ENDS
;	COMDAT ??_7P2PObserver@@6B@
CONST	SEGMENT DWORD USE32 PUBLIC 'CONST'
CONST	ENDS
;	COMDAT ??_7HTTPObserver@@6B@
CONST	SEGMENT DWORD USE32 PUBLIC 'CONST'
CONST	ENDS
;	COMDAT ??_7IData@@6B@
CONST	SEGMENT DWORD USE32 PUBLIC 'CONST'
CONST	ENDS
;	COMDAT ??_7CGdiPlusBitmap@@6B@
CONST	SEGMENT DWORD USE32 PUBLIC 'CONST'
CONST	ENDS
;	COMDAT ??_7DIBINFO@@6B@
CONST	SEGMENT DWORD USE32 PUBLIC 'CONST'
CONST	ENDS
;	COMDAT ?FindStringResourceInstance@?$StrTraitMFC_DLL@DV?$ChTraitsCRT@D@ATL@@@@SAPAUHINSTANCE__@@I@Z
_TEXT	SEGMENT PARA USE32 PUBLIC 'CODE'
_TEXT	ENDS
;	COMDAT ?AtlGetStringResourceImage@ATL@@YAPBUATLSTRINGRESOURCEIMAGE@1@PAUHINSTANCE__@@I@Z
_TEXT	SEGMENT PARA USE32 PUBLIC 'CODE'
_TEXT	ENDS
;	COMDAT ?_AtlGetStringResourceImage@ATL@@YAPBUATLSTRINGRESOURCEIMAGE@1@PAUHINSTANCE__@@PAUHRSRC__@@I@Z
_TEXT	SEGMENT PARA USE32 PUBLIC 'CODE'
_TEXT	ENDS
;	COMDAT ?GetBaseTypeLength@?$ChTraitsCRT@D@ATL@@SAHPB_WH@Z
_TEXT	SEGMENT PARA USE32 PUBLIC 'CODE'
_TEXT	ENDS
;	COMDAT ?_AtlGetConversionACP@ATL@@YGIXZ
_TEXT	SEGMENT PARA USE32 PUBLIC 'CODE'
_TEXT	ENDS
;	COMDAT ?g_pfnGetThreadACP@ATL@@3P6GIXZA
_DATA	SEGMENT DWORD USE32 PUBLIC 'DATA'
_DATA	ENDS
;	COMDAT ?_AtlGetThreadACPThunk@ATL@@YGIXZ
_TEXT	SEGMENT PARA USE32 PUBLIC 'CODE'
_TEXT	ENDS
;	COMDAT ?_AtlGetThreadACPReal@ATL@@YGIXZ
_TEXT	SEGMENT PARA USE32 PUBLIC 'CODE'
_TEXT	ENDS
;	COMDAT ?_AtlGetThreadACPFake@ATL@@YGIXZ
_TEXT	SEGMENT PARA USE32 PUBLIC 'CODE'
_TEXT	ENDS
;	COMDAT ?InterlockedExchangePointer@@YGPAXPAPAXPAX@Z
_TEXT	SEGMENT PARA USE32 PUBLIC 'CODE'
_TEXT	ENDS
;	COMDAT ?ConvertToBaseType@?$ChTraitsCRT@D@ATL@@SAXPADHPB_WH@Z
_TEXT	SEGMENT PARA USE32 PUBLIC 'CODE'
_TEXT	ENDS
;	COMDAT ??_C@_0CJ@FJEKGMMD@Warning?3?5implicit?5LoadString?$CI?$CFu?$CJ@
CONST	SEGMENT DWORD USE32 PUBLIC 'CONST'
CONST	ENDS
;	COMDAT ?AddRef@CStringData@ATL@@QAEXXZ
_TEXT	SEGMENT PARA USE32 PUBLIC 'CODE'
_TEXT	ENDS
;	COMDAT ??_C@_09EEBKLCFA@nRefs?5?$DO?50?$AA@
CONST	SEGMENT DWORD USE32 PUBLIC 'CONST'
CONST	ENDS
;	COMDAT ?GetLastStatus@Image@Gdiplus@@QBE?AW4Status@2@XZ
_TEXT	SEGMENT PARA USE32 PUBLIC 'CODE'
_TEXT	ENDS
;	COMDAT ?FromFile@Bitmap@Gdiplus@@SAPAV12@PB_WH@Z
_TEXT	SEGMENT PARA USE32 PUBLIC 'CODE'
_TEXT	ENDS
;	COMDAT ??2GdiplusBase@Gdiplus@@SAPAXI@Z
_TEXT	SEGMENT PARA USE32 PUBLIC 'CODE'
_TEXT	ENDS
;	COMDAT ??3GdiplusBase@Gdiplus@@SAXPAX@Z
_TEXT	SEGMENT PARA USE32 PUBLIC 'CODE'
_TEXT	ENDS
;	COMDAT ??0Bitmap@Gdiplus@@QAE@PB_WH@Z
_TEXT	SEGMENT PARA USE32 PUBLIC 'CODE'
_TEXT	ENDS
;	COMDAT ??0Image@Gdiplus@@IAE@XZ
_TEXT	SEGMENT PARA USE32 PUBLIC 'CODE'
_TEXT	ENDS
;	COMDAT ??_7Image@Gdiplus@@6B@
CONST	SEGMENT DWORD USE32 PUBLIC 'CONST'
CONST	ENDS
;	COMDAT ??_R4Image@Gdiplus@@6B@
rdata$r	SEGMENT DWORD USE32 PUBLIC 'CONST'
rdata$r	ENDS
;	COMDAT ??_R0?AVImage@Gdiplus@@@8
_DATA	SEGMENT DWORD USE32 PUBLIC 'DATA'
_DATA	ENDS
;	COMDAT ??_R3Image@Gdiplus@@8
rdata$r	SEGMENT DWORD USE32 PUBLIC 'CONST'
rdata$r	ENDS
;	COMDAT ??_R2Image@Gdiplus@@8
rdata$r	SEGMENT DWORD USE32 PUBLIC 'CONST'
rdata$r	ENDS
;	COMDAT ??_R1A@?0A@A@Image@Gdiplus@@8
rdata$r	SEGMENT DWORD USE32 PUBLIC 'CONST'
rdata$r	ENDS
;	COMDAT ??_R13?0A@A@GdiplusBase@Gdiplus@@8
rdata$r	SEGMENT DWORD USE32 PUBLIC 'CONST'
rdata$r	ENDS
;	COMDAT ??_R0?AVGdiplusBase@Gdiplus@@@8
_DATA	SEGMENT DWORD USE32 PUBLIC 'DATA'
_DATA	ENDS
;	COMDAT ??_GImage@Gdiplus@@UAEPAXI@Z
_TEXT	SEGMENT PARA USE32 PUBLIC 'CODE'
_TEXT	ENDS
;	COMDAT ?Clone@Image@Gdiplus@@UAEPAV12@XZ
_TEXT	SEGMENT PARA USE32 PUBLIC 'CODE'
_TEXT	ENDS
;	COMDAT ?SetStatus@Image@Gdiplus@@IBE?AW4Status@2@W432@@Z
_TEXT	SEGMENT PARA USE32 PUBLIC 'CODE'
_TEXT	ENDS
;	COMDAT ??0Image@Gdiplus@@IAE@PAVGpImage@1@W4Status@1@@Z
_TEXT	SEGMENT PARA USE32 PUBLIC 'CODE'
_TEXT	ENDS
;	COMDAT ??1Image@Gdiplus@@UAE@XZ
_TEXT	SEGMENT PARA USE32 PUBLIC 'CODE'
_TEXT	ENDS
;	COMDAT ??_7Bitmap@Gdiplus@@6B@
CONST	SEGMENT DWORD USE32 PUBLIC 'CONST'
CONST	ENDS
;	COMDAT ??_R4Bitmap@Gdiplus@@6B@
rdata$r	SEGMENT DWORD USE32 PUBLIC 'CONST'
rdata$r	ENDS
;	COMDAT ??_R0?AVBitmap@Gdiplus@@@8
_DATA	SEGMENT DWORD USE32 PUBLIC 'DATA'
_DATA	ENDS
;	COMDAT ??_R3Bitmap@Gdiplus@@8
rdata$r	SEGMENT DWORD USE32 PUBLIC 'CONST'
rdata$r	ENDS
;	COMDAT ??_R2Bitmap@Gdiplus@@8
rdata$r	SEGMENT DWORD USE32 PUBLIC 'CONST'
rdata$r	ENDS
;	COMDAT ??_R1A@?0A@A@Bitmap@Gdiplus@@8
rdata$r	SEGMENT DWORD USE32 PUBLIC 'CONST'
rdata$r	ENDS
;	COMDAT ??_GBitmap@Gdiplus@@UAEPAXI@Z
_TEXT	SEGMENT PARA USE32 PUBLIC 'CODE'
_TEXT	ENDS
;	COMDAT ??1Bitmap@Gdiplus@@UAE@XZ
_TEXT	SEGMENT PARA USE32 PUBLIC 'CODE'
_TEXT	ENDS
;	COMDAT ?SetNativeImage@Image@Gdiplus@@IAEXPAVGpImage@2@@Z
_TEXT	SEGMENT PARA USE32 PUBLIC 'CODE'
_TEXT	ENDS
;	COMDAT ??_7CGdiPlusBitmap@CSkinButton@@6B@
CONST	SEGMENT DWORD USE32 PUBLIC 'CONST'
CONST	ENDS
sxdata	SEGMENT DWORD USE32 'SXDATA'
sxdata	ENDS
FLAT	GROUP _DATA, CONST, _BSS
	ASSUME	CS: FLAT, DS: FLAT, SS: FLAT
endif

INCLUDELIB MSVCRTD
INCLUDELIB OLDNAMES

PUBLIC	?classCSkinWnd@CSkinWnd@@2UCRuntimeClass@@B	; CSkinWnd::classCSkinWnd
PUBLIC	?CreateObject@CSkinWnd@@SGPAVCObject@@XZ	; CSkinWnd::CreateObject
PUBLIC	?_messageEntries@CSkinWnd@@0QBUAFX_MSGMAP_ENTRY@@B ; CSkinWnd::_messageEntries
PUBLIC	?messageMap@CSkinWnd@@1UAFX_MSGMAP@@B		; CSkinWnd::messageMap
PUBLIC	?OnCreate@CSkinWnd@@QAEHPAUtagCREATESTRUCTA@@@Z	; CSkinWnd::OnCreate
PUBLIC	?OnPaint@CSkinWnd@@QAEXXZ			; CSkinWnd::OnPaint
PUBLIC	?OnVScroll@CSkinWnd@@QAEXIIPAVCScrollBar@@@Z	; CSkinWnd::OnVScroll
PUBLIC	?OnSize@CSkinWnd@@QAEXIHH@Z			; CSkinWnd::OnSize
PUBLIC	?OnMouseWheel@CSkinWnd@@QAEHIFVCPoint@@@Z	; CSkinWnd::OnMouseWheel
PUBLIC	?OnDestroy@CSkinWnd@@QAEXXZ			; CSkinWnd::OnDestroy
PUBLIC	?OnNcPaint@CSkinWnd@@QAEXXZ			; CSkinWnd::OnNcPaint
PUBLIC	?OnSkinDownLoadFailed@CSkinWnd@@QAEJIJ@Z	; CSkinWnd::OnSkinDownLoadFailed
PUBLIC	?g_pfnGetThreadACP@ATL@@3P6GIXZA		; ATL::g_pfnGetThreadACP
PUBLIC	?_AtlGetThreadACPThunk@ATL@@YGIXZ		; ATL::_AtlGetThreadACPThunk
EXTRN	?GetThisClass@CFrameWnd@@SGPAUCRuntimeClass@@XZ:NEAR ; CFrameWnd::GetThisClass
EXTRN	?GetThisMessageMap@CFrameWnd@@KGPBUAFX_MSGMAP@@XZ:NEAR ; CFrameWnd::GetThisMessageMap
CONST	SEGMENT
$SG191656 DB	'int', 00H
CONST	ENDS
_DATA	SEGMENT
_TYPE_CONFIG_INT DD FLAT:$SG191656
_DATA	ENDS
CONST	SEGMENT
$SG191658 DB	'str', 00H
CONST	ENDS
_DATA	SEGMENT
_TYPE_CONFIG_STR DD FLAT:$SG191658
_DATA	ENDS
CONST	SEGMENT
$SG191660 DB	'double', 00H
CONST	ENDS
_DATA	SEGMENT
_TYPE_CONFIG_DOUBLE DD FLAT:$SG191660
_DATA	ENDS
CONST	SEGMENT
	ORG $+1
$SG191662 DB	'bool', 00H
CONST	ENDS
_DATA	SEGMENT
_TYPE_CONFIG_BOOL DD FLAT:$SG191662
_DATA	ENDS
CONST	SEGMENT
	ORG $+3
$SG191664 DB	'sepint', 00H
CONST	ENDS
_DATA	SEGMENT
_TYPE_CONFIG_INT_HASSEP DD FLAT:$SG191664
_DATA	ENDS
CONST	SEGMENT
	ORG $+1
$SG191666 DB	'sepstr', 00H
CONST	ENDS
_DATA	SEGMENT
_TYPE_CONFIG_STR_HASSEP DD FLAT:$SG191666
_DATA	ENDS
CONST	SEGMENT
	ORG $+1
$SG191668 DB	'sepdouble', 00H
CONST	ENDS
_DATA	SEGMENT
_TYPE_CONFIG_DOUBLE_HASSEP DD FLAT:$SG191668
_DATA	ENDS
CONST	SEGMENT
	ORG $+2
$SG191670 DB	'sepbool', 00H
CONST	ENDS
_DATA	SEGMENT
_TYPE_CONFIG_BOOL_HASSEP DD FLAT:$SG191670
_DATA	ENDS
CONST	SEGMENT
$SG191672 DB	'Setting', 00H
CONST	ENDS
_DATA	SEGMENT
_CONF_SETTING_MODULE_NAME DD FLAT:$SG191672
_DATA	ENDS
CONST	SEGMENT
$SG191674 DB	'skin', 00H
CONST	ENDS
_DATA	SEGMENT
_CONF_SETTING_SKIN_IDX DD FLAT:$SG191674
_DATA	ENDS
CONST	SEGMENT
	ORG $+3
$SG191676 DB	'MainPage', 00H
CONST	ENDS
_DATA	SEGMENT
_CONF_SETTING_CONFIG_MAIN_PAGE DD FLAT:$SG191676
_DATA	ENDS
CONST	SEGMENT
	ORG $+3
$SG191678 DB	'ProblemReport', 00H
CONST	ENDS
_DATA	SEGMENT
_CONF_SETTING_CONFIG_PROBLEM_REPORT DD FLAT:$SG191678
_DATA	ENDS
CONST	SEGMENT
	ORG $+2
$SG191680 DB	'HomePage', 00H
CONST	ENDS
_DATA	SEGMENT
_CONF_SETTING_CONFIG_HOME_PAGE DD FLAT:$SG191680
_DATA	ENDS
CONST	SEGMENT
	ORG $+3
$SG191682 DB	'askexit', 00H
CONST	ENDS
_DATA	SEGMENT
_CONF_SETTING_CONFIG_IFASKEXIT DD FLAT:$SG191682
_DATA	ENDS
CONST	SEGMENT
$SG191684 DB	'exitchoice', 00H
CONST	ENDS
_DATA	SEGMENT
_CONF_SETTING_CONFIG_EXITCHOICE DD FLAT:$SG191684
_DATA	ENDS
CONST	SEGMENT
	ORG $+1
$SG191686 DB	'UN', 00H
CONST	ENDS
_DATA	SEGMENT
_CONF_SETTING_LOGIN_USER_NAME DD FLAT:$SG191686
_DATA	ENDS
CONST	SEGMENT
	ORG $+1
$SG191688 DB	'PW', 00H
CONST	ENDS
_DATA	SEGMENT
_CONF_SETTING_LOGIN_PASSWORD DD FLAT:$SG191688
_DATA	ENDS
CONST	SEGMENT
	ORG $+1
$SG191690 DB	'NetID', 00H
CONST	ENDS
_DATA	SEGMENT
_CONF_SETTING_NETID DD FLAT:$SG191690
_DATA	ENDS
CONST	SEGMENT
	ORG $+2
$SG191692 DB	'ChangeColorValue', 00H
CONST	ENDS
_DATA	SEGMENT
_CONF_SETTING_COLOR DD FLAT:$SG191692
_DATA	ENDS
CONST	SEGMENT
	ORG $+3
$SG191694 DB	'changeColorLight', 00H
CONST	ENDS
_DATA	SEGMENT
_CONF_SETTING_LIGHT DD FLAT:$SG191694
_DATA	ENDS
CONST	SEGMENT
	ORG $+3
$SG191696 DB	'ColorIndex', 00H
CONST	ENDS
_DATA	SEGMENT
_CONF_SETTING_COLOR_BTN_INDEX DD FLAT:$SG191696
_DATA	ENDS
CONST	SEGMENT
	ORG $+1
$SG191698 DB	'ColorUser', 00H
CONST	ENDS
_DATA	SEGMENT
_CONF_SETTING_COLOR_USER DD FLAT:$SG191698
_DATA	ENDS
CONST	SEGMENT
	ORG $+2
$SG191700 DB	'FirstTimeChangeSkin', 00H
CONST	ENDS
_DATA	SEGMENT
_CONF_SETTING_FIRST_TIME_CHANGESKIN DD FLAT:$SG191700
_DATA	ENDS
CONST	SEGMENT
$SG191784 DB	'.\src\LayoutMgr\ChangeColor\SkinWnd.cpp', 00H
$SG191785 DB	'.\src\LayoutMgr\ChangeColor\SkinWnd.cpp', 00H
$SG191786 DB	'CSkinWnd', 00H
CONST	ENDS
;	COMDAT ?classCSkinWnd@CSkinWnd@@2UCRuntimeClass@@B
CONST	SEGMENT
?classCSkinWnd@CSkinWnd@@2UCRuntimeClass@@B DD FLAT:$SG191786 ; CSkinWnd::classCSkinWnd
	DD	02e8H
	DD	0ffffH
	DD	FLAT:?CreateObject@CSkinWnd@@SGPAVCObject@@XZ
	DD	FLAT:?GetThisClass@CFrameWnd@@SGPAUCRuntimeClass@@XZ
	DD	00H
	DD	00H
CONST	ENDS
CONST	SEGMENT
	ORG $+3
$SG191798 DB	0cbH, 0ceH, 0ccH, 0e5H, 00H
CONST	ENDS
;	COMDAT ?_messageEntries@CSkinWnd@@0QBUAFX_MSGMAP_ENTRY@@B
CONST	SEGMENT
?_messageEntries@CSkinWnd@@0QBUAFX_MSGMAP_ENTRY@@B DD 01H ; CSkinWnd::_messageEntries
	DD	00H
	DD	00H
	DD	00H
	DD	0dH
	DD	FLAT:?OnCreate@CSkinWnd@@QAEHPAUtagCREATESTRUCTA@@@Z
	DD	0fH
	DD	00H
	DD	00H
	DD	00H
	DD	010H
	DD	FLAT:?OnPaint@CSkinWnd@@QAEXXZ
	DD	0115H
	DD	00H
	DD	00H
	DD	00H
	DD	027H
	DD	FLAT:?OnVScroll@CSkinWnd@@QAEXIIPAVCScrollBar@@@Z
	DD	05H
	DD	00H
	DD	00H
	DD	00H
	DD	016H
	DD	FLAT:?OnSize@CSkinWnd@@QAEXIHH@Z
	DD	020aH
	DD	00H
	DD	00H
	DD	00H
	DD	034H
	DD	FLAT:?OnMouseWheel@CSkinWnd@@QAEHIFVCPoint@@@Z
	DD	02H
	DD	00H
	DD	00H
	DD	00H
	DD	010H
	DD	FLAT:?OnDestroy@CSkinWnd@@QAEXXZ
	DD	085H
	DD	00H
	DD	00H
	DD	00H
	DD	010H
	DD	FLAT:?OnNcPaint@CSkinWnd@@QAEXXZ
	DD	0d19H
	DD	00H
	DD	00H
	DD	00H
	DD	0eH
	DD	FLAT:?OnSkinDownLoadFailed@CSkinWnd@@QAEJIJ@Z
	DD	00H
	DD	00H
	DD	00H
	DD	00H
	DD	00H
	DD	00H
CONST	ENDS
;	COMDAT ?messageMap@CSkinWnd@@1UAFX_MSGMAP@@B
CONST	SEGMENT
?messageMap@CSkinWnd@@1UAFX_MSGMAP@@B DD FLAT:?GetThisMessageMap@CFrameWnd@@KGPBUAFX_MSGMAP@@XZ ; CSkinWnd::messageMap
	DD	FLAT:?_messageEntries@CSkinWnd@@0QBUAFX_MSGMAP_ENTRY@@B
CONST	ENDS
CONST	SEGMENT
	ORG $+3
$SG192005 DB	'.\src\LayoutMgr\ChangeColor\SkinWnd.cpp', 00H
$SG192006 DB	'.\src\LayoutMgr\ChangeColor\SkinWnd.cpp', 00H
$SG192204 DB	'default', 00H
$SG192205 DB	'\', 00H
	ORG $+2
$SG192219 DB	'yes.png', 00H
$SG192220 DB	'\png\', 00H
$SG192225 DB	00H
	ORG $+1
$SG192248 DB	0c6H, 0a4H, 0b7H, 0f4H, '-%s', 00H
$SG192254 DB	00H
	ORG $+3
$SG192301 DB	0ccH, 0e1H, 0caH, 0beH, 00H
	ORG $+3
$SG192302 DB	0cfH, 0c2H, 0d4H, 0d8H, 0c6H, 0a4H, 0b7H, 0f4H, 0caH, 0a7H
	DB	0b0H, 0dcH, '!', 00H
CONST	ENDS
;	COMDAT ?g_pfnGetThreadACP@ATL@@3P6GIXZA
_DATA	SEGMENT
?g_pfnGetThreadACP@ATL@@3P6GIXZA DD FLAT:?_AtlGetThreadACPThunk@ATL@@YGIXZ ; ATL::g_pfnGetThreadACP
_DATA	ENDS
PUBLIC	?InterlockedExchangePointer@@YGPAXPAPAXPAX@Z	; InterlockedExchangePointer
PUBLIC	?_AtlGetThreadACPFake@ATL@@YGIXZ		; ATL::_AtlGetThreadACPFake
PUBLIC	?_AtlGetThreadACPReal@ATL@@YGIXZ		; ATL::_AtlGetThreadACPReal
EXTRN	__RTC_InitBase:NEAR
EXTRN	__RTC_Shutdown:NEAR
EXTRN	__RTC_CheckEsp:NEAR
EXTRN	___security_cookie:DWORD
EXTRN	@_RTC_CheckStackVars@8:NEAR
EXTRN	@__security_check_cookie@4:NEAR
EXTRN	__imp__GetVersionExA@4:NEAR
;	COMDAT rtc$IMZ
; File d:\program files (x86)\microsoft visual studio .net 2003\vc7\atlmfc\include\atlconv.h
rtc$IMZ	SEGMENT
__RTC_InitBase.rtc$IMZ DD FLAT:__RTC_InitBase
rtc$IMZ	ENDS
;	COMDAT rtc$TMZ
rtc$TMZ	SEGMENT
__RTC_Shutdown.rtc$TMZ DD FLAT:__RTC_Shutdown
; Function compile flags: /Odt /RTCsu
rtc$TMZ	ENDS
;	COMDAT ?_AtlGetThreadACPThunk@ATL@@YGIXZ
_TEXT	SEGMENT
_pfnGetThreadACP$ = -164				; size = 4
_ver$ = -156						; size = 148
__$ArrayPad$ = -4					; size = 4
__$ReturnAddr$ = 4					; size = 4
?_AtlGetThreadACPThunk@ATL@@YGIXZ PROC NEAR		; ATL::_AtlGetThreadACPThunk, COMDAT

; 134  : {

  00000	55		 push	 ebp
  00001	8b ec		 mov	 ebp, esp
  00003	81 ec a4 00 00
	00		 sub	 esp, 164		; 000000a4H
  00009	56		 push	 esi
  0000a	57		 push	 edi
  0000b	8d bd 5c ff ff
	ff		 lea	 edi, DWORD PTR [ebp-164]
  00011	b9 29 00 00 00	 mov	 ecx, 41			; 00000029H
  00016	b8 cc cc cc cc	 mov	 eax, -858993460		; ccccccccH
  0001b	f3 ab		 rep stosd
  0001d	a1 00 00 00 00	 mov	 eax, DWORD PTR ___security_cookie
  00022	89 45 fc	 mov	 DWORD PTR __$ArrayPad$[ebp], eax

; 135  : 	OSVERSIONINFO ver;
; 136  : 	ATLGETTHREADACP pfnGetThreadACP;
; 137  : 
; 138  : 	ver.dwOSVersionInfoSize = sizeof( ver );

  00025	c7 85 64 ff ff
	ff 94 00 00 00	 mov	 DWORD PTR _ver$[ebp], 148 ; 00000094H

; 139  : 	::GetVersionEx( &ver );

  0002f	8b f4		 mov	 esi, esp
  00031	8d 85 64 ff ff
	ff		 lea	 eax, DWORD PTR _ver$[ebp]
  00037	50		 push	 eax
  00038	ff 15 00 00 00
	00		 call	 DWORD PTR __imp__GetVersionExA@4
  0003e	3b f4		 cmp	 esi, esp
  00040	e8 00 00 00 00	 call	 __RTC_CheckEsp

; 140  : 	if( (ver.dwPlatformId == VER_PLATFORM_WIN32_NT) && (ver.dwMajorVersion >= 5) )

  00045	83 bd 74 ff ff
	ff 02		 cmp	 DWORD PTR _ver$[ebp+16], 2
  0004c	75 15		 jne	 SHORT $L24163
  0004e	83 bd 68 ff ff
	ff 05		 cmp	 DWORD PTR _ver$[ebp+4], 5
  00055	72 0c		 jb	 SHORT $L24163

; 141  : 	{
; 142  : 		// On Win2K, CP_THREAD_ACP is supported
; 143  : 		pfnGetThreadACP = _AtlGetThreadACPReal;

  00057	c7 85 5c ff ff
	ff 00 00 00 00	 mov	 DWORD PTR _pfnGetThreadACP$[ebp], OFFSET FLAT:?_AtlGetThreadACPReal@ATL@@YGIXZ ; ATL::_AtlGetThreadACPReal

; 144  : 	}
; 145  : 	else

  00061	eb 0a		 jmp	 SHORT $L24164
$L24163:

; 146  : 	{
; 147  : 		pfnGetThreadACP = _AtlGetThreadACPFake;

  00063	c7 85 5c ff ff
	ff 00 00 00 00	 mov	 DWORD PTR _pfnGetThreadACP$[ebp], OFFSET FLAT:?_AtlGetThreadACPFake@ATL@@YGIXZ ; ATL::_AtlGetThreadACPFake
$L24164:

; 148  : 	}
; 149  : 	InterlockedExchangePointer( reinterpret_cast< void** >(&g_pfnGetThreadACP), pfnGetThreadACP );

  0006d	8b 8d 5c ff ff
	ff		 mov	 ecx, DWORD PTR _pfnGetThreadACP$[ebp]
  00073	51		 push	 ecx
  00074	68 00 00 00 00	 push	 OFFSET FLAT:?g_pfnGetThreadACP@ATL@@3P6GIXZA ; ATL::g_pfnGetThreadACP
  00079	e8 00 00 00 00	 call	 ?InterlockedExchangePointer@@YGPAXPAPAXPAX@Z ; InterlockedExchangePointer

; 150  : 
; 151  : 	return( g_pfnGetThreadACP() );

  0007e	8b f4		 mov	 esi, esp
  00080	ff 15 00 00 00
	00		 call	 DWORD PTR ?g_pfnGetThreadACP@ATL@@3P6GIXZA ; ATL::g_pfnGetThreadACP
  00086	3b f4		 cmp	 esi, esp
  00088	e8 00 00 00 00	 call	 __RTC_CheckEsp

; 152  : }

  0008d	52		 push	 edx
  0008e	8b cd		 mov	 ecx, ebp
  00090	50		 push	 eax
  00091	8d 15 00 00 00
	00		 lea	 edx, DWORD PTR $L193879
  00097	e8 00 00 00 00	 call	 @_RTC_CheckStackVars@8
  0009c	58		 pop	 eax
  0009d	5a		 pop	 edx
  0009e	8b 4d fc	 mov	 ecx, DWORD PTR __$ArrayPad$[ebp]
  000a1	e8 00 00 00 00	 call	 @__security_check_cookie@4
  000a6	5f		 pop	 edi
  000a7	5e		 pop	 esi
  000a8	81 c4 a4 00 00
	00		 add	 esp, 164		; 000000a4H
  000ae	3b ec		 cmp	 ebp, esp
  000b0	e8 00 00 00 00	 call	 __RTC_CheckEsp
  000b5	8b e5		 mov	 esp, ebp
  000b7	5d		 pop	 ebp
  000b8	c3		 ret	 0
$L193879:
  000b9	01 00 00 00	 DD	 1
  000bd	00 00 00 00	 DD	 $L193878
$L193878:
  000c1	64 ff ff ff	 DD	 -156			; ffffff64H
  000c5	94 00 00 00	 DD	 148			; 00000094H
  000c9	00 00 00 00	 DD	 $L193875
$L193875:
  000cd	76		 DB	 118			; 00000076H
  000ce	65		 DB	 101			; 00000065H
  000cf	72		 DB	 114			; 00000072H
  000d0	00		 DB	 0
?_AtlGetThreadACPThunk@ATL@@YGIXZ ENDP			; ATL::_AtlGetThreadACPThunk
_TEXT	ENDS
EXTRN	__imp__InterlockedExchange@8:NEAR
; Function compile flags: /Odt /RTCsu
;	COMDAT ?InterlockedExchangePointer@@YGPAXPAPAXPAX@Z
_TEXT	SEGMENT
_pp$ = 8						; size = 4
_pNew$ = 12						; size = 4
?InterlockedExchangePointer@@YGPAXPAPAXPAX@Z PROC NEAR	; InterlockedExchangePointer, COMDAT

; 91   : {

  00000	55		 push	 ebp
  00001	8b ec		 mov	 ebp, esp
  00003	56		 push	 esi

; 92   : 	return( reinterpret_cast<void*>(static_cast<LONG_PTR>(::InterlockedExchange(reinterpret_cast<LONG*>(pp), static_cast<LONG>(reinterpret_cast<LONG_PTR>(pNew))))) );

  00004	8b f4		 mov	 esi, esp
  00006	8b 45 0c	 mov	 eax, DWORD PTR _pNew$[ebp]
  00009	50		 push	 eax
  0000a	8b 4d 08	 mov	 ecx, DWORD PTR _pp$[ebp]
  0000d	51		 push	 ecx
  0000e	ff 15 00 00 00
	00		 call	 DWORD PTR __imp__InterlockedExchange@8
  00014	3b f4		 cmp	 esi, esp
  00016	e8 00 00 00 00	 call	 __RTC_CheckEsp

; 93   : }

  0001b	5e		 pop	 esi
  0001c	3b ec		 cmp	 ebp, esp
  0001e	e8 00 00 00 00	 call	 __RTC_CheckEsp
  00023	5d		 pop	 ebp
  00024	c2 08 00	 ret	 8
?InterlockedExchangePointer@@YGPAXPAPAXPAX@Z ENDP	; InterlockedExchangePointer
_TEXT	ENDS
EXTRN	__imp__GetACP@0:NEAR
EXTRN	__imp__GetLocaleInfoA@16:NEAR
EXTRN	__imp__GetThreadLocale@0:NEAR
; Function compile flags: /Odt /RTCsu
;	COMDAT ?_AtlGetThreadACPFake@ATL@@YGIXZ
_TEXT	SEGMENT
_pch$24151 = -32					; size = 4
_szACP$ = -24						; size = 7
_lcidThread$ = -12					; size = 4
_nACP$ = -8						; size = 4
__$ArrayPad$ = -4					; size = 4
__$ReturnAddr$ = 4					; size = 4
?_AtlGetThreadACPFake@ATL@@YGIXZ PROC NEAR		; ATL::_AtlGetThreadACPFake, COMDAT

; 101  : {

  00000	55		 push	 ebp
  00001	8b ec		 mov	 ebp, esp
  00003	83 ec 20	 sub	 esp, 32			; 00000020H
  00006	56		 push	 esi
  00007	b8 cc cc cc cc	 mov	 eax, -858993460		; ccccccccH
  0000c	89 45 e0	 mov	 DWORD PTR [ebp-32], eax
  0000f	89 45 e4	 mov	 DWORD PTR [ebp-28], eax
  00012	89 45 e8	 mov	 DWORD PTR [ebp-24], eax
  00015	89 45 ec	 mov	 DWORD PTR [ebp-20], eax
  00018	89 45 f0	 mov	 DWORD PTR [ebp-16], eax
  0001b	89 45 f4	 mov	 DWORD PTR [ebp-12], eax
  0001e	89 45 f8	 mov	 DWORD PTR [ebp-8], eax
  00021	89 45 fc	 mov	 DWORD PTR [ebp-4], eax
  00024	a1 00 00 00 00	 mov	 eax, DWORD PTR ___security_cookie
  00029	89 45 fc	 mov	 DWORD PTR __$ArrayPad$[ebp], eax

; 102  : 	UINT nACP = 0;

  0002c	c7 45 f8 00 00
	00 00		 mov	 DWORD PTR _nACP$[ebp], 0

; 103  : 
; 104  : 	LCID lcidThread = ::GetThreadLocale();

  00033	8b f4		 mov	 esi, esp
  00035	ff 15 00 00 00
	00		 call	 DWORD PTR __imp__GetThreadLocale@0
  0003b	3b f4		 cmp	 esi, esp
  0003d	e8 00 00 00 00	 call	 __RTC_CheckEsp
  00042	89 45 f4	 mov	 DWORD PTR _lcidThread$[ebp], eax

; 105  : 
; 106  : 	char szACP[7];
; 107  : 	// GetLocaleInfoA will fail for a Unicode-only LCID, but those are only supported on 
; 108  : 	// Windows 2000.  Since Windows 2000 supports CP_THREAD_ACP, this code path is never
; 109  : 	// executed on Windows 2000.
; 110  : 	if (::GetLocaleInfoA(lcidThread, LOCALE_IDEFAULTANSICODEPAGE, szACP, 7) != 0)

  00045	8b f4		 mov	 esi, esp
  00047	6a 07		 push	 7
  00049	8d 45 e8	 lea	 eax, DWORD PTR _szACP$[ebp]
  0004c	50		 push	 eax
  0004d	68 04 10 00 00	 push	 4100			; 00001004H
  00052	8b 4d f4	 mov	 ecx, DWORD PTR _lcidThread$[ebp]
  00055	51		 push	 ecx
  00056	ff 15 00 00 00
	00		 call	 DWORD PTR __imp__GetLocaleInfoA@16
  0005c	3b f4		 cmp	 esi, esp
  0005e	e8 00 00 00 00	 call	 __RTC_CheckEsp
  00063	85 c0		 test	 eax, eax
  00065	74 34		 je	 SHORT $L24150

; 111  : 	{
; 112  : 		char* pch = szACP;

  00067	8d 55 e8	 lea	 edx, DWORD PTR _szACP$[ebp]
  0006a	89 55 e0	 mov	 DWORD PTR _pch$24151[ebp], edx
$L24153:

; 113  : 		while (*pch != '\0')

  0006d	8b 45 e0	 mov	 eax, DWORD PTR _pch$24151[ebp]
  00070	0f be 08	 movsx	 ecx, BYTE PTR [eax]
  00073	85 c9		 test	 ecx, ecx
  00075	74 24		 je	 SHORT $L24150

; 114  : 		{
; 115  : 			nACP *= 10;

  00077	8b 55 f8	 mov	 edx, DWORD PTR _nACP$[ebp]
  0007a	6b d2 0a	 imul	 edx, 10			; 0000000aH
  0007d	89 55 f8	 mov	 DWORD PTR _nACP$[ebp], edx

; 116  : 			nACP += *pch++ - '0';

  00080	8b 45 e0	 mov	 eax, DWORD PTR _pch$24151[ebp]
  00083	0f be 08	 movsx	 ecx, BYTE PTR [eax]
  00086	8b 55 f8	 mov	 edx, DWORD PTR _nACP$[ebp]
  00089	8d 44 0a d0	 lea	 eax, DWORD PTR [edx+ecx-48]
  0008d	89 45 f8	 mov	 DWORD PTR _nACP$[ebp], eax
  00090	8b 4d e0	 mov	 ecx, DWORD PTR _pch$24151[ebp]
  00093	83 c1 01	 add	 ecx, 1
  00096	89 4d e0	 mov	 DWORD PTR _pch$24151[ebp], ecx

; 117  : 		}

  00099	eb d2		 jmp	 SHORT $L24153
$L24150:

; 118  : 	}
; 119  : 	// Use the Default ANSI Code Page if we were unable to get the thread ACP or if one does not exist.
; 120  : 	if (nACP == 0)

  0009b	83 7d f8 00	 cmp	 DWORD PTR _nACP$[ebp], 0
  0009f	75 12		 jne	 SHORT $L24155

; 121  : 		nACP = ::GetACP();

  000a1	8b f4		 mov	 esi, esp
  000a3	ff 15 00 00 00
	00		 call	 DWORD PTR __imp__GetACP@0
  000a9	3b f4		 cmp	 esi, esp
  000ab	e8 00 00 00 00	 call	 __RTC_CheckEsp
  000b0	89 45 f8	 mov	 DWORD PTR _nACP$[ebp], eax
$L24155:

; 122  : 
; 123  : 	return nACP;

  000b3	8b 45 f8	 mov	 eax, DWORD PTR _nACP$[ebp]

; 124  : }

  000b6	52		 push	 edx
  000b7	8b cd		 mov	 ecx, ebp
  000b9	50		 push	 eax
  000ba	8d 15 00 00 00
	00		 lea	 edx, DWORD PTR $L193890
  000c0	e8 00 00 00 00	 call	 @_RTC_CheckStackVars@8
  000c5	58		 pop	 eax
  000c6	5a		 pop	 edx
  000c7	8b 4d fc	 mov	 ecx, DWORD PTR __$ArrayPad$[ebp]
  000ca	e8 00 00 00 00	 call	 @__security_check_cookie@4
  000cf	5e		 pop	 esi
  000d0	83 c4 20	 add	 esp, 32			; 00000020H
  000d3	3b ec		 cmp	 ebp, esp
  000d5	e8 00 00 00 00	 call	 __RTC_CheckEsp
  000da	8b e5		 mov	 esp, ebp
  000dc	5d		 pop	 ebp
  000dd	c3		 ret	 0
$L193890:
  000de	01 00 00 00	 DD	 1
  000e2	00 00 00 00	 DD	 $L193889
$L193889:
  000e6	e8 ff ff ff	 DD	 -24			; ffffffe8H
  000ea	07 00 00 00	 DD	 7
  000ee	00 00 00 00	 DD	 $L193887
$L193887:
  000f2	73		 DB	 115			; 00000073H
  000f3	7a		 DB	 122			; 0000007aH
  000f4	41		 DB	 65			; 00000041H
  000f5	43		 DB	 67			; 00000043H
  000f6	50		 DB	 80			; 00000050H
  000f7	00		 DB	 0
?_AtlGetThreadACPFake@ATL@@YGIXZ ENDP			; ATL::_AtlGetThreadACPFake
; Function compile flags: /Odt /RTCsu
_TEXT	ENDS
;	COMDAT ?_AtlGetThreadACPReal@ATL@@YGIXZ
_TEXT	SEGMENT
?_AtlGetThreadACPReal@ATL@@YGIXZ PROC NEAR		; ATL::_AtlGetThreadACPReal, COMDAT

; 127  : {

  00000	55		 push	 ebp
  00001	8b ec		 mov	 ebp, esp

; 128  : 	return( CP_THREAD_ACP );

  00003	b8 03 00 00 00	 mov	 eax, 3

; 129  : }

  00008	5d		 pop	 ebp
  00009	c3		 ret	 0
?_AtlGetThreadACPReal@ATL@@YGIXZ ENDP			; ATL::_AtlGetThreadACPReal
_TEXT	ENDS
PUBLIC	??0CSkinWnd@@QAE@XZ				; CSkinWnd::CSkinWnd
EXTRN	__except_list:DWORD
EXTRN	___CxxFrameHandler:NEAR
EXTRN	??2CObject@@SGPAXIPBDH@Z:NEAR			; CObject::operator new
EXTRN	??3CObject@@SGXPAXPBDH@Z:NEAR			; CObject::operator delete
xdata$x	SEGMENT
$T193904 DD	0ffffffffH
	DD	FLAT:$L193897
$T193901 DD	019930520H
	DD	01H
	DD	FLAT:$T193904
	DD	2 DUP(00H)
	DD	2 DUP(00H)
; Function compile flags: /Odt /RTCsu
; File d:\boxgit\playbox\playbox\dev\prj\playbox\src\layoutmgr\changecolor\skinwnd.cpp
xdata$x	ENDS
_TEXT	SEGMENT
tv75 = -24						; size = 4
$T193894 = -20						; size = 4
$T193893 = -16						; size = 4
__$EHRec$ = -12						; size = 12
?CreateObject@CSkinWnd@@SGPAVCObject@@XZ PROC NEAR	; CSkinWnd::CreateObject

; 18   : IMPLEMENT_DYNCREATE(CSkinWnd, CFrameWnd)

  00000	55		 push	 ebp
  00001	8b ec		 mov	 ebp, esp
  00003	6a ff		 push	 -1
  00005	68 00 00 00 00	 push	 __ehhandler$?CreateObject@CSkinWnd@@SGPAVCObject@@XZ
  0000a	64 a1 00 00 00
	00		 mov	 eax, DWORD PTR fs:__except_list
  00010	50		 push	 eax
  00011	64 89 25 00 00
	00 00		 mov	 DWORD PTR fs:__except_list, esp
  00018	83 ec 0c	 sub	 esp, 12			; 0000000cH
  0001b	c7 45 e8 cc cc
	cc cc		 mov	 DWORD PTR [ebp-24], -858993460 ; ccccccccH
  00022	c7 45 ec cc cc
	cc cc		 mov	 DWORD PTR [ebp-20], -858993460 ; ccccccccH
  00029	c7 45 f0 cc cc
	cc cc		 mov	 DWORD PTR [ebp-16], -858993460 ; ccccccccH
  00030	6a 12		 push	 18			; 00000012H
  00032	68 00 00 00 00	 push	 OFFSET FLAT:$SG191784
  00037	68 e8 02 00 00	 push	 744			; 000002e8H
  0003c	e8 00 00 00 00	 call	 ??2CObject@@SGPAXIPBDH@Z ; CObject::operator new
  00041	89 45 ec	 mov	 DWORD PTR $T193894[ebp], eax
  00044	c7 45 fc 00 00
	00 00		 mov	 DWORD PTR __$EHRec$[ebp+8], 0
  0004b	83 7d ec 00	 cmp	 DWORD PTR $T193894[ebp], 0
  0004f	74 0d		 je	 SHORT $L193895
  00051	8b 4d ec	 mov	 ecx, DWORD PTR $T193894[ebp]
  00054	e8 00 00 00 00	 call	 ??0CSkinWnd@@QAE@XZ	; CSkinWnd::CSkinWnd
  00059	89 45 e8	 mov	 DWORD PTR tv75[ebp], eax
  0005c	eb 07		 jmp	 SHORT $L193896
$L193895:
  0005e	c7 45 e8 00 00
	00 00		 mov	 DWORD PTR tv75[ebp], 0
$L193896:
  00065	8b 45 e8	 mov	 eax, DWORD PTR tv75[ebp]
  00068	89 45 f0	 mov	 DWORD PTR $T193893[ebp], eax
  0006b	c7 45 fc ff ff
	ff ff		 mov	 DWORD PTR __$EHRec$[ebp+8], -1
  00072	8b 45 f0	 mov	 eax, DWORD PTR $T193893[ebp]
  00075	8b 4d f4	 mov	 ecx, DWORD PTR __$EHRec$[ebp]
  00078	64 89 0d 00 00
	00 00		 mov	 DWORD PTR fs:__except_list, ecx
  0007f	83 c4 18	 add	 esp, 24			; 00000018H
  00082	3b ec		 cmp	 ebp, esp
  00084	e8 00 00 00 00	 call	 __RTC_CheckEsp
  00089	8b e5		 mov	 esp, ebp
  0008b	5d		 pop	 ebp
  0008c	c3		 ret	 0
_TEXT	ENDS
text$x	SEGMENT
$L193897:
  00000	6a 12		 push	 18			; 00000012H
  00002	68 00 00 00 00	 push	 OFFSET FLAT:$SG191785
  00007	8b 45 ec	 mov	 eax, DWORD PTR $T193894[ebp]
  0000a	50		 push	 eax
  0000b	e8 00 00 00 00	 call	 ??3CObject@@SGXPAXPBDH@Z ; CObject::operator delete
  00010	c3		 ret	 0
__ehhandler$?CreateObject@CSkinWnd@@SGPAVCObject@@XZ:
  00011	b8 00 00 00 00	 mov	 eax, OFFSET FLAT:$T193901
  00016	e9 00 00 00 00	 jmp	 ___CxxFrameHandler
text$x	ENDS
?CreateObject@CSkinWnd@@SGPAVCObject@@XZ ENDP		; CSkinWnd::CreateObject
PUBLIC	?GetThisClass@CSkinWnd@@SGPAUCRuntimeClass@@XZ	; CSkinWnd::GetThisClass
; Function compile flags: /Odt /RTCsu
_TEXT	SEGMENT
?GetThisClass@CSkinWnd@@SGPAUCRuntimeClass@@XZ PROC NEAR ; CSkinWnd::GetThisClass

; 18   : IMPLEMENT_DYNCREATE(CSkinWnd, CFrameWnd)

  00090	55		 push	 ebp
  00091	8b ec		 mov	 ebp, esp
  00093	b8 00 00 00 00	 mov	 eax, OFFSET FLAT:?classCSkinWnd@CSkinWnd@@2UCRuntimeClass@@B ; CSkinWnd::classCSkinWnd
  00098	5d		 pop	 ebp
  00099	c3		 ret	 0
?GetThisClass@CSkinWnd@@SGPAUCRuntimeClass@@XZ ENDP	; CSkinWnd::GetThisClass
_TEXT	ENDS
PUBLIC	?GetRuntimeClass@CSkinWnd@@UBEPAUCRuntimeClass@@XZ ; CSkinWnd::GetRuntimeClass
; Function compile flags: /Odt /RTCsu
_TEXT	SEGMENT
_this$ = -4						; size = 4
?GetRuntimeClass@CSkinWnd@@UBEPAUCRuntimeClass@@XZ PROC NEAR ; CSkinWnd::GetRuntimeClass
; _this$ = ecx

; 18   : IMPLEMENT_DYNCREATE(CSkinWnd, CFrameWnd)

  000a0	55		 push	 ebp
  000a1	8b ec		 mov	 ebp, esp
  000a3	51		 push	 ecx
  000a4	c7 45 fc cc cc
	cc cc		 mov	 DWORD PTR [ebp-4], -858993460 ; ccccccccH
  000ab	89 4d fc	 mov	 DWORD PTR _this$[ebp], ecx
  000ae	b8 00 00 00 00	 mov	 eax, OFFSET FLAT:?classCSkinWnd@CSkinWnd@@2UCRuntimeClass@@B ; CSkinWnd::classCSkinWnd
  000b3	8b e5		 mov	 esp, ebp
  000b5	5d		 pop	 ebp
  000b6	c3		 ret	 0
?GetRuntimeClass@CSkinWnd@@UBEPAUCRuntimeClass@@XZ ENDP	; CSkinWnd::GetRuntimeClass
_TEXT	ENDS
PUBLIC	?OnSendChangeColor@IEventListener@@UAEXKI_N@Z	; IEventListener::OnSendChangeColor
PUBLIC	?OnSendChangeSubject@IEventListener@@UAEXV?$CStringT@DV?$StrTraitMFC_DLL@DV?$ChTraitsCRT@D@ATL@@@@@ATL@@0@Z ; IEventListener::OnSendChangeSubject
PUBLIC	?OnChangeSkinAndSub@IEventListener@@UAEXABV?$CStringT@DV?$StrTraitMFC_DLL@DV?$ChTraitsCRT@D@ATL@@@@@ATL@@0@Z ; IEventListener::OnChangeSkinAndSub
PUBLIC	?OnStartDownSubject@IEventListener@@UAEXABV?$CStringT@DV?$StrTraitMFC_DLL@DV?$ChTraitsCRT@D@ATL@@@@@ATL@@@Z ; IEventListener::OnStartDownSubject
PUBLIC	?OnFinishDownSubject@IEventListener@@UAEXH@Z	; IEventListener::OnFinishDownSubject
PUBLIC	??0IEventListener@@QAE@XZ			; IEventListener::IEventListener
PUBLIC	??0?$map@V?$CStringT@DV?$StrTraitMFC_DLL@DV?$ChTraitsCRT@D@ATL@@@@@ATL@@PAVCSkinButton@@U?$less@V?$CStringT@DV?$StrTraitMFC_DLL@DV?$ChTraitsCRT@D@ATL@@@@@ATL@@@std@@V?$allocator@U?$pair@$$CBV?$CStringT@DV?$StrTraitMFC_DLL@DV?$ChTraitsCRT@D@ATL@@@@@ATL@@PAVCSkinButton@@@std@@@5@@std@@QAE@XZ ; std::map<ATL::CStringT<char,StrTraitMFC_DLL<char,ATL::ChTraitsCRT<char> > >,CSkinButton *,std::less<ATL::CStringT<char,StrTraitMFC_DLL<char,ATL::ChTraitsCRT<char> > > >,std::allocator<std::pair<ATL::CStringT<char,StrTraitMFC_DLL<char,ATL::ChTraitsCRT<char> > > const ,CSkinButton *> > >::map<ATL::CStringT<char,StrTraitMFC_DLL<char,ATL::ChTraitsCRT<char> > >,CSkinButton *,std::less<ATL::CStringT<char,StrTraitMFC_DLL<char,ATL::ChTraitsCRT<char> > > >,std::allocator<std::pair<ATL::CStringT<char,StrTraitMFC_DLL<char,ATL::ChTraitsCRT<char> > > const ,CSkinButton *> > >
PUBLIC	??1?$map@V?$CStringT@DV?$StrTraitMFC_DLL@DV?$ChTraitsCRT@D@ATL@@@@@ATL@@PAVCSkinButton@@U?$less@V?$CStringT@DV?$StrTraitMFC_DLL@DV?$ChTraitsCRT@D@ATL@@@@@ATL@@@std@@V?$allocator@U?$pair@$$CBV?$CStringT@DV?$StrTraitMFC_DLL@DV?$ChTraitsCRT@D@ATL@@@@@ATL@@PAVCSkinButton@@@std@@@5@@std@@QAE@XZ ; std::map<ATL::CStringT<char,StrTraitMFC_DLL<char,ATL::ChTraitsCRT<char> > >,CSkinButton *,std::less<ATL::CStringT<char,StrTraitMFC_DLL<char,ATL::ChTraitsCRT<char> > > >,std::allocator<std::pair<ATL::CStringT<char,StrTraitMFC_DLL<char,ATL::ChTraitsCRT<char> > > const ,CSkinButton *> > >::~map<ATL::CStringT<char,StrTraitMFC_DLL<char,ATL::ChTraitsCRT<char> > >,CSkinButton *,std::less<ATL::CStringT<char,StrTraitMFC_DLL<char,ATL::ChTraitsCRT<char> > > >,std::allocator<std::pair<ATL::CStringT<char,StrTraitMFC_DLL<char,ATL::ChTraitsCRT<char> > > const ,CSkinButton *> > >
PUBLIC	?GetMessageMap@CSkinWnd@@MBEPBUAFX_MSGMAP@@XZ	; CSkinWnd::GetMessageMap
PUBLIC	?PreCreateWindow@CSkinWnd@@MAEHAAUtagCREATESTRUCTA@@@Z ; CSkinWnd::PreCreateWindow
PUBLIC	?OnCliekSlide@CSkinWnd@@MAEXPAVCSliderCtrl@@@Z	; CSkinWnd::OnCliekSlide
PUBLIC	?OnSendChangeColor@CSkinWnd@@MAEXKI@Z		; CSkinWnd::OnSendChangeColor
PUBLIC	?OnSendChangeSkin@CSkinWnd@@MAEXV?$CStringT@DV?$StrTraitMFC_DLL@DV?$ChTraitsCRT@D@ATL@@@@@ATL@@@Z ; CSkinWnd::OnSendChangeSkin
PUBLIC	?OnCliekButton@CSkinWnd@@UAEXPAVCButton@@@Z	; CSkinWnd::OnCliekButton
PUBLIC	??_7CSkinWnd@@6BCFrameWnd@@@			; CSkinWnd::`vftable'
PUBLIC	??_7CSkinWnd@@6BIEventListener@@@		; CSkinWnd::`vftable'
PUBLIC	??_GCSkinWnd@@UAEPAXI@Z				; CSkinWnd::`scalar deleting destructor'
PUBLIC	??_R1A@?0A@A@CWnd@@8				; CWnd::`RTTI Base Class Descriptor at (0,-1,0,0)'
PUBLIC	??_R0?AVCWnd@@@8				; CWnd `RTTI Type Descriptor'
PUBLIC	??_R1A@?0A@A@CCmdTarget@@8			; CCmdTarget::`RTTI Base Class Descriptor at (0,-1,0,0)'
PUBLIC	??_R0?AVCCmdTarget@@@8				; CCmdTarget `RTTI Type Descriptor'
PUBLIC	??_R1A@?0A@A@CObject@@8				; CObject::`RTTI Base Class Descriptor at (0,-1,0,0)'
PUBLIC	??_R0?AVCObject@@@8				; CObject `RTTI Type Descriptor'
PUBLIC	??0?$list@PAVCSkinButton@@V?$allocator@PAVCSkinButton@@@std@@@std@@QAE@XZ ; std::list<CSkinButton *,std::allocator<CSkinButton *> >::list<CSkinButton *,std::allocator<CSkinButton *> >
PUBLIC	??1?$list@PAVCSkinButton@@V?$allocator@PAVCSkinButton@@@std@@@std@@QAE@XZ ; std::list<CSkinButton *,std::allocator<CSkinButton *> >::~list<CSkinButton *,std::allocator<CSkinButton *> >
PUBLIC	??0iterator@?$list@PAVCSkinButton@@V?$allocator@PAVCSkinButton@@@std@@@std@@QAE@XZ ; std::list<CSkinButton *,std::allocator<CSkinButton *> >::iterator::iterator
PUBLIC	??_R0?AVIEventListener@@@8			; IEventListener `RTTI Type Descriptor'
PUBLIC	??_R4CSkinWnd@@6BCFrameWnd@@@			; CSkinWnd::`RTTI Complete Object Locator'
PUBLIC	??_R0?AVCSkinWnd@@@8				; CSkinWnd `RTTI Type Descriptor'
PUBLIC	??_R3CSkinWnd@@8				; CSkinWnd::`RTTI Class Hierarchy Descriptor'
PUBLIC	??_R2CSkinWnd@@8				; CSkinWnd::`RTTI Base Class Array'
PUBLIC	??_R1A@?0A@A@CSkinWnd@@8			; CSkinWnd::`RTTI Base Class Descriptor at (0,-1,0,0)'
PUBLIC	??_R1A@?0A@A@CFrameWnd@@8			; CFrameWnd::`RTTI Base Class Descriptor at (0,-1,0,0)'
PUBLIC	??_R0?AVCFrameWnd@@@8				; CFrameWnd `RTTI Type Descriptor'
PUBLIC	??_R1NE@?0A@A@IEventListener@@8			; IEventListener::`RTTI Base Class Descriptor at (212,-1,0,0)'
PUBLIC	??_R4CSkinWnd@@6BIEventListener@@@		; CSkinWnd::`RTTI Complete Object Locator'
EXTRN	?GetInterfaceMap@CWnd@@MBEPBUAFX_INTERFACEMAP@@XZ:NEAR ; CWnd::GetInterfaceMap
EXTRN	?EnsureStdObj@CWnd@@UAEJXZ:NEAR			; CWnd::EnsureStdObj
EXTRN	?get_accParent@CWnd@@UAEJPAPAUIDispatch@@@Z:NEAR ; CWnd::get_accParent
EXTRN	?get_accChildCount@CWnd@@UAEJPAJ@Z:NEAR		; CWnd::get_accChildCount
EXTRN	?IsInvokeAllowed@CCmdTarget@@UAEHJ@Z:NEAR	; CCmdTarget::IsInvokeAllowed
EXTRN	?get_accChild@CWnd@@UAEJUtagVARIANT@@PAPAUIDispatch@@@Z:NEAR ; CWnd::get_accChild
EXTRN	?get_accName@CWnd@@UAEJUtagVARIANT@@PAPA_W@Z:NEAR ; CWnd::get_accName
EXTRN	?get_accValue@CWnd@@UAEJUtagVARIANT@@PAPA_W@Z:NEAR ; CWnd::get_accValue
EXTRN	?GetDispatchIID@CCmdTarget@@UAEHPAU_GUID@@@Z:NEAR ; CCmdTarget::GetDispatchIID
EXTRN	?GetTypeInfoCount@CCmdTarget@@UAEIXZ:NEAR	; CCmdTarget::GetTypeInfoCount
EXTRN	?GetTypeLibCache@CCmdTarget@@UAEPAVCTypeLibCache@@XZ:NEAR ; CCmdTarget::GetTypeLibCache
EXTRN	?get_accDescription@CWnd@@UAEJUtagVARIANT@@PAPA_W@Z:NEAR ; CWnd::get_accDescription
EXTRN	?GetTypeLib@CCmdTarget@@UAEJKPAPAUITypeLib@@@Z:NEAR ; CCmdTarget::GetTypeLib
EXTRN	?get_accRole@CWnd@@UAEJUtagVARIANT@@PAU2@@Z:NEAR ; CWnd::get_accRole
EXTRN	?get_accState@CWnd@@UAEJUtagVARIANT@@PAU2@@Z:NEAR ; CWnd::get_accState
EXTRN	?get_accHelp@CWnd@@UAEJUtagVARIANT@@PAPA_W@Z:NEAR ; CWnd::get_accHelp
EXTRN	?get_accHelpTopic@CWnd@@UAEJPAPA_WUtagVARIANT@@PAJ@Z:NEAR ; CWnd::get_accHelpTopic
EXTRN	?get_accKeyboardShortcut@CWnd@@UAEJUtagVARIANT@@PAPA_W@Z:NEAR ; CWnd::get_accKeyboardShortcut
EXTRN	?get_accFocus@CWnd@@UAEJPAUtagVARIANT@@@Z:NEAR	; CWnd::get_accFocus
EXTRN	?get_accSelection@CWnd@@UAEJPAUtagVARIANT@@@Z:NEAR ; CWnd::get_accSelection
EXTRN	?get_accDefaultAction@CWnd@@UAEJUtagVARIANT@@PAPA_W@Z:NEAR ; CWnd::get_accDefaultAction
EXTRN	?GetCommandMap@CCmdTarget@@MBEPBUAFX_OLECMDMAP@@XZ:NEAR ; CCmdTarget::GetCommandMap
EXTRN	?accSelect@CWnd@@UAEJJUtagVARIANT@@@Z:NEAR	; CWnd::accSelect
EXTRN	?accLocation@CWnd@@UAEJPAJ000UtagVARIANT@@@Z:NEAR ; CWnd::accLocation
EXTRN	?GetDispatchMap@CCmdTarget@@MBEPBUAFX_DISPMAP@@XZ:NEAR ; CCmdTarget::GetDispatchMap
EXTRN	?accNavigate@CWnd@@UAEJJUtagVARIANT@@PAU2@@Z:NEAR ; CWnd::accNavigate
EXTRN	?accHitTest@CWnd@@UAEJJJPAUtagVARIANT@@@Z:NEAR	; CWnd::accHitTest
EXTRN	?GetConnectionMap@CCmdTarget@@MBEPBUAFX_CONNECTIONMAP@@XZ:NEAR ; CCmdTarget::GetConnectionMap
EXTRN	?accDoDefaultAction@CWnd@@UAEJUtagVARIANT@@@Z:NEAR ; CWnd::accDoDefaultAction
EXTRN	??_ECSkinWnd@@UAEPAXI@Z:NEAR			; CSkinWnd::`vector deleting destructor'
EXTRN	?put_accName@CWnd@@UAEJUtagVARIANT@@PA_W@Z:NEAR	; CWnd::put_accName
EXTRN	?put_accValue@CWnd@@UAEJUtagVARIANT@@PA_W@Z:NEAR ; CWnd::put_accValue
EXTRN	?SetProxy@CWnd@@UAEJPAUIAccessibleProxy@@@Z:NEAR ; CWnd::SetProxy
EXTRN	?CreateAccessibleProxy@CWnd@@UAEJIJPAJ@Z:NEAR	; CWnd::CreateAccessibleProxy
EXTRN	?GetEventSinkMap@CCmdTarget@@MBEPBUAFX_EVENTSINKMAP@@XZ:NEAR ; CCmdTarget::GetEventSinkMap
EXTRN	?OnCreateAggregates@CCmdTarget@@UAEHXZ:NEAR	; CCmdTarget::OnCreateAggregates
EXTRN	?GetInterfaceHook@CCmdTarget@@UAEPAUIUnknown@@PBX@Z:NEAR ; CCmdTarget::GetInterfaceHook
EXTRN	?OnNotify@CWnd@@MAEHIJPAJ@Z:NEAR		; CWnd::OnNotify
EXTRN	?GetExtraConnectionPoints@CCmdTarget@@MAEHPAVCPtrArray@@@Z:NEAR ; CCmdTarget::GetExtraConnectionPoints
EXTRN	?GetConnectionHook@CCmdTarget@@MAEPAUIConnectionPoint@@ABU_GUID@@@Z:NEAR ; CCmdTarget::GetConnectionHook
EXTRN	??0CFont@@QAE@XZ:NEAR				; CFont::CFont
EXTRN	?CreateFontA@CFont@@QAEHHHHHHEEEEEEEEPBD@Z:NEAR	; CFont::CreateFontA
EXTRN	??1CFont@@UAE@XZ:NEAR				; CFont::~CFont
EXTRN	??0CRect@@QAE@XZ:NEAR				; CRect::CRect
EXTRN	?PreSubclassWindow@CWnd@@UAEXXZ:NEAR		; CWnd::PreSubclassWindow
EXTRN	??0CFrameWnd@@QAE@XZ:NEAR			; CFrameWnd::CFrameWnd
EXTRN	?Create@CWnd@@UAEHPBD0KABUtagRECT@@PAV1@IPAUCCreateContext@@@Z:NEAR ; CWnd::Create
EXTRN	?Create@CFrameWnd@@UAEHPBD0KABUtagRECT@@PAVCWnd@@0KPAUCCreateContext@@@Z:NEAR ; CFrameWnd::Create
EXTRN	?LoadFrame@CFrameWnd@@UAEHIKPAVCWnd@@PAUCCreateContext@@@Z:NEAR ; CFrameWnd::LoadFrame
EXTRN	?GetActiveDocument@CFrameWnd@@UAEPAVCDocument@@XZ:NEAR ; CFrameWnd::GetActiveDocument
EXTRN	?CreateEx@CWnd@@UAEHKPBD0KHHHHPAUHWND__@@PAUHMENU__@@PAX@Z:NEAR ; CWnd::CreateEx
EXTRN	?GetActiveFrame@CFrameWnd@@UAEPAV1@XZ:NEAR	; CFrameWnd::GetActiveFrame
EXTRN	?GetMessageString@CFrameWnd@@UBEXIAAV?$CStringT@DV?$StrTraitMFC_DLL@DV?$ChTraitsCRT@D@ATL@@@@@ATL@@@Z:NEAR ; CFrameWnd::GetMessageString
EXTRN	?CreateEx@CWnd@@UAEHKPBD0KABUtagRECT@@PAV1@IPAX@Z:NEAR ; CWnd::CreateEx
EXTRN	?RecalcLayout@CFrameWnd@@UAEXH@Z:NEAR		; CFrameWnd::RecalcLayout
EXTRN	?ActivateFrame@CFrameWnd@@UAEXH@Z:NEAR		; CFrameWnd::ActivateFrame
EXTRN	?BeginModalState@CFrameWnd@@UAEXXZ:NEAR		; CFrameWnd::BeginModalState
EXTRN	?EndModalState@CFrameWnd@@UAEXXZ:NEAR		; CFrameWnd::EndModalState
EXTRN	?Serialize@CObject@@UAEXAAVCArchive@@@Z:NEAR	; CObject::Serialize
EXTRN	?DestroyWindow@CWnd@@UAEHXZ:NEAR		; CWnd::DestroyWindow
EXTRN	?CalcWindowRect@CWnd@@UAEXPAUtagRECT@@I@Z:NEAR	; CWnd::CalcWindowRect
EXTRN	?OnSetPreviewMode@CFrameWnd@@UAEXHPAUCPrintPreviewState@@@Z:NEAR ; CFrameWnd::OnSetPreviewMode
EXTRN	?GetMessageBar@CFrameWnd@@UAEPAVCWnd@@XZ:NEAR	; CFrameWnd::GetMessageBar
EXTRN	?NegotiateBorderSpace@CFrameWnd@@UAEHIPAUtagRECT@@@Z:NEAR ; CFrameWnd::NegotiateBorderSpace
EXTRN	?OnCreateClient@CFrameWnd@@MAEHPAUtagCREATESTRUCTA@@PAUCCreateContext@@@Z:NEAR ; CFrameWnd::OnCreateClient
EXTRN	??1CFrameWnd@@UAE@XZ:NEAR			; CFrameWnd::~CFrameWnd
EXTRN	?GetSuperWndProcAddr@CWnd@@MAEPAP6GJPAUHWND__@@IIJ@ZXZ:NEAR ; CWnd::GetSuperWndProcAddr
EXTRN	?DoDataExchange@CWnd@@MAEXPAVCDataExchange@@@Z:NEAR ; CWnd::DoDataExchange
EXTRN	?OnAmbientProperty@CWnd@@UAEHPAVCOleControlSite@@JPAUtagVARIANT@@@Z:NEAR ; CWnd::OnAmbientProperty
EXTRN	?WindowProc@CWnd@@MAEJIIJ@Z:NEAR		; CWnd::WindowProc
EXTRN	?OnWndMsg@CWnd@@MAEHIIJPAJ@Z:NEAR		; CWnd::OnWndMsg
EXTRN	?DefWindowProcA@CWnd@@MAEJIIJ@Z:NEAR		; CWnd::DefWindowProcA
EXTRN	?OnChildNotify@CWnd@@MAEHIIJPAJ@Z:NEAR		; CWnd::OnChildNotify
EXTRN	?AssertValid@CFrameWnd@@UBEXXZ:NEAR		; CFrameWnd::AssertValid
EXTRN	?Dump@CFrameWnd@@UBEXAAVCDumpContext@@@Z:NEAR	; CFrameWnd::Dump
EXTRN	?CheckAutoCenter@CWnd@@UAEHXZ:NEAR		; CWnd::CheckAutoCenter
EXTRN	?IsFrameWnd@CFrameWnd@@UBEHXZ:NEAR		; CFrameWnd::IsFrameWnd
EXTRN	?OnCmdMsg@CFrameWnd@@UAEHIHPAXPAUAFX_CMDHANDLERINFO@@@Z:NEAR ; CFrameWnd::OnCmdMsg
EXTRN	?OnUpdateFrameTitle@CFrameWnd@@UAEXH@Z:NEAR	; CFrameWnd::OnUpdateFrameTitle
EXTRN	?OnUpdateFrameMenu@CFrameWnd@@UAEXPAUHMENU__@@@Z:NEAR ; CFrameWnd::OnUpdateFrameMenu
EXTRN	?GetDefaultAccelerator@CFrameWnd@@UAEPAUHACCEL__@@XZ:NEAR ; CFrameWnd::GetDefaultAccelerator
EXTRN	?PreTranslateMessage@CFrameWnd@@UAEHPAUtagMSG@@@Z:NEAR ; CFrameWnd::PreTranslateMessage
EXTRN	?DelayUpdateFrameMenu@CFrameWnd@@UAEXPAUHMENU__@@@Z:NEAR ; CFrameWnd::DelayUpdateFrameMenu
EXTRN	?ExitHelpMode@CFrameWnd@@UAEXXZ:NEAR		; CFrameWnd::ExitHelpMode
EXTRN	?OnFinalRelease@CWnd@@UAEXXZ:NEAR		; CWnd::OnFinalRelease
EXTRN	?OnCommand@CFrameWnd@@MAEHIJ@Z:NEAR		; CFrameWnd::OnCommand
EXTRN	?PostNcDestroy@CFrameWnd@@MAEXXZ:NEAR		; CFrameWnd::PostNcDestroy
EXTRN	?CreateControlContainer@CWnd@@MAEHPAPAVCOleControlContainer@@@Z:NEAR ; CWnd::CreateControlContainer
EXTRN	?CreateControlSite@CWnd@@MAEHPAVCOleControlContainer@@PAPAVCOleControlSite@@IABU_GUID@@@Z:NEAR ; CWnd::CreateControlSite
EXTRN	?SetOccDialogInfo@CWnd@@MAEHPAU_AFX_OCC_DIALOG_INFO@@@Z:NEAR ; CWnd::SetOccDialogInfo
EXTRN	??0CScrollBarEx@@QAE@XZ:NEAR			; CScrollBarEx::CScrollBarEx
EXTRN	??1CScrollBarEx@@UAE@XZ:NEAR			; CScrollBarEx::~CScrollBarEx
EXTRN	?OnToolHitTest@CWnd@@UBEHVCPoint@@PAUtagTOOLINFOA@@@Z:NEAR ; CWnd::OnToolHitTest
EXTRN	?GetScrollBarCtrl@CWnd@@UBEPAVCScrollBar@@H@Z:NEAR ; CWnd::GetScrollBarCtrl
EXTRN	?WinHelpA@CWnd@@UAEXKI@Z:NEAR			; CWnd::WinHelpA
EXTRN	?HtmlHelpA@CWnd@@UAEXKI@Z:NEAR			; CWnd::HtmlHelpA
EXTRN	??_7type_info@@6B@:QWORD			; type_info::`vftable'
EXTRN	?WinHelpInternal@CWnd@@UAEXKI@Z:NEAR		; CWnd::WinHelpInternal
EXTRN	?ContinueModal@CWnd@@UAEHXZ:NEAR		; CWnd::ContinueModal
EXTRN	?EndModalLoop@CWnd@@UAEXH@Z:NEAR		; CWnd::EndModalLoop
xdata$x	SEGMENT
$T193918 DD	0ffffffffH
	DD	FLAT:$L193909
	DD	00H
	DD	FLAT:$L193910
	DD	01H
	DD	FLAT:$L193911
	DD	02H
	DD	FLAT:$L193912
	DD	03H
	DD	FLAT:$L193913
	DD	04H
	DD	FLAT:$L193914
$T193916 DD	019930520H
	DD	06H
	DD	FLAT:$T193918
	DD	2 DUP(00H)
	DD	2 DUP(00H)
xdata$x	ENDS
;	COMDAT ??_7CSkinWnd@@6BCFrameWnd@@@
CONST	SEGMENT
??_7CSkinWnd@@6BCFrameWnd@@@ DD FLAT:??_R4CSkinWnd@@6BCFrameWnd@@@ ; CSkinWnd::`vftable'
	DD	FLAT:?GetRuntimeClass@CSkinWnd@@UBEPAUCRuntimeClass@@XZ
	DD	FLAT:??_ECSkinWnd@@UAEPAXI@Z
	DD	FLAT:?Serialize@CObject@@UAEXAAVCArchive@@@Z
	DD	FLAT:?AssertValid@CFrameWnd@@UBEXXZ
	DD	FLAT:?Dump@CFrameWnd@@UBEXAAVCDumpContext@@@Z
	DD	FLAT:?OnCmdMsg@CFrameWnd@@UAEHIHPAXPAUAFX_CMDHANDLERINFO@@@Z
	DD	FLAT:?OnFinalRelease@CWnd@@UAEXXZ
	DD	FLAT:?IsInvokeAllowed@CCmdTarget@@UAEHJ@Z
	DD	FLAT:?GetDispatchIID@CCmdTarget@@UAEHPAU_GUID@@@Z
	DD	FLAT:?GetTypeInfoCount@CCmdTarget@@UAEIXZ
	DD	FLAT:?GetTypeLibCache@CCmdTarget@@UAEPAVCTypeLibCache@@XZ
	DD	FLAT:?GetTypeLib@CCmdTarget@@UAEJKPAPAUITypeLib@@@Z
	DD	FLAT:?GetMessageMap@CSkinWnd@@MBEPBUAFX_MSGMAP@@XZ
	DD	FLAT:?GetCommandMap@CCmdTarget@@MBEPBUAFX_OLECMDMAP@@XZ
	DD	FLAT:?GetDispatchMap@CCmdTarget@@MBEPBUAFX_DISPMAP@@XZ
	DD	FLAT:?GetConnectionMap@CCmdTarget@@MBEPBUAFX_CONNECTIONMAP@@XZ
	DD	FLAT:?GetInterfaceMap@CWnd@@MBEPBUAFX_INTERFACEMAP@@XZ
	DD	FLAT:?GetEventSinkMap@CCmdTarget@@MBEPBUAFX_EVENTSINKMAP@@XZ
	DD	FLAT:?OnCreateAggregates@CCmdTarget@@UAEHXZ
	DD	FLAT:?GetInterfaceHook@CCmdTarget@@UAEPAUIUnknown@@PBX@Z
	DD	FLAT:?GetExtraConnectionPoints@CCmdTarget@@MAEHPAVCPtrArray@@@Z
	DD	FLAT:?GetConnectionHook@CCmdTarget@@MAEPAUIConnectionPoint@@ABU_GUID@@@Z
	DD	FLAT:?PreSubclassWindow@CWnd@@UAEXXZ
	DD	FLAT:?Create@CWnd@@UAEHPBD0KABUtagRECT@@PAV1@IPAUCCreateContext@@@Z
	DD	FLAT:?CreateEx@CWnd@@UAEHKPBD0KABUtagRECT@@PAV1@IPAX@Z
	DD	FLAT:?CreateEx@CWnd@@UAEHKPBD0KHHHHPAUHWND__@@PAUHMENU__@@PAX@Z
	DD	FLAT:?DestroyWindow@CWnd@@UAEHXZ
	DD	FLAT:?PreCreateWindow@CSkinWnd@@MAEHAAUtagCREATESTRUCTA@@@Z
	DD	FLAT:?CalcWindowRect@CWnd@@UAEXPAUtagRECT@@I@Z
	DD	FLAT:?OnToolHitTest@CWnd@@UBEHVCPoint@@PAUtagTOOLINFOA@@@Z
	DD	FLAT:?GetScrollBarCtrl@CWnd@@UBEPAVCScrollBar@@H@Z
	DD	FLAT:?WinHelpA@CWnd@@UAEXKI@Z
	DD	FLAT:?HtmlHelpA@CWnd@@UAEXKI@Z
	DD	FLAT:?WinHelpInternal@CWnd@@UAEXKI@Z
	DD	FLAT:?ContinueModal@CWnd@@UAEHXZ
	DD	FLAT:?EndModalLoop@CWnd@@UAEXH@Z
	DD	FLAT:?EnsureStdObj@CWnd@@UAEJXZ
	DD	FLAT:?get_accParent@CWnd@@UAEJPAPAUIDispatch@@@Z
	DD	FLAT:?get_accChildCount@CWnd@@UAEJPAJ@Z
	DD	FLAT:?get_accChild@CWnd@@UAEJUtagVARIANT@@PAPAUIDispatch@@@Z
	DD	FLAT:?get_accName@CWnd@@UAEJUtagVARIANT@@PAPA_W@Z
	DD	FLAT:?get_accValue@CWnd@@UAEJUtagVARIANT@@PAPA_W@Z
	DD	FLAT:?get_accDescription@CWnd@@UAEJUtagVARIANT@@PAPA_W@Z
	DD	FLAT:?get_accRole@CWnd@@UAEJUtagVARIANT@@PAU2@@Z
	DD	FLAT:?get_accState@CWnd@@UAEJUtagVARIANT@@PAU2@@Z
	DD	FLAT:?get_accHelp@CWnd@@UAEJUtagVARIANT@@PAPA_W@Z
	DD	FLAT:?get_accHelpTopic@CWnd@@UAEJPAPA_WUtagVARIANT@@PAJ@Z
	DD	FLAT:?get_accKeyboardShortcut@CWnd@@UAEJUtagVARIANT@@PAPA_W@Z
	DD	FLAT:?get_accFocus@CWnd@@UAEJPAUtagVARIANT@@@Z
	DD	FLAT:?get_accSelection@CWnd@@UAEJPAUtagVARIANT@@@Z
	DD	FLAT:?get_accDefaultAction@CWnd@@UAEJUtagVARIANT@@PAPA_W@Z
	DD	FLAT:?accSelect@CWnd@@UAEJJUtagVARIANT@@@Z
	DD	FLAT:?accLocation@CWnd@@UAEJPAJ000UtagVARIANT@@@Z
	DD	FLAT:?accNavigate@CWnd@@UAEJJUtagVARIANT@@PAU2@@Z
	DD	FLAT:?accHitTest@CWnd@@UAEJJJPAUtagVARIANT@@@Z
	DD	FLAT:?accDoDefaultAction@CWnd@@UAEJUtagVARIANT@@@Z
	DD	FLAT:?put_accName@CWnd@@UAEJUtagVARIANT@@PA_W@Z
	DD	FLAT:?put_accValue@CWnd@@UAEJUtagVARIANT@@PA_W@Z
	DD	FLAT:?SetProxy@CWnd@@UAEJPAUIAccessibleProxy@@@Z
	DD	FLAT:?CreateAccessibleProxy@CWnd@@UAEJIJPAJ@Z
	DD	FLAT:?OnCommand@CFrameWnd@@MAEHIJ@Z
	DD	FLAT:?OnNotify@CWnd@@MAEHIJPAJ@Z
	DD	FLAT:?GetSuperWndProcAddr@CWnd@@MAEPAP6GJPAUHWND__@@IIJ@ZXZ
	DD	FLAT:?DoDataExchange@CWnd@@MAEXPAVCDataExchange@@@Z
	DD	FLAT:?BeginModalState@CFrameWnd@@UAEXXZ
	DD	FLAT:?EndModalState@CFrameWnd@@UAEXXZ
	DD	FLAT:?PreTranslateMessage@CFrameWnd@@UAEHPAUtagMSG@@@Z
	DD	FLAT:?OnAmbientProperty@CWnd@@UAEHPAVCOleControlSite@@JPAUtagVARIANT@@@Z
	DD	FLAT:?WindowProc@CWnd@@MAEJIIJ@Z
	DD	FLAT:?OnWndMsg@CWnd@@MAEHIIJPAJ@Z
	DD	FLAT:?DefWindowProcA@CWnd@@MAEJIIJ@Z
	DD	FLAT:?PostNcDestroy@CFrameWnd@@MAEXXZ
	DD	FLAT:?OnChildNotify@CWnd@@MAEHIIJPAJ@Z
	DD	FLAT:?CheckAutoCenter@CWnd@@UAEHXZ
	DD	FLAT:?IsFrameWnd@CFrameWnd@@UBEHXZ
	DD	FLAT:?CreateControlContainer@CWnd@@MAEHPAPAVCOleControlContainer@@@Z
	DD	FLAT:?CreateControlSite@CWnd@@MAEHPAVCOleControlContainer@@PAPAVCOleControlSite@@IABU_GUID@@@Z
	DD	FLAT:?SetOccDialogInfo@CWnd@@MAEHPAU_AFX_OCC_DIALOG_INFO@@@Z
	DD	FLAT:?Create@CFrameWnd@@UAEHPBD0KABUtagRECT@@PAVCWnd@@0KPAUCCreateContext@@@Z
	DD	FLAT:?LoadFrame@CFrameWnd@@UAEHIKPAVCWnd@@PAUCCreateContext@@@Z
	DD	FLAT:?GetActiveDocument@CFrameWnd@@UAEPAVCDocument@@XZ
	DD	FLAT:?GetActiveFrame@CFrameWnd@@UAEPAV1@XZ
	DD	FLAT:?GetMessageString@CFrameWnd@@UBEXIAAV?$CStringT@DV?$StrTraitMFC_DLL@DV?$ChTraitsCRT@D@ATL@@@@@ATL@@@Z
	DD	FLAT:?RecalcLayout@CFrameWnd@@UAEXH@Z
	DD	FLAT:?ActivateFrame@CFrameWnd@@UAEXH@Z
	DD	FLAT:?OnSetPreviewMode@CFrameWnd@@UAEXHPAUCPrintPreviewState@@@Z
	DD	FLAT:?GetMessageBar@CFrameWnd@@UAEPAVCWnd@@XZ
	DD	FLAT:?NegotiateBorderSpace@CFrameWnd@@UAEHIPAUtagRECT@@@Z
	DD	FLAT:?OnCreateClient@CFrameWnd@@MAEHPAUtagCREATESTRUCTA@@PAUCCreateContext@@@Z
	DD	FLAT:?OnUpdateFrameTitle@CFrameWnd@@UAEXH@Z
	DD	FLAT:?OnUpdateFrameMenu@CFrameWnd@@UAEXPAUHMENU__@@@Z
	DD	FLAT:?GetDefaultAccelerator@CFrameWnd@@UAEPAUHACCEL__@@XZ
	DD	FLAT:?DelayUpdateFrameMenu@CFrameWnd@@UAEXPAUHMENU__@@@Z
	DD	FLAT:?ExitHelpMode@CFrameWnd@@UAEXXZ
	DD	FLAT:?OnSendChangeColor@CSkinWnd@@MAEXKI@Z
CONST	ENDS
;	COMDAT ??_7CSkinWnd@@6BIEventListener@@@
CONST	SEGMENT
??_7CSkinWnd@@6BIEventListener@@@ DD FLAT:??_R4CSkinWnd@@6BIEventListener@@@ ; CSkinWnd::`vftable'
	DD	FLAT:?OnCliekButton@CSkinWnd@@UAEXPAVCButton@@@Z
	DD	FLAT:?OnCliekSlide@CSkinWnd@@MAEXPAVCSliderCtrl@@@Z
	DD	FLAT:?OnSendChangeColor@IEventListener@@UAEXKI_N@Z
	DD	FLAT:?OnSendChangeSkin@CSkinWnd@@MAEXV?$CStringT@DV?$StrTraitMFC_DLL@DV?$ChTraitsCRT@D@ATL@@@@@ATL@@@Z
	DD	FLAT:?OnSendChangeSubject@IEventListener@@UAEXV?$CStringT@DV?$StrTraitMFC_DLL@DV?$ChTraitsCRT@D@ATL@@@@@ATL@@0@Z
	DD	FLAT:?OnChangeSkinAndSub@IEventListener@@UAEXABV?$CStringT@DV?$StrTraitMFC_DLL@DV?$ChTraitsCRT@D@ATL@@@@@ATL@@0@Z
	DD	FLAT:?OnStartDownSubject@IEventListener@@UAEXABV?$CStringT@DV?$StrTraitMFC_DLL@DV?$ChTraitsCRT@D@ATL@@@@@ATL@@@Z
	DD	FLAT:?OnFinishDownSubject@IEventListener@@UAEXH@Z
CONST	ENDS
;	COMDAT ??_R4CSkinWnd@@6BCFrameWnd@@@
rdata$r	SEGMENT
??_R4CSkinWnd@@6BCFrameWnd@@@ DD 00H			; CSkinWnd::`RTTI Complete Object Locator'
	DD	00H
	DD	00H
	DD	FLAT:??_R0?AVCSkinWnd@@@8
	DD	FLAT:??_R3CSkinWnd@@8
rdata$r	ENDS
;	COMDAT ??_R0?AVCSkinWnd@@@8
_DATA	SEGMENT
??_R0?AVCSkinWnd@@@8 DD FLAT:??_7type_info@@6B@		; CSkinWnd `RTTI Type Descriptor'
	DD	00H
	DB	'.?AVCSkinWnd@@', 00H
_DATA	ENDS
;	COMDAT ??_R3CSkinWnd@@8
rdata$r	SEGMENT
??_R3CSkinWnd@@8 DD 00H					; CSkinWnd::`RTTI Class Hierarchy Descriptor'
	DD	01H
	DD	06H
	DD	FLAT:??_R2CSkinWnd@@8
rdata$r	ENDS
;	COMDAT ??_R2CSkinWnd@@8
rdata$r	SEGMENT
??_R2CSkinWnd@@8 DD FLAT:??_R1A@?0A@A@CSkinWnd@@8	; CSkinWnd::`RTTI Base Class Array'
	DD	FLAT:??_R1A@?0A@A@CFrameWnd@@8
	DD	FLAT:??_R1A@?0A@A@CWnd@@8
	DD	FLAT:??_R1A@?0A@A@CCmdTarget@@8
	DD	FLAT:??_R1A@?0A@A@CObject@@8
	DD	FLAT:??_R1NE@?0A@A@IEventListener@@8
rdata$r	ENDS
;	COMDAT ??_R1A@?0A@A@CSkinWnd@@8
rdata$r	SEGMENT
??_R1A@?0A@A@CSkinWnd@@8 DD FLAT:??_R0?AVCSkinWnd@@@8	; CSkinWnd::`RTTI Base Class Descriptor at (0,-1,0,0)'
	DD	05H
	DD	00H
	DD	0ffffffffH
	DD	00H
	DD	00H
rdata$r	ENDS
;	COMDAT ??_R1A@?0A@A@CFrameWnd@@8
rdata$r	SEGMENT
??_R1A@?0A@A@CFrameWnd@@8 DD FLAT:??_R0?AVCFrameWnd@@@8	; CFrameWnd::`RTTI Base Class Descriptor at (0,-1,0,0)'
	DD	03H
	DD	00H
	DD	0ffffffffH
	DD	00H
	DD	00H
rdata$r	ENDS
;	COMDAT ??_R0?AVCFrameWnd@@@8
_DATA	SEGMENT
??_R0?AVCFrameWnd@@@8 DD FLAT:??_7type_info@@6B@	; CFrameWnd `RTTI Type Descriptor'
	DD	00H
	DB	'.?AVCFrameWnd@@', 00H
_DATA	ENDS
;	COMDAT ??_R1A@?0A@A@CWnd@@8
rdata$r	SEGMENT
??_R1A@?0A@A@CWnd@@8 DD FLAT:??_R0?AVCWnd@@@8		; CWnd::`RTTI Base Class Descriptor at (0,-1,0,0)'
	DD	02H
	DD	00H
	DD	0ffffffffH
	DD	00H
	DD	00H
rdata$r	ENDS
;	COMDAT ??_R0?AVCWnd@@@8
_DATA	SEGMENT
??_R0?AVCWnd@@@8 DD FLAT:??_7type_info@@6B@		; CWnd `RTTI Type Descriptor'
	DD	00H
	DB	'.?AVCWnd@@', 00H
_DATA	ENDS
;	COMDAT ??_R1A@?0A@A@CCmdTarget@@8
rdata$r	SEGMENT
??_R1A@?0A@A@CCmdTarget@@8 DD FLAT:??_R0?AVCCmdTarget@@@8 ; CCmdTarget::`RTTI Base Class Descriptor at (0,-1,0,0)'
	DD	01H
	DD	00H
	DD	0ffffffffH
	DD	00H
	DD	00H
rdata$r	ENDS
;	COMDAT ??_R0?AVCCmdTarget@@@8
_DATA	SEGMENT
??_R0?AVCCmdTarget@@@8 DD FLAT:??_7type_info@@6B@	; CCmdTarget `RTTI Type Descriptor'
	DD	00H
	DB	'.?AVCCmdTarget@@', 00H
_DATA	ENDS
;	COMDAT ??_R1A@?0A@A@CObject@@8
rdata$r	SEGMENT
??_R1A@?0A@A@CObject@@8 DD FLAT:??_R0?AVCObject@@@8	; CObject::`RTTI Base Class Descriptor at (0,-1,0,0)'
	DD	00H
	DD	00H
	DD	0ffffffffH
	DD	00H
	DD	00H
rdata$r	ENDS
;	COMDAT ??_R0?AVCObject@@@8
_DATA	SEGMENT
??_R0?AVCObject@@@8 DD FLAT:??_7type_info@@6B@		; CObject `RTTI Type Descriptor'
	DD	00H
	DB	'.?AVCObject@@', 00H
_DATA	ENDS
;	COMDAT ??_R1NE@?0A@A@IEventListener@@8
rdata$r	SEGMENT
??_R1NE@?0A@A@IEventListener@@8 DD FLAT:??_R0?AVIEventListener@@@8 ; IEventListener::`RTTI Base Class Descriptor at (212,-1,0,0)'
	DD	00H
	DD	0d4H
	DD	0ffffffffH
	DD	00H
	DD	00H
rdata$r	ENDS
;	COMDAT ??_R0?AVIEventListener@@@8
_DATA	SEGMENT
??_R0?AVIEventListener@@@8 DD FLAT:??_7type_info@@6B@	; IEventListener `RTTI Type Descriptor'
	DD	00H
	DB	'.?AVIEventListener@@', 00H
_DATA	ENDS
;	COMDAT ??_R4CSkinWnd@@6BIEventListener@@@
rdata$r	SEGMENT
??_R4CSkinWnd@@6BIEventListener@@@ DD 00H		; CSkinWnd::`RTTI Complete Object Locator'
	DD	0d4H
	DD	00H
	DD	FLAT:??_R0?AVCSkinWnd@@@8
	DD	FLAT:??_R3CSkinWnd@@8
; Function compile flags: /Odt /RTCsu
rdata$r	ENDS
_TEXT	SEGMENT
_this$ = -16						; size = 4
__$EHRec$ = -12						; size = 12
??0CSkinWnd@@QAE@XZ PROC NEAR				; CSkinWnd::CSkinWnd
; _this$ = ecx

; 21   : {

  000c0	55		 push	 ebp
  000c1	8b ec		 mov	 ebp, esp
  000c3	6a ff		 push	 -1
  000c5	68 00 00 00 00	 push	 __ehhandler$??0CSkinWnd@@QAE@XZ
  000ca	64 a1 00 00 00
	00		 mov	 eax, DWORD PTR fs:__except_list
  000d0	50		 push	 eax
  000d1	64 89 25 00 00
	00 00		 mov	 DWORD PTR fs:__except_list, esp
  000d8	51		 push	 ecx
  000d9	c7 45 f0 cc cc
	cc cc		 mov	 DWORD PTR [ebp-16], -858993460 ; ccccccccH
  000e0	89 4d f0	 mov	 DWORD PTR _this$[ebp], ecx
  000e3	8b 4d f0	 mov	 ecx, DWORD PTR _this$[ebp]
  000e6	e8 00 00 00 00	 call	 ??0CFrameWnd@@QAE@XZ	; CFrameWnd::CFrameWnd
  000eb	c7 45 fc 00 00
	00 00		 mov	 DWORD PTR __$EHRec$[ebp+8], 0
  000f2	8b 4d f0	 mov	 ecx, DWORD PTR _this$[ebp]
  000f5	81 c1 d4 00 00
	00		 add	 ecx, 212		; 000000d4H
  000fb	e8 00 00 00 00	 call	 ??0IEventListener@@QAE@XZ
  00100	8b 45 f0	 mov	 eax, DWORD PTR _this$[ebp]
  00103	c7 00 00 00 00
	00		 mov	 DWORD PTR [eax], OFFSET FLAT:??_7CSkinWnd@@6BCFrameWnd@@@
  00109	8b 4d f0	 mov	 ecx, DWORD PTR _this$[ebp]
  0010c	c7 81 d4 00 00
	00 00 00 00 00	 mov	 DWORD PTR [ecx+212], OFFSET FLAT:??_7CSkinWnd@@6BIEventListener@@@
  00116	8b 4d f0	 mov	 ecx, DWORD PTR _this$[ebp]
  00119	81 c1 d8 00 00
	00		 add	 ecx, 216		; 000000d8H
  0011f	e8 00 00 00 00	 call	 ??0CScrollBarEx@@QAE@XZ	; CScrollBarEx::CScrollBarEx
  00124	c6 45 fc 01	 mov	 BYTE PTR __$EHRec$[ebp+8], 1
  00128	8b 4d f0	 mov	 ecx, DWORD PTR _this$[ebp]
  0012b	81 c1 bc 01 00
	00		 add	 ecx, 444		; 000001bcH
  00131	e8 00 00 00 00	 call	 ??0CScrollBarEx@@QAE@XZ	; CScrollBarEx::CScrollBarEx
  00136	c6 45 fc 02	 mov	 BYTE PTR __$EHRec$[ebp+8], 2
  0013a	8b 4d f0	 mov	 ecx, DWORD PTR _this$[ebp]
  0013d	81 c1 a0 02 00
	00		 add	 ecx, 672		; 000002a0H
  00143	e8 00 00 00 00	 call	 ??0CRect@@QAE@XZ	; CRect::CRect
  00148	8b 4d f0	 mov	 ecx, DWORD PTR _this$[ebp]
  0014b	81 c1 c0 02 00
	00		 add	 ecx, 704		; 000002c0H
  00151	e8 00 00 00 00	 call	 ??0?$list@PAVCSkinButton@@V?$allocator@PAVCSkinButton@@@std@@@std@@QAE@XZ ; std::list<CSkinButton *,std::allocator<CSkinButton *> >::list<CSkinButton *,std::allocator<CSkinButton *> >
  00156	c6 45 fc 03	 mov	 BYTE PTR __$EHRec$[ebp+8], 3
  0015a	8b 4d f0	 mov	 ecx, DWORD PTR _this$[ebp]
  0015d	81 c1 cc 02 00
	00		 add	 ecx, 716		; 000002ccH
  00163	e8 00 00 00 00	 call	 ??0iterator@?$list@PAVCSkinButton@@V?$allocator@PAVCSkinButton@@@std@@@std@@QAE@XZ ; std::list<CSkinButton *,std::allocator<CSkinButton *> >::iterator::iterator
  00168	8b 4d f0	 mov	 ecx, DWORD PTR _this$[ebp]
  0016b	81 c1 d0 02 00
	00		 add	 ecx, 720		; 000002d0H
  00171	e8 00 00 00 00	 call	 ??0?$map@V?$CStringT@DV?$StrTraitMFC_DLL@DV?$ChTraitsCRT@D@ATL@@@@@ATL@@PAVCSkinButton@@U?$less@V?$CStringT@DV?$StrTraitMFC_DLL@DV?$ChTraitsCRT@D@ATL@@@@@ATL@@@std@@V?$allocator@U?$pair@$$CBV?$CStringT@DV?$StrTraitMFC_DLL@DV?$ChTraitsCRT@D@ATL@@@@@ATL@@PAVCSkinButton@@@std@@@5@@std@@QAE@XZ ; std::map<ATL::CStringT<char,StrTraitMFC_DLL<char,ATL::ChTraitsCRT<char> > >,CSkinButton *,std::less<ATL::CStringT<char,StrTraitMFC_DLL<char,ATL::ChTraitsCRT<char> > > >,std::allocator<std::pair<ATL::CStringT<char,StrTraitMFC_DLL<char,ATL::ChTraitsCRT<char> > > const ,CSkinButton *> > >::map<ATL::CStringT<char,StrTraitMFC_DLL<char,ATL::ChTraitsCRT<char> > >,CSkinButton *,std::less<ATL::CStringT<char,StrTraitMFC_DLL<char,ATL::ChTraitsCRT<char> > > >,std::allocator<std::pair<ATL::CStringT<char,StrTraitMFC_DLL<char,ATL::ChTraitsCRT<char> > > const ,CSkinButton *> > >
  00176	c6 45 fc 04	 mov	 BYTE PTR __$EHRec$[ebp+8], 4
  0017a	8b 4d f0	 mov	 ecx, DWORD PTR _this$[ebp]
  0017d	81 c1 e0 02 00
	00		 add	 ecx, 736		; 000002e0H
  00183	e8 00 00 00 00	 call	 ??0CFont@@QAE@XZ	; CFont::CFont
  00188	c6 45 fc 05	 mov	 BYTE PTR __$EHRec$[ebp+8], 5

; 22   : 	miScrollPos =0;

  0018c	8b 55 f0	 mov	 edx, DWORD PTR _this$[ebp]
  0018f	c7 82 b0 02 00
	00 00 00 00 00	 mov	 DWORD PTR [edx+688], 0

; 23   : 	mbIsHasScroll = false;

  00199	8b 45 f0	 mov	 eax, DWORD PTR _this$[ebp]
  0019c	c6 80 b8 02 00
	00 00		 mov	 BYTE PTR [eax+696], 0

; 24   : 	m_nMaxViewPos = 0;

  001a3	8b 4d f0	 mov	 ecx, DWORD PTR _this$[ebp]
  001a6	c7 81 bc 02 00
	00 00 00 00 00	 mov	 DWORD PTR [ecx+700], 0

; 25   : 
; 26   : 	m_font.CreateFont(
; 27   : 		12,                        // nHeight
; 28   : 		0,                         // nWidth
; 29   : 		0,                         // nEscapement
; 30   : 		0,                         // nOrientation
; 31   : 		FW_NORMAL,                 // nWeight
; 32   : 		FALSE,                     // bItalic
; 33   : 		FALSE,                     // bUnderline
; 34   : 		0,                         // cStrikeOut
; 35   : 		ANSI_CHARSET,              // nCharSet
; 36   : 		OUT_DEFAULT_PRECIS,        // nOutPrecision
; 37   : 		CLIP_DEFAULT_PRECIS,       // nClipPrecision
; 38   : 		DEFAULT_QUALITY,           // nQuality
; 39   : 		DEFAULT_PITCH | FF_SWISS,  // nPitchAndFamily
; 40   : 		"");    

  001b0	68 00 00 00 00	 push	 OFFSET FLAT:$SG191798
  001b5	6a 20		 push	 32			; 00000020H
  001b7	6a 00		 push	 0
  001b9	6a 00		 push	 0
  001bb	6a 00		 push	 0
  001bd	6a 00		 push	 0
  001bf	6a 00		 push	 0
  001c1	6a 00		 push	 0
  001c3	6a 00		 push	 0
  001c5	68 90 01 00 00	 push	 400			; 00000190H
  001ca	6a 00		 push	 0
  001cc	6a 00		 push	 0
  001ce	6a 00		 push	 0
  001d0	6a 0c		 push	 12			; 0000000cH
  001d2	8b 4d f0	 mov	 ecx, DWORD PTR _this$[ebp]
  001d5	81 c1 e0 02 00
	00		 add	 ecx, 736		; 000002e0H
  001db	e8 00 00 00 00	 call	 ?CreateFontA@CFont@@QAEHHHHHHEEEEEEEEPBD@Z ; CFont::CreateFontA

; 41   : }

  001e0	c7 45 fc ff ff
	ff ff		 mov	 DWORD PTR __$EHRec$[ebp+8], -1
  001e7	8b 45 f0	 mov	 eax, DWORD PTR _this$[ebp]
  001ea	8b 4d f4	 mov	 ecx, DWORD PTR __$EHRec$[ebp]
  001ed	64 89 0d 00 00
	00 00		 mov	 DWORD PTR fs:__except_list, ecx
  001f4	83 c4 10	 add	 esp, 16			; 00000010H
  001f7	3b ec		 cmp	 ebp, esp
  001f9	e8 00 00 00 00	 call	 __RTC_CheckEsp
  001fe	8b e5		 mov	 esp, ebp
  00200	5d		 pop	 ebp
  00201	c3		 ret	 0
_TEXT	ENDS
text$x	SEGMENT
$L193909:
  0001b	8b 4d f0	 mov	 ecx, DWORD PTR _this$[ebp]
  0001e	e9 00 00 00 00	 jmp	 ??1CFrameWnd@@UAE@XZ	; CFrameWnd::~CFrameWnd
$L193910:
  00023	8b 4d f0	 mov	 ecx, DWORD PTR _this$[ebp]
  00026	81 c1 d8 00 00
	00		 add	 ecx, 216		; 000000d8H
  0002c	e9 00 00 00 00	 jmp	 ??1CScrollBarEx@@UAE@XZ	; CScrollBarEx::~CScrollBarEx
$L193911:
  00031	8b 4d f0	 mov	 ecx, DWORD PTR _this$[ebp]
  00034	81 c1 bc 01 00
	00		 add	 ecx, 444		; 000001bcH
  0003a	e9 00 00 00 00	 jmp	 ??1CScrollBarEx@@UAE@XZ	; CScrollBarEx::~CScrollBarEx
$L193912:
  0003f	8b 4d f0	 mov	 ecx, DWORD PTR _this$[ebp]
  00042	81 c1 c0 02 00
	00		 add	 ecx, 704		; 000002c0H
  00048	e9 00 00 00 00	 jmp	 ??1?$list@PAVCSkinButton@@V?$allocator@PAVCSkinButton@@@std@@@std@@QAE@XZ ; std::list<CSkinButton *,std::allocator<CSkinButton *> >::~list<CSkinButton *,std::allocator<CSkinButton *> >
$L193913:
  0004d	8b 4d f0	 mov	 ecx, DWORD PTR _this$[ebp]
  00050	81 c1 d0 02 00
	00		 add	 ecx, 720		; 000002d0H
  00056	e9 00 00 00 00	 jmp	 ??1?$map@V?$CStringT@DV?$StrTraitMFC_DLL@DV?$ChTraitsCRT@D@ATL@@@@@ATL@@PAVCSkinButton@@U?$less@V?$CStringT@DV?$StrTraitMFC_DLL@DV?$ChTraitsCRT@D@ATL@@@@@ATL@@@std@@V?$allocator@U?$pair@$$CBV?$CStringT@DV?$StrTraitMFC_DLL@DV?$ChTraitsCRT@D@ATL@@@@@ATL@@PAVCSkinButton@@@std@@@5@@std@@QAE@XZ
$L193914:
  0005b	8b 4d f0	 mov	 ecx, DWORD PTR _this$[ebp]
  0005e	81 c1 e0 02 00
	00		 add	 ecx, 736		; 000002e0H
  00064	e9 00 00 00 00	 jmp	 ??1CFont@@UAE@XZ	; CFont::~CFont
__ehhandler$??0CSkinWnd@@QAE@XZ:
  00069	b8 00 00 00 00	 mov	 eax, OFFSET FLAT:$T193916
  0006e	e9 00 00 00 00	 jmp	 ___CxxFrameHandler
text$x	ENDS
??0CSkinWnd@@QAE@XZ ENDP				; CSkinWnd::CSkinWnd
; Function compile flags: /Odt /RTCsu
; File d:\boxgit\playbox\playbox\dev\prj\playbox\src\layoutmgr\changecolor\ievent.h
;	COMDAT ?OnSendChangeColor@IEventListener@@UAEXKI_N@Z
_TEXT	SEGMENT
_this$ = -4						; size = 4
_acolCol$ = 8						; size = 4
_anLightValue$ = 12					; size = 4
_bChangeTop$ = 16					; size = 1
?OnSendChangeColor@IEventListener@@UAEXKI_N@Z PROC NEAR	; IEventListener::OnSendChangeColor, COMDAT
; _this$ = ecx

; 9    : 	virtual void OnSendChangeColor( COLORREF acolCol, UINT anLightValue,bool bChangeTop = true ){};

  00000	55		 push	 ebp
  00001	8b ec		 mov	 ebp, esp
  00003	51		 push	 ecx
  00004	c7 45 fc cc cc
	cc cc		 mov	 DWORD PTR [ebp-4], -858993460 ; ccccccccH
  0000b	89 4d fc	 mov	 DWORD PTR _this$[ebp], ecx
  0000e	8b e5		 mov	 esp, ebp
  00010	5d		 pop	 ebp
  00011	c2 0c 00	 ret	 12			; 0000000cH
?OnSendChangeColor@IEventListener@@UAEXKI_N@Z ENDP	; IEventListener::OnSendChangeColor
_TEXT	ENDS
EXTRN	__imp_??1?$CStringT@DV?$StrTraitMFC_DLL@DV?$ChTraitsCRT@D@ATL@@@@@ATL@@QAE@XZ:NEAR
; Function compile flags: /Odt /RTCsu
;	COMDAT ?OnSendChangeSubject@IEventListener@@UAEXV?$CStringT@DV?$StrTraitMFC_DLL@DV?$ChTraitsCRT@D@ATL@@@@@ATL@@0@Z
_TEXT	SEGMENT
_this$ = -4						; size = 4
___formal$ = 8						; size = 4
_subjectName$ = 12					; size = 4
?OnSendChangeSubject@IEventListener@@UAEXV?$CStringT@DV?$StrTraitMFC_DLL@DV?$ChTraitsCRT@D@ATL@@@@@ATL@@0@Z PROC NEAR ; IEventListener::OnSendChangeSubject, COMDAT
; _this$ = ecx

; 11   : 	virtual void OnSendChangeSubject(CString,CString subjectName){};

  00000	55		 push	 ebp
  00001	8b ec		 mov	 ebp, esp
  00003	51		 push	 ecx
  00004	56		 push	 esi
  00005	c7 45 fc cc cc
	cc cc		 mov	 DWORD PTR [ebp-4], -858993460 ; ccccccccH
  0000c	89 4d fc	 mov	 DWORD PTR _this$[ebp], ecx
  0000f	8b f4		 mov	 esi, esp
  00011	8d 4d 08	 lea	 ecx, DWORD PTR ___formal$[ebp]
  00014	ff 15 00 00 00
	00		 call	 DWORD PTR __imp_??1?$CStringT@DV?$StrTraitMFC_DLL@DV?$ChTraitsCRT@D@ATL@@@@@ATL@@QAE@XZ
  0001a	3b f4		 cmp	 esi, esp
  0001c	e8 00 00 00 00	 call	 __RTC_CheckEsp
  00021	8b f4		 mov	 esi, esp
  00023	8d 4d 0c	 lea	 ecx, DWORD PTR _subjectName$[ebp]
  00026	ff 15 00 00 00
	00		 call	 DWORD PTR __imp_??1?$CStringT@DV?$StrTraitMFC_DLL@DV?$ChTraitsCRT@D@ATL@@@@@ATL@@QAE@XZ
  0002c	3b f4		 cmp	 esi, esp
  0002e	e8 00 00 00 00	 call	 __RTC_CheckEsp
  00033	5e		 pop	 esi
  00034	83 c4 04	 add	 esp, 4
  00037	3b ec		 cmp	 ebp, esp
  00039	e8 00 00 00 00	 call	 __RTC_CheckEsp
  0003e	8b e5		 mov	 esp, ebp
  00040	5d		 pop	 ebp
  00041	c2 08 00	 ret	 8
?OnSendChangeSubject@IEventListener@@UAEXV?$CStringT@DV?$StrTraitMFC_DLL@DV?$ChTraitsCRT@D@ATL@@@@@ATL@@0@Z ENDP ; IEventListener::OnSendChangeSubject
; Function compile flags: /Odt /RTCsu
_TEXT	ENDS
;	COMDAT ?OnChangeSkinAndSub@IEventListener@@UAEXABV?$CStringT@DV?$StrTraitMFC_DLL@DV?$ChTraitsCRT@D@ATL@@@@@ATL@@0@Z
_TEXT	SEGMENT
_this$ = -4						; size = 4
_strPath$ = 8						; size = 4
_strSub$ = 12						; size = 4
?OnChangeSkinAndSub@IEventListener@@UAEXABV?$CStringT@DV?$StrTraitMFC_DLL@DV?$ChTraitsCRT@D@ATL@@@@@ATL@@0@Z PROC NEAR ; IEventListener::OnChangeSkinAndSub, COMDAT
; _this$ = ecx

; 12   : 	virtual void OnChangeSkinAndSub(const CString& strPath,const CString& strSub){};

  00000	55		 push	 ebp
  00001	8b ec		 mov	 ebp, esp
  00003	51		 push	 ecx
  00004	c7 45 fc cc cc
	cc cc		 mov	 DWORD PTR [ebp-4], -858993460 ; ccccccccH
  0000b	89 4d fc	 mov	 DWORD PTR _this$[ebp], ecx
  0000e	8b e5		 mov	 esp, ebp
  00010	5d		 pop	 ebp
  00011	c2 08 00	 ret	 8
?OnChangeSkinAndSub@IEventListener@@UAEXABV?$CStringT@DV?$StrTraitMFC_DLL@DV?$ChTraitsCRT@D@ATL@@@@@ATL@@0@Z ENDP ; IEventListener::OnChangeSkinAndSub
; Function compile flags: /Odt /RTCsu
_TEXT	ENDS
;	COMDAT ?OnStartDownSubject@IEventListener@@UAEXABV?$CStringT@DV?$StrTraitMFC_DLL@DV?$ChTraitsCRT@D@ATL@@@@@ATL@@@Z
_TEXT	SEGMENT
_this$ = -4						; size = 4
_strSubName$ = 8					; size = 4
?OnStartDownSubject@IEventListener@@UAEXABV?$CStringT@DV?$StrTraitMFC_DLL@DV?$ChTraitsCRT@D@ATL@@@@@ATL@@@Z PROC NEAR ; IEventListener::OnStartDownSubject, COMDAT
; _this$ = ecx

; 13   : 	virtual void OnStartDownSubject(const CString& strSubName){};

  00000	55		 push	 ebp
  00001	8b ec		 mov	 ebp, esp
  00003	51		 push	 ecx
  00004	c7 45 fc cc cc
	cc cc		 mov	 DWORD PTR [ebp-4], -858993460 ; ccccccccH
  0000b	89 4d fc	 mov	 DWORD PTR _this$[ebp], ecx
  0000e	8b e5		 mov	 esp, ebp
  00010	5d		 pop	 ebp
  00011	c2 04 00	 ret	 4
?OnStartDownSubject@IEventListener@@UAEXABV?$CStringT@DV?$StrTraitMFC_DLL@DV?$ChTraitsCRT@D@ATL@@@@@ATL@@@Z ENDP ; IEventListener::OnStartDownSubject
; Function compile flags: /Odt /RTCsu
_TEXT	ENDS
;	COMDAT ?OnFinishDownSubject@IEventListener@@UAEXH@Z
_TEXT	SEGMENT
_this$ = -4						; size = 4
_bSuc$ = 8						; size = 4
?OnFinishDownSubject@IEventListener@@UAEXH@Z PROC NEAR	; IEventListener::OnFinishDownSubject, COMDAT
; _this$ = ecx

; 14   : 	virtual void OnFinishDownSubject(BOOL bSuc){};

  00000	55		 push	 ebp
  00001	8b ec		 mov	 ebp, esp
  00003	51		 push	 ecx
  00004	c7 45 fc cc cc
	cc cc		 mov	 DWORD PTR [ebp-4], -858993460 ; ccccccccH
  0000b	89 4d fc	 mov	 DWORD PTR _this$[ebp], ecx
  0000e	8b e5		 mov	 esp, ebp
  00010	5d		 pop	 ebp
  00011	c2 04 00	 ret	 4
?OnFinishDownSubject@IEventListener@@UAEXH@Z ENDP	; IEventListener::OnFinishDownSubject
; Function compile flags: /Odt /RTCsu
; File d:\boxgit\playbox\playbox\dev\prj\playbox\src\layoutmgr\changecolor\skinwnd.h
_TEXT	ENDS
;	COMDAT ?OnCliekSlide@CSkinWnd@@MAEXPAVCSliderCtrl@@@Z
_TEXT	SEGMENT
_this$ = -4						; size = 4
_pBotton$ = 8						; size = 4
?OnCliekSlide@CSkinWnd@@MAEXPAVCSliderCtrl@@@Z PROC NEAR ; CSkinWnd::OnCliekSlide, COMDAT
; _this$ = ecx

; 55   : 	virtual void OnCliekSlide(CSliderCtrl* pBotton){;}

  00000	55		 push	 ebp
  00001	8b ec		 mov	 ebp, esp
  00003	51		 push	 ecx
  00004	c7 45 fc cc cc
	cc cc		 mov	 DWORD PTR [ebp-4], -858993460 ; ccccccccH
  0000b	89 4d fc	 mov	 DWORD PTR _this$[ebp], ecx
  0000e	8b e5		 mov	 esp, ebp
  00010	5d		 pop	 ebp
  00011	c2 04 00	 ret	 4
?OnCliekSlide@CSkinWnd@@MAEXPAVCSliderCtrl@@@Z ENDP	; CSkinWnd::OnCliekSlide
; Function compile flags: /Odt /RTCsu
_TEXT	ENDS
;	COMDAT ?OnSendChangeColor@CSkinWnd@@MAEXKI@Z
_TEXT	SEGMENT
_this$ = -4						; size = 4
_acolCol$ = 8						; size = 4
_anLightValue$ = 12					; size = 4
?OnSendChangeColor@CSkinWnd@@MAEXKI@Z PROC NEAR		; CSkinWnd::OnSendChangeColor, COMDAT
; _this$ = ecx

; 56   : 	virtual void OnSendChangeColor( COLORREF acolCol, UINT anLightValue ){;}

  00000	55		 push	 ebp
  00001	8b ec		 mov	 ebp, esp
  00003	51		 push	 ecx
  00004	c7 45 fc cc cc
	cc cc		 mov	 DWORD PTR [ebp-4], -858993460 ; ccccccccH
  0000b	89 4d fc	 mov	 DWORD PTR _this$[ebp], ecx
  0000e	8b e5		 mov	 esp, ebp
  00010	5d		 pop	 ebp
  00011	c2 08 00	 ret	 8
?OnSendChangeColor@CSkinWnd@@MAEXKI@Z ENDP		; CSkinWnd::OnSendChangeColor
; Function compile flags: /Odt /RTCsu
_TEXT	ENDS
;	COMDAT ?OnSendChangeSkin@CSkinWnd@@MAEXV?$CStringT@DV?$StrTraitMFC_DLL@DV?$ChTraitsCRT@D@ATL@@@@@ATL@@@Z
_TEXT	SEGMENT
_this$ = -4						; size = 4
_strPath$ = 8						; size = 4
?OnSendChangeSkin@CSkinWnd@@MAEXV?$CStringT@DV?$StrTraitMFC_DLL@DV?$ChTraitsCRT@D@ATL@@@@@ATL@@@Z PROC NEAR ; CSkinWnd::OnSendChangeSkin, COMDAT
; _this$ = ecx

; 57   : 	virtual void OnSendChangeSkin ( CString strPath){;}

  00000	55		 push	 ebp
  00001	8b ec		 mov	 ebp, esp
  00003	51		 push	 ecx
  00004	56		 push	 esi
  00005	c7 45 fc cc cc
	cc cc		 mov	 DWORD PTR [ebp-4], -858993460 ; ccccccccH
  0000c	89 4d fc	 mov	 DWORD PTR _this$[ebp], ecx
  0000f	8b f4		 mov	 esi, esp
  00011	8d 4d 08	 lea	 ecx, DWORD PTR _strPath$[ebp]
  00014	ff 15 00 00 00
	00		 call	 DWORD PTR __imp_??1?$CStringT@DV?$StrTraitMFC_DLL@DV?$ChTraitsCRT@D@ATL@@@@@ATL@@QAE@XZ
  0001a	3b f4		 cmp	 esi, esp
  0001c	e8 00 00 00 00	 call	 __RTC_CheckEsp
  00021	5e		 pop	 esi
  00022	83 c4 04	 add	 esp, 4
  00025	3b ec		 cmp	 ebp, esp
  00027	e8 00 00 00 00	 call	 __RTC_CheckEsp
  0002c	8b e5		 mov	 esp, ebp
  0002e	5d		 pop	 ebp
  0002f	c2 04 00	 ret	 4
?OnSendChangeSkin@CSkinWnd@@MAEXV?$CStringT@DV?$StrTraitMFC_DLL@DV?$ChTraitsCRT@D@ATL@@@@@ATL@@@Z ENDP ; CSkinWnd::OnSendChangeSkin
_TEXT	ENDS
PUBLIC	??1CSkinWnd@@UAE@XZ				; CSkinWnd::~CSkinWnd
EXTRN	??3CObject@@SGXPAX@Z:NEAR			; CObject::operator delete
; Function compile flags: /Odt /RTCsu
;	COMDAT ??_GCSkinWnd@@UAEPAXI@Z
_TEXT	SEGMENT
_this$ = -4						; size = 4
___flags$ = 8						; size = 4
??_GCSkinWnd@@UAEPAXI@Z PROC NEAR			; CSkinWnd::`scalar deleting destructor', COMDAT
; _this$ = ecx
  00000	55		 push	 ebp
  00001	8b ec		 mov	 ebp, esp
  00003	51		 push	 ecx
  00004	c7 45 fc cc cc
	cc cc		 mov	 DWORD PTR [ebp-4], -858993460 ; ccccccccH
  0000b	89 4d fc	 mov	 DWORD PTR _this$[ebp], ecx
  0000e	8b 4d fc	 mov	 ecx, DWORD PTR _this$[ebp]
  00011	e8 00 00 00 00	 call	 ??1CSkinWnd@@UAE@XZ	; CSkinWnd::~CSkinWnd
  00016	8b 45 08	 mov	 eax, DWORD PTR ___flags$[ebp]
  00019	83 e0 01	 and	 eax, 1
  0001c	74 09		 je	 SHORT $L191802
  0001e	8b 4d fc	 mov	 ecx, DWORD PTR _this$[ebp]
  00021	51		 push	 ecx
  00022	e8 00 00 00 00	 call	 ??3CObject@@SGXPAX@Z	; CObject::operator delete
$L191802:
  00027	8b 45 fc	 mov	 eax, DWORD PTR _this$[ebp]
  0002a	83 c4 04	 add	 esp, 4
  0002d	3b ec		 cmp	 ebp, esp
  0002f	e8 00 00 00 00	 call	 __RTC_CheckEsp
  00034	8b e5		 mov	 esp, ebp
  00036	5d		 pop	 ebp
  00037	c2 04 00	 ret	 4
??_GCSkinWnd@@UAEPAXI@Z ENDP				; CSkinWnd::`scalar deleting destructor'
_TEXT	ENDS
PUBLIC	?OnCliekButton@IEventListener@@UAEXPAVCButton@@@Z ; IEventListener::OnCliekButton
PUBLIC	?OnCliekSlide@IEventListener@@UAEXPAVCSliderCtrl@@@Z ; IEventListener::OnCliekSlide
PUBLIC	?OnSendChangeSkin@IEventListener@@UAEXV?$CStringT@DV?$StrTraitMFC_DLL@DV?$ChTraitsCRT@D@ATL@@@@@ATL@@@Z ; IEventListener::OnSendChangeSkin
PUBLIC	??_7IEventListener@@6B@				; IEventListener::`vftable'
PUBLIC	??_R4IEventListener@@6B@			; IEventListener::`RTTI Complete Object Locator'
PUBLIC	??_R3IEventListener@@8				; IEventListener::`RTTI Class Hierarchy Descriptor'
PUBLIC	??_R2IEventListener@@8				; IEventListener::`RTTI Base Class Array'
PUBLIC	??_R1A@?0A@A@IEventListener@@8			; IEventListener::`RTTI Base Class Descriptor at (0,-1,0,0)'
;	COMDAT ??_7IEventListener@@6B@
CONST	SEGMENT
??_7IEventListener@@6B@ DD FLAT:??_R4IEventListener@@6B@ ; IEventListener::`vftable'
	DD	FLAT:?OnCliekButton@IEventListener@@UAEXPAVCButton@@@Z
	DD	FLAT:?OnCliekSlide@IEventListener@@UAEXPAVCSliderCtrl@@@Z
	DD	FLAT:?OnSendChangeColor@IEventListener@@UAEXKI_N@Z
	DD	FLAT:?OnSendChangeSkin@IEventListener@@UAEXV?$CStringT@DV?$StrTraitMFC_DLL@DV?$ChTraitsCRT@D@ATL@@@@@ATL@@@Z
	DD	FLAT:?OnSendChangeSubject@IEventListener@@UAEXV?$CStringT@DV?$StrTraitMFC_DLL@DV?$ChTraitsCRT@D@ATL@@@@@ATL@@0@Z
	DD	FLAT:?OnChangeSkinAndSub@IEventListener@@UAEXABV?$CStringT@DV?$StrTraitMFC_DLL@DV?$ChTraitsCRT@D@ATL@@@@@ATL@@0@Z
	DD	FLAT:?OnStartDownSubject@IEventListener@@UAEXABV?$CStringT@DV?$StrTraitMFC_DLL@DV?$ChTraitsCRT@D@ATL@@@@@ATL@@@Z
	DD	FLAT:?OnFinishDownSubject@IEventListener@@UAEXH@Z
CONST	ENDS
;	COMDAT ??_R4IEventListener@@6B@
rdata$r	SEGMENT
??_R4IEventListener@@6B@ DD 00H				; IEventListener::`RTTI Complete Object Locator'
	DD	00H
	DD	00H
	DD	FLAT:??_R0?AVIEventListener@@@8
	DD	FLAT:??_R3IEventListener@@8
rdata$r	ENDS
;	COMDAT ??_R3IEventListener@@8
rdata$r	SEGMENT
??_R3IEventListener@@8 DD 00H				; IEventListener::`RTTI Class Hierarchy Descriptor'
	DD	00H
	DD	01H
	DD	FLAT:??_R2IEventListener@@8
rdata$r	ENDS
;	COMDAT ??_R2IEventListener@@8
rdata$r	SEGMENT
??_R2IEventListener@@8 DD FLAT:??_R1A@?0A@A@IEventListener@@8 ; IEventListener::`RTTI Base Class Array'
rdata$r	ENDS
;	COMDAT ??_R1A@?0A@A@IEventListener@@8
rdata$r	SEGMENT
??_R1A@?0A@A@IEventListener@@8 DD FLAT:??_R0?AVIEventListener@@@8 ; IEventListener::`RTTI Base Class Descriptor at (0,-1,0,0)'
	DD	00H
	DD	00H
	DD	0ffffffffH
	DD	00H
	DD	00H
; Function compile flags: /Odt /RTCsu
rdata$r	ENDS
;	COMDAT ??0IEventListener@@QAE@XZ
_TEXT	SEGMENT
_this$ = -4						; size = 4
??0IEventListener@@QAE@XZ PROC NEAR			; IEventListener::IEventListener, COMDAT
; _this$ = ecx
  00000	55		 push	 ebp
  00001	8b ec		 mov	 ebp, esp
  00003	51		 push	 ecx
  00004	c7 45 fc cc cc
	cc cc		 mov	 DWORD PTR [ebp-4], -858993460 ; ccccccccH
  0000b	89 4d fc	 mov	 DWORD PTR _this$[ebp], ecx
  0000e	8b 45 fc	 mov	 eax, DWORD PTR _this$[ebp]
  00011	c7 00 00 00 00
	00		 mov	 DWORD PTR [eax], OFFSET FLAT:??_7IEventListener@@6B@
  00017	8b 45 fc	 mov	 eax, DWORD PTR _this$[ebp]
  0001a	8b e5		 mov	 esp, ebp
  0001c	5d		 pop	 ebp
  0001d	c3		 ret	 0
??0IEventListener@@QAE@XZ ENDP				; IEventListener::IEventListener
; Function compile flags: /Odt /RTCsu
; File d:\boxgit\playbox\playbox\dev\prj\playbox\src\layoutmgr\changecolor\ievent.h
_TEXT	ENDS
;	COMDAT ?OnCliekButton@IEventListener@@UAEXPAVCButton@@@Z
_TEXT	SEGMENT
_this$ = -4						; size = 4
_pBotton$ = 8						; size = 4
?OnCliekButton@IEventListener@@UAEXPAVCButton@@@Z PROC NEAR ; IEventListener::OnCliekButton, COMDAT
; _this$ = ecx

; 7    : 	virtual void OnCliekButton(CButton* pBotton){};

  00000	55		 push	 ebp
  00001	8b ec		 mov	 ebp, esp
  00003	51		 push	 ecx
  00004	c7 45 fc cc cc
	cc cc		 mov	 DWORD PTR [ebp-4], -858993460 ; ccccccccH
  0000b	89 4d fc	 mov	 DWORD PTR _this$[ebp], ecx
  0000e	8b e5		 mov	 esp, ebp
  00010	5d		 pop	 ebp
  00011	c2 04 00	 ret	 4
?OnCliekButton@IEventListener@@UAEXPAVCButton@@@Z ENDP	; IEventListener::OnCliekButton
; Function compile flags: /Odt /RTCsu
_TEXT	ENDS
;	COMDAT ?OnCliekSlide@IEventListener@@UAEXPAVCSliderCtrl@@@Z
_TEXT	SEGMENT
_this$ = -4						; size = 4
_pBotton$ = 8						; size = 4
?OnCliekSlide@IEventListener@@UAEXPAVCSliderCtrl@@@Z PROC NEAR ; IEventListener::OnCliekSlide, COMDAT
; _this$ = ecx

; 8    : 	virtual void OnCliekSlide(CSliderCtrl* pBotton){};

  00000	55		 push	 ebp
  00001	8b ec		 mov	 ebp, esp
  00003	51		 push	 ecx
  00004	c7 45 fc cc cc
	cc cc		 mov	 DWORD PTR [ebp-4], -858993460 ; ccccccccH
  0000b	89 4d fc	 mov	 DWORD PTR _this$[ebp], ecx
  0000e	8b e5		 mov	 esp, ebp
  00010	5d		 pop	 ebp
  00011	c2 04 00	 ret	 4
?OnCliekSlide@IEventListener@@UAEXPAVCSliderCtrl@@@Z ENDP ; IEventListener::OnCliekSlide
; Function compile flags: /Odt /RTCsu
_TEXT	ENDS
;	COMDAT ?OnSendChangeSkin@IEventListener@@UAEXV?$CStringT@DV?$StrTraitMFC_DLL@DV?$ChTraitsCRT@D@ATL@@@@@ATL@@@Z
_TEXT	SEGMENT
_this$ = -4						; size = 4
_strPath$ = 8						; size = 4
?OnSendChangeSkin@IEventListener@@UAEXV?$CStringT@DV?$StrTraitMFC_DLL@DV?$ChTraitsCRT@D@ATL@@@@@ATL@@@Z PROC NEAR ; IEventListener::OnSendChangeSkin, COMDAT
; _this$ = ecx

; 10   : 	virtual void OnSendChangeSkin ( CString strPath){};	

  00000	55		 push	 ebp
  00001	8b ec		 mov	 ebp, esp
  00003	51		 push	 ecx
  00004	56		 push	 esi
  00005	c7 45 fc cc cc
	cc cc		 mov	 DWORD PTR [ebp-4], -858993460 ; ccccccccH
  0000c	89 4d fc	 mov	 DWORD PTR _this$[ebp], ecx
  0000f	8b f4		 mov	 esi, esp
  00011	8d 4d 08	 lea	 ecx, DWORD PTR _strPath$[ebp]
  00014	ff 15 00 00 00
	00		 call	 DWORD PTR __imp_??1?$CStringT@DV?$StrTraitMFC_DLL@DV?$ChTraitsCRT@D@ATL@@@@@ATL@@QAE@XZ
  0001a	3b f4		 cmp	 esi, esp
  0001c	e8 00 00 00 00	 call	 __RTC_CheckEsp
  00021	5e		 pop	 esi
  00022	83 c4 04	 add	 esp, 4
  00025	3b ec		 cmp	 ebp, esp
  00027	e8 00 00 00 00	 call	 __RTC_CheckEsp
  0002c	8b e5		 mov	 esp, ebp
  0002e	5d		 pop	 ebp
  0002f	c2 04 00	 ret	 4
?OnSendChangeSkin@IEventListener@@UAEXV?$CStringT@DV?$StrTraitMFC_DLL@DV?$ChTraitsCRT@D@ATL@@@@@ATL@@@Z ENDP ; IEventListener::OnSendChangeSkin
_TEXT	ENDS
PUBLIC	??1?$_Tree@V?$_Tmap_traits@V?$CStringT@DV?$StrTraitMFC_DLL@DV?$ChTraitsCRT@D@ATL@@@@@ATL@@PAVCSkinButton@@U?$less@V?$CStringT@DV?$StrTraitMFC_DLL@DV?$ChTraitsCRT@D@ATL@@@@@ATL@@@std@@V?$allocator@U?$pair@$$CBV?$CStringT@DV?$StrTraitMFC_DLL@DV?$ChTraitsCRT@D@ATL@@@@@ATL@@PAVCSkinButton@@@std@@@5@$0A@@std@@@std@@QAE@XZ ; std::_Tree<std::_Tmap_traits<ATL::CStringT<char,StrTraitMFC_DLL<char,ATL::ChTraitsCRT<char> > >,CSkinButton *,std::less<ATL::CStringT<char,StrTraitMFC_DLL<char,ATL::ChTraitsCRT<char> > > >,std::allocator<std::pair<ATL::CStringT<char,StrTraitMFC_DLL<char,ATL::ChTraitsCRT<char> > > const ,CSkinButton *> >,0> >::~_Tree<std::_Tmap_traits<ATL::CStringT<char,StrTraitMFC_DLL<char,ATL::ChTraitsCRT<char> > >,CSkinButton *,std::less<ATL::CStringT<char,StrTraitMFC_DLL<char,ATL::ChTraitsCRT<char> > > >,std::allocator<std::pair<ATL::CStringT<char,StrTraitMFC_DLL<char,ATL::ChTraitsCRT<char> > > const ,CSkinButton *> >,0> >
; Function compile flags: /Odt /RTCsu
;	COMDAT ??1?$map@V?$CStringT@DV?$StrTraitMFC_DLL@DV?$ChTraitsCRT@D@ATL@@@@@ATL@@PAVCSkinButton@@U?$less@V?$CStringT@DV?$StrTraitMFC_DLL@DV?$ChTraitsCRT@D@ATL@@@@@ATL@@@std@@V?$allocator@U?$pair@$$CBV?$CStringT@DV?$StrTraitMFC_DLL@DV?$ChTraitsCRT@D@ATL@@@@@ATL@@PAVCSkinButton@@@std@@@5@@std@@QAE@XZ
_TEXT	SEGMENT
_this$ = -4						; size = 4
??1?$map@V?$CStringT@DV?$StrTraitMFC_DLL@DV?$ChTraitsCRT@D@ATL@@@@@ATL@@PAVCSkinButton@@U?$less@V?$CStringT@DV?$StrTraitMFC_DLL@DV?$ChTraitsCRT@D@ATL@@@@@ATL@@@std@@V?$allocator@U?$pair@$$CBV?$CStringT@DV?$StrTraitMFC_DLL@DV?$ChTraitsCRT@D@ATL@@@@@ATL@@PAVCSkinButton@@@std@@@5@@std@@QAE@XZ PROC NEAR ; std::map<ATL::CStringT<char,StrTraitMFC_DLL<char,ATL::ChTraitsCRT<char> > >,CSkinButton *,std::less<ATL::CStringT<char,StrTraitMFC_DLL<char,ATL::ChTraitsCRT<char> > > >,std::allocator<std::pair<ATL::CStringT<char,StrTraitMFC_DLL<char,ATL::ChTraitsCRT<char> > > const ,CSkinButton *> > >::~map<ATL::CStringT<char,StrTraitMFC_DLL<char,ATL::ChTraitsCRT<char> > >,CSkinButton *,std::less<ATL::CStringT<char,StrTraitMFC_DLL<char,ATL::ChTraitsCRT<char> > > >,std::allocator<std::pair<ATL::CStringT<char,StrTraitMFC_DLL<char,ATL::ChTraitsCRT<char> > > const ,CSkinButton *> > >, COMDAT
; _this$ = ecx
  00000	55		 push	 ebp
  00001	8b ec		 mov	 ebp, esp
  00003	51		 push	 ecx
  00004	c7 45 fc cc cc
	cc cc		 mov	 DWORD PTR [ebp-4], -858993460 ; ccccccccH
  0000b	89 4d fc	 mov	 DWORD PTR _this$[ebp], ecx
  0000e	8b 4d fc	 mov	 ecx, DWORD PTR _this$[ebp]
  00011	e8 00 00 00 00	 call	 ??1?$_Tree@V?$_Tmap_traits@V?$CStringT@DV?$StrTraitMFC_DLL@DV?$ChTraitsCRT@D@ATL@@@@@ATL@@PAVCSkinButton@@U?$less@V?$CStringT@DV?$StrTraitMFC_DLL@DV?$ChTraitsCRT@D@ATL@@@@@ATL@@@std@@V?$allocator@U?$pair@$$CBV?$CStringT@DV?$StrTraitMFC_DLL@DV?$ChTraitsCRT@D@ATL@@@@@ATL@@PAVCSkinButton@@@std@@@5@$0A@@std@@@std@@QAE@XZ ; std::_Tree<std::_Tmap_traits<ATL::CStringT<char,StrTraitMFC_DLL<char,ATL::ChTraitsCRT<char> > >,CSkinButton *,std::less<ATL::CStringT<char,StrTraitMFC_DLL<char,ATL::ChTraitsCRT<char> > > >,std::allocator<std::pair<ATL::CStringT<char,StrTraitMFC_DLL<char,ATL::ChTraitsCRT<char> > > const ,CSkinButton *> >,0> >::~_Tree<std::_Tmap_traits<ATL::CStringT<char,StrTraitMFC_DLL<char,ATL::ChTraitsCRT<char> > >,CSkinButton *,std::less<ATL::CStringT<char,StrTraitMFC_DLL<char,ATL::ChTraitsCRT<char> > > >,std::allocator<std::pair<ATL::CStringT<char,StrTraitMFC_DLL<char,ATL::ChTraitsCRT<char> > > const ,CSkinButton *> >,0> >
  00016	83 c4 04	 add	 esp, 4
  00019	3b ec		 cmp	 ebp, esp
  0001b	e8 00 00 00 00	 call	 __RTC_CheckEsp
  00020	8b e5		 mov	 esp, ebp
  00022	5d		 pop	 ebp
  00023	c3		 ret	 0
??1?$map@V?$CStringT@DV?$StrTraitMFC_DLL@DV?$ChTraitsCRT@D@ATL@@@@@ATL@@PAVCSkinButton@@U?$less@V?$CStringT@DV?$StrTraitMFC_DLL@DV?$ChTraitsCRT@D@ATL@@@@@ATL@@@std@@V?$allocator@U?$pair@$$CBV?$CStringT@DV?$StrTraitMFC_DLL@DV?$ChTraitsCRT@D@ATL@@@@@ATL@@PAVCSkinButton@@@std@@@5@@std@@QAE@XZ ENDP ; std::map<ATL::CStringT<char,StrTraitMFC_DLL<char,ATL::ChTraitsCRT<char> > >,CSkinButton *,std::less<ATL::CStringT<char,StrTraitMFC_DLL<char,ATL::ChTraitsCRT<char> > > >,std::allocator<std::pair<ATL::CStringT<char,StrTraitMFC_DLL<char,ATL::ChTraitsCRT<char> > > const ,CSkinButton *> > >::~map<ATL::CStringT<char,StrTraitMFC_DLL<char,ATL::ChTraitsCRT<char> > >,CSkinButton *,std::less<ATL::CStringT<char,StrTraitMFC_DLL<char,ATL::ChTraitsCRT<char> > > >,std::allocator<std::pair<ATL::CStringT<char,StrTraitMFC_DLL<char,ATL::ChTraitsCRT<char> > > const ,CSkinButton *> > >
_TEXT	ENDS
PUBLIC	?clear@?$_Tree@V?$_Tmap_traits@V?$CStringT@DV?$StrTraitMFC_DLL@DV?$ChTraitsCRT@D@ATL@@@@@ATL@@PAVCSkinButton@@U?$less@V?$CStringT@DV?$StrTraitMFC_DLL@DV?$ChTraitsCRT@D@ATL@@@@@ATL@@@std@@V?$allocator@U?$pair@$$CBV?$CStringT@DV?$StrTraitMFC_DLL@DV?$ChTraitsCRT@D@ATL@@@@@ATL@@PAVCSkinButton@@@std@@@5@$0A@@std@@@std@@QAEXXZ ; std::_Tree<std::_Tmap_traits<ATL::CStringT<char,StrTraitMFC_DLL<char,ATL::ChTraitsCRT<char> > >,CSkinButton *,std::less<ATL::CStringT<char,StrTraitMFC_DLL<char,ATL::ChTraitsCRT<char> > > >,std::allocator<std::pair<ATL::CStringT<char,StrTraitMFC_DLL<char,ATL::ChTraitsCRT<char> > > const ,CSkinButton *> >,0> >::clear
PUBLIC	?begin@?$list@PAVCSkinButton@@V?$allocator@PAVCSkinButton@@@std@@@std@@QAE?AViterator@12@XZ ; std::list<CSkinButton *,std::allocator<CSkinButton *> >::begin
PUBLIC	?end@?$list@PAVCSkinButton@@V?$allocator@PAVCSkinButton@@@std@@@std@@QAE?AViterator@12@XZ ; std::list<CSkinButton *,std::allocator<CSkinButton *> >::end
PUBLIC	??9const_iterator@?$list@PAVCSkinButton@@V?$allocator@PAVCSkinButton@@@std@@@std@@QBE_NABV012@@Z ; std::list<CSkinButton *,std::allocator<CSkinButton *> >::const_iterator::operator!=
PUBLIC	??Diterator@?$list@PAVCSkinButton@@V?$allocator@PAVCSkinButton@@@std@@@std@@QBEAAPAVCSkinButton@@XZ ; std::list<CSkinButton *,std::allocator<CSkinButton *> >::iterator::operator*
PUBLIC	??Eiterator@?$list@PAVCSkinButton@@V?$allocator@PAVCSkinButton@@@std@@@std@@QAE?AV012@H@Z ; std::list<CSkinButton *,std::allocator<CSkinButton *> >::iterator::operator++
xdata$x	SEGMENT
$T193959 DD	0ffffffffH
	DD	FLAT:$L193950
	DD	00H
	DD	FLAT:$L193951
	DD	01H
	DD	FLAT:$L193952
	DD	02H
	DD	FLAT:$L193953
	DD	03H
	DD	FLAT:$L193954
	DD	04H
	DD	FLAT:$L193955
$T193957 DD	019930520H
	DD	06H
	DD	FLAT:$T193959
	DD	2 DUP(00H)
	DD	2 DUP(00H)
; Function compile flags: /Odt /RTCsu
; File d:\boxgit\playbox\playbox\dev\prj\playbox\src\layoutmgr\changecolor\skinwnd.cpp
xdata$x	ENDS
_TEXT	SEGMENT
tv152 = -56						; size = 4
tv145 = -52						; size = 4
$T193949 = -48						; size = 4
$T193946 = -44						; size = 4
$T193945 = -40						; size = 4
$T193942 = -36						; size = 4
$T193941 = -32						; size = 4
$T193940 = -28						; size = 4
$T193939 = -24						; size = 4
_pBtn$191815 = -20					; size = 4
_this$ = -16						; size = 4
__$EHRec$ = -12						; size = 12
??1CSkinWnd@@UAE@XZ PROC NEAR				; CSkinWnd::~CSkinWnd
; _this$ = ecx

; 44   : {

  00210	55		 push	 ebp
  00211	8b ec		 mov	 ebp, esp
  00213	6a ff		 push	 -1
  00215	68 00 00 00 00	 push	 __ehhandler$??1CSkinWnd@@UAE@XZ
  0021a	64 a1 00 00 00
	00		 mov	 eax, DWORD PTR fs:__except_list
  00220	50		 push	 eax
  00221	64 89 25 00 00
	00 00		 mov	 DWORD PTR fs:__except_list, esp
  00228	83 ec 2c	 sub	 esp, 44			; 0000002cH
  0022b	56		 push	 esi
  0022c	57		 push	 edi
  0022d	51		 push	 ecx
  0022e	8d 7d c8	 lea	 edi, DWORD PTR [ebp-56]
  00231	b9 0b 00 00 00	 mov	 ecx, 11			; 0000000bH
  00236	b8 cc cc cc cc	 mov	 eax, -858993460		; ccccccccH
  0023b	f3 ab		 rep stosd
  0023d	59		 pop	 ecx
  0023e	89 4d f0	 mov	 DWORD PTR _this$[ebp], ecx
  00241	8b 45 f0	 mov	 eax, DWORD PTR _this$[ebp]
  00244	c7 00 00 00 00
	00		 mov	 DWORD PTR [eax], OFFSET FLAT:??_7CSkinWnd@@6BCFrameWnd@@@
  0024a	8b 4d f0	 mov	 ecx, DWORD PTR _this$[ebp]
  0024d	c7 81 d4 00 00
	00 00 00 00 00	 mov	 DWORD PTR [ecx+212], OFFSET FLAT:??_7CSkinWnd@@6BIEventListener@@@
  00257	c7 45 fc 05 00
	00 00		 mov	 DWORD PTR __$EHRec$[ebp+8], 5

; 45   : 	m_colBtnList_itor = m_colBtnList.begin();

  0025e	8d 55 e8	 lea	 edx, DWORD PTR $T193939[ebp]
  00261	52		 push	 edx
  00262	8b 4d f0	 mov	 ecx, DWORD PTR _this$[ebp]
  00265	81 c1 c0 02 00
	00		 add	 ecx, 704		; 000002c0H
  0026b	e8 00 00 00 00	 call	 ?begin@?$list@PAVCSkinButton@@V?$allocator@PAVCSkinButton@@@std@@@std@@QAE?AViterator@12@XZ ; std::list<CSkinButton *,std::allocator<CSkinButton *> >::begin
  00270	8b 00		 mov	 eax, DWORD PTR [eax]
  00272	8b 4d f0	 mov	 ecx, DWORD PTR _this$[ebp]
  00275	89 81 cc 02 00
	00		 mov	 DWORD PTR [ecx+716], eax
$L191812:

; 46   : 	while( m_colBtnList_itor != m_colBtnList.end() )

  0027b	8d 55 e4	 lea	 edx, DWORD PTR $T193940[ebp]
  0027e	52		 push	 edx
  0027f	8b 4d f0	 mov	 ecx, DWORD PTR _this$[ebp]
  00282	81 c1 c0 02 00
	00		 add	 ecx, 704		; 000002c0H
  00288	e8 00 00 00 00	 call	 ?end@?$list@PAVCSkinButton@@V?$allocator@PAVCSkinButton@@@std@@@std@@QAE?AViterator@12@XZ ; std::list<CSkinButton *,std::allocator<CSkinButton *> >::end
  0028d	50		 push	 eax
  0028e	8b 4d f0	 mov	 ecx, DWORD PTR _this$[ebp]
  00291	81 c1 cc 02 00
	00		 add	 ecx, 716		; 000002ccH
  00297	e8 00 00 00 00	 call	 ??9const_iterator@?$list@PAVCSkinButton@@V?$allocator@PAVCSkinButton@@@std@@@std@@QBE_NABV012@@Z ; std::list<CSkinButton *,std::allocator<CSkinButton *> >::const_iterator::operator!=
  0029c	0f b6 c0	 movzx	 eax, al
  0029f	85 c0		 test	 eax, eax
  002a1	0f 84 ab 00 00
	00		 je	 $L191813

; 47   : 	{
; 48   : 		CSkinButton* pBtn = *m_colBtnList_itor;

  002a7	8b 4d f0	 mov	 ecx, DWORD PTR _this$[ebp]
  002aa	81 c1 cc 02 00
	00		 add	 ecx, 716		; 000002ccH
  002b0	e8 00 00 00 00	 call	 ??Diterator@?$list@PAVCSkinButton@@V?$allocator@PAVCSkinButton@@@std@@@std@@QBEAAPAVCSkinButton@@XZ ; std::list<CSkinButton *,std::allocator<CSkinButton *> >::iterator::operator*
  002b5	8b 08		 mov	 ecx, DWORD PTR [eax]
  002b7	89 4d ec	 mov	 DWORD PTR _pBtn$191815[ebp], ecx

; 49   : 		delete pBtn->m_BitMap;

  002ba	8b 55 ec	 mov	 edx, DWORD PTR _pBtn$191815[ebp]
  002bd	8b 42 6c	 mov	 eax, DWORD PTR [edx+108]
  002c0	89 45 dc	 mov	 DWORD PTR $T193942[ebp], eax
  002c3	8b 4d dc	 mov	 ecx, DWORD PTR $T193942[ebp]
  002c6	89 4d e0	 mov	 DWORD PTR $T193941[ebp], ecx
  002c9	83 7d e0 00	 cmp	 DWORD PTR $T193941[ebp], 0
  002cd	74 1b		 je	 SHORT $L193943
  002cf	8b f4		 mov	 esi, esp
  002d1	6a 01		 push	 1
  002d3	8b 55 e0	 mov	 edx, DWORD PTR $T193941[ebp]
  002d6	8b 02		 mov	 eax, DWORD PTR [edx]
  002d8	8b 4d e0	 mov	 ecx, DWORD PTR $T193941[ebp]
  002db	ff 50 04	 call	 DWORD PTR [eax+4]
  002de	3b f4		 cmp	 esi, esp
  002e0	e8 00 00 00 00	 call	 __RTC_CheckEsp
  002e5	89 45 cc	 mov	 DWORD PTR tv145[ebp], eax
  002e8	eb 07		 jmp	 SHORT $L193944
$L193943:
  002ea	c7 45 cc 00 00
	00 00		 mov	 DWORD PTR tv145[ebp], 0
$L193944:

; 50   : 		delete pBtn;

  002f1	8b 4d ec	 mov	 ecx, DWORD PTR _pBtn$191815[ebp]
  002f4	89 4d d4	 mov	 DWORD PTR $T193946[ebp], ecx
  002f7	8b 55 d4	 mov	 edx, DWORD PTR $T193946[ebp]
  002fa	89 55 d8	 mov	 DWORD PTR $T193945[ebp], edx
  002fd	83 7d d8 00	 cmp	 DWORD PTR $T193945[ebp], 0
  00301	74 1b		 je	 SHORT $L193947
  00303	8b f4		 mov	 esi, esp
  00305	6a 01		 push	 1
  00307	8b 45 d8	 mov	 eax, DWORD PTR $T193945[ebp]
  0030a	8b 10		 mov	 edx, DWORD PTR [eax]
  0030c	8b 4d d8	 mov	 ecx, DWORD PTR $T193945[ebp]
  0030f	ff 52 04	 call	 DWORD PTR [edx+4]
  00312	3b f4		 cmp	 esi, esp
  00314	e8 00 00 00 00	 call	 __RTC_CheckEsp
  00319	89 45 c8	 mov	 DWORD PTR tv152[ebp], eax
  0031c	eb 07		 jmp	 SHORT $L193948
$L193947:
  0031e	c7 45 c8 00 00
	00 00		 mov	 DWORD PTR tv152[ebp], 0
$L193948:

; 51   : 
; 52   : 		*m_colBtnList_itor = NULL;

  00325	8b 4d f0	 mov	 ecx, DWORD PTR _this$[ebp]
  00328	81 c1 cc 02 00
	00		 add	 ecx, 716		; 000002ccH
  0032e	e8 00 00 00 00	 call	 ??Diterator@?$list@PAVCSkinButton@@V?$allocator@PAVCSkinButton@@@std@@@std@@QBEAAPAVCSkinButton@@XZ ; std::list<CSkinButton *,std::allocator<CSkinButton *> >::iterator::operator*
  00333	c7 00 00 00 00
	00		 mov	 DWORD PTR [eax], 0

; 53   : 		m_colBtnList_itor++;

  00339	6a 00		 push	 0
  0033b	8d 45 d0	 lea	 eax, DWORD PTR $T193949[ebp]
  0033e	50		 push	 eax
  0033f	8b 4d f0	 mov	 ecx, DWORD PTR _this$[ebp]
  00342	81 c1 cc 02 00
	00		 add	 ecx, 716		; 000002ccH
  00348	e8 00 00 00 00	 call	 ??Eiterator@?$list@PAVCSkinButton@@V?$allocator@PAVCSkinButton@@@std@@@std@@QAE?AV012@H@Z ; std::list<CSkinButton *,std::allocator<CSkinButton *> >::iterator::operator++

; 54   : 	}

  0034d	e9 29 ff ff ff	 jmp	 $L191812
$L191813:

; 55   : 	m_noDownloadSkinMap.clear();

  00352	8b 4d f0	 mov	 ecx, DWORD PTR _this$[ebp]
  00355	81 c1 d0 02 00
	00		 add	 ecx, 720		; 000002d0H
  0035b	e8 00 00 00 00	 call	 ?clear@?$_Tree@V?$_Tmap_traits@V?$CStringT@DV?$StrTraitMFC_DLL@DV?$ChTraitsCRT@D@ATL@@@@@ATL@@PAVCSkinButton@@U?$less@V?$CStringT@DV?$StrTraitMFC_DLL@DV?$ChTraitsCRT@D@ATL@@@@@ATL@@@std@@V?$allocator@U?$pair@$$CBV?$CStringT@DV?$StrTraitMFC_DLL@DV?$ChTraitsCRT@D@ATL@@@@@ATL@@PAVCSkinButton@@@std@@@5@$0A@@std@@@std@@QAEXXZ ; std::_Tree<std::_Tmap_traits<ATL::CStringT<char,StrTraitMFC_DLL<char,ATL::ChTraitsCRT<char> > >,CSkinButton *,std::less<ATL::CStringT<char,StrTraitMFC_DLL<char,ATL::ChTraitsCRT<char> > > >,std::allocator<std::pair<ATL::CStringT<char,StrTraitMFC_DLL<char,ATL::ChTraitsCRT<char> > > const ,CSkinButton *> >,0> >::clear

; 56   : }

  00360	c6 45 fc 04	 mov	 BYTE PTR __$EHRec$[ebp+8], 4
  00364	8b 4d f0	 mov	 ecx, DWORD PTR _this$[ebp]
  00367	81 c1 e0 02 00
	00		 add	 ecx, 736		; 000002e0H
  0036d	e8 00 00 00 00	 call	 ??1CFont@@UAE@XZ	; CFont::~CFont
  00372	c6 45 fc 03	 mov	 BYTE PTR __$EHRec$[ebp+8], 3
  00376	8b 4d f0	 mov	 ecx, DWORD PTR _this$[ebp]
  00379	81 c1 d0 02 00
	00		 add	 ecx, 720		; 000002d0H
  0037f	e8 00 00 00 00	 call	 ??1?$map@V?$CStringT@DV?$StrTraitMFC_DLL@DV?$ChTraitsCRT@D@ATL@@@@@ATL@@PAVCSkinButton@@U?$less@V?$CStringT@DV?$StrTraitMFC_DLL@DV?$ChTraitsCRT@D@ATL@@@@@ATL@@@std@@V?$allocator@U?$pair@$$CBV?$CStringT@DV?$StrTraitMFC_DLL@DV?$ChTraitsCRT@D@ATL@@@@@ATL@@PAVCSkinButton@@@std@@@5@@std@@QAE@XZ
  00384	c6 45 fc 02	 mov	 BYTE PTR __$EHRec$[ebp+8], 2
  00388	8b 4d f0	 mov	 ecx, DWORD PTR _this$[ebp]
  0038b	81 c1 c0 02 00
	00		 add	 ecx, 704		; 000002c0H
  00391	e8 00 00 00 00	 call	 ??1?$list@PAVCSkinButton@@V?$allocator@PAVCSkinButton@@@std@@@std@@QAE@XZ ; std::list<CSkinButton *,std::allocator<CSkinButton *> >::~list<CSkinButton *,std::allocator<CSkinButton *> >
  00396	c6 45 fc 01	 mov	 BYTE PTR __$EHRec$[ebp+8], 1
  0039a	8b 4d f0	 mov	 ecx, DWORD PTR _this$[ebp]
  0039d	81 c1 bc 01 00
	00		 add	 ecx, 444		; 000001bcH
  003a3	e8 00 00 00 00	 call	 ??1CScrollBarEx@@UAE@XZ	; CScrollBarEx::~CScrollBarEx
  003a8	c6 45 fc 00	 mov	 BYTE PTR __$EHRec$[ebp+8], 0
  003ac	8b 4d f0	 mov	 ecx, DWORD PTR _this$[ebp]
  003af	81 c1 d8 00 00
	00		 add	 ecx, 216		; 000000d8H
  003b5	e8 00 00 00 00	 call	 ??1CScrollBarEx@@UAE@XZ	; CScrollBarEx::~CScrollBarEx
  003ba	c7 45 fc ff ff
	ff ff		 mov	 DWORD PTR __$EHRec$[ebp+8], -1
  003c1	8b 4d f0	 mov	 ecx, DWORD PTR _this$[ebp]
  003c4	e8 00 00 00 00	 call	 ??1CFrameWnd@@UAE@XZ	; CFrameWnd::~CFrameWnd
  003c9	8b 4d f4	 mov	 ecx, DWORD PTR __$EHRec$[ebp]
  003cc	64 89 0d 00 00
	00 00		 mov	 DWORD PTR fs:__except_list, ecx
  003d3	5f		 pop	 edi
  003d4	5e		 pop	 esi
  003d5	83 c4 38	 add	 esp, 56			; 00000038H
  003d8	3b ec		 cmp	 ebp, esp
  003da	e8 00 00 00 00	 call	 __RTC_CheckEsp
  003df	8b e5		 mov	 esp, ebp
  003e1	5d		 pop	 ebp
  003e2	c3		 ret	 0
_TEXT	ENDS
text$x	SEGMENT
$L193950:
  00073	8b 4d f0	 mov	 ecx, DWORD PTR _this$[ebp]
  00076	e9 00 00 00 00	 jmp	 ??1CFrameWnd@@UAE@XZ	; CFrameWnd::~CFrameWnd
$L193951:
  0007b	8b 4d f0	 mov	 ecx, DWORD PTR _this$[ebp]
  0007e	81 c1 d8 00 00
	00		 add	 ecx, 216		; 000000d8H
  00084	e9 00 00 00 00	 jmp	 ??1CScrollBarEx@@UAE@XZ	; CScrollBarEx::~CScrollBarEx
$L193952:
  00089	8b 4d f0	 mov	 ecx, DWORD PTR _this$[ebp]
  0008c	81 c1 bc 01 00
	00		 add	 ecx, 444		; 000001bcH
  00092	e9 00 00 00 00	 jmp	 ??1CScrollBarEx@@UAE@XZ	; CScrollBarEx::~CScrollBarEx
$L193953:
  00097	8b 4d f0	 mov	 ecx, DWORD PTR _this$[ebp]
  0009a	81 c1 c0 02 00
	00		 add	 ecx, 704		; 000002c0H
  000a0	e9 00 00 00 00	 jmp	 ??1?$list@PAVCSkinButton@@V?$allocator@PAVCSkinButton@@@std@@@std@@QAE@XZ ; std::list<CSkinButton *,std::allocator<CSkinButton *> >::~list<CSkinButton *,std::allocator<CSkinButton *> >
$L193954:
  000a5	8b 4d f0	 mov	 ecx, DWORD PTR _this$[ebp]
  000a8	81 c1 d0 02 00
	00		 add	 ecx, 720		; 000002d0H
  000ae	e9 00 00 00 00	 jmp	 ??1?$map@V?$CStringT@DV?$StrTraitMFC_DLL@DV?$ChTraitsCRT@D@ATL@@@@@ATL@@PAVCSkinButton@@U?$less@V?$CStringT@DV?$StrTraitMFC_DLL@DV?$ChTraitsCRT@D@ATL@@@@@ATL@@@std@@V?$allocator@U?$pair@$$CBV?$CStringT@DV?$StrTraitMFC_DLL@DV?$ChTraitsCRT@D@ATL@@@@@ATL@@PAVCSkinButton@@@std@@@5@@std@@QAE@XZ
$L193955:
  000b3	8b 4d f0	 mov	 ecx, DWORD PTR _this$[ebp]
  000b6	81 c1 e0 02 00
	00		 add	 ecx, 736		; 000002e0H
  000bc	e9 00 00 00 00	 jmp	 ??1CFont@@UAE@XZ	; CFont::~CFont
__ehhandler$??1CSkinWnd@@UAE@XZ:
  000c1	b8 00 00 00 00	 mov	 eax, OFFSET FLAT:$T193957
  000c6	e9 00 00 00 00	 jmp	 ___CxxFrameHandler
text$x	ENDS
??1CSkinWnd@@UAE@XZ ENDP				; CSkinWnd::~CSkinWnd
PUBLIC	?GetThisMessageMap@CSkinWnd@@KGPBUAFX_MSGMAP@@XZ ; CSkinWnd::GetThisMessageMap
; Function compile flags: /Odt /RTCsu
_TEXT	SEGMENT
?GetThisMessageMap@CSkinWnd@@KGPBUAFX_MSGMAP@@XZ PROC NEAR ; CSkinWnd::GetThisMessageMap

; 58   : BEGIN_MESSAGE_MAP(CSkinWnd, CFrameWnd)

  003f0	55		 push	 ebp
  003f1	8b ec		 mov	 ebp, esp
  003f3	b8 00 00 00 00	 mov	 eax, OFFSET FLAT:?messageMap@CSkinWnd@@1UAFX_MSGMAP@@B ; CSkinWnd::messageMap
  003f8	5d		 pop	 ebp
  003f9	c3		 ret	 0
?GetThisMessageMap@CSkinWnd@@KGPBUAFX_MSGMAP@@XZ ENDP	; CSkinWnd::GetThisMessageMap
; Function compile flags: /Odt /RTCsu
_this$ = -4						; size = 4
?GetMessageMap@CSkinWnd@@MBEPBUAFX_MSGMAP@@XZ PROC NEAR	; CSkinWnd::GetMessageMap
; _this$ = ecx

; 58   : BEGIN_MESSAGE_MAP(CSkinWnd, CFrameWnd)

  00400	55		 push	 ebp
  00401	8b ec		 mov	 ebp, esp
  00403	51		 push	 ecx
  00404	c7 45 fc cc cc
	cc cc		 mov	 DWORD PTR [ebp-4], -858993460 ; ccccccccH
  0040b	89 4d fc	 mov	 DWORD PTR _this$[ebp], ecx
  0040e	b8 00 00 00 00	 mov	 eax, OFFSET FLAT:?messageMap@CSkinWnd@@1UAFX_MSGMAP@@B ; CSkinWnd::messageMap
  00413	8b e5		 mov	 esp, ebp
  00415	5d		 pop	 ebp
  00416	c3		 ret	 0
?GetMessageMap@CSkinWnd@@MBEPBUAFX_MSGMAP@@XZ ENDP	; CSkinWnd::GetMessageMap
_TEXT	ENDS
PUBLIC	?size@?$list@PAVCSkinButton@@V?$allocator@PAVCSkinButton@@@std@@@std@@QBEIXZ ; std::list<CSkinButton *,std::allocator<CSkinButton *> >::size
PUBLIC	?GetBitmapEx@CSkinButton@@QBEPAVCBitmap@@XZ	; CSkinButton::GetBitmapEx
EXTRN	?GetBitmap@CBitmap@@QAEHPAUtagBITMAP@@@Z:NEAR	; CBitmap::GetBitmap
EXTRN	?PreCreateWindow@CFrameWnd@@MAEHAAUtagCREATESTRUCTA@@@Z:NEAR ; CFrameWnd::PreCreateWindow
; Function compile flags: /Odt /RTCsu
_TEXT	SEGMENT
$T193963 = -84						; size = 4
_lnCy$191887 = -80					; size = 4
_lnBmpHight$191886 = -76				; size = 4
_bmp$191885 = -72					; size = 4
_lBitMap$ = -64						; size = 24
_lnLine$ = -36						; size = 4
_lnCount$ = -32						; size = 4
_rc$ = -24						; size = 16
_this$ = -4						; size = 4
_cs$ = 8						; size = 4
?PreCreateWindow@CSkinWnd@@MAEHAAUtagCREATESTRUCTA@@@Z PROC NEAR ; CSkinWnd::PreCreateWindow
; _this$ = ecx

; 72   : {

  00420	55		 push	 ebp
  00421	8b ec		 mov	 ebp, esp
  00423	83 ec 54	 sub	 esp, 84			; 00000054H
  00426	57		 push	 edi
  00427	51		 push	 ecx
  00428	8d 7d ac	 lea	 edi, DWORD PTR [ebp-84]
  0042b	b9 15 00 00 00	 mov	 ecx, 21			; 00000015H
  00430	b8 cc cc cc cc	 mov	 eax, -858993460		; ccccccccH
  00435	f3 ab		 rep stosd
  00437	59		 pop	 ecx
  00438	89 4d fc	 mov	 DWORD PTR _this$[ebp], ecx

; 73   : 	miScrollPos = 0;

  0043b	8b 45 fc	 mov	 eax, DWORD PTR _this$[ebp]
  0043e	c7 80 b0 02 00
	00 00 00 00 00	 mov	 DWORD PTR [eax+688], 0

; 74   : 
; 75   : 	CRect rc;	

  00448	8d 4d e8	 lea	 ecx, DWORD PTR _rc$[ebp]
  0044b	e8 00 00 00 00	 call	 ??0CRect@@QAE@XZ	; CRect::CRect

; 76   : 	int lnCount = (int)( m_colBtnList.size() );

  00450	8b 4d fc	 mov	 ecx, DWORD PTR _this$[ebp]
  00453	81 c1 c0 02 00
	00		 add	 ecx, 704		; 000002c0H
  00459	e8 00 00 00 00	 call	 ?size@?$list@PAVCSkinButton@@V?$allocator@PAVCSkinButton@@@std@@@std@@QBEIXZ ; std::list<CSkinButton *,std::allocator<CSkinButton *> >::size
  0045e	89 45 e0	 mov	 DWORD PTR _lnCount$[ebp], eax

; 77   : 	int lnLine  = lnCount/ROW_COUNT+ (lnCount%ROW_COUNT == 0? 0:1);

  00461	8b 45 e0	 mov	 eax, DWORD PTR _lnCount$[ebp]
  00464	99		 cdq
  00465	83 e2 03	 and	 edx, 3
  00468	03 c2		 add	 eax, edx
  0046a	c1 f8 02	 sar	 eax, 2
  0046d	8b 4d e0	 mov	 ecx, DWORD PTR _lnCount$[ebp]
  00470	81 e1 03 00 00
	80		 and	 ecx, -2147483645	; 80000003H
  00476	79 05		 jns	 SHORT $L193968
  00478	49		 dec	 ecx
  00479	83 c9 fc	 or	 ecx, -4			; fffffffcH
  0047c	41		 inc	 ecx
$L193968:
  0047d	f7 d9		 neg	 ecx
  0047f	1b c9		 sbb	 ecx, ecx
  00481	f7 d9		 neg	 ecx
  00483	03 c1		 add	 eax, ecx
  00485	89 45 dc	 mov	 DWORD PTR _lnLine$[ebp], eax

; 78   : 	BITMAP   lBitMap;
; 79   : 	m_colBtnList_itor = m_colBtnList.begin() ;

  00488	8d 55 ac	 lea	 edx, DWORD PTR $T193963[ebp]
  0048b	52		 push	 edx
  0048c	8b 4d fc	 mov	 ecx, DWORD PTR _this$[ebp]
  0048f	81 c1 c0 02 00
	00		 add	 ecx, 704		; 000002c0H
  00495	e8 00 00 00 00	 call	 ?begin@?$list@PAVCSkinButton@@V?$allocator@PAVCSkinButton@@@std@@@std@@QAE?AViterator@12@XZ ; std::list<CSkinButton *,std::allocator<CSkinButton *> >::begin
  0049a	8b 00		 mov	 eax, DWORD PTR [eax]
  0049c	8b 4d fc	 mov	 ecx, DWORD PTR _this$[ebp]
  0049f	89 81 cc 02 00
	00		 mov	 DWORD PTR [ecx+716], eax

; 80   : 	if( (0 != lnCount) && (NULL != (*m_colBtnList_itor)->GetBitmapEx())  )

  004a5	83 7d e0 00	 cmp	 DWORD PTR _lnCount$[ebp], 0
  004a9	74 74		 je	 SHORT $L191884
  004ab	8b 4d fc	 mov	 ecx, DWORD PTR _this$[ebp]
  004ae	81 c1 cc 02 00
	00		 add	 ecx, 716		; 000002ccH
  004b4	e8 00 00 00 00	 call	 ??Diterator@?$list@PAVCSkinButton@@V?$allocator@PAVCSkinButton@@@std@@@std@@QBEAAPAVCSkinButton@@XZ ; std::list<CSkinButton *,std::allocator<CSkinButton *> >::iterator::operator*
  004b9	8b 08		 mov	 ecx, DWORD PTR [eax]
  004bb	e8 00 00 00 00	 call	 ?GetBitmapEx@CSkinButton@@QBEPAVCBitmap@@XZ ; CSkinButton::GetBitmapEx
  004c0	85 c0		 test	 eax, eax
  004c2	74 5b		 je	 SHORT $L191884

; 81   : 	{
; 82   : 		CBitmap *bmp = (*m_colBtnList_itor)->GetBitmapEx();

  004c4	8b 4d fc	 mov	 ecx, DWORD PTR _this$[ebp]
  004c7	81 c1 cc 02 00
	00		 add	 ecx, 716		; 000002ccH
  004cd	e8 00 00 00 00	 call	 ??Diterator@?$list@PAVCSkinButton@@V?$allocator@PAVCSkinButton@@@std@@@std@@QBEAAPAVCSkinButton@@XZ ; std::list<CSkinButton *,std::allocator<CSkinButton *> >::iterator::operator*
  004d2	8b 08		 mov	 ecx, DWORD PTR [eax]
  004d4	e8 00 00 00 00	 call	 ?GetBitmapEx@CSkinButton@@QBEPAVCBitmap@@XZ ; CSkinButton::GetBitmapEx
  004d9	89 45 b8	 mov	 DWORD PTR _bmp$191885[ebp], eax

; 83   : 		bmp->GetBitmap( &lBitMap );

  004dc	8d 55 c0	 lea	 edx, DWORD PTR _lBitMap$[ebp]
  004df	52		 push	 edx
  004e0	8b 4d b8	 mov	 ecx, DWORD PTR _bmp$191885[ebp]
  004e3	e8 00 00 00 00	 call	 ?GetBitmap@CBitmap@@QAEHPAUtagBITMAP@@@Z ; CBitmap::GetBitmap

; 84   : 		int lnBmpHight = lBitMap.bmHeight;

  004e8	8b 45 c8	 mov	 eax, DWORD PTR _lBitMap$[ebp+8]
  004eb	89 45 b4	 mov	 DWORD PTR _lnBmpHight$191886[ebp], eax

; 85   : 		int lnCy = lnLine* (lnBmpHight + 2*TOP_SPACE+FONT_HEIGHT) + TOP_SPACE;

  004ee	8b 4d b4	 mov	 ecx, DWORD PTR _lnBmpHight$191886[ebp]
  004f1	83 c1 25	 add	 ecx, 37			; 00000025H
  004f4	0f af 4d dc	 imul	 ecx, DWORD PTR _lnLine$[ebp]
  004f8	83 c1 06	 add	 ecx, 6
  004fb	89 4d b0	 mov	 DWORD PTR _lnCy$191887[ebp], ecx

; 86   : 		if( lnCy> cs.cy )

  004fe	8b 55 08	 mov	 edx, DWORD PTR _cs$[ebp]
  00501	8b 45 b0	 mov	 eax, DWORD PTR _lnCy$191887[ebp]
  00504	3b 42 10	 cmp	 eax, DWORD PTR [edx+16]
  00507	7e 16		 jle	 SHORT $L191884

; 87   : 		{
; 88   : 			mbIsHasScroll = true;

  00509	8b 4d fc	 mov	 ecx, DWORD PTR _this$[ebp]
  0050c	c6 81 b8 02 00
	00 01		 mov	 BYTE PTR [ecx+696], 1

; 89   : 			m_nMaxViewPos = lnCy;

  00513	8b 55 fc	 mov	 edx, DWORD PTR _this$[ebp]
  00516	8b 45 b0	 mov	 eax, DWORD PTR _lnCy$191887[ebp]
  00519	89 82 bc 02 00
	00		 mov	 DWORD PTR [edx+700], eax
$L191884:

; 90   : 		}
; 91   : 	}		
; 92   : 
; 93   : 	return CFrameWnd::PreCreateWindow(cs);

  0051f	8b 4d 08	 mov	 ecx, DWORD PTR _cs$[ebp]
  00522	51		 push	 ecx
  00523	8b 4d fc	 mov	 ecx, DWORD PTR _this$[ebp]
  00526	e8 00 00 00 00	 call	 ?PreCreateWindow@CFrameWnd@@MAEHAAUtagCREATESTRUCTA@@@Z ; CFrameWnd::PreCreateWindow

; 94   : }

  0052b	52		 push	 edx
  0052c	8b cd		 mov	 ecx, ebp
  0052e	50		 push	 eax
  0052f	8d 15 00 00 00
	00		 lea	 edx, DWORD PTR $L193967
  00535	e8 00 00 00 00	 call	 @_RTC_CheckStackVars@8
  0053a	58		 pop	 eax
  0053b	5a		 pop	 edx
  0053c	5f		 pop	 edi
  0053d	83 c4 54	 add	 esp, 84			; 00000054H
  00540	3b ec		 cmp	 ebp, esp
  00542	e8 00 00 00 00	 call	 __RTC_CheckEsp
  00547	8b e5		 mov	 esp, ebp
  00549	5d		 pop	 ebp
  0054a	c2 04 00	 ret	 4
$L193967:
  0054d	02 00 00 00	 DD	 2
  00551	00 00 00 00	 DD	 $L193966
$L193966:
  00555	e8 ff ff ff	 DD	 -24			; ffffffe8H
  00559	10 00 00 00	 DD	 16			; 00000010H
  0055d	00 00 00 00	 DD	 $L193964
  00561	c0 ff ff ff	 DD	 -64			; ffffffc0H
  00565	18 00 00 00	 DD	 24			; 00000018H
  00569	00 00 00 00	 DD	 $L193965
$L193965:
  0056d	6c		 DB	 108			; 0000006cH
  0056e	42		 DB	 66			; 00000042H
  0056f	69		 DB	 105			; 00000069H
  00570	74		 DB	 116			; 00000074H
  00571	4d		 DB	 77			; 0000004dH
  00572	61		 DB	 97			; 00000061H
  00573	70		 DB	 112			; 00000070H
  00574	00		 DB	 0
$L193964:
  00575	72		 DB	 114			; 00000072H
  00576	63		 DB	 99			; 00000063H
  00577	00		 DB	 0
?PreCreateWindow@CSkinWnd@@MAEHAAUtagCREATESTRUCTA@@@Z ENDP ; CSkinWnd::PreCreateWindow
; Function compile flags: /Odt /RTCsu
; File d:\boxgit\playbox\playbox\dev\prj\playbox\src\layoutmgr\changecolor\skinbotton.h
_TEXT	ENDS
;	COMDAT ?GetBitmapEx@CSkinButton@@QBEPAVCBitmap@@XZ
_TEXT	SEGMENT
_this$ = -4						; size = 4
?GetBitmapEx@CSkinButton@@QBEPAVCBitmap@@XZ PROC NEAR	; CSkinButton::GetBitmapEx, COMDAT
; _this$ = ecx

; 112  : 	CBitmap* GetBitmapEx()const { return m_BitMap;}

  00000	55		 push	 ebp
  00001	8b ec		 mov	 ebp, esp
  00003	51		 push	 ecx
  00004	c7 45 fc cc cc
	cc cc		 mov	 DWORD PTR [ebp-4], -858993460 ; ccccccccH
  0000b	89 4d fc	 mov	 DWORD PTR _this$[ebp], ecx
  0000e	8b 45 fc	 mov	 eax, DWORD PTR _this$[ebp]
  00011	8b 40 6c	 mov	 eax, DWORD PTR [eax+108]
  00014	8b e5		 mov	 esp, ebp
  00016	5d		 pop	 ebp
  00017	c3		 ret	 0
?GetBitmapEx@CSkinButton@@QBEPAVCBitmap@@XZ ENDP	; CSkinButton::GetBitmapEx
_TEXT	ENDS
PUBLIC	?GetText@CSkinButton@@QBE?AV?$CStringT@DV?$StrTraitMFC_DLL@DV?$ChTraitsCRT@D@ATL@@@@@ATL@@XZ ; CSkinButton::GetText
EXTRN	?DrawTextA@CDC@@QAEHABV?$CStringT@DV?$StrTraitMFC_DLL@DV?$ChTraitsCRT@D@ATL@@@@@ATL@@PAUtagRECT@@I@Z:NEAR ; CDC::DrawTextA
EXTRN	??0CBrush@@QAE@K@Z:NEAR				; CBrush::CBrush
EXTRN	??1CBrush@@UAE@XZ:NEAR				; CBrush::~CBrush
EXTRN	??0CPaintDC@@QAE@PAVCWnd@@@Z:NEAR		; CPaintDC::CPaintDC
EXTRN	??1CPaintDC@@UAE@XZ:NEAR			; CPaintDC::~CPaintDC
EXTRN	??BCRect@@QAEPAUtagRECT@@XZ:NEAR		; CRect::operator tagRECT *
EXTRN	?GetWindowRect@CWnd@@QBEXPAUtagRECT@@@Z:NEAR	; CWnd::GetWindowRect
EXTRN	?GetClientRect@CWnd@@QBEXPAUtagRECT@@@Z:NEAR	; CWnd::GetClientRect
EXTRN	?ScreenToClient@CWnd@@QBEXPAUtagRECT@@@Z:NEAR	; CWnd::ScreenToClient
EXTRN	?SaveDC@CDC@@UAEHXZ:NEAR			; CDC::SaveDC
EXTRN	?RestoreDC@CDC@@UAEHH@Z:NEAR			; CDC::RestoreDC
EXTRN	?SelectObject@CDC@@UAEPAVCFont@@PAV2@@Z:NEAR	; CDC::SelectObject
EXTRN	?SetBkMode@CDC@@QAEHH@Z:NEAR			; CDC::SetBkMode
EXTRN	?FillRect@CDC@@QAEXPBUtagRECT@@PAVCBrush@@@Z:NEAR ; CDC::FillRect
xdata$x	SEGMENT
$T193989 DD	0ffffffffH
	DD	FLAT:$L193977
	DD	00H
	DD	FLAT:$L193978
	DD	00H
	DD	FLAT:$L193979
$T193981 DD	019930520H
	DD	03H
	DD	FLAT:$T193989
	DD	2 DUP(00H)
	DD	2 DUP(00H)
; Function compile flags: /Odt /RTCsu
; File d:\boxgit\playbox\playbox\dev\prj\playbox\src\layoutmgr\changecolor\skinwnd.cpp
xdata$x	ENDS
_TEXT	SEGMENT
tv176 = -204						; size = 4
tv177 = -200						; size = 4
tv174 = -196						; size = 4
tv65 = -192						; size = 4
$T193976 = -188						; size = 4
$T193975 = -184						; size = 4
$T193974 = -180						; size = 4
$T193973 = -176						; size = 4
$T193972 = -172						; size = 8
_rectBtn$191907 = -160					; size = 16
_rc$ = -136						; size = 16
_nSaveDC$ = -116					; size = 4
_dc$ = -108						; size = 84
_this$ = -20						; size = 4
__$ArrayPad$ = -16					; size = 4
__$EHRec$ = -12						; size = 12
__$ReturnAddr$ = 4					; size = 4
?OnPaint@CSkinWnd@@QAEXXZ PROC NEAR			; CSkinWnd::OnPaint
; _this$ = ecx

; 97   : {

  00580	55		 push	 ebp
  00581	8b ec		 mov	 ebp, esp
  00583	6a ff		 push	 -1
  00585	68 00 00 00 00	 push	 __ehhandler$?OnPaint@CSkinWnd@@QAEXXZ
  0058a	64 a1 00 00 00
	00		 mov	 eax, DWORD PTR fs:__except_list
  00590	50		 push	 eax
  00591	64 89 25 00 00
	00 00		 mov	 DWORD PTR fs:__except_list, esp
  00598	81 ec c0 00 00
	00		 sub	 esp, 192		; 000000c0H
  0059e	56		 push	 esi
  0059f	57		 push	 edi
  005a0	51		 push	 ecx
  005a1	8d bd 34 ff ff
	ff		 lea	 edi, DWORD PTR [ebp-204]
  005a7	b9 30 00 00 00	 mov	 ecx, 48			; 00000030H
  005ac	b8 cc cc cc cc	 mov	 eax, -858993460		; ccccccccH
  005b1	f3 ab		 rep stosd
  005b3	59		 pop	 ecx
  005b4	a1 00 00 00 00	 mov	 eax, DWORD PTR ___security_cookie
  005b9	89 45 f0	 mov	 DWORD PTR __$ArrayPad$[ebp], eax
  005bc	89 4d ec	 mov	 DWORD PTR _this$[ebp], ecx

; 98   : 	CPaintDC dc(this); // device context for painting

  005bf	8b 45 ec	 mov	 eax, DWORD PTR _this$[ebp]
  005c2	50		 push	 eax
  005c3	8d 4d 94	 lea	 ecx, DWORD PTR _dc$[ebp]
  005c6	e8 00 00 00 00	 call	 ??0CPaintDC@@QAE@PAVCWnd@@@Z ; CPaintDC::CPaintDC
  005cb	c7 45 fc 00 00
	00 00		 mov	 DWORD PTR __$EHRec$[ebp+8], 0

; 99   : 	/*RECT lrect;
; 100  : 	::GetClientRect( this->m_hWnd, &lrect);
; 101  : 	gBitMapOperate.FillRectangle(dc.m_hDC, lrect,  RGB(0,255,255)  , true ) ;*/
; 102  : 
; 103  : 	int nSaveDC = dc.SaveDC();

  005d2	8d 4d 94	 lea	 ecx, DWORD PTR _dc$[ebp]
  005d5	e8 00 00 00 00	 call	 ?SaveDC@CDC@@UAEHXZ	; CDC::SaveDC
  005da	89 45 8c	 mov	 DWORD PTR _nSaveDC$[ebp], eax

; 104  : 
; 105  : 	CRect rc;

  005dd	8d 8d 78 ff ff
	ff		 lea	 ecx, DWORD PTR _rc$[ebp]
  005e3	e8 00 00 00 00	 call	 ??0CRect@@QAE@XZ	; CRect::CRect

; 106  : 	GetClientRect(&rc);

  005e8	8d 8d 78 ff ff
	ff		 lea	 ecx, DWORD PTR _rc$[ebp]
  005ee	51		 push	 ecx
  005ef	8b 4d ec	 mov	 ecx, DWORD PTR _this$[ebp]
  005f2	e8 00 00 00 00	 call	 ?GetClientRect@CWnd@@QBEXPAUtagRECT@@@Z ; CWnd::GetClientRect

; 107  : 	dc.FillRect(rc,&CBrush(RGB(255,255,255)));

  005f7	68 ff ff ff 00	 push	 16777215		; 00ffffffH
  005fc	8d 8d 54 ff ff
	ff		 lea	 ecx, DWORD PTR $T193972[ebp]
  00602	e8 00 00 00 00	 call	 ??0CBrush@@QAE@K@Z	; CBrush::CBrush
  00607	89 85 40 ff ff
	ff		 mov	 DWORD PTR tv65[ebp], eax
  0060d	8b 95 40 ff ff
	ff		 mov	 edx, DWORD PTR tv65[ebp]
  00613	89 95 3c ff ff
	ff		 mov	 DWORD PTR tv174[ebp], edx
  00619	c6 45 fc 01	 mov	 BYTE PTR __$EHRec$[ebp+8], 1
  0061d	8b 85 3c ff ff
	ff		 mov	 eax, DWORD PTR tv174[ebp]
  00623	50		 push	 eax
  00624	8d 8d 78 ff ff
	ff		 lea	 ecx, DWORD PTR _rc$[ebp]
  0062a	e8 00 00 00 00	 call	 ??BCRect@@QAEPAUtagRECT@@XZ ; CRect::operator tagRECT *
  0062f	50		 push	 eax
  00630	8d 4d 94	 lea	 ecx, DWORD PTR _dc$[ebp]
  00633	e8 00 00 00 00	 call	 ?FillRect@CDC@@QAEXPBUtagRECT@@PAVCBrush@@@Z ; CDC::FillRect
  00638	c6 45 fc 00	 mov	 BYTE PTR __$EHRec$[ebp+8], 0
  0063c	8d 8d 54 ff ff
	ff		 lea	 ecx, DWORD PTR $T193972[ebp]
  00642	e8 00 00 00 00	 call	 ??1CBrush@@UAE@XZ	; CBrush::~CBrush

; 108  : 
; 109  : 	dc.SelectObject(&m_font);			

  00647	8b 4d ec	 mov	 ecx, DWORD PTR _this$[ebp]
  0064a	81 c1 e0 02 00
	00		 add	 ecx, 736		; 000002e0H
  00650	51		 push	 ecx
  00651	8d 4d 94	 lea	 ecx, DWORD PTR _dc$[ebp]
  00654	e8 00 00 00 00	 call	 ?SelectObject@CDC@@UAEPAVCFont@@PAV2@@Z ; CDC::SelectObject

; 110  : 	dc.SetBkMode(TRANSPARENT);		

  00659	6a 01		 push	 1
  0065b	8d 4d 94	 lea	 ecx, DWORD PTR _dc$[ebp]
  0065e	e8 00 00 00 00	 call	 ?SetBkMode@CDC@@QAEHH@Z	; CDC::SetBkMode

; 111  : 
; 112  : 	m_colBtnList_itor = m_colBtnList.begin() ;

  00663	8d 95 50 ff ff
	ff		 lea	 edx, DWORD PTR $T193973[ebp]
  00669	52		 push	 edx
  0066a	8b 4d ec	 mov	 ecx, DWORD PTR _this$[ebp]
  0066d	81 c1 c0 02 00
	00		 add	 ecx, 704		; 000002c0H
  00673	e8 00 00 00 00	 call	 ?begin@?$list@PAVCSkinButton@@V?$allocator@PAVCSkinButton@@@std@@@std@@QAE?AViterator@12@XZ ; std::list<CSkinButton *,std::allocator<CSkinButton *> >::begin
  00678	8b 00		 mov	 eax, DWORD PTR [eax]
  0067a	8b 4d ec	 mov	 ecx, DWORD PTR _this$[ebp]
  0067d	89 81 cc 02 00
	00		 mov	 DWORD PTR [ecx+716], eax
$L191904:

; 113  : 	while( m_colBtnList_itor != m_colBtnList.end() )

  00683	8d 95 4c ff ff
	ff		 lea	 edx, DWORD PTR $T193974[ebp]
  00689	52		 push	 edx
  0068a	8b 4d ec	 mov	 ecx, DWORD PTR _this$[ebp]
  0068d	81 c1 c0 02 00
	00		 add	 ecx, 704		; 000002c0H
  00693	e8 00 00 00 00	 call	 ?end@?$list@PAVCSkinButton@@V?$allocator@PAVCSkinButton@@@std@@@std@@QAE?AViterator@12@XZ ; std::list<CSkinButton *,std::allocator<CSkinButton *> >::end
  00698	50		 push	 eax
  00699	8b 4d ec	 mov	 ecx, DWORD PTR _this$[ebp]
  0069c	81 c1 cc 02 00
	00		 add	 ecx, 716		; 000002ccH
  006a2	e8 00 00 00 00	 call	 ??9const_iterator@?$list@PAVCSkinButton@@V?$allocator@PAVCSkinButton@@@std@@@std@@QBE_NABV012@@Z ; std::list<CSkinButton *,std::allocator<CSkinButton *> >::const_iterator::operator!=
  006a7	0f b6 c0	 movzx	 eax, al
  006aa	85 c0		 test	 eax, eax
  006ac	0f 84 e2 00 00
	00		 je	 $L191905

; 114  : 	{
; 115  : 		CRect rectBtn;

  006b2	8d 8d 60 ff ff
	ff		 lea	 ecx, DWORD PTR _rectBtn$191907[ebp]
  006b8	e8 00 00 00 00	 call	 ??0CRect@@QAE@XZ	; CRect::CRect

; 116  : 		(*m_colBtnList_itor)->GetWindowRect(rectBtn);

  006bd	8d 8d 60 ff ff
	ff		 lea	 ecx, DWORD PTR _rectBtn$191907[ebp]
  006c3	e8 00 00 00 00	 call	 ??BCRect@@QAEPAUtagRECT@@XZ ; CRect::operator tagRECT *
  006c8	50		 push	 eax
  006c9	8b 4d ec	 mov	 ecx, DWORD PTR _this$[ebp]
  006cc	81 c1 cc 02 00
	00		 add	 ecx, 716		; 000002ccH
  006d2	e8 00 00 00 00	 call	 ??Diterator@?$list@PAVCSkinButton@@V?$allocator@PAVCSkinButton@@@std@@@std@@QBEAAPAVCSkinButton@@XZ ; std::list<CSkinButton *,std::allocator<CSkinButton *> >::iterator::operator*
  006d7	8b 08		 mov	 ecx, DWORD PTR [eax]
  006d9	e8 00 00 00 00	 call	 ?GetWindowRect@CWnd@@QBEXPAUtagRECT@@@Z ; CWnd::GetWindowRect

; 117  : 		ScreenToClient(rectBtn);

  006de	8d 8d 60 ff ff
	ff		 lea	 ecx, DWORD PTR _rectBtn$191907[ebp]
  006e4	e8 00 00 00 00	 call	 ??BCRect@@QAEPAUtagRECT@@XZ ; CRect::operator tagRECT *
  006e9	50		 push	 eax
  006ea	8b 4d ec	 mov	 ecx, DWORD PTR _this$[ebp]
  006ed	e8 00 00 00 00	 call	 ?ScreenToClient@CWnd@@QBEXPAUtagRECT@@@Z ; CWnd::ScreenToClient

; 118  : 		rectBtn.top = rectBtn.bottom;

  006f2	8b 8d 6c ff ff
	ff		 mov	 ecx, DWORD PTR _rectBtn$191907[ebp+12]
  006f8	89 8d 64 ff ff
	ff		 mov	 DWORD PTR _rectBtn$191907[ebp+4], ecx

; 119  : 		rectBtn.bottom += FONT_HEIGHT;

  006fe	8b 95 6c ff ff
	ff		 mov	 edx, DWORD PTR _rectBtn$191907[ebp+12]
  00704	83 c2 19	 add	 edx, 25			; 00000019H
  00707	89 95 6c ff ff
	ff		 mov	 DWORD PTR _rectBtn$191907[ebp+12], edx

; 120  : 
; 121  : 		dc.DrawText( (*m_colBtnList_itor)->GetText(),rectBtn,DT_CENTER |DT_NOPREFIX);

  0070d	8d 85 48 ff ff
	ff		 lea	 eax, DWORD PTR $T193975[ebp]
  00713	50		 push	 eax
  00714	8b 4d ec	 mov	 ecx, DWORD PTR _this$[ebp]
  00717	81 c1 cc 02 00
	00		 add	 ecx, 716		; 000002ccH
  0071d	e8 00 00 00 00	 call	 ??Diterator@?$list@PAVCSkinButton@@V?$allocator@PAVCSkinButton@@@std@@@std@@QBEAAPAVCSkinButton@@XZ ; std::list<CSkinButton *,std::allocator<CSkinButton *> >::iterator::operator*
  00722	8b 08		 mov	 ecx, DWORD PTR [eax]
  00724	e8 00 00 00 00	 call	 ?GetText@CSkinButton@@QBE?AV?$CStringT@DV?$StrTraitMFC_DLL@DV?$ChTraitsCRT@D@ATL@@@@@ATL@@XZ ; CSkinButton::GetText
  00729	89 85 38 ff ff
	ff		 mov	 DWORD PTR tv177[ebp], eax
  0072f	8b 8d 38 ff ff
	ff		 mov	 ecx, DWORD PTR tv177[ebp]
  00735	89 8d 34 ff ff
	ff		 mov	 DWORD PTR tv176[ebp], ecx
  0073b	c6 45 fc 02	 mov	 BYTE PTR __$EHRec$[ebp+8], 2
  0073f	68 01 08 00 00	 push	 2049			; 00000801H
  00744	8d 8d 60 ff ff
	ff		 lea	 ecx, DWORD PTR _rectBtn$191907[ebp]
  0074a	e8 00 00 00 00	 call	 ??BCRect@@QAEPAUtagRECT@@XZ ; CRect::operator tagRECT *
  0074f	50		 push	 eax
  00750	8b 95 34 ff ff
	ff		 mov	 edx, DWORD PTR tv176[ebp]
  00756	52		 push	 edx
  00757	8d 4d 94	 lea	 ecx, DWORD PTR _dc$[ebp]
  0075a	e8 00 00 00 00	 call	 ?DrawTextA@CDC@@QAEHABV?$CStringT@DV?$StrTraitMFC_DLL@DV?$ChTraitsCRT@D@ATL@@@@@ATL@@PAUtagRECT@@I@Z ; CDC::DrawTextA
  0075f	c6 45 fc 00	 mov	 BYTE PTR __$EHRec$[ebp+8], 0
  00763	8b f4		 mov	 esi, esp
  00765	8d 8d 48 ff ff
	ff		 lea	 ecx, DWORD PTR $T193975[ebp]
  0076b	ff 15 00 00 00
	00		 call	 DWORD PTR __imp_??1?$CStringT@DV?$StrTraitMFC_DLL@DV?$ChTraitsCRT@D@ATL@@@@@ATL@@QAE@XZ
  00771	3b f4		 cmp	 esi, esp
  00773	e8 00 00 00 00	 call	 __RTC_CheckEsp

; 122  : 		
; 123  : 		m_colBtnList_itor++;

  00778	6a 00		 push	 0
  0077a	8d 85 44 ff ff
	ff		 lea	 eax, DWORD PTR $T193976[ebp]
  00780	50		 push	 eax
  00781	8b 4d ec	 mov	 ecx, DWORD PTR _this$[ebp]
  00784	81 c1 cc 02 00
	00		 add	 ecx, 716		; 000002ccH
  0078a	e8 00 00 00 00	 call	 ??Eiterator@?$list@PAVCSkinButton@@V?$allocator@PAVCSkinButton@@@std@@@std@@QAE?AV012@H@Z ; std::list<CSkinButton *,std::allocator<CSkinButton *> >::iterator::operator++

; 124  : 	}

  0078f	e9 ef fe ff ff	 jmp	 $L191904
$L191905:

; 125  : 	dc.RestoreDC(nSaveDC);

  00794	8b 4d 8c	 mov	 ecx, DWORD PTR _nSaveDC$[ebp]
  00797	51		 push	 ecx
  00798	8d 4d 94	 lea	 ecx, DWORD PTR _dc$[ebp]
  0079b	e8 00 00 00 00	 call	 ?RestoreDC@CDC@@UAEHH@Z	; CDC::RestoreDC

; 126  : }

  007a0	c7 45 fc ff ff
	ff ff		 mov	 DWORD PTR __$EHRec$[ebp+8], -1
  007a7	8d 4d 94	 lea	 ecx, DWORD PTR _dc$[ebp]
  007aa	e8 00 00 00 00	 call	 ??1CPaintDC@@UAE@XZ	; CPaintDC::~CPaintDC
  007af	52		 push	 edx
  007b0	8b cd		 mov	 ecx, ebp
  007b2	50		 push	 eax
  007b3	8d 15 00 00 00
	00		 lea	 edx, DWORD PTR $L193988
  007b9	e8 00 00 00 00	 call	 @_RTC_CheckStackVars@8
  007be	58		 pop	 eax
  007bf	5a		 pop	 edx
  007c0	8b 4d f4	 mov	 ecx, DWORD PTR __$EHRec$[ebp]
  007c3	64 89 0d 00 00
	00 00		 mov	 DWORD PTR fs:__except_list, ecx
  007ca	8b 4d f0	 mov	 ecx, DWORD PTR __$ArrayPad$[ebp]
  007cd	e8 00 00 00 00	 call	 @__security_check_cookie@4
  007d2	5f		 pop	 edi
  007d3	5e		 pop	 esi
  007d4	81 c4 cc 00 00
	00		 add	 esp, 204		; 000000ccH
  007da	3b ec		 cmp	 ebp, esp
  007dc	e8 00 00 00 00	 call	 __RTC_CheckEsp
  007e1	8b e5		 mov	 esp, ebp
  007e3	5d		 pop	 ebp
  007e4	c3		 ret	 0
$L193988:
  007e5	03 00 00 00	 DD	 3
  007e9	00 00 00 00	 DD	 $L193987
$L193987:
  007ed	94 ff ff ff	 DD	 -108			; ffffff94H
  007f1	54 00 00 00	 DD	 84			; 00000054H
  007f5	00 00 00 00	 DD	 $L193982
  007f9	78 ff ff ff	 DD	 -136			; ffffff78H
  007fd	10 00 00 00	 DD	 16			; 00000010H
  00801	00 00 00 00	 DD	 $L193983
  00805	60 ff ff ff	 DD	 -160			; ffffff60H
  00809	10 00 00 00	 DD	 16			; 00000010H
  0080d	00 00 00 00	 DD	 $L193984
$L193984:
  00811	72		 DB	 114			; 00000072H
  00812	65		 DB	 101			; 00000065H
  00813	63		 DB	 99			; 00000063H
  00814	74		 DB	 116			; 00000074H
  00815	42		 DB	 66			; 00000042H
  00816	74		 DB	 116			; 00000074H
  00817	6e		 DB	 110			; 0000006eH
  00818	00		 DB	 0
$L193983:
  00819	72		 DB	 114			; 00000072H
  0081a	63		 DB	 99			; 00000063H
  0081b	00		 DB	 0
$L193982:
  0081c	64		 DB	 100			; 00000064H
  0081d	63		 DB	 99			; 00000063H
  0081e	00		 DB	 0
_TEXT	ENDS
text$x	SEGMENT
$L193977:
  000cb	8d 4d 94	 lea	 ecx, DWORD PTR _dc$[ebp]
  000ce	e9 00 00 00 00	 jmp	 ??1CPaintDC@@UAE@XZ	; CPaintDC::~CPaintDC
$L193978:
  000d3	8d 8d 54 ff ff
	ff		 lea	 ecx, DWORD PTR $T193972[ebp]
  000d9	e9 00 00 00 00	 jmp	 ??1CBrush@@UAE@XZ	; CBrush::~CBrush
$L193979:
  000de	8b f4		 mov	 esi, esp
  000e0	8d 8d 48 ff ff
	ff		 lea	 ecx, DWORD PTR $T193975[ebp]
  000e6	ff 15 00 00 00
	00		 call	 DWORD PTR __imp_??1?$CStringT@DV?$StrTraitMFC_DLL@DV?$ChTraitsCRT@D@ATL@@@@@ATL@@QAE@XZ
  000ec	3b f4		 cmp	 esi, esp
  000ee	e9 00 00 00 00	 jmp	 __RTC_CheckEsp
__ehhandler$?OnPaint@CSkinWnd@@QAEXXZ:
  000f3	b8 00 00 00 00	 mov	 eax, OFFSET FLAT:$T193981
  000f8	e9 00 00 00 00	 jmp	 ___CxxFrameHandler
text$x	ENDS
?OnPaint@CSkinWnd@@QAEXXZ ENDP				; CSkinWnd::OnPaint
EXTRN	__imp_??0?$CStringT@DV?$StrTraitMFC_DLL@DV?$ChTraitsCRT@D@ATL@@@@@ATL@@QAE@ABV01@@Z:NEAR
; Function compile flags: /Odt /RTCsu
; File d:\boxgit\playbox\playbox\dev\prj\playbox\src\layoutmgr\changecolor\skinbotton.h
;	COMDAT ?GetText@CSkinButton@@QBE?AV?$CStringT@DV?$StrTraitMFC_DLL@DV?$ChTraitsCRT@D@ATL@@@@@ATL@@XZ
_TEXT	SEGMENT
$T193992 = -8						; size = 4
_this$ = -4						; size = 4
___$ReturnUdt$ = 8					; size = 4
?GetText@CSkinButton@@QBE?AV?$CStringT@DV?$StrTraitMFC_DLL@DV?$ChTraitsCRT@D@ATL@@@@@ATL@@XZ PROC NEAR ; CSkinButton::GetText, COMDAT
; _this$ = ecx

; 110  : 	CString GetText()const { return m_string; }

  00000	55		 push	 ebp
  00001	8b ec		 mov	 ebp, esp
  00003	83 ec 08	 sub	 esp, 8
  00006	56		 push	 esi
  00007	c7 45 f8 cc cc
	cc cc		 mov	 DWORD PTR [ebp-8], -858993460 ; ccccccccH
  0000e	c7 45 fc cc cc
	cc cc		 mov	 DWORD PTR [ebp-4], -858993460 ; ccccccccH
  00015	89 4d fc	 mov	 DWORD PTR _this$[ebp], ecx
  00018	c7 45 f8 00 00
	00 00		 mov	 DWORD PTR $T193992[ebp], 0
  0001f	8b 45 fc	 mov	 eax, DWORD PTR _this$[ebp]
  00022	05 18 01 00 00	 add	 eax, 280		; 00000118H
  00027	8b f4		 mov	 esi, esp
  00029	50		 push	 eax
  0002a	8b 4d 08	 mov	 ecx, DWORD PTR ___$ReturnUdt$[ebp]
  0002d	ff 15 00 00 00
	00		 call	 DWORD PTR __imp_??0?$CStringT@DV?$StrTraitMFC_DLL@DV?$ChTraitsCRT@D@ATL@@@@@ATL@@QAE@ABV01@@Z
  00033	3b f4		 cmp	 esi, esp
  00035	e8 00 00 00 00	 call	 __RTC_CheckEsp
  0003a	8b 4d f8	 mov	 ecx, DWORD PTR $T193992[ebp]
  0003d	83 c9 01	 or	 ecx, 1
  00040	89 4d f8	 mov	 DWORD PTR $T193992[ebp], ecx
  00043	8b 45 08	 mov	 eax, DWORD PTR ___$ReturnUdt$[ebp]
  00046	5e		 pop	 esi
  00047	83 c4 08	 add	 esp, 8
  0004a	3b ec		 cmp	 ebp, esp
  0004c	e8 00 00 00 00	 call	 __RTC_CheckEsp
  00051	8b e5		 mov	 esp, ebp
  00053	5d		 pop	 ebp
  00054	c2 04 00	 ret	 4
?GetText@CSkinButton@@QBE?AV?$CStringT@DV?$StrTraitMFC_DLL@DV?$ChTraitsCRT@D@ATL@@@@@ATL@@XZ ENDP ; CSkinButton::GetText
_TEXT	ENDS
PUBLIC	?UpdateScrollBar@CSkinWnd@@AAEXXZ		; CSkinWnd::UpdateScrollBar
EXTRN	?UpdateScrollBar@CScrollBarEx@@QAEXXZ:NEAR	; CScrollBarEx::UpdateScrollBar
; Function compile flags: /Odt /RTCsu
; File d:\boxgit\playbox\playbox\dev\prj\playbox\src\layoutmgr\changecolor\skinwnd.cpp
_TEXT	SEGMENT
_this$ = -4						; size = 4
?UpdateScrollBar@CSkinWnd@@AAEXXZ PROC NEAR		; CSkinWnd::UpdateScrollBar
; _this$ = ecx

; 128  : {

  00820	55		 push	 ebp
  00821	8b ec		 mov	 ebp, esp
  00823	51		 push	 ecx
  00824	c7 45 fc cc cc
	cc cc		 mov	 DWORD PTR [ebp-4], -858993460 ; ccccccccH
  0082b	89 4d fc	 mov	 DWORD PTR _this$[ebp], ecx

; 129  : 	mpVerticleScrollbar.UpdateScrollBar();

  0082e	8b 4d fc	 mov	 ecx, DWORD PTR _this$[ebp]
  00831	81 c1 d8 00 00
	00		 add	 ecx, 216		; 000000d8H
  00837	e8 00 00 00 00	 call	 ?UpdateScrollBar@CScrollBarEx@@QAEXXZ ; CScrollBarEx::UpdateScrollBar

; 130  : 	mpHorizontalScrollbar.UpdateScrollBar();

  0083c	8b 4d fc	 mov	 ecx, DWORD PTR _this$[ebp]
  0083f	81 c1 bc 01 00
	00		 add	 ecx, 444		; 000001bcH
  00845	e8 00 00 00 00	 call	 ?UpdateScrollBar@CScrollBarEx@@QAEXXZ ; CScrollBarEx::UpdateScrollBar

; 131  : }

  0084a	83 c4 04	 add	 esp, 4
  0084d	3b ec		 cmp	 ebp, esp
  0084f	e8 00 00 00 00	 call	 __RTC_CheckEsp
  00854	8b e5		 mov	 esp, ebp
  00856	5d		 pop	 ebp
  00857	c3		 ret	 0
?UpdateScrollBar@CSkinWnd@@AAEXXZ ENDP			; CSkinWnd::UpdateScrollBar
_TEXT	ENDS
PUBLIC	?UpdateScrollBarPosition@CSkinWnd@@AAEXXZ	; CSkinWnd::UpdateScrollBarPosition
EXTRN	?SetPosition@CScrollBarEx@@QAEXXZ:NEAR		; CScrollBarEx::SetPosition
; Function compile flags: /Odt /RTCsu
_TEXT	SEGMENT
_this$ = -4						; size = 4
?UpdateScrollBarPosition@CSkinWnd@@AAEXXZ PROC NEAR	; CSkinWnd::UpdateScrollBarPosition
; _this$ = ecx

; 133  : {

  00860	55		 push	 ebp
  00861	8b ec		 mov	 ebp, esp
  00863	51		 push	 ecx
  00864	c7 45 fc cc cc
	cc cc		 mov	 DWORD PTR [ebp-4], -858993460 ; ccccccccH
  0086b	89 4d fc	 mov	 DWORD PTR _this$[ebp], ecx

; 134  : 	mpVerticleScrollbar.SetPosition();

  0086e	8b 4d fc	 mov	 ecx, DWORD PTR _this$[ebp]
  00871	81 c1 d8 00 00
	00		 add	 ecx, 216		; 000000d8H
  00877	e8 00 00 00 00	 call	 ?SetPosition@CScrollBarEx@@QAEXXZ ; CScrollBarEx::SetPosition

; 135  : 	mpHorizontalScrollbar.SetPosition();

  0087c	8b 4d fc	 mov	 ecx, DWORD PTR _this$[ebp]
  0087f	81 c1 bc 01 00
	00		 add	 ecx, 444		; 000001bcH
  00885	e8 00 00 00 00	 call	 ?SetPosition@CScrollBarEx@@QAEXXZ ; CScrollBarEx::SetPosition

; 136  : }

  0088a	83 c4 04	 add	 esp, 4
  0088d	3b ec		 cmp	 ebp, esp
  0088f	e8 00 00 00 00	 call	 __RTC_CheckEsp
  00894	8b e5		 mov	 esp, ebp
  00896	5d		 pop	 ebp
  00897	c3		 ret	 0
?UpdateScrollBarPosition@CSkinWnd@@AAEXXZ ENDP		; CSkinWnd::UpdateScrollBarPosition
_TEXT	ENDS
PUBLIC	?UpdateControlsEnable@CSkinWnd@@QAEXH@Z		; CSkinWnd::UpdateControlsEnable
EXTRN	??BCWnd@@QBEPAUHWND__@@XZ:NEAR			; CWnd::operator HWND__ *
EXTRN	?ShowWindow@CWnd@@QAEHH@Z:NEAR			; CWnd::ShowWindow
EXTRN	?EnableWindow@CWnd@@QAEHH@Z:NEAR		; CWnd::EnableWindow
; Function compile flags: /Odt /RTCsu
_TEXT	SEGMENT
_this$ = -4						; size = 4
_abEnable$ = 8						; size = 4
?UpdateControlsEnable@CSkinWnd@@QAEXH@Z PROC NEAR	; CSkinWnd::UpdateControlsEnable
; _this$ = ecx

; 138  : {

  008a0	55		 push	 ebp
  008a1	8b ec		 mov	 ebp, esp
  008a3	51		 push	 ecx
  008a4	c7 45 fc cc cc
	cc cc		 mov	 DWORD PTR [ebp-4], -858993460 ; ccccccccH
  008ab	89 4d fc	 mov	 DWORD PTR _this$[ebp], ecx

; 139  : 	if (abEnable)

  008ae	83 7d 08 00	 cmp	 DWORD PTR _abEnable$[ebp], 0
  008b2	74 34		 je	 SHORT $L191920

; 140  : 	{
; 141  : 		if (mpVerticleScrollbar)

  008b4	8b 4d fc	 mov	 ecx, DWORD PTR _this$[ebp]
  008b7	81 c1 d8 00 00
	00		 add	 ecx, 216		; 000000d8H
  008bd	e8 00 00 00 00	 call	 ??BCWnd@@QBEPAUHWND__@@XZ ; CWnd::operator HWND__ *
  008c2	85 c0		 test	 eax, eax
  008c4	74 20		 je	 SHORT $L191921

; 142  : 		{
; 143  : 			mpVerticleScrollbar.EnableWindow(TRUE);

  008c6	6a 01		 push	 1
  008c8	8b 4d fc	 mov	 ecx, DWORD PTR _this$[ebp]
  008cb	81 c1 d8 00 00
	00		 add	 ecx, 216		; 000000d8H
  008d1	e8 00 00 00 00	 call	 ?EnableWindow@CWnd@@QAEHH@Z ; CWnd::EnableWindow

; 144  : 			mpVerticleScrollbar.ShowWindow(SW_SHOW);

  008d6	6a 05		 push	 5
  008d8	8b 4d fc	 mov	 ecx, DWORD PTR _this$[ebp]
  008db	81 c1 d8 00 00
	00		 add	 ecx, 216		; 000000d8H
  008e1	e8 00 00 00 00	 call	 ?ShowWindow@CWnd@@QAEHH@Z ; CWnd::ShowWindow
$L191921:

; 145  : 		}
; 146  : 	}
; 147  : 	else

  008e6	eb 32		 jmp	 SHORT $L191919
$L191920:

; 148  : 	{
; 149  : 		if (mpVerticleScrollbar)

  008e8	8b 4d fc	 mov	 ecx, DWORD PTR _this$[ebp]
  008eb	81 c1 d8 00 00
	00		 add	 ecx, 216		; 000000d8H
  008f1	e8 00 00 00 00	 call	 ??BCWnd@@QBEPAUHWND__@@XZ ; CWnd::operator HWND__ *
  008f6	85 c0		 test	 eax, eax
  008f8	74 20		 je	 SHORT $L191919

; 150  : 		{
; 151  : 			mpVerticleScrollbar.EnableWindow(FALSE);

  008fa	6a 00		 push	 0
  008fc	8b 4d fc	 mov	 ecx, DWORD PTR _this$[ebp]
  008ff	81 c1 d8 00 00
	00		 add	 ecx, 216		; 000000d8H
  00905	e8 00 00 00 00	 call	 ?EnableWindow@CWnd@@QAEHH@Z ; CWnd::EnableWindow

; 152  : 			mpVerticleScrollbar.ShowWindow(SW_HIDE);

  0090a	6a 00		 push	 0
  0090c	8b 4d fc	 mov	 ecx, DWORD PTR _this$[ebp]
  0090f	81 c1 d8 00 00
	00		 add	 ecx, 216		; 000000d8H
  00915	e8 00 00 00 00	 call	 ?ShowWindow@CWnd@@QAEHH@Z ; CWnd::ShowWindow
$L191919:

; 153  : 		}
; 154  : 	}
; 155  : }

  0091a	83 c4 04	 add	 esp, 4
  0091d	3b ec		 cmp	 ebp, esp
  0091f	e8 00 00 00 00	 call	 __RTC_CheckEsp
  00924	8b e5		 mov	 esp, ebp
  00926	5d		 pop	 ebp
  00927	c2 04 00	 ret	 4
?UpdateControlsEnable@CSkinWnd@@QAEXH@Z ENDP		; CSkinWnd::UpdateControlsEnable
_TEXT	ENDS
PUBLIC	?InitScrollBar@CSkinWnd@@QAEXXZ			; CSkinWnd::InitScrollBar
EXTRN	??0CRect@@QAE@HHHH@Z:NEAR			; CRect::CRect
EXTRN	?Height@CRect@@QBEHXZ:NEAR			; CRect::Height
EXTRN	?SetControlWnd@CScrollBarEx@@QAEXPAVCWnd@@@Z:NEAR ; CScrollBarEx::SetControlWnd
EXTRN	?SetScrollOrientation@CScrollBarEx@@QAEXW4ENUM_ScrollOrientation@@@Z:NEAR ; CScrollBarEx::SetScrollOrientation
EXTRN	?IsWindowEnabled@CWnd@@QBEHXZ:NEAR		; CWnd::IsWindowEnabled
EXTRN	?GetParent@CWnd@@QBEPAV1@XZ:NEAR		; CWnd::GetParent
; Function compile flags: /Odt /RTCsu
_TEXT	SEGMENT
$T194000 = -120						; size = 16
$T193999 = -104						; size = 16
$T193998 = -88						; size = 4
_lpParent$191939 = -84					; size = 4
_lnCy$191936 = -80					; size = 4
_lnBmpHight$191935 = -76				; size = 4
_bmp$191934 = -72					; size = 4
_lBitMap$ = -64						; size = 24
_lnLine$ = -36						; size = 4
_lnCount$ = -32						; size = 4
_rc$ = -24						; size = 16
_this$ = -4						; size = 4
?InitScrollBar@CSkinWnd@@QAEXXZ PROC NEAR		; CSkinWnd::InitScrollBar
; _this$ = ecx

; 157  : {

  00930	55		 push	 ebp
  00931	8b ec		 mov	 ebp, esp
  00933	83 ec 78	 sub	 esp, 120		; 00000078H
  00936	56		 push	 esi
  00937	57		 push	 edi
  00938	51		 push	 ecx
  00939	8d 7d 88	 lea	 edi, DWORD PTR [ebp-120]
  0093c	b9 1e 00 00 00	 mov	 ecx, 30			; 0000001eH
  00941	b8 cc cc cc cc	 mov	 eax, -858993460		; ccccccccH
  00946	f3 ab		 rep stosd
  00948	59		 pop	 ecx
  00949	89 4d fc	 mov	 DWORD PTR _this$[ebp], ecx

; 158  : 	miScrollPos = 0;

  0094c	8b 45 fc	 mov	 eax, DWORD PTR _this$[ebp]
  0094f	c7 80 b0 02 00
	00 00 00 00 00	 mov	 DWORD PTR [eax+688], 0

; 159  : 
; 160  : 	CRect rc;

  00959	8d 4d e8	 lea	 ecx, DWORD PTR _rc$[ebp]
  0095c	e8 00 00 00 00	 call	 ??0CRect@@QAE@XZ	; CRect::CRect

; 161  : 	this->GetClientRect( &rc );

  00961	8d 4d e8	 lea	 ecx, DWORD PTR _rc$[ebp]
  00964	51		 push	 ecx
  00965	8b 4d fc	 mov	 ecx, DWORD PTR _this$[ebp]
  00968	e8 00 00 00 00	 call	 ?GetClientRect@CWnd@@QBEXPAUtagRECT@@@Z ; CWnd::GetClientRect

; 162  : 	int lnCount = (int)( m_colBtnList.size() );

  0096d	8b 4d fc	 mov	 ecx, DWORD PTR _this$[ebp]
  00970	81 c1 c0 02 00
	00		 add	 ecx, 704		; 000002c0H
  00976	e8 00 00 00 00	 call	 ?size@?$list@PAVCSkinButton@@V?$allocator@PAVCSkinButton@@@std@@@std@@QBEIXZ ; std::list<CSkinButton *,std::allocator<CSkinButton *> >::size
  0097b	89 45 e0	 mov	 DWORD PTR _lnCount$[ebp], eax

; 163  : 	int lnLine  = lnCount/ROW_COUNT+ (lnCount%ROW_COUNT == 0? 0:1);

  0097e	8b 45 e0	 mov	 eax, DWORD PTR _lnCount$[ebp]
  00981	99		 cdq
  00982	83 e2 03	 and	 edx, 3
  00985	03 c2		 add	 eax, edx
  00987	c1 f8 02	 sar	 eax, 2
  0098a	8b 55 e0	 mov	 edx, DWORD PTR _lnCount$[ebp]
  0098d	81 e2 03 00 00
	80		 and	 edx, -2147483645	; 80000003H
  00993	79 05		 jns	 SHORT $L194005
  00995	4a		 dec	 edx
  00996	83 ca fc	 or	 edx, -4			; fffffffcH
  00999	42		 inc	 edx
$L194005:
  0099a	f7 da		 neg	 edx
  0099c	1b d2		 sbb	 edx, edx
  0099e	f7 da		 neg	 edx
  009a0	03 c2		 add	 eax, edx
  009a2	89 45 dc	 mov	 DWORD PTR _lnLine$[ebp], eax

; 164  : 	BITMAP   lBitMap;
; 165  : 	m_colBtnList_itor = m_colBtnList.begin() ;

  009a5	8d 45 a8	 lea	 eax, DWORD PTR $T193998[ebp]
  009a8	50		 push	 eax
  009a9	8b 4d fc	 mov	 ecx, DWORD PTR _this$[ebp]
  009ac	81 c1 c0 02 00
	00		 add	 ecx, 704		; 000002c0H
  009b2	e8 00 00 00 00	 call	 ?begin@?$list@PAVCSkinButton@@V?$allocator@PAVCSkinButton@@@std@@@std@@QAE?AViterator@12@XZ ; std::list<CSkinButton *,std::allocator<CSkinButton *> >::begin
  009b7	8b 08		 mov	 ecx, DWORD PTR [eax]
  009b9	8b 55 fc	 mov	 edx, DWORD PTR _this$[ebp]
  009bc	89 8a cc 02 00
	00		 mov	 DWORD PTR [edx+716], ecx

; 166  : 	if( (0 != lnCount) && (NULL != (*m_colBtnList_itor)->GetBitmapEx())  )

  009c2	83 7d e0 00	 cmp	 DWORD PTR _lnCount$[ebp], 0
  009c6	74 76		 je	 SHORT $L191933
  009c8	8b 4d fc	 mov	 ecx, DWORD PTR _this$[ebp]
  009cb	81 c1 cc 02 00
	00		 add	 ecx, 716		; 000002ccH
  009d1	e8 00 00 00 00	 call	 ??Diterator@?$list@PAVCSkinButton@@V?$allocator@PAVCSkinButton@@@std@@@std@@QBEAAPAVCSkinButton@@XZ ; std::list<CSkinButton *,std::allocator<CSkinButton *> >::iterator::operator*
  009d6	8b 08		 mov	 ecx, DWORD PTR [eax]
  009d8	e8 00 00 00 00	 call	 ?GetBitmapEx@CSkinButton@@QBEPAVCBitmap@@XZ ; CSkinButton::GetBitmapEx
  009dd	85 c0		 test	 eax, eax
  009df	74 5d		 je	 SHORT $L191933

; 167  : 	{
; 168  : 		CBitmap *bmp = (*m_colBtnList_itor)->GetBitmapEx();

  009e1	8b 4d fc	 mov	 ecx, DWORD PTR _this$[ebp]
  009e4	81 c1 cc 02 00
	00		 add	 ecx, 716		; 000002ccH
  009ea	e8 00 00 00 00	 call	 ??Diterator@?$list@PAVCSkinButton@@V?$allocator@PAVCSkinButton@@@std@@@std@@QBEAAPAVCSkinButton@@XZ ; std::list<CSkinButton *,std::allocator<CSkinButton *> >::iterator::operator*
  009ef	8b 08		 mov	 ecx, DWORD PTR [eax]
  009f1	e8 00 00 00 00	 call	 ?GetBitmapEx@CSkinButton@@QBEPAVCBitmap@@XZ ; CSkinButton::GetBitmapEx
  009f6	89 45 b8	 mov	 DWORD PTR _bmp$191934[ebp], eax

; 169  : 		bmp->GetBitmap( &lBitMap );

  009f9	8d 45 c0	 lea	 eax, DWORD PTR _lBitMap$[ebp]
  009fc	50		 push	 eax
  009fd	8b 4d b8	 mov	 ecx, DWORD PTR _bmp$191934[ebp]
  00a00	e8 00 00 00 00	 call	 ?GetBitmap@CBitmap@@QAEHPAUtagBITMAP@@@Z ; CBitmap::GetBitmap

; 170  : 		int lnBmpHight = lBitMap.bmHeight;

  00a05	8b 4d c8	 mov	 ecx, DWORD PTR _lBitMap$[ebp+8]
  00a08	89 4d b4	 mov	 DWORD PTR _lnBmpHight$191935[ebp], ecx

; 171  : 		int lnCy = lnLine* (lnBmpHight + 2*TOP_SPACE + FONT_HEIGHT ) + TOP_SPACE;

  00a0b	8b 55 b4	 mov	 edx, DWORD PTR _lnBmpHight$191935[ebp]
  00a0e	83 c2 25	 add	 edx, 37			; 00000025H
  00a11	0f af 55 dc	 imul	 edx, DWORD PTR _lnLine$[ebp]
  00a15	83 c2 06	 add	 edx, 6
  00a18	89 55 b0	 mov	 DWORD PTR _lnCy$191936[ebp], edx

; 172  : 		if( lnCy> rc.Height() )

  00a1b	8d 4d e8	 lea	 ecx, DWORD PTR _rc$[ebp]
  00a1e	e8 00 00 00 00	 call	 ?Height@CRect@@QBEHXZ	; CRect::Height
  00a23	39 45 b0	 cmp	 DWORD PTR _lnCy$191936[ebp], eax
  00a26	7e 16		 jle	 SHORT $L191933

; 173  : 		{
; 174  : 			mbIsHasScroll = true;

  00a28	8b 45 fc	 mov	 eax, DWORD PTR _this$[ebp]
  00a2b	c6 80 b8 02 00
	00 01		 mov	 BYTE PTR [eax+696], 1

; 175  : 			m_nMaxViewPos = lnCy;

  00a32	8b 4d fc	 mov	 ecx, DWORD PTR _this$[ebp]
  00a35	8b 55 b0	 mov	 edx, DWORD PTR _lnCy$191936[ebp]
  00a38	89 91 bc 02 00
	00		 mov	 DWORD PTR [ecx+700], edx
$L191933:

; 176  : 		}
; 177  : 	}
; 178  : 
; 179  : 	GetWindowRect(mrcOriginalRect);

  00a3e	8b 4d fc	 mov	 ecx, DWORD PTR _this$[ebp]
  00a41	81 c1 a0 02 00
	00		 add	 ecx, 672		; 000002a0H
  00a47	e8 00 00 00 00	 call	 ??BCRect@@QAEPAUtagRECT@@XZ ; CRect::operator tagRECT *
  00a4c	50		 push	 eax
  00a4d	8b 4d fc	 mov	 ecx, DWORD PTR _this$[ebp]
  00a50	e8 00 00 00 00	 call	 ?GetWindowRect@CWnd@@QBEXPAUtagRECT@@@Z ; CWnd::GetWindowRect

; 180  : 	mrcOriginalRect.bottom = mrcOriginalRect.top + m_nMaxViewPos;

  00a55	8b 45 fc	 mov	 eax, DWORD PTR _this$[ebp]
  00a58	8b 88 a4 02 00
	00		 mov	 ecx, DWORD PTR [eax+676]
  00a5e	8b 55 fc	 mov	 edx, DWORD PTR _this$[ebp]
  00a61	03 8a bc 02 00
	00		 add	 ecx, DWORD PTR [edx+700]
  00a67	8b 45 fc	 mov	 eax, DWORD PTR _this$[ebp]
  00a6a	89 88 ac 02 00
	00		 mov	 DWORD PTR [eax+684], ecx

; 181  : 
; 182  : 
; 183  : 	if(mbIsHasScroll)

  00a70	8b 4d fc	 mov	 ecx, DWORD PTR _this$[ebp]
  00a73	0f b6 91 b8 02
	00 00		 movzx	 edx, BYTE PTR [ecx+696]
  00a7a	85 d2		 test	 edx, edx
  00a7c	0f 84 05 01 00
	00		 je	 $L191926

; 184  : 	{
; 185  : 		CWnd* lpParent = GetParent();

  00a82	8b 4d fc	 mov	 ecx, DWORD PTR _this$[ebp]
  00a85	e8 00 00 00 00	 call	 ?GetParent@CWnd@@QBEPAV1@XZ ; CWnd::GetParent
  00a8a	89 45 ac	 mov	 DWORD PTR _lpParent$191939[ebp], eax

; 186  : 
; 187  : 		//
; 188  : 		mpVerticleScrollbar.Create(  NULL, WS_CHILD | SS_LEFT | SS_NOTIFY | WS_VISIBLE | WS_GROUP, CRect(0 ,0, 0, 0),   lpParent);

  00a8d	8b f4		 mov	 esi, esp
  00a8f	68 ff ff 00 00	 push	 65535			; 0000ffffH
  00a94	8b 45 ac	 mov	 eax, DWORD PTR _lpParent$191939[ebp]
  00a97	50		 push	 eax
  00a98	6a 00		 push	 0
  00a9a	6a 00		 push	 0
  00a9c	6a 00		 push	 0
  00a9e	6a 00		 push	 0
  00aa0	8d 4d 98	 lea	 ecx, DWORD PTR $T193999[ebp]
  00aa3	e8 00 00 00 00	 call	 ??0CRect@@QAE@HHHH@Z	; CRect::CRect
  00aa8	50		 push	 eax
  00aa9	68 00 01 02 50	 push	 1342308608		; 50020100H
  00aae	6a 00		 push	 0
  00ab0	8b 4d fc	 mov	 ecx, DWORD PTR _this$[ebp]
  00ab3	81 c1 d8 00 00
	00		 add	 ecx, 216		; 000000d8H
  00ab9	8b 55 fc	 mov	 edx, DWORD PTR _this$[ebp]
  00abc	8b 82 d8 00 00
	00		 mov	 eax, DWORD PTR [edx+216]
  00ac2	ff 90 38 01 00
	00		 call	 DWORD PTR [eax+312]
  00ac8	3b f4		 cmp	 esi, esp
  00aca	e8 00 00 00 00	 call	 __RTC_CheckEsp

; 189  : 		mpHorizontalScrollbar.Create(NULL, WS_CHILD | SS_LEFT | SS_NOTIFY | WS_VISIBLE | WS_GROUP, CRect(0 ,0, 0, 0),   lpParent);

  00acf	8b f4		 mov	 esi, esp
  00ad1	68 ff ff 00 00	 push	 65535			; 0000ffffH
  00ad6	8b 4d ac	 mov	 ecx, DWORD PTR _lpParent$191939[ebp]
  00ad9	51		 push	 ecx
  00ada	6a 00		 push	 0
  00adc	6a 00		 push	 0
  00ade	6a 00		 push	 0
  00ae0	6a 00		 push	 0
  00ae2	8d 4d 88	 lea	 ecx, DWORD PTR $T194000[ebp]
  00ae5	e8 00 00 00 00	 call	 ??0CRect@@QAE@HHHH@Z	; CRect::CRect
  00aea	50		 push	 eax
  00aeb	68 00 01 02 50	 push	 1342308608		; 50020100H
  00af0	6a 00		 push	 0
  00af2	8b 4d fc	 mov	 ecx, DWORD PTR _this$[ebp]
  00af5	81 c1 bc 01 00
	00		 add	 ecx, 444		; 000001bcH
  00afb	8b 55 fc	 mov	 edx, DWORD PTR _this$[ebp]
  00afe	8b 82 bc 01 00
	00		 mov	 eax, DWORD PTR [edx+444]
  00b04	ff 90 38 01 00
	00		 call	 DWORD PTR [eax+312]
  00b0a	3b f4		 cmp	 esi, esp
  00b0c	e8 00 00 00 00	 call	 __RTC_CheckEsp

; 190  : 
; 191  : 		//
; 192  : 		mpVerticleScrollbar.SetScrollOrientation(esoVertical);

  00b11	6a 01		 push	 1
  00b13	8b 4d fc	 mov	 ecx, DWORD PTR _this$[ebp]
  00b16	81 c1 d8 00 00
	00		 add	 ecx, 216		; 000000d8H
  00b1c	e8 00 00 00 00	 call	 ?SetScrollOrientation@CScrollBarEx@@QAEXW4ENUM_ScrollOrientation@@@Z ; CScrollBarEx::SetScrollOrientation

; 193  : 		mpHorizontalScrollbar.SetScrollOrientation(esoHorizontal);

  00b21	6a 00		 push	 0
  00b23	8b 4d fc	 mov	 ecx, DWORD PTR _this$[ebp]
  00b26	81 c1 bc 01 00
	00		 add	 ecx, 444		; 000001bcH
  00b2c	e8 00 00 00 00	 call	 ?SetScrollOrientation@CScrollBarEx@@QAEXW4ENUM_ScrollOrientation@@@Z ; CScrollBarEx::SetScrollOrientation

; 194  : 		//
; 195  : 		mpVerticleScrollbar.SetControlWnd(this);

  00b31	8b 4d fc	 mov	 ecx, DWORD PTR _this$[ebp]
  00b34	51		 push	 ecx
  00b35	8b 4d fc	 mov	 ecx, DWORD PTR _this$[ebp]
  00b38	81 c1 d8 00 00
	00		 add	 ecx, 216		; 000000d8H
  00b3e	e8 00 00 00 00	 call	 ?SetControlWnd@CScrollBarEx@@QAEXPAVCWnd@@@Z ; CScrollBarEx::SetControlWnd

; 196  : 		mpHorizontalScrollbar.SetControlWnd(this);

  00b43	8b 55 fc	 mov	 edx, DWORD PTR _this$[ebp]
  00b46	52		 push	 edx
  00b47	8b 4d fc	 mov	 ecx, DWORD PTR _this$[ebp]
  00b4a	81 c1 bc 01 00
	00		 add	 ecx, 444		; 000001bcH
  00b50	e8 00 00 00 00	 call	 ?SetControlWnd@CScrollBarEx@@QAEXPAVCWnd@@@Z ; CScrollBarEx::SetControlWnd

; 197  : 		//
; 198  : 		UpdateScrollBarPosition();

  00b55	8b 4d fc	 mov	 ecx, DWORD PTR _this$[ebp]
  00b58	e8 00 00 00 00	 call	 ?UpdateScrollBarPosition@CSkinWnd@@AAEXXZ ; CSkinWnd::UpdateScrollBarPosition

; 199  : 		if (IsWindowEnabled())

  00b5d	8b 4d fc	 mov	 ecx, DWORD PTR _this$[ebp]
  00b60	e8 00 00 00 00	 call	 ?IsWindowEnabled@CWnd@@QBEHXZ ; CWnd::IsWindowEnabled
  00b65	85 c0		 test	 eax, eax
  00b67	74 0c		 je	 SHORT $L191942

; 200  : 			UpdateControlsEnable(TRUE);

  00b69	6a 01		 push	 1
  00b6b	8b 4d fc	 mov	 ecx, DWORD PTR _this$[ebp]
  00b6e	e8 00 00 00 00	 call	 ?UpdateControlsEnable@CSkinWnd@@QAEXH@Z ; CSkinWnd::UpdateControlsEnable

; 201  : 		else

  00b73	eb 0a		 jmp	 SHORT $L191943
$L191942:

; 202  : 			UpdateControlsEnable(FALSE);

  00b75	6a 00		 push	 0
  00b77	8b 4d fc	 mov	 ecx, DWORD PTR _this$[ebp]
  00b7a	e8 00 00 00 00	 call	 ?UpdateControlsEnable@CSkinWnd@@QAEXH@Z ; CSkinWnd::UpdateControlsEnable
$L191943:

; 203  : 		UpdateScrollBar();

  00b7f	8b 4d fc	 mov	 ecx, DWORD PTR _this$[ebp]
  00b82	e8 00 00 00 00	 call	 ?UpdateScrollBar@CSkinWnd@@AAEXXZ ; CSkinWnd::UpdateScrollBar
$L191926:

; 204  : 	}
; 205  : }

  00b87	52		 push	 edx
  00b88	8b cd		 mov	 ecx, ebp
  00b8a	50		 push	 eax
  00b8b	8d 15 00 00 00
	00		 lea	 edx, DWORD PTR $L194004
  00b91	e8 00 00 00 00	 call	 @_RTC_CheckStackVars@8
  00b96	58		 pop	 eax
  00b97	5a		 pop	 edx
  00b98	5f		 pop	 edi
  00b99	5e		 pop	 esi
  00b9a	83 c4 78	 add	 esp, 120		; 00000078H
  00b9d	3b ec		 cmp	 ebp, esp
  00b9f	e8 00 00 00 00	 call	 __RTC_CheckEsp
  00ba4	8b e5		 mov	 esp, ebp
  00ba6	5d		 pop	 ebp
  00ba7	c3		 ret	 0
$L194004:
  00ba8	02 00 00 00	 DD	 2
  00bac	00 00 00 00	 DD	 $L194003
$L194003:
  00bb0	e8 ff ff ff	 DD	 -24			; ffffffe8H
  00bb4	10 00 00 00	 DD	 16			; 00000010H
  00bb8	00 00 00 00	 DD	 $L194001
  00bbc	c0 ff ff ff	 DD	 -64			; ffffffc0H
  00bc0	18 00 00 00	 DD	 24			; 00000018H
  00bc4	00 00 00 00	 DD	 $L194002
$L194002:
  00bc8	6c		 DB	 108			; 0000006cH
  00bc9	42		 DB	 66			; 00000042H
  00bca	69		 DB	 105			; 00000069H
  00bcb	74		 DB	 116			; 00000074H
  00bcc	4d		 DB	 77			; 0000004dH
  00bcd	61		 DB	 97			; 00000061H
  00bce	70		 DB	 112			; 00000070H
  00bcf	00		 DB	 0
$L194001:
  00bd0	72		 DB	 114			; 00000072H
  00bd1	63		 DB	 99			; 00000063H
  00bd2	00		 DB	 0
?InitScrollBar@CSkinWnd@@QAEXXZ ENDP			; CSkinWnd::InitScrollBar
_TEXT	ENDS
EXTRN	__imp__SendMessageA@16:NEAR
EXTRN	__RTC_UninitUse:NEAR
EXTRN	?OnVScroll@CFrameWnd@@IAEXIIPAVCScrollBar@@@Z:NEAR ; CFrameWnd::OnVScroll
EXTRN	?ScrollWindow@CWnd@@QAEXHHPBUtagRECT@@0@Z:NEAR	; CWnd::ScrollWindow
; Function compile flags: /Odt /RTCsu
_TEXT	SEGMENT
tv200 = -92						; size = 4
tv197 = -88						; size = 4
tv190 = -84						; size = 4
tv182 = -80						; size = 4
tv180 = -76						; size = 4
tv174 = -72						; size = 4
tv166 = -68						; size = 4
tv164 = -64						; size = 4
tv158 = -60						; size = 4
tv148 = -56						; size = 4
tv145 = -52						; size = 4
tv138 = -48						; size = 4
tv131 = -44						; size = 4
tv129 = -40						; size = 4
tv91 = -36						; size = 4
tv85 = -32						; size = 4
tv82 = -28						; size = 4
tv75 = -24						; size = 4
tv69 = -20						; size = 4
$T194044 = -13						; size = 1
_liMaxPos$ = -12					; size = 4
_liDelta$ = -8						; size = 4
_this$ = -4						; size = 4
_nSBCode$ = 8						; size = 4
_nPos$ = 12						; size = 4
_pScrollBar$ = 16					; size = 4
?OnVScroll@CSkinWnd@@QAEXIIPAVCScrollBar@@@Z PROC NEAR	; CSkinWnd::OnVScroll
; _this$ = ecx

; 207  : {

  00be0	55		 push	 ebp
  00be1	8b ec		 mov	 ebp, esp
  00be3	83 ec 5c	 sub	 esp, 92			; 0000005cH
  00be6	56		 push	 esi
  00be7	57		 push	 edi
  00be8	51		 push	 ecx
  00be9	8d 7d a4	 lea	 edi, DWORD PTR [ebp-92]
  00bec	b9 17 00 00 00	 mov	 ecx, 23			; 00000017H
  00bf1	b8 cc cc cc cc	 mov	 eax, -858993460		; ccccccccH
  00bf6	f3 ab		 rep stosd
  00bf8	59		 pop	 ecx
  00bf9	89 4d fc	 mov	 DWORD PTR _this$[ebp], ecx
  00bfc	c6 45 f3 00	 mov	 BYTE PTR $T194044[ebp], 0

; 208  : 	int liDelta;
; 209  : 	int liMaxPos = mrcOriginalRect.Height()- miHeight;

  00c00	8b 4d fc	 mov	 ecx, DWORD PTR _this$[ebp]
  00c03	81 c1 a0 02 00
	00		 add	 ecx, 672		; 000002a0H
  00c09	e8 00 00 00 00	 call	 ?Height@CRect@@QBEHXZ	; CRect::Height
  00c0e	8b 4d fc	 mov	 ecx, DWORD PTR _this$[ebp]
  00c11	2b 81 b4 02 00
	00		 sub	 eax, DWORD PTR [ecx+692]
  00c17	89 45 f4	 mov	 DWORD PTR _liMaxPos$[ebp], eax

; 210  : 
; 211  : 	switch (nSBCode)

  00c1a	8b 55 08	 mov	 edx, DWORD PTR _nSBCode$[ebp]
  00c1d	89 55 ec	 mov	 DWORD PTR tv69[ebp], edx
  00c20	81 7d ec 0a 02
	00 00		 cmp	 DWORD PTR tv69[ebp], 522 ; 0000020aH
  00c27	77 21		 ja	 SHORT $L194043
  00c29	81 7d ec 0a 02
	00 00		 cmp	 DWORD PTR tv69[ebp], 522 ; 0000020aH
  00c30	0f 84 8f 02 00
	00		 je	 $L191968
  00c36	83 7d ec 05	 cmp	 DWORD PTR tv69[ebp], 5
  00c3a	0f 87 bb 03 00
	00		 ja	 $L191973
  00c40	8b 45 ec	 mov	 eax, DWORD PTR tv69[ebp]
  00c43	ff 24 85 00 00
	00 00		 jmp	 DWORD PTR $L194050[eax*4]
$L194043:
  00c4a	e9 ac 03 00 00	 jmp	 $L191973
$L191956:

; 212  : 	{
; 213  : 	case SB_LINEDOWN:
; 214  : 		if (miScrollPos >= liMaxPos)

  00c4f	8b 4d fc	 mov	 ecx, DWORD PTR _this$[ebp]
  00c52	8b 91 b0 02 00
	00		 mov	 edx, DWORD PTR [ecx+688]
  00c58	3b 55 f4	 cmp	 edx, DWORD PTR _liMaxPos$[ebp]
  00c5b	7c 05		 jl	 SHORT $L191957

; 215  : 			return;

  00c5d	e9 2b 04 00 00	 jmp	 $L191949
$L191957:

; 216  : 
; 217  : 		liDelta = min(max(liMaxPos/20,5),liMaxPos-miScrollPos);

  00c62	8b 45 f4	 mov	 eax, DWORD PTR _liMaxPos$[ebp]
  00c65	99		 cdq
  00c66	b9 14 00 00 00	 mov	 ecx, 20			; 00000014H
  00c6b	f7 f9		 idiv	 ecx
  00c6d	83 f8 05	 cmp	 eax, 5
  00c70	7e 10		 jle	 SHORT $L194007
  00c72	8b 45 f4	 mov	 eax, DWORD PTR _liMaxPos$[ebp]
  00c75	99		 cdq
  00c76	b9 14 00 00 00	 mov	 ecx, 20			; 00000014H
  00c7b	f7 f9		 idiv	 ecx
  00c7d	89 45 e8	 mov	 DWORD PTR tv75[ebp], eax
  00c80	eb 07		 jmp	 SHORT $L194008
$L194007:
  00c82	c7 45 e8 05 00
	00 00		 mov	 DWORD PTR tv75[ebp], 5
$L194008:
  00c89	8b 55 fc	 mov	 edx, DWORD PTR _this$[ebp]
  00c8c	8b 45 f4	 mov	 eax, DWORD PTR _liMaxPos$[ebp]
  00c8f	2b 82 b0 02 00
	00		 sub	 eax, DWORD PTR [edx+688]
  00c95	39 45 e8	 cmp	 DWORD PTR tv75[ebp], eax
  00c98	7d 2f		 jge	 SHORT $L194011
  00c9a	8b 45 f4	 mov	 eax, DWORD PTR _liMaxPos$[ebp]
  00c9d	99		 cdq
  00c9e	b9 14 00 00 00	 mov	 ecx, 20			; 00000014H
  00ca3	f7 f9		 idiv	 ecx
  00ca5	83 f8 05	 cmp	 eax, 5
  00ca8	7e 10		 jle	 SHORT $L194009
  00caa	8b 45 f4	 mov	 eax, DWORD PTR _liMaxPos$[ebp]
  00cad	99		 cdq
  00cae	b9 14 00 00 00	 mov	 ecx, 20			; 00000014H
  00cb3	f7 f9		 idiv	 ecx
  00cb5	89 45 e4	 mov	 DWORD PTR tv82[ebp], eax
  00cb8	eb 07		 jmp	 SHORT $L194010
$L194009:
  00cba	c7 45 e4 05 00
	00 00		 mov	 DWORD PTR tv82[ebp], 5
$L194010:
  00cc1	8b 55 e4	 mov	 edx, DWORD PTR tv82[ebp]
  00cc4	89 55 e0	 mov	 DWORD PTR tv85[ebp], edx
  00cc7	eb 0f		 jmp	 SHORT $L194012
$L194011:
  00cc9	8b 45 fc	 mov	 eax, DWORD PTR _this$[ebp]
  00ccc	8b 4d f4	 mov	 ecx, DWORD PTR _liMaxPos$[ebp]
  00ccf	2b 88 b0 02 00
	00		 sub	 ecx, DWORD PTR [eax+688]
  00cd5	89 4d e0	 mov	 DWORD PTR tv85[ebp], ecx
$L194012:
  00cd8	c6 45 f3 01	 mov	 BYTE PTR $T194044[ebp], 1
  00cdc	8b 55 e0	 mov	 edx, DWORD PTR tv85[ebp]
  00cdf	89 55 f8	 mov	 DWORD PTR _liDelta$[ebp], edx

; 218  : 		break;

  00ce2	e9 19 03 00 00	 jmp	 $L191953
$L191958:

; 219  : 
; 220  : 	case SB_LINEUP:
; 221  : 		if (miScrollPos <= 0)

  00ce7	8b 45 fc	 mov	 eax, DWORD PTR _this$[ebp]
  00cea	83 b8 b0 02 00
	00 00		 cmp	 DWORD PTR [eax+688], 0
  00cf1	7f 05		 jg	 SHORT $L191959

; 222  : 			return;

  00cf3	e9 95 03 00 00	 jmp	 $L191949
$L191959:

; 223  : 		liDelta = -min(max(liMaxPos/20,5),miScrollPos);

  00cf8	8b 45 f4	 mov	 eax, DWORD PTR _liMaxPos$[ebp]
  00cfb	99		 cdq
  00cfc	b9 14 00 00 00	 mov	 ecx, 20			; 00000014H
  00d01	f7 f9		 idiv	 ecx
  00d03	83 f8 05	 cmp	 eax, 5
  00d06	7e 10		 jle	 SHORT $L194013
  00d08	8b 45 f4	 mov	 eax, DWORD PTR _liMaxPos$[ebp]
  00d0b	99		 cdq
  00d0c	b9 14 00 00 00	 mov	 ecx, 20			; 00000014H
  00d11	f7 f9		 idiv	 ecx
  00d13	89 45 dc	 mov	 DWORD PTR tv91[ebp], eax
  00d16	eb 07		 jmp	 SHORT $L194014
$L194013:
  00d18	c7 45 dc 05 00
	00 00		 mov	 DWORD PTR tv91[ebp], 5
$L194014:
  00d1f	8b 55 fc	 mov	 edx, DWORD PTR _this$[ebp]
  00d22	8b 45 dc	 mov	 eax, DWORD PTR tv91[ebp]
  00d25	3b 82 b0 02 00
	00		 cmp	 eax, DWORD PTR [edx+688]
  00d2b	7d 2f		 jge	 SHORT $L194017
  00d2d	8b 45 f4	 mov	 eax, DWORD PTR _liMaxPos$[ebp]
  00d30	99		 cdq
  00d31	b9 14 00 00 00	 mov	 ecx, 20			; 00000014H
  00d36	f7 f9		 idiv	 ecx
  00d38	83 f8 05	 cmp	 eax, 5
  00d3b	7e 10		 jle	 SHORT $L194015
  00d3d	8b 45 f4	 mov	 eax, DWORD PTR _liMaxPos$[ebp]
  00d40	99		 cdq
  00d41	b9 14 00 00 00	 mov	 ecx, 20			; 00000014H
  00d46	f7 f9		 idiv	 ecx
  00d48	89 45 d8	 mov	 DWORD PTR tv129[ebp], eax
  00d4b	eb 07		 jmp	 SHORT $L194016
$L194015:
  00d4d	c7 45 d8 05 00
	00 00		 mov	 DWORD PTR tv129[ebp], 5
$L194016:
  00d54	8b 55 d8	 mov	 edx, DWORD PTR tv129[ebp]
  00d57	89 55 d4	 mov	 DWORD PTR tv131[ebp], edx
  00d5a	eb 0c		 jmp	 SHORT $L194018
$L194017:
  00d5c	8b 45 fc	 mov	 eax, DWORD PTR _this$[ebp]
  00d5f	8b 88 b0 02 00
	00		 mov	 ecx, DWORD PTR [eax+688]
  00d65	89 4d d4	 mov	 DWORD PTR tv131[ebp], ecx
$L194018:
  00d68	8b 55 d4	 mov	 edx, DWORD PTR tv131[ebp]
  00d6b	f7 da		 neg	 edx
  00d6d	c6 45 f3 01	 mov	 BYTE PTR $T194044[ebp], 1
  00d71	89 55 f8	 mov	 DWORD PTR _liDelta$[ebp], edx

; 224  : 		break;

  00d74	e9 87 02 00 00	 jmp	 $L191953
$L191960:

; 225  : 	case SB_PAGEDOWN:
; 226  : 		if (miScrollPos >= liMaxPos)

  00d79	8b 45 fc	 mov	 eax, DWORD PTR _this$[ebp]
  00d7c	8b 88 b0 02 00
	00		 mov	 ecx, DWORD PTR [eax+688]
  00d82	3b 4d f4	 cmp	 ecx, DWORD PTR _liMaxPos$[ebp]
  00d85	7c 05		 jl	 SHORT $L191961

; 227  : 			return;

  00d87	e9 01 03 00 00	 jmp	 $L191949
$L191961:

; 228  : 
; 229  : 		liDelta = min(max(liMaxPos/20,5),liMaxPos-miScrollPos);

  00d8c	8b 45 f4	 mov	 eax, DWORD PTR _liMaxPos$[ebp]
  00d8f	99		 cdq
  00d90	b9 14 00 00 00	 mov	 ecx, 20			; 00000014H
  00d95	f7 f9		 idiv	 ecx
  00d97	83 f8 05	 cmp	 eax, 5
  00d9a	7e 10		 jle	 SHORT $L194019
  00d9c	8b 45 f4	 mov	 eax, DWORD PTR _liMaxPos$[ebp]
  00d9f	99		 cdq
  00da0	b9 14 00 00 00	 mov	 ecx, 20			; 00000014H
  00da5	f7 f9		 idiv	 ecx
  00da7	89 45 d0	 mov	 DWORD PTR tv138[ebp], eax
  00daa	eb 07		 jmp	 SHORT $L194020
$L194019:
  00dac	c7 45 d0 05 00
	00 00		 mov	 DWORD PTR tv138[ebp], 5
$L194020:
  00db3	8b 55 fc	 mov	 edx, DWORD PTR _this$[ebp]
  00db6	8b 45 f4	 mov	 eax, DWORD PTR _liMaxPos$[ebp]
  00db9	2b 82 b0 02 00
	00		 sub	 eax, DWORD PTR [edx+688]
  00dbf	39 45 d0	 cmp	 DWORD PTR tv138[ebp], eax
  00dc2	7d 2f		 jge	 SHORT $L194023
  00dc4	8b 45 f4	 mov	 eax, DWORD PTR _liMaxPos$[ebp]
  00dc7	99		 cdq
  00dc8	b9 14 00 00 00	 mov	 ecx, 20			; 00000014H
  00dcd	f7 f9		 idiv	 ecx
  00dcf	83 f8 05	 cmp	 eax, 5
  00dd2	7e 10		 jle	 SHORT $L194021
  00dd4	8b 45 f4	 mov	 eax, DWORD PTR _liMaxPos$[ebp]
  00dd7	99		 cdq
  00dd8	b9 14 00 00 00	 mov	 ecx, 20			; 00000014H
  00ddd	f7 f9		 idiv	 ecx
  00ddf	89 45 cc	 mov	 DWORD PTR tv145[ebp], eax
  00de2	eb 07		 jmp	 SHORT $L194022
$L194021:
  00de4	c7 45 cc 05 00
	00 00		 mov	 DWORD PTR tv145[ebp], 5
$L194022:
  00deb	8b 55 cc	 mov	 edx, DWORD PTR tv145[ebp]
  00dee	89 55 c8	 mov	 DWORD PTR tv148[ebp], edx
  00df1	eb 0f		 jmp	 SHORT $L194024
$L194023:
  00df3	8b 45 fc	 mov	 eax, DWORD PTR _this$[ebp]
  00df6	8b 4d f4	 mov	 ecx, DWORD PTR _liMaxPos$[ebp]
  00df9	2b 88 b0 02 00
	00		 sub	 ecx, DWORD PTR [eax+688]
  00dff	89 4d c8	 mov	 DWORD PTR tv148[ebp], ecx
$L194024:
  00e02	c6 45 f3 01	 mov	 BYTE PTR $T194044[ebp], 1
  00e06	8b 55 c8	 mov	 edx, DWORD PTR tv148[ebp]
  00e09	89 55 f8	 mov	 DWORD PTR _liDelta$[ebp], edx

; 230  : 		break;

  00e0c	e9 ef 01 00 00	 jmp	 $L191953
$L191963:

; 231  : 	case SB_THUMBTRACK:
; 232  : 		if (miScrollPos >= liMaxPos)
; 233  : 		{
; 234  : 			//moveToPos(IDC_ULUSERINFO_STATIC1);
; 235  : 		}		
; 236  : 		liDelta = nPos;

  00e11	c6 45 f3 01	 mov	 BYTE PTR $T194044[ebp], 1
  00e15	8b 55 0c	 mov	 edx, DWORD PTR _nPos$[ebp]
  00e18	89 55 f8	 mov	 DWORD PTR _liDelta$[ebp], edx
$L191964:

; 237  : 	case SB_THUMBPOSITION:
; 238  : 		liDelta = (int)nPos - miScrollPos;

  00e1b	8b 45 fc	 mov	 eax, DWORD PTR _this$[ebp]
  00e1e	8b 4d 0c	 mov	 ecx, DWORD PTR _nPos$[ebp]
  00e21	2b 88 b0 02 00
	00		 sub	 ecx, DWORD PTR [eax+688]
  00e27	c6 45 f3 01	 mov	 BYTE PTR $T194044[ebp], 1
  00e2b	89 4d f8	 mov	 DWORD PTR _liDelta$[ebp], ecx

; 239  : 		break;

  00e2e	e9 cd 01 00 00	 jmp	 $L191953
$L191966:

; 240  : 
; 241  : 	case SB_PAGEUP:
; 242  : 		if (miScrollPos <= 0)

  00e33	8b 55 fc	 mov	 edx, DWORD PTR _this$[ebp]
  00e36	83 ba b0 02 00
	00 00		 cmp	 DWORD PTR [edx+688], 0
  00e3d	7f 05		 jg	 SHORT $L191967

; 243  : 			return;

  00e3f	e9 49 02 00 00	 jmp	 $L191949
$L191967:

; 244  : 		liDelta = -min(max(liMaxPos/20,5),miScrollPos);

  00e44	8b 45 f4	 mov	 eax, DWORD PTR _liMaxPos$[ebp]
  00e47	99		 cdq
  00e48	b9 14 00 00 00	 mov	 ecx, 20			; 00000014H
  00e4d	f7 f9		 idiv	 ecx
  00e4f	83 f8 05	 cmp	 eax, 5
  00e52	7e 10		 jle	 SHORT $L194025
  00e54	8b 45 f4	 mov	 eax, DWORD PTR _liMaxPos$[ebp]
  00e57	99		 cdq
  00e58	b9 14 00 00 00	 mov	 ecx, 20			; 00000014H
  00e5d	f7 f9		 idiv	 ecx
  00e5f	89 45 c4	 mov	 DWORD PTR tv158[ebp], eax
  00e62	eb 07		 jmp	 SHORT $L194026
$L194025:
  00e64	c7 45 c4 05 00
	00 00		 mov	 DWORD PTR tv158[ebp], 5
$L194026:
  00e6b	8b 55 fc	 mov	 edx, DWORD PTR _this$[ebp]
  00e6e	8b 45 c4	 mov	 eax, DWORD PTR tv158[ebp]
  00e71	3b 82 b0 02 00
	00		 cmp	 eax, DWORD PTR [edx+688]
  00e77	7d 2f		 jge	 SHORT $L194029
  00e79	8b 45 f4	 mov	 eax, DWORD PTR _liMaxPos$[ebp]
  00e7c	99		 cdq
  00e7d	b9 14 00 00 00	 mov	 ecx, 20			; 00000014H
  00e82	f7 f9		 idiv	 ecx
  00e84	83 f8 05	 cmp	 eax, 5
  00e87	7e 10		 jle	 SHORT $L194027
  00e89	8b 45 f4	 mov	 eax, DWORD PTR _liMaxPos$[ebp]
  00e8c	99		 cdq
  00e8d	b9 14 00 00 00	 mov	 ecx, 20			; 00000014H
  00e92	f7 f9		 idiv	 ecx
  00e94	89 45 c0	 mov	 DWORD PTR tv164[ebp], eax
  00e97	eb 07		 jmp	 SHORT $L194028
$L194027:
  00e99	c7 45 c0 05 00
	00 00		 mov	 DWORD PTR tv164[ebp], 5
$L194028:
  00ea0	8b 55 c0	 mov	 edx, DWORD PTR tv164[ebp]
  00ea3	89 55 bc	 mov	 DWORD PTR tv166[ebp], edx
  00ea6	eb 0c		 jmp	 SHORT $L194030
$L194029:
  00ea8	8b 45 fc	 mov	 eax, DWORD PTR _this$[ebp]
  00eab	8b 88 b0 02 00
	00		 mov	 ecx, DWORD PTR [eax+688]
  00eb1	89 4d bc	 mov	 DWORD PTR tv166[ebp], ecx
$L194030:
  00eb4	8b 55 bc	 mov	 edx, DWORD PTR tv166[ebp]
  00eb7	f7 da		 neg	 edx
  00eb9	c6 45 f3 01	 mov	 BYTE PTR $T194044[ebp], 1
  00ebd	89 55 f8	 mov	 DWORD PTR _liDelta$[ebp], edx

; 245  : 		break;

  00ec0	e9 3b 01 00 00	 jmp	 $L191953
$L191968:

; 246  : 	case WM_MOUSEWHEEL:
; 247  : 
; 248  : 		if( 1==nPos)

  00ec5	83 7d 0c 01	 cmp	 DWORD PTR _nPos$[ebp], 1
  00ec9	0f 85 8d 00 00
	00		 jne	 $L191969

; 249  : 		{
; 250  : 			if (miScrollPos <= 0) return;

  00ecf	8b 45 fc	 mov	 eax, DWORD PTR _this$[ebp]
  00ed2	83 b8 b0 02 00
	00 00		 cmp	 DWORD PTR [eax+688], 0
  00ed9	7f 05		 jg	 SHORT $L191970
  00edb	e9 ad 01 00 00	 jmp	 $L191949
$L191970:

; 251  : 			liDelta = -min(max(liMaxPos/20,5),miScrollPos);

  00ee0	8b 45 f4	 mov	 eax, DWORD PTR _liMaxPos$[ebp]
  00ee3	99		 cdq
  00ee4	b9 14 00 00 00	 mov	 ecx, 20			; 00000014H
  00ee9	f7 f9		 idiv	 ecx
  00eeb	83 f8 05	 cmp	 eax, 5
  00eee	7e 10		 jle	 SHORT $L194031
  00ef0	8b 45 f4	 mov	 eax, DWORD PTR _liMaxPos$[ebp]
  00ef3	99		 cdq
  00ef4	b9 14 00 00 00	 mov	 ecx, 20			; 00000014H
  00ef9	f7 f9		 idiv	 ecx
  00efb	89 45 b8	 mov	 DWORD PTR tv174[ebp], eax
  00efe	eb 07		 jmp	 SHORT $L194032
$L194031:
  00f00	c7 45 b8 05 00
	00 00		 mov	 DWORD PTR tv174[ebp], 5
$L194032:
  00f07	8b 55 fc	 mov	 edx, DWORD PTR _this$[ebp]
  00f0a	8b 45 b8	 mov	 eax, DWORD PTR tv174[ebp]
  00f0d	3b 82 b0 02 00
	00		 cmp	 eax, DWORD PTR [edx+688]
  00f13	7d 2f		 jge	 SHORT $L194035
  00f15	8b 45 f4	 mov	 eax, DWORD PTR _liMaxPos$[ebp]
  00f18	99		 cdq
  00f19	b9 14 00 00 00	 mov	 ecx, 20			; 00000014H
  00f1e	f7 f9		 idiv	 ecx
  00f20	83 f8 05	 cmp	 eax, 5
  00f23	7e 10		 jle	 SHORT $L194033
  00f25	8b 45 f4	 mov	 eax, DWORD PTR _liMaxPos$[ebp]
  00f28	99		 cdq
  00f29	b9 14 00 00 00	 mov	 ecx, 20			; 00000014H
  00f2e	f7 f9		 idiv	 ecx
  00f30	89 45 b4	 mov	 DWORD PTR tv180[ebp], eax
  00f33	eb 07		 jmp	 SHORT $L194034
$L194033:
  00f35	c7 45 b4 05 00
	00 00		 mov	 DWORD PTR tv180[ebp], 5
$L194034:
  00f3c	8b 55 b4	 mov	 edx, DWORD PTR tv180[ebp]
  00f3f	89 55 b0	 mov	 DWORD PTR tv182[ebp], edx
  00f42	eb 0c		 jmp	 SHORT $L194036
$L194035:
  00f44	8b 45 fc	 mov	 eax, DWORD PTR _this$[ebp]
  00f47	8b 88 b0 02 00
	00		 mov	 ecx, DWORD PTR [eax+688]
  00f4d	89 4d b0	 mov	 DWORD PTR tv182[ebp], ecx
$L194036:
  00f50	8b 55 b0	 mov	 edx, DWORD PTR tv182[ebp]
  00f53	f7 da		 neg	 edx
  00f55	c6 45 f3 01	 mov	 BYTE PTR $T194044[ebp], 1
  00f59	89 55 f8	 mov	 DWORD PTR _liDelta$[ebp], edx
$L191969:

; 252  : 		}
; 253  : 
; 254  : 		if(-1 ==nPos)

  00f5c	83 7d 0c ff	 cmp	 DWORD PTR _nPos$[ebp], -1
  00f60	0f 85 93 00 00
	00		 jne	 $L191971

; 255  : 		{
; 256  : 			if (miScrollPos >= liMaxPos) return;

  00f66	8b 45 fc	 mov	 eax, DWORD PTR _this$[ebp]
  00f69	8b 88 b0 02 00
	00		 mov	 ecx, DWORD PTR [eax+688]
  00f6f	3b 4d f4	 cmp	 ecx, DWORD PTR _liMaxPos$[ebp]
  00f72	7c 05		 jl	 SHORT $L191972
  00f74	e9 14 01 00 00	 jmp	 $L191949
$L191972:

; 257  : 			liDelta = min(max(liMaxPos/20,5),liMaxPos-miScrollPos);

  00f79	8b 45 f4	 mov	 eax, DWORD PTR _liMaxPos$[ebp]
  00f7c	99		 cdq
  00f7d	b9 14 00 00 00	 mov	 ecx, 20			; 00000014H
  00f82	f7 f9		 idiv	 ecx
  00f84	83 f8 05	 cmp	 eax, 5
  00f87	7e 10		 jle	 SHORT $L194037
  00f89	8b 45 f4	 mov	 eax, DWORD PTR _liMaxPos$[ebp]
  00f8c	99		 cdq
  00f8d	b9 14 00 00 00	 mov	 ecx, 20			; 00000014H
  00f92	f7 f9		 idiv	 ecx
  00f94	89 45 ac	 mov	 DWORD PTR tv190[ebp], eax
  00f97	eb 07		 jmp	 SHORT $L194038
$L194037:
  00f99	c7 45 ac 05 00
	00 00		 mov	 DWORD PTR tv190[ebp], 5
$L194038:
  00fa0	8b 55 fc	 mov	 edx, DWORD PTR _this$[ebp]
  00fa3	8b 45 f4	 mov	 eax, DWORD PTR _liMaxPos$[ebp]
  00fa6	2b 82 b0 02 00
	00		 sub	 eax, DWORD PTR [edx+688]
  00fac	39 45 ac	 cmp	 DWORD PTR tv190[ebp], eax
  00faf	7d 2f		 jge	 SHORT $L194041
  00fb1	8b 45 f4	 mov	 eax, DWORD PTR _liMaxPos$[ebp]
  00fb4	99		 cdq
  00fb5	b9 14 00 00 00	 mov	 ecx, 20			; 00000014H
  00fba	f7 f9		 idiv	 ecx
  00fbc	83 f8 05	 cmp	 eax, 5
  00fbf	7e 10		 jle	 SHORT $L194039
  00fc1	8b 45 f4	 mov	 eax, DWORD PTR _liMaxPos$[ebp]
  00fc4	99		 cdq
  00fc5	b9 14 00 00 00	 mov	 ecx, 20			; 00000014H
  00fca	f7 f9		 idiv	 ecx
  00fcc	89 45 a8	 mov	 DWORD PTR tv197[ebp], eax
  00fcf	eb 07		 jmp	 SHORT $L194040
$L194039:
  00fd1	c7 45 a8 05 00
	00 00		 mov	 DWORD PTR tv197[ebp], 5
$L194040:
  00fd8	8b 55 a8	 mov	 edx, DWORD PTR tv197[ebp]
  00fdb	89 55 a4	 mov	 DWORD PTR tv200[ebp], edx
  00fde	eb 0f		 jmp	 SHORT $L194042
$L194041:
  00fe0	8b 45 fc	 mov	 eax, DWORD PTR _this$[ebp]
  00fe3	8b 4d f4	 mov	 ecx, DWORD PTR _liMaxPos$[ebp]
  00fe6	2b 88 b0 02 00
	00		 sub	 ecx, DWORD PTR [eax+688]
  00fec	89 4d a4	 mov	 DWORD PTR tv200[ebp], ecx
$L194042:
  00fef	c6 45 f3 01	 mov	 BYTE PTR $T194044[ebp], 1
  00ff3	8b 55 a4	 mov	 edx, DWORD PTR tv200[ebp]
  00ff6	89 55 f8	 mov	 DWORD PTR _liDelta$[ebp], edx
$L191971:

; 258  : 		}
; 259  : 		break;

  00ff9	eb 05		 jmp	 SHORT $L191953
$L191973:

; 260  : 	default:
; 261  : 		return;

  00ffb	e9 8d 00 00 00	 jmp	 $L191949
$L191953:

; 262  : 	}
; 263  : 	miScrollPos += liDelta;

  01000	80 7d f3 00	 cmp	 BYTE PTR $T194044[ebp], 0
  01004	75 0d		 jne	 SHORT $L194045
  01006	68 00 00 00 00	 push	 OFFSET FLAT:$L194046
  0100b	e8 00 00 00 00	 call	 __RTC_UninitUse
  01010	83 c4 04	 add	 esp, 4
$L194045:
  01013	8b 45 fc	 mov	 eax, DWORD PTR _this$[ebp]
  01016	8b 88 b0 02 00
	00		 mov	 ecx, DWORD PTR [eax+688]
  0101c	03 4d f8	 add	 ecx, DWORD PTR _liDelta$[ebp]
  0101f	8b 55 fc	 mov	 edx, DWORD PTR _this$[ebp]
  01022	89 8a b0 02 00
	00		 mov	 DWORD PTR [edx+688], ecx

; 264  : 	::SendMessage(mpVerticleScrollbar.m_hWnd,WM_PDLG_MOUSEWHEEL_MSG,SB_VERT,miScrollPos);

  01028	8b f4		 mov	 esi, esp
  0102a	8b 45 fc	 mov	 eax, DWORD PTR _this$[ebp]
  0102d	8b 88 b0 02 00
	00		 mov	 ecx, DWORD PTR [eax+688]
  01033	51		 push	 ecx
  01034	6a 01		 push	 1
  01036	68 e8 07 00 00	 push	 2024			; 000007e8H
  0103b	8b 55 fc	 mov	 edx, DWORD PTR _this$[ebp]
  0103e	8b 82 f8 00 00
	00		 mov	 eax, DWORD PTR [edx+248]
  01044	50		 push	 eax
  01045	ff 15 00 00 00
	00		 call	 DWORD PTR __imp__SendMessageA@16
  0104b	3b f4		 cmp	 esi, esp
  0104d	e8 00 00 00 00	 call	 __RTC_CheckEsp

; 265  : 	ScrollWindow(0,-liDelta);

  01052	80 7d f3 00	 cmp	 BYTE PTR $T194044[ebp], 0
  01056	75 0d		 jne	 SHORT $L194048
  01058	68 00 00 00 00	 push	 OFFSET FLAT:$L194046
  0105d	e8 00 00 00 00	 call	 __RTC_UninitUse
  01062	83 c4 04	 add	 esp, 4
$L194048:
  01065	6a 00		 push	 0
  01067	6a 00		 push	 0
  01069	8b 4d f8	 mov	 ecx, DWORD PTR _liDelta$[ebp]
  0106c	f7 d9		 neg	 ecx
  0106e	51		 push	 ecx
  0106f	6a 00		 push	 0
  01071	8b 4d fc	 mov	 ecx, DWORD PTR _this$[ebp]
  01074	e8 00 00 00 00	 call	 ?ScrollWindow@CWnd@@QAEXHHPBUtagRECT@@0@Z ; CWnd::ScrollWindow

; 266  : 
; 267  : 	CFrameWnd::OnVScroll(nSBCode, nPos, pScrollBar);

  01079	8b 55 10	 mov	 edx, DWORD PTR _pScrollBar$[ebp]
  0107c	52		 push	 edx
  0107d	8b 45 0c	 mov	 eax, DWORD PTR _nPos$[ebp]
  01080	50		 push	 eax
  01081	8b 4d 08	 mov	 ecx, DWORD PTR _nSBCode$[ebp]
  01084	51		 push	 ecx
  01085	8b 4d fc	 mov	 ecx, DWORD PTR _this$[ebp]
  01088	e8 00 00 00 00	 call	 ?OnVScroll@CFrameWnd@@IAEXIIPAVCScrollBar@@@Z ; CFrameWnd::OnVScroll
$L191949:

; 268  : }

  0108d	5f		 pop	 edi
  0108e	5e		 pop	 esi
  0108f	83 c4 5c	 add	 esp, 92			; 0000005cH
  01092	3b ec		 cmp	 ebp, esp
  01094	e8 00 00 00 00	 call	 __RTC_CheckEsp
  01099	8b e5		 mov	 esp, ebp
  0109b	5d		 pop	 ebp
  0109c	c2 0c 00	 ret	 12			; 0000000cH
$L194049:
$L194046:
  0109f	6c		 DB	 108			; 0000006cH
  010a0	69		 DB	 105			; 00000069H
  010a1	44		 DB	 68			; 00000044H
  010a2	65		 DB	 101			; 00000065H
  010a3	6c		 DB	 108			; 0000006cH
  010a4	74		 DB	 116			; 00000074H
  010a5	61		 DB	 97			; 00000061H
  010a6	00		 DB	 0
$L194050:
  010a7	00 00 00 00	 DD	 $L191958
  010ab	00 00 00 00	 DD	 $L191956
  010af	00 00 00 00	 DD	 $L191966
  010b3	00 00 00 00	 DD	 $L191960
  010b7	00 00 00 00	 DD	 $L191964
  010bb	00 00 00 00	 DD	 $L191963
?OnVScroll@CSkinWnd@@QAEXIIPAVCScrollBar@@@Z ENDP	; CSkinWnd::OnVScroll
_TEXT	ENDS
EXTRN	?OnSize@CFrameWnd@@IAEXIHH@Z:NEAR		; CFrameWnd::OnSize
EXTRN	?SetScrollInfo@CWnd@@QAEHHPAUtagSCROLLINFO@@H@Z:NEAR ; CWnd::SetScrollInfo
; Function compile flags: /Odt /RTCsu
_TEXT	SEGMENT
_si$191981 = -36					; size = 28
_this$ = -4						; size = 4
_nType$ = 8						; size = 4
_cx$ = 12						; size = 4
_cy$ = 16						; size = 4
?OnSize@CSkinWnd@@QAEXIHH@Z PROC NEAR			; CSkinWnd::OnSize
; _this$ = ecx

; 271  : {

  010c0	55		 push	 ebp
  010c1	8b ec		 mov	 ebp, esp
  010c3	83 ec 28	 sub	 esp, 40			; 00000028H
  010c6	57		 push	 edi
  010c7	51		 push	 ecx
  010c8	8d 7d d8	 lea	 edi, DWORD PTR [ebp-40]
  010cb	b9 0a 00 00 00	 mov	 ecx, 10			; 0000000aH
  010d0	b8 cc cc cc cc	 mov	 eax, -858993460		; ccccccccH
  010d5	f3 ab		 rep stosd
  010d7	59		 pop	 ecx
  010d8	89 4d fc	 mov	 DWORD PTR _this$[ebp], ecx

; 272  : 	CFrameWnd::OnSize(nType, cx, cy);

  010db	8b 45 10	 mov	 eax, DWORD PTR _cy$[ebp]
  010de	50		 push	 eax
  010df	8b 4d 0c	 mov	 ecx, DWORD PTR _cx$[ebp]
  010e2	51		 push	 ecx
  010e3	8b 55 08	 mov	 edx, DWORD PTR _nType$[ebp]
  010e6	52		 push	 edx
  010e7	8b 4d fc	 mov	 ecx, DWORD PTR _this$[ebp]
  010ea	e8 00 00 00 00	 call	 ?OnSize@CFrameWnd@@IAEXIHH@Z ; CFrameWnd::OnSize

; 273  : 	if(mbIsHasScroll)

  010ef	8b 45 fc	 mov	 eax, DWORD PTR _this$[ebp]
  010f2	0f b6 88 b8 02
	00 00		 movzx	 ecx, BYTE PTR [eax+696]
  010f9	85 c9		 test	 ecx, ecx
  010fb	74 66		 je	 SHORT $L191979

; 274  : 	{
; 275  : 		CFrameWnd::OnSize(nType, cx, cy);

  010fd	8b 55 10	 mov	 edx, DWORD PTR _cy$[ebp]
  01100	52		 push	 edx
  01101	8b 45 0c	 mov	 eax, DWORD PTR _cx$[ebp]
  01104	50		 push	 eax
  01105	8b 4d 08	 mov	 ecx, DWORD PTR _nType$[ebp]
  01108	51		 push	 ecx
  01109	8b 4d fc	 mov	 ecx, DWORD PTR _this$[ebp]
  0110c	e8 00 00 00 00	 call	 ?OnSize@CFrameWnd@@IAEXIHH@Z ; CFrameWnd::OnSize

; 276  : 
; 277  : 		miHeight = cy;

  01111	8b 55 fc	 mov	 edx, DWORD PTR _this$[ebp]
  01114	8b 45 10	 mov	 eax, DWORD PTR _cy$[ebp]
  01117	89 82 b4 02 00
	00		 mov	 DWORD PTR [edx+692], eax

; 278  : 		SCROLLINFO si;
; 279  : 		si.cbSize = sizeof(SCROLLINFO);

  0111d	c7 45 dc 1c 00
	00 00		 mov	 DWORD PTR _si$191981[ebp], 28 ; 0000001cH

; 280  : 		si.fMask = SIF_ALL; 

  01124	c7 45 e0 17 00
	00 00		 mov	 DWORD PTR _si$191981[ebp+4], 23 ; 00000017H

; 281  : 		si.nMin = 0;

  0112b	c7 45 e4 00 00
	00 00		 mov	 DWORD PTR _si$191981[ebp+8], 0

; 282  : 		si.nMax = mrcOriginalRect.Height();

  01132	8b 4d fc	 mov	 ecx, DWORD PTR _this$[ebp]
  01135	81 c1 a0 02 00
	00		 add	 ecx, 672		; 000002a0H
  0113b	e8 00 00 00 00	 call	 ?Height@CRect@@QBEHXZ	; CRect::Height
  01140	89 45 e8	 mov	 DWORD PTR _si$191981[ebp+12], eax

; 283  : 		si.nPage = cy+1;

  01143	8b 4d 10	 mov	 ecx, DWORD PTR _cy$[ebp]
  01146	83 c1 01	 add	 ecx, 1
  01149	89 4d ec	 mov	 DWORD PTR _si$191981[ebp+16], ecx

; 284  : 		si.nPos = 0;

  0114c	c7 45 f0 00 00
	00 00		 mov	 DWORD PTR _si$191981[ebp+20], 0

; 285  : 		SetScrollInfo(SB_VERT, &si, TRUE);

  01153	6a 01		 push	 1
  01155	8d 55 dc	 lea	 edx, DWORD PTR _si$191981[ebp]
  01158	52		 push	 edx
  01159	6a 01		 push	 1
  0115b	8b 4d fc	 mov	 ecx, DWORD PTR _this$[ebp]
  0115e	e8 00 00 00 00	 call	 ?SetScrollInfo@CWnd@@QAEHHPAUtagSCROLLINFO@@H@Z ; CWnd::SetScrollInfo
$L191979:

; 286  : 	}
; 287  : }

  01163	52		 push	 edx
  01164	8b cd		 mov	 ecx, ebp
  01166	50		 push	 eax
  01167	8d 15 00 00 00
	00		 lea	 edx, DWORD PTR $L194054
  0116d	e8 00 00 00 00	 call	 @_RTC_CheckStackVars@8
  01172	58		 pop	 eax
  01173	5a		 pop	 edx
  01174	5f		 pop	 edi
  01175	83 c4 28	 add	 esp, 40			; 00000028H
  01178	3b ec		 cmp	 ebp, esp
  0117a	e8 00 00 00 00	 call	 __RTC_CheckEsp
  0117f	8b e5		 mov	 esp, ebp
  01181	5d		 pop	 ebp
  01182	c2 0c 00	 ret	 12			; 0000000cH
$L194054:
  01185	01 00 00 00	 DD	 1
  01189	00 00 00 00	 DD	 $L194053
$L194053:
  0118d	dc ff ff ff	 DD	 -36			; ffffffdcH
  01191	1c 00 00 00	 DD	 28			; 0000001cH
  01195	00 00 00 00	 DD	 $L194052
$L194052:
  01199	73		 DB	 115			; 00000073H
  0119a	69		 DB	 105			; 00000069H
  0119b	00		 DB	 0
?OnSize@CSkinWnd@@QAEXIHH@Z ENDP			; CSkinWnd::OnSize
; Function compile flags: /Odt /RTCsu
_liUpOrDown$ = -8					; size = 4
_this$ = -4						; size = 4
_nFlags$ = 8						; size = 4
_zDelta$ = 12						; size = 2
_pt$ = 16						; size = 8
?OnMouseWheel@CSkinWnd@@QAEHIFVCPoint@@@Z PROC NEAR	; CSkinWnd::OnMouseWheel
; _this$ = ecx

; 290  : {

  011a0	55		 push	 ebp
  011a1	8b ec		 mov	 ebp, esp
  011a3	83 ec 08	 sub	 esp, 8
  011a6	c7 45 f8 cc cc
	cc cc		 mov	 DWORD PTR [ebp-8], -858993460 ; ccccccccH
  011ad	c7 45 fc cc cc
	cc cc		 mov	 DWORD PTR [ebp-4], -858993460 ; ccccccccH
  011b4	89 4d fc	 mov	 DWORD PTR _this$[ebp], ecx

; 291  : 	int liUpOrDown;
; 292  : 	liUpOrDown = (zDelta >= 0) ?  1:-1;

  011b7	0f bf 45 0c	 movsx	 eax, WORD PTR _zDelta$[ebp]
  011bb	33 c9		 xor	 ecx, ecx
  011bd	85 c0		 test	 eax, eax
  011bf	0f 9d c1	 setge	 cl
  011c2	8d 4c 09 ff	 lea	 ecx, DWORD PTR [ecx+ecx-1]
  011c6	89 4d f8	 mov	 DWORD PTR _liUpOrDown$[ebp], ecx

; 293  : 	OnVScroll(WM_MOUSEWHEEL,liUpOrDown,NULL);

  011c9	6a 00		 push	 0
  011cb	8b 55 f8	 mov	 edx, DWORD PTR _liUpOrDown$[ebp]
  011ce	52		 push	 edx
  011cf	68 0a 02 00 00	 push	 522			; 0000020aH
  011d4	8b 4d fc	 mov	 ecx, DWORD PTR _this$[ebp]
  011d7	e8 00 00 00 00	 call	 ?OnVScroll@CSkinWnd@@QAEXIIPAVCScrollBar@@@Z ; CSkinWnd::OnVScroll

; 294  : 	return true;

  011dc	b8 01 00 00 00	 mov	 eax, 1

; 295  : 	//return CFrameWnd::OnMouseWheel(nFlags, zDelta, pt);
; 296  : }

  011e1	83 c4 08	 add	 esp, 8
  011e4	3b ec		 cmp	 ebp, esp
  011e6	e8 00 00 00 00	 call	 __RTC_CheckEsp
  011eb	8b e5		 mov	 esp, ebp
  011ed	5d		 pop	 ebp
  011ee	c2 10 00	 ret	 16			; 00000010H
?OnMouseWheel@CSkinWnd@@QAEHIFVCPoint@@@Z ENDP		; CSkinWnd::OnMouseWheel
_TEXT	ENDS
PUBLIC	?insert@?$_Tree@V?$_Tmap_traits@V?$CStringT@DV?$StrTraitMFC_DLL@DV?$ChTraitsCRT@D@ATL@@@@@ATL@@PAVCSkinButton@@U?$less@V?$CStringT@DV?$StrTraitMFC_DLL@DV?$ChTraitsCRT@D@ATL@@@@@ATL@@@std@@V?$allocator@U?$pair@$$CBV?$CStringT@DV?$StrTraitMFC_DLL@DV?$ChTraitsCRT@D@ATL@@@@@ATL@@PAVCSkinButton@@@std@@@5@$0A@@std@@@std@@QAE?AU?$pair@Viterator@?$_Tree@V?$_Tmap_traits@V?$CStringT@DV?$StrTraitMFC_DLL@DV?$ChTraitsCRT@D@ATL@@@@@ATL@@PAVCSkinButton@@U?$less@V?$CStringT@DV?$StrTraitMFC_DLL@DV?$ChTraitsCRT@D@ATL@@@@@ATL@@@std@@V?$allocator@U?$pair@$$CBV?$CStringT@DV?$StrTraitMFC_DLL@DV?$ChTraitsCRT@D@ATL@@@@@ATL@@PAVCSkinButton@@@std@@@5@$0A@@std@@@std@@_N@2@ABU?$pair@$$CBV?$CStringT@DV?$StrTraitMFC_DLL@DV?$ChTraitsCRT@D@ATL@@@@@ATL@@PAVCSkinButton@@@2@@Z ; std::_Tree<std::_Tmap_traits<ATL::CStringT<char,StrTraitMFC_DLL<char,ATL::ChTraitsCRT<char> > >,CSkinButton *,std::less<ATL::CStringT<char,StrTraitMFC_DLL<char,ATL::ChTraitsCRT<char> > > >,std::allocator<std::pair<ATL::CStringT<char,StrTraitMFC_DLL<char,ATL::ChTraitsCRT<char> > > const ,CSkinButton *> >,0> >::insert
PUBLIC	?InsertSmallSkin@CSkinWnd@@QAEXAAV?$basic_string@DU?$char_traits@D@std@@V?$allocator@D@2@@std@@PAVCBitmap@@V23@_N@Z ; CSkinWnd::InsertSmallSkin
PUBLIC	?push_back@?$list@PAVCSkinButton@@V?$allocator@PAVCSkinButton@@@std@@@std@@QAEXABQAVCSkinButton@@@Z ; std::list<CSkinButton *,std::allocator<CSkinButton *> >::push_back
PUBLIC	??0?$pair@V?$CStringT@DV?$StrTraitMFC_DLL@DV?$ChTraitsCRT@D@ATL@@@@@ATL@@PAVCSkinButton@@@std@@QAE@XZ ; std::pair<ATL::CStringT<char,StrTraitMFC_DLL<char,ATL::ChTraitsCRT<char> > >,CSkinButton *>::pair<ATL::CStringT<char,StrTraitMFC_DLL<char,ATL::ChTraitsCRT<char> > >,CSkinButton *>
PUBLIC	??1?$pair@V?$CStringT@DV?$StrTraitMFC_DLL@DV?$ChTraitsCRT@D@ATL@@@@@ATL@@PAVCSkinButton@@@std@@QAE@XZ ; std::pair<ATL::CStringT<char,StrTraitMFC_DLL<char,ATL::ChTraitsCRT<char> > >,CSkinButton *>::~pair<ATL::CStringT<char,StrTraitMFC_DLL<char,ATL::ChTraitsCRT<char> > >,CSkinButton *>
PUBLIC	??1?$pair@$$CBV?$CStringT@DV?$StrTraitMFC_DLL@DV?$ChTraitsCRT@D@ATL@@@@@ATL@@PAVCSkinButton@@@std@@QAE@XZ ; std::pair<ATL::CStringT<char,StrTraitMFC_DLL<char,ATL::ChTraitsCRT<char> > > const ,CSkinButton *>::~pair<ATL::CStringT<char,StrTraitMFC_DLL<char,ATL::ChTraitsCRT<char> > > const ,CSkinButton *>
PUBLIC	??$?0V?$CStringT@DV?$StrTraitMFC_DLL@DV?$ChTraitsCRT@D@ATL@@@@@ATL@@PAVCSkinButton@@@?$pair@$$CBV?$CStringT@DV?$StrTraitMFC_DLL@DV?$ChTraitsCRT@D@ATL@@@@@ATL@@PAVCSkinButton@@@std@@QAE@ABU?$pair@V?$CStringT@DV?$StrTraitMFC_DLL@DV?$ChTraitsCRT@D@ATL@@@@@ATL@@PAVCSkinButton@@@1@@Z ; std::pair<ATL::CStringT<char,StrTraitMFC_DLL<char,ATL::ChTraitsCRT<char> > > const ,CSkinButton *>::pair<ATL::CStringT<char,StrTraitMFC_DLL<char,ATL::ChTraitsCRT<char> > > const ,CSkinButton *><ATL::CStringT<char,StrTraitMFC_DLL<char,ATL::ChTraitsCRT<char> > >,CSkinButton *>
PUBLIC	?SetBitmap@CSkinButton@@QAEXPAVCBitmap@@@Z	; CSkinButton::SetBitmap
PUBLIC	?SetSkinPath@CSkinButton@@QAEXV?$basic_string@DU?$char_traits@D@std@@V?$allocator@D@2@@std@@@Z ; CSkinButton::SetSkinPath
PUBLIC	?SetBottonType@CSkinButton@@QAEXI@Z		; CSkinButton::SetBottonType
PUBLIC	?SetText@CSkinButton@@QAEXV?$CStringT@DV?$StrTraitMFC_DLL@DV?$ChTraitsCRT@D@ATL@@@@@ATL@@@Z ; CSkinButton::SetText
EXTRN	__imp_??0?$basic_string@DU?$char_traits@D@std@@V?$allocator@D@2@@std@@QAE@ABV01@@Z:NEAR
EXTRN	__imp_??1?$basic_string@DU?$char_traits@D@std@@V?$allocator@D@2@@std@@QAE@XZ:NEAR
EXTRN	__imp_?c_str@?$basic_string@DU?$char_traits@D@std@@V?$allocator@D@2@@std@@QBEPBDXZ:NEAR
EXTRN	__imp_?length@?$basic_string@DU?$char_traits@D@std@@V?$allocator@D@2@@std@@QBEIXZ:NEAR
EXTRN	__imp_??0?$CStringT@DV?$StrTraitMFC_DLL@DV?$ChTraitsCRT@D@ATL@@@@@ATL@@QAE@PBD@Z:NEAR
EXTRN	__imp_??4?$CStringT@DV?$StrTraitMFC_DLL@DV?$ChTraitsCRT@D@ATL@@@@@ATL@@QAEAAV01@PBD@Z:NEAR
EXTRN	??0CSkinButton@@QAE@XZ:NEAR			; CSkinButton::CSkinButton
xdata$x	SEGMENT
$T194078 DD	0ffffffffH
	DD	FLAT:$L194065
	DD	00H
	DD	FLAT:$L194066
	DD	00H
	DD	FLAT:$L194069
	DD	02H
	DD	FLAT:$L194070
$T194072 DD	019930520H
	DD	04H
	DD	FLAT:$T194078
	DD	2 DUP(00H)
	DD	2 DUP(00H)
; Function compile flags: /Odt /RTCsu
xdata$x	ENDS
_TEXT	SEGMENT
tv176 = -88						; size = 4
tv174 = -84						; size = 4
tv79 = -80						; size = 4
$T194064 = -76						; size = 8
$T194063 = -68						; size = 8
$T194062 = -60						; size = 4
$T194061 = -56						; size = 4
$T194058 = -52						; size = 4
$T194057 = -48						; size = 4
_apair$192036 = -40					; size = 8
_lpBtnSkin$ = -24					; size = 4
_this$ = -16						; size = 4
__$EHRec$ = -12						; size = 12
_astrName$ = 8						; size = 4
_apBmp$ = 12						; size = 4
_strPath$ = 16						; size = 28
_bHasSkin$ = 44						; size = 1
?InsertSmallSkin@CSkinWnd@@QAEXAAV?$basic_string@DU?$char_traits@D@std@@V?$allocator@D@2@@std@@PAVCBitmap@@V23@_N@Z PROC NEAR ; CSkinWnd::InsertSmallSkin
; _this$ = ecx

; 298  : {

  01200	55		 push	 ebp
  01201	8b ec		 mov	 ebp, esp
  01203	6a ff		 push	 -1
  01205	68 00 00 00 00	 push	 __ehhandler$?InsertSmallSkin@CSkinWnd@@QAEXAAV?$basic_string@DU?$char_traits@D@std@@V?$allocator@D@2@@std@@PAVCBitmap@@V23@_N@Z
  0120a	64 a1 00 00 00
	00		 mov	 eax, DWORD PTR fs:__except_list
  01210	50		 push	 eax
  01211	64 89 25 00 00
	00 00		 mov	 DWORD PTR fs:__except_list, esp
  01218	83 ec 4c	 sub	 esp, 76			; 0000004cH
  0121b	56		 push	 esi
  0121c	57		 push	 edi
  0121d	51		 push	 ecx
  0121e	8d 7d a8	 lea	 edi, DWORD PTR [ebp-88]
  01221	b9 13 00 00 00	 mov	 ecx, 19			; 00000013H
  01226	b8 cc cc cc cc	 mov	 eax, -858993460		; ccccccccH
  0122b	f3 ab		 rep stosd
  0122d	59		 pop	 ecx
  0122e	89 4d f0	 mov	 DWORD PTR _this$[ebp], ecx
  01231	c7 45 fc 00 00
	00 00		 mov	 DWORD PTR __$EHRec$[ebp+8], 0

; 299  : 	if (0 == astrName.length() ) return ;

  01238	8b f4		 mov	 esi, esp
  0123a	8b 4d 08	 mov	 ecx, DWORD PTR _astrName$[ebp]
  0123d	ff 15 00 00 00
	00		 call	 DWORD PTR __imp_?length@?$basic_string@DU?$char_traits@D@std@@V?$allocator@D@2@@std@@QBEIXZ
  01243	3b f4		 cmp	 esi, esp
  01245	e8 00 00 00 00	 call	 __RTC_CheckEsp
  0124a	85 c0		 test	 eax, eax
  0124c	75 1e		 jne	 SHORT $L191997
  0124e	c7 45 fc ff ff
	ff ff		 mov	 DWORD PTR __$EHRec$[ebp+8], -1
  01255	8b f4		 mov	 esi, esp
  01257	8d 4d 10	 lea	 ecx, DWORD PTR _strPath$[ebp]
  0125a	ff 15 00 00 00
	00		 call	 DWORD PTR __imp_??1?$basic_string@DU?$char_traits@D@std@@V?$allocator@D@2@@std@@QAE@XZ
  01260	3b f4		 cmp	 esi, esp
  01262	e8 00 00 00 00	 call	 __RTC_CheckEsp
  01267	e9 5c 01 00 00	 jmp	 $L191996
$L191997:

; 300  : 	CSkinButton* lpBtnSkin = new CSkinButton();

  0126c	68 2c 01 00 00	 push	 300			; 0000012cH
  01271	68 00 00 00 00	 push	 OFFSET FLAT:$SG192005
  01276	68 30 01 00 00	 push	 304			; 00000130H
  0127b	e8 00 00 00 00	 call	 ??2CObject@@SGPAXIPBDH@Z ; CObject::operator new
  01280	89 45 cc	 mov	 DWORD PTR $T194058[ebp], eax
  01283	c6 45 fc 01	 mov	 BYTE PTR __$EHRec$[ebp+8], 1
  01287	83 7d cc 00	 cmp	 DWORD PTR $T194058[ebp], 0
  0128b	74 0d		 je	 SHORT $L194059
  0128d	8b 4d cc	 mov	 ecx, DWORD PTR $T194058[ebp]
  01290	e8 00 00 00 00	 call	 ??0CSkinButton@@QAE@XZ	; CSkinButton::CSkinButton
  01295	89 45 b0	 mov	 DWORD PTR tv79[ebp], eax
  01298	eb 07		 jmp	 SHORT $L194060
$L194059:
  0129a	c7 45 b0 00 00
	00 00		 mov	 DWORD PTR tv79[ebp], 0
$L194060:
  012a1	8b 45 b0	 mov	 eax, DWORD PTR tv79[ebp]
  012a4	89 45 d0	 mov	 DWORD PTR $T194057[ebp], eax
  012a7	c6 45 fc 00	 mov	 BYTE PTR __$EHRec$[ebp+8], 0
  012ab	8b 4d d0	 mov	 ecx, DWORD PTR $T194057[ebp]
  012ae	89 4d e8	 mov	 DWORD PTR _lpBtnSkin$[ebp], ecx

; 301  : 	lpBtnSkin->SetText( CString(astrName.c_str() ) );

  012b1	8b f4		 mov	 esi, esp
  012b3	8b 4d 08	 mov	 ecx, DWORD PTR _astrName$[ebp]
  012b6	ff 15 00 00 00
	00		 call	 DWORD PTR __imp_?c_str@?$basic_string@DU?$char_traits@D@std@@V?$allocator@D@2@@std@@QBEPBDXZ
  012bc	3b f4		 cmp	 esi, esp
  012be	e8 00 00 00 00	 call	 __RTC_CheckEsp
  012c3	51		 push	 ecx
  012c4	8b cc		 mov	 ecx, esp
  012c6	89 65 c8	 mov	 DWORD PTR $T194061[ebp], esp
  012c9	8b f4		 mov	 esi, esp
  012cb	50		 push	 eax
  012cc	ff 15 00 00 00
	00		 call	 DWORD PTR __imp_??0?$CStringT@DV?$StrTraitMFC_DLL@DV?$ChTraitsCRT@D@ATL@@@@@ATL@@QAE@PBD@Z
  012d2	3b f4		 cmp	 esi, esp
  012d4	e8 00 00 00 00	 call	 __RTC_CheckEsp
  012d9	89 45 ac	 mov	 DWORD PTR tv174[ebp], eax
  012dc	8b 4d e8	 mov	 ecx, DWORD PTR _lpBtnSkin$[ebp]
  012df	e8 00 00 00 00	 call	 ?SetText@CSkinButton@@QAEXV?$CStringT@DV?$StrTraitMFC_DLL@DV?$ChTraitsCRT@D@ATL@@@@@ATL@@@Z ; CSkinButton::SetText

; 302  : 	lpBtnSkin->SetBottonType(lpBtnSkin->SKIN_BOTTON );

  012e4	6a 00		 push	 0
  012e6	8b 4d e8	 mov	 ecx, DWORD PTR _lpBtnSkin$[ebp]
  012e9	e8 00 00 00 00	 call	 ?SetBottonType@CSkinButton@@QAEXI@Z ; CSkinButton::SetBottonType

; 303  : 	lpBtnSkin->SetBitmap( apBmp);

  012ee	8b 55 0c	 mov	 edx, DWORD PTR _apBmp$[ebp]
  012f1	52		 push	 edx
  012f2	8b 4d e8	 mov	 ecx, DWORD PTR _lpBtnSkin$[ebp]
  012f5	e8 00 00 00 00	 call	 ?SetBitmap@CSkinButton@@QAEXPAVCBitmap@@@Z ; CSkinButton::SetBitmap

; 304  : 	lpBtnSkin->SetSkinPath(strPath);	

  012fa	83 ec 1c	 sub	 esp, 28			; 0000001cH
  012fd	8b cc		 mov	 ecx, esp
  012ff	89 65 c4	 mov	 DWORD PTR $T194062[ebp], esp
  01302	8b f4		 mov	 esi, esp
  01304	8d 45 10	 lea	 eax, DWORD PTR _strPath$[ebp]
  01307	50		 push	 eax
  01308	ff 15 00 00 00
	00		 call	 DWORD PTR __imp_??0?$basic_string@DU?$char_traits@D@std@@V?$allocator@D@2@@std@@QAE@ABV01@@Z
  0130e	3b f4		 cmp	 esi, esp
  01310	e8 00 00 00 00	 call	 __RTC_CheckEsp
  01315	89 45 a8	 mov	 DWORD PTR tv176[ebp], eax
  01318	8b 4d e8	 mov	 ecx, DWORD PTR _lpBtnSkin$[ebp]
  0131b	e8 00 00 00 00	 call	 ?SetSkinPath@CSkinButton@@QAEXV?$basic_string@DU?$char_traits@D@std@@V?$allocator@D@2@@std@@@Z ; CSkinButton::SetSkinPath

; 305  : 	m_colBtnList.push_back(lpBtnSkin);

  01320	8d 4d e8	 lea	 ecx, DWORD PTR _lpBtnSkin$[ebp]
  01323	51		 push	 ecx
  01324	8b 4d f0	 mov	 ecx, DWORD PTR _this$[ebp]
  01327	81 c1 c0 02 00
	00		 add	 ecx, 704		; 000002c0H
