; Listing generated by Microsoft (R) Optimizing Compiler Version 13.10.3077 

	TITLE	.\src\Gui\CommonControl\SkinButton2.cpp
	.386P
include listing.inc
if @Version gt 510
.model FLAT
else
_TEXT	SEGMENT PARA USE32 PUBLIC 'CODE'
_TEXT	ENDS
_DATA	SEGMENT DWORD USE32 PUBLIC 'DATA'
_DATA	ENDS
CONST	SEGMENT DWORD USE32 PUBLIC 'CONST'
CONST	ENDS
_BSS	SEGMENT DWORD USE32 PUBLIC 'BSS'
_BSS	ENDS
$$SYMBOLS	SEGMENT BYTE USE32 'DEBSYM'
$$SYMBOLS	ENDS
_TLS	SEGMENT DWORD USE32 PUBLIC 'TLS'
_TLS	ENDS
;	COMDAT ??_C@_0EN@IBFBLEEG@D?3?2Program?5Files?5?$CIx86?$CJ?2Microsoft@
CONST	SEGMENT DWORD USE32 PUBLIC 'CONST'
CONST	ENDS
rdata$r	SEGMENT DWORD USE32 PUBLIC 'CONST'
rdata$r	ENDS
xdata$x	SEGMENT DWORD USE32 PUBLIC 'CONST'
xdata$x	ENDS
text$AFX_COL1	SEGMENT PARA USE32 PUBLIC ''
text$AFX_COL1	ENDS
text$yc	SEGMENT PARA USE32 PUBLIC 'CODE'
text$yc	ENDS
CRT$XCA	SEGMENT DWORD USE32 PUBLIC 'DATA'
CRT$XCA	ENDS
CRT$XCU	SEGMENT DWORD USE32 PUBLIC 'DATA'
CRT$XCU	ENDS
CRT$XCL	SEGMENT DWORD USE32 PUBLIC 'DATA'
CRT$XCL	ENDS
CRT$XCC	SEGMENT DWORD USE32 PUBLIC 'DATA'
CRT$XCC	ENDS
CRT$XCZ	SEGMENT DWORD USE32 PUBLIC 'DATA'
CRT$XCZ	ENDS
text$yd	SEGMENT PARA USE32 PUBLIC 'CODE'
text$yd	ENDS
ATL$__m	SEGMENT DWORD USE32 PUBLIC ''
ATL$__m	ENDS
ATL$__z	SEGMENT DWORD USE32 PUBLIC ''
ATL$__z	ENDS
ATL$__a	SEGMENT DWORD USE32 PUBLIC ''
ATL$__a	ENDS
;	COMDAT ??0CGdiPlusBitmap@@QAE@XZ
_TEXT	SEGMENT PARA USE32 PUBLIC 'CODE'
_TEXT	ENDS
;	COMDAT ??1CGdiPlusBitmap@@UAE@XZ
_TEXT	SEGMENT PARA USE32 PUBLIC 'CODE'
_TEXT	ENDS
;	COMDAT ?Empty@CGdiPlusBitmap@@QAEXXZ
_TEXT	SEGMENT PARA USE32 PUBLIC 'CODE'
_TEXT	ENDS
;	COMDAT ?Load@CGdiPlusBitmap@@QAE_NPB_W@Z
_TEXT	SEGMENT PARA USE32 PUBLIC 'CODE'
_TEXT	ENDS
;	COMDAT ??BCGdiPlusBitmap@@QBEPAVBitmap@Gdiplus@@XZ
_TEXT	SEGMENT PARA USE32 PUBLIC 'CODE'
_TEXT	ENDS
;	COMDAT ??_GCGdiPlusBitmap@@UAEPAXI@Z
_TEXT	SEGMENT PARA USE32 PUBLIC 'CODE'
_TEXT	ENDS
;	COMDAT ??_GCSkinButton2@@UAEPAXI@Z
_TEXT	SEGMENT PARA USE32 PUBLIC 'CODE'
_TEXT	ENDS
;	COMDAT ??_GFont@Gdiplus@@QAEPAXI@Z
_TEXT	SEGMENT PARA USE32 PUBLIC 'CODE'
_TEXT	ENDS
;	COMDAT ??B?$CComPtrBase@UITypeInfo2@@@ATL@@QBEPAUITypeInfo2@@XZ
_TEXT	SEGMENT PARA USE32 PUBLIC 'CODE'
_TEXT	ENDS
;	COMDAT ?equal@?$istreambuf_iterator@DU?$char_traits@D@std@@@std@@QBE_NABV12@@Z
_TEXT	SEGMENT PARA USE32 PUBLIC 'CODE'
_TEXT	ENDS
;	COMDAT ?equal@?$istreambuf_iterator@_WU?$char_traits@_W@std@@@std@@QBE_NABV12@@Z
_TEXT	SEGMENT PARA USE32 PUBLIC 'CODE'
_TEXT	ENDS
;	COMDAT ?Unlock@?$CComCritSecLock@VCComCriticalSection@ATL@@@ATL@@QAEXXZ
_TEXT	SEGMENT PARA USE32 PUBLIC 'CODE'
_TEXT	ENDS
;	COMDAT ??$_Maklocstr@D@std@@YAPADPBDPADABU_Cvtvec@@@Z
_TEXT	SEGMENT PARA USE32 PUBLIC 'CODE'
_TEXT	ENDS
;	COMDAT ??_R3CGdiPlusBitmap@@8
rdata$r	SEGMENT DWORD USE32 PUBLIC 'CONST'
rdata$r	ENDS
;	COMDAT ??_R3?$numpunct@_W@std@@8
rdata$r	SEGMENT DWORD USE32 PUBLIC 'CONST'
rdata$r	ENDS
;	COMDAT ??_R3?$numpunct@D@std@@8
rdata$r	SEGMENT DWORD USE32 PUBLIC 'CONST'
rdata$r	ENDS
;	COMDAT ??_R3CSkinButton2@@8
rdata$r	SEGMENT DWORD USE32 PUBLIC 'CONST'
rdata$r	ENDS
;	COMDAT ??_R2CGdiPlusBitmap@@8
rdata$r	SEGMENT DWORD USE32 PUBLIC 'CONST'
rdata$r	ENDS
;	COMDAT ??_R2?$numpunct@_W@std@@8
rdata$r	SEGMENT DWORD USE32 PUBLIC 'CONST'
rdata$r	ENDS
;	COMDAT ??_R2?$numpunct@D@std@@8
rdata$r	SEGMENT DWORD USE32 PUBLIC 'CONST'
rdata$r	ENDS
;	COMDAT ??_R2CSkinButton2@@8
rdata$r	SEGMENT DWORD USE32 PUBLIC 'CONST'
rdata$r	ENDS
;	COMDAT ??_R1A@?0A@A@CGdiPlusBitmap@@8
rdata$r	SEGMENT DWORD USE32 PUBLIC 'CONST'
rdata$r	ENDS
;	COMDAT ??_R1A@?0A@A@?$numpunct@_W@std@@8
rdata$r	SEGMENT DWORD USE32 PUBLIC 'CONST'
rdata$r	ENDS
;	COMDAT ??_R1A@?0A@A@facet@locale@std@@8
rdata$r	SEGMENT DWORD USE32 PUBLIC 'CONST'
rdata$r	ENDS
;	COMDAT ??_R0?AVfacet@locale@std@@@8
_DATA	SEGMENT DWORD USE32 PUBLIC 'DATA'
_DATA	ENDS
;	COMDAT ??_R1A@?0A@A@?$numpunct@D@std@@8
rdata$r	SEGMENT DWORD USE32 PUBLIC 'CONST'
rdata$r	ENDS
;	COMDAT ??_R1A@?0A@A@CObject@@8
rdata$r	SEGMENT DWORD USE32 PUBLIC 'CONST'
rdata$r	ENDS
;	COMDAT ??_R0?AVCObject@@@8
_DATA	SEGMENT DWORD USE32 PUBLIC 'DATA'
_DATA	ENDS
;	COMDAT ??_R1A@?0A@A@CCmdTarget@@8
rdata$r	SEGMENT DWORD USE32 PUBLIC 'CONST'
rdata$r	ENDS
;	COMDAT ??_R0?AVCCmdTarget@@@8
_DATA	SEGMENT DWORD USE32 PUBLIC 'DATA'
_DATA	ENDS
;	COMDAT ??_R1A@?0A@A@CWnd@@8
rdata$r	SEGMENT DWORD USE32 PUBLIC 'CONST'
rdata$r	ENDS
;	COMDAT ??_R0?AVCWnd@@@8
_DATA	SEGMENT DWORD USE32 PUBLIC 'DATA'
_DATA	ENDS
;	COMDAT ??_R1A@?0A@A@CButton@@8
rdata$r	SEGMENT DWORD USE32 PUBLIC 'CONST'
rdata$r	ENDS
;	COMDAT ??_R1A@?0A@A@CSkinButton2@@8
rdata$r	SEGMENT DWORD USE32 PUBLIC 'CONST'
rdata$r	ENDS
;	COMDAT ??_R0?AVCGdiPlusBitmap@@@8
_DATA	SEGMENT DWORD USE32 PUBLIC 'DATA'
_DATA	ENDS
;	COMDAT ??_R0?AV?$numpunct@_W@std@@@8
_DATA	SEGMENT DWORD USE32 PUBLIC 'DATA'
_DATA	ENDS
;	COMDAT ??_R0?AV?$numpunct@D@std@@@8
_DATA	SEGMENT DWORD USE32 PUBLIC 'DATA'
_DATA	ENDS
;	COMDAT ??_R0?AVCButton@@@8
_DATA	SEGMENT DWORD USE32 PUBLIC 'DATA'
_DATA	ENDS
;	COMDAT ??_R0?AVCSkinButton2@@@8
_DATA	SEGMENT DWORD USE32 PUBLIC 'DATA'
_DATA	ENDS
;	COMDAT ??_R4CGdiPlusBitmap@@6B@
rdata$r	SEGMENT DWORD USE32 PUBLIC 'CONST'
rdata$r	ENDS
;	COMDAT ??0?$allocator@_W@std@@QAE@XZ
_TEXT	SEGMENT PARA USE32 PUBLIC 'CODE'
_TEXT	ENDS
;	COMDAT ??0?$allocator@D@std@@QAE@ABV01@@Z
_TEXT	SEGMENT PARA USE32 PUBLIC 'CODE'
_TEXT	ENDS
;	COMDAT ??0?$allocator@D@std@@QAE@XZ
_TEXT	SEGMENT PARA USE32 PUBLIC 'CODE'
_TEXT	ENDS
;	COMDAT ?deallocate@?$allocator@D@std@@QAEXPADI@Z
_TEXT	SEGMENT PARA USE32 PUBLIC 'CODE'
_TEXT	ENDS
;	COMDAT ?max_size@?$allocator@D@std@@QBEIXZ
_TEXT	SEGMENT PARA USE32 PUBLIC 'CODE'
_TEXT	ENDS
;	COMDAT ?allocate@?$allocator@D@std@@QAEPADI@Z
_TEXT	SEGMENT PARA USE32 PUBLIC 'CODE'
_TEXT	ENDS
;	COMDAT ??$_Allocate@D@std@@YAPADIPAD@Z
_TEXT	SEGMENT PARA USE32 PUBLIC 'CODE'
_TEXT	ENDS
;	COMDAT ??_G?$numpunct@_W@std@@MAEPAXI@Z
_TEXT	SEGMENT PARA USE32 PUBLIC 'CODE'
_TEXT	ENDS
;	COMDAT ??_R4?$numpunct@_W@std@@6B@
rdata$r	SEGMENT DWORD USE32 PUBLIC 'CONST'
rdata$r	ENDS
;	COMDAT ??_G?$numpunct@D@std@@MAEPAXI@Z
_TEXT	SEGMENT PARA USE32 PUBLIC 'CODE'
_TEXT	ENDS
;	COMDAT ??_R4?$numpunct@D@std@@6B@
rdata$r	SEGMENT DWORD USE32 PUBLIC 'CONST'
rdata$r	ENDS
;	COMDAT ??_R4CSkinButton2@@6B@
rdata$r	SEGMENT DWORD USE32 PUBLIC 'CONST'
rdata$r	ENDS
;	COMDAT ??_C@_0EN@CBMLGOH@D?3?2Program?5Files?5?$CIx86?$CJ?2Microsoft@
CONST	SEGMENT DWORD USE32 PUBLIC 'CONST'
CONST	ENDS
;	COMDAT ?_Psave@?$_Facetptr@V?$numpunct@_W@std@@@std@@2PBVfacet@locale@2@B
_DATA	SEGMENT DWORD USE32 PUBLIC 'DATA'
_DATA	ENDS
;	COMDAT ?_Psave@?$_Facetptr@V?$numpunct@D@std@@@std@@2PBVfacet@locale@2@B
_DATA	SEGMENT DWORD USE32 PUBLIC 'DATA'
_DATA	ENDS
;	COMDAT ?Unlock@CComCriticalSection@ATL@@QAEJXZ
_TEXT	SEGMENT PARA USE32 PUBLIC 'CODE'
_TEXT	ENDS
;	COMDAT ??_C@_0FG@LDNDNCJM@D?3?2Program?5Files?5?$CIx86?$CJ?2Microsoft@
CONST	SEGMENT DWORD USE32 PUBLIC 'CONST'
CONST	ENDS
;	COMDAT ??_C@_09HIEJFN@m_bLocked?$AA@
CONST	SEGMENT DWORD USE32 PUBLIC 'CONST'
CONST	ENDS
;	COMDAT ?_Psave@?$_Facetptr@V?$ctype@_W@std@@@std@@2PBVfacet@locale@2@B
_DATA	SEGMENT DWORD USE32 PUBLIC 'DATA'
_DATA	ENDS
;	COMDAT ?_Psave@?$_Facetptr@V?$ctype@D@std@@@std@@2PBVfacet@locale@2@B
_DATA	SEGMENT DWORD USE32 PUBLIC 'DATA'
_DATA	ENDS
;	COMDAT ??$_Maklocchr@_W@std@@YA_WDPA_WABU_Cvtvec@@@Z
_TEXT	SEGMENT PARA USE32 PUBLIC 'CODE'
_TEXT	ENDS
;	COMDAT ??$_DebugHeapDelete@X@std@@YAXPAX@Z
_TEXT	SEGMENT PARA USE32 PUBLIC 'CODE'
_TEXT	ENDS
;	COMDAT ??$_Maklocstr@_W@std@@YAPA_WPBDPA_WABU_Cvtvec@@@Z
_TEXT	SEGMENT PARA USE32 PUBLIC 'CODE'
_TEXT	ENDS
;	COMDAT ??$_Maklocchr@D@std@@YADDPADABU_Cvtvec@@@Z
_TEXT	SEGMENT PARA USE32 PUBLIC 'CODE'
_TEXT	ENDS
;	COMDAT ??_C@_04LOAJBDKD@true?$AA@
CONST	SEGMENT DWORD USE32 PUBLIC 'CONST'
CONST	ENDS
;	COMDAT ??_C@_05LAPONLG@false?$AA@
CONST	SEGMENT DWORD USE32 PUBLIC 'CONST'
CONST	ENDS
;	COMDAT _wmemcpy
_TEXT	SEGMENT PARA USE32 PUBLIC 'CODE'
_TEXT	ENDS
;	COMDAT ?max_size@?$allocator@_W@std@@QBEIXZ
_TEXT	SEGMENT PARA USE32 PUBLIC 'CODE'
_TEXT	ENDS
;	COMDAT ?allocate@?$allocator@_W@std@@QAEPA_WI@Z
_TEXT	SEGMENT PARA USE32 PUBLIC 'CODE'
_TEXT	ENDS
;	COMDAT ??$_Allocate@_W@std@@YAPA_WIPA_W@Z
_TEXT	SEGMENT PARA USE32 PUBLIC 'CODE'
_TEXT	ENDS
;	COMDAT ??_C@_01GFHCPBMG@C?$AA@
CONST	SEGMENT DWORD USE32 PUBLIC 'CONST'
CONST	ENDS
;	COMDAT ?_Peek@?$istreambuf_iterator@_WU?$char_traits@_W@std@@@std@@AAE_WXZ
_TEXT	SEGMENT PARA USE32 PUBLIC 'CODE'
_TEXT	ENDS
;	COMDAT ?_Peek@?$istreambuf_iterator@DU?$char_traits@D@std@@@std@@AAEDXZ
_TEXT	SEGMENT PARA USE32 PUBLIC 'CODE'
_TEXT	ENDS
;	COMDAT ??$use_facet@V?$ctype@_W@std@@@std@@YAABV?$ctype@_W@0@ABVlocale@0@@Z
_TEXT	SEGMENT PARA USE32 PUBLIC 'CODE'
_TEXT	ENDS
;	COMDAT ??_S?$ctype@_W@std@@6B@
CONST	SEGMENT DWORD USE32 PUBLIC 'CONST'
CONST	ENDS
;	COMDAT ??_R4?$ctype@_W@std@@6B@
rdata$r	SEGMENT DWORD USE32 PUBLIC 'CONST'
rdata$r	ENDS
;	COMDAT ??_R0?AV?$ctype@_W@std@@@8
_DATA	SEGMENT DWORD USE32 PUBLIC 'DATA'
_DATA	ENDS
;	COMDAT ??_R3?$ctype@_W@std@@8
rdata$r	SEGMENT DWORD USE32 PUBLIC 'CONST'
rdata$r	ENDS
;	COMDAT ??_R2?$ctype@_W@std@@8
rdata$r	SEGMENT DWORD USE32 PUBLIC 'CONST'
rdata$r	ENDS
;	COMDAT ??_R1A@?0A@A@?$ctype@_W@std@@8
rdata$r	SEGMENT DWORD USE32 PUBLIC 'CONST'
rdata$r	ENDS
;	COMDAT ??_R1A@?0A@A@ctype_base@std@@8
rdata$r	SEGMENT DWORD USE32 PUBLIC 'CONST'
rdata$r	ENDS
;	COMDAT ??_R0?AUctype_base@std@@@8
_DATA	SEGMENT DWORD USE32 PUBLIC 'DATA'
_DATA	ENDS
;	COMDAT ??_G?$ctype@_W@std@@MAEPAXI@Z
_TEXT	SEGMENT PARA USE32 PUBLIC 'CODE'
_TEXT	ENDS
;	COMDAT ??_C@_08EPJLHIJG@bad?5cast?$AA@
CONST	SEGMENT DWORD USE32 PUBLIC 'CONST'
CONST	ENDS
;	COMDAT __TI2?AVbad_cast@@
xdata$x	SEGMENT DWORD USE32 PUBLIC 'CONST'
xdata$x	ENDS
;	COMDAT __CTA2?AVbad_cast@@
xdata$x	SEGMENT DWORD USE32 PUBLIC 'CONST'
xdata$x	ENDS
;	COMDAT __CT??_R0?AVbad_cast@@@8??0bad_cast@@QAE@ABV0@@Z12
xdata$x	SEGMENT DWORD USE32 PUBLIC 'CONST'
xdata$x	ENDS
;	COMDAT ??_R0?AVbad_cast@@@8
_DATA	SEGMENT DWORD USE32 PUBLIC 'DATA'
_DATA	ENDS
;	COMDAT __CT??_R0?AVexception@@@8??0exception@@QAE@ABV0@@Z12
xdata$x	SEGMENT DWORD USE32 PUBLIC 'CONST'
xdata$x	ENDS
;	COMDAT ??_R0?AVexception@@@8
_DATA	SEGMENT DWORD USE32 PUBLIC 'DATA'
_DATA	ENDS
;	COMDAT ??$_DebugHeapDelete@Vfacet@locale@std@@@std@@YAXPAVfacet@locale@0@@Z
_TEXT	SEGMENT PARA USE32 PUBLIC 'CODE'
_TEXT	ENDS
;	COMDAT ??$use_facet@V?$ctype@D@std@@@std@@YAABV?$ctype@D@0@ABVlocale@0@@Z
_TEXT	SEGMENT PARA USE32 PUBLIC 'CODE'
_TEXT	ENDS
;	COMDAT ??_S?$ctype@D@std@@6B@
CONST	SEGMENT DWORD USE32 PUBLIC 'CONST'
CONST	ENDS
;	COMDAT ??_R4?$ctype@D@std@@6B@
rdata$r	SEGMENT DWORD USE32 PUBLIC 'CONST'
rdata$r	ENDS
;	COMDAT ??_R0?AV?$ctype@D@std@@@8
_DATA	SEGMENT DWORD USE32 PUBLIC 'DATA'
_DATA	ENDS
;	COMDAT ??_R3?$ctype@D@std@@8
rdata$r	SEGMENT DWORD USE32 PUBLIC 'CONST'
rdata$r	ENDS
;	COMDAT ??_R2?$ctype@D@std@@8
rdata$r	SEGMENT DWORD USE32 PUBLIC 'CONST'
rdata$r	ENDS
;	COMDAT ??_R1A@?0A@A@?$ctype@D@std@@8
rdata$r	SEGMENT DWORD USE32 PUBLIC 'CONST'
rdata$r	ENDS
;	COMDAT ??_G?$ctype@D@std@@MAEPAXI@Z
_TEXT	SEGMENT PARA USE32 PUBLIC 'CODE'
_TEXT	ENDS
;	COMDAT ??_S?$numpunct@_W@std@@6B@
CONST	SEGMENT DWORD USE32 PUBLIC 'CONST'
CONST	ENDS
;	COMDAT ??_S?$numpunct@D@std@@6B@
CONST	SEGMENT DWORD USE32 PUBLIC 'CONST'
CONST	ENDS
;	COMDAT _wmemmove
_TEXT	SEGMENT PARA USE32 PUBLIC 'CODE'
_TEXT	ENDS
;	COMDAT ?deallocate@?$allocator@_W@std@@QAEXPA_WI@Z
_TEXT	SEGMENT PARA USE32 PUBLIC 'CODE'
_TEXT	ENDS
;	COMDAT ??0?$allocator@_W@std@@QAE@ABV01@@Z
_TEXT	SEGMENT PARA USE32 PUBLIC 'CODE'
_TEXT	ENDS
;	COMDAT ?IsLocked@CStringData@ATL@@QBE_NXZ
_TEXT	SEGMENT PARA USE32 PUBLIC 'CODE'
_TEXT	ENDS
;	COMDAT ??_C@_0N@ILOMLJGA@nLength?5?$DO?$DN?50?$AA@
CONST	SEGMENT DWORD USE32 PUBLIC 'CONST'
CONST	ENDS
;	COMDAT ??_C@_0CD@EEFFJEGJ@nLength?5?$DM?$DN?5GetData?$CI?$CJ?9?$DOnAllocLeng@
CONST	SEGMENT DWORD USE32 PUBLIC 'CONST'
CONST	ENDS
;	COMDAT ??_C@_0FJ@DMHPDOJC@D?3?2Program?5Files?5?$CIx86?$CJ?2Microsoft@
CONST	SEGMENT DWORD USE32 PUBLIC 'CONST'
CONST	ENDS
;	COMDAT ?AtlThrow@ATL@@YGXJ@Z
_TEXT	SEGMENT PARA USE32 PUBLIC 'CODE'
_TEXT	ENDS
;	COMDAT ??RCTraceFileAndLineInfo@ATL@@QBAXKIPBDZZ
_TEXT	SEGMENT PARA USE32 PUBLIC 'CODE'
_TEXT	ENDS
;	COMDAT ?TraceV@CTrace@ATL@@QBAXPBDHKI0PAD@Z
_TEXT	SEGMENT PARA USE32 PUBLIC 'CODE'
_TEXT	ENDS
;	COMDAT ??0CTraceFileAndLineInfo@ATL@@QAE@PBDH@Z
_TEXT	SEGMENT PARA USE32 PUBLIC 'CODE'
_TEXT	ENDS
;	COMDAT ??_C@_0FI@NHHJANPC@D?3?2Program?5Files?5?$CIx86?$CJ?2Microsoft@
CONST	SEGMENT DWORD USE32 PUBLIC 'CONST'
CONST	ENDS
;	COMDAT ??_C@_0BF@IAAKIJDJ@AtlThrow?3?5hr?5?$DN?50x?$CFx?6?$AA@
CONST	SEGMENT DWORD USE32 PUBLIC 'CONST'
CONST	ENDS
;	COMDAT ??BCTraceCategory@ATL@@QBEKXZ
_TEXT	SEGMENT PARA USE32 PUBLIC 'CODE'
_TEXT	ENDS
;	COMDAT ?IsShared@CStringData@ATL@@QBE_NXZ
_TEXT	SEGMENT PARA USE32 PUBLIC 'CODE'
_TEXT	ENDS
;	COMDAT ?data@CStringData@ATL@@QAEPAXXZ
_TEXT	SEGMENT PARA USE32 PUBLIC 'CODE'
_TEXT	ENDS
;	COMDAT ??_C@_0CB@GFHAPKDK@pOldData?9?$DOnAllocLength?5?$DM?5nLength@
CONST	SEGMENT DWORD USE32 PUBLIC 'CONST'
CONST	ENDS
;	COMDAT ??_C@_0BA@GNIEOBOF@nNewLength?5?$DO?$DN?50?$AA@
CONST	SEGMENT DWORD USE32 PUBLIC 'CONST'
CONST	ENDS
;	COMDAT ?AddRef@CStringData@ATL@@QAEXXZ
_TEXT	SEGMENT PARA USE32 PUBLIC 'CODE'
_TEXT	ENDS
;	COMDAT ??_C@_09EEBKLCFA@nRefs?5?$DO?50?$AA@
CONST	SEGMENT DWORD USE32 PUBLIC 'CONST'
CONST	ENDS
;	COMDAT ?Release@CStringData@ATL@@QAEXXZ
_TEXT	SEGMENT PARA USE32 PUBLIC 'CODE'
_TEXT	ENDS
;	COMDAT ??_C@_0L@OIIMFBNE@nRefs?5?$CB?$DN?50?$AA@
CONST	SEGMENT DWORD USE32 PUBLIC 'CONST'
CONST	ENDS
;	COMDAT ?DrawArc@Graphics@Gdiplus@@QAE?AW4Status@2@PBVPen@2@ABVRectF@2@MM@Z
_TEXT	SEGMENT PARA USE32 PUBLIC 'CODE'
_TEXT	ENDS
;	COMDAT ?DrawArc@Graphics@Gdiplus@@QAE?AW4Status@2@PBVPen@2@MMMMMM@Z
_TEXT	SEGMENT PARA USE32 PUBLIC 'CODE'
_TEXT	ENDS
;	COMDAT ?SetStatus@Graphics@Gdiplus@@IBE?AW4Status@2@W432@@Z
_TEXT	SEGMENT PARA USE32 PUBLIC 'CODE'
_TEXT	ENDS
;	COMDAT ??0Color@Gdiplus@@QAE@K@Z
_TEXT	SEGMENT PARA USE32 PUBLIC 'CODE'
_TEXT	ENDS
;	COMDAT ?Inflate@RectF@Gdiplus@@QAEXMM@Z
_TEXT	SEGMENT PARA USE32 PUBLIC 'CODE'
_TEXT	ENDS
;	COMDAT ?FillRectangle@Graphics@Gdiplus@@QAE?AW4Status@2@PBVBrush@2@ABVRectF@2@@Z
_TEXT	SEGMENT PARA USE32 PUBLIC 'CODE'
_TEXT	ENDS
;	COMDAT ?FillRectangle@Graphics@Gdiplus@@QAE?AW4Status@2@PBVBrush@2@MMMM@Z
_TEXT	SEGMENT PARA USE32 PUBLIC 'CODE'
_TEXT	ENDS
;	COMDAT ??1LinearGradientBrush@Gdiplus@@UAE@XZ
_TEXT	SEGMENT PARA USE32 PUBLIC 'CODE'
_TEXT	ENDS
;	COMDAT ??1Brush@Gdiplus@@UAE@XZ
_TEXT	SEGMENT PARA USE32 PUBLIC 'CODE'
_TEXT	ENDS
;	COMDAT ??_7Brush@Gdiplus@@6B@
CONST	SEGMENT DWORD USE32 PUBLIC 'CONST'
CONST	ENDS
;	COMDAT ??_R4Brush@Gdiplus@@6B@
rdata$r	SEGMENT DWORD USE32 PUBLIC 'CONST'
rdata$r	ENDS
;	COMDAT ??_R0?AVBrush@Gdiplus@@@8
_DATA	SEGMENT DWORD USE32 PUBLIC 'DATA'
_DATA	ENDS
;	COMDAT ??_R3Brush@Gdiplus@@8
rdata$r	SEGMENT DWORD USE32 PUBLIC 'CONST'
rdata$r	ENDS
;	COMDAT ??_R2Brush@Gdiplus@@8
rdata$r	SEGMENT DWORD USE32 PUBLIC 'CONST'
rdata$r	ENDS
;	COMDAT ??_R1A@?0A@A@Brush@Gdiplus@@8
rdata$r	SEGMENT DWORD USE32 PUBLIC 'CONST'
rdata$r	ENDS
;	COMDAT ??_R13?0A@A@GdiplusBase@Gdiplus@@8
rdata$r	SEGMENT DWORD USE32 PUBLIC 'CONST'
rdata$r	ENDS
;	COMDAT ??_R0?AVGdiplusBase@Gdiplus@@@8
_DATA	SEGMENT DWORD USE32 PUBLIC 'DATA'
_DATA	ENDS
;	COMDAT ??_GBrush@Gdiplus@@UAEPAXI@Z
_TEXT	SEGMENT PARA USE32 PUBLIC 'CODE'
_TEXT	ENDS
;	COMDAT ?Clone@Brush@Gdiplus@@UBEPAV12@XZ
_TEXT	SEGMENT PARA USE32 PUBLIC 'CODE'
_TEXT	ENDS
;	COMDAT ?SetStatus@Brush@Gdiplus@@IBE?AW4Status@2@W432@@Z
_TEXT	SEGMENT PARA USE32 PUBLIC 'CODE'
_TEXT	ENDS
;	COMDAT ??0Brush@Gdiplus@@IAE@PAVGpBrush@1@W4Status@1@@Z
_TEXT	SEGMENT PARA USE32 PUBLIC 'CODE'
_TEXT	ENDS
;	COMDAT ?SetNativeBrush@Brush@Gdiplus@@IAEXPAVGpBrush@2@@Z
_TEXT	SEGMENT PARA USE32 PUBLIC 'CODE'
_TEXT	ENDS
;	COMDAT ??0LinearGradientBrush@Gdiplus@@QAE@ABVRectF@1@ABVColor@1@1W4LinearGradientMode@1@@Z
_TEXT	SEGMENT PARA USE32 PUBLIC 'CODE'
_TEXT	ENDS
;	COMDAT ??0Brush@Gdiplus@@IAE@XZ
_TEXT	SEGMENT PARA USE32 PUBLIC 'CODE'
_TEXT	ENDS
;	COMDAT ??_7LinearGradientBrush@Gdiplus@@6B@
CONST	SEGMENT DWORD USE32 PUBLIC 'CONST'
CONST	ENDS
;	COMDAT ??_R4LinearGradientBrush@Gdiplus@@6B@
rdata$r	SEGMENT DWORD USE32 PUBLIC 'CONST'
rdata$r	ENDS
;	COMDAT ??_R0?AVLinearGradientBrush@Gdiplus@@@8
_DATA	SEGMENT DWORD USE32 PUBLIC 'DATA'
_DATA	ENDS
;	COMDAT ??_R3LinearGradientBrush@Gdiplus@@8
rdata$r	SEGMENT DWORD USE32 PUBLIC 'CONST'
rdata$r	ENDS
;	COMDAT ??_R2LinearGradientBrush@Gdiplus@@8
rdata$r	SEGMENT DWORD USE32 PUBLIC 'CONST'
rdata$r	ENDS
;	COMDAT ??_R1A@?0A@A@LinearGradientBrush@Gdiplus@@8
rdata$r	SEGMENT DWORD USE32 PUBLIC 'CONST'
rdata$r	ENDS
;	COMDAT ??_GLinearGradientBrush@Gdiplus@@UAEPAXI@Z
_TEXT	SEGMENT PARA USE32 PUBLIC 'CODE'
_TEXT	ENDS
;	COMDAT ?GetValue@Color@Gdiplus@@QBEKXZ
_TEXT	SEGMENT PARA USE32 PUBLIC 'CODE'
_TEXT	ENDS
;	COMDAT ?SetColor@Pen@Gdiplus@@QAE?AW4Status@2@ABVColor@2@@Z
_TEXT	SEGMENT PARA USE32 PUBLIC 'CODE'
_TEXT	ENDS
;	COMDAT ?SetStatus@Pen@Gdiplus@@IBE?AW4Status@2@W432@@Z
_TEXT	SEGMENT PARA USE32 PUBLIC 'CODE'
_TEXT	ENDS
;	COMDAT ?GetA@Color@Gdiplus@@QBEEXZ
_TEXT	SEGMENT PARA USE32 PUBLIC 'CODE'
_TEXT	ENDS
;	COMDAT ?GetAlpha@Color@Gdiplus@@QBEEXZ
_TEXT	SEGMENT PARA USE32 PUBLIC 'CODE'
_TEXT	ENDS
;	COMDAT ?GetR@Color@Gdiplus@@QBEEXZ
_TEXT	SEGMENT PARA USE32 PUBLIC 'CODE'
_TEXT	ENDS
;	COMDAT ?GetRed@Color@Gdiplus@@QBEEXZ
_TEXT	SEGMENT PARA USE32 PUBLIC 'CODE'
_TEXT	ENDS
;	COMDAT ?GetG@Color@Gdiplus@@QBEEXZ
_TEXT	SEGMENT PARA USE32 PUBLIC 'CODE'
_TEXT	ENDS
;	COMDAT ?GetGreen@Color@Gdiplus@@QBEEXZ
_TEXT	SEGMENT PARA USE32 PUBLIC 'CODE'
_TEXT	ENDS
;	COMDAT ?GetB@Color@Gdiplus@@QBEEXZ
_TEXT	SEGMENT PARA USE32 PUBLIC 'CODE'
_TEXT	ENDS
;	COMDAT ?GetBlue@Color@Gdiplus@@QBEEXZ
_TEXT	SEGMENT PARA USE32 PUBLIC 'CODE'
_TEXT	ENDS
;	COMDAT ?GetColor@Pen@Gdiplus@@QBE?AW4Status@2@PAVColor@2@@Z
_TEXT	SEGMENT PARA USE32 PUBLIC 'CODE'
_TEXT	ENDS
;	COMDAT ?GetPenType@Pen@Gdiplus@@QBE?AW4PenType@2@XZ
_TEXT	SEGMENT PARA USE32 PUBLIC 'CODE'
_TEXT	ENDS
;	COMDAT ?DrawLine@Graphics@Gdiplus@@QAE?AW4Status@2@PBVPen@2@HHHH@Z
_TEXT	SEGMENT PARA USE32 PUBLIC 'CODE'
_TEXT	ENDS
;	COMDAT ??1Pen@Gdiplus@@QAE@XZ
_TEXT	SEGMENT PARA USE32 PUBLIC 'CODE'
_TEXT	ENDS
;	COMDAT ??0Pen@Gdiplus@@QAE@ABVColor@1@M@Z
_TEXT	SEGMENT PARA USE32 PUBLIC 'CODE'
_TEXT	ENDS
;	COMDAT ?SetColorMatrix@ImageAttributes@Gdiplus@@QAE?AW4Status@2@PBUColorMatrix@2@W4ColorMatrixFlags@2@W4ColorAdjustType@2@@Z
_TEXT	SEGMENT PARA USE32 PUBLIC 'CODE'
_TEXT	ENDS
;	COMDAT ?SetStatus@ImageAttributes@Gdiplus@@IBE?AW4Status@2@W432@@Z
_TEXT	SEGMENT PARA USE32 PUBLIC 'CODE'
_TEXT	ENDS
;	COMDAT ??1ImageAttributes@Gdiplus@@QAE@XZ
_TEXT	SEGMENT PARA USE32 PUBLIC 'CODE'
_TEXT	ENDS
;	COMDAT ??0ImageAttributes@Gdiplus@@QAE@XZ
_TEXT	SEGMENT PARA USE32 PUBLIC 'CODE'
_TEXT	ENDS
;	COMDAT ?DrawImage@Graphics@Gdiplus@@QAE?AW4Status@2@PAVImage@2@ABVRectF@2@@Z
_TEXT	SEGMENT PARA USE32 PUBLIC 'CODE'
_TEXT	ENDS
;	COMDAT ?DrawImage@Graphics@Gdiplus@@QAE?AW4Status@2@PAVImage@2@MMMM@Z
_TEXT	SEGMENT PARA USE32 PUBLIC 'CODE'
_TEXT	ENDS
;	COMDAT ?GetWidth@Image@Gdiplus@@QAEIXZ
_TEXT	SEGMENT PARA USE32 PUBLIC 'CODE'
_TEXT	ENDS
;	COMDAT ?SetStatus@Image@Gdiplus@@IBE?AW4Status@2@W432@@Z
_TEXT	SEGMENT PARA USE32 PUBLIC 'CODE'
_TEXT	ENDS
;	COMDAT ?GetHeight@Image@Gdiplus@@QAEIXZ
_TEXT	SEGMENT PARA USE32 PUBLIC 'CODE'
_TEXT	ENDS
;	COMDAT ?DrawImage@Graphics@Gdiplus@@QAE?AW4Status@2@PAVImage@2@ABVRectF@2@MMMMW4Unit@2@PBVImageAttributes@2@P6GHPAX@Z4@Z
_TEXT	SEGMENT PARA USE32 PUBLIC 'CODE'
_TEXT	ENDS
;	COMDAT ??1SolidBrush@Gdiplus@@UAE@XZ
_TEXT	SEGMENT PARA USE32 PUBLIC 'CODE'
_TEXT	ENDS
;	COMDAT ??0Color@Gdiplus@@QAE@EEEE@Z
_TEXT	SEGMENT PARA USE32 PUBLIC 'CODE'
_TEXT	ENDS
;	COMDAT ??0SolidBrush@Gdiplus@@QAE@ABVColor@1@@Z
_TEXT	SEGMENT PARA USE32 PUBLIC 'CODE'
_TEXT	ENDS
;	COMDAT ??_7SolidBrush@Gdiplus@@6B@
CONST	SEGMENT DWORD USE32 PUBLIC 'CONST'
CONST	ENDS
;	COMDAT ??_R4SolidBrush@Gdiplus@@6B@
rdata$r	SEGMENT DWORD USE32 PUBLIC 'CONST'
rdata$r	ENDS
;	COMDAT ??_R0?AVSolidBrush@Gdiplus@@@8
_DATA	SEGMENT DWORD USE32 PUBLIC 'DATA'
_DATA	ENDS
;	COMDAT ??_R3SolidBrush@Gdiplus@@8
rdata$r	SEGMENT DWORD USE32 PUBLIC 'CONST'
rdata$r	ENDS
;	COMDAT ??_R2SolidBrush@Gdiplus@@8
rdata$r	SEGMENT DWORD USE32 PUBLIC 'CONST'
rdata$r	ENDS
;	COMDAT ??_R1A@?0A@A@SolidBrush@Gdiplus@@8
rdata$r	SEGMENT DWORD USE32 PUBLIC 'CONST'
rdata$r	ENDS
;	COMDAT ??_GSolidBrush@Gdiplus@@UAEPAXI@Z
_TEXT	SEGMENT PARA USE32 PUBLIC 'CODE'
_TEXT	ENDS
;	COMDAT ?DrawString@Graphics@Gdiplus@@QAE?AW4Status@2@PB_WHPBVFont@2@ABVRectF@2@PBVStringFormat@2@PBVBrush@2@@Z
_TEXT	SEGMENT PARA USE32 PUBLIC 'CODE'
_TEXT	ENDS
;	COMDAT ??0RectF@Gdiplus@@QAE@XZ
_TEXT	SEGMENT PARA USE32 PUBLIC 'CODE'
_TEXT	ENDS
;	COMDAT ?SetAlignment@StringFormat@Gdiplus@@QAE?AW4Status@2@W4StringAlignment@2@@Z
_TEXT	SEGMENT PARA USE32 PUBLIC 'CODE'
_TEXT	ENDS
;	COMDAT ?SetStatus@StringFormat@Gdiplus@@IBE?AW4Status@2@W432@@Z
_TEXT	SEGMENT PARA USE32 PUBLIC 'CODE'
_TEXT	ENDS
;	COMDAT ??1StringFormat@Gdiplus@@QAE@XZ
_TEXT	SEGMENT PARA USE32 PUBLIC 'CODE'
_TEXT	ENDS
;	COMDAT ??0StringFormat@Gdiplus@@QAE@HG@Z
_TEXT	SEGMENT PARA USE32 PUBLIC 'CODE'
_TEXT	ENDS
;	COMDAT ??0RectF@Gdiplus@@QAE@MMMM@Z
_TEXT	SEGMENT PARA USE32 PUBLIC 'CODE'
_TEXT	ENDS
;	COMDAT ?FromImage@Graphics@Gdiplus@@SAPAV12@PAVImage@2@@Z
_TEXT	SEGMENT PARA USE32 PUBLIC 'CODE'
_TEXT	ENDS
;	COMDAT ??0Graphics@Gdiplus@@QAE@PAVImage@1@@Z
_TEXT	SEGMENT PARA USE32 PUBLIC 'CODE'
_TEXT	ENDS
;	COMDAT ?SetNativeGraphics@Graphics@Gdiplus@@IAEXPAVGpGraphics@2@@Z
_TEXT	SEGMENT PARA USE32 PUBLIC 'CODE'
_TEXT	ENDS
;	COMDAT ??1Bitmap@Gdiplus@@UAE@XZ
_TEXT	SEGMENT PARA USE32 PUBLIC 'CODE'
_TEXT	ENDS
;	COMDAT ??1Image@Gdiplus@@UAE@XZ
_TEXT	SEGMENT PARA USE32 PUBLIC 'CODE'
_TEXT	ENDS
;	COMDAT ??_7Image@Gdiplus@@6B@
CONST	SEGMENT DWORD USE32 PUBLIC 'CONST'
CONST	ENDS
;	COMDAT ??_R4Image@Gdiplus@@6B@
rdata$r	SEGMENT DWORD USE32 PUBLIC 'CONST'
rdata$r	ENDS
;	COMDAT ??_R0?AVImage@Gdiplus@@@8
_DATA	SEGMENT DWORD USE32 PUBLIC 'DATA'
_DATA	ENDS
;	COMDAT ??_R3Image@Gdiplus@@8
rdata$r	SEGMENT DWORD USE32 PUBLIC 'CONST'
rdata$r	ENDS
;	COMDAT ??_R2Image@Gdiplus@@8
rdata$r	SEGMENT DWORD USE32 PUBLIC 'CONST'
rdata$r	ENDS
;	COMDAT ??_R1A@?0A@A@Image@Gdiplus@@8
rdata$r	SEGMENT DWORD USE32 PUBLIC 'CONST'
rdata$r	ENDS
;	COMDAT ??_GImage@Gdiplus@@UAEPAXI@Z
_TEXT	SEGMENT PARA USE32 PUBLIC 'CODE'
_TEXT	ENDS
;	COMDAT ?Clone@Image@Gdiplus@@UAEPAV12@XZ
_TEXT	SEGMENT PARA USE32 PUBLIC 'CODE'
_TEXT	ENDS
;	COMDAT ??0Image@Gdiplus@@IAE@PAVGpImage@1@W4Status@1@@Z
_TEXT	SEGMENT PARA USE32 PUBLIC 'CODE'
_TEXT	ENDS
;	COMDAT ?SetNativeImage@Image@Gdiplus@@IAEXPAVGpImage@2@@Z
_TEXT	SEGMENT PARA USE32 PUBLIC 'CODE'
_TEXT	ENDS
;	COMDAT ??0Bitmap@Gdiplus@@QAE@HHPAVGraphics@1@@Z
_TEXT	SEGMENT PARA USE32 PUBLIC 'CODE'
_TEXT	ENDS
;	COMDAT ??0Image@Gdiplus@@IAE@XZ
_TEXT	SEGMENT PARA USE32 PUBLIC 'CODE'
_TEXT	ENDS
;	COMDAT ??_7Bitmap@Gdiplus@@6B@
CONST	SEGMENT DWORD USE32 PUBLIC 'CONST'
CONST	ENDS
;	COMDAT ??_R4Bitmap@Gdiplus@@6B@
rdata$r	SEGMENT DWORD USE32 PUBLIC 'CONST'
rdata$r	ENDS
;	COMDAT ??_R0?AVBitmap@Gdiplus@@@8
_DATA	SEGMENT DWORD USE32 PUBLIC 'DATA'
_DATA	ENDS
;	COMDAT ??_R3Bitmap@Gdiplus@@8
rdata$r	SEGMENT DWORD USE32 PUBLIC 'CONST'
rdata$r	ENDS
;	COMDAT ??_R2Bitmap@Gdiplus@@8
rdata$r	SEGMENT DWORD USE32 PUBLIC 'CONST'
rdata$r	ENDS
;	COMDAT ??_R1A@?0A@A@Bitmap@Gdiplus@@8
rdata$r	SEGMENT DWORD USE32 PUBLIC 'CONST'
rdata$r	ENDS
;	COMDAT ??_GBitmap@Gdiplus@@UAEPAXI@Z
_TEXT	SEGMENT PARA USE32 PUBLIC 'CODE'
_TEXT	ENDS
;	COMDAT ??1Graphics@Gdiplus@@QAE@XZ
_TEXT	SEGMENT PARA USE32 PUBLIC 'CODE'
_TEXT	ENDS
;	COMDAT ??CCMemDC@@QAEPAV0@XZ
_TEXT	SEGMENT PARA USE32 PUBLIC 'CODE'
_TEXT	ENDS
;	COMDAT ??0Graphics@Gdiplus@@QAE@PAUHDC__@@@Z
_TEXT	SEGMENT PARA USE32 PUBLIC 'CODE'
_TEXT	ENDS
;	COMDAT ??1CMemDC@@UAE@XZ
_TEXT	SEGMENT PARA USE32 PUBLIC 'CODE'
_TEXT	ENDS
;	COMDAT ??_7CMemDC@@6B@
CONST	SEGMENT DWORD USE32 PUBLIC 'CONST'
CONST	ENDS
;	COMDAT ??_R4CMemDC@@6B@
rdata$r	SEGMENT DWORD USE32 PUBLIC 'CONST'
rdata$r	ENDS
;	COMDAT ??_R0?AVCMemDC@@@8
_DATA	SEGMENT DWORD USE32 PUBLIC 'DATA'
_DATA	ENDS
;	COMDAT ??_R3CMemDC@@8
rdata$r	SEGMENT DWORD USE32 PUBLIC 'CONST'
rdata$r	ENDS
;	COMDAT ??_R2CMemDC@@8
rdata$r	SEGMENT DWORD USE32 PUBLIC 'CONST'
rdata$r	ENDS
;	COMDAT ??_R1A@?0A@A@CMemDC@@8
rdata$r	SEGMENT DWORD USE32 PUBLIC 'CONST'
rdata$r	ENDS
;	COMDAT ??_R1A@?0A@A@CDC@@8
rdata$r	SEGMENT DWORD USE32 PUBLIC 'CONST'
rdata$r	ENDS
;	COMDAT ??_R0?AVCDC@@@8
_DATA	SEGMENT DWORD USE32 PUBLIC 'DATA'
_DATA	ENDS
;	COMDAT ??_GCMemDC@@UAEPAXI@Z
_TEXT	SEGMENT PARA USE32 PUBLIC 'CODE'
_TEXT	ENDS
;	COMDAT ??0CMemDC@@QAE@PAVCDC@@ABVCRect@@@Z
_TEXT	SEGMENT PARA USE32 PUBLIC 'CODE'
_TEXT	ENDS
;	COMDAT ?_messageEntries@CSkinButton2@@0QBUAFX_MSGMAP_ENTRY@@B
CONST	SEGMENT DWORD USE32 PUBLIC 'CONST'
CONST	ENDS
;	COMDAT ?messageMap@CSkinButton2@@1UAFX_MSGMAP@@B
CONST	SEGMENT DWORD USE32 PUBLIC 'CONST'
CONST	ENDS
;	COMDAT ??1Font@Gdiplus@@QAE@XZ
_TEXT	SEGMENT PARA USE32 PUBLIC 'CODE'
_TEXT	ENDS
;	COMDAT ??0Font@Gdiplus@@QAE@PBVFontFamily@1@MHW4Unit@1@@Z
_TEXT	SEGMENT PARA USE32 PUBLIC 'CODE'
_TEXT	ENDS
;	COMDAT ?SetNativeFont@Font@Gdiplus@@IAEXPAVGpFont@2@@Z
_TEXT	SEGMENT PARA USE32 PUBLIC 'CODE'
_TEXT	ENDS
;	COMDAT ??3GdiplusBase@Gdiplus@@SAXPAX@Z
_TEXT	SEGMENT PARA USE32 PUBLIC 'CODE'
_TEXT	ENDS
;	COMDAT ??2GdiplusBase@Gdiplus@@SAPAXI@Z
_TEXT	SEGMENT PARA USE32 PUBLIC 'CODE'
_TEXT	ENDS
;	COMDAT ??1FontFamily@Gdiplus@@QAE@XZ
_TEXT	SEGMENT PARA USE32 PUBLIC 'CODE'
_TEXT	ENDS
;	COMDAT ??0FontFamily@Gdiplus@@QAE@PB_WPBVFontCollection@1@@Z
_TEXT	SEGMENT PARA USE32 PUBLIC 'CODE'
_TEXT	ENDS
;	COMDAT ?MakeARGB@Color@Gdiplus@@SAKEEEE@Z
_TEXT	SEGMENT PARA USE32 PUBLIC 'CODE'
_TEXT	ENDS
;	COMDAT ?SetValue@Color@Gdiplus@@QAEXK@Z
_TEXT	SEGMENT PARA USE32 PUBLIC 'CODE'
_TEXT	ENDS
;	COMDAT ??0Color@Gdiplus@@QAE@XZ
_TEXT	SEGMENT PARA USE32 PUBLIC 'CODE'
_TEXT	ENDS
;	COMDAT ??_C@_0BA@GOIMFHNK@pStringMgr?5?$CB?$DN?50?$AA@
CONST	SEGMENT DWORD USE32 PUBLIC 'CONST'
CONST	ENDS
;	COMDAT ?GetDefaultManager@?$StrTraitMFC_DLL@DV?$ChTraitsCRT@D@ATL@@@@SAPAUIAtlStringMgr@ATL@@XZ
_TEXT	SEGMENT PARA USE32 PUBLIC 'CODE'
_TEXT	ENDS
;	COMDAT ??_7CSkinButton2@@6B@
CONST	SEGMENT DWORD USE32 PUBLIC 'CONST'
CONST	ENDS
;	COMDAT ?classCSkinButton2@CSkinButton2@@2UCRuntimeClass@@B
CONST	SEGMENT DWORD USE32 PUBLIC 'CONST'
CONST	ENDS
;	COMDAT ?GetLastStatus@Image@Gdiplus@@QBE?AW4Status@2@XZ
_TEXT	SEGMENT PARA USE32 PUBLIC 'CODE'
_TEXT	ENDS
;	COMDAT ?FromFile@Bitmap@Gdiplus@@SAPAV12@PB_WH@Z
_TEXT	SEGMENT PARA USE32 PUBLIC 'CODE'
_TEXT	ENDS
;	COMDAT ??0Bitmap@Gdiplus@@QAE@PB_WH@Z
_TEXT	SEGMENT PARA USE32 PUBLIC 'CODE'
_TEXT	ENDS
;	COMDAT ??_7CGdiPlusBitmap@@6B@
CONST	SEGMENT DWORD USE32 PUBLIC 'CONST'
CONST	ENDS
sxdata	SEGMENT DWORD USE32 'SXDATA'
sxdata	ENDS
FLAT	GROUP _DATA, CONST, _BSS
	ASSUME	CS: FLAT, DS: FLAT, SS: FLAT
endif

INCLUDELIB MSVCRTD
INCLUDELIB OLDNAMES

PUBLIC	?classCSkinButton2@CSkinButton2@@2UCRuntimeClass@@B ; CSkinButton2::classCSkinButton2
PUBLIC	?_messageEntries@CSkinButton2@@0QBUAFX_MSGMAP_ENTRY@@B ; CSkinButton2::_messageEntries
PUBLIC	?messageMap@CSkinButton2@@1UAFX_MSGMAP@@B	; CSkinButton2::messageMap
PUBLIC	?OnCreate@CSkinButton2@@QAEHPAUtagCREATESTRUCTA@@@Z ; CSkinButton2::OnCreate
PUBLIC	?OnEraseBkgnd@CSkinButton2@@QAEHPAVCDC@@@Z	; CSkinButton2::OnEraseBkgnd
PUBLIC	?OnMouseMove@CSkinButton2@@QAEXIVCPoint@@@Z	; CSkinButton2::OnMouseMove
PUBLIC	?OnMouseLeave@CSkinButton2@@QAEJIJ@Z		; CSkinButton2::OnMouseLeave
PUBLIC	?OnMouseHover@CSkinButton2@@QAEJIJ@Z		; CSkinButton2::OnMouseHover
PUBLIC	?OnLButtonDown@CSkinButton2@@QAEXIVCPoint@@@Z	; CSkinButton2::OnLButtonDown
PUBLIC	?OnLButtonUp@CSkinButton2@@QAEXIVCPoint@@@Z	; CSkinButton2::OnLButtonUp
EXTRN	?GetThisMessageMap@CWnd@@KGPBUAFX_MSGMAP@@XZ:NEAR ; CWnd::GetThisMessageMap
EXTRN	?GetThisClass@CButton@@SGPAUCRuntimeClass@@XZ:NEAR ; CButton::GetThisClass
CONST	SEGMENT
$SG187192 DB	'CSkinButton2', 00H
CONST	ENDS
;	COMDAT ?classCSkinButton2@CSkinButton2@@2UCRuntimeClass@@B
CONST	SEGMENT
?classCSkinButton2@CSkinButton2@@2UCRuntimeClass@@B DD FLAT:$SG187192 ; CSkinButton2::classCSkinButton2
	DD	0188H
	DD	0ffffH
	DD	00H
	DD	FLAT:?GetThisClass@CButton@@SGPAUCRuntimeClass@@XZ
	DD	00H
	DD	00H
CONST	ENDS
CONST	SEGMENT
	ORG $+3
$SG187209 DB	08bH, '[SO', 00H, 00H
CONST	ENDS
;	COMDAT ?_messageEntries@CSkinButton2@@0QBUAFX_MSGMAP_ENTRY@@B
CONST	SEGMENT
?_messageEntries@CSkinButton2@@0QBUAFX_MSGMAP_ENTRY@@B DD 01H ; CSkinButton2::_messageEntries
	DD	00H
	DD	00H
	DD	00H
	DD	0dH
	DD	FLAT:?OnCreate@CSkinButton2@@QAEHPAUtagCREATESTRUCTA@@@Z
	DD	014H
	DD	00H
	DD	00H
	DD	00H
	DD	01H
	DD	FLAT:?OnEraseBkgnd@CSkinButton2@@QAEHPAVCDC@@@Z
	DD	0200H
	DD	00H
	DD	00H
	DD	00H
	DD	032H
	DD	FLAT:?OnMouseMove@CSkinButton2@@QAEXIVCPoint@@@Z
	DD	02a3H
	DD	00H
	DD	00H
	DD	00H
	DD	0eH
	DD	FLAT:?OnMouseLeave@CSkinButton2@@QAEJIJ@Z
	DD	02a1H
	DD	00H
	DD	00H
	DD	00H
	DD	0eH
	DD	FLAT:?OnMouseHover@CSkinButton2@@QAEJIJ@Z
	DD	0201H
	DD	00H
	DD	00H
	DD	00H
	DD	032H
	DD	FLAT:?OnLButtonDown@CSkinButton2@@QAEXIVCPoint@@@Z
	DD	0202H
	DD	00H
	DD	00H
	DD	00H
	DD	032H
	DD	FLAT:?OnLButtonUp@CSkinButton2@@QAEXIVCPoint@@@Z
	DD	00H
	DD	00H
	DD	00H
	DD	00H
	DD	00H
	DD	00H
CONST	ENDS
;	COMDAT ?messageMap@CSkinButton2@@1UAFX_MSGMAP@@B
CONST	SEGMENT
?messageMap@CSkinButton2@@1UAFX_MSGMAP@@B DD FLAT:?GetThisMessageMap@CWnd@@KGPBUAFX_MSGMAP@@XZ ; CSkinButton2::messageMap
	DD	FLAT:?_messageEntries@CSkinButton2@@0QBUAFX_MSGMAP_ENTRY@@B
CONST	ENDS
PUBLIC	?GetThisClass@CSkinButton2@@SGPAUCRuntimeClass@@XZ ; CSkinButton2::GetThisClass
EXTRN	__RTC_InitBase:NEAR
EXTRN	__RTC_Shutdown:NEAR
;	COMDAT rtc$IMZ
; File d:\boxgit\playbox\playbox\dev\prj\playbox\src\gui\commoncontrol\skinbutton2.cpp
rtc$IMZ	SEGMENT
__RTC_InitBase.rtc$IMZ DD FLAT:__RTC_InitBase
rtc$IMZ	ENDS
;	COMDAT rtc$TMZ
rtc$TMZ	SEGMENT
__RTC_Shutdown.rtc$TMZ DD FLAT:__RTC_Shutdown
; Function compile flags: /Odt /RTCsu
rtc$TMZ	ENDS
_TEXT	SEGMENT
?GetThisClass@CSkinButton2@@SGPAUCRuntimeClass@@XZ PROC NEAR ; CSkinButton2::GetThisClass

; 6    : IMPLEMENT_DYNAMIC(CSkinButton2, CButton)

  00000	55		 push	 ebp
  00001	8b ec		 mov	 ebp, esp
  00003	b8 00 00 00 00	 mov	 eax, OFFSET FLAT:?classCSkinButton2@CSkinButton2@@2UCRuntimeClass@@B ; CSkinButton2::classCSkinButton2
  00008	5d		 pop	 ebp
  00009	c3		 ret	 0
?GetThisClass@CSkinButton2@@SGPAUCRuntimeClass@@XZ ENDP	; CSkinButton2::GetThisClass
_TEXT	ENDS
PUBLIC	?GetRuntimeClass@CSkinButton2@@UBEPAUCRuntimeClass@@XZ ; CSkinButton2::GetRuntimeClass
; Function compile flags: /Odt /RTCsu
_TEXT	SEGMENT
_this$ = -4						; size = 4
?GetRuntimeClass@CSkinButton2@@UBEPAUCRuntimeClass@@XZ PROC NEAR ; CSkinButton2::GetRuntimeClass
; _this$ = ecx

; 6    : IMPLEMENT_DYNAMIC(CSkinButton2, CButton)

  00010	55		 push	 ebp
  00011	8b ec		 mov	 ebp, esp
  00013	51		 push	 ecx
  00014	c7 45 fc cc cc
	cc cc		 mov	 DWORD PTR [ebp-4], -858993460 ; ccccccccH
  0001b	89 4d fc	 mov	 DWORD PTR _this$[ebp], ecx
  0001e	b8 00 00 00 00	 mov	 eax, OFFSET FLAT:?classCSkinButton2@CSkinButton2@@2UCRuntimeClass@@B ; CSkinButton2::classCSkinButton2
  00023	8b e5		 mov	 esp, ebp
  00025	5d		 pop	 ebp
  00026	c3		 ret	 0
?GetRuntimeClass@CSkinButton2@@UBEPAUCRuntimeClass@@XZ ENDP ; CSkinButton2::GetRuntimeClass
_TEXT	ENDS
PUBLIC	??_R1A@?0A@A@CWnd@@8				; CWnd::`RTTI Base Class Descriptor at (0,-1,0,0)'
PUBLIC	??_R4CSkinButton2@@6B@				; CSkinButton2::`RTTI Complete Object Locator'
PUBLIC	??_R0?AVCWnd@@@8				; CWnd `RTTI Type Descriptor'
PUBLIC	??_R0?AVCSkinButton2@@@8			; CSkinButton2 `RTTI Type Descriptor'
PUBLIC	??_R1A@?0A@A@CCmdTarget@@8			; CCmdTarget::`RTTI Base Class Descriptor at (0,-1,0,0)'
PUBLIC	??_R0?AVCCmdTarget@@@8				; CCmdTarget `RTTI Type Descriptor'
PUBLIC	??_R3CSkinButton2@@8				; CSkinButton2::`RTTI Class Hierarchy Descriptor'
PUBLIC	??_R1A@?0A@A@CObject@@8				; CObject::`RTTI Base Class Descriptor at (0,-1,0,0)'
PUBLIC	??_R2CSkinButton2@@8				; CSkinButton2::`RTTI Base Class Array'
PUBLIC	??_R1A@?0A@A@CSkinButton2@@8			; CSkinButton2::`RTTI Base Class Descriptor at (0,-1,0,0)'
PUBLIC	??_R0?AVCObject@@@8				; CObject `RTTI Type Descriptor'
PUBLIC	??_R1A@?0A@A@CButton@@8				; CButton::`RTTI Base Class Descriptor at (0,-1,0,0)'
PUBLIC	??_R0?AVCButton@@@8				; CButton `RTTI Type Descriptor'
PUBLIC	??3GdiplusBase@Gdiplus@@SAXPAX@Z		; Gdiplus::GdiplusBase::operator delete
PUBLIC	??2GdiplusBase@Gdiplus@@SAPAXI@Z		; Gdiplus::GdiplusBase::operator new
PUBLIC	??0FontFamily@Gdiplus@@QAE@PB_WPBVFontCollection@1@@Z ; Gdiplus::FontFamily::FontFamily
PUBLIC	??1FontFamily@Gdiplus@@QAE@XZ			; Gdiplus::FontFamily::~FontFamily
PUBLIC	??0CSkinButton2@@QAE@XZ				; CSkinButton2::CSkinButton2
PUBLIC	??0Font@Gdiplus@@QAE@PBVFontFamily@1@MHW4Unit@1@@Z ; Gdiplus::Font::Font
PUBLIC	?GetMessageMap@CSkinButton2@@MBEPBUAFX_MSGMAP@@XZ ; CSkinButton2::GetMessageMap
PUBLIC	??0Color@Gdiplus@@QAE@XZ			; Gdiplus::Color::Color
PUBLIC	?DrawItem@CSkinButton2@@UAEXPAUtagDRAWITEMSTRUCT@@@Z ; CSkinButton2::DrawItem
PUBLIC	?PreSubclassWindow@CSkinButton2@@MAEXXZ		; CSkinButton2::PreSubclassWindow
PUBLIC	?PreTranslateMessage@CSkinButton2@@UAEHPAUtagMSG@@@Z ; CSkinButton2::PreTranslateMessage
PUBLIC	?SetValue@Color@Gdiplus@@QAEXK@Z		; Gdiplus::Color::SetValue
PUBLIC	??_7CSkinButton2@@6B@				; CSkinButton2::`vftable'
PUBLIC	??_GCSkinButton2@@UAEPAXI@Z			; CSkinButton2::`scalar deleting destructor'
PUBLIC	?MakeARGB@Color@Gdiplus@@SAKEEEE@Z		; Gdiplus::Color::MakeARGB
EXTRN	?GetInterfaceMap@CWnd@@MBEPBUAFX_INTERFACEMAP@@XZ:NEAR ; CWnd::GetInterfaceMap
EXTRN	?EnsureStdObj@CWnd@@UAEJXZ:NEAR			; CWnd::EnsureStdObj
EXTRN	?get_accParent@CWnd@@UAEJPAPAUIDispatch@@@Z:NEAR ; CWnd::get_accParent
EXTRN	?OnCmdMsg@CCmdTarget@@UAEHIHPAXPAUAFX_CMDHANDLERINFO@@@Z:NEAR ; CCmdTarget::OnCmdMsg
EXTRN	?get_accChildCount@CWnd@@UAEJPAJ@Z:NEAR		; CWnd::get_accChildCount
EXTRN	?IsInvokeAllowed@CCmdTarget@@UAEHJ@Z:NEAR	; CCmdTarget::IsInvokeAllowed
EXTRN	?get_accChild@CWnd@@UAEJUtagVARIANT@@PAPAUIDispatch@@@Z:NEAR ; CWnd::get_accChild
EXTRN	?get_accName@CWnd@@UAEJUtagVARIANT@@PAPA_W@Z:NEAR ; CWnd::get_accName
EXTRN	?get_accValue@CWnd@@UAEJUtagVARIANT@@PAPA_W@Z:NEAR ; CWnd::get_accValue
EXTRN	?GetDispatchIID@CCmdTarget@@UAEHPAU_GUID@@@Z:NEAR ; CCmdTarget::GetDispatchIID
EXTRN	?GetTypeInfoCount@CCmdTarget@@UAEIXZ:NEAR	; CCmdTarget::GetTypeInfoCount
EXTRN	?GetTypeLibCache@CCmdTarget@@UAEPAVCTypeLibCache@@XZ:NEAR ; CCmdTarget::GetTypeLibCache
EXTRN	?get_accDescription@CWnd@@UAEJUtagVARIANT@@PAPA_W@Z:NEAR ; CWnd::get_accDescription
EXTRN	?GetTypeLib@CCmdTarget@@UAEJKPAPAUITypeLib@@@Z:NEAR ; CCmdTarget::GetTypeLib
EXTRN	?get_accRole@CWnd@@UAEJUtagVARIANT@@PAU2@@Z:NEAR ; CWnd::get_accRole
EXTRN	?get_accState@CWnd@@UAEJUtagVARIANT@@PAU2@@Z:NEAR ; CWnd::get_accState
EXTRN	?get_accHelp@CWnd@@UAEJUtagVARIANT@@PAPA_W@Z:NEAR ; CWnd::get_accHelp
EXTRN	?get_accHelpTopic@CWnd@@UAEJPAPA_WUtagVARIANT@@PAJ@Z:NEAR ; CWnd::get_accHelpTopic
EXTRN	?get_accKeyboardShortcut@CWnd@@UAEJUtagVARIANT@@PAPA_W@Z:NEAR ; CWnd::get_accKeyboardShortcut
EXTRN	?get_accFocus@CWnd@@UAEJPAUtagVARIANT@@@Z:NEAR	; CWnd::get_accFocus
EXTRN	?get_accSelection@CWnd@@UAEJPAUtagVARIANT@@@Z:NEAR ; CWnd::get_accSelection
EXTRN	?get_accDefaultAction@CWnd@@UAEJUtagVARIANT@@PAPA_W@Z:NEAR ; CWnd::get_accDefaultAction
EXTRN	?GetCommandMap@CCmdTarget@@MBEPBUAFX_OLECMDMAP@@XZ:NEAR ; CCmdTarget::GetCommandMap
EXTRN	?accSelect@CWnd@@UAEJJUtagVARIANT@@@Z:NEAR	; CWnd::accSelect
EXTRN	?accLocation@CWnd@@UAEJPAJ000UtagVARIANT@@@Z:NEAR ; CWnd::accLocation
EXTRN	?GetDispatchMap@CCmdTarget@@MBEPBUAFX_DISPMAP@@XZ:NEAR ; CCmdTarget::GetDispatchMap
EXTRN	?accNavigate@CWnd@@UAEJJUtagVARIANT@@PAU2@@Z:NEAR ; CWnd::accNavigate
EXTRN	?accHitTest@CWnd@@UAEJJJPAUtagVARIANT@@@Z:NEAR	; CWnd::accHitTest
EXTRN	?GetConnectionMap@CCmdTarget@@MBEPBUAFX_CONNECTIONMAP@@XZ:NEAR ; CCmdTarget::GetConnectionMap
EXTRN	?accDoDefaultAction@CWnd@@UAEJUtagVARIANT@@@Z:NEAR ; CWnd::accDoDefaultAction
EXTRN	?put_accName@CWnd@@UAEJUtagVARIANT@@PA_W@Z:NEAR	; CWnd::put_accName
EXTRN	?put_accValue@CWnd@@UAEJUtagVARIANT@@PA_W@Z:NEAR ; CWnd::put_accValue
EXTRN	?SetProxy@CWnd@@UAEJPAUIAccessibleProxy@@@Z:NEAR ; CWnd::SetProxy
EXTRN	?CreateAccessibleProxy@CWnd@@UAEJIJPAJ@Z:NEAR	; CWnd::CreateAccessibleProxy
EXTRN	?GetEventSinkMap@CCmdTarget@@MBEPBUAFX_EVENTSINKMAP@@XZ:NEAR ; CCmdTarget::GetEventSinkMap
EXTRN	?OnCreateAggregates@CCmdTarget@@UAEHXZ:NEAR	; CCmdTarget::OnCreateAggregates
EXTRN	?OnCommand@CWnd@@MAEHIJ@Z:NEAR			; CWnd::OnCommand
EXTRN	?GetInterfaceHook@CCmdTarget@@UAEPAUIUnknown@@PBX@Z:NEAR ; CCmdTarget::GetInterfaceHook
EXTRN	?OnNotify@CWnd@@MAEHIJPAJ@Z:NEAR		; CWnd::OnNotify
EXTRN	?GetExtraConnectionPoints@CCmdTarget@@MAEHPAVCPtrArray@@@Z:NEAR ; CCmdTarget::GetExtraConnectionPoints
EXTRN	?GetConnectionHook@CCmdTarget@@MAEPAUIConnectionPoint@@ABU_GUID@@@Z:NEAR ; CCmdTarget::GetConnectionHook
EXTRN	??1CDC@@UAE@XZ:NEAR				; CDC::~CDC
EXTRN	??0CRect@@QAE@XZ:NEAR				; CRect::CRect
EXTRN	?Create@CWnd@@UAEHPBD0KABUtagRECT@@PAV1@IPAUCCreateContext@@@Z:NEAR ; CWnd::Create
EXTRN	?CreateEx@CWnd@@UAEHKPBD0KHHHHPAUHWND__@@PAUHMENU__@@PAX@Z:NEAR ; CWnd::CreateEx
EXTRN	?CreateEx@CWnd@@UAEHKPBD0KABUtagRECT@@PAV1@IPAX@Z:NEAR ; CWnd::CreateEx
EXTRN	?Serialize@CObject@@UAEXAAVCArchive@@@Z:NEAR	; CObject::Serialize
EXTRN	?DestroyWindow@CWnd@@UAEHXZ:NEAR		; CWnd::DestroyWindow
EXTRN	?PreCreateWindow@CWnd@@UAEHAAUtagCREATESTRUCTA@@@Z:NEAR ; CWnd::PreCreateWindow
EXTRN	?CalcWindowRect@CWnd@@UAEXPAUtagRECT@@I@Z:NEAR	; CWnd::CalcWindowRect
EXTRN	?GetSuperWndProcAddr@CWnd@@MAEPAP6GJPAUHWND__@@IIJ@ZXZ:NEAR ; CWnd::GetSuperWndProcAddr
EXTRN	?DoDataExchange@CWnd@@MAEXPAVCDataExchange@@@Z:NEAR ; CWnd::DoDataExchange
EXTRN	?BeginModalState@CWnd@@UAEXXZ:NEAR		; CWnd::BeginModalState
EXTRN	?EndModalState@CWnd@@UAEXXZ:NEAR		; CWnd::EndModalState
EXTRN	?OnAmbientProperty@CWnd@@UAEHPAVCOleControlSite@@JPAUtagVARIANT@@@Z:NEAR ; CWnd::OnAmbientProperty
EXTRN	?WindowProc@CWnd@@MAEJIIJ@Z:NEAR		; CWnd::WindowProc
EXTRN	?OnWndMsg@CWnd@@MAEHIIJPAJ@Z:NEAR		; CWnd::OnWndMsg
EXTRN	?DefWindowProcA@CWnd@@MAEJIIJ@Z:NEAR		; CWnd::DefWindowProcA
EXTRN	?PostNcDestroy@CWnd@@MAEXXZ:NEAR		; CWnd::PostNcDestroy
EXTRN	?CheckAutoCenter@CWnd@@UAEHXZ:NEAR		; CWnd::CheckAutoCenter
EXTRN	?AssertValid@CWnd@@UBEXXZ:NEAR			; CWnd::AssertValid
EXTRN	?Dump@CWnd@@UBEXAAVCDumpContext@@@Z:NEAR	; CWnd::Dump
EXTRN	?IsFrameWnd@CWnd@@UBEHXZ:NEAR			; CWnd::IsFrameWnd
EXTRN	?OnFinalRelease@CWnd@@UAEXXZ:NEAR		; CWnd::OnFinalRelease
EXTRN	??0CDC@@QAE@XZ:NEAR				; CDC::CDC
EXTRN	?CreateControlContainer@CWnd@@MAEHPAPAVCOleControlContainer@@@Z:NEAR ; CWnd::CreateControlContainer
EXTRN	?CreateControlSite@CWnd@@MAEHPAVCOleControlContainer@@PAPAVCOleControlSite@@IABU_GUID@@@Z:NEAR ; CWnd::CreateControlSite
EXTRN	?SetOccDialogInfo@CWnd@@MAEHPAU_AFX_OCC_DIALOG_INFO@@@Z:NEAR ; CWnd::SetOccDialogInfo
EXTRN	_memcpy:NEAR
EXTRN	__imp_??0?$CStringT@DV?$StrTraitMFC_DLL@DV?$ChTraitsCRT@D@ATL@@@@@ATL@@QAE@XZ:NEAR
EXTRN	?OnToolHitTest@CWnd@@UBEHVCPoint@@PAUtagTOOLINFOA@@@Z:NEAR ; CWnd::OnToolHitTest
EXTRN	??_ECSkinButton2@@UAEPAXI@Z:NEAR		; CSkinButton2::`vector deleting destructor'
EXTRN	__imp_??1?$CStringT@DV?$StrTraitMFC_DLL@DV?$ChTraitsCRT@D@ATL@@@@@ATL@@QAE@XZ:NEAR
EXTRN	__RTC_CheckEsp:NEAR
EXTRN	__except_list:DWORD
EXTRN	@_RTC_CheckStackVars@8:NEAR
EXTRN	__fltused:NEAR
EXTRN	___CxxFrameHandler:NEAR
EXTRN	?GetScrollBarCtrl@CWnd@@UBEPAVCScrollBar@@H@Z:NEAR ; CWnd::GetScrollBarCtrl
EXTRN	??0CButton@@QAE@XZ:NEAR				; CButton::CButton
EXTRN	?Create@CButton@@UAEHPBDKABUtagRECT@@PAVCWnd@@I@Z:NEAR ; CButton::Create
EXTRN	??1CButton@@UAE@XZ:NEAR				; CButton::~CButton
EXTRN	?OnChildNotify@CButton@@MAEHIIJPAJ@Z:NEAR	; CButton::OnChildNotify
EXTRN	?WinHelpA@CWnd@@UAEXKI@Z:NEAR			; CWnd::WinHelpA
EXTRN	?HtmlHelpA@CWnd@@UAEXKI@Z:NEAR			; CWnd::HtmlHelpA
EXTRN	??_7type_info@@6B@:QWORD			; type_info::`vftable'
EXTRN	?WinHelpInternal@CWnd@@UAEXKI@Z:NEAR		; CWnd::WinHelpInternal
EXTRN	?ContinueModal@CWnd@@UAEHXZ:NEAR		; CWnd::ContinueModal
EXTRN	?EndModalLoop@CWnd@@UAEXH@Z:NEAR		; CWnd::EndModalLoop
xdata$x	SEGMENT
$T188247 DD	0ffffffffH
	DD	FLAT:$L188227
	DD	00H
	DD	FLAT:$L188228
	DD	01H
	DD	FLAT:$L188229
	DD	02H
	DD	FLAT:$L188230
	DD	03H
	DD	FLAT:$L188231
	DD	04H
	DD	FLAT:$L188232
$T188236 DD	019930520H
	DD	06H
	DD	FLAT:$T188247
	DD	2 DUP(00H)
	DD	2 DUP(00H)
xdata$x	ENDS
;	COMDAT ??_7CSkinButton2@@6B@
CONST	SEGMENT
??_7CSkinButton2@@6B@ DD FLAT:??_R4CSkinButton2@@6B@	; CSkinButton2::`vftable'
	DD	FLAT:?GetRuntimeClass@CSkinButton2@@UBEPAUCRuntimeClass@@XZ
	DD	FLAT:??_ECSkinButton2@@UAEPAXI@Z
	DD	FLAT:?Serialize@CObject@@UAEXAAVCArchive@@@Z
	DD	FLAT:?AssertValid@CWnd@@UBEXXZ
	DD	FLAT:?Dump@CWnd@@UBEXAAVCDumpContext@@@Z
	DD	FLAT:?OnCmdMsg@CCmdTarget@@UAEHIHPAXPAUAFX_CMDHANDLERINFO@@@Z
	DD	FLAT:?OnFinalRelease@CWnd@@UAEXXZ
	DD	FLAT:?IsInvokeAllowed@CCmdTarget@@UAEHJ@Z
	DD	FLAT:?GetDispatchIID@CCmdTarget@@UAEHPAU_GUID@@@Z
	DD	FLAT:?GetTypeInfoCount@CCmdTarget@@UAEIXZ
	DD	FLAT:?GetTypeLibCache@CCmdTarget@@UAEPAVCTypeLibCache@@XZ
	DD	FLAT:?GetTypeLib@CCmdTarget@@UAEJKPAPAUITypeLib@@@Z
	DD	FLAT:?GetMessageMap@CSkinButton2@@MBEPBUAFX_MSGMAP@@XZ
	DD	FLAT:?GetCommandMap@CCmdTarget@@MBEPBUAFX_OLECMDMAP@@XZ
	DD	FLAT:?GetDispatchMap@CCmdTarget@@MBEPBUAFX_DISPMAP@@XZ
	DD	FLAT:?GetConnectionMap@CCmdTarget@@MBEPBUAFX_CONNECTIONMAP@@XZ
	DD	FLAT:?GetInterfaceMap@CWnd@@MBEPBUAFX_INTERFACEMAP@@XZ
	DD	FLAT:?GetEventSinkMap@CCmdTarget@@MBEPBUAFX_EVENTSINKMAP@@XZ
	DD	FLAT:?OnCreateAggregates@CCmdTarget@@UAEHXZ
	DD	FLAT:?GetInterfaceHook@CCmdTarget@@UAEPAUIUnknown@@PBX@Z
	DD	FLAT:?GetExtraConnectionPoints@CCmdTarget@@MAEHPAVCPtrArray@@@Z
	DD	FLAT:?GetConnectionHook@CCmdTarget@@MAEPAUIConnectionPoint@@ABU_GUID@@@Z
	DD	FLAT:?PreSubclassWindow@CSkinButton2@@MAEXXZ
	DD	FLAT:?Create@CWnd@@UAEHPBD0KABUtagRECT@@PAV1@IPAUCCreateContext@@@Z
	DD	FLAT:?CreateEx@CWnd@@UAEHKPBD0KABUtagRECT@@PAV1@IPAX@Z
	DD	FLAT:?CreateEx@CWnd@@UAEHKPBD0KHHHHPAUHWND__@@PAUHMENU__@@PAX@Z
	DD	FLAT:?DestroyWindow@CWnd@@UAEHXZ
	DD	FLAT:?PreCreateWindow@CWnd@@UAEHAAUtagCREATESTRUCTA@@@Z
	DD	FLAT:?CalcWindowRect@CWnd@@UAEXPAUtagRECT@@I@Z
	DD	FLAT:?OnToolHitTest@CWnd@@UBEHVCPoint@@PAUtagTOOLINFOA@@@Z
	DD	FLAT:?GetScrollBarCtrl@CWnd@@UBEPAVCScrollBar@@H@Z
	DD	FLAT:?WinHelpA@CWnd@@UAEXKI@Z
	DD	FLAT:?HtmlHelpA@CWnd@@UAEXKI@Z
	DD	FLAT:?WinHelpInternal@CWnd@@UAEXKI@Z
	DD	FLAT:?ContinueModal@CWnd@@UAEHXZ
	DD	FLAT:?EndModalLoop@CWnd@@UAEXH@Z
	DD	FLAT:?EnsureStdObj@CWnd@@UAEJXZ
	DD	FLAT:?get_accParent@CWnd@@UAEJPAPAUIDispatch@@@Z
	DD	FLAT:?get_accChildCount@CWnd@@UAEJPAJ@Z
	DD	FLAT:?get_accChild@CWnd@@UAEJUtagVARIANT@@PAPAUIDispatch@@@Z
	DD	FLAT:?get_accName@CWnd@@UAEJUtagVARIANT@@PAPA_W@Z
	DD	FLAT:?get_accValue@CWnd@@UAEJUtagVARIANT@@PAPA_W@Z
	DD	FLAT:?get_accDescription@CWnd@@UAEJUtagVARIANT@@PAPA_W@Z
	DD	FLAT:?get_accRole@CWnd@@UAEJUtagVARIANT@@PAU2@@Z
	DD	FLAT:?get_accState@CWnd@@UAEJUtagVARIANT@@PAU2@@Z
	DD	FLAT:?get_accHelp@CWnd@@UAEJUtagVARIANT@@PAPA_W@Z
	DD	FLAT:?get_accHelpTopic@CWnd@@UAEJPAPA_WUtagVARIANT@@PAJ@Z
	DD	FLAT:?get_accKeyboardShortcut@CWnd@@UAEJUtagVARIANT@@PAPA_W@Z
	DD	FLAT:?get_accFocus@CWnd@@UAEJPAUtagVARIANT@@@Z
	DD	FLAT:?get_accSelection@CWnd@@UAEJPAUtagVARIANT@@@Z
	DD	FLAT:?get_accDefaultAction@CWnd@@UAEJUtagVARIANT@@PAPA_W@Z
	DD	FLAT:?accSelect@CWnd@@UAEJJUtagVARIANT@@@Z
	DD	FLAT:?accLocation@CWnd@@UAEJPAJ000UtagVARIANT@@@Z
	DD	FLAT:?accNavigate@CWnd@@UAEJJUtagVARIANT@@PAU2@@Z
	DD	FLAT:?accHitTest@CWnd@@UAEJJJPAUtagVARIANT@@@Z
	DD	FLAT:?accDoDefaultAction@CWnd@@UAEJUtagVARIANT@@@Z
	DD	FLAT:?put_accName@CWnd@@UAEJUtagVARIANT@@PA_W@Z
	DD	FLAT:?put_accValue@CWnd@@UAEJUtagVARIANT@@PA_W@Z
	DD	FLAT:?SetProxy@CWnd@@UAEJPAUIAccessibleProxy@@@Z
	DD	FLAT:?CreateAccessibleProxy@CWnd@@UAEJIJPAJ@Z
	DD	FLAT:?OnCommand@CWnd@@MAEHIJ@Z
	DD	FLAT:?OnNotify@CWnd@@MAEHIJPAJ@Z
	DD	FLAT:?GetSuperWndProcAddr@CWnd@@MAEPAP6GJPAUHWND__@@IIJ@ZXZ
	DD	FLAT:?DoDataExchange@CWnd@@MAEXPAVCDataExchange@@@Z
	DD	FLAT:?BeginModalState@CWnd@@UAEXXZ
	DD	FLAT:?EndModalState@CWnd@@UAEXXZ
	DD	FLAT:?PreTranslateMessage@CSkinButton2@@UAEHPAUtagMSG@@@Z
	DD	FLAT:?OnAmbientProperty@CWnd@@UAEHPAVCOleControlSite@@JPAUtagVARIANT@@@Z
	DD	FLAT:?WindowProc@CWnd@@MAEJIIJ@Z
	DD	FLAT:?OnWndMsg@CWnd@@MAEHIIJPAJ@Z
	DD	FLAT:?DefWindowProcA@CWnd@@MAEJIIJ@Z
	DD	FLAT:?PostNcDestroy@CWnd@@MAEXXZ
	DD	FLAT:?OnChildNotify@CButton@@MAEHIIJPAJ@Z
	DD	FLAT:?CheckAutoCenter@CWnd@@UAEHXZ
	DD	FLAT:?IsFrameWnd@CWnd@@UBEHXZ
	DD	FLAT:?CreateControlContainer@CWnd@@MAEHPAPAVCOleControlContainer@@@Z
	DD	FLAT:?CreateControlSite@CWnd@@MAEHPAVCOleControlContainer@@PAPAVCOleControlSite@@IABU_GUID@@@Z
	DD	FLAT:?SetOccDialogInfo@CWnd@@MAEHPAU_AFX_OCC_DIALOG_INFO@@@Z
	DD	FLAT:?Create@CButton@@UAEHPBDKABUtagRECT@@PAVCWnd@@I@Z
	DD	FLAT:?DrawItem@CSkinButton2@@UAEXPAUtagDRAWITEMSTRUCT@@@Z
CONST	ENDS
;	COMDAT ??_R4CSkinButton2@@6B@
rdata$r	SEGMENT
??_R4CSkinButton2@@6B@ DD 00H				; CSkinButton2::`RTTI Complete Object Locator'
	DD	00H
	DD	00H
	DD	FLAT:??_R0?AVCSkinButton2@@@8
	DD	FLAT:??_R3CSkinButton2@@8
rdata$r	ENDS
;	COMDAT ??_R0?AVCSkinButton2@@@8
_DATA	SEGMENT
??_R0?AVCSkinButton2@@@8 DD FLAT:??_7type_info@@6B@	; CSkinButton2 `RTTI Type Descriptor'
	DD	00H
	DB	'.?AVCSkinButton2@@', 00H
_DATA	ENDS
;	COMDAT ??_R3CSkinButton2@@8
rdata$r	SEGMENT
??_R3CSkinButton2@@8 DD 00H				; CSkinButton2::`RTTI Class Hierarchy Descriptor'
	DD	00H
	DD	05H
	DD	FLAT:??_R2CSkinButton2@@8
rdata$r	ENDS
;	COMDAT ??_R2CSkinButton2@@8
rdata$r	SEGMENT
??_R2CSkinButton2@@8 DD FLAT:??_R1A@?0A@A@CSkinButton2@@8 ; CSkinButton2::`RTTI Base Class Array'
	DD	FLAT:??_R1A@?0A@A@CButton@@8
	DD	FLAT:??_R1A@?0A@A@CWnd@@8
	DD	FLAT:??_R1A@?0A@A@CCmdTarget@@8
	DD	FLAT:??_R1A@?0A@A@CObject@@8
rdata$r	ENDS
;	COMDAT ??_R1A@?0A@A@CSkinButton2@@8
rdata$r	SEGMENT
??_R1A@?0A@A@CSkinButton2@@8 DD FLAT:??_R0?AVCSkinButton2@@@8 ; CSkinButton2::`RTTI Base Class Descriptor at (0,-1,0,0)'
	DD	04H
	DD	00H
	DD	0ffffffffH
	DD	00H
	DD	00H
rdata$r	ENDS
;	COMDAT ??_R1A@?0A@A@CButton@@8
rdata$r	SEGMENT
??_R1A@?0A@A@CButton@@8 DD FLAT:??_R0?AVCButton@@@8	; CButton::`RTTI Base Class Descriptor at (0,-1,0,0)'
	DD	03H
	DD	00H
	DD	0ffffffffH
	DD	00H
	DD	00H
rdata$r	ENDS
;	COMDAT ??_R0?AVCButton@@@8
_DATA	SEGMENT
??_R0?AVCButton@@@8 DD FLAT:??_7type_info@@6B@		; CButton `RTTI Type Descriptor'
	DD	00H
	DB	'.?AVCButton@@', 00H
_DATA	ENDS
;	COMDAT ??_R1A@?0A@A@CWnd@@8
rdata$r	SEGMENT
??_R1A@?0A@A@CWnd@@8 DD FLAT:??_R0?AVCWnd@@@8		; CWnd::`RTTI Base Class Descriptor at (0,-1,0,0)'
	DD	02H
	DD	00H
	DD	0ffffffffH
	DD	00H
	DD	00H
rdata$r	ENDS
;	COMDAT ??_R0?AVCWnd@@@8
_DATA	SEGMENT
??_R0?AVCWnd@@@8 DD FLAT:??_7type_info@@6B@		; CWnd `RTTI Type Descriptor'
	DD	00H
	DB	'.?AVCWnd@@', 00H
_DATA	ENDS
;	COMDAT ??_R1A@?0A@A@CCmdTarget@@8
rdata$r	SEGMENT
??_R1A@?0A@A@CCmdTarget@@8 DD FLAT:??_R0?AVCCmdTarget@@@8 ; CCmdTarget::`RTTI Base Class Descriptor at (0,-1,0,0)'
	DD	01H
	DD	00H
	DD	0ffffffffH
	DD	00H
	DD	00H
rdata$r	ENDS
;	COMDAT ??_R0?AVCCmdTarget@@@8
_DATA	SEGMENT
??_R0?AVCCmdTarget@@@8 DD FLAT:??_7type_info@@6B@	; CCmdTarget `RTTI Type Descriptor'
	DD	00H
	DB	'.?AVCCmdTarget@@', 00H
_DATA	ENDS
;	COMDAT ??_R1A@?0A@A@CObject@@8
rdata$r	SEGMENT
??_R1A@?0A@A@CObject@@8 DD FLAT:??_R0?AVCObject@@@8	; CObject::`RTTI Base Class Descriptor at (0,-1,0,0)'
	DD	00H
	DD	00H
	DD	0ffffffffH
	DD	00H
	DD	00H
rdata$r	ENDS
;	COMDAT ??_R0?AVCObject@@@8
_DATA	SEGMENT
??_R0?AVCObject@@@8 DD FLAT:??_7type_info@@6B@		; CObject `RTTI Type Descriptor'
	DD	00H
	DB	'.?AVCObject@@', 00H
; Function compile flags: /Odt /RTCsu
_DATA	ENDS
_TEXT	SEGMENT
tv305 = -268						; size = 4
tv392 = -264						; size = 8
$T188224 = -256						; size = 4
$T188223 = -252						; size = 4
_fontFamily$ = -244					; size = 8
_ma2$ = -228						; size = 100
_ma$ = -120						; size = 100
_this$ = -16						; size = 4
__$EHRec$ = -12						; size = 12
??0CSkinButton2@@QAE@XZ PROC NEAR			; CSkinButton2::CSkinButton2
; _this$ = ecx

; 19   : {

  00030	55		 push	 ebp
  00031	8b ec		 mov	 ebp, esp
  00033	6a ff		 push	 -1
  00035	68 00 00 00 00	 push	 __ehhandler$??0CSkinButton2@@QAE@XZ
  0003a	64 a1 00 00 00
	00		 mov	 eax, DWORD PTR fs:__except_list
  00040	50		 push	 eax
  00041	64 89 25 00 00
	00 00		 mov	 DWORD PTR fs:__except_list, esp
  00048	81 ec 00 01 00
	00		 sub	 esp, 256		; 00000100H
  0004e	56		 push	 esi
  0004f	57		 push	 edi
  00050	51		 push	 ecx
  00051	8d bd f4 fe ff
	ff		 lea	 edi, DWORD PTR [ebp-268]
  00057	b9 40 00 00 00	 mov	 ecx, 64			; 00000040H
  0005c	b8 cc cc cc cc	 mov	 eax, -858993460		; ccccccccH
  00061	f3 ab		 rep stosd
  00063	59		 pop	 ecx
  00064	89 4d f0	 mov	 DWORD PTR _this$[ebp], ecx
  00067	8b 4d f0	 mov	 ecx, DWORD PTR _this$[ebp]
  0006a	e8 00 00 00 00	 call	 ??0CButton@@QAE@XZ	; CButton::CButton
  0006f	c7 45 fc 00 00
	00 00		 mov	 DWORD PTR __$EHRec$[ebp+8], 0
  00076	8b 45 f0	 mov	 eax, DWORD PTR _this$[ebp]
  00079	c7 00 00 00 00
	00		 mov	 DWORD PTR [eax], OFFSET FLAT:??_7CSkinButton2@@6B@
  0007f	8b 4d f0	 mov	 ecx, DWORD PTR _this$[ebp]
  00082	c7 41 54 00 00
	00 00		 mov	 DWORD PTR [ecx+84], 0
  00089	8b 55 f0	 mov	 edx, DWORD PTR _this$[ebp]
  0008c	c7 42 5c 01 00
	00 00		 mov	 DWORD PTR [edx+92], 1
  00093	8b 4d f0	 mov	 ecx, DWORD PTR _this$[ebp]
  00096	83 c1 60	 add	 ecx, 96			; 00000060H
  00099	e8 00 00 00 00	 call	 ??0CRect@@QAE@XZ	; CRect::CRect
  0009e	8b 45 f0	 mov	 eax, DWORD PTR _this$[ebp]
  000a1	c7 40 70 00 00
	00 00		 mov	 DWORD PTR [eax+112], 0
  000a8	8b 4d f0	 mov	 ecx, DWORD PTR _this$[ebp]
  000ab	c7 41 74 00 00
	00 00		 mov	 DWORD PTR [ecx+116], 0
  000b2	8b 4d f0	 mov	 ecx, DWORD PTR _this$[ebp]
  000b5	83 c1 78	 add	 ecx, 120		; 00000078H
  000b8	8b f4		 mov	 esi, esp
  000ba	ff 15 00 00 00
	00		 call	 DWORD PTR __imp_??0?$CStringT@DV?$StrTraitMFC_DLL@DV?$ChTraitsCRT@D@ATL@@@@@ATL@@QAE@XZ
  000c0	3b f4		 cmp	 esi, esp
  000c2	e8 00 00 00 00	 call	 __RTC_CheckEsp
  000c7	c6 45 fc 01	 mov	 BYTE PTR __$EHRec$[ebp+8], 1
  000cb	8b 55 f0	 mov	 edx, DWORD PTR _this$[ebp]
  000ce	c7 42 7c 00 00
	00 00		 mov	 DWORD PTR [edx+124], 0
  000d5	8b 45 f0	 mov	 eax, DWORD PTR _this$[ebp]
  000d8	c7 80 80 00 00
	00 00 00 00 00	 mov	 DWORD PTR [eax+128], 0
  000e2	8b 4d f0	 mov	 ecx, DWORD PTR _this$[ebp]
  000e5	c7 81 84 00 00
	00 00 00 00 00	 mov	 DWORD PTR [ecx+132], 0
  000ef	8b 55 f0	 mov	 edx, DWORD PTR _this$[ebp]
  000f2	c7 82 88 00 00
	00 00 00 00 00	 mov	 DWORD PTR [edx+136], 0
  000fc	8b 4d f0	 mov	 ecx, DWORD PTR _this$[ebp]
  000ff	81 c1 8c 00 00
	00		 add	 ecx, 140		; 0000008cH
  00105	e8 00 00 00 00	 call	 ??0CDC@@QAE@XZ		; CDC::CDC
  0010a	c6 45 fc 02	 mov	 BYTE PTR __$EHRec$[ebp+8], 2
  0010e	8b 4d f0	 mov	 ecx, DWORD PTR _this$[ebp]
  00111	81 c1 64 01 00
	00		 add	 ecx, 356		; 00000164H
  00117	8b f4		 mov	 esi, esp
  00119	ff 15 00 00 00
	00		 call	 DWORD PTR __imp_??0?$CStringT@DV?$StrTraitMFC_DLL@DV?$ChTraitsCRT@D@ATL@@@@@ATL@@QAE@XZ
  0011f	3b f4		 cmp	 esi, esp
  00121	e8 00 00 00 00	 call	 __RTC_CheckEsp
  00126	c6 45 fc 03	 mov	 BYTE PTR __$EHRec$[ebp+8], 3
  0012a	8b 45 f0	 mov	 eax, DWORD PTR _this$[ebp]
  0012d	c7 80 68 01 00
	00 0c 00 00 00	 mov	 DWORD PTR [eax+360], 12	; 0000000cH
  00137	8b 4d f0	 mov	 ecx, DWORD PTR _this$[ebp]
  0013a	81 c1 6c 01 00
	00		 add	 ecx, 364		; 0000016cH
  00140	e8 00 00 00 00	 call	 ??0Color@Gdiplus@@QAE@XZ ; Gdiplus::Color::Color
  00145	8b 4d f0	 mov	 ecx, DWORD PTR _this$[ebp]
  00148	81 c1 70 01 00
	00		 add	 ecx, 368		; 00000170H
  0014e	e8 00 00 00 00	 call	 ??0Color@Gdiplus@@QAE@XZ ; Gdiplus::Color::Color
  00153	8b 4d f0	 mov	 ecx, DWORD PTR _this$[ebp]
  00156	81 c1 74 01 00
	00		 add	 ecx, 372		; 00000174H
  0015c	e8 00 00 00 00	 call	 ??0Color@Gdiplus@@QAE@XZ ; Gdiplus::Color::Color
  00161	8b 4d f0	 mov	 ecx, DWORD PTR _this$[ebp]
  00164	81 c1 78 01 00
	00		 add	 ecx, 376		; 00000178H
  0016a	e8 00 00 00 00	 call	 ??0Color@Gdiplus@@QAE@XZ ; Gdiplus::Color::Color
  0016f	8b 4d f0	 mov	 ecx, DWORD PTR _this$[ebp]
  00172	81 c1 7c 01 00
	00		 add	 ecx, 380		; 0000017cH
  00178	e8 00 00 00 00	 call	 ??0Color@Gdiplus@@QAE@XZ ; Gdiplus::Color::Color
  0017d	8b 4d f0	 mov	 ecx, DWORD PTR _this$[ebp]
  00180	c7 81 84 01 00
	00 00 00 00 00	 mov	 DWORD PTR [ecx+388], 0

; 20   : 	ColorMatrix  ma = {
; 21   : 		1.00f, 0.00f, 0.00f, 0.00f, 0.00f,

  0018a	c7 45 88 00 00
	80 3f		 mov	 DWORD PTR _ma$[ebp], 1065353216 ; 3f800000H
  00191	c7 45 8c 00 00
	00 00		 mov	 DWORD PTR _ma$[ebp+4], 0
  00198	c7 45 90 00 00
	00 00		 mov	 DWORD PTR _ma$[ebp+8], 0
  0019f	c7 45 94 00 00
	00 00		 mov	 DWORD PTR _ma$[ebp+12], 0
  001a6	c7 45 98 00 00
	00 00		 mov	 DWORD PTR _ma$[ebp+16], 0

; 22   : 
; 23   : 			0.00f, 1.00f, 0.00f, 0.00f, 0.00f,

  001ad	c7 45 9c 00 00
	00 00		 mov	 DWORD PTR _ma$[ebp+20], 0
  001b4	c7 45 a0 00 00
	80 3f		 mov	 DWORD PTR _ma$[ebp+24], 1065353216 ; 3f800000H
  001bb	c7 45 a4 00 00
	00 00		 mov	 DWORD PTR _ma$[ebp+28], 0
  001c2	c7 45 a8 00 00
	00 00		 mov	 DWORD PTR _ma$[ebp+32], 0
  001c9	c7 45 ac 00 00
	00 00		 mov	 DWORD PTR _ma$[ebp+36], 0

; 24   : 
; 25   : 			0.00f, 0.00f, 1.00f, 0.00f, 0.00f,

  001d0	c7 45 b0 00 00
	00 00		 mov	 DWORD PTR _ma$[ebp+40], 0
  001d7	c7 45 b4 00 00
	00 00		 mov	 DWORD PTR _ma$[ebp+44], 0
  001de	c7 45 b8 00 00
	80 3f		 mov	 DWORD PTR _ma$[ebp+48], 1065353216 ; 3f800000H
  001e5	c7 45 bc 00 00
	00 00		 mov	 DWORD PTR _ma$[ebp+52], 0
  001ec	c7 45 c0 00 00
	00 00		 mov	 DWORD PTR _ma$[ebp+56], 0

; 26   : 
; 27   : 			0.00f, 0.00f, 0.00f, 1.00f, 0.00f,

  001f3	c7 45 c4 00 00
	00 00		 mov	 DWORD PTR _ma$[ebp+60], 0
  001fa	c7 45 c8 00 00
	00 00		 mov	 DWORD PTR _ma$[ebp+64], 0
  00201	c7 45 cc 00 00
	00 00		 mov	 DWORD PTR _ma$[ebp+68], 0
  00208	c7 45 d0 00 00
	80 3f		 mov	 DWORD PTR _ma$[ebp+72], 1065353216 ; 3f800000H
  0020f	c7 45 d4 00 00
	00 00		 mov	 DWORD PTR _ma$[ebp+76], 0

; 28   : 
; 29   : 			0.15f, 0.15f, 0.15f, 0.00f, 1.00f	};

  00216	c7 45 d8 9a 99
	19 3e		 mov	 DWORD PTR _ma$[ebp+80], 1041865114 ; 3e19999aH
  0021d	c7 45 dc 9a 99
	19 3e		 mov	 DWORD PTR _ma$[ebp+84], 1041865114 ; 3e19999aH
  00224	c7 45 e0 9a 99
	19 3e		 mov	 DWORD PTR _ma$[ebp+88], 1041865114 ; 3e19999aH
  0022b	c7 45 e4 00 00
	00 00		 mov	 DWORD PTR _ma$[ebp+92], 0
  00232	c7 45 e8 00 00
	80 3f		 mov	 DWORD PTR _ma$[ebp+96], 1065353216 ; 3f800000H

; 30   : 	memcpy( &m_LightMat, &ma,  sizeof( ColorMatrix ) );

  00239	6a 64		 push	 100			; 00000064H
  0023b	8d 55 88	 lea	 edx, DWORD PTR _ma$[ebp]
  0023e	52		 push	 edx
  0023f	8b 45 f0	 mov	 eax, DWORD PTR _this$[ebp]
  00242	05 9c 00 00 00	 add	 eax, 156		; 0000009cH
  00247	50		 push	 eax
  00248	e8 00 00 00 00	 call	 _memcpy
  0024d	83 c4 0c	 add	 esp, 12			; 0000000cH

; 31   : 
; 32   : 	ColorMatrix ma2 = {
; 33   : 			0.40f, 0.40f, 0.40f, 0.00f, 0.00f,

  00250	c7 85 1c ff ff
	ff cd cc cc 3e	 mov	 DWORD PTR _ma2$[ebp], 1053609165 ; 3ecccccdH
  0025a	c7 85 20 ff ff
	ff cd cc cc 3e	 mov	 DWORD PTR _ma2$[ebp+4], 1053609165 ; 3ecccccdH
  00264	c7 85 24 ff ff
	ff cd cc cc 3e	 mov	 DWORD PTR _ma2$[ebp+8], 1053609165 ; 3ecccccdH
  0026e	c7 85 28 ff ff
	ff 00 00 00 00	 mov	 DWORD PTR _ma2$[ebp+12], 0
  00278	c7 85 2c ff ff
	ff 00 00 00 00	 mov	 DWORD PTR _ma2$[ebp+16], 0

; 34   : 
; 35   : 				0.50f, 0.50f, 0.50f, 0.00f, 0.00f,

  00282	c7 85 30 ff ff
	ff 00 00 00 3f	 mov	 DWORD PTR _ma2$[ebp+20], 1056964608 ; 3f000000H
  0028c	c7 85 34 ff ff
	ff 00 00 00 3f	 mov	 DWORD PTR _ma2$[ebp+24], 1056964608 ; 3f000000H
  00296	c7 85 38 ff ff
	ff 00 00 00 3f	 mov	 DWORD PTR _ma2$[ebp+28], 1056964608 ; 3f000000H
  002a0	c7 85 3c ff ff
	ff 00 00 00 00	 mov	 DWORD PTR _ma2$[ebp+32], 0
  002aa	c7 85 40 ff ff
	ff 00 00 00 00	 mov	 DWORD PTR _ma2$[ebp+36], 0

; 36   : 
; 37   : 				0.10f, 0.10f, 0.10f, 0.00f, 0.00f,

  002b4	c7 85 44 ff ff
	ff cd cc cc 3d	 mov	 DWORD PTR _ma2$[ebp+40], 1036831949 ; 3dcccccdH
  002be	c7 85 48 ff ff
	ff cd cc cc 3d	 mov	 DWORD PTR _ma2$[ebp+44], 1036831949 ; 3dcccccdH
  002c8	c7 85 4c ff ff
	ff cd cc cc 3d	 mov	 DWORD PTR _ma2$[ebp+48], 1036831949 ; 3dcccccdH
  002d2	c7 85 50 ff ff
	ff 00 00 00 00	 mov	 DWORD PTR _ma2$[ebp+52], 0
  002dc	c7 85 54 ff ff
	ff 00 00 00 00	 mov	 DWORD PTR _ma2$[ebp+56], 0

; 38   : 
; 39   : 				0.00f, 0.00f, 0.00f, 1.00f, 0.00f,

  002e6	c7 85 58 ff ff
	ff 00 00 00 00	 mov	 DWORD PTR _ma2$[ebp+60], 0
  002f0	c7 85 5c ff ff
	ff 00 00 00 00	 mov	 DWORD PTR _ma2$[ebp+64], 0
  002fa	c7 85 60 ff ff
	ff 00 00 00 00	 mov	 DWORD PTR _ma2$[ebp+68], 0
  00304	c7 85 64 ff ff
	ff 00 00 80 3f	 mov	 DWORD PTR _ma2$[ebp+72], 1065353216 ; 3f800000H
  0030e	c7 85 68 ff ff
	ff 00 00 00 00	 mov	 DWORD PTR _ma2$[ebp+76], 0

; 40   : 
; 41   : 				0.00f, 0.00f, 0.00f, 0.00f, 1.00f	};

  00318	c7 85 6c ff ff
	ff 00 00 00 00	 mov	 DWORD PTR _ma2$[ebp+80], 0
  00322	c7 85 70 ff ff
	ff 00 00 00 00	 mov	 DWORD PTR _ma2$[ebp+84], 0
  0032c	c7 85 74 ff ff
	ff 00 00 00 00	 mov	 DWORD PTR _ma2$[ebp+88], 0
  00336	c7 85 78 ff ff
	ff 00 00 00 00	 mov	 DWORD PTR _ma2$[ebp+92], 0
  00340	c7 85 7c ff ff
	ff 00 00 80 3f	 mov	 DWORD PTR _ma2$[ebp+96], 1065353216 ; 3f800000H

; 42   : 
; 43   : 	::memcpy( &m_GrayMat, &ma2, sizeof( ColorMatrix ) );

  0034a	6a 64		 push	 100			; 00000064H
  0034c	8d 8d 1c ff ff
	ff		 lea	 ecx, DWORD PTR _ma2$[ebp]
  00352	51		 push	 ecx
  00353	8b 55 f0	 mov	 edx, DWORD PTR _this$[ebp]
  00356	81 c2 00 01 00
	00		 add	 edx, 256		; 00000100H
  0035c	52		 push	 edx
  0035d	e8 00 00 00 00	 call	 _memcpy
  00362	83 c4 0c	 add	 esp, 12			; 0000000cH

; 44   : 
; 45   : 	m_colFrame1.SetValue( Gdiplus::Color::MakeARGB(50,0,0,0) );

  00365	6a 00		 push	 0
  00367	6a 00		 push	 0
  00369	6a 00		 push	 0
  0036b	6a 32		 push	 50			; 00000032H
  0036d	e8 00 00 00 00	 call	 ?MakeARGB@Color@Gdiplus@@SAKEEEE@Z ; Gdiplus::Color::MakeARGB
  00372	83 c4 10	 add	 esp, 16			; 00000010H
  00375	50		 push	 eax
  00376	8b 4d f0	 mov	 ecx, DWORD PTR _this$[ebp]
  00379	81 c1 70 01 00
	00		 add	 ecx, 368		; 00000170H
  0037f	e8 00 00 00 00	 call	 ?SetValue@Color@Gdiplus@@QAEXK@Z ; Gdiplus::Color::SetValue

; 46   : 	m_colFrame2.SetValue( Gdiplus::Color::MakeARGB(200,255,255,255)  );

  00384	68 ff 00 00 00	 push	 255			; 000000ffH
  00389	68 ff 00 00 00	 push	 255			; 000000ffH
  0038e	68 ff 00 00 00	 push	 255			; 000000ffH
  00393	68 c8 00 00 00	 push	 200			; 000000c8H
  00398	e8 00 00 00 00	 call	 ?MakeARGB@Color@Gdiplus@@SAKEEEE@Z ; Gdiplus::Color::MakeARGB
  0039d	83 c4 10	 add	 esp, 16			; 00000010H
  003a0	50		 push	 eax
  003a1	8b 4d f0	 mov	 ecx, DWORD PTR _this$[ebp]
  003a4	81 c1 74 01 00
	00		 add	 ecx, 372		; 00000174H
  003aa	e8 00 00 00 00	 call	 ?SetValue@Color@Gdiplus@@QAEXK@Z ; Gdiplus::Color::SetValue

; 47   : 	m_colBrush2.SetValue( Gdiplus::Color::MakeARGB(80,255,255,255)  );

  003af	68 ff 00 00 00	 push	 255			; 000000ffH
  003b4	68 ff 00 00 00	 push	 255			; 000000ffH
  003b9	68 ff 00 00 00	 push	 255			; 000000ffH
  003be	6a 50		 push	 80			; 00000050H
  003c0	e8 00 00 00 00	 call	 ?MakeARGB@Color@Gdiplus@@SAKEEEE@Z ; Gdiplus::Color::MakeARGB
  003c5	83 c4 10	 add	 esp, 16			; 00000010H
  003c8	50		 push	 eax
  003c9	8b 4d f0	 mov	 ecx, DWORD PTR _this$[ebp]
  003cc	81 c1 7c 01 00
	00		 add	 ecx, 380		; 0000017cH
  003d2	e8 00 00 00 00	 call	 ?SetValue@Color@Gdiplus@@QAEXK@Z ; Gdiplus::Color::SetValue

; 48   : 	m_colBrush1.SetValue( Gdiplus::Color::MakeARGB(100,255,255,255)  );

  003d7	68 ff 00 00 00	 push	 255			; 000000ffH
  003dc	68 ff 00 00 00	 push	 255			; 000000ffH
  003e1	68 ff 00 00 00	 push	 255			; 000000ffH
  003e6	6a 64		 push	 100			; 00000064H
  003e8	e8 00 00 00 00	 call	 ?MakeARGB@Color@Gdiplus@@SAKEEEE@Z ; Gdiplus::Color::MakeARGB
  003ed	83 c4 10	 add	 esp, 16			; 00000010H
  003f0	50		 push	 eax
  003f1	8b 4d f0	 mov	 ecx, DWORD PTR _this$[ebp]
  003f4	81 c1 78 01 00
	00		 add	 ecx, 376		; 00000178H
  003fa	e8 00 00 00 00	 call	 ?SetValue@Color@Gdiplus@@QAEXK@Z ; Gdiplus::Color::SetValue

; 49   : 	m_colBK.SetValue( Gdiplus::Color::MakeARGB(255,255,255,255) );

  003ff	68 ff 00 00 00	 push	 255			; 000000ffH
  00404	68 ff 00 00 00	 push	 255			; 000000ffH
  00409	68 ff 00 00 00	 push	 255			; 000000ffH
  0040e	68 ff 00 00 00	 push	 255			; 000000ffH
  00413	e8 00 00 00 00	 call	 ?MakeARGB@Color@Gdiplus@@SAKEEEE@Z ; Gdiplus::Color::MakeARGB
  00418	83 c4 10	 add	 esp, 16			; 00000010H
  0041b	50		 push	 eax
  0041c	8b 4d f0	 mov	 ecx, DWORD PTR _this$[ebp]
  0041f	81 c1 6c 01 00
	00		 add	 ecx, 364		; 0000016cH
  00425	e8 00 00 00 00	 call	 ?SetValue@Color@Gdiplus@@QAEXK@Z ; Gdiplus::Color::SetValue

; 50   : 	FontFamily fontFamily(L"");

  0042a	6a 00		 push	 0
  0042c	68 00 00 00 00	 push	 OFFSET FLAT:$SG187209
  00431	8d 8d 0c ff ff
	ff		 lea	 ecx, DWORD PTR _fontFamily$[ebp]
  00437	e8 00 00 00 00	 call	 ??0FontFamily@Gdiplus@@QAE@PB_WPBVFontCollection@1@@Z ; Gdiplus::FontFamily::FontFamily
  0043c	c6 45 fc 04	 mov	 BYTE PTR __$EHRec$[ebp+8], 4

; 51   : 	mp_font = new Gdiplus::Font( &fontFamily,m_nWidth, Gdiplus::FontStyleRegular, Gdiplus::UnitPixel);

  00440	6a 08		 push	 8
  00442	e8 00 00 00 00	 call	 ??2GdiplusBase@Gdiplus@@SAPAXI@Z ; Gdiplus::GdiplusBase::operator new
  00447	83 c4 04	 add	 esp, 4
  0044a	89 85 00 ff ff
	ff		 mov	 DWORD PTR $T188224[ebp], eax
  00450	c6 45 fc 05	 mov	 BYTE PTR __$EHRec$[ebp+8], 5
  00454	83 bd 00 ff ff
	ff 00		 cmp	 DWORD PTR $T188224[ebp], 0
  0045b	74 41		 je	 SHORT $L188225
  0045d	6a 02		 push	 2
  0045f	6a 00		 push	 0
  00461	8b 45 f0	 mov	 eax, DWORD PTR _this$[ebp]
  00464	8b 88 68 01 00
	00		 mov	 ecx, DWORD PTR [eax+360]
  0046a	89 8d f8 fe ff
	ff		 mov	 DWORD PTR tv392[ebp], ecx
  00470	c7 85 fc fe ff
	ff 00 00 00 00	 mov	 DWORD PTR tv392[ebp+4], 0
  0047a	df ad f8 fe ff
	ff		 fild	 QWORD PTR tv392[ebp]
  00480	51		 push	 ecx
  00481	d9 1c 24	 fstp	 DWORD PTR [esp]
  00484	8d 95 0c ff ff
	ff		 lea	 edx, DWORD PTR _fontFamily$[ebp]
  0048a	52		 push	 edx
  0048b	8b 8d 00 ff ff
	ff		 mov	 ecx, DWORD PTR $T188224[ebp]
  00491	e8 00 00 00 00	 call	 ??0Font@Gdiplus@@QAE@PBVFontFamily@1@MHW4Unit@1@@Z ; Gdiplus::Font::Font
  00496	89 85 f4 fe ff
	ff		 mov	 DWORD PTR tv305[ebp], eax
  0049c	eb 0a		 jmp	 SHORT $L188226
$L188225:
  0049e	c7 85 f4 fe ff
	ff 00 00 00 00	 mov	 DWORD PTR tv305[ebp], 0
$L188226:
  004a8	8b 85 f4 fe ff
	ff		 mov	 eax, DWORD PTR tv305[ebp]
  004ae	89 85 04 ff ff
	ff		 mov	 DWORD PTR $T188223[ebp], eax
  004b4	c6 45 fc 04	 mov	 BYTE PTR __$EHRec$[ebp+8], 4
  004b8	8b 4d f0	 mov	 ecx, DWORD PTR _this$[ebp]
  004bb	8b 95 04 ff ff
	ff		 mov	 edx, DWORD PTR $T188223[ebp]
  004c1	89 91 80 01 00
	00		 mov	 DWORD PTR [ecx+384], edx

; 52   : 	m_pToolTip = NULL;

  004c7	8b 45 f0	 mov	 eax, DWORD PTR _this$[ebp]
  004ca	c7 40 74 00 00
	00 00		 mov	 DWORD PTR [eax+116], 0

; 53   : 	m_enmuDrawType = TOP_ARC;

  004d1	8b 4d f0	 mov	 ecx, DWORD PTR _this$[ebp]
  004d4	c7 41 54 01 00
	00 00		 mov	 DWORD PTR [ecx+84], 1

; 54   : }

  004db	c6 45 fc 03	 mov	 BYTE PTR __$EHRec$[ebp+8], 3
  004df	8d 8d 0c ff ff
	ff		 lea	 ecx, DWORD PTR _fontFamily$[ebp]
  004e5	e8 00 00 00 00	 call	 ??1FontFamily@Gdiplus@@QAE@XZ ; Gdiplus::FontFamily::~FontFamily
  004ea	c7 45 fc ff ff
	ff ff		 mov	 DWORD PTR __$EHRec$[ebp+8], -1
  004f1	8b 45 f0	 mov	 eax, DWORD PTR _this$[ebp]
  004f4	52		 push	 edx
  004f5	8b cd		 mov	 ecx, ebp
  004f7	50		 push	 eax
  004f8	8d 15 00 00 00
	00		 lea	 edx, DWORD PTR $L188244
  004fe	e8 00 00 00 00	 call	 @_RTC_CheckStackVars@8
  00503	58		 pop	 eax
  00504	5a		 pop	 edx
  00505	8b 4d f4	 mov	 ecx, DWORD PTR __$EHRec$[ebp]
  00508	64 89 0d 00 00
	00 00		 mov	 DWORD PTR fs:__except_list, ecx
  0050f	5f		 pop	 edi
  00510	5e		 pop	 esi
  00511	81 c4 0c 01 00
	00		 add	 esp, 268		; 0000010cH
  00517	3b ec		 cmp	 ebp, esp
  00519	e8 00 00 00 00	 call	 __RTC_CheckEsp
  0051e	8b e5		 mov	 esp, ebp
  00520	5d		 pop	 ebp
  00521	c3		 ret	 0
$L188244:
  00522	03 00 00 00	 DD	 3
  00526	00 00 00 00	 DD	 $L188243
$L188243:
  0052a	88 ff ff ff	 DD	 -120			; ffffff88H
  0052e	64 00 00 00	 DD	 100			; 00000064H
  00532	00 00 00 00	 DD	 $L188238
  00536	1c ff ff ff	 DD	 -228			; ffffff1cH
  0053a	64 00 00 00	 DD	 100			; 00000064H
  0053e	00 00 00 00	 DD	 $L188239
  00542	0c ff ff ff	 DD	 -244			; ffffff0cH
  00546	08 00 00 00	 DD	 8
  0054a	00 00 00 00	 DD	 $L188240
$L188240:
  0054e	66		 DB	 102			; 00000066H
  0054f	6f		 DB	 111			; 0000006fH
  00550	6e		 DB	 110			; 0000006eH
  00551	74		 DB	 116			; 00000074H
  00552	46		 DB	 70			; 00000046H
  00553	61		 DB	 97			; 00000061H
  00554	6d		 DB	 109			; 0000006dH
  00555	69		 DB	 105			; 00000069H
  00556	6c		 DB	 108			; 0000006cH
  00557	79		 DB	 121			; 00000079H
  00558	00		 DB	 0
$L188239:
  00559	6d		 DB	 109			; 0000006dH
  0055a	61		 DB	 97			; 00000061H
  0055b	32		 DB	 50			; 00000032H
  0055c	00		 DB	 0
$L188238:
  0055d	6d		 DB	 109			; 0000006dH
  0055e	61		 DB	 97			; 00000061H
  0055f	00		 DB	 0
_TEXT	ENDS
text$x	SEGMENT
$L188227:
  00000	8b 4d f0	 mov	 ecx, DWORD PTR _this$[ebp]
  00003	e9 00 00 00 00	 jmp	 ??1CButton@@UAE@XZ	; CButton::~CButton
$L188228:
  00008	8b 4d f0	 mov	 ecx, DWORD PTR _this$[ebp]
  0000b	83 c1 78	 add	 ecx, 120		; 00000078H
  0000e	8b f4		 mov	 esi, esp
  00010	ff 15 00 00 00
	00		 call	 DWORD PTR __imp_??1?$CStringT@DV?$StrTraitMFC_DLL@DV?$ChTraitsCRT@D@ATL@@@@@ATL@@QAE@XZ
  00016	3b f4		 cmp	 esi, esp
  00018	e9 00 00 00 00	 jmp	 __RTC_CheckEsp
$L188229:
  0001d	8b 4d f0	 mov	 ecx, DWORD PTR _this$[ebp]
  00020	81 c1 8c 00 00
	00		 add	 ecx, 140		; 0000008cH
  00026	e9 00 00 00 00	 jmp	 ??1CDC@@UAE@XZ		; CDC::~CDC
$L188230:
  0002b	8b 4d f0	 mov	 ecx, DWORD PTR _this$[ebp]
  0002e	81 c1 64 01 00
	00		 add	 ecx, 356		; 00000164H
  00034	8b f4		 mov	 esi, esp
  00036	ff 15 00 00 00
	00		 call	 DWORD PTR __imp_??1?$CStringT@DV?$StrTraitMFC_DLL@DV?$ChTraitsCRT@D@ATL@@@@@ATL@@QAE@XZ
  0003c	3b f4		 cmp	 esi, esp
  0003e	e9 00 00 00 00	 jmp	 __RTC_CheckEsp
$L188231:
  00043	8d 8d 0c ff ff
	ff		 lea	 ecx, DWORD PTR _fontFamily$[ebp]
  00049	e9 00 00 00 00	 jmp	 ??1FontFamily@Gdiplus@@QAE@XZ ; Gdiplus::FontFamily::~FontFamily
$L188232:
  0004e	8b 85 00 ff ff
	ff		 mov	 eax, DWORD PTR $T188224[ebp]
  00054	50		 push	 eax
  00055	e8 00 00 00 00	 call	 ??3GdiplusBase@Gdiplus@@SAXPAX@Z ; Gdiplus::GdiplusBase::operator delete
  0005a	59		 pop	 ecx
  0005b	c3		 ret	 0
__ehhandler$??0CSkinButton2@@QAE@XZ:
  0005c	b8 00 00 00 00	 mov	 eax, OFFSET FLAT:$T188236
  00061	e9 00 00 00 00	 jmp	 ___CxxFrameHandler
text$x	ENDS
??0CSkinButton2@@QAE@XZ ENDP				; CSkinButton2::CSkinButton2
PUBLIC	??1CSkinButton2@@UAE@XZ				; CSkinButton2::~CSkinButton2
EXTRN	??3CObject@@SGXPAX@Z:NEAR			; CObject::operator delete
; Function compile flags: /Odt /RTCsu
;	COMDAT ??_GCSkinButton2@@UAEPAXI@Z
_TEXT	SEGMENT
_this$ = -4						; size = 4
___flags$ = 8						; size = 4
??_GCSkinButton2@@UAEPAXI@Z PROC NEAR			; CSkinButton2::`scalar deleting destructor', COMDAT
; _this$ = ecx
  00000	55		 push	 ebp
  00001	8b ec		 mov	 ebp, esp
  00003	51		 push	 ecx
  00004	c7 45 fc cc cc
	cc cc		 mov	 DWORD PTR [ebp-4], -858993460 ; ccccccccH
  0000b	89 4d fc	 mov	 DWORD PTR _this$[ebp], ecx
  0000e	8b 4d fc	 mov	 ecx, DWORD PTR _this$[ebp]
  00011	e8 00 00 00 00	 call	 ??1CSkinButton2@@UAE@XZ	; CSkinButton2::~CSkinButton2
  00016	8b 45 08	 mov	 eax, DWORD PTR ___flags$[ebp]
  00019	83 e0 01	 and	 eax, 1
  0001c	74 09		 je	 SHORT $L187217
  0001e	8b 4d fc	 mov	 ecx, DWORD PTR _this$[ebp]
  00021	51		 push	 ecx
  00022	e8 00 00 00 00	 call	 ??3CObject@@SGXPAX@Z	; CObject::operator delete
$L187217:
  00027	8b 45 fc	 mov	 eax, DWORD PTR _this$[ebp]
  0002a	83 c4 04	 add	 esp, 4
  0002d	3b ec		 cmp	 ebp, esp
  0002f	e8 00 00 00 00	 call	 __RTC_CheckEsp
  00034	8b e5		 mov	 esp, ebp
  00036	5d		 pop	 ebp
  00037	c2 04 00	 ret	 4
??_GCSkinButton2@@UAEPAXI@Z ENDP			; CSkinButton2::`scalar deleting destructor'
_TEXT	ENDS
PUBLIC	??_GFont@Gdiplus@@QAEPAXI@Z			; Gdiplus::Font::`scalar deleting destructor'
xdata$x	SEGMENT
$T188270 DD	0ffffffffH
	DD	FLAT:$L188263
	DD	00H
	DD	FLAT:$L188264
	DD	01H
	DD	FLAT:$L188265
	DD	02H
	DD	FLAT:$L188266
$T188268 DD	019930520H
	DD	04H
	DD	FLAT:$T188270
	DD	2 DUP(00H)
	DD	2 DUP(00H)
; Function compile flags: /Odt /RTCsu
xdata$x	ENDS
_TEXT	SEGMENT
tv134 = -52						; size = 4
tv128 = -48						; size = 4
tv86 = -44						; size = 4
$T188260 = -40						; size = 4
$T188259 = -36						; size = 4
$T188256 = -32						; size = 4
$T188255 = -28						; size = 4
$T188252 = -24						; size = 4
$T188251 = -20						; size = 4
_this$ = -16						; size = 4
__$EHRec$ = -12						; size = 12
??1CSkinButton2@@UAE@XZ PROC NEAR			; CSkinButton2::~CSkinButton2
; _this$ = ecx

; 57   : {

  00560	55		 push	 ebp
  00561	8b ec		 mov	 ebp, esp
  00563	6a ff		 push	 -1
  00565	68 00 00 00 00	 push	 __ehhandler$??1CSkinButton2@@UAE@XZ
  0056a	64 a1 00 00 00
	00		 mov	 eax, DWORD PTR fs:__except_list
  00570	50		 push	 eax
  00571	64 89 25 00 00
	00 00		 mov	 DWORD PTR fs:__except_list, esp
  00578	83 ec 28	 sub	 esp, 40			; 00000028H
  0057b	56		 push	 esi
  0057c	57		 push	 edi
  0057d	51		 push	 ecx
  0057e	8d 7d cc	 lea	 edi, DWORD PTR [ebp-52]
  00581	b9 0a 00 00 00	 mov	 ecx, 10			; 0000000aH
  00586	b8 cc cc cc cc	 mov	 eax, -858993460		; ccccccccH
  0058b	f3 ab		 rep stosd
  0058d	59		 pop	 ecx
  0058e	89 4d f0	 mov	 DWORD PTR _this$[ebp], ecx
  00591	8b 45 f0	 mov	 eax, DWORD PTR _this$[ebp]
  00594	c7 00 00 00 00
	00		 mov	 DWORD PTR [eax], OFFSET FLAT:??_7CSkinButton2@@6B@
  0059a	c7 45 fc 03 00
	00 00		 mov	 DWORD PTR __$EHRec$[ebp+8], 3

; 58   : 	if(m_pToolTip)	delete m_pToolTip;

  005a1	8b 4d f0	 mov	 ecx, DWORD PTR _this$[ebp]
  005a4	83 79 74 00	 cmp	 DWORD PTR [ecx+116], 0
  005a8	74 37		 je	 SHORT $L187221
  005aa	8b 55 f0	 mov	 edx, DWORD PTR _this$[ebp]
  005ad	8b 42 74	 mov	 eax, DWORD PTR [edx+116]
  005b0	89 45 e8	 mov	 DWORD PTR $T188252[ebp], eax
  005b3	8b 4d e8	 mov	 ecx, DWORD PTR $T188252[ebp]
  005b6	89 4d ec	 mov	 DWORD PTR $T188251[ebp], ecx
  005b9	83 7d ec 00	 cmp	 DWORD PTR $T188251[ebp], 0
  005bd	74 1b		 je	 SHORT $L188253
  005bf	8b f4		 mov	 esi, esp
  005c1	6a 01		 push	 1
  005c3	8b 55 ec	 mov	 edx, DWORD PTR $T188251[ebp]
  005c6	8b 02		 mov	 eax, DWORD PTR [edx]
  005c8	8b 4d ec	 mov	 ecx, DWORD PTR $T188251[ebp]
  005cb	ff 50 04	 call	 DWORD PTR [eax+4]
  005ce	3b f4		 cmp	 esi, esp
  005d0	e8 00 00 00 00	 call	 __RTC_CheckEsp
  005d5	89 45 d4	 mov	 DWORD PTR tv86[ebp], eax
  005d8	eb 07		 jmp	 SHORT $L187221
$L188253:
  005da	c7 45 d4 00 00
	00 00		 mov	 DWORD PTR tv86[ebp], 0
$L187221:

; 59   : 	if(m_pPngImage) delete m_pPngImage;

  005e1	8b 4d f0	 mov	 ecx, DWORD PTR _this$[ebp]
  005e4	83 79 7c 00	 cmp	 DWORD PTR [ecx+124], 0
  005e8	74 36		 je	 SHORT $L187224
  005ea	8b 55 f0	 mov	 edx, DWORD PTR _this$[ebp]
  005ed	8b 42 7c	 mov	 eax, DWORD PTR [edx+124]
  005f0	89 45 e0	 mov	 DWORD PTR $T188256[ebp], eax
  005f3	8b 4d e0	 mov	 ecx, DWORD PTR $T188256[ebp]
  005f6	89 4d e4	 mov	 DWORD PTR $T188255[ebp], ecx
  005f9	83 7d e4 00	 cmp	 DWORD PTR $T188255[ebp], 0
  005fd	74 1a		 je	 SHORT $L188257
  005ff	8b f4		 mov	 esi, esp
  00601	6a 01		 push	 1
  00603	8b 55 e4	 mov	 edx, DWORD PTR $T188255[ebp]
  00606	8b 02		 mov	 eax, DWORD PTR [edx]
  00608	8b 4d e4	 mov	 ecx, DWORD PTR $T188255[ebp]
  0060b	ff 10		 call	 DWORD PTR [eax]
  0060d	3b f4		 cmp	 esi, esp
  0060f	e8 00 00 00 00	 call	 __RTC_CheckEsp
  00614	89 45 d0	 mov	 DWORD PTR tv128[ebp], eax
  00617	eb 07		 jmp	 SHORT $L187224
$L188257:
  00619	c7 45 d0 00 00
	00 00		 mov	 DWORD PTR tv128[ebp], 0
$L187224:

; 60   : 	delete mp_font;

  00620	8b 4d f0	 mov	 ecx, DWORD PTR _this$[ebp]
  00623	8b 91 80 01 00
	00		 mov	 edx, DWORD PTR [ecx+384]
  00629	89 55 d8	 mov	 DWORD PTR $T188260[ebp], edx
  0062c	8b 45 d8	 mov	 eax, DWORD PTR $T188260[ebp]
  0062f	89 45 dc	 mov	 DWORD PTR $T188259[ebp], eax
  00632	83 7d dc 00	 cmp	 DWORD PTR $T188259[ebp], 0
  00636	74 0f		 je	 SHORT $L188261
  00638	6a 01		 push	 1
  0063a	8b 4d dc	 mov	 ecx, DWORD PTR $T188259[ebp]
  0063d	e8 00 00 00 00	 call	 ??_GFont@Gdiplus@@QAEPAXI@Z
  00642	89 45 cc	 mov	 DWORD PTR tv134[ebp], eax
  00645	eb 07		 jmp	 SHORT $L187220
$L188261:
  00647	c7 45 cc 00 00
	00 00		 mov	 DWORD PTR tv134[ebp], 0
$L187220:

; 61   : }

  0064e	c6 45 fc 02	 mov	 BYTE PTR __$EHRec$[ebp+8], 2
  00652	8b 4d f0	 mov	 ecx, DWORD PTR _this$[ebp]
  00655	81 c1 64 01 00
	00		 add	 ecx, 356		; 00000164H
  0065b	8b f4		 mov	 esi, esp
  0065d	ff 15 00 00 00
	00		 call	 DWORD PTR __imp_??1?$CStringT@DV?$StrTraitMFC_DLL@DV?$ChTraitsCRT@D@ATL@@@@@ATL@@QAE@XZ
  00663	3b f4		 cmp	 esi, esp
  00665	e8 00 00 00 00	 call	 __RTC_CheckEsp
  0066a	c6 45 fc 01	 mov	 BYTE PTR __$EHRec$[ebp+8], 1
  0066e	8b 4d f0	 mov	 ecx, DWORD PTR _this$[ebp]
  00671	81 c1 8c 00 00
	00		 add	 ecx, 140		; 0000008cH
  00677	e8 00 00 00 00	 call	 ??1CDC@@UAE@XZ		; CDC::~CDC
  0067c	c6 45 fc 00	 mov	 BYTE PTR __$EHRec$[ebp+8], 0
  00680	8b 4d f0	 mov	 ecx, DWORD PTR _this$[ebp]
  00683	83 c1 78	 add	 ecx, 120		; 00000078H
  00686	8b f4		 mov	 esi, esp
  00688	ff 15 00 00 00
	00		 call	 DWORD PTR __imp_??1?$CStringT@DV?$StrTraitMFC_DLL@DV?$ChTraitsCRT@D@ATL@@@@@ATL@@QAE@XZ
  0068e	3b f4		 cmp	 esi, esp
  00690	e8 00 00 00 00	 call	 __RTC_CheckEsp
  00695	c7 45 fc ff ff
	ff ff		 mov	 DWORD PTR __$EHRec$[ebp+8], -1
  0069c	8b 4d f0	 mov	 ecx, DWORD PTR _this$[ebp]
  0069f	e8 00 00 00 00	 call	 ??1CButton@@UAE@XZ	; CButton::~CButton
  006a4	8b 4d f4	 mov	 ecx, DWORD PTR __$EHRec$[ebp]
  006a7	64 89 0d 00 00
	00 00		 mov	 DWORD PTR fs:__except_list, ecx
  006ae	5f		 pop	 edi
  006af	5e		 pop	 esi
  006b0	83 c4 34	 add	 esp, 52			; 00000034H
  006b3	3b ec		 cmp	 ebp, esp
  006b5	e8 00 00 00 00	 call	 __RTC_CheckEsp
  006ba	8b e5		 mov	 esp, ebp
  006bc	5d		 pop	 ebp
  006bd	c3		 ret	 0
_TEXT	ENDS
text$x	SEGMENT
$L188263:
  00066	8b 4d f0	 mov	 ecx, DWORD PTR _this$[ebp]
  00069	e9 00 00 00 00	 jmp	 ??1CButton@@UAE@XZ	; CButton::~CButton
$L188264:
  0006e	8b 4d f0	 mov	 ecx, DWORD PTR _this$[ebp]
  00071	83 c1 78	 add	 ecx, 120		; 00000078H
  00074	8b f4		 mov	 esi, esp
  00076	ff 15 00 00 00
	00		 call	 DWORD PTR __imp_??1?$CStringT@DV?$StrTraitMFC_DLL@DV?$ChTraitsCRT@D@ATL@@@@@ATL@@QAE@XZ
  0007c	3b f4		 cmp	 esi, esp
  0007e	e9 00 00 00 00	 jmp	 __RTC_CheckEsp
$L188265:
  00083	8b 4d f0	 mov	 ecx, DWORD PTR _this$[ebp]
  00086	81 c1 8c 00 00
	00		 add	 ecx, 140		; 0000008cH
  0008c	e9 00 00 00 00	 jmp	 ??1CDC@@UAE@XZ		; CDC::~CDC
$L188266:
  00091	8b 4d f0	 mov	 ecx, DWORD PTR _this$[ebp]
  00094	81 c1 64 01 00
	00		 add	 ecx, 356		; 00000164H
  0009a	8b f4		 mov	 esi, esp
  0009c	ff 15 00 00 00
	00		 call	 DWORD PTR __imp_??1?$CStringT@DV?$StrTraitMFC_DLL@DV?$ChTraitsCRT@D@ATL@@@@@ATL@@QAE@XZ
  000a2	3b f4		 cmp	 esi, esp
  000a4	e9 00 00 00 00	 jmp	 __RTC_CheckEsp
__ehhandler$??1CSkinButton2@@UAE@XZ:
  000a9	b8 00 00 00 00	 mov	 eax, OFFSET FLAT:$T188268
  000ae	e9 00 00 00 00	 jmp	 ___CxxFrameHandler
text$x	ENDS
??1CSkinButton2@@UAE@XZ ENDP				; CSkinButton2::~CSkinButton2
PUBLIC	??1Font@Gdiplus@@QAE@XZ				; Gdiplus::Font::~Font
; Function compile flags: /Odt /RTCsu
;	COMDAT ??_GFont@Gdiplus@@QAEPAXI@Z
_TEXT	SEGMENT
_this$ = -4						; size = 4
___flags$ = 8						; size = 4
??_GFont@Gdiplus@@QAEPAXI@Z PROC NEAR			; Gdiplus::Font::`scalar deleting destructor', COMDAT
; _this$ = ecx
  00000	55		 push	 ebp
  00001	8b ec		 mov	 ebp, esp
  00003	51		 push	 ecx
  00004	c7 45 fc cc cc
	cc cc		 mov	 DWORD PTR [ebp-4], -858993460 ; ccccccccH
  0000b	89 4d fc	 mov	 DWORD PTR _this$[ebp], ecx
  0000e	8b 4d fc	 mov	 ecx, DWORD PTR _this$[ebp]
  00011	e8 00 00 00 00	 call	 ??1Font@Gdiplus@@QAE@XZ	; Gdiplus::Font::~Font
  00016	8b 45 08	 mov	 eax, DWORD PTR ___flags$[ebp]
  00019	83 e0 01	 and	 eax, 1
  0001c	74 0c		 je	 SHORT $L187232
  0001e	8b 4d fc	 mov	 ecx, DWORD PTR _this$[ebp]
  00021	51		 push	 ecx
  00022	e8 00 00 00 00	 call	 ??3GdiplusBase@Gdiplus@@SAXPAX@Z ; Gdiplus::GdiplusBase::operator delete
  00027	83 c4 04	 add	 esp, 4
$L187232:
  0002a	8b 45 fc	 mov	 eax, DWORD PTR _this$[ebp]
  0002d	83 c4 04	 add	 esp, 4
  00030	3b ec		 cmp	 ebp, esp
  00032	e8 00 00 00 00	 call	 __RTC_CheckEsp
  00037	8b e5		 mov	 esp, ebp
  00039	5d		 pop	 ebp
  0003a	c2 04 00	 ret	 4
??_GFont@Gdiplus@@QAEPAXI@Z ENDP			; Gdiplus::Font::`scalar deleting destructor'
_TEXT	ENDS
PUBLIC	?GetThisMessageMap@CSkinButton2@@KGPBUAFX_MSGMAP@@XZ ; CSkinButton2::GetThisMessageMap
; Function compile flags: /Odt /RTCsu
_TEXT	SEGMENT
?GetThisMessageMap@CSkinButton2@@KGPBUAFX_MSGMAP@@XZ PROC NEAR ; CSkinButton2::GetThisMessageMap

; 63   : BEGIN_MESSAGE_MAP(CSkinButton2, CButton)

  006c0	55		 push	 ebp
  006c1	8b ec		 mov	 ebp, esp
  006c3	b8 00 00 00 00	 mov	 eax, OFFSET FLAT:?messageMap@CSkinButton2@@1UAFX_MSGMAP@@B ; CSkinButton2::messageMap
  006c8	5d		 pop	 ebp
  006c9	c3		 ret	 0
?GetThisMessageMap@CSkinButton2@@KGPBUAFX_MSGMAP@@XZ ENDP ; CSkinButton2::GetThisMessageMap
; Function compile flags: /Odt /RTCsu
_this$ = -4						; size = 4
?GetMessageMap@CSkinButton2@@MBEPBUAFX_MSGMAP@@XZ PROC NEAR ; CSkinButton2::GetMessageMap
; _this$ = ecx

; 63   : BEGIN_MESSAGE_MAP(CSkinButton2, CButton)

  006d0	55		 push	 ebp
  006d1	8b ec		 mov	 ebp, esp
  006d3	51		 push	 ecx
  006d4	c7 45 fc cc cc
	cc cc		 mov	 DWORD PTR [ebp-4], -858993460 ; ccccccccH
  006db	89 4d fc	 mov	 DWORD PTR _this$[ebp], ecx
  006de	b8 00 00 00 00	 mov	 eax, OFFSET FLAT:?messageMap@CSkinButton2@@1UAFX_MSGMAP@@B ; CSkinButton2::messageMap
  006e3	8b e5		 mov	 esp, ebp
  006e5	5d		 pop	 ebp
  006e6	c3		 ret	 0
?GetMessageMap@CSkinButton2@@MBEPBUAFX_MSGMAP@@XZ ENDP	; CSkinButton2::GetMessageMap
_TEXT	ENDS
EXTRN	?OnCreate@CWnd@@IAEHPAUtagCREATESTRUCTA@@@Z:NEAR ; CWnd::OnCreate
; Function compile flags: /Odt /RTCsu
_TEXT	SEGMENT
_this$ = -4						; size = 4
_lpCreateStruct$ = 8					; size = 4
?OnCreate@CSkinButton2@@QAEHPAUtagCREATESTRUCTA@@@Z PROC NEAR ; CSkinButton2::OnCreate
; _this$ = ecx

; 77   : {

  006f0	55		 push	 ebp
  006f1	8b ec		 mov	 ebp, esp
  006f3	51		 push	 ecx
  006f4	c7 45 fc cc cc
	cc cc		 mov	 DWORD PTR [ebp-4], -858993460 ; ccccccccH
  006fb	89 4d fc	 mov	 DWORD PTR _this$[ebp], ecx

; 78   : 	if (CButton::OnCreate(lpCreateStruct) == -1)

  006fe	8b 45 08	 mov	 eax, DWORD PTR _lpCreateStruct$[ebp]
  00701	50		 push	 eax
  00702	8b 4d fc	 mov	 ecx, DWORD PTR _this$[ebp]
  00705	e8 00 00 00 00	 call	 ?OnCreate@CWnd@@IAEHPAUtagCREATESTRUCTA@@@Z ; CWnd::OnCreate
  0070a	83 f8 ff	 cmp	 eax, -1
  0070d	75 05		 jne	 SHORT $L187276

; 79   : 		return -1;

  0070f	83 c8 ff	 or	 eax, -1
  00712	eb 02		 jmp	 SHORT $L187275
$L187276:

; 80   : 
; 81   : 	return 0;

  00714	33 c0		 xor	 eax, eax
$L187275:

; 82   : }

  00716	83 c4 04	 add	 esp, 4
  00719	3b ec		 cmp	 ebp, esp
  0071b	e8 00 00 00 00	 call	 __RTC_CheckEsp
  00720	8b e5		 mov	 esp, ebp
  00722	5d		 pop	 ebp
  00723	c2 04 00	 ret	 4
?OnCreate@CSkinButton2@@QAEHPAUtagCREATESTRUCTA@@@Z ENDP ; CSkinButton2::OnCreate
_TEXT	ENDS
PUBLIC	?SetCheck@CSkinButton2@@QAEXH@Z			; CSkinButton2::SetCheck
EXTRN	?GetWindowRectInParentCoordinates@CGdiEx@@QAEHPAUHWND__@@PAUtagRECT@@@Z:NEAR ; CGdiEx::GetWindowRectInParentCoordinates
EXTRN	?InvalidateRect@CWnd@@QAEXPBUtagRECT@@H@Z:NEAR	; CWnd::InvalidateRect
EXTRN	?RedrawWindow@CWnd@@QAEHPBUtagRECT@@PAVCRgn@@I@Z:NEAR ; CWnd::RedrawWindow
EXTRN	?gGdiExOperate@@3VCGdiEx@@A:DWORD		; gGdiExOperate
EXTRN	?GetParent@CWnd@@QBEPAV1@XZ:NEAR		; CWnd::GetParent
; Function compile flags: /Odt /RTCsu
_TEXT	SEGMENT
_rect$ = -24						; size = 16
_this$ = -4						; size = 4
_nCheck$ = 8						; size = 4
?SetCheck@CSkinButton2@@QAEXH@Z PROC NEAR		; CSkinButton2::SetCheck
; _this$ = ecx

; 84   : {

  00730	55		 push	 ebp
  00731	8b ec		 mov	 ebp, esp
  00733	83 ec 1c	 sub	 esp, 28			; 0000001cH
  00736	b8 cc cc cc cc	 mov	 eax, -858993460		; ccccccccH
  0073b	89 45 e4	 mov	 DWORD PTR [ebp-28], eax
  0073e	89 45 e8	 mov	 DWORD PTR [ebp-24], eax
  00741	89 45 ec	 mov	 DWORD PTR [ebp-20], eax
  00744	89 45 f0	 mov	 DWORD PTR [ebp-16], eax
  00747	89 45 f4	 mov	 DWORD PTR [ebp-12], eax
  0074a	89 45 f8	 mov	 DWORD PTR [ebp-8], eax
  0074d	89 45 fc	 mov	 DWORD PTR [ebp-4], eax
  00750	89 4d fc	 mov	 DWORD PTR _this$[ebp], ecx

; 85   : 	m_bSelected = BOOL(nCheck);

  00753	8b 45 fc	 mov	 eax, DWORD PTR _this$[ebp]
  00756	8b 4d 08	 mov	 ecx, DWORD PTR _nCheck$[ebp]
  00759	89 88 84 00 00
	00		 mov	 DWORD PTR [eax+132], ecx

; 86   : 	if( !m_bSelected )

  0075f	8b 55 fc	 mov	 edx, DWORD PTR _this$[ebp]
  00762	83 ba 84 00 00
	00 00		 cmp	 DWORD PTR [edx+132], 0
  00769	75 0d		 jne	 SHORT $L187281

; 87   : 	{
; 88   : 		m_bMouseDown = false;

  0076b	8b 45 fc	 mov	 eax, DWORD PTR _this$[ebp]
  0076e	c7 80 88 00 00
	00 00 00 00 00	 mov	 DWORD PTR [eax+136], 0
$L187281:

; 89   : 	}
; 90   : 	this->RedrawWindow(NULL, NULL, RDW_INVALIDATE | RDW_UPDATENOW | RDW_ERASE | RDW_ALLCHILDREN);

  00778	68 85 01 00 00	 push	 389			; 00000185H
  0077d	6a 00		 push	 0
  0077f	6a 00		 push	 0
  00781	8b 4d fc	 mov	 ecx, DWORD PTR _this$[ebp]
  00784	e8 00 00 00 00	 call	 ?RedrawWindow@CWnd@@QAEHPBUtagRECT@@PAVCRgn@@I@Z ; CWnd::RedrawWindow

; 91   : 
; 92   : 	CRect rect;

  00789	8d 4d e8	 lea	 ecx, DWORD PTR _rect$[ebp]
  0078c	e8 00 00 00 00	 call	 ??0CRect@@QAE@XZ	; CRect::CRect

; 93   : 	gGdiExOperate.GetWindowRectInParentCoordinates( this->m_hWnd, &rect );

  00791	8d 4d e8	 lea	 ecx, DWORD PTR _rect$[ebp]
  00794	51		 push	 ecx
  00795	8b 55 fc	 mov	 edx, DWORD PTR _this$[ebp]
  00798	8b 42 20	 mov	 eax, DWORD PTR [edx+32]
  0079b	50		 push	 eax
  0079c	b9 00 00 00 00	 mov	 ecx, OFFSET FLAT:?gGdiExOperate@@3VCGdiEx@@A ; gGdiExOperate
  007a1	e8 00 00 00 00	 call	 ?GetWindowRectInParentCoordinates@CGdiEx@@QAEHPAUHWND__@@PAUtagRECT@@@Z ; CGdiEx::GetWindowRectInParentCoordinates

; 94   : 	this->GetParent()->InvalidateRect( &rect, TRUE );

  007a6	6a 01		 push	 1
  007a8	8d 4d e8	 lea	 ecx, DWORD PTR _rect$[ebp]
  007ab	51		 push	 ecx
  007ac	8b 4d fc	 mov	 ecx, DWORD PTR _this$[ebp]
  007af	e8 00 00 00 00	 call	 ?GetParent@CWnd@@QBEPAV1@XZ ; CWnd::GetParent
  007b4	8b c8		 mov	 ecx, eax
  007b6	e8 00 00 00 00	 call	 ?InvalidateRect@CWnd@@QAEXPBUtagRECT@@H@Z ; CWnd::InvalidateRect

; 95   : }

  007bb	52		 push	 edx
  007bc	8b cd		 mov	 ecx, ebp
  007be	50		 push	 eax
  007bf	8d 15 00 00 00
	00		 lea	 edx, DWORD PTR $L188278
  007c5	e8 00 00 00 00	 call	 @_RTC_CheckStackVars@8
  007ca	58		 pop	 eax
  007cb	5a		 pop	 edx
  007cc	83 c4 1c	 add	 esp, 28			; 0000001cH
  007cf	3b ec		 cmp	 ebp, esp
  007d1	e8 00 00 00 00	 call	 __RTC_CheckEsp
  007d6	8b e5		 mov	 esp, ebp
  007d8	5d		 pop	 ebp
  007d9	c2 04 00	 ret	 4
$L188278:
  007dc	01 00 00 00	 DD	 1
  007e0	00 00 00 00	 DD	 $L188277
$L188277:
  007e4	e8 ff ff ff	 DD	 -24			; ffffffe8H
  007e8	10 00 00 00	 DD	 16			; 00000010H
  007ec	00 00 00 00	 DD	 $L188276
$L188276:
  007f0	72		 DB	 114			; 00000072H
  007f1	65		 DB	 101			; 00000065H
  007f2	63		 DB	 99			; 00000063H
  007f3	74		 DB	 116			; 00000074H
  007f4	00		 DB	 0
?SetCheck@CSkinButton2@@QAEXH@Z ENDP			; CSkinButton2::SetCheck
_TEXT	ENDS
PUBLIC	?GetCheck@CSkinButton2@@QBEHXZ			; CSkinButton2::GetCheck
; Function compile flags: /Odt /RTCsu
_TEXT	SEGMENT
_this$ = -4						; size = 4
?GetCheck@CSkinButton2@@QBEHXZ PROC NEAR		; CSkinButton2::GetCheck
; _this$ = ecx

; 97   : {

  00800	55		 push	 ebp
  00801	8b ec		 mov	 ebp, esp
  00803	51		 push	 ecx
  00804	c7 45 fc cc cc
	cc cc		 mov	 DWORD PTR [ebp-4], -858993460 ; ccccccccH
  0080b	89 4d fc	 mov	 DWORD PTR _this$[ebp], ecx

; 98   : 	return (int)m_bSelected;

  0080e	8b 45 fc	 mov	 eax, DWORD PTR _this$[ebp]
  00811	8b 80 84 00 00
	00		 mov	 eax, DWORD PTR [eax+132]

; 99   : }

  00817	8b e5		 mov	 esp, ebp
  00819	5d		 pop	 ebp
  0081a	c3		 ret	 0
?GetCheck@CSkinButton2@@QBEHXZ ENDP			; CSkinButton2::GetCheck
_TEXT	ENDS
PUBLIC	??0CGdiPlusBitmap@@QAE@XZ			; CGdiPlusBitmap::CGdiPlusBitmap
PUBLIC	?Load@CGdiPlusBitmap@@QAE_NPB_W@Z		; CGdiPlusBitmap::Load
PUBLIC	?SetSkin@CSkinButton2@@QAEHV?$CStringT@DV?$StrTraitMFC_DLL@DV?$ChTraitsCRT@D@ATL@@@@@ATL@@H@Z ; CSkinButton2::SetSkin
EXTRN	??2@YAPAXI@Z:NEAR				; operator new
EXTRN	??3@YAXPAX@Z:NEAR				; operator delete
EXTRN	__imp__MultiByteToWideChar@24:NEAR
EXTRN	__imp_??B?$CSimpleStringT@D$00@ATL@@QBEPBDXZ:NEAR
EXTRN	?Invalidate@CWnd@@QAEXH@Z:NEAR			; CWnd::Invalidate
EXTRN	___security_cookie:DWORD
EXTRN	@__security_check_cookie@4:NEAR
xdata$x	SEGMENT
$T188302 DD	0ffffffffH
	DD	FLAT:$L188291
	DD	00H
	DD	FLAT:$L188292
$T188294 DD	019930520H
	DD	02H
	DD	FLAT:$T188302
	DD	2 DUP(00H)
	DD	2 DUP(00H)
; Function compile flags: /Odt /RTCsu
xdata$x	ENDS
_TEXT	SEGMENT
tv83 = -580						; size = 4
tv74 = -576						; size = 4
$T188290 = -572						; size = 4
$T188287 = -568						; size = 4
$T188286 = -564						; size = 4
$T188283 = -560						; size = 4
$T188282 = -556						; size = 4
_bReturn$ = -549					; size = 1
_wFile$ = -544						; size = 520
_this$ = -20						; size = 4
__$ArrayPad$ = -16					; size = 4
__$EHRec$ = -12						; size = 12
__$ReturnAddr$ = 4					; size = 4
_str$ = 8						; size = 4
_bDisable$ = 12						; size = 4
?SetSkin@CSkinButton2@@QAEHV?$CStringT@DV?$StrTraitMFC_DLL@DV?$ChTraitsCRT@D@ATL@@@@@ATL@@H@Z PROC NEAR ; CSkinButton2::SetSkin
; _this$ = ecx

; 101  : {

  00820	55		 push	 ebp
  00821	8b ec		 mov	 ebp, esp
  00823	6a ff		 push	 -1
  00825	68 00 00 00 00	 push	 __ehhandler$?SetSkin@CSkinButton2@@QAEHV?$CStringT@DV?$StrTraitMFC_DLL@DV?$ChTraitsCRT@D@ATL@@@@@ATL@@H@Z
  0082a	64 a1 00 00 00
	00		 mov	 eax, DWORD PTR fs:__except_list
  00830	50		 push	 eax
  00831	64 89 25 00 00
	00 00		 mov	 DWORD PTR fs:__except_list, esp
  00838	81 ec 38 02 00
	00		 sub	 esp, 568		; 00000238H
  0083e	56		 push	 esi
  0083f	57		 push	 edi
  00840	51		 push	 ecx
  00841	8d bd bc fd ff
	ff		 lea	 edi, DWORD PTR [ebp-580]
  00847	b9 8e 00 00 00	 mov	 ecx, 142		; 0000008eH
  0084c	b8 cc cc cc cc	 mov	 eax, -858993460		; ccccccccH
  00851	f3 ab		 rep stosd
  00853	59		 pop	 ecx
  00854	a1 00 00 00 00	 mov	 eax, DWORD PTR ___security_cookie
  00859	89 45 f0	 mov	 DWORD PTR __$ArrayPad$[ebp], eax
  0085c	89 4d ec	 mov	 DWORD PTR _this$[ebp], ecx
  0085f	c7 45 fc 00 00
	00 00		 mov	 DWORD PTR __$EHRec$[ebp+8], 0

; 102  : 	if( m_pPngImage != NULL )

  00866	8b 45 ec	 mov	 eax, DWORD PTR _this$[ebp]
  00869	83 78 7c 00	 cmp	 DWORD PTR [eax+124], 0
  0086d	74 4e		 je	 SHORT $L187292

; 103  : 		delete m_pPngImage;

  0086f	8b 4d ec	 mov	 ecx, DWORD PTR _this$[ebp]
  00872	8b 51 7c	 mov	 edx, DWORD PTR [ecx+124]
  00875	89 95 d0 fd ff
	ff		 mov	 DWORD PTR $T188283[ebp], edx
  0087b	8b 85 d0 fd ff
	ff		 mov	 eax, DWORD PTR $T188283[ebp]
  00881	89 85 d4 fd ff
	ff		 mov	 DWORD PTR $T188282[ebp], eax
  00887	83 bd d4 fd ff
	ff 00		 cmp	 DWORD PTR $T188282[ebp], 0
  0088e	74 23		 je	 SHORT $L188284
  00890	8b f4		 mov	 esi, esp
  00892	6a 01		 push	 1
  00894	8b 8d d4 fd ff
	ff		 mov	 ecx, DWORD PTR $T188282[ebp]
  0089a	8b 11		 mov	 edx, DWORD PTR [ecx]
  0089c	8b 8d d4 fd ff
	ff		 mov	 ecx, DWORD PTR $T188282[ebp]
  008a2	ff 12		 call	 DWORD PTR [edx]
  008a4	3b f4		 cmp	 esi, esp
  008a6	e8 00 00 00 00	 call	 __RTC_CheckEsp
  008ab	89 85 c0 fd ff
	ff		 mov	 DWORD PTR tv74[ebp], eax
  008b1	eb 0a		 jmp	 SHORT $L187292
$L188284:
  008b3	c7 85 c0 fd ff
	ff 00 00 00 00	 mov	 DWORD PTR tv74[ebp], 0
$L187292:

; 104  : 	m_pPngImage = new CGdiPlusBitmap;

  008bd	6a 08		 push	 8
  008bf	e8 00 00 00 00	 call	 ??2@YAPAXI@Z		; operator new
  008c4	83 c4 04	 add	 esp, 4
  008c7	89 85 c8 fd ff
	ff		 mov	 DWORD PTR $T188287[ebp], eax
  008cd	c6 45 fc 01	 mov	 BYTE PTR __$EHRec$[ebp+8], 1
  008d1	83 bd c8 fd ff
	ff 00		 cmp	 DWORD PTR $T188287[ebp], 0
  008d8	74 13		 je	 SHORT $L188288
  008da	8b 8d c8 fd ff
	ff		 mov	 ecx, DWORD PTR $T188287[ebp]
  008e0	e8 00 00 00 00	 call	 ??0CGdiPlusBitmap@@QAE@XZ ; CGdiPlusBitmap::CGdiPlusBitmap
  008e5	89 85 bc fd ff
	ff		 mov	 DWORD PTR tv83[ebp], eax
  008eb	eb 0a		 jmp	 SHORT $L188289
$L188288:
  008ed	c7 85 bc fd ff
	ff 00 00 00 00	 mov	 DWORD PTR tv83[ebp], 0
$L188289:
  008f7	8b 85 bc fd ff
	ff		 mov	 eax, DWORD PTR tv83[ebp]
  008fd	89 85 cc fd ff
	ff		 mov	 DWORD PTR $T188286[ebp], eax
  00903	c6 45 fc 00	 mov	 BYTE PTR __$EHRec$[ebp+8], 0
  00907	8b 4d ec	 mov	 ecx, DWORD PTR _this$[ebp]
  0090a	8b 95 cc fd ff
	ff		 mov	 edx, DWORD PTR $T188286[ebp]
  00910	89 51 7c	 mov	 DWORD PTR [ecx+124], edx

; 105  : 
; 106  : 	WCHAR   wFile[MAX_PATH];   
; 107  : #ifndef   UNICODE   
; 108  : 	MultiByteToWideChar(CP_ACP,   0,   LPCTSTR(str),   -1,   wFile,   MAX_PATH);   

  00913	8b f4		 mov	 esi, esp
  00915	68 04 01 00 00	 push	 260			; 00000104H
  0091a	8d 85 e0 fd ff
	ff		 lea	 eax, DWORD PTR _wFile$[ebp]
  00920	50		 push	 eax
  00921	6a ff		 push	 -1
  00923	8b fc		 mov	 edi, esp
  00925	8d 4d 08	 lea	 ecx, DWORD PTR _str$[ebp]
  00928	ff 15 00 00 00
	00		 call	 DWORD PTR __imp_??B?$CSimpleStringT@D$00@ATL@@QBEPBDXZ
  0092e	3b fc		 cmp	 edi, esp
  00930	e8 00 00 00 00	 call	 __RTC_CheckEsp
  00935	50		 push	 eax
  00936	6a 00		 push	 0
  00938	6a 00		 push	 0
  0093a	ff 15 00 00 00
	00		 call	 DWORD PTR __imp__MultiByteToWideChar@24
  00940	3b f4		 cmp	 esi, esp
  00942	e8 00 00 00 00	 call	 __RTC_CheckEsp

; 109  : #else   
; 110  : 	lstrcpy(wFile,   szFile);   
; 111  : #endif   
; 112  : 	bool bReturn = m_pPngImage->Load( wFile );

  00947	8d 8d e0 fd ff
	ff		 lea	 ecx, DWORD PTR _wFile$[ebp]
  0094d	51		 push	 ecx
  0094e	8b 55 ec	 mov	 edx, DWORD PTR _this$[ebp]
  00951	8b 4a 7c	 mov	 ecx, DWORD PTR [edx+124]
  00954	e8 00 00 00 00	 call	 ?Load@CGdiPlusBitmap@@QAE_NPB_W@Z ; CGdiPlusBitmap::Load
  00959	88 85 db fd ff
	ff		 mov	 BYTE PTR _bReturn$[ebp], al

; 113  : 	if( bReturn ) this->Invalidate();

  0095f	0f b6 85 db fd
	ff ff		 movzx	 eax, BYTE PTR _bReturn$[ebp]
  00966	85 c0		 test	 eax, eax
  00968	74 0a		 je	 SHORT $L187301
  0096a	6a 01		 push	 1
  0096c	8b 4d ec	 mov	 ecx, DWORD PTR _this$[ebp]
  0096f	e8 00 00 00 00	 call	 ?Invalidate@CWnd@@QAEXH@Z ; CWnd::Invalidate
$L187301:

; 114  : 
; 115  : 	m_bDisable = bDisable;

  00974	8b 4d ec	 mov	 ecx, DWORD PTR _this$[ebp]
  00977	8b 55 0c	 mov	 edx, DWORD PTR _bDisable$[ebp]
  0097a	89 91 84 01 00
	00		 mov	 DWORD PTR [ecx+388], edx

; 116  : 	return bReturn;

  00980	0f b6 85 db fd
	ff ff		 movzx	 eax, BYTE PTR _bReturn$[ebp]
  00987	89 85 c4 fd ff
	ff		 mov	 DWORD PTR $T188290[ebp], eax
  0098d	c7 45 fc ff ff
	ff ff		 mov	 DWORD PTR __$EHRec$[ebp+8], -1
  00994	8b f4		 mov	 esi, esp
  00996	8d 4d 08	 lea	 ecx, DWORD PTR _str$[ebp]
  00999	ff 15 00 00 00
	00		 call	 DWORD PTR __imp_??1?$CStringT@DV?$StrTraitMFC_DLL@DV?$ChTraitsCRT@D@ATL@@@@@ATL@@QAE@XZ
  0099f	3b f4		 cmp	 esi, esp
  009a1	e8 00 00 00 00	 call	 __RTC_CheckEsp
  009a6	8b 85 c4 fd ff
	ff		 mov	 eax, DWORD PTR $T188290[ebp]

; 117  : }

  009ac	52		 push	 edx
  009ad	8b cd		 mov	 ecx, ebp
  009af	50		 push	 eax
  009b0	8d 15 00 00 00
	00		 lea	 edx, DWORD PTR $L188300
  009b6	e8 00 00 00 00	 call	 @_RTC_CheckStackVars@8
  009bb	58		 pop	 eax
  009bc	5a		 pop	 edx
  009bd	8b 4d f4	 mov	 ecx, DWORD PTR __$EHRec$[ebp]
  009c0	64 89 0d 00 00
	00 00		 mov	 DWORD PTR fs:__except_list, ecx
  009c7	8b 4d f0	 mov	 ecx, DWORD PTR __$ArrayPad$[ebp]
  009ca	e8 00 00 00 00	 call	 @__security_check_cookie@4
  009cf	5f		 pop	 edi
  009d0	5e		 pop	 esi
  009d1	81 c4 44 02 00
	00		 add	 esp, 580		; 00000244H
  009d7	3b ec		 cmp	 ebp, esp
  009d9	e8 00 00 00 00	 call	 __RTC_CheckEsp
  009de	8b e5		 mov	 esp, ebp
  009e0	5d		 pop	 ebp
  009e1	c2 08 00	 ret	 8
$L188300:
  009e4	01 00 00 00	 DD	 1
  009e8	00 00 00 00	 DD	 $L188299
$L188299:
  009ec	e0 fd ff ff	 DD	 -544			; fffffde0H
  009f0	08 02 00 00	 DD	 520			; 00000208H
  009f4	00 00 00 00	 DD	 $L188295
$L188295:
  009f8	77		 DB	 119			; 00000077H
  009f9	46		 DB	 70			; 00000046H
  009fa	69		 DB	 105			; 00000069H
  009fb	6c		 DB	 108			; 0000006cH
  009fc	65		 DB	 101			; 00000065H
  009fd	00		 DB	 0
_TEXT	ENDS
text$x	SEGMENT
$L188291:
  000b3	8b f4		 mov	 esi, esp
  000b5	8d 4d 08	 lea	 ecx, DWORD PTR _str$[ebp]
  000b8	ff 15 00 00 00
	00		 call	 DWORD PTR __imp_??1?$CStringT@DV?$StrTraitMFC_DLL@DV?$ChTraitsCRT@D@ATL@@@@@ATL@@QAE@XZ
  000be	3b f4		 cmp	 esi, esp
  000c0	e9 00 00 00 00	 jmp	 __RTC_CheckEsp
$L188292:
  000c5	8b 85 c8 fd ff
	ff		 mov	 eax, DWORD PTR $T188287[ebp]
  000cb	50		 push	 eax
  000cc	e8 00 00 00 00	 call	 ??3@YAXPAX@Z		; operator delete
  000d1	59		 pop	 ecx
  000d2	c3		 ret	 0
__ehhandler$?SetSkin@CSkinButton2@@QAEHV?$CStringT@DV?$StrTraitMFC_DLL@DV?$ChTraitsCRT@D@ATL@@@@@ATL@@H@Z:
  000d3	b8 00 00 00 00	 mov	 eax, OFFSET FLAT:$T188294
  000d8	e9 00 00 00 00	 jmp	 ___CxxFrameHandler
text$x	ENDS
?SetSkin@CSkinButton2@@QAEHV?$CStringT@DV?$StrTraitMFC_DLL@DV?$ChTraitsCRT@D@ATL@@@@@ATL@@H@Z ENDP ; CSkinButton2::SetSkin
PUBLIC	??_R4CGdiPlusBitmap@@6B@			; CGdiPlusBitmap::`RTTI Complete Object Locator'
PUBLIC	??_R0?AVCGdiPlusBitmap@@@8			; CGdiPlusBitmap `RTTI Type Descriptor'
PUBLIC	??_R3CGdiPlusBitmap@@8				; CGdiPlusBitmap::`RTTI Class Hierarchy Descriptor'
PUBLIC	??_R2CGdiPlusBitmap@@8				; CGdiPlusBitmap::`RTTI Base Class Array'
PUBLIC	??_R1A@?0A@A@CGdiPlusBitmap@@8			; CGdiPlusBitmap::`RTTI Base Class Descriptor at (0,-1,0,0)'
PUBLIC	??_7CGdiPlusBitmap@@6B@				; CGdiPlusBitmap::`vftable'
PUBLIC	??_GCGdiPlusBitmap@@UAEPAXI@Z			; CGdiPlusBitmap::`scalar deleting destructor'
EXTRN	??_ECGdiPlusBitmap@@UAEPAXI@Z:NEAR		; CGdiPlusBitmap::`vector deleting destructor'
;	COMDAT ??_7CGdiPlusBitmap@@6B@
; File d:\boxgit\playbox\playbox\dev\prj\playbox\src\gui\commoncontrol\skinbutton2.h
CONST	SEGMENT
??_7CGdiPlusBitmap@@6B@ DD FLAT:??_R4CGdiPlusBitmap@@6B@ ; CGdiPlusBitmap::`vftable'
	DD	FLAT:??_ECGdiPlusBitmap@@UAEPAXI@Z
CONST	ENDS
;	COMDAT ??_R4CGdiPlusBitmap@@6B@
rdata$r	SEGMENT
??_R4CGdiPlusBitmap@@6B@ DD 00H				; CGdiPlusBitmap::`RTTI Complete Object Locator'
	DD	00H
	DD	00H
	DD	FLAT:??_R0?AVCGdiPlusBitmap@@@8
	DD	FLAT:??_R3CGdiPlusBitmap@@8
rdata$r	ENDS
;	COMDAT ??_R0?AVCGdiPlusBitmap@@@8
_DATA	SEGMENT
??_R0?AVCGdiPlusBitmap@@@8 DD FLAT:??_7type_info@@6B@	; CGdiPlusBitmap `RTTI Type Descriptor'
	DD	00H
	DB	'.?AVCGdiPlusBitmap@@', 00H
_DATA	ENDS
;	COMDAT ??_R3CGdiPlusBitmap@@8
rdata$r	SEGMENT
??_R3CGdiPlusBitmap@@8 DD 00H				; CGdiPlusBitmap::`RTTI Class Hierarchy Descriptor'
	DD	00H
	DD	01H
	DD	FLAT:??_R2CGdiPlusBitmap@@8
rdata$r	ENDS
;	COMDAT ??_R2CGdiPlusBitmap@@8
rdata$r	SEGMENT
??_R2CGdiPlusBitmap@@8 DD FLAT:??_R1A@?0A@A@CGdiPlusBitmap@@8 ; CGdiPlusBitmap::`RTTI Base Class Array'
rdata$r	ENDS
;	COMDAT ??_R1A@?0A@A@CGdiPlusBitmap@@8
rdata$r	SEGMENT
??_R1A@?0A@A@CGdiPlusBitmap@@8 DD FLAT:??_R0?AVCGdiPlusBitmap@@@8 ; CGdiPlusBitmap::`RTTI Base Class Descriptor at (0,-1,0,0)'
	DD	00H
	DD	00H
	DD	0ffffffffH
	DD	00H
	DD	00H
; Function compile flags: /Odt /RTCsu
rdata$r	ENDS
;	COMDAT ??0CGdiPlusBitmap@@QAE@XZ
_TEXT	SEGMENT
_this$ = -4						; size = 4
??0CGdiPlusBitmap@@QAE@XZ PROC NEAR			; CGdiPlusBitmap::CGdiPlusBitmap, COMDAT
; _this$ = ecx

; 13   : 	CGdiPlusBitmap()							{ m_pBitmap = NULL; }

  00000	55		 push	 ebp
  00001	8b ec		 mov	 ebp, esp
  00003	51		 push	 ecx
  00004	c7 45 fc cc cc
	cc cc		 mov	 DWORD PTR [ebp-4], -858993460 ; ccccccccH
  0000b	89 4d fc	 mov	 DWORD PTR _this$[ebp], ecx
  0000e	8b 45 fc	 mov	 eax, DWORD PTR _this$[ebp]
  00011	c7 00 00 00 00
	00		 mov	 DWORD PTR [eax], OFFSET FLAT:??_7CGdiPlusBitmap@@6B@
  00017	8b 4d fc	 mov	 ecx, DWORD PTR _this$[ebp]
  0001a	c7 41 04 00 00
	00 00		 mov	 DWORD PTR [ecx+4], 0
  00021	8b 45 fc	 mov	 eax, DWORD PTR _this$[ebp]
  00024	8b e5		 mov	 esp, ebp
  00026	5d		 pop	 ebp
  00027	c3		 ret	 0
??0CGdiPlusBitmap@@QAE@XZ ENDP				; CGdiPlusBitmap::CGdiPlusBitmap
_TEXT	ENDS
PUBLIC	?Empty@CGdiPlusBitmap@@QAEXXZ			; CGdiPlusBitmap::Empty
PUBLIC	?GetLastStatus@Image@Gdiplus@@QBE?AW4Status@2@XZ ; Gdiplus::Image::GetLastStatus
PUBLIC	?FromFile@Bitmap@Gdiplus@@SAPAV12@PB_WH@Z	; Gdiplus::Bitmap::FromFile
; Function compile flags: /Odt /RTCsu
;	COMDAT ?Load@CGdiPlusBitmap@@QAE_NPB_W@Z
_TEXT	SEGMENT
_this$ = -4						; size = 4
_pFile$ = 8						; size = 4
?Load@CGdiPlusBitmap@@QAE_NPB_W@Z PROC NEAR		; CGdiPlusBitmap::Load, COMDAT
; _this$ = ecx

; 20   : 	{

  00000	55		 push	 ebp
  00001	8b ec		 mov	 ebp, esp
  00003	51		 push	 ecx
  00004	c7 45 fc cc cc
	cc cc		 mov	 DWORD PTR [ebp-4], -858993460 ; ccccccccH
  0000b	89 4d fc	 mov	 DWORD PTR _this$[ebp], ecx

; 21   : 		
; 22   : 		Empty();

  0000e	8b 4d fc	 mov	 ecx, DWORD PTR _this$[ebp]
  00011	e8 00 00 00 00	 call	 ?Empty@CGdiPlusBitmap@@QAEXXZ ; CGdiPlusBitmap::Empty

; 23   : 		m_pBitmap = Gdiplus::Bitmap::FromFile(pFile);

  00016	6a 00		 push	 0
  00018	8b 45 08	 mov	 eax, DWORD PTR _pFile$[ebp]
  0001b	50		 push	 eax
  0001c	e8 00 00 00 00	 call	 ?FromFile@Bitmap@Gdiplus@@SAPAV12@PB_WH@Z ; Gdiplus::Bitmap::FromFile
  00021	83 c4 08	 add	 esp, 8
  00024	8b 4d fc	 mov	 ecx, DWORD PTR _this$[ebp]
  00027	89 41 04	 mov	 DWORD PTR [ecx+4], eax

; 24   : 		return m_pBitmap->GetLastStatus() == Gdiplus::Ok;

  0002a	8b 55 fc	 mov	 edx, DWORD PTR _this$[ebp]
  0002d	8b 4a 04	 mov	 ecx, DWORD PTR [edx+4]
  00030	e8 00 00 00 00	 call	 ?GetLastStatus@Image@Gdiplus@@QBE?AW4Status@2@XZ ; Gdiplus::Image::GetLastStatus
  00035	f7 d8		 neg	 eax
  00037	1b c0		 sbb	 eax, eax
  00039	40		 inc	 eax

; 25   : 	}

  0003a	83 c4 04	 add	 esp, 4
  0003d	3b ec		 cmp	 ebp, esp
  0003f	e8 00 00 00 00	 call	 __RTC_CheckEsp
  00044	8b e5		 mov	 esp, ebp
  00046	5d		 pop	 ebp
  00047	c2 04 00	 ret	 4
?Load@CGdiPlusBitmap@@QAE_NPB_W@Z ENDP			; CGdiPlusBitmap::Load
; Function compile flags: /Odt /RTCsu
_TEXT	ENDS
;	COMDAT ?Empty@CGdiPlusBitmap@@QAEXXZ
_TEXT	SEGMENT
tv71 = -16						; size = 4
$T188307 = -12						; size = 4
$T188306 = -8						; size = 4
_this$ = -4						; size = 4
?Empty@CGdiPlusBitmap@@QAEXXZ PROC NEAR			; CGdiPlusBitmap::Empty, COMDAT
; _this$ = ecx

; 17   : 	void Empty()								{ delete m_pBitmap; m_pBitmap = NULL; }

  00000	55		 push	 ebp
  00001	8b ec		 mov	 ebp, esp
  00003	83 ec 10	 sub	 esp, 16			; 00000010H
  00006	56		 push	 esi
  00007	b8 cc cc cc cc	 mov	 eax, -858993460		; ccccccccH
  0000c	89 45 f0	 mov	 DWORD PTR [ebp-16], eax
  0000f	89 45 f4	 mov	 DWORD PTR [ebp-12], eax
  00012	89 45 f8	 mov	 DWORD PTR [ebp-8], eax
  00015	89 45 fc	 mov	 DWORD PTR [ebp-4], eax
  00018	89 4d fc	 mov	 DWORD PTR _this$[ebp], ecx
  0001b	8b 45 fc	 mov	 eax, DWORD PTR _this$[ebp]
  0001e	8b 48 04	 mov	 ecx, DWORD PTR [eax+4]
  00021	89 4d f4	 mov	 DWORD PTR $T188307[ebp], ecx
  00024	8b 55 f4	 mov	 edx, DWORD PTR $T188307[ebp]
  00027	89 55 f8	 mov	 DWORD PTR $T188306[ebp], edx
  0002a	83 7d f8 00	 cmp	 DWORD PTR $T188306[ebp], 0
  0002e	74 1a		 je	 SHORT $L188308
  00030	8b f4		 mov	 esi, esp
  00032	6a 01		 push	 1
  00034	8b 45 f8	 mov	 eax, DWORD PTR $T188306[ebp]
  00037	8b 10		 mov	 edx, DWORD PTR [eax]
  00039	8b 4d f8	 mov	 ecx, DWORD PTR $T188306[ebp]
  0003c	ff 12		 call	 DWORD PTR [edx]
  0003e	3b f4		 cmp	 esi, esp
  00040	e8 00 00 00 00	 call	 __RTC_CheckEsp
  00045	89 45 f0	 mov	 DWORD PTR tv71[ebp], eax
  00048	eb 07		 jmp	 SHORT $L188309
$L188308:
  0004a	c7 45 f0 00 00
	00 00		 mov	 DWORD PTR tv71[ebp], 0
$L188309:
  00051	8b 45 fc	 mov	 eax, DWORD PTR _this$[ebp]
  00054	c7 40 04 00 00
	00 00		 mov	 DWORD PTR [eax+4], 0
  0005b	5e		 pop	 esi
  0005c	83 c4 10	 add	 esp, 16			; 00000010H
  0005f	3b ec		 cmp	 ebp, esp
  00061	e8 00 00 00 00	 call	 __RTC_CheckEsp
  00066	8b e5		 mov	 esp, ebp
  00068	5d		 pop	 ebp
  00069	c3		 ret	 0
?Empty@CGdiPlusBitmap@@QAEXXZ ENDP			; CGdiPlusBitmap::Empty
_TEXT	ENDS
PUBLIC	??1CGdiPlusBitmap@@UAE@XZ			; CGdiPlusBitmap::~CGdiPlusBitmap
; Function compile flags: /Odt /RTCsu
;	COMDAT ??_GCGdiPlusBitmap@@UAEPAXI@Z
_TEXT	SEGMENT
_this$ = -4						; size = 4
___flags$ = 8						; size = 4
??_GCGdiPlusBitmap@@UAEPAXI@Z PROC NEAR			; CGdiPlusBitmap::`scalar deleting destructor', COMDAT
; _this$ = ecx
  00000	55		 push	 ebp
  00001	8b ec		 mov	 ebp, esp
  00003	51		 push	 ecx
  00004	c7 45 fc cc cc
	cc cc		 mov	 DWORD PTR [ebp-4], -858993460 ; ccccccccH
  0000b	89 4d fc	 mov	 DWORD PTR _this$[ebp], ecx
  0000e	8b 4d fc	 mov	 ecx, DWORD PTR _this$[ebp]
  00011	e8 00 00 00 00	 call	 ??1CGdiPlusBitmap@@UAE@XZ ; CGdiPlusBitmap::~CGdiPlusBitmap
  00016	8b 45 08	 mov	 eax, DWORD PTR ___flags$[ebp]
  00019	83 e0 01	 and	 eax, 1
  0001c	74 0c		 je	 SHORT $L187052
  0001e	8b 4d fc	 mov	 ecx, DWORD PTR _this$[ebp]
  00021	51		 push	 ecx
  00022	e8 00 00 00 00	 call	 ??3@YAXPAX@Z		; operator delete
  00027	83 c4 04	 add	 esp, 4
$L187052:
  0002a	8b 45 fc	 mov	 eax, DWORD PTR _this$[ebp]
  0002d	83 c4 04	 add	 esp, 4
  00030	3b ec		 cmp	 ebp, esp
  00032	e8 00 00 00 00	 call	 __RTC_CheckEsp
  00037	8b e5		 mov	 esp, ebp
  00039	5d		 pop	 ebp
  0003a	c2 04 00	 ret	 4
??_GCGdiPlusBitmap@@UAEPAXI@Z ENDP			; CGdiPlusBitmap::`scalar deleting destructor'
; Function compile flags: /Odt /RTCsu
_TEXT	ENDS
;	COMDAT ??1CGdiPlusBitmap@@UAE@XZ
_TEXT	SEGMENT
_this$ = -4						; size = 4
??1CGdiPlusBitmap@@UAE@XZ PROC NEAR			; CGdiPlusBitmap::~CGdiPlusBitmap, COMDAT
; _this$ = ecx

; 15   : 	virtual ~CGdiPlusBitmap()					{ Empty(); }

  00000	55		 push	 ebp
  00001	8b ec		 mov	 ebp, esp
  00003	51		 push	 ecx
  00004	c7 45 fc cc cc
	cc cc		 mov	 DWORD PTR [ebp-4], -858993460 ; ccccccccH
  0000b	89 4d fc	 mov	 DWORD PTR _this$[ebp], ecx
  0000e	8b 45 fc	 mov	 eax, DWORD PTR _this$[ebp]
  00011	c7 00 00 00 00
	00		 mov	 DWORD PTR [eax], OFFSET FLAT:??_7CGdiPlusBitmap@@6B@
  00017	8b 4d fc	 mov	 ecx, DWORD PTR _this$[ebp]
  0001a	e8 00 00 00 00	 call	 ?Empty@CGdiPlusBitmap@@QAEXXZ ; CGdiPlusBitmap::Empty
  0001f	83 c4 04	 add	 esp, 4
  00022	3b ec		 cmp	 ebp, esp
  00024	e8 00 00 00 00	 call	 __RTC_CheckEsp
  00029	8b e5		 mov	 esp, ebp
  0002b	5d		 pop	 ebp
  0002c	c3		 ret	 0
??1CGdiPlusBitmap@@UAE@XZ ENDP				; CGdiPlusBitmap::~CGdiPlusBitmap
_TEXT	ENDS
PUBLIC	?SetBkGround@CSkinButton2@@QAEXPAVCDC@@@Z	; CSkinButton2::SetBkGround
EXTRN	?BitBlt@CDC@@QAEHHHHHPAV1@HHK@Z:NEAR		; CDC::BitBlt
EXTRN	?DeleteObject@CGdiObject@@QAEHXZ:NEAR		; CGdiObject::DeleteObject
EXTRN	??0CBitmap@@QAE@XZ:NEAR				; CBitmap::CBitmap
EXTRN	?Width@CRect@@QBEHXZ:NEAR			; CRect::Width
EXTRN	?Height@CRect@@QBEHXZ:NEAR			; CRect::Height
EXTRN	?CreateCompatibleBitmap@CBitmap@@QAEHPAVCDC@@HH@Z:NEAR ; CBitmap::CreateCompatibleBitmap
EXTRN	??BCRect@@QAEPAUtagRECT@@XZ:NEAR		; CRect::operator tagRECT *
EXTRN	??1CBitmap@@UAE@XZ:NEAR				; CBitmap::~CBitmap
EXTRN	?GetWindowRect@CWnd@@QBEXPAUtagRECT@@@Z:NEAR	; CWnd::GetWindowRect
EXTRN	?GetClientRect@CWnd@@QBEXPAUtagRECT@@@Z:NEAR	; CWnd::GetClientRect
EXTRN	?ScreenToClient@CWnd@@QBEXPAUtagRECT@@@Z:NEAR	; CWnd::ScreenToClient
EXTRN	?CreateCompatibleDC@CDC@@QAEHPAV1@@Z:NEAR	; CDC::CreateCompatibleDC
EXTRN	?DeleteDC@CDC@@QAEHXZ:NEAR			; CDC::DeleteDC
EXTRN	?SelectObject@CDC@@QAEPAVCBitmap@@PAV2@@Z:NEAR	; CDC::SelectObject
xdata$x	SEGMENT
$T188322 DD	0ffffffffH
	DD	FLAT:$L188313
$T188315 DD	019930520H
	DD	01H
	DD	FLAT:$T188322
	DD	2 DUP(00H)
	DD	2 DUP(00H)
; Function compile flags: /Odt /RTCsu
; File d:\boxgit\playbox\playbox\dev\prj\playbox\src\gui\commoncontrol\skinbutton2.cpp
xdata$x	ENDS
_TEXT	SEGMENT
_pOldBitmap$ = -84					; size = 4
_bmp$ = -76						; size = 8
_rectS$ = -60						; size = 16
_rect$ = -36						; size = 16
_this$ = -16						; size = 4
__$EHRec$ = -12						; size = 12
_pDC$ = 8						; size = 4
?SetBkGround@CSkinButton2@@QAEXPAVCDC@@@Z PROC NEAR	; CSkinButton2::SetBkGround
; _this$ = ecx

; 119  : {

  00a00	55		 push	 ebp
  00a01	8b ec		 mov	 ebp, esp
  00a03	6a ff		 push	 -1
  00a05	68 00 00 00 00	 push	 __ehhandler$?SetBkGround@CSkinButton2@@QAEXPAVCDC@@@Z
  00a0a	64 a1 00 00 00
	00		 mov	 eax, DWORD PTR fs:__except_list
  00a10	50		 push	 eax
  00a11	64 89 25 00 00
	00 00		 mov	 DWORD PTR fs:__except_list, esp
  00a18	83 ec 48	 sub	 esp, 72			; 00000048H
  00a1b	57		 push	 edi
  00a1c	51		 push	 ecx
  00a1d	8d 7d ac	 lea	 edi, DWORD PTR [ebp-84]
  00a20	b9 12 00 00 00	 mov	 ecx, 18			; 00000012H
  00a25	b8 cc cc cc cc	 mov	 eax, -858993460		; ccccccccH
  00a2a	f3 ab		 rep stosd
  00a2c	59		 pop	 ecx
  00a2d	89 4d f0	 mov	 DWORD PTR _this$[ebp], ecx

; 120  : 	CRect rect, rectS;

  00a30	8d 4d dc	 lea	 ecx, DWORD PTR _rect$[ebp]
  00a33	e8 00 00 00 00	 call	 ??0CRect@@QAE@XZ	; CRect::CRect
  00a38	8d 4d c4	 lea	 ecx, DWORD PTR _rectS$[ebp]
  00a3b	e8 00 00 00 00	 call	 ??0CRect@@QAE@XZ	; CRect::CRect

; 121  : 	CBitmap bmp, *pOldBitmap;

  00a40	8d 4d b4	 lea	 ecx, DWORD PTR _bmp$[ebp]
  00a43	e8 00 00 00 00	 call	 ??0CBitmap@@QAE@XZ	; CBitmap::CBitmap
  00a48	c7 45 fc 00 00
	00 00		 mov	 DWORD PTR __$EHRec$[ebp+8], 0

; 122  : 
; 123  : 	GetClientRect(rect);

  00a4f	8d 4d dc	 lea	 ecx, DWORD PTR _rect$[ebp]
  00a52	e8 00 00 00 00	 call	 ??BCRect@@QAEPAUtagRECT@@XZ ; CRect::operator tagRECT *
  00a57	50		 push	 eax
  00a58	8b 4d f0	 mov	 ecx, DWORD PTR _this$[ebp]
  00a5b	e8 00 00 00 00	 call	 ?GetClientRect@CWnd@@QBEXPAUtagRECT@@@Z ; CWnd::GetClientRect

; 124  : 	GetWindowRect(rectS);

  00a60	8d 4d c4	 lea	 ecx, DWORD PTR _rectS$[ebp]
  00a63	e8 00 00 00 00	 call	 ??BCRect@@QAEPAUtagRECT@@XZ ; CRect::operator tagRECT *
  00a68	50		 push	 eax
  00a69	8b 4d f0	 mov	 ecx, DWORD PTR _this$[ebp]
  00a6c	e8 00 00 00 00	 call	 ?GetWindowRect@CWnd@@QBEXPAUtagRECT@@@Z ; CWnd::GetWindowRect

; 125  : 	GetParent()->ScreenToClient(rectS);

  00a71	8d 4d c4	 lea	 ecx, DWORD PTR _rectS$[ebp]
  00a74	e8 00 00 00 00	 call	 ??BCRect@@QAEPAUtagRECT@@XZ ; CRect::operator tagRECT *
  00a79	50		 push	 eax
  00a7a	8b 4d f0	 mov	 ecx, DWORD PTR _this$[ebp]
  00a7d	e8 00 00 00 00	 call	 ?GetParent@CWnd@@QBEPAV1@XZ ; CWnd::GetParent
  00a82	8b c8		 mov	 ecx, eax
  00a84	e8 00 00 00 00	 call	 ?ScreenToClient@CWnd@@QBEXPAUtagRECT@@@Z ; CWnd::ScreenToClient

; 126  : 
; 127  : 	m_dcBk.DeleteDC();

  00a89	8b 4d f0	 mov	 ecx, DWORD PTR _this$[ebp]
  00a8c	81 c1 8c 00 00
	00		 add	 ecx, 140		; 0000008cH
  00a92	e8 00 00 00 00	 call	 ?DeleteDC@CDC@@QAEHXZ	; CDC::DeleteDC

; 128  : 
; 129  : 	m_dcBk.CreateCompatibleDC(pDC);

  00a97	8b 45 08	 mov	 eax, DWORD PTR _pDC$[ebp]
  00a9a	50		 push	 eax
  00a9b	8b 4d f0	 mov	 ecx, DWORD PTR _this$[ebp]
  00a9e	81 c1 8c 00 00
	00		 add	 ecx, 140		; 0000008cH
  00aa4	e8 00 00 00 00	 call	 ?CreateCompatibleDC@CDC@@QAEHPAV1@@Z ; CDC::CreateCompatibleDC

; 130  : 	bmp.CreateCompatibleBitmap(pDC, rect.Width(), rect.Height());

  00aa9	8d 4d dc	 lea	 ecx, DWORD PTR _rect$[ebp]
  00aac	e8 00 00 00 00	 call	 ?Height@CRect@@QBEHXZ	; CRect::Height
  00ab1	50		 push	 eax
  00ab2	8d 4d dc	 lea	 ecx, DWORD PTR _rect$[ebp]
  00ab5	e8 00 00 00 00	 call	 ?Width@CRect@@QBEHXZ	; CRect::Width
  00aba	50		 push	 eax
  00abb	8b 4d 08	 mov	 ecx, DWORD PTR _pDC$[ebp]
  00abe	51		 push	 ecx
  00abf	8d 4d b4	 lea	 ecx, DWORD PTR _bmp$[ebp]
  00ac2	e8 00 00 00 00	 call	 ?CreateCompatibleBitmap@CBitmap@@QAEHPAVCDC@@HH@Z ; CBitmap::CreateCompatibleBitmap

; 131  : 	pOldBitmap = m_dcBk.SelectObject(&bmp);

  00ac7	8d 55 b4	 lea	 edx, DWORD PTR _bmp$[ebp]
  00aca	52		 push	 edx
  00acb	8b 4d f0	 mov	 ecx, DWORD PTR _this$[ebp]
  00ace	81 c1 8c 00 00
	00		 add	 ecx, 140		; 0000008cH
  00ad4	e8 00 00 00 00	 call	 ?SelectObject@CDC@@QAEPAVCBitmap@@PAV2@@Z ; CDC::SelectObject
  00ad9	89 45 ac	 mov	 DWORD PTR _pOldBitmap$[ebp], eax

; 132  : 	m_dcBk.BitBlt(0, 0, rect.Width(), rect.Height(), pDC, rectS.left, rectS.top, SRCCOPY);

  00adc	68 20 00 cc 00	 push	 13369376		; 00cc0020H
  00ae1	8b 45 c8	 mov	 eax, DWORD PTR _rectS$[ebp+4]
  00ae4	50		 push	 eax
  00ae5	8b 4d c4	 mov	 ecx, DWORD PTR _rectS$[ebp]
  00ae8	51		 push	 ecx
  00ae9	8b 55 08	 mov	 edx, DWORD PTR _pDC$[ebp]
  00aec	52		 push	 edx
  00aed	8d 4d dc	 lea	 ecx, DWORD PTR _rect$[ebp]
  00af0	e8 00 00 00 00	 call	 ?Height@CRect@@QBEHXZ	; CRect::Height
  00af5	50		 push	 eax
  00af6	8d 4d dc	 lea	 ecx, DWORD PTR _rect$[ebp]
  00af9	e8 00 00 00 00	 call	 ?Width@CRect@@QBEHXZ	; CRect::Width
  00afe	50		 push	 eax
  00aff	6a 00		 push	 0
  00b01	6a 00		 push	 0
  00b03	8b 4d f0	 mov	 ecx, DWORD PTR _this$[ebp]
  00b06	81 c1 8c 00 00
	00		 add	 ecx, 140		; 0000008cH
  00b0c	e8 00 00 00 00	 call	 ?BitBlt@CDC@@QAEHHHHHPAV1@HHK@Z ; CDC::BitBlt

; 133  : 	bmp.DeleteObject();

  00b11	8d 4d b4	 lea	 ecx, DWORD PTR _bmp$[ebp]
  00b14	e8 00 00 00 00	 call	 ?DeleteObject@CGdiObject@@QAEHXZ ; CGdiObject::DeleteObject

; 134  : 	Invalidate(true);

  00b19	6a 01		 push	 1
  00b1b	8b 4d f0	 mov	 ecx, DWORD PTR _this$[ebp]
  00b1e	e8 00 00 00 00	 call	 ?Invalidate@CWnd@@QAEXH@Z ; CWnd::Invalidate

; 135  : }

  00b23	c7 45 fc ff ff
	ff ff		 mov	 DWORD PTR __$EHRec$[ebp+8], -1
  00b2a	8d 4d b4	 lea	 ecx, DWORD PTR _bmp$[ebp]
  00b2d	e8 00 00 00 00	 call	 ??1CBitmap@@UAE@XZ	; CBitmap::~CBitmap
  00b32	52		 push	 edx
  00b33	8b cd		 mov	 ecx, ebp
  00b35	50		 push	 eax
  00b36	8d 15 00 00 00
	00		 lea	 edx, DWORD PTR $L188321
  00b3c	e8 00 00 00 00	 call	 @_RTC_CheckStackVars@8
  00b41	58		 pop	 eax
  00b42	5a		 pop	 edx
  00b43	8b 4d f4	 mov	 ecx, DWORD PTR __$EHRec$[ebp]
  00b46	64 89 0d 00 00
	00 00		 mov	 DWORD PTR fs:__except_list, ecx
  00b4d	5f		 pop	 edi
  00b4e	83 c4 54	 add	 esp, 84			; 00000054H
  00b51	3b ec		 cmp	 ebp, esp
  00b53	e8 00 00 00 00	 call	 __RTC_CheckEsp
  00b58	8b e5		 mov	 esp, ebp
  00b5a	5d		 pop	 ebp
  00b5b	c2 04 00	 ret	 4
$L188321:
  00b5e	03 00 00 00	 DD	 3
  00b62	00 00 00 00	 DD	 $L188320
$L188320:
  00b66	dc ff ff ff	 DD	 -36			; ffffffdcH
  00b6a	10 00 00 00	 DD	 16			; 00000010H
  00b6e	00 00 00 00	 DD	 $L188316
  00b72	c4 ff ff ff	 DD	 -60			; ffffffc4H
  00b76	10 00 00 00	 DD	 16			; 00000010H
  00b7a	00 00 00 00	 DD	 $L188317
  00b7e	b4 ff ff ff	 DD	 -76			; ffffffb4H
  00b82	08 00 00 00	 DD	 8
  00b86	00 00 00 00	 DD	 $L188318
$L188318:
  00b8a	62		 DB	 98			; 00000062H
  00b8b	6d		 DB	 109			; 0000006dH
  00b8c	70		 DB	 112			; 00000070H
  00b8d	00		 DB	 0
$L188317:
  00b8e	72		 DB	 114			; 00000072H
  00b8f	65		 DB	 101			; 00000065H
  00b90	63		 DB	 99			; 00000063H
  00b91	74		 DB	 116			; 00000074H
  00b92	53		 DB	 83			; 00000053H
  00b93	00		 DB	 0
$L188316:
  00b94	72		 DB	 114			; 00000072H
  00b95	65		 DB	 101			; 00000065H
  00b96	63		 DB	 99			; 00000063H
  00b97	74		 DB	 116			; 00000074H
  00b98	00		 DB	 0
_TEXT	ENDS
text$x	SEGMENT
$L188313:
  000dd	8d 4d b4	 lea	 ecx, DWORD PTR _bmp$[ebp]
  000e0	e9 00 00 00 00	 jmp	 ??1CBitmap@@UAE@XZ	; CBitmap::~CBitmap
__ehhandler$?SetBkGround@CSkinButton2@@QAEXPAVCDC@@@Z:
  000e5	b8 00 00 00 00	 mov	 eax, OFFSET FLAT:$T188315
  000ea	e9 00 00 00 00	 jmp	 ___CxxFrameHandler
text$x	ENDS
?SetBkGround@CSkinButton2@@QAEXPAVCDC@@@Z ENDP		; CSkinButton2::SetBkGround
; Function compile flags: /Odt /RTCsu
_TEXT	SEGMENT
_this$ = -4						; size = 4
_pDC$ = 8						; size = 4
?OnEraseBkgnd@CSkinButton2@@QAEHPAVCDC@@@Z PROC NEAR	; CSkinButton2::OnEraseBkgnd
; _this$ = ecx

; 137  : {

  00ba0	55		 push	 ebp
  00ba1	8b ec		 mov	 ebp, esp
  00ba3	51		 push	 ecx
  00ba4	c7 45 fc cc cc
	cc cc		 mov	 DWORD PTR [ebp-4], -858993460 ; ccccccccH
  00bab	89 4d fc	 mov	 DWORD PTR _this$[ebp], ecx

; 138  : 	// TODO: /
; 139  : 
; 140  : 	return TRUE;//CButton::OnEraseBkgnd(pDC);

  00bae	b8 01 00 00 00	 mov	 eax, 1

; 141  : }

  00bb3	8b e5		 mov	 esp, ebp
  00bb5	5d		 pop	 ebp
  00bb6	c2 04 00	 ret	 4
?OnEraseBkgnd@CSkinButton2@@QAEHPAVCDC@@@Z ENDP		; CSkinButton2::OnEraseBkgnd
_TEXT	ENDS
PUBLIC	?SendMouseMessageToParent@CSkinButton2@@QAEXIIVCPoint@@@Z ; CSkinButton2::SendMouseMessageToParent
EXTRN	__imp__SendMessageA@16:NEAR
EXTRN	__imp__ScreenToClient@8:NEAR
EXTRN	?ClientToScreen@CWnd@@QBEXPAUtagPOINT@@@Z:NEAR	; CWnd::ClientToScreen
; Function compile flags: /Odt /RTCsu
_TEXT	SEGMENT
_lParam$ = -12						; size = 4
_wParam$ = -8						; size = 4
_this$ = -4						; size = 4
_msg$ = 8						; size = 4
_nFlags$ = 12						; size = 4
_point$ = 16						; size = 8
?SendMouseMessageToParent@CSkinButton2@@QAEXIIVCPoint@@@Z PROC NEAR ; CSkinButton2::SendMouseMessageToParent
; _this$ = ecx

; 144  : {

  00bc0	55		 push	 ebp
  00bc1	8b ec		 mov	 ebp, esp
  00bc3	83 ec 0c	 sub	 esp, 12			; 0000000cH
  00bc6	56		 push	 esi
  00bc7	c7 45 f4 cc cc
	cc cc		 mov	 DWORD PTR [ebp-12], -858993460 ; ccccccccH
  00bce	c7 45 f8 cc cc
	cc cc		 mov	 DWORD PTR [ebp-8], -858993460 ; ccccccccH
  00bd5	c7 45 fc cc cc
	cc cc		 mov	 DWORD PTR [ebp-4], -858993460 ; ccccccccH
  00bdc	89 4d fc	 mov	 DWORD PTR _this$[ebp], ecx

; 145  : 	WPARAM wParam;
; 146  : 	LPARAM lParam;
; 147  : 
; 148  : 	ClientToScreen( &point);

  00bdf	8d 45 10	 lea	 eax, DWORD PTR _point$[ebp]
  00be2	50		 push	 eax
  00be3	8b 4d fc	 mov	 ecx, DWORD PTR _this$[ebp]
  00be6	e8 00 00 00 00	 call	 ?ClientToScreen@CWnd@@QBEXPAUtagPOINT@@@Z ; CWnd::ClientToScreen

; 149  : 	::ScreenToClient( GetParent()->m_hWnd,&point );

  00beb	8b f4		 mov	 esi, esp
  00bed	8d 4d 10	 lea	 ecx, DWORD PTR _point$[ebp]
  00bf0	51		 push	 ecx
  00bf1	8b 4d fc	 mov	 ecx, DWORD PTR _this$[ebp]
  00bf4	e8 00 00 00 00	 call	 ?GetParent@CWnd@@QBEPAV1@XZ ; CWnd::GetParent
  00bf9	8b 50 20	 mov	 edx, DWORD PTR [eax+32]
  00bfc	52		 push	 edx
  00bfd	ff 15 00 00 00
	00		 call	 DWORD PTR __imp__ScreenToClient@8
  00c03	3b f4		 cmp	 esi, esp
  00c05	e8 00 00 00 00	 call	 __RTC_CheckEsp

; 150  : 
; 151  : 	wParam = nFlags;

  00c0a	8b 45 0c	 mov	 eax, DWORD PTR _nFlags$[ebp]
  00c0d	89 45 f8	 mov	 DWORD PTR _wParam$[ebp], eax

; 152  : 	lParam = (WORD)point.x;

  00c10	0f b7 4d 10	 movzx	 ecx, WORD PTR _point$[ebp]
  00c14	89 4d f4	 mov	 DWORD PTR _lParam$[ebp], ecx

; 153  : 	lParam += ((WORD)point.y) << 16;		

  00c17	0f b7 55 14	 movzx	 edx, WORD PTR _point$[ebp+4]
  00c1b	c1 e2 10	 shl	 edx, 16			; 00000010H
  00c1e	03 55 f4	 add	 edx, DWORD PTR _lParam$[ebp]
  00c21	89 55 f4	 mov	 DWORD PTR _lParam$[ebp], edx

; 154  : 	::SendMessage(this->GetParent()->m_hWnd,msg, wParam,lParam );	

  00c24	8b f4		 mov	 esi, esp
  00c26	8b 45 f4	 mov	 eax, DWORD PTR _lParam$[ebp]
  00c29	50		 push	 eax
  00c2a	8b 4d f8	 mov	 ecx, DWORD PTR _wParam$[ebp]
  00c2d	51		 push	 ecx
  00c2e	8b 55 08	 mov	 edx, DWORD PTR _msg$[ebp]
  00c31	52		 push	 edx
  00c32	8b 4d fc	 mov	 ecx, DWORD PTR _this$[ebp]
  00c35	e8 00 00 00 00	 call	 ?GetParent@CWnd@@QBEPAV1@XZ ; CWnd::GetParent
  00c3a	8b 40 20	 mov	 eax, DWORD PTR [eax+32]
  00c3d	50		 push	 eax
  00c3e	ff 15 00 00 00
	00		 call	 DWORD PTR __imp__SendMessageA@16
  00c44	3b f4		 cmp	 esi, esp
  00c46	e8 00 00 00 00	 call	 __RTC_CheckEsp

; 155  : }

  00c4b	5e		 pop	 esi
  00c4c	83 c4 0c	 add	 esp, 12			; 0000000cH
  00c4f	3b ec		 cmp	 ebp, esp
  00c51	e8 00 00 00 00	 call	 __RTC_CheckEsp
  00c56	8b e5		 mov	 esp, ebp
  00c58	5d		 pop	 ebp
  00c59	c2 10 00	 ret	 16			; 00000010H
?SendMouseMessageToParent@CSkinButton2@@QAEXIIVCPoint@@@Z ENDP ; CSkinButton2::SendMouseMessageToParent
_TEXT	ENDS
EXTRN	?ModifyStyle@CWnd@@QAEHKKI@Z:NEAR		; CWnd::ModifyStyle
EXTRN	?PreSubclassWindow@CWnd@@UAEXXZ:NEAR		; CWnd::PreSubclassWindow
; Function compile flags: /Odt /RTCsu
_TEXT	SEGMENT
_this$ = -4						; size = 4
?PreSubclassWindow@CSkinButton2@@MAEXXZ PROC NEAR	; CSkinButton2::PreSubclassWindow
; _this$ = ecx

; 158  : {

  00c60	55		 push	 ebp
  00c61	8b ec		 mov	 ebp, esp
  00c63	51		 push	 ecx
  00c64	c7 45 fc cc cc
	cc cc		 mov	 DWORD PTR [ebp-4], -858993460 ; ccccccccH
  00c6b	89 4d fc	 mov	 DWORD PTR _this$[ebp], ecx

; 159  : 	ModifyStyle(0, BS_OWNERDRAW);

  00c6e	6a 00		 push	 0
  00c70	6a 0b		 push	 11			; 0000000bH
  00c72	6a 00		 push	 0
  00c74	8b 4d fc	 mov	 ecx, DWORD PTR _this$[ebp]
  00c77	e8 00 00 00 00	 call	 ?ModifyStyle@CWnd@@QAEHKKI@Z ; CWnd::ModifyStyle

; 160  : 
; 161  : 	CButton::PreSubclassWindow();

  00c7c	8b 4d fc	 mov	 ecx, DWORD PTR _this$[ebp]
  00c7f	e8 00 00 00 00	 call	 ?PreSubclassWindow@CWnd@@UAEXXZ ; CWnd::PreSubclassWindow

; 162  : }

  00c84	83 c4 04	 add	 esp, 4
  00c87	3b ec		 cmp	 ebp, esp
  00c89	e8 00 00 00 00	 call	 __RTC_CheckEsp
  00c8e	8b e5		 mov	 esp, ebp
  00c90	5d		 pop	 ebp
  00c91	c3		 ret	 0
?PreSubclassWindow@CSkinButton2@@MAEXXZ ENDP		; CSkinButton2::PreSubclassWindow
_TEXT	ENDS
EXTRN	?OnMouseMove@CWnd@@IAEXIVCPoint@@@Z:NEAR	; CWnd::OnMouseMove
EXTRN	?PtInRect@CRect@@QBEHUtagPOINT@@@Z:NEAR		; CRect::PtInRect
EXTRN	__imp__SetCursor@4:NEAR
EXTRN	?IsWindowEnabled@CWnd@@QBEHXZ:NEAR		; CWnd::IsWindowEnabled
EXTRN	__imp___TrackMouseEvent@4:NEAR
EXTRN	__imp__LoadCursorA@8:NEAR
; Function compile flags: /Odt /RTCsu
_TEXT	SEGMENT
$T188327 = -36						; size = 8
_tme$187341 = -24					; size = 16
_this$ = -4						; size = 4
_nFlags$ = 8						; size = 4
_point$ = 12						; size = 8
?OnMouseMove@CSkinButton2@@QAEXIVCPoint@@@Z PROC NEAR	; CSkinButton2::OnMouseMove
; _this$ = ecx

; 164  : {

  00ca0	55		 push	 ebp
  00ca1	8b ec		 mov	 ebp, esp
  00ca3	83 ec 24	 sub	 esp, 36			; 00000024H
  00ca6	56		 push	 esi
  00ca7	b8 cc cc cc cc	 mov	 eax, -858993460		; ccccccccH
  00cac	89 45 dc	 mov	 DWORD PTR [ebp-36], eax
  00caf	89 45 e0	 mov	 DWORD PTR [ebp-32], eax
  00cb2	89 45 e4	 mov	 DWORD PTR [ebp-28], eax
  00cb5	89 45 e8	 mov	 DWORD PTR [ebp-24], eax
  00cb8	89 45 ec	 mov	 DWORD PTR [ebp-20], eax
  00cbb	89 45 f0	 mov	 DWORD PTR [ebp-16], eax
  00cbe	89 45 f4	 mov	 DWORD PTR [ebp-12], eax
  00cc1	89 45 f8	 mov	 DWORD PTR [ebp-8], eax
  00cc4	89 45 fc	 mov	 DWORD PTR [ebp-4], eax
  00cc7	89 4d fc	 mov	 DWORD PTR _this$[ebp], ecx

; 165  : 	if(m_bUseResponseRect && !m_rcResponse.PtInRect(point))

  00cca	8b 45 fc	 mov	 eax, DWORD PTR _this$[ebp]
  00ccd	83 78 70 00	 cmp	 DWORD PTR [eax+112], 0
  00cd1	74 41		 je	 SHORT $L187335
  00cd3	8b 4d 0c	 mov	 ecx, DWORD PTR _point$[ebp]
  00cd6	89 4d dc	 mov	 DWORD PTR $T188327[ebp], ecx
  00cd9	8b 55 10	 mov	 edx, DWORD PTR _point$[ebp+4]
  00cdc	89 55 e0	 mov	 DWORD PTR $T188327[ebp+4], edx
  00cdf	8b 45 e0	 mov	 eax, DWORD PTR $T188327[ebp+4]
  00ce2	50		 push	 eax
  00ce3	8b 4d dc	 mov	 ecx, DWORD PTR $T188327[ebp]
  00ce6	51		 push	 ecx
  00ce7	8b 4d fc	 mov	 ecx, DWORD PTR _this$[ebp]
  00cea	83 c1 60	 add	 ecx, 96			; 00000060H
  00ced	e8 00 00 00 00	 call	 ?PtInRect@CRect@@QBEHUtagPOINT@@@Z ; CRect::PtInRect
  00cf2	85 c0		 test	 eax, eax
  00cf4	75 1e		 jne	 SHORT $L187335

; 166  : 	{
; 167  : 		//CButton::OnMouseMove(nFlags, point);
; 168  : 		SendMouseMessageToParent(WM_MOUSEMOVE, nFlags, point);

  00cf6	8b 55 10	 mov	 edx, DWORD PTR _point$[ebp+4]
  00cf9	52		 push	 edx
  00cfa	8b 45 0c	 mov	 eax, DWORD PTR _point$[ebp]
  00cfd	50		 push	 eax
  00cfe	8b 4d 08	 mov	 ecx, DWORD PTR _nFlags$[ebp]
  00d01	51		 push	 ecx
  00d02	68 00 02 00 00	 push	 512			; 00000200H
  00d07	8b 4d fc	 mov	 ecx, DWORD PTR _this$[ebp]
  00d0a	e8 00 00 00 00	 call	 ?SendMouseMessageToParent@CSkinButton2@@QAEXIIVCPoint@@@Z ; CSkinButton2::SendMouseMessageToParent

; 169  : 		return;

  00d0f	e9 a1 00 00 00	 jmp	 $L187333
$L187335:

; 170  : 	}
; 171  : 	if( !m_bSelected && IsWindowEnabled()&&m_bHandMouse )

  00d14	8b 55 fc	 mov	 edx, DWORD PTR _this$[ebp]
  00d17	83 ba 84 00 00
	00 00		 cmp	 DWORD PTR [edx+132], 0
  00d1e	75 3b		 jne	 SHORT $L187336
  00d20	8b 4d fc	 mov	 ecx, DWORD PTR _this$[ebp]
  00d23	e8 00 00 00 00	 call	 ?IsWindowEnabled@CWnd@@QBEHXZ ; CWnd::IsWindowEnabled
  00d28	85 c0		 test	 eax, eax
  00d2a	74 2f		 je	 SHORT $L187336
  00d2c	8b 45 fc	 mov	 eax, DWORD PTR _this$[ebp]
  00d2f	83 78 5c 00	 cmp	 DWORD PTR [eax+92], 0
  00d33	74 26		 je	 SHORT $L187336

; 172  : 	{
; 173  : #ifndef IDC_HAND
; 174  : #define IDC_HAND            MAKEINTRESOURCE(32649)
; 175  : #endif
; 176  : 		::SetCursor(::LoadCursor(NULL, IDC_HAND));

  00d35	8b f4		 mov	 esi, esp
  00d37	68 89 7f 00 00	 push	 32649			; 00007f89H
  00d3c	6a 00		 push	 0
  00d3e	ff 15 00 00 00
	00		 call	 DWORD PTR __imp__LoadCursorA@8
  00d44	3b f4		 cmp	 esi, esp
  00d46	e8 00 00 00 00	 call	 __RTC_CheckEsp
  00d4b	8b f4		 mov	 esi, esp
  00d4d	50		 push	 eax
  00d4e	ff 15 00 00 00
	00		 call	 DWORD PTR __imp__SetCursor@4
  00d54	3b f4		 cmp	 esi, esp
  00d56	e8 00 00 00 00	 call	 __RTC_CheckEsp
$L187336:

; 177  : 	}
; 178  : 
; 179  : 	if (!m_bMouseOnButton) 

  00d5b	8b 4d fc	 mov	 ecx, DWORD PTR _this$[ebp]
  00d5e	83 b9 80 00 00
	00 00		 cmp	 DWORD PTR [ecx+128], 0
  00d65	75 3a		 jne	 SHORT $L187340

; 180  : 	{ 
; 181  : 		TRACKMOUSEEVENT   tme; 
; 182  : 		tme.cbSize   =   sizeof(tme); 

  00d67	c7 45 e8 10 00
	00 00		 mov	 DWORD PTR _tme$187341[ebp], 16 ; 00000010H

; 183  : 		tme.hwndTrack   =   m_hWnd; 

  00d6e	8b 55 fc	 mov	 edx, DWORD PTR _this$[ebp]
  00d71	8b 42 20	 mov	 eax, DWORD PTR [edx+32]
  00d74	89 45 f0	 mov	 DWORD PTR _tme$187341[ebp+8], eax

; 184  : 		tme.dwFlags   =   TME_LEAVE   |   TME_HOVER; 

  00d77	c7 45 ec 03 00
	00 00		 mov	 DWORD PTR _tme$187341[ebp+4], 3

; 185  : 		tme.dwHoverTime   =   1; 

  00d7e	c7 45 f4 01 00
	00 00		 mov	 DWORD PTR _tme$187341[ebp+12], 1

; 186  : 		m_bMouseOnButton   =   _TrackMouseEvent(&tme); 

  00d85	8b f4		 mov	 esi, esp
  00d87	8d 4d e8	 lea	 ecx, DWORD PTR _tme$187341[ebp]
  00d8a	51		 push	 ecx
  00d8b	ff 15 00 00 00
	00		 call	 DWORD PTR __imp___TrackMouseEvent@4
  00d91	3b f4		 cmp	 esi, esp
  00d93	e8 00 00 00 00	 call	 __RTC_CheckEsp
  00d98	8b 55 fc	 mov	 edx, DWORD PTR _this$[ebp]
  00d9b	89 82 80 00 00
	00		 mov	 DWORD PTR [edx+128], eax
$L187340:

; 187  : 	} 
; 188  : 	CButton::OnMouseMove(nFlags, point);

  00da1	8b 45 10	 mov	 eax, DWORD PTR _point$[ebp+4]
  00da4	50		 push	 eax
  00da5	8b 4d 0c	 mov	 ecx, DWORD PTR _point$[ebp]
  00da8	51		 push	 ecx
  00da9	8b 55 08	 mov	 edx, DWORD PTR _nFlags$[ebp]
  00dac	52		 push	 edx
  00dad	8b 4d fc	 mov	 ecx, DWORD PTR _this$[ebp]
  00db0	e8 00 00 00 00	 call	 ?OnMouseMove@CWnd@@IAEXIVCPoint@@@Z ; CWnd::OnMouseMove
$L187333:

; 189  : }

  00db5	52		 push	 edx
  00db6	8b cd		 mov	 ecx, ebp
  00db8	50		 push	 eax
  00db9	8d 15 00 00 00
	00		 lea	 edx, DWORD PTR $L188330
  00dbf	e8 00 00 00 00	 call	 @_RTC_CheckStackVars@8
  00dc4	58		 pop	 eax
  00dc5	5a		 pop	 edx
  00dc6	5e		 pop	 esi
  00dc7	83 c4 24	 add	 esp, 36			; 00000024H
  00dca	3b ec		 cmp	 ebp, esp
  00dcc	e8 00 00 00 00	 call	 __RTC_CheckEsp
  00dd1	8b e5		 mov	 esp, ebp
  00dd3	5d		 pop	 ebp
  00dd4	c2 0c 00	 ret	 12			; 0000000cH
$L188330:
  00dd7	01 00 00 00	 DD	 1
  00ddb	00 00 00 00	 DD	 $L188329
$L188329:
  00ddf	e8 ff ff ff	 DD	 -24			; ffffffe8H
  00de3	10 00 00 00	 DD	 16			; 00000010H
  00de7	00 00 00 00	 DD	 $L188328
$L188328:
  00deb	74		 DB	 116			; 00000074H
  00dec	6d		 DB	 109			; 0000006dH
  00ded	65		 DB	 101			; 00000065H
  00dee	00		 DB	 0
?OnMouseMove@CSkinButton2@@QAEXIVCPoint@@@Z ENDP	; CSkinButton2::OnMouseMove
_TEXT	ENDS
PUBLIC	?SetToolTipText@CSkinButton2@@QAEXV?$CStringT@DV?$StrTraitMFC_DLL@DV?$ChTraitsCRT@D@ATL@@@@@ATL@@H@Z ; CSkinButton2::SetToolTipText
PUBLIC	?DeleteToolTip@CSkinButton2@@QAEXXZ		; CSkinButton2::DeleteToolTip
EXTRN	__imp__IsWindow@4:NEAR
EXTRN	?Update@CToolTipCtrl@@QAEXXZ:NEAR		; CToolTipCtrl::Update
EXTRN	__imp_??0?$CStringT@DV?$StrTraitMFC_DLL@DV?$ChTraitsCRT@D@ATL@@@@@ATL@@QAE@ABV01@@Z:NEAR
; Function compile flags: /Odt /RTCsu
_TEXT	SEGMENT
tv129 = -12						; size = 4
$T188332 = -8						; size = 4
_this$ = -4						; size = 4
_wParam$ = 8						; size = 4
_lParam$ = 12						; size = 4
?OnMouseHover@CSkinButton2@@QAEJIJ@Z PROC NEAR		; CSkinButton2::OnMouseHover
; _this$ = ecx

; 191  : { 	

  00df0	55		 push	 ebp
  00df1	8b ec		 mov	 ebp, esp
  00df3	83 ec 0c	 sub	 esp, 12			; 0000000cH
  00df6	56		 push	 esi
  00df7	c7 45 f4 cc cc
	cc cc		 mov	 DWORD PTR [ebp-12], -858993460 ; ccccccccH
  00dfe	c7 45 f8 cc cc
	cc cc		 mov	 DWORD PTR [ebp-8], -858993460 ; ccccccccH
  00e05	c7 45 fc cc cc
	cc cc		 mov	 DWORD PTR [ebp-4], -858993460 ; ccccccccH
  00e0c	89 4d fc	 mov	 DWORD PTR _this$[ebp], ecx

; 192  : 	m_bMouseOnButton = TRUE;

  00e0f	8b 45 fc	 mov	 eax, DWORD PTR _this$[ebp]
  00e12	c7 80 80 00 00
	00 01 00 00 00	 mov	 DWORD PTR [eax+128], 1

; 193  : 	this->Invalidate();

  00e1c	6a 01		 push	 1
  00e1e	8b 4d fc	 mov	 ecx, DWORD PTR _this$[ebp]
  00e21	e8 00 00 00 00	 call	 ?Invalidate@CWnd@@QAEXH@Z ; CWnd::Invalidate

; 194  : 
; 195  : 	DeleteToolTip();

  00e26	8b 4d fc	 mov	 ecx, DWORD PTR _this$[ebp]
  00e29	e8 00 00 00 00	 call	 ?DeleteToolTip@CSkinButton2@@QAEXXZ ; CSkinButton2::DeleteToolTip

; 196  : 
; 197  : 	SetToolTipText(m_tooltext);

  00e2e	6a 01		 push	 1
  00e30	8b 4d fc	 mov	 ecx, DWORD PTR _this$[ebp]
  00e33	83 c1 78	 add	 ecx, 120		; 00000078H
  00e36	51		 push	 ecx
  00e37	8b d4		 mov	 edx, esp
  00e39	89 65 f8	 mov	 DWORD PTR $T188332[ebp], esp
  00e3c	8b f4		 mov	 esi, esp
  00e3e	51		 push	 ecx
  00e3f	8b ca		 mov	 ecx, edx
  00e41	ff 15 00 00 00
	00		 call	 DWORD PTR __imp_??0?$CStringT@DV?$StrTraitMFC_DLL@DV?$ChTraitsCRT@D@ATL@@@@@ATL@@QAE@ABV01@@Z
  00e47	3b f4		 cmp	 esi, esp
  00e49	e8 00 00 00 00	 call	 __RTC_CheckEsp
  00e4e	89 45 f4	 mov	 DWORD PTR tv129[ebp], eax
  00e51	8b 4d fc	 mov	 ecx, DWORD PTR _this$[ebp]
  00e54	e8 00 00 00 00	 call	 ?SetToolTipText@CSkinButton2@@QAEXV?$CStringT@DV?$StrTraitMFC_DLL@DV?$ChTraitsCRT@D@ATL@@@@@ATL@@H@Z ; CSkinButton2::SetToolTipText

; 198  : 
; 199  : 	if (m_pToolTip != NULL)

  00e59	8b 45 fc	 mov	 eax, DWORD PTR _this$[ebp]
  00e5c	83 78 74 00	 cmp	 DWORD PTR [eax+116], 0
  00e60	74 28		 je	 SHORT $L187348

; 200  : 	{
; 201  : 		if (::IsWindow(m_pToolTip->m_hWnd))

  00e62	8b 4d fc	 mov	 ecx, DWORD PTR _this$[ebp]
  00e65	8b 51 74	 mov	 edx, DWORD PTR [ecx+116]
  00e68	8b f4		 mov	 esi, esp
  00e6a	8b 42 20	 mov	 eax, DWORD PTR [edx+32]
  00e6d	50		 push	 eax
  00e6e	ff 15 00 00 00
	00		 call	 DWORD PTR __imp__IsWindow@4
  00e74	3b f4		 cmp	 esi, esp
  00e76	e8 00 00 00 00	 call	 __RTC_CheckEsp
  00e7b	85 c0		 test	 eax, eax
  00e7d	74 0b		 je	 SHORT $L187348

; 202  : 		{
; 203  : 		m_pToolTip->Update();

  00e7f	8b 4d fc	 mov	 ecx, DWORD PTR _this$[ebp]
  00e82	8b 49 74	 mov	 ecx, DWORD PTR [ecx+116]
  00e85	e8 00 00 00 00	 call	 ?Update@CToolTipCtrl@@QAEXXZ ; CToolTipCtrl::Update
$L187348:

; 204  : 		}
; 205  : 	}
; 206  : 	return 1;

  00e8a	b8 01 00 00 00	 mov	 eax, 1

; 207  : } 

  00e8f	5e		 pop	 esi
  00e90	83 c4 0c	 add	 esp, 12			; 0000000cH
  00e93	3b ec		 cmp	 ebp, esp
  00e95	e8 00 00 00 00	 call	 __RTC_CheckEsp
  00e9a	8b e5		 mov	 esp, ebp
  00e9c	5d		 pop	 ebp
  00e9d	c2 08 00	 ret	 8
?OnMouseHover@CSkinButton2@@QAEJIJ@Z ENDP		; CSkinButton2::OnMouseHover
; Function compile flags: /Odt /RTCsu
_this$ = -4						; size = 4
_wParam$ = 8						; size = 4
_lParam$ = 12						; size = 4
?OnMouseLeave@CSkinButton2@@QAEJIJ@Z PROC NEAR		; CSkinButton2::OnMouseLeave
; _this$ = ecx

; 209  : { 	

  00ea0	55		 push	 ebp
  00ea1	8b ec		 mov	 ebp, esp
  00ea3	51		 push	 ecx
  00ea4	c7 45 fc cc cc
	cc cc		 mov	 DWORD PTR [ebp-4], -858993460 ; ccccccccH
  00eab	89 4d fc	 mov	 DWORD PTR _this$[ebp], ecx

; 210  : 	m_bMouseOnButton = FALSE;

  00eae	8b 45 fc	 mov	 eax, DWORD PTR _this$[ebp]
  00eb1	c7 80 80 00 00
	00 00 00 00 00	 mov	 DWORD PTR [eax+128], 0

; 211  : 	this->Invalidate();

  00ebb	6a 01		 push	 1
  00ebd	8b 4d fc	 mov	 ecx, DWORD PTR _this$[ebp]
  00ec0	e8 00 00 00 00	 call	 ?Invalidate@CWnd@@QAEXH@Z ; CWnd::Invalidate

; 212  : 	return 1;

  00ec5	b8 01 00 00 00	 mov	 eax, 1

; 213  : }

  00eca	83 c4 04	 add	 esp, 4
  00ecd	3b ec		 cmp	 ebp, esp
  00ecf	e8 00 00 00 00	 call	 __RTC_CheckEsp
  00ed4	8b e5		 mov	 esp, ebp
  00ed6	5d		 pop	 ebp
  00ed7	c2 08 00	 ret	 8
?OnMouseLeave@CSkinButton2@@QAEJIJ@Z ENDP		; CSkinButton2::OnMouseLeave
_TEXT	ENDS
EXTRN	?OnLButtonDown@CWnd@@IAEXIVCPoint@@@Z:NEAR	; CWnd::OnLButtonDown
EXTRN	?SetCapture@CWnd@@QAEPAV1@XZ:NEAR		; CWnd::SetCapture
; Function compile flags: /Odt /RTCsu
_TEXT	SEGMENT
$T188336 = -12						; size = 8
_this$ = -4						; size = 4
_nFlags$ = 8						; size = 4
_point$ = 12						; size = 8
?OnLButtonDown@CSkinButton2@@QAEXIVCPoint@@@Z PROC NEAR	; CSkinButton2::OnLButtonDown
; _this$ = ecx

; 215  : {

  00ee0	55		 push	 ebp
  00ee1	8b ec		 mov	 ebp, esp
  00ee3	83 ec 0c	 sub	 esp, 12			; 0000000cH
  00ee6	c7 45 f4 cc cc
	cc cc		 mov	 DWORD PTR [ebp-12], -858993460 ; ccccccccH
  00eed	c7 45 f8 cc cc
	cc cc		 mov	 DWORD PTR [ebp-8], -858993460 ; ccccccccH
  00ef4	c7 45 fc cc cc
	cc cc		 mov	 DWORD PTR [ebp-4], -858993460 ; ccccccccH
  00efb	89 4d fc	 mov	 DWORD PTR _this$[ebp], ecx

; 216  : 	// TODO: /
; 217  : 	if(m_bUseResponseRect && !m_rcResponse.PtInRect(point))

  00efe	8b 45 fc	 mov	 eax, DWORD PTR _this$[ebp]
  00f01	83 78 70 00	 cmp	 DWORD PTR [eax+112], 0
  00f05	74 3e		 je	 SHORT $L187361
  00f07	8b 4d 0c	 mov	 ecx, DWORD PTR _point$[ebp]
  00f0a	89 4d f4	 mov	 DWORD PTR $T188336[ebp], ecx
  00f0d	8b 55 10	 mov	 edx, DWORD PTR _point$[ebp+4]
  00f10	89 55 f8	 mov	 DWORD PTR $T188336[ebp+4], edx
  00f13	8b 45 f8	 mov	 eax, DWORD PTR $T188336[ebp+4]
  00f16	50		 push	 eax
  00f17	8b 4d f4	 mov	 ecx, DWORD PTR $T188336[ebp]
  00f1a	51		 push	 ecx
  00f1b	8b 4d fc	 mov	 ecx, DWORD PTR _this$[ebp]
  00f1e	83 c1 60	 add	 ecx, 96			; 00000060H
  00f21	e8 00 00 00 00	 call	 ?PtInRect@CRect@@QBEHUtagPOINT@@@Z ; CRect::PtInRect
  00f26	85 c0		 test	 eax, eax
  00f28	75 1b		 jne	 SHORT $L187361

; 218  : 	{
; 219  : 		//CButton::OnMouseMove(nFlags, point);
; 220  : 		SendMouseMessageToParent(WM_LBUTTONDOWN, nFlags, point);

  00f2a	8b 55 10	 mov	 edx, DWORD PTR _point$[ebp+4]
  00f2d	52		 push	 edx
  00f2e	8b 45 0c	 mov	 eax, DWORD PTR _point$[ebp]
  00f31	50		 push	 eax
  00f32	8b 4d 08	 mov	 ecx, DWORD PTR _nFlags$[ebp]
  00f35	51		 push	 ecx
  00f36	68 01 02 00 00	 push	 513			; 00000201H
  00f3b	8b 4d fc	 mov	 ecx, DWORD PTR _this$[ebp]
  00f3e	e8 00 00 00 00	 call	 ?SendMouseMessageToParent@CSkinButton2@@QAEXIIVCPoint@@@Z ; CSkinButton2::SendMouseMessageToParent

; 221  : 		return;

  00f43	eb 37		 jmp	 SHORT $L187359
$L187361:

; 222  : 	}
; 223  : 
; 224  : 	if( m_bSelected )

  00f45	8b 55 fc	 mov	 edx, DWORD PTR _this$[ebp]
  00f48	83 ba 84 00 00
	00 00		 cmp	 DWORD PTR [edx+132], 0
  00f4f	74 0a		 je	 SHORT $L187362

; 225  : 	{
; 226  : 		this->SetCapture();

  00f51	8b 4d fc	 mov	 ecx, DWORD PTR _this$[ebp]
  00f54	e8 00 00 00 00	 call	 ?SetCapture@CWnd@@QAEPAV1@XZ ; CWnd::SetCapture

; 227  : 		return ;

  00f59	eb 21		 jmp	 SHORT $L187359
$L187362:

; 228  : 	}
; 229  : 	m_bMouseDown = TRUE;

  00f5b	8b 45 fc	 mov	 eax, DWORD PTR _this$[ebp]
  00f5e	c7 80 88 00 00
	00 01 00 00 00	 mov	 DWORD PTR [eax+136], 1

; 230  : 	CButton::OnLButtonDown(nFlags, point);

  00f68	8b 4d 10	 mov	 ecx, DWORD PTR _point$[ebp+4]
  00f6b	51		 push	 ecx
  00f6c	8b 55 0c	 mov	 edx, DWORD PTR _point$[ebp]
  00f6f	52		 push	 edx
  00f70	8b 45 08	 mov	 eax, DWORD PTR _nFlags$[ebp]
  00f73	50		 push	 eax
  00f74	8b 4d fc	 mov	 ecx, DWORD PTR _this$[ebp]
  00f77	e8 00 00 00 00	 call	 ?OnLButtonDown@CWnd@@IAEXIVCPoint@@@Z ; CWnd::OnLButtonDown
$L187359:

; 231  : }

  00f7c	83 c4 0c	 add	 esp, 12			; 0000000cH
  00f7f	3b ec		 cmp	 ebp, esp
  00f81	e8 00 00 00 00	 call	 __RTC_CheckEsp
  00f86	8b e5		 mov	 esp, ebp
  00f88	5d		 pop	 ebp
  00f89	c2 0c 00	 ret	 12			; 0000000cH
?OnLButtonDown@CSkinButton2@@QAEXIVCPoint@@@Z ENDP	; CSkinButton2::OnLButtonDown
_TEXT	ENDS
EXTRN	?OnLButtonUp@CWnd@@IAEXIVCPoint@@@Z:NEAR	; CWnd::OnLButtonUp
EXTRN	__imp__ReleaseCapture@0:NEAR
; Function compile flags: /Odt /RTCsu
_TEXT	SEGMENT
$T188338 = -12						; size = 8
_this$ = -4						; size = 4
_nFlags$ = 8						; size = 4
_point$ = 12						; size = 8
?OnLButtonUp@CSkinButton2@@QAEXIVCPoint@@@Z PROC NEAR	; CSkinButton2::OnLButtonUp
; _this$ = ecx

; 234  : {

  00f90	55		 push	 ebp
  00f91	8b ec		 mov	 ebp, esp
  00f93	83 ec 0c	 sub	 esp, 12			; 0000000cH
  00f96	56		 push	 esi
  00f97	c7 45 f4 cc cc
	cc cc		 mov	 DWORD PTR [ebp-12], -858993460 ; ccccccccH
  00f9e	c7 45 f8 cc cc
	cc cc		 mov	 DWORD PTR [ebp-8], -858993460 ; ccccccccH
  00fa5	c7 45 fc cc cc
	cc cc		 mov	 DWORD PTR [ebp-4], -858993460 ; ccccccccH
  00fac	89 4d fc	 mov	 DWORD PTR _this$[ebp], ecx

; 235  : 	// TODO: /
; 236  : 	if(m_bUseResponseRect && !m_rcResponse.PtInRect(point))

  00faf	8b 45 fc	 mov	 eax, DWORD PTR _this$[ebp]
  00fb2	83 78 70 00	 cmp	 DWORD PTR [eax+112], 0
  00fb6	74 4d		 je	 SHORT $L187369
  00fb8	8b 4d 0c	 mov	 ecx, DWORD PTR _point$[ebp]
  00fbb	89 4d f4	 mov	 DWORD PTR $T188338[ebp], ecx
  00fbe	8b 55 10	 mov	 edx, DWORD PTR _point$[ebp+4]
  00fc1	89 55 f8	 mov	 DWORD PTR $T188338[ebp+4], edx
  00fc4	8b 45 f8	 mov	 eax, DWORD PTR $T188338[ebp+4]
  00fc7	50		 push	 eax
  00fc8	8b 4d f4	 mov	 ecx, DWORD PTR $T188338[ebp]
  00fcb	51		 push	 ecx
  00fcc	8b 4d fc	 mov	 ecx, DWORD PTR _this$[ebp]
  00fcf	83 c1 60	 add	 ecx, 96			; 00000060H
  00fd2	e8 00 00 00 00	 call	 ?PtInRect@CRect@@QBEHUtagPOINT@@@Z ; CRect::PtInRect
  00fd7	85 c0		 test	 eax, eax
  00fd9	75 2a		 jne	 SHORT $L187369

; 237  : 	{
; 238  : 		//CButton::OnMouseMove(nFlags, point);
; 239  : 		::ReleaseCapture();

  00fdb	8b f4		 mov	 esi, esp
  00fdd	ff 15 00 00 00
	00		 call	 DWORD PTR __imp__ReleaseCapture@0
  00fe3	3b f4		 cmp	 esi, esp
  00fe5	e8 00 00 00 00	 call	 __RTC_CheckEsp

; 240  : 		SendMouseMessageToParent(WM_LBUTTONUP, nFlags, point);

  00fea	8b 55 10	 mov	 edx, DWORD PTR _point$[ebp+4]
  00fed	52		 push	 edx
  00fee	8b 45 0c	 mov	 eax, DWORD PTR _point$[ebp]
  00ff1	50		 push	 eax
  00ff2	8b 4d 08	 mov	 ecx, DWORD PTR _nFlags$[ebp]
  00ff5	51		 push	 ecx
  00ff6	68 02 02 00 00	 push	 514			; 00000202H
  00ffb	8b 4d fc	 mov	 ecx, DWORD PTR _this$[ebp]
  00ffe	e8 00 00 00 00	 call	 ?SendMouseMessageToParent@CSkinButton2@@QAEXIIVCPoint@@@Z ; CSkinButton2::SendMouseMessageToParent

; 241  : 		return;

  01003	eb 3e		 jmp	 SHORT $L187367
$L187369:

; 242  : 	}
; 243  : 
; 244  : 	if( m_bSelected )

  01005	8b 55 fc	 mov	 edx, DWORD PTR _this$[ebp]
  01008	83 ba 84 00 00
	00 00		 cmp	 DWORD PTR [edx+132], 0
  0100f	74 11		 je	 SHORT $L187370

; 245  : 	{
; 246  : 		::ReleaseCapture();

  01011	8b f4		 mov	 esi, esp
  01013	ff 15 00 00 00
	00		 call	 DWORD PTR __imp__ReleaseCapture@0
  01019	3b f4		 cmp	 esi, esp
  0101b	e8 00 00 00 00	 call	 __RTC_CheckEsp

; 247  : 		return ;

  01020	eb 21		 jmp	 SHORT $L187367
$L187370:

; 248  : 	}
; 249  : 	m_bMouseDown = FALSE;

  01022	8b 45 fc	 mov	 eax, DWORD PTR _this$[ebp]
  01025	c7 80 88 00 00
	00 00 00 00 00	 mov	 DWORD PTR [eax+136], 0

; 250  : 	CButton::OnLButtonUp(nFlags, point);

  0102f	8b 4d 10	 mov	 ecx, DWORD PTR _point$[ebp+4]
  01032	51		 push	 ecx
  01033	8b 55 0c	 mov	 edx, DWORD PTR _point$[ebp]
  01036	52		 push	 edx
  01037	8b 45 08	 mov	 eax, DWORD PTR _nFlags$[ebp]
  0103a	50		 push	 eax
  0103b	8b 4d fc	 mov	 ecx, DWORD PTR _this$[ebp]
  0103e	e8 00 00 00 00	 call	 ?OnLButtonUp@CWnd@@IAEXIVCPoint@@@Z ; CWnd::OnLButtonUp
$L187367:

; 251  : }

  01043	5e		 pop	 esi
  01044	83 c4 0c	 add	 esp, 12			; 0000000cH
  01047	3b ec		 cmp	 ebp, esp
  01049	e8 00 00 00 00	 call	 __RTC_CheckEsp
  0104e	8b e5		 mov	 esp, ebp
  01050	5d		 pop	 ebp
  01051	c2 0c 00	 ret	 12			; 0000000cH
?OnLButtonUp@CSkinButton2@@QAEXIVCPoint@@@Z ENDP	; CSkinButton2::OnLButtonUp
_TEXT	ENDS
PUBLIC	??1Bitmap@Gdiplus@@UAE@XZ			; Gdiplus::Bitmap::~Bitmap
PUBLIC	??0SolidBrush@Gdiplus@@QAE@ABVColor@1@@Z	; Gdiplus::SolidBrush::SolidBrush
PUBLIC	??1SolidBrush@Gdiplus@@UAE@XZ			; Gdiplus::SolidBrush::~SolidBrush
PUBLIC	?FromImage@Graphics@Gdiplus@@SAPAV12@PAVImage@2@@Z ; Gdiplus::Graphics::FromImage
PUBLIC	??0Graphics@Gdiplus@@QAE@PAUHDC__@@@Z		; Gdiplus::Graphics::Graphics
PUBLIC	??1Graphics@Gdiplus@@QAE@XZ			; Gdiplus::Graphics::~Graphics
PUBLIC	??0RectF@Gdiplus@@QAE@XZ			; Gdiplus::RectF::RectF
PUBLIC	??0RectF@Gdiplus@@QAE@MMMM@Z			; Gdiplus::RectF::RectF
PUBLIC	??0CMemDC@@QAE@PAVCDC@@ABVCRect@@@Z		; CMemDC::CMemDC
PUBLIC	??1CMemDC@@UAE@XZ				; CMemDC::~CMemDC
PUBLIC	??CCMemDC@@QAEPAV0@XZ				; CMemDC::operator->
PUBLIC	?DrawString@Graphics@Gdiplus@@QAE?AW4Status@2@PB_WHPBVFont@2@ABVRectF@2@PBVStringFormat@2@PBVBrush@2@@Z ; Gdiplus::Graphics::DrawString
PUBLIC	?DrawImage@Graphics@Gdiplus@@QAE?AW4Status@2@PAVImage@2@ABVRectF@2@MMMMW4Unit@2@PBVImageAttributes@2@P6GHPAX@Z4@Z ; Gdiplus::Graphics::DrawImage
PUBLIC	?DrawImage@CSkinButton2@@AAEXAAVGraphics@Gdiplus@@W4BTN_DRAW_HUE@1@@Z ; CSkinButton2::DrawImage
PUBLIC	?DrawFrame@CSkinButton2@@AAEXAAVGraphics@Gdiplus@@AAVCRect@@@Z ; CSkinButton2::DrawFrame
PUBLIC	??0Color@Gdiplus@@QAE@EEEE@Z			; Gdiplus::Color::Color
PUBLIC	??0StringFormat@Gdiplus@@QAE@HG@Z		; Gdiplus::StringFormat::StringFormat
PUBLIC	??1StringFormat@Gdiplus@@QAE@XZ			; Gdiplus::StringFormat::~StringFormat
PUBLIC	?SetAlignment@StringFormat@Gdiplus@@QAE?AW4Status@2@W4StringAlignment@2@@Z ; Gdiplus::StringFormat::SetAlignment
PUBLIC	?GetWidth@Image@Gdiplus@@QAEIXZ			; Gdiplus::Image::GetWidth
PUBLIC	?GetHeight@Image@Gdiplus@@QAEIXZ		; Gdiplus::Image::GetHeight
PUBLIC	__real@40000000
PUBLIC	__real@3f800000
PUBLIC	??0Bitmap@Gdiplus@@QAE@HHPAVGraphics@1@@Z	; Gdiplus::Bitmap::Bitmap
EXTRN	??0CClientDC@@QAE@PAVCWnd@@@Z:NEAR		; CClientDC::CClientDC
EXTRN	??1CClientDC@@UAE@XZ:NEAR			; CClientDC::~CClientDC
EXTRN	?FromHandle@CDC@@SGPAV1@PAUHDC__@@@Z:NEAR	; CDC::FromHandle
EXTRN	__imp_?GetLength@?$CSimpleStringT@D$00@ATL@@QBEHXZ:NEAR
xdata$x	SEGMENT
$T188375 DD	0ffffffffH
	DD	FLAT:$L188345
	DD	00H
	DD	FLAT:$L188346
	DD	01H
	DD	FLAT:$L188347
	DD	02H
	DD	FLAT:$L188348
	DD	02H
	DD	FLAT:$L188349
	DD	04H
	DD	FLAT:$L188350
	DD	05H
	DD	FLAT:$L188351
	DD	05H
	DD	FLAT:$L188352
$T188354 DD	019930520H
	DD	08H
	DD	FLAT:$T188375
	DD	2 DUP(00H)
	DD	2 DUP(00H)
xdata$x	ENDS
;	COMDAT __real@40000000
CONST	SEGMENT
__real@40000000 DD 040000000r			; 2
CONST	ENDS
;	COMDAT __real@3f800000
CONST	SEGMENT
__real@3f800000 DD 03f800000r			; 1
; Function compile flags: /Odt /RTCsu
CONST	ENDS
_TEXT	SEGMENT
tv416 = -2464						; size = 4
tv254 = -2460						; size = 4
tv541 = -2456						; size = 8
tv537 = -2448						; size = 8
tv414 = -2440						; size = 4
tv288 = -2436						; size = 4
tv522 = -2432						; size = 8
tv516 = -2424						; size = 8
tv508 = -2416						; size = 8
tv502 = -2408						; size = 8
tv487 = -2400						; size = 4
tv485 = -2396						; size = 4
$T188344 = -2392					; size = 4
$T188343 = -2388					; size = 12
$T188342 = -2376					; size = 4
$T188341 = -2372					; size = 12
_rectBack$187411 = -2356				; size = 16
_rectText$187410 = -2332				; size = 16
_format$187409 = -2308					; size = 8
_wFile$187408 = -2292					; size = 2048
_rc$187407 = -236					; size = 16
_Ptext$187406 = -216					; size = 4
_bmpText$187405 = -208					; size = 16
_clDC$187383 = -184					; size = 20
_rect1$187382 = -156					; size = 16
_pOldBitmap$ = -136					; size = 4
_bmp$ = -128						; size = 8
_graphics$ = -112					; size = 8
_pDC$ = -96						; size = 44
_rect$ = -44						; size = 16
_lState$ = -24						; size = 4
_this$ = -20						; size = 4
__$ArrayPad$ = -16					; size = 4
__$EHRec$ = -12						; size = 12
__$ReturnAddr$ = 4					; size = 4
_lpDrawItemStruct$ = 8					; size = 4
?DrawItem@CSkinButton2@@UAEXPAUtagDRAWITEMSTRUCT@@@Z PROC NEAR ; CSkinButton2::DrawItem
; _this$ = ecx

; 254  : {	

  01060	55		 push	 ebp
  01061	8b ec		 mov	 ebp, esp
  01063	6a ff		 push	 -1
  01065	68 00 00 00 00	 push	 __ehhandler$?DrawItem@CSkinButton2@@UAEXPAUtagDRAWITEMSTRUCT@@@Z
  0106a	64 a1 00 00 00
	00		 mov	 eax, DWORD PTR fs:__except_list
  01070	50		 push	 eax
  01071	64 89 25 00 00
	00 00		 mov	 DWORD PTR fs:__except_list, esp
  01078	81 ec 94 09 00
	00		 sub	 esp, 2452		; 00000994H
  0107e	56		 push	 esi
  0107f	57		 push	 edi
  01080	51		 push	 ecx
  01081	8d bd 60 f6 ff
	ff		 lea	 edi, DWORD PTR [ebp-2464]
  01087	b9 65 02 00 00	 mov	 ecx, 613		; 00000265H
  0108c	b8 cc cc cc cc	 mov	 eax, -858993460		; ccccccccH
  01091	f3 ab		 rep stosd
  01093	59		 pop	 ecx
  01094	a1 00 00 00 00	 mov	 eax, DWORD PTR ___security_cookie
  01099	89 45 f0	 mov	 DWORD PTR __$ArrayPad$[ebp], eax
  0109c	89 4d ec	 mov	 DWORD PTR _this$[ebp], ecx

; 255  : 	UINT lState = lpDrawItemStruct->itemState;	

  0109f	8b 45 08	 mov	 eax, DWORD PTR _lpDrawItemStruct$[ebp]
  010a2	8b 48 10	 mov	 ecx, DWORD PTR [eax+16]
  010a5	89 4d e8	 mov	 DWORD PTR _lState$[ebp], ecx

; 256  : 
; 257  : 	CRect rect;

  010a8	8d 4d d4	 lea	 ecx, DWORD PTR _rect$[ebp]
  010ab	e8 00 00 00 00	 call	 ??0CRect@@QAE@XZ	; CRect::CRect

; 258  : 	GetClientRect(rect);

  010b0	8d 4d d4	 lea	 ecx, DWORD PTR _rect$[ebp]
  010b3	e8 00 00 00 00	 call	 ??BCRect@@QAEPAUtagRECT@@XZ ; CRect::operator tagRECT *
  010b8	50		 push	 eax
  010b9	8b 4d ec	 mov	 ecx, DWORD PTR _this$[ebp]
  010bc	e8 00 00 00 00	 call	 ?GetClientRect@CWnd@@QBEXPAUtagRECT@@@Z ; CWnd::GetClientRect

; 259  : 
; 260  : 	CMemDC pDC( CDC::FromHandle(lpDrawItemStruct->hDC), rect);

  010c1	8d 55 d4	 lea	 edx, DWORD PTR _rect$[ebp]
  010c4	52		 push	 edx
  010c5	8b 45 08	 mov	 eax, DWORD PTR _lpDrawItemStruct$[ebp]
  010c8	8b 48 18	 mov	 ecx, DWORD PTR [eax+24]
  010cb	51		 push	 ecx
  010cc	e8 00 00 00 00	 call	 ?FromHandle@CDC@@SGPAV1@PAUHDC__@@@Z ; CDC::FromHandle
  010d1	50		 push	 eax
  010d2	8d 4d a0	 lea	 ecx, DWORD PTR _pDC$[ebp]
  010d5	e8 00 00 00 00	 call	 ??0CMemDC@@QAE@PAVCDC@@ABVCRect@@@Z ; CMemDC::CMemDC
  010da	c7 45 fc 00 00
	00 00		 mov	 DWORD PTR __$EHRec$[ebp+8], 0

; 261  : 	Gdiplus::Graphics graphics(pDC->m_hDC);

  010e1	8d 4d a0	 lea	 ecx, DWORD PTR _pDC$[ebp]
  010e4	e8 00 00 00 00	 call	 ??CCMemDC@@QAEPAV0@XZ	; CMemDC::operator->
  010e9	8b 50 04	 mov	 edx, DWORD PTR [eax+4]
  010ec	52		 push	 edx
  010ed	8d 4d 90	 lea	 ecx, DWORD PTR _graphics$[ebp]
  010f0	e8 00 00 00 00	 call	 ??0Graphics@Gdiplus@@QAE@PAUHDC__@@@Z ; Gdiplus::Graphics::Graphics
  010f5	c6 45 fc 01	 mov	 BYTE PTR __$EHRec$[ebp+8], 1

; 262  : 
; 263  : 	// get background
; 264  : 	CBitmap bmp, *pOldBitmap;

  010f9	8d 4d 80	 lea	 ecx, DWORD PTR _bmp$[ebp]
  010fc	e8 00 00 00 00	 call	 ??0CBitmap@@QAE@XZ	; CBitmap::CBitmap
  01101	c6 45 fc 02	 mov	 BYTE PTR __$EHRec$[ebp+8], 2

; 265  : 	if (m_dcBk.m_hDC == NULL)

  01105	8b 45 ec	 mov	 eax, DWORD PTR _this$[ebp]
  01108	83 b8 90 00 00
	00 00		 cmp	 DWORD PTR [eax+144], 0
  0110f	0f 85 f5 00 00
	00		 jne	 $L187381

; 266  : 	{
; 267  : 		CRect rect1;

  01115	8d 8d 64 ff ff
	ff		 lea	 ecx, DWORD PTR _rect1$187382[ebp]
  0111b	e8 00 00 00 00	 call	 ??0CRect@@QAE@XZ	; CRect::CRect

; 268  : 		CClientDC clDC(GetParent());

  01120	8b 4d ec	 mov	 ecx, DWORD PTR _this$[ebp]
  01123	e8 00 00 00 00	 call	 ?GetParent@CWnd@@QBEPAV1@XZ ; CWnd::GetParent
  01128	50		 push	 eax
  01129	8d 8d 48 ff ff
	ff		 lea	 ecx, DWORD PTR _clDC$187383[ebp]
  0112f	e8 00 00 00 00	 call	 ??0CClientDC@@QAE@PAVCWnd@@@Z ; CClientDC::CClientDC
  01134	c6 45 fc 03	 mov	 BYTE PTR __$EHRec$[ebp+8], 3

; 269  : 		GetWindowRect(rect1);

  01138	8d 8d 64 ff ff
	ff		 lea	 ecx, DWORD PTR _rect1$187382[ebp]
  0113e	e8 00 00 00 00	 call	 ??BCRect@@QAEPAUtagRECT@@XZ ; CRect::operator tagRECT *
  01143	50		 push	 eax
  01144	8b 4d ec	 mov	 ecx, DWORD PTR _this$[ebp]
  01147	e8 00 00 00 00	 call	 ?GetWindowRect@CWnd@@QBEXPAUtagRECT@@@Z ; CWnd::GetWindowRect

; 270  : 		GetParent()->ScreenToClient(rect1);

  0114c	8d 8d 64 ff ff
	ff		 lea	 ecx, DWORD PTR _rect1$187382[ebp]
  01152	e8 00 00 00 00	 call	 ??BCRect@@QAEPAUtagRECT@@XZ ; CRect::operator tagRECT *
  01157	50		 push	 eax
  01158	8b 4d ec	 mov	 ecx, DWORD PTR _this$[ebp]
  0115b	e8 00 00 00 00	 call	 ?GetParent@CWnd@@QBEPAV1@XZ ; CWnd::GetParent
  01160	8b c8		 mov	 ecx, eax
  01162	e8 00 00 00 00	 call	 ?ScreenToClient@CWnd@@QBEXPAUtagRECT@@@Z ; CWnd::ScreenToClient

; 271  : 
; 272  : 		m_dcBk.CreateCompatibleDC(&clDC);

  01167	8d 8d 48 ff ff
	ff		 lea	 ecx, DWORD PTR _clDC$187383[ebp]
  0116d	51		 push	 ecx
  0116e	8b 4d ec	 mov	 ecx, DWORD PTR _this$[ebp]
  01171	81 c1 8c 00 00
	00		 add	 ecx, 140		; 0000008cH
  01177	e8 00 00 00 00	 call	 ?CreateCompatibleDC@CDC@@QAEHPAV1@@Z ; CDC::CreateCompatibleDC

; 273  : 		bmp.CreateCompatibleBitmap(&clDC, rect.Width(), rect.Height());

  0117c	8d 4d d4	 lea	 ecx, DWORD PTR _rect$[ebp]
  0117f	e8 00 00 00 00	 call	 ?Height@CRect@@QBEHXZ	; CRect::Height
  01184	50		 push	 eax
  01185	8d 4d d4	 lea	 ecx, DWORD PTR _rect$[ebp]
  01188	e8 00 00 00 00	 call	 ?Width@CRect@@QBEHXZ	; CRect::Width
  0118d	50		 push	 eax
  0118e	8d 95 48 ff ff
	ff		 lea	 edx, DWORD PTR _clDC$187383[ebp]
  01194	52		 push	 edx
  01195	8d 4d 80	 lea	 ecx, DWORD PTR _bmp$[ebp]
  01198	e8 00 00 00 00	 call	 ?CreateCompatibleBitmap@CBitmap@@QAEHPAVCDC@@HH@Z ; CBitmap::CreateCompatibleBitmap

; 274  : 		pOldBitmap = m_dcBk.SelectObject(&bmp);

  0119d	8d 45 80	 lea	 eax, DWORD PTR _bmp$[ebp]
  011a0	50		 push	 eax
  011a1	8b 4d ec	 mov	 ecx, DWORD PTR _this$[ebp]
  011a4	81 c1 8c 00 00
	00		 add	 ecx, 140		; 0000008cH
  011aa	e8 00 00 00 00	 call	 ?SelectObject@CDC@@QAEPAVCBitmap@@PAV2@@Z ; CDC::SelectObject
  011af	89 85 78 ff ff
	ff		 mov	 DWORD PTR _pOldBitmap$[ebp], eax

; 275  : 		m_dcBk.BitBlt(0, 0, rect.Width(), rect.Height(), &clDC, rect1.left, rect1.top, SRCCOPY);

  011b5	68 20 00 cc 00	 push	 13369376		; 00cc0020H
  011ba	8b 8d 68 ff ff
	ff		 mov	 ecx, DWORD PTR _rect1$187382[ebp+4]
  011c0	51		 push	 ecx
  011c1	8b 95 64 ff ff
	ff		 mov	 edx, DWORD PTR _rect1$187382[ebp]
  011c7	52		 push	 edx
  011c8	8d 85 48 ff ff
	ff		 lea	 eax, DWORD PTR _clDC$187383[ebp]
  011ce	50		 push	 eax
  011cf	8d 4d d4	 lea	 ecx, DWORD PTR _rect$[ebp]
  011d2	e8 00 00 00 00	 call	 ?Height@CRect@@QBEHXZ	; CRect::Height
  011d7	50		 push	 eax
  011d8	8d 4d d4	 lea	 ecx, DWORD PTR _rect$[ebp]
  011db	e8 00 00 00 00	 call	 ?Width@CRect@@QBEHXZ	; CRect::Width
  011e0	50		 push	 eax
  011e1	6a 00		 push	 0
  011e3	6a 00		 push	 0
  011e5	8b 4d ec	 mov	 ecx, DWORD PTR _this$[ebp]
  011e8	81 c1 8c 00 00
	00		 add	 ecx, 140		; 0000008cH
  011ee	e8 00 00 00 00	 call	 ?BitBlt@CDC@@QAEHHHHHPAV1@HHK@Z ; CDC::BitBlt

; 276  : 		bmp.DeleteObject();

  011f3	8d 4d 80	 lea	 ecx, DWORD PTR _bmp$[ebp]
  011f6	e8 00 00 00 00	 call	 ?DeleteObject@CGdiObject@@QAEHXZ ; CGdiObject::DeleteObject

; 277  : 	}

  011fb	c6 45 fc 02	 mov	 BYTE PTR __$EHRec$[ebp+8], 2
  011ff	8d 8d 48 ff ff
	ff		 lea	 ecx, DWORD PTR _clDC$187383[ebp]
  01205	e8 00 00 00 00	 call	 ??1CClientDC@@UAE@XZ	; CClientDC::~CClientDC
$L187381:

; 278  : 	// paint backGround
; 279  : 
; 280  : 	pDC->BitBlt(0, 0, rect.Width(), rect.Height(), &m_dcBk, 0, 0, SRCCOPY);

  0120a	68 20 00 cc 00	 push	 13369376		; 00cc0020H
  0120f	6a 00		 push	 0
  01211	6a 00		 push	 0
  01213	8b 4d ec	 mov	 ecx, DWORD PTR _this$[ebp]
  01216	81 c1 8c 00 00
	00		 add	 ecx, 140		; 0000008cH
  0121c	51		 push	 ecx
  0121d	8d 4d d4	 lea	 ecx, DWORD PTR _rect$[ebp]
  01220	e8 00 00 00 00	 call	 ?Height@CRect@@QBEHXZ	; CRect::Height
  01225	50		 push	 eax
  01226	8d 4d d4	 lea	 ecx, DWORD PTR _rect$[ebp]
  01229	e8 00 00 00 00	 call	 ?Width@CRect@@QBEHXZ	; CRect::Width
  0122e	50		 push	 eax
  0122f	6a 00		 push	 0
  01231	6a 00		 push	 0
  01233	8d 4d a0	 lea	 ecx, DWORD PTR _pDC$[ebp]
  01236	e8 00 00 00 00	 call	 ??CCMemDC@@QAEPAV0@XZ	; CMemDC::operator->
  0123b	8b c8		 mov	 ecx, eax
  0123d	e8 00 00 00 00	 call	 ?BitBlt@CDC@@QAEHHHHHPAV1@HHK@Z ; CDC::BitBlt

; 281  : 
; 282  : 	if( m_bDisable )

  01242	8b 55 ec	 mov	 edx, DWORD PTR _this$[ebp]
  01245	83 ba 84 01 00
	00 00		 cmp	 DWORD PTR [edx+388], 0
  0124c	74 13		 je	 SHORT $L187386

; 283  : 	{
; 284  : 		DrawImage(graphics);

  0124e	6a 00		 push	 0
  01250	8d 45 90	 lea	 eax, DWORD PTR _graphics$[ebp]
  01253	50		 push	 eax
  01254	8b 4d ec	 mov	 ecx, DWORD PTR _this$[ebp]
  01257	e8 00 00 00 00	 call	 ?DrawImage@CSkinButton2@@AAEXAAVGraphics@Gdiplus@@W4BTN_DRAW_HUE@1@@Z ; CSkinButton2::DrawImage

; 285  : 	}
; 286  : 	else

  0125c	e9 1d 01 00 00	 jmp	 $L187387
$L187386:

; 287  : 	{
; 288  : 		if (lState & ODS_DISABLED)

  01261	8b 4d e8	 mov	 ecx, DWORD PTR _lState$[ebp]
  01264	83 e1 04	 and	 ecx, 4
  01267	74 13		 je	 SHORT $L187388

; 289  : 		{
; 290  : 			DrawImage(graphics, DRAW_GRAY);

  01269	6a 02		 push	 2
  0126b	8d 55 90	 lea	 edx, DWORD PTR _graphics$[ebp]
  0126e	52		 push	 edx
  0126f	8b 4d ec	 mov	 ecx, DWORD PTR _this$[ebp]
  01272	e8 00 00 00 00	 call	 ?DrawImage@CSkinButton2@@AAEXAAVGraphics@Gdiplus@@W4BTN_DRAW_HUE@1@@Z ; CSkinButton2::DrawImage

; 291  : 		}
; 292  : 		else

  01277	e9 02 01 00 00	 jmp	 $L187387
$L187388:

; 293  : 		{
; 294  : 			if (m_bSelected )

  0127c	8b 45 ec	 mov	 eax, DWORD PTR _this$[ebp]
  0127f	83 b8 84 00 00
	00 00		 cmp	 DWORD PTR [eax+132], 0
  01286	74 23		 je	 SHORT $L187390

; 295  : 			{
; 296  : 				DrawFrame(graphics,rect );

  01288	8d 4d d4	 lea	 ecx, DWORD PTR _rect$[ebp]
  0128b	51		 push	 ecx
  0128c	8d 55 90	 lea	 edx, DWORD PTR _graphics$[ebp]
  0128f	52		 push	 edx
  01290	8b 4d ec	 mov	 ecx, DWORD PTR _this$[ebp]
  01293	e8 00 00 00 00	 call	 ?DrawFrame@CSkinButton2@@AAEXAAVGraphics@Gdiplus@@AAVCRect@@@Z ; CSkinButton2::DrawFrame

; 297  : 				DrawImage(graphics, DRAW_LIGHT);

  01298	6a 01		 push	 1
  0129a	8d 45 90	 lea	 eax, DWORD PTR _graphics$[ebp]
  0129d	50		 push	 eax
  0129e	8b 4d ec	 mov	 ecx, DWORD PTR _this$[ebp]
  012a1	e8 00 00 00 00	 call	 ?DrawImage@CSkinButton2@@AAEXAAVGraphics@Gdiplus@@W4BTN_DRAW_HUE@1@@Z ; CSkinButton2::DrawImage

; 298  : 			}
; 299  : 			else

  012a6	e9 d3 00 00 00	 jmp	 $L187387
$L187390:

; 300  : 			{
; 301  : 				if (lState & ODS_SELECTED)

  012ab	8b 4d e8	 mov	 ecx, DWORD PTR _lState$[ebp]
  012ae	83 e1 01	 and	 ecx, 1
  012b1	74 2c		 je	 SHORT $L187392

; 302  : 				{
; 303  : 					DrawFrame(graphics,rect );

  012b3	8d 55 d4	 lea	 edx, DWORD PTR _rect$[ebp]
  012b6	52		 push	 edx
  012b7	8d 45 90	 lea	 eax, DWORD PTR _graphics$[ebp]
  012ba	50		 push	 eax
  012bb	8b 4d ec	 mov	 ecx, DWORD PTR _this$[ebp]
  012be	e8 00 00 00 00	 call	 ?DrawFrame@CSkinButton2@@AAEXAAVGraphics@Gdiplus@@AAVCRect@@@Z ; CSkinButton2::DrawFrame

; 304  : 					if( m_enmuDrawType != NO_FRAME_SELECT )

  012c3	8b 4d ec	 mov	 ecx, DWORD PTR _this$[ebp]
  012c6	83 79 54 10	 cmp	 DWORD PTR [ecx+84], 16	; 00000010H
  012ca	74 0e		 je	 SHORT $L187393

; 305  : 					{
; 306  : 						DrawImage(graphics, DRAW_LIGHT);

  012cc	6a 01		 push	 1
  012ce	8d 55 90	 lea	 edx, DWORD PTR _graphics$[ebp]
  012d1	52		 push	 edx
  012d2	8b 4d ec	 mov	 ecx, DWORD PTR _this$[ebp]
  012d5	e8 00 00 00 00	 call	 ?DrawImage@CSkinButton2@@AAEXAAVGraphics@Gdiplus@@W4BTN_DRAW_HUE@1@@Z ; CSkinButton2::DrawImage
$L187393:

; 307  : 					}
; 308  : 				}
; 309  : 				else if (m_bMouseOnButton)

  012da	e9 9f 00 00 00	 jmp	 $L187387
$L187392:
  012df	8b 45 ec	 mov	 eax, DWORD PTR _this$[ebp]
  012e2	83 b8 80 00 00
	00 00		 cmp	 DWORD PTR [eax+128], 0
  012e9	74 29		 je	 SHORT $L187395

; 310  : 				{
; 311  : 					DrawFrame(graphics,rect );

  012eb	8d 4d d4	 lea	 ecx, DWORD PTR _rect$[ebp]
  012ee	51		 push	 ecx
  012ef	8d 55 90	 lea	 edx, DWORD PTR _graphics$[ebp]
  012f2	52		 push	 edx
  012f3	8b 4d ec	 mov	 ecx, DWORD PTR _this$[ebp]
  012f6	e8 00 00 00 00	 call	 ?DrawFrame@CSkinButton2@@AAEXAAVGraphics@Gdiplus@@AAVCRect@@@Z ; CSkinButton2::DrawFrame

; 312  : 					if( m_enmuDrawType != NO_FRAME_SELECT )

  012fb	8b 45 ec	 mov	 eax, DWORD PTR _this$[ebp]
  012fe	83 78 54 10	 cmp	 DWORD PTR [eax+84], 16	; 00000010H
  01302	74 0e		 je	 SHORT $L187396

; 313  : 					{
; 314  : 						DrawImage(graphics,DRAW_LIGHT);

  01304	6a 01		 push	 1
  01306	8d 4d 90	 lea	 ecx, DWORD PTR _graphics$[ebp]
  01309	51		 push	 ecx
  0130a	8b 4d ec	 mov	 ecx, DWORD PTR _this$[ebp]
  0130d	e8 00 00 00 00	 call	 ?DrawImage@CSkinButton2@@AAEXAAVGraphics@Gdiplus@@W4BTN_DRAW_HUE@1@@Z ; CSkinButton2::DrawImage
$L187396:

; 315  : 					}	
; 316  : 				}
; 317  : 				else if (lState & ODS_FOCUS)

  01312	eb 6a		 jmp	 SHORT $L187387
$L187395:
  01314	8b 55 e8	 mov	 edx, DWORD PTR _lState$[ebp]
  01317	83 e2 10	 and	 edx, 16			; 00000010H
  0131a	74 32		 je	 SHORT $L187398

; 318  : 				{				
; 319  : 					if( m_enmuDrawType == NO_FRAME_SELECT )

  0131c	8b 45 ec	 mov	 eax, DWORD PTR _this$[ebp]
  0131f	83 78 54 10	 cmp	 DWORD PTR [eax+84], 16	; 00000010H
  01323	75 10		 jne	 SHORT $L187399

; 320  : 					{
; 321  : 						DrawFrame(graphics,rect );

  01325	8d 4d d4	 lea	 ecx, DWORD PTR _rect$[ebp]
  01328	51		 push	 ecx
  01329	8d 55 90	 lea	 edx, DWORD PTR _graphics$[ebp]
  0132c	52		 push	 edx
  0132d	8b 4d ec	 mov	 ecx, DWORD PTR _this$[ebp]
  01330	e8 00 00 00 00	 call	 ?DrawFrame@CSkinButton2@@AAEXAAVGraphics@Gdiplus@@AAVCRect@@@Z ; CSkinButton2::DrawFrame
$L187399:

; 322  : 					}
; 323  : 					if( m_enmuDrawType != NO_FRAME_SELECT )

  01335	8b 45 ec	 mov	 eax, DWORD PTR _this$[ebp]
  01338	83 78 54 10	 cmp	 DWORD PTR [eax+84], 16	; 00000010H
  0133c	74 0e		 je	 SHORT $L187400

; 324  : 					{
; 325  : 						DrawImage(graphics);

  0133e	6a 00		 push	 0
  01340	8d 4d 90	 lea	 ecx, DWORD PTR _graphics$[ebp]
  01343	51		 push	 ecx
  01344	8b 4d ec	 mov	 ecx, DWORD PTR _this$[ebp]
  01347	e8 00 00 00 00	 call	 ?DrawImage@CSkinButton2@@AAEXAAVGraphics@Gdiplus@@W4BTN_DRAW_HUE@1@@Z ; CSkinButton2::DrawImage
$L187400:

; 326  : 					}
; 327  : 				}
; 328  : 				else

  0134c	eb 30		 jmp	 SHORT $L187387
$L187398:

; 329  : 				{
; 330  : 					if( m_enmuDrawType == NO_FRAME_SELECT )

  0134e	8b 55 ec	 mov	 edx, DWORD PTR _this$[ebp]
  01351	83 7a 54 10	 cmp	 DWORD PTR [edx+84], 16	; 00000010H
  01355	75 10		 jne	 SHORT $L187402

; 331  : 					{
; 332  : 						DrawFrame(graphics,rect );

  01357	8d 45 d4	 lea	 eax, DWORD PTR _rect$[ebp]
  0135a	50		 push	 eax
  0135b	8d 4d 90	 lea	 ecx, DWORD PTR _graphics$[ebp]
  0135e	51		 push	 ecx
  0135f	8b 4d ec	 mov	 ecx, DWORD PTR _this$[ebp]
  01362	e8 00 00 00 00	 call	 ?DrawFrame@CSkinButton2@@AAEXAAVGraphics@Gdiplus@@AAVCRect@@@Z ; CSkinButton2::DrawFrame
$L187402:

; 333  : 					}
; 334  : 					if( m_enmuDrawType != NO_FRAME_SELECT )

  01367	8b 55 ec	 mov	 edx, DWORD PTR _this$[ebp]
  0136a	83 7a 54 10	 cmp	 DWORD PTR [edx+84], 16	; 00000010H
  0136e	74 0e		 je	 SHORT $L187387

; 335  : 					{
; 336  : 						DrawImage(graphics);

  01370	6a 00		 push	 0
  01372	8d 45 90	 lea	 eax, DWORD PTR _graphics$[ebp]
  01375	50		 push	 eax
  01376	8b 4d ec	 mov	 ecx, DWORD PTR _this$[ebp]
  01379	e8 00 00 00 00	 call	 ?DrawImage@CSkinButton2@@AAEXAAVGraphics@Gdiplus@@W4BTN_DRAW_HUE@1@@Z ; CSkinButton2::DrawImage
$L187387:

; 337  : 					}
; 338  : 				}
; 339  : 			}
; 340  : 			//graphics
; 341  : 		}
; 342  : 	}
; 343  : 
; 344  : 	if( m_strText.GetLength() > 0 && m_pPngImage == NULL )

  0137e	8b 4d ec	 mov	 ecx, DWORD PTR _this$[ebp]
  01381	81 c1 64 01 00
	00		 add	 ecx, 356		; 00000164H
  01387	8b f4		 mov	 esi, esp
  01389	ff 15 00 00 00
	00		 call	 DWORD PTR __imp_?GetLength@?$CSimpleStringT@D$00@ATL@@QBEHXZ
  0138f	3b f4		 cmp	 esi, esp
  01391	e8 00 00 00 00	 call	 __RTC_CheckEsp
  01396	85 c0		 test	 eax, eax
  01398	0f 8e 9f 03 00
	00		 jle	 $L187404
  0139e	8b 4d ec	 mov	 ecx, DWORD PTR _this$[ebp]
  013a1	83 79 7c 00	 cmp	 DWORD PTR [ecx+124], 0
  013a5	0f 85 92 03 00
	00		 jne	 $L187404

; 345  : 	{
; 346  : 		Gdiplus::Bitmap bmpText( rect.Width(), rect.Height(), &graphics );

  013ab	8d 55 90	 lea	 edx, DWORD PTR _graphics$[ebp]
  013ae	52		 push	 edx
  013af	8d 4d d4	 lea	 ecx, DWORD PTR _rect$[ebp]
  013b2	e8 00 00 00 00	 call	 ?Height@CRect@@QBEHXZ	; CRect::Height
  013b7	50		 push	 eax
  013b8	8d 4d d4	 lea	 ecx, DWORD PTR _rect$[ebp]
  013bb	e8 00 00 00 00	 call	 ?Width@CRect@@QBEHXZ	; CRect::Width
  013c0	50		 push	 eax
  013c1	8d 8d 30 ff ff
	ff		 lea	 ecx, DWORD PTR _bmpText$187405[ebp]
  013c7	e8 00 00 00 00	 call	 ??0Bitmap@Gdiplus@@QAE@HHPAVGraphics@1@@Z ; Gdiplus::Bitmap::Bitmap
  013cc	c6 45 fc 04	 mov	 BYTE PTR __$EHRec$[ebp+8], 4

; 347  : 		Graphics* Ptext=Graphics::FromImage(&bmpText);

  013d0	8d 85 30 ff ff
	ff		 lea	 eax, DWORD PTR _bmpText$187405[ebp]
  013d6	50		 push	 eax
  013d7	e8 00 00 00 00	 call	 ?FromImage@Graphics@Gdiplus@@SAPAV12@PAVImage@2@@Z ; Gdiplus::Graphics::FromImage
  013dc	83 c4 04	 add	 esp, 4
  013df	89 85 28 ff ff
	ff		 mov	 DWORD PTR _Ptext$187406[ebp], eax

; 348  : 		//	Ptext->SetTextRenderingHint(Gdiplus::TextRenderingHintAntiAlias);
; 349  : 
; 350  : 		//Matrix mx(0.25f,0,0,0.25f,1,1);
; 351  : 		//Ptext->SetTransform(&mx);
; 352  : 
; 353  : 		Gdiplus::RectF rc( rect.left, rect.top, rect.Width(), rect.Height() );

  013e5	8d 4d d4	 lea	 ecx, DWORD PTR _rect$[ebp]
  013e8	e8 00 00 00 00	 call	 ?Height@CRect@@QBEHXZ	; CRect::Height
  013ed	89 85 a4 f6 ff
	ff		 mov	 DWORD PTR tv485[ebp], eax
  013f3	db 85 a4 f6 ff
	ff		 fild	 DWORD PTR tv485[ebp]
  013f9	51		 push	 ecx
  013fa	d9 1c 24	 fstp	 DWORD PTR [esp]
  013fd	8d 4d d4	 lea	 ecx, DWORD PTR _rect$[ebp]
  01400	e8 00 00 00 00	 call	 ?Width@CRect@@QBEHXZ	; CRect::Width
  01405	89 85 a0 f6 ff
	ff		 mov	 DWORD PTR tv487[ebp], eax
  0140b	db 85 a0 f6 ff
	ff		 fild	 DWORD PTR tv487[ebp]
  01411	51		 push	 ecx
  01412	d9 1c 24	 fstp	 DWORD PTR [esp]
  01415	db 45 d8	 fild	 DWORD PTR _rect$[ebp+4]
  01418	51		 push	 ecx
  01419	d9 1c 24	 fstp	 DWORD PTR [esp]
  0141c	db 45 d4	 fild	 DWORD PTR _rect$[ebp]
  0141f	51		 push	 ecx
  01420	d9 1c 24	 fstp	 DWORD PTR [esp]
  01423	8d 8d 14 ff ff
	ff		 lea	 ecx, DWORD PTR _rc$187407[ebp]
  01429	e8 00 00 00 00	 call	 ??0RectF@Gdiplus@@QAE@MMMM@Z ; Gdiplus::RectF::RectF

; 354  : 
; 355  : 		WCHAR   wFile[1024];   
; 356  : #ifndef   UNICODE   
; 357  : 		MultiByteToWideChar(CP_ACP,   0,   LPCTSTR(m_strText),   -1,   wFile,  1024 );   

  0142e	8b f4		 mov	 esi, esp
  01430	68 00 04 00 00	 push	 1024			; 00000400H
  01435	8d 8d 0c f7 ff
	ff		 lea	 ecx, DWORD PTR _wFile$187408[ebp]
  0143b	51		 push	 ecx
  0143c	6a ff		 push	 -1
  0143e	8b 4d ec	 mov	 ecx, DWORD PTR _this$[ebp]
  01441	81 c1 64 01 00
	00		 add	 ecx, 356		; 00000164H
  01447	8b fc		 mov	 edi, esp
  01449	ff 15 00 00 00
	00		 call	 DWORD PTR __imp_??B?$CSimpleStringT@D$00@ATL@@QBEPBDXZ
  0144f	3b fc		 cmp	 edi, esp
  01451	e8 00 00 00 00	 call	 __RTC_CheckEsp
  01456	50		 push	 eax
  01457	6a 00		 push	 0
  01459	6a 00		 push	 0
  0145b	ff 15 00 00 00
	00		 call	 DWORD PTR __imp__MultiByteToWideChar@24
  01461	3b f4		 cmp	 esi, esp
  01463	e8 00 00 00 00	 call	 __RTC_CheckEsp

; 358  : #else   
; 359  : 		lstrcpy(wFile,   szFile);   
; 360  : #endif 
; 361  : 
; 362  : 		StringFormat format;

  01468	6a 00		 push	 0
  0146a	6a 00		 push	 0
  0146c	8d 8d fc f6 ff
	ff		 lea	 ecx, DWORD PTR _format$187409[ebp]
  01472	e8 00 00 00 00	 call	 ??0StringFormat@Gdiplus@@QAE@HG@Z ; Gdiplus::StringFormat::StringFormat
  01477	c6 45 fc 05	 mov	 BYTE PTR __$EHRec$[ebp+8], 5

; 363  : 		format.SetAlignment( StringAlignmentCenter );

  0147b	6a 01		 push	 1
  0147d	8d 8d fc f6 ff
	ff		 lea	 ecx, DWORD PTR _format$187409[ebp]
  01483	e8 00 00 00 00	 call	 ?SetAlignment@StringFormat@Gdiplus@@QAE?AW4Status@2@W4StringAlignment@2@@Z ; Gdiplus::StringFormat::SetAlignment

; 364  : 
; 365  : 		Gdiplus::RectF rectText, rectBack;

  01488	8d 8d e4 f6 ff
	ff		 lea	 ecx, DWORD PTR _rectText$187410[ebp]
  0148e	e8 00 00 00 00	 call	 ??0RectF@Gdiplus@@QAE@XZ ; Gdiplus::RectF::RectF
  01493	8d 8d cc f6 ff
	ff		 lea	 ecx, DWORD PTR _rectBack$187411[ebp]
  01499	e8 00 00 00 00	 call	 ??0RectF@Gdiplus@@QAE@XZ ; Gdiplus::RectF::RectF

; 366  : 		rectText.X = rc.X;

  0149e	8b 95 14 ff ff
	ff		 mov	 edx, DWORD PTR _rc$187407[ebp]
  014a4	89 95 e4 f6 ff
	ff		 mov	 DWORD PTR _rectText$187410[ebp], edx

; 367  : 		rectText.Y = rc.Y+ ( rc.Height-m_nWidth)/2;

  014aa	8b 45 ec	 mov	 eax, DWORD PTR _this$[ebp]
  014ad	8b 88 68 01 00
	00		 mov	 ecx, DWORD PTR [eax+360]
  014b3	89 8d 98 f6 ff
	ff		 mov	 DWORD PTR tv502[ebp], ecx
  014b9	c7 85 9c f6 ff
	ff 00 00 00 00	 mov	 DWORD PTR tv502[ebp+4], 0
  014c3	df ad 98 f6 ff
	ff		 fild	 QWORD PTR tv502[ebp]
  014c9	d8 ad 20 ff ff
	ff		 fsubr	 DWORD PTR _rc$187407[ebp+12]
  014cf	d8 35 00 00 00
	00		 fdiv	 DWORD PTR __real@40000000
  014d5	d8 85 18 ff ff
	ff		 fadd	 DWORD PTR _rc$187407[ebp+4]
  014db	d9 9d e8 f6 ff
	ff		 fstp	 DWORD PTR _rectText$187410[ebp+4]

; 368  : 		rectText.Width = rc.Width;

  014e1	8b 95 1c ff ff
	ff		 mov	 edx, DWORD PTR _rc$187407[ebp+8]
  014e7	89 95 ec f6 ff
	ff		 mov	 DWORD PTR _rectText$187410[ebp+8], edx

; 369  : 		rectText.Height = m_nWidth + rc.Height/2;

  014ed	8b 45 ec	 mov	 eax, DWORD PTR _this$[ebp]
  014f0	8b 88 68 01 00
	00		 mov	 ecx, DWORD PTR [eax+360]
  014f6	89 8d 90 f6 ff
	ff		 mov	 DWORD PTR tv508[ebp], ecx
  014fc	c7 85 94 f6 ff
	ff 00 00 00 00	 mov	 DWORD PTR tv508[ebp+4], 0
  01506	df ad 90 f6 ff
	ff		 fild	 QWORD PTR tv508[ebp]
  0150c	d9 85 20 ff ff
	ff		 fld	 DWORD PTR _rc$187407[ebp+12]
  01512	d8 35 00 00 00
	00		 fdiv	 DWORD PTR __real@40000000
  01518	de c1		 faddp	 ST(1), ST(0)
  0151a	d9 9d f0 f6 ff
	ff		 fstp	 DWORD PTR _rectText$187410[ebp+12]

; 370  : 
; 371  : 		rectBack.X = rc.X+2;

  01520	d9 85 14 ff ff
	ff		 fld	 DWORD PTR _rc$187407[ebp]
  01526	d8 05 00 00 00
	00		 fadd	 DWORD PTR __real@40000000
  0152c	d9 9d cc f6 ff
	ff		 fstp	 DWORD PTR _rectBack$187411[ebp]

; 372  : 		rectBack.Y = rc.Y+1+ ( rc.Height-m_nWidth)/2;

  01532	d9 85 18 ff ff
	ff		 fld	 DWORD PTR _rc$187407[ebp+4]
  01538	d8 05 00 00 00
	00		 fadd	 DWORD PTR __real@3f800000
  0153e	8b 55 ec	 mov	 edx, DWORD PTR _this$[ebp]
  01541	8b 82 68 01 00
	00		 mov	 eax, DWORD PTR [edx+360]
  01547	89 85 88 f6 ff
	ff		 mov	 DWORD PTR tv516[ebp], eax
  0154d	c7 85 8c f6 ff
	ff 00 00 00 00	 mov	 DWORD PTR tv516[ebp+4], 0
  01557	df ad 88 f6 ff
	ff		 fild	 QWORD PTR tv516[ebp]
  0155d	d8 ad 20 ff ff
	ff		 fsubr	 DWORD PTR _rc$187407[ebp+12]
  01563	d8 35 00 00 00
	00		 fdiv	 DWORD PTR __real@40000000
  01569	de c1		 faddp	 ST(1), ST(0)
  0156b	d9 9d d0 f6 ff
	ff		 fstp	 DWORD PTR _rectBack$187411[ebp+4]

; 373  : 		rectBack.Width = rc.Width-2;

  01571	d9 85 1c ff ff
	ff		 fld	 DWORD PTR _rc$187407[ebp+8]
  01577	d8 25 00 00 00
	00		 fsub	 DWORD PTR __real@40000000
  0157d	d9 9d d4 f6 ff
	ff		 fstp	 DWORD PTR _rectBack$187411[ebp+8]

; 374  : 		rectBack.Height = m_nWidth + rc.Height/2-1;

  01583	8b 4d ec	 mov	 ecx, DWORD PTR _this$[ebp]
  01586	8b 91 68 01 00
	00		 mov	 edx, DWORD PTR [ecx+360]
  0158c	89 95 80 f6 ff
	ff		 mov	 DWORD PTR tv522[ebp], edx
  01592	c7 85 84 f6 ff
	ff 00 00 00 00	 mov	 DWORD PTR tv522[ebp+4], 0
  0159c	df ad 80 f6 ff
	ff		 fild	 QWORD PTR tv522[ebp]
  015a2	d9 85 20 ff ff
	ff		 fld	 DWORD PTR _rc$187407[ebp+12]
  015a8	d8 35 00 00 00
	00		 fdiv	 DWORD PTR __real@40000000
  015ae	de c1		 faddp	 ST(1), ST(0)
  015b0	d8 25 00 00 00
	00		 fsub	 DWORD PTR __real@3f800000
  015b6	d9 9d d8 f6 ff
	ff		 fstp	 DWORD PTR _rectBack$187411[ebp+12]

; 375  : 
; 376  : 		Ptext->DrawString( wFile,-1 ,mp_font,rectBack,&format,&SolidBrush(Color(100,0,0,0)) );

  015bc	6a 00		 push	 0
  015be	6a 00		 push	 0
  015c0	6a 00		 push	 0
  015c2	6a 64		 push	 100			; 00000064H
  015c4	8d 8d b8 f6 ff
	ff		 lea	 ecx, DWORD PTR $T188342[ebp]
  015ca	e8 00 00 00 00	 call	 ??0Color@Gdiplus@@QAE@EEEE@Z ; Gdiplus::Color::Color
  015cf	50		 push	 eax
  015d0	8d 8d bc f6 ff
	ff		 lea	 ecx, DWORD PTR $T188341[ebp]
  015d6	e8 00 00 00 00	 call	 ??0SolidBrush@Gdiplus@@QAE@ABVColor@1@@Z ; Gdiplus::SolidBrush::SolidBrush
  015db	89 85 7c f6 ff
	ff		 mov	 DWORD PTR tv288[ebp], eax
  015e1	8b 85 7c f6 ff
	ff		 mov	 eax, DWORD PTR tv288[ebp]
  015e7	89 85 78 f6 ff
	ff		 mov	 DWORD PTR tv414[ebp], eax
  015ed	c6 45 fc 06	 mov	 BYTE PTR __$EHRec$[ebp+8], 6
  015f1	8b 8d 78 f6 ff
	ff		 mov	 ecx, DWORD PTR tv414[ebp]
  015f7	51		 push	 ecx
  015f8	8d 95 fc f6 ff
	ff		 lea	 edx, DWORD PTR _format$187409[ebp]
  015fe	52		 push	 edx
  015ff	8d 85 cc f6 ff
	ff		 lea	 eax, DWORD PTR _rectBack$187411[ebp]
  01605	50		 push	 eax
  01606	8b 4d ec	 mov	 ecx, DWORD PTR _this$[ebp]
  01609	8b 91 80 01 00
	00		 mov	 edx, DWORD PTR [ecx+384]
  0160f	52		 push	 edx
  01610	6a ff		 push	 -1
  01612	8d 85 0c f7 ff
	ff		 lea	 eax, DWORD PTR _wFile$187408[ebp]
  01618	50		 push	 eax
  01619	8b 8d 28 ff ff
	ff		 mov	 ecx, DWORD PTR _Ptext$187406[ebp]
  0161f	e8 00 00 00 00	 call	 ?DrawString@Graphics@Gdiplus@@QAE?AW4Status@2@PB_WHPBVFont@2@ABVRectF@2@PBVStringFormat@2@PBVBrush@2@@Z ; Gdiplus::Graphics::DrawString
  01624	c6 45 fc 05	 mov	 BYTE PTR __$EHRec$[ebp+8], 5
  01628	8d 8d bc f6 ff
	ff		 lea	 ecx, DWORD PTR $T188341[ebp]
  0162e	e8 00 00 00 00	 call	 ??1SolidBrush@Gdiplus@@UAE@XZ

; 377  : 		//graphics.SetInterpolationMode( Gdiplus::InterpolationModeHighQualityBicubic);
; 378  : 		//graphics.SetTextRenderingHint(  Gdiplus::TextRenderingHintAntiAlias);
; 379  : 		graphics.DrawImage(&bmpText,rc,0,0,bmpText.GetWidth(),bmpText.GetHeight(),UnitPixel);

  01633	6a 00		 push	 0
  01635	6a 00		 push	 0
  01637	6a 00		 push	 0
  01639	6a 02		 push	 2
  0163b	8d 8d 30 ff ff
	ff		 lea	 ecx, DWORD PTR _bmpText$187405[ebp]
  01641	e8 00 00 00 00	 call	 ?GetHeight@Image@Gdiplus@@QAEIXZ ; Gdiplus::Image::GetHeight
  01646	89 85 70 f6 ff
	ff		 mov	 DWORD PTR tv537[ebp], eax
  0164c	c7 85 74 f6 ff
	ff 00 00 00 00	 mov	 DWORD PTR tv537[ebp+4], 0
  01656	df ad 70 f6 ff
	ff		 fild	 QWORD PTR tv537[ebp]
  0165c	51		 push	 ecx
  0165d	d9 1c 24	 fstp	 DWORD PTR [esp]
  01660	8d 8d 30 ff ff
	ff		 lea	 ecx, DWORD PTR _bmpText$187405[ebp]
  01666	e8 00 00 00 00	 call	 ?GetWidth@Image@Gdiplus@@QAEIXZ ; Gdiplus::Image::GetWidth
  0166b	89 85 68 f6 ff
	ff		 mov	 DWORD PTR tv541[ebp], eax
  01671	c7 85 6c f6 ff
	ff 00 00 00 00	 mov	 DWORD PTR tv541[ebp+4], 0
  0167b	df ad 68 f6 ff
	ff		 fild	 QWORD PTR tv541[ebp]
  01681	51		 push	 ecx
  01682	d9 1c 24	 fstp	 DWORD PTR [esp]
  01685	6a 00		 push	 0
  01687	6a 00		 push	 0
  01689	8d 8d 14 ff ff
	ff		 lea	 ecx, DWORD PTR _rc$187407[ebp]
  0168f	51		 push	 ecx
  01690	8d 95 30 ff ff
	ff		 lea	 edx, DWORD PTR _bmpText$187405[ebp]
  01696	52		 push	 edx
  01697	8d 4d 90	 lea	 ecx, DWORD PTR _graphics$[ebp]
  0169a	e8 00 00 00 00	 call	 ?DrawImage@Graphics@Gdiplus@@QAE?AW4Status@2@PAVImage@2@ABVRectF@2@MMMMW4Unit@2@PBVImageAttributes@2@P6GHPAX@Z4@Z ; Gdiplus::Graphics::DrawImage

; 380  : 		graphics.DrawString(wFile,-1,mp_font,rectText,&format,&SolidBrush(Color(255,255,255,255)));

  0169f	68 ff 00 00 00	 push	 255			; 000000ffH
  016a4	68 ff 00 00 00	 push	 255			; 000000ffH
  016a9	68 ff 00 00 00	 push	 255			; 000000ffH
  016ae	68 ff 00 00 00	 push	 255			; 000000ffH
  016b3	8d 8d a8 f6 ff
	ff		 lea	 ecx, DWORD PTR $T188344[ebp]
  016b9	e8 00 00 00 00	 call	 ??0Color@Gdiplus@@QAE@EEEE@Z ; Gdiplus::Color::Color
  016be	50		 push	 eax
  016bf	8d 8d ac f6 ff
	ff		 lea	 ecx, DWORD PTR $T188343[ebp]
  016c5	e8 00 00 00 00	 call	 ??0SolidBrush@Gdiplus@@QAE@ABVColor@1@@Z ; Gdiplus::SolidBrush::SolidBrush
  016ca	89 85 64 f6 ff
	ff		 mov	 DWORD PTR tv254[ebp], eax
  016d0	8b 85 64 f6 ff
	ff		 mov	 eax, DWORD PTR tv254[ebp]
  016d6	89 85 60 f6 ff
	ff		 mov	 DWORD PTR tv416[ebp], eax
  016dc	c6 45 fc 07	 mov	 BYTE PTR __$EHRec$[ebp+8], 7
  016e0	8b 8d 60 f6 ff
	ff		 mov	 ecx, DWORD PTR tv416[ebp]
  016e6	51		 push	 ecx
  016e7	8d 95 fc f6 ff
	ff		 lea	 edx, DWORD PTR _format$187409[ebp]
  016ed	52		 push	 edx
  016ee	8d 85 e4 f6 ff
	ff		 lea	 eax, DWORD PTR _rectText$187410[ebp]
  016f4	50		 push	 eax
  016f5	8b 4d ec	 mov	 ecx, DWORD PTR _this$[ebp]
  016f8	8b 91 80 01 00
	00		 mov	 edx, DWORD PTR [ecx+384]
  016fe	52		 push	 edx
  016ff	6a ff		 push	 -1
  01701	8d 85 0c f7 ff
	ff		 lea	 eax, DWORD PTR _wFile$187408[ebp]
  01707	50		 push	 eax
  01708	8d 4d 90	 lea	 ecx, DWORD PTR _graphics$[ebp]
  0170b	e8 00 00 00 00	 call	 ?DrawString@Graphics@Gdiplus@@QAE?AW4Status@2@PB_WHPBVFont@2@ABVRectF@2@PBVStringFormat@2@PBVBrush@2@@Z ; Gdiplus::Graphics::DrawString
  01710	c6 45 fc 05	 mov	 BYTE PTR __$EHRec$[ebp+8], 5
  01714	8d 8d ac f6 ff
	ff		 lea	 ecx, DWORD PTR $T188343[ebp]
  0171a	e8 00 00 00 00	 call	 ??1SolidBrush@Gdiplus@@UAE@XZ

; 381  : 	}

  0171f	c6 45 fc 04	 mov	 BYTE PTR __$EHRec$[ebp+8], 4
  01723	8d 8d fc f6 ff
	ff		 lea	 ecx, DWORD PTR _format$187409[ebp]
  01729	e8 00 00 00 00	 call	 ??1StringFormat@Gdiplus@@QAE@XZ ; Gdiplus::StringFormat::~StringFormat
  0172e	c6 45 fc 02	 mov	 BYTE PTR __$EHRec$[ebp+8], 2
  01732	8d 8d 30 ff ff
	ff		 lea	 ecx, DWORD PTR _bmpText$187405[ebp]
  01738	e8 00 00 00 00	 call	 ??1Bitmap@Gdiplus@@UAE@XZ
$L187404:

; 382  : }

  0173d	c6 45 fc 01	 mov	 BYTE PTR __$EHRec$[ebp+8], 1
  01741	8d 4d 80	 lea	 ecx, DWORD PTR _bmp$[ebp]
  01744	e8 00 00 00 00	 call	 ??1CBitmap@@UAE@XZ	; CBitmap::~CBitmap
  01749	c6 45 fc 00	 mov	 BYTE PTR __$EHRec$[ebp+8], 0
  0174d	8d 4d 90	 lea	 ecx, DWORD PTR _graphics$[ebp]
  01750	e8 00 00 00 00	 call	 ??1Graphics@Gdiplus@@QAE@XZ ; Gdiplus::Graphics::~Graphics
  01755	c7 45 fc ff ff
	ff ff		 mov	 DWORD PTR __$EHRec$[ebp+8], -1
  0175c	8d 4d a0	 lea	 ecx, DWORD PTR _pDC$[ebp]
  0175f	e8 00 00 00 00	 call	 ??1CMemDC@@UAE@XZ	; CMemDC::~CMemDC
  01764	52		 push	 edx
  01765	8b cd		 mov	 ecx, ebp
  01767	50		 push	 eax
  01768	8d 15 00 00 00
	00		 lea	 edx, DWORD PTR $L188374
  0176e	e8 00 00 00 00	 call	 @_RTC_CheckStackVars@8
  01773	58		 pop	 eax
  01774	5a		 pop	 edx
  01775	8b 4d f4	 mov	 ecx, DWORD PTR __$EHRec$[ebp]
  01778	64 89 0d 00 00
	00 00		 mov	 DWORD PTR fs:__except_list, ecx
  0177f	8b 4d f0	 mov	 ecx, DWORD PTR __$ArrayPad$[ebp]
  01782	e8 00 00 00 00	 call	 @__security_check_cookie@4
  01787	5f		 pop	 edi
  01788	5e		 pop	 esi
  01789	81 c4 a0 09 00
	00		 add	 esp, 2464		; 000009a0H
  0178f	3b ec		 cmp	 ebp, esp
  01791	e8 00 00 00 00	 call	 __RTC_CheckEsp
  01796	8b e5		 mov	 esp, ebp
  01798	5d		 pop	 ebp
  01799	c2 04 00	 ret	 4
$L188374:
  0179c	0c 00 00 00	 DD	 12			; 0000000cH
  017a0	00 00 00 00	 DD	 $L188373
$L188373:
  017a4	d4 ff ff ff	 DD	 -44			; ffffffd4H
  017a8	10 00 00 00	 DD	 16			; 00000010H
  017ac	00 00 00 00	 DD	 $L188359
  017b0	a0 ff ff ff	 DD	 -96			; ffffffa0H
  017b4	2c 00 00 00	 DD	 44			; 0000002cH
  017b8	00 00 00 00	 DD	 $L188360
  017bc	90 ff ff ff	 DD	 -112			; ffffff90H
  017c0	08 00 00 00	 DD	 8
  017c4	00 00 00 00	 DD	 $L188361
  017c8	80 ff ff ff	 DD	 -128			; ffffff80H
  017cc	08 00 00 00	 DD	 8
  017d0	00 00 00 00	 DD	 $L188362
  017d4	64 ff ff ff	 DD	 -156			; ffffff64H
  017d8	10 00 00 00	 DD	 16			; 00000010H
  017dc	00 00 00 00	 DD	 $L188363
  017e0	48 ff ff ff	 DD	 -184			; ffffff48H
  017e4	14 00 00 00	 DD	 20			; 00000014H
  017e8	00 00 00 00	 DD	 $L188364
  017ec	30 ff ff ff	 DD	 -208			; ffffff30H
  017f0	10 00 00 00	 DD	 16			; 00000010H
  017f4	00 00 00 00	 DD	 $L188365
  017f8	14 ff ff ff	 DD	 -236			; ffffff14H
  017fc	10 00 00 00	 DD	 16			; 00000010H
  01800	00 00 00 00	 DD	 $L188366
  01804	0c f7 ff ff	 DD	 -2292			; fffff70cH
  01808	00 08 00 00	 DD	 2048			; 00000800H
  0180c	00 00 00 00	 DD	 $L188367
  01810	fc f6 ff ff	 DD	 -2308			; fffff6fcH
  01814	08 00 00 00	 DD	 8
  01818	00 00 00 00	 DD	 $L188368
  0181c	e4 f6 ff ff	 DD	 -2332			; fffff6e4H
  01820	10 00 00 00	 DD	 16			; 00000010H
  01824	00 00 00 00	 DD	 $L188369
  01828	cc f6 ff ff	 DD	 -2356			; fffff6ccH
  0182c	10 00 00 00	 DD	 16			; 00000010H
  01830	00 00 00 00	 DD	 $L188370
$L188370:
  01834	72		 DB	 114			; 00000072H
  01835	65		 DB	 101			; 00000065H
  01836	63		 DB	 99			; 00000063H
  01837	74		 DB	 116			; 00000074H
  01838	42		 DB	 66			; 00000042H
  01839	61		 DB	 97			; 00000061H
  0183a	63		 DB	 99			; 00000063H
  0183b	6b		 DB	 107			; 0000006bH
  0183c	00		 DB	 0
$L188369:
  0183d	72		 DB	 114			; 00000072H
  0183e	65		 DB	 101			; 00000065H
  0183f	63		 DB	 99			; 00000063H
  01840	74		 DB	 116			; 00000074H
  01841	54		 DB	 84			; 00000054H
  01842	65		 DB	 101			; 00000065H
  01843	78		 DB	 120			; 00000078H
  01844	74		 DB	 116			; 00000074H
  01845	00		 DB	 0
$L188368:
  01846	66		 DB	 102			; 00000066H
  01847	6f		 DB	 111			; 0000006fH
  01848	72		 DB	 114			; 00000072H
  01849	6d		 DB	 109			; 0000006dH
  0184a	61		 DB	 97			; 00000061H
  0184b	74		 DB	 116			; 00000074H
  0184c	00		 DB	 0
$L188367:
  0184d	77		 DB	 119			; 00000077H
  0184e	46		 DB	 70			; 00000046H
  0184f	69		 DB	 105			; 00000069H
  01850	6c		 DB	 108			; 0000006cH
  01851	65		 DB	 101			; 00000065H
  01852	00		 DB	 0
$L188366:
  01853	72		 DB	 114			; 00000072H
  01854	63		 DB	 99			; 00000063H
  01855	00		 DB	 0
$L188365:
  01856	62		 DB	 98			; 00000062H
  01857	6d		 DB	 109			; 0000006dH
  01858	70		 DB	 112			; 00000070H
  01859	54		 DB	 84			; 00000054H
  0185a	65		 DB	 101			; 00000065H
  0185b	78		 DB	 120			; 00000078H
  0185c	74		 DB	 116			; 00000074H
  0185d	00		 DB	 0
$L188364:
  0185e	63		 DB	 99			; 00000063H
  0185f	6c		 DB	 108			; 0000006cH
  01860	44		 DB	 68			; 00000044H
  01861	43		 DB	 67			; 00000043H
  01862	00		 DB	 0
$L188363:
  01863	72		 DB	 114			; 00000072H
  01864	65		 DB	 101			; 00000065H
  01865	63		 DB	 99			; 00000063H
  01866	74		 DB	 116			; 00000074H
  01867	31		 DB	 49			; 00000031H
  01868	00		 DB	 0
$L188362:
  01869	62		 DB	 98			; 00000062H
  0186a	6d		 DB	 109			; 0000006dH
  0186b	70		 DB	 112			; 00000070H
  0186c	00		 DB	 0
$L188361:
  0186d	67		 DB	 103			; 00000067H
  0186e	72		 DB	 114			; 00000072H
  0186f	61		 DB	 97			; 00000061H
  01870	70		 DB	 112			; 00000070H
  01871	68		 DB	 104			; 00000068H
  01872	69		 DB	 105			; 00000069H
  01873	63		 DB	 99			; 00000063H
  01874	73		 DB	 115			; 00000073H
  01875	00		 DB	 0
$L188360:
  01876	70		 DB	 112			; 00000070H
  01877	44		 DB	 68			; 00000044H
  01878	43		 DB	 67			; 00000043H
  01879	00		 DB	 0
$L188359:
  0187a	72		 DB	 114			; 00000072H
  0187b	65		 DB	 101			; 00000065H
  0187c	63		 DB	 99			; 00000063H
  0187d	74		 DB	 116			; 00000074H
  0187e	00		 DB	 0
_TEXT	ENDS
text$x	SEGMENT
$L188345:
  000ef	8d 4d a0	 lea	 ecx, DWORD PTR _pDC$[ebp]
  000f2	e9 00 00 00 00	 jmp	 ??1CMemDC@@UAE@XZ	; CMemDC::~CMemDC
$L188346:
  000f7	8d 4d 90	 lea	 ecx, DWORD PTR _graphics$[ebp]
  000fa	e9 00 00 00 00	 jmp	 ??1Graphics@Gdiplus@@QAE@XZ ; Gdiplus::Graphics::~Graphics
$L188347:
  000ff	8d 4d 80	 lea	 ecx, DWORD PTR _bmp$[ebp]
  00102	e9 00 00 00 00	 jmp	 ??1CBitmap@@UAE@XZ	; CBitmap::~CBitmap
$L188348:
  00107	8d 8d 48 ff ff
	ff		 lea	 ecx, DWORD PTR _clDC$187383[ebp]
  0010d	e9 00 00 00 00	 jmp	 ??1CClientDC@@UAE@XZ	; CClientDC::~CClientDC
$L188349:
  00112	8d 8d 30 ff ff
	ff		 lea	 ecx, DWORD PTR _bmpText$187405[ebp]
  00118	e9 00 00 00 00	 jmp	 ??1Bitmap@Gdiplus@@UAE@XZ
$L188350:
  0011d	8d 8d fc f6 ff
	ff		 lea	 ecx, DWORD PTR _format$187409[ebp]
  00123	e9 00 00 00 00	 jmp	 ??1StringFormat@Gdiplus@@QAE@XZ ; Gdiplus::StringFormat::~StringFormat
$L188351:
  00128	8d 8d bc f6 ff
	ff		 lea	 ecx, DWORD PTR $T188341[ebp]
  0012e	e9 00 00 00 00	 jmp	 ??1SolidBrush@Gdiplus@@UAE@XZ
$L188352:
  00133	8d 8d ac f6 ff
	ff		 lea	 ecx, DWORD PTR $T188343[ebp]
  00139	e9 00 00 00 00	 jmp	 ??1SolidBrush@Gdiplus@@UAE@XZ
__ehhandler$?DrawItem@CSkinButton2@@UAEXPAUtagDRAWITEMSTRUCT@@@Z:
  0013e	b8 00 00 00 00	 mov	 eax, OFFSET FLAT:$T188354
  00143	e9 00 00 00 00	 jmp	 ___CxxFrameHandler
text$x	ENDS
?DrawItem@CSkinButton2@@UAEXPAUtagDRAWITEMSTRUCT@@@Z ENDP ; CSkinButton2::DrawItem
PUBLIC	??BCGdiPlusBitmap@@QBEPAVBitmap@Gdiplus@@XZ	; CGdiPlusBitmap::operator Gdiplus::Bitmap *
PUBLIC	?DrawImage@Graphics@Gdiplus@@QAE?AW4Status@2@PAVImage@2@ABVRectF@2@@Z ; Gdiplus::Graphics::DrawImage
PUBLIC	??0ImageAttributes@Gdiplus@@QAE@XZ		; Gdiplus::ImageAttributes::ImageAttributes
PUBLIC	??1ImageAttributes@Gdiplus@@QAE@XZ		; Gdiplus::ImageAttributes::~ImageAttributes
PUBLIC	?SetColorMatrix@ImageAttributes@Gdiplus@@QAE?AW4Status@2@PBUColorMatrix@2@W4ColorMatrixFlags@2@W4ColorAdjustType@2@@Z ; Gdiplus::ImageAttributes::SetColorMatrix
xdata$x	SEGMENT
$T188389 DD	0ffffffffH
	DD	FLAT:$L188377
	DD	0ffffffffH
	DD	FLAT:$L188378
$T188380 DD	019930520H
	DD	02H
	DD	FLAT:$T188389
	DD	2 DUP(00H)
	DD	2 DUP(00H)
; Function compile flags: /Odt /RTCsu
xdata$x	ENDS
_TEXT	SEGMENT
tv295 = -168						; size = 8
tv290 = -160						; size = 8
tv272 = -152						; size = 8
tv267 = -144						; size = 8
tv256 = -136						; size = 8
tv251 = -128						; size = 8
_grect$187433 = -116					; size = 16
_ia$187432 = -92					; size = 8
_grect$187428 = -76					; size = 16
_ia$187427 = -52					; size = 8
_grect$187423 = -36					; size = 16
_this$ = -16						; size = 4
__$EHRec$ = -12						; size = 12
_gdi$ = 8						; size = 4
_hue$ = 12						; size = 4
?DrawImage@CSkinButton2@@AAEXAAVGraphics@Gdiplus@@W4BTN_DRAW_HUE@1@@Z PROC NEAR ; CSkinButton2::DrawImage
; _this$ = ecx

; 385  : {

  01880	55		 push	 ebp
  01881	8b ec		 mov	 ebp, esp
  01883	6a ff		 push	 -1
  01885	68 00 00 00 00	 push	 __ehhandler$?DrawImage@CSkinButton2@@AAEXAAVGraphics@Gdiplus@@W4BTN_DRAW_HUE@1@@Z
  0188a	64 a1 00 00 00
	00		 mov	 eax, DWORD PTR fs:__except_list
  01890	50		 push	 eax
  01891	64 89 25 00 00
	00 00		 mov	 DWORD PTR fs:__except_list, esp
  01898	81 ec 9c 00 00
	00		 sub	 esp, 156		; 0000009cH
  0189e	57		 push	 edi
  0189f	51		 push	 ecx
  018a0	8d bd 58 ff ff
	ff		 lea	 edi, DWORD PTR [ebp-168]
  018a6	b9 27 00 00 00	 mov	 ecx, 39			; 00000027H
  018ab	b8 cc cc cc cc	 mov	 eax, -858993460		; ccccccccH
  018b0	f3 ab		 rep stosd
  018b2	59		 pop	 ecx
  018b3	89 4d f0	 mov	 DWORD PTR _this$[ebp], ecx

; 386  : 	if(hue == DRAW_NORMAL)

  018b6	83 7d 0c 00	 cmp	 DWORD PTR _hue$[ebp], 0
  018ba	0f 85 8d 00 00
	00		 jne	 $L187421

; 387  : 	{
; 388  : 		if( m_pPngImage && m_pPngImage->m_pBitmap )

  018c0	8b 45 f0	 mov	 eax, DWORD PTR _this$[ebp]
  018c3	83 78 7c 00	 cmp	 DWORD PTR [eax+124], 0
  018c7	74 7f		 je	 SHORT $L187422
  018c9	8b 4d f0	 mov	 ecx, DWORD PTR _this$[ebp]
  018cc	8b 51 7c	 mov	 edx, DWORD PTR [ecx+124]
  018cf	83 7a 04 00	 cmp	 DWORD PTR [edx+4], 0
  018d3	74 73		 je	 SHORT $L187422

; 389  : 		{
; 390  : 			RectF grect; grect.X=0, grect.Y=0; grect.Width = m_pPngImage->m_pBitmap->GetWidth(); grect.Height = m_pPngImage->m_pBitmap->GetHeight();

  018d5	8d 4d dc	 lea	 ecx, DWORD PTR _grect$187423[ebp]
  018d8	e8 00 00 00 00	 call	 ??0RectF@Gdiplus@@QAE@XZ ; Gdiplus::RectF::RectF
  018dd	c7 45 dc 00 00
	00 00		 mov	 DWORD PTR _grect$187423[ebp], 0
  018e4	c7 45 e0 00 00
	00 00		 mov	 DWORD PTR _grect$187423[ebp+4], 0
  018eb	8b 45 f0	 mov	 eax, DWORD PTR _this$[ebp]
  018ee	8b 48 7c	 mov	 ecx, DWORD PTR [eax+124]
  018f1	8b 49 04	 mov	 ecx, DWORD PTR [ecx+4]
  018f4	e8 00 00 00 00	 call	 ?GetWidth@Image@Gdiplus@@QAEIXZ ; Gdiplus::Image::GetWidth
  018f9	89 45 80	 mov	 DWORD PTR tv251[ebp], eax
  018fc	c7 45 84 00 00
	00 00		 mov	 DWORD PTR tv251[ebp+4], 0
  01903	df 6d 80	 fild	 QWORD PTR tv251[ebp]
  01906	d9 5d e4	 fstp	 DWORD PTR _grect$187423[ebp+8]
  01909	8b 55 f0	 mov	 edx, DWORD PTR _this$[ebp]
  0190c	8b 42 7c	 mov	 eax, DWORD PTR [edx+124]
  0190f	8b 48 04	 mov	 ecx, DWORD PTR [eax+4]
  01912	e8 00 00 00 00	 call	 ?GetHeight@Image@Gdiplus@@QAEIXZ ; Gdiplus::Image::GetHeight
  01917	89 85 78 ff ff
	ff		 mov	 DWORD PTR tv256[ebp], eax
  0191d	c7 85 7c ff ff
	ff 00 00 00 00	 mov	 DWORD PTR tv256[ebp+4], 0
  01927	df ad 78 ff ff
	ff		 fild	 QWORD PTR tv256[ebp]
  0192d	d9 5d e8	 fstp	 DWORD PTR _grect$187423[ebp+12]

; 391  : 			gdi.DrawImage(*m_pPngImage,grect );

  01930	8d 4d dc	 lea	 ecx, DWORD PTR _grect$187423[ebp]
  01933	51		 push	 ecx
  01934	8b 55 f0	 mov	 edx, DWORD PTR _this$[ebp]
  01937	8b 4a 7c	 mov	 ecx, DWORD PTR [edx+124]
  0193a	e8 00 00 00 00	 call	 ??BCGdiPlusBitmap@@QBEPAVBitmap@Gdiplus@@XZ ; CGdiPlusBitmap::operator Gdiplus::Bitmap *
  0193f	50		 push	 eax
  01940	8b 4d 08	 mov	 ecx, DWORD PTR _gdi$[ebp]
  01943	e8 00 00 00 00	 call	 ?DrawImage@Graphics@Gdiplus@@QAE?AW4Status@2@PAVImage@2@ABVRectF@2@@Z ; Gdiplus::Graphics::DrawImage
$L187422:

; 392  : 		}
; 393  : 	}
; 394  : 	else if(hue == DRAW_LIGHT)

  01948	e9 de 01 00 00	 jmp	 $L187420
$L187421:
  0194d	83 7d 0c 01	 cmp	 DWORD PTR _hue$[ebp], 1
  01951	0f 85 e7 00 00
	00		 jne	 $L187425

; 395  : 	{
; 396  : 		if( m_pPngImage && m_pPngImage->m_pBitmap )

  01957	8b 45 f0	 mov	 eax, DWORD PTR _this$[ebp]
  0195a	83 78 7c 00	 cmp	 DWORD PTR [eax+124], 0
  0195e	0f 84 d5 00 00
	00		 je	 $L187426
  01964	8b 4d f0	 mov	 ecx, DWORD PTR _this$[ebp]
  01967	8b 51 7c	 mov	 edx, DWORD PTR [ecx+124]
  0196a	83 7a 04 00	 cmp	 DWORD PTR [edx+4], 0
  0196e	0f 84 c5 00 00
	00		 je	 $L187426

; 397  : 		{
; 398  : 			ImageAttributes ia;

  01974	8d 4d cc	 lea	 ecx, DWORD PTR _ia$187427[ebp]
  01977	e8 00 00 00 00	 call	 ??0ImageAttributes@Gdiplus@@QAE@XZ ; Gdiplus::ImageAttributes::ImageAttributes
  0197c	c7 45 fc 00 00
	00 00		 mov	 DWORD PTR __$EHRec$[ebp+8], 0

; 399  : 			ia.SetColorMatrix(&m_LightMat);

  01983	6a 00		 push	 0
  01985	6a 00		 push	 0
  01987	8b 45 f0	 mov	 eax, DWORD PTR _this$[ebp]
  0198a	05 9c 00 00 00	 add	 eax, 156		; 0000009cH
  0198f	50		 push	 eax
  01990	8d 4d cc	 lea	 ecx, DWORD PTR _ia$187427[ebp]
  01993	e8 00 00 00 00	 call	 ?SetColorMatrix@ImageAttributes@Gdiplus@@QAE?AW4Status@2@PBUColorMatrix@2@W4ColorMatrixFlags@2@W4ColorAdjustType@2@@Z ; Gdiplus::ImageAttributes::SetColorMatrix

; 400  : 			RectF grect; grect.X=0, grect.Y=0; grect.Width = m_pPngImage->m_pBitmap->GetWidth(); grect.Height = m_pPngImage->m_pBitmap->GetHeight();

  01998	8d 4d b4	 lea	 ecx, DWORD PTR _grect$187428[ebp]
  0199b	e8 00 00 00 00	 call	 ??0RectF@Gdiplus@@QAE@XZ ; Gdiplus::RectF::RectF
  019a0	c7 45 b4 00 00
	00 00		 mov	 DWORD PTR _grect$187428[ebp], 0
  019a7	c7 45 b8 00 00
	00 00		 mov	 DWORD PTR _grect$187428[ebp+4], 0
  019ae	8b 4d f0	 mov	 ecx, DWORD PTR _this$[ebp]
  019b1	8b 51 7c	 mov	 edx, DWORD PTR [ecx+124]
  019b4	8b 4a 04	 mov	 ecx, DWORD PTR [edx+4]
  019b7	e8 00 00 00 00	 call	 ?GetWidth@Image@Gdiplus@@QAEIXZ ; Gdiplus::Image::GetWidth
  019bc	89 85 70 ff ff
	ff		 mov	 DWORD PTR tv267[ebp], eax
  019c2	c7 85 74 ff ff
	ff 00 00 00 00	 mov	 DWORD PTR tv267[ebp+4], 0
  019cc	df ad 70 ff ff
	ff		 fild	 QWORD PTR tv267[ebp]
  019d2	d9 5d bc	 fstp	 DWORD PTR _grect$187428[ebp+8]
  019d5	8b 45 f0	 mov	 eax, DWORD PTR _this$[ebp]
  019d8	8b 48 7c	 mov	 ecx, DWORD PTR [eax+124]
  019db	8b 49 04	 mov	 ecx, DWORD PTR [ecx+4]
  019de	e8 00 00 00 00	 call	 ?GetHeight@Image@Gdiplus@@QAEIXZ ; Gdiplus::Image::GetHeight
  019e3	89 85 68 ff ff
	ff		 mov	 DWORD PTR tv272[ebp], eax
  019e9	c7 85 6c ff ff
	ff 00 00 00 00	 mov	 DWORD PTR tv272[ebp+4], 0
  019f3	df ad 68 ff ff
	ff		 fild	 QWORD PTR tv272[ebp]
  019f9	d9 5d c0	 fstp	 DWORD PTR _grect$187428[ebp+12]

; 401  : 			gdi.DrawImage(*m_pPngImage, grect, 0, 0, grect.Width, grect.Height, UnitPixel, &ia);

  019fc	6a 00		 push	 0
  019fe	6a 00		 push	 0
  01a00	8d 55 cc	 lea	 edx, DWORD PTR _ia$187427[ebp]
  01a03	52		 push	 edx
  01a04	6a 02		 push	 2
  01a06	8b 45 c0	 mov	 eax, DWORD PTR _grect$187428[ebp+12]
  01a09	50		 push	 eax
  01a0a	8b 4d bc	 mov	 ecx, DWORD PTR _grect$187428[ebp+8]
  01a0d	51		 push	 ecx
  01a0e	6a 00		 push	 0
  01a10	6a 00		 push	 0
  01a12	8d 55 b4	 lea	 edx, DWORD PTR _grect$187428[ebp]
  01a15	52		 push	 edx
  01a16	8b 45 f0	 mov	 eax, DWORD PTR _this$[ebp]
  01a19	8b 48 7c	 mov	 ecx, DWORD PTR [eax+124]
  01a1c	e8 00 00 00 00	 call	 ??BCGdiPlusBitmap@@QBEPAVBitmap@Gdiplus@@XZ ; CGdiPlusBitmap::operator Gdiplus::Bitmap *
  01a21	50		 push	 eax
  01a22	8b 4d 08	 mov	 ecx, DWORD PTR _gdi$[ebp]
  01a25	e8 00 00 00 00	 call	 ?DrawImage@Graphics@Gdiplus@@QAE?AW4Status@2@PAVImage@2@ABVRectF@2@MMMMW4Unit@2@PBVImageAttributes@2@P6GHPAX@Z4@Z ; Gdiplus::Graphics::DrawImage

; 402  : 		}

  01a2a	c7 45 fc ff ff
	ff ff		 mov	 DWORD PTR __$EHRec$[ebp+8], -1
  01a31	8d 4d cc	 lea	 ecx, DWORD PTR _ia$187427[ebp]
  01a34	e8 00 00 00 00	 call	 ??1ImageAttributes@Gdiplus@@QAE@XZ ; Gdiplus::ImageAttributes::~ImageAttributes
$L187426:

; 403  : 	}
; 404  : 	else if(hue == DRAW_GRAY )

  01a39	e9 ed 00 00 00	 jmp	 $L187420
$L187425:
  01a3e	83 7d 0c 02	 cmp	 DWORD PTR _hue$[ebp], 2
  01a42	0f 85 e3 00 00
	00		 jne	 $L187420

; 405  : 	{
; 406  : 		if( m_pPngImage && m_pPngImage->m_pBitmap )

  01a48	8b 4d f0	 mov	 ecx, DWORD PTR _this$[ebp]
  01a4b	83 79 7c 00	 cmp	 DWORD PTR [ecx+124], 0
  01a4f	0f 84 d6 00 00
	00		 je	 $L187420
  01a55	8b 55 f0	 mov	 edx, DWORD PTR _this$[ebp]
  01a58	8b 42 7c	 mov	 eax, DWORD PTR [edx+124]
  01a5b	83 78 04 00	 cmp	 DWORD PTR [eax+4], 0
  01a5f	0f 84 c6 00 00
	00		 je	 $L187420

; 407  : 		{
; 408  : 			ImageAttributes ia;

  01a65	8d 4d a4	 lea	 ecx, DWORD PTR _ia$187432[ebp]
  01a68	e8 00 00 00 00	 call	 ??0ImageAttributes@Gdiplus@@QAE@XZ ; Gdiplus::ImageAttributes::ImageAttributes
  01a6d	c7 45 fc 01 00
	00 00		 mov	 DWORD PTR __$EHRec$[ebp+8], 1

; 409  : 			ia.SetColorMatrix(&m_GrayMat);

  01a74	6a 00		 push	 0
  01a76	6a 00		 push	 0
  01a78	8b 4d f0	 mov	 ecx, DWORD PTR _this$[ebp]
  01a7b	81 c1 00 01 00
	00		 add	 ecx, 256		; 00000100H
  01a81	51		 push	 ecx
  01a82	8d 4d a4	 lea	 ecx, DWORD PTR _ia$187432[ebp]
  01a85	e8 00 00 00 00	 call	 ?SetColorMatrix@ImageAttributes@Gdiplus@@QAE?AW4Status@2@PBUColorMatrix@2@W4ColorMatrixFlags@2@W4ColorAdjustType@2@@Z ; Gdiplus::ImageAttributes::SetColorMatrix

; 410  : 			RectF grect; grect.X=0, grect.Y=0; grect.Width = m_pPngImage->m_pBitmap->GetWidth(); grect.Height = m_pPngImage->m_pBitmap->GetHeight();

  01a8a	8d 4d 8c	 lea	 ecx, DWORD PTR _grect$187433[ebp]
  01a8d	e8 00 00 00 00	 call	 ??0RectF@Gdiplus@@QAE@XZ ; Gdiplus::RectF::RectF
  01a92	c7 45 8c 00 00
	00 00		 mov	 DWORD PTR _grect$187433[ebp], 0
  01a99	c7 45 90 00 00
	00 00		 mov	 DWORD PTR _grect$187433[ebp+4], 0
  01aa0	8b 55 f0	 mov	 edx, DWORD PTR _this$[ebp]
  01aa3	8b 42 7c	 mov	 eax, DWORD PTR [edx+124]
  01aa6	8b 48 04	 mov	 ecx, DWORD PTR [eax+4]
  01aa9	e8 00 00 00 00	 call	 ?GetWidth@Image@Gdiplus@@QAEIXZ ; Gdiplus::Image::GetWidth
  01aae	89 85 60 ff ff
	ff		 mov	 DWORD PTR tv290[ebp], eax
  01ab4	c7 85 64 ff ff
	ff 00 00 00 00	 mov	 DWORD PTR tv290[ebp+4], 0
  01abe	df ad 60 ff ff
	ff		 fild	 QWORD PTR tv290[ebp]
  01ac4	d9 5d 94	 fstp	 DWORD PTR _grect$187433[ebp+8]
  01ac7	8b 4d f0	 mov	 ecx, DWORD PTR _this$[ebp]
  01aca	8b 51 7c	 mov	 edx, DWORD PTR [ecx+124]
  01acd	8b 4a 04	 mov	 ecx, DWORD PTR [edx+4]
  01ad0	e8 00 00 00 00	 call	 ?GetHeight@Image@Gdiplus@@QAEIXZ ; Gdiplus::Image::GetHeight
  01ad5	89 85 58 ff ff
	ff		 mov	 DWORD PTR tv295[ebp], eax
  01adb	c7 85 5c ff ff
	ff 00 00 00 00	 mov	 DWORD PTR tv295[ebp+4], 0
  01ae5	df ad 58 ff ff
	ff		 fild	 QWORD PTR tv295[ebp]
  01aeb	d9 5d 98	 fstp	 DWORD PTR _grect$187433[ebp+12]

; 411  : 			gdi.DrawImage(*m_pPngImage, grect, 0, 0, grect.Width, grect.Height, UnitPixel, &ia);

  01aee	6a 00		 push	 0
  01af0	6a 00		 push	 0
  01af2	8d 45 a4	 lea	 eax, DWORD PTR _ia$187432[ebp]
  01af5	50		 push	 eax
  01af6	6a 02		 push	 2
  01af8	8b 4d 98	 mov	 ecx, DWORD PTR _grect$187433[ebp+12]
  01afb	51		 push	 ecx
  01afc	8b 55 94	 mov	 edx, DWORD PTR _grect$187433[ebp+8]
  01aff	52		 push	 edx
  01b00	6a 00		 push	 0
  01b02	6a 00		 push	 0
  01b04	8d 45 8c	 lea	 eax, DWORD PTR _grect$187433[ebp]
  01b07	50		 push	 eax
  01b08	8b 4d f0	 mov	 ecx, DWORD PTR _this$[ebp]
  01b0b	8b 49 7c	 mov	 ecx, DWORD PTR [ecx+124]
  01b0e	e8 00 00 00 00	 call	 ??BCGdiPlusBitmap@@QBEPAVBitmap@Gdiplus@@XZ ; CGdiPlusBitmap::operator Gdiplus::Bitmap *
  01b13	50		 push	 eax
  01b14	8b 4d 08	 mov	 ecx, DWORD PTR _gdi$[ebp]
  01b17	e8 00 00 00 00	 call	 ?DrawImage@Graphics@Gdiplus@@QAE?AW4Status@2@PAVImage@2@ABVRectF@2@MMMMW4Unit@2@PBVImageAttributes@2@P6GHPAX@Z4@Z ; Gdiplus::Graphics::DrawImage

; 412  : 		}

  01b1c	c7 45 fc ff ff
	ff ff		 mov	 DWORD PTR __$EHRec$[ebp+8], -1
  01b23	8d 4d a4	 lea	 ecx, DWORD PTR _ia$187432[ebp]
  01b26	e8 00 00 00 00	 call	 ??1ImageAttributes@Gdiplus@@QAE@XZ ; Gdiplus::ImageAttributes::~ImageAttributes
$L187420:

; 413  : 	}
; 414  : }

  01b2b	52		 push	 edx
  01b2c	8b cd		 mov	 ecx, ebp
  01b2e	50		 push	 eax
  01b2f	8d 15 00 00 00
	00		 lea	 edx, DWORD PTR $L188388
  01b35	e8 00 00 00 00	 call	 @_RTC_CheckStackVars@8
  01b3a	58		 pop	 eax
  01b3b	5a		 pop	 edx
  01b3c	8b 4d f4	 mov	 ecx, DWORD PTR __$EHRec$[ebp]
  01b3f	64 89 0d 00 00
	00 00		 mov	 DWORD PTR fs:__except_list, ecx
  01b46	5f		 pop	 edi
  01b47	81 c4 a8 00 00
	00		 add	 esp, 168		; 000000a8H
  01b4d	3b ec		 cmp	 ebp, esp
  01b4f	e8 00 00 00 00	 call	 __RTC_CheckEsp
  01b54	8b e5		 mov	 esp, ebp
  01b56	5d		 pop	 ebp
  01b57	c2 08 00	 ret	 8
$L188388:
  01b5a	05 00 00 00	 DD	 5
  01b5e	00 00 00 00	 DD	 $L188387
$L188387:
  01b62	dc ff ff ff	 DD	 -36			; ffffffdcH
  01b66	10 00 00 00	 DD	 16			; 00000010H
  01b6a	00 00 00 00	 DD	 $L188381
  01b6e	cc ff ff ff	 DD	 -52			; ffffffccH
  01b72	08 00 00 00	 DD	 8
  01b76	00 00 00 00	 DD	 $L188382
  01b7a	b4 ff ff ff	 DD	 -76			; ffffffb4H
  01b7e	10 00 00 00	 DD	 16			; 00000010H
  01b82	00 00 00 00	 DD	 $L188383
  01b86	a4 ff ff ff	 DD	 -92			; ffffffa4H
  01b8a	08 00 00 00	 DD	 8
  01b8e	00 00 00 00	 DD	 $L188384
  01b92	8c ff ff ff	 DD	 -116			; ffffff8cH
  01b96	10 00 00 00	 DD	 16			; 00000010H
  01b9a	00 00 00 00	 DD	 $L188385
$L188385:
  01b9e	67		 DB	 103			; 00000067H
  01b9f	72		 DB	 114			; 00000072H
  01ba0	65		 DB	 101			; 00000065H
  01ba1	63		 DB	 99			; 00000063H
  01ba2	74		 DB	 116			; 00000074H
  01ba3	00		 DB	 0
$L188384:
  01ba4	69		 DB	 105			; 00000069H
  01ba5	61		 DB	 97			; 00000061H
  01ba6	00		 DB	 0
$L188383:
  01ba7	67		 DB	 103			; 00000067H
  01ba8	72		 DB	 114			; 00000072H
  01ba9	65		 DB	 101			; 00000065H
  01baa	63		 DB	 99			; 00000063H
  01bab	74		 DB	 116			; 00000074H
  01bac	00		 DB	 0
$L188382:
  01bad	69		 DB	 105			; 00000069H
  01bae	61		 DB	 97			; 00000061H
  01baf	00		 DB	 0
$L188381:
  01bb0	67		 DB	 103			; 00000067H
  01bb1	72		 DB	 114			; 00000072H
  01bb2	65		 DB	 101			; 00000065H
  01bb3	63		 DB	 99			; 00000063H
  01bb4	74		 DB	 116			; 00000074H
  01bb5	00		 DB	 0
_TEXT	ENDS
text$x	SEGMENT
$L188377:
  00148	8d 4d cc	 lea	 ecx, DWORD PTR _ia$187427[ebp]
  0014b	e9 00 00 00 00	 jmp	 ??1ImageAttributes@Gdiplus@@QAE@XZ ; Gdiplus::ImageAttributes::~ImageAttributes
$L188378:
  00150	8d 4d a4	 lea	 ecx, DWORD PTR _ia$187432[ebp]
  00153	e9 00 00 00 00	 jmp	 ??1ImageAttributes@Gdiplus@@QAE@XZ ; Gdiplus::ImageAttributes::~ImageAttributes
__ehhandler$?DrawImage@CSkinButton2@@AAEXAAVGraphics@Gdiplus@@W4BTN_DRAW_HUE@1@@Z:
  00158	b8 00 00 00 00	 mov	 eax, OFFSET FLAT:$T188380
  0015d	e9 00 00 00 00	 jmp	 ___CxxFrameHandler
text$x	ENDS
?DrawImage@CSkinButton2@@AAEXAAVGraphics@Gdiplus@@W4BTN_DRAW_HUE@1@@Z ENDP ; CSkinButton2::DrawImage
; Function compile flags: /Odt /RTCsu
; File d:\boxgit\playbox\playbox\dev\prj\playbox\src\gui\commoncontrol\skinbutton2.h
;	COMDAT ??BCGdiPlusBitmap@@QBEPAVBitmap@Gdiplus@@XZ
_TEXT	SEGMENT
_this$ = -4						; size = 4
??BCGdiPlusBitmap@@QBEPAVBitmap@Gdiplus@@XZ PROC NEAR	; CGdiPlusBitmap::operator Gdiplus::Bitmap *, COMDAT
; _this$ = ecx

; 27   : 	operator Gdiplus::Bitmap*() const			{ return m_pBitmap; }

  00000	55		 push	 ebp
  00001	8b ec		 mov	 ebp, esp
  00003	51		 push	 ecx
  00004	c7 45 fc cc cc
	cc cc		 mov	 DWORD PTR [ebp-4], -858993460 ; ccccccccH
  0000b	89 4d fc	 mov	 DWORD PTR _this$[ebp], ecx
  0000e	8b 45 fc	 mov	 eax, DWORD PTR _this$[ebp]
  00011	8b 40 04	 mov	 eax, DWORD PTR [eax+4]
  00014	8b e5		 mov	 esp, ebp
  00016	5d		 pop	 ebp
  00017	c3		 ret	 0
??BCGdiPlusBitmap@@QBEPAVBitmap@Gdiplus@@XZ ENDP	; CGdiPlusBitmap::operator Gdiplus::Bitmap *
_TEXT	ENDS
PUBLIC	??0LinearGradientBrush@Gdiplus@@QAE@ABVRectF@1@ABVColor@1@1W4LinearGradientMode@1@@Z ; Gdiplus::LinearGradientBrush::LinearGradientBrush
PUBLIC	?DrawLine@Graphics@Gdiplus@@QAE?AW4Status@2@PBVPen@2@HHHH@Z ; Gdiplus::Graphics::DrawLine
PUBLIC	?DrawArc@Graphics@Gdiplus@@QAE?AW4Status@2@PBVPen@2@ABVRectF@2@MM@Z ; Gdiplus::Graphics::DrawArc
PUBLIC	??1LinearGradientBrush@Gdiplus@@UAE@XZ		; Gdiplus::LinearGradientBrush::~LinearGradientBrush
PUBLIC	?Inflate@RectF@Gdiplus@@QAEXMM@Z		; Gdiplus::RectF::Inflate
PUBLIC	?FillRectangle@Graphics@Gdiplus@@QAE?AW4Status@2@PBVBrush@2@ABVRectF@2@@Z ; Gdiplus::Graphics::FillRectangle
PUBLIC	??0Pen@Gdiplus@@QAE@ABVColor@1@M@Z		; Gdiplus::Pen::Pen
PUBLIC	??1Pen@Gdiplus@@QAE@XZ				; Gdiplus::Pen::~Pen
PUBLIC	?SetColor@Pen@Gdiplus@@QAE?AW4Status@2@ABVColor@2@@Z ; Gdiplus::Pen::SetColor
PUBLIC	?GetColor@Pen@Gdiplus@@QBE?AW4Status@2@PAVColor@2@@Z ; Gdiplus::Pen::GetColor
PUBLIC	??0Color@Gdiplus@@QAE@K@Z			; Gdiplus::Color::Color
PUBLIC	?GetA@Color@Gdiplus@@QBEEXZ			; Gdiplus::Color::GetA
PUBLIC	?GetR@Color@Gdiplus@@QBEEXZ			; Gdiplus::Color::GetR
PUBLIC	?GetG@Color@Gdiplus@@QBEEXZ			; Gdiplus::Color::GetG
PUBLIC	?GetB@Color@Gdiplus@@QBEEXZ			; Gdiplus::Color::GetB
EXTRN	__imp__InflateRect@12:NEAR
xdata$x	SEGMENT
$T188453 DD	0ffffffffH
	DD	FLAT:$L188392
	DD	00H
	DD	FLAT:$L188393
	DD	01H
	DD	FLAT:$L188394
	DD	02H
	DD	FLAT:$L188395
	DD	01H
	DD	FLAT:$L188396
	DD	01H
	DD	FLAT:$L188397
	DD	0ffffffffH
	DD	FLAT:$L188398
	DD	06H
	DD	FLAT:$L188399
	DD	07H
	DD	FLAT:$L188400
	DD	08H
	DD	FLAT:$L188401
	DD	07H
	DD	FLAT:$L188402
	DD	0aH
	DD	FLAT:$L188403
	DD	0ffffffffH
	DD	FLAT:$L188404
	DD	0cH
	DD	FLAT:$L188405
	DD	0cH
	DD	FLAT:$L188406
	DD	0cH
	DD	FLAT:$L188407
$T188409 DD	019930520H
	DD	010H
	DD	FLAT:$T188453
	DD	2 DUP(00H)
	DD	2 DUP(00H)
; Function compile flags: /Odt /RTCsu
; File d:\boxgit\playbox\playbox\dev\prj\playbox\src\gui\commoncontrol\skinbutton2.cpp
xdata$x	ENDS
_TEXT	SEGMENT
tv1606 = -812						; size = 4
tv1604 = -808						; size = 4
tv1586 = -804						; size = 4
tv1584 = -800						; size = 4
tv1571 = -796						; size = 4
tv1559 = -792						; size = 4
tv1478 = -788						; size = 4
tv1471 = -784						; size = 4
tv1469 = -780						; size = 4
tv1451 = -776						; size = 4
tv1449 = -772						; size = 4
tv1282 = -768						; size = 4
tv1280 = -764						; size = 4
tv1262 = -760						; size = 4
tv1260 = -756						; size = 4
_brush$187493 = -748					; size = 12
_rc$187492 = -728					; size = 16
_brush$187490 = -704					; size = 12
_colBrush2$187489 = -684				; size = 4
_colBrush1$187488 = -672				; size = 4
_rc$187487 = -660					; size = 16
_rectRightTop$187485 = -636				; size = 16
_rectLeftTop$187484 = -612				; size = 16
_rectRightTop2$187483 = -588				; size = 16
_rectLeftTop2$187482 = -564				; size = 16
_pen2$187481 = -540					; size = 8
_rect2$187479 = -524					; size = 16
_pen1$187478 = -500					; size = 8
_brush2$187476 = -484					; size = 12
_rc1$187475 = -464					; size = 16
_colBlack2$187474 = -440				; size = 4
_colBlack1$187473 = -428				; size = 4
_brush$187472 = -416					; size = 12
_rc$187471 = -396					; size = 16
_rect3$187470 = -372					; size = 16
_penPix2$187469 = -348					; size = 8
_colpix2$187468 = -332					; size = 4
_pen2$187465 = -320					; size = 8
_rect2$187463 = -304					; size = 16
_penPix1$187462 = -280					; size = 8
_colpix$187461 = -264					; size = 4
_pen1$187460 = -252					; size = 8
_brush$187457 = -236					; size = 12
_rc$187456 = -216					; size = 16
_brush$187454 = -192					; size = 12
_colBrush2$187453 = -172				; size = 4
_colBrush1$187452 = -160				; size = 4
_rc$187451 = -148					; size = 16
_penPix2$187449 = -124					; size = 8
_colpix2$187448 = -108					; size = 4
_pen2$187445 = -96					; size = 8
_rect2$187443 = -80					; size = 16
_penPix1$187442 = -56					; size = 8
_colpix$187441 = -40					; size = 4
_pen1$187440 = -28					; size = 8
_this$ = -16						; size = 4
__$EHRec$ = -12						; size = 12
_gdi$ = 8						; size = 4
_rect$ = 12						; size = 4
?DrawFrame@CSkinButton2@@AAEXAAVGraphics@Gdiplus@@AAVCRect@@@Z PROC NEAR ; CSkinButton2::DrawFrame
; _this$ = ecx

; 416  : {

  01bc0	55		 push	 ebp
  01bc1	8b ec		 mov	 ebp, esp
  01bc3	6a ff		 push	 -1
  01bc5	68 00 00 00 00	 push	 __ehhandler$?DrawFrame@CSkinButton2@@AAEXAAVGraphics@Gdiplus@@AAVCRect@@@Z
  01bca	64 a1 00 00 00
	00		 mov	 eax, DWORD PTR fs:__except_list
  01bd0	50		 push	 eax
  01bd1	64 89 25 00 00
	00 00		 mov	 DWORD PTR fs:__except_list, esp
  01bd8	81 ec 20 03 00
	00		 sub	 esp, 800		; 00000320H
  01bde	56		 push	 esi
  01bdf	57		 push	 edi
  01be0	51		 push	 ecx
  01be1	8d bd d4 fc ff
	ff		 lea	 edi, DWORD PTR [ebp-812]
  01be7	b9 c8 00 00 00	 mov	 ecx, 200		; 000000c8H
  01bec	b8 cc cc cc cc	 mov	 eax, -858993460		; ccccccccH
  01bf1	f3 ab		 rep stosd
  01bf3	59		 pop	 ecx
  01bf4	89 4d f0	 mov	 DWORD PTR _this$[ebp], ecx

; 417  : 	if( m_enmuDrawType == NO_FRAME )

  01bf7	8b 45 f0	 mov	 eax, DWORD PTR _this$[ebp]
  01bfa	83 78 54 00	 cmp	 DWORD PTR [eax+84], 0
  01bfe	0f 85 03 06 00
	00		 jne	 $L187439

; 418  : 	{
; 419  : 		Gdiplus::Pen pen1( m_colFrame1 );

  01c04	68 00 00 80 3f	 push	 1065353216		; 3f800000H
  01c09	8b 4d f0	 mov	 ecx, DWORD PTR _this$[ebp]
  01c0c	81 c1 70 01 00
	00		 add	 ecx, 368		; 00000170H
  01c12	51		 push	 ecx
  01c13	8d 4d e4	 lea	 ecx, DWORD PTR _pen1$187440[ebp]
  01c16	e8 00 00 00 00	 call	 ??0Pen@Gdiplus@@QAE@ABVColor@1@M@Z ; Gdiplus::Pen::Pen
  01c1b	c7 45 fc 00 00
	00 00		 mov	 DWORD PTR __$EHRec$[ebp+8], 0

; 420  : 		gdi.DrawLine( &pen1, rect.left+1, rect.top, rect.right-2, rect.top );

  01c22	8b 55 0c	 mov	 edx, DWORD PTR _rect$[ebp]
  01c25	8b 42 04	 mov	 eax, DWORD PTR [edx+4]
  01c28	50		 push	 eax
  01c29	8b 4d 0c	 mov	 ecx, DWORD PTR _rect$[ebp]
  01c2c	8b 51 08	 mov	 edx, DWORD PTR [ecx+8]
  01c2f	83 ea 02	 sub	 edx, 2
  01c32	52		 push	 edx
  01c33	8b 45 0c	 mov	 eax, DWORD PTR _rect$[ebp]
  01c36	8b 48 04	 mov	 ecx, DWORD PTR [eax+4]
  01c39	51		 push	 ecx
  01c3a	8b 55 0c	 mov	 edx, DWORD PTR _rect$[ebp]
  01c3d	8b 02		 mov	 eax, DWORD PTR [edx]
  01c3f	83 c0 01	 add	 eax, 1
  01c42	50		 push	 eax
  01c43	8d 4d e4	 lea	 ecx, DWORD PTR _pen1$187440[ebp]
  01c46	51		 push	 ecx
  01c47	8b 4d 08	 mov	 ecx, DWORD PTR _gdi$[ebp]
  01c4a	e8 00 00 00 00	 call	 ?DrawLine@Graphics@Gdiplus@@QAE?AW4Status@2@PBVPen@2@HHHH@Z ; Gdiplus::Graphics::DrawLine

; 421  : 		gdi.DrawLine( &pen1, rect.left+1, rect.bottom-1, rect.right-2, rect.bottom-1 );

  01c4f	8b 55 0c	 mov	 edx, DWORD PTR _rect$[ebp]
  01c52	8b 42 0c	 mov	 eax, DWORD PTR [edx+12]
  01c55	83 e8 01	 sub	 eax, 1
  01c58	50		 push	 eax
  01c59	8b 4d 0c	 mov	 ecx, DWORD PTR _rect$[ebp]
  01c5c	8b 51 08	 mov	 edx, DWORD PTR [ecx+8]
  01c5f	83 ea 02	 sub	 edx, 2
  01c62	52		 push	 edx
  01c63	8b 45 0c	 mov	 eax, DWORD PTR _rect$[ebp]
  01c66	8b 48 0c	 mov	 ecx, DWORD PTR [eax+12]
  01c69	83 e9 01	 sub	 ecx, 1
  01c6c	51		 push	 ecx
  01c6d	8b 55 0c	 mov	 edx, DWORD PTR _rect$[ebp]
  01c70	8b 02		 mov	 eax, DWORD PTR [edx]
  01c72	83 c0 01	 add	 eax, 1
  01c75	50		 push	 eax
  01c76	8d 4d e4	 lea	 ecx, DWORD PTR _pen1$187440[ebp]
  01c79	51		 push	 ecx
  01c7a	8b 4d 08	 mov	 ecx, DWORD PTR _gdi$[ebp]
  01c7d	e8 00 00 00 00	 call	 ?DrawLine@Graphics@Gdiplus@@QAE?AW4Status@2@PBVPen@2@HHHH@Z ; Gdiplus::Graphics::DrawLine

; 422  : 		gdi.DrawLine( &pen1, rect.left, rect.top+1, rect.left, rect.bottom-2 );

  01c82	8b 55 0c	 mov	 edx, DWORD PTR _rect$[ebp]
  01c85	8b 42 0c	 mov	 eax, DWORD PTR [edx+12]
  01c88	83 e8 02	 sub	 eax, 2
  01c8b	50		 push	 eax
  01c8c	8b 4d 0c	 mov	 ecx, DWORD PTR _rect$[ebp]
  01c8f	8b 11		 mov	 edx, DWORD PTR [ecx]
  01c91	52		 push	 edx
  01c92	8b 45 0c	 mov	 eax, DWORD PTR _rect$[ebp]
  01c95	8b 48 04	 mov	 ecx, DWORD PTR [eax+4]
  01c98	83 c1 01	 add	 ecx, 1
  01c9b	51		 push	 ecx
  01c9c	8b 55 0c	 mov	 edx, DWORD PTR _rect$[ebp]
  01c9f	8b 02		 mov	 eax, DWORD PTR [edx]
  01ca1	50		 push	 eax
  01ca2	8d 4d e4	 lea	 ecx, DWORD PTR _pen1$187440[ebp]
  01ca5	51		 push	 ecx
  01ca6	8b 4d 08	 mov	 ecx, DWORD PTR _gdi$[ebp]
  01ca9	e8 00 00 00 00	 call	 ?DrawLine@Graphics@Gdiplus@@QAE?AW4Status@2@PBVPen@2@HHHH@Z ; Gdiplus::Graphics::DrawLine

; 423  : 		gdi.DrawLine( &pen1, rect.right-1, rect.top+1, rect.right-1, rect.bottom-2 );

  01cae	8b 55 0c	 mov	 edx, DWORD PTR _rect$[ebp]
  01cb1	8b 42 0c	 mov	 eax, DWORD PTR [edx+12]
  01cb4	83 e8 02	 sub	 eax, 2
  01cb7	50		 push	 eax
  01cb8	8b 4d 0c	 mov	 ecx, DWORD PTR _rect$[ebp]
  01cbb	8b 51 08	 mov	 edx, DWORD PTR [ecx+8]
  01cbe	83 ea 01	 sub	 edx, 1
  01cc1	52		 push	 edx
  01cc2	8b 45 0c	 mov	 eax, DWORD PTR _rect$[ebp]
  01cc5	8b 48 04	 mov	 ecx, DWORD PTR [eax+4]
  01cc8	83 c1 01	 add	 ecx, 1
  01ccb	51		 push	 ecx
  01ccc	8b 55 0c	 mov	 edx, DWORD PTR _rect$[ebp]
  01ccf	8b 42 08	 mov	 eax, DWORD PTR [edx+8]
  01cd2	83 e8 01	 sub	 eax, 1
  01cd5	50		 push	 eax
  01cd6	8d 4d e4	 lea	 ecx, DWORD PTR _pen1$187440[ebp]
  01cd9	51		 push	 ecx
  01cda	8b 4d 08	 mov	 ecx, DWORD PTR _gdi$[ebp]
  01cdd	e8 00 00 00 00	 call	 ?DrawLine@Graphics@Gdiplus@@QAE?AW4Status@2@PBVPen@2@HHHH@Z ; Gdiplus::Graphics::DrawLine

; 424  : 
; 425  : 		Gdiplus::Color colpix;

  01ce2	8d 4d d8	 lea	 ecx, DWORD PTR _colpix$187441[ebp]
  01ce5	e8 00 00 00 00	 call	 ??0Color@Gdiplus@@QAE@XZ ; Gdiplus::Color::Color

; 426  : 		pen1.GetColor( &colpix );

  01cea	8d 55 d8	 lea	 edx, DWORD PTR _colpix$187441[ebp]
  01ced	52		 push	 edx
  01cee	8d 4d e4	 lea	 ecx, DWORD PTR _pen1$187440[ebp]
  01cf1	e8 00 00 00 00	 call	 ?GetColor@Pen@Gdiplus@@QBE?AW4Status@2@PAVColor@2@@Z ; Gdiplus::Pen::GetColor

; 427  : 		colpix.SetValue( Gdiplus::Color::MakeARGB(colpix.GetA()/2,colpix.GetR(),colpix.GetG(),colpix.GetB() ) );

  01cf6	8d 4d d8	 lea	 ecx, DWORD PTR _colpix$187441[ebp]
  01cf9	e8 00 00 00 00	 call	 ?GetB@Color@Gdiplus@@QBEEXZ ; Gdiplus::Color::GetB
  01cfe	50		 push	 eax
  01cff	8d 4d d8	 lea	 ecx, DWORD PTR _colpix$187441[ebp]
  01d02	e8 00 00 00 00	 call	 ?GetG@Color@Gdiplus@@QBEEXZ ; Gdiplus::Color::GetG
  01d07	50		 push	 eax
  01d08	8d 4d d8	 lea	 ecx, DWORD PTR _colpix$187441[ebp]
  01d0b	e8 00 00 00 00	 call	 ?GetR@Color@Gdiplus@@QBEEXZ ; Gdiplus::Color::GetR
  01d10	50		 push	 eax
  01d11	8d 4d d8	 lea	 ecx, DWORD PTR _colpix$187441[ebp]
  01d14	e8 00 00 00 00	 call	 ?GetA@Color@Gdiplus@@QBEEXZ ; Gdiplus::Color::GetA
  01d19	0f b6 c0	 movzx	 eax, al
  01d1c	99		 cdq
  01d1d	2b c2		 sub	 eax, edx
  01d1f	d1 f8		 sar	 eax, 1
  01d21	50		 push	 eax
  01d22	e8 00 00 00 00	 call	 ?MakeARGB@Color@Gdiplus@@SAKEEEE@Z ; Gdiplus::Color::MakeARGB
  01d27	83 c4 10	 add	 esp, 16			; 00000010H
  01d2a	50		 push	 eax
  01d2b	8d 4d d8	 lea	 ecx, DWORD PTR _colpix$187441[ebp]
  01d2e	e8 00 00 00 00	 call	 ?SetValue@Color@Gdiplus@@QAEXK@Z ; Gdiplus::Color::SetValue

; 428  : 		Gdiplus::Pen penPix1( colpix );

  01d33	68 00 00 80 3f	 push	 1065353216		; 3f800000H
  01d38	8d 45 d8	 lea	 eax, DWORD PTR _colpix$187441[ebp]
  01d3b	50		 push	 eax
  01d3c	8d 4d c8	 lea	 ecx, DWORD PTR _penPix1$187442[ebp]
  01d3f	e8 00 00 00 00	 call	 ??0Pen@Gdiplus@@QAE@ABVColor@1@M@Z ; Gdiplus::Pen::Pen
  01d44	c6 45 fc 01	 mov	 BYTE PTR __$EHRec$[ebp+8], 1

; 429  : 		gdi.DrawLine( &penPix1, rect.left, rect.top, rect.left+1, rect.top );

  01d48	8b 4d 0c	 mov	 ecx, DWORD PTR _rect$[ebp]
  01d4b	8b 51 04	 mov	 edx, DWORD PTR [ecx+4]
  01d4e	52		 push	 edx
  01d4f	8b 45 0c	 mov	 eax, DWORD PTR _rect$[ebp]
  01d52	8b 08		 mov	 ecx, DWORD PTR [eax]
  01d54	83 c1 01	 add	 ecx, 1
  01d57	51		 push	 ecx
  01d58	8b 55 0c	 mov	 edx, DWORD PTR _rect$[ebp]
  01d5b	8b 42 04	 mov	 eax, DWORD PTR [edx+4]
  01d5e	50		 push	 eax
  01d5f	8b 4d 0c	 mov	 ecx, DWORD PTR _rect$[ebp]
  01d62	8b 11		 mov	 edx, DWORD PTR [ecx]
  01d64	52		 push	 edx
  01d65	8d 45 c8	 lea	 eax, DWORD PTR _penPix1$187442[ebp]
  01d68	50		 push	 eax
  01d69	8b 4d 08	 mov	 ecx, DWORD PTR _gdi$[ebp]
  01d6c	e8 00 00 00 00	 call	 ?DrawLine@Graphics@Gdiplus@@QAE?AW4Status@2@PBVPen@2@HHHH@Z ; Gdiplus::Graphics::DrawLine

; 430  : 		gdi.DrawLine( &penPix1, rect.right-1, rect.top, rect.right-1, rect.top+1 );

  01d71	8b 4d 0c	 mov	 ecx, DWORD PTR _rect$[ebp]
  01d74	8b 51 04	 mov	 edx, DWORD PTR [ecx+4]
  01d77	83 c2 01	 add	 edx, 1
  01d7a	52		 push	 edx
  01d7b	8b 45 0c	 mov	 eax, DWORD PTR _rect$[ebp]
  01d7e	8b 48 08	 mov	 ecx, DWORD PTR [eax+8]
  01d81	83 e9 01	 sub	 ecx, 1
  01d84	51		 push	 ecx
  01d85	8b 55 0c	 mov	 edx, DWORD PTR _rect$[ebp]
  01d88	8b 42 04	 mov	 eax, DWORD PTR [edx+4]
  01d8b	50		 push	 eax
  01d8c	8b 4d 0c	 mov	 ecx, DWORD PTR _rect$[ebp]
  01d8f	8b 51 08	 mov	 edx, DWORD PTR [ecx+8]
  01d92	83 ea 01	 sub	 edx, 1
  01d95	52		 push	 edx
  01d96	8d 45 c8	 lea	 eax, DWORD PTR _penPix1$187442[ebp]
  01d99	50		 push	 eax
  01d9a	8b 4d 08	 mov	 ecx, DWORD PTR _gdi$[ebp]
  01d9d	e8 00 00 00 00	 call	 ?DrawLine@Graphics@Gdiplus@@QAE?AW4Status@2@PBVPen@2@HHHH@Z ; Gdiplus::Graphics::DrawLine

; 431  : 		gdi.DrawLine( &penPix1, rect.right-1, rect.bottom-1, rect.right-2, rect.bottom-1 );

  01da2	8b 4d 0c	 mov	 ecx, DWORD PTR _rect$[ebp]
  01da5	8b 51 0c	 mov	 edx, DWORD PTR [ecx+12]
  01da8	83 ea 01	 sub	 edx, 1
  01dab	52		 push	 edx
  01dac	8b 45 0c	 mov	 eax, DWORD PTR _rect$[ebp]
  01daf	8b 48 08	 mov	 ecx, DWORD PTR [eax+8]
  01db2	83 e9 02	 sub	 ecx, 2
  01db5	51		 push	 ecx
  01db6	8b 55 0c	 mov	 edx, DWORD PTR _rect$[ebp]
  01db9	8b 42 0c	 mov	 eax, DWORD PTR [edx+12]
  01dbc	83 e8 01	 sub	 eax, 1
  01dbf	50		 push	 eax
  01dc0	8b 4d 0c	 mov	 ecx, DWORD PTR _rect$[ebp]
  01dc3	8b 51 08	 mov	 edx, DWORD PTR [ecx+8]
  01dc6	83 ea 01	 sub	 edx, 1
  01dc9	52		 push	 edx
  01dca	8d 45 c8	 lea	 eax, DWORD PTR _penPix1$187442[ebp]
  01dcd	50		 push	 eax
  01dce	8b 4d 08	 mov	 ecx, DWORD PTR _gdi$[ebp]
  01dd1	e8 00 00 00 00	 call	 ?DrawLine@Graphics@Gdiplus@@QAE?AW4Status@2@PBVPen@2@HHHH@Z ; Gdiplus::Graphics::DrawLine

; 432  : 		gdi.DrawLine( &penPix1, rect.left,  rect.bottom-1, rect.left+1,  rect.bottom-1 );

  01dd6	8b 4d 0c	 mov	 ecx, DWORD PTR _rect$[ebp]
  01dd9	8b 51 0c	 mov	 edx, DWORD PTR [ecx+12]
  01ddc	83 ea 01	 sub	 edx, 1
  01ddf	52		 push	 edx
  01de0	8b 45 0c	 mov	 eax, DWORD PTR _rect$[ebp]
  01de3	8b 08		 mov	 ecx, DWORD PTR [eax]
  01de5	83 c1 01	 add	 ecx, 1
  01de8	51		 push	 ecx
  01de9	8b 55 0c	 mov	 edx, DWORD PTR _rect$[ebp]
  01dec	8b 42 0c	 mov	 eax, DWORD PTR [edx+12]
  01def	83 e8 01	 sub	 eax, 1
  01df2	50		 push	 eax
  01df3	8b 4d 0c	 mov	 ecx, DWORD PTR _rect$[ebp]
  01df6	8b 11		 mov	 edx, DWORD PTR [ecx]
  01df8	52		 push	 edx
  01df9	8d 45 c8	 lea	 eax, DWORD PTR _penPix1$187442[ebp]
  01dfc	50		 push	 eax
  01dfd	8b 4d 08	 mov	 ecx, DWORD PTR _gdi$[ebp]
  01e00	e8 00 00 00 00	 call	 ?DrawLine@Graphics@Gdiplus@@QAE?AW4Status@2@PBVPen@2@HHHH@Z ; Gdiplus::Graphics::DrawLine

; 433  : 
; 434  : 		CRect rect2 = rect;

  01e05	8b 4d 0c	 mov	 ecx, DWORD PTR _rect$[ebp]
  01e08	8b 11		 mov	 edx, DWORD PTR [ecx]
  01e0a	89 55 b0	 mov	 DWORD PTR _rect2$187443[ebp], edx
  01e0d	8b 41 04	 mov	 eax, DWORD PTR [ecx+4]
  01e10	89 45 b4	 mov	 DWORD PTR _rect2$187443[ebp+4], eax
  01e13	8b 51 08	 mov	 edx, DWORD PTR [ecx+8]
  01e16	89 55 b8	 mov	 DWORD PTR _rect2$187443[ebp+8], edx
  01e19	8b 41 0c	 mov	 eax, DWORD PTR [ecx+12]
  01e1c	89 45 bc	 mov	 DWORD PTR _rect2$187443[ebp+12], eax

; 435  : 		::InflateRect( &rect2, -1,-1 );

  01e1f	8b f4		 mov	 esi, esp
  01e21	6a ff		 push	 -1
  01e23	6a ff		 push	 -1
  01e25	8d 4d b0	 lea	 ecx, DWORD PTR _rect2$187443[ebp]
  01e28	51		 push	 ecx
  01e29	ff 15 00 00 00
	00		 call	 DWORD PTR __imp__InflateRect@12
  01e2f	3b f4		 cmp	 esi, esp
  01e31	e8 00 00 00 00	 call	 __RTC_CheckEsp

; 436  : 		if( !m_bMouseDown )

  01e36	8b 55 f0	 mov	 edx, DWORD PTR _this$[ebp]
  01e39	83 ba 88 00 00
	00 00		 cmp	 DWORD PTR [edx+136], 0
  01e40	0f 85 ee 01 00
	00		 jne	 $L187444

; 437  : 		{
; 438  : 			Gdiplus::Pen pen2(m_colFrame2);

  01e46	68 00 00 80 3f	 push	 1065353216		; 3f800000H
  01e4b	8b 45 f0	 mov	 eax, DWORD PTR _this$[ebp]
  01e4e	05 74 01 00 00	 add	 eax, 372		; 00000174H
  01e53	50		 push	 eax
  01e54	8d 4d a0	 lea	 ecx, DWORD PTR _pen2$187445[ebp]
  01e57	e8 00 00 00 00	 call	 ??0Pen@Gdiplus@@QAE@ABVColor@1@M@Z ; Gdiplus::Pen::Pen
  01e5c	c6 45 fc 02	 mov	 BYTE PTR __$EHRec$[ebp+8], 2

; 439  : 			if( m_bMouseDown )

  01e60	8b 4d f0	 mov	 ecx, DWORD PTR _this$[ebp]
  01e63	83 b9 88 00 00
	00 00		 cmp	 DWORD PTR [ecx+136], 0
  01e6a	74 14		 je	 SHORT $L187446

; 440  : 				pen2.SetColor(m_colFrame1);

  01e6c	8b 55 f0	 mov	 edx, DWORD PTR _this$[ebp]
  01e6f	81 c2 70 01 00
	00		 add	 edx, 368		; 00000170H
  01e75	52		 push	 edx
  01e76	8d 4d a0	 lea	 ecx, DWORD PTR _pen2$187445[ebp]
  01e79	e8 00 00 00 00	 call	 ?SetColor@Pen@Gdiplus@@QAE?AW4Status@2@ABVColor@2@@Z ; Gdiplus::Pen::SetColor

; 441  : 			else

  01e7e	eb 11		 jmp	 SHORT $L187447
$L187446:

; 442  : 				pen2.SetColor(m_colFrame2);

  01e80	8b 45 f0	 mov	 eax, DWORD PTR _this$[ebp]
  01e83	05 74 01 00 00	 add	 eax, 372		; 00000174H
  01e88	50		 push	 eax
  01e89	8d 4d a0	 lea	 ecx, DWORD PTR _pen2$187445[ebp]
  01e8c	e8 00 00 00 00	 call	 ?SetColor@Pen@Gdiplus@@QAE?AW4Status@2@ABVColor@2@@Z ; Gdiplus::Pen::SetColor
$L187447:

; 443  : 
; 444  : 			gdi.DrawLine( &pen2, rect2.left+1, rect2.top, rect2.right-2, rect2.top );

  01e91	8b 4d b4	 mov	 ecx, DWORD PTR _rect2$187443[ebp+4]
  01e94	51		 push	 ecx
  01e95	8b 55 b8	 mov	 edx, DWORD PTR _rect2$187443[ebp+8]
  01e98	83 ea 02	 sub	 edx, 2
  01e9b	52		 push	 edx
  01e9c	8b 45 b4	 mov	 eax, DWORD PTR _rect2$187443[ebp+4]
  01e9f	50		 push	 eax
  01ea0	8b 4d b0	 mov	 ecx, DWORD PTR _rect2$187443[ebp]
  01ea3	83 c1 01	 add	 ecx, 1
  01ea6	51		 push	 ecx
  01ea7	8d 55 a0	 lea	 edx, DWORD PTR _pen2$187445[ebp]
  01eaa	52		 push	 edx
  01eab	8b 4d 08	 mov	 ecx, DWORD PTR _gdi$[ebp]
  01eae	e8 00 00 00 00	 call	 ?DrawLine@Graphics@Gdiplus@@QAE?AW4Status@2@PBVPen@2@HHHH@Z ; Gdiplus::Graphics::DrawLine

; 445  : 			gdi.DrawLine( &pen2, rect2.left+1, rect2.bottom-1, rect2.right-2, rect2.bottom-1 );

  01eb3	8b 45 bc	 mov	 eax, DWORD PTR _rect2$187443[ebp+12]
  01eb6	83 e8 01	 sub	 eax, 1
  01eb9	50		 push	 eax
  01eba	8b 4d b8	 mov	 ecx, DWORD PTR _rect2$187443[ebp+8]
  01ebd	83 e9 02	 sub	 ecx, 2
  01ec0	51		 push	 ecx
  01ec1	8b 55 bc	 mov	 edx, DWORD PTR _rect2$187443[ebp+12]
  01ec4	83 ea 01	 sub	 edx, 1
  01ec7	52		 push	 edx
  01ec8	8b 45 b0	 mov	 eax, DWORD PTR _rect2$187443[ebp]
  01ecb	83 c0 01	 add	 eax, 1
  01ece	50		 push	 eax
  01ecf	8d 4d a0	 lea	 ecx, DWORD PTR _pen2$187445[ebp]
  01ed2	51		 push	 ecx
  01ed3	8b 4d 08	 mov	 ecx, DWORD PTR _gdi$[ebp]
  01ed6	e8 00 00 00 00	 call	 ?DrawLine@Graphics@Gdiplus@@QAE?AW4Status@2@PBVPen@2@HHHH@Z ; Gdiplus::Graphics::DrawLine

; 446  : 			gdi.DrawLine( &pen2, rect2.left, rect2.top+1, rect2.left, rect2.bottom-2 );

  01edb	8b 55 bc	 mov	 edx, DWORD PTR _rect2$187443[ebp+12]
  01ede	83 ea 02	 sub	 edx, 2
  01ee1	52		 push	 edx
  01ee2	8b 45 b0	 mov	 eax, DWORD PTR _rect2$187443[ebp]
  01ee5	50		 push	 eax
  01ee6	8b 4d b4	 mov	 ecx, DWORD PTR _rect2$187443[ebp+4]
  01ee9	83 c1 01	 add	 ecx, 1
  01eec	51		 push	 ecx
  01eed	8b 55 b0	 mov	 edx, DWORD PTR _rect2$187443[ebp]
  01ef0	52		 push	 edx
  01ef1	8d 45 a0	 lea	 eax, DWORD PTR _pen2$187445[ebp]
  01ef4	50		 push	 eax
  01ef5	8b 4d 08	 mov	 ecx, DWORD PTR _gdi$[ebp]
  01ef8	e8 00 00 00 00	 call	 ?DrawLine@Graphics@Gdiplus@@QAE?AW4Status@2@PBVPen@2@HHHH@Z ; Gdiplus::Graphics::DrawLine

; 447  : 			gdi.DrawLine( &pen2, rect2.right-1, rect2.top+1, rect2.right-1, rect2.bottom-2 );

  01efd	8b 4d bc	 mov	 ecx, DWORD PTR _rect2$187443[ebp+12]
  01f00	83 e9 02	 sub	 ecx, 2
  01f03	51		 push	 ecx
  01f04	8b 55 b8	 mov	 edx, DWORD PTR _rect2$187443[ebp+8]
  01f07	83 ea 01	 sub	 edx, 1
  01f0a	52		 push	 edx
  01f0b	8b 45 b4	 mov	 eax, DWORD PTR _rect2$187443[ebp+4]
  01f0e	83 c0 01	 add	 eax, 1
  01f11	50		 push	 eax
  01f12	8b 4d b8	 mov	 ecx, DWORD PTR _rect2$187443[ebp+8]
  01f15	83 e9 01	 sub	 ecx, 1
  01f18	51		 push	 ecx
  01f19	8d 55 a0	 lea	 edx, DWORD PTR _pen2$187445[ebp]
  01f1c	52		 push	 edx
  01f1d	8b 4d 08	 mov	 ecx, DWORD PTR _gdi$[ebp]
  01f20	e8 00 00 00 00	 call	 ?DrawLine@Graphics@Gdiplus@@QAE?AW4Status@2@PBVPen@2@HHHH@Z ; Gdiplus::Graphics::DrawLine

; 448  : 
; 449  : 			Gdiplus::Color colpix2;

  01f25	8d 4d 94	 lea	 ecx, DWORD PTR _colpix2$187448[ebp]
  01f28	e8 00 00 00 00	 call	 ??0Color@Gdiplus@@QAE@XZ ; Gdiplus::Color::Color

; 450  : 			pen2.GetColor( &colpix2 );

  01f2d	8d 45 94	 lea	 eax, DWORD PTR _colpix2$187448[ebp]
  01f30	50		 push	 eax
  01f31	8d 4d a0	 lea	 ecx, DWORD PTR _pen2$187445[ebp]
  01f34	e8 00 00 00 00	 call	 ?GetColor@Pen@Gdiplus@@QBE?AW4Status@2@PAVColor@2@@Z ; Gdiplus::Pen::GetColor

; 451  : 			colpix2.SetValue( Gdiplus::Color::MakeARGB(colpix2.GetA()/2,colpix2.GetR(),colpix2.GetG(),colpix2.GetB() ) );

  01f39	8d 4d 94	 lea	 ecx, DWORD PTR _colpix2$187448[ebp]
  01f3c	e8 00 00 00 00	 call	 ?GetB@Color@Gdiplus@@QBEEXZ ; Gdiplus::Color::GetB
  01f41	50		 push	 eax
  01f42	8d 4d 94	 lea	 ecx, DWORD PTR _colpix2$187448[ebp]
  01f45	e8 00 00 00 00	 call	 ?GetG@Color@Gdiplus@@QBEEXZ ; Gdiplus::Color::GetG
  01f4a	50		 push	 eax
  01f4b	8d 4d 94	 lea	 ecx, DWORD PTR _colpix2$187448[ebp]
  01f4e	e8 00 00 00 00	 call	 ?GetR@Color@Gdiplus@@QBEEXZ ; Gdiplus::Color::GetR
  01f53	50		 push	 eax
  01f54	8d 4d 94	 lea	 ecx, DWORD PTR _colpix2$187448[ebp]
  01f57	e8 00 00 00 00	 call	 ?GetA@Color@Gdiplus@@QBEEXZ ; Gdiplus::Color::GetA
  01f5c	0f b6 c0	 movzx	 eax, al
  01f5f	99		 cdq
  01f60	2b c2		 sub	 eax, edx
  01f62	d1 f8		 sar	 eax, 1
  01f64	50		 push	 eax
  01f65	e8 00 00 00 00	 call	 ?MakeARGB@Color@Gdiplus@@SAKEEEE@Z ; Gdiplus::Color::MakeARGB
  01f6a	83 c4 10	 add	 esp, 16			; 00000010H
  01f6d	50		 push	 eax
  01f6e	8d 4d 94	 lea	 ecx, DWORD PTR _colpix2$187448[ebp]
  01f71	e8 00 00 00 00	 call	 ?SetValue@Color@Gdiplus@@QAEXK@Z ; Gdiplus::Color::SetValue

; 452  : 			Gdiplus::Pen penPix2( colpix2 );

  01f76	68 00 00 80 3f	 push	 1065353216		; 3f800000H
  01f7b	8d 4d 94	 lea	 ecx, DWORD PTR _colpix2$187448[ebp]
  01f7e	51		 push	 ecx
  01f7f	8d 4d 84	 lea	 ecx, DWORD PTR _penPix2$187449[ebp]
  01f82	e8 00 00 00 00	 call	 ??0Pen@Gdiplus@@QAE@ABVColor@1@M@Z ; Gdiplus::Pen::Pen
  01f87	c6 45 fc 03	 mov	 BYTE PTR __$EHRec$[ebp+8], 3

; 453  : 			gdi.DrawLine( &penPix2, rect2.left, rect2.top, rect2.left+1, rect2.top );

  01f8b	8b 55 b4	 mov	 edx, DWORD PTR _rect2$187443[ebp+4]
  01f8e	52		 push	 edx
  01f8f	8b 45 b0	 mov	 eax, DWORD PTR _rect2$187443[ebp]
  01f92	83 c0 01	 add	 eax, 1
  01f95	50		 push	 eax
  01f96	8b 4d b4	 mov	 ecx, DWORD PTR _rect2$187443[ebp+4]
  01f99	51		 push	 ecx
  01f9a	8b 55 b0	 mov	 edx, DWORD PTR _rect2$187443[ebp]
  01f9d	52		 push	 edx
  01f9e	8d 45 84	 lea	 eax, DWORD PTR _penPix2$187449[ebp]
  01fa1	50		 push	 eax
  01fa2	8b 4d 08	 mov	 ecx, DWORD PTR _gdi$[ebp]
  01fa5	e8 00 00 00 00	 call	 ?DrawLine@Graphics@Gdiplus@@QAE?AW4Status@2@PBVPen@2@HHHH@Z ; Gdiplus::Graphics::DrawLine

; 454  : 			gdi.DrawLine( &penPix2, rect2.right-1, rect2.top, rect2.right-1, rect2.top+1 );

  01faa	8b 4d b4	 mov	 ecx, DWORD PTR _rect2$187443[ebp+4]
  01fad	83 c1 01	 add	 ecx, 1
  01fb0	51		 push	 ecx
  01fb1	8b 55 b8	 mov	 edx, DWORD PTR _rect2$187443[ebp+8]
  01fb4	83 ea 01	 sub	 edx, 1
  01fb7	52		 push	 edx
  01fb8	8b 45 b4	 mov	 eax, DWORD PTR _rect2$187443[ebp+4]
  01fbb	50		 push	 eax
  01fbc	8b 4d b8	 mov	 ecx, DWORD PTR _rect2$187443[ebp+8]
  01fbf	83 e9 01	 sub	 ecx, 1
  01fc2	51		 push	 ecx
  01fc3	8d 55 84	 lea	 edx, DWORD PTR _penPix2$187449[ebp]
  01fc6	52		 push	 edx
  01fc7	8b 4d 08	 mov	 ecx, DWORD PTR _gdi$[ebp]
  01fca	e8 00 00 00 00	 call	 ?DrawLine@Graphics@Gdiplus@@QAE?AW4Status@2@PBVPen@2@HHHH@Z ; Gdiplus::Graphics::DrawLine

; 455  : 			gdi.DrawLine( &penPix2, rect2.right-1, rect2.bottom-1, rect2.right-2, rect2.bottom-1 );

  01fcf	8b 45 bc	 mov	 eax, DWORD PTR _rect2$187443[ebp+12]
  01fd2	83 e8 01	 sub	 eax, 1
  01fd5	50		 push	 eax
  01fd6	8b 4d b8	 mov	 ecx, DWORD PTR _rect2$187443[ebp+8]
  01fd9	83 e9 02	 sub	 ecx, 2
  01fdc	51		 push	 ecx
  01fdd	8b 55 bc	 mov	 edx, DWORD PTR _rect2$187443[ebp+12]
  01fe0	83 ea 01	 sub	 edx, 1
  01fe3	52		 push	 edx
  01fe4	8b 45 b8	 mov	 eax, DWORD PTR _rect2$187443[ebp+8]
  01fe7	83 e8 01	 sub	 eax, 1
  01fea	50		 push	 eax
  01feb	8d 4d 84	 lea	 ecx, DWORD PTR _penPix2$187449[ebp]
  01fee	51		 push	 ecx
  01fef	8b 4d 08	 mov	 ecx, DWORD PTR _gdi$[ebp]
  01ff2	e8 00 00 00 00	 call	 ?DrawLine@Graphics@Gdiplus@@QAE?AW4Status@2@PBVPen@2@HHHH@Z ; Gdiplus::Graphics::DrawLine

; 456  : 			gdi.DrawLine( &penPix2, rect2.left,  rect2.bottom-1, rect2.left+1,  rect2.bottom-1 );

  01ff7	8b 55 bc	 mov	 edx, DWORD PTR _rect2$187443[ebp+12]
  01ffa	83 ea 01	 sub	 edx, 1
  01ffd	52		 push	 edx
  01ffe	8b 45 b0	 mov	 eax, DWORD PTR _rect2$187443[ebp]
  02001	83 c0 01	 add	 eax, 1
  02004	50		 push	 eax
  02005	8b 4d bc	 mov	 ecx, DWORD PTR _rect2$187443[ebp+12]
  02008	83 e9 01	 sub	 ecx, 1
  0200b	51		 push	 ecx
  0200c	8b 55 b0	 mov	 edx, DWORD PTR _rect2$187443[ebp]
  0200f	52		 push	 edx
  02010	8d 45 84	 lea	 eax, DWORD PTR _penPix2$187449[ebp]
  02013	50		 push	 eax
  02014	8b 4d 08	 mov	 ecx, DWORD PTR _gdi$[ebp]
  02017	e8 00 00 00 00	 call	 ?DrawLine@Graphics@Gdiplus@@QAE?AW4Status@2@PBVPen@2@HHHH@Z ; Gdiplus::Graphics::DrawLine

; 457  : 		}

  0201c	c6 45 fc 02	 mov	 BYTE PTR __$EHRec$[ebp+8], 2
  02020	8d 4d 84	 lea	 ecx, DWORD PTR _penPix2$187449[ebp]
  02023	e8 00 00 00 00	 call	 ??1Pen@Gdiplus@@QAE@XZ	; Gdiplus::Pen::~Pen
  02028	c6 45 fc 01	 mov	 BYTE PTR __$EHRec$[ebp+8], 1
  0202c	8d 4d a0	 lea	 ecx, DWORD PTR _pen2$187445[ebp]
  0202f	e8 00 00 00 00	 call	 ??1Pen@Gdiplus@@QAE@XZ	; Gdiplus::Pen::~Pen
$L187444:

; 458  : 
; 459  : 		if( m_bMouseDown )

  02034	8b 4d f0	 mov	 ecx, DWORD PTR _this$[ebp]
  02037	83 b9 88 00 00
	00 00		 cmp	 DWORD PTR [ecx+136], 0
  0203e	0f 84 ef 00 00
	00		 je	 $L187450

; 460  : 		{
; 461  : 			Gdiplus::RectF rc( rect2.left, rect2.top, rect2.Width(), rect2.Height()/3 );

  02044	8d 4d b0	 lea	 ecx, DWORD PTR _rect2$187443[ebp]
  02047	e8 00 00 00 00	 call	 ?Height@CRect@@QBEHXZ	; CRect::Height
  0204c	99		 cdq
  0204d	b9 03 00 00 00	 mov	 ecx, 3
  02052	f7 f9		 idiv	 ecx
  02054	89 85 0c fd ff
	ff		 mov	 DWORD PTR tv1260[ebp], eax
  0205a	db 85 0c fd ff
	ff		 fild	 DWORD PTR tv1260[ebp]
  02060	51		 push	 ecx
  02061	d9 1c 24	 fstp	 DWORD PTR [esp]
  02064	8d 4d b0	 lea	 ecx, DWORD PTR _rect2$187443[ebp]
  02067	e8 00 00 00 00	 call	 ?Width@CRect@@QBEHXZ	; CRect::Width
  0206c	89 85 08 fd ff
	ff		 mov	 DWORD PTR tv1262[ebp], eax
  02072	db 85 08 fd ff
	ff		 fild	 DWORD PTR tv1262[ebp]
  02078	51		 push	 ecx
  02079	d9 1c 24	 fstp	 DWORD PTR [esp]
  0207c	db 45 b4	 fild	 DWORD PTR _rect2$187443[ebp+4]
  0207f	51		 push	 ecx
  02080	d9 1c 24	 fstp	 DWORD PTR [esp]
  02083	db 45 b0	 fild	 DWORD PTR _rect2$187443[ebp]
  02086	51		 push	 ecx
  02087	d9 1c 24	 fstp	 DWORD PTR [esp]
  0208a	8d 8d 6c ff ff
	ff		 lea	 ecx, DWORD PTR _rc$187451[ebp]
  02090	e8 00 00 00 00	 call	 ??0RectF@Gdiplus@@QAE@MMMM@Z ; Gdiplus::RectF::RectF

; 462  : 			Gdiplus::Color colBrush1,colBrush2;

  02095	8d 8d 60 ff ff
	ff		 lea	 ecx, DWORD PTR _colBrush1$187452[ebp]
  0209b	e8 00 00 00 00	 call	 ??0Color@Gdiplus@@QAE@XZ ; Gdiplus::Color::Color
  020a0	8d 8d 54 ff ff
	ff		 lea	 ecx, DWORD PTR _colBrush2$187453[ebp]
  020a6	e8 00 00 00 00	 call	 ??0Color@Gdiplus@@QAE@XZ ; Gdiplus::Color::Color

; 463  : 			colBrush1.SetValue( Gdiplus::Color::MakeARGB(15,1,1,1)  );

  020ab	6a 01		 push	 1
  020ad	6a 01		 push	 1
  020af	6a 01		 push	 1
  020b1	6a 0f		 push	 15			; 0000000fH
  020b3	e8 00 00 00 00	 call	 ?MakeARGB@Color@Gdiplus@@SAKEEEE@Z ; Gdiplus::Color::MakeARGB
  020b8	83 c4 10	 add	 esp, 16			; 00000010H
  020bb	50		 push	 eax
  020bc	8d 8d 60 ff ff
	ff		 lea	 ecx, DWORD PTR _colBrush1$187452[ebp]
  020c2	e8 00 00 00 00	 call	 ?SetValue@Color@Gdiplus@@QAEXK@Z ; Gdiplus::Color::SetValue

; 464  : 			colBrush2.SetValue( Gdiplus::Color::MakeARGB(0,1,1,1)  );

  020c7	6a 01		 push	 1
  020c9	6a 01		 push	 1
  020cb	6a 01		 push	 1
  020cd	6a 00		 push	 0
  020cf	e8 00 00 00 00	 call	 ?MakeARGB@Color@Gdiplus@@SAKEEEE@Z ; Gdiplus::Color::MakeARGB
  020d4	83 c4 10	 add	 esp, 16			; 00000010H
  020d7	50		 push	 eax
  020d8	8d 8d 54 ff ff
	ff		 lea	 ecx, DWORD PTR _colBrush2$187453[ebp]
  020de	e8 00 00 00 00	 call	 ?SetValue@Color@Gdiplus@@QAEXK@Z ; Gdiplus::Color::SetValue

; 465  : 
; 466  : 			LinearGradientBrush brush( rc, colBrush1, colBrush2,LinearGradientModeVertical );

  020e3	6a 01		 push	 1
  020e5	8d 95 54 ff ff
	ff		 lea	 edx, DWORD PTR _colBrush2$187453[ebp]
  020eb	52		 push	 edx
  020ec	8d 85 60 ff ff
	ff		 lea	 eax, DWORD PTR _colBrush1$187452[ebp]
  020f2	50		 push	 eax
  020f3	8d 8d 6c ff ff
	ff		 lea	 ecx, DWORD PTR _rc$187451[ebp]
  020f9	51		 push	 ecx
  020fa	8d 8d 40 ff ff
	ff		 lea	 ecx, DWORD PTR _brush$187454[ebp]
  02100	e8 00 00 00 00	 call	 ??0LinearGradientBrush@Gdiplus@@QAE@ABVRectF@1@ABVColor@1@1W4LinearGradientMode@1@@Z ; Gdiplus::LinearGradientBrush::LinearGradientBrush
  02105	c6 45 fc 04	 mov	 BYTE PTR __$EHRec$[ebp+8], 4

; 467  : 			gdi.FillRectangle( &brush, rc );

  02109	8d 95 6c ff ff
	ff		 lea	 edx, DWORD PTR _rc$187451[ebp]
  0210f	52		 push	 edx
  02110	8d 85 40 ff ff
	ff		 lea	 eax, DWORD PTR _brush$187454[ebp]
  02116	50		 push	 eax
  02117	8b 4d 08	 mov	 ecx, DWORD PTR _gdi$[ebp]
  0211a	e8 00 00 00 00	 call	 ?FillRectangle@Graphics@Gdiplus@@QAE?AW4Status@2@PBVBrush@2@ABVRectF@2@@Z ; Gdiplus::Graphics::FillRectangle

; 468  : 		}

  0211f	c6 45 fc 01	 mov	 BYTE PTR __$EHRec$[ebp+8], 1
  02123	8d 8d 40 ff ff
	ff		 lea	 ecx, DWORD PTR _brush$187454[ebp]
  02129	e8 00 00 00 00	 call	 ??1LinearGradientBrush@Gdiplus@@UAE@XZ

; 469  : 		else

  0212e	e9 b4 00 00 00	 jmp	 $L187455
$L187450:

; 470  : 		{
; 471  : 			Gdiplus::RectF rc( rect2.left, rect2.top, rect2.Width(), rect2.Height()/2 );

  02133	8d 4d b0	 lea	 ecx, DWORD PTR _rect2$187443[ebp]
  02136	e8 00 00 00 00	 call	 ?Height@CRect@@QBEHXZ	; CRect::Height
  0213b	99		 cdq
  0213c	2b c2		 sub	 eax, edx
  0213e	d1 f8		 sar	 eax, 1
  02140	89 85 04 fd ff
	ff		 mov	 DWORD PTR tv1280[ebp], eax
  02146	db 85 04 fd ff
	ff		 fild	 DWORD PTR tv1280[ebp]
  0214c	51		 push	 ecx
  0214d	d9 1c 24	 fstp	 DWORD PTR [esp]
  02150	8d 4d b0	 lea	 ecx, DWORD PTR _rect2$187443[ebp]
  02153	e8 00 00 00 00	 call	 ?Width@CRect@@QBEHXZ	; CRect::Width
  02158	89 85 00 fd ff
	ff		 mov	 DWORD PTR tv1282[ebp], eax
  0215e	db 85 00 fd ff
	ff		 fild	 DWORD PTR tv1282[ebp]
  02164	51		 push	 ecx
  02165	d9 1c 24	 fstp	 DWORD PTR [esp]
  02168	db 45 b4	 fild	 DWORD PTR _rect2$187443[ebp+4]
  0216b	51		 push	 ecx
  0216c	d9 1c 24	 fstp	 DWORD PTR [esp]
  0216f	db 45 b0	 fild	 DWORD PTR _rect2$187443[ebp]
  02172	51		 push	 ecx
  02173	d9 1c 24	 fstp	 DWORD PTR [esp]
  02176	8d 8d 28 ff ff
	ff		 lea	 ecx, DWORD PTR _rc$187456[ebp]
  0217c	e8 00 00 00 00	 call	 ??0RectF@Gdiplus@@QAE@MMMM@Z ; Gdiplus::RectF::RectF

; 472  : 			rc.Inflate(-1,-1);

  02181	68 00 00 80 bf	 push	 -1082130432		; bf800000H
  02186	68 00 00 80 bf	 push	 -1082130432		; bf800000H
  0218b	8d 8d 28 ff ff
	ff		 lea	 ecx, DWORD PTR _rc$187456[ebp]
  02191	e8 00 00 00 00	 call	 ?Inflate@RectF@Gdiplus@@QAEXMM@Z ; Gdiplus::RectF::Inflate

; 473  : 			LinearGradientBrush brush( rc, m_colBrush1, m_colBrush2,LinearGradientModeVertical );

  02196	6a 01		 push	 1
  02198	8b 4d f0	 mov	 ecx, DWORD PTR _this$[ebp]
  0219b	81 c1 7c 01 00
	00		 add	 ecx, 380		; 0000017cH
  021a1	51		 push	 ecx
  021a2	8b 55 f0	 mov	 edx, DWORD PTR _this$[ebp]
  021a5	81 c2 78 01 00
	00		 add	 edx, 376		; 00000178H
  021ab	52		 push	 edx
  021ac	8d 85 28 ff ff
	ff		 lea	 eax, DWORD PTR _rc$187456[ebp]
  021b2	50		 push	 eax
  021b3	8d 8d 14 ff ff
	ff		 lea	 ecx, DWORD PTR _brush$187457[ebp]
  021b9	e8 00 00 00 00	 call	 ??0LinearGradientBrush@Gdiplus@@QAE@ABVRectF@1@ABVColor@1@1W4LinearGradientMode@1@@Z ; Gdiplus::LinearGradientBrush::LinearGradientBrush
  021be	c6 45 fc 05	 mov	 BYTE PTR __$EHRec$[ebp+8], 5

; 474  : 			gdi.FillRectangle( &brush, rc );

  021c2	8d 8d 28 ff ff
	ff		 lea	 ecx, DWORD PTR _rc$187456[ebp]
  021c8	51		 push	 ecx
  021c9	8d 95 14 ff ff
	ff		 lea	 edx, DWORD PTR _brush$187457[ebp]
  021cf	52		 push	 edx
  021d0	8b 4d 08	 mov	 ecx, DWORD PTR _gdi$[ebp]
  021d3	e8 00 00 00 00	 call	 ?FillRectangle@Graphics@Gdiplus@@QAE?AW4Status@2@PBVBrush@2@ABVRectF@2@@Z ; Gdiplus::Graphics::FillRectangle

; 475  : 		}

  021d8	c6 45 fc 01	 mov	 BYTE PTR __$EHRec$[ebp+8], 1
  021dc	8d 8d 14 ff ff
	ff		 lea	 ecx, DWORD PTR _brush$187457[ebp]
  021e2	e8 00 00 00 00	 call	 ??1LinearGradientBrush@Gdiplus@@UAE@XZ
$L187455:

; 476  : 
; 477  : 		return;

  021e7	c6 45 fc 00	 mov	 BYTE PTR __$EHRec$[ebp+8], 0
  021eb	8d 4d c8	 lea	 ecx, DWORD PTR _penPix1$187442[ebp]
  021ee	e8 00 00 00 00	 call	 ??1Pen@Gdiplus@@QAE@XZ	; Gdiplus::Pen::~Pen
  021f3	c7 45 fc ff ff
	ff ff		 mov	 DWORD PTR __$EHRec$[ebp+8], -1
  021fa	8d 4d e4	 lea	 ecx, DWORD PTR _pen1$187440[ebp]
  021fd	e8 00 00 00 00	 call	 ??1Pen@Gdiplus@@QAE@XZ	; Gdiplus::Pen::~Pen
  02202	e9 cc 0c 00 00	 jmp	 $L187438
$L187439:

; 478  : 	}
; 479  : 	else if( m_enmuDrawType == NO_FRAME_SELECT )

  02207	8b 45 f0	 mov	 eax, DWORD PTR _this$[ebp]
  0220a	83 78 54 10	 cmp	 DWORD PTR [eax+84], 16	; 00000010H
  0220e	0f 85 2b 07 00
	00		 jne	 $L187458

; 480  : 	{
; 481  : 		Gdiplus::Pen pen1( m_colFrame1 );

  02214	68 00 00 80 3f	 push	 1065353216		; 3f800000H
  02219	8b 4d f0	 mov	 ecx, DWORD PTR _this$[ebp]
  0221c	81 c1 70 01 00
	00		 add	 ecx, 368		; 00000170H
  02222	51		 push	 ecx
  02223	8d 8d 04 ff ff
	ff		 lea	 ecx, DWORD PTR _pen1$187460[ebp]
  02229	e8 00 00 00 00	 call	 ??0Pen@Gdiplus@@QAE@ABVColor@1@M@Z ; Gdiplus::Pen::Pen
  0222e	c7 45 fc 06 00
	00 00		 mov	 DWORD PTR __$EHRec$[ebp+8], 6

; 482  : 		gdi.DrawLine( &pen1, rect.left+1, rect.top, rect.right-2, rect.top );

  02235	8b 55 0c	 mov	 edx, DWORD PTR _rect$[ebp]
  02238	8b 42 04	 mov	 eax, DWORD PTR [edx+4]
  0223b	50		 push	 eax
  0223c	8b 4d 0c	 mov	 ecx, DWORD PTR _rect$[ebp]
  0223f	8b 51 08	 mov	 edx, DWORD PTR [ecx+8]
  02242	83 ea 02	 sub	 edx, 2
  02245	52		 push	 edx
  02246	8b 45 0c	 mov	 eax, DWORD PTR _rect$[ebp]
  02249	8b 48 04	 mov	 ecx, DWORD PTR [eax+4]
  0224c	51		 push	 ecx
  0224d	8b 55 0c	 mov	 edx, DWORD PTR _rect$[ebp]
  02250	8b 02		 mov	 eax, DWORD PTR [edx]
  02252	83 c0 01	 add	 eax, 1
  02255	50		 push	 eax
  02256	8d 8d 04 ff ff
	ff		 lea	 ecx, DWORD PTR _pen1$187460[ebp]
  0225c	51		 push	 ecx
  0225d	8b 4d 08	 mov	 ecx, DWORD PTR _gdi$[ebp]
  02260	e8 00 00 00 00	 call	 ?DrawLine@Graphics@Gdiplus@@QAE?AW4Status@2@PBVPen@2@HHHH@Z ; Gdiplus::Graphics::DrawLine

; 483  : 		gdi.DrawLine( &pen1, rect.left+1, rect.bottom-1, rect.right-2, rect.bottom-1 );

  02265	8b 55 0c	 mov	 edx, DWORD PTR _rect$[ebp]
  02268	8b 42 0c	 mov	 eax, DWORD PTR [edx+12]
  0226b	83 e8 01	 sub	 eax, 1
  0226e	50		 push	 eax
  0226f	8b 4d 0c	 mov	 ecx, DWORD PTR _rect$[ebp]
  02272	8b 51 08	 mov	 edx, DWORD PTR [ecx+8]
  02275	83 ea 02	 sub	 edx, 2
  02278	52		 push	 edx
  02279	8b 45 0c	 mov	 eax, DWORD PTR _rect$[ebp]
  0227c	8b 48 0c	 mov	 ecx, DWORD PTR [eax+12]
  0227f	83 e9 01	 sub	 ecx, 1
  02282	51		 push	 ecx
  02283	8b 55 0c	 mov	 edx, DWORD PTR _rect$[ebp]
  02286	8b 02		 mov	 eax, DWORD PTR [edx]
  02288	83 c0 01	 add	 eax, 1
  0228b	50		 push	 eax
  0228c	8d 8d 04 ff ff
	ff		 lea	 ecx, DWORD PTR _pen1$187460[ebp]
  02292	51		 push	 ecx
  02293	8b 4d 08	 mov	 ecx, DWORD PTR _gdi$[ebp]
  02296	e8 00 00 00 00	 call	 ?DrawLine@Graphics@Gdiplus@@QAE?AW4Status@2@PBVPen@2@HHHH@Z ; Gdiplus::Graphics::DrawLine

; 484  : 		gdi.DrawLine( &pen1, rect.left, rect.top+1, rect.left, rect.bottom-2 );

  0229b	8b 55 0c	 mov	 edx, DWORD PTR _rect$[ebp]
  0229e	8b 42 0c	 mov	 eax, DWORD PTR [edx+12]
  022a1	83 e8 02	 sub	 eax, 2
  022a4	50		 push	 eax
  022a5	8b 4d 0c	 mov	 ecx, DWORD PTR _rect$[ebp]
  022a8	8b 11		 mov	 edx, DWORD PTR [ecx]
  022aa	52		 push	 edx
  022ab	8b 45 0c	 mov	 eax, DWORD PTR _rect$[ebp]
  022ae	8b 48 04	 mov	 ecx, DWORD PTR [eax+4]
  022b1	83 c1 01	 add	 ecx, 1
  022b4	51		 push	 ecx
  022b5	8b 55 0c	 mov	 edx, DWORD PTR _rect$[ebp]
  022b8	8b 02		 mov	 eax, DWORD PTR [edx]
  022ba	50		 push	 eax
  022bb	8d 8d 04 ff ff
	ff		 lea	 ecx, DWORD PTR _pen1$187460[ebp]
  022c1	51		 push	 ecx
  022c2	8b 4d 08	 mov	 ecx, DWORD PTR _gdi$[ebp]
  022c5	e8 00 00 00 00	 call	 ?DrawLine@Graphics@Gdiplus@@QAE?AW4Status@2@PBVPen@2@HHHH@Z ; Gdiplus::Graphics::DrawLine

; 485  : 		gdi.DrawLine( &pen1, rect.right-1, rect.top+1, rect.right-1, rect.bottom-2 );

  022ca	8b 55 0c	 mov	 edx, DWORD PTR _rect$[ebp]
  022cd	8b 42 0c	 mov	 eax, DWORD PTR [edx+12]
  022d0	83 e8 02	 sub	 eax, 2
  022d3	50		 push	 eax
  022d4	8b 4d 0c	 mov	 ecx, DWORD PTR _rect$[ebp]
  022d7	8b 51 08	 mov	 edx, DWORD PTR [ecx+8]
  022da	83 ea 01	 sub	 edx, 1
  022dd	52		 push	 edx
  022de	8b 45 0c	 mov	 eax, DWORD PTR _rect$[ebp]
  022e1	8b 48 04	 mov	 ecx, DWORD PTR [eax+4]
  022e4	83 c1 01	 add	 ecx, 1
  022e7	51		 push	 ecx
  022e8	8b 55 0c	 mov	 edx, DWORD PTR _rect$[ebp]
  022eb	8b 42 08	 mov	 eax, DWORD PTR [edx+8]
  022ee	83 e8 01	 sub	 eax, 1
  022f1	50		 push	 eax
  022f2	8d 8d 04 ff ff
	ff		 lea	 ecx, DWORD PTR _pen1$187460[ebp]
  022f8	51		 push	 ecx
  022f9	8b 4d 08	 mov	 ecx, DWORD PTR _gdi$[ebp]
  022fc	e8 00 00 00 00	 call	 ?DrawLine@Graphics@Gdiplus@@QAE?AW4Status@2@PBVPen@2@HHHH@Z ; Gdiplus::Graphics::DrawLine

; 486  : 
; 487  : 		Gdiplus::Color colpix;

  02301	8d 8d f8 fe ff
	ff		 lea	 ecx, DWORD PTR _colpix$187461[ebp]
  02307	e8 00 00 00 00	 call	 ??0Color@Gdiplus@@QAE@XZ ; Gdiplus::Color::Color

; 488  : 		pen1.GetColor( &colpix );

  0230c	8d 95 f8 fe ff
	ff		 lea	 edx, DWORD PTR _colpix$187461[ebp]
  02312	52		 push	 edx
  02313	8d 8d 04 ff ff
	ff		 lea	 ecx, DWORD PTR _pen1$187460[ebp]
  02319	e8 00 00 00 00	 call	 ?GetColor@Pen@Gdiplus@@QBE?AW4Status@2@PAVColor@2@@Z ; Gdiplus::Pen::GetColor

; 489  : 		colpix.SetValue( Gdiplus::Color::MakeARGB(colpix.GetA()/2,colpix.GetR(),colpix.GetG(),colpix.GetB() ) );

  0231e	8d 8d f8 fe ff
	ff		 lea	 ecx, DWORD PTR _colpix$187461[ebp]
  02324	e8 00 00 00 00	 call	 ?GetB@Color@Gdiplus@@QBEEXZ ; Gdiplus::Color::GetB
  02329	50		 push	 eax
  0232a	8d 8d f8 fe ff
	ff		 lea	 ecx, DWORD PTR _colpix$187461[ebp]
  02330	e8 00 00 00 00	 call	 ?GetG@Color@Gdiplus@@QBEEXZ ; Gdiplus::Color::GetG
  02335	50		 push	 eax
  02336	8d 8d f8 fe ff
	ff		 lea	 ecx, DWORD PTR _colpix$187461[ebp]
  0233c	e8 00 00 00 00	 call	 ?GetR@Color@Gdiplus@@QBEEXZ ; Gdiplus::Color::GetR
  02341	50		 push	 eax
  02342	8d 8d f8 fe ff
	ff		 lea	 ecx, DWORD PTR _colpix$187461[ebp]
  02348	e8 00 00 00 00	 call	 ?GetA@Color@Gdiplus@@QBEEXZ ; Gdiplus::Color::GetA
  0234d	0f b6 c0	 movzx	 eax, al
  02350	99		 cdq
  02351	2b c2		 sub	 eax, edx
  02353	d1 f8		 sar	 eax, 1
  02355	50		 push	 eax
  02356	e8 00 00 00 00	 call	 ?MakeARGB@Color@Gdiplus@@SAKEEEE@Z ; Gdiplus::Color::MakeARGB
  0235b	83 c4 10	 add	 esp, 16			; 00000010H
  0235e	50		 push	 eax
  0235f	8d 8d f8 fe ff
	ff		 lea	 ecx, DWORD PTR _colpix$187461[ebp]
  02365	e8 00 00 00 00	 call	 ?SetValue@Color@Gdiplus@@QAEXK@Z ; Gdiplus::Color::SetValue

; 490  : 		Gdiplus::Pen penPix1( colpix );

  0236a	68 00 00 80 3f	 push	 1065353216		; 3f800000H
  0236f	8d 85 f8 fe ff
	ff		 lea	 eax, DWORD PTR _colpix$187461[ebp]
  02375	50		 push	 eax
  02376	8d 8d e8 fe ff
	ff		 lea	 ecx, DWORD PTR _penPix1$187462[ebp]
  0237c	e8 00 00 00 00	 call	 ??0Pen@Gdiplus@@QAE@ABVColor@1@M@Z ; Gdiplus::Pen::Pen
  02381	c6 45 fc 07	 mov	 BYTE PTR __$EHRec$[ebp+8], 7

; 491  : 		gdi.DrawLine( &penPix1, rect.left, rect.top, rect.left+1, rect.top );

  02385	8b 4d 0c	 mov	 ecx, DWORD PTR _rect$[ebp]
  02388	8b 51 04	 mov	 edx, DWORD PTR [ecx+4]
  0238b	52		 push	 edx
  0238c	8b 45 0c	 mov	 eax, DWORD PTR _rect$[ebp]
  0238f	8b 08		 mov	 ecx, DWORD PTR [eax]
  02391	83 c1 01	 add	 ecx, 1
  02394	51		 push	 ecx
  02395	8b 55 0c	 mov	 edx, DWORD PTR _rect$[ebp]
  02398	8b 42 04	 mov	 eax, DWORD PTR [edx+4]
  0239b	50		 push	 eax
  0239c	8b 4d 0c	 mov	 ecx, DWORD PTR _rect$[ebp]
  0239f	8b 11		 mov	 edx, DWORD PTR [ecx]
  023a1	52		 push	 edx
  023a2	8d 85 e8 fe ff
	ff		 lea	 eax, DWORD PTR _penPix1$187462[ebp]
  023a8	50		 push	 eax
  023a9	8b 4d 08	 mov	 ecx, DWORD PTR _gdi$[ebp]
  023ac	e8 00 00 00 00	 call	 ?DrawLine@Graphics@Gdiplus@@QAE?AW4Status@2@PBVPen@2@HHHH@Z ; Gdiplus::Graphics::DrawLine

; 492  : 		gdi.DrawLine( &penPix1, rect.right-1, rect.top, rect.right-1, rect.top+1 );

  023b1	8b 4d 0c	 mov	 ecx, DWORD PTR _rect$[ebp]
  023b4	8b 51 04	 mov	 edx, DWORD PTR [ecx+4]
  023b7	83 c2 01	 add	 edx, 1
  023ba	52		 push	 edx
  023bb	8b 45 0c	 mov	 eax, DWORD PTR _rect$[ebp]
  023be	8b 48 08	 mov	 ecx, DWORD PTR [eax+8]
  023c1	83 e9 01	 sub	 ecx, 1
  023c4	51		 push	 ecx
  023c5	8b 55 0c	 mov	 edx, DWORD PTR _rect$[ebp]
  023c8	8b 42 04	 mov	 eax, DWORD PTR [edx+4]
  023cb	50		 push	 eax
  023cc	8b 4d 0c	 mov	 ecx, DWORD PTR _rect$[ebp]
  023cf	8b 51 08	 mov	 edx, DWORD PTR [ecx+8]
  023d2	83 ea 01	 sub	 edx, 1
  023d5	52		 push	 edx
  023d6	8d 85 e8 fe ff
	ff		 lea	 eax, DWORD PTR _penPix1$187462[ebp]
  023dc	50		 push	 eax
  023dd	8b 4d 08	 mov	 ecx, DWORD PTR _gdi$[ebp]
  023e0	e8 00 00 00 00	 call	 ?DrawLine@Graphics@Gdiplus@@QAE?AW4Status@2@PBVPen@2@HHHH@Z ; Gdiplus::Graphics::DrawLine

; 493  : 		gdi.DrawLine( &penPix1, rect.right-1, rect.bottom-1, rect.right-2, rect.bottom-1 );

  023e5	8b 4d 0c	 mov	 ecx, DWORD PTR _rect$[ebp]
  023e8	8b 51 0c	 mov	 edx, DWORD PTR [ecx+12]
  023eb	83 ea 01	 sub	 edx, 1
  023ee	52		 push	 edx
  023ef	8b 45 0c	 mov	 eax, DWORD PTR _rect$[ebp]
  023f2	8b 48 08	 mov	 ecx, DWORD PTR [eax+8]
  023f5	83 e9 02	 sub	 ecx, 2
  023f8	51		 push	 ecx
  023f9	8b 55 0c	 mov	 edx, DWORD PTR _rect$[ebp]
  023fc	8b 42 0c	 mov	 eax, DWORD PTR [edx+12]
  023ff	83 e8 01	 sub	 eax, 1
  02402	50		 push	 eax
  02403	8b 4d 0c	 mov	 ecx, DWORD PTR _rect$[ebp]
  02406	8b 51 08	 mov	 edx, DWORD PTR [ecx+8]
  02409	83 ea 01	 sub	 edx, 1
  0240c	52		 push	 edx
  0240d	8d 85 e8 fe ff
	ff		 lea	 eax, DWORD PTR _penPix1$187462[ebp]
  02413	50		 push	 eax
  02414	8b 4d 08	 mov	 ecx, DWORD PTR _gdi$[ebp]
  02417	e8 00 00 00 00	 call	 ?DrawLine@Graphics@Gdiplus@@QAE?AW4Status@2@PBVPen@2@HHHH@Z ; Gdiplus::Graphics::DrawLine

; 494  : 		gdi.DrawLine( &penPix1, rect.left,  rect.bottom-1, rect.left+1,  rect.bottom-1 );

  0241c	8b 4d 0c	 mov	 ecx, DWORD PTR _rect$[ebp]
  0241f	8b 51 0c	 mov	 edx, DWORD PTR [ecx+12]
  02422	83 ea 01	 sub	 edx, 1
  02425	52		 push	 edx
  02426	8b 45 0c	 mov	 eax, DWORD PTR _rect$[ebp]
  02429	8b 08		 mov	 ecx, DWORD PTR [eax]
  0242b	83 c1 01	 add	 ecx, 1
  0242e	51		 push	 ecx
  0242f	8b 55 0c	 mov	 edx, DWORD PTR _rect$[ebp]
  02432	8b 42 0c	 mov	 eax, DWORD PTR [edx+12]
  02435	83 e8 01	 sub	 eax, 1
  02438	50		 push	 eax
  02439	8b 4d 0c	 mov	 ecx, DWORD PTR _rect$[ebp]
  0243c	8b 11		 mov	 edx, DWORD PTR [ecx]
  0243e	52		 push	 edx
  0243f	8d 85 e8 fe ff
	ff		 lea	 eax, DWORD PTR _penPix1$187462[ebp]
  02445	50		 push	 eax
  02446	8b 4d 08	 mov	 ecx, DWORD PTR _gdi$[ebp]
  02449	e8 00 00 00 00	 call	 ?DrawLine@Graphics@Gdiplus@@QAE?AW4Status@2@PBVPen@2@HHHH@Z ; Gdiplus::Graphics::DrawLine

; 495  : 
; 496  : 		CRect rect2 = rect;

  0244e	8b 4d 0c	 mov	 ecx, DWORD PTR _rect$[ebp]
  02451	8b 11		 mov	 edx, DWORD PTR [ecx]
  02453	89 95 d0 fe ff
	ff		 mov	 DWORD PTR _rect2$187463[ebp], edx
  02459	8b 41 04	 mov	 eax, DWORD PTR [ecx+4]
  0245c	89 85 d4 fe ff
	ff		 mov	 DWORD PTR _rect2$187463[ebp+4], eax
  02462	8b 51 08	 mov	 edx, DWORD PTR [ecx+8]
  02465	89 95 d8 fe ff
	ff		 mov	 DWORD PTR _rect2$187463[ebp+8], edx
  0246b	8b 41 0c	 mov	 eax, DWORD PTR [ecx+12]
  0246e	89 85 dc fe ff
	ff		 mov	 DWORD PTR _rect2$187463[ebp+12], eax

; 497  : 		::InflateRect( &rect2, -1,-1 );

  02474	8b f4		 mov	 esi, esp
  02476	6a ff		 push	 -1
  02478	6a ff		 push	 -1
  0247a	8d 8d d0 fe ff
	ff		 lea	 ecx, DWORD PTR _rect2$187463[ebp]
  02480	51		 push	 ecx
  02481	ff 15 00 00 00
	00		 call	 DWORD PTR __imp__InflateRect@12
  02487	3b f4		 cmp	 esi, esp
  02489	e8 00 00 00 00	 call	 __RTC_CheckEsp

; 498  : 		if( !m_bMouseDown )

  0248e	8b 55 f0	 mov	 edx, DWORD PTR _this$[ebp]
  02491	83 ba 88 00 00
	00 00		 cmp	 DWORD PTR [edx+136], 0
  02498	0f 85 93 02 00
	00		 jne	 $L187464

; 499  : 		{
; 500  : 			Gdiplus::Pen pen2(m_colFrame2);

  0249e	68 00 00 80 3f	 push	 1065353216		; 3f800000H
  024a3	8b 45 f0	 mov	 eax, DWORD PTR _this$[ebp]
  024a6	05 74 01 00 00	 add	 eax, 372		; 00000174H
  024ab	50		 push	 eax
  024ac	8d 8d c0 fe ff
	ff		 lea	 ecx, DWORD PTR _pen2$187465[ebp]
  024b2	e8 00 00 00 00	 call	 ??0Pen@Gdiplus@@QAE@ABVColor@1@M@Z ; Gdiplus::Pen::Pen
  024b7	c6 45 fc 08	 mov	 BYTE PTR __$EHRec$[ebp+8], 8

; 501  : 			if( m_bMouseDown )

  024bb	8b 4d f0	 mov	 ecx, DWORD PTR _this$[ebp]
  024be	83 b9 88 00 00
	00 00		 cmp	 DWORD PTR [ecx+136], 0
  024c5	74 17		 je	 SHORT $L187466

; 502  : 				pen2.SetColor(m_colFrame1);

  024c7	8b 55 f0	 mov	 edx, DWORD PTR _this$[ebp]
  024ca	81 c2 70 01 00
	00		 add	 edx, 368		; 00000170H
  024d0	52		 push	 edx
  024d1	8d 8d c0 fe ff
	ff		 lea	 ecx, DWORD PTR _pen2$187465[ebp]
  024d7	e8 00 00 00 00	 call	 ?SetColor@Pen@Gdiplus@@QAE?AW4Status@2@ABVColor@2@@Z ; Gdiplus::Pen::SetColor

; 503  : 			else

  024dc	eb 14		 jmp	 SHORT $L187467
$L187466:

; 504  : 				pen2.SetColor(m_colFrame2);

  024de	8b 45 f0	 mov	 eax, DWORD PTR _this$[ebp]
  024e1	05 74 01 00 00	 add	 eax, 372		; 00000174H
  024e6	50		 push	 eax
  024e7	8d 8d c0 fe ff
	ff		 lea	 ecx, DWORD PTR _pen2$187465[ebp]
  024ed	e8 00 00 00 00	 call	 ?SetColor@Pen@Gdiplus@@QAE?AW4Status@2@ABVColor@2@@Z ; Gdiplus::Pen::SetColor
$L187467:

; 505  : 
; 506  : 			gdi.DrawLine( &pen2, rect2.left+1, rect2.top, rect2.right-2, rect2.top );

  024f2	8b 8d d4 fe ff
	ff		 mov	 ecx, DWORD PTR _rect2$187463[ebp+4]
  024f8	51		 push	 ecx
  024f9	8b 95 d8 fe ff
	ff		 mov	 edx, DWORD PTR _rect2$187463[ebp+8]
  024ff	83 ea 02	 sub	 edx, 2
  02502	52		 push	 edx
  02503	8b 85 d4 fe ff
	ff		 mov	 eax, DWORD PTR _rect2$187463[ebp+4]
  02509	50		 push	 eax
  0250a	8b 8d d0 fe ff
	ff		 mov	 ecx, DWORD PTR _rect2$187463[ebp]
  02510	83 c1 01	 add	 ecx, 1
  02513	51		 push	 ecx
  02514	8d 95 c0 fe ff
	ff		 lea	 edx, DWORD PTR _pen2$187465[ebp]
  0251a	52		 push	 edx
  0251b	8b 4d 08	 mov	 ecx, DWORD PTR _gdi$[ebp]
  0251e	e8 00 00 00 00	 call	 ?DrawLine@Graphics@Gdiplus@@QAE?AW4Status@2@PBVPen@2@HHHH@Z ; Gdiplus::Graphics::DrawLine

; 507  : 			gdi.DrawLine( &pen2, rect2.left+1, rect2.bottom-1, rect2.right-2, rect2.bottom-1 );

  02523	8b 85 dc fe ff
	ff		 mov	 eax, DWORD PTR _rect2$187463[ebp+12]
  02529	83 e8 01	 sub	 eax, 1
  0252c	50		 push	 eax
  0252d	8b 8d d8 fe ff
	ff		 mov	 ecx, DWORD PTR _rect2$187463[ebp+8]
  02533	83 e9 02	 sub	 ecx, 2
  02536	51		 push	 ecx
  02537	8b 95 dc fe ff
	ff		 mov	 edx, DWORD PTR _rect2$187463[ebp+12]
  0253d	83 ea 01	 sub	 edx, 1
  02540	52		 push	 edx
  02541	8b 85 d0 fe ff
	ff		 mov	 eax, DWORD PTR _rect2$187463[ebp]
  02547	83 c0 01	 add	 eax, 1
  0254a	50		 push	 eax
  0254b	8d 8d c0 fe ff
	ff		 lea	 ecx, DWORD PTR _pen2$187465[ebp]
  02551	51		 push	 ecx
  02552	8b 4d 08	 mov	 ecx, DWORD PTR _gdi$[ebp]
  02555	e8 00 00 00 00	 call	 ?DrawLine@Graphics@Gdiplus@@QAE?AW4Status@2@PBVPen@2@HHHH@Z ; Gdiplus::Graphics::DrawLine

; 508  : 			gdi.DrawLine( &pen2, rect2.left, rect2.top+1, rect2.left, rect2.bottom-2 );

  0255a	8b 95 dc fe ff
	ff		 mov	 edx, DWORD PTR _rect2$187463[ebp+12]
  02560	83 ea 02	 sub	 edx, 2
  02563	52		 push	 edx
  02564	8b 85 d0 fe ff
	ff		 mov	 eax, DWORD PTR _rect2$187463[ebp]
  0256a	50		 push	 eax
  0256b	8b 8d d4 fe ff
	ff		 mov	 ecx, DWORD PTR _rect2$187463[ebp+4]
  02571	83 c1 01	 add	 ecx, 1
  02574	51		 push	 ecx
  02575	8b 95 d0 fe ff
	ff		 mov	 edx, DWORD PTR _rect2$187463[ebp]
  0257b	52		 push	 edx
  0257c	8d 85 c0 fe ff
	ff		 lea	 eax, DWORD PTR _pen2$187465[ebp]
  02582	50		 push	 eax
  02583	8b 4d 08	 mov	 ecx, DWORD PTR _gdi$[ebp]
  02586	e8 00 00 00 00	 call	 ?DrawLine@Graphics@Gdiplus@@QAE?AW4Status@2@PBVPen@2@HHHH@Z ; Gdiplus::Graphics::DrawLine

; 509  : 			gdi.DrawLine( &pen2, rect2.right-1, rect2.top+1, rect2.right-1, rect2.bottom-2 );

  0258b	8b 8d dc fe ff
	ff		 mov	 ecx, DWORD PTR _rect2$187463[ebp+12]
  02591	83 e9 02	 sub	 ecx, 2
  02594	51		 push	 ecx
  02595	8b 95 d8 fe ff
	ff		 mov	 edx, DWORD PTR _rect2$187463[ebp+8]
  0259b	83 ea 01	 sub	 edx, 1
  0259e	52		 push	 edx
  0259f	8b 85 d4 fe ff
	ff		 mov	 eax, DWORD PTR _rect2$187463[ebp+4]
  025a5	83 c0 01	 add	 eax, 1
  025a8	50		 push	 eax
  025a9	8b 8d d8 fe ff
	ff		 mov	 ecx, DWORD PTR _rect2$187463[ebp+8]
  025af	83 e9 01	 sub	 ecx, 1
  025b2	51		 push	 ecx
  025b3	8d 95 c0 fe ff
	ff		 lea	 edx, DWORD PTR _pen2$187465[ebp]
  025b9	52		 push	 edx
  025ba	8b 4d 08	 mov	 ecx, DWORD PTR _gdi$[ebp]
  025bd	e8 00 00 00 00	 call	 ?DrawLine@Graphics@Gdiplus@@QAE?AW4Status@2@PBVPen@2@HHHH@Z ; Gdiplus::Graphics::DrawLine

; 510  : 
; 511  : 			Gdiplus::Color colpix2;

  025c2	8d 8d b4 fe ff
	ff		 lea	 ecx, DWORD PTR _colpix2$187468[ebp]
  025c8	e8 00 00 00 00	 call	 ??0Color@Gdiplus@@QAE@XZ ; Gdiplus::Color::Color

; 512  : 			pen2.GetColor( &colpix2 );

  025cd	8d 85 b4 fe ff
	ff		 lea	 eax, DWORD PTR _colpix2$187468[ebp]
  025d3	50		 push	 eax
  025d4	8d 8d c0 fe ff
	ff		 lea	 ecx, DWORD PTR _pen2$187465[ebp]
  025da	e8 00 00 00 00	 call	 ?GetColor@Pen@Gdiplus@@QBE?AW4Status@2@PAVColor@2@@Z ; Gdiplus::Pen::GetColor

; 513  : 			colpix2.SetValue( Gdiplus::Color::MakeARGB(colpix2.GetA()/2,colpix2.GetR(),colpix2.GetG(),colpix2.GetB() ) );

  025df	8d 8d b4 fe ff
	ff		 lea	 ecx, DWORD PTR _colpix2$187468[ebp]
  025e5	e8 00 00 00 00	 call	 ?GetB@Color@Gdiplus@@QBEEXZ ; Gdiplus::Color::GetB
  025ea	50		 push	 eax
  025eb	8d 8d b4 fe ff
	ff		 lea	 ecx, DWORD PTR _colpix2$187468[ebp]
  025f1	e8 00 00 00 00	 call	 ?GetG@Color@Gdiplus@@QBEEXZ ; Gdiplus::Color::GetG
  025f6	50		 push	 eax
  025f7	8d 8d b4 fe ff
	ff		 lea	 ecx, DWORD PTR _colpix2$187468[ebp]
  025fd	e8 00 00 00 00	 call	 ?GetR@Color@Gdiplus@@QBEEXZ ; Gdiplus::Color::GetR
  02602	50		 push	 eax
  02603	8d 8d b4 fe ff
	ff		 lea	 ecx, DWORD PTR _colpix2$187468[ebp]
  02609	e8 00 00 00 00	 call	 ?GetA@Color@Gdiplus@@QBEEXZ ; Gdiplus::Color::GetA
  0260e	0f b6 c0	 movzx	 eax, al
  02611	99		 cdq
  02612	2b c2		 sub	 eax, edx
  02614	d1 f8		 sar	 eax, 1
  02616	50		 push	 eax
  02617	e8 00 00 00 00	 call	 ?MakeARGB@Color@Gdiplus@@SAKEEEE@Z ; Gdiplus::Color::MakeARGB
  0261c	83 c4 10	 add	 esp, 16			; 00000010H
  0261f	50		 push	 eax
  02620	8d 8d b4 fe ff
	ff		 lea	 ecx, DWORD PTR _colpix2$187468[ebp]
  02626	e8 00 00 00 00	 call	 ?SetValue@Color@Gdiplus@@QAEXK@Z ; Gdiplus::Color::SetValue

; 514  : 			Gdiplus::Pen penPix2( colpix2 );

  0262b	68 00 00 80 3f	 push	 1065353216		; 3f800000H
  02630	8d 8d b4 fe ff
	ff		 lea	 ecx, DWORD PTR _colpix2$187468[ebp]
  02636	51		 push	 ecx
  02637	8d 8d a4 fe ff
	ff		 lea	 ecx, DWORD PTR _penPix2$187469[ebp]
  0263d	e8 00 00 00 00	 call	 ??0Pen@Gdiplus@@QAE@ABVColor@1@M@Z ; Gdiplus::Pen::Pen
  02642	c6 45 fc 09	 mov	 BYTE PTR __$EHRec$[ebp+8], 9

; 515  : 			gdi.DrawLine( &penPix2, rect2.left, rect2.top, rect2.left+1, rect2.top );

  02646	8b 95 d4 fe ff
	ff		 mov	 edx, DWORD PTR _rect2$187463[ebp+4]
  0264c	52		 push	 edx
  0264d	8b 85 d0 fe ff
	ff		 mov	 eax, DWORD PTR _rect2$187463[ebp]
  02653	83 c0 01	 add	 eax, 1
  02656	50		 push	 eax
  02657	8b 8d d4 fe ff
	ff		 mov	 ecx, DWORD PTR _rect2$187463[ebp+4]
  0265d	51		 push	 ecx
  0265e	8b 95 d0 fe ff
	ff		 mov	 edx, DWORD PTR _rect2$187463[ebp]
  02664	52		 push	 edx
  02665	8d 85 a4 fe ff
	ff		 lea	 eax, DWORD PTR _penPix2$187469[ebp]
  0266b	50		 push	 eax
  0266c	8b 4d 08	 mov	 ecx, DWORD PTR _gdi$[ebp]
  0266f	e8 00 00 00 00	 call	 ?DrawLine@Graphics@Gdiplus@@QAE?AW4Status@2@PBVPen@2@HHHH@Z ; Gdiplus::Graphics::DrawLine

; 516  : 			gdi.DrawLine( &penPix2, rect2.right-1, rect2.top, rect2.right-1, rect2.top+1 );

  02674	8b 8d d4 fe ff
	ff		 mov	 ecx, DWORD PTR _rect2$187463[ebp+4]
  0267a	83 c1 01	 add	 ecx, 1
  0267d	51		 push	 ecx
  0267e	8b 95 d8 fe ff
	ff		 mov	 edx, DWORD PTR _rect2$187463[ebp+8]
  02684	83 ea 01	 sub	 edx, 1
  02687	52		 push	 edx
  02688	8b 85 d4 fe ff
	ff		 mov	 eax, DWORD PTR _rect2$187463[ebp+4]
  0268e	50		 push	 eax
  0268f	8b 8d d8 fe ff
	ff		 mov	 ecx, DWORD PTR _rect2$187463[ebp+8]
  02695	83 e9 01	 sub	 ecx, 1
  02698	51		 push	 ecx
  02699	8d 95 a4 fe ff
	ff		 lea	 edx, DWORD PTR _penPix2$187469[ebp]
  0269f	52		 push	 edx
  026a0	8b 4d 08	 mov	 ecx, DWORD PTR _gdi$[ebp]
  026a3	e8 00 00 00 00	 call	 ?DrawLine@Graphics@Gdiplus@@QAE?AW4Status@2@PBVPen@2@HHHH@Z ; Gdiplus::Graphics::DrawLine

; 517  : 			gdi.DrawLine( &penPix2, rect2.right-1, rect2.bottom-1, rect2.right-2, rect2.bottom-1 );

  026a8	8b 85 dc fe ff
	ff		 mov	 eax, DWORD PTR _rect2$187463[ebp+12]
  026ae	83 e8 01	 sub	 eax, 1
  026b1	50		 push	 eax
  026b2	8b 8d d8 fe ff
	ff		 mov	 ecx, DWORD PTR _rect2$187463[ebp+8]
  026b8	83 e9 02	 sub	 ecx, 2
  026bb	51		 push	 ecx
  026bc	8b 95 dc fe ff
	ff		 mov	 edx, DWORD PTR _rect2$187463[ebp+12]
  026c2	83 ea 01	 sub	 edx, 1
  026c5	52		 push	 edx
  026c6	8b 85 d8 fe ff
	ff		 mov	 eax, DWORD PTR _rect2$187463[ebp+8]
  026cc	83 e8 01	 sub	 eax, 1
  026cf	50		 push	 eax
  026d0	8d 8d a4 fe ff
	ff		 lea	 ecx, DWORD PTR _penPix2$187469[ebp]
  026d6	51		 push	 ecx
  026d7	8b 4d 08	 mov	 ecx, DWORD PTR _gdi$[ebp]
  026da	e8 00 00 00 00	 call	 ?DrawLine@Graphics@Gdiplus@@QAE?AW4Status@2@PBVPen@2@HHHH@Z ; Gdiplus::Graphics::DrawLine

; 518  : 			gdi.DrawLine( &penPix2, rect2.left,  rect2.bottom-1, rect2.left+1,  rect2.bottom-1 );

  026df	8b 95 dc fe ff
	ff		 mov	 edx, DWORD PTR _rect2$187463[ebp+12]
  026e5	83 ea 01	 sub	 edx, 1
  026e8	52		 push	 edx
  026e9	8b 85 d0 fe ff
	ff		 mov	 eax, DWORD PTR _rect2$187463[ebp]
  026ef	83 c0 01	 add	 eax, 1
  026f2	50		 push	 eax
  026f3	8b 8d dc fe ff
	ff		 mov	 ecx, DWORD PTR _rect2$187463[ebp+12]
  026f9	83 e9 01	 sub	 ecx, 1
  026fc	51		 push	 ecx
  026fd	8b 95 d0 fe ff
	ff		 mov	 edx, DWORD PTR _rect2$187463[ebp]
  02703	52		 push	 edx
  02704	8d 85 a4 fe ff
	ff		 lea	 eax, DWORD PTR _penPix2$187469[ebp]
  0270a	50		 push	 eax
  0270b	8b 4d 08	 mov	 ecx, DWORD PTR _gdi$[ebp]
  0270e	e8 00 00 00 00	 call	 ?DrawLine@Graphics@Gdiplus@@QAE?AW4Status@2@PBVPen@2@HHHH@Z ; Gdiplus::Graphics::DrawLine

; 519  : 		}

  02713	c6 45 fc 08	 mov	 BYTE PTR __$EHRec$[ebp+8], 8
  02717	8d 8d a4 fe ff
	ff		 lea	 ecx, DWORD PTR _penPix2$187469[ebp]
  0271d	e8 00 00 00 00	 call	 ??1Pen@Gdiplus@@QAE@XZ	; Gdiplus::Pen::~Pen
  02722	c6 45 fc 07	 mov	 BYTE PTR __$EHRec$[ebp+8], 7
  02726	8d 8d c0 fe ff
	ff		 lea	 ecx, DWORD PTR _pen2$187465[ebp]
  0272c	e8 00 00 00 00	 call	 ??1Pen@Gdiplus@@QAE@XZ	; Gdiplus::Pen::~Pen
$L187464:

; 520  : 
; 521  : 	/*	if( m_bMouseDown )
; 522  : 		{
; 523  : 			Gdiplus::RectF rc( rect2.left, rect2.top, rect2.Width(), rect2.Height()/3 );
; 524  : 			Gdiplus::Color colBrush1,colBrush2;
; 525  : 			colBrush1.SetValue( Gdiplus::Color::MakeARGB(15,1,1,1)  );
; 526  : 			colBrush2.SetValue( Gdiplus::Color::MakeARGB(0,1,1,1)  );
; 527  : 
; 528  : 			LinearGradientBrush brush( rc, colBrush1, colBrush2,LinearGradientModeVertical );
; 529  : 			gdi.FillRectangle( &brush, rc );
; 530  : 		}
; 531  : 		else
; 532  : 		{
; 533  : 			Gdiplus::RectF rc( rect2.left, rect2.top, rect2.Width(), rect2.Height()/2 );
; 534  : 			rc.Inflate(-1,-1);
; 535  : 			LinearGradientBrush brush( rc, m_colBrush1, m_colBrush2,LinearGradientModeVertical );
; 536  : 			gdi.FillRectangle( &brush, rc );
; 537  : 		}*/
; 538  : 
; 539  : 		CRect rect3 = rect2;

  02731	8b 8d d0 fe ff
	ff		 mov	 ecx, DWORD PTR _rect2$187463[ebp]
  02737	89 8d 8c fe ff
	ff		 mov	 DWORD PTR _rect3$187470[ebp], ecx
  0273d	8b 95 d4 fe ff
	ff		 mov	 edx, DWORD PTR _rect2$187463[ebp+4]
  02743	89 95 90 fe ff
	ff		 mov	 DWORD PTR _rect3$187470[ebp+4], edx
  02749	8b 85 d8 fe ff
	ff		 mov	 eax, DWORD PTR _rect2$187463[ebp+8]
  0274f	89 85 94 fe ff
	ff		 mov	 DWORD PTR _rect3$187470[ebp+8], eax
  02755	8b 8d dc fe ff
	ff		 mov	 ecx, DWORD PTR _rect2$187463[ebp+12]
  0275b	89 8d 98 fe ff
	ff		 mov	 DWORD PTR _rect3$187470[ebp+12], ecx

; 540  : 		::InflateRect( &rect3, -1,-1 );

  02761	8b f4		 mov	 esi, esp
  02763	6a ff		 push	 -1
  02765	6a ff		 push	 -1
  02767	8d 95 8c fe ff
	ff		 lea	 edx, DWORD PTR _rect3$187470[ebp]
  0276d	52		 push	 edx
  0276e	ff 15 00 00 00
	00		 call	 DWORD PTR __imp__InflateRect@12
  02774	3b f4		 cmp	 esi, esp
  02776	e8 00 00 00 00	 call	 __RTC_CheckEsp

; 541  : 		Gdiplus::RectF rc( rect3.left, rect3.top, rect3.Width(), rect3.Height() );

  0277b	8d 8d 8c fe ff
	ff		 lea	 ecx, DWORD PTR _rect3$187470[ebp]
  02781	e8 00 00 00 00	 call	 ?Height@CRect@@QBEHXZ	; CRect::Height
  02786	89 85 fc fc ff
	ff		 mov	 DWORD PTR tv1449[ebp], eax
  0278c	db 85 fc fc ff
	ff		 fild	 DWORD PTR tv1449[ebp]
  02792	51		 push	 ecx
  02793	d9 1c 24	 fstp	 DWORD PTR [esp]
  02796	8d 8d 8c fe ff
	ff		 lea	 ecx, DWORD PTR _rect3$187470[ebp]
  0279c	e8 00 00 00 00	 call	 ?Width@CRect@@QBEHXZ	; CRect::Width
  027a1	89 85 f8 fc ff
	ff		 mov	 DWORD PTR tv1451[ebp], eax
  027a7	db 85 f8 fc ff
	ff		 fild	 DWORD PTR tv1451[ebp]
  027ad	51		 push	 ecx
  027ae	d9 1c 24	 fstp	 DWORD PTR [esp]
  027b1	db 85 90 fe ff
	ff		 fild	 DWORD PTR _rect3$187470[ebp+4]
  027b7	51		 push	 ecx
  027b8	d9 1c 24	 fstp	 DWORD PTR [esp]
  027bb	db 85 8c fe ff
	ff		 fild	 DWORD PTR _rect3$187470[ebp]
  027c1	51		 push	 ecx
  027c2	d9 1c 24	 fstp	 DWORD PTR [esp]
  027c5	8d 8d 74 fe ff
	ff		 lea	 ecx, DWORD PTR _rc$187471[ebp]
  027cb	e8 00 00 00 00	 call	 ??0RectF@Gdiplus@@QAE@MMMM@Z ; Gdiplus::RectF::RectF

; 542  : 		LinearGradientBrush brush( rc, m_colBK, m_colBK,LinearGradientModeVertical );

  027d0	6a 01		 push	 1
  027d2	8b 45 f0	 mov	 eax, DWORD PTR _this$[ebp]
  027d5	05 6c 01 00 00	 add	 eax, 364		; 0000016cH
  027da	50		 push	 eax
  027db	8b 4d f0	 mov	 ecx, DWORD PTR _this$[ebp]
  027de	81 c1 6c 01 00
	00		 add	 ecx, 364		; 0000016cH
  027e4	51		 push	 ecx
  027e5	8d 95 74 fe ff
	ff		 lea	 edx, DWORD PTR _rc$187471[ebp]
  027eb	52		 push	 edx
  027ec	8d 8d 60 fe ff
	ff		 lea	 ecx, DWORD PTR _brush$187472[ebp]
  027f2	e8 00 00 00 00	 call	 ??0LinearGradientBrush@Gdiplus@@QAE@ABVRectF@1@ABVColor@1@1W4LinearGradientMode@1@@Z ; Gdiplus::LinearGradientBrush::LinearGradientBrush
  027f7	c6 45 fc 0a	 mov	 BYTE PTR __$EHRec$[ebp+8], 10 ; 0000000aH

; 543  : 		gdi.FillRectangle( &brush, rc );

  027fb	8d 85 74 fe ff
	ff		 lea	 eax, DWORD PTR _rc$187471[ebp]
  02801	50		 push	 eax
  02802	8d 8d 60 fe ff
	ff		 lea	 ecx, DWORD PTR _brush$187472[ebp]
  02808	51		 push	 ecx
  02809	8b 4d 08	 mov	 ecx, DWORD PTR _gdi$[ebp]
  0280c	e8 00 00 00 00	 call	 ?FillRectangle@Graphics@Gdiplus@@QAE?AW4Status@2@PBVBrush@2@ABVRectF@2@@Z ; Gdiplus::Graphics::FillRectangle

; 544  : 
; 545  : 		Gdiplus::Color colBlack1 = Gdiplus::Color::MakeARGB(30,50,50,50);

  02811	6a 32		 push	 50			; 00000032H
  02813	6a 32		 push	 50			; 00000032H
  02815	6a 32		 push	 50			; 00000032H
  02817	6a 1e		 push	 30			; 0000001eH
  02819	e8 00 00 00 00	 call	 ?MakeARGB@Color@Gdiplus@@SAKEEEE@Z ; Gdiplus::Color::MakeARGB
  0281e	83 c4 10	 add	 esp, 16			; 00000010H
  02821	50		 push	 eax
  02822	8d 8d 54 fe ff
	ff		 lea	 ecx, DWORD PTR _colBlack1$187473[ebp]
  02828	e8 00 00 00 00	 call	 ??0Color@Gdiplus@@QAE@K@Z ; Gdiplus::Color::Color

; 546  : 		Gdiplus::Color colBlack2 = Gdiplus::Color::MakeARGB(15,50,50,50);

  0282d	6a 32		 push	 50			; 00000032H
  0282f	6a 32		 push	 50			; 00000032H
  02831	6a 32		 push	 50			; 00000032H
  02833	6a 0f		 push	 15			; 0000000fH
  02835	e8 00 00 00 00	 call	 ?MakeARGB@Color@Gdiplus@@SAKEEEE@Z ; Gdiplus::Color::MakeARGB
  0283a	83 c4 10	 add	 esp, 16			; 00000010H
  0283d	50		 push	 eax
  0283e	8d 8d 48 fe ff
	ff		 lea	 ecx, DWORD PTR _colBlack2$187474[ebp]
  02844	e8 00 00 00 00	 call	 ??0Color@Gdiplus@@QAE@K@Z ; Gdiplus::Color::Color

; 547  : 	    Gdiplus::RectF rc1( rect3.left, rect3.top+rect3.Height()/2, rect3.Width(), rect3.Height()/2 );

  02849	8d 8d 8c fe ff
	ff		 lea	 ecx, DWORD PTR _rect3$187470[ebp]
  0284f	e8 00 00 00 00	 call	 ?Height@CRect@@QBEHXZ	; CRect::Height
  02854	99		 cdq
  02855	2b c2		 sub	 eax, edx
  02857	d1 f8		 sar	 eax, 1
  02859	89 85 f4 fc ff
	ff		 mov	 DWORD PTR tv1469[ebp], eax
  0285f	db 85 f4 fc ff
	ff		 fild	 DWORD PTR tv1469[ebp]
  02865	51		 push	 ecx
  02866	d9 1c 24	 fstp	 DWORD PTR [esp]
  02869	8d 8d 8c fe ff
	ff		 lea	 ecx, DWORD PTR _rect3$187470[ebp]
  0286f	e8 00 00 00 00	 call	 ?Width@CRect@@QBEHXZ	; CRect::Width
  02874	89 85 f0 fc ff
	ff		 mov	 DWORD PTR tv1471[ebp], eax
  0287a	db 85 f0 fc ff
	ff		 fild	 DWORD PTR tv1471[ebp]
  02880	51		 push	 ecx
