; Listing generated by Microsoft (R) Optimizing Compiler Version 13.10.3077 

	TITLE	.\src\LayoutMgr\ChangeColor\SkinBotton.cpp
	.386P
include listing.inc
if @Version gt 510
.model FLAT
else
_TEXT	SEGMENT PARA USE32 PUBLIC 'CODE'
_TEXT	ENDS
_DATA	SEGMENT DWORD USE32 PUBLIC 'DATA'
_DATA	ENDS
CONST	SEGMENT DWORD USE32 PUBLIC 'CONST'
CONST	ENDS
_BSS	SEGMENT DWORD USE32 PUBLIC 'BSS'
_BSS	ENDS
$$SYMBOLS	SEGMENT BYTE USE32 'DEBSYM'
$$SYMBOLS	ENDS
_TLS	SEGMENT DWORD USE32 PUBLIC 'TLS'
_TLS	ENDS
;	COMDAT ??_C@_0FC@OGIBLEP@d?3?2boxgit?2playbox?2playbox?2dev?2pr@
CONST	SEGMENT DWORD USE32 PUBLIC 'CONST'
CONST	ENDS
;	COMDAT ??_C@_0EN@IBFBLEEG@D?3?2Program?5Files?5?$CIx86?$CJ?2Microsoft@
CONST	SEGMENT DWORD USE32 PUBLIC 'CONST'
CONST	ENDS
;	COMDAT ??_C@_0BK@JOOHECM@nNewLength?5?$DM?$DN?5GetLength?$CI?$CJ?$AA@
CONST	SEGMENT DWORD USE32 PUBLIC 'CONST'
CONST	ENDS
rdata$r	SEGMENT DWORD USE32 PUBLIC 'CONST'
rdata$r	ENDS
xdata$x	SEGMENT DWORD USE32 PUBLIC 'CONST'
xdata$x	ENDS
text$AFX_COL1	SEGMENT PARA USE32 PUBLIC ''
text$AFX_COL1	ENDS
text$yc	SEGMENT PARA USE32 PUBLIC 'CODE'
text$yc	ENDS
CRT$XCA	SEGMENT DWORD USE32 PUBLIC 'DATA'
CRT$XCA	ENDS
CRT$XCU	SEGMENT DWORD USE32 PUBLIC 'DATA'
CRT$XCU	ENDS
CRT$XCL	SEGMENT DWORD USE32 PUBLIC 'DATA'
CRT$XCL	ENDS
CRT$XCC	SEGMENT DWORD USE32 PUBLIC 'DATA'
CRT$XCC	ENDS
CRT$XCZ	SEGMENT DWORD USE32 PUBLIC 'DATA'
CRT$XCZ	ENDS
text$yd	SEGMENT PARA USE32 PUBLIC 'CODE'
text$yd	ENDS
ATL$__m	SEGMENT DWORD USE32 PUBLIC ''
ATL$__m	ENDS
ATL$__z	SEGMENT DWORD USE32 PUBLIC ''
ATL$__z	ENDS
ATL$__a	SEGMENT DWORD USE32 PUBLIC ''
ATL$__a	ENDS
;	COMDAT ??0CGdiPlusBitmap@CSkinButton@@QAE@XZ
_TEXT	SEGMENT PARA USE32 PUBLIC 'CODE'
_TEXT	ENDS
;	COMDAT ??1CGdiPlusBitmap@CSkinButton@@UAE@XZ
_TEXT	SEGMENT PARA USE32 PUBLIC 'CODE'
_TEXT	ENDS
;	COMDAT ?Empty@CGdiPlusBitmap@CSkinButton@@QAEXXZ
_TEXT	SEGMENT PARA USE32 PUBLIC 'CODE'
_TEXT	ENDS
;	COMDAT ?Load@CGdiPlusBitmap@CSkinButton@@QAE_NPB_W@Z
_TEXT	SEGMENT PARA USE32 PUBLIC 'CODE'
_TEXT	ENDS
;	COMDAT ??BCGdiPlusBitmap@CSkinButton@@QBEPAVBitmap@Gdiplus@@XZ
_TEXT	SEGMENT PARA USE32 PUBLIC 'CODE'
_TEXT	ENDS
;	COMDAT ?GetText@CSkinButton@@QBE?AV?$CStringT@DV?$StrTraitMFC_DLL@DV?$ChTraitsCRT@D@ATL@@@@@ATL@@XZ
_TEXT	SEGMENT PARA USE32 PUBLIC 'CODE'
_TEXT	ENDS
;	COMDAT ?SetPngHoverSkin@CSkinButton@@UAEHV?$CStringT@DV?$StrTraitMFC_DLL@DV?$ChTraitsCRT@D@ATL@@@@@ATL@@@Z
_TEXT	SEGMENT PARA USE32 PUBLIC 'CODE'
_TEXT	ENDS
;	COMDAT ?SetPngFrame@CSkinButton@@UAEHV?$CStringT@DV?$StrTraitMFC_DLL@DV?$ChTraitsCRT@D@ATL@@@@@ATL@@@Z
_TEXT	SEGMENT PARA USE32 PUBLIC 'CODE'
_TEXT	ENDS
;	COMDAT ?IsClickPng@CSkinButton@@UAEHXZ
_TEXT	SEGMENT PARA USE32 PUBLIC 'CODE'
_TEXT	ENDS
;	COMDAT ?SetClickPng@CSkinButton@@UAEXH@Z
_TEXT	SEGMENT PARA USE32 PUBLIC 'CODE'
_TEXT	ENDS
;	COMDAT ??_GCGdiPlusBitmap@CSkinButton@@UAEPAXI@Z
_TEXT	SEGMENT PARA USE32 PUBLIC 'CODE'
_TEXT	ENDS
;	COMDAT ??1DIBINFO@@UAE@XZ
_TEXT	SEGMENT PARA USE32 PUBLIC 'CODE'
_TEXT	ENDS
;	COMDAT ??_GDIBINFO@@UAEPAXI@Z
_TEXT	SEGMENT PARA USE32 PUBLIC 'CODE'
_TEXT	ENDS
;	COMDAT ??0BaseColor@@QAE@XZ
_TEXT	SEGMENT PARA USE32 PUBLIC 'CODE'
_TEXT	ENDS
;	COMDAT ??1BaseColor@@QAE@XZ
_TEXT	SEGMENT PARA USE32 PUBLIC 'CODE'
_TEXT	ENDS
;	COMDAT ??_GBaseColor@@QAEPAXI@Z
_TEXT	SEGMENT PARA USE32 PUBLIC 'CODE'
_TEXT	ENDS
;	COMDAT ??_GCSkinButton@@UAEPAXI@Z
_TEXT	SEGMENT PARA USE32 PUBLIC 'CODE'
_TEXT	ENDS
;	COMDAT ??_GCButtonDraw@@UAEPAXI@Z
_TEXT	SEGMENT PARA USE32 PUBLIC 'CODE'
_TEXT	ENDS
;	COMDAT ??B?$CComPtrBase@UITypeInfo2@@@ATL@@QBEPAUITypeInfo2@@XZ
_TEXT	SEGMENT PARA USE32 PUBLIC 'CODE'
_TEXT	ENDS
;	COMDAT ?equal@?$istreambuf_iterator@DU?$char_traits@D@std@@@std@@QBE_NABV12@@Z
_TEXT	SEGMENT PARA USE32 PUBLIC 'CODE'
_TEXT	ENDS
;	COMDAT ?equal@?$istreambuf_iterator@_WU?$char_traits@_W@std@@@std@@QBE_NABV12@@Z
_TEXT	SEGMENT PARA USE32 PUBLIC 'CODE'
_TEXT	ENDS
;	COMDAT ?CharNextA@?$ChTraitsCRT@D@ATL@@SAPADPBD@Z
_TEXT	SEGMENT PARA USE32 PUBLIC 'CODE'
_TEXT	ENDS
;	COMDAT ?IsSpace@?$ChTraitsCRT@D@ATL@@SAHD@Z
_TEXT	SEGMENT PARA USE32 PUBLIC 'CODE'
_TEXT	ENDS
;	COMDAT ?Unlock@?$CComCritSecLock@VCComCriticalSection@ATL@@@ATL@@QAEXXZ
_TEXT	SEGMENT PARA USE32 PUBLIC 'CODE'
_TEXT	ENDS
;	COMDAT ??$_Maklocstr@D@std@@YAPADPBDPADABU_Cvtvec@@@Z
_TEXT	SEGMENT PARA USE32 PUBLIC 'CODE'
_TEXT	ENDS
;	COMDAT ??_R3CButtonDraw@@8
rdata$r	SEGMENT DWORD USE32 PUBLIC 'CONST'
rdata$r	ENDS
;	COMDAT ??_R3?$numpunct@_W@std@@8
rdata$r	SEGMENT DWORD USE32 PUBLIC 'CONST'
rdata$r	ENDS
;	COMDAT ??_R3?$numpunct@D@std@@8
rdata$r	SEGMENT DWORD USE32 PUBLIC 'CONST'
rdata$r	ENDS
;	COMDAT ??_R3DIBINFO@@8
rdata$r	SEGMENT DWORD USE32 PUBLIC 'CONST'
rdata$r	ENDS
;	COMDAT ??_R3CGdiPlusBitmap@CSkinButton@@8
rdata$r	SEGMENT DWORD USE32 PUBLIC 'CONST'
rdata$r	ENDS
;	COMDAT ??_R3CSkinButton@@8
rdata$r	SEGMENT DWORD USE32 PUBLIC 'CONST'
rdata$r	ENDS
;	COMDAT ??_R2CButtonDraw@@8
rdata$r	SEGMENT DWORD USE32 PUBLIC 'CONST'
rdata$r	ENDS
;	COMDAT ??_R2?$numpunct@_W@std@@8
rdata$r	SEGMENT DWORD USE32 PUBLIC 'CONST'
rdata$r	ENDS
;	COMDAT ??_R2?$numpunct@D@std@@8
rdata$r	SEGMENT DWORD USE32 PUBLIC 'CONST'
rdata$r	ENDS
;	COMDAT ??_R2DIBINFO@@8
rdata$r	SEGMENT DWORD USE32 PUBLIC 'CONST'
rdata$r	ENDS
;	COMDAT ??_R2CGdiPlusBitmap@CSkinButton@@8
rdata$r	SEGMENT DWORD USE32 PUBLIC 'CONST'
rdata$r	ENDS
;	COMDAT ??_R2CSkinButton@@8
rdata$r	SEGMENT DWORD USE32 PUBLIC 'CONST'
rdata$r	ENDS
;	COMDAT ??_R1A@?0A@A@CButtonDraw@@8
rdata$r	SEGMENT DWORD USE32 PUBLIC 'CONST'
rdata$r	ENDS
;	COMDAT ??_R1A@?0A@A@?$numpunct@_W@std@@8
rdata$r	SEGMENT DWORD USE32 PUBLIC 'CONST'
rdata$r	ENDS
;	COMDAT ??_R1A@?0A@A@facet@locale@std@@8
rdata$r	SEGMENT DWORD USE32 PUBLIC 'CONST'
rdata$r	ENDS
;	COMDAT ??_R0?AVfacet@locale@std@@@8
_DATA	SEGMENT DWORD USE32 PUBLIC 'DATA'
_DATA	ENDS
;	COMDAT ??_R1A@?0A@A@?$numpunct@D@std@@8
rdata$r	SEGMENT DWORD USE32 PUBLIC 'CONST'
rdata$r	ENDS
;	COMDAT ??_R1A@?0A@A@DIBINFO@@8
rdata$r	SEGMENT DWORD USE32 PUBLIC 'CONST'
rdata$r	ENDS
;	COMDAT ??_R1A@?0A@A@CGdiPlusBitmap@CSkinButton@@8
rdata$r	SEGMENT DWORD USE32 PUBLIC 'CONST'
rdata$r	ENDS
;	COMDAT ??_R1A@?0A@A@CObject@@8
rdata$r	SEGMENT DWORD USE32 PUBLIC 'CONST'
rdata$r	ENDS
;	COMDAT ??_R0?AVCObject@@@8
_DATA	SEGMENT DWORD USE32 PUBLIC 'DATA'
_DATA	ENDS
;	COMDAT ??_R1A@?0A@A@CCmdTarget@@8
rdata$r	SEGMENT DWORD USE32 PUBLIC 'CONST'
rdata$r	ENDS
;	COMDAT ??_R0?AVCCmdTarget@@@8
_DATA	SEGMENT DWORD USE32 PUBLIC 'DATA'
_DATA	ENDS
;	COMDAT ??_R1A@?0A@A@CWnd@@8
rdata$r	SEGMENT DWORD USE32 PUBLIC 'CONST'
rdata$r	ENDS
;	COMDAT ??_R0?AVCWnd@@@8
_DATA	SEGMENT DWORD USE32 PUBLIC 'DATA'
_DATA	ENDS
;	COMDAT ??_R1A@?0A@A@CButton@@8
rdata$r	SEGMENT DWORD USE32 PUBLIC 'CONST'
rdata$r	ENDS
;	COMDAT ??_R1A@?0A@A@CSkinButton@@8
rdata$r	SEGMENT DWORD USE32 PUBLIC 'CONST'
rdata$r	ENDS
;	COMDAT ??_R0?AVCButtonDraw@@@8
_DATA	SEGMENT DWORD USE32 PUBLIC 'DATA'
_DATA	ENDS
;	COMDAT ??_R0?AV?$numpunct@_W@std@@@8
_DATA	SEGMENT DWORD USE32 PUBLIC 'DATA'
_DATA	ENDS
;	COMDAT ??_R0?AV?$numpunct@D@std@@@8
_DATA	SEGMENT DWORD USE32 PUBLIC 'DATA'
_DATA	ENDS
;	COMDAT ??_R0?AVDIBINFO@@@8
_DATA	SEGMENT DWORD USE32 PUBLIC 'DATA'
_DATA	ENDS
;	COMDAT ??_R0?AVCGdiPlusBitmap@CSkinButton@@@8
_DATA	SEGMENT DWORD USE32 PUBLIC 'DATA'
_DATA	ENDS
;	COMDAT ??_R0?AVCButton@@@8
_DATA	SEGMENT DWORD USE32 PUBLIC 'DATA'
_DATA	ENDS
;	COMDAT ??_R0?AVCSkinButton@@@8
_DATA	SEGMENT DWORD USE32 PUBLIC 'DATA'
_DATA	ENDS
;	COMDAT ??_R4CButtonDraw@@6B@
rdata$r	SEGMENT DWORD USE32 PUBLIC 'CONST'
rdata$r	ENDS
;	COMDAT ??0?$allocator@_W@std@@QAE@XZ
_TEXT	SEGMENT PARA USE32 PUBLIC 'CODE'
_TEXT	ENDS
;	COMDAT ??0?$allocator@D@std@@QAE@ABV01@@Z
_TEXT	SEGMENT PARA USE32 PUBLIC 'CODE'
_TEXT	ENDS
;	COMDAT ??0?$allocator@D@std@@QAE@XZ
_TEXT	SEGMENT PARA USE32 PUBLIC 'CODE'
_TEXT	ENDS
;	COMDAT ?deallocate@?$allocator@D@std@@QAEXPADI@Z
_TEXT	SEGMENT PARA USE32 PUBLIC 'CODE'
_TEXT	ENDS
;	COMDAT ?max_size@?$allocator@D@std@@QBEIXZ
_TEXT	SEGMENT PARA USE32 PUBLIC 'CODE'
_TEXT	ENDS
;	COMDAT ?allocate@?$allocator@D@std@@QAEPADI@Z
_TEXT	SEGMENT PARA USE32 PUBLIC 'CODE'
_TEXT	ENDS
;	COMDAT ??$_Allocate@D@std@@YAPADIPAD@Z
_TEXT	SEGMENT PARA USE32 PUBLIC 'CODE'
_TEXT	ENDS
;	COMDAT ??_G?$numpunct@_W@std@@MAEPAXI@Z
_TEXT	SEGMENT PARA USE32 PUBLIC 'CODE'
_TEXT	ENDS
;	COMDAT ??_R4?$numpunct@_W@std@@6B@
rdata$r	SEGMENT DWORD USE32 PUBLIC 'CONST'
rdata$r	ENDS
;	COMDAT ??_G?$numpunct@D@std@@MAEPAXI@Z
_TEXT	SEGMENT PARA USE32 PUBLIC 'CODE'
_TEXT	ENDS
;	COMDAT ??_R4?$numpunct@D@std@@6B@
rdata$r	SEGMENT DWORD USE32 PUBLIC 'CONST'
rdata$r	ENDS
;	COMDAT ??_R4DIBINFO@@6B@
rdata$r	SEGMENT DWORD USE32 PUBLIC 'CONST'
rdata$r	ENDS
;	COMDAT ??_R4CGdiPlusBitmap@CSkinButton@@6B@
rdata$r	SEGMENT DWORD USE32 PUBLIC 'CONST'
rdata$r	ENDS
;	COMDAT ??_R4CSkinButton@@6B@
rdata$r	SEGMENT DWORD USE32 PUBLIC 'CONST'
rdata$r	ENDS
;	COMDAT ??_C@_0EN@CBMLGOH@D?3?2Program?5Files?5?$CIx86?$CJ?2Microsoft@
CONST	SEGMENT DWORD USE32 PUBLIC 'CONST'
CONST	ENDS
;	COMDAT ?_Psave@?$_Facetptr@V?$numpunct@_W@std@@@std@@2PBVfacet@locale@2@B
_DATA	SEGMENT DWORD USE32 PUBLIC 'DATA'
_DATA	ENDS
;	COMDAT ?_Psave@?$_Facetptr@V?$numpunct@D@std@@@std@@2PBVfacet@locale@2@B
_DATA	SEGMENT DWORD USE32 PUBLIC 'DATA'
_DATA	ENDS
;	COMDAT ?Unlock@CComCriticalSection@ATL@@QAEJXZ
_TEXT	SEGMENT PARA USE32 PUBLIC 'CODE'
_TEXT	ENDS
;	COMDAT ??_C@_0FG@LDNDNCJM@D?3?2Program?5Files?5?$CIx86?$CJ?2Microsoft@
CONST	SEGMENT DWORD USE32 PUBLIC 'CONST'
CONST	ENDS
;	COMDAT ??_C@_09HIEJFN@m_bLocked?$AA@
CONST	SEGMENT DWORD USE32 PUBLIC 'CONST'
CONST	ENDS
;	COMDAT ?_Psave@?$_Facetptr@V?$ctype@_W@std@@@std@@2PBVfacet@locale@2@B
_DATA	SEGMENT DWORD USE32 PUBLIC 'DATA'
_DATA	ENDS
;	COMDAT ?_Psave@?$_Facetptr@V?$ctype@D@std@@@std@@2PBVfacet@locale@2@B
_DATA	SEGMENT DWORD USE32 PUBLIC 'DATA'
_DATA	ENDS
;	COMDAT ??$_Maklocchr@_W@std@@YA_WDPA_WABU_Cvtvec@@@Z
_TEXT	SEGMENT PARA USE32 PUBLIC 'CODE'
_TEXT	ENDS
;	COMDAT ??$_DebugHeapDelete@X@std@@YAXPAX@Z
_TEXT	SEGMENT PARA USE32 PUBLIC 'CODE'
_TEXT	ENDS
;	COMDAT ??$_Maklocstr@_W@std@@YAPA_WPBDPA_WABU_Cvtvec@@@Z
_TEXT	SEGMENT PARA USE32 PUBLIC 'CODE'
_TEXT	ENDS
;	COMDAT ??$_Maklocchr@D@std@@YADDPADABU_Cvtvec@@@Z
_TEXT	SEGMENT PARA USE32 PUBLIC 'CODE'
_TEXT	ENDS
;	COMDAT ??_C@_04LOAJBDKD@true?$AA@
CONST	SEGMENT DWORD USE32 PUBLIC 'CONST'
CONST	ENDS
;	COMDAT ??_C@_05LAPONLG@false?$AA@
CONST	SEGMENT DWORD USE32 PUBLIC 'CONST'
CONST	ENDS
;	COMDAT _wmemcpy
_TEXT	SEGMENT PARA USE32 PUBLIC 'CODE'
_TEXT	ENDS
;	COMDAT ?max_size@?$allocator@_W@std@@QBEIXZ
_TEXT	SEGMENT PARA USE32 PUBLIC 'CODE'
_TEXT	ENDS
;	COMDAT ?allocate@?$allocator@_W@std@@QAEPA_WI@Z
_TEXT	SEGMENT PARA USE32 PUBLIC 'CODE'
_TEXT	ENDS
;	COMDAT ??$_Allocate@_W@std@@YAPA_WIPA_W@Z
_TEXT	SEGMENT PARA USE32 PUBLIC 'CODE'
_TEXT	ENDS
;	COMDAT ??_C@_0FJ@DMHPDOJC@D?3?2Program?5Files?5?$CIx86?$CJ?2Microsoft@
CONST	SEGMENT DWORD USE32 PUBLIC 'CONST'
CONST	ENDS
;	COMDAT ??_C@_01GFHCPBMG@C?$AA@
CONST	SEGMENT DWORD USE32 PUBLIC 'CONST'
CONST	ENDS
;	COMDAT ??_C@_0BA@GNIEOBOF@nNewLength?5?$DO?$DN?50?$AA@
CONST	SEGMENT DWORD USE32 PUBLIC 'CONST'
CONST	ENDS
;	COMDAT ??_C@_0N@ILOMLJGA@nLength?5?$DO?$DN?50?$AA@
CONST	SEGMENT DWORD USE32 PUBLIC 'CONST'
CONST	ENDS
;	COMDAT ??_C@_0CD@EEFFJEGJ@nLength?5?$DM?$DN?5GetData?$CI?$CJ?9?$DOnAllocLeng@
CONST	SEGMENT DWORD USE32 PUBLIC 'CONST'
CONST	ENDS
;	COMDAT ?AtlThrow@ATL@@YGXJ@Z
_TEXT	SEGMENT PARA USE32 PUBLIC 'CODE'
_TEXT	ENDS
;	COMDAT ??RCTraceFileAndLineInfo@ATL@@QBAXKIPBDZZ
_TEXT	SEGMENT PARA USE32 PUBLIC 'CODE'
_TEXT	ENDS
;	COMDAT ?TraceV@CTrace@ATL@@QBAXPBDHKI0PAD@Z
_TEXT	SEGMENT PARA USE32 PUBLIC 'CODE'
_TEXT	ENDS
;	COMDAT ??_C@_0FI@NHHJANPC@D?3?2Program?5Files?5?$CIx86?$CJ?2Microsoft@
CONST	SEGMENT DWORD USE32 PUBLIC 'CONST'
CONST	ENDS
;	COMDAT ??_C@_0BF@IAAKIJDJ@AtlThrow?3?5hr?5?$DN?50x?$CFx?6?$AA@
CONST	SEGMENT DWORD USE32 PUBLIC 'CONST'
CONST	ENDS
;	COMDAT ??BCTraceCategory@ATL@@QBEKXZ
_TEXT	SEGMENT PARA USE32 PUBLIC 'CODE'
_TEXT	ENDS
;	COMDAT ?IsShared@CStringData@ATL@@QBE_NXZ
_TEXT	SEGMENT PARA USE32 PUBLIC 'CODE'
_TEXT	ENDS
;	COMDAT ?data@CStringData@ATL@@QAEPAXXZ
_TEXT	SEGMENT PARA USE32 PUBLIC 'CODE'
_TEXT	ENDS
;	COMDAT ?Release@CStringData@ATL@@QAEXXZ
_TEXT	SEGMENT PARA USE32 PUBLIC 'CODE'
_TEXT	ENDS
;	COMDAT ??_C@_0L@OIIMFBNE@nRefs?5?$CB?$DN?50?$AA@
CONST	SEGMENT DWORD USE32 PUBLIC 'CONST'
CONST	ENDS
;	COMDAT ??_C@_0CB@GFHAPKDK@pOldData?9?$DOnAllocLength?5?$DM?5nLength@
CONST	SEGMENT DWORD USE32 PUBLIC 'CONST'
CONST	ENDS
;	COMDAT ?_Peek@?$istreambuf_iterator@_WU?$char_traits@_W@std@@@std@@AAE_WXZ
_TEXT	SEGMENT PARA USE32 PUBLIC 'CODE'
_TEXT	ENDS
;	COMDAT ?_Peek@?$istreambuf_iterator@DU?$char_traits@D@std@@@std@@AAEDXZ
_TEXT	SEGMENT PARA USE32 PUBLIC 'CODE'
_TEXT	ENDS
;	COMDAT ??$use_facet@V?$ctype@_W@std@@@std@@YAABV?$ctype@_W@0@ABVlocale@0@@Z
_TEXT	SEGMENT PARA USE32 PUBLIC 'CODE'
_TEXT	ENDS
;	COMDAT ??_S?$ctype@_W@std@@6B@
CONST	SEGMENT DWORD USE32 PUBLIC 'CONST'
CONST	ENDS
;	COMDAT ??_R4?$ctype@_W@std@@6B@
rdata$r	SEGMENT DWORD USE32 PUBLIC 'CONST'
rdata$r	ENDS
;	COMDAT ??_R0?AV?$ctype@_W@std@@@8
_DATA	SEGMENT DWORD USE32 PUBLIC 'DATA'
_DATA	ENDS
;	COMDAT ??_R3?$ctype@_W@std@@8
rdata$r	SEGMENT DWORD USE32 PUBLIC 'CONST'
rdata$r	ENDS
;	COMDAT ??_R2?$ctype@_W@std@@8
rdata$r	SEGMENT DWORD USE32 PUBLIC 'CONST'
rdata$r	ENDS
;	COMDAT ??_R1A@?0A@A@?$ctype@_W@std@@8
rdata$r	SEGMENT DWORD USE32 PUBLIC 'CONST'
rdata$r	ENDS
;	COMDAT ??_R1A@?0A@A@ctype_base@std@@8
rdata$r	SEGMENT DWORD USE32 PUBLIC 'CONST'
rdata$r	ENDS
;	COMDAT ??_R0?AUctype_base@std@@@8
_DATA	SEGMENT DWORD USE32 PUBLIC 'DATA'
_DATA	ENDS
;	COMDAT ??_G?$ctype@_W@std@@MAEPAXI@Z
_TEXT	SEGMENT PARA USE32 PUBLIC 'CODE'
_TEXT	ENDS
;	COMDAT ??_C@_08EPJLHIJG@bad?5cast?$AA@
CONST	SEGMENT DWORD USE32 PUBLIC 'CONST'
CONST	ENDS
;	COMDAT __TI2?AVbad_cast@@
xdata$x	SEGMENT DWORD USE32 PUBLIC 'CONST'
xdata$x	ENDS
;	COMDAT __CTA2?AVbad_cast@@
xdata$x	SEGMENT DWORD USE32 PUBLIC 'CONST'
xdata$x	ENDS
;	COMDAT __CT??_R0?AVbad_cast@@@8??0bad_cast@@QAE@ABV0@@Z12
xdata$x	SEGMENT DWORD USE32 PUBLIC 'CONST'
xdata$x	ENDS
;	COMDAT ??_R0?AVbad_cast@@@8
_DATA	SEGMENT DWORD USE32 PUBLIC 'DATA'
_DATA	ENDS
;	COMDAT __CT??_R0?AVexception@@@8??0exception@@QAE@ABV0@@Z12
xdata$x	SEGMENT DWORD USE32 PUBLIC 'CONST'
xdata$x	ENDS
;	COMDAT ??_R0?AVexception@@@8
_DATA	SEGMENT DWORD USE32 PUBLIC 'DATA'
_DATA	ENDS
;	COMDAT ??$_DebugHeapDelete@Vfacet@locale@std@@@std@@YAXPAVfacet@locale@0@@Z
_TEXT	SEGMENT PARA USE32 PUBLIC 'CODE'
_TEXT	ENDS
;	COMDAT ??$use_facet@V?$ctype@D@std@@@std@@YAABV?$ctype@D@0@ABVlocale@0@@Z
_TEXT	SEGMENT PARA USE32 PUBLIC 'CODE'
_TEXT	ENDS
;	COMDAT ??_S?$ctype@D@std@@6B@
CONST	SEGMENT DWORD USE32 PUBLIC 'CONST'
CONST	ENDS
;	COMDAT ??_R4?$ctype@D@std@@6B@
rdata$r	SEGMENT DWORD USE32 PUBLIC 'CONST'
rdata$r	ENDS
;	COMDAT ??_R0?AV?$ctype@D@std@@@8
_DATA	SEGMENT DWORD USE32 PUBLIC 'DATA'
_DATA	ENDS
;	COMDAT ??_R3?$ctype@D@std@@8
rdata$r	SEGMENT DWORD USE32 PUBLIC 'CONST'
rdata$r	ENDS
;	COMDAT ??_R2?$ctype@D@std@@8
rdata$r	SEGMENT DWORD USE32 PUBLIC 'CONST'
rdata$r	ENDS
;	COMDAT ??_R1A@?0A@A@?$ctype@D@std@@8
rdata$r	SEGMENT DWORD USE32 PUBLIC 'CONST'
rdata$r	ENDS
;	COMDAT ??_G?$ctype@D@std@@MAEPAXI@Z
_TEXT	SEGMENT PARA USE32 PUBLIC 'CODE'
_TEXT	ENDS
;	COMDAT ??_S?$numpunct@_W@std@@6B@
CONST	SEGMENT DWORD USE32 PUBLIC 'CONST'
CONST	ENDS
;	COMDAT ??_S?$numpunct@D@std@@6B@
CONST	SEGMENT DWORD USE32 PUBLIC 'CONST'
CONST	ENDS
;	COMDAT _wmemmove
_TEXT	SEGMENT PARA USE32 PUBLIC 'CODE'
_TEXT	ENDS
;	COMDAT ?deallocate@?$allocator@_W@std@@QAEXPA_WI@Z
_TEXT	SEGMENT PARA USE32 PUBLIC 'CODE'
_TEXT	ENDS
;	COMDAT ??0?$allocator@_W@std@@QAE@ABV01@@Z
_TEXT	SEGMENT PARA USE32 PUBLIC 'CODE'
_TEXT	ENDS
;	COMDAT ?DrawImage@Graphics@Gdiplus@@QAE?AW4Status@2@PAVImage@2@ABVRectF@2@@Z
_TEXT	SEGMENT PARA USE32 PUBLIC 'CODE'
_TEXT	ENDS
;	COMDAT ?DrawImage@Graphics@Gdiplus@@QAE?AW4Status@2@PAVImage@2@MMMM@Z
_TEXT	SEGMENT PARA USE32 PUBLIC 'CODE'
_TEXT	ENDS
;	COMDAT ?SetStatus@Graphics@Gdiplus@@IBE?AW4Status@2@W432@@Z
_TEXT	SEGMENT PARA USE32 PUBLIC 'CODE'
_TEXT	ENDS
;	COMDAT ?GetHeight@Image@Gdiplus@@QAEIXZ
_TEXT	SEGMENT PARA USE32 PUBLIC 'CODE'
_TEXT	ENDS
;	COMDAT ?SetStatus@Image@Gdiplus@@IBE?AW4Status@2@W432@@Z
_TEXT	SEGMENT PARA USE32 PUBLIC 'CODE'
_TEXT	ENDS
;	COMDAT ?GetWidth@Image@Gdiplus@@QAEIXZ
_TEXT	SEGMENT PARA USE32 PUBLIC 'CODE'
_TEXT	ENDS
;	COMDAT ??0RectF@Gdiplus@@QAE@XZ
_TEXT	SEGMENT PARA USE32 PUBLIC 'CODE'
_TEXT	ENDS
;	COMDAT ?FillPolygon@Graphics@Gdiplus@@QAE?AW4Status@2@PBVBrush@2@PBVPointF@2@HW4FillMode@2@@Z
_TEXT	SEGMENT PARA USE32 PUBLIC 'CODE'
_TEXT	ENDS
;	COMDAT ??1LinearGradientBrush@Gdiplus@@UAE@XZ
_TEXT	SEGMENT PARA USE32 PUBLIC 'CODE'
_TEXT	ENDS
;	COMDAT ??1Brush@Gdiplus@@UAE@XZ
_TEXT	SEGMENT PARA USE32 PUBLIC 'CODE'
_TEXT	ENDS
;	COMDAT ??_7Brush@Gdiplus@@6B@
CONST	SEGMENT DWORD USE32 PUBLIC 'CONST'
CONST	ENDS
;	COMDAT ??_R4Brush@Gdiplus@@6B@
rdata$r	SEGMENT DWORD USE32 PUBLIC 'CONST'
rdata$r	ENDS
;	COMDAT ??_R0?AVBrush@Gdiplus@@@8
_DATA	SEGMENT DWORD USE32 PUBLIC 'DATA'
_DATA	ENDS
;	COMDAT ??_R3Brush@Gdiplus@@8
rdata$r	SEGMENT DWORD USE32 PUBLIC 'CONST'
rdata$r	ENDS
;	COMDAT ??_R2Brush@Gdiplus@@8
rdata$r	SEGMENT DWORD USE32 PUBLIC 'CONST'
rdata$r	ENDS
;	COMDAT ??_R1A@?0A@A@Brush@Gdiplus@@8
rdata$r	SEGMENT DWORD USE32 PUBLIC 'CONST'
rdata$r	ENDS
;	COMDAT ??_R13?0A@A@GdiplusBase@Gdiplus@@8
rdata$r	SEGMENT DWORD USE32 PUBLIC 'CONST'
rdata$r	ENDS
;	COMDAT ??_R0?AVGdiplusBase@Gdiplus@@@8
_DATA	SEGMENT DWORD USE32 PUBLIC 'DATA'
_DATA	ENDS
;	COMDAT ??_GBrush@Gdiplus@@UAEPAXI@Z
_TEXT	SEGMENT PARA USE32 PUBLIC 'CODE'
_TEXT	ENDS
;	COMDAT ??3GdiplusBase@Gdiplus@@SAXPAX@Z
_TEXT	SEGMENT PARA USE32 PUBLIC 'CODE'
_TEXT	ENDS
;	COMDAT ?Clone@Brush@Gdiplus@@UBEPAV12@XZ
_TEXT	SEGMENT PARA USE32 PUBLIC 'CODE'
_TEXT	ENDS
;	COMDAT ?SetStatus@Brush@Gdiplus@@IBE?AW4Status@2@W432@@Z
_TEXT	SEGMENT PARA USE32 PUBLIC 'CODE'
_TEXT	ENDS
;	COMDAT ??2GdiplusBase@Gdiplus@@SAPAXI@Z
_TEXT	SEGMENT PARA USE32 PUBLIC 'CODE'
_TEXT	ENDS
;	COMDAT ??0Brush@Gdiplus@@IAE@PAVGpBrush@1@W4Status@1@@Z
_TEXT	SEGMENT PARA USE32 PUBLIC 'CODE'
_TEXT	ENDS
;	COMDAT ?SetNativeBrush@Brush@Gdiplus@@IAEXPAVGpBrush@2@@Z
_TEXT	SEGMENT PARA USE32 PUBLIC 'CODE'
_TEXT	ENDS
;	COMDAT ??0LinearGradientBrush@Gdiplus@@QAE@ABVRectF@1@ABVColor@1@1W4LinearGradientMode@1@@Z
_TEXT	SEGMENT PARA USE32 PUBLIC 'CODE'
_TEXT	ENDS
;	COMDAT ??0Brush@Gdiplus@@IAE@XZ
_TEXT	SEGMENT PARA USE32 PUBLIC 'CODE'
_TEXT	ENDS
;	COMDAT ??_7LinearGradientBrush@Gdiplus@@6B@
CONST	SEGMENT DWORD USE32 PUBLIC 'CONST'
CONST	ENDS
;	COMDAT ??_R4LinearGradientBrush@Gdiplus@@6B@
rdata$r	SEGMENT DWORD USE32 PUBLIC 'CONST'
rdata$r	ENDS
;	COMDAT ??_R0?AVLinearGradientBrush@Gdiplus@@@8
_DATA	SEGMENT DWORD USE32 PUBLIC 'DATA'
_DATA	ENDS
;	COMDAT ??_R3LinearGradientBrush@Gdiplus@@8
rdata$r	SEGMENT DWORD USE32 PUBLIC 'CONST'
rdata$r	ENDS
;	COMDAT ??_R2LinearGradientBrush@Gdiplus@@8
rdata$r	SEGMENT DWORD USE32 PUBLIC 'CONST'
rdata$r	ENDS
;	COMDAT ??_R1A@?0A@A@LinearGradientBrush@Gdiplus@@8
rdata$r	SEGMENT DWORD USE32 PUBLIC 'CONST'
rdata$r	ENDS
;	COMDAT ??_GLinearGradientBrush@Gdiplus@@UAEPAXI@Z
_TEXT	SEGMENT PARA USE32 PUBLIC 'CODE'
_TEXT	ENDS
;	COMDAT ?GetValue@Color@Gdiplus@@QBEKXZ
_TEXT	SEGMENT PARA USE32 PUBLIC 'CODE'
_TEXT	ENDS
;	COMDAT ??0PointF@Gdiplus@@QAE@ABV01@@Z
_TEXT	SEGMENT PARA USE32 PUBLIC 'CODE'
_TEXT	ENDS
;	COMDAT ??0PointF@Gdiplus@@QAE@MM@Z
_TEXT	SEGMENT PARA USE32 PUBLIC 'CODE'
_TEXT	ENDS
;	COMDAT ??0RectF@Gdiplus@@QAE@MMMM@Z
_TEXT	SEGMENT PARA USE32 PUBLIC 'CODE'
_TEXT	ENDS
;	COMDAT ?SetSmoothingMode@Graphics@Gdiplus@@QAE?AW4Status@2@W4SmoothingMode@2@@Z
_TEXT	SEGMENT PARA USE32 PUBLIC 'CODE'
_TEXT	ENDS
;	COMDAT ?MakeARGB@Color@Gdiplus@@SAKEEEE@Z
_TEXT	SEGMENT PARA USE32 PUBLIC 'CODE'
_TEXT	ENDS
;	COMDAT ?SetValue@Color@Gdiplus@@QAEXK@Z
_TEXT	SEGMENT PARA USE32 PUBLIC 'CODE'
_TEXT	ENDS
;	COMDAT ??0Color@Gdiplus@@QAE@XZ
_TEXT	SEGMENT PARA USE32 PUBLIC 'CODE'
_TEXT	ENDS
;	COMDAT ??_7CButtonDraw@@6B@
CONST	SEGMENT DWORD USE32 PUBLIC 'CONST'
CONST	ENDS
;	COMDAT ??0CTraceFileAndLineInfo@ATL@@QAE@PBDH@Z
_TEXT	SEGMENT PARA USE32 PUBLIC 'CODE'
_TEXT	ENDS
;	COMDAT ??RCTraceFileAndLineInfo@ATL@@QBAXPBDZZ
_TEXT	SEGMENT PARA USE32 PUBLIC 'CODE'
_TEXT	ENDS
;	COMDAT ??1Graphics@Gdiplus@@QAE@XZ
_TEXT	SEGMENT PARA USE32 PUBLIC 'CODE'
_TEXT	ENDS
;	COMDAT ??0Graphics@Gdiplus@@QAE@PAUHDC__@@@Z
_TEXT	SEGMENT PARA USE32 PUBLIC 'CODE'
_TEXT	ENDS
;	COMDAT ?SetNativeGraphics@Graphics@Gdiplus@@IAEXPAVGpGraphics@2@@Z
_TEXT	SEGMENT PARA USE32 PUBLIC 'CODE'
_TEXT	ENDS
;	COMDAT ?_messageEntries@CSkinButton@@0QBUAFX_MSGMAP_ENTRY@@B
CONST	SEGMENT DWORD USE32 PUBLIC 'CONST'
CONST	ENDS
;	COMDAT ?messageMap@CSkinButton@@1UAFX_MSGMAP@@B
CONST	SEGMENT DWORD USE32 PUBLIC 'CONST'
CONST	ENDS
;	COMDAT ??_C@_0BA@GOIMFHNK@pStringMgr?5?$CB?$DN?50?$AA@
CONST	SEGMENT DWORD USE32 PUBLIC 'CONST'
CONST	ENDS
;	COMDAT ?GetDefaultManager@?$StrTraitMFC_DLL@DV?$ChTraitsCRT@D@ATL@@@@SAPAUIAtlStringMgr@ATL@@XZ
_TEXT	SEGMENT PARA USE32 PUBLIC 'CODE'
_TEXT	ENDS
;	COMDAT ??_7CSkinButton@@6B@
CONST	SEGMENT DWORD USE32 PUBLIC 'CONST'
CONST	ENDS
;	COMDAT ?classCSkinButton@CSkinButton@@2UCRuntimeClass@@B
CONST	SEGMENT DWORD USE32 PUBLIC 'CONST'
CONST	ENDS
;	COMDAT ??_7DIBINFO@@6B@
CONST	SEGMENT DWORD USE32 PUBLIC 'CONST'
CONST	ENDS
;	COMDAT ?FindStringResourceInstance@?$StrTraitMFC_DLL@DV?$ChTraitsCRT@D@ATL@@@@SAPAUHINSTANCE__@@I@Z
_TEXT	SEGMENT PARA USE32 PUBLIC 'CODE'
_TEXT	ENDS
;	COMDAT ?AtlGetStringResourceImage@ATL@@YAPBUATLSTRINGRESOURCEIMAGE@1@PAUHINSTANCE__@@I@Z
_TEXT	SEGMENT PARA USE32 PUBLIC 'CODE'
_TEXT	ENDS
;	COMDAT ?_AtlGetStringResourceImage@ATL@@YAPBUATLSTRINGRESOURCEIMAGE@1@PAUHINSTANCE__@@PAUHRSRC__@@I@Z
_TEXT	SEGMENT PARA USE32 PUBLIC 'CODE'
_TEXT	ENDS
;	COMDAT ?GetBaseTypeLength@?$ChTraitsCRT@D@ATL@@SAHPB_WH@Z
_TEXT	SEGMENT PARA USE32 PUBLIC 'CODE'
_TEXT	ENDS
;	COMDAT ?_AtlGetConversionACP@ATL@@YGIXZ
_TEXT	SEGMENT PARA USE32 PUBLIC 'CODE'
_TEXT	ENDS
;	COMDAT ?g_pfnGetThreadACP@ATL@@3P6GIXZA
_DATA	SEGMENT DWORD USE32 PUBLIC 'DATA'
_DATA	ENDS
;	COMDAT ?_AtlGetThreadACPThunk@ATL@@YGIXZ
_TEXT	SEGMENT PARA USE32 PUBLIC 'CODE'
_TEXT	ENDS
;	COMDAT ?_AtlGetThreadACPReal@ATL@@YGIXZ
_TEXT	SEGMENT PARA USE32 PUBLIC 'CODE'
_TEXT	ENDS
;	COMDAT ?_AtlGetThreadACPFake@ATL@@YGIXZ
_TEXT	SEGMENT PARA USE32 PUBLIC 'CODE'
_TEXT	ENDS
;	COMDAT ?InterlockedExchangePointer@@YGPAXPAPAXPAX@Z
_TEXT	SEGMENT PARA USE32 PUBLIC 'CODE'
_TEXT	ENDS
;	COMDAT ?ConvertToBaseType@?$ChTraitsCRT@D@ATL@@SAXPADHPB_WH@Z
_TEXT	SEGMENT PARA USE32 PUBLIC 'CODE'
_TEXT	ENDS
;	COMDAT ??_C@_0FH@KDPNIMBO@D?3?2Program?5Files?5?$CIx86?$CJ?2Microsoft@
CONST	SEGMENT DWORD USE32 PUBLIC 'CONST'
CONST	ENDS
;	COMDAT ??_C@_0CJ@FJEKGMMD@Warning?3?5implicit?5LoadString?$CI?$CFu?$CJ@
CONST	SEGMENT DWORD USE32 PUBLIC 'CONST'
CONST	ENDS
;	COMDAT ?IsLocked@CStringData@ATL@@QBE_NXZ
_TEXT	SEGMENT PARA USE32 PUBLIC 'CODE'
_TEXT	ENDS
;	COMDAT ?AddRef@CStringData@ATL@@QAEXXZ
_TEXT	SEGMENT PARA USE32 PUBLIC 'CODE'
_TEXT	ENDS
;	COMDAT ??_C@_09EEBKLCFA@nRefs?5?$DO?50?$AA@
CONST	SEGMENT DWORD USE32 PUBLIC 'CONST'
CONST	ENDS
;	COMDAT ?GetLastStatus@Image@Gdiplus@@QBE?AW4Status@2@XZ
_TEXT	SEGMENT PARA USE32 PUBLIC 'CODE'
_TEXT	ENDS
;	COMDAT ?FromFile@Bitmap@Gdiplus@@SAPAV12@PB_WH@Z
_TEXT	SEGMENT PARA USE32 PUBLIC 'CODE'
_TEXT	ENDS
;	COMDAT ??0Bitmap@Gdiplus@@QAE@PB_WH@Z
_TEXT	SEGMENT PARA USE32 PUBLIC 'CODE'
_TEXT	ENDS
;	COMDAT ??0Image@Gdiplus@@IAE@XZ
_TEXT	SEGMENT PARA USE32 PUBLIC 'CODE'
_TEXT	ENDS
;	COMDAT ??_7Image@Gdiplus@@6B@
CONST	SEGMENT DWORD USE32 PUBLIC 'CONST'
CONST	ENDS
;	COMDAT ??_R4Image@Gdiplus@@6B@
rdata$r	SEGMENT DWORD USE32 PUBLIC 'CONST'
rdata$r	ENDS
;	COMDAT ??_R0?AVImage@Gdiplus@@@8
_DATA	SEGMENT DWORD USE32 PUBLIC 'DATA'
_DATA	ENDS
;	COMDAT ??_R3Image@Gdiplus@@8
rdata$r	SEGMENT DWORD USE32 PUBLIC 'CONST'
rdata$r	ENDS
;	COMDAT ??_R2Image@Gdiplus@@8
rdata$r	SEGMENT DWORD USE32 PUBLIC 'CONST'
rdata$r	ENDS
;	COMDAT ??_R1A@?0A@A@Image@Gdiplus@@8
rdata$r	SEGMENT DWORD USE32 PUBLIC 'CONST'
rdata$r	ENDS
;	COMDAT ??_GImage@Gdiplus@@UAEPAXI@Z
_TEXT	SEGMENT PARA USE32 PUBLIC 'CODE'
_TEXT	ENDS
;	COMDAT ?Clone@Image@Gdiplus@@UAEPAV12@XZ
_TEXT	SEGMENT PARA USE32 PUBLIC 'CODE'
_TEXT	ENDS
;	COMDAT ??0Image@Gdiplus@@IAE@PAVGpImage@1@W4Status@1@@Z
_TEXT	SEGMENT PARA USE32 PUBLIC 'CODE'
_TEXT	ENDS
;	COMDAT ??1Image@Gdiplus@@UAE@XZ
_TEXT	SEGMENT PARA USE32 PUBLIC 'CODE'
_TEXT	ENDS
;	COMDAT ??_7Bitmap@Gdiplus@@6B@
CONST	SEGMENT DWORD USE32 PUBLIC 'CONST'
CONST	ENDS
;	COMDAT ??_R4Bitmap@Gdiplus@@6B@
rdata$r	SEGMENT DWORD USE32 PUBLIC 'CONST'
rdata$r	ENDS
;	COMDAT ??_R0?AVBitmap@Gdiplus@@@8
_DATA	SEGMENT DWORD USE32 PUBLIC 'DATA'
_DATA	ENDS
;	COMDAT ??_R3Bitmap@Gdiplus@@8
rdata$r	SEGMENT DWORD USE32 PUBLIC 'CONST'
rdata$r	ENDS
;	COMDAT ??_R2Bitmap@Gdiplus@@8
rdata$r	SEGMENT DWORD USE32 PUBLIC 'CONST'
rdata$r	ENDS
;	COMDAT ??_R1A@?0A@A@Bitmap@Gdiplus@@8
rdata$r	SEGMENT DWORD USE32 PUBLIC 'CONST'
rdata$r	ENDS
;	COMDAT ??_GBitmap@Gdiplus@@UAEPAXI@Z
_TEXT	SEGMENT PARA USE32 PUBLIC 'CODE'
_TEXT	ENDS
;	COMDAT ??1Bitmap@Gdiplus@@UAE@XZ
_TEXT	SEGMENT PARA USE32 PUBLIC 'CODE'
_TEXT	ENDS
;	COMDAT ?SetNativeImage@Image@Gdiplus@@IAEXPAVGpImage@2@@Z
_TEXT	SEGMENT PARA USE32 PUBLIC 'CODE'
_TEXT	ENDS
;	COMDAT ??_7CGdiPlusBitmap@CSkinButton@@6B@
CONST	SEGMENT DWORD USE32 PUBLIC 'CONST'
CONST	ENDS
sxdata	SEGMENT DWORD USE32 'SXDATA'
sxdata	ENDS
FLAT	GROUP _DATA, CONST, _BSS
	ASSUME	CS: FLAT, DS: FLAT, SS: FLAT
endif

INCLUDELIB MSVCRTD
INCLUDELIB OLDNAMES

PUBLIC	?g_pfnGetThreadACP@ATL@@3P6GIXZA		; ATL::g_pfnGetThreadACP
PUBLIC	?_AtlGetThreadACPThunk@ATL@@YGIXZ		; ATL::_AtlGetThreadACPThunk
PUBLIC	?classCSkinButton@CSkinButton@@2UCRuntimeClass@@B ; CSkinButton::classCSkinButton
PUBLIC	?OnMouseMove@CSkinButton@@QAEXIVCPoint@@@Z	; CSkinButton::OnMouseMove
PUBLIC	?OnLButtonDown@CSkinButton@@QAEXIVCPoint@@@Z	; CSkinButton::OnLButtonDown
PUBLIC	?OnLButtonUp@CSkinButton@@QAEXIVCPoint@@@Z	; CSkinButton::OnLButtonUp
PUBLIC	?OnEraseBkgnd@CSkinButton@@QAEHPAVCDC@@@Z	; CSkinButton::OnEraseBkgnd
PUBLIC	?OnMouseLeave@CSkinButton@@IAEJIJ@Z		; CSkinButton::OnMouseLeave
PUBLIC	?OnMouseHover@CSkinButton@@IAEJIJ@Z		; CSkinButton::OnMouseHover
PUBLIC	?_messageEntries@CSkinButton@@0QBUAFX_MSGMAP_ENTRY@@B ; CSkinButton::_messageEntries
PUBLIC	?messageMap@CSkinButton@@1UAFX_MSGMAP@@B	; CSkinButton::messageMap
PUBLIC	?OnDestroy@CSkinButton@@AAEXXZ			; CSkinButton::OnDestroy
EXTRN	?GetThisMessageMap@CWnd@@KGPBUAFX_MSGMAP@@XZ:NEAR ; CWnd::GetThisMessageMap
EXTRN	?GetThisClass@CButton@@SGPAUCRuntimeClass@@XZ:NEAR ; CButton::GetThisClass
CONST	SEGMENT
$SG187671 DB	'CSkinButton', 00H
CONST	ENDS
;	COMDAT ?classCSkinButton@CSkinButton@@2UCRuntimeClass@@B
CONST	SEGMENT
?classCSkinButton@CSkinButton@@2UCRuntimeClass@@B DD FLAT:$SG187671 ; CSkinButton::classCSkinButton
	DD	0130H
	DD	0ffffH
	DD	00H
	DD	FLAT:?GetThisClass@CButton@@SGPAUCRuntimeClass@@XZ
	DD	00H
	DD	00H
CONST	ENDS
CONST	SEGMENT
$SG187683 DB	00H
CONST	ENDS
;	COMDAT ?_messageEntries@CSkinButton@@0QBUAFX_MSGMAP_ENTRY@@B
CONST	SEGMENT
?_messageEntries@CSkinButton@@0QBUAFX_MSGMAP_ENTRY@@B DD 0200H ; CSkinButton::_messageEntries
	DD	00H
	DD	00H
	DD	00H
	DD	032H
	DD	FLAT:?OnMouseMove@CSkinButton@@QAEXIVCPoint@@@Z
	DD	0201H
	DD	00H
	DD	00H
	DD	00H
	DD	032H
	DD	FLAT:?OnLButtonDown@CSkinButton@@QAEXIVCPoint@@@Z
	DD	0202H
	DD	00H
	DD	00H
	DD	00H
	DD	032H
	DD	FLAT:?OnLButtonUp@CSkinButton@@QAEXIVCPoint@@@Z
	DD	014H
	DD	00H
	DD	00H
	DD	00H
	DD	01H
	DD	FLAT:?OnEraseBkgnd@CSkinButton@@QAEHPAVCDC@@@Z
	DD	02H
	DD	00H
	DD	00H
	DD	00H
	DD	010H
	DD	FLAT:?OnDestroy@CSkinButton@@AAEXXZ
	DD	02a3H
	DD	00H
	DD	00H
	DD	00H
	DD	0eH
	DD	FLAT:?OnMouseLeave@CSkinButton@@IAEJIJ@Z
	DD	02a1H
	DD	00H
	DD	00H
	DD	00H
	DD	0eH
	DD	FLAT:?OnMouseHover@CSkinButton@@IAEJIJ@Z
	DD	00H
	DD	00H
	DD	00H
	DD	00H
	DD	00H
	DD	00H
CONST	ENDS
;	COMDAT ?messageMap@CSkinButton@@1UAFX_MSGMAP@@B
CONST	SEGMENT
?messageMap@CSkinButton@@1UAFX_MSGMAP@@B DD FLAT:?GetThisMessageMap@CWnd@@KGPBUAFX_MSGMAP@@XZ ; CSkinButton::messageMap
	DD	FLAT:?_messageEntries@CSkinButton@@0QBUAFX_MSGMAP_ENTRY@@B
CONST	ENDS
CONST	SEGMENT
	ORG $+3
$SG187738 DB	'.\src\LayoutMgr\ChangeColor\SkinBotton.cpp', 00H
	ORG $+1
$SG187749 DB	'.\src\LayoutMgr\ChangeColor\SkinBotton.cpp', 00H
	ORG $+1
$SG187750 DB	'OnBtn', 0aH, 00H
	ORG $+1
$SG187757 DB	'.\src\LayoutMgr\ChangeColor\SkinBotton.cpp', 00H
	ORG $+1
$SG187758 DB	'LeaveBtn', 0aH, 00H
	ORG $+2
$SG187781 DB	'.\src\LayoutMgr\ChangeColor\SkinBotton.cpp', 00H
	ORG $+1
$SG187782 DB	'MouseMove', 0aH, 00H
	ORG $+1
$SG188127 DB	'.\src\LayoutMgr\ChangeColor\SkinBotton.cpp', 00H
	ORG $+1
$SG188128 DB	'.\src\LayoutMgr\ChangeColor\SkinBotton.cpp', 00H
CONST	ENDS
;	COMDAT ?g_pfnGetThreadACP@ATL@@3P6GIXZA
_DATA	SEGMENT
?g_pfnGetThreadACP@ATL@@3P6GIXZA DD FLAT:?_AtlGetThreadACPThunk@ATL@@YGIXZ ; ATL::g_pfnGetThreadACP
_DATA	ENDS
PUBLIC	?GetThisClass@CSkinButton@@SGPAUCRuntimeClass@@XZ ; CSkinButton::GetThisClass
EXTRN	__RTC_InitBase:NEAR
EXTRN	__RTC_Shutdown:NEAR
;	COMDAT rtc$IMZ
; File d:\boxgit\playbox\playbox\dev\prj\playbox\src\layoutmgr\changecolor\skinbotton.cpp
rtc$IMZ	SEGMENT
__RTC_InitBase.rtc$IMZ DD FLAT:__RTC_InitBase
rtc$IMZ	ENDS
;	COMDAT rtc$TMZ
rtc$TMZ	SEGMENT
__RTC_Shutdown.rtc$TMZ DD FLAT:__RTC_Shutdown
; Function compile flags: /Odt /RTCsu
rtc$TMZ	ENDS
_TEXT	SEGMENT
?GetThisClass@CSkinButton@@SGPAUCRuntimeClass@@XZ PROC NEAR ; CSkinButton::GetThisClass

; 18   : IMPLEMENT_DYNAMIC(CSkinButton, CButton)

  00000	55		 push	 ebp
  00001	8b ec		 mov	 ebp, esp
  00003	b8 00 00 00 00	 mov	 eax, OFFSET FLAT:?classCSkinButton@CSkinButton@@2UCRuntimeClass@@B ; CSkinButton::classCSkinButton
  00008	5d		 pop	 ebp
  00009	c3		 ret	 0
?GetThisClass@CSkinButton@@SGPAUCRuntimeClass@@XZ ENDP	; CSkinButton::GetThisClass
_TEXT	ENDS
PUBLIC	?GetRuntimeClass@CSkinButton@@UBEPAUCRuntimeClass@@XZ ; CSkinButton::GetRuntimeClass
; Function compile flags: /Odt /RTCsu
_TEXT	SEGMENT
_this$ = -4						; size = 4
?GetRuntimeClass@CSkinButton@@UBEPAUCRuntimeClass@@XZ PROC NEAR ; CSkinButton::GetRuntimeClass
; _this$ = ecx

; 18   : IMPLEMENT_DYNAMIC(CSkinButton, CButton)

  00010	55		 push	 ebp
  00011	8b ec		 mov	 ebp, esp
  00013	51		 push	 ecx
  00014	c7 45 fc cc cc
	cc cc		 mov	 DWORD PTR [ebp-4], -858993460 ; ccccccccH
  0001b	89 4d fc	 mov	 DWORD PTR _this$[ebp], ecx
  0001e	b8 00 00 00 00	 mov	 eax, OFFSET FLAT:?classCSkinButton@CSkinButton@@2UCRuntimeClass@@B ; CSkinButton::classCSkinButton
  00023	8b e5		 mov	 esp, ebp
  00025	5d		 pop	 ebp
  00026	c3		 ret	 0
?GetRuntimeClass@CSkinButton@@UBEPAUCRuntimeClass@@XZ ENDP ; CSkinButton::GetRuntimeClass
_TEXT	ENDS
PUBLIC	??_R1A@?0A@A@CWnd@@8				; CWnd::`RTTI Base Class Descriptor at (0,-1,0,0)'
PUBLIC	??_R0?AVCWnd@@@8				; CWnd `RTTI Type Descriptor'
PUBLIC	??_R1A@?0A@A@CCmdTarget@@8			; CCmdTarget::`RTTI Base Class Descriptor at (0,-1,0,0)'
PUBLIC	??_R0?AVCCmdTarget@@@8				; CCmdTarget `RTTI Type Descriptor'
PUBLIC	??_R1A@?0A@A@CObject@@8				; CObject::`RTTI Base Class Descriptor at (0,-1,0,0)'
PUBLIC	??_R0?AVCObject@@@8				; CObject `RTTI Type Descriptor'
PUBLIC	??0CButtonDraw@@QAE@XZ				; CButtonDraw::CButtonDraw
PUBLIC	??1CButtonDraw@@UAE@XZ				; CButtonDraw::~CButtonDraw
PUBLIC	??0CSkinButton@@QAE@XZ				; CSkinButton::CSkinButton
PUBLIC	?SetPngHoverSkin@CSkinButton@@UAEHV?$CStringT@DV?$StrTraitMFC_DLL@DV?$ChTraitsCRT@D@ATL@@@@@ATL@@@Z ; CSkinButton::SetPngHoverSkin
PUBLIC	?SetPngFrame@CSkinButton@@UAEHV?$CStringT@DV?$StrTraitMFC_DLL@DV?$ChTraitsCRT@D@ATL@@@@@ATL@@@Z ; CSkinButton::SetPngFrame
PUBLIC	?IsClickPng@CSkinButton@@UAEHXZ			; CSkinButton::IsClickPng
PUBLIC	?SetClickPng@CSkinButton@@UAEXH@Z		; CSkinButton::SetClickPng
PUBLIC	?DrawItem@CSkinButton@@MAEXPAUtagDRAWITEMSTRUCT@@@Z ; CSkinButton::DrawItem
PUBLIC	?GetMessageMap@CSkinButton@@MBEPBUAFX_MSGMAP@@XZ ; CSkinButton::GetMessageMap
PUBLIC	??_7CSkinButton@@6B@				; CSkinButton::`vftable'
PUBLIC	??_GCSkinButton@@UAEPAXI@Z			; CSkinButton::`scalar deleting destructor'
PUBLIC	??_R4CSkinButton@@6B@				; CSkinButton::`RTTI Complete Object Locator'
PUBLIC	??_R0?AVCSkinButton@@@8				; CSkinButton `RTTI Type Descriptor'
PUBLIC	??_R3CSkinButton@@8				; CSkinButton::`RTTI Class Hierarchy Descriptor'
PUBLIC	??_R2CSkinButton@@8				; CSkinButton::`RTTI Base Class Array'
PUBLIC	??_R1A@?0A@A@CSkinButton@@8			; CSkinButton::`RTTI Base Class Descriptor at (0,-1,0,0)'
PUBLIC	??_R1A@?0A@A@CButton@@8				; CButton::`RTTI Base Class Descriptor at (0,-1,0,0)'
PUBLIC	??_R0?AVCButton@@@8				; CButton `RTTI Type Descriptor'
EXTRN	?GetInterfaceMap@CWnd@@MBEPBUAFX_INTERFACEMAP@@XZ:NEAR ; CWnd::GetInterfaceMap
EXTRN	?EnsureStdObj@CWnd@@UAEJXZ:NEAR			; CWnd::EnsureStdObj
EXTRN	?get_accParent@CWnd@@UAEJPAPAUIDispatch@@@Z:NEAR ; CWnd::get_accParent
EXTRN	?OnCmdMsg@CCmdTarget@@UAEHIHPAXPAUAFX_CMDHANDLERINFO@@@Z:NEAR ; CCmdTarget::OnCmdMsg
EXTRN	?get_accChildCount@CWnd@@UAEJPAJ@Z:NEAR		; CWnd::get_accChildCount
EXTRN	?IsInvokeAllowed@CCmdTarget@@UAEHJ@Z:NEAR	; CCmdTarget::IsInvokeAllowed
EXTRN	?get_accChild@CWnd@@UAEJUtagVARIANT@@PAPAUIDispatch@@@Z:NEAR ; CWnd::get_accChild
EXTRN	?get_accName@CWnd@@UAEJUtagVARIANT@@PAPA_W@Z:NEAR ; CWnd::get_accName
EXTRN	?get_accValue@CWnd@@UAEJUtagVARIANT@@PAPA_W@Z:NEAR ; CWnd::get_accValue
EXTRN	?GetDispatchIID@CCmdTarget@@UAEHPAU_GUID@@@Z:NEAR ; CCmdTarget::GetDispatchIID
EXTRN	?GetTypeInfoCount@CCmdTarget@@UAEIXZ:NEAR	; CCmdTarget::GetTypeInfoCount
EXTRN	?GetTypeLibCache@CCmdTarget@@UAEPAVCTypeLibCache@@XZ:NEAR ; CCmdTarget::GetTypeLibCache
EXTRN	?get_accDescription@CWnd@@UAEJUtagVARIANT@@PAPA_W@Z:NEAR ; CWnd::get_accDescription
EXTRN	?GetTypeLib@CCmdTarget@@UAEJKPAPAUITypeLib@@@Z:NEAR ; CCmdTarget::GetTypeLib
EXTRN	?get_accRole@CWnd@@UAEJUtagVARIANT@@PAU2@@Z:NEAR ; CWnd::get_accRole
EXTRN	?get_accState@CWnd@@UAEJUtagVARIANT@@PAU2@@Z:NEAR ; CWnd::get_accState
EXTRN	?get_accHelp@CWnd@@UAEJUtagVARIANT@@PAPA_W@Z:NEAR ; CWnd::get_accHelp
EXTRN	?get_accHelpTopic@CWnd@@UAEJPAPA_WUtagVARIANT@@PAJ@Z:NEAR ; CWnd::get_accHelpTopic
EXTRN	?get_accKeyboardShortcut@CWnd@@UAEJUtagVARIANT@@PAPA_W@Z:NEAR ; CWnd::get_accKeyboardShortcut
EXTRN	?get_accFocus@CWnd@@UAEJPAUtagVARIANT@@@Z:NEAR	; CWnd::get_accFocus
EXTRN	?get_accSelection@CWnd@@UAEJPAUtagVARIANT@@@Z:NEAR ; CWnd::get_accSelection
EXTRN	?get_accDefaultAction@CWnd@@UAEJUtagVARIANT@@PAPA_W@Z:NEAR ; CWnd::get_accDefaultAction
EXTRN	?GetCommandMap@CCmdTarget@@MBEPBUAFX_OLECMDMAP@@XZ:NEAR ; CCmdTarget::GetCommandMap
EXTRN	?accSelect@CWnd@@UAEJJUtagVARIANT@@@Z:NEAR	; CWnd::accSelect
EXTRN	?accLocation@CWnd@@UAEJPAJ000UtagVARIANT@@@Z:NEAR ; CWnd::accLocation
EXTRN	?GetDispatchMap@CCmdTarget@@MBEPBUAFX_DISPMAP@@XZ:NEAR ; CCmdTarget::GetDispatchMap
EXTRN	?accNavigate@CWnd@@UAEJJUtagVARIANT@@PAU2@@Z:NEAR ; CWnd::accNavigate
EXTRN	?accHitTest@CWnd@@UAEJJJPAUtagVARIANT@@@Z:NEAR	; CWnd::accHitTest
EXTRN	?GetConnectionMap@CCmdTarget@@MBEPBUAFX_CONNECTIONMAP@@XZ:NEAR ; CCmdTarget::GetConnectionMap
EXTRN	?accDoDefaultAction@CWnd@@UAEJUtagVARIANT@@@Z:NEAR ; CWnd::accDoDefaultAction
EXTRN	?put_accName@CWnd@@UAEJUtagVARIANT@@PA_W@Z:NEAR	; CWnd::put_accName
EXTRN	?put_accValue@CWnd@@UAEJUtagVARIANT@@PA_W@Z:NEAR ; CWnd::put_accValue
EXTRN	?SetProxy@CWnd@@UAEJPAUIAccessibleProxy@@@Z:NEAR ; CWnd::SetProxy
EXTRN	?CreateAccessibleProxy@CWnd@@UAEJIJPAJ@Z:NEAR	; CWnd::CreateAccessibleProxy
EXTRN	?GetEventSinkMap@CCmdTarget@@MBEPBUAFX_EVENTSINKMAP@@XZ:NEAR ; CCmdTarget::GetEventSinkMap
EXTRN	?OnCreateAggregates@CCmdTarget@@UAEHXZ:NEAR	; CCmdTarget::OnCreateAggregates
EXTRN	?OnCommand@CWnd@@MAEHIJ@Z:NEAR			; CWnd::OnCommand
EXTRN	?GetInterfaceHook@CCmdTarget@@UAEPAUIUnknown@@PBX@Z:NEAR ; CCmdTarget::GetInterfaceHook
EXTRN	?OnNotify@CWnd@@MAEHIJPAJ@Z:NEAR		; CWnd::OnNotify
EXTRN	?GetExtraConnectionPoints@CCmdTarget@@MAEHPAVCPtrArray@@@Z:NEAR ; CCmdTarget::GetExtraConnectionPoints
EXTRN	?GetConnectionHook@CCmdTarget@@MAEPAUIConnectionPoint@@ABU_GUID@@@Z:NEAR ; CCmdTarget::GetConnectionHook
EXTRN	__RTC_CheckEsp:NEAR
EXTRN	__except_list:DWORD
EXTRN	___CxxFrameHandler:NEAR
EXTRN	?PreSubclassWindow@CWnd@@UAEXXZ:NEAR		; CWnd::PreSubclassWindow
EXTRN	__imp_??0?$basic_string@DU?$char_traits@D@std@@V?$allocator@D@2@@std@@QAE@XZ:NEAR
EXTRN	?Create@CWnd@@UAEHPBD0KABUtagRECT@@PAV1@IPAUCCreateContext@@@Z:NEAR ; CWnd::Create
EXTRN	?CreateEx@CWnd@@UAEHKPBD0KHHHHPAUHWND__@@PAUHMENU__@@PAX@Z:NEAR ; CWnd::CreateEx
EXTRN	?CreateEx@CWnd@@UAEHKPBD0KABUtagRECT@@PAV1@IPAX@Z:NEAR ; CWnd::CreateEx
EXTRN	__imp_??1?$basic_string@DU?$char_traits@D@std@@V?$allocator@D@2@@std@@QAE@XZ:NEAR
EXTRN	?Serialize@CObject@@UAEXAAVCArchive@@@Z:NEAR	; CObject::Serialize
EXTRN	?DestroyWindow@CWnd@@UAEHXZ:NEAR		; CWnd::DestroyWindow
EXTRN	?PreCreateWindow@CWnd@@UAEHAAUtagCREATESTRUCTA@@@Z:NEAR ; CWnd::PreCreateWindow
EXTRN	__imp_??4?$basic_string@DU?$char_traits@D@std@@V?$allocator@D@2@@std@@QAEAAV01@PBD@Z:NEAR
EXTRN	?CalcWindowRect@CWnd@@UAEXPAUtagRECT@@I@Z:NEAR	; CWnd::CalcWindowRect
EXTRN	?GetSuperWndProcAddr@CWnd@@MAEPAP6GJPAUHWND__@@IIJ@ZXZ:NEAR ; CWnd::GetSuperWndProcAddr
EXTRN	?DoDataExchange@CWnd@@MAEXPAVCDataExchange@@@Z:NEAR ; CWnd::DoDataExchange
EXTRN	?BeginModalState@CWnd@@UAEXXZ:NEAR		; CWnd::BeginModalState
EXTRN	?EndModalState@CWnd@@UAEXXZ:NEAR		; CWnd::EndModalState
EXTRN	?PreTranslateMessage@CWnd@@UAEHPAUtagMSG@@@Z:NEAR ; CWnd::PreTranslateMessage
EXTRN	?OnAmbientProperty@CWnd@@UAEHPAVCOleControlSite@@JPAUtagVARIANT@@@Z:NEAR ; CWnd::OnAmbientProperty
EXTRN	?WindowProc@CWnd@@MAEJIIJ@Z:NEAR		; CWnd::WindowProc
EXTRN	?OnWndMsg@CWnd@@MAEHIIJPAJ@Z:NEAR		; CWnd::OnWndMsg
EXTRN	?DefWindowProcA@CWnd@@MAEJIIJ@Z:NEAR		; CWnd::DefWindowProcA
EXTRN	?PostNcDestroy@CWnd@@MAEXXZ:NEAR		; CWnd::PostNcDestroy
EXTRN	?CheckAutoCenter@CWnd@@UAEHXZ:NEAR		; CWnd::CheckAutoCenter
EXTRN	?AssertValid@CWnd@@UBEXXZ:NEAR			; CWnd::AssertValid
EXTRN	?Dump@CWnd@@UBEXAAVCDumpContext@@@Z:NEAR	; CWnd::Dump
EXTRN	?IsFrameWnd@CWnd@@UBEHXZ:NEAR			; CWnd::IsFrameWnd
EXTRN	?OnFinalRelease@CWnd@@UAEXXZ:NEAR		; CWnd::OnFinalRelease
EXTRN	??0CToolTipCtrl@@QAE@XZ:NEAR			; CToolTipCtrl::CToolTipCtrl
EXTRN	?CreateControlContainer@CWnd@@MAEHPAPAVCOleControlContainer@@@Z:NEAR ; CWnd::CreateControlContainer
EXTRN	?CreateControlSite@CWnd@@MAEHPAVCOleControlContainer@@PAPAVCOleControlSite@@IABU_GUID@@@Z:NEAR ; CWnd::CreateControlSite
EXTRN	?SetOccDialogInfo@CWnd@@MAEHPAU_AFX_OCC_DIALOG_INFO@@@Z:NEAR ; CWnd::SetOccDialogInfo
EXTRN	??1CToolTipCtrl@@UAE@XZ:NEAR			; CToolTipCtrl::~CToolTipCtrl
EXTRN	__imp_??0?$CStringT@DV?$StrTraitMFC_DLL@DV?$ChTraitsCRT@D@ATL@@@@@ATL@@QAE@XZ:NEAR
EXTRN	?OnToolHitTest@CWnd@@UBEHVCPoint@@PAUtagTOOLINFOA@@@Z:NEAR ; CWnd::OnToolHitTest
EXTRN	__imp_??1?$CStringT@DV?$StrTraitMFC_DLL@DV?$ChTraitsCRT@D@ATL@@@@@ATL@@QAE@XZ:NEAR
EXTRN	??_ECSkinButton@@UAEPAXI@Z:NEAR			; CSkinButton::`vector deleting destructor'
EXTRN	?GetScrollBarCtrl@CWnd@@UBEPAVCScrollBar@@H@Z:NEAR ; CWnd::GetScrollBarCtrl
EXTRN	??0CButton@@QAE@XZ:NEAR				; CButton::CButton
EXTRN	?Create@CButton@@UAEHPBDKABUtagRECT@@PAVCWnd@@I@Z:NEAR ; CButton::Create
EXTRN	??1CButton@@UAE@XZ:NEAR				; CButton::~CButton
EXTRN	?OnChildNotify@CButton@@MAEHIIJPAJ@Z:NEAR	; CButton::OnChildNotify
EXTRN	?WinHelpA@CWnd@@UAEXKI@Z:NEAR			; CWnd::WinHelpA
EXTRN	?HtmlHelpA@CWnd@@UAEXKI@Z:NEAR			; CWnd::HtmlHelpA
EXTRN	??_7type_info@@6B@:QWORD			; type_info::`vftable'
EXTRN	?WinHelpInternal@CWnd@@UAEXKI@Z:NEAR		; CWnd::WinHelpInternal
EXTRN	?ContinueModal@CWnd@@UAEHXZ:NEAR		; CWnd::ContinueModal
EXTRN	?EndModalLoop@CWnd@@UAEXH@Z:NEAR		; CWnd::EndModalLoop
xdata$x	SEGMENT
$T188848 DD	0ffffffffH
	DD	FLAT:$L188835
	DD	00H
	DD	FLAT:$L188836
	DD	01H
	DD	FLAT:$L188837
	DD	02H
	DD	FLAT:$L188838
	DD	03H
	DD	FLAT:$L188839
	DD	04H
	DD	FLAT:$L188840
$T188844 DD	019930520H
	DD	06H
	DD	FLAT:$T188848
	DD	2 DUP(00H)
	DD	2 DUP(00H)
xdata$x	ENDS
;	COMDAT ??_7CSkinButton@@6B@
CONST	SEGMENT
??_7CSkinButton@@6B@ DD FLAT:??_R4CSkinButton@@6B@	; CSkinButton::`vftable'
	DD	FLAT:?GetRuntimeClass@CSkinButton@@UBEPAUCRuntimeClass@@XZ
	DD	FLAT:??_ECSkinButton@@UAEPAXI@Z
	DD	FLAT:?Serialize@CObject@@UAEXAAVCArchive@@@Z
	DD	FLAT:?AssertValid@CWnd@@UBEXXZ
	DD	FLAT:?Dump@CWnd@@UBEXAAVCDumpContext@@@Z
	DD	FLAT:?OnCmdMsg@CCmdTarget@@UAEHIHPAXPAUAFX_CMDHANDLERINFO@@@Z
	DD	FLAT:?OnFinalRelease@CWnd@@UAEXXZ
	DD	FLAT:?IsInvokeAllowed@CCmdTarget@@UAEHJ@Z
	DD	FLAT:?GetDispatchIID@CCmdTarget@@UAEHPAU_GUID@@@Z
	DD	FLAT:?GetTypeInfoCount@CCmdTarget@@UAEIXZ
	DD	FLAT:?GetTypeLibCache@CCmdTarget@@UAEPAVCTypeLibCache@@XZ
	DD	FLAT:?GetTypeLib@CCmdTarget@@UAEJKPAPAUITypeLib@@@Z
	DD	FLAT:?GetMessageMap@CSkinButton@@MBEPBUAFX_MSGMAP@@XZ
	DD	FLAT:?GetCommandMap@CCmdTarget@@MBEPBUAFX_OLECMDMAP@@XZ
	DD	FLAT:?GetDispatchMap@CCmdTarget@@MBEPBUAFX_DISPMAP@@XZ
	DD	FLAT:?GetConnectionMap@CCmdTarget@@MBEPBUAFX_CONNECTIONMAP@@XZ
	DD	FLAT:?GetInterfaceMap@CWnd@@MBEPBUAFX_INTERFACEMAP@@XZ
	DD	FLAT:?GetEventSinkMap@CCmdTarget@@MBEPBUAFX_EVENTSINKMAP@@XZ
	DD	FLAT:?OnCreateAggregates@CCmdTarget@@UAEHXZ
	DD	FLAT:?GetInterfaceHook@CCmdTarget@@UAEPAUIUnknown@@PBX@Z
	DD	FLAT:?GetExtraConnectionPoints@CCmdTarget@@MAEHPAVCPtrArray@@@Z
	DD	FLAT:?GetConnectionHook@CCmdTarget@@MAEPAUIConnectionPoint@@ABU_GUID@@@Z
	DD	FLAT:?PreSubclassWindow@CWnd@@UAEXXZ
	DD	FLAT:?Create@CWnd@@UAEHPBD0KABUtagRECT@@PAV1@IPAUCCreateContext@@@Z
	DD	FLAT:?CreateEx@CWnd@@UAEHKPBD0KABUtagRECT@@PAV1@IPAX@Z
	DD	FLAT:?CreateEx@CWnd@@UAEHKPBD0KHHHHPAUHWND__@@PAUHMENU__@@PAX@Z
	DD	FLAT:?DestroyWindow@CWnd@@UAEHXZ
	DD	FLAT:?PreCreateWindow@CWnd@@UAEHAAUtagCREATESTRUCTA@@@Z
	DD	FLAT:?CalcWindowRect@CWnd@@UAEXPAUtagRECT@@I@Z
	DD	FLAT:?OnToolHitTest@CWnd@@UBEHVCPoint@@PAUtagTOOLINFOA@@@Z
	DD	FLAT:?GetScrollBarCtrl@CWnd@@UBEPAVCScrollBar@@H@Z
	DD	FLAT:?WinHelpA@CWnd@@UAEXKI@Z
	DD	FLAT:?HtmlHelpA@CWnd@@UAEXKI@Z
	DD	FLAT:?WinHelpInternal@CWnd@@UAEXKI@Z
	DD	FLAT:?ContinueModal@CWnd@@UAEHXZ
	DD	FLAT:?EndModalLoop@CWnd@@UAEXH@Z
	DD	FLAT:?EnsureStdObj@CWnd@@UAEJXZ
	DD	FLAT:?get_accParent@CWnd@@UAEJPAPAUIDispatch@@@Z
	DD	FLAT:?get_accChildCount@CWnd@@UAEJPAJ@Z
	DD	FLAT:?get_accChild@CWnd@@UAEJUtagVARIANT@@PAPAUIDispatch@@@Z
	DD	FLAT:?get_accName@CWnd@@UAEJUtagVARIANT@@PAPA_W@Z
	DD	FLAT:?get_accValue@CWnd@@UAEJUtagVARIANT@@PAPA_W@Z
	DD	FLAT:?get_accDescription@CWnd@@UAEJUtagVARIANT@@PAPA_W@Z
	DD	FLAT:?get_accRole@CWnd@@UAEJUtagVARIANT@@PAU2@@Z
	DD	FLAT:?get_accState@CWnd@@UAEJUtagVARIANT@@PAU2@@Z
	DD	FLAT:?get_accHelp@CWnd@@UAEJUtagVARIANT@@PAPA_W@Z
	DD	FLAT:?get_accHelpTopic@CWnd@@UAEJPAPA_WUtagVARIANT@@PAJ@Z
	DD	FLAT:?get_accKeyboardShortcut@CWnd@@UAEJUtagVARIANT@@PAPA_W@Z
	DD	FLAT:?get_accFocus@CWnd@@UAEJPAUtagVARIANT@@@Z
	DD	FLAT:?get_accSelection@CWnd@@UAEJPAUtagVARIANT@@@Z
	DD	FLAT:?get_accDefaultAction@CWnd@@UAEJUtagVARIANT@@PAPA_W@Z
	DD	FLAT:?accSelect@CWnd@@UAEJJUtagVARIANT@@@Z
	DD	FLAT:?accLocation@CWnd@@UAEJPAJ000UtagVARIANT@@@Z
	DD	FLAT:?accNavigate@CWnd@@UAEJJUtagVARIANT@@PAU2@@Z
	DD	FLAT:?accHitTest@CWnd@@UAEJJJPAUtagVARIANT@@@Z
	DD	FLAT:?accDoDefaultAction@CWnd@@UAEJUtagVARIANT@@@Z
	DD	FLAT:?put_accName@CWnd@@UAEJUtagVARIANT@@PA_W@Z
	DD	FLAT:?put_accValue@CWnd@@UAEJUtagVARIANT@@PA_W@Z
	DD	FLAT:?SetProxy@CWnd@@UAEJPAUIAccessibleProxy@@@Z
	DD	FLAT:?CreateAccessibleProxy@CWnd@@UAEJIJPAJ@Z
	DD	FLAT:?OnCommand@CWnd@@MAEHIJ@Z
	DD	FLAT:?OnNotify@CWnd@@MAEHIJPAJ@Z
	DD	FLAT:?GetSuperWndProcAddr@CWnd@@MAEPAP6GJPAUHWND__@@IIJ@ZXZ
	DD	FLAT:?DoDataExchange@CWnd@@MAEXPAVCDataExchange@@@Z
	DD	FLAT:?BeginModalState@CWnd@@UAEXXZ
	DD	FLAT:?EndModalState@CWnd@@UAEXXZ
	DD	FLAT:?PreTranslateMessage@CWnd@@UAEHPAUtagMSG@@@Z
	DD	FLAT:?OnAmbientProperty@CWnd@@UAEHPAVCOleControlSite@@JPAUtagVARIANT@@@Z
	DD	FLAT:?WindowProc@CWnd@@MAEJIIJ@Z
	DD	FLAT:?OnWndMsg@CWnd@@MAEHIIJPAJ@Z
	DD	FLAT:?DefWindowProcA@CWnd@@MAEJIIJ@Z
	DD	FLAT:?PostNcDestroy@CWnd@@MAEXXZ
	DD	FLAT:?OnChildNotify@CButton@@MAEHIIJPAJ@Z
	DD	FLAT:?CheckAutoCenter@CWnd@@UAEHXZ
	DD	FLAT:?IsFrameWnd@CWnd@@UBEHXZ
	DD	FLAT:?CreateControlContainer@CWnd@@MAEHPAPAVCOleControlContainer@@@Z
	DD	FLAT:?CreateControlSite@CWnd@@MAEHPAVCOleControlContainer@@PAPAVCOleControlSite@@IABU_GUID@@@Z
	DD	FLAT:?SetOccDialogInfo@CWnd@@MAEHPAU_AFX_OCC_DIALOG_INFO@@@Z
	DD	FLAT:?Create@CButton@@UAEHPBDKABUtagRECT@@PAVCWnd@@I@Z
	DD	FLAT:?DrawItem@CSkinButton@@MAEXPAUtagDRAWITEMSTRUCT@@@Z
	DD	FLAT:?SetPngHoverSkin@CSkinButton@@UAEHV?$CStringT@DV?$StrTraitMFC_DLL@DV?$ChTraitsCRT@D@ATL@@@@@ATL@@@Z
	DD	FLAT:?SetPngFrame@CSkinButton@@UAEHV?$CStringT@DV?$StrTraitMFC_DLL@DV?$ChTraitsCRT@D@ATL@@@@@ATL@@@Z
	DD	FLAT:?IsClickPng@CSkinButton@@UAEHXZ
	DD	FLAT:?SetClickPng@CSkinButton@@UAEXH@Z
CONST	ENDS
;	COMDAT ??_R4CSkinButton@@6B@
rdata$r	SEGMENT
??_R4CSkinButton@@6B@ DD 00H				; CSkinButton::`RTTI Complete Object Locator'
	DD	00H
	DD	00H
	DD	FLAT:??_R0?AVCSkinButton@@@8
	DD	FLAT:??_R3CSkinButton@@8
rdata$r	ENDS
;	COMDAT ??_R0?AVCSkinButton@@@8
_DATA	SEGMENT
??_R0?AVCSkinButton@@@8 DD FLAT:??_7type_info@@6B@	; CSkinButton `RTTI Type Descriptor'
	DD	00H
	DB	'.?AVCSkinButton@@', 00H
_DATA	ENDS
;	COMDAT ??_R3CSkinButton@@8
rdata$r	SEGMENT
??_R3CSkinButton@@8 DD 00H				; CSkinButton::`RTTI Class Hierarchy Descriptor'
	DD	00H
	DD	05H
	DD	FLAT:??_R2CSkinButton@@8
rdata$r	ENDS
;	COMDAT ??_R2CSkinButton@@8
rdata$r	SEGMENT
??_R2CSkinButton@@8 DD FLAT:??_R1A@?0A@A@CSkinButton@@8	; CSkinButton::`RTTI Base Class Array'
	DD	FLAT:??_R1A@?0A@A@CButton@@8
	DD	FLAT:??_R1A@?0A@A@CWnd@@8
	DD	FLAT:??_R1A@?0A@A@CCmdTarget@@8
	DD	FLAT:??_R1A@?0A@A@CObject@@8
rdata$r	ENDS
;	COMDAT ??_R1A@?0A@A@CSkinButton@@8
rdata$r	SEGMENT
??_R1A@?0A@A@CSkinButton@@8 DD FLAT:??_R0?AVCSkinButton@@@8 ; CSkinButton::`RTTI Base Class Descriptor at (0,-1,0,0)'
	DD	04H
	DD	00H
	DD	0ffffffffH
	DD	00H
	DD	00H
rdata$r	ENDS
;	COMDAT ??_R1A@?0A@A@CButton@@8
rdata$r	SEGMENT
??_R1A@?0A@A@CButton@@8 DD FLAT:??_R0?AVCButton@@@8	; CButton::`RTTI Base Class Descriptor at (0,-1,0,0)'
	DD	03H
	DD	00H
	DD	0ffffffffH
	DD	00H
	DD	00H
rdata$r	ENDS
;	COMDAT ??_R0?AVCButton@@@8
_DATA	SEGMENT
??_R0?AVCButton@@@8 DD FLAT:??_7type_info@@6B@		; CButton `RTTI Type Descriptor'
	DD	00H
	DB	'.?AVCButton@@', 00H
_DATA	ENDS
;	COMDAT ??_R1A@?0A@A@CWnd@@8
rdata$r	SEGMENT
??_R1A@?0A@A@CWnd@@8 DD FLAT:??_R0?AVCWnd@@@8		; CWnd::`RTTI Base Class Descriptor at (0,-1,0,0)'
	DD	02H
	DD	00H
	DD	0ffffffffH
	DD	00H
	DD	00H
rdata$r	ENDS
;	COMDAT ??_R0?AVCWnd@@@8
_DATA	SEGMENT
??_R0?AVCWnd@@@8 DD FLAT:??_7type_info@@6B@		; CWnd `RTTI Type Descriptor'
	DD	00H
	DB	'.?AVCWnd@@', 00H
_DATA	ENDS
;	COMDAT ??_R1A@?0A@A@CCmdTarget@@8
rdata$r	SEGMENT
??_R1A@?0A@A@CCmdTarget@@8 DD FLAT:??_R0?AVCCmdTarget@@@8 ; CCmdTarget::`RTTI Base Class Descriptor at (0,-1,0,0)'
	DD	01H
	DD	00H
	DD	0ffffffffH
	DD	00H
	DD	00H
rdata$r	ENDS
;	COMDAT ??_R0?AVCCmdTarget@@@8
_DATA	SEGMENT
??_R0?AVCCmdTarget@@@8 DD FLAT:??_7type_info@@6B@	; CCmdTarget `RTTI Type Descriptor'
	DD	00H
	DB	'.?AVCCmdTarget@@', 00H
_DATA	ENDS
;	COMDAT ??_R1A@?0A@A@CObject@@8
rdata$r	SEGMENT
??_R1A@?0A@A@CObject@@8 DD FLAT:??_R0?AVCObject@@@8	; CObject::`RTTI Base Class Descriptor at (0,-1,0,0)'
	DD	00H
	DD	00H
	DD	0ffffffffH
	DD	00H
	DD	00H
rdata$r	ENDS
;	COMDAT ??_R0?AVCObject@@@8
_DATA	SEGMENT
??_R0?AVCObject@@@8 DD FLAT:??_7type_info@@6B@		; CObject `RTTI Type Descriptor'
	DD	00H
	DB	'.?AVCObject@@', 00H
; Function compile flags: /Odt /RTCsu
_DATA	ENDS
_TEXT	SEGMENT
_this$ = -16						; size = 4
__$EHRec$ = -12						; size = 12
??0CSkinButton@@QAE@XZ PROC NEAR			; CSkinButton::CSkinButton
; _this$ = ecx

; 21   : {

  00030	55		 push	 ebp
  00031	8b ec		 mov	 ebp, esp
  00033	6a ff		 push	 -1
  00035	68 00 00 00 00	 push	 __ehhandler$??0CSkinButton@@QAE@XZ
  0003a	64 a1 00 00 00
	00		 mov	 eax, DWORD PTR fs:__except_list
  00040	50		 push	 eax
  00041	64 89 25 00 00
	00 00		 mov	 DWORD PTR fs:__except_list, esp
  00048	51		 push	 ecx
  00049	56		 push	 esi
  0004a	c7 45 f0 cc cc
	cc cc		 mov	 DWORD PTR [ebp-16], -858993460 ; ccccccccH
  00051	89 4d f0	 mov	 DWORD PTR _this$[ebp], ecx
  00054	8b 4d f0	 mov	 ecx, DWORD PTR _this$[ebp]
  00057	e8 00 00 00 00	 call	 ??0CButton@@QAE@XZ	; CButton::CButton
  0005c	c7 45 fc 00 00
	00 00		 mov	 DWORD PTR __$EHRec$[ebp+8], 0
  00063	8b 45 f0	 mov	 eax, DWORD PTR _this$[ebp]
  00066	c7 00 00 00 00
	00		 mov	 DWORD PTR [eax], OFFSET FLAT:??_7CSkinButton@@6B@
  0006c	8b 4d f0	 mov	 ecx, DWORD PTR _this$[ebp]
  0006f	83 c1 58	 add	 ecx, 88			; 00000058H
  00072	e8 00 00 00 00	 call	 ??0CButtonDraw@@QAE@XZ	; CButtonDraw::CButtonDraw
  00077	c6 45 fc 01	 mov	 BYTE PTR __$EHRec$[ebp+8], 1
  0007b	8b 4d f0	 mov	 ecx, DWORD PTR _this$[ebp]
  0007e	83 c1 70	 add	 ecx, 112		; 00000070H
  00081	e8 00 00 00 00	 call	 ??0CToolTipCtrl@@QAE@XZ	; CToolTipCtrl::CToolTipCtrl
  00086	c6 45 fc 02	 mov	 BYTE PTR __$EHRec$[ebp+8], 2
  0008a	8b 4d f0	 mov	 ecx, DWORD PTR _this$[ebp]
  0008d	81 c1 e0 00 00
	00		 add	 ecx, 224		; 000000e0H
  00093	8b f4		 mov	 esi, esp
  00095	ff 15 00 00 00
	00		 call	 DWORD PTR __imp_??0?$CStringT@DV?$StrTraitMFC_DLL@DV?$ChTraitsCRT@D@ATL@@@@@ATL@@QAE@XZ
  0009b	3b f4		 cmp	 esi, esp
  0009d	e8 00 00 00 00	 call	 __RTC_CheckEsp
  000a2	c6 45 fc 03	 mov	 BYTE PTR __$EHRec$[ebp+8], 3
  000a6	8b 4d f0	 mov	 ecx, DWORD PTR _this$[ebp]
  000a9	81 c1 fc 00 00
	00		 add	 ecx, 252		; 000000fcH
  000af	8b f4		 mov	 esi, esp
  000b1	ff 15 00 00 00
	00		 call	 DWORD PTR __imp_??0?$basic_string@DU?$char_traits@D@std@@V?$allocator@D@2@@std@@QAE@XZ
  000b7	3b f4		 cmp	 esi, esp
  000b9	e8 00 00 00 00	 call	 __RTC_CheckEsp
  000be	c6 45 fc 04	 mov	 BYTE PTR __$EHRec$[ebp+8], 4
  000c2	8b 4d f0	 mov	 ecx, DWORD PTR _this$[ebp]
  000c5	81 c1 18 01 00
	00		 add	 ecx, 280		; 00000118H
  000cb	8b f4		 mov	 esi, esp
  000cd	ff 15 00 00 00
	00		 call	 DWORD PTR __imp_??0?$CStringT@DV?$StrTraitMFC_DLL@DV?$ChTraitsCRT@D@ATL@@@@@ATL@@QAE@XZ
  000d3	3b f4		 cmp	 esi, esp
  000d5	e8 00 00 00 00	 call	 __RTC_CheckEsp
  000da	c6 45 fc 05	 mov	 BYTE PTR __$EHRec$[ebp+8], 5

; 22   : 	m_BitMap = NULL;

  000de	8b 4d f0	 mov	 ecx, DWORD PTR _this$[ebp]
  000e1	c7 41 6c 00 00
	00 00		 mov	 DWORD PTR [ecx+108], 0

; 23   : 	mbMouseOnButton = false;

  000e8	8b 55 f0	 mov	 edx, DWORD PTR _this$[ebp]
  000eb	c7 82 f8 00 00
	00 00 00 00 00	 mov	 DWORD PTR [edx+248], 0

; 24   : 	m_bottonType =    0;

  000f5	8b 45 f0	 mov	 eax, DWORD PTR _this$[ebp]
  000f8	c7 80 24 01 00
	00 00 00 00 00	 mov	 DWORD PTR [eax+292], 0

; 25   : 	m_pbtnEventListerner = 0;

  00102	8b 4d f0	 mov	 ecx, DWORD PTR _this$[ebp]
  00105	c7 81 2c 01 00
	00 00 00 00 00	 mov	 DWORD PTR [ecx+300], 0

; 26   : 	//m_SkinBitMapIndex = "";
; 27   : 	this->m_strSkinPath = "";

  0010f	8b f4		 mov	 esi, esp
  00111	68 00 00 00 00	 push	 OFFSET FLAT:$SG187683
  00116	8b 4d f0	 mov	 ecx, DWORD PTR _this$[ebp]
  00119	81 c1 fc 00 00
	00		 add	 ecx, 252		; 000000fcH
  0011f	ff 15 00 00 00
	00		 call	 DWORD PTR __imp_??4?$basic_string@DU?$char_traits@D@std@@V?$allocator@D@2@@std@@QAEAAV01@PBD@Z
  00125	3b f4		 cmp	 esi, esp
  00127	e8 00 00 00 00	 call	 __RTC_CheckEsp

; 28   : 	m_bshowTip = true;

  0012c	8b 55 f0	 mov	 edx, DWORD PTR _this$[ebp]
  0012f	c6 82 f1 00 00
	00 01		 mov	 BYTE PTR [edx+241], 1

; 29   : 	m_pPngImage = NULL;

  00136	8b 45 f0	 mov	 eax, DWORD PTR _this$[ebp]
  00139	c7 80 28 01 00
	00 00 00 00 00	 mov	 DWORD PTR [eax+296], 0

; 30   : 	m_bSelected = false;

  00143	8b 4d f0	 mov	 ecx, DWORD PTR _this$[ebp]
  00146	c6 81 f0 00 00
	00 00		 mov	 BYTE PTR [ecx+240], 0

; 31   : 	m_bEraseBK = false;

  0014d	8b 55 f0	 mov	 edx, DWORD PTR _this$[ebp]
  00150	c6 42 54 00	 mov	 BYTE PTR [edx+84], 0

; 32   : }

  00154	c7 45 fc ff ff
	ff ff		 mov	 DWORD PTR __$EHRec$[ebp+8], -1
  0015b	8b 45 f0	 mov	 eax, DWORD PTR _this$[ebp]
  0015e	8b 4d f4	 mov	 ecx, DWORD PTR __$EHRec$[ebp]
  00161	64 89 0d 00 00
	00 00		 mov	 DWORD PTR fs:__except_list, ecx
  00168	5e		 pop	 esi
  00169	83 c4 10	 add	 esp, 16			; 00000010H
  0016c	3b ec		 cmp	 ebp, esp
  0016e	e8 00 00 00 00	 call	 __RTC_CheckEsp
  00173	8b e5		 mov	 esp, ebp
  00175	5d		 pop	 ebp
  00176	c3		 ret	 0
_TEXT	ENDS
text$x	SEGMENT
$L188835:
  00000	8b 4d f0	 mov	 ecx, DWORD PTR _this$[ebp]
  00003	e9 00 00 00 00	 jmp	 ??1CButton@@UAE@XZ	; CButton::~CButton
$L188836:
  00008	8b 4d f0	 mov	 ecx, DWORD PTR _this$[ebp]
  0000b	83 c1 58	 add	 ecx, 88			; 00000058H
  0000e	e9 00 00 00 00	 jmp	 ??1CButtonDraw@@UAE@XZ	; CButtonDraw::~CButtonDraw
$L188837:
  00013	8b 4d f0	 mov	 ecx, DWORD PTR _this$[ebp]
  00016	83 c1 70	 add	 ecx, 112		; 00000070H
  00019	e9 00 00 00 00	 jmp	 ??1CToolTipCtrl@@UAE@XZ	; CToolTipCtrl::~CToolTipCtrl
$L188838:
  0001e	8b 4d f0	 mov	 ecx, DWORD PTR _this$[ebp]
  00021	81 c1 e0 00 00
	00		 add	 ecx, 224		; 000000e0H
  00027	8b f4		 mov	 esi, esp
  00029	ff 15 00 00 00
	00		 call	 DWORD PTR __imp_??1?$CStringT@DV?$StrTraitMFC_DLL@DV?$ChTraitsCRT@D@ATL@@@@@ATL@@QAE@XZ
  0002f	3b f4		 cmp	 esi, esp
  00031	e9 00 00 00 00	 jmp	 __RTC_CheckEsp
$L188839:
  00036	8b 4d f0	 mov	 ecx, DWORD PTR _this$[ebp]
  00039	81 c1 fc 00 00
	00		 add	 ecx, 252		; 000000fcH
  0003f	8b f4		 mov	 esi, esp
  00041	ff 15 00 00 00
	00		 call	 DWORD PTR __imp_??1?$basic_string@DU?$char_traits@D@std@@V?$allocator@D@2@@std@@QAE@XZ
  00047	3b f4		 cmp	 esi, esp
  00049	e9 00 00 00 00	 jmp	 __RTC_CheckEsp
$L188840:
  0004e	8b 4d f0	 mov	 ecx, DWORD PTR _this$[ebp]
  00051	81 c1 18 01 00
	00		 add	 ecx, 280		; 00000118H
  00057	8b f4		 mov	 esi, esp
  00059	ff 15 00 00 00
	00		 call	 DWORD PTR __imp_??1?$CStringT@DV?$StrTraitMFC_DLL@DV?$ChTraitsCRT@D@ATL@@@@@ATL@@QAE@XZ
  0005f	3b f4		 cmp	 esi, esp
  00061	e9 00 00 00 00	 jmp	 __RTC_CheckEsp
__ehhandler$??0CSkinButton@@QAE@XZ:
  00066	b8 00 00 00 00	 mov	 eax, OFFSET FLAT:$T188844
  0006b	e9 00 00 00 00	 jmp	 ___CxxFrameHandler
text$x	ENDS
??0CSkinButton@@QAE@XZ ENDP				; CSkinButton::CSkinButton
; Function compile flags: /Odt /RTCsu
; File d:\boxgit\playbox\playbox\dev\prj\playbox\src\layoutmgr\changecolor\skinbotton.h
;	COMDAT ?SetPngHoverSkin@CSkinButton@@UAEHV?$CStringT@DV?$StrTraitMFC_DLL@DV?$ChTraitsCRT@D@ATL@@@@@ATL@@@Z
_TEXT	SEGMENT
$T188851 = -8						; size = 4
_this$ = -4						; size = 4
_str$ = 8						; size = 4
?SetPngHoverSkin@CSkinButton@@UAEHV?$CStringT@DV?$StrTraitMFC_DLL@DV?$ChTraitsCRT@D@ATL@@@@@ATL@@@Z PROC NEAR ; CSkinButton::SetPngHoverSkin, COMDAT
; _this$ = ecx

; 122  : 	virtual BOOL SetPngHoverSkin(CString str){return TRUE;}

  00000	55		 push	 ebp
  00001	8b ec		 mov	 ebp, esp
  00003	83 ec 08	 sub	 esp, 8
  00006	56		 push	 esi
  00007	c7 45 f8 cc cc
	cc cc		 mov	 DWORD PTR [ebp-8], -858993460 ; ccccccccH
  0000e	c7 45 fc cc cc
	cc cc		 mov	 DWORD PTR [ebp-4], -858993460 ; ccccccccH
  00015	89 4d fc	 mov	 DWORD PTR _this$[ebp], ecx
  00018	c7 45 f8 01 00
	00 00		 mov	 DWORD PTR $T188851[ebp], 1
  0001f	8b f4		 mov	 esi, esp
  00021	8d 4d 08	 lea	 ecx, DWORD PTR _str$[ebp]
  00024	ff 15 00 00 00
	00		 call	 DWORD PTR __imp_??1?$CStringT@DV?$StrTraitMFC_DLL@DV?$ChTraitsCRT@D@ATL@@@@@ATL@@QAE@XZ
  0002a	3b f4		 cmp	 esi, esp
  0002c	e8 00 00 00 00	 call	 __RTC_CheckEsp
  00031	8b 45 f8	 mov	 eax, DWORD PTR $T188851[ebp]
  00034	5e		 pop	 esi
  00035	83 c4 08	 add	 esp, 8
  00038	3b ec		 cmp	 ebp, esp
  0003a	e8 00 00 00 00	 call	 __RTC_CheckEsp
  0003f	8b e5		 mov	 esp, ebp
  00041	5d		 pop	 ebp
  00042	c2 04 00	 ret	 4
?SetPngHoverSkin@CSkinButton@@UAEHV?$CStringT@DV?$StrTraitMFC_DLL@DV?$ChTraitsCRT@D@ATL@@@@@ATL@@@Z ENDP ; CSkinButton::SetPngHoverSkin
; Function compile flags: /Odt /RTCsu
_TEXT	ENDS
;	COMDAT ?SetPngFrame@CSkinButton@@UAEHV?$CStringT@DV?$StrTraitMFC_DLL@DV?$ChTraitsCRT@D@ATL@@@@@ATL@@@Z
_TEXT	SEGMENT
$T188854 = -8						; size = 4
_this$ = -4						; size = 4
_str$ = 8						; size = 4
?SetPngFrame@CSkinButton@@UAEHV?$CStringT@DV?$StrTraitMFC_DLL@DV?$ChTraitsCRT@D@ATL@@@@@ATL@@@Z PROC NEAR ; CSkinButton::SetPngFrame, COMDAT
; _this$ = ecx

; 123  : 	virtual BOOL SetPngFrame(CString str){return TRUE;}

  00000	55		 push	 ebp
  00001	8b ec		 mov	 ebp, esp
  00003	83 ec 08	 sub	 esp, 8
  00006	56		 push	 esi
  00007	c7 45 f8 cc cc
	cc cc		 mov	 DWORD PTR [ebp-8], -858993460 ; ccccccccH
  0000e	c7 45 fc cc cc
	cc cc		 mov	 DWORD PTR [ebp-4], -858993460 ; ccccccccH
  00015	89 4d fc	 mov	 DWORD PTR _this$[ebp], ecx
  00018	c7 45 f8 01 00
	00 00		 mov	 DWORD PTR $T188854[ebp], 1
  0001f	8b f4		 mov	 esi, esp
  00021	8d 4d 08	 lea	 ecx, DWORD PTR _str$[ebp]
  00024	ff 15 00 00 00
	00		 call	 DWORD PTR __imp_??1?$CStringT@DV?$StrTraitMFC_DLL@DV?$ChTraitsCRT@D@ATL@@@@@ATL@@QAE@XZ
  0002a	3b f4		 cmp	 esi, esp
  0002c	e8 00 00 00 00	 call	 __RTC_CheckEsp
  00031	8b 45 f8	 mov	 eax, DWORD PTR $T188854[ebp]
  00034	5e		 pop	 esi
  00035	83 c4 08	 add	 esp, 8
  00038	3b ec		 cmp	 ebp, esp
  0003a	e8 00 00 00 00	 call	 __RTC_CheckEsp
  0003f	8b e5		 mov	 esp, ebp
  00041	5d		 pop	 ebp
  00042	c2 04 00	 ret	 4
?SetPngFrame@CSkinButton@@UAEHV?$CStringT@DV?$StrTraitMFC_DLL@DV?$ChTraitsCRT@D@ATL@@@@@ATL@@@Z ENDP ; CSkinButton::SetPngFrame
; Function compile flags: /Odt /RTCsu
_TEXT	ENDS
;	COMDAT ?IsClickPng@CSkinButton@@UAEHXZ
_TEXT	SEGMENT
_this$ = -4						; size = 4
?IsClickPng@CSkinButton@@UAEHXZ PROC NEAR		; CSkinButton::IsClickPng, COMDAT
; _this$ = ecx

; 124  : 	virtual BOOL IsClickPng(){return FALSE;}

  00000	55		 push	 ebp
  00001	8b ec		 mov	 ebp, esp
  00003	51		 push	 ecx
  00004	c7 45 fc cc cc
	cc cc		 mov	 DWORD PTR [ebp-4], -858993460 ; ccccccccH
  0000b	89 4d fc	 mov	 DWORD PTR _this$[ebp], ecx
  0000e	33 c0		 xor	 eax, eax
  00010	8b e5		 mov	 esp, ebp
  00012	5d		 pop	 ebp
  00013	c3		 ret	 0
?IsClickPng@CSkinButton@@UAEHXZ ENDP			; CSkinButton::IsClickPng
; Function compile flags: /Odt /RTCsu
_TEXT	ENDS
;	COMDAT ?SetClickPng@CSkinButton@@UAEXH@Z
_TEXT	SEGMENT
_this$ = -4						; size = 4
_bclick$ = 8						; size = 4
?SetClickPng@CSkinButton@@UAEXH@Z PROC NEAR		; CSkinButton::SetClickPng, COMDAT
; _this$ = ecx

; 125  : 	virtual void SetClickPng(BOOL bclick){}

  00000	55		 push	 ebp
  00001	8b ec		 mov	 ebp, esp
  00003	51		 push	 ecx
  00004	c7 45 fc cc cc
	cc cc		 mov	 DWORD PTR [ebp-4], -858993460 ; ccccccccH
  0000b	89 4d fc	 mov	 DWORD PTR _this$[ebp], ecx
  0000e	8b e5		 mov	 esp, ebp
  00010	5d		 pop	 ebp
  00011	c2 04 00	 ret	 4
?SetClickPng@CSkinButton@@UAEXH@Z ENDP			; CSkinButton::SetClickPng
_TEXT	ENDS
PUBLIC	??1CSkinButton@@UAE@XZ				; CSkinButton::~CSkinButton
EXTRN	??3CObject@@SGXPAX@Z:NEAR			; CObject::operator delete
; Function compile flags: /Odt /RTCsu
;	COMDAT ??_GCSkinButton@@UAEPAXI@Z
_TEXT	SEGMENT
_this$ = -4						; size = 4
___flags$ = 8						; size = 4
??_GCSkinButton@@UAEPAXI@Z PROC NEAR			; CSkinButton::`scalar deleting destructor', COMDAT
; _this$ = ecx
  00000	55		 push	 ebp
  00001	8b ec		 mov	 ebp, esp
  00003	51		 push	 ecx
  00004	c7 45 fc cc cc
	cc cc		 mov	 DWORD PTR [ebp-4], -858993460 ; ccccccccH
  0000b	89 4d fc	 mov	 DWORD PTR _this$[ebp], ecx
  0000e	8b 4d fc	 mov	 ecx, DWORD PTR _this$[ebp]
  00011	e8 00 00 00 00	 call	 ??1CSkinButton@@UAE@XZ	; CSkinButton::~CSkinButton
  00016	8b 45 08	 mov	 eax, DWORD PTR ___flags$[ebp]
  00019	83 e0 01	 and	 eax, 1
  0001c	74 09		 je	 SHORT $L187687
  0001e	8b 4d fc	 mov	 ecx, DWORD PTR _this$[ebp]
  00021	51		 push	 ecx
  00022	e8 00 00 00 00	 call	 ??3CObject@@SGXPAX@Z	; CObject::operator delete
$L187687:
  00027	8b 45 fc	 mov	 eax, DWORD PTR _this$[ebp]
  0002a	83 c4 04	 add	 esp, 4
  0002d	3b ec		 cmp	 ebp, esp
  0002f	e8 00 00 00 00	 call	 __RTC_CheckEsp
  00034	8b e5		 mov	 esp, ebp
  00036	5d		 pop	 ebp
  00037	c2 04 00	 ret	 4
??_GCSkinButton@@UAEPAXI@Z ENDP				; CSkinButton::`scalar deleting destructor'
_TEXT	ENDS
xdata$x	SEGMENT
$T188873 DD	0ffffffffH
	DD	FLAT:$L188864
	DD	00H
	DD	FLAT:$L188865
	DD	01H
	DD	FLAT:$L188866
	DD	02H
	DD	FLAT:$L188867
	DD	03H
	DD	FLAT:$L188868
	DD	04H
	DD	FLAT:$L188869
$T188871 DD	019930520H
	DD	06H
	DD	FLAT:$T188873
	DD	2 DUP(00H)
	DD	2 DUP(00H)
; Function compile flags: /Odt /RTCsu
; File d:\boxgit\playbox\playbox\dev\prj\playbox\src\layoutmgr\changecolor\skinbotton.cpp
xdata$x	ENDS
_TEXT	SEGMENT
tv94 = -28						; size = 4
$T188861 = -24						; size = 4
$T188860 = -20						; size = 4
_this$ = -16						; size = 4
__$EHRec$ = -12						; size = 12
??1CSkinButton@@UAE@XZ PROC NEAR			; CSkinButton::~CSkinButton
; _this$ = ecx

; 35   : {

  00180	55		 push	 ebp
  00181	8b ec		 mov	 ebp, esp
  00183	6a ff		 push	 -1
  00185	68 00 00 00 00	 push	 __ehhandler$??1CSkinButton@@UAE@XZ
  0018a	64 a1 00 00 00
	00		 mov	 eax, DWORD PTR fs:__except_list
  00190	50		 push	 eax
  00191	64 89 25 00 00
	00 00		 mov	 DWORD PTR fs:__except_list, esp
  00198	83 ec 10	 sub	 esp, 16			; 00000010H
  0019b	56		 push	 esi
  0019c	b8 cc cc cc cc	 mov	 eax, -858993460		; ccccccccH
  001a1	89 45 e4	 mov	 DWORD PTR [ebp-28], eax
  001a4	89 45 e8	 mov	 DWORD PTR [ebp-24], eax
  001a7	89 45 ec	 mov	 DWORD PTR [ebp-20], eax
  001aa	89 45 f0	 mov	 DWORD PTR [ebp-16], eax
  001ad	89 4d f0	 mov	 DWORD PTR _this$[ebp], ecx
  001b0	8b 45 f0	 mov	 eax, DWORD PTR _this$[ebp]
  001b3	c7 00 00 00 00
	00		 mov	 DWORD PTR [eax], OFFSET FLAT:??_7CSkinButton@@6B@
  001b9	c7 45 fc 05 00
	00 00		 mov	 DWORD PTR __$EHRec$[ebp+8], 5

; 36   : 	if(m_pPngImage) delete m_pPngImage;

  001c0	8b 4d f0	 mov	 ecx, DWORD PTR _this$[ebp]
  001c3	83 b9 28 01 00
	00 00		 cmp	 DWORD PTR [ecx+296], 0
  001ca	74 39		 je	 SHORT $L187690
  001cc	8b 55 f0	 mov	 edx, DWORD PTR _this$[ebp]
  001cf	8b 82 28 01 00
	00		 mov	 eax, DWORD PTR [edx+296]
  001d5	89 45 e8	 mov	 DWORD PTR $T188861[ebp], eax
  001d8	8b 4d e8	 mov	 ecx, DWORD PTR $T188861[ebp]
  001db	89 4d ec	 mov	 DWORD PTR $T188860[ebp], ecx
  001de	83 7d ec 00	 cmp	 DWORD PTR $T188860[ebp], 0
  001e2	74 1a		 je	 SHORT $L188862
  001e4	8b f4		 mov	 esi, esp
  001e6	6a 01		 push	 1
  001e8	8b 55 ec	 mov	 edx, DWORD PTR $T188860[ebp]
  001eb	8b 02		 mov	 eax, DWORD PTR [edx]
  001ed	8b 4d ec	 mov	 ecx, DWORD PTR $T188860[ebp]
  001f0	ff 10		 call	 DWORD PTR [eax]
  001f2	3b f4		 cmp	 esi, esp
  001f4	e8 00 00 00 00	 call	 __RTC_CheckEsp
  001f9	89 45 e4	 mov	 DWORD PTR tv94[ebp], eax
  001fc	eb 07		 jmp	 SHORT $L187690
$L188862:
  001fe	c7 45 e4 00 00
	00 00		 mov	 DWORD PTR tv94[ebp], 0
$L187690:

; 37   : }

  00205	c6 45 fc 04	 mov	 BYTE PTR __$EHRec$[ebp+8], 4
  00209	8b 4d f0	 mov	 ecx, DWORD PTR _this$[ebp]
  0020c	81 c1 18 01 00
	00		 add	 ecx, 280		; 00000118H
  00212	8b f4		 mov	 esi, esp
  00214	ff 15 00 00 00
	00		 call	 DWORD PTR __imp_??1?$CStringT@DV?$StrTraitMFC_DLL@DV?$ChTraitsCRT@D@ATL@@@@@ATL@@QAE@XZ
  0021a	3b f4		 cmp	 esi, esp
  0021c	e8 00 00 00 00	 call	 __RTC_CheckEsp
  00221	c6 45 fc 03	 mov	 BYTE PTR __$EHRec$[ebp+8], 3
  00225	8b 4d f0	 mov	 ecx, DWORD PTR _this$[ebp]
  00228	81 c1 fc 00 00
	00		 add	 ecx, 252		; 000000fcH
  0022e	8b f4		 mov	 esi, esp
  00230	ff 15 00 00 00
	00		 call	 DWORD PTR __imp_??1?$basic_string@DU?$char_traits@D@std@@V?$allocator@D@2@@std@@QAE@XZ
  00236	3b f4		 cmp	 esi, esp
  00238	e8 00 00 00 00	 call	 __RTC_CheckEsp
  0023d	c6 45 fc 02	 mov	 BYTE PTR __$EHRec$[ebp+8], 2
  00241	8b 4d f0	 mov	 ecx, DWORD PTR _this$[ebp]
  00244	81 c1 e0 00 00
	00		 add	 ecx, 224		; 000000e0H
  0024a	8b f4		 mov	 esi, esp
  0024c	ff 15 00 00 00
	00		 call	 DWORD PTR __imp_??1?$CStringT@DV?$StrTraitMFC_DLL@DV?$ChTraitsCRT@D@ATL@@@@@ATL@@QAE@XZ
  00252	3b f4		 cmp	 esi, esp
  00254	e8 00 00 00 00	 call	 __RTC_CheckEsp
  00259	c6 45 fc 01	 mov	 BYTE PTR __$EHRec$[ebp+8], 1
  0025d	8b 4d f0	 mov	 ecx, DWORD PTR _this$[ebp]
  00260	83 c1 70	 add	 ecx, 112		; 00000070H
  00263	e8 00 00 00 00	 call	 ??1CToolTipCtrl@@UAE@XZ	; CToolTipCtrl::~CToolTipCtrl
  00268	c6 45 fc 00	 mov	 BYTE PTR __$EHRec$[ebp+8], 0
  0026c	8b 4d f0	 mov	 ecx, DWORD PTR _this$[ebp]
  0026f	83 c1 58	 add	 ecx, 88			; 00000058H
  00272	e8 00 00 00 00	 call	 ??1CButtonDraw@@UAE@XZ	; CButtonDraw::~CButtonDraw
  00277	c7 45 fc ff ff
	ff ff		 mov	 DWORD PTR __$EHRec$[ebp+8], -1
  0027e	8b 4d f0	 mov	 ecx, DWORD PTR _this$[ebp]
  00281	e8 00 00 00 00	 call	 ??1CButton@@UAE@XZ	; CButton::~CButton
  00286	8b 4d f4	 mov	 ecx, DWORD PTR __$EHRec$[ebp]
  00289	64 89 0d 00 00
	00 00		 mov	 DWORD PTR fs:__except_list, ecx
  00290	5e		 pop	 esi
  00291	83 c4 1c	 add	 esp, 28			; 0000001cH
  00294	3b ec		 cmp	 ebp, esp
  00296	e8 00 00 00 00	 call	 __RTC_CheckEsp
  0029b	8b e5		 mov	 esp, ebp
  0029d	5d		 pop	 ebp
  0029e	c3		 ret	 0
_TEXT	ENDS
text$x	SEGMENT
$L188864:
  00070	8b 4d f0	 mov	 ecx, DWORD PTR _this$[ebp]
  00073	e9 00 00 00 00	 jmp	 ??1CButton@@UAE@XZ	; CButton::~CButton
$L188865:
  00078	8b 4d f0	 mov	 ecx, DWORD PTR _this$[ebp]
  0007b	83 c1 58	 add	 ecx, 88			; 00000058H
  0007e	e9 00 00 00 00	 jmp	 ??1CButtonDraw@@UAE@XZ	; CButtonDraw::~CButtonDraw
$L188866:
  00083	8b 4d f0	 mov	 ecx, DWORD PTR _this$[ebp]
  00086	83 c1 70	 add	 ecx, 112		; 00000070H
  00089	e9 00 00 00 00	 jmp	 ??1CToolTipCtrl@@UAE@XZ	; CToolTipCtrl::~CToolTipCtrl
$L188867:
  0008e	8b 4d f0	 mov	 ecx, DWORD PTR _this$[ebp]
  00091	81 c1 e0 00 00
	00		 add	 ecx, 224		; 000000e0H
  00097	8b f4		 mov	 esi, esp
  00099	ff 15 00 00 00
	00		 call	 DWORD PTR __imp_??1?$CStringT@DV?$StrTraitMFC_DLL@DV?$ChTraitsCRT@D@ATL@@@@@ATL@@QAE@XZ
  0009f	3b f4		 cmp	 esi, esp
  000a1	e9 00 00 00 00	 jmp	 __RTC_CheckEsp
$L188868:
  000a6	8b 4d f0	 mov	 ecx, DWORD PTR _this$[ebp]
  000a9	81 c1 fc 00 00
	00		 add	 ecx, 252		; 000000fcH
  000af	8b f4		 mov	 esi, esp
  000b1	ff 15 00 00 00
	00		 call	 DWORD PTR __imp_??1?$basic_string@DU?$char_traits@D@std@@V?$allocator@D@2@@std@@QAE@XZ
  000b7	3b f4		 cmp	 esi, esp
  000b9	e9 00 00 00 00	 jmp	 __RTC_CheckEsp
$L188869:
  000be	8b 4d f0	 mov	 ecx, DWORD PTR _this$[ebp]
  000c1	81 c1 18 01 00
	00		 add	 ecx, 280		; 00000118H
  000c7	8b f4		 mov	 esi, esp
  000c9	ff 15 00 00 00
	00		 call	 DWORD PTR __imp_??1?$CStringT@DV?$StrTraitMFC_DLL@DV?$ChTraitsCRT@D@ATL@@@@@ATL@@QAE@XZ
  000cf	3b f4		 cmp	 esi, esp
  000d1	e9 00 00 00 00	 jmp	 __RTC_CheckEsp
__ehhandler$??1CSkinButton@@UAE@XZ:
  000d6	b8 00 00 00 00	 mov	 eax, OFFSET FLAT:$T188871
  000db	e9 00 00 00 00	 jmp	 ___CxxFrameHandler
text$x	ENDS
??1CSkinButton@@UAE@XZ ENDP				; CSkinButton::~CSkinButton
PUBLIC	?GetThisMessageMap@CSkinButton@@KGPBUAFX_MSGMAP@@XZ ; CSkinButton::GetThisMessageMap
; Function compile flags: /Odt /RTCsu
_TEXT	SEGMENT
?GetThisMessageMap@CSkinButton@@KGPBUAFX_MSGMAP@@XZ PROC NEAR ; CSkinButton::GetThisMessageMap

; 40   : BEGIN_MESSAGE_MAP(CSkinButton, CButton)

  002a0	55		 push	 ebp
  002a1	8b ec		 mov	 ebp, esp
  002a3	b8 00 00 00 00	 mov	 eax, OFFSET FLAT:?messageMap@CSkinButton@@1UAFX_MSGMAP@@B ; CSkinButton::messageMap
  002a8	5d		 pop	 ebp
  002a9	c3		 ret	 0
?GetThisMessageMap@CSkinButton@@KGPBUAFX_MSGMAP@@XZ ENDP ; CSkinButton::GetThisMessageMap
; Function compile flags: /Odt /RTCsu
_this$ = -4						; size = 4
?GetMessageMap@CSkinButton@@MBEPBUAFX_MSGMAP@@XZ PROC NEAR ; CSkinButton::GetMessageMap
; _this$ = ecx

; 40   : BEGIN_MESSAGE_MAP(CSkinButton, CButton)

  002b0	55		 push	 ebp
  002b1	8b ec		 mov	 ebp, esp
  002b3	51		 push	 ecx
  002b4	c7 45 fc cc cc
	cc cc		 mov	 DWORD PTR [ebp-4], -858993460 ; ccccccccH
  002bb	89 4d fc	 mov	 DWORD PTR _this$[ebp], ecx
  002be	b8 00 00 00 00	 mov	 eax, OFFSET FLAT:?messageMap@CSkinButton@@1UAFX_MSGMAP@@B ; CSkinButton::messageMap
  002c3	8b e5		 mov	 esp, ebp
  002c5	5d		 pop	 ebp
  002c6	c3		 ret	 0
?GetMessageMap@CSkinButton@@MBEPBUAFX_MSGMAP@@XZ ENDP	; CSkinButton::GetMessageMap
_TEXT	ENDS
PUBLIC	??0Graphics@Gdiplus@@QAE@PAUHDC__@@@Z		; Gdiplus::Graphics::Graphics
PUBLIC	??1Graphics@Gdiplus@@QAE@XZ			; Gdiplus::Graphics::~Graphics
PUBLIC	?DrawButton@CButtonDraw@@QAEXPAVCWnd@@PAUtagDRAWITEMSTRUCT@@HHAAV?$CStringT@DV?$StrTraitMFC_DLL@DV?$ChTraitsCRT@D@ATL@@@@@ATL@@KKPAVCBitmap@@@Z ; CButtonDraw::DrawButton
PUBLIC	?GetText@CSkinButton@@QBE?AV?$CStringT@DV?$StrTraitMFC_DLL@DV?$ChTraitsCRT@D@ATL@@@@@ATL@@XZ ; CSkinButton::GetText
PUBLIC	?DrawImage@CSkinButton@@QAEXAAVGraphics@Gdiplus@@@Z ; CSkinButton::DrawImage
EXTRN	?AfxAssertFailedLine@@YGHPBDH@Z:NEAR		; AfxAssertFailedLine
EXTRN	@_RTC_CheckStackVars@8:NEAR
EXTRN	__imp_?Trim@?$CStringT@DV?$StrTraitMFC_DLL@DV?$ChTraitsCRT@D@ATL@@@@@ATL@@QAEAAV12@XZ:NEAR
xdata$x	SEGMENT
$T188888 DD	0ffffffffH
	DD	FLAT:$L188878
	DD	00H
	DD	FLAT:$L188879
$T188881 DD	019930520H
	DD	02H
	DD	FLAT:$T188888
	DD	2 DUP(00H)
	DD	2 DUP(00H)
; Function compile flags: /Odt /RTCsu
xdata$x	ENDS
_TEXT	SEGMENT
_graphics$187742 = -40					; size = 8
_lstrTitle$ = -24					; size = 4
_this$ = -16						; size = 4
__$EHRec$ = -12						; size = 12
_lpDrawItemStruct$ = 8					; size = 4
?DrawItem@CSkinButton@@MAEXPAUtagDRAWITEMSTRUCT@@@Z PROC NEAR ; CSkinButton::DrawItem
; _this$ = ecx

; 57   : {

  002d0	55		 push	 ebp
  002d1	8b ec		 mov	 ebp, esp
  002d3	6a ff		 push	 -1
  002d5	68 00 00 00 00	 push	 __ehhandler$?DrawItem@CSkinButton@@MAEXPAUtagDRAWITEMSTRUCT@@@Z
  002da	64 a1 00 00 00
	00		 mov	 eax, DWORD PTR fs:__except_list
  002e0	50		 push	 eax
  002e1	64 89 25 00 00
	00 00		 mov	 DWORD PTR fs:__except_list, esp
  002e8	83 ec 20	 sub	 esp, 32			; 00000020H
  002eb	56		 push	 esi
  002ec	b8 cc cc cc cc	 mov	 eax, -858993460		; ccccccccH
  002f1	89 45 d4	 mov	 DWORD PTR [ebp-44], eax
  002f4	89 45 d8	 mov	 DWORD PTR [ebp-40], eax
  002f7	89 45 dc	 mov	 DWORD PTR [ebp-36], eax
  002fa	89 45 e0	 mov	 DWORD PTR [ebp-32], eax
  002fd	89 45 e4	 mov	 DWORD PTR [ebp-28], eax
  00300	89 45 e8	 mov	 DWORD PTR [ebp-24], eax
  00303	89 45 ec	 mov	 DWORD PTR [ebp-20], eax
  00306	89 45 f0	 mov	 DWORD PTR [ebp-16], eax
  00309	89 4d f0	 mov	 DWORD PTR _this$[ebp], ecx

; 58   : 
; 59   : 	ASSERT(lpDrawItemStruct != NULL);

  0030c	83 7d 08 00	 cmp	 DWORD PTR _lpDrawItemStruct$[ebp], 0
  00310	75 11		 jne	 SHORT $L188877
  00312	6a 3b		 push	 59			; 0000003bH
  00314	68 00 00 00 00	 push	 OFFSET FLAT:$SG187738
  00319	e8 00 00 00 00	 call	 ?AfxAssertFailedLine@@YGHPBDH@Z ; AfxAssertFailedLine
  0031e	85 c0		 test	 eax, eax
  00320	74 01		 je	 SHORT $L188877
  00322	cc		 int	 3
$L188877:

; 60   : 	CString lstrTitle = GetText();

  00323	8d 4d e8	 lea	 ecx, DWORD PTR _lstrTitle$[ebp]
  00326	51		 push	 ecx
  00327	8b 4d f0	 mov	 ecx, DWORD PTR _this$[ebp]
  0032a	e8 00 00 00 00	 call	 ?GetText@CSkinButton@@QBE?AV?$CStringT@DV?$StrTraitMFC_DLL@DV?$ChTraitsCRT@D@ATL@@@@@ATL@@XZ ; CSkinButton::GetText
  0032f	c7 45 fc 00 00
	00 00		 mov	 DWORD PTR __$EHRec$[ebp+8], 0

; 61   : 	lstrTitle.Trim();

  00336	8b f4		 mov	 esi, esp
  00338	8d 4d e8	 lea	 ecx, DWORD PTR _lstrTitle$[ebp]
  0033b	ff 15 00 00 00
	00		 call	 DWORD PTR __imp_?Trim@?$CStringT@DV?$StrTraitMFC_DLL@DV?$ChTraitsCRT@D@ATL@@@@@ATL@@QAEAAV12@XZ
  00341	3b f4		 cmp	 esi, esp
  00343	e8 00 00 00 00	 call	 __RTC_CheckEsp

; 62   : 	m_ButtonDraw.DrawButton(this, lpDrawItemStruct,m_bottonType, mbMouseOnButton,lstrTitle, m_colBegain, m_colEnd,m_BitMap);

  00348	8b 55 f0	 mov	 edx, DWORD PTR _this$[ebp]
  0034b	8b 42 6c	 mov	 eax, DWORD PTR [edx+108]
  0034e	50		 push	 eax
  0034f	8b 4d f0	 mov	 ecx, DWORD PTR _this$[ebp]
  00352	8b 91 20 01 00
	00		 mov	 edx, DWORD PTR [ecx+288]
  00358	52		 push	 edx
  00359	8b 45 f0	 mov	 eax, DWORD PTR _this$[ebp]
  0035c	8b 88 1c 01 00
	00		 mov	 ecx, DWORD PTR [eax+284]
  00362	51		 push	 ecx
  00363	8d 55 e8	 lea	 edx, DWORD PTR _lstrTitle$[ebp]
  00366	52		 push	 edx
  00367	8b 45 f0	 mov	 eax, DWORD PTR _this$[ebp]
  0036a	8b 88 f8 00 00
	00		 mov	 ecx, DWORD PTR [eax+248]
  00370	51		 push	 ecx
  00371	8b 55 f0	 mov	 edx, DWORD PTR _this$[ebp]
  00374	8b 82 24 01 00
	00		 mov	 eax, DWORD PTR [edx+292]
  0037a	50		 push	 eax
  0037b	8b 4d 08	 mov	 ecx, DWORD PTR _lpDrawItemStruct$[ebp]
  0037e	51		 push	 ecx
  0037f	8b 55 f0	 mov	 edx, DWORD PTR _this$[ebp]
  00382	52		 push	 edx
  00383	8b 4d f0	 mov	 ecx, DWORD PTR _this$[ebp]
  00386	83 c1 58	 add	 ecx, 88			; 00000058H
  00389	e8 00 00 00 00	 call	 ?DrawButton@CButtonDraw@@QAEXPAVCWnd@@PAUtagDRAWITEMSTRUCT@@HHAAV?$CStringT@DV?$StrTraitMFC_DLL@DV?$ChTraitsCRT@D@ATL@@@@@ATL@@KKPAVCBitmap@@@Z ; CButtonDraw::DrawButton

; 63   : 
; 64   : 	if( m_pPngImage && m_pPngImage->m_pBitmap && m_bSelected ) 

  0038e	8b 45 f0	 mov	 eax, DWORD PTR _this$[ebp]
  00391	83 b8 28 01 00
	00 00		 cmp	 DWORD PTR [eax+296], 0
  00398	74 48		 je	 SHORT $L187741
  0039a	8b 4d f0	 mov	 ecx, DWORD PTR _this$[ebp]
  0039d	8b 91 28 01 00
	00		 mov	 edx, DWORD PTR [ecx+296]
  003a3	83 7a 04 00	 cmp	 DWORD PTR [edx+4], 0
  003a7	74 39		 je	 SHORT $L187741
  003a9	8b 45 f0	 mov	 eax, DWORD PTR _this$[ebp]
  003ac	0f b6 88 f0 00
	00 00		 movzx	 ecx, BYTE PTR [eax+240]
  003b3	85 c9		 test	 ecx, ecx
  003b5	74 2b		 je	 SHORT $L187741

; 65   : 	{
; 66   : 		Gdiplus::Graphics graphics(lpDrawItemStruct->hDC);

  003b7	8b 55 08	 mov	 edx, DWORD PTR _lpDrawItemStruct$[ebp]
  003ba	8b 42 18	 mov	 eax, DWORD PTR [edx+24]
  003bd	50		 push	 eax
  003be	8d 4d d8	 lea	 ecx, DWORD PTR _graphics$187742[ebp]
  003c1	e8 00 00 00 00	 call	 ??0Graphics@Gdiplus@@QAE@PAUHDC__@@@Z ; Gdiplus::Graphics::Graphics
  003c6	c6 45 fc 01	 mov	 BYTE PTR __$EHRec$[ebp+8], 1

; 67   : 		DrawImage(graphics);

  003ca	8d 4d d8	 lea	 ecx, DWORD PTR _graphics$187742[ebp]
  003cd	51		 push	 ecx
  003ce	8b 4d f0	 mov	 ecx, DWORD PTR _this$[ebp]
  003d1	e8 00 00 00 00	 call	 ?DrawImage@CSkinButton@@QAEXAAVGraphics@Gdiplus@@@Z ; CSkinButton::DrawImage

; 68   : 	}

  003d6	c6 45 fc 00	 mov	 BYTE PTR __$EHRec$[ebp+8], 0
  003da	8d 4d d8	 lea	 ecx, DWORD PTR _graphics$187742[ebp]
  003dd	e8 00 00 00 00	 call	 ??1Graphics@Gdiplus@@QAE@XZ ; Gdiplus::Graphics::~Graphics
$L187741:

; 69   : }

  003e2	c7 45 fc ff ff
	ff ff		 mov	 DWORD PTR __$EHRec$[ebp+8], -1
  003e9	8b f4		 mov	 esi, esp
  003eb	8d 4d e8	 lea	 ecx, DWORD PTR _lstrTitle$[ebp]
  003ee	ff 15 00 00 00
	00		 call	 DWORD PTR __imp_??1?$CStringT@DV?$StrTraitMFC_DLL@DV?$ChTraitsCRT@D@ATL@@@@@ATL@@QAE@XZ
  003f4	3b f4		 cmp	 esi, esp
  003f6	e8 00 00 00 00	 call	 __RTC_CheckEsp
  003fb	52		 push	 edx
  003fc	8b cd		 mov	 ecx, ebp
  003fe	50		 push	 eax
  003ff	8d 15 00 00 00
	00		 lea	 edx, DWORD PTR $L188886
  00405	e8 00 00 00 00	 call	 @_RTC_CheckStackVars@8
  0040a	58		 pop	 eax
  0040b	5a		 pop	 edx
  0040c	8b 4d f4	 mov	 ecx, DWORD PTR __$EHRec$[ebp]
  0040f	64 89 0d 00 00
	00 00		 mov	 DWORD PTR fs:__except_list, ecx
  00416	5e		 pop	 esi
  00417	83 c4 2c	 add	 esp, 44			; 0000002cH
  0041a	3b ec		 cmp	 ebp, esp
  0041c	e8 00 00 00 00	 call	 __RTC_CheckEsp
  00421	8b e5		 mov	 esp, ebp
  00423	5d		 pop	 ebp
  00424	c2 04 00	 ret	 4
$L188886:
  00427	02 00 00 00	 DD	 2
  0042b	00 00 00 00	 DD	 $L188885
$L188885:
  0042f	e8 ff ff ff	 DD	 -24			; ffffffe8H
  00433	04 00 00 00	 DD	 4
  00437	00 00 00 00	 DD	 $L188882
  0043b	d8 ff ff ff	 DD	 -40			; ffffffd8H
  0043f	08 00 00 00	 DD	 8
  00443	00 00 00 00	 DD	 $L188883
$L188883:
  00447	67		 DB	 103			; 00000067H
  00448	72		 DB	 114			; 00000072H
  00449	61		 DB	 97			; 00000061H
  0044a	70		 DB	 112			; 00000070H
  0044b	68		 DB	 104			; 00000068H
  0044c	69		 DB	 105			; 00000069H
  0044d	63		 DB	 99			; 00000063H
  0044e	73		 DB	 115			; 00000073H
  0044f	00		 DB	 0
$L188882:
  00450	6c		 DB	 108			; 0000006cH
  00451	73		 DB	 115			; 00000073H
  00452	74		 DB	 116			; 00000074H
  00453	72		 DB	 114			; 00000072H
  00454	54		 DB	 84			; 00000054H
  00455	69		 DB	 105			; 00000069H
  00456	74		 DB	 116			; 00000074H
  00457	6c		 DB	 108			; 0000006cH
  00458	65		 DB	 101			; 00000065H
  00459	00		 DB	 0
_TEXT	ENDS
text$x	SEGMENT
$L188878:
  000e0	8b f4		 mov	 esi, esp
  000e2	8d 4d e8	 lea	 ecx, DWORD PTR _lstrTitle$[ebp]
  000e5	ff 15 00 00 00
	00		 call	 DWORD PTR __imp_??1?$CStringT@DV?$StrTraitMFC_DLL@DV?$ChTraitsCRT@D@ATL@@@@@ATL@@QAE@XZ
  000eb	3b f4		 cmp	 esi, esp
  000ed	e9 00 00 00 00	 jmp	 __RTC_CheckEsp
$L188879:
  000f2	8d 4d d8	 lea	 ecx, DWORD PTR _graphics$187742[ebp]
  000f5	e9 00 00 00 00	 jmp	 ??1Graphics@Gdiplus@@QAE@XZ ; Gdiplus::Graphics::~Graphics
__ehhandler$?DrawItem@CSkinButton@@MAEXPAUtagDRAWITEMSTRUCT@@@Z:
  000fa	b8 00 00 00 00	 mov	 eax, OFFSET FLAT:$T188881
  000ff	e9 00 00 00 00	 jmp	 ___CxxFrameHandler
text$x	ENDS
?DrawItem@CSkinButton@@MAEXPAUtagDRAWITEMSTRUCT@@@Z ENDP ; CSkinButton::DrawItem
EXTRN	__imp_??0?$CStringT@DV?$StrTraitMFC_DLL@DV?$ChTraitsCRT@D@ATL@@@@@ATL@@QAE@ABV01@@Z:NEAR
; Function compile flags: /Odt /RTCsu
; File d:\boxgit\playbox\playbox\dev\prj\playbox\src\layoutmgr\changecolor\skinbotton.h
;	COMDAT ?GetText@CSkinButton@@QBE?AV?$CStringT@DV?$StrTraitMFC_DLL@DV?$ChTraitsCRT@D@ATL@@@@@ATL@@XZ
_TEXT	SEGMENT
$T188891 = -8						; size = 4
_this$ = -4						; size = 4
___$ReturnUdt$ = 8					; size = 4
?GetText@CSkinButton@@QBE?AV?$CStringT@DV?$StrTraitMFC_DLL@DV?$ChTraitsCRT@D@ATL@@@@@ATL@@XZ PROC NEAR ; CSkinButton::GetText, COMDAT
; _this$ = ecx

; 110  : 	CString GetText()const { return m_string; }

  00000	55		 push	 ebp
  00001	8b ec		 mov	 ebp, esp
  00003	83 ec 08	 sub	 esp, 8
  00006	56		 push	 esi
  00007	c7 45 f8 cc cc
	cc cc		 mov	 DWORD PTR [ebp-8], -858993460 ; ccccccccH
  0000e	c7 45 fc cc cc
	cc cc		 mov	 DWORD PTR [ebp-4], -858993460 ; ccccccccH
  00015	89 4d fc	 mov	 DWORD PTR _this$[ebp], ecx
  00018	c7 45 f8 00 00
	00 00		 mov	 DWORD PTR $T188891[ebp], 0
  0001f	8b 45 fc	 mov	 eax, DWORD PTR _this$[ebp]
  00022	05 18 01 00 00	 add	 eax, 280		; 00000118H
  00027	8b f4		 mov	 esi, esp
  00029	50		 push	 eax
  0002a	8b 4d 08	 mov	 ecx, DWORD PTR ___$ReturnUdt$[ebp]
  0002d	ff 15 00 00 00
	00		 call	 DWORD PTR __imp_??0?$CStringT@DV?$StrTraitMFC_DLL@DV?$ChTraitsCRT@D@ATL@@@@@ATL@@QAE@ABV01@@Z
  00033	3b f4		 cmp	 esi, esp
  00035	e8 00 00 00 00	 call	 __RTC_CheckEsp
  0003a	8b 4d f8	 mov	 ecx, DWORD PTR $T188891[ebp]
  0003d	83 c9 01	 or	 ecx, 1
  00040	89 4d f8	 mov	 DWORD PTR $T188891[ebp], ecx
  00043	8b 45 08	 mov	 eax, DWORD PTR ___$ReturnUdt$[ebp]
  00046	5e		 pop	 esi
  00047	83 c4 08	 add	 esp, 8
  0004a	3b ec		 cmp	 ebp, esp
  0004c	e8 00 00 00 00	 call	 __RTC_CheckEsp
  00051	8b e5		 mov	 esp, ebp
  00053	5d		 pop	 ebp
  00054	c2 04 00	 ret	 4
?GetText@CSkinButton@@QBE?AV?$CStringT@DV?$StrTraitMFC_DLL@DV?$ChTraitsCRT@D@ATL@@@@@ATL@@XZ ENDP ; CSkinButton::GetText
_TEXT	ENDS
PUBLIC	??0CTraceFileAndLineInfo@ATL@@QAE@PBDH@Z	; ATL::CTraceFileAndLineInfo::CTraceFileAndLineInfo
PUBLIC	??RCTraceFileAndLineInfo@ATL@@QBAXPBDZZ		; ATL::CTraceFileAndLineInfo::operator()
EXTRN	?Invalidate@CWnd@@QAEXH@Z:NEAR			; CWnd::Invalidate
; Function compile flags: /Odt /RTCsu
; File d:\boxgit\playbox\playbox\dev\prj\playbox\src\layoutmgr\changecolor\skinbotton.cpp
_TEXT	SEGMENT
$T188894 = -12						; size = 8
_this$ = -4						; size = 4
_wParam$ = 8						; size = 4
_lParam$ = 12						; size = 4
?OnMouseHover@CSkinButton@@IAEJIJ@Z PROC NEAR		; CSkinButton::OnMouseHover
; _this$ = ecx

; 71   : { 	

  00460	55		 push	 ebp
  00461	8b ec		 mov	 ebp, esp
  00463	83 ec 0c	 sub	 esp, 12			; 0000000cH
  00466	c7 45 f4 cc cc
	cc cc		 mov	 DWORD PTR [ebp-12], -858993460 ; ccccccccH
  0046d	c7 45 f8 cc cc
	cc cc		 mov	 DWORD PTR [ebp-8], -858993460 ; ccccccccH
  00474	c7 45 fc cc cc
	cc cc		 mov	 DWORD PTR [ebp-4], -858993460 ; ccccccccH
  0047b	89 4d fc	 mov	 DWORD PTR _this$[ebp], ecx

; 72   : 	mbMouseOnButton = true;

  0047e	8b 45 fc	 mov	 eax, DWORD PTR _this$[ebp]
  00481	c7 80 f8 00 00
	00 01 00 00 00	 mov	 DWORD PTR [eax+248], 1

; 73   : 	this->Invalidate();

  0048b	6a 01		 push	 1
  0048d	8b 4d fc	 mov	 ecx, DWORD PTR _this$[ebp]
  00490	e8 00 00 00 00	 call	 ?Invalidate@CWnd@@QAEXH@Z ; CWnd::Invalidate

; 74   : 
; 75   : 	TRACE("OnBtn\n");

  00495	68 00 00 00 00	 push	 OFFSET FLAT:$SG187750
  0049a	6a 4b		 push	 75			; 0000004bH
  0049c	68 00 00 00 00	 push	 OFFSET FLAT:$SG187749
  004a1	8d 4d f4	 lea	 ecx, DWORD PTR $T188894[ebp]
  004a4	e8 00 00 00 00	 call	 ??0CTraceFileAndLineInfo@ATL@@QAE@PBDH@Z ; ATL::CTraceFileAndLineInfo::CTraceFileAndLineInfo
  004a9	50		 push	 eax
  004aa	e8 00 00 00 00	 call	 ??RCTraceFileAndLineInfo@ATL@@QBAXPBDZZ ; ATL::CTraceFileAndLineInfo::operator()
  004af	83 c4 08	 add	 esp, 8

; 76   : 	return 1;

  004b2	b8 01 00 00 00	 mov	 eax, 1

; 77   : } 

  004b7	83 c4 0c	 add	 esp, 12			; 0000000cH
  004ba	3b ec		 cmp	 ebp, esp
  004bc	e8 00 00 00 00	 call	 __RTC_CheckEsp
  004c1	8b e5		 mov	 esp, ebp
  004c3	5d		 pop	 ebp
  004c4	c2 08 00	 ret	 8
?OnMouseHover@CSkinButton@@IAEJIJ@Z ENDP		; CSkinButton::OnMouseHover
; Function compile flags: /Odt /RTCsu
$T188896 = -12						; size = 8
_this$ = -4						; size = 4
_wParam$ = 8						; size = 4
_lParam$ = 12						; size = 4
?OnMouseLeave@CSkinButton@@IAEJIJ@Z PROC NEAR		; CSkinButton::OnMouseLeave
; _this$ = ecx

; 79   : { 	

  004d0	55		 push	 ebp
  004d1	8b ec		 mov	 ebp, esp
  004d3	83 ec 0c	 sub	 esp, 12			; 0000000cH
  004d6	c7 45 f4 cc cc
	cc cc		 mov	 DWORD PTR [ebp-12], -858993460 ; ccccccccH
  004dd	c7 45 f8 cc cc
	cc cc		 mov	 DWORD PTR [ebp-8], -858993460 ; ccccccccH
  004e4	c7 45 fc cc cc
	cc cc		 mov	 DWORD PTR [ebp-4], -858993460 ; ccccccccH
  004eb	89 4d fc	 mov	 DWORD PTR _this$[ebp], ecx

; 80   : 	mbMouseOnButton = false;

  004ee	8b 45 fc	 mov	 eax, DWORD PTR _this$[ebp]
  004f1	c7 80 f8 00 00
	00 00 00 00 00	 mov	 DWORD PTR [eax+248], 0

; 81   : 	this->Invalidate();

  004fb	6a 01		 push	 1
  004fd	8b 4d fc	 mov	 ecx, DWORD PTR _this$[ebp]
  00500	e8 00 00 00 00	 call	 ?Invalidate@CWnd@@QAEXH@Z ; CWnd::Invalidate

; 82   : 	TRACE("LeaveBtn\n");

  00505	68 00 00 00 00	 push	 OFFSET FLAT:$SG187758
  0050a	6a 52		 push	 82			; 00000052H
  0050c	68 00 00 00 00	 push	 OFFSET FLAT:$SG187757
  00511	8d 4d f4	 lea	 ecx, DWORD PTR $T188896[ebp]
  00514	e8 00 00 00 00	 call	 ??0CTraceFileAndLineInfo@ATL@@QAE@PBDH@Z ; ATL::CTraceFileAndLineInfo::CTraceFileAndLineInfo
  00519	50		 push	 eax
  0051a	e8 00 00 00 00	 call	 ??RCTraceFileAndLineInfo@ATL@@QBAXPBDZZ ; ATL::CTraceFileAndLineInfo::operator()
  0051f	83 c4 08	 add	 esp, 8

; 83   : 	return 1;

  00522	b8 01 00 00 00	 mov	 eax, 1

; 84   : }

  00527	83 c4 0c	 add	 esp, 12			; 0000000cH
  0052a	3b ec		 cmp	 ebp, esp
  0052c	e8 00 00 00 00	 call	 __RTC_CheckEsp
  00531	8b e5		 mov	 esp, ebp
  00533	5d		 pop	 ebp
  00534	c2 08 00	 ret	 8
?OnMouseLeave@CSkinButton@@IAEJIJ@Z ENDP		; CSkinButton::OnMouseLeave
_TEXT	ENDS
PUBLIC	?RelayEvent@CSkinButton@@QAEXIIJ@Z		; CSkinButton::RelayEvent
EXTRN	?OnMouseMove@CWnd@@IAEXIVCPoint@@@Z:NEAR	; CWnd::OnMouseMove
EXTRN	__imp__SetCursor@4:NEAR
EXTRN	__imp___TrackMouseEvent@4:NEAR
EXTRN	__imp__LoadCursorA@8:NEAR
; Function compile flags: /Odt /RTCsu
_TEXT	SEGMENT
$T188898 = -36						; size = 8
_tme$187779 = -24					; size = 16
_this$ = -4						; size = 4
_nFlags$ = 8						; size = 4
_point$ = 12						; size = 8
?OnMouseMove@CSkinButton@@QAEXIVCPoint@@@Z PROC NEAR	; CSkinButton::OnMouseMove
; _this$ = ecx

; 86   : {

  00540	55		 push	 ebp
  00541	8b ec		 mov	 ebp, esp
  00543	83 ec 24	 sub	 esp, 36			; 00000024H
  00546	56		 push	 esi
  00547	b8 cc cc cc cc	 mov	 eax, -858993460		; ccccccccH
  0054c	89 45 dc	 mov	 DWORD PTR [ebp-36], eax
  0054f	89 45 e0	 mov	 DWORD PTR [ebp-32], eax
  00552	89 45 e4	 mov	 DWORD PTR [ebp-28], eax
  00555	89 45 e8	 mov	 DWORD PTR [ebp-24], eax
  00558	89 45 ec	 mov	 DWORD PTR [ebp-20], eax
  0055b	89 45 f0	 mov	 DWORD PTR [ebp-16], eax
  0055e	89 45 f4	 mov	 DWORD PTR [ebp-12], eax
  00561	89 45 f8	 mov	 DWORD PTR [ebp-8], eax
  00564	89 45 fc	 mov	 DWORD PTR [ebp-4], eax
  00567	89 4d fc	 mov	 DWORD PTR _this$[ebp], ecx

; 87   : 	if(m_bshowTip)

  0056a	8b 45 fc	 mov	 eax, DWORD PTR _this$[ebp]
  0056d	0f b6 88 f1 00
	00 00		 movzx	 ecx, BYTE PTR [eax+241]
  00574	85 c9		 test	 ecx, ecx
  00576	74 3f		 je	 SHORT $L187764

; 88   : 	{
; 89   : 		RelayEvent(WM_MOUSEMOVE,(WPARAM)nFlags,MAKELPARAM(LOWORD(point.x),LOWORD(point.y)));

  00578	8b 55 0c	 mov	 edx, DWORD PTR _point$[ebp]
  0057b	81 e2 ff ff 00
	00		 and	 edx, 65535		; 0000ffffH
  00581	0f b7 c2	 movzx	 eax, dx
  00584	25 ff ff 00 00	 and	 eax, 65535		; 0000ffffH
  00589	0f b7 c8	 movzx	 ecx, ax
  0058c	8b 55 10	 mov	 edx, DWORD PTR _point$[ebp+4]
  0058f	81 e2 ff ff 00
	00		 and	 edx, 65535		; 0000ffffH
  00595	0f b7 c2	 movzx	 eax, dx
  00598	25 ff ff 00 00	 and	 eax, 65535		; 0000ffffH
  0059d	0f b7 d0	 movzx	 edx, ax
  005a0	c1 e2 10	 shl	 edx, 16			; 00000010H
  005a3	0b ca		 or	 ecx, edx
  005a5	51		 push	 ecx
  005a6	8b 45 08	 mov	 eax, DWORD PTR _nFlags$[ebp]
  005a9	50		 push	 eax
  005aa	68 00 02 00 00	 push	 512			; 00000200H
  005af	8b 4d fc	 mov	 ecx, DWORD PTR _this$[ebp]
  005b2	e8 00 00 00 00	 call	 ?RelayEvent@CSkinButton@@QAEXIIJ@Z ; CSkinButton::RelayEvent
$L187764:

; 90   : 	}
; 91   : 	CButton::OnMouseMove(nFlags, point);

  005b7	8b 4d 10	 mov	 ecx, DWORD PTR _point$[ebp+4]
  005ba	51		 push	 ecx
  005bb	8b 55 0c	 mov	 edx, DWORD PTR _point$[ebp]
  005be	52		 push	 edx
  005bf	8b 45 08	 mov	 eax, DWORD PTR _nFlags$[ebp]
  005c2	50		 push	 eax
  005c3	8b 4d fc	 mov	 ecx, DWORD PTR _this$[ebp]
  005c6	e8 00 00 00 00	 call	 ?OnMouseMove@CWnd@@IAEXIVCPoint@@@Z ; CWnd::OnMouseMove

; 92   : 	if   (!mbMouseOnButton) 

  005cb	8b 4d fc	 mov	 ecx, DWORD PTR _this$[ebp]
  005ce	83 b9 f8 00 00
	00 00		 cmp	 DWORD PTR [ecx+248], 0
  005d5	75 59		 jne	 SHORT $L187778

; 93   : 	{ 
; 94   : 		TRACKMOUSEEVENT   tme; 
; 95   : 		tme.cbSize   =   sizeof(tme); 

  005d7	c7 45 e8 10 00
	00 00		 mov	 DWORD PTR _tme$187779[ebp], 16 ; 00000010H

; 96   : 		tme.hwndTrack   =   m_hWnd; 

  005de	8b 55 fc	 mov	 edx, DWORD PTR _this$[ebp]
  005e1	8b 42 20	 mov	 eax, DWORD PTR [edx+32]
  005e4	89 45 f0	 mov	 DWORD PTR _tme$187779[ebp+8], eax

; 97   : 		tme.dwFlags   =   TME_LEAVE   |   TME_HOVER; 

  005e7	c7 45 ec 03 00
	00 00		 mov	 DWORD PTR _tme$187779[ebp+4], 3

; 98   : 		tme.dwHoverTime   =   1; 

  005ee	c7 45 f4 01 00
	00 00		 mov	 DWORD PTR _tme$187779[ebp+12], 1

; 99   : 		mbMouseOnButton   =   _TrackMouseEvent(&tme); 

  005f5	8b f4		 mov	 esi, esp
  005f7	8d 4d e8	 lea	 ecx, DWORD PTR _tme$187779[ebp]
  005fa	51		 push	 ecx
  005fb	ff 15 00 00 00
	00		 call	 DWORD PTR __imp___TrackMouseEvent@4
  00601	3b f4		 cmp	 esi, esp
  00603	e8 00 00 00 00	 call	 __RTC_CheckEsp
  00608	8b 55 fc	 mov	 edx, DWORD PTR _this$[ebp]
  0060b	89 82 f8 00 00
	00		 mov	 DWORD PTR [edx+248], eax

; 100  : 
; 101  : 		TRACE("MouseMove\n");

  00611	68 00 00 00 00	 push	 OFFSET FLAT:$SG187782
  00616	6a 65		 push	 101			; 00000065H
  00618	68 00 00 00 00	 push	 OFFSET FLAT:$SG187781
  0061d	8d 4d dc	 lea	 ecx, DWORD PTR $T188898[ebp]
  00620	e8 00 00 00 00	 call	 ??0CTraceFileAndLineInfo@ATL@@QAE@PBDH@Z ; ATL::CTraceFileAndLineInfo::CTraceFileAndLineInfo
  00625	50		 push	 eax
  00626	e8 00 00 00 00	 call	 ??RCTraceFileAndLineInfo@ATL@@QBAXPBDZZ ; ATL::CTraceFileAndLineInfo::operator()
  0062b	83 c4 08	 add	 esp, 8

; 102  : 	} 
; 103  : 	else

  0062e	eb 26		 jmp	 SHORT $L187763
$L187778:

; 104  : 	{
; 105  : #ifndef IDC_HAND
; 106  : #define IDC_HAND            MAKEINTRESOURCE(32649)
; 107  : #endif
; 108  : 		::SetCursor(::LoadCursor(NULL, IDC_HAND));

  00630	8b f4		 mov	 esi, esp
  00632	68 89 7f 00 00	 push	 32649			; 00007f89H
  00637	6a 00		 push	 0
  00639	ff 15 00 00 00
	00		 call	 DWORD PTR __imp__LoadCursorA@8
  0063f	3b f4		 cmp	 esi, esp
  00641	e8 00 00 00 00	 call	 __RTC_CheckEsp
  00646	8b f4		 mov	 esi, esp
  00648	50		 push	 eax
  00649	ff 15 00 00 00
	00		 call	 DWORD PTR __imp__SetCursor@4
  0064f	3b f4		 cmp	 esi, esp
  00651	e8 00 00 00 00	 call	 __RTC_CheckEsp
$L187763:

; 109  : 	}
; 110  : }

  00656	52		 push	 edx
  00657	8b cd		 mov	 ecx, ebp
  00659	50		 push	 eax
  0065a	8d 15 00 00 00
	00		 lea	 edx, DWORD PTR $L188901
  00660	e8 00 00 00 00	 call	 @_RTC_CheckStackVars@8
  00665	58		 pop	 eax
  00666	5a		 pop	 edx
  00667	5e		 pop	 esi
  00668	83 c4 24	 add	 esp, 36			; 00000024H
  0066b	3b ec		 cmp	 ebp, esp
  0066d	e8 00 00 00 00	 call	 __RTC_CheckEsp
  00672	8b e5		 mov	 esp, ebp
  00674	5d		 pop	 ebp
  00675	c2 0c 00	 ret	 12			; 0000000cH
$L188901:
  00678	01 00 00 00	 DD	 1
  0067c	00 00 00 00	 DD	 $L188900
$L188900:
  00680	e8 ff ff ff	 DD	 -24			; ffffffe8H
  00684	10 00 00 00	 DD	 16			; 00000010H
  00688	00 00 00 00	 DD	 $L188899
$L188899:
  0068c	74		 DB	 116			; 00000074H
  0068d	6d		 DB	 109			; 0000006dH
  0068e	65		 DB	 101			; 00000065H
  0068f	00		 DB	 0
?OnMouseMove@CSkinButton@@QAEXIVCPoint@@@Z ENDP		; CSkinButton::OnMouseMove
_TEXT	ENDS
EXTRN	?OnLButtonDown@CWnd@@IAEXIVCPoint@@@Z:NEAR	; CWnd::OnLButtonDown
; Function compile flags: /Odt /RTCsu
_TEXT	SEGMENT
_this$ = -4						; size = 4
_nFlags$ = 8						; size = 4
_point$ = 12						; size = 8
?OnLButtonDown@CSkinButton@@QAEXIVCPoint@@@Z PROC NEAR	; CSkinButton::OnLButtonDown
; _this$ = ecx

; 113  : {

  00690	55		 push	 ebp
  00691	8b ec		 mov	 ebp, esp
  00693	51		 push	 ecx
  00694	56		 push	 esi
  00695	c7 45 fc cc cc
	cc cc		 mov	 DWORD PTR [ebp-4], -858993460 ; ccccccccH
  0069c	89 4d fc	 mov	 DWORD PTR _this$[ebp], ecx

; 114  : 	RelayEvent(WM_LBUTTONDOWN,(WPARAM)nFlags,MAKELPARAM(LOWORD(point.x),LOWORD(point.y)));

  0069f	8b 45 0c	 mov	 eax, DWORD PTR _point$[ebp]
  006a2	25 ff ff 00 00	 and	 eax, 65535		; 0000ffffH
  006a7	0f b7 c8	 movzx	 ecx, ax
  006aa	81 e1 ff ff 00
	00		 and	 ecx, 65535		; 0000ffffH
  006b0	0f b7 d1	 movzx	 edx, cx
  006b3	8b 45 10	 mov	 eax, DWORD PTR _point$[ebp+4]
  006b6	25 ff ff 00 00	 and	 eax, 65535		; 0000ffffH
  006bb	0f b7 c8	 movzx	 ecx, ax
  006be	81 e1 ff ff 00
	00		 and	 ecx, 65535		; 0000ffffH
  006c4	0f b7 c1	 movzx	 eax, cx
  006c7	c1 e0 10	 shl	 eax, 16			; 00000010H
  006ca	0b d0		 or	 edx, eax
  006cc	52		 push	 edx
  006cd	8b 4d 08	 mov	 ecx, DWORD PTR _nFlags$[ebp]
  006d0	51		 push	 ecx
  006d1	68 01 02 00 00	 push	 513			; 00000201H
  006d6	8b 4d fc	 mov	 ecx, DWORD PTR _this$[ebp]
  006d9	e8 00 00 00 00	 call	 ?RelayEvent@CSkinButton@@QAEXIIJ@Z ; CSkinButton::RelayEvent

; 115  : 	CButton::OnLButtonDown(nFlags, point);

  006de	8b 55 10	 mov	 edx, DWORD PTR _point$[ebp+4]
  006e1	52		 push	 edx
  006e2	8b 45 0c	 mov	 eax, DWORD PTR _point$[ebp]
  006e5	50		 push	 eax
  006e6	8b 4d 08	 mov	 ecx, DWORD PTR _nFlags$[ebp]
  006e9	51		 push	 ecx
  006ea	8b 4d fc	 mov	 ecx, DWORD PTR _this$[ebp]
  006ed	e8 00 00 00 00	 call	 ?OnLButtonDown@CWnd@@IAEXIVCPoint@@@Z ; CWnd::OnLButtonDown

; 116  : 	if( NULL != m_pbtnEventListerner )

  006f2	8b 55 fc	 mov	 edx, DWORD PTR _this$[ebp]
  006f5	83 ba 2c 01 00
	00 00		 cmp	 DWORD PTR [edx+300], 0
  006fc	74 23		 je	 SHORT $L187791

; 117  : 	{
; 118  : 		this->m_pbtnEventListerner->OnCliekButton(this);

  006fe	8b f4		 mov	 esi, esp
  00700	8b 45 fc	 mov	 eax, DWORD PTR _this$[ebp]
  00703	50		 push	 eax
  00704	8b 4d fc	 mov	 ecx, DWORD PTR _this$[ebp]
  00707	8b 91 2c 01 00
	00		 mov	 edx, DWORD PTR [ecx+300]
  0070d	8b 45 fc	 mov	 eax, DWORD PTR _this$[ebp]
  00710	8b 88 2c 01 00
	00		 mov	 ecx, DWORD PTR [eax+300]
  00716	8b 12		 mov	 edx, DWORD PTR [edx]
  00718	ff 12		 call	 DWORD PTR [edx]
  0071a	3b f4		 cmp	 esi, esp
  0071c	e8 00 00 00 00	 call	 __RTC_CheckEsp
$L187791:

; 119  : 	}
; 120  : 	//	::PostMessage(GetParent()->GetSafeHwnd(), MSG_BTN_MOUSEDOWN,::GetWindowLong(this->m_hWnd,GWL_ID ),0 );
; 121  : }

  00721	5e		 pop	 esi
  00722	83 c4 04	 add	 esp, 4
  00725	3b ec		 cmp	 ebp, esp
  00727	e8 00 00 00 00	 call	 __RTC_CheckEsp
  0072c	8b e5		 mov	 esp, ebp
  0072e	5d		 pop	 ebp
  0072f	c2 0c 00	 ret	 12			; 0000000cH
?OnLButtonDown@CSkinButton@@QAEXIVCPoint@@@Z ENDP	; CSkinButton::OnLButtonDown
_TEXT	ENDS
EXTRN	?OnLButtonUp@CWnd@@IAEXIVCPoint@@@Z:NEAR	; CWnd::OnLButtonUp
; Function compile flags: /Odt /RTCsu
_TEXT	SEGMENT
_this$ = -4						; size = 4
_nFlags$ = 8						; size = 4
_point$ = 12						; size = 8
?OnLButtonUp@CSkinButton@@QAEXIVCPoint@@@Z PROC NEAR	; CSkinButton::OnLButtonUp
; _this$ = ecx

; 124  : {

  00740	55		 push	 ebp
  00741	8b ec		 mov	 ebp, esp
  00743	51		 push	 ecx
  00744	c7 45 fc cc cc
	cc cc		 mov	 DWORD PTR [ebp-4], -858993460 ; ccccccccH
  0074b	89 4d fc	 mov	 DWORD PTR _this$[ebp], ecx

; 125  : 	RelayEvent(WM_LBUTTONUP,(WPARAM)nFlags,MAKELPARAM(LOWORD(point.x),LOWORD(point.y)));

  0074e	8b 45 0c	 mov	 eax, DWORD PTR _point$[ebp]
  00751	25 ff ff 00 00	 and	 eax, 65535		; 0000ffffH
  00756	0f b7 c8	 movzx	 ecx, ax
  00759	81 e1 ff ff 00
	00		 and	 ecx, 65535		; 0000ffffH
  0075f	0f b7 d1	 movzx	 edx, cx
  00762	8b 45 10	 mov	 eax, DWORD PTR _point$[ebp+4]
  00765	25 ff ff 00 00	 and	 eax, 65535		; 0000ffffH
  0076a	0f b7 c8	 movzx	 ecx, ax
  0076d	81 e1 ff ff 00
	00		 and	 ecx, 65535		; 0000ffffH
  00773	0f b7 c1	 movzx	 eax, cx
  00776	c1 e0 10	 shl	 eax, 16			; 00000010H
  00779	0b d0		 or	 edx, eax
  0077b	52		 push	 edx
  0077c	8b 4d 08	 mov	 ecx, DWORD PTR _nFlags$[ebp]
  0077f	51		 push	 ecx
  00780	68 02 02 00 00	 push	 514			; 00000202H
  00785	8b 4d fc	 mov	 ecx, DWORD PTR _this$[ebp]
  00788	e8 00 00 00 00	 call	 ?RelayEvent@CSkinButton@@QAEXIIJ@Z ; CSkinButton::RelayEvent

; 126  : 	CButton::OnLButtonUp(nFlags, point);

  0078d	8b 55 10	 mov	 edx, DWORD PTR _point$[ebp+4]
  00790	52		 push	 edx
  00791	8b 45 0c	 mov	 eax, DWORD PTR _point$[ebp]
  00794	50		 push	 eax
  00795	8b 4d 08	 mov	 ecx, DWORD PTR _nFlags$[ebp]
  00798	51		 push	 ecx
  00799	8b 4d fc	 mov	 ecx, DWORD PTR _this$[ebp]
  0079c	e8 00 00 00 00	 call	 ?OnLButtonUp@CWnd@@IAEXIVCPoint@@@Z ; CWnd::OnLButtonUp

; 127  : }

  007a1	83 c4 04	 add	 esp, 4
  007a4	3b ec		 cmp	 ebp, esp
  007a6	e8 00 00 00 00	 call	 __RTC_CheckEsp
  007ab	8b e5		 mov	 esp, ebp
  007ad	5d		 pop	 ebp
  007ae	c2 0c 00	 ret	 12			; 0000000cH
?OnLButtonUp@CSkinButton@@QAEXIVCPoint@@@Z ENDP		; CSkinButton::OnLButtonUp
_TEXT	ENDS
EXTRN	??0CBrush@@QAE@K@Z:NEAR				; CBrush::CBrush
EXTRN	??1CBrush@@UAE@XZ:NEAR				; CBrush::~CBrush
EXTRN	??0CRect@@QAE@XZ:NEAR				; CRect::CRect
EXTRN	?GetClientRect@CWnd@@QBEXPAUtagRECT@@@Z:NEAR	; CWnd::GetClientRect
EXTRN	?FillRect@CDC@@QAEXPBUtagRECT@@PAVCBrush@@@Z:NEAR ; CDC::FillRect
xdata$x	SEGMENT
$T188913 DD	0ffffffffH
	DD	FLAT:$L188906
$T188908 DD	019930520H
	DD	01H
	DD	FLAT:$T188913
	DD	2 DUP(00H)
	DD	2 DUP(00H)
; Function compile flags: /Odt /RTCsu
xdata$x	ENDS
_TEXT	SEGMENT
tv79 = -56						; size = 4
tv80 = -52						; size = 4
$T188905 = -48						; size = 8
_rc$187829 = -36					; size = 16
_this$ = -16						; size = 4
__$EHRec$ = -12						; size = 12
_pDC$ = 8						; size = 4
?OnEraseBkgnd@CSkinButton@@QAEHPAVCDC@@@Z PROC NEAR	; CSkinButton::OnEraseBkgnd
; _this$ = ecx

; 130  : {

  007c0	55		 push	 ebp
  007c1	8b ec		 mov	 ebp, esp
  007c3	6a ff		 push	 -1
  007c5	68 00 00 00 00	 push	 __ehhandler$?OnEraseBkgnd@CSkinButton@@QAEHPAVCDC@@@Z
  007ca	64 a1 00 00 00
	00		 mov	 eax, DWORD PTR fs:__except_list
  007d0	50		 push	 eax
  007d1	64 89 25 00 00
	00 00		 mov	 DWORD PTR fs:__except_list, esp
  007d8	83 ec 2c	 sub	 esp, 44			; 0000002cH
  007db	57		 push	 edi
  007dc	51		 push	 ecx
  007dd	8d 7d c8	 lea	 edi, DWORD PTR [ebp-56]
  007e0	b9 0b 00 00 00	 mov	 ecx, 11			; 0000000bH
  007e5	b8 cc cc cc cc	 mov	 eax, -858993460		; ccccccccH
  007ea	f3 ab		 rep stosd
  007ec	59		 pop	 ecx
  007ed	89 4d f0	 mov	 DWORD PTR _this$[ebp], ecx

; 131  : 
; 132  : 	if( m_bEraseBK )

  007f0	8b 45 f0	 mov	 eax, DWORD PTR _this$[ebp]
  007f3	0f b6 48 54	 movzx	 ecx, BYTE PTR [eax+84]
  007f7	85 c9		 test	 ecx, ecx
  007f9	74 50		 je	 SHORT $L187828

; 133  : 	{
; 134  : 		CRect rc;

  007fb	8d 4d dc	 lea	 ecx, DWORD PTR _rc$187829[ebp]
  007fe	e8 00 00 00 00	 call	 ??0CRect@@QAE@XZ	; CRect::CRect

; 135  : 		this->GetClientRect( &rc );

  00803	8d 55 dc	 lea	 edx, DWORD PTR _rc$187829[ebp]
  00806	52		 push	 edx
  00807	8b 4d f0	 mov	 ecx, DWORD PTR _this$[ebp]
  0080a	e8 00 00 00 00	 call	 ?GetClientRect@CWnd@@QBEXPAUtagRECT@@@Z ; CWnd::GetClientRect

; 136  : 		pDC->FillRect( &rc, &CBrush( RGB(255,255,255) ) );

  0080f	68 ff ff ff 00	 push	 16777215		; 00ffffffH
  00814	8d 4d d0	 lea	 ecx, DWORD PTR $T188905[ebp]
  00817	e8 00 00 00 00	 call	 ??0CBrush@@QAE@K@Z	; CBrush::CBrush
  0081c	89 45 cc	 mov	 DWORD PTR tv80[ebp], eax
  0081f	8b 45 cc	 mov	 eax, DWORD PTR tv80[ebp]
  00822	89 45 c8	 mov	 DWORD PTR tv79[ebp], eax
  00825	c7 45 fc 00 00
	00 00		 mov	 DWORD PTR __$EHRec$[ebp+8], 0
  0082c	8b 4d c8	 mov	 ecx, DWORD PTR tv79[ebp]
  0082f	51		 push	 ecx
  00830	8d 55 dc	 lea	 edx, DWORD PTR _rc$187829[ebp]
  00833	52		 push	 edx
  00834	8b 4d 08	 mov	 ecx, DWORD PTR _pDC$[ebp]
  00837	e8 00 00 00 00	 call	 ?FillRect@CDC@@QAEXPBUtagRECT@@PAVCBrush@@@Z ; CDC::FillRect
  0083c	c7 45 fc ff ff
	ff ff		 mov	 DWORD PTR __$EHRec$[ebp+8], -1
  00843	8d 4d d0	 lea	 ecx, DWORD PTR $T188905[ebp]
  00846	e8 00 00 00 00	 call	 ??1CBrush@@UAE@XZ	; CBrush::~CBrush
$L187828:

; 137  : 		
; 138  : 	}
; 139  : 	return true;

  0084b	b8 01 00 00 00	 mov	 eax, 1

; 140  : }

  00850	52		 push	 edx
  00851	8b cd		 mov	 ecx, ebp
  00853	50		 push	 eax
  00854	8d 15 00 00 00
	00		 lea	 edx, DWORD PTR $L188912
  0085a	e8 00 00 00 00	 call	 @_RTC_CheckStackVars@8
  0085f	58		 pop	 eax
  00860	5a		 pop	 edx
  00861	8b 4d f4	 mov	 ecx, DWORD PTR __$EHRec$[ebp]
  00864	64 89 0d 00 00
	00 00		 mov	 DWORD PTR fs:__except_list, ecx
  0086b	5f		 pop	 edi
  0086c	83 c4 38	 add	 esp, 56			; 00000038H
  0086f	3b ec		 cmp	 ebp, esp
  00871	e8 00 00 00 00	 call	 __RTC_CheckEsp
  00876	8b e5		 mov	 esp, ebp
  00878	5d		 pop	 ebp
  00879	c2 04 00	 ret	 4
$L188912:
  0087c	01 00 00 00	 DD	 1
  00880	00 00 00 00	 DD	 $L188911
$L188911:
  00884	dc ff ff ff	 DD	 -36			; ffffffdcH
  00888	10 00 00 00	 DD	 16			; 00000010H
  0088c	00 00 00 00	 DD	 $L188909
$L188909:
  00890	72		 DB	 114			; 00000072H
  00891	63		 DB	 99			; 00000063H
  00892	00		 DB	 0
_TEXT	ENDS
text$x	SEGMENT
$L188906:
  00104	8d 4d d0	 lea	 ecx, DWORD PTR $T188905[ebp]
  00107	e9 00 00 00 00	 jmp	 ??1CBrush@@UAE@XZ	; CBrush::~CBrush
__ehhandler$?OnEraseBkgnd@CSkinButton@@QAEHPAVCDC@@@Z:
  0010c	b8 00 00 00 00	 mov	 eax, OFFSET FLAT:$T188908
  00111	e9 00 00 00 00	 jmp	 ___CxxFrameHandler
text$x	ENDS
?OnEraseBkgnd@CSkinButton@@QAEHPAVCDC@@@Z ENDP		; CSkinButton::OnEraseBkgnd
PUBLIC	??_7CButtonDraw@@6B@				; CButtonDraw::`vftable'
PUBLIC	??_GCButtonDraw@@UAEPAXI@Z			; CButtonDraw::`scalar deleting destructor'
PUBLIC	??0Color@Gdiplus@@QAE@XZ			; Gdiplus::Color::Color
PUBLIC	?SetValue@Color@Gdiplus@@QAEXK@Z		; Gdiplus::Color::SetValue
PUBLIC	??_R4CButtonDraw@@6B@				; CButtonDraw::`RTTI Complete Object Locator'
PUBLIC	??_R0?AVCButtonDraw@@@8				; CButtonDraw `RTTI Type Descriptor'
PUBLIC	??_R3CButtonDraw@@8				; CButtonDraw::`RTTI Class Hierarchy Descriptor'
PUBLIC	??_R2CButtonDraw@@8				; CButtonDraw::`RTTI Base Class Array'
PUBLIC	??_R1A@?0A@A@CButtonDraw@@8			; CButtonDraw::`RTTI Base Class Descriptor at (0,-1,0,0)'
PUBLIC	?MakeARGB@Color@Gdiplus@@SAKEEEE@Z		; Gdiplus::Color::MakeARGB
EXTRN	??_ECButtonDraw@@UAEPAXI@Z:NEAR			; CButtonDraw::`vector deleting destructor'
;	COMDAT ??_7CButtonDraw@@6B@
CONST	SEGMENT
??_7CButtonDraw@@6B@ DD FLAT:??_R4CButtonDraw@@6B@	; CButtonDraw::`vftable'
	DD	FLAT:??_ECButtonDraw@@UAEPAXI@Z
CONST	ENDS
;	COMDAT ??_R4CButtonDraw@@6B@
rdata$r	SEGMENT
??_R4CButtonDraw@@6B@ DD 00H				; CButtonDraw::`RTTI Complete Object Locator'
	DD	00H
	DD	00H
	DD	FLAT:??_R0?AVCButtonDraw@@@8
	DD	FLAT:??_R3CButtonDraw@@8
rdata$r	ENDS
;	COMDAT ??_R0?AVCButtonDraw@@@8
_DATA	SEGMENT
??_R0?AVCButtonDraw@@@8 DD FLAT:??_7type_info@@6B@	; CButtonDraw `RTTI Type Descriptor'
	DD	00H
	DB	'.?AVCButtonDraw@@', 00H
_DATA	ENDS
;	COMDAT ??_R3CButtonDraw@@8
rdata$r	SEGMENT
??_R3CButtonDraw@@8 DD 00H				; CButtonDraw::`RTTI Class Hierarchy Descriptor'
	DD	00H
	DD	01H
	DD	FLAT:??_R2CButtonDraw@@8
rdata$r	ENDS
;	COMDAT ??_R2CButtonDraw@@8
rdata$r	SEGMENT
??_R2CButtonDraw@@8 DD FLAT:??_R1A@?0A@A@CButtonDraw@@8	; CButtonDraw::`RTTI Base Class Array'
rdata$r	ENDS
;	COMDAT ??_R1A@?0A@A@CButtonDraw@@8
rdata$r	SEGMENT
??_R1A@?0A@A@CButtonDraw@@8 DD FLAT:??_R0?AVCButtonDraw@@@8 ; CButtonDraw::`RTTI Base Class Descriptor at (0,-1,0,0)'
	DD	00H
	DD	00H
	DD	0ffffffffH
	DD	00H
	DD	00H
; Function compile flags: /Odt /RTCsu
rdata$r	ENDS
_TEXT	SEGMENT
_this$ = -4						; size = 4
??0CButtonDraw@@QAE@XZ PROC NEAR			; CButtonDraw::CButtonDraw
; _this$ = ecx

; 144  : {

  008a0	55		 push	 ebp
  008a1	8b ec		 mov	 ebp, esp
  008a3	51		 push	 ecx
  008a4	c7 45 fc cc cc
	cc cc		 mov	 DWORD PTR [ebp-4], -858993460 ; ccccccccH
  008ab	89 4d fc	 mov	 DWORD PTR _this$[ebp], ecx
  008ae	8b 45 fc	 mov	 eax, DWORD PTR _this$[ebp]
  008b1	c7 00 00 00 00
	00		 mov	 DWORD PTR [eax], OFFSET FLAT:??_7CButtonDraw@@6B@
  008b7	8b 4d fc	 mov	 ecx, DWORD PTR _this$[ebp]
  008ba	83 c1 04	 add	 ecx, 4
  008bd	e8 00 00 00 00	 call	 ??0Color@Gdiplus@@QAE@XZ ; Gdiplus::Color::Color
  008c2	8b 4d fc	 mov	 ecx, DWORD PTR _this$[ebp]
  008c5	83 c1 08	 add	 ecx, 8
  008c8	e8 00 00 00 00	 call	 ??0Color@Gdiplus@@QAE@XZ ; Gdiplus::Color::Color
  008cd	8b 4d fc	 mov	 ecx, DWORD PTR _this$[ebp]
  008d0	83 c1 0c	 add	 ecx, 12			; 0000000cH
  008d3	e8 00 00 00 00	 call	 ??0Color@Gdiplus@@QAE@XZ ; Gdiplus::Color::Color
  008d8	8b 4d fc	 mov	 ecx, DWORD PTR _this$[ebp]
  008db	83 c1 10	 add	 ecx, 16			; 00000010H
  008de	e8 00 00 00 00	 call	 ??0Color@Gdiplus@@QAE@XZ ; Gdiplus::Color::Color

; 145  : 	m_colShadow.SetValue( Gdiplus::Color::MakeARGB(60,100,100,100) );

  008e3	6a 64		 push	 100			; 00000064H
  008e5	6a 64		 push	 100			; 00000064H
  008e7	6a 64		 push	 100			; 00000064H
  008e9	6a 3c		 push	 60			; 0000003cH
  008eb	e8 00 00 00 00	 call	 ?MakeARGB@Color@Gdiplus@@SAKEEEE@Z ; Gdiplus::Color::MakeARGB
  008f0	83 c4 10	 add	 esp, 16			; 00000010H
  008f3	50		 push	 eax
  008f4	8b 4d fc	 mov	 ecx, DWORD PTR _this$[ebp]
  008f7	83 c1 08	 add	 ecx, 8
  008fa	e8 00 00 00 00	 call	 ?SetValue@Color@Gdiplus@@QAEXK@Z ; Gdiplus::Color::SetValue

; 146  : 	m_colShadow2.SetValue( Gdiplus::Color::MakeARGB(20,100,100,100) );

  008ff	6a 64		 push	 100			; 00000064H
  00901	6a 64		 push	 100			; 00000064H
  00903	6a 64		 push	 100			; 00000064H
  00905	6a 14		 push	 20			; 00000014H
  00907	e8 00 00 00 00	 call	 ?MakeARGB@Color@Gdiplus@@SAKEEEE@Z ; Gdiplus::Color::MakeARGB
  0090c	83 c4 10	 add	 esp, 16			; 00000010H
  0090f	50		 push	 eax
  00910	8b 4d fc	 mov	 ecx, DWORD PTR _this$[ebp]
  00913	83 c1 0c	 add	 ecx, 12			; 0000000cH
  00916	e8 00 00 00 00	 call	 ?SetValue@Color@Gdiplus@@QAEXK@Z ; Gdiplus::Color::SetValue

; 147  : 	m_colShadow3.SetValue( Gdiplus::Color::MakeARGB(50,100,100,100) );

  0091b	6a 64		 push	 100			; 00000064H
  0091d	6a 64		 push	 100			; 00000064H
  0091f	6a 64		 push	 100			; 00000064H
  00921	6a 32		 push	 50			; 00000032H
  00923	e8 00 00 00 00	 call	 ?MakeARGB@Color@Gdiplus@@SAKEEEE@Z ; Gdiplus::Color::MakeARGB
  00928	83 c4 10	 add	 esp, 16			; 00000010H
  0092b	50		 push	 eax
  0092c	8b 4d fc	 mov	 ecx, DWORD PTR _this$[ebp]
  0092f	83 c1 10	 add	 ecx, 16			; 00000010H
  00932	e8 00 00 00 00	 call	 ?SetValue@Color@Gdiplus@@QAEXK@Z ; Gdiplus::Color::SetValue

; 148  : 	m_colBK.SetValue( Gdiplus::Color::MakeARGB(255,255,255,255) );

  00937	68 ff 00 00 00	 push	 255			; 000000ffH
  0093c	68 ff 00 00 00	 push	 255			; 000000ffH
  00941	68 ff 00 00 00	 push	 255			; 000000ffH
  00946	68 ff 00 00 00	 push	 255			; 000000ffH
  0094b	e8 00 00 00 00	 call	 ?MakeARGB@Color@Gdiplus@@SAKEEEE@Z ; Gdiplus::Color::MakeARGB
  00950	83 c4 10	 add	 esp, 16			; 00000010H
  00953	50		 push	 eax
  00954	8b 4d fc	 mov	 ecx, DWORD PTR _this$[ebp]
  00957	83 c1 04	 add	 ecx, 4
  0095a	e8 00 00 00 00	 call	 ?SetValue@Color@Gdiplus@@QAEXK@Z ; Gdiplus::Color::SetValue

; 149  : }

  0095f	8b 45 fc	 mov	 eax, DWORD PTR _this$[ebp]
  00962	83 c4 04	 add	 esp, 4
  00965	3b ec		 cmp	 ebp, esp
  00967	e8 00 00 00 00	 call	 __RTC_CheckEsp
  0096c	8b e5		 mov	 esp, ebp
  0096e	5d		 pop	 ebp
  0096f	c3		 ret	 0
??0CButtonDraw@@QAE@XZ ENDP				; CButtonDraw::CButtonDraw
_TEXT	ENDS
EXTRN	??3@YAXPAX@Z:NEAR				; operator delete
; Function compile flags: /Odt /RTCsu
;	COMDAT ??_GCButtonDraw@@UAEPAXI@Z
_TEXT	SEGMENT
_this$ = -4						; size = 4
___flags$ = 8						; size = 4
??_GCButtonDraw@@UAEPAXI@Z PROC NEAR			; CButtonDraw::`scalar deleting destructor', COMDAT
; _this$ = ecx
  00000	55		 push	 ebp
  00001	8b ec		 mov	 ebp, esp
  00003	51		 push	 ecx
  00004	c7 45 fc cc cc
	cc cc		 mov	 DWORD PTR [ebp-4], -858993460 ; ccccccccH
  0000b	89 4d fc	 mov	 DWORD PTR _this$[ebp], ecx
  0000e	8b 4d fc	 mov	 ecx, DWORD PTR _this$[ebp]
  00011	e8 00 00 00 00	 call	 ??1CButtonDraw@@UAE@XZ	; CButtonDraw::~CButtonDraw
  00016	8b 45 08	 mov	 eax, DWORD PTR ___flags$[ebp]
  00019	83 e0 01	 and	 eax, 1
  0001c	74 0c		 je	 SHORT $L187843
  0001e	8b 4d fc	 mov	 ecx, DWORD PTR _this$[ebp]
  00021	51		 push	 ecx
  00022	e8 00 00 00 00	 call	 ??3@YAXPAX@Z		; operator delete
  00027	83 c4 04	 add	 esp, 4
$L187843:
  0002a	8b 45 fc	 mov	 eax, DWORD PTR _this$[ebp]
  0002d	83 c4 04	 add	 esp, 4
  00030	3b ec		 cmp	 ebp, esp
  00032	e8 00 00 00 00	 call	 __RTC_CheckEsp
  00037	8b e5		 mov	 esp, ebp
  00039	5d		 pop	 ebp
  0003a	c2 04 00	 ret	 4
??_GCButtonDraw@@UAEPAXI@Z ENDP				; CButtonDraw::`scalar deleting destructor'
; Function compile flags: /Odt /RTCsu
_TEXT	ENDS
_TEXT	SEGMENT
_this$ = -4						; size = 4
??1CButtonDraw@@UAE@XZ PROC NEAR			; CButtonDraw::~CButtonDraw
; _this$ = ecx

; 151  : {

  00970	55		 push	 ebp
  00971	8b ec		 mov	 ebp, esp
  00973	51		 push	 ecx
  00974	c7 45 fc cc cc
	cc cc		 mov	 DWORD PTR [ebp-4], -858993460 ; ccccccccH
  0097b	89 4d fc	 mov	 DWORD PTR _this$[ebp], ecx
  0097e	8b 45 fc	 mov	 eax, DWORD PTR _this$[ebp]
  00981	c7 00 00 00 00
	00		 mov	 DWORD PTR [eax], OFFSET FLAT:??_7CButtonDraw@@6B@

; 152  : }

  00987	8b e5		 mov	 esp, ebp
  00989	5d		 pop	 ebp
  0098a	c3		 ret	 0
??1CButtonDraw@@UAE@XZ ENDP				; CButtonDraw::~CButtonDraw
_TEXT	ENDS
PUBLIC	?DrawSkinEnter@CButtonDraw@@IAEXAAPAUHDC__@@AAUtagRECT@@AAV?$CStringT@DV?$StrTraitMFC_DLL@DV?$ChTraitsCRT@D@ATL@@@@@ATL@@PAVCBitmap@@@Z ; CButtonDraw::DrawSkinEnter
PUBLIC	?DrawSkinNormal@CButtonDraw@@IAEXAAPAUHDC__@@AAUtagRECT@@AAV?$CStringT@DV?$StrTraitMFC_DLL@DV?$ChTraitsCRT@D@ATL@@@@@ATL@@PAVCBitmap@@@Z ; CButtonDraw::DrawSkinNormal
PUBLIC	?DrawColorEnter@CButtonDraw@@IAEXAAPAUHDC__@@AAUtagRECT@@AAV?$CStringT@DV?$StrTraitMFC_DLL@DV?$ChTraitsCRT@D@ATL@@@@@ATL@@AAK3@Z ; CButtonDraw::DrawColorEnter
PUBLIC	?DrawColorNormal@CButtonDraw@@IAEXAAPAUHDC__@@AAUtagRECT@@AAV?$CStringT@DV?$StrTraitMFC_DLL@DV?$ChTraitsCRT@D@ATL@@@@@ATL@@AAK3@Z ; CButtonDraw::DrawColorNormal
PUBLIC	?DrawColorNoTextEnter@CButtonDraw@@IAEXAAPAUHDC__@@AAUtagRECT@@AAV?$CStringT@DV?$StrTraitMFC_DLL@DV?$ChTraitsCRT@D@ATL@@@@@ATL@@AAK3@Z ; CButtonDraw::DrawColorNoTextEnter
PUBLIC	?DrawColorNoTextNormal@CButtonDraw@@IAEXAAPAUHDC__@@AAUtagRECT@@AAV?$CStringT@DV?$StrTraitMFC_DLL@DV?$ChTraitsCRT@D@ATL@@@@@ATL@@AAK3@Z ; CButtonDraw::DrawColorNoTextNormal
PUBLIC	?DrawDefaultButtonNormal@CButtonDraw@@IAEXAAPAUHDC__@@AAUtagRECT@@AAV?$CStringT@DV?$StrTraitMFC_DLL@DV?$ChTraitsCRT@D@ATL@@@@@ATL@@@Z ; CButtonDraw::DrawDefaultButtonNormal
PUBLIC	?DrawDefaultButtonEnter@CButtonDraw@@IAEXAAPAUHDC__@@AAUtagRECT@@AAV?$CStringT@DV?$StrTraitMFC_DLL@DV?$ChTraitsCRT@D@ATL@@@@@ATL@@@Z ; CButtonDraw::DrawDefaultButtonEnter
PUBLIC	?DrawExitButtonNormal@CButtonDraw@@IAEXAAPAUHDC__@@AAUtagRECT@@@Z ; CButtonDraw::DrawExitButtonNormal
PUBLIC	?DrawExitButtonEnter@CButtonDraw@@IAEXAAPAUHDC__@@AAUtagRECT@@@Z ; CButtonDraw::DrawExitButtonEnter
EXTRN	__imp__SetBkMode@8:NEAR
EXTRN	?getColor@CWndColorMgr@@QAEPAUCtrColBase@@I@Z:NEAR ; CWndColorMgr::getColor
EXTRN	__imp__DrawTextA@20:NEAR
EXTRN	?gWndColor@@3VCWndColorMgr@@A:DWORD		; gWndColor
EXTRN	??0CFont@@QAE@XZ:NEAR				; CFont::CFont
EXTRN	?CreateFontIndirectA@CFont@@QAEHPBUtagLOGFONTA@@@Z:NEAR ; CFont::CreateFontIndirectA
EXTRN	??1CFont@@UAE@XZ:NEAR				; CFont::~CFont
EXTRN	??0CRect@@QAE@HHHH@Z:NEAR			; CRect::CRect
EXTRN	??BCRect@@QAEPAUtagRECT@@XZ:NEAR		; CRect::operator tagRECT *
EXTRN	___security_cookie:DWORD
EXTRN	@__security_check_cookie@4:NEAR
EXTRN	?FromHandle@CDC@@SGPAV1@PAUHDC__@@@Z:NEAR	; CDC::FromHandle
EXTRN	__imp_??B?$CSimpleStringT@D$00@ATL@@QBEPBDXZ:NEAR
EXTRN	__imp_?GetLength@?$CSimpleStringT@D$00@ATL@@QBEHXZ:NEAR
EXTRN	__imp__GetTextAlign@4:NEAR
EXTRN	_memset:NEAR
xdata$x	SEGMENT
$T188933 DD	0ffffffffH
	DD	FLAT:$L188921
$T188923 DD	019930520H
	DD	01H
	DD	FLAT:$T188933
	DD	2 DUP(00H)
	DD	2 DUP(00H)
; Function compile flags: /Odt /RTCsu
xdata$x	ENDS
_TEXT	SEGMENT
$T188920 = -180						; size = 16
$T188919 = -164						; size = 16
_oldFont$ = -148					; size = 4
_font$ = -140						; size = 8
_lf$ = -124						; size = 60
_bSelect$ = -57						; size = 1
_lState$ = -56						; size = 4
_lpDC$ = -52						; size = 4
_liAlign$ = -48						; size = 4
_lrect$ = -40						; size = 16
_this$ = -20						; size = 4
__$ArrayPad$ = -16					; size = 4
__$EHRec$ = -12						; size = 12
__$ReturnAddr$ = 4					; size = 4
_apWnd$ = 8						; size = 4
_lpDrawItemStruct$ = 12					; size = 4
_m_bottonType$ = 16					; size = 4
_abMouseOnButton$ = 20					; size = 4
_astrTitle$ = 24					; size = 4
_acolBegain$ = 28					; size = 4
_acolEnd$ = 32						; size = 4
_aBitMap$ = 36						; size = 4
?DrawButton@CButtonDraw@@QAEXPAVCWnd@@PAUtagDRAWITEMSTRUCT@@HHAAV?$CStringT@DV?$StrTraitMFC_DLL@DV?$ChTraitsCRT@D@ATL@@@@@ATL@@KKPAVCBitmap@@@Z PROC NEAR ; CButtonDraw::DrawButton
; _this$ = ecx

; 155  : {

  00990	55		 push	 ebp
  00991	8b ec		 mov	 ebp, esp
  00993	6a ff		 push	 -1
  00995	68 00 00 00 00	 push	 __ehhandler$?DrawButton@CButtonDraw@@QAEXPAVCWnd@@PAUtagDRAWITEMSTRUCT@@HHAAV?$CStringT@DV?$StrTraitMFC_DLL@DV?$ChTraitsCRT@D@ATL@@@@@ATL@@KKPAVCBitmap@@@Z
  0099a	64 a1 00 00 00
	00		 mov	 eax, DWORD PTR fs:__except_list
  009a0	50		 push	 eax
  009a1	64 89 25 00 00
	00 00		 mov	 DWORD PTR fs:__except_list, esp
  009a8	81 ec a8 00 00
	00		 sub	 esp, 168		; 000000a8H
  009ae	56		 push	 esi
  009af	57		 push	 edi
  009b0	51		 push	 ecx
  009b1	8d bd 4c ff ff
	ff		 lea	 edi, DWORD PTR [ebp-180]
  009b7	b9 2a 00 00 00	 mov	 ecx, 42			; 0000002aH
  009bc	b8 cc cc cc cc	 mov	 eax, -858993460		; ccccccccH
  009c1	f3 ab		 rep stosd
  009c3	59		 pop	 ecx
  009c4	a1 00 00 00 00	 mov	 eax, DWORD PTR ___security_cookie
  009c9	89 45 f0	 mov	 DWORD PTR __$ArrayPad$[ebp], eax
  009cc	89 4d ec	 mov	 DWORD PTR _this$[ebp], ecx

; 156  : 	RECT lrect = lpDrawItemStruct->rcItem;

  009cf	8b 45 0c	 mov	 eax, DWORD PTR _lpDrawItemStruct$[ebp]
  009d2	83 c0 1c	 add	 eax, 28			; 0000001cH
  009d5	8b 08		 mov	 ecx, DWORD PTR [eax]
  009d7	89 4d d8	 mov	 DWORD PTR _lrect$[ebp], ecx
  009da	8b 50 04	 mov	 edx, DWORD PTR [eax+4]
  009dd	89 55 dc	 mov	 DWORD PTR _lrect$[ebp+4], edx
  009e0	8b 48 08	 mov	 ecx, DWORD PTR [eax+8]
  009e3	89 4d e0	 mov	 DWORD PTR _lrect$[ebp+8], ecx
  009e6	8b 50 0c	 mov	 edx, DWORD PTR [eax+12]
  009e9	89 55 e4	 mov	 DWORD PTR _lrect$[ebp+12], edx

; 157  : 
; 158  : 	UINT liAlign = GetTextAlign(lpDrawItemStruct->hDC);

  009ec	8b f4		 mov	 esi, esp
  009ee	8b 45 0c	 mov	 eax, DWORD PTR _lpDrawItemStruct$[ebp]
  009f1	8b 48 18	 mov	 ecx, DWORD PTR [eax+24]
  009f4	51		 push	 ecx
  009f5	ff 15 00 00 00
	00		 call	 DWORD PTR __imp__GetTextAlign@4
  009fb	3b f4		 cmp	 esi, esp
  009fd	e8 00 00 00 00	 call	 __RTC_CheckEsp
  00a02	89 45 d0	 mov	 DWORD PTR _liAlign$[ebp], eax

; 159  : 
; 160  : 
; 161  : 	CDC* lpDC = NULL;

  00a05	c7 45 cc 00 00
	00 00		 mov	 DWORD PTR _lpDC$[ebp], 0

; 162  : 	lpDC = CDC::FromHandle(lpDrawItemStruct->hDC);

  00a0c	8b 55 0c	 mov	 edx, DWORD PTR _lpDrawItemStruct$[ebp]
  00a0f	8b 42 18	 mov	 eax, DWORD PTR [edx+24]
  00a12	50		 push	 eax
  00a13	e8 00 00 00 00	 call	 ?FromHandle@CDC@@SGPAV1@PAUHDC__@@@Z ; CDC::FromHandle
  00a18	89 45 cc	 mov	 DWORD PTR _lpDC$[ebp], eax

; 163  : 
; 164  : 	//lpDC->FillSolidRect(&lrect, RGB(255,255,255));
; 165  : 
; 166  : 	lpDC->SetTextColor(gWndColor.getColor(COLOL_CTROL)->structColBase->colFont);

  00a1b	6a 05		 push	 5
  00a1d	b9 00 00 00 00	 mov	 ecx, OFFSET FLAT:?gWndColor@@3VCWndColorMgr@@A ; gWndColor
  00a22	e8 00 00 00 00	 call	 ?getColor@CWndColorMgr@@QAEPAUCtrColBase@@I@Z ; CWndColorMgr::getColor
  00a27	8b 08		 mov	 ecx, DWORD PTR [eax]
  00a29	8b f4		 mov	 esi, esp
  00a2b	8b 51 0c	 mov	 edx, DWORD PTR [ecx+12]
  00a2e	52		 push	 edx
  00a2f	8b 45 cc	 mov	 eax, DWORD PTR _lpDC$[ebp]
  00a32	8b 10		 mov	 edx, DWORD PTR [eax]
  00a34	8b 4d cc	 mov	 ecx, DWORD PTR _lpDC$[ebp]
  00a37	ff 52 38	 call	 DWORD PTR [edx+56]
  00a3a	3b f4		 cmp	 esi, esp
  00a3c	e8 00 00 00 00	 call	 __RTC_CheckEsp

; 167  : 
; 168  : 	UINT lState = lpDrawItemStruct->itemState;	

  00a41	8b 45 0c	 mov	 eax, DWORD PTR _lpDrawItemStruct$[ebp]
  00a44	8b 48 10	 mov	 ecx, DWORD PTR [eax+16]
  00a47	89 4d c8	 mov	 DWORD PTR _lState$[ebp], ecx

; 169  : 	bool bSelect= ((CSkinButton*)apWnd)->m_bSelected;

  00a4a	8b 55 08	 mov	 edx, DWORD PTR _apWnd$[ebp]
  00a4d	8a 82 f0 00 00
	00		 mov	 al, BYTE PTR [edx+240]
  00a53	88 45 c7	 mov	 BYTE PTR _bSelect$[ebp], al

; 170  : 
; 171  : 	if( !(lState & ODS_DISABLED))

  00a56	8b 4d c8	 mov	 ecx, DWORD PTR _lState$[ebp]
  00a59	83 e1 04	 and	 ecx, 4
  00a5c	0f 85 0a 03 00
	00		 jne	 $L187864

; 172  : 	{
; 173  : 		if (lState & ODS_SELECTED || bSelect )

  00a62	8b 55 c8	 mov	 edx, DWORD PTR _lState$[ebp]
  00a65	83 e2 01	 and	 edx, 1
  00a68	75 0c		 jne	 SHORT $L187866
  00a6a	0f b6 45 c7	 movzx	 eax, BYTE PTR _bSelect$[ebp]
  00a6e	85 c0		 test	 eax, eax
  00a70	0f 84 b1 00 00
	00		 je	 $L187865
$L187866:

; 174  : 		{
; 175  : 			// NORMAL 
; 176  : 			if( CSkinButton::COLLOR_BOTTON == m_bottonType)

  00a76	83 7d 10 01	 cmp	 DWORD PTR _m_bottonType$[ebp], 1
  00a7a	75 24		 jne	 SHORT $L187867

; 177  : 			{
; 178  : 				DrawColorNormal( lpDrawItemStruct->hDC,lrect,astrTitle,acolBegain,acolEnd);

  00a7c	8d 4d 20	 lea	 ecx, DWORD PTR _acolEnd$[ebp]
  00a7f	51		 push	 ecx
  00a80	8d 55 1c	 lea	 edx, DWORD PTR _acolBegain$[ebp]
  00a83	52		 push	 edx
  00a84	8b 45 18	 mov	 eax, DWORD PTR _astrTitle$[ebp]
  00a87	50		 push	 eax
  00a88	8d 4d d8	 lea	 ecx, DWORD PTR _lrect$[ebp]
  00a8b	51		 push	 ecx
  00a8c	8b 55 0c	 mov	 edx, DWORD PTR _lpDrawItemStruct$[ebp]
  00a8f	83 c2 18	 add	 edx, 24			; 00000018H
  00a92	52		 push	 edx
  00a93	8b 4d ec	 mov	 ecx, DWORD PTR _this$[ebp]
  00a96	e8 00 00 00 00	 call	 ?DrawColorNormal@CButtonDraw@@IAEXAAPAUHDC__@@AAUtagRECT@@AAV?$CStringT@DV?$StrTraitMFC_DLL@DV?$ChTraitsCRT@D@ATL@@@@@ATL@@AAK3@Z ; CButtonDraw::DrawColorNormal

; 179  : 			}
; 180  : 			else if( CSkinButton::SKIN_BOTTON == m_bottonType)

  00a9b	e9 82 00 00 00	 jmp	 $L187868
$L187867:
  00aa0	83 7d 10 00	 cmp	 DWORD PTR _m_bottonType$[ebp], 0
  00aa4	75 1d		 jne	 SHORT $L187869

; 181  : 			{
; 182  : 				DrawSkinEnter( lpDrawItemStruct->hDC,lrect,astrTitle,aBitMap);

  00aa6	8b 45 24	 mov	 eax, DWORD PTR _aBitMap$[ebp]
  00aa9	50		 push	 eax
  00aaa	8b 4d 18	 mov	 ecx, DWORD PTR _astrTitle$[ebp]
  00aad	51		 push	 ecx
  00aae	8d 55 d8	 lea	 edx, DWORD PTR _lrect$[ebp]
  00ab1	52		 push	 edx
  00ab2	8b 45 0c	 mov	 eax, DWORD PTR _lpDrawItemStruct$[ebp]
  00ab5	83 c0 18	 add	 eax, 24			; 00000018H
  00ab8	50		 push	 eax
  00ab9	8b 4d ec	 mov	 ecx, DWORD PTR _this$[ebp]
  00abc	e8 00 00 00 00	 call	 ?DrawSkinEnter@CButtonDraw@@IAEXAAPAUHDC__@@AAUtagRECT@@AAV?$CStringT@DV?$StrTraitMFC_DLL@DV?$ChTraitsCRT@D@ATL@@@@@ATL@@PAVCBitmap@@@Z ; CButtonDraw::DrawSkinEnter

; 183  : 			}
; 184  : 			else if( CSkinButton::DEFAULT_BOTTON == m_bottonType)

  00ac1	eb 5f		 jmp	 SHORT $L187868
$L187869:
  00ac3	83 7d 10 02	 cmp	 DWORD PTR _m_bottonType$[ebp], 2
  00ac7	75 19		 jne	 SHORT $L187871

; 185  : 			{
; 186  : 				DrawDefaultButtonNormal( lpDrawItemStruct->hDC,lrect,astrTitle);

  00ac9	8b 4d 18	 mov	 ecx, DWORD PTR _astrTitle$[ebp]
  00acc	51		 push	 ecx
  00acd	8d 55 d8	 lea	 edx, DWORD PTR _lrect$[ebp]
  00ad0	52		 push	 edx
  00ad1	8b 45 0c	 mov	 eax, DWORD PTR _lpDrawItemStruct$[ebp]
  00ad4	83 c0 18	 add	 eax, 24			; 00000018H
  00ad7	50		 push	 eax
  00ad8	8b 4d ec	 mov	 ecx, DWORD PTR _this$[ebp]
  00adb	e8 00 00 00 00	 call	 ?DrawDefaultButtonNormal@CButtonDraw@@IAEXAAPAUHDC__@@AAUtagRECT@@AAV?$CStringT@DV?$StrTraitMFC_DLL@DV?$ChTraitsCRT@D@ATL@@@@@ATL@@@Z ; CButtonDraw::DrawDefaultButtonNormal

; 187  : 			}
; 188  : 			else if( CSkinButton::CLOSE_BOTTON == m_bottonType )

  00ae0	eb 40		 jmp	 SHORT $L187868
$L187871:
  00ae2	83 7d 10 03	 cmp	 DWORD PTR _m_bottonType$[ebp], 3
  00ae6	75 15		 jne	 SHORT $L187873

; 189  : 			{
; 190  : 				DrawExitButtonNormal( lpDrawItemStruct->hDC,lrect );

  00ae8	8d 4d d8	 lea	 ecx, DWORD PTR _lrect$[ebp]
  00aeb	51		 push	 ecx
  00aec	8b 55 0c	 mov	 edx, DWORD PTR _lpDrawItemStruct$[ebp]
  00aef	83 c2 18	 add	 edx, 24			; 00000018H
  00af2	52		 push	 edx
  00af3	8b 4d ec	 mov	 ecx, DWORD PTR _this$[ebp]
  00af6	e8 00 00 00 00	 call	 ?DrawExitButtonNormal@CButtonDraw@@IAEXAAPAUHDC__@@AAUtagRECT@@@Z ; CButtonDraw::DrawExitButtonNormal

; 191  : 			}
; 192  : 			else if( CSkinButton::COLOR_NOTEXT_BOTTON == m_bottonType )

  00afb	eb 25		 jmp	 SHORT $L187868
$L187873:
  00afd	83 7d 10 04	 cmp	 DWORD PTR _m_bottonType$[ebp], 4
  00b01	75 1f		 jne	 SHORT $L187868

; 193  : 			{
; 194  : 				DrawColorNoTextNormal( lpDrawItemStruct->hDC,lrect,astrTitle,acolBegain,acolEnd);

  00b03	8d 45 20	 lea	 eax, DWORD PTR _acolEnd$[ebp]
  00b06	50		 push	 eax
  00b07	8d 4d 1c	 lea	 ecx, DWORD PTR _acolBegain$[ebp]
  00b0a	51		 push	 ecx
  00b0b	8b 55 18	 mov	 edx, DWORD PTR _astrTitle$[ebp]
  00b0e	52		 push	 edx
  00b0f	8d 45 d8	 lea	 eax, DWORD PTR _lrect$[ebp]
  00b12	50		 push	 eax
  00b13	8b 4d 0c	 mov	 ecx, DWORD PTR _lpDrawItemStruct$[ebp]
  00b16	83 c1 18	 add	 ecx, 24			; 00000018H
  00b19	51		 push	 ecx
  00b1a	8b 4d ec	 mov	 ecx, DWORD PTR _this$[ebp]
  00b1d	e8 00 00 00 00	 call	 ?DrawColorNoTextNormal@CButtonDraw@@IAEXAAPAUHDC__@@AAUtagRECT@@AAV?$CStringT@DV?$StrTraitMFC_DLL@DV?$ChTraitsCRT@D@ATL@@@@@ATL@@AAK3@Z ; CButtonDraw::DrawColorNoTextNormal
$L187868:

; 195  : 			}
; 196  : 		}
; 197  : 		else if (abMouseOnButton)

  00b22	e9 43 02 00 00	 jmp	 $L187876
$L187865:
  00b27	83 7d 14 00	 cmp	 DWORD PTR _abMouseOnButton$[ebp], 0
  00b2b	0f 84 d0 00 00
	00		 je	 $L187877

; 198  : 		{
; 199  : 			if( CSkinButton::COLLOR_BOTTON == m_bottonType)

  00b31	83 7d 10 01	 cmp	 DWORD PTR _m_bottonType$[ebp], 1
  00b35	75 43		 jne	 SHORT $L187878

; 200  : 			{
; 201  : 				DrawColorNormal( lpDrawItemStruct->hDC,lrect,astrTitle,acolBegain,acolEnd);

  00b37	8d 55 20	 lea	 edx, DWORD PTR _acolEnd$[ebp]
  00b3a	52		 push	 edx
  00b3b	8d 45 1c	 lea	 eax, DWORD PTR _acolBegain$[ebp]
  00b3e	50		 push	 eax
  00b3f	8b 4d 18	 mov	 ecx, DWORD PTR _astrTitle$[ebp]
  00b42	51		 push	 ecx
  00b43	8d 55 d8	 lea	 edx, DWORD PTR _lrect$[ebp]
  00b46	52		 push	 edx
  00b47	8b 45 0c	 mov	 eax, DWORD PTR _lpDrawItemStruct$[ebp]
  00b4a	83 c0 18	 add	 eax, 24			; 00000018H
  00b4d	50		 push	 eax
  00b4e	8b 4d ec	 mov	 ecx, DWORD PTR _this$[ebp]
  00b51	e8 00 00 00 00	 call	 ?DrawColorNormal@CButtonDraw@@IAEXAAPAUHDC__@@AAUtagRECT@@AAV?$CStringT@DV?$StrTraitMFC_DLL@DV?$ChTraitsCRT@D@ATL@@@@@ATL@@AAK3@Z ; CButtonDraw::DrawColorNormal

; 202  : 				DrawColorEnter( lpDrawItemStruct->hDC,lrect,astrTitle,acolBegain,acolEnd);

  00b56	8d 4d 20	 lea	 ecx, DWORD PTR _acolEnd$[ebp]
  00b59	51		 push	 ecx
  00b5a	8d 55 1c	 lea	 edx, DWORD PTR _acolBegain$[ebp]
  00b5d	52		 push	 edx
  00b5e	8b 45 18	 mov	 eax, DWORD PTR _astrTitle$[ebp]
  00b61	50		 push	 eax
  00b62	8d 4d d8	 lea	 ecx, DWORD PTR _lrect$[ebp]
  00b65	51		 push	 ecx
  00b66	8b 55 0c	 mov	 edx, DWORD PTR _lpDrawItemStruct$[ebp]
  00b69	83 c2 18	 add	 edx, 24			; 00000018H
  00b6c	52		 push	 edx
  00b6d	8b 4d ec	 mov	 ecx, DWORD PTR _this$[ebp]
  00b70	e8 00 00 00 00	 call	 ?DrawColorEnter@CButtonDraw@@IAEXAAPAUHDC__@@AAUtagRECT@@AAV?$CStringT@DV?$StrTraitMFC_DLL@DV?$ChTraitsCRT@D@ATL@@@@@ATL@@AAK3@Z ; CButtonDraw::DrawColorEnter

; 203  : 			}
; 204  : 			else if( CSkinButton::SKIN_BOTTON == m_bottonType)

  00b75	e9 82 00 00 00	 jmp	 $L187879
$L187878:
  00b7a	83 7d 10 00	 cmp	 DWORD PTR _m_bottonType$[ebp], 0
  00b7e	75 1d		 jne	 SHORT $L187880

; 205  : 			{
; 206  : 				//DrawSkinNormal( lpDrawItemStruct->hDC,lrect,astrTitle,aBitMap);
; 207  : 				DrawSkinEnter( lpDrawItemStruct->hDC,lrect,astrTitle,aBitMap);

  00b80	8b 45 24	 mov	 eax, DWORD PTR _aBitMap$[ebp]
  00b83	50		 push	 eax
  00b84	8b 4d 18	 mov	 ecx, DWORD PTR _astrTitle$[ebp]
  00b87	51		 push	 ecx
  00b88	8d 55 d8	 lea	 edx, DWORD PTR _lrect$[ebp]
  00b8b	52		 push	 edx
  00b8c	8b 45 0c	 mov	 eax, DWORD PTR _lpDrawItemStruct$[ebp]
  00b8f	83 c0 18	 add	 eax, 24			; 00000018H
  00b92	50		 push	 eax
  00b93	8b 4d ec	 mov	 ecx, DWORD PTR _this$[ebp]
  00b96	e8 00 00 00 00	 call	 ?DrawSkinEnter@CButtonDraw@@IAEXAAPAUHDC__@@AAUtagRECT@@AAV?$CStringT@DV?$StrTraitMFC_DLL@DV?$ChTraitsCRT@D@ATL@@@@@ATL@@PAVCBitmap@@@Z ; CButtonDraw::DrawSkinEnter

; 208  : 			}
; 209  : 			else if( CSkinButton::DEFAULT_BOTTON == m_bottonType)

  00b9b	eb 5f		 jmp	 SHORT $L187879
$L187880:
  00b9d	83 7d 10 02	 cmp	 DWORD PTR _m_bottonType$[ebp], 2
  00ba1	75 19		 jne	 SHORT $L187882

; 210  : 			{
; 211  : 				DrawDefaultButtonEnter( lpDrawItemStruct->hDC,lrect,astrTitle);

  00ba3	8b 4d 18	 mov	 ecx, DWORD PTR _astrTitle$[ebp]
  00ba6	51		 push	 ecx
  00ba7	8d 55 d8	 lea	 edx, DWORD PTR _lrect$[ebp]
  00baa	52		 push	 edx
  00bab	8b 45 0c	 mov	 eax, DWORD PTR _lpDrawItemStruct$[ebp]
  00bae	83 c0 18	 add	 eax, 24			; 00000018H
  00bb1	50		 push	 eax
  00bb2	8b 4d ec	 mov	 ecx, DWORD PTR _this$[ebp]
  00bb5	e8 00 00 00 00	 call	 ?DrawDefaultButtonEnter@CButtonDraw@@IAEXAAPAUHDC__@@AAUtagRECT@@AAV?$CStringT@DV?$StrTraitMFC_DLL@DV?$ChTraitsCRT@D@ATL@@@@@ATL@@@Z ; CButtonDraw::DrawDefaultButtonEnter

; 212  : 			}
; 213  : 			else if( CSkinButton::CLOSE_BOTTON == m_bottonType )

  00bba	eb 40		 jmp	 SHORT $L187879
$L187882:
  00bbc	83 7d 10 03	 cmp	 DWORD PTR _m_bottonType$[ebp], 3
  00bc0	75 15		 jne	 SHORT $L187884

; 214  : 			{
; 215  : 				DrawExitButtonEnter( lpDrawItemStruct->hDC,lrect);

  00bc2	8d 4d d8	 lea	 ecx, DWORD PTR _lrect$[ebp]
  00bc5	51		 push	 ecx
  00bc6	8b 55 0c	 mov	 edx, DWORD PTR _lpDrawItemStruct$[ebp]
  00bc9	83 c2 18	 add	 edx, 24			; 00000018H
  00bcc	52		 push	 edx
  00bcd	8b 4d ec	 mov	 ecx, DWORD PTR _this$[ebp]
  00bd0	e8 00 00 00 00	 call	 ?DrawExitButtonEnter@CButtonDraw@@IAEXAAPAUHDC__@@AAUtagRECT@@@Z ; CButtonDraw::DrawExitButtonEnter

; 216  : 			}
; 217  : 			else if( CSkinButton::COLOR_NOTEXT_BOTTON == m_bottonType )

  00bd5	eb 25		 jmp	 SHORT $L187879
$L187884:
  00bd7	83 7d 10 04	 cmp	 DWORD PTR _m_bottonType$[ebp], 4
  00bdb	75 1f		 jne	 SHORT $L187879

; 218  : 			{
; 219  : 				DrawColorNoTextEnter( lpDrawItemStruct->hDC,lrect,astrTitle,acolBegain,acolEnd );

  00bdd	8d 45 20	 lea	 eax, DWORD PTR _acolEnd$[ebp]
  00be0	50		 push	 eax
  00be1	8d 4d 1c	 lea	 ecx, DWORD PTR _acolBegain$[ebp]
  00be4	51		 push	 ecx
  00be5	8b 55 18	 mov	 edx, DWORD PTR _astrTitle$[ebp]
  00be8	52		 push	 edx
  00be9	8d 45 d8	 lea	 eax, DWORD PTR _lrect$[ebp]
  00bec	50		 push	 eax
  00bed	8b 4d 0c	 mov	 ecx, DWORD PTR _lpDrawItemStruct$[ebp]
  00bf0	83 c1 18	 add	 ecx, 24			; 00000018H
  00bf3	51		 push	 ecx
  00bf4	8b 4d ec	 mov	 ecx, DWORD PTR _this$[ebp]
  00bf7	e8 00 00 00 00	 call	 ?DrawColorNoTextEnter@CButtonDraw@@IAEXAAPAUHDC__@@AAUtagRECT@@AAV?$CStringT@DV?$StrTraitMFC_DLL@DV?$ChTraitsCRT@D@ATL@@@@@ATL@@AAK3@Z ; CButtonDraw::DrawColorNoTextEnter
$L187879:

; 220  : 			}
; 221  : 		}
; 222  : 		else if (lState & ODS_FOCUS)

  00bfc	e9 69 01 00 00	 jmp	 $L187876
$L187877:
  00c01	8b 55 c8	 mov	 edx, DWORD PTR _lState$[ebp]
  00c04	83 e2 10	 and	 edx, 16			; 00000010H
  00c07	0f 84 b1 00 00
	00		 je	 $L187888

; 223  : 		{
; 224  : 			//Focused
; 225  : 			if( CSkinButton::COLLOR_BOTTON == m_bottonType)

  00c0d	83 7d 10 01	 cmp	 DWORD PTR _m_bottonType$[ebp], 1
  00c11	75 24		 jne	 SHORT $L187889

; 226  : 			{
; 227  : 				DrawColorNormal( lpDrawItemStruct->hDC,lrect,astrTitle,acolBegain,acolEnd);

  00c13	8d 45 20	 lea	 eax, DWORD PTR _acolEnd$[ebp]
  00c16	50		 push	 eax
  00c17	8d 4d 1c	 lea	 ecx, DWORD PTR _acolBegain$[ebp]
  00c1a	51		 push	 ecx
  00c1b	8b 55 18	 mov	 edx, DWORD PTR _astrTitle$[ebp]
  00c1e	52		 push	 edx
  00c1f	8d 45 d8	 lea	 eax, DWORD PTR _lrect$[ebp]
  00c22	50		 push	 eax
  00c23	8b 4d 0c	 mov	 ecx, DWORD PTR _lpDrawItemStruct$[ebp]
  00c26	83 c1 18	 add	 ecx, 24			; 00000018H
  00c29	51		 push	 ecx
  00c2a	8b 4d ec	 mov	 ecx, DWORD PTR _this$[ebp]
  00c2d	e8 00 00 00 00	 call	 ?DrawColorNormal@CButtonDraw@@IAEXAAPAUHDC__@@AAUtagRECT@@AAV?$CStringT@DV?$StrTraitMFC_DLL@DV?$ChTraitsCRT@D@ATL@@@@@ATL@@AAK3@Z ; CButtonDraw::DrawColorNormal

; 228  : 			}
; 229  : 			else if( CSkinButton::SKIN_BOTTON == m_bottonType)

  00c32	e9 82 00 00 00	 jmp	 $L187890
$L187889:
  00c37	83 7d 10 00	 cmp	 DWORD PTR _m_bottonType$[ebp], 0
  00c3b	75 1d		 jne	 SHORT $L187891

; 230  : 			{
; 231  : 				DrawSkinNormal( lpDrawItemStruct->hDC,lrect,astrTitle,aBitMap);

  00c3d	8b 55 24	 mov	 edx, DWORD PTR _aBitMap$[ebp]
  00c40	52		 push	 edx
  00c41	8b 45 18	 mov	 eax, DWORD PTR _astrTitle$[ebp]
  00c44	50		 push	 eax
  00c45	8d 4d d8	 lea	 ecx, DWORD PTR _lrect$[ebp]
  00c48	51		 push	 ecx
  00c49	8b 55 0c	 mov	 edx, DWORD PTR _lpDrawItemStruct$[ebp]
  00c4c	83 c2 18	 add	 edx, 24			; 00000018H
  00c4f	52		 push	 edx
  00c50	8b 4d ec	 mov	 ecx, DWORD PTR _this$[ebp]
  00c53	e8 00 00 00 00	 call	 ?DrawSkinNormal@CButtonDraw@@IAEXAAPAUHDC__@@AAUtagRECT@@AAV?$CStringT@DV?$StrTraitMFC_DLL@DV?$ChTraitsCRT@D@ATL@@@@@ATL@@PAVCBitmap@@@Z ; CButtonDraw::DrawSkinNormal

; 232  : 			}
; 233  : 			else if( CSkinButton::DEFAULT_BOTTON == m_bottonType)

  00c58	eb 5f		 jmp	 SHORT $L187890
$L187891:
  00c5a	83 7d 10 02	 cmp	 DWORD PTR _m_bottonType$[ebp], 2
  00c5e	75 19		 jne	 SHORT $L187893

; 234  : 			{
; 235  : 				DrawDefaultButtonNormal( lpDrawItemStruct->hDC,lrect,astrTitle);

  00c60	8b 45 18	 mov	 eax, DWORD PTR _astrTitle$[ebp]
  00c63	50		 push	 eax
  00c64	8d 4d d8	 lea	 ecx, DWORD PTR _lrect$[ebp]
  00c67	51		 push	 ecx
  00c68	8b 55 0c	 mov	 edx, DWORD PTR _lpDrawItemStruct$[ebp]
  00c6b	83 c2 18	 add	 edx, 24			; 00000018H
  00c6e	52		 push	 edx
  00c6f	8b 4d ec	 mov	 ecx, DWORD PTR _this$[ebp]
  00c72	e8 00 00 00 00	 call	 ?DrawDefaultButtonNormal@CButtonDraw@@IAEXAAPAUHDC__@@AAUtagRECT@@AAV?$CStringT@DV?$StrTraitMFC_DLL@DV?$ChTraitsCRT@D@ATL@@@@@ATL@@@Z ; CButtonDraw::DrawDefaultButtonNormal

; 236  : 			}
; 237  : 			else if( CSkinButton::CLOSE_BOTTON == m_bottonType )

  00c77	eb 40		 jmp	 SHORT $L187890
$L187893:
  00c79	83 7d 10 03	 cmp	 DWORD PTR _m_bottonType$[ebp], 3
  00c7d	75 15		 jne	 SHORT $L187895

; 238  : 			{
; 239  : 				DrawExitButtonNormal( lpDrawItemStruct->hDC,lrect );

  00c7f	8d 45 d8	 lea	 eax, DWORD PTR _lrect$[ebp]
  00c82	50		 push	 eax
  00c83	8b 4d 0c	 mov	 ecx, DWORD PTR _lpDrawItemStruct$[ebp]
  00c86	83 c1 18	 add	 ecx, 24			; 00000018H
  00c89	51		 push	 ecx
  00c8a	8b 4d ec	 mov	 ecx, DWORD PTR _this$[ebp]
  00c8d	e8 00 00 00 00	 call	 ?DrawExitButtonNormal@CButtonDraw@@IAEXAAPAUHDC__@@AAUtagRECT@@@Z ; CButtonDraw::DrawExitButtonNormal

; 240  : 			}
; 241  : 			else if( CSkinButton::COLOR_NOTEXT_BOTTON == m_bottonType )

  00c92	eb 25		 jmp	 SHORT $L187890
$L187895:
  00c94	83 7d 10 04	 cmp	 DWORD PTR _m_bottonType$[ebp], 4
  00c98	75 1f		 jne	 SHORT $L187890

; 242  : 			{
; 243  : 				DrawColorNoTextNormal( lpDrawItemStruct->hDC,lrect,astrTitle,acolBegain,acolEnd );

  00c9a	8d 55 20	 lea	 edx, DWORD PTR _acolEnd$[ebp]
  00c9d	52		 push	 edx
  00c9e	8d 45 1c	 lea	 eax, DWORD PTR _acolBegain$[ebp]
  00ca1	50		 push	 eax
  00ca2	8b 4d 18	 mov	 ecx, DWORD PTR _astrTitle$[ebp]
  00ca5	51		 push	 ecx
  00ca6	8d 55 d8	 lea	 edx, DWORD PTR _lrect$[ebp]
  00ca9	52		 push	 edx
  00caa	8b 45 0c	 mov	 eax, DWORD PTR _lpDrawItemStruct$[ebp]
  00cad	83 c0 18	 add	 eax, 24			; 00000018H
  00cb0	50		 push	 eax
  00cb1	8b 4d ec	 mov	 ecx, DWORD PTR _this$[ebp]
  00cb4	e8 00 00 00 00	 call	 ?DrawColorNoTextNormal@CButtonDraw@@IAEXAAPAUHDC__@@AAUtagRECT@@AAV?$CStringT@DV?$StrTraitMFC_DLL@DV?$ChTraitsCRT@D@ATL@@@@@ATL@@AAK3@Z ; CButtonDraw::DrawColorNoTextNormal
$L187890:

; 244  : 			}
; 245  : 		}
; 246  : 		else

  00cb9	e9 ac 00 00 00	 jmp	 $L187876
$L187888:

; 247  : 		{
; 248  : 			if( CSkinButton::COLLOR_BOTTON == m_bottonType)

  00cbe	83 7d 10 01	 cmp	 DWORD PTR _m_bottonType$[ebp], 1
  00cc2	75 24		 jne	 SHORT $L187899

; 249  : 			{
; 250  : 				DrawColorNormal( lpDrawItemStruct->hDC,lrect,astrTitle,acolBegain,acolEnd);

  00cc4	8d 4d 20	 lea	 ecx, DWORD PTR _acolEnd$[ebp]
  00cc7	51		 push	 ecx
  00cc8	8d 55 1c	 lea	 edx, DWORD PTR _acolBegain$[ebp]
  00ccb	52		 push	 edx
  00ccc	8b 45 18	 mov	 eax, DWORD PTR _astrTitle$[ebp]
  00ccf	50		 push	 eax
  00cd0	8d 4d d8	 lea	 ecx, DWORD PTR _lrect$[ebp]
  00cd3	51		 push	 ecx
  00cd4	8b 55 0c	 mov	 edx, DWORD PTR _lpDrawItemStruct$[ebp]
  00cd7	83 c2 18	 add	 edx, 24			; 00000018H
  00cda	52		 push	 edx
  00cdb	8b 4d ec	 mov	 ecx, DWORD PTR _this$[ebp]
  00cde	e8 00 00 00 00	 call	 ?DrawColorNormal@CButtonDraw@@IAEXAAPAUHDC__@@AAUtagRECT@@AAV?$CStringT@DV?$StrTraitMFC_DLL@DV?$ChTraitsCRT@D@ATL@@@@@ATL@@AAK3@Z ; CButtonDraw::DrawColorNormal

; 251  : 			}
; 252  : 			else if( CSkinButton::SKIN_BOTTON == m_bottonType)

  00ce3	e9 82 00 00 00	 jmp	 $L187876
$L187899:
  00ce8	83 7d 10 00	 cmp	 DWORD PTR _m_bottonType$[ebp], 0
  00cec	75 1d		 jne	 SHORT $L187901

; 253  : 			{
; 254  : 				DrawSkinNormal( lpDrawItemStruct->hDC,lrect,astrTitle,aBitMap);

  00cee	8b 45 24	 mov	 eax, DWORD PTR _aBitMap$[ebp]
  00cf1	50		 push	 eax
  00cf2	8b 4d 18	 mov	 ecx, DWORD PTR _astrTitle$[ebp]
  00cf5	51		 push	 ecx
  00cf6	8d 55 d8	 lea	 edx, DWORD PTR _lrect$[ebp]
  00cf9	52		 push	 edx
  00cfa	8b 45 0c	 mov	 eax, DWORD PTR _lpDrawItemStruct$[ebp]
  00cfd	83 c0 18	 add	 eax, 24			; 00000018H
  00d00	50		 push	 eax
  00d01	8b 4d ec	 mov	 ecx, DWORD PTR _this$[ebp]
  00d04	e8 00 00 00 00	 call	 ?DrawSkinNormal@CButtonDraw@@IAEXAAPAUHDC__@@AAUtagRECT@@AAV?$CStringT@DV?$StrTraitMFC_DLL@DV?$ChTraitsCRT@D@ATL@@@@@ATL@@PAVCBitmap@@@Z ; CButtonDraw::DrawSkinNormal

; 255  : 			}
; 256  : 			else if( CSkinButton::DEFAULT_BOTTON == m_bottonType)

  00d09	eb 5f		 jmp	 SHORT $L187876
$L187901:
  00d0b	83 7d 10 02	 cmp	 DWORD PTR _m_bottonType$[ebp], 2
  00d0f	75 19		 jne	 SHORT $L187903

; 257  : 			{
; 258  : 				DrawDefaultButtonNormal( lpDrawItemStruct->hDC,lrect,astrTitle);

  00d11	8b 4d 18	 mov	 ecx, DWORD PTR _astrTitle$[ebp]
  00d14	51		 push	 ecx
  00d15	8d 55 d8	 lea	 edx, DWORD PTR _lrect$[ebp]
  00d18	52		 push	 edx
  00d19	8b 45 0c	 mov	 eax, DWORD PTR _lpDrawItemStruct$[ebp]
  00d1c	83 c0 18	 add	 eax, 24			; 00000018H
  00d1f	50		 push	 eax
  00d20	8b 4d ec	 mov	 ecx, DWORD PTR _this$[ebp]
  00d23	e8 00 00 00 00	 call	 ?DrawDefaultButtonNormal@CButtonDraw@@IAEXAAPAUHDC__@@AAUtagRECT@@AAV?$CStringT@DV?$StrTraitMFC_DLL@DV?$ChTraitsCRT@D@ATL@@@@@ATL@@@Z ; CButtonDraw::DrawDefaultButtonNormal

; 259  : 			}
; 260  : 			else if( CSkinButton::CLOSE_BOTTON == m_bottonType )

  00d28	eb 40		 jmp	 SHORT $L187876
$L187903:
  00d2a	83 7d 10 03	 cmp	 DWORD PTR _m_bottonType$[ebp], 3
  00d2e	75 15		 jne	 SHORT $L187905

; 261  : 			{
; 262  : 				DrawExitButtonNormal( lpDrawItemStruct->hDC,lrect );

  00d30	8d 4d d8	 lea	 ecx, DWORD PTR _lrect$[ebp]
  00d33	51		 push	 ecx
  00d34	8b 55 0c	 mov	 edx, DWORD PTR _lpDrawItemStruct$[ebp]
  00d37	83 c2 18	 add	 edx, 24			; 00000018H
  00d3a	52		 push	 edx
  00d3b	8b 4d ec	 mov	 ecx, DWORD PTR _this$[ebp]
  00d3e	e8 00 00 00 00	 call	 ?DrawExitButtonNormal@CButtonDraw@@IAEXAAPAUHDC__@@AAUtagRECT@@@Z ; CButtonDraw::DrawExitButtonNormal

; 263  : 			}
; 264  : 			else if( CSkinButton::COLOR_NOTEXT_BOTTON == m_bottonType )

  00d43	eb 25		 jmp	 SHORT $L187876
$L187905:
  00d45	83 7d 10 04	 cmp	 DWORD PTR _m_bottonType$[ebp], 4
  00d49	75 1f		 jne	 SHORT $L187876

; 265  : 			{
; 266  : 				DrawColorNoTextNormal( lpDrawItemStruct->hDC,lrect,astrTitle,acolBegain,acolEnd );

  00d4b	8d 45 20	 lea	 eax, DWORD PTR _acolEnd$[ebp]
  00d4e	50		 push	 eax
  00d4f	8d 4d 1c	 lea	 ecx, DWORD PTR _acolBegain$[ebp]
  00d52	51		 push	 ecx
  00d53	8b 55 18	 mov	 edx, DWORD PTR _astrTitle$[ebp]
  00d56	52		 push	 edx
  00d57	8d 45 d8	 lea	 eax, DWORD PTR _lrect$[ebp]
  00d5a	50		 push	 eax
  00d5b	8b 4d 0c	 mov	 ecx, DWORD PTR _lpDrawItemStruct$[ebp]
  00d5e	83 c1 18	 add	 ecx, 24			; 00000018H
  00d61	51		 push	 ecx
  00d62	8b 4d ec	 mov	 ecx, DWORD PTR _this$[ebp]
  00d65	e8 00 00 00 00	 call	 ?DrawColorNoTextNormal@CButtonDraw@@IAEXAAPAUHDC__@@AAUtagRECT@@AAV?$CStringT@DV?$StrTraitMFC_DLL@DV?$ChTraitsCRT@D@ATL@@@@@ATL@@AAK3@Z ; CButtonDraw::DrawColorNoTextNormal
$L187876:

; 267  : 			}
; 268  : 		}
; 269  : 	}
; 270  : 	else

  00d6a	eb 21		 jmp	 SHORT $L187908
$L187864:

; 271  : 	{
; 272  : 		if( CSkinButton::SKIN_BOTTON == m_bottonType )

  00d6c	83 7d 10 00	 cmp	 DWORD PTR _m_bottonType$[ebp], 0
  00d70	75 1b		 jne	 SHORT $L187908

; 273  : 		{
; 274  : 			DrawSkinNormal( lpDrawItemStruct->hDC,lrect,astrTitle,aBitMap);

  00d72	8b 55 24	 mov	 edx, DWORD PTR _aBitMap$[ebp]
  00d75	52		 push	 edx
  00d76	8b 45 18	 mov	 eax, DWORD PTR _astrTitle$[ebp]
  00d79	50		 push	 eax
  00d7a	8d 4d d8	 lea	 ecx, DWORD PTR _lrect$[ebp]
  00d7d	51		 push	 ecx
  00d7e	8b 55 0c	 mov	 edx, DWORD PTR _lpDrawItemStruct$[ebp]
  00d81	83 c2 18	 add	 edx, 24			; 00000018H
  00d84	52		 push	 edx
  00d85	8b 4d ec	 mov	 ecx, DWORD PTR _this$[ebp]
  00d88	e8 00 00 00 00	 call	 ?DrawSkinNormal@CButtonDraw@@IAEXAAPAUHDC__@@AAUtagRECT@@AAV?$CStringT@DV?$StrTraitMFC_DLL@DV?$ChTraitsCRT@D@ATL@@@@@ATL@@PAVCBitmap@@@Z ; CButtonDraw::DrawSkinNormal
$L187908:

; 275  : 		}
; 276  : 	}
; 277  : 
; 278  : 
; 279  : 	// draw text
; 280  : 	SetBkMode(lpDrawItemStruct->hDC, TRANSPARENT);

  00d8d	8b f4		 mov	 esi, esp
  00d8f	6a 01		 push	 1
  00d91	8b 45 0c	 mov	 eax, DWORD PTR _lpDrawItemStruct$[ebp]
  00d94	8b 48 18	 mov	 ecx, DWORD PTR [eax+24]
  00d97	51		 push	 ecx
  00d98	ff 15 00 00 00
	00		 call	 DWORD PTR __imp__SetBkMode@8
  00d9e	3b f4		 cmp	 esi, esp
  00da0	e8 00 00 00 00	 call	 __RTC_CheckEsp

; 281  : 	LOGFONT  lf;
; 282  : 	ZeroMemory(&lf,sizeof(lf));

  00da5	6a 3c		 push	 60			; 0000003cH
  00da7	6a 00		 push	 0
  00da9	8d 55 84	 lea	 edx, DWORD PTR _lf$[ebp]
  00dac	52		 push	 edx
  00dad	e8 00 00 00 00	 call	 _memset
  00db2	83 c4 0c	 add	 esp, 12			; 0000000cH

; 283  : 	lf.lfHeight=-12;//-MulDiv(9,GetDeviceCaps(lpDC->m_hDC,LOGPIXELSY),72);

  00db5	c7 45 84 f4 ff
	ff ff		 mov	 DWORD PTR _lf$[ebp], -12 ; fffffff4H

; 284  : 	lf.lfWeight=FW_NORMAL;

  00dbc	c7 45 94 90 01
	00 00		 mov	 DWORD PTR _lf$[ebp+16], 400 ; 00000190H

; 285  : 	lf.lfCharSet=GB2312_CHARSET;

  00dc3	c6 45 9b 86	 mov	 BYTE PTR _lf$[ebp+23], 134 ; 00000086H

; 286  : 	lf.lfOutPrecision=OUT_DEFAULT_PRECIS;

  00dc7	c6 45 9c 00	 mov	 BYTE PTR _lf$[ebp+24], 0

; 287  : 	lf.lfClipPrecision=CLIP_DEFAULT_PRECIS;

  00dcb	c6 45 9d 00	 mov	 BYTE PTR _lf$[ebp+25], 0

; 288  : 	lf.lfQuality=DEFAULT_QUALITY;

  00dcf	c6 45 9e 00	 mov	 BYTE PTR _lf$[ebp+26], 0

; 289  : 	lf.lfPitchAndFamily=FF_DONTCARE | DEFAULT_PITCH;

  00dd3	c6 45 9f 00	 mov	 BYTE PTR _lf$[ebp+27], 0

; 290  : 	CFont font;

  00dd7	8d 8d 74 ff ff
	ff		 lea	 ecx, DWORD PTR _font$[ebp]
  00ddd	e8 00 00 00 00	 call	 ??0CFont@@QAE@XZ	; CFont::CFont
  00de2	c7 45 fc 00 00
	00 00		 mov	 DWORD PTR __$EHRec$[ebp+8], 0

; 291  : 	font.CreateFontIndirect(&lf);

  00de9	8d 45 84	 lea	 eax, DWORD PTR _lf$[ebp]
  00dec	50		 push	 eax
  00ded	8d 8d 74 ff ff
	ff		 lea	 ecx, DWORD PTR _font$[ebp]
  00df3	e8 00 00 00 00	 call	 ?CreateFontIndirectA@CFont@@QAEHPBUtagLOGFONTA@@@Z ; CFont::CreateFontIndirectA

; 292  : 
; 293  : 	CFont * oldFont = lpDC->SelectObject(&font);

  00df8	8b f4		 mov	 esi, esp
  00dfa	8d 8d 74 ff ff
	ff		 lea	 ecx, DWORD PTR _font$[ebp]
  00e00	51		 push	 ecx
  00e01	8b 55 cc	 mov	 edx, DWORD PTR _lpDC$[ebp]
  00e04	8b 02		 mov	 eax, DWORD PTR [edx]
  00e06	8b 4d cc	 mov	 ecx, DWORD PTR _lpDC$[ebp]
  00e09	ff 50 30	 call	 DWORD PTR [eax+48]
  00e0c	3b f4		 cmp	 esi, esp
  00e0e	e8 00 00 00 00	 call	 __RTC_CheckEsp
  00e13	89 85 6c ff ff
	ff		 mov	 DWORD PTR _oldFont$[ebp], eax

; 294  : 	if( CSkinButton::COLLOR_BOTTON == m_bottonType)

  00e19	83 7d 10 01	 cmp	 DWORD PTR _m_bottonType$[ebp], 1
  00e1d	75 6c		 jne	 SHORT $L187913

; 295  : 	{
; 296  : 		DrawText(
; 297  : 			lpDrawItemStruct->hDC,
; 298  : 			astrTitle,
; 299  : 			astrTitle.GetLength(),
; 300  : 			CRect(
; 301  : 			lrect.left, 
; 302  : 			lrect.top+LEFT_Y_TEXT_SPACE, 
; 303  : 			lrect.right,
; 304  : 			lrect.top+LEFT_Y_TEXT_SPACE+TEXT_WIDTH
; 305  : 			),
; 306  : 			DT_CENTER | DT_VCENTER | DT_SINGLELINE /*| DT_END_ELLIPSIS*/
; 307  : 			);

  00e1f	8b f4		 mov	 esi, esp
  00e21	6a 25		 push	 37			; 00000025H
  00e23	8b 4d dc	 mov	 ecx, DWORD PTR _lrect$[ebp+4]
  00e26	83 c1 2f	 add	 ecx, 47			; 0000002fH
  00e29	51		 push	 ecx
  00e2a	8b 55 e0	 mov	 edx, DWORD PTR _lrect$[ebp+8]
  00e2d	52		 push	 edx
  00e2e	8b 45 dc	 mov	 eax, DWORD PTR _lrect$[ebp+4]
  00e31	83 c0 14	 add	 eax, 20			; 00000014H
  00e34	50		 push	 eax
  00e35	8b 4d d8	 mov	 ecx, DWORD PTR _lrect$[ebp]
  00e38	51		 push	 ecx
  00e39	8d 8d 5c ff ff
	ff		 lea	 ecx, DWORD PTR $T188919[ebp]
  00e3f	e8 00 00 00 00	 call	 ??0CRect@@QAE@HHHH@Z	; CRect::CRect
  00e44	8b c8		 mov	 ecx, eax
  00e46	e8 00 00 00 00	 call	 ??BCRect@@QAEPAUtagRECT@@XZ ; CRect::operator tagRECT *
  00e4b	50		 push	 eax
  00e4c	8b fc		 mov	 edi, esp
  00e4e	8b 4d 18	 mov	 ecx, DWORD PTR _astrTitle$[ebp]
  00e51	ff 15 00 00 00
	00		 call	 DWORD PTR __imp_?GetLength@?$CSimpleStringT@D$00@ATL@@QBEHXZ
  00e57	3b fc		 cmp	 edi, esp
  00e59	e8 00 00 00 00	 call	 __RTC_CheckEsp
  00e5e	50		 push	 eax
  00e5f	8b fc		 mov	 edi, esp
  00e61	8b 4d 18	 mov	 ecx, DWORD PTR _astrTitle$[ebp]
  00e64	ff 15 00 00 00
	00		 call	 DWORD PTR __imp_??B?$CSimpleStringT@D$00@ATL@@QBEPBDXZ
  00e6a	3b fc		 cmp	 edi, esp
  00e6c	e8 00 00 00 00	 call	 __RTC_CheckEsp
  00e71	50		 push	 eax
  00e72	8b 55 0c	 mov	 edx, DWORD PTR _lpDrawItemStruct$[ebp]
  00e75	8b 42 18	 mov	 eax, DWORD PTR [edx+24]
  00e78	50		 push	 eax
  00e79	ff 15 00 00 00
	00		 call	 DWORD PTR __imp__DrawTextA@20
  00e7f	3b f4		 cmp	 esi, esp
  00e81	e8 00 00 00 00	 call	 __RTC_CheckEsp

; 308  : 	}
; 309  : 	else if( CSkinButton::SKIN_BOTTON == m_bottonType)

  00e86	e9 9b 00 00 00	 jmp	 $L187915
$L187913:
  00e8b	83 7d 10 00	 cmp	 DWORD PTR _m_bottonType$[ebp], 0
  00e8f	75 05		 jne	 SHORT $L187916

; 310  : 	{
; 311  : 		/*DrawText(
; 312  : 		lpDrawItemStruct->hDC,
; 313  : 		astrTitle,
; 314  : 		astrTitle.GetLength(),
; 315  : 		CRect(
; 316  : 		lrect.left, 
; 317  : 		lrect.bottom - TEXT_WIDTH,
; 318  : 		lrect.right,
; 319  : 		lrect.bottom
; 320  : 		),
; 321  : 		DT_CENTER | DT_VCENTER | DT_SINGLELINE
; 322  : 		);*/
; 323  : 	}
; 324  : 	else if( CSkinButton::DEFAULT_BOTTON == m_bottonType)

  00e91	e9 90 00 00 00	 jmp	 $L187915
$L187916:
  00e96	83 7d 10 02	 cmp	 DWORD PTR _m_bottonType$[ebp], 2
  00e9a	0f 85 86 00 00
	00		 jne	 $L187915

; 325  : 	{
; 326  : 		lpDC->SetTextColor(gWndColor.getColor(TABLE_CTROL)->structColBase->colFrame1);

  00ea0	6a 02		 push	 2
  00ea2	b9 00 00 00 00	 mov	 ecx, OFFSET FLAT:?gWndColor@@3VCWndColorMgr@@A ; gWndColor
  00ea7	e8 00 00 00 00	 call	 ?getColor@CWndColorMgr@@QAEPAUCtrColBase@@I@Z ; CWndColorMgr::getColor
  00eac	8b 08		 mov	 ecx, DWORD PTR [eax]
  00eae	8b f4		 mov	 esi, esp
  00eb0	8b 11		 mov	 edx, DWORD PTR [ecx]
  00eb2	52		 push	 edx
  00eb3	8b 45 cc	 mov	 eax, DWORD PTR _lpDC$[ebp]
  00eb6	8b 10		 mov	 edx, DWORD PTR [eax]
  00eb8	8b 4d cc	 mov	 ecx, DWORD PTR _lpDC$[ebp]
  00ebb	ff 52 38	 call	 DWORD PTR [edx+56]
  00ebe	3b f4		 cmp	 esi, esp
  00ec0	e8 00 00 00 00	 call	 __RTC_CheckEsp

; 327  : 		DrawText(
; 328  : 			lpDrawItemStruct->hDC,
; 329  : 			astrTitle,
; 330  : 			astrTitle.GetLength(),
; 331  : 			CRect(
; 332  : 			lrect.left, 
; 333  : 			lrect.top,
; 334  : 			lrect.right,
; 335  : 			lrect.bottom
; 336  : 			),
; 337  : 			DT_CENTER | DT_VCENTER | DT_SINGLELINE  
; 338  : 			);

  00ec5	8b f4		 mov	 esi, esp
  00ec7	6a 25		 push	 37			; 00000025H
  00ec9	8b 45 e4	 mov	 eax, DWORD PTR _lrect$[ebp+12]
  00ecc	50		 push	 eax
  00ecd	8b 4d e0	 mov	 ecx, DWORD PTR _lrect$[ebp+8]
  00ed0	51		 push	 ecx
  00ed1	8b 55 dc	 mov	 edx, DWORD PTR _lrect$[ebp+4]
  00ed4	52		 push	 edx
  00ed5	8b 45 d8	 mov	 eax, DWORD PTR _lrect$[ebp]
  00ed8	50		 push	 eax
  00ed9	8d 8d 4c ff ff
	ff		 lea	 ecx, DWORD PTR $T188920[ebp]
  00edf	e8 00 00 00 00	 call	 ??0CRect@@QAE@HHHH@Z	; CRect::CRect
  00ee4	8b c8		 mov	 ecx, eax
  00ee6	e8 00 00 00 00	 call	 ??BCRect@@QAEPAUtagRECT@@XZ ; CRect::operator tagRECT *
  00eeb	50		 push	 eax
  00eec	8b fc		 mov	 edi, esp
  00eee	8b 4d 18	 mov	 ecx, DWORD PTR _astrTitle$[ebp]
  00ef1	ff 15 00 00 00
	00		 call	 DWORD PTR __imp_?GetLength@?$CSimpleStringT@D$00@ATL@@QBEHXZ
  00ef7	3b fc		 cmp	 edi, esp
  00ef9	e8 00 00 00 00	 call	 __RTC_CheckEsp
  00efe	50		 push	 eax
  00eff	8b fc		 mov	 edi, esp
  00f01	8b 4d 18	 mov	 ecx, DWORD PTR _astrTitle$[ebp]
  00f04	ff 15 00 00 00
	00		 call	 DWORD PTR __imp_??B?$CSimpleStringT@D$00@ATL@@QBEPBDXZ
  00f0a	3b fc		 cmp	 edi, esp
  00f0c	e8 00 00 00 00	 call	 __RTC_CheckEsp
  00f11	50		 push	 eax
  00f12	8b 4d 0c	 mov	 ecx, DWORD PTR _lpDrawItemStruct$[ebp]
  00f15	8b 51 18	 mov	 edx, DWORD PTR [ecx+24]
  00f18	52		 push	 edx
  00f19	ff 15 00 00 00
	00		 call	 DWORD PTR __imp__DrawTextA@20
  00f1f	3b f4		 cmp	 esi, esp
  00f21	e8 00 00 00 00	 call	 __RTC_CheckEsp
$L187915:

; 339  : 	}
; 340  : 	lpDC->SelectObject(oldFont);

  00f26	8b f4		 mov	 esi, esp
  00f28	8b 85 6c ff ff
	ff		 mov	 eax, DWORD PTR _oldFont$[ebp]
  00f2e	50		 push	 eax
  00f2f	8b 4d cc	 mov	 ecx, DWORD PTR _lpDC$[ebp]
  00f32	8b 11		 mov	 edx, DWORD PTR [ecx]
  00f34	8b 4d cc	 mov	 ecx, DWORD PTR _lpDC$[ebp]
  00f37	ff 52 30	 call	 DWORD PTR [edx+48]
  00f3a	3b f4		 cmp	 esi, esp
  00f3c	e8 00 00 00 00	 call	 __RTC_CheckEsp

; 341  : }

  00f41	c7 45 fc ff ff
	ff ff		 mov	 DWORD PTR __$EHRec$[ebp+8], -1
  00f48	8d 8d 74 ff ff
	ff		 lea	 ecx, DWORD PTR _font$[ebp]
  00f4e	e8 00 00 00 00	 call	 ??1CFont@@UAE@XZ	; CFont::~CFont
  00f53	52		 push	 edx
  00f54	8b cd		 mov	 ecx, ebp
  00f56	50		 push	 eax
  00f57	8d 15 00 00 00
	00		 lea	 edx, DWORD PTR $L188931
  00f5d	e8 00 00 00 00	 call	 @_RTC_CheckStackVars@8
  00f62	58		 pop	 eax
  00f63	5a		 pop	 edx
  00f64	8b 4d f4	 mov	 ecx, DWORD PTR __$EHRec$[ebp]
  00f67	64 89 0d 00 00
	00 00		 mov	 DWORD PTR fs:__except_list, ecx
  00f6e	8b 4d f0	 mov	 ecx, DWORD PTR __$ArrayPad$[ebp]
  00f71	e8 00 00 00 00	 call	 @__security_check_cookie@4
  00f76	5f		 pop	 edi
  00f77	5e		 pop	 esi
  00f78	81 c4 b4 00 00
	00		 add	 esp, 180		; 000000b4H
  00f7e	3b ec		 cmp	 ebp, esp
  00f80	e8 00 00 00 00	 call	 __RTC_CheckEsp
  00f85	8b e5		 mov	 esp, ebp
  00f87	5d		 pop	 ebp
  00f88	c2 20 00	 ret	 32			; 00000020H
$L188931:
  00f8b	03 00 00 00	 DD	 3
  00f8f	00 00 00 00	 DD	 $L188930
$L188930:
  00f93	d8 ff ff ff	 DD	 -40			; ffffffd8H
  00f97	10 00 00 00	 DD	 16			; 00000010H
  00f9b	00 00 00 00	 DD	 $L188924
  00f9f	84 ff ff ff	 DD	 -124			; ffffff84H
  00fa3	3c 00 00 00	 DD	 60			; 0000003cH
  00fa7	00 00 00 00	 DD	 $L188925
  00fab	74 ff ff ff	 DD	 -140			; ffffff74H
  00faf	08 00 00 00	 DD	 8
  00fb3	00 00 00 00	 DD	 $L188926
$L188926:
  00fb7	66		 DB	 102			; 00000066H
  00fb8	6f		 DB	 111			; 0000006fH
  00fb9	6e		 DB	 110			; 0000006eH
  00fba	74		 DB	 116			; 00000074H
  00fbb	00		 DB	 0
$L188925:
  00fbc	6c		 DB	 108			; 0000006cH
  00fbd	66		 DB	 102			; 00000066H
  00fbe	00		 DB	 0
$L188924:
  00fbf	6c		 DB	 108			; 0000006cH
  00fc0	72		 DB	 114			; 00000072H
  00fc1	65		 DB	 101			; 00000065H
  00fc2	63		 DB	 99			; 00000063H
  00fc3	74		 DB	 116			; 00000074H
  00fc4	00		 DB	 0
_TEXT	ENDS
text$x	SEGMENT
$L188921:
  00116	8d 8d 74 ff ff
	ff		 lea	 ecx, DWORD PTR _font$[ebp]
  0011c	e9 00 00 00 00	 jmp	 ??1CFont@@UAE@XZ	; CFont::~CFont
__ehhandler$?DrawButton@CButtonDraw@@QAEXPAVCWnd@@PAUtagDRAWITEMSTRUCT@@HHAAV?$CStringT@DV?$StrTraitMFC_DLL@DV?$ChTraitsCRT@D@ATL@@@@@ATL@@KKPAVCBitmap@@@Z:
  00121	b8 00 00 00 00	 mov	 eax, OFFSET FLAT:$T188923
  00126	e9 00 00 00 00	 jmp	 ___CxxFrameHandler
text$x	ENDS
?DrawButton@CButtonDraw@@QAEXPAVCWnd@@PAUtagDRAWITEMSTRUCT@@HHAAV?$CStringT@DV?$StrTraitMFC_DLL@DV?$ChTraitsCRT@D@ATL@@@@@ATL@@KKPAVCBitmap@@@Z ENDP ; CButtonDraw::DrawButton
PUBLIC	?InterlockedExchangePointer@@YGPAXPAPAXPAX@Z	; InterlockedExchangePointer
PUBLIC	?_AtlGetThreadACPFake@ATL@@YGIXZ		; ATL::_AtlGetThreadACPFake
PUBLIC	?_AtlGetThreadACPReal@ATL@@YGIXZ		; ATL::_AtlGetThreadACPReal
EXTRN	__imp__GetVersionExA@4:NEAR
; Function compile flags: /Odt /RTCsu
; File d:\program files (x86)\microsoft visual studio .net 2003\vc7\atlmfc\include\atlconv.h
;	COMDAT ?_AtlGetThreadACPThunk@ATL@@YGIXZ
_TEXT	SEGMENT
_pfnGetThreadACP$ = -164				; size = 4
_ver$ = -156						; size = 148
__$ArrayPad$ = -4					; size = 4
__$ReturnAddr$ = 4					; size = 4
?_AtlGetThreadACPThunk@ATL@@YGIXZ PROC NEAR		; ATL::_AtlGetThreadACPThunk, COMDAT

; 134  : {

  00000	55		 push	 ebp
  00001	8b ec		 mov	 ebp, esp
  00003	81 ec a4 00 00
	00		 sub	 esp, 164		; 000000a4H
  00009	56		 push	 esi
  0000a	57		 push	 edi
  0000b	8d bd 5c ff ff
	ff		 lea	 edi, DWORD PTR [ebp-164]
  00011	b9 29 00 00 00	 mov	 ecx, 41			; 00000029H
  00016	b8 cc cc cc cc	 mov	 eax, -858993460		; ccccccccH
  0001b	f3 ab		 rep stosd
  0001d	a1 00 00 00 00	 mov	 eax, DWORD PTR ___security_cookie
  00022	89 45 fc	 mov	 DWORD PTR __$ArrayPad$[ebp], eax

; 135  : 	OSVERSIONINFO ver;
; 136  : 	ATLGETTHREADACP pfnGetThreadACP;
; 137  : 
; 138  : 	ver.dwOSVersionInfoSize = sizeof( ver );

  00025	c7 85 64 ff ff
	ff 94 00 00 00	 mov	 DWORD PTR _ver$[ebp], 148 ; 00000094H

; 139  : 	::GetVersionEx( &ver );

  0002f	8b f4		 mov	 esi, esp
  00031	8d 85 64 ff ff
	ff		 lea	 eax, DWORD PTR _ver$[ebp]
  00037	50		 push	 eax
  00038	ff 15 00 00 00
	00		 call	 DWORD PTR __imp__GetVersionExA@4
  0003e	3b f4		 cmp	 esi, esp
  00040	e8 00 00 00 00	 call	 __RTC_CheckEsp

; 140  : 	if( (ver.dwPlatformId == VER_PLATFORM_WIN32_NT) && (ver.dwMajorVersion >= 5) )

  00045	83 bd 74 ff ff
	ff 02		 cmp	 DWORD PTR _ver$[ebp+16], 2
  0004c	75 15		 jne	 SHORT $L24163
  0004e	83 bd 68 ff ff
	ff 05		 cmp	 DWORD PTR _ver$[ebp+4], 5
  00055	72 0c		 jb	 SHORT $L24163

; 141  : 	{
; 142  : 		// On Win2K, CP_THREAD_ACP is supported
; 143  : 		pfnGetThreadACP = _AtlGetThreadACPReal;

  00057	c7 85 5c ff ff
	ff 00 00 00 00	 mov	 DWORD PTR _pfnGetThreadACP$[ebp], OFFSET FLAT:?_AtlGetThreadACPReal@ATL@@YGIXZ ; ATL::_AtlGetThreadACPReal

; 144  : 	}
; 145  : 	else

  00061	eb 0a		 jmp	 SHORT $L24164
$L24163:

; 146  : 	{
; 147  : 		pfnGetThreadACP = _AtlGetThreadACPFake;

  00063	c7 85 5c ff ff
	ff 00 00 00 00	 mov	 DWORD PTR _pfnGetThreadACP$[ebp], OFFSET FLAT:?_AtlGetThreadACPFake@ATL@@YGIXZ ; ATL::_AtlGetThreadACPFake
$L24164:

; 148  : 	}
; 149  : 	InterlockedExchangePointer( reinterpret_cast< void** >(&g_pfnGetThreadACP), pfnGetThreadACP );

  0006d	8b 8d 5c ff ff
	ff		 mov	 ecx, DWORD PTR _pfnGetThreadACP$[ebp]
  00073	51		 push	 ecx
  00074	68 00 00 00 00	 push	 OFFSET FLAT:?g_pfnGetThreadACP@ATL@@3P6GIXZA ; ATL::g_pfnGetThreadACP
  00079	e8 00 00 00 00	 call	 ?InterlockedExchangePointer@@YGPAXPAPAXPAX@Z ; InterlockedExchangePointer

; 150  : 
; 151  : 	return( g_pfnGetThreadACP() );

  0007e	8b f4		 mov	 esi, esp
  00080	ff 15 00 00 00
	00		 call	 DWORD PTR ?g_pfnGetThreadACP@ATL@@3P6GIXZA ; ATL::g_pfnGetThreadACP
  00086	3b f4		 cmp	 esi, esp
  00088	e8 00 00 00 00	 call	 __RTC_CheckEsp

; 152  : }

  0008d	52		 push	 edx
  0008e	8b cd		 mov	 ecx, ebp
  00090	50		 push	 eax
  00091	8d 15 00 00 00
	00		 lea	 edx, DWORD PTR $L188939
  00097	e8 00 00 00 00	 call	 @_RTC_CheckStackVars@8
  0009c	58		 pop	 eax
  0009d	5a		 pop	 edx
  0009e	8b 4d fc	 mov	 ecx, DWORD PTR __$ArrayPad$[ebp]
  000a1	e8 00 00 00 00	 call	 @__security_check_cookie@4
  000a6	5f		 pop	 edi
  000a7	5e		 pop	 esi
  000a8	81 c4 a4 00 00
	00		 add	 esp, 164		; 000000a4H
  000ae	3b ec		 cmp	 ebp, esp
  000b0	e8 00 00 00 00	 call	 __RTC_CheckEsp
  000b5	8b e5		 mov	 esp, ebp
  000b7	5d		 pop	 ebp
  000b8	c3		 ret	 0
$L188939:
  000b9	01 00 00 00	 DD	 1
  000bd	00 00 00 00	 DD	 $L188938
$L188938:
  000c1	64 ff ff ff	 DD	 -156			; ffffff64H
  000c5	94 00 00 00	 DD	 148			; 00000094H
  000c9	00 00 00 00	 DD	 $L188936
$L188936:
  000cd	76		 DB	 118			; 00000076H
  000ce	65		 DB	 101			; 00000065H
  000cf	72		 DB	 114			; 00000072H
  000d0	00		 DB	 0
?_AtlGetThreadACPThunk@ATL@@YGIXZ ENDP			; ATL::_AtlGetThreadACPThunk
_TEXT	ENDS
EXTRN	__imp__InterlockedExchange@8:NEAR
; Function compile flags: /Odt /RTCsu
;	COMDAT ?InterlockedExchangePointer@@YGPAXPAPAXPAX@Z
_TEXT	SEGMENT
_pp$ = 8						; size = 4
_pNew$ = 12						; size = 4
?InterlockedExchangePointer@@YGPAXPAPAXPAX@Z PROC NEAR	; InterlockedExchangePointer, COMDAT

; 91   : {

  00000	55		 push	 ebp
  00001	8b ec		 mov	 ebp, esp
  00003	56		 push	 esi

; 92   : 	return( reinterpret_cast<void*>(static_cast<LONG_PTR>(::InterlockedExchange(reinterpret_cast<LONG*>(pp), static_cast<LONG>(reinterpret_cast<LONG_PTR>(pNew))))) );

  00004	8b f4		 mov	 esi, esp
  00006	8b 45 0c	 mov	 eax, DWORD PTR _pNew$[ebp]
  00009	50		 push	 eax
  0000a	8b 4d 08	 mov	 ecx, DWORD PTR _pp$[ebp]
  0000d	51		 push	 ecx
  0000e	ff 15 00 00 00
	00		 call	 DWORD PTR __imp__InterlockedExchange@8
  00014	3b f4		 cmp	 esi, esp
  00016	e8 00 00 00 00	 call	 __RTC_CheckEsp

; 93   : }

  0001b	5e		 pop	 esi
  0001c	3b ec		 cmp	 ebp, esp
  0001e	e8 00 00 00 00	 call	 __RTC_CheckEsp
  00023	5d		 pop	 ebp
  00024	c2 08 00	 ret	 8
?InterlockedExchangePointer@@YGPAXPAPAXPAX@Z ENDP	; InterlockedExchangePointer
_TEXT	ENDS
EXTRN	__imp__GetACP@0:NEAR
EXTRN	__imp__GetLocaleInfoA@16:NEAR
EXTRN	__imp__GetThreadLocale@0:NEAR
; Function compile flags: /Odt /RTCsu
;	COMDAT ?_AtlGetThreadACPFake@ATL@@YGIXZ
_TEXT	SEGMENT
_pch$24151 = -32					; size = 4
_szACP$ = -24						; size = 7
_lcidThread$ = -12					; size = 4
_nACP$ = -8						; size = 4
__$ArrayPad$ = -4					; size = 4
__$ReturnAddr$ = 4					; size = 4
?_AtlGetThreadACPFake@ATL@@YGIXZ PROC NEAR		; ATL::_AtlGetThreadACPFake, COMDAT

; 101  : {

  00000	55		 push	 ebp
  00001	8b ec		 mov	 ebp, esp
  00003	83 ec 20	 sub	 esp, 32			; 00000020H
  00006	56		 push	 esi
  00007	b8 cc cc cc cc	 mov	 eax, -858993460		; ccccccccH
  0000c	89 45 e0	 mov	 DWORD PTR [ebp-32], eax
  0000f	89 45 e4	 mov	 DWORD PTR [ebp-28], eax
  00012	89 45 e8	 mov	 DWORD PTR [ebp-24], eax
  00015	89 45 ec	 mov	 DWORD PTR [ebp-20], eax
  00018	89 45 f0	 mov	 DWORD PTR [ebp-16], eax
  0001b	89 45 f4	 mov	 DWORD PTR [ebp-12], eax
  0001e	89 45 f8	 mov	 DWORD PTR [ebp-8], eax
  00021	89 45 fc	 mov	 DWORD PTR [ebp-4], eax
  00024	a1 00 00 00 00	 mov	 eax, DWORD PTR ___security_cookie
  00029	89 45 fc	 mov	 DWORD PTR __$ArrayPad$[ebp], eax

; 102  : 	UINT nACP = 0;

  0002c	c7 45 f8 00 00
	00 00		 mov	 DWORD PTR _nACP$[ebp], 0

; 103  : 
; 104  : 	LCID lcidThread = ::GetThreadLocale();

  00033	8b f4		 mov	 esi, esp
  00035	ff 15 00 00 00
	00		 call	 DWORD PTR __imp__GetThreadLocale@0
  0003b	3b f4		 cmp	 esi, esp
  0003d	e8 00 00 00 00	 call	 __RTC_CheckEsp
  00042	89 45 f4	 mov	 DWORD PTR _lcidThread$[ebp], eax

; 105  : 
; 106  : 	char szACP[7];
; 107  : 	// GetLocaleInfoA will fail for a Unicode-only LCID, but those are only supported on 
; 108  : 	// Windows 2000.  Since Windows 2000 supports CP_THREAD_ACP, this code path is never
; 109  : 	// executed on Windows 2000.
; 110  : 	if (::GetLocaleInfoA(lcidThread, LOCALE_IDEFAULTANSICODEPAGE, szACP, 7) != 0)

  00045	8b f4		 mov	 esi, esp
  00047	6a 07		 push	 7
  00049	8d 45 e8	 lea	 eax, DWORD PTR _szACP$[ebp]
  0004c	50		 push	 eax
  0004d	68 04 10 00 00	 push	 4100			; 00001004H
  00052	8b 4d f4	 mov	 ecx, DWORD PTR _lcidThread$[ebp]
  00055	51		 push	 ecx
  00056	ff 15 00 00 00
	00		 call	 DWORD PTR __imp__GetLocaleInfoA@16
  0005c	3b f4		 cmp	 esi, esp
  0005e	e8 00 00 00 00	 call	 __RTC_CheckEsp
  00063	85 c0		 test	 eax, eax
  00065	74 34		 je	 SHORT $L24150

; 111  : 	{
; 112  : 		char* pch = szACP;

  00067	8d 55 e8	 lea	 edx, DWORD PTR _szACP$[ebp]
  0006a	89 55 e0	 mov	 DWORD PTR _pch$24151[ebp], edx
$L24153:

; 113  : 		while (*pch != '\0')

  0006d	8b 45 e0	 mov	 eax, DWORD PTR _pch$24151[ebp]
  00070	0f be 08	 movsx	 ecx, BYTE PTR [eax]
  00073	85 c9		 test	 ecx, ecx
  00075	74 24		 je	 SHORT $L24150

; 114  : 		{
; 115  : 			nACP *= 10;

  00077	8b 55 f8	 mov	 edx, DWORD PTR _nACP$[ebp]
  0007a	6b d2 0a	 imul	 edx, 10			; 0000000aH
  0007d	89 55 f8	 mov	 DWORD PTR _nACP$[ebp], edx

; 116  : 			nACP += *pch++ - '0';

  00080	8b 45 e0	 mov	 eax, DWORD PTR _pch$24151[ebp]
  00083	0f be 08	 movsx	 ecx, BYTE PTR [eax]
  00086	8b 55 f8	 mov	 edx, DWORD PTR _nACP$[ebp]
  00089	8d 44 0a d0	 lea	 eax, DWORD PTR [edx+ecx-48]
  0008d	89 45 f8	 mov	 DWORD PTR _nACP$[ebp], eax
  00090	8b 4d e0	 mov	 ecx, DWORD PTR _pch$24151[ebp]
  00093	83 c1 01	 add	 ecx, 1
  00096	89 4d e0	 mov	 DWORD PTR _pch$24151[ebp], ecx

; 117  : 		}

  00099	eb d2		 jmp	 SHORT $L24153
$L24150:

; 118  : 	}
; 119  : 	// Use the Default ANSI Code Page if we were unable to get the thread ACP or if one does not exist.
; 120  : 	if (nACP == 0)

  0009b	83 7d f8 00	 cmp	 DWORD PTR _nACP$[ebp], 0
  0009f	75 12		 jne	 SHORT $L24155

; 121  : 		nACP = ::GetACP();

  000a1	8b f4		 mov	 esi, esp
  000a3	ff 15 00 00 00
	00		 call	 DWORD PTR __imp__GetACP@0
  000a9	3b f4		 cmp	 esi, esp
  000ab	e8 00 00 00 00	 call	 __RTC_CheckEsp
  000b0	89 45 f8	 mov	 DWORD PTR _nACP$[ebp], eax
$L24155:

; 122  : 
; 123  : 	return nACP;

  000b3	8b 45 f8	 mov	 eax, DWORD PTR _nACP$[ebp]

; 124  : }

  000b6	52		 push	 edx
  000b7	8b cd		 mov	 ecx, ebp
  000b9	50		 push	 eax
  000ba	8d 15 00 00 00
	00		 lea	 edx, DWORD PTR $L188946
  000c0	e8 00 00 00 00	 call	 @_RTC_CheckStackVars@8
  000c5	58		 pop	 eax
  000c6	5a		 pop	 edx
  000c7	8b 4d fc	 mov	 ecx, DWORD PTR __$ArrayPad$[ebp]
  000ca	e8 00 00 00 00	 call	 @__security_check_cookie@4
  000cf	5e		 pop	 esi
  000d0	83 c4 20	 add	 esp, 32			; 00000020H
  000d3	3b ec		 cmp	 ebp, esp
  000d5	e8 00 00 00 00	 call	 __RTC_CheckEsp
  000da	8b e5		 mov	 esp, ebp
  000dc	5d		 pop	 ebp
  000dd	c3		 ret	 0
$L188946:
  000de	01 00 00 00	 DD	 1
  000e2	00 00 00 00	 DD	 $L188945
$L188945:
  000e6	e8 ff ff ff	 DD	 -24			; ffffffe8H
  000ea	07 00 00 00	 DD	 7
  000ee	00 00 00 00	 DD	 $L188943
$L188943:
  000f2	73		 DB	 115			; 00000073H
  000f3	7a		 DB	 122			; 0000007aH
  000f4	41		 DB	 65			; 00000041H
  000f5	43		 DB	 67			; 00000043H
  000f6	50		 DB	 80			; 00000050H
  000f7	00		 DB	 0
?_AtlGetThreadACPFake@ATL@@YGIXZ ENDP			; ATL::_AtlGetThreadACPFake
; Function compile flags: /Odt /RTCsu
_TEXT	ENDS
;	COMDAT ?_AtlGetThreadACPReal@ATL@@YGIXZ
_TEXT	SEGMENT
?_AtlGetThreadACPReal@ATL@@YGIXZ PROC NEAR		; ATL::_AtlGetThreadACPReal, COMDAT

; 127  : {

  00000	55		 push	 ebp
  00001	8b ec		 mov	 ebp, esp

; 128  : 	return( CP_THREAD_ACP );

  00003	b8 03 00 00 00	 mov	 eax, 3

; 129  : }

  00008	5d		 pop	 ebp
  00009	c3		 ret	 0
?_AtlGetThreadACPReal@ATL@@YGIXZ ENDP			; ATL::_AtlGetThreadACPReal
_TEXT	ENDS
PUBLIC	?DrawBmpShade@CButtonDraw@@IAEXPAVCDC@@AAVCRect@@@Z ; CButtonDraw::DrawBmpShade
EXTRN	??1CImageList@@UAE@XZ:NEAR			; CImageList::~CImageList
EXTRN	__imp__CreateSolidBrush@4:NEAR
EXTRN	__imp__DeleteObject@4:NEAR
EXTRN	??0CPoint@@QAE@HH@Z:NEAR			; CPoint::CPoint
EXTRN	?GetBitmapDimension@CBitmap@@QBE?AVCSize@@XZ:NEAR ; CBitmap::GetBitmapDimension
EXTRN	__imp__FrameRect@12:NEAR
EXTRN	__imp__InflateRect@12:NEAR
EXTRN	??0CImageList@@QAE@XZ:NEAR			; CImageList::CImageList
EXTRN	?Create@CImageList@@QAEHHHIHH@Z:NEAR		; CImageList::Create
EXTRN	?DeleteImageList@CImageList@@QAEHXZ:NEAR	; CImageList::DeleteImageList
EXTRN	?Add@CImageList@@QAEHPAVCBitmap@@K@Z:NEAR	; CImageList::Add
EXTRN	?Draw@CImageList@@QAEHPAVCDC@@HUtagPOINT@@I@Z:NEAR ; CImageList::Draw
xdata$x	SEGMENT
$T188965 DD	0ffffffffH
	DD	FLAT:$L188955
$T188957 DD	019930520H
	DD	01H
	DD	FLAT:$T188965
	DD	2 DUP(00H)
	DD	2 DUP(00H)
; Function compile flags: /Odt /RTCsu
; File d:\boxgit\playbox\playbox\dev\prj\playbox\src\layoutmgr\changecolor\skinbotton.cpp
xdata$x	ENDS
_TEXT	SEGMENT
tv81 = -144						; size = 4
tv76 = -140						; size = 4
$T188954 = -136						; size = 8
$T188953 = -128						; size = 8
_rect$ = -116						; size = 16
_hbru$ = -96						; size = 4
_hHandle$ = -92						; size = 4
_lrcFrame$ = -84					; size = 16
_m_Image$ = -60						; size = 8
_nY$ = -48						; size = 4
_nX$ = -44						; size = 4
_lisrcWidth$ = -40					; size = 4
_lisrcHight$ = -36					; size = 4
_lsize$ = -28						; size = 8
_this$ = -16						; size = 4
__$EHRec$ = -12						; size = 12
_aHDC$ = 8						; size = 4
_aRect$ = 12						; size = 4
_astr$ = 16						; size = 4
_aBitMap$ = 20						; size = 4
?DrawSkinEnter@CButtonDraw@@IAEXAAPAUHDC__@@AAUtagRECT@@AAV?$CStringT@DV?$StrTraitMFC_DLL@DV?$ChTraitsCRT@D@ATL@@@@@ATL@@PAVCBitmap@@@Z PROC NEAR ; CButtonDraw::DrawSkinEnter
; _this$ = ecx

; 355  : {

  00fd0	55		 push	 ebp
  00fd1	8b ec		 mov	 ebp, esp
  00fd3	6a ff		 push	 -1
  00fd5	68 00 00 00 00	 push	 __ehhandler$?DrawSkinEnter@CButtonDraw@@IAEXAAPAUHDC__@@AAUtagRECT@@AAV?$CStringT@DV?$StrTraitMFC_DLL@DV?$ChTraitsCRT@D@ATL@@@@@ATL@@PAVCBitmap@@@Z
  00fda	64 a1 00 00 00
	00		 mov	 eax, DWORD PTR fs:__except_list
  00fe0	50		 push	 eax
  00fe1	64 89 25 00 00
	00 00		 mov	 DWORD PTR fs:__except_list, esp
  00fe8	81 ec 84 00 00
	00		 sub	 esp, 132		; 00000084H
  00fee	56		 push	 esi
  00fef	57		 push	 edi
  00ff0	51		 push	 ecx
  00ff1	8d bd 70 ff ff
	ff		 lea	 edi, DWORD PTR [ebp-144]
  00ff7	b9 21 00 00 00	 mov	 ecx, 33			; 00000021H
  00ffc	b8 cc cc cc cc	 mov	 eax, -858993460		; ccccccccH
  01001	f3 ab		 rep stosd
  01003	59		 pop	 ecx
  01004	89 4d f0	 mov	 DWORD PTR _this$[ebp], ecx

; 356  : 	if( NULL == aBitMap) return ;

  01007	83 7d 14 00	 cmp	 DWORD PTR _aBitMap$[ebp], 0
  0100b	75 05		 jne	 SHORT $L187927
  0100d	e9 57 02 00 00	 jmp	 $L187926
$L187927:

; 357  : 	CSize lsize = aBitMap->GetBitmapDimension();

  01012	8d 45 e4	 lea	 eax, DWORD PTR _lsize$[ebp]
  01015	50		 push	 eax
  01016	8b 4d 14	 mov	 ecx, DWORD PTR _aBitMap$[ebp]
  01019	e8 00 00 00 00	 call	 ?GetBitmapDimension@CBitmap@@QBE?AVCSize@@XZ ; CBitmap::GetBitmapDimension

; 358  : 
; 359  : 	int lisrcHight = aRect.bottom - aRect.top;

  0101e	8b 4d 0c	 mov	 ecx, DWORD PTR _aRect$[ebp]
  01021	8b 55 0c	 mov	 edx, DWORD PTR _aRect$[ebp]
  01024	8b 41 0c	 mov	 eax, DWORD PTR [ecx+12]
  01027	2b 42 04	 sub	 eax, DWORD PTR [edx+4]
  0102a	89 45 dc	 mov	 DWORD PTR _lisrcHight$[ebp], eax

; 360  : 	int lisrcWidth = aRect.right  - aRect.left; 

  0102d	8b 4d 0c	 mov	 ecx, DWORD PTR _aRect$[ebp]
  01030	8b 55 0c	 mov	 edx, DWORD PTR _aRect$[ebp]
  01033	8b 41 08	 mov	 eax, DWORD PTR [ecx+8]
  01036	2b 02		 sub	 eax, DWORD PTR [edx]
  01038	89 45 d8	 mov	 DWORD PTR _lisrcWidth$[ebp], eax

; 361  : 
; 362  : 	int nX = (lisrcWidth-lsize.cx)>4? (lisrcWidth-lsize.cx)/2:2;

  0103b	8b 4d d8	 mov	 ecx, DWORD PTR _lisrcWidth$[ebp]
  0103e	2b 4d e4	 sub	 ecx, DWORD PTR _lsize$[ebp]
  01041	83 f9 04	 cmp	 ecx, 4
  01044	7e 13		 jle	 SHORT $L188949
  01046	8b 45 d8	 mov	 eax, DWORD PTR _lisrcWidth$[ebp]
  01049	2b 45 e4	 sub	 eax, DWORD PTR _lsize$[ebp]
  0104c	99		 cdq
  0104d	2b c2		 sub	 eax, edx
  0104f	d1 f8		 sar	 eax, 1
  01051	89 85 74 ff ff
	ff		 mov	 DWORD PTR tv76[ebp], eax
  01057	eb 0a		 jmp	 SHORT $L188950
$L188949:
  01059	c7 85 74 ff ff
	ff 02 00 00 00	 mov	 DWORD PTR tv76[ebp], 2
$L188950:
  01063	8b 95 74 ff ff
	ff		 mov	 edx, DWORD PTR tv76[ebp]
  01069	89 55 d4	 mov	 DWORD PTR _nX$[ebp], edx

; 363  : 	int nY = (lisrcHight-lsize.cy)>4? (lisrcHight-lsize.cy)/2:2;

  0106c	8b 45 dc	 mov	 eax, DWORD PTR _lisrcHight$[ebp]
  0106f	2b 45 e8	 sub	 eax, DWORD PTR _lsize$[ebp+4]
  01072	83 f8 04	 cmp	 eax, 4
  01075	7e 13		 jle	 SHORT $L188951
  01077	8b 45 dc	 mov	 eax, DWORD PTR _lisrcHight$[ebp]
  0107a	2b 45 e8	 sub	 eax, DWORD PTR _lsize$[ebp+4]
  0107d	99		 cdq
  0107e	2b c2		 sub	 eax, edx
  01080	d1 f8		 sar	 eax, 1
  01082	89 85 70 ff ff
	ff		 mov	 DWORD PTR tv81[ebp], eax
  01088	eb 0a		 jmp	 SHORT $L188952
$L188951:
  0108a	c7 85 70 ff ff
	ff 02 00 00 00	 mov	 DWORD PTR tv81[ebp], 2
$L188952:
  01094	8b 8d 70 ff ff
	ff		 mov	 ecx, DWORD PTR tv81[ebp]
  0109a	89 4d d0	 mov	 DWORD PTR _nY$[ebp], ecx

; 364  : 	CImageList  m_Image;

  0109d	8d 4d c4	 lea	 ecx, DWORD PTR _m_Image$[ebp]
  010a0	e8 00 00 00 00	 call	 ??0CImageList@@QAE@XZ	; CImageList::CImageList
  010a5	c7 45 fc 00 00
	00 00		 mov	 DWORD PTR __$EHRec$[ebp+8], 0

; 365  : 	m_Image.Create(lsize.cx,lsize.cy,ILC_COLOR24|ILC_MASK,1,1);

  010ac	6a 01		 push	 1
  010ae	6a 01		 push	 1
  010b0	6a 19		 push	 25			; 00000019H
  010b2	8b 55 e8	 mov	 edx, DWORD PTR _lsize$[ebp+4]
  010b5	52		 push	 edx
  010b6	8b 45 e4	 mov	 eax, DWORD PTR _lsize$[ebp]
  010b9	50		 push	 eax
  010ba	8d 4d c4	 lea	 ecx, DWORD PTR _m_Image$[ebp]
  010bd	e8 00 00 00 00	 call	 ?Create@CImageList@@QAEHHHIHH@Z ; CImageList::Create

; 366  : 	m_Image.Add( aBitMap ,0xff00ff);

  010c2	68 ff 00 ff 00	 push	 16711935		; 00ff00ffH
  010c7	8b 4d 14	 mov	 ecx, DWORD PTR _aBitMap$[ebp]
  010ca	51		 push	 ecx
  010cb	8d 4d c4	 lea	 ecx, DWORD PTR _m_Image$[ebp]
  010ce	e8 00 00 00 00	 call	 ?Add@CImageList@@QAEHPAVCBitmap@@K@Z ; CImageList::Add

; 367  : 	m_Image.Draw( CDC::FromHandle(aHDC),0,CPoint(nX,nY),ILD_NORMAL);

  010d3	8b 55 d0	 mov	 edx, DWORD PTR _nY$[ebp]
  010d6	52		 push	 edx
  010d7	8b 45 d4	 mov	 eax, DWORD PTR _nX$[ebp]
  010da	50		 push	 eax
  010db	8d 8d 78 ff ff
	ff		 lea	 ecx, DWORD PTR $T188954[ebp]
  010e1	e8 00 00 00 00	 call	 ??0CPoint@@QAE@HH@Z	; CPoint::CPoint
  010e6	8b 08		 mov	 ecx, DWORD PTR [eax]
  010e8	8b 50 04	 mov	 edx, DWORD PTR [eax+4]
  010eb	89 4d 80	 mov	 DWORD PTR $T188953[ebp], ecx
  010ee	89 55 84	 mov	 DWORD PTR $T188953[ebp+4], edx
  010f1	6a 00		 push	 0
  010f3	8b 45 84	 mov	 eax, DWORD PTR $T188953[ebp+4]
  010f6	50		 push	 eax
  010f7	8b 4d 80	 mov	 ecx, DWORD PTR $T188953[ebp]
  010fa	51		 push	 ecx
  010fb	6a 00		 push	 0
  010fd	8b 55 08	 mov	 edx, DWORD PTR _aHDC$[ebp]
  01100	8b 02		 mov	 eax, DWORD PTR [edx]
  01102	50		 push	 eax
  01103	e8 00 00 00 00	 call	 ?FromHandle@CDC@@SGPAV1@PAUHDC__@@@Z ; CDC::FromHandle
  01108	50		 push	 eax
  01109	8d 4d c4	 lea	 ecx, DWORD PTR _m_Image$[ebp]
  0110c	e8 00 00 00 00	 call	 ?Draw@CImageList@@QAEHPAVCDC@@HUtagPOINT@@I@Z ; CImageList::Draw

; 368  : 	m_Image.DeleteImageList();

  01111	8d 4d c4	 lea	 ecx, DWORD PTR _m_Image$[ebp]
  01114	e8 00 00 00 00	 call	 ?DeleteImageList@CImageList@@QAEHXZ ; CImageList::DeleteImageList

; 369  : 
; 370  : 	CRect lrcFrame(nX,nY,nX+lsize.cx, nY+lsize.cy);

  01119	8b 4d d0	 mov	 ecx, DWORD PTR _nY$[ebp]
  0111c	03 4d e8	 add	 ecx, DWORD PTR _lsize$[ebp+4]
  0111f	51		 push	 ecx
  01120	8b 55 d4	 mov	 edx, DWORD PTR _nX$[ebp]
  01123	03 55 e4	 add	 edx, DWORD PTR _lsize$[ebp]
  01126	52		 push	 edx
  01127	8b 45 d0	 mov	 eax, DWORD PTR _nY$[ebp]
  0112a	50		 push	 eax
  0112b	8b 4d d4	 mov	 ecx, DWORD PTR _nX$[ebp]
  0112e	51		 push	 ecx
  0112f	8d 4d ac	 lea	 ecx, DWORD PTR _lrcFrame$[ebp]
  01132	e8 00 00 00 00	 call	 ??0CRect@@QAE@HHHH@Z	; CRect::CRect

; 371  : 	HBRUSH hHandle = 0;

  01137	c7 45 a4 00 00
	00 00		 mov	 DWORD PTR _hHandle$[ebp], 0

; 372  : 	hHandle = CreateSolidBrush(gWndColor.getColor(COLOL_CTROL)->structColBase->colFrame2);

  0113e	6a 05		 push	 5
  01140	b9 00 00 00 00	 mov	 ecx, OFFSET FLAT:?gWndColor@@3VCWndColorMgr@@A ; gWndColor
  01145	e8 00 00 00 00	 call	 ?getColor@CWndColorMgr@@QAEPAUCtrColBase@@I@Z ; CWndColorMgr::getColor
  0114a	8b 10		 mov	 edx, DWORD PTR [eax]
  0114c	8b f4		 mov	 esi, esp
  0114e	8b 42 04	 mov	 eax, DWORD PTR [edx+4]
  01151	50		 push	 eax
  01152	ff 15 00 00 00
	00		 call	 DWORD PTR __imp__CreateSolidBrush@4
  01158	3b f4		 cmp	 esi, esp
  0115a	e8 00 00 00 00	 call	 __RTC_CheckEsp
  0115f	89 45 a4	 mov	 DWORD PTR _hHandle$[ebp], eax

; 373  : 	//::InflateRect(&lrcFrame,1,1);
; 374  : 	FrameRect(aHDC, &lrcFrame,(HBRUSH)hHandle );

  01162	8b f4		 mov	 esi, esp
  01164	8b 4d a4	 mov	 ecx, DWORD PTR _hHandle$[ebp]
  01167	51		 push	 ecx
  01168	8d 55 ac	 lea	 edx, DWORD PTR _lrcFrame$[ebp]
  0116b	52		 push	 edx
  0116c	8b 45 08	 mov	 eax, DWORD PTR _aHDC$[ebp]
  0116f	8b 08		 mov	 ecx, DWORD PTR [eax]
  01171	51		 push	 ecx
  01172	ff 15 00 00 00
	00		 call	 DWORD PTR __imp__FrameRect@12
  01178	3b f4		 cmp	 esi, esp
  0117a	e8 00 00 00 00	 call	 __RTC_CheckEsp

; 375  : 	::InflateRect(&lrcFrame,-1,-1);

  0117f	8b f4		 mov	 esi, esp
  01181	6a ff		 push	 -1
  01183	6a ff		 push	 -1
  01185	8d 55 ac	 lea	 edx, DWORD PTR _lrcFrame$[ebp]
  01188	52		 push	 edx
  01189	ff 15 00 00 00
	00		 call	 DWORD PTR __imp__InflateRect@12
  0118f	3b f4		 cmp	 esi, esp
  01191	e8 00 00 00 00	 call	 __RTC_CheckEsp

; 376  : 	FrameRect(aHDC, &lrcFrame,(HBRUSH)hHandle );

  01196	8b f4		 mov	 esi, esp
  01198	8b 45 a4	 mov	 eax, DWORD PTR _hHandle$[ebp]
  0119b	50		 push	 eax
  0119c	8d 4d ac	 lea	 ecx, DWORD PTR _lrcFrame$[ebp]
  0119f	51		 push	 ecx
  011a0	8b 55 08	 mov	 edx, DWORD PTR _aHDC$[ebp]
  011a3	8b 02		 mov	 eax, DWORD PTR [edx]
  011a5	50		 push	 eax
  011a6	ff 15 00 00 00
	00		 call	 DWORD PTR __imp__FrameRect@12
  011ac	3b f4		 cmp	 esi, esp
  011ae	e8 00 00 00 00	 call	 __RTC_CheckEsp

; 377  : 	::InflateRect(&lrcFrame,-1,-1);

  011b3	8b f4		 mov	 esi, esp
  011b5	6a ff		 push	 -1
  011b7	6a ff		 push	 -1
  011b9	8d 4d ac	 lea	 ecx, DWORD PTR _lrcFrame$[ebp]
  011bc	51		 push	 ecx
  011bd	ff 15 00 00 00
	00		 call	 DWORD PTR __imp__InflateRect@12
  011c3	3b f4		 cmp	 esi, esp
  011c5	e8 00 00 00 00	 call	 __RTC_CheckEsp

; 378  : 	HBRUSH hbru = CreateSolidBrush(RGB(255,255,255));

  011ca	8b f4		 mov	 esi, esp
  011cc	68 ff ff ff 00	 push	 16777215		; 00ffffffH
  011d1	ff 15 00 00 00
	00		 call	 DWORD PTR __imp__CreateSolidBrush@4
  011d7	3b f4		 cmp	 esi, esp
  011d9	e8 00 00 00 00	 call	 __RTC_CheckEsp
  011de	89 45 a0	 mov	 DWORD PTR _hbru$[ebp], eax

; 379  : 	FrameRect(aHDC, &lrcFrame,(HBRUSH)hbru );

  011e1	8b f4		 mov	 esi, esp
  011e3	8b 55 a0	 mov	 edx, DWORD PTR _hbru$[ebp]
  011e6	52		 push	 edx
  011e7	8d 45 ac	 lea	 eax, DWORD PTR _lrcFrame$[ebp]
  011ea	50		 push	 eax
  011eb	8b 4d 08	 mov	 ecx, DWORD PTR _aHDC$[ebp]
  011ee	8b 11		 mov	 edx, DWORD PTR [ecx]
  011f0	52		 push	 edx
  011f1	ff 15 00 00 00
	00		 call	 DWORD PTR __imp__FrameRect@12
  011f7	3b f4		 cmp	 esi, esp
  011f9	e8 00 00 00 00	 call	 __RTC_CheckEsp

; 380  : 	DeleteObject((HGDIOBJ)hHandle);

  011fe	8b f4		 mov	 esi, esp
  01200	8b 45 a4	 mov	 eax, DWORD PTR _hHandle$[ebp]
  01203	50		 push	 eax
  01204	ff 15 00 00 00
	00		 call	 DWORD PTR __imp__DeleteObject@4
  0120a	3b f4		 cmp	 esi, esp
  0120c	e8 00 00 00 00	 call	 __RTC_CheckEsp

; 381  : 	DeleteObject(hbru);

  01211	8b f4		 mov	 esi, esp
  01213	8b 4d a0	 mov	 ecx, DWORD PTR _hbru$[ebp]
  01216	51		 push	 ecx
  01217	ff 15 00 00 00
	00		 call	 DWORD PTR __imp__DeleteObject@4
  0121d	3b f4		 cmp	 esi, esp
  0121f	e8 00 00 00 00	 call	 __RTC_CheckEsp

; 382  : 
; 383  : 	CRect rect( nX, nY, nX+lsize.cx, nY+ lsize.cy );

  01224	8b 55 d0	 mov	 edx, DWORD PTR _nY$[ebp]
  01227	03 55 e8	 add	 edx, DWORD PTR _lsize$[ebp+4]
  0122a	52		 push	 edx
  0122b	8b 45 d4	 mov	 eax, DWORD PTR _nX$[ebp]
  0122e	03 45 e4	 add	 eax, DWORD PTR _lsize$[ebp]
  01231	50		 push	 eax
  01232	8b 4d d0	 mov	 ecx, DWORD PTR _nY$[ebp]
  01235	51		 push	 ecx
  01236	8b 55 d4	 mov	 edx, DWORD PTR _nX$[ebp]
  01239	52		 push	 edx
  0123a	8d 4d 8c	 lea	 ecx, DWORD PTR _rect$[ebp]
  0123d	e8 00 00 00 00	 call	 ??0CRect@@QAE@HHHH@Z	; CRect::CRect

; 384  : 	DrawBmpShade( CDC::FromHandle(aHDC), rect );

  01242	8d 45 8c	 lea	 eax, DWORD PTR _rect$[ebp]
  01245	50		 push	 eax
  01246	8b 4d 08	 mov	 ecx, DWORD PTR _aHDC$[ebp]
  01249	8b 11		 mov	 edx, DWORD PTR [ecx]
  0124b	52		 push	 edx
  0124c	e8 00 00 00 00	 call	 ?FromHandle@CDC@@SGPAV1@PAUHDC__@@@Z ; CDC::FromHandle
  01251	50		 push	 eax
  01252	8b 4d f0	 mov	 ecx, DWORD PTR _this$[ebp]
  01255	e8 00 00 00 00	 call	 ?DrawBmpShade@CButtonDraw@@IAEXPAVCDC@@AAVCRect@@@Z ; CButtonDraw::DrawBmpShade

; 385  : }

  0125a	c7 45 fc ff ff
	ff ff		 mov	 DWORD PTR __$EHRec$[ebp+8], -1
  01261	8d 4d c4	 lea	 ecx, DWORD PTR _m_Image$[ebp]
  01264	e8 00 00 00 00	 call	 ??1CImageList@@UAE@XZ	; CImageList::~CImageList
$L187926:
  01269	52		 push	 edx
  0126a	8b cd		 mov	 ecx, ebp
  0126c	50		 push	 eax
  0126d	8d 15 00 00 00
	00		 lea	 edx, DWORD PTR $L188964
  01273	e8 00 00 00 00	 call	 @_RTC_CheckStackVars@8
  01278	58		 pop	 eax
  01279	5a		 pop	 edx
  0127a	8b 4d f4	 mov	 ecx, DWORD PTR __$EHRec$[ebp]
  0127d	64 89 0d 00 00
	00 00		 mov	 DWORD PTR fs:__except_list, ecx
  01284	5f		 pop	 edi
  01285	5e		 pop	 esi
  01286	81 c4 90 00 00
	00		 add	 esp, 144		; 00000090H
  0128c	3b ec		 cmp	 ebp, esp
  0128e	e8 00 00 00 00	 call	 __RTC_CheckEsp
  01293	8b e5		 mov	 esp, ebp
  01295	5d		 pop	 ebp
  01296	c2 10 00	 ret	 16			; 00000010H
$L188964:
  01299	04 00 00 00	 DD	 4
  0129d	00 00 00 00	 DD	 $L188963
$L188963:
  012a1	e4 ff ff ff	 DD	 -28			; ffffffe4H
  012a5	08 00 00 00	 DD	 8
  012a9	00 00 00 00	 DD	 $L188958
  012ad	c4 ff ff ff	 DD	 -60			; ffffffc4H
  012b1	08 00 00 00	 DD	 8
  012b5	00 00 00 00	 DD	 $L188959
  012b9	ac ff ff ff	 DD	 -84			; ffffffacH
  012bd	10 00 00 00	 DD	 16			; 00000010H
  012c1	00 00 00 00	 DD	 $L188960
  012c5	8c ff ff ff	 DD	 -116			; ffffff8cH
  012c9	10 00 00 00	 DD	 16			; 00000010H
  012cd	00 00 00 00	 DD	 $L188961
$L188961:
  012d1	72		 DB	 114			; 00000072H
  012d2	65		 DB	 101			; 00000065H
  012d3	63		 DB	 99			; 00000063H
  012d4	74		 DB	 116			; 00000074H
  012d5	00		 DB	 0
$L188960:
  012d6	6c		 DB	 108			; 0000006cH
  012d7	72		 DB	 114			; 00000072H
  012d8	63		 DB	 99			; 00000063H
  012d9	46		 DB	 70			; 00000046H
  012da	72		 DB	 114			; 00000072H
  012db	61		 DB	 97			; 00000061H
  012dc	6d		 DB	 109			; 0000006dH
  012dd	65		 DB	 101			; 00000065H
  012de	00		 DB	 0
$L188959:
  012df	6d		 DB	 109			; 0000006dH
  012e0	5f		 DB	 95			; 0000005fH
  012e1	49		 DB	 73			; 00000049H
  012e2	6d		 DB	 109			; 0000006dH
  012e3	61		 DB	 97			; 00000061H
  012e4	67		 DB	 103			; 00000067H
  012e5	65		 DB	 101			; 00000065H
  012e6	00		 DB	 0
$L188958:
  012e7	6c		 DB	 108			; 0000006cH
  012e8	73		 DB	 115			; 00000073H
  012e9	69		 DB	 105			; 00000069H
  012ea	7a		 DB	 122			; 0000007aH
  012eb	65		 DB	 101			; 00000065H
  012ec	00		 DB	 0
_TEXT	ENDS
text$x	SEGMENT
$L188955:
  0012b	8d 4d c4	 lea	 ecx, DWORD PTR _m_Image$[ebp]
  0012e	e9 00 00 00 00	 jmp	 ??1CImageList@@UAE@XZ	; CImageList::~CImageList
__ehhandler$?DrawSkinEnter@CButtonDraw@@IAEXAAPAUHDC__@@AAUtagRECT@@AAV?$CStringT@DV?$StrTraitMFC_DLL@DV?$ChTraitsCRT@D@ATL@@@@@ATL@@PAVCBitmap@@@Z:
  00133	b8 00 00 00 00	 mov	 eax, OFFSET FLAT:$T188957
  00138	e9 00 00 00 00	 jmp	 ___CxxFrameHandler
text$x	ENDS
?DrawSkinEnter@CButtonDraw@@IAEXAAPAUHDC__@@AAUtagRECT@@AAV?$CStringT@DV?$StrTraitMFC_DLL@DV?$ChTraitsCRT@D@ATL@@@@@ATL@@PAVCBitmap@@@Z ENDP ; CButtonDraw::DrawSkinEnter
xdata$x	SEGMENT
$T188982 DD	0ffffffffH
	DD	FLAT:$L188973
$T188975 DD	019930520H
	DD	01H
	DD	FLAT:$T188982
	DD	2 DUP(00H)
	DD	2 DUP(00H)
; Function compile flags: /Odt /RTCsu
xdata$x	ENDS
_TEXT	SEGMENT
tv81 = -112						; size = 4
tv76 = -108						; size = 4
$T188972 = -104						; size = 8
$T188971 = -96						; size = 8
_rect$ = -84						; size = 16
_m_Image$ = -60						; size = 8
_nY$ = -48						; size = 4
_nX$ = -44						; size = 4
_lisrcWidth$ = -40					; size = 4
_lisrcHight$ = -36					; size = 4
_lsize$ = -28						; size = 8
_this$ = -16						; size = 4
__$EHRec$ = -12						; size = 12
_aHDC$ = 8						; size = 4
_aRect$ = 12						; size = 4
_astr$ = 16						; size = 4
_aBitMap$ = 20						; size = 4
?DrawSkinNormal@CButtonDraw@@IAEXAAPAUHDC__@@AAUtagRECT@@AAV?$CStringT@DV?$StrTraitMFC_DLL@DV?$ChTraitsCRT@D@ATL@@@@@ATL@@PAVCBitmap@@@Z PROC NEAR ; CButtonDraw::DrawSkinNormal
; _this$ = ecx

; 387  : {

  012f0	55		 push	 ebp
  012f1	8b ec		 mov	 ebp, esp
  012f3	6a ff		 push	 -1
  012f5	68 00 00 00 00	 push	 __ehhandler$?DrawSkinNormal@CButtonDraw@@IAEXAAPAUHDC__@@AAUtagRECT@@AAV?$CStringT@DV?$StrTraitMFC_DLL@DV?$ChTraitsCRT@D@ATL@@@@@ATL@@PAVCBitmap@@@Z
  012fa	64 a1 00 00 00
	00		 mov	 eax, DWORD PTR fs:__except_list
  01300	50		 push	 eax
  01301	64 89 25 00 00
	00 00		 mov	 DWORD PTR fs:__except_list, esp
  01308	83 ec 64	 sub	 esp, 100		; 00000064H
  0130b	57		 push	 edi
  0130c	51		 push	 ecx
  0130d	8d 7d 90	 lea	 edi, DWORD PTR [ebp-112]
  01310	b9 19 00 00 00	 mov	 ecx, 25			; 00000019H
  01315	b8 cc cc cc cc	 mov	 eax, -858993460		; ccccccccH
  0131a	f3 ab		 rep stosd
  0131c	59		 pop	 ecx
  0131d	89 4d f0	 mov	 DWORD PTR _this$[ebp], ecx

; 388  : 	if( NULL == aBitMap) return ;

  01320	83 7d 14 00	 cmp	 DWORD PTR _aBitMap$[ebp], 0
  01324	75 05		 jne	 SHORT $L187958
  01326	e9 37 01 00 00	 jmp	 $L187957
$L187958:

; 389  : 	CSize lsize = aBitMap->GetBitmapDimension();

  0132b	8d 45 e4	 lea	 eax, DWORD PTR _lsize$[ebp]
  0132e	50		 push	 eax
  0132f	8b 4d 14	 mov	 ecx, DWORD PTR _aBitMap$[ebp]
  01332	e8 00 00 00 00	 call	 ?GetBitmapDimension@CBitmap@@QBE?AVCSize@@XZ ; CBitmap::GetBitmapDimension

; 390  : 
; 391  : 	int lisrcHight = aRect.bottom - aRect.top;

  01337	8b 4d 0c	 mov	 ecx, DWORD PTR _aRect$[ebp]
  0133a	8b 55 0c	 mov	 edx, DWORD PTR _aRect$[ebp]
  0133d	8b 41 0c	 mov	 eax, DWORD PTR [ecx+12]
  01340	2b 42 04	 sub	 eax, DWORD PTR [edx+4]
  01343	89 45 dc	 mov	 DWORD PTR _lisrcHight$[ebp], eax

; 392  : 	int lisrcWidth = aRect.right  - aRect.left; 

  01346	8b 4d 0c	 mov	 ecx, DWORD PTR _aRect$[ebp]
  01349	8b 55 0c	 mov	 edx, DWORD PTR _aRect$[ebp]
  0134c	8b 41 08	 mov	 eax, DWORD PTR [ecx+8]
  0134f	2b 02		 sub	 eax, DWORD PTR [edx]
  01351	89 45 d8	 mov	 DWORD PTR _lisrcWidth$[ebp], eax

; 393  : 
; 394  : 	int nX = (lisrcWidth-lsize.cx)>4? (lisrcWidth-lsize.cx)/2:2;

  01354	8b 4d d8	 mov	 ecx, DWORD PTR _lisrcWidth$[ebp]
  01357	2b 4d e4	 sub	 ecx, DWORD PTR _lsize$[ebp]
  0135a	83 f9 04	 cmp	 ecx, 4
  0135d	7e 10		 jle	 SHORT $L188967
  0135f	8b 45 d8	 mov	 eax, DWORD PTR _lisrcWidth$[ebp]
  01362	2b 45 e4	 sub	 eax, DWORD PTR _lsize$[ebp]
  01365	99		 cdq
  01366	2b c2		 sub	 eax, edx
  01368	d1 f8		 sar	 eax, 1
  0136a	89 45 94	 mov	 DWORD PTR tv76[ebp], eax
  0136d	eb 07		 jmp	 SHORT $L188968
$L188967:
  0136f	c7 45 94 02 00
	00 00		 mov	 DWORD PTR tv76[ebp], 2
$L188968:
  01376	8b 55 94	 mov	 edx, DWORD PTR tv76[ebp]
  01379	89 55 d4	 mov	 DWORD PTR _nX$[ebp], edx

; 395  : 	int nY = (lisrcHight-lsize.cy)>4? (lisrcHight-lsize.cy)/2:2;

  0137c	8b 45 dc	 mov	 eax, DWORD PTR _lisrcHight$[ebp]
  0137f	2b 45 e8	 sub	 eax, DWORD PTR _lsize$[ebp+4]
  01382	83 f8 04	 cmp	 eax, 4
  01385	7e 10		 jle	 SHORT $L188969
  01387	8b 45 dc	 mov	 eax, DWORD PTR _lisrcHight$[ebp]
  0138a	2b 45 e8	 sub	 eax, DWORD PTR _lsize$[ebp+4]
  0138d	99		 cdq
  0138e	2b c2		 sub	 eax, edx
  01390	d1 f8		 sar	 eax, 1
  01392	89 45 90	 mov	 DWORD PTR tv81[ebp], eax
  01395	eb 07		 jmp	 SHORT $L188970
$L188969:
  01397	c7 45 90 02 00
	00 00		 mov	 DWORD PTR tv81[ebp], 2
$L188970:
  0139e	8b 4d 90	 mov	 ecx, DWORD PTR tv81[ebp]
  013a1	89 4d d0	 mov	 DWORD PTR _nY$[ebp], ecx

; 396  : 
; 397  : 	CImageList  m_Image;

  013a4	8d 4d c4	 lea	 ecx, DWORD PTR _m_Image$[ebp]
  013a7	e8 00 00 00 00	 call	 ??0CImageList@@QAE@XZ	; CImageList::CImageList
  013ac	c7 45 fc 00 00
	00 00		 mov	 DWORD PTR __$EHRec$[ebp+8], 0

; 398  : 	m_Image.Create(lsize.cx,lsize.cy,ILC_COLOR24|ILC_MASK,1,1);

  013b3	6a 01		 push	 1
  013b5	6a 01		 push	 1
  013b7	6a 19		 push	 25			; 00000019H
  013b9	8b 55 e8	 mov	 edx, DWORD PTR _lsize$[ebp+4]
  013bc	52		 push	 edx
  013bd	8b 45 e4	 mov	 eax, DWORD PTR _lsize$[ebp]
  013c0	50		 push	 eax
  013c1	8d 4d c4	 lea	 ecx, DWORD PTR _m_Image$[ebp]
  013c4	e8 00 00 00 00	 call	 ?Create@CImageList@@QAEHHHIHH@Z ; CImageList::Create

; 399  : 	m_Image.Add( aBitMap ,0xff00ff);

  013c9	68 ff 00 ff 00	 push	 16711935		; 00ff00ffH
  013ce	8b 4d 14	 mov	 ecx, DWORD PTR _aBitMap$[ebp]
  013d1	51		 push	 ecx
  013d2	8d 4d c4	 lea	 ecx, DWORD PTR _m_Image$[ebp]
  013d5	e8 00 00 00 00	 call	 ?Add@CImageList@@QAEHPAVCBitmap@@K@Z ; CImageList::Add

; 400  : 	m_Image.Draw( CDC::FromHandle(aHDC),0,CPoint(nX,nY),ILD_NORMAL);

  013da	8b 55 d0	 mov	 edx, DWORD PTR _nY$[ebp]
  013dd	52		 push	 edx
  013de	8b 45 d4	 mov	 eax, DWORD PTR _nX$[ebp]
  013e1	50		 push	 eax
  013e2	8d 4d 98	 lea	 ecx, DWORD PTR $T188972[ebp]
  013e5	e8 00 00 00 00	 call	 ??0CPoint@@QAE@HH@Z	; CPoint::CPoint
  013ea	8b 08		 mov	 ecx, DWORD PTR [eax]
  013ec	8b 50 04	 mov	 edx, DWORD PTR [eax+4]
  013ef	89 4d a0	 mov	 DWORD PTR $T188971[ebp], ecx
  013f2	89 55 a4	 mov	 DWORD PTR $T188971[ebp+4], edx
  013f5	6a 00		 push	 0
  013f7	8b 45 a4	 mov	 eax, DWORD PTR $T188971[ebp+4]
  013fa	50		 push	 eax
  013fb	8b 4d a0	 mov	 ecx, DWORD PTR $T188971[ebp]
  013fe	51		 push	 ecx
  013ff	6a 00		 push	 0
  01401	8b 55 08	 mov	 edx, DWORD PTR _aHDC$[ebp]
  01404	8b 02		 mov	 eax, DWORD PTR [edx]
  01406	50		 push	 eax
  01407	e8 00 00 00 00	 call	 ?FromHandle@CDC@@SGPAV1@PAUHDC__@@@Z ; CDC::FromHandle
  0140c	50		 push	 eax
  0140d	8d 4d c4	 lea	 ecx, DWORD PTR _m_Image$[ebp]
  01410	e8 00 00 00 00	 call	 ?Draw@CImageList@@QAEHPAVCDC@@HUtagPOINT@@I@Z ; CImageList::Draw

; 401  : 	m_Image.DeleteImageList();

  01415	8d 4d c4	 lea	 ecx, DWORD PTR _m_Image$[ebp]
  01418	e8 00 00 00 00	 call	 ?DeleteImageList@CImageList@@QAEHXZ ; CImageList::DeleteImageList

; 402  : 
; 403  : 
; 404  : 
; 405  : 	//CRect lrcFrame(nX,nY,nX+lsize.cx, nY+lsize.cy);
; 406  : 	//
; 407  : 	//HBRUSH hHandle = 0;
; 408  : 	//hHandle = CreateSolidBrush(gWndColor.getColor(COLOL_CTROL)->structColBase->colFrame1);
; 409  : 	////::InflateRect(&lrcFrame,1,1);
; 410  : 	//FrameRect(aHDC, &lrcFrame,(HBRUSH)hHandle );
; 411  : 	//::InflateRect(&lrcFrame,-1,-1);
; 412  : 	//FrameRect(aHDC, &lrcFrame,(HBRUSH)hHandle );
; 413  : 	//DeleteObject((HGDIOBJ)hHandle);
; 414  : 
; 415  : 	CRect rect( nX, nY, nX+lsize.cx, nY+ lsize.cy );

  0141d	8b 4d d0	 mov	 ecx, DWORD PTR _nY$[ebp]
  01420	03 4d e8	 add	 ecx, DWORD PTR _lsize$[ebp+4]
  01423	51		 push	 ecx
  01424	8b 55 d4	 mov	 edx, DWORD PTR _nX$[ebp]
  01427	03 55 e4	 add	 edx, DWORD PTR _lsize$[ebp]
  0142a	52		 push	 edx
  0142b	8b 45 d0	 mov	 eax, DWORD PTR _nY$[ebp]
  0142e	50		 push	 eax
  0142f	8b 4d d4	 mov	 ecx, DWORD PTR _nX$[ebp]
  01432	51		 push	 ecx
  01433	8d 4d ac	 lea	 ecx, DWORD PTR _rect$[ebp]
  01436	e8 00 00 00 00	 call	 ??0CRect@@QAE@HHHH@Z	; CRect::CRect

; 416  : 	DrawBmpShade( CDC::FromHandle(aHDC), rect );

  0143b	8d 55 ac	 lea	 edx, DWORD PTR _rect$[ebp]
  0143e	52		 push	 edx
  0143f	8b 45 08	 mov	 eax, DWORD PTR _aHDC$[ebp]
  01442	8b 08		 mov	 ecx, DWORD PTR [eax]
  01444	51		 push	 ecx
  01445	e8 00 00 00 00	 call	 ?FromHandle@CDC@@SGPAV1@PAUHDC__@@@Z ; CDC::FromHandle
  0144a	50		 push	 eax
  0144b	8b 4d f0	 mov	 ecx, DWORD PTR _this$[ebp]
  0144e	e8 00 00 00 00	 call	 ?DrawBmpShade@CButtonDraw@@IAEXPAVCDC@@AAVCRect@@@Z ; CButtonDraw::DrawBmpShade

; 417  : }

  01453	c7 45 fc ff ff
	ff ff		 mov	 DWORD PTR __$EHRec$[ebp+8], -1
  0145a	8d 4d c4	 lea	 ecx, DWORD PTR _m_Image$[ebp]
  0145d	e8 00 00 00 00	 call	 ??1CImageList@@UAE@XZ	; CImageList::~CImageList
$L187957:
  01462	52		 push	 edx
  01463	8b cd		 mov	 ecx, ebp
  01465	50		 push	 eax
  01466	8d 15 00 00 00
	00		 lea	 edx, DWORD PTR $L188981
  0146c	e8 00 00 00 00	 call	 @_RTC_CheckStackVars@8
  01471	58		 pop	 eax
  01472	5a		 pop	 edx
  01473	8b 4d f4	 mov	 ecx, DWORD PTR __$EHRec$[ebp]
  01476	64 89 0d 00 00
	00 00		 mov	 DWORD PTR fs:__except_list, ecx
  0147d	5f		 pop	 edi
  0147e	83 c4 70	 add	 esp, 112		; 00000070H
  01481	3b ec		 cmp	 ebp, esp
  01483	e8 00 00 00 00	 call	 __RTC_CheckEsp
  01488	8b e5		 mov	 esp, ebp
  0148a	5d		 pop	 ebp
  0148b	c2 10 00	 ret	 16			; 00000010H
$L188981:
  0148e	03 00 00 00	 DD	 3
  01492	00 00 00 00	 DD	 $L188980
$L188980:
  01496	e4 ff ff ff	 DD	 -28			; ffffffe4H
  0149a	08 00 00 00	 DD	 8
  0149e	00 00 00 00	 DD	 $L188976
  014a2	c4 ff ff ff	 DD	 -60			; ffffffc4H
  014a6	08 00 00 00	 DD	 8
  014aa	00 00 00 00	 DD	 $L188977
  014ae	ac ff ff ff	 DD	 -84			; ffffffacH
  014b2	10 00 00 00	 DD	 16			; 00000010H
  014b6	00 00 00 00	 DD	 $L188978
$L188978:
  014ba	72		 DB	 114			; 00000072H
  014bb	65		 DB	 101			; 00000065H
  014bc	63		 DB	 99			; 00000063H
  014bd	74		 DB	 116			; 00000074H
  014be	00		 DB	 0
$L188977:
  014bf	6d		 DB	 109			; 0000006dH
  014c0	5f		 DB	 95			; 0000005fH
  014c1	49		 DB	 73			; 00000049H
  014c2	6d		 DB	 109			; 0000006dH
  014c3	61		 DB	 97			; 00000061H
  014c4	67		 DB	 103			; 00000067H
  014c5	65		 DB	 101			; 00000065H
  014c6	00		 DB	 0
$L188976:
  014c7	6c		 DB	 108			; 0000006cH
  014c8	73		 DB	 115			; 00000073H
  014c9	69		 DB	 105			; 00000069H
  014ca	7a		 DB	 122			; 0000007aH
  014cb	65		 DB	 101			; 00000065H
  014cc	00		 DB	 0
_TEXT	ENDS
text$x	SEGMENT
$L188973:
  0013d	8d 4d c4	 lea	 ecx, DWORD PTR _m_Image$[ebp]
  00140	e9 00 00 00 00	 jmp	 ??1CImageList@@UAE@XZ	; CImageList::~CImageList
__ehhandler$?DrawSkinNormal@CButtonDraw@@IAEXAAPAUHDC__@@AAUtagRECT@@AAV?$CStringT@DV?$StrTraitMFC_DLL@DV?$ChTraitsCRT@D@ATL@@@@@ATL@@PAVCBitmap@@@Z:
  00145	b8 00 00 00 00	 mov	 eax, OFFSET FLAT:$T188975
  0014a	e9 00 00 00 00	 jmp	 ___CxxFrameHandler
text$x	ENDS
?DrawSkinNormal@CButtonDraw@@IAEXAAPAUHDC__@@AAUtagRECT@@AAV?$CStringT@DV?$StrTraitMFC_DLL@DV?$ChTraitsCRT@D@ATL@@@@@ATL@@PAVCBitmap@@@Z ENDP ; CButtonDraw::DrawSkinNormal
; Function compile flags: /Odt /RTCsu
_TEXT	SEGMENT
_this$ = -4						; size = 4
_aHDC$ = 8						; size = 4
_aRect$ = 12						; size = 4
_astr$ = 16						; size = 4
_acolBegain$ = 20					; size = 4
_acolEnd$ = 24						; size = 4
?DrawColorEnter@CButtonDraw@@IAEXAAPAUHDC__@@AAUtagRECT@@AAV?$CStringT@DV?$StrTraitMFC_DLL@DV?$ChTraitsCRT@D@ATL@@@@@ATL@@AAK3@Z PROC NEAR ; CButtonDraw::DrawColorEnter
; _this$ = ecx

; 419  : {

  014d0	55		 push	 ebp
  014d1	8b ec		 mov	 ebp, esp
  014d3	51		 push	 ecx
  014d4	c7 45 fc cc cc
	cc cc		 mov	 DWORD PTR [ebp-4], -858993460 ; ccccccccH
  014db	89 4d fc	 mov	 DWORD PTR _this$[ebp], ecx

; 420  : 	//HBRUSH hHandle = 0;
; 421  : 	//hHandle = CreateSolidBrush(acolBegain);
; 422  : 
; 423  : 	//RECT lrect = CRect(aRect.left+LEFT_X_COL_SPACE, aRect.top+LEFT_Y_COL_SPACE, aRect.left+LEFT_X_COL_SPACE+COL_HIGHT,aRect.top+LEFT_Y_COL_SPACE+COL_HIGHT);
; 424  : 
; 425  : 	//FrameRect(aHDC,&lrect,(HBRUSH)hHandle );
; 426  : 	//DeleteObject((HGDIOBJ)hHandle);
; 427  : 
; 428  : 	////InflateRect(&lrect,1,1);
; 429  : 	//hHandle = CreateSolidBrush(gWndColor.getColor(COLOL_CTROL)->structColBase->colFrame2 );
; 430  : 	//FrameRect(aHDC, &lrect,(HBRUSH)hHandle );
; 431  : 	//InflateRect(&lrect,-1,-1);
; 432  : 	//FrameRect(aHDC, &lrect,(HBRUSH)hHandle );
; 433  : 	//DeleteObject((HGDIOBJ)hHandle);
; 434  : }

  014de	8b e5		 mov	 esp, ebp
  014e0	5d		 pop	 ebp
  014e1	c2 14 00	 ret	 20			; 00000014H
?DrawColorEnter@CButtonDraw@@IAEXAAPAUHDC__@@AAUtagRECT@@AAV?$CStringT@DV?$StrTraitMFC_DLL@DV?$ChTraitsCRT@D@ATL@@@@@ATL@@AAK3@Z ENDP ; CButtonDraw::DrawColorEnter
; Function compile flags: /Odt /RTCsu
_this$ = -4						; size = 4
_aHDC$ = 8						; size = 4
_aRect$ = 12						; size = 4
_astr$ = 16						; size = 4
_acolBegain$ = 20					; size = 4
_acolEnd$ = 24						; size = 4
?DrawColorNormal@CButtonDraw@@IAEXAAPAUHDC__@@AAUtagRECT@@AAV?$CStringT@DV?$StrTraitMFC_DLL@DV?$ChTraitsCRT@D@ATL@@@@@ATL@@AAK3@Z PROC NEAR ; CButtonDraw::DrawColorNormal
; _this$ = ecx

; 436  : {

  014f0	55		 push	 ebp
  014f1	8b ec		 mov	 ebp, esp
  014f3	51		 push	 ecx
  014f4	c7 45 fc cc cc
	cc cc		 mov	 DWORD PTR [ebp-4], -858993460 ; ccccccccH
  014fb	89 4d fc	 mov	 DWORD PTR _this$[ebp], ecx

; 437  : 	//HBRUSH hHandle = 0;
; 438  : 	//hHandle = CreateSolidBrush(acolBegain);
; 439  : 
; 440  : 	//RECT lrect = CRect(aRect.left+LEFT_X_COL_SPACE, aRect.top+LEFT_Y_COL_SPACE, aRect.left+LEFT_X_COL_SPACE+COL_HIGHT,aRect.top+LEFT_Y_COL_SPACE+COL_HIGHT);
; 441  : 	//gBitMapOperate.FillRectangle(aHDC, lrect,acolBegain,acolEnd, gBitMapOperate.edoVertical,true,COL_HIGHT );
; 442  : 
; 443  : 	//FrameRect(aHDC,&lrect,(HBRUSH)hHandle );
; 444  : 	//DeleteObject((HGDIOBJ)hHandle);
; 445  : 
; 446  : 	////InflateRect(&lrect,1,1);
; 447  : 	//hHandle = CreateSolidBrush(gWndColor.getColor(COLOL_CTROL)->structColBase->colFrame1 );
; 448  : 	//FrameRect(aHDC, &lrect,(HBRUSH)hHandle );
; 449  : 	//InflateRect(&lrect,-1,-1);
; 450  : 	//FrameRect(aHDC, &lrect,(HBRUSH)hHandle );
; 451  : 	//DeleteObject((HGDIOBJ)hHandle);
; 452  : }

  014fe	8b e5		 mov	 esp, ebp
  01500	5d		 pop	 ebp
  01501	c2 14 00	 ret	 20			; 00000014H
?DrawColorNormal@CButtonDraw@@IAEXAAPAUHDC__@@AAUtagRECT@@AAV?$CStringT@DV?$StrTraitMFC_DLL@DV?$ChTraitsCRT@D@ATL@@@@@ATL@@AAK3@Z ENDP ; CButtonDraw::DrawColorNormal
; Function compile flags: /Odt /RTCsu
_this$ = -4						; size = 4
_aHDC$ = 8						; size = 4
_aRect$ = 12						; size = 4
_astr$ = 16						; size = 4
_acolBegain$ = 20					; size = 4
_acolEnd$ = 24						; size = 4
?DrawColorNoTextEnter@CButtonDraw@@IAEXAAPAUHDC__@@AAUtagRECT@@AAV?$CStringT@DV?$StrTraitMFC_DLL@DV?$ChTraitsCRT@D@ATL@@@@@ATL@@AAK3@Z PROC NEAR ; CButtonDraw::DrawColorNoTextEnter
; _this$ = ecx

; 454  : {

  01510	55		 push	 ebp
  01511	8b ec		 mov	 ebp, esp
  01513	51		 push	 ecx
  01514	c7 45 fc cc cc
	cc cc		 mov	 DWORD PTR [ebp-4], -858993460 ; ccccccccH
  0151b	89 4d fc	 mov	 DWORD PTR _this$[ebp], ecx

; 455  : 	//HBRUSH hHandle = 0;
; 456  : 	//hHandle = CreateSolidBrush(acolBegain);
; 457  : 
; 458  : 	//RECT lrect = CRect(aRect.left+LEFT_X_COL_NOTEXT_SPACE, aRect.top+LEFT_Y_COL_NOTEXT_SPACE, aRect.left+LEFT_X_COL_NOTEXT_SPACE+COL_HIGHT,aRect.top+LEFT_Y_COL_NOTEXT_SPACE+COL_HIGHT);
; 459  : 
; 460  : 	//FrameRect(aHDC,&lrect,(HBRUSH)hHandle );
; 461  : 	//DeleteObject((HGDIOBJ)hHandle);
; 462  : 
; 463  : 	////InflateRect(&lrect,1,1);
; 464  : 	//hHandle = CreateSolidBrush(gWndColor.getColor(COLOL_CTROL)->structColBase->colFrame2 );
; 465  : 	//FrameRect(aHDC, &lrect,(HBRUSH)hHandle );
; 466  : 	//InflateRect(&lrect,-1,-1);
; 467  : 	//FrameRect(aHDC, &lrect,(HBRUSH)hHandle );
; 468  : 	//DeleteObject((HGDIOBJ)hHandle);
; 469  : }

  0151e	8b e5		 mov	 esp, ebp
  01520	5d		 pop	 ebp
  01521	c2 14 00	 ret	 20			; 00000014H
?DrawColorNoTextEnter@CButtonDraw@@IAEXAAPAUHDC__@@AAUtagRECT@@AAV?$CStringT@DV?$StrTraitMFC_DLL@DV?$ChTraitsCRT@D@ATL@@@@@ATL@@AAK3@Z ENDP ; CButtonDraw::DrawColorNoTextEnter
; Function compile flags: /Odt /RTCsu
_this$ = -4						; size = 4
_aHDC$ = 8						; size = 4
_aRect$ = 12						; size = 4
_astr$ = 16						; size = 4
_acolBegain$ = 20					; size = 4
_acolEnd$ = 24						; size = 4
?DrawColorNoTextNormal@CButtonDraw@@IAEXAAPAUHDC__@@AAUtagRECT@@AAV?$CStringT@DV?$StrTraitMFC_DLL@DV?$ChTraitsCRT@D@ATL@@@@@ATL@@AAK3@Z PROC NEAR ; CButtonDraw::DrawColorNoTextNormal
; _this$ = ecx

; 471  : {

  01530	55		 push	 ebp
  01531	8b ec		 mov	 ebp, esp
  01533	51		 push	 ecx
  01534	c7 45 fc cc cc
	cc cc		 mov	 DWORD PTR [ebp-4], -858993460 ; ccccccccH
  0153b	89 4d fc	 mov	 DWORD PTR _this$[ebp], ecx

; 472  : 	//HBRUSH hHandle = 0;
; 473  : 	//hHandle = CreateSolidBrush(acolBegain);
; 474  : 
; 475  : 	//RECT lrect = CRect(aRect.left+LEFT_X_COL_NOTEXT_SPACE, aRect.top+LEFT_Y_COL_NOTEXT_SPACE, aRect.left+LEFT_X_COL_NOTEXT_SPACE+COL_HIGHT,aRect.top+LEFT_Y_COL_NOTEXT_SPACE+COL_HIGHT);
; 476  : 	//gBitMapOperate.FillRectangle(aHDC, lrect,acolBegain,acolEnd, gBitMapOperate.edoVertical,true,COL_HIGHT );
; 477  : 
; 478  : 	//FrameRect(aHDC,&lrect,(HBRUSH)hHandle );
; 479  : 	//DeleteObject((HGDIOBJ)hHandle);
; 480  : 
; 481  : 	////InflateRect(&lrect,1,1);
; 482  : 	//hHandle = CreateSolidBrush(gWndColor.getColor(COLOL_CTROL)->structColBase->colFrame1 );
; 483  : 	//FrameRect(aHDC, &lrect,(HBRUSH)hHandle );
; 484  : 	//InflateRect(&lrect,-1,-1);
; 485  : 	//FrameRect(aHDC, &lrect,(HBRUSH)hHandle );
; 486  : 	//DeleteObject((HGDIOBJ)hHandle);
; 487  : }

  0153e	8b e5		 mov	 esp, ebp
  01540	5d		 pop	 ebp
  01541	c2 14 00	 ret	 20			; 00000014H
?DrawColorNoTextNormal@CButtonDraw@@IAEXAAPAUHDC__@@AAUtagRECT@@AAV?$CStringT@DV?$StrTraitMFC_DLL@DV?$ChTraitsCRT@D@ATL@@@@@ATL@@AAK3@Z ENDP ; CButtonDraw::DrawColorNoTextNormal
; Function compile flags: /Odt /RTCsu
_hHandle$ = -8						; size = 4
_this$ = -4						; size = 4
_aHDC$ = 8						; size = 4
_aRect$ = 12						; size = 4
_astr$ = 16						; size = 4
?DrawDefaultButtonNormal@CButtonDraw@@IAEXAAPAUHDC__@@AAUtagRECT@@AAV?$CStringT@DV?$StrTraitMFC_DLL@DV?$ChTraitsCRT@D@ATL@@@@@ATL@@@Z PROC NEAR ; CButtonDraw::DrawDefaultButtonNormal
; _this$ = ecx

; 489  : {

  01550	55		 push	 ebp
  01551	8b ec		 mov	 ebp, esp
  01553	83 ec 08	 sub	 esp, 8
  01556	56		 push	 esi
  01557	c7 45 f8 cc cc
	cc cc		 mov	 DWORD PTR [ebp-8], -858993460 ; ccccccccH
  0155e	c7 45 fc cc cc
	cc cc		 mov	 DWORD PTR [ebp-4], -858993460 ; ccccccccH
  01565	89 4d fc	 mov	 DWORD PTR _this$[ebp], ecx

; 490  : 	HBRUSH hHandle = 0;

  01568	c7 45 f8 00 00
	00 00		 mov	 DWORD PTR _hHandle$[ebp], 0

; 491  : 	hHandle = CreateSolidBrush( gWndColor.getColor(COLOL_CTROL)->structColBase->colFrame1 );

  0156f	6a 05		 push	 5
  01571	b9 00 00 00 00	 mov	 ecx, OFFSET FLAT:?gWndColor@@3VCWndColorMgr@@A ; gWndColor
  01576	e8 00 00 00 00	 call	 ?getColor@CWndColorMgr@@QAEPAUCtrColBase@@I@Z ; CWndColorMgr::getColor
  0157b	8b 00		 mov	 eax, DWORD PTR [eax]
  0157d	8b f4		 mov	 esi, esp
  0157f	8b 08		 mov	 ecx, DWORD PTR [eax]
  01581	51		 push	 ecx
  01582	ff 15 00 00 00
	00		 call	 DWORD PTR __imp__CreateSolidBrush@4
  01588	3b f4		 cmp	 esi, esp
  0158a	e8 00 00 00 00	 call	 __RTC_CheckEsp
  0158f	89 45 f8	 mov	 DWORD PTR _hHandle$[ebp], eax

; 492  : 	FrameRect(aHDC,&aRect,(HBRUSH)hHandle );

  01592	8b f4		 mov	 esi, esp
  01594	8b 55 f8	 mov	 edx, DWORD PTR _hHandle$[ebp]
  01597	52		 push	 edx
  01598	8b 45 0c	 mov	 eax, DWORD PTR _aRect$[ebp]
  0159b	50		 push	 eax
  0159c	8b 4d 08	 mov	 ecx, DWORD PTR _aHDC$[ebp]
  0159f	8b 11		 mov	 edx, DWORD PTR [ecx]
  015a1	52		 push	 edx
  015a2	ff 15 00 00 00
	00		 call	 DWORD PTR __imp__FrameRect@12
  015a8	3b f4		 cmp	 esi, esp
  015aa	e8 00 00 00 00	 call	 __RTC_CheckEsp

; 493  : 	DeleteObject((HGDIOBJ)hHandle);

  015af	8b f4		 mov	 esi, esp
  015b1	8b 45 f8	 mov	 eax, DWORD PTR _hHandle$[ebp]
  015b4	50		 push	 eax
  015b5	ff 15 00 00 00
	00		 call	 DWORD PTR __imp__DeleteObject@4
  015bb	3b f4		 cmp	 esi, esp
  015bd	e8 00 00 00 00	 call	 __RTC_CheckEsp

; 494  : }

  015c2	5e		 pop	 esi
  015c3	83 c4 08	 add	 esp, 8
  015c6	3b ec		 cmp	 ebp, esp
  015c8	e8 00 00 00 00	 call	 __RTC_CheckEsp
  015cd	8b e5		 mov	 esp, ebp
  015cf	5d		 pop	 ebp
  015d0	c2 0c 00	 ret	 12			; 0000000cH
?DrawDefaultButtonNormal@CButtonDraw@@IAEXAAPAUHDC__@@AAUtagRECT@@AAV?$CStringT@DV?$StrTraitMFC_DLL@DV?$ChTraitsCRT@D@ATL@@@@@ATL@@@Z ENDP ; CButtonDraw::DrawDefaultButtonNormal
; Function compile flags: /Odt /RTCsu
_hHandle$ = -8						; size = 4
_this$ = -4						; size = 4
_aHDC$ = 8						; size = 4
_aRect$ = 12						; size = 4
_astr$ = 16						; size = 4
?DrawDefaultButtonEnter@CButtonDraw@@IAEXAAPAUHDC__@@AAUtagRECT@@AAV?$CStringT@DV?$StrTraitMFC_DLL@DV?$ChTraitsCRT@D@ATL@@@@@ATL@@@Z PROC NEAR ; CButtonDraw::DrawDefaultButtonEnter
; _this$ = ecx

; 496  : {

  015e0	55		 push	 ebp
  015e1	8b ec		 mov	 ebp, esp
  015e3	83 ec 08	 sub	 esp, 8
  015e6	56		 push	 esi
  015e7	c7 45 f8 cc cc
	cc cc		 mov	 DWORD PTR [ebp-8], -858993460 ; ccccccccH
  015ee	c7 45 fc cc cc
	cc cc		 mov	 DWORD PTR [ebp-4], -858993460 ; ccccccccH
  015f5	89 4d fc	 mov	 DWORD PTR _this$[ebp], ecx

; 497  : 	HBRUSH hHandle = 0;

  015f8	c7 45 f8 00 00
	00 00		 mov	 DWORD PTR _hHandle$[ebp], 0

; 498  : 	hHandle = CreateSolidBrush( gWndColor.getColor(COLOL_CTROL)->structColBase->colFrame2 );

  015ff	6a 05		 push	 5
  01601	b9 00 00 00 00	 mov	 ecx, OFFSET FLAT:?gWndColor@@3VCWndColorMgr@@A ; gWndColor
  01606	e8 00 00 00 00	 call	 ?getColor@CWndColorMgr@@QAEPAUCtrColBase@@I@Z ; CWndColorMgr::getColor
  0160b	8b 00		 mov	 eax, DWORD PTR [eax]
  0160d	8b f4		 mov	 esi, esp
  0160f	8b 48 04	 mov	 ecx, DWORD PTR [eax+4]
  01612	51		 push	 ecx
  01613	ff 15 00 00 00
	00		 call	 DWORD PTR __imp__CreateSolidBrush@4
  01619	3b f4		 cmp	 esi, esp
  0161b	e8 00 00 00 00	 call	 __RTC_CheckEsp
  01620	89 45 f8	 mov	 DWORD PTR _hHandle$[ebp], eax

; 499  : 	FrameRect(aHDC,&aRect,(HBRUSH)hHandle );

  01623	8b f4		 mov	 esi, esp
  01625	8b 55 f8	 mov	 edx, DWORD PTR _hHandle$[ebp]
  01628	52		 push	 edx
  01629	8b 45 0c	 mov	 eax, DWORD PTR _aRect$[ebp]
  0162c	50		 push	 eax
  0162d	8b 4d 08	 mov	 ecx, DWORD PTR _aHDC$[ebp]
  01630	8b 11		 mov	 edx, DWORD PTR [ecx]
  01632	52		 push	 edx
  01633	ff 15 00 00 00
	00		 call	 DWORD PTR __imp__FrameRect@12
  01639	3b f4		 cmp	 esi, esp
  0163b	e8 00 00 00 00	 call	 __RTC_CheckEsp

; 500  : 	DeleteObject((HGDIOBJ)hHandle);

  01640	8b f4		 mov	 esi, esp
  01642	8b 45 f8	 mov	 eax, DWORD PTR _hHandle$[ebp]
  01645	50		 push	 eax
  01646	ff 15 00 00 00
	00		 call	 DWORD PTR __imp__DeleteObject@4
  0164c	3b f4		 cmp	 esi, esp
  0164e	e8 00 00 00 00	 call	 __RTC_CheckEsp

; 501  : }

  01653	5e		 pop	 esi
  01654	83 c4 08	 add	 esp, 8
  01657	3b ec		 cmp	 ebp, esp
  01659	e8 00 00 00 00	 call	 __RTC_CheckEsp
  0165e	8b e5		 mov	 esp, ebp
  01660	5d		 pop	 ebp
  01661	c2 0c 00	 ret	 12			; 0000000cH
?DrawDefaultButtonEnter@CButtonDraw@@IAEXAAPAUHDC__@@AAUtagRECT@@AAV?$CStringT@DV?$StrTraitMFC_DLL@DV?$ChTraitsCRT@D@ATL@@@@@ATL@@@Z ENDP ; CButtonDraw::DrawDefaultButtonEnter
_TEXT	ENDS
EXTRN	?DrawLine@CBitMapOperate@@UAEXPAUHDC__@@KMHHHHH@Z:NEAR ; CBitMapOperate::DrawLine
EXTRN	?gBitMapOperate@@3VCBitMapOperate@@A:BYTE	; gBitMapOperate
EXTRN	__fltused:NEAR
; Function compile flags: /Odt /RTCsu
_TEXT	SEGMENT
_hHandle$ = -8						; size = 4
_this$ = -4						; size = 4
_aHDC$ = 8						; size = 4
_aRect$ = 12						; size = 4
?DrawExitButtonNormal@CButtonDraw@@IAEXAAPAUHDC__@@AAUtagRECT@@@Z PROC NEAR ; CButtonDraw::DrawExitButtonNormal
; _this$ = ecx

; 504  : {	

  01670	55		 push	 ebp
  01671	8b ec		 mov	 ebp, esp
  01673	83 ec 08	 sub	 esp, 8
  01676	56		 push	 esi
  01677	c7 45 f8 cc cc
	cc cc		 mov	 DWORD PTR [ebp-8], -858993460 ; ccccccccH
  0167e	c7 45 fc cc cc
	cc cc		 mov	 DWORD PTR [ebp-4], -858993460 ; ccccccccH
  01685	89 4d fc	 mov	 DWORD PTR _this$[ebp], ecx

; 505  : 	HBRUSH hHandle = 0;

  01688	c7 45 f8 00 00
	00 00		 mov	 DWORD PTR _hHandle$[ebp], 0

; 506  : 	hHandle = CreateSolidBrush( gWndColor.getColor(TABLE_CTROL)->structColBase->colFrame1 );

  0168f	6a 02		 push	 2
  01691	b9 00 00 00 00	 mov	 ecx, OFFSET FLAT:?gWndColor@@3VCWndColorMgr@@A ; gWndColor
  01696	e8 00 00 00 00	 call	 ?getColor@CWndColorMgr@@QAEPAUCtrColBase@@I@Z ; CWndColorMgr::getColor
  0169b	8b 00		 mov	 eax, DWORD PTR [eax]
  0169d	8b f4		 mov	 esi, esp
  0169f	8b 08		 mov	 ecx, DWORD PTR [eax]
  016a1	51		 push	 ecx
  016a2	ff 15 00 00 00
	00		 call	 DWORD PTR __imp__CreateSolidBrush@4
  016a8	3b f4		 cmp	 esi, esp
  016aa	e8 00 00 00 00	 call	 __RTC_CheckEsp
  016af	89 45 f8	 mov	 DWORD PTR _hHandle$[ebp], eax

; 507  : 	FrameRect(aHDC,&aRect,(HBRUSH)hHandle );

  016b2	8b f4		 mov	 esi, esp
  016b4	8b 55 f8	 mov	 edx, DWORD PTR _hHandle$[ebp]
  016b7	52		 push	 edx
  016b8	8b 45 0c	 mov	 eax, DWORD PTR _aRect$[ebp]
  016bb	50		 push	 eax
  016bc	8b 4d 08	 mov	 ecx, DWORD PTR _aHDC$[ebp]
  016bf	8b 11		 mov	 edx, DWORD PTR [ecx]
  016c1	52		 push	 edx
  016c2	ff 15 00 00 00
	00		 call	 DWORD PTR __imp__FrameRect@12
  016c8	3b f4		 cmp	 esi, esp
  016ca	e8 00 00 00 00	 call	 __RTC_CheckEsp

; 508  : 	gBitMapOperate.DrawLine( aHDC, RGB(152, 152, 152), 2, aRect.left+8,aRect.top+8,aRect.left+15,aRect.top+15, true);

  016cf	6a 01		 push	 1
  016d1	8b 45 0c	 mov	 eax, DWORD PTR _aRect$[ebp]
  016d4	8b 48 04	 mov	 ecx, DWORD PTR [eax+4]
  016d7	83 c1 0f	 add	 ecx, 15			; 0000000fH
  016da	51		 push	 ecx
  016db	8b 55 0c	 mov	 edx, DWORD PTR _aRect$[ebp]
  016de	8b 02		 mov	 eax, DWORD PTR [edx]
  016e0	83 c0 0f	 add	 eax, 15			; 0000000fH
  016e3	50		 push	 eax
  016e4	8b 4d 0c	 mov	 ecx, DWORD PTR _aRect$[ebp]
  016e7	8b 51 04	 mov	 edx, DWORD PTR [ecx+4]
  016ea	83 c2 08	 add	 edx, 8
  016ed	52		 push	 edx
  016ee	8b 45 0c	 mov	 eax, DWORD PTR _aRect$[ebp]
  016f1	8b 08		 mov	 ecx, DWORD PTR [eax]
  016f3	83 c1 08	 add	 ecx, 8
  016f6	51		 push	 ecx
  016f7	68 00 00 00 40	 push	 1073741824		; 40000000H
  016fc	68 98 98 98 00	 push	 10000536		; 00989898H
  01701	8b 55 08	 mov	 edx, DWORD PTR _aHDC$[ebp]
  01704	8b 02		 mov	 eax, DWORD PTR [edx]
  01706	50		 push	 eax
  01707	b9 00 00 00 00	 mov	 ecx, OFFSET FLAT:?gBitMapOperate@@3VCBitMapOperate@@A
  0170c	e8 00 00 00 00	 call	 ?DrawLine@CBitMapOperate@@UAEXPAUHDC__@@KMHHHHH@Z ; CBitMapOperate::DrawLine

; 509  : 	gBitMapOperate.DrawLine( aHDC, RGB(152, 152, 152), 2, aRect.left+8,aRect.top+15,aRect.left+15,aRect.top+8, true);

  01711	6a 01		 push	 1
  01713	8b 4d 0c	 mov	 ecx, DWORD PTR _aRect$[ebp]
  01716	8b 51 04	 mov	 edx, DWORD PTR [ecx+4]
  01719	83 c2 08	 add	 edx, 8
  0171c	52		 push	 edx
  0171d	8b 45 0c	 mov	 eax, DWORD PTR _aRect$[ebp]
  01720	8b 08		 mov	 ecx, DWORD PTR [eax]
  01722	83 c1 0f	 add	 ecx, 15			; 0000000fH
  01725	51		 push	 ecx
  01726	8b 55 0c	 mov	 edx, DWORD PTR _aRect$[ebp]
  01729	8b 42 04	 mov	 eax, DWORD PTR [edx+4]
  0172c	83 c0 0f	 add	 eax, 15			; 0000000fH
  0172f	50		 push	 eax
  01730	8b 4d 0c	 mov	 ecx, DWORD PTR _aRect$[ebp]
  01733	8b 11		 mov	 edx, DWORD PTR [ecx]
  01735	83 c2 08	 add	 edx, 8
  01738	52		 push	 edx
  01739	68 00 00 00 40	 push	 1073741824		; 40000000H
  0173e	68 98 98 98 00	 push	 10000536		; 00989898H
  01743	8b 45 08	 mov	 eax, DWORD PTR _aHDC$[ebp]
  01746	8b 08		 mov	 ecx, DWORD PTR [eax]
  01748	51		 push	 ecx
  01749	b9 00 00 00 00	 mov	 ecx, OFFSET FLAT:?gBitMapOperate@@3VCBitMapOperate@@A
  0174e	e8 00 00 00 00	 call	 ?DrawLine@CBitMapOperate@@UAEXPAUHDC__@@KMHHHHH@Z ; CBitMapOperate::DrawLine

; 510  : 	DeleteObject((HGDIOBJ)hHandle);

  01753	8b f4		 mov	 esi, esp
  01755	8b 55 f8	 mov	 edx, DWORD PTR _hHandle$[ebp]
  01758	52		 push	 edx
  01759	ff 15 00 00 00
	00		 call	 DWORD PTR __imp__DeleteObject@4
  0175f	3b f4		 cmp	 esi, esp
  01761	e8 00 00 00 00	 call	 __RTC_CheckEsp

; 511  : }

  01766	5e		 pop	 esi
  01767	83 c4 08	 add	 esp, 8
  0176a	3b ec		 cmp	 ebp, esp
  0176c	e8 00 00 00 00	 call	 __RTC_CheckEsp
  01771	8b e5		 mov	 esp, ebp
  01773	5d		 pop	 ebp
  01774	c2 08 00	 ret	 8
?DrawExitButtonNormal@CButtonDraw@@IAEXAAPAUHDC__@@AAUtagRECT@@@Z ENDP ; CButtonDraw::DrawExitButtonNormal
; Function compile flags: /Odt /RTCsu
_hHandle$ = -8						; size = 4
_this$ = -4						; size = 4
_aHDC$ = 8						; size = 4
_aRect$ = 12						; size = 4
?DrawExitButtonEnter@CButtonDraw@@IAEXAAPAUHDC__@@AAUtagRECT@@@Z PROC NEAR ; CButtonDraw::DrawExitButtonEnter
; _this$ = ecx

; 514  : {

  01780	55		 push	 ebp
  01781	8b ec		 mov	 ebp, esp
  01783	83 ec 08	 sub	 esp, 8
  01786	56		 push	 esi
  01787	c7 45 f8 cc cc
	cc cc		 mov	 DWORD PTR [ebp-8], -858993460 ; ccccccccH
  0178e	c7 45 fc cc cc
	cc cc		 mov	 DWORD PTR [ebp-4], -858993460 ; ccccccccH
  01795	89 4d fc	 mov	 DWORD PTR _this$[ebp], ecx

; 515  : 	HBRUSH hHandle = 0;

  01798	c7 45 f8 00 00
	00 00		 mov	 DWORD PTR _hHandle$[ebp], 0

; 516  : 	hHandle = CreateSolidBrush( gWndColor.getColor(TABLE_CTROL)->structColBase->colFrame1 );

  0179f	6a 02		 push	 2
  017a1	b9 00 00 00 00	 mov	 ecx, OFFSET FLAT:?gWndColor@@3VCWndColorMgr@@A ; gWndColor
  017a6	e8 00 00 00 00	 call	 ?getColor@CWndColorMgr@@QAEPAUCtrColBase@@I@Z ; CWndColorMgr::getColor
  017ab	8b 00		 mov	 eax, DWORD PTR [eax]
  017ad	8b f4		 mov	 esi, esp
  017af	8b 08		 mov	 ecx, DWORD PTR [eax]
  017b1	51		 push	 ecx
  017b2	ff 15 00 00 00
	00		 call	 DWORD PTR __imp__CreateSolidBrush@4
  017b8	3b f4		 cmp	 esi, esp
  017ba	e8 00 00 00 00	 call	 __RTC_CheckEsp
  017bf	89 45 f8	 mov	 DWORD PTR _hHandle$[ebp], eax

; 517  : 	FrameRect(aHDC,&aRect,(HBRUSH)hHandle );

  017c2	8b f4		 mov	 esi, esp
  017c4	8b 55 f8	 mov	 edx, DWORD PTR _hHandle$[ebp]
  017c7	52		 push	 edx
  017c8	8b 45 0c	 mov	 eax, DWORD PTR _aRect$[ebp]
  017cb	50		 push	 eax
  017cc	8b 4d 08	 mov	 ecx, DWORD PTR _aHDC$[ebp]
  017cf	8b 11		 mov	 edx, DWORD PTR [ecx]
  017d1	52		 push	 edx
  017d2	ff 15 00 00 00
	00		 call	 DWORD PTR __imp__FrameRect@12
  017d8	3b f4		 cmp	 esi, esp
  017da	e8 00 00 00 00	 call	 __RTC_CheckEsp

; 518  : 	gBitMapOperate.DrawLine( aHDC, RGB(125, 125, 125), 2, aRect.left+8,aRect.top+8,aRect.left+15,aRect.top+15, true);

  017df	6a 01		 push	 1
  017e1	8b 45 0c	 mov	 eax, DWORD PTR _aRect$[ebp]
  017e4	8b 48 04	 mov	 ecx, DWORD PTR [eax+4]
  017e7	83 c1 0f	 add	 ecx, 15			; 0000000fH
  017ea	51		 push	 ecx
  017eb	8b 55 0c	 mov	 edx, DWORD PTR _aRect$[ebp]
  017ee	8b 02		 mov	 eax, DWORD PTR [edx]
  017f0	83 c0 0f	 add	 eax, 15			; 0000000fH
  017f3	50		 push	 eax
  017f4	8b 4d 0c	 mov	 ecx, DWORD PTR _aRect$[ebp]
  017f7	8b 51 04	 mov	 edx, DWORD PTR [ecx+4]
  017fa	83 c2 08	 add	 edx, 8
  017fd	52		 push	 edx
  017fe	8b 45 0c	 mov	 eax, DWORD PTR _aRect$[ebp]
  01801	8b 08		 mov	 ecx, DWORD PTR [eax]
  01803	83 c1 08	 add	 ecx, 8
  01806	51		 push	 ecx
  01807	68 00 00 00 40	 push	 1073741824		; 40000000H
  0180c	68 7d 7d 7d 00	 push	 8224125			; 007d7d7dH
  01811	8b 55 08	 mov	 edx, DWORD PTR _aHDC$[ebp]
  01814	8b 02		 mov	 eax, DWORD PTR [edx]
  01816	50		 push	 eax
  01817	b9 00 00 00 00	 mov	 ecx, OFFSET FLAT:?gBitMapOperate@@3VCBitMapOperate@@A
  0181c	e8 00 00 00 00	 call	 ?DrawLine@CBitMapOperate@@UAEXPAUHDC__@@KMHHHHH@Z ; CBitMapOperate::DrawLine

; 519  : 	gBitMapOperate.DrawLine( aHDC, RGB(125, 125, 125), 2, aRect.left+8,aRect.top+15,aRect.left+15,aRect.top+8, true);

  01821	6a 01		 push	 1
  01823	8b 4d 0c	 mov	 ecx, DWORD PTR _aRect$[ebp]
  01826	8b 51 04	 mov	 edx, DWORD PTR [ecx+4]
  01829	83 c2 08	 add	 edx, 8
  0182c	52		 push	 edx
  0182d	8b 45 0c	 mov	 eax, DWORD PTR _aRect$[ebp]
  01830	8b 08		 mov	 ecx, DWORD PTR [eax]
  01832	83 c1 0f	 add	 ecx, 15			; 0000000fH
  01835	51		 push	 ecx
  01836	8b 55 0c	 mov	 edx, DWORD PTR _aRect$[ebp]
  01839	8b 42 04	 mov	 eax, DWORD PTR [edx+4]
  0183c	83 c0 0f	 add	 eax, 15			; 0000000fH
  0183f	50		 push	 eax
  01840	8b 4d 0c	 mov	 ecx, DWORD PTR _aRect$[ebp]
  01843	8b 11		 mov	 edx, DWORD PTR [ecx]
  01845	83 c2 08	 add	 edx, 8
  01848	52		 push	 edx
  01849	68 00 00 00 40	 push	 1073741824		; 40000000H
  0184e	68 7d 7d 7d 00	 push	 8224125			; 007d7d7dH
  01853	8b 45 08	 mov	 eax, DWORD PTR _aHDC$[ebp]
  01856	8b 08		 mov	 ecx, DWORD PTR [eax]
  01858	51		 push	 ecx
  01859	b9 00 00 00 00	 mov	 ecx, OFFSET FLAT:?gBitMapOperate@@3VCBitMapOperate@@A
  0185e	e8 00 00 00 00	 call	 ?DrawLine@CBitMapOperate@@UAEXPAUHDC__@@KMHHHHH@Z ; CBitMapOperate::DrawLine

; 520  : 	DeleteObject((HGDIOBJ)hHandle);

  01863	8b f4		 mov	 esi, esp
  01865	8b 55 f8	 mov	 edx, DWORD PTR _hHandle$[ebp]
  01868	52		 push	 edx
  01869	ff 15 00 00 00
	00		 call	 DWORD PTR __imp__DeleteObject@4
  0186f	3b f4		 cmp	 esi, esp
  01871	e8 00 00 00 00	 call	 __RTC_CheckEsp

; 521  : }

  01876	5e		 pop	 esi
  01877	83 c4 08	 add	 esp, 8
  0187a	3b ec		 cmp	 ebp, esp
  0187c	e8 00 00 00 00	 call	 __RTC_CheckEsp
  01881	8b e5		 mov	 esp, ebp
  01883	5d		 pop	 ebp
  01884	c2 08 00	 ret	 8
?DrawExitButtonEnter@CButtonDraw@@IAEXAAPAUHDC__@@AAUtagRECT@@@Z ENDP ; CButtonDraw::DrawExitButtonEnter
_TEXT	ENDS
EXTRN	?OnDestroy@CWnd@@IAEXXZ:NEAR			; CWnd::OnDestroy
; Function compile flags: /Odt /RTCsu
_TEXT	SEGMENT
_this$ = -4						; size = 4
?OnDestroy@CSkinButton@@AAEXXZ PROC NEAR		; CSkinButton::OnDestroy
; _this$ = ecx

; 524  : {

  01890	55		 push	 ebp
  01891	8b ec		 mov	 ebp, esp
  01893	51		 push	 ecx
  01894	c7 45 fc cc cc
	cc cc		 mov	 DWORD PTR [ebp-4], -858993460 ; ccccccccH
  0189b	89 4d fc	 mov	 DWORD PTR _this$[ebp], ecx

; 525  : 	CButton::OnDestroy();

  0189e	8b 4d fc	 mov	 ecx, DWORD PTR _this$[ebp]
  018a1	e8 00 00 00 00	 call	 ?OnDestroy@CWnd@@IAEXXZ	; CWnd::OnDestroy

; 526  : 
; 527  : 	//if(NULL != m_BitMap)
; 528  : 	//{
; 529  : 	//	m_BitMap->Detach();
; 530  : 	//	delete m_BitMap;
; 531  : 	//	m_BitMap = NULL;
; 532  : 	//}
; 533  : }

  018a6	83 c4 04	 add	 esp, 4
  018a9	3b ec		 cmp	 ebp, esp
  018ab	e8 00 00 00 00	 call	 __RTC_CheckEsp
  018b0	8b e5		 mov	 esp, ebp
  018b2	5d		 pop	 ebp
  018b3	c3		 ret	 0
?OnDestroy@CSkinButton@@AAEXXZ ENDP			; CSkinButton::OnDestroy
_TEXT	ENDS
PUBLIC	?SetToolTipText@CSkinButton@@QAEXV?$CStringT@DV?$StrTraitMFC_DLL@DV?$ChTraitsCRT@D@ATL@@@@@ATL@@@Z ; CSkinButton::SetToolTipText
EXTRN	?SetMaxTipWidth@CToolTipCtrl@@QAEHH@Z:NEAR	; CToolTipCtrl::SetMaxTipWidth
EXTRN	?Activate@CToolTipCtrl@@QAEXH@Z:NEAR		; CToolTipCtrl::Activate
EXTRN	?AddTool@CToolTipCtrl@@QAEHPAVCWnd@@PBDPBUtagRECT@@I@Z:NEAR ; CToolTipCtrl::AddTool
EXTRN	?UpdateTipText@CToolTipCtrl@@QAEXPBDPAVCWnd@@I@Z:NEAR ; CToolTipCtrl::UpdateTipText
EXTRN	__imp_??4?$CStringT@DV?$StrTraitMFC_DLL@DV?$ChTraitsCRT@D@ATL@@@@@ATL@@QAEAAV01@ABV01@@Z:NEAR
xdata$x	SEGMENT
$T188998 DD	0ffffffffH
	DD	FLAT:$L188994
$T188996 DD	019930520H
	DD	01H
	DD	FLAT:$T188998
	DD	2 DUP(00H)
	DD	2 DUP(00H)
; Function compile flags: /Odt /RTCsu
xdata$x	ENDS
_TEXT	SEGMENT
_this$ = -16						; size = 4
__$EHRec$ = -12						; size = 12
_s$ = 8							; size = 4
?SetToolTipText@CSkinButton@@QAEXV?$CStringT@DV?$StrTraitMFC_DLL@DV?$ChTraitsCRT@D@ATL@@@@@ATL@@@Z PROC NEAR ; CSkinButton::SetToolTipText
; _this$ = ecx

; 535  : {

  018c0	55		 push	 ebp
  018c1	8b ec		 mov	 ebp, esp
  018c3	6a ff		 push	 -1
  018c5	68 00 00 00 00	 push	 __ehhandler$?SetToolTipText@CSkinButton@@QAEXV?$CStringT@DV?$StrTraitMFC_DLL@DV?$ChTraitsCRT@D@ATL@@@@@ATL@@@Z
  018ca	64 a1 00 00 00
	00		 mov	 eax, DWORD PTR fs:__except_list
  018d0	50		 push	 eax
  018d1	64 89 25 00 00
	00 00		 mov	 DWORD PTR fs:__except_list, esp
  018d8	51		 push	 ecx
  018d9	56		 push	 esi
  018da	c7 45 f0 cc cc
	cc cc		 mov	 DWORD PTR [ebp-16], -858993460 ; ccccccccH
  018e1	89 4d f0	 mov	 DWORD PTR _this$[ebp], ecx
  018e4	c7 45 fc 00 00
	00 00		 mov	 DWORD PTR __$EHRec$[ebp+8], 0

; 536  : 	m_strToolTip = s;

  018eb	8b f4		 mov	 esi, esp
  018ed	8d 45 08	 lea	 eax, DWORD PTR _s$[ebp]
  018f0	50		 push	 eax
  018f1	8b 4d f0	 mov	 ecx, DWORD PTR _this$[ebp]
  018f4	81 c1 e0 00 00
	00		 add	 ecx, 224		; 000000e0H
  018fa	ff 15 00 00 00
	00		 call	 DWORD PTR __imp_??4?$CStringT@DV?$StrTraitMFC_DLL@DV?$ChTraitsCRT@D@ATL@@@@@ATL@@QAEAAV01@ABV01@@Z
  01900	3b f4		 cmp	 esi, esp
  01902	e8 00 00 00 00	 call	 __RTC_CheckEsp

; 537  : 	if(m_tooltip.m_hWnd==NULL)

  01907	8b 4d f0	 mov	 ecx, DWORD PTR _this$[ebp]
  0190a	83 b9 90 00 00
	00 00		 cmp	 DWORD PTR [ecx+144], 0
  01911	75 5f		 jne	 SHORT $L188066

; 538  : 	{
; 539  : 		if(m_tooltip.Create(this,TTS_ALWAYSTIP|WS_POPUP|WS_EX_TOOLWINDOW ))	//first assignment

  01913	8b f4		 mov	 esi, esp
  01915	68 81 00 00 80	 push	 -2147483519		; 80000081H
  0191a	8b 55 f0	 mov	 edx, DWORD PTR _this$[ebp]
  0191d	52		 push	 edx
  0191e	8b 4d f0	 mov	 ecx, DWORD PTR _this$[ebp]
  01921	83 c1 70	 add	 ecx, 112		; 00000070H
  01924	8b 45 f0	 mov	 eax, DWORD PTR _this$[ebp]
  01927	8b 50 70	 mov	 edx, DWORD PTR [eax+112]
  0192a	ff 92 38 01 00
	00		 call	 DWORD PTR [edx+312]
  01930	3b f4		 cmp	 esi, esp
  01932	e8 00 00 00 00	 call	 __RTC_CheckEsp
  01937	85 c0		 test	 eax, eax
  01939	74 37		 je	 SHORT $L188066

; 540  : 		{
; 541  : 			if(m_tooltip.AddTool(this, (LPCTSTR)s))

  0193b	6a 00		 push	 0
  0193d	6a 00		 push	 0
  0193f	8b f4		 mov	 esi, esp
  01941	8d 4d 08	 lea	 ecx, DWORD PTR _s$[ebp]
  01944	ff 15 00 00 00
	00		 call	 DWORD PTR __imp_??B?$CSimpleStringT@D$00@ATL@@QBEPBDXZ
  0194a	3b f4		 cmp	 esi, esp
  0194c	e8 00 00 00 00	 call	 __RTC_CheckEsp
  01951	50		 push	 eax
  01952	8b 45 f0	 mov	 eax, DWORD PTR _this$[ebp]
  01955	50		 push	 eax
  01956	8b 4d f0	 mov	 ecx, DWORD PTR _this$[ebp]
  01959	83 c1 70	 add	 ecx, 112		; 00000070H
  0195c	e8 00 00 00 00	 call	 ?AddTool@CToolTipCtrl@@QAEHPAVCWnd@@PBDPBUtagRECT@@I@Z ; CToolTipCtrl::AddTool
  01961	85 c0		 test	 eax, eax
  01963	74 0d		 je	 SHORT $L188066

; 542  : 				m_tooltip.Activate(1);

  01965	6a 01		 push	 1
  01967	8b 4d f0	 mov	 ecx, DWORD PTR _this$[ebp]
  0196a	83 c1 70	 add	 ecx, 112		; 00000070H
  0196d	e8 00 00 00 00	 call	 ?Activate@CToolTipCtrl@@QAEXH@Z ; CToolTipCtrl::Activate
$L188066:

; 543  : 		}
; 544  : 	} 
; 545  : 	m_tooltip.SetMaxTipWidth(150);

  01972	68 96 00 00 00	 push	 150			; 00000096H
  01977	8b 4d f0	 mov	 ecx, DWORD PTR _this$[ebp]
  0197a	83 c1 70	 add	 ecx, 112		; 00000070H
  0197d	e8 00 00 00 00	 call	 ?SetMaxTipWidth@CToolTipCtrl@@QAEHH@Z ; CToolTipCtrl::SetMaxTipWidth

; 546  : 	m_tooltip.UpdateTipText((LPCTSTR)s,this);

  01982	6a 00		 push	 0
  01984	8b 4d f0	 mov	 ecx, DWORD PTR _this$[ebp]
  01987	51		 push	 ecx
  01988	8b f4		 mov	 esi, esp
  0198a	8d 4d 08	 lea	 ecx, DWORD PTR _s$[ebp]
  0198d	ff 15 00 00 00
	00		 call	 DWORD PTR __imp_??B?$CSimpleStringT@D$00@ATL@@QBEPBDXZ
  01993	3b f4		 cmp	 esi, esp
  01995	e8 00 00 00 00	 call	 __RTC_CheckEsp
  0199a	50		 push	 eax
  0199b	8b 4d f0	 mov	 ecx, DWORD PTR _this$[ebp]
  0199e	83 c1 70	 add	 ecx, 112		; 00000070H
  019a1	e8 00 00 00 00	 call	 ?UpdateTipText@CToolTipCtrl@@QAEXPBDPAVCWnd@@I@Z ; CToolTipCtrl::UpdateTipText

; 547  : }

  019a6	c7 45 fc ff ff
	ff ff		 mov	 DWORD PTR __$EHRec$[ebp+8], -1
  019ad	8b f4		 mov	 esi, esp
  019af	8d 4d 08	 lea	 ecx, DWORD PTR _s$[ebp]
  019b2	ff 15 00 00 00
	00		 call	 DWORD PTR __imp_??1?$CStringT@DV?$StrTraitMFC_DLL@DV?$ChTraitsCRT@D@ATL@@@@@ATL@@QAE@XZ
  019b8	3b f4		 cmp	 esi, esp
  019ba	e8 00 00 00 00	 call	 __RTC_CheckEsp
  019bf	8b 4d f4	 mov	 ecx, DWORD PTR __$EHRec$[ebp]
  019c2	64 89 0d 00 00
	00 00		 mov	 DWORD PTR fs:__except_list, ecx
  019c9	5e		 pop	 esi
  019ca	83 c4 10	 add	 esp, 16			; 00000010H
  019cd	3b ec		 cmp	 ebp, esp
  019cf	e8 00 00 00 00	 call	 __RTC_CheckEsp
  019d4	8b e5		 mov	 esp, ebp
  019d6	5d		 pop	 ebp
  019d7	c2 04 00	 ret	 4
_TEXT	ENDS
text$x	SEGMENT
$L188994:
  0014f	8b f4		 mov	 esi, esp
  00151	8d 4d 08	 lea	 ecx, DWORD PTR _s$[ebp]
  00154	ff 15 00 00 00
	00		 call	 DWORD PTR __imp_??1?$CStringT@DV?$StrTraitMFC_DLL@DV?$ChTraitsCRT@D@ATL@@@@@ATL@@QAE@XZ
  0015a	3b f4		 cmp	 esi, esp
  0015c	e9 00 00 00 00	 jmp	 __RTC_CheckEsp
__ehhandler$?SetToolTipText@CSkinButton@@QAEXV?$CStringT@DV?$StrTraitMFC_DLL@DV?$ChTraitsCRT@D@ATL@@@@@ATL@@@Z:
  00161	b8 00 00 00 00	 mov	 eax, OFFSET FLAT:$T188996
  00166	e9 00 00 00 00	 jmp	 ___CxxFrameHandler
text$x	ENDS
?SetToolTipText@CSkinButton@@QAEXV?$CStringT@DV?$StrTraitMFC_DLL@DV?$ChTraitsCRT@D@ATL@@@@@ATL@@@Z ENDP ; CSkinButton::SetToolTipText
EXTRN	?RelayEvent@CToolTipCtrl@@QAEXPAUtagMSG@@@Z:NEAR ; CToolTipCtrl::RelayEvent
; Function compile flags: /Odt /RTCsu
_TEXT	SEGMENT
_msg$188078 = -36					; size = 28
_this$ = -4						; size = 4
_message$ = 8						; size = 4
_wParam$ = 12						; size = 4
_lParam$ = 16						; size = 4
?RelayEvent@CSkinButton@@QAEXIIJ@Z PROC NEAR		; CSkinButton::RelayEvent
; _this$ = ecx

; 549  : {

  019e0	55		 push	 ebp
  019e1	8b ec		 mov	 ebp, esp
  019e3	83 ec 28	 sub	 esp, 40			; 00000028H
  019e6	57		 push	 edi
  019e7	51		 push	 ecx
  019e8	8d 7d d8	 lea	 edi, DWORD PTR [ebp-40]
  019eb	b9 0a 00 00 00	 mov	 ecx, 10			; 0000000aH
  019f0	b8 cc cc cc cc	 mov	 eax, -858993460		; ccccccccH
  019f5	f3 ab		 rep stosd
  019f7	59		 pop	 ecx
  019f8	89 4d fc	 mov	 DWORD PTR _this$[ebp], ecx

; 550  : 	// This function will create a MSG structure, fill it in a pass it to
; 551  : 	// the ToolTip control, m_ttip.  Note that we ensure the point is in window
; 552  : 	// coordinates (relative to the control's window).
; 553  : 	if(NULL != m_tooltip.m_hWnd){

  019fb	8b 45 fc	 mov	 eax, DWORD PTR _this$[ebp]
  019fe	83 b8 90 00 00
	00 00		 cmp	 DWORD PTR [eax+144], 0
  01a05	74 4b		 je	 SHORT $L188076

; 554  : 		MSG msg;
; 555  : 		msg.hwnd = m_hWnd;

  01a07	8b 4d fc	 mov	 ecx, DWORD PTR _this$[ebp]
  01a0a	8b 51 20	 mov	 edx, DWORD PTR [ecx+32]
  01a0d	89 55 dc	 mov	 DWORD PTR _msg$188078[ebp], edx

; 556  : 		msg.message = message;

  01a10	8b 45 08	 mov	 eax, DWORD PTR _message$[ebp]
  01a13	89 45 e0	 mov	 DWORD PTR _msg$188078[ebp+4], eax

; 557  : 		msg.wParam = wParam;

  01a16	8b 4d 0c	 mov	 ecx, DWORD PTR _wParam$[ebp]
  01a19	89 4d e4	 mov	 DWORD PTR _msg$188078[ebp+8], ecx

; 558  : 		msg.lParam = lParam;

  01a1c	8b 55 10	 mov	 edx, DWORD PTR _lParam$[ebp]
  01a1f	89 55 e8	 mov	 DWORD PTR _msg$188078[ebp+12], edx

; 559  : 		msg.time = 0;

  01a22	c7 45 ec 00 00
	00 00		 mov	 DWORD PTR _msg$188078[ebp+16], 0

; 560  : 		msg.pt.x = LOWORD(lParam);

  01a29	8b 45 10	 mov	 eax, DWORD PTR _lParam$[ebp]
  01a2c	25 ff ff 00 00	 and	 eax, 65535		; 0000ffffH
  01a31	0f b7 c8	 movzx	 ecx, ax
  01a34	89 4d f0	 mov	 DWORD PTR _msg$188078[ebp+20], ecx

; 561  : 		msg.pt.y = HIWORD(lParam);

  01a37	8b 55 10	 mov	 edx, DWORD PTR _lParam$[ebp]
  01a3a	c1 ea 10	 shr	 edx, 16			; 00000010H
  01a3d	0f b7 c2	 movzx	 eax, dx
  01a40	89 45 f4	 mov	 DWORD PTR _msg$188078[ebp+24], eax

; 562  : 
; 563  : 		m_tooltip.RelayEvent(&msg);

  01a43	8d 4d dc	 lea	 ecx, DWORD PTR _msg$188078[ebp]
  01a46	51		 push	 ecx
  01a47	8b 4d fc	 mov	 ecx, DWORD PTR _this$[ebp]
  01a4a	83 c1 70	 add	 ecx, 112		; 00000070H
  01a4d	e8 00 00 00 00	 call	 ?RelayEvent@CToolTipCtrl@@QAEXPAUtagMSG@@@Z ; CToolTipCtrl::RelayEvent
$L188076:

; 564  : 	}
; 565  : }

  01a52	52		 push	 edx
  01a53	8b cd		 mov	 ecx, ebp
  01a55	50		 push	 eax
  01a56	8d 15 00 00 00
	00		 lea	 edx, DWORD PTR $L189002
  01a5c	e8 00 00 00 00	 call	 @_RTC_CheckStackVars@8
  01a61	58		 pop	 eax
  01a62	5a		 pop	 edx
  01a63	5f		 pop	 edi
  01a64	83 c4 28	 add	 esp, 40			; 00000028H
  01a67	3b ec		 cmp	 ebp, esp
  01a69	e8 00 00 00 00	 call	 __RTC_CheckEsp
  01a6e	8b e5		 mov	 esp, ebp
  01a70	5d		 pop	 ebp
  01a71	c2 0c 00	 ret	 12			; 0000000cH
$L189002:
  01a74	01 00 00 00	 DD	 1
  01a78	00 00 00 00	 DD	 $L189001
$L189001:
  01a7c	dc ff ff ff	 DD	 -36			; ffffffdcH
  01a80	1c 00 00 00	 DD	 28			; 0000001cH
  01a84	00 00 00 00	 DD	 $L189000
$L189000:
  01a88	6d		 DB	 109			; 0000006dH
  01a89	73		 DB	 115			; 00000073H
  01a8a	67		 DB	 103			; 00000067H
  01a8b	00		 DB	 0
?RelayEvent@CSkinButton@@QAEXIIJ@Z ENDP			; CSkinButton::RelayEvent
_TEXT	ENDS
PUBLIC	?SetUseTip@CSkinButton@@QAEX_N@Z		; CSkinButton::SetUseTip
EXTRN	__imp__GetCursorPos@4:NEAR
EXTRN	?GetWindowRect@CWnd@@QBEXPAUtagRECT@@@Z:NEAR	; CWnd::GetWindowRect
EXTRN	?UpdateWindow@CWnd@@QAEXXZ:NEAR			; CWnd::UpdateWindow
EXTRN	__imp__PtInRect@12:NEAR
; Function compile flags: /Odt /RTCsu
_TEXT	SEGMENT
_point$188089 = -40					; size = 8
_rect$188088 = -24					; size = 16
_this$ = -4						; size = 4
_bshowTip$ = 8						; size = 1
?SetUseTip@CSkinButton@@QAEX_N@Z PROC NEAR		; CSkinButton::SetUseTip
; _this$ = ecx

; 567  : {

  01a90	55		 push	 ebp
  01a91	8b ec		 mov	 ebp, esp
  01a93	83 ec 2c	 sub	 esp, 44			; 0000002cH
  01a96	56		 push	 esi
  01a97	57		 push	 edi
  01a98	51		 push	 ecx
  01a99	8d 7d d4	 lea	 edi, DWORD PTR [ebp-44]
  01a9c	b9 0b 00 00 00	 mov	 ecx, 11			; 0000000bH
  01aa1	b8 cc cc cc cc	 mov	 eax, -858993460		; ccccccccH
  01aa6	f3 ab		 rep stosd
  01aa8	59		 pop	 ecx
  01aa9	89 4d fc	 mov	 DWORD PTR _this$[ebp], ecx

; 568  : 	m_bshowTip=bshowTip ;

  01aac	8b 45 fc	 mov	 eax, DWORD PTR _this$[ebp]
  01aaf	8a 4d 08	 mov	 cl, BYTE PTR _bshowTip$[ebp]
  01ab2	88 88 f1 00 00
	00		 mov	 BYTE PTR [eax+241], cl

; 569  : 	if(m_bshowTip)

  01ab8	8b 55 fc	 mov	 edx, DWORD PTR _this$[ebp]
  01abb	0f b6 82 f1 00
	00 00		 movzx	 eax, BYTE PTR [edx+241]
  01ac2	85 c0		 test	 eax, eax
  01ac4	74 4e		 je	 SHORT $L188086

; 570  : 	{
; 571  : 		CRect rect;

  01ac6	8d 4d e8	 lea	 ecx, DWORD PTR _rect$188088[ebp]
  01ac9	e8 00 00 00 00	 call	 ??0CRect@@QAE@XZ	; CRect::CRect

; 572  : 		this->GetWindowRect(&rect);

  01ace	8d 4d e8	 lea	 ecx, DWORD PTR _rect$188088[ebp]
  01ad1	51		 push	 ecx
  01ad2	8b 4d fc	 mov	 ecx, DWORD PTR _this$[ebp]
  01ad5	e8 00 00 00 00	 call	 ?GetWindowRect@CWnd@@QBEXPAUtagRECT@@@Z ; CWnd::GetWindowRect

; 573  : 		POINT point;
; 574  : 		::GetCursorPos(&point);

  01ada	8b f4		 mov	 esi, esp
  01adc	8d 55 d8	 lea	 edx, DWORD PTR _point$188089[ebp]
  01adf	52		 push	 edx
  01ae0	ff 15 00 00 00
	00		 call	 DWORD PTR __imp__GetCursorPos@4
  01ae6	3b f4		 cmp	 esi, esp
  01ae8	e8 00 00 00 00	 call	 __RTC_CheckEsp

; 575  : 		if (::PtInRect( &rect, point ) )

  01aed	8b f4		 mov	 esi, esp
  01aef	8b 45 dc	 mov	 eax, DWORD PTR _point$188089[ebp+4]
  01af2	50		 push	 eax
  01af3	8b 4d d8	 mov	 ecx, DWORD PTR _point$188089[ebp]
  01af6	51		 push	 ecx
  01af7	8d 55 e8	 lea	 edx, DWORD PTR _rect$188088[ebp]
  01afa	52		 push	 edx
  01afb	ff 15 00 00 00
	00		 call	 DWORD PTR __imp__PtInRect@12
  01b01	3b f4		 cmp	 esi, esp
  01b03	e8 00 00 00 00	 call	 __RTC_CheckEsp
  01b08	85 c0		 test	 eax, eax
  01b0a	74 08		 je	 SHORT $L188086

; 576  : 		{
; 577  : 			this->UpdateWindow();

  01b0c	8b 4d fc	 mov	 ecx, DWORD PTR _this$[ebp]
  01b0f	e8 00 00 00 00	 call	 ?UpdateWindow@CWnd@@QAEXXZ ; CWnd::UpdateWindow
$L188086:

; 578  : 		}
; 579  : 	}
; 580  : }

  01b14	52		 push	 edx
  01b15	8b cd		 mov	 ecx, ebp
  01b17	50		 push	 eax
  01b18	8d 15 00 00 00
	00		 lea	 edx, DWORD PTR $L189007
  01b1e	e8 00 00 00 00	 call	 @_RTC_CheckStackVars@8
  01b23	58		 pop	 eax
  01b24	5a		 pop	 edx
  01b25	5f		 pop	 edi
  01b26	5e		 pop	 esi
  01b27	83 c4 2c	 add	 esp, 44			; 0000002cH
  01b2a	3b ec		 cmp	 ebp, esp
  01b2c	e8 00 00 00 00	 call	 __RTC_CheckEsp
  01b31	8b e5		 mov	 esp, ebp
  01b33	5d		 pop	 ebp
  01b34	c2 04 00	 ret	 4
$L189007:
  01b37	02 00 00 00	 DD	 2
  01b3b	00 00 00 00	 DD	 $L189006
$L189006:
  01b3f	e8 ff ff ff	 DD	 -24			; ffffffe8H
  01b43	10 00 00 00	 DD	 16			; 00000010H
  01b47	00 00 00 00	 DD	 $L189004
  01b4b	d8 ff ff ff	 DD	 -40			; ffffffd8H
  01b4f	08 00 00 00	 DD	 8
  01b53	00 00 00 00	 DD	 $L189005
$L189005:
  01b57	70		 DB	 112			; 00000070H
  01b58	6f		 DB	 111			; 0000006fH
  01b59	69		 DB	 105			; 00000069H
  01b5a	6e		 DB	 110			; 0000006eH
  01b5b	74		 DB	 116			; 00000074H
  01b5c	00		 DB	 0
$L189004:
  01b5d	72		 DB	 114			; 00000072H
  01b5e	65		 DB	 101			; 00000065H
  01b5f	63		 DB	 99			; 00000063H
  01b60	74		 DB	 116			; 00000074H
  01b61	00		 DB	 0
?SetUseTip@CSkinButton@@QAEX_N@Z ENDP			; CSkinButton::SetUseTip
_TEXT	ENDS
PUBLIC	?SetSmoothingMode@Graphics@Gdiplus@@QAE?AW4Status@2@W4SmoothingMode@2@@Z ; Gdiplus::Graphics::SetSmoothingMode
PUBLIC	??0LinearGradientBrush@Gdiplus@@QAE@ABVRectF@1@ABVColor@1@1W4LinearGradientMode@1@@Z ; Gdiplus::LinearGradientBrush::LinearGradientBrush
PUBLIC	??0PointF@Gdiplus@@QAE@ABV01@@Z			; Gdiplus::PointF::PointF
PUBLIC	??0PointF@Gdiplus@@QAE@MM@Z			; Gdiplus::PointF::PointF
PUBLIC	??1LinearGradientBrush@Gdiplus@@UAE@XZ		; Gdiplus::LinearGradientBrush::~LinearGradientBrush
PUBLIC	??0RectF@Gdiplus@@QAE@MMMM@Z			; Gdiplus::RectF::RectF
PUBLIC	?FillPolygon@Graphics@Gdiplus@@QAE?AW4Status@2@PBVBrush@2@PBVPointF@2@HW4FillMode@2@@Z ; Gdiplus::Graphics::FillPolygon
EXTRN	?Width@CRect@@QBEHXZ:NEAR			; CRect::Width
EXTRN	?Height@CRect@@QBEHXZ:NEAR			; CRect::Height
xdata$x	SEGMENT
$T189036 DD	0ffffffffH
	DD	FLAT:$L189009
	DD	00H
	DD	FLAT:$L189010
	DD	01H
	DD	FLAT:$L189011
	DD	02H
	DD	FLAT:$L189012
	DD	03H
	DD	FLAT:$L189013
$T189015 DD	019930520H
	DD	05H
	DD	FLAT:$T189036
	DD	2 DUP(00H)
	DD	2 DUP(00H)
; Function compile flags: /Odt /RTCsu
xdata$x	ENDS
_TEXT	SEGMENT
tv384 = -428						; size = 4
tv382 = -424						; size = 4
tv378 = -420						; size = 4
tv376 = -416						; size = 4
tv372 = -412						; size = 4
tv367 = -408						; size = 4
tv343 = -404						; size = 4
tv338 = -400						; size = 4
tv336 = -396						; size = 4
tv331 = -392						; size = 4
tv325 = -388						; size = 4
tv323 = -384						; size = 4
tv317 = -380						; size = 4
tv313 = -376						; size = 4
_brush2$ = -368						; size = 12
_brushBK2$ = -348					; size = 12
_points2$ = -328					; size = 32
_point8$ = -288						; size = 8
_point7$ = -272						; size = 8
_point6$ = -256						; size = 8
_point5$ = -240						; size = 8
_brush$ = -224						; size = 12
_brushBK$ = -204					; size = 12
_pPoints$ = -188					; size = 4
_points$ = -180						; size = 32
_point4$ = -140						; size = 8
_point3$ = -124						; size = 8
_point2$ = -108						; size = 8
_point1$ = -92						; size = 8
_rc2$ = -76						; size = 16
_rc1$ = -52						; size = 16
_graphics$ = -28					; size = 8
_this$ = -16						; size = 4
__$EHRec$ = -12						; size = 12
_pDc$ = 8						; size = 4
_rcBmp$ = 12						; size = 4
?DrawBmpShade@CButtonDraw@@IAEXPAVCDC@@AAVCRect@@@Z PROC NEAR ; CButtonDraw::DrawBmpShade
; _this$ = ecx

; 582  : {

  01b70	55		 push	 ebp
  01b71	8b ec		 mov	 ebp, esp
  01b73	6a ff		 push	 -1
  01b75	68 00 00 00 00	 push	 __ehhandler$?DrawBmpShade@CButtonDraw@@IAEXPAVCDC@@AAVCRect@@@Z
  01b7a	64 a1 00 00 00
	00		 mov	 eax, DWORD PTR fs:__except_list
  01b80	50		 push	 eax
  01b81	64 89 25 00 00
	00 00		 mov	 DWORD PTR fs:__except_list, esp
  01b88	81 ec a0 01 00
	00		 sub	 esp, 416		; 000001a0H
  01b8e	57		 push	 edi
  01b8f	51		 push	 ecx
  01b90	8d bd 54 fe ff
	ff		 lea	 edi, DWORD PTR [ebp-428]
  01b96	b9 68 00 00 00	 mov	 ecx, 104		; 00000068H
  01b9b	b8 cc cc cc cc	 mov	 eax, -858993460		; ccccccccH
  01ba0	f3 ab		 rep stosd
  01ba2	59		 pop	 ecx
  01ba3	89 4d f0	 mov	 DWORD PTR _this$[ebp], ecx

; 583  : 	Gdiplus::Graphics graphics(pDc->m_hDC);

  01ba6	8b 45 08	 mov	 eax, DWORD PTR _pDc$[ebp]
  01ba9	8b 48 04	 mov	 ecx, DWORD PTR [eax+4]
  01bac	51		 push	 ecx
  01bad	8d 4d e4	 lea	 ecx, DWORD PTR _graphics$[ebp]
  01bb0	e8 00 00 00 00	 call	 ??0Graphics@Gdiplus@@QAE@PAUHDC__@@@Z ; Gdiplus::Graphics::Graphics
  01bb5	c7 45 fc 00 00
	00 00		 mov	 DWORD PTR __$EHRec$[ebp+8], 0

; 584  : 	graphics.SetSmoothingMode(SmoothingModeHighQuality);

  01bbc	6a 02		 push	 2
  01bbe	8d 4d e4	 lea	 ecx, DWORD PTR _graphics$[ebp]
  01bc1	e8 00 00 00 00	 call	 ?SetSmoothingMode@Graphics@Gdiplus@@QAE?AW4Status@2@W4SmoothingMode@2@@Z ; Gdiplus::Graphics::SetSmoothingMode

; 585  : 	Gdiplus::RectF rc1( rcBmp.right-1, rcBmp.top, 5, rcBmp.Height()+4 );

  01bc6	8b 4d 0c	 mov	 ecx, DWORD PTR _rcBmp$[ebp]
  01bc9	e8 00 00 00 00	 call	 ?Height@CRect@@QBEHXZ	; CRect::Height
  01bce	83 c0 04	 add	 eax, 4
  01bd1	89 85 88 fe ff
	ff		 mov	 DWORD PTR tv313[ebp], eax
  01bd7	db 85 88 fe ff
	ff		 fild	 DWORD PTR tv313[ebp]
  01bdd	51		 push	 ecx
  01bde	d9 1c 24	 fstp	 DWORD PTR [esp]
  01be1	68 00 00 a0 40	 push	 1084227584		; 40a00000H
  01be6	8b 55 0c	 mov	 edx, DWORD PTR _rcBmp$[ebp]
  01be9	db 42 04	 fild	 DWORD PTR [edx+4]
  01bec	51		 push	 ecx
  01bed	d9 1c 24	 fstp	 DWORD PTR [esp]
  01bf0	8b 45 0c	 mov	 eax, DWORD PTR _rcBmp$[ebp]
  01bf3	8b 48 08	 mov	 ecx, DWORD PTR [eax+8]
  01bf6	83 e9 01	 sub	 ecx, 1
  01bf9	89 8d 84 fe ff
	ff		 mov	 DWORD PTR tv317[ebp], ecx
  01bff	db 85 84 fe ff
	ff		 fild	 DWORD PTR tv317[ebp]
  01c05	51		 push	 ecx
  01c06	d9 1c 24	 fstp	 DWORD PTR [esp]
  01c09	8d 4d cc	 lea	 ecx, DWORD PTR _rc1$[ebp]
  01c0c	e8 00 00 00 00	 call	 ??0RectF@Gdiplus@@QAE@MMMM@Z ; Gdiplus::RectF::RectF

; 586  : 	Gdiplus::RectF rc2( rcBmp.left, rcBmp.bottom-1, rcBmp.Width()+4, 5);

  01c11	68 00 00 a0 40	 push	 1084227584		; 40a00000H
  01c16	8b 4d 0c	 mov	 ecx, DWORD PTR _rcBmp$[ebp]
  01c19	e8 00 00 00 00	 call	 ?Width@CRect@@QBEHXZ	; CRect::Width
  01c1e	83 c0 04	 add	 eax, 4
  01c21	89 85 80 fe ff
	ff		 mov	 DWORD PTR tv323[ebp], eax
  01c27	db 85 80 fe ff
	ff		 fild	 DWORD PTR tv323[ebp]
  01c2d	51		 push	 ecx
  01c2e	d9 1c 24	 fstp	 DWORD PTR [esp]
  01c31	8b 55 0c	 mov	 edx, DWORD PTR _rcBmp$[ebp]
  01c34	8b 42 0c	 mov	 eax, DWORD PTR [edx+12]
  01c37	83 e8 01	 sub	 eax, 1
  01c3a	89 85 7c fe ff
	ff		 mov	 DWORD PTR tv325[ebp], eax
  01c40	db 85 7c fe ff
	ff		 fild	 DWORD PTR tv325[ebp]
  01c46	51		 push	 ecx
  01c47	d9 1c 24	 fstp	 DWORD PTR [esp]
  01c4a	8b 4d 0c	 mov	 ecx, DWORD PTR _rcBmp$[ebp]
  01c4d	db 01		 fild	 DWORD PTR [ecx]
  01c4f	51		 push	 ecx
  01c50	d9 1c 24	 fstp	 DWORD PTR [esp]
  01c53	8d 4d b4	 lea	 ecx, DWORD PTR _rc2$[ebp]
  01c56	e8 00 00 00 00	 call	 ??0RectF@Gdiplus@@QAE@MMMM@Z ; Gdiplus::RectF::RectF

; 587  : 
; 588  : 	PointF point1(rcBmp.right,  rcBmp.top+1 );

  01c5b	8b 55 0c	 mov	 edx, DWORD PTR _rcBmp$[ebp]
  01c5e	8b 42 04	 mov	 eax, DWORD PTR [edx+4]
  01c61	83 c0 01	 add	 eax, 1
  01c64	89 85 78 fe ff
	ff		 mov	 DWORD PTR tv331[ebp], eax
  01c6a	db 85 78 fe ff
	ff		 fild	 DWORD PTR tv331[ebp]
  01c70	51		 push	 ecx
  01c71	d9 1c 24	 fstp	 DWORD PTR [esp]
  01c74	8b 4d 0c	 mov	 ecx, DWORD PTR _rcBmp$[ebp]
  01c77	db 41 08	 fild	 DWORD PTR [ecx+8]
  01c7a	51		 push	 ecx
  01c7b	d9 1c 24	 fstp	 DWORD PTR [esp]
  01c7e	8d 4d a4	 lea	 ecx, DWORD PTR _point1$[ebp]
  01c81	e8 00 00 00 00	 call	 ??0PointF@Gdiplus@@QAE@MM@Z ; Gdiplus::PointF::PointF

; 589  : 	PointF point2(rcBmp.right+4,  rcBmp.top+4);

  01c86	8b 55 0c	 mov	 edx, DWORD PTR _rcBmp$[ebp]
  01c89	8b 42 04	 mov	 eax, DWORD PTR [edx+4]
  01c8c	83 c0 04	 add	 eax, 4
  01c8f	89 85 74 fe ff
	ff		 mov	 DWORD PTR tv336[ebp], eax
  01c95	db 85 74 fe ff
	ff		 fild	 DWORD PTR tv336[ebp]
  01c9b	51		 push	 ecx
  01c9c	d9 1c 24	 fstp	 DWORD PTR [esp]
  01c9f	8b 4d 0c	 mov	 ecx, DWORD PTR _rcBmp$[ebp]
  01ca2	8b 51 08	 mov	 edx, DWORD PTR [ecx+8]
  01ca5	83 c2 04	 add	 edx, 4
  01ca8	89 95 70 fe ff
	ff		 mov	 DWORD PTR tv338[ebp], edx
  01cae	db 85 70 fe ff
	ff		 fild	 DWORD PTR tv338[ebp]
  01cb4	51		 push	 ecx
  01cb5	d9 1c 24	 fstp	 DWORD PTR [esp]
  01cb8	8d 4d 94	 lea	 ecx, DWORD PTR _point2$[ebp]
  01cbb	e8 00 00 00 00	 call	 ??0PointF@Gdiplus@@QAE@MM@Z ; Gdiplus::PointF::PointF

; 590  : 	PointF point3(rcBmp.right+4,  rcBmp.bottom);

  01cc0	8b 45 0c	 mov	 eax, DWORD PTR _rcBmp$[ebp]
  01cc3	db 40 0c	 fild	 DWORD PTR [eax+12]
  01cc6	51		 push	 ecx
  01cc7	d9 1c 24	 fstp	 DWORD PTR [esp]
  01cca	8b 4d 0c	 mov	 ecx, DWORD PTR _rcBmp$[ebp]
  01ccd	8b 51 08	 mov	 edx, DWORD PTR [ecx+8]
  01cd0	83 c2 04	 add	 edx, 4
  01cd3	89 95 6c fe ff
	ff		 mov	 DWORD PTR tv343[ebp], edx
  01cd9	db 85 6c fe ff
	ff		 fild	 DWORD PTR tv343[ebp]
  01cdf	51		 push	 ecx
  01ce0	d9 1c 24	 fstp	 DWORD PTR [esp]
  01ce3	8d 4d 84	 lea	 ecx, DWORD PTR _point3$[ebp]
  01ce6	e8 00 00 00 00	 call	 ??0PointF@Gdiplus@@QAE@MM@Z ; Gdiplus::PointF::PointF

; 591  : 	PointF point4(rcBmp.right,  rcBmp.bottom);

  01ceb	8b 45 0c	 mov	 eax, DWORD PTR _rcBmp$[ebp]
  01cee	db 40 0c	 fild	 DWORD PTR [eax+12]
  01cf1	51		 push	 ecx
  01cf2	d9 1c 24	 fstp	 DWORD PTR [esp]
  01cf5	8b 4d 0c	 mov	 ecx, DWORD PTR _rcBmp$[ebp]
  01cf8	db 41 08	 fild	 DWORD PTR [ecx+8]
  01cfb	51		 push	 ecx
  01cfc	d9 1c 24	 fstp	 DWORD PTR [esp]
  01cff	8d 8d 74 ff ff
	ff		 lea	 ecx, DWORD PTR _point4$[ebp]
  01d05	e8 00 00 00 00	 call	 ??0PointF@Gdiplus@@QAE@MM@Z ; Gdiplus::PointF::PointF

; 592  : 
; 593  : 	PointF points[4] = {point1, point2, point3, point4};

  01d0a	8d 55 a4	 lea	 edx, DWORD PTR _point1$[ebp]
  01d0d	52		 push	 edx
  01d0e	8d 8d 4c ff ff
	ff		 lea	 ecx, DWORD PTR _points$[ebp]
  01d14	e8 00 00 00 00	 call	 ??0PointF@Gdiplus@@QAE@ABV01@@Z ; Gdiplus::PointF::PointF
  01d19	8d 45 94	 lea	 eax, DWORD PTR _point2$[ebp]
  01d1c	50		 push	 eax
  01d1d	8d 8d 54 ff ff
	ff		 lea	 ecx, DWORD PTR _points$[ebp+8]
  01d23	e8 00 00 00 00	 call	 ??0PointF@Gdiplus@@QAE@ABV01@@Z ; Gdiplus::PointF::PointF
  01d28	8d 4d 84	 lea	 ecx, DWORD PTR _point3$[ebp]
  01d2b	51		 push	 ecx
  01d2c	8d 8d 5c ff ff
	ff		 lea	 ecx, DWORD PTR _points$[ebp+16]
  01d32	e8 00 00 00 00	 call	 ??0PointF@Gdiplus@@QAE@ABV01@@Z ; Gdiplus::PointF::PointF
  01d37	8d 95 74 ff ff
	ff		 lea	 edx, DWORD PTR _point4$[ebp]
  01d3d	52		 push	 edx
  01d3e	8d 8d 64 ff ff
	ff		 lea	 ecx, DWORD PTR _points$[ebp+24]
  01d44	e8 00 00 00 00	 call	 ??0PointF@Gdiplus@@QAE@ABV01@@Z ; Gdiplus::PointF::PointF

; 594  : 	PointF* pPoints = points;

  01d49	8d 85 4c ff ff
	ff		 lea	 eax, DWORD PTR _points$[ebp]
  01d4f	89 85 44 ff ff
	ff		 mov	 DWORD PTR _pPoints$[ebp], eax

; 595  : 
; 596  : 	LinearGradientBrush brushBK( rc1, m_colBK, m_colBK,LinearGradientModeHorizontal );

  01d55	6a 00		 push	 0
  01d57	8b 4d f0	 mov	 ecx, DWORD PTR _this$[ebp]
  01d5a	83 c1 04	 add	 ecx, 4
  01d5d	51		 push	 ecx
  01d5e	8b 55 f0	 mov	 edx, DWORD PTR _this$[ebp]
  01d61	83 c2 04	 add	 edx, 4
  01d64	52		 push	 edx
  01d65	8d 45 cc	 lea	 eax, DWORD PTR _rc1$[ebp]
  01d68	50		 push	 eax
  01d69	8d 8d 34 ff ff
	ff		 lea	 ecx, DWORD PTR _brushBK$[ebp]
  01d6f	e8 00 00 00 00	 call	 ??0LinearGradientBrush@Gdiplus@@QAE@ABVRectF@1@ABVColor@1@1W4LinearGradientMode@1@@Z ; Gdiplus::LinearGradientBrush::LinearGradientBrush
  01d74	c6 45 fc 01	 mov	 BYTE PTR __$EHRec$[ebp+8], 1

; 597  : 	graphics.FillPolygon(&brushBK, pPoints,4,FillModeWinding );

  01d78	6a 01		 push	 1
  01d7a	6a 04		 push	 4
  01d7c	8b 8d 44 ff ff
	ff		 mov	 ecx, DWORD PTR _pPoints$[ebp]
  01d82	51		 push	 ecx
  01d83	8d 95 34 ff ff
	ff		 lea	 edx, DWORD PTR _brushBK$[ebp]
  01d89	52		 push	 edx
  01d8a	8d 4d e4	 lea	 ecx, DWORD PTR _graphics$[ebp]
  01d8d	e8 00 00 00 00	 call	 ?FillPolygon@Graphics@Gdiplus@@QAE?AW4Status@2@PBVBrush@2@PBVPointF@2@HW4FillMode@2@@Z ; Gdiplus::Graphics::FillPolygon

; 598  : 
; 599  : 	LinearGradientBrush brush( rc1, m_colShadow, m_colShadow2,LinearGradientModeHorizontal );

  01d92	6a 00		 push	 0
  01d94	8b 45 f0	 mov	 eax, DWORD PTR _this$[ebp]
  01d97	83 c0 0c	 add	 eax, 12			; 0000000cH
  01d9a	50		 push	 eax
  01d9b	8b 4d f0	 mov	 ecx, DWORD PTR _this$[ebp]
  01d9e	83 c1 08	 add	 ecx, 8
  01da1	51		 push	 ecx
  01da2	8d 55 cc	 lea	 edx, DWORD PTR _rc1$[ebp]
  01da5	52		 push	 edx
  01da6	8d 8d 20 ff ff
	ff		 lea	 ecx, DWORD PTR _brush$[ebp]
  01dac	e8 00 00 00 00	 call	 ??0LinearGradientBrush@Gdiplus@@QAE@ABVRectF@1@ABVColor@1@1W4LinearGradientMode@1@@Z ; Gdiplus::LinearGradientBrush::LinearGradientBrush
  01db1	c6 45 fc 02	 mov	 BYTE PTR __$EHRec$[ebp+8], 2

; 600  : 	graphics.FillPolygon(&brush, pPoints,4,FillModeWinding );

  01db5	6a 01		 push	 1
  01db7	6a 04		 push	 4
  01db9	8b 85 44 ff ff
	ff		 mov	 eax, DWORD PTR _pPoints$[ebp]
  01dbf	50		 push	 eax
  01dc0	8d 8d 20 ff ff
	ff		 lea	 ecx, DWORD PTR _brush$[ebp]
  01dc6	51		 push	 ecx
  01dc7	8d 4d e4	 lea	 ecx, DWORD PTR _graphics$[ebp]
  01dca	e8 00 00 00 00	 call	 ?FillPolygon@Graphics@Gdiplus@@QAE?AW4Status@2@PBVBrush@2@PBVPointF@2@HW4FillMode@2@@Z ; Gdiplus::Graphics::FillPolygon

; 601  : 
; 602  : 	PointF point5(rcBmp.left+1,   rcBmp.bottom );

  01dcf	8b 55 0c	 mov	 edx, DWORD PTR _rcBmp$[ebp]
  01dd2	db 42 0c	 fild	 DWORD PTR [edx+12]
  01dd5	51		 push	 ecx
  01dd6	d9 1c 24	 fstp	 DWORD PTR [esp]
  01dd9	8b 45 0c	 mov	 eax, DWORD PTR _rcBmp$[ebp]
  01ddc	8b 08		 mov	 ecx, DWORD PTR [eax]
  01dde	83 c1 01	 add	 ecx, 1
  01de1	89 8d 68 fe ff
	ff		 mov	 DWORD PTR tv367[ebp], ecx
  01de7	db 85 68 fe ff
	ff		 fild	 DWORD PTR tv367[ebp]
  01ded	51		 push	 ecx
  01dee	d9 1c 24	 fstp	 DWORD PTR [esp]
  01df1	8d 8d 10 ff ff
	ff		 lea	 ecx, DWORD PTR _point5$[ebp]
  01df7	e8 00 00 00 00	 call	 ??0PointF@Gdiplus@@QAE@MM@Z ; Gdiplus::PointF::PointF

; 603  : 	PointF point6(rcBmp.right+4,  rcBmp.bottom);

  01dfc	8b 55 0c	 mov	 edx, DWORD PTR _rcBmp$[ebp]
  01dff	db 42 0c	 fild	 DWORD PTR [edx+12]
  01e02	51		 push	 ecx
  01e03	d9 1c 24	 fstp	 DWORD PTR [esp]
  01e06	8b 45 0c	 mov	 eax, DWORD PTR _rcBmp$[ebp]
  01e09	8b 48 08	 mov	 ecx, DWORD PTR [eax+8]
  01e0c	83 c1 04	 add	 ecx, 4
  01e0f	89 8d 64 fe ff
	ff		 mov	 DWORD PTR tv372[ebp], ecx
  01e15	db 85 64 fe ff
	ff		 fild	 DWORD PTR tv372[ebp]
  01e1b	51		 push	 ecx
  01e1c	d9 1c 24	 fstp	 DWORD PTR [esp]
  01e1f	8d 8d 00 ff ff
	ff		 lea	 ecx, DWORD PTR _point6$[ebp]
  01e25	e8 00 00 00 00	 call	 ??0PointF@Gdiplus@@QAE@MM@Z ; Gdiplus::PointF::PointF

; 604  : 	PointF point7(rcBmp.right+4,  rcBmp.bottom+3);

  01e2a	8b 55 0c	 mov	 edx, DWORD PTR _rcBmp$[ebp]
  01e2d	8b 42 0c	 mov	 eax, DWORD PTR [edx+12]
  01e30	83 c0 03	 add	 eax, 3
  01e33	89 85 60 fe ff
	ff		 mov	 DWORD PTR tv376[ebp], eax
  01e39	db 85 60 fe ff
	ff		 fild	 DWORD PTR tv376[ebp]
  01e3f	51		 push	 ecx
  01e40	d9 1c 24	 fstp	 DWORD PTR [esp]
  01e43	8b 4d 0c	 mov	 ecx, DWORD PTR _rcBmp$[ebp]
  01e46	8b 51 08	 mov	 edx, DWORD PTR [ecx+8]
  01e49	83 c2 04	 add	 edx, 4
  01e4c	89 95 5c fe ff
	ff		 mov	 DWORD PTR tv378[ebp], edx
  01e52	db 85 5c fe ff
	ff		 fild	 DWORD PTR tv378[ebp]
  01e58	51		 push	 ecx
  01e59	d9 1c 24	 fstp	 DWORD PTR [esp]
  01e5c	8d 8d f0 fe ff
	ff		 lea	 ecx, DWORD PTR _point7$[ebp]
  01e62	e8 00 00 00 00	 call	 ??0PointF@Gdiplus@@QAE@MM@Z ; Gdiplus::PointF::PointF

; 605  : 	PointF point8(rcBmp.left+4,    rcBmp.bottom+3);

  01e67	8b 45 0c	 mov	 eax, DWORD PTR _rcBmp$[ebp]
  01e6a	8b 48 0c	 mov	 ecx, DWORD PTR [eax+12]
  01e6d	83 c1 03	 add	 ecx, 3
  01e70	89 8d 58 fe ff
	ff		 mov	 DWORD PTR tv382[ebp], ecx
  01e76	db 85 58 fe ff
	ff		 fild	 DWORD PTR tv382[ebp]
  01e7c	51		 push	 ecx
  01e7d	d9 1c 24	 fstp	 DWORD PTR [esp]
  01e80	8b 55 0c	 mov	 edx, DWORD PTR _rcBmp$[ebp]
  01e83	8b 02		 mov	 eax, DWORD PTR [edx]
  01e85	83 c0 04	 add	 eax, 4
  01e88	89 85 54 fe ff
	ff		 mov	 DWORD PTR tv384[ebp], eax
  01e8e	db 85 54 fe ff
	ff		 fild	 DWORD PTR tv384[ebp]
  01e94	51		 push	 ecx
  01e95	d9 1c 24	 fstp	 DWORD PTR [esp]
  01e98	8d 8d e0 fe ff
	ff		 lea	 ecx, DWORD PTR _point8$[ebp]
  01e9e	e8 00 00 00 00	 call	 ??0PointF@Gdiplus@@QAE@MM@Z ; Gdiplus::PointF::PointF

; 606  : 
; 607  : 
; 608  : 
; 609  : 
; 610  : 
; 611  : 	PointF points2[4] = {point5, point6, point7, point8};

  01ea3	8d 8d 10 ff ff
	ff		 lea	 ecx, DWORD PTR _point5$[ebp]
  01ea9	51		 push	 ecx
  01eaa	8d 8d b8 fe ff
	ff		 lea	 ecx, DWORD PTR _points2$[ebp]
  01eb0	e8 00 00 00 00	 call	 ??0PointF@Gdiplus@@QAE@ABV01@@Z ; Gdiplus::PointF::PointF
  01eb5	8d 95 00 ff ff
	ff		 lea	 edx, DWORD PTR _point6$[ebp]
  01ebb	52		 push	 edx
  01ebc	8d 8d c0 fe ff
	ff		 lea	 ecx, DWORD PTR _points2$[ebp+8]
  01ec2	e8 00 00 00 00	 call	 ??0PointF@Gdiplus@@QAE@ABV01@@Z ; Gdiplus::PointF::PointF
  01ec7	8d 85 f0 fe ff
	ff		 lea	 eax, DWORD PTR _point7$[ebp]
  01ecd	50		 push	 eax
  01ece	8d 8d c8 fe ff
	ff		 lea	 ecx, DWORD PTR _points2$[ebp+16]
  01ed4	e8 00 00 00 00	 call	 ??0PointF@Gdiplus@@QAE@ABV01@@Z ; Gdiplus::PointF::PointF
  01ed9	8d 8d e0 fe ff
	ff		 lea	 ecx, DWORD PTR _point8$[ebp]
  01edf	51		 push	 ecx
  01ee0	8d 8d d0 fe ff
	ff		 lea	 ecx, DWORD PTR _points2$[ebp+24]
  01ee6	e8 00 00 00 00	 call	 ??0PointF@Gdiplus@@QAE@ABV01@@Z ; Gdiplus::PointF::PointF

; 612  : 	pPoints = points2;

  01eeb	8d 95 b8 fe ff
	ff		 lea	 edx, DWORD PTR _points2$[ebp]
  01ef1	89 95 44 ff ff
	ff		 mov	 DWORD PTR _pPoints$[ebp], edx

; 613  : 
; 614  : 	LinearGradientBrush brushBK2( rc2, m_colBK, m_colBK,LinearGradientModeVertical );

  01ef7	6a 01		 push	 1
  01ef9	8b 45 f0	 mov	 eax, DWORD PTR _this$[ebp]
  01efc	83 c0 04	 add	 eax, 4
  01eff	50		 push	 eax
  01f00	8b 4d f0	 mov	 ecx, DWORD PTR _this$[ebp]
  01f03	83 c1 04	 add	 ecx, 4
  01f06	51		 push	 ecx
  01f07	8d 55 b4	 lea	 edx, DWORD PTR _rc2$[ebp]
  01f0a	52		 push	 edx
  01f0b	8d 8d a4 fe ff
	ff		 lea	 ecx, DWORD PTR _brushBK2$[ebp]
  01f11	e8 00 00 00 00	 call	 ??0LinearGradientBrush@Gdiplus@@QAE@ABVRectF@1@ABVColor@1@1W4LinearGradientMode@1@@Z ; Gdiplus::LinearGradientBrush::LinearGradientBrush
  01f16	c6 45 fc 03	 mov	 BYTE PTR __$EHRec$[ebp+8], 3

; 615  : 	graphics.FillPolygon(&brushBK2, pPoints,4,FillModeWinding );

  01f1a	6a 01		 push	 1
  01f1c	6a 04		 push	 4
  01f1e	8b 85 44 ff ff
	ff		 mov	 eax, DWORD PTR _pPoints$[ebp]
  01f24	50		 push	 eax
  01f25	8d 8d a4 fe ff
	ff		 lea	 ecx, DWORD PTR _brushBK2$[ebp]
  01f2b	51		 push	 ecx
  01f2c	8d 4d e4	 lea	 ecx, DWORD PTR _graphics$[ebp]
  01f2f	e8 00 00 00 00	 call	 ?FillPolygon@Graphics@Gdiplus@@QAE?AW4Status@2@PBVBrush@2@PBVPointF@2@HW4FillMode@2@@Z ; Gdiplus::Graphics::FillPolygon

; 616  : 
; 617  : 	LinearGradientBrush   brush2( rc2, m_colShadow3, m_colShadow2,LinearGradientModeVertical );

  01f34	6a 01		 push	 1
  01f36	8b 55 f0	 mov	 edx, DWORD PTR _this$[ebp]
  01f39	83 c2 0c	 add	 edx, 12			; 0000000cH
  01f3c	52		 push	 edx
  01f3d	8b 45 f0	 mov	 eax, DWORD PTR _this$[ebp]
  01f40	83 c0 10	 add	 eax, 16			; 00000010H
  01f43	50		 push	 eax
  01f44	8d 4d b4	 lea	 ecx, DWORD PTR _rc2$[ebp]
  01f47	51		 push	 ecx
  01f48	8d 8d 90 fe ff
	ff		 lea	 ecx, DWORD PTR _brush2$[ebp]
  01f4e	e8 00 00 00 00	 call	 ??0LinearGradientBrush@Gdiplus@@QAE@ABVRectF@1@ABVColor@1@1W4LinearGradientMode@1@@Z ; Gdiplus::LinearGradientBrush::LinearGradientBrush
  01f53	c6 45 fc 04	 mov	 BYTE PTR __$EHRec$[ebp+8], 4

; 618  : 	graphics.FillPolygon(&brush2, points2,4,FillModeWinding );

  01f57	6a 01		 push	 1
  01f59	6a 04		 push	 4
  01f5b	8d 95 b8 fe ff
	ff		 lea	 edx, DWORD PTR _points2$[ebp]
  01f61	52		 push	 edx
  01f62	8d 85 90 fe ff
	ff		 lea	 eax, DWORD PTR _brush2$[ebp]
  01f68	50		 push	 eax
  01f69	8d 4d e4	 lea	 ecx, DWORD PTR _graphics$[ebp]
  01f6c	e8 00 00 00 00	 call	 ?FillPolygon@Graphics@Gdiplus@@QAE?AW4Status@2@PBVBrush@2@PBVPointF@2@HW4FillMode@2@@Z ; Gdiplus::Graphics::FillPolygon

; 619  : }

  01f71	c6 45 fc 03	 mov	 BYTE PTR __$EHRec$[ebp+8], 3
  01f75	8d 8d 90 fe ff
	ff		 lea	 ecx, DWORD PTR _brush2$[ebp]
  01f7b	e8 00 00 00 00	 call	 ??1LinearGradientBrush@Gdiplus@@UAE@XZ
  01f80	c6 45 fc 02	 mov	 BYTE PTR __$EHRec$[ebp+8], 2
  01f84	8d 8d a4 fe ff
	ff		 lea	 ecx, DWORD PTR _brushBK2$[ebp]
  01f8a	e8 00 00 00 00	 call	 ??1LinearGradientBrush@Gdiplus@@UAE@XZ
  01f8f	c6 45 fc 01	 mov	 BYTE PTR __$EHRec$[ebp+8], 1
  01f93	8d 8d 20 ff ff
	ff		 lea	 ecx, DWORD PTR _brush$[ebp]
  01f99	e8 00 00 00 00	 call	 ??1LinearGradientBrush@Gdiplus@@UAE@XZ
  01f9e	c6 45 fc 00	 mov	 BYTE PTR __$EHRec$[ebp+8], 0
  01fa2	8d 8d 34 ff ff
	ff		 lea	 ecx, DWORD PTR _brushBK$[ebp]
  01fa8	e8 00 00 00 00	 call	 ??1LinearGradientBrush@Gdiplus@@UAE@XZ
  01fad	c7 45 fc ff ff
	ff ff		 mov	 DWORD PTR __$EHRec$[ebp+8], -1
  01fb4	8d 4d e4	 lea	 ecx, DWORD PTR _graphics$[ebp]
  01fb7	e8 00 00 00 00	 call	 ??1Graphics@Gdiplus@@QAE@XZ ; Gdiplus::Graphics::~Graphics
  01fbc	52		 push	 edx
  01fbd	8b cd		 mov	 ecx, ebp
  01fbf	50		 push	 eax
  01fc0	8d 15 00 00 00
	00		 lea	 edx, DWORD PTR $L189035
  01fc6	e8 00 00 00 00	 call	 @_RTC_CheckStackVars@8
  01fcb	58		 pop	 eax
  01fcc	5a		 pop	 edx
  01fcd	8b 4d f4	 mov	 ecx, DWORD PTR __$EHRec$[ebp]
  01fd0	64 89 0d 00 00
	00 00		 mov	 DWORD PTR fs:__except_list, ecx
  01fd7	5f		 pop	 edi
  01fd8	81 c4 ac 01 00
	00		 add	 esp, 428		; 000001acH
  01fde	3b ec		 cmp	 ebp, esp
  01fe0	e8 00 00 00 00	 call	 __RTC_CheckEsp
  01fe5	8b e5		 mov	 esp, ebp
  01fe7	5d		 pop	 ebp
  01fe8	c2 08 00	 ret	 8
$L189035:
  01feb	11 00 00 00	 DD	 17			; 00000011H
  01fef	00 00 00 00	 DD	 $L189034
$L189034:
  01ff3	e4 ff ff ff	 DD	 -28			; ffffffe4H
  01ff7	08 00 00 00	 DD	 8
  01ffb	00 00 00 00	 DD	 $L189016
  01fff	cc ff ff ff	 DD	 -52			; ffffffccH
  02003	10 00 00 00	 DD	 16			; 00000010H
  02007	00 00 00 00	 DD	 $L189017
  0200b	b4 ff ff ff	 DD	 -76			; ffffffb4H
  0200f	10 00 00 00	 DD	 16			; 00000010H
  02013	00 00 00 00	 DD	 $L189018
  02017	a4 ff ff ff	 DD	 -92			; ffffffa4H
  0201b	08 00 00 00	 DD	 8
  0201f	00 00 00 00	 DD	 $L189019
  02023	94 ff ff ff	 DD	 -108			; ffffff94H
  02027	08 00 00 00	 DD	 8
  0202b	00 00 00 00	 DD	 $L189020
  0202f	84 ff ff ff	 DD	 -124			; ffffff84H
  02033	08 00 00 00	 DD	 8
  02037	00 00 00 00	 DD	 $L189021
  0203b	74 ff ff ff	 DD	 -140			; ffffff74H
  0203f	08 00 00 00	 DD	 8
  02043	00 00 00 00	 DD	 $L189022
  02047	4c ff ff ff	 DD	 -180			; ffffff4cH
  0204b	20 00 00 00	 DD	 32			; 00000020H
  0204f	00 00 00 00	 DD	 $L189023
  02053	34 ff ff ff	 DD	 -204			; ffffff34H
  02057	0c 00 00 00	 DD	 12			; 0000000cH
  0205b	00 00 00 00	 DD	 $L189024
  0205f	20 ff ff ff	 DD	 -224			; ffffff20H
  02063	0c 00 00 00	 DD	 12			; 0000000cH
  02067	00 00 00 00	 DD	 $L189025
  0206b	10 ff ff ff	 DD	 -240			; ffffff10H
  0206f	08 00 00 00	 DD	 8
  02073	00 00 00 00	 DD	 $L189026
  02077	00 ff ff ff	 DD	 -256			; ffffff00H
  0207b	08 00 00 00	 DD	 8
  0207f	00 00 00 00	 DD	 $L189027
  02083	f0 fe ff ff	 DD	 -272			; fffffef0H
  02087	08 00 00 00	 DD	 8
  0208b	00 00 00 00	 DD	 $L189028
  0208f	e0 fe ff ff	 DD	 -288			; fffffee0H
  02093	08 00 00 00	 DD	 8
  02097	00 00 00 00	 DD	 $L189029
  0209b	b8 fe ff ff	 DD	 -328			; fffffeb8H
  0209f	20 00 00 00	 DD	 32			; 00000020H
  020a3	00 00 00 00	 DD	 $L189030
  020a7	a4 fe ff ff	 DD	 -348			; fffffea4H
  020ab	0c 00 00 00	 DD	 12			; 0000000cH
  020af	00 00 00 00	 DD	 $L189031
  020b3	90 fe ff ff	 DD	 -368			; fffffe90H
  020b7	0c 00 00 00	 DD	 12			; 0000000cH
  020bb	00 00 00 00	 DD	 $L189032
$L189032:
  020bf	62		 DB	 98			; 00000062H
  020c0	72		 DB	 114			; 00000072H
  020c1	75		 DB	 117			; 00000075H
  020c2	73		 DB	 115			; 00000073H
  020c3	68		 DB	 104			; 00000068H
  020c4	32		 DB	 50			; 00000032H
  020c5	00		 DB	 0
$L189031:
  020c6	62		 DB	 98			; 00000062H
  020c7	72		 DB	 114			; 00000072H
  020c8	75		 DB	 117			; 00000075H
  020c9	73		 DB	 115			; 00000073H
  020ca	68		 DB	 104			; 00000068H
  020cb	42		 DB	 66			; 00000042H
  020cc	4b		 DB	 75			; 0000004bH
  020cd	32		 DB	 50			; 00000032H
  020ce	00		 DB	 0
$L189030:
  020cf	70		 DB	 112			; 00000070H
  020d0	6f		 DB	 111			; 0000006fH
  020d1	69		 DB	 105			; 00000069H
  020d2	6e		 DB	 110			; 0000006eH
  020d3	74		 DB	 116			; 00000074H
  020d4	73		 DB	 115			; 00000073H
  020d5	32		 DB	 50			; 00000032H
  020d6	00		 DB	 0
$L189029:
  020d7	70		 DB	 112			; 00000070H
  020d8	6f		 DB	 111			; 0000006fH
  020d9	69		 DB	 105			; 00000069H
  020da	6e		 DB	 110			; 0000006eH
  020db	74		 DB	 116			; 00000074H
  020dc	38		 DB	 56			; 00000038H
  020dd	00		 DB	 0
$L189028:
  020de	70		 DB	 112			; 00000070H
  020df	6f		 DB	 111			; 0000006fH
  020e0	69		 DB	 105			; 00000069H
  020e1	6e		 DB	 110			; 0000006eH
  020e2	74		 DB	 116			; 00000074H
  020e3	37		 DB	 55			; 00000037H
  020e4	00		 DB	 0
$L189027:
  020e5	70		 DB	 112			; 00000070H
  020e6	6f		 DB	 111			; 0000006fH
  020e7	69		 DB	 105			; 00000069H
  020e8	6e		 DB	 110			; 0000006eH
  020e9	74		 DB	 116			; 00000074H
  020ea	36		 DB	 54			; 00000036H
  020eb	00		 DB	 0
$L189026:
  020ec	70		 DB	 112			; 00000070H
  020ed	6f		 DB	 111			; 0000006fH
  020ee	69		 DB	 105			; 00000069H
  020ef	6e		 DB	 110			; 0000006eH
  020f0	74		 DB	 116			; 00000074H
  020f1	35		 DB	 53			; 00000035H
  020f2	00		 DB	 0
$L189025:
  020f3	62		 DB	 98			; 00000062H
  020f4	72		 DB	 114			; 00000072H
  020f5	75		 DB	 117			; 00000075H
  020f6	73		 DB	 115			; 00000073H
  020f7	68		 DB	 104			; 00000068H
  020f8	00		 DB	 0
$L189024:
  020f9	62		 DB	 98			; 00000062H
  020fa	72		 DB	 114			; 00000072H
  020fb	75		 DB	 117			; 00000075H
  020fc	73		 DB	 115			; 00000073H
  020fd	68		 DB	 104			; 00000068H
  020fe	42		 DB	 66			; 00000042H
  020ff	4b		 DB	 75			; 0000004bH
  02100	00		 DB	 0
$L189023:
  02101	70		 DB	 112			; 00000070H
  02102	6f		 DB	 111			; 0000006fH
  02103	69		 DB	 105			; 00000069H
  02104	6e		 DB	 110			; 0000006eH
  02105	74		 DB	 116			; 00000074H
  02106	73		 DB	 115			; 00000073H
  02107	00		 DB	 0
$L189022:
  02108	70		 DB	 112			; 00000070H
  02109	6f		 DB	 111			; 0000006fH
  0210a	69		 DB	 105			; 00000069H
  0210b	6e		 DB	 110			; 0000006eH
  0210c	74		 DB	 116			; 00000074H
  0210d	34		 DB	 52			; 00000034H
  0210e	00		 DB	 0
$L189021:
  0210f	70		 DB	 112			; 00000070H
  02110	6f		 DB	 111			; 0000006fH
  02111	69		 DB	 105			; 00000069H
  02112	6e		 DB	 110			; 0000006eH
  02113	74		 DB	 116			; 00000074H
  02114	33		 DB	 51			; 00000033H
  02115	00		 DB	 0
$L189020:
  02116	70		 DB	 112			; 00000070H
  02117	6f		 DB	 111			; 0000006fH
  02118	69		 DB	 105			; 00000069H
  02119	6e		 DB	 110			; 0000006eH
  0211a	74		 DB	 116			; 00000074H
  0211b	32		 DB	 50			; 00000032H
  0211c	00		 DB	 0
$L189019:
  0211d	70		 DB	 112			; 00000070H
  0211e	6f		 DB	 111			; 0000006fH
  0211f	69		 DB	 105			; 00000069H
  02120	6e		 DB	 110			; 0000006eH
  02121	74		 DB	 116			; 00000074H
  02122	31		 DB	 49			; 00000031H
  02123	00		 DB	 0
$L189018:
  02124	72		 DB	 114			; 00000072H
  02125	63		 DB	 99			; 00000063H
  02126	32		 DB	 50			; 00000032H
  02127	00		 DB	 0
$L189017:
  02128	72		 DB	 114			; 00000072H
  02129	63		 DB	 99			; 00000063H
  0212a	31		 DB	 49			; 00000031H
  0212b	00		 DB	 0
$L189016:
  0212c	67		 DB	 103			; 00000067H
  0212d	72		 DB	 114			; 00000072H
  0212e	61		 DB	 97			; 00000061H
  0212f	70		 DB	 112			; 00000070H
  02130	68		 DB	 104			; 00000068H
  02131	69		 DB	 105			; 00000069H
  02132	63		 DB	 99			; 00000063H
  02133	73		 DB	 115			; 00000073H
  02134	00		 DB	 0
_TEXT	ENDS
text$x	SEGMENT
$L189009:
  0016b	8d 4d e4	 lea	 ecx, DWORD PTR _graphics$[ebp]
  0016e	e9 00 00 00 00	 jmp	 ??1Graphics@Gdiplus@@QAE@XZ ; Gdiplus::Graphics::~Graphics
$L189010:
  00173	8d 8d 34 ff ff
	ff		 lea	 ecx, DWORD PTR _brushBK$[ebp]
  00179	e9 00 00 00 00	 jmp	 ??1LinearGradientBrush@Gdiplus@@UAE@XZ
$L189011:
  0017e	8d 8d 20 ff ff
	ff		 lea	 ecx, DWORD PTR _brush$[ebp]
  00184	e9 00 00 00 00	 jmp	 ??1LinearGradientBrush@Gdiplus@@UAE@XZ
$L189012:
  00189	8d 8d a4 fe ff
	ff		 lea	 ecx, DWORD PTR _brushBK2$[ebp]
  0018f	e9 00 00 00 00	 jmp	 ??1LinearGradientBrush@Gdiplus@@UAE@XZ
$L189013:
  00194	8d 8d 90 fe ff
	ff		 lea	 ecx, DWORD PTR _brush2$[ebp]
  0019a	e9 00 00 00 00	 jmp	 ??1LinearGradientBrush@Gdiplus@@UAE@XZ
__ehhandler$?DrawBmpShade@CButtonDraw@@IAEXPAVCDC@@AAVCRect@@@Z:
  0019f	b8 00 00 00 00	 mov	 eax, OFFSET FLAT:$T189015
  001a4	e9 00 00 00 00	 jmp	 ___CxxFrameHandler
text$x	ENDS
?DrawBmpShade@CButtonDraw@@IAEXPAVCDC@@AAVCRect@@@Z ENDP ; CButtonDraw::DrawBmpShade
; Function compile flags: /Odt /RTCsu
; File d:\program files (x86)\microsoft visual studio .net 2003\vc7\atlmfc\include\atltrace.h
;	COMDAT ??0CTraceFileAndLineInfo@ATL@@QAE@PBDH@Z
_TEXT	SEGMENT
_this$ = -4						; size = 4
_pszFileName$ = 8					; size = 4
_nLineNo$ = 12						; size = 4
??0CTraceFileAndLineInfo@ATL@@QAE@PBDH@Z PROC NEAR	; ATL::CTraceFileAndLineInfo::CTraceFileAndLineInfo, COMDAT
; _this$ = ecx

; 158  : 	{}

  00000	55		 push	 ebp
  00001	8b ec		 mov	 ebp, esp
  00003	51		 push	 ecx
  00004	c7 45 fc cc cc
	cc cc		 mov	 DWORD PTR [ebp-4], -858993460 ; ccccccccH
  0000b	89 4d fc	 mov	 DWORD PTR _this$[ebp], ecx
  0000e	8b 45 fc	 mov	 eax, DWORD PTR _this$[ebp]
  00011	8b 4d 08	 mov	 ecx, DWORD PTR _pszFileName$[ebp]
  00014	89 08		 mov	 DWORD PTR [eax], ecx
  00016	8b 55 fc	 mov	 edx, DWORD PTR _this$[ebp]
  00019	8b 45 0c	 mov	 eax, DWORD PTR _nLineNo$[ebp]
  0001c	89 42 04	 mov	 DWORD PTR [edx+4], eax
  0001f	8b 45 fc	 mov	 eax, DWORD PTR _this$[ebp]
  00022	8b e5		 mov	 esp, ebp
  00024	5d		 pop	 ebp
  00025	c2 08 00	 ret	 8
??0CTraceFileAndLineInfo@ATL@@QAE@PBDH@Z ENDP		; ATL::CTraceFileAndLineInfo::CTraceFileAndLineInfo
_TEXT	ENDS
PUBLIC	??BCTraceCategory@ATL@@QBEKXZ			; ATL::CTraceCategory::operator unsigned long
PUBLIC	?TraceV@CTrace@ATL@@QBAXPBDHKI0PAD@Z		; ATL::CTrace::TraceV
EXTRN	?s_trace@CTrace@ATL@@2V12@A:QWORD		; ATL::CTrace::s_trace
EXTRN	?atlTraceGeneral@ATL@@3VCTraceCategory@1@A:DWORD ; ATL::atlTraceGeneral
; Function compile flags: /Odt /RTCsu
;	COMDAT ??RCTraceFileAndLineInfo@ATL@@QBAXPBDZZ
_TEXT	SEGMENT
_ptr$ = -4						; size = 4
_this$ = 8						; size = 4
_pszFmt$ = 12						; size = 4
??RCTraceFileAndLineInfo@ATL@@QBAXPBDZZ PROC NEAR	; ATL::CTraceFileAndLineInfo::operator(), COMDAT

; 173  : 	{

  00000	55		 push	 ebp
  00001	8b ec		 mov	 ebp, esp
  00003	51		 push	 ecx
  00004	c7 45 fc cc cc
	cc cc		 mov	 DWORD PTR [ebp-4], -858993460 ; ccccccccH

; 174  : 		va_list ptr; va_start(ptr, pszFmt);

  0000b	8d 45 10	 lea	 eax, DWORD PTR _pszFmt$[ebp+4]
  0000e	89 45 fc	 mov	 DWORD PTR _ptr$[ebp], eax

; 175  : 		ATL::CTrace::s_trace.TraceV(m_pszFileName, m_nLineNo, atlTraceGeneral, 0, pszFmt, ptr);

  00011	8b 4d fc	 mov	 ecx, DWORD PTR _ptr$[ebp]
  00014	51		 push	 ecx
  00015	8b 55 0c	 mov	 edx, DWORD PTR _pszFmt$[ebp]
  00018	52		 push	 edx
  00019	6a 00		 push	 0
  0001b	b9 00 00 00 00	 mov	 ecx, OFFSET FLAT:?atlTraceGeneral@ATL@@3VCTraceCategory@1@A ; ATL::atlTraceGeneral
  00020	e8 00 00 00 00	 call	 ??BCTraceCategory@ATL@@QBEKXZ ; ATL::CTraceCategory::operator unsigned long
  00025	50		 push	 eax
  00026	8b 45 08	 mov	 eax, DWORD PTR _this$[ebp]
  00029	8b 48 04	 mov	 ecx, DWORD PTR [eax+4]
  0002c	51		 push	 ecx
  0002d	8b 55 08	 mov	 edx, DWORD PTR _this$[ebp]
  00030	8b 02		 mov	 eax, DWORD PTR [edx]
  00032	50		 push	 eax
  00033	68 00 00 00 00	 push	 OFFSET FLAT:?s_trace@CTrace@ATL@@2V12@A
  00038	e8 00 00 00 00	 call	 ?TraceV@CTrace@ATL@@QBAXPBDHKI0PAD@Z ; ATL::CTrace::TraceV
  0003d	83 c4 1c	 add	 esp, 28			; 0000001cH

; 176  : 		va_end(ptr);

  00040	c7 45 fc 00 00
	00 00		 mov	 DWORD PTR _ptr$[ebp], 0

; 177  : 	}

  00047	83 c4 04	 add	 esp, 4
  0004a	3b ec		 cmp	 ebp, esp
  0004c	e8 00 00 00 00	 call	 __RTC_CheckEsp
  00051	8b e5		 mov	 esp, ebp
  00053	5d		 pop	 ebp
  00054	c3		 ret	 0
??RCTraceFileAndLineInfo@ATL@@QBAXPBDZZ ENDP		; ATL::CTraceFileAndLineInfo::operator()
_TEXT	ENDS
EXTRN	_AtlTraceVA:NEAR
; Function compile flags: /Odt /RTCsu
;	COMDAT ?TraceV@CTrace@ATL@@QBAXPBDHKI0PAD@Z
_TEXT	SEGMENT
_this$ = 8						; size = 4
_pszFileName$ = 12					; size = 4
_nLine$ = 16						; size = 4
_dwCategory$ = 20					; size = 4
_nLevel$ = 24						; size = 4
_pszFmt$ = 28						; size = 4
_args$ = 32						; size = 4
?TraceV@CTrace@ATL@@QBAXPBDHKI0PAD@Z PROC NEAR		; ATL::CTrace::TraceV, COMDAT

; 121  : 	{

  00000	55		 push	 ebp
  00001	8b ec		 mov	 ebp, esp

; 122  : 		AtlTraceVA(m_dwModule, pszFileName, nLine, dwCategory, nLevel, pszFmt, args);

  00003	8b 45 20	 mov	 eax, DWORD PTR _args$[ebp]
  00006	50		 push	 eax
  00007	8b 4d 1c	 mov	 ecx, DWORD PTR _pszFmt$[ebp]
  0000a	51		 push	 ecx
  0000b	8b 55 18	 mov	 edx, DWORD PTR _nLevel$[ebp]
  0000e	52		 push	 edx
  0000f	8b 45 14	 mov	 eax, DWORD PTR _dwCategory$[ebp]
  00012	50		 push	 eax
  00013	8b 4d 10	 mov	 ecx, DWORD PTR _nLine$[ebp]
  00016	51		 push	 ecx
  00017	8b 55 0c	 mov	 edx, DWORD PTR _pszFileName$[ebp]
  0001a	52		 push	 edx
  0001b	8b 45 08	 mov	 eax, DWORD PTR _this$[ebp]
  0001e	8b 48 04	 mov	 ecx, DWORD PTR [eax+4]
  00021	51		 push	 ecx
  00022	e8 00 00 00 00	 call	 _AtlTraceVA
  00027	83 c4 1c	 add	 esp, 28			; 0000001cH

; 123  : 	}

  0002a	3b ec		 cmp	 ebp, esp
  0002c	e8 00 00 00 00	 call	 __RTC_CheckEsp
  00031	5d		 pop	 ebp
  00032	c3		 ret	 0
?TraceV@CTrace@ATL@@QBAXPBDHKI0PAD@Z ENDP		; ATL::CTrace::TraceV
_TEXT	ENDS
PUBLIC	??0CGdiPlusBitmap@CSkinButton@@QAE@XZ		; CSkinButton::CGdiPlusBitmap::CGdiPlusBitmap
PUBLIC	?Load@CGdiPlusBitmap@CSkinButton@@QAE_NPB_W@Z	; CSkinButton::CGdiPlusBitmap::Load
PUBLIC	?SetPngSkin@CSkinButton@@QAEHV?$CStringT@DV?$StrTraitMFC_DLL@DV?$ChTraitsCRT@D@ATL@@@@@ATL@@@Z ; CSkinButton::SetPngSkin
EXTRN	__imp__MultiByteToWideChar@24:NEAR
EXTRN	??2@YAPAXIPBDH@Z:NEAR				; operator new
EXTRN	??3@YAXPAXPBDH@Z:NEAR				; operator delete
xdata$x	SEGMENT
$T189060 DD	0ffffffffH
	DD	FLAT:$L189051
	DD	00H
	DD	FLAT:$L189052
$T189054 DD	019930520H
	DD	02H
	DD	FLAT:$T189060
	DD	2 DUP(00H)
	DD	2 DUP(00H)
; Function compile flags: /Odt /RTCsu
; File d:\boxgit\playbox\playbox\dev\prj\playbox\src\layoutmgr\changecolor\skinbotton.cpp
xdata$x	ENDS
_TEXT	SEGMENT
tv87 = -580						; size = 4
tv74 = -576						; size = 4
$T189050 = -572						; size = 4
$T189047 = -568						; size = 4
