; Listing generated by Microsoft (R) Optimizing Compiler Version 13.10.3077 

	TITLE	.\src\util\Sound.cpp
	.386P
include listing.inc
if @Version gt 510
.model FLAT
else
_TEXT	SEGMENT PARA USE32 PUBLIC 'CODE'
_TEXT	ENDS
_DATA	SEGMENT DWORD USE32 PUBLIC 'DATA'
_DATA	ENDS
CONST	SEGMENT DWORD USE32 PUBLIC 'CONST'
CONST	ENDS
_BSS	SEGMENT DWORD USE32 PUBLIC 'BSS'
_BSS	ENDS
$$SYMBOLS	SEGMENT BYTE USE32 'DEBSYM'
$$SYMBOLS	ENDS
_TLS	SEGMENT DWORD USE32 PUBLIC 'TLS'
_TLS	ENDS
;	COMDAT ??_C@_0EN@IBFBLEEG@D?3?2Program?5Files?5?$CIx86?$CJ?2Microsoft@
CONST	SEGMENT DWORD USE32 PUBLIC 'CONST'
CONST	ENDS
rdata$r	SEGMENT DWORD USE32 PUBLIC 'CONST'
rdata$r	ENDS
xdata$x	SEGMENT DWORD USE32 PUBLIC 'CONST'
xdata$x	ENDS
text$AFX_COL1	SEGMENT PARA USE32 PUBLIC ''
text$AFX_COL1	ENDS
text$yc	SEGMENT PARA USE32 PUBLIC 'CODE'
text$yc	ENDS
CRT$XCA	SEGMENT DWORD USE32 PUBLIC 'DATA'
CRT$XCA	ENDS
CRT$XCU	SEGMENT DWORD USE32 PUBLIC 'DATA'
CRT$XCU	ENDS
CRT$XCL	SEGMENT DWORD USE32 PUBLIC 'DATA'
CRT$XCL	ENDS
CRT$XCC	SEGMENT DWORD USE32 PUBLIC 'DATA'
CRT$XCC	ENDS
CRT$XCZ	SEGMENT DWORD USE32 PUBLIC 'DATA'
CRT$XCZ	ENDS
text$yd	SEGMENT PARA USE32 PUBLIC 'CODE'
text$yd	ENDS
ATL$__m	SEGMENT DWORD USE32 PUBLIC ''
ATL$__m	ENDS
ATL$__z	SEGMENT DWORD USE32 PUBLIC ''
ATL$__z	ENDS
ATL$__a	SEGMENT DWORD USE32 PUBLIC ''
ATL$__a	ENDS
;	COMDAT ??_GCSound@@UAEPAXI@Z
_TEXT	SEGMENT PARA USE32 PUBLIC 'CODE'
_TEXT	ENDS
;	COMDAT ??B?$CComPtrBase@UITypeInfo2@@@ATL@@QBEPAUITypeInfo2@@XZ
_TEXT	SEGMENT PARA USE32 PUBLIC 'CODE'
_TEXT	ENDS
;	COMDAT ?equal@?$istreambuf_iterator@DU?$char_traits@D@std@@@std@@QBE_NABV12@@Z
_TEXT	SEGMENT PARA USE32 PUBLIC 'CODE'
_TEXT	ENDS
;	COMDAT ?equal@?$istreambuf_iterator@_WU?$char_traits@_W@std@@@std@@QBE_NABV12@@Z
_TEXT	SEGMENT PARA USE32 PUBLIC 'CODE'
_TEXT	ENDS
;	COMDAT ?Unlock@?$CComCritSecLock@VCComCriticalSection@ATL@@@ATL@@QAEXXZ
_TEXT	SEGMENT PARA USE32 PUBLIC 'CODE'
_TEXT	ENDS
;	COMDAT ??$_Maklocstr@D@std@@YAPADPBDPADABU_Cvtvec@@@Z
_TEXT	SEGMENT PARA USE32 PUBLIC 'CODE'
_TEXT	ENDS
;	COMDAT ??_R3CSound@@8
rdata$r	SEGMENT DWORD USE32 PUBLIC 'CONST'
rdata$r	ENDS
;	COMDAT ??_R3?$numpunct@_W@std@@8
rdata$r	SEGMENT DWORD USE32 PUBLIC 'CONST'
rdata$r	ENDS
;	COMDAT ??_R3?$numpunct@D@std@@8
rdata$r	SEGMENT DWORD USE32 PUBLIC 'CONST'
rdata$r	ENDS
;	COMDAT ??_R2CSound@@8
rdata$r	SEGMENT DWORD USE32 PUBLIC 'CONST'
rdata$r	ENDS
;	COMDAT ??_R2?$numpunct@_W@std@@8
rdata$r	SEGMENT DWORD USE32 PUBLIC 'CONST'
rdata$r	ENDS
;	COMDAT ??_R2?$numpunct@D@std@@8
rdata$r	SEGMENT DWORD USE32 PUBLIC 'CONST'
rdata$r	ENDS
;	COMDAT ??_R1A@?0A@A@CSound@@8
rdata$r	SEGMENT DWORD USE32 PUBLIC 'CONST'
rdata$r	ENDS
;	COMDAT ??_R1A@?0A@A@?$numpunct@_W@std@@8
rdata$r	SEGMENT DWORD USE32 PUBLIC 'CONST'
rdata$r	ENDS
;	COMDAT ??_R1A@?0A@A@facet@locale@std@@8
rdata$r	SEGMENT DWORD USE32 PUBLIC 'CONST'
rdata$r	ENDS
;	COMDAT ??_R0?AVfacet@locale@std@@@8
_DATA	SEGMENT DWORD USE32 PUBLIC 'DATA'
_DATA	ENDS
;	COMDAT ??_R1A@?0A@A@?$numpunct@D@std@@8
rdata$r	SEGMENT DWORD USE32 PUBLIC 'CONST'
rdata$r	ENDS
;	COMDAT ??_R0?AVCSound@@@8
_DATA	SEGMENT DWORD USE32 PUBLIC 'DATA'
_DATA	ENDS
;	COMDAT ??_R0?AV?$numpunct@_W@std@@@8
_DATA	SEGMENT DWORD USE32 PUBLIC 'DATA'
_DATA	ENDS
;	COMDAT ??_R0?AV?$numpunct@D@std@@@8
_DATA	SEGMENT DWORD USE32 PUBLIC 'DATA'
_DATA	ENDS
;	COMDAT ??_R4CSound@@6B@
rdata$r	SEGMENT DWORD USE32 PUBLIC 'CONST'
rdata$r	ENDS
;	COMDAT ??0?$allocator@_W@std@@QAE@XZ
_TEXT	SEGMENT PARA USE32 PUBLIC 'CODE'
_TEXT	ENDS
;	COMDAT ??0?$allocator@D@std@@QAE@ABV01@@Z
_TEXT	SEGMENT PARA USE32 PUBLIC 'CODE'
_TEXT	ENDS
;	COMDAT ??0?$allocator@D@std@@QAE@XZ
_TEXT	SEGMENT PARA USE32 PUBLIC 'CODE'
_TEXT	ENDS
;	COMDAT ?deallocate@?$allocator@D@std@@QAEXPADI@Z
_TEXT	SEGMENT PARA USE32 PUBLIC 'CODE'
_TEXT	ENDS
;	COMDAT ?max_size@?$allocator@D@std@@QBEIXZ
_TEXT	SEGMENT PARA USE32 PUBLIC 'CODE'
_TEXT	ENDS
;	COMDAT ?allocate@?$allocator@D@std@@QAEPADI@Z
_TEXT	SEGMENT PARA USE32 PUBLIC 'CODE'
_TEXT	ENDS
;	COMDAT ??$_Allocate@D@std@@YAPADIPAD@Z
_TEXT	SEGMENT PARA USE32 PUBLIC 'CODE'
_TEXT	ENDS
;	COMDAT ??_G?$numpunct@_W@std@@MAEPAXI@Z
_TEXT	SEGMENT PARA USE32 PUBLIC 'CODE'
_TEXT	ENDS
;	COMDAT ??_R4?$numpunct@_W@std@@6B@
rdata$r	SEGMENT DWORD USE32 PUBLIC 'CONST'
rdata$r	ENDS
;	COMDAT ??_G?$numpunct@D@std@@MAEPAXI@Z
_TEXT	SEGMENT PARA USE32 PUBLIC 'CODE'
_TEXT	ENDS
;	COMDAT ??_R4?$numpunct@D@std@@6B@
rdata$r	SEGMENT DWORD USE32 PUBLIC 'CONST'
rdata$r	ENDS
;	COMDAT ??_C@_0EN@CBMLGOH@D?3?2Program?5Files?5?$CIx86?$CJ?2Microsoft@
CONST	SEGMENT DWORD USE32 PUBLIC 'CONST'
CONST	ENDS
;	COMDAT ?_Psave@?$_Facetptr@V?$numpunct@_W@std@@@std@@2PBVfacet@locale@2@B
_DATA	SEGMENT DWORD USE32 PUBLIC 'DATA'
_DATA	ENDS
;	COMDAT ?_Psave@?$_Facetptr@V?$numpunct@D@std@@@std@@2PBVfacet@locale@2@B
_DATA	SEGMENT DWORD USE32 PUBLIC 'DATA'
_DATA	ENDS
;	COMDAT ?Unlock@CComCriticalSection@ATL@@QAEJXZ
_TEXT	SEGMENT PARA USE32 PUBLIC 'CODE'
_TEXT	ENDS
;	COMDAT ??_C@_0FG@LDNDNCJM@D?3?2Program?5Files?5?$CIx86?$CJ?2Microsoft@
CONST	SEGMENT DWORD USE32 PUBLIC 'CONST'
CONST	ENDS
;	COMDAT ??_C@_09HIEJFN@m_bLocked?$AA@
CONST	SEGMENT DWORD USE32 PUBLIC 'CONST'
CONST	ENDS
;	COMDAT ?_Psave@?$_Facetptr@V?$ctype@_W@std@@@std@@2PBVfacet@locale@2@B
_DATA	SEGMENT DWORD USE32 PUBLIC 'DATA'
_DATA	ENDS
;	COMDAT ?_Psave@?$_Facetptr@V?$ctype@D@std@@@std@@2PBVfacet@locale@2@B
_DATA	SEGMENT DWORD USE32 PUBLIC 'DATA'
_DATA	ENDS
;	COMDAT ??$_Maklocchr@_W@std@@YA_WDPA_WABU_Cvtvec@@@Z
_TEXT	SEGMENT PARA USE32 PUBLIC 'CODE'
_TEXT	ENDS
;	COMDAT ??$_DebugHeapDelete@X@std@@YAXPAX@Z
_TEXT	SEGMENT PARA USE32 PUBLIC 'CODE'
_TEXT	ENDS
;	COMDAT ??$_Maklocstr@_W@std@@YAPA_WPBDPA_WABU_Cvtvec@@@Z
_TEXT	SEGMENT PARA USE32 PUBLIC 'CODE'
_TEXT	ENDS
;	COMDAT ??$_Maklocchr@D@std@@YADDPADABU_Cvtvec@@@Z
_TEXT	SEGMENT PARA USE32 PUBLIC 'CODE'
_TEXT	ENDS
;	COMDAT ??_C@_04LOAJBDKD@true?$AA@
CONST	SEGMENT DWORD USE32 PUBLIC 'CONST'
CONST	ENDS
;	COMDAT ??_C@_05LAPONLG@false?$AA@
CONST	SEGMENT DWORD USE32 PUBLIC 'CONST'
CONST	ENDS
;	COMDAT _wmemcpy
_TEXT	SEGMENT PARA USE32 PUBLIC 'CODE'
_TEXT	ENDS
;	COMDAT ?max_size@?$allocator@_W@std@@QBEIXZ
_TEXT	SEGMENT PARA USE32 PUBLIC 'CODE'
_TEXT	ENDS
;	COMDAT ?allocate@?$allocator@_W@std@@QAEPA_WI@Z
_TEXT	SEGMENT PARA USE32 PUBLIC 'CODE'
_TEXT	ENDS
;	COMDAT ??$_Allocate@_W@std@@YAPA_WIPA_W@Z
_TEXT	SEGMENT PARA USE32 PUBLIC 'CODE'
_TEXT	ENDS
;	COMDAT ??_C@_01GFHCPBMG@C?$AA@
CONST	SEGMENT DWORD USE32 PUBLIC 'CONST'
CONST	ENDS
;	COMDAT ?_Peek@?$istreambuf_iterator@_WU?$char_traits@_W@std@@@std@@AAE_WXZ
_TEXT	SEGMENT PARA USE32 PUBLIC 'CODE'
_TEXT	ENDS
;	COMDAT ?_Peek@?$istreambuf_iterator@DU?$char_traits@D@std@@@std@@AAEDXZ
_TEXT	SEGMENT PARA USE32 PUBLIC 'CODE'
_TEXT	ENDS
;	COMDAT ??$use_facet@V?$ctype@_W@std@@@std@@YAABV?$ctype@_W@0@ABVlocale@0@@Z
_TEXT	SEGMENT PARA USE32 PUBLIC 'CODE'
_TEXT	ENDS
;	COMDAT ??_S?$ctype@_W@std@@6B@
CONST	SEGMENT DWORD USE32 PUBLIC 'CONST'
CONST	ENDS
;	COMDAT ??_R4?$ctype@_W@std@@6B@
rdata$r	SEGMENT DWORD USE32 PUBLIC 'CONST'
rdata$r	ENDS
;	COMDAT ??_R0?AV?$ctype@_W@std@@@8
_DATA	SEGMENT DWORD USE32 PUBLIC 'DATA'
_DATA	ENDS
;	COMDAT ??_R3?$ctype@_W@std@@8
rdata$r	SEGMENT DWORD USE32 PUBLIC 'CONST'
rdata$r	ENDS
;	COMDAT ??_R2?$ctype@_W@std@@8
rdata$r	SEGMENT DWORD USE32 PUBLIC 'CONST'
rdata$r	ENDS
;	COMDAT ??_R1A@?0A@A@?$ctype@_W@std@@8
rdata$r	SEGMENT DWORD USE32 PUBLIC 'CONST'
rdata$r	ENDS
;	COMDAT ??_R1A@?0A@A@ctype_base@std@@8
rdata$r	SEGMENT DWORD USE32 PUBLIC 'CONST'
rdata$r	ENDS
;	COMDAT ??_R0?AUctype_base@std@@@8
_DATA	SEGMENT DWORD USE32 PUBLIC 'DATA'
_DATA	ENDS
;	COMDAT ??_G?$ctype@_W@std@@MAEPAXI@Z
_TEXT	SEGMENT PARA USE32 PUBLIC 'CODE'
_TEXT	ENDS
;	COMDAT ??_C@_08EPJLHIJG@bad?5cast?$AA@
CONST	SEGMENT DWORD USE32 PUBLIC 'CONST'
CONST	ENDS
;	COMDAT __TI2?AVbad_cast@@
xdata$x	SEGMENT DWORD USE32 PUBLIC 'CONST'
xdata$x	ENDS
;	COMDAT __CTA2?AVbad_cast@@
xdata$x	SEGMENT DWORD USE32 PUBLIC 'CONST'
xdata$x	ENDS
;	COMDAT __CT??_R0?AVbad_cast@@@8??0bad_cast@@QAE@ABV0@@Z12
xdata$x	SEGMENT DWORD USE32 PUBLIC 'CONST'
xdata$x	ENDS
;	COMDAT ??_R0?AVbad_cast@@@8
_DATA	SEGMENT DWORD USE32 PUBLIC 'DATA'
_DATA	ENDS
;	COMDAT __CT??_R0?AVexception@@@8??0exception@@QAE@ABV0@@Z12
xdata$x	SEGMENT DWORD USE32 PUBLIC 'CONST'
xdata$x	ENDS
;	COMDAT ??_R0?AVexception@@@8
_DATA	SEGMENT DWORD USE32 PUBLIC 'DATA'
_DATA	ENDS
;	COMDAT ??$_DebugHeapDelete@Vfacet@locale@std@@@std@@YAXPAVfacet@locale@0@@Z
_TEXT	SEGMENT PARA USE32 PUBLIC 'CODE'
_TEXT	ENDS
;	COMDAT ??$use_facet@V?$ctype@D@std@@@std@@YAABV?$ctype@D@0@ABVlocale@0@@Z
_TEXT	SEGMENT PARA USE32 PUBLIC 'CODE'
_TEXT	ENDS
;	COMDAT ??_S?$ctype@D@std@@6B@
CONST	SEGMENT DWORD USE32 PUBLIC 'CONST'
CONST	ENDS
;	COMDAT ??_R4?$ctype@D@std@@6B@
rdata$r	SEGMENT DWORD USE32 PUBLIC 'CONST'
rdata$r	ENDS
;	COMDAT ??_R0?AV?$ctype@D@std@@@8
_DATA	SEGMENT DWORD USE32 PUBLIC 'DATA'
_DATA	ENDS
;	COMDAT ??_R3?$ctype@D@std@@8
rdata$r	SEGMENT DWORD USE32 PUBLIC 'CONST'
rdata$r	ENDS
;	COMDAT ??_R2?$ctype@D@std@@8
rdata$r	SEGMENT DWORD USE32 PUBLIC 'CONST'
rdata$r	ENDS
;	COMDAT ??_R1A@?0A@A@?$ctype@D@std@@8
rdata$r	SEGMENT DWORD USE32 PUBLIC 'CONST'
rdata$r	ENDS
;	COMDAT ??_G?$ctype@D@std@@MAEPAXI@Z
_TEXT	SEGMENT PARA USE32 PUBLIC 'CODE'
_TEXT	ENDS
;	COMDAT ??_S?$numpunct@_W@std@@6B@
CONST	SEGMENT DWORD USE32 PUBLIC 'CONST'
CONST	ENDS
;	COMDAT ??_S?$numpunct@D@std@@6B@
CONST	SEGMENT DWORD USE32 PUBLIC 'CONST'
CONST	ENDS
;	COMDAT _wmemmove
_TEXT	SEGMENT PARA USE32 PUBLIC 'CODE'
_TEXT	ENDS
;	COMDAT ?deallocate@?$allocator@_W@std@@QAEXPA_WI@Z
_TEXT	SEGMENT PARA USE32 PUBLIC 'CODE'
_TEXT	ENDS
;	COMDAT ??0?$allocator@_W@std@@QAE@ABV01@@Z
_TEXT	SEGMENT PARA USE32 PUBLIC 'CODE'
_TEXT	ENDS
;	COMDAT ??_7CSound@@6B@
CONST	SEGMENT DWORD USE32 PUBLIC 'CONST'
CONST	ENDS
sxdata	SEGMENT DWORD USE32 'SXDATA'
sxdata	ENDS
FLAT	GROUP _DATA, CONST, _BSS
	ASSUME	CS: FLAT, DS: FLAT, SS: FLAT
endif

INCLUDELIB MSVCRTD
INCLUDELIB OLDNAMES

PUBLIC	?m_self@CSound@@2PAV1@A				; CSound::m_self
_BSS	SEGMENT
?m_self@CSound@@2PAV1@A DD 01H DUP (?)			; CSound::m_self
_BSS	ENDS
_DATA	SEGMENT
_THIS_FILE DB	'.\src\util\Sound.cpp', 00H
_DATA	ENDS
PUBLIC	??0CSound@@QAE@XZ				; CSound::CSound
PUBLIC	?GetInstance@CSound@@SAPAV1@XZ			; CSound::GetInstance
EXTRN	??2@YAPAXIPBDH@Z:NEAR				; operator new
EXTRN	??3@YAXPAXPBDH@Z:NEAR				; operator delete
EXTRN	__RTC_InitBase:NEAR
EXTRN	__RTC_Shutdown:NEAR
EXTRN	__except_list:DWORD
EXTRN	__RTC_CheckEsp:NEAR
EXTRN	___CxxFrameHandler:NEAR
;	COMDAT rtc$IMZ
; File d:\boxgit\playbox\playbox\dev\prj\playbox\src\util\sound.cpp
rtc$IMZ	SEGMENT
__RTC_InitBase.rtc$IMZ DD FLAT:__RTC_InitBase
rtc$IMZ	ENDS
;	COMDAT rtc$TMZ
rtc$TMZ	SEGMENT
__RTC_Shutdown.rtc$TMZ DD FLAT:__RTC_Shutdown
rtc$TMZ	ENDS
xdata$x	SEGMENT
$T190311 DD	0ffffffffH
	DD	FLAT:$L190303
$T190307 DD	019930520H
	DD	01H
	DD	FLAT:$T190311
	DD	2 DUP(00H)
	DD	2 DUP(00H)
; Function compile flags: /Odt /RTCsu
xdata$x	ENDS
_TEXT	SEGMENT
tv76 = -24						; size = 4
$T190294 = -20						; size = 4
$T190293 = -16						; size = 4
__$EHRec$ = -12						; size = 12
?GetInstance@CSound@@SAPAV1@XZ PROC NEAR		; CSound::GetInstance

; 14   : {

  00000	55		 push	 ebp
  00001	8b ec		 mov	 ebp, esp
  00003	6a ff		 push	 -1
  00005	68 00 00 00 00	 push	 __ehhandler$?GetInstance@CSound@@SAPAV1@XZ
  0000a	64 a1 00 00 00
	00		 mov	 eax, DWORD PTR fs:__except_list
  00010	50		 push	 eax
  00011	64 89 25 00 00
	00 00		 mov	 DWORD PTR fs:__except_list, esp
  00018	83 ec 0c	 sub	 esp, 12			; 0000000cH
  0001b	c7 45 e8 cc cc
	cc cc		 mov	 DWORD PTR [ebp-24], -858993460 ; ccccccccH
  00022	c7 45 ec cc cc
	cc cc		 mov	 DWORD PTR [ebp-20], -858993460 ; ccccccccH
  00029	c7 45 f0 cc cc
	cc cc		 mov	 DWORD PTR [ebp-16], -858993460 ; ccccccccH

; 15   : 	if( m_self == NULL )

  00030	83 3d 00 00 00
	00 00		 cmp	 DWORD PTR ?m_self@CSound@@2PAV1@A, 0 ; CSound::m_self
  00037	75 4e		 jne	 SHORT $L189745

; 16   : 	{
; 17   : 		m_self = new CSound();

  00039	6a 11		 push	 17			; 00000011H
  0003b	68 00 00 00 00	 push	 OFFSET FLAT:_THIS_FILE
  00040	68 9c 00 00 00	 push	 156			; 0000009cH
  00045	e8 00 00 00 00	 call	 ??2@YAPAXIPBDH@Z	; operator new
  0004a	83 c4 0c	 add	 esp, 12			; 0000000cH
  0004d	89 45 ec	 mov	 DWORD PTR $T190294[ebp], eax
  00050	c7 45 fc 00 00
	00 00		 mov	 DWORD PTR __$EHRec$[ebp+8], 0
  00057	83 7d ec 00	 cmp	 DWORD PTR $T190294[ebp], 0
  0005b	74 0d		 je	 SHORT $L190295
  0005d	8b 4d ec	 mov	 ecx, DWORD PTR $T190294[ebp]
  00060	e8 00 00 00 00	 call	 ??0CSound@@QAE@XZ	; CSound::CSound
  00065	89 45 e8	 mov	 DWORD PTR tv76[ebp], eax
  00068	eb 07		 jmp	 SHORT $L190296
$L190295:
  0006a	c7 45 e8 00 00
	00 00		 mov	 DWORD PTR tv76[ebp], 0
$L190296:
  00071	8b 45 e8	 mov	 eax, DWORD PTR tv76[ebp]
  00074	89 45 f0	 mov	 DWORD PTR $T190293[ebp], eax
  00077	c7 45 fc ff ff
	ff ff		 mov	 DWORD PTR __$EHRec$[ebp+8], -1
  0007e	8b 4d f0	 mov	 ecx, DWORD PTR $T190293[ebp]
  00081	89 0d 00 00 00
	00		 mov	 DWORD PTR ?m_self@CSound@@2PAV1@A, ecx ; CSound::m_self
$L189745:

; 18   : 	}
; 19   : 	return m_self;

  00087	a1 00 00 00 00	 mov	 eax, DWORD PTR ?m_self@CSound@@2PAV1@A ; CSound::m_self

; 20   : }

  0008c	8b 4d f4	 mov	 ecx, DWORD PTR __$EHRec$[ebp]
  0008f	64 89 0d 00 00
	00 00		 mov	 DWORD PTR fs:__except_list, ecx
  00096	83 c4 18	 add	 esp, 24			; 00000018H
  00099	3b ec		 cmp	 ebp, esp
  0009b	e8 00 00 00 00	 call	 __RTC_CheckEsp
  000a0	8b e5		 mov	 esp, ebp
  000a2	5d		 pop	 ebp
  000a3	c3		 ret	 0
_TEXT	ENDS
text$x	SEGMENT
$L190303:
  00000	6a 11		 push	 17			; 00000011H
  00002	68 00 00 00 00	 push	 OFFSET FLAT:_THIS_FILE
  00007	8b 45 ec	 mov	 eax, DWORD PTR $T190294[ebp]
  0000a	50		 push	 eax
  0000b	e8 00 00 00 00	 call	 ??3@YAXPAXPBDH@Z	; operator delete
  00010	83 c4 0c	 add	 esp, 12			; 0000000cH
  00013	c3		 ret	 0
__ehhandler$?GetInstance@CSound@@SAPAV1@XZ:
  00014	b8 00 00 00 00	 mov	 eax, OFFSET FLAT:$T190307
  00019	e9 00 00 00 00	 jmp	 ___CxxFrameHandler
text$x	ENDS
?GetInstance@CSound@@SAPAV1@XZ ENDP			; CSound::GetInstance
PUBLIC	?DelInstance@CSound@@SAXXZ			; CSound::DelInstance
; Function compile flags: /Odt /RTCsu
_TEXT	SEGMENT
tv71 = -12						; size = 4
$T190315 = -8						; size = 4
$T190314 = -4						; size = 4
?DelInstance@CSound@@SAXXZ PROC NEAR			; CSound::DelInstance

; 23   : {

  000b0	55		 push	 ebp
  000b1	8b ec		 mov	 ebp, esp
  000b3	83 ec 0c	 sub	 esp, 12			; 0000000cH
  000b6	56		 push	 esi
  000b7	c7 45 f4 cc cc
	cc cc		 mov	 DWORD PTR [ebp-12], -858993460 ; ccccccccH
  000be	c7 45 f8 cc cc
	cc cc		 mov	 DWORD PTR [ebp-8], -858993460 ; ccccccccH
  000c5	c7 45 fc cc cc
	cc cc		 mov	 DWORD PTR [ebp-4], -858993460 ; ccccccccH

; 24   : 	if( m_self != NULL )

  000cc	83 3d 00 00 00
	00 00		 cmp	 DWORD PTR ?m_self@CSound@@2PAV1@A, 0 ; CSound::m_self
  000d3	74 35		 je	 SHORT $L189754

; 25   : 	{
; 26   : 		delete m_self;

  000d5	a1 00 00 00 00	 mov	 eax, DWORD PTR ?m_self@CSound@@2PAV1@A ; CSound::m_self
  000da	89 45 f8	 mov	 DWORD PTR $T190315[ebp], eax
  000dd	8b 4d f8	 mov	 ecx, DWORD PTR $T190315[ebp]
  000e0	89 4d fc	 mov	 DWORD PTR $T190314[ebp], ecx
  000e3	83 7d fc 00	 cmp	 DWORD PTR $T190314[ebp], 0
  000e7	74 1a		 je	 SHORT $L190316
  000e9	8b f4		 mov	 esi, esp
  000eb	6a 01		 push	 1
  000ed	8b 55 fc	 mov	 edx, DWORD PTR $T190314[ebp]
  000f0	8b 02		 mov	 eax, DWORD PTR [edx]
  000f2	8b 4d fc	 mov	 ecx, DWORD PTR $T190314[ebp]
  000f5	ff 10		 call	 DWORD PTR [eax]
  000f7	3b f4		 cmp	 esi, esp
  000f9	e8 00 00 00 00	 call	 __RTC_CheckEsp
  000fe	89 45 f4	 mov	 DWORD PTR tv71[ebp], eax
  00101	eb 07		 jmp	 SHORT $L189754
$L190316:
  00103	c7 45 f4 00 00
	00 00		 mov	 DWORD PTR tv71[ebp], 0
$L189754:

; 27   : 	}
; 28   : 	m_self = NULL;

  0010a	c7 05 00 00 00
	00 00 00 00 00	 mov	 DWORD PTR ?m_self@CSound@@2PAV1@A, 0 ; CSound::m_self

; 29   : }

  00114	5e		 pop	 esi
  00115	83 c4 0c	 add	 esp, 12			; 0000000cH
  00118	3b ec		 cmp	 ebp, esp
  0011a	e8 00 00 00 00	 call	 __RTC_CheckEsp
  0011f	8b e5		 mov	 esp, ebp
  00121	5d		 pop	 ebp
  00122	c3		 ret	 0
?DelInstance@CSound@@SAXXZ ENDP				; CSound::DelInstance
_TEXT	ENDS
PUBLIC	??_7CSound@@6B@					; CSound::`vftable'
PUBLIC	??_GCSound@@UAEPAXI@Z				; CSound::`scalar deleting destructor'
PUBLIC	??_R4CSound@@6B@				; CSound::`RTTI Complete Object Locator'
PUBLIC	??_R0?AVCSound@@@8				; CSound `RTTI Type Descriptor'
PUBLIC	??_R3CSound@@8					; CSound::`RTTI Class Hierarchy Descriptor'
PUBLIC	??_R2CSound@@8					; CSound::`RTTI Base Class Array'
PUBLIC	??_R1A@?0A@A@CSound@@8				; CSound::`RTTI Base Class Descriptor at (0,-1,0,0)'
EXTRN	??_ECSound@@UAEPAXI@Z:NEAR			; CSound::`vector deleting destructor'
EXTRN	??_7type_info@@6B@:QWORD			; type_info::`vftable'
;	COMDAT ??_7CSound@@6B@
CONST	SEGMENT
??_7CSound@@6B@ DD FLAT:??_R4CSound@@6B@		; CSound::`vftable'
	DD	FLAT:??_ECSound@@UAEPAXI@Z
CONST	ENDS
;	COMDAT ??_R4CSound@@6B@
rdata$r	SEGMENT
??_R4CSound@@6B@ DD 00H					; CSound::`RTTI Complete Object Locator'
	DD	00H
	DD	00H
	DD	FLAT:??_R0?AVCSound@@@8
	DD	FLAT:??_R3CSound@@8
rdata$r	ENDS
;	COMDAT ??_R0?AVCSound@@@8
_DATA	SEGMENT
??_R0?AVCSound@@@8 DD FLAT:??_7type_info@@6B@		; CSound `RTTI Type Descriptor'
	DD	00H
	DB	'.?AVCSound@@', 00H
_DATA	ENDS
;	COMDAT ??_R3CSound@@8
rdata$r	SEGMENT
??_R3CSound@@8 DD 00H					; CSound::`RTTI Class Hierarchy Descriptor'
	DD	00H
	DD	01H
	DD	FLAT:??_R2CSound@@8
rdata$r	ENDS
;	COMDAT ??_R2CSound@@8
rdata$r	SEGMENT
??_R2CSound@@8 DD FLAT:??_R1A@?0A@A@CSound@@8		; CSound::`RTTI Base Class Array'
rdata$r	ENDS
;	COMDAT ??_R1A@?0A@A@CSound@@8
rdata$r	SEGMENT
??_R1A@?0A@A@CSound@@8 DD FLAT:??_R0?AVCSound@@@8	; CSound::`RTTI Base Class Descriptor at (0,-1,0,0)'
	DD	00H
	DD	00H
	DD	0ffffffffH
	DD	00H
	DD	00H
; Function compile flags: /Odt /RTCsu
rdata$r	ENDS
_TEXT	SEGMENT
_this$ = -4						; size = 4
??0CSound@@QAE@XZ PROC NEAR				; CSound::CSound
; _this$ = ecx

; 36   : {

  00130	55		 push	 ebp
  00131	8b ec		 mov	 ebp, esp
  00133	51		 push	 ecx
  00134	c7 45 fc cc cc
	cc cc		 mov	 DWORD PTR [ebp-4], -858993460 ; ccccccccH
  0013b	89 4d fc	 mov	 DWORD PTR _this$[ebp], ecx
  0013e	8b 45 fc	 mov	 eax, DWORD PTR _this$[ebp]
  00141	c7 00 00 00 00
	00		 mov	 DWORD PTR [eax], OFFSET FLAT:??_7CSound@@6B@

; 37   : 	m_device=1;

  00147	8b 4d fc	 mov	 ecx, DWORD PTR _this$[ebp]
  0014a	c7 41 04 01 00
	00 00		 mov	 DWORD PTR [ecx+4], 1

; 38   : }

  00151	8b 45 fc	 mov	 eax, DWORD PTR _this$[ebp]
  00154	8b e5		 mov	 esp, ebp
  00156	5d		 pop	 ebp
  00157	c3		 ret	 0
??0CSound@@QAE@XZ ENDP					; CSound::CSound
_TEXT	ENDS
PUBLIC	??1CSound@@UAE@XZ				; CSound::~CSound
EXTRN	??3@YAXPAX@Z:NEAR				; operator delete
; Function compile flags: /Odt /RTCsu
;	COMDAT ??_GCSound@@UAEPAXI@Z
_TEXT	SEGMENT
_this$ = -4						; size = 4
___flags$ = 8						; size = 4
??_GCSound@@UAEPAXI@Z PROC NEAR				; CSound::`scalar deleting destructor', COMDAT
; _this$ = ecx
  00000	55		 push	 ebp
  00001	8b ec		 mov	 ebp, esp
  00003	51		 push	 ecx
  00004	c7 45 fc cc cc
	cc cc		 mov	 DWORD PTR [ebp-4], -858993460 ; ccccccccH
  0000b	89 4d fc	 mov	 DWORD PTR _this$[ebp], ecx
  0000e	8b 4d fc	 mov	 ecx, DWORD PTR _this$[ebp]
  00011	e8 00 00 00 00	 call	 ??1CSound@@UAE@XZ	; CSound::~CSound
  00016	8b 45 08	 mov	 eax, DWORD PTR ___flags$[ebp]
  00019	83 e0 01	 and	 eax, 1
  0001c	74 0c		 je	 SHORT $L189763
  0001e	8b 4d fc	 mov	 ecx, DWORD PTR _this$[ebp]
  00021	51		 push	 ecx
  00022	e8 00 00 00 00	 call	 ??3@YAXPAX@Z		; operator delete
  00027	83 c4 04	 add	 esp, 4
$L189763:
  0002a	8b 45 fc	 mov	 eax, DWORD PTR _this$[ebp]
  0002d	83 c4 04	 add	 esp, 4
  00030	3b ec		 cmp	 ebp, esp
  00032	e8 00 00 00 00	 call	 __RTC_CheckEsp
  00037	8b e5		 mov	 esp, ebp
  00039	5d		 pop	 ebp
  0003a	c2 04 00	 ret	 4
??_GCSound@@UAEPAXI@Z ENDP				; CSound::`scalar deleting destructor'
; Function compile flags: /Odt /RTCsu
_TEXT	ENDS
_TEXT	SEGMENT
_this$ = -4						; size = 4
??1CSound@@UAE@XZ PROC NEAR				; CSound::~CSound
; _this$ = ecx

; 41   : {

  00160	55		 push	 ebp
  00161	8b ec		 mov	 ebp, esp
  00163	51		 push	 ecx
  00164	c7 45 fc cc cc
	cc cc		 mov	 DWORD PTR [ebp-4], -858993460 ; ccccccccH
  0016b	89 4d fc	 mov	 DWORD PTR _this$[ebp], ecx
  0016e	8b 45 fc	 mov	 eax, DWORD PTR _this$[ebp]
  00171	c7 00 00 00 00
	00		 mov	 DWORD PTR [eax], OFFSET FLAT:??_7CSound@@6B@

; 42   : 
; 43   : }

  00177	8b e5		 mov	 esp, ebp
  00179	5d		 pop	 ebp
  0017a	c3		 ret	 0
??1CSound@@UAE@XZ ENDP					; CSound::~CSound
_TEXT	ENDS
PUBLIC	?GetDevice@CSound@@AAE_NHAAPAUHMIXER__@@@Z	; CSound::GetDevice
EXTRN	__imp__mixerOpen@20:NEAR
; Function compile flags: /Odt /RTCsu
_TEXT	SEGMENT
tv64 = -8						; size = 4
_this$ = -4						; size = 4
_dev$ = 8						; size = 4
_hmixer$ = 12						; size = 4
?GetDevice@CSound@@AAE_NHAAPAUHMIXER__@@@Z PROC NEAR	; CSound::GetDevice
; _this$ = ecx

; 47   : {

  00180	55		 push	 ebp
  00181	8b ec		 mov	 ebp, esp
  00183	83 ec 08	 sub	 esp, 8
  00186	56		 push	 esi
  00187	c7 45 f8 cc cc
	cc cc		 mov	 DWORD PTR [ebp-8], -858993460 ; ccccccccH
  0018e	c7 45 fc cc cc
	cc cc		 mov	 DWORD PTR [ebp-4], -858993460 ; ccccccccH
  00195	89 4d fc	 mov	 DWORD PTR _this$[ebp], ecx

; 48   : 	switch(dev)   

  00198	8b 45 08	 mov	 eax, DWORD PTR _dev$[ebp]
  0019b	89 45 f8	 mov	 DWORD PTR tv64[ebp], eax
  0019e	8b 4d f8	 mov	 ecx, DWORD PTR tv64[ebp]
  001a1	83 e9 01	 sub	 ecx, 1
  001a4	89 4d f8	 mov	 DWORD PTR tv64[ebp], ecx
  001a7	83 7d f8 05	 cmp	 DWORD PTR tv64[ebp], 5
  001ab	77 46		 ja	 SHORT $L189781
  001ad	8b 55 f8	 mov	 edx, DWORD PTR tv64[ebp]
  001b0	ff 24 95 00 00
	00 00		 jmp	 DWORD PTR $L190322[edx*4]
$L189776:

; 49   : 	{   
; 50   : 	case 1:  //WAVE
; 51   : 		m_device=MIXERLINE_COMPONENTTYPE_SRC_WAVEOUT;

  001b7	8b 45 fc	 mov	 eax, DWORD PTR _this$[ebp]
  001ba	c7 40 04 08 10
	00 00		 mov	 DWORD PTR [eax+4], 4104	; 00001008H

; 52   : 		break;

  001c1	eb 3a		 jmp	 SHORT $L189773
$L189777:

; 53   : 	case 2:  //MIDI
; 54   : 		m_device=MIXERLINE_COMPONENTTYPE_SRC_SYNTHESIZER;

  001c3	8b 4d fc	 mov	 ecx, DWORD PTR _this$[ebp]
  001c6	c7 41 04 04 10
	00 00		 mov	 DWORD PTR [ecx+4], 4100	; 00001004H

; 55   : 		break;

  001cd	eb 2e		 jmp	 SHORT $L189773
$L189778:

; 56   : 	case 3:  //LINE IN / cd音量
; 57   : 	case 4:
; 58   : 		m_device=MIXERLINE_COMPONENTTYPE_SRC_COMPACTDISC;

  001cf	8b 55 fc	 mov	 edx, DWORD PTR _this$[ebp]
  001d2	c7 42 04 05 10
	00 00		 mov	 DWORD PTR [edx+4], 4101	; 00001005H

; 59   : 		break;

  001d9	eb 22		 jmp	 SHORT $L189773
$L189779:

; 60   : 	case 5:  //麦克风音量
; 61   : 		m_device=MIXERLINE_COMPONENTTYPE_SRC_MICROPHONE;

  001db	8b 45 fc	 mov	 eax, DWORD PTR _this$[ebp]
  001de	c7 40 04 03 10
	00 00		 mov	 DWORD PTR [eax+4], 4099	; 00001003H

; 62   : 		break;

  001e5	eb 16		 jmp	 SHORT $L189773
$L189780:

; 63   : 	case 6:  //PC   扬声器音量
; 64   : 		m_device=MIXERLINE_COMPONENTTYPE_SRC_LINE;

  001e7	8b 4d fc	 mov	 ecx, DWORD PTR _this$[ebp]
  001ea	c7 41 04 02 10
	00 00		 mov	 DWORD PTR [ecx+4], 4098	; 00001002H

; 65   : 		break;  

  001f1	eb 0a		 jmp	 SHORT $L189773
$L189781:

; 66   : 	default:   //主音量
; 67   : 		m_device=MIXERLINE_COMPONENTTYPE_DST_SPEAKERS;

  001f3	8b 55 fc	 mov	 edx, DWORD PTR _this$[ebp]
  001f6	c7 42 04 04 00
	00 00		 mov	 DWORD PTR [edx+4], 4
$L189773:

; 68   : 	}
; 69   : 	if(mixerOpen(&hmixer,0,0,0,0))

  001fd	8b f4		 mov	 esi, esp
  001ff	6a 00		 push	 0
  00201	6a 00		 push	 0
  00203	6a 00		 push	 0
  00205	6a 00		 push	 0
  00207	8b 45 0c	 mov	 eax, DWORD PTR _hmixer$[ebp]
  0020a	50		 push	 eax
  0020b	ff 15 00 00 00
	00		 call	 DWORD PTR __imp__mixerOpen@20
  00211	3b f4		 cmp	 esi, esp
  00213	e8 00 00 00 00	 call	 __RTC_CheckEsp
  00218	85 c0		 test	 eax, eax
  0021a	74 04		 je	 SHORT $L189782

; 70   : 		return FALSE;

  0021c	32 c0		 xor	 al, al
  0021e	eb 02		 jmp	 SHORT $L189771
$L189782:

; 71   : 
; 72   : 	return TRUE;

  00220	b0 01		 mov	 al, 1
$L189771:

; 73   : }

  00222	5e		 pop	 esi
  00223	83 c4 08	 add	 esp, 8
  00226	3b ec		 cmp	 ebp, esp
  00228	e8 00 00 00 00	 call	 __RTC_CheckEsp
  0022d	8b e5		 mov	 esp, ebp
  0022f	5d		 pop	 ebp
  00230	c2 08 00	 ret	 8
$L190322:
  00233	00 00 00 00	 DD	 $L189776
  00237	00 00 00 00	 DD	 $L189777
  0023b	00 00 00 00	 DD	 $L189778
  0023f	00 00 00 00	 DD	 $L189778
  00243	00 00 00 00	 DD	 $L189779
  00247	00 00 00 00	 DD	 $L189780
?GetDevice@CSound@@AAE_NHAAPAUHMIXER__@@@Z ENDP		; CSound::GetDevice
_TEXT	ENDS
PUBLIC	?GetVolumeControl@CSound@@QAE_NPAUHMIXER__@@JJPAUtagMIXERCONTROLA@@@Z ; CSound::GetVolumeControl
EXTRN	__imp__mixerGetLineControlsA@12:NEAR
EXTRN	___security_cookie:DWORD
EXTRN	@_RTC_CheckStackVars@8:NEAR
EXTRN	@__security_check_cookie@4:NEAR
EXTRN	__imp__mixerGetLineInfoA@12:NEAR
; Function compile flags: /Odt /RTCsu
_TEXT	SEGMENT
_mxl$ = -212						; size = 168
_mxlc$ = -36						; size = 24
_this$ = -8						; size = 4
__$ArrayPad$ = -4					; size = 4
__$ReturnAddr$ = 4					; size = 4
_hmixer$ = 8						; size = 4
_componentType$ = 12					; size = 4
_ctrlType$ = 16						; size = 4
_mxc$ = 20						; size = 4
?GetVolumeControl@CSound@@QAE_NPAUHMIXER__@@JJPAUtagMIXERCONTROLA@@@Z PROC NEAR ; CSound::GetVolumeControl
; _this$ = ecx

; 78   : {   

  00250	55		 push	 ebp
  00251	8b ec		 mov	 ebp, esp
  00253	81 ec d8 00 00
	00		 sub	 esp, 216		; 000000d8H
  00259	56		 push	 esi
  0025a	57		 push	 edi
  0025b	51		 push	 ecx
  0025c	8d bd 28 ff ff
	ff		 lea	 edi, DWORD PTR [ebp-216]
  00262	b9 36 00 00 00	 mov	 ecx, 54			; 00000036H
  00267	b8 cc cc cc cc	 mov	 eax, -858993460		; ccccccccH
  0026c	f3 ab		 rep stosd
  0026e	59		 pop	 ecx
  0026f	a1 00 00 00 00	 mov	 eax, DWORD PTR ___security_cookie
  00274	89 45 fc	 mov	 DWORD PTR __$ArrayPad$[ebp], eax
  00277	89 4d f8	 mov	 DWORD PTR _this$[ebp], ecx

; 79   : 	MIXERLINECONTROLS mxlc;   
; 80   : 	MIXERLINE mxl;   
; 81   : 	mxl.cbStruct = sizeof(mxl);   

  0027a	c7 85 2c ff ff
	ff a8 00 00 00	 mov	 DWORD PTR _mxl$[ebp], 168 ; 000000a8H

; 82   : 	mxl.dwComponentType = componentType;   

  00284	8b 45 0c	 mov	 eax, DWORD PTR _componentType$[ebp]
  00287	89 85 44 ff ff
	ff		 mov	 DWORD PTR _mxl$[ebp+24], eax

; 83   : 	if(!mixerGetLineInfo((HMIXEROBJ)hmixer,&mxl,MIXER_GETLINEINFOF_COMPONENTTYPE))   

  0028d	8b f4		 mov	 esi, esp
  0028f	6a 03		 push	 3
  00291	8d 8d 2c ff ff
	ff		 lea	 ecx, DWORD PTR _mxl$[ebp]
  00297	51		 push	 ecx
  00298	8b 55 08	 mov	 edx, DWORD PTR _hmixer$[ebp]
  0029b	52		 push	 edx
  0029c	ff 15 00 00 00
	00		 call	 DWORD PTR __imp__mixerGetLineInfoA@12
  002a2	3b f4		 cmp	 esi, esp
  002a4	e8 00 00 00 00	 call	 __RTC_CheckEsp
  002a9	85 c0		 test	 eax, eax
  002ab	75 4f		 jne	 SHORT $L189793

; 84   : 	{   
; 85   : 		mxlc.cbStruct = sizeof(mxlc);   

  002ad	c7 45 dc 18 00
	00 00		 mov	 DWORD PTR _mxlc$[ebp], 24 ; 00000018H

; 86   : 		mxlc.dwLineID = mxl.dwLineID;   

  002b4	8b 85 38 ff ff
	ff		 mov	 eax, DWORD PTR _mxl$[ebp+12]
  002ba	89 45 e0	 mov	 DWORD PTR _mxlc$[ebp+4], eax

; 87   : 		mxlc.dwControlType = ctrlType;   

  002bd	8b 4d 10	 mov	 ecx, DWORD PTR _ctrlType$[ebp]
  002c0	89 4d e4	 mov	 DWORD PTR _mxlc$[ebp+8], ecx

; 88   : 		mxlc.cControls = 1;   

  002c3	c7 45 e8 01 00
	00 00		 mov	 DWORD PTR _mxlc$[ebp+12], 1

; 89   : 		mxlc.cbmxctrl = sizeof(MIXERCONTROL);   

  002ca	c7 45 ec 94 00
	00 00		 mov	 DWORD PTR _mxlc$[ebp+16], 148 ; 00000094H

; 90   : 		mxlc.pamxctrl = mxc;   

  002d1	8b 55 14	 mov	 edx, DWORD PTR _mxc$[ebp]
  002d4	89 55 f0	 mov	 DWORD PTR _mxlc$[ebp+20], edx

; 91   : 		if(mixerGetLineControls((HMIXEROBJ)hmixer,&mxlc,MIXER_GETLINECONTROLSF_ONEBYTYPE))   

  002d7	8b f4		 mov	 esi, esp
  002d9	6a 02		 push	 2
  002db	8d 45 dc	 lea	 eax, DWORD PTR _mxlc$[ebp]
  002de	50		 push	 eax
  002df	8b 4d 08	 mov	 ecx, DWORD PTR _hmixer$[ebp]
  002e2	51		 push	 ecx
  002e3	ff 15 00 00 00
	00		 call	 DWORD PTR __imp__mixerGetLineControlsA@12
  002e9	3b f4		 cmp	 esi, esp
  002eb	e8 00 00 00 00	 call	 __RTC_CheckEsp
  002f0	85 c0		 test	 eax, eax
  002f2	74 04		 je	 SHORT $L189796

; 92   : 			return FALSE;   

  002f4	32 c0		 xor	 al, al
  002f6	eb 06		 jmp	 SHORT $L189789
$L189796:

; 93   : 		else   
; 94   : 			return TRUE;   

  002f8	b0 01		 mov	 al, 1
  002fa	eb 02		 jmp	 SHORT $L189789
$L189793:

; 95   : 	}   
; 96   : 	return FALSE;   

  002fc	32 c0		 xor	 al, al
$L189789:

; 97   : }  

  002fe	52		 push	 edx
  002ff	8b cd		 mov	 ecx, ebp
  00301	50		 push	 eax
  00302	8d 15 00 00 00
	00		 lea	 edx, DWORD PTR $L190330
  00308	e8 00 00 00 00	 call	 @_RTC_CheckStackVars@8
  0030d	58		 pop	 eax
  0030e	5a		 pop	 edx
  0030f	8b 4d fc	 mov	 ecx, DWORD PTR __$ArrayPad$[ebp]
  00312	e8 00 00 00 00	 call	 @__security_check_cookie@4
  00317	5f		 pop	 edi
  00318	5e		 pop	 esi
  00319	81 c4 d8 00 00
	00		 add	 esp, 216		; 000000d8H
  0031f	3b ec		 cmp	 ebp, esp
  00321	e8 00 00 00 00	 call	 __RTC_CheckEsp
  00326	8b e5		 mov	 esp, ebp
  00328	5d		 pop	 ebp
  00329	c2 10 00	 ret	 16			; 00000010H
$L190330:
  0032c	02 00 00 00	 DD	 2
  00330	00 00 00 00	 DD	 $L190329
$L190329:
  00334	dc ff ff ff	 DD	 -36			; ffffffdcH
  00338	18 00 00 00	 DD	 24			; 00000018H
  0033c	00 00 00 00	 DD	 $L190325
  00340	2c ff ff ff	 DD	 -212			; ffffff2cH
  00344	a8 00 00 00	 DD	 168			; 000000a8H
  00348	00 00 00 00	 DD	 $L190326
$L190326:
  0034c	6d		 DB	 109			; 0000006dH
  0034d	78		 DB	 120			; 00000078H
  0034e	6c		 DB	 108			; 0000006cH
  0034f	00		 DB	 0
$L190325:
  00350	6d		 DB	 109			; 0000006dH
  00351	78		 DB	 120			; 00000078H
  00352	6c		 DB	 108			; 0000006cH
  00353	63		 DB	 99			; 00000063H
  00354	00		 DB	 0
?GetVolumeControl@CSound@@QAE_NPAUHMIXER__@@JJPAUtagMIXERCONTROLA@@@Z ENDP ; CSound::GetVolumeControl
_TEXT	ENDS
PUBLIC	?GetMuteValue@CSound@@QAEJPAUHMIXER__@@PAUtagMIXERCONTROLA@@@Z ; CSound::GetMuteValue
EXTRN	__imp__mixerGetControlDetailsA@12:NEAR
; Function compile flags: /Odt /RTCsu
_TEXT	SEGMENT
_mxcdMute$ = -44					; size = 4
_mxcd$ = -32						; size = 24
_this$ = -4						; size = 4
_hmixer$ = 8						; size = 4
_mxc$ = 12						; size = 4
?GetMuteValue@CSound@@QAEJPAUHMIXER__@@PAUtagMIXERCONTROLA@@@Z PROC NEAR ; CSound::GetMuteValue
; _this$ = ecx

; 100  : {   

  00360	55		 push	 ebp
  00361	8b ec		 mov	 ebp, esp
  00363	83 ec 30	 sub	 esp, 48			; 00000030H
  00366	56		 push	 esi
  00367	57		 push	 edi
  00368	51		 push	 ecx
  00369	8d 7d d0	 lea	 edi, DWORD PTR [ebp-48]
  0036c	b9 0c 00 00 00	 mov	 ecx, 12			; 0000000cH
  00371	b8 cc cc cc cc	 mov	 eax, -858993460		; ccccccccH
  00376	f3 ab		 rep stosd
  00378	59		 pop	 ecx
  00379	89 4d fc	 mov	 DWORD PTR _this$[ebp], ecx

; 101  : 	MIXERCONTROLDETAILS   mxcd;   
; 102  : 	MIXERCONTROLDETAILS_BOOLEAN   mxcdMute;   
; 103  : 	mxcd.hwndOwner = 0;   

  0037c	c7 45 ec 00 00
	00 00		 mov	 DWORD PTR _mxcd$[ebp+12], 0

; 104  : 	mxcd.cbStruct = sizeof(mxcd);   

  00383	c7 45 e0 18 00
	00 00		 mov	 DWORD PTR _mxcd$[ebp], 24 ; 00000018H

; 105  : 	mxcd.dwControlID = mxc->dwControlID;   

  0038a	8b 45 0c	 mov	 eax, DWORD PTR _mxc$[ebp]
  0038d	8b 48 04	 mov	 ecx, DWORD PTR [eax+4]
  00390	89 4d e4	 mov	 DWORD PTR _mxcd$[ebp+4], ecx

; 106  : 	mxcd.cbDetails = sizeof(mxcdMute);   

  00393	c7 45 f0 04 00
	00 00		 mov	 DWORD PTR _mxcd$[ebp+16], 4

; 107  : 	mxcd.paDetails = &mxcdMute;   

  0039a	8d 55 d4	 lea	 edx, DWORD PTR _mxcdMute$[ebp]
  0039d	89 55 f4	 mov	 DWORD PTR _mxcd$[ebp+20], edx

; 108  : 	mxcd.cChannels = 1;   

  003a0	c7 45 e8 01 00
	00 00		 mov	 DWORD PTR _mxcd$[ebp+8], 1

; 109  : 	mxcd.cMultipleItems = 0;   

  003a7	c7 45 ec 00 00
	00 00		 mov	 DWORD PTR _mxcd$[ebp+12], 0

; 110  : 	if(mixerGetControlDetails((HMIXEROBJ)hmixer,&mxcd,
; 111  : 		MIXER_OBJECTF_HMIXER|MIXER_GETCONTROLDETAILSF_VALUE))

  003ae	8b f4		 mov	 esi, esp
  003b0	68 00 00 00 80	 push	 -2147483648		; 80000000H
  003b5	8d 45 e0	 lea	 eax, DWORD PTR _mxcd$[ebp]
  003b8	50		 push	 eax
  003b9	8b 4d 08	 mov	 ecx, DWORD PTR _hmixer$[ebp]
  003bc	51		 push	 ecx
  003bd	ff 15 00 00 00
	00		 call	 DWORD PTR __imp__mixerGetControlDetailsA@12
  003c3	3b f4		 cmp	 esi, esp
  003c5	e8 00 00 00 00	 call	 __RTC_CheckEsp
  003ca	85 c0		 test	 eax, eax
  003cc	74 05		 je	 SHORT $L189806

; 112  : 		return -1;   

  003ce	83 c8 ff	 or	 eax, -1
  003d1	eb 03		 jmp	 SHORT $L189802
$L189806:

; 113  : 	return mxcdMute.fValue;   

  003d3	8b 45 d4	 mov	 eax, DWORD PTR _mxcdMute$[ebp]
$L189802:

; 114  : }  

  003d6	52		 push	 edx
  003d7	8b cd		 mov	 ecx, ebp
  003d9	50		 push	 eax
  003da	8d 15 00 00 00
	00		 lea	 edx, DWORD PTR $L190337
  003e0	e8 00 00 00 00	 call	 @_RTC_CheckStackVars@8
  003e5	58		 pop	 eax
  003e6	5a		 pop	 edx
  003e7	5f		 pop	 edi
  003e8	5e		 pop	 esi
  003e9	83 c4 30	 add	 esp, 48			; 00000030H
  003ec	3b ec		 cmp	 ebp, esp
  003ee	e8 00 00 00 00	 call	 __RTC_CheckEsp
  003f3	8b e5		 mov	 esp, ebp
  003f5	5d		 pop	 ebp
  003f6	c2 08 00	 ret	 8
$L190337:
  003f9	02 00 00 00	 DD	 2
  003fd	00 00 00 00	 DD	 $L190336
$L190336:
  00401	e0 ff ff ff	 DD	 -32			; ffffffe0H
  00405	18 00 00 00	 DD	 24			; 00000018H
  00409	00 00 00 00	 DD	 $L190334
  0040d	d4 ff ff ff	 DD	 -44			; ffffffd4H
  00411	04 00 00 00	 DD	 4
  00415	00 00 00 00	 DD	 $L190335
$L190335:
  00419	6d		 DB	 109			; 0000006dH
  0041a	78		 DB	 120			; 00000078H
  0041b	63		 DB	 99			; 00000063H
  0041c	64		 DB	 100			; 00000064H
  0041d	4d		 DB	 77			; 0000004dH
  0041e	75		 DB	 117			; 00000075H
  0041f	74		 DB	 116			; 00000074H
  00420	65		 DB	 101			; 00000065H
  00421	00		 DB	 0
$L190334:
  00422	6d		 DB	 109			; 0000006dH
  00423	78		 DB	 120			; 00000078H
  00424	63		 DB	 99			; 00000063H
  00425	64		 DB	 100			; 00000064H
  00426	00		 DB	 0
?GetMuteValue@CSound@@QAEJPAUHMIXER__@@PAUtagMIXERCONTROLA@@@Z ENDP ; CSound::GetMuteValue
_TEXT	ENDS
PUBLIC	?SetMuteValue@CSound@@QAE_NPAUHMIXER__@@PAUtagMIXERCONTROLA@@_N@Z ; CSound::SetMuteValue
EXTRN	__imp__mixerSetControlDetails@12:NEAR
; Function compile flags: /Odt /RTCsu
_TEXT	SEGMENT
_mxcdMute$ = -44					; size = 4
_mxcd$ = -32						; size = 24
_this$ = -4						; size = 4
_hmixer$ = 8						; size = 4
_mxc$ = 12						; size = 4
_mute$ = 16						; size = 1
?SetMuteValue@CSound@@QAE_NPAUHMIXER__@@PAUtagMIXERCONTROLA@@_N@Z PROC NEAR ; CSound::SetMuteValue
; _this$ = ecx

; 117  : {   

  00430	55		 push	 ebp
  00431	8b ec		 mov	 ebp, esp
  00433	83 ec 30	 sub	 esp, 48			; 00000030H
  00436	56		 push	 esi
  00437	57		 push	 edi
  00438	51		 push	 ecx
  00439	8d 7d d0	 lea	 edi, DWORD PTR [ebp-48]
  0043c	b9 0c 00 00 00	 mov	 ecx, 12			; 0000000cH
  00441	b8 cc cc cc cc	 mov	 eax, -858993460		; ccccccccH
  00446	f3 ab		 rep stosd
  00448	59		 pop	 ecx
  00449	89 4d fc	 mov	 DWORD PTR _this$[ebp], ecx

; 118  : 	MIXERCONTROLDETAILS mxcd;
; 119  : 	MIXERCONTROLDETAILS_BOOLEAN mxcdMute;
; 120  : 	mxcdMute.fValue=mute;   

  0044c	0f b6 45 10	 movzx	 eax, BYTE PTR _mute$[ebp]
  00450	89 45 d4	 mov	 DWORD PTR _mxcdMute$[ebp], eax

; 121  : 	mxcd.hwndOwner = 0;

  00453	c7 45 ec 00 00
	00 00		 mov	 DWORD PTR _mxcd$[ebp+12], 0

; 122  : 	mxcd.dwControlID = mxc->dwControlID;   

  0045a	8b 4d 0c	 mov	 ecx, DWORD PTR _mxc$[ebp]
  0045d	8b 51 04	 mov	 edx, DWORD PTR [ecx+4]
  00460	89 55 e4	 mov	 DWORD PTR _mxcd$[ebp+4], edx

; 123  : 	mxcd.cbStruct = sizeof(mxcd);   

  00463	c7 45 e0 18 00
	00 00		 mov	 DWORD PTR _mxcd$[ebp], 24 ; 00000018H

; 124  : 	mxcd.cbDetails = sizeof(mxcdMute);   

  0046a	c7 45 f0 04 00
	00 00		 mov	 DWORD PTR _mxcd$[ebp+16], 4

; 125  : 	mxcd.paDetails = &mxcdMute;   

  00471	8d 45 d4	 lea	 eax, DWORD PTR _mxcdMute$[ebp]
  00474	89 45 f4	 mov	 DWORD PTR _mxcd$[ebp+20], eax

; 126  : 	mxcd.cChannels = 1;   

  00477	c7 45 e8 01 00
	00 00		 mov	 DWORD PTR _mxcd$[ebp+8], 1

; 127  : 	mxcd.cMultipleItems = 0;   

  0047e	c7 45 ec 00 00
	00 00		 mov	 DWORD PTR _mxcd$[ebp+12], 0

; 128  : 	if(mixerSetControlDetails((HMIXEROBJ)hmixer,&mxcd,
; 129  : 		MIXER_OBJECTF_HMIXER|MIXER_SETCONTROLDETAILSF_VALUE))

  00485	8b f4		 mov	 esi, esp
  00487	68 00 00 00 80	 push	 -2147483648		; 80000000H
  0048c	8d 4d e0	 lea	 ecx, DWORD PTR _mxcd$[ebp]
  0048f	51		 push	 ecx
  00490	8b 55 08	 mov	 edx, DWORD PTR _hmixer$[ebp]
  00493	52		 push	 edx
  00494	ff 15 00 00 00
	00		 call	 DWORD PTR __imp__mixerSetControlDetails@12
  0049a	3b f4		 cmp	 esi, esp
  0049c	e8 00 00 00 00	 call	 __RTC_CheckEsp
  004a1	85 c0		 test	 eax, eax
  004a3	74 04		 je	 SHORT $L189816

; 130  : 		return   FALSE; 

  004a5	32 c0		 xor	 al, al
  004a7	eb 02		 jmp	 SHORT $L189812
$L189816:

; 131  : 
; 132  : 	return   TRUE;   

  004a9	b0 01		 mov	 al, 1
$L189812:

; 133  : }

  004ab	52		 push	 edx
  004ac	8b cd		 mov	 ecx, ebp
  004ae	50		 push	 eax
  004af	8d 15 00 00 00
	00		 lea	 edx, DWORD PTR $L190342
  004b5	e8 00 00 00 00	 call	 @_RTC_CheckStackVars@8
  004ba	58		 pop	 eax
  004bb	5a		 pop	 edx
  004bc	5f		 pop	 edi
  004bd	5e		 pop	 esi
  004be	83 c4 30	 add	 esp, 48			; 00000030H
  004c1	3b ec		 cmp	 ebp, esp
  004c3	e8 00 00 00 00	 call	 __RTC_CheckEsp
  004c8	8b e5		 mov	 esp, ebp
  004ca	5d		 pop	 ebp
  004cb	c2 0c 00	 ret	 12			; 0000000cH
$L190342:
  004ce	02 00 00 00	 DD	 2
  004d2	00 00 00 00	 DD	 $L190341
$L190341:
  004d6	e0 ff ff ff	 DD	 -32			; ffffffe0H
  004da	18 00 00 00	 DD	 24			; 00000018H
  004de	00 00 00 00	 DD	 $L190339
  004e2	d4 ff ff ff	 DD	 -44			; ffffffd4H
  004e6	04 00 00 00	 DD	 4
  004ea	00 00 00 00	 DD	 $L190340
$L190340:
  004ee	6d		 DB	 109			; 0000006dH
  004ef	78		 DB	 120			; 00000078H
  004f0	63		 DB	 99			; 00000063H
  004f1	64		 DB	 100			; 00000064H
  004f2	4d		 DB	 77			; 0000004dH
  004f3	75		 DB	 117			; 00000075H
  004f4	74		 DB	 116			; 00000074H
  004f5	65		 DB	 101			; 00000065H
  004f6	00		 DB	 0
$L190339:
  004f7	6d		 DB	 109			; 0000006dH
  004f8	78		 DB	 120			; 00000078H
  004f9	63		 DB	 99			; 00000063H
  004fa	64		 DB	 100			; 00000064H
  004fb	00		 DB	 0
?SetMuteValue@CSound@@QAE_NPAUHMIXER__@@PAUtagMIXERCONTROLA@@_N@Z ENDP ; CSound::SetMuteValue
_TEXT	ENDS
PUBLIC	?GetVolumeValue@CSound@@QAEIPAUHMIXER__@@PAUtagMIXERCONTROLA@@@Z ; CSound::GetVolumeValue
; Function compile flags: /Odt /RTCsu
_TEXT	SEGMENT
_vol$ = -44						; size = 4
_mxcd$ = -32						; size = 24
_this$ = -4						; size = 4
_hmixer$ = 8						; size = 4
_mxc$ = 12						; size = 4
?GetVolumeValue@CSound@@QAEIPAUHMIXER__@@PAUtagMIXERCONTROLA@@@Z PROC NEAR ; CSound::GetVolumeValue
; _this$ = ecx

; 136  : {   

  00500	55		 push	 ebp
  00501	8b ec		 mov	 ebp, esp
  00503	83 ec 30	 sub	 esp, 48			; 00000030H
  00506	56		 push	 esi
  00507	57		 push	 edi
  00508	51		 push	 ecx
  00509	8d 7d d0	 lea	 edi, DWORD PTR [ebp-48]
  0050c	b9 0c 00 00 00	 mov	 ecx, 12			; 0000000cH
  00511	b8 cc cc cc cc	 mov	 eax, -858993460		; ccccccccH
  00516	f3 ab		 rep stosd
  00518	59		 pop	 ecx
  00519	89 4d fc	 mov	 DWORD PTR _this$[ebp], ecx

; 137  : 	MIXERCONTROLDETAILS   mxcd;
; 138  : 	MIXERCONTROLDETAILS_UNSIGNED   vol;   vol.dwValue=0;   

  0051c	c7 45 d4 00 00
	00 00		 mov	 DWORD PTR _vol$[ebp], 0

; 139  : 	mxcd.hwndOwner = 0;   

  00523	c7 45 ec 00 00
	00 00		 mov	 DWORD PTR _mxcd$[ebp+12], 0

; 140  : 	mxcd.cbStruct = sizeof(mxcd);   

  0052a	c7 45 e0 18 00
	00 00		 mov	 DWORD PTR _mxcd$[ebp], 24 ; 00000018H

; 141  : 	mxcd.dwControlID = mxc->dwControlID;   

  00531	8b 45 0c	 mov	 eax, DWORD PTR _mxc$[ebp]
  00534	8b 48 04	 mov	 ecx, DWORD PTR [eax+4]
  00537	89 4d e4	 mov	 DWORD PTR _mxcd$[ebp+4], ecx

; 142  : 	mxcd.cbDetails = sizeof(vol);   

  0053a	c7 45 f0 04 00
	00 00		 mov	 DWORD PTR _mxcd$[ebp+16], 4

; 143  : 	mxcd.paDetails = &vol;   

  00541	8d 55 d4	 lea	 edx, DWORD PTR _vol$[ebp]
  00544	89 55 f4	 mov	 DWORD PTR _mxcd$[ebp+20], edx

; 144  : 	mxcd.cChannels = 1;   

  00547	c7 45 e8 01 00
	00 00		 mov	 DWORD PTR _mxcd$[ebp+8], 1

; 145  : 	if(mixerGetControlDetails((HMIXEROBJ)hmixer,&mxcd,MIXER_OBJECTF_HMIXER|MIXER_GETCONTROLDETAILSF_VALUE))  

  0054e	8b f4		 mov	 esi, esp
  00550	68 00 00 00 80	 push	 -2147483648		; 80000000H
  00555	8d 45 e0	 lea	 eax, DWORD PTR _mxcd$[ebp]
  00558	50		 push	 eax
  00559	8b 4d 08	 mov	 ecx, DWORD PTR _hmixer$[ebp]
  0055c	51		 push	 ecx
  0055d	ff 15 00 00 00
	00		 call	 DWORD PTR __imp__mixerGetControlDetailsA@12
  00563	3b f4		 cmp	 esi, esp
  00565	e8 00 00 00 00	 call	 __RTC_CheckEsp
  0056a	85 c0		 test	 eax, eax
  0056c	74 05		 je	 SHORT $L189825

; 146  : 		return   -1;   

  0056e	83 c8 ff	 or	 eax, -1
  00571	eb 03		 jmp	 SHORT $L189821
$L189825:

; 147  : 	return   vol.dwValue;   

  00573	8b 45 d4	 mov	 eax, DWORD PTR _vol$[ebp]
$L189821:

; 148  : }

  00576	52		 push	 edx
  00577	8b cd		 mov	 ecx, ebp
  00579	50		 push	 eax
  0057a	8d 15 00 00 00
	00		 lea	 edx, DWORD PTR $L190347
  00580	e8 00 00 00 00	 call	 @_RTC_CheckStackVars@8
  00585	58		 pop	 eax
  00586	5a		 pop	 edx
  00587	5f		 pop	 edi
  00588	5e		 pop	 esi
  00589	83 c4 30	 add	 esp, 48			; 00000030H
  0058c	3b ec		 cmp	 ebp, esp
  0058e	e8 00 00 00 00	 call	 __RTC_CheckEsp
  00593	8b e5		 mov	 esp, ebp
  00595	5d		 pop	 ebp
  00596	c2 08 00	 ret	 8
$L190347:
  00599	02 00 00 00	 DD	 2
  0059d	00 00 00 00	 DD	 $L190346
$L190346:
  005a1	e0 ff ff ff	 DD	 -32			; ffffffe0H
  005a5	18 00 00 00	 DD	 24			; 00000018H
  005a9	00 00 00 00	 DD	 $L190344
  005ad	d4 ff ff ff	 DD	 -44			; ffffffd4H
  005b1	04 00 00 00	 DD	 4
  005b5	00 00 00 00	 DD	 $L190345
$L190345:
  005b9	76		 DB	 118			; 00000076H
  005ba	6f		 DB	 111			; 0000006fH
  005bb	6c		 DB	 108			; 0000006cH
  005bc	00		 DB	 0
$L190344:
  005bd	6d		 DB	 109			; 0000006dH
  005be	78		 DB	 120			; 00000078H
  005bf	63		 DB	 99			; 00000063H
  005c0	64		 DB	 100			; 00000064H
  005c1	00		 DB	 0
?GetVolumeValue@CSound@@QAEIPAUHMIXER__@@PAUtagMIXERCONTROLA@@@Z ENDP ; CSound::GetVolumeValue
_TEXT	ENDS
PUBLIC	?SetVolumeValue@CSound@@QAE_NPAUHMIXER__@@PAUtagMIXERCONTROLA@@J@Z ; CSound::SetVolumeValue
; Function compile flags: /Odt /RTCsu
_TEXT	SEGMENT
_vol$ = -44						; size = 4
_mxcd$ = -32						; size = 24
_this$ = -4						; size = 4
_hmixer$ = 8						; size = 4
_mxc$ = 12						; size = 4
_volume$ = 16						; size = 4
?SetVolumeValue@CSound@@QAE_NPAUHMIXER__@@PAUtagMIXERCONTROLA@@J@Z PROC NEAR ; CSound::SetVolumeValue
; _this$ = ecx

; 151  : {   

  005d0	55		 push	 ebp
  005d1	8b ec		 mov	 ebp, esp
  005d3	83 ec 30	 sub	 esp, 48			; 00000030H
  005d6	56		 push	 esi
  005d7	57		 push	 edi
  005d8	51		 push	 ecx
  005d9	8d 7d d0	 lea	 edi, DWORD PTR [ebp-48]
  005dc	b9 0c 00 00 00	 mov	 ecx, 12			; 0000000cH
  005e1	b8 cc cc cc cc	 mov	 eax, -858993460		; ccccccccH
  005e6	f3 ab		 rep stosd
  005e8	59		 pop	 ecx
  005e9	89 4d fc	 mov	 DWORD PTR _this$[ebp], ecx

; 152  : 	MIXERCONTROLDETAILS   mxcd;
; 153  : 	MIXERCONTROLDETAILS_UNSIGNED vol;
; 154  : 	vol.dwValue = volume;

  005ec	8b 45 10	 mov	 eax, DWORD PTR _volume$[ebp]
  005ef	89 45 d4	 mov	 DWORD PTR _vol$[ebp], eax

; 155  : 	mxcd.hwndOwner = 0;

  005f2	c7 45 ec 00 00
	00 00		 mov	 DWORD PTR _mxcd$[ebp+12], 0

; 156  : 	mxcd.dwControlID = mxc->dwControlID;

  005f9	8b 4d 0c	 mov	 ecx, DWORD PTR _mxc$[ebp]
  005fc	8b 51 04	 mov	 edx, DWORD PTR [ecx+4]
  005ff	89 55 e4	 mov	 DWORD PTR _mxcd$[ebp+4], edx

; 157  : 	mxcd.cbStruct = sizeof(mxcd);

  00602	c7 45 e0 18 00
	00 00		 mov	 DWORD PTR _mxcd$[ebp], 24 ; 00000018H

; 158  : 	mxcd.cbDetails = sizeof(vol);

  00609	c7 45 f0 04 00
	00 00		 mov	 DWORD PTR _mxcd$[ebp+16], 4

; 159  : 	mxcd.paDetails = &vol;

  00610	8d 45 d4	 lea	 eax, DWORD PTR _vol$[ebp]
  00613	89 45 f4	 mov	 DWORD PTR _mxcd$[ebp+20], eax

; 160  : 	mxcd.cChannels = 1;

  00616	c7 45 e8 01 00
	00 00		 mov	 DWORD PTR _mxcd$[ebp+8], 1

; 161  : 	if(mixerSetControlDetails((HMIXEROBJ)hmixer,&mxcd,
; 162  : 		MIXER_OBJECTF_HMIXER|MIXER_SETCONTROLDETAILSF_VALUE))   

  0061d	8b f4		 mov	 esi, esp
  0061f	68 00 00 00 80	 push	 -2147483648		; 80000000H
  00624	8d 4d e0	 lea	 ecx, DWORD PTR _mxcd$[ebp]
  00627	51		 push	 ecx
  00628	8b 55 08	 mov	 edx, DWORD PTR _hmixer$[ebp]
  0062b	52		 push	 edx
  0062c	ff 15 00 00 00
	00		 call	 DWORD PTR __imp__mixerSetControlDetails@12
  00632	3b f4		 cmp	 esi, esp
  00634	e8 00 00 00 00	 call	 __RTC_CheckEsp
  00639	85 c0		 test	 eax, eax
  0063b	74 04		 je	 SHORT $L189835

; 163  : 		return FALSE; 

  0063d	32 c0		 xor	 al, al
  0063f	eb 02		 jmp	 SHORT $L189831
$L189835:

; 164  : 
; 165  : 	return TRUE;   

  00641	b0 01		 mov	 al, 1
$L189831:

; 166  : }

  00643	52		 push	 edx
  00644	8b cd		 mov	 ecx, ebp
  00646	50		 push	 eax
  00647	8d 15 00 00 00
	00		 lea	 edx, DWORD PTR $L190352
  0064d	e8 00 00 00 00	 call	 @_RTC_CheckStackVars@8
  00652	58		 pop	 eax
  00653	5a		 pop	 edx
  00654	5f		 pop	 edi
  00655	5e		 pop	 esi
  00656	83 c4 30	 add	 esp, 48			; 00000030H
  00659	3b ec		 cmp	 ebp, esp
  0065b	e8 00 00 00 00	 call	 __RTC_CheckEsp
  00660	8b e5		 mov	 esp, ebp
  00662	5d		 pop	 ebp
  00663	c2 0c 00	 ret	 12			; 0000000cH
$L190352:
  00666	02 00 00 00	 DD	 2
  0066a	00 00 00 00	 DD	 $L190351
$L190351:
  0066e	e0 ff ff ff	 DD	 -32			; ffffffe0H
  00672	18 00 00 00	 DD	 24			; 00000018H
  00676	00 00 00 00	 DD	 $L190349
  0067a	d4 ff ff ff	 DD	 -44			; ffffffd4H
  0067e	04 00 00 00	 DD	 4
  00682	00 00 00 00	 DD	 $L190350
$L190350:
  00686	76		 DB	 118			; 00000076H
  00687	6f		 DB	 111			; 0000006fH
  00688	6c		 DB	 108			; 0000006cH
  00689	00		 DB	 0
$L190349:
  0068a	6d		 DB	 109			; 0000006dH
  0068b	78		 DB	 120			; 00000078H
  0068c	63		 DB	 99			; 00000063H
  0068d	64		 DB	 100			; 00000064H
  0068e	00		 DB	 0
?SetVolumeValue@CSound@@QAE_NPAUHMIXER__@@PAUtagMIXERCONTROLA@@J@Z ENDP ; CSound::SetVolumeValue
_TEXT	ENDS
PUBLIC	?GetVolume@CSound@@QAEII@Z			; CSound::GetVolume
EXTRN	__imp__mixerClose@4:NEAR
; Function compile flags: /Odt /RTCsu
_TEXT	SEGMENT
_hmixer$ = -16						; size = 4
_rt$ = -8						; size = 4
_this$ = -4						; size = 4
_dev$ = 8						; size = 4
?GetVolume@CSound@@QAEII@Z PROC NEAR			; CSound::GetVolume
; _this$ = ecx

; 170  : {

  00690	55		 push	 ebp
  00691	8b ec		 mov	 ebp, esp
  00693	83 ec 14	 sub	 esp, 20			; 00000014H
  00696	56		 push	 esi
  00697	b8 cc cc cc cc	 mov	 eax, -858993460		; ccccccccH
  0069c	89 45 ec	 mov	 DWORD PTR [ebp-20], eax
  0069f	89 45 f0	 mov	 DWORD PTR [ebp-16], eax
  006a2	89 45 f4	 mov	 DWORD PTR [ebp-12], eax
  006a5	89 45 f8	 mov	 DWORD PTR [ebp-8], eax
  006a8	89 45 fc	 mov	 DWORD PTR [ebp-4], eax
  006ab	89 4d fc	 mov	 DWORD PTR _this$[ebp], ecx

; 171  : 	unsigned rt=0;

  006ae	c7 45 f8 00 00
	00 00		 mov	 DWORD PTR _rt$[ebp], 0

; 172  : 	HMIXER   hmixer;   
; 173  : 	if(!GetDevice(dev,hmixer))

  006b5	8d 45 f0	 lea	 eax, DWORD PTR _hmixer$[ebp]
  006b8	50		 push	 eax
  006b9	8b 4d 08	 mov	 ecx, DWORD PTR _dev$[ebp]
  006bc	51		 push	 ecx
  006bd	8b 4d fc	 mov	 ecx, DWORD PTR _this$[ebp]
  006c0	e8 00 00 00 00	 call	 ?GetDevice@CSound@@AAE_NHAAPAUHMIXER__@@@Z ; CSound::GetDevice
  006c5	0f b6 d0	 movzx	 edx, al
  006c8	85 d2		 test	 edx, edx
  006ca	75 04		 jne	 SHORT $L189842

; 174  : 		return 0;

  006cc	33 c0		 xor	 eax, eax
  006ce	eb 61		 jmp	 SHORT $L189839
$L189842:

; 175  : 	if(!GetVolumeControl(hmixer,m_device,MIXERCONTROL_CONTROLTYPE_VOLUME,&m_volCtrl))

  006d0	8b 45 fc	 mov	 eax, DWORD PTR _this$[ebp]
  006d3	83 c0 08	 add	 eax, 8
  006d6	50		 push	 eax
  006d7	68 01 00 03 50	 push	 1342373889		; 50030001H
  006dc	8b 4d fc	 mov	 ecx, DWORD PTR _this$[ebp]
  006df	8b 51 04	 mov	 edx, DWORD PTR [ecx+4]
  006e2	52		 push	 edx
  006e3	8b 45 f0	 mov	 eax, DWORD PTR _hmixer$[ebp]
  006e6	50		 push	 eax
  006e7	8b 4d fc	 mov	 ecx, DWORD PTR _this$[ebp]
  006ea	e8 00 00 00 00	 call	 ?GetVolumeControl@CSound@@QAE_NPAUHMIXER__@@JJPAUtagMIXERCONTROLA@@@Z ; CSound::GetVolumeControl
  006ef	0f b6 c8	 movzx	 ecx, al
  006f2	85 c9		 test	 ecx, ecx
  006f4	75 04		 jne	 SHORT $L189843

; 176  : 		return 0;

  006f6	33 c0		 xor	 eax, eax
  006f8	eb 37		 jmp	 SHORT $L189839
$L189843:

; 177  : 	rt=GetVolumeValue(hmixer,&m_volCtrl)*100/m_volCtrl.Bounds.lMaximum;

  006fa	8b 55 fc	 mov	 edx, DWORD PTR _this$[ebp]
  006fd	83 c2 08	 add	 edx, 8
  00700	52		 push	 edx
  00701	8b 45 f0	 mov	 eax, DWORD PTR _hmixer$[ebp]
  00704	50		 push	 eax
  00705	8b 4d fc	 mov	 ecx, DWORD PTR _this$[ebp]
  00708	e8 00 00 00 00	 call	 ?GetVolumeValue@CSound@@QAEIPAUHMIXER__@@PAUtagMIXERCONTROLA@@@Z ; CSound::GetVolumeValue
  0070d	6b c0 64	 imul	 eax, 100		; 00000064H
  00710	8b 4d fc	 mov	 ecx, DWORD PTR _this$[ebp]
  00713	33 d2		 xor	 edx, edx
  00715	f7 71 70	 div	 DWORD PTR [ecx+112]
  00718	89 45 f8	 mov	 DWORD PTR _rt$[ebp], eax

; 178  : 	mixerClose(hmixer);

  0071b	8b f4		 mov	 esi, esp
  0071d	8b 55 f0	 mov	 edx, DWORD PTR _hmixer$[ebp]
  00720	52		 push	 edx
  00721	ff 15 00 00 00
	00		 call	 DWORD PTR __imp__mixerClose@4
  00727	3b f4		 cmp	 esi, esp
  00729	e8 00 00 00 00	 call	 __RTC_CheckEsp

; 179  : 	return   rt;    

  0072e	8b 45 f8	 mov	 eax, DWORD PTR _rt$[ebp]
$L189839:

; 180  : }

  00731	52		 push	 edx
  00732	8b cd		 mov	 ecx, ebp
  00734	50		 push	 eax
  00735	8d 15 00 00 00
	00		 lea	 edx, DWORD PTR $L190356
  0073b	e8 00 00 00 00	 call	 @_RTC_CheckStackVars@8
  00740	58		 pop	 eax
  00741	5a		 pop	 edx
  00742	5e		 pop	 esi
  00743	83 c4 14	 add	 esp, 20			; 00000014H
  00746	3b ec		 cmp	 ebp, esp
  00748	e8 00 00 00 00	 call	 __RTC_CheckEsp
  0074d	8b e5		 mov	 esp, ebp
  0074f	5d		 pop	 ebp
  00750	c2 04 00	 ret	 4
$L190356:
  00753	01 00 00 00	 DD	 1
  00757	00 00 00 00	 DD	 $L190355
$L190355:
  0075b	f0 ff ff ff	 DD	 -16			; fffffff0H
  0075f	04 00 00 00	 DD	 4
  00763	00 00 00 00	 DD	 $L190354
$L190354:
  00767	68		 DB	 104			; 00000068H
  00768	6d		 DB	 109			; 0000006dH
  00769	69		 DB	 105			; 00000069H
  0076a	78		 DB	 120			; 00000078H
  0076b	65		 DB	 101			; 00000065H
  0076c	72		 DB	 114			; 00000072H
  0076d	00		 DB	 0
?GetVolume@CSound@@QAEII@Z ENDP				; CSound::GetVolume
_TEXT	ENDS
PUBLIC	?SetVolume@CSound@@QAE_NJJ@Z			; CSound::SetVolume
; Function compile flags: /Odt /RTCsu
_TEXT	SEGMENT
_hmixer$ = -16						; size = 4
_rc$ = -5						; size = 1
_this$ = -4						; size = 4
_dev$ = 8						; size = 4
_vol$ = 12						; size = 4
?SetVolume@CSound@@QAE_NJJ@Z PROC NEAR			; CSound::SetVolume
; _this$ = ecx

; 184  : {   

  00770	55		 push	 ebp
  00771	8b ec		 mov	 ebp, esp
  00773	83 ec 14	 sub	 esp, 20			; 00000014H
  00776	56		 push	 esi
  00777	b8 cc cc cc cc	 mov	 eax, -858993460		; ccccccccH
  0077c	89 45 ec	 mov	 DWORD PTR [ebp-20], eax
  0077f	89 45 f0	 mov	 DWORD PTR [ebp-16], eax
  00782	89 45 f4	 mov	 DWORD PTR [ebp-12], eax
  00785	89 45 f8	 mov	 DWORD PTR [ebp-8], eax
  00788	89 45 fc	 mov	 DWORD PTR [ebp-4], eax
  0078b	89 4d fc	 mov	 DWORD PTR _this$[ebp], ecx

; 185  : 	bool rc=FALSE;

  0078e	c6 45 fb 00	 mov	 BYTE PTR _rc$[ebp], 0

; 186  : 	HMIXER hmixer;   
; 187  : 	if(!GetDevice(dev,hmixer))

  00792	8d 45 f0	 lea	 eax, DWORD PTR _hmixer$[ebp]
  00795	50		 push	 eax
  00796	8b 4d 08	 mov	 ecx, DWORD PTR _dev$[ebp]
  00799	51		 push	 ecx
  0079a	8b 4d fc	 mov	 ecx, DWORD PTR _this$[ebp]
  0079d	e8 00 00 00 00	 call	 ?GetDevice@CSound@@AAE_NHAAPAUHMIXER__@@@Z ; CSound::GetDevice
  007a2	0f b6 d0	 movzx	 edx, al
  007a5	85 d2		 test	 edx, edx
  007a7	75 04		 jne	 SHORT $L189851

; 188  : 		return FALSE;    

  007a9	32 c0		 xor	 al, al
  007ab	eb 73		 jmp	 SHORT $L189848
$L189851:

; 189  : 	if(GetVolumeControl(hmixer,m_device,MIXERCONTROL_CONTROLTYPE_VOLUME,&m_volCtrl))   

  007ad	8b 45 fc	 mov	 eax, DWORD PTR _this$[ebp]
  007b0	83 c0 08	 add	 eax, 8
  007b3	50		 push	 eax
  007b4	68 01 00 03 50	 push	 1342373889		; 50030001H
  007b9	8b 4d fc	 mov	 ecx, DWORD PTR _this$[ebp]
  007bc	8b 51 04	 mov	 edx, DWORD PTR [ecx+4]
  007bf	52		 push	 edx
  007c0	8b 45 f0	 mov	 eax, DWORD PTR _hmixer$[ebp]
  007c3	50		 push	 eax
  007c4	8b 4d fc	 mov	 ecx, DWORD PTR _this$[ebp]
  007c7	e8 00 00 00 00	 call	 ?GetVolumeControl@CSound@@QAE_NPAUHMIXER__@@JJPAUtagMIXERCONTROLA@@@Z ; CSound::GetVolumeControl
  007cc	0f b6 c8	 movzx	 ecx, al
  007cf	85 c9		 test	 ecx, ecx
  007d1	74 37		 je	 SHORT $L189852

; 190  : 	{   
; 191  : 		vol=vol*m_volCtrl.Bounds.lMaximum/100;   

  007d3	8b 55 fc	 mov	 edx, DWORD PTR _this$[ebp]
  007d6	8b 45 0c	 mov	 eax, DWORD PTR _vol$[ebp]
  007d9	0f af 42 70	 imul	 eax, DWORD PTR [edx+112]
  007dd	99		 cdq
  007de	b9 64 00 00 00	 mov	 ecx, 100		; 00000064H
  007e3	f7 f9		 idiv	 ecx
  007e5	89 45 0c	 mov	 DWORD PTR _vol$[ebp], eax

; 192  : 		if(SetVolumeValue(hmixer,&m_volCtrl,vol))   

  007e8	8b 55 0c	 mov	 edx, DWORD PTR _vol$[ebp]
  007eb	52		 push	 edx
  007ec	8b 45 fc	 mov	 eax, DWORD PTR _this$[ebp]
  007ef	83 c0 08	 add	 eax, 8
  007f2	50		 push	 eax
  007f3	8b 4d f0	 mov	 ecx, DWORD PTR _hmixer$[ebp]
  007f6	51		 push	 ecx
  007f7	8b 4d fc	 mov	 ecx, DWORD PTR _this$[ebp]
  007fa	e8 00 00 00 00	 call	 ?SetVolumeValue@CSound@@QAE_NPAUHMIXER__@@PAUtagMIXERCONTROLA@@J@Z ; CSound::SetVolumeValue
  007ff	0f b6 d0	 movzx	 edx, al
  00802	85 d2		 test	 edx, edx
  00804	74 04		 je	 SHORT $L189852

; 193  : 			rc=TRUE;   

  00806	c6 45 fb 01	 mov	 BYTE PTR _rc$[ebp], 1
$L189852:

; 194  : 	}   
; 195  : 	mixerClose(hmixer);

  0080a	8b f4		 mov	 esi, esp
  0080c	8b 45 f0	 mov	 eax, DWORD PTR _hmixer$[ebp]
  0080f	50		 push	 eax
  00810	ff 15 00 00 00
	00		 call	 DWORD PTR __imp__mixerClose@4
  00816	3b f4		 cmp	 esi, esp
  00818	e8 00 00 00 00	 call	 __RTC_CheckEsp

; 196  : 	return rc;   

  0081d	8a 45 fb	 mov	 al, BYTE PTR _rc$[ebp]
$L189848:

; 197  : }

  00820	52		 push	 edx
  00821	8b cd		 mov	 ecx, ebp
  00823	50		 push	 eax
  00824	8d 15 00 00 00
	00		 lea	 edx, DWORD PTR $L190360
  0082a	e8 00 00 00 00	 call	 @_RTC_CheckStackVars@8
  0082f	58		 pop	 eax
  00830	5a		 pop	 edx
  00831	5e		 pop	 esi
  00832	83 c4 14	 add	 esp, 20			; 00000014H
  00835	3b ec		 cmp	 ebp, esp
  00837	e8 00 00 00 00	 call	 __RTC_CheckEsp
  0083c	8b e5		 mov	 esp, ebp
  0083e	5d		 pop	 ebp
  0083f	c2 08 00	 ret	 8
$L190360:
  00842	01 00 00 00	 DD	 1
  00846	00 00 00 00	 DD	 $L190359
$L190359:
  0084a	f0 ff ff ff	 DD	 -16			; fffffff0H
  0084e	04 00 00 00	 DD	 4
  00852	00 00 00 00	 DD	 $L190358
$L190358:
  00856	68		 DB	 104			; 00000068H
  00857	6d		 DB	 109			; 0000006dH
  00858	69		 DB	 105			; 00000069H
  00859	78		 DB	 120			; 00000078H
  0085a	65		 DB	 101			; 00000065H
  0085b	72		 DB	 114			; 00000072H
  0085c	00		 DB	 0
?SetVolume@CSound@@QAE_NJJ@Z ENDP			; CSound::SetVolume
_TEXT	ENDS
PUBLIC	?SetMute@CSound@@QAE_NJ_N@Z			; CSound::SetMute
; Function compile flags: /Odt /RTCsu
_TEXT	SEGMENT
_hmixer$ = -16						; size = 4
_rc$ = -5						; size = 1
_this$ = -4						; size = 4
_dev$ = 8						; size = 4
_sound$ = 12						; size = 1
?SetMute@CSound@@QAE_NJ_N@Z PROC NEAR			; CSound::SetMute
; _this$ = ecx

; 201  : {

  00860	55		 push	 ebp
  00861	8b ec		 mov	 ebp, esp
  00863	83 ec 14	 sub	 esp, 20			; 00000014H
  00866	56		 push	 esi
  00867	b8 cc cc cc cc	 mov	 eax, -858993460		; ccccccccH
  0086c	89 45 ec	 mov	 DWORD PTR [ebp-20], eax
  0086f	89 45 f0	 mov	 DWORD PTR [ebp-16], eax
  00872	89 45 f4	 mov	 DWORD PTR [ebp-12], eax
  00875	89 45 f8	 mov	 DWORD PTR [ebp-8], eax
  00878	89 45 fc	 mov	 DWORD PTR [ebp-4], eax
  0087b	89 4d fc	 mov	 DWORD PTR _this$[ebp], ecx

; 202  : 	bool rc=FALSE; 

  0087e	c6 45 fb 00	 mov	 BYTE PTR _rc$[ebp], 0

; 203  : 	HMIXER hmixer;   
; 204  : 	if(!GetDevice(dev,hmixer))

  00882	8d 45 f0	 lea	 eax, DWORD PTR _hmixer$[ebp]
  00885	50		 push	 eax
  00886	8b 4d 08	 mov	 ecx, DWORD PTR _dev$[ebp]
  00889	51		 push	 ecx
  0088a	8b 4d fc	 mov	 ecx, DWORD PTR _this$[ebp]
  0088d	e8 00 00 00 00	 call	 ?GetDevice@CSound@@AAE_NHAAPAUHMIXER__@@@Z ; CSound::GetDevice
  00892	0f b6 d0	 movzx	 edx, al
  00895	85 d2		 test	 edx, edx
  00897	75 04		 jne	 SHORT $L189861

; 205  : 		return FALSE;

  00899	32 c0		 xor	 al, al
  0089b	eb 5e		 jmp	 SHORT $L189858
$L189861:

; 206  : 	if(GetVolumeControl(hmixer,m_device,MIXERCONTROL_CONTROLTYPE_MUTE,&m_volCtrl))

  0089d	8b 45 fc	 mov	 eax, DWORD PTR _this$[ebp]
  008a0	83 c0 08	 add	 eax, 8
  008a3	50		 push	 eax
  008a4	68 02 00 01 20	 push	 536936450		; 20010002H
  008a9	8b 4d fc	 mov	 ecx, DWORD PTR _this$[ebp]
  008ac	8b 51 04	 mov	 edx, DWORD PTR [ecx+4]
  008af	52		 push	 edx
  008b0	8b 45 f0	 mov	 eax, DWORD PTR _hmixer$[ebp]
  008b3	50		 push	 eax
  008b4	8b 4d fc	 mov	 ecx, DWORD PTR _this$[ebp]
  008b7	e8 00 00 00 00	 call	 ?GetVolumeControl@CSound@@QAE_NPAUHMIXER__@@JJPAUtagMIXERCONTROLA@@@Z ; CSound::GetVolumeControl
  008bc	0f b6 c8	 movzx	 ecx, al
  008bf	85 c9		 test	 ecx, ecx
  008c1	74 22		 je	 SHORT $L189862

; 207  : 		if(SetMuteValue(hmixer,&m_volCtrl,sound))   

  008c3	8a 55 0c	 mov	 dl, BYTE PTR _sound$[ebp]
  008c6	52		 push	 edx
  008c7	8b 45 fc	 mov	 eax, DWORD PTR _this$[ebp]
  008ca	83 c0 08	 add	 eax, 8
  008cd	50		 push	 eax
  008ce	8b 4d f0	 mov	 ecx, DWORD PTR _hmixer$[ebp]
  008d1	51		 push	 ecx
  008d2	8b 4d fc	 mov	 ecx, DWORD PTR _this$[ebp]
  008d5	e8 00 00 00 00	 call	 ?SetMuteValue@CSound@@QAE_NPAUHMIXER__@@PAUtagMIXERCONTROLA@@_N@Z ; CSound::SetMuteValue
  008da	0f b6 d0	 movzx	 edx, al
  008dd	85 d2		 test	 edx, edx
  008df	74 04		 je	 SHORT $L189862

; 208  : 			rc=TRUE;   

  008e1	c6 45 fb 01	 mov	 BYTE PTR _rc$[ebp], 1
$L189862:

; 209  : 	mixerClose(hmixer);   

  008e5	8b f4		 mov	 esi, esp
  008e7	8b 45 f0	 mov	 eax, DWORD PTR _hmixer$[ebp]
  008ea	50		 push	 eax
  008eb	ff 15 00 00 00
	00		 call	 DWORD PTR __imp__mixerClose@4
  008f1	3b f4		 cmp	 esi, esp
  008f3	e8 00 00 00 00	 call	 __RTC_CheckEsp

; 210  : 	return rc;   

  008f8	8a 45 fb	 mov	 al, BYTE PTR _rc$[ebp]
$L189858:

; 211  : }

  008fb	52		 push	 edx
  008fc	8b cd		 mov	 ecx, ebp
  008fe	50		 push	 eax
  008ff	8d 15 00 00 00
	00		 lea	 edx, DWORD PTR $L190364
  00905	e8 00 00 00 00	 call	 @_RTC_CheckStackVars@8
  0090a	58		 pop	 eax
  0090b	5a		 pop	 edx
  0090c	5e		 pop	 esi
  0090d	83 c4 14	 add	 esp, 20			; 00000014H
  00910	3b ec		 cmp	 ebp, esp
  00912	e8 00 00 00 00	 call	 __RTC_CheckEsp
  00917	8b e5		 mov	 esp, ebp
  00919	5d		 pop	 ebp
  0091a	c2 08 00	 ret	 8
$L190364:
  0091d	01 00 00 00	 DD	 1
  00921	00 00 00 00	 DD	 $L190363
$L190363:
  00925	f0 ff ff ff	 DD	 -16			; fffffff0H
  00929	04 00 00 00	 DD	 4
  0092d	00 00 00 00	 DD	 $L190362
$L190362:
  00931	68		 DB	 104			; 00000068H
  00932	6d		 DB	 109			; 0000006dH
  00933	69		 DB	 105			; 00000069H
  00934	78		 DB	 120			; 00000078H
  00935	65		 DB	 101			; 00000065H
  00936	72		 DB	 114			; 00000072H
  00937	00		 DB	 0
?SetMute@CSound@@QAE_NJ_N@Z ENDP			; CSound::SetMute
_TEXT	ENDS
PUBLIC	?GetMute@CSound@@QAE_NJ@Z			; CSound::GetMute
; Function compile flags: /Odt /RTCsu
_TEXT	SEGMENT
_hmixer$ = -16						; size = 4
_rc$ = -8						; size = 4
_this$ = -4						; size = 4
_dev$ = 8						; size = 4
?GetMute@CSound@@QAE_NJ@Z PROC NEAR			; CSound::GetMute
; _this$ = ecx

; 215  : { 

  00940	55		 push	 ebp
  00941	8b ec		 mov	 ebp, esp
  00943	83 ec 14	 sub	 esp, 20			; 00000014H
  00946	56		 push	 esi
  00947	b8 cc cc cc cc	 mov	 eax, -858993460		; ccccccccH
  0094c	89 45 ec	 mov	 DWORD PTR [ebp-20], eax
  0094f	89 45 f0	 mov	 DWORD PTR [ebp-16], eax
  00952	89 45 f4	 mov	 DWORD PTR [ebp-12], eax
  00955	89 45 f8	 mov	 DWORD PTR [ebp-8], eax
  00958	89 45 fc	 mov	 DWORD PTR [ebp-4], eax
  0095b	89 4d fc	 mov	 DWORD PTR _this$[ebp], ecx

; 216  : 	long rc=0;  

  0095e	c7 45 f8 00 00
	00 00		 mov	 DWORD PTR _rc$[ebp], 0

; 217  : 	HMIXER hmixer;   
; 218  : 	if(!GetDevice(dev,hmixer))

  00965	8d 45 f0	 lea	 eax, DWORD PTR _hmixer$[ebp]
  00968	50		 push	 eax
  00969	8b 4d 08	 mov	 ecx, DWORD PTR _dev$[ebp]
  0096c	51		 push	 ecx
  0096d	8b 4d fc	 mov	 ecx, DWORD PTR _this$[ebp]
  00970	e8 00 00 00 00	 call	 ?GetDevice@CSound@@AAE_NHAAPAUHMIXER__@@@Z ; CSound::GetDevice
  00975	0f b6 d0	 movzx	 edx, al
  00978	85 d2		 test	 edx, edx
  0097a	75 04		 jne	 SHORT $L189870

; 219  : 		return false; 

  0097c	32 c0		 xor	 al, al
  0097e	eb 5b		 jmp	 SHORT $L189867
$L189870:

; 220  : 	if(GetVolumeControl(hmixer,m_device,MIXERCONTROL_CONTROLTYPE_MUTE,&m_volCtrl))   

  00980	8b 45 fc	 mov	 eax, DWORD PTR _this$[ebp]
  00983	83 c0 08	 add	 eax, 8
  00986	50		 push	 eax
  00987	68 02 00 01 20	 push	 536936450		; 20010002H
  0098c	8b 4d fc	 mov	 ecx, DWORD PTR _this$[ebp]
  0098f	8b 51 04	 mov	 edx, DWORD PTR [ecx+4]
  00992	52		 push	 edx
  00993	8b 45 f0	 mov	 eax, DWORD PTR _hmixer$[ebp]
  00996	50		 push	 eax
  00997	8b 4d fc	 mov	 ecx, DWORD PTR _this$[ebp]
  0099a	e8 00 00 00 00	 call	 ?GetVolumeControl@CSound@@QAE_NPAUHMIXER__@@JJPAUtagMIXERCONTROLA@@@Z ; CSound::GetVolumeControl
  0099f	0f b6 c8	 movzx	 ecx, al
  009a2	85 c9		 test	 ecx, ecx
  009a4	74 16		 je	 SHORT $L189871

; 221  : 		rc=GetMuteValue(hmixer,&m_volCtrl);

  009a6	8b 55 fc	 mov	 edx, DWORD PTR _this$[ebp]
  009a9	83 c2 08	 add	 edx, 8
  009ac	52		 push	 edx
  009ad	8b 45 f0	 mov	 eax, DWORD PTR _hmixer$[ebp]
  009b0	50		 push	 eax
  009b1	8b 4d fc	 mov	 ecx, DWORD PTR _this$[ebp]
  009b4	e8 00 00 00 00	 call	 ?GetMuteValue@CSound@@QAEJPAUHMIXER__@@PAUtagMIXERCONTROLA@@@Z ; CSound::GetMuteValue
  009b9	89 45 f8	 mov	 DWORD PTR _rc$[ebp], eax
$L189871:

; 222  : 	mixerClose(hmixer);

  009bc	8b f4		 mov	 esi, esp
  009be	8b 4d f0	 mov	 ecx, DWORD PTR _hmixer$[ebp]
  009c1	51		 push	 ecx
  009c2	ff 15 00 00 00
	00		 call	 DWORD PTR __imp__mixerClose@4
  009c8	3b f4		 cmp	 esi, esp
  009ca	e8 00 00 00 00	 call	 __RTC_CheckEsp

; 223  : 	if(rc)

  009cf	83 7d f8 00	 cmp	 DWORD PTR _rc$[ebp], 0
  009d3	74 04		 je	 SHORT $L189872

; 224  : 		return true;

  009d5	b0 01		 mov	 al, 1
  009d7	eb 02		 jmp	 SHORT $L189867
$L189872:

; 225  : 
; 226  : 	return false;

  009d9	32 c0		 xor	 al, al
$L189867:

; 227  : }

  009db	52		 push	 edx
  009dc	8b cd		 mov	 ecx, ebp
  009de	50		 push	 eax
  009df	8d 15 00 00 00
	00		 lea	 edx, DWORD PTR $L190368
  009e5	e8 00 00 00 00	 call	 @_RTC_CheckStackVars@8
  009ea	58		 pop	 eax
  009eb	5a		 pop	 edx
  009ec	5e		 pop	 esi
  009ed	83 c4 14	 add	 esp, 20			; 00000014H
  009f0	3b ec		 cmp	 ebp, esp
  009f2	e8 00 00 00 00	 call	 __RTC_CheckEsp
  009f7	8b e5		 mov	 esp, ebp
  009f9	5d		 pop	 ebp
  009fa	c2 04 00	 ret	 4
$L190368:
  009fd	01 00 00 00	 DD	 1
  00a01	00 00 00 00	 DD	 $L190367
$L190367:
  00a05	f0 ff ff ff	 DD	 -16			; fffffff0H
  00a09	04 00 00 00	 DD	 4
  00a0d	00 00 00 00	 DD	 $L190366
$L190366:
  00a11	68		 DB	 104			; 00000068H
  00a12	6d		 DB	 109			; 0000006dH
  00a13	69		 DB	 105			; 00000069H
  00a14	78		 DB	 120			; 00000078H
  00a15	65		 DB	 101			; 00000065H
  00a16	72		 DB	 114			; 00000072H
  00a17	00		 DB	 0
?GetMute@CSound@@QAE_NJ@Z ENDP				; CSound::GetMute
_TEXT	ENDS
END
