; Listing generated by Microsoft (R) Optimizing Compiler Version 13.10.3077 

	TITLE	.\src\LayoutMgr\ChangeColor\StaticTextEx.cpp
	.386P
include listing.inc
if @Version gt 510
.model FLAT
else
_TEXT	SEGMENT PARA USE32 PUBLIC 'CODE'
_TEXT	ENDS
_DATA	SEGMENT DWORD USE32 PUBLIC 'DATA'
_DATA	ENDS
CONST	SEGMENT DWORD USE32 PUBLIC 'CONST'
CONST	ENDS
_BSS	SEGMENT DWORD USE32 PUBLIC 'BSS'
_BSS	ENDS
$$SYMBOLS	SEGMENT BYTE USE32 'DEBSYM'
$$SYMBOLS	ENDS
_TLS	SEGMENT DWORD USE32 PUBLIC 'TLS'
_TLS	ENDS
;	COMDAT ??_C@_0M@GOJCFFEC@iStart?5?$DO?$DN?50?$AA@
CONST	SEGMENT DWORD USE32 PUBLIC 'CONST'
CONST	ENDS
;	COMDAT ??_C@_0BL@PKIBFLAK@AtlIsValidString?$CI?5pszSub?5?$CJ?$AA@
CONST	SEGMENT DWORD USE32 PUBLIC 'CONST'
CONST	ENDS
;	COMDAT ??_C@_0EN@IBFBLEEG@D?3?2Program?5Files?5?$CIx86?$CJ?2Microsoft@
CONST	SEGMENT DWORD USE32 PUBLIC 'CONST'
CONST	ENDS
;	COMDAT ??_C@_0BI@GIMJKKKN@AtlIsValidString?$CI?5psz?5?$CJ?$AA@
CONST	SEGMENT DWORD USE32 PUBLIC 'CONST'
CONST	ENDS
rdata$r	SEGMENT DWORD USE32 PUBLIC 'CONST'
rdata$r	ENDS
xdata$x	SEGMENT DWORD USE32 PUBLIC 'CONST'
xdata$x	ENDS
text$AFX_COL1	SEGMENT PARA USE32 PUBLIC ''
text$AFX_COL1	ENDS
text$yc	SEGMENT PARA USE32 PUBLIC 'CODE'
text$yc	ENDS
CRT$XCA	SEGMENT DWORD USE32 PUBLIC 'DATA'
CRT$XCA	ENDS
CRT$XCU	SEGMENT DWORD USE32 PUBLIC 'DATA'
CRT$XCU	ENDS
CRT$XCL	SEGMENT DWORD USE32 PUBLIC 'DATA'
CRT$XCL	ENDS
CRT$XCC	SEGMENT DWORD USE32 PUBLIC 'DATA'
CRT$XCC	ENDS
CRT$XCZ	SEGMENT DWORD USE32 PUBLIC 'DATA'
CRT$XCZ	ENDS
text$yd	SEGMENT PARA USE32 PUBLIC 'CODE'
text$yd	ENDS
ATL$__m	SEGMENT DWORD USE32 PUBLIC ''
ATL$__m	ENDS
ATL$__z	SEGMENT DWORD USE32 PUBLIC ''
ATL$__z	ENDS
ATL$__a	SEGMENT DWORD USE32 PUBLIC ''
ATL$__a	ENDS
;	COMDAT ??1DIBINFO@@UAE@XZ
_TEXT	SEGMENT PARA USE32 PUBLIC 'CODE'
_TEXT	ENDS
;	COMDAT ??_GDIBINFO@@UAEPAXI@Z
_TEXT	SEGMENT PARA USE32 PUBLIC 'CODE'
_TEXT	ENDS
;	COMDAT ??_GCStaticText@@UAEPAXI@Z
_TEXT	SEGMENT PARA USE32 PUBLIC 'CODE'
_TEXT	ENDS
;	COMDAT ??HATL@@YA?AV?$CStringT@DV?$StrTraitMFC_DLL@DV?$ChTraitsCRT@D@ATL@@@@@0@PBDABV10@@Z
_TEXT	SEGMENT PARA USE32 PUBLIC 'CODE'
_TEXT	ENDS
;	COMDAT ??9ATL@@YA_NABV?$CStringT@DV?$StrTraitMFC_DLL@DV?$ChTraitsCRT@D@ATL@@@@@0@0@Z
_TEXT	SEGMENT PARA USE32 PUBLIC 'CODE'
_TEXT	ENDS
;	COMDAT ??B?$CComPtrBase@UITypeInfo2@@@ATL@@QBEPAUITypeInfo2@@XZ
_TEXT	SEGMENT PARA USE32 PUBLIC 'CODE'
_TEXT	ENDS
;	COMDAT ?equal@?$istreambuf_iterator@DU?$char_traits@D@std@@@std@@QBE_NABV12@@Z
_TEXT	SEGMENT PARA USE32 PUBLIC 'CODE'
_TEXT	ENDS
;	COMDAT ?equal@?$istreambuf_iterator@_WU?$char_traits@_W@std@@@std@@QBE_NABV12@@Z
_TEXT	SEGMENT PARA USE32 PUBLIC 'CODE'
_TEXT	ENDS
;	COMDAT ?StringFindString@?$ChTraitsCRT@D@ATL@@SAPBDPBD0@Z
_TEXT	SEGMENT PARA USE32 PUBLIC 'CODE'
_TEXT	ENDS
;	COMDAT ?StringCompare@?$ChTraitsCRT@D@ATL@@SAHPBD0@Z
_TEXT	SEGMENT PARA USE32 PUBLIC 'CODE'
_TEXT	ENDS
;	COMDAT ?Unlock@?$CComCritSecLock@VCComCriticalSection@ATL@@@ATL@@QAEXXZ
_TEXT	SEGMENT PARA USE32 PUBLIC 'CODE'
_TEXT	ENDS
;	COMDAT ??$_Maklocstr@D@std@@YAPADPBDPADABU_Cvtvec@@@Z
_TEXT	SEGMENT PARA USE32 PUBLIC 'CODE'
_TEXT	ENDS
;	COMDAT ??_R3CStaticText@@8
rdata$r	SEGMENT DWORD USE32 PUBLIC 'CONST'
rdata$r	ENDS
;	COMDAT ??_R3?$numpunct@_W@std@@8
rdata$r	SEGMENT DWORD USE32 PUBLIC 'CONST'
rdata$r	ENDS
;	COMDAT ??_R3?$numpunct@D@std@@8
rdata$r	SEGMENT DWORD USE32 PUBLIC 'CONST'
rdata$r	ENDS
;	COMDAT ??_R3DIBINFO@@8
rdata$r	SEGMENT DWORD USE32 PUBLIC 'CONST'
rdata$r	ENDS
;	COMDAT ??_R2CStaticText@@8
rdata$r	SEGMENT DWORD USE32 PUBLIC 'CONST'
rdata$r	ENDS
;	COMDAT ??_R2?$numpunct@_W@std@@8
rdata$r	SEGMENT DWORD USE32 PUBLIC 'CONST'
rdata$r	ENDS
;	COMDAT ??_R2?$numpunct@D@std@@8
rdata$r	SEGMENT DWORD USE32 PUBLIC 'CONST'
rdata$r	ENDS
;	COMDAT ??_R2DIBINFO@@8
rdata$r	SEGMENT DWORD USE32 PUBLIC 'CONST'
rdata$r	ENDS
;	COMDAT ??_R1A@?0A@A@CObject@@8
rdata$r	SEGMENT DWORD USE32 PUBLIC 'CONST'
rdata$r	ENDS
;	COMDAT ??_R0?AVCObject@@@8
_DATA	SEGMENT DWORD USE32 PUBLIC 'DATA'
_DATA	ENDS
;	COMDAT ??_R1A@?0A@A@CCmdTarget@@8
rdata$r	SEGMENT DWORD USE32 PUBLIC 'CONST'
rdata$r	ENDS
;	COMDAT ??_R0?AVCCmdTarget@@@8
_DATA	SEGMENT DWORD USE32 PUBLIC 'DATA'
_DATA	ENDS
;	COMDAT ??_R1A@?0A@A@CWnd@@8
rdata$r	SEGMENT DWORD USE32 PUBLIC 'CONST'
rdata$r	ENDS
;	COMDAT ??_R0?AVCWnd@@@8
_DATA	SEGMENT DWORD USE32 PUBLIC 'DATA'
_DATA	ENDS
;	COMDAT ??_R1A@?0A@A@CStatic@@8
rdata$r	SEGMENT DWORD USE32 PUBLIC 'CONST'
rdata$r	ENDS
;	COMDAT ??_R1A@?0A@A@CStaticText@@8
rdata$r	SEGMENT DWORD USE32 PUBLIC 'CONST'
rdata$r	ENDS
;	COMDAT ??_R1A@?0A@A@?$numpunct@_W@std@@8
rdata$r	SEGMENT DWORD USE32 PUBLIC 'CONST'
rdata$r	ENDS
;	COMDAT ??_R1A@?0A@A@facet@locale@std@@8
rdata$r	SEGMENT DWORD USE32 PUBLIC 'CONST'
rdata$r	ENDS
;	COMDAT ??_R0?AVfacet@locale@std@@@8
_DATA	SEGMENT DWORD USE32 PUBLIC 'DATA'
_DATA	ENDS
;	COMDAT ??_R1A@?0A@A@?$numpunct@D@std@@8
rdata$r	SEGMENT DWORD USE32 PUBLIC 'CONST'
rdata$r	ENDS
;	COMDAT ??_R1A@?0A@A@DIBINFO@@8
rdata$r	SEGMENT DWORD USE32 PUBLIC 'CONST'
rdata$r	ENDS
;	COMDAT ??_R0?AVCStatic@@@8
_DATA	SEGMENT DWORD USE32 PUBLIC 'DATA'
_DATA	ENDS
;	COMDAT ??_R0?AVCStaticText@@@8
_DATA	SEGMENT DWORD USE32 PUBLIC 'DATA'
_DATA	ENDS
;	COMDAT ??_R0?AV?$numpunct@_W@std@@@8
_DATA	SEGMENT DWORD USE32 PUBLIC 'DATA'
_DATA	ENDS
;	COMDAT ??_R0?AV?$numpunct@D@std@@@8
_DATA	SEGMENT DWORD USE32 PUBLIC 'DATA'
_DATA	ENDS
;	COMDAT ??_R0?AVDIBINFO@@@8
_DATA	SEGMENT DWORD USE32 PUBLIC 'DATA'
_DATA	ENDS
;	COMDAT ??_R4CStaticText@@6B@
rdata$r	SEGMENT DWORD USE32 PUBLIC 'CONST'
rdata$r	ENDS
;	COMDAT ??0?$allocator@_W@std@@QAE@XZ
_TEXT	SEGMENT PARA USE32 PUBLIC 'CODE'
_TEXT	ENDS
;	COMDAT ??_G?$numpunct@_W@std@@MAEPAXI@Z
_TEXT	SEGMENT PARA USE32 PUBLIC 'CODE'
_TEXT	ENDS
;	COMDAT ??_R4?$numpunct@_W@std@@6B@
rdata$r	SEGMENT DWORD USE32 PUBLIC 'CONST'
rdata$r	ENDS
;	COMDAT ??_G?$numpunct@D@std@@MAEPAXI@Z
_TEXT	SEGMENT PARA USE32 PUBLIC 'CODE'
_TEXT	ENDS
;	COMDAT ??_R4?$numpunct@D@std@@6B@
rdata$r	SEGMENT DWORD USE32 PUBLIC 'CONST'
rdata$r	ENDS
;	COMDAT ??_R4DIBINFO@@6B@
rdata$r	SEGMENT DWORD USE32 PUBLIC 'CONST'
rdata$r	ENDS
;	COMDAT ??_C@_0EN@CBMLGOH@D?3?2Program?5Files?5?$CIx86?$CJ?2Microsoft@
CONST	SEGMENT DWORD USE32 PUBLIC 'CONST'
CONST	ENDS
;	COMDAT ?_Psave@?$_Facetptr@V?$numpunct@_W@std@@@std@@2PBVfacet@locale@2@B
_DATA	SEGMENT DWORD USE32 PUBLIC 'DATA'
_DATA	ENDS
;	COMDAT ?_Psave@?$_Facetptr@V?$numpunct@D@std@@@std@@2PBVfacet@locale@2@B
_DATA	SEGMENT DWORD USE32 PUBLIC 'DATA'
_DATA	ENDS
;	COMDAT ?Unlock@CComCriticalSection@ATL@@QAEJXZ
_TEXT	SEGMENT PARA USE32 PUBLIC 'CODE'
_TEXT	ENDS
;	COMDAT ??_C@_0FG@LDNDNCJM@D?3?2Program?5Files?5?$CIx86?$CJ?2Microsoft@
CONST	SEGMENT DWORD USE32 PUBLIC 'CONST'
CONST	ENDS
;	COMDAT ??_C@_09HIEJFN@m_bLocked?$AA@
CONST	SEGMENT DWORD USE32 PUBLIC 'CONST'
CONST	ENDS
;	COMDAT ?_Psave@?$_Facetptr@V?$ctype@_W@std@@@std@@2PBVfacet@locale@2@B
_DATA	SEGMENT DWORD USE32 PUBLIC 'DATA'
_DATA	ENDS
;	COMDAT ?_Psave@?$_Facetptr@V?$ctype@D@std@@@std@@2PBVfacet@locale@2@B
_DATA	SEGMENT DWORD USE32 PUBLIC 'DATA'
_DATA	ENDS
;	COMDAT ??$_Maklocchr@_W@std@@YA_WDPA_WABU_Cvtvec@@@Z
_TEXT	SEGMENT PARA USE32 PUBLIC 'CODE'
_TEXT	ENDS
;	COMDAT ??$_DebugHeapDelete@X@std@@YAXPAX@Z
_TEXT	SEGMENT PARA USE32 PUBLIC 'CODE'
_TEXT	ENDS
;	COMDAT ??$_Maklocstr@_W@std@@YAPA_WPBDPA_WABU_Cvtvec@@@Z
_TEXT	SEGMENT PARA USE32 PUBLIC 'CODE'
_TEXT	ENDS
;	COMDAT ??$_Maklocchr@D@std@@YADDPADABU_Cvtvec@@@Z
_TEXT	SEGMENT PARA USE32 PUBLIC 'CODE'
_TEXT	ENDS
;	COMDAT ??_C@_04LOAJBDKD@true?$AA@
CONST	SEGMENT DWORD USE32 PUBLIC 'CONST'
CONST	ENDS
;	COMDAT ??_C@_05LAPONLG@false?$AA@
CONST	SEGMENT DWORD USE32 PUBLIC 'CONST'
CONST	ENDS
;	COMDAT _wmemcpy
_TEXT	SEGMENT PARA USE32 PUBLIC 'CODE'
_TEXT	ENDS
;	COMDAT ?max_size@?$allocator@_W@std@@QBEIXZ
_TEXT	SEGMENT PARA USE32 PUBLIC 'CODE'
_TEXT	ENDS
;	COMDAT ?allocate@?$allocator@_W@std@@QAEPA_WI@Z
_TEXT	SEGMENT PARA USE32 PUBLIC 'CODE'
_TEXT	ENDS
;	COMDAT ??$_Allocate@_W@std@@YAPA_WIPA_W@Z
_TEXT	SEGMENT PARA USE32 PUBLIC 'CODE'
_TEXT	ENDS
;	COMDAT ??_C@_01GFHCPBMG@C?$AA@
CONST	SEGMENT DWORD USE32 PUBLIC 'CONST'
CONST	ENDS
;	COMDAT ?max_size@?$allocator@D@std@@QBEIXZ
_TEXT	SEGMENT PARA USE32 PUBLIC 'CODE'
_TEXT	ENDS
;	COMDAT ?allocate@?$allocator@D@std@@QAEPADI@Z
_TEXT	SEGMENT PARA USE32 PUBLIC 'CODE'
_TEXT	ENDS
;	COMDAT ??$_Allocate@D@std@@YAPADIPAD@Z
_TEXT	SEGMENT PARA USE32 PUBLIC 'CODE'
_TEXT	ENDS
;	COMDAT ?deallocate@?$allocator@D@std@@QAEXPADI@Z
_TEXT	SEGMENT PARA USE32 PUBLIC 'CODE'
_TEXT	ENDS
;	COMDAT ?Release@CStringData@ATL@@QAEXXZ
_TEXT	SEGMENT PARA USE32 PUBLIC 'CODE'
_TEXT	ENDS
;	COMDAT ??_C@_0L@OIIMFBNE@nRefs?5?$CB?$DN?50?$AA@
CONST	SEGMENT DWORD USE32 PUBLIC 'CONST'
CONST	ENDS
;	COMDAT ??_C@_0FJ@DMHPDOJC@D?3?2Program?5Files?5?$CIx86?$CJ?2Microsoft@
CONST	SEGMENT DWORD USE32 PUBLIC 'CONST'
CONST	ENDS
;	COMDAT ??_C@_0BA@GOIMFHNK@pStringMgr?5?$CB?$DN?50?$AA@
CONST	SEGMENT DWORD USE32 PUBLIC 'CONST'
CONST	ENDS
;	COMDAT ?data@CStringData@ATL@@QAEPAXXZ
_TEXT	SEGMENT PARA USE32 PUBLIC 'CODE'
_TEXT	ENDS
;	COMDAT ??_C@_0BA@GNIEOBOF@nNewLength?5?$DO?$DN?50?$AA@
CONST	SEGMENT DWORD USE32 PUBLIC 'CONST'
CONST	ENDS
;	COMDAT ??_C@_0N@ILOMLJGA@nLength?5?$DO?$DN?50?$AA@
CONST	SEGMENT DWORD USE32 PUBLIC 'CONST'
CONST	ENDS
;	COMDAT ??_C@_0CD@EEFFJEGJ@nLength?5?$DM?$DN?5GetData?$CI?$CJ?9?$DOnAllocLeng@
CONST	SEGMENT DWORD USE32 PUBLIC 'CONST'
CONST	ENDS
;	COMDAT ?AtlThrow@ATL@@YGXJ@Z
_TEXT	SEGMENT PARA USE32 PUBLIC 'CODE'
_TEXT	ENDS
;	COMDAT ??RCTraceFileAndLineInfo@ATL@@QBAXKIPBDZZ
_TEXT	SEGMENT PARA USE32 PUBLIC 'CODE'
_TEXT	ENDS
;	COMDAT ?TraceV@CTrace@ATL@@QBAXPBDHKI0PAD@Z
_TEXT	SEGMENT PARA USE32 PUBLIC 'CODE'
_TEXT	ENDS
;	COMDAT ??0CTraceFileAndLineInfo@ATL@@QAE@PBDH@Z
_TEXT	SEGMENT PARA USE32 PUBLIC 'CODE'
_TEXT	ENDS
;	COMDAT ??_C@_0FI@NHHJANPC@D?3?2Program?5Files?5?$CIx86?$CJ?2Microsoft@
CONST	SEGMENT DWORD USE32 PUBLIC 'CONST'
CONST	ENDS
;	COMDAT ??_C@_0BF@IAAKIJDJ@AtlThrow?3?5hr?5?$DN?50x?$CFx?6?$AA@
CONST	SEGMENT DWORD USE32 PUBLIC 'CONST'
CONST	ENDS
;	COMDAT ??BCTraceCategory@ATL@@QBEKXZ
_TEXT	SEGMENT PARA USE32 PUBLIC 'CODE'
_TEXT	ENDS
;	COMDAT ?IsShared@CStringData@ATL@@QBE_NXZ
_TEXT	SEGMENT PARA USE32 PUBLIC 'CODE'
_TEXT	ENDS
;	COMDAT ??_C@_0CB@GFHAPKDK@pOldData?9?$DOnAllocLength?5?$DM?5nLength@
CONST	SEGMENT DWORD USE32 PUBLIC 'CONST'
CONST	ENDS
;	COMDAT ?_Peek@?$istreambuf_iterator@_WU?$char_traits@_W@std@@@std@@AAE_WXZ
_TEXT	SEGMENT PARA USE32 PUBLIC 'CODE'
_TEXT	ENDS
;	COMDAT ?_Peek@?$istreambuf_iterator@DU?$char_traits@D@std@@@std@@AAEDXZ
_TEXT	SEGMENT PARA USE32 PUBLIC 'CODE'
_TEXT	ENDS
;	COMDAT ??$use_facet@V?$ctype@_W@std@@@std@@YAABV?$ctype@_W@0@ABVlocale@0@@Z
_TEXT	SEGMENT PARA USE32 PUBLIC 'CODE'
_TEXT	ENDS
;	COMDAT ??_S?$ctype@_W@std@@6B@
CONST	SEGMENT DWORD USE32 PUBLIC 'CONST'
CONST	ENDS
;	COMDAT ??_R4?$ctype@_W@std@@6B@
rdata$r	SEGMENT DWORD USE32 PUBLIC 'CONST'
rdata$r	ENDS
;	COMDAT ??_R0?AV?$ctype@_W@std@@@8
_DATA	SEGMENT DWORD USE32 PUBLIC 'DATA'
_DATA	ENDS
;	COMDAT ??_R3?$ctype@_W@std@@8
rdata$r	SEGMENT DWORD USE32 PUBLIC 'CONST'
rdata$r	ENDS
;	COMDAT ??_R2?$ctype@_W@std@@8
rdata$r	SEGMENT DWORD USE32 PUBLIC 'CONST'
rdata$r	ENDS
;	COMDAT ??_R1A@?0A@A@?$ctype@_W@std@@8
rdata$r	SEGMENT DWORD USE32 PUBLIC 'CONST'
rdata$r	ENDS
;	COMDAT ??_R1A@?0A@A@ctype_base@std@@8
rdata$r	SEGMENT DWORD USE32 PUBLIC 'CONST'
rdata$r	ENDS
;	COMDAT ??_R0?AUctype_base@std@@@8
_DATA	SEGMENT DWORD USE32 PUBLIC 'DATA'
_DATA	ENDS
;	COMDAT ??_G?$ctype@_W@std@@MAEPAXI@Z
_TEXT	SEGMENT PARA USE32 PUBLIC 'CODE'
_TEXT	ENDS
;	COMDAT ??_C@_08EPJLHIJG@bad?5cast?$AA@
CONST	SEGMENT DWORD USE32 PUBLIC 'CONST'
CONST	ENDS
;	COMDAT __TI2?AVbad_cast@@
xdata$x	SEGMENT DWORD USE32 PUBLIC 'CONST'
xdata$x	ENDS
;	COMDAT __CTA2?AVbad_cast@@
xdata$x	SEGMENT DWORD USE32 PUBLIC 'CONST'
xdata$x	ENDS
;	COMDAT __CT??_R0?AVbad_cast@@@8??0bad_cast@@QAE@ABV0@@Z12
xdata$x	SEGMENT DWORD USE32 PUBLIC 'CONST'
xdata$x	ENDS
;	COMDAT ??_R0?AVbad_cast@@@8
_DATA	SEGMENT DWORD USE32 PUBLIC 'DATA'
_DATA	ENDS
;	COMDAT __CT??_R0?AVexception@@@8??0exception@@QAE@ABV0@@Z12
xdata$x	SEGMENT DWORD USE32 PUBLIC 'CONST'
xdata$x	ENDS
;	COMDAT ??_R0?AVexception@@@8
_DATA	SEGMENT DWORD USE32 PUBLIC 'DATA'
_DATA	ENDS
;	COMDAT ??$_DebugHeapDelete@Vfacet@locale@std@@@std@@YAXPAVfacet@locale@0@@Z
_TEXT	SEGMENT PARA USE32 PUBLIC 'CODE'
_TEXT	ENDS
;	COMDAT ??$use_facet@V?$ctype@D@std@@@std@@YAABV?$ctype@D@0@ABVlocale@0@@Z
_TEXT	SEGMENT PARA USE32 PUBLIC 'CODE'
_TEXT	ENDS
;	COMDAT ??_S?$ctype@D@std@@6B@
CONST	SEGMENT DWORD USE32 PUBLIC 'CONST'
CONST	ENDS
;	COMDAT ??_R4?$ctype@D@std@@6B@
rdata$r	SEGMENT DWORD USE32 PUBLIC 'CONST'
rdata$r	ENDS
;	COMDAT ??_R0?AV?$ctype@D@std@@@8
_DATA	SEGMENT DWORD USE32 PUBLIC 'DATA'
_DATA	ENDS
;	COMDAT ??_R3?$ctype@D@std@@8
rdata$r	SEGMENT DWORD USE32 PUBLIC 'CONST'
rdata$r	ENDS
;	COMDAT ??_R2?$ctype@D@std@@8
rdata$r	SEGMENT DWORD USE32 PUBLIC 'CONST'
rdata$r	ENDS
;	COMDAT ??_R1A@?0A@A@?$ctype@D@std@@8
rdata$r	SEGMENT DWORD USE32 PUBLIC 'CONST'
rdata$r	ENDS
;	COMDAT ??_G?$ctype@D@std@@MAEPAXI@Z
_TEXT	SEGMENT PARA USE32 PUBLIC 'CODE'
_TEXT	ENDS
;	COMDAT ??_S?$numpunct@_W@std@@6B@
CONST	SEGMENT DWORD USE32 PUBLIC 'CONST'
CONST	ENDS
;	COMDAT ??_S?$numpunct@D@std@@6B@
CONST	SEGMENT DWORD USE32 PUBLIC 'CONST'
CONST	ENDS
;	COMDAT _wmemmove
_TEXT	SEGMENT PARA USE32 PUBLIC 'CODE'
_TEXT	ENDS
;	COMDAT ?deallocate@?$allocator@_W@std@@QAEXPA_WI@Z
_TEXT	SEGMENT PARA USE32 PUBLIC 'CODE'
_TEXT	ENDS
;	COMDAT ??0?$allocator@_W@std@@QAE@ABV01@@Z
_TEXT	SEGMENT PARA USE32 PUBLIC 'CODE'
_TEXT	ENDS
;	COMDAT ?AtlIsValidString@ATL@@YAHPBDI@Z
_TEXT	SEGMENT PARA USE32 PUBLIC 'CODE'
_TEXT	ENDS
;	COMDAT ??_C@_0FH@KDPNIMBO@D?3?2Program?5Files?5?$CIx86?$CJ?2Microsoft@
CONST	SEGMENT DWORD USE32 PUBLIC 'CONST'
CONST	ENDS
;	COMDAT ??0?$allocator@D@std@@QAE@ABV01@@Z
_TEXT	SEGMENT PARA USE32 PUBLIC 'CODE'
_TEXT	ENDS
;	COMDAT ??0?$allocator@D@std@@QAE@XZ
_TEXT	SEGMENT PARA USE32 PUBLIC 'CODE'
_TEXT	ENDS
;	COMDAT ?IsLocked@CStringData@ATL@@QBE_NXZ
_TEXT	SEGMENT PARA USE32 PUBLIC 'CODE'
_TEXT	ENDS
;	COMDAT ?AddRef@CStringData@ATL@@QAEXXZ
_TEXT	SEGMENT PARA USE32 PUBLIC 'CODE'
_TEXT	ENDS
;	COMDAT ??_C@_09EEBKLCFA@nRefs?5?$DO?50?$AA@
CONST	SEGMENT DWORD USE32 PUBLIC 'CONST'
CONST	ENDS
;	COMDAT ?_messageEntries@CStaticText@@0QBUAFX_MSGMAP_ENTRY@@B
CONST	SEGMENT DWORD USE32 PUBLIC 'CONST'
CONST	ENDS
;	COMDAT ?messageMap@CStaticText@@1UAFX_MSGMAP@@B
CONST	SEGMENT DWORD USE32 PUBLIC 'CONST'
CONST	ENDS
;	COMDAT ?GetDefaultManager@?$StrTraitMFC_DLL@DV?$ChTraitsCRT@D@ATL@@@@SAPAUIAtlStringMgr@ATL@@XZ
_TEXT	SEGMENT PARA USE32 PUBLIC 'CODE'
_TEXT	ENDS
;	COMDAT ??_7CStaticText@@6B@
CONST	SEGMENT DWORD USE32 PUBLIC 'CONST'
CONST	ENDS
;	COMDAT ??_7DIBINFO@@6B@
CONST	SEGMENT DWORD USE32 PUBLIC 'CONST'
CONST	ENDS
sxdata	SEGMENT DWORD USE32 'SXDATA'
sxdata	ENDS
FLAT	GROUP _DATA, CONST, _BSS
	ASSUME	CS: FLAT, DS: FLAT, SS: FLAT
endif

INCLUDELIB MSVCRTD
INCLUDELIB OLDNAMES

PUBLIC	?OnEraseBkgnd@CStaticText@@IAEHPAVCDC@@@Z	; CStaticText::OnEraseBkgnd
PUBLIC	?CtlColor@CStaticText@@IAEPAUHBRUSH__@@PAVCDC@@I@Z ; CStaticText::CtlColor
PUBLIC	?OnMouseMove@CStaticText@@IAEXIVCPoint@@@Z	; CStaticText::OnMouseMove
PUBLIC	?OnLButtonDown@CStaticText@@IAEXIVCPoint@@@Z	; CStaticText::OnLButtonDown
PUBLIC	?OnLButtonUp@CStaticText@@IAEXIVCPoint@@@Z	; CStaticText::OnLButtonUp
PUBLIC	?_messageEntries@CStaticText@@0QBUAFX_MSGMAP_ENTRY@@B ; CStaticText::_messageEntries
PUBLIC	?messageMap@CStaticText@@1UAFX_MSGMAP@@B	; CStaticText::messageMap
PUBLIC	?OnSetText@CStaticText@@QAEJIJ@Z		; CStaticText::OnSetText
EXTRN	?GetThisMessageMap@CWnd@@KGPBUAFX_MSGMAP@@XZ:NEAR ; CWnd::GetThisMessageMap
_DATA	SEGMENT
_THIS_FILE DB	'.\src\LayoutMgr\ChangeColor\StaticTextEx.cpp', 00H
_DATA	ENDS
CONST	SEGMENT
$SG187337 DB	00H
$SG187338 DB	00H
$SG187339 DB	00H
CONST	ENDS
;	COMDAT ?_messageEntries@CStaticText@@0QBUAFX_MSGMAP_ENTRY@@B
CONST	SEGMENT
?_messageEntries@CStaticText@@0QBUAFX_MSGMAP_ENTRY@@B DD 0bc19H ; CStaticText::_messageEntries
	DD	00H
	DD	00H
	DD	00H
	DD	09H
	DD	FLAT:?CtlColor@CStaticText@@IAEPAUHBRUSH__@@PAVCDC@@I@Z
	DD	0cH
	DD	00H
	DD	00H
	DD	00H
	DD	0eH
	DD	FLAT:?OnSetText@CStaticText@@QAEJIJ@Z
	DD	014H
	DD	00H
	DD	00H
	DD	00H
	DD	01H
	DD	FLAT:?OnEraseBkgnd@CStaticText@@IAEHPAVCDC@@@Z
	DD	0200H
	DD	00H
	DD	00H
	DD	00H
	DD	032H
	DD	FLAT:?OnMouseMove@CStaticText@@IAEXIVCPoint@@@Z
	DD	0201H
	DD	00H
	DD	00H
	DD	00H
	DD	032H
	DD	FLAT:?OnLButtonDown@CStaticText@@IAEXIVCPoint@@@Z
	DD	0202H
	DD	00H
	DD	00H
	DD	00H
	DD	032H
	DD	FLAT:?OnLButtonUp@CStaticText@@IAEXIVCPoint@@@Z
	DD	00H
	DD	00H
	DD	00H
	DD	00H
	DD	00H
	DD	00H
CONST	ENDS
;	COMDAT ?messageMap@CStaticText@@1UAFX_MSGMAP@@B
CONST	SEGMENT
?messageMap@CStaticText@@1UAFX_MSGMAP@@B DD FLAT:?GetThisMessageMap@CWnd@@KGPBUAFX_MSGMAP@@XZ ; CStaticText::messageMap
	DD	FLAT:?_messageEntries@CStaticText@@0QBUAFX_MSGMAP_ENTRY@@B
CONST	ENDS
CONST	SEGMENT
	ORG $+1
$SG187397 DB	'http', 00H
	ORG $+3
$SG187400 DB	'@', 00H
	ORG $+2
$SG187402 DB	'mailto:', 00H
$SG187404 DB	00H
	ORG $+3
$SG187618 DB	'open', 00H
CONST	ENDS
PUBLIC	??_R1A@?0A@A@CWnd@@8				; CWnd::`RTTI Base Class Descriptor at (0,-1,0,0)'
PUBLIC	??_R0?AVCWnd@@@8				; CWnd `RTTI Type Descriptor'
PUBLIC	??_R1A@?0A@A@CCmdTarget@@8			; CCmdTarget::`RTTI Base Class Descriptor at (0,-1,0,0)'
PUBLIC	??_R0?AVCCmdTarget@@@8				; CCmdTarget `RTTI Type Descriptor'
PUBLIC	??_R1A@?0A@A@CObject@@8				; CObject::`RTTI Base Class Descriptor at (0,-1,0,0)'
PUBLIC	??_R0?AVCObject@@@8				; CObject `RTTI Type Descriptor'
PUBLIC	??_R4CStaticText@@6B@				; CStaticText::`RTTI Complete Object Locator'
PUBLIC	??_R0?AVCStaticText@@@8				; CStaticText `RTTI Type Descriptor'
PUBLIC	??_R3CStaticText@@8				; CStaticText::`RTTI Class Hierarchy Descriptor'
PUBLIC	??_R2CStaticText@@8				; CStaticText::`RTTI Base Class Array'
PUBLIC	??_R1A@?0A@A@CStaticText@@8			; CStaticText::`RTTI Base Class Descriptor at (0,-1,0,0)'
PUBLIC	??_R1A@?0A@A@CStatic@@8				; CStatic::`RTTI Base Class Descriptor at (0,-1,0,0)'
PUBLIC	??_R0?AVCStatic@@@8				; CStatic `RTTI Type Descriptor'
PUBLIC	?PreSubclassWindow@CStaticText@@MAEXXZ		; CStaticText::PreSubclassWindow
PUBLIC	?GetMessageMap@CStaticText@@MBEPBUAFX_MSGMAP@@XZ ; CStaticText::GetMessageMap
PUBLIC	??0CStaticText@@QAE@XZ				; CStaticText::CStaticText
PUBLIC	??_7CStaticText@@6B@				; CStaticText::`vftable'
PUBLIC	??_GCStaticText@@UAEPAXI@Z			; CStaticText::`scalar deleting destructor'
EXTRN	?GetInterfaceMap@CWnd@@MBEPBUAFX_INTERFACEMAP@@XZ:NEAR ; CWnd::GetInterfaceMap
EXTRN	?EnsureStdObj@CWnd@@UAEJXZ:NEAR			; CWnd::EnsureStdObj
EXTRN	?get_accParent@CWnd@@UAEJPAPAUIDispatch@@@Z:NEAR ; CWnd::get_accParent
EXTRN	?OnCmdMsg@CCmdTarget@@UAEHIHPAXPAUAFX_CMDHANDLERINFO@@@Z:NEAR ; CCmdTarget::OnCmdMsg
EXTRN	?get_accChildCount@CWnd@@UAEJPAJ@Z:NEAR		; CWnd::get_accChildCount
EXTRN	?IsInvokeAllowed@CCmdTarget@@UAEHJ@Z:NEAR	; CCmdTarget::IsInvokeAllowed
EXTRN	?get_accChild@CWnd@@UAEJUtagVARIANT@@PAPAUIDispatch@@@Z:NEAR ; CWnd::get_accChild
EXTRN	?get_accName@CWnd@@UAEJUtagVARIANT@@PAPA_W@Z:NEAR ; CWnd::get_accName
EXTRN	?get_accValue@CWnd@@UAEJUtagVARIANT@@PAPA_W@Z:NEAR ; CWnd::get_accValue
EXTRN	?GetDispatchIID@CCmdTarget@@UAEHPAU_GUID@@@Z:NEAR ; CCmdTarget::GetDispatchIID
EXTRN	?GetTypeInfoCount@CCmdTarget@@UAEIXZ:NEAR	; CCmdTarget::GetTypeInfoCount
EXTRN	?GetTypeLibCache@CCmdTarget@@UAEPAVCTypeLibCache@@XZ:NEAR ; CCmdTarget::GetTypeLibCache
EXTRN	?get_accDescription@CWnd@@UAEJUtagVARIANT@@PAPA_W@Z:NEAR ; CWnd::get_accDescription
EXTRN	?GetTypeLib@CCmdTarget@@UAEJKPAPAUITypeLib@@@Z:NEAR ; CCmdTarget::GetTypeLib
EXTRN	?get_accRole@CWnd@@UAEJUtagVARIANT@@PAU2@@Z:NEAR ; CWnd::get_accRole
EXTRN	?get_accState@CWnd@@UAEJUtagVARIANT@@PAU2@@Z:NEAR ; CWnd::get_accState
EXTRN	?get_accHelp@CWnd@@UAEJUtagVARIANT@@PAPA_W@Z:NEAR ; CWnd::get_accHelp
EXTRN	?get_accHelpTopic@CWnd@@UAEJPAPA_WUtagVARIANT@@PAJ@Z:NEAR ; CWnd::get_accHelpTopic
EXTRN	?get_accKeyboardShortcut@CWnd@@UAEJUtagVARIANT@@PAPA_W@Z:NEAR ; CWnd::get_accKeyboardShortcut
EXTRN	?get_accFocus@CWnd@@UAEJPAUtagVARIANT@@@Z:NEAR	; CWnd::get_accFocus
EXTRN	?get_accSelection@CWnd@@UAEJPAUtagVARIANT@@@Z:NEAR ; CWnd::get_accSelection
EXTRN	?get_accDefaultAction@CWnd@@UAEJUtagVARIANT@@PAPA_W@Z:NEAR ; CWnd::get_accDefaultAction
EXTRN	?GetCommandMap@CCmdTarget@@MBEPBUAFX_OLECMDMAP@@XZ:NEAR ; CCmdTarget::GetCommandMap
EXTRN	?accSelect@CWnd@@UAEJJUtagVARIANT@@@Z:NEAR	; CWnd::accSelect
EXTRN	?accLocation@CWnd@@UAEJPAJ000UtagVARIANT@@@Z:NEAR ; CWnd::accLocation
EXTRN	?GetDispatchMap@CCmdTarget@@MBEPBUAFX_DISPMAP@@XZ:NEAR ; CCmdTarget::GetDispatchMap
EXTRN	?accNavigate@CWnd@@UAEJJUtagVARIANT@@PAU2@@Z:NEAR ; CWnd::accNavigate
EXTRN	?accHitTest@CWnd@@UAEJJJPAUtagVARIANT@@@Z:NEAR	; CWnd::accHitTest
EXTRN	?GetConnectionMap@CCmdTarget@@MBEPBUAFX_CONNECTIONMAP@@XZ:NEAR ; CCmdTarget::GetConnectionMap
EXTRN	?accDoDefaultAction@CWnd@@UAEJUtagVARIANT@@@Z:NEAR ; CWnd::accDoDefaultAction
EXTRN	?put_accName@CWnd@@UAEJUtagVARIANT@@PA_W@Z:NEAR	; CWnd::put_accName
EXTRN	?put_accValue@CWnd@@UAEJUtagVARIANT@@PA_W@Z:NEAR ; CWnd::put_accValue
EXTRN	?SetProxy@CWnd@@UAEJPAUIAccessibleProxy@@@Z:NEAR ; CWnd::SetProxy
EXTRN	?CreateAccessibleProxy@CWnd@@UAEJIJPAJ@Z:NEAR	; CWnd::CreateAccessibleProxy
EXTRN	?GetEventSinkMap@CCmdTarget@@MBEPBUAFX_EVENTSINKMAP@@XZ:NEAR ; CCmdTarget::GetEventSinkMap
EXTRN	?OnCreateAggregates@CCmdTarget@@UAEHXZ:NEAR	; CCmdTarget::OnCreateAggregates
EXTRN	?OnCommand@CWnd@@MAEHIJ@Z:NEAR			; CWnd::OnCommand
EXTRN	?GetInterfaceHook@CCmdTarget@@UAEPAUIUnknown@@PBX@Z:NEAR ; CCmdTarget::GetInterfaceHook
EXTRN	?OnNotify@CWnd@@MAEHIJPAJ@Z:NEAR		; CWnd::OnNotify
EXTRN	?GetExtraConnectionPoints@CCmdTarget@@MAEHPAVCPtrArray@@@Z:NEAR ; CCmdTarget::GetExtraConnectionPoints
EXTRN	?GetConnectionHook@CCmdTarget@@MAEPAUIConnectionPoint@@ABU_GUID@@@Z:NEAR ; CCmdTarget::GetConnectionHook
EXTRN	?Create@CWnd@@UAEHPBD0KABUtagRECT@@PAV1@IPAUCCreateContext@@@Z:NEAR ; CWnd::Create
EXTRN	?CreateEx@CWnd@@UAEHKPBD0KHHHHPAUHWND__@@PAUHMENU__@@PAX@Z:NEAR ; CWnd::CreateEx
EXTRN	?CreateEx@CWnd@@UAEHKPBD0KABUtagRECT@@PAV1@IPAX@Z:NEAR ; CWnd::CreateEx
EXTRN	?Serialize@CObject@@UAEXAAVCArchive@@@Z:NEAR	; CObject::Serialize
EXTRN	?DestroyWindow@CWnd@@UAEHXZ:NEAR		; CWnd::DestroyWindow
EXTRN	?PreCreateWindow@CWnd@@UAEHAAUtagCREATESTRUCTA@@@Z:NEAR ; CWnd::PreCreateWindow
EXTRN	?CalcWindowRect@CWnd@@UAEXPAUtagRECT@@I@Z:NEAR	; CWnd::CalcWindowRect
EXTRN	?GetSuperWndProcAddr@CWnd@@MAEPAP6GJPAUHWND__@@IIJ@ZXZ:NEAR ; CWnd::GetSuperWndProcAddr
EXTRN	?DoDataExchange@CWnd@@MAEXPAVCDataExchange@@@Z:NEAR ; CWnd::DoDataExchange
EXTRN	?BeginModalState@CWnd@@UAEXXZ:NEAR		; CWnd::BeginModalState
EXTRN	?EndModalState@CWnd@@UAEXXZ:NEAR		; CWnd::EndModalState
EXTRN	?PreTranslateMessage@CWnd@@UAEHPAUtagMSG@@@Z:NEAR ; CWnd::PreTranslateMessage
EXTRN	?OnAmbientProperty@CWnd@@UAEHPAVCOleControlSite@@JPAUtagVARIANT@@@Z:NEAR ; CWnd::OnAmbientProperty
EXTRN	?WindowProc@CWnd@@MAEJIIJ@Z:NEAR		; CWnd::WindowProc
EXTRN	?OnWndMsg@CWnd@@MAEHIIJPAJ@Z:NEAR		; CWnd::OnWndMsg
EXTRN	?DefWindowProcA@CWnd@@MAEJIIJ@Z:NEAR		; CWnd::DefWindowProcA
EXTRN	?PostNcDestroy@CWnd@@MAEXXZ:NEAR		; CWnd::PostNcDestroy
EXTRN	?CheckAutoCenter@CWnd@@UAEHXZ:NEAR		; CWnd::CheckAutoCenter
EXTRN	?AssertValid@CWnd@@UBEXXZ:NEAR			; CWnd::AssertValid
EXTRN	?Dump@CWnd@@UBEXAAVCDumpContext@@@Z:NEAR	; CWnd::Dump
EXTRN	?IsFrameWnd@CWnd@@UBEHXZ:NEAR			; CWnd::IsFrameWnd
EXTRN	?OnFinalRelease@CWnd@@UAEXXZ:NEAR		; CWnd::OnFinalRelease
EXTRN	?CreateControlContainer@CWnd@@MAEHPAPAVCOleControlContainer@@@Z:NEAR ; CWnd::CreateControlContainer
EXTRN	?CreateControlSite@CWnd@@MAEHPAVCOleControlContainer@@PAPAVCOleControlSite@@IABU_GUID@@@Z:NEAR ; CWnd::CreateControlSite
EXTRN	?SetOccDialogInfo@CWnd@@MAEHPAU_AFX_OCC_DIALOG_INFO@@@Z:NEAR ; CWnd::SetOccDialogInfo
EXTRN	??_ECStaticText@@UAEPAXI@Z:NEAR			; CStaticText::`vector deleting destructor'
EXTRN	__imp_??0?$CStringT@DV?$StrTraitMFC_DLL@DV?$ChTraitsCRT@D@ATL@@@@@ATL@@QAE@XZ:NEAR
EXTRN	?OnToolHitTest@CWnd@@UBEHVCPoint@@PAUtagTOOLINFOA@@@Z:NEAR ; CWnd::OnToolHitTest
EXTRN	__RTC_InitBase:NEAR
EXTRN	__RTC_Shutdown:NEAR
EXTRN	__RTC_CheckEsp:NEAR
EXTRN	__except_list:DWORD
EXTRN	___CxxFrameHandler:NEAR
EXTRN	__imp_??1?$CStringT@DV?$StrTraitMFC_DLL@DV?$ChTraitsCRT@D@ATL@@@@@ATL@@QAE@XZ:NEAR
EXTRN	__imp_??4?$CStringT@DV?$StrTraitMFC_DLL@DV?$ChTraitsCRT@D@ATL@@@@@ATL@@QAEAAV01@PBD@Z:NEAR
EXTRN	?GetRuntimeClass@CStatic@@UBEPAUCRuntimeClass@@XZ:NEAR ; CStatic::GetRuntimeClass
EXTRN	??0CStatic@@QAE@XZ:NEAR				; CStatic::CStatic
EXTRN	?Create@CStatic@@UAEHPBDKABUtagRECT@@PAVCWnd@@I@Z:NEAR ; CStatic::Create
EXTRN	?GetScrollBarCtrl@CWnd@@UBEPAVCScrollBar@@H@Z:NEAR ; CWnd::GetScrollBarCtrl
EXTRN	?DrawItem@CStatic@@UAEXPAUtagDRAWITEMSTRUCT@@@Z:NEAR ; CStatic::DrawItem
EXTRN	??1CStatic@@UAE@XZ:NEAR				; CStatic::~CStatic
EXTRN	?OnChildNotify@CStatic@@MAEHIIJPAJ@Z:NEAR	; CStatic::OnChildNotify
EXTRN	?WinHelpA@CWnd@@UAEXKI@Z:NEAR			; CWnd::WinHelpA
EXTRN	?HtmlHelpA@CWnd@@UAEXKI@Z:NEAR			; CWnd::HtmlHelpA
EXTRN	??_7type_info@@6B@:QWORD			; type_info::`vftable'
EXTRN	?WinHelpInternal@CWnd@@UAEXKI@Z:NEAR		; CWnd::WinHelpInternal
EXTRN	?ContinueModal@CWnd@@UAEHXZ:NEAR		; CWnd::ContinueModal
EXTRN	?EndModalLoop@CWnd@@UAEXH@Z:NEAR		; CWnd::EndModalLoop
;	COMDAT rtc$IMZ
; File d:\boxgit\playbox\playbox\dev\prj\playbox\src\layoutmgr\changecolor\statictextex.cpp
rtc$IMZ	SEGMENT
__RTC_InitBase.rtc$IMZ DD FLAT:__RTC_InitBase
rtc$IMZ	ENDS
;	COMDAT rtc$TMZ
rtc$TMZ	SEGMENT
__RTC_Shutdown.rtc$TMZ DD FLAT:__RTC_Shutdown
rtc$TMZ	ENDS
xdata$x	SEGMENT
$T188205 DD	0ffffffffH
	DD	FLAT:$L188194
	DD	00H
	DD	FLAT:$L188195
	DD	01H
	DD	FLAT:$L188196
	DD	02H
	DD	FLAT:$L188197
$T188201 DD	019930520H
	DD	04H
	DD	FLAT:$T188205
	DD	2 DUP(00H)
	DD	2 DUP(00H)
xdata$x	ENDS
;	COMDAT ??_7CStaticText@@6B@
CONST	SEGMENT
??_7CStaticText@@6B@ DD FLAT:??_R4CStaticText@@6B@	; CStaticText::`vftable'
	DD	FLAT:?GetRuntimeClass@CStatic@@UBEPAUCRuntimeClass@@XZ
	DD	FLAT:??_ECStaticText@@UAEPAXI@Z
	DD	FLAT:?Serialize@CObject@@UAEXAAVCArchive@@@Z
	DD	FLAT:?AssertValid@CWnd@@UBEXXZ
	DD	FLAT:?Dump@CWnd@@UBEXAAVCDumpContext@@@Z
	DD	FLAT:?OnCmdMsg@CCmdTarget@@UAEHIHPAXPAUAFX_CMDHANDLERINFO@@@Z
	DD	FLAT:?OnFinalRelease@CWnd@@UAEXXZ
	DD	FLAT:?IsInvokeAllowed@CCmdTarget@@UAEHJ@Z
	DD	FLAT:?GetDispatchIID@CCmdTarget@@UAEHPAU_GUID@@@Z
	DD	FLAT:?GetTypeInfoCount@CCmdTarget@@UAEIXZ
	DD	FLAT:?GetTypeLibCache@CCmdTarget@@UAEPAVCTypeLibCache@@XZ
	DD	FLAT:?GetTypeLib@CCmdTarget@@UAEJKPAPAUITypeLib@@@Z
	DD	FLAT:?GetMessageMap@CStaticText@@MBEPBUAFX_MSGMAP@@XZ
	DD	FLAT:?GetCommandMap@CCmdTarget@@MBEPBUAFX_OLECMDMAP@@XZ
	DD	FLAT:?GetDispatchMap@CCmdTarget@@MBEPBUAFX_DISPMAP@@XZ
	DD	FLAT:?GetConnectionMap@CCmdTarget@@MBEPBUAFX_CONNECTIONMAP@@XZ
	DD	FLAT:?GetInterfaceMap@CWnd@@MBEPBUAFX_INTERFACEMAP@@XZ
	DD	FLAT:?GetEventSinkMap@CCmdTarget@@MBEPBUAFX_EVENTSINKMAP@@XZ
	DD	FLAT:?OnCreateAggregates@CCmdTarget@@UAEHXZ
	DD	FLAT:?GetInterfaceHook@CCmdTarget@@UAEPAUIUnknown@@PBX@Z
	DD	FLAT:?GetExtraConnectionPoints@CCmdTarget@@MAEHPAVCPtrArray@@@Z
	DD	FLAT:?GetConnectionHook@CCmdTarget@@MAEPAUIConnectionPoint@@ABU_GUID@@@Z
	DD	FLAT:?PreSubclassWindow@CStaticText@@MAEXXZ
	DD	FLAT:?Create@CWnd@@UAEHPBD0KABUtagRECT@@PAV1@IPAUCCreateContext@@@Z
	DD	FLAT:?CreateEx@CWnd@@UAEHKPBD0KABUtagRECT@@PAV1@IPAX@Z
	DD	FLAT:?CreateEx@CWnd@@UAEHKPBD0KHHHHPAUHWND__@@PAUHMENU__@@PAX@Z
	DD	FLAT:?DestroyWindow@CWnd@@UAEHXZ
	DD	FLAT:?PreCreateWindow@CWnd@@UAEHAAUtagCREATESTRUCTA@@@Z
	DD	FLAT:?CalcWindowRect@CWnd@@UAEXPAUtagRECT@@I@Z
	DD	FLAT:?OnToolHitTest@CWnd@@UBEHVCPoint@@PAUtagTOOLINFOA@@@Z
	DD	FLAT:?GetScrollBarCtrl@CWnd@@UBEPAVCScrollBar@@H@Z
	DD	FLAT:?WinHelpA@CWnd@@UAEXKI@Z
	DD	FLAT:?HtmlHelpA@CWnd@@UAEXKI@Z
	DD	FLAT:?WinHelpInternal@CWnd@@UAEXKI@Z
	DD	FLAT:?ContinueModal@CWnd@@UAEHXZ
	DD	FLAT:?EndModalLoop@CWnd@@UAEXH@Z
	DD	FLAT:?EnsureStdObj@CWnd@@UAEJXZ
	DD	FLAT:?get_accParent@CWnd@@UAEJPAPAUIDispatch@@@Z
	DD	FLAT:?get_accChildCount@CWnd@@UAEJPAJ@Z
	DD	FLAT:?get_accChild@CWnd@@UAEJUtagVARIANT@@PAPAUIDispatch@@@Z
	DD	FLAT:?get_accName@CWnd@@UAEJUtagVARIANT@@PAPA_W@Z
	DD	FLAT:?get_accValue@CWnd@@UAEJUtagVARIANT@@PAPA_W@Z
	DD	FLAT:?get_accDescription@CWnd@@UAEJUtagVARIANT@@PAPA_W@Z
	DD	FLAT:?get_accRole@CWnd@@UAEJUtagVARIANT@@PAU2@@Z
	DD	FLAT:?get_accState@CWnd@@UAEJUtagVARIANT@@PAU2@@Z
	DD	FLAT:?get_accHelp@CWnd@@UAEJUtagVARIANT@@PAPA_W@Z
	DD	FLAT:?get_accHelpTopic@CWnd@@UAEJPAPA_WUtagVARIANT@@PAJ@Z
	DD	FLAT:?get_accKeyboardShortcut@CWnd@@UAEJUtagVARIANT@@PAPA_W@Z
	DD	FLAT:?get_accFocus@CWnd@@UAEJPAUtagVARIANT@@@Z
	DD	FLAT:?get_accSelection@CWnd@@UAEJPAUtagVARIANT@@@Z
	DD	FLAT:?get_accDefaultAction@CWnd@@UAEJUtagVARIANT@@PAPA_W@Z
	DD	FLAT:?accSelect@CWnd@@UAEJJUtagVARIANT@@@Z
	DD	FLAT:?accLocation@CWnd@@UAEJPAJ000UtagVARIANT@@@Z
	DD	FLAT:?accNavigate@CWnd@@UAEJJUtagVARIANT@@PAU2@@Z
	DD	FLAT:?accHitTest@CWnd@@UAEJJJPAUtagVARIANT@@@Z
	DD	FLAT:?accDoDefaultAction@CWnd@@UAEJUtagVARIANT@@@Z
	DD	FLAT:?put_accName@CWnd@@UAEJUtagVARIANT@@PA_W@Z
	DD	FLAT:?put_accValue@CWnd@@UAEJUtagVARIANT@@PA_W@Z
	DD	FLAT:?SetProxy@CWnd@@UAEJPAUIAccessibleProxy@@@Z
	DD	FLAT:?CreateAccessibleProxy@CWnd@@UAEJIJPAJ@Z
	DD	FLAT:?OnCommand@CWnd@@MAEHIJ@Z
	DD	FLAT:?OnNotify@CWnd@@MAEHIJPAJ@Z
	DD	FLAT:?GetSuperWndProcAddr@CWnd@@MAEPAP6GJPAUHWND__@@IIJ@ZXZ
	DD	FLAT:?DoDataExchange@CWnd@@MAEXPAVCDataExchange@@@Z
	DD	FLAT:?BeginModalState@CWnd@@UAEXXZ
	DD	FLAT:?EndModalState@CWnd@@UAEXXZ
	DD	FLAT:?PreTranslateMessage@CWnd@@UAEHPAUtagMSG@@@Z
	DD	FLAT:?OnAmbientProperty@CWnd@@UAEHPAVCOleControlSite@@JPAUtagVARIANT@@@Z
	DD	FLAT:?WindowProc@CWnd@@MAEJIIJ@Z
	DD	FLAT:?OnWndMsg@CWnd@@MAEHIIJPAJ@Z
	DD	FLAT:?DefWindowProcA@CWnd@@MAEJIIJ@Z
	DD	FLAT:?PostNcDestroy@CWnd@@MAEXXZ
	DD	FLAT:?OnChildNotify@CStatic@@MAEHIIJPAJ@Z
	DD	FLAT:?CheckAutoCenter@CWnd@@UAEHXZ
	DD	FLAT:?IsFrameWnd@CWnd@@UBEHXZ
	DD	FLAT:?CreateControlContainer@CWnd@@MAEHPAPAVCOleControlContainer@@@Z
	DD	FLAT:?CreateControlSite@CWnd@@MAEHPAVCOleControlContainer@@PAPAVCOleControlSite@@IABU_GUID@@@Z
	DD	FLAT:?SetOccDialogInfo@CWnd@@MAEHPAU_AFX_OCC_DIALOG_INFO@@@Z
	DD	FLAT:?Create@CStatic@@UAEHPBDKABUtagRECT@@PAVCWnd@@I@Z
	DD	FLAT:?DrawItem@CStatic@@UAEXPAUtagDRAWITEMSTRUCT@@@Z
CONST	ENDS
;	COMDAT ??_R4CStaticText@@6B@
rdata$r	SEGMENT
??_R4CStaticText@@6B@ DD 00H				; CStaticText::`RTTI Complete Object Locator'
	DD	00H
	DD	00H
	DD	FLAT:??_R0?AVCStaticText@@@8
	DD	FLAT:??_R3CStaticText@@8
rdata$r	ENDS
;	COMDAT ??_R0?AVCStaticText@@@8
_DATA	SEGMENT
??_R0?AVCStaticText@@@8 DD FLAT:??_7type_info@@6B@	; CStaticText `RTTI Type Descriptor'
	DD	00H
	DB	'.?AVCStaticText@@', 00H
_DATA	ENDS
;	COMDAT ??_R3CStaticText@@8
rdata$r	SEGMENT
??_R3CStaticText@@8 DD 00H				; CStaticText::`RTTI Class Hierarchy Descriptor'
	DD	00H
	DD	05H
	DD	FLAT:??_R2CStaticText@@8
rdata$r	ENDS
;	COMDAT ??_R2CStaticText@@8
rdata$r	SEGMENT
??_R2CStaticText@@8 DD FLAT:??_R1A@?0A@A@CStaticText@@8	; CStaticText::`RTTI Base Class Array'
	DD	FLAT:??_R1A@?0A@A@CStatic@@8
	DD	FLAT:??_R1A@?0A@A@CWnd@@8
	DD	FLAT:??_R1A@?0A@A@CCmdTarget@@8
	DD	FLAT:??_R1A@?0A@A@CObject@@8
rdata$r	ENDS
;	COMDAT ??_R1A@?0A@A@CStaticText@@8
rdata$r	SEGMENT
??_R1A@?0A@A@CStaticText@@8 DD FLAT:??_R0?AVCStaticText@@@8 ; CStaticText::`RTTI Base Class Descriptor at (0,-1,0,0)'
	DD	04H
	DD	00H
	DD	0ffffffffH
	DD	00H
	DD	00H
rdata$r	ENDS
;	COMDAT ??_R1A@?0A@A@CStatic@@8
rdata$r	SEGMENT
??_R1A@?0A@A@CStatic@@8 DD FLAT:??_R0?AVCStatic@@@8	; CStatic::`RTTI Base Class Descriptor at (0,-1,0,0)'
	DD	03H
	DD	00H
	DD	0ffffffffH
	DD	00H
	DD	00H
rdata$r	ENDS
;	COMDAT ??_R0?AVCStatic@@@8
_DATA	SEGMENT
??_R0?AVCStatic@@@8 DD FLAT:??_7type_info@@6B@		; CStatic `RTTI Type Descriptor'
	DD	00H
	DB	'.?AVCStatic@@', 00H
_DATA	ENDS
;	COMDAT ??_R1A@?0A@A@CWnd@@8
rdata$r	SEGMENT
??_R1A@?0A@A@CWnd@@8 DD FLAT:??_R0?AVCWnd@@@8		; CWnd::`RTTI Base Class Descriptor at (0,-1,0,0)'
	DD	02H
	DD	00H
	DD	0ffffffffH
	DD	00H
	DD	00H
rdata$r	ENDS
;	COMDAT ??_R0?AVCWnd@@@8
_DATA	SEGMENT
??_R0?AVCWnd@@@8 DD FLAT:??_7type_info@@6B@		; CWnd `RTTI Type Descriptor'
	DD	00H
	DB	'.?AVCWnd@@', 00H
_DATA	ENDS
;	COMDAT ??_R1A@?0A@A@CCmdTarget@@8
rdata$r	SEGMENT
??_R1A@?0A@A@CCmdTarget@@8 DD FLAT:??_R0?AVCCmdTarget@@@8 ; CCmdTarget::`RTTI Base Class Descriptor at (0,-1,0,0)'
	DD	01H
	DD	00H
	DD	0ffffffffH
	DD	00H
	DD	00H
rdata$r	ENDS
;	COMDAT ??_R0?AVCCmdTarget@@@8
_DATA	SEGMENT
??_R0?AVCCmdTarget@@@8 DD FLAT:??_7type_info@@6B@	; CCmdTarget `RTTI Type Descriptor'
	DD	00H
	DB	'.?AVCCmdTarget@@', 00H
_DATA	ENDS
;	COMDAT ??_R1A@?0A@A@CObject@@8
rdata$r	SEGMENT
??_R1A@?0A@A@CObject@@8 DD FLAT:??_R0?AVCObject@@@8	; CObject::`RTTI Base Class Descriptor at (0,-1,0,0)'
	DD	00H
	DD	00H
	DD	0ffffffffH
	DD	00H
	DD	00H
rdata$r	ENDS
;	COMDAT ??_R0?AVCObject@@@8
_DATA	SEGMENT
??_R0?AVCObject@@@8 DD FLAT:??_7type_info@@6B@		; CObject `RTTI Type Descriptor'
	DD	00H
	DB	'.?AVCObject@@', 00H
; Function compile flags: /Odt /RTCsu
_DATA	ENDS
_TEXT	SEGMENT
_this$ = -16						; size = 4
__$EHRec$ = -12						; size = 12
??0CStaticText@@QAE@XZ PROC NEAR			; CStaticText::CStaticText
; _this$ = ecx

; 12   : {

  00000	55		 push	 ebp
  00001	8b ec		 mov	 ebp, esp
  00003	6a ff		 push	 -1
  00005	68 00 00 00 00	 push	 __ehhandler$??0CStaticText@@QAE@XZ
  0000a	64 a1 00 00 00
	00		 mov	 eax, DWORD PTR fs:__except_list
  00010	50		 push	 eax
  00011	64 89 25 00 00
	00 00		 mov	 DWORD PTR fs:__except_list, esp
  00018	51		 push	 ecx
  00019	56		 push	 esi
  0001a	c7 45 f0 cc cc
	cc cc		 mov	 DWORD PTR [ebp-16], -858993460 ; ccccccccH
  00021	89 4d f0	 mov	 DWORD PTR _this$[ebp], ecx
  00024	8b 4d f0	 mov	 ecx, DWORD PTR _this$[ebp]
  00027	e8 00 00 00 00	 call	 ??0CStatic@@QAE@XZ	; CStatic::CStatic
  0002c	c7 45 fc 00 00
	00 00		 mov	 DWORD PTR __$EHRec$[ebp+8], 0
  00033	8b 45 f0	 mov	 eax, DWORD PTR _this$[ebp]
  00036	c7 00 00 00 00
	00		 mov	 DWORD PTR [eax], OFFSET FLAT:??_7CStaticText@@6B@
  0003c	8b 4d f0	 mov	 ecx, DWORD PTR _this$[ebp]
  0003f	83 c1 70	 add	 ecx, 112		; 00000070H
  00042	8b f4		 mov	 esi, esp
  00044	ff 15 00 00 00
	00		 call	 DWORD PTR __imp_??0?$CStringT@DV?$StrTraitMFC_DLL@DV?$ChTraitsCRT@D@ATL@@@@@ATL@@QAE@XZ
  0004a	3b f4		 cmp	 esi, esp
  0004c	e8 00 00 00 00	 call	 __RTC_CheckEsp
  00051	c6 45 fc 01	 mov	 BYTE PTR __$EHRec$[ebp+8], 1
  00055	8b 4d f0	 mov	 ecx, DWORD PTR _this$[ebp]
  00058	83 c1 74	 add	 ecx, 116		; 00000074H
  0005b	8b f4		 mov	 esi, esp
  0005d	ff 15 00 00 00
	00		 call	 DWORD PTR __imp_??0?$CStringT@DV?$StrTraitMFC_DLL@DV?$ChTraitsCRT@D@ATL@@@@@ATL@@QAE@XZ
  00063	3b f4		 cmp	 esi, esp
  00065	e8 00 00 00 00	 call	 __RTC_CheckEsp
  0006a	c6 45 fc 02	 mov	 BYTE PTR __$EHRec$[ebp+8], 2
  0006e	8b 4d f0	 mov	 ecx, DWORD PTR _this$[ebp]
  00071	81 c1 9c 00 00
	00		 add	 ecx, 156		; 0000009cH
  00077	8b f4		 mov	 esi, esp
  00079	ff 15 00 00 00
	00		 call	 DWORD PTR __imp_??0?$CStringT@DV?$StrTraitMFC_DLL@DV?$ChTraitsCRT@D@ATL@@@@@ATL@@QAE@XZ
  0007f	3b f4		 cmp	 esi, esp
  00081	e8 00 00 00 00	 call	 __RTC_CheckEsp
  00086	c6 45 fc 03	 mov	 BYTE PTR __$EHRec$[ebp+8], 3

; 13   : 	mPaintStyle = epsNormal;

  0008a	8b 4d f0	 mov	 ecx, DWORD PTR _this$[ebp]
  0008d	c7 41 68 00 00
	00 00		 mov	 DWORD PTR [ecx+104], 0

; 14   : 	mbSetText = false;

  00094	8b 55 f0	 mov	 edx, DWORD PTR _this$[ebp]
  00097	c6 42 6c 00	 mov	 BYTE PTR [edx+108], 0

; 15   : 	//mTextColor = RGB(20, 84, 156);
; 16   : 	mTextColor = RGB(0, 0, 0);

  0009b	8b 45 f0	 mov	 eax, DWORD PTR _this$[ebp]
  0009e	c7 40 78 00 00
	00 00		 mov	 DWORD PTR [eax+120], 0

; 17   : 	mstrText = "";

  000a5	8b f4		 mov	 esi, esp
  000a7	68 00 00 00 00	 push	 OFFSET FLAT:$SG187337
  000ac	8b 4d f0	 mov	 ecx, DWORD PTR _this$[ebp]
  000af	83 c1 70	 add	 ecx, 112		; 00000070H
  000b2	ff 15 00 00 00
	00		 call	 DWORD PTR __imp_??4?$CStringT@DV?$StrTraitMFC_DLL@DV?$ChTraitsCRT@D@ATL@@@@@ATL@@QAEAAV01@PBD@Z
  000b8	3b f4		 cmp	 esi, esp
  000ba	e8 00 00 00 00	 call	 __RTC_CheckEsp

; 18   : 	miTextTop = 0;

  000bf	8b 4d f0	 mov	 ecx, DWORD PTR _this$[ebp]
  000c2	c7 81 84 00 00
	00 00 00 00 00	 mov	 DWORD PTR [ecx+132], 0

; 19   : 	mbCaptured = false;

  000cc	8b 55 f0	 mov	 edx, DWORD PTR _this$[ebp]
  000cf	c6 82 8c 00 00
	00 00		 mov	 BYTE PTR [edx+140], 0

; 20   : 	mbUrl = FALSE;

  000d6	8b 45 f0	 mov	 eax, DWORD PTR _this$[ebp]
  000d9	c6 80 8d 00 00
	00 00		 mov	 BYTE PTR [eax+141], 0

; 21   : 	mFormat = DT_LEFT | DT_VCENTER ;

  000e0	8b 4d f0	 mov	 ecx, DWORD PTR _this$[ebp]
  000e3	c7 81 90 00 00
	00 04 00 00 00	 mov	 DWORD PTR [ecx+144], 4

; 22   : 	mWidth  =FW_NORMAL;

  000ed	8b 55 f0	 mov	 edx, DWORD PTR _this$[ebp]
  000f0	c7 82 94 00 00
	00 90 01 00 00	 mov	 DWORD PTR [edx+148], 400 ; 00000190H

; 23   : 	mSize = 9;

  000fa	8b 45 f0	 mov	 eax, DWORD PTR _this$[ebp]
  000fd	c7 80 98 00 00
	00 09 00 00 00	 mov	 DWORD PTR [eax+152], 9

; 24   : 	mTextSet = GB2312_CHARSET;

  00107	8b 4d f0	 mov	 ecx, DWORD PTR _this$[ebp]
  0010a	c7 41 7c 86 00
	00 00		 mov	 DWORD PTR [ecx+124], 134 ; 00000086H

; 25   : 	mLinkText = "";

  00111	8b f4		 mov	 esi, esp
  00113	68 00 00 00 00	 push	 OFFSET FLAT:$SG187338
  00118	8b 4d f0	 mov	 ecx, DWORD PTR _this$[ebp]
  0011b	83 c1 74	 add	 ecx, 116		; 00000074H
  0011e	ff 15 00 00 00
	00		 call	 DWORD PTR __imp_??4?$CStringT@DV?$StrTraitMFC_DLL@DV?$ChTraitsCRT@D@ATL@@@@@ATL@@QAEAAV01@PBD@Z
  00124	3b f4		 cmp	 esi, esp
  00126	e8 00 00 00 00	 call	 __RTC_CheckEsp

; 26   : 	m_fontName = "";

  0012b	8b f4		 mov	 esi, esp
  0012d	68 00 00 00 00	 push	 OFFSET FLAT:$SG187339
  00132	8b 4d f0	 mov	 ecx, DWORD PTR _this$[ebp]
  00135	81 c1 9c 00 00
	00		 add	 ecx, 156		; 0000009cH
  0013b	ff 15 00 00 00
	00		 call	 DWORD PTR __imp_??4?$CStringT@DV?$StrTraitMFC_DLL@DV?$ChTraitsCRT@D@ATL@@@@@ATL@@QAEAAV01@PBD@Z
  00141	3b f4		 cmp	 esi, esp
  00143	e8 00 00 00 00	 call	 __RTC_CheckEsp

; 27   : }

  00148	c7 45 fc ff ff
	ff ff		 mov	 DWORD PTR __$EHRec$[ebp+8], -1
  0014f	8b 45 f0	 mov	 eax, DWORD PTR _this$[ebp]
  00152	8b 4d f4	 mov	 ecx, DWORD PTR __$EHRec$[ebp]
  00155	64 89 0d 00 00
	00 00		 mov	 DWORD PTR fs:__except_list, ecx
  0015c	5e		 pop	 esi
  0015d	83 c4 10	 add	 esp, 16			; 00000010H
  00160	3b ec		 cmp	 ebp, esp
  00162	e8 00 00 00 00	 call	 __RTC_CheckEsp
  00167	8b e5		 mov	 esp, ebp
  00169	5d		 pop	 ebp
  0016a	c3		 ret	 0
_TEXT	ENDS
text$x	SEGMENT
$L188194:
  00000	8b 4d f0	 mov	 ecx, DWORD PTR _this$[ebp]
  00003	e9 00 00 00 00	 jmp	 ??1CStatic@@UAE@XZ	; CStatic::~CStatic
$L188195:
  00008	8b 4d f0	 mov	 ecx, DWORD PTR _this$[ebp]
  0000b	83 c1 70	 add	 ecx, 112		; 00000070H
  0000e	8b f4		 mov	 esi, esp
  00010	ff 15 00 00 00
	00		 call	 DWORD PTR __imp_??1?$CStringT@DV?$StrTraitMFC_DLL@DV?$ChTraitsCRT@D@ATL@@@@@ATL@@QAE@XZ
  00016	3b f4		 cmp	 esi, esp
  00018	e9 00 00 00 00	 jmp	 __RTC_CheckEsp
$L188196:
  0001d	8b 4d f0	 mov	 ecx, DWORD PTR _this$[ebp]
  00020	83 c1 74	 add	 ecx, 116		; 00000074H
  00023	8b f4		 mov	 esi, esp
  00025	ff 15 00 00 00
	00		 call	 DWORD PTR __imp_??1?$CStringT@DV?$StrTraitMFC_DLL@DV?$ChTraitsCRT@D@ATL@@@@@ATL@@QAE@XZ
  0002b	3b f4		 cmp	 esi, esp
  0002d	e9 00 00 00 00	 jmp	 __RTC_CheckEsp
$L188197:
  00032	8b 4d f0	 mov	 ecx, DWORD PTR _this$[ebp]
  00035	81 c1 9c 00 00
	00		 add	 ecx, 156		; 0000009cH
  0003b	8b f4		 mov	 esi, esp
  0003d	ff 15 00 00 00
	00		 call	 DWORD PTR __imp_??1?$CStringT@DV?$StrTraitMFC_DLL@DV?$ChTraitsCRT@D@ATL@@@@@ATL@@QAE@XZ
  00043	3b f4		 cmp	 esi, esp
  00045	e9 00 00 00 00	 jmp	 __RTC_CheckEsp
__ehhandler$??0CStaticText@@QAE@XZ:
  0004a	b8 00 00 00 00	 mov	 eax, OFFSET FLAT:$T188201
  0004f	e9 00 00 00 00	 jmp	 ___CxxFrameHandler
text$x	ENDS
??0CStaticText@@QAE@XZ ENDP				; CStaticText::CStaticText
PUBLIC	??1CStaticText@@UAE@XZ				; CStaticText::~CStaticText
EXTRN	??3CObject@@SGXPAX@Z:NEAR			; CObject::operator delete
; Function compile flags: /Odt /RTCsu
;	COMDAT ??_GCStaticText@@UAEPAXI@Z
_TEXT	SEGMENT
_this$ = -4						; size = 4
___flags$ = 8						; size = 4
??_GCStaticText@@UAEPAXI@Z PROC NEAR			; CStaticText::`scalar deleting destructor', COMDAT
; _this$ = ecx
  00000	55		 push	 ebp
  00001	8b ec		 mov	 ebp, esp
  00003	51		 push	 ecx
  00004	c7 45 fc cc cc
	cc cc		 mov	 DWORD PTR [ebp-4], -858993460 ; ccccccccH
  0000b	89 4d fc	 mov	 DWORD PTR _this$[ebp], ecx
  0000e	8b 4d fc	 mov	 ecx, DWORD PTR _this$[ebp]
  00011	e8 00 00 00 00	 call	 ??1CStaticText@@UAE@XZ	; CStaticText::~CStaticText
  00016	8b 45 08	 mov	 eax, DWORD PTR ___flags$[ebp]
  00019	83 e0 01	 and	 eax, 1
  0001c	74 09		 je	 SHORT $L187343
  0001e	8b 4d fc	 mov	 ecx, DWORD PTR _this$[ebp]
  00021	51		 push	 ecx
  00022	e8 00 00 00 00	 call	 ??3CObject@@SGXPAX@Z	; CObject::operator delete
$L187343:
  00027	8b 45 fc	 mov	 eax, DWORD PTR _this$[ebp]
  0002a	83 c4 04	 add	 esp, 4
  0002d	3b ec		 cmp	 ebp, esp
  0002f	e8 00 00 00 00	 call	 __RTC_CheckEsp
  00034	8b e5		 mov	 esp, ebp
  00036	5d		 pop	 ebp
  00037	c2 04 00	 ret	 4
??_GCStaticText@@UAEPAXI@Z ENDP				; CStaticText::`scalar deleting destructor'
_TEXT	ENDS
EXTRN	__imp__DeleteObject@4:NEAR
; Function compile flags: /Odt /RTCsu
_TEXT	SEGMENT
_this$ = -4						; size = 4
??1CStaticText@@UAE@XZ PROC NEAR			; CStaticText::~CStaticText
; _this$ = ecx

; 30   : {

  00170	55		 push	 ebp
  00171	8b ec		 mov	 ebp, esp
  00173	51		 push	 ecx
  00174	56		 push	 esi
  00175	c7 45 fc cc cc
	cc cc		 mov	 DWORD PTR [ebp-4], -858993460 ; ccccccccH
  0017c	89 4d fc	 mov	 DWORD PTR _this$[ebp], ecx
  0017f	8b 45 fc	 mov	 eax, DWORD PTR _this$[ebp]
  00182	c7 00 00 00 00
	00		 mov	 DWORD PTR [eax], OFFSET FLAT:??_7CStaticText@@6B@

; 31   : 	if(mhBrush)

  00188	8b 4d fc	 mov	 ecx, DWORD PTR _this$[ebp]
  0018b	83 b9 80 00 00
	00 00		 cmp	 DWORD PTR [ecx+128], 0
  00192	74 19		 je	 SHORT $L187346

; 32   : 		DeleteObject((HGDIOBJ)mhBrush);

  00194	8b f4		 mov	 esi, esp
  00196	8b 55 fc	 mov	 edx, DWORD PTR _this$[ebp]
  00199	8b 82 80 00 00
	00		 mov	 eax, DWORD PTR [edx+128]
  0019f	50		 push	 eax
  001a0	ff 15 00 00 00
	00		 call	 DWORD PTR __imp__DeleteObject@4
  001a6	3b f4		 cmp	 esi, esp
  001a8	e8 00 00 00 00	 call	 __RTC_CheckEsp
$L187346:

; 33   : }

  001ad	8b 4d fc	 mov	 ecx, DWORD PTR _this$[ebp]
  001b0	81 c1 9c 00 00
	00		 add	 ecx, 156		; 0000009cH
  001b6	8b f4		 mov	 esi, esp
  001b8	ff 15 00 00 00
	00		 call	 DWORD PTR __imp_??1?$CStringT@DV?$StrTraitMFC_DLL@DV?$ChTraitsCRT@D@ATL@@@@@ATL@@QAE@XZ
  001be	3b f4		 cmp	 esi, esp
  001c0	e8 00 00 00 00	 call	 __RTC_CheckEsp
  001c5	8b 4d fc	 mov	 ecx, DWORD PTR _this$[ebp]
  001c8	83 c1 74	 add	 ecx, 116		; 00000074H
  001cb	8b f4		 mov	 esi, esp
  001cd	ff 15 00 00 00
	00		 call	 DWORD PTR __imp_??1?$CStringT@DV?$StrTraitMFC_DLL@DV?$ChTraitsCRT@D@ATL@@@@@ATL@@QAE@XZ
  001d3	3b f4		 cmp	 esi, esp
  001d5	e8 00 00 00 00	 call	 __RTC_CheckEsp
  001da	8b 4d fc	 mov	 ecx, DWORD PTR _this$[ebp]
  001dd	83 c1 70	 add	 ecx, 112		; 00000070H
  001e0	8b f4		 mov	 esi, esp
  001e2	ff 15 00 00 00
	00		 call	 DWORD PTR __imp_??1?$CStringT@DV?$StrTraitMFC_DLL@DV?$ChTraitsCRT@D@ATL@@@@@ATL@@QAE@XZ
  001e8	3b f4		 cmp	 esi, esp
  001ea	e8 00 00 00 00	 call	 __RTC_CheckEsp
  001ef	8b 4d fc	 mov	 ecx, DWORD PTR _this$[ebp]
  001f2	e8 00 00 00 00	 call	 ??1CStatic@@UAE@XZ	; CStatic::~CStatic
  001f7	5e		 pop	 esi
  001f8	83 c4 04	 add	 esp, 4
  001fb	3b ec		 cmp	 ebp, esp
  001fd	e8 00 00 00 00	 call	 __RTC_CheckEsp
  00202	8b e5		 mov	 esp, ebp
  00204	5d		 pop	 ebp
  00205	c3		 ret	 0
??1CStaticText@@UAE@XZ ENDP				; CStaticText::~CStaticText
_TEXT	ENDS
PUBLIC	?GetThisMessageMap@CStaticText@@KGPBUAFX_MSGMAP@@XZ ; CStaticText::GetThisMessageMap
; Function compile flags: /Odt /RTCsu
_TEXT	SEGMENT
?GetThisMessageMap@CStaticText@@KGPBUAFX_MSGMAP@@XZ PROC NEAR ; CStaticText::GetThisMessageMap

; 35   : BEGIN_MESSAGE_MAP(CStaticText, CStatic) 

  00210	55		 push	 ebp
  00211	8b ec		 mov	 ebp, esp
  00213	b8 00 00 00 00	 mov	 eax, OFFSET FLAT:?messageMap@CStaticText@@1UAFX_MSGMAP@@B ; CStaticText::messageMap
  00218	5d		 pop	 ebp
  00219	c3		 ret	 0
?GetThisMessageMap@CStaticText@@KGPBUAFX_MSGMAP@@XZ ENDP ; CStaticText::GetThisMessageMap
; Function compile flags: /Odt /RTCsu
_this$ = -4						; size = 4
?GetMessageMap@CStaticText@@MBEPBUAFX_MSGMAP@@XZ PROC NEAR ; CStaticText::GetMessageMap
; _this$ = ecx

; 35   : BEGIN_MESSAGE_MAP(CStaticText, CStatic) 

  00220	55		 push	 ebp
  00221	8b ec		 mov	 ebp, esp
  00223	51		 push	 ecx
  00224	c7 45 fc cc cc
	cc cc		 mov	 DWORD PTR [ebp-4], -858993460 ; ccccccccH
  0022b	89 4d fc	 mov	 DWORD PTR _this$[ebp], ecx
  0022e	b8 00 00 00 00	 mov	 eax, OFFSET FLAT:?messageMap@CStaticText@@1UAFX_MSGMAP@@B ; CStaticText::messageMap
  00233	8b e5		 mov	 esp, ebp
  00235	5d		 pop	 ebp
  00236	c3		 ret	 0
?GetMessageMap@CStaticText@@MBEPBUAFX_MSGMAP@@XZ ENDP	; CStaticText::GetMessageMap
_TEXT	ENDS
EXTRN	__imp__GetStockObject@4:NEAR
EXTRN	?SetBkMode@CDC@@QAEHH@Z:NEAR			; CDC::SetBkMode
; Function compile flags: /Odt /RTCsu
_TEXT	SEGMENT
_this$ = -4						; size = 4
_pDC$ = 8						; size = 4
_nCtlColor$ = 12					; size = 4
?CtlColor@CStaticText@@IAEPAUHBRUSH__@@PAVCDC@@I@Z PROC NEAR ; CStaticText::CtlColor
; _this$ = ecx

; 52   : {

  00240	55		 push	 ebp
  00241	8b ec		 mov	 ebp, esp
  00243	51		 push	 ecx
  00244	56		 push	 esi
  00245	c7 45 fc cc cc
	cc cc		 mov	 DWORD PTR [ebp-4], -858993460 ; ccccccccH
  0024c	89 4d fc	 mov	 DWORD PTR _this$[ebp], ecx

; 53   : 	if (mhBrush != NULL)

  0024f	8b 45 fc	 mov	 eax, DWORD PTR _this$[ebp]
  00252	83 b8 80 00 00
	00 00		 cmp	 DWORD PTR [eax+128], 0
  00259	74 19		 je	 SHORT $L187389

; 54   : 		DeleteObject((HGDIOBJ)mhBrush);

  0025b	8b f4		 mov	 esi, esp
  0025d	8b 4d fc	 mov	 ecx, DWORD PTR _this$[ebp]
  00260	8b 91 80 00 00
	00		 mov	 edx, DWORD PTR [ecx+128]
  00266	52		 push	 edx
  00267	ff 15 00 00 00
	00		 call	 DWORD PTR __imp__DeleteObject@4
  0026d	3b f4		 cmp	 esi, esp
  0026f	e8 00 00 00 00	 call	 __RTC_CheckEsp
$L187389:

; 55   : 
; 56   : 	mhBrush = (HBRUSH)GetStockObject(HOLLOW_BRUSH);

  00274	8b f4		 mov	 esi, esp
  00276	6a 05		 push	 5
  00278	ff 15 00 00 00
	00		 call	 DWORD PTR __imp__GetStockObject@4
  0027e	3b f4		 cmp	 esi, esp
  00280	e8 00 00 00 00	 call	 __RTC_CheckEsp
  00285	8b 4d fc	 mov	 ecx, DWORD PTR _this$[ebp]
  00288	89 81 80 00 00
	00		 mov	 DWORD PTR [ecx+128], eax

; 57   : 	pDC->SetBkMode(TRANSPARENT);

  0028e	6a 01		 push	 1
  00290	8b 4d 08	 mov	 ecx, DWORD PTR _pDC$[ebp]
  00293	e8 00 00 00 00	 call	 ?SetBkMode@CDC@@QAEHH@Z	; CDC::SetBkMode

; 58   : 	return mhBrush;

  00298	8b 55 fc	 mov	 edx, DWORD PTR _this$[ebp]
  0029b	8b 82 80 00 00
	00		 mov	 eax, DWORD PTR [edx+128]

; 59   : 
; 60   : }

  002a1	5e		 pop	 esi
  002a2	83 c4 04	 add	 esp, 4
  002a5	3b ec		 cmp	 ebp, esp
  002a7	e8 00 00 00 00	 call	 __RTC_CheckEsp
  002ac	8b e5		 mov	 esp, ebp
  002ae	5d		 pop	 ebp
  002af	c2 08 00	 ret	 8
?CtlColor@CStaticText@@IAEPAUHBRUSH__@@PAVCDC@@I@Z ENDP	; CStaticText::CtlColor
_TEXT	ENDS
PUBLIC	??HATL@@YA?AV?$CStringT@DV?$StrTraitMFC_DLL@DV?$ChTraitsCRT@D@ATL@@@@@0@PBDABV10@@Z ; ATL::operator+
PUBLIC	?SetLinkAddress@CStaticText@@QAEHV?$CStringT@DV?$StrTraitMFC_DLL@DV?$ChTraitsCRT@D@ATL@@@@@ATL@@@Z ; CStaticText::SetLinkAddress
EXTRN	__imp_??4?$CStringT@DV?$StrTraitMFC_DLL@DV?$ChTraitsCRT@D@ATL@@@@@ATL@@QAEAAV01@ABV01@@Z:NEAR
EXTRN	__imp_?Find@?$CStringT@DV?$StrTraitMFC_DLL@DV?$ChTraitsCRT@D@ATL@@@@@ATL@@QBEHPBDH@Z:NEAR
xdata$x	SEGMENT
$T188225 DD	0ffffffffH
	DD	FLAT:$L188220
	DD	00H
	DD	FLAT:$L188221
$T188223 DD	019930520H
	DD	02H
	DD	FLAT:$T188225
	DD	2 DUP(00H)
	DD	2 DUP(00H)
; Function compile flags: /Odt /RTCsu
xdata$x	ENDS
_TEXT	SEGMENT
tv93 = -36						; size = 4
tv130 = -32						; size = 4
$T188219 = -28						; size = 4
$T188218 = -24						; size = 4
$T188217 = -20						; size = 4
_this$ = -16						; size = 4
__$EHRec$ = -12						; size = 12
_linkaddress$ = 8					; size = 4
?SetLinkAddress@CStaticText@@QAEHV?$CStringT@DV?$StrTraitMFC_DLL@DV?$ChTraitsCRT@D@ATL@@@@@ATL@@@Z PROC NEAR ; CStaticText::SetLinkAddress
; _this$ = ecx

; 62   : {   

  002c0	55		 push	 ebp
  002c1	8b ec		 mov	 ebp, esp
  002c3	6a ff		 push	 -1
  002c5	68 00 00 00 00	 push	 __ehhandler$?SetLinkAddress@CStaticText@@QAEHV?$CStringT@DV?$StrTraitMFC_DLL@DV?$ChTraitsCRT@D@ATL@@@@@ATL@@@Z
  002ca	64 a1 00 00 00
	00		 mov	 eax, DWORD PTR fs:__except_list
  002d0	50		 push	 eax
  002d1	64 89 25 00 00
	00 00		 mov	 DWORD PTR fs:__except_list, esp
  002d8	83 ec 18	 sub	 esp, 24			; 00000018H
  002db	56		 push	 esi
  002dc	b8 cc cc cc cc	 mov	 eax, -858993460		; ccccccccH
  002e1	89 45 dc	 mov	 DWORD PTR [ebp-36], eax
  002e4	89 45 e0	 mov	 DWORD PTR [ebp-32], eax
  002e7	89 45 e4	 mov	 DWORD PTR [ebp-28], eax
  002ea	89 45 e8	 mov	 DWORD PTR [ebp-24], eax
  002ed	89 45 ec	 mov	 DWORD PTR [ebp-20], eax
  002f0	89 45 f0	 mov	 DWORD PTR [ebp-16], eax
  002f3	89 4d f0	 mov	 DWORD PTR _this$[ebp], ecx
  002f6	c7 45 fc 00 00
	00 00		 mov	 DWORD PTR __$EHRec$[ebp+8], 0

; 63   : 	mbUrl = TRUE;

  002fd	8b 45 f0	 mov	 eax, DWORD PTR _this$[ebp]
  00300	c6 80 8d 00 00
	00 01		 mov	 BYTE PTR [eax+141], 1

; 64   : 	if (linkaddress.Find("http") != -1)								//验证地址的合法性

  00307	8b f4		 mov	 esi, esp
  00309	6a 00		 push	 0
  0030b	68 00 00 00 00	 push	 OFFSET FLAT:$SG187397
  00310	8d 4d 08	 lea	 ecx, DWORD PTR _linkaddress$[ebp]
  00313	ff 15 00 00 00
	00		 call	 DWORD PTR __imp_?Find@?$CStringT@DV?$StrTraitMFC_DLL@DV?$ChTraitsCRT@D@ATL@@@@@ATL@@QBEHPBDH@Z
  00319	3b f4		 cmp	 esi, esp
  0031b	e8 00 00 00 00	 call	 __RTC_CheckEsp
  00320	83 f8 ff	 cmp	 eax, -1
  00323	74 1e		 je	 SHORT $L187396

; 65   : 		mLinkText = linkaddress;

  00325	8b f4		 mov	 esi, esp
  00327	8d 4d 08	 lea	 ecx, DWORD PTR _linkaddress$[ebp]
  0032a	51		 push	 ecx
  0032b	8b 4d f0	 mov	 ecx, DWORD PTR _this$[ebp]
  0032e	83 c1 74	 add	 ecx, 116		; 00000074H
  00331	ff 15 00 00 00
	00		 call	 DWORD PTR __imp_??4?$CStringT@DV?$StrTraitMFC_DLL@DV?$ChTraitsCRT@D@ATL@@@@@ATL@@QAEAAV01@ABV01@@Z
  00337	3b f4		 cmp	 esi, esp
  00339	e8 00 00 00 00	 call	 __RTC_CheckEsp

; 66   : 	else if (linkaddress.Find("@") != -1)

  0033e	e9 b0 00 00 00	 jmp	 $L187398
$L187396:
  00343	8b f4		 mov	 esi, esp
  00345	6a 00		 push	 0
  00347	68 00 00 00 00	 push	 OFFSET FLAT:$SG187400
  0034c	8d 4d 08	 lea	 ecx, DWORD PTR _linkaddress$[ebp]
  0034f	ff 15 00 00 00
	00		 call	 DWORD PTR __imp_?Find@?$CStringT@DV?$StrTraitMFC_DLL@DV?$ChTraitsCRT@D@ATL@@@@@ATL@@QBEHPBDH@Z
  00355	3b f4		 cmp	 esi, esp
  00357	e8 00 00 00 00	 call	 __RTC_CheckEsp
  0035c	83 f8 ff	 cmp	 eax, -1
  0035f	74 53		 je	 SHORT $L187399

; 67   : 		mLinkText = "mailto:"+linkaddress;

  00361	8d 55 08	 lea	 edx, DWORD PTR _linkaddress$[ebp]
  00364	52		 push	 edx
  00365	68 00 00 00 00	 push	 OFFSET FLAT:$SG187402
  0036a	8d 45 ec	 lea	 eax, DWORD PTR $T188217[ebp]
  0036d	50		 push	 eax
  0036e	e8 00 00 00 00	 call	 ??HATL@@YA?AV?$CStringT@DV?$StrTraitMFC_DLL@DV?$ChTraitsCRT@D@ATL@@@@@0@PBDABV10@@Z ; ATL::operator+
  00373	83 c4 0c	 add	 esp, 12			; 0000000cH
  00376	89 45 e0	 mov	 DWORD PTR tv130[ebp], eax
  00379	8b 4d e0	 mov	 ecx, DWORD PTR tv130[ebp]
  0037c	89 4d dc	 mov	 DWORD PTR tv93[ebp], ecx
  0037f	c6 45 fc 01	 mov	 BYTE PTR __$EHRec$[ebp+8], 1
  00383	8b f4		 mov	 esi, esp
  00385	8b 55 dc	 mov	 edx, DWORD PTR tv93[ebp]
  00388	52		 push	 edx
  00389	8b 4d f0	 mov	 ecx, DWORD PTR _this$[ebp]
  0038c	83 c1 74	 add	 ecx, 116		; 00000074H
  0038f	ff 15 00 00 00
	00		 call	 DWORD PTR __imp_??4?$CStringT@DV?$StrTraitMFC_DLL@DV?$ChTraitsCRT@D@ATL@@@@@ATL@@QAEAAV01@ABV01@@Z
  00395	3b f4		 cmp	 esi, esp
  00397	e8 00 00 00 00	 call	 __RTC_CheckEsp
  0039c	c6 45 fc 00	 mov	 BYTE PTR __$EHRec$[ebp+8], 0
  003a0	8b f4		 mov	 esi, esp
  003a2	8d 4d ec	 lea	 ecx, DWORD PTR $T188217[ebp]
  003a5	ff 15 00 00 00
	00		 call	 DWORD PTR __imp_??1?$CStringT@DV?$StrTraitMFC_DLL@DV?$ChTraitsCRT@D@ATL@@@@@ATL@@QAE@XZ
  003ab	3b f4		 cmp	 esi, esp
  003ad	e8 00 00 00 00	 call	 __RTC_CheckEsp

; 68   : 	else

  003b2	eb 3f		 jmp	 SHORT $L187398
$L187399:

; 69   : 	{
; 70   : 		mLinkText = "";

  003b4	8b f4		 mov	 esi, esp
  003b6	68 00 00 00 00	 push	 OFFSET FLAT:$SG187404
  003bb	8b 4d f0	 mov	 ecx, DWORD PTR _this$[ebp]
  003be	83 c1 74	 add	 ecx, 116		; 00000074H
  003c1	ff 15 00 00 00
	00		 call	 DWORD PTR __imp_??4?$CStringT@DV?$StrTraitMFC_DLL@DV?$ChTraitsCRT@D@ATL@@@@@ATL@@QAEAAV01@PBD@Z
  003c7	3b f4		 cmp	 esi, esp
  003c9	e8 00 00 00 00	 call	 __RTC_CheckEsp

; 71   : 		return FALSE;

  003ce	c7 45 e8 00 00
	00 00		 mov	 DWORD PTR $T188218[ebp], 0
  003d5	c7 45 fc ff ff
	ff ff		 mov	 DWORD PTR __$EHRec$[ebp+8], -1
  003dc	8b f4		 mov	 esi, esp
  003de	8d 4d 08	 lea	 ecx, DWORD PTR _linkaddress$[ebp]
  003e1	ff 15 00 00 00
	00		 call	 DWORD PTR __imp_??1?$CStringT@DV?$StrTraitMFC_DLL@DV?$ChTraitsCRT@D@ATL@@@@@ATL@@QAE@XZ
  003e7	3b f4		 cmp	 esi, esp
  003e9	e8 00 00 00 00	 call	 __RTC_CheckEsp
  003ee	8b 45 e8	 mov	 eax, DWORD PTR $T188218[ebp]
  003f1	eb 23		 jmp	 SHORT $L187395
$L187398:

; 72   : 	}
; 73   : 	return TRUE;

  003f3	c7 45 e4 01 00
	00 00		 mov	 DWORD PTR $T188219[ebp], 1
  003fa	c7 45 fc ff ff
	ff ff		 mov	 DWORD PTR __$EHRec$[ebp+8], -1
  00401	8b f4		 mov	 esi, esp
  00403	8d 4d 08	 lea	 ecx, DWORD PTR _linkaddress$[ebp]
  00406	ff 15 00 00 00
	00		 call	 DWORD PTR __imp_??1?$CStringT@DV?$StrTraitMFC_DLL@DV?$ChTraitsCRT@D@ATL@@@@@ATL@@QAE@XZ
  0040c	3b f4		 cmp	 esi, esp
  0040e	e8 00 00 00 00	 call	 __RTC_CheckEsp
  00413	8b 45 e4	 mov	 eax, DWORD PTR $T188219[ebp]
$L187395:

; 74   : }

  00416	8b 4d f4	 mov	 ecx, DWORD PTR __$EHRec$[ebp]
  00419	64 89 0d 00 00
	00 00		 mov	 DWORD PTR fs:__except_list, ecx
  00420	5e		 pop	 esi
  00421	83 c4 24	 add	 esp, 36			; 00000024H
  00424	3b ec		 cmp	 ebp, esp
  00426	e8 00 00 00 00	 call	 __RTC_CheckEsp
  0042b	8b e5		 mov	 esp, ebp
  0042d	5d		 pop	 ebp
  0042e	c2 04 00	 ret	 4
_TEXT	ENDS
text$x	SEGMENT
$L188220:
  00054	8b f4		 mov	 esi, esp
  00056	8d 4d 08	 lea	 ecx, DWORD PTR _linkaddress$[ebp]
  00059	ff 15 00 00 00
	00		 call	 DWORD PTR __imp_??1?$CStringT@DV?$StrTraitMFC_DLL@DV?$ChTraitsCRT@D@ATL@@@@@ATL@@QAE@XZ
  0005f	3b f4		 cmp	 esi, esp
  00061	e9 00 00 00 00	 jmp	 __RTC_CheckEsp
$L188221:
  00066	8b f4		 mov	 esi, esp
  00068	8d 4d ec	 lea	 ecx, DWORD PTR $T188217[ebp]
  0006b	ff 15 00 00 00
	00		 call	 DWORD PTR __imp_??1?$CStringT@DV?$StrTraitMFC_DLL@DV?$ChTraitsCRT@D@ATL@@@@@ATL@@QAE@XZ
  00071	3b f4		 cmp	 esi, esp
  00073	e9 00 00 00 00	 jmp	 __RTC_CheckEsp
__ehhandler$?SetLinkAddress@CStaticText@@QAEHV?$CStringT@DV?$StrTraitMFC_DLL@DV?$ChTraitsCRT@D@ATL@@@@@ATL@@@Z:
  00078	b8 00 00 00 00	 mov	 eax, OFFSET FLAT:$T188223
  0007d	e9 00 00 00 00	 jmp	 ___CxxFrameHandler
text$x	ENDS
?SetLinkAddress@CStaticText@@QAEHV?$CStringT@DV?$StrTraitMFC_DLL@DV?$ChTraitsCRT@D@ATL@@@@@ATL@@@Z ENDP ; CStaticText::SetLinkAddress
PUBLIC	??9ATL@@YA_NABV?$CStringT@DV?$StrTraitMFC_DLL@DV?$ChTraitsCRT@D@ATL@@@@@0@0@Z ; ATL::operator!=
EXTRN	??0CRect@@QAE@XZ:NEAR				; CRect::CRect
EXTRN	??BCRect@@QAEPAUtagRECT@@XZ:NEAR		; CRect::operator tagRECT *
EXTRN	?GetClientRect@CWnd@@QBEXPAUtagRECT@@@Z:NEAR	; CWnd::GetClientRect
EXTRN	?ClientToScreen@CWnd@@QBEXPAUtagRECT@@@Z:NEAR	; CWnd::ClientToScreen
EXTRN	?ScreenToClient@CWnd@@QBEXPAUtagRECT@@@Z:NEAR	; CWnd::ScreenToClient
EXTRN	?InvalidateRect@CWnd@@QAEXPBUtagRECT@@H@Z:NEAR	; CWnd::InvalidateRect
EXTRN	__imp_??0?$CStringT@DV?$StrTraitMFC_DLL@DV?$ChTraitsCRT@D@ATL@@@@@ATL@@QAE@ABV01@@Z:NEAR
EXTRN	@_RTC_CheckStackVars@8:NEAR
EXTRN	?GetParent@CWnd@@QBEPAV1@XZ:NEAR		; CWnd::GetParent
xdata$x	SEGMENT
$T188237 DD	0ffffffffH
	DD	FLAT:$L188228
$T188230 DD	019930520H
	DD	01H
	DD	FLAT:$T188237
	DD	2 DUP(00H)
	DD	2 DUP(00H)
; Function compile flags: /Odt /RTCsu
xdata$x	ENDS
_TEXT	SEGMENT
$T188227 = -60						; size = 4
_lpWnd$187416 = -56					; size = 4
_lRect$187415 = -48					; size = 16
_lstrText$ = -24					; size = 4
_this$ = -16						; size = 4
__$EHRec$ = -12						; size = 12
_wParam$ = 8						; size = 4
_lParam$ = 12						; size = 4
?OnSetText@CStaticText@@QAEJIJ@Z PROC NEAR		; CStaticText::OnSetText
; _this$ = ecx

; 82   : {

  00440	55		 push	 ebp
  00441	8b ec		 mov	 ebp, esp
  00443	6a ff		 push	 -1
  00445	68 00 00 00 00	 push	 __ehhandler$?OnSetText@CStaticText@@QAEJIJ@Z
  0044a	64 a1 00 00 00
	00		 mov	 eax, DWORD PTR fs:__except_list
  00450	50		 push	 eax
  00451	64 89 25 00 00
	00 00		 mov	 DWORD PTR fs:__except_list, esp
  00458	83 ec 30	 sub	 esp, 48			; 00000030H
  0045b	56		 push	 esi
  0045c	57		 push	 edi
  0045d	51		 push	 ecx
  0045e	8d 7d c4	 lea	 edi, DWORD PTR [ebp-60]
  00461	b9 0c 00 00 00	 mov	 ecx, 12			; 0000000cH
  00466	b8 cc cc cc cc	 mov	 eax, -858993460		; ccccccccH
  0046b	f3 ab		 rep stosd
  0046d	59		 pop	 ecx
  0046e	89 4d f0	 mov	 DWORD PTR _this$[ebp], ecx

; 83   : 	CString lstrText = mstrText;

  00471	8b 45 f0	 mov	 eax, DWORD PTR _this$[ebp]
  00474	83 c0 70	 add	 eax, 112		; 00000070H
  00477	8b f4		 mov	 esi, esp
  00479	50		 push	 eax
  0047a	8d 4d e8	 lea	 ecx, DWORD PTR _lstrText$[ebp]
  0047d	ff 15 00 00 00
	00		 call	 DWORD PTR __imp_??0?$CStringT@DV?$StrTraitMFC_DLL@DV?$ChTraitsCRT@D@ATL@@@@@ATL@@QAE@ABV01@@Z
  00483	3b f4		 cmp	 esi, esp
  00485	e8 00 00 00 00	 call	 __RTC_CheckEsp
  0048a	c7 45 fc 00 00
	00 00		 mov	 DWORD PTR __$EHRec$[ebp+8], 0

; 84   : 	mstrText = (LPCTSTR)lParam;

  00491	8b f4		 mov	 esi, esp
  00493	8b 4d 0c	 mov	 ecx, DWORD PTR _lParam$[ebp]
  00496	51		 push	 ecx
  00497	8b 4d f0	 mov	 ecx, DWORD PTR _this$[ebp]
  0049a	83 c1 70	 add	 ecx, 112		; 00000070H
  0049d	ff 15 00 00 00
	00		 call	 DWORD PTR __imp_??4?$CStringT@DV?$StrTraitMFC_DLL@DV?$ChTraitsCRT@D@ATL@@@@@ATL@@QAEAAV01@PBD@Z
  004a3	3b f4		 cmp	 esi, esp
  004a5	e8 00 00 00 00	 call	 __RTC_CheckEsp

; 85   : 	mbSetText = true;

  004aa	8b 55 f0	 mov	 edx, DWORD PTR _this$[ebp]
  004ad	c6 42 6c 01	 mov	 BYTE PTR [edx+108], 1

; 86   : 
; 87   : 	if (lstrText != mstrText)

  004b1	8b 45 f0	 mov	 eax, DWORD PTR _this$[ebp]
  004b4	83 c0 70	 add	 eax, 112		; 00000070H
  004b7	50		 push	 eax
  004b8	8d 4d e8	 lea	 ecx, DWORD PTR _lstrText$[ebp]
  004bb	51		 push	 ecx
  004bc	e8 00 00 00 00	 call	 ??9ATL@@YA_NABV?$CStringT@DV?$StrTraitMFC_DLL@DV?$ChTraitsCRT@D@ATL@@@@@0@0@Z ; ATL::operator!=
  004c1	83 c4 08	 add	 esp, 8
  004c4	0f b6 d0	 movzx	 edx, al
  004c7	85 d2		 test	 edx, edx
  004c9	74 56		 je	 SHORT $L187414

; 88   : 	{
; 89   : 		CRect lRect;

  004cb	8d 4d d0	 lea	 ecx, DWORD PTR _lRect$187415[ebp]
  004ce	e8 00 00 00 00	 call	 ??0CRect@@QAE@XZ	; CRect::CRect

; 90   : 		GetClientRect(lRect);

  004d3	8d 4d d0	 lea	 ecx, DWORD PTR _lRect$187415[ebp]
  004d6	e8 00 00 00 00	 call	 ??BCRect@@QAEPAUtagRECT@@XZ ; CRect::operator tagRECT *
  004db	50		 push	 eax
  004dc	8b 4d f0	 mov	 ecx, DWORD PTR _this$[ebp]
  004df	e8 00 00 00 00	 call	 ?GetClientRect@CWnd@@QBEXPAUtagRECT@@@Z ; CWnd::GetClientRect

; 91   : 		ClientToScreen(&lRect);

  004e4	8d 45 d0	 lea	 eax, DWORD PTR _lRect$187415[ebp]
  004e7	50		 push	 eax
  004e8	8b 4d f0	 mov	 ecx, DWORD PTR _this$[ebp]
  004eb	e8 00 00 00 00	 call	 ?ClientToScreen@CWnd@@QBEXPAUtagRECT@@@Z ; CWnd::ClientToScreen

; 92   : 
; 93   : 		CWnd* lpWnd = NULL;

  004f0	c7 45 c8 00 00
	00 00		 mov	 DWORD PTR _lpWnd$187416[ebp], 0

; 94   : 		lpWnd = GetParent();

  004f7	8b 4d f0	 mov	 ecx, DWORD PTR _this$[ebp]
  004fa	e8 00 00 00 00	 call	 ?GetParent@CWnd@@QBEPAV1@XZ ; CWnd::GetParent
  004ff	89 45 c8	 mov	 DWORD PTR _lpWnd$187416[ebp], eax

; 95   : 		lpWnd->ScreenToClient(&lRect);

  00502	8d 4d d0	 lea	 ecx, DWORD PTR _lRect$187415[ebp]
  00505	51		 push	 ecx
  00506	8b 4d c8	 mov	 ecx, DWORD PTR _lpWnd$187416[ebp]
  00509	e8 00 00 00 00	 call	 ?ScreenToClient@CWnd@@QBEXPAUtagRECT@@@Z ; CWnd::ScreenToClient

; 96   : 		lpWnd->InvalidateRect(lRect, FALSE);

  0050e	6a 00		 push	 0
  00510	8d 4d d0	 lea	 ecx, DWORD PTR _lRect$187415[ebp]
  00513	e8 00 00 00 00	 call	 ??BCRect@@QAEPAUtagRECT@@XZ ; CRect::operator tagRECT *
  00518	50		 push	 eax
  00519	8b 4d c8	 mov	 ecx, DWORD PTR _lpWnd$187416[ebp]
  0051c	e8 00 00 00 00	 call	 ?InvalidateRect@CWnd@@QAEXPBUtagRECT@@H@Z ; CWnd::InvalidateRect
$L187414:

; 97   : 	}
; 98   : 
; 99   : 	return NULL;

  00521	c7 45 c4 00 00
	00 00		 mov	 DWORD PTR $T188227[ebp], 0
  00528	c7 45 fc ff ff
	ff ff		 mov	 DWORD PTR __$EHRec$[ebp+8], -1
  0052f	8b f4		 mov	 esi, esp
  00531	8d 4d e8	 lea	 ecx, DWORD PTR _lstrText$[ebp]
  00534	ff 15 00 00 00
	00		 call	 DWORD PTR __imp_??1?$CStringT@DV?$StrTraitMFC_DLL@DV?$ChTraitsCRT@D@ATL@@@@@ATL@@QAE@XZ
  0053a	3b f4		 cmp	 esi, esp
  0053c	e8 00 00 00 00	 call	 __RTC_CheckEsp
  00541	8b 45 c4	 mov	 eax, DWORD PTR $T188227[ebp]

; 100  : }

  00544	52		 push	 edx
  00545	8b cd		 mov	 ecx, ebp
  00547	50		 push	 eax
  00548	8d 15 00 00 00
	00		 lea	 edx, DWORD PTR $L188235
  0054e	e8 00 00 00 00	 call	 @_RTC_CheckStackVars@8
  00553	58		 pop	 eax
  00554	5a		 pop	 edx
  00555	8b 4d f4	 mov	 ecx, DWORD PTR __$EHRec$[ebp]
  00558	64 89 0d 00 00
	00 00		 mov	 DWORD PTR fs:__except_list, ecx
  0055f	5f		 pop	 edi
  00560	5e		 pop	 esi
  00561	83 c4 3c	 add	 esp, 60			; 0000003cH
  00564	3b ec		 cmp	 ebp, esp
  00566	e8 00 00 00 00	 call	 __RTC_CheckEsp
  0056b	8b e5		 mov	 esp, ebp
  0056d	5d		 pop	 ebp
  0056e	c2 08 00	 ret	 8
$L188235:
  00571	02 00 00 00	 DD	 2
  00575	00 00 00 00	 DD	 $L188234
$L188234:
  00579	e8 ff ff ff	 DD	 -24			; ffffffe8H
  0057d	04 00 00 00	 DD	 4
  00581	00 00 00 00	 DD	 $L188231
  00585	d0 ff ff ff	 DD	 -48			; ffffffd0H
  00589	10 00 00 00	 DD	 16			; 00000010H
  0058d	00 00 00 00	 DD	 $L188232
$L188232:
  00591	6c		 DB	 108			; 0000006cH
  00592	52		 DB	 82			; 00000052H
  00593	65		 DB	 101			; 00000065H
  00594	63		 DB	 99			; 00000063H
  00595	74		 DB	 116			; 00000074H
  00596	00		 DB	 0
$L188231:
  00597	6c		 DB	 108			; 0000006cH
  00598	73		 DB	 115			; 00000073H
  00599	74		 DB	 116			; 00000074H
  0059a	72		 DB	 114			; 00000072H
  0059b	54		 DB	 84			; 00000054H
  0059c	65		 DB	 101			; 00000065H
  0059d	78		 DB	 120			; 00000078H
  0059e	74		 DB	 116			; 00000074H
  0059f	00		 DB	 0
_TEXT	ENDS
text$x	SEGMENT
$L188228:
  00082	8b f4		 mov	 esi, esp
  00084	8d 4d e8	 lea	 ecx, DWORD PTR _lstrText$[ebp]
  00087	ff 15 00 00 00
	00		 call	 DWORD PTR __imp_??1?$CStringT@DV?$StrTraitMFC_DLL@DV?$ChTraitsCRT@D@ATL@@@@@ATL@@QAE@XZ
  0008d	3b f4		 cmp	 esi, esp
  0008f	e9 00 00 00 00	 jmp	 __RTC_CheckEsp
__ehhandler$?OnSetText@CStaticText@@QAEJIJ@Z:
  00094	b8 00 00 00 00	 mov	 eax, OFFSET FLAT:$T188230
  00099	e9 00 00 00 00	 jmp	 ___CxxFrameHandler
text$x	ENDS
?OnSetText@CStaticText@@QAEJIJ@Z ENDP			; CStaticText::OnSetText
PUBLIC	?InvalidateBack@CStaticText@@AAEXXZ		; CStaticText::InvalidateBack
; Function compile flags: /Odt /RTCsu
_TEXT	SEGMENT
_lpWnd$ = -8						; size = 4
_this$ = -4						; size = 4
?InvalidateBack@CStaticText@@AAEXXZ PROC NEAR		; CStaticText::InvalidateBack
; _this$ = ecx

; 102  : {

  005a0	55		 push	 ebp
  005a1	8b ec		 mov	 ebp, esp
  005a3	83 ec 08	 sub	 esp, 8
  005a6	c7 45 f8 cc cc
	cc cc		 mov	 DWORD PTR [ebp-8], -858993460 ; ccccccccH
  005ad	c7 45 fc cc cc
	cc cc		 mov	 DWORD PTR [ebp-4], -858993460 ; ccccccccH
  005b4	89 4d fc	 mov	 DWORD PTR _this$[ebp], ecx

; 103  : 	CWnd* lpWnd = NULL;

  005b7	c7 45 f8 00 00
	00 00		 mov	 DWORD PTR _lpWnd$[ebp], 0

; 104  : 	lpWnd = GetParent();

  005be	8b 4d fc	 mov	 ecx, DWORD PTR _this$[ebp]
  005c1	e8 00 00 00 00	 call	 ?GetParent@CWnd@@QBEPAV1@XZ ; CWnd::GetParent
  005c6	89 45 f8	 mov	 DWORD PTR _lpWnd$[ebp], eax

; 105  : 	/*if (lpWnd && ::IsWindow(lpWnd->m_hWnd)  )
; 106  : 	{
; 107  : 	CRect lRect;
; 108  : 	GetClientRect(lRect);
; 109  : 	ClientToScreen(&lRect);
; 110  : 
; 111  : 	lpWnd->ScreenToClient(&lRect);
; 112  : 	lpWnd->InvalidateRect(lRect, FALSE);
; 113  : 	this->Invalidate(FALSE);
; 114  : 	}*/
; 115  : 
; 116  : }

  005c9	83 c4 08	 add	 esp, 8
  005cc	3b ec		 cmp	 ebp, esp
  005ce	e8 00 00 00 00	 call	 __RTC_CheckEsp
  005d3	8b e5		 mov	 esp, ebp
  005d5	5d		 pop	 ebp
  005d6	c3		 ret	 0
?InvalidateBack@CStaticText@@AAEXXZ ENDP		; CStaticText::InvalidateBack
_TEXT	ENDS
PUBLIC	?SetGradient@CStaticText@@QAEXKK@Z		; CStaticText::SetGradient
; Function compile flags: /Odt /RTCsu
_TEXT	SEGMENT
_this$ = -4						; size = 4
_aBeginColor$ = 8					; size = 4
_aEndColor$ = 12					; size = 4
?SetGradient@CStaticText@@QAEXKK@Z PROC NEAR		; CStaticText::SetGradient
; _this$ = ecx

; 125  : {

  005e0	55		 push	 ebp
  005e1	8b ec		 mov	 ebp, esp
  005e3	51		 push	 ecx
  005e4	c7 45 fc cc cc
	cc cc		 mov	 DWORD PTR [ebp-4], -858993460 ; ccccccccH
  005eb	89 4d fc	 mov	 DWORD PTR _this$[ebp], ecx

; 126  : 	mPaintStyle = epsHGradient;

  005ee	8b 45 fc	 mov	 eax, DWORD PTR _this$[ebp]
  005f1	c7 40 68 02 00
	00 00		 mov	 DWORD PTR [eax+104], 2

; 127  : 	mBeginColor = aBeginColor;

  005f8	8b 4d fc	 mov	 ecx, DWORD PTR _this$[ebp]
  005fb	8b 55 08	 mov	 edx, DWORD PTR _aBeginColor$[ebp]
  005fe	89 51 5c	 mov	 DWORD PTR [ecx+92], edx

; 128  : 	mEndColor = aEndColor;

  00601	8b 45 fc	 mov	 eax, DWORD PTR _this$[ebp]
  00604	8b 4d 0c	 mov	 ecx, DWORD PTR _aEndColor$[ebp]
  00607	89 48 60	 mov	 DWORD PTR [eax+96], ecx

; 129  : 	InvalidateBack();

  0060a	8b 4d fc	 mov	 ecx, DWORD PTR _this$[ebp]
  0060d	e8 00 00 00 00	 call	 ?InvalidateBack@CStaticText@@AAEXXZ ; CStaticText::InvalidateBack

; 130  : }

  00612	83 c4 04	 add	 esp, 4
  00615	3b ec		 cmp	 ebp, esp
  00617	e8 00 00 00 00	 call	 __RTC_CheckEsp
  0061c	8b e5		 mov	 esp, ebp
  0061e	5d		 pop	 ebp
  0061f	c2 08 00	 ret	 8
?SetGradient@CStaticText@@QAEXKK@Z ENDP			; CStaticText::SetGradient
_TEXT	ENDS
PUBLIC	?SetVerticalGradient@CStaticText@@QAEXKK@Z	; CStaticText::SetVerticalGradient
; Function compile flags: /Odt /RTCsu
_TEXT	SEGMENT
_this$ = -4						; size = 4
_aBeginColor$ = 8					; size = 4
_aEndColor$ = 12					; size = 4
?SetVerticalGradient@CStaticText@@QAEXKK@Z PROC NEAR	; CStaticText::SetVerticalGradient
; _this$ = ecx

; 140  : {

  00630	55		 push	 ebp
  00631	8b ec		 mov	 ebp, esp
  00633	51		 push	 ecx
  00634	c7 45 fc cc cc
	cc cc		 mov	 DWORD PTR [ebp-4], -858993460 ; ccccccccH
  0063b	89 4d fc	 mov	 DWORD PTR _this$[ebp], ecx

; 141  : 	mPaintStyle = epsVGradient;

  0063e	8b 45 fc	 mov	 eax, DWORD PTR _this$[ebp]
  00641	c7 40 68 03 00
	00 00		 mov	 DWORD PTR [eax+104], 3

; 142  : 	mBeginColor = aBeginColor;

  00648	8b 4d fc	 mov	 ecx, DWORD PTR _this$[ebp]
  0064b	8b 55 08	 mov	 edx, DWORD PTR _aBeginColor$[ebp]
  0064e	89 51 5c	 mov	 DWORD PTR [ecx+92], edx

; 143  : 	mEndColor = aEndColor;

  00651	8b 45 fc	 mov	 eax, DWORD PTR _this$[ebp]
  00654	8b 4d 0c	 mov	 ecx, DWORD PTR _aEndColor$[ebp]
  00657	89 48 60	 mov	 DWORD PTR [eax+96], ecx

; 144  : 	InvalidateBack();

  0065a	8b 4d fc	 mov	 ecx, DWORD PTR _this$[ebp]
  0065d	e8 00 00 00 00	 call	 ?InvalidateBack@CStaticText@@AAEXXZ ; CStaticText::InvalidateBack

; 145  : }

  00662	83 c4 04	 add	 esp, 4
  00665	3b ec		 cmp	 ebp, esp
  00667	e8 00 00 00 00	 call	 __RTC_CheckEsp
  0066c	8b e5		 mov	 esp, ebp
  0066e	5d		 pop	 ebp
  0066f	c2 08 00	 ret	 8
?SetVerticalGradient@CStaticText@@QAEXKK@Z ENDP		; CStaticText::SetVerticalGradient
_TEXT	ENDS
PUBLIC	?SetOpaque@CStaticText@@QAEXK@Z			; CStaticText::SetOpaque
; Function compile flags: /Odt /RTCsu
_TEXT	SEGMENT
_this$ = -4						; size = 4
_aBackColor$ = 8					; size = 4
?SetOpaque@CStaticText@@QAEXK@Z PROC NEAR		; CStaticText::SetOpaque
; _this$ = ecx

; 154  : {

  00680	55		 push	 ebp
  00681	8b ec		 mov	 ebp, esp
  00683	51		 push	 ecx
  00684	c7 45 fc cc cc
	cc cc		 mov	 DWORD PTR [ebp-4], -858993460 ; ccccccccH
  0068b	89 4d fc	 mov	 DWORD PTR _this$[ebp], ecx

; 155  : 	mPaintStyle = epsOpaque;

  0068e	8b 45 fc	 mov	 eax, DWORD PTR _this$[ebp]
  00691	c7 40 68 01 00
	00 00		 mov	 DWORD PTR [eax+104], 1

; 156  : 	mBackColor = aBackColor;

  00698	8b 4d fc	 mov	 ecx, DWORD PTR _this$[ebp]
  0069b	8b 55 08	 mov	 edx, DWORD PTR _aBackColor$[ebp]
  0069e	89 51 58	 mov	 DWORD PTR [ecx+88], edx

; 157  : 	InvalidateBack();

  006a1	8b 4d fc	 mov	 ecx, DWORD PTR _this$[ebp]
  006a4	e8 00 00 00 00	 call	 ?InvalidateBack@CStaticText@@AAEXXZ ; CStaticText::InvalidateBack

; 158  : }

  006a9	83 c4 04	 add	 esp, 4
  006ac	3b ec		 cmp	 ebp, esp
  006ae	e8 00 00 00 00	 call	 __RTC_CheckEsp
  006b3	8b e5		 mov	 esp, ebp
  006b5	5d		 pop	 ebp
  006b6	c2 04 00	 ret	 4
?SetOpaque@CStaticText@@QAEXK@Z ENDP			; CStaticText::SetOpaque
_TEXT	ENDS
PUBLIC	?SetToolBarBK@CStaticText@@QAEXK@Z		; CStaticText::SetToolBarBK
; Function compile flags: /Odt /RTCsu
_TEXT	SEGMENT
_this$ = -4						; size = 4
_aBorderColor$ = 8					; size = 4
?SetToolBarBK@CStaticText@@QAEXK@Z PROC NEAR		; CStaticText::SetToolBarBK
; _this$ = ecx

; 167  : {

  006c0	55		 push	 ebp
  006c1	8b ec		 mov	 ebp, esp
  006c3	51		 push	 ecx
  006c4	c7 45 fc cc cc
	cc cc		 mov	 DWORD PTR [ebp-4], -858993460 ; ccccccccH
  006cb	89 4d fc	 mov	 DWORD PTR _this$[ebp], ecx

; 168  : 	mPaintStyle = espToolBar;

  006ce	8b 45 fc	 mov	 eax, DWORD PTR _this$[ebp]
  006d1	c7 40 68 04 00
	00 00		 mov	 DWORD PTR [eax+104], 4

; 169  : 	mBorderColor = aBorderColor;

  006d8	8b 4d fc	 mov	 ecx, DWORD PTR _this$[ebp]
  006db	8b 55 08	 mov	 edx, DWORD PTR _aBorderColor$[ebp]
  006de	89 51 64	 mov	 DWORD PTR [ecx+100], edx

; 170  : 	InvalidateBack();

  006e1	8b 4d fc	 mov	 ecx, DWORD PTR _this$[ebp]
  006e4	e8 00 00 00 00	 call	 ?InvalidateBack@CStaticText@@AAEXXZ ; CStaticText::InvalidateBack

; 171  : }

  006e9	83 c4 04	 add	 esp, 4
  006ec	3b ec		 cmp	 ebp, esp
  006ee	e8 00 00 00 00	 call	 __RTC_CheckEsp
  006f3	8b e5		 mov	 esp, ebp
  006f5	5d		 pop	 ebp
  006f6	c2 04 00	 ret	 4
?SetToolBarBK@CStaticText@@QAEXK@Z ENDP			; CStaticText::SetToolBarBK
_TEXT	ENDS
PUBLIC	?SetNormal@CStaticText@@QAEXXZ			; CStaticText::SetNormal
; Function compile flags: /Odt /RTCsu
_TEXT	SEGMENT
_this$ = -4						; size = 4
?SetNormal@CStaticText@@QAEXXZ PROC NEAR		; CStaticText::SetNormal
; _this$ = ecx

; 180  : {

  00700	55		 push	 ebp
  00701	8b ec		 mov	 ebp, esp
  00703	51		 push	 ecx
  00704	c7 45 fc cc cc
	cc cc		 mov	 DWORD PTR [ebp-4], -858993460 ; ccccccccH
  0070b	89 4d fc	 mov	 DWORD PTR _this$[ebp], ecx

; 181  : 	mPaintStyle = epsNormal;

  0070e	8b 45 fc	 mov	 eax, DWORD PTR _this$[ebp]
  00711	c7 40 68 00 00
	00 00		 mov	 DWORD PTR [eax+104], 0

; 182  : 	InvalidateBack();

  00718	8b 4d fc	 mov	 ecx, DWORD PTR _this$[ebp]
  0071b	e8 00 00 00 00	 call	 ?InvalidateBack@CStaticText@@AAEXXZ ; CStaticText::InvalidateBack

; 183  : }

  00720	83 c4 04	 add	 esp, 4
  00723	3b ec		 cmp	 ebp, esp
  00725	e8 00 00 00 00	 call	 __RTC_CheckEsp
  0072a	8b e5		 mov	 esp, ebp
  0072c	5d		 pop	 ebp
  0072d	c3		 ret	 0
?SetNormal@CStaticText@@QAEXXZ ENDP			; CStaticText::SetNormal
_TEXT	ENDS
PUBLIC	?SetInfoHeader@CStaticText@@QAEXXZ		; CStaticText::SetInfoHeader
; Function compile flags: /Odt /RTCsu
_TEXT	SEGMENT
_this$ = -4						; size = 4
?SetInfoHeader@CStaticText@@QAEXXZ PROC NEAR		; CStaticText::SetInfoHeader
; _this$ = ecx

; 185  : {

  00730	55		 push	 ebp
  00731	8b ec		 mov	 ebp, esp
  00733	51		 push	 ecx
  00734	c7 45 fc cc cc
	cc cc		 mov	 DWORD PTR [ebp-4], -858993460 ; ccccccccH
  0073b	89 4d fc	 mov	 DWORD PTR _this$[ebp], ecx

; 186  : 	mPaintStyle = epsInfoHeader;

  0073e	8b 45 fc	 mov	 eax, DWORD PTR _this$[ebp]
  00741	c7 40 68 05 00
	00 00		 mov	 DWORD PTR [eax+104], 5

; 187  : 	//mBorderColor = aBorderColor;
; 188  : 	//mBackColor = aBackColor;
; 189  : 	InvalidateBack();

  00748	8b 4d fc	 mov	 ecx, DWORD PTR _this$[ebp]
  0074b	e8 00 00 00 00	 call	 ?InvalidateBack@CStaticText@@AAEXXZ ; CStaticText::InvalidateBack

; 190  : }

  00750	83 c4 04	 add	 esp, 4
  00753	3b ec		 cmp	 ebp, esp
  00755	e8 00 00 00 00	 call	 __RTC_CheckEsp
  0075a	8b e5		 mov	 esp, ebp
  0075c	5d		 pop	 ebp
  0075d	c3		 ret	 0
?SetInfoHeader@CStaticText@@QAEXXZ ENDP			; CStaticText::SetInfoHeader
_TEXT	ENDS
PUBLIC	?SetTextColor@CStaticText@@QAEXK@Z		; CStaticText::SetTextColor
; Function compile flags: /Odt /RTCsu
_TEXT	SEGMENT
_this$ = -4						; size = 4
_acolTextColor$ = 8					; size = 4
?SetTextColor@CStaticText@@QAEXK@Z PROC NEAR		; CStaticText::SetTextColor
; _this$ = ecx

; 192  : {

  00760	55		 push	 ebp
  00761	8b ec		 mov	 ebp, esp
  00763	51		 push	 ecx
  00764	c7 45 fc cc cc
	cc cc		 mov	 DWORD PTR [ebp-4], -858993460 ; ccccccccH
  0076b	89 4d fc	 mov	 DWORD PTR _this$[ebp], ecx

; 193  : 	mTextColor = acolTextColor;

  0076e	8b 45 fc	 mov	 eax, DWORD PTR _this$[ebp]
  00771	8b 4d 08	 mov	 ecx, DWORD PTR _acolTextColor$[ebp]
  00774	89 48 78	 mov	 DWORD PTR [eax+120], ecx

; 194  : 	InvalidateBack();

  00777	8b 4d fc	 mov	 ecx, DWORD PTR _this$[ebp]
  0077a	e8 00 00 00 00	 call	 ?InvalidateBack@CStaticText@@AAEXXZ ; CStaticText::InvalidateBack

; 195  : }

  0077f	83 c4 04	 add	 esp, 4
  00782	3b ec		 cmp	 ebp, esp
  00784	e8 00 00 00 00	 call	 __RTC_CheckEsp
  00789	8b e5		 mov	 esp, ebp
  0078b	5d		 pop	 ebp
  0078c	c2 04 00	 ret	 4
?SetTextColor@CStaticText@@QAEXK@Z ENDP			; CStaticText::SetTextColor
_TEXT	ENDS
PUBLIC	?SetTextSize@CStaticText@@QAEXH@Z		; CStaticText::SetTextSize
; Function compile flags: /Odt /RTCsu
_TEXT	SEGMENT
_this$ = -4						; size = 4
_aiFontSize$ = 8					; size = 4
?SetTextSize@CStaticText@@QAEXH@Z PROC NEAR		; CStaticText::SetTextSize
; _this$ = ecx

; 198  : {

  00790	55		 push	 ebp
  00791	8b ec		 mov	 ebp, esp
  00793	51		 push	 ecx
  00794	c7 45 fc cc cc
	cc cc		 mov	 DWORD PTR [ebp-4], -858993460 ; ccccccccH
  0079b	89 4d fc	 mov	 DWORD PTR _this$[ebp], ecx

; 199  : 	mSize = aiFontSize;

  0079e	8b 45 fc	 mov	 eax, DWORD PTR _this$[ebp]
  007a1	8b 4d 08	 mov	 ecx, DWORD PTR _aiFontSize$[ebp]
  007a4	89 88 98 00 00
	00		 mov	 DWORD PTR [eax+152], ecx

; 200  : 	InvalidateBack();

  007aa	8b 4d fc	 mov	 ecx, DWORD PTR _this$[ebp]
  007ad	e8 00 00 00 00	 call	 ?InvalidateBack@CStaticText@@AAEXXZ ; CStaticText::InvalidateBack

; 201  : }

  007b2	83 c4 04	 add	 esp, 4
  007b5	3b ec		 cmp	 ebp, esp
  007b7	e8 00 00 00 00	 call	 __RTC_CheckEsp
  007bc	8b e5		 mov	 esp, ebp
  007be	5d		 pop	 ebp
  007bf	c2 04 00	 ret	 4
?SetTextSize@CStaticText@@QAEXH@Z ENDP			; CStaticText::SetTextSize
_TEXT	ENDS
PUBLIC	?SetTextSet@CStaticText@@QAEXI@Z		; CStaticText::SetTextSet
; Function compile flags: /Odt /RTCsu
_TEXT	SEGMENT
_this$ = -4						; size = 4
_anTextSet$ = 8						; size = 4
?SetTextSet@CStaticText@@QAEXI@Z PROC NEAR		; CStaticText::SetTextSet
; _this$ = ecx

; 203  : {

  007d0	55		 push	 ebp
  007d1	8b ec		 mov	 ebp, esp
  007d3	51		 push	 ecx
  007d4	c7 45 fc cc cc
	cc cc		 mov	 DWORD PTR [ebp-4], -858993460 ; ccccccccH
  007db	89 4d fc	 mov	 DWORD PTR _this$[ebp], ecx

; 204  : 	mTextSet = anTextSet;

  007de	8b 45 fc	 mov	 eax, DWORD PTR _this$[ebp]
  007e1	8b 4d 08	 mov	 ecx, DWORD PTR _anTextSet$[ebp]
  007e4	89 48 7c	 mov	 DWORD PTR [eax+124], ecx

; 205  : 	InvalidateBack();

  007e7	8b 4d fc	 mov	 ecx, DWORD PTR _this$[ebp]
  007ea	e8 00 00 00 00	 call	 ?InvalidateBack@CStaticText@@AAEXXZ ; CStaticText::InvalidateBack

; 206  : }

  007ef	83 c4 04	 add	 esp, 4
  007f2	3b ec		 cmp	 ebp, esp
  007f4	e8 00 00 00 00	 call	 __RTC_CheckEsp
  007f9	8b e5		 mov	 esp, ebp
  007fb	5d		 pop	 ebp
  007fc	c2 04 00	 ret	 4
?SetTextSet@CStaticText@@QAEXI@Z ENDP			; CStaticText::SetTextSet
_TEXT	ENDS
PUBLIC	?SetFontBold@CStaticText@@QAEXJ@Z		; CStaticText::SetFontBold
; Function compile flags: /Odt /RTCsu
_TEXT	SEGMENT
_this$ = -4						; size = 4
_alBold$ = 8						; size = 4
?SetFontBold@CStaticText@@QAEXJ@Z PROC NEAR		; CStaticText::SetFontBold
; _this$ = ecx

; 208  : {

  00800	55		 push	 ebp
  00801	8b ec		 mov	 ebp, esp
  00803	51		 push	 ecx
  00804	c7 45 fc cc cc
	cc cc		 mov	 DWORD PTR [ebp-4], -858993460 ; ccccccccH
  0080b	89 4d fc	 mov	 DWORD PTR _this$[ebp], ecx

; 209  : 	mlBold = alBold;

  0080e	8b 45 fc	 mov	 eax, DWORD PTR _this$[ebp]
  00811	8b 4d 08	 mov	 ecx, DWORD PTR _alBold$[ebp]
  00814	89 88 88 00 00
	00		 mov	 DWORD PTR [eax+136], ecx

; 210  : 	InvalidateBack();

  0081a	8b 4d fc	 mov	 ecx, DWORD PTR _this$[ebp]
  0081d	e8 00 00 00 00	 call	 ?InvalidateBack@CStaticText@@AAEXXZ ; CStaticText::InvalidateBack

; 211  : }

  00822	83 c4 04	 add	 esp, 4
  00825	3b ec		 cmp	 ebp, esp
  00827	e8 00 00 00 00	 call	 __RTC_CheckEsp
  0082c	8b e5		 mov	 esp, ebp
  0082e	5d		 pop	 ebp
  0082f	c2 04 00	 ret	 4
?SetFontBold@CStaticText@@QAEXJ@Z ENDP			; CStaticText::SetFontBold
_TEXT	ENDS
PUBLIC	?SelfProc@CStaticText@@KGJPAUHWND__@@IIJ@Z	; CStaticText::SelfProc
PUBLIC	?DrawFace@CStaticText@@IAEXPAUHWND__@@PAUHDC__@@@Z ; CStaticText::DrawFace
EXTRN	__imp__DefWindowProcA@16:NEAR
EXTRN	__imp__CallWindowProcA@20:NEAR
EXTRN	__imp__BeginPaint@8:NEAR
EXTRN	__imp__EndPaint@8:NEAR
EXTRN	?FromHandle@CWnd@@SGPAV1@PAUHWND__@@@Z:NEAR	; CWnd::FromHandle
EXTRN	___security_cookie:DWORD
EXTRN	@__security_check_cookie@4:NEAR
; Function compile flags: /Odt /RTCsu
_TEXT	SEGMENT
tv67 = -92						; size = 4
_hDC$ = -88						; size = 4
_ps$ = -80						; size = 64
_lpThis$ = -12						; size = 4
_lReturn$ = -8						; size = 4
__$ArrayPad$ = -4					; size = 4
__$ReturnAddr$ = 4					; size = 4
_hWnd$ = 8						; size = 4
_uMsg$ = 12						; size = 4
_wParam$ = 16						; size = 4
_lParam$ = 20						; size = 4
?SelfProc@CStaticText@@KGJPAUHWND__@@IIJ@Z PROC NEAR	; CStaticText::SelfProc

; 214  : {

  00840	55		 push	 ebp
  00841	8b ec		 mov	 ebp, esp
  00843	83 ec 5c	 sub	 esp, 92			; 0000005cH
  00846	56		 push	 esi
  00847	57		 push	 edi
  00848	8d 7d a4	 lea	 edi, DWORD PTR [ebp-92]
  0084b	b9 17 00 00 00	 mov	 ecx, 23			; 00000017H
  00850	b8 cc cc cc cc	 mov	 eax, -858993460		; ccccccccH
  00855	f3 ab		 rep stosd
  00857	a1 00 00 00 00	 mov	 eax, DWORD PTR ___security_cookie
  0085c	89 45 fc	 mov	 DWORD PTR __$ArrayPad$[ebp], eax

; 215  : 	LONG lReturn = 0;

  0085f	c7 45 f8 00 00
	00 00		 mov	 DWORD PTR _lReturn$[ebp], 0

; 216  : 	CStaticText* lpThis = NULL;

  00866	c7 45 f4 00 00
	00 00		 mov	 DWORD PTR _lpThis$[ebp], 0

; 217  : 	lpThis = (CStaticText*)CWnd::FromHandle(hWnd);

  0086d	8b 45 08	 mov	 eax, DWORD PTR _hWnd$[ebp]
  00870	50		 push	 eax
  00871	e8 00 00 00 00	 call	 ?FromHandle@CWnd@@SGPAV1@PAUHWND__@@@Z ; CWnd::FromHandle
  00876	89 45 f4	 mov	 DWORD PTR _lpThis$[ebp], eax

; 218  : 	if (lpThis == NULL)

  00879	83 7d f4 00	 cmp	 DWORD PTR _lpThis$[ebp], 0
  0087d	75 08		 jne	 SHORT $L187471

; 219  : 		return lReturn;

  0087f	8b 45 f8	 mov	 eax, DWORD PTR _lReturn$[ebp]
  00882	e9 af 00 00 00	 jmp	 $L187467
$L187471:

; 220  : 
; 221  : 	PAINTSTRUCT ps; 
; 222  : 	HDC hDC; 
; 223  : 
; 224  : 	switch (uMsg)

  00887	8b 4d 0c	 mov	 ecx, DWORD PTR _uMsg$[ebp]
  0088a	89 4d a4	 mov	 DWORD PTR tv67[ebp], ecx
  0088d	83 7d a4 0f	 cmp	 DWORD PTR tv67[ebp], 15	; 0000000fH
  00891	74 0b		 je	 SHORT $L187478
  00893	81 7d a4 85 00
	00 00		 cmp	 DWORD PTR tv67[ebp], 133 ; 00000085H
  0089a	74 6a		 je	 SHORT $L187480
  0089c	eb 6c		 jmp	 SHORT $L187475
$L187478:

; 225  : 	{
; 226  : 
; 227  : 	case WM_PAINT:
; 228  : 		{
; 229  : 			hDC = ::BeginPaint(hWnd, &ps);

  0089e	8b f4		 mov	 esi, esp
  008a0	8d 55 b0	 lea	 edx, DWORD PTR _ps$[ebp]
  008a3	52		 push	 edx
  008a4	8b 45 08	 mov	 eax, DWORD PTR _hWnd$[ebp]
  008a7	50		 push	 eax
  008a8	ff 15 00 00 00
	00		 call	 DWORD PTR __imp__BeginPaint@8
  008ae	3b f4		 cmp	 esi, esp
  008b0	e8 00 00 00 00	 call	 __RTC_CheckEsp
  008b5	89 45 a8	 mov	 DWORD PTR _hDC$[ebp], eax

; 230  : 			lReturn = (LONG)::DefWindowProc(hWnd, uMsg, wParam, lParam);

  008b8	8b f4		 mov	 esi, esp
  008ba	8b 4d 14	 mov	 ecx, DWORD PTR _lParam$[ebp]
  008bd	51		 push	 ecx
  008be	8b 55 10	 mov	 edx, DWORD PTR _wParam$[ebp]
  008c1	52		 push	 edx
  008c2	8b 45 0c	 mov	 eax, DWORD PTR _uMsg$[ebp]
  008c5	50		 push	 eax
  008c6	8b 4d 08	 mov	 ecx, DWORD PTR _hWnd$[ebp]
  008c9	51		 push	 ecx
  008ca	ff 15 00 00 00
	00		 call	 DWORD PTR __imp__DefWindowProcA@16
  008d0	3b f4		 cmp	 esi, esp
  008d2	e8 00 00 00 00	 call	 __RTC_CheckEsp
  008d7	89 45 f8	 mov	 DWORD PTR _lReturn$[ebp], eax

; 231  : 			lpThis->DrawFace(hWnd,hDC);

  008da	8b 55 a8	 mov	 edx, DWORD PTR _hDC$[ebp]
  008dd	52		 push	 edx
  008de	8b 45 08	 mov	 eax, DWORD PTR _hWnd$[ebp]
  008e1	50		 push	 eax
  008e2	8b 4d f4	 mov	 ecx, DWORD PTR _lpThis$[ebp]
  008e5	e8 00 00 00 00	 call	 ?DrawFace@CStaticText@@IAEXPAUHWND__@@PAUHDC__@@@Z ; CStaticText::DrawFace

; 232  : 			::EndPaint(hWnd,&ps);

  008ea	8b f4		 mov	 esi, esp
  008ec	8d 4d b0	 lea	 ecx, DWORD PTR _ps$[ebp]
  008ef	51		 push	 ecx
  008f0	8b 55 08	 mov	 edx, DWORD PTR _hWnd$[ebp]
  008f3	52		 push	 edx
  008f4	ff 15 00 00 00
	00		 call	 DWORD PTR __imp__EndPaint@8
  008fa	3b f4		 cmp	 esi, esp
  008fc	e8 00 00 00 00	 call	 __RTC_CheckEsp

; 233  : 			return lReturn;

  00901	8b 45 f8	 mov	 eax, DWORD PTR _lReturn$[ebp]
  00904	eb 30		 jmp	 SHORT $L187467
$L187480:

; 234  : 		}
; 235  : 	case WM_NCPAINT:
; 236  : 		{
; 237  : 			return 0L;

  00906	33 c0		 xor	 eax, eax
  00908	eb 2c		 jmp	 SHORT $L187467
$L187475:

; 238  : 		}
; 239  : 	}
; 240  : 
; 241  : 	// 调用原来的回调函数
; 242  : 	lReturn = (LONG)CallWindowProc(lpThis->mWndProc, hWnd, uMsg, wParam, lParam);

  0090a	8b f4		 mov	 esi, esp
  0090c	8b 45 14	 mov	 eax, DWORD PTR _lParam$[ebp]
  0090f	50		 push	 eax
  00910	8b 4d 10	 mov	 ecx, DWORD PTR _wParam$[ebp]
  00913	51		 push	 ecx
  00914	8b 55 0c	 mov	 edx, DWORD PTR _uMsg$[ebp]
  00917	52		 push	 edx
  00918	8b 45 08	 mov	 eax, DWORD PTR _hWnd$[ebp]
  0091b	50		 push	 eax
  0091c	8b 4d f4	 mov	 ecx, DWORD PTR _lpThis$[ebp]
  0091f	8b 51 54	 mov	 edx, DWORD PTR [ecx+84]
  00922	52		 push	 edx
  00923	ff 15 00 00 00
	00		 call	 DWORD PTR __imp__CallWindowProcA@20
  00929	3b f4		 cmp	 esi, esp
  0092b	e8 00 00 00 00	 call	 __RTC_CheckEsp
  00930	89 45 f8	 mov	 DWORD PTR _lReturn$[ebp], eax

; 243  : 	return lReturn;

  00933	8b 45 f8	 mov	 eax, DWORD PTR _lReturn$[ebp]
$L187467:

; 244  : }

  00936	52		 push	 edx
  00937	8b cd		 mov	 ecx, ebp
  00939	50		 push	 eax
  0093a	8d 15 00 00 00
	00		 lea	 edx, DWORD PTR $L188255
  00940	e8 00 00 00 00	 call	 @_RTC_CheckStackVars@8
  00945	58		 pop	 eax
  00946	5a		 pop	 edx
  00947	8b 4d fc	 mov	 ecx, DWORD PTR __$ArrayPad$[ebp]
  0094a	e8 00 00 00 00	 call	 @__security_check_cookie@4
  0094f	5f		 pop	 edi
  00950	5e		 pop	 esi
  00951	83 c4 5c	 add	 esp, 92			; 0000005cH
  00954	3b ec		 cmp	 ebp, esp
  00956	e8 00 00 00 00	 call	 __RTC_CheckEsp
  0095b	8b e5		 mov	 esp, ebp
  0095d	5d		 pop	 ebp
  0095e	c2 10 00	 ret	 16			; 00000010H
$L188255:
  00961	01 00 00 00	 DD	 1
  00965	00 00 00 00	 DD	 $L188254
$L188254:
  00969	b0 ff ff ff	 DD	 -80			; ffffffb0H
  0096d	40 00 00 00	 DD	 64			; 00000040H
  00971	00 00 00 00	 DD	 $L188251
$L188251:
  00975	70		 DB	 112			; 00000070H
  00976	73		 DB	 115			; 00000073H
  00977	00		 DB	 0
?SelfProc@CStaticText@@KGJPAUHWND__@@IIJ@Z ENDP		; CStaticText::SelfProc
_TEXT	ENDS
EXTRN	?GetSafeHwnd@CWnd@@QBEPAUHWND__@@XZ:NEAR	; CWnd::GetSafeHwnd
EXTRN	?ModifyStyle@CWnd@@QAEHKKI@Z:NEAR		; CWnd::ModifyStyle
EXTRN	?PreSubclassWindow@CWnd@@UAEXXZ:NEAR		; CWnd::PreSubclassWindow
EXTRN	__imp__SetWindowLongA@12:NEAR
; Function compile flags: /Odt /RTCsu
_TEXT	SEGMENT
_this$ = -4						; size = 4
?PreSubclassWindow@CStaticText@@MAEXXZ PROC NEAR	; CStaticText::PreSubclassWindow
; _this$ = ecx

; 247  : {

  00980	55		 push	 ebp
  00981	8b ec		 mov	 ebp, esp
  00983	51		 push	 ecx
  00984	56		 push	 esi
  00985	c7 45 fc cc cc
	cc cc		 mov	 DWORD PTR [ebp-4], -858993460 ; ccccccccH
  0098c	89 4d fc	 mov	 DWORD PTR _this$[ebp], ecx

; 248  : 	mWndProc = (WNDPROC)SetWindowLong(this->GetSafeHwnd(), GWL_WNDPROC, (LONG)SelfProc);

  0098f	8b f4		 mov	 esi, esp
  00991	68 00 00 00 00	 push	 OFFSET FLAT:?SelfProc@CStaticText@@KGJPAUHWND__@@IIJ@Z ; CStaticText::SelfProc
  00996	6a fc		 push	 -4			; fffffffcH
  00998	8b 4d fc	 mov	 ecx, DWORD PTR _this$[ebp]
  0099b	e8 00 00 00 00	 call	 ?GetSafeHwnd@CWnd@@QBEPAUHWND__@@XZ ; CWnd::GetSafeHwnd
  009a0	50		 push	 eax
  009a1	ff 15 00 00 00
	00		 call	 DWORD PTR __imp__SetWindowLongA@12
  009a7	3b f4		 cmp	 esi, esp
  009a9	e8 00 00 00 00	 call	 __RTC_CheckEsp
  009ae	8b 4d fc	 mov	 ecx, DWORD PTR _this$[ebp]
  009b1	89 41 54	 mov	 DWORD PTR [ecx+84], eax

; 249  : 	ModifyStyle(0,SS_NOTIFY);										//使static控件能响应鼠标消息

  009b4	6a 00		 push	 0
  009b6	68 00 01 00 00	 push	 256			; 00000100H
  009bb	6a 00		 push	 0
  009bd	8b 4d fc	 mov	 ecx, DWORD PTR _this$[ebp]
  009c0	e8 00 00 00 00	 call	 ?ModifyStyle@CWnd@@QAEHKKI@Z ; CWnd::ModifyStyle

; 250  : 	CStatic::PreSubclassWindow();

  009c5	8b 4d fc	 mov	 ecx, DWORD PTR _this$[ebp]
  009c8	e8 00 00 00 00	 call	 ?PreSubclassWindow@CWnd@@UAEXXZ ; CWnd::PreSubclassWindow

; 251  : }

  009cd	5e		 pop	 esi
  009ce	83 c4 04	 add	 esp, 4
  009d1	3b ec		 cmp	 ebp, esp
  009d3	e8 00 00 00 00	 call	 __RTC_CheckEsp
  009d8	8b e5		 mov	 esp, ebp
  009da	5d		 pop	 ebp
  009db	c3		 ret	 0
?PreSubclassWindow@CStaticText@@MAEXXZ ENDP		; CStaticText::PreSubclassWindow
_TEXT	ENDS
EXTRN	?GetStyle@CWnd@@QBEKXZ:NEAR			; CWnd::GetStyle
EXTRN	?GetExStyle@CWnd@@QBEKXZ:NEAR			; CWnd::GetExStyle
EXTRN	__imp_??0?$basic_string@DU?$char_traits@D@std@@V?$allocator@D@2@@std@@QAE@PBD@Z:NEAR
EXTRN	__imp_??1?$basic_string@DU?$char_traits@D@std@@V?$allocator@D@2@@std@@QAE@XZ:NEAR
EXTRN	?GetWindowTextA@CWnd@@QBEXAAV?$CStringT@DV?$StrTraitMFC_DLL@DV?$ChTraitsCRT@D@ATL@@@@@ATL@@@Z:NEAR ; CWnd::GetWindowTextA
EXTRN	?FromHandle@CDC@@SGPAV1@PAUHDC__@@@Z:NEAR	; CDC::FromHandle
EXTRN	__imp_??B?$CSimpleStringT@D$00@ATL@@QBEPBDXZ:NEAR
EXTRN	?IsWindowEnabled@CWnd@@QBEHXZ:NEAR		; CWnd::IsWindowEnabled
EXTRN	?FillRectangle@CBitMapOperate@@UAEXPAUHDC__@@UtagRECT@@KKW4ENUM_DrawOrientation@1@HI@Z:NEAR ; CBitMapOperate::FillRectangle
EXTRN	__fltused:NEAR
EXTRN	?FillRectangle@CBitMapOperate@@UAEXPAUHDC__@@UtagRECT@@KH@Z:NEAR ; CBitMapOperate::FillRectangle
EXTRN	?DrawLine@CBitMapOperate@@UAEXPAUHDC__@@KMHHHHH@Z:NEAR ; CBitMapOperate::DrawLine
EXTRN	?DrawTextA@CBitMapOperate@@UAEXPAVCDC@@V?$CStringT@DV?$StrTraitMFC_DLL@DV?$ChTraitsCRT@D@ATL@@@@@ATL@@KAAUtagRECT@@I_NIIIV?$basic_string@DU?$char_traits@D@std@@V?$allocator@D@2@@std@@@Z:NEAR ; CBitMapOperate::DrawTextA
EXTRN	?BrightColor@CBitMapOperate@@QAEKKM@Z:NEAR	; CBitMapOperate::BrightColor
EXTRN	?gBitMapOperate@@3VCBitMapOperate@@A:BYTE	; gBitMapOperate
xdata$x	SEGMENT
$T188282 DD	0ffffffffH
	DD	FLAT:$L188267
	DD	00H
	DD	FLAT:$L188268
	DD	00H
	DD	FLAT:$L188270
$T188273 DD	019930520H
	DD	03H
	DD	FLAT:$T188282
	DD	2 DUP(00H)
	DD	2 DUP(00H)
; Function compile flags: /Odt /RTCsu
xdata$x	ENDS
_TEXT	SEGMENT
tv420 = -204						; size = 4
tv410 = -200						; size = 4
tv425 = -196						; size = 4
tv408 = -192						; size = 4
tv398 = -188						; size = 4
tv422 = -184						; size = 4
tv139 = -180						; size = 4
$T188266 = -176						; size = 4
$T188265 = -172						; size = 4
$T188264 = -168						; size = 4
$T188263 = -164						; size = 4
$T188262 = -160						; size = 16
$T188261 = -144						; size = 16
$T188260 = -128						; size = 16
$T188259 = -112						; size = 16
_clTextColor$ = -96					; size = 4
_dc$ = -92						; size = 4
_lRect$187558 = -84					; size = 16
_dwExStyle$ = -64					; size = 4
_dwText$ = -60						; size = 4
_dwStyle$ = -56						; size = 4
_lstrText$ = -48					; size = 4
_lrcClient$ = -36					; size = 16
_this$ = -16						; size = 4
__$EHRec$ = -12						; size = 12
_hwnd$ = 8						; size = 4
_hDC$ = 12						; size = 4
?DrawFace@CStaticText@@IAEXPAUHWND__@@PAUHDC__@@@Z PROC NEAR ; CStaticText::DrawFace
; _this$ = ecx

; 254  : {

  009e0	55		 push	 ebp
  009e1	8b ec		 mov	 ebp, esp
  009e3	6a ff		 push	 -1
  009e5	68 00 00 00 00	 push	 __ehhandler$?DrawFace@CStaticText@@IAEXPAUHWND__@@PAUHDC__@@@Z
  009ea	64 a1 00 00 00
	00		 mov	 eax, DWORD PTR fs:__except_list
  009f0	50		 push	 eax
  009f1	64 89 25 00 00
	00 00		 mov	 DWORD PTR fs:__except_list, esp
  009f8	81 ec c0 00 00
	00		 sub	 esp, 192		; 000000c0H
  009fe	56		 push	 esi
  009ff	57		 push	 edi
  00a00	51		 push	 ecx
  00a01	8d bd 34 ff ff
	ff		 lea	 edi, DWORD PTR [ebp-204]
  00a07	b9 30 00 00 00	 mov	 ecx, 48			; 00000030H
  00a0c	b8 cc cc cc cc	 mov	 eax, -858993460		; ccccccccH
  00a11	f3 ab		 rep stosd
  00a13	59		 pop	 ecx
  00a14	89 4d f0	 mov	 DWORD PTR _this$[ebp], ecx

; 255  : 	CRect lrcClient;                               

  00a17	8d 4d dc	 lea	 ecx, DWORD PTR _lrcClient$[ebp]
  00a1a	e8 00 00 00 00	 call	 ??0CRect@@QAE@XZ	; CRect::CRect

; 256  : 	GetClientRect(lrcClient);

  00a1f	8d 4d dc	 lea	 ecx, DWORD PTR _lrcClient$[ebp]
  00a22	e8 00 00 00 00	 call	 ??BCRect@@QAEPAUtagRECT@@XZ ; CRect::operator tagRECT *
  00a27	50		 push	 eax
  00a28	8b 4d f0	 mov	 ecx, DWORD PTR _this$[ebp]
  00a2b	e8 00 00 00 00	 call	 ?GetClientRect@CWnd@@QBEXPAUtagRECT@@@Z ; CWnd::GetClientRect

; 257  : 
; 258  : 	//获取文本
; 259  : 	CString lstrText;

  00a30	8b f4		 mov	 esi, esp
  00a32	8d 4d d0	 lea	 ecx, DWORD PTR _lstrText$[ebp]
  00a35	ff 15 00 00 00
	00		 call	 DWORD PTR __imp_??0?$CStringT@DV?$StrTraitMFC_DLL@DV?$ChTraitsCRT@D@ATL@@@@@ATL@@QAE@XZ
  00a3b	3b f4		 cmp	 esi, esp
  00a3d	e8 00 00 00 00	 call	 __RTC_CheckEsp
  00a42	c7 45 fc 00 00
	00 00		 mov	 DWORD PTR __$EHRec$[ebp+8], 0

; 260  : 	if (mbSetText)

  00a49	8b 45 f0	 mov	 eax, DWORD PTR _this$[ebp]
  00a4c	0f b6 48 6c	 movzx	 ecx, BYTE PTR [eax+108]
  00a50	85 c9		 test	 ecx, ecx
  00a52	74 1b		 je	 SHORT $L187494

; 261  : 		lstrText = mstrText;

  00a54	8b 55 f0	 mov	 edx, DWORD PTR _this$[ebp]
  00a57	83 c2 70	 add	 edx, 112		; 00000070H
  00a5a	8b f4		 mov	 esi, esp
  00a5c	52		 push	 edx
  00a5d	8d 4d d0	 lea	 ecx, DWORD PTR _lstrText$[ebp]
  00a60	ff 15 00 00 00
	00		 call	 DWORD PTR __imp_??4?$CStringT@DV?$StrTraitMFC_DLL@DV?$ChTraitsCRT@D@ATL@@@@@ATL@@QAEAAV01@ABV01@@Z
  00a66	3b f4		 cmp	 esi, esp
  00a68	e8 00 00 00 00	 call	 __RTC_CheckEsp

; 262  : 
; 263  : 	else

  00a6d	eb 0c		 jmp	 SHORT $L187495
$L187494:

; 264  : 		GetWindowText(lstrText);

  00a6f	8d 45 d0	 lea	 eax, DWORD PTR _lstrText$[ebp]
  00a72	50		 push	 eax
  00a73	8b 4d f0	 mov	 ecx, DWORD PTR _this$[ebp]
  00a76	e8 00 00 00 00	 call	 ?GetWindowTextA@CWnd@@QBEXAAV?$CStringT@DV?$StrTraitMFC_DLL@DV?$ChTraitsCRT@D@ATL@@@@@ATL@@@Z ; CWnd::GetWindowTextA
$L187495:

; 265  : 
; 266  : 	//转换Static的风格给Text
; 267  : #define MAP_STYLE(src, dest) if (dwStyle & (src)) dwText |= (dest)
; 268  : #define NMAP_STYLE(src, dest) if (!(dwStyle & (src))) dwText |= (dest)
; 269  : 
; 270  : 	DWORD dwStyle = GetStyle(), dwText = 0;

  00a7b	8b 4d f0	 mov	 ecx, DWORD PTR _this$[ebp]
  00a7e	e8 00 00 00 00	 call	 ?GetStyle@CWnd@@QBEKXZ	; CWnd::GetStyle
  00a83	89 45 c8	 mov	 DWORD PTR _dwStyle$[ebp], eax
  00a86	c7 45 c4 00 00
	00 00		 mov	 DWORD PTR _dwText$[ebp], 0

; 271  : 
; 272  : 	MAP_STYLE(SS_RIGHT,			DT_RIGHT				  );

  00a8d	8b 4d c8	 mov	 ecx, DWORD PTR _dwStyle$[ebp]
  00a90	83 e1 02	 and	 ecx, 2
  00a93	74 09		 je	 SHORT $L187498
  00a95	8b 55 c4	 mov	 edx, DWORD PTR _dwText$[ebp]
  00a98	83 ca 02	 or	 edx, 2
  00a9b	89 55 c4	 mov	 DWORD PTR _dwText$[ebp], edx
$L187498:

; 273  : 	MAP_STYLE(SS_CENTER,		DT_CENTER				  );

  00a9e	8b 45 c8	 mov	 eax, DWORD PTR _dwStyle$[ebp]
  00aa1	83 e0 01	 and	 eax, 1
  00aa4	74 09		 je	 SHORT $L187499
  00aa6	8b 4d c4	 mov	 ecx, DWORD PTR _dwText$[ebp]
  00aa9	83 c9 01	 or	 ecx, 1
  00aac	89 4d c4	 mov	 DWORD PTR _dwText$[ebp], ecx
$L187499:

; 274  : 	MAP_STYLE(SS_CENTERIMAGE,	DT_VCENTER | DT_SINGLELINE);

  00aaf	8b 55 c8	 mov	 edx, DWORD PTR _dwStyle$[ebp]
  00ab2	81 e2 00 02 00
	00		 and	 edx, 512		; 00000200H
  00ab8	74 09		 je	 SHORT $L187500
  00aba	8b 45 c4	 mov	 eax, DWORD PTR _dwText$[ebp]
  00abd	83 c8 24	 or	 eax, 36			; 00000024H
  00ac0	89 45 c4	 mov	 DWORD PTR _dwText$[ebp], eax
$L187500:

; 275  : 	MAP_STYLE(SS_NOPREFIX,		DT_NOPREFIX				  );

  00ac3	8b 4d c8	 mov	 ecx, DWORD PTR _dwStyle$[ebp]
  00ac6	81 e1 80 00 00
	00		 and	 ecx, 128		; 00000080H
  00acc	74 0c		 je	 SHORT $L187501
  00ace	8b 55 c4	 mov	 edx, DWORD PTR _dwText$[ebp]
  00ad1	81 ca 00 08 00
	00		 or	 edx, 2048		; 00000800H
  00ad7	89 55 c4	 mov	 DWORD PTR _dwText$[ebp], edx
$L187501:

; 276  : 	MAP_STYLE(SS_WORDELLIPSIS,	DT_WORD_ELLIPSIS		  );

  00ada	8b 45 c8	 mov	 eax, DWORD PTR _dwStyle$[ebp]
  00add	25 00 c0 00 00	 and	 eax, 49152		; 0000c000H
  00ae2	74 0c		 je	 SHORT $L187502
  00ae4	8b 4d c4	 mov	 ecx, DWORD PTR _dwText$[ebp]
  00ae7	81 c9 00 00 04
	00		 or	 ecx, 262144		; 00040000H
  00aed	89 4d c4	 mov	 DWORD PTR _dwText$[ebp], ecx
$L187502:

; 277  : 	MAP_STYLE(SS_ENDELLIPSIS,	DT_END_ELLIPSIS			  );

  00af0	8b 55 c8	 mov	 edx, DWORD PTR _dwStyle$[ebp]
  00af3	81 e2 00 40 00
	00		 and	 edx, 16384		; 00004000H
  00af9	74 0b		 je	 SHORT $L187503
  00afb	8b 45 c4	 mov	 eax, DWORD PTR _dwText$[ebp]
  00afe	0d 00 80 00 00	 or	 eax, 32768		; 00008000H
  00b03	89 45 c4	 mov	 DWORD PTR _dwText$[ebp], eax
$L187503:

; 278  : 	MAP_STYLE(SS_PATHELLIPSIS,	DT_PATH_ELLIPSIS		  );

  00b06	8b 4d c8	 mov	 ecx, DWORD PTR _dwStyle$[ebp]
  00b09	81 e1 00 80 00
	00		 and	 ecx, 32768		; 00008000H
  00b0f	74 0c		 je	 SHORT $L187504
  00b11	8b 55 c4	 mov	 edx, DWORD PTR _dwText$[ebp]
  00b14	81 ca 00 40 00
	00		 or	 edx, 16384		; 00004000H
  00b1a	89 55 c4	 mov	 DWORD PTR _dwText$[ebp], edx
$L187504:

; 279  : 
; 280  : 	NMAP_STYLE(	SS_LEFTNOWORDWRAP |
; 281  : 		SS_CENTERIMAGE    |
; 282  : 		SS_WORDELLIPSIS   |
; 283  : 		SS_ENDELLIPSIS    |
; 284  : 		SS_PATHELLIPSIS, DT_WORDBREAK);

  00b1d	8b 45 c8	 mov	 eax, DWORD PTR _dwStyle$[ebp]
  00b20	25 0c c2 00 00	 and	 eax, 49676		; 0000c20cH
  00b25	75 09		 jne	 SHORT $L187505
  00b27	8b 4d c4	 mov	 ecx, DWORD PTR _dwText$[ebp]
  00b2a	83 c9 10	 or	 ecx, 16			; 00000010H
  00b2d	89 4d c4	 mov	 DWORD PTR _dwText$[ebp], ecx
$L187505:

; 285  : 
; 286  : 	switch(mPaintStyle)

  00b30	8b 55 f0	 mov	 edx, DWORD PTR _this$[ebp]
  00b33	8b 42 68	 mov	 eax, DWORD PTR [edx+104]
  00b36	89 85 4c ff ff
	ff		 mov	 DWORD PTR tv139[ebp], eax
  00b3c	8b 8d 4c ff ff
	ff		 mov	 ecx, DWORD PTR tv139[ebp]
  00b42	83 e9 01	 sub	 ecx, 1
  00b45	89 8d 4c ff ff
	ff		 mov	 DWORD PTR tv139[ebp], ecx
  00b4b	83 bd 4c ff ff
	ff 04		 cmp	 DWORD PTR tv139[ebp], 4
  00b52	0f 87 6a 03 00
	00		 ja	 $L187507
  00b58	8b 95 4c ff ff
	ff		 mov	 edx, DWORD PTR tv139[ebp]
  00b5e	ff 24 95 00 00
	00 00		 jmp	 DWORD PTR $L188280[edx*4]
$L187511:

; 287  : 	{
; 288  : 	case epsNormal:
; 289  : 		break;
; 290  : 	case epsOpaque:
; 291  : 		gBitMapOperate.FillRectangle(hDC, lrcClient, mBackColor, FALSE);

  00b65	8b 45 dc	 mov	 eax, DWORD PTR _lrcClient$[ebp]
  00b68	89 45 90	 mov	 DWORD PTR $T188259[ebp], eax
  00b6b	8b 4d e0	 mov	 ecx, DWORD PTR _lrcClient$[ebp+4]
  00b6e	89 4d 94	 mov	 DWORD PTR $T188259[ebp+4], ecx
  00b71	8b 55 e4	 mov	 edx, DWORD PTR _lrcClient$[ebp+8]
  00b74	89 55 98	 mov	 DWORD PTR $T188259[ebp+8], edx
  00b77	8b 45 e8	 mov	 eax, DWORD PTR _lrcClient$[ebp+12]
  00b7a	89 45 9c	 mov	 DWORD PTR $T188259[ebp+12], eax
  00b7d	6a 00		 push	 0
  00b7f	8b 4d f0	 mov	 ecx, DWORD PTR _this$[ebp]
  00b82	8b 51 58	 mov	 edx, DWORD PTR [ecx+88]
  00b85	52		 push	 edx
  00b86	83 ec 10	 sub	 esp, 16			; 00000010H
  00b89	8b c4		 mov	 eax, esp
  00b8b	8b 4d 90	 mov	 ecx, DWORD PTR $T188259[ebp]
  00b8e	89 08		 mov	 DWORD PTR [eax], ecx
  00b90	8b 55 94	 mov	 edx, DWORD PTR $T188259[ebp+4]
  00b93	89 50 04	 mov	 DWORD PTR [eax+4], edx
  00b96	8b 4d 98	 mov	 ecx, DWORD PTR $T188259[ebp+8]
  00b99	89 48 08	 mov	 DWORD PTR [eax+8], ecx
  00b9c	8b 55 9c	 mov	 edx, DWORD PTR $T188259[ebp+12]
  00b9f	89 50 0c	 mov	 DWORD PTR [eax+12], edx
  00ba2	8b 45 0c	 mov	 eax, DWORD PTR _hDC$[ebp]
  00ba5	50		 push	 eax
  00ba6	b9 00 00 00 00	 mov	 ecx, OFFSET FLAT:?gBitMapOperate@@3VCBitMapOperate@@A
  00bab	e8 00 00 00 00	 call	 ?FillRectangle@CBitMapOperate@@UAEXPAUHDC__@@UtagRECT@@KH@Z ; CBitMapOperate::FillRectangle

; 292  : 		break;

  00bb0	e9 0d 03 00 00	 jmp	 $L187507
$L187513:

; 293  : 	case epsHGradient:
; 294  : 		gBitMapOperate.FillRectangle(hDC, lrcClient, mBeginColor, mEndColor, gBitMapOperate.edoHorizontal, FALSE);

  00bb5	8b 4d dc	 mov	 ecx, DWORD PTR _lrcClient$[ebp]
  00bb8	89 4d 80	 mov	 DWORD PTR $T188260[ebp], ecx
  00bbb	8b 55 e0	 mov	 edx, DWORD PTR _lrcClient$[ebp+4]
  00bbe	89 55 84	 mov	 DWORD PTR $T188260[ebp+4], edx
  00bc1	8b 45 e4	 mov	 eax, DWORD PTR _lrcClient$[ebp+8]
  00bc4	89 45 88	 mov	 DWORD PTR $T188260[ebp+8], eax
  00bc7	8b 4d e8	 mov	 ecx, DWORD PTR _lrcClient$[ebp+12]
  00bca	89 4d 8c	 mov	 DWORD PTR $T188260[ebp+12], ecx
  00bcd	6a 01		 push	 1
  00bcf	6a 00		 push	 0
  00bd1	6a 00		 push	 0
  00bd3	8b 55 f0	 mov	 edx, DWORD PTR _this$[ebp]
  00bd6	8b 42 60	 mov	 eax, DWORD PTR [edx+96]
  00bd9	50		 push	 eax
  00bda	8b 4d f0	 mov	 ecx, DWORD PTR _this$[ebp]
  00bdd	8b 51 5c	 mov	 edx, DWORD PTR [ecx+92]
  00be0	52		 push	 edx
  00be1	83 ec 10	 sub	 esp, 16			; 00000010H
  00be4	8b c4		 mov	 eax, esp
  00be6	8b 4d 80	 mov	 ecx, DWORD PTR $T188260[ebp]
  00be9	89 08		 mov	 DWORD PTR [eax], ecx
  00beb	8b 55 84	 mov	 edx, DWORD PTR $T188260[ebp+4]
  00bee	89 50 04	 mov	 DWORD PTR [eax+4], edx
  00bf1	8b 4d 88	 mov	 ecx, DWORD PTR $T188260[ebp+8]
  00bf4	89 48 08	 mov	 DWORD PTR [eax+8], ecx
  00bf7	8b 55 8c	 mov	 edx, DWORD PTR $T188260[ebp+12]
  00bfa	89 50 0c	 mov	 DWORD PTR [eax+12], edx
  00bfd	8b 45 0c	 mov	 eax, DWORD PTR _hDC$[ebp]
  00c00	50		 push	 eax
  00c01	b9 00 00 00 00	 mov	 ecx, OFFSET FLAT:?gBitMapOperate@@3VCBitMapOperate@@A
  00c06	e8 00 00 00 00	 call	 ?FillRectangle@CBitMapOperate@@UAEXPAUHDC__@@UtagRECT@@KKW4ENUM_DrawOrientation@1@HI@Z ; CBitMapOperate::FillRectangle

; 295  : 		break;

  00c0b	e9 b2 02 00 00	 jmp	 $L187507
$L187515:

; 296  : 	case epsVGradient:
; 297  : 		gBitMapOperate.FillRectangle(hDC, lrcClient, mBeginColor, mEndColor, gBitMapOperate.edoVertical, FALSE);

  00c10	8b 4d dc	 mov	 ecx, DWORD PTR _lrcClient$[ebp]
  00c13	89 8d 70 ff ff
	ff		 mov	 DWORD PTR $T188261[ebp], ecx
  00c19	8b 55 e0	 mov	 edx, DWORD PTR _lrcClient$[ebp+4]
  00c1c	89 95 74 ff ff
	ff		 mov	 DWORD PTR $T188261[ebp+4], edx
  00c22	8b 45 e4	 mov	 eax, DWORD PTR _lrcClient$[ebp+8]
  00c25	89 85 78 ff ff
	ff		 mov	 DWORD PTR $T188261[ebp+8], eax
  00c2b	8b 4d e8	 mov	 ecx, DWORD PTR _lrcClient$[ebp+12]
  00c2e	89 8d 7c ff ff
	ff		 mov	 DWORD PTR $T188261[ebp+12], ecx
  00c34	6a 01		 push	 1
  00c36	6a 00		 push	 0
  00c38	6a 01		 push	 1
  00c3a	8b 55 f0	 mov	 edx, DWORD PTR _this$[ebp]
  00c3d	8b 42 60	 mov	 eax, DWORD PTR [edx+96]
  00c40	50		 push	 eax
  00c41	8b 4d f0	 mov	 ecx, DWORD PTR _this$[ebp]
  00c44	8b 51 5c	 mov	 edx, DWORD PTR [ecx+92]
  00c47	52		 push	 edx
  00c48	83 ec 10	 sub	 esp, 16			; 00000010H
  00c4b	8b c4		 mov	 eax, esp
  00c4d	8b 8d 70 ff ff
	ff		 mov	 ecx, DWORD PTR $T188261[ebp]
  00c53	89 08		 mov	 DWORD PTR [eax], ecx
  00c55	8b 95 74 ff ff
	ff		 mov	 edx, DWORD PTR $T188261[ebp+4]
  00c5b	89 50 04	 mov	 DWORD PTR [eax+4], edx
  00c5e	8b 8d 78 ff ff
	ff		 mov	 ecx, DWORD PTR $T188261[ebp+8]
  00c64	89 48 08	 mov	 DWORD PTR [eax+8], ecx
  00c67	8b 95 7c ff ff
	ff		 mov	 edx, DWORD PTR $T188261[ebp+12]
  00c6d	89 50 0c	 mov	 DWORD PTR [eax+12], edx
  00c70	8b 45 0c	 mov	 eax, DWORD PTR _hDC$[ebp]
  00c73	50		 push	 eax
  00c74	b9 00 00 00 00	 mov	 ecx, OFFSET FLAT:?gBitMapOperate@@3VCBitMapOperate@@A
  00c79	e8 00 00 00 00	 call	 ?FillRectangle@CBitMapOperate@@UAEXPAUHDC__@@UtagRECT@@KKW4ENUM_DrawOrientation@1@HI@Z ; CBitMapOperate::FillRectangle

; 298  : 		break;

  00c7e	e9 3f 02 00 00	 jmp	 $L187507
$L187517:

; 299  : 	case espToolBar:
; 300  : 		{
; 301  : 			//上边
; 302  : 			gBitMapOperate.DrawLine(hDC, mBorderColor, 1, lrcClient.left, lrcClient.top, lrcClient.right - 1, lrcClient.top, FALSE);

  00c83	6a 00		 push	 0
  00c85	8b 4d e0	 mov	 ecx, DWORD PTR _lrcClient$[ebp+4]
  00c88	51		 push	 ecx
  00c89	8b 55 e4	 mov	 edx, DWORD PTR _lrcClient$[ebp+8]
  00c8c	83 ea 01	 sub	 edx, 1
  00c8f	52		 push	 edx
  00c90	8b 45 e0	 mov	 eax, DWORD PTR _lrcClient$[ebp+4]
  00c93	50		 push	 eax
  00c94	8b 4d dc	 mov	 ecx, DWORD PTR _lrcClient$[ebp]
  00c97	51		 push	 ecx
  00c98	68 00 00 80 3f	 push	 1065353216		; 3f800000H
  00c9d	8b 55 f0	 mov	 edx, DWORD PTR _this$[ebp]
  00ca0	8b 42 64	 mov	 eax, DWORD PTR [edx+100]
  00ca3	50		 push	 eax
  00ca4	8b 4d 0c	 mov	 ecx, DWORD PTR _hDC$[ebp]
  00ca7	51		 push	 ecx
  00ca8	b9 00 00 00 00	 mov	 ecx, OFFSET FLAT:?gBitMapOperate@@3VCBitMapOperate@@A
  00cad	e8 00 00 00 00	 call	 ?DrawLine@CBitMapOperate@@UAEXPAUHDC__@@KMHHHHH@Z ; CBitMapOperate::DrawLine

; 303  : 			gBitMapOperate.DrawLine(hDC, RGB(255, 255, 255), 1, lrcClient.left, lrcClient.top + 1, lrcClient.right - 1, lrcClient.top + 1, FALSE);

  00cb2	6a 00		 push	 0
  00cb4	8b 55 e0	 mov	 edx, DWORD PTR _lrcClient$[ebp+4]
  00cb7	83 c2 01	 add	 edx, 1
  00cba	52		 push	 edx
  00cbb	8b 45 e4	 mov	 eax, DWORD PTR _lrcClient$[ebp+8]
  00cbe	83 e8 01	 sub	 eax, 1
  00cc1	50		 push	 eax
  00cc2	8b 4d e0	 mov	 ecx, DWORD PTR _lrcClient$[ebp+4]
  00cc5	83 c1 01	 add	 ecx, 1
  00cc8	51		 push	 ecx
  00cc9	8b 55 dc	 mov	 edx, DWORD PTR _lrcClient$[ebp]
  00ccc	52		 push	 edx
  00ccd	68 00 00 80 3f	 push	 1065353216		; 3f800000H
  00cd2	68 ff ff ff 00	 push	 16777215		; 00ffffffH
  00cd7	8b 45 0c	 mov	 eax, DWORD PTR _hDC$[ebp]
  00cda	50		 push	 eax
  00cdb	b9 00 00 00 00	 mov	 ecx, OFFSET FLAT:?gBitMapOperate@@3VCBitMapOperate@@A
  00ce0	e8 00 00 00 00	 call	 ?DrawLine@CBitMapOperate@@UAEXPAUHDC__@@KMHHHHH@Z ; CBitMapOperate::DrawLine

; 304  : 			//中间3个间隔
; 305  : 			gBitMapOperate.DrawLine(hDC, mBorderColor, 1, lrcClient.left + 56, lrcClient.top + 10, lrcClient.left + 56, lrcClient.top + 42, FALSE);

  00ce5	6a 00		 push	 0
  00ce7	8b 4d e0	 mov	 ecx, DWORD PTR _lrcClient$[ebp+4]
  00cea	83 c1 2a	 add	 ecx, 42			; 0000002aH
  00ced	51		 push	 ecx
  00cee	8b 55 dc	 mov	 edx, DWORD PTR _lrcClient$[ebp]
  00cf1	83 c2 38	 add	 edx, 56			; 00000038H
  00cf4	52		 push	 edx
  00cf5	8b 45 e0	 mov	 eax, DWORD PTR _lrcClient$[ebp+4]
  00cf8	83 c0 0a	 add	 eax, 10			; 0000000aH
  00cfb	50		 push	 eax
  00cfc	8b 4d dc	 mov	 ecx, DWORD PTR _lrcClient$[ebp]
  00cff	83 c1 38	 add	 ecx, 56			; 00000038H
  00d02	51		 push	 ecx
  00d03	68 00 00 80 3f	 push	 1065353216		; 3f800000H
  00d08	8b 55 f0	 mov	 edx, DWORD PTR _this$[ebp]
  00d0b	8b 42 64	 mov	 eax, DWORD PTR [edx+100]
  00d0e	50		 push	 eax
  00d0f	8b 4d 0c	 mov	 ecx, DWORD PTR _hDC$[ebp]
  00d12	51		 push	 ecx
  00d13	b9 00 00 00 00	 mov	 ecx, OFFSET FLAT:?gBitMapOperate@@3VCBitMapOperate@@A
  00d18	e8 00 00 00 00	 call	 ?DrawLine@CBitMapOperate@@UAEXPAUHDC__@@KMHHHHH@Z ; CBitMapOperate::DrawLine

; 306  : 			gBitMapOperate.DrawLine(hDC, RGB(255, 255, 255), 1, lrcClient.left + 57, lrcClient.top + 10, lrcClient.left + 57, lrcClient.top + 42, FALSE);

  00d1d	6a 00		 push	 0
  00d1f	8b 55 e0	 mov	 edx, DWORD PTR _lrcClient$[ebp+4]
  00d22	83 c2 2a	 add	 edx, 42			; 0000002aH
  00d25	52		 push	 edx
  00d26	8b 45 dc	 mov	 eax, DWORD PTR _lrcClient$[ebp]
  00d29	83 c0 39	 add	 eax, 57			; 00000039H
  00d2c	50		 push	 eax
  00d2d	8b 4d e0	 mov	 ecx, DWORD PTR _lrcClient$[ebp+4]
  00d30	83 c1 0a	 add	 ecx, 10			; 0000000aH
  00d33	51		 push	 ecx
  00d34	8b 55 dc	 mov	 edx, DWORD PTR _lrcClient$[ebp]
  00d37	83 c2 39	 add	 edx, 57			; 00000039H
  00d3a	52		 push	 edx
  00d3b	68 00 00 80 3f	 push	 1065353216		; 3f800000H
  00d40	68 ff ff ff 00	 push	 16777215		; 00ffffffH
  00d45	8b 45 0c	 mov	 eax, DWORD PTR _hDC$[ebp]
  00d48	50		 push	 eax
  00d49	b9 00 00 00 00	 mov	 ecx, OFFSET FLAT:?gBitMapOperate@@3VCBitMapOperate@@A
  00d4e	e8 00 00 00 00	 call	 ?DrawLine@CBitMapOperate@@UAEXPAUHDC__@@KMHHHHH@Z ; CBitMapOperate::DrawLine

; 307  : 			gBitMapOperate.DrawLine(hDC, mBorderColor, 1, lrcClient.left + 124, lrcClient.top + 10, lrcClient.left + 124, lrcClient.top + 42, FALSE);

  00d53	6a 00		 push	 0
  00d55	8b 4d e0	 mov	 ecx, DWORD PTR _lrcClient$[ebp+4]
  00d58	83 c1 2a	 add	 ecx, 42			; 0000002aH
  00d5b	51		 push	 ecx
  00d5c	8b 55 dc	 mov	 edx, DWORD PTR _lrcClient$[ebp]
  00d5f	83 c2 7c	 add	 edx, 124		; 0000007cH
  00d62	52		 push	 edx
  00d63	8b 45 e0	 mov	 eax, DWORD PTR _lrcClient$[ebp+4]
  00d66	83 c0 0a	 add	 eax, 10			; 0000000aH
  00d69	50		 push	 eax
  00d6a	8b 4d dc	 mov	 ecx, DWORD PTR _lrcClient$[ebp]
  00d6d	83 c1 7c	 add	 ecx, 124		; 0000007cH
  00d70	51		 push	 ecx
  00d71	68 00 00 80 3f	 push	 1065353216		; 3f800000H
  00d76	8b 55 f0	 mov	 edx, DWORD PTR _this$[ebp]
  00d79	8b 42 64	 mov	 eax, DWORD PTR [edx+100]
  00d7c	50		 push	 eax
  00d7d	8b 4d 0c	 mov	 ecx, DWORD PTR _hDC$[ebp]
  00d80	51		 push	 ecx
  00d81	b9 00 00 00 00	 mov	 ecx, OFFSET FLAT:?gBitMapOperate@@3VCBitMapOperate@@A
  00d86	e8 00 00 00 00	 call	 ?DrawLine@CBitMapOperate@@UAEXPAUHDC__@@KMHHHHH@Z ; CBitMapOperate::DrawLine

; 308  : 			gBitMapOperate.DrawLine(hDC, RGB(255, 255, 255), 1, lrcClient.left + 125, lrcClient.top + 10, lrcClient.left + 125, lrcClient.top + 42, FALSE);

  00d8b	6a 00		 push	 0
  00d8d	8b 55 e0	 mov	 edx, DWORD PTR _lrcClient$[ebp+4]
  00d90	83 c2 2a	 add	 edx, 42			; 0000002aH
  00d93	52		 push	 edx
  00d94	8b 45 dc	 mov	 eax, DWORD PTR _lrcClient$[ebp]
  00d97	83 c0 7d	 add	 eax, 125		; 0000007dH
  00d9a	50		 push	 eax
  00d9b	8b 4d e0	 mov	 ecx, DWORD PTR _lrcClient$[ebp+4]
  00d9e	83 c1 0a	 add	 ecx, 10			; 0000000aH
  00da1	51		 push	 ecx
  00da2	8b 55 dc	 mov	 edx, DWORD PTR _lrcClient$[ebp]
  00da5	83 c2 7d	 add	 edx, 125		; 0000007dH
  00da8	52		 push	 edx
  00da9	68 00 00 80 3f	 push	 1065353216		; 3f800000H
  00dae	68 ff ff ff 00	 push	 16777215		; 00ffffffH
  00db3	8b 45 0c	 mov	 eax, DWORD PTR _hDC$[ebp]
  00db6	50		 push	 eax
  00db7	b9 00 00 00 00	 mov	 ecx, OFFSET FLAT:?gBitMapOperate@@3VCBitMapOperate@@A
  00dbc	e8 00 00 00 00	 call	 ?DrawLine@CBitMapOperate@@UAEXPAUHDC__@@KMHHHHH@Z ; CBitMapOperate::DrawLine

; 309  : 			gBitMapOperate.DrawLine(hDC, mBorderColor, 1, lrcClient.left + 192, lrcClient.top + 10, lrcClient.left + 192, lrcClient.top + 42, FALSE);

  00dc1	6a 00		 push	 0
  00dc3	8b 4d e0	 mov	 ecx, DWORD PTR _lrcClient$[ebp+4]
  00dc6	83 c1 2a	 add	 ecx, 42			; 0000002aH
  00dc9	51		 push	 ecx
  00dca	8b 55 dc	 mov	 edx, DWORD PTR _lrcClient$[ebp]
  00dcd	81 c2 c0 00 00
	00		 add	 edx, 192		; 000000c0H
  00dd3	52		 push	 edx
  00dd4	8b 45 e0	 mov	 eax, DWORD PTR _lrcClient$[ebp+4]
  00dd7	83 c0 0a	 add	 eax, 10			; 0000000aH
  00dda	50		 push	 eax
  00ddb	8b 4d dc	 mov	 ecx, DWORD PTR _lrcClient$[ebp]
  00dde	81 c1 c0 00 00
	00		 add	 ecx, 192		; 000000c0H
  00de4	51		 push	 ecx
  00de5	68 00 00 80 3f	 push	 1065353216		; 3f800000H
  00dea	8b 55 f0	 mov	 edx, DWORD PTR _this$[ebp]
  00ded	8b 42 64	 mov	 eax, DWORD PTR [edx+100]
  00df0	50		 push	 eax
  00df1	8b 4d 0c	 mov	 ecx, DWORD PTR _hDC$[ebp]
  00df4	51		 push	 ecx
  00df5	b9 00 00 00 00	 mov	 ecx, OFFSET FLAT:?gBitMapOperate@@3VCBitMapOperate@@A
  00dfa	e8 00 00 00 00	 call	 ?DrawLine@CBitMapOperate@@UAEXPAUHDC__@@KMHHHHH@Z ; CBitMapOperate::DrawLine

; 310  : 			gBitMapOperate.DrawLine(hDC, RGB(255, 255, 255), 1, lrcClient.left + 193, lrcClient.top + 10, lrcClient.left + 193, lrcClient.top + 42, FALSE);

  00dff	6a 00		 push	 0
  00e01	8b 55 e0	 mov	 edx, DWORD PTR _lrcClient$[ebp+4]
  00e04	83 c2 2a	 add	 edx, 42			; 0000002aH
  00e07	52		 push	 edx
  00e08	8b 45 dc	 mov	 eax, DWORD PTR _lrcClient$[ebp]
  00e0b	05 c1 00 00 00	 add	 eax, 193		; 000000c1H
  00e10	50		 push	 eax
  00e11	8b 4d e0	 mov	 ecx, DWORD PTR _lrcClient$[ebp+4]
  00e14	83 c1 0a	 add	 ecx, 10			; 0000000aH
  00e17	51		 push	 ecx
  00e18	8b 55 dc	 mov	 edx, DWORD PTR _lrcClient$[ebp]
  00e1b	81 c2 c1 00 00
	00		 add	 edx, 193		; 000000c1H
  00e21	52		 push	 edx
  00e22	68 00 00 80 3f	 push	 1065353216		; 3f800000H
  00e27	68 ff ff ff 00	 push	 16777215		; 00ffffffH
  00e2c	8b 45 0c	 mov	 eax, DWORD PTR _hDC$[ebp]
  00e2f	50		 push	 eax
  00e30	b9 00 00 00 00	 mov	 ecx, OFFSET FLAT:?gBitMapOperate@@3VCBitMapOperate@@A
  00e35	e8 00 00 00 00	 call	 ?DrawLine@CBitMapOperate@@UAEXPAUHDC__@@KMHHHHH@Z ; CBitMapOperate::DrawLine

; 311  : 			return;

  00e3a	c7 45 fc ff ff
	ff ff		 mov	 DWORD PTR __$EHRec$[ebp+8], -1
  00e41	8b f4		 mov	 esi, esp
  00e43	8d 4d d0	 lea	 ecx, DWORD PTR _lstrText$[ebp]
  00e46	ff 15 00 00 00
	00		 call	 DWORD PTR __imp_??1?$CStringT@DV?$StrTraitMFC_DLL@DV?$ChTraitsCRT@D@ATL@@@@@ATL@@QAE@XZ
  00e4c	3b f4		 cmp	 esi, esp
  00e4e	e8 00 00 00 00	 call	 __RTC_CheckEsp
  00e53	e9 9a 02 00 00	 jmp	 $L187491
$L187542:

; 312  : 		}
; 313  : 		break;
; 314  : 	case epsInfoHeader:
; 315  : 		{
; 316  : 			gBitMapOperate.FillRectangle(hDC,lrcClient,RGB(245,249,255),RGB(255,255,255),gBitMapOperate.edoVertical,false);

  00e58	8b 4d dc	 mov	 ecx, DWORD PTR _lrcClient$[ebp]
  00e5b	89 8d 60 ff ff
	ff		 mov	 DWORD PTR $T188262[ebp], ecx
  00e61	8b 55 e0	 mov	 edx, DWORD PTR _lrcClient$[ebp+4]
  00e64	89 95 64 ff ff
	ff		 mov	 DWORD PTR $T188262[ebp+4], edx
  00e6a	8b 45 e4	 mov	 eax, DWORD PTR _lrcClient$[ebp+8]
  00e6d	89 85 68 ff ff
	ff		 mov	 DWORD PTR $T188262[ebp+8], eax
  00e73	8b 4d e8	 mov	 ecx, DWORD PTR _lrcClient$[ebp+12]
  00e76	89 8d 6c ff ff
	ff		 mov	 DWORD PTR $T188262[ebp+12], ecx
  00e7c	6a 01		 push	 1
  00e7e	6a 00		 push	 0
  00e80	6a 01		 push	 1
  00e82	68 ff ff ff 00	 push	 16777215		; 00ffffffH
  00e87	68 f5 f9 ff 00	 push	 16775669		; 00fff9f5H
  00e8c	83 ec 10	 sub	 esp, 16			; 00000010H
  00e8f	8b d4		 mov	 edx, esp
  00e91	8b 85 60 ff ff
	ff		 mov	 eax, DWORD PTR $T188262[ebp]
  00e97	89 02		 mov	 DWORD PTR [edx], eax
  00e99	8b 8d 64 ff ff
	ff		 mov	 ecx, DWORD PTR $T188262[ebp+4]
  00e9f	89 4a 04	 mov	 DWORD PTR [edx+4], ecx
  00ea2	8b 85 68 ff ff
	ff		 mov	 eax, DWORD PTR $T188262[ebp+8]
  00ea8	89 42 08	 mov	 DWORD PTR [edx+8], eax
  00eab	8b 8d 6c ff ff
	ff		 mov	 ecx, DWORD PTR $T188262[ebp+12]
  00eb1	89 4a 0c	 mov	 DWORD PTR [edx+12], ecx
  00eb4	8b 55 0c	 mov	 edx, DWORD PTR _hDC$[ebp]
  00eb7	52		 push	 edx
  00eb8	b9 00 00 00 00	 mov	 ecx, OFFSET FLAT:?gBitMapOperate@@3VCBitMapOperate@@A
  00ebd	e8 00 00 00 00	 call	 ?FillRectangle@CBitMapOperate@@UAEXPAUHDC__@@UtagRECT@@KKW4ENUM_DrawOrientation@1@HI@Z ; CBitMapOperate::FillRectangle
$L187507:

; 317  : 		}
; 318  : 		break;
; 319  : 	}
; 320  : 	DWORD dwExStyle = GetExStyle();

  00ec2	8b 4d f0	 mov	 ecx, DWORD PTR _this$[ebp]
  00ec5	e8 00 00 00 00	 call	 ?GetExStyle@CWnd@@QBEKXZ ; CWnd::GetExStyle
  00eca	89 45 c0	 mov	 DWORD PTR _dwExStyle$[ebp], eax

; 321  : 	if (dwExStyle & WS_EX_CLIENTEDGE)

  00ecd	8b 45 c0	 mov	 eax, DWORD PTR _dwExStyle$[ebp]
  00ed0	25 00 02 00 00	 and	 eax, 512		; 00000200H
  00ed5	74 21		 je	 SHORT $L187557

; 322  : 	{
; 323  : 		CRect lRect = lrcClient;

  00ed7	8b 4d dc	 mov	 ecx, DWORD PTR _lrcClient$[ebp]
  00eda	89 4d ac	 mov	 DWORD PTR _lRect$187558[ebp], ecx
  00edd	8b 55 e0	 mov	 edx, DWORD PTR _lrcClient$[ebp+4]
  00ee0	89 55 b0	 mov	 DWORD PTR _lRect$187558[ebp+4], edx
  00ee3	8b 45 e4	 mov	 eax, DWORD PTR _lrcClient$[ebp+8]
  00ee6	89 45 b4	 mov	 DWORD PTR _lRect$187558[ebp+8], eax
  00ee9	8b 4d e8	 mov	 ecx, DWORD PTR _lrcClient$[ebp+12]
  00eec	89 4d b8	 mov	 DWORD PTR _lRect$187558[ebp+12], ecx

; 324  : 		lRect.bottom -= 1;

  00eef	8b 55 b8	 mov	 edx, DWORD PTR _lRect$187558[ebp+12]
  00ef2	83 ea 01	 sub	 edx, 1
  00ef5	89 55 b8	 mov	 DWORD PTR _lRect$187558[ebp+12], edx
$L187557:

; 325  : 
; 326  : 		//if (IsWindowEnabled())
; 327  : 		//	gGdiExOperate.FillRectangle(hDC, lRect, RGB(125, 189, 237), FALSE);
; 328  : 		//else
; 329  : 		//	gGdiExOperate.FillRectangle(hDC, lRect, BrightColor(0xc0c0c0, 0.36), FALSE);
; 330  : 	}
; 331  : 
; 332  : 	CDC* dc = CDC::FromHandle(hDC);

  00ef8	8b 45 0c	 mov	 eax, DWORD PTR _hDC$[ebp]
  00efb	50		 push	 eax
  00efc	e8 00 00 00 00	 call	 ?FromHandle@CDC@@SGPAV1@PAUHDC__@@@Z ; CDC::FromHandle
  00f01	89 45 a4	 mov	 DWORD PTR _dc$[ebp], eax

; 333  : 
; 334  : 	//获取当前字体
; 335  : 	/*CFont *lpFont, *lpOldFont;
; 336  : 	CFont loUseFont;
; 337  : 	LOGFONT lolf;
; 338  : 	lpFont = GetFont();
; 339  : 
; 340  : 	COLORREF clTextColor = 0;
; 341  : 
; 342  : 	if (lpFont == NULL)
; 343  : 	{
; 344  : 	lpFont = GetParent()->GetFont();
; 345  : 	}*/
; 346  : 	//if (lpFont != NULL)
; 347  : 	//{
; 348  : 
; 349  : 	//	lpFont->GetLogFont(&lolf);
; 350  : 	//	if (miFontSize != 0)
; 351  : 	//	{
; 352  : 	//		lolf.lfHeight = miFontSize/* * 20*/;
; 353  : 	//	}
; 354  : 	//	if (mlBold != 0)
; 355  : 	//	{
; 356  : 	//		lolf.lfWeight = mlBold;
; 357  : 	//	}
; 358  : 	/*if(mbMouseOver == true&&mbUrl == true)
; 359  : 	{
; 360  : 	lolf.lfUnderline = true;
; 361  : 	clTextColor = RGB(0,44,133);
; 362  : 	}
; 363  : 	else
; 364  : 	{
; 365  : 	lolf.lfUnderline = false;
; 366  : 	clTextColor = mTextColor;
; 367  : 	}*/
; 368  : 	/*	loUseFont.CreateFontIndirect(&lolf);
; 369  : 	lpFont = &loUseFont;
; 370  : 	lpOldFont = dc->SelectObject(lpFont);*/
; 371  : 	//}
; 372  : 	COLORREF clTextColor = 0;

  00f04	c7 45 a0 00 00
	00 00		 mov	 DWORD PTR _clTextColor$[ebp], 0

; 373  : 	dc->SetBkMode(TRANSPARENT);					//设置背景透明

  00f0b	6a 01		 push	 1
  00f0d	8b 4d a4	 mov	 ecx, DWORD PTR _dc$[ebp]
  00f10	e8 00 00 00 00	 call	 ?SetBkMode@CDC@@QAEHH@Z	; CDC::SetBkMode

; 374  : 	if (IsWindowEnabled())

  00f15	8b 4d f0	 mov	 ecx, DWORD PTR _this$[ebp]
  00f18	e8 00 00 00 00	 call	 ?IsWindowEnabled@CWnd@@QBEHXZ ; CWnd::IsWindowEnabled
  00f1d	85 c0		 test	 eax, eax
  00f1f	74 1a		 je	 SHORT $L187561

; 375  : 	{
; 376  : 		dc->SetTextColor(clTextColor);				//设置文字颜色

  00f21	8b f4		 mov	 esi, esp
  00f23	8b 4d a0	 mov	 ecx, DWORD PTR _clTextColor$[ebp]
  00f26	51		 push	 ecx
  00f27	8b 55 a4	 mov	 edx, DWORD PTR _dc$[ebp]
  00f2a	8b 02		 mov	 eax, DWORD PTR [edx]
  00f2c	8b 4d a4	 mov	 ecx, DWORD PTR _dc$[ebp]
  00f2f	ff 50 38	 call	 DWORD PTR [eax+56]
  00f32	3b f4		 cmp	 esi, esp
  00f34	e8 00 00 00 00	 call	 __RTC_CheckEsp

; 377  : 	}
; 378  : 	else

  00f39	eb 29		 jmp	 SHORT $L187562
$L187561:

; 379  : 	{
; 380  : 		dc->SetTextColor(gBitMapOperate.BrightColor( RGB( 192,192,192), 0.40 ) );

  00f3b	68 cd cc cc 3e	 push	 1053609165		; 3ecccccdH
  00f40	68 c0 c0 c0 00	 push	 12632256		; 00c0c0c0H
  00f45	b9 00 00 00 00	 mov	 ecx, OFFSET FLAT:?gBitMapOperate@@3VCBitMapOperate@@A
  00f4a	e8 00 00 00 00	 call	 ?BrightColor@CBitMapOperate@@QAEKKM@Z ; CBitMapOperate::BrightColor
  00f4f	8b f4		 mov	 esi, esp
  00f51	50		 push	 eax
  00f52	8b 4d a4	 mov	 ecx, DWORD PTR _dc$[ebp]
  00f55	8b 11		 mov	 edx, DWORD PTR [ecx]
  00f57	8b 4d a4	 mov	 ecx, DWORD PTR _dc$[ebp]
  00f5a	ff 52 38	 call	 DWORD PTR [edx+56]
  00f5d	3b f4		 cmp	 esi, esp
  00f5f	e8 00 00 00 00	 call	 __RTC_CheckEsp
$L187562:

; 381  : 	}
; 382  : 
; 383  : 
; 384  : 	if(mbUrl)

  00f64	8b 45 f0	 mov	 eax, DWORD PTR _this$[ebp]
  00f67	0f b6 88 8d 00
	00 00		 movzx	 ecx, BYTE PTR [eax+141]
  00f6e	85 c9		 test	 ecx, ecx
  00f70	0f 84 b4 00 00
	00		 je	 $L187569

; 385  : 	{
; 386  : 		gBitMapOperate.DrawText( dc,lstrText,mTextColor,lrcClient,mFormat,true,mWidth,mSize,mTextSet,(string)m_fontName );

  00f76	8b 4d f0	 mov	 ecx, DWORD PTR _this$[ebp]
  00f79	81 c1 9c 00 00
	00		 add	 ecx, 156		; 0000009cH
  00f7f	8b f4		 mov	 esi, esp
  00f81	ff 15 00 00 00
	00		 call	 DWORD PTR __imp_??B?$CSimpleStringT@D$00@ATL@@QBEPBDXZ
  00f87	3b f4		 cmp	 esi, esp
  00f89	e8 00 00 00 00	 call	 __RTC_CheckEsp
  00f8e	83 ec 1c	 sub	 esp, 28			; 0000001cH
  00f91	8b cc		 mov	 ecx, esp
  00f93	89 a5 5c ff ff
	ff		 mov	 DWORD PTR $T188263[ebp], esp
  00f99	8b f4		 mov	 esi, esp
  00f9b	50		 push	 eax
  00f9c	ff 15 00 00 00
	00		 call	 DWORD PTR __imp_??0?$basic_string@DU?$char_traits@D@std@@V?$allocator@D@2@@std@@QAE@PBD@Z
  00fa2	3b f4		 cmp	 esi, esp
  00fa4	e8 00 00 00 00	 call	 __RTC_CheckEsp
  00fa9	89 85 48 ff ff
	ff		 mov	 DWORD PTR tv422[ebp], eax
  00faf	8b 95 48 ff ff
	ff		 mov	 edx, DWORD PTR tv422[ebp]
  00fb5	89 95 44 ff ff
	ff		 mov	 DWORD PTR tv398[ebp], edx
  00fbb	c6 45 fc 01	 mov	 BYTE PTR __$EHRec$[ebp+8], 1
  00fbf	8b 45 f0	 mov	 eax, DWORD PTR _this$[ebp]
  00fc2	8b 48 7c	 mov	 ecx, DWORD PTR [eax+124]
  00fc5	51		 push	 ecx
  00fc6	8b 55 f0	 mov	 edx, DWORD PTR _this$[ebp]
  00fc9	8b 82 98 00 00
	00		 mov	 eax, DWORD PTR [edx+152]
  00fcf	50		 push	 eax
  00fd0	8b 4d f0	 mov	 ecx, DWORD PTR _this$[ebp]
  00fd3	8b 91 94 00 00
	00		 mov	 edx, DWORD PTR [ecx+148]
  00fd9	52		 push	 edx
  00fda	6a 01		 push	 1
  00fdc	8b 45 f0	 mov	 eax, DWORD PTR _this$[ebp]
  00fdf	8b 88 90 00 00
	00		 mov	 ecx, DWORD PTR [eax+144]
  00fe5	51		 push	 ecx
  00fe6	8d 55 dc	 lea	 edx, DWORD PTR _lrcClient$[ebp]
  00fe9	52		 push	 edx
  00fea	8b 45 f0	 mov	 eax, DWORD PTR _this$[ebp]
  00fed	8b 48 78	 mov	 ecx, DWORD PTR [eax+120]
  00ff0	51		 push	 ecx
  00ff1	51		 push	 ecx
  00ff2	8b cc		 mov	 ecx, esp
  00ff4	89 a5 58 ff ff
	ff		 mov	 DWORD PTR $T188264[ebp], esp
  00ffa	8b f4		 mov	 esi, esp
  00ffc	8d 55 d0	 lea	 edx, DWORD PTR _lstrText$[ebp]
  00fff	52		 push	 edx
  01000	ff 15 00 00 00
	00		 call	 DWORD PTR __imp_??0?$CStringT@DV?$StrTraitMFC_DLL@DV?$ChTraitsCRT@D@ATL@@@@@ATL@@QAE@ABV01@@Z
  01006	3b f4		 cmp	 esi, esp
  01008	e8 00 00 00 00	 call	 __RTC_CheckEsp
  0100d	89 85 40 ff ff
	ff		 mov	 DWORD PTR tv408[ebp], eax
  01013	8b 45 a4	 mov	 eax, DWORD PTR _dc$[ebp]
  01016	50		 push	 eax
  01017	c6 45 fc 00	 mov	 BYTE PTR __$EHRec$[ebp+8], 0
  0101b	b9 00 00 00 00	 mov	 ecx, OFFSET FLAT:?gBitMapOperate@@3VCBitMapOperate@@A
  01020	e8 00 00 00 00	 call	 ?DrawTextA@CBitMapOperate@@UAEXPAVCDC@@V?$CStringT@DV?$StrTraitMFC_DLL@DV?$ChTraitsCRT@D@ATL@@@@@ATL@@KAAUtagRECT@@I_NIIIV?$basic_string@DU?$char_traits@D@std@@V?$allocator@D@2@@std@@@Z ; CBitMapOperate::DrawTextA

; 387  : 	}
; 388  : 	else

  01025	e9 af 00 00 00	 jmp	 $L187574
$L187569:

; 389  : 	{
; 390  : 		gBitMapOperate.DrawText( dc,lstrText,mTextColor,lrcClient,mFormat,false,mWidth,mSize,mTextSet,(string)m_fontName );

  0102a	8b 4d f0	 mov	 ecx, DWORD PTR _this$[ebp]
  0102d	81 c1 9c 00 00
	00		 add	 ecx, 156		; 0000009cH
  01033	8b f4		 mov	 esi, esp
  01035	ff 15 00 00 00
	00		 call	 DWORD PTR __imp_??B?$CSimpleStringT@D$00@ATL@@QBEPBDXZ
  0103b	3b f4		 cmp	 esi, esp
  0103d	e8 00 00 00 00	 call	 __RTC_CheckEsp
  01042	83 ec 1c	 sub	 esp, 28			; 0000001cH
  01045	8b cc		 mov	 ecx, esp
  01047	89 a5 54 ff ff
	ff		 mov	 DWORD PTR $T188265[ebp], esp
  0104d	8b f4		 mov	 esi, esp
  0104f	50		 push	 eax
  01050	ff 15 00 00 00
	00		 call	 DWORD PTR __imp_??0?$basic_string@DU?$char_traits@D@std@@V?$allocator@D@2@@std@@QAE@PBD@Z
  01056	3b f4		 cmp	 esi, esp
  01058	e8 00 00 00 00	 call	 __RTC_CheckEsp
  0105d	89 85 3c ff ff
	ff		 mov	 DWORD PTR tv425[ebp], eax
  01063	8b 8d 3c ff ff
	ff		 mov	 ecx, DWORD PTR tv425[ebp]
  01069	89 8d 38 ff ff
	ff		 mov	 DWORD PTR tv410[ebp], ecx
  0106f	c6 45 fc 02	 mov	 BYTE PTR __$EHRec$[ebp+8], 2
  01073	8b 55 f0	 mov	 edx, DWORD PTR _this$[ebp]
  01076	8b 42 7c	 mov	 eax, DWORD PTR [edx+124]
  01079	50		 push	 eax
  0107a	8b 4d f0	 mov	 ecx, DWORD PTR _this$[ebp]
  0107d	8b 91 98 00 00
	00		 mov	 edx, DWORD PTR [ecx+152]
  01083	52		 push	 edx
  01084	8b 45 f0	 mov	 eax, DWORD PTR _this$[ebp]
  01087	8b 88 94 00 00
	00		 mov	 ecx, DWORD PTR [eax+148]
  0108d	51		 push	 ecx
  0108e	6a 00		 push	 0
  01090	8b 55 f0	 mov	 edx, DWORD PTR _this$[ebp]
  01093	8b 82 90 00 00
	00		 mov	 eax, DWORD PTR [edx+144]
  01099	50		 push	 eax
  0109a	8d 4d dc	 lea	 ecx, DWORD PTR _lrcClient$[ebp]
  0109d	51		 push	 ecx
  0109e	8b 55 f0	 mov	 edx, DWORD PTR _this$[ebp]
  010a1	8b 42 78	 mov	 eax, DWORD PTR [edx+120]
  010a4	50		 push	 eax
  010a5	51		 push	 ecx
  010a6	8b cc		 mov	 ecx, esp
  010a8	89 a5 50 ff ff
	ff		 mov	 DWORD PTR $T188266[ebp], esp
  010ae	8b f4		 mov	 esi, esp
  010b0	8d 55 d0	 lea	 edx, DWORD PTR _lstrText$[ebp]
  010b3	52		 push	 edx
  010b4	ff 15 00 00 00
	00		 call	 DWORD PTR __imp_??0?$CStringT@DV?$StrTraitMFC_DLL@DV?$ChTraitsCRT@D@ATL@@@@@ATL@@QAE@ABV01@@Z
  010ba	3b f4		 cmp	 esi, esp
  010bc	e8 00 00 00 00	 call	 __RTC_CheckEsp
  010c1	89 85 34 ff ff
	ff		 mov	 DWORD PTR tv420[ebp], eax
  010c7	8b 45 a4	 mov	 eax, DWORD PTR _dc$[ebp]
  010ca	50		 push	 eax
  010cb	c6 45 fc 00	 mov	 BYTE PTR __$EHRec$[ebp+8], 0
  010cf	b9 00 00 00 00	 mov	 ecx, OFFSET FLAT:?gBitMapOperate@@3VCBitMapOperate@@A
  010d4	e8 00 00 00 00	 call	 ?DrawTextA@CBitMapOperate@@UAEXPAVCDC@@V?$CStringT@DV?$StrTraitMFC_DLL@DV?$ChTraitsCRT@D@ATL@@@@@ATL@@KAAUtagRECT@@I_NIIIV?$basic_string@DU?$char_traits@D@std@@V?$allocator@D@2@@std@@@Z ; CBitMapOperate::DrawTextA
$L187574:

; 391  : 	}
; 392  : 
; 393  : }

  010d9	c7 45 fc ff ff
	ff ff		 mov	 DWORD PTR __$EHRec$[ebp+8], -1
  010e0	8b f4		 mov	 esi, esp
  010e2	8d 4d d0	 lea	 ecx, DWORD PTR _lstrText$[ebp]
  010e5	ff 15 00 00 00
	00		 call	 DWORD PTR __imp_??1?$CStringT@DV?$StrTraitMFC_DLL@DV?$ChTraitsCRT@D@ATL@@@@@ATL@@QAE@XZ
  010eb	3b f4		 cmp	 esi, esp
  010ed	e8 00 00 00 00	 call	 __RTC_CheckEsp
$L187491:
  010f2	52		 push	 edx
  010f3	8b cd		 mov	 ecx, ebp
  010f5	50		 push	 eax
  010f6	8d 15 00 00 00
	00		 lea	 edx, DWORD PTR $L188279
  010fc	e8 00 00 00 00	 call	 @_RTC_CheckStackVars@8
  01101	58		 pop	 eax
  01102	5a		 pop	 edx
  01103	8b 4d f4	 mov	 ecx, DWORD PTR __$EHRec$[ebp]
  01106	64 89 0d 00 00
	00 00		 mov	 DWORD PTR fs:__except_list, ecx
  0110d	5f		 pop	 edi
  0110e	5e		 pop	 esi
  0110f	81 c4 cc 00 00
	00		 add	 esp, 204		; 000000ccH
  01115	3b ec		 cmp	 ebp, esp
  01117	e8 00 00 00 00	 call	 __RTC_CheckEsp
  0111c	8b e5		 mov	 esp, ebp
  0111e	5d		 pop	 ebp
  0111f	c2 08 00	 ret	 8
$L188279:
  01122	03 00 00 00	 DD	 3
  01126	00 00 00 00	 DD	 $L188278
$L188278:
  0112a	dc ff ff ff	 DD	 -36			; ffffffdcH
  0112e	10 00 00 00	 DD	 16			; 00000010H
  01132	00 00 00 00	 DD	 $L188274
  01136	d0 ff ff ff	 DD	 -48			; ffffffd0H
  0113a	04 00 00 00	 DD	 4
  0113e	00 00 00 00	 DD	 $L188275
  01142	ac ff ff ff	 DD	 -84			; ffffffacH
  01146	10 00 00 00	 DD	 16			; 00000010H
  0114a	00 00 00 00	 DD	 $L188276
$L188276:
  0114e	6c		 DB	 108			; 0000006cH
  0114f	52		 DB	 82			; 00000052H
  01150	65		 DB	 101			; 00000065H
  01151	63		 DB	 99			; 00000063H
  01152	74		 DB	 116			; 00000074H
  01153	00		 DB	 0
$L188275:
  01154	6c		 DB	 108			; 0000006cH
  01155	73		 DB	 115			; 00000073H
  01156	74		 DB	 116			; 00000074H
  01157	72		 DB	 114			; 00000072H
  01158	54		 DB	 84			; 00000054H
  01159	65		 DB	 101			; 00000065H
  0115a	78		 DB	 120			; 00000078H
  0115b	74		 DB	 116			; 00000074H
  0115c	00		 DB	 0
$L188274:
  0115d	6c		 DB	 108			; 0000006cH
  0115e	72		 DB	 114			; 00000072H
  0115f	63		 DB	 99			; 00000063H
  01160	43		 DB	 67			; 00000043H
  01161	6c		 DB	 108			; 0000006cH
  01162	69		 DB	 105			; 00000069H
  01163	65		 DB	 101			; 00000065H
  01164	6e		 DB	 110			; 0000006eH
  01165	74		 DB	 116			; 00000074H
  01166	00		 DB	 0
$L188280:
  01167	00 00 00 00	 DD	 $L187511
  0116b	00 00 00 00	 DD	 $L187513
  0116f	00 00 00 00	 DD	 $L187515
  01173	00 00 00 00	 DD	 $L187517
  01177	00 00 00 00	 DD	 $L187542
_TEXT	ENDS
text$x	SEGMENT
$L188267:
  0009e	8b f4		 mov	 esi, esp
  000a0	8d 4d d0	 lea	 ecx, DWORD PTR _lstrText$[ebp]
  000a3	ff 15 00 00 00
	00		 call	 DWORD PTR __imp_??1?$CStringT@DV?$StrTraitMFC_DLL@DV?$ChTraitsCRT@D@ATL@@@@@ATL@@QAE@XZ
  000a9	3b f4		 cmp	 esi, esp
  000ab	e9 00 00 00 00	 jmp	 __RTC_CheckEsp
$L188268:
  000b0	8b f4		 mov	 esi, esp
  000b2	8b 8d 5c ff ff
	ff		 mov	 ecx, DWORD PTR $T188263[ebp]
  000b8	ff 15 00 00 00
	00		 call	 DWORD PTR __imp_??1?$basic_string@DU?$char_traits@D@std@@V?$allocator@D@2@@std@@QAE@XZ
  000be	3b f4		 cmp	 esi, esp
  000c0	e9 00 00 00 00	 jmp	 __RTC_CheckEsp
$L188270:
  000c5	8b f4		 mov	 esi, esp
  000c7	8b 8d 54 ff ff
	ff		 mov	 ecx, DWORD PTR $T188265[ebp]
  000cd	ff 15 00 00 00
	00		 call	 DWORD PTR __imp_??1?$basic_string@DU?$char_traits@D@std@@V?$allocator@D@2@@std@@QAE@XZ
  000d3	3b f4		 cmp	 esi, esp
  000d5	e9 00 00 00 00	 jmp	 __RTC_CheckEsp
__ehhandler$?DrawFace@CStaticText@@IAEXPAUHWND__@@PAUHDC__@@@Z:
  000da	b8 00 00 00 00	 mov	 eax, OFFSET FLAT:$T188273
  000df	e9 00 00 00 00	 jmp	 ___CxxFrameHandler
text$x	ENDS
?DrawFace@CStaticText@@IAEXPAUHWND__@@PAUHDC__@@@Z ENDP	; CStaticText::DrawFace
PUBLIC	?EnableWindow@CStaticText@@QAEHH@Z		; CStaticText::EnableWindow
EXTRN	?EnableWindow@CWnd@@QAEHH@Z:NEAR		; CWnd::EnableWindow
; Function compile flags: /Odt /RTCsu
_TEXT	SEGMENT
_this$ = -4						; size = 4
_aValue$ = 8						; size = 4
?EnableWindow@CStaticText@@QAEHH@Z PROC NEAR		; CStaticText::EnableWindow
; _this$ = ecx

; 396  : {

  01180	55		 push	 ebp
  01181	8b ec		 mov	 ebp, esp
  01183	51		 push	 ecx
  01184	c7 45 fc cc cc
	cc cc		 mov	 DWORD PTR [ebp-4], -858993460 ; ccccccccH
  0118b	89 4d fc	 mov	 DWORD PTR _this$[ebp], ecx

; 397  : 	InvalidateBack();

  0118e	8b 4d fc	 mov	 ecx, DWORD PTR _this$[ebp]
  01191	e8 00 00 00 00	 call	 ?InvalidateBack@CStaticText@@AAEXXZ ; CStaticText::InvalidateBack

; 398  : 	return CStatic::EnableWindow(aValue);

  01196	8b 45 08	 mov	 eax, DWORD PTR _aValue$[ebp]
  01199	50		 push	 eax
  0119a	8b 4d fc	 mov	 ecx, DWORD PTR _this$[ebp]
  0119d	e8 00 00 00 00	 call	 ?EnableWindow@CWnd@@QAEHH@Z ; CWnd::EnableWindow

; 399  : 
; 400  : }

  011a2	83 c4 04	 add	 esp, 4
  011a5	3b ec		 cmp	 ebp, esp
  011a7	e8 00 00 00 00	 call	 __RTC_CheckEsp
  011ac	8b e5		 mov	 esp, ebp
  011ae	5d		 pop	 ebp
  011af	c2 04 00	 ret	 4
?EnableWindow@CStaticText@@QAEHH@Z ENDP			; CStaticText::EnableWindow
; Function compile flags: /Odt /RTCsu
_this$ = -4						; size = 4
_pDC$ = 8						; size = 4
?OnEraseBkgnd@CStaticText@@IAEHPAVCDC@@@Z PROC NEAR	; CStaticText::OnEraseBkgnd
; _this$ = ecx

; 403  : {

  011c0	55		 push	 ebp
  011c1	8b ec		 mov	 ebp, esp
  011c3	51		 push	 ecx
  011c4	c7 45 fc cc cc
	cc cc		 mov	 DWORD PTR [ebp-4], -858993460 ; ccccccccH
  011cb	89 4d fc	 mov	 DWORD PTR _this$[ebp], ecx

; 404  : 	return TRUE;

  011ce	b8 01 00 00 00	 mov	 eax, 1

; 405  : }

  011d3	8b e5		 mov	 esp, ebp
  011d5	5d		 pop	 ebp
  011d6	c2 04 00	 ret	 4
?OnEraseBkgnd@CStaticText@@IAEHPAVCDC@@@Z ENDP		; CStaticText::OnEraseBkgnd
_TEXT	ENDS
PUBLIC	?SetTextTop@CStaticText@@QAEXH@Z		; CStaticText::SetTextTop
; Function compile flags: /Odt /RTCsu
_TEXT	SEGMENT
_this$ = -4						; size = 4
_aiValue$ = 8						; size = 4
?SetTextTop@CStaticText@@QAEXH@Z PROC NEAR		; CStaticText::SetTextTop
; _this$ = ecx

; 408  : {

  011e0	55		 push	 ebp
  011e1	8b ec		 mov	 ebp, esp
  011e3	51		 push	 ecx
  011e4	c7 45 fc cc cc
	cc cc		 mov	 DWORD PTR [ebp-4], -858993460 ; ccccccccH
  011eb	89 4d fc	 mov	 DWORD PTR _this$[ebp], ecx

; 409  : 	miTextTop = aiValue;

  011ee	8b 45 fc	 mov	 eax, DWORD PTR _this$[ebp]
  011f1	8b 4d 08	 mov	 ecx, DWORD PTR _aiValue$[ebp]
  011f4	89 88 84 00 00
	00		 mov	 DWORD PTR [eax+132], ecx

; 410  : 	InvalidateBack();

  011fa	8b 4d fc	 mov	 ecx, DWORD PTR _this$[ebp]
  011fd	e8 00 00 00 00	 call	 ?InvalidateBack@CStaticText@@AAEXXZ ; CStaticText::InvalidateBack

; 411  : }

  01202	83 c4 04	 add	 esp, 4
  01205	3b ec		 cmp	 ebp, esp
  01207	e8 00 00 00 00	 call	 __RTC_CheckEsp
  0120c	8b e5		 mov	 esp, ebp
  0120e	5d		 pop	 ebp
  0120f	c2 04 00	 ret	 4
?SetTextTop@CStaticText@@QAEXH@Z ENDP			; CStaticText::SetTextTop
_TEXT	ENDS
PUBLIC	?MouseLeave@CStaticText@@AAEXXZ			; CStaticText::MouseLeave
PUBLIC	?MouseEnter@CStaticText@@AAEXXZ			; CStaticText::MouseEnter
EXTRN	?OnMouseMove@CWnd@@IAEXIVCPoint@@@Z:NEAR	; CWnd::OnMouseMove
EXTRN	?PtInRect@CRect@@QBEHUtagPOINT@@@Z:NEAR		; CRect::PtInRect
EXTRN	__imp__SetCursor@4:NEAR
EXTRN	__imp__GetCursorPos@4:NEAR
EXTRN	?GetWindowRect@CWnd@@QBEXPAUtagRECT@@@Z:NEAR	; CWnd::GetWindowRect
EXTRN	?SetCapture@CWnd@@QAEPAV1@XZ:NEAR		; CWnd::SetCapture
EXTRN	__imp__ReleaseCapture@0:NEAR
EXTRN	__imp__LoadCursorA@8:NEAR
; Function compile flags: /Odt /RTCsu
_TEXT	SEGMENT
_rect$ = -40						; size = 16
_mpoint$ = -16						; size = 8
_this$ = -4						; size = 4
_nFlags$ = 8						; size = 4
_point$ = 12						; size = 8
?OnMouseMove@CStaticText@@IAEXIVCPoint@@@Z PROC NEAR	; CStaticText::OnMouseMove
; _this$ = ecx

; 414  : {

  01220	55		 push	 ebp
  01221	8b ec		 mov	 ebp, esp
  01223	83 ec 2c	 sub	 esp, 44			; 0000002cH
  01226	56		 push	 esi
  01227	57		 push	 edi
  01228	51		 push	 ecx
  01229	8d 7d d4	 lea	 edi, DWORD PTR [ebp-44]
  0122c	b9 0b 00 00 00	 mov	 ecx, 11			; 0000000bH
  01231	b8 cc cc cc cc	 mov	 eax, -858993460		; ccccccccH
  01236	f3 ab		 rep stosd
  01238	59		 pop	 ecx
  01239	89 4d fc	 mov	 DWORD PTR _this$[ebp], ecx

; 415  : 	SetCapture();													//捕捉鼠标

  0123c	8b 4d fc	 mov	 ecx, DWORD PTR _this$[ebp]
  0123f	e8 00 00 00 00	 call	 ?SetCapture@CWnd@@QAEPAV1@XZ ; CWnd::SetCapture

; 416  : #ifndef IDC_HAND
; 417  : #define IDC_HAND            MAKEINTRESOURCE(32649)
; 418  : #endif
; 419  : 	if(mbUrl)

  01244	8b 45 fc	 mov	 eax, DWORD PTR _this$[ebp]
  01247	0f b6 88 8d 00
	00 00		 movzx	 ecx, BYTE PTR [eax+141]
  0124e	85 c9		 test	 ecx, ecx
  01250	74 26		 je	 SHORT $L187596

; 420  : 		::SetCursor(::LoadCursor(NULL, IDC_HAND));

  01252	8b f4		 mov	 esi, esp
  01254	68 89 7f 00 00	 push	 32649			; 00007f89H
  01259	6a 00		 push	 0
  0125b	ff 15 00 00 00
	00		 call	 DWORD PTR __imp__LoadCursorA@8
  01261	3b f4		 cmp	 esi, esp
  01263	e8 00 00 00 00	 call	 __RTC_CheckEsp
  01268	8b f4		 mov	 esi, esp
  0126a	50		 push	 eax
  0126b	ff 15 00 00 00
	00		 call	 DWORD PTR __imp__SetCursor@4
  01271	3b f4		 cmp	 esi, esp
  01273	e8 00 00 00 00	 call	 __RTC_CheckEsp
$L187596:

; 421  : 	POINT mpoint;   
; 422  : 	GetCursorPos(&mpoint);											//取得当前鼠标位置

  01278	8b f4		 mov	 esi, esp
  0127a	8d 55 f0	 lea	 edx, DWORD PTR _mpoint$[ebp]
  0127d	52		 push	 edx
  0127e	ff 15 00 00 00
	00		 call	 DWORD PTR __imp__GetCursorPos@4
  01284	3b f4		 cmp	 esi, esp
  01286	e8 00 00 00 00	 call	 __RTC_CheckEsp

; 423  : 	CRect rect;

  0128b	8d 4d d8	 lea	 ecx, DWORD PTR _rect$[ebp]
  0128e	e8 00 00 00 00	 call	 ??0CRect@@QAE@XZ	; CRect::CRect

; 424  : 	GetWindowRect(&rect);											//取得控件的窗口大小

  01293	8d 45 d8	 lea	 eax, DWORD PTR _rect$[ebp]
  01296	50		 push	 eax
  01297	8b 4d fc	 mov	 ecx, DWORD PTR _this$[ebp]
  0129a	e8 00 00 00 00	 call	 ?GetWindowRect@CWnd@@QBEXPAUtagRECT@@@Z ; CWnd::GetWindowRect

; 425  : 
; 426  : 	if (!rect.PtInRect(mpoint))										//判断鼠标是否在控件的窗口内

  0129f	8b 4d f4	 mov	 ecx, DWORD PTR _mpoint$[ebp+4]
  012a2	51		 push	 ecx
  012a3	8b 55 f0	 mov	 edx, DWORD PTR _mpoint$[ebp]
  012a6	52		 push	 edx
  012a7	8d 4d d8	 lea	 ecx, DWORD PTR _rect$[ebp]
  012aa	e8 00 00 00 00	 call	 ?PtInRect@CRect@@QBEHUtagPOINT@@@Z ; CRect::PtInRect
  012af	85 c0		 test	 eax, eax
  012b1	75 23		 jne	 SHORT $L187602

; 427  : 	{																//鼠标不在控件的窗口内
; 428  : 		mbCaptured = FALSE;

  012b3	8b 45 fc	 mov	 eax, DWORD PTR _this$[ebp]
  012b6	c6 80 8c 00 00
	00 00		 mov	 BYTE PTR [eax+140], 0

; 429  : 		ReleaseCapture();											//释放鼠标捕捉

  012bd	8b f4		 mov	 esi, esp
  012bf	ff 15 00 00 00
	00		 call	 DWORD PTR __imp__ReleaseCapture@0
  012c5	3b f4		 cmp	 esi, esp
  012c7	e8 00 00 00 00	 call	 __RTC_CheckEsp

; 430  : 		MouseLeave();												//调用mouseleave()函数

  012cc	8b 4d fc	 mov	 ecx, DWORD PTR _this$[ebp]
  012cf	e8 00 00 00 00	 call	 ?MouseLeave@CStaticText@@AAEXXZ ; CStaticText::MouseLeave

; 431  : 		return;

  012d4	eb 43		 jmp	 SHORT $L187595
$L187602:

; 432  : 	}
; 433  : 
; 434  : 	//如果鼠标在窗口内且已经被捕捉则返回
; 435  : 	if (!mbCaptured)

  012d6	8b 4d fc	 mov	 ecx, DWORD PTR _this$[ebp]
  012d9	0f b6 91 8c 00
	00 00		 movzx	 edx, BYTE PTR [ecx+140]
  012e0	85 d2		 test	 edx, edx
  012e2	75 35		 jne	 SHORT $L187595

; 436  : 	{
; 437  : 		mbCaptured = TRUE;

  012e4	8b 45 fc	 mov	 eax, DWORD PTR _this$[ebp]
  012e7	c6 80 8c 00 00
	00 01		 mov	 BYTE PTR [eax+140], 1

; 438  : 		MouseEnter();												//调用MouseEnter()函数

  012ee	8b 4d fc	 mov	 ecx, DWORD PTR _this$[ebp]
  012f1	e8 00 00 00 00	 call	 ?MouseEnter@CStaticText@@AAEXXZ ; CStaticText::MouseEnter

; 439  : 		ReleaseCapture();											//释放鼠标捕捉

  012f6	8b f4		 mov	 esi, esp
  012f8	ff 15 00 00 00
	00		 call	 DWORD PTR __imp__ReleaseCapture@0
  012fe	3b f4		 cmp	 esi, esp
  01300	e8 00 00 00 00	 call	 __RTC_CheckEsp

; 440  : 		CStatic::OnMouseMove(nFlags, point);						//调用基类响应函数

  01305	8b 4d 10	 mov	 ecx, DWORD PTR _point$[ebp+4]
  01308	51		 push	 ecx
  01309	8b 55 0c	 mov	 edx, DWORD PTR _point$[ebp]
  0130c	52		 push	 edx
  0130d	8b 45 08	 mov	 eax, DWORD PTR _nFlags$[ebp]
  01310	50		 push	 eax
  01311	8b 4d fc	 mov	 ecx, DWORD PTR _this$[ebp]
  01314	e8 00 00 00 00	 call	 ?OnMouseMove@CWnd@@IAEXIVCPoint@@@Z ; CWnd::OnMouseMove
$L187595:

; 441  : 	}
; 442  : }

  01319	52		 push	 edx
  0131a	8b cd		 mov	 ecx, ebp
  0131c	50		 push	 eax
  0131d	8d 15 00 00 00
	00		 lea	 edx, DWORD PTR $L188290
  01323	e8 00 00 00 00	 call	 @_RTC_CheckStackVars@8
  01328	58		 pop	 eax
  01329	5a		 pop	 edx
  0132a	5f		 pop	 edi
  0132b	5e		 pop	 esi
  0132c	83 c4 2c	 add	 esp, 44			; 0000002cH
  0132f	3b ec		 cmp	 ebp, esp
  01331	e8 00 00 00 00	 call	 __RTC_CheckEsp
  01336	8b e5		 mov	 esp, ebp
  01338	5d		 pop	 ebp
  01339	c2 0c 00	 ret	 12			; 0000000cH
$L188290:
  0133c	02 00 00 00	 DD	 2
  01340	00 00 00 00	 DD	 $L188289
$L188289:
  01344	f0 ff ff ff	 DD	 -16			; fffffff0H
  01348	08 00 00 00	 DD	 8
  0134c	00 00 00 00	 DD	 $L188287
  01350	d8 ff ff ff	 DD	 -40			; ffffffd8H
  01354	10 00 00 00	 DD	 16			; 00000010H
  01358	00 00 00 00	 DD	 $L188288
$L188288:
  0135c	72		 DB	 114			; 00000072H
  0135d	65		 DB	 101			; 00000065H
  0135e	63		 DB	 99			; 00000063H
  0135f	74		 DB	 116			; 00000074H
  01360	00		 DB	 0
$L188287:
  01361	6d		 DB	 109			; 0000006dH
  01362	70		 DB	 112			; 00000070H
  01363	6f		 DB	 111			; 0000006fH
  01364	69		 DB	 105			; 00000069H
  01365	6e		 DB	 110			; 0000006eH
  01366	74		 DB	 116			; 00000074H
  01367	00		 DB	 0
?OnMouseMove@CStaticText@@IAEXIVCPoint@@@Z ENDP		; CStaticText::OnMouseMove
; Function compile flags: /Odt /RTCsu
_this$ = -4						; size = 4
?MouseLeave@CStaticText@@AAEXXZ PROC NEAR		; CStaticText::MouseLeave
; _this$ = ecx

; 444  : {

  01370	55		 push	 ebp
  01371	8b ec		 mov	 ebp, esp
  01373	51		 push	 ecx
  01374	c7 45 fc cc cc
	cc cc		 mov	 DWORD PTR [ebp-4], -858993460 ; ccccccccH
  0137b	89 4d fc	 mov	 DWORD PTR _this$[ebp], ecx

; 445  : 	mbMouseOver = false;

  0137e	8b 45 fc	 mov	 eax, DWORD PTR _this$[ebp]
  01381	c6 80 8e 00 00
	00 00		 mov	 BYTE PTR [eax+142], 0

; 446  : 	//InvalidateBack();
; 447  : }

  01388	8b e5		 mov	 esp, ebp
  0138a	5d		 pop	 ebp
  0138b	c3		 ret	 0
?MouseLeave@CStaticText@@AAEXXZ ENDP			; CStaticText::MouseLeave
; Function compile flags: /Odt /RTCsu
_this$ = -4						; size = 4
?MouseEnter@CStaticText@@AAEXXZ PROC NEAR		; CStaticText::MouseEnter
; _this$ = ecx

; 449  : {

  01390	55		 push	 ebp
  01391	8b ec		 mov	 ebp, esp
  01393	51		 push	 ecx
  01394	c7 45 fc cc cc
	cc cc		 mov	 DWORD PTR [ebp-4], -858993460 ; ccccccccH
  0139b	89 4d fc	 mov	 DWORD PTR _this$[ebp], ecx

; 450  : 	mbMouseOver = true;												//调用MouseEnter()函数

  0139e	8b 45 fc	 mov	 eax, DWORD PTR _this$[ebp]
  013a1	c6 80 8e 00 00
	00 01		 mov	 BYTE PTR [eax+142], 1

; 451  : 	InvalidateBack();

  013a8	8b 4d fc	 mov	 ecx, DWORD PTR _this$[ebp]
  013ab	e8 00 00 00 00	 call	 ?InvalidateBack@CStaticText@@AAEXXZ ; CStaticText::InvalidateBack

; 452  : }

  013b0	83 c4 04	 add	 esp, 4
  013b3	3b ec		 cmp	 ebp, esp
  013b5	e8 00 00 00 00	 call	 __RTC_CheckEsp
  013ba	8b e5		 mov	 esp, ebp
  013bc	5d		 pop	 ebp
  013bd	c3		 ret	 0
?MouseEnter@CStaticText@@AAEXXZ ENDP			; CStaticText::MouseEnter
_TEXT	ENDS
EXTRN	__imp__PostMessageA@16:NEAR
EXTRN	__imp__ShellExecuteA@24:NEAR
EXTRN	?OnLButtonDown@CWnd@@IAEXIVCPoint@@@Z:NEAR	; CWnd::OnLButtonDown
EXTRN	__imp_?GetLength@?$CSimpleStringT@D$00@ATL@@QBEHXZ:NEAR
EXTRN	__imp__GetWindowLongA@8:NEAR
; Function compile flags: /Odt /RTCsu
_TEXT	SEGMENT
_lhParent$ = -8						; size = 4
_this$ = -4						; size = 4
_nFlags$ = 8						; size = 4
_point$ = 12						; size = 8
?OnLButtonDown@CStaticText@@IAEXIVCPoint@@@Z PROC NEAR	; CStaticText::OnLButtonDown
; _this$ = ecx

; 457  : {

  013c0	55		 push	 ebp
  013c1	8b ec		 mov	 ebp, esp
  013c3	83 ec 08	 sub	 esp, 8
  013c6	56		 push	 esi
  013c7	57		 push	 edi
  013c8	c7 45 f8 cc cc
	cc cc		 mov	 DWORD PTR [ebp-8], -858993460 ; ccccccccH
  013cf	c7 45 fc cc cc
	cc cc		 mov	 DWORD PTR [ebp-4], -858993460 ; ccccccccH
  013d6	89 4d fc	 mov	 DWORD PTR _this$[ebp], ecx

; 458  : 	// TODO: 在此添加消息处理程序代码和/或调用默认值
; 459  : 
; 460  : 	HWND lhParent = NULL;

  013d9	c7 45 f8 00 00
	00 00		 mov	 DWORD PTR _lhParent$[ebp], 0

; 461  : 	if (GetParent() != NULL)

  013e0	8b 4d fc	 mov	 ecx, DWORD PTR _this$[ebp]
  013e3	e8 00 00 00 00	 call	 ?GetParent@CWnd@@QBEPAV1@XZ ; CWnd::GetParent
  013e8	85 c0		 test	 eax, eax
  013ea	74 12		 je	 SHORT $L187616

; 462  : 	{
; 463  : 		lhParent = GetParent()->GetSafeHwnd();

  013ec	8b 4d fc	 mov	 ecx, DWORD PTR _this$[ebp]
  013ef	e8 00 00 00 00	 call	 ?GetParent@CWnd@@QBEPAV1@XZ ; CWnd::GetParent
  013f4	8b c8		 mov	 ecx, eax
  013f6	e8 00 00 00 00	 call	 ?GetSafeHwnd@CWnd@@QBEPAUHWND__@@XZ ; CWnd::GetSafeHwnd
  013fb	89 45 f8	 mov	 DWORD PTR _lhParent$[ebp], eax
$L187616:

; 464  : 	}
; 465  : 	::PostMessage(lhParent, MSG_LABEL_MOUSEDOWN,::GetWindowLong(this->m_hWnd,GWL_ID ),0);

  013fe	8b f4		 mov	 esi, esp
  01400	6a 00		 push	 0
  01402	8b fc		 mov	 edi, esp
  01404	6a f4		 push	 -12			; fffffff4H
  01406	8b 45 fc	 mov	 eax, DWORD PTR _this$[ebp]
  01409	8b 48 20	 mov	 ecx, DWORD PTR [eax+32]
  0140c	51		 push	 ecx
  0140d	ff 15 00 00 00
	00		 call	 DWORD PTR __imp__GetWindowLongA@8
  01413	3b fc		 cmp	 edi, esp
  01415	e8 00 00 00 00	 call	 __RTC_CheckEsp
  0141a	50		 push	 eax
  0141b	68 21 4e 00 00	 push	 20001			; 00004e21H
  01420	8b 55 f8	 mov	 edx, DWORD PTR _lhParent$[ebp]
  01423	52		 push	 edx
  01424	ff 15 00 00 00
	00		 call	 DWORD PTR __imp__PostMessageA@16
  0142a	3b f4		 cmp	 esi, esp
  0142c	e8 00 00 00 00	 call	 __RTC_CheckEsp

; 466  : 
; 467  : 	if (mLinkText.GetLength() != 0 )											

  01431	8b 4d fc	 mov	 ecx, DWORD PTR _this$[ebp]
  01434	83 c1 74	 add	 ecx, 116		; 00000074H
  01437	8b f4		 mov	 esi, esp
  01439	ff 15 00 00 00
	00		 call	 DWORD PTR __imp_?GetLength@?$CSimpleStringT@D$00@ATL@@QBEHXZ
  0143f	3b f4		 cmp	 esi, esp
  01441	e8 00 00 00 00	 call	 __RTC_CheckEsp
  01446	85 c0		 test	 eax, eax
  01448	74 32		 je	 SHORT $L187617

; 468  : 		ShellExecute(NULL, "open", mLinkText,NULL, NULL, SW_SHOWNORMAL);  

  0144a	8b f4		 mov	 esi, esp
  0144c	6a 01		 push	 1
  0144e	6a 00		 push	 0
  01450	6a 00		 push	 0
  01452	8b 4d fc	 mov	 ecx, DWORD PTR _this$[ebp]
  01455	83 c1 74	 add	 ecx, 116		; 00000074H
  01458	8b fc		 mov	 edi, esp
  0145a	ff 15 00 00 00
	00		 call	 DWORD PTR __imp_??B?$CSimpleStringT@D$00@ATL@@QBEPBDXZ
  01460	3b fc		 cmp	 edi, esp
  01462	e8 00 00 00 00	 call	 __RTC_CheckEsp
  01467	50		 push	 eax
  01468	68 00 00 00 00	 push	 OFFSET FLAT:$SG187618
  0146d	6a 00		 push	 0
  0146f	ff 15 00 00 00
	00		 call	 DWORD PTR __imp__ShellExecuteA@24
  01475	3b f4		 cmp	 esi, esp
  01477	e8 00 00 00 00	 call	 __RTC_CheckEsp
$L187617:

; 469  : 	CStatic::OnLButtonDown(nFlags, point);

  0147c	8b 45 10	 mov	 eax, DWORD PTR _point$[ebp+4]
  0147f	50		 push	 eax
  01480	8b 4d 0c	 mov	 ecx, DWORD PTR _point$[ebp]
  01483	51		 push	 ecx
  01484	8b 55 08	 mov	 edx, DWORD PTR _nFlags$[ebp]
  01487	52		 push	 edx
  01488	8b 4d fc	 mov	 ecx, DWORD PTR _this$[ebp]
  0148b	e8 00 00 00 00	 call	 ?OnLButtonDown@CWnd@@IAEXIVCPoint@@@Z ; CWnd::OnLButtonDown

; 470  : }

  01490	5f		 pop	 edi
  01491	5e		 pop	 esi
  01492	83 c4 08	 add	 esp, 8
  01495	3b ec		 cmp	 ebp, esp
  01497	e8 00 00 00 00	 call	 __RTC_CheckEsp
  0149c	8b e5		 mov	 esp, ebp
  0149e	5d		 pop	 ebp
  0149f	c2 0c 00	 ret	 12			; 0000000cH
?OnLButtonDown@CStaticText@@IAEXIVCPoint@@@Z ENDP	; CStaticText::OnLButtonDown
_TEXT	ENDS
EXTRN	?OnLButtonUp@CWnd@@IAEXIVCPoint@@@Z:NEAR	; CWnd::OnLButtonUp
; Function compile flags: /Odt /RTCsu
_TEXT	SEGMENT
_lhParent$ = -8						; size = 4
_this$ = -4						; size = 4
_nFlags$ = 8						; size = 4
_point$ = 12						; size = 8
?OnLButtonUp@CStaticText@@IAEXIVCPoint@@@Z PROC NEAR	; CStaticText::OnLButtonUp
; _this$ = ecx

; 474  : {

  014b0	55		 push	 ebp
  014b1	8b ec		 mov	 ebp, esp
  014b3	83 ec 08	 sub	 esp, 8
  014b6	56		 push	 esi
  014b7	c7 45 f8 cc cc
	cc cc		 mov	 DWORD PTR [ebp-8], -858993460 ; ccccccccH
  014be	c7 45 fc cc cc
	cc cc		 mov	 DWORD PTR [ebp-4], -858993460 ; ccccccccH
  014c5	89 4d fc	 mov	 DWORD PTR _this$[ebp], ecx

; 475  : 	// TODO: 在此添加消息处理程序代码和/或调用默认值
; 476  : 
; 477  : 	HWND lhParent = NULL;

  014c8	c7 45 f8 00 00
	00 00		 mov	 DWORD PTR _lhParent$[ebp], 0

; 478  : 	if (GetParent() != NULL)

  014cf	8b 4d fc	 mov	 ecx, DWORD PTR _this$[ebp]
  014d2	e8 00 00 00 00	 call	 ?GetParent@CWnd@@QBEPAV1@XZ ; CWnd::GetParent
  014d7	85 c0		 test	 eax, eax
  014d9	74 12		 je	 SHORT $L187625

; 479  : 	{
; 480  : 		lhParent = GetParent()->GetSafeHwnd();

  014db	8b 4d fc	 mov	 ecx, DWORD PTR _this$[ebp]
  014de	e8 00 00 00 00	 call	 ?GetParent@CWnd@@QBEPAV1@XZ ; CWnd::GetParent
  014e3	8b c8		 mov	 ecx, eax
  014e5	e8 00 00 00 00	 call	 ?GetSafeHwnd@CWnd@@QBEPAUHWND__@@XZ ; CWnd::GetSafeHwnd
  014ea	89 45 f8	 mov	 DWORD PTR _lhParent$[ebp], eax
$L187625:

; 481  : 	}
; 482  : 	::PostMessage(lhParent, MSG_LABEL_MOUSEUP,0,0);

  014ed	8b f4		 mov	 esi, esp
  014ef	6a 00		 push	 0
  014f1	6a 00		 push	 0
  014f3	68 22 4e 00 00	 push	 20002			; 00004e22H
  014f8	8b 45 f8	 mov	 eax, DWORD PTR _lhParent$[ebp]
  014fb	50		 push	 eax
  014fc	ff 15 00 00 00
	00		 call	 DWORD PTR __imp__PostMessageA@16
  01502	3b f4		 cmp	 esi, esp
  01504	e8 00 00 00 00	 call	 __RTC_CheckEsp

; 483  : 
; 484  : 	
; 485  : 
; 486  : 	CStatic::OnLButtonUp(nFlags, point);

  01509	8b 4d 10	 mov	 ecx, DWORD PTR _point$[ebp+4]
  0150c	51		 push	 ecx
  0150d	8b 55 0c	 mov	 edx, DWORD PTR _point$[ebp]
  01510	52		 push	 edx
  01511	8b 45 08	 mov	 eax, DWORD PTR _nFlags$[ebp]
  01514	50		 push	 eax
  01515	8b 4d fc	 mov	 ecx, DWORD PTR _this$[ebp]
  01518	e8 00 00 00 00	 call	 ?OnLButtonUp@CWnd@@IAEXIVCPoint@@@Z ; CWnd::OnLButtonUp

; 487  : }

  0151d	5e		 pop	 esi
  0151e	83 c4 08	 add	 esp, 8
  01521	3b ec		 cmp	 ebp, esp
  01523	e8 00 00 00 00	 call	 __RTC_CheckEsp
  01528	8b e5		 mov	 esp, ebp
  0152a	5d		 pop	 ebp
  0152b	c2 0c 00	 ret	 12			; 0000000cH
?OnLButtonUp@CStaticText@@IAEXIVCPoint@@@Z ENDP		; CStaticText::OnLButtonUp
_TEXT	ENDS
PUBLIC	?SetTextFormat@CStaticText@@QAEXI@Z		; CStaticText::SetTextFormat
; Function compile flags: /Odt /RTCsu
_TEXT	SEGMENT
_this$ = -4						; size = 4
_anFormat$ = 8						; size = 4
?SetTextFormat@CStaticText@@QAEXI@Z PROC NEAR		; CStaticText::SetTextFormat
; _this$ = ecx

; 489  : {

  01530	55		 push	 ebp
  01531	8b ec		 mov	 ebp, esp
  01533	51		 push	 ecx
  01534	c7 45 fc cc cc
	cc cc		 mov	 DWORD PTR [ebp-4], -858993460 ; ccccccccH
  0153b	89 4d fc	 mov	 DWORD PTR _this$[ebp], ecx

; 490  : 	mFormat = anFormat;

  0153e	8b 45 fc	 mov	 eax, DWORD PTR _this$[ebp]
  01541	8b 4d 08	 mov	 ecx, DWORD PTR _anFormat$[ebp]
  01544	89 88 90 00 00
	00		 mov	 DWORD PTR [eax+144], ecx

; 491  : }

  0154a	8b e5		 mov	 esp, ebp
  0154c	5d		 pop	 ebp
  0154d	c2 04 00	 ret	 4
?SetTextFormat@CStaticText@@QAEXI@Z ENDP		; CStaticText::SetTextFormat
_TEXT	ENDS
PUBLIC	?SetTextWidth@CStaticText@@QAEXI@Z		; CStaticText::SetTextWidth
; Function compile flags: /Odt /RTCsu
_TEXT	SEGMENT
_this$ = -4						; size = 4
_anWidth$ = 8						; size = 4
?SetTextWidth@CStaticText@@QAEXI@Z PROC NEAR		; CStaticText::SetTextWidth
; _this$ = ecx

; 493  : {

  01550	55		 push	 ebp
  01551	8b ec		 mov	 ebp, esp
  01553	51		 push	 ecx
  01554	c7 45 fc cc cc
	cc cc		 mov	 DWORD PTR [ebp-4], -858993460 ; ccccccccH
  0155b	89 4d fc	 mov	 DWORD PTR _this$[ebp], ecx

; 494  : 	mWidth = anWidth;

  0155e	8b 45 fc	 mov	 eax, DWORD PTR _this$[ebp]
  01561	8b 4d 08	 mov	 ecx, DWORD PTR _anWidth$[ebp]
  01564	89 88 94 00 00
	00		 mov	 DWORD PTR [eax+148], ecx

; 495  : }

  0156a	8b e5		 mov	 esp, ebp
  0156c	5d		 pop	 ebp
  0156d	c2 04 00	 ret	 4
?SetTextWidth@CStaticText@@QAEXI@Z ENDP			; CStaticText::SetTextWidth
_TEXT	ENDS
EXTRN	__imp_?GetManager@?$CSimpleStringT@D$00@ATL@@QBEPAUIAtlStringMgr@2@XZ:NEAR
EXTRN	__imp_?StringLength@?$CSimpleStringT@D$00@ATL@@SAHPBD@Z:NEAR
EXTRN	__imp_?Concatenate@?$CSimpleStringT@D$00@ATL@@KAXAAV12@PBDH1H@Z:NEAR
EXTRN	__imp_??0?$CStringT@DV?$StrTraitMFC_DLL@DV?$ChTraitsCRT@D@ATL@@@@@ATL@@QAE@PAUIAtlStringMgr@1@@Z:NEAR
;	COMDAT xdata$x
; File d:\program files (x86)\microsoft visual studio .net 2003\vc7\atlmfc\include\cstringt.h
xdata$x	SEGMENT
$T188308 DD	0ffffffffH
	DD	FLAT:$L188298
$T188303 DD	019930520H
	DD	01H
	DD	FLAT:$T188308
	DD	2 DUP(00H)
	DD	2 DUP(00H)
; Function compile flags: /Odt /RTCsu
xdata$x	ENDS
;	COMDAT ??HATL@@YA?AV?$CStringT@DV?$StrTraitMFC_DLL@DV?$ChTraitsCRT@D@ATL@@@@@0@PBDABV10@@Z
_TEXT	SEGMENT
$T188300 = -28						; size = 4
_strResult$ = -20					; size = 4
__$EHRec$ = -12						; size = 12
___$ReturnUdt$ = 8					; size = 4
_psz1$ = 12						; size = 4
_str2$ = 16						; size = 4
??HATL@@YA?AV?$CStringT@DV?$StrTraitMFC_DLL@DV?$ChTraitsCRT@D@ATL@@@@@0@PBDABV10@@Z PROC NEAR ; ATL::operator+, COMDAT

; 2032 : 	{

  00000	55		 push	 ebp
  00001	8b ec		 mov	 ebp, esp
  00003	6a ff		 push	 -1
  00005	68 00 00 00 00	 push	 __ehhandler$??HATL@@YA?AV?$CStringT@DV?$StrTraitMFC_DLL@DV?$ChTraitsCRT@D@ATL@@@@@0@PBDABV10@@Z
  0000a	64 a1 00 00 00
	00		 mov	 eax, DWORD PTR fs:__except_list
  00010	50		 push	 eax
  00011	64 89 25 00 00
	00 00		 mov	 DWORD PTR fs:__except_list, esp
  00018	83 ec 10	 sub	 esp, 16			; 00000010H
  0001b	56		 push	 esi
  0001c	57		 push	 edi
  0001d	b8 cc cc cc cc	 mov	 eax, -858993460		; ccccccccH
  00022	89 45 e4	 mov	 DWORD PTR [ebp-28], eax
  00025	89 45 e8	 mov	 DWORD PTR [ebp-24], eax
  00028	89 45 ec	 mov	 DWORD PTR [ebp-20], eax
  0002b	89 45 f0	 mov	 DWORD PTR [ebp-16], eax
  0002e	c7 45 e4 00 00
	00 00		 mov	 DWORD PTR $T188300[ebp], 0

; 2033 : 		CStringT strResult( str2.GetManager() );

  00035	8b f4		 mov	 esi, esp
  00037	8b 4d 10	 mov	 ecx, DWORD PTR _str2$[ebp]
  0003a	ff 15 00 00 00
	00		 call	 DWORD PTR __imp_?GetManager@?$CSimpleStringT@D$00@ATL@@QBEPAUIAtlStringMgr@2@XZ
  00040	3b f4		 cmp	 esi, esp
  00042	e8 00 00 00 00	 call	 __RTC_CheckEsp
  00047	8b f4		 mov	 esi, esp
  00049	50		 push	 eax
  0004a	8d 4d ec	 lea	 ecx, DWORD PTR _strResult$[ebp]
  0004d	ff 15 00 00 00
	00		 call	 DWORD PTR __imp_??0?$CStringT@DV?$StrTraitMFC_DLL@DV?$ChTraitsCRT@D@ATL@@@@@ATL@@QAE@PAUIAtlStringMgr@1@@Z
  00053	3b f4		 cmp	 esi, esp
  00055	e8 00 00 00 00	 call	 __RTC_CheckEsp
  0005a	c7 45 fc 00 00
	00 00		 mov	 DWORD PTR __$EHRec$[ebp+8], 0

; 2034 : 
; 2035 : 		Concatenate( strResult, psz1, StringLength( psz1 ), str2, str2.GetLength() );

  00061	8b f4		 mov	 esi, esp
  00063	8b 4d 10	 mov	 ecx, DWORD PTR _str2$[ebp]
  00066	ff 15 00 00 00
	00		 call	 DWORD PTR __imp_?GetLength@?$CSimpleStringT@D$00@ATL@@QBEHXZ
  0006c	3b f4		 cmp	 esi, esp
  0006e	e8 00 00 00 00	 call	 __RTC_CheckEsp
  00073	8b f4		 mov	 esi, esp
  00075	50		 push	 eax
  00076	8b fc		 mov	 edi, esp
  00078	8b 4d 10	 mov	 ecx, DWORD PTR _str2$[ebp]
  0007b	ff 15 00 00 00
	00		 call	 DWORD PTR __imp_??B?$CSimpleStringT@D$00@ATL@@QBEPBDXZ
  00081	3b fc		 cmp	 edi, esp
  00083	e8 00 00 00 00	 call	 __RTC_CheckEsp
  00088	50		 push	 eax
  00089	8b fc		 mov	 edi, esp
  0008b	8b 45 0c	 mov	 eax, DWORD PTR _psz1$[ebp]
  0008e	50		 push	 eax
  0008f	ff 15 00 00 00
	00		 call	 DWORD PTR __imp_?StringLength@?$CSimpleStringT@D$00@ATL@@SAHPBD@Z
  00095	83 c4 04	 add	 esp, 4
  00098	3b fc		 cmp	 edi, esp
  0009a	e8 00 00 00 00	 call	 __RTC_CheckEsp
  0009f	50		 push	 eax
  000a0	8b 4d 0c	 mov	 ecx, DWORD PTR _psz1$[ebp]
  000a3	51		 push	 ecx
  000a4	8d 55 ec	 lea	 edx, DWORD PTR _strResult$[ebp]
  000a7	52		 push	 edx
  000a8	ff 15 00 00 00
	00		 call	 DWORD PTR __imp_?Concatenate@?$CSimpleStringT@D$00@ATL@@KAXAAV12@PBDH1H@Z
  000ae	83 c4 14	 add	 esp, 20			; 00000014H
  000b1	3b f4		 cmp	 esi, esp
  000b3	e8 00 00 00 00	 call	 __RTC_CheckEsp

; 2036 : 
; 2037 : 		return( strResult );

  000b8	8b f4		 mov	 esi, esp
  000ba	8d 45 ec	 lea	 eax, DWORD PTR _strResult$[ebp]
  000bd	50		 push	 eax
  000be	8b 4d 08	 mov	 ecx, DWORD PTR ___$ReturnUdt$[ebp]
  000c1	ff 15 00 00 00
	00		 call	 DWORD PTR __imp_??0?$CStringT@DV?$StrTraitMFC_DLL@DV?$ChTraitsCRT@D@ATL@@@@@ATL@@QAE@ABV01@@Z
  000c7	3b f4		 cmp	 esi, esp
  000c9	e8 00 00 00 00	 call	 __RTC_CheckEsp
  000ce	8b 4d e4	 mov	 ecx, DWORD PTR $T188300[ebp]
  000d1	83 c9 01	 or	 ecx, 1
  000d4	89 4d e4	 mov	 DWORD PTR $T188300[ebp], ecx
  000d7	c7 45 fc ff ff
	ff ff		 mov	 DWORD PTR __$EHRec$[ebp+8], -1
  000de	8b f4		 mov	 esi, esp
  000e0	8d 4d ec	 lea	 ecx, DWORD PTR _strResult$[ebp]
  000e3	ff 15 00 00 00
	00		 call	 DWORD PTR __imp_??1?$CStringT@DV?$StrTraitMFC_DLL@DV?$ChTraitsCRT@D@ATL@@@@@ATL@@QAE@XZ
  000e9	3b f4		 cmp	 esi, esp
  000eb	e8 00 00 00 00	 call	 __RTC_CheckEsp
  000f0	8b 45 08	 mov	 eax, DWORD PTR ___$ReturnUdt$[ebp]

; 2038 : 	}

  000f3	52		 push	 edx
  000f4	8b cd		 mov	 ecx, ebp
  000f6	50		 push	 eax
  000f7	8d 15 00 00 00
	00		 lea	 edx, DWORD PTR $L188307
  000fd	e8 00 00 00 00	 call	 @_RTC_CheckStackVars@8
  00102	58		 pop	 eax
  00103	5a		 pop	 edx
  00104	8b 4d f4	 mov	 ecx, DWORD PTR __$EHRec$[ebp]
  00107	64 89 0d 00 00
	00 00		 mov	 DWORD PTR fs:__except_list, ecx
  0010e	5f		 pop	 edi
  0010f	5e		 pop	 esi
  00110	83 c4 1c	 add	 esp, 28			; 0000001cH
  00113	3b ec		 cmp	 ebp, esp
  00115	e8 00 00 00 00	 call	 __RTC_CheckEsp
  0011a	8b e5		 mov	 esp, ebp
  0011c	5d		 pop	 ebp
  0011d	c3		 ret	 0
$L188307:
  0011e	01 00 00 00	 DD	 1
  00122	00 00 00 00	 DD	 $L188306
$L188306:
  00126	ec ff ff ff	 DD	 -20			; ffffffecH
  0012a	04 00 00 00	 DD	 4
  0012e	00 00 00 00	 DD	 $L188304
$L188304:
  00132	73		 DB	 115			; 00000073H
  00133	74		 DB	 116			; 00000074H
  00134	72		 DB	 114			; 00000072H
  00135	52		 DB	 82			; 00000052H
  00136	65		 DB	 101			; 00000065H
  00137	73		 DB	 115			; 00000073H
  00138	75		 DB	 117			; 00000075H
  00139	6c		 DB	 108			; 0000006cH
  0013a	74		 DB	 116			; 00000074H
  0013b	00		 DB	 0
_TEXT	ENDS
;	COMDAT text$x
text$x	SEGMENT
$L188298:
  00000	8b f4		 mov	 esi, esp
  00002	8d 4d ec	 lea	 ecx, DWORD PTR _strResult$[ebp]
  00005	ff 15 00 00 00
	00		 call	 DWORD PTR __imp_??1?$CStringT@DV?$StrTraitMFC_DLL@DV?$ChTraitsCRT@D@ATL@@@@@ATL@@QAE@XZ
  0000b	3b f4		 cmp	 esi, esp
  0000d	e9 00 00 00 00	 jmp	 __RTC_CheckEsp
__ehhandler$??HATL@@YA?AV?$CStringT@DV?$StrTraitMFC_DLL@DV?$ChTraitsCRT@D@ATL@@@@@0@PBDABV10@@Z:
  00012	b8 00 00 00 00	 mov	 eax, OFFSET FLAT:$T188303
  00017	e9 00 00 00 00	 jmp	 ___CxxFrameHandler
text$x	ENDS
??HATL@@YA?AV?$CStringT@DV?$StrTraitMFC_DLL@DV?$ChTraitsCRT@D@ATL@@@@@0@PBDABV10@@Z ENDP ; ATL::operator+
EXTRN	__imp_?Compare@?$CStringT@DV?$StrTraitMFC_DLL@DV?$ChTraitsCRT@D@ATL@@@@@ATL@@QBEHPBD@Z:NEAR
; Function compile flags: /Odt /RTCsu
;	COMDAT ??9ATL@@YA_NABV?$CStringT@DV?$StrTraitMFC_DLL@DV?$ChTraitsCRT@D@ATL@@@@@0@0@Z
_TEXT	SEGMENT
_str1$ = 8						; size = 4
_str2$ = 12						; size = 4
??9ATL@@YA_NABV?$CStringT@DV?$StrTraitMFC_DLL@DV?$ChTraitsCRT@D@ATL@@@@@0@0@Z PROC NEAR ; ATL::operator!=, COMDAT

; 2115 : 	{

  00000	55		 push	 ebp
  00001	8b ec		 mov	 ebp, esp
  00003	56		 push	 esi

; 2116 : 		return( str1.Compare( str2 ) != 0 );

  00004	8b f4		 mov	 esi, esp
  00006	8b 4d 0c	 mov	 ecx, DWORD PTR _str2$[ebp]
  00009	ff 15 00 00 00
	00		 call	 DWORD PTR __imp_??B?$CSimpleStringT@D$00@ATL@@QBEPBDXZ
  0000f	3b f4		 cmp	 esi, esp
  00011	e8 00 00 00 00	 call	 __RTC_CheckEsp
  00016	8b f4		 mov	 esi, esp
  00018	50		 push	 eax
  00019	8b 4d 08	 mov	 ecx, DWORD PTR _str1$[ebp]
  0001c	ff 15 00 00 00
	00		 call	 DWORD PTR __imp_?Compare@?$CStringT@DV?$StrTraitMFC_DLL@DV?$ChTraitsCRT@D@ATL@@@@@ATL@@QBEHPBD@Z
  00022	3b f4		 cmp	 esi, esp
  00024	e8 00 00 00 00	 call	 __RTC_CheckEsp
  00029	f7 d8		 neg	 eax
  0002b	1b c0		 sbb	 eax, eax
  0002d	f7 d8		 neg	 eax

; 2117 : 	}

  0002f	5e		 pop	 esi
  00030	3b ec		 cmp	 ebp, esp
  00032	e8 00 00 00 00	 call	 __RTC_CheckEsp
  00037	5d		 pop	 ebp
  00038	c3		 ret	 0
??9ATL@@YA_NABV?$CStringT@DV?$StrTraitMFC_DLL@DV?$ChTraitsCRT@D@ATL@@@@@0@0@Z ENDP ; ATL::operator!=
_TEXT	ENDS
END
