; Listing generated by Microsoft (R) Optimizing Compiler Version 13.10.3077 

	TITLE	.\src\LayoutMgr\ChangeColor\SubjectChildWnd.cpp
	.386P
include listing.inc
if @Version gt 510
.model FLAT
else
_TEXT	SEGMENT PARA USE32 PUBLIC 'CODE'
_TEXT	ENDS
_DATA	SEGMENT DWORD USE32 PUBLIC 'DATA'
_DATA	ENDS
CONST	SEGMENT DWORD USE32 PUBLIC 'CONST'
CONST	ENDS
_BSS	SEGMENT DWORD USE32 PUBLIC 'BSS'
_BSS	ENDS
$$SYMBOLS	SEGMENT BYTE USE32 'DEBSYM'
$$SYMBOLS	ENDS
_TLS	SEGMENT DWORD USE32 PUBLIC 'TLS'
_TLS	ENDS
;	COMDAT ??_C@_0EN@IBFBLEEG@D?3?2Program?5Files?5?$CIx86?$CJ?2Microsoft@
CONST	SEGMENT DWORD USE32 PUBLIC 'CONST'
CONST	ENDS
;	COMDAT ??_C@_0BI@GIMJKKKN@AtlIsValidString?$CI?5psz?5?$CJ?$AA@
CONST	SEGMENT DWORD USE32 PUBLIC 'CONST'
CONST	ENDS
;	COMDAT ??_C@_0BE@JONHPENG@map?1set?$DMT?$DO?5too?5long?$AA@
CONST	SEGMENT DWORD USE32 PUBLIC 'CONST'
CONST	ENDS
;	COMDAT ??_C@_0BB@MOGOBHAF@list?$DMT?$DO?5too?5long?$AA@
CONST	SEGMENT DWORD USE32 PUBLIC 'CONST'
CONST	ENDS
rdata$r	SEGMENT DWORD USE32 PUBLIC 'CONST'
rdata$r	ENDS
xdata$x	SEGMENT DWORD USE32 PUBLIC 'CONST'
xdata$x	ENDS
text$AFX_COL1	SEGMENT PARA USE32 PUBLIC ''
text$AFX_COL1	ENDS
text$yc	SEGMENT PARA USE32 PUBLIC 'CODE'
text$yc	ENDS
CRT$XCA	SEGMENT DWORD USE32 PUBLIC 'DATA'
CRT$XCA	ENDS
CRT$XCU	SEGMENT DWORD USE32 PUBLIC 'DATA'
CRT$XCU	ENDS
CRT$XCL	SEGMENT DWORD USE32 PUBLIC 'DATA'
CRT$XCL	ENDS
CRT$XCC	SEGMENT DWORD USE32 PUBLIC 'DATA'
CRT$XCC	ENDS
CRT$XCZ	SEGMENT DWORD USE32 PUBLIC 'DATA'
CRT$XCZ	ENDS
text$yd	SEGMENT PARA USE32 PUBLIC 'CODE'
text$yd	ENDS
ATL$__m	SEGMENT DWORD USE32 PUBLIC ''
ATL$__m	ENDS
ATL$__z	SEGMENT DWORD USE32 PUBLIC ''
ATL$__z	ENDS
ATL$__a	SEGMENT DWORD USE32 PUBLIC ''
ATL$__a	ENDS
;	COMDAT ??1CGdiPlusBitmap@CSkinButton@@UAE@XZ
_TEXT	SEGMENT PARA USE32 PUBLIC 'CODE'
_TEXT	ENDS
;	COMDAT ?Empty@CGdiPlusBitmap@CSkinButton@@QAEXXZ
_TEXT	SEGMENT PARA USE32 PUBLIC 'CODE'
_TEXT	ENDS
;	COMDAT ?Load@CGdiPlusBitmap@CSkinButton@@QAE_NPB_W@Z
_TEXT	SEGMENT PARA USE32 PUBLIC 'CODE'
_TEXT	ENDS
;	COMDAT ?SetErase@CSkinButton@@QAEX_N@Z
_TEXT	SEGMENT PARA USE32 PUBLIC 'CODE'
_TEXT	ENDS
;	COMDAT ?SetBitmap@CSkinButton@@QAEXPAVCBitmap@@@Z
_TEXT	SEGMENT PARA USE32 PUBLIC 'CODE'
_TEXT	ENDS
;	COMDAT ?SetSkinPath@CSkinButton@@QAEXV?$basic_string@DU?$char_traits@D@std@@V?$allocator@D@2@@std@@@Z
_TEXT	SEGMENT PARA USE32 PUBLIC 'CODE'
_TEXT	ENDS
;	COMDAT ?SetBottonType@CSkinButton@@QAEXI@Z
_TEXT	SEGMENT PARA USE32 PUBLIC 'CODE'
_TEXT	ENDS
;	COMDAT ?SetText@CSkinButton@@QAEXV?$CStringT@DV?$StrTraitMFC_DLL@DV?$ChTraitsCRT@D@ATL@@@@@ATL@@@Z
_TEXT	SEGMENT PARA USE32 PUBLIC 'CODE'
_TEXT	ENDS
;	COMDAT ?GetText@CSkinButton@@QBE?AV?$CStringT@DV?$StrTraitMFC_DLL@DV?$ChTraitsCRT@D@ATL@@@@@ATL@@XZ
_TEXT	SEGMENT PARA USE32 PUBLIC 'CODE'
_TEXT	ENDS
;	COMDAT ?GetBitmapEx@CSkinButton@@QBEPAVCBitmap@@XZ
_TEXT	SEGMENT PARA USE32 PUBLIC 'CODE'
_TEXT	ENDS
;	COMDAT ?GetSkinPath@CSkinButton@@QBE?AV?$CStringT@DV?$StrTraitMFC_DLL@DV?$ChTraitsCRT@D@ATL@@@@@ATL@@XZ
_TEXT	SEGMENT PARA USE32 PUBLIC 'CODE'
_TEXT	ENDS
;	COMDAT ?SetListener@CSkinButton@@QAEXPAVIEventListener@@@Z
_TEXT	SEGMENT PARA USE32 PUBLIC 'CODE'
_TEXT	ENDS
;	COMDAT ?SetSelected@CSkinButton@@QAEX_N@Z
_TEXT	SEGMENT PARA USE32 PUBLIC 'CODE'
_TEXT	ENDS
;	COMDAT ?GetSelected@CSkinButton@@QBE_NXZ
_TEXT	SEGMENT PARA USE32 PUBLIC 'CODE'
_TEXT	ENDS
;	COMDAT ??_GCGdiPlusBitmap@CSkinButton@@UAEPAXI@Z
_TEXT	SEGMENT PARA USE32 PUBLIC 'CODE'
_TEXT	ENDS
;	COMDAT ?OnCliekButton@IEventListener@@UAEXPAVCButton@@@Z
_TEXT	SEGMENT PARA USE32 PUBLIC 'CODE'
_TEXT	ENDS
;	COMDAT ?OnCliekSlide@IEventListener@@UAEXPAVCSliderCtrl@@@Z
_TEXT	SEGMENT PARA USE32 PUBLIC 'CODE'
_TEXT	ENDS
;	COMDAT ?OnSendChangeColor@IEventListener@@UAEXKI_N@Z
_TEXT	SEGMENT PARA USE32 PUBLIC 'CODE'
_TEXT	ENDS
;	COMDAT ?OnSendChangeSkin@IEventListener@@UAEXV?$CStringT@DV?$StrTraitMFC_DLL@DV?$ChTraitsCRT@D@ATL@@@@@ATL@@@Z
_TEXT	SEGMENT PARA USE32 PUBLIC 'CODE'
_TEXT	ENDS
;	COMDAT ?OnSendChangeSubject@IEventListener@@UAEXV?$CStringT@DV?$StrTraitMFC_DLL@DV?$ChTraitsCRT@D@ATL@@@@@ATL@@0@Z
_TEXT	SEGMENT PARA USE32 PUBLIC 'CODE'
_TEXT	ENDS
;	COMDAT ?OnChangeSkinAndSub@IEventListener@@UAEXABV?$CStringT@DV?$StrTraitMFC_DLL@DV?$ChTraitsCRT@D@ATL@@@@@ATL@@0@Z
_TEXT	SEGMENT PARA USE32 PUBLIC 'CODE'
_TEXT	ENDS
;	COMDAT ?OnStartDownSubject@IEventListener@@UAEXABV?$CStringT@DV?$StrTraitMFC_DLL@DV?$ChTraitsCRT@D@ATL@@@@@ATL@@@Z
_TEXT	SEGMENT PARA USE32 PUBLIC 'CODE'
_TEXT	ENDS
;	COMDAT ?OnFinishDownSubject@IEventListener@@UAEXH@Z
_TEXT	SEGMENT PARA USE32 PUBLIC 'CODE'
_TEXT	ENDS
;	COMDAT _$E5
text$yc	SEGMENT PARA USE32 PUBLIC 'CODE'
text$yc	ENDS
;	COMDAT ??1IData@@MAE@XZ
_TEXT	SEGMENT PARA USE32 PUBLIC 'CODE'
_TEXT	ENDS
;	COMDAT ?DataAppStart@IData@@UAEXXZ
_TEXT	SEGMENT PARA USE32 PUBLIC 'CODE'
_TEXT	ENDS
;	COMDAT ?DataAppExit@IData@@UAEXXZ
_TEXT	SEGMENT PARA USE32 PUBLIC 'CODE'
_TEXT	ENDS
;	COMDAT ??_GIData@@MAEPAXI@Z
_TEXT	SEGMENT PARA USE32 PUBLIC 'CODE'
_TEXT	ENDS
;	COMDAT ?SetMsg@CDialogMsg@@QAEXABV?$CStringT@DV?$StrTraitMFC_DLL@DV?$ChTraitsCRT@D@ATL@@@@@ATL@@@Z
_TEXT	SEGMENT PARA USE32 PUBLIC 'CODE'
_TEXT	ENDS
;	COMDAT ??1DIBINFO@@UAE@XZ
_TEXT	SEGMENT PARA USE32 PUBLIC 'CODE'
_TEXT	ENDS
;	COMDAT ??_GDIBINFO@@UAEPAXI@Z
_TEXT	SEGMENT PARA USE32 PUBLIC 'CODE'
_TEXT	ENDS
;	COMDAT ??1CGdiPlusBitmap@@UAE@XZ
_TEXT	SEGMENT PARA USE32 PUBLIC 'CODE'
_TEXT	ENDS
;	COMDAT ?Empty@CGdiPlusBitmap@@QAEXXZ
_TEXT	SEGMENT PARA USE32 PUBLIC 'CODE'
_TEXT	ENDS
;	COMDAT ?Load@CGdiPlusBitmap@@QAE_NPB_W@Z
_TEXT	SEGMENT PARA USE32 PUBLIC 'CODE'
_TEXT	ENDS
;	COMDAT ??_GCGdiPlusBitmap@@UAEPAXI@Z
_TEXT	SEGMENT PARA USE32 PUBLIC 'CODE'
_TEXT	ENDS
;	COMDAT ??1HTTPObserver@@UAE@XZ
_TEXT	SEGMENT PARA USE32 PUBLIC 'CODE'
_TEXT	ENDS
;	COMDAT ?HTTPOb_DownStart@HTTPObserver@@UAEXPBD0I@Z
_TEXT	SEGMENT PARA USE32 PUBLIC 'CODE'
_TEXT	ENDS
;	COMDAT ?HTTPOb_DownFinish@HTTPObserver@@UAEXPBD@Z
_TEXT	SEGMENT PARA USE32 PUBLIC 'CODE'
_TEXT	ENDS
;	COMDAT ?HTTPOb_DownFailed@HTTPObserver@@UAEXPBDW4HTTP_DOWN_FAILED_REASON@@@Z
_TEXT	SEGMENT PARA USE32 PUBLIC 'CODE'
_TEXT	ENDS
;	COMDAT ?HTTPOb_DownProgress@HTTPObserver@@UAEXPBDII@Z
_TEXT	SEGMENT PARA USE32 PUBLIC 'CODE'
_TEXT	ENDS
;	COMDAT ?HTTPOb_DownloadPause@HTTPObserver@@UAEXPBD@Z
_TEXT	SEGMENT PARA USE32 PUBLIC 'CODE'
_TEXT	ENDS
;	COMDAT ??_GHTTPObserver@@UAEPAXI@Z
_TEXT	SEGMENT PARA USE32 PUBLIC 'CODE'
_TEXT	ENDS
;	COMDAT ??1P2PObserver@@UAE@XZ
_TEXT	SEGMENT PARA USE32 PUBLIC 'CODE'
_TEXT	ENDS
;	COMDAT ?P2POb_DownStart@P2PObserver@@UAEXABV?$basic_string@DU?$char_traits@D@std@@V?$allocator@D@2@@std@@PBDI@Z
_TEXT	SEGMENT PARA USE32 PUBLIC 'CODE'
_TEXT	ENDS
;	COMDAT ?P2POb_DownFinish@P2PObserver@@UAEXABV?$basic_string@DU?$char_traits@D@std@@V?$allocator@D@2@@std@@@Z
_TEXT	SEGMENT PARA USE32 PUBLIC 'CODE'
_TEXT	ENDS
;	COMDAT ?P2POb_DownFailed@P2PObserver@@UAEXABV?$basic_string@DU?$char_traits@D@std@@V?$allocator@D@2@@std@@W4P2P_DOWN_FAILED_REASON@@@Z
_TEXT	SEGMENT PARA USE32 PUBLIC 'CODE'
_TEXT	ENDS
;	COMDAT ?P2POb_DownProgress@P2PObserver@@UAEXABV?$basic_string@DU?$char_traits@D@std@@V?$allocator@D@2@@std@@III@Z
_TEXT	SEGMENT PARA USE32 PUBLIC 'CODE'
_TEXT	ENDS
;	COMDAT ?P2POb_DownPause@P2PObserver@@UAEXABV?$basic_string@DU?$char_traits@D@std@@V?$allocator@D@2@@std@@@Z
_TEXT	SEGMENT PARA USE32 PUBLIC 'CODE'
_TEXT	ENDS
;	COMDAT ?P2POb_SigChange@P2PObserver@@UAEXABV?$basic_string@DU?$char_traits@D@std@@V?$allocator@D@2@@std@@0PBD@Z
_TEXT	SEGMENT PARA USE32 PUBLIC 'CODE'
_TEXT	ENDS
;	COMDAT ??_GP2PObserver@@UAEPAXI@Z
_TEXT	SEGMENT PARA USE32 PUBLIC 'CODE'
_TEXT	ENDS
;	COMDAT ?GetClsid@CShockwaveFlash@@QAEABU_GUID@@XZ
_TEXT	SEGMENT PARA USE32 PUBLIC 'CODE'
_TEXT	ENDS
;	COMDAT ??_GCSubjectChildWnd@@UAEPAXI@Z
_TEXT	SEGMENT PARA USE32 PUBLIC 'CODE'
_TEXT	ENDS
;	COMDAT ??0IEventListener@@QAE@XZ
_TEXT	SEGMENT PARA USE32 PUBLIC 'CODE'
_TEXT	ENDS
;	COMDAT ??1?$map@V?$CStringT@DV?$StrTraitMFC_DLL@DV?$ChTraitsCRT@D@ATL@@@@@ATL@@PAVCSkinButton@@U?$less@V?$CStringT@DV?$StrTraitMFC_DLL@DV?$ChTraitsCRT@D@ATL@@@@@ATL@@@std@@V?$allocator@U?$pair@$$CBV?$CStringT@DV?$StrTraitMFC_DLL@DV?$ChTraitsCRT@D@ATL@@@@@ATL@@PAVCSkinButton@@@std@@@5@@std@@QAE@XZ
_TEXT	SEGMENT PARA USE32 PUBLIC 'CODE'
_TEXT	ENDS
;	COMDAT ??1?$pair@V?$CStringT@DV?$StrTraitMFC_DLL@DV?$ChTraitsCRT@D@ATL@@@@@ATL@@PAVCSkinButton@@@std@@QAE@XZ
_TEXT	SEGMENT PARA USE32 PUBLIC 'CODE'
_TEXT	ENDS
;	COMDAT ??1?$pair@$$CBV?$CStringT@DV?$StrTraitMFC_DLL@DV?$ChTraitsCRT@D@ATL@@@@@ATL@@PAVCSkinButton@@@std@@QAE@XZ
_TEXT	SEGMENT PARA USE32 PUBLIC 'CODE'
_TEXT	ENDS
;	COMDAT ??HATL@@YA?AV?$CStringT@DV?$StrTraitMFC_DLL@DV?$ChTraitsCRT@D@ATL@@@@@0@ABV10@0@Z
_TEXT	SEGMENT PARA USE32 PUBLIC 'CODE'
_TEXT	ENDS
;	COMDAT ??HATL@@YA?AV?$CStringT@DV?$StrTraitMFC_DLL@DV?$ChTraitsCRT@D@ATL@@@@@0@ABV10@PBD@Z
_TEXT	SEGMENT PARA USE32 PUBLIC 'CODE'
_TEXT	ENDS
;	COMDAT ??HATL@@YA?AV?$CStringT@DV?$StrTraitMFC_DLL@DV?$ChTraitsCRT@D@ATL@@@@@0@PBDABV10@@Z
_TEXT	SEGMENT PARA USE32 PUBLIC 'CODE'
_TEXT	ENDS
;	COMDAT ??8ATL@@YA_NABV?$CStringT@DV?$StrTraitMFC_DLL@DV?$ChTraitsCRT@D@ATL@@@@@0@0@Z
_TEXT	SEGMENT PARA USE32 PUBLIC 'CODE'
_TEXT	ENDS
;	COMDAT ??8ATL@@YA_NABV?$CStringT@DV?$StrTraitMFC_DLL@DV?$ChTraitsCRT@D@ATL@@@@@0@PBD@Z
_TEXT	SEGMENT PARA USE32 PUBLIC 'CODE'
_TEXT	ENDS
;	COMDAT ??B?$CComPtrBase@UITypeInfo2@@@ATL@@QBEPAUITypeInfo2@@XZ
_TEXT	SEGMENT PARA USE32 PUBLIC 'CODE'
_TEXT	ENDS
;	COMDAT ?equal@?$istreambuf_iterator@DU?$char_traits@D@std@@@std@@QBE_NABV12@@Z
_TEXT	SEGMENT PARA USE32 PUBLIC 'CODE'
_TEXT	ENDS
;	COMDAT ?equal@?$istreambuf_iterator@_WU?$char_traits@_W@std@@@std@@QBE_NABV12@@Z
_TEXT	SEGMENT PARA USE32 PUBLIC 'CODE'
_TEXT	ENDS
;	COMDAT ??0?$list@PAVCSkinButton@@V?$allocator@PAVCSkinButton@@@std@@@std@@QAE@XZ
_TEXT	SEGMENT PARA USE32 PUBLIC 'CODE'
_TEXT	ENDS
;	COMDAT ??1?$list@PAVCSkinButton@@V?$allocator@PAVCSkinButton@@@std@@@std@@QAE@XZ
_TEXT	SEGMENT PARA USE32 PUBLIC 'CODE'
_TEXT	ENDS
;	COMDAT ?begin@?$list@PAVCSkinButton@@V?$allocator@PAVCSkinButton@@@std@@@std@@QAE?AViterator@12@XZ
_TEXT	SEGMENT PARA USE32 PUBLIC 'CODE'
_TEXT	ENDS
;	COMDAT ?end@?$list@PAVCSkinButton@@V?$allocator@PAVCSkinButton@@@std@@@std@@QAE?AViterator@12@XZ
_TEXT	SEGMENT PARA USE32 PUBLIC 'CODE'
_TEXT	ENDS
;	COMDAT ?size@?$list@PAVCSkinButton@@V?$allocator@PAVCSkinButton@@@std@@@std@@QBEIXZ
_TEXT	SEGMENT PARA USE32 PUBLIC 'CODE'
_TEXT	ENDS
;	COMDAT ?push_back@?$list@PAVCSkinButton@@V?$allocator@PAVCSkinButton@@@std@@@std@@QAEXABQAVCSkinButton@@@Z
_TEXT	SEGMENT PARA USE32 PUBLIC 'CODE'
_TEXT	ENDS
;	COMDAT ?insert@?$list@PAVCSkinButton@@V?$allocator@PAVCSkinButton@@@std@@@std@@QAE?AViterator@12@V312@ABQAVCSkinButton@@@Z
_TEXT	SEGMENT PARA USE32 PUBLIC 'CODE'
_TEXT	ENDS
;	COMDAT ?erase@?$list@PAVCSkinButton@@V?$allocator@PAVCSkinButton@@@std@@@std@@QAE?AViterator@12@V312@@Z
_TEXT	SEGMENT PARA USE32 PUBLIC 'CODE'
_TEXT	ENDS
;	COMDAT ?clear@?$list@PAVCSkinButton@@V?$allocator@PAVCSkinButton@@@std@@@std@@QAEXXZ
_TEXT	SEGMENT PARA USE32 PUBLIC 'CODE'
_TEXT	ENDS
;	COMDAT ??0iterator@?$list@PAVCSkinButton@@V?$allocator@PAVCSkinButton@@@std@@@std@@QAE@XZ
_TEXT	SEGMENT PARA USE32 PUBLIC 'CODE'
_TEXT	ENDS
;	COMDAT ??Diterator@?$list@PAVCSkinButton@@V?$allocator@PAVCSkinButton@@@std@@@std@@QBEAAPAVCSkinButton@@XZ
_TEXT	SEGMENT PARA USE32 PUBLIC 'CODE'
_TEXT	ENDS
;	COMDAT ??Eiterator@?$list@PAVCSkinButton@@V?$allocator@PAVCSkinButton@@@std@@@std@@QAEAAV012@XZ
_TEXT	SEGMENT PARA USE32 PUBLIC 'CODE'
_TEXT	ENDS
;	COMDAT ??Eiterator@?$list@PAVCSkinButton@@V?$allocator@PAVCSkinButton@@@std@@@std@@QAE?AV012@H@Z
_TEXT	SEGMENT PARA USE32 PUBLIC 'CODE'
_TEXT	ENDS
;	COMDAT ??8const_iterator@?$list@PAVCSkinButton@@V?$allocator@PAVCSkinButton@@@std@@@std@@QBE_NABV012@@Z
_TEXT	SEGMENT PARA USE32 PUBLIC 'CODE'
_TEXT	ENDS
;	COMDAT ??9const_iterator@?$list@PAVCSkinButton@@V?$allocator@PAVCSkinButton@@@std@@@std@@QBE_NABV012@@Z
_TEXT	SEGMENT PARA USE32 PUBLIC 'CODE'
_TEXT	ENDS
;	COMDAT ??0?$list@PAVCSubLabel@@V?$allocator@PAVCSubLabel@@@std@@@std@@QAE@XZ
_TEXT	SEGMENT PARA USE32 PUBLIC 'CODE'
_TEXT	ENDS
;	COMDAT ??1?$list@PAVCSubLabel@@V?$allocator@PAVCSubLabel@@@std@@@std@@QAE@XZ
_TEXT	SEGMENT PARA USE32 PUBLIC 'CODE'
_TEXT	ENDS
;	COMDAT ?begin@?$list@PAVCSubLabel@@V?$allocator@PAVCSubLabel@@@std@@@std@@QAE?AViterator@12@XZ
_TEXT	SEGMENT PARA USE32 PUBLIC 'CODE'
_TEXT	ENDS
;	COMDAT ?size@?$list@PAVCSubLabel@@V?$allocator@PAVCSubLabel@@@std@@@std@@QBEIXZ
_TEXT	SEGMENT PARA USE32 PUBLIC 'CODE'
_TEXT	ENDS
;	COMDAT ?push_back@?$list@PAVCSubLabel@@V?$allocator@PAVCSubLabel@@@std@@@std@@QAEXABQAVCSubLabel@@@Z
_TEXT	SEGMENT PARA USE32 PUBLIC 'CODE'
_TEXT	ENDS
;	COMDAT ?insert@?$list@PAVCSubLabel@@V?$allocator@PAVCSubLabel@@@std@@@std@@QAE?AViterator@12@V312@ABQAVCSubLabel@@@Z
_TEXT	SEGMENT PARA USE32 PUBLIC 'CODE'
_TEXT	ENDS
;	COMDAT ?erase@?$list@PAVCSubLabel@@V?$allocator@PAVCSubLabel@@@std@@@std@@QAE?AViterator@12@V312@@Z
_TEXT	SEGMENT PARA USE32 PUBLIC 'CODE'
_TEXT	ENDS
;	COMDAT ??0?$map@V?$CStringT@DV?$StrTraitMFC_DLL@DV?$ChTraitsCRT@D@ATL@@@@@ATL@@PAVCSkinButton@@U?$less@V?$CStringT@DV?$StrTraitMFC_DLL@DV?$ChTraitsCRT@D@ATL@@@@@ATL@@@std@@V?$allocator@U?$pair@$$CBV?$CStringT@DV?$StrTraitMFC_DLL@DV?$ChTraitsCRT@D@ATL@@@@@ATL@@PAVCSkinButton@@@std@@@5@@std@@QAE@XZ
_TEXT	SEGMENT PARA USE32 PUBLIC 'CODE'
_TEXT	ENDS
;	COMDAT ??1?$_Tree@V?$_Tmap_traits@V?$CStringT@DV?$StrTraitMFC_DLL@DV?$ChTraitsCRT@D@ATL@@@@@ATL@@PAVCSkinButton@@U?$less@V?$CStringT@DV?$StrTraitMFC_DLL@DV?$ChTraitsCRT@D@ATL@@@@@ATL@@@std@@V?$allocator@U?$pair@$$CBV?$CStringT@DV?$StrTraitMFC_DLL@DV?$ChTraitsCRT@D@ATL@@@@@ATL@@PAVCSkinButton@@@std@@@5@$0A@@std@@@std@@QAE@XZ
_TEXT	SEGMENT PARA USE32 PUBLIC 'CODE'
_TEXT	ENDS
;	COMDAT ?insert@?$_Tree@V?$_Tmap_traits@V?$CStringT@DV?$StrTraitMFC_DLL@DV?$ChTraitsCRT@D@ATL@@@@@ATL@@PAVCSkinButton@@U?$less@V?$CStringT@DV?$StrTraitMFC_DLL@DV?$ChTraitsCRT@D@ATL@@@@@ATL@@@std@@V?$allocator@U?$pair@$$CBV?$CStringT@DV?$StrTraitMFC_DLL@DV?$ChTraitsCRT@D@ATL@@@@@ATL@@PAVCSkinButton@@@std@@@5@$0A@@std@@@std@@QAE?AU?$pair@Viterator@?$_Tree@V?$_Tmap_traits@V?$CStringT@DV?$StrTraitMFC_DLL@DV?$ChTraitsCRT@D@ATL@@@@@ATL@@PAVCSkinButton@@U?$less@V?$CStringT@DV?$StrTraitMFC_DLL@DV?$ChTraitsCRT@D@ATL@@@@@ATL@@@std@@V?$allocator@U?$pair@$$CBV?$CStringT@DV?$StrTraitMFC_DLL@DV?$ChTraitsCRT@D@ATL@@@@@ATL@@PAVCSkinButton@@@std@@@5@$0A@@std@@@std@@_N@2@ABU?$pair@$$CBV?$CStringT@DV?$StrTraitMFC_DLL@DV?$ChTraitsCRT@D@ATL@@@@@ATL@@PAVCSkinButton@@@2@@Z
_TEXT	SEGMENT PARA USE32 PUBLIC 'CODE'
_TEXT	ENDS
;	COMDAT ?clear@?$_Tree@V?$_Tmap_traits@V?$CStringT@DV?$StrTraitMFC_DLL@DV?$ChTraitsCRT@D@ATL@@@@@ATL@@PAVCSkinButton@@U?$less@V?$CStringT@DV?$StrTraitMFC_DLL@DV?$ChTraitsCRT@D@ATL@@@@@ATL@@@std@@V?$allocator@U?$pair@$$CBV?$CStringT@DV?$StrTraitMFC_DLL@DV?$ChTraitsCRT@D@ATL@@@@@ATL@@PAVCSkinButton@@@std@@@5@$0A@@std@@@std@@QAEXXZ
_TEXT	SEGMENT PARA USE32 PUBLIC 'CODE'
_TEXT	ENDS
;	COMDAT ??Diterator@?$list@PAVCSubLabel@@V?$allocator@PAVCSubLabel@@@std@@@std@@QBEAAPAVCSubLabel@@XZ
_TEXT	SEGMENT PARA USE32 PUBLIC 'CODE'
_TEXT	ENDS
;	COMDAT ??Eiterator@?$list@PAVCSubLabel@@V?$allocator@PAVCSubLabel@@@std@@@std@@QAEAAV012@XZ
_TEXT	SEGMENT PARA USE32 PUBLIC 'CODE'
_TEXT	ENDS
;	COMDAT ??Eiterator@?$list@PAVCSubLabel@@V?$allocator@PAVCSubLabel@@@std@@@std@@QAE?AV012@H@Z
_TEXT	SEGMENT PARA USE32 PUBLIC 'CODE'
_TEXT	ENDS
;	COMDAT ??0?$pair@V?$CStringT@DV?$StrTraitMFC_DLL@DV?$ChTraitsCRT@D@ATL@@@@@ATL@@PAVCSkinButton@@@std@@QAE@XZ
_TEXT	SEGMENT PARA USE32 PUBLIC 'CODE'
_TEXT	ENDS
;	COMDAT ?_Nextnode@?$list@PAVCSkinButton@@V?$allocator@PAVCSkinButton@@@std@@@std@@KAAAPAU_Node@?$_List_nod@PAVCSkinButton@@V?$allocator@PAVCSkinButton@@@std@@@2@PAU342@@Z
_TEXT	SEGMENT PARA USE32 PUBLIC 'CODE'
_TEXT	ENDS
;	COMDAT ?_Prevnode@?$list@PAVCSkinButton@@V?$allocator@PAVCSkinButton@@@std@@@std@@KAAAPAU_Node@?$_List_nod@PAVCSkinButton@@V?$allocator@PAVCSkinButton@@@std@@@2@PAU342@@Z
_TEXT	SEGMENT PARA USE32 PUBLIC 'CODE'
_TEXT	ENDS
;	COMDAT ?_Insert@?$list@PAVCSkinButton@@V?$allocator@PAVCSkinButton@@@std@@@std@@QAEXViterator@12@ABQAVCSkinButton@@@Z
_TEXT	SEGMENT PARA USE32 PUBLIC 'CODE'
_TEXT	ENDS
;	COMDAT ?_Buynode@?$list@PAVCSkinButton@@V?$allocator@PAVCSkinButton@@@std@@@std@@IAEPAU_Node@?$_List_nod@PAVCSkinButton@@V?$allocator@PAVCSkinButton@@@std@@@2@XZ
_TEXT	SEGMENT PARA USE32 PUBLIC 'CODE'
_TEXT	ENDS
;	COMDAT ?_Tidy@?$list@PAVCSkinButton@@V?$allocator@PAVCSkinButton@@@std@@@std@@IAEXXZ
_TEXT	SEGMENT PARA USE32 PUBLIC 'CODE'
_TEXT	ENDS
;	COMDAT ??0?$_List_val@PAVCSkinButton@@V?$allocator@PAVCSkinButton@@@std@@@std@@IAE@V?$allocator@PAVCSkinButton@@@1@@Z
_TEXT	SEGMENT PARA USE32 PUBLIC 'CODE'
_TEXT	ENDS
;	COMDAT ??0?$allocator@PAVCSkinButton@@@std@@QAE@XZ
_TEXT	SEGMENT PARA USE32 PUBLIC 'CODE'
_TEXT	ENDS
;	COMDAT ?deallocate@?$allocator@U_Node@?$_List_nod@PAVCSkinButton@@V?$allocator@PAVCSkinButton@@@std@@@std@@@std@@QAEXPAU_Node@?$_List_nod@PAVCSkinButton@@V?$allocator@PAVCSkinButton@@@std@@@2@I@Z
_TEXT	SEGMENT PARA USE32 PUBLIC 'CODE'
_TEXT	ENDS
;	COMDAT ?destroy@?$allocator@U_Node@?$_List_nod@PAVCSkinButton@@V?$allocator@PAVCSkinButton@@@std@@@std@@@std@@QAEXPAU_Node@?$_List_nod@PAVCSkinButton@@V?$allocator@PAVCSkinButton@@@std@@@2@@Z
_TEXT	SEGMENT PARA USE32 PUBLIC 'CODE'
_TEXT	ENDS
;	COMDAT ??0iterator@?$list@PAVCSkinButton@@V?$allocator@PAVCSkinButton@@@std@@@std@@QAE@PAU_Node@?$_List_nod@PAVCSkinButton@@V?$allocator@PAVCSkinButton@@@std@@@2@@Z
_TEXT	SEGMENT PARA USE32 PUBLIC 'CODE'
_TEXT	ENDS
;	COMDAT ??Fiterator@?$list@PAVCSkinButton@@V?$allocator@PAVCSkinButton@@@std@@@std@@QAEAAV012@XZ
_TEXT	SEGMENT PARA USE32 PUBLIC 'CODE'
_TEXT	ENDS
;	COMDAT ??0const_iterator@?$list@PAVCSkinButton@@V?$allocator@PAVCSkinButton@@@std@@@std@@QAE@XZ
_TEXT	SEGMENT PARA USE32 PUBLIC 'CODE'
_TEXT	ENDS
;	COMDAT ??Dconst_iterator@?$list@PAVCSkinButton@@V?$allocator@PAVCSkinButton@@@std@@@std@@QBEABQAVCSkinButton@@XZ
_TEXT	SEGMENT PARA USE32 PUBLIC 'CODE'
_TEXT	ENDS
;	COMDAT ??Econst_iterator@?$list@PAVCSkinButton@@V?$allocator@PAVCSkinButton@@@std@@@std@@QAEAAV012@XZ
_TEXT	SEGMENT PARA USE32 PUBLIC 'CODE'
_TEXT	ENDS
;	COMDAT ?_Mynode@const_iterator@?$list@PAVCSkinButton@@V?$allocator@PAVCSkinButton@@@std@@@std@@QBEPAU_Node@?$_List_nod@PAVCSkinButton@@V?$allocator@PAVCSkinButton@@@std@@@3@XZ
_TEXT	SEGMENT PARA USE32 PUBLIC 'CODE'
_TEXT	ENDS
;	COMDAT ?_Nextnode@?$list@PAVCSubLabel@@V?$allocator@PAVCSubLabel@@@std@@@std@@KAAAPAU_Node@?$_List_nod@PAVCSubLabel@@V?$allocator@PAVCSubLabel@@@std@@@2@PAU342@@Z
_TEXT	SEGMENT PARA USE32 PUBLIC 'CODE'
_TEXT	ENDS
;	COMDAT ?_Prevnode@?$list@PAVCSubLabel@@V?$allocator@PAVCSubLabel@@@std@@@std@@KAAAPAU_Node@?$_List_nod@PAVCSubLabel@@V?$allocator@PAVCSubLabel@@@std@@@2@PAU342@@Z
_TEXT	SEGMENT PARA USE32 PUBLIC 'CODE'
_TEXT	ENDS
;	COMDAT ?end@?$list@PAVCSubLabel@@V?$allocator@PAVCSubLabel@@@std@@@std@@QAE?AViterator@12@XZ
_TEXT	SEGMENT PARA USE32 PUBLIC 'CODE'
_TEXT	ENDS
;	COMDAT ?_Insert@?$list@PAVCSubLabel@@V?$allocator@PAVCSubLabel@@@std@@@std@@QAEXViterator@12@ABQAVCSubLabel@@@Z
_TEXT	SEGMENT PARA USE32 PUBLIC 'CODE'
_TEXT	ENDS
;	COMDAT ?_Buynode@?$list@PAVCSubLabel@@V?$allocator@PAVCSubLabel@@@std@@@std@@IAEPAU_Node@?$_List_nod@PAVCSubLabel@@V?$allocator@PAVCSubLabel@@@std@@@2@XZ
_TEXT	SEGMENT PARA USE32 PUBLIC 'CODE'
_TEXT	ENDS
;	COMDAT ?_Tidy@?$list@PAVCSubLabel@@V?$allocator@PAVCSubLabel@@@std@@@std@@IAEXXZ
_TEXT	SEGMENT PARA USE32 PUBLIC 'CODE'
_TEXT	ENDS
;	COMDAT ??0?$_List_val@PAVCSubLabel@@V?$allocator@PAVCSubLabel@@@std@@@std@@IAE@V?$allocator@PAVCSubLabel@@@1@@Z
_TEXT	SEGMENT PARA USE32 PUBLIC 'CODE'
_TEXT	ENDS
;	COMDAT ??0?$allocator@PAVCSubLabel@@@std@@QAE@XZ
_TEXT	SEGMENT PARA USE32 PUBLIC 'CODE'
_TEXT	ENDS
;	COMDAT ?deallocate@?$allocator@U_Node@?$_List_nod@PAVCSubLabel@@V?$allocator@PAVCSubLabel@@@std@@@std@@@std@@QAEXPAU_Node@?$_List_nod@PAVCSubLabel@@V?$allocator@PAVCSubLabel@@@std@@@2@I@Z
_TEXT	SEGMENT PARA USE32 PUBLIC 'CODE'
_TEXT	ENDS
;	COMDAT ?destroy@?$allocator@U_Node@?$_List_nod@PAVCSubLabel@@V?$allocator@PAVCSubLabel@@@std@@@std@@@std@@QAEXPAU_Node@?$_List_nod@PAVCSubLabel@@V?$allocator@PAVCSubLabel@@@std@@@2@@Z
_TEXT	SEGMENT PARA USE32 PUBLIC 'CODE'
_TEXT	ENDS
;	COMDAT ?_Isnil@?$_Tree@V?$_Tmap_traits@V?$CStringT@DV?$StrTraitMFC_DLL@DV?$ChTraitsCRT@D@ATL@@@@@ATL@@PAVCSkinButton@@U?$less@V?$CStringT@DV?$StrTraitMFC_DLL@DV?$ChTraitsCRT@D@ATL@@@@@ATL@@@std@@V?$allocator@U?$pair@$$CBV?$CStringT@DV?$StrTraitMFC_DLL@DV?$ChTraitsCRT@D@ATL@@@@@ATL@@PAVCSkinButton@@@std@@@5@$0A@@std@@@std@@KAAADPAU_Node@?$_Tree_nod@V?$_Tmap_traits@V?$CStringT@DV?$StrTraitMFC_DLL@DV?$ChTraitsCRT@D@ATL@@@@@ATL@@PAVCSkinButton@@U?$less@V?$CStringT@DV?$StrTraitMFC_DLL@DV?$ChTraitsCRT@D@ATL@@@@@ATL@@@std@@V?$allocator@U?$pair@$$CBV?$CStringT@DV?$StrTraitMFC_DLL@DV?$ChTraitsCRT@D@ATL@@@@@ATL@@PAVCSkinButton@@@std@@@5@$0A@@std@@@2@@Z
_TEXT	SEGMENT PARA USE32 PUBLIC 'CODE'
_TEXT	ENDS
;	COMDAT ?_Key@?$_Tree@V?$_Tmap_traits@V?$CStringT@DV?$StrTraitMFC_DLL@DV?$ChTraitsCRT@D@ATL@@@@@ATL@@PAVCSkinButton@@U?$less@V?$CStringT@DV?$StrTraitMFC_DLL@DV?$ChTraitsCRT@D@ATL@@@@@ATL@@@std@@V?$allocator@U?$pair@$$CBV?$CStringT@DV?$StrTraitMFC_DLL@DV?$ChTraitsCRT@D@ATL@@@@@ATL@@PAVCSkinButton@@@std@@@5@$0A@@std@@@std@@KAABV?$CStringT@DV?$StrTraitMFC_DLL@DV?$ChTraitsCRT@D@ATL@@@@@ATL@@PAU_Node@?$_Tree_nod@V?$_Tmap_traits@V?$CStringT@DV?$StrTraitMFC_DLL@DV?$ChTraitsCRT@D@ATL@@@@@ATL@@PAVCSkinButton@@U?$less@V?$CStringT@DV?$StrTraitMFC_DLL@DV?$ChTraitsCRT@D@ATL@@@@@ATL@@@std@@V?$allocator@U?$pair@$$CBV?$CStringT@DV?$StrTraitMFC_DLL@DV?$ChTraitsCRT@D@ATL@@@@@ATL@@PAVCSkinButton@@@std@@@5@$0A@@std@@@2@@Z
_TEXT	SEGMENT PARA USE32 PUBLIC 'CODE'
_TEXT	ENDS
;	COMDAT ?_Left@?$_Tree@V?$_Tmap_traits@V?$CStringT@DV?$StrTraitMFC_DLL@DV?$ChTraitsCRT@D@ATL@@@@@ATL@@PAVCSkinButton@@U?$less@V?$CStringT@DV?$StrTraitMFC_DLL@DV?$ChTraitsCRT@D@ATL@@@@@ATL@@@std@@V?$allocator@U?$pair@$$CBV?$CStringT@DV?$StrTraitMFC_DLL@DV?$ChTraitsCRT@D@ATL@@@@@ATL@@PAVCSkinButton@@@std@@@5@$0A@@std@@@std@@KAAAPAU_Node@?$_Tree_nod@V?$_Tmap_traits@V?$CStringT@DV?$StrTraitMFC_DLL@DV?$ChTraitsCRT@D@ATL@@@@@ATL@@PAVCSkinButton@@U?$less@V?$CStringT@DV?$StrTraitMFC_DLL@DV?$ChTraitsCRT@D@ATL@@@@@ATL@@@std@@V?$allocator@U?$pair@$$CBV?$CStringT@DV?$StrTraitMFC_DLL@DV?$ChTraitsCRT@D@ATL@@@@@ATL@@PAVCSkinButton@@@std@@@5@$0A@@std@@@2@PAU342@@Z
_TEXT	SEGMENT PARA USE32 PUBLIC 'CODE'
_TEXT	ENDS
;	COMDAT ?_Right@?$_Tree@V?$_Tmap_traits@V?$CStringT@DV?$StrTraitMFC_DLL@DV?$ChTraitsCRT@D@ATL@@@@@ATL@@PAVCSkinButton@@U?$less@V?$CStringT@DV?$StrTraitMFC_DLL@DV?$ChTraitsCRT@D@ATL@@@@@ATL@@@std@@V?$allocator@U?$pair@$$CBV?$CStringT@DV?$StrTraitMFC_DLL@DV?$ChTraitsCRT@D@ATL@@@@@ATL@@PAVCSkinButton@@@std@@@5@$0A@@std@@@std@@KAAAPAU_Node@?$_Tree_nod@V?$_Tmap_traits@V?$CStringT@DV?$StrTraitMFC_DLL@DV?$ChTraitsCRT@D@ATL@@@@@ATL@@PAVCSkinButton@@U?$less@V?$CStringT@DV?$StrTraitMFC_DLL@DV?$ChTraitsCRT@D@ATL@@@@@ATL@@@std@@V?$allocator@U?$pair@$$CBV?$CStringT@DV?$StrTraitMFC_DLL@DV?$ChTraitsCRT@D@ATL@@@@@ATL@@PAVCSkinButton@@@std@@@5@$0A@@std@@@2@PAU342@@Z
_TEXT	SEGMENT PARA USE32 PUBLIC 'CODE'
_TEXT	ENDS
;	COMDAT ??0?$_Tree@V?$_Tmap_traits@V?$CStringT@DV?$StrTraitMFC_DLL@DV?$ChTraitsCRT@D@ATL@@@@@ATL@@PAVCSkinButton@@U?$less@V?$CStringT@DV?$StrTraitMFC_DLL@DV?$ChTraitsCRT@D@ATL@@@@@ATL@@@std@@V?$allocator@U?$pair@$$CBV?$CStringT@DV?$StrTraitMFC_DLL@DV?$ChTraitsCRT@D@ATL@@@@@ATL@@PAVCSkinButton@@@std@@@5@$0A@@std@@@std@@QAE@ABU?$less@V?$CStringT@DV?$StrTraitMFC_DLL@DV?$ChTraitsCRT@D@ATL@@@@@ATL@@@1@ABV?$allocator@U?$pair@$$CBV?$CStringT@DV?$StrTraitMFC_DLL@DV?$ChTraitsCRT@D@ATL@@@@@ATL@@PAVCSkinButton@@@std@@@1@@Z
_TEXT	SEGMENT PARA USE32 PUBLIC 'CODE'
_TEXT	ENDS
;	COMDAT ?begin@?$_Tree@V?$_Tmap_traits@V?$CStringT@DV?$StrTraitMFC_DLL@DV?$ChTraitsCRT@D@ATL@@@@@ATL@@PAVCSkinButton@@U?$less@V?$CStringT@DV?$StrTraitMFC_DLL@DV?$ChTraitsCRT@D@ATL@@@@@ATL@@@std@@V?$allocator@U?$pair@$$CBV?$CStringT@DV?$StrTraitMFC_DLL@DV?$ChTraitsCRT@D@ATL@@@@@ATL@@PAVCSkinButton@@@std@@@5@$0A@@std@@@std@@QAE?AViterator@12@XZ
_TEXT	SEGMENT PARA USE32 PUBLIC 'CODE'
_TEXT	ENDS
;	COMDAT ?_Erase@?$_Tree@V?$_Tmap_traits@V?$CStringT@DV?$StrTraitMFC_DLL@DV?$ChTraitsCRT@D@ATL@@@@@ATL@@PAVCSkinButton@@U?$less@V?$CStringT@DV?$StrTraitMFC_DLL@DV?$ChTraitsCRT@D@ATL@@@@@ATL@@@std@@V?$allocator@U?$pair@$$CBV?$CStringT@DV?$StrTraitMFC_DLL@DV?$ChTraitsCRT@D@ATL@@@@@ATL@@PAVCSkinButton@@@std@@@5@$0A@@std@@@std@@IAEXPAU_Node@?$_Tree_nod@V?$_Tmap_traits@V?$CStringT@DV?$StrTraitMFC_DLL@DV?$ChTraitsCRT@D@ATL@@@@@ATL@@PAVCSkinButton@@U?$less@V?$CStringT@DV?$StrTraitMFC_DLL@DV?$ChTraitsCRT@D@ATL@@@@@ATL@@@std@@V?$allocator@U?$pair@$$CBV?$CStringT@DV?$StrTraitMFC_DLL@DV?$ChTraitsCRT@D@ATL@@@@@ATL@@PAVCSkinButton@@@std@@@5@$0A@@std@@@2@@Z
_TEXT	SEGMENT PARA USE32 PUBLIC 'CODE'
_TEXT	ENDS
;	COMDAT ?_Insert@?$_Tree@V?$_Tmap_traits@V?$CStringT@DV?$StrTraitMFC_DLL@DV?$ChTraitsCRT@D@ATL@@@@@ATL@@PAVCSkinButton@@U?$less@V?$CStringT@DV?$StrTraitMFC_DLL@DV?$ChTraitsCRT@D@ATL@@@@@ATL@@@std@@V?$allocator@U?$pair@$$CBV?$CStringT@DV?$StrTraitMFC_DLL@DV?$ChTraitsCRT@D@ATL@@@@@ATL@@PAVCSkinButton@@@std@@@5@$0A@@std@@@std@@IAE?AViterator@12@_NPAU_Node@?$_Tree_nod@V?$_Tmap_traits@V?$CStringT@DV?$StrTraitMFC_DLL@DV?$ChTraitsCRT@D@ATL@@@@@ATL@@PAVCSkinButton@@U?$less@V?$CStringT@DV?$StrTraitMFC_DLL@DV?$ChTraitsCRT@D@ATL@@@@@ATL@@@std@@V?$allocator@U?$pair@$$CBV?$CStringT@DV?$StrTraitMFC_DLL@DV?$ChTraitsCRT@D@ATL@@@@@ATL@@PAVCSkinButton@@@std@@@5@$0A@@std@@@2@ABU?$pair@$$CBV?$CStringT@DV?$StrTraitMFC_DLL@DV?$ChTraitsCRT@D@ATL@@@@@ATL@@PAVCSkinButton@@@2@@Z
_TEXT	SEGMENT PARA USE32 PUBLIC 'CODE'
_TEXT	ENDS
;	COMDAT ?_Lmost@?$_Tree@V?$_Tmap_traits@V?$CStringT@DV?$StrTraitMFC_DLL@DV?$ChTraitsCRT@D@ATL@@@@@ATL@@PAVCSkinButton@@U?$less@V?$CStringT@DV?$StrTraitMFC_DLL@DV?$ChTraitsCRT@D@ATL@@@@@ATL@@@std@@V?$allocator@U?$pair@$$CBV?$CStringT@DV?$StrTraitMFC_DLL@DV?$ChTraitsCRT@D@ATL@@@@@ATL@@PAVCSkinButton@@@std@@@5@$0A@@std@@@std@@IAEAAPAU_Node@?$_Tree_nod@V?$_Tmap_traits@V?$CStringT@DV?$StrTraitMFC_DLL@DV?$ChTraitsCRT@D@ATL@@@@@ATL@@PAVCSkinButton@@U?$less@V?$CStringT@DV?$StrTraitMFC_DLL@DV?$ChTraitsCRT@D@ATL@@@@@ATL@@@std@@V?$allocator@U?$pair@$$CBV?$CStringT@DV?$StrTraitMFC_DLL@DV?$ChTraitsCRT@D@ATL@@@@@ATL@@PAVCSkinButton@@@std@@@5@$0A@@std@@@2@XZ
_TEXT	SEGMENT PARA USE32 PUBLIC 'CODE'
_TEXT	ENDS
;	COMDAT ?_Rmost@?$_Tree@V?$_Tmap_traits@V?$CStringT@DV?$StrTraitMFC_DLL@DV?$ChTraitsCRT@D@ATL@@@@@ATL@@PAVCSkinButton@@U?$less@V?$CStringT@DV?$StrTraitMFC_DLL@DV?$ChTraitsCRT@D@ATL@@@@@ATL@@@std@@V?$allocator@U?$pair@$$CBV?$CStringT@DV?$StrTraitMFC_DLL@DV?$ChTraitsCRT@D@ATL@@@@@ATL@@PAVCSkinButton@@@std@@@5@$0A@@std@@@std@@IAEAAPAU_Node@?$_Tree_nod@V?$_Tmap_traits@V?$CStringT@DV?$StrTraitMFC_DLL@DV?$ChTraitsCRT@D@ATL@@@@@ATL@@PAVCSkinButton@@U?$less@V?$CStringT@DV?$StrTraitMFC_DLL@DV?$ChTraitsCRT@D@ATL@@@@@ATL@@@std@@V?$allocator@U?$pair@$$CBV?$CStringT@DV?$StrTraitMFC_DLL@DV?$ChTraitsCRT@D@ATL@@@@@ATL@@PAVCSkinButton@@@std@@@5@$0A@@std@@@2@XZ
_TEXT	SEGMENT PARA USE32 PUBLIC 'CODE'
_TEXT	ENDS
;	COMDAT ?_Root@?$_Tree@V?$_Tmap_traits@V?$CStringT@DV?$StrTraitMFC_DLL@DV?$ChTraitsCRT@D@ATL@@@@@ATL@@PAVCSkinButton@@U?$less@V?$CStringT@DV?$StrTraitMFC_DLL@DV?$ChTraitsCRT@D@ATL@@@@@ATL@@@std@@V?$allocator@U?$pair@$$CBV?$CStringT@DV?$StrTraitMFC_DLL@DV?$ChTraitsCRT@D@ATL@@@@@ATL@@PAVCSkinButton@@@std@@@5@$0A@@std@@@std@@IAEAAPAU_Node@?$_Tree_nod@V?$_Tmap_traits@V?$CStringT@DV?$StrTraitMFC_DLL@DV?$ChTraitsCRT@D@ATL@@@@@ATL@@PAVCSkinButton@@U?$less@V?$CStringT@DV?$StrTraitMFC_DLL@DV?$ChTraitsCRT@D@ATL@@@@@ATL@@@std@@V?$allocator@U?$pair@$$CBV?$CStringT@DV?$StrTraitMFC_DLL@DV?$ChTraitsCRT@D@ATL@@@@@ATL@@PAVCSkinButton@@@std@@@5@$0A@@std@@@2@XZ
_TEXT	SEGMENT PARA USE32 PUBLIC 'CODE'
_TEXT	ENDS
;	COMDAT ?_Tidy@?$_Tree@V?$_Tmap_traits@V?$CStringT@DV?$StrTraitMFC_DLL@DV?$ChTraitsCRT@D@ATL@@@@@ATL@@PAVCSkinButton@@U?$less@V?$CStringT@DV?$StrTraitMFC_DLL@DV?$ChTraitsCRT@D@ATL@@@@@ATL@@@std@@V?$allocator@U?$pair@$$CBV?$CStringT@DV?$StrTraitMFC_DLL@DV?$ChTraitsCRT@D@ATL@@@@@ATL@@PAVCSkinButton@@@std@@@5@$0A@@std@@@std@@IAEXXZ
_TEXT	SEGMENT PARA USE32 PUBLIC 'CODE'
_TEXT	ENDS
;	COMDAT ?_Kfn@?$_Tmap_traits@V?$CStringT@DV?$StrTraitMFC_DLL@DV?$ChTraitsCRT@D@ATL@@@@@ATL@@PAVCSkinButton@@U?$less@V?$CStringT@DV?$StrTraitMFC_DLL@DV?$ChTraitsCRT@D@ATL@@@@@ATL@@@std@@V?$allocator@U?$pair@$$CBV?$CStringT@DV?$StrTraitMFC_DLL@DV?$ChTraitsCRT@D@ATL@@@@@ATL@@PAVCSkinButton@@@std@@@5@$0A@@std@@SAABV?$CStringT@DV?$StrTraitMFC_DLL@DV?$ChTraitsCRT@D@ATL@@@@@ATL@@ABU?$pair@$$CBV?$CStringT@DV?$StrTraitMFC_DLL@DV?$ChTraitsCRT@D@ATL@@@@@ATL@@PAVCSkinButton@@@2@@Z
_TEXT	SEGMENT PARA USE32 PUBLIC 'CODE'
_TEXT	ENDS
;	COMDAT ??0?$allocator@U?$pair@$$CBV?$CStringT@DV?$StrTraitMFC_DLL@DV?$ChTraitsCRT@D@ATL@@@@@ATL@@PAVCSkinButton@@@std@@@std@@QAE@XZ
_TEXT	SEGMENT PARA USE32 PUBLIC 'CODE'
_TEXT	ENDS
;	COMDAT ??R?$less@V?$CStringT@DV?$StrTraitMFC_DLL@DV?$ChTraitsCRT@D@ATL@@@@@ATL@@@std@@QBE_NABV?$CStringT@DV?$StrTraitMFC_DLL@DV?$ChTraitsCRT@D@ATL@@@@@ATL@@0@Z
_TEXT	SEGMENT PARA USE32 PUBLIC 'CODE'
_TEXT	ENDS
;	COMDAT ??0iterator@?$list@PAVCSubLabel@@V?$allocator@PAVCSubLabel@@@std@@@std@@QAE@PAU_Node@?$_List_nod@PAVCSubLabel@@V?$allocator@PAVCSubLabel@@@std@@@2@@Z
_TEXT	SEGMENT PARA USE32 PUBLIC 'CODE'
_TEXT	ENDS
;	COMDAT ??Fiterator@?$list@PAVCSubLabel@@V?$allocator@PAVCSubLabel@@@std@@@std@@QAEAAV012@XZ
_TEXT	SEGMENT PARA USE32 PUBLIC 'CODE'
_TEXT	ENDS
;	COMDAT ??Dconst_iterator@?$list@PAVCSubLabel@@V?$allocator@PAVCSubLabel@@@std@@@std@@QBEABQAVCSubLabel@@XZ
_TEXT	SEGMENT PARA USE32 PUBLIC 'CODE'
_TEXT	ENDS
;	COMDAT ??Econst_iterator@?$list@PAVCSubLabel@@V?$allocator@PAVCSubLabel@@@std@@@std@@QAEAAV012@XZ
_TEXT	SEGMENT PARA USE32 PUBLIC 'CODE'
_TEXT	ENDS
;	COMDAT ?_Mynode@const_iterator@?$list@PAVCSubLabel@@V?$allocator@PAVCSubLabel@@@std@@@std@@QBEPAU_Node@?$_List_nod@PAVCSubLabel@@V?$allocator@PAVCSubLabel@@@std@@@3@XZ
_TEXT	SEGMENT PARA USE32 PUBLIC 'CODE'
_TEXT	ENDS
;	COMDAT ??0?$pair@Viterator@?$_Tree@V?$_Tmap_traits@V?$CStringT@DV?$StrTraitMFC_DLL@DV?$ChTraitsCRT@D@ATL@@@@@ATL@@PAVCSkinButton@@U?$less@V?$CStringT@DV?$StrTraitMFC_DLL@DV?$ChTraitsCRT@D@ATL@@@@@ATL@@@std@@V?$allocator@U?$pair@$$CBV?$CStringT@DV?$StrTraitMFC_DLL@DV?$ChTraitsCRT@D@ATL@@@@@ATL@@PAVCSkinButton@@@std@@@5@$0A@@std@@@std@@_N@std@@QAE@ABViterator@?$_Tree@V?$_Tmap_traits@V?$CStringT@DV?$StrTraitMFC_DLL@DV?$ChTraitsCRT@D@ATL@@@@@ATL@@PAVCSkinButton@@U?$less@V?$CStringT@DV?$StrTraitMFC_DLL@DV?$ChTraitsCRT@D@ATL@@@@@ATL@@@std@@V?$allocator@U?$pair@$$CBV?$CStringT@DV?$StrTraitMFC_DLL@DV?$ChTraitsCRT@D@ATL@@@@@ATL@@PAVCSkinButton@@@std@@@5@$0A@@std@@@1@AB_N@Z
_TEXT	SEGMENT PARA USE32 PUBLIC 'CODE'
_TEXT	ENDS
;	COMDAT ??0iterator@?$_Tree@V?$_Tmap_traits@V?$CStringT@DV?$StrTraitMFC_DLL@DV?$ChTraitsCRT@D@ATL@@@@@ATL@@PAVCSkinButton@@U?$less@V?$CStringT@DV?$StrTraitMFC_DLL@DV?$ChTraitsCRT@D@ATL@@@@@ATL@@@std@@V?$allocator@U?$pair@$$CBV?$CStringT@DV?$StrTraitMFC_DLL@DV?$ChTraitsCRT@D@ATL@@@@@ATL@@PAVCSkinButton@@@std@@@5@$0A@@std@@@std@@QAE@PAU_Node@?$_Tree_nod@V?$_Tmap_traits@V?$CStringT@DV?$StrTraitMFC_DLL@DV?$ChTraitsCRT@D@ATL@@@@@ATL@@PAVCSkinButton@@U?$less@V?$CStringT@DV?$StrTraitMFC_DLL@DV?$ChTraitsCRT@D@ATL@@@@@ATL@@@std@@V?$allocator@U?$pair@$$CBV?$CStringT@DV?$StrTraitMFC_DLL@DV?$ChTraitsCRT@D@ATL@@@@@ATL@@PAVCSkinButton@@@std@@@5@$0A@@std@@@2@@Z
_TEXT	SEGMENT PARA USE32 PUBLIC 'CODE'
_TEXT	ENDS
;	COMDAT ??Fiterator@?$_Tree@V?$_Tmap_traits@V?$CStringT@DV?$StrTraitMFC_DLL@DV?$ChTraitsCRT@D@ATL@@@@@ATL@@PAVCSkinButton@@U?$less@V?$CStringT@DV?$StrTraitMFC_DLL@DV?$ChTraitsCRT@D@ATL@@@@@ATL@@@std@@V?$allocator@U?$pair@$$CBV?$CStringT@DV?$StrTraitMFC_DLL@DV?$ChTraitsCRT@D@ATL@@@@@ATL@@PAVCSkinButton@@@std@@@5@$0A@@std@@@std@@QAEAAV012@XZ
_TEXT	SEGMENT PARA USE32 PUBLIC 'CODE'
_TEXT	ENDS
;	COMDAT ??8const_iterator@?$_Tree@V?$_Tmap_traits@V?$CStringT@DV?$StrTraitMFC_DLL@DV?$ChTraitsCRT@D@ATL@@@@@ATL@@PAVCSkinButton@@U?$less@V?$CStringT@DV?$StrTraitMFC_DLL@DV?$ChTraitsCRT@D@ATL@@@@@ATL@@@std@@V?$allocator@U?$pair@$$CBV?$CStringT@DV?$StrTraitMFC_DLL@DV?$ChTraitsCRT@D@ATL@@@@@ATL@@PAVCSkinButton@@@std@@@5@$0A@@std@@@std@@QBE_NABV012@@Z
_TEXT	SEGMENT PARA USE32 PUBLIC 'CODE'
_TEXT	ENDS
;	COMDAT ?_Mynode@const_iterator@?$_Tree@V?$_Tmap_traits@V?$CStringT@DV?$StrTraitMFC_DLL@DV?$ChTraitsCRT@D@ATL@@@@@ATL@@PAVCSkinButton@@U?$less@V?$CStringT@DV?$StrTraitMFC_DLL@DV?$ChTraitsCRT@D@ATL@@@@@ATL@@@std@@V?$allocator@U?$pair@$$CBV?$CStringT@DV?$StrTraitMFC_DLL@DV?$ChTraitsCRT@D@ATL@@@@@ATL@@PAVCSkinButton@@@std@@@5@$0A@@std@@@std@@QBEPAU_Node@?$_Tree_nod@V?$_Tmap_traits@V?$CStringT@DV?$StrTraitMFC_DLL@DV?$ChTraitsCRT@D@ATL@@@@@ATL@@PAVCSkinButton@@U?$less@V?$CStringT@DV?$StrTraitMFC_DLL@DV?$ChTraitsCRT@D@ATL@@@@@ATL@@@std@@V?$allocator@U?$pair@$$CBV?$CStringT@DV?$StrTraitMFC_DLL@DV?$ChTraitsCRT@D@ATL@@@@@ATL@@PAVCSkinButton@@@std@@@5@$0A@@std@@@3@XZ
_TEXT	SEGMENT PARA USE32 PUBLIC 'CODE'
_TEXT	ENDS
;	COMDAT ??0length_error@std@@QAE@ABV01@@Z
_TEXT	SEGMENT PARA USE32 PUBLIC 'CODE'
_TEXT	ENDS
;	COMDAT ??MATL@@YA_NABV?$CStringT@DV?$StrTraitMFC_DLL@DV?$ChTraitsCRT@D@ATL@@@@@0@0@Z
_TEXT	SEGMENT PARA USE32 PUBLIC 'CODE'
_TEXT	ENDS
;	COMDAT ?StringCompare@?$ChTraitsCRT@D@ATL@@SAHPBD0@Z
_TEXT	SEGMENT PARA USE32 PUBLIC 'CODE'
_TEXT	ENDS
;	COMDAT ?_Myval@?$list@PAVCSkinButton@@V?$allocator@PAVCSkinButton@@@std@@@std@@KAAAPAVCSkinButton@@PAU_Node@?$_List_nod@PAVCSkinButton@@V?$allocator@PAVCSkinButton@@@std@@@2@@Z
_TEXT	SEGMENT PARA USE32 PUBLIC 'CODE'
_TEXT	ENDS
;	COMDAT ?_Buynode@?$list@PAVCSkinButton@@V?$allocator@PAVCSkinButton@@@std@@@std@@IAEPAU_Node@?$_List_nod@PAVCSkinButton@@V?$allocator@PAVCSkinButton@@@std@@@2@PAU342@0ABQAVCSkinButton@@@Z
_TEXT	SEGMENT PARA USE32 PUBLIC 'CODE'
_TEXT	ENDS
;	COMDAT ?_Incsize@?$list@PAVCSkinButton@@V?$allocator@PAVCSkinButton@@@std@@@std@@IAEXI@Z
_TEXT	SEGMENT PARA USE32 PUBLIC 'CODE'
_TEXT	ENDS
;	COMDAT ??0?$_List_ptr@PAVCSkinButton@@V?$allocator@PAVCSkinButton@@@std@@@std@@IAE@V?$allocator@PAVCSkinButton@@@1@@Z
_TEXT	SEGMENT PARA USE32 PUBLIC 'CODE'
_TEXT	ENDS
;	COMDAT ??0?$allocator@PAVCSkinButton@@@std@@QAE@ABV01@@Z
_TEXT	SEGMENT PARA USE32 PUBLIC 'CODE'
_TEXT	ENDS
;	COMDAT ?allocate@?$allocator@U_Node@?$_List_nod@PAVCSkinButton@@V?$allocator@PAVCSkinButton@@@std@@@std@@@std@@QAEPAU_Node@?$_List_nod@PAVCSkinButton@@V?$allocator@PAVCSkinButton@@@std@@@2@I@Z
_TEXT	SEGMENT PARA USE32 PUBLIC 'CODE'
_TEXT	ENDS
;	COMDAT ?construct@?$allocator@PAU_Node@?$_List_nod@PAVCSkinButton@@V?$allocator@PAVCSkinButton@@@std@@@std@@@std@@QAEXPAPAU_Node@?$_List_nod@PAVCSkinButton@@V?$allocator@PAVCSkinButton@@@std@@@2@ABQAU342@@Z
_TEXT	SEGMENT PARA USE32 PUBLIC 'CODE'
_TEXT	ENDS
;	COMDAT ?destroy@?$allocator@PAU_Node@?$_List_nod@PAVCSkinButton@@V?$allocator@PAVCSkinButton@@@std@@@std@@@std@@QAEXPAPAU_Node@?$_List_nod@PAVCSkinButton@@V?$allocator@PAVCSkinButton@@@std@@@2@@Z
_TEXT	SEGMENT PARA USE32 PUBLIC 'CODE'
_TEXT	ENDS
;	COMDAT ??0const_iterator@?$list@PAVCSkinButton@@V?$allocator@PAVCSkinButton@@@std@@@std@@QAE@PAU_Node@?$_List_nod@PAVCSkinButton@@V?$allocator@PAVCSkinButton@@@std@@@2@@Z
_TEXT	SEGMENT PARA USE32 PUBLIC 'CODE'
_TEXT	ENDS
;	COMDAT ??Fconst_iterator@?$list@PAVCSkinButton@@V?$allocator@PAVCSkinButton@@@std@@@std@@QAEAAV012@XZ
_TEXT	SEGMENT PARA USE32 PUBLIC 'CODE'
_TEXT	ENDS
;	COMDAT ?_Myval@?$list@PAVCSubLabel@@V?$allocator@PAVCSubLabel@@@std@@@std@@KAAAPAVCSubLabel@@PAU_Node@?$_List_nod@PAVCSubLabel@@V?$allocator@PAVCSubLabel@@@std@@@2@@Z
_TEXT	SEGMENT PARA USE32 PUBLIC 'CODE'
_TEXT	ENDS
;	COMDAT ?clear@?$list@PAVCSubLabel@@V?$allocator@PAVCSubLabel@@@std@@@std@@QAEXXZ
_TEXT	SEGMENT PARA USE32 PUBLIC 'CODE'
_TEXT	ENDS
;	COMDAT ?_Buynode@?$list@PAVCSubLabel@@V?$allocator@PAVCSubLabel@@@std@@@std@@IAEPAU_Node@?$_List_nod@PAVCSubLabel@@V?$allocator@PAVCSubLabel@@@std@@@2@PAU342@0ABQAVCSubLabel@@@Z
_TEXT	SEGMENT PARA USE32 PUBLIC 'CODE'
_TEXT	ENDS
;	COMDAT ?_Incsize@?$list@PAVCSubLabel@@V?$allocator@PAVCSubLabel@@@std@@@std@@IAEXI@Z
_TEXT	SEGMENT PARA USE32 PUBLIC 'CODE'
_TEXT	ENDS
;	COMDAT ??0?$_List_ptr@PAVCSubLabel@@V?$allocator@PAVCSubLabel@@@std@@@std@@IAE@V?$allocator@PAVCSubLabel@@@1@@Z
_TEXT	SEGMENT PARA USE32 PUBLIC 'CODE'
_TEXT	ENDS
;	COMDAT ??0?$allocator@PAVCSubLabel@@@std@@QAE@ABV01@@Z
_TEXT	SEGMENT PARA USE32 PUBLIC 'CODE'
_TEXT	ENDS
;	COMDAT ?allocate@?$allocator@U_Node@?$_List_nod@PAVCSubLabel@@V?$allocator@PAVCSubLabel@@@std@@@std@@@std@@QAEPAU_Node@?$_List_nod@PAVCSubLabel@@V?$allocator@PAVCSubLabel@@@std@@@2@I@Z
_TEXT	SEGMENT PARA USE32 PUBLIC 'CODE'
_TEXT	ENDS
;	COMDAT ?construct@?$allocator@PAU_Node@?$_List_nod@PAVCSubLabel@@V?$allocator@PAVCSubLabel@@@std@@@std@@@std@@QAEXPAPAU_Node@?$_List_nod@PAVCSubLabel@@V?$allocator@PAVCSubLabel@@@std@@@2@ABQAU342@@Z
_TEXT	SEGMENT PARA USE32 PUBLIC 'CODE'
_TEXT	ENDS
;	COMDAT ?destroy@?$allocator@PAU_Node@?$_List_nod@PAVCSubLabel@@V?$allocator@PAVCSubLabel@@@std@@@std@@@std@@QAEXPAPAU_Node@?$_List_nod@PAVCSubLabel@@V?$allocator@PAVCSubLabel@@@std@@@2@@Z
_TEXT	SEGMENT PARA USE32 PUBLIC 'CODE'
_TEXT	ENDS
;	COMDAT ?_Color@?$_Tree@V?$_Tmap_traits@V?$CStringT@DV?$StrTraitMFC_DLL@DV?$ChTraitsCRT@D@ATL@@@@@ATL@@PAVCSkinButton@@U?$less@V?$CStringT@DV?$StrTraitMFC_DLL@DV?$ChTraitsCRT@D@ATL@@@@@ATL@@@std@@V?$allocator@U?$pair@$$CBV?$CStringT@DV?$StrTraitMFC_DLL@DV?$ChTraitsCRT@D@ATL@@@@@ATL@@PAVCSkinButton@@@std@@@5@$0A@@std@@@std@@KAAADPAU_Node@?$_Tree_nod@V?$_Tmap_traits@V?$CStringT@DV?$StrTraitMFC_DLL@DV?$ChTraitsCRT@D@ATL@@@@@ATL@@PAVCSkinButton@@U?$less@V?$CStringT@DV?$StrTraitMFC_DLL@DV?$ChTraitsCRT@D@ATL@@@@@ATL@@@std@@V?$allocator@U?$pair@$$CBV?$CStringT@DV?$StrTraitMFC_DLL@DV?$ChTraitsCRT@D@ATL@@@@@ATL@@PAVCSkinButton@@@std@@@5@$0A@@std@@@2@@Z
_TEXT	SEGMENT PARA USE32 PUBLIC 'CODE'
_TEXT	ENDS
;	COMDAT ?_Parent@?$_Tree@V?$_Tmap_traits@V?$CStringT@DV?$StrTraitMFC_DLL@DV?$ChTraitsCRT@D@ATL@@@@@ATL@@PAVCSkinButton@@U?$less@V?$CStringT@DV?$StrTraitMFC_DLL@DV?$ChTraitsCRT@D@ATL@@@@@ATL@@@std@@V?$allocator@U?$pair@$$CBV?$CStringT@DV?$StrTraitMFC_DLL@DV?$ChTraitsCRT@D@ATL@@@@@ATL@@PAVCSkinButton@@@std@@@5@$0A@@std@@@std@@KAAAPAU_Node@?$_Tree_nod@V?$_Tmap_traits@V?$CStringT@DV?$StrTraitMFC_DLL@DV?$ChTraitsCRT@D@ATL@@@@@ATL@@PAVCSkinButton@@U?$less@V?$CStringT@DV?$StrTraitMFC_DLL@DV?$ChTraitsCRT@D@ATL@@@@@ATL@@@std@@V?$allocator@U?$pair@$$CBV?$CStringT@DV?$StrTraitMFC_DLL@DV?$ChTraitsCRT@D@ATL@@@@@ATL@@PAVCSkinButton@@@std@@@5@$0A@@std@@@2@PAU342@@Z
_TEXT	SEGMENT PARA USE32 PUBLIC 'CODE'
_TEXT	ENDS
;	COMDAT ?_Myval@?$_Tree@V?$_Tmap_traits@V?$CStringT@DV?$StrTraitMFC_DLL@DV?$ChTraitsCRT@D@ATL@@@@@ATL@@PAVCSkinButton@@U?$less@V?$CStringT@DV?$StrTraitMFC_DLL@DV?$ChTraitsCRT@D@ATL@@@@@ATL@@@std@@V?$allocator@U?$pair@$$CBV?$CStringT@DV?$StrTraitMFC_DLL@DV?$ChTraitsCRT@D@ATL@@@@@ATL@@PAVCSkinButton@@@std@@@5@$0A@@std@@@std@@KAAAU?$pair@$$CBV?$CStringT@DV?$StrTraitMFC_DLL@DV?$ChTraitsCRT@D@ATL@@@@@ATL@@PAVCSkinButton@@@2@PAU_Node@?$_Tree_nod@V?$_Tmap_traits@V?$CStringT@DV?$StrTraitMFC_DLL@DV?$ChTraitsCRT@D@ATL@@@@@ATL@@PAVCSkinButton@@U?$less@V?$CStringT@DV?$StrTraitMFC_DLL@DV?$ChTraitsCRT@D@ATL@@@@@ATL@@@std@@V?$allocator@U?$pair@$$CBV?$CStringT@DV?$StrTraitMFC_DLL@DV?$ChTraitsCRT@D@ATL@@@@@ATL@@PAVCSkinButton@@@std@@@5@$0A@@std@@@2@@Z
_TEXT	SEGMENT PARA USE32 PUBLIC 'CODE'
_TEXT	ENDS
;	COMDAT ?end@?$_Tree@V?$_Tmap_traits@V?$CStringT@DV?$StrTraitMFC_DLL@DV?$ChTraitsCRT@D@ATL@@@@@ATL@@PAVCSkinButton@@U?$less@V?$CStringT@DV?$StrTraitMFC_DLL@DV?$ChTraitsCRT@D@ATL@@@@@ATL@@@std@@V?$allocator@U?$pair@$$CBV?$CStringT@DV?$StrTraitMFC_DLL@DV?$ChTraitsCRT@D@ATL@@@@@ATL@@PAVCSkinButton@@@std@@@5@$0A@@std@@@std@@QAE?AViterator@12@XZ
_TEXT	SEGMENT PARA USE32 PUBLIC 'CODE'
_TEXT	ENDS
;	COMDAT ?max_size@?$_Tree@V?$_Tmap_traits@V?$CStringT@DV?$StrTraitMFC_DLL@DV?$ChTraitsCRT@D@ATL@@@@@ATL@@PAVCSkinButton@@U?$less@V?$CStringT@DV?$StrTraitMFC_DLL@DV?$ChTraitsCRT@D@ATL@@@@@ATL@@@std@@V?$allocator@U?$pair@$$CBV?$CStringT@DV?$StrTraitMFC_DLL@DV?$ChTraitsCRT@D@ATL@@@@@ATL@@PAVCSkinButton@@@std@@@5@$0A@@std@@@std@@QBEIXZ
_TEXT	SEGMENT PARA USE32 PUBLIC 'CODE'
_TEXT	ENDS
;	COMDAT ?erase@?$_Tree@V?$_Tmap_traits@V?$CStringT@DV?$StrTraitMFC_DLL@DV?$ChTraitsCRT@D@ATL@@@@@ATL@@PAVCSkinButton@@U?$less@V?$CStringT@DV?$StrTraitMFC_DLL@DV?$ChTraitsCRT@D@ATL@@@@@ATL@@@std@@V?$allocator@U?$pair@$$CBV?$CStringT@DV?$StrTraitMFC_DLL@DV?$ChTraitsCRT@D@ATL@@@@@ATL@@PAVCSkinButton@@@std@@@5@$0A@@std@@@std@@QAE?AViterator@12@V312@0@Z
_TEXT	SEGMENT PARA USE32 PUBLIC 'CODE'
_TEXT	ENDS
;	COMDAT ?_Init@?$_Tree@V?$_Tmap_traits@V?$CStringT@DV?$StrTraitMFC_DLL@DV?$ChTraitsCRT@D@ATL@@@@@ATL@@PAVCSkinButton@@U?$less@V?$CStringT@DV?$StrTraitMFC_DLL@DV?$ChTraitsCRT@D@ATL@@@@@ATL@@@std@@V?$allocator@U?$pair@$$CBV?$CStringT@DV?$StrTraitMFC_DLL@DV?$ChTraitsCRT@D@ATL@@@@@ATL@@PAVCSkinButton@@@std@@@5@$0A@@std@@@std@@IAEXXZ
_TEXT	SEGMENT PARA USE32 PUBLIC 'CODE'
_TEXT	ENDS
;	COMDAT ?_Lrotate@?$_Tree@V?$_Tmap_traits@V?$CStringT@DV?$StrTraitMFC_DLL@DV?$ChTraitsCRT@D@ATL@@@@@ATL@@PAVCSkinButton@@U?$less@V?$CStringT@DV?$StrTraitMFC_DLL@DV?$ChTraitsCRT@D@ATL@@@@@ATL@@@std@@V?$allocator@U?$pair@$$CBV?$CStringT@DV?$StrTraitMFC_DLL@DV?$ChTraitsCRT@D@ATL@@@@@ATL@@PAVCSkinButton@@@std@@@5@$0A@@std@@@std@@IAEXPAU_Node@?$_Tree_nod@V?$_Tmap_traits@V?$CStringT@DV?$StrTraitMFC_DLL@DV?$ChTraitsCRT@D@ATL@@@@@ATL@@PAVCSkinButton@@U?$less@V?$CStringT@DV?$StrTraitMFC_DLL@DV?$ChTraitsCRT@D@ATL@@@@@ATL@@@std@@V?$allocator@U?$pair@$$CBV?$CStringT@DV?$StrTraitMFC_DLL@DV?$ChTraitsCRT@D@ATL@@@@@ATL@@PAVCSkinButton@@@std@@@5@$0A@@std@@@2@@Z
_TEXT	SEGMENT PARA USE32 PUBLIC 'CODE'
_TEXT	ENDS
;	COMDAT ?_Rrotate@?$_Tree@V?$_Tmap_traits@V?$CStringT@DV?$StrTraitMFC_DLL@DV?$ChTraitsCRT@D@ATL@@@@@ATL@@PAVCSkinButton@@U?$less@V?$CStringT@DV?$StrTraitMFC_DLL@DV?$ChTraitsCRT@D@ATL@@@@@ATL@@@std@@V?$allocator@U?$pair@$$CBV?$CStringT@DV?$StrTraitMFC_DLL@DV?$ChTraitsCRT@D@ATL@@@@@ATL@@PAVCSkinButton@@@std@@@5@$0A@@std@@@std@@IAEXPAU_Node@?$_Tree_nod@V?$_Tmap_traits@V?$CStringT@DV?$StrTraitMFC_DLL@DV?$ChTraitsCRT@D@ATL@@@@@ATL@@PAVCSkinButton@@U?$less@V?$CStringT@DV?$StrTraitMFC_DLL@DV?$ChTraitsCRT@D@ATL@@@@@ATL@@@std@@V?$allocator@U?$pair@$$CBV?$CStringT@DV?$StrTraitMFC_DLL@DV?$ChTraitsCRT@D@ATL@@@@@ATL@@PAVCSkinButton@@@std@@@5@$0A@@std@@@2@@Z
_TEXT	SEGMENT PARA USE32 PUBLIC 'CODE'
_TEXT	ENDS
;	COMDAT ?_Buynode@?$_Tree@V?$_Tmap_traits@V?$CStringT@DV?$StrTraitMFC_DLL@DV?$ChTraitsCRT@D@ATL@@@@@ATL@@PAVCSkinButton@@U?$less@V?$CStringT@DV?$StrTraitMFC_DLL@DV?$ChTraitsCRT@D@ATL@@@@@ATL@@@std@@V?$allocator@U?$pair@$$CBV?$CStringT@DV?$StrTraitMFC_DLL@DV?$ChTraitsCRT@D@ATL@@@@@ATL@@PAVCSkinButton@@@std@@@5@$0A@@std@@@std@@IAEPAU_Node@?$_Tree_nod@V?$_Tmap_traits@V?$CStringT@DV?$StrTraitMFC_DLL@DV?$ChTraitsCRT@D@ATL@@@@@ATL@@PAVCSkinButton@@U?$less@V?$CStringT@DV?$StrTraitMFC_DLL@DV?$ChTraitsCRT@D@ATL@@@@@ATL@@@std@@V?$allocator@U?$pair@$$CBV?$CStringT@DV?$StrTraitMFC_DLL@DV?$ChTraitsCRT@D@ATL@@@@@ATL@@PAVCSkinButton@@@std@@@5@$0A@@std@@@2@PAU342@00ABU?$pair@$$CBV?$CStringT@DV?$StrTraitMFC_DLL@DV?$ChTraitsCRT@D@ATL@@@@@ATL@@PAVCSkinButton@@@2@D@Z
_TEXT	SEGMENT PARA USE32 PUBLIC 'CODE'
_TEXT	ENDS
;	COMDAT ??0?$_Tree_val@V?$_Tmap_traits@V?$CStringT@DV?$StrTraitMFC_DLL@DV?$ChTraitsCRT@D@ATL@@@@@ATL@@PAVCSkinButton@@U?$less@V?$CStringT@DV?$StrTraitMFC_DLL@DV?$ChTraitsCRT@D@ATL@@@@@ATL@@@std@@V?$allocator@U?$pair@$$CBV?$CStringT@DV?$StrTraitMFC_DLL@DV?$ChTraitsCRT@D@ATL@@@@@ATL@@PAVCSkinButton@@@std@@@5@$0A@@std@@@std@@IAE@ABU?$less@V?$CStringT@DV?$StrTraitMFC_DLL@DV?$ChTraitsCRT@D@ATL@@@@@ATL@@@1@V?$allocator@U?$pair@$$CBV?$CStringT@DV?$StrTraitMFC_DLL@DV?$ChTraitsCRT@D@ATL@@@@@ATL@@PAVCSkinButton@@@std@@@1@@Z
_TEXT	SEGMENT PARA USE32 PUBLIC 'CODE'
_TEXT	ENDS
;	COMDAT ??0?$allocator@U?$pair@$$CBV?$CStringT@DV?$StrTraitMFC_DLL@DV?$ChTraitsCRT@D@ATL@@@@@ATL@@PAVCSkinButton@@@std@@@std@@QAE@ABV01@@Z
_TEXT	SEGMENT PARA USE32 PUBLIC 'CODE'
_TEXT	ENDS
;	COMDAT ?deallocate@?$allocator@U_Node@?$_Tree_nod@V?$_Tmap_traits@V?$CStringT@DV?$StrTraitMFC_DLL@DV?$ChTraitsCRT@D@ATL@@@@@ATL@@PAVCSkinButton@@U?$less@V?$CStringT@DV?$StrTraitMFC_DLL@DV?$ChTraitsCRT@D@ATL@@@@@ATL@@@std@@V?$allocator@U?$pair@$$CBV?$CStringT@DV?$StrTraitMFC_DLL@DV?$ChTraitsCRT@D@ATL@@@@@ATL@@PAVCSkinButton@@@std@@@5@$0A@@std@@@std@@@std@@QAEXPAU_Node@?$_Tree_nod@V?$_Tmap_traits@V?$CStringT@DV?$StrTraitMFC_DLL@DV?$ChTraitsCRT@D@ATL@@@@@ATL@@PAVCSkinButton@@U?$less@V?$CStringT@DV?$StrTraitMFC_DLL@DV?$ChTraitsCRT@D@ATL@@@@@ATL@@@std@@V?$allocator@U?$pair@$$CBV?$CStringT@DV?$StrTraitMFC_DLL@DV?$ChTraitsCRT@D@ATL@@@@@ATL@@PAVCSkinButton@@@std@@@5@$0A@@std@@@2@I@Z
_TEXT	SEGMENT PARA USE32 PUBLIC 'CODE'
_TEXT	ENDS
;	COMDAT ?destroy@?$allocator@U_Node@?$_Tree_nod@V?$_Tmap_traits@V?$CStringT@DV?$StrTraitMFC_DLL@DV?$ChTraitsCRT@D@ATL@@@@@ATL@@PAVCSkinButton@@U?$less@V?$CStringT@DV?$StrTraitMFC_DLL@DV?$ChTraitsCRT@D@ATL@@@@@ATL@@@std@@V?$allocator@U?$pair@$$CBV?$CStringT@DV?$StrTraitMFC_DLL@DV?$ChTraitsCRT@D@ATL@@@@@ATL@@PAVCSkinButton@@@std@@@5@$0A@@std@@@std@@@std@@QAEXPAU_Node@?$_Tree_nod@V?$_Tmap_traits@V?$CStringT@DV?$StrTraitMFC_DLL@DV?$ChTraitsCRT@D@ATL@@@@@ATL@@PAVCSkinButton@@U?$less@V?$CStringT@DV?$StrTraitMFC_DLL@DV?$ChTraitsCRT@D@ATL@@@@@ATL@@@std@@V?$allocator@U?$pair@$$CBV?$CStringT@DV?$StrTraitMFC_DLL@DV?$ChTraitsCRT@D@ATL@@@@@ATL@@PAVCSkinButton@@@std@@@5@$0A@@std@@@2@@Z
_TEXT	SEGMENT PARA USE32 PUBLIC 'CODE'
_TEXT	ENDS
;	COMDAT ?destroy@?$allocator@PAU_Node@?$_Tree_nod@V?$_Tmap_traits@V?$CStringT@DV?$StrTraitMFC_DLL@DV?$ChTraitsCRT@D@ATL@@@@@ATL@@PAVCSkinButton@@U?$less@V?$CStringT@DV?$StrTraitMFC_DLL@DV?$ChTraitsCRT@D@ATL@@@@@ATL@@@std@@V?$allocator@U?$pair@$$CBV?$CStringT@DV?$StrTraitMFC_DLL@DV?$ChTraitsCRT@D@ATL@@@@@ATL@@PAVCSkinButton@@@std@@@5@$0A@@std@@@std@@@std@@QAEXPAPAU_Node@?$_Tree_nod@V?$_Tmap_traits@V?$CStringT@DV?$StrTraitMFC_DLL@DV?$ChTraitsCRT@D@ATL@@@@@ATL@@PAVCSkinButton@@U?$less@V?$CStringT@DV?$StrTraitMFC_DLL@DV?$ChTraitsCRT@D@ATL@@@@@ATL@@@std@@V?$allocator@U?$pair@$$CBV?$CStringT@DV?$StrTraitMFC_DLL@DV?$ChTraitsCRT@D@ATL@@@@@ATL@@PAVCSkinButton@@@std@@@5@$0A@@std@@@2@@Z
_TEXT	SEGMENT PARA USE32 PUBLIC 'CODE'
_TEXT	ENDS
;	COMDAT ??0const_iterator@?$list@PAVCSubLabel@@V?$allocator@PAVCSubLabel@@@std@@@std@@QAE@PAU_Node@?$_List_nod@PAVCSubLabel@@V?$allocator@PAVCSubLabel@@@std@@@2@@Z
_TEXT	SEGMENT PARA USE32 PUBLIC 'CODE'
_TEXT	ENDS
;	COMDAT ??Fconst_iterator@?$list@PAVCSubLabel@@V?$allocator@PAVCSubLabel@@@std@@@std@@QAEAAV012@XZ
_TEXT	SEGMENT PARA USE32 PUBLIC 'CODE'
_TEXT	ENDS
;	COMDAT ??0const_iterator@?$_Tree@V?$_Tmap_traits@V?$CStringT@DV?$StrTraitMFC_DLL@DV?$ChTraitsCRT@D@ATL@@@@@ATL@@PAVCSkinButton@@U?$less@V?$CStringT@DV?$StrTraitMFC_DLL@DV?$ChTraitsCRT@D@ATL@@@@@ATL@@@std@@V?$allocator@U?$pair@$$CBV?$CStringT@DV?$StrTraitMFC_DLL@DV?$ChTraitsCRT@D@ATL@@@@@ATL@@PAVCSkinButton@@@std@@@5@$0A@@std@@@std@@QAE@PAU_Node@?$_Tree_nod@V?$_Tmap_traits@V?$CStringT@DV?$StrTraitMFC_DLL@DV?$ChTraitsCRT@D@ATL@@@@@ATL@@PAVCSkinButton@@U?$less@V?$CStringT@DV?$StrTraitMFC_DLL@DV?$ChTraitsCRT@D@ATL@@@@@ATL@@@std@@V?$allocator@U?$pair@$$CBV?$CStringT@DV?$StrTraitMFC_DLL@DV?$ChTraitsCRT@D@ATL@@@@@ATL@@PAVCSkinButton@@@std@@@5@$0A@@std@@@2@@Z
_TEXT	SEGMENT PARA USE32 PUBLIC 'CODE'
_TEXT	ENDS
;	COMDAT ??Fconst_iterator@?$_Tree@V?$_Tmap_traits@V?$CStringT@DV?$StrTraitMFC_DLL@DV?$ChTraitsCRT@D@ATL@@@@@ATL@@PAVCSkinButton@@U?$less@V?$CStringT@DV?$StrTraitMFC_DLL@DV?$ChTraitsCRT@D@ATL@@@@@ATL@@@std@@V?$allocator@U?$pair@$$CBV?$CStringT@DV?$StrTraitMFC_DLL@DV?$ChTraitsCRT@D@ATL@@@@@ATL@@PAVCSkinButton@@@std@@@5@$0A@@std@@@std@@QAEAAV012@XZ
_TEXT	SEGMENT PARA USE32 PUBLIC 'CODE'
_TEXT	ENDS
;	COMDAT ?max_size@?$list@PAVCSkinButton@@V?$allocator@PAVCSkinButton@@@std@@@std@@QBEIXZ
_TEXT	SEGMENT PARA USE32 PUBLIC 'CODE'
_TEXT	ENDS
;	COMDAT ??0?$_List_nod@PAVCSkinButton@@V?$allocator@PAVCSkinButton@@@std@@@std@@IAE@V?$allocator@PAVCSkinButton@@@1@@Z
_TEXT	SEGMENT PARA USE32 PUBLIC 'CODE'
_TEXT	ENDS
;	COMDAT ?max_size@?$list@PAVCSubLabel@@V?$allocator@PAVCSubLabel@@@std@@@std@@QBEIXZ
_TEXT	SEGMENT PARA USE32 PUBLIC 'CODE'
_TEXT	ENDS
;	COMDAT ??0?$_List_nod@PAVCSubLabel@@V?$allocator@PAVCSubLabel@@@std@@@std@@IAE@V?$allocator@PAVCSubLabel@@@1@@Z
_TEXT	SEGMENT PARA USE32 PUBLIC 'CODE'
_TEXT	ENDS
;	COMDAT ?erase@?$_Tree@V?$_Tmap_traits@V?$CStringT@DV?$StrTraitMFC_DLL@DV?$ChTraitsCRT@D@ATL@@@@@ATL@@PAVCSkinButton@@U?$less@V?$CStringT@DV?$StrTraitMFC_DLL@DV?$ChTraitsCRT@D@ATL@@@@@ATL@@@std@@V?$allocator@U?$pair@$$CBV?$CStringT@DV?$StrTraitMFC_DLL@DV?$ChTraitsCRT@D@ATL@@@@@ATL@@PAVCSkinButton@@@std@@@5@$0A@@std@@@std@@QAE?AViterator@12@V312@@Z
_TEXT	SEGMENT PARA USE32 PUBLIC 'CODE'
_TEXT	ENDS
;	COMDAT ?_Buynode@?$_Tree@V?$_Tmap_traits@V?$CStringT@DV?$StrTraitMFC_DLL@DV?$ChTraitsCRT@D@ATL@@@@@ATL@@PAVCSkinButton@@U?$less@V?$CStringT@DV?$StrTraitMFC_DLL@DV?$ChTraitsCRT@D@ATL@@@@@ATL@@@std@@V?$allocator@U?$pair@$$CBV?$CStringT@DV?$StrTraitMFC_DLL@DV?$ChTraitsCRT@D@ATL@@@@@ATL@@PAVCSkinButton@@@std@@@5@$0A@@std@@@std@@IAEPAU_Node@?$_Tree_nod@V?$_Tmap_traits@V?$CStringT@DV?$StrTraitMFC_DLL@DV?$ChTraitsCRT@D@ATL@@@@@ATL@@PAVCSkinButton@@U?$less@V?$CStringT@DV?$StrTraitMFC_DLL@DV?$ChTraitsCRT@D@ATL@@@@@ATL@@@std@@V?$allocator@U?$pair@$$CBV?$CStringT@DV?$StrTraitMFC_DLL@DV?$ChTraitsCRT@D@ATL@@@@@ATL@@PAVCSkinButton@@@std@@@5@$0A@@std@@@2@XZ
_TEXT	SEGMENT PARA USE32 PUBLIC 'CODE'
_TEXT	ENDS
;	COMDAT ??0?$_Tree_ptr@V?$_Tmap_traits@V?$CStringT@DV?$StrTraitMFC_DLL@DV?$ChTraitsCRT@D@ATL@@@@@ATL@@PAVCSkinButton@@U?$less@V?$CStringT@DV?$StrTraitMFC_DLL@DV?$ChTraitsCRT@D@ATL@@@@@ATL@@@std@@V?$allocator@U?$pair@$$CBV?$CStringT@DV?$StrTraitMFC_DLL@DV?$ChTraitsCRT@D@ATL@@@@@ATL@@PAVCSkinButton@@@std@@@5@$0A@@std@@@std@@IAE@ABU?$less@V?$CStringT@DV?$StrTraitMFC_DLL@DV?$ChTraitsCRT@D@ATL@@@@@ATL@@@1@V?$allocator@U?$pair@$$CBV?$CStringT@DV?$StrTraitMFC_DLL@DV?$ChTraitsCRT@D@ATL@@@@@ATL@@PAVCSkinButton@@@std@@@1@@Z
_TEXT	SEGMENT PARA USE32 PUBLIC 'CODE'
_TEXT	ENDS
;	COMDAT ?max_size@?$allocator@U?$pair@$$CBV?$CStringT@DV?$StrTraitMFC_DLL@DV?$ChTraitsCRT@D@ATL@@@@@ATL@@PAVCSkinButton@@@std@@@std@@QBEIXZ
_TEXT	SEGMENT PARA USE32 PUBLIC 'CODE'
_TEXT	ENDS
;	COMDAT ?allocate@?$allocator@U_Node@?$_Tree_nod@V?$_Tmap_traits@V?$CStringT@DV?$StrTraitMFC_DLL@DV?$ChTraitsCRT@D@ATL@@@@@ATL@@PAVCSkinButton@@U?$less@V?$CStringT@DV?$StrTraitMFC_DLL@DV?$ChTraitsCRT@D@ATL@@@@@ATL@@@std@@V?$allocator@U?$pair@$$CBV?$CStringT@DV?$StrTraitMFC_DLL@DV?$ChTraitsCRT@D@ATL@@@@@ATL@@PAVCSkinButton@@@std@@@5@$0A@@std@@@std@@@std@@QAEPAU_Node@?$_Tree_nod@V?$_Tmap_traits@V?$CStringT@DV?$StrTraitMFC_DLL@DV?$ChTraitsCRT@D@ATL@@@@@ATL@@PAVCSkinButton@@U?$less@V?$CStringT@DV?$StrTraitMFC_DLL@DV?$ChTraitsCRT@D@ATL@@@@@ATL@@@std@@V?$allocator@U?$pair@$$CBV?$CStringT@DV?$StrTraitMFC_DLL@DV?$ChTraitsCRT@D@ATL@@@@@ATL@@PAVCSkinButton@@@std@@@5@$0A@@std@@@2@I@Z
_TEXT	SEGMENT PARA USE32 PUBLIC 'CODE'
_TEXT	ENDS
;	COMDAT ??Eiterator@?$_Tree@V?$_Tmap_traits@V?$CStringT@DV?$StrTraitMFC_DLL@DV?$ChTraitsCRT@D@ATL@@@@@ATL@@PAVCSkinButton@@U?$less@V?$CStringT@DV?$StrTraitMFC_DLL@DV?$ChTraitsCRT@D@ATL@@@@@ATL@@@std@@V?$allocator@U?$pair@$$CBV?$CStringT@DV?$StrTraitMFC_DLL@DV?$ChTraitsCRT@D@ATL@@@@@ATL@@PAVCSkinButton@@@std@@@5@$0A@@std@@@std@@QAE?AV012@H@Z
_TEXT	SEGMENT PARA USE32 PUBLIC 'CODE'
_TEXT	ENDS
;	COMDAT ??9const_iterator@?$_Tree@V?$_Tmap_traits@V?$CStringT@DV?$StrTraitMFC_DLL@DV?$ChTraitsCRT@D@ATL@@@@@ATL@@PAVCSkinButton@@U?$less@V?$CStringT@DV?$StrTraitMFC_DLL@DV?$ChTraitsCRT@D@ATL@@@@@ATL@@@std@@V?$allocator@U?$pair@$$CBV?$CStringT@DV?$StrTraitMFC_DLL@DV?$ChTraitsCRT@D@ATL@@@@@ATL@@PAVCSkinButton@@@std@@@5@$0A@@std@@@std@@QBE_NABV012@@Z
_TEXT	SEGMENT PARA USE32 PUBLIC 'CODE'
_TEXT	ENDS
;	COMDAT ?_Dec@const_iterator@?$_Tree@V?$_Tmap_traits@V?$CStringT@DV?$StrTraitMFC_DLL@DV?$ChTraitsCRT@D@ATL@@@@@ATL@@PAVCSkinButton@@U?$less@V?$CStringT@DV?$StrTraitMFC_DLL@DV?$ChTraitsCRT@D@ATL@@@@@ATL@@@std@@V?$allocator@U?$pair@$$CBV?$CStringT@DV?$StrTraitMFC_DLL@DV?$ChTraitsCRT@D@ATL@@@@@ATL@@PAVCSkinButton@@@std@@@5@$0A@@std@@@std@@QAEXXZ
_TEXT	SEGMENT PARA USE32 PUBLIC 'CODE'
_TEXT	ENDS
;	COMDAT ??0_Node@?$_List_nod@PAVCSkinButton@@V?$allocator@PAVCSkinButton@@@std@@@std@@QAE@PAU012@0ABQAVCSkinButton@@@Z
_TEXT	SEGMENT PARA USE32 PUBLIC 'CODE'
_TEXT	ENDS
;	COMDAT ??0_Node@?$_List_nod@PAVCSubLabel@@V?$allocator@PAVCSubLabel@@@std@@@std@@QAE@PAU012@0ABQAVCSubLabel@@@Z
_TEXT	SEGMENT PARA USE32 PUBLIC 'CODE'
_TEXT	ENDS
;	COMDAT ??0_Node@?$_Tree_nod@V?$_Tmap_traits@V?$CStringT@DV?$StrTraitMFC_DLL@DV?$ChTraitsCRT@D@ATL@@@@@ATL@@PAVCSkinButton@@U?$less@V?$CStringT@DV?$StrTraitMFC_DLL@DV?$ChTraitsCRT@D@ATL@@@@@ATL@@@std@@V?$allocator@U?$pair@$$CBV?$CStringT@DV?$StrTraitMFC_DLL@DV?$ChTraitsCRT@D@ATL@@@@@ATL@@PAVCSkinButton@@@std@@@5@$0A@@std@@@std@@QAE@PAU012@00ABU?$pair@$$CBV?$CStringT@DV?$StrTraitMFC_DLL@DV?$ChTraitsCRT@D@ATL@@@@@ATL@@PAVCSkinButton@@@2@D@Z
_TEXT	SEGMENT PARA USE32 PUBLIC 'CODE'
_TEXT	ENDS
;	COMDAT ??0?$pair@$$CBV?$CStringT@DV?$StrTraitMFC_DLL@DV?$ChTraitsCRT@D@ATL@@@@@ATL@@PAVCSkinButton@@@std@@QAE@ABU01@@Z
_TEXT	SEGMENT PARA USE32 PUBLIC 'CODE'
_TEXT	ENDS
;	COMDAT ?max_size@?$allocator@PAVCSkinButton@@@std@@QBEIXZ
_TEXT	SEGMENT PARA USE32 PUBLIC 'CODE'
_TEXT	ENDS
;	COMDAT ?max_size@?$allocator@PAVCSubLabel@@@std@@QBEIXZ
_TEXT	SEGMENT PARA USE32 PUBLIC 'CODE'
_TEXT	ENDS
;	COMDAT ?_Max@?$_Tree@V?$_Tmap_traits@V?$CStringT@DV?$StrTraitMFC_DLL@DV?$ChTraitsCRT@D@ATL@@@@@ATL@@PAVCSkinButton@@U?$less@V?$CStringT@DV?$StrTraitMFC_DLL@DV?$ChTraitsCRT@D@ATL@@@@@ATL@@@std@@V?$allocator@U?$pair@$$CBV?$CStringT@DV?$StrTraitMFC_DLL@DV?$ChTraitsCRT@D@ATL@@@@@ATL@@PAVCSkinButton@@@std@@@5@$0A@@std@@@std@@KAPAU_Node@?$_Tree_nod@V?$_Tmap_traits@V?$CStringT@DV?$StrTraitMFC_DLL@DV?$ChTraitsCRT@D@ATL@@@@@ATL@@PAVCSkinButton@@U?$less@V?$CStringT@DV?$StrTraitMFC_DLL@DV?$ChTraitsCRT@D@ATL@@@@@ATL@@@std@@V?$allocator@U?$pair@$$CBV?$CStringT@DV?$StrTraitMFC_DLL@DV?$ChTraitsCRT@D@ATL@@@@@ATL@@PAVCSkinButton@@@std@@@5@$0A@@std@@@2@PAU342@@Z
_TEXT	SEGMENT PARA USE32 PUBLIC 'CODE'
_TEXT	ENDS
;	COMDAT ?_Min@?$_Tree@V?$_Tmap_traits@V?$CStringT@DV?$StrTraitMFC_DLL@DV?$ChTraitsCRT@D@ATL@@@@@ATL@@PAVCSkinButton@@U?$less@V?$CStringT@DV?$StrTraitMFC_DLL@DV?$ChTraitsCRT@D@ATL@@@@@ATL@@@std@@V?$allocator@U?$pair@$$CBV?$CStringT@DV?$StrTraitMFC_DLL@DV?$ChTraitsCRT@D@ATL@@@@@ATL@@PAVCSkinButton@@@std@@@5@$0A@@std@@@std@@KAPAU_Node@?$_Tree_nod@V?$_Tmap_traits@V?$CStringT@DV?$StrTraitMFC_DLL@DV?$ChTraitsCRT@D@ATL@@@@@ATL@@PAVCSkinButton@@U?$less@V?$CStringT@DV?$StrTraitMFC_DLL@DV?$ChTraitsCRT@D@ATL@@@@@ATL@@@std@@V?$allocator@U?$pair@$$CBV?$CStringT@DV?$StrTraitMFC_DLL@DV?$ChTraitsCRT@D@ATL@@@@@ATL@@PAVCSkinButton@@@std@@@5@$0A@@std@@@2@PAU342@@Z
_TEXT	SEGMENT PARA USE32 PUBLIC 'CODE'
_TEXT	ENDS
;	COMDAT ??0?$_Tree_nod@V?$_Tmap_traits@V?$CStringT@DV?$StrTraitMFC_DLL@DV?$ChTraitsCRT@D@ATL@@@@@ATL@@PAVCSkinButton@@U?$less@V?$CStringT@DV?$StrTraitMFC_DLL@DV?$ChTraitsCRT@D@ATL@@@@@ATL@@@std@@V?$allocator@U?$pair@$$CBV?$CStringT@DV?$StrTraitMFC_DLL@DV?$ChTraitsCRT@D@ATL@@@@@ATL@@PAVCSkinButton@@@std@@@5@$0A@@std@@@std@@IAE@ABU?$less@V?$CStringT@DV?$StrTraitMFC_DLL@DV?$ChTraitsCRT@D@ATL@@@@@ATL@@@1@V?$allocator@U?$pair@$$CBV?$CStringT@DV?$StrTraitMFC_DLL@DV?$ChTraitsCRT@D@ATL@@@@@ATL@@PAVCSkinButton@@@std@@@1@@Z
_TEXT	SEGMENT PARA USE32 PUBLIC 'CODE'
_TEXT	ENDS
;	COMDAT ?construct@?$allocator@PAU_Node@?$_Tree_nod@V?$_Tmap_traits@V?$CStringT@DV?$StrTraitMFC_DLL@DV?$ChTraitsCRT@D@ATL@@@@@ATL@@PAVCSkinButton@@U?$less@V?$CStringT@DV?$StrTraitMFC_DLL@DV?$ChTraitsCRT@D@ATL@@@@@ATL@@@std@@V?$allocator@U?$pair@$$CBV?$CStringT@DV?$StrTraitMFC_DLL@DV?$ChTraitsCRT@D@ATL@@@@@ATL@@PAVCSkinButton@@@std@@@5@$0A@@std@@@std@@@std@@QAEXPAPAU_Node@?$_Tree_nod@V?$_Tmap_traits@V?$CStringT@DV?$StrTraitMFC_DLL@DV?$ChTraitsCRT@D@ATL@@@@@ATL@@PAVCSkinButton@@U?$less@V?$CStringT@DV?$StrTraitMFC_DLL@DV?$ChTraitsCRT@D@ATL@@@@@ATL@@@std@@V?$allocator@U?$pair@$$CBV?$CStringT@DV?$StrTraitMFC_DLL@DV?$ChTraitsCRT@D@ATL@@@@@ATL@@PAVCSkinButton@@@std@@@5@$0A@@std@@@2@ABQAU342@@Z
_TEXT	SEGMENT PARA USE32 PUBLIC 'CODE'
_TEXT	ENDS
;	COMDAT ??Eiterator@?$_Tree@V?$_Tmap_traits@V?$CStringT@DV?$StrTraitMFC_DLL@DV?$ChTraitsCRT@D@ATL@@@@@ATL@@PAVCSkinButton@@U?$less@V?$CStringT@DV?$StrTraitMFC_DLL@DV?$ChTraitsCRT@D@ATL@@@@@ATL@@@std@@V?$allocator@U?$pair@$$CBV?$CStringT@DV?$StrTraitMFC_DLL@DV?$ChTraitsCRT@D@ATL@@@@@ATL@@PAVCSkinButton@@@std@@@5@$0A@@std@@@std@@QAEAAV012@XZ
_TEXT	SEGMENT PARA USE32 PUBLIC 'CODE'
_TEXT	ENDS
;	COMDAT ??0?$_Tmap_traits@V?$CStringT@DV?$StrTraitMFC_DLL@DV?$ChTraitsCRT@D@ATL@@@@@ATL@@PAVCSkinButton@@U?$less@V?$CStringT@DV?$StrTraitMFC_DLL@DV?$ChTraitsCRT@D@ATL@@@@@ATL@@@std@@V?$allocator@U?$pair@$$CBV?$CStringT@DV?$StrTraitMFC_DLL@DV?$ChTraitsCRT@D@ATL@@@@@ATL@@PAVCSkinButton@@@std@@@5@$0A@@std@@QAE@U?$less@V?$CStringT@DV?$StrTraitMFC_DLL@DV?$ChTraitsCRT@D@ATL@@@@@ATL@@@1@@Z
_TEXT	SEGMENT PARA USE32 PUBLIC 'CODE'
_TEXT	ENDS
;	COMDAT ??Econst_iterator@?$_Tree@V?$_Tmap_traits@V?$CStringT@DV?$StrTraitMFC_DLL@DV?$ChTraitsCRT@D@ATL@@@@@ATL@@PAVCSkinButton@@U?$less@V?$CStringT@DV?$StrTraitMFC_DLL@DV?$ChTraitsCRT@D@ATL@@@@@ATL@@@std@@V?$allocator@U?$pair@$$CBV?$CStringT@DV?$StrTraitMFC_DLL@DV?$ChTraitsCRT@D@ATL@@@@@ATL@@PAVCSkinButton@@@std@@@5@$0A@@std@@@std@@QAEAAV012@XZ
_TEXT	SEGMENT PARA USE32 PUBLIC 'CODE'
_TEXT	ENDS
;	COMDAT ?_Inc@const_iterator@?$_Tree@V?$_Tmap_traits@V?$CStringT@DV?$StrTraitMFC_DLL@DV?$ChTraitsCRT@D@ATL@@@@@ATL@@PAVCSkinButton@@U?$less@V?$CStringT@DV?$StrTraitMFC_DLL@DV?$ChTraitsCRT@D@ATL@@@@@ATL@@@std@@V?$allocator@U?$pair@$$CBV?$CStringT@DV?$StrTraitMFC_DLL@DV?$ChTraitsCRT@D@ATL@@@@@ATL@@PAVCSkinButton@@@std@@@5@$0A@@std@@@std@@QAEXXZ
_TEXT	SEGMENT PARA USE32 PUBLIC 'CODE'
_TEXT	ENDS
;	COMDAT ?Unlock@?$CComCritSecLock@VCComCriticalSection@ATL@@@ATL@@QAEXXZ
_TEXT	SEGMENT PARA USE32 PUBLIC 'CODE'
_TEXT	ENDS
;	COMDAT ??$?0V?$CStringT@DV?$StrTraitMFC_DLL@DV?$ChTraitsCRT@D@ATL@@@@@ATL@@PAVCSkinButton@@@?$pair@$$CBV?$CStringT@DV?$StrTraitMFC_DLL@DV?$ChTraitsCRT@D@ATL@@@@@ATL@@PAVCSkinButton@@@std@@QAE@ABU?$pair@V?$CStringT@DV?$StrTraitMFC_DLL@DV?$ChTraitsCRT@D@ATL@@@@@ATL@@PAVCSkinButton@@@1@@Z
_TEXT	SEGMENT PARA USE32 PUBLIC 'CODE'
_TEXT	ENDS
;	COMDAT ??$_Destroy@U_Node@?$_List_nod@PAVCSkinButton@@V?$allocator@PAVCSkinButton@@@std@@@std@@@std@@YAXPAU_Node@?$_List_nod@PAVCSkinButton@@V?$allocator@PAVCSkinButton@@@std@@@0@@Z
_TEXT	SEGMENT PARA USE32 PUBLIC 'CODE'
_TEXT	ENDS
;	COMDAT ??$_Destroy@U_Node@?$_List_nod@PAVCSubLabel@@V?$allocator@PAVCSubLabel@@@std@@@std@@@std@@YAXPAU_Node@?$_List_nod@PAVCSubLabel@@V?$allocator@PAVCSubLabel@@@std@@@0@@Z
_TEXT	SEGMENT PARA USE32 PUBLIC 'CODE'
_TEXT	ENDS
;	COMDAT ??$_Maklocstr@D@std@@YAPADPBDPADABU_Cvtvec@@@Z
_TEXT	SEGMENT PARA USE32 PUBLIC 'CODE'
_TEXT	ENDS
;	COMDAT ??$?0PAVCSkinButton@@@?$allocator@PAU_Node@?$_List_nod@PAVCSkinButton@@V?$allocator@PAVCSkinButton@@@std@@@std@@@std@@QAE@ABV?$allocator@PAVCSkinButton@@@1@@Z
_TEXT	SEGMENT PARA USE32 PUBLIC 'CODE'
_TEXT	ENDS
;	COMDAT ??$_Allocate@U_Node@?$_List_nod@PAVCSkinButton@@V?$allocator@PAVCSkinButton@@@std@@@std@@@std@@YAPAU_Node@?$_List_nod@PAVCSkinButton@@V?$allocator@PAVCSkinButton@@@std@@@0@IPAU120@@Z
_TEXT	SEGMENT PARA USE32 PUBLIC 'CODE'
_TEXT	ENDS
;	COMDAT ??$_Construct@PAU_Node@?$_List_nod@PAVCSkinButton@@V?$allocator@PAVCSkinButton@@@std@@@std@@PAU123@@std@@YAXPAPAU_Node@?$_List_nod@PAVCSkinButton@@V?$allocator@PAVCSkinButton@@@std@@@0@ABQAU120@@Z
_TEXT	SEGMENT PARA USE32 PUBLIC 'CODE'
_TEXT	ENDS
;	COMDAT ??$_Destroy@PAU_Node@?$_List_nod@PAVCSkinButton@@V?$allocator@PAVCSkinButton@@@std@@@std@@@std@@YAXPAPAU_Node@?$_List_nod@PAVCSkinButton@@V?$allocator@PAVCSkinButton@@@std@@@0@@Z
_TEXT	SEGMENT PARA USE32 PUBLIC 'CODE'
_TEXT	ENDS
;	COMDAT ??$?0PAVCSubLabel@@@?$allocator@PAU_Node@?$_List_nod@PAVCSubLabel@@V?$allocator@PAVCSubLabel@@@std@@@std@@@std@@QAE@ABV?$allocator@PAVCSubLabel@@@1@@Z
_TEXT	SEGMENT PARA USE32 PUBLIC 'CODE'
_TEXT	ENDS
;	COMDAT ??$_Allocate@U_Node@?$_List_nod@PAVCSubLabel@@V?$allocator@PAVCSubLabel@@@std@@@std@@@std@@YAPAU_Node@?$_List_nod@PAVCSubLabel@@V?$allocator@PAVCSubLabel@@@std@@@0@IPAU120@@Z
_TEXT	SEGMENT PARA USE32 PUBLIC 'CODE'
_TEXT	ENDS
;	COMDAT ??$_Construct@PAU_Node@?$_List_nod@PAVCSubLabel@@V?$allocator@PAVCSubLabel@@@std@@@std@@PAU123@@std@@YAXPAPAU_Node@?$_List_nod@PAVCSubLabel@@V?$allocator@PAVCSubLabel@@@std@@@0@ABQAU120@@Z
_TEXT	SEGMENT PARA USE32 PUBLIC 'CODE'
_TEXT	ENDS
;	COMDAT ??$_Destroy@PAU_Node@?$_List_nod@PAVCSubLabel@@V?$allocator@PAVCSubLabel@@@std@@@std@@@std@@YAXPAPAU_Node@?$_List_nod@PAVCSubLabel@@V?$allocator@PAVCSubLabel@@@std@@@0@@Z
_TEXT	SEGMENT PARA USE32 PUBLIC 'CODE'
_TEXT	ENDS
;	COMDAT ??$_Destroy@U_Node@?$_Tree_nod@V?$_Tmap_traits@V?$CStringT@DV?$StrTraitMFC_DLL@DV?$ChTraitsCRT@D@ATL@@@@@ATL@@PAVCSkinButton@@U?$less@V?$CStringT@DV?$StrTraitMFC_DLL@DV?$ChTraitsCRT@D@ATL@@@@@ATL@@@std@@V?$allocator@U?$pair@$$CBV?$CStringT@DV?$StrTraitMFC_DLL@DV?$ChTraitsCRT@D@ATL@@@@@ATL@@PAVCSkinButton@@@std@@@5@$0A@@std@@@std@@@std@@YAXPAU_Node@?$_Tree_nod@V?$_Tmap_traits@V?$CStringT@DV?$StrTraitMFC_DLL@DV?$ChTraitsCRT@D@ATL@@@@@ATL@@PAVCSkinButton@@U?$less@V?$CStringT@DV?$StrTraitMFC_DLL@DV?$ChTraitsCRT@D@ATL@@@@@ATL@@@std@@V?$allocator@U?$pair@$$CBV?$CStringT@DV?$StrTraitMFC_DLL@DV?$ChTraitsCRT@D@ATL@@@@@ATL@@PAVCSkinButton@@@std@@@5@$0A@@std@@@0@@Z
_TEXT	SEGMENT PARA USE32 PUBLIC 'CODE'
_TEXT	ENDS
;	COMDAT ??$_Destroy@PAU_Node@?$_Tree_nod@V?$_Tmap_traits@V?$CStringT@DV?$StrTraitMFC_DLL@DV?$ChTraitsCRT@D@ATL@@@@@ATL@@PAVCSkinButton@@U?$less@V?$CStringT@DV?$StrTraitMFC_DLL@DV?$ChTraitsCRT@D@ATL@@@@@ATL@@@std@@V?$allocator@U?$pair@$$CBV?$CStringT@DV?$StrTraitMFC_DLL@DV?$ChTraitsCRT@D@ATL@@@@@ATL@@PAVCSkinButton@@@std@@@5@$0A@@std@@@std@@@std@@YAXPAPAU_Node@?$_Tree_nod@V?$_Tmap_traits@V?$CStringT@DV?$StrTraitMFC_DLL@DV?$ChTraitsCRT@D@ATL@@@@@ATL@@PAVCSkinButton@@U?$less@V?$CStringT@DV?$StrTraitMFC_DLL@DV?$ChTraitsCRT@D@ATL@@@@@ATL@@@std@@V?$allocator@U?$pair@$$CBV?$CStringT@DV?$StrTraitMFC_DLL@DV?$ChTraitsCRT@D@ATL@@@@@ATL@@PAVCSkinButton@@@std@@@5@$0A@@std@@@0@@Z
_TEXT	SEGMENT PARA USE32 PUBLIC 'CODE'
_TEXT	ENDS
;	COMDAT ??$?0PAVCSkinButton@@@?$allocator@U_Node@?$_List_nod@PAVCSkinButton@@V?$allocator@PAVCSkinButton@@@std@@@std@@@std@@QAE@ABV?$allocator@PAVCSkinButton@@@1@@Z
_TEXT	SEGMENT PARA USE32 PUBLIC 'CODE'
_TEXT	ENDS
;	COMDAT ??$?0PAVCSubLabel@@@?$allocator@U_Node@?$_List_nod@PAVCSubLabel@@V?$allocator@PAVCSubLabel@@@std@@@std@@@std@@QAE@ABV?$allocator@PAVCSubLabel@@@1@@Z
_TEXT	SEGMENT PARA USE32 PUBLIC 'CODE'
_TEXT	ENDS
;	COMDAT ??$?0U?$pair@$$CBV?$CStringT@DV?$StrTraitMFC_DLL@DV?$ChTraitsCRT@D@ATL@@@@@ATL@@PAVCSkinButton@@@std@@@?$allocator@PAU_Node@?$_Tree_nod@V?$_Tmap_traits@V?$CStringT@DV?$StrTraitMFC_DLL@DV?$ChTraitsCRT@D@ATL@@@@@ATL@@PAVCSkinButton@@U?$less@V?$CStringT@DV?$StrTraitMFC_DLL@DV?$ChTraitsCRT@D@ATL@@@@@ATL@@@std@@V?$allocator@U?$pair@$$CBV?$CStringT@DV?$StrTraitMFC_DLL@DV?$ChTraitsCRT@D@ATL@@@@@ATL@@PAVCSkinButton@@@std@@@5@$0A@@std@@@std@@@std@@QAE@ABV?$allocator@U?$pair@$$CBV?$CStringT@DV?$StrTraitMFC_DLL@DV?$ChTraitsCRT@D@ATL@@@@@ATL@@PAVCSkinButton@@@std@@@1@@Z
_TEXT	SEGMENT PARA USE32 PUBLIC 'CODE'
_TEXT	ENDS
;	COMDAT ??$_Allocate@U_Node@?$_Tree_nod@V?$_Tmap_traits@V?$CStringT@DV?$StrTraitMFC_DLL@DV?$ChTraitsCRT@D@ATL@@@@@ATL@@PAVCSkinButton@@U?$less@V?$CStringT@DV?$StrTraitMFC_DLL@DV?$ChTraitsCRT@D@ATL@@@@@ATL@@@std@@V?$allocator@U?$pair@$$CBV?$CStringT@DV?$StrTraitMFC_DLL@DV?$ChTraitsCRT@D@ATL@@@@@ATL@@PAVCSkinButton@@@std@@@5@$0A@@std@@@std@@@std@@YAPAU_Node@?$_Tree_nod@V?$_Tmap_traits@V?$CStringT@DV?$StrTraitMFC_DLL@DV?$ChTraitsCRT@D@ATL@@@@@ATL@@PAVCSkinButton@@U?$less@V?$CStringT@DV?$StrTraitMFC_DLL@DV?$ChTraitsCRT@D@ATL@@@@@ATL@@@std@@V?$allocator@U?$pair@$$CBV?$CStringT@DV?$StrTraitMFC_DLL@DV?$ChTraitsCRT@D@ATL@@@@@ATL@@PAVCSkinButton@@@std@@@5@$0A@@std@@@0@IPAU120@@Z
_TEXT	SEGMENT PARA USE32 PUBLIC 'CODE'
_TEXT	ENDS
;	COMDAT ??$?0U?$pair@$$CBV?$CStringT@DV?$StrTraitMFC_DLL@DV?$ChTraitsCRT@D@ATL@@@@@ATL@@PAVCSkinButton@@@std@@@?$allocator@U_Node@?$_Tree_nod@V?$_Tmap_traits@V?$CStringT@DV?$StrTraitMFC_DLL@DV?$ChTraitsCRT@D@ATL@@@@@ATL@@PAVCSkinButton@@U?$less@V?$CStringT@DV?$StrTraitMFC_DLL@DV?$ChTraitsCRT@D@ATL@@@@@ATL@@@std@@V?$allocator@U?$pair@$$CBV?$CStringT@DV?$StrTraitMFC_DLL@DV?$ChTraitsCRT@D@ATL@@@@@ATL@@PAVCSkinButton@@@std@@@5@$0A@@std@@@std@@@std@@QAE@ABV?$allocator@U?$pair@$$CBV?$CStringT@DV?$StrTraitMFC_DLL@DV?$ChTraitsCRT@D@ATL@@@@@ATL@@PAVCSkinButton@@@std@@@1@@Z
_TEXT	SEGMENT PARA USE32 PUBLIC 'CODE'
_TEXT	ENDS
;	COMDAT ??$_Construct@PAU_Node@?$_Tree_nod@V?$_Tmap_traits@V?$CStringT@DV?$StrTraitMFC_DLL@DV?$ChTraitsCRT@D@ATL@@@@@ATL@@PAVCSkinButton@@U?$less@V?$CStringT@DV?$StrTraitMFC_DLL@DV?$ChTraitsCRT@D@ATL@@@@@ATL@@@std@@V?$allocator@U?$pair@$$CBV?$CStringT@DV?$StrTraitMFC_DLL@DV?$ChTraitsCRT@D@ATL@@@@@ATL@@PAVCSkinButton@@@std@@@5@$0A@@std@@@std@@PAU123@@std@@YAXPAPAU_Node@?$_Tree_nod@V?$_Tmap_traits@V?$CStringT@DV?$StrTraitMFC_DLL@DV?$ChTraitsCRT@D@ATL@@@@@ATL@@PAVCSkinButton@@U?$less@V?$CStringT@DV?$StrTraitMFC_DLL@DV?$ChTraitsCRT@D@ATL@@@@@ATL@@@std@@V?$allocator@U?$pair@$$CBV?$CStringT@DV?$StrTraitMFC_DLL@DV?$ChTraitsCRT@D@ATL@@@@@ATL@@PAVCSkinButton@@@std@@@5@$0A@@std@@@0@ABQAU120@@Z
_TEXT	SEGMENT PARA USE32 PUBLIC 'CODE'
_TEXT	ENDS
;	COMDAT ??_G_Node@?$_Tree_nod@V?$_Tmap_traits@V?$CStringT@DV?$StrTraitMFC_DLL@DV?$ChTraitsCRT@D@ATL@@@@@ATL@@PAVCSkinButton@@U?$less@V?$CStringT@DV?$StrTraitMFC_DLL@DV?$ChTraitsCRT@D@ATL@@@@@ATL@@@std@@V?$allocator@U?$pair@$$CBV?$CStringT@DV?$StrTraitMFC_DLL@DV?$ChTraitsCRT@D@ATL@@@@@ATL@@PAVCSkinButton@@@std@@@5@$0A@@std@@@std@@QAEPAXI@Z
_TEXT	SEGMENT PARA USE32 PUBLIC 'CODE'
_TEXT	ENDS
;	COMDAT ??1_Node@?$_Tree_nod@V?$_Tmap_traits@V?$CStringT@DV?$StrTraitMFC_DLL@DV?$ChTraitsCRT@D@ATL@@@@@ATL@@PAVCSkinButton@@U?$less@V?$CStringT@DV?$StrTraitMFC_DLL@DV?$ChTraitsCRT@D@ATL@@@@@ATL@@@std@@V?$allocator@U?$pair@$$CBV?$CStringT@DV?$StrTraitMFC_DLL@DV?$ChTraitsCRT@D@ATL@@@@@ATL@@PAVCSkinButton@@@std@@@5@$0A@@std@@@std@@QAE@XZ
_TEXT	SEGMENT PARA USE32 PUBLIC 'CODE'
_TEXT	ENDS
;	COMDAT ??_R3DIBINFO@@8
rdata$r	SEGMENT DWORD USE32 PUBLIC 'CONST'
rdata$r	ENDS
;	COMDAT ??_R3IEventListener@@8
rdata$r	SEGMENT DWORD USE32 PUBLIC 'CONST'
rdata$r	ENDS
;	COMDAT ??_R3HTTPObserver@@8
rdata$r	SEGMENT DWORD USE32 PUBLIC 'CONST'
rdata$r	ENDS
;	COMDAT ??_R3CGdiPlusBitmap@@8
rdata$r	SEGMENT DWORD USE32 PUBLIC 'CONST'
rdata$r	ENDS
;	COMDAT ??_R3?$numpunct@_W@std@@8
rdata$r	SEGMENT DWORD USE32 PUBLIC 'CONST'
rdata$r	ENDS
;	COMDAT ??_R3?$numpunct@D@std@@8
rdata$r	SEGMENT DWORD USE32 PUBLIC 'CONST'
rdata$r	ENDS
;	COMDAT ??_R3IData@@8
rdata$r	SEGMENT DWORD USE32 PUBLIC 'CONST'
rdata$r	ENDS
;	COMDAT ??_R3P2PObserver@@8
rdata$r	SEGMENT DWORD USE32 PUBLIC 'CONST'
rdata$r	ENDS
;	COMDAT ??_R3CSubjectChildWnd@@8
rdata$r	SEGMENT DWORD USE32 PUBLIC 'CONST'
rdata$r	ENDS
;	COMDAT ??_R3CGdiPlusBitmap@CSkinButton@@8
rdata$r	SEGMENT DWORD USE32 PUBLIC 'CONST'
rdata$r	ENDS
;	COMDAT ??_R2DIBINFO@@8
rdata$r	SEGMENT DWORD USE32 PUBLIC 'CONST'
rdata$r	ENDS
;	COMDAT ??_R2IEventListener@@8
rdata$r	SEGMENT DWORD USE32 PUBLIC 'CONST'
rdata$r	ENDS
;	COMDAT ??_R2HTTPObserver@@8
rdata$r	SEGMENT DWORD USE32 PUBLIC 'CONST'
rdata$r	ENDS
;	COMDAT ??_R2CGdiPlusBitmap@@8
rdata$r	SEGMENT DWORD USE32 PUBLIC 'CONST'
rdata$r	ENDS
;	COMDAT ??_R2?$numpunct@_W@std@@8
rdata$r	SEGMENT DWORD USE32 PUBLIC 'CONST'
rdata$r	ENDS
;	COMDAT ??_R2?$numpunct@D@std@@8
rdata$r	SEGMENT DWORD USE32 PUBLIC 'CONST'
rdata$r	ENDS
;	COMDAT ??_R2IData@@8
rdata$r	SEGMENT DWORD USE32 PUBLIC 'CONST'
rdata$r	ENDS
;	COMDAT ??_R2P2PObserver@@8
rdata$r	SEGMENT DWORD USE32 PUBLIC 'CONST'
rdata$r	ENDS
;	COMDAT ??_R2CSubjectChildWnd@@8
rdata$r	SEGMENT DWORD USE32 PUBLIC 'CONST'
rdata$r	ENDS
;	COMDAT ??_R2CGdiPlusBitmap@CSkinButton@@8
rdata$r	SEGMENT DWORD USE32 PUBLIC 'CONST'
rdata$r	ENDS
;	COMDAT ??_R1A@?0A@A@DIBINFO@@8
rdata$r	SEGMENT DWORD USE32 PUBLIC 'CONST'
rdata$r	ENDS
;	COMDAT ??_R1A@?0A@A@IEventListener@@8
rdata$r	SEGMENT DWORD USE32 PUBLIC 'CONST'
rdata$r	ENDS
;	COMDAT ??_R1A@?0A@A@HTTPObserver@@8
rdata$r	SEGMENT DWORD USE32 PUBLIC 'CONST'
rdata$r	ENDS
;	COMDAT ??_R1A@?0A@A@CGdiPlusBitmap@@8
rdata$r	SEGMENT DWORD USE32 PUBLIC 'CONST'
rdata$r	ENDS
;	COMDAT ??_R1A@?0A@A@?$numpunct@_W@std@@8
rdata$r	SEGMENT DWORD USE32 PUBLIC 'CONST'
rdata$r	ENDS
;	COMDAT ??_R1A@?0A@A@facet@locale@std@@8
rdata$r	SEGMENT DWORD USE32 PUBLIC 'CONST'
rdata$r	ENDS
;	COMDAT ??_R0?AVfacet@locale@std@@@8
_DATA	SEGMENT DWORD USE32 PUBLIC 'DATA'
_DATA	ENDS
;	COMDAT ??_R1A@?0A@A@?$numpunct@D@std@@8
rdata$r	SEGMENT DWORD USE32 PUBLIC 'CONST'
rdata$r	ENDS
;	COMDAT ??_R1A@?0A@A@IData@@8
rdata$r	SEGMENT DWORD USE32 PUBLIC 'CONST'
rdata$r	ENDS
;	COMDAT ??_R1A@?0A@A@P2PObserver@@8
rdata$r	SEGMENT DWORD USE32 PUBLIC 'CONST'
rdata$r	ENDS
;	COMDAT ??_R1NE@?0A@A@IEventListener@@8
rdata$r	SEGMENT DWORD USE32 PUBLIC 'CONST'
rdata$r	ENDS
;	COMDAT ??_R1A@?0A@A@CObject@@8
rdata$r	SEGMENT DWORD USE32 PUBLIC 'CONST'
rdata$r	ENDS
;	COMDAT ??_R0?AVCObject@@@8
_DATA	SEGMENT DWORD USE32 PUBLIC 'DATA'
_DATA	ENDS
;	COMDAT ??_R1A@?0A@A@CCmdTarget@@8
rdata$r	SEGMENT DWORD USE32 PUBLIC 'CONST'
rdata$r	ENDS
;	COMDAT ??_R0?AVCCmdTarget@@@8
_DATA	SEGMENT DWORD USE32 PUBLIC 'DATA'
_DATA	ENDS
;	COMDAT ??_R1A@?0A@A@CWnd@@8
rdata$r	SEGMENT DWORD USE32 PUBLIC 'CONST'
rdata$r	ENDS
;	COMDAT ??_R0?AVCWnd@@@8
_DATA	SEGMENT DWORD USE32 PUBLIC 'DATA'
_DATA	ENDS
;	COMDAT ??_R1A@?0A@A@CFrameWnd@@8
rdata$r	SEGMENT DWORD USE32 PUBLIC 'CONST'
rdata$r	ENDS
;	COMDAT ??_R1A@?0A@A@CSubjectChildWnd@@8
rdata$r	SEGMENT DWORD USE32 PUBLIC 'CONST'
rdata$r	ENDS
;	COMDAT ??_R1A@?0A@A@CGdiPlusBitmap@CSkinButton@@8
rdata$r	SEGMENT DWORD USE32 PUBLIC 'CONST'
rdata$r	ENDS
;	COMDAT ??_R0?AVDIBINFO@@@8
_DATA	SEGMENT DWORD USE32 PUBLIC 'DATA'
_DATA	ENDS
;	COMDAT ??_R0?AVHTTPObserver@@@8
_DATA	SEGMENT DWORD USE32 PUBLIC 'DATA'
_DATA	ENDS
;	COMDAT ??_R0?AVCGdiPlusBitmap@@@8
_DATA	SEGMENT DWORD USE32 PUBLIC 'DATA'
_DATA	ENDS
;	COMDAT ??_R0?AV?$numpunct@_W@std@@@8
_DATA	SEGMENT DWORD USE32 PUBLIC 'DATA'
_DATA	ENDS
;	COMDAT ??_R0?AV?$numpunct@D@std@@@8
_DATA	SEGMENT DWORD USE32 PUBLIC 'DATA'
_DATA	ENDS
;	COMDAT ??_R0?AVIData@@@8
_DATA	SEGMENT DWORD USE32 PUBLIC 'DATA'
_DATA	ENDS
;	COMDAT ??_R0?AVP2PObserver@@@8
_DATA	SEGMENT DWORD USE32 PUBLIC 'DATA'
_DATA	ENDS
;	COMDAT ??_R0?AVIEventListener@@@8
_DATA	SEGMENT DWORD USE32 PUBLIC 'DATA'
_DATA	ENDS
;	COMDAT ??_R0?AVCFrameWnd@@@8
_DATA	SEGMENT DWORD USE32 PUBLIC 'DATA'
_DATA	ENDS
;	COMDAT ??_R0?AVCSubjectChildWnd@@@8
_DATA	SEGMENT DWORD USE32 PUBLIC 'DATA'
_DATA	ENDS
;	COMDAT ??_R0?AVCGdiPlusBitmap@CSkinButton@@@8
_DATA	SEGMENT DWORD USE32 PUBLIC 'DATA'
_DATA	ENDS
;	COMDAT ??_R4DIBINFO@@6B@
rdata$r	SEGMENT DWORD USE32 PUBLIC 'CONST'
rdata$r	ENDS
;	COMDAT ??_R4IEventListener@@6B@
rdata$r	SEGMENT DWORD USE32 PUBLIC 'CONST'
rdata$r	ENDS
;	COMDAT ??_R4HTTPObserver@@6B@
rdata$r	SEGMENT DWORD USE32 PUBLIC 'CONST'
rdata$r	ENDS
;	COMDAT ??_R4CGdiPlusBitmap@@6B@
rdata$r	SEGMENT DWORD USE32 PUBLIC 'CONST'
rdata$r	ENDS
;	COMDAT ??0?$allocator@_W@std@@QAE@XZ
_TEXT	SEGMENT PARA USE32 PUBLIC 'CODE'
_TEXT	ENDS
;	COMDAT ??_G?$numpunct@_W@std@@MAEPAXI@Z
_TEXT	SEGMENT PARA USE32 PUBLIC 'CODE'
_TEXT	ENDS
;	COMDAT ??_R4?$numpunct@_W@std@@6B@
rdata$r	SEGMENT DWORD USE32 PUBLIC 'CONST'
rdata$r	ENDS
;	COMDAT ??_G?$numpunct@D@std@@MAEPAXI@Z
_TEXT	SEGMENT PARA USE32 PUBLIC 'CODE'
_TEXT	ENDS
;	COMDAT ??_R4?$numpunct@D@std@@6B@
rdata$r	SEGMENT DWORD USE32 PUBLIC 'CONST'
rdata$r	ENDS
;	COMDAT ??_R4IData@@6B@
rdata$r	SEGMENT DWORD USE32 PUBLIC 'CONST'
rdata$r	ENDS
;	COMDAT ??_R4P2PObserver@@6B@
rdata$r	SEGMENT DWORD USE32 PUBLIC 'CONST'
rdata$r	ENDS
;	COMDAT ??_R4CSubjectChildWnd@@6BIEventListener@@@
rdata$r	SEGMENT DWORD USE32 PUBLIC 'CONST'
rdata$r	ENDS
;	COMDAT ??_R4CSubjectChildWnd@@6BCFrameWnd@@@
rdata$r	SEGMENT DWORD USE32 PUBLIC 'CONST'
rdata$r	ENDS
;	COMDAT ??_R4CGdiPlusBitmap@CSkinButton@@6B@
rdata$r	SEGMENT DWORD USE32 PUBLIC 'CONST'
rdata$r	ENDS
;	COMDAT ??_C@_0EN@CBMLGOH@D?3?2Program?5Files?5?$CIx86?$CJ?2Microsoft@
CONST	SEGMENT DWORD USE32 PUBLIC 'CONST'
CONST	ENDS
;	COMDAT ?_Psave@?$_Facetptr@V?$numpunct@_W@std@@@std@@2PBVfacet@locale@2@B
_DATA	SEGMENT DWORD USE32 PUBLIC 'DATA'
_DATA	ENDS
;	COMDAT ?_Psave@?$_Facetptr@V?$numpunct@D@std@@@std@@2PBVfacet@locale@2@B
_DATA	SEGMENT DWORD USE32 PUBLIC 'DATA'
_DATA	ENDS
;	COMDAT ?Unlock@CComCriticalSection@ATL@@QAEJXZ
_TEXT	SEGMENT PARA USE32 PUBLIC 'CODE'
_TEXT	ENDS
;	COMDAT ??_C@_0FG@LDNDNCJM@D?3?2Program?5Files?5?$CIx86?$CJ?2Microsoft@
CONST	SEGMENT DWORD USE32 PUBLIC 'CONST'
CONST	ENDS
;	COMDAT ??_C@_09HIEJFN@m_bLocked?$AA@
CONST	SEGMENT DWORD USE32 PUBLIC 'CONST'
CONST	ENDS
;	COMDAT ?_Psave@?$_Facetptr@V?$ctype@_W@std@@@std@@2PBVfacet@locale@2@B
_DATA	SEGMENT DWORD USE32 PUBLIC 'DATA'
_DATA	ENDS
;	COMDAT ?_Psave@?$_Facetptr@V?$ctype@D@std@@@std@@2PBVfacet@locale@2@B
_DATA	SEGMENT DWORD USE32 PUBLIC 'DATA'
_DATA	ENDS
;	COMDAT ??$swap@D@std@@YAXAAD0@Z
_TEXT	SEGMENT PARA USE32 PUBLIC 'CODE'
_TEXT	ENDS
;	COMDAT __TI3?AVout_of_range@std@@
xdata$x	SEGMENT DWORD USE32 PUBLIC 'CONST'
xdata$x	ENDS
;	COMDAT ??1out_of_range@std@@UAE@XZ
_TEXT	SEGMENT PARA USE32 PUBLIC 'CODE'
_TEXT	ENDS
;	COMDAT ??_7out_of_range@std@@6B@
CONST	SEGMENT DWORD USE32 PUBLIC 'CONST'
CONST	ENDS
;	COMDAT ??_R4out_of_range@std@@6B@
rdata$r	SEGMENT DWORD USE32 PUBLIC 'CONST'
rdata$r	ENDS
;	COMDAT ??_R0?AVout_of_range@std@@@8
_DATA	SEGMENT DWORD USE32 PUBLIC 'DATA'
_DATA	ENDS
;	COMDAT ??_R3out_of_range@std@@8
rdata$r	SEGMENT DWORD USE32 PUBLIC 'CONST'
rdata$r	ENDS
;	COMDAT ??_R2out_of_range@std@@8
rdata$r	SEGMENT DWORD USE32 PUBLIC 'CONST'
rdata$r	ENDS
;	COMDAT ??_R1A@?0A@A@out_of_range@std@@8
rdata$r	SEGMENT DWORD USE32 PUBLIC 'CONST'
rdata$r	ENDS
;	COMDAT ??_R1A@?0A@A@logic_error@std@@8
rdata$r	SEGMENT DWORD USE32 PUBLIC 'CONST'
rdata$r	ENDS
;	COMDAT ??_R0?AVlogic_error@std@@@8
_DATA	SEGMENT DWORD USE32 PUBLIC 'DATA'
_DATA	ENDS
;	COMDAT ??_R1A@?0A@A@exception@@8
rdata$r	SEGMENT DWORD USE32 PUBLIC 'CONST'
rdata$r	ENDS
;	COMDAT ??_R0?AVexception@@@8
_DATA	SEGMENT DWORD USE32 PUBLIC 'DATA'
_DATA	ENDS
;	COMDAT ??_Gout_of_range@std@@UAEPAXI@Z
_TEXT	SEGMENT PARA USE32 PUBLIC 'CODE'
_TEXT	ENDS
;	COMDAT ?what@logic_error@std@@UBEPBDXZ
_TEXT	SEGMENT PARA USE32 PUBLIC 'CODE'
_TEXT	ENDS
;	COMDAT __CTA3?AVout_of_range@std@@
xdata$x	SEGMENT DWORD USE32 PUBLIC 'CONST'
xdata$x	ENDS
;	COMDAT __CT??_R0?AVout_of_range@std@@@8??0out_of_range@std@@QAE@ABV01@@Z40
xdata$x	SEGMENT DWORD USE32 PUBLIC 'CONST'
xdata$x	ENDS
;	COMDAT ??0out_of_range@std@@QAE@ABV01@@Z
_TEXT	SEGMENT PARA USE32 PUBLIC 'CODE'
_TEXT	ENDS
;	COMDAT ??_C@_0BM@PAPJHAGI@invalid?5map?1set?$DMT?$DO?5iterator?$AA@
CONST	SEGMENT DWORD USE32 PUBLIC 'CONST'
CONST	ENDS
;	COMDAT ??0out_of_range@std@@QAE@ABV?$basic_string@DU?$char_traits@D@std@@V?$allocator@D@2@@1@@Z
_TEXT	SEGMENT PARA USE32 PUBLIC 'CODE'
_TEXT	ENDS
;	COMDAT ??0logic_error@std@@QAE@ABV?$basic_string@DU?$char_traits@D@std@@V?$allocator@D@2@@1@@Z
_TEXT	SEGMENT PARA USE32 PUBLIC 'CODE'
_TEXT	ENDS
;	COMDAT ??_7logic_error@std@@6B@
CONST	SEGMENT DWORD USE32 PUBLIC 'CONST'
CONST	ENDS
;	COMDAT ??_R4logic_error@std@@6B@
rdata$r	SEGMENT DWORD USE32 PUBLIC 'CONST'
rdata$r	ENDS
;	COMDAT ??_R3logic_error@std@@8
rdata$r	SEGMENT DWORD USE32 PUBLIC 'CONST'
rdata$r	ENDS
;	COMDAT ??_R2logic_error@std@@8
rdata$r	SEGMENT DWORD USE32 PUBLIC 'CONST'
rdata$r	ENDS
;	COMDAT ??_Glogic_error@std@@UAEPAXI@Z
_TEXT	SEGMENT PARA USE32 PUBLIC 'CODE'
_TEXT	ENDS
;	COMDAT ??3@YAXPAX0@Z
_TEXT	SEGMENT PARA USE32 PUBLIC 'CODE'
_TEXT	ENDS
;	COMDAT ??2@YAPAXIPAX@Z
_TEXT	SEGMENT PARA USE32 PUBLIC 'CODE'
_TEXT	ENDS
;	COMDAT ??$_Maklocchr@_W@std@@YA_WDPA_WABU_Cvtvec@@@Z
_TEXT	SEGMENT PARA USE32 PUBLIC 'CODE'
_TEXT	ENDS
;	COMDAT ??$_DebugHeapDelete@X@std@@YAXPAX@Z
_TEXT	SEGMENT PARA USE32 PUBLIC 'CODE'
_TEXT	ENDS
;	COMDAT ??$_Maklocstr@_W@std@@YAPA_WPBDPA_WABU_Cvtvec@@@Z
_TEXT	SEGMENT PARA USE32 PUBLIC 'CODE'
_TEXT	ENDS
;	COMDAT ??$_Maklocchr@D@std@@YADDPADABU_Cvtvec@@@Z
_TEXT	SEGMENT PARA USE32 PUBLIC 'CODE'
_TEXT	ENDS
;	COMDAT ??_C@_04LOAJBDKD@true?$AA@
CONST	SEGMENT DWORD USE32 PUBLIC 'CONST'
CONST	ENDS
;	COMDAT ??_C@_05LAPONLG@false?$AA@
CONST	SEGMENT DWORD USE32 PUBLIC 'CONST'
CONST	ENDS
;	COMDAT _wmemcpy
_TEXT	SEGMENT PARA USE32 PUBLIC 'CODE'
_TEXT	ENDS
;	COMDAT ?max_size@?$allocator@_W@std@@QBEIXZ
_TEXT	SEGMENT PARA USE32 PUBLIC 'CODE'
_TEXT	ENDS
;	COMDAT ?allocate@?$allocator@_W@std@@QAEPA_WI@Z
_TEXT	SEGMENT PARA USE32 PUBLIC 'CODE'
_TEXT	ENDS
;	COMDAT ??$_Allocate@_W@std@@YAPA_WIPA_W@Z
_TEXT	SEGMENT PARA USE32 PUBLIC 'CODE'
_TEXT	ENDS
;	COMDAT ??_7length_error@std@@6B@
CONST	SEGMENT DWORD USE32 PUBLIC 'CONST'
CONST	ENDS
;	COMDAT ??_R4length_error@std@@6B@
rdata$r	SEGMENT DWORD USE32 PUBLIC 'CONST'
rdata$r	ENDS
;	COMDAT ??_R3length_error@std@@8
rdata$r	SEGMENT DWORD USE32 PUBLIC 'CONST'
rdata$r	ENDS
;	COMDAT ??_R2length_error@std@@8
rdata$r	SEGMENT DWORD USE32 PUBLIC 'CONST'
rdata$r	ENDS
;	COMDAT ??_R1A@?0A@A@length_error@std@@8
rdata$r	SEGMENT DWORD USE32 PUBLIC 'CONST'
rdata$r	ENDS
;	COMDAT ??_Glength_error@std@@UAEPAXI@Z
_TEXT	SEGMENT PARA USE32 PUBLIC 'CODE'
_TEXT	ENDS
;	COMDAT ??1logic_error@std@@UAE@XZ
_TEXT	SEGMENT PARA USE32 PUBLIC 'CODE'
_TEXT	ENDS
;	COMDAT ??0logic_error@std@@QAE@ABV01@@Z
_TEXT	SEGMENT PARA USE32 PUBLIC 'CODE'
_TEXT	ENDS
;	COMDAT __CTA3?AVlength_error@std@@
xdata$x	SEGMENT DWORD USE32 PUBLIC 'CONST'
xdata$x	ENDS
;	COMDAT ??1length_error@std@@UAE@XZ
_TEXT	SEGMENT PARA USE32 PUBLIC 'CODE'
_TEXT	ENDS
;	COMDAT __CT??_R0?AVexception@@@8??0exception@@QAE@ABV0@@Z12
xdata$x	SEGMENT DWORD USE32 PUBLIC 'CONST'
xdata$x	ENDS
;	COMDAT __CT??_R0?AVlogic_error@std@@@8??0logic_error@std@@QAE@ABV01@@Z40
xdata$x	SEGMENT DWORD USE32 PUBLIC 'CONST'
xdata$x	ENDS
;	COMDAT __CT??_R0?AVlength_error@std@@@8??0length_error@std@@QAE@ABV01@@Z40
xdata$x	SEGMENT DWORD USE32 PUBLIC 'CONST'
xdata$x	ENDS
;	COMDAT ??_R0?AVlength_error@std@@@8
_DATA	SEGMENT DWORD USE32 PUBLIC 'DATA'
_DATA	ENDS
;	COMDAT __TI3?AVlength_error@std@@
xdata$x	SEGMENT DWORD USE32 PUBLIC 'CONST'
xdata$x	ENDS
;	COMDAT ??0length_error@std@@QAE@ABV?$basic_string@DU?$char_traits@D@std@@V?$allocator@D@2@@1@@Z
_TEXT	SEGMENT PARA USE32 PUBLIC 'CODE'
_TEXT	ENDS
;	COMDAT ??_C@_01GFHCPBMG@C?$AA@
CONST	SEGMENT DWORD USE32 PUBLIC 'CONST'
CONST	ENDS
;	COMDAT ?max_size@?$allocator@D@std@@QBEIXZ
_TEXT	SEGMENT PARA USE32 PUBLIC 'CODE'
_TEXT	ENDS
;	COMDAT ?allocate@?$allocator@D@std@@QAEPADI@Z
_TEXT	SEGMENT PARA USE32 PUBLIC 'CODE'
_TEXT	ENDS
;	COMDAT ??$_Allocate@D@std@@YAPADIPAD@Z
_TEXT	SEGMENT PARA USE32 PUBLIC 'CODE'
_TEXT	ENDS
;	COMDAT ?deallocate@?$allocator@D@std@@QAEXPADI@Z
_TEXT	SEGMENT PARA USE32 PUBLIC 'CODE'
_TEXT	ENDS
;	COMDAT ??0?$allocator@D@std@@QAE@XZ
_TEXT	SEGMENT PARA USE32 PUBLIC 'CODE'
_TEXT	ENDS
;	COMDAT ??0?$allocator@D@std@@QAE@ABV01@@Z
_TEXT	SEGMENT PARA USE32 PUBLIC 'CODE'
_TEXT	ENDS
;	COMDAT ??_C@_0FH@KDPNIMBO@D?3?2Program?5Files?5?$CIx86?$CJ?2Microsoft@
CONST	SEGMENT DWORD USE32 PUBLIC 'CONST'
CONST	ENDS
;	COMDAT ?AtlIsValidString@ATL@@YAHPBDI@Z
_TEXT	SEGMENT PARA USE32 PUBLIC 'CODE'
_TEXT	ENDS
;	COMDAT ?Release@CStringData@ATL@@QAEXXZ
_TEXT	SEGMENT PARA USE32 PUBLIC 'CODE'
_TEXT	ENDS
;	COMDAT ??_C@_0L@OIIMFBNE@nRefs?5?$CB?$DN?50?$AA@
CONST	SEGMENT DWORD USE32 PUBLIC 'CONST'
CONST	ENDS
;	COMDAT ??_C@_0FJ@DMHPDOJC@D?3?2Program?5Files?5?$CIx86?$CJ?2Microsoft@
CONST	SEGMENT DWORD USE32 PUBLIC 'CONST'
CONST	ENDS
;	COMDAT ??_C@_0BA@GOIMFHNK@pStringMgr?5?$CB?$DN?50?$AA@
CONST	SEGMENT DWORD USE32 PUBLIC 'CONST'
CONST	ENDS
;	COMDAT ?data@CStringData@ATL@@QAEPAXXZ
_TEXT	SEGMENT PARA USE32 PUBLIC 'CODE'
_TEXT	ENDS
;	COMDAT ??_C@_0BA@GNIEOBOF@nNewLength?5?$DO?$DN?50?$AA@
CONST	SEGMENT DWORD USE32 PUBLIC 'CONST'
CONST	ENDS
;	COMDAT ??_C@_0N@ILOMLJGA@nLength?5?$DO?$DN?50?$AA@
CONST	SEGMENT DWORD USE32 PUBLIC 'CONST'
CONST	ENDS
;	COMDAT ??_C@_0CD@EEFFJEGJ@nLength?5?$DM?$DN?5GetData?$CI?$CJ?9?$DOnAllocLeng@
CONST	SEGMENT DWORD USE32 PUBLIC 'CONST'
CONST	ENDS
;	COMDAT ?AtlThrow@ATL@@YGXJ@Z
_TEXT	SEGMENT PARA USE32 PUBLIC 'CODE'
_TEXT	ENDS
;	COMDAT ??RCTraceFileAndLineInfo@ATL@@QBAXKIPBDZZ
_TEXT	SEGMENT PARA USE32 PUBLIC 'CODE'
_TEXT	ENDS
;	COMDAT ?TraceV@CTrace@ATL@@QBAXPBDHKI0PAD@Z
_TEXT	SEGMENT PARA USE32 PUBLIC 'CODE'
_TEXT	ENDS
;	COMDAT ??0CTraceFileAndLineInfo@ATL@@QAE@PBDH@Z
_TEXT	SEGMENT PARA USE32 PUBLIC 'CODE'
_TEXT	ENDS
;	COMDAT ??_C@_0FI@NHHJANPC@D?3?2Program?5Files?5?$CIx86?$CJ?2Microsoft@
CONST	SEGMENT DWORD USE32 PUBLIC 'CONST'
CONST	ENDS
;	COMDAT ??_C@_0BF@IAAKIJDJ@AtlThrow?3?5hr?5?$DN?50x?$CFx?6?$AA@
CONST	SEGMENT DWORD USE32 PUBLIC 'CONST'
CONST	ENDS
;	COMDAT ??BCTraceCategory@ATL@@QBEKXZ
_TEXT	SEGMENT PARA USE32 PUBLIC 'CODE'
_TEXT	ENDS
;	COMDAT ?IsShared@CStringData@ATL@@QBE_NXZ
_TEXT	SEGMENT PARA USE32 PUBLIC 'CODE'
_TEXT	ENDS
;	COMDAT ??_C@_0CB@GFHAPKDK@pOldData?9?$DOnAllocLength?5?$DM?5nLength@
CONST	SEGMENT DWORD USE32 PUBLIC 'CONST'
CONST	ENDS
;	COMDAT ?GetDefaultManager@?$StrTraitMFC_DLL@DV?$ChTraitsCRT@D@ATL@@@@SAPAUIAtlStringMgr@ATL@@XZ
_TEXT	SEGMENT PARA USE32 PUBLIC 'CODE'
_TEXT	ENDS
;	COMDAT ?_Peek@?$istreambuf_iterator@_WU?$char_traits@_W@std@@@std@@AAE_WXZ
_TEXT	SEGMENT PARA USE32 PUBLIC 'CODE'
_TEXT	ENDS
;	COMDAT ?_Peek@?$istreambuf_iterator@DU?$char_traits@D@std@@@std@@AAEDXZ
_TEXT	SEGMENT PARA USE32 PUBLIC 'CODE'
_TEXT	ENDS
;	COMDAT ??$use_facet@V?$ctype@_W@std@@@std@@YAABV?$ctype@_W@0@ABVlocale@0@@Z
_TEXT	SEGMENT PARA USE32 PUBLIC 'CODE'
_TEXT	ENDS
;	COMDAT ??_S?$ctype@_W@std@@6B@
CONST	SEGMENT DWORD USE32 PUBLIC 'CONST'
CONST	ENDS
;	COMDAT ??_R4?$ctype@_W@std@@6B@
rdata$r	SEGMENT DWORD USE32 PUBLIC 'CONST'
rdata$r	ENDS
;	COMDAT ??_R0?AV?$ctype@_W@std@@@8
_DATA	SEGMENT DWORD USE32 PUBLIC 'DATA'
_DATA	ENDS
;	COMDAT ??_R3?$ctype@_W@std@@8
rdata$r	SEGMENT DWORD USE32 PUBLIC 'CONST'
rdata$r	ENDS
;	COMDAT ??_R2?$ctype@_W@std@@8
rdata$r	SEGMENT DWORD USE32 PUBLIC 'CONST'
rdata$r	ENDS
;	COMDAT ??_R1A@?0A@A@?$ctype@_W@std@@8
rdata$r	SEGMENT DWORD USE32 PUBLIC 'CONST'
rdata$r	ENDS
;	COMDAT ??_R1A@?0A@A@ctype_base@std@@8
rdata$r	SEGMENT DWORD USE32 PUBLIC 'CONST'
rdata$r	ENDS
;	COMDAT ??_R0?AUctype_base@std@@@8
_DATA	SEGMENT DWORD USE32 PUBLIC 'DATA'
_DATA	ENDS
;	COMDAT ??_G?$ctype@_W@std@@MAEPAXI@Z
_TEXT	SEGMENT PARA USE32 PUBLIC 'CODE'
_TEXT	ENDS
;	COMDAT ??_C@_08EPJLHIJG@bad?5cast?$AA@
CONST	SEGMENT DWORD USE32 PUBLIC 'CONST'
CONST	ENDS
;	COMDAT __TI2?AVbad_cast@@
xdata$x	SEGMENT DWORD USE32 PUBLIC 'CONST'
xdata$x	ENDS
;	COMDAT __CTA2?AVbad_cast@@
xdata$x	SEGMENT DWORD USE32 PUBLIC 'CONST'
xdata$x	ENDS
;	COMDAT __CT??_R0?AVbad_cast@@@8??0bad_cast@@QAE@ABV0@@Z12
xdata$x	SEGMENT DWORD USE32 PUBLIC 'CONST'
xdata$x	ENDS
;	COMDAT ??_R0?AVbad_cast@@@8
_DATA	SEGMENT DWORD USE32 PUBLIC 'DATA'
_DATA	ENDS
;	COMDAT ??$_DebugHeapDelete@Vfacet@locale@std@@@std@@YAXPAVfacet@locale@0@@Z
_TEXT	SEGMENT PARA USE32 PUBLIC 'CODE'
_TEXT	ENDS
;	COMDAT ??$use_facet@V?$ctype@D@std@@@std@@YAABV?$ctype@D@0@ABVlocale@0@@Z
_TEXT	SEGMENT PARA USE32 PUBLIC 'CODE'
_TEXT	ENDS
;	COMDAT ??_S?$ctype@D@std@@6B@
CONST	SEGMENT DWORD USE32 PUBLIC 'CONST'
CONST	ENDS
;	COMDAT ??_R4?$ctype@D@std@@6B@
rdata$r	SEGMENT DWORD USE32 PUBLIC 'CONST'
rdata$r	ENDS
;	COMDAT ??_R0?AV?$ctype@D@std@@@8
_DATA	SEGMENT DWORD USE32 PUBLIC 'DATA'
_DATA	ENDS
;	COMDAT ??_R3?$ctype@D@std@@8
rdata$r	SEGMENT DWORD USE32 PUBLIC 'CONST'
rdata$r	ENDS
;	COMDAT ??_R2?$ctype@D@std@@8
rdata$r	SEGMENT DWORD USE32 PUBLIC 'CONST'
rdata$r	ENDS
;	COMDAT ??_R1A@?0A@A@?$ctype@D@std@@8
rdata$r	SEGMENT DWORD USE32 PUBLIC 'CONST'
rdata$r	ENDS
;	COMDAT ??_G?$ctype@D@std@@MAEPAXI@Z
_TEXT	SEGMENT PARA USE32 PUBLIC 'CODE'
_TEXT	ENDS
;	COMDAT ??_S?$numpunct@_W@std@@6B@
CONST	SEGMENT DWORD USE32 PUBLIC 'CONST'
CONST	ENDS
;	COMDAT ??_S?$numpunct@D@std@@6B@
CONST	SEGMENT DWORD USE32 PUBLIC 'CONST'
CONST	ENDS
;	COMDAT _wmemmove
_TEXT	SEGMENT PARA USE32 PUBLIC 'CODE'
_TEXT	ENDS
;	COMDAT ?deallocate@?$allocator@_W@std@@QAEXPA_WI@Z
_TEXT	SEGMENT PARA USE32 PUBLIC 'CODE'
_TEXT	ENDS
;	COMDAT ??0?$allocator@_W@std@@QAE@ABV01@@Z
_TEXT	SEGMENT PARA USE32 PUBLIC 'CODE'
_TEXT	ENDS
;	COMDAT ?IsLocked@CStringData@ATL@@QBE_NXZ
_TEXT	SEGMENT PARA USE32 PUBLIC 'CODE'
_TEXT	ENDS
;	COMDAT ??$?HDU?$char_traits@D@std@@V?$allocator@D@1@@std@@YA?AV?$basic_string@DU?$char_traits@D@std@@V?$allocator@D@2@@0@ABV10@PBD@Z
_TEXT	SEGMENT PARA USE32 PUBLIC 'CODE'
_TEXT	ENDS
;	COMDAT ?_messageEntries@CSubjectChildWnd@@0QBUAFX_MSGMAP_ENTRY@@B
CONST	SEGMENT DWORD USE32 PUBLIC 'CONST'
CONST	ENDS
;	COMDAT ?messageMap@CSubjectChildWnd@@1UAFX_MSGMAP@@B
CONST	SEGMENT DWORD USE32 PUBLIC 'CONST'
CONST	ENDS
;	COMDAT ??_7IEventListener@@6B@
CONST	SEGMENT DWORD USE32 PUBLIC 'CONST'
CONST	ENDS
;	COMDAT ??_7CSubjectChildWnd@@6BIEventListener@@@
CONST	SEGMENT DWORD USE32 PUBLIC 'CONST'
CONST	ENDS
;	COMDAT ??_7CSubjectChildWnd@@6BCFrameWnd@@@
CONST	SEGMENT DWORD USE32 PUBLIC 'CONST'
CONST	ENDS
;	COMDAT ?classCSubjectChildWnd@CSubjectChildWnd@@2UCRuntimeClass@@B
CONST	SEGMENT DWORD USE32 PUBLIC 'CONST'
CONST	ENDS
;	COMDAT ?clsid@?1??GetClsid@CShockwaveFlash@@QAEABU_GUID@@XZ@4U3@B
CONST	SEGMENT DWORD USE32 PUBLIC 'CONST'
CONST	ENDS
;	COMDAT ??_7P2PObserver@@6B@
CONST	SEGMENT DWORD USE32 PUBLIC 'CONST'
CONST	ENDS
;	COMDAT ??_7HTTPObserver@@6B@
CONST	SEGMENT DWORD USE32 PUBLIC 'CONST'
CONST	ENDS
;	COMDAT ??_7CGdiPlusBitmap@@6B@
CONST	SEGMENT DWORD USE32 PUBLIC 'CONST'
CONST	ENDS
;	COMDAT ??_7DIBINFO@@6B@
CONST	SEGMENT DWORD USE32 PUBLIC 'CONST'
CONST	ENDS
;	COMDAT ??_7IData@@6B@
CONST	SEGMENT DWORD USE32 PUBLIC 'CONST'
CONST	ENDS
;	COMDAT ?FindStringResourceInstance@?$StrTraitMFC_DLL@DV?$ChTraitsCRT@D@ATL@@@@SAPAUHINSTANCE__@@I@Z
_TEXT	SEGMENT PARA USE32 PUBLIC 'CODE'
_TEXT	ENDS
;	COMDAT ?AtlGetStringResourceImage@ATL@@YAPBUATLSTRINGRESOURCEIMAGE@1@PAUHINSTANCE__@@I@Z
_TEXT	SEGMENT PARA USE32 PUBLIC 'CODE'
_TEXT	ENDS
;	COMDAT ?_AtlGetStringResourceImage@ATL@@YAPBUATLSTRINGRESOURCEIMAGE@1@PAUHINSTANCE__@@PAUHRSRC__@@I@Z
_TEXT	SEGMENT PARA USE32 PUBLIC 'CODE'
_TEXT	ENDS
;	COMDAT ?GetBaseTypeLength@?$ChTraitsCRT@D@ATL@@SAHPB_WH@Z
_TEXT	SEGMENT PARA USE32 PUBLIC 'CODE'
_TEXT	ENDS
;	COMDAT ?_AtlGetConversionACP@ATL@@YGIXZ
_TEXT	SEGMENT PARA USE32 PUBLIC 'CODE'
_TEXT	ENDS
;	COMDAT ?g_pfnGetThreadACP@ATL@@3P6GIXZA
_DATA	SEGMENT DWORD USE32 PUBLIC 'DATA'
_DATA	ENDS
;	COMDAT ?_AtlGetThreadACPThunk@ATL@@YGIXZ
_TEXT	SEGMENT PARA USE32 PUBLIC 'CODE'
_TEXT	ENDS
;	COMDAT ?_AtlGetThreadACPReal@ATL@@YGIXZ
_TEXT	SEGMENT PARA USE32 PUBLIC 'CODE'
_TEXT	ENDS
;	COMDAT ?_AtlGetThreadACPFake@ATL@@YGIXZ
_TEXT	SEGMENT PARA USE32 PUBLIC 'CODE'
_TEXT	ENDS
;	COMDAT ?InterlockedExchangePointer@@YGPAXPAPAXPAX@Z
_TEXT	SEGMENT PARA USE32 PUBLIC 'CODE'
_TEXT	ENDS
;	COMDAT ?ConvertToBaseType@?$ChTraitsCRT@D@ATL@@SAXPADHPB_WH@Z
_TEXT	SEGMENT PARA USE32 PUBLIC 'CODE'
_TEXT	ENDS
;	COMDAT ??_C@_0CJ@FJEKGMMD@Warning?3?5implicit?5LoadString?$CI?$CFu?$CJ@
CONST	SEGMENT DWORD USE32 PUBLIC 'CONST'
CONST	ENDS
;	COMDAT ?AddRef@CStringData@ATL@@QAEXXZ
_TEXT	SEGMENT PARA USE32 PUBLIC 'CODE'
_TEXT	ENDS
;	COMDAT ??_C@_09EEBKLCFA@nRefs?5?$DO?50?$AA@
CONST	SEGMENT DWORD USE32 PUBLIC 'CONST'
CONST	ENDS
;	COMDAT ?GetLastStatus@Image@Gdiplus@@QBE?AW4Status@2@XZ
_TEXT	SEGMENT PARA USE32 PUBLIC 'CODE'
_TEXT	ENDS
;	COMDAT ?FromFile@Bitmap@Gdiplus@@SAPAV12@PB_WH@Z
_TEXT	SEGMENT PARA USE32 PUBLIC 'CODE'
_TEXT	ENDS
;	COMDAT ??2GdiplusBase@Gdiplus@@SAPAXI@Z
_TEXT	SEGMENT PARA USE32 PUBLIC 'CODE'
_TEXT	ENDS
;	COMDAT ??3GdiplusBase@Gdiplus@@SAXPAX@Z
_TEXT	SEGMENT PARA USE32 PUBLIC 'CODE'
_TEXT	ENDS
;	COMDAT ??0Bitmap@Gdiplus@@QAE@PB_WH@Z
_TEXT	SEGMENT PARA USE32 PUBLIC 'CODE'
_TEXT	ENDS
;	COMDAT ??0Image@Gdiplus@@IAE@XZ
_TEXT	SEGMENT PARA USE32 PUBLIC 'CODE'
_TEXT	ENDS
;	COMDAT ??_7Image@Gdiplus@@6B@
CONST	SEGMENT DWORD USE32 PUBLIC 'CONST'
CONST	ENDS
;	COMDAT ??_R4Image@Gdiplus@@6B@
rdata$r	SEGMENT DWORD USE32 PUBLIC 'CONST'
rdata$r	ENDS
;	COMDAT ??_R0?AVImage@Gdiplus@@@8
_DATA	SEGMENT DWORD USE32 PUBLIC 'DATA'
_DATA	ENDS
;	COMDAT ??_R3Image@Gdiplus@@8
rdata$r	SEGMENT DWORD USE32 PUBLIC 'CONST'
rdata$r	ENDS
;	COMDAT ??_R2Image@Gdiplus@@8
rdata$r	SEGMENT DWORD USE32 PUBLIC 'CONST'
rdata$r	ENDS
;	COMDAT ??_R1A@?0A@A@Image@Gdiplus@@8
rdata$r	SEGMENT DWORD USE32 PUBLIC 'CONST'
rdata$r	ENDS
;	COMDAT ??_R13?0A@A@GdiplusBase@Gdiplus@@8
rdata$r	SEGMENT DWORD USE32 PUBLIC 'CONST'
rdata$r	ENDS
;	COMDAT ??_R0?AVGdiplusBase@Gdiplus@@@8
_DATA	SEGMENT DWORD USE32 PUBLIC 'DATA'
_DATA	ENDS
;	COMDAT ??_GImage@Gdiplus@@UAEPAXI@Z
_TEXT	SEGMENT PARA USE32 PUBLIC 'CODE'
_TEXT	ENDS
;	COMDAT ?Clone@Image@Gdiplus@@UAEPAV12@XZ
_TEXT	SEGMENT PARA USE32 PUBLIC 'CODE'
_TEXT	ENDS
;	COMDAT ?SetStatus@Image@Gdiplus@@IBE?AW4Status@2@W432@@Z
_TEXT	SEGMENT PARA USE32 PUBLIC 'CODE'
_TEXT	ENDS
;	COMDAT ??0Image@Gdiplus@@IAE@PAVGpImage@1@W4Status@1@@Z
_TEXT	SEGMENT PARA USE32 PUBLIC 'CODE'
_TEXT	ENDS
;	COMDAT ??1Image@Gdiplus@@UAE@XZ
_TEXT	SEGMENT PARA USE32 PUBLIC 'CODE'
_TEXT	ENDS
;	COMDAT ??_7Bitmap@Gdiplus@@6B@
CONST	SEGMENT DWORD USE32 PUBLIC 'CONST'
CONST	ENDS
;	COMDAT ??_R4Bitmap@Gdiplus@@6B@
rdata$r	SEGMENT DWORD USE32 PUBLIC 'CONST'
rdata$r	ENDS
;	COMDAT ??_R0?AVBitmap@Gdiplus@@@8
_DATA	SEGMENT DWORD USE32 PUBLIC 'DATA'
_DATA	ENDS
;	COMDAT ??_R3Bitmap@Gdiplus@@8
rdata$r	SEGMENT DWORD USE32 PUBLIC 'CONST'
rdata$r	ENDS
;	COMDAT ??_R2Bitmap@Gdiplus@@8
rdata$r	SEGMENT DWORD USE32 PUBLIC 'CONST'
rdata$r	ENDS
;	COMDAT ??_R1A@?0A@A@Bitmap@Gdiplus@@8
rdata$r	SEGMENT DWORD USE32 PUBLIC 'CONST'
rdata$r	ENDS
;	COMDAT ??_GBitmap@Gdiplus@@UAEPAXI@Z
_TEXT	SEGMENT PARA USE32 PUBLIC 'CODE'
_TEXT	ENDS
;	COMDAT ??1Bitmap@Gdiplus@@UAE@XZ
_TEXT	SEGMENT PARA USE32 PUBLIC 'CODE'
_TEXT	ENDS
;	COMDAT ?SetNativeImage@Image@Gdiplus@@IAEXPAVGpImage@2@@Z
_TEXT	SEGMENT PARA USE32 PUBLIC 'CODE'
_TEXT	ENDS
;	COMDAT ??_7CGdiPlusBitmap@CSkinButton@@6B@
CONST	SEGMENT DWORD USE32 PUBLIC 'CONST'
CONST	ENDS
sxdata	SEGMENT DWORD USE32 'SXDATA'
sxdata	ENDS
FLAT	GROUP _DATA, CONST, _BSS
	ASSUME	CS: FLAT, DS: FLAT, SS: FLAT
endif

INCLUDELIB MSVCRTD
INCLUDELIB OLDNAMES

PUBLIC	?classCSubjectChildWnd@CSubjectChildWnd@@2UCRuntimeClass@@B ; CSubjectChildWnd::classCSubjectChildWnd
PUBLIC	?CreateObject@CSubjectChildWnd@@SGPAVCObject@@XZ ; CSubjectChildWnd::CreateObject
PUBLIC	?g_pfnGetThreadACP@ATL@@3P6GIXZA		; ATL::g_pfnGetThreadACP
PUBLIC	?_AtlGetThreadACPThunk@ATL@@YGIXZ		; ATL::_AtlGetThreadACPThunk
PUBLIC	?_messageEntries@CSubjectChildWnd@@0QBUAFX_MSGMAP_ENTRY@@B ; CSubjectChildWnd::_messageEntries
PUBLIC	?messageMap@CSubjectChildWnd@@1UAFX_MSGMAP@@B	; CSubjectChildWnd::messageMap
PUBLIC	?OnCreate@CSubjectChildWnd@@QAEHPAUtagCREATESTRUCTA@@@Z ; CSubjectChildWnd::OnCreate
PUBLIC	?OnPaint@CSubjectChildWnd@@QAEXXZ		; CSubjectChildWnd::OnPaint
PUBLIC	?OnVScroll@CSubjectChildWnd@@QAEXIIPAVCScrollBar@@@Z ; CSubjectChildWnd::OnVScroll
PUBLIC	?OnSize@CSubjectChildWnd@@QAEXIHH@Z		; CSubjectChildWnd::OnSize
PUBLIC	?OnMouseWheel@CSubjectChildWnd@@QAEHIFVCPoint@@@Z ; CSubjectChildWnd::OnMouseWheel
PUBLIC	?OnNcPaint@CSubjectChildWnd@@QAEXXZ		; CSubjectChildWnd::OnNcPaint
PUBLIC	?OnDestroy@CSubjectChildWnd@@QAEXXZ		; CSubjectChildWnd::OnDestroy
PUBLIC	?OnEraseBkgnd@CSubjectChildWnd@@QAEHPAVCDC@@@Z	; CSubjectChildWnd::OnEraseBkgnd
EXTRN	?GetThisClass@CFrameWnd@@SGPAUCRuntimeClass@@XZ:NEAR ; CFrameWnd::GetThisClass
EXTRN	?GetThisMessageMap@CFrameWnd@@KGPBUAFX_MSGMAP@@XZ:NEAR ; CFrameWnd::GetThisMessageMap
CONST	SEGMENT
$SG189179 DB	'int', 00H
CONST	ENDS
_DATA	SEGMENT
_TYPE_CONFIG_INT DD FLAT:$SG189179
_DATA	ENDS
CONST	SEGMENT
$SG189181 DB	'str', 00H
CONST	ENDS
_DATA	SEGMENT
_TYPE_CONFIG_STR DD FLAT:$SG189181
_DATA	ENDS
CONST	SEGMENT
$SG189183 DB	'double', 00H
CONST	ENDS
_DATA	SEGMENT
_TYPE_CONFIG_DOUBLE DD FLAT:$SG189183
_DATA	ENDS
CONST	SEGMENT
	ORG $+1
$SG189185 DB	'bool', 00H
CONST	ENDS
_DATA	SEGMENT
_TYPE_CONFIG_BOOL DD FLAT:$SG189185
_DATA	ENDS
CONST	SEGMENT
	ORG $+3
$SG189187 DB	'sepint', 00H
CONST	ENDS
_DATA	SEGMENT
_TYPE_CONFIG_INT_HASSEP DD FLAT:$SG189187
_DATA	ENDS
CONST	SEGMENT
	ORG $+1
$SG189189 DB	'sepstr', 00H
CONST	ENDS
_DATA	SEGMENT
_TYPE_CONFIG_STR_HASSEP DD FLAT:$SG189189
_DATA	ENDS
CONST	SEGMENT
	ORG $+1
$SG189191 DB	'sepdouble', 00H
CONST	ENDS
_DATA	SEGMENT
_TYPE_CONFIG_DOUBLE_HASSEP DD FLAT:$SG189191
_DATA	ENDS
CONST	SEGMENT
	ORG $+2
$SG189193 DB	'sepbool', 00H
CONST	ENDS
_DATA	SEGMENT
_TYPE_CONFIG_BOOL_HASSEP DD FLAT:$SG189193
_DATA	ENDS
CONST	SEGMENT
$SG189195 DB	'Setting', 00H
CONST	ENDS
_DATA	SEGMENT
_CONF_SETTING_MODULE_NAME DD FLAT:$SG189195
_DATA	ENDS
CONST	SEGMENT
$SG189197 DB	'skin', 00H
CONST	ENDS
_DATA	SEGMENT
_CONF_SETTING_SKIN_IDX DD FLAT:$SG189197
_DATA	ENDS
CONST	SEGMENT
	ORG $+3
$SG189199 DB	'MainPage', 00H
CONST	ENDS
_DATA	SEGMENT
_CONF_SETTING_CONFIG_MAIN_PAGE DD FLAT:$SG189199
_DATA	ENDS
CONST	SEGMENT
	ORG $+3
$SG189201 DB	'ProblemReport', 00H
CONST	ENDS
_DATA	SEGMENT
_CONF_SETTING_CONFIG_PROBLEM_REPORT DD FLAT:$SG189201
_DATA	ENDS
CONST	SEGMENT
	ORG $+2
$SG189203 DB	'HomePage', 00H
CONST	ENDS
_DATA	SEGMENT
_CONF_SETTING_CONFIG_HOME_PAGE DD FLAT:$SG189203
_DATA	ENDS
CONST	SEGMENT
	ORG $+3
$SG189205 DB	'askexit', 00H
CONST	ENDS
_DATA	SEGMENT
_CONF_SETTING_CONFIG_IFASKEXIT DD FLAT:$SG189205
_DATA	ENDS
CONST	SEGMENT
$SG189207 DB	'exitchoice', 00H
CONST	ENDS
_DATA	SEGMENT
_CONF_SETTING_CONFIG_EXITCHOICE DD FLAT:$SG189207
_DATA	ENDS
CONST	SEGMENT
	ORG $+1
$SG189209 DB	'UN', 00H
CONST	ENDS
_DATA	SEGMENT
_CONF_SETTING_LOGIN_USER_NAME DD FLAT:$SG189209
_DATA	ENDS
CONST	SEGMENT
	ORG $+1
$SG189211 DB	'PW', 00H
CONST	ENDS
_DATA	SEGMENT
_CONF_SETTING_LOGIN_PASSWORD DD FLAT:$SG189211
_DATA	ENDS
CONST	SEGMENT
	ORG $+1
$SG189213 DB	'NetID', 00H
CONST	ENDS
_DATA	SEGMENT
_CONF_SETTING_NETID DD FLAT:$SG189213
_DATA	ENDS
CONST	SEGMENT
	ORG $+2
$SG189215 DB	'ChangeColorValue', 00H
CONST	ENDS
_DATA	SEGMENT
_CONF_SETTING_COLOR DD FLAT:$SG189215
_DATA	ENDS
CONST	SEGMENT
	ORG $+3
$SG189217 DB	'changeColorLight', 00H
CONST	ENDS
_DATA	SEGMENT
_CONF_SETTING_LIGHT DD FLAT:$SG189217
_DATA	ENDS
CONST	SEGMENT
	ORG $+3
$SG189219 DB	'ColorIndex', 00H
CONST	ENDS
_DATA	SEGMENT
_CONF_SETTING_COLOR_BTN_INDEX DD FLAT:$SG189219
_DATA	ENDS
CONST	SEGMENT
	ORG $+1
$SG189221 DB	'ColorUser', 00H
CONST	ENDS
_DATA	SEGMENT
_CONF_SETTING_COLOR_USER DD FLAT:$SG189221
_DATA	ENDS
CONST	SEGMENT
	ORG $+2
$SG189223 DB	'FirstTimeChangeSkin', 00H
CONST	ENDS
_DATA	SEGMENT
_CONF_SETTING_FIRST_TIME_CHANGESKIN DD FLAT:$SG189223
_DATA	ENDS
CONST	SEGMENT
$SG191893 DB	'CSubjectChildWnd', 00H
CONST	ENDS
;	COMDAT ?classCSubjectChildWnd@CSubjectChildWnd@@2UCRuntimeClass@@B
CONST	SEGMENT
?classCSubjectChildWnd@CSubjectChildWnd@@2UCRuntimeClass@@B DD FLAT:$SG191893 ; CSubjectChildWnd::classCSubjectChildWnd
	DD	02f4H
	DD	0ffffH
	DD	FLAT:?CreateObject@CSubjectChildWnd@@SGPAVCObject@@XZ
	DD	FLAT:?GetThisClass@CFrameWnd@@SGPAUCRuntimeClass@@XZ
	DD	00H
	DD	00H
CONST	ENDS
;	COMDAT ?_messageEntries@CSubjectChildWnd@@0QBUAFX_MSGMAP_ENTRY@@B
CONST	SEGMENT
?_messageEntries@CSubjectChildWnd@@0QBUAFX_MSGMAP_ENTRY@@B DD 01H ; CSubjectChildWnd::_messageEntries
	DD	00H
	DD	00H
	DD	00H
	DD	0dH
	DD	FLAT:?OnCreate@CSubjectChildWnd@@QAEHPAUtagCREATESTRUCTA@@@Z
	DD	0fH
	DD	00H
	DD	00H
	DD	00H
	DD	010H
	DD	FLAT:?OnPaint@CSubjectChildWnd@@QAEXXZ
	DD	0115H
	DD	00H
	DD	00H
	DD	00H
	DD	027H
	DD	FLAT:?OnVScroll@CSubjectChildWnd@@QAEXIIPAVCScrollBar@@@Z
	DD	05H
	DD	00H
	DD	00H
	DD	00H
	DD	016H
	DD	FLAT:?OnSize@CSubjectChildWnd@@QAEXIHH@Z
	DD	020aH
	DD	00H
	DD	00H
	DD	00H
	DD	034H
	DD	FLAT:?OnMouseWheel@CSubjectChildWnd@@QAEHIFVCPoint@@@Z
	DD	085H
	DD	00H
	DD	00H
	DD	00H
	DD	010H
	DD	FLAT:?OnNcPaint@CSubjectChildWnd@@QAEXXZ
	DD	02H
	DD	00H
	DD	00H
	DD	00H
	DD	010H
	DD	FLAT:?OnDestroy@CSubjectChildWnd@@QAEXXZ
	DD	014H
	DD	00H
	DD	00H
	DD	00H
	DD	01H
	DD	FLAT:?OnEraseBkgnd@CSubjectChildWnd@@QAEHPAVCDC@@@Z
	DD	00H
	DD	00H
	DD	00H
	DD	00H
	DD	00H
	DD	00H
CONST	ENDS
;	COMDAT ?messageMap@CSubjectChildWnd@@1UAFX_MSGMAP@@B
CONST	SEGMENT
?messageMap@CSubjectChildWnd@@1UAFX_MSGMAP@@B DD FLAT:?GetThisMessageMap@CFrameWnd@@KGPBUAFX_MSGMAP@@XZ ; CSubjectChildWnd::messageMap
	DD	FLAT:?_messageEntries@CSubjectChildWnd@@0QBUAFX_MSGMAP_ENTRY@@B
CONST	ENDS
CONST	SEGMENT
	ORG $+3
$SG191990 DB	'default', 00H
$SG191991 DB	'\', 00H
	ORG $+2
$SG192084 DB	'yes.png', 00H
$SG192085 DB	'\png\', 00H
	ORG $+2
$SG192091 DB	'delete.png', 00H
	ORG $+1
$SG192092 DB	'\png\', 00H
	ORG $+2
$SG192098 DB	'SkinFrame.png', 00H
	ORG $+2
$SG192099 DB	'\png\', 00H
	ORG $+2
$SG192348 DB	'default', 00H
$SG192349 DB	'\', 00H
	ORG $+2
$SG192358 DB	'yes.png', 00H
$SG192359 DB	'\png\', 00H
	ORG $+2
$SG192365 DB	'delete.png', 00H
	ORG $+1
$SG192366 DB	'\png\', 00H
	ORG $+2
$SG192533 DB	'1', 00H
	ORG $+2
$SG192534 DB	'Click-In', 00H
	ORG $+3
$SG192535 DB	'SkinB.txt', 00H
$SG192539 DB	00H
	ORG $+1
$SG192545 DB	'1.2', 00H
$SG192546 DB	'Click-In', 00H
	ORG $+3
$SG192547 DB	'SkinB.txt', 00H
	ORG $+2
$SG192552 DB	'1.3', 00H
$SG192553 DB	'Click-In', 00H
	ORG $+3
$SG192554 DB	'SkinB.txt', 00H
	ORG $+2
$SG192572 DB	'2', 00H
	ORG $+2
$SG192573 DB	'Click-In', 00H
	ORG $+3
$SG192574 DB	'SkinB.txt', 00H
	ORG $+2
$SG192581 DB	'1', 00H
	ORG $+2
$SG192582 DB	'Click-In', 00H
	ORG $+3
$SG192583 DB	'SkinB.txt', 00H
	ORG $+2
$SG192587 DB	0d6H, 0f7H, 0ccH, 0e2H, '-%s', 00H
$SG192600 DB	0c8H, 0b7H, 0b6H, 0a8H, 0d2H, 0aaH, 0c9H, 0beH, 0b3H, 0fdH
	DB	0d5H, 0e2H, 0ccH, 0d7H, 0c6H, 0a4H, 0b7H, 0f4H, 0c2H, 0f0H, 0a3H
	DB	0bfH, 00H
	ORG $+1
$SG192602 DB	0c8H, 0b7H, 0b6H, 0a8H, 00H
	ORG $+3
$SG192604 DB	0c8H, 0a1H, 0cfH, 0fbH, 00H
	ORG $+3
$SG192609 DB	'BTN:DELETE_REAL_', 00H
	ORG $+3
$SG192610 DB	'USRCLK', 00H
	ORG $+1
$SG192611 DB	'\SbujectSkin\', 00H
	ORG $+2
$SG192623 DB	'1', 00H
	ORG $+2
$SG192631 DB	'2', 00H
	ORG $+2
$SG192632 DB	'Click-In', 00H
	ORG $+3
$SG192633 DB	'SkinB.txt', 00H
	ORG $+2
$SG192645 DB	'default', 00H
$SG192647 DB	'\', 00H
	ORG $+2
$SG192648 DB	'default', 00H
$SG192660 DB	'1.2', 00H
$SG192661 DB	'Click-In', 00H
	ORG $+3
$SG192662 DB	'SkinB.txt', 00H
	ORG $+2
$SG192667 DB	'1.3', 00H
$SG192668 DB	'Click-In', 00H
	ORG $+3
$SG192669 DB	'SkinB.txt', 00H
	ORG $+2
$SG192687 DB	'2', 00H
	ORG $+2
$SG192688 DB	'Click-In', 00H
	ORG $+3
$SG192689 DB	'SkinB.txt', 00H
CONST	ENDS
;	COMDAT ?g_pfnGetThreadACP@ATL@@3P6GIXZA
_DATA	SEGMENT
?g_pfnGetThreadACP@ATL@@3P6GIXZA DD FLAT:?_AtlGetThreadACPThunk@ATL@@YGIXZ ; ATL::g_pfnGetThreadACP
_DATA	ENDS
PUBLIC	?InterlockedExchangePointer@@YGPAXPAPAXPAX@Z	; InterlockedExchangePointer
PUBLIC	?_AtlGetThreadACPFake@ATL@@YGIXZ		; ATL::_AtlGetThreadACPFake
PUBLIC	?_AtlGetThreadACPReal@ATL@@YGIXZ		; ATL::_AtlGetThreadACPReal
EXTRN	__RTC_InitBase:NEAR
EXTRN	__RTC_Shutdown:NEAR
EXTRN	__RTC_CheckEsp:NEAR
EXTRN	___security_cookie:DWORD
EXTRN	@_RTC_CheckStackVars@8:NEAR
EXTRN	@__security_check_cookie@4:NEAR
EXTRN	__imp__GetVersionExA@4:NEAR
;	COMDAT rtc$IMZ
; File d:\program files (x86)\microsoft visual studio .net 2003\vc7\atlmfc\include\atlconv.h
rtc$IMZ	SEGMENT
__RTC_InitBase.rtc$IMZ DD FLAT:__RTC_InitBase
rtc$IMZ	ENDS
;	COMDAT rtc$TMZ
rtc$TMZ	SEGMENT
__RTC_Shutdown.rtc$TMZ DD FLAT:__RTC_Shutdown
; Function compile flags: /Odt /RTCsu
rtc$TMZ	ENDS
;	COMDAT ?_AtlGetThreadACPThunk@ATL@@YGIXZ
_TEXT	SEGMENT
_pfnGetThreadACP$ = -164				; size = 4
_ver$ = -156						; size = 148
__$ArrayPad$ = -4					; size = 4
__$ReturnAddr$ = 4					; size = 4
?_AtlGetThreadACPThunk@ATL@@YGIXZ PROC NEAR		; ATL::_AtlGetThreadACPThunk, COMDAT

; 134  : {

  00000	55		 push	 ebp
  00001	8b ec		 mov	 ebp, esp
  00003	81 ec a4 00 00
	00		 sub	 esp, 164		; 000000a4H
  00009	56		 push	 esi
  0000a	57		 push	 edi
  0000b	8d bd 5c ff ff
	ff		 lea	 edi, DWORD PTR [ebp-164]
  00011	b9 29 00 00 00	 mov	 ecx, 41			; 00000029H
  00016	b8 cc cc cc cc	 mov	 eax, -858993460		; ccccccccH
  0001b	f3 ab		 rep stosd
  0001d	a1 00 00 00 00	 mov	 eax, DWORD PTR ___security_cookie
  00022	89 45 fc	 mov	 DWORD PTR __$ArrayPad$[ebp], eax

; 135  : 	OSVERSIONINFO ver;
; 136  : 	ATLGETTHREADACP pfnGetThreadACP;
; 137  : 
; 138  : 	ver.dwOSVersionInfoSize = sizeof( ver );

  00025	c7 85 64 ff ff
	ff 94 00 00 00	 mov	 DWORD PTR _ver$[ebp], 148 ; 00000094H

; 139  : 	::GetVersionEx( &ver );

  0002f	8b f4		 mov	 esi, esp
  00031	8d 85 64 ff ff
	ff		 lea	 eax, DWORD PTR _ver$[ebp]
  00037	50		 push	 eax
  00038	ff 15 00 00 00
	00		 call	 DWORD PTR __imp__GetVersionExA@4
  0003e	3b f4		 cmp	 esi, esp
  00040	e8 00 00 00 00	 call	 __RTC_CheckEsp

; 140  : 	if( (ver.dwPlatformId == VER_PLATFORM_WIN32_NT) && (ver.dwMajorVersion >= 5) )

  00045	83 bd 74 ff ff
	ff 02		 cmp	 DWORD PTR _ver$[ebp+16], 2
  0004c	75 15		 jne	 SHORT $L24163
  0004e	83 bd 68 ff ff
	ff 05		 cmp	 DWORD PTR _ver$[ebp+4], 5
  00055	72 0c		 jb	 SHORT $L24163

; 141  : 	{
; 142  : 		// On Win2K, CP_THREAD_ACP is supported
; 143  : 		pfnGetThreadACP = _AtlGetThreadACPReal;

  00057	c7 85 5c ff ff
	ff 00 00 00 00	 mov	 DWORD PTR _pfnGetThreadACP$[ebp], OFFSET FLAT:?_AtlGetThreadACPReal@ATL@@YGIXZ ; ATL::_AtlGetThreadACPReal

; 144  : 	}
; 145  : 	else

  00061	eb 0a		 jmp	 SHORT $L24164
$L24163:

; 146  : 	{
; 147  : 		pfnGetThreadACP = _AtlGetThreadACPFake;

  00063	c7 85 5c ff ff
	ff 00 00 00 00	 mov	 DWORD PTR _pfnGetThreadACP$[ebp], OFFSET FLAT:?_AtlGetThreadACPFake@ATL@@YGIXZ ; ATL::_AtlGetThreadACPFake
$L24164:

; 148  : 	}
; 149  : 	InterlockedExchangePointer( reinterpret_cast< void** >(&g_pfnGetThreadACP), pfnGetThreadACP );

  0006d	8b 8d 5c ff ff
	ff		 mov	 ecx, DWORD PTR _pfnGetThreadACP$[ebp]
  00073	51		 push	 ecx
  00074	68 00 00 00 00	 push	 OFFSET FLAT:?g_pfnGetThreadACP@ATL@@3P6GIXZA ; ATL::g_pfnGetThreadACP
  00079	e8 00 00 00 00	 call	 ?InterlockedExchangePointer@@YGPAXPAPAXPAX@Z ; InterlockedExchangePointer

; 150  : 
; 151  : 	return( g_pfnGetThreadACP() );

  0007e	8b f4		 mov	 esi, esp
  00080	ff 15 00 00 00
	00		 call	 DWORD PTR ?g_pfnGetThreadACP@ATL@@3P6GIXZA ; ATL::g_pfnGetThreadACP
  00086	3b f4		 cmp	 esi, esp
  00088	e8 00 00 00 00	 call	 __RTC_CheckEsp

; 152  : }

  0008d	52		 push	 edx
  0008e	8b cd		 mov	 ecx, ebp
  00090	50		 push	 eax
  00091	8d 15 00 00 00
	00		 lea	 edx, DWORD PTR $L194584
  00097	e8 00 00 00 00	 call	 @_RTC_CheckStackVars@8
  0009c	58		 pop	 eax
  0009d	5a		 pop	 edx
  0009e	8b 4d fc	 mov	 ecx, DWORD PTR __$ArrayPad$[ebp]
  000a1	e8 00 00 00 00	 call	 @__security_check_cookie@4
  000a6	5f		 pop	 edi
  000a7	5e		 pop	 esi
  000a8	81 c4 a4 00 00
	00		 add	 esp, 164		; 000000a4H
  000ae	3b ec		 cmp	 ebp, esp
  000b0	e8 00 00 00 00	 call	 __RTC_CheckEsp
  000b5	8b e5		 mov	 esp, ebp
  000b7	5d		 pop	 ebp
  000b8	c3		 ret	 0
$L194584:
  000b9	01 00 00 00	 DD	 1
  000bd	00 00 00 00	 DD	 $L194583
$L194583:
  000c1	64 ff ff ff	 DD	 -156			; ffffff64H
  000c5	94 00 00 00	 DD	 148			; 00000094H
  000c9	00 00 00 00	 DD	 $L194580
$L194580:
  000cd	76		 DB	 118			; 00000076H
  000ce	65		 DB	 101			; 00000065H
  000cf	72		 DB	 114			; 00000072H
  000d0	00		 DB	 0
?_AtlGetThreadACPThunk@ATL@@YGIXZ ENDP			; ATL::_AtlGetThreadACPThunk
_TEXT	ENDS
EXTRN	__imp__InterlockedExchange@8:NEAR
; Function compile flags: /Odt /RTCsu
;	COMDAT ?InterlockedExchangePointer@@YGPAXPAPAXPAX@Z
_TEXT	SEGMENT
_pp$ = 8						; size = 4
_pNew$ = 12						; size = 4
?InterlockedExchangePointer@@YGPAXPAPAXPAX@Z PROC NEAR	; InterlockedExchangePointer, COMDAT

; 91   : {

  00000	55		 push	 ebp
  00001	8b ec		 mov	 ebp, esp
  00003	56		 push	 esi

; 92   : 	return( reinterpret_cast<void*>(static_cast<LONG_PTR>(::InterlockedExchange(reinterpret_cast<LONG*>(pp), static_cast<LONG>(reinterpret_cast<LONG_PTR>(pNew))))) );

  00004	8b f4		 mov	 esi, esp
  00006	8b 45 0c	 mov	 eax, DWORD PTR _pNew$[ebp]
  00009	50		 push	 eax
  0000a	8b 4d 08	 mov	 ecx, DWORD PTR _pp$[ebp]
  0000d	51		 push	 ecx
  0000e	ff 15 00 00 00
	00		 call	 DWORD PTR __imp__InterlockedExchange@8
  00014	3b f4		 cmp	 esi, esp
  00016	e8 00 00 00 00	 call	 __RTC_CheckEsp

; 93   : }

  0001b	5e		 pop	 esi
  0001c	3b ec		 cmp	 ebp, esp
  0001e	e8 00 00 00 00	 call	 __RTC_CheckEsp
  00023	5d		 pop	 ebp
  00024	c2 08 00	 ret	 8
?InterlockedExchangePointer@@YGPAXPAPAXPAX@Z ENDP	; InterlockedExchangePointer
_TEXT	ENDS
EXTRN	__imp__GetACP@0:NEAR
EXTRN	__imp__GetLocaleInfoA@16:NEAR
EXTRN	__imp__GetThreadLocale@0:NEAR
; Function compile flags: /Odt /RTCsu
;	COMDAT ?_AtlGetThreadACPFake@ATL@@YGIXZ
_TEXT	SEGMENT
_pch$24151 = -32					; size = 4
_szACP$ = -24						; size = 7
_lcidThread$ = -12					; size = 4
_nACP$ = -8						; size = 4
__$ArrayPad$ = -4					; size = 4
__$ReturnAddr$ = 4					; size = 4
?_AtlGetThreadACPFake@ATL@@YGIXZ PROC NEAR		; ATL::_AtlGetThreadACPFake, COMDAT

; 101  : {

  00000	55		 push	 ebp
  00001	8b ec		 mov	 ebp, esp
  00003	83 ec 20	 sub	 esp, 32			; 00000020H
  00006	56		 push	 esi
  00007	b8 cc cc cc cc	 mov	 eax, -858993460		; ccccccccH
  0000c	89 45 e0	 mov	 DWORD PTR [ebp-32], eax
  0000f	89 45 e4	 mov	 DWORD PTR [ebp-28], eax
  00012	89 45 e8	 mov	 DWORD PTR [ebp-24], eax
  00015	89 45 ec	 mov	 DWORD PTR [ebp-20], eax
  00018	89 45 f0	 mov	 DWORD PTR [ebp-16], eax
  0001b	89 45 f4	 mov	 DWORD PTR [ebp-12], eax
  0001e	89 45 f8	 mov	 DWORD PTR [ebp-8], eax
  00021	89 45 fc	 mov	 DWORD PTR [ebp-4], eax
  00024	a1 00 00 00 00	 mov	 eax, DWORD PTR ___security_cookie
  00029	89 45 fc	 mov	 DWORD PTR __$ArrayPad$[ebp], eax

; 102  : 	UINT nACP = 0;

  0002c	c7 45 f8 00 00
	00 00		 mov	 DWORD PTR _nACP$[ebp], 0

; 103  : 
; 104  : 	LCID lcidThread = ::GetThreadLocale();

  00033	8b f4		 mov	 esi, esp
  00035	ff 15 00 00 00
	00		 call	 DWORD PTR __imp__GetThreadLocale@0
  0003b	3b f4		 cmp	 esi, esp
  0003d	e8 00 00 00 00	 call	 __RTC_CheckEsp
  00042	89 45 f4	 mov	 DWORD PTR _lcidThread$[ebp], eax

; 105  : 
; 106  : 	char szACP[7];
; 107  : 	// GetLocaleInfoA will fail for a Unicode-only LCID, but those are only supported on 
; 108  : 	// Windows 2000.  Since Windows 2000 supports CP_THREAD_ACP, this code path is never
; 109  : 	// executed on Windows 2000.
; 110  : 	if (::GetLocaleInfoA(lcidThread, LOCALE_IDEFAULTANSICODEPAGE, szACP, 7) != 0)

  00045	8b f4		 mov	 esi, esp
  00047	6a 07		 push	 7
  00049	8d 45 e8	 lea	 eax, DWORD PTR _szACP$[ebp]
  0004c	50		 push	 eax
  0004d	68 04 10 00 00	 push	 4100			; 00001004H
  00052	8b 4d f4	 mov	 ecx, DWORD PTR _lcidThread$[ebp]
  00055	51		 push	 ecx
  00056	ff 15 00 00 00
	00		 call	 DWORD PTR __imp__GetLocaleInfoA@16
  0005c	3b f4		 cmp	 esi, esp
  0005e	e8 00 00 00 00	 call	 __RTC_CheckEsp
  00063	85 c0		 test	 eax, eax
  00065	74 34		 je	 SHORT $L24150

; 111  : 	{
; 112  : 		char* pch = szACP;

  00067	8d 55 e8	 lea	 edx, DWORD PTR _szACP$[ebp]
  0006a	89 55 e0	 mov	 DWORD PTR _pch$24151[ebp], edx
$L24153:

; 113  : 		while (*pch != '\0')

  0006d	8b 45 e0	 mov	 eax, DWORD PTR _pch$24151[ebp]
  00070	0f be 08	 movsx	 ecx, BYTE PTR [eax]
  00073	85 c9		 test	 ecx, ecx
  00075	74 24		 je	 SHORT $L24150

; 114  : 		{
; 115  : 			nACP *= 10;

  00077	8b 55 f8	 mov	 edx, DWORD PTR _nACP$[ebp]
  0007a	6b d2 0a	 imul	 edx, 10			; 0000000aH
  0007d	89 55 f8	 mov	 DWORD PTR _nACP$[ebp], edx

; 116  : 			nACP += *pch++ - '0';

  00080	8b 45 e0	 mov	 eax, DWORD PTR _pch$24151[ebp]
  00083	0f be 08	 movsx	 ecx, BYTE PTR [eax]
  00086	8b 55 f8	 mov	 edx, DWORD PTR _nACP$[ebp]
  00089	8d 44 0a d0	 lea	 eax, DWORD PTR [edx+ecx-48]
  0008d	89 45 f8	 mov	 DWORD PTR _nACP$[ebp], eax
  00090	8b 4d e0	 mov	 ecx, DWORD PTR _pch$24151[ebp]
  00093	83 c1 01	 add	 ecx, 1
  00096	89 4d e0	 mov	 DWORD PTR _pch$24151[ebp], ecx

; 117  : 		}

  00099	eb d2		 jmp	 SHORT $L24153
$L24150:

; 118  : 	}
; 119  : 	// Use the Default ANSI Code Page if we were unable to get the thread ACP or if one does not exist.
; 120  : 	if (nACP == 0)

  0009b	83 7d f8 00	 cmp	 DWORD PTR _nACP$[ebp], 0
  0009f	75 12		 jne	 SHORT $L24155

; 121  : 		nACP = ::GetACP();

  000a1	8b f4		 mov	 esi, esp
  000a3	ff 15 00 00 00
	00		 call	 DWORD PTR __imp__GetACP@0
  000a9	3b f4		 cmp	 esi, esp
  000ab	e8 00 00 00 00	 call	 __RTC_CheckEsp
  000b0	89 45 f8	 mov	 DWORD PTR _nACP$[ebp], eax
$L24155:

; 122  : 
; 123  : 	return nACP;

  000b3	8b 45 f8	 mov	 eax, DWORD PTR _nACP$[ebp]

; 124  : }

  000b6	52		 push	 edx
  000b7	8b cd		 mov	 ecx, ebp
  000b9	50		 push	 eax
  000ba	8d 15 00 00 00
	00		 lea	 edx, DWORD PTR $L194595
  000c0	e8 00 00 00 00	 call	 @_RTC_CheckStackVars@8
  000c5	58		 pop	 eax
  000c6	5a		 pop	 edx
  000c7	8b 4d fc	 mov	 ecx, DWORD PTR __$ArrayPad$[ebp]
  000ca	e8 00 00 00 00	 call	 @__security_check_cookie@4
  000cf	5e		 pop	 esi
  000d0	83 c4 20	 add	 esp, 32			; 00000020H
  000d3	3b ec		 cmp	 ebp, esp
  000d5	e8 00 00 00 00	 call	 __RTC_CheckEsp
  000da	8b e5		 mov	 esp, ebp
  000dc	5d		 pop	 ebp
  000dd	c3		 ret	 0
$L194595:
  000de	01 00 00 00	 DD	 1
  000e2	00 00 00 00	 DD	 $L194594
$L194594:
  000e6	e8 ff ff ff	 DD	 -24			; ffffffe8H
  000ea	07 00 00 00	 DD	 7
  000ee	00 00 00 00	 DD	 $L194592
$L194592:
  000f2	73		 DB	 115			; 00000073H
  000f3	7a		 DB	 122			; 0000007aH
  000f4	41		 DB	 65			; 00000041H
  000f5	43		 DB	 67			; 00000043H
  000f6	50		 DB	 80			; 00000050H
  000f7	00		 DB	 0
?_AtlGetThreadACPFake@ATL@@YGIXZ ENDP			; ATL::_AtlGetThreadACPFake
; Function compile flags: /Odt /RTCsu
_TEXT	ENDS
;	COMDAT ?_AtlGetThreadACPReal@ATL@@YGIXZ
_TEXT	SEGMENT
?_AtlGetThreadACPReal@ATL@@YGIXZ PROC NEAR		; ATL::_AtlGetThreadACPReal, COMDAT

; 127  : {

  00000	55		 push	 ebp
  00001	8b ec		 mov	 ebp, esp

; 128  : 	return( CP_THREAD_ACP );

  00003	b8 03 00 00 00	 mov	 eax, 3

; 129  : }

  00008	5d		 pop	 ebp
  00009	c3		 ret	 0
?_AtlGetThreadACPReal@ATL@@YGIXZ ENDP			; ATL::_AtlGetThreadACPReal
_TEXT	ENDS
PUBLIC	??0CSubjectChildWnd@@QAE@XZ			; CSubjectChildWnd::CSubjectChildWnd
EXTRN	__except_list:DWORD
EXTRN	___CxxFrameHandler:NEAR
EXTRN	??2CObject@@SGPAXI@Z:NEAR			; CObject::operator new
EXTRN	??3CObject@@SGXPAX@Z:NEAR			; CObject::operator delete
xdata$x	SEGMENT
$T194609 DD	0ffffffffH
	DD	FLAT:$L194602
$T194606 DD	019930520H
	DD	01H
	DD	FLAT:$T194609
	DD	2 DUP(00H)
	DD	2 DUP(00H)
; Function compile flags: /Odt /RTCsu
; File d:\boxgit\playbox\playbox\dev\prj\playbox\src\layoutmgr\changecolor\subjectchildwnd.cpp
xdata$x	ENDS
_TEXT	SEGMENT
tv71 = -24						; size = 4
$T194599 = -20						; size = 4
$T194598 = -16						; size = 4
__$EHRec$ = -12						; size = 12
?CreateObject@CSubjectChildWnd@@SGPAVCObject@@XZ PROC NEAR ; CSubjectChildWnd::CreateObject

; 13   : IMPLEMENT_DYNCREATE(CSubjectChildWnd, CFrameWnd)

  00000	55		 push	 ebp
  00001	8b ec		 mov	 ebp, esp
  00003	6a ff		 push	 -1
  00005	68 00 00 00 00	 push	 __ehhandler$?CreateObject@CSubjectChildWnd@@SGPAVCObject@@XZ
  0000a	64 a1 00 00 00
	00		 mov	 eax, DWORD PTR fs:__except_list
  00010	50		 push	 eax
  00011	64 89 25 00 00
	00 00		 mov	 DWORD PTR fs:__except_list, esp
  00018	83 ec 0c	 sub	 esp, 12			; 0000000cH
  0001b	c7 45 e8 cc cc
	cc cc		 mov	 DWORD PTR [ebp-24], -858993460 ; ccccccccH
  00022	c7 45 ec cc cc
	cc cc		 mov	 DWORD PTR [ebp-20], -858993460 ; ccccccccH
  00029	c7 45 f0 cc cc
	cc cc		 mov	 DWORD PTR [ebp-16], -858993460 ; ccccccccH
  00030	68 f4 02 00 00	 push	 756			; 000002f4H
  00035	e8 00 00 00 00	 call	 ??2CObject@@SGPAXI@Z	; CObject::operator new
  0003a	89 45 ec	 mov	 DWORD PTR $T194599[ebp], eax
  0003d	c7 45 fc 00 00
	00 00		 mov	 DWORD PTR __$EHRec$[ebp+8], 0
  00044	83 7d ec 00	 cmp	 DWORD PTR $T194599[ebp], 0
  00048	74 0d		 je	 SHORT $L194600
  0004a	8b 4d ec	 mov	 ecx, DWORD PTR $T194599[ebp]
  0004d	e8 00 00 00 00	 call	 ??0CSubjectChildWnd@@QAE@XZ ; CSubjectChildWnd::CSubjectChildWnd
  00052	89 45 e8	 mov	 DWORD PTR tv71[ebp], eax
  00055	eb 07		 jmp	 SHORT $L194601
$L194600:
  00057	c7 45 e8 00 00
	00 00		 mov	 DWORD PTR tv71[ebp], 0
$L194601:
  0005e	8b 45 e8	 mov	 eax, DWORD PTR tv71[ebp]
  00061	89 45 f0	 mov	 DWORD PTR $T194598[ebp], eax
  00064	c7 45 fc ff ff
	ff ff		 mov	 DWORD PTR __$EHRec$[ebp+8], -1
  0006b	8b 45 f0	 mov	 eax, DWORD PTR $T194598[ebp]
  0006e	8b 4d f4	 mov	 ecx, DWORD PTR __$EHRec$[ebp]
  00071	64 89 0d 00 00
	00 00		 mov	 DWORD PTR fs:__except_list, ecx
  00078	83 c4 18	 add	 esp, 24			; 00000018H
  0007b	3b ec		 cmp	 ebp, esp
  0007d	e8 00 00 00 00	 call	 __RTC_CheckEsp
  00082	8b e5		 mov	 esp, ebp
  00084	5d		 pop	 ebp
  00085	c3		 ret	 0
_TEXT	ENDS
text$x	SEGMENT
$L194602:
  00000	8b 45 ec	 mov	 eax, DWORD PTR $T194599[ebp]
  00003	50		 push	 eax
  00004	e8 00 00 00 00	 call	 ??3CObject@@SGXPAX@Z	; CObject::operator delete
  00009	c3		 ret	 0
__ehhandler$?CreateObject@CSubjectChildWnd@@SGPAVCObject@@XZ:
  0000a	b8 00 00 00 00	 mov	 eax, OFFSET FLAT:$T194606
  0000f	e9 00 00 00 00	 jmp	 ___CxxFrameHandler
text$x	ENDS
?CreateObject@CSubjectChildWnd@@SGPAVCObject@@XZ ENDP	; CSubjectChildWnd::CreateObject
PUBLIC	?GetThisClass@CSubjectChildWnd@@SGPAUCRuntimeClass@@XZ ; CSubjectChildWnd::GetThisClass
; Function compile flags: /Odt /RTCsu
_TEXT	SEGMENT
?GetThisClass@CSubjectChildWnd@@SGPAUCRuntimeClass@@XZ PROC NEAR ; CSubjectChildWnd::GetThisClass

; 13   : IMPLEMENT_DYNCREATE(CSubjectChildWnd, CFrameWnd)

  00090	55		 push	 ebp
  00091	8b ec		 mov	 ebp, esp
  00093	b8 00 00 00 00	 mov	 eax, OFFSET FLAT:?classCSubjectChildWnd@CSubjectChildWnd@@2UCRuntimeClass@@B ; CSubjectChildWnd::classCSubjectChildWnd
  00098	5d		 pop	 ebp
  00099	c3		 ret	 0
?GetThisClass@CSubjectChildWnd@@SGPAUCRuntimeClass@@XZ ENDP ; CSubjectChildWnd::GetThisClass
_TEXT	ENDS
PUBLIC	?GetRuntimeClass@CSubjectChildWnd@@UBEPAUCRuntimeClass@@XZ ; CSubjectChildWnd::GetRuntimeClass
; Function compile flags: /Odt /RTCsu
_TEXT	SEGMENT
_this$ = -4						; size = 4
?GetRuntimeClass@CSubjectChildWnd@@UBEPAUCRuntimeClass@@XZ PROC NEAR ; CSubjectChildWnd::GetRuntimeClass
; _this$ = ecx

; 13   : IMPLEMENT_DYNCREATE(CSubjectChildWnd, CFrameWnd)

  000a0	55		 push	 ebp
  000a1	8b ec		 mov	 ebp, esp
  000a3	51		 push	 ecx
  000a4	c7 45 fc cc cc
	cc cc		 mov	 DWORD PTR [ebp-4], -858993460 ; ccccccccH
  000ab	89 4d fc	 mov	 DWORD PTR _this$[ebp], ecx
  000ae	b8 00 00 00 00	 mov	 eax, OFFSET FLAT:?classCSubjectChildWnd@CSubjectChildWnd@@2UCRuntimeClass@@B ; CSubjectChildWnd::classCSubjectChildWnd
  000b3	8b e5		 mov	 esp, ebp
  000b5	5d		 pop	 ebp
  000b6	c3		 ret	 0
?GetRuntimeClass@CSubjectChildWnd@@UBEPAUCRuntimeClass@@XZ ENDP ; CSubjectChildWnd::GetRuntimeClass
_TEXT	ENDS
PUBLIC	?OnCliekSlide@IEventListener@@UAEXPAVCSliderCtrl@@@Z ; IEventListener::OnCliekSlide
PUBLIC	?OnSendChangeColor@IEventListener@@UAEXKI_N@Z	; IEventListener::OnSendChangeColor
PUBLIC	?OnSendChangeSubject@IEventListener@@UAEXV?$CStringT@DV?$StrTraitMFC_DLL@DV?$ChTraitsCRT@D@ATL@@@@@ATL@@0@Z ; IEventListener::OnSendChangeSubject
PUBLIC	?OnChangeSkinAndSub@IEventListener@@UAEXABV?$CStringT@DV?$StrTraitMFC_DLL@DV?$ChTraitsCRT@D@ATL@@@@@ATL@@0@Z ; IEventListener::OnChangeSkinAndSub
PUBLIC	?OnStartDownSubject@IEventListener@@UAEXABV?$CStringT@DV?$StrTraitMFC_DLL@DV?$ChTraitsCRT@D@ATL@@@@@ATL@@@Z ; IEventListener::OnStartDownSubject
PUBLIC	?OnFinishDownSubject@IEventListener@@UAEXH@Z	; IEventListener::OnFinishDownSubject
PUBLIC	??0IEventListener@@QAE@XZ			; IEventListener::IEventListener
PUBLIC	?OnSendChangeSkin@CSubjectChildWnd@@UAEXV?$CStringT@DV?$StrTraitMFC_DLL@DV?$ChTraitsCRT@D@ATL@@@@@ATL@@@Z ; CSubjectChildWnd::OnSendChangeSkin
PUBLIC	??_R4CSubjectChildWnd@@6BCFrameWnd@@@		; CSubjectChildWnd::`RTTI Complete Object Locator'
PUBLIC	??_R0?AVCSubjectChildWnd@@@8			; CSubjectChildWnd `RTTI Type Descriptor'
PUBLIC	??_R3CSubjectChildWnd@@8			; CSubjectChildWnd::`RTTI Class Hierarchy Descriptor'
PUBLIC	??_R2CSubjectChildWnd@@8			; CSubjectChildWnd::`RTTI Base Class Array'
PUBLIC	??_R1A@?0A@A@CSubjectChildWnd@@8		; CSubjectChildWnd::`RTTI Base Class Descriptor at (0,-1,0,0)'
PUBLIC	??_R1A@?0A@A@CFrameWnd@@8			; CFrameWnd::`RTTI Base Class Descriptor at (0,-1,0,0)'
PUBLIC	??_R0?AVCFrameWnd@@@8				; CFrameWnd `RTTI Type Descriptor'
PUBLIC	??_R1NE@?0A@A@IEventListener@@8			; IEventListener::`RTTI Base Class Descriptor at (212,-1,0,0)'
PUBLIC	??_R0?AVIEventListener@@@8			; IEventListener `RTTI Type Descriptor'
PUBLIC	??_R4CSubjectChildWnd@@6BIEventListener@@@	; CSubjectChildWnd::`RTTI Complete Object Locator'
PUBLIC	??_R1A@?0A@A@CWnd@@8				; CWnd::`RTTI Base Class Descriptor at (0,-1,0,0)'
PUBLIC	??_R0?AVCWnd@@@8				; CWnd `RTTI Type Descriptor'
PUBLIC	??_R1A@?0A@A@CCmdTarget@@8			; CCmdTarget::`RTTI Base Class Descriptor at (0,-1,0,0)'
PUBLIC	??_R0?AVCCmdTarget@@@8				; CCmdTarget `RTTI Type Descriptor'
PUBLIC	??_R1A@?0A@A@CObject@@8				; CObject::`RTTI Base Class Descriptor at (0,-1,0,0)'
PUBLIC	??_R0?AVCObject@@@8				; CObject `RTTI Type Descriptor'
PUBLIC	??0?$list@PAVCSkinButton@@V?$allocator@PAVCSkinButton@@@std@@@std@@QAE@XZ ; std::list<CSkinButton *,std::allocator<CSkinButton *> >::list<CSkinButton *,std::allocator<CSkinButton *> >
PUBLIC	??1?$list@PAVCSkinButton@@V?$allocator@PAVCSkinButton@@@std@@@std@@QAE@XZ ; std::list<CSkinButton *,std::allocator<CSkinButton *> >::~list<CSkinButton *,std::allocator<CSkinButton *> >
PUBLIC	??0?$map@V?$CStringT@DV?$StrTraitMFC_DLL@DV?$ChTraitsCRT@D@ATL@@@@@ATL@@PAVCSkinButton@@U?$less@V?$CStringT@DV?$StrTraitMFC_DLL@DV?$ChTraitsCRT@D@ATL@@@@@ATL@@@std@@V?$allocator@U?$pair@$$CBV?$CStringT@DV?$StrTraitMFC_DLL@DV?$ChTraitsCRT@D@ATL@@@@@ATL@@PAVCSkinButton@@@std@@@5@@std@@QAE@XZ ; std::map<ATL::CStringT<char,StrTraitMFC_DLL<char,ATL::ChTraitsCRT<char> > >,CSkinButton *,std::less<ATL::CStringT<char,StrTraitMFC_DLL<char,ATL::ChTraitsCRT<char> > > >,std::allocator<std::pair<ATL::CStringT<char,StrTraitMFC_DLL<char,ATL::ChTraitsCRT<char> > > const ,CSkinButton *> > >::map<ATL::CStringT<char,StrTraitMFC_DLL<char,ATL::ChTraitsCRT<char> > >,CSkinButton *,std::less<ATL::CStringT<char,StrTraitMFC_DLL<char,ATL::ChTraitsCRT<char> > > >,std::allocator<std::pair<ATL::CStringT<char,StrTraitMFC_DLL<char,ATL::ChTraitsCRT<char> > > const ,CSkinButton *> > >
PUBLIC	?GetMessageMap@CSubjectChildWnd@@MBEPBUAFX_MSGMAP@@XZ ; CSubjectChildWnd::GetMessageMap
PUBLIC	??0iterator@?$list@PAVCSkinButton@@V?$allocator@PAVCSkinButton@@@std@@@std@@QAE@XZ ; std::list<CSkinButton *,std::allocator<CSkinButton *> >::iterator::iterator
PUBLIC	?OnCliekButton@CSubjectChildWnd@@UAEXPAVCButton@@@Z ; CSubjectChildWnd::OnCliekButton
PUBLIC	?OnCliekButton@CSubjectChildWnd@@UAEXABV?$CStringT@DV?$StrTraitMFC_DLL@DV?$ChTraitsCRT@D@ATL@@@@@ATL@@@Z ; CSubjectChildWnd::OnCliekButton
PUBLIC	?PreCreateWindow@CSubjectChildWnd@@MAEHAAUtagCREATESTRUCTA@@@Z ; CSubjectChildWnd::PreCreateWindow
PUBLIC	??_7CSubjectChildWnd@@6BCFrameWnd@@@		; CSubjectChildWnd::`vftable'
PUBLIC	??_7CSubjectChildWnd@@6BIEventListener@@@	; CSubjectChildWnd::`vftable'
PUBLIC	??_GCSubjectChildWnd@@UAEPAXI@Z			; CSubjectChildWnd::`scalar deleting destructor'
PUBLIC	??0?$list@PAVCSubLabel@@V?$allocator@PAVCSubLabel@@@std@@@std@@QAE@XZ ; std::list<CSubLabel *,std::allocator<CSubLabel *> >::list<CSubLabel *,std::allocator<CSubLabel *> >
PUBLIC	??1?$list@PAVCSubLabel@@V?$allocator@PAVCSubLabel@@@std@@@std@@QAE@XZ ; std::list<CSubLabel *,std::allocator<CSubLabel *> >::~list<CSubLabel *,std::allocator<CSubLabel *> >
EXTRN	??0CScrollBarEx@@QAE@XZ:NEAR			; CScrollBarEx::CScrollBarEx
EXTRN	??1CScrollBarEx@@UAE@XZ:NEAR			; CScrollBarEx::~CScrollBarEx
EXTRN	?GetInterfaceMap@CWnd@@MBEPBUAFX_INTERFACEMAP@@XZ:NEAR ; CWnd::GetInterfaceMap
EXTRN	?EnsureStdObj@CWnd@@UAEJXZ:NEAR			; CWnd::EnsureStdObj
EXTRN	?get_accParent@CWnd@@UAEJPAPAUIDispatch@@@Z:NEAR ; CWnd::get_accParent
EXTRN	?get_accChildCount@CWnd@@UAEJPAJ@Z:NEAR		; CWnd::get_accChildCount
EXTRN	?IsInvokeAllowed@CCmdTarget@@UAEHJ@Z:NEAR	; CCmdTarget::IsInvokeAllowed
EXTRN	?get_accChild@CWnd@@UAEJUtagVARIANT@@PAPAUIDispatch@@@Z:NEAR ; CWnd::get_accChild
EXTRN	?get_accName@CWnd@@UAEJUtagVARIANT@@PAPA_W@Z:NEAR ; CWnd::get_accName
EXTRN	?get_accValue@CWnd@@UAEJUtagVARIANT@@PAPA_W@Z:NEAR ; CWnd::get_accValue
EXTRN	?GetDispatchIID@CCmdTarget@@UAEHPAU_GUID@@@Z:NEAR ; CCmdTarget::GetDispatchIID
EXTRN	?GetTypeInfoCount@CCmdTarget@@UAEIXZ:NEAR	; CCmdTarget::GetTypeInfoCount
EXTRN	?GetTypeLibCache@CCmdTarget@@UAEPAVCTypeLibCache@@XZ:NEAR ; CCmdTarget::GetTypeLibCache
EXTRN	?get_accDescription@CWnd@@UAEJUtagVARIANT@@PAPA_W@Z:NEAR ; CWnd::get_accDescription
EXTRN	?GetTypeLib@CCmdTarget@@UAEJKPAPAUITypeLib@@@Z:NEAR ; CCmdTarget::GetTypeLib
EXTRN	?get_accRole@CWnd@@UAEJUtagVARIANT@@PAU2@@Z:NEAR ; CWnd::get_accRole
EXTRN	?get_accState@CWnd@@UAEJUtagVARIANT@@PAU2@@Z:NEAR ; CWnd::get_accState
EXTRN	?get_accHelp@CWnd@@UAEJUtagVARIANT@@PAPA_W@Z:NEAR ; CWnd::get_accHelp
EXTRN	?get_accHelpTopic@CWnd@@UAEJPAPA_WUtagVARIANT@@PAJ@Z:NEAR ; CWnd::get_accHelpTopic
EXTRN	?get_accKeyboardShortcut@CWnd@@UAEJUtagVARIANT@@PAPA_W@Z:NEAR ; CWnd::get_accKeyboardShortcut
EXTRN	?get_accFocus@CWnd@@UAEJPAUtagVARIANT@@@Z:NEAR	; CWnd::get_accFocus
EXTRN	?get_accSelection@CWnd@@UAEJPAUtagVARIANT@@@Z:NEAR ; CWnd::get_accSelection
EXTRN	?get_accDefaultAction@CWnd@@UAEJUtagVARIANT@@PAPA_W@Z:NEAR ; CWnd::get_accDefaultAction
EXTRN	?GetCommandMap@CCmdTarget@@MBEPBUAFX_OLECMDMAP@@XZ:NEAR ; CCmdTarget::GetCommandMap
EXTRN	?accSelect@CWnd@@UAEJJUtagVARIANT@@@Z:NEAR	; CWnd::accSelect
EXTRN	?accLocation@CWnd@@UAEJPAJ000UtagVARIANT@@@Z:NEAR ; CWnd::accLocation
EXTRN	?GetDispatchMap@CCmdTarget@@MBEPBUAFX_DISPMAP@@XZ:NEAR ; CCmdTarget::GetDispatchMap
EXTRN	?accNavigate@CWnd@@UAEJJUtagVARIANT@@PAU2@@Z:NEAR ; CWnd::accNavigate
EXTRN	?accHitTest@CWnd@@UAEJJJPAUtagVARIANT@@@Z:NEAR	; CWnd::accHitTest
EXTRN	?GetConnectionMap@CCmdTarget@@MBEPBUAFX_CONNECTIONMAP@@XZ:NEAR ; CCmdTarget::GetConnectionMap
EXTRN	?accDoDefaultAction@CWnd@@UAEJUtagVARIANT@@@Z:NEAR ; CWnd::accDoDefaultAction
EXTRN	?put_accName@CWnd@@UAEJUtagVARIANT@@PA_W@Z:NEAR	; CWnd::put_accName
EXTRN	?put_accValue@CWnd@@UAEJUtagVARIANT@@PA_W@Z:NEAR ; CWnd::put_accValue
EXTRN	?SetProxy@CWnd@@UAEJPAUIAccessibleProxy@@@Z:NEAR ; CWnd::SetProxy
EXTRN	?CreateAccessibleProxy@CWnd@@UAEJIJPAJ@Z:NEAR	; CWnd::CreateAccessibleProxy
EXTRN	?GetEventSinkMap@CCmdTarget@@MBEPBUAFX_EVENTSINKMAP@@XZ:NEAR ; CCmdTarget::GetEventSinkMap
EXTRN	?OnCreateAggregates@CCmdTarget@@UAEHXZ:NEAR	; CCmdTarget::OnCreateAggregates
EXTRN	?GetInterfaceHook@CCmdTarget@@UAEPAUIUnknown@@PBX@Z:NEAR ; CCmdTarget::GetInterfaceHook
EXTRN	?OnNotify@CWnd@@MAEHIJPAJ@Z:NEAR		; CWnd::OnNotify
EXTRN	?GetExtraConnectionPoints@CCmdTarget@@MAEHPAVCPtrArray@@@Z:NEAR ; CCmdTarget::GetExtraConnectionPoints
EXTRN	?GetConnectionHook@CCmdTarget@@MAEPAUIConnectionPoint@@ABU_GUID@@@Z:NEAR ; CCmdTarget::GetConnectionHook
EXTRN	??0CRect@@QAE@XZ:NEAR				; CRect::CRect
EXTRN	?PreSubclassWindow@CWnd@@UAEXXZ:NEAR		; CWnd::PreSubclassWindow
EXTRN	??0CFrameWnd@@QAE@XZ:NEAR			; CFrameWnd::CFrameWnd
EXTRN	?Create@CWnd@@UAEHPBD0KABUtagRECT@@PAV1@IPAUCCreateContext@@@Z:NEAR ; CWnd::Create
EXTRN	?Create@CFrameWnd@@UAEHPBD0KABUtagRECT@@PAVCWnd@@0KPAUCCreateContext@@@Z:NEAR ; CFrameWnd::Create
EXTRN	?LoadFrame@CFrameWnd@@UAEHIKPAVCWnd@@PAUCCreateContext@@@Z:NEAR ; CFrameWnd::LoadFrame
EXTRN	?GetActiveDocument@CFrameWnd@@UAEPAVCDocument@@XZ:NEAR ; CFrameWnd::GetActiveDocument
EXTRN	?CreateEx@CWnd@@UAEHKPBD0KHHHHPAUHWND__@@PAUHMENU__@@PAX@Z:NEAR ; CWnd::CreateEx
EXTRN	?GetActiveFrame@CFrameWnd@@UAEPAV1@XZ:NEAR	; CFrameWnd::GetActiveFrame
EXTRN	?GetMessageString@CFrameWnd@@UBEXIAAV?$CStringT@DV?$StrTraitMFC_DLL@DV?$ChTraitsCRT@D@ATL@@@@@ATL@@@Z:NEAR ; CFrameWnd::GetMessageString
EXTRN	?CreateEx@CWnd@@UAEHKPBD0KABUtagRECT@@PAV1@IPAX@Z:NEAR ; CWnd::CreateEx
EXTRN	?RecalcLayout@CFrameWnd@@UAEXH@Z:NEAR		; CFrameWnd::RecalcLayout
EXTRN	?ActivateFrame@CFrameWnd@@UAEXH@Z:NEAR		; CFrameWnd::ActivateFrame
EXTRN	?BeginModalState@CFrameWnd@@UAEXXZ:NEAR		; CFrameWnd::BeginModalState
EXTRN	?EndModalState@CFrameWnd@@UAEXXZ:NEAR		; CFrameWnd::EndModalState
EXTRN	?Serialize@CObject@@UAEXAAVCArchive@@@Z:NEAR	; CObject::Serialize
EXTRN	?DestroyWindow@CWnd@@UAEHXZ:NEAR		; CWnd::DestroyWindow
EXTRN	?CalcWindowRect@CWnd@@UAEXPAUtagRECT@@I@Z:NEAR	; CWnd::CalcWindowRect
EXTRN	?OnSetPreviewMode@CFrameWnd@@UAEXHPAUCPrintPreviewState@@@Z:NEAR ; CFrameWnd::OnSetPreviewMode
EXTRN	?GetMessageBar@CFrameWnd@@UAEPAVCWnd@@XZ:NEAR	; CFrameWnd::GetMessageBar
EXTRN	?NegotiateBorderSpace@CFrameWnd@@UAEHIPAUtagRECT@@@Z:NEAR ; CFrameWnd::NegotiateBorderSpace
EXTRN	?OnCreateClient@CFrameWnd@@MAEHPAUtagCREATESTRUCTA@@PAUCCreateContext@@@Z:NEAR ; CFrameWnd::OnCreateClient
EXTRN	??1CFrameWnd@@UAE@XZ:NEAR			; CFrameWnd::~CFrameWnd
EXTRN	?GetSuperWndProcAddr@CWnd@@MAEPAP6GJPAUHWND__@@IIJ@ZXZ:NEAR ; CWnd::GetSuperWndProcAddr
EXTRN	?DoDataExchange@CWnd@@MAEXPAVCDataExchange@@@Z:NEAR ; CWnd::DoDataExchange
EXTRN	?OnAmbientProperty@CWnd@@UAEHPAVCOleControlSite@@JPAUtagVARIANT@@@Z:NEAR ; CWnd::OnAmbientProperty
EXTRN	?WindowProc@CWnd@@MAEJIIJ@Z:NEAR		; CWnd::WindowProc
EXTRN	?OnWndMsg@CWnd@@MAEHIIJPAJ@Z:NEAR		; CWnd::OnWndMsg
EXTRN	?DefWindowProcA@CWnd@@MAEJIIJ@Z:NEAR		; CWnd::DefWindowProcA
EXTRN	?OnChildNotify@CWnd@@MAEHIIJPAJ@Z:NEAR		; CWnd::OnChildNotify
EXTRN	?AssertValid@CFrameWnd@@UBEXXZ:NEAR		; CFrameWnd::AssertValid
EXTRN	?Dump@CFrameWnd@@UBEXAAVCDumpContext@@@Z:NEAR	; CFrameWnd::Dump
EXTRN	?CheckAutoCenter@CWnd@@UAEHXZ:NEAR		; CWnd::CheckAutoCenter
EXTRN	?IsFrameWnd@CFrameWnd@@UBEHXZ:NEAR		; CFrameWnd::IsFrameWnd
EXTRN	?OnCmdMsg@CFrameWnd@@UAEHIHPAXPAUAFX_CMDHANDLERINFO@@@Z:NEAR ; CFrameWnd::OnCmdMsg
EXTRN	?OnUpdateFrameTitle@CFrameWnd@@UAEXH@Z:NEAR	; CFrameWnd::OnUpdateFrameTitle
EXTRN	?OnUpdateFrameMenu@CFrameWnd@@UAEXPAUHMENU__@@@Z:NEAR ; CFrameWnd::OnUpdateFrameMenu
EXTRN	?GetDefaultAccelerator@CFrameWnd@@UAEPAUHACCEL__@@XZ:NEAR ; CFrameWnd::GetDefaultAccelerator
EXTRN	?PreTranslateMessage@CFrameWnd@@UAEHPAUtagMSG@@@Z:NEAR ; CFrameWnd::PreTranslateMessage
EXTRN	?DelayUpdateFrameMenu@CFrameWnd@@UAEXPAUHMENU__@@@Z:NEAR ; CFrameWnd::DelayUpdateFrameMenu
EXTRN	?ExitHelpMode@CFrameWnd@@UAEXXZ:NEAR		; CFrameWnd::ExitHelpMode
EXTRN	?OnFinalRelease@CWnd@@UAEXXZ:NEAR		; CWnd::OnFinalRelease
EXTRN	?OnCommand@CFrameWnd@@MAEHIJ@Z:NEAR		; CFrameWnd::OnCommand
EXTRN	?PostNcDestroy@CFrameWnd@@MAEXXZ:NEAR		; CFrameWnd::PostNcDestroy
EXTRN	??_ECSubjectChildWnd@@UAEPAXI@Z:NEAR		; CSubjectChildWnd::`vector deleting destructor'
EXTRN	?CreateControlContainer@CWnd@@MAEHPAPAVCOleControlContainer@@@Z:NEAR ; CWnd::CreateControlContainer
EXTRN	?CreateControlSite@CWnd@@MAEHPAVCOleControlContainer@@PAPAVCOleControlSite@@IABU_GUID@@@Z:NEAR ; CWnd::CreateControlSite
EXTRN	?SetOccDialogInfo@CWnd@@MAEHPAU_AFX_OCC_DIALOG_INFO@@@Z:NEAR ; CWnd::SetOccDialogInfo
EXTRN	?OnToolHitTest@CWnd@@UBEHVCPoint@@PAUtagTOOLINFOA@@@Z:NEAR ; CWnd::OnToolHitTest
EXTRN	?GetScrollBarCtrl@CWnd@@UBEPAVCScrollBar@@H@Z:NEAR ; CWnd::GetScrollBarCtrl
EXTRN	?WinHelpA@CWnd@@UAEXKI@Z:NEAR			; CWnd::WinHelpA
EXTRN	?HtmlHelpA@CWnd@@UAEXKI@Z:NEAR			; CWnd::HtmlHelpA
EXTRN	??_7type_info@@6B@:QWORD			; type_info::`vftable'
EXTRN	?WinHelpInternal@CWnd@@UAEXKI@Z:NEAR		; CWnd::WinHelpInternal
EXTRN	?ContinueModal@CWnd@@UAEHXZ:NEAR		; CWnd::ContinueModal
EXTRN	?EndModalLoop@CWnd@@UAEXH@Z:NEAR		; CWnd::EndModalLoop
xdata$x	SEGMENT
$T194623 DD	0ffffffffH
	DD	FLAT:$L194614
	DD	00H
	DD	FLAT:$L194615
	DD	01H
	DD	FLAT:$L194616
	DD	02H
	DD	FLAT:$L194617
	DD	03H
	DD	FLAT:$L194618
$T194621 DD	019930520H
	DD	05H
	DD	FLAT:$T194623
	DD	2 DUP(00H)
	DD	2 DUP(00H)
xdata$x	ENDS
;	COMDAT ??_7CSubjectChildWnd@@6BCFrameWnd@@@
CONST	SEGMENT
??_7CSubjectChildWnd@@6BCFrameWnd@@@ DD FLAT:??_R4CSubjectChildWnd@@6BCFrameWnd@@@ ; CSubjectChildWnd::`vftable'
	DD	FLAT:?GetRuntimeClass@CSubjectChildWnd@@UBEPAUCRuntimeClass@@XZ
	DD	FLAT:??_ECSubjectChildWnd@@UAEPAXI@Z
	DD	FLAT:?Serialize@CObject@@UAEXAAVCArchive@@@Z
	DD	FLAT:?AssertValid@CFrameWnd@@UBEXXZ
	DD	FLAT:?Dump@CFrameWnd@@UBEXAAVCDumpContext@@@Z
	DD	FLAT:?OnCmdMsg@CFrameWnd@@UAEHIHPAXPAUAFX_CMDHANDLERINFO@@@Z
	DD	FLAT:?OnFinalRelease@CWnd@@UAEXXZ
	DD	FLAT:?IsInvokeAllowed@CCmdTarget@@UAEHJ@Z
	DD	FLAT:?GetDispatchIID@CCmdTarget@@UAEHPAU_GUID@@@Z
	DD	FLAT:?GetTypeInfoCount@CCmdTarget@@UAEIXZ
	DD	FLAT:?GetTypeLibCache@CCmdTarget@@UAEPAVCTypeLibCache@@XZ
	DD	FLAT:?GetTypeLib@CCmdTarget@@UAEJKPAPAUITypeLib@@@Z
	DD	FLAT:?GetMessageMap@CSubjectChildWnd@@MBEPBUAFX_MSGMAP@@XZ
	DD	FLAT:?GetCommandMap@CCmdTarget@@MBEPBUAFX_OLECMDMAP@@XZ
	DD	FLAT:?GetDispatchMap@CCmdTarget@@MBEPBUAFX_DISPMAP@@XZ
	DD	FLAT:?GetConnectionMap@CCmdTarget@@MBEPBUAFX_CONNECTIONMAP@@XZ
	DD	FLAT:?GetInterfaceMap@CWnd@@MBEPBUAFX_INTERFACEMAP@@XZ
	DD	FLAT:?GetEventSinkMap@CCmdTarget@@MBEPBUAFX_EVENTSINKMAP@@XZ
	DD	FLAT:?OnCreateAggregates@CCmdTarget@@UAEHXZ
	DD	FLAT:?GetInterfaceHook@CCmdTarget@@UAEPAUIUnknown@@PBX@Z
	DD	FLAT:?GetExtraConnectionPoints@CCmdTarget@@MAEHPAVCPtrArray@@@Z
	DD	FLAT:?GetConnectionHook@CCmdTarget@@MAEPAUIConnectionPoint@@ABU_GUID@@@Z
	DD	FLAT:?PreSubclassWindow@CWnd@@UAEXXZ
	DD	FLAT:?Create@CWnd@@UAEHPBD0KABUtagRECT@@PAV1@IPAUCCreateContext@@@Z
	DD	FLAT:?CreateEx@CWnd@@UAEHKPBD0KABUtagRECT@@PAV1@IPAX@Z
	DD	FLAT:?CreateEx@CWnd@@UAEHKPBD0KHHHHPAUHWND__@@PAUHMENU__@@PAX@Z
	DD	FLAT:?DestroyWindow@CWnd@@UAEHXZ
	DD	FLAT:?PreCreateWindow@CSubjectChildWnd@@MAEHAAUtagCREATESTRUCTA@@@Z
	DD	FLAT:?CalcWindowRect@CWnd@@UAEXPAUtagRECT@@I@Z
	DD	FLAT:?OnToolHitTest@CWnd@@UBEHVCPoint@@PAUtagTOOLINFOA@@@Z
	DD	FLAT:?GetScrollBarCtrl@CWnd@@UBEPAVCScrollBar@@H@Z
	DD	FLAT:?WinHelpA@CWnd@@UAEXKI@Z
	DD	FLAT:?HtmlHelpA@CWnd@@UAEXKI@Z
	DD	FLAT:?WinHelpInternal@CWnd@@UAEXKI@Z
	DD	FLAT:?ContinueModal@CWnd@@UAEHXZ
	DD	FLAT:?EndModalLoop@CWnd@@UAEXH@Z
	DD	FLAT:?EnsureStdObj@CWnd@@UAEJXZ
	DD	FLAT:?get_accParent@CWnd@@UAEJPAPAUIDispatch@@@Z
	DD	FLAT:?get_accChildCount@CWnd@@UAEJPAJ@Z
	DD	FLAT:?get_accChild@CWnd@@UAEJUtagVARIANT@@PAPAUIDispatch@@@Z
	DD	FLAT:?get_accName@CWnd@@UAEJUtagVARIANT@@PAPA_W@Z
	DD	FLAT:?get_accValue@CWnd@@UAEJUtagVARIANT@@PAPA_W@Z
	DD	FLAT:?get_accDescription@CWnd@@UAEJUtagVARIANT@@PAPA_W@Z
	DD	FLAT:?get_accRole@CWnd@@UAEJUtagVARIANT@@PAU2@@Z
	DD	FLAT:?get_accState@CWnd@@UAEJUtagVARIANT@@PAU2@@Z
	DD	FLAT:?get_accHelp@CWnd@@UAEJUtagVARIANT@@PAPA_W@Z
	DD	FLAT:?get_accHelpTopic@CWnd@@UAEJPAPA_WUtagVARIANT@@PAJ@Z
	DD	FLAT:?get_accKeyboardShortcut@CWnd@@UAEJUtagVARIANT@@PAPA_W@Z
	DD	FLAT:?get_accFocus@CWnd@@UAEJPAUtagVARIANT@@@Z
	DD	FLAT:?get_accSelection@CWnd@@UAEJPAUtagVARIANT@@@Z
	DD	FLAT:?get_accDefaultAction@CWnd@@UAEJUtagVARIANT@@PAPA_W@Z
	DD	FLAT:?accSelect@CWnd@@UAEJJUtagVARIANT@@@Z
	DD	FLAT:?accLocation@CWnd@@UAEJPAJ000UtagVARIANT@@@Z
	DD	FLAT:?accNavigate@CWnd@@UAEJJUtagVARIANT@@PAU2@@Z
	DD	FLAT:?accHitTest@CWnd@@UAEJJJPAUtagVARIANT@@@Z
	DD	FLAT:?accDoDefaultAction@CWnd@@UAEJUtagVARIANT@@@Z
	DD	FLAT:?put_accName@CWnd@@UAEJUtagVARIANT@@PA_W@Z
	DD	FLAT:?put_accValue@CWnd@@UAEJUtagVARIANT@@PA_W@Z
	DD	FLAT:?SetProxy@CWnd@@UAEJPAUIAccessibleProxy@@@Z
	DD	FLAT:?CreateAccessibleProxy@CWnd@@UAEJIJPAJ@Z
	DD	FLAT:?OnCommand@CFrameWnd@@MAEHIJ@Z
	DD	FLAT:?OnNotify@CWnd@@MAEHIJPAJ@Z
	DD	FLAT:?GetSuperWndProcAddr@CWnd@@MAEPAP6GJPAUHWND__@@IIJ@ZXZ
	DD	FLAT:?DoDataExchange@CWnd@@MAEXPAVCDataExchange@@@Z
	DD	FLAT:?BeginModalState@CFrameWnd@@UAEXXZ
	DD	FLAT:?EndModalState@CFrameWnd@@UAEXXZ
	DD	FLAT:?PreTranslateMessage@CFrameWnd@@UAEHPAUtagMSG@@@Z
	DD	FLAT:?OnAmbientProperty@CWnd@@UAEHPAVCOleControlSite@@JPAUtagVARIANT@@@Z
	DD	FLAT:?WindowProc@CWnd@@MAEJIIJ@Z
	DD	FLAT:?OnWndMsg@CWnd@@MAEHIIJPAJ@Z
	DD	FLAT:?DefWindowProcA@CWnd@@MAEJIIJ@Z
	DD	FLAT:?PostNcDestroy@CFrameWnd@@MAEXXZ
	DD	FLAT:?OnChildNotify@CWnd@@MAEHIIJPAJ@Z
	DD	FLAT:?CheckAutoCenter@CWnd@@UAEHXZ
	DD	FLAT:?IsFrameWnd@CFrameWnd@@UBEHXZ
	DD	FLAT:?CreateControlContainer@CWnd@@MAEHPAPAVCOleControlContainer@@@Z
	DD	FLAT:?CreateControlSite@CWnd@@MAEHPAVCOleControlContainer@@PAPAVCOleControlSite@@IABU_GUID@@@Z
	DD	FLAT:?SetOccDialogInfo@CWnd@@MAEHPAU_AFX_OCC_DIALOG_INFO@@@Z
	DD	FLAT:?Create@CFrameWnd@@UAEHPBD0KABUtagRECT@@PAVCWnd@@0KPAUCCreateContext@@@Z
	DD	FLAT:?LoadFrame@CFrameWnd@@UAEHIKPAVCWnd@@PAUCCreateContext@@@Z
	DD	FLAT:?GetActiveDocument@CFrameWnd@@UAEPAVCDocument@@XZ
	DD	FLAT:?GetActiveFrame@CFrameWnd@@UAEPAV1@XZ
	DD	FLAT:?GetMessageString@CFrameWnd@@UBEXIAAV?$CStringT@DV?$StrTraitMFC_DLL@DV?$ChTraitsCRT@D@ATL@@@@@ATL@@@Z
	DD	FLAT:?RecalcLayout@CFrameWnd@@UAEXH@Z
	DD	FLAT:?ActivateFrame@CFrameWnd@@UAEXH@Z
	DD	FLAT:?OnSetPreviewMode@CFrameWnd@@UAEXHPAUCPrintPreviewState@@@Z
	DD	FLAT:?GetMessageBar@CFrameWnd@@UAEPAVCWnd@@XZ
	DD	FLAT:?NegotiateBorderSpace@CFrameWnd@@UAEHIPAUtagRECT@@@Z
	DD	FLAT:?OnCreateClient@CFrameWnd@@MAEHPAUtagCREATESTRUCTA@@PAUCCreateContext@@@Z
	DD	FLAT:?OnUpdateFrameTitle@CFrameWnd@@UAEXH@Z
	DD	FLAT:?OnUpdateFrameMenu@CFrameWnd@@UAEXPAUHMENU__@@@Z
	DD	FLAT:?GetDefaultAccelerator@CFrameWnd@@UAEPAUHACCEL__@@XZ
	DD	FLAT:?DelayUpdateFrameMenu@CFrameWnd@@UAEXPAUHMENU__@@@Z
	DD	FLAT:?ExitHelpMode@CFrameWnd@@UAEXXZ
	DD	FLAT:?OnCliekButton@CSubjectChildWnd@@UAEXABV?$CStringT@DV?$StrTraitMFC_DLL@DV?$ChTraitsCRT@D@ATL@@@@@ATL@@@Z
CONST	ENDS
;	COMDAT ??_7CSubjectChildWnd@@6BIEventListener@@@
CONST	SEGMENT
??_7CSubjectChildWnd@@6BIEventListener@@@ DD FLAT:??_R4CSubjectChildWnd@@6BIEventListener@@@ ; CSubjectChildWnd::`vftable'
	DD	FLAT:?OnCliekButton@CSubjectChildWnd@@UAEXPAVCButton@@@Z
	DD	FLAT:?OnCliekSlide@IEventListener@@UAEXPAVCSliderCtrl@@@Z
	DD	FLAT:?OnSendChangeColor@IEventListener@@UAEXKI_N@Z
	DD	FLAT:?OnSendChangeSkin@CSubjectChildWnd@@UAEXV?$CStringT@DV?$StrTraitMFC_DLL@DV?$ChTraitsCRT@D@ATL@@@@@ATL@@@Z
	DD	FLAT:?OnSendChangeSubject@IEventListener@@UAEXV?$CStringT@DV?$StrTraitMFC_DLL@DV?$ChTraitsCRT@D@ATL@@@@@ATL@@0@Z
	DD	FLAT:?OnChangeSkinAndSub@IEventListener@@UAEXABV?$CStringT@DV?$StrTraitMFC_DLL@DV?$ChTraitsCRT@D@ATL@@@@@ATL@@0@Z
	DD	FLAT:?OnStartDownSubject@IEventListener@@UAEXABV?$CStringT@DV?$StrTraitMFC_DLL@DV?$ChTraitsCRT@D@ATL@@@@@ATL@@@Z
	DD	FLAT:?OnFinishDownSubject@IEventListener@@UAEXH@Z
CONST	ENDS
;	COMDAT ??_R4CSubjectChildWnd@@6BCFrameWnd@@@
rdata$r	SEGMENT
??_R4CSubjectChildWnd@@6BCFrameWnd@@@ DD 00H		; CSubjectChildWnd::`RTTI Complete Object Locator'
	DD	00H
	DD	00H
	DD	FLAT:??_R0?AVCSubjectChildWnd@@@8
	DD	FLAT:??_R3CSubjectChildWnd@@8
rdata$r	ENDS
;	COMDAT ??_R0?AVCSubjectChildWnd@@@8
_DATA	SEGMENT
??_R0?AVCSubjectChildWnd@@@8 DD FLAT:??_7type_info@@6B@	; CSubjectChildWnd `RTTI Type Descriptor'
	DD	00H
	DB	'.?AVCSubjectChildWnd@@', 00H
_DATA	ENDS
;	COMDAT ??_R3CSubjectChildWnd@@8
rdata$r	SEGMENT
??_R3CSubjectChildWnd@@8 DD 00H				; CSubjectChildWnd::`RTTI Class Hierarchy Descriptor'
	DD	01H
	DD	06H
	DD	FLAT:??_R2CSubjectChildWnd@@8
rdata$r	ENDS
;	COMDAT ??_R2CSubjectChildWnd@@8
rdata$r	SEGMENT
??_R2CSubjectChildWnd@@8 DD FLAT:??_R1A@?0A@A@CSubjectChildWnd@@8 ; CSubjectChildWnd::`RTTI Base Class Array'
	DD	FLAT:??_R1A@?0A@A@CFrameWnd@@8
	DD	FLAT:??_R1A@?0A@A@CWnd@@8
	DD	FLAT:??_R1A@?0A@A@CCmdTarget@@8
	DD	FLAT:??_R1A@?0A@A@CObject@@8
	DD	FLAT:??_R1NE@?0A@A@IEventListener@@8
rdata$r	ENDS
;	COMDAT ??_R1A@?0A@A@CSubjectChildWnd@@8
rdata$r	SEGMENT
??_R1A@?0A@A@CSubjectChildWnd@@8 DD FLAT:??_R0?AVCSubjectChildWnd@@@8 ; CSubjectChildWnd::`RTTI Base Class Descriptor at (0,-1,0,0)'
	DD	05H
	DD	00H
	DD	0ffffffffH
	DD	00H
	DD	00H
rdata$r	ENDS
;	COMDAT ??_R1A@?0A@A@CFrameWnd@@8
rdata$r	SEGMENT
??_R1A@?0A@A@CFrameWnd@@8 DD FLAT:??_R0?AVCFrameWnd@@@8	; CFrameWnd::`RTTI Base Class Descriptor at (0,-1,0,0)'
	DD	03H
	DD	00H
	DD	0ffffffffH
	DD	00H
	DD	00H
rdata$r	ENDS
;	COMDAT ??_R0?AVCFrameWnd@@@8
_DATA	SEGMENT
??_R0?AVCFrameWnd@@@8 DD FLAT:??_7type_info@@6B@	; CFrameWnd `RTTI Type Descriptor'
	DD	00H
	DB	'.?AVCFrameWnd@@', 00H
_DATA	ENDS
;	COMDAT ??_R1A@?0A@A@CWnd@@8
rdata$r	SEGMENT
??_R1A@?0A@A@CWnd@@8 DD FLAT:??_R0?AVCWnd@@@8		; CWnd::`RTTI Base Class Descriptor at (0,-1,0,0)'
	DD	02H
	DD	00H
	DD	0ffffffffH
	DD	00H
	DD	00H
rdata$r	ENDS
;	COMDAT ??_R0?AVCWnd@@@8
_DATA	SEGMENT
??_R0?AVCWnd@@@8 DD FLAT:??_7type_info@@6B@		; CWnd `RTTI Type Descriptor'
	DD	00H
	DB	'.?AVCWnd@@', 00H
_DATA	ENDS
;	COMDAT ??_R1A@?0A@A@CCmdTarget@@8
rdata$r	SEGMENT
??_R1A@?0A@A@CCmdTarget@@8 DD FLAT:??_R0?AVCCmdTarget@@@8 ; CCmdTarget::`RTTI Base Class Descriptor at (0,-1,0,0)'
	DD	01H
	DD	00H
	DD	0ffffffffH
	DD	00H
	DD	00H
rdata$r	ENDS
;	COMDAT ??_R0?AVCCmdTarget@@@8
_DATA	SEGMENT
??_R0?AVCCmdTarget@@@8 DD FLAT:??_7type_info@@6B@	; CCmdTarget `RTTI Type Descriptor'
	DD	00H
	DB	'.?AVCCmdTarget@@', 00H
_DATA	ENDS
;	COMDAT ??_R1A@?0A@A@CObject@@8
rdata$r	SEGMENT
??_R1A@?0A@A@CObject@@8 DD FLAT:??_R0?AVCObject@@@8	; CObject::`RTTI Base Class Descriptor at (0,-1,0,0)'
	DD	00H
	DD	00H
	DD	0ffffffffH
	DD	00H
	DD	00H
rdata$r	ENDS
;	COMDAT ??_R0?AVCObject@@@8
_DATA	SEGMENT
??_R0?AVCObject@@@8 DD FLAT:??_7type_info@@6B@		; CObject `RTTI Type Descriptor'
	DD	00H
	DB	'.?AVCObject@@', 00H
_DATA	ENDS
;	COMDAT ??_R1NE@?0A@A@IEventListener@@8
rdata$r	SEGMENT
??_R1NE@?0A@A@IEventListener@@8 DD FLAT:??_R0?AVIEventListener@@@8 ; IEventListener::`RTTI Base Class Descriptor at (212,-1,0,0)'
	DD	00H
	DD	0d4H
	DD	0ffffffffH
	DD	00H
	DD	00H
rdata$r	ENDS
;	COMDAT ??_R0?AVIEventListener@@@8
_DATA	SEGMENT
??_R0?AVIEventListener@@@8 DD FLAT:??_7type_info@@6B@	; IEventListener `RTTI Type Descriptor'
	DD	00H
	DB	'.?AVIEventListener@@', 00H
_DATA	ENDS
;	COMDAT ??_R4CSubjectChildWnd@@6BIEventListener@@@
rdata$r	SEGMENT
??_R4CSubjectChildWnd@@6BIEventListener@@@ DD 00H	; CSubjectChildWnd::`RTTI Complete Object Locator'
	DD	0d4H
	DD	00H
	DD	FLAT:??_R0?AVCSubjectChildWnd@@@8
	DD	FLAT:??_R3CSubjectChildWnd@@8
; Function compile flags: /Odt /RTCsu
rdata$r	ENDS
_TEXT	SEGMENT
_this$ = -16						; size = 4
__$EHRec$ = -12						; size = 12
??0CSubjectChildWnd@@QAE@XZ PROC NEAR			; CSubjectChildWnd::CSubjectChildWnd
; _this$ = ecx

; 16   : {

  000c0	55		 push	 ebp
  000c1	8b ec		 mov	 ebp, esp
  000c3	6a ff		 push	 -1
  000c5	68 00 00 00 00	 push	 __ehhandler$??0CSubjectChildWnd@@QAE@XZ
  000ca	64 a1 00 00 00
	00		 mov	 eax, DWORD PTR fs:__except_list
  000d0	50		 push	 eax
  000d1	64 89 25 00 00
	00 00		 mov	 DWORD PTR fs:__except_list, esp
  000d8	51		 push	 ecx
  000d9	c7 45 f0 cc cc
	cc cc		 mov	 DWORD PTR [ebp-16], -858993460 ; ccccccccH
  000e0	89 4d f0	 mov	 DWORD PTR _this$[ebp], ecx
  000e3	8b 4d f0	 mov	 ecx, DWORD PTR _this$[ebp]
  000e6	e8 00 00 00 00	 call	 ??0CFrameWnd@@QAE@XZ	; CFrameWnd::CFrameWnd
  000eb	c7 45 fc 00 00
	00 00		 mov	 DWORD PTR __$EHRec$[ebp+8], 0
  000f2	8b 4d f0	 mov	 ecx, DWORD PTR _this$[ebp]
  000f5	81 c1 d4 00 00
	00		 add	 ecx, 212		; 000000d4H
  000fb	e8 00 00 00 00	 call	 ??0IEventListener@@QAE@XZ
  00100	8b 45 f0	 mov	 eax, DWORD PTR _this$[ebp]
  00103	c7 00 00 00 00
	00		 mov	 DWORD PTR [eax], OFFSET FLAT:??_7CSubjectChildWnd@@6BCFrameWnd@@@
  00109	8b 4d f0	 mov	 ecx, DWORD PTR _this$[ebp]
  0010c	c7 81 d4 00 00
	00 00 00 00 00	 mov	 DWORD PTR [ecx+212], OFFSET FLAT:??_7CSubjectChildWnd@@6BIEventListener@@@
  00116	8b 4d f0	 mov	 ecx, DWORD PTR _this$[ebp]
  00119	81 c1 dc 00 00
	00		 add	 ecx, 220		; 000000dcH
  0011f	e8 00 00 00 00	 call	 ??0CScrollBarEx@@QAE@XZ	; CScrollBarEx::CScrollBarEx
  00124	c6 45 fc 01	 mov	 BYTE PTR __$EHRec$[ebp+8], 1
  00128	8b 4d f0	 mov	 ecx, DWORD PTR _this$[ebp]
  0012b	81 c1 c0 01 00
	00		 add	 ecx, 448		; 000001c0H
  00131	e8 00 00 00 00	 call	 ??0CScrollBarEx@@QAE@XZ	; CScrollBarEx::CScrollBarEx
  00136	c6 45 fc 02	 mov	 BYTE PTR __$EHRec$[ebp+8], 2
  0013a	8b 4d f0	 mov	 ecx, DWORD PTR _this$[ebp]
  0013d	81 c1 a4 02 00
	00		 add	 ecx, 676		; 000002a4H
  00143	e8 00 00 00 00	 call	 ??0CRect@@QAE@XZ	; CRect::CRect
  00148	8b 4d f0	 mov	 ecx, DWORD PTR _this$[ebp]
  0014b	81 c1 c0 02 00
	00		 add	 ecx, 704		; 000002c0H
  00151	e8 00 00 00 00	 call	 ??0?$list@PAVCSkinButton@@V?$allocator@PAVCSkinButton@@@std@@@std@@QAE@XZ ; std::list<CSkinButton *,std::allocator<CSkinButton *> >::list<CSkinButton *,std::allocator<CSkinButton *> >
  00156	c6 45 fc 03	 mov	 BYTE PTR __$EHRec$[ebp+8], 3
  0015a	8b 4d f0	 mov	 ecx, DWORD PTR _this$[ebp]
  0015d	81 c1 cc 02 00
	00		 add	 ecx, 716		; 000002ccH
  00163	e8 00 00 00 00	 call	 ??0iterator@?$list@PAVCSkinButton@@V?$allocator@PAVCSkinButton@@@std@@@std@@QAE@XZ ; std::list<CSkinButton *,std::allocator<CSkinButton *> >::iterator::iterator
  00168	8b 4d f0	 mov	 ecx, DWORD PTR _this$[ebp]
  0016b	81 c1 d0 02 00
	00		 add	 ecx, 720		; 000002d0H
  00171	e8 00 00 00 00	 call	 ??0iterator@?$list@PAVCSkinButton@@V?$allocator@PAVCSkinButton@@@std@@@std@@QAE@XZ ; std::list<CSkinButton *,std::allocator<CSkinButton *> >::iterator::iterator
  00176	8b 4d f0	 mov	 ecx, DWORD PTR _this$[ebp]
  00179	81 c1 d4 02 00
	00		 add	 ecx, 724		; 000002d4H
  0017f	e8 00 00 00 00	 call	 ??0?$list@PAVCSubLabel@@V?$allocator@PAVCSubLabel@@@std@@@std@@QAE@XZ ; std::list<CSubLabel *,std::allocator<CSubLabel *> >::list<CSubLabel *,std::allocator<CSubLabel *> >
  00184	c6 45 fc 04	 mov	 BYTE PTR __$EHRec$[ebp+8], 4
  00188	8b 4d f0	 mov	 ecx, DWORD PTR _this$[ebp]
  0018b	81 c1 e4 02 00
	00		 add	 ecx, 740		; 000002e4H
  00191	e8 00 00 00 00	 call	 ??0?$map@V?$CStringT@DV?$StrTraitMFC_DLL@DV?$ChTraitsCRT@D@ATL@@@@@ATL@@PAVCSkinButton@@U?$less@V?$CStringT@DV?$StrTraitMFC_DLL@DV?$ChTraitsCRT@D@ATL@@@@@ATL@@@std@@V?$allocator@U?$pair@$$CBV?$CStringT@DV?$StrTraitMFC_DLL@DV?$ChTraitsCRT@D@ATL@@@@@ATL@@PAVCSkinButton@@@std@@@5@@std@@QAE@XZ ; std::map<ATL::CStringT<char,StrTraitMFC_DLL<char,ATL::ChTraitsCRT<char> > >,CSkinButton *,std::less<ATL::CStringT<char,StrTraitMFC_DLL<char,ATL::ChTraitsCRT<char> > > >,std::allocator<std::pair<ATL::CStringT<char,StrTraitMFC_DLL<char,ATL::ChTraitsCRT<char> > > const ,CSkinButton *> > >::map<ATL::CStringT<char,StrTraitMFC_DLL<char,ATL::ChTraitsCRT<char> > >,CSkinButton *,std::less<ATL::CStringT<char,StrTraitMFC_DLL<char,ATL::ChTraitsCRT<char> > > >,std::allocator<std::pair<ATL::CStringT<char,StrTraitMFC_DLL<char,ATL::ChTraitsCRT<char> > > const ,CSkinButton *> > >

; 17   : 	miScrollPos = 0;

  00196	8b 55 f0	 mov	 edx, DWORD PTR _this$[ebp]
  00199	c7 82 d8 00 00
	00 00 00 00 00	 mov	 DWORD PTR [edx+216], 0

; 18   : 	mbIsHasScroll = false;

  001a3	8b 45 f0	 mov	 eax, DWORD PTR _this$[ebp]
  001a6	c6 80 b8 02 00
	00 00		 mov	 BYTE PTR [eax+696], 0

; 19   : 	m_nMaxViewPos = 0;

  001ad	8b 4d f0	 mov	 ecx, DWORD PTR _this$[ebp]
  001b0	c7 81 bc 02 00
	00 00 00 00 00	 mov	 DWORD PTR [ecx+700], 0

; 20   : 	mp_EventListener = NULL;

  001ba	8b 55 f0	 mov	 edx, DWORD PTR _this$[ebp]
  001bd	c7 82 f0 02 00
	00 00 00 00 00	 mov	 DWORD PTR [edx+752], 0

; 21   : }

  001c7	c7 45 fc ff ff
	ff ff		 mov	 DWORD PTR __$EHRec$[ebp+8], -1
  001ce	8b 45 f0	 mov	 eax, DWORD PTR _this$[ebp]
  001d1	8b 4d f4	 mov	 ecx, DWORD PTR __$EHRec$[ebp]
  001d4	64 89 0d 00 00
	00 00		 mov	 DWORD PTR fs:__except_list, ecx
  001db	83 c4 10	 add	 esp, 16			; 00000010H
  001de	3b ec		 cmp	 ebp, esp
  001e0	e8 00 00 00 00	 call	 __RTC_CheckEsp
  001e5	8b e5		 mov	 esp, ebp
  001e7	5d		 pop	 ebp
  001e8	c3		 ret	 0
_TEXT	ENDS
text$x	SEGMENT
$L194614:
  00014	8b 4d f0	 mov	 ecx, DWORD PTR _this$[ebp]
  00017	e9 00 00 00 00	 jmp	 ??1CFrameWnd@@UAE@XZ	; CFrameWnd::~CFrameWnd
$L194615:
  0001c	8b 4d f0	 mov	 ecx, DWORD PTR _this$[ebp]
  0001f	81 c1 dc 00 00
	00		 add	 ecx, 220		; 000000dcH
  00025	e9 00 00 00 00	 jmp	 ??1CScrollBarEx@@UAE@XZ	; CScrollBarEx::~CScrollBarEx
$L194616:
  0002a	8b 4d f0	 mov	 ecx, DWORD PTR _this$[ebp]
  0002d	81 c1 c0 01 00
	00		 add	 ecx, 448		; 000001c0H
  00033	e9 00 00 00 00	 jmp	 ??1CScrollBarEx@@UAE@XZ	; CScrollBarEx::~CScrollBarEx
$L194617:
  00038	8b 4d f0	 mov	 ecx, DWORD PTR _this$[ebp]
  0003b	81 c1 c0 02 00
	00		 add	 ecx, 704		; 000002c0H
  00041	e9 00 00 00 00	 jmp	 ??1?$list@PAVCSkinButton@@V?$allocator@PAVCSkinButton@@@std@@@std@@QAE@XZ ; std::list<CSkinButton *,std::allocator<CSkinButton *> >::~list<CSkinButton *,std::allocator<CSkinButton *> >
$L194618:
  00046	8b 4d f0	 mov	 ecx, DWORD PTR _this$[ebp]
  00049	81 c1 d4 02 00
	00		 add	 ecx, 724		; 000002d4H
  0004f	e9 00 00 00 00	 jmp	 ??1?$list@PAVCSubLabel@@V?$allocator@PAVCSubLabel@@@std@@@std@@QAE@XZ ; std::list<CSubLabel *,std::allocator<CSubLabel *> >::~list<CSubLabel *,std::allocator<CSubLabel *> >
__ehhandler$??0CSubjectChildWnd@@QAE@XZ:
  00054	b8 00 00 00 00	 mov	 eax, OFFSET FLAT:$T194621
  00059	e9 00 00 00 00	 jmp	 ___CxxFrameHandler
text$x	ENDS
??0CSubjectChildWnd@@QAE@XZ ENDP			; CSubjectChildWnd::CSubjectChildWnd
; Function compile flags: /Odt /RTCsu
; File d:\boxgit\playbox\playbox\dev\prj\playbox\src\layoutmgr\changecolor\ievent.h
;	COMDAT ?OnCliekSlide@IEventListener@@UAEXPAVCSliderCtrl@@@Z
_TEXT	SEGMENT
_this$ = -4						; size = 4
_pBotton$ = 8						; size = 4
?OnCliekSlide@IEventListener@@UAEXPAVCSliderCtrl@@@Z PROC NEAR ; IEventListener::OnCliekSlide, COMDAT
; _this$ = ecx

; 8    : 	virtual void OnCliekSlide(CSliderCtrl* pBotton){};

  00000	55		 push	 ebp
  00001	8b ec		 mov	 ebp, esp
  00003	51		 push	 ecx
  00004	c7 45 fc cc cc
	cc cc		 mov	 DWORD PTR [ebp-4], -858993460 ; ccccccccH
  0000b	89 4d fc	 mov	 DWORD PTR _this$[ebp], ecx
  0000e	8b e5		 mov	 esp, ebp
  00010	5d		 pop	 ebp
  00011	c2 04 00	 ret	 4
?OnCliekSlide@IEventListener@@UAEXPAVCSliderCtrl@@@Z ENDP ; IEventListener::OnCliekSlide
; Function compile flags: /Odt /RTCsu
_TEXT	ENDS
;	COMDAT ?OnSendChangeColor@IEventListener@@UAEXKI_N@Z
_TEXT	SEGMENT
_this$ = -4						; size = 4
_acolCol$ = 8						; size = 4
_anLightValue$ = 12					; size = 4
_bChangeTop$ = 16					; size = 1
?OnSendChangeColor@IEventListener@@UAEXKI_N@Z PROC NEAR	; IEventListener::OnSendChangeColor, COMDAT
; _this$ = ecx

; 9    : 	virtual void OnSendChangeColor( COLORREF acolCol, UINT anLightValue,bool bChangeTop = true ){};

  00000	55		 push	 ebp
  00001	8b ec		 mov	 ebp, esp
  00003	51		 push	 ecx
  00004	c7 45 fc cc cc
	cc cc		 mov	 DWORD PTR [ebp-4], -858993460 ; ccccccccH
  0000b	89 4d fc	 mov	 DWORD PTR _this$[ebp], ecx
  0000e	8b e5		 mov	 esp, ebp
  00010	5d		 pop	 ebp
  00011	c2 0c 00	 ret	 12			; 0000000cH
?OnSendChangeColor@IEventListener@@UAEXKI_N@Z ENDP	; IEventListener::OnSendChangeColor
_TEXT	ENDS
EXTRN	__imp_??1?$CStringT@DV?$StrTraitMFC_DLL@DV?$ChTraitsCRT@D@ATL@@@@@ATL@@QAE@XZ:NEAR
; Function compile flags: /Odt /RTCsu
;	COMDAT ?OnSendChangeSubject@IEventListener@@UAEXV?$CStringT@DV?$StrTraitMFC_DLL@DV?$ChTraitsCRT@D@ATL@@@@@ATL@@0@Z
_TEXT	SEGMENT
_this$ = -4						; size = 4
___formal$ = 8						; size = 4
_subjectName$ = 12					; size = 4
?OnSendChangeSubject@IEventListener@@UAEXV?$CStringT@DV?$StrTraitMFC_DLL@DV?$ChTraitsCRT@D@ATL@@@@@ATL@@0@Z PROC NEAR ; IEventListener::OnSendChangeSubject, COMDAT
; _this$ = ecx

; 11   : 	virtual void OnSendChangeSubject(CString,CString subjectName){};

  00000	55		 push	 ebp
  00001	8b ec		 mov	 ebp, esp
  00003	51		 push	 ecx
  00004	56		 push	 esi
  00005	c7 45 fc cc cc
	cc cc		 mov	 DWORD PTR [ebp-4], -858993460 ; ccccccccH
  0000c	89 4d fc	 mov	 DWORD PTR _this$[ebp], ecx
  0000f	8b f4		 mov	 esi, esp
  00011	8d 4d 08	 lea	 ecx, DWORD PTR ___formal$[ebp]
  00014	ff 15 00 00 00
	00		 call	 DWORD PTR __imp_??1?$CStringT@DV?$StrTraitMFC_DLL@DV?$ChTraitsCRT@D@ATL@@@@@ATL@@QAE@XZ
  0001a	3b f4		 cmp	 esi, esp
  0001c	e8 00 00 00 00	 call	 __RTC_CheckEsp
  00021	8b f4		 mov	 esi, esp
  00023	8d 4d 0c	 lea	 ecx, DWORD PTR _subjectName$[ebp]
  00026	ff 15 00 00 00
	00		 call	 DWORD PTR __imp_??1?$CStringT@DV?$StrTraitMFC_DLL@DV?$ChTraitsCRT@D@ATL@@@@@ATL@@QAE@XZ
  0002c	3b f4		 cmp	 esi, esp
  0002e	e8 00 00 00 00	 call	 __RTC_CheckEsp
  00033	5e		 pop	 esi
  00034	83 c4 04	 add	 esp, 4
  00037	3b ec		 cmp	 ebp, esp
  00039	e8 00 00 00 00	 call	 __RTC_CheckEsp
  0003e	8b e5		 mov	 esp, ebp
  00040	5d		 pop	 ebp
  00041	c2 08 00	 ret	 8
?OnSendChangeSubject@IEventListener@@UAEXV?$CStringT@DV?$StrTraitMFC_DLL@DV?$ChTraitsCRT@D@ATL@@@@@ATL@@0@Z ENDP ; IEventListener::OnSendChangeSubject
; Function compile flags: /Odt /RTCsu
_TEXT	ENDS
;	COMDAT ?OnChangeSkinAndSub@IEventListener@@UAEXABV?$CStringT@DV?$StrTraitMFC_DLL@DV?$ChTraitsCRT@D@ATL@@@@@ATL@@0@Z
_TEXT	SEGMENT
_this$ = -4						; size = 4
_strPath$ = 8						; size = 4
_strSub$ = 12						; size = 4
?OnChangeSkinAndSub@IEventListener@@UAEXABV?$CStringT@DV?$StrTraitMFC_DLL@DV?$ChTraitsCRT@D@ATL@@@@@ATL@@0@Z PROC NEAR ; IEventListener::OnChangeSkinAndSub, COMDAT
; _this$ = ecx

; 12   : 	virtual void OnChangeSkinAndSub(const CString& strPath,const CString& strSub){};

  00000	55		 push	 ebp
  00001	8b ec		 mov	 ebp, esp
  00003	51		 push	 ecx
  00004	c7 45 fc cc cc
	cc cc		 mov	 DWORD PTR [ebp-4], -858993460 ; ccccccccH
  0000b	89 4d fc	 mov	 DWORD PTR _this$[ebp], ecx
  0000e	8b e5		 mov	 esp, ebp
  00010	5d		 pop	 ebp
  00011	c2 08 00	 ret	 8
?OnChangeSkinAndSub@IEventListener@@UAEXABV?$CStringT@DV?$StrTraitMFC_DLL@DV?$ChTraitsCRT@D@ATL@@@@@ATL@@0@Z ENDP ; IEventListener::OnChangeSkinAndSub
; Function compile flags: /Odt /RTCsu
_TEXT	ENDS
;	COMDAT ?OnStartDownSubject@IEventListener@@UAEXABV?$CStringT@DV?$StrTraitMFC_DLL@DV?$ChTraitsCRT@D@ATL@@@@@ATL@@@Z
_TEXT	SEGMENT
_this$ = -4						; size = 4
_strSubName$ = 8					; size = 4
?OnStartDownSubject@IEventListener@@UAEXABV?$CStringT@DV?$StrTraitMFC_DLL@DV?$ChTraitsCRT@D@ATL@@@@@ATL@@@Z PROC NEAR ; IEventListener::OnStartDownSubject, COMDAT
; _this$ = ecx

; 13   : 	virtual void OnStartDownSubject(const CString& strSubName){};

  00000	55		 push	 ebp
  00001	8b ec		 mov	 ebp, esp
  00003	51		 push	 ecx
  00004	c7 45 fc cc cc
	cc cc		 mov	 DWORD PTR [ebp-4], -858993460 ; ccccccccH
  0000b	89 4d fc	 mov	 DWORD PTR _this$[ebp], ecx
  0000e	8b e5		 mov	 esp, ebp
  00010	5d		 pop	 ebp
  00011	c2 04 00	 ret	 4
?OnStartDownSubject@IEventListener@@UAEXABV?$CStringT@DV?$StrTraitMFC_DLL@DV?$ChTraitsCRT@D@ATL@@@@@ATL@@@Z ENDP ; IEventListener::OnStartDownSubject
; Function compile flags: /Odt /RTCsu
_TEXT	ENDS
;	COMDAT ?OnFinishDownSubject@IEventListener@@UAEXH@Z
_TEXT	SEGMENT
_this$ = -4						; size = 4
_bSuc$ = 8						; size = 4
?OnFinishDownSubject@IEventListener@@UAEXH@Z PROC NEAR	; IEventListener::OnFinishDownSubject, COMDAT
; _this$ = ecx

; 14   : 	virtual void OnFinishDownSubject(BOOL bSuc){};

  00000	55		 push	 ebp
  00001	8b ec		 mov	 ebp, esp
  00003	51		 push	 ecx
  00004	c7 45 fc cc cc
	cc cc		 mov	 DWORD PTR [ebp-4], -858993460 ; ccccccccH
  0000b	89 4d fc	 mov	 DWORD PTR _this$[ebp], ecx
  0000e	8b e5		 mov	 esp, ebp
  00010	5d		 pop	 ebp
  00011	c2 04 00	 ret	 4
?OnFinishDownSubject@IEventListener@@UAEXH@Z ENDP	; IEventListener::OnFinishDownSubject
_TEXT	ENDS
PUBLIC	??1CSubjectChildWnd@@UAE@XZ			; CSubjectChildWnd::~CSubjectChildWnd
; Function compile flags: /Odt /RTCsu
;	COMDAT ??_GCSubjectChildWnd@@UAEPAXI@Z
_TEXT	SEGMENT
_this$ = -4						; size = 4
___flags$ = 8						; size = 4
??_GCSubjectChildWnd@@UAEPAXI@Z PROC NEAR		; CSubjectChildWnd::`scalar deleting destructor', COMDAT
; _this$ = ecx
  00000	55		 push	 ebp
  00001	8b ec		 mov	 ebp, esp
  00003	51		 push	 ecx
  00004	c7 45 fc cc cc
	cc cc		 mov	 DWORD PTR [ebp-4], -858993460 ; ccccccccH
  0000b	89 4d fc	 mov	 DWORD PTR _this$[ebp], ecx
  0000e	8b 4d fc	 mov	 ecx, DWORD PTR _this$[ebp]
  00011	e8 00 00 00 00	 call	 ??1CSubjectChildWnd@@UAE@XZ ; CSubjectChildWnd::~CSubjectChildWnd
  00016	8b 45 08	 mov	 eax, DWORD PTR ___flags$[ebp]
  00019	83 e0 01	 and	 eax, 1
  0001c	74 09		 je	 SHORT $L191908
  0001e	8b 4d fc	 mov	 ecx, DWORD PTR _this$[ebp]
  00021	51		 push	 ecx
  00022	e8 00 00 00 00	 call	 ??3CObject@@SGXPAX@Z	; CObject::operator delete
$L191908:
  00027	8b 45 fc	 mov	 eax, DWORD PTR _this$[ebp]
  0002a	83 c4 04	 add	 esp, 4
  0002d	3b ec		 cmp	 ebp, esp
  0002f	e8 00 00 00 00	 call	 __RTC_CheckEsp
  00034	8b e5		 mov	 esp, ebp
  00036	5d		 pop	 ebp
  00037	c2 04 00	 ret	 4
??_GCSubjectChildWnd@@UAEPAXI@Z ENDP			; CSubjectChildWnd::`scalar deleting destructor'
_TEXT	ENDS
PUBLIC	?OnCliekButton@IEventListener@@UAEXPAVCButton@@@Z ; IEventListener::OnCliekButton
PUBLIC	?OnSendChangeSkin@IEventListener@@UAEXV?$CStringT@DV?$StrTraitMFC_DLL@DV?$ChTraitsCRT@D@ATL@@@@@ATL@@@Z ; IEventListener::OnSendChangeSkin
PUBLIC	??_7IEventListener@@6B@				; IEventListener::`vftable'
PUBLIC	??_R4IEventListener@@6B@			; IEventListener::`RTTI Complete Object Locator'
PUBLIC	??_R3IEventListener@@8				; IEventListener::`RTTI Class Hierarchy Descriptor'
PUBLIC	??_R2IEventListener@@8				; IEventListener::`RTTI Base Class Array'
PUBLIC	??_R1A@?0A@A@IEventListener@@8			; IEventListener::`RTTI Base Class Descriptor at (0,-1,0,0)'
;	COMDAT ??_7IEventListener@@6B@
CONST	SEGMENT
??_7IEventListener@@6B@ DD FLAT:??_R4IEventListener@@6B@ ; IEventListener::`vftable'
	DD	FLAT:?OnCliekButton@IEventListener@@UAEXPAVCButton@@@Z
	DD	FLAT:?OnCliekSlide@IEventListener@@UAEXPAVCSliderCtrl@@@Z
	DD	FLAT:?OnSendChangeColor@IEventListener@@UAEXKI_N@Z
	DD	FLAT:?OnSendChangeSkin@IEventListener@@UAEXV?$CStringT@DV?$StrTraitMFC_DLL@DV?$ChTraitsCRT@D@ATL@@@@@ATL@@@Z
	DD	FLAT:?OnSendChangeSubject@IEventListener@@UAEXV?$CStringT@DV?$StrTraitMFC_DLL@DV?$ChTraitsCRT@D@ATL@@@@@ATL@@0@Z
	DD	FLAT:?OnChangeSkinAndSub@IEventListener@@UAEXABV?$CStringT@DV?$StrTraitMFC_DLL@DV?$ChTraitsCRT@D@ATL@@@@@ATL@@0@Z
	DD	FLAT:?OnStartDownSubject@IEventListener@@UAEXABV?$CStringT@DV?$StrTraitMFC_DLL@DV?$ChTraitsCRT@D@ATL@@@@@ATL@@@Z
	DD	FLAT:?OnFinishDownSubject@IEventListener@@UAEXH@Z
CONST	ENDS
;	COMDAT ??_R4IEventListener@@6B@
rdata$r	SEGMENT
??_R4IEventListener@@6B@ DD 00H				; IEventListener::`RTTI Complete Object Locator'
	DD	00H
	DD	00H
	DD	FLAT:??_R0?AVIEventListener@@@8
	DD	FLAT:??_R3IEventListener@@8
rdata$r	ENDS
;	COMDAT ??_R3IEventListener@@8
rdata$r	SEGMENT
??_R3IEventListener@@8 DD 00H				; IEventListener::`RTTI Class Hierarchy Descriptor'
	DD	00H
	DD	01H
	DD	FLAT:??_R2IEventListener@@8
rdata$r	ENDS
;	COMDAT ??_R2IEventListener@@8
rdata$r	SEGMENT
??_R2IEventListener@@8 DD FLAT:??_R1A@?0A@A@IEventListener@@8 ; IEventListener::`RTTI Base Class Array'
rdata$r	ENDS
;	COMDAT ??_R1A@?0A@A@IEventListener@@8
rdata$r	SEGMENT
??_R1A@?0A@A@IEventListener@@8 DD FLAT:??_R0?AVIEventListener@@@8 ; IEventListener::`RTTI Base Class Descriptor at (0,-1,0,0)'
	DD	00H
	DD	00H
	DD	0ffffffffH
	DD	00H
	DD	00H
; Function compile flags: /Odt /RTCsu
rdata$r	ENDS
;	COMDAT ??0IEventListener@@QAE@XZ
_TEXT	SEGMENT
_this$ = -4						; size = 4
??0IEventListener@@QAE@XZ PROC NEAR			; IEventListener::IEventListener, COMDAT
; _this$ = ecx
  00000	55		 push	 ebp
  00001	8b ec		 mov	 ebp, esp
  00003	51		 push	 ecx
  00004	c7 45 fc cc cc
	cc cc		 mov	 DWORD PTR [ebp-4], -858993460 ; ccccccccH
  0000b	89 4d fc	 mov	 DWORD PTR _this$[ebp], ecx
  0000e	8b 45 fc	 mov	 eax, DWORD PTR _this$[ebp]
  00011	c7 00 00 00 00
	00		 mov	 DWORD PTR [eax], OFFSET FLAT:??_7IEventListener@@6B@
  00017	8b 45 fc	 mov	 eax, DWORD PTR _this$[ebp]
  0001a	8b e5		 mov	 esp, ebp
  0001c	5d		 pop	 ebp
  0001d	c3		 ret	 0
??0IEventListener@@QAE@XZ ENDP				; IEventListener::IEventListener
; Function compile flags: /Odt /RTCsu
_TEXT	ENDS
;	COMDAT ?OnCliekButton@IEventListener@@UAEXPAVCButton@@@Z
_TEXT	SEGMENT
_this$ = -4						; size = 4
_pBotton$ = 8						; size = 4
?OnCliekButton@IEventListener@@UAEXPAVCButton@@@Z PROC NEAR ; IEventListener::OnCliekButton, COMDAT
; _this$ = ecx

; 7    : 	virtual void OnCliekButton(CButton* pBotton){};

  00000	55		 push	 ebp
  00001	8b ec		 mov	 ebp, esp
  00003	51		 push	 ecx
  00004	c7 45 fc cc cc
	cc cc		 mov	 DWORD PTR [ebp-4], -858993460 ; ccccccccH
  0000b	89 4d fc	 mov	 DWORD PTR _this$[ebp], ecx
  0000e	8b e5		 mov	 esp, ebp
  00010	5d		 pop	 ebp
  00011	c2 04 00	 ret	 4
?OnCliekButton@IEventListener@@UAEXPAVCButton@@@Z ENDP	; IEventListener::OnCliekButton
; Function compile flags: /Odt /RTCsu
_TEXT	ENDS
;	COMDAT ?OnSendChangeSkin@IEventListener@@UAEXV?$CStringT@DV?$StrTraitMFC_DLL@DV?$ChTraitsCRT@D@ATL@@@@@ATL@@@Z
_TEXT	SEGMENT
_this$ = -4						; size = 4
_strPath$ = 8						; size = 4
?OnSendChangeSkin@IEventListener@@UAEXV?$CStringT@DV?$StrTraitMFC_DLL@DV?$ChTraitsCRT@D@ATL@@@@@ATL@@@Z PROC NEAR ; IEventListener::OnSendChangeSkin, COMDAT
; _this$ = ecx

; 10   : 	virtual void OnSendChangeSkin ( CString strPath){};	

  00000	55		 push	 ebp
  00001	8b ec		 mov	 ebp, esp
  00003	51		 push	 ecx
  00004	56		 push	 esi
  00005	c7 45 fc cc cc
	cc cc		 mov	 DWORD PTR [ebp-4], -858993460 ; ccccccccH
  0000c	89 4d fc	 mov	 DWORD PTR _this$[ebp], ecx
  0000f	8b f4		 mov	 esi, esp
  00011	8d 4d 08	 lea	 ecx, DWORD PTR _strPath$[ebp]
  00014	ff 15 00 00 00
	00		 call	 DWORD PTR __imp_??1?$CStringT@DV?$StrTraitMFC_DLL@DV?$ChTraitsCRT@D@ATL@@@@@ATL@@QAE@XZ
  0001a	3b f4		 cmp	 esi, esp
  0001c	e8 00 00 00 00	 call	 __RTC_CheckEsp
  00021	5e		 pop	 esi
  00022	83 c4 04	 add	 esp, 4
  00025	3b ec		 cmp	 ebp, esp
  00027	e8 00 00 00 00	 call	 __RTC_CheckEsp
  0002c	8b e5		 mov	 esp, ebp
  0002e	5d		 pop	 ebp
  0002f	c2 04 00	 ret	 4
?OnSendChangeSkin@IEventListener@@UAEXV?$CStringT@DV?$StrTraitMFC_DLL@DV?$ChTraitsCRT@D@ATL@@@@@ATL@@@Z ENDP ; IEventListener::OnSendChangeSkin
_TEXT	ENDS
PUBLIC	??1?$map@V?$CStringT@DV?$StrTraitMFC_DLL@DV?$ChTraitsCRT@D@ATL@@@@@ATL@@PAVCSkinButton@@U?$less@V?$CStringT@DV?$StrTraitMFC_DLL@DV?$ChTraitsCRT@D@ATL@@@@@ATL@@@std@@V?$allocator@U?$pair@$$CBV?$CStringT@DV?$StrTraitMFC_DLL@DV?$ChTraitsCRT@D@ATL@@@@@ATL@@PAVCSkinButton@@@std@@@5@@std@@QAE@XZ ; std::map<ATL::CStringT<char,StrTraitMFC_DLL<char,ATL::ChTraitsCRT<char> > >,CSkinButton *,std::less<ATL::CStringT<char,StrTraitMFC_DLL<char,ATL::ChTraitsCRT<char> > > >,std::allocator<std::pair<ATL::CStringT<char,StrTraitMFC_DLL<char,ATL::ChTraitsCRT<char> > > const ,CSkinButton *> > >::~map<ATL::CStringT<char,StrTraitMFC_DLL<char,ATL::ChTraitsCRT<char> > >,CSkinButton *,std::less<ATL::CStringT<char,StrTraitMFC_DLL<char,ATL::ChTraitsCRT<char> > > >,std::allocator<std::pair<ATL::CStringT<char,StrTraitMFC_DLL<char,ATL::ChTraitsCRT<char> > > const ,CSkinButton *> > >
xdata$x	SEGMENT
$T194647 DD	0ffffffffH
	DD	FLAT:$L194638
	DD	00H
	DD	FLAT:$L194639
	DD	01H
	DD	FLAT:$L194640
	DD	02H
	DD	FLAT:$L194641
	DD	03H
	DD	FLAT:$L194642
$T194645 DD	019930520H
	DD	05H
	DD	FLAT:$T194647
	DD	2 DUP(00H)
	DD	2 DUP(00H)
; Function compile flags: /Odt /RTCsu
; File d:\boxgit\playbox\playbox\dev\prj\playbox\src\layoutmgr\changecolor\subjectchildwnd.cpp
xdata$x	ENDS
_TEXT	SEGMENT
_this$ = -16						; size = 4
__$EHRec$ = -12						; size = 12
??1CSubjectChildWnd@@UAE@XZ PROC NEAR			; CSubjectChildWnd::~CSubjectChildWnd
; _this$ = ecx

; 24   : {

  001f0	55		 push	 ebp
  001f1	8b ec		 mov	 ebp, esp
  001f3	6a ff		 push	 -1
  001f5	68 00 00 00 00	 push	 __ehhandler$??1CSubjectChildWnd@@UAE@XZ
  001fa	64 a1 00 00 00
	00		 mov	 eax, DWORD PTR fs:__except_list
  00200	50		 push	 eax
  00201	64 89 25 00 00
	00 00		 mov	 DWORD PTR fs:__except_list, esp
  00208	51		 push	 ecx
  00209	c7 45 f0 cc cc
	cc cc		 mov	 DWORD PTR [ebp-16], -858993460 ; ccccccccH
  00210	89 4d f0	 mov	 DWORD PTR _this$[ebp], ecx
  00213	8b 45 f0	 mov	 eax, DWORD PTR _this$[ebp]
  00216	c7 00 00 00 00
	00		 mov	 DWORD PTR [eax], OFFSET FLAT:??_7CSubjectChildWnd@@6BCFrameWnd@@@
  0021c	8b 4d f0	 mov	 ecx, DWORD PTR _this$[ebp]
  0021f	c7 81 d4 00 00
	00 00 00 00 00	 mov	 DWORD PTR [ecx+212], OFFSET FLAT:??_7CSubjectChildWnd@@6BIEventListener@@@
  00229	c7 45 fc 04 00
	00 00		 mov	 DWORD PTR __$EHRec$[ebp+8], 4

; 25   : }

  00230	8b 4d f0	 mov	 ecx, DWORD PTR _this$[ebp]
  00233	81 c1 e4 02 00
	00		 add	 ecx, 740		; 000002e4H
  00239	e8 00 00 00 00	 call	 ??1?$map@V?$CStringT@DV?$StrTraitMFC_DLL@DV?$ChTraitsCRT@D@ATL@@@@@ATL@@PAVCSkinButton@@U?$less@V?$CStringT@DV?$StrTraitMFC_DLL@DV?$ChTraitsCRT@D@ATL@@@@@ATL@@@std@@V?$allocator@U?$pair@$$CBV?$CStringT@DV?$StrTraitMFC_DLL@DV?$ChTraitsCRT@D@ATL@@@@@ATL@@PAVCSkinButton@@@std@@@5@@std@@QAE@XZ
  0023e	c6 45 fc 03	 mov	 BYTE PTR __$EHRec$[ebp+8], 3
  00242	8b 4d f0	 mov	 ecx, DWORD PTR _this$[ebp]
  00245	81 c1 d4 02 00
	00		 add	 ecx, 724		; 000002d4H
  0024b	e8 00 00 00 00	 call	 ??1?$list@PAVCSubLabel@@V?$allocator@PAVCSubLabel@@@std@@@std@@QAE@XZ ; std::list<CSubLabel *,std::allocator<CSubLabel *> >::~list<CSubLabel *,std::allocator<CSubLabel *> >
  00250	c6 45 fc 02	 mov	 BYTE PTR __$EHRec$[ebp+8], 2
  00254	8b 4d f0	 mov	 ecx, DWORD PTR _this$[ebp]
  00257	81 c1 c0 02 00
	00		 add	 ecx, 704		; 000002c0H
  0025d	e8 00 00 00 00	 call	 ??1?$list@PAVCSkinButton@@V?$allocator@PAVCSkinButton@@@std@@@std@@QAE@XZ ; std::list<CSkinButton *,std::allocator<CSkinButton *> >::~list<CSkinButton *,std::allocator<CSkinButton *> >
  00262	c6 45 fc 01	 mov	 BYTE PTR __$EHRec$[ebp+8], 1
  00266	8b 4d f0	 mov	 ecx, DWORD PTR _this$[ebp]
  00269	81 c1 c0 01 00
	00		 add	 ecx, 448		; 000001c0H
  0026f	e8 00 00 00 00	 call	 ??1CScrollBarEx@@UAE@XZ	; CScrollBarEx::~CScrollBarEx
  00274	c6 45 fc 00	 mov	 BYTE PTR __$EHRec$[ebp+8], 0
  00278	8b 4d f0	 mov	 ecx, DWORD PTR _this$[ebp]
  0027b	81 c1 dc 00 00
	00		 add	 ecx, 220		; 000000dcH
  00281	e8 00 00 00 00	 call	 ??1CScrollBarEx@@UAE@XZ	; CScrollBarEx::~CScrollBarEx
  00286	c7 45 fc ff ff
	ff ff		 mov	 DWORD PTR __$EHRec$[ebp+8], -1
  0028d	8b 4d f0	 mov	 ecx, DWORD PTR _this$[ebp]
  00290	e8 00 00 00 00	 call	 ??1CFrameWnd@@UAE@XZ	; CFrameWnd::~CFrameWnd
  00295	8b 4d f4	 mov	 ecx, DWORD PTR __$EHRec$[ebp]
  00298	64 89 0d 00 00
	00 00		 mov	 DWORD PTR fs:__except_list, ecx
  0029f	83 c4 10	 add	 esp, 16			; 00000010H
  002a2	3b ec		 cmp	 ebp, esp
  002a4	e8 00 00 00 00	 call	 __RTC_CheckEsp
  002a9	8b e5		 mov	 esp, ebp
  002ab	5d		 pop	 ebp
  002ac	c3		 ret	 0
_TEXT	ENDS
text$x	SEGMENT
$L194638:
  0005e	8b 4d f0	 mov	 ecx, DWORD PTR _this$[ebp]
  00061	e9 00 00 00 00	 jmp	 ??1CFrameWnd@@UAE@XZ	; CFrameWnd::~CFrameWnd
$L194639:
  00066	8b 4d f0	 mov	 ecx, DWORD PTR _this$[ebp]
  00069	81 c1 dc 00 00
	00		 add	 ecx, 220		; 000000dcH
  0006f	e9 00 00 00 00	 jmp	 ??1CScrollBarEx@@UAE@XZ	; CScrollBarEx::~CScrollBarEx
$L194640:
  00074	8b 4d f0	 mov	 ecx, DWORD PTR _this$[ebp]
  00077	81 c1 c0 01 00
	00		 add	 ecx, 448		; 000001c0H
  0007d	e9 00 00 00 00	 jmp	 ??1CScrollBarEx@@UAE@XZ	; CScrollBarEx::~CScrollBarEx
$L194641:
  00082	8b 4d f0	 mov	 ecx, DWORD PTR _this$[ebp]
  00085	81 c1 c0 02 00
	00		 add	 ecx, 704		; 000002c0H
  0008b	e9 00 00 00 00	 jmp	 ??1?$list@PAVCSkinButton@@V?$allocator@PAVCSkinButton@@@std@@@std@@QAE@XZ ; std::list<CSkinButton *,std::allocator<CSkinButton *> >::~list<CSkinButton *,std::allocator<CSkinButton *> >
$L194642:
  00090	8b 4d f0	 mov	 ecx, DWORD PTR _this$[ebp]
  00093	81 c1 d4 02 00
	00		 add	 ecx, 724		; 000002d4H
  00099	e9 00 00 00 00	 jmp	 ??1?$list@PAVCSubLabel@@V?$allocator@PAVCSubLabel@@@std@@@std@@QAE@XZ ; std::list<CSubLabel *,std::allocator<CSubLabel *> >::~list<CSubLabel *,std::allocator<CSubLabel *> >
__ehhandler$??1CSubjectChildWnd@@UAE@XZ:
  0009e	b8 00 00 00 00	 mov	 eax, OFFSET FLAT:$T194645
  000a3	e9 00 00 00 00	 jmp	 ___CxxFrameHandler
text$x	ENDS
??1CSubjectChildWnd@@UAE@XZ ENDP			; CSubjectChildWnd::~CSubjectChildWnd
PUBLIC	??1?$_Tree@V?$_Tmap_traits@V?$CStringT@DV?$StrTraitMFC_DLL@DV?$ChTraitsCRT@D@ATL@@@@@ATL@@PAVCSkinButton@@U?$less@V?$CStringT@DV?$StrTraitMFC_DLL@DV?$ChTraitsCRT@D@ATL@@@@@ATL@@@std@@V?$allocator@U?$pair@$$CBV?$CStringT@DV?$StrTraitMFC_DLL@DV?$ChTraitsCRT@D@ATL@@@@@ATL@@PAVCSkinButton@@@std@@@5@$0A@@std@@@std@@QAE@XZ ; std::_Tree<std::_Tmap_traits<ATL::CStringT<char,StrTraitMFC_DLL<char,ATL::ChTraitsCRT<char> > >,CSkinButton *,std::less<ATL::CStringT<char,StrTraitMFC_DLL<char,ATL::ChTraitsCRT<char> > > >,std::allocator<std::pair<ATL::CStringT<char,StrTraitMFC_DLL<char,ATL::ChTraitsCRT<char> > > const ,CSkinButton *> >,0> >::~_Tree<std::_Tmap_traits<ATL::CStringT<char,StrTraitMFC_DLL<char,ATL::ChTraitsCRT<char> > >,CSkinButton *,std::less<ATL::CStringT<char,StrTraitMFC_DLL<char,ATL::ChTraitsCRT<char> > > >,std::allocator<std::pair<ATL::CStringT<char,StrTraitMFC_DLL<char,ATL::ChTraitsCRT<char> > > const ,CSkinButton *> >,0> >
; Function compile flags: /Odt /RTCsu
;	COMDAT ??1?$map@V?$CStringT@DV?$StrTraitMFC_DLL@DV?$ChTraitsCRT@D@ATL@@@@@ATL@@PAVCSkinButton@@U?$less@V?$CStringT@DV?$StrTraitMFC_DLL@DV?$ChTraitsCRT@D@ATL@@@@@ATL@@@std@@V?$allocator@U?$pair@$$CBV?$CStringT@DV?$StrTraitMFC_DLL@DV?$ChTraitsCRT@D@ATL@@@@@ATL@@PAVCSkinButton@@@std@@@5@@std@@QAE@XZ
_TEXT	SEGMENT
_this$ = -4						; size = 4
??1?$map@V?$CStringT@DV?$StrTraitMFC_DLL@DV?$ChTraitsCRT@D@ATL@@@@@ATL@@PAVCSkinButton@@U?$less@V?$CStringT@DV?$StrTraitMFC_DLL@DV?$ChTraitsCRT@D@ATL@@@@@ATL@@@std@@V?$allocator@U?$pair@$$CBV?$CStringT@DV?$StrTraitMFC_DLL@DV?$ChTraitsCRT@D@ATL@@@@@ATL@@PAVCSkinButton@@@std@@@5@@std@@QAE@XZ PROC NEAR ; std::map<ATL::CStringT<char,StrTraitMFC_DLL<char,ATL::ChTraitsCRT<char> > >,CSkinButton *,std::less<ATL::CStringT<char,StrTraitMFC_DLL<char,ATL::ChTraitsCRT<char> > > >,std::allocator<std::pair<ATL::CStringT<char,StrTraitMFC_DLL<char,ATL::ChTraitsCRT<char> > > const ,CSkinButton *> > >::~map<ATL::CStringT<char,StrTraitMFC_DLL<char,ATL::ChTraitsCRT<char> > >,CSkinButton *,std::less<ATL::CStringT<char,StrTraitMFC_DLL<char,ATL::ChTraitsCRT<char> > > >,std::allocator<std::pair<ATL::CStringT<char,StrTraitMFC_DLL<char,ATL::ChTraitsCRT<char> > > const ,CSkinButton *> > >, COMDAT
; _this$ = ecx
  00000	55		 push	 ebp
  00001	8b ec		 mov	 ebp, esp
  00003	51		 push	 ecx
  00004	c7 45 fc cc cc
	cc cc		 mov	 DWORD PTR [ebp-4], -858993460 ; ccccccccH
  0000b	89 4d fc	 mov	 DWORD PTR _this$[ebp], ecx
  0000e	8b 4d fc	 mov	 ecx, DWORD PTR _this$[ebp]
  00011	e8 00 00 00 00	 call	 ??1?$_Tree@V?$_Tmap_traits@V?$CStringT@DV?$StrTraitMFC_DLL@DV?$ChTraitsCRT@D@ATL@@@@@ATL@@PAVCSkinButton@@U?$less@V?$CStringT@DV?$StrTraitMFC_DLL@DV?$ChTraitsCRT@D@ATL@@@@@ATL@@@std@@V?$allocator@U?$pair@$$CBV?$CStringT@DV?$StrTraitMFC_DLL@DV?$ChTraitsCRT@D@ATL@@@@@ATL@@PAVCSkinButton@@@std@@@5@$0A@@std@@@std@@QAE@XZ ; std::_Tree<std::_Tmap_traits<ATL::CStringT<char,StrTraitMFC_DLL<char,ATL::ChTraitsCRT<char> > >,CSkinButton *,std::less<ATL::CStringT<char,StrTraitMFC_DLL<char,ATL::ChTraitsCRT<char> > > >,std::allocator<std::pair<ATL::CStringT<char,StrTraitMFC_DLL<char,ATL::ChTraitsCRT<char> > > const ,CSkinButton *> >,0> >::~_Tree<std::_Tmap_traits<ATL::CStringT<char,StrTraitMFC_DLL<char,ATL::ChTraitsCRT<char> > >,CSkinButton *,std::less<ATL::CStringT<char,StrTraitMFC_DLL<char,ATL::ChTraitsCRT<char> > > >,std::allocator<std::pair<ATL::CStringT<char,StrTraitMFC_DLL<char,ATL::ChTraitsCRT<char> > > const ,CSkinButton *> >,0> >
  00016	83 c4 04	 add	 esp, 4
  00019	3b ec		 cmp	 ebp, esp
  0001b	e8 00 00 00 00	 call	 __RTC_CheckEsp
  00020	8b e5		 mov	 esp, ebp
  00022	5d		 pop	 ebp
  00023	c3		 ret	 0
??1?$map@V?$CStringT@DV?$StrTraitMFC_DLL@DV?$ChTraitsCRT@D@ATL@@@@@ATL@@PAVCSkinButton@@U?$less@V?$CStringT@DV?$StrTraitMFC_DLL@DV?$ChTraitsCRT@D@ATL@@@@@ATL@@@std@@V?$allocator@U?$pair@$$CBV?$CStringT@DV?$StrTraitMFC_DLL@DV?$ChTraitsCRT@D@ATL@@@@@ATL@@PAVCSkinButton@@@std@@@5@@std@@QAE@XZ ENDP ; std::map<ATL::CStringT<char,StrTraitMFC_DLL<char,ATL::ChTraitsCRT<char> > >,CSkinButton *,std::less<ATL::CStringT<char,StrTraitMFC_DLL<char,ATL::ChTraitsCRT<char> > > >,std::allocator<std::pair<ATL::CStringT<char,StrTraitMFC_DLL<char,ATL::ChTraitsCRT<char> > > const ,CSkinButton *> > >::~map<ATL::CStringT<char,StrTraitMFC_DLL<char,ATL::ChTraitsCRT<char> > >,CSkinButton *,std::less<ATL::CStringT<char,StrTraitMFC_DLL<char,ATL::ChTraitsCRT<char> > > >,std::allocator<std::pair<ATL::CStringT<char,StrTraitMFC_DLL<char,ATL::ChTraitsCRT<char> > > const ,CSkinButton *> > >
_TEXT	ENDS
PUBLIC	?GetThisMessageMap@CSubjectChildWnd@@KGPBUAFX_MSGMAP@@XZ ; CSubjectChildWnd::GetThisMessageMap
; Function compile flags: /Odt /RTCsu
_TEXT	SEGMENT
?GetThisMessageMap@CSubjectChildWnd@@KGPBUAFX_MSGMAP@@XZ PROC NEAR ; CSubjectChildWnd::GetThisMessageMap

; 27   : BEGIN_MESSAGE_MAP(CSubjectChildWnd, CFrameWnd)

  002b0	55		 push	 ebp
  002b1	8b ec		 mov	 ebp, esp
  002b3	b8 00 00 00 00	 mov	 eax, OFFSET FLAT:?messageMap@CSubjectChildWnd@@1UAFX_MSGMAP@@B ; CSubjectChildWnd::messageMap
  002b8	5d		 pop	 ebp
  002b9	c3		 ret	 0
?GetThisMessageMap@CSubjectChildWnd@@KGPBUAFX_MSGMAP@@XZ ENDP ; CSubjectChildWnd::GetThisMessageMap
; Function compile flags: /Odt /RTCsu
_this$ = -4						; size = 4
?GetMessageMap@CSubjectChildWnd@@MBEPBUAFX_MSGMAP@@XZ PROC NEAR ; CSubjectChildWnd::GetMessageMap
; _this$ = ecx

; 27   : BEGIN_MESSAGE_MAP(CSubjectChildWnd, CFrameWnd)

  002c0	55		 push	 ebp
  002c1	8b ec		 mov	 ebp, esp
  002c3	51		 push	 ecx
  002c4	c7 45 fc cc cc
	cc cc		 mov	 DWORD PTR [ebp-4], -858993460 ; ccccccccH
  002cb	89 4d fc	 mov	 DWORD PTR _this$[ebp], ecx
  002ce	b8 00 00 00 00	 mov	 eax, OFFSET FLAT:?messageMap@CSubjectChildWnd@@1UAFX_MSGMAP@@B ; CSubjectChildWnd::messageMap
  002d3	8b e5		 mov	 esp, ebp
  002d5	5d		 pop	 ebp
  002d6	c3		 ret	 0
?GetMessageMap@CSubjectChildWnd@@MBEPBUAFX_MSGMAP@@XZ ENDP ; CSubjectChildWnd::GetMessageMap
_TEXT	ENDS
PUBLIC	?CreateSubBtn@CSubjectChildWnd@@AAEXXZ		; CSubjectChildWnd::CreateSubBtn
EXTRN	?OnCreate@CFrameWnd@@IAEHPAUtagCREATESTRUCTA@@@Z:NEAR ; CFrameWnd::OnCreate
; Function compile flags: /Odt /RTCsu
_TEXT	SEGMENT
_this$ = -4						; size = 4
_lpCreateStruct$ = 8					; size = 4
?OnCreate@CSubjectChildWnd@@QAEHPAUtagCREATESTRUCTA@@@Z PROC NEAR ; CSubjectChildWnd::OnCreate
; _this$ = ecx

; 39   : {

  002e0	55		 push	 ebp
  002e1	8b ec		 mov	 ebp, esp
  002e3	51		 push	 ecx
  002e4	c7 45 fc cc cc
	cc cc		 mov	 DWORD PTR [ebp-4], -858993460 ; ccccccccH
  002eb	89 4d fc	 mov	 DWORD PTR _this$[ebp], ecx

; 40   : 	if (CFrameWnd::OnCreate(lpCreateStruct) == -1)

  002ee	8b 45 08	 mov	 eax, DWORD PTR _lpCreateStruct$[ebp]
  002f1	50		 push	 eax
  002f2	8b 4d fc	 mov	 ecx, DWORD PTR _this$[ebp]
  002f5	e8 00 00 00 00	 call	 ?OnCreate@CFrameWnd@@IAEHPAUtagCREATESTRUCTA@@@Z ; CFrameWnd::OnCreate
  002fa	83 f8 ff	 cmp	 eax, -1
  002fd	75 05		 jne	 SHORT $L191972

; 41   : 		return -1;

  002ff	83 c8 ff	 or	 eax, -1
  00302	eb 17		 jmp	 SHORT $L191971
$L191972:

; 42   : 	//ModifyStyleEx(WS_EX_CLIENTEDGE, 0, SWP_FRAMECHANGED);
; 43   : 	CreateSubBtn();

  00304	8b 4d fc	 mov	 ecx, DWORD PTR _this$[ebp]
  00307	e8 00 00 00 00	 call	 ?CreateSubBtn@CSubjectChildWnd@@AAEXXZ ; CSubjectChildWnd::CreateSubBtn

; 44   : 	miScrollPos = 0;

  0030c	8b 4d fc	 mov	 ecx, DWORD PTR _this$[ebp]
  0030f	c7 81 d8 00 00
	00 00 00 00 00	 mov	 DWORD PTR [ecx+216], 0

; 45   : 	return 0;

  00319	33 c0		 xor	 eax, eax
$L191971:

; 46   : }

  0031b	83 c4 04	 add	 esp, 4
  0031e	3b ec		 cmp	 ebp, esp
  00320	e8 00 00 00 00	 call	 __RTC_CheckEsp
  00325	8b e5		 mov	 esp, ebp
  00327	5d		 pop	 ebp
  00328	c2 04 00	 ret	 4
?OnCreate@CSubjectChildWnd@@QAEHPAUtagCREATESTRUCTA@@@Z ENDP ; CSubjectChildWnd::OnCreate
_TEXT	ENDS
PUBLIC	??$?HDU?$char_traits@D@std@@V?$allocator@D@1@@std@@YA?AV?$basic_string@DU?$char_traits@D@std@@V?$allocator@D@2@@0@ABV10@PBD@Z ; std::operator+<char,std::char_traits<char>,std::allocator<char> >
PUBLIC	??HATL@@YA?AV?$CStringT@DV?$StrTraitMFC_DLL@DV?$ChTraitsCRT@D@ATL@@@@@0@ABV10@0@Z ; ATL::operator+
PUBLIC	??HATL@@YA?AV?$CStringT@DV?$StrTraitMFC_DLL@DV?$ChTraitsCRT@D@ATL@@@@@0@ABV10@PBD@Z ; ATL::operator+
PUBLIC	??8ATL@@YA_NABV?$CStringT@DV?$StrTraitMFC_DLL@DV?$ChTraitsCRT@D@ATL@@@@@0@PBD@Z ; ATL::operator==
PUBLIC	?begin@?$list@PAVCSkinButton@@V?$allocator@PAVCSkinButton@@@std@@@std@@QAE?AViterator@12@XZ ; std::list<CSkinButton *,std::allocator<CSkinButton *> >::begin
PUBLIC	?end@?$list@PAVCSkinButton@@V?$allocator@PAVCSkinButton@@@std@@@std@@QAE?AViterator@12@XZ ; std::list<CSkinButton *,std::allocator<CSkinButton *> >::end
PUBLIC	?size@?$list@PAVCSkinButton@@V?$allocator@PAVCSkinButton@@@std@@@std@@QBEIXZ ; std::list<CSkinButton *,std::allocator<CSkinButton *> >::size
PUBLIC	??Diterator@?$list@PAVCSubLabel@@V?$allocator@PAVCSubLabel@@@std@@@std@@QBEAAPAVCSubLabel@@XZ ; std::list<CSubLabel *,std::allocator<CSubLabel *> >::iterator::operator*
PUBLIC	??Eiterator@?$list@PAVCSubLabel@@V?$allocator@PAVCSubLabel@@@std@@@std@@QAE?AV012@H@Z ; std::list<CSubLabel *,std::allocator<CSubLabel *> >::iterator::operator++
PUBLIC	??9const_iterator@?$list@PAVCSkinButton@@V?$allocator@PAVCSkinButton@@@std@@@std@@QBE_NABV012@@Z ; std::list<CSkinButton *,std::allocator<CSkinButton *> >::const_iterator::operator!=
PUBLIC	??Diterator@?$list@PAVCSkinButton@@V?$allocator@PAVCSkinButton@@@std@@@std@@QBEAAPAVCSkinButton@@XZ ; std::list<CSkinButton *,std::allocator<CSkinButton *> >::iterator::operator*
PUBLIC	??Eiterator@?$list@PAVCSkinButton@@V?$allocator@PAVCSkinButton@@@std@@@std@@QAE?AV012@H@Z ; std::list<CSkinButton *,std::allocator<CSkinButton *> >::iterator::operator++
PUBLIC	?MoveSubjectBtn@CSubjectChildWnd@@IAEXXZ	; CSubjectChildWnd::MoveSubjectBtn
PUBLIC	?SetErase@CSkinButton@@QAEX_N@Z			; CSkinButton::SetErase
PUBLIC	?GetText@CSkinButton@@QBE?AV?$CStringT@DV?$StrTraitMFC_DLL@DV?$ChTraitsCRT@D@ATL@@@@@ATL@@XZ ; CSkinButton::GetText
PUBLIC	?GetBitmapEx@CSkinButton@@QBEPAVCBitmap@@XZ	; CSkinButton::GetBitmapEx
PUBLIC	?SetListener@CSkinButton@@QAEXPAVIEventListener@@@Z ; CSkinButton::SetListener
PUBLIC	?SetSelected@CSkinButton@@QAEX_N@Z		; CSkinButton::SetSelected
PUBLIC	?begin@?$list@PAVCSubLabel@@V?$allocator@PAVCSubLabel@@@std@@@std@@QAE?AViterator@12@XZ ; std::list<CSubLabel *,std::allocator<CSubLabel *> >::begin
EXTRN	?SetSelect@CSubLabel@@QAEXH@Z:NEAR		; CSubLabel::SetSelect
EXTRN	?AfxGetUIManager@@YAPAVIUIManager@@XZ:NEAR	; AfxGetUIManager
EXTRN	??0CRect@@QAE@HHHH@Z:NEAR			; CRect::CRect
EXTRN	??BCRect@@QAEPAUtagRECT@@XZ:NEAR		; CRect::operator tagRECT *
EXTRN	?GetBitmap@CBitmap@@QAEHPAUtagBITMAP@@@Z:NEAR	; CBitmap::GetBitmap
EXTRN	?SetBitmapDimension@CBitmap@@QAE?AVCSize@@HH@Z:NEAR ; CBitmap::SetBitmapDimension
EXTRN	__imp_??0?$basic_string@DU?$char_traits@D@std@@V?$allocator@D@2@@std@@QAE@PBD@Z:NEAR
EXTRN	__imp_??1?$basic_string@DU?$char_traits@D@std@@V?$allocator@D@2@@std@@QAE@XZ:NEAR
EXTRN	__imp_?npos@?$basic_string@DU?$char_traits@D@std@@V?$allocator@D@2@@std@@2IB:DWORD
EXTRN	__imp_??4?$basic_string@DU?$char_traits@D@std@@V?$allocator@D@2@@std@@QAEAAV01@ABV01@@Z:NEAR
EXTRN	__imp_??B?$CSimpleStringT@D$00@ATL@@QBEPBDXZ:NEAR
EXTRN	?GetWindowRect@CWnd@@QBEXPAUtagRECT@@@Z:NEAR	; CWnd::GetWindowRect
EXTRN	?GetClientRect@CWnd@@QBEXPAUtagRECT@@@Z:NEAR	; CWnd::GetClientRect
EXTRN	?ShowWindow@CWnd@@QAEHH@Z:NEAR			; CWnd::ShowWindow
EXTRN	__imp_?c_str@?$basic_string@DU?$char_traits@D@std@@V?$allocator@D@2@@std@@QBEPBDXZ:NEAR
EXTRN	__imp_??0?$CStringT@DV?$StrTraitMFC_DLL@DV?$ChTraitsCRT@D@ATL@@@@@ATL@@QAE@PBD@Z:NEAR
EXTRN	?SetPngSkin@CSkinButton@@QAEHV?$CStringT@DV?$StrTraitMFC_DLL@DV?$ChTraitsCRT@D@ATL@@@@@ATL@@@Z:NEAR ; CSkinButton::SetPngSkin
EXTRN	__imp_?find_last_of@?$basic_string@DU?$char_traits@D@std@@V?$allocator@D@2@@std@@QBEIDI@Z:NEAR
EXTRN	__imp_?substr@?$basic_string@DU?$char_traits@D@std@@V?$allocator@D@2@@std@@QBE?AV12@II@Z:NEAR
xdata$x	SEGMENT
$T194711 DD	0ffffffffH
	DD	FLAT:$L194683
	DD	00H
	DD	FLAT:$L194684
	DD	0ffffffffH
	DD	FLAT:$L194684
	DD	02H
	DD	FLAT:$L194685
	DD	02H
	DD	FLAT:$L194686
	DD	04H
	DD	FLAT:$L194687
	DD	02H
	DD	FLAT:$L194688
	DD	06H
	DD	FLAT:$L194689
	DD	07H
	DD	FLAT:$L194690
	DD	08H
	DD	FLAT:$L194691
	DD	02H
	DD	FLAT:$L194692
	DD	0aH
	DD	FLAT:$L194693
	DD	0bH
	DD	FLAT:$L194694
	DD	0cH
	DD	FLAT:$L194695
	DD	02H
	DD	FLAT:$L194696
	DD	0eH
	DD	FLAT:$L194697
	DD	0fH
	DD	FLAT:$L194698
	DD	010H
	DD	FLAT:$L194699
	DD	02H
	DD	FLAT:$L194700
$T194702 DD	019930520H
	DD	013H
	DD	FLAT:$T194711
	DD	2 DUP(00H)
	DD	2 DUP(00H)
; Function compile flags: /Odt /RTCsu
xdata$x	ENDS
_TEXT	SEGMENT
tv509 = -516						; size = 4
tv559 = -512						; size = 4
tv416 = -508						; size = 4
tv411 = -504						; size = 4
tv393 = -500						; size = 4
tv353 = -496						; size = 4
tv507 = -492						; size = 4
tv556 = -488						; size = 4
tv505 = -484						; size = 4
tv553 = -480						; size = 4
tv503 = -476						; size = 4
tv550 = -472						; size = 4
tv501 = -468						; size = 4
tv547 = -464						; size = 4
tv280 = -460						; size = 4
tv499 = -456						; size = 4
tv544 = -452						; size = 4
tv497 = -448						; size = 4
tv541 = -444						; size = 4
tv495 = -440						; size = 4
tv538 = -436						; size = 4
tv493 = -432						; size = 4
tv535 = -428						; size = 4
tv491 = -424						; size = 4
tv532 = -420						; size = 4
tv489 = -416						; size = 4
tv529 = -412						; size = 4
tv487 = -408						; size = 4
tv526 = -404						; size = 4
tv485 = -400						; size = 4
tv523 = -396						; size = 4
tv225 = -392						; size = 4
tv203 = -388						; size = 4
tv483 = -384						; size = 4
tv520 = -380						; size = 4
tv481 = -376						; size = 4
tv517 = -372						; size = 4
tv479 = -368						; size = 4
tv514 = -364						; size = 4
tv476 = -360						; size = 4
tv510 = -356						; size = 4
tv145 = -352						; size = 4
tv140 = -348						; size = 4
$T194682 = -344						; size = 4
$T194681 = -340						; size = 4
$T194680 = -336						; size = 4
$T194679 = -332						; size = 4
$T194678 = -325						; size = 1
$T194677 = -324						; size = 16
$T194676 = -308						; size = 4
$T194675 = -304						; size = 4
$T194674 = -300						; size = 4
$T194673 = -296						; size = 4
$T194672 = -292						; size = 4
$T194671 = -288						; size = 4
$T194670 = -284						; size = 4
$T194669 = -280						; size = 4
$T194668 = -276						; size = 4
$T194667 = -272						; size = 4
$T194666 = -268						; size = 4
$T194665 = -264						; size = 4
$T194664 = -260						; size = 8
$T194661 = -252						; size = 16
$T194660 = -236						; size = 4
$T194659 = -232						; size = 28
$T194658 = -204						; size = 28
$T194657 = -176						; size = 28
$T194656 = -148						; size = 4
$T194655 = -144						; size = 4
_lnIndex$192072 = -140					; size = 4
_subiter$192070 = -132					; size = 4
_idx$191985 = -124					; size = 4
_skinPath$191983 = -116					; size = 28
_lBitMap$191982 = -80					; size = 24
_lnBmpHight$ = -52					; size = 4
_lnBmpWidth$ = -48					; size = 4
_lrectClient$ = -40					; size = 16
_this$ = -20						; size = 4
__$ArrayPad$ = -16					; size = 4
__$EHRec$ = -12						; size = 12
__$ReturnAddr$ = 4					; size = 4
?CreateSubBtn@CSubjectChildWnd@@AAEXXZ PROC NEAR	; CSubjectChildWnd::CreateSubBtn
; _this$ = ecx

; 49   : {

  00330	55		 push	 ebp
  00331	8b ec		 mov	 ebp, esp
  00333	6a ff		 push	 -1
  00335	68 00 00 00 00	 push	 __ehhandler$?CreateSubBtn@CSubjectChildWnd@@AAEXXZ
  0033a	64 a1 00 00 00
	00		 mov	 eax, DWORD PTR fs:__except_list
  00340	50		 push	 eax
  00341	64 89 25 00 00
	00 00		 mov	 DWORD PTR fs:__except_list, esp
  00348	81 ec f8 01 00
	00		 sub	 esp, 504		; 000001f8H
  0034e	56		 push	 esi
  0034f	57		 push	 edi
  00350	51		 push	 ecx
  00351	8d bd fc fd ff
	ff		 lea	 edi, DWORD PTR [ebp-516]
  00357	b9 7e 00 00 00	 mov	 ecx, 126		; 0000007eH
  0035c	b8 cc cc cc cc	 mov	 eax, -858993460		; ccccccccH
  00361	f3 ab		 rep stosd
  00363	59		 pop	 ecx
  00364	a1 00 00 00 00	 mov	 eax, DWORD PTR ___security_cookie
  00369	89 45 f0	 mov	 DWORD PTR __$ArrayPad$[ebp], eax
  0036c	89 4d ec	 mov	 DWORD PTR _this$[ebp], ecx

; 50   : 	GetWindowRect(mrcOriginalRect);

  0036f	8b 4d ec	 mov	 ecx, DWORD PTR _this$[ebp]
  00372	81 c1 a4 02 00
	00		 add	 ecx, 676		; 000002a4H
  00378	e8 00 00 00 00	 call	 ??BCRect@@QAEPAUtagRECT@@XZ ; CRect::operator tagRECT *
  0037d	50		 push	 eax
  0037e	8b 4d ec	 mov	 ecx, DWORD PTR _this$[ebp]
  00381	e8 00 00 00 00	 call	 ?GetWindowRect@CWnd@@QBEXPAUtagRECT@@@Z ; CWnd::GetWindowRect

; 51   : 	mrcOriginalRect.bottom = mrcOriginalRect.top + m_nMaxViewPos;

  00386	8b 45 ec	 mov	 eax, DWORD PTR _this$[ebp]
  00389	8b 88 a8 02 00
	00		 mov	 ecx, DWORD PTR [eax+680]
  0038f	8b 55 ec	 mov	 edx, DWORD PTR _this$[ebp]
  00392	03 8a bc 02 00
	00		 add	 ecx, DWORD PTR [edx+700]
  00398	8b 45 ec	 mov	 eax, DWORD PTR _this$[ebp]
  0039b	89 88 b0 02 00
	00		 mov	 DWORD PTR [eax+688], ecx

; 52   : 
; 53   : 	CRect lrectClient;

  003a1	8d 4d d8	 lea	 ecx, DWORD PTR _lrectClient$[ebp]
  003a4	e8 00 00 00 00	 call	 ??0CRect@@QAE@XZ	; CRect::CRect

; 54   : 	GetClientRect(&lrectClient);

  003a9	8d 4d d8	 lea	 ecx, DWORD PTR _lrectClient$[ebp]
  003ac	51		 push	 ecx
  003ad	8b 4d ec	 mov	 ecx, DWORD PTR _this$[ebp]
  003b0	e8 00 00 00 00	 call	 ?GetClientRect@CWnd@@QBEXPAUtagRECT@@@Z ; CWnd::GetClientRect

; 55   : 
; 56   : 	UINT lnBmpWidth = 0;

  003b5	c7 45 d0 00 00
	00 00		 mov	 DWORD PTR _lnBmpWidth$[ebp], 0

; 57   : 	UINT lnBmpHight = 0;

  003bc	c7 45 cc 00 00
	00 00		 mov	 DWORD PTR _lnBmpHight$[ebp], 0

; 58   : 	m_colBtnList_itor = m_colBtnList.begin() ;

  003c3	8d 95 70 ff ff
	ff		 lea	 edx, DWORD PTR $T194655[ebp]
  003c9	52		 push	 edx
  003ca	8b 4d ec	 mov	 ecx, DWORD PTR _this$[ebp]
  003cd	81 c1 c0 02 00
	00		 add	 ecx, 704		; 000002c0H
  003d3	e8 00 00 00 00	 call	 ?begin@?$list@PAVCSkinButton@@V?$allocator@PAVCSkinButton@@@std@@@std@@QAE?AViterator@12@XZ ; std::list<CSkinButton *,std::allocator<CSkinButton *> >::begin
  003d8	8b 00		 mov	 eax, DWORD PTR [eax]
  003da	8b 4d ec	 mov	 ecx, DWORD PTR _this$[ebp]
  003dd	89 81 cc 02 00
	00		 mov	 DWORD PTR [ecx+716], eax

; 59   : 	if( (0 != (int)( m_colBtnList.size())  ) && (NULL != (*m_colBtnList_itor)->GetBitmapEx()) ) 

  003e3	8b 4d ec	 mov	 ecx, DWORD PTR _this$[ebp]
  003e6	81 c1 c0 02 00
	00		 add	 ecx, 704		; 000002c0H
  003ec	e8 00 00 00 00	 call	 ?size@?$list@PAVCSkinButton@@V?$allocator@PAVCSkinButton@@@std@@@std@@QBEIXZ ; std::list<CSkinButton *,std::allocator<CSkinButton *> >::size
  003f1	85 c0		 test	 eax, eax
  003f3	0f 84 fe 08 00
	00		 je	 $L191981
  003f9	8b 4d ec	 mov	 ecx, DWORD PTR _this$[ebp]
  003fc	81 c1 cc 02 00
	00		 add	 ecx, 716		; 000002ccH
  00402	e8 00 00 00 00	 call	 ??Diterator@?$list@PAVCSkinButton@@V?$allocator@PAVCSkinButton@@@std@@@std@@QBEAAPAVCSkinButton@@XZ ; std::list<CSkinButton *,std::allocator<CSkinButton *> >::iterator::operator*
  00407	8b 08		 mov	 ecx, DWORD PTR [eax]
  00409	e8 00 00 00 00	 call	 ?GetBitmapEx@CSkinButton@@QBEPAVCBitmap@@XZ ; CSkinButton::GetBitmapEx
  0040e	85 c0		 test	 eax, eax
  00410	0f 84 e1 08 00
	00		 je	 $L191981

; 60   : 	{
; 61   : 		BITMAP   lBitMap;
; 62   : 		(*m_colBtnList_itor)->GetBitmapEx()->GetBitmap( &lBitMap );

  00416	8d 55 b0	 lea	 edx, DWORD PTR _lBitMap$191982[ebp]
  00419	52		 push	 edx
  0041a	8b 4d ec	 mov	 ecx, DWORD PTR _this$[ebp]
  0041d	81 c1 cc 02 00
	00		 add	 ecx, 716		; 000002ccH
  00423	e8 00 00 00 00	 call	 ??Diterator@?$list@PAVCSkinButton@@V?$allocator@PAVCSkinButton@@@std@@@std@@QBEAAPAVCSkinButton@@XZ ; std::list<CSkinButton *,std::allocator<CSkinButton *> >::iterator::operator*
  00428	8b 08		 mov	 ecx, DWORD PTR [eax]
  0042a	e8 00 00 00 00	 call	 ?GetBitmapEx@CSkinButton@@QBEPAVCBitmap@@XZ ; CSkinButton::GetBitmapEx
  0042f	8b c8		 mov	 ecx, eax
  00431	e8 00 00 00 00	 call	 ?GetBitmap@CBitmap@@QAEHPAUtagBITMAP@@@Z ; CBitmap::GetBitmap

; 63   : 		lnBmpWidth = lBitMap.bmWidth+8;

  00436	8b 45 b4	 mov	 eax, DWORD PTR _lBitMap$191982[ebp+4]
  00439	83 c0 08	 add	 eax, 8
  0043c	89 45 d0	 mov	 DWORD PTR _lnBmpWidth$[ebp], eax

; 64   : 		lnBmpHight = lBitMap.bmHeight;

  0043f	8b 4d b8	 mov	 ecx, DWORD PTR _lBitMap$191982[ebp+8]
  00442	89 4d cc	 mov	 DWORD PTR _lnBmpHight$[ebp], ecx

; 65   : 
; 66   : 		string  skinPath =AfxGetUIManager()->UIGetSkinMgr()->GetSkinPath();

  00445	e8 00 00 00 00	 call	 ?AfxGetUIManager@@YAPAVIUIManager@@XZ ; AfxGetUIManager
  0044a	89 85 a4 fe ff
	ff		 mov	 DWORD PTR tv140[ebp], eax
  00450	8b f4		 mov	 esi, esp
  00452	8b 95 a4 fe ff
	ff		 mov	 edx, DWORD PTR tv140[ebp]
  00458	8b 02		 mov	 eax, DWORD PTR [edx]
  0045a	8b 8d a4 fe ff
	ff		 mov	 ecx, DWORD PTR tv140[ebp]
  00460	ff 50 28	 call	 DWORD PTR [eax+40]
  00463	3b f4		 cmp	 esi, esp
  00465	e8 00 00 00 00	 call	 __RTC_CheckEsp
  0046a	89 85 a0 fe ff
	ff		 mov	 DWORD PTR tv145[ebp], eax
  00470	8b f4		 mov	 esi, esp
  00472	8d 8d 6c ff ff
	ff		 lea	 ecx, DWORD PTR $T194656[ebp]
  00478	51		 push	 ecx
  00479	8b 95 a0 fe ff
	ff		 mov	 edx, DWORD PTR tv145[ebp]
  0047f	8b 02		 mov	 eax, DWORD PTR [edx]
  00481	8b 8d a0 fe ff
	ff		 mov	 ecx, DWORD PTR tv145[ebp]
  00487	ff 50 40	 call	 DWORD PTR [eax+64]
  0048a	3b f4		 cmp	 esi, esp
  0048c	e8 00 00 00 00	 call	 __RTC_CheckEsp
  00491	89 85 9c fe ff
	ff		 mov	 DWORD PTR tv510[ebp], eax
  00497	8b 8d 9c fe ff
	ff		 mov	 ecx, DWORD PTR tv510[ebp]
  0049d	89 8d 98 fe ff
	ff		 mov	 DWORD PTR tv476[ebp], ecx
  004a3	c7 45 fc 00 00
	00 00		 mov	 DWORD PTR __$EHRec$[ebp+8], 0
  004aa	8b f4		 mov	 esi, esp
  004ac	8b 8d 98 fe ff
	ff		 mov	 ecx, DWORD PTR tv476[ebp]
  004b2	ff 15 00 00 00
	00		 call	 DWORD PTR __imp_??B?$CSimpleStringT@D$00@ATL@@QBEPBDXZ
  004b8	3b f4		 cmp	 esi, esp
  004ba	e8 00 00 00 00	 call	 __RTC_CheckEsp
  004bf	8b f4		 mov	 esi, esp
  004c1	50		 push	 eax
  004c2	8d 4d 8c	 lea	 ecx, DWORD PTR _skinPath$191983[ebp]
  004c5	ff 15 00 00 00
	00		 call	 DWORD PTR __imp_??0?$basic_string@DU?$char_traits@D@std@@V?$allocator@D@2@@std@@QAE@PBD@Z
  004cb	3b f4		 cmp	 esi, esp
  004cd	e8 00 00 00 00	 call	 __RTC_CheckEsp
  004d2	c6 45 fc 02	 mov	 BYTE PTR __$EHRec$[ebp+8], 2
  004d6	8b f4		 mov	 esi, esp
  004d8	8d 8d 6c ff ff
	ff		 lea	 ecx, DWORD PTR $T194656[ebp]
  004de	ff 15 00 00 00
	00		 call	 DWORD PTR __imp_??1?$CStringT@DV?$StrTraitMFC_DLL@DV?$ChTraitsCRT@D@ATL@@@@@ATL@@QAE@XZ
  004e4	3b f4		 cmp	 esi, esp
  004e6	e8 00 00 00 00	 call	 __RTC_CheckEsp

; 67   : 		size_t idx = skinPath.find_last_of('\\');

  004eb	8b f4		 mov	 esi, esp
  004ed	8b 15 00 00 00
	00		 mov	 edx, DWORD PTR __imp_?npos@?$basic_string@DU?$char_traits@D@std@@V?$allocator@D@2@@std@@2IB
  004f3	8b 02		 mov	 eax, DWORD PTR [edx]
  004f5	50		 push	 eax
  004f6	6a 5c		 push	 92			; 0000005cH
  004f8	8d 4d 8c	 lea	 ecx, DWORD PTR _skinPath$191983[ebp]
  004fb	ff 15 00 00 00
	00		 call	 DWORD PTR __imp_?find_last_of@?$basic_string@DU?$char_traits@D@std@@V?$allocator@D@2@@std@@QBEIDI@Z
  00501	3b f4		 cmp	 esi, esp
  00503	e8 00 00 00 00	 call	 __RTC_CheckEsp
  00508	89 45 84	 mov	 DWORD PTR _idx$191985[ebp], eax

; 68   : 		if( idx != string::npos )

  0050b	8b 0d 00 00 00
	00		 mov	 ecx, DWORD PTR __imp_?npos@?$basic_string@DU?$char_traits@D@std@@V?$allocator@D@2@@std@@2IB
  00511	8b 55 84	 mov	 edx, DWORD PTR _idx$191985[ebp]
  00514	3b 11		 cmp	 edx, DWORD PTR [ecx]
  00516	0f 84 11 01 00
	00		 je	 $L191986

; 69   : 		{
; 70   : 			skinPath = skinPath.substr(0,idx);

  0051c	8b f4		 mov	 esi, esp
  0051e	8b 45 84	 mov	 eax, DWORD PTR _idx$191985[ebp]
  00521	50		 push	 eax
  00522	6a 00		 push	 0
  00524	8d 8d 50 ff ff
	ff		 lea	 ecx, DWORD PTR $T194657[ebp]
  0052a	51		 push	 ecx
  0052b	8d 4d 8c	 lea	 ecx, DWORD PTR _skinPath$191983[ebp]
  0052e	ff 15 00 00 00
	00		 call	 DWORD PTR __imp_?substr@?$basic_string@DU?$char_traits@D@std@@V?$allocator@D@2@@std@@QBE?AV12@II@Z
  00534	3b f4		 cmp	 esi, esp
  00536	e8 00 00 00 00	 call	 __RTC_CheckEsp
  0053b	89 85 94 fe ff
	ff		 mov	 DWORD PTR tv514[ebp], eax
  00541	8b 95 94 fe ff
	ff		 mov	 edx, DWORD PTR tv514[ebp]
  00547	89 95 90 fe ff
	ff		 mov	 DWORD PTR tv479[ebp], edx
  0054d	c6 45 fc 03	 mov	 BYTE PTR __$EHRec$[ebp+8], 3
  00551	8b f4		 mov	 esi, esp
  00553	8b 85 90 fe ff
	ff		 mov	 eax, DWORD PTR tv479[ebp]
  00559	50		 push	 eax
  0055a	8d 4d 8c	 lea	 ecx, DWORD PTR _skinPath$191983[ebp]
  0055d	ff 15 00 00 00
	00		 call	 DWORD PTR __imp_??4?$basic_string@DU?$char_traits@D@std@@V?$allocator@D@2@@std@@QAEAAV01@ABV01@@Z
  00563	3b f4		 cmp	 esi, esp
  00565	e8 00 00 00 00	 call	 __RTC_CheckEsp
  0056a	c6 45 fc 02	 mov	 BYTE PTR __$EHRec$[ebp+8], 2
  0056e	8b f4		 mov	 esi, esp
  00570	8d 8d 50 ff ff
	ff		 lea	 ecx, DWORD PTR $T194657[ebp]
  00576	ff 15 00 00 00
	00		 call	 DWORD PTR __imp_??1?$basic_string@DU?$char_traits@D@std@@V?$allocator@D@2@@std@@QAE@XZ
  0057c	3b f4		 cmp	 esi, esp
  0057e	e8 00 00 00 00	 call	 __RTC_CheckEsp

; 71   : 			skinPath = skinPath + "\\" + STR_DEFAULT_SKIN;

  00583	68 00 00 00 00	 push	 OFFSET FLAT:$SG191991
  00588	8d 4d 8c	 lea	 ecx, DWORD PTR _skinPath$191983[ebp]
  0058b	51		 push	 ecx
  0058c	8d 95 34 ff ff
	ff		 lea	 edx, DWORD PTR $T194658[ebp]
  00592	52		 push	 edx
  00593	e8 00 00 00 00	 call	 ??$?HDU?$char_traits@D@std@@V?$allocator@D@1@@std@@YA?AV?$basic_string@DU?$char_traits@D@std@@V?$allocator@D@2@@0@ABV10@PBD@Z ; std::operator+<char,std::char_traits<char>,std::allocator<char> >
  00598	83 c4 0c	 add	 esp, 12			; 0000000cH
  0059b	89 85 8c fe ff
	ff		 mov	 DWORD PTR tv517[ebp], eax
  005a1	8b 85 8c fe ff
	ff		 mov	 eax, DWORD PTR tv517[ebp]
  005a7	89 85 88 fe ff
	ff		 mov	 DWORD PTR tv481[ebp], eax
  005ad	c6 45 fc 04	 mov	 BYTE PTR __$EHRec$[ebp+8], 4
  005b1	68 00 00 00 00	 push	 OFFSET FLAT:$SG191990
  005b6	8b 8d 88 fe ff
	ff		 mov	 ecx, DWORD PTR tv481[ebp]
  005bc	51		 push	 ecx
  005bd	8d 95 18 ff ff
	ff		 lea	 edx, DWORD PTR $T194659[ebp]
  005c3	52		 push	 edx
  005c4	e8 00 00 00 00	 call	 ??$?HDU?$char_traits@D@std@@V?$allocator@D@1@@std@@YA?AV?$basic_string@DU?$char_traits@D@std@@V?$allocator@D@2@@0@ABV10@PBD@Z ; std::operator+<char,std::char_traits<char>,std::allocator<char> >
  005c9	83 c4 0c	 add	 esp, 12			; 0000000cH
  005cc	89 85 84 fe ff
	ff		 mov	 DWORD PTR tv520[ebp], eax
  005d2	8b 85 84 fe ff
	ff		 mov	 eax, DWORD PTR tv520[ebp]
  005d8	89 85 80 fe ff
	ff		 mov	 DWORD PTR tv483[ebp], eax
  005de	c6 45 fc 05	 mov	 BYTE PTR __$EHRec$[ebp+8], 5
  005e2	8b f4		 mov	 esi, esp
  005e4	8b 8d 80 fe ff
	ff		 mov	 ecx, DWORD PTR tv483[ebp]
  005ea	51		 push	 ecx
  005eb	8d 4d 8c	 lea	 ecx, DWORD PTR _skinPath$191983[ebp]
  005ee	ff 15 00 00 00
	00		 call	 DWORD PTR __imp_??4?$basic_string@DU?$char_traits@D@std@@V?$allocator@D@2@@std@@QAEAAV01@ABV01@@Z
  005f4	3b f4		 cmp	 esi, esp
  005f6	e8 00 00 00 00	 call	 __RTC_CheckEsp
  005fb	c6 45 fc 04	 mov	 BYTE PTR __$EHRec$[ebp+8], 4
  005ff	8b f4		 mov	 esi, esp
  00601	8d 8d 18 ff ff
	ff		 lea	 ecx, DWORD PTR $T194659[ebp]
  00607	ff 15 00 00 00
	00		 call	 DWORD PTR __imp_??1?$basic_string@DU?$char_traits@D@std@@V?$allocator@D@2@@std@@QAE@XZ
  0060d	3b f4		 cmp	 esi, esp
  0060f	e8 00 00 00 00	 call	 __RTC_CheckEsp
  00614	c6 45 fc 02	 mov	 BYTE PTR __$EHRec$[ebp+8], 2
  00618	8b f4		 mov	 esi, esp
  0061a	8d 8d 34 ff ff
	ff		 lea	 ecx, DWORD PTR $T194658[ebp]
  00620	ff 15 00 00 00
	00		 call	 DWORD PTR __imp_??1?$basic_string@DU?$char_traits@D@std@@V?$allocator@D@2@@std@@QAE@XZ
  00626	3b f4		 cmp	 esi, esp
  00628	e8 00 00 00 00	 call	 __RTC_CheckEsp
$L191986:

; 72   : 		}			
; 73   : 
; 74   : 		list<CSubLabel *>::iterator subiter = m_SubLabelList.begin();

  0062d	8d 95 7c ff ff
	ff		 lea	 edx, DWORD PTR _subiter$192070[ebp]
  00633	52		 push	 edx
  00634	8b 4d ec	 mov	 ecx, DWORD PTR _this$[ebp]
  00637	81 c1 d4 02 00
	00		 add	 ecx, 724		; 000002d4H
  0063d	e8 00 00 00 00	 call	 ?begin@?$list@PAVCSubLabel@@V?$allocator@PAVCSubLabel@@@std@@@std@@QAE?AViterator@12@XZ ; std::list<CSubLabel *,std::allocator<CSubLabel *> >::begin

; 75   : 		int lnIndex = 0;

  00642	c7 85 74 ff ff
	ff 00 00 00 00	 mov	 DWORD PTR _lnIndex$192072[ebp], 0
$L192074:

; 76   : 		while( m_colBtnList_itor != m_colBtnList.end() )

  0064c	8d 85 14 ff ff
	ff		 lea	 eax, DWORD PTR $T194660[ebp]
  00652	50		 push	 eax
  00653	8b 4d ec	 mov	 ecx, DWORD PTR _this$[ebp]
  00656	81 c1 c0 02 00
	00		 add	 ecx, 704		; 000002c0H
  0065c	e8 00 00 00 00	 call	 ?end@?$list@PAVCSkinButton@@V?$allocator@PAVCSkinButton@@@std@@@std@@QAE?AViterator@12@XZ ; std::list<CSkinButton *,std::allocator<CSkinButton *> >::end
  00661	50		 push	 eax
  00662	8b 4d ec	 mov	 ecx, DWORD PTR _this$[ebp]
  00665	81 c1 cc 02 00
	00		 add	 ecx, 716		; 000002ccH
  0066b	e8 00 00 00 00	 call	 ??9const_iterator@?$list@PAVCSkinButton@@V?$allocator@PAVCSkinButton@@@std@@@std@@QBE_NABV012@@Z ; std::list<CSkinButton *,std::allocator<CSkinButton *> >::const_iterator::operator!=
  00670	0f b6 c8	 movzx	 ecx, al
  00673	85 c9		 test	 ecx, ecx
  00675	0f 84 54 06 00
	00		 je	 $L192075

; 77   : 		{
; 78   : 			(*m_colBtnList_itor)->Create(NULL,WS_CHILD | WS_VISIBLE|BS_OWNERDRAW,CRect(0,0,0,0), this, BOTTON_BEGAIN_ID+lnIndex	);

  0067b	8b 4d ec	 mov	 ecx, DWORD PTR _this$[ebp]
  0067e	81 c1 cc 02 00
	00		 add	 ecx, 716		; 000002ccH
  00684	e8 00 00 00 00	 call	 ??Diterator@?$list@PAVCSkinButton@@V?$allocator@PAVCSkinButton@@@std@@@std@@QBEAAPAVCSkinButton@@XZ ; std::list<CSkinButton *,std::allocator<CSkinButton *> >::iterator::operator*
  00689	8b 10		 mov	 edx, DWORD PTR [eax]
  0068b	89 95 7c fe ff
	ff		 mov	 DWORD PTR tv203[ebp], edx
  00691	8b 85 74 ff ff
	ff		 mov	 eax, DWORD PTR _lnIndex$192072[ebp]
  00697	05 20 4e 00 00	 add	 eax, 20000		; 00004e20H
  0069c	8b f4		 mov	 esi, esp
  0069e	50		 push	 eax
  0069f	8b 4d ec	 mov	 ecx, DWORD PTR _this$[ebp]
  006a2	51		 push	 ecx
  006a3	6a 00		 push	 0
  006a5	6a 00		 push	 0
  006a7	6a 00		 push	 0
  006a9	6a 00		 push	 0
  006ab	8d 8d 04 ff ff
	ff		 lea	 ecx, DWORD PTR $T194661[ebp]
  006b1	e8 00 00 00 00	 call	 ??0CRect@@QAE@HHHH@Z	; CRect::CRect
  006b6	50		 push	 eax
  006b7	68 0b 00 00 50	 push	 1342177291		; 5000000bH
  006bc	6a 00		 push	 0
  006be	8b 95 7c fe ff
	ff		 mov	 edx, DWORD PTR tv203[ebp]
  006c4	8b 02		 mov	 eax, DWORD PTR [edx]
  006c6	8b 8d 7c fe ff
	ff		 mov	 ecx, DWORD PTR tv203[ebp]
  006cc	ff 90 38 01 00
	00		 call	 DWORD PTR [eax+312]
  006d2	3b f4		 cmp	 esi, esp
  006d4	e8 00 00 00 00	 call	 __RTC_CheckEsp

; 79   : 			(*m_colBtnList_itor)->SetListener( this );

  006d9	83 7d ec 00	 cmp	 DWORD PTR _this$[ebp], 0
  006dd	74 11		 je	 SHORT $L194662
  006df	8b 4d ec	 mov	 ecx, DWORD PTR _this$[ebp]
  006e2	81 c1 d4 00 00
	00		 add	 ecx, 212		; 000000d4H
  006e8	89 8d 78 fe ff
	ff		 mov	 DWORD PTR tv225[ebp], ecx
  006ee	eb 0a		 jmp	 SHORT $L194663
$L194662:
  006f0	c7 85 78 fe ff
	ff 00 00 00 00	 mov	 DWORD PTR tv225[ebp], 0
$L194663:
  006fa	8b 95 78 fe ff
	ff		 mov	 edx, DWORD PTR tv225[ebp]
  00700	52		 push	 edx
  00701	8b 4d ec	 mov	 ecx, DWORD PTR _this$[ebp]
  00704	81 c1 cc 02 00
	00		 add	 ecx, 716		; 000002ccH
  0070a	e8 00 00 00 00	 call	 ??Diterator@?$list@PAVCSkinButton@@V?$allocator@PAVCSkinButton@@@std@@@std@@QBEAAPAVCSkinButton@@XZ ; std::list<CSkinButton *,std::allocator<CSkinButton *> >::iterator::operator*
  0070f	8b 08		 mov	 ecx, DWORD PTR [eax]
  00711	e8 00 00 00 00	 call	 ?SetListener@CSkinButton@@QAEXPAVIEventListener@@@Z ; CSkinButton::SetListener

; 80   : 			(*m_colBtnList_itor)->GetBitmapEx()->SetBitmapDimension(lBitMap.bmWidth,lBitMap.bmHeight);

  00716	8b 45 b8	 mov	 eax, DWORD PTR _lBitMap$191982[ebp+8]
  00719	50		 push	 eax
  0071a	8b 4d b4	 mov	 ecx, DWORD PTR _lBitMap$191982[ebp+4]
  0071d	51		 push	 ecx
  0071e	8d 95 fc fe ff
	ff		 lea	 edx, DWORD PTR $T194664[ebp]
  00724	52		 push	 edx
  00725	8b 4d ec	 mov	 ecx, DWORD PTR _this$[ebp]
  00728	81 c1 cc 02 00
	00		 add	 ecx, 716		; 000002ccH
  0072e	e8 00 00 00 00	 call	 ??Diterator@?$list@PAVCSkinButton@@V?$allocator@PAVCSkinButton@@@std@@@std@@QBEAAPAVCSkinButton@@XZ ; std::list<CSkinButton *,std::allocator<CSkinButton *> >::iterator::operator*
  00733	8b 08		 mov	 ecx, DWORD PTR [eax]
  00735	e8 00 00 00 00	 call	 ?GetBitmapEx@CSkinButton@@QBEPAVCBitmap@@XZ ; CSkinButton::GetBitmapEx
  0073a	8b c8		 mov	 ecx, eax
  0073c	e8 00 00 00 00	 call	 ?SetBitmapDimension@CBitmap@@QAE?AVCSize@@HH@Z ; CBitmap::SetBitmapDimension

; 81   : 			(*m_colBtnList_itor)->SetPngSkin(CString(skinPath.c_str()) + CString("\\png\\") + "yes.png");

  00741	8b f4		 mov	 esi, esp
  00743	68 00 00 00 00	 push	 OFFSET FLAT:$SG192085
  00748	8d 8d f4 fe ff
	ff		 lea	 ecx, DWORD PTR $T194666[ebp]
  0074e	ff 15 00 00 00
	00		 call	 DWORD PTR __imp_??0?$CStringT@DV?$StrTraitMFC_DLL@DV?$ChTraitsCRT@D@ATL@@@@@ATL@@QAE@PBD@Z
  00754	3b f4		 cmp	 esi, esp
  00756	e8 00 00 00 00	 call	 __RTC_CheckEsp
  0075b	89 85 74 fe ff
	ff		 mov	 DWORD PTR tv523[ebp], eax
  00761	8b 85 74 fe ff
	ff		 mov	 eax, DWORD PTR tv523[ebp]
  00767	89 85 70 fe ff
	ff		 mov	 DWORD PTR tv485[ebp], eax
  0076d	c6 45 fc 06	 mov	 BYTE PTR __$EHRec$[ebp+8], 6
  00771	8b f4		 mov	 esi, esp
  00773	8d 4d 8c	 lea	 ecx, DWORD PTR _skinPath$191983[ebp]
  00776	ff 15 00 00 00
	00		 call	 DWORD PTR __imp_?c_str@?$basic_string@DU?$char_traits@D@std@@V?$allocator@D@2@@std@@QBEPBDXZ
  0077c	3b f4		 cmp	 esi, esp
  0077e	e8 00 00 00 00	 call	 __RTC_CheckEsp
  00783	8b f4		 mov	 esi, esp
  00785	50		 push	 eax
  00786	8d 8d f0 fe ff
	ff		 lea	 ecx, DWORD PTR $T194667[ebp]
  0078c	ff 15 00 00 00
	00		 call	 DWORD PTR __imp_??0?$CStringT@DV?$StrTraitMFC_DLL@DV?$ChTraitsCRT@D@ATL@@@@@ATL@@QAE@PBD@Z
  00792	3b f4		 cmp	 esi, esp
  00794	e8 00 00 00 00	 call	 __RTC_CheckEsp
  00799	89 85 6c fe ff
	ff		 mov	 DWORD PTR tv526[ebp], eax
  0079f	8b 8d 6c fe ff
	ff		 mov	 ecx, DWORD PTR tv526[ebp]
  007a5	89 8d 68 fe ff
	ff		 mov	 DWORD PTR tv487[ebp], ecx
  007ab	c6 45 fc 07	 mov	 BYTE PTR __$EHRec$[ebp+8], 7
  007af	8b 95 70 fe ff
	ff		 mov	 edx, DWORD PTR tv485[ebp]
  007b5	52		 push	 edx
  007b6	8b 85 68 fe ff
	ff		 mov	 eax, DWORD PTR tv487[ebp]
  007bc	50		 push	 eax
  007bd	8d 8d ec fe ff
	ff		 lea	 ecx, DWORD PTR $T194668[ebp]
  007c3	51		 push	 ecx
  007c4	e8 00 00 00 00	 call	 ??HATL@@YA?AV?$CStringT@DV?$StrTraitMFC_DLL@DV?$ChTraitsCRT@D@ATL@@@@@0@ABV10@0@Z ; ATL::operator+
  007c9	83 c4 0c	 add	 esp, 12			; 0000000cH
  007cc	89 85 64 fe ff
	ff		 mov	 DWORD PTR tv529[ebp], eax
  007d2	8b 95 64 fe ff
	ff		 mov	 edx, DWORD PTR tv529[ebp]
  007d8	89 95 60 fe ff
	ff		 mov	 DWORD PTR tv489[ebp], edx
  007de	c6 45 fc 08	 mov	 BYTE PTR __$EHRec$[ebp+8], 8
  007e2	51		 push	 ecx
  007e3	8b c4		 mov	 eax, esp
  007e5	89 a5 f8 fe ff
	ff		 mov	 DWORD PTR $T194665[ebp], esp
  007eb	68 00 00 00 00	 push	 OFFSET FLAT:$SG192084
  007f0	8b 8d 60 fe ff
	ff		 mov	 ecx, DWORD PTR tv489[ebp]
  007f6	51		 push	 ecx
  007f7	50		 push	 eax
  007f8	e8 00 00 00 00	 call	 ??HATL@@YA?AV?$CStringT@DV?$StrTraitMFC_DLL@DV?$ChTraitsCRT@D@ATL@@@@@0@ABV10@PBD@Z ; ATL::operator+
  007fd	83 c4 0c	 add	 esp, 12			; 0000000cH
  00800	89 85 5c fe ff
	ff		 mov	 DWORD PTR tv532[ebp], eax
  00806	8b 95 5c fe ff
	ff		 mov	 edx, DWORD PTR tv532[ebp]
  0080c	89 95 58 fe ff
	ff		 mov	 DWORD PTR tv491[ebp], edx
  00812	c6 45 fc 09	 mov	 BYTE PTR __$EHRec$[ebp+8], 9
  00816	8b 4d ec	 mov	 ecx, DWORD PTR _this$[ebp]
  00819	81 c1 cc 02 00
	00		 add	 ecx, 716		; 000002ccH
  0081f	e8 00 00 00 00	 call	 ??Diterator@?$list@PAVCSkinButton@@V?$allocator@PAVCSkinButton@@@std@@@std@@QBEAAPAVCSkinButton@@XZ ; std::list<CSkinButton *,std::allocator<CSkinButton *> >::iterator::operator*
  00824	8b 08		 mov	 ecx, DWORD PTR [eax]
  00826	c6 45 fc 08	 mov	 BYTE PTR __$EHRec$[ebp+8], 8
  0082a	e8 00 00 00 00	 call	 ?SetPngSkin@CSkinButton@@QAEHV?$CStringT@DV?$StrTraitMFC_DLL@DV?$ChTraitsCRT@D@ATL@@@@@ATL@@@Z ; CSkinButton::SetPngSkin
  0082f	c6 45 fc 07	 mov	 BYTE PTR __$EHRec$[ebp+8], 7
  00833	8b f4		 mov	 esi, esp
  00835	8d 8d ec fe ff
	ff		 lea	 ecx, DWORD PTR $T194668[ebp]
  0083b	ff 15 00 00 00
	00		 call	 DWORD PTR __imp_??1?$CStringT@DV?$StrTraitMFC_DLL@DV?$ChTraitsCRT@D@ATL@@@@@ATL@@QAE@XZ
  00841	3b f4		 cmp	 esi, esp
  00843	e8 00 00 00 00	 call	 __RTC_CheckEsp
  00848	c6 45 fc 06	 mov	 BYTE PTR __$EHRec$[ebp+8], 6
  0084c	8b f4		 mov	 esi, esp
  0084e	8d 8d f0 fe ff
	ff		 lea	 ecx, DWORD PTR $T194667[ebp]
  00854	ff 15 00 00 00
	00		 call	 DWORD PTR __imp_??1?$CStringT@DV?$StrTraitMFC_DLL@DV?$ChTraitsCRT@D@ATL@@@@@ATL@@QAE@XZ
  0085a	3b f4		 cmp	 esi, esp
  0085c	e8 00 00 00 00	 call	 __RTC_CheckEsp
  00861	c6 45 fc 02	 mov	 BYTE PTR __$EHRec$[ebp+8], 2
  00865	8b f4		 mov	 esi, esp
  00867	8d 8d f4 fe ff
	ff		 lea	 ecx, DWORD PTR $T194666[ebp]
  0086d	ff 15 00 00 00
	00		 call	 DWORD PTR __imp_??1?$CStringT@DV?$StrTraitMFC_DLL@DV?$ChTraitsCRT@D@ATL@@@@@ATL@@QAE@XZ
  00873	3b f4		 cmp	 esi, esp
  00875	e8 00 00 00 00	 call	 __RTC_CheckEsp

; 82   : 			(*m_colBtnList_itor)->SetPngHoverSkin(CString(skinPath.c_str()) + CString("\\png\\") + "delete.png");

  0087a	8b f4		 mov	 esi, esp
  0087c	68 00 00 00 00	 push	 OFFSET FLAT:$SG192092
  00881	8d 8d e4 fe ff
	ff		 lea	 ecx, DWORD PTR $T194670[ebp]
  00887	ff 15 00 00 00
	00		 call	 DWORD PTR __imp_??0?$CStringT@DV?$StrTraitMFC_DLL@DV?$ChTraitsCRT@D@ATL@@@@@ATL@@QAE@PBD@Z
  0088d	3b f4		 cmp	 esi, esp
  0088f	e8 00 00 00 00	 call	 __RTC_CheckEsp
  00894	89 85 54 fe ff
	ff		 mov	 DWORD PTR tv535[ebp], eax
  0089a	8b 85 54 fe ff
	ff		 mov	 eax, DWORD PTR tv535[ebp]
  008a0	89 85 50 fe ff
	ff		 mov	 DWORD PTR tv493[ebp], eax
  008a6	c6 45 fc 0a	 mov	 BYTE PTR __$EHRec$[ebp+8], 10 ; 0000000aH
  008aa	8b f4		 mov	 esi, esp
  008ac	8d 4d 8c	 lea	 ecx, DWORD PTR _skinPath$191983[ebp]
  008af	ff 15 00 00 00
	00		 call	 DWORD PTR __imp_?c_str@?$basic_string@DU?$char_traits@D@std@@V?$allocator@D@2@@std@@QBEPBDXZ
  008b5	3b f4		 cmp	 esi, esp
  008b7	e8 00 00 00 00	 call	 __RTC_CheckEsp
  008bc	8b f4		 mov	 esi, esp
  008be	50		 push	 eax
  008bf	8d 8d e0 fe ff
	ff		 lea	 ecx, DWORD PTR $T194671[ebp]
  008c5	ff 15 00 00 00
	00		 call	 DWORD PTR __imp_??0?$CStringT@DV?$StrTraitMFC_DLL@DV?$ChTraitsCRT@D@ATL@@@@@ATL@@QAE@PBD@Z
  008cb	3b f4		 cmp	 esi, esp
  008cd	e8 00 00 00 00	 call	 __RTC_CheckEsp
  008d2	89 85 4c fe ff
	ff		 mov	 DWORD PTR tv538[ebp], eax
  008d8	8b 8d 4c fe ff
	ff		 mov	 ecx, DWORD PTR tv538[ebp]
  008de	89 8d 48 fe ff
	ff		 mov	 DWORD PTR tv495[ebp], ecx
  008e4	c6 45 fc 0b	 mov	 BYTE PTR __$EHRec$[ebp+8], 11 ; 0000000bH
  008e8	8b 95 50 fe ff
	ff		 mov	 edx, DWORD PTR tv493[ebp]
  008ee	52		 push	 edx
  008ef	8b 85 48 fe ff
	ff		 mov	 eax, DWORD PTR tv495[ebp]
  008f5	50		 push	 eax
  008f6	8d 8d dc fe ff
	ff		 lea	 ecx, DWORD PTR $T194672[ebp]
  008fc	51		 push	 ecx
  008fd	e8 00 00 00 00	 call	 ??HATL@@YA?AV?$CStringT@DV?$StrTraitMFC_DLL@DV?$ChTraitsCRT@D@ATL@@@@@0@ABV10@0@Z ; ATL::operator+
  00902	83 c4 0c	 add	 esp, 12			; 0000000cH
  00905	89 85 44 fe ff
	ff		 mov	 DWORD PTR tv541[ebp], eax
  0090b	8b 95 44 fe ff
	ff		 mov	 edx, DWORD PTR tv541[ebp]
  00911	89 95 40 fe ff
	ff		 mov	 DWORD PTR tv497[ebp], edx
  00917	c6 45 fc 0c	 mov	 BYTE PTR __$EHRec$[ebp+8], 12 ; 0000000cH
  0091b	51		 push	 ecx
  0091c	8b c4		 mov	 eax, esp
  0091e	89 a5 e8 fe ff
	ff		 mov	 DWORD PTR $T194669[ebp], esp
  00924	68 00 00 00 00	 push	 OFFSET FLAT:$SG192091
  00929	8b 8d 40 fe ff
	ff		 mov	 ecx, DWORD PTR tv497[ebp]
  0092f	51		 push	 ecx
  00930	50		 push	 eax
  00931	e8 00 00 00 00	 call	 ??HATL@@YA?AV?$CStringT@DV?$StrTraitMFC_DLL@DV?$ChTraitsCRT@D@ATL@@@@@0@ABV10@PBD@Z ; ATL::operator+
  00936	83 c4 0c	 add	 esp, 12			; 0000000cH
  00939	89 85 3c fe ff
	ff		 mov	 DWORD PTR tv544[ebp], eax
  0093f	8b 95 3c fe ff
	ff		 mov	 edx, DWORD PTR tv544[ebp]
  00945	89 95 38 fe ff
	ff		 mov	 DWORD PTR tv499[ebp], edx
  0094b	c6 45 fc 0d	 mov	 BYTE PTR __$EHRec$[ebp+8], 13 ; 0000000dH
  0094f	8b 4d ec	 mov	 ecx, DWORD PTR _this$[ebp]
  00952	81 c1 cc 02 00
	00		 add	 ecx, 716		; 000002ccH
  00958	e8 00 00 00 00	 call	 ??Diterator@?$list@PAVCSkinButton@@V?$allocator@PAVCSkinButton@@@std@@@std@@QBEAAPAVCSkinButton@@XZ ; std::list<CSkinButton *,std::allocator<CSkinButton *> >::iterator::operator*
  0095d	8b 00		 mov	 eax, DWORD PTR [eax]
  0095f	89 85 34 fe ff
	ff		 mov	 DWORD PTR tv280[ebp], eax
  00965	8b 8d 34 fe ff
	ff		 mov	 ecx, DWORD PTR tv280[ebp]
  0096b	8b 11		 mov	 edx, DWORD PTR [ecx]
  0096d	c6 45 fc 0c	 mov	 BYTE PTR __$EHRec$[ebp+8], 12 ; 0000000cH
  00971	8b 8d 34 fe ff
	ff		 mov	 ecx, DWORD PTR tv280[ebp]
  00977	ff 92 40 01 00
	00		 call	 DWORD PTR [edx+320]
  0097d	c6 45 fc 0b	 mov	 BYTE PTR __$EHRec$[ebp+8], 11 ; 0000000bH
  00981	8b f4		 mov	 esi, esp
  00983	8d 8d dc fe ff
	ff		 lea	 ecx, DWORD PTR $T194672[ebp]
  00989	ff 15 00 00 00
	00		 call	 DWORD PTR __imp_??1?$CStringT@DV?$StrTraitMFC_DLL@DV?$ChTraitsCRT@D@ATL@@@@@ATL@@QAE@XZ
  0098f	3b f4		 cmp	 esi, esp
  00991	e8 00 00 00 00	 call	 __RTC_CheckEsp
  00996	c6 45 fc 0a	 mov	 BYTE PTR __$EHRec$[ebp+8], 10 ; 0000000aH
  0099a	8b f4		 mov	 esi, esp
  0099c	8d 8d e0 fe ff
	ff		 lea	 ecx, DWORD PTR $T194671[ebp]
  009a2	ff 15 00 00 00
	00		 call	 DWORD PTR __imp_??1?$CStringT@DV?$StrTraitMFC_DLL@DV?$ChTraitsCRT@D@ATL@@@@@ATL@@QAE@XZ
  009a8	3b f4		 cmp	 esi, esp
  009aa	e8 00 00 00 00	 call	 __RTC_CheckEsp
  009af	c6 45 fc 02	 mov	 BYTE PTR __$EHRec$[ebp+8], 2
  009b3	8b f4		 mov	 esi, esp
  009b5	8d 8d e4 fe ff
	ff		 lea	 ecx, DWORD PTR $T194670[ebp]
  009bb	ff 15 00 00 00
	00		 call	 DWORD PTR __imp_??1?$CStringT@DV?$StrTraitMFC_DLL@DV?$ChTraitsCRT@D@ATL@@@@@ATL@@QAE@XZ
  009c1	3b f4		 cmp	 esi, esp
  009c3	e8 00 00 00 00	 call	 __RTC_CheckEsp

; 83   : 			(*m_colBtnList_itor)->SetPngFrame(CString(skinPath.c_str()) + CString("\\png\\") + "SkinFrame.png");

  009c8	8b f4		 mov	 esi, esp
  009ca	68 00 00 00 00	 push	 OFFSET FLAT:$SG192099
  009cf	8d 8d d4 fe ff
	ff		 lea	 ecx, DWORD PTR $T194674[ebp]
  009d5	ff 15 00 00 00
	00		 call	 DWORD PTR __imp_??0?$CStringT@DV?$StrTraitMFC_DLL@DV?$ChTraitsCRT@D@ATL@@@@@ATL@@QAE@PBD@Z
  009db	3b f4		 cmp	 esi, esp
  009dd	e8 00 00 00 00	 call	 __RTC_CheckEsp
  009e2	89 85 30 fe ff
	ff		 mov	 DWORD PTR tv547[ebp], eax
  009e8	8b 85 30 fe ff
	ff		 mov	 eax, DWORD PTR tv547[ebp]
  009ee	89 85 2c fe ff
	ff		 mov	 DWORD PTR tv501[ebp], eax
  009f4	c6 45 fc 0e	 mov	 BYTE PTR __$EHRec$[ebp+8], 14 ; 0000000eH
  009f8	8b f4		 mov	 esi, esp
  009fa	8d 4d 8c	 lea	 ecx, DWORD PTR _skinPath$191983[ebp]
  009fd	ff 15 00 00 00
	00		 call	 DWORD PTR __imp_?c_str@?$basic_string@DU?$char_traits@D@std@@V?$allocator@D@2@@std@@QBEPBDXZ
  00a03	3b f4		 cmp	 esi, esp
  00a05	e8 00 00 00 00	 call	 __RTC_CheckEsp
  00a0a	8b f4		 mov	 esi, esp
  00a0c	50		 push	 eax
  00a0d	8d 8d d0 fe ff
	ff		 lea	 ecx, DWORD PTR $T194675[ebp]
  00a13	ff 15 00 00 00
	00		 call	 DWORD PTR __imp_??0?$CStringT@DV?$StrTraitMFC_DLL@DV?$ChTraitsCRT@D@ATL@@@@@ATL@@QAE@PBD@Z
  00a19	3b f4		 cmp	 esi, esp
  00a1b	e8 00 00 00 00	 call	 __RTC_CheckEsp
  00a20	89 85 28 fe ff
	ff		 mov	 DWORD PTR tv550[ebp], eax
  00a26	8b 8d 28 fe ff
	ff		 mov	 ecx, DWORD PTR tv550[ebp]
  00a2c	89 8d 24 fe ff
	ff		 mov	 DWORD PTR tv503[ebp], ecx
  00a32	c6 45 fc 0f	 mov	 BYTE PTR __$EHRec$[ebp+8], 15 ; 0000000fH
  00a36	8b 95 2c fe ff
	ff		 mov	 edx, DWORD PTR tv501[ebp]
  00a3c	52		 push	 edx
  00a3d	8b 85 24 fe ff
	ff		 mov	 eax, DWORD PTR tv503[ebp]
  00a43	50		 push	 eax
  00a44	8d 8d cc fe ff
	ff		 lea	 ecx, DWORD PTR $T194676[ebp]
  00a4a	51		 push	 ecx
  00a4b	e8 00 00 00 00	 call	 ??HATL@@YA?AV?$CStringT@DV?$StrTraitMFC_DLL@DV?$ChTraitsCRT@D@ATL@@@@@0@ABV10@0@Z ; ATL::operator+
  00a50	83 c4 0c	 add	 esp, 12			; 0000000cH
  00a53	89 85 20 fe ff
	ff		 mov	 DWORD PTR tv553[ebp], eax
  00a59	8b 95 20 fe ff
	ff		 mov	 edx, DWORD PTR tv553[ebp]
  00a5f	89 95 1c fe ff
	ff		 mov	 DWORD PTR tv505[ebp], edx
  00a65	c6 45 fc 10	 mov	 BYTE PTR __$EHRec$[ebp+8], 16 ; 00000010H
  00a69	51		 push	 ecx
  00a6a	8b c4		 mov	 eax, esp
  00a6c	89 a5 d8 fe ff
	ff		 mov	 DWORD PTR $T194673[ebp], esp
  00a72	68 00 00 00 00	 push	 OFFSET FLAT:$SG192098
  00a77	8b 8d 1c fe ff
	ff		 mov	 ecx, DWORD PTR tv505[ebp]
  00a7d	51		 push	 ecx
  00a7e	50		 push	 eax
  00a7f	e8 00 00 00 00	 call	 ??HATL@@YA?AV?$CStringT@DV?$StrTraitMFC_DLL@DV?$ChTraitsCRT@D@ATL@@@@@0@ABV10@PBD@Z ; ATL::operator+
  00a84	83 c4 0c	 add	 esp, 12			; 0000000cH
  00a87	89 85 18 fe ff
	ff		 mov	 DWORD PTR tv556[ebp], eax
  00a8d	8b 95 18 fe ff
	ff		 mov	 edx, DWORD PTR tv556[ebp]
  00a93	89 95 14 fe ff
	ff		 mov	 DWORD PTR tv507[ebp], edx
  00a99	c6 45 fc 11	 mov	 BYTE PTR __$EHRec$[ebp+8], 17 ; 00000011H
  00a9d	8b 4d ec	 mov	 ecx, DWORD PTR _this$[ebp]
  00aa0	81 c1 cc 02 00
	00		 add	 ecx, 716		; 000002ccH
  00aa6	e8 00 00 00 00	 call	 ??Diterator@?$list@PAVCSkinButton@@V?$allocator@PAVCSkinButton@@@std@@@std@@QBEAAPAVCSkinButton@@XZ ; std::list<CSkinButton *,std::allocator<CSkinButton *> >::iterator::operator*
  00aab	8b 00		 mov	 eax, DWORD PTR [eax]
  00aad	89 85 10 fe ff
	ff		 mov	 DWORD PTR tv353[ebp], eax
  00ab3	8b 8d 10 fe ff
	ff		 mov	 ecx, DWORD PTR tv353[ebp]
  00ab9	8b 11		 mov	 edx, DWORD PTR [ecx]
  00abb	c6 45 fc 10	 mov	 BYTE PTR __$EHRec$[ebp+8], 16 ; 00000010H
  00abf	8b 8d 10 fe ff
	ff		 mov	 ecx, DWORD PTR tv353[ebp]
  00ac5	ff 92 44 01 00
	00		 call	 DWORD PTR [edx+324]
  00acb	c6 45 fc 0f	 mov	 BYTE PTR __$EHRec$[ebp+8], 15 ; 0000000fH
  00acf	8b f4		 mov	 esi, esp
  00ad1	8d 8d cc fe ff
	ff		 lea	 ecx, DWORD PTR $T194676[ebp]
  00ad7	ff 15 00 00 00
	00		 call	 DWORD PTR __imp_??1?$CStringT@DV?$StrTraitMFC_DLL@DV?$ChTraitsCRT@D@ATL@@@@@ATL@@QAE@XZ
  00add	3b f4		 cmp	 esi, esp
  00adf	e8 00 00 00 00	 call	 __RTC_CheckEsp
  00ae4	c6 45 fc 0e	 mov	 BYTE PTR __$EHRec$[ebp+8], 14 ; 0000000eH
  00ae8	8b f4		 mov	 esi, esp
  00aea	8d 8d d0 fe ff
	ff		 lea	 ecx, DWORD PTR $T194675[ebp]
  00af0	ff 15 00 00 00
	00		 call	 DWORD PTR __imp_??1?$CStringT@DV?$StrTraitMFC_DLL@DV?$ChTraitsCRT@D@ATL@@@@@ATL@@QAE@XZ
  00af6	3b f4		 cmp	 esi, esp
  00af8	e8 00 00 00 00	 call	 __RTC_CheckEsp
  00afd	c6 45 fc 02	 mov	 BYTE PTR __$EHRec$[ebp+8], 2
  00b01	8b f4		 mov	 esi, esp
  00b03	8d 8d d4 fe ff
	ff		 lea	 ecx, DWORD PTR $T194674[ebp]
  00b09	ff 15 00 00 00
	00		 call	 DWORD PTR __imp_??1?$CStringT@DV?$StrTraitMFC_DLL@DV?$ChTraitsCRT@D@ATL@@@@@ATL@@QAE@XZ
  00b0f	3b f4		 cmp	 esi, esp
  00b11	e8 00 00 00 00	 call	 __RTC_CheckEsp

; 84   : 			//skinlabel
; 85   : 			(*subiter)->Create(NULL,WS_CHILD | WS_VISIBLE|BS_OWNERDRAW,	CRect(0,0,0,0),	this,SUB_LABEL_ID+lnIndex);

  00b16	8d 8d 7c ff ff
	ff		 lea	 ecx, DWORD PTR _subiter$192070[ebp]
  00b1c	e8 00 00 00 00	 call	 ??Diterator@?$list@PAVCSubLabel@@V?$allocator@PAVCSubLabel@@@std@@@std@@QBEAAPAVCSubLabel@@XZ ; std::list<CSubLabel *,std::allocator<CSubLabel *> >::iterator::operator*
  00b21	8b 00		 mov	 eax, DWORD PTR [eax]
  00b23	89 85 0c fe ff
	ff		 mov	 DWORD PTR tv393[ebp], eax
  00b29	8b 8d 74 ff ff
	ff		 mov	 ecx, DWORD PTR _lnIndex$192072[ebp]
  00b2f	81 c1 a8 61 00
	00		 add	 ecx, 25000		; 000061a8H
  00b35	8b f4		 mov	 esi, esp
  00b37	51		 push	 ecx
  00b38	8b 55 ec	 mov	 edx, DWORD PTR _this$[ebp]
  00b3b	52		 push	 edx
  00b3c	6a 00		 push	 0
  00b3e	6a 00		 push	 0
  00b40	6a 00		 push	 0
  00b42	6a 00		 push	 0
  00b44	8d 8d bc fe ff
	ff		 lea	 ecx, DWORD PTR $T194677[ebp]
  00b4a	e8 00 00 00 00	 call	 ??0CRect@@QAE@HHHH@Z	; CRect::CRect
  00b4f	50		 push	 eax
  00b50	68 0b 00 00 50	 push	 1342177291		; 5000000bH
  00b55	6a 00		 push	 0
  00b57	8b 85 0c fe ff
	ff		 mov	 eax, DWORD PTR tv393[ebp]
  00b5d	8b 10		 mov	 edx, DWORD PTR [eax]
  00b5f	8b 8d 0c fe ff
	ff		 mov	 ecx, DWORD PTR tv393[ebp]
  00b65	ff 92 38 01 00
	00		 call	 DWORD PTR [edx+312]
  00b6b	3b f4		 cmp	 esi, esp
  00b6d	e8 00 00 00 00	 call	 __RTC_CheckEsp

; 86   : 
; 87   : 			if( (*m_colBtnList_itor)->GetText() == AfxGetUIManager()->UIGetSkinMgr()->GetSubject()->strCurSubject.c_str()  )

  00b72	e8 00 00 00 00	 call	 ?AfxGetUIManager@@YAPAVIUIManager@@XZ ; AfxGetUIManager
  00b77	89 85 08 fe ff
	ff		 mov	 DWORD PTR tv411[ebp], eax
  00b7d	8b 85 08 fe ff
	ff		 mov	 eax, DWORD PTR tv411[ebp]
  00b83	8b 10		 mov	 edx, DWORD PTR [eax]
  00b85	8b f4		 mov	 esi, esp
  00b87	8b 8d 08 fe ff
	ff		 mov	 ecx, DWORD PTR tv411[ebp]
  00b8d	ff 52 28	 call	 DWORD PTR [edx+40]
  00b90	3b f4		 cmp	 esi, esp
  00b92	e8 00 00 00 00	 call	 __RTC_CheckEsp
  00b97	89 85 04 fe ff
	ff		 mov	 DWORD PTR tv416[ebp], eax
  00b9d	8d 85 b4 fe ff
	ff		 lea	 eax, DWORD PTR $T194679[ebp]
  00ba3	50		 push	 eax
  00ba4	8b 4d ec	 mov	 ecx, DWORD PTR _this$[ebp]
  00ba7	81 c1 cc 02 00
	00		 add	 ecx, 716		; 000002ccH
  00bad	e8 00 00 00 00	 call	 ??Diterator@?$list@PAVCSkinButton@@V?$allocator@PAVCSkinButton@@@std@@@std@@QBEAAPAVCSkinButton@@XZ ; std::list<CSkinButton *,std::allocator<CSkinButton *> >::iterator::operator*
  00bb2	8b 08		 mov	 ecx, DWORD PTR [eax]
  00bb4	e8 00 00 00 00	 call	 ?GetText@CSkinButton@@QBE?AV?$CStringT@DV?$StrTraitMFC_DLL@DV?$ChTraitsCRT@D@ATL@@@@@ATL@@XZ ; CSkinButton::GetText
  00bb9	89 85 00 fe ff
	ff		 mov	 DWORD PTR tv559[ebp], eax
  00bbf	8b 8d 00 fe ff
	ff		 mov	 ecx, DWORD PTR tv559[ebp]
  00bc5	89 8d fc fd ff
	ff		 mov	 DWORD PTR tv509[ebp], ecx
  00bcb	c6 45 fc 12	 mov	 BYTE PTR __$EHRec$[ebp+8], 18 ; 00000012H
  00bcf	8b f4		 mov	 esi, esp
  00bd1	8b 95 04 fe ff
	ff		 mov	 edx, DWORD PTR tv416[ebp]
  00bd7	8b 02		 mov	 eax, DWORD PTR [edx]
  00bd9	8b 8d 04 fe ff
	ff		 mov	 ecx, DWORD PTR tv416[ebp]
  00bdf	ff 50 24	 call	 DWORD PTR [eax+36]
  00be2	3b f4		 cmp	 esi, esp
  00be4	e8 00 00 00 00	 call	 __RTC_CheckEsp
  00be9	83 c0 04	 add	 eax, 4
  00bec	8b f4		 mov	 esi, esp
  00bee	8b c8		 mov	 ecx, eax
  00bf0	ff 15 00 00 00
	00		 call	 DWORD PTR __imp_?c_str@?$basic_string@DU?$char_traits@D@std@@V?$allocator@D@2@@std@@QBEPBDXZ
  00bf6	3b f4		 cmp	 esi, esp
  00bf8	e8 00 00 00 00	 call	 __RTC_CheckEsp
  00bfd	50		 push	 eax
  00bfe	8b 8d fc fd ff
	ff		 mov	 ecx, DWORD PTR tv509[ebp]
  00c04	51		 push	 ecx
  00c05	e8 00 00 00 00	 call	 ??8ATL@@YA_NABV?$CStringT@DV?$StrTraitMFC_DLL@DV?$ChTraitsCRT@D@ATL@@@@@0@PBD@Z ; ATL::operator==
  00c0a	83 c4 08	 add	 esp, 8
  00c0d	88 85 bb fe ff
	ff		 mov	 BYTE PTR $T194678[ebp], al
  00c13	c6 45 fc 02	 mov	 BYTE PTR __$EHRec$[ebp+8], 2
  00c17	8b f4		 mov	 esi, esp
  00c19	8d 8d b4 fe ff
	ff		 lea	 ecx, DWORD PTR $T194679[ebp]
  00c1f	ff 15 00 00 00
	00		 call	 DWORD PTR __imp_??1?$CStringT@DV?$StrTraitMFC_DLL@DV?$ChTraitsCRT@D@ATL@@@@@ATL@@QAE@XZ
  00c25	3b f4		 cmp	 esi, esp
  00c27	e8 00 00 00 00	 call	 __RTC_CheckEsp
  00c2c	0f b6 95 bb fe
	ff ff		 movzx	 edx, BYTE PTR $T194678[ebp]
  00c33	85 d2		 test	 edx, edx
  00c35	74 2b		 je	 SHORT $L192102

; 88   : 			{
; 89   : 				(*m_colBtnList_itor)->SetSelected( true );

  00c37	6a 01		 push	 1
  00c39	8b 4d ec	 mov	 ecx, DWORD PTR _this$[ebp]
  00c3c	81 c1 cc 02 00
	00		 add	 ecx, 716		; 000002ccH
  00c42	e8 00 00 00 00	 call	 ??Diterator@?$list@PAVCSkinButton@@V?$allocator@PAVCSkinButton@@@std@@@std@@QBEAAPAVCSkinButton@@XZ ; std::list<CSkinButton *,std::allocator<CSkinButton *> >::iterator::operator*
  00c47	8b 08		 mov	 ecx, DWORD PTR [eax]
  00c49	e8 00 00 00 00	 call	 ?SetSelected@CSkinButton@@QAEX_N@Z ; CSkinButton::SetSelected

; 90   : 				(*subiter)->SetSelect( true );

  00c4e	6a 01		 push	 1
  00c50	8d 8d 7c ff ff
	ff		 lea	 ecx, DWORD PTR _subiter$192070[ebp]
  00c56	e8 00 00 00 00	 call	 ??Diterator@?$list@PAVCSubLabel@@V?$allocator@PAVCSubLabel@@@std@@@std@@QBEAAPAVCSubLabel@@XZ ; std::list<CSubLabel *,std::allocator<CSubLabel *> >::iterator::operator*
  00c5b	8b 08		 mov	 ecx, DWORD PTR [eax]
  00c5d	e8 00 00 00 00	 call	 ?SetSelect@CSubLabel@@QAEXH@Z ; CSubLabel::SetSelect
$L192102:

; 91   : 			}
; 92   : 			(*m_colBtnList_itor)->SetErase( true );

  00c62	6a 01		 push	 1
  00c64	8b 4d ec	 mov	 ecx, DWORD PTR _this$[ebp]
  00c67	81 c1 cc 02 00
	00		 add	 ecx, 716		; 000002ccH
  00c6d	e8 00 00 00 00	 call	 ??Diterator@?$list@PAVCSkinButton@@V?$allocator@PAVCSkinButton@@@std@@@std@@QBEAAPAVCSkinButton@@XZ ; std::list<CSkinButton *,std::allocator<CSkinButton *> >::iterator::operator*
  00c72	8b 08		 mov	 ecx, DWORD PTR [eax]
  00c74	e8 00 00 00 00	 call	 ?SetErase@CSkinButton@@QAEX_N@Z ; CSkinButton::SetErase

; 93   : 			(*m_colBtnList_itor)->ShowWindow(SW_SHOW);

  00c79	6a 05		 push	 5
  00c7b	8b 4d ec	 mov	 ecx, DWORD PTR _this$[ebp]
  00c7e	81 c1 cc 02 00
	00		 add	 ecx, 716		; 000002ccH
  00c84	e8 00 00 00 00	 call	 ??Diterator@?$list@PAVCSkinButton@@V?$allocator@PAVCSkinButton@@@std@@@std@@QBEAAPAVCSkinButton@@XZ ; std::list<CSkinButton *,std::allocator<CSkinButton *> >::iterator::operator*
  00c89	8b 08		 mov	 ecx, DWORD PTR [eax]
  00c8b	e8 00 00 00 00	 call	 ?ShowWindow@CWnd@@QAEHH@Z ; CWnd::ShowWindow

; 94   : 
; 95   : 			lnIndex++;

  00c90	8b 85 74 ff ff
	ff		 mov	 eax, DWORD PTR _lnIndex$192072[ebp]
  00c96	83 c0 01	 add	 eax, 1
  00c99	89 85 74 ff ff
	ff		 mov	 DWORD PTR _lnIndex$192072[ebp], eax

; 96   : 			m_colBtnList_itor++;

  00c9f	6a 00		 push	 0
  00ca1	8d 8d b0 fe ff
	ff		 lea	 ecx, DWORD PTR $T194680[ebp]
  00ca7	51		 push	 ecx
  00ca8	8b 4d ec	 mov	 ecx, DWORD PTR _this$[ebp]
  00cab	81 c1 cc 02 00
	00		 add	 ecx, 716		; 000002ccH
  00cb1	e8 00 00 00 00	 call	 ??Eiterator@?$list@PAVCSkinButton@@V?$allocator@PAVCSkinButton@@@std@@@std@@QAE?AV012@H@Z ; std::list<CSkinButton *,std::allocator<CSkinButton *> >::iterator::operator++

; 97   : 			subiter++;		

  00cb6	6a 00		 push	 0
  00cb8	8d 95 ac fe ff
	ff		 lea	 edx, DWORD PTR $T194681[ebp]
  00cbe	52		 push	 edx
  00cbf	8d 8d 7c ff ff
	ff		 lea	 ecx, DWORD PTR _subiter$192070[ebp]
  00cc5	e8 00 00 00 00	 call	 ??Eiterator@?$list@PAVCSubLabel@@V?$allocator@PAVCSubLabel@@@std@@@std@@QAE?AV012@H@Z ; std::list<CSubLabel *,std::allocator<CSubLabel *> >::iterator::operator++

; 98   : 		}

  00cca	e9 7d f9 ff ff	 jmp	 $L192074
$L192075:

; 99   : 		m_SubBtnID = lnIndex;

  00ccf	8b 45 ec	 mov	 eax, DWORD PTR _this$[ebp]
  00cd2	8b 8d 74 ff ff
	ff		 mov	 ecx, DWORD PTR _lnIndex$192072[ebp]
  00cd8	89 88 e0 02 00
	00		 mov	 DWORD PTR [eax+736], ecx

; 100  : 	}

  00cde	c7 45 fc ff ff
	ff ff		 mov	 DWORD PTR __$EHRec$[ebp+8], -1
  00ce5	8b f4		 mov	 esi, esp
  00ce7	8d 4d 8c	 lea	 ecx, DWORD PTR _skinPath$191983[ebp]
  00cea	ff 15 00 00 00
	00		 call	 DWORD PTR __imp_??1?$basic_string@DU?$char_traits@D@std@@V?$allocator@D@2@@std@@QAE@XZ
  00cf0	3b f4		 cmp	 esi, esp
  00cf2	e8 00 00 00 00	 call	 __RTC_CheckEsp
$L191981:

; 101  : 	
; 102  : 	MoveSubjectBtn();

  00cf7	8b 4d ec	 mov	 ecx, DWORD PTR _this$[ebp]
  00cfa	e8 00 00 00 00	 call	 ?MoveSubjectBtn@CSubjectChildWnd@@IAEXXZ ; CSubjectChildWnd::MoveSubjectBtn

; 103  : 	m_colBtnList_itor = m_colBtnList.begin();

  00cff	8d 95 a8 fe ff
	ff		 lea	 edx, DWORD PTR $T194682[ebp]
  00d05	52		 push	 edx
  00d06	8b 4d ec	 mov	 ecx, DWORD PTR _this$[ebp]
  00d09	81 c1 c0 02 00
	00		 add	 ecx, 704		; 000002c0H
  00d0f	e8 00 00 00 00	 call	 ?begin@?$list@PAVCSkinButton@@V?$allocator@PAVCSkinButton@@@std@@@std@@QAE?AViterator@12@XZ ; std::list<CSkinButton *,std::allocator<CSkinButton *> >::begin
  00d14	8b 00		 mov	 eax, DWORD PTR [eax]
  00d16	8b 4d ec	 mov	 ecx, DWORD PTR _this$[ebp]
  00d19	89 81 cc 02 00
	00		 mov	 DWORD PTR [ecx+716], eax

; 104  : }

  00d1f	52		 push	 edx
  00d20	8b cd		 mov	 ecx, ebp
  00d22	50		 push	 eax
  00d23	8d 15 00 00 00
	00		 lea	 edx, DWORD PTR $L194710
  00d29	e8 00 00 00 00	 call	 @_RTC_CheckStackVars@8
  00d2e	58		 pop	 eax
  00d2f	5a		 pop	 edx
  00d30	8b 4d f4	 mov	 ecx, DWORD PTR __$EHRec$[ebp]
  00d33	64 89 0d 00 00
	00 00		 mov	 DWORD PTR fs:__except_list, ecx
  00d3a	8b 4d f0	 mov	 ecx, DWORD PTR __$ArrayPad$[ebp]
  00d3d	e8 00 00 00 00	 call	 @__security_check_cookie@4
  00d42	5f		 pop	 edi
  00d43	5e		 pop	 esi
  00d44	81 c4 04 02 00
	00		 add	 esp, 516		; 00000204H
  00d4a	3b ec		 cmp	 ebp, esp
  00d4c	e8 00 00 00 00	 call	 __RTC_CheckEsp
  00d51	8b e5		 mov	 esp, ebp
  00d53	5d		 pop	 ebp
  00d54	c3		 ret	 0
$L194710:
  00d55	04 00 00 00	 DD	 4
  00d59	00 00 00 00	 DD	 $L194709
$L194709:
  00d5d	d8 ff ff ff	 DD	 -40			; ffffffd8H
  00d61	10 00 00 00	 DD	 16			; 00000010H
  00d65	00 00 00 00	 DD	 $L194703
  00d69	b0 ff ff ff	 DD	 -80			; ffffffb0H
  00d6d	18 00 00 00	 DD	 24			; 00000018H
  00d71	00 00 00 00	 DD	 $L194704
  00d75	8c ff ff ff	 DD	 -116			; ffffff8cH
  00d79	1c 00 00 00	 DD	 28			; 0000001cH
  00d7d	00 00 00 00	 DD	 $L194705
  00d81	7c ff ff ff	 DD	 -132			; ffffff7cH
  00d85	04 00 00 00	 DD	 4
  00d89	00 00 00 00	 DD	 $L194706
$L194706:
  00d8d	73		 DB	 115			; 00000073H
  00d8e	75		 DB	 117			; 00000075H
  00d8f	62		 DB	 98			; 00000062H
  00d90	69		 DB	 105			; 00000069H
  00d91	74		 DB	 116			; 00000074H
  00d92	65		 DB	 101			; 00000065H
  00d93	72		 DB	 114			; 00000072H
  00d94	00		 DB	 0
$L194705:
  00d95	73		 DB	 115			; 00000073H
  00d96	6b		 DB	 107			; 0000006bH
  00d97	69		 DB	 105			; 00000069H
  00d98	6e		 DB	 110			; 0000006eH
  00d99	50		 DB	 80			; 00000050H
  00d9a	61		 DB	 97			; 00000061H
  00d9b	74		 DB	 116			; 00000074H
  00d9c	68		 DB	 104			; 00000068H
  00d9d	00		 DB	 0
$L194704:
  00d9e	6c		 DB	 108			; 0000006cH
  00d9f	42		 DB	 66			; 00000042H
  00da0	69		 DB	 105			; 00000069H
  00da1	74		 DB	 116			; 00000074H
  00da2	4d		 DB	 77			; 0000004dH
  00da3	61		 DB	 97			; 00000061H
  00da4	70		 DB	 112			; 00000070H
  00da5	00		 DB	 0
$L194703:
  00da6	6c		 DB	 108			; 0000006cH
  00da7	72		 DB	 114			; 00000072H
  00da8	65		 DB	 101			; 00000065H
  00da9	63		 DB	 99			; 00000063H
  00daa	74		 DB	 116			; 00000074H
  00dab	43		 DB	 67			; 00000043H
  00dac	6c		 DB	 108			; 0000006cH
  00dad	69		 DB	 105			; 00000069H
  00dae	65		 DB	 101			; 00000065H
  00daf	6e		 DB	 110			; 0000006eH
  00db0	74		 DB	 116			; 00000074H
  00db1	00		 DB	 0
_TEXT	ENDS
text$x	SEGMENT
$L194683:
  000a8	8b f4		 mov	 esi, esp
  000aa	8d 8d 6c ff ff
	ff		 lea	 ecx, DWORD PTR $T194656[ebp]
  000b0	ff 15 00 00 00
	00		 call	 DWORD PTR __imp_??1?$CStringT@DV?$StrTraitMFC_DLL@DV?$ChTraitsCRT@D@ATL@@@@@ATL@@QAE@XZ
  000b6	3b f4		 cmp	 esi, esp
  000b8	e9 00 00 00 00	 jmp	 __RTC_CheckEsp
$L194684:
  000bd	8b f4		 mov	 esi, esp
  000bf	8d 4d 8c	 lea	 ecx, DWORD PTR _skinPath$191983[ebp]
  000c2	ff 15 00 00 00
	00		 call	 DWORD PTR __imp_??1?$basic_string@DU?$char_traits@D@std@@V?$allocator@D@2@@std@@QAE@XZ
  000c8	3b f4		 cmp	 esi, esp
  000ca	e9 00 00 00 00	 jmp	 __RTC_CheckEsp
$L194685:
  000cf	8b f4		 mov	 esi, esp
  000d1	8d 8d 50 ff ff
	ff		 lea	 ecx, DWORD PTR $T194657[ebp]
  000d7	ff 15 00 00 00
	00		 call	 DWORD PTR __imp_??1?$basic_string@DU?$char_traits@D@std@@V?$allocator@D@2@@std@@QAE@XZ
  000dd	3b f4		 cmp	 esi, esp
  000df	e9 00 00 00 00	 jmp	 __RTC_CheckEsp
$L194686:
  000e4	8b f4		 mov	 esi, esp
  000e6	8d 8d 34 ff ff
	ff		 lea	 ecx, DWORD PTR $T194658[ebp]
  000ec	ff 15 00 00 00
	00		 call	 DWORD PTR __imp_??1?$basic_string@DU?$char_traits@D@std@@V?$allocator@D@2@@std@@QAE@XZ
  000f2	3b f4		 cmp	 esi, esp
  000f4	e9 00 00 00 00	 jmp	 __RTC_CheckEsp
$L194687:
  000f9	8b f4		 mov	 esi, esp
  000fb	8d 8d 18 ff ff
	ff		 lea	 ecx, DWORD PTR $T194659[ebp]
  00101	ff 15 00 00 00
	00		 call	 DWORD PTR __imp_??1?$basic_string@DU?$char_traits@D@std@@V?$allocator@D@2@@std@@QAE@XZ
  00107	3b f4		 cmp	 esi, esp
  00109	e9 00 00 00 00	 jmp	 __RTC_CheckEsp
$L194688:
  0010e	8b f4		 mov	 esi, esp
  00110	8d 8d f4 fe ff
	ff		 lea	 ecx, DWORD PTR $T194666[ebp]
  00116	ff 15 00 00 00
	00		 call	 DWORD PTR __imp_??1?$CStringT@DV?$StrTraitMFC_DLL@DV?$ChTraitsCRT@D@ATL@@@@@ATL@@QAE@XZ
  0011c	3b f4		 cmp	 esi, esp
  0011e	e9 00 00 00 00	 jmp	 __RTC_CheckEsp
$L194689:
  00123	8b f4		 mov	 esi, esp
  00125	8d 8d f0 fe ff
	ff		 lea	 ecx, DWORD PTR $T194667[ebp]
  0012b	ff 15 00 00 00
	00		 call	 DWORD PTR __imp_??1?$CStringT@DV?$StrTraitMFC_DLL@DV?$ChTraitsCRT@D@ATL@@@@@ATL@@QAE@XZ
  00131	3b f4		 cmp	 esi, esp
  00133	e9 00 00 00 00	 jmp	 __RTC_CheckEsp
$L194690:
  00138	8b f4		 mov	 esi, esp
  0013a	8d 8d ec fe ff
	ff		 lea	 ecx, DWORD PTR $T194668[ebp]
  00140	ff 15 00 00 00
	00		 call	 DWORD PTR __imp_??1?$CStringT@DV?$StrTraitMFC_DLL@DV?$ChTraitsCRT@D@ATL@@@@@ATL@@QAE@XZ
  00146	3b f4		 cmp	 esi, esp
  00148	e9 00 00 00 00	 jmp	 __RTC_CheckEsp
$L194691:
  0014d	8b f4		 mov	 esi, esp
  0014f	8b 8d f8 fe ff
	ff		 mov	 ecx, DWORD PTR $T194665[ebp]
  00155	ff 15 00 00 00
	00		 call	 DWORD PTR __imp_??1?$CStringT@DV?$StrTraitMFC_DLL@DV?$ChTraitsCRT@D@ATL@@@@@ATL@@QAE@XZ
  0015b	3b f4		 cmp	 esi, esp
  0015d	e9 00 00 00 00	 jmp	 __RTC_CheckEsp
$L194692:
  00162	8b f4		 mov	 esi, esp
  00164	8d 8d e4 fe ff
	ff		 lea	 ecx, DWORD PTR $T194670[ebp]
  0016a	ff 15 00 00 00
	00		 call	 DWORD PTR __imp_??1?$CStringT@DV?$StrTraitMFC_DLL@DV?$ChTraitsCRT@D@ATL@@@@@ATL@@QAE@XZ
  00170	3b f4		 cmp	 esi, esp
  00172	e9 00 00 00 00	 jmp	 __RTC_CheckEsp
$L194693:
  00177	8b f4		 mov	 esi, esp
  00179	8d 8d e0 fe ff
	ff		 lea	 ecx, DWORD PTR $T194671[ebp]
  0017f	ff 15 00 00 00
	00		 call	 DWORD PTR __imp_??1?$CStringT@DV?$StrTraitMFC_DLL@DV?$ChTraitsCRT@D@ATL@@@@@ATL@@QAE@XZ
  00185	3b f4		 cmp	 esi, esp
  00187	e9 00 00 00 00	 jmp	 __RTC_CheckEsp
$L194694:
  0018c	8b f4		 mov	 esi, esp
  0018e	8d 8d dc fe ff
	ff		 lea	 ecx, DWORD PTR $T194672[ebp]
  00194	ff 15 00 00 00
	00		 call	 DWORD PTR __imp_??1?$CStringT@DV?$StrTraitMFC_DLL@DV?$ChTraitsCRT@D@ATL@@@@@ATL@@QAE@XZ
  0019a	3b f4		 cmp	 esi, esp
  0019c	e9 00 00 00 00	 jmp	 __RTC_CheckEsp
$L194695:
  001a1	8b f4		 mov	 esi, esp
  001a3	8b 8d e8 fe ff
	ff		 mov	 ecx, DWORD PTR $T194669[ebp]
  001a9	ff 15 00 00 00
	00		 call	 DWORD PTR __imp_??1?$CStringT@DV?$StrTraitMFC_DLL@DV?$ChTraitsCRT@D@ATL@@@@@ATL@@QAE@XZ
  001af	3b f4		 cmp	 esi, esp
  001b1	e9 00 00 00 00	 jmp	 __RTC_CheckEsp
$L194696:
  001b6	8b f4		 mov	 esi, esp
  001b8	8d 8d d4 fe ff
	ff		 lea	 ecx, DWORD PTR $T194674[ebp]
  001be	ff 15 00 00 00
	00		 call	 DWORD PTR __imp_??1?$CStringT@DV?$StrTraitMFC_DLL@DV?$ChTraitsCRT@D@ATL@@@@@ATL@@QAE@XZ
  001c4	3b f4		 cmp	 esi, esp
  001c6	e9 00 00 00 00	 jmp	 __RTC_CheckEsp
$L194697:
  001cb	8b f4		 mov	 esi, esp
  001cd	8d 8d d0 fe ff
	ff		 lea	 ecx, DWORD PTR $T194675[ebp]
  001d3	ff 15 00 00 00
	00		 call	 DWORD PTR __imp_??1?$CStringT@DV?$StrTraitMFC_DLL@DV?$ChTraitsCRT@D@ATL@@@@@ATL@@QAE@XZ
  001d9	3b f4		 cmp	 esi, esp
  001db	e9 00 00 00 00	 jmp	 __RTC_CheckEsp
$L194698:
  001e0	8b f4		 mov	 esi, esp
  001e2	8d 8d cc fe ff
	ff		 lea	 ecx, DWORD PTR $T194676[ebp]
  001e8	ff 15 00 00 00
	00		 call	 DWORD PTR __imp_??1?$CStringT@DV?$StrTraitMFC_DLL@DV?$ChTraitsCRT@D@ATL@@@@@ATL@@QAE@XZ
  001ee	3b f4		 cmp	 esi, esp
  001f0	e9 00 00 00 00	 jmp	 __RTC_CheckEsp
$L194699:
  001f5	8b f4		 mov	 esi, esp
  001f7	8b 8d d8 fe ff
	ff		 mov	 ecx, DWORD PTR $T194673[ebp]
  001fd	ff 15 00 00 00
	00		 call	 DWORD PTR __imp_??1?$CStringT@DV?$StrTraitMFC_DLL@DV?$ChTraitsCRT@D@ATL@@@@@ATL@@QAE@XZ
  00203	3b f4		 cmp	 esi, esp
  00205	e9 00 00 00 00	 jmp	 __RTC_CheckEsp
$L194700:
  0020a	8b f4		 mov	 esi, esp
  0020c	8d 8d b4 fe ff
	ff		 lea	 ecx, DWORD PTR $T194679[ebp]
  00212	ff 15 00 00 00
	00		 call	 DWORD PTR __imp_??1?$CStringT@DV?$StrTraitMFC_DLL@DV?$ChTraitsCRT@D@ATL@@@@@ATL@@QAE@XZ
  00218	3b f4		 cmp	 esi, esp
  0021a	e9 00 00 00 00	 jmp	 __RTC_CheckEsp
__ehhandler$?CreateSubBtn@CSubjectChildWnd@@AAEXXZ:
  0021f	b8 00 00 00 00	 mov	 eax, OFFSET FLAT:$T194702
  00224	e9 00 00 00 00	 jmp	 ___CxxFrameHandler
text$x	ENDS
?CreateSubBtn@CSubjectChildWnd@@AAEXXZ ENDP		; CSubjectChildWnd::CreateSubBtn
; Function compile flags: /Odt /RTCsu
; File d:\boxgit\playbox\playbox\dev\prj\playbox\src\layoutmgr\changecolor\skinbotton.h
;	COMDAT ?SetErase@CSkinButton@@QAEX_N@Z
_TEXT	SEGMENT
_this$ = -4						; size = 4
_bErase$ = 8						; size = 1
?SetErase@CSkinButton@@QAEX_N@Z PROC NEAR		; CSkinButton::SetErase, COMDAT
; _this$ = ecx

; 101  : 	void SetErase(bool bErase){m_bEraseBK =bErase;}

  00000	55		 push	 ebp
  00001	8b ec		 mov	 ebp, esp
  00003	51		 push	 ecx
  00004	c7 45 fc cc cc
	cc cc		 mov	 DWORD PTR [ebp-4], -858993460 ; ccccccccH
  0000b	89 4d fc	 mov	 DWORD PTR _this$[ebp], ecx
  0000e	8b 45 fc	 mov	 eax, DWORD PTR _this$[ebp]
  00011	8a 4d 08	 mov	 cl, BYTE PTR _bErase$[ebp]
  00014	88 48 54	 mov	 BYTE PTR [eax+84], cl
  00017	8b e5		 mov	 esp, ebp
  00019	5d		 pop	 ebp
  0001a	c2 04 00	 ret	 4
?SetErase@CSkinButton@@QAEX_N@Z ENDP			; CSkinButton::SetErase
_TEXT	ENDS
EXTRN	__imp_??0?$CStringT@DV?$StrTraitMFC_DLL@DV?$ChTraitsCRT@D@ATL@@@@@ATL@@QAE@ABV01@@Z:NEAR
; Function compile flags: /Odt /RTCsu
;	COMDAT ?GetText@CSkinButton@@QBE?AV?$CStringT@DV?$StrTraitMFC_DLL@DV?$ChTraitsCRT@D@ATL@@@@@ATL@@XZ
_TEXT	SEGMENT
$T194715 = -8						; size = 4
_this$ = -4						; size = 4
___$ReturnUdt$ = 8					; size = 4
?GetText@CSkinButton@@QBE?AV?$CStringT@DV?$StrTraitMFC_DLL@DV?$ChTraitsCRT@D@ATL@@@@@ATL@@XZ PROC NEAR ; CSkinButton::GetText, COMDAT
; _this$ = ecx

; 110  : 	CString GetText()const { return m_string; }

  00000	55		 push	 ebp
  00001	8b ec		 mov	 ebp, esp
  00003	83 ec 08	 sub	 esp, 8
  00006	56		 push	 esi
  00007	c7 45 f8 cc cc
	cc cc		 mov	 DWORD PTR [ebp-8], -858993460 ; ccccccccH
  0000e	c7 45 fc cc cc
	cc cc		 mov	 DWORD PTR [ebp-4], -858993460 ; ccccccccH
  00015	89 4d fc	 mov	 DWORD PTR _this$[ebp], ecx
  00018	c7 45 f8 00 00
	00 00		 mov	 DWORD PTR $T194715[ebp], 0
  0001f	8b 45 fc	 mov	 eax, DWORD PTR _this$[ebp]
  00022	05 18 01 00 00	 add	 eax, 280		; 00000118H
  00027	8b f4		 mov	 esi, esp
  00029	50		 push	 eax
  0002a	8b 4d 08	 mov	 ecx, DWORD PTR ___$ReturnUdt$[ebp]
  0002d	ff 15 00 00 00
	00		 call	 DWORD PTR __imp_??0?$CStringT@DV?$StrTraitMFC_DLL@DV?$ChTraitsCRT@D@ATL@@@@@ATL@@QAE@ABV01@@Z
  00033	3b f4		 cmp	 esi, esp
  00035	e8 00 00 00 00	 call	 __RTC_CheckEsp
  0003a	8b 4d f8	 mov	 ecx, DWORD PTR $T194715[ebp]
  0003d	83 c9 01	 or	 ecx, 1
  00040	89 4d f8	 mov	 DWORD PTR $T194715[ebp], ecx
  00043	8b 45 08	 mov	 eax, DWORD PTR ___$ReturnUdt$[ebp]
  00046	5e		 pop	 esi
  00047	83 c4 08	 add	 esp, 8
  0004a	3b ec		 cmp	 ebp, esp
  0004c	e8 00 00 00 00	 call	 __RTC_CheckEsp
  00051	8b e5		 mov	 esp, ebp
  00053	5d		 pop	 ebp
  00054	c2 04 00	 ret	 4
?GetText@CSkinButton@@QBE?AV?$CStringT@DV?$StrTraitMFC_DLL@DV?$ChTraitsCRT@D@ATL@@@@@ATL@@XZ ENDP ; CSkinButton::GetText
; Function compile flags: /Odt /RTCsu
_TEXT	ENDS
;	COMDAT ?GetBitmapEx@CSkinButton@@QBEPAVCBitmap@@XZ
_TEXT	SEGMENT
_this$ = -4						; size = 4
?GetBitmapEx@CSkinButton@@QBEPAVCBitmap@@XZ PROC NEAR	; CSkinButton::GetBitmapEx, COMDAT
; _this$ = ecx

; 112  : 	CBitmap* GetBitmapEx()const { return m_BitMap;}

  00000	55		 push	 ebp
  00001	8b ec		 mov	 ebp, esp
  00003	51		 push	 ecx
  00004	c7 45 fc cc cc
	cc cc		 mov	 DWORD PTR [ebp-4], -858993460 ; ccccccccH
  0000b	89 4d fc	 mov	 DWORD PTR _this$[ebp], ecx
  0000e	8b 45 fc	 mov	 eax, DWORD PTR _this$[ebp]
  00011	8b 40 6c	 mov	 eax, DWORD PTR [eax+108]
  00014	8b e5		 mov	 esp, ebp
  00016	5d		 pop	 ebp
  00017	c3		 ret	 0
?GetBitmapEx@CSkinButton@@QBEPAVCBitmap@@XZ ENDP	; CSkinButton::GetBitmapEx
; Function compile flags: /Odt /RTCsu
_TEXT	ENDS
;	COMDAT ?SetListener@CSkinButton@@QAEXPAVIEventListener@@@Z
_TEXT	SEGMENT
_this$ = -4						; size = 4
_apListtener$ = 8					; size = 4
?SetListener@CSkinButton@@QAEXPAVIEventListener@@@Z PROC NEAR ; CSkinButton::SetListener, COMDAT
; _this$ = ecx

; 114  : 	void SetListener( IEventListener* apListtener ){ m_pbtnEventListerner = apListtener;}	

  00000	55		 push	 ebp
  00001	8b ec		 mov	 ebp, esp
  00003	51		 push	 ecx
  00004	c7 45 fc cc cc
	cc cc		 mov	 DWORD PTR [ebp-4], -858993460 ; ccccccccH
  0000b	89 4d fc	 mov	 DWORD PTR _this$[ebp], ecx
  0000e	8b 45 fc	 mov	 eax, DWORD PTR _this$[ebp]
  00011	8b 4d 08	 mov	 ecx, DWORD PTR _apListtener$[ebp]
  00014	89 88 2c 01 00
	00		 mov	 DWORD PTR [eax+300], ecx
  0001a	8b e5		 mov	 esp, ebp
  0001c	5d		 pop	 ebp
  0001d	c2 04 00	 ret	 4
?SetListener@CSkinButton@@QAEXPAVIEventListener@@@Z ENDP ; CSkinButton::SetListener
; Function compile flags: /Odt /RTCsu
_TEXT	ENDS
;	COMDAT ?SetSelected@CSkinButton@@QAEX_N@Z
_TEXT	SEGMENT
_this$ = -4						; size = 4
_bSelect$ = 8						; size = 1
?SetSelected@CSkinButton@@QAEX_N@Z PROC NEAR		; CSkinButton::SetSelected, COMDAT
; _this$ = ecx

; 115  : 	void SetSelected(bool bSelect){m_bSelected = bSelect;}

  00000	55		 push	 ebp
  00001	8b ec		 mov	 ebp, esp
  00003	51		 push	 ecx
  00004	c7 45 fc cc cc
	cc cc		 mov	 DWORD PTR [ebp-4], -858993460 ; ccccccccH
  0000b	89 4d fc	 mov	 DWORD PTR _this$[ebp], ecx
  0000e	8b 45 fc	 mov	 eax, DWORD PTR _this$[ebp]
  00011	8a 4d 08	 mov	 cl, BYTE PTR _bSelect$[ebp]
  00014	88 88 f0 00 00
	00		 mov	 BYTE PTR [eax+240], cl
  0001a	8b e5		 mov	 esp, ebp
  0001c	5d		 pop	 ebp
  0001d	c2 04 00	 ret	 4
?SetSelected@CSkinButton@@QAEX_N@Z ENDP			; CSkinButton::SetSelected
_TEXT	ENDS
PUBLIC	?size@?$list@PAVCSubLabel@@V?$allocator@PAVCSubLabel@@@std@@@std@@QBEIXZ ; std::list<CSubLabel *,std::allocator<CSubLabel *> >::size
EXTRN	?MoveWindow@CWnd@@QAEXPBUtagRECT@@H@Z:NEAR	; CWnd::MoveWindow
; Function compile flags: /Odt /RTCsu
; File d:\boxgit\playbox\playbox\dev\prj\playbox\src\layoutmgr\changecolor\subjectchildwnd.cpp
_TEXT	SEGMENT
$T194724 = -172						; size = 4
$T194723 = -168						; size = 4
$T194722 = -164						; size = 4
$T194721 = -160						; size = 4
_labelrc$192137 = -152					; size = 16
_btnrc$192131 = -128					; size = 16
_irow_inter$ = -108					; size = 4
_irow_count$ = -104					; size = 4
_count$ = -100						; size = 4
_lnIndex$ = -96						; size = 4
_Labeliter$ = -88					; size = 4
_SubBtniter$ = -76					; size = 4
_lBitMap$192116 = -64					; size = 24
_lnBmpHight$ = -36					; size = 4
_lnBmpWidth$ = -32					; size = 4
_lrectClient$ = -24					; size = 16
_this$ = -4						; size = 4
?MoveSubjectBtn@CSubjectChildWnd@@IAEXXZ PROC NEAR	; CSubjectChildWnd::MoveSubjectBtn
; _this$ = ecx

; 107  : {

  00dc0	55		 push	 ebp
  00dc1	8b ec		 mov	 ebp, esp
  00dc3	81 ec ac 00 00
	00		 sub	 esp, 172		; 000000acH
  00dc9	57		 push	 edi
  00dca	51		 push	 ecx
  00dcb	8d bd 54 ff ff
	ff		 lea	 edi, DWORD PTR [ebp-172]
  00dd1	b9 2b 00 00 00	 mov	 ecx, 43			; 0000002bH
  00dd6	b8 cc cc cc cc	 mov	 eax, -858993460		; ccccccccH
  00ddb	f3 ab		 rep stosd
  00ddd	59		 pop	 ecx
  00dde	89 4d fc	 mov	 DWORD PTR _this$[ebp], ecx

; 108  : 	CRect lrectClient;

  00de1	8d 4d e8	 lea	 ecx, DWORD PTR _lrectClient$[ebp]
  00de4	e8 00 00 00 00	 call	 ??0CRect@@QAE@XZ	; CRect::CRect

; 109  : 	GetClientRect(&lrectClient);

  00de9	8d 45 e8	 lea	 eax, DWORD PTR _lrectClient$[ebp]
  00dec	50		 push	 eax
  00ded	8b 4d fc	 mov	 ecx, DWORD PTR _this$[ebp]
  00df0	e8 00 00 00 00	 call	 ?GetClientRect@CWnd@@QBEXPAUtagRECT@@@Z ; CWnd::GetClientRect

; 110  : 
; 111  : 	UINT lnBmpWidth = 0;

  00df5	c7 45 e0 00 00
	00 00		 mov	 DWORD PTR _lnBmpWidth$[ebp], 0

; 112  : 	UINT lnBmpHight = 0;

  00dfc	c7 45 dc 00 00
	00 00		 mov	 DWORD PTR _lnBmpHight$[ebp], 0

; 113  : 	m_colBtnList_itor = m_colBtnList.begin() ;

  00e03	8d 8d 60 ff ff
	ff		 lea	 ecx, DWORD PTR $T194721[ebp]
  00e09	51		 push	 ecx
  00e0a	8b 4d fc	 mov	 ecx, DWORD PTR _this$[ebp]
  00e0d	81 c1 c0 02 00
	00		 add	 ecx, 704		; 000002c0H
  00e13	e8 00 00 00 00	 call	 ?begin@?$list@PAVCSkinButton@@V?$allocator@PAVCSkinButton@@@std@@@std@@QAE?AViterator@12@XZ ; std::list<CSkinButton *,std::allocator<CSkinButton *> >::begin
  00e18	8b 10		 mov	 edx, DWORD PTR [eax]
  00e1a	8b 45 fc	 mov	 eax, DWORD PTR _this$[ebp]
  00e1d	89 90 cc 02 00
	00		 mov	 DWORD PTR [eax+716], edx

; 114  : 	if( (0 != (int)( m_colBtnList.size())  ) && (NULL != (*m_colBtnList_itor)->GetBitmapEx()) ) 

  00e23	8b 4d fc	 mov	 ecx, DWORD PTR _this$[ebp]
  00e26	81 c1 c0 02 00
	00		 add	 ecx, 704		; 000002c0H
  00e2c	e8 00 00 00 00	 call	 ?size@?$list@PAVCSkinButton@@V?$allocator@PAVCSkinButton@@@std@@@std@@QBEIXZ ; std::list<CSkinButton *,std::allocator<CSkinButton *> >::size
  00e31	85 c0		 test	 eax, eax
  00e33	74 48		 je	 SHORT $L192115
  00e35	8b 4d fc	 mov	 ecx, DWORD PTR _this$[ebp]
  00e38	81 c1 cc 02 00
	00		 add	 ecx, 716		; 000002ccH
  00e3e	e8 00 00 00 00	 call	 ??Diterator@?$list@PAVCSkinButton@@V?$allocator@PAVCSkinButton@@@std@@@std@@QBEAAPAVCSkinButton@@XZ ; std::list<CSkinButton *,std::allocator<CSkinButton *> >::iterator::operator*
  00e43	8b 08		 mov	 ecx, DWORD PTR [eax]
  00e45	e8 00 00 00 00	 call	 ?GetBitmapEx@CSkinButton@@QBEPAVCBitmap@@XZ ; CSkinButton::GetBitmapEx
  00e4a	85 c0		 test	 eax, eax
  00e4c	74 2f		 je	 SHORT $L192115

; 115  : 	{
; 116  : 		BITMAP   lBitMap;
; 117  : 		(*m_colBtnList_itor)->GetBitmapEx()->GetBitmap( &lBitMap );

  00e4e	8d 4d c0	 lea	 ecx, DWORD PTR _lBitMap$192116[ebp]
  00e51	51		 push	 ecx
  00e52	8b 4d fc	 mov	 ecx, DWORD PTR _this$[ebp]
  00e55	81 c1 cc 02 00
	00		 add	 ecx, 716		; 000002ccH
  00e5b	e8 00 00 00 00	 call	 ??Diterator@?$list@PAVCSkinButton@@V?$allocator@PAVCSkinButton@@@std@@@std@@QBEAAPAVCSkinButton@@XZ ; std::list<CSkinButton *,std::allocator<CSkinButton *> >::iterator::operator*
  00e60	8b 08		 mov	 ecx, DWORD PTR [eax]
  00e62	e8 00 00 00 00	 call	 ?GetBitmapEx@CSkinButton@@QBEPAVCBitmap@@XZ ; CSkinButton::GetBitmapEx
  00e67	8b c8		 mov	 ecx, eax
  00e69	e8 00 00 00 00	 call	 ?GetBitmap@CBitmap@@QAEHPAUtagBITMAP@@@Z ; CBitmap::GetBitmap

; 118  : 		lnBmpWidth = lBitMap.bmWidth+8;

  00e6e	8b 55 c4	 mov	 edx, DWORD PTR _lBitMap$192116[ebp+4]
  00e71	83 c2 08	 add	 edx, 8
  00e74	89 55 e0	 mov	 DWORD PTR _lnBmpWidth$[ebp], edx

; 119  : 		lnBmpHight = lBitMap.bmHeight;

  00e77	8b 45 c8	 mov	 eax, DWORD PTR _lBitMap$192116[ebp+8]
  00e7a	89 45 dc	 mov	 DWORD PTR _lnBmpHight$[ebp], eax
$L192115:

; 120  : 	}
; 121  : 	list<CSkinButton *>::iterator SubBtniter = m_colBtnList.begin();

  00e7d	8d 4d b4	 lea	 ecx, DWORD PTR _SubBtniter$[ebp]
  00e80	51		 push	 ecx
  00e81	8b 4d fc	 mov	 ecx, DWORD PTR _this$[ebp]
  00e84	81 c1 c0 02 00
	00		 add	 ecx, 704		; 000002c0H
  00e8a	e8 00 00 00 00	 call	 ?begin@?$list@PAVCSkinButton@@V?$allocator@PAVCSkinButton@@@std@@@std@@QAE?AViterator@12@XZ ; std::list<CSkinButton *,std::allocator<CSkinButton *> >::begin

; 122  : 	list<CSubLabel *>::iterator Labeliter = m_SubLabelList.begin();

  00e8f	8d 55 a8	 lea	 edx, DWORD PTR _Labeliter$[ebp]
  00e92	52		 push	 edx
  00e93	8b 4d fc	 mov	 ecx, DWORD PTR _this$[ebp]
  00e96	81 c1 d4 02 00
	00		 add	 ecx, 724		; 000002d4H
  00e9c	e8 00 00 00 00	 call	 ?begin@?$list@PAVCSubLabel@@V?$allocator@PAVCSubLabel@@@std@@@std@@QAE?AViterator@12@XZ ; std::list<CSubLabel *,std::allocator<CSubLabel *> >::begin

; 123  : 	int lnIndex =  0;

  00ea1	c7 45 a0 00 00
	00 00		 mov	 DWORD PTR _lnIndex$[ebp], 0

; 124  : 	int count = m_SubLabelList.size();

  00ea8	8b 4d fc	 mov	 ecx, DWORD PTR _this$[ebp]
  00eab	81 c1 d4 02 00
	00		 add	 ecx, 724		; 000002d4H
  00eb1	e8 00 00 00 00	 call	 ?size@?$list@PAVCSubLabel@@V?$allocator@PAVCSubLabel@@@std@@@std@@QBEIXZ ; std::list<CSubLabel *,std::allocator<CSubLabel *> >::size
  00eb6	89 45 9c	 mov	 DWORD PTR _count$[ebp], eax

; 125  : 
; 126  : 	int irow_count,irow_inter;
; 127  : 	irow_count = ROW_COUNT;

  00eb9	c7 45 98 04 00
	00 00		 mov	 DWORD PTR _irow_count$[ebp], 4

; 128  : 	irow_inter = 0;

  00ec0	c7 45 94 00 00
	00 00		 mov	 DWORD PTR _irow_inter$[ebp], 0
$L192128:

; 129  : 
; 130  : 	while (SubBtniter != m_colBtnList.end())

  00ec7	8d 85 5c ff ff
	ff		 lea	 eax, DWORD PTR $T194722[ebp]
  00ecd	50		 push	 eax
  00ece	8b 4d fc	 mov	 ecx, DWORD PTR _this$[ebp]
  00ed1	81 c1 c0 02 00
	00		 add	 ecx, 704		; 000002c0H
  00ed7	e8 00 00 00 00	 call	 ?end@?$list@PAVCSkinButton@@V?$allocator@PAVCSkinButton@@@std@@@std@@QAE?AViterator@12@XZ ; std::list<CSkinButton *,std::allocator<CSkinButton *> >::end
  00edc	50		 push	 eax
  00edd	8d 4d b4	 lea	 ecx, DWORD PTR _SubBtniter$[ebp]
  00ee0	e8 00 00 00 00	 call	 ??9const_iterator@?$list@PAVCSkinButton@@V?$allocator@PAVCSkinButton@@@std@@@std@@QBE_NABV012@@Z ; std::list<CSkinButton *,std::allocator<CSkinButton *> >::const_iterator::operator!=
  00ee5	0f b6 c8	 movzx	 ecx, al
  00ee8	85 c9		 test	 ecx, ecx
  00eea	0f 84 82 01 00
	00		 je	 $L192109

; 131  : 	{
; 132  : 
; 133  : 		CRect btnrc = CRect(
; 134  : 			lrectClient.left + LIFT_SPACE + (lnIndex%irow_count)*(lnBmpWidth), 
; 135  : 			lrectClient.top  + TOP_SPACE + (int)(lnIndex/irow_count)*(lnBmpHight+2*TOP_SPACE) + (int)(lnIndex/irow_count)*INTER - miScrollPos,
; 136  : 			lrectClient.left + LIFT_SPACE+lnBmpWidth + (lnIndex%irow_count)*(lnBmpWidth) + irow_inter, 
; 137  : 			lrectClient.top  + 2*TOP_SPACE + lnBmpHight+(int)(lnIndex/irow_count)*(lnBmpHight+2*TOP_SPACE)+ (int)(lnIndex/irow_count)*INTER - miScrollPos
; 138  : 			);

  00ef0	8b 55 dc	 mov	 edx, DWORD PTR _lnBmpHight$[ebp]
  00ef3	8b 45 ec	 mov	 eax, DWORD PTR _lrectClient$[ebp+4]
  00ef6	8d 4c 10 06	 lea	 ecx, DWORD PTR [eax+edx+6]
  00efa	8b 45 a0	 mov	 eax, DWORD PTR _lnIndex$[ebp]
  00efd	99		 cdq
  00efe	f7 7d 98	 idiv	 DWORD PTR _irow_count$[ebp]
  00f01	8b 55 dc	 mov	 edx, DWORD PTR _lnBmpHight$[ebp]
  00f04	83 c2 06	 add	 edx, 6
  00f07	0f af c2	 imul	 eax, edx
  00f0a	03 c8		 add	 ecx, eax
  00f0c	8b 45 a0	 mov	 eax, DWORD PTR _lnIndex$[ebp]
  00f0f	99		 cdq
  00f10	f7 7d 98	 idiv	 DWORD PTR _irow_count$[ebp]
  00f13	6b c0 11	 imul	 eax, 17			; 00000011H
  00f16	03 c8		 add	 ecx, eax
  00f18	8b 45 fc	 mov	 eax, DWORD PTR _this$[ebp]
  00f1b	2b 88 d8 00 00
	00		 sub	 ecx, DWORD PTR [eax+216]
  00f21	51		 push	 ecx
  00f22	8b 4d e8	 mov	 ecx, DWORD PTR _lrectClient$[ebp]
  00f25	03 4d e0	 add	 ecx, DWORD PTR _lnBmpWidth$[ebp]
  00f28	8b 45 a0	 mov	 eax, DWORD PTR _lnIndex$[ebp]
  00f2b	99		 cdq
  00f2c	f7 7d 98	 idiv	 DWORD PTR _irow_count$[ebp]
  00f2f	0f af 55 e0	 imul	 edx, DWORD PTR _lnBmpWidth$[ebp]
  00f33	03 4d 94	 add	 ecx, DWORD PTR _irow_inter$[ebp]
  00f36	03 d1		 add	 edx, ecx
  00f38	52		 push	 edx
  00f39	8b 45 a0	 mov	 eax, DWORD PTR _lnIndex$[ebp]
  00f3c	99		 cdq
  00f3d	f7 7d 98	 idiv	 DWORD PTR _irow_count$[ebp]
  00f40	8b 55 dc	 mov	 edx, DWORD PTR _lnBmpHight$[ebp]
  00f43	83 c2 06	 add	 edx, 6
  00f46	0f af c2	 imul	 eax, edx
  00f49	8b 4d ec	 mov	 ecx, DWORD PTR _lrectClient$[ebp+4]
  00f4c	8d 4c 01 03	 lea	 ecx, DWORD PTR [ecx+eax+3]
  00f50	8b 45 a0	 mov	 eax, DWORD PTR _lnIndex$[ebp]
  00f53	99		 cdq
  00f54	f7 7d 98	 idiv	 DWORD PTR _irow_count$[ebp]
  00f57	6b c0 11	 imul	 eax, 17			; 00000011H
  00f5a	03 c8		 add	 ecx, eax
  00f5c	8b 55 fc	 mov	 edx, DWORD PTR _this$[ebp]
  00f5f	2b 8a d8 00 00
	00		 sub	 ecx, DWORD PTR [edx+216]
  00f65	51		 push	 ecx
  00f66	8b 45 a0	 mov	 eax, DWORD PTR _lnIndex$[ebp]
  00f69	99		 cdq
  00f6a	f7 7d 98	 idiv	 DWORD PTR _irow_count$[ebp]
  00f6d	0f af 55 e0	 imul	 edx, DWORD PTR _lnBmpWidth$[ebp]
  00f71	03 55 e8	 add	 edx, DWORD PTR _lrectClient$[ebp]
  00f74	52		 push	 edx
  00f75	8d 4d 80	 lea	 ecx, DWORD PTR _btnrc$192131[ebp]
  00f78	e8 00 00 00 00	 call	 ??0CRect@@QAE@HHHH@Z	; CRect::CRect

; 139  : 		(*SubBtniter)->MoveWindow(&btnrc);

  00f7d	6a 01		 push	 1
  00f7f	8d 45 80	 lea	 eax, DWORD PTR _btnrc$192131[ebp]
  00f82	50		 push	 eax
  00f83	8d 4d b4	 lea	 ecx, DWORD PTR _SubBtniter$[ebp]
  00f86	e8 00 00 00 00	 call	 ??Diterator@?$list@PAVCSkinButton@@V?$allocator@PAVCSkinButton@@@std@@@std@@QBEAAPAVCSkinButton@@XZ ; std::list<CSkinButton *,std::allocator<CSkinButton *> >::iterator::operator*
  00f8b	8b 08		 mov	 ecx, DWORD PTR [eax]
  00f8d	e8 00 00 00 00	 call	 ?MoveWindow@CWnd@@QAEXPBUtagRECT@@H@Z ; CWnd::MoveWindow

; 140  : 
; 141  : 		CRect labelrc = CRect(
; 142  : 			lrectClient.left + LIFT_SPACE + (lnIndex%irow_count)*(lnBmpWidth), 
; 143  : 			lrectClient.top  + 3*TOP_SPACE + lnBmpHight+(int)(lnIndex/irow_count)*(lnBmpHight+2*TOP_SPACE)+ (int)(lnIndex/irow_count)*INTER- miScrollPos,
; 144  : 			lrectClient.left + LIFT_SPACE+lnBmpWidth + (lnIndex%irow_count)*(lnBmpWidth) + irow_inter, 
; 145  : 			lrectClient.top  + 3*TOP_SPACE + lnBmpHight+(int)(lnIndex/irow_count)*(lnBmpHight+2*TOP_SPACE)+ (int)(lnIndex/irow_count + 1)*INTER- miScrollPos
; 146  : 			);

  00f92	8b 4d dc	 mov	 ecx, DWORD PTR _lnBmpHight$[ebp]
  00f95	8b 55 ec	 mov	 edx, DWORD PTR _lrectClient$[ebp+4]
  00f98	8d 4c 0a 09	 lea	 ecx, DWORD PTR [edx+ecx+9]
  00f9c	8b 45 a0	 mov	 eax, DWORD PTR _lnIndex$[ebp]
  00f9f	99		 cdq
  00fa0	f7 7d 98	 idiv	 DWORD PTR _irow_count$[ebp]
  00fa3	8b 55 dc	 mov	 edx, DWORD PTR _lnBmpHight$[ebp]
  00fa6	83 c2 06	 add	 edx, 6
  00fa9	0f af c2	 imul	 eax, edx
  00fac	03 c8		 add	 ecx, eax
  00fae	8b 45 a0	 mov	 eax, DWORD PTR _lnIndex$[ebp]
  00fb1	99		 cdq
  00fb2	f7 7d 98	 idiv	 DWORD PTR _irow_count$[ebp]
  00fb5	83 c0 01	 add	 eax, 1
  00fb8	6b c0 11	 imul	 eax, 17			; 00000011H
  00fbb	03 c8		 add	 ecx, eax
  00fbd	8b 45 fc	 mov	 eax, DWORD PTR _this$[ebp]
  00fc0	2b 88 d8 00 00
	00		 sub	 ecx, DWORD PTR [eax+216]
  00fc6	51		 push	 ecx
  00fc7	8b 4d e8	 mov	 ecx, DWORD PTR _lrectClient$[ebp]
  00fca	03 4d e0	 add	 ecx, DWORD PTR _lnBmpWidth$[ebp]
  00fcd	8b 45 a0	 mov	 eax, DWORD PTR _lnIndex$[ebp]
  00fd0	99		 cdq
  00fd1	f7 7d 98	 idiv	 DWORD PTR _irow_count$[ebp]
  00fd4	0f af 55 e0	 imul	 edx, DWORD PTR _lnBmpWidth$[ebp]
  00fd8	03 4d 94	 add	 ecx, DWORD PTR _irow_inter$[ebp]
  00fdb	03 d1		 add	 edx, ecx
  00fdd	52		 push	 edx
  00fde	8b 55 dc	 mov	 edx, DWORD PTR _lnBmpHight$[ebp]
  00fe1	8b 45 ec	 mov	 eax, DWORD PTR _lrectClient$[ebp+4]
  00fe4	8d 4c 10 09	 lea	 ecx, DWORD PTR [eax+edx+9]
  00fe8	8b 45 a0	 mov	 eax, DWORD PTR _lnIndex$[ebp]
  00feb	99		 cdq
  00fec	f7 7d 98	 idiv	 DWORD PTR _irow_count$[ebp]
  00fef	8b 55 dc	 mov	 edx, DWORD PTR _lnBmpHight$[ebp]
  00ff2	83 c2 06	 add	 edx, 6
  00ff5	0f af c2	 imul	 eax, edx
  00ff8	03 c8		 add	 ecx, eax
  00ffa	8b 45 a0	 mov	 eax, DWORD PTR _lnIndex$[ebp]
  00ffd	99		 cdq
  00ffe	f7 7d 98	 idiv	 DWORD PTR _irow_count$[ebp]
  01001	6b c0 11	 imul	 eax, 17			; 00000011H
  01004	03 c8		 add	 ecx, eax
  01006	8b 45 fc	 mov	 eax, DWORD PTR _this$[ebp]
  01009	2b 88 d8 00 00
	00		 sub	 ecx, DWORD PTR [eax+216]
  0100f	51		 push	 ecx
  01010	8b 45 a0	 mov	 eax, DWORD PTR _lnIndex$[ebp]
  01013	99		 cdq
  01014	f7 7d 98	 idiv	 DWORD PTR _irow_count$[ebp]
  01017	0f af 55 e0	 imul	 edx, DWORD PTR _lnBmpWidth$[ebp]
  0101b	03 55 e8	 add	 edx, DWORD PTR _lrectClient$[ebp]
  0101e	52		 push	 edx
  0101f	8d 8d 68 ff ff
	ff		 lea	 ecx, DWORD PTR _labelrc$192137[ebp]
  01025	e8 00 00 00 00	 call	 ??0CRect@@QAE@HHHH@Z	; CRect::CRect

; 147  : 		(*Labeliter)->MoveWindow(&labelrc);

  0102a	6a 01		 push	 1
  0102c	8d 8d 68 ff ff
	ff		 lea	 ecx, DWORD PTR _labelrc$192137[ebp]
  01032	51		 push	 ecx
  01033	8d 4d a8	 lea	 ecx, DWORD PTR _Labeliter$[ebp]
  01036	e8 00 00 00 00	 call	 ??Diterator@?$list@PAVCSubLabel@@V?$allocator@PAVCSubLabel@@@std@@@std@@QBEAAPAVCSubLabel@@XZ ; std::list<CSubLabel *,std::allocator<CSubLabel *> >::iterator::operator*
  0103b	8b 08		 mov	 ecx, DWORD PTR [eax]
  0103d	e8 00 00 00 00	 call	 ?MoveWindow@CWnd@@QAEXPBUtagRECT@@H@Z ; CWnd::MoveWindow

; 148  : 		SubBtniter++;

  01042	6a 00		 push	 0
  01044	8d 95 58 ff ff
	ff		 lea	 edx, DWORD PTR $T194723[ebp]
  0104a	52		 push	 edx
  0104b	8d 4d b4	 lea	 ecx, DWORD PTR _SubBtniter$[ebp]
  0104e	e8 00 00 00 00	 call	 ??Eiterator@?$list@PAVCSkinButton@@V?$allocator@PAVCSkinButton@@@std@@@std@@QAE?AV012@H@Z ; std::list<CSkinButton *,std::allocator<CSkinButton *> >::iterator::operator++

; 149  : 		Labeliter++;

  01053	6a 00		 push	 0
  01055	8d 85 54 ff ff
	ff		 lea	 eax, DWORD PTR $T194724[ebp]
  0105b	50		 push	 eax
  0105c	8d 4d a8	 lea	 ecx, DWORD PTR _Labeliter$[ebp]
  0105f	e8 00 00 00 00	 call	 ??Eiterator@?$list@PAVCSubLabel@@V?$allocator@PAVCSubLabel@@@std@@@std@@QAE?AV012@H@Z ; std::list<CSubLabel *,std::allocator<CSubLabel *> >::iterator::operator++

; 150  : 		lnIndex++;

  01064	8b 4d a0	 mov	 ecx, DWORD PTR _lnIndex$[ebp]
  01067	83 c1 01	 add	 ecx, 1
  0106a	89 4d a0	 mov	 DWORD PTR _lnIndex$[ebp], ecx

; 151  : 	}

  0106d	e9 55 fe ff ff	 jmp	 $L192128
$L192109:

; 152  : }

  01072	52		 push	 edx
  01073	8b cd		 mov	 ecx, ebp
  01075	50		 push	 eax
  01076	8d 15 00 00 00
	00		 lea	 edx, DWORD PTR $L194732
  0107c	e8 00 00 00 00	 call	 @_RTC_CheckStackVars@8
  01081	58		 pop	 eax
  01082	5a		 pop	 edx
  01083	5f		 pop	 edi
  01084	81 c4 ac 00 00
	00		 add	 esp, 172		; 000000acH
  0108a	3b ec		 cmp	 ebp, esp
  0108c	e8 00 00 00 00	 call	 __RTC_CheckEsp
  01091	8b e5		 mov	 esp, ebp
  01093	5d		 pop	 ebp
  01094	c3		 ret	 0
$L194732:
  01095	06 00 00 00	 DD	 6
  01099	00 00 00 00	 DD	 $L194731
$L194731:
  0109d	e8 ff ff ff	 DD	 -24			; ffffffe8H
  010a1	10 00 00 00	 DD	 16			; 00000010H
  010a5	00 00 00 00	 DD	 $L194725
  010a9	c0 ff ff ff	 DD	 -64			; ffffffc0H
  010ad	18 00 00 00	 DD	 24			; 00000018H
  010b1	00 00 00 00	 DD	 $L194726
  010b5	b4 ff ff ff	 DD	 -76			; ffffffb4H
  010b9	04 00 00 00	 DD	 4
  010bd	00 00 00 00	 DD	 $L194727
  010c1	a8 ff ff ff	 DD	 -88			; ffffffa8H
  010c5	04 00 00 00	 DD	 4
  010c9	00 00 00 00	 DD	 $L194728
  010cd	80 ff ff ff	 DD	 -128			; ffffff80H
  010d1	10 00 00 00	 DD	 16			; 00000010H
  010d5	00 00 00 00	 DD	 $L194729
  010d9	68 ff ff ff	 DD	 -152			; ffffff68H
  010dd	10 00 00 00	 DD	 16			; 00000010H
  010e1	00 00 00 00	 DD	 $L194730
$L194730:
  010e5	6c		 DB	 108			; 0000006cH
  010e6	61		 DB	 97			; 00000061H
  010e7	62		 DB	 98			; 00000062H
  010e8	65		 DB	 101			; 00000065H
  010e9	6c		 DB	 108			; 0000006cH
  010ea	72		 DB	 114			; 00000072H
  010eb	63		 DB	 99			; 00000063H
  010ec	00		 DB	 0
$L194729:
  010ed	62		 DB	 98			; 00000062H
  010ee	74		 DB	 116			; 00000074H
  010ef	6e		 DB	 110			; 0000006eH
  010f0	72		 DB	 114			; 00000072H
  010f1	63		 DB	 99			; 00000063H
  010f2	00		 DB	 0
$L194728:
  010f3	4c		 DB	 76			; 0000004cH
  010f4	61		 DB	 97			; 00000061H
  010f5	62		 DB	 98			; 00000062H
  010f6	65		 DB	 101			; 00000065H
  010f7	6c		 DB	 108			; 0000006cH
  010f8	69		 DB	 105			; 00000069H
  010f9	74		 DB	 116			; 00000074H
  010fa	65		 DB	 101			; 00000065H
  010fb	72		 DB	 114			; 00000072H
  010fc	00		 DB	 0
$L194727:
  010fd	53		 DB	 83			; 00000053H
  010fe	75		 DB	 117			; 00000075H
  010ff	62		 DB	 98			; 00000062H
  01100	42		 DB	 66			; 00000042H
  01101	74		 DB	 116			; 00000074H
  01102	6e		 DB	 110			; 0000006eH
  01103	69		 DB	 105			; 00000069H
  01104	74		 DB	 116			; 00000074H
  01105	65		 DB	 101			; 00000065H
  01106	72		 DB	 114			; 00000072H
  01107	00		 DB	 0
$L194726:
  01108	6c		 DB	 108			; 0000006cH
  01109	42		 DB	 66			; 00000042H
  0110a	69		 DB	 105			; 00000069H
  0110b	74		 DB	 116			; 00000074H
  0110c	4d		 DB	 77			; 0000004dH
  0110d	61		 DB	 97			; 00000061H
  0110e	70		 DB	 112			; 00000070H
  0110f	00		 DB	 0
$L194725:
  01110	6c		 DB	 108			; 0000006cH
  01111	72		 DB	 114			; 00000072H
  01112	65		 DB	 101			; 00000065H
  01113	63		 DB	 99			; 00000063H
  01114	74		 DB	 116			; 00000074H
  01115	43		 DB	 67			; 00000043H
  01116	6c		 DB	 108			; 0000006cH
  01117	69		 DB	 105			; 00000069H
  01118	65		 DB	 101			; 00000065H
  01119	6e		 DB	 110			; 0000006eH
  0111a	74		 DB	 116			; 00000074H
  0111b	00		 DB	 0
?MoveSubjectBtn@CSubjectChildWnd@@IAEXXZ ENDP		; CSubjectChildWnd::MoveSubjectBtn
_TEXT	ENDS
PUBLIC	?IsSubExist@CSubjectChildWnd@@QAEHV?$basic_string@DU?$char_traits@D@std@@V?$allocator@D@2@@std@@@Z ; CSubjectChildWnd::IsSubExist
EXTRN	_strcmp:NEAR
xdata$x	SEGMENT
$T194748 DD	0ffffffffH
	DD	FLAT:$L194740
	DD	00H
	DD	FLAT:$L194741
$T194743 DD	019930520H
	DD	02H
	DD	FLAT:$T194748
	DD	2 DUP(00H)
	DD	2 DUP(00H)
; Function compile flags: /Odt /RTCsu
xdata$x	ENDS
_TEXT	SEGMENT
tv134 = -60						; size = 4
tv139 = -56						; size = 4
$T194739 = -52						; size = 4
$T194738 = -48						; size = 4
$T194737 = -44						; size = 4
$T194736 = -40						; size = 4
$T194735 = -33						; size = 1
$T194734 = -32						; size = 4
_SubBtniter$ = -24					; size = 4
_this$ = -16						; size = 4
__$EHRec$ = -12						; size = 12
_strName$ = 8						; size = 28
?IsSubExist@CSubjectChildWnd@@QAEHV?$basic_string@DU?$char_traits@D@std@@V?$allocator@D@2@@std@@@Z PROC NEAR ; CSubjectChildWnd::IsSubExist
; _this$ = ecx

; 155  : {

  01120	55		 push	 ebp
  01121	8b ec		 mov	 ebp, esp
  01123	6a ff		 push	 -1
  01125	68 00 00 00 00	 push	 __ehhandler$?IsSubExist@CSubjectChildWnd@@QAEHV?$basic_string@DU?$char_traits@D@std@@V?$allocator@D@2@@std@@@Z
  0112a	64 a1 00 00 00
	00		 mov	 eax, DWORD PTR fs:__except_list
  01130	50		 push	 eax
  01131	64 89 25 00 00
	00 00		 mov	 DWORD PTR fs:__except_list, esp
  01138	83 ec 30	 sub	 esp, 48			; 00000030H
  0113b	56		 push	 esi
  0113c	57		 push	 edi
  0113d	51		 push	 ecx
  0113e	8d 7d c4	 lea	 edi, DWORD PTR [ebp-60]
  01141	b9 0c 00 00 00	 mov	 ecx, 12			; 0000000cH
  01146	b8 cc cc cc cc	 mov	 eax, -858993460		; ccccccccH
  0114b	f3 ab		 rep stosd
  0114d	59		 pop	 ecx
  0114e	89 4d f0	 mov	 DWORD PTR _this$[ebp], ecx
  01151	c7 45 fc 00 00
	00 00		 mov	 DWORD PTR __$EHRec$[ebp+8], 0

; 156  : 	list<CSkinButton *>::iterator SubBtniter = m_colBtnList.begin();

  01158	8d 45 e8	 lea	 eax, DWORD PTR _SubBtniter$[ebp]
  0115b	50		 push	 eax
  0115c	8b 4d f0	 mov	 ecx, DWORD PTR _this$[ebp]
  0115f	81 c1 c0 02 00
	00		 add	 ecx, 704		; 000002c0H
  01165	e8 00 00 00 00	 call	 ?begin@?$list@PAVCSkinButton@@V?$allocator@PAVCSkinButton@@@std@@@std@@QAE?AViterator@12@XZ ; std::list<CSkinButton *,std::allocator<CSkinButton *> >::begin
$L192153:

; 157  : 	while(SubBtniter != m_colBtnList.end())

  0116a	8d 4d e0	 lea	 ecx, DWORD PTR $T194734[ebp]
  0116d	51		 push	 ecx
  0116e	8b 4d f0	 mov	 ecx, DWORD PTR _this$[ebp]
  01171	81 c1 c0 02 00
	00		 add	 ecx, 704		; 000002c0H
  01177	e8 00 00 00 00	 call	 ?end@?$list@PAVCSkinButton@@V?$allocator@PAVCSkinButton@@@std@@@std@@QAE?AViterator@12@XZ ; std::list<CSkinButton *,std::allocator<CSkinButton *> >::end
  0117c	50		 push	 eax
  0117d	8d 4d e8	 lea	 ecx, DWORD PTR _SubBtniter$[ebp]
