; Listing generated by Microsoft (R) Optimizing Compiler Version 13.10.3077 

	TITLE	.\src\LayoutMgr\ChangeColor\SubSkinButton.cpp
	.386P
include listing.inc
if @Version gt 510
.model FLAT
else
_TEXT	SEGMENT PARA USE32 PUBLIC 'CODE'
_TEXT	ENDS
_DATA	SEGMENT DWORD USE32 PUBLIC 'DATA'
_DATA	ENDS
CONST	SEGMENT DWORD USE32 PUBLIC 'CONST'
CONST	ENDS
_BSS	SEGMENT DWORD USE32 PUBLIC 'BSS'
_BSS	ENDS
$$SYMBOLS	SEGMENT BYTE USE32 'DEBSYM'
$$SYMBOLS	ENDS
_TLS	SEGMENT DWORD USE32 PUBLIC 'TLS'
_TLS	ENDS
;	COMDAT ??_C@_0FC@OGIBLEP@d?3?2boxgit?2playbox?2playbox?2dev?2pr@
CONST	SEGMENT DWORD USE32 PUBLIC 'CONST'
CONST	ENDS
;	COMDAT ??_C@_0EA@CPOAACJC@d?3?2boxgit?2playbox?2playbox?2dev?2pr@
CONST	SEGMENT DWORD USE32 PUBLIC 'CONST'
CONST	ENDS
;	COMDAT ??_C@_0DC@KJIHKHDE@?$CInCount?5?$DN?$DN?50?$CJ?5?$HM?$HM?5?$CI?$CIiFirst?$CLnCount@
CONST	SEGMENT DWORD USE32 PUBLIC 'CONST'
CONST	ENDS
;	COMDAT ??_C@_0EN@IBFBLEEG@D?3?2Program?5Files?5?$CIx86?$CJ?2Microsoft@
CONST	SEGMENT DWORD USE32 PUBLIC 'CONST'
CONST	ENDS
;	COMDAT ??_C@_0BI@GIMJKKKN@AtlIsValidString?$CI?5psz?5?$CJ?$AA@
CONST	SEGMENT DWORD USE32 PUBLIC 'CONST'
CONST	ENDS
;	COMDAT ??_C@_0BK@JOOHECM@nNewLength?5?$DM?$DN?5GetLength?$CI?$CJ?$AA@
CONST	SEGMENT DWORD USE32 PUBLIC 'CONST'
CONST	ENDS
rdata$r	SEGMENT DWORD USE32 PUBLIC 'CONST'
rdata$r	ENDS
xdata$x	SEGMENT DWORD USE32 PUBLIC 'CONST'
xdata$x	ENDS
text$AFX_COL1	SEGMENT PARA USE32 PUBLIC ''
text$AFX_COL1	ENDS
text$yc	SEGMENT PARA USE32 PUBLIC 'CODE'
text$yc	ENDS
CRT$XCA	SEGMENT DWORD USE32 PUBLIC 'DATA'
CRT$XCA	ENDS
CRT$XCU	SEGMENT DWORD USE32 PUBLIC 'DATA'
CRT$XCU	ENDS
CRT$XCL	SEGMENT DWORD USE32 PUBLIC 'DATA'
CRT$XCL	ENDS
CRT$XCC	SEGMENT DWORD USE32 PUBLIC 'DATA'
CRT$XCC	ENDS
CRT$XCZ	SEGMENT DWORD USE32 PUBLIC 'DATA'
CRT$XCZ	ENDS
text$yd	SEGMENT PARA USE32 PUBLIC 'CODE'
text$yd	ENDS
ATL$__m	SEGMENT DWORD USE32 PUBLIC ''
ATL$__m	ENDS
ATL$__z	SEGMENT DWORD USE32 PUBLIC ''
ATL$__z	ENDS
ATL$__a	SEGMENT DWORD USE32 PUBLIC ''
ATL$__a	ENDS
;	COMDAT ??0CGdiPlusBitmap@CSkinButton@@QAE@XZ
_TEXT	SEGMENT PARA USE32 PUBLIC 'CODE'
_TEXT	ENDS
;	COMDAT ??1CGdiPlusBitmap@CSkinButton@@UAE@XZ
_TEXT	SEGMENT PARA USE32 PUBLIC 'CODE'
_TEXT	ENDS
;	COMDAT ?Empty@CGdiPlusBitmap@CSkinButton@@QAEXXZ
_TEXT	SEGMENT PARA USE32 PUBLIC 'CODE'
_TEXT	ENDS
;	COMDAT ?Load@CGdiPlusBitmap@CSkinButton@@QAE_NPB_W@Z
_TEXT	SEGMENT PARA USE32 PUBLIC 'CODE'
_TEXT	ENDS
;	COMDAT ??BCGdiPlusBitmap@CSkinButton@@QBEPAVBitmap@Gdiplus@@XZ
_TEXT	SEGMENT PARA USE32 PUBLIC 'CODE'
_TEXT	ENDS
;	COMDAT ?GetText@CSkinButton@@QBE?AV?$CStringT@DV?$StrTraitMFC_DLL@DV?$ChTraitsCRT@D@ATL@@@@@ATL@@XZ
_TEXT	SEGMENT PARA USE32 PUBLIC 'CODE'
_TEXT	ENDS
;	COMDAT ??_GCGdiPlusBitmap@CSkinButton@@UAEPAXI@Z
_TEXT	SEGMENT PARA USE32 PUBLIC 'CODE'
_TEXT	ENDS
;	COMDAT ??0BaseColor@@QAE@XZ
_TEXT	SEGMENT PARA USE32 PUBLIC 'CODE'
_TEXT	ENDS
;	COMDAT ??1BaseColor@@QAE@XZ
_TEXT	SEGMENT PARA USE32 PUBLIC 'CODE'
_TEXT	ENDS
;	COMDAT ??_GBaseColor@@QAEPAXI@Z
_TEXT	SEGMENT PARA USE32 PUBLIC 'CODE'
_TEXT	ENDS
;	COMDAT ??1CGdiPlusBitmap@@UAE@XZ
_TEXT	SEGMENT PARA USE32 PUBLIC 'CODE'
_TEXT	ENDS
;	COMDAT ?Empty@CGdiPlusBitmap@@QAEXXZ
_TEXT	SEGMENT PARA USE32 PUBLIC 'CODE'
_TEXT	ENDS
;	COMDAT ?Load@CGdiPlusBitmap@@QAE_NPB_W@Z
_TEXT	SEGMENT PARA USE32 PUBLIC 'CODE'
_TEXT	ENDS
;	COMDAT ??_GCGdiPlusBitmap@@UAEPAXI@Z
_TEXT	SEGMENT PARA USE32 PUBLIC 'CODE'
_TEXT	ENDS
;	COMDAT ??1BCMenuMemDC@@UAE@XZ
_TEXT	SEGMENT PARA USE32 PUBLIC 'CODE'
_TEXT	ENDS
;	COMDAT ??_GBCMenuMemDC@@UAEPAXI@Z
_TEXT	SEGMENT PARA USE32 PUBLIC 'CODE'
_TEXT	ENDS
;	COMDAT ??_GCSubSkinButton@@UAEPAXI@Z
_TEXT	SEGMENT PARA USE32 PUBLIC 'CODE'
_TEXT	ENDS
;	COMDAT ??HATL@@YA?AV?$CStringT@DV?$StrTraitMFC_DLL@DV?$ChTraitsCRT@D@ATL@@@@@0@ABV10@PBD@Z
_TEXT	SEGMENT PARA USE32 PUBLIC 'CODE'
_TEXT	ENDS
;	COMDAT ??HATL@@YA?AV?$CStringT@DV?$StrTraitMFC_DLL@DV?$ChTraitsCRT@D@ATL@@@@@0@PBDABV10@@Z
_TEXT	SEGMENT PARA USE32 PUBLIC 'CODE'
_TEXT	ENDS
;	COMDAT ??8ATL@@YA_NABV?$CStringT@DV?$StrTraitMFC_DLL@DV?$ChTraitsCRT@D@ATL@@@@@0@PBD@Z
_TEXT	SEGMENT PARA USE32 PUBLIC 'CODE'
_TEXT	ENDS
;	COMDAT ??9ATL@@YA_NABV?$CStringT@DV?$StrTraitMFC_DLL@DV?$ChTraitsCRT@D@ATL@@@@@0@PBD@Z
_TEXT	SEGMENT PARA USE32 PUBLIC 'CODE'
_TEXT	ENDS
;	COMDAT ??B?$CComPtrBase@UITypeInfo2@@@ATL@@QBEPAUITypeInfo2@@XZ
_TEXT	SEGMENT PARA USE32 PUBLIC 'CODE'
_TEXT	ENDS
;	COMDAT ?equal@?$istreambuf_iterator@DU?$char_traits@D@std@@@std@@QBE_NABV12@@Z
_TEXT	SEGMENT PARA USE32 PUBLIC 'CODE'
_TEXT	ENDS
;	COMDAT ?equal@?$istreambuf_iterator@_WU?$char_traits@_W@std@@@std@@QBE_NABV12@@Z
_TEXT	SEGMENT PARA USE32 PUBLIC 'CODE'
_TEXT	ENDS
;	COMDAT ?CharNextA@?$ChTraitsCRT@D@ATL@@SAPADPBD@Z
_TEXT	SEGMENT PARA USE32 PUBLIC 'CODE'
_TEXT	ENDS
;	COMDAT ?IsSpace@?$ChTraitsCRT@D@ATL@@SAHD@Z
_TEXT	SEGMENT PARA USE32 PUBLIC 'CODE'
_TEXT	ENDS
;	COMDAT ?StringCompare@?$ChTraitsCRT@D@ATL@@SAHPBD0@Z
_TEXT	SEGMENT PARA USE32 PUBLIC 'CODE'
_TEXT	ENDS
;	COMDAT ?Unlock@?$CComCritSecLock@VCComCriticalSection@ATL@@@ATL@@QAEXXZ
_TEXT	SEGMENT PARA USE32 PUBLIC 'CODE'
_TEXT	ENDS
;	COMDAT ??1?$CArray@HAAH@@UAE@XZ
_TEXT	SEGMENT PARA USE32 PUBLIC 'CODE'
_TEXT	ENDS
;	COMDAT ?Serialize@?$CArray@HAAH@@UAEXAAVCArchive@@@Z
_TEXT	SEGMENT PARA USE32 PUBLIC 'CODE'
_TEXT	ENDS
;	COMDAT ?Dump@?$CArray@HAAH@@UBEXAAVCDumpContext@@@Z
_TEXT	SEGMENT PARA USE32 PUBLIC 'CODE'
_TEXT	ENDS
;	COMDAT ?AssertValid@?$CArray@HAAH@@UBEXXZ
_TEXT	SEGMENT PARA USE32 PUBLIC 'CODE'
_TEXT	ENDS
;	COMDAT ??$_Maklocstr@D@std@@YAPADPBDPADABU_Cvtvec@@@Z
_TEXT	SEGMENT PARA USE32 PUBLIC 'CODE'
_TEXT	ENDS
;	COMDAT ??_G?$CArray@HAAH@@UAEPAXI@Z
_TEXT	SEGMENT PARA USE32 PUBLIC 'CODE'
_TEXT	ENDS
;	COMDAT ?SetSize@?$CArray@HAAH@@QAEXHH@Z
_TEXT	SEGMENT PARA USE32 PUBLIC 'CODE'
_TEXT	ENDS
;	COMDAT ??$SerializeElements@H@@YGXAAVCArchive@@PAHH@Z
_TEXT	SEGMENT PARA USE32 PUBLIC 'CODE'
_TEXT	ENDS
;	COMDAT ??$DumpElements@H@@YGXAAVCDumpContext@@PBHH@Z
_TEXT	SEGMENT PARA USE32 PUBLIC 'CODE'
_TEXT	ENDS
;	COMDAT ??_R3CGdiPlusBitmap@@8
rdata$r	SEGMENT DWORD USE32 PUBLIC 'CONST'
rdata$r	ENDS
;	COMDAT ??_R3?$numpunct@_W@std@@8
rdata$r	SEGMENT DWORD USE32 PUBLIC 'CONST'
rdata$r	ENDS
;	COMDAT ??_R3?$numpunct@D@std@@8
rdata$r	SEGMENT DWORD USE32 PUBLIC 'CONST'
rdata$r	ENDS
;	COMDAT ??_R3?$CArray@HAAH@@8
rdata$r	SEGMENT DWORD USE32 PUBLIC 'CONST'
rdata$r	ENDS
;	COMDAT ??_R3CGdiPlusBitmap@CSkinButton@@8
rdata$r	SEGMENT DWORD USE32 PUBLIC 'CONST'
rdata$r	ENDS
;	COMDAT ??_R3BCMenuMemDC@@8
rdata$r	SEGMENT DWORD USE32 PUBLIC 'CONST'
rdata$r	ENDS
;	COMDAT ??_R3CSubSkinButton@@8
rdata$r	SEGMENT DWORD USE32 PUBLIC 'CONST'
rdata$r	ENDS
;	COMDAT ??_R2CGdiPlusBitmap@@8
rdata$r	SEGMENT DWORD USE32 PUBLIC 'CONST'
rdata$r	ENDS
;	COMDAT ??_R2?$numpunct@_W@std@@8
rdata$r	SEGMENT DWORD USE32 PUBLIC 'CONST'
rdata$r	ENDS
;	COMDAT ??_R2?$numpunct@D@std@@8
rdata$r	SEGMENT DWORD USE32 PUBLIC 'CONST'
rdata$r	ENDS
;	COMDAT ??_R2?$CArray@HAAH@@8
rdata$r	SEGMENT DWORD USE32 PUBLIC 'CONST'
rdata$r	ENDS
;	COMDAT ??_R2CGdiPlusBitmap@CSkinButton@@8
rdata$r	SEGMENT DWORD USE32 PUBLIC 'CONST'
rdata$r	ENDS
;	COMDAT ??_R2BCMenuMemDC@@8
rdata$r	SEGMENT DWORD USE32 PUBLIC 'CONST'
rdata$r	ENDS
;	COMDAT ??_R2CSubSkinButton@@8
rdata$r	SEGMENT DWORD USE32 PUBLIC 'CONST'
rdata$r	ENDS
;	COMDAT ??_R1A@?0A@A@CGdiPlusBitmap@@8
rdata$r	SEGMENT DWORD USE32 PUBLIC 'CONST'
rdata$r	ENDS
;	COMDAT ??_R1A@?0A@A@?$numpunct@_W@std@@8
rdata$r	SEGMENT DWORD USE32 PUBLIC 'CONST'
rdata$r	ENDS
;	COMDAT ??_R1A@?0A@A@facet@locale@std@@8
rdata$r	SEGMENT DWORD USE32 PUBLIC 'CONST'
rdata$r	ENDS
;	COMDAT ??_R0?AVfacet@locale@std@@@8
_DATA	SEGMENT DWORD USE32 PUBLIC 'DATA'
_DATA	ENDS
;	COMDAT ??_R1A@?0A@A@?$numpunct@D@std@@8
rdata$r	SEGMENT DWORD USE32 PUBLIC 'CONST'
rdata$r	ENDS
;	COMDAT ??_R1A@?0A@A@?$CArray@HAAH@@8
rdata$r	SEGMENT DWORD USE32 PUBLIC 'CONST'
rdata$r	ENDS
;	COMDAT ??_R1A@?0A@A@CGdiPlusBitmap@CSkinButton@@8
rdata$r	SEGMENT DWORD USE32 PUBLIC 'CONST'
rdata$r	ENDS
;	COMDAT ??_R1A@?0A@A@CDC@@8
rdata$r	SEGMENT DWORD USE32 PUBLIC 'CONST'
rdata$r	ENDS
;	COMDAT ??_R0?AVCDC@@@8
_DATA	SEGMENT DWORD USE32 PUBLIC 'DATA'
_DATA	ENDS
;	COMDAT ??_R1A@?0A@A@BCMenuMemDC@@8
rdata$r	SEGMENT DWORD USE32 PUBLIC 'CONST'
rdata$r	ENDS
;	COMDAT ??_R1A@?0A@A@CObject@@8
rdata$r	SEGMENT DWORD USE32 PUBLIC 'CONST'
rdata$r	ENDS
;	COMDAT ??_R0?AVCObject@@@8
_DATA	SEGMENT DWORD USE32 PUBLIC 'DATA'
_DATA	ENDS
;	COMDAT ??_R1A@?0A@A@CCmdTarget@@8
rdata$r	SEGMENT DWORD USE32 PUBLIC 'CONST'
rdata$r	ENDS
;	COMDAT ??_R0?AVCCmdTarget@@@8
_DATA	SEGMENT DWORD USE32 PUBLIC 'DATA'
_DATA	ENDS
;	COMDAT ??_R1A@?0A@A@CWnd@@8
rdata$r	SEGMENT DWORD USE32 PUBLIC 'CONST'
rdata$r	ENDS
;	COMDAT ??_R0?AVCWnd@@@8
_DATA	SEGMENT DWORD USE32 PUBLIC 'DATA'
_DATA	ENDS
;	COMDAT ??_R1A@?0A@A@CButton@@8
rdata$r	SEGMENT DWORD USE32 PUBLIC 'CONST'
rdata$r	ENDS
;	COMDAT ??_R1A@?0A@A@CSkinButton@@8
rdata$r	SEGMENT DWORD USE32 PUBLIC 'CONST'
rdata$r	ENDS
;	COMDAT ??_R1A@?0A@A@CSubSkinButton@@8
rdata$r	SEGMENT DWORD USE32 PUBLIC 'CONST'
rdata$r	ENDS
;	COMDAT ??_R0?AVCGdiPlusBitmap@@@8
_DATA	SEGMENT DWORD USE32 PUBLIC 'DATA'
_DATA	ENDS
;	COMDAT ??_R0?AV?$numpunct@_W@std@@@8
_DATA	SEGMENT DWORD USE32 PUBLIC 'DATA'
_DATA	ENDS
;	COMDAT ??_R0?AV?$numpunct@D@std@@@8
_DATA	SEGMENT DWORD USE32 PUBLIC 'DATA'
_DATA	ENDS
;	COMDAT ??_R0?AV?$CArray@HAAH@@@8
_DATA	SEGMENT DWORD USE32 PUBLIC 'DATA'
_DATA	ENDS
;	COMDAT ??_R0?AVCGdiPlusBitmap@CSkinButton@@@8
_DATA	SEGMENT DWORD USE32 PUBLIC 'DATA'
_DATA	ENDS
;	COMDAT ??_R0?AVBCMenuMemDC@@@8
_DATA	SEGMENT DWORD USE32 PUBLIC 'DATA'
_DATA	ENDS
;	COMDAT ??_R0?AVCButton@@@8
_DATA	SEGMENT DWORD USE32 PUBLIC 'DATA'
_DATA	ENDS
;	COMDAT ??_R0?AVCSkinButton@@@8
_DATA	SEGMENT DWORD USE32 PUBLIC 'DATA'
_DATA	ENDS
;	COMDAT ??_R0?AVCSubSkinButton@@@8
_DATA	SEGMENT DWORD USE32 PUBLIC 'DATA'
_DATA	ENDS
;	COMDAT ??_R4CGdiPlusBitmap@@6B@
rdata$r	SEGMENT DWORD USE32 PUBLIC 'CONST'
rdata$r	ENDS
;	COMDAT ??0?$allocator@_W@std@@QAE@XZ
_TEXT	SEGMENT PARA USE32 PUBLIC 'CODE'
_TEXT	ENDS
;	COMDAT ??_G?$numpunct@_W@std@@MAEPAXI@Z
_TEXT	SEGMENT PARA USE32 PUBLIC 'CODE'
_TEXT	ENDS
;	COMDAT ??_R4?$numpunct@_W@std@@6B@
rdata$r	SEGMENT DWORD USE32 PUBLIC 'CONST'
rdata$r	ENDS
;	COMDAT ??_G?$numpunct@D@std@@MAEPAXI@Z
_TEXT	SEGMENT PARA USE32 PUBLIC 'CODE'
_TEXT	ENDS
;	COMDAT ??_R4?$numpunct@D@std@@6B@
rdata$r	SEGMENT DWORD USE32 PUBLIC 'CONST'
rdata$r	ENDS
;	COMDAT ??_R4?$CArray@HAAH@@6B@
rdata$r	SEGMENT DWORD USE32 PUBLIC 'CONST'
rdata$r	ENDS
;	COMDAT ??_R4CGdiPlusBitmap@CSkinButton@@6B@
rdata$r	SEGMENT DWORD USE32 PUBLIC 'CONST'
rdata$r	ENDS
;	COMDAT ??_R4BCMenuMemDC@@6B@
rdata$r	SEGMENT DWORD USE32 PUBLIC 'CONST'
rdata$r	ENDS
;	COMDAT ??_R4CSubSkinButton@@6B@
rdata$r	SEGMENT DWORD USE32 PUBLIC 'CONST'
rdata$r	ENDS
;	COMDAT ??2@YAPAXIPAX@Z
_TEXT	SEGMENT PARA USE32 PUBLIC 'CODE'
_TEXT	ENDS
;	COMDAT ??_C@_0EN@CBMLGOH@D?3?2Program?5Files?5?$CIx86?$CJ?2Microsoft@
CONST	SEGMENT DWORD USE32 PUBLIC 'CONST'
CONST	ENDS
;	COMDAT ??_7?$CArray@HAAH@@6B@
CONST	SEGMENT DWORD USE32 PUBLIC 'CONST'
CONST	ENDS
;	COMDAT ?_Psave@?$_Facetptr@V?$numpunct@_W@std@@@std@@2PBVfacet@locale@2@B
_DATA	SEGMENT DWORD USE32 PUBLIC 'DATA'
_DATA	ENDS
;	COMDAT ?_Psave@?$_Facetptr@V?$numpunct@D@std@@@std@@2PBVfacet@locale@2@B
_DATA	SEGMENT DWORD USE32 PUBLIC 'DATA'
_DATA	ENDS
;	COMDAT ?Unlock@CComCriticalSection@ATL@@QAEJXZ
_TEXT	SEGMENT PARA USE32 PUBLIC 'CODE'
_TEXT	ENDS
;	COMDAT ??_C@_0FG@LDNDNCJM@D?3?2Program?5Files?5?$CIx86?$CJ?2Microsoft@
CONST	SEGMENT DWORD USE32 PUBLIC 'CONST'
CONST	ENDS
;	COMDAT ??_C@_09HIEJFN@m_bLocked?$AA@
CONST	SEGMENT DWORD USE32 PUBLIC 'CONST'
CONST	ENDS
;	COMDAT ?_Psave@?$_Facetptr@V?$ctype@_W@std@@@std@@2PBVfacet@locale@2@B
_DATA	SEGMENT DWORD USE32 PUBLIC 'DATA'
_DATA	ENDS
;	COMDAT ?_Psave@?$_Facetptr@V?$ctype@D@std@@@std@@2PBVfacet@locale@2@B
_DATA	SEGMENT DWORD USE32 PUBLIC 'DATA'
_DATA	ENDS
;	COMDAT ??$_Maklocchr@_W@std@@YA_WDPA_WABU_Cvtvec@@@Z
_TEXT	SEGMENT PARA USE32 PUBLIC 'CODE'
_TEXT	ENDS
;	COMDAT ??$_DebugHeapDelete@X@std@@YAXPAX@Z
_TEXT	SEGMENT PARA USE32 PUBLIC 'CODE'
_TEXT	ENDS
;	COMDAT ??$_Maklocstr@_W@std@@YAPA_WPBDPA_WABU_Cvtvec@@@Z
_TEXT	SEGMENT PARA USE32 PUBLIC 'CODE'
_TEXT	ENDS
;	COMDAT ??$_Maklocchr@D@std@@YADDPADABU_Cvtvec@@@Z
_TEXT	SEGMENT PARA USE32 PUBLIC 'CODE'
_TEXT	ENDS
;	COMDAT ??_C@_04LOAJBDKD@true?$AA@
CONST	SEGMENT DWORD USE32 PUBLIC 'CONST'
CONST	ENDS
;	COMDAT ??_C@_05LAPONLG@false?$AA@
CONST	SEGMENT DWORD USE32 PUBLIC 'CONST'
CONST	ENDS
;	COMDAT _wmemcpy
_TEXT	SEGMENT PARA USE32 PUBLIC 'CODE'
_TEXT	ENDS
;	COMDAT ?max_size@?$allocator@_W@std@@QBEIXZ
_TEXT	SEGMENT PARA USE32 PUBLIC 'CODE'
_TEXT	ENDS
;	COMDAT ?allocate@?$allocator@_W@std@@QAEPA_WI@Z
_TEXT	SEGMENT PARA USE32 PUBLIC 'CODE'
_TEXT	ENDS
;	COMDAT ??$_Allocate@_W@std@@YAPA_WIPA_W@Z
_TEXT	SEGMENT PARA USE32 PUBLIC 'CODE'
_TEXT	ENDS
;	COMDAT ??_C@_0N@ILOMLJGA@nLength?5?$DO?$DN?50?$AA@
CONST	SEGMENT DWORD USE32 PUBLIC 'CONST'
CONST	ENDS
;	COMDAT ??_C@_0CD@EEFFJEGJ@nLength?5?$DM?$DN?5GetData?$CI?$CJ?9?$DOnAllocLeng@
CONST	SEGMENT DWORD USE32 PUBLIC 'CONST'
CONST	ENDS
;	COMDAT ?data@CStringData@ATL@@QAEPAXXZ
_TEXT	SEGMENT PARA USE32 PUBLIC 'CODE'
_TEXT	ENDS
;	COMDAT ?AtlThrow@ATL@@YGXJ@Z
_TEXT	SEGMENT PARA USE32 PUBLIC 'CODE'
_TEXT	ENDS
;	COMDAT ??RCTraceFileAndLineInfo@ATL@@QBAXKIPBDZZ
_TEXT	SEGMENT PARA USE32 PUBLIC 'CODE'
_TEXT	ENDS
;	COMDAT ?TraceV@CTrace@ATL@@QBAXPBDHKI0PAD@Z
_TEXT	SEGMENT PARA USE32 PUBLIC 'CODE'
_TEXT	ENDS
;	COMDAT ??0CTraceFileAndLineInfo@ATL@@QAE@PBDH@Z
_TEXT	SEGMENT PARA USE32 PUBLIC 'CODE'
_TEXT	ENDS
;	COMDAT ??_C@_0FI@NHHJANPC@D?3?2Program?5Files?5?$CIx86?$CJ?2Microsoft@
CONST	SEGMENT DWORD USE32 PUBLIC 'CONST'
CONST	ENDS
;	COMDAT ??_C@_0BF@IAAKIJDJ@AtlThrow?3?5hr?5?$DN?50x?$CFx?6?$AA@
CONST	SEGMENT DWORD USE32 PUBLIC 'CONST'
CONST	ENDS
;	COMDAT ??BCTraceCategory@ATL@@QBEKXZ
_TEXT	SEGMENT PARA USE32 PUBLIC 'CODE'
_TEXT	ENDS
;	COMDAT ??_C@_0FJ@DMHPDOJC@D?3?2Program?5Files?5?$CIx86?$CJ?2Microsoft@
CONST	SEGMENT DWORD USE32 PUBLIC 'CONST'
CONST	ENDS
;	COMDAT ??_C@_0BA@GOIMFHNK@pStringMgr?5?$CB?$DN?50?$AA@
CONST	SEGMENT DWORD USE32 PUBLIC 'CONST'
CONST	ENDS
;	COMDAT ??_C@_01GFHCPBMG@C?$AA@
CONST	SEGMENT DWORD USE32 PUBLIC 'CONST'
CONST	ENDS
;	COMDAT ?max_size@?$allocator@D@std@@QBEIXZ
_TEXT	SEGMENT PARA USE32 PUBLIC 'CODE'
_TEXT	ENDS
;	COMDAT ?allocate@?$allocator@D@std@@QAEPADI@Z
_TEXT	SEGMENT PARA USE32 PUBLIC 'CODE'
_TEXT	ENDS
;	COMDAT ??$_Allocate@D@std@@YAPADIPAD@Z
_TEXT	SEGMENT PARA USE32 PUBLIC 'CODE'
_TEXT	ENDS
;	COMDAT ?deallocate@?$allocator@D@std@@QAEXPADI@Z
_TEXT	SEGMENT PARA USE32 PUBLIC 'CODE'
_TEXT	ENDS
;	COMDAT ?AtlIsValidString@ATL@@YAHPBDI@Z
_TEXT	SEGMENT PARA USE32 PUBLIC 'CODE'
_TEXT	ENDS
;	COMDAT ?Release@CStringData@ATL@@QAEXXZ
_TEXT	SEGMENT PARA USE32 PUBLIC 'CODE'
_TEXT	ENDS
;	COMDAT ??_C@_0L@OIIMFBNE@nRefs?5?$CB?$DN?50?$AA@
CONST	SEGMENT DWORD USE32 PUBLIC 'CONST'
CONST	ENDS
;	COMDAT ??_C@_0BA@GNIEOBOF@nNewLength?5?$DO?$DN?50?$AA@
CONST	SEGMENT DWORD USE32 PUBLIC 'CONST'
CONST	ENDS
;	COMDAT ?IsShared@CStringData@ATL@@QBE_NXZ
_TEXT	SEGMENT PARA USE32 PUBLIC 'CODE'
_TEXT	ENDS
;	COMDAT ??_C@_0CB@GFHAPKDK@pOldData?9?$DOnAllocLength?5?$DM?5nLength@
CONST	SEGMENT DWORD USE32 PUBLIC 'CONST'
CONST	ENDS
;	COMDAT ?_Peek@?$istreambuf_iterator@_WU?$char_traits@_W@std@@@std@@AAE_WXZ
_TEXT	SEGMENT PARA USE32 PUBLIC 'CODE'
_TEXT	ENDS
;	COMDAT ?_Peek@?$istreambuf_iterator@DU?$char_traits@D@std@@@std@@AAEDXZ
_TEXT	SEGMENT PARA USE32 PUBLIC 'CODE'
_TEXT	ENDS
;	COMDAT ??$use_facet@V?$ctype@_W@std@@@std@@YAABV?$ctype@_W@0@ABVlocale@0@@Z
_TEXT	SEGMENT PARA USE32 PUBLIC 'CODE'
_TEXT	ENDS
;	COMDAT ??_S?$ctype@_W@std@@6B@
CONST	SEGMENT DWORD USE32 PUBLIC 'CONST'
CONST	ENDS
;	COMDAT ??_R4?$ctype@_W@std@@6B@
rdata$r	SEGMENT DWORD USE32 PUBLIC 'CONST'
rdata$r	ENDS
;	COMDAT ??_R0?AV?$ctype@_W@std@@@8
_DATA	SEGMENT DWORD USE32 PUBLIC 'DATA'
_DATA	ENDS
;	COMDAT ??_R3?$ctype@_W@std@@8
rdata$r	SEGMENT DWORD USE32 PUBLIC 'CONST'
rdata$r	ENDS
;	COMDAT ??_R2?$ctype@_W@std@@8
rdata$r	SEGMENT DWORD USE32 PUBLIC 'CONST'
rdata$r	ENDS
;	COMDAT ??_R1A@?0A@A@?$ctype@_W@std@@8
rdata$r	SEGMENT DWORD USE32 PUBLIC 'CONST'
rdata$r	ENDS
;	COMDAT ??_R1A@?0A@A@ctype_base@std@@8
rdata$r	SEGMENT DWORD USE32 PUBLIC 'CONST'
rdata$r	ENDS
;	COMDAT ??_R0?AUctype_base@std@@@8
_DATA	SEGMENT DWORD USE32 PUBLIC 'DATA'
_DATA	ENDS
;	COMDAT ??_G?$ctype@_W@std@@MAEPAXI@Z
_TEXT	SEGMENT PARA USE32 PUBLIC 'CODE'
_TEXT	ENDS
;	COMDAT ??_C@_08EPJLHIJG@bad?5cast?$AA@
CONST	SEGMENT DWORD USE32 PUBLIC 'CONST'
CONST	ENDS
;	COMDAT __TI2?AVbad_cast@@
xdata$x	SEGMENT DWORD USE32 PUBLIC 'CONST'
xdata$x	ENDS
;	COMDAT __CTA2?AVbad_cast@@
xdata$x	SEGMENT DWORD USE32 PUBLIC 'CONST'
xdata$x	ENDS
;	COMDAT __CT??_R0?AVbad_cast@@@8??0bad_cast@@QAE@ABV0@@Z12
xdata$x	SEGMENT DWORD USE32 PUBLIC 'CONST'
xdata$x	ENDS
;	COMDAT ??_R0?AVbad_cast@@@8
_DATA	SEGMENT DWORD USE32 PUBLIC 'DATA'
_DATA	ENDS
;	COMDAT __CT??_R0?AVexception@@@8??0exception@@QAE@ABV0@@Z12
xdata$x	SEGMENT DWORD USE32 PUBLIC 'CONST'
xdata$x	ENDS
;	COMDAT ??_R0?AVexception@@@8
_DATA	SEGMENT DWORD USE32 PUBLIC 'DATA'
_DATA	ENDS
;	COMDAT ??$_DebugHeapDelete@Vfacet@locale@std@@@std@@YAXPAVfacet@locale@0@@Z
_TEXT	SEGMENT PARA USE32 PUBLIC 'CODE'
_TEXT	ENDS
;	COMDAT ??$use_facet@V?$ctype@D@std@@@std@@YAABV?$ctype@D@0@ABVlocale@0@@Z
_TEXT	SEGMENT PARA USE32 PUBLIC 'CODE'
_TEXT	ENDS
;	COMDAT ??_S?$ctype@D@std@@6B@
CONST	SEGMENT DWORD USE32 PUBLIC 'CONST'
CONST	ENDS
;	COMDAT ??_R4?$ctype@D@std@@6B@
rdata$r	SEGMENT DWORD USE32 PUBLIC 'CONST'
rdata$r	ENDS
;	COMDAT ??_R0?AV?$ctype@D@std@@@8
_DATA	SEGMENT DWORD USE32 PUBLIC 'DATA'
_DATA	ENDS
;	COMDAT ??_R3?$ctype@D@std@@8
rdata$r	SEGMENT DWORD USE32 PUBLIC 'CONST'
rdata$r	ENDS
;	COMDAT ??_R2?$ctype@D@std@@8
rdata$r	SEGMENT DWORD USE32 PUBLIC 'CONST'
rdata$r	ENDS
;	COMDAT ??_R1A@?0A@A@?$ctype@D@std@@8
rdata$r	SEGMENT DWORD USE32 PUBLIC 'CONST'
rdata$r	ENDS
;	COMDAT ??_G?$ctype@D@std@@MAEPAXI@Z
_TEXT	SEGMENT PARA USE32 PUBLIC 'CODE'
_TEXT	ENDS
;	COMDAT ??_S?$numpunct@_W@std@@6B@
CONST	SEGMENT DWORD USE32 PUBLIC 'CONST'
CONST	ENDS
;	COMDAT ??_S?$numpunct@D@std@@6B@
CONST	SEGMENT DWORD USE32 PUBLIC 'CONST'
CONST	ENDS
;	COMDAT _wmemmove
_TEXT	SEGMENT PARA USE32 PUBLIC 'CODE'
_TEXT	ENDS
;	COMDAT ?deallocate@?$allocator@_W@std@@QAEXPA_WI@Z
_TEXT	SEGMENT PARA USE32 PUBLIC 'CODE'
_TEXT	ENDS
;	COMDAT ??0?$allocator@_W@std@@QAE@ABV01@@Z
_TEXT	SEGMENT PARA USE32 PUBLIC 'CODE'
_TEXT	ENDS
;	COMDAT ??_C@_0FH@KDPNIMBO@D?3?2Program?5Files?5?$CIx86?$CJ?2Microsoft@
CONST	SEGMENT DWORD USE32 PUBLIC 'CONST'
CONST	ENDS
;	COMDAT ?DrawImage@Graphics@Gdiplus@@QAE?AW4Status@2@PAVImage@2@ABVRectF@2@@Z
_TEXT	SEGMENT PARA USE32 PUBLIC 'CODE'
_TEXT	ENDS
;	COMDAT ?DrawImage@Graphics@Gdiplus@@QAE?AW4Status@2@PAVImage@2@MMMM@Z
_TEXT	SEGMENT PARA USE32 PUBLIC 'CODE'
_TEXT	ENDS
;	COMDAT ?SetStatus@Graphics@Gdiplus@@IBE?AW4Status@2@W432@@Z
_TEXT	SEGMENT PARA USE32 PUBLIC 'CODE'
_TEXT	ENDS
;	COMDAT ?DrawImage@Graphics@Gdiplus@@QAE?AW4Status@2@PAVImage@2@ABVRect@2@HHHHW4Unit@2@PBVImageAttributes@2@P6GHPAX@Z4@Z
_TEXT	SEGMENT PARA USE32 PUBLIC 'CODE'
_TEXT	ENDS
;	COMDAT ??0Rect@Gdiplus@@QAE@HHHH@Z
_TEXT	SEGMENT PARA USE32 PUBLIC 'CODE'
_TEXT	ENDS
;	COMDAT ??0RectF@Gdiplus@@QAE@XZ
_TEXT	SEGMENT PARA USE32 PUBLIC 'CODE'
_TEXT	ENDS
;	COMDAT ?ReleaseHDC@Graphics@Gdiplus@@QAEXPAUHDC__@@@Z
_TEXT	SEGMENT PARA USE32 PUBLIC 'CODE'
_TEXT	ENDS
;	COMDAT ??1Graphics@Gdiplus@@QAE@XZ
_TEXT	SEGMENT PARA USE32 PUBLIC 'CODE'
_TEXT	ENDS
;	COMDAT ??0Graphics@Gdiplus@@QAE@PAUHDC__@@@Z
_TEXT	SEGMENT PARA USE32 PUBLIC 'CODE'
_TEXT	ENDS
;	COMDAT ?SetNativeGraphics@Graphics@Gdiplus@@IAEXPAVGpGraphics@2@@Z
_TEXT	SEGMENT PARA USE32 PUBLIC 'CODE'
_TEXT	ENDS
;	COMDAT ??0?$allocator@D@std@@QAE@ABV01@@Z
_TEXT	SEGMENT PARA USE32 PUBLIC 'CODE'
_TEXT	ENDS
;	COMDAT ??0?$allocator@D@std@@QAE@XZ
_TEXT	SEGMENT PARA USE32 PUBLIC 'CODE'
_TEXT	ENDS
;	COMDAT ?GetWidth@Image@Gdiplus@@QAEIXZ
_TEXT	SEGMENT PARA USE32 PUBLIC 'CODE'
_TEXT	ENDS
;	COMDAT ?SetStatus@Image@Gdiplus@@IBE?AW4Status@2@W432@@Z
_TEXT	SEGMENT PARA USE32 PUBLIC 'CODE'
_TEXT	ENDS
;	COMDAT ?GetHeight@Image@Gdiplus@@QAEIXZ
_TEXT	SEGMENT PARA USE32 PUBLIC 'CODE'
_TEXT	ENDS
;	COMDAT ?GetDefaultManager@?$StrTraitMFC_DLL@DV?$ChTraitsCRT@D@ATL@@@@SAPAUIAtlStringMgr@ATL@@XZ
_TEXT	SEGMENT PARA USE32 PUBLIC 'CODE'
_TEXT	ENDS
;	COMDAT ??_7CSubSkinButton@@6B@
CONST	SEGMENT DWORD USE32 PUBLIC 'CONST'
CONST	ENDS
;	COMDAT ?_messageEntries@CSubSkinButton@@0QBUAFX_MSGMAP_ENTRY@@B
CONST	SEGMENT DWORD USE32 PUBLIC 'CONST'
CONST	ENDS
;	COMDAT ?messageMap@CSubSkinButton@@1UAFX_MSGMAP@@B
CONST	SEGMENT DWORD USE32 PUBLIC 'CONST'
CONST	ENDS
;	COMDAT ??_7BCMenuMemDC@@6B@
CONST	SEGMENT DWORD USE32 PUBLIC 'CONST'
CONST	ENDS
;	COMDAT ??_7CGdiPlusBitmap@@6B@
CONST	SEGMENT DWORD USE32 PUBLIC 'CONST'
CONST	ENDS
;	COMDAT ?FindStringResourceInstance@?$StrTraitMFC_DLL@DV?$ChTraitsCRT@D@ATL@@@@SAPAUHINSTANCE__@@I@Z
_TEXT	SEGMENT PARA USE32 PUBLIC 'CODE'
_TEXT	ENDS
;	COMDAT ?AtlGetStringResourceImage@ATL@@YAPBUATLSTRINGRESOURCEIMAGE@1@PAUHINSTANCE__@@I@Z
_TEXT	SEGMENT PARA USE32 PUBLIC 'CODE'
_TEXT	ENDS
;	COMDAT ?_AtlGetStringResourceImage@ATL@@YAPBUATLSTRINGRESOURCEIMAGE@1@PAUHINSTANCE__@@PAUHRSRC__@@I@Z
_TEXT	SEGMENT PARA USE32 PUBLIC 'CODE'
_TEXT	ENDS
;	COMDAT ?GetBaseTypeLength@?$ChTraitsCRT@D@ATL@@SAHPB_WH@Z
_TEXT	SEGMENT PARA USE32 PUBLIC 'CODE'
_TEXT	ENDS
;	COMDAT ?_AtlGetConversionACP@ATL@@YGIXZ
_TEXT	SEGMENT PARA USE32 PUBLIC 'CODE'
_TEXT	ENDS
;	COMDAT ?g_pfnGetThreadACP@ATL@@3P6GIXZA
_DATA	SEGMENT DWORD USE32 PUBLIC 'DATA'
_DATA	ENDS
;	COMDAT ?_AtlGetThreadACPThunk@ATL@@YGIXZ
_TEXT	SEGMENT PARA USE32 PUBLIC 'CODE'
_TEXT	ENDS
;	COMDAT ?_AtlGetThreadACPReal@ATL@@YGIXZ
_TEXT	SEGMENT PARA USE32 PUBLIC 'CODE'
_TEXT	ENDS
;	COMDAT ?_AtlGetThreadACPFake@ATL@@YGIXZ
_TEXT	SEGMENT PARA USE32 PUBLIC 'CODE'
_TEXT	ENDS
;	COMDAT ?InterlockedExchangePointer@@YGPAXPAPAXPAX@Z
_TEXT	SEGMENT PARA USE32 PUBLIC 'CODE'
_TEXT	ENDS
;	COMDAT ?ConvertToBaseType@?$ChTraitsCRT@D@ATL@@SAXPADHPB_WH@Z
_TEXT	SEGMENT PARA USE32 PUBLIC 'CODE'
_TEXT	ENDS
;	COMDAT ??_C@_0CJ@FJEKGMMD@Warning?3?5implicit?5LoadString?$CI?$CFu?$CJ@
CONST	SEGMENT DWORD USE32 PUBLIC 'CONST'
CONST	ENDS
;	COMDAT ?IsLocked@CStringData@ATL@@QBE_NXZ
_TEXT	SEGMENT PARA USE32 PUBLIC 'CODE'
_TEXT	ENDS
;	COMDAT ?AddRef@CStringData@ATL@@QAEXXZ
_TEXT	SEGMENT PARA USE32 PUBLIC 'CODE'
_TEXT	ENDS
;	COMDAT ??_C@_09EEBKLCFA@nRefs?5?$DO?50?$AA@
CONST	SEGMENT DWORD USE32 PUBLIC 'CONST'
CONST	ENDS
;	COMDAT ?GetLastStatus@Image@Gdiplus@@QBE?AW4Status@2@XZ
_TEXT	SEGMENT PARA USE32 PUBLIC 'CODE'
_TEXT	ENDS
;	COMDAT ?FromFile@Bitmap@Gdiplus@@SAPAV12@PB_WH@Z
_TEXT	SEGMENT PARA USE32 PUBLIC 'CODE'
_TEXT	ENDS
;	COMDAT ??2GdiplusBase@Gdiplus@@SAPAXI@Z
_TEXT	SEGMENT PARA USE32 PUBLIC 'CODE'
_TEXT	ENDS
;	COMDAT ??3GdiplusBase@Gdiplus@@SAXPAX@Z
_TEXT	SEGMENT PARA USE32 PUBLIC 'CODE'
_TEXT	ENDS
;	COMDAT ??0Bitmap@Gdiplus@@QAE@PB_WH@Z
_TEXT	SEGMENT PARA USE32 PUBLIC 'CODE'
_TEXT	ENDS
;	COMDAT ??0Image@Gdiplus@@IAE@XZ
_TEXT	SEGMENT PARA USE32 PUBLIC 'CODE'
_TEXT	ENDS
;	COMDAT ??_7Image@Gdiplus@@6B@
CONST	SEGMENT DWORD USE32 PUBLIC 'CONST'
CONST	ENDS
;	COMDAT ??_R4Image@Gdiplus@@6B@
rdata$r	SEGMENT DWORD USE32 PUBLIC 'CONST'
rdata$r	ENDS
;	COMDAT ??_R0?AVImage@Gdiplus@@@8
_DATA	SEGMENT DWORD USE32 PUBLIC 'DATA'
_DATA	ENDS
;	COMDAT ??_R3Image@Gdiplus@@8
rdata$r	SEGMENT DWORD USE32 PUBLIC 'CONST'
rdata$r	ENDS
;	COMDAT ??_R2Image@Gdiplus@@8
rdata$r	SEGMENT DWORD USE32 PUBLIC 'CONST'
rdata$r	ENDS
;	COMDAT ??_R1A@?0A@A@Image@Gdiplus@@8
rdata$r	SEGMENT DWORD USE32 PUBLIC 'CONST'
rdata$r	ENDS
;	COMDAT ??_R13?0A@A@GdiplusBase@Gdiplus@@8
rdata$r	SEGMENT DWORD USE32 PUBLIC 'CONST'
rdata$r	ENDS
;	COMDAT ??_R0?AVGdiplusBase@Gdiplus@@@8
_DATA	SEGMENT DWORD USE32 PUBLIC 'DATA'
_DATA	ENDS
;	COMDAT ??_GImage@Gdiplus@@UAEPAXI@Z
_TEXT	SEGMENT PARA USE32 PUBLIC 'CODE'
_TEXT	ENDS
;	COMDAT ?Clone@Image@Gdiplus@@UAEPAV12@XZ
_TEXT	SEGMENT PARA USE32 PUBLIC 'CODE'
_TEXT	ENDS
;	COMDAT ??0Image@Gdiplus@@IAE@PAVGpImage@1@W4Status@1@@Z
_TEXT	SEGMENT PARA USE32 PUBLIC 'CODE'
_TEXT	ENDS
;	COMDAT ??1Image@Gdiplus@@UAE@XZ
_TEXT	SEGMENT PARA USE32 PUBLIC 'CODE'
_TEXT	ENDS
;	COMDAT ??_7Bitmap@Gdiplus@@6B@
CONST	SEGMENT DWORD USE32 PUBLIC 'CONST'
CONST	ENDS
;	COMDAT ??_R4Bitmap@Gdiplus@@6B@
rdata$r	SEGMENT DWORD USE32 PUBLIC 'CONST'
rdata$r	ENDS
;	COMDAT ??_R0?AVBitmap@Gdiplus@@@8
_DATA	SEGMENT DWORD USE32 PUBLIC 'DATA'
_DATA	ENDS
;	COMDAT ??_R3Bitmap@Gdiplus@@8
rdata$r	SEGMENT DWORD USE32 PUBLIC 'CONST'
rdata$r	ENDS
;	COMDAT ??_R2Bitmap@Gdiplus@@8
rdata$r	SEGMENT DWORD USE32 PUBLIC 'CONST'
rdata$r	ENDS
;	COMDAT ??_R1A@?0A@A@Bitmap@Gdiplus@@8
rdata$r	SEGMENT DWORD USE32 PUBLIC 'CONST'
rdata$r	ENDS
;	COMDAT ??_GBitmap@Gdiplus@@UAEPAXI@Z
_TEXT	SEGMENT PARA USE32 PUBLIC 'CODE'
_TEXT	ENDS
;	COMDAT ??1Bitmap@Gdiplus@@UAE@XZ
_TEXT	SEGMENT PARA USE32 PUBLIC 'CODE'
_TEXT	ENDS
;	COMDAT ?SetNativeImage@Image@Gdiplus@@IAEXPAVGpImage@2@@Z
_TEXT	SEGMENT PARA USE32 PUBLIC 'CODE'
_TEXT	ENDS
;	COMDAT ??_7CGdiPlusBitmap@CSkinButton@@6B@
CONST	SEGMENT DWORD USE32 PUBLIC 'CONST'
CONST	ENDS
sxdata	SEGMENT DWORD USE32 'SXDATA'
sxdata	ENDS
FLAT	GROUP _DATA, CONST, _BSS
	ASSUME	CS: FLAT, DS: FLAT, SS: FLAT
endif

INCLUDELIB MSVCRTD
INCLUDELIB OLDNAMES

PUBLIC	?g_pfnGetThreadACP@ATL@@3P6GIXZA		; ATL::g_pfnGetThreadACP
PUBLIC	?_AtlGetThreadACPThunk@ATL@@YGIXZ		; ATL::_AtlGetThreadACPThunk
PUBLIC	?OnLButtonDown@CSubSkinButton@@QAEXIVCPoint@@@Z	; CSubSkinButton::OnLButtonDown
PUBLIC	?OnMouseMove@CSubSkinButton@@QAEXIVCPoint@@@Z	; CSubSkinButton::OnMouseMove
PUBLIC	?OnMouseLeave@CSubSkinButton@@QAEJIJ@Z		; CSubSkinButton::OnMouseLeave
PUBLIC	?_messageEntries@CSubSkinButton@@0QBUAFX_MSGMAP_ENTRY@@B ; CSubSkinButton::_messageEntries
PUBLIC	?messageMap@CSubSkinButton@@1UAFX_MSGMAP@@B	; CSubSkinButton::messageMap
PUBLIC	?OnRButtonDown@CSubSkinButton@@IAEXIVCPoint@@@Z	; CSubSkinButton::OnRButtonDown
PUBLIC	?OnApplySkin@CSubSkinButton@@IAEXXZ		; CSubSkinButton::OnApplySkin
PUBLIC	?OnDeleteSkin@CSubSkinButton@@IAEXXZ		; CSubSkinButton::OnDeleteSkin
PUBLIC	?OnMoreSkin@CSubSkinButton@@IAEXXZ		; CSubSkinButton::OnMoreSkin
EXTRN	?GetThisMessageMap@CSkinButton@@KGPBUAFX_MSGMAP@@XZ:NEAR ; CSkinButton::GetThisMessageMap
;	COMDAT ?_messageEntries@CSubSkinButton@@0QBUAFX_MSGMAP_ENTRY@@B
CONST	SEGMENT
?_messageEntries@CSubSkinButton@@0QBUAFX_MSGMAP_ENTRY@@B DD 0201H ; CSubSkinButton::_messageEntries
	DD	00H
	DD	00H
	DD	00H
	DD	032H
	DD	FLAT:?OnLButtonDown@CSubSkinButton@@QAEXIVCPoint@@@Z
	DD	0200H
	DD	00H
	DD	00H
	DD	00H
	DD	032H
	DD	FLAT:?OnMouseMove@CSubSkinButton@@QAEXIVCPoint@@@Z
	DD	0111H
	DD	00H
	DD	06eH
	DD	06eH
	DD	035H
	DD	FLAT:?OnApplySkin@CSubSkinButton@@IAEXXZ
	DD	0111H
	DD	00H
	DD	06fH
	DD	06fH
	DD	035H
	DD	FLAT:?OnDeleteSkin@CSubSkinButton@@IAEXXZ
	DD	0111H
	DD	00H
	DD	070H
	DD	070H
	DD	035H
	DD	FLAT:?OnMoreSkin@CSubSkinButton@@IAEXXZ
	DD	02a3H
	DD	00H
	DD	00H
	DD	00H
	DD	0eH
	DD	FLAT:?OnMouseLeave@CSubSkinButton@@QAEJIJ@Z
	DD	0204H
	DD	00H
	DD	00H
	DD	00H
	DD	032H
	DD	FLAT:?OnRButtonDown@CSubSkinButton@@IAEXIVCPoint@@@Z
	DD	00H
	DD	00H
	DD	00H
	DD	00H
	DD	00H
	DD	00H
CONST	ENDS
;	COMDAT ?messageMap@CSubSkinButton@@1UAFX_MSGMAP@@B
CONST	SEGMENT
?messageMap@CSubSkinButton@@1UAFX_MSGMAP@@B DD FLAT:?GetThisMessageMap@CSkinButton@@KGPBUAFX_MSGMAP@@XZ ; CSubSkinButton::messageMap
	DD	FLAT:?_messageEntries@CSubSkinButton@@0QBUAFX_MSGMAP_ENTRY@@B
CONST	ENDS
CONST	SEGMENT
$SG188496 DB	'1', 00H
	ORG $+2
$SG188500 DB	'BTN:DELETE_BTN_', 00H
$SG188501 DB	'USRCLK', 00H
	ORG $+1
$SG188507 DB	'.\src\LayoutMgr\ChangeColor\SubSkinButton.cpp', 00H
	ORG $+2
$SG188513 DB	'1', 00H
	ORG $+2
$SG188553 DB	'.\src\LayoutMgr\ChangeColor\SubSkinButton.cpp', 00H
	ORG $+2
$SG188554 DB	'.\src\LayoutMgr\ChangeColor\SubSkinButton.cpp', 00H
	ORG $+2
$SG188571 DB	'.\src\LayoutMgr\ChangeColor\SubSkinButton.cpp', 00H
	ORG $+2
$SG188572 DB	'.\src\LayoutMgr\ChangeColor\SubSkinButton.cpp', 00H
	ORG $+2
$SG188596 DB	'Normal.png', 00H
	ORG $+1
$SG188600 DB	'Over.png', 00H
	ORG $+3
$SG188604 DB	'Down.png', 00H
	ORG $+3
$SG188654 DB	0c9H, 0beH, 0b3H, 0fdH, 00H
	ORG $+3
$SG188656 DB	0c9H, 0beH, 0b3H, 0fdH, 00H
	ORG $+3
$SG188659 DB	0c9H, 0beH, 0b3H, 0fdH, 00H
	ORG $+3
$SG188688 DB	'BTN:DELETE_MENU_', 00H
	ORG $+3
$SG188689 DB	'USRCLK', 00H
	ORG $+1
$SG188696 DB	'BTN:DOWN_MORE_MENU', 00H
	ORG $+1
$SG188697 DB	'USRCLK', 00H
	ORG $+1
$SG188698 DB	'http://www.kuwo.cn/skin/', 00H
	ORG $+3
$SG188699 DB	'iexplore', 00H
	ORG $+3
$SG188700 DB	'open', 00H
	ORG $+7
$SG188899 DB	'D:\Program Files (x86)\Microsoft Visual Studio .NET 2003'
	DB	'\Vc7\atlmfc\include\afxtempl.h', 00H
	ORG $+1
$SG188913 DB	'D:\Program Files (x86)\Microsoft Visual Studio .NET 2003'
	DB	'\Vc7\atlmfc\include\afxtempl.h', 00H
	ORG $+1
$SG188929 DB	'with ', 00H
	ORG $+2
$SG188930 DB	' elements', 00H
	ORG $+2
$SG188932 DB	0aH, 00H
	ORG $+2
$SG188939 DB	0aH, 00H
	ORG $+6
$SG188947 DB	'D:\Program Files (x86)\Microsoft Visual Studio .NET 2003'
	DB	'\Vc7\atlmfc\include\afxtempl.h', 00H
	ORG $+1
$SG188949 DB	'D:\Program Files (x86)\Microsoft Visual Studio .NET 2003'
	DB	'\Vc7\atlmfc\include\afxtempl.h', 00H
	ORG $+1
$SG188952 DB	'D:\Program Files (x86)\Microsoft Visual Studio .NET 2003'
	DB	'\Vc7\atlmfc\include\afxtempl.h', 00H
	ORG $+1
$SG188954 DB	'D:\Program Files (x86)\Microsoft Visual Studio .NET 2003'
	DB	'\Vc7\atlmfc\include\afxtempl.h', 00H
	ORG $+1
$SG188956 DB	'D:\Program Files (x86)\Microsoft Visual Studio .NET 2003'
	DB	'\Vc7\atlmfc\include\afxtempl.h', 00H
	ORG $+1
$SG188959 DB	'D:\Program Files (x86)\Microsoft Visual Studio .NET 2003'
	DB	'\Vc7\atlmfc\include\afxtempl.h', 00H
	ORG $+1
$SG188982 DB	'D:\Program Files (x86)\Microsoft Visual Studio .NET 2003'
	DB	'\Vc7\atlmfc\include\afxtempl.h', 00H
	ORG $+1
$SG188984 DB	'D:\Program Files (x86)\Microsoft Visual Studio .NET 2003'
	DB	'\Vc7\atlmfc\include\afxtempl.h', 00H
	ORG $+1
$SG188999 DB	'D:\Program Files (x86)\Microsoft Visual Studio .NET 2003'
	DB	'\Vc7\atlmfc\include\afxtempl.h', 00H
	ORG $+1
$SG189006 DB	'D:\Program Files (x86)\Microsoft Visual Studio .NET 2003'
	DB	'\Vc7\atlmfc\include\afxtempl.h', 00H
	ORG $+1
$SG189042 DB	'D:\Program Files (x86)\Microsoft Visual Studio .NET 2003'
	DB	'\Vc7\atlmfc\include\afxtempl.h', 00H
	ORG $+1
$SG189046 DB	'D:\Program Files (x86)\Microsoft Visual Studio .NET 2003'
	DB	'\Vc7\atlmfc\include\afxtempl.h', 00H
	ORG $+1
$SG189056 DB	'D:\Program Files (x86)\Microsoft Visual Studio .NET 2003'
	DB	'\Vc7\atlmfc\include\afxtempl.h', 00H
	ORG $+1
$SG189073 DB	'D:\Program Files (x86)\Microsoft Visual Studio .NET 2003'
	DB	'\Vc7\atlmfc\include\afxtempl.h', 00H
	ORG $+1
$SG189098 DB	'D:\Program Files (x86)\Microsoft Visual Studio .NET 2003'
	DB	'\Vc7\atlmfc\include\afxtempl.h', 00H
CONST	ENDS
;	COMDAT ?g_pfnGetThreadACP@ATL@@3P6GIXZA
_DATA	SEGMENT
?g_pfnGetThreadACP@ATL@@3P6GIXZA DD FLAT:?_AtlGetThreadACPThunk@ATL@@YGIXZ ; ATL::g_pfnGetThreadACP
_DATA	ENDS
PUBLIC	?GetThisMessageMap@CSubSkinButton@@KGPBUAFX_MSGMAP@@XZ ; CSubSkinButton::GetThisMessageMap
EXTRN	__RTC_InitBase:NEAR
EXTRN	__RTC_Shutdown:NEAR
;	COMDAT rtc$IMZ
; File d:\boxgit\playbox\playbox\dev\prj\playbox\src\layoutmgr\changecolor\subskinbutton.cpp
rtc$IMZ	SEGMENT
__RTC_InitBase.rtc$IMZ DD FLAT:__RTC_InitBase
rtc$IMZ	ENDS
;	COMDAT rtc$TMZ
rtc$TMZ	SEGMENT
__RTC_Shutdown.rtc$TMZ DD FLAT:__RTC_Shutdown
; Function compile flags: /Odt /RTCsu
rtc$TMZ	ENDS
_TEXT	SEGMENT
?GetThisMessageMap@CSubSkinButton@@KGPBUAFX_MSGMAP@@XZ PROC NEAR ; CSubSkinButton::GetThisMessageMap

; 10   : BEGIN_MESSAGE_MAP(CSubSkinButton,CSkinButton)

  00000	55		 push	 ebp
  00001	8b ec		 mov	 ebp, esp
  00003	b8 00 00 00 00	 mov	 eax, OFFSET FLAT:?messageMap@CSubSkinButton@@1UAFX_MSGMAP@@B ; CSubSkinButton::messageMap
  00008	5d		 pop	 ebp
  00009	c3		 ret	 0
?GetThisMessageMap@CSubSkinButton@@KGPBUAFX_MSGMAP@@XZ ENDP ; CSubSkinButton::GetThisMessageMap
_TEXT	ENDS
PUBLIC	?GetMessageMap@CSubSkinButton@@MBEPBUAFX_MSGMAP@@XZ ; CSubSkinButton::GetMessageMap
; Function compile flags: /Odt /RTCsu
_TEXT	SEGMENT
_this$ = -4						; size = 4
?GetMessageMap@CSubSkinButton@@MBEPBUAFX_MSGMAP@@XZ PROC NEAR ; CSubSkinButton::GetMessageMap
; _this$ = ecx

; 10   : BEGIN_MESSAGE_MAP(CSubSkinButton,CSkinButton)

  00010	55		 push	 ebp
  00011	8b ec		 mov	 ebp, esp
  00013	51		 push	 ecx
  00014	c7 45 fc cc cc
	cc cc		 mov	 DWORD PTR [ebp-4], -858993460 ; ccccccccH
  0001b	89 4d fc	 mov	 DWORD PTR _this$[ebp], ecx
  0001e	b8 00 00 00 00	 mov	 eax, OFFSET FLAT:?messageMap@CSubSkinButton@@1UAFX_MSGMAP@@B ; CSubSkinButton::messageMap
  00023	8b e5		 mov	 esp, ebp
  00025	5d		 pop	 ebp
  00026	c3		 ret	 0
?GetMessageMap@CSubSkinButton@@MBEPBUAFX_MSGMAP@@XZ ENDP ; CSubSkinButton::GetMessageMap
_TEXT	ENDS
PUBLIC	??_R1A@?0A@A@CWnd@@8				; CWnd::`RTTI Base Class Descriptor at (0,-1,0,0)'
PUBLIC	??_R0?AVCWnd@@@8				; CWnd `RTTI Type Descriptor'
PUBLIC	??_R1A@?0A@A@CCmdTarget@@8			; CCmdTarget::`RTTI Base Class Descriptor at (0,-1,0,0)'
PUBLIC	??_R0?AVCCmdTarget@@@8				; CCmdTarget `RTTI Type Descriptor'
PUBLIC	??_R1A@?0A@A@CObject@@8				; CObject::`RTTI Base Class Descriptor at (0,-1,0,0)'
PUBLIC	??_R0?AVCObject@@@8				; CObject `RTTI Type Descriptor'
PUBLIC	??_R4CSubSkinButton@@6B@			; CSubSkinButton::`RTTI Complete Object Locator'
PUBLIC	??_R0?AVCSubSkinButton@@@8			; CSubSkinButton `RTTI Type Descriptor'
PUBLIC	??_R3CSubSkinButton@@8				; CSubSkinButton::`RTTI Class Hierarchy Descriptor'
PUBLIC	??_R2CSubSkinButton@@8				; CSubSkinButton::`RTTI Base Class Array'
PUBLIC	??_R1A@?0A@A@CSubSkinButton@@8			; CSubSkinButton::`RTTI Base Class Descriptor at (0,-1,0,0)'
PUBLIC	??_R1A@?0A@A@CSkinButton@@8			; CSkinButton::`RTTI Base Class Descriptor at (0,-1,0,0)'
PUBLIC	??_R0?AVCSkinButton@@@8				; CSkinButton `RTTI Type Descriptor'
PUBLIC	??_R1A@?0A@A@CButton@@8				; CButton::`RTTI Base Class Descriptor at (0,-1,0,0)'
PUBLIC	??_R0?AVCButton@@@8				; CButton `RTTI Type Descriptor'
PUBLIC	?DrawItem@CSubSkinButton@@MAEXPAUtagDRAWITEMSTRUCT@@@Z ; CSubSkinButton::DrawItem
PUBLIC	??0CSubSkinButton@@QAE@XZ			; CSubSkinButton::CSubSkinButton
PUBLIC	?SetPngHoverSkin@CSubSkinButton@@UAEHV?$CStringT@DV?$StrTraitMFC_DLL@DV?$ChTraitsCRT@D@ATL@@@@@ATL@@@Z ; CSubSkinButton::SetPngHoverSkin
PUBLIC	?SetPngFrame@CSubSkinButton@@UAEHV?$CStringT@DV?$StrTraitMFC_DLL@DV?$ChTraitsCRT@D@ATL@@@@@ATL@@@Z ; CSubSkinButton::SetPngFrame
PUBLIC	?IsClickPng@CSubSkinButton@@UAEHXZ		; CSubSkinButton::IsClickPng
PUBLIC	?SetClickPng@CSubSkinButton@@UAEXH@Z		; CSubSkinButton::SetClickPng
PUBLIC	??_7CSubSkinButton@@6B@				; CSubSkinButton::`vftable'
PUBLIC	??_GCSubSkinButton@@UAEPAXI@Z			; CSubSkinButton::`scalar deleting destructor'
EXTRN	?GetInterfaceMap@CWnd@@MBEPBUAFX_INTERFACEMAP@@XZ:NEAR ; CWnd::GetInterfaceMap
EXTRN	?EnsureStdObj@CWnd@@UAEJXZ:NEAR			; CWnd::EnsureStdObj
EXTRN	?get_accParent@CWnd@@UAEJPAPAUIDispatch@@@Z:NEAR ; CWnd::get_accParent
EXTRN	?OnCmdMsg@CCmdTarget@@UAEHIHPAXPAUAFX_CMDHANDLERINFO@@@Z:NEAR ; CCmdTarget::OnCmdMsg
EXTRN	?get_accChildCount@CWnd@@UAEJPAJ@Z:NEAR		; CWnd::get_accChildCount
EXTRN	?IsInvokeAllowed@CCmdTarget@@UAEHJ@Z:NEAR	; CCmdTarget::IsInvokeAllowed
EXTRN	?get_accChild@CWnd@@UAEJUtagVARIANT@@PAPAUIDispatch@@@Z:NEAR ; CWnd::get_accChild
EXTRN	?get_accName@CWnd@@UAEJUtagVARIANT@@PAPA_W@Z:NEAR ; CWnd::get_accName
EXTRN	?get_accValue@CWnd@@UAEJUtagVARIANT@@PAPA_W@Z:NEAR ; CWnd::get_accValue
EXTRN	?GetDispatchIID@CCmdTarget@@UAEHPAU_GUID@@@Z:NEAR ; CCmdTarget::GetDispatchIID
EXTRN	?GetTypeInfoCount@CCmdTarget@@UAEIXZ:NEAR	; CCmdTarget::GetTypeInfoCount
EXTRN	?GetTypeLibCache@CCmdTarget@@UAEPAVCTypeLibCache@@XZ:NEAR ; CCmdTarget::GetTypeLibCache
EXTRN	?get_accDescription@CWnd@@UAEJUtagVARIANT@@PAPA_W@Z:NEAR ; CWnd::get_accDescription
EXTRN	?GetTypeLib@CCmdTarget@@UAEJKPAPAUITypeLib@@@Z:NEAR ; CCmdTarget::GetTypeLib
EXTRN	?get_accRole@CWnd@@UAEJUtagVARIANT@@PAU2@@Z:NEAR ; CWnd::get_accRole
EXTRN	?get_accState@CWnd@@UAEJUtagVARIANT@@PAU2@@Z:NEAR ; CWnd::get_accState
EXTRN	?get_accHelp@CWnd@@UAEJUtagVARIANT@@PAPA_W@Z:NEAR ; CWnd::get_accHelp
EXTRN	?get_accHelpTopic@CWnd@@UAEJPAPA_WUtagVARIANT@@PAJ@Z:NEAR ; CWnd::get_accHelpTopic
EXTRN	__RTC_CheckEsp:NEAR
EXTRN	?get_accKeyboardShortcut@CWnd@@UAEJUtagVARIANT@@PAPA_W@Z:NEAR ; CWnd::get_accKeyboardShortcut
EXTRN	?get_accFocus@CWnd@@UAEJPAUtagVARIANT@@@Z:NEAR	; CWnd::get_accFocus
EXTRN	?get_accSelection@CWnd@@UAEJPAUtagVARIANT@@@Z:NEAR ; CWnd::get_accSelection
EXTRN	?get_accDefaultAction@CWnd@@UAEJUtagVARIANT@@PAPA_W@Z:NEAR ; CWnd::get_accDefaultAction
EXTRN	?GetCommandMap@CCmdTarget@@MBEPBUAFX_OLECMDMAP@@XZ:NEAR ; CCmdTarget::GetCommandMap
EXTRN	?accSelect@CWnd@@UAEJJUtagVARIANT@@@Z:NEAR	; CWnd::accSelect
EXTRN	?accLocation@CWnd@@UAEJPAJ000UtagVARIANT@@@Z:NEAR ; CWnd::accLocation
EXTRN	?GetDispatchMap@CCmdTarget@@MBEPBUAFX_DISPMAP@@XZ:NEAR ; CCmdTarget::GetDispatchMap
EXTRN	?accNavigate@CWnd@@UAEJJUtagVARIANT@@PAU2@@Z:NEAR ; CWnd::accNavigate
EXTRN	?accHitTest@CWnd@@UAEJJJPAUtagVARIANT@@@Z:NEAR	; CWnd::accHitTest
EXTRN	?GetConnectionMap@CCmdTarget@@MBEPBUAFX_CONNECTIONMAP@@XZ:NEAR ; CCmdTarget::GetConnectionMap
EXTRN	?accDoDefaultAction@CWnd@@UAEJUtagVARIANT@@@Z:NEAR ; CWnd::accDoDefaultAction
EXTRN	?put_accName@CWnd@@UAEJUtagVARIANT@@PA_W@Z:NEAR	; CWnd::put_accName
EXTRN	?put_accValue@CWnd@@UAEJUtagVARIANT@@PA_W@Z:NEAR ; CWnd::put_accValue
EXTRN	?SetProxy@CWnd@@UAEJPAUIAccessibleProxy@@@Z:NEAR ; CWnd::SetProxy
EXTRN	?CreateAccessibleProxy@CWnd@@UAEJIJPAJ@Z:NEAR	; CWnd::CreateAccessibleProxy
EXTRN	?GetEventSinkMap@CCmdTarget@@MBEPBUAFX_EVENTSINKMAP@@XZ:NEAR ; CCmdTarget::GetEventSinkMap
EXTRN	?OnCreateAggregates@CCmdTarget@@UAEHXZ:NEAR	; CCmdTarget::OnCreateAggregates
EXTRN	?OnCommand@CWnd@@MAEHIJ@Z:NEAR			; CWnd::OnCommand
EXTRN	?GetInterfaceHook@CCmdTarget@@UAEPAUIUnknown@@PBX@Z:NEAR ; CCmdTarget::GetInterfaceHook
EXTRN	?OnNotify@CWnd@@MAEHIJPAJ@Z:NEAR		; CWnd::OnNotify
EXTRN	?GetExtraConnectionPoints@CCmdTarget@@MAEHPAVCPtrArray@@@Z:NEAR ; CCmdTarget::GetExtraConnectionPoints
EXTRN	?GetConnectionHook@CCmdTarget@@MAEPAUIConnectionPoint@@ABU_GUID@@@Z:NEAR ; CCmdTarget::GetConnectionHook
EXTRN	?PreSubclassWindow@CWnd@@UAEXXZ:NEAR		; CWnd::PreSubclassWindow
EXTRN	?Create@CWnd@@UAEHPBD0KABUtagRECT@@PAV1@IPAUCCreateContext@@@Z:NEAR ; CWnd::Create
EXTRN	?CreateEx@CWnd@@UAEHKPBD0KHHHHPAUHWND__@@PAUHMENU__@@PAX@Z:NEAR ; CWnd::CreateEx
EXTRN	?CreateEx@CWnd@@UAEHKPBD0KABUtagRECT@@PAV1@IPAX@Z:NEAR ; CWnd::CreateEx
EXTRN	?Serialize@CObject@@UAEXAAVCArchive@@@Z:NEAR	; CObject::Serialize
EXTRN	?DestroyWindow@CWnd@@UAEHXZ:NEAR		; CWnd::DestroyWindow
EXTRN	?PreCreateWindow@CWnd@@UAEHAAUtagCREATESTRUCTA@@@Z:NEAR ; CWnd::PreCreateWindow
EXTRN	?CalcWindowRect@CWnd@@UAEXPAUtagRECT@@I@Z:NEAR	; CWnd::CalcWindowRect
EXTRN	?GetSuperWndProcAddr@CWnd@@MAEPAP6GJPAUHWND__@@IIJ@ZXZ:NEAR ; CWnd::GetSuperWndProcAddr
EXTRN	?DoDataExchange@CWnd@@MAEXPAVCDataExchange@@@Z:NEAR ; CWnd::DoDataExchange
EXTRN	?BeginModalState@CWnd@@UAEXXZ:NEAR		; CWnd::BeginModalState
EXTRN	?EndModalState@CWnd@@UAEXXZ:NEAR		; CWnd::EndModalState
EXTRN	?PreTranslateMessage@CWnd@@UAEHPAUtagMSG@@@Z:NEAR ; CWnd::PreTranslateMessage
EXTRN	?OnAmbientProperty@CWnd@@UAEHPAVCOleControlSite@@JPAUtagVARIANT@@@Z:NEAR ; CWnd::OnAmbientProperty
EXTRN	?WindowProc@CWnd@@MAEJIIJ@Z:NEAR		; CWnd::WindowProc
EXTRN	?OnWndMsg@CWnd@@MAEHIIJPAJ@Z:NEAR		; CWnd::OnWndMsg
EXTRN	?DefWindowProcA@CWnd@@MAEJIIJ@Z:NEAR		; CWnd::DefWindowProcA
EXTRN	?PostNcDestroy@CWnd@@MAEXXZ:NEAR		; CWnd::PostNcDestroy
EXTRN	?CheckAutoCenter@CWnd@@UAEHXZ:NEAR		; CWnd::CheckAutoCenter
EXTRN	?AssertValid@CWnd@@UBEXXZ:NEAR			; CWnd::AssertValid
EXTRN	?Dump@CWnd@@UBEXAAVCDumpContext@@@Z:NEAR	; CWnd::Dump
EXTRN	?IsFrameWnd@CWnd@@UBEHXZ:NEAR			; CWnd::IsFrameWnd
EXTRN	?OnFinalRelease@CWnd@@UAEXXZ:NEAR		; CWnd::OnFinalRelease
EXTRN	?CreateControlContainer@CWnd@@MAEHPAPAVCOleControlContainer@@@Z:NEAR ; CWnd::CreateControlContainer
EXTRN	?CreateControlSite@CWnd@@MAEHPAVCOleControlContainer@@PAPAVCOleControlSite@@IABU_GUID@@@Z:NEAR ; CWnd::CreateControlSite
EXTRN	?SetOccDialogInfo@CWnd@@MAEHPAU_AFX_OCC_DIALOG_INFO@@@Z:NEAR ; CWnd::SetOccDialogInfo
EXTRN	?GetRuntimeClass@CSkinButton@@UBEPAUCRuntimeClass@@XZ:NEAR ; CSkinButton::GetRuntimeClass
EXTRN	??0CSkinButton@@QAE@XZ:NEAR			; CSkinButton::CSkinButton
EXTRN	__imp_??0?$CStringT@DV?$StrTraitMFC_DLL@DV?$ChTraitsCRT@D@ATL@@@@@ATL@@QAE@XZ:NEAR
EXTRN	?OnToolHitTest@CWnd@@UBEHVCPoint@@PAUtagTOOLINFOA@@@Z:NEAR ; CWnd::OnToolHitTest
EXTRN	?GetScrollBarCtrl@CWnd@@UBEPAVCScrollBar@@H@Z:NEAR ; CWnd::GetScrollBarCtrl
EXTRN	?Create@CButton@@UAEHPBDKABUtagRECT@@PAVCWnd@@I@Z:NEAR ; CButton::Create
EXTRN	?OnChildNotify@CButton@@MAEHIIJPAJ@Z:NEAR	; CButton::OnChildNotify
EXTRN	??_ECSubSkinButton@@UAEPAXI@Z:NEAR		; CSubSkinButton::`vector deleting destructor'
EXTRN	?WinHelpA@CWnd@@UAEXKI@Z:NEAR			; CWnd::WinHelpA
EXTRN	?HtmlHelpA@CWnd@@UAEXKI@Z:NEAR			; CWnd::HtmlHelpA
EXTRN	??_7type_info@@6B@:QWORD			; type_info::`vftable'
EXTRN	?WinHelpInternal@CWnd@@UAEXKI@Z:NEAR		; CWnd::WinHelpInternal
EXTRN	?ContinueModal@CWnd@@UAEHXZ:NEAR		; CWnd::ContinueModal
EXTRN	?EndModalLoop@CWnd@@UAEXH@Z:NEAR		; CWnd::EndModalLoop
;	COMDAT ??_7CSubSkinButton@@6B@
CONST	SEGMENT
??_7CSubSkinButton@@6B@ DD FLAT:??_R4CSubSkinButton@@6B@ ; CSubSkinButton::`vftable'
	DD	FLAT:?GetRuntimeClass@CSkinButton@@UBEPAUCRuntimeClass@@XZ
	DD	FLAT:??_ECSubSkinButton@@UAEPAXI@Z
	DD	FLAT:?Serialize@CObject@@UAEXAAVCArchive@@@Z
	DD	FLAT:?AssertValid@CWnd@@UBEXXZ
	DD	FLAT:?Dump@CWnd@@UBEXAAVCDumpContext@@@Z
	DD	FLAT:?OnCmdMsg@CCmdTarget@@UAEHIHPAXPAUAFX_CMDHANDLERINFO@@@Z
	DD	FLAT:?OnFinalRelease@CWnd@@UAEXXZ
	DD	FLAT:?IsInvokeAllowed@CCmdTarget@@UAEHJ@Z
	DD	FLAT:?GetDispatchIID@CCmdTarget@@UAEHPAU_GUID@@@Z
	DD	FLAT:?GetTypeInfoCount@CCmdTarget@@UAEIXZ
	DD	FLAT:?GetTypeLibCache@CCmdTarget@@UAEPAVCTypeLibCache@@XZ
	DD	FLAT:?GetTypeLib@CCmdTarget@@UAEJKPAPAUITypeLib@@@Z
	DD	FLAT:?GetMessageMap@CSubSkinButton@@MBEPBUAFX_MSGMAP@@XZ
	DD	FLAT:?GetCommandMap@CCmdTarget@@MBEPBUAFX_OLECMDMAP@@XZ
	DD	FLAT:?GetDispatchMap@CCmdTarget@@MBEPBUAFX_DISPMAP@@XZ
	DD	FLAT:?GetConnectionMap@CCmdTarget@@MBEPBUAFX_CONNECTIONMAP@@XZ
	DD	FLAT:?GetInterfaceMap@CWnd@@MBEPBUAFX_INTERFACEMAP@@XZ
	DD	FLAT:?GetEventSinkMap@CCmdTarget@@MBEPBUAFX_EVENTSINKMAP@@XZ
	DD	FLAT:?OnCreateAggregates@CCmdTarget@@UAEHXZ
	DD	FLAT:?GetInterfaceHook@CCmdTarget@@UAEPAUIUnknown@@PBX@Z
	DD	FLAT:?GetExtraConnectionPoints@CCmdTarget@@MAEHPAVCPtrArray@@@Z
	DD	FLAT:?GetConnectionHook@CCmdTarget@@MAEPAUIConnectionPoint@@ABU_GUID@@@Z
	DD	FLAT:?PreSubclassWindow@CWnd@@UAEXXZ
	DD	FLAT:?Create@CWnd@@UAEHPBD0KABUtagRECT@@PAV1@IPAUCCreateContext@@@Z
	DD	FLAT:?CreateEx@CWnd@@UAEHKPBD0KABUtagRECT@@PAV1@IPAX@Z
	DD	FLAT:?CreateEx@CWnd@@UAEHKPBD0KHHHHPAUHWND__@@PAUHMENU__@@PAX@Z
	DD	FLAT:?DestroyWindow@CWnd@@UAEHXZ
	DD	FLAT:?PreCreateWindow@CWnd@@UAEHAAUtagCREATESTRUCTA@@@Z
	DD	FLAT:?CalcWindowRect@CWnd@@UAEXPAUtagRECT@@I@Z
	DD	FLAT:?OnToolHitTest@CWnd@@UBEHVCPoint@@PAUtagTOOLINFOA@@@Z
	DD	FLAT:?GetScrollBarCtrl@CWnd@@UBEPAVCScrollBar@@H@Z
	DD	FLAT:?WinHelpA@CWnd@@UAEXKI@Z
	DD	FLAT:?HtmlHelpA@CWnd@@UAEXKI@Z
	DD	FLAT:?WinHelpInternal@CWnd@@UAEXKI@Z
	DD	FLAT:?ContinueModal@CWnd@@UAEHXZ
	DD	FLAT:?EndModalLoop@CWnd@@UAEXH@Z
	DD	FLAT:?EnsureStdObj@CWnd@@UAEJXZ
	DD	FLAT:?get_accParent@CWnd@@UAEJPAPAUIDispatch@@@Z
	DD	FLAT:?get_accChildCount@CWnd@@UAEJPAJ@Z
	DD	FLAT:?get_accChild@CWnd@@UAEJUtagVARIANT@@PAPAUIDispatch@@@Z
	DD	FLAT:?get_accName@CWnd@@UAEJUtagVARIANT@@PAPA_W@Z
	DD	FLAT:?get_accValue@CWnd@@UAEJUtagVARIANT@@PAPA_W@Z
	DD	FLAT:?get_accDescription@CWnd@@UAEJUtagVARIANT@@PAPA_W@Z
	DD	FLAT:?get_accRole@CWnd@@UAEJUtagVARIANT@@PAU2@@Z
	DD	FLAT:?get_accState@CWnd@@UAEJUtagVARIANT@@PAU2@@Z
	DD	FLAT:?get_accHelp@CWnd@@UAEJUtagVARIANT@@PAPA_W@Z
	DD	FLAT:?get_accHelpTopic@CWnd@@UAEJPAPA_WUtagVARIANT@@PAJ@Z
	DD	FLAT:?get_accKeyboardShortcut@CWnd@@UAEJUtagVARIANT@@PAPA_W@Z
	DD	FLAT:?get_accFocus@CWnd@@UAEJPAUtagVARIANT@@@Z
	DD	FLAT:?get_accSelection@CWnd@@UAEJPAUtagVARIANT@@@Z
	DD	FLAT:?get_accDefaultAction@CWnd@@UAEJUtagVARIANT@@PAPA_W@Z
	DD	FLAT:?accSelect@CWnd@@UAEJJUtagVARIANT@@@Z
	DD	FLAT:?accLocation@CWnd@@UAEJPAJ000UtagVARIANT@@@Z
	DD	FLAT:?accNavigate@CWnd@@UAEJJUtagVARIANT@@PAU2@@Z
	DD	FLAT:?accHitTest@CWnd@@UAEJJJPAUtagVARIANT@@@Z
	DD	FLAT:?accDoDefaultAction@CWnd@@UAEJUtagVARIANT@@@Z
	DD	FLAT:?put_accName@CWnd@@UAEJUtagVARIANT@@PA_W@Z
	DD	FLAT:?put_accValue@CWnd@@UAEJUtagVARIANT@@PA_W@Z
	DD	FLAT:?SetProxy@CWnd@@UAEJPAUIAccessibleProxy@@@Z
	DD	FLAT:?CreateAccessibleProxy@CWnd@@UAEJIJPAJ@Z
	DD	FLAT:?OnCommand@CWnd@@MAEHIJ@Z
	DD	FLAT:?OnNotify@CWnd@@MAEHIJPAJ@Z
	DD	FLAT:?GetSuperWndProcAddr@CWnd@@MAEPAP6GJPAUHWND__@@IIJ@ZXZ
	DD	FLAT:?DoDataExchange@CWnd@@MAEXPAVCDataExchange@@@Z
	DD	FLAT:?BeginModalState@CWnd@@UAEXXZ
	DD	FLAT:?EndModalState@CWnd@@UAEXXZ
	DD	FLAT:?PreTranslateMessage@CWnd@@UAEHPAUtagMSG@@@Z
	DD	FLAT:?OnAmbientProperty@CWnd@@UAEHPAVCOleControlSite@@JPAUtagVARIANT@@@Z
	DD	FLAT:?WindowProc@CWnd@@MAEJIIJ@Z
	DD	FLAT:?OnWndMsg@CWnd@@MAEHIIJPAJ@Z
	DD	FLAT:?DefWindowProcA@CWnd@@MAEJIIJ@Z
	DD	FLAT:?PostNcDestroy@CWnd@@MAEXXZ
	DD	FLAT:?OnChildNotify@CButton@@MAEHIIJPAJ@Z
	DD	FLAT:?CheckAutoCenter@CWnd@@UAEHXZ
	DD	FLAT:?IsFrameWnd@CWnd@@UBEHXZ
	DD	FLAT:?CreateControlContainer@CWnd@@MAEHPAPAVCOleControlContainer@@@Z
	DD	FLAT:?CreateControlSite@CWnd@@MAEHPAVCOleControlContainer@@PAPAVCOleControlSite@@IABU_GUID@@@Z
	DD	FLAT:?SetOccDialogInfo@CWnd@@MAEHPAU_AFX_OCC_DIALOG_INFO@@@Z
	DD	FLAT:?Create@CButton@@UAEHPBDKABUtagRECT@@PAVCWnd@@I@Z
	DD	FLAT:?DrawItem@CSubSkinButton@@MAEXPAUtagDRAWITEMSTRUCT@@@Z
	DD	FLAT:?SetPngHoverSkin@CSubSkinButton@@UAEHV?$CStringT@DV?$StrTraitMFC_DLL@DV?$ChTraitsCRT@D@ATL@@@@@ATL@@@Z
	DD	FLAT:?SetPngFrame@CSubSkinButton@@UAEHV?$CStringT@DV?$StrTraitMFC_DLL@DV?$ChTraitsCRT@D@ATL@@@@@ATL@@@Z
	DD	FLAT:?IsClickPng@CSubSkinButton@@UAEHXZ
	DD	FLAT:?SetClickPng@CSubSkinButton@@UAEXH@Z
CONST	ENDS
;	COMDAT ??_R4CSubSkinButton@@6B@
rdata$r	SEGMENT
??_R4CSubSkinButton@@6B@ DD 00H				; CSubSkinButton::`RTTI Complete Object Locator'
	DD	00H
	DD	00H
	DD	FLAT:??_R0?AVCSubSkinButton@@@8
	DD	FLAT:??_R3CSubSkinButton@@8
rdata$r	ENDS
;	COMDAT ??_R0?AVCSubSkinButton@@@8
_DATA	SEGMENT
??_R0?AVCSubSkinButton@@@8 DD FLAT:??_7type_info@@6B@	; CSubSkinButton `RTTI Type Descriptor'
	DD	00H
	DB	'.?AVCSubSkinButton@@', 00H
_DATA	ENDS
;	COMDAT ??_R3CSubSkinButton@@8
rdata$r	SEGMENT
??_R3CSubSkinButton@@8 DD 00H				; CSubSkinButton::`RTTI Class Hierarchy Descriptor'
	DD	00H
	DD	06H
	DD	FLAT:??_R2CSubSkinButton@@8
rdata$r	ENDS
;	COMDAT ??_R2CSubSkinButton@@8
rdata$r	SEGMENT
??_R2CSubSkinButton@@8 DD FLAT:??_R1A@?0A@A@CSubSkinButton@@8 ; CSubSkinButton::`RTTI Base Class Array'
	DD	FLAT:??_R1A@?0A@A@CSkinButton@@8
	DD	FLAT:??_R1A@?0A@A@CButton@@8
	DD	FLAT:??_R1A@?0A@A@CWnd@@8
	DD	FLAT:??_R1A@?0A@A@CCmdTarget@@8
	DD	FLAT:??_R1A@?0A@A@CObject@@8
rdata$r	ENDS
;	COMDAT ??_R1A@?0A@A@CSubSkinButton@@8
rdata$r	SEGMENT
??_R1A@?0A@A@CSubSkinButton@@8 DD FLAT:??_R0?AVCSubSkinButton@@@8 ; CSubSkinButton::`RTTI Base Class Descriptor at (0,-1,0,0)'
	DD	05H
	DD	00H
	DD	0ffffffffH
	DD	00H
	DD	00H
rdata$r	ENDS
;	COMDAT ??_R1A@?0A@A@CSkinButton@@8
rdata$r	SEGMENT
??_R1A@?0A@A@CSkinButton@@8 DD FLAT:??_R0?AVCSkinButton@@@8 ; CSkinButton::`RTTI Base Class Descriptor at (0,-1,0,0)'
	DD	04H
	DD	00H
	DD	0ffffffffH
	DD	00H
	DD	00H
rdata$r	ENDS
;	COMDAT ??_R0?AVCSkinButton@@@8
_DATA	SEGMENT
??_R0?AVCSkinButton@@@8 DD FLAT:??_7type_info@@6B@	; CSkinButton `RTTI Type Descriptor'
	DD	00H
	DB	'.?AVCSkinButton@@', 00H
_DATA	ENDS
;	COMDAT ??_R1A@?0A@A@CButton@@8
rdata$r	SEGMENT
??_R1A@?0A@A@CButton@@8 DD FLAT:??_R0?AVCButton@@@8	; CButton::`RTTI Base Class Descriptor at (0,-1,0,0)'
	DD	03H
	DD	00H
	DD	0ffffffffH
	DD	00H
	DD	00H
rdata$r	ENDS
;	COMDAT ??_R0?AVCButton@@@8
_DATA	SEGMENT
??_R0?AVCButton@@@8 DD FLAT:??_7type_info@@6B@		; CButton `RTTI Type Descriptor'
	DD	00H
	DB	'.?AVCButton@@', 00H
_DATA	ENDS
;	COMDAT ??_R1A@?0A@A@CWnd@@8
rdata$r	SEGMENT
??_R1A@?0A@A@CWnd@@8 DD FLAT:??_R0?AVCWnd@@@8		; CWnd::`RTTI Base Class Descriptor at (0,-1,0,0)'
	DD	02H
	DD	00H
	DD	0ffffffffH
	DD	00H
	DD	00H
rdata$r	ENDS
;	COMDAT ??_R0?AVCWnd@@@8
_DATA	SEGMENT
??_R0?AVCWnd@@@8 DD FLAT:??_7type_info@@6B@		; CWnd `RTTI Type Descriptor'
	DD	00H
	DB	'.?AVCWnd@@', 00H
_DATA	ENDS
;	COMDAT ??_R1A@?0A@A@CCmdTarget@@8
rdata$r	SEGMENT
??_R1A@?0A@A@CCmdTarget@@8 DD FLAT:??_R0?AVCCmdTarget@@@8 ; CCmdTarget::`RTTI Base Class Descriptor at (0,-1,0,0)'
	DD	01H
	DD	00H
	DD	0ffffffffH
	DD	00H
	DD	00H
rdata$r	ENDS
;	COMDAT ??_R0?AVCCmdTarget@@@8
_DATA	SEGMENT
??_R0?AVCCmdTarget@@@8 DD FLAT:??_7type_info@@6B@	; CCmdTarget `RTTI Type Descriptor'
	DD	00H
	DB	'.?AVCCmdTarget@@', 00H
_DATA	ENDS
;	COMDAT ??_R1A@?0A@A@CObject@@8
rdata$r	SEGMENT
??_R1A@?0A@A@CObject@@8 DD FLAT:??_R0?AVCObject@@@8	; CObject::`RTTI Base Class Descriptor at (0,-1,0,0)'
	DD	00H
	DD	00H
	DD	0ffffffffH
	DD	00H
	DD	00H
rdata$r	ENDS
;	COMDAT ??_R0?AVCObject@@@8
_DATA	SEGMENT
??_R0?AVCObject@@@8 DD FLAT:??_7type_info@@6B@		; CObject `RTTI Type Descriptor'
	DD	00H
	DB	'.?AVCObject@@', 00H
; Function compile flags: /Odt /RTCsu
_DATA	ENDS
_TEXT	SEGMENT
_this$ = -4						; size = 4
??0CSubSkinButton@@QAE@XZ PROC NEAR			; CSubSkinButton::CSubSkinButton
; _this$ = ecx

; 21   : {

  00030	55		 push	 ebp
  00031	8b ec		 mov	 ebp, esp
  00033	51		 push	 ecx
  00034	56		 push	 esi
  00035	c7 45 fc cc cc
	cc cc		 mov	 DWORD PTR [ebp-4], -858993460 ; ccccccccH
  0003c	89 4d fc	 mov	 DWORD PTR _this$[ebp], ecx
  0003f	8b 4d fc	 mov	 ecx, DWORD PTR _this$[ebp]
  00042	e8 00 00 00 00	 call	 ??0CSkinButton@@QAE@XZ	; CSkinButton::CSkinButton
  00047	8b 45 fc	 mov	 eax, DWORD PTR _this$[ebp]
  0004a	c7 00 00 00 00
	00		 mov	 DWORD PTR [eax], OFFSET FLAT:??_7CSubSkinButton@@6B@
  00050	8b 4d fc	 mov	 ecx, DWORD PTR _this$[ebp]
  00053	81 c1 4c 01 00
	00		 add	 ecx, 332		; 0000014cH
  00059	8b f4		 mov	 esi, esp
  0005b	ff 15 00 00 00
	00		 call	 DWORD PTR __imp_??0?$CStringT@DV?$StrTraitMFC_DLL@DV?$ChTraitsCRT@D@ATL@@@@@ATL@@QAE@XZ
  00061	3b f4		 cmp	 esi, esp
  00063	e8 00 00 00 00	 call	 __RTC_CheckEsp

; 22   : 	//m_pPngHoverImage = NULL;
; 23   : 	m_pPngDeleteDown = NULL;

  00068	8b 4d fc	 mov	 ecx, DWORD PTR _this$[ebp]
  0006b	c7 81 34 01 00
	00 00 00 00 00	 mov	 DWORD PTR [ecx+308], 0

; 24   : 	m_pPngDeleteOver = NULL;

  00075	8b 55 fc	 mov	 edx, DWORD PTR _this$[ebp]
  00078	c7 82 38 01 00
	00 00 00 00 00	 mov	 DWORD PTR [edx+312], 0

; 25   : 	m_pPngDeleteNormal = NULL;

  00082	8b 45 fc	 mov	 eax, DWORD PTR _this$[ebp]
  00085	c7 80 3c 01 00
	00 00 00 00 00	 mov	 DWORD PTR [eax+316], 0

; 26   : 
; 27   : 	m_pPngFrame = NULL;

  0008f	8b 4d fc	 mov	 ecx, DWORD PTR _this$[ebp]
  00092	c7 81 40 01 00
	00 00 00 00 00	 mov	 DWORD PTR [ecx+320], 0

; 28   : 	m_bClickPng = 0;

  0009c	8b 55 fc	 mov	 edx, DWORD PTR _this$[ebp]
  0009f	c7 82 44 01 00
	00 00 00 00 00	 mov	 DWORD PTR [edx+324], 0

; 29   : 	m_bShowDel = FALSE;

  000a9	8b 45 fc	 mov	 eax, DWORD PTR _this$[ebp]
  000ac	c7 80 48 01 00
	00 00 00 00 00	 mov	 DWORD PTR [eax+328], 0

; 30   : }

  000b6	8b 45 fc	 mov	 eax, DWORD PTR _this$[ebp]
  000b9	5e		 pop	 esi
  000ba	83 c4 04	 add	 esp, 4
  000bd	3b ec		 cmp	 ebp, esp
  000bf	e8 00 00 00 00	 call	 __RTC_CheckEsp
  000c4	8b e5		 mov	 esp, ebp
  000c6	5d		 pop	 ebp
  000c7	c3		 ret	 0
??0CSubSkinButton@@QAE@XZ ENDP				; CSubSkinButton::CSubSkinButton
_TEXT	ENDS
PUBLIC	??1CSubSkinButton@@UAE@XZ			; CSubSkinButton::~CSubSkinButton
EXTRN	??3CObject@@SGXPAX@Z:NEAR			; CObject::operator delete
; Function compile flags: /Odt /RTCsu
;	COMDAT ??_GCSubSkinButton@@UAEPAXI@Z
_TEXT	SEGMENT
_this$ = -4						; size = 4
___flags$ = 8						; size = 4
??_GCSubSkinButton@@UAEPAXI@Z PROC NEAR			; CSubSkinButton::`scalar deleting destructor', COMDAT
; _this$ = ecx
  00000	55		 push	 ebp
  00001	8b ec		 mov	 ebp, esp
  00003	51		 push	 ecx
  00004	c7 45 fc cc cc
	cc cc		 mov	 DWORD PTR [ebp-4], -858993460 ; ccccccccH
  0000b	89 4d fc	 mov	 DWORD PTR _this$[ebp], ecx
  0000e	8b 4d fc	 mov	 ecx, DWORD PTR _this$[ebp]
  00011	e8 00 00 00 00	 call	 ??1CSubSkinButton@@UAE@XZ ; CSubSkinButton::~CSubSkinButton
  00016	8b 45 08	 mov	 eax, DWORD PTR ___flags$[ebp]
  00019	83 e0 01	 and	 eax, 1
  0001c	74 09		 je	 SHORT $L188470
  0001e	8b 4d fc	 mov	 ecx, DWORD PTR _this$[ebp]
  00021	51		 push	 ecx
  00022	e8 00 00 00 00	 call	 ??3CObject@@SGXPAX@Z	; CObject::operator delete
$L188470:
  00027	8b 45 fc	 mov	 eax, DWORD PTR _this$[ebp]
  0002a	83 c4 04	 add	 esp, 4
  0002d	3b ec		 cmp	 ebp, esp
  0002f	e8 00 00 00 00	 call	 __RTC_CheckEsp
  00034	8b e5		 mov	 esp, ebp
  00036	5d		 pop	 ebp
  00037	c2 04 00	 ret	 4
??_GCSubSkinButton@@UAEPAXI@Z ENDP			; CSubSkinButton::`scalar deleting destructor'
_TEXT	ENDS
EXTRN	__except_list:DWORD
EXTRN	___CxxFrameHandler:NEAR
EXTRN	??1CSkinButton@@UAE@XZ:NEAR			; CSkinButton::~CSkinButton
EXTRN	__imp_??1?$CStringT@DV?$StrTraitMFC_DLL@DV?$ChTraitsCRT@D@ATL@@@@@ATL@@QAE@XZ:NEAR
xdata$x	SEGMENT
$T189669 DD	0ffffffffH
	DD	FLAT:$L189661
	DD	00H
	DD	FLAT:$L189662
$T189666 DD	019930520H
	DD	02H
	DD	FLAT:$T189669
	DD	2 DUP(00H)
	DD	2 DUP(00H)
; Function compile flags: /Odt /RTCsu
xdata$x	ENDS
_TEXT	SEGMENT
tv140 = -64						; size = 4
tv130 = -60						; size = 4
tv88 = -56						; size = 4
tv78 = -52						; size = 4
$T189658 = -48						; size = 4
$T189657 = -44						; size = 4
$T189654 = -40						; size = 4
$T189653 = -36						; size = 4
$T189650 = -32						; size = 4
$T189649 = -28						; size = 4
$T189646 = -24						; size = 4
$T189645 = -20						; size = 4
_this$ = -16						; size = 4
__$EHRec$ = -12						; size = 12
??1CSubSkinButton@@UAE@XZ PROC NEAR			; CSubSkinButton::~CSubSkinButton
; _this$ = ecx

; 33   : {

  000d0	55		 push	 ebp
  000d1	8b ec		 mov	 ebp, esp
  000d3	6a ff		 push	 -1
  000d5	68 00 00 00 00	 push	 __ehhandler$??1CSubSkinButton@@UAE@XZ
  000da	64 a1 00 00 00
	00		 mov	 eax, DWORD PTR fs:__except_list
  000e0	50		 push	 eax
  000e1	64 89 25 00 00
	00 00		 mov	 DWORD PTR fs:__except_list, esp
  000e8	83 ec 34	 sub	 esp, 52			; 00000034H
  000eb	56		 push	 esi
  000ec	57		 push	 edi
  000ed	51		 push	 ecx
  000ee	8d 7d c0	 lea	 edi, DWORD PTR [ebp-64]
  000f1	b9 0d 00 00 00	 mov	 ecx, 13			; 0000000dH
  000f6	b8 cc cc cc cc	 mov	 eax, -858993460		; ccccccccH
  000fb	f3 ab		 rep stosd
  000fd	59		 pop	 ecx
  000fe	89 4d f0	 mov	 DWORD PTR _this$[ebp], ecx
  00101	8b 45 f0	 mov	 eax, DWORD PTR _this$[ebp]
  00104	c7 00 00 00 00
	00		 mov	 DWORD PTR [eax], OFFSET FLAT:??_7CSubSkinButton@@6B@
  0010a	c7 45 fc 01 00
	00 00		 mov	 DWORD PTR __$EHRec$[ebp+8], 1

; 34   : 	//if(m_pPngHoverImage) delete m_pPngHoverImage;
; 35   : 	if(m_pPngDeleteDown) delete m_pPngDeleteDown;

  00111	8b 4d f0	 mov	 ecx, DWORD PTR _this$[ebp]
  00114	83 b9 34 01 00
	00 00		 cmp	 DWORD PTR [ecx+308], 0
  0011b	74 39		 je	 SHORT $L188474
  0011d	8b 55 f0	 mov	 edx, DWORD PTR _this$[ebp]
  00120	8b 82 34 01 00
	00		 mov	 eax, DWORD PTR [edx+308]
  00126	89 45 e8	 mov	 DWORD PTR $T189646[ebp], eax
  00129	8b 4d e8	 mov	 ecx, DWORD PTR $T189646[ebp]
  0012c	89 4d ec	 mov	 DWORD PTR $T189645[ebp], ecx
  0012f	83 7d ec 00	 cmp	 DWORD PTR $T189645[ebp], 0
  00133	74 1a		 je	 SHORT $L189647
  00135	8b f4		 mov	 esi, esp
  00137	6a 01		 push	 1
  00139	8b 55 ec	 mov	 edx, DWORD PTR $T189645[ebp]
  0013c	8b 02		 mov	 eax, DWORD PTR [edx]
  0013e	8b 4d ec	 mov	 ecx, DWORD PTR $T189645[ebp]
  00141	ff 10		 call	 DWORD PTR [eax]
  00143	3b f4		 cmp	 esi, esp
  00145	e8 00 00 00 00	 call	 __RTC_CheckEsp
  0014a	89 45 cc	 mov	 DWORD PTR tv78[ebp], eax
  0014d	eb 07		 jmp	 SHORT $L188474
$L189647:
  0014f	c7 45 cc 00 00
	00 00		 mov	 DWORD PTR tv78[ebp], 0
$L188474:

; 36   : 	if(m_pPngDeleteOver) delete m_pPngDeleteOver;

  00156	8b 4d f0	 mov	 ecx, DWORD PTR _this$[ebp]
  00159	83 b9 38 01 00
	00 00		 cmp	 DWORD PTR [ecx+312], 0
  00160	74 39		 je	 SHORT $L188477
  00162	8b 55 f0	 mov	 edx, DWORD PTR _this$[ebp]
  00165	8b 82 38 01 00
	00		 mov	 eax, DWORD PTR [edx+312]
  0016b	89 45 e0	 mov	 DWORD PTR $T189650[ebp], eax
  0016e	8b 4d e0	 mov	 ecx, DWORD PTR $T189650[ebp]
  00171	89 4d e4	 mov	 DWORD PTR $T189649[ebp], ecx
  00174	83 7d e4 00	 cmp	 DWORD PTR $T189649[ebp], 0
  00178	74 1a		 je	 SHORT $L189651
  0017a	8b f4		 mov	 esi, esp
  0017c	6a 01		 push	 1
  0017e	8b 55 e4	 mov	 edx, DWORD PTR $T189649[ebp]
  00181	8b 02		 mov	 eax, DWORD PTR [edx]
  00183	8b 4d e4	 mov	 ecx, DWORD PTR $T189649[ebp]
  00186	ff 10		 call	 DWORD PTR [eax]
  00188	3b f4		 cmp	 esi, esp
  0018a	e8 00 00 00 00	 call	 __RTC_CheckEsp
  0018f	89 45 c8	 mov	 DWORD PTR tv88[ebp], eax
  00192	eb 07		 jmp	 SHORT $L188477
$L189651:
  00194	c7 45 c8 00 00
	00 00		 mov	 DWORD PTR tv88[ebp], 0
$L188477:

; 37   : 	if(m_pPngDeleteNormal) delete m_pPngDeleteNormal;

  0019b	8b 4d f0	 mov	 ecx, DWORD PTR _this$[ebp]
  0019e	83 b9 3c 01 00
	00 00		 cmp	 DWORD PTR [ecx+316], 0
  001a5	74 39		 je	 SHORT $L188480
  001a7	8b 55 f0	 mov	 edx, DWORD PTR _this$[ebp]
  001aa	8b 82 3c 01 00
	00		 mov	 eax, DWORD PTR [edx+316]
  001b0	89 45 d8	 mov	 DWORD PTR $T189654[ebp], eax
  001b3	8b 4d d8	 mov	 ecx, DWORD PTR $T189654[ebp]
  001b6	89 4d dc	 mov	 DWORD PTR $T189653[ebp], ecx
  001b9	83 7d dc 00	 cmp	 DWORD PTR $T189653[ebp], 0
  001bd	74 1a		 je	 SHORT $L189655
  001bf	8b f4		 mov	 esi, esp
  001c1	6a 01		 push	 1
  001c3	8b 55 dc	 mov	 edx, DWORD PTR $T189653[ebp]
  001c6	8b 02		 mov	 eax, DWORD PTR [edx]
  001c8	8b 4d dc	 mov	 ecx, DWORD PTR $T189653[ebp]
  001cb	ff 10		 call	 DWORD PTR [eax]
  001cd	3b f4		 cmp	 esi, esp
  001cf	e8 00 00 00 00	 call	 __RTC_CheckEsp
  001d4	89 45 c4	 mov	 DWORD PTR tv130[ebp], eax
  001d7	eb 07		 jmp	 SHORT $L188480
$L189655:
  001d9	c7 45 c4 00 00
	00 00		 mov	 DWORD PTR tv130[ebp], 0
$L188480:

; 38   : 	if(m_pPngFrame) delete m_pPngFrame;

  001e0	8b 4d f0	 mov	 ecx, DWORD PTR _this$[ebp]
  001e3	83 b9 40 01 00
	00 00		 cmp	 DWORD PTR [ecx+320], 0
  001ea	74 39		 je	 SHORT $L188473
  001ec	8b 55 f0	 mov	 edx, DWORD PTR _this$[ebp]
  001ef	8b 82 40 01 00
	00		 mov	 eax, DWORD PTR [edx+320]
  001f5	89 45 d0	 mov	 DWORD PTR $T189658[ebp], eax
  001f8	8b 4d d0	 mov	 ecx, DWORD PTR $T189658[ebp]
  001fb	89 4d d4	 mov	 DWORD PTR $T189657[ebp], ecx
  001fe	83 7d d4 00	 cmp	 DWORD PTR $T189657[ebp], 0
  00202	74 1a		 je	 SHORT $L189659
  00204	8b f4		 mov	 esi, esp
  00206	6a 01		 push	 1
  00208	8b 55 d4	 mov	 edx, DWORD PTR $T189657[ebp]
  0020b	8b 02		 mov	 eax, DWORD PTR [edx]
  0020d	8b 4d d4	 mov	 ecx, DWORD PTR $T189657[ebp]
  00210	ff 10		 call	 DWORD PTR [eax]
  00212	3b f4		 cmp	 esi, esp
  00214	e8 00 00 00 00	 call	 __RTC_CheckEsp
  00219	89 45 c0	 mov	 DWORD PTR tv140[ebp], eax
  0021c	eb 07		 jmp	 SHORT $L188473
$L189659:
  0021e	c7 45 c0 00 00
	00 00		 mov	 DWORD PTR tv140[ebp], 0
$L188473:

; 39   : }

  00225	c6 45 fc 00	 mov	 BYTE PTR __$EHRec$[ebp+8], 0
  00229	8b 4d f0	 mov	 ecx, DWORD PTR _this$[ebp]
  0022c	81 c1 4c 01 00
	00		 add	 ecx, 332		; 0000014cH
  00232	8b f4		 mov	 esi, esp
  00234	ff 15 00 00 00
	00		 call	 DWORD PTR __imp_??1?$CStringT@DV?$StrTraitMFC_DLL@DV?$ChTraitsCRT@D@ATL@@@@@ATL@@QAE@XZ
  0023a	3b f4		 cmp	 esi, esp
  0023c	e8 00 00 00 00	 call	 __RTC_CheckEsp
  00241	c7 45 fc ff ff
	ff ff		 mov	 DWORD PTR __$EHRec$[ebp+8], -1
  00248	8b 4d f0	 mov	 ecx, DWORD PTR _this$[ebp]
  0024b	e8 00 00 00 00	 call	 ??1CSkinButton@@UAE@XZ	; CSkinButton::~CSkinButton
  00250	8b 4d f4	 mov	 ecx, DWORD PTR __$EHRec$[ebp]
  00253	64 89 0d 00 00
	00 00		 mov	 DWORD PTR fs:__except_list, ecx
  0025a	5f		 pop	 edi
  0025b	5e		 pop	 esi
  0025c	83 c4 40	 add	 esp, 64			; 00000040H
  0025f	3b ec		 cmp	 ebp, esp
  00261	e8 00 00 00 00	 call	 __RTC_CheckEsp
  00266	8b e5		 mov	 esp, ebp
  00268	5d		 pop	 ebp
  00269	c3		 ret	 0
_TEXT	ENDS
text$x	SEGMENT
$L189661:
  00000	8b 4d f0	 mov	 ecx, DWORD PTR _this$[ebp]
  00003	e9 00 00 00 00	 jmp	 ??1CSkinButton@@UAE@XZ	; CSkinButton::~CSkinButton
$L189662:
  00008	8b 4d f0	 mov	 ecx, DWORD PTR _this$[ebp]
  0000b	81 c1 4c 01 00
	00		 add	 ecx, 332		; 0000014cH
  00011	8b f4		 mov	 esi, esp
  00013	ff 15 00 00 00
	00		 call	 DWORD PTR __imp_??1?$CStringT@DV?$StrTraitMFC_DLL@DV?$ChTraitsCRT@D@ATL@@@@@ATL@@QAE@XZ
  00019	3b f4		 cmp	 esi, esp
  0001b	e9 00 00 00 00	 jmp	 __RTC_CheckEsp
__ehhandler$??1CSubSkinButton@@UAE@XZ:
  00020	b8 00 00 00 00	 mov	 eax, OFFSET FLAT:$T189666
  00025	e9 00 00 00 00	 jmp	 ___CxxFrameHandler
text$x	ENDS
??1CSubSkinButton@@UAE@XZ ENDP				; CSubSkinButton::~CSubSkinButton
PUBLIC	??HATL@@YA?AV?$CStringT@DV?$StrTraitMFC_DLL@DV?$ChTraitsCRT@D@ATL@@@@@0@PBDABV10@@Z ; ATL::operator+
PUBLIC	?GetWidth@Image@Gdiplus@@QAEIXZ			; Gdiplus::Image::GetWidth
PUBLIC	?GetHeight@Image@Gdiplus@@QAEIXZ		; Gdiplus::Image::GetHeight
EXTRN	@_RTC_CheckStackVars@8:NEAR
EXTRN	??0CRect@@QAE@XZ:NEAR				; CRect::CRect
EXTRN	?SetRect@CRect@@QAEXHHHH@Z:NEAR			; CRect::SetRect
EXTRN	__imp_??0?$basic_string@DU?$char_traits@D@std@@V?$allocator@D@2@@std@@QAE@PBD@Z:NEAR
EXTRN	__imp_??1?$basic_string@DU?$char_traits@D@std@@V?$allocator@D@2@@std@@QAE@XZ:NEAR
EXTRN	__imp_?LogUserActMsg@@YAXABV?$basic_string@DU?$char_traits@D@std@@V?$allocator@D@2@@std@@0@Z:NEAR
EXTRN	__imp_??B?$CSimpleStringT@D$00@ATL@@QBEPBDXZ:NEAR
EXTRN	?GetClientRect@CWnd@@QBEXPAUtagRECT@@@Z:NEAR	; CWnd::GetClientRect
EXTRN	__imp__PtInRect@12:NEAR
EXTRN	_strcmp:NEAR
EXTRN	?OnLButtonDown@CSkinButton@@QAEXIVCPoint@@@Z:NEAR ; CSkinButton::OnLButtonDown
xdata$x	SEGMENT
$T189687 DD	0ffffffffH
	DD	FLAT:$L189676
	DD	00H
	DD	FLAT:$L189677
	DD	01H
	DD	FLAT:$L189678
$T189680 DD	019930520H
	DD	03H
	DD	FLAT:$T189687
	DD	2 DUP(00H)
	DD	2 DUP(00H)
; Function compile flags: /Odt /RTCsu
xdata$x	ENDS
_TEXT	SEGMENT
tv160 = -148						; size = 4
tv165 = -144						; size = 4
tv158 = -140						; size = 4
tv162 = -136						; size = 4
$T189675 = -132						; size = 28
$T189674 = -104						; size = 4
$T189673 = -100						; size = 28
$T189672 = -72						; size = 8
_delrc$ = -60						; size = 16
_rc$ = -36						; size = 16
_this$ = -16						; size = 4
__$EHRec$ = -12						; size = 12
_nFlags$ = 8						; size = 4
_point$ = 12						; size = 8
?OnLButtonDown@CSubSkinButton@@QAEXIVCPoint@@@Z PROC NEAR ; CSubSkinButton::OnLButtonDown
; _this$ = ecx

; 42   : {

  00270	55		 push	 ebp
  00271	8b ec		 mov	 ebp, esp
  00273	6a ff		 push	 -1
  00275	68 00 00 00 00	 push	 __ehhandler$?OnLButtonDown@CSubSkinButton@@QAEXIVCPoint@@@Z
  0027a	64 a1 00 00 00
	00		 mov	 eax, DWORD PTR fs:__except_list
  00280	50		 push	 eax
  00281	64 89 25 00 00
	00 00		 mov	 DWORD PTR fs:__except_list, esp
  00288	81 ec 88 00 00
	00		 sub	 esp, 136		; 00000088H
  0028e	56		 push	 esi
  0028f	57		 push	 edi
  00290	51		 push	 ecx
  00291	8d bd 6c ff ff
	ff		 lea	 edi, DWORD PTR [ebp-148]
  00297	b9 22 00 00 00	 mov	 ecx, 34			; 00000022H
  0029c	b8 cc cc cc cc	 mov	 eax, -858993460		; ccccccccH
  002a1	f3 ab		 rep stosd
  002a3	59		 pop	 ecx
  002a4	89 4d f0	 mov	 DWORD PTR _this$[ebp], ecx

; 43   : 	CRect rc;

  002a7	8d 4d dc	 lea	 ecx, DWORD PTR _rc$[ebp]
  002aa	e8 00 00 00 00	 call	 ??0CRect@@QAE@XZ	; CRect::CRect

; 44   : 	GetClientRect(&rc);

  002af	8d 45 dc	 lea	 eax, DWORD PTR _rc$[ebp]
  002b2	50		 push	 eax
  002b3	8b 4d f0	 mov	 ecx, DWORD PTR _this$[ebp]
  002b6	e8 00 00 00 00	 call	 ?GetClientRect@CWnd@@QBEXPAUtagRECT@@@Z ; CWnd::GetClientRect

; 45   : 	CRect delrc;

  002bb	8d 4d c4	 lea	 ecx, DWORD PTR _delrc$[ebp]
  002be	e8 00 00 00 00	 call	 ??0CRect@@QAE@XZ	; CRect::CRect

; 46   : 
; 47   : 	if(m_pPngDeleteNormal)

  002c3	8b 4d f0	 mov	 ecx, DWORD PTR _this$[ebp]
  002c6	83 b9 3c 01 00
	00 00		 cmp	 DWORD PTR [ecx+316], 0
  002cd	0f 84 a2 01 00
	00		 je	 $L188493

; 48   : 	{
; 49   : 		delrc.SetRect(rc.right-m_pPngDeleteNormal->m_pBitmap->GetWidth()-5,2,rc.right+2,2+m_pPngDeleteNormal->m_pBitmap->GetHeight());

  002d3	8b 55 f0	 mov	 edx, DWORD PTR _this$[ebp]
  002d6	8b 82 3c 01 00
	00		 mov	 eax, DWORD PTR [edx+316]
  002dc	8b 48 04	 mov	 ecx, DWORD PTR [eax+4]
  002df	e8 00 00 00 00	 call	 ?GetHeight@Image@Gdiplus@@QAEIXZ ; Gdiplus::Image::GetHeight
  002e4	83 c0 02	 add	 eax, 2
  002e7	50		 push	 eax
  002e8	8b 4d e4	 mov	 ecx, DWORD PTR _rc$[ebp+8]
  002eb	83 c1 02	 add	 ecx, 2
  002ee	51		 push	 ecx
  002ef	6a 02		 push	 2
  002f1	8b 55 f0	 mov	 edx, DWORD PTR _this$[ebp]
  002f4	8b 82 3c 01 00
	00		 mov	 eax, DWORD PTR [edx+316]
  002fa	8b 48 04	 mov	 ecx, DWORD PTR [eax+4]
  002fd	e8 00 00 00 00	 call	 ?GetWidth@Image@Gdiplus@@QAEIXZ ; Gdiplus::Image::GetWidth
  00302	8b 4d e4	 mov	 ecx, DWORD PTR _rc$[ebp+8]
  00305	2b c8		 sub	 ecx, eax
  00307	83 e9 05	 sub	 ecx, 5
  0030a	51		 push	 ecx
  0030b	8d 4d c4	 lea	 ecx, DWORD PTR _delrc$[ebp]
  0030e	e8 00 00 00 00	 call	 ?SetRect@CRect@@QAEXHHHH@Z ; CRect::SetRect

; 50   : 		if(PtInRect(&delrc,point)&& strcmp(m_string,"1"))//&&m_bShowDel

  00313	8b 55 0c	 mov	 edx, DWORD PTR _point$[ebp]
  00316	89 55 b8	 mov	 DWORD PTR $T189672[ebp], edx
  00319	8b 45 10	 mov	 eax, DWORD PTR _point$[ebp+4]
  0031c	89 45 bc	 mov	 DWORD PTR $T189672[ebp+4], eax
  0031f	8b f4		 mov	 esi, esp
  00321	8b 4d bc	 mov	 ecx, DWORD PTR $T189672[ebp+4]
  00324	51		 push	 ecx
  00325	8b 55 b8	 mov	 edx, DWORD PTR $T189672[ebp]
  00328	52		 push	 edx
  00329	8d 45 c4	 lea	 eax, DWORD PTR _delrc$[ebp]
  0032c	50		 push	 eax
  0032d	ff 15 00 00 00
	00		 call	 DWORD PTR __imp__PtInRect@12
  00333	3b f4		 cmp	 esi, esp
  00335	e8 00 00 00 00	 call	 __RTC_CheckEsp
  0033a	85 c0		 test	 eax, eax
  0033c	0f 84 33 01 00
	00		 je	 $L188493
  00342	68 00 00 00 00	 push	 OFFSET FLAT:$SG188496
  00347	8b 4d f0	 mov	 ecx, DWORD PTR _this$[ebp]
  0034a	81 c1 18 01 00
	00		 add	 ecx, 280		; 00000118H
  00350	8b f4		 mov	 esi, esp
  00352	ff 15 00 00 00
	00		 call	 DWORD PTR __imp_??B?$CSimpleStringT@D$00@ATL@@QBEPBDXZ
  00358	3b f4		 cmp	 esi, esp
  0035a	e8 00 00 00 00	 call	 __RTC_CheckEsp
  0035f	50		 push	 eax
  00360	e8 00 00 00 00	 call	 _strcmp
  00365	83 c4 08	 add	 esp, 8
  00368	85 c0		 test	 eax, eax
  0036a	0f 84 05 01 00
	00		 je	 $L188493

; 51   : 		{
; 52   : 			m_bClickPng = 1;

  00370	8b 4d f0	 mov	 ecx, DWORD PTR _this$[ebp]
  00373	c7 81 44 01 00
	00 01 00 00 00	 mov	 DWORD PTR [ecx+324], 1

; 53   : 			LogUserActMsg(STR_USER_CLICK, string("BTN:DELETE_BTN_"+m_string));

  0037d	8b f4		 mov	 esi, esp
  0037f	68 00 00 00 00	 push	 OFFSET FLAT:$SG188501
  00384	8d 8d 7c ff ff
	ff		 lea	 ecx, DWORD PTR $T189675[ebp]
  0038a	ff 15 00 00 00
	00		 call	 DWORD PTR __imp_??0?$basic_string@DU?$char_traits@D@std@@V?$allocator@D@2@@std@@QAE@PBD@Z
  00390	3b f4		 cmp	 esi, esp
  00392	e8 00 00 00 00	 call	 __RTC_CheckEsp
  00397	c7 45 fc 00 00
	00 00		 mov	 DWORD PTR __$EHRec$[ebp+8], 0
  0039e	8b 55 f0	 mov	 edx, DWORD PTR _this$[ebp]
  003a1	81 c2 18 01 00
	00		 add	 edx, 280		; 00000118H
  003a7	52		 push	 edx
  003a8	68 00 00 00 00	 push	 OFFSET FLAT:$SG188500
  003ad	8d 45 98	 lea	 eax, DWORD PTR $T189674[ebp]
  003b0	50		 push	 eax
  003b1	e8 00 00 00 00	 call	 ??HATL@@YA?AV?$CStringT@DV?$StrTraitMFC_DLL@DV?$ChTraitsCRT@D@ATL@@@@@0@PBDABV10@@Z ; ATL::operator+
  003b6	83 c4 0c	 add	 esp, 12			; 0000000cH
  003b9	89 85 78 ff ff
	ff		 mov	 DWORD PTR tv162[ebp], eax
  003bf	8b 8d 78 ff ff
	ff		 mov	 ecx, DWORD PTR tv162[ebp]
  003c5	89 8d 74 ff ff
	ff		 mov	 DWORD PTR tv158[ebp], ecx
  003cb	c6 45 fc 01	 mov	 BYTE PTR __$EHRec$[ebp+8], 1
  003cf	8b f4		 mov	 esi, esp
  003d1	8b 8d 74 ff ff
	ff		 mov	 ecx, DWORD PTR tv158[ebp]
  003d7	ff 15 00 00 00
	00		 call	 DWORD PTR __imp_??B?$CSimpleStringT@D$00@ATL@@QBEPBDXZ
  003dd	3b f4		 cmp	 esi, esp
  003df	e8 00 00 00 00	 call	 __RTC_CheckEsp
  003e4	8b f4		 mov	 esi, esp
  003e6	50		 push	 eax
  003e7	8d 4d 9c	 lea	 ecx, DWORD PTR $T189673[ebp]
  003ea	ff 15 00 00 00
	00		 call	 DWORD PTR __imp_??0?$basic_string@DU?$char_traits@D@std@@V?$allocator@D@2@@std@@QAE@PBD@Z
  003f0	3b f4		 cmp	 esi, esp
  003f2	e8 00 00 00 00	 call	 __RTC_CheckEsp
  003f7	89 85 70 ff ff
	ff		 mov	 DWORD PTR tv165[ebp], eax
  003fd	8b 95 70 ff ff
	ff		 mov	 edx, DWORD PTR tv165[ebp]
  00403	89 95 6c ff ff
	ff		 mov	 DWORD PTR tv160[ebp], edx
  00409	c6 45 fc 02	 mov	 BYTE PTR __$EHRec$[ebp+8], 2
  0040d	8b f4		 mov	 esi, esp
  0040f	8b 85 6c ff ff
	ff		 mov	 eax, DWORD PTR tv160[ebp]
  00415	50		 push	 eax
  00416	8d 8d 7c ff ff
	ff		 lea	 ecx, DWORD PTR $T189675[ebp]
  0041c	51		 push	 ecx
  0041d	ff 15 00 00 00
	00		 call	 DWORD PTR __imp_?LogUserActMsg@@YAXABV?$basic_string@DU?$char_traits@D@std@@V?$allocator@D@2@@std@@0@Z
  00423	83 c4 08	 add	 esp, 8
  00426	3b f4		 cmp	 esi, esp
  00428	e8 00 00 00 00	 call	 __RTC_CheckEsp
  0042d	c6 45 fc 01	 mov	 BYTE PTR __$EHRec$[ebp+8], 1
  00431	8b f4		 mov	 esi, esp
  00433	8d 4d 9c	 lea	 ecx, DWORD PTR $T189673[ebp]
  00436	ff 15 00 00 00
	00		 call	 DWORD PTR __imp_??1?$basic_string@DU?$char_traits@D@std@@V?$allocator@D@2@@std@@QAE@XZ
  0043c	3b f4		 cmp	 esi, esp
  0043e	e8 00 00 00 00	 call	 __RTC_CheckEsp
  00443	c6 45 fc 00	 mov	 BYTE PTR __$EHRec$[ebp+8], 0
  00447	8b f4		 mov	 esi, esp
  00449	8d 4d 98	 lea	 ecx, DWORD PTR $T189674[ebp]
  0044c	ff 15 00 00 00
	00		 call	 DWORD PTR __imp_??1?$CStringT@DV?$StrTraitMFC_DLL@DV?$ChTraitsCRT@D@ATL@@@@@ATL@@QAE@XZ
  00452	3b f4		 cmp	 esi, esp
  00454	e8 00 00 00 00	 call	 __RTC_CheckEsp
  00459	c7 45 fc ff ff
	ff ff		 mov	 DWORD PTR __$EHRec$[ebp+8], -1
  00460	8b f4		 mov	 esi, esp
  00462	8d 8d 7c ff ff
	ff		 lea	 ecx, DWORD PTR $T189675[ebp]
  00468	ff 15 00 00 00
	00		 call	 DWORD PTR __imp_??1?$basic_string@DU?$char_traits@D@std@@V?$allocator@D@2@@std@@QAE@XZ
  0046e	3b f4		 cmp	 esi, esp
  00470	e8 00 00 00 00	 call	 __RTC_CheckEsp
$L188493:

; 54   : 		}
; 55   : 	}
; 56   : 	CSkinButton::OnLButtonDown(nFlags, point);

  00475	8b 55 10	 mov	 edx, DWORD PTR _point$[ebp+4]
  00478	52		 push	 edx
  00479	8b 45 0c	 mov	 eax, DWORD PTR _point$[ebp]
  0047c	50		 push	 eax
  0047d	8b 4d 08	 mov	 ecx, DWORD PTR _nFlags$[ebp]
  00480	51		 push	 ecx
  00481	8b 4d f0	 mov	 ecx, DWORD PTR _this$[ebp]
  00484	e8 00 00 00 00	 call	 ?OnLButtonDown@CSkinButton@@QAEXIVCPoint@@@Z ; CSkinButton::OnLButtonDown

; 57   : }

  00489	52		 push	 edx
  0048a	8b cd		 mov	 ecx, ebp
  0048c	50		 push	 eax
  0048d	8d 15 00 00 00
	00		 lea	 edx, DWORD PTR $L189685
  00493	e8 00 00 00 00	 call	 @_RTC_CheckStackVars@8
  00498	58		 pop	 eax
  00499	5a		 pop	 edx
  0049a	8b 4d f4	 mov	 ecx, DWORD PTR __$EHRec$[ebp]
  0049d	64 89 0d 00 00
	00 00		 mov	 DWORD PTR fs:__except_list, ecx
  004a4	5f		 pop	 edi
  004a5	5e		 pop	 esi
  004a6	81 c4 94 00 00
	00		 add	 esp, 148		; 00000094H
  004ac	3b ec		 cmp	 ebp, esp
  004ae	e8 00 00 00 00	 call	 __RTC_CheckEsp
  004b3	8b e5		 mov	 esp, ebp
  004b5	5d		 pop	 ebp
  004b6	c2 0c 00	 ret	 12			; 0000000cH
$L189685:
  004b9	02 00 00 00	 DD	 2
  004bd	00 00 00 00	 DD	 $L189684
$L189684:
  004c1	dc ff ff ff	 DD	 -36			; ffffffdcH
  004c5	10 00 00 00	 DD	 16			; 00000010H
  004c9	00 00 00 00	 DD	 $L189681
  004cd	c4 ff ff ff	 DD	 -60			; ffffffc4H
  004d1	10 00 00 00	 DD	 16			; 00000010H
  004d5	00 00 00 00	 DD	 $L189682
$L189682:
  004d9	64		 DB	 100			; 00000064H
  004da	65		 DB	 101			; 00000065H
  004db	6c		 DB	 108			; 0000006cH
  004dc	72		 DB	 114			; 00000072H
  004dd	63		 DB	 99			; 00000063H
  004de	00		 DB	 0
$L189681:
  004df	72		 DB	 114			; 00000072H
  004e0	63		 DB	 99			; 00000063H
  004e1	00		 DB	 0
_TEXT	ENDS
text$x	SEGMENT
$L189676:
  0002a	8b f4		 mov	 esi, esp
  0002c	8d 8d 7c ff ff
	ff		 lea	 ecx, DWORD PTR $T189675[ebp]
  00032	ff 15 00 00 00
	00		 call	 DWORD PTR __imp_??1?$basic_string@DU?$char_traits@D@std@@V?$allocator@D@2@@std@@QAE@XZ
  00038	3b f4		 cmp	 esi, esp
  0003a	e9 00 00 00 00	 jmp	 __RTC_CheckEsp
$L189677:
  0003f	8b f4		 mov	 esi, esp
  00041	8d 4d 98	 lea	 ecx, DWORD PTR $T189674[ebp]
  00044	ff 15 00 00 00
	00		 call	 DWORD PTR __imp_??1?$CStringT@DV?$StrTraitMFC_DLL@DV?$ChTraitsCRT@D@ATL@@@@@ATL@@QAE@XZ
  0004a	3b f4		 cmp	 esi, esp
  0004c	e9 00 00 00 00	 jmp	 __RTC_CheckEsp
$L189678:
  00051	8b f4		 mov	 esi, esp
  00053	8d 4d 9c	 lea	 ecx, DWORD PTR $T189673[ebp]
  00056	ff 15 00 00 00
	00		 call	 DWORD PTR __imp_??1?$basic_string@DU?$char_traits@D@std@@V?$allocator@D@2@@std@@QAE@XZ
  0005c	3b f4		 cmp	 esi, esp
  0005e	e9 00 00 00 00	 jmp	 __RTC_CheckEsp
__ehhandler$?OnLButtonDown@CSubSkinButton@@QAEXIVCPoint@@@Z:
  00063	b8 00 00 00 00	 mov	 eax, OFFSET FLAT:$T189680
  00068	e9 00 00 00 00	 jmp	 ___CxxFrameHandler
text$x	ENDS
?OnLButtonDown@CSubSkinButton@@QAEXIVCPoint@@@Z ENDP	; CSubSkinButton::OnLButtonDown
PUBLIC	??0Graphics@Gdiplus@@QAE@PAUHDC__@@@Z		; Gdiplus::Graphics::Graphics
PUBLIC	??1Graphics@Gdiplus@@QAE@XZ			; Gdiplus::Graphics::~Graphics
PUBLIC	?ReleaseHDC@Graphics@Gdiplus@@QAEXPAUHDC__@@@Z	; Gdiplus::Graphics::ReleaseHDC
PUBLIC	?GetText@CSkinButton@@QBE?AV?$CStringT@DV?$StrTraitMFC_DLL@DV?$ChTraitsCRT@D@ATL@@@@@ATL@@XZ ; CSkinButton::GetText
PUBLIC	?DrawHoverImage@CSubSkinButton@@IAEXAAVGraphics@Gdiplus@@@Z ; CSubSkinButton::DrawHoverImage
PUBLIC	?DrawBtnFrame@CSubSkinButton@@IAEXAAVGraphics@Gdiplus@@@Z ; CSubSkinButton::DrawBtnFrame
EXTRN	__imp__CreateSolidBrush@4:NEAR
EXTRN	__imp__DeleteObject@4:NEAR
EXTRN	?AfxAssertFailedLine@@YGHPBDH@Z:NEAR		; AfxAssertFailedLine
EXTRN	??0CRect@@QAE@HHHH@Z:NEAR			; CRect::CRect
EXTRN	?GetBitmapDimension@CBitmap@@QBE?AVCSize@@XZ:NEAR ; CBitmap::GetBitmapDimension
EXTRN	?InflateRect@CRect@@QAEXHHHH@Z:NEAR		; CRect::InflateRect
EXTRN	?DrawButton@CButtonDraw@@QAEXPAVCWnd@@PAUtagDRAWITEMSTRUCT@@HHAAV?$CStringT@DV?$StrTraitMFC_DLL@DV?$ChTraitsCRT@D@ATL@@@@@ATL@@KKPAVCBitmap@@@Z:NEAR ; CButtonDraw::DrawButton
EXTRN	__imp__FrameRect@12:NEAR
EXTRN	__imp__InflateRect@12:NEAR
EXTRN	__imp_?Trim@?$CStringT@DV?$StrTraitMFC_DLL@DV?$ChTraitsCRT@D@ATL@@@@@ATL@@QAEAAV12@XZ:NEAR
xdata$x	SEGMENT
$T189706 DD	0ffffffffH
	DD	FLAT:$L189694
	DD	00H
	DD	FLAT:$L189695
$T189697 DD	019930520H
	DD	02H
	DD	FLAT:$T189706
	DD	2 DUP(00H)
	DD	2 DUP(00H)
; Function compile flags: /Odt /RTCsu
xdata$x	ENDS
_TEXT	SEGMENT
tv170 = -140						; size = 4
tv165 = -136						; size = 4
_hbru2$188532 = -132					; size = 4
_hHandle$188523 = -128					; size = 4
_lrcFrame$188522 = -120					; size = 16
_nY$188521 = -100					; size = 4
_nX$188520 = -96					; size = 4
_lisrcWidth$188519 = -92				; size = 4
_lisrcHight$188518 = -88				; size = 4
_aRect$188517 = -80					; size = 16
_lsize$188515 = -56					; size = 8
_graphics$ = -40					; size = 8
_lstrTitle$ = -24					; size = 4
_this$ = -16						; size = 4
__$EHRec$ = -12						; size = 12
_lpDrawItemStruct$ = 8					; size = 4
?DrawItem@CSubSkinButton@@MAEXPAUtagDRAWITEMSTRUCT@@@Z PROC NEAR ; CSubSkinButton::DrawItem
; _this$ = ecx

; 60   : {

  004f0	55		 push	 ebp
  004f1	8b ec		 mov	 ebp, esp
  004f3	6a ff		 push	 -1
  004f5	68 00 00 00 00	 push	 __ehhandler$?DrawItem@CSubSkinButton@@MAEXPAUtagDRAWITEMSTRUCT@@@Z
  004fa	64 a1 00 00 00
	00		 mov	 eax, DWORD PTR fs:__except_list
  00500	50		 push	 eax
  00501	64 89 25 00 00
	00 00		 mov	 DWORD PTR fs:__except_list, esp
  00508	81 ec 80 00 00
	00		 sub	 esp, 128		; 00000080H
  0050e	56		 push	 esi
  0050f	57		 push	 edi
  00510	51		 push	 ecx
  00511	8d bd 74 ff ff
	ff		 lea	 edi, DWORD PTR [ebp-140]
  00517	b9 20 00 00 00	 mov	 ecx, 32			; 00000020H
  0051c	b8 cc cc cc cc	 mov	 eax, -858993460		; ccccccccH
  00521	f3 ab		 rep stosd
  00523	59		 pop	 ecx
  00524	89 4d f0	 mov	 DWORD PTR _this$[ebp], ecx

; 61   : 	ASSERT(lpDrawItemStruct != NULL);

  00527	83 7d 08 00	 cmp	 DWORD PTR _lpDrawItemStruct$[ebp], 0
  0052b	75 11		 jne	 SHORT $L189689
  0052d	6a 3d		 push	 61			; 0000003dH
  0052f	68 00 00 00 00	 push	 OFFSET FLAT:$SG188507
  00534	e8 00 00 00 00	 call	 ?AfxAssertFailedLine@@YGHPBDH@Z ; AfxAssertFailedLine
  00539	85 c0		 test	 eax, eax
  0053b	74 01		 je	 SHORT $L189689
  0053d	cc		 int	 3
$L189689:

; 62   : 	CString lstrTitle = GetText();

  0053e	8d 4d e8	 lea	 ecx, DWORD PTR _lstrTitle$[ebp]
  00541	51		 push	 ecx
  00542	8b 4d f0	 mov	 ecx, DWORD PTR _this$[ebp]
  00545	e8 00 00 00 00	 call	 ?GetText@CSkinButton@@QBE?AV?$CStringT@DV?$StrTraitMFC_DLL@DV?$ChTraitsCRT@D@ATL@@@@@ATL@@XZ ; CSkinButton::GetText
  0054a	c7 45 fc 00 00
	00 00		 mov	 DWORD PTR __$EHRec$[ebp+8], 0

; 63   : 	lstrTitle.Trim();

  00551	8b f4		 mov	 esi, esp
  00553	8d 4d e8	 lea	 ecx, DWORD PTR _lstrTitle$[ebp]
  00556	ff 15 00 00 00
	00		 call	 DWORD PTR __imp_?Trim@?$CStringT@DV?$StrTraitMFC_DLL@DV?$ChTraitsCRT@D@ATL@@@@@ATL@@QAEAAV12@XZ
  0055c	3b f4		 cmp	 esi, esp
  0055e	e8 00 00 00 00	 call	 __RTC_CheckEsp

; 64   : 	m_ButtonDraw.DrawButton(this, lpDrawItemStruct,m_bottonType, mbMouseOnButton,lstrTitle, m_colBegain, m_colEnd,m_BitMap);

  00563	8b 55 f0	 mov	 edx, DWORD PTR _this$[ebp]
  00566	8b 42 6c	 mov	 eax, DWORD PTR [edx+108]
  00569	50		 push	 eax
  0056a	8b 4d f0	 mov	 ecx, DWORD PTR _this$[ebp]
  0056d	8b 91 20 01 00
	00		 mov	 edx, DWORD PTR [ecx+288]
  00573	52		 push	 edx
  00574	8b 45 f0	 mov	 eax, DWORD PTR _this$[ebp]
  00577	8b 88 1c 01 00
	00		 mov	 ecx, DWORD PTR [eax+284]
  0057d	51		 push	 ecx
  0057e	8d 55 e8	 lea	 edx, DWORD PTR _lstrTitle$[ebp]
  00581	52		 push	 edx
  00582	8b 45 f0	 mov	 eax, DWORD PTR _this$[ebp]
  00585	8b 88 f8 00 00
	00		 mov	 ecx, DWORD PTR [eax+248]
  0058b	51		 push	 ecx
  0058c	8b 55 f0	 mov	 edx, DWORD PTR _this$[ebp]
  0058f	8b 82 24 01 00
	00		 mov	 eax, DWORD PTR [edx+292]
  00595	50		 push	 eax
  00596	8b 4d 08	 mov	 ecx, DWORD PTR _lpDrawItemStruct$[ebp]
  00599	51		 push	 ecx
  0059a	8b 55 f0	 mov	 edx, DWORD PTR _this$[ebp]
  0059d	52		 push	 edx
  0059e	8b 4d f0	 mov	 ecx, DWORD PTR _this$[ebp]
  005a1	83 c1 58	 add	 ecx, 88			; 00000058H
  005a4	e8 00 00 00 00	 call	 ?DrawButton@CButtonDraw@@QAEXPAVCWnd@@PAUtagDRAWITEMSTRUCT@@HHAAV?$CStringT@DV?$StrTraitMFC_DLL@DV?$ChTraitsCRT@D@ATL@@@@@ATL@@KKPAVCBitmap@@@Z ; CButtonDraw::DrawButton

; 65   : 
; 66   : 	Gdiplus::Graphics graphics(lpDrawItemStruct->hDC);

  005a9	8b 45 08	 mov	 eax, DWORD PTR _lpDrawItemStruct$[ebp]
  005ac	8b 48 18	 mov	 ecx, DWORD PTR [eax+24]
  005af	51		 push	 ecx
  005b0	8d 4d d8	 lea	 ecx, DWORD PTR _graphics$[ebp]
  005b3	e8 00 00 00 00	 call	 ??0Graphics@Gdiplus@@QAE@PAUHDC__@@@Z ; Gdiplus::Graphics::Graphics
  005b8	c6 45 fc 01	 mov	 BYTE PTR __$EHRec$[ebp+8], 1

; 67   : 
; 68   : 	if(!mbMouseOnButton && !m_bSelected)

  005bc	8b 55 f0	 mov	 edx, DWORD PTR _this$[ebp]
  005bf	83 ba f8 00 00
	00 00		 cmp	 DWORD PTR [edx+248], 0
  005c6	75 1a		 jne	 SHORT $L188511
  005c8	8b 45 f0	 mov	 eax, DWORD PTR _this$[ebp]
  005cb	0f b6 88 f0 00
	00 00		 movzx	 ecx, BYTE PTR [eax+240]
  005d2	85 c9		 test	 ecx, ecx
  005d4	75 0c		 jne	 SHORT $L188511

; 69   : 		DrawBtnFrame(graphics);

  005d6	8d 55 d8	 lea	 edx, DWORD PTR _graphics$[ebp]
  005d9	52		 push	 edx
  005da	8b 4d f0	 mov	 ecx, DWORD PTR _this$[ebp]
  005dd	e8 00 00 00 00	 call	 ?DrawBtnFrame@CSubSkinButton@@IAEXAAVGraphics@Gdiplus@@@Z ; CSubSkinButton::DrawBtnFrame
$L188511:

; 70   : 
; 71   : 	if(mbMouseOnButton && strcmp(m_string,"1")) //&&m_bShowDel

  005e2	8b 45 f0	 mov	 eax, DWORD PTR _this$[ebp]
  005e5	83 b8 f8 00 00
	00 00		 cmp	 DWORD PTR [eax+248], 0
  005ec	74 36		 je	 SHORT $L188512
  005ee	68 00 00 00 00	 push	 OFFSET FLAT:$SG188513
  005f3	8b 4d f0	 mov	 ecx, DWORD PTR _this$[ebp]
  005f6	81 c1 18 01 00
	00		 add	 ecx, 280		; 00000118H
  005fc	8b f4		 mov	 esi, esp
  005fe	ff 15 00 00 00
	00		 call	 DWORD PTR __imp_??B?$CSimpleStringT@D$00@ATL@@QBEPBDXZ
  00604	3b f4		 cmp	 esi, esp
  00606	e8 00 00 00 00	 call	 __RTC_CheckEsp
  0060b	50		 push	 eax
  0060c	e8 00 00 00 00	 call	 _strcmp
  00611	83 c4 08	 add	 esp, 8
  00614	85 c0		 test	 eax, eax
  00616	74 0c		 je	 SHORT $L188512

; 72   : 	{
; 73   : 		DrawHoverImage(graphics);

  00618	8d 4d d8	 lea	 ecx, DWORD PTR _graphics$[ebp]
  0061b	51		 push	 ecx
  0061c	8b 4d f0	 mov	 ecx, DWORD PTR _this$[ebp]
  0061f	e8 00 00 00 00	 call	 ?DrawHoverImage@CSubSkinButton@@IAEXAAVGraphics@Gdiplus@@@Z ; CSubSkinButton::DrawHoverImage
$L188512:

; 74   : 	}
; 75   : 
; 76   : 	if( m_pPngImage && m_pPngImage->m_pBitmap && m_bSelected ) 

  00624	8b 55 f0	 mov	 edx, DWORD PTR _this$[ebp]
  00627	83 ba 28 01 00
	00 00		 cmp	 DWORD PTR [edx+296], 0
  0062e	0f 84 df 01 00
	00		 je	 $L188514
  00634	8b 45 f0	 mov	 eax, DWORD PTR _this$[ebp]
  00637	8b 88 28 01 00
	00		 mov	 ecx, DWORD PTR [eax+296]
  0063d	83 79 04 00	 cmp	 DWORD PTR [ecx+4], 0
  00641	0f 84 cc 01 00
	00		 je	 $L188514
  00647	8b 55 f0	 mov	 edx, DWORD PTR _this$[ebp]
  0064a	0f b6 82 f0 00
	00 00		 movzx	 eax, BYTE PTR [edx+240]
  00651	85 c0		 test	 eax, eax
  00653	0f 84 ba 01 00
	00		 je	 $L188514

; 77   : 	{
; 78   : 		CSize lsize = m_BitMap->GetBitmapDimension();

  00659	8d 4d c8	 lea	 ecx, DWORD PTR _lsize$188515[ebp]
  0065c	51		 push	 ecx
  0065d	8b 55 f0	 mov	 edx, DWORD PTR _this$[ebp]
  00660	8b 4a 6c	 mov	 ecx, DWORD PTR [edx+108]
  00663	e8 00 00 00 00	 call	 ?GetBitmapDimension@CBitmap@@QBE?AVCSize@@XZ ; CBitmap::GetBitmapDimension

; 79   : 
; 80   : 		RECT aRect = lpDrawItemStruct->rcItem;

  00668	8b 45 08	 mov	 eax, DWORD PTR _lpDrawItemStruct$[ebp]
  0066b	83 c0 1c	 add	 eax, 28			; 0000001cH
  0066e	8b 08		 mov	 ecx, DWORD PTR [eax]
  00670	89 4d b0	 mov	 DWORD PTR _aRect$188517[ebp], ecx
  00673	8b 50 04	 mov	 edx, DWORD PTR [eax+4]
  00676	89 55 b4	 mov	 DWORD PTR _aRect$188517[ebp+4], edx
  00679	8b 48 08	 mov	 ecx, DWORD PTR [eax+8]
  0067c	89 4d b8	 mov	 DWORD PTR _aRect$188517[ebp+8], ecx
  0067f	8b 50 0c	 mov	 edx, DWORD PTR [eax+12]
  00682	89 55 bc	 mov	 DWORD PTR _aRect$188517[ebp+12], edx

; 81   : 
; 82   : 		int lisrcHight = aRect.bottom - aRect.top;

  00685	8b 45 bc	 mov	 eax, DWORD PTR _aRect$188517[ebp+12]
  00688	2b 45 b4	 sub	 eax, DWORD PTR _aRect$188517[ebp+4]
  0068b	89 45 a8	 mov	 DWORD PTR _lisrcHight$188518[ebp], eax

; 83   : 		int lisrcWidth = aRect.right  - aRect.left; 

  0068e	8b 4d b8	 mov	 ecx, DWORD PTR _aRect$188517[ebp+8]
  00691	2b 4d b0	 sub	 ecx, DWORD PTR _aRect$188517[ebp]
  00694	89 4d a4	 mov	 DWORD PTR _lisrcWidth$188519[ebp], ecx

; 84   : 
; 85   : 		int nX = (lisrcWidth-lsize.cx)>4? (lisrcWidth-lsize.cx)/2:2;

  00697	8b 55 a4	 mov	 edx, DWORD PTR _lisrcWidth$188519[ebp]
  0069a	2b 55 c8	 sub	 edx, DWORD PTR _lsize$188515[ebp]
  0069d	83 fa 04	 cmp	 edx, 4
  006a0	7e 13		 jle	 SHORT $L189690
  006a2	8b 45 a4	 mov	 eax, DWORD PTR _lisrcWidth$188519[ebp]
  006a5	2b 45 c8	 sub	 eax, DWORD PTR _lsize$188515[ebp]
  006a8	99		 cdq
  006a9	2b c2		 sub	 eax, edx
  006ab	d1 f8		 sar	 eax, 1
  006ad	89 85 78 ff ff
	ff		 mov	 DWORD PTR tv165[ebp], eax
  006b3	eb 0a		 jmp	 SHORT $L189691
$L189690:
  006b5	c7 85 78 ff ff
	ff 02 00 00 00	 mov	 DWORD PTR tv165[ebp], 2
$L189691:
  006bf	8b 85 78 ff ff
	ff		 mov	 eax, DWORD PTR tv165[ebp]
  006c5	89 45 a0	 mov	 DWORD PTR _nX$188520[ebp], eax

; 86   : 		int nY = (lisrcHight-lsize.cy)>4? (lisrcHight-lsize.cy)/2:2;

  006c8	8b 4d a8	 mov	 ecx, DWORD PTR _lisrcHight$188518[ebp]
  006cb	2b 4d cc	 sub	 ecx, DWORD PTR _lsize$188515[ebp+4]
  006ce	83 f9 04	 cmp	 ecx, 4
  006d1	7e 13		 jle	 SHORT $L189692
  006d3	8b 45 a8	 mov	 eax, DWORD PTR _lisrcHight$188518[ebp]
  006d6	2b 45 cc	 sub	 eax, DWORD PTR _lsize$188515[ebp+4]
  006d9	99		 cdq
  006da	2b c2		 sub	 eax, edx
  006dc	d1 f8		 sar	 eax, 1
  006de	89 85 74 ff ff
	ff		 mov	 DWORD PTR tv170[ebp], eax
  006e4	eb 0a		 jmp	 SHORT $L189693
$L189692:
  006e6	c7 85 74 ff ff
	ff 02 00 00 00	 mov	 DWORD PTR tv170[ebp], 2
$L189693:
  006f0	8b 95 74 ff ff
	ff		 mov	 edx, DWORD PTR tv170[ebp]
  006f6	89 55 9c	 mov	 DWORD PTR _nY$188521[ebp], edx

; 87   : 		CRect lrcFrame(nX,nY,nX+lsize.cx, nY+lsize.cy);

  006f9	8b 45 9c	 mov	 eax, DWORD PTR _nY$188521[ebp]
  006fc	03 45 cc	 add	 eax, DWORD PTR _lsize$188515[ebp+4]
  006ff	50		 push	 eax
  00700	8b 4d a0	 mov	 ecx, DWORD PTR _nX$188520[ebp]
  00703	03 4d c8	 add	 ecx, DWORD PTR _lsize$188515[ebp]
  00706	51		 push	 ecx
  00707	8b 55 9c	 mov	 edx, DWORD PTR _nY$188521[ebp]
  0070a	52		 push	 edx
  0070b	8b 45 a0	 mov	 eax, DWORD PTR _nX$188520[ebp]
  0070e	50		 push	 eax
  0070f	8d 4d 88	 lea	 ecx, DWORD PTR _lrcFrame$188522[ebp]
  00712	e8 00 00 00 00	 call	 ??0CRect@@QAE@HHHH@Z	; CRect::CRect

; 88   : 		HBRUSH hHandle = 0;

  00717	c7 45 80 00 00
	00 00		 mov	 DWORD PTR _hHandle$188523[ebp], 0

; 89   : 		lrcFrame.InflateRect(1,1,1,1);

  0071e	6a 01		 push	 1
  00720	6a 01		 push	 1
  00722	6a 01		 push	 1
  00724	6a 01		 push	 1
  00726	8d 4d 88	 lea	 ecx, DWORD PTR _lrcFrame$188522[ebp]
  00729	e8 00 00 00 00	 call	 ?InflateRect@CRect@@QAEXHHHH@Z ; CRect::InflateRect

; 90   : 		hHandle = CreateSolidBrush(RGB(255,106,0));//(gWndColor.getColor(COLOL_CTROL)->structColBase->colFrame2);

  0072e	8b f4		 mov	 esi, esp
  00730	68 ff 6a 00 00	 push	 27391			; 00006affH
  00735	ff 15 00 00 00
	00		 call	 DWORD PTR __imp__CreateSolidBrush@4
  0073b	3b f4		 cmp	 esi, esp
  0073d	e8 00 00 00 00	 call	 __RTC_CheckEsp
  00742	89 45 80	 mov	 DWORD PTR _hHandle$188523[ebp], eax

; 91   : 		//::InflateRect(&lrcFrame,1,1);
; 92   : 		FrameRect(lpDrawItemStruct->hDC, &lrcFrame,(HBRUSH)hHandle );

  00745	8b f4		 mov	 esi, esp
  00747	8b 4d 80	 mov	 ecx, DWORD PTR _hHandle$188523[ebp]
  0074a	51		 push	 ecx
  0074b	8d 55 88	 lea	 edx, DWORD PTR _lrcFrame$188522[ebp]
  0074e	52		 push	 edx
  0074f	8b 45 08	 mov	 eax, DWORD PTR _lpDrawItemStruct$[ebp]
  00752	8b 48 18	 mov	 ecx, DWORD PTR [eax+24]
  00755	51		 push	 ecx
  00756	ff 15 00 00 00
	00		 call	 DWORD PTR __imp__FrameRect@12
  0075c	3b f4		 cmp	 esi, esp
  0075e	e8 00 00 00 00	 call	 __RTC_CheckEsp

; 93   : 		::InflateRect(&lrcFrame,-1,-1);

  00763	8b f4		 mov	 esi, esp
  00765	6a ff		 push	 -1
  00767	6a ff		 push	 -1
  00769	8d 55 88	 lea	 edx, DWORD PTR _lrcFrame$188522[ebp]
  0076c	52		 push	 edx
  0076d	ff 15 00 00 00
	00		 call	 DWORD PTR __imp__InflateRect@12
  00773	3b f4		 cmp	 esi, esp
  00775	e8 00 00 00 00	 call	 __RTC_CheckEsp

; 94   : 		FrameRect(lpDrawItemStruct->hDC, &lrcFrame,(HBRUSH)hHandle );

  0077a	8b f4		 mov	 esi, esp
  0077c	8b 45 80	 mov	 eax, DWORD PTR _hHandle$188523[ebp]
  0077f	50		 push	 eax
  00780	8d 4d 88	 lea	 ecx, DWORD PTR _lrcFrame$188522[ebp]
  00783	51		 push	 ecx
  00784	8b 55 08	 mov	 edx, DWORD PTR _lpDrawItemStruct$[ebp]
  00787	8b 42 18	 mov	 eax, DWORD PTR [edx+24]
  0078a	50		 push	 eax
  0078b	ff 15 00 00 00
	00		 call	 DWORD PTR __imp__FrameRect@12
  00791	3b f4		 cmp	 esi, esp
  00793	e8 00 00 00 00	 call	 __RTC_CheckEsp

; 95   : 		::InflateRect(&lrcFrame,-2,-2);

  00798	8b f4		 mov	 esi, esp
  0079a	6a fe		 push	 -2			; fffffffeH
  0079c	6a fe		 push	 -2			; fffffffeH
  0079e	8d 4d 88	 lea	 ecx, DWORD PTR _lrcFrame$188522[ebp]
  007a1	51		 push	 ecx
  007a2	ff 15 00 00 00
	00		 call	 DWORD PTR __imp__InflateRect@12
  007a8	3b f4		 cmp	 esi, esp
  007aa	e8 00 00 00 00	 call	 __RTC_CheckEsp

; 96   : 		HBRUSH hbru2 = CreateSolidBrush(RGB(255,255,255));

  007af	8b f4		 mov	 esi, esp
  007b1	68 ff ff ff 00	 push	 16777215		; 00ffffffH
  007b6	ff 15 00 00 00
	00		 call	 DWORD PTR __imp__CreateSolidBrush@4
  007bc	3b f4		 cmp	 esi, esp
  007be	e8 00 00 00 00	 call	 __RTC_CheckEsp
  007c3	89 85 7c ff ff
	ff		 mov	 DWORD PTR _hbru2$188532[ebp], eax

; 97   : 		FrameRect(lpDrawItemStruct->hDC, &lrcFrame,hbru2 );

  007c9	8b f4		 mov	 esi, esp
  007cb	8b 95 7c ff ff
	ff		 mov	 edx, DWORD PTR _hbru2$188532[ebp]
  007d1	52		 push	 edx
  007d2	8d 45 88	 lea	 eax, DWORD PTR _lrcFrame$188522[ebp]
  007d5	50		 push	 eax
  007d6	8b 4d 08	 mov	 ecx, DWORD PTR _lpDrawItemStruct$[ebp]
  007d9	8b 51 18	 mov	 edx, DWORD PTR [ecx+24]
  007dc	52		 push	 edx
  007dd	ff 15 00 00 00
	00		 call	 DWORD PTR __imp__FrameRect@12
  007e3	3b f4		 cmp	 esi, esp
  007e5	e8 00 00 00 00	 call	 __RTC_CheckEsp

; 98   : 		DeleteObject((HGDIOBJ)hHandle);

  007ea	8b f4		 mov	 esi, esp
  007ec	8b 45 80	 mov	 eax, DWORD PTR _hHandle$188523[ebp]
  007ef	50		 push	 eax
  007f0	ff 15 00 00 00
	00		 call	 DWORD PTR __imp__DeleteObject@4
  007f6	3b f4		 cmp	 esi, esp
  007f8	e8 00 00 00 00	 call	 __RTC_CheckEsp

; 99   : 		DeleteObject(hbru2);

  007fd	8b f4		 mov	 esi, esp
  007ff	8b 8d 7c ff ff
	ff		 mov	 ecx, DWORD PTR _hbru2$188532[ebp]
  00805	51		 push	 ecx
  00806	ff 15 00 00 00
	00		 call	 DWORD PTR __imp__DeleteObject@4
  0080c	3b f4		 cmp	 esi, esp
  0080e	e8 00 00 00 00	 call	 __RTC_CheckEsp
$L188514:

; 100  : 	}	
; 101  : 	graphics.ReleaseHDC(lpDrawItemStruct->hDC);

  00813	8b 55 08	 mov	 edx, DWORD PTR _lpDrawItemStruct$[ebp]
  00816	8b 42 18	 mov	 eax, DWORD PTR [edx+24]
  00819	50		 push	 eax
  0081a	8d 4d d8	 lea	 ecx, DWORD PTR _graphics$[ebp]
  0081d	e8 00 00 00 00	 call	 ?ReleaseHDC@Graphics@Gdiplus@@QAEXPAUHDC__@@@Z ; Gdiplus::Graphics::ReleaseHDC

; 102  : }

  00822	c6 45 fc 00	 mov	 BYTE PTR __$EHRec$[ebp+8], 0
  00826	8d 4d d8	 lea	 ecx, DWORD PTR _graphics$[ebp]
  00829	e8 00 00 00 00	 call	 ??1Graphics@Gdiplus@@QAE@XZ ; Gdiplus::Graphics::~Graphics
  0082e	c7 45 fc ff ff
	ff ff		 mov	 DWORD PTR __$EHRec$[ebp+8], -1
  00835	8b f4		 mov	 esi, esp
  00837	8d 4d e8	 lea	 ecx, DWORD PTR _lstrTitle$[ebp]
  0083a	ff 15 00 00 00
	00		 call	 DWORD PTR __imp_??1?$CStringT@DV?$StrTraitMFC_DLL@DV?$ChTraitsCRT@D@ATL@@@@@ATL@@QAE@XZ
  00840	3b f4		 cmp	 esi, esp
  00842	e8 00 00 00 00	 call	 __RTC_CheckEsp
  00847	52		 push	 edx
  00848	8b cd		 mov	 ecx, ebp
  0084a	50		 push	 eax
  0084b	8d 15 00 00 00
	00		 lea	 edx, DWORD PTR $L189705
  00851	e8 00 00 00 00	 call	 @_RTC_CheckStackVars@8
  00856	58		 pop	 eax
  00857	5a		 pop	 edx
  00858	8b 4d f4	 mov	 ecx, DWORD PTR __$EHRec$[ebp]
  0085b	64 89 0d 00 00
	00 00		 mov	 DWORD PTR fs:__except_list, ecx
  00862	5f		 pop	 edi
  00863	5e		 pop	 esi
  00864	81 c4 8c 00 00
	00		 add	 esp, 140		; 0000008cH
  0086a	3b ec		 cmp	 ebp, esp
  0086c	e8 00 00 00 00	 call	 __RTC_CheckEsp
  00871	8b e5		 mov	 esp, ebp
  00873	5d		 pop	 ebp
  00874	c2 04 00	 ret	 4
$L189705:
  00877	05 00 00 00	 DD	 5
  0087b	00 00 00 00	 DD	 $L189704
$L189704:
  0087f	e8 ff ff ff	 DD	 -24			; ffffffe8H
  00883	04 00 00 00	 DD	 4
  00887	00 00 00 00	 DD	 $L189698
  0088b	d8 ff ff ff	 DD	 -40			; ffffffd8H
  0088f	08 00 00 00	 DD	 8
  00893	00 00 00 00	 DD	 $L189699
  00897	c8 ff ff ff	 DD	 -56			; ffffffc8H
  0089b	08 00 00 00	 DD	 8
  0089f	00 00 00 00	 DD	 $L189700
  008a3	b0 ff ff ff	 DD	 -80			; ffffffb0H
  008a7	10 00 00 00	 DD	 16			; 00000010H
  008ab	00 00 00 00	 DD	 $L189701
  008af	88 ff ff ff	 DD	 -120			; ffffff88H
  008b3	10 00 00 00	 DD	 16			; 00000010H
  008b7	00 00 00 00	 DD	 $L189702
$L189702:
  008bb	6c		 DB	 108			; 0000006cH
  008bc	72		 DB	 114			; 00000072H
  008bd	63		 DB	 99			; 00000063H
  008be	46		 DB	 70			; 00000046H
  008bf	72		 DB	 114			; 00000072H
  008c0	61		 DB	 97			; 00000061H
  008c1	6d		 DB	 109			; 0000006dH
  008c2	65		 DB	 101			; 00000065H
  008c3	00		 DB	 0
$L189701:
  008c4	61		 DB	 97			; 00000061H
  008c5	52		 DB	 82			; 00000052H
  008c6	65		 DB	 101			; 00000065H
  008c7	63		 DB	 99			; 00000063H
  008c8	74		 DB	 116			; 00000074H
  008c9	00		 DB	 0
$L189700:
  008ca	6c		 DB	 108			; 0000006cH
  008cb	73		 DB	 115			; 00000073H
  008cc	69		 DB	 105			; 00000069H
  008cd	7a		 DB	 122			; 0000007aH
  008ce	65		 DB	 101			; 00000065H
  008cf	00		 DB	 0
$L189699:
  008d0	67		 DB	 103			; 00000067H
  008d1	72		 DB	 114			; 00000072H
  008d2	61		 DB	 97			; 00000061H
  008d3	70		 DB	 112			; 00000070H
  008d4	68		 DB	 104			; 00000068H
  008d5	69		 DB	 105			; 00000069H
  008d6	63		 DB	 99			; 00000063H
  008d7	73		 DB	 115			; 00000073H
  008d8	00		 DB	 0
$L189698:
  008d9	6c		 DB	 108			; 0000006cH
  008da	73		 DB	 115			; 00000073H
  008db	74		 DB	 116			; 00000074H
  008dc	72		 DB	 114			; 00000072H
  008dd	54		 DB	 84			; 00000054H
  008de	69		 DB	 105			; 00000069H
  008df	74		 DB	 116			; 00000074H
  008e0	6c		 DB	 108			; 0000006cH
  008e1	65		 DB	 101			; 00000065H
  008e2	00		 DB	 0
_TEXT	ENDS
text$x	SEGMENT
$L189694:
  0006d	8b f4		 mov	 esi, esp
  0006f	8d 4d e8	 lea	 ecx, DWORD PTR _lstrTitle$[ebp]
  00072	ff 15 00 00 00
	00		 call	 DWORD PTR __imp_??1?$CStringT@DV?$StrTraitMFC_DLL@DV?$ChTraitsCRT@D@ATL@@@@@ATL@@QAE@XZ
  00078	3b f4		 cmp	 esi, esp
  0007a	e9 00 00 00 00	 jmp	 __RTC_CheckEsp
$L189695:
  0007f	8d 4d d8	 lea	 ecx, DWORD PTR _graphics$[ebp]
  00082	e9 00 00 00 00	 jmp	 ??1Graphics@Gdiplus@@QAE@XZ ; Gdiplus::Graphics::~Graphics
__ehhandler$?DrawItem@CSubSkinButton@@MAEXPAUtagDRAWITEMSTRUCT@@@Z:
  00087	b8 00 00 00 00	 mov	 eax, OFFSET FLAT:$T189697
  0008c	e9 00 00 00 00	 jmp	 ___CxxFrameHandler
text$x	ENDS
?DrawItem@CSubSkinButton@@MAEXPAUtagDRAWITEMSTRUCT@@@Z ENDP ; CSubSkinButton::DrawItem
EXTRN	__imp_??0?$CStringT@DV?$StrTraitMFC_DLL@DV?$ChTraitsCRT@D@ATL@@@@@ATL@@QAE@ABV01@@Z:NEAR
; Function compile flags: /Odt /RTCsu
; File d:\boxgit\playbox\playbox\dev\prj\playbox\src\layoutmgr\changecolor\skinbotton.h
;	COMDAT ?GetText@CSkinButton@@QBE?AV?$CStringT@DV?$StrTraitMFC_DLL@DV?$ChTraitsCRT@D@ATL@@@@@ATL@@XZ
_TEXT	SEGMENT
$T189709 = -8						; size = 4
_this$ = -4						; size = 4
___$ReturnUdt$ = 8					; size = 4
?GetText@CSkinButton@@QBE?AV?$CStringT@DV?$StrTraitMFC_DLL@DV?$ChTraitsCRT@D@ATL@@@@@ATL@@XZ PROC NEAR ; CSkinButton::GetText, COMDAT
; _this$ = ecx

; 110  : 	CString GetText()const { return m_string; }

  00000	55		 push	 ebp
  00001	8b ec		 mov	 ebp, esp
  00003	83 ec 08	 sub	 esp, 8
  00006	56		 push	 esi
  00007	c7 45 f8 cc cc
	cc cc		 mov	 DWORD PTR [ebp-8], -858993460 ; ccccccccH
  0000e	c7 45 fc cc cc
	cc cc		 mov	 DWORD PTR [ebp-4], -858993460 ; ccccccccH
  00015	89 4d fc	 mov	 DWORD PTR _this$[ebp], ecx
  00018	c7 45 f8 00 00
	00 00		 mov	 DWORD PTR $T189709[ebp], 0
  0001f	8b 45 fc	 mov	 eax, DWORD PTR _this$[ebp]
  00022	05 18 01 00 00	 add	 eax, 280		; 00000118H
  00027	8b f4		 mov	 esi, esp
  00029	50		 push	 eax
  0002a	8b 4d 08	 mov	 ecx, DWORD PTR ___$ReturnUdt$[ebp]
  0002d	ff 15 00 00 00
	00		 call	 DWORD PTR __imp_??0?$CStringT@DV?$StrTraitMFC_DLL@DV?$ChTraitsCRT@D@ATL@@@@@ATL@@QAE@ABV01@@Z
  00033	3b f4		 cmp	 esi, esp
  00035	e8 00 00 00 00	 call	 __RTC_CheckEsp
  0003a	8b 4d f8	 mov	 ecx, DWORD PTR $T189709[ebp]
  0003d	83 c9 01	 or	 ecx, 1
  00040	89 4d f8	 mov	 DWORD PTR $T189709[ebp], ecx
  00043	8b 45 08	 mov	 eax, DWORD PTR ___$ReturnUdt$[ebp]
  00046	5e		 pop	 esi
  00047	83 c4 08	 add	 esp, 8
  0004a	3b ec		 cmp	 ebp, esp
  0004c	e8 00 00 00 00	 call	 __RTC_CheckEsp
  00051	8b e5		 mov	 esp, ebp
  00053	5d		 pop	 ebp
  00054	c2 04 00	 ret	 4
?GetText@CSkinButton@@QBE?AV?$CStringT@DV?$StrTraitMFC_DLL@DV?$ChTraitsCRT@D@ATL@@@@@ATL@@XZ ENDP ; CSkinButton::GetText
_TEXT	ENDS
PUBLIC	?InterlockedExchangePointer@@YGPAXPAPAXPAX@Z	; InterlockedExchangePointer
PUBLIC	?_AtlGetThreadACPFake@ATL@@YGIXZ		; ATL::_AtlGetThreadACPFake
PUBLIC	?_AtlGetThreadACPReal@ATL@@YGIXZ		; ATL::_AtlGetThreadACPReal
EXTRN	___security_cookie:DWORD
EXTRN	@__security_check_cookie@4:NEAR
EXTRN	__imp__GetVersionExA@4:NEAR
; Function compile flags: /Odt /RTCsu
; File d:\program files (x86)\microsoft visual studio .net 2003\vc7\atlmfc\include\atlconv.h
;	COMDAT ?_AtlGetThreadACPThunk@ATL@@YGIXZ
_TEXT	SEGMENT
_pfnGetThreadACP$ = -164				; size = 4
_ver$ = -156						; size = 148
__$ArrayPad$ = -4					; size = 4
__$ReturnAddr$ = 4					; size = 4
?_AtlGetThreadACPThunk@ATL@@YGIXZ PROC NEAR		; ATL::_AtlGetThreadACPThunk, COMDAT

; 134  : {

  00000	55		 push	 ebp
  00001	8b ec		 mov	 ebp, esp
  00003	81 ec a4 00 00
	00		 sub	 esp, 164		; 000000a4H
  00009	56		 push	 esi
  0000a	57		 push	 edi
  0000b	8d bd 5c ff ff
	ff		 lea	 edi, DWORD PTR [ebp-164]
  00011	b9 29 00 00 00	 mov	 ecx, 41			; 00000029H
  00016	b8 cc cc cc cc	 mov	 eax, -858993460		; ccccccccH
  0001b	f3 ab		 rep stosd
  0001d	a1 00 00 00 00	 mov	 eax, DWORD PTR ___security_cookie
  00022	89 45 fc	 mov	 DWORD PTR __$ArrayPad$[ebp], eax

; 135  : 	OSVERSIONINFO ver;
; 136  : 	ATLGETTHREADACP pfnGetThreadACP;
; 137  : 
; 138  : 	ver.dwOSVersionInfoSize = sizeof( ver );

  00025	c7 85 64 ff ff
	ff 94 00 00 00	 mov	 DWORD PTR _ver$[ebp], 148 ; 00000094H

; 139  : 	::GetVersionEx( &ver );

  0002f	8b f4		 mov	 esi, esp
  00031	8d 85 64 ff ff
	ff		 lea	 eax, DWORD PTR _ver$[ebp]
  00037	50		 push	 eax
  00038	ff 15 00 00 00
	00		 call	 DWORD PTR __imp__GetVersionExA@4
  0003e	3b f4		 cmp	 esi, esp
  00040	e8 00 00 00 00	 call	 __RTC_CheckEsp

; 140  : 	if( (ver.dwPlatformId == VER_PLATFORM_WIN32_NT) && (ver.dwMajorVersion >= 5) )

  00045	83 bd 74 ff ff
	ff 02		 cmp	 DWORD PTR _ver$[ebp+16], 2
  0004c	75 15		 jne	 SHORT $L24163
  0004e	83 bd 68 ff ff
	ff 05		 cmp	 DWORD PTR _ver$[ebp+4], 5
  00055	72 0c		 jb	 SHORT $L24163

; 141  : 	{
; 142  : 		// On Win2K, CP_THREAD_ACP is supported
; 143  : 		pfnGetThreadACP = _AtlGetThreadACPReal;

  00057	c7 85 5c ff ff
	ff 00 00 00 00	 mov	 DWORD PTR _pfnGetThreadACP$[ebp], OFFSET FLAT:?_AtlGetThreadACPReal@ATL@@YGIXZ ; ATL::_AtlGetThreadACPReal

; 144  : 	}
; 145  : 	else

  00061	eb 0a		 jmp	 SHORT $L24164
$L24163:

; 146  : 	{
; 147  : 		pfnGetThreadACP = _AtlGetThreadACPFake;

  00063	c7 85 5c ff ff
	ff 00 00 00 00	 mov	 DWORD PTR _pfnGetThreadACP$[ebp], OFFSET FLAT:?_AtlGetThreadACPFake@ATL@@YGIXZ ; ATL::_AtlGetThreadACPFake
$L24164:

; 148  : 	}
; 149  : 	InterlockedExchangePointer( reinterpret_cast< void** >(&g_pfnGetThreadACP), pfnGetThreadACP );

  0006d	8b 8d 5c ff ff
	ff		 mov	 ecx, DWORD PTR _pfnGetThreadACP$[ebp]
  00073	51		 push	 ecx
  00074	68 00 00 00 00	 push	 OFFSET FLAT:?g_pfnGetThreadACP@ATL@@3P6GIXZA ; ATL::g_pfnGetThreadACP
  00079	e8 00 00 00 00	 call	 ?InterlockedExchangePointer@@YGPAXPAPAXPAX@Z ; InterlockedExchangePointer

; 150  : 
; 151  : 	return( g_pfnGetThreadACP() );

  0007e	8b f4		 mov	 esi, esp
  00080	ff 15 00 00 00
	00		 call	 DWORD PTR ?g_pfnGetThreadACP@ATL@@3P6GIXZA ; ATL::g_pfnGetThreadACP
  00086	3b f4		 cmp	 esi, esp
  00088	e8 00 00 00 00	 call	 __RTC_CheckEsp

; 152  : }

  0008d	52		 push	 edx
  0008e	8b cd		 mov	 ecx, ebp
  00090	50		 push	 eax
  00091	8d 15 00 00 00
	00		 lea	 edx, DWORD PTR $L189717
  00097	e8 00 00 00 00	 call	 @_RTC_CheckStackVars@8
  0009c	58		 pop	 eax
  0009d	5a		 pop	 edx
  0009e	8b 4d fc	 mov	 ecx, DWORD PTR __$ArrayPad$[ebp]
  000a1	e8 00 00 00 00	 call	 @__security_check_cookie@4
  000a6	5f		 pop	 edi
  000a7	5e		 pop	 esi
  000a8	81 c4 a4 00 00
	00		 add	 esp, 164		; 000000a4H
  000ae	3b ec		 cmp	 ebp, esp
  000b0	e8 00 00 00 00	 call	 __RTC_CheckEsp
  000b5	8b e5		 mov	 esp, ebp
  000b7	5d		 pop	 ebp
  000b8	c3		 ret	 0
$L189717:
  000b9	01 00 00 00	 DD	 1
  000bd	00 00 00 00	 DD	 $L189716
$L189716:
  000c1	64 ff ff ff	 DD	 -156			; ffffff64H
  000c5	94 00 00 00	 DD	 148			; 00000094H
  000c9	00 00 00 00	 DD	 $L189713
$L189713:
  000cd	76		 DB	 118			; 00000076H
  000ce	65		 DB	 101			; 00000065H
  000cf	72		 DB	 114			; 00000072H
  000d0	00		 DB	 0
?_AtlGetThreadACPThunk@ATL@@YGIXZ ENDP			; ATL::_AtlGetThreadACPThunk
_TEXT	ENDS
EXTRN	__imp__InterlockedExchange@8:NEAR
; Function compile flags: /Odt /RTCsu
;	COMDAT ?InterlockedExchangePointer@@YGPAXPAPAXPAX@Z
_TEXT	SEGMENT
_pp$ = 8						; size = 4
_pNew$ = 12						; size = 4
?InterlockedExchangePointer@@YGPAXPAPAXPAX@Z PROC NEAR	; InterlockedExchangePointer, COMDAT

; 91   : {

  00000	55		 push	 ebp
  00001	8b ec		 mov	 ebp, esp
  00003	56		 push	 esi

; 92   : 	return( reinterpret_cast<void*>(static_cast<LONG_PTR>(::InterlockedExchange(reinterpret_cast<LONG*>(pp), static_cast<LONG>(reinterpret_cast<LONG_PTR>(pNew))))) );

  00004	8b f4		 mov	 esi, esp
  00006	8b 45 0c	 mov	 eax, DWORD PTR _pNew$[ebp]
  00009	50		 push	 eax
  0000a	8b 4d 08	 mov	 ecx, DWORD PTR _pp$[ebp]
  0000d	51		 push	 ecx
  0000e	ff 15 00 00 00
	00		 call	 DWORD PTR __imp__InterlockedExchange@8
  00014	3b f4		 cmp	 esi, esp
  00016	e8 00 00 00 00	 call	 __RTC_CheckEsp

; 93   : }

  0001b	5e		 pop	 esi
  0001c	3b ec		 cmp	 ebp, esp
  0001e	e8 00 00 00 00	 call	 __RTC_CheckEsp
  00023	5d		 pop	 ebp
  00024	c2 08 00	 ret	 8
?InterlockedExchangePointer@@YGPAXPAPAXPAX@Z ENDP	; InterlockedExchangePointer
_TEXT	ENDS
EXTRN	__imp__GetACP@0:NEAR
EXTRN	__imp__GetLocaleInfoA@16:NEAR
EXTRN	__imp__GetThreadLocale@0:NEAR
; Function compile flags: /Odt /RTCsu
;	COMDAT ?_AtlGetThreadACPFake@ATL@@YGIXZ
_TEXT	SEGMENT
_pch$24151 = -32					; size = 4
_szACP$ = -24						; size = 7
_lcidThread$ = -12					; size = 4
_nACP$ = -8						; size = 4
__$ArrayPad$ = -4					; size = 4
__$ReturnAddr$ = 4					; size = 4
?_AtlGetThreadACPFake@ATL@@YGIXZ PROC NEAR		; ATL::_AtlGetThreadACPFake, COMDAT

; 101  : {

  00000	55		 push	 ebp
  00001	8b ec		 mov	 ebp, esp
  00003	83 ec 20	 sub	 esp, 32			; 00000020H
  00006	56		 push	 esi
  00007	b8 cc cc cc cc	 mov	 eax, -858993460		; ccccccccH
  0000c	89 45 e0	 mov	 DWORD PTR [ebp-32], eax
  0000f	89 45 e4	 mov	 DWORD PTR [ebp-28], eax
  00012	89 45 e8	 mov	 DWORD PTR [ebp-24], eax
  00015	89 45 ec	 mov	 DWORD PTR [ebp-20], eax
  00018	89 45 f0	 mov	 DWORD PTR [ebp-16], eax
  0001b	89 45 f4	 mov	 DWORD PTR [ebp-12], eax
  0001e	89 45 f8	 mov	 DWORD PTR [ebp-8], eax
  00021	89 45 fc	 mov	 DWORD PTR [ebp-4], eax
  00024	a1 00 00 00 00	 mov	 eax, DWORD PTR ___security_cookie
  00029	89 45 fc	 mov	 DWORD PTR __$ArrayPad$[ebp], eax

; 102  : 	UINT nACP = 0;

  0002c	c7 45 f8 00 00
	00 00		 mov	 DWORD PTR _nACP$[ebp], 0

; 103  : 
; 104  : 	LCID lcidThread = ::GetThreadLocale();

  00033	8b f4		 mov	 esi, esp
  00035	ff 15 00 00 00
	00		 call	 DWORD PTR __imp__GetThreadLocale@0
  0003b	3b f4		 cmp	 esi, esp
  0003d	e8 00 00 00 00	 call	 __RTC_CheckEsp
  00042	89 45 f4	 mov	 DWORD PTR _lcidThread$[ebp], eax

; 105  : 
; 106  : 	char szACP[7];
; 107  : 	// GetLocaleInfoA will fail for a Unicode-only LCID, but those are only supported on 
; 108  : 	// Windows 2000.  Since Windows 2000 supports CP_THREAD_ACP, this code path is never
; 109  : 	// executed on Windows 2000.
; 110  : 	if (::GetLocaleInfoA(lcidThread, LOCALE_IDEFAULTANSICODEPAGE, szACP, 7) != 0)

  00045	8b f4		 mov	 esi, esp
  00047	6a 07		 push	 7
  00049	8d 45 e8	 lea	 eax, DWORD PTR _szACP$[ebp]
  0004c	50		 push	 eax
  0004d	68 04 10 00 00	 push	 4100			; 00001004H
  00052	8b 4d f4	 mov	 ecx, DWORD PTR _lcidThread$[ebp]
  00055	51		 push	 ecx
  00056	ff 15 00 00 00
	00		 call	 DWORD PTR __imp__GetLocaleInfoA@16
  0005c	3b f4		 cmp	 esi, esp
  0005e	e8 00 00 00 00	 call	 __RTC_CheckEsp
  00063	85 c0		 test	 eax, eax
  00065	74 34		 je	 SHORT $L24150

; 111  : 	{
; 112  : 		char* pch = szACP;

  00067	8d 55 e8	 lea	 edx, DWORD PTR _szACP$[ebp]
  0006a	89 55 e0	 mov	 DWORD PTR _pch$24151[ebp], edx
$L24153:

; 113  : 		while (*pch != '\0')

  0006d	8b 45 e0	 mov	 eax, DWORD PTR _pch$24151[ebp]
  00070	0f be 08	 movsx	 ecx, BYTE PTR [eax]
  00073	85 c9		 test	 ecx, ecx
  00075	74 24		 je	 SHORT $L24150

; 114  : 		{
; 115  : 			nACP *= 10;

  00077	8b 55 f8	 mov	 edx, DWORD PTR _nACP$[ebp]
  0007a	6b d2 0a	 imul	 edx, 10			; 0000000aH
  0007d	89 55 f8	 mov	 DWORD PTR _nACP$[ebp], edx

; 116  : 			nACP += *pch++ - '0';

  00080	8b 45 e0	 mov	 eax, DWORD PTR _pch$24151[ebp]
  00083	0f be 08	 movsx	 ecx, BYTE PTR [eax]
  00086	8b 55 f8	 mov	 edx, DWORD PTR _nACP$[ebp]
  00089	8d 44 0a d0	 lea	 eax, DWORD PTR [edx+ecx-48]
  0008d	89 45 f8	 mov	 DWORD PTR _nACP$[ebp], eax
  00090	8b 4d e0	 mov	 ecx, DWORD PTR _pch$24151[ebp]
  00093	83 c1 01	 add	 ecx, 1
  00096	89 4d e0	 mov	 DWORD PTR _pch$24151[ebp], ecx

; 117  : 		}

  00099	eb d2		 jmp	 SHORT $L24153
$L24150:

; 118  : 	}
; 119  : 	// Use the Default ANSI Code Page if we were unable to get the thread ACP or if one does not exist.
; 120  : 	if (nACP == 0)

  0009b	83 7d f8 00	 cmp	 DWORD PTR _nACP$[ebp], 0
  0009f	75 12		 jne	 SHORT $L24155

; 121  : 		nACP = ::GetACP();

  000a1	8b f4		 mov	 esi, esp
  000a3	ff 15 00 00 00
	00		 call	 DWORD PTR __imp__GetACP@0
  000a9	3b f4		 cmp	 esi, esp
  000ab	e8 00 00 00 00	 call	 __RTC_CheckEsp
  000b0	89 45 f8	 mov	 DWORD PTR _nACP$[ebp], eax
$L24155:

; 122  : 
; 123  : 	return nACP;

  000b3	8b 45 f8	 mov	 eax, DWORD PTR _nACP$[ebp]

; 124  : }

  000b6	52		 push	 edx
  000b7	8b cd		 mov	 ecx, ebp
  000b9	50		 push	 eax
  000ba	8d 15 00 00 00
	00		 lea	 edx, DWORD PTR $L189725
  000c0	e8 00 00 00 00	 call	 @_RTC_CheckStackVars@8
  000c5	58		 pop	 eax
  000c6	5a		 pop	 edx
  000c7	8b 4d fc	 mov	 ecx, DWORD PTR __$ArrayPad$[ebp]
  000ca	e8 00 00 00 00	 call	 @__security_check_cookie@4
  000cf	5e		 pop	 esi
  000d0	83 c4 20	 add	 esp, 32			; 00000020H
  000d3	3b ec		 cmp	 ebp, esp
  000d5	e8 00 00 00 00	 call	 __RTC_CheckEsp
  000da	8b e5		 mov	 esp, ebp
  000dc	5d		 pop	 ebp
  000dd	c3		 ret	 0
$L189725:
  000de	01 00 00 00	 DD	 1
  000e2	00 00 00 00	 DD	 $L189724
$L189724:
  000e6	e8 ff ff ff	 DD	 -24			; ffffffe8H
  000ea	07 00 00 00	 DD	 7
  000ee	00 00 00 00	 DD	 $L189722
$L189722:
  000f2	73		 DB	 115			; 00000073H
  000f3	7a		 DB	 122			; 0000007aH
  000f4	41		 DB	 65			; 00000041H
  000f5	43		 DB	 67			; 00000043H
  000f6	50		 DB	 80			; 00000050H
  000f7	00		 DB	 0
?_AtlGetThreadACPFake@ATL@@YGIXZ ENDP			; ATL::_AtlGetThreadACPFake
; Function compile flags: /Odt /RTCsu
_TEXT	ENDS
;	COMDAT ?_AtlGetThreadACPReal@ATL@@YGIXZ
_TEXT	SEGMENT
?_AtlGetThreadACPReal@ATL@@YGIXZ PROC NEAR		; ATL::_AtlGetThreadACPReal, COMDAT

; 127  : {

  00000	55		 push	 ebp
  00001	8b ec		 mov	 ebp, esp

; 128  : 	return( CP_THREAD_ACP );

  00003	b8 03 00 00 00	 mov	 eax, 3

; 129  : }

  00008	5d		 pop	 ebp
  00009	c3		 ret	 0
?_AtlGetThreadACPReal@ATL@@YGIXZ ENDP			; ATL::_AtlGetThreadACPReal
_TEXT	ENDS
PUBLIC	??0CGdiPlusBitmap@CSkinButton@@QAE@XZ		; CSkinButton::CGdiPlusBitmap::CGdiPlusBitmap
PUBLIC	?Load@CGdiPlusBitmap@CSkinButton@@QAE_NPB_W@Z	; CSkinButton::CGdiPlusBitmap::Load
EXTRN	__imp__MultiByteToWideChar@24:NEAR
EXTRN	?Invalidate@CWnd@@QAEXH@Z:NEAR			; CWnd::Invalidate
EXTRN	??2@YAPAXIPBDH@Z:NEAR				; operator new
EXTRN	??3@YAXPAXPBDH@Z:NEAR				; operator delete
xdata$x	SEGMENT
$T189747 DD	0ffffffffH
	DD	FLAT:$L189738
	DD	00H
	DD	FLAT:$L189739
$T189741 DD	019930520H
	DD	02H
	DD	FLAT:$T189747
	DD	2 DUP(00H)
	DD	2 DUP(00H)
; Function compile flags: /Odt /RTCsu
; File d:\boxgit\playbox\playbox\dev\prj\playbox\src\layoutmgr\changecolor\subskinbutton.cpp
xdata$x	ENDS
_TEXT	SEGMENT
tv87 = -580						; size = 4
tv74 = -576						; size = 4
$T189737 = -572						; size = 4
$T189734 = -568						; size = 4
$T189733 = -564						; size = 4
$T189730 = -560						; size = 4
$T189729 = -556						; size = 4
_bReturn$ = -549					; size = 1
_wFile$ = -544						; size = 520
_this$ = -20						; size = 4
__$ArrayPad$ = -16					; size = 4
__$EHRec$ = -12						; size = 12
__$ReturnAddr$ = 4					; size = 4
_str$ = 8						; size = 4
?SetPngFrame@CSubSkinButton@@UAEHV?$CStringT@DV?$StrTraitMFC_DLL@DV?$ChTraitsCRT@D@ATL@@@@@ATL@@@Z PROC NEAR ; CSubSkinButton::SetPngFrame
; _this$ = ecx

; 105  : {

  008f0	55		 push	 ebp
  008f1	8b ec		 mov	 ebp, esp
  008f3	6a ff		 push	 -1
  008f5	68 00 00 00 00	 push	 __ehhandler$?SetPngFrame@CSubSkinButton@@UAEHV?$CStringT@DV?$StrTraitMFC_DLL@DV?$ChTraitsCRT@D@ATL@@@@@ATL@@@Z
  008fa	64 a1 00 00 00
	00		 mov	 eax, DWORD PTR fs:__except_list
  00900	50		 push	 eax
  00901	64 89 25 00 00
	00 00		 mov	 DWORD PTR fs:__except_list, esp
  00908	81 ec 38 02 00
	00		 sub	 esp, 568		; 00000238H
  0090e	56		 push	 esi
  0090f	57		 push	 edi
  00910	51		 push	 ecx
  00911	8d bd bc fd ff
	ff		 lea	 edi, DWORD PTR [ebp-580]
  00917	b9 8e 00 00 00	 mov	 ecx, 142		; 0000008eH
  0091c	b8 cc cc cc cc	 mov	 eax, -858993460		; ccccccccH
  00921	f3 ab		 rep stosd
  00923	59		 pop	 ecx
  00924	a1 00 00 00 00	 mov	 eax, DWORD PTR ___security_cookie
  00929	89 45 f0	 mov	 DWORD PTR __$ArrayPad$[ebp], eax
  0092c	89 4d ec	 mov	 DWORD PTR _this$[ebp], ecx
  0092f	c7 45 fc 00 00
	00 00		 mov	 DWORD PTR __$EHRec$[ebp+8], 0

; 106  : 	if(m_pPngImage != NULL)

  00936	8b 45 ec	 mov	 eax, DWORD PTR _this$[ebp]
  00939	83 b8 28 01 00
	00 00		 cmp	 DWORD PTR [eax+296], 0
  00940	74 51		 je	 SHORT $L188544

; 107  : 		delete m_pPngFrame;

  00942	8b 4d ec	 mov	 ecx, DWORD PTR _this$[ebp]
  00945	8b 91 40 01 00
	00		 mov	 edx, DWORD PTR [ecx+320]
  0094b	89 95 d0 fd ff
	ff		 mov	 DWORD PTR $T189730[ebp], edx
  00951	8b 85 d0 fd ff
	ff		 mov	 eax, DWORD PTR $T189730[ebp]
  00957	89 85 d4 fd ff
	ff		 mov	 DWORD PTR $T189729[ebp], eax
  0095d	83 bd d4 fd ff
	ff 00		 cmp	 DWORD PTR $T189729[ebp], 0
  00964	74 23		 je	 SHORT $L189731
  00966	8b f4		 mov	 esi, esp
  00968	6a 01		 push	 1
  0096a	8b 8d d4 fd ff
	ff		 mov	 ecx, DWORD PTR $T189729[ebp]
  00970	8b 11		 mov	 edx, DWORD PTR [ecx]
  00972	8b 8d d4 fd ff
	ff		 mov	 ecx, DWORD PTR $T189729[ebp]
  00978	ff 12		 call	 DWORD PTR [edx]
  0097a	3b f4		 cmp	 esi, esp
  0097c	e8 00 00 00 00	 call	 __RTC_CheckEsp
  00981	89 85 c0 fd ff
	ff		 mov	 DWORD PTR tv74[ebp], eax
  00987	eb 0a		 jmp	 SHORT $L188544
$L189731:
  00989	c7 85 c0 fd ff
	ff 00 00 00 00	 mov	 DWORD PTR tv74[ebp], 0
$L188544:

; 108  : 	m_pPngFrame = new CGdiPlusBitmap;

  00993	6a 6c		 push	 108			; 0000006cH
  00995	68 00 00 00 00	 push	 OFFSET FLAT:$SG188553
  0099a	6a 08		 push	 8
  0099c	e8 00 00 00 00	 call	 ??2@YAPAXIPBDH@Z	; operator new
  009a1	83 c4 0c	 add	 esp, 12			; 0000000cH
  009a4	89 85 c8 fd ff
	ff		 mov	 DWORD PTR $T189734[ebp], eax
  009aa	c6 45 fc 01	 mov	 BYTE PTR __$EHRec$[ebp+8], 1
  009ae	83 bd c8 fd ff
	ff 00		 cmp	 DWORD PTR $T189734[ebp], 0
  009b5	74 13		 je	 SHORT $L189735
  009b7	8b 8d c8 fd ff
	ff		 mov	 ecx, DWORD PTR $T189734[ebp]
  009bd	e8 00 00 00 00	 call	 ??0CGdiPlusBitmap@CSkinButton@@QAE@XZ ; CSkinButton::CGdiPlusBitmap::CGdiPlusBitmap
  009c2	89 85 bc fd ff
	ff		 mov	 DWORD PTR tv87[ebp], eax
  009c8	eb 0a		 jmp	 SHORT $L189736
$L189735:
  009ca	c7 85 bc fd ff
	ff 00 00 00 00	 mov	 DWORD PTR tv87[ebp], 0
$L189736:
  009d4	8b 85 bc fd ff
	ff		 mov	 eax, DWORD PTR tv87[ebp]
  009da	89 85 cc fd ff
	ff		 mov	 DWORD PTR $T189733[ebp], eax
  009e0	c6 45 fc 00	 mov	 BYTE PTR __$EHRec$[ebp+8], 0
  009e4	8b 4d ec	 mov	 ecx, DWORD PTR _this$[ebp]
  009e7	8b 95 cc fd ff
	ff		 mov	 edx, DWORD PTR $T189733[ebp]
  009ed	89 91 40 01 00
	00		 mov	 DWORD PTR [ecx+320], edx

; 109  : 
; 110  : 	WCHAR   wFile[MAX_PATH];   
; 111  : #ifndef   UNICODE   
; 112  : 	MultiByteToWideChar(CP_ACP,   0,   LPCTSTR(str),   -1,   wFile,   MAX_PATH);   

  009f3	8b f4		 mov	 esi, esp
  009f5	68 04 01 00 00	 push	 260			; 00000104H
  009fa	8d 85 e0 fd ff
	ff		 lea	 eax, DWORD PTR _wFile$[ebp]
  00a00	50		 push	 eax
  00a01	6a ff		 push	 -1
  00a03	8b fc		 mov	 edi, esp
  00a05	8d 4d 08	 lea	 ecx, DWORD PTR _str$[ebp]
  00a08	ff 15 00 00 00
	00		 call	 DWORD PTR __imp_??B?$CSimpleStringT@D$00@ATL@@QBEPBDXZ
  00a0e	3b fc		 cmp	 edi, esp
  00a10	e8 00 00 00 00	 call	 __RTC_CheckEsp
  00a15	50		 push	 eax
  00a16	6a 00		 push	 0
  00a18	6a 00		 push	 0
  00a1a	ff 15 00 00 00
	00		 call	 DWORD PTR __imp__MultiByteToWideChar@24
  00a20	3b f4		 cmp	 esi, esp
  00a22	e8 00 00 00 00	 call	 __RTC_CheckEsp

; 113  : #else   
; 114  : 	lstrcpy(wFile,   szFile);   
; 115  : #endif   
; 116  : 	bool bReturn = m_pPngFrame->Load( wFile );

  00a27	8d 8d e0 fd ff
	ff		 lea	 ecx, DWORD PTR _wFile$[ebp]
  00a2d	51		 push	 ecx
  00a2e	8b 55 ec	 mov	 edx, DWORD PTR _this$[ebp]
  00a31	8b 8a 40 01 00
	00		 mov	 ecx, DWORD PTR [edx+320]
  00a37	e8 00 00 00 00	 call	 ?Load@CGdiPlusBitmap@CSkinButton@@QAE_NPB_W@Z ; CSkinButton::CGdiPlusBitmap::Load
  00a3c	88 85 db fd ff
	ff		 mov	 BYTE PTR _bReturn$[ebp], al

; 117  : 	if( bReturn ) this->Invalidate();

  00a42	0f b6 85 db fd
	ff ff		 movzx	 eax, BYTE PTR _bReturn$[ebp]
  00a49	85 c0		 test	 eax, eax
  00a4b	74 0a		 je	 SHORT $L188557
  00a4d	6a 01		 push	 1
  00a4f	8b 4d ec	 mov	 ecx, DWORD PTR _this$[ebp]
  00a52	e8 00 00 00 00	 call	 ?Invalidate@CWnd@@QAEXH@Z ; CWnd::Invalidate
$L188557:

; 118  : 
; 119  : 	return bReturn;

  00a57	0f b6 8d db fd
	ff ff		 movzx	 ecx, BYTE PTR _bReturn$[ebp]
  00a5e	89 8d c4 fd ff
	ff		 mov	 DWORD PTR $T189737[ebp], ecx
  00a64	c7 45 fc ff ff
	ff ff		 mov	 DWORD PTR __$EHRec$[ebp+8], -1
  00a6b	8b f4		 mov	 esi, esp
  00a6d	8d 4d 08	 lea	 ecx, DWORD PTR _str$[ebp]
  00a70	ff 15 00 00 00
	00		 call	 DWORD PTR __imp_??1?$CStringT@DV?$StrTraitMFC_DLL@DV?$ChTraitsCRT@D@ATL@@@@@ATL@@QAE@XZ
  00a76	3b f4		 cmp	 esi, esp
  00a78	e8 00 00 00 00	 call	 __RTC_CheckEsp
  00a7d	8b 85 c4 fd ff
	ff		 mov	 eax, DWORD PTR $T189737[ebp]

; 120  : }

  00a83	52		 push	 edx
  00a84	8b cd		 mov	 ecx, ebp
  00a86	50		 push	 eax
  00a87	8d 15 00 00 00
	00		 lea	 edx, DWORD PTR $L189746
  00a8d	e8 00 00 00 00	 call	 @_RTC_CheckStackVars@8
  00a92	58		 pop	 eax
  00a93	5a		 pop	 edx
  00a94	8b 4d f4	 mov	 ecx, DWORD PTR __$EHRec$[ebp]
  00a97	64 89 0d 00 00
	00 00		 mov	 DWORD PTR fs:__except_list, ecx
  00a9e	8b 4d f0	 mov	 ecx, DWORD PTR __$ArrayPad$[ebp]
  00aa1	e8 00 00 00 00	 call	 @__security_check_cookie@4
  00aa6	5f		 pop	 edi
  00aa7	5e		 pop	 esi
  00aa8	81 c4 44 02 00
	00		 add	 esp, 580		; 00000244H
  00aae	3b ec		 cmp	 ebp, esp
  00ab0	e8 00 00 00 00	 call	 __RTC_CheckEsp
  00ab5	8b e5		 mov	 esp, ebp
  00ab7	5d		 pop	 ebp
  00ab8	c2 04 00	 ret	 4
$L189746:
  00abb	01 00 00 00	 DD	 1
  00abf	00 00 00 00	 DD	 $L189745
$L189745:
  00ac3	e0 fd ff ff	 DD	 -544			; fffffde0H
  00ac7	08 02 00 00	 DD	 520			; 00000208H
  00acb	00 00 00 00	 DD	 $L189742
$L189742:
  00acf	77		 DB	 119			; 00000077H
  00ad0	46		 DB	 70			; 00000046H
  00ad1	69		 DB	 105			; 00000069H
  00ad2	6c		 DB	 108			; 0000006cH
  00ad3	65		 DB	 101			; 00000065H
  00ad4	00		 DB	 0
_TEXT	ENDS
text$x	SEGMENT
$L189738:
  00091	8b f4		 mov	 esi, esp
  00093	8d 4d 08	 lea	 ecx, DWORD PTR _str$[ebp]
  00096	ff 15 00 00 00
	00		 call	 DWORD PTR __imp_??1?$CStringT@DV?$StrTraitMFC_DLL@DV?$ChTraitsCRT@D@ATL@@@@@ATL@@QAE@XZ
  0009c	3b f4		 cmp	 esi, esp
  0009e	e9 00 00 00 00	 jmp	 __RTC_CheckEsp
$L189739:
  000a3	6a 6c		 push	 108			; 0000006cH
  000a5	68 00 00 00 00	 push	 OFFSET FLAT:$SG188554
  000aa	8b 85 c8 fd ff
	ff		 mov	 eax, DWORD PTR $T189734[ebp]
  000b0	50		 push	 eax
  000b1	e8 00 00 00 00	 call	 ??3@YAXPAXPBDH@Z	; operator delete
  000b6	83 c4 0c	 add	 esp, 12			; 0000000cH
  000b9	c3		 ret	 0
__ehhandler$?SetPngFrame@CSubSkinButton@@UAEHV?$CStringT@DV?$StrTraitMFC_DLL@DV?$ChTraitsCRT@D@ATL@@@@@ATL@@@Z:
  000ba	b8 00 00 00 00	 mov	 eax, OFFSET FLAT:$T189741
  000bf	e9 00 00 00 00	 jmp	 ___CxxFrameHandler
text$x	ENDS
?SetPngFrame@CSubSkinButton@@UAEHV?$CStringT@DV?$StrTraitMFC_DLL@DV?$ChTraitsCRT@D@ATL@@@@@ATL@@@Z ENDP ; CSubSkinButton::SetPngFrame
PUBLIC	??_R4CGdiPlusBitmap@CSkinButton@@6B@		; CSkinButton::CGdiPlusBitmap::`RTTI Complete Object Locator'
PUBLIC	??_R0?AVCGdiPlusBitmap@CSkinButton@@@8		; CSkinButton::CGdiPlusBitmap `RTTI Type Descriptor'
PUBLIC	??_R3CGdiPlusBitmap@CSkinButton@@8		; CSkinButton::CGdiPlusBitmap::`RTTI Class Hierarchy Descriptor'
PUBLIC	??_R2CGdiPlusBitmap@CSkinButton@@8		; CSkinButton::CGdiPlusBitmap::`RTTI Base Class Array'
PUBLIC	??_R1A@?0A@A@CGdiPlusBitmap@CSkinButton@@8	; CSkinButton::CGdiPlusBitmap::`RTTI Base Class Descriptor at (0,-1,0,0)'
PUBLIC	??_7CGdiPlusBitmap@CSkinButton@@6B@		; CSkinButton::CGdiPlusBitmap::`vftable'
PUBLIC	??_GCGdiPlusBitmap@CSkinButton@@UAEPAXI@Z	; CSkinButton::CGdiPlusBitmap::`scalar deleting destructor'
EXTRN	??_ECGdiPlusBitmap@CSkinButton@@UAEPAXI@Z:NEAR	; CSkinButton::CGdiPlusBitmap::`vector deleting destructor'
;	COMDAT ??_7CGdiPlusBitmap@CSkinButton@@6B@
; File d:\boxgit\playbox\playbox\dev\prj\playbox\src\layoutmgr\changecolor\skinbotton.h
CONST	SEGMENT
??_7CGdiPlusBitmap@CSkinButton@@6B@ DD FLAT:??_R4CGdiPlusBitmap@CSkinButton@@6B@ ; CSkinButton::CGdiPlusBitmap::`vftable'
	DD	FLAT:??_ECGdiPlusBitmap@CSkinButton@@UAEPAXI@Z
CONST	ENDS
;	COMDAT ??_R4CGdiPlusBitmap@CSkinButton@@6B@
rdata$r	SEGMENT
??_R4CGdiPlusBitmap@CSkinButton@@6B@ DD 00H		; CSkinButton::CGdiPlusBitmap::`RTTI Complete Object Locator'
	DD	00H
	DD	00H
	DD	FLAT:??_R0?AVCGdiPlusBitmap@CSkinButton@@@8
	DD	FLAT:??_R3CGdiPlusBitmap@CSkinButton@@8
rdata$r	ENDS
;	COMDAT ??_R0?AVCGdiPlusBitmap@CSkinButton@@@8
_DATA	SEGMENT
??_R0?AVCGdiPlusBitmap@CSkinButton@@@8 DD FLAT:??_7type_info@@6B@ ; CSkinButton::CGdiPlusBitmap `RTTI Type Descriptor'
	DD	00H
	DB	'.?AVCGdiPlusBitmap@CSkinButton@@', 00H
_DATA	ENDS
;	COMDAT ??_R3CGdiPlusBitmap@CSkinButton@@8
rdata$r	SEGMENT
??_R3CGdiPlusBitmap@CSkinButton@@8 DD 00H		; CSkinButton::CGdiPlusBitmap::`RTTI Class Hierarchy Descriptor'
	DD	00H
	DD	01H
	DD	FLAT:??_R2CGdiPlusBitmap@CSkinButton@@8
rdata$r	ENDS
;	COMDAT ??_R2CGdiPlusBitmap@CSkinButton@@8
rdata$r	SEGMENT
??_R2CGdiPlusBitmap@CSkinButton@@8 DD FLAT:??_R1A@?0A@A@CGdiPlusBitmap@CSkinButton@@8 ; CSkinButton::CGdiPlusBitmap::`RTTI Base Class Array'
rdata$r	ENDS
;	COMDAT ??_R1A@?0A@A@CGdiPlusBitmap@CSkinButton@@8
rdata$r	SEGMENT
??_R1A@?0A@A@CGdiPlusBitmap@CSkinButton@@8 DD FLAT:??_R0?AVCGdiPlusBitmap@CSkinButton@@@8 ; CSkinButton::CGdiPlusBitmap::`RTTI Base Class Descriptor at (0,-1,0,0)'
	DD	00H
	DD	00H
	DD	0ffffffffH
	DD	00H
	DD	00H
; Function compile flags: /Odt /RTCsu
rdata$r	ENDS
;	COMDAT ??0CGdiPlusBitmap@CSkinButton@@QAE@XZ
_TEXT	SEGMENT
_this$ = -4						; size = 4
??0CGdiPlusBitmap@CSkinButton@@QAE@XZ PROC NEAR		; CSkinButton::CGdiPlusBitmap::CGdiPlusBitmap, COMDAT
; _this$ = ecx

; 79   : 	CGdiPlusBitmap()							{ m_pBitmap = NULL; }

  00000	55		 push	 ebp
  00001	8b ec		 mov	 ebp, esp
  00003	51		 push	 ecx
  00004	c7 45 fc cc cc
	cc cc		 mov	 DWORD PTR [ebp-4], -858993460 ; ccccccccH
  0000b	89 4d fc	 mov	 DWORD PTR _this$[ebp], ecx
  0000e	8b 45 fc	 mov	 eax, DWORD PTR _this$[ebp]
  00011	c7 00 00 00 00
	00		 mov	 DWORD PTR [eax], OFFSET FLAT:??_7CGdiPlusBitmap@CSkinButton@@6B@
  00017	8b 4d fc	 mov	 ecx, DWORD PTR _this$[ebp]
  0001a	c7 41 04 00 00
	00 00		 mov	 DWORD PTR [ecx+4], 0
  00021	8b 45 fc	 mov	 eax, DWORD PTR _this$[ebp]
  00024	8b e5		 mov	 esp, ebp
  00026	5d		 pop	 ebp
  00027	c3		 ret	 0
??0CGdiPlusBitmap@CSkinButton@@QAE@XZ ENDP		; CSkinButton::CGdiPlusBitmap::CGdiPlusBitmap
_TEXT	ENDS
PUBLIC	?Empty@CGdiPlusBitmap@CSkinButton@@QAEXXZ	; CSkinButton::CGdiPlusBitmap::Empty
PUBLIC	?GetLastStatus@Image@Gdiplus@@QBE?AW4Status@2@XZ ; Gdiplus::Image::GetLastStatus
PUBLIC	?FromFile@Bitmap@Gdiplus@@SAPAV12@PB_WH@Z	; Gdiplus::Bitmap::FromFile
; Function compile flags: /Odt /RTCsu
;	COMDAT ?Load@CGdiPlusBitmap@CSkinButton@@QAE_NPB_W@Z
_TEXT	SEGMENT
_this$ = -4						; size = 4
_pFile$ = 8						; size = 4
?Load@CGdiPlusBitmap@CSkinButton@@QAE_NPB_W@Z PROC NEAR	; CSkinButton::CGdiPlusBitmap::Load, COMDAT
; _this$ = ecx

; 86   : 	{

  00000	55		 push	 ebp
  00001	8b ec		 mov	 ebp, esp
  00003	51		 push	 ecx
  00004	c7 45 fc cc cc
	cc cc		 mov	 DWORD PTR [ebp-4], -858993460 ; ccccccccH
  0000b	89 4d fc	 mov	 DWORD PTR _this$[ebp], ecx

; 87   : 		
; 88   : 		Empty();

  0000e	8b 4d fc	 mov	 ecx, DWORD PTR _this$[ebp]
  00011	e8 00 00 00 00	 call	 ?Empty@CGdiPlusBitmap@CSkinButton@@QAEXXZ ; CSkinButton::CGdiPlusBitmap::Empty

; 89   : 		m_pBitmap = Gdiplus::Bitmap::FromFile(pFile);

  00016	6a 00		 push	 0
  00018	8b 45 08	 mov	 eax, DWORD PTR _pFile$[ebp]
  0001b	50		 push	 eax
  0001c	e8 00 00 00 00	 call	 ?FromFile@Bitmap@Gdiplus@@SAPAV12@PB_WH@Z ; Gdiplus::Bitmap::FromFile
  00021	83 c4 08	 add	 esp, 8
  00024	8b 4d fc	 mov	 ecx, DWORD PTR _this$[ebp]
  00027	89 41 04	 mov	 DWORD PTR [ecx+4], eax

; 90   : 		return m_pBitmap->GetLastStatus() == Gdiplus::Ok;

  0002a	8b 55 fc	 mov	 edx, DWORD PTR _this$[ebp]
  0002d	8b 4a 04	 mov	 ecx, DWORD PTR [edx+4]
  00030	e8 00 00 00 00	 call	 ?GetLastStatus@Image@Gdiplus@@QBE?AW4Status@2@XZ ; Gdiplus::Image::GetLastStatus
  00035	f7 d8		 neg	 eax
  00037	1b c0		 sbb	 eax, eax
  00039	40		 inc	 eax

; 91   : 	}

  0003a	83 c4 04	 add	 esp, 4
  0003d	3b ec		 cmp	 ebp, esp
  0003f	e8 00 00 00 00	 call	 __RTC_CheckEsp
  00044	8b e5		 mov	 esp, ebp
  00046	5d		 pop	 ebp
  00047	c2 04 00	 ret	 4
?Load@CGdiPlusBitmap@CSkinButton@@QAE_NPB_W@Z ENDP	; CSkinButton::CGdiPlusBitmap::Load
; Function compile flags: /Odt /RTCsu
_TEXT	ENDS
;	COMDAT ?Empty@CGdiPlusBitmap@CSkinButton@@QAEXXZ
_TEXT	SEGMENT
tv71 = -16						; size = 4
$T189752 = -12						; size = 4
$T189751 = -8						; size = 4
_this$ = -4						; size = 4
?Empty@CGdiPlusBitmap@CSkinButton@@QAEXXZ PROC NEAR	; CSkinButton::CGdiPlusBitmap::Empty, COMDAT
; _this$ = ecx

; 83   : 	void Empty()								{ delete m_pBitmap; m_pBitmap = NULL; }

  00000	55		 push	 ebp
  00001	8b ec		 mov	 ebp, esp
  00003	83 ec 10	 sub	 esp, 16			; 00000010H
  00006	56		 push	 esi
  00007	b8 cc cc cc cc	 mov	 eax, -858993460		; ccccccccH
  0000c	89 45 f0	 mov	 DWORD PTR [ebp-16], eax
  0000f	89 45 f4	 mov	 DWORD PTR [ebp-12], eax
  00012	89 45 f8	 mov	 DWORD PTR [ebp-8], eax
  00015	89 45 fc	 mov	 DWORD PTR [ebp-4], eax
  00018	89 4d fc	 mov	 DWORD PTR _this$[ebp], ecx
  0001b	8b 45 fc	 mov	 eax, DWORD PTR _this$[ebp]
  0001e	8b 48 04	 mov	 ecx, DWORD PTR [eax+4]
  00021	89 4d f4	 mov	 DWORD PTR $T189752[ebp], ecx
  00024	8b 55 f4	 mov	 edx, DWORD PTR $T189752[ebp]
  00027	89 55 f8	 mov	 DWORD PTR $T189751[ebp], edx
  0002a	83 7d f8 00	 cmp	 DWORD PTR $T189751[ebp], 0
  0002e	74 1a		 je	 SHORT $L189753
  00030	8b f4		 mov	 esi, esp
  00032	6a 01		 push	 1
  00034	8b 45 f8	 mov	 eax, DWORD PTR $T189751[ebp]
  00037	8b 10		 mov	 edx, DWORD PTR [eax]
  00039	8b 4d f8	 mov	 ecx, DWORD PTR $T189751[ebp]
  0003c	ff 12		 call	 DWORD PTR [edx]
  0003e	3b f4		 cmp	 esi, esp
  00040	e8 00 00 00 00	 call	 __RTC_CheckEsp
  00045	89 45 f0	 mov	 DWORD PTR tv71[ebp], eax
  00048	eb 07		 jmp	 SHORT $L189754
$L189753:
  0004a	c7 45 f0 00 00
	00 00		 mov	 DWORD PTR tv71[ebp], 0
$L189754:
  00051	8b 45 fc	 mov	 eax, DWORD PTR _this$[ebp]
  00054	c7 40 04 00 00
	00 00		 mov	 DWORD PTR [eax+4], 0
  0005b	5e		 pop	 esi
  0005c	83 c4 10	 add	 esp, 16			; 00000010H
  0005f	3b ec		 cmp	 ebp, esp
  00061	e8 00 00 00 00	 call	 __RTC_CheckEsp
  00066	8b e5		 mov	 esp, ebp
  00068	5d		 pop	 ebp
  00069	c3		 ret	 0
?Empty@CGdiPlusBitmap@CSkinButton@@QAEXXZ ENDP		; CSkinButton::CGdiPlusBitmap::Empty
_TEXT	ENDS
PUBLIC	??1CGdiPlusBitmap@CSkinButton@@UAE@XZ		; CSkinButton::CGdiPlusBitmap::~CGdiPlusBitmap
EXTRN	??3@YAXPAX@Z:NEAR				; operator delete
; Function compile flags: /Odt /RTCsu
;	COMDAT ??_GCGdiPlusBitmap@CSkinButton@@UAEPAXI@Z
_TEXT	SEGMENT
_this$ = -4						; size = 4
___flags$ = 8						; size = 4
??_GCGdiPlusBitmap@CSkinButton@@UAEPAXI@Z PROC NEAR	; CSkinButton::CGdiPlusBitmap::`scalar deleting destructor', COMDAT
; _this$ = ecx
  00000	55		 push	 ebp
  00001	8b ec		 mov	 ebp, esp
  00003	51		 push	 ecx
  00004	c7 45 fc cc cc
	cc cc		 mov	 DWORD PTR [ebp-4], -858993460 ; ccccccccH
  0000b	89 4d fc	 mov	 DWORD PTR _this$[ebp], ecx
  0000e	8b 4d fc	 mov	 ecx, DWORD PTR _this$[ebp]
  00011	e8 00 00 00 00	 call	 ??1CGdiPlusBitmap@CSkinButton@@UAE@XZ ; CSkinButton::CGdiPlusBitmap::~CGdiPlusBitmap
  00016	8b 45 08	 mov	 eax, DWORD PTR ___flags$[ebp]
  00019	83 e0 01	 and	 eax, 1
  0001c	74 0c		 je	 SHORT $L187297
  0001e	8b 4d fc	 mov	 ecx, DWORD PTR _this$[ebp]
  00021	51		 push	 ecx
  00022	e8 00 00 00 00	 call	 ??3@YAXPAX@Z		; operator delete
  00027	83 c4 04	 add	 esp, 4
$L187297:
  0002a	8b 45 fc	 mov	 eax, DWORD PTR _this$[ebp]
  0002d	83 c4 04	 add	 esp, 4
  00030	3b ec		 cmp	 ebp, esp
  00032	e8 00 00 00 00	 call	 __RTC_CheckEsp
  00037	8b e5		 mov	 esp, ebp
  00039	5d		 pop	 ebp
  0003a	c2 04 00	 ret	 4
??_GCGdiPlusBitmap@CSkinButton@@UAEPAXI@Z ENDP		; CSkinButton::CGdiPlusBitmap::`scalar deleting destructor'
; Function compile flags: /Odt /RTCsu
_TEXT	ENDS
;	COMDAT ??1CGdiPlusBitmap@CSkinButton@@UAE@XZ
_TEXT	SEGMENT
_this$ = -4						; size = 4
??1CGdiPlusBitmap@CSkinButton@@UAE@XZ PROC NEAR		; CSkinButton::CGdiPlusBitmap::~CGdiPlusBitmap, COMDAT
; _this$ = ecx

; 81   : 	virtual ~CGdiPlusBitmap()					{ Empty(); }

  00000	55		 push	 ebp
  00001	8b ec		 mov	 ebp, esp
  00003	51		 push	 ecx
  00004	c7 45 fc cc cc
	cc cc		 mov	 DWORD PTR [ebp-4], -858993460 ; ccccccccH
  0000b	89 4d fc	 mov	 DWORD PTR _this$[ebp], ecx
  0000e	8b 45 fc	 mov	 eax, DWORD PTR _this$[ebp]
  00011	c7 00 00 00 00
	00		 mov	 DWORD PTR [eax], OFFSET FLAT:??_7CGdiPlusBitmap@CSkinButton@@6B@
  00017	8b 4d fc	 mov	 ecx, DWORD PTR _this$[ebp]
  0001a	e8 00 00 00 00	 call	 ?Empty@CGdiPlusBitmap@CSkinButton@@QAEXXZ ; CSkinButton::CGdiPlusBitmap::Empty
  0001f	83 c4 04	 add	 esp, 4
  00022	3b ec		 cmp	 ebp, esp
  00024	e8 00 00 00 00	 call	 __RTC_CheckEsp
  00029	8b e5		 mov	 esp, ebp
  0002b	5d		 pop	 ebp
  0002c	c3		 ret	 0
??1CGdiPlusBitmap@CSkinButton@@UAE@XZ ENDP		; CSkinButton::CGdiPlusBitmap::~CGdiPlusBitmap
_TEXT	ENDS
PUBLIC	?CreatePngBitmap@CSubSkinButton@@AAEPAVCGdiPlusBitmap@CSkinButton@@V?$CStringT@DV?$StrTraitMFC_DLL@DV?$ChTraitsCRT@D@ATL@@@@@ATL@@@Z ; CSubSkinButton::CreatePngBitmap
xdata$x	SEGMENT
$T189778 DD	0ffffffffH
	DD	FLAT:$L189769
	DD	00H
	DD	FLAT:$L189770
$T189772 DD	019930520H
	DD	02H
	DD	FLAT:$T189778
	DD	2 DUP(00H)
	DD	2 DUP(00H)
; Function compile flags: /Odt /RTCsu
; File d:\boxgit\playbox\playbox\dev\prj\playbox\src\layoutmgr\changecolor\subskinbutton.cpp
xdata$x	ENDS
_TEXT	SEGMENT
tv129 = -588						; size = 4
tv76 = -584						; size = 4
$T189768 = -580						; size = 4
$T189765 = -576						; size = 4
$T189764 = -572						; size = 4
$T189763 = -568						; size = 4
$T189760 = -564						; size = 4
$T189759 = -560						; size = 4
_bReturn$ = -553					; size = 1
_pPng$ = -552						; size = 4
_wFile$ = -544						; size = 520
_this$ = -20						; size = 4
__$ArrayPad$ = -16					; size = 4
__$EHRec$ = -12						; size = 12
__$ReturnAddr$ = 4					; size = 4
_str$ = 8						; size = 4
?CreatePngBitmap@CSubSkinButton@@AAEPAVCGdiPlusBitmap@CSkinButton@@V?$CStringT@DV?$StrTraitMFC_DLL@DV?$ChTraitsCRT@D@ATL@@@@@ATL@@@Z PROC NEAR ; CSubSkinButton::CreatePngBitmap
; _this$ = ecx

; 123  : {

  00ae0	55		 push	 ebp
  00ae1	8b ec		 mov	 ebp, esp
  00ae3	6a ff		 push	 -1
  00ae5	68 00 00 00 00	 push	 __ehhandler$?CreatePngBitmap@CSubSkinButton@@AAEPAVCGdiPlusBitmap@CSkinButton@@V?$CStringT@DV?$StrTraitMFC_DLL@DV?$ChTraitsCRT@D@ATL@@@@@ATL@@@Z
  00aea	64 a1 00 00 00
	00		 mov	 eax, DWORD PTR fs:__except_list
  00af0	50		 push	 eax
  00af1	64 89 25 00 00
	00 00		 mov	 DWORD PTR fs:__except_list, esp
  00af8	81 ec 40 02 00
	00		 sub	 esp, 576		; 00000240H
  00afe	56		 push	 esi
  00aff	57		 push	 edi
  00b00	51		 push	 ecx
  00b01	8d bd b4 fd ff
	ff		 lea	 edi, DWORD PTR [ebp-588]
  00b07	b9 90 00 00 00	 mov	 ecx, 144		; 00000090H
  00b0c	b8 cc cc cc cc	 mov	 eax, -858993460		; ccccccccH
  00b11	f3 ab		 rep stosd
  00b13	59		 pop	 ecx
  00b14	a1 00 00 00 00	 mov	 eax, DWORD PTR ___security_cookie
  00b19	89 45 f0	 mov	 DWORD PTR __$ArrayPad$[ebp], eax
  00b1c	89 4d ec	 mov	 DWORD PTR _this$[ebp], ecx
  00b1f	c7 45 fc 00 00
	00 00		 mov	 DWORD PTR __$EHRec$[ebp+8], 0

; 124  : 	WCHAR   wFile[MAX_PATH];  
; 125  : 	CGdiPlusBitmap *pPng = new CGdiPlusBitmap;

  00b26	6a 7d		 push	 125			; 0000007dH
  00b28	68 00 00 00 00	 push	 OFFSET FLAT:$SG188571
  00b2d	6a 08		 push	 8
  00b2f	e8 00 00 00 00	 call	 ??2@YAPAXIPBDH@Z	; operator new
  00b34	83 c4 0c	 add	 esp, 12			; 0000000cH
  00b37	89 85 cc fd ff
	ff		 mov	 DWORD PTR $T189760[ebp], eax
  00b3d	c6 45 fc 01	 mov	 BYTE PTR __$EHRec$[ebp+8], 1
  00b41	83 bd cc fd ff
	ff 00		 cmp	 DWORD PTR $T189760[ebp], 0
  00b48	74 13		 je	 SHORT $L189761
  00b4a	8b 8d cc fd ff
	ff		 mov	 ecx, DWORD PTR $T189760[ebp]
  00b50	e8 00 00 00 00	 call	 ??0CGdiPlusBitmap@CSkinButton@@QAE@XZ ; CSkinButton::CGdiPlusBitmap::CGdiPlusBitmap
  00b55	89 85 b8 fd ff
	ff		 mov	 DWORD PTR tv76[ebp], eax
  00b5b	eb 0a		 jmp	 SHORT $L189762
$L189761:
  00b5d	c7 85 b8 fd ff
	ff 00 00 00 00	 mov	 DWORD PTR tv76[ebp], 0
$L189762:
  00b67	8b 85 b8 fd ff
	ff		 mov	 eax, DWORD PTR tv76[ebp]
  00b6d	89 85 d0 fd ff
	ff		 mov	 DWORD PTR $T189759[ebp], eax
  00b73	c6 45 fc 00	 mov	 BYTE PTR __$EHRec$[ebp+8], 0
  00b77	8b 8d d0 fd ff
	ff		 mov	 ecx, DWORD PTR $T189759[ebp]
  00b7d	89 8d d8 fd ff
	ff		 mov	 DWORD PTR _pPng$[ebp], ecx

; 126  : #ifndef   UNICODE   
; 127  : 	MultiByteToWideChar(CP_ACP,   0,   LPCTSTR(str),   -1,   wFile,   MAX_PATH);   

  00b83	8b f4		 mov	 esi, esp
  00b85	68 04 01 00 00	 push	 260			; 00000104H
  00b8a	8d 95 e0 fd ff
	ff		 lea	 edx, DWORD PTR _wFile$[ebp]
  00b90	52		 push	 edx
  00b91	6a ff		 push	 -1
  00b93	8b fc		 mov	 edi, esp
  00b95	8d 4d 08	 lea	 ecx, DWORD PTR _str$[ebp]
  00b98	ff 15 00 00 00
	00		 call	 DWORD PTR __imp_??B?$CSimpleStringT@D$00@ATL@@QBEPBDXZ
  00b9e	3b fc		 cmp	 edi, esp
  00ba0	e8 00 00 00 00	 call	 __RTC_CheckEsp
  00ba5	50		 push	 eax
  00ba6	6a 00		 push	 0
  00ba8	6a 00		 push	 0
  00baa	ff 15 00 00 00
	00		 call	 DWORD PTR __imp__MultiByteToWideChar@24
  00bb0	3b f4		 cmp	 esi, esp
  00bb2	e8 00 00 00 00	 call	 __RTC_CheckEsp

; 128  : #else   
; 129  : 	lstrcpy(wFile,   szFile);   
; 130  : #endif   
; 131  : 	bool bReturn = pPng->Load( wFile );

  00bb7	8d 85 e0 fd ff
	ff		 lea	 eax, DWORD PTR _wFile$[ebp]
  00bbd	50		 push	 eax
  00bbe	8b 8d d8 fd ff
	ff		 mov	 ecx, DWORD PTR _pPng$[ebp]
  00bc4	e8 00 00 00 00	 call	 ?Load@CGdiPlusBitmap@CSkinButton@@QAE_NPB_W@Z ; CSkinButton::CGdiPlusBitmap::Load
  00bc9	88 85 d7 fd ff
	ff		 mov	 BYTE PTR _bReturn$[ebp], al

; 132  : 	if( bReturn ) 

  00bcf	0f b6 8d d7 fd
	ff ff		 movzx	 ecx, BYTE PTR _bReturn$[ebp]
  00bd6	85 c9		 test	 ecx, ecx
  00bd8	74 37		 je	 SHORT $L188574

; 133  : 	{
; 134  : 		Invalidate();

  00bda	6a 01		 push	 1
  00bdc	8b 4d ec	 mov	 ecx, DWORD PTR _this$[ebp]
  00bdf	e8 00 00 00 00	 call	 ?Invalidate@CWnd@@QAEXH@Z ; CWnd::Invalidate

; 135  : 		return pPng;

  00be4	8b 95 d8 fd ff
	ff		 mov	 edx, DWORD PTR _pPng$[ebp]
  00bea	89 95 c8 fd ff
	ff		 mov	 DWORD PTR $T189763[ebp], edx
  00bf0	c7 45 fc ff ff
	ff ff		 mov	 DWORD PTR __$EHRec$[ebp+8], -1
  00bf7	8b f4		 mov	 esi, esp
  00bf9	8d 4d 08	 lea	 ecx, DWORD PTR _str$[ebp]
  00bfc	ff 15 00 00 00
	00		 call	 DWORD PTR __imp_??1?$CStringT@DV?$StrTraitMFC_DLL@DV?$ChTraitsCRT@D@ATL@@@@@ATL@@QAE@XZ
  00c02	3b f4		 cmp	 esi, esp
  00c04	e8 00 00 00 00	 call	 __RTC_CheckEsp
  00c09	8b 85 c8 fd ff
	ff		 mov	 eax, DWORD PTR $T189763[ebp]
  00c0f	eb 77		 jmp	 SHORT $L188562
$L188574:

; 136  : 	}else
; 137  : 	{
; 138  : 		delete pPng;

  00c11	8b 85 d8 fd ff
	ff		 mov	 eax, DWORD PTR _pPng$[ebp]
  00c17	89 85 c0 fd ff
	ff		 mov	 DWORD PTR $T189765[ebp], eax
  00c1d	8b 8d c0 fd ff
	ff		 mov	 ecx, DWORD PTR $T189765[ebp]
  00c23	89 8d c4 fd ff
	ff		 mov	 DWORD PTR $T189764[ebp], ecx
  00c29	83 bd c4 fd ff
	ff 00		 cmp	 DWORD PTR $T189764[ebp], 0
  00c30	74 23		 je	 SHORT $L189766
  00c32	8b f4		 mov	 esi, esp
  00c34	6a 01		 push	 1
  00c36	8b 95 c4 fd ff
	ff		 mov	 edx, DWORD PTR $T189764[ebp]
  00c3c	8b 02		 mov	 eax, DWORD PTR [edx]
  00c3e	8b 8d c4 fd ff
	ff		 mov	 ecx, DWORD PTR $T189764[ebp]
  00c44	ff 10		 call	 DWORD PTR [eax]
  00c46	3b f4		 cmp	 esi, esp
  00c48	e8 00 00 00 00	 call	 __RTC_CheckEsp
  00c4d	89 85 b4 fd ff
	ff		 mov	 DWORD PTR tv129[ebp], eax
  00c53	eb 0a		 jmp	 SHORT $L189767
$L189766:
  00c55	c7 85 b4 fd ff
	ff 00 00 00 00	 mov	 DWORD PTR tv129[ebp], 0
$L189767:

; 139  : 		return NULL;

  00c5f	c7 85 bc fd ff
	ff 00 00 00 00	 mov	 DWORD PTR $T189768[ebp], 0
  00c69	c7 45 fc ff ff
	ff ff		 mov	 DWORD PTR __$EHRec$[ebp+8], -1
  00c70	8b f4		 mov	 esi, esp
  00c72	8d 4d 08	 lea	 ecx, DWORD PTR _str$[ebp]
  00c75	ff 15 00 00 00
	00		 call	 DWORD PTR __imp_??1?$CStringT@DV?$StrTraitMFC_DLL@DV?$ChTraitsCRT@D@ATL@@@@@ATL@@QAE@XZ
  00c7b	3b f4		 cmp	 esi, esp
  00c7d	e8 00 00 00 00	 call	 __RTC_CheckEsp
  00c82	8b 85 bc fd ff
	ff		 mov	 eax, DWORD PTR $T189768[ebp]
$L188562:

; 140  : 	}
; 141  : }

  00c88	52		 push	 edx
  00c89	8b cd		 mov	 ecx, ebp
  00c8b	50		 push	 eax
  00c8c	8d 15 00 00 00
	00		 lea	 edx, DWORD PTR $L189777
  00c92	e8 00 00 00 00	 call	 @_RTC_CheckStackVars@8
  00c97	58		 pop	 eax
  00c98	5a		 pop	 edx
  00c99	8b 4d f4	 mov	 ecx, DWORD PTR __$EHRec$[ebp]
  00c9c	64 89 0d 00 00
	00 00		 mov	 DWORD PTR fs:__except_list, ecx
  00ca3	8b 4d f0	 mov	 ecx, DWORD PTR __$ArrayPad$[ebp]
  00ca6	e8 00 00 00 00	 call	 @__security_check_cookie@4
  00cab	5f		 pop	 edi
  00cac	5e		 pop	 esi
  00cad	81 c4 4c 02 00
	00		 add	 esp, 588		; 0000024cH
  00cb3	3b ec		 cmp	 ebp, esp
  00cb5	e8 00 00 00 00	 call	 __RTC_CheckEsp
  00cba	8b e5		 mov	 esp, ebp
  00cbc	5d		 pop	 ebp
  00cbd	c2 04 00	 ret	 4
$L189777:
  00cc0	01 00 00 00	 DD	 1
  00cc4	00 00 00 00	 DD	 $L189776
$L189776:
  00cc8	e0 fd ff ff	 DD	 -544			; fffffde0H
  00ccc	08 02 00 00	 DD	 520			; 00000208H
  00cd0	00 00 00 00	 DD	 $L189773
$L189773:
  00cd4	77		 DB	 119			; 00000077H
  00cd5	46		 DB	 70			; 00000046H
  00cd6	69		 DB	 105			; 00000069H
  00cd7	6c		 DB	 108			; 0000006cH
  00cd8	65		 DB	 101			; 00000065H
  00cd9	00		 DB	 0
_TEXT	ENDS
text$x	SEGMENT
$L189769:
  000c4	8b f4		 mov	 esi, esp
  000c6	8d 4d 08	 lea	 ecx, DWORD PTR _str$[ebp]
  000c9	ff 15 00 00 00
	00		 call	 DWORD PTR __imp_??1?$CStringT@DV?$StrTraitMFC_DLL@DV?$ChTraitsCRT@D@ATL@@@@@ATL@@QAE@XZ
  000cf	3b f4		 cmp	 esi, esp
  000d1	e9 00 00 00 00	 jmp	 __RTC_CheckEsp
$L189770:
  000d6	6a 7d		 push	 125			; 0000007dH
  000d8	68 00 00 00 00	 push	 OFFSET FLAT:$SG188572
  000dd	8b 85 cc fd ff
	ff		 mov	 eax, DWORD PTR $T189760[ebp]
  000e3	50		 push	 eax
  000e4	e8 00 00 00 00	 call	 ??3@YAXPAXPBDH@Z	; operator delete
  000e9	83 c4 0c	 add	 esp, 12			; 0000000cH
  000ec	c3		 ret	 0
__ehhandler$?CreatePngBitmap@CSubSkinButton@@AAEPAVCGdiPlusBitmap@CSkinButton@@V?$CStringT@DV?$StrTraitMFC_DLL@DV?$ChTraitsCRT@D@ATL@@@@@ATL@@@Z:
  000ed	b8 00 00 00 00	 mov	 eax, OFFSET FLAT:$T189772
  000f2	e9 00 00 00 00	 jmp	 ___CxxFrameHandler
text$x	ENDS
?CreatePngBitmap@CSubSkinButton@@AAEPAVCGdiPlusBitmap@CSkinButton@@V?$CStringT@DV?$StrTraitMFC_DLL@DV?$ChTraitsCRT@D@ATL@@@@@ATL@@@Z ENDP ; CSubSkinButton::CreatePngBitmap
PUBLIC	??HATL@@YA?AV?$CStringT@DV?$StrTraitMFC_DLL@DV?$ChTraitsCRT@D@ATL@@@@@0@ABV10@PBD@Z ; ATL::operator+
EXTRN	__imp_?Mid@?$CStringT@DV?$StrTraitMFC_DLL@DV?$ChTraitsCRT@D@ATL@@@@@ATL@@QBE?AV12@HH@Z:NEAR
EXTRN	__imp_?GetLength@?$CSimpleStringT@D$00@ATL@@QBEHXZ:NEAR
EXTRN	__imp_??4?$CStringT@DV?$StrTraitMFC_DLL@DV?$ChTraitsCRT@D@ATL@@@@@ATL@@QAEAAV01@ABV01@@Z:NEAR
xdata$x	SEGMENT
$T189817 DD	0ffffffffH
	DD	FLAT:$L189801
	DD	00H
	DD	FLAT:$L189802
	DD	01H
	DD	FLAT:$L189803
	DD	00H
	DD	FLAT:$L189803
	DD	03H
	DD	FLAT:$L189805
	DD	04H
	DD	FLAT:$L189806
	DD	03H
	DD	FLAT:$L189808
	DD	06H
	DD	FLAT:$L189809
$T189812 DD	019930520H
	DD	08H
	DD	FLAT:$T189817
	DD	2 DUP(00H)
	DD	2 DUP(00H)
; Function compile flags: /Odt /RTCsu
xdata$x	ENDS
_TEXT	SEGMENT
tv249 = -164						; size = 4
tv248 = -160						; size = 4
tv246 = -156						; size = 4
tv267 = -152						; size = 4
tv244 = -148						; size = 4
tv264 = -144						; size = 4
tv242 = -140						; size = 4
tv241 = -136						; size = 4
tv239 = -132						; size = 4
tv261 = -128						; size = 4
tv237 = -124						; size = 4
tv258 = -120						; size = 4
tv235 = -116						; size = 4
tv234 = -112						; size = 4
tv231 = -108						; size = 4
tv254 = -104						; size = 4
tv94 = -100						; size = 4
tv84 = -96						; size = 4
tv74 = -92						; size = 4
$T189800 = -88						; size = 4
$T189799 = -84						; size = 4
$T189798 = -80						; size = 4
$T189797 = -76						; size = 4
$T189796 = -72						; size = 4
$T189795 = -68						; size = 4
$T189794 = -64						; size = 4
$T189793 = -60						; size = 4
$T189792 = -56						; size = 4
$T189789 = -52						; size = 4
$T189788 = -48						; size = 4
$T189785 = -44						; size = 4
$T189784 = -40						; size = 4
$T189781 = -36						; size = 4
$T189780 = -32						; size = 4
_path$ = -24						; size = 4
_this$ = -16						; size = 4
__$EHRec$ = -12						; size = 12
_str$ = 8						; size = 4
?SetPngHoverSkin@CSubSkinButton@@UAEHV?$CStringT@DV?$StrTraitMFC_DLL@DV?$ChTraitsCRT@D@ATL@@@@@ATL@@@Z PROC NEAR ; CSubSkinButton::SetPngHoverSkin
; _this$ = ecx

; 144  : {

  00ce0	55		 push	 ebp
  00ce1	8b ec		 mov	 ebp, esp
  00ce3	6a ff		 push	 -1
  00ce5	68 00 00 00 00	 push	 __ehhandler$?SetPngHoverSkin@CSubSkinButton@@UAEHV?$CStringT@DV?$StrTraitMFC_DLL@DV?$ChTraitsCRT@D@ATL@@@@@ATL@@@Z
  00cea	64 a1 00 00 00
	00		 mov	 eax, DWORD PTR fs:__except_list
  00cf0	50		 push	 eax
  00cf1	64 89 25 00 00
	00 00		 mov	 DWORD PTR fs:__except_list, esp
  00cf8	81 ec 98 00 00
	00		 sub	 esp, 152		; 00000098H
  00cfe	56		 push	 esi
  00cff	57		 push	 edi
  00d00	51		 push	 ecx
  00d01	8d bd 5c ff ff
	ff		 lea	 edi, DWORD PTR [ebp-164]
  00d07	b9 26 00 00 00	 mov	 ecx, 38			; 00000026H
  00d0c	b8 cc cc cc cc	 mov	 eax, -858993460		; ccccccccH
  00d11	f3 ab		 rep stosd
  00d13	59		 pop	 ecx
  00d14	89 4d f0	 mov	 DWORD PTR _this$[ebp], ecx
  00d17	c7 45 fc 00 00
	00 00		 mov	 DWORD PTR __$EHRec$[ebp+8], 0

; 145  : 	if( m_pPngDeleteNormal != NULL )

  00d1e	8b 45 f0	 mov	 eax, DWORD PTR _this$[ebp]
  00d21	83 b8 3c 01 00
	00 00		 cmp	 DWORD PTR [eax+316], 0
  00d28	74 39		 je	 SHORT $L188584

; 146  : 		delete m_pPngDeleteNormal;

  00d2a	8b 4d f0	 mov	 ecx, DWORD PTR _this$[ebp]
  00d2d	8b 91 3c 01 00
	00		 mov	 edx, DWORD PTR [ecx+316]
  00d33	89 55 dc	 mov	 DWORD PTR $T189781[ebp], edx
  00d36	8b 45 dc	 mov	 eax, DWORD PTR $T189781[ebp]
  00d39	89 45 e0	 mov	 DWORD PTR $T189780[ebp], eax
  00d3c	83 7d e0 00	 cmp	 DWORD PTR $T189780[ebp], 0
  00d40	74 1a		 je	 SHORT $L189782
  00d42	8b f4		 mov	 esi, esp
  00d44	6a 01		 push	 1
  00d46	8b 4d e0	 mov	 ecx, DWORD PTR $T189780[ebp]
  00d49	8b 11		 mov	 edx, DWORD PTR [ecx]
  00d4b	8b 4d e0	 mov	 ecx, DWORD PTR $T189780[ebp]
  00d4e	ff 12		 call	 DWORD PTR [edx]
  00d50	3b f4		 cmp	 esi, esp
  00d52	e8 00 00 00 00	 call	 __RTC_CheckEsp
  00d57	89 45 a4	 mov	 DWORD PTR tv74[ebp], eax
  00d5a	eb 07		 jmp	 SHORT $L188584
$L189782:
  00d5c	c7 45 a4 00 00
	00 00		 mov	 DWORD PTR tv74[ebp], 0
$L188584:

; 147  : 	if( m_pPngDeleteOver != NULL )

  00d63	8b 45 f0	 mov	 eax, DWORD PTR _this$[ebp]
  00d66	83 b8 38 01 00
	00 00		 cmp	 DWORD PTR [eax+312], 0
  00d6d	74 39		 je	 SHORT $L188587

; 148  : 		delete m_pPngDeleteOver;

  00d6f	8b 4d f0	 mov	 ecx, DWORD PTR _this$[ebp]
  00d72	8b 91 38 01 00
	00		 mov	 edx, DWORD PTR [ecx+312]
  00d78	89 55 d4	 mov	 DWORD PTR $T189785[ebp], edx
  00d7b	8b 45 d4	 mov	 eax, DWORD PTR $T189785[ebp]
  00d7e	89 45 d8	 mov	 DWORD PTR $T189784[ebp], eax
  00d81	83 7d d8 00	 cmp	 DWORD PTR $T189784[ebp], 0
  00d85	74 1a		 je	 SHORT $L189786
  00d87	8b f4		 mov	 esi, esp
  00d89	6a 01		 push	 1
  00d8b	8b 4d d8	 mov	 ecx, DWORD PTR $T189784[ebp]
  00d8e	8b 11		 mov	 edx, DWORD PTR [ecx]
  00d90	8b 4d d8	 mov	 ecx, DWORD PTR $T189784[ebp]
  00d93	ff 12		 call	 DWORD PTR [edx]
  00d95	3b f4		 cmp	 esi, esp
  00d97	e8 00 00 00 00	 call	 __RTC_CheckEsp
  00d9c	89 45 a0	 mov	 DWORD PTR tv84[ebp], eax
  00d9f	eb 07		 jmp	 SHORT $L188587
$L189786:
  00da1	c7 45 a0 00 00
	00 00		 mov	 DWORD PTR tv84[ebp], 0
$L188587:

; 149  : 	if( m_pPngDeleteDown != NULL )

  00da8	8b 45 f0	 mov	 eax, DWORD PTR _this$[ebp]
  00dab	83 b8 34 01 00
	00 00		 cmp	 DWORD PTR [eax+308], 0
  00db2	74 39		 je	 SHORT $L188590

; 150  : 		delete m_pPngDeleteDown;

  00db4	8b 4d f0	 mov	 ecx, DWORD PTR _this$[ebp]
  00db7	8b 91 34 01 00
	00		 mov	 edx, DWORD PTR [ecx+308]
  00dbd	89 55 cc	 mov	 DWORD PTR $T189789[ebp], edx
  00dc0	8b 45 cc	 mov	 eax, DWORD PTR $T189789[ebp]
  00dc3	89 45 d0	 mov	 DWORD PTR $T189788[ebp], eax
  00dc6	83 7d d0 00	 cmp	 DWORD PTR $T189788[ebp], 0
  00dca	74 1a		 je	 SHORT $L189790
  00dcc	8b f4		 mov	 esi, esp
  00dce	6a 01		 push	 1
  00dd0	8b 4d d0	 mov	 ecx, DWORD PTR $T189788[ebp]
  00dd3	8b 11		 mov	 edx, DWORD PTR [ecx]
  00dd5	8b 4d d0	 mov	 ecx, DWORD PTR $T189788[ebp]
  00dd8	ff 12		 call	 DWORD PTR [edx]
  00dda	3b f4		 cmp	 esi, esp
  00ddc	e8 00 00 00 00	 call	 __RTC_CheckEsp
  00de1	89 45 9c	 mov	 DWORD PTR tv94[ebp], eax
  00de4	eb 07		 jmp	 SHORT $L188590
$L189790:
  00de6	c7 45 9c 00 00
	00 00		 mov	 DWORD PTR tv94[ebp], 0
$L188590:

; 151  : 
; 152  : 	CString path = str.Mid(0, str.GetLength() - 4) + "Normal.png";

  00ded	8b f4		 mov	 esi, esp
  00def	8d 4d 08	 lea	 ecx, DWORD PTR _str$[ebp]
  00df2	ff 15 00 00 00
	00		 call	 DWORD PTR __imp_?GetLength@?$CSimpleStringT@D$00@ATL@@QBEHXZ
  00df8	3b f4		 cmp	 esi, esp
  00dfa	e8 00 00 00 00	 call	 __RTC_CheckEsp
  00dff	83 e8 04	 sub	 eax, 4
  00e02	8b f4		 mov	 esi, esp
  00e04	50		 push	 eax
  00e05	6a 00		 push	 0
  00e07	8d 45 c8	 lea	 eax, DWORD PTR $T189792[ebp]
  00e0a	50		 push	 eax
  00e0b	8d 4d 08	 lea	 ecx, DWORD PTR _str$[ebp]
  00e0e	ff 15 00 00 00
	00		 call	 DWORD PTR __imp_?Mid@?$CStringT@DV?$StrTraitMFC_DLL@DV?$ChTraitsCRT@D@ATL@@@@@ATL@@QBE?AV12@HH@Z
  00e14	3b f4		 cmp	 esi, esp
  00e16	e8 00 00 00 00	 call	 __RTC_CheckEsp
  00e1b	89 45 98	 mov	 DWORD PTR tv254[ebp], eax
  00e1e	8b 4d 98	 mov	 ecx, DWORD PTR tv254[ebp]
  00e21	89 4d 94	 mov	 DWORD PTR tv231[ebp], ecx
  00e24	c6 45 fc 01	 mov	 BYTE PTR __$EHRec$[ebp+8], 1
  00e28	68 00 00 00 00	 push	 OFFSET FLAT:$SG188596
  00e2d	8b 55 94	 mov	 edx, DWORD PTR tv231[ebp]
  00e30	52		 push	 edx
  00e31	8d 45 e8	 lea	 eax, DWORD PTR _path$[ebp]
  00e34	50		 push	 eax
  00e35	e8 00 00 00 00	 call	 ??HATL@@YA?AV?$CStringT@DV?$StrTraitMFC_DLL@DV?$ChTraitsCRT@D@ATL@@@@@0@ABV10@PBD@Z ; ATL::operator+
  00e3a	83 c4 0c	 add	 esp, 12			; 0000000cH
  00e3d	c6 45 fc 03	 mov	 BYTE PTR __$EHRec$[ebp+8], 3
  00e41	8b f4		 mov	 esi, esp
  00e43	8d 4d c8	 lea	 ecx, DWORD PTR $T189792[ebp]
  00e46	ff 15 00 00 00
	00		 call	 DWORD PTR __imp_??1?$CStringT@DV?$StrTraitMFC_DLL@DV?$ChTraitsCRT@D@ATL@@@@@ATL@@QAE@XZ
  00e4c	3b f4		 cmp	 esi, esp
  00e4e	e8 00 00 00 00	 call	 __RTC_CheckEsp

; 153  : 	m_pPngDeleteNormal = CreatePngBitmap(path);

  00e53	51		 push	 ecx
  00e54	8b cc		 mov	 ecx, esp
  00e56	89 65 c4	 mov	 DWORD PTR $T189793[ebp], esp
  00e59	8b f4		 mov	 esi, esp
  00e5b	8d 55 e8	 lea	 edx, DWORD PTR _path$[ebp]
  00e5e	52		 push	 edx
  00e5f	ff 15 00 00 00
	00		 call	 DWORD PTR __imp_??0?$CStringT@DV?$StrTraitMFC_DLL@DV?$ChTraitsCRT@D@ATL@@@@@ATL@@QAE@ABV01@@Z
  00e65	3b f4		 cmp	 esi, esp
  00e67	e8 00 00 00 00	 call	 __RTC_CheckEsp
  00e6c	89 45 90	 mov	 DWORD PTR tv234[ebp], eax
  00e6f	8b 4d f0	 mov	 ecx, DWORD PTR _this$[ebp]
  00e72	e8 00 00 00 00	 call	 ?CreatePngBitmap@CSubSkinButton@@AAEPAVCGdiPlusBitmap@CSkinButton@@V?$CStringT@DV?$StrTraitMFC_DLL@DV?$ChTraitsCRT@D@ATL@@@@@ATL@@@Z ; CSubSkinButton::CreatePngBitmap
  00e77	89 45 8c	 mov	 DWORD PTR tv235[ebp], eax
  00e7a	8b 45 f0	 mov	 eax, DWORD PTR _this$[ebp]
  00e7d	8b 4d 8c	 mov	 ecx, DWORD PTR tv235[ebp]
  00e80	89 88 3c 01 00
	00		 mov	 DWORD PTR [eax+316], ecx

; 154  : 
; 155  : 	path = str.Mid(0, str.GetLength() - 4) + "Over.png";

  00e86	8b f4		 mov	 esi, esp
  00e88	8d 4d 08	 lea	 ecx, DWORD PTR _str$[ebp]
  00e8b	ff 15 00 00 00
	00		 call	 DWORD PTR __imp_?GetLength@?$CSimpleStringT@D$00@ATL@@QBEHXZ
  00e91	3b f4		 cmp	 esi, esp
  00e93	e8 00 00 00 00	 call	 __RTC_CheckEsp
  00e98	83 e8 04	 sub	 eax, 4
  00e9b	8b f4		 mov	 esi, esp
  00e9d	50		 push	 eax
  00e9e	6a 00		 push	 0
  00ea0	8d 55 c0	 lea	 edx, DWORD PTR $T189794[ebp]
  00ea3	52		 push	 edx
  00ea4	8d 4d 08	 lea	 ecx, DWORD PTR _str$[ebp]
  00ea7	ff 15 00 00 00
	00		 call	 DWORD PTR __imp_?Mid@?$CStringT@DV?$StrTraitMFC_DLL@DV?$ChTraitsCRT@D@ATL@@@@@ATL@@QBE?AV12@HH@Z
  00ead	3b f4		 cmp	 esi, esp
  00eaf	e8 00 00 00 00	 call	 __RTC_CheckEsp
  00eb4	89 45 88	 mov	 DWORD PTR tv258[ebp], eax
  00eb7	8b 45 88	 mov	 eax, DWORD PTR tv258[ebp]
  00eba	89 45 84	 mov	 DWORD PTR tv237[ebp], eax
  00ebd	c6 45 fc 04	 mov	 BYTE PTR __$EHRec$[ebp+8], 4
  00ec1	68 00 00 00 00	 push	 OFFSET FLAT:$SG188600
  00ec6	8b 4d 84	 mov	 ecx, DWORD PTR tv237[ebp]
  00ec9	51		 push	 ecx
  00eca	8d 55 bc	 lea	 edx, DWORD PTR $T189795[ebp]
  00ecd	52		 push	 edx
  00ece	e8 00 00 00 00	 call	 ??HATL@@YA?AV?$CStringT@DV?$StrTraitMFC_DLL@DV?$ChTraitsCRT@D@ATL@@@@@0@ABV10@PBD@Z ; ATL::operator+
  00ed3	83 c4 0c	 add	 esp, 12			; 0000000cH
  00ed6	89 45 80	 mov	 DWORD PTR tv261[ebp], eax
  00ed9	8b 45 80	 mov	 eax, DWORD PTR tv261[ebp]
  00edc	89 85 7c ff ff
	ff		 mov	 DWORD PTR tv239[ebp], eax
  00ee2	c6 45 fc 05	 mov	 BYTE PTR __$EHRec$[ebp+8], 5
  00ee6	8b f4		 mov	 esi, esp
  00ee8	8b 8d 7c ff ff
	ff		 mov	 ecx, DWORD PTR tv239[ebp]
  00eee	51		 push	 ecx
  00eef	8d 4d e8	 lea	 ecx, DWORD PTR _path$[ebp]
  00ef2	ff 15 00 00 00
	00		 call	 DWORD PTR __imp_??4?$CStringT@DV?$StrTraitMFC_DLL@DV?$ChTraitsCRT@D@ATL@@@@@ATL@@QAEAAV01@ABV01@@Z
  00ef8	3b f4		 cmp	 esi, esp
  00efa	e8 00 00 00 00	 call	 __RTC_CheckEsp
  00eff	c6 45 fc 04	 mov	 BYTE PTR __$EHRec$[ebp+8], 4
  00f03	8b f4		 mov	 esi, esp
  00f05	8d 4d bc	 lea	 ecx, DWORD PTR $T189795[ebp]
  00f08	ff 15 00 00 00
	00		 call	 DWORD PTR __imp_??1?$CStringT@DV?$StrTraitMFC_DLL@DV?$ChTraitsCRT@D@ATL@@@@@ATL@@QAE@XZ
  00f0e	3b f4		 cmp	 esi, esp
  00f10	e8 00 00 00 00	 call	 __RTC_CheckEsp
  00f15	c6 45 fc 03	 mov	 BYTE PTR __$EHRec$[ebp+8], 3
  00f19	8b f4		 mov	 esi, esp
  00f1b	8d 4d c0	 lea	 ecx, DWORD PTR $T189794[ebp]
  00f1e	ff 15 00 00 00
	00		 call	 DWORD PTR __imp_??1?$CStringT@DV?$StrTraitMFC_DLL@DV?$ChTraitsCRT@D@ATL@@@@@ATL@@QAE@XZ
  00f24	3b f4		 cmp	 esi, esp
  00f26	e8 00 00 00 00	 call	 __RTC_CheckEsp

; 156  : 	m_pPngDeleteOver = CreatePngBitmap(path);

  00f2b	51		 push	 ecx
  00f2c	8b cc		 mov	 ecx, esp
  00f2e	89 65 b8	 mov	 DWORD PTR $T189796[ebp], esp
  00f31	8b f4		 mov	 esi, esp
  00f33	8d 55 e8	 lea	 edx, DWORD PTR _path$[ebp]
  00f36	52		 push	 edx
  00f37	ff 15 00 00 00
	00		 call	 DWORD PTR __imp_??0?$CStringT@DV?$StrTraitMFC_DLL@DV?$ChTraitsCRT@D@ATL@@@@@ATL@@QAE@ABV01@@Z
  00f3d	3b f4		 cmp	 esi, esp
  00f3f	e8 00 00 00 00	 call	 __RTC_CheckEsp
  00f44	89 85 78 ff ff
	ff		 mov	 DWORD PTR tv241[ebp], eax
  00f4a	8b 4d f0	 mov	 ecx, DWORD PTR _this$[ebp]
  00f4d	e8 00 00 00 00	 call	 ?CreatePngBitmap@CSubSkinButton@@AAEPAVCGdiPlusBitmap@CSkinButton@@V?$CStringT@DV?$StrTraitMFC_DLL@DV?$ChTraitsCRT@D@ATL@@@@@ATL@@@Z ; CSubSkinButton::CreatePngBitmap
  00f52	89 85 74 ff ff
	ff		 mov	 DWORD PTR tv242[ebp], eax
  00f58	8b 45 f0	 mov	 eax, DWORD PTR _this$[ebp]
  00f5b	8b 8d 74 ff ff
	ff		 mov	 ecx, DWORD PTR tv242[ebp]
  00f61	89 88 38 01 00
	00		 mov	 DWORD PTR [eax+312], ecx

; 157  : 
; 158  : 	path = str.Mid(0, str.GetLength() - 4) + "Down.png";

  00f67	8b f4		 mov	 esi, esp
  00f69	8d 4d 08	 lea	 ecx, DWORD PTR _str$[ebp]
  00f6c	ff 15 00 00 00
	00		 call	 DWORD PTR __imp_?GetLength@?$CSimpleStringT@D$00@ATL@@QBEHXZ
  00f72	3b f4		 cmp	 esi, esp
  00f74	e8 00 00 00 00	 call	 __RTC_CheckEsp
  00f79	83 e8 04	 sub	 eax, 4
  00f7c	8b f4		 mov	 esi, esp
  00f7e	50		 push	 eax
  00f7f	6a 00		 push	 0
  00f81	8d 55 b4	 lea	 edx, DWORD PTR $T189797[ebp]
  00f84	52		 push	 edx
  00f85	8d 4d 08	 lea	 ecx, DWORD PTR _str$[ebp]
  00f88	ff 15 00 00 00
	00		 call	 DWORD PTR __imp_?Mid@?$CStringT@DV?$StrTraitMFC_DLL@DV?$ChTraitsCRT@D@ATL@@@@@ATL@@QBE?AV12@HH@Z
  00f8e	3b f4		 cmp	 esi, esp
  00f90	e8 00 00 00 00	 call	 __RTC_CheckEsp
  00f95	89 85 70 ff ff
	ff		 mov	 DWORD PTR tv264[ebp], eax
  00f9b	8b 85 70 ff ff
	ff		 mov	 eax, DWORD PTR tv264[ebp]
  00fa1	89 85 6c ff ff
	ff		 mov	 DWORD PTR tv244[ebp], eax
  00fa7	c6 45 fc 06	 mov	 BYTE PTR __$EHRec$[ebp+8], 6
  00fab	68 00 00 00 00	 push	 OFFSET FLAT:$SG188604
  00fb0	8b 8d 6c ff ff
	ff		 mov	 ecx, DWORD PTR tv244[ebp]
  00fb6	51		 push	 ecx
  00fb7	8d 55 b0	 lea	 edx, DWORD PTR $T189798[ebp]
  00fba	52		 push	 edx
  00fbb	e8 00 00 00 00	 call	 ??HATL@@YA?AV?$CStringT@DV?$StrTraitMFC_DLL@DV?$ChTraitsCRT@D@ATL@@@@@0@ABV10@PBD@Z ; ATL::operator+
  00fc0	83 c4 0c	 add	 esp, 12			; 0000000cH
  00fc3	89 85 68 ff ff
	ff		 mov	 DWORD PTR tv267[ebp], eax
  00fc9	8b 85 68 ff ff
	ff		 mov	 eax, DWORD PTR tv267[ebp]
  00fcf	89 85 64 ff ff
	ff		 mov	 DWORD PTR tv246[ebp], eax
  00fd5	c6 45 fc 07	 mov	 BYTE PTR __$EHRec$[ebp+8], 7
  00fd9	8b f4		 mov	 esi, esp
  00fdb	8b 8d 64 ff ff
	ff		 mov	 ecx, DWORD PTR tv246[ebp]
  00fe1	51		 push	 ecx
  00fe2	8d 4d e8	 lea	 ecx, DWORD PTR _path$[ebp]
  00fe5	ff 15 00 00 00
	00		 call	 DWORD PTR __imp_??4?$CStringT@DV?$StrTraitMFC_DLL@DV?$ChTraitsCRT@D@ATL@@@@@ATL@@QAEAAV01@ABV01@@Z
  00feb	3b f4		 cmp	 esi, esp
  00fed	e8 00 00 00 00	 call	 __RTC_CheckEsp
  00ff2	c6 45 fc 06	 mov	 BYTE PTR __$EHRec$[ebp+8], 6
  00ff6	8b f4		 mov	 esi, esp
  00ff8	8d 4d b0	 lea	 ecx, DWORD PTR $T189798[ebp]
  00ffb	ff 15 00 00 00
	00		 call	 DWORD PTR __imp_??1?$CStringT@DV?$StrTraitMFC_DLL@DV?$ChTraitsCRT@D@ATL@@@@@ATL@@QAE@XZ
  01001	3b f4		 cmp	 esi, esp
  01003	e8 00 00 00 00	 call	 __RTC_CheckEsp
  01008	c6 45 fc 03	 mov	 BYTE PTR __$EHRec$[ebp+8], 3
  0100c	8b f4		 mov	 esi, esp
  0100e	8d 4d b4	 lea	 ecx, DWORD PTR $T189797[ebp]
  01011	ff 15 00 00 00
	00		 call	 DWORD PTR __imp_??1?$CStringT@DV?$StrTraitMFC_DLL@DV?$ChTraitsCRT@D@ATL@@@@@ATL@@QAE@XZ
  01017	3b f4		 cmp	 esi, esp
  01019	e8 00 00 00 00	 call	 __RTC_CheckEsp

; 159  : 	m_pPngDeleteDown = CreatePngBitmap(path);

  0101e	51		 push	 ecx
  0101f	8b cc		 mov	 ecx, esp
  01021	89 65 ac	 mov	 DWORD PTR $T189799[ebp], esp
  01024	8b f4		 mov	 esi, esp
  01026	8d 55 e8	 lea	 edx, DWORD PTR _path$[ebp]
  01029	52		 push	 edx
  0102a	ff 15 00 00 00
	00		 call	 DWORD PTR __imp_??0?$CStringT@DV?$StrTraitMFC_DLL@DV?$ChTraitsCRT@D@ATL@@@@@ATL@@QAE@ABV01@@Z
  01030	3b f4		 cmp	 esi, esp
  01032	e8 00 00 00 00	 call	 __RTC_CheckEsp
  01037	89 85 60 ff ff
	ff		 mov	 DWORD PTR tv248[ebp], eax
  0103d	8b 4d f0	 mov	 ecx, DWORD PTR _this$[ebp]
  01040	e8 00 00 00 00	 call	 ?CreatePngBitmap@CSubSkinButton@@AAEPAVCGdiPlusBitmap@CSkinButton@@V?$CStringT@DV?$StrTraitMFC_DLL@DV?$ChTraitsCRT@D@ATL@@@@@ATL@@@Z ; CSubSkinButton::CreatePngBitmap
  01045	89 85 5c ff ff
	ff		 mov	 DWORD PTR tv249[ebp], eax
  0104b	8b 45 f0	 mov	 eax, DWORD PTR _this$[ebp]
  0104e	8b 8d 5c ff ff
	ff		 mov	 ecx, DWORD PTR tv249[ebp]
  01054	89 88 34 01 00
	00		 mov	 DWORD PTR [eax+308], ecx

; 160  : 	return true;

  0105a	c7 45 a8 01 00
	00 00		 mov	 DWORD PTR $T189800[ebp], 1
  01061	c6 45 fc 00	 mov	 BYTE PTR __$EHRec$[ebp+8], 0
  01065	8b f4		 mov	 esi, esp
  01067	8d 4d e8	 lea	 ecx, DWORD PTR _path$[ebp]
  0106a	ff 15 00 00 00
	00		 call	 DWORD PTR __imp_??1?$CStringT@DV?$StrTraitMFC_DLL@DV?$ChTraitsCRT@D@ATL@@@@@ATL@@QAE@XZ
  01070	3b f4		 cmp	 esi, esp
  01072	e8 00 00 00 00	 call	 __RTC_CheckEsp
  01077	c7 45 fc ff ff
	ff ff		 mov	 DWORD PTR __$EHRec$[ebp+8], -1
  0107e	8b f4		 mov	 esi, esp
  01080	8d 4d 08	 lea	 ecx, DWORD PTR _str$[ebp]
  01083	ff 15 00 00 00
	00		 call	 DWORD PTR __imp_??1?$CStringT@DV?$StrTraitMFC_DLL@DV?$ChTraitsCRT@D@ATL@@@@@ATL@@QAE@XZ
  01089	3b f4		 cmp	 esi, esp
  0108b	e8 00 00 00 00	 call	 __RTC_CheckEsp
  01090	8b 45 a8	 mov	 eax, DWORD PTR $T189800[ebp]

; 161  : }

  01093	52		 push	 edx
  01094	8b cd		 mov	 ecx, ebp
  01096	50		 push	 eax
  01097	8d 15 00 00 00
	00		 lea	 edx, DWORD PTR $L189816
  0109d	e8 00 00 00 00	 call	 @_RTC_CheckStackVars@8
  010a2	58		 pop	 eax
  010a3	5a		 pop	 edx
  010a4	8b 4d f4	 mov	 ecx, DWORD PTR __$EHRec$[ebp]
  010a7	64 89 0d 00 00
	00 00		 mov	 DWORD PTR fs:__except_list, ecx
  010ae	5f		 pop	 edi
  010af	5e		 pop	 esi
  010b0	81 c4 a4 00 00
	00		 add	 esp, 164		; 000000a4H
  010b6	3b ec		 cmp	 ebp, esp
  010b8	e8 00 00 00 00	 call	 __RTC_CheckEsp
  010bd	8b e5		 mov	 esp, ebp
  010bf	5d		 pop	 ebp
  010c0	c2 04 00	 ret	 4
$L189816:
  010c3	01 00 00 00	 DD	 1
  010c7	00 00 00 00	 DD	 $L189815
$L189815:
  010cb	e8 ff ff ff	 DD	 -24			; ffffffe8H
  010cf	04 00 00 00	 DD	 4
  010d3	00 00 00 00	 DD	 $L189813
$L189813:
  010d7	70		 DB	 112			; 00000070H
  010d8	61		 DB	 97			; 00000061H
  010d9	74		 DB	 116			; 00000074H
  010da	68		 DB	 104			; 00000068H
  010db	00		 DB	 0
_TEXT	ENDS
text$x	SEGMENT
$L189801:
  000f7	8b f4		 mov	 esi, esp
  000f9	8d 4d 08	 lea	 ecx, DWORD PTR _str$[ebp]
  000fc	ff 15 00 00 00
	00		 call	 DWORD PTR __imp_??1?$CStringT@DV?$StrTraitMFC_DLL@DV?$ChTraitsCRT@D@ATL@@@@@ATL@@QAE@XZ
  00102	3b f4		 cmp	 esi, esp
  00104	e9 00 00 00 00	 jmp	 __RTC_CheckEsp
$L189802:
  00109	8b f4		 mov	 esi, esp
  0010b	8d 4d c8	 lea	 ecx, DWORD PTR $T189792[ebp]
  0010e	ff 15 00 00 00
	00		 call	 DWORD PTR __imp_??1?$CStringT@DV?$StrTraitMFC_DLL@DV?$ChTraitsCRT@D@ATL@@@@@ATL@@QAE@XZ
  00114	3b f4		 cmp	 esi, esp
  00116	e9 00 00 00 00	 jmp	 __RTC_CheckEsp
$L189803:
  0011b	8b f4		 mov	 esi, esp
  0011d	8d 4d e8	 lea	 ecx, DWORD PTR _path$[ebp]
  00120	ff 15 00 00 00
	00		 call	 DWORD PTR __imp_??1?$CStringT@DV?$StrTraitMFC_DLL@DV?$ChTraitsCRT@D@ATL@@@@@ATL@@QAE@XZ
  00126	3b f4		 cmp	 esi, esp
  00128	e9 00 00 00 00	 jmp	 __RTC_CheckEsp
$L189805:
  0012d	8b f4		 mov	 esi, esp
  0012f	8d 4d c0	 lea	 ecx, DWORD PTR $T189794[ebp]
  00132	ff 15 00 00 00
	00		 call	 DWORD PTR __imp_??1?$CStringT@DV?$StrTraitMFC_DLL@DV?$ChTraitsCRT@D@ATL@@@@@ATL@@QAE@XZ
  00138	3b f4		 cmp	 esi, esp
  0013a	e9 00 00 00 00	 jmp	 __RTC_CheckEsp
$L189806:
  0013f	8b f4		 mov	 esi, esp
  00141	8d 4d bc	 lea	 ecx, DWORD PTR $T189795[ebp]
  00144	ff 15 00 00 00
	00		 call	 DWORD PTR __imp_??1?$CStringT@DV?$StrTraitMFC_DLL@DV?$ChTraitsCRT@D@ATL@@@@@ATL@@QAE@XZ
  0014a	3b f4		 cmp	 esi, esp
  0014c	e9 00 00 00 00	 jmp	 __RTC_CheckEsp
$L189808:
  00151	8b f4		 mov	 esi, esp
  00153	8d 4d b4	 lea	 ecx, DWORD PTR $T189797[ebp]
  00156	ff 15 00 00 00
	00		 call	 DWORD PTR __imp_??1?$CStringT@DV?$StrTraitMFC_DLL@DV?$ChTraitsCRT@D@ATL@@@@@ATL@@QAE@XZ
  0015c	3b f4		 cmp	 esi, esp
  0015e	e9 00 00 00 00	 jmp	 __RTC_CheckEsp
$L189809:
  00163	8b f4		 mov	 esi, esp
  00165	8d 4d b0	 lea	 ecx, DWORD PTR $T189798[ebp]
  00168	ff 15 00 00 00
	00		 call	 DWORD PTR __imp_??1?$CStringT@DV?$StrTraitMFC_DLL@DV?$ChTraitsCRT@D@ATL@@@@@ATL@@QAE@XZ
  0016e	3b f4		 cmp	 esi, esp
  00170	e9 00 00 00 00	 jmp	 __RTC_CheckEsp
__ehhandler$?SetPngHoverSkin@CSubSkinButton@@UAEHV?$CStringT@DV?$StrTraitMFC_DLL@DV?$ChTraitsCRT@D@ATL@@@@@ATL@@@Z:
  00175	b8 00 00 00 00	 mov	 eax, OFFSET FLAT:$T189812
  0017a	e9 00 00 00 00	 jmp	 ___CxxFrameHandler
text$x	ENDS
?SetPngHoverSkin@CSubSkinButton@@UAEHV?$CStringT@DV?$StrTraitMFC_DLL@DV?$ChTraitsCRT@D@ATL@@@@@ATL@@@Z ENDP ; CSubSkinButton::SetPngHoverSkin
PUBLIC	??0RectF@Gdiplus@@QAE@XZ			; Gdiplus::RectF::RectF
PUBLIC	??0Rect@Gdiplus@@QAE@HHHH@Z			; Gdiplus::Rect::Rect
PUBLIC	??BCGdiPlusBitmap@CSkinButton@@QBEPAVBitmap@Gdiplus@@XZ ; CSkinButton::CGdiPlusBitmap::operator Gdiplus::Bitmap *
PUBLIC	?DrawImage@Graphics@Gdiplus@@QAE?AW4Status@2@PAVImage@2@ABVRect@2@HHHHW4Unit@2@PBVImageAttributes@2@P6GHPAX@Z4@Z ; Gdiplus::Graphics::DrawImage
EXTRN	?Width@CRect@@QBEHXZ:NEAR			; CRect::Width
; Function compile flags: /Odt /RTCsu
_TEXT	SEGMENT
tv91 = -96						; size = 4
_rr$188618 = -88					; size = 16
_nY$188617 = -68					; size = 4
_nX$188616 = -64					; size = 4
_grect$188615 = -56					; size = 16
_h$188614 = -36						; size = 4
_w$188613 = -32						; size = 4
_rect$188612 = -24					; size = 16
_this$ = -4						; size = 4
_gdi$ = 8						; size = 4
?DrawBtnFrame@CSubSkinButton@@IAEXAAVGraphics@Gdiplus@@@Z PROC NEAR ; CSubSkinButton::DrawBtnFrame
; _this$ = ecx

; 164  : {

  010e0	55		 push	 ebp
  010e1	8b ec		 mov	 ebp, esp
  010e3	83 ec 60	 sub	 esp, 96			; 00000060H
  010e6	57		 push	 edi
  010e7	51		 push	 ecx
  010e8	8d 7d a0	 lea	 edi, DWORD PTR [ebp-96]
  010eb	b9 18 00 00 00	 mov	 ecx, 24			; 00000018H
  010f0	b8 cc cc cc cc	 mov	 eax, -858993460		; ccccccccH
  010f5	f3 ab		 rep stosd
  010f7	59		 pop	 ecx
  010f8	89 4d fc	 mov	 DWORD PTR _this$[ebp], ecx

; 165  : 	if( m_pPngFrame && m_pPngFrame->m_pBitmap )

  010fb	8b 45 fc	 mov	 eax, DWORD PTR _this$[ebp]
  010fe	83 b8 40 01 00
	00 00		 cmp	 DWORD PTR [eax+320], 0
  01105	0f 84 e1 00 00
	00		 je	 $L188610
  0110b	8b 4d fc	 mov	 ecx, DWORD PTR _this$[ebp]
  0110e	8b 91 40 01 00
	00		 mov	 edx, DWORD PTR [ecx+320]
  01114	83 7a 04 00	 cmp	 DWORD PTR [edx+4], 0
  01118	0f 84 ce 00 00
	00		 je	 $L188610

; 166  : 	{
; 167  : 		CRect rect;

  0111e	8d 4d e8	 lea	 ecx, DWORD PTR _rect$188612[ebp]
  01121	e8 00 00 00 00	 call	 ??0CRect@@QAE@XZ	; CRect::CRect

; 168  : 		this->GetClientRect(&rect);

  01126	8d 45 e8	 lea	 eax, DWORD PTR _rect$188612[ebp]
  01129	50		 push	 eax
  0112a	8b 4d fc	 mov	 ecx, DWORD PTR _this$[ebp]
  0112d	e8 00 00 00 00	 call	 ?GetClientRect@CWnd@@QBEXPAUtagRECT@@@Z ; CWnd::GetClientRect

; 169  : 		int w = m_pPngFrame->m_pBitmap->GetWidth();

  01132	8b 4d fc	 mov	 ecx, DWORD PTR _this$[ebp]
  01135	8b 91 40 01 00
	00		 mov	 edx, DWORD PTR [ecx+320]
  0113b	8b 4a 04	 mov	 ecx, DWORD PTR [edx+4]
  0113e	e8 00 00 00 00	 call	 ?GetWidth@Image@Gdiplus@@QAEIXZ ; Gdiplus::Image::GetWidth
  01143	89 45 e0	 mov	 DWORD PTR _w$188613[ebp], eax

; 170  : 		int h = m_pPngFrame->m_pBitmap->GetHeight();

  01146	8b 45 fc	 mov	 eax, DWORD PTR _this$[ebp]
  01149	8b 88 40 01 00
	00		 mov	 ecx, DWORD PTR [eax+320]
  0114f	8b 49 04	 mov	 ecx, DWORD PTR [ecx+4]
  01152	e8 00 00 00 00	 call	 ?GetHeight@Image@Gdiplus@@QAEIXZ ; Gdiplus::Image::GetHeight
  01157	89 45 dc	 mov	 DWORD PTR _h$188614[ebp], eax

; 171  : 		RectF grect;

  0115a	8d 4d c8	 lea	 ecx, DWORD PTR _grect$188615[ebp]
  0115d	e8 00 00 00 00	 call	 ??0RectF@Gdiplus@@QAE@XZ ; Gdiplus::RectF::RectF

; 172  : 		int nX = ((rect.Width()-w)>4? (rect.Width()-w)/2:2);

  01162	8d 4d e8	 lea	 ecx, DWORD PTR _rect$188612[ebp]
  01165	e8 00 00 00 00	 call	 ?Width@CRect@@QBEHXZ	; CRect::Width
  0116a	2b 45 e0	 sub	 eax, DWORD PTR _w$188613[ebp]
  0116d	83 f8 04	 cmp	 eax, 4
  01170	7e 15		 jle	 SHORT $L189819
  01172	8d 4d e8	 lea	 ecx, DWORD PTR _rect$188612[ebp]
  01175	e8 00 00 00 00	 call	 ?Width@CRect@@QBEHXZ	; CRect::Width
  0117a	2b 45 e0	 sub	 eax, DWORD PTR _w$188613[ebp]
  0117d	99		 cdq
  0117e	2b c2		 sub	 eax, edx
  01180	d1 f8		 sar	 eax, 1
  01182	89 45 a0	 mov	 DWORD PTR tv91[ebp], eax
  01185	eb 07		 jmp	 SHORT $L189820
$L189819:
  01187	c7 45 a0 02 00
	00 00		 mov	 DWORD PTR tv91[ebp], 2
$L189820:
  0118e	8b 55 a0	 mov	 edx, DWORD PTR tv91[ebp]
  01191	89 55 c0	 mov	 DWORD PTR _nX$188616[ebp], edx

; 173  : 		int nY = 0;//(rect.Height()-h)>4? (rect.Height()-h)/2:2;

  01194	c7 45 bc 00 00
	00 00		 mov	 DWORD PTR _nY$188617[ebp], 0

; 174  : 
; 175  : 		Rect rr(nX, nY, w,h+nY-1);

  0119b	8b 45 bc	 mov	 eax, DWORD PTR _nY$188617[ebp]
  0119e	8b 4d dc	 mov	 ecx, DWORD PTR _h$188614[ebp]
  011a1	8d 54 01 ff	 lea	 edx, DWORD PTR [ecx+eax-1]
  011a5	52		 push	 edx
  011a6	8b 45 e0	 mov	 eax, DWORD PTR _w$188613[ebp]
  011a9	50		 push	 eax
  011aa	8b 4d bc	 mov	 ecx, DWORD PTR _nY$188617[ebp]
  011ad	51		 push	 ecx
  011ae	8b 55 c0	 mov	 edx, DWORD PTR _nX$188616[ebp]
  011b1	52		 push	 edx
  011b2	8d 4d a8	 lea	 ecx, DWORD PTR _rr$188618[ebp]
  011b5	e8 00 00 00 00	 call	 ??0Rect@Gdiplus@@QAE@HHHH@Z ; Gdiplus::Rect::Rect

; 176  : 		gdi.DrawImage(*m_pPngFrame,
; 177  : 			rr,
; 178  : 			(int)0, 
; 179  : 			(int)1,
; 180  : 			(int)w, 
; 181  : 			(int)h-1,
; 182  : 			UnitPixel );

  011ba	6a 00		 push	 0
  011bc	6a 00		 push	 0
  011be	6a 00		 push	 0
  011c0	6a 02		 push	 2
  011c2	8b 45 dc	 mov	 eax, DWORD PTR _h$188614[ebp]
  011c5	83 e8 01	 sub	 eax, 1
  011c8	50		 push	 eax
  011c9	8b 4d e0	 mov	 ecx, DWORD PTR _w$188613[ebp]
  011cc	51		 push	 ecx
  011cd	6a 01		 push	 1
  011cf	6a 00		 push	 0
  011d1	8d 55 a8	 lea	 edx, DWORD PTR _rr$188618[ebp]
  011d4	52		 push	 edx
  011d5	8b 45 fc	 mov	 eax, DWORD PTR _this$[ebp]
  011d8	8b 88 40 01 00
	00		 mov	 ecx, DWORD PTR [eax+320]
  011de	e8 00 00 00 00	 call	 ??BCGdiPlusBitmap@CSkinButton@@QBEPAVBitmap@Gdiplus@@XZ ; CSkinButton::CGdiPlusBitmap::operator Gdiplus::Bitmap *
  011e3	50		 push	 eax
  011e4	8b 4d 08	 mov	 ecx, DWORD PTR _gdi$[ebp]
  011e7	e8 00 00 00 00	 call	 ?DrawImage@Graphics@Gdiplus@@QAE?AW4Status@2@PAVImage@2@ABVRect@2@HHHHW4Unit@2@PBVImageAttributes@2@P6GHPAX@Z4@Z ; Gdiplus::Graphics::DrawImage
$L188610:

; 183  : 	}
; 184  : }

  011ec	52		 push	 edx
  011ed	8b cd		 mov	 ecx, ebp
  011ef	50		 push	 eax
  011f0	8d 15 00 00 00
	00		 lea	 edx, DWORD PTR $L189825
  011f6	e8 00 00 00 00	 call	 @_RTC_CheckStackVars@8
  011fb	58		 pop	 eax
  011fc	5a		 pop	 edx
  011fd	5f		 pop	 edi
  011fe	83 c4 60	 add	 esp, 96			; 00000060H
  01201	3b ec		 cmp	 ebp, esp
  01203	e8 00 00 00 00	 call	 __RTC_CheckEsp
  01208	8b e5		 mov	 esp, ebp
  0120a	5d		 pop	 ebp
  0120b	c2 04 00	 ret	 4
$L189825:
  0120e	03 00 00 00	 DD	 3
  01212	00 00 00 00	 DD	 $L189824
$L189824:
  01216	e8 ff ff ff	 DD	 -24			; ffffffe8H
  0121a	10 00 00 00	 DD	 16			; 00000010H
  0121e	00 00 00 00	 DD	 $L189821
  01222	c8 ff ff ff	 DD	 -56			; ffffffc8H
  01226	10 00 00 00	 DD	 16			; 00000010H
  0122a	00 00 00 00	 DD	 $L189822
  0122e	a8 ff ff ff	 DD	 -88			; ffffffa8H
  01232	10 00 00 00	 DD	 16			; 00000010H
  01236	00 00 00 00	 DD	 $L189823
$L189823:
  0123a	72		 DB	 114			; 00000072H
  0123b	72		 DB	 114			; 00000072H
  0123c	00		 DB	 0
$L189822:
  0123d	67		 DB	 103			; 00000067H
  0123e	72		 DB	 114			; 00000072H
  0123f	65		 DB	 101			; 00000065H
  01240	63		 DB	 99			; 00000063H
  01241	74		 DB	 116			; 00000074H
  01242	00		 DB	 0
$L189821:
  01243	72		 DB	 114			; 00000072H
  01244	65		 DB	 101			; 00000065H
  01245	63		 DB	 99			; 00000063H
  01246	74		 DB	 116			; 00000074H
  01247	00		 DB	 0
?DrawBtnFrame@CSubSkinButton@@IAEXAAVGraphics@Gdiplus@@@Z ENDP ; CSubSkinButton::DrawBtnFrame
; Function compile flags: /Odt /RTCsu
; File d:\boxgit\playbox\playbox\dev\prj\playbox\src\layoutmgr\changecolor\skinbotton.h
_TEXT	ENDS
;	COMDAT ??BCGdiPlusBitmap@CSkinButton@@QBEPAVBitmap@Gdiplus@@XZ
_TEXT	SEGMENT
_this$ = -4						; size = 4
??BCGdiPlusBitmap@CSkinButton@@QBEPAVBitmap@Gdiplus@@XZ PROC NEAR ; CSkinButton::CGdiPlusBitmap::operator Gdiplus::Bitmap *, COMDAT
; _this$ = ecx

; 93   : 	operator Gdiplus::Bitmap*() const			{ return m_pBitmap; }

  00000	55		 push	 ebp
  00001	8b ec		 mov	 ebp, esp
  00003	51		 push	 ecx
  00004	c7 45 fc cc cc
	cc cc		 mov	 DWORD PTR [ebp-4], -858993460 ; ccccccccH
  0000b	89 4d fc	 mov	 DWORD PTR _this$[ebp], ecx
  0000e	8b 45 fc	 mov	 eax, DWORD PTR _this$[ebp]
  00011	8b 40 04	 mov	 eax, DWORD PTR [eax+4]
  00014	8b e5		 mov	 esp, ebp
  00016	5d		 pop	 ebp
  00017	c3		 ret	 0
??BCGdiPlusBitmap@CSkinButton@@QBEPAVBitmap@Gdiplus@@XZ ENDP ; CSkinButton::CGdiPlusBitmap::operator Gdiplus::Bitmap *
_TEXT	ENDS
PUBLIC	?IsMouseInDeleteButton@CSubSkinButton@@AAEHXZ	; CSubSkinButton::IsMouseInDeleteButton
EXTRN	??0CPoint@@QAE@XZ:NEAR				; CPoint::CPoint
EXTRN	?PtInRect@CRect@@QBEHUtagPOINT@@@Z:NEAR		; CRect::PtInRect
EXTRN	__imp__GetCursorPos@4:NEAR
EXTRN	?ScreenToClient@CWnd@@QBEXPAUtagPOINT@@@Z:NEAR	; CWnd::ScreenToClient
; Function compile flags: /Odt /RTCsu
; File d:\boxgit\playbox\playbox\dev\prj\playbox\src\layoutmgr\changecolor\subskinbutton.cpp
_TEXT	SEGMENT
$T189828 = -76						; size = 8
_rc$ = -64						; size = 16
_rect$ = -40						; size = 16
_lPoint$ = -16						; size = 8
_this$ = -4						; size = 4
?IsMouseInDeleteButton@CSubSkinButton@@AAEHXZ PROC NEAR	; CSubSkinButton::IsMouseInDeleteButton
; _this$ = ecx

; 187  : {

  01250	55		 push	 ebp
  01251	8b ec		 mov	 ebp, esp
  01253	83 ec 4c	 sub	 esp, 76			; 0000004cH
  01256	56		 push	 esi
  01257	57		 push	 edi
  01258	51		 push	 ecx
  01259	8d 7d b4	 lea	 edi, DWORD PTR [ebp-76]
  0125c	b9 13 00 00 00	 mov	 ecx, 19			; 00000013H
  01261	b8 cc cc cc cc	 mov	 eax, -858993460		; ccccccccH
  01266	f3 ab		 rep stosd
  01268	59		 pop	 ecx
  01269	89 4d fc	 mov	 DWORD PTR _this$[ebp], ecx

; 188  : 	CPoint	lPoint;

  0126c	8d 4d f0	 lea	 ecx, DWORD PTR _lPoint$[ebp]
  0126f	e8 00 00 00 00	 call	 ??0CPoint@@QAE@XZ	; CPoint::CPoint

; 189  : 	CRect	rect;

  01274	8d 4d d8	 lea	 ecx, DWORD PTR _rect$[ebp]
  01277	e8 00 00 00 00	 call	 ??0CRect@@QAE@XZ	; CRect::CRect

; 190  : 
; 191  : 	if(!m_pPngDeleteNormal)

  0127c	8b 45 fc	 mov	 eax, DWORD PTR _this$[ebp]
  0127f	83 b8 3c 01 00
	00 00		 cmp	 DWORD PTR [eax+316], 0
  01286	75 07		 jne	 SHORT $L188628

; 192  : 		return false;

  01288	33 c0		 xor	 eax, eax
  0128a	e9 ad 00 00 00	 jmp	 $L188625
$L188628:

; 193  : 
; 194  : 	GetCursorPos(&lPoint);

  0128f	8b f4		 mov	 esi, esp
  01291	8d 4d f0	 lea	 ecx, DWORD PTR _lPoint$[ebp]
  01294	51		 push	 ecx
  01295	ff 15 00 00 00
	00		 call	 DWORD PTR __imp__GetCursorPos@4
  0129b	3b f4		 cmp	 esi, esp
  0129d	e8 00 00 00 00	 call	 __RTC_CheckEsp

; 195  : 	GetClientRect(&rect);

  012a2	8d 55 d8	 lea	 edx, DWORD PTR _rect$[ebp]
  012a5	52		 push	 edx
  012a6	8b 4d fc	 mov	 ecx, DWORD PTR _this$[ebp]
  012a9	e8 00 00 00 00	 call	 ?GetClientRect@CWnd@@QBEXPAUtagRECT@@@Z ; CWnd::GetClientRect

; 196  : 
; 197  : 	ScreenToClient(&lPoint);

  012ae	8d 45 f0	 lea	 eax, DWORD PTR _lPoint$[ebp]
  012b1	50		 push	 eax
  012b2	8b 4d fc	 mov	 ecx, DWORD PTR _this$[ebp]
  012b5	e8 00 00 00 00	 call	 ?ScreenToClient@CWnd@@QBEXPAUtagPOINT@@@Z ; CWnd::ScreenToClient

; 198  : 
; 199  : 	CRect rc;

  012ba	8d 4d c0	 lea	 ecx, DWORD PTR _rc$[ebp]
  012bd	e8 00 00 00 00	 call	 ??0CRect@@QAE@XZ	; CRect::CRect

; 200  : 	rc.left = rect.right - m_pPngDeleteNormal->m_pBitmap->GetWidth()-5;

  012c2	8b 4d fc	 mov	 ecx, DWORD PTR _this$[ebp]
  012c5	8b 91 3c 01 00
	00		 mov	 edx, DWORD PTR [ecx+316]
  012cb	8b 4a 04	 mov	 ecx, DWORD PTR [edx+4]
  012ce	e8 00 00 00 00	 call	 ?GetWidth@Image@Gdiplus@@QAEIXZ ; Gdiplus::Image::GetWidth
  012d3	8b 4d e0	 mov	 ecx, DWORD PTR _rect$[ebp+8]
  012d6	2b c8		 sub	 ecx, eax
  012d8	83 e9 05	 sub	 ecx, 5
  012db	89 4d c0	 mov	 DWORD PTR _rc$[ebp], ecx

; 201  : 	rc.top = 2;

  012de	c7 45 c4 02 00
	00 00		 mov	 DWORD PTR _rc$[ebp+4], 2

; 202  : 	rc.right = rc.left + m_pPngDeleteNormal->m_pBitmap->GetWidth();

  012e5	8b 55 fc	 mov	 edx, DWORD PTR _this$[ebp]
  012e8	8b 82 3c 01 00
	00		 mov	 eax, DWORD PTR [edx+316]
  012ee	8b 48 04	 mov	 ecx, DWORD PTR [eax+4]
  012f1	e8 00 00 00 00	 call	 ?GetWidth@Image@Gdiplus@@QAEIXZ ; Gdiplus::Image::GetWidth
  012f6	03 45 c0	 add	 eax, DWORD PTR _rc$[ebp]
  012f9	89 45 c8	 mov	 DWORD PTR _rc$[ebp+8], eax

; 203  : 	rc.bottom = 2 + m_pPngDeleteNormal->m_pBitmap->GetHeight();

  012fc	8b 4d fc	 mov	 ecx, DWORD PTR _this$[ebp]
  012ff	8b 91 3c 01 00
	00		 mov	 edx, DWORD PTR [ecx+316]
  01305	8b 4a 04	 mov	 ecx, DWORD PTR [edx+4]
  01308	e8 00 00 00 00	 call	 ?GetHeight@Image@Gdiplus@@QAEIXZ ; Gdiplus::Image::GetHeight
  0130d	83 c0 02	 add	 eax, 2
  01310	89 45 cc	 mov	 DWORD PTR _rc$[ebp+12], eax

; 204  : 
; 205  : 	if(rc.PtInRect(lPoint))

  01313	8b 45 f0	 mov	 eax, DWORD PTR _lPoint$[ebp]
  01316	89 45 b4	 mov	 DWORD PTR $T189828[ebp], eax
  01319	8b 4d f4	 mov	 ecx, DWORD PTR _lPoint$[ebp+4]
  0131c	89 4d b8	 mov	 DWORD PTR $T189828[ebp+4], ecx
  0131f	8b 55 b8	 mov	 edx, DWORD PTR $T189828[ebp+4]
  01322	52		 push	 edx
  01323	8b 45 b4	 mov	 eax, DWORD PTR $T189828[ebp]
  01326	50		 push	 eax
  01327	8d 4d c0	 lea	 ecx, DWORD PTR _rc$[ebp]
  0132a	e8 00 00 00 00	 call	 ?PtInRect@CRect@@QBEHUtagPOINT@@@Z ; CRect::PtInRect
  0132f	85 c0		 test	 eax, eax
  01331	74 07		 je	 SHORT $L188631

; 206  : 		return true;

  01333	b8 01 00 00 00	 mov	 eax, 1
  01338	eb 02		 jmp	 SHORT $L188625
$L188631:

; 207  : 	return false;

  0133a	33 c0		 xor	 eax, eax
$L188625:

; 208  : }

  0133c	52		 push	 edx
  0133d	8b cd		 mov	 ecx, ebp
  0133f	50		 push	 eax
  01340	8d 15 00 00 00
	00		 lea	 edx, DWORD PTR $L189833
  01346	e8 00 00 00 00	 call	 @_RTC_CheckStackVars@8
  0134b	58		 pop	 eax
  0134c	5a		 pop	 edx
  0134d	5f		 pop	 edi
  0134e	5e		 pop	 esi
  0134f	83 c4 4c	 add	 esp, 76			; 0000004cH
  01352	3b ec		 cmp	 ebp, esp
  01354	e8 00 00 00 00	 call	 __RTC_CheckEsp
  01359	8b e5		 mov	 esp, ebp
  0135b	5d		 pop	 ebp
  0135c	c3		 ret	 0
$L189833:
  0135d	03 00 00 00	 DD	 3
  01361	00 00 00 00	 DD	 $L189832
$L189832:
  01365	f0 ff ff ff	 DD	 -16			; fffffff0H
  01369	08 00 00 00	 DD	 8
  0136d	00 00 00 00	 DD	 $L189829
  01371	d8 ff ff ff	 DD	 -40			; ffffffd8H
  01375	10 00 00 00	 DD	 16			; 00000010H
  01379	00 00 00 00	 DD	 $L189830
  0137d	c0 ff ff ff	 DD	 -64			; ffffffc0H
  01381	10 00 00 00	 DD	 16			; 00000010H
  01385	00 00 00 00	 DD	 $L189831
$L189831:
  01389	72		 DB	 114			; 00000072H
  0138a	63		 DB	 99			; 00000063H
  0138b	00		 DB	 0
$L189830:
  0138c	72		 DB	 114			; 00000072H
  0138d	65		 DB	 101			; 00000065H
  0138e	63		 DB	 99			; 00000063H
  0138f	74		 DB	 116			; 00000074H
  01390	00		 DB	 0
$L189829:
  01391	6c		 DB	 108			; 0000006cH
  01392	50		 DB	 80			; 00000050H
  01393	6f		 DB	 111			; 0000006fH
  01394	69		 DB	 105			; 00000069H
  01395	6e		 DB	 110			; 0000006eH
  01396	74		 DB	 116			; 00000074H
  01397	00		 DB	 0
?IsMouseInDeleteButton@CSubSkinButton@@AAEHXZ ENDP	; CSubSkinButton::IsMouseInDeleteButton
_TEXT	ENDS
PUBLIC	?DrawImage@Graphics@Gdiplus@@QAE?AW4Status@2@PAVImage@2@ABVRectF@2@@Z ; Gdiplus::Graphics::DrawImage
EXTRN	__fltused:NEAR
; Function compile flags: /Odt /RTCsu
_TEXT	SEGMENT
tv166 = -76						; size = 8
tv161 = -68						; size = 8
tv156 = -60						; size = 8
_grect$188640 = -48					; size = 16
_rect$ = -24						; size = 16
_this$ = -4						; size = 4
_gdi$ = 8						; size = 4
?DrawHoverImage@CSubSkinButton@@IAEXAAVGraphics@Gdiplus@@@Z PROC NEAR ; CSubSkinButton::DrawHoverImage
; _this$ = ecx

; 210  : {

  013a0	55		 push	 ebp
  013a1	8b ec		 mov	 ebp, esp
  013a3	83 ec 4c	 sub	 esp, 76			; 0000004cH
  013a6	57		 push	 edi
  013a7	51		 push	 ecx
  013a8	8d 7d b4	 lea	 edi, DWORD PTR [ebp-76]
  013ab	b9 13 00 00 00	 mov	 ecx, 19			; 00000013H
  013b0	b8 cc cc cc cc	 mov	 eax, -858993460		; ccccccccH
  013b5	f3 ab		 rep stosd
  013b7	59		 pop	 ecx
  013b8	89 4d fc	 mov	 DWORD PTR _this$[ebp], ecx

; 211  : 	CRect rect;

  013bb	8d 4d e8	 lea	 ecx, DWORD PTR _rect$[ebp]
  013be	e8 00 00 00 00	 call	 ??0CRect@@QAE@XZ	; CRect::CRect

; 212  : 	GetClientRect(&rect);

  013c3	8d 45 e8	 lea	 eax, DWORD PTR _rect$[ebp]
  013c6	50		 push	 eax
  013c7	8b 4d fc	 mov	 ecx, DWORD PTR _this$[ebp]
  013ca	e8 00 00 00 00	 call	 ?GetClientRect@CWnd@@QBEXPAUtagRECT@@@Z ; CWnd::GetClientRect

; 213  : 	if(IsMouseInDeleteButton())

  013cf	8b 4d fc	 mov	 ecx, DWORD PTR _this$[ebp]
  013d2	e8 00 00 00 00	 call	 ?IsMouseInDeleteButton@CSubSkinButton@@AAEHXZ ; CSubSkinButton::IsMouseInDeleteButton
  013d7	85 c0		 test	 eax, eax
  013d9	74 14		 je	 SHORT $L188637

; 214  : 	{
; 215  : 		m_pCurDelete = m_pPngDeleteOver;

  013db	8b 4d fc	 mov	 ecx, DWORD PTR _this$[ebp]
  013de	8b 55 fc	 mov	 edx, DWORD PTR _this$[ebp]
  013e1	8b 82 38 01 00
	00		 mov	 eax, DWORD PTR [edx+312]
  013e7	89 81 30 01 00
	00		 mov	 DWORD PTR [ecx+304], eax

; 216  : 	}
; 217  : 	else 

  013ed	eb 12		 jmp	 SHORT $L188638
$L188637:

; 218  : 	{
; 219  : 		m_pCurDelete = m_pPngDeleteNormal;

  013ef	8b 4d fc	 mov	 ecx, DWORD PTR _this$[ebp]
  013f2	8b 55 fc	 mov	 edx, DWORD PTR _this$[ebp]
  013f5	8b 82 3c 01 00
	00		 mov	 eax, DWORD PTR [edx+316]
  013fb	89 81 30 01 00
	00		 mov	 DWORD PTR [ecx+304], eax
$L188638:

; 220  : 	}
; 221  : 
; 222  : 	if( m_pCurDelete && m_pCurDelete->m_pBitmap )

  01401	8b 4d fc	 mov	 ecx, DWORD PTR _this$[ebp]
  01404	83 b9 30 01 00
	00 00		 cmp	 DWORD PTR [ecx+304], 0
  0140b	0f 84 a8 00 00
	00		 je	 $L188635
  01411	8b 55 fc	 mov	 edx, DWORD PTR _this$[ebp]
  01414	8b 82 30 01 00
	00		 mov	 eax, DWORD PTR [edx+304]
  0141a	83 78 04 00	 cmp	 DWORD PTR [eax+4], 0
  0141e	0f 84 95 00 00
	00		 je	 $L188635

; 223  : 	{
; 224  : 
; 225  : 		RectF grect;

  01424	8d 4d d0	 lea	 ecx, DWORD PTR _grect$188640[ebp]
  01427	e8 00 00 00 00	 call	 ??0RectF@Gdiplus@@QAE@XZ ; Gdiplus::RectF::RectF

; 226  : 		grect.X=rect.right - m_pCurDelete->m_pBitmap->GetWidth()-5, grect.Y=2; 

  0142c	8b 4d fc	 mov	 ecx, DWORD PTR _this$[ebp]
  0142f	8b 91 30 01 00
	00		 mov	 edx, DWORD PTR [ecx+304]
  01435	8b 4a 04	 mov	 ecx, DWORD PTR [edx+4]
  01438	e8 00 00 00 00	 call	 ?GetWidth@Image@Gdiplus@@QAEIXZ ; Gdiplus::Image::GetWidth
  0143d	8b 4d f0	 mov	 ecx, DWORD PTR _rect$[ebp+8]
  01440	2b c8		 sub	 ecx, eax
  01442	83 e9 05	 sub	 ecx, 5
  01445	89 4d c4	 mov	 DWORD PTR tv156[ebp], ecx
  01448	c7 45 c8 00 00
	00 00		 mov	 DWORD PTR tv156[ebp+4], 0
  0144f	df 6d c4	 fild	 QWORD PTR tv156[ebp]
  01452	d9 5d d0	 fstp	 DWORD PTR _grect$188640[ebp]
  01455	c7 45 d4 00 00
	00 40		 mov	 DWORD PTR _grect$188640[ebp+4], 1073741824 ; 40000000H

; 227  : 		grect.Width = m_pCurDelete->m_pBitmap->GetWidth(); 

  0145c	8b 55 fc	 mov	 edx, DWORD PTR _this$[ebp]
  0145f	8b 82 30 01 00
	00		 mov	 eax, DWORD PTR [edx+304]
  01465	8b 48 04	 mov	 ecx, DWORD PTR [eax+4]
  01468	e8 00 00 00 00	 call	 ?GetWidth@Image@Gdiplus@@QAEIXZ ; Gdiplus::Image::GetWidth
  0146d	89 45 bc	 mov	 DWORD PTR tv161[ebp], eax
  01470	c7 45 c0 00 00
	00 00		 mov	 DWORD PTR tv161[ebp+4], 0
  01477	df 6d bc	 fild	 QWORD PTR tv161[ebp]
  0147a	d9 5d d8	 fstp	 DWORD PTR _grect$188640[ebp+8]

; 228  : 		grect.Height = m_pCurDelete->m_pBitmap->GetHeight();

  0147d	8b 4d fc	 mov	 ecx, DWORD PTR _this$[ebp]
  01480	8b 91 30 01 00
	00		 mov	 edx, DWORD PTR [ecx+304]
  01486	8b 4a 04	 mov	 ecx, DWORD PTR [edx+4]
  01489	e8 00 00 00 00	 call	 ?GetHeight@Image@Gdiplus@@QAEIXZ ; Gdiplus::Image::GetHeight
  0148e	89 45 b4	 mov	 DWORD PTR tv166[ebp], eax
  01491	c7 45 b8 00 00
	00 00		 mov	 DWORD PTR tv166[ebp+4], 0
  01498	df 6d b4	 fild	 QWORD PTR tv166[ebp]
  0149b	d9 5d dc	 fstp	 DWORD PTR _grect$188640[ebp+12]

; 229  : 		gdi.DrawImage(*m_pCurDelete,grect );

  0149e	8d 45 d0	 lea	 eax, DWORD PTR _grect$188640[ebp]
  014a1	50		 push	 eax
  014a2	8b 4d fc	 mov	 ecx, DWORD PTR _this$[ebp]
  014a5	8b 89 30 01 00
	00		 mov	 ecx, DWORD PTR [ecx+304]
  014ab	e8 00 00 00 00	 call	 ??BCGdiPlusBitmap@CSkinButton@@QBEPAVBitmap@Gdiplus@@XZ ; CSkinButton::CGdiPlusBitmap::operator Gdiplus::Bitmap *
  014b0	50		 push	 eax
  014b1	8b 4d 08	 mov	 ecx, DWORD PTR _gdi$[ebp]
  014b4	e8 00 00 00 00	 call	 ?DrawImage@Graphics@Gdiplus@@QAE?AW4Status@2@PAVImage@2@ABVRectF@2@@Z ; Gdiplus::Graphics::DrawImage
$L188635:

; 230  : 	}
; 231  : }

  014b9	52		 push	 edx
  014ba	8b cd		 mov	 ecx, ebp
  014bc	50		 push	 eax
  014bd	8d 15 00 00 00
	00		 lea	 edx, DWORD PTR $L189838
  014c3	e8 00 00 00 00	 call	 @_RTC_CheckStackVars@8
  014c8	58		 pop	 eax
  014c9	5a		 pop	 edx
  014ca	5f		 pop	 edi
  014cb	83 c4 4c	 add	 esp, 76			; 0000004cH
  014ce	3b ec		 cmp	 ebp, esp
  014d0	e8 00 00 00 00	 call	 __RTC_CheckEsp
  014d5	8b e5		 mov	 esp, ebp
  014d7	5d		 pop	 ebp
  014d8	c2 04 00	 ret	 4
$L189838:
  014db	02 00 00 00	 DD	 2
  014df	00 00 00 00	 DD	 $L189837
$L189837:
  014e3	e8 ff ff ff	 DD	 -24			; ffffffe8H
  014e7	10 00 00 00	 DD	 16			; 00000010H
  014eb	00 00 00 00	 DD	 $L189835
  014ef	d0 ff ff ff	 DD	 -48			; ffffffd0H
  014f3	10 00 00 00	 DD	 16			; 00000010H
  014f7	00 00 00 00	 DD	 $L189836
$L189836:
  014fb	67		 DB	 103			; 00000067H
  014fc	72		 DB	 114			; 00000072H
  014fd	65		 DB	 101			; 00000065H
  014fe	63		 DB	 99			; 00000063H
  014ff	74		 DB	 116			; 00000074H
  01500	00		 DB	 0
$L189835:
  01501	72		 DB	 114			; 00000072H
  01502	65		 DB	 101			; 00000065H
  01503	63		 DB	 99			; 00000063H
  01504	74		 DB	 116			; 00000074H
  01505	00		 DB	 0
?DrawHoverImage@CSubSkinButton@@IAEXAAVGraphics@Gdiplus@@@Z ENDP ; CSubSkinButton::DrawHoverImage
; Function compile flags: /Odt /RTCsu
_this$ = -4						; size = 4
?IsClickPng@CSubSkinButton@@UAEHXZ PROC NEAR		; CSubSkinButton::IsClickPng
; _this$ = ecx

; 234  : {

  01510	55		 push	 ebp
  01511	8b ec		 mov	 ebp, esp
  01513	51		 push	 ecx
  01514	c7 45 fc cc cc
	cc cc		 mov	 DWORD PTR [ebp-4], -858993460 ; ccccccccH
  0151b	89 4d fc	 mov	 DWORD PTR _this$[ebp], ecx

; 235  : 	return m_bClickPng;

  0151e	8b 45 fc	 mov	 eax, DWORD PTR _this$[ebp]
  01521	8b 80 44 01 00
	00		 mov	 eax, DWORD PTR [eax+324]

; 236  : }

  01527	8b e5		 mov	 esp, ebp
  01529	5d		 pop	 ebp
  0152a	c3		 ret	 0
?IsClickPng@CSubSkinButton@@UAEHXZ ENDP			; CSubSkinButton::IsClickPng
; Function compile flags: /Odt /RTCsu
_this$ = -4						; size = 4
_bclick$ = 8						; size = 4
?SetClickPng@CSubSkinButton@@UAEXH@Z PROC NEAR		; CSubSkinButton::SetClickPng
; _this$ = ecx

; 239  :  {

  01530	55		 push	 ebp
  01531	8b ec		 mov	 ebp, esp
  01533	51		 push	 ecx
  01534	c7 45 fc cc cc
	cc cc		 mov	 DWORD PTR [ebp-4], -858993460 ; ccccccccH
  0153b	89 4d fc	 mov	 DWORD PTR _this$[ebp], ecx

; 240  : 	m_bClickPng = bclick;	 

  0153e	8b 45 fc	 mov	 eax, DWORD PTR _this$[ebp]
  01541	8b 4d 08	 mov	 ecx, DWORD PTR _bclick$[ebp]
  01544	89 88 44 01 00
	00		 mov	 DWORD PTR [eax+324], ecx

; 241  :  }

  0154a	8b e5		 mov	 esp, ebp
  0154c	5d		 pop	 ebp
  0154d	c2 04 00	 ret	 4
?SetClickPng@CSubSkinButton@@UAEXH@Z ENDP		; CSubSkinButton::SetClickPng
_TEXT	ENDS
PUBLIC	??8ATL@@YA_NABV?$CStringT@DV?$StrTraitMFC_DLL@DV?$ChTraitsCRT@D@ATL@@@@@0@PBD@Z ; ATL::operator==
PUBLIC	??9ATL@@YA_NABV?$CStringT@DV?$StrTraitMFC_DLL@DV?$ChTraitsCRT@D@ATL@@@@@0@PBD@Z ; ATL::operator!=
EXTRN	__imp_??0?$CStringT@DV?$StrTraitMFC_DLL@DV?$ChTraitsCRT@D@ATL@@@@@ATL@@QAE@PBD@Z:NEAR
EXTRN	?SetToolTipText@CSkinButton@@QAEXV?$CStringT@DV?$StrTraitMFC_DLL@DV?$ChTraitsCRT@D@ATL@@@@@ATL@@@Z:NEAR ; CSkinButton::SetToolTipText
EXTRN	?OnMouseMove@CSkinButton@@QAEXIVCPoint@@@Z:NEAR	; CSkinButton::OnMouseMove
; Function compile flags: /Odt /RTCsu
_TEXT	SEGMENT
tv175 = -20						; size = 4
tv173 = -16						; size = 4
$T189844 = -12						; size = 4
$T189843 = -8						; size = 4
_this$ = -4						; size = 4
_nFlags$ = 8						; size = 4
_point$ = 12						; size = 8
?OnMouseMove@CSubSkinButton@@QAEXIVCPoint@@@Z PROC NEAR	; CSubSkinButton::OnMouseMove
; _this$ = ecx

; 244  :  {

  01550	55		 push	 ebp
  01551	8b ec		 mov	 ebp, esp
  01553	83 ec 14	 sub	 esp, 20			; 00000014H
  01556	56		 push	 esi
  01557	b8 cc cc cc cc	 mov	 eax, -858993460		; ccccccccH
  0155c	89 45 ec	 mov	 DWORD PTR [ebp-20], eax
  0155f	89 45 f0	 mov	 DWORD PTR [ebp-16], eax
  01562	89 45 f4	 mov	 DWORD PTR [ebp-12], eax
  01565	89 45 f8	 mov	 DWORD PTR [ebp-8], eax
  01568	89 45 fc	 mov	 DWORD PTR [ebp-4], eax
  0156b	89 4d fc	 mov	 DWORD PTR _this$[ebp], ecx

; 245  : // 	 if(!m_bShowDel)
; 246  : // 		 SetTimer(TIMER_MOUSE_IN_BTN,400,NULL);
; 247  : 
; 248  : 	 if(IsMouseInDeleteButton() && m_strToolTip != "")

  0156e	8b 4d fc	 mov	 ecx, DWORD PTR _this$[ebp]
  01571	e8 00 00 00 00	 call	 ?IsMouseInDeleteButton@CSubSkinButton@@AAEHXZ ; CSubSkinButton::IsMouseInDeleteButton
  01576	85 c0		 test	 eax, eax
  01578	74 66		 je	 SHORT $L188653
  0157a	68 00 00 00 00	 push	 OFFSET FLAT:$SG188654
  0157f	8b 45 fc	 mov	 eax, DWORD PTR _this$[ebp]
  01582	05 e0 00 00 00	 add	 eax, 224		; 000000e0H
  01587	50		 push	 eax
  01588	e8 00 00 00 00	 call	 ??9ATL@@YA_NABV?$CStringT@DV?$StrTraitMFC_DLL@DV?$ChTraitsCRT@D@ATL@@@@@0@PBD@Z ; ATL::operator!=
  0158d	83 c4 08	 add	 esp, 8
  01590	0f b6 c8	 movzx	 ecx, al
  01593	85 c9		 test	 ecx, ecx
  01595	74 49		 je	 SHORT $L188653

; 249  : 	 {
; 250  : 		 m_strLastToolTip = m_strToolTip;

  01597	8b 55 fc	 mov	 edx, DWORD PTR _this$[ebp]
  0159a	81 c2 e0 00 00
	00		 add	 edx, 224		; 000000e0H
  015a0	8b f4		 mov	 esi, esp
  015a2	52		 push	 edx
  015a3	8b 4d fc	 mov	 ecx, DWORD PTR _this$[ebp]
  015a6	81 c1 4c 01 00
	00		 add	 ecx, 332		; 0000014cH
  015ac	ff 15 00 00 00
	00		 call	 DWORD PTR __imp_??4?$CStringT@DV?$StrTraitMFC_DLL@DV?$ChTraitsCRT@D@ATL@@@@@ATL@@QAEAAV01@ABV01@@Z
  015b2	3b f4		 cmp	 esi, esp
  015b4	e8 00 00 00 00	 call	 __RTC_CheckEsp

; 251  : 		 SetToolTipText("");

  015b9	51		 push	 ecx
  015ba	8b cc		 mov	 ecx, esp
  015bc	89 65 f8	 mov	 DWORD PTR $T189843[ebp], esp
  015bf	8b f4		 mov	 esi, esp
  015c1	68 00 00 00 00	 push	 OFFSET FLAT:$SG188656
  015c6	ff 15 00 00 00
	00		 call	 DWORD PTR __imp_??0?$CStringT@DV?$StrTraitMFC_DLL@DV?$ChTraitsCRT@D@ATL@@@@@ATL@@QAE@PBD@Z
  015cc	3b f4		 cmp	 esi, esp
  015ce	e8 00 00 00 00	 call	 __RTC_CheckEsp
  015d3	89 45 f0	 mov	 DWORD PTR tv173[ebp], eax
  015d6	8b 4d fc	 mov	 ecx, DWORD PTR _this$[ebp]
  015d9	e8 00 00 00 00	 call	 ?SetToolTipText@CSkinButton@@QAEXV?$CStringT@DV?$StrTraitMFC_DLL@DV?$ChTraitsCRT@D@ATL@@@@@ATL@@@Z ; CSkinButton::SetToolTipText

; 252  : 	 }
; 253  : 	 else if(!IsMouseInDeleteButton() && m_strToolTip == "")

  015de	eb 53		 jmp	 SHORT $L188657
$L188653:
  015e0	8b 4d fc	 mov	 ecx, DWORD PTR _this$[ebp]
  015e3	e8 00 00 00 00	 call	 ?IsMouseInDeleteButton@CSubSkinButton@@AAEHXZ ; CSubSkinButton::IsMouseInDeleteButton
  015e8	85 c0		 test	 eax, eax
  015ea	75 47		 jne	 SHORT $L188657
  015ec	68 00 00 00 00	 push	 OFFSET FLAT:$SG188659
  015f1	8b 45 fc	 mov	 eax, DWORD PTR _this$[ebp]
  015f4	05 e0 00 00 00	 add	 eax, 224		; 000000e0H
  015f9	50		 push	 eax
  015fa	e8 00 00 00 00	 call	 ??8ATL@@YA_NABV?$CStringT@DV?$StrTraitMFC_DLL@DV?$ChTraitsCRT@D@ATL@@@@@0@PBD@Z ; ATL::operator==
  015ff	83 c4 08	 add	 esp, 8
  01602	0f b6 c8	 movzx	 ecx, al
  01605	85 c9		 test	 ecx, ecx
  01607	74 2a		 je	 SHORT $L188657

; 254  : 	 {
; 255  : 		 SetToolTipText(m_strLastToolTip);

  01609	8b 55 fc	 mov	 edx, DWORD PTR _this$[ebp]
  0160c	81 c2 4c 01 00
	00		 add	 edx, 332		; 0000014cH
  01612	51		 push	 ecx
  01613	8b cc		 mov	 ecx, esp
  01615	89 65 f4	 mov	 DWORD PTR $T189844[ebp], esp
  01618	8b f4		 mov	 esi, esp
  0161a	52		 push	 edx
  0161b	ff 15 00 00 00
	00		 call	 DWORD PTR __imp_??0?$CStringT@DV?$StrTraitMFC_DLL@DV?$ChTraitsCRT@D@ATL@@@@@ATL@@QAE@ABV01@@Z
  01621	3b f4		 cmp	 esi, esp
  01623	e8 00 00 00 00	 call	 __RTC_CheckEsp
  01628	89 45 ec	 mov	 DWORD PTR tv175[ebp], eax
  0162b	8b 4d fc	 mov	 ecx, DWORD PTR _this$[ebp]
  0162e	e8 00 00 00 00	 call	 ?SetToolTipText@CSkinButton@@QAEXV?$CStringT@DV?$StrTraitMFC_DLL@DV?$ChTraitsCRT@D@ATL@@@@@ATL@@@Z ; CSkinButton::SetToolTipText
$L188657:

; 256  : 	 }
; 257  : 	 if(IsMouseInDeleteButton() && m_pCurDelete != m_pPngDeleteOver)

  01633	8b 4d fc	 mov	 ecx, DWORD PTR _this$[ebp]
  01636	e8 00 00 00 00	 call	 ?IsMouseInDeleteButton@CSubSkinButton@@AAEHXZ ; CSubSkinButton::IsMouseInDeleteButton
  0163b	85 c0		 test	 eax, eax
  0163d	74 30		 je	 SHORT $L188661
  0163f	8b 45 fc	 mov	 eax, DWORD PTR _this$[ebp]
  01642	8b 4d fc	 mov	 ecx, DWORD PTR _this$[ebp]
  01645	8b 90 30 01 00
	00		 mov	 edx, DWORD PTR [eax+304]
  0164b	3b 91 38 01 00
	00		 cmp	 edx, DWORD PTR [ecx+312]
  01651	74 1c		 je	 SHORT $L188661

; 258  : 	 {
; 259  : 
; 260  : 
; 261  : 		 m_pCurDelete = m_pPngDeleteOver;

  01653	8b 45 fc	 mov	 eax, DWORD PTR _this$[ebp]
  01656	8b 4d fc	 mov	 ecx, DWORD PTR _this$[ebp]
  01659	8b 91 38 01 00
	00		 mov	 edx, DWORD PTR [ecx+312]
  0165f	89 90 30 01 00
	00		 mov	 DWORD PTR [eax+304], edx

; 262  : 		 Invalidate();

  01665	6a 01		 push	 1
  01667	8b 4d fc	 mov	 ecx, DWORD PTR _this$[ebp]
  0166a	e8 00 00 00 00	 call	 ?Invalidate@CWnd@@QAEXH@Z ; CWnd::Invalidate
$L188661:

; 263  : 	 }
; 264  : 	 if(!IsMouseInDeleteButton() && m_pCurDelete != m_pPngDeleteNormal)

  0166f	8b 4d fc	 mov	 ecx, DWORD PTR _this$[ebp]
  01672	e8 00 00 00 00	 call	 ?IsMouseInDeleteButton@CSubSkinButton@@AAEHXZ ; CSubSkinButton::IsMouseInDeleteButton
  01677	85 c0		 test	 eax, eax
  01679	75 30		 jne	 SHORT $L188662
  0167b	8b 45 fc	 mov	 eax, DWORD PTR _this$[ebp]
  0167e	8b 4d fc	 mov	 ecx, DWORD PTR _this$[ebp]
  01681	8b 90 30 01 00
	00		 mov	 edx, DWORD PTR [eax+304]
  01687	3b 91 3c 01 00
	00		 cmp	 edx, DWORD PTR [ecx+316]
  0168d	74 1c		 je	 SHORT $L188662

; 265  : 	 {
; 266  : 		 m_pCurDelete = m_pPngDeleteNormal;

  0168f	8b 45 fc	 mov	 eax, DWORD PTR _this$[ebp]
  01692	8b 4d fc	 mov	 ecx, DWORD PTR _this$[ebp]
  01695	8b 91 3c 01 00
	00		 mov	 edx, DWORD PTR [ecx+316]
  0169b	89 90 30 01 00
	00		 mov	 DWORD PTR [eax+304], edx

; 267  : 		Invalidate();

  016a1	6a 01		 push	 1
  016a3	8b 4d fc	 mov	 ecx, DWORD PTR _this$[ebp]
  016a6	e8 00 00 00 00	 call	 ?Invalidate@CWnd@@QAEXH@Z ; CWnd::Invalidate
$L188662:

; 268  : 	 }
; 269  : 	 CSkinButton::OnMouseMove(nFlags, point);

  016ab	8b 45 10	 mov	 eax, DWORD PTR _point$[ebp+4]
  016ae	50		 push	 eax
  016af	8b 4d 0c	 mov	 ecx, DWORD PTR _point$[ebp]
  016b2	51		 push	 ecx
  016b3	8b 55 08	 mov	 edx, DWORD PTR _nFlags$[ebp]
  016b6	52		 push	 edx
  016b7	8b 4d fc	 mov	 ecx, DWORD PTR _this$[ebp]
  016ba	e8 00 00 00 00	 call	 ?OnMouseMove@CSkinButton@@QAEXIVCPoint@@@Z ; CSkinButton::OnMouseMove

; 270  :  }

  016bf	5e		 pop	 esi
  016c0	83 c4 14	 add	 esp, 20			; 00000014H
  016c3	3b ec		 cmp	 ebp, esp
  016c5	e8 00 00 00 00	 call	 __RTC_CheckEsp
  016ca	8b e5		 mov	 esp, ebp
  016cc	5d		 pop	 ebp
  016cd	c2 0c 00	 ret	 12			; 0000000cH
?OnMouseMove@CSubSkinButton@@QAEXIVCPoint@@@Z ENDP	; CSubSkinButton::OnMouseMove
_TEXT	ENDS
PUBLIC	?OnTimer@CSubSkinButton@@QAEXI@Z		; CSubSkinButton::OnTimer
; Function compile flags: /Odt /RTCsu
_TEXT	SEGMENT
_this$ = -4						; size = 4
_aiIDEvent$ = 8						; size = 4
?OnTimer@CSubSkinButton@@QAEXI@Z PROC NEAR		; CSubSkinButton::OnTimer
; _this$ = ecx

; 273  :  {

  016d0	55		 push	 ebp
  016d1	8b ec		 mov	 ebp, esp
  016d3	51		 push	 ecx
  016d4	c7 45 fc cc cc
	cc cc		 mov	 DWORD PTR [ebp-4], -858993460 ; ccccccccH
  016db	89 4d fc	 mov	 DWORD PTR _this$[ebp], ecx

; 274  : 	 if(aiIDEvent == TIMER_MOUSE_IN_BTN)

  016de	81 7d 08 c8 00
	00 00		 cmp	 DWORD PTR _aiIDEvent$[ebp], 200 ; 000000c8H
  016e5	75 17		 jne	 SHORT $L188666

; 275  : 	 {
; 276  : 		 m_bShowDel = TRUE;

  016e7	8b 45 fc	 mov	 eax, DWORD PTR _this$[ebp]
  016ea	c7 80 48 01 00
	00 01 00 00 00	 mov	 DWORD PTR [eax+328], 1

; 277  : 		 Invalidate();

  016f4	6a 01		 push	 1
  016f6	8b 4d fc	 mov	 ecx, DWORD PTR _this$[ebp]
  016f9	e8 00 00 00 00	 call	 ?Invalidate@CWnd@@QAEXH@Z ; CWnd::Invalidate
$L188666:

; 278  : 	 }
; 279  :  }

  016fe	83 c4 04	 add	 esp, 4
  01701	3b ec		 cmp	 ebp, esp
  01703	e8 00 00 00 00	 call	 __RTC_CheckEsp
  01708	8b e5		 mov	 esp, ebp
  0170a	5d		 pop	 ebp
  0170b	c2 04 00	 ret	 4
?OnTimer@CSubSkinButton@@QAEXI@Z ENDP			; CSubSkinButton::OnTimer
_TEXT	ENDS
EXTRN	?KillTimer@CWnd@@QAEHI@Z:NEAR			; CWnd::KillTimer
EXTRN	?OnMouseLeave@CSkinButton@@IAEJIJ@Z:NEAR	; CSkinButton::OnMouseLeave
; Function compile flags: /Odt /RTCsu
_TEXT	SEGMENT
_this$ = -4						; size = 4
_wParam$ = 8						; size = 4
_lParam$ = 12						; size = 4
?OnMouseLeave@CSubSkinButton@@QAEJIJ@Z PROC NEAR	; CSubSkinButton::OnMouseLeave
; _this$ = ecx

; 282  :  {

  01710	55		 push	 ebp
  01711	8b ec		 mov	 ebp, esp
  01713	51		 push	 ecx
  01714	c7 45 fc cc cc
	cc cc		 mov	 DWORD PTR [ebp-4], -858993460 ; ccccccccH
  0171b	89 4d fc	 mov	 DWORD PTR _this$[ebp], ecx

; 283  : 	 KillTimer(TIMER_MOUSE_IN_BTN);

  0171e	68 c8 00 00 00	 push	 200			; 000000c8H
  01723	8b 4d fc	 mov	 ecx, DWORD PTR _this$[ebp]
  01726	e8 00 00 00 00	 call	 ?KillTimer@CWnd@@QAEHI@Z ; CWnd::KillTimer

; 284  : 	 m_bShowDel = FALSE;

  0172b	8b 45 fc	 mov	 eax, DWORD PTR _this$[ebp]
  0172e	c7 80 48 01 00
	00 00 00 00 00	 mov	 DWORD PTR [eax+328], 0

; 285  : 	 return (CSkinButton::OnMouseLeave(wParam,lParam));

  01738	8b 4d 0c	 mov	 ecx, DWORD PTR _lParam$[ebp]
  0173b	51		 push	 ecx
  0173c	8b 55 08	 mov	 edx, DWORD PTR _wParam$[ebp]
  0173f	52		 push	 edx
  01740	8b 4d fc	 mov	 ecx, DWORD PTR _this$[ebp]
  01743	e8 00 00 00 00	 call	 ?OnMouseLeave@CSkinButton@@IAEJIJ@Z ; CSkinButton::OnMouseLeave

; 286  :  }

  01748	83 c4 04	 add	 esp, 4
  0174b	3b ec		 cmp	 ebp, esp
  0174d	e8 00 00 00 00	 call	 __RTC_CheckEsp
  01752	8b e5		 mov	 esp, ebp
  01754	5d		 pop	 ebp
  01755	c2 08 00	 ret	 8
?OnMouseLeave@CSubSkinButton@@QAEJIJ@Z ENDP		; CSubSkinButton::OnMouseLeave
_TEXT	ENDS
EXTRN	?OnRButtonDown@CWnd@@IAEXIVCPoint@@@Z:NEAR	; CWnd::OnRButtonDown
; Function compile flags: /Odt /RTCsu
_TEXT	SEGMENT
_this$ = -4						; size = 4
_nFlags$ = 8						; size = 4
_point$ = 12						; size = 8
?OnRButtonDown@CSubSkinButton@@IAEXIVCPoint@@@Z PROC NEAR ; CSubSkinButton::OnRButtonDown
; _this$ = ecx

; 290  :  {

  01760	55		 push	 ebp
  01761	8b ec		 mov	 ebp, esp
  01763	51		 push	 ecx
  01764	c7 45 fc cc cc
	cc cc		 mov	 DWORD PTR [ebp-4], -858993460 ; ccccccccH
  0176b	89 4d fc	 mov	 DWORD PTR _this$[ebp], ecx

; 291  : 	CSkinButton::OnRButtonDown(nFlags, point);

  0176e	8b 45 10	 mov	 eax, DWORD PTR _point$[ebp+4]
  01771	50		 push	 eax
  01772	8b 4d 0c	 mov	 ecx, DWORD PTR _point$[ebp]
  01775	51		 push	 ecx
  01776	8b 55 08	 mov	 edx, DWORD PTR _nFlags$[ebp]
  01779	52		 push	 edx
  0177a	8b 4d fc	 mov	 ecx, DWORD PTR _this$[ebp]
  0177d	e8 00 00 00 00	 call	 ?OnRButtonDown@CWnd@@IAEXIVCPoint@@@Z ; CWnd::OnRButtonDown

; 292  :  }

  01782	83 c4 04	 add	 esp, 4
  01785	3b ec		 cmp	 ebp, esp
  01787	e8 00 00 00 00	 call	 __RTC_CheckEsp
  0178c	8b e5		 mov	 esp, ebp
  0178e	5d		 pop	 ebp
  0178f	c2 0c 00	 ret	 12			; 0000000cH
?OnRButtonDown@CSubSkinButton@@IAEXIVCPoint@@@Z ENDP	; CSubSkinButton::OnRButtonDown
_TEXT	ENDS
EXTRN	??0CPoint@@QAE@J@Z:NEAR				; CPoint::CPoint
; Function compile flags: /Odt /RTCsu
_TEXT	SEGMENT
_this$ = -4						; size = 4
?OnApplySkin@CSubSkinButton@@IAEXXZ PROC NEAR		; CSubSkinButton::OnApplySkin
; _this$ = ecx

; 295  :  {

  017a0	55		 push	 ebp
  017a1	8b ec		 mov	 ebp, esp
  017a3	83 ec 08	 sub	 esp, 8
  017a6	c7 45 f8 cc cc
	cc cc		 mov	 DWORD PTR [ebp-8], -858993460 ; ccccccccH
  017ad	c7 45 fc cc cc
	cc cc		 mov	 DWORD PTR [ebp-4], -858993460 ; ccccccccH
  017b4	89 4d fc	 mov	 DWORD PTR _this$[ebp], ecx

; 296  : 	 CSkinButton::OnLButtonDown(0, 0);

  017b7	83 ec 08	 sub	 esp, 8
  017ba	8b cc		 mov	 ecx, esp
  017bc	6a 00		 push	 0
  017be	e8 00 00 00 00	 call	 ??0CPoint@@QAE@J@Z	; CPoint::CPoint
  017c3	6a 00		 push	 0
  017c5	8b 4d fc	 mov	 ecx, DWORD PTR _this$[ebp]
  017c8	e8 00 00 00 00	 call	 ?OnLButtonDown@CSkinButton@@QAEXIVCPoint@@@Z ; CSkinButton::OnLButtonDown

; 297  :  }

  017cd	83 c4 08	 add	 esp, 8
  017d0	3b ec		 cmp	 ebp, esp
  017d2	e8 00 00 00 00	 call	 __RTC_CheckEsp
  017d7	8b e5		 mov	 esp, ebp
  017d9	5d		 pop	 ebp
  017da	c3		 ret	 0
?OnApplySkin@CSubSkinButton@@IAEXXZ ENDP		; CSubSkinButton::OnApplySkin
_TEXT	ENDS
xdata$x	SEGMENT
$T189863 DD	0ffffffffH
	DD	FLAT:$L189857
	DD	00H
	DD	FLAT:$L189858
	DD	01H
	DD	FLAT:$L189859
$T189861 DD	019930520H
	DD	03H
	DD	FLAT:$T189863
	DD	2 DUP(00H)
	DD	2 DUP(00H)
; Function compile flags: /Odt /RTCsu
xdata$x	ENDS
_TEXT	SEGMENT
tv134 = -96						; size = 4
tv139 = -92						; size = 4
tv132 = -88						; size = 4
tv136 = -84						; size = 4
$T189856 = -80						; size = 4
$T189855 = -76						; size = 28
$T189854 = -48						; size = 4
$T189853 = -44						; size = 28
_this$ = -16						; size = 4
__$EHRec$ = -12						; size = 12
?OnDeleteSkin@CSubSkinButton@@IAEXXZ PROC NEAR		; CSubSkinButton::OnDeleteSkin
; _this$ = ecx

; 300  :  {

  017e0	55		 push	 ebp
  017e1	8b ec		 mov	 ebp, esp
  017e3	6a ff		 push	 -1
  017e5	68 00 00 00 00	 push	 __ehhandler$?OnDeleteSkin@CSubSkinButton@@IAEXXZ
  017ea	64 a1 00 00 00
	00		 mov	 eax, DWORD PTR fs:__except_list
  017f0	50		 push	 eax
  017f1	64 89 25 00 00
	00 00		 mov	 DWORD PTR fs:__except_list, esp
  017f8	83 ec 54	 sub	 esp, 84			; 00000054H
  017fb	56		 push	 esi
  017fc	57		 push	 edi
  017fd	51		 push	 ecx
  017fe	8d 7d a0	 lea	 edi, DWORD PTR [ebp-96]
  01801	b9 15 00 00 00	 mov	 ecx, 21			; 00000015H
  01806	b8 cc cc cc cc	 mov	 eax, -858993460		; ccccccccH
  0180b	f3 ab		 rep stosd
  0180d	59		 pop	 ecx
  0180e	89 4d f0	 mov	 DWORD PTR _this$[ebp], ecx

; 301  : 	 LogUserActMsg(STR_USER_CLICK, string("BTN:DELETE_MENU_"+m_string));

  01811	8b f4		 mov	 esi, esp
  01813	68 00 00 00 00	 push	 OFFSET FLAT:$SG188689
  01818	8d 4d b4	 lea	 ecx, DWORD PTR $T189855[ebp]
  0181b	ff 15 00 00 00
	00		 call	 DWORD PTR __imp_??0?$basic_string@DU?$char_traits@D@std@@V?$allocator@D@2@@std@@QAE@PBD@Z
  01821	3b f4		 cmp	 esi, esp
  01823	e8 00 00 00 00	 call	 __RTC_CheckEsp
  01828	c7 45 fc 00 00
	00 00		 mov	 DWORD PTR __$EHRec$[ebp+8], 0
  0182f	8b 45 f0	 mov	 eax, DWORD PTR _this$[ebp]
  01832	05 18 01 00 00	 add	 eax, 280		; 00000118H
  01837	50		 push	 eax
  01838	68 00 00 00 00	 push	 OFFSET FLAT:$SG188688
  0183d	8d 4d d0	 lea	 ecx, DWORD PTR $T189854[ebp]
  01840	51		 push	 ecx
  01841	e8 00 00 00 00	 call	 ??HATL@@YA?AV?$CStringT@DV?$StrTraitMFC_DLL@DV?$ChTraitsCRT@D@ATL@@@@@0@PBDABV10@@Z ; ATL::operator+
  01846	83 c4 0c	 add	 esp, 12			; 0000000cH
  01849	89 45 ac	 mov	 DWORD PTR tv136[ebp], eax
  0184c	8b 55 ac	 mov	 edx, DWORD PTR tv136[ebp]
  0184f	89 55 a8	 mov	 DWORD PTR tv132[ebp], edx
  01852	c6 45 fc 01	 mov	 BYTE PTR __$EHRec$[ebp+8], 1
  01856	8b f4		 mov	 esi, esp
  01858	8b 4d a8	 mov	 ecx, DWORD PTR tv132[ebp]
  0185b	ff 15 00 00 00
	00		 call	 DWORD PTR __imp_??B?$CSimpleStringT@D$00@ATL@@QBEPBDXZ
  01861	3b f4		 cmp	 esi, esp
  01863	e8 00 00 00 00	 call	 __RTC_CheckEsp
  01868	8b f4		 mov	 esi, esp
  0186a	50		 push	 eax
  0186b	8d 4d d4	 lea	 ecx, DWORD PTR $T189853[ebp]
  0186e	ff 15 00 00 00
	00		 call	 DWORD PTR __imp_??0?$basic_string@DU?$char_traits@D@std@@V?$allocator@D@2@@std@@QAE@PBD@Z
  01874	3b f4		 cmp	 esi, esp
  01876	e8 00 00 00 00	 call	 __RTC_CheckEsp
  0187b	89 45 a4	 mov	 DWORD PTR tv139[ebp], eax
  0187e	8b 45 a4	 mov	 eax, DWORD PTR tv139[ebp]
  01881	89 45 a0	 mov	 DWORD PTR tv134[ebp], eax
  01884	c6 45 fc 02	 mov	 BYTE PTR __$EHRec$[ebp+8], 2
  01888	8b f4		 mov	 esi, esp
  0188a	8b 4d a0	 mov	 ecx, DWORD PTR tv134[ebp]
  0188d	51		 push	 ecx
  0188e	8d 55 b4	 lea	 edx, DWORD PTR $T189855[ebp]
  01891	52		 push	 edx
  01892	ff 15 00 00 00
	00		 call	 DWORD PTR __imp_?LogUserActMsg@@YAXABV?$basic_string@DU?$char_traits@D@std@@V?$allocator@D@2@@std@@0@Z
  01898	83 c4 08	 add	 esp, 8
  0189b	3b f4		 cmp	 esi, esp
  0189d	e8 00 00 00 00	 call	 __RTC_CheckEsp
  018a2	c6 45 fc 01	 mov	 BYTE PTR __$EHRec$[ebp+8], 1
  018a6	8b f4		 mov	 esi, esp
  018a8	8d 4d d4	 lea	 ecx, DWORD PTR $T189853[ebp]
  018ab	ff 15 00 00 00
	00		 call	 DWORD PTR __imp_??1?$basic_string@DU?$char_traits@D@std@@V?$allocator@D@2@@std@@QAE@XZ
  018b1	3b f4		 cmp	 esi, esp
  018b3	e8 00 00 00 00	 call	 __RTC_CheckEsp
  018b8	c6 45 fc 00	 mov	 BYTE PTR __$EHRec$[ebp+8], 0
  018bc	8b f4		 mov	 esi, esp
  018be	8d 4d d0	 lea	 ecx, DWORD PTR $T189854[ebp]
  018c1	ff 15 00 00 00
	00		 call	 DWORD PTR __imp_??1?$CStringT@DV?$StrTraitMFC_DLL@DV?$ChTraitsCRT@D@ATL@@@@@ATL@@QAE@XZ
  018c7	3b f4		 cmp	 esi, esp
  018c9	e8 00 00 00 00	 call	 __RTC_CheckEsp
  018ce	c7 45 fc ff ff
	ff ff		 mov	 DWORD PTR __$EHRec$[ebp+8], -1
  018d5	8b f4		 mov	 esi, esp
  018d7	8d 4d b4	 lea	 ecx, DWORD PTR $T189855[ebp]
  018da	ff 15 00 00 00
	00		 call	 DWORD PTR __imp_??1?$basic_string@DU?$char_traits@D@std@@V?$allocator@D@2@@std@@QAE@XZ
  018e0	3b f4		 cmp	 esi, esp
  018e2	e8 00 00 00 00	 call	 __RTC_CheckEsp

; 302  : 	 m_bClickPng = 1;

  018e7	8b 45 f0	 mov	 eax, DWORD PTR _this$[ebp]
  018ea	c7 80 44 01 00
	00 01 00 00 00	 mov	 DWORD PTR [eax+324], 1

; 303  : 	 CSkinButton::OnLButtonDown(0, 0);

  018f4	83 ec 08	 sub	 esp, 8
  018f7	8b cc		 mov	 ecx, esp
  018f9	89 65 b0	 mov	 DWORD PTR $T189856[ebp], esp
  018fc	6a 00		 push	 0
  018fe	e8 00 00 00 00	 call	 ??0CPoint@@QAE@J@Z	; CPoint::CPoint
  01903	6a 00		 push	 0
  01905	8b 4d f0	 mov	 ecx, DWORD PTR _this$[ebp]
  01908	e8 00 00 00 00	 call	 ?OnLButtonDown@CSkinButton@@QAEXIVCPoint@@@Z ; CSkinButton::OnLButtonDown

; 304  :  }

  0190d	8b 4d f4	 mov	 ecx, DWORD PTR __$EHRec$[ebp]
  01910	64 89 0d 00 00
	00 00		 mov	 DWORD PTR fs:__except_list, ecx
  01917	5f		 pop	 edi
  01918	5e		 pop	 esi
  01919	83 c4 60	 add	 esp, 96			; 00000060H
  0191c	3b ec		 cmp	 ebp, esp
  0191e	e8 00 00 00 00	 call	 __RTC_CheckEsp
  01923	8b e5		 mov	 esp, ebp
  01925	5d		 pop	 ebp
  01926	c3		 ret	 0
_TEXT	ENDS
text$x	SEGMENT
$L189857:
  0017f	8b f4		 mov	 esi, esp
  00181	8d 4d b4	 lea	 ecx, DWORD PTR $T189855[ebp]
  00184	ff 15 00 00 00
	00		 call	 DWORD PTR __imp_??1?$basic_string@DU?$char_traits@D@std@@V?$allocator@D@2@@std@@QAE@XZ
  0018a	3b f4		 cmp	 esi, esp
  0018c	e9 00 00 00 00	 jmp	 __RTC_CheckEsp
$L189858:
  00191	8b f4		 mov	 esi, esp
  00193	8d 4d d0	 lea	 ecx, DWORD PTR $T189854[ebp]
  00196	ff 15 00 00 00
	00		 call	 DWORD PTR __imp_??1?$CStringT@DV?$StrTraitMFC_DLL@DV?$ChTraitsCRT@D@ATL@@@@@ATL@@QAE@XZ
  0019c	3b f4		 cmp	 esi, esp
  0019e	e9 00 00 00 00	 jmp	 __RTC_CheckEsp
$L189859:
  001a3	8b f4		 mov	 esi, esp
  001a5	8d 4d d4	 lea	 ecx, DWORD PTR $T189853[ebp]
  001a8	ff 15 00 00 00
	00		 call	 DWORD PTR __imp_??1?$basic_string@DU?$char_traits@D@std@@V?$allocator@D@2@@std@@QAE@XZ
  001ae	3b f4		 cmp	 esi, esp
  001b0	e9 00 00 00 00	 jmp	 __RTC_CheckEsp
__ehhandler$?OnDeleteSkin@CSubSkinButton@@IAEXXZ:
  001b5	b8 00 00 00 00	 mov	 eax, OFFSET FLAT:$T189861
  001ba	e9 00 00 00 00	 jmp	 ___CxxFrameHandler
text$x	ENDS
?OnDeleteSkin@CSubSkinButton@@IAEXXZ ENDP		; CSubSkinButton::OnDeleteSkin
EXTRN	__imp__ShellExecuteA@24:NEAR
xdata$x	SEGMENT
$T189872 DD	0ffffffffH
	DD	FLAT:$L189867
	DD	00H
	DD	FLAT:$L189868
$T189870 DD	019930520H
	DD	02H
	DD	FLAT:$T189872
	DD	2 DUP(00H)
	DD	2 DUP(00H)
; Function compile flags: /Odt /RTCsu
xdata$x	ENDS
_TEXT	SEGMENT
$T189866 = -72						; size = 28
$T189865 = -44						; size = 28
_this$ = -16						; size = 4
__$EHRec$ = -12						; size = 12
?OnMoreSkin@CSubSkinButton@@IAEXXZ PROC NEAR		; CSubSkinButton::OnMoreSkin
; _this$ = ecx

; 307  :  {

  01930	55		 push	 ebp
  01931	8b ec		 mov	 ebp, esp
  01933	6a ff		 push	 -1
  01935	68 00 00 00 00	 push	 __ehhandler$?OnMoreSkin@CSubSkinButton@@IAEXXZ
  0193a	64 a1 00 00 00
	00		 mov	 eax, DWORD PTR fs:__except_list
  01940	50		 push	 eax
  01941	64 89 25 00 00
	00 00		 mov	 DWORD PTR fs:__except_list, esp
  01948	83 ec 3c	 sub	 esp, 60			; 0000003cH
  0194b	56		 push	 esi
  0194c	57		 push	 edi
  0194d	51		 push	 ecx
  0194e	8d 7d b8	 lea	 edi, DWORD PTR [ebp-72]
  01951	b9 0f 00 00 00	 mov	 ecx, 15			; 0000000fH
  01956	b8 cc cc cc cc	 mov	 eax, -858993460		; ccccccccH
  0195b	f3 ab		 rep stosd
  0195d	59		 pop	 ecx
  0195e	89 4d f0	 mov	 DWORD PTR _this$[ebp], ecx

; 308  : 	 LogUserActMsg(STR_USER_CLICK, "BTN:DOWN_MORE_MENU");

  01961	8b f4		 mov	 esi, esp
  01963	68 00 00 00 00	 push	 OFFSET FLAT:$SG188696
  01968	8d 4d d4	 lea	 ecx, DWORD PTR $T189865[ebp]
  0196b	ff 15 00 00 00
	00		 call	 DWORD PTR __imp_??0?$basic_string@DU?$char_traits@D@std@@V?$allocator@D@2@@std@@QAE@PBD@Z
  01971	3b f4		 cmp	 esi, esp
  01973	e8 00 00 00 00	 call	 __RTC_CheckEsp
  01978	c7 45 fc 00 00
	00 00		 mov	 DWORD PTR __$EHRec$[ebp+8], 0
  0197f	8b f4		 mov	 esi, esp
  01981	68 00 00 00 00	 push	 OFFSET FLAT:$SG188697
  01986	8d 4d b8	 lea	 ecx, DWORD PTR $T189866[ebp]
  01989	ff 15 00 00 00
	00		 call	 DWORD PTR __imp_??0?$basic_string@DU?$char_traits@D@std@@V?$allocator@D@2@@std@@QAE@PBD@Z
  0198f	3b f4		 cmp	 esi, esp
  01991	e8 00 00 00 00	 call	 __RTC_CheckEsp
  01996	c6 45 fc 01	 mov	 BYTE PTR __$EHRec$[ebp+8], 1
  0199a	8b f4		 mov	 esi, esp
  0199c	8d 45 d4	 lea	 eax, DWORD PTR $T189865[ebp]
  0199f	50		 push	 eax
  019a0	8d 4d b8	 lea	 ecx, DWORD PTR $T189866[ebp]
  019a3	51		 push	 ecx
  019a4	ff 15 00 00 00
	00		 call	 DWORD PTR __imp_?LogUserActMsg@@YAXABV?$basic_string@DU?$char_traits@D@std@@V?$allocator@D@2@@std@@0@Z
  019aa	83 c4 08	 add	 esp, 8
  019ad	3b f4		 cmp	 esi, esp
  019af	e8 00 00 00 00	 call	 __RTC_CheckEsp
  019b4	c6 45 fc 00	 mov	 BYTE PTR __$EHRec$[ebp+8], 0
  019b8	8b f4		 mov	 esi, esp
  019ba	8d 4d b8	 lea	 ecx, DWORD PTR $T189866[ebp]
  019bd	ff 15 00 00 00
	00		 call	 DWORD PTR __imp_??1?$basic_string@DU?$char_traits@D@std@@V?$allocator@D@2@@std@@QAE@XZ
  019c3	3b f4		 cmp	 esi, esp
  019c5	e8 00 00 00 00	 call	 __RTC_CheckEsp
  019ca	c7 45 fc ff ff
	ff ff		 mov	 DWORD PTR __$EHRec$[ebp+8], -1
  019d1	8b f4		 mov	 esi, esp
  019d3	8d 4d d4	 lea	 ecx, DWORD PTR $T189865[ebp]
  019d6	ff 15 00 00 00
	00		 call	 DWORD PTR __imp_??1?$basic_string@DU?$char_traits@D@std@@V?$allocator@D@2@@std@@QAE@XZ
  019dc	3b f4		 cmp	 esi, esp
  019de	e8 00 00 00 00	 call	 __RTC_CheckEsp

; 309  : 	 ShellExecute(NULL, "open", _T("iexplore"), "http://www.kuwo.cn/skin/", NULL, SW_SHOWNORMAL);

  019e3	8b f4		 mov	 esi, esp
  019e5	6a 01		 push	 1
  019e7	6a 00		 push	 0
  019e9	68 00 00 00 00	 push	 OFFSET FLAT:$SG188698
  019ee	68 00 00 00 00	 push	 OFFSET FLAT:$SG188699
  019f3	68 00 00 00 00	 push	 OFFSET FLAT:$SG188700
  019f8	6a 00		 push	 0
  019fa	ff 15 00 00 00
	00		 call	 DWORD PTR __imp__ShellExecuteA@24
  01a00	3b f4		 cmp	 esi, esp
  01a02	e8 00 00 00 00	 call	 __RTC_CheckEsp

; 310  :  }

  01a07	8b 4d f4	 mov	 ecx, DWORD PTR __$EHRec$[ebp]
  01a0a	64 89 0d 00 00
	00 00		 mov	 DWORD PTR fs:__except_list, ecx
  01a11	5f		 pop	 edi
  01a12	5e		 pop	 esi
  01a13	83 c4 48	 add	 esp, 72			; 00000048H
  01a16	3b ec		 cmp	 ebp, esp
  01a18	e8 00 00 00 00	 call	 __RTC_CheckEsp
  01a1d	8b e5		 mov	 esp, ebp
  01a1f	5d		 pop	 ebp
  01a20	c3		 ret	 0
_TEXT	ENDS
text$x	SEGMENT
$L189867:
  001bf	8b f4		 mov	 esi, esp
  001c1	8d 4d d4	 lea	 ecx, DWORD PTR $T189865[ebp]
  001c4	ff 15 00 00 00
	00		 call	 DWORD PTR __imp_??1?$basic_string@DU?$char_traits@D@std@@V?$allocator@D@2@@std@@QAE@XZ
  001ca	3b f4		 cmp	 esi, esp
  001cc	e9 00 00 00 00	 jmp	 __RTC_CheckEsp
$L189868:
  001d1	8b f4		 mov	 esi, esp
  001d3	8d 4d b8	 lea	 ecx, DWORD PTR $T189866[ebp]
  001d6	ff 15 00 00 00
	00		 call	 DWORD PTR __imp_??1?$basic_string@DU?$char_traits@D@std@@V?$allocator@D@2@@std@@QAE@XZ
  001dc	3b f4		 cmp	 esi, esp
  001de	e9 00 00 00 00	 jmp	 __RTC_CheckEsp
__ehhandler$?OnMoreSkin@CSubSkinButton@@IAEXXZ:
  001e3	b8 00 00 00 00	 mov	 eax, OFFSET FLAT:$T189870
  001e8	e9 00 00 00 00	 jmp	 ___CxxFrameHandler
text$x	ENDS
?OnMoreSkin@CSubSkinButton@@IAEXXZ ENDP			; CSubSkinButton::OnMoreSkin
EXTRN	__imp_?GetManager@?$CSimpleStringT@D$00@ATL@@QBEPAUIAtlStringMgr@2@XZ:NEAR
EXTRN	__imp_?StringLength@?$CSimpleStringT@D$00@ATL@@SAHPBD@Z:NEAR
EXTRN	__imp_?Concatenate@?$CSimpleStringT@D$00@ATL@@KAXAAV12@PBDH1H@Z:NEAR
EXTRN	__imp_??0?$CStringT@DV?$StrTraitMFC_DLL@DV?$ChTraitsCRT@D@ATL@@@@@ATL@@QAE@PAUIAtlStringMgr@1@@Z:NEAR
;	COMDAT xdata$x
; File d:\program files (x86)\microsoft visual studio .net 2003\vc7\atlmfc\include\cstringt.h
xdata$x	SEGMENT
$T189884 DD	0ffffffffH
	DD	FLAT:$L189874
$T189879 DD	019930520H
	DD	01H
	DD	FLAT:$T189884
	DD	2 DUP(00H)
	DD	2 DUP(00H)
; Function compile flags: /Odt /RTCsu
xdata$x	ENDS
;	COMDAT ??HATL@@YA?AV?$CStringT@DV?$StrTraitMFC_DLL@DV?$ChTraitsCRT@D@ATL@@@@@0@ABV10@PBD@Z
_TEXT	SEGMENT
$T189876 = -28						; size = 4
_strResult$ = -20					; size = 4
__$EHRec$ = -12						; size = 12
___$ReturnUdt$ = 8					; size = 4
_str1$ = 12						; size = 4
_psz2$ = 16						; size = 4
??HATL@@YA?AV?$CStringT@DV?$StrTraitMFC_DLL@DV?$ChTraitsCRT@D@ATL@@@@@0@ABV10@PBD@Z PROC NEAR ; ATL::operator+, COMDAT

; 2023 : 	{

  00000	55		 push	 ebp
  00001	8b ec		 mov	 ebp, esp
  00003	6a ff		 push	 -1
  00005	68 00 00 00 00	 push	 __ehhandler$??HATL@@YA?AV?$CStringT@DV?$StrTraitMFC_DLL@DV?$ChTraitsCRT@D@ATL@@@@@0@ABV10@PBD@Z
  0000a	64 a1 00 00 00
	00		 mov	 eax, DWORD PTR fs:__except_list
  00010	50		 push	 eax
  00011	64 89 25 00 00
	00 00		 mov	 DWORD PTR fs:__except_list, esp
  00018	83 ec 10	 sub	 esp, 16			; 00000010H
  0001b	56		 push	 esi
  0001c	57		 push	 edi
  0001d	b8 cc cc cc cc	 mov	 eax, -858993460		; ccccccccH
  00022	89 45 e4	 mov	 DWORD PTR [ebp-28], eax
  00025	89 45 e8	 mov	 DWORD PTR [ebp-24], eax
  00028	89 45 ec	 mov	 DWORD PTR [ebp-20], eax
  0002b	89 45 f0	 mov	 DWORD PTR [ebp-16], eax
  0002e	c7 45 e4 00 00
	00 00		 mov	 DWORD PTR $T189876[ebp], 0

; 2024 : 		CStringT strResult( str1.GetManager() );

  00035	8b f4		 mov	 esi, esp
  00037	8b 4d 0c	 mov	 ecx, DWORD PTR _str1$[ebp]
  0003a	ff 15 00 00 00
	00		 call	 DWORD PTR __imp_?GetManager@?$CSimpleStringT@D$00@ATL@@QBEPAUIAtlStringMgr@2@XZ
  00040	3b f4		 cmp	 esi, esp
  00042	e8 00 00 00 00	 call	 __RTC_CheckEsp
  00047	8b f4		 mov	 esi, esp
  00049	50		 push	 eax
  0004a	8d 4d ec	 lea	 ecx, DWORD PTR _strResult$[ebp]
  0004d	ff 15 00 00 00
	00		 call	 DWORD PTR __imp_??0?$CStringT@DV?$StrTraitMFC_DLL@DV?$ChTraitsCRT@D@ATL@@@@@ATL@@QAE@PAUIAtlStringMgr@1@@Z
  00053	3b f4		 cmp	 esi, esp
  00055	e8 00 00 00 00	 call	 __RTC_CheckEsp
  0005a	c7 45 fc 00 00
	00 00		 mov	 DWORD PTR __$EHRec$[ebp+8], 0

; 2025 : 
; 2026 : 		Concatenate( strResult, str1, str1.GetLength(), psz2, StringLength( psz2 ) );

  00061	8b f4		 mov	 esi, esp
  00063	8b 45 10	 mov	 eax, DWORD PTR _psz2$[ebp]
  00066	50		 push	 eax
  00067	ff 15 00 00 00
	00		 call	 DWORD PTR __imp_?StringLength@?$CSimpleStringT@D$00@ATL@@SAHPBD@Z
  0006d	83 c4 04	 add	 esp, 4
  00070	3b f4		 cmp	 esi, esp
  00072	e8 00 00 00 00	 call	 __RTC_CheckEsp
  00077	8b f4		 mov	 esi, esp
  00079	50		 push	 eax
  0007a	8b 4d 10	 mov	 ecx, DWORD PTR _psz2$[ebp]
  0007d	51		 push	 ecx
  0007e	8b fc		 mov	 edi, esp
  00080	8b 4d 0c	 mov	 ecx, DWORD PTR _str1$[ebp]
  00083	ff 15 00 00 00
	00		 call	 DWORD PTR __imp_?GetLength@?$CSimpleStringT@D$00@ATL@@QBEHXZ
  00089	3b fc		 cmp	 edi, esp
  0008b	e8 00 00 00 00	 call	 __RTC_CheckEsp
  00090	50		 push	 eax
  00091	8b fc		 mov	 edi, esp
  00093	8b 4d 0c	 mov	 ecx, DWORD PTR _str1$[ebp]
  00096	ff 15 00 00 00
	00		 call	 DWORD PTR __imp_??B?$CSimpleStringT@D$00@ATL@@QBEPBDXZ
  0009c	3b fc		 cmp	 edi, esp
  0009e	e8 00 00 00 00	 call	 __RTC_CheckEsp
  000a3	50		 push	 eax
  000a4	8d 55 ec	 lea	 edx, DWORD PTR _strResult$[ebp]
  000a7	52		 push	 edx
  000a8	ff 15 00 00 00
	00		 call	 DWORD PTR __imp_?Concatenate@?$CSimpleStringT@D$00@ATL@@KAXAAV12@PBDH1H@Z
  000ae	83 c4 14	 add	 esp, 20			; 00000014H
  000b1	3b f4		 cmp	 esi, esp
  000b3	e8 00 00 00 00	 call	 __RTC_CheckEsp

; 2027 : 
; 2028 : 		return( strResult );

  000b8	8b f4		 mov	 esi, esp
  000ba	8d 45 ec	 lea	 eax, DWORD PTR _strResult$[ebp]
  000bd	50		 push	 eax
  000be	8b 4d 08	 mov	 ecx, DWORD PTR ___$ReturnUdt$[ebp]
  000c1	ff 15 00 00 00
	00		 call	 DWORD PTR __imp_??0?$CStringT@DV?$StrTraitMFC_DLL@DV?$ChTraitsCRT@D@ATL@@@@@ATL@@QAE@ABV01@@Z
  000c7	3b f4		 cmp	 esi, esp
  000c9	e8 00 00 00 00	 call	 __RTC_CheckEsp
  000ce	8b 4d e4	 mov	 ecx, DWORD PTR $T189876[ebp]
  000d1	83 c9 01	 or	 ecx, 1
  000d4	89 4d e4	 mov	 DWORD PTR $T189876[ebp], ecx
  000d7	c7 45 fc ff ff
	ff ff		 mov	 DWORD PTR __$EHRec$[ebp+8], -1
  000de	8b f4		 mov	 esi, esp
  000e0	8d 4d ec	 lea	 ecx, DWORD PTR _strResult$[ebp]
  000e3	ff 15 00 00 00
	00		 call	 DWORD PTR __imp_??1?$CStringT@DV?$StrTraitMFC_DLL@DV?$ChTraitsCRT@D@ATL@@@@@ATL@@QAE@XZ
  000e9	3b f4		 cmp	 esi, esp
  000eb	e8 00 00 00 00	 call	 __RTC_CheckEsp
  000f0	8b 45 08	 mov	 eax, DWORD PTR ___$ReturnUdt$[ebp]

; 2029 : 	}

  000f3	52		 push	 edx
  000f4	8b cd		 mov	 ecx, ebp
  000f6	50		 push	 eax
  000f7	8d 15 00 00 00
	00		 lea	 edx, DWORD PTR $L189883
  000fd	e8 00 00 00 00	 call	 @_RTC_CheckStackVars@8
  00102	58		 pop	 eax
  00103	5a		 pop	 edx
  00104	8b 4d f4	 mov	 ecx, DWORD PTR __$EHRec$[ebp]
  00107	64 89 0d 00 00
	00 00		 mov	 DWORD PTR fs:__except_list, ecx
  0010e	5f		 pop	 edi
  0010f	5e		 pop	 esi
  00110	83 c4 1c	 add	 esp, 28			; 0000001cH
  00113	3b ec		 cmp	 ebp, esp
  00115	e8 00 00 00 00	 call	 __RTC_CheckEsp
  0011a	8b e5		 mov	 esp, ebp
  0011c	5d		 pop	 ebp
  0011d	c3		 ret	 0
$L189883:
  0011e	01 00 00 00	 DD	 1
  00122	00 00 00 00	 DD	 $L189882
$L189882:
  00126	ec ff ff ff	 DD	 -20			; ffffffecH
  0012a	04 00 00 00	 DD	 4
  0012e	00 00 00 00	 DD	 $L189880
$L189880:
  00132	73		 DB	 115			; 00000073H
  00133	74		 DB	 116			; 00000074H
  00134	72		 DB	 114			; 00000072H
  00135	52		 DB	 82			; 00000052H
  00136	65		 DB	 101			; 00000065H
  00137	73		 DB	 115			; 00000073H
  00138	75		 DB	 117			; 00000075H
  00139	6c		 DB	 108			; 0000006cH
  0013a	74		 DB	 116			; 00000074H
  0013b	00		 DB	 0
_TEXT	ENDS
;	COMDAT text$x
text$x	SEGMENT
$L189874:
  00000	8b f4		 mov	 esi, esp
  00002	8d 4d ec	 lea	 ecx, DWORD PTR _strResult$[ebp]
  00005	ff 15 00 00 00
	00		 call	 DWORD PTR __imp_??1?$CStringT@DV?$StrTraitMFC_DLL@DV?$ChTraitsCRT@D@ATL@@@@@ATL@@QAE@XZ
  0000b	3b f4		 cmp	 esi, esp
  0000d	e9 00 00 00 00	 jmp	 __RTC_CheckEsp
__ehhandler$??HATL@@YA?AV?$CStringT@DV?$StrTraitMFC_DLL@DV?$ChTraitsCRT@D@ATL@@@@@0@ABV10@PBD@Z:
  00012	b8 00 00 00 00	 mov	 eax, OFFSET FLAT:$T189879
  00017	e9 00 00 00 00	 jmp	 ___CxxFrameHandler
text$x	ENDS
??HATL@@YA?AV?$CStringT@DV?$StrTraitMFC_DLL@DV?$ChTraitsCRT@D@ATL@@@@@0@ABV10@PBD@Z ENDP ; ATL::operator+
;	COMDAT xdata$x
xdata$x	SEGMENT
$T189898 DD	0ffffffffH
	DD	FLAT:$L189888
$T189893 DD	019930520H
	DD	01H
	DD	FLAT:$T189898
	DD	2 DUP(00H)
	DD	2 DUP(00H)
; Function compile flags: /Odt /RTCsu
xdata$x	ENDS
;	COMDAT ??HATL@@YA?AV?$CStringT@DV?$StrTraitMFC_DLL@DV?$ChTraitsCRT@D@ATL@@@@@0@PBDABV10@@Z
_TEXT	SEGMENT
$T189890 = -28						; size = 4
_strResult$ = -20					; size = 4
__$EHRec$ = -12						; size = 12
___$ReturnUdt$ = 8					; size = 4
_psz1$ = 12						; size = 4
_str2$ = 16						; size = 4
??HATL@@YA?AV?$CStringT@DV?$StrTraitMFC_DLL@DV?$ChTraitsCRT@D@ATL@@@@@0@PBDABV10@@Z PROC NEAR ; ATL::operator+, COMDAT

; 2032 : 	{

  00000	55		 push	 ebp
  00001	8b ec		 mov	 ebp, esp
  00003	6a ff		 push	 -1
  00005	68 00 00 00 00	 push	 __ehhandler$??HATL@@YA?AV?$CStringT@DV?$StrTraitMFC_DLL@DV?$ChTraitsCRT@D@ATL@@@@@0@PBDABV10@@Z
  0000a	64 a1 00 00 00
	00		 mov	 eax, DWORD PTR fs:__except_list
  00010	50		 push	 eax
  00011	64 89 25 00 00
	00 00		 mov	 DWORD PTR fs:__except_list, esp
  00018	83 ec 10	 sub	 esp, 16			; 00000010H
  0001b	56		 push	 esi
  0001c	57		 push	 edi
  0001d	b8 cc cc cc cc	 mov	 eax, -858993460		; ccccccccH
  00022	89 45 e4	 mov	 DWORD PTR [ebp-28], eax
  00025	89 45 e8	 mov	 DWORD PTR [ebp-24], eax
  00028	89 45 ec	 mov	 DWORD PTR [ebp-20], eax
  0002b	89 45 f0	 mov	 DWORD PTR [ebp-16], eax
  0002e	c7 45 e4 00 00
	00 00		 mov	 DWORD PTR $T189890[ebp], 0

; 2033 : 		CStringT strResult( str2.GetManager() );

  00035	8b f4		 mov	 esi, esp
  00037	8b 4d 10	 mov	 ecx, DWORD PTR _str2$[ebp]
  0003a	ff 15 00 00 00
	00		 call	 DWORD PTR __imp_?GetManager@?$CSimpleStringT@D$00@ATL@@QBEPAUIAtlStringMgr@2@XZ
  00040	3b f4		 cmp	 esi, esp
  00042	e8 00 00 00 00	 call	 __RTC_CheckEsp
  00047	8b f4		 mov	 esi, esp
  00049	50		 push	 eax
  0004a	8d 4d ec	 lea	 ecx, DWORD PTR _strResult$[ebp]
  0004d	ff 15 00 00 00
	00		 call	 DWORD PTR __imp_??0?$CStringT@DV?$StrTraitMFC_DLL@DV?$ChTraitsCRT@D@ATL@@@@@ATL@@QAE@PAUIAtlStringMgr@1@@Z
  00053	3b f4		 cmp	 esi, esp
  00055	e8 00 00 00 00	 call	 __RTC_CheckEsp
  0005a	c7 45 fc 00 00
	00 00		 mov	 DWORD PTR __$EHRec$[ebp+8], 0

; 2034 : 
; 2035 : 		Concatenate( strResult, psz1, StringLength( psz1 ), str2, str2.GetLength() );

  00061	8b f4		 mov	 esi, esp
  00063	8b 4d 10	 mov	 ecx, DWORD PTR _str2$[ebp]
  00066	ff 15 00 00 00
	00		 call	 DWORD PTR __imp_?GetLength@?$CSimpleStringT@D$00@ATL@@QBEHXZ
  0006c	3b f4		 cmp	 esi, esp
  0006e	e8 00 00 00 00	 call	 __RTC_CheckEsp
  00073	8b f4		 mov	 esi, esp
  00075	50		 push	 eax
  00076	8b fc		 mov	 edi, esp
  00078	8b 4d 10	 mov	 ecx, DWORD PTR _str2$[ebp]
  0007b	ff 15 00 00 00
	00		 call	 DWORD PTR __imp_??B?$CSimpleStringT@D$00@ATL@@QBEPBDXZ
  00081	3b fc		 cmp	 edi, esp
  00083	e8 00 00 00 00	 call	 __RTC_CheckEsp
  00088	50		 push	 eax
  00089	8b fc		 mov	 edi, esp
  0008b	8b 45 0c	 mov	 eax, DWORD PTR _psz1$[ebp]
  0008e	50		 push	 eax
  0008f	ff 15 00 00 00
	00		 call	 DWORD PTR __imp_?StringLength@?$CSimpleStringT@D$00@ATL@@SAHPBD@Z
  00095	83 c4 04	 add	 esp, 4
  00098	3b fc		 cmp	 edi, esp
  0009a	e8 00 00 00 00	 call	 __RTC_CheckEsp
  0009f	50		 push	 eax
  000a0	8b 4d 0c	 mov	 ecx, DWORD PTR _psz1$[ebp]
  000a3	51		 push	 ecx
  000a4	8d 55 ec	 lea	 edx, DWORD PTR _strResult$[ebp]
  000a7	52		 push	 edx
  000a8	ff 15 00 00 00
	00		 call	 DWORD PTR __imp_?Concatenate@?$CSimpleStringT@D$00@ATL@@KAXAAV12@PBDH1H@Z
  000ae	83 c4 14	 add	 esp, 20			; 00000014H
  000b1	3b f4		 cmp	 esi, esp
  000b3	e8 00 00 00 00	 call	 __RTC_CheckEsp

; 2036 : 
; 2037 : 		return( strResult );

  000b8	8b f4		 mov	 esi, esp
  000ba	8d 45 ec	 lea	 eax, DWORD PTR _strResult$[ebp]
  000bd	50		 push	 eax
  000be	8b 4d 08	 mov	 ecx, DWORD PTR ___$ReturnUdt$[ebp]
  000c1	ff 15 00 00 00
	00		 call	 DWORD PTR __imp_??0?$CStringT@DV?$StrTraitMFC_DLL@DV?$ChTraitsCRT@D@ATL@@@@@ATL@@QAE@ABV01@@Z
  000c7	3b f4		 cmp	 esi, esp
  000c9	e8 00 00 00 00	 call	 __RTC_CheckEsp
  000ce	8b 4d e4	 mov	 ecx, DWORD PTR $T189890[ebp]
  000d1	83 c9 01	 or	 ecx, 1
  000d4	89 4d e4	 mov	 DWORD PTR $T189890[ebp], ecx
  000d7	c7 45 fc ff ff
	ff ff		 mov	 DWORD PTR __$EHRec$[ebp+8], -1
  000de	8b f4		 mov	 esi, esp
  000e0	8d 4d ec	 lea	 ecx, DWORD PTR _strResult$[ebp]
  000e3	ff 15 00 00 00
	00		 call	 DWORD PTR __imp_??1?$CStringT@DV?$StrTraitMFC_DLL@DV?$ChTraitsCRT@D@ATL@@@@@ATL@@QAE@XZ
  000e9	3b f4		 cmp	 esi, esp
  000eb	e8 00 00 00 00	 call	 __RTC_CheckEsp
  000f0	8b 45 08	 mov	 eax, DWORD PTR ___$ReturnUdt$[ebp]

; 2038 : 	}

  000f3	52		 push	 edx
  000f4	8b cd		 mov	 ecx, ebp
  000f6	50		 push	 eax
  000f7	8d 15 00 00 00
	00		 lea	 edx, DWORD PTR $L189897
  000fd	e8 00 00 00 00	 call	 @_RTC_CheckStackVars@8
  00102	58		 pop	 eax
  00103	5a		 pop	 edx
  00104	8b 4d f4	 mov	 ecx, DWORD PTR __$EHRec$[ebp]
  00107	64 89 0d 00 00
	00 00		 mov	 DWORD PTR fs:__except_list, ecx
  0010e	5f		 pop	 edi
  0010f	5e		 pop	 esi
  00110	83 c4 1c	 add	 esp, 28			; 0000001cH
  00113	3b ec		 cmp	 ebp, esp
  00115	e8 00 00 00 00	 call	 __RTC_CheckEsp
  0011a	8b e5		 mov	 esp, ebp
  0011c	5d		 pop	 ebp
  0011d	c3		 ret	 0
$L189897:
  0011e	01 00 00 00	 DD	 1
  00122	00 00 00 00	 DD	 $L189896
$L189896:
  00126	ec ff ff ff	 DD	 -20			; ffffffecH
  0012a	04 00 00 00	 DD	 4
  0012e	00 00 00 00	 DD	 $L189894
$L189894:
  00132	73		 DB	 115			; 00000073H
  00133	74		 DB	 116			; 00000074H
  00134	72		 DB	 114			; 00000072H
  00135	52		 DB	 82			; 00000052H
  00136	65		 DB	 101			; 00000065H
  00137	73		 DB	 115			; 00000073H
  00138	75		 DB	 117			; 00000075H
  00139	6c		 DB	 108			; 0000006cH
  0013a	74		 DB	 116			; 00000074H
  0013b	00		 DB	 0
_TEXT	ENDS
;	COMDAT text$x
text$x	SEGMENT
$L189888:
  00000	8b f4		 mov	 esi, esp
  00002	8d 4d ec	 lea	 ecx, DWORD PTR _strResult$[ebp]
  00005	ff 15 00 00 00
	00		 call	 DWORD PTR __imp_??1?$CStringT@DV?$StrTraitMFC_DLL@DV?$ChTraitsCRT@D@ATL@@@@@ATL@@QAE@XZ
  0000b	3b f4		 cmp	 esi, esp
  0000d	e9 00 00 00 00	 jmp	 __RTC_CheckEsp
__ehhandler$??HATL@@YA?AV?$CStringT@DV?$StrTraitMFC_DLL@DV?$ChTraitsCRT@D@ATL@@@@@0@PBDABV10@@Z:
  00012	b8 00 00 00 00	 mov	 eax, OFFSET FLAT:$T189893
  00017	e9 00 00 00 00	 jmp	 ___CxxFrameHandler
text$x	ENDS
??HATL@@YA?AV?$CStringT@DV?$StrTraitMFC_DLL@DV?$ChTraitsCRT@D@ATL@@@@@0@PBDABV10@@Z ENDP ; ATL::operator+
EXTRN	__imp_?Compare@?$CStringT@DV?$StrTraitMFC_DLL@DV?$ChTraitsCRT@D@ATL@@@@@ATL@@QBEHPBD@Z:NEAR
; Function compile flags: /Odt /RTCsu
;	COMDAT ??8ATL@@YA_NABV?$CStringT@DV?$StrTraitMFC_DLL@DV?$ChTraitsCRT@D@ATL@@@@@0@PBD@Z
_TEXT	SEGMENT
_str1$ = 8						; size = 4
_psz2$ = 12						; size = 4
??8ATL@@YA_NABV?$CStringT@DV?$StrTraitMFC_DLL@DV?$ChTraitsCRT@D@ATL@@@@@0@PBD@Z PROC NEAR ; ATL::operator==, COMDAT

; 2087 : 	{

  00000	55		 push	 ebp
  00001	8b ec		 mov	 ebp, esp
  00003	56		 push	 esi

; 2088 : 		return( str1.Compare( psz2 ) == 0 );

  00004	8b f4		 mov	 esi, esp
  00006	8b 45 0c	 mov	 eax, DWORD PTR _psz2$[ebp]
  00009	50		 push	 eax
  0000a	8b 4d 08	 mov	 ecx, DWORD PTR _str1$[ebp]
  0000d	ff 15 00 00 00
	00		 call	 DWORD PTR __imp_?Compare@?$CStringT@DV?$StrTraitMFC_DLL@DV?$ChTraitsCRT@D@ATL@@@@@ATL@@QBEHPBD@Z
  00013	3b f4		 cmp	 esi, esp
  00015	e8 00 00 00 00	 call	 __RTC_CheckEsp
  0001a	f7 d8		 neg	 eax
  0001c	1b c0		 sbb	 eax, eax
  0001e	40		 inc	 eax

; 2089 : 	}

  0001f	5e		 pop	 esi
  00020	3b ec		 cmp	 ebp, esp
  00022	e8 00 00 00 00	 call	 __RTC_CheckEsp
  00027	5d		 pop	 ebp
  00028	c3		 ret	 0
??8ATL@@YA_NABV?$CStringT@DV?$StrTraitMFC_DLL@DV?$ChTraitsCRT@D@ATL@@@@@0@PBD@Z ENDP ; ATL::operator==
; Function compile flags: /Odt /RTCsu
_TEXT	ENDS
;	COMDAT ??9ATL@@YA_NABV?$CStringT@DV?$StrTraitMFC_DLL@DV?$ChTraitsCRT@D@ATL@@@@@0@PBD@Z
_TEXT	SEGMENT
_str1$ = 8						; size = 4
_psz2$ = 12						; size = 4
??9ATL@@YA_NABV?$CStringT@DV?$StrTraitMFC_DLL@DV?$ChTraitsCRT@D@ATL@@@@@0@PBD@Z PROC NEAR ; ATL::operator!=, COMDAT

; 2121 : 	{

  00000	55		 push	 ebp
  00001	8b ec		 mov	 ebp, esp
  00003	56		 push	 esi

; 2122 : 		return( str1.Compare( psz2 ) != 0 );

  00004	8b f4		 mov	 esi, esp
  00006	8b 45 0c	 mov	 eax, DWORD PTR _psz2$[ebp]
  00009	50		 push	 eax
  0000a	8b 4d 08	 mov	 ecx, DWORD PTR _str1$[ebp]
  0000d	ff 15 00 00 00
	00		 call	 DWORD PTR __imp_?Compare@?$CStringT@DV?$StrTraitMFC_DLL@DV?$ChTraitsCRT@D@ATL@@@@@ATL@@QBEHPBD@Z
  00013	3b f4		 cmp	 esi, esp
  00015	e8 00 00 00 00	 call	 __RTC_CheckEsp
  0001a	f7 d8		 neg	 eax
  0001c	1b c0		 sbb	 eax, eax
  0001e	f7 d8		 neg	 eax

; 2123 : 	}

  00020	5e		 pop	 esi
  00021	3b ec		 cmp	 ebp, esp
  00023	e8 00 00 00 00	 call	 __RTC_CheckEsp
  00028	5d		 pop	 ebp
  00029	c3		 ret	 0
??9ATL@@YA_NABV?$CStringT@DV?$StrTraitMFC_DLL@DV?$ChTraitsCRT@D@ATL@@@@@0@PBD@Z ENDP ; ATL::operator!=
; Function compile flags: /Odt /RTCsu
; File d:\program files (x86)\microsoft visual studio .net 2003\vc7\platformsdk\include\gdiplustypes.h
_TEXT	ENDS
;	COMDAT ??0RectF@Gdiplus@@QAE@XZ
_TEXT	SEGMENT
_this$ = -4						; size = 4
??0RectF@Gdiplus@@QAE@XZ PROC NEAR			; Gdiplus::RectF::RectF, COMDAT
; _this$ = ecx

; 334  :     RectF()

  00000	55		 push	 ebp
  00001	8b ec		 mov	 ebp, esp
  00003	51		 push	 ecx
  00004	c7 45 fc cc cc
	cc cc		 mov	 DWORD PTR [ebp-4], -858993460 ; ccccccccH
  0000b	89 4d fc	 mov	 DWORD PTR _this$[ebp], ecx

; 335  :     {
; 336  :         X = Y = Width = Height = 0.0f;

  0000e	8b 45 fc	 mov	 eax, DWORD PTR _this$[ebp]
  00011	c7 40 0c 00 00
	00 00		 mov	 DWORD PTR [eax+12], 0
  00018	8b 4d fc	 mov	 ecx, DWORD PTR _this$[ebp]
  0001b	c7 41 08 00 00
	00 00		 mov	 DWORD PTR [ecx+8], 0
  00022	8b 55 fc	 mov	 edx, DWORD PTR _this$[ebp]
  00025	c7 42 04 00 00
	00 00		 mov	 DWORD PTR [edx+4], 0
  0002c	8b 45 fc	 mov	 eax, DWORD PTR _this$[ebp]
  0002f	c7 00 00 00 00
	00		 mov	 DWORD PTR [eax], 0

; 337  :     }

  00035	8b 45 fc	 mov	 eax, DWORD PTR _this$[ebp]
  00038	8b e5		 mov	 esp, ebp
  0003a	5d		 pop	 ebp
  0003b	c3		 ret	 0
??0RectF@Gdiplus@@QAE@XZ ENDP				; Gdiplus::RectF::RectF
; Function compile flags: /Odt /RTCsu
_TEXT	ENDS
;	COMDAT ??0Rect@Gdiplus@@QAE@HHHH@Z
_TEXT	SEGMENT
_this$ = -4						; size = 4
_x$ = 8							; size = 4
_y$ = 12						; size = 4
_width$ = 16						; size = 4
_height$ = 20						; size = 4
??0Rect@Gdiplus@@QAE@HHHH@Z PROC NEAR			; Gdiplus::Rect::Rect, COMDAT
; _this$ = ecx

; 527  :     Rect(IN INT x,

  00000	55		 push	 ebp
  00001	8b ec		 mov	 ebp, esp
  00003	51		 push	 ecx
  00004	c7 45 fc cc cc
	cc cc		 mov	 DWORD PTR [ebp-4], -858993460 ; ccccccccH
  0000b	89 4d fc	 mov	 DWORD PTR _this$[ebp], ecx

; 528  :          IN INT y,
; 529  :          IN INT width,
; 530  :          IN INT height)
; 531  :     {
; 532  :         X = x;

  0000e	8b 45 fc	 mov	 eax, DWORD PTR _this$[ebp]
  00011	8b 4d 08	 mov	 ecx, DWORD PTR _x$[ebp]
  00014	89 08		 mov	 DWORD PTR [eax], ecx

; 533  :         Y = y;

  00016	8b 55 fc	 mov	 edx, DWORD PTR _this$[ebp]
  00019	8b 45 0c	 mov	 eax, DWORD PTR _y$[ebp]
  0001c	89 42 04	 mov	 DWORD PTR [edx+4], eax

; 534  :         Width = width;

  0001f	8b 4d fc	 mov	 ecx, DWORD PTR _this$[ebp]
  00022	8b 55 10	 mov	 edx, DWORD PTR _width$[ebp]
  00025	89 51 08	 mov	 DWORD PTR [ecx+8], edx

; 535  :         Height = height;

  00028	8b 45 fc	 mov	 eax, DWORD PTR _this$[ebp]
  0002b	8b 4d 14	 mov	 ecx, DWORD PTR _height$[ebp]
  0002e	89 48 0c	 mov	 DWORD PTR [eax+12], ecx

; 536  :     }

  00031	8b 45 fc	 mov	 eax, DWORD PTR _this$[ebp]
  00034	8b e5		 mov	 esp, ebp
  00036	5d		 pop	 ebp
  00037	c2 10 00	 ret	 16			; 00000010H
??0Rect@Gdiplus@@QAE@HHHH@Z ENDP			; Gdiplus::Rect::Rect
_TEXT	ENDS
PUBLIC	?SetNativeGraphics@Graphics@Gdiplus@@IAEXPAVGpGraphics@2@@Z ; Gdiplus::Graphics::SetNativeGraphics
EXTRN	_GdipCreateFromHDC@8:NEAR
; Function compile flags: /Odt /RTCsu
; File d:\program files (x86)\microsoft visual studio .net 2003\vc7\platformsdk\include\gdiplusgraphics.h
;	COMDAT ??0Graphics@Gdiplus@@QAE@PAUHDC__@@@Z
_TEXT	SEGMENT
_graphics$ = -12					; size = 4
_this$ = -4						; size = 4
_hdc$ = 8						; size = 4
??0Graphics@Gdiplus@@QAE@PAUHDC__@@@Z PROC NEAR		; Gdiplus::Graphics::Graphics, COMDAT
; _this$ = ecx

; 53   :     Graphics(IN HDC hdc)

  00000	55		 push	 ebp
  00001	8b ec		 mov	 ebp, esp
  00003	83 ec 10	 sub	 esp, 16			; 00000010H
  00006	b8 cc cc cc cc	 mov	 eax, -858993460		; ccccccccH
  0000b	89 45 f0	 mov	 DWORD PTR [ebp-16], eax
  0000e	89 45 f4	 mov	 DWORD PTR [ebp-12], eax
  00011	89 45 f8	 mov	 DWORD PTR [ebp-8], eax
  00014	89 45 fc	 mov	 DWORD PTR [ebp-4], eax
  00017	89 4d fc	 mov	 DWORD PTR _this$[ebp], ecx

; 54   :     {
; 55   :         GpGraphics *graphics = NULL;

  0001a	c7 45 f4 00 00
	00 00		 mov	 DWORD PTR _graphics$[ebp], 0

; 56   : 
; 57   :         lastResult = DllExports::GdipCreateFromHDC(hdc, &graphics);

  00021	8d 45 f4	 lea	 eax, DWORD PTR _graphics$[ebp]
  00024	50		 push	 eax
  00025	8b 4d 08	 mov	 ecx, DWORD PTR _hdc$[ebp]
  00028	51		 push	 ecx
  00029	e8 00 00 00 00	 call	 _GdipCreateFromHDC@8
  0002e	8b 55 fc	 mov	 edx, DWORD PTR _this$[ebp]
  00031	89 42 04	 mov	 DWORD PTR [edx+4], eax

; 58   : 
; 59   :         SetNativeGraphics(graphics);

  00034	8b 45 f4	 mov	 eax, DWORD PTR _graphics$[ebp]
  00037	50		 push	 eax
  00038	8b 4d fc	 mov	 ecx, DWORD PTR _this$[ebp]
  0003b	e8 00 00 00 00	 call	 ?SetNativeGraphics@Graphics@Gdiplus@@IAEXPAVGpGraphics@2@@Z ; Gdiplus::Graphics::SetNativeGraphics

; 60   :     }

  00040	8b 45 fc	 mov	 eax, DWORD PTR _this$[ebp]
  00043	52		 push	 edx
  00044	8b cd		 mov	 ecx, ebp
  00046	50		 push	 eax
  00047	8d 15 00 00 00
	00		 lea	 edx, DWORD PTR $L189908
  0004d	e8 00 00 00 00	 call	 @_RTC_CheckStackVars@8
  00052	58		 pop	 eax
  00053	5a		 pop	 edx
  00054	83 c4 10	 add	 esp, 16			; 00000010H
  00057	3b ec		 cmp	 ebp, esp
  00059	e8 00 00 00 00	 call	 __RTC_CheckEsp
  0005e	8b e5		 mov	 esp, ebp
  00060	5d		 pop	 ebp
  00061	c2 04 00	 ret	 4
$L189908:
  00064	01 00 00 00	 DD	 1
  00068	00 00 00 00	 DD	 $L189907
$L189907:
  0006c	f4 ff ff ff	 DD	 -12			; fffffff4H
  00070	04 00 00 00	 DD	 4
  00074	00 00 00 00	 DD	 $L189906
$L189906:
  00078	67		 DB	 103			; 00000067H
  00079	72		 DB	 114			; 00000072H
  0007a	61		 DB	 97			; 00000061H
  0007b	70		 DB	 112			; 00000070H
  0007c	68		 DB	 104			; 00000068H
  0007d	69		 DB	 105			; 00000069H
  0007e	63		 DB	 99			; 00000063H
  0007f	73		 DB	 115			; 00000073H
  00080	00		 DB	 0
??0Graphics@Gdiplus@@QAE@PAUHDC__@@@Z ENDP		; Gdiplus::Graphics::Graphics
_TEXT	ENDS
EXTRN	_GdipDeleteGraphics@4:NEAR
; Function compile flags: /Odt /RTCsu
;	COMDAT ??1Graphics@Gdiplus@@QAE@XZ
_TEXT	SEGMENT
_this$ = -4						; size = 4
??1Graphics@Gdiplus@@QAE@XZ PROC NEAR			; Gdiplus::Graphics::~Graphics, COMDAT
; _this$ = ecx

; 102  :     {

  00000	55		 push	 ebp
  00001	8b ec		 mov	 ebp, esp
  00003	51		 push	 ecx
  00004	c7 45 fc cc cc
	cc cc		 mov	 DWORD PTR [ebp-4], -858993460 ; ccccccccH
  0000b	89 4d fc	 mov	 DWORD PTR _this$[ebp], ecx

; 103  :         DllExports::GdipDeleteGraphics(nativeGraphics);

  0000e	8b 45 fc	 mov	 eax, DWORD PTR _this$[ebp]
  00011	8b 08		 mov	 ecx, DWORD PTR [eax]
  00013	51		 push	 ecx
  00014	e8 00 00 00 00	 call	 _GdipDeleteGraphics@4

; 104  :     }

  00019	83 c4 04	 add	 esp, 4
  0001c	3b ec		 cmp	 ebp, esp
  0001e	e8 00 00 00 00	 call	 __RTC_CheckEsp
  00023	8b e5		 mov	 esp, ebp
  00025	5d		 pop	 ebp
  00026	c3		 ret	 0
??1Graphics@Gdiplus@@QAE@XZ ENDP			; Gdiplus::Graphics::~Graphics
_TEXT	ENDS
PUBLIC	?SetStatus@Graphics@Gdiplus@@IBE?AW4Status@2@W432@@Z ; Gdiplus::Graphics::SetStatus
EXTRN	_GdipReleaseDC@8:NEAR
; Function compile flags: /Odt /RTCsu
;	COMDAT ?ReleaseHDC@Graphics@Gdiplus@@QAEXPAUHDC__@@@Z
_TEXT	SEGMENT
_this$ = -4						; size = 4
_hdc$ = 8						; size = 4
?ReleaseHDC@Graphics@Gdiplus@@QAEXPAUHDC__@@@Z PROC NEAR ; Gdiplus::Graphics::ReleaseHDC, COMDAT
; _this$ = ecx

; 127  :     {

  00000	55		 push	 ebp
  00001	8b ec		 mov	 ebp, esp
  00003	51		 push	 ecx
  00004	c7 45 fc cc cc
	cc cc		 mov	 DWORD PTR [ebp-4], -858993460 ; ccccccccH
  0000b	89 4d fc	 mov	 DWORD PTR _this$[ebp], ecx

; 128  :         SetStatus(DllExports::GdipReleaseDC(nativeGraphics, hdc));

  0000e	8b 45 08	 mov	 eax, DWORD PTR _hdc$[ebp]
  00011	50		 push	 eax
  00012	8b 4d fc	 mov	 ecx, DWORD PTR _this$[ebp]
  00015	8b 11		 mov	 edx, DWORD PTR [ecx]
  00017	52		 push	 edx
  00018	e8 00 00 00 00	 call	 _GdipReleaseDC@8
  0001d	50		 push	 eax
  0001e	8b 4d fc	 mov	 ecx, DWORD PTR _this$[ebp]
  00021	e8 00 00 00 00	 call	 ?SetStatus@Graphics@Gdiplus@@IBE?AW4Status@2@W432@@Z ; Gdiplus::Graphics::SetStatus

; 129  :     }

  00026	83 c4 04	 add	 esp, 4
  00029	3b ec		 cmp	 ebp, esp
  0002b	e8 00 00 00 00	 call	 __RTC_CheckEsp
  00030	8b e5		 mov	 esp, ebp
  00032	5d		 pop	 ebp
  00033	c2 04 00	 ret	 4
?ReleaseHDC@Graphics@Gdiplus@@QAEXPAUHDC__@@@Z ENDP	; Gdiplus::Graphics::ReleaseHDC
_TEXT	ENDS
PUBLIC	?DrawImage@Graphics@Gdiplus@@QAE?AW4Status@2@PAVImage@2@MMMM@Z ; Gdiplus::Graphics::DrawImage
; Function compile flags: /Odt /RTCsu
;	COMDAT ?DrawImage@Graphics@Gdiplus@@QAE?AW4Status@2@PAVImage@2@ABVRectF@2@@Z
_TEXT	SEGMENT
_this$ = -4						; size = 4
_image$ = 8						; size = 4
_rect$ = 12						; size = 4
?DrawImage@Graphics@Gdiplus@@QAE?AW4Status@2@PAVImage@2@ABVRectF@2@@Z PROC NEAR ; Gdiplus::Graphics::DrawImage, COMDAT
; _this$ = ecx

; 1508 :     {

  00000	55		 push	 ebp
  00001	8b ec		 mov	 ebp, esp
  00003	51		 push	 ecx
  00004	c7 45 fc cc cc
	cc cc		 mov	 DWORD PTR [ebp-4], -858993460 ; ccccccccH
  0000b	89 4d fc	 mov	 DWORD PTR _this$[ebp], ecx

; 1509 :         return DrawImage(image, rect.X, rect.Y, rect.Width, rect.Height);

  0000e	8b 45 0c	 mov	 eax, DWORD PTR _rect$[ebp]
  00011	8b 48 0c	 mov	 ecx, DWORD PTR [eax+12]
  00014	51		 push	 ecx
  00015	8b 55 0c	 mov	 edx, DWORD PTR _rect$[ebp]
  00018	8b 42 08	 mov	 eax, DWORD PTR [edx+8]
  0001b	50		 push	 eax
  0001c	8b 4d 0c	 mov	 ecx, DWORD PTR _rect$[ebp]
  0001f	8b 51 04	 mov	 edx, DWORD PTR [ecx+4]
  00022	52		 push	 edx
  00023	8b 45 0c	 mov	 eax, DWORD PTR _rect$[ebp]
  00026	8b 08		 mov	 ecx, DWORD PTR [eax]
  00028	51		 push	 ecx
  00029	8b 55 08	 mov	 edx, DWORD PTR _image$[ebp]
  0002c	52		 push	 edx
  0002d	8b 4d fc	 mov	 ecx, DWORD PTR _this$[ebp]
  00030	e8 00 00 00 00	 call	 ?DrawImage@Graphics@Gdiplus@@QAE?AW4Status@2@PAVImage@2@MMMM@Z ; Gdiplus::Graphics::DrawImage

; 1510 :     }

  00035	83 c4 04	 add	 esp, 4
  00038	3b ec		 cmp	 ebp, esp
  0003a	e8 00 00 00 00	 call	 __RTC_CheckEsp
  0003f	8b e5		 mov	 esp, ebp
  00041	5d		 pop	 ebp
  00042	c2 08 00	 ret	 8
?DrawImage@Graphics@Gdiplus@@QAE?AW4Status@2@PAVImage@2@ABVRectF@2@@Z ENDP ; Gdiplus::Graphics::DrawImage
_TEXT	ENDS
EXTRN	_GdipDrawImageRect@24:NEAR
; Function compile flags: /Odt /RTCsu
;	COMDAT ?DrawImage@Graphics@Gdiplus@@QAE?AW4Status@2@PAVImage@2@MMMM@Z
_TEXT	SEGMENT
tv73 = -8						; size = 4
_this$ = -4						; size = 4
_image$ = 8						; size = 4
_x$ = 12						; size = 4
_y$ = 16						; size = 4
_width$ = 20						; size = 4
_height$ = 24						; size = 4
?DrawImage@Graphics@Gdiplus@@QAE?AW4Status@2@PAVImage@2@MMMM@Z PROC NEAR ; Gdiplus::Graphics::DrawImage, COMDAT
; _this$ = ecx

; 1517 :     {

  00000	55		 push	 ebp
  00001	8b ec		 mov	 ebp, esp
  00003	83 ec 08	 sub	 esp, 8
  00006	c7 45 f8 cc cc
	cc cc		 mov	 DWORD PTR [ebp-8], -858993460 ; ccccccccH
  0000d	c7 45 fc cc cc
	cc cc		 mov	 DWORD PTR [ebp-4], -858993460 ; ccccccccH
  00014	89 4d fc	 mov	 DWORD PTR _this$[ebp], ecx

; 1518 :         return SetStatus(DllExports::GdipDrawImageRect(nativeGraphics,
; 1519 :                                                        image ? image->nativeImage
; 1520 :                                                              : NULL,
; 1521 :                                                        x,
; 1522 :                                                        y,
; 1523 :                                                        width,
; 1524 :                                                        height));

  00017	83 7d 08 00	 cmp	 DWORD PTR _image$[ebp], 0
  0001b	74 0b		 je	 SHORT $L189913
  0001d	8b 45 08	 mov	 eax, DWORD PTR _image$[ebp]
  00020	8b 48 04	 mov	 ecx, DWORD PTR [eax+4]
  00023	89 4d f8	 mov	 DWORD PTR tv73[ebp], ecx
  00026	eb 07		 jmp	 SHORT $L189914
$L189913:
  00028	c7 45 f8 00 00
	00 00		 mov	 DWORD PTR tv73[ebp], 0
$L189914:
  0002f	8b 55 18	 mov	 edx, DWORD PTR _height$[ebp]
  00032	52		 push	 edx
  00033	8b 45 14	 mov	 eax, DWORD PTR _width$[ebp]
  00036	50		 push	 eax
  00037	8b 4d 10	 mov	 ecx, DWORD PTR _y$[ebp]
  0003a	51		 push	 ecx
  0003b	8b 55 0c	 mov	 edx, DWORD PTR _x$[ebp]
  0003e	52		 push	 edx
  0003f	8b 45 f8	 mov	 eax, DWORD PTR tv73[ebp]
  00042	50		 push	 eax
  00043	8b 4d fc	 mov	 ecx, DWORD PTR _this$[ebp]
  00046	8b 11		 mov	 edx, DWORD PTR [ecx]
  00048	52		 push	 edx
  00049	e8 00 00 00 00	 call	 _GdipDrawImageRect@24
  0004e	50		 push	 eax
  0004f	8b 4d fc	 mov	 ecx, DWORD PTR _this$[ebp]
  00052	e8 00 00 00 00	 call	 ?SetStatus@Graphics@Gdiplus@@IBE?AW4Status@2@W432@@Z ; Gdiplus::Graphics::SetStatus

; 1525 :     }

  00057	83 c4 08	 add	 esp, 8
  0005a	3b ec		 cmp	 ebp, esp
  0005c	e8 00 00 00 00	 call	 __RTC_CheckEsp
  00061	8b e5		 mov	 esp, ebp
  00063	5d		 pop	 ebp
  00064	c2 14 00	 ret	 20			; 00000014H
?DrawImage@Graphics@Gdiplus@@QAE?AW4Status@2@PAVImage@2@MMMM@Z ENDP ; Gdiplus::Graphics::DrawImage
_TEXT	ENDS
EXTRN	_GdipDrawImageRectRectI@56:NEAR
; Function compile flags: /Odt /RTCsu
;	COMDAT ?DrawImage@Graphics@Gdiplus@@QAE?AW4Status@2@PAVImage@2@ABVRect@2@HHHHW4Unit@2@PBVImageAttributes@2@P6GHPAX@Z4@Z
_TEXT	SEGMENT
tv86 = -12						; size = 4
tv70 = -8						; size = 4
_this$ = -4						; size = 4
_image$ = 8						; size = 4
_destRect$ = 12						; size = 4
_srcx$ = 16						; size = 4
_srcy$ = 20						; size = 4
_srcwidth$ = 24						; size = 4
_srcheight$ = 28					; size = 4
_srcUnit$ = 32						; size = 4
_imageAttributes$ = 36					; size = 4
_callback$ = 40						; size = 4
_callbackData$ = 44					; size = 4
?DrawImage@Graphics@Gdiplus@@QAE?AW4Status@2@PAVImage@2@ABVRect@2@HHHHW4Unit@2@PBVImageAttributes@2@P6GHPAX@Z4@Z PROC NEAR ; Gdiplus::Graphics::DrawImage, COMDAT
; _this$ = ecx

; 1707 :     {

  00000	55		 push	 ebp
  00001	8b ec		 mov	 ebp, esp
  00003	83 ec 0c	 sub	 esp, 12			; 0000000cH
  00006	c7 45 f4 cc cc
	cc cc		 mov	 DWORD PTR [ebp-12], -858993460 ; ccccccccH
  0000d	c7 45 f8 cc cc
	cc cc		 mov	 DWORD PTR [ebp-8], -858993460 ; ccccccccH
  00014	c7 45 fc cc cc
	cc cc		 mov	 DWORD PTR [ebp-4], -858993460 ; ccccccccH
  0001b	89 4d fc	 mov	 DWORD PTR _this$[ebp], ecx

; 1708 :         return SetStatus(DllExports::GdipDrawImageRectRectI(nativeGraphics,
; 1709 :                                                             image ? image->nativeImage
; 1710 :                                                                   : NULL,
; 1711 :                                                             destRect.X,
; 1712 :                                                             destRect.Y,
; 1713 :                                                             destRect.Width,
; 1714 :                                                             destRect.Height,
; 1715 :                                                             srcx,
; 1716 :                                                             srcy,
; 1717 :                                                             srcwidth,
; 1718 :                                                             srcheight,
; 1719 :                                                             srcUnit,
; 1720 :                                                             imageAttributes
; 1721 :                                                             ? imageAttributes->nativeImageAttr
; 1722 :                                                             : NULL,
; 1723 :                                                             callback,
; 1724 :                                                             callbackData));

  0001e	83 7d 24 00	 cmp	 DWORD PTR _imageAttributes$[ebp], 0
  00022	74 0a		 je	 SHORT $L189916
  00024	8b 45 24	 mov	 eax, DWORD PTR _imageAttributes$[ebp]
  00027	8b 08		 mov	 ecx, DWORD PTR [eax]
  00029	89 4d f8	 mov	 DWORD PTR tv70[ebp], ecx
  0002c	eb 07		 jmp	 SHORT $L189917
$L189916:
  0002e	c7 45 f8 00 00
	00 00		 mov	 DWORD PTR tv70[ebp], 0
$L189917:
  00035	83 7d 08 00	 cmp	 DWORD PTR _image$[ebp], 0
  00039	74 0b		 je	 SHORT $L189918
  0003b	8b 55 08	 mov	 edx, DWORD PTR _image$[ebp]
  0003e	8b 42 04	 mov	 eax, DWORD PTR [edx+4]
  00041	89 45 f4	 mov	 DWORD PTR tv86[ebp], eax
  00044	eb 07		 jmp	 SHORT $L189919
$L189918:
  00046	c7 45 f4 00 00
	00 00		 mov	 DWORD PTR tv86[ebp], 0
$L189919:
  0004d	8b 4d 2c	 mov	 ecx, DWORD PTR _callbackData$[ebp]
  00050	51		 push	 ecx
  00051	8b 55 28	 mov	 edx, DWORD PTR _callback$[ebp]
  00054	52		 push	 edx
  00055	8b 45 f8	 mov	 eax, DWORD PTR tv70[ebp]
  00058	50		 push	 eax
  00059	8b 4d 20	 mov	 ecx, DWORD PTR _srcUnit$[ebp]
  0005c	51		 push	 ecx
  0005d	8b 55 1c	 mov	 edx, DWORD PTR _srcheight$[ebp]
  00060	52		 push	 edx
  00061	8b 45 18	 mov	 eax, DWORD PTR _srcwidth$[ebp]
  00064	50		 push	 eax
  00065	8b 4d 14	 mov	 ecx, DWORD PTR _srcy$[ebp]
  00068	51		 push	 ecx
  00069	8b 55 10	 mov	 edx, DWORD PTR _srcx$[ebp]
  0006c	52		 push	 edx
  0006d	8b 45 0c	 mov	 eax, DWORD PTR _destRect$[ebp]
  00070	8b 48 0c	 mov	 ecx, DWORD PTR [eax+12]
  00073	51		 push	 ecx
  00074	8b 55 0c	 mov	 edx, DWORD PTR _destRect$[ebp]
  00077	8b 42 08	 mov	 eax, DWORD PTR [edx+8]
  0007a	50		 push	 eax
  0007b	8b 4d 0c	 mov	 ecx, DWORD PTR _destRect$[ebp]
  0007e	8b 51 04	 mov	 edx, DWORD PTR [ecx+4]
  00081	52		 push	 edx
  00082	8b 45 0c	 mov	 eax, DWORD PTR _destRect$[ebp]
  00085	8b 08		 mov	 ecx, DWORD PTR [eax]
  00087	51		 push	 ecx
  00088	8b 55 f4	 mov	 edx, DWORD PTR tv86[ebp]
  0008b	52		 push	 edx
  0008c	8b 45 fc	 mov	 eax, DWORD PTR _this$[ebp]
  0008f	8b 08		 mov	 ecx, DWORD PTR [eax]
  00091	51		 push	 ecx
  00092	e8 00 00 00 00	 call	 _GdipDrawImageRectRectI@56
  00097	50		 push	 eax
  00098	8b 4d fc	 mov	 ecx, DWORD PTR _this$[ebp]
  0009b	e8 00 00 00 00	 call	 ?SetStatus@Graphics@Gdiplus@@IBE?AW4Status@2@W432@@Z ; Gdiplus::Graphics::SetStatus

; 1725 :     }

  000a0	83 c4 0c	 add	 esp, 12			; 0000000cH
  000a3	3b ec		 cmp	 ebp, esp
  000a5	e8 00 00 00 00	 call	 __RTC_CheckEsp
  000aa	8b e5		 mov	 esp, ebp
  000ac	5d		 pop	 ebp
  000ad	c2 28 00	 ret	 40			; 00000028H
?DrawImage@Graphics@Gdiplus@@QAE?AW4Status@2@PAVImage@2@ABVRect@2@HHHHW4Unit@2@PBVImageAttributes@2@P6GHPAX@Z4@Z ENDP ; Gdiplus::Graphics::DrawImage
; Function compile flags: /Odt /RTCsu
_TEXT	ENDS
;	COMDAT ?SetNativeGraphics@Graphics@Gdiplus@@IAEXPAVGpGraphics@2@@Z
_TEXT	SEGMENT
_this$ = -4						; size = 4
_graphics$ = 8						; size = 4
?SetNativeGraphics@Graphics@Gdiplus@@IAEXPAVGpGraphics@2@@Z PROC NEAR ; Gdiplus::Graphics::SetNativeGraphics, COMDAT
; _this$ = ecx

; 2339 :     {

  00000	55		 push	 ebp
  00001	8b ec		 mov	 ebp, esp
  00003	51		 push	 ecx
  00004	c7 45 fc cc cc
	cc cc		 mov	 DWORD PTR [ebp-4], -858993460 ; ccccccccH
  0000b	89 4d fc	 mov	 DWORD PTR _this$[ebp], ecx

; 2340 :         this->nativeGraphics = graphics;

  0000e	8b 45 fc	 mov	 eax, DWORD PTR _this$[ebp]
  00011	8b 4d 08	 mov	 ecx, DWORD PTR _graphics$[ebp]
  00014	89 08		 mov	 DWORD PTR [eax], ecx

; 2341 :     }

  00016	8b e5		 mov	 esp, ebp
  00018	5d		 pop	 ebp
  00019	c2 04 00	 ret	 4
?SetNativeGraphics@Graphics@Gdiplus@@IAEXPAVGpGraphics@2@@Z ENDP ; Gdiplus::Graphics::SetNativeGraphics
; Function compile flags: /Odt /RTCsu
_TEXT	ENDS
;	COMDAT ?SetStatus@Graphics@Gdiplus@@IBE?AW4Status@2@W432@@Z
_TEXT	SEGMENT
_this$ = -4						; size = 4
_status$ = 8						; size = 4
?SetStatus@Graphics@Gdiplus@@IBE?AW4Status@2@W432@@Z PROC NEAR ; Gdiplus::Graphics::SetStatus, COMDAT
; _this$ = ecx

; 2344 :     {

  00000	55		 push	 ebp
  00001	8b ec		 mov	 ebp, esp
  00003	51		 push	 ecx
  00004	c7 45 fc cc cc
	cc cc		 mov	 DWORD PTR [ebp-4], -858993460 ; ccccccccH
  0000b	89 4d fc	 mov	 DWORD PTR _this$[ebp], ecx

; 2345 :         if (status != Ok)

  0000e	83 7d 08 00	 cmp	 DWORD PTR _status$[ebp], 0
  00012	74 0e		 je	 SHORT $L116181

; 2346 :             return (lastResult = status);

  00014	8b 45 fc	 mov	 eax, DWORD PTR _this$[ebp]
  00017	8b 4d 08	 mov	 ecx, DWORD PTR _status$[ebp]
  0001a	89 48 04	 mov	 DWORD PTR [eax+4], ecx
  0001d	8b 45 08	 mov	 eax, DWORD PTR _status$[ebp]
  00020	eb 03		 jmp	 SHORT $L116180
$L116181:

; 2347 :         else
; 2348 :             return status;

  00022	8b 45 08	 mov	 eax, DWORD PTR _status$[ebp]
$L116180:

; 2349 :     }

  00025	8b e5		 mov	 esp, ebp
  00027	5d		 pop	 ebp
  00028	c2 04 00	 ret	 4
?SetStatus@Graphics@Gdiplus@@IBE?AW4Status@2@W432@@Z ENDP ; Gdiplus::Graphics::SetStatus
_TEXT	ENDS
PUBLIC	?SetStatus@Image@Gdiplus@@IBE?AW4Status@2@W432@@Z ; Gdiplus::Image::SetStatus
EXTRN	_GdipGetImageWidth@8:NEAR
; Function compile flags: /Odt /RTCsu
; File d:\program files (x86)\microsoft visual studio .net 2003\vc7\platformsdk\include\gdiplusbitmap.h
;	COMDAT ?GetWidth@Image@Gdiplus@@QAEIXZ
_TEXT	SEGMENT
_width$ = -12						; size = 4
_this$ = -4						; size = 4
?GetWidth@Image@Gdiplus@@QAEIXZ PROC NEAR		; Gdiplus::Image::GetWidth, COMDAT
; _this$ = ecx

; 225  : {

  00000	55		 push	 ebp
  00001	8b ec		 mov	 ebp, esp
  00003	83 ec 10	 sub	 esp, 16			; 00000010H
  00006	b8 cc cc cc cc	 mov	 eax, -858993460		; ccccccccH
  0000b	89 45 f0	 mov	 DWORD PTR [ebp-16], eax
  0000e	89 45 f4	 mov	 DWORD PTR [ebp-12], eax
  00011	89 45 f8	 mov	 DWORD PTR [ebp-8], eax
  00014	89 45 fc	 mov	 DWORD PTR [ebp-4], eax
  00017	89 4d fc	 mov	 DWORD PTR _this$[ebp], ecx

; 226  :     UINT width = 0;

  0001a	c7 45 f4 00 00
	00 00		 mov	 DWORD PTR _width$[ebp], 0

; 227  : 
; 228  :     SetStatus(DllExports::GdipGetImageWidth(nativeImage, &width));

  00021	8d 45 f4	 lea	 eax, DWORD PTR _width$[ebp]
  00024	50		 push	 eax
  00025	8b 4d fc	 mov	 ecx, DWORD PTR _this$[ebp]
  00028	8b 51 04	 mov	 edx, DWORD PTR [ecx+4]
  0002b	52		 push	 edx
  0002c	e8 00 00 00 00	 call	 _GdipGetImageWidth@8
  00031	50		 push	 eax
  00032	8b 4d fc	 mov	 ecx, DWORD PTR _this$[ebp]
  00035	e8 00 00 00 00	 call	 ?SetStatus@Image@Gdiplus@@IBE?AW4Status@2@W432@@Z ; Gdiplus::Image::SetStatus

; 229  : 
; 230  :     return width;

  0003a	8b 45 f4	 mov	 eax, DWORD PTR _width$[ebp]

; 231  : }

  0003d	52		 push	 edx
  0003e	8b cd		 mov	 ecx, ebp
  00040	50		 push	 eax
  00041	8d 15 00 00 00
	00		 lea	 edx, DWORD PTR $L189925
  00047	e8 00 00 00 00	 call	 @_RTC_CheckStackVars@8
  0004c	58		 pop	 eax
  0004d	5a		 pop	 edx
  0004e	83 c4 10	 add	 esp, 16			; 00000010H
  00051	3b ec		 cmp	 ebp, esp
  00053	e8 00 00 00 00	 call	 __RTC_CheckEsp
  00058	8b e5		 mov	 esp, ebp
  0005a	5d		 pop	 ebp
  0005b	c3		 ret	 0
$L189925:
  0005c	01 00 00 00	 DD	 1
  00060	00 00 00 00	 DD	 $L189924
$L189924:
  00064	f4 ff ff ff	 DD	 -12			; fffffff4H
  00068	04 00 00 00	 DD	 4
  0006c	00 00 00 00	 DD	 $L189923
$L189923:
  00070	77		 DB	 119			; 00000077H
  00071	69		 DB	 105			; 00000069H
  00072	64		 DB	 100			; 00000064H
  00073	74		 DB	 116			; 00000074H
  00074	68		 DB	 104			; 00000068H
  00075	00		 DB	 0
?GetWidth@Image@Gdiplus@@QAEIXZ ENDP			; Gdiplus::Image::GetWidth
; Function compile flags: /Odt /RTCsu
; File d:\program files (x86)\microsoft visual studio .net 2003\vc7\platformsdk\include\gdiplusheaders.h
_TEXT	ENDS
;	COMDAT ?SetStatus@Image@Gdiplus@@IBE?AW4Status@2@W432@@Z
_TEXT	SEGMENT
_this$ = -4						; size = 4
_status$ = 8						; size = 4
?SetStatus@Image@Gdiplus@@IBE?AW4Status@2@W432@@Z PROC NEAR ; Gdiplus::Image::SetStatus, COMDAT
; _this$ = ecx

; 472  :     {

  00000	55		 push	 ebp
  00001	8b ec		 mov	 ebp, esp
  00003	51		 push	 ecx
  00004	c7 45 fc cc cc
	cc cc		 mov	 DWORD PTR [ebp-4], -858993460 ; ccccccccH
  0000b	89 4d fc	 mov	 DWORD PTR _this$[ebp], ecx

; 473  :         if (status != Ok)

  0000e	83 7d 08 00	 cmp	 DWORD PTR _status$[ebp], 0
  00012	74 0e		 je	 SHORT $L109523

; 474  :             return (lastResult = status);

  00014	8b 45 fc	 mov	 eax, DWORD PTR _this$[ebp]
  00017	8b 4d 08	 mov	 ecx, DWORD PTR _status$[ebp]
  0001a	89 48 08	 mov	 DWORD PTR [eax+8], ecx
  0001d	8b 45 08	 mov	 eax, DWORD PTR _status$[ebp]
  00020	eb 03		 jmp	 SHORT $L109522
$L109523:

; 475  :         else
; 476  :             return status;

  00022	8b 45 08	 mov	 eax, DWORD PTR _status$[ebp]
$L109522:

; 477  :     }

  00025	8b e5		 mov	 esp, ebp
  00027	5d		 pop	 ebp
  00028	c2 04 00	 ret	 4
?SetStatus@Image@Gdiplus@@IBE?AW4Status@2@W432@@Z ENDP	; Gdiplus::Image::SetStatus
_TEXT	ENDS
EXTRN	_GdipGetImageHeight@8:NEAR
; Function compile flags: /Odt /RTCsu
; File d:\program files (x86)\microsoft visual studio .net 2003\vc7\platformsdk\include\gdiplusbitmap.h
;	COMDAT ?GetHeight@Image@Gdiplus@@QAEIXZ
_TEXT	SEGMENT
_height$ = -12						; size = 4
_this$ = -4						; size = 4
?GetHeight@Image@Gdiplus@@QAEIXZ PROC NEAR		; Gdiplus::Image::GetHeight, COMDAT
; _this$ = ecx

; 235  : {

  00000	55		 push	 ebp
  00001	8b ec		 mov	 ebp, esp
  00003	83 ec 10	 sub	 esp, 16			; 00000010H
  00006	b8 cc cc cc cc	 mov	 eax, -858993460		; ccccccccH
  0000b	89 45 f0	 mov	 DWORD PTR [ebp-16], eax
  0000e	89 45 f4	 mov	 DWORD PTR [ebp-12], eax
  00011	89 45 f8	 mov	 DWORD PTR [ebp-8], eax
  00014	89 45 fc	 mov	 DWORD PTR [ebp-4], eax
  00017	89 4d fc	 mov	 DWORD PTR _this$[ebp], ecx

; 236  :     UINT height = 0;

  0001a	c7 45 f4 00 00
	00 00		 mov	 DWORD PTR _height$[ebp], 0

; 237  : 
; 238  :     SetStatus(DllExports::GdipGetImageHeight(nativeImage, &height));

  00021	8d 45 f4	 lea	 eax, DWORD PTR _height$[ebp]
  00024	50		 push	 eax
  00025	8b 4d fc	 mov	 ecx, DWORD PTR _this$[ebp]
  00028	8b 51 04	 mov	 edx, DWORD PTR [ecx+4]
  0002b	52		 push	 edx
  0002c	e8 00 00 00 00	 call	 _GdipGetImageHeight@8
  00031	50		 push	 eax
  00032	8b 4d fc	 mov	 ecx, DWORD PTR _this$[ebp]
  00035	e8 00 00 00 00	 call	 ?SetStatus@Image@Gdiplus@@IBE?AW4Status@2@W432@@Z ; Gdiplus::Image::SetStatus

; 239  : 
; 240  :     return height;

  0003a	8b 45 f4	 mov	 eax, DWORD PTR _height$[ebp]

; 241  : }

  0003d	52		 push	 edx
  0003e	8b cd		 mov	 ecx, ebp
  00040	50		 push	 eax
  00041	8d 15 00 00 00
	00		 lea	 edx, DWORD PTR $L189930
  00047	e8 00 00 00 00	 call	 @_RTC_CheckStackVars@8
  0004c	58		 pop	 eax
  0004d	5a		 pop	 edx
  0004e	83 c4 10	 add	 esp, 16			; 00000010H
  00051	3b ec		 cmp	 ebp, esp
  00053	e8 00 00 00 00	 call	 __RTC_CheckEsp
  00058	8b e5		 mov	 esp, ebp
  0005a	5d		 pop	 ebp
  0005b	c3		 ret	 0
$L189930:
  0005c	01 00 00 00	 DD	 1
  00060	00 00 00 00	 DD	 $L189929
$L189929:
  00064	f4 ff ff ff	 DD	 -12			; fffffff4H
  00068	04 00 00 00	 DD	 4
  0006c	00 00 00 00	 DD	 $L189928
$L189928:
  00070	68		 DB	 104			; 00000068H
  00071	65		 DB	 101			; 00000065H
  00072	69		 DB	 105			; 00000069H
  00073	67		 DB	 103			; 00000067H
  00074	68		 DB	 104			; 00000068H
  00075	74		 DB	 116			; 00000074H
  00076	00		 DB	 0
?GetHeight@Image@Gdiplus@@QAEIXZ ENDP			; Gdiplus::Image::GetHeight
; Function compile flags: /Odt /RTCsu
_TEXT	ENDS
;	COMDAT ?GetLastStatus@Image@Gdiplus@@QBE?AW4Status@2@XZ
_TEXT	SEGMENT
_lastStatus$ = -8					; size = 4
_this$ = -4						; size = 4
?GetLastStatus@Image@Gdiplus@@QBE?AW4Status@2@XZ PROC NEAR ; Gdiplus::Image::GetLastStatus, COMDAT
; _this$ = ecx

; 488  : {

  00000	55		 push	 ebp
  00001	8b ec		 mov	 ebp, esp
  00003	83 ec 08	 sub	 esp, 8
  00006	c7 45 f8 cc cc
	cc cc		 mov	 DWORD PTR [ebp-8], -858993460 ; ccccccccH
  0000d	c7 45 fc cc cc
	cc cc		 mov	 DWORD PTR [ebp-4], -858993460 ; ccccccccH
  00014	89 4d fc	 mov	 DWORD PTR _this$[ebp], ecx

; 489  :     Status lastStatus = lastResult;

  00017	8b 45 fc	 mov	 eax, DWORD PTR _this$[ebp]
  0001a	8b 48 08	 mov	 ecx, DWORD PTR [eax+8]
  0001d	89 4d f8	 mov	 DWORD PTR _lastStatus$[ebp], ecx

; 490  :     lastResult = Ok;

  00020	8b 55 fc	 mov	 edx, DWORD PTR _this$[ebp]
  00023	c7 42 08 00 00
	00 00		 mov	 DWORD PTR [edx+8], 0

; 491  : 
; 492  :     return lastStatus;

  0002a	8b 45 f8	 mov	 eax, DWORD PTR _lastStatus$[ebp]

; 493  : }

  0002d	8b e5		 mov	 esp, ebp
  0002f	5d		 pop	 ebp
  00030	c3		 ret	 0
?GetLastStatus@Image@Gdiplus@@QBE?AW4Status@2@XZ ENDP	; Gdiplus::Image::GetLastStatus
_TEXT	ENDS
PUBLIC	??3GdiplusBase@Gdiplus@@SAXPAX@Z		; Gdiplus::GdiplusBase::operator delete
PUBLIC	??2GdiplusBase@Gdiplus@@SAPAXI@Z		; Gdiplus::GdiplusBase::operator new
PUBLIC	??0Bitmap@Gdiplus@@QAE@PB_WH@Z			; Gdiplus::Bitmap::Bitmap
;	COMDAT xdata$x
xdata$x	SEGMENT
$T189941 DD	0ffffffffH
	DD	FLAT:$L189937
$T189939 DD	019930520H
	DD	01H
	DD	FLAT:$T189941
	DD	2 DUP(00H)
	DD	2 DUP(00H)
; Function compile flags: /Odt /RTCsu
xdata$x	ENDS
;	COMDAT ?FromFile@Bitmap@Gdiplus@@SAPAV12@PB_WH@Z
_TEXT	SEGMENT
tv73 = -24						; size = 4
$T189934 = -20						; size = 4
$T189933 = -16						; size = 4
__$EHRec$ = -12						; size = 12
_filename$ = 8						; size = 4
_useEmbeddedColorManagement$ = 12			; size = 4
?FromFile@Bitmap@Gdiplus@@SAPAV12@PB_WH@Z PROC NEAR	; Gdiplus::Bitmap::FromFile, COMDAT

; 678  : {

  00000	55		 push	 ebp
  00001	8b ec		 mov	 ebp, esp
  00003	6a ff		 push	 -1
  00005	68 00 00 00 00	 push	 __ehhandler$?FromFile@Bitmap@Gdiplus@@SAPAV12@PB_WH@Z
  0000a	64 a1 00 00 00
	00		 mov	 eax, DWORD PTR fs:__except_list
  00010	50		 push	 eax
  00011	64 89 25 00 00
	00 00		 mov	 DWORD PTR fs:__except_list, esp
  00018	83 ec 0c	 sub	 esp, 12			; 0000000cH
  0001b	c7 45 e8 cc cc
	cc cc		 mov	 DWORD PTR [ebp-24], -858993460 ; ccccccccH
  00022	c7 45 ec cc cc
	cc cc		 mov	 DWORD PTR [ebp-20], -858993460 ; ccccccccH
  00029	c7 45 f0 cc cc
	cc cc		 mov	 DWORD PTR [ebp-16], -858993460 ; ccccccccH

; 679  :     return new Bitmap(

  00030	6a 10		 push	 16			; 00000010H
  00032	e8 00 00 00 00	 call	 ??2GdiplusBase@Gdiplus@@SAPAXI@Z ; Gdiplus::GdiplusBase::operator new
  00037	83 c4 04	 add	 esp, 4
  0003a	89 45 ec	 mov	 DWORD PTR $T189934[ebp], eax
  0003d	c7 45 fc 00 00
	00 00		 mov	 DWORD PTR __$EHRec$[ebp+8], 0
  00044	83 7d ec 00	 cmp	 DWORD PTR $T189934[ebp], 0
  00048	74 15		 je	 SHORT $L189935
  0004a	8b 45 0c	 mov	 eax, DWORD PTR _useEmbeddedColorManagement$[ebp]
  0004d	50		 push	 eax
  0004e	8b 4d 08	 mov	 ecx, DWORD PTR _filename$[ebp]
  00051	51		 push	 ecx
  00052	8b 4d ec	 mov	 ecx, DWORD PTR $T189934[ebp]
  00055	e8 00 00 00 00	 call	 ??0Bitmap@Gdiplus@@QAE@PB_WH@Z ; Gdiplus::Bitmap::Bitmap
  0005a	89 45 e8	 mov	 DWORD PTR tv73[ebp], eax
  0005d	eb 07		 jmp	 SHORT $L189936
$L189935:
  0005f	c7 45 e8 00 00
	00 00		 mov	 DWORD PTR tv73[ebp], 0
$L189936:
  00066	8b 55 e8	 mov	 edx, DWORD PTR tv73[ebp]
  00069	89 55 f0	 mov	 DWORD PTR $T189933[ebp], edx
  0006c	c7 45 fc ff ff
	ff ff		 mov	 DWORD PTR __$EHRec$[ebp+8], -1
  00073	8b 45 f0	 mov	 eax, DWORD PTR $T189933[ebp]

; 680  :         filename, 
; 681  :         useEmbeddedColorManagement
; 682  :     );
; 683  : }

  00076	8b 4d f4	 mov	 ecx, DWORD PTR __$EHRec$[ebp]
  00079	64 89 0d 00 00
	00 00		 mov	 DWORD PTR fs:__except_list, ecx
  00080	83 c4 18	 add	 esp, 24			; 00000018H
  00083	3b ec		 cmp	 ebp, esp
  00085	e8 00 00 00 00	 call	 __RTC_CheckEsp
  0008a	8b e5		 mov	 esp, ebp
  0008c	5d		 pop	 ebp
  0008d	c3		 ret	 0
_TEXT	ENDS
;	COMDAT text$x
text$x	SEGMENT
$L189937:
  00000	8b 45 ec	 mov	 eax, DWORD PTR $T189934[ebp]
  00003	50		 push	 eax
  00004	e8 00 00 00 00	 call	 ??3GdiplusBase@Gdiplus@@SAXPAX@Z ; Gdiplus::GdiplusBase::operator delete
  00009	59		 pop	 ecx
  0000a	c3		 ret	 0
__ehhandler$?FromFile@Bitmap@Gdiplus@@SAPAV12@PB_WH@Z:
  0000b	b8 00 00 00 00	 mov	 eax, OFFSET FLAT:$T189939
  00010	e9 00 00 00 00	 jmp	 ___CxxFrameHandler
text$x	ENDS
?FromFile@Bitmap@Gdiplus@@SAPAV12@PB_WH@Z ENDP		; Gdiplus::Bitmap::FromFile
EXTRN	_GdipFree@4:NEAR
; Function compile flags: /Odt /RTCsu
; File d:\program files (x86)\microsoft visual studio .net 2003\vc7\platformsdk\include\gdiplusbase.h
;	COMDAT ??3GdiplusBase@Gdiplus@@SAXPAX@Z
_TEXT	SEGMENT
_in_pVoid$ = 8						; size = 4
??3GdiplusBase@Gdiplus@@SAXPAX@Z PROC NEAR		; Gdiplus::GdiplusBase::operator delete, COMDAT

; 22   :     {

  00000	55		 push	 ebp
  00001	8b ec		 mov	 ebp, esp

; 23   :        DllExports::GdipFree(in_pVoid);

  00003	8b 45 08	 mov	 eax, DWORD PTR _in_pVoid$[ebp]
  00006	50		 push	 eax
  00007	e8 00 00 00 00	 call	 _GdipFree@4

; 24   :     }

  0000c	3b ec		 cmp	 ebp, esp
  0000e	e8 00 00 00 00	 call	 __RTC_CheckEsp
  00013	5d		 pop	 ebp
  00014	c3		 ret	 0
??3GdiplusBase@Gdiplus@@SAXPAX@Z ENDP			; Gdiplus::GdiplusBase::operator delete
_TEXT	ENDS
EXTRN	_GdipAlloc@4:NEAR
; Function compile flags: /Odt /RTCsu
;	COMDAT ??2GdiplusBase@Gdiplus@@SAPAXI@Z
_TEXT	SEGMENT
_in_size$ = 8						; size = 4
??2GdiplusBase@Gdiplus@@SAPAXI@Z PROC NEAR		; Gdiplus::GdiplusBase::operator new, COMDAT

; 26   :     {

  00000	55		 push	 ebp
  00001	8b ec		 mov	 ebp, esp

; 27   :        return DllExports::GdipAlloc(in_size);

  00003	8b 45 08	 mov	 eax, DWORD PTR _in_size$[ebp]
  00006	50		 push	 eax
  00007	e8 00 00 00 00	 call	 _GdipAlloc@4

; 28   :     }

  0000c	3b ec		 cmp	 ebp, esp
  0000e	e8 00 00 00 00	 call	 __RTC_CheckEsp
  00013	5d		 pop	 ebp
  00014	c3		 ret	 0
??2GdiplusBase@Gdiplus@@SAPAXI@Z ENDP			; Gdiplus::GdiplusBase::operator new
_TEXT	ENDS
PUBLIC	??_7Bitmap@Gdiplus@@6B@				; Gdiplus::Bitmap::`vftable'
PUBLIC	??_GBitmap@Gdiplus@@UAEPAXI@Z			; Gdiplus::Bitmap::`scalar deleting destructor'
PUBLIC	??_R13?0A@A@GdiplusBase@Gdiplus@@8		; Gdiplus::GdiplusBase::`RTTI Base Class Descriptor at (4,-1,0,0)'
PUBLIC	??_R0?AVGdiplusBase@Gdiplus@@@8			; Gdiplus::GdiplusBase `RTTI Type Descriptor'
PUBLIC	??_R4Bitmap@Gdiplus@@6B@			; Gdiplus::Bitmap::`RTTI Complete Object Locator'
PUBLIC	??_R0?AVBitmap@Gdiplus@@@8			; Gdiplus::Bitmap `RTTI Type Descriptor'
PUBLIC	??_R3Bitmap@Gdiplus@@8				; Gdiplus::Bitmap::`RTTI Class Hierarchy Descriptor'
PUBLIC	??_R2Bitmap@Gdiplus@@8				; Gdiplus::Bitmap::`RTTI Base Class Array'
PUBLIC	??_R1A@?0A@A@Bitmap@Gdiplus@@8			; Gdiplus::Bitmap::`RTTI Base Class Descriptor at (0,-1,0,0)'
PUBLIC	??_R1A@?0A@A@Image@Gdiplus@@8			; Gdiplus::Image::`RTTI Base Class Descriptor at (0,-1,0,0)'
PUBLIC	??_R0?AVImage@Gdiplus@@@8			; Gdiplus::Image `RTTI Type Descriptor'
PUBLIC	??1Image@Gdiplus@@UAE@XZ			; Gdiplus::Image::~Image
PUBLIC	?Clone@Image@Gdiplus@@UAEPAV12@XZ		; Gdiplus::Image::Clone
PUBLIC	??0Image@Gdiplus@@IAE@XZ			; Gdiplus::Image::Image
PUBLIC	?SetNativeImage@Image@Gdiplus@@IAEXPAVGpImage@2@@Z ; Gdiplus::Image::SetNativeImage
EXTRN	??_EBitmap@Gdiplus@@UAEPAXI@Z:NEAR		; Gdiplus::Bitmap::`vector deleting destructor'
EXTRN	_GdipCreateBitmapFromFile@8:NEAR
EXTRN	_GdipCreateBitmapFromFileICM@8:NEAR
;	COMDAT xdata$x
; File d:\program files (x86)\microsoft visual studio .net 2003\vc7\platformsdk\include\gdiplusbitmap.h
xdata$x	SEGMENT
$T189954 DD	0ffffffffH
	DD	FLAT:$L189947
$T189949 DD	019930520H
	DD	01H
	DD	FLAT:$T189954
	DD	2 DUP(00H)
	DD	2 DUP(00H)
xdata$x	ENDS
;	COMDAT ??_7Bitmap@Gdiplus@@6B@
CONST	SEGMENT
??_7Bitmap@Gdiplus@@6B@ DD FLAT:??_R4Bitmap@Gdiplus@@6B@ ; Gdiplus::Bitmap::`vftable'
	DD	FLAT:??_EBitmap@Gdiplus@@UAEPAXI@Z
	DD	FLAT:?Clone@Image@Gdiplus@@UAEPAV12@XZ
CONST	ENDS
;	COMDAT ??_R4Bitmap@Gdiplus@@6B@
rdata$r	SEGMENT
??_R4Bitmap@Gdiplus@@6B@ DD 00H				; Gdiplus::Bitmap::`RTTI Complete Object Locator'
	DD	00H
	DD	00H
	DD	FLAT:??_R0?AVBitmap@Gdiplus@@@8
	DD	FLAT:??_R3Bitmap@Gdiplus@@8
rdata$r	ENDS
;	COMDAT ??_R0?AVBitmap@Gdiplus@@@8
_DATA	SEGMENT
??_R0?AVBitmap@Gdiplus@@@8 DD FLAT:??_7type_info@@6B@	; Gdiplus::Bitmap `RTTI Type Descriptor'
	DD	00H
	DB	'.?AVBitmap@Gdiplus@@', 00H
_DATA	ENDS
;	COMDAT ??_R3Bitmap@Gdiplus@@8
rdata$r	SEGMENT
