; Listing generated by Microsoft (R) Optimizing Compiler Version 13.10.3077 

	TITLE	.\src\module\TabMan\TabBarWnd.cpp
	.386P
include listing.inc
if @Version gt 510
.model FLAT
else
_TEXT	SEGMENT PARA USE32 PUBLIC 'CODE'
_TEXT	ENDS
_DATA	SEGMENT DWORD USE32 PUBLIC 'DATA'
_DATA	ENDS
CONST	SEGMENT DWORD USE32 PUBLIC 'CONST'
CONST	ENDS
_BSS	SEGMENT DWORD USE32 PUBLIC 'BSS'
_BSS	ENDS
$$SYMBOLS	SEGMENT BYTE USE32 'DEBSYM'
$$SYMBOLS	ENDS
_TLS	SEGMENT DWORD USE32 PUBLIC 'TLS'
_TLS	ENDS
;	COMDAT ??_C@_0EN@IBFBLEEG@D?3?2Program?5Files?5?$CIx86?$CJ?2Microsoft@
CONST	SEGMENT DWORD USE32 PUBLIC 'CONST'
CONST	ENDS
;	COMDAT ??_C@_0BD@OLBABOEK@vector?$DMT?$DO?5too?5long?$AA@
CONST	SEGMENT DWORD USE32 PUBLIC 'CONST'
CONST	ENDS
rdata$r	SEGMENT DWORD USE32 PUBLIC 'CONST'
rdata$r	ENDS
xdata$x	SEGMENT DWORD USE32 PUBLIC 'CONST'
xdata$x	ENDS
text$AFX_COL1	SEGMENT PARA USE32 PUBLIC ''
text$AFX_COL1	ENDS
text$yc	SEGMENT PARA USE32 PUBLIC 'CODE'
text$yc	ENDS
CRT$XCA	SEGMENT DWORD USE32 PUBLIC 'DATA'
CRT$XCA	ENDS
CRT$XCU	SEGMENT DWORD USE32 PUBLIC 'DATA'
CRT$XCU	ENDS
CRT$XCL	SEGMENT DWORD USE32 PUBLIC 'DATA'
CRT$XCL	ENDS
CRT$XCC	SEGMENT DWORD USE32 PUBLIC 'DATA'
CRT$XCC	ENDS
CRT$XCZ	SEGMENT DWORD USE32 PUBLIC 'DATA'
CRT$XCZ	ENDS
text$yd	SEGMENT PARA USE32 PUBLIC 'CODE'
text$yd	ENDS
ATL$__m	SEGMENT DWORD USE32 PUBLIC ''
ATL$__m	ENDS
ATL$__z	SEGMENT DWORD USE32 PUBLIC ''
ATL$__z	ENDS
ATL$__a	SEGMENT DWORD USE32 PUBLIC ''
ATL$__a	ENDS
;	COMDAT ??1IData@@MAE@XZ
_TEXT	SEGMENT PARA USE32 PUBLIC 'CODE'
_TEXT	ENDS
;	COMDAT ?DataAppStart@IData@@UAEXXZ
_TEXT	SEGMENT PARA USE32 PUBLIC 'CODE'
_TEXT	ENDS
;	COMDAT ?DataAppExit@IData@@UAEXXZ
_TEXT	SEGMENT PARA USE32 PUBLIC 'CODE'
_TEXT	ENDS
;	COMDAT ??_GIData@@MAEPAXI@Z
_TEXT	SEGMENT PARA USE32 PUBLIC 'CODE'
_TEXT	ENDS
;	COMDAT ?clear@OneLocalGame@@QAEXXZ
_TEXT	SEGMENT PARA USE32 PUBLIC 'CODE'
_TEXT	ENDS
;	COMDAT ??_GCTabBarWnd@@UAEPAXI@Z
_TEXT	SEGMENT PARA USE32 PUBLIC 'CODE'
_TEXT	ENDS
;	COMDAT ??0CBasicSkinWnd@@QAE@XZ
_TEXT	SEGMENT PARA USE32 PUBLIC 'CODE'
_TEXT	ENDS
;	COMDAT ??0ITabBarObserver@@QAE@XZ
_TEXT	SEGMENT PARA USE32 PUBLIC 'CODE'
_TEXT	ENDS
;	COMDAT ??1ITabBarObserver@@UAE@XZ
_TEXT	SEGMENT PARA USE32 PUBLIC 'CODE'
_TEXT	ENDS
;	COMDAT ??_GITabBarObserver@@UAEPAXI@Z
_TEXT	SEGMENT PARA USE32 PUBLIC 'CODE'
_TEXT	ENDS
;	COMDAT ??0IMessageObserver@@QAE@XZ
_TEXT	SEGMENT PARA USE32 PUBLIC 'CODE'
_TEXT	ENDS
;	COMDAT ??0TAB_ITEM@@QAE@ABU0@@Z
_TEXT	SEGMENT PARA USE32 PUBLIC 'CODE'
_TEXT	ENDS
;	COMDAT ??1TAB_ITEM@@QAE@XZ
_TEXT	SEGMENT PARA USE32 PUBLIC 'CODE'
_TEXT	ENDS
;	COMDAT ??0TAB_ITEM@@QAE@XZ
_TEXT	SEGMENT PARA USE32 PUBLIC 'CODE'
_TEXT	ENDS
;	COMDAT ??B?$CComPtrBase@UITypeInfo2@@@ATL@@QBEPAUITypeInfo2@@XZ
_TEXT	SEGMENT PARA USE32 PUBLIC 'CODE'
_TEXT	ENDS
;	COMDAT ?equal@?$istreambuf_iterator@DU?$char_traits@D@std@@@std@@QBE_NABV12@@Z
_TEXT	SEGMENT PARA USE32 PUBLIC 'CODE'
_TEXT	ENDS
;	COMDAT ?equal@?$istreambuf_iterator@_WU?$char_traits@_W@std@@@std@@QBE_NABV12@@Z
_TEXT	SEGMENT PARA USE32 PUBLIC 'CODE'
_TEXT	ENDS
;	COMDAT ??0?$vector@VCRect@@V?$allocator@VCRect@@@std@@@std@@QAE@XZ
_TEXT	SEGMENT PARA USE32 PUBLIC 'CODE'
_TEXT	ENDS
;	COMDAT ??1?$vector@VCRect@@V?$allocator@VCRect@@@std@@@std@@QAE@XZ
_TEXT	SEGMENT PARA USE32 PUBLIC 'CODE'
_TEXT	ENDS
;	COMDAT ?size@?$vector@VCRect@@V?$allocator@VCRect@@@std@@@std@@QBEIXZ
_TEXT	SEGMENT PARA USE32 PUBLIC 'CODE'
_TEXT	ENDS
;	COMDAT ??A?$vector@VCRect@@V?$allocator@VCRect@@@std@@@std@@QAEAAVCRect@@I@Z
_TEXT	SEGMENT PARA USE32 PUBLIC 'CODE'
_TEXT	ENDS
;	COMDAT ?push_back@?$vector@VCRect@@V?$allocator@VCRect@@@std@@@std@@QAEXABVCRect@@@Z
_TEXT	SEGMENT PARA USE32 PUBLIC 'CODE'
_TEXT	ENDS
;	COMDAT ?clear@?$vector@VCRect@@V?$allocator@VCRect@@@std@@@std@@QAEXXZ
_TEXT	SEGMENT PARA USE32 PUBLIC 'CODE'
_TEXT	ENDS
;	COMDAT ??0?$vector@UTAB_ITEM@@V?$allocator@UTAB_ITEM@@@std@@@std@@QAE@XZ
_TEXT	SEGMENT PARA USE32 PUBLIC 'CODE'
_TEXT	ENDS
;	COMDAT ??1?$vector@UTAB_ITEM@@V?$allocator@UTAB_ITEM@@@std@@@std@@QAE@XZ
_TEXT	SEGMENT PARA USE32 PUBLIC 'CODE'
_TEXT	ENDS
;	COMDAT ?size@?$vector@UTAB_ITEM@@V?$allocator@UTAB_ITEM@@@std@@@std@@QBEIXZ
_TEXT	SEGMENT PARA USE32 PUBLIC 'CODE'
_TEXT	ENDS
;	COMDAT ??A?$vector@UTAB_ITEM@@V?$allocator@UTAB_ITEM@@@std@@@std@@QAEAAUTAB_ITEM@@I@Z
_TEXT	SEGMENT PARA USE32 PUBLIC 'CODE'
_TEXT	ENDS
;	COMDAT ?clear@?$vector@UTAB_ITEM@@V?$allocator@UTAB_ITEM@@@std@@@std@@QAEXXZ
_TEXT	SEGMENT PARA USE32 PUBLIC 'CODE'
_TEXT	ENDS
;	COMDAT ?capacity@?$vector@VCRect@@V?$allocator@VCRect@@@std@@@std@@QBEIXZ
_TEXT	SEGMENT PARA USE32 PUBLIC 'CODE'
_TEXT	ENDS
;	COMDAT ?begin@?$vector@VCRect@@V?$allocator@VCRect@@@std@@@std@@QAE?AViterator@12@XZ
_TEXT	SEGMENT PARA USE32 PUBLIC 'CODE'
_TEXT	ENDS
;	COMDAT ?end@?$vector@VCRect@@V?$allocator@VCRect@@@std@@@std@@QAE?AViterator@12@XZ
_TEXT	SEGMENT PARA USE32 PUBLIC 'CODE'
_TEXT	ENDS
;	COMDAT ?insert@?$vector@VCRect@@V?$allocator@VCRect@@@std@@@std@@QAE?AViterator@12@V312@ABVCRect@@@Z
_TEXT	SEGMENT PARA USE32 PUBLIC 'CODE'
_TEXT	ENDS
;	COMDAT ?_Buy@?$vector@VCRect@@V?$allocator@VCRect@@@std@@@std@@IAE_NI@Z
_TEXT	SEGMENT PARA USE32 PUBLIC 'CODE'
_TEXT	ENDS
;	COMDAT ?_Tidy@?$vector@VCRect@@V?$allocator@VCRect@@@std@@@std@@IAEXXZ
_TEXT	SEGMENT PARA USE32 PUBLIC 'CODE'
_TEXT	ENDS
;	COMDAT ?_Ufill@?$vector@VCRect@@V?$allocator@VCRect@@@std@@@std@@IAEPAVCRect@@PAV3@IABV3@@Z
_TEXT	SEGMENT PARA USE32 PUBLIC 'CODE'
_TEXT	ENDS
;	COMDAT ??0?$_Vector_val@VCRect@@V?$allocator@VCRect@@@std@@@std@@IAE@V?$allocator@VCRect@@@1@@Z
_TEXT	SEGMENT PARA USE32 PUBLIC 'CODE'
_TEXT	ENDS
;	COMDAT ??0?$allocator@VCRect@@@std@@QAE@XZ
_TEXT	SEGMENT PARA USE32 PUBLIC 'CODE'
_TEXT	ENDS
;	COMDAT ?begin@?$vector@UTAB_ITEM@@V?$allocator@UTAB_ITEM@@@std@@@std@@QAE?AViterator@12@XZ
_TEXT	SEGMENT PARA USE32 PUBLIC 'CODE'
_TEXT	ENDS
;	COMDAT ?_Buy@?$vector@UTAB_ITEM@@V?$allocator@UTAB_ITEM@@@std@@@std@@IAE_NI@Z
_TEXT	SEGMENT PARA USE32 PUBLIC 'CODE'
_TEXT	ENDS
;	COMDAT ?_Tidy@?$vector@UTAB_ITEM@@V?$allocator@UTAB_ITEM@@@std@@@std@@IAEXXZ
_TEXT	SEGMENT PARA USE32 PUBLIC 'CODE'
_TEXT	ENDS
;	COMDAT ??0?$_Vector_val@UTAB_ITEM@@V?$allocator@UTAB_ITEM@@@std@@@std@@IAE@V?$allocator@UTAB_ITEM@@@1@@Z
_TEXT	SEGMENT PARA USE32 PUBLIC 'CODE'
_TEXT	ENDS
;	COMDAT ??0?$allocator@UTAB_ITEM@@@std@@QAE@XZ
_TEXT	SEGMENT PARA USE32 PUBLIC 'CODE'
_TEXT	ENDS
;	COMDAT ??Diterator@?$vector@VCRect@@V?$allocator@VCRect@@@std@@@std@@QBEAAVCRect@@XZ
_TEXT	SEGMENT PARA USE32 PUBLIC 'CODE'
_TEXT	ENDS
;	COMDAT ??Hiterator@?$vector@VCRect@@V?$allocator@VCRect@@@std@@@std@@QBE?AV012@H@Z
_TEXT	SEGMENT PARA USE32 PUBLIC 'CODE'
_TEXT	ENDS
;	COMDAT ??Diterator@?$vector@UTAB_ITEM@@V?$allocator@UTAB_ITEM@@@std@@@std@@QBEAAUTAB_ITEM@@XZ
_TEXT	SEGMENT PARA USE32 PUBLIC 'CODE'
_TEXT	ENDS
;	COMDAT ??Hiterator@?$vector@UTAB_ITEM@@V?$allocator@UTAB_ITEM@@@std@@@std@@QBE?AV012@H@Z
_TEXT	SEGMENT PARA USE32 PUBLIC 'CODE'
_TEXT	ENDS
;	COMDAT ??0iterator@?$basic_string@DU?$char_traits@D@std@@V?$allocator@D@2@@std@@QAE@PAD@Z
_TEXT	SEGMENT PARA USE32 PUBLIC 'CODE'
_TEXT	ENDS
;	COMDAT ?max_size@?$vector@VCRect@@V?$allocator@VCRect@@@std@@@std@@QBEIXZ
_TEXT	SEGMENT PARA USE32 PUBLIC 'CODE'
_TEXT	ENDS
;	COMDAT ?_Destroy@?$vector@VCRect@@V?$allocator@VCRect@@@std@@@std@@IAEXPAVCRect@@0@Z
_TEXT	SEGMENT PARA USE32 PUBLIC 'CODE'
_TEXT	ENDS
;	COMDAT ?_Insert_n@?$vector@VCRect@@V?$allocator@VCRect@@@std@@@std@@IAEXViterator@12@IABVCRect@@@Z
_TEXT	SEGMENT PARA USE32 PUBLIC 'CODE'
_TEXT	ENDS
;	COMDAT ?_Xlen@?$vector@VCRect@@V?$allocator@VCRect@@@std@@@std@@IBEXXZ
_TEXT	SEGMENT PARA USE32 PUBLIC 'CODE'
_TEXT	ENDS
;	COMDAT ??0?$allocator@VCRect@@@std@@QAE@ABV01@@Z
_TEXT	SEGMENT PARA USE32 PUBLIC 'CODE'
_TEXT	ENDS
;	COMDAT ?deallocate@?$allocator@VCRect@@@std@@QAEXPAVCRect@@I@Z
_TEXT	SEGMENT PARA USE32 PUBLIC 'CODE'
_TEXT	ENDS
;	COMDAT ?allocate@?$allocator@VCRect@@@std@@QAEPAVCRect@@I@Z
_TEXT	SEGMENT PARA USE32 PUBLIC 'CODE'
_TEXT	ENDS
;	COMDAT ?max_size@?$vector@UTAB_ITEM@@V?$allocator@UTAB_ITEM@@@std@@@std@@QBEIXZ
_TEXT	SEGMENT PARA USE32 PUBLIC 'CODE'
_TEXT	ENDS
;	COMDAT ?_Destroy@?$vector@UTAB_ITEM@@V?$allocator@UTAB_ITEM@@@std@@@std@@IAEXPAUTAB_ITEM@@0@Z
_TEXT	SEGMENT PARA USE32 PUBLIC 'CODE'
_TEXT	ENDS
;	COMDAT ?_Xlen@?$vector@UTAB_ITEM@@V?$allocator@UTAB_ITEM@@@std@@@std@@IBEXXZ
_TEXT	SEGMENT PARA USE32 PUBLIC 'CODE'
_TEXT	ENDS
;	COMDAT ??0?$allocator@UTAB_ITEM@@@std@@QAE@ABV01@@Z
_TEXT	SEGMENT PARA USE32 PUBLIC 'CODE'
_TEXT	ENDS
;	COMDAT ?deallocate@?$allocator@UTAB_ITEM@@@std@@QAEXPAUTAB_ITEM@@I@Z
_TEXT	SEGMENT PARA USE32 PUBLIC 'CODE'
_TEXT	ENDS
;	COMDAT ?allocate@?$allocator@UTAB_ITEM@@@std@@QAEPAUTAB_ITEM@@I@Z
_TEXT	SEGMENT PARA USE32 PUBLIC 'CODE'
_TEXT	ENDS
;	COMDAT ??0iterator@?$vector@VCRect@@V?$allocator@VCRect@@@std@@@std@@QAE@PAVCRect@@@Z
_TEXT	SEGMENT PARA USE32 PUBLIC 'CODE'
_TEXT	ENDS
;	COMDAT ??Yiterator@?$vector@VCRect@@V?$allocator@VCRect@@@std@@@std@@QAEAAV012@H@Z
_TEXT	SEGMENT PARA USE32 PUBLIC 'CODE'
_TEXT	ENDS
;	COMDAT ??Giterator@?$vector@VCRect@@V?$allocator@VCRect@@@std@@@std@@QBEHABVconst_iterator@12@@Z
_TEXT	SEGMENT PARA USE32 PUBLIC 'CODE'
_TEXT	ENDS
;	COMDAT ??Dconst_iterator@?$vector@VCRect@@V?$allocator@VCRect@@@std@@@std@@QBEABVCRect@@XZ
_TEXT	SEGMENT PARA USE32 PUBLIC 'CODE'
_TEXT	ENDS
;	COMDAT ??0iterator@?$vector@UTAB_ITEM@@V?$allocator@UTAB_ITEM@@@std@@@std@@QAE@PAUTAB_ITEM@@@Z
_TEXT	SEGMENT PARA USE32 PUBLIC 'CODE'
_TEXT	ENDS
;	COMDAT ??Yiterator@?$vector@UTAB_ITEM@@V?$allocator@UTAB_ITEM@@@std@@@std@@QAEAAV012@H@Z
_TEXT	SEGMENT PARA USE32 PUBLIC 'CODE'
_TEXT	ENDS
;	COMDAT ??Dconst_iterator@?$vector@UTAB_ITEM@@V?$allocator@UTAB_ITEM@@@std@@@std@@QBEABUTAB_ITEM@@XZ
_TEXT	SEGMENT PARA USE32 PUBLIC 'CODE'
_TEXT	ENDS
;	COMDAT ??0length_error@std@@QAE@ABV01@@Z
_TEXT	SEGMENT PARA USE32 PUBLIC 'CODE'
_TEXT	ENDS
;	COMDAT ??0const_iterator@?$basic_string@DU?$char_traits@D@std@@V?$allocator@D@2@@std@@QAE@PBD@Z
_TEXT	SEGMENT PARA USE32 PUBLIC 'CODE'
_TEXT	ENDS
;	COMDAT ??Gconst_iterator@?$basic_string@DU?$char_traits@D@std@@V?$allocator@D@2@@std@@QBEHABV012@@Z
_TEXT	SEGMENT PARA USE32 PUBLIC 'CODE'
_TEXT	ENDS
;	COMDAT ?max_size@?$allocator@VCRect@@@std@@QBEIXZ
_TEXT	SEGMENT PARA USE32 PUBLIC 'CODE'
_TEXT	ENDS
;	COMDAT ?max_size@?$allocator@UTAB_ITEM@@@std@@QBEIXZ
_TEXT	SEGMENT PARA USE32 PUBLIC 'CODE'
_TEXT	ENDS
;	COMDAT ??0const_iterator@?$vector@VCRect@@V?$allocator@VCRect@@@std@@@std@@QAE@PAVCRect@@@Z
_TEXT	SEGMENT PARA USE32 PUBLIC 'CODE'
_TEXT	ENDS
;	COMDAT ??Gconst_iterator@?$vector@VCRect@@V?$allocator@VCRect@@@std@@@std@@QBEHABV012@@Z
_TEXT	SEGMENT PARA USE32 PUBLIC 'CODE'
_TEXT	ENDS
;	COMDAT ??0const_iterator@?$vector@UTAB_ITEM@@V?$allocator@UTAB_ITEM@@@std@@@std@@QAE@PAUTAB_ITEM@@@Z
_TEXT	SEGMENT PARA USE32 PUBLIC 'CODE'
_TEXT	ENDS
;	COMDAT ?Unlock@?$CComCritSecLock@VCComCriticalSection@ATL@@@ATL@@QAEXXZ
_TEXT	SEGMENT PARA USE32 PUBLIC 'CODE'
_TEXT	ENDS
;	COMDAT ??$_Uninitialized_fill_n@PAVCRect@@IV1@V?$allocator@VCRect@@@std@@@std@@YAXPAVCRect@@IABV1@AAV?$allocator@VCRect@@@0@@Z
_TEXT	SEGMENT PARA USE32 PUBLIC 'CODE'
_TEXT	ENDS
;	COMDAT ??$_Maklocstr@D@std@@YAPADPBDPADABU_Cvtvec@@@Z
_TEXT	SEGMENT PARA USE32 PUBLIC 'CODE'
_TEXT	ENDS
;	COMDAT ??$_Destroy_range@VCRect@@V?$allocator@VCRect@@@std@@@std@@YAXPAVCRect@@0AAV?$allocator@VCRect@@@0@@Z
_TEXT	SEGMENT PARA USE32 PUBLIC 'CODE'
_TEXT	ENDS
;	COMDAT ??$_Ucopy@PAVCRect@@@?$vector@VCRect@@V?$allocator@VCRect@@@std@@@std@@IAEPAVCRect@@PAV2@00@Z
_TEXT	SEGMENT PARA USE32 PUBLIC 'CODE'
_TEXT	ENDS
;	COMDAT ??$fill@PAVCRect@@V1@@std@@YAXPAVCRect@@0ABV1@@Z
_TEXT	SEGMENT PARA USE32 PUBLIC 'CODE'
_TEXT	ENDS
;	COMDAT ??$copy_backward@PAVCRect@@PAV1@@std@@YAPAVCRect@@PAV1@00@Z
_TEXT	SEGMENT PARA USE32 PUBLIC 'CODE'
_TEXT	ENDS
;	COMDAT ??$_Allocate@VCRect@@@std@@YAPAVCRect@@IPAV1@@Z
_TEXT	SEGMENT PARA USE32 PUBLIC 'CODE'
_TEXT	ENDS
;	COMDAT ??$_Destroy_range@UTAB_ITEM@@V?$allocator@UTAB_ITEM@@@std@@@std@@YAXPAUTAB_ITEM@@0AAV?$allocator@UTAB_ITEM@@@0@@Z
_TEXT	SEGMENT PARA USE32 PUBLIC 'CODE'
_TEXT	ENDS
;	COMDAT ??$_Allocate@UTAB_ITEM@@@std@@YAPAUTAB_ITEM@@IPAU1@@Z
_TEXT	SEGMENT PARA USE32 PUBLIC 'CODE'
_TEXT	ENDS
;	COMDAT ??$_Ptr_cat@PAVCRect@@PAV1@@std@@YA?AU_Nonscalar_ptr_iterator_tag@0@AAPAVCRect@@0@Z
_TEXT	SEGMENT PARA USE32 PUBLIC 'CODE'
_TEXT	ENDS
;	COMDAT ??$_Uninit_fill_n@PAVCRect@@IV1@V?$allocator@VCRect@@@std@@@std@@YAXPAVCRect@@IABV1@AAV?$allocator@VCRect@@@0@U_Nonscalar_ptr_iterator_tag@0@@Z
_TEXT	SEGMENT PARA USE32 PUBLIC 'CODE'
_TEXT	ENDS
;	COMDAT ??$_Destroy_range@VCRect@@V?$allocator@VCRect@@@std@@@std@@YAXPAVCRect@@0AAV?$allocator@VCRect@@@0@U_Nonscalar_ptr_iterator_tag@0@@Z
_TEXT	SEGMENT PARA USE32 PUBLIC 'CODE'
_TEXT	ENDS
;	COMDAT ??$_Uninitialized_copy@PAVCRect@@PAV1@V?$allocator@VCRect@@@std@@@std@@YAPAVCRect@@PAV1@00AAV?$allocator@VCRect@@@0@@Z
_TEXT	SEGMENT PARA USE32 PUBLIC 'CODE'
_TEXT	ENDS
;	COMDAT ??$_Copy_backward_opt@PAVCRect@@PAV1@@std@@YAPAVCRect@@PAV1@00U_Nonscalar_ptr_iterator_tag@0@@Z
_TEXT	SEGMENT PARA USE32 PUBLIC 'CODE'
_TEXT	ENDS
;	COMDAT ??$_Ptr_cat@PAUTAB_ITEM@@PAU1@@std@@YA?AU_Nonscalar_ptr_iterator_tag@0@AAPAUTAB_ITEM@@0@Z
_TEXT	SEGMENT PARA USE32 PUBLIC 'CODE'
_TEXT	ENDS
;	COMDAT ??$_Destroy_range@UTAB_ITEM@@V?$allocator@UTAB_ITEM@@@std@@@std@@YAXPAUTAB_ITEM@@0AAV?$allocator@UTAB_ITEM@@@0@U_Nonscalar_ptr_iterator_tag@0@@Z
_TEXT	SEGMENT PARA USE32 PUBLIC 'CODE'
_TEXT	ENDS
;	COMDAT ?construct@?$allocator@VCRect@@@std@@QAEXPAVCRect@@ABV3@@Z
_TEXT	SEGMENT PARA USE32 PUBLIC 'CODE'
_TEXT	ENDS
;	COMDAT ?destroy@?$allocator@VCRect@@@std@@QAEXPAVCRect@@@Z
_TEXT	SEGMENT PARA USE32 PUBLIC 'CODE'
_TEXT	ENDS
;	COMDAT ?destroy@?$allocator@UTAB_ITEM@@@std@@QAEXPAUTAB_ITEM@@@Z
_TEXT	SEGMENT PARA USE32 PUBLIC 'CODE'
_TEXT	ENDS
;	COMDAT ??$_Uninit_copy@PAVCRect@@PAV1@V?$allocator@VCRect@@@std@@@std@@YAPAVCRect@@PAV1@00AAV?$allocator@VCRect@@@0@U_Nonscalar_ptr_iterator_tag@0@@Z
_TEXT	SEGMENT PARA USE32 PUBLIC 'CODE'
_TEXT	ENDS
;	COMDAT ??$_Construct@VCRect@@V1@@std@@YAXPAVCRect@@ABV1@@Z
_TEXT	SEGMENT PARA USE32 PUBLIC 'CODE'
_TEXT	ENDS
;	COMDAT ??$_Destroy@VCRect@@@std@@YAXPAVCRect@@@Z
_TEXT	SEGMENT PARA USE32 PUBLIC 'CODE'
_TEXT	ENDS
;	COMDAT ??$_Destroy@UTAB_ITEM@@@std@@YAXPAUTAB_ITEM@@@Z
_TEXT	SEGMENT PARA USE32 PUBLIC 'CODE'
_TEXT	ENDS
;	COMDAT ??_GTAB_ITEM@@QAEPAXI@Z
_TEXT	SEGMENT PARA USE32 PUBLIC 'CODE'
_TEXT	ENDS
;	COMDAT ??_ECTabBarWnd@@WFE@AEPAXI@Z
_TEXT	SEGMENT PARA USE32 PUBLIC 'CODE'
_TEXT	ENDS
;	COMDAT ??_ECTabBarWnd@@WFI@AEPAXI@Z
_TEXT	SEGMENT PARA USE32 PUBLIC 'CODE'
_TEXT	ENDS
;	COMDAT ??_R3?$numpunct@_W@std@@8
rdata$r	SEGMENT DWORD USE32 PUBLIC 'CONST'
rdata$r	ENDS
;	COMDAT ??_R3?$numpunct@D@std@@8
rdata$r	SEGMENT DWORD USE32 PUBLIC 'CONST'
rdata$r	ENDS
;	COMDAT ??_R3IData@@8
rdata$r	SEGMENT DWORD USE32 PUBLIC 'CONST'
rdata$r	ENDS
;	COMDAT ??_R3CTabBarWnd@@8
rdata$r	SEGMENT DWORD USE32 PUBLIC 'CONST'
rdata$r	ENDS
;	COMDAT ??_R3ITabBarObserver@@8
rdata$r	SEGMENT DWORD USE32 PUBLIC 'CONST'
rdata$r	ENDS
;	COMDAT ??_R2?$numpunct@_W@std@@8
rdata$r	SEGMENT DWORD USE32 PUBLIC 'CONST'
rdata$r	ENDS
;	COMDAT ??_R2?$numpunct@D@std@@8
rdata$r	SEGMENT DWORD USE32 PUBLIC 'CONST'
rdata$r	ENDS
;	COMDAT ??_R2IData@@8
rdata$r	SEGMENT DWORD USE32 PUBLIC 'CONST'
rdata$r	ENDS
;	COMDAT ??_R2CTabBarWnd@@8
rdata$r	SEGMENT DWORD USE32 PUBLIC 'CONST'
rdata$r	ENDS
;	COMDAT ??_R2ITabBarObserver@@8
rdata$r	SEGMENT DWORD USE32 PUBLIC 'CONST'
rdata$r	ENDS
;	COMDAT ??_R1A@?0A@A@?$numpunct@_W@std@@8
rdata$r	SEGMENT DWORD USE32 PUBLIC 'CONST'
rdata$r	ENDS
;	COMDAT ??_R1A@?0A@A@facet@locale@std@@8
rdata$r	SEGMENT DWORD USE32 PUBLIC 'CONST'
rdata$r	ENDS
;	COMDAT ??_R0?AVfacet@locale@std@@@8
_DATA	SEGMENT DWORD USE32 PUBLIC 'DATA'
_DATA	ENDS
;	COMDAT ??_R1A@?0A@A@?$numpunct@D@std@@8
rdata$r	SEGMENT DWORD USE32 PUBLIC 'CONST'
rdata$r	ENDS
;	COMDAT ??_R1A@?0A@A@IData@@8
rdata$r	SEGMENT DWORD USE32 PUBLIC 'CONST'
rdata$r	ENDS
;	COMDAT ??_R1FI@?0A@A@IMessageObserver@@8
rdata$r	SEGMENT DWORD USE32 PUBLIC 'CONST'
rdata$r	ENDS
;	COMDAT ??_R1FI@?0A@A@ITabBarObserver@@8
rdata$r	SEGMENT DWORD USE32 PUBLIC 'CONST'
rdata$r	ENDS
;	COMDAT ??_R1FE@?0A@A@CBasicSkinWnd@@8
rdata$r	SEGMENT DWORD USE32 PUBLIC 'CONST'
rdata$r	ENDS
;	COMDAT ??_R1A@?0A@A@CObject@@8
rdata$r	SEGMENT DWORD USE32 PUBLIC 'CONST'
rdata$r	ENDS
;	COMDAT ??_R0?AVCObject@@@8
_DATA	SEGMENT DWORD USE32 PUBLIC 'DATA'
_DATA	ENDS
;	COMDAT ??_R1A@?0A@A@CCmdTarget@@8
rdata$r	SEGMENT DWORD USE32 PUBLIC 'CONST'
rdata$r	ENDS
;	COMDAT ??_R0?AVCCmdTarget@@@8
_DATA	SEGMENT DWORD USE32 PUBLIC 'DATA'
_DATA	ENDS
;	COMDAT ??_R1A@?0A@A@CWnd@@8
rdata$r	SEGMENT DWORD USE32 PUBLIC 'CONST'
rdata$r	ENDS
;	COMDAT ??_R0?AVCWnd@@@8
_DATA	SEGMENT DWORD USE32 PUBLIC 'DATA'
_DATA	ENDS
;	COMDAT ??_R1A@?0A@A@CBasicWnd@@8
rdata$r	SEGMENT DWORD USE32 PUBLIC 'CONST'
rdata$r	ENDS
;	COMDAT ??_R1A@?0A@A@CTabBarWnd@@8
rdata$r	SEGMENT DWORD USE32 PUBLIC 'CONST'
rdata$r	ENDS
;	COMDAT ??_R1A@?0A@A@IMessageObserver@@8
rdata$r	SEGMENT DWORD USE32 PUBLIC 'CONST'
rdata$r	ENDS
;	COMDAT ??_R1A@?0A@A@ITabBarObserver@@8
rdata$r	SEGMENT DWORD USE32 PUBLIC 'CONST'
rdata$r	ENDS
;	COMDAT ??_R0?AV?$numpunct@_W@std@@@8
_DATA	SEGMENT DWORD USE32 PUBLIC 'DATA'
_DATA	ENDS
;	COMDAT ??_R0?AV?$numpunct@D@std@@@8
_DATA	SEGMENT DWORD USE32 PUBLIC 'DATA'
_DATA	ENDS
;	COMDAT ??_R0?AVIData@@@8
_DATA	SEGMENT DWORD USE32 PUBLIC 'DATA'
_DATA	ENDS
;	COMDAT ??_R0?AVIMessageObserver@@@8
_DATA	SEGMENT DWORD USE32 PUBLIC 'DATA'
_DATA	ENDS
;	COMDAT ??_R0?AVCBasicSkinWnd@@@8
_DATA	SEGMENT DWORD USE32 PUBLIC 'DATA'
_DATA	ENDS
;	COMDAT ??_R0?AVCBasicWnd@@@8
_DATA	SEGMENT DWORD USE32 PUBLIC 'DATA'
_DATA	ENDS
;	COMDAT ??_R0?AVCTabBarWnd@@@8
_DATA	SEGMENT DWORD USE32 PUBLIC 'DATA'
_DATA	ENDS
;	COMDAT ??_R0?AVITabBarObserver@@@8
_DATA	SEGMENT DWORD USE32 PUBLIC 'DATA'
_DATA	ENDS
;	COMDAT ??0?$allocator@_W@std@@QAE@XZ
_TEXT	SEGMENT PARA USE32 PUBLIC 'CODE'
_TEXT	ENDS
;	COMDAT ??_G?$numpunct@_W@std@@MAEPAXI@Z
_TEXT	SEGMENT PARA USE32 PUBLIC 'CODE'
_TEXT	ENDS
;	COMDAT ??_R4?$numpunct@_W@std@@6B@
rdata$r	SEGMENT DWORD USE32 PUBLIC 'CONST'
rdata$r	ENDS
;	COMDAT ??_G?$numpunct@D@std@@MAEPAXI@Z
_TEXT	SEGMENT PARA USE32 PUBLIC 'CODE'
_TEXT	ENDS
;	COMDAT ??_R4?$numpunct@D@std@@6B@
rdata$r	SEGMENT DWORD USE32 PUBLIC 'CONST'
rdata$r	ENDS
;	COMDAT ??_R4IData@@6B@
rdata$r	SEGMENT DWORD USE32 PUBLIC 'CONST'
rdata$r	ENDS
;	COMDAT ??_R4CTabBarWnd@@6BITabBarObserver@@@
rdata$r	SEGMENT DWORD USE32 PUBLIC 'CONST'
rdata$r	ENDS
;	COMDAT ??_R4CTabBarWnd@@6BCBasicSkinWnd@@@
rdata$r	SEGMENT DWORD USE32 PUBLIC 'CONST'
rdata$r	ENDS
;	COMDAT ??_R4CTabBarWnd@@6BCBasicWnd@@@
rdata$r	SEGMENT DWORD USE32 PUBLIC 'CONST'
rdata$r	ENDS
;	COMDAT ??_R4ITabBarObserver@@6B@
rdata$r	SEGMENT DWORD USE32 PUBLIC 'CONST'
rdata$r	ENDS
;	COMDAT ??2@YAPAXIPAX@Z
_TEXT	SEGMENT PARA USE32 PUBLIC 'CODE'
_TEXT	ENDS
;	COMDAT ??_C@_0EN@CBMLGOH@D?3?2Program?5Files?5?$CIx86?$CJ?2Microsoft@
CONST	SEGMENT DWORD USE32 PUBLIC 'CONST'
CONST	ENDS
;	COMDAT ?_Psave@?$_Facetptr@V?$numpunct@_W@std@@@std@@2PBVfacet@locale@2@B
_DATA	SEGMENT DWORD USE32 PUBLIC 'DATA'
_DATA	ENDS
;	COMDAT ?_Psave@?$_Facetptr@V?$numpunct@D@std@@@std@@2PBVfacet@locale@2@B
_DATA	SEGMENT DWORD USE32 PUBLIC 'DATA'
_DATA	ENDS
;	COMDAT ?Unlock@CComCriticalSection@ATL@@QAEJXZ
_TEXT	SEGMENT PARA USE32 PUBLIC 'CODE'
_TEXT	ENDS
;	COMDAT ??_C@_0FG@LDNDNCJM@D?3?2Program?5Files?5?$CIx86?$CJ?2Microsoft@
CONST	SEGMENT DWORD USE32 PUBLIC 'CONST'
CONST	ENDS
;	COMDAT ??_C@_09HIEJFN@m_bLocked?$AA@
CONST	SEGMENT DWORD USE32 PUBLIC 'CONST'
CONST	ENDS
;	COMDAT ?_Psave@?$_Facetptr@V?$ctype@_W@std@@@std@@2PBVfacet@locale@2@B
_DATA	SEGMENT DWORD USE32 PUBLIC 'DATA'
_DATA	ENDS
;	COMDAT ?_Psave@?$_Facetptr@V?$ctype@D@std@@@std@@2PBVfacet@locale@2@B
_DATA	SEGMENT DWORD USE32 PUBLIC 'DATA'
_DATA	ENDS
;	COMDAT ??_7length_error@std@@6B@
CONST	SEGMENT DWORD USE32 PUBLIC 'CONST'
CONST	ENDS
;	COMDAT ??_R4length_error@std@@6B@
rdata$r	SEGMENT DWORD USE32 PUBLIC 'CONST'
rdata$r	ENDS
;	COMDAT ??_R3length_error@std@@8
rdata$r	SEGMENT DWORD USE32 PUBLIC 'CONST'
rdata$r	ENDS
;	COMDAT ??_R2length_error@std@@8
rdata$r	SEGMENT DWORD USE32 PUBLIC 'CONST'
rdata$r	ENDS
;	COMDAT ??_R1A@?0A@A@length_error@std@@8
rdata$r	SEGMENT DWORD USE32 PUBLIC 'CONST'
rdata$r	ENDS
;	COMDAT ??_R1A@?0A@A@logic_error@std@@8
rdata$r	SEGMENT DWORD USE32 PUBLIC 'CONST'
rdata$r	ENDS
;	COMDAT ??_R0?AVlogic_error@std@@@8
_DATA	SEGMENT DWORD USE32 PUBLIC 'DATA'
_DATA	ENDS
;	COMDAT ??_R1A@?0A@A@exception@@8
rdata$r	SEGMENT DWORD USE32 PUBLIC 'CONST'
rdata$r	ENDS
;	COMDAT ??_R0?AVexception@@@8
_DATA	SEGMENT DWORD USE32 PUBLIC 'DATA'
_DATA	ENDS
;	COMDAT ??_Glength_error@std@@UAEPAXI@Z
_TEXT	SEGMENT PARA USE32 PUBLIC 'CODE'
_TEXT	ENDS
;	COMDAT ?what@logic_error@std@@UBEPBDXZ
_TEXT	SEGMENT PARA USE32 PUBLIC 'CODE'
_TEXT	ENDS
;	COMDAT ??1logic_error@std@@UAE@XZ
_TEXT	SEGMENT PARA USE32 PUBLIC 'CODE'
_TEXT	ENDS
;	COMDAT ??_7logic_error@std@@6B@
CONST	SEGMENT DWORD USE32 PUBLIC 'CONST'
CONST	ENDS
;	COMDAT ??_R4logic_error@std@@6B@
rdata$r	SEGMENT DWORD USE32 PUBLIC 'CONST'
rdata$r	ENDS
;	COMDAT ??_R3logic_error@std@@8
rdata$r	SEGMENT DWORD USE32 PUBLIC 'CONST'
rdata$r	ENDS
;	COMDAT ??_R2logic_error@std@@8
rdata$r	SEGMENT DWORD USE32 PUBLIC 'CONST'
rdata$r	ENDS
;	COMDAT ??_Glogic_error@std@@UAEPAXI@Z
_TEXT	SEGMENT PARA USE32 PUBLIC 'CODE'
_TEXT	ENDS
;	COMDAT ??0logic_error@std@@QAE@ABV01@@Z
_TEXT	SEGMENT PARA USE32 PUBLIC 'CODE'
_TEXT	ENDS
;	COMDAT __CTA3?AVlength_error@std@@
xdata$x	SEGMENT DWORD USE32 PUBLIC 'CONST'
xdata$x	ENDS
;	COMDAT ??1length_error@std@@UAE@XZ
_TEXT	SEGMENT PARA USE32 PUBLIC 'CODE'
_TEXT	ENDS
;	COMDAT __CT??_R0?AVexception@@@8??0exception@@QAE@ABV0@@Z12
xdata$x	SEGMENT DWORD USE32 PUBLIC 'CONST'
xdata$x	ENDS
;	COMDAT __CT??_R0?AVlogic_error@std@@@8??0logic_error@std@@QAE@ABV01@@Z40
xdata$x	SEGMENT DWORD USE32 PUBLIC 'CONST'
xdata$x	ENDS
;	COMDAT __CT??_R0?AVlength_error@std@@@8??0length_error@std@@QAE@ABV01@@Z40
xdata$x	SEGMENT DWORD USE32 PUBLIC 'CONST'
xdata$x	ENDS
;	COMDAT ??_R0?AVlength_error@std@@@8
_DATA	SEGMENT DWORD USE32 PUBLIC 'DATA'
_DATA	ENDS
;	COMDAT __TI3?AVlength_error@std@@
xdata$x	SEGMENT DWORD USE32 PUBLIC 'CONST'
xdata$x	ENDS
;	COMDAT ??0?$allocator@D@std@@QAE@ABV01@@Z
_TEXT	SEGMENT PARA USE32 PUBLIC 'CODE'
_TEXT	ENDS
;	COMDAT ??0?$allocator@D@std@@QAE@XZ
_TEXT	SEGMENT PARA USE32 PUBLIC 'CODE'
_TEXT	ENDS
;	COMDAT ?deallocate@?$allocator@D@std@@QAEXPADI@Z
_TEXT	SEGMENT PARA USE32 PUBLIC 'CODE'
_TEXT	ENDS
;	COMDAT ?max_size@?$allocator@D@std@@QBEIXZ
_TEXT	SEGMENT PARA USE32 PUBLIC 'CODE'
_TEXT	ENDS
;	COMDAT ?allocate@?$allocator@D@std@@QAEPADI@Z
_TEXT	SEGMENT PARA USE32 PUBLIC 'CODE'
_TEXT	ENDS
;	COMDAT ??$_Allocate@D@std@@YAPADIPAD@Z
_TEXT	SEGMENT PARA USE32 PUBLIC 'CODE'
_TEXT	ENDS
;	COMDAT ??0length_error@std@@QAE@ABV?$basic_string@DU?$char_traits@D@std@@V?$allocator@D@2@@1@@Z
_TEXT	SEGMENT PARA USE32 PUBLIC 'CODE'
_TEXT	ENDS
;	COMDAT ??0logic_error@std@@QAE@ABV?$basic_string@DU?$char_traits@D@std@@V?$allocator@D@2@@1@@Z
_TEXT	SEGMENT PARA USE32 PUBLIC 'CODE'
_TEXT	ENDS
;	COMDAT ??$_Maklocchr@_W@std@@YA_WDPA_WABU_Cvtvec@@@Z
_TEXT	SEGMENT PARA USE32 PUBLIC 'CODE'
_TEXT	ENDS
;	COMDAT ??$_DebugHeapDelete@X@std@@YAXPAX@Z
_TEXT	SEGMENT PARA USE32 PUBLIC 'CODE'
_TEXT	ENDS
;	COMDAT ??$_Maklocstr@_W@std@@YAPA_WPBDPA_WABU_Cvtvec@@@Z
_TEXT	SEGMENT PARA USE32 PUBLIC 'CODE'
_TEXT	ENDS
;	COMDAT ??$_Maklocchr@D@std@@YADDPADABU_Cvtvec@@@Z
_TEXT	SEGMENT PARA USE32 PUBLIC 'CODE'
_TEXT	ENDS
;	COMDAT ??_C@_04LOAJBDKD@true?$AA@
CONST	SEGMENT DWORD USE32 PUBLIC 'CONST'
CONST	ENDS
;	COMDAT ??_C@_05LAPONLG@false?$AA@
CONST	SEGMENT DWORD USE32 PUBLIC 'CONST'
CONST	ENDS
;	COMDAT _wmemcpy
_TEXT	SEGMENT PARA USE32 PUBLIC 'CODE'
_TEXT	ENDS
;	COMDAT ?max_size@?$allocator@_W@std@@QBEIXZ
_TEXT	SEGMENT PARA USE32 PUBLIC 'CODE'
_TEXT	ENDS
;	COMDAT ?allocate@?$allocator@_W@std@@QAEPA_WI@Z
_TEXT	SEGMENT PARA USE32 PUBLIC 'CODE'
_TEXT	ENDS
;	COMDAT ??$_Allocate@_W@std@@YAPA_WIPA_W@Z
_TEXT	SEGMENT PARA USE32 PUBLIC 'CODE'
_TEXT	ENDS
;	COMDAT ??_C@_01GFHCPBMG@C?$AA@
CONST	SEGMENT DWORD USE32 PUBLIC 'CONST'
CONST	ENDS
;	COMDAT ?_Peek@?$istreambuf_iterator@_WU?$char_traits@_W@std@@@std@@AAE_WXZ
_TEXT	SEGMENT PARA USE32 PUBLIC 'CODE'
_TEXT	ENDS
;	COMDAT ?_Peek@?$istreambuf_iterator@DU?$char_traits@D@std@@@std@@AAEDXZ
_TEXT	SEGMENT PARA USE32 PUBLIC 'CODE'
_TEXT	ENDS
;	COMDAT ??$use_facet@V?$ctype@_W@std@@@std@@YAABV?$ctype@_W@0@ABVlocale@0@@Z
_TEXT	SEGMENT PARA USE32 PUBLIC 'CODE'
_TEXT	ENDS
;	COMDAT ??_S?$ctype@_W@std@@6B@
CONST	SEGMENT DWORD USE32 PUBLIC 'CONST'
CONST	ENDS
;	COMDAT ??_R4?$ctype@_W@std@@6B@
rdata$r	SEGMENT DWORD USE32 PUBLIC 'CONST'
rdata$r	ENDS
;	COMDAT ??_R0?AV?$ctype@_W@std@@@8
_DATA	SEGMENT DWORD USE32 PUBLIC 'DATA'
_DATA	ENDS
;	COMDAT ??_R3?$ctype@_W@std@@8
rdata$r	SEGMENT DWORD USE32 PUBLIC 'CONST'
rdata$r	ENDS
;	COMDAT ??_R2?$ctype@_W@std@@8
rdata$r	SEGMENT DWORD USE32 PUBLIC 'CONST'
rdata$r	ENDS
;	COMDAT ??_R1A@?0A@A@?$ctype@_W@std@@8
rdata$r	SEGMENT DWORD USE32 PUBLIC 'CONST'
rdata$r	ENDS
;	COMDAT ??_R1A@?0A@A@ctype_base@std@@8
rdata$r	SEGMENT DWORD USE32 PUBLIC 'CONST'
rdata$r	ENDS
;	COMDAT ??_R0?AUctype_base@std@@@8
_DATA	SEGMENT DWORD USE32 PUBLIC 'DATA'
_DATA	ENDS
;	COMDAT ??_G?$ctype@_W@std@@MAEPAXI@Z
_TEXT	SEGMENT PARA USE32 PUBLIC 'CODE'
_TEXT	ENDS
;	COMDAT ??_C@_08EPJLHIJG@bad?5cast?$AA@
CONST	SEGMENT DWORD USE32 PUBLIC 'CONST'
CONST	ENDS
;	COMDAT __TI2?AVbad_cast@@
xdata$x	SEGMENT DWORD USE32 PUBLIC 'CONST'
xdata$x	ENDS
;	COMDAT __CTA2?AVbad_cast@@
xdata$x	SEGMENT DWORD USE32 PUBLIC 'CONST'
xdata$x	ENDS
;	COMDAT __CT??_R0?AVbad_cast@@@8??0bad_cast@@QAE@ABV0@@Z12
xdata$x	SEGMENT DWORD USE32 PUBLIC 'CONST'
xdata$x	ENDS
;	COMDAT ??_R0?AVbad_cast@@@8
_DATA	SEGMENT DWORD USE32 PUBLIC 'DATA'
_DATA	ENDS
;	COMDAT ??$_DebugHeapDelete@Vfacet@locale@std@@@std@@YAXPAVfacet@locale@0@@Z
_TEXT	SEGMENT PARA USE32 PUBLIC 'CODE'
_TEXT	ENDS
;	COMDAT ??$use_facet@V?$ctype@D@std@@@std@@YAABV?$ctype@D@0@ABVlocale@0@@Z
_TEXT	SEGMENT PARA USE32 PUBLIC 'CODE'
_TEXT	ENDS
;	COMDAT ??_S?$ctype@D@std@@6B@
CONST	SEGMENT DWORD USE32 PUBLIC 'CONST'
CONST	ENDS
;	COMDAT ??_R4?$ctype@D@std@@6B@
rdata$r	SEGMENT DWORD USE32 PUBLIC 'CONST'
rdata$r	ENDS
;	COMDAT ??_R0?AV?$ctype@D@std@@@8
_DATA	SEGMENT DWORD USE32 PUBLIC 'DATA'
_DATA	ENDS
;	COMDAT ??_R3?$ctype@D@std@@8
rdata$r	SEGMENT DWORD USE32 PUBLIC 'CONST'
rdata$r	ENDS
;	COMDAT ??_R2?$ctype@D@std@@8
rdata$r	SEGMENT DWORD USE32 PUBLIC 'CONST'
rdata$r	ENDS
;	COMDAT ??_R1A@?0A@A@?$ctype@D@std@@8
rdata$r	SEGMENT DWORD USE32 PUBLIC 'CONST'
rdata$r	ENDS
;	COMDAT ??_G?$ctype@D@std@@MAEPAXI@Z
_TEXT	SEGMENT PARA USE32 PUBLIC 'CODE'
_TEXT	ENDS
;	COMDAT ??_S?$numpunct@_W@std@@6B@
CONST	SEGMENT DWORD USE32 PUBLIC 'CONST'
CONST	ENDS
;	COMDAT ??_S?$numpunct@D@std@@6B@
CONST	SEGMENT DWORD USE32 PUBLIC 'CONST'
CONST	ENDS
;	COMDAT _wmemmove
_TEXT	SEGMENT PARA USE32 PUBLIC 'CODE'
_TEXT	ENDS
;	COMDAT ?deallocate@?$allocator@_W@std@@QAEXPA_WI@Z
_TEXT	SEGMENT PARA USE32 PUBLIC 'CODE'
_TEXT	ENDS
;	COMDAT ??0?$allocator@_W@std@@QAE@ABV01@@Z
_TEXT	SEGMENT PARA USE32 PUBLIC 'CODE'
_TEXT	ENDS
;	COMDAT ?IsLocked@CStringData@ATL@@QBE_NXZ
_TEXT	SEGMENT PARA USE32 PUBLIC 'CODE'
_TEXT	ENDS
;	COMDAT ?AddRef@CStringData@ATL@@QAEXXZ
_TEXT	SEGMENT PARA USE32 PUBLIC 'CODE'
_TEXT	ENDS
;	COMDAT ??_C@_09EEBKLCFA@nRefs?5?$DO?50?$AA@
CONST	SEGMENT DWORD USE32 PUBLIC 'CONST'
CONST	ENDS
;	COMDAT ??_C@_0FJ@DMHPDOJC@D?3?2Program?5Files?5?$CIx86?$CJ?2Microsoft@
CONST	SEGMENT DWORD USE32 PUBLIC 'CONST'
CONST	ENDS
;	COMDAT ?AtlThrow@ATL@@YGXJ@Z
_TEXT	SEGMENT PARA USE32 PUBLIC 'CODE'
_TEXT	ENDS
;	COMDAT ??RCTraceFileAndLineInfo@ATL@@QBAXKIPBDZZ
_TEXT	SEGMENT PARA USE32 PUBLIC 'CODE'
_TEXT	ENDS
;	COMDAT ?TraceV@CTrace@ATL@@QBAXPBDHKI0PAD@Z
_TEXT	SEGMENT PARA USE32 PUBLIC 'CODE'
_TEXT	ENDS
;	COMDAT ??0CTraceFileAndLineInfo@ATL@@QAE@PBDH@Z
_TEXT	SEGMENT PARA USE32 PUBLIC 'CODE'
_TEXT	ENDS
;	COMDAT ??_C@_0FI@NHHJANPC@D?3?2Program?5Files?5?$CIx86?$CJ?2Microsoft@
CONST	SEGMENT DWORD USE32 PUBLIC 'CONST'
CONST	ENDS
;	COMDAT ??_C@_0BF@IAAKIJDJ@AtlThrow?3?5hr?5?$DN?50x?$CFx?6?$AA@
CONST	SEGMENT DWORD USE32 PUBLIC 'CONST'
CONST	ENDS
;	COMDAT ??BCTraceCategory@ATL@@QBEKXZ
_TEXT	SEGMENT PARA USE32 PUBLIC 'CODE'
_TEXT	ENDS
;	COMDAT ?data@CStringData@ATL@@QAEPAXXZ
_TEXT	SEGMENT PARA USE32 PUBLIC 'CODE'
_TEXT	ENDS
;	COMDAT ?Release@CStringData@ATL@@QAEXXZ
_TEXT	SEGMENT PARA USE32 PUBLIC 'CODE'
_TEXT	ENDS
;	COMDAT ??_C@_0L@OIIMFBNE@nRefs?5?$CB?$DN?50?$AA@
CONST	SEGMENT DWORD USE32 PUBLIC 'CONST'
CONST	ENDS
;	COMDAT ??_C@_0BA@GOIMFHNK@pStringMgr?5?$CB?$DN?50?$AA@
CONST	SEGMENT DWORD USE32 PUBLIC 'CONST'
CONST	ENDS
;	COMDAT ?GetDefaultManager@?$StrTraitMFC_DLL@DV?$ChTraitsCRT@D@ATL@@@@SAPAUIAtlStringMgr@ATL@@XZ
_TEXT	SEGMENT PARA USE32 PUBLIC 'CODE'
_TEXT	ENDS
;	COMDAT ?FindStringResourceInstance@?$StrTraitMFC_DLL@DV?$ChTraitsCRT@D@ATL@@@@SAPAUHINSTANCE__@@I@Z
_TEXT	SEGMENT PARA USE32 PUBLIC 'CODE'
_TEXT	ENDS
;	COMDAT ?AtlGetStringResourceImage@ATL@@YAPBUATLSTRINGRESOURCEIMAGE@1@PAUHINSTANCE__@@I@Z
_TEXT	SEGMENT PARA USE32 PUBLIC 'CODE'
_TEXT	ENDS
;	COMDAT ?_AtlGetStringResourceImage@ATL@@YAPBUATLSTRINGRESOURCEIMAGE@1@PAUHINSTANCE__@@PAUHRSRC__@@I@Z
_TEXT	SEGMENT PARA USE32 PUBLIC 'CODE'
_TEXT	ENDS
;	COMDAT ?GetBaseTypeLength@?$ChTraitsCRT@D@ATL@@SAHPB_WH@Z
_TEXT	SEGMENT PARA USE32 PUBLIC 'CODE'
_TEXT	ENDS
;	COMDAT ?_AtlGetConversionACP@ATL@@YGIXZ
_TEXT	SEGMENT PARA USE32 PUBLIC 'CODE'
_TEXT	ENDS
;	COMDAT ?g_pfnGetThreadACP@ATL@@3P6GIXZA
_DATA	SEGMENT DWORD USE32 PUBLIC 'DATA'
_DATA	ENDS
;	COMDAT ?_AtlGetThreadACPThunk@ATL@@YGIXZ
_TEXT	SEGMENT PARA USE32 PUBLIC 'CODE'
_TEXT	ENDS
;	COMDAT ?_AtlGetThreadACPReal@ATL@@YGIXZ
_TEXT	SEGMENT PARA USE32 PUBLIC 'CODE'
_TEXT	ENDS
;	COMDAT ?_AtlGetThreadACPFake@ATL@@YGIXZ
_TEXT	SEGMENT PARA USE32 PUBLIC 'CODE'
_TEXT	ENDS
;	COMDAT ?InterlockedExchangePointer@@YGPAXPAPAXPAX@Z
_TEXT	SEGMENT PARA USE32 PUBLIC 'CODE'
_TEXT	ENDS
;	COMDAT ?IsShared@CStringData@ATL@@QBE_NXZ
_TEXT	SEGMENT PARA USE32 PUBLIC 'CODE'
_TEXT	ENDS
;	COMDAT ??_C@_0CB@GFHAPKDK@pOldData?9?$DOnAllocLength?5?$DM?5nLength@
CONST	SEGMENT DWORD USE32 PUBLIC 'CONST'
CONST	ENDS
;	COMDAT ?ConvertToBaseType@?$ChTraitsCRT@D@ATL@@SAXPADHPB_WH@Z
_TEXT	SEGMENT PARA USE32 PUBLIC 'CODE'
_TEXT	ENDS
;	COMDAT ??_C@_0BA@GNIEOBOF@nNewLength?5?$DO?$DN?50?$AA@
CONST	SEGMENT DWORD USE32 PUBLIC 'CONST'
CONST	ENDS
;	COMDAT ??_C@_0N@ILOMLJGA@nLength?5?$DO?$DN?50?$AA@
CONST	SEGMENT DWORD USE32 PUBLIC 'CONST'
CONST	ENDS
;	COMDAT ??_C@_0CD@EEFFJEGJ@nLength?5?$DM?$DN?5GetData?$CI?$CJ?9?$DOnAllocLeng@
CONST	SEGMENT DWORD USE32 PUBLIC 'CONST'
CONST	ENDS
;	COMDAT ??_C@_0FH@KDPNIMBO@D?3?2Program?5Files?5?$CIx86?$CJ?2Microsoft@
CONST	SEGMENT DWORD USE32 PUBLIC 'CONST'
CONST	ENDS
;	COMDAT ??_C@_0CJ@FJEKGMMD@Warning?3?5implicit?5LoadString?$CI?$CFu?$CJ@
CONST	SEGMENT DWORD USE32 PUBLIC 'CONST'
CONST	ENDS
;	COMDAT ?_messageEntries@CTabBarWnd@@0QBUAFX_MSGMAP_ENTRY@@B
CONST	SEGMENT DWORD USE32 PUBLIC 'CONST'
CONST	ENDS
;	COMDAT ?messageMap@CTabBarWnd@@1UAFX_MSGMAP@@B
CONST	SEGMENT DWORD USE32 PUBLIC 'CONST'
CONST	ENDS
;	COMDAT ??_7IMessageObserver@@6B@
CONST	SEGMENT DWORD USE32 PUBLIC 'CONST'
CONST	ENDS
;	COMDAT ??_R4IMessageObserver@@6B@
rdata$r	SEGMENT DWORD USE32 PUBLIC 'CONST'
rdata$r	ENDS
;	COMDAT ??_R3IMessageObserver@@8
rdata$r	SEGMENT DWORD USE32 PUBLIC 'CONST'
rdata$r	ENDS
;	COMDAT ??_R2IMessageObserver@@8
rdata$r	SEGMENT DWORD USE32 PUBLIC 'CONST'
rdata$r	ENDS
;	COMDAT ??_GIMessageObserver@@UAEPAXI@Z
_TEXT	SEGMENT PARA USE32 PUBLIC 'CODE'
_TEXT	ENDS
;	COMDAT ??_7ITabBarObserver@@6B@
CONST	SEGMENT DWORD USE32 PUBLIC 'CONST'
CONST	ENDS
;	COMDAT ??1IMessageObserver@@UAE@XZ
_TEXT	SEGMENT PARA USE32 PUBLIC 'CODE'
_TEXT	ENDS
;	COMDAT ??_7CBasicSkinWnd@@6B@
CONST	SEGMENT DWORD USE32 PUBLIC 'CONST'
CONST	ENDS
;	COMDAT ??_R4CBasicSkinWnd@@6B@
rdata$r	SEGMENT DWORD USE32 PUBLIC 'CONST'
rdata$r	ENDS
;	COMDAT ??_R3CBasicSkinWnd@@8
rdata$r	SEGMENT DWORD USE32 PUBLIC 'CONST'
rdata$r	ENDS
;	COMDAT ??_R2CBasicSkinWnd@@8
rdata$r	SEGMENT DWORD USE32 PUBLIC 'CONST'
rdata$r	ENDS
;	COMDAT ??_R1A@?0A@A@CBasicSkinWnd@@8
rdata$r	SEGMENT DWORD USE32 PUBLIC 'CONST'
rdata$r	ENDS
;	COMDAT ??_GCBasicSkinWnd@@UAEPAXI@Z
_TEXT	SEGMENT PARA USE32 PUBLIC 'CODE'
_TEXT	ENDS
;	COMDAT ??_7CTabBarWnd@@6BITabBarObserver@@@
CONST	SEGMENT DWORD USE32 PUBLIC 'CONST'
CONST	ENDS
;	COMDAT ??_7CTabBarWnd@@6BCBasicSkinWnd@@@
CONST	SEGMENT DWORD USE32 PUBLIC 'CONST'
CONST	ENDS
;	COMDAT ??_7CTabBarWnd@@6BCBasicWnd@@@
CONST	SEGMENT DWORD USE32 PUBLIC 'CONST'
CONST	ENDS
;	COMDAT ??1CBasicSkinWnd@@UAE@XZ
_TEXT	SEGMENT PARA USE32 PUBLIC 'CODE'
_TEXT	ENDS
;	COMDAT ?classCTabBarWnd@CTabBarWnd@@2UCRuntimeClass@@B
CONST	SEGMENT DWORD USE32 PUBLIC 'CONST'
CONST	ENDS
;	COMDAT ??_7IData@@6B@
CONST	SEGMENT DWORD USE32 PUBLIC 'CONST'
CONST	ENDS
sxdata	SEGMENT DWORD USE32 'SXDATA'
sxdata	ENDS
FLAT	GROUP _DATA, CONST, _BSS
	ASSUME	CS: FLAT, DS: FLAT, SS: FLAT
endif

INCLUDELIB MSVCRTD
INCLUDELIB OLDNAMES

PUBLIC	?g_pfnGetThreadACP@ATL@@3P6GIXZA		; ATL::g_pfnGetThreadACP
PUBLIC	?_AtlGetThreadACPThunk@ATL@@YGIXZ		; ATL::_AtlGetThreadACPThunk
PUBLIC	?classCTabBarWnd@CTabBarWnd@@2UCRuntimeClass@@B	; CTabBarWnd::classCTabBarWnd
PUBLIC	?_messageEntries@CTabBarWnd@@0QBUAFX_MSGMAP_ENTRY@@B ; CTabBarWnd::_messageEntries
PUBLIC	?messageMap@CTabBarWnd@@1UAFX_MSGMAP@@B		; CTabBarWnd::messageMap
PUBLIC	?OnPaint@CTabBarWnd@@IAEXXZ			; CTabBarWnd::OnPaint
PUBLIC	?OnSize@CTabBarWnd@@IAEXIHH@Z			; CTabBarWnd::OnSize
PUBLIC	?OnCreate@CTabBarWnd@@IAEHPAUtagCREATESTRUCTA@@@Z ; CTabBarWnd::OnCreate
PUBLIC	?OnLButtonDown@CTabBarWnd@@IAEXIVCPoint@@@Z	; CTabBarWnd::OnLButtonDown
PUBLIC	?OnMouseMove@CTabBarWnd@@IAEXIVCPoint@@@Z	; CTabBarWnd::OnMouseMove
PUBLIC	?OnDestroy@CTabBarWnd@@IAEXXZ			; CTabBarWnd::OnDestroy
EXTRN	?GetThisClass@CBasicWnd@@SGPAUCRuntimeClass@@XZ:NEAR ; CBasicWnd::GetThisClass
EXTRN	?GetThisMessageMap@CBasicWnd@@KGPBUAFX_MSGMAP@@XZ:NEAR ; CBasicWnd::GetThisMessageMap
CONST	SEGMENT
$SG189375 DB	'CTabBarWnd', 00H
CONST	ENDS
;	COMDAT ?classCTabBarWnd@CTabBarWnd@@2UCRuntimeClass@@B
CONST	SEGMENT
?classCTabBarWnd@CTabBarWnd@@2UCRuntimeClass@@B DD FLAT:$SG189375 ; CTabBarWnd::classCTabBarWnd
	DD	0140H
	DD	0ffffH
	DD	00H
	DD	FLAT:?GetThisClass@CBasicWnd@@SGPAUCRuntimeClass@@XZ
	DD	00H
	DD	00H
CONST	ENDS
CONST	SEGMENT
	ORG $+1
$SG189408 DB	0cbH, 0ceH, 0ccH, 0e5H, 00H
CONST	ENDS
;	COMDAT ?_messageEntries@CTabBarWnd@@0QBUAFX_MSGMAP_ENTRY@@B
CONST	SEGMENT
?_messageEntries@CTabBarWnd@@0QBUAFX_MSGMAP_ENTRY@@B DD 05H ; CTabBarWnd::_messageEntries
	DD	00H
	DD	00H
	DD	00H
	DD	016H
	DD	FLAT:?OnSize@CTabBarWnd@@IAEXIHH@Z
	DD	01H
	DD	00H
	DD	00H
	DD	00H
	DD	0dH
	DD	FLAT:?OnCreate@CTabBarWnd@@IAEHPAUtagCREATESTRUCTA@@@Z
	DD	0fH
	DD	00H
	DD	00H
	DD	00H
	DD	010H
	DD	FLAT:?OnPaint@CTabBarWnd@@IAEXXZ
	DD	0201H
	DD	00H
	DD	00H
	DD	00H
	DD	032H
	DD	FLAT:?OnLButtonDown@CTabBarWnd@@IAEXIVCPoint@@@Z
	DD	0200H
	DD	00H
	DD	00H
	DD	00H
	DD	032H
	DD	FLAT:?OnMouseMove@CTabBarWnd@@IAEXIVCPoint@@@Z
	DD	02H
	DD	00H
	DD	00H
	DD	00H
	DD	010H
	DD	FLAT:?OnDestroy@CTabBarWnd@@IAEXXZ
	DD	00H
	DD	00H
	DD	00H
	DD	00H
	DD	00H
	DD	00H
CONST	ENDS
;	COMDAT ?messageMap@CTabBarWnd@@1UAFX_MSGMAP@@B
CONST	SEGMENT
?messageMap@CTabBarWnd@@1UAFX_MSGMAP@@B DD FLAT:?GetThisMessageMap@CBasicWnd@@KGPBUAFX_MSGMAP@@XZ ; CTabBarWnd::messageMap
	DD	FLAT:?_messageEntries@CTabBarWnd@@0QBUAFX_MSGMAP_ENTRY@@B
CONST	ENDS
CONST	SEGMENT
$SG189482 DB	00H
	ORG $+2
$SG189483 DB	'tooltips_class32', 00H
	ORG $+3
$SG189493 DB	'normal', 00H
	ORG $+1
$SG189494 DB	'tabbarWnd', 00H
	ORG $+2
$SG189497 DB	'normal', 00H
	ORG $+1
$SG189498 DB	'tabbarWnd', 00H
	ORG $+2
$SG189503 DB	'TabBarRectLeftNormal', 00H
	ORG $+3
$SG189504 DB	'TabBarRectMiddleNormal', 00H
	ORG $+1
$SG189505 DB	'TabBarRectRightNormal', 00H
	ORG $+2
$SG189506 DB	'TabBarRectLeftOver', 00H
	ORG $+1
$SG189507 DB	'TabBarRectMiddleOver', 00H
	ORG $+3
$SG189508 DB	'TabBarRectRightOver', 00H
$SG189509 DB	'TabBarRectLeftDown', 00H
	ORG $+1
$SG189510 DB	'TabBarRectMiddleDown', 00H
	ORG $+3
$SG189511 DB	'TabBarRectRightDown', 00H
$SG189512 DB	'TabBarCloseNormal', 00H
	ORG $+2
$SG189513 DB	'TabBarCloseOver', 00H
$SG189514 DB	'TabBarCloseDown', 00H
$SG189515 DB	'TabBarSelCloseNormal', 00H
	ORG $+3
$SG189516 DB	'TabBarSelCloseOver', 00H
	ORG $+1
$SG189517 DB	'TabBarSelCloseDown', 00H
	ORG $+1
$SG189518 DB	'TabbarNewWindowNormal', 00H
	ORG $+2
$SG189519 DB	'TabbarNewWindowOver', 00H
$SG189520 DB	'TabbarNewWindowDown', 00H
$SG189521 DB	'TabBarNormalTextColor', 00H
	ORG $+2
$SG189522 DB	'TabBarDownTextColor', 00H
$SG189545 DB	'TabBarBK', 00H
$SG189614 DB	00H
	ORG $+2
$SG189615 DB	0b4H, 0f2H, 0bfH, 0aaH, 0b4H, 0b0H, 0bfH, 0daH, 0b9H, 0fdH
	DB	0b6H, 0e0H, 0a3H, 0acH, 0c7H, 0ebH, 0b9H, 0d8H, 0b1H, 0d5H, 0ceH
	DB	0deH, 0d3H, 0c3H, 0b4H, 0b0H, 0bfH, 0daH, 00H
	ORG $+3
$SG189616 DB	0ccH, 0e1H, 0caH, 0beH, 00H
	ORG $+3
$SG189653 DB	'test', 00H
	ORG $+3
$SG189654 DB	'test', 00H
CONST	ENDS
;	COMDAT ?g_pfnGetThreadACP@ATL@@3P6GIXZA
_DATA	SEGMENT
?g_pfnGetThreadACP@ATL@@3P6GIXZA DD FLAT:?_AtlGetThreadACPThunk@ATL@@YGIXZ ; ATL::g_pfnGetThreadACP
_DATA	ENDS
CONST	SEGMENT
	ORG $+3
_ID_MESSAGE_TABBAR DD 0bH
_ID_DATA_TABBAR DD 07H
CONST	ENDS
PUBLIC	?GetThisClass@CTabBarWnd@@SGPAUCRuntimeClass@@XZ ; CTabBarWnd::GetThisClass
EXTRN	__RTC_InitBase:NEAR
EXTRN	__RTC_Shutdown:NEAR
;	COMDAT rtc$IMZ
; File d:\boxgit\playbox\playbox\dev\prj\playbox\src\module\tabman\tabbarwnd.cpp
rtc$IMZ	SEGMENT
__RTC_InitBase.rtc$IMZ DD FLAT:__RTC_InitBase
rtc$IMZ	ENDS
;	COMDAT rtc$TMZ
rtc$TMZ	SEGMENT
__RTC_Shutdown.rtc$TMZ DD FLAT:__RTC_Shutdown
; Function compile flags: /Odt /RTCsu
rtc$TMZ	ENDS
_TEXT	SEGMENT
?GetThisClass@CTabBarWnd@@SGPAUCRuntimeClass@@XZ PROC NEAR ; CTabBarWnd::GetThisClass

; 13   : IMPLEMENT_DYNAMIC(CTabBarWnd, CBasicWnd)

  00000	55		 push	 ebp
  00001	8b ec		 mov	 ebp, esp
  00003	b8 00 00 00 00	 mov	 eax, OFFSET FLAT:?classCTabBarWnd@CTabBarWnd@@2UCRuntimeClass@@B ; CTabBarWnd::classCTabBarWnd
  00008	5d		 pop	 ebp
  00009	c3		 ret	 0
?GetThisClass@CTabBarWnd@@SGPAUCRuntimeClass@@XZ ENDP	; CTabBarWnd::GetThisClass
_TEXT	ENDS
PUBLIC	?GetRuntimeClass@CTabBarWnd@@UBEPAUCRuntimeClass@@XZ ; CTabBarWnd::GetRuntimeClass
; Function compile flags: /Odt /RTCsu
_TEXT	SEGMENT
_this$ = -4						; size = 4
?GetRuntimeClass@CTabBarWnd@@UBEPAUCRuntimeClass@@XZ PROC NEAR ; CTabBarWnd::GetRuntimeClass
; _this$ = ecx

; 13   : IMPLEMENT_DYNAMIC(CTabBarWnd, CBasicWnd)

  00010	55		 push	 ebp
  00011	8b ec		 mov	 ebp, esp
  00013	51		 push	 ecx
  00014	c7 45 fc cc cc
	cc cc		 mov	 DWORD PTR [ebp-4], -858993460 ; ccccccccH
  0001b	89 4d fc	 mov	 DWORD PTR _this$[ebp], ecx
  0001e	b8 00 00 00 00	 mov	 eax, OFFSET FLAT:?classCTabBarWnd@CTabBarWnd@@2UCRuntimeClass@@B ; CTabBarWnd::classCTabBarWnd
  00023	8b e5		 mov	 esp, ebp
  00025	5d		 pop	 ebp
  00026	c3		 ret	 0
?GetRuntimeClass@CTabBarWnd@@UBEPAUCRuntimeClass@@XZ ENDP ; CTabBarWnd::GetRuntimeClass
_TEXT	ENDS
PUBLIC	??0?$vector@UTAB_ITEM@@V?$allocator@UTAB_ITEM@@@std@@@std@@QAE@XZ ; std::vector<TAB_ITEM,std::allocator<TAB_ITEM> >::vector<TAB_ITEM,std::allocator<TAB_ITEM> >
PUBLIC	??1?$vector@UTAB_ITEM@@V?$allocator@UTAB_ITEM@@@std@@@std@@QAE@XZ ; std::vector<TAB_ITEM,std::allocator<TAB_ITEM> >::~vector<TAB_ITEM,std::allocator<TAB_ITEM> >
PUBLIC	??_R0?AVITabBarObserver@@@8			; ITabBarObserver `RTTI Type Descriptor'
PUBLIC	??_R4CTabBarWnd@@6BCBasicWnd@@@			; CTabBarWnd::`RTTI Complete Object Locator'
PUBLIC	??_R0?AVCTabBarWnd@@@8				; CTabBarWnd `RTTI Type Descriptor'
PUBLIC	??_R3CTabBarWnd@@8				; CTabBarWnd::`RTTI Class Hierarchy Descriptor'
PUBLIC	??_R2CTabBarWnd@@8				; CTabBarWnd::`RTTI Base Class Array'
PUBLIC	??_R1A@?0A@A@CTabBarWnd@@8			; CTabBarWnd::`RTTI Base Class Descriptor at (0,-1,0,0)'
PUBLIC	??_R1A@?0A@A@CBasicWnd@@8			; CBasicWnd::`RTTI Base Class Descriptor at (0,-1,0,0)'
PUBLIC	??_R0?AVCBasicWnd@@@8				; CBasicWnd `RTTI Type Descriptor'
PUBLIC	??_R1FE@?0A@A@CBasicSkinWnd@@8			; CBasicSkinWnd::`RTTI Base Class Descriptor at (84,-1,0,0)'
PUBLIC	??_R1FI@?0A@A@ITabBarObserver@@8		; ITabBarObserver::`RTTI Base Class Descriptor at (88,-1,0,0)'
PUBLIC	??_R1FI@?0A@A@IMessageObserver@@8		; IMessageObserver::`RTTI Base Class Descriptor at (88,-1,0,0)'
PUBLIC	??_ECTabBarWnd@@WFE@AEPAXI@Z			; [thunk]:CTabBarWnd::`vector deleting destructor'
PUBLIC	??_R4CTabBarWnd@@6BCBasicSkinWnd@@@		; CTabBarWnd::`RTTI Complete Object Locator'
PUBLIC	??_ECTabBarWnd@@WFI@AEPAXI@Z			; [thunk]:CTabBarWnd::`vector deleting destructor'
PUBLIC	??_R4CTabBarWnd@@6BITabBarObserver@@@		; CTabBarWnd::`RTTI Complete Object Locator'
PUBLIC	??_7CTabBarWnd@@6BCBasicWnd@@@			; CTabBarWnd::`vftable'
PUBLIC	??_7CTabBarWnd@@6BCBasicSkinWnd@@@		; CTabBarWnd::`vftable'
PUBLIC	??_7CTabBarWnd@@6BITabBarObserver@@@		; CTabBarWnd::`vftable'
PUBLIC	??_GCTabBarWnd@@UAEPAXI@Z			; CTabBarWnd::`scalar deleting destructor'
PUBLIC	??_R1A@?0A@A@CWnd@@8				; CWnd::`RTTI Base Class Descriptor at (0,-1,0,0)'
PUBLIC	??_R0?AVCWnd@@@8				; CWnd `RTTI Type Descriptor'
PUBLIC	??_R1A@?0A@A@CCmdTarget@@8			; CCmdTarget::`RTTI Base Class Descriptor at (0,-1,0,0)'
PUBLIC	??_R0?AVCCmdTarget@@@8				; CCmdTarget `RTTI Type Descriptor'
PUBLIC	??_R1A@?0A@A@CObject@@8				; CObject::`RTTI Base Class Descriptor at (0,-1,0,0)'
PUBLIC	??_R0?AVCObject@@@8				; CObject `RTTI Type Descriptor'
PUBLIC	??_R0?AVIMessageObserver@@@8			; IMessageObserver `RTTI Type Descriptor'
PUBLIC	??1CBasicSkinWnd@@UAE@XZ			; CBasicSkinWnd::~CBasicSkinWnd
PUBLIC	??0CBasicSkinWnd@@QAE@XZ			; CBasicSkinWnd::CBasicSkinWnd
PUBLIC	??_R0?AVCBasicSkinWnd@@@8			; CBasicSkinWnd `RTTI Type Descriptor'
PUBLIC	??0ITabBarObserver@@QAE@XZ			; ITabBarObserver::ITabBarObserver
PUBLIC	??1ITabBarObserver@@UAE@XZ			; ITabBarObserver::~ITabBarObserver
PUBLIC	??0CTabBarWnd@@QAE@XZ				; CTabBarWnd::CTabBarWnd
PUBLIC	?LoadSkin@CTabBarWnd@@UAEXXZ			; CTabBarWnd::LoadSkin
PUBLIC	?GetMessageMap@CTabBarWnd@@MBEPBUAFX_MSGMAP@@XZ	; CTabBarWnd::GetMessageMap
PUBLIC	?ITabBarOb_CreateNewTab@CTabBarWnd@@UAEXAAUTAB_ITEM@@@Z ; CTabBarWnd::ITabBarOb_CreateNewTab
PUBLIC	?ITabBarOb_OpenExistTab@CTabBarWnd@@UAEXAAUTAB_ITEM@@@Z ; CTabBarWnd::ITabBarOb_OpenExistTab
PUBLIC	?ITabBarOb_DelTab@CTabBarWnd@@UAEXAAUTAB_ITEM@@@Z ; CTabBarWnd::ITabBarOb_DelTab
PUBLIC	?ITabBarOb_OpenTabError@CTabBarWnd@@UAEXH@Z	; CTabBarWnd::ITabBarOb_OpenTabError
PUBLIC	??0?$vector@VCRect@@V?$allocator@VCRect@@@std@@@std@@QAE@XZ ; std::vector<CRect,std::allocator<CRect> >::vector<CRect,std::allocator<CRect> >
PUBLIC	??1?$vector@VCRect@@V?$allocator@VCRect@@@std@@@std@@QAE@XZ ; std::vector<CRect,std::allocator<CRect> >::~vector<CRect,std::allocator<CRect> >
EXTRN	?GetInterfaceMap@CWnd@@MBEPBUAFX_INTERFACEMAP@@XZ:NEAR ; CWnd::GetInterfaceMap
EXTRN	?EnsureStdObj@CWnd@@UAEJXZ:NEAR			; CWnd::EnsureStdObj
EXTRN	?get_accParent@CWnd@@UAEJPAPAUIDispatch@@@Z:NEAR ; CWnd::get_accParent
EXTRN	?OnCmdMsg@CCmdTarget@@UAEHIHPAXPAUAFX_CMDHANDLERINFO@@@Z:NEAR ; CCmdTarget::OnCmdMsg
EXTRN	?get_accChildCount@CWnd@@UAEJPAJ@Z:NEAR		; CWnd::get_accChildCount
EXTRN	?IsInvokeAllowed@CCmdTarget@@UAEHJ@Z:NEAR	; CCmdTarget::IsInvokeAllowed
EXTRN	?get_accChild@CWnd@@UAEJUtagVARIANT@@PAPAUIDispatch@@@Z:NEAR ; CWnd::get_accChild
EXTRN	?get_accName@CWnd@@UAEJUtagVARIANT@@PAPA_W@Z:NEAR ; CWnd::get_accName
EXTRN	?get_accValue@CWnd@@UAEJUtagVARIANT@@PAPA_W@Z:NEAR ; CWnd::get_accValue
EXTRN	?GetDispatchIID@CCmdTarget@@UAEHPAU_GUID@@@Z:NEAR ; CCmdTarget::GetDispatchIID
EXTRN	?GetTypeInfoCount@CCmdTarget@@UAEIXZ:NEAR	; CCmdTarget::GetTypeInfoCount
EXTRN	?GetTypeLibCache@CCmdTarget@@UAEPAVCTypeLibCache@@XZ:NEAR ; CCmdTarget::GetTypeLibCache
EXTRN	?get_accDescription@CWnd@@UAEJUtagVARIANT@@PAPA_W@Z:NEAR ; CWnd::get_accDescription
EXTRN	?AfxGetMessageManager@@YAPAVIMessageManager@@XZ:NEAR ; AfxGetMessageManager
EXTRN	?GetTypeLib@CCmdTarget@@UAEJKPAPAUITypeLib@@@Z:NEAR ; CCmdTarget::GetTypeLib
EXTRN	?get_accRole@CWnd@@UAEJUtagVARIANT@@PAU2@@Z:NEAR ; CWnd::get_accRole
EXTRN	?get_accState@CWnd@@UAEJUtagVARIANT@@PAU2@@Z:NEAR ; CWnd::get_accState
EXTRN	?get_accHelp@CWnd@@UAEJUtagVARIANT@@PAPA_W@Z:NEAR ; CWnd::get_accHelp
EXTRN	?get_accHelpTopic@CWnd@@UAEJPAPA_WUtagVARIANT@@PAJ@Z:NEAR ; CWnd::get_accHelpTopic
EXTRN	?get_accKeyboardShortcut@CWnd@@UAEJUtagVARIANT@@PAPA_W@Z:NEAR ; CWnd::get_accKeyboardShortcut
EXTRN	?get_accFocus@CWnd@@UAEJPAUtagVARIANT@@@Z:NEAR	; CWnd::get_accFocus
EXTRN	?get_accSelection@CWnd@@UAEJPAUtagVARIANT@@@Z:NEAR ; CWnd::get_accSelection
EXTRN	?get_accDefaultAction@CWnd@@UAEJUtagVARIANT@@PAPA_W@Z:NEAR ; CWnd::get_accDefaultAction
EXTRN	?GetCommandMap@CCmdTarget@@MBEPBUAFX_OLECMDMAP@@XZ:NEAR ; CCmdTarget::GetCommandMap
EXTRN	?accSelect@CWnd@@UAEJJUtagVARIANT@@@Z:NEAR	; CWnd::accSelect
EXTRN	?accLocation@CWnd@@UAEJPAJ000UtagVARIANT@@@Z:NEAR ; CWnd::accLocation
EXTRN	?GetDispatchMap@CCmdTarget@@MBEPBUAFX_DISPMAP@@XZ:NEAR ; CCmdTarget::GetDispatchMap
EXTRN	?accNavigate@CWnd@@UAEJJUtagVARIANT@@PAU2@@Z:NEAR ; CWnd::accNavigate
EXTRN	?accHitTest@CWnd@@UAEJJJPAUtagVARIANT@@@Z:NEAR	; CWnd::accHitTest
EXTRN	?GetConnectionMap@CCmdTarget@@MBEPBUAFX_CONNECTIONMAP@@XZ:NEAR ; CCmdTarget::GetConnectionMap
EXTRN	?accDoDefaultAction@CWnd@@UAEJUtagVARIANT@@@Z:NEAR ; CWnd::accDoDefaultAction
EXTRN	?put_accName@CWnd@@UAEJUtagVARIANT@@PA_W@Z:NEAR	; CWnd::put_accName
EXTRN	?put_accValue@CWnd@@UAEJUtagVARIANT@@PA_W@Z:NEAR ; CWnd::put_accValue
EXTRN	?SetProxy@CWnd@@UAEJPAUIAccessibleProxy@@@Z:NEAR ; CWnd::SetProxy
EXTRN	?CreateAccessibleProxy@CWnd@@UAEJIJPAJ@Z:NEAR	; CWnd::CreateAccessibleProxy
EXTRN	?GetEventSinkMap@CCmdTarget@@MBEPBUAFX_EVENTSINKMAP@@XZ:NEAR ; CCmdTarget::GetEventSinkMap
EXTRN	?OnCreateAggregates@CCmdTarget@@UAEHXZ:NEAR	; CCmdTarget::OnCreateAggregates
EXTRN	?OnCommand@CWnd@@MAEHIJ@Z:NEAR			; CWnd::OnCommand
EXTRN	?GetInterfaceHook@CCmdTarget@@UAEPAUIUnknown@@PBX@Z:NEAR ; CCmdTarget::GetInterfaceHook
EXTRN	?OnNotify@CWnd@@MAEHIJPAJ@Z:NEAR		; CWnd::OnNotify
EXTRN	??_ECTabBarWnd@@UAEPAXI@Z:NEAR			; CTabBarWnd::`vector deleting destructor'
EXTRN	?GetExtraConnectionPoints@CCmdTarget@@MAEHPAVCPtrArray@@@Z:NEAR ; CCmdTarget::GetExtraConnectionPoints
EXTRN	?GetConnectionHook@CCmdTarget@@MAEPAUIConnectionPoint@@ABU_GUID@@@Z:NEAR ; CCmdTarget::GetConnectionHook
EXTRN	??0CFont@@QAE@XZ:NEAR				; CFont::CFont
EXTRN	?CreateFontIndirectA@CFont@@QAEHPBUtagLOGFONTA@@@Z:NEAR ; CFont::CreateFontIndirectA
EXTRN	??1CFont@@UAE@XZ:NEAR				; CFont::~CFont
EXTRN	??0CRect@@QAE@XZ:NEAR				; CRect::CRect
EXTRN	?PreSubclassWindow@CWnd@@UAEXXZ:NEAR		; CWnd::PreSubclassWindow
EXTRN	?Create@CWnd@@UAEHPBD0KABUtagRECT@@PAV1@IPAUCCreateContext@@@Z:NEAR ; CWnd::Create
EXTRN	?CreateEx@CWnd@@UAEHKPBD0KHHHHPAUHWND__@@PAUHMENU__@@PAX@Z:NEAR ; CWnd::CreateEx
EXTRN	?CreateEx@CWnd@@UAEHKPBD0KABUtagRECT@@PAV1@IPAX@Z:NEAR ; CWnd::CreateEx
EXTRN	??2CObject@@SGPAXI@Z:NEAR			; CObject::operator new
EXTRN	??3CObject@@SGXPAX@Z:NEAR			; CObject::operator delete
EXTRN	?Serialize@CObject@@UAEXAAVCArchive@@@Z:NEAR	; CObject::Serialize
EXTRN	?DestroyWindow@CWnd@@UAEHXZ:NEAR		; CWnd::DestroyWindow
EXTRN	?PreCreateWindow@CWnd@@UAEHAAUtagCREATESTRUCTA@@@Z:NEAR ; CWnd::PreCreateWindow
EXTRN	?CalcWindowRect@CWnd@@UAEXPAUtagRECT@@I@Z:NEAR	; CWnd::CalcWindowRect
EXTRN	?GetSuperWndProcAddr@CWnd@@MAEPAP6GJPAUHWND__@@IIJ@ZXZ:NEAR ; CWnd::GetSuperWndProcAddr
EXTRN	?DoDataExchange@CWnd@@MAEXPAVCDataExchange@@@Z:NEAR ; CWnd::DoDataExchange
EXTRN	?BeginModalState@CWnd@@UAEXXZ:NEAR		; CWnd::BeginModalState
EXTRN	?EndModalState@CWnd@@UAEXXZ:NEAR		; CWnd::EndModalState
EXTRN	?PreTranslateMessage@CWnd@@UAEHPAUtagMSG@@@Z:NEAR ; CWnd::PreTranslateMessage
EXTRN	?OnAmbientProperty@CWnd@@UAEHPAVCOleControlSite@@JPAUtagVARIANT@@@Z:NEAR ; CWnd::OnAmbientProperty
EXTRN	?WindowProc@CWnd@@MAEJIIJ@Z:NEAR		; CWnd::WindowProc
EXTRN	?OnWndMsg@CWnd@@MAEHIIJPAJ@Z:NEAR		; CWnd::OnWndMsg
EXTRN	?DefWindowProcA@CWnd@@MAEJIIJ@Z:NEAR		; CWnd::DefWindowProcA
EXTRN	?PostNcDestroy@CWnd@@MAEXXZ:NEAR		; CWnd::PostNcDestroy
EXTRN	?OnChildNotify@CWnd@@MAEHIIJPAJ@Z:NEAR		; CWnd::OnChildNotify
EXTRN	?CheckAutoCenter@CWnd@@UAEHXZ:NEAR		; CWnd::CheckAutoCenter
EXTRN	?AssertValid@CWnd@@UBEXXZ:NEAR			; CWnd::AssertValid
EXTRN	?Dump@CWnd@@UBEXAAVCDumpContext@@@Z:NEAR	; CWnd::Dump
EXTRN	??0CBasicWnd@@QAE@XZ:NEAR			; CBasicWnd::CBasicWnd
EXTRN	??1CBasicWnd@@UAE@XZ:NEAR			; CBasicWnd::~CBasicWnd
EXTRN	?IsFrameWnd@CWnd@@UBEHXZ:NEAR			; CWnd::IsFrameWnd
EXTRN	?OnFinalRelease@CWnd@@UAEXXZ:NEAR		; CWnd::OnFinalRelease
EXTRN	?CreateControlContainer@CWnd@@MAEHPAPAVCOleControlContainer@@@Z:NEAR ; CWnd::CreateControlContainer
EXTRN	?CreateControlSite@CWnd@@MAEHPAVCOleControlContainer@@PAPAVCOleControlSite@@IABU_GUID@@@Z:NEAR ; CWnd::CreateControlSite
EXTRN	?SetOccDialogInfo@CWnd@@MAEHPAU_AFX_OCC_DIALOG_INFO@@@Z:NEAR ; CWnd::SetOccDialogInfo
EXTRN	__RTC_CheckEsp:NEAR
EXTRN	_memset:NEAR
EXTRN	__except_list:DWORD
EXTRN	___security_cookie:DWORD
EXTRN	@_RTC_CheckStackVars@8:NEAR
EXTRN	_strcpy:NEAR
EXTRN	@__security_check_cookie@4:NEAR
EXTRN	___CxxFrameHandler:NEAR
EXTRN	?OnToolHitTest@CWnd@@UBEHVCPoint@@PAUtagTOOLINFOA@@@Z:NEAR ; CWnd::OnToolHitTest
EXTRN	?GetScrollBarCtrl@CWnd@@UBEPAVCScrollBar@@H@Z:NEAR ; CWnd::GetScrollBarCtrl
EXTRN	??0CCWToolTips@@QAE@XZ:NEAR			; CCWToolTips::CCWToolTips
EXTRN	?WinHelpA@CWnd@@UAEXKI@Z:NEAR			; CWnd::WinHelpA
EXTRN	?HtmlHelpA@CWnd@@UAEXKI@Z:NEAR			; CWnd::HtmlHelpA
EXTRN	??_7type_info@@6B@:QWORD			; type_info::`vftable'
EXTRN	?WinHelpInternal@CWnd@@UAEXKI@Z:NEAR		; CWnd::WinHelpInternal
EXTRN	?ContinueModal@CWnd@@UAEHXZ:NEAR		; CWnd::ContinueModal
EXTRN	?EndModalLoop@CWnd@@UAEXH@Z:NEAR		; CWnd::EndModalLoop
xdata$x	SEGMENT
$T191227 DD	0ffffffffH
	DD	FLAT:$L191204
	DD	00H
	DD	FLAT:$L191205
	DD	01H
	DD	FLAT:$L191206
	DD	02H
	DD	FLAT:$L191207
	DD	03H
	DD	FLAT:$L191208
	DD	04H
	DD	FLAT:$L191209
	DD	05H
	DD	FLAT:$L191210
	DD	06H
	DD	FLAT:$L191211
	DD	07H
	DD	FLAT:$L191212
$T191216 DD	019930520H
	DD	09H
	DD	FLAT:$T191227
	DD	2 DUP(00H)
	DD	2 DUP(00H)
xdata$x	ENDS
;	COMDAT ??_7CTabBarWnd@@6BCBasicWnd@@@
CONST	SEGMENT
??_7CTabBarWnd@@6BCBasicWnd@@@ DD FLAT:??_R4CTabBarWnd@@6BCBasicWnd@@@ ; CTabBarWnd::`vftable'
	DD	FLAT:?GetRuntimeClass@CTabBarWnd@@UBEPAUCRuntimeClass@@XZ
	DD	FLAT:??_ECTabBarWnd@@UAEPAXI@Z
	DD	FLAT:?Serialize@CObject@@UAEXAAVCArchive@@@Z
	DD	FLAT:?AssertValid@CWnd@@UBEXXZ
	DD	FLAT:?Dump@CWnd@@UBEXAAVCDumpContext@@@Z
	DD	FLAT:?OnCmdMsg@CCmdTarget@@UAEHIHPAXPAUAFX_CMDHANDLERINFO@@@Z
	DD	FLAT:?OnFinalRelease@CWnd@@UAEXXZ
	DD	FLAT:?IsInvokeAllowed@CCmdTarget@@UAEHJ@Z
	DD	FLAT:?GetDispatchIID@CCmdTarget@@UAEHPAU_GUID@@@Z
	DD	FLAT:?GetTypeInfoCount@CCmdTarget@@UAEIXZ
	DD	FLAT:?GetTypeLibCache@CCmdTarget@@UAEPAVCTypeLibCache@@XZ
	DD	FLAT:?GetTypeLib@CCmdTarget@@UAEJKPAPAUITypeLib@@@Z
	DD	FLAT:?GetMessageMap@CTabBarWnd@@MBEPBUAFX_MSGMAP@@XZ
	DD	FLAT:?GetCommandMap@CCmdTarget@@MBEPBUAFX_OLECMDMAP@@XZ
	DD	FLAT:?GetDispatchMap@CCmdTarget@@MBEPBUAFX_DISPMAP@@XZ
	DD	FLAT:?GetConnectionMap@CCmdTarget@@MBEPBUAFX_CONNECTIONMAP@@XZ
	DD	FLAT:?GetInterfaceMap@CWnd@@MBEPBUAFX_INTERFACEMAP@@XZ
	DD	FLAT:?GetEventSinkMap@CCmdTarget@@MBEPBUAFX_EVENTSINKMAP@@XZ
	DD	FLAT:?OnCreateAggregates@CCmdTarget@@UAEHXZ
	DD	FLAT:?GetInterfaceHook@CCmdTarget@@UAEPAUIUnknown@@PBX@Z
	DD	FLAT:?GetExtraConnectionPoints@CCmdTarget@@MAEHPAVCPtrArray@@@Z
	DD	FLAT:?GetConnectionHook@CCmdTarget@@MAEPAUIConnectionPoint@@ABU_GUID@@@Z
	DD	FLAT:?PreSubclassWindow@CWnd@@UAEXXZ
	DD	FLAT:?Create@CWnd@@UAEHPBD0KABUtagRECT@@PAV1@IPAUCCreateContext@@@Z
	DD	FLAT:?CreateEx@CWnd@@UAEHKPBD0KABUtagRECT@@PAV1@IPAX@Z
	DD	FLAT:?CreateEx@CWnd@@UAEHKPBD0KHHHHPAUHWND__@@PAUHMENU__@@PAX@Z
	DD	FLAT:?DestroyWindow@CWnd@@UAEHXZ
	DD	FLAT:?PreCreateWindow@CWnd@@UAEHAAUtagCREATESTRUCTA@@@Z
	DD	FLAT:?CalcWindowRect@CWnd@@UAEXPAUtagRECT@@I@Z
	DD	FLAT:?OnToolHitTest@CWnd@@UBEHVCPoint@@PAUtagTOOLINFOA@@@Z
	DD	FLAT:?GetScrollBarCtrl@CWnd@@UBEPAVCScrollBar@@H@Z
	DD	FLAT:?WinHelpA@CWnd@@UAEXKI@Z
	DD	FLAT:?HtmlHelpA@CWnd@@UAEXKI@Z
	DD	FLAT:?WinHelpInternal@CWnd@@UAEXKI@Z
	DD	FLAT:?ContinueModal@CWnd@@UAEHXZ
	DD	FLAT:?EndModalLoop@CWnd@@UAEXH@Z
	DD	FLAT:?EnsureStdObj@CWnd@@UAEJXZ
	DD	FLAT:?get_accParent@CWnd@@UAEJPAPAUIDispatch@@@Z
	DD	FLAT:?get_accChildCount@CWnd@@UAEJPAJ@Z
	DD	FLAT:?get_accChild@CWnd@@UAEJUtagVARIANT@@PAPAUIDispatch@@@Z
	DD	FLAT:?get_accName@CWnd@@UAEJUtagVARIANT@@PAPA_W@Z
	DD	FLAT:?get_accValue@CWnd@@UAEJUtagVARIANT@@PAPA_W@Z
	DD	FLAT:?get_accDescription@CWnd@@UAEJUtagVARIANT@@PAPA_W@Z
	DD	FLAT:?get_accRole@CWnd@@UAEJUtagVARIANT@@PAU2@@Z
	DD	FLAT:?get_accState@CWnd@@UAEJUtagVARIANT@@PAU2@@Z
	DD	FLAT:?get_accHelp@CWnd@@UAEJUtagVARIANT@@PAPA_W@Z
	DD	FLAT:?get_accHelpTopic@CWnd@@UAEJPAPA_WUtagVARIANT@@PAJ@Z
	DD	FLAT:?get_accKeyboardShortcut@CWnd@@UAEJUtagVARIANT@@PAPA_W@Z
	DD	FLAT:?get_accFocus@CWnd@@UAEJPAUtagVARIANT@@@Z
	DD	FLAT:?get_accSelection@CWnd@@UAEJPAUtagVARIANT@@@Z
	DD	FLAT:?get_accDefaultAction@CWnd@@UAEJUtagVARIANT@@PAPA_W@Z
	DD	FLAT:?accSelect@CWnd@@UAEJJUtagVARIANT@@@Z
	DD	FLAT:?accLocation@CWnd@@UAEJPAJ000UtagVARIANT@@@Z
	DD	FLAT:?accNavigate@CWnd@@UAEJJUtagVARIANT@@PAU2@@Z
	DD	FLAT:?accHitTest@CWnd@@UAEJJJPAUtagVARIANT@@@Z
	DD	FLAT:?accDoDefaultAction@CWnd@@UAEJUtagVARIANT@@@Z
	DD	FLAT:?put_accName@CWnd@@UAEJUtagVARIANT@@PA_W@Z
	DD	FLAT:?put_accValue@CWnd@@UAEJUtagVARIANT@@PA_W@Z
	DD	FLAT:?SetProxy@CWnd@@UAEJPAUIAccessibleProxy@@@Z
	DD	FLAT:?CreateAccessibleProxy@CWnd@@UAEJIJPAJ@Z
	DD	FLAT:?OnCommand@CWnd@@MAEHIJ@Z
	DD	FLAT:?OnNotify@CWnd@@MAEHIJPAJ@Z
	DD	FLAT:?GetSuperWndProcAddr@CWnd@@MAEPAP6GJPAUHWND__@@IIJ@ZXZ
	DD	FLAT:?DoDataExchange@CWnd@@MAEXPAVCDataExchange@@@Z
	DD	FLAT:?BeginModalState@CWnd@@UAEXXZ
	DD	FLAT:?EndModalState@CWnd@@UAEXXZ
	DD	FLAT:?PreTranslateMessage@CWnd@@UAEHPAUtagMSG@@@Z
	DD	FLAT:?OnAmbientProperty@CWnd@@UAEHPAVCOleControlSite@@JPAUtagVARIANT@@@Z
	DD	FLAT:?WindowProc@CWnd@@MAEJIIJ@Z
	DD	FLAT:?OnWndMsg@CWnd@@MAEHIIJPAJ@Z
	DD	FLAT:?DefWindowProcA@CWnd@@MAEJIIJ@Z
	DD	FLAT:?PostNcDestroy@CWnd@@MAEXXZ
	DD	FLAT:?OnChildNotify@CWnd@@MAEHIIJPAJ@Z
	DD	FLAT:?CheckAutoCenter@CWnd@@UAEHXZ
	DD	FLAT:?IsFrameWnd@CWnd@@UBEHXZ
	DD	FLAT:?CreateControlContainer@CWnd@@MAEHPAPAVCOleControlContainer@@@Z
	DD	FLAT:?CreateControlSite@CWnd@@MAEHPAVCOleControlContainer@@PAPAVCOleControlSite@@IABU_GUID@@@Z
	DD	FLAT:?SetOccDialogInfo@CWnd@@MAEHPAU_AFX_OCC_DIALOG_INFO@@@Z
CONST	ENDS
;	COMDAT ??_7CTabBarWnd@@6BCBasicSkinWnd@@@
CONST	SEGMENT
??_7CTabBarWnd@@6BCBasicSkinWnd@@@ DD FLAT:??_R4CTabBarWnd@@6BCBasicSkinWnd@@@ ; CTabBarWnd::`vftable'
	DD	FLAT:??_ECTabBarWnd@@WFE@AEPAXI@Z
	DD	FLAT:?LoadSkin@CTabBarWnd@@UAEXXZ
CONST	ENDS
;	COMDAT ??_7CTabBarWnd@@6BITabBarObserver@@@
CONST	SEGMENT
??_7CTabBarWnd@@6BITabBarObserver@@@ DD FLAT:??_R4CTabBarWnd@@6BITabBarObserver@@@ ; CTabBarWnd::`vftable'
	DD	FLAT:??_ECTabBarWnd@@WFI@AEPAXI@Z
	DD	FLAT:?ITabBarOb_CreateNewTab@CTabBarWnd@@UAEXAAUTAB_ITEM@@@Z
	DD	FLAT:?ITabBarOb_OpenExistTab@CTabBarWnd@@UAEXAAUTAB_ITEM@@@Z
	DD	FLAT:?ITabBarOb_DelTab@CTabBarWnd@@UAEXAAUTAB_ITEM@@@Z
	DD	FLAT:?ITabBarOb_OpenTabError@CTabBarWnd@@UAEXH@Z
CONST	ENDS
;	COMDAT ??_R4CTabBarWnd@@6BCBasicWnd@@@
rdata$r	SEGMENT
??_R4CTabBarWnd@@6BCBasicWnd@@@ DD 00H			; CTabBarWnd::`RTTI Complete Object Locator'
	DD	00H
	DD	00H
	DD	FLAT:??_R0?AVCTabBarWnd@@@8
	DD	FLAT:??_R3CTabBarWnd@@8
rdata$r	ENDS
;	COMDAT ??_R0?AVCTabBarWnd@@@8
_DATA	SEGMENT
??_R0?AVCTabBarWnd@@@8 DD FLAT:??_7type_info@@6B@	; CTabBarWnd `RTTI Type Descriptor'
	DD	00H
	DB	'.?AVCTabBarWnd@@', 00H
_DATA	ENDS
;	COMDAT ??_R3CTabBarWnd@@8
rdata$r	SEGMENT
??_R3CTabBarWnd@@8 DD 00H				; CTabBarWnd::`RTTI Class Hierarchy Descriptor'
	DD	01H
	DD	08H
	DD	FLAT:??_R2CTabBarWnd@@8
rdata$r	ENDS
;	COMDAT ??_R2CTabBarWnd@@8
rdata$r	SEGMENT
??_R2CTabBarWnd@@8 DD FLAT:??_R1A@?0A@A@CTabBarWnd@@8	; CTabBarWnd::`RTTI Base Class Array'
	DD	FLAT:??_R1A@?0A@A@CBasicWnd@@8
	DD	FLAT:??_R1A@?0A@A@CWnd@@8
	DD	FLAT:??_R1A@?0A@A@CCmdTarget@@8
	DD	FLAT:??_R1A@?0A@A@CObject@@8
	DD	FLAT:??_R1FE@?0A@A@CBasicSkinWnd@@8
	DD	FLAT:??_R1FI@?0A@A@ITabBarObserver@@8
	DD	FLAT:??_R1FI@?0A@A@IMessageObserver@@8
rdata$r	ENDS
;	COMDAT ??_R1A@?0A@A@CTabBarWnd@@8
rdata$r	SEGMENT
??_R1A@?0A@A@CTabBarWnd@@8 DD FLAT:??_R0?AVCTabBarWnd@@@8 ; CTabBarWnd::`RTTI Base Class Descriptor at (0,-1,0,0)'
	DD	07H
	DD	00H
	DD	0ffffffffH
	DD	00H
	DD	00H
rdata$r	ENDS
;	COMDAT ??_R1A@?0A@A@CBasicWnd@@8
rdata$r	SEGMENT
??_R1A@?0A@A@CBasicWnd@@8 DD FLAT:??_R0?AVCBasicWnd@@@8	; CBasicWnd::`RTTI Base Class Descriptor at (0,-1,0,0)'
	DD	03H
	DD	00H
	DD	0ffffffffH
	DD	00H
	DD	00H
rdata$r	ENDS
;	COMDAT ??_R0?AVCBasicWnd@@@8
_DATA	SEGMENT
??_R0?AVCBasicWnd@@@8 DD FLAT:??_7type_info@@6B@	; CBasicWnd `RTTI Type Descriptor'
	DD	00H
	DB	'.?AVCBasicWnd@@', 00H
_DATA	ENDS
;	COMDAT ??_R1A@?0A@A@CWnd@@8
rdata$r	SEGMENT
??_R1A@?0A@A@CWnd@@8 DD FLAT:??_R0?AVCWnd@@@8		; CWnd::`RTTI Base Class Descriptor at (0,-1,0,0)'
	DD	02H
	DD	00H
	DD	0ffffffffH
	DD	00H
	DD	00H
rdata$r	ENDS
;	COMDAT ??_R0?AVCWnd@@@8
_DATA	SEGMENT
??_R0?AVCWnd@@@8 DD FLAT:??_7type_info@@6B@		; CWnd `RTTI Type Descriptor'
	DD	00H
	DB	'.?AVCWnd@@', 00H
_DATA	ENDS
;	COMDAT ??_R1A@?0A@A@CCmdTarget@@8
rdata$r	SEGMENT
??_R1A@?0A@A@CCmdTarget@@8 DD FLAT:??_R0?AVCCmdTarget@@@8 ; CCmdTarget::`RTTI Base Class Descriptor at (0,-1,0,0)'
	DD	01H
	DD	00H
	DD	0ffffffffH
	DD	00H
	DD	00H
rdata$r	ENDS
;	COMDAT ??_R0?AVCCmdTarget@@@8
_DATA	SEGMENT
??_R0?AVCCmdTarget@@@8 DD FLAT:??_7type_info@@6B@	; CCmdTarget `RTTI Type Descriptor'
	DD	00H
	DB	'.?AVCCmdTarget@@', 00H
_DATA	ENDS
;	COMDAT ??_R1A@?0A@A@CObject@@8
rdata$r	SEGMENT
??_R1A@?0A@A@CObject@@8 DD FLAT:??_R0?AVCObject@@@8	; CObject::`RTTI Base Class Descriptor at (0,-1,0,0)'
	DD	00H
	DD	00H
	DD	0ffffffffH
	DD	00H
	DD	00H
rdata$r	ENDS
;	COMDAT ??_R0?AVCObject@@@8
_DATA	SEGMENT
??_R0?AVCObject@@@8 DD FLAT:??_7type_info@@6B@		; CObject `RTTI Type Descriptor'
	DD	00H
	DB	'.?AVCObject@@', 00H
_DATA	ENDS
;	COMDAT ??_R1FE@?0A@A@CBasicSkinWnd@@8
rdata$r	SEGMENT
??_R1FE@?0A@A@CBasicSkinWnd@@8 DD FLAT:??_R0?AVCBasicSkinWnd@@@8 ; CBasicSkinWnd::`RTTI Base Class Descriptor at (84,-1,0,0)'
	DD	00H
	DD	054H
	DD	0ffffffffH
	DD	00H
	DD	00H
rdata$r	ENDS
;	COMDAT ??_R0?AVCBasicSkinWnd@@@8
_DATA	SEGMENT
??_R0?AVCBasicSkinWnd@@@8 DD FLAT:??_7type_info@@6B@	; CBasicSkinWnd `RTTI Type Descriptor'
	DD	00H
	DB	'.?AVCBasicSkinWnd@@', 00H
	ORG $-28
	DD	FLAT:??_7type_info@@6B@
	DD	00H
	DB	'.?AVCBasicSkinWnd@@', 00H
_DATA	ENDS
;	COMDAT ??_R1FI@?0A@A@ITabBarObserver@@8
rdata$r	SEGMENT
??_R1FI@?0A@A@ITabBarObserver@@8 DD FLAT:??_R0?AVITabBarObserver@@@8 ; ITabBarObserver::`RTTI Base Class Descriptor at (88,-1,0,0)'
	DD	01H
	DD	058H
	DD	0ffffffffH
	DD	00H
	DD	00H
rdata$r	ENDS
;	COMDAT ??_R0?AVITabBarObserver@@@8
_DATA	SEGMENT
??_R0?AVITabBarObserver@@@8 DD FLAT:??_7type_info@@6B@	; ITabBarObserver `RTTI Type Descriptor'
	DD	00H
	DB	'.?AVITabBarObserver@@', 00H
_DATA	ENDS
;	COMDAT ??_R1FI@?0A@A@IMessageObserver@@8
rdata$r	SEGMENT
??_R1FI@?0A@A@IMessageObserver@@8 DD FLAT:??_R0?AVIMessageObserver@@@8 ; IMessageObserver::`RTTI Base Class Descriptor at (88,-1,0,0)'
	DD	00H
	DD	058H
	DD	0ffffffffH
	DD	00H
	DD	00H
rdata$r	ENDS
;	COMDAT ??_R0?AVIMessageObserver@@@8
_DATA	SEGMENT
??_R0?AVIMessageObserver@@@8 DD FLAT:??_7type_info@@6B@	; IMessageObserver `RTTI Type Descriptor'
	DD	00H
	DB	'.?AVIMessageObserver@@', 00H
	ORG $-31
	DD	FLAT:??_7type_info@@6B@
	DD	00H
	DB	'.?AVIMessageObserver@@', 00H
_DATA	ENDS
;	COMDAT ??_R4CTabBarWnd@@6BCBasicSkinWnd@@@
rdata$r	SEGMENT
??_R4CTabBarWnd@@6BCBasicSkinWnd@@@ DD 00H		; CTabBarWnd::`RTTI Complete Object Locator'
	DD	054H
	DD	00H
	DD	FLAT:??_R0?AVCTabBarWnd@@@8
	DD	FLAT:??_R3CTabBarWnd@@8
rdata$r	ENDS
;	COMDAT ??_R4CTabBarWnd@@6BITabBarObserver@@@
rdata$r	SEGMENT
??_R4CTabBarWnd@@6BITabBarObserver@@@ DD 00H		; CTabBarWnd::`RTTI Complete Object Locator'
	DD	058H
	DD	00H
	DD	FLAT:??_R0?AVCTabBarWnd@@@8
	DD	FLAT:??_R3CTabBarWnd@@8
; Function compile flags: /Odt /RTCsu
rdata$r	ENDS
_TEXT	SEGMENT
tv220 = -108						; size = 4
tv226 = -104						; size = 4
tv218 = -100						; size = 4
$T191199 = -96						; size = 4
$T191198 = -92						; size = 4
_lf$ = -84						; size = 60
_this$ = -20						; size = 4
__$ArrayPad$ = -16					; size = 4
__$EHRec$ = -12						; size = 12
__$ReturnAddr$ = 4					; size = 4
??0CTabBarWnd@@QAE@XZ PROC NEAR				; CTabBarWnd::CTabBarWnd
; _this$ = ecx

; 15   : {

  00030	55		 push	 ebp
  00031	8b ec		 mov	 ebp, esp
  00033	6a ff		 push	 -1
  00035	68 00 00 00 00	 push	 __ehhandler$??0CTabBarWnd@@QAE@XZ
  0003a	64 a1 00 00 00
	00		 mov	 eax, DWORD PTR fs:__except_list
  00040	50		 push	 eax
  00041	64 89 25 00 00
	00 00		 mov	 DWORD PTR fs:__except_list, esp
  00048	83 ec 60	 sub	 esp, 96			; 00000060H
  0004b	56		 push	 esi
  0004c	57		 push	 edi
  0004d	51		 push	 ecx
  0004e	8d 7d 94	 lea	 edi, DWORD PTR [ebp-108]
  00051	b9 18 00 00 00	 mov	 ecx, 24			; 00000018H
  00056	b8 cc cc cc cc	 mov	 eax, -858993460		; ccccccccH
  0005b	f3 ab		 rep stosd
  0005d	59		 pop	 ecx
  0005e	a1 00 00 00 00	 mov	 eax, DWORD PTR ___security_cookie
  00063	89 45 f0	 mov	 DWORD PTR __$ArrayPad$[ebp], eax
  00066	89 4d ec	 mov	 DWORD PTR _this$[ebp], ecx
  00069	8b 4d ec	 mov	 ecx, DWORD PTR _this$[ebp]
  0006c	e8 00 00 00 00	 call	 ??0CBasicWnd@@QAE@XZ	; CBasicWnd::CBasicWnd
  00071	c7 45 fc 00 00
	00 00		 mov	 DWORD PTR __$EHRec$[ebp+8], 0
  00078	8b 4d ec	 mov	 ecx, DWORD PTR _this$[ebp]
  0007b	83 c1 54	 add	 ecx, 84			; 00000054H
  0007e	e8 00 00 00 00	 call	 ??0CBasicSkinWnd@@QAE@XZ
  00083	c6 45 fc 01	 mov	 BYTE PTR __$EHRec$[ebp+8], 1
  00087	8b 4d ec	 mov	 ecx, DWORD PTR _this$[ebp]
  0008a	83 c1 58	 add	 ecx, 88			; 00000058H
  0008d	e8 00 00 00 00	 call	 ??0ITabBarObserver@@QAE@XZ
  00092	c6 45 fc 02	 mov	 BYTE PTR __$EHRec$[ebp+8], 2
  00096	8b 45 ec	 mov	 eax, DWORD PTR _this$[ebp]
  00099	c7 00 00 00 00
	00		 mov	 DWORD PTR [eax], OFFSET FLAT:??_7CTabBarWnd@@6BCBasicWnd@@@
  0009f	8b 4d ec	 mov	 ecx, DWORD PTR _this$[ebp]
  000a2	c7 41 54 00 00
	00 00		 mov	 DWORD PTR [ecx+84], OFFSET FLAT:??_7CTabBarWnd@@6BCBasicSkinWnd@@@
  000a9	8b 55 ec	 mov	 edx, DWORD PTR _this$[ebp]
  000ac	c7 42 58 00 00
	00 00		 mov	 DWORD PTR [edx+88], OFFSET FLAT:??_7CTabBarWnd@@6BITabBarObserver@@@
  000b3	8b 4d ec	 mov	 ecx, DWORD PTR _this$[ebp]
  000b6	83 c1 60	 add	 ecx, 96			; 00000060H
  000b9	e8 00 00 00 00	 call	 ??0CFont@@QAE@XZ	; CFont::CFont
  000be	c6 45 fc 03	 mov	 BYTE PTR __$EHRec$[ebp+8], 3
  000c2	8b 4d ec	 mov	 ecx, DWORD PTR _this$[ebp]
  000c5	83 c1 68	 add	 ecx, 104		; 00000068H
  000c8	e8 00 00 00 00	 call	 ??0CFont@@QAE@XZ	; CFont::CFont
  000cd	c6 45 fc 04	 mov	 BYTE PTR __$EHRec$[ebp+8], 4
  000d1	8b 4d ec	 mov	 ecx, DWORD PTR _this$[ebp]
  000d4	83 c1 70	 add	 ecx, 112		; 00000070H
  000d7	e8 00 00 00 00	 call	 ??0?$vector@VCRect@@V?$allocator@VCRect@@@std@@@std@@QAE@XZ ; std::vector<CRect,std::allocator<CRect> >::vector<CRect,std::allocator<CRect> >
  000dc	c6 45 fc 05	 mov	 BYTE PTR __$EHRec$[ebp+8], 5
  000e0	8b 4d ec	 mov	 ecx, DWORD PTR _this$[ebp]
  000e3	81 c1 80 00 00
	00		 add	 ecx, 128		; 00000080H
  000e9	e8 00 00 00 00	 call	 ??0?$vector@VCRect@@V?$allocator@VCRect@@@std@@@std@@QAE@XZ ; std::vector<CRect,std::allocator<CRect> >::vector<CRect,std::allocator<CRect> >
  000ee	c6 45 fc 06	 mov	 BYTE PTR __$EHRec$[ebp+8], 6
  000f2	8b 4d ec	 mov	 ecx, DWORD PTR _this$[ebp]
  000f5	81 c1 90 00 00
	00		 add	 ecx, 144		; 00000090H
  000fb	e8 00 00 00 00	 call	 ??0?$vector@UTAB_ITEM@@V?$allocator@UTAB_ITEM@@@std@@@std@@QAE@XZ ; std::vector<TAB_ITEM,std::allocator<TAB_ITEM> >::vector<TAB_ITEM,std::allocator<TAB_ITEM> >
  00100	c6 45 fc 07	 mov	 BYTE PTR __$EHRec$[ebp+8], 7
  00104	8b 4d ec	 mov	 ecx, DWORD PTR _this$[ebp]
  00107	81 c1 a0 00 00
	00		 add	 ecx, 160		; 000000a0H
  0010d	e8 00 00 00 00	 call	 ??0CRect@@QAE@XZ	; CRect::CRect

; 16   : 	m_iTabCur    = -1;

  00112	8b 45 ec	 mov	 eax, DWORD PTR _this$[ebp]
  00115	c7 80 b4 00 00
	00 ff ff ff ff	 mov	 DWORD PTR [eax+180], -1

; 17   : 	m_iTabOver   = -1;

  0011f	8b 4d ec	 mov	 ecx, DWORD PTR _this$[ebp]
  00122	c7 81 b8 00 00
	00 ff ff ff ff	 mov	 DWORD PTR [ecx+184], -1

; 18   : 	m_iCloseOver = -1;

  0012c	8b 55 ec	 mov	 edx, DWORD PTR _this$[ebp]
  0012f	c7 82 bc 00 00
	00 ff ff ff ff	 mov	 DWORD PTR [edx+188], -1

; 19   : 	m_bOverNewWindow = false;

  00139	8b 45 ec	 mov	 eax, DWORD PTR _this$[ebp]
  0013c	c6 80 b0 00 00
	00 00		 mov	 BYTE PTR [eax+176], 0

; 20   : 
; 21   : 	m_pBmpRectNormalLeft   = NULL;

  00143	8b 4d ec	 mov	 ecx, DWORD PTR _this$[ebp]
  00146	c7 81 cc 00 00
	00 00 00 00 00	 mov	 DWORD PTR [ecx+204], 0

; 22   : 	m_pBmpRectNormalMiddle = NULL;

  00150	8b 55 ec	 mov	 edx, DWORD PTR _this$[ebp]
  00153	c7 82 d0 00 00
	00 00 00 00 00	 mov	 DWORD PTR [edx+208], 0

; 23   : 	m_pBmpRectNormalRight  = NULL;

  0015d	8b 45 ec	 mov	 eax, DWORD PTR _this$[ebp]
  00160	c7 80 d4 00 00
	00 00 00 00 00	 mov	 DWORD PTR [eax+212], 0

; 24   : 
; 25   : 	m_pBmpRectOverLeft   = NULL;

  0016a	8b 4d ec	 mov	 ecx, DWORD PTR _this$[ebp]
  0016d	c7 81 d8 00 00
	00 00 00 00 00	 mov	 DWORD PTR [ecx+216], 0

; 26   : 	m_pBmpRectOverMiddle = NULL;

  00177	8b 55 ec	 mov	 edx, DWORD PTR _this$[ebp]
  0017a	c7 82 dc 00 00
	00 00 00 00 00	 mov	 DWORD PTR [edx+220], 0

; 27   : 	m_pBmpRectOverRight  = NULL;

  00184	8b 45 ec	 mov	 eax, DWORD PTR _this$[ebp]
  00187	c7 80 e0 00 00
	00 00 00 00 00	 mov	 DWORD PTR [eax+224], 0

; 28   : 
; 29   : 	m_pBmpRectDownLeft   = NULL;

  00191	8b 4d ec	 mov	 ecx, DWORD PTR _this$[ebp]
  00194	c7 81 e4 00 00
	00 00 00 00 00	 mov	 DWORD PTR [ecx+228], 0

; 30   : 	m_pBmpRectDownMiddle = NULL;

  0019e	8b 55 ec	 mov	 edx, DWORD PTR _this$[ebp]
  001a1	c7 82 e8 00 00
	00 00 00 00 00	 mov	 DWORD PTR [edx+232], 0

; 31   : 	m_pBmpRectDownRight  = NULL;

  001ab	8b 45 ec	 mov	 eax, DWORD PTR _this$[ebp]
  001ae	c7 80 ec 00 00
	00 00 00 00 00	 mov	 DWORD PTR [eax+236], 0

; 32   : 
; 33   : 	m_pBmpCloseNormal = NULL;

  001b8	8b 4d ec	 mov	 ecx, DWORD PTR _this$[ebp]
  001bb	c7 81 f0 00 00
	00 00 00 00 00	 mov	 DWORD PTR [ecx+240], 0

; 34   : 	m_pBmpCloseOver   = NULL;

  001c5	8b 55 ec	 mov	 edx, DWORD PTR _this$[ebp]
  001c8	c7 82 f4 00 00
	00 00 00 00 00	 mov	 DWORD PTR [edx+244], 0

; 35   : 	m_pBmpCloseDown	  = NULL;

  001d2	8b 45 ec	 mov	 eax, DWORD PTR _this$[ebp]
  001d5	c7 80 f8 00 00
	00 00 00 00 00	 mov	 DWORD PTR [eax+248], 0

; 36   : 
; 37   : 	m_pBmpSelCloseNormal = NULL;

  001df	8b 4d ec	 mov	 ecx, DWORD PTR _this$[ebp]
  001e2	c7 81 fc 00 00
	00 00 00 00 00	 mov	 DWORD PTR [ecx+252], 0

; 38   : 	m_pBmpSelCloseOver   = NULL;

  001ec	8b 55 ec	 mov	 edx, DWORD PTR _this$[ebp]
  001ef	c7 82 00 01 00
	00 00 00 00 00	 mov	 DWORD PTR [edx+256], 0

; 39   : 	m_pBmpSelCloseDown   = NULL;

  001f9	8b 45 ec	 mov	 eax, DWORD PTR _this$[ebp]
  001fc	c7 80 04 01 00
	00 00 00 00 00	 mov	 DWORD PTR [eax+260], 0

; 40   : 
; 41   : 	m_pBmpNewWindowNormal = NULL;

  00206	8b 4d ec	 mov	 ecx, DWORD PTR _this$[ebp]
  00209	c7 81 08 01 00
	00 00 00 00 00	 mov	 DWORD PTR [ecx+264], 0

; 42   : 	m_pBmpNewWindowOver   = NULL;

  00213	8b 55 ec	 mov	 edx, DWORD PTR _this$[ebp]
  00216	c7 82 0c 01 00
	00 00 00 00 00	 mov	 DWORD PTR [edx+268], 0

; 43   : 	m_pBmpNewWindowDown   = NULL;

  00220	8b 45 ec	 mov	 eax, DWORD PTR _this$[ebp]
  00223	c7 80 10 01 00
	00 00 00 00 00	 mov	 DWORD PTR [eax+272], 0

; 44   : 
; 45   : 	m_colNormalTextColor = RGB(205,205,205);

  0022d	8b 4d ec	 mov	 ecx, DWORD PTR _this$[ebp]
  00230	c7 81 c0 00 00
	00 cd cd cd 00	 mov	 DWORD PTR [ecx+192], 13487565 ; 00cdcdcdH

; 46   : 	m_colDownTextColor	 = RGB(255,175,38);

  0023a	8b 55 ec	 mov	 edx, DWORD PTR _this$[ebp]
  0023d	c7 82 c4 00 00
	00 ff af 26 00	 mov	 DWORD PTR [edx+196], 2535423 ; 0026afffH

; 47   : 	m_colMask            = RGB(0,255,0);

  00247	8b 45 ec	 mov	 eax, DWORD PTR _this$[ebp]
  0024a	c7 80 c8 00 00
	00 00 ff 00 00	 mov	 DWORD PTR [eax+200], 65280 ; 0000ff00H

; 48   : 
; 49   : 	ZeroMemory( &m_bmih, sizeof( BITMAPINFOHEADER ) ); 

  00254	6a 28		 push	 40			; 00000028H
  00256	6a 00		 push	 0
  00258	8b 4d ec	 mov	 ecx, DWORD PTR _this$[ebp]
  0025b	81 c1 14 01 00
	00		 add	 ecx, 276		; 00000114H
  00261	51		 push	 ecx
  00262	e8 00 00 00 00	 call	 _memset
  00267	83 c4 0c	 add	 esp, 12			; 0000000cH

; 50   : 	m_bmih.biSize                  = sizeof (BITMAPINFOHEADER) ; 

  0026a	8b 55 ec	 mov	 edx, DWORD PTR _this$[ebp]
  0026d	c7 82 14 01 00
	00 28 00 00 00	 mov	 DWORD PTR [edx+276], 40	; 00000028H

; 51   : 	m_bmih.biPlanes                = 1 ; 

  00277	8b 45 ec	 mov	 eax, DWORD PTR _this$[ebp]
  0027a	66 c7 80 20 01
	00 00 01 00	 mov	 WORD PTR [eax+288], 1

; 52   : 	m_bmih.biBitCount              = 32;        //32 

  00283	8b 4d ec	 mov	 ecx, DWORD PTR _this$[ebp]
  00286	66 c7 81 22 01
	00 00 20 00	 mov	 WORD PTR [ecx+290], 32	; 00000020H

; 53   : 	m_bmih.biCompression          = BI_RGB ; 

  0028f	8b 55 ec	 mov	 edx, DWORD PTR _this$[ebp]
  00292	c7 82 24 01 00
	00 00 00 00 00	 mov	 DWORD PTR [edx+292], 0

; 54   : 	m_bmih.biSizeImage            = 0 ; 

  0029c	8b 45 ec	 mov	 eax, DWORD PTR _this$[ebp]
  0029f	c7 80 28 01 00
	00 00 00 00 00	 mov	 DWORD PTR [eax+296], 0

; 55   : 	m_bmih.biXPelsPerMeter        = 0 ; 

  002a9	8b 4d ec	 mov	 ecx, DWORD PTR _this$[ebp]
  002ac	c7 81 2c 01 00
	00 00 00 00 00	 mov	 DWORD PTR [ecx+300], 0

; 56   : 	m_bmih.biYPelsPerMeter        = 0 ; 

  002b6	8b 55 ec	 mov	 edx, DWORD PTR _this$[ebp]
  002b9	c7 82 30 01 00
	00 00 00 00 00	 mov	 DWORD PTR [edx+304], 0

; 57   : 	m_bmih.biClrUsed              = 0 ; 

  002c3	8b 45 ec	 mov	 eax, DWORD PTR _this$[ebp]
  002c6	c7 80 34 01 00
	00 00 00 00 00	 mov	 DWORD PTR [eax+308], 0

; 58   : 	m_bmih.biClrImportant         = 0 ; 

  002d0	8b 4d ec	 mov	 ecx, DWORD PTR _this$[ebp]
  002d3	c7 81 38 01 00
	00 00 00 00 00	 mov	 DWORD PTR [ecx+312], 0

; 59   : 
; 60   : 	//
; 61   : 	LOGFONT  lf;
; 62   : 	ZeroMemory(&lf,sizeof(lf));

  002dd	6a 3c		 push	 60			; 0000003cH
  002df	6a 00		 push	 0
  002e1	8d 55 ac	 lea	 edx, DWORD PTR _lf$[ebp]
  002e4	52		 push	 edx
  002e5	e8 00 00 00 00	 call	 _memset
  002ea	83 c4 0c	 add	 esp, 12			; 0000000cH

; 63   : 
; 64   : 	lf.lfHeight = 12;

  002ed	c7 45 ac 0c 00
	00 00		 mov	 DWORD PTR _lf$[ebp], 12	; 0000000cH

; 65   : 	lf.lfWidth  = 0;

  002f4	c7 45 b0 00 00
	00 00		 mov	 DWORD PTR _lf$[ebp+4], 0

; 66   : 	lf.lfCharSet = GB2312_CHARSET;

  002fb	c6 45 c3 86	 mov	 BYTE PTR _lf$[ebp+23], 134 ; 00000086H

; 67   : 	lf.lfStrikeOut = FALSE;

  002ff	c6 45 c2 00	 mov	 BYTE PTR _lf$[ebp+22], 0

; 68   : 	lf.lfOutPrecision = OUT_DEFAULT_PRECIS;

  00303	c6 45 c4 00	 mov	 BYTE PTR _lf$[ebp+24], 0

; 69   : 	lf.lfClipPrecision = CLIP_DEFAULT_PRECIS;

  00307	c6 45 c5 00	 mov	 BYTE PTR _lf$[ebp+25], 0

; 70   : 	lf.lfQuality = DEFAULT_QUALITY;

  0030b	c6 45 c6 00	 mov	 BYTE PTR _lf$[ebp+26], 0

; 71   : 	lf.lfPitchAndFamily = FF_DONTCARE | DEFAULT_PITCH;

  0030f	c6 45 c7 00	 mov	 BYTE PTR _lf$[ebp+27], 0

; 72   : 	lf.lfUnderline = false;

  00313	c6 45 c1 00	 mov	 BYTE PTR _lf$[ebp+21], 0

; 73   : 	strcpy(lf.lfFaceName, "");

  00317	68 00 00 00 00	 push	 OFFSET FLAT:$SG189408
  0031c	8d 45 c8	 lea	 eax, DWORD PTR _lf$[ebp+28]
  0031f	50		 push	 eax
  00320	e8 00 00 00 00	 call	 _strcpy
  00325	83 c4 08	 add	 esp, 8

; 74   : 
; 75   : 	lf.lfWeight = FW_NORMAL;

  00328	c7 45 bc 90 01
	00 00		 mov	 DWORD PTR _lf$[ebp+16], 400 ; 00000190H

; 76   : 	m_fontNormal.CreateFontIndirect(&lf);

  0032f	8d 4d ac	 lea	 ecx, DWORD PTR _lf$[ebp]
  00332	51		 push	 ecx
  00333	8b 4d ec	 mov	 ecx, DWORD PTR _this$[ebp]
  00336	83 c1 60	 add	 ecx, 96			; 00000060H
  00339	e8 00 00 00 00	 call	 ?CreateFontIndirectA@CFont@@QAEHPBUtagLOGFONTA@@@Z ; CFont::CreateFontIndirectA

; 77   : 
; 78   : 	lf.lfWeight = FW_BOLD;

  0033e	c7 45 bc bc 02
	00 00		 mov	 DWORD PTR _lf$[ebp+16], 700 ; 000002bcH

; 79   : 	m_fontDown.CreateFontIndirect(&lf);

  00345	8d 55 ac	 lea	 edx, DWORD PTR _lf$[ebp]
  00348	52		 push	 edx
  00349	8b 4d ec	 mov	 ecx, DWORD PTR _this$[ebp]
  0034c	83 c1 68	 add	 ecx, 104		; 00000068H
  0034f	e8 00 00 00 00	 call	 ?CreateFontIndirectA@CFont@@QAEHPBUtagLOGFONTA@@@Z ; CFont::CreateFontIndirectA

; 80   : 
; 81   : 	m_pToolTip = new CCWToolTips();

  00354	68 90 00 00 00	 push	 144			; 00000090H
  00359	e8 00 00 00 00	 call	 ??2CObject@@SGPAXI@Z	; CObject::operator new
  0035e	89 45 a0	 mov	 DWORD PTR $T191199[ebp], eax
  00361	c6 45 fc 08	 mov	 BYTE PTR __$EHRec$[ebp+8], 8
  00365	83 7d a0 00	 cmp	 DWORD PTR $T191199[ebp], 0
  00369	74 0d		 je	 SHORT $L191200
  0036b	8b 4d a0	 mov	 ecx, DWORD PTR $T191199[ebp]
  0036e	e8 00 00 00 00	 call	 ??0CCWToolTips@@QAE@XZ	; CCWToolTips::CCWToolTips
  00373	89 45 9c	 mov	 DWORD PTR tv218[ebp], eax
  00376	eb 07		 jmp	 SHORT $L191201
$L191200:
  00378	c7 45 9c 00 00
	00 00		 mov	 DWORD PTR tv218[ebp], 0
$L191201:
  0037f	8b 45 9c	 mov	 eax, DWORD PTR tv218[ebp]
  00382	89 45 a4	 mov	 DWORD PTR $T191198[ebp], eax
  00385	c6 45 fc 07	 mov	 BYTE PTR __$EHRec$[ebp+8], 7
  00389	8b 4d ec	 mov	 ecx, DWORD PTR _this$[ebp]
  0038c	8b 55 a4	 mov	 edx, DWORD PTR $T191198[ebp]
  0038f	89 51 5c	 mov	 DWORD PTR [ecx+92], edx

; 82   : 
; 83   : 	AfxGetMessageManager()->AttachMessage( ID_MESSAGE_TABBAR,(ITabBarObserver*) this);

  00392	83 7d ec 00	 cmp	 DWORD PTR _this$[ebp], 0
  00396	74 0b		 je	 SHORT $L191202
  00398	8b 45 ec	 mov	 eax, DWORD PTR _this$[ebp]
  0039b	83 c0 58	 add	 eax, 88			; 00000058H
  0039e	89 45 98	 mov	 DWORD PTR tv226[ebp], eax
  003a1	eb 07		 jmp	 SHORT $L191203
$L191202:
  003a3	c7 45 98 00 00
	00 00		 mov	 DWORD PTR tv226[ebp], 0
$L191203:
  003aa	e8 00 00 00 00	 call	 ?AfxGetMessageManager@@YAPAVIMessageManager@@XZ ; AfxGetMessageManager
  003af	89 45 94	 mov	 DWORD PTR tv220[ebp], eax
  003b2	8b f4		 mov	 esi, esp
  003b4	6a 02		 push	 2
  003b6	8b 4d 98	 mov	 ecx, DWORD PTR tv226[ebp]
  003b9	51		 push	 ecx
  003ba	68 00 00 00 00	 push	 OFFSET FLAT:_ID_MESSAGE_TABBAR
  003bf	8b 55 94	 mov	 edx, DWORD PTR tv220[ebp]
  003c2	8b 02		 mov	 eax, DWORD PTR [edx]
  003c4	8b 4d 94	 mov	 ecx, DWORD PTR tv220[ebp]
  003c7	ff 50 04	 call	 DWORD PTR [eax+4]
  003ca	3b f4		 cmp	 esi, esp
  003cc	e8 00 00 00 00	 call	 __RTC_CheckEsp

; 84   : }

  003d1	c7 45 fc ff ff
	ff ff		 mov	 DWORD PTR __$EHRec$[ebp+8], -1
  003d8	8b 45 ec	 mov	 eax, DWORD PTR _this$[ebp]
  003db	52		 push	 edx
  003dc	8b cd		 mov	 ecx, ebp
  003de	50		 push	 eax
  003df	8d 15 00 00 00
	00		 lea	 edx, DWORD PTR $L191224
  003e5	e8 00 00 00 00	 call	 @_RTC_CheckStackVars@8
  003ea	58		 pop	 eax
  003eb	5a		 pop	 edx
  003ec	8b 4d f4	 mov	 ecx, DWORD PTR __$EHRec$[ebp]
  003ef	64 89 0d 00 00
	00 00		 mov	 DWORD PTR fs:__except_list, ecx
  003f6	8b 4d f0	 mov	 ecx, DWORD PTR __$ArrayPad$[ebp]
  003f9	e8 00 00 00 00	 call	 @__security_check_cookie@4
  003fe	5f		 pop	 edi
  003ff	5e		 pop	 esi
  00400	83 c4 6c	 add	 esp, 108		; 0000006cH
  00403	3b ec		 cmp	 ebp, esp
  00405	e8 00 00 00 00	 call	 __RTC_CheckEsp
  0040a	8b e5		 mov	 esp, ebp
  0040c	5d		 pop	 ebp
  0040d	c3		 ret	 0
$L191224:
  0040e	01 00 00 00	 DD	 1
  00412	00 00 00 00	 DD	 $L191223
$L191223:
  00416	ac ff ff ff	 DD	 -84			; ffffffacH
  0041a	3c 00 00 00	 DD	 60			; 0000003cH
  0041e	00 00 00 00	 DD	 $L191218
$L191218:
  00422	6c		 DB	 108			; 0000006cH
  00423	66		 DB	 102			; 00000066H
  00424	00		 DB	 0
_TEXT	ENDS
text$x	SEGMENT
$L191204:
  00000	8b 4d ec	 mov	 ecx, DWORD PTR _this$[ebp]
  00003	e9 00 00 00 00	 jmp	 ??1CBasicWnd@@UAE@XZ	; CBasicWnd::~CBasicWnd
$L191205:
  00008	8b 4d ec	 mov	 ecx, DWORD PTR _this$[ebp]
  0000b	83 c1 54	 add	 ecx, 84			; 00000054H
  0000e	e9 00 00 00 00	 jmp	 ??1CBasicSkinWnd@@UAE@XZ ; CBasicSkinWnd::~CBasicSkinWnd
$L191206:
  00013	8b 4d ec	 mov	 ecx, DWORD PTR _this$[ebp]
  00016	83 c1 58	 add	 ecx, 88			; 00000058H
  00019	e9 00 00 00 00	 jmp	 ??1ITabBarObserver@@UAE@XZ
$L191207:
  0001e	8b 4d ec	 mov	 ecx, DWORD PTR _this$[ebp]
  00021	83 c1 60	 add	 ecx, 96			; 00000060H
  00024	e9 00 00 00 00	 jmp	 ??1CFont@@UAE@XZ	; CFont::~CFont
$L191208:
  00029	8b 4d ec	 mov	 ecx, DWORD PTR _this$[ebp]
  0002c	83 c1 68	 add	 ecx, 104		; 00000068H
  0002f	e9 00 00 00 00	 jmp	 ??1CFont@@UAE@XZ	; CFont::~CFont
$L191209:
  00034	8b 4d ec	 mov	 ecx, DWORD PTR _this$[ebp]
  00037	83 c1 70	 add	 ecx, 112		; 00000070H
  0003a	e9 00 00 00 00	 jmp	 ??1?$vector@VCRect@@V?$allocator@VCRect@@@std@@@std@@QAE@XZ ; std::vector<CRect,std::allocator<CRect> >::~vector<CRect,std::allocator<CRect> >
$L191210:
  0003f	8b 4d ec	 mov	 ecx, DWORD PTR _this$[ebp]
  00042	81 c1 80 00 00
	00		 add	 ecx, 128		; 00000080H
  00048	e9 00 00 00 00	 jmp	 ??1?$vector@VCRect@@V?$allocator@VCRect@@@std@@@std@@QAE@XZ ; std::vector<CRect,std::allocator<CRect> >::~vector<CRect,std::allocator<CRect> >
$L191211:
  0004d	8b 4d ec	 mov	 ecx, DWORD PTR _this$[ebp]
  00050	81 c1 90 00 00
	00		 add	 ecx, 144		; 00000090H
  00056	e9 00 00 00 00	 jmp	 ??1?$vector@UTAB_ITEM@@V?$allocator@UTAB_ITEM@@@std@@@std@@QAE@XZ ; std::vector<TAB_ITEM,std::allocator<TAB_ITEM> >::~vector<TAB_ITEM,std::allocator<TAB_ITEM> >
$L191212:
  0005b	8b 45 a0	 mov	 eax, DWORD PTR $T191199[ebp]
  0005e	50		 push	 eax
  0005f	e8 00 00 00 00	 call	 ??3CObject@@SGXPAX@Z	; CObject::operator delete
  00064	c3		 ret	 0
__ehhandler$??0CTabBarWnd@@QAE@XZ:
  00065	b8 00 00 00 00	 mov	 eax, OFFSET FLAT:$T191216
  0006a	e9 00 00 00 00	 jmp	 ___CxxFrameHandler
text$x	ENDS
??0CTabBarWnd@@QAE@XZ ENDP				; CTabBarWnd::CTabBarWnd
PUBLIC	??1CTabBarWnd@@UAE@XZ				; CTabBarWnd::~CTabBarWnd
; Function compile flags: /Odt /RTCsu
;	COMDAT ??_GCTabBarWnd@@UAEPAXI@Z
_TEXT	SEGMENT
_this$ = -4						; size = 4
___flags$ = 8						; size = 4
??_GCTabBarWnd@@UAEPAXI@Z PROC NEAR			; CTabBarWnd::`scalar deleting destructor', COMDAT
; _this$ = ecx
  00000	55		 push	 ebp
  00001	8b ec		 mov	 ebp, esp
  00003	51		 push	 ecx
  00004	c7 45 fc cc cc
	cc cc		 mov	 DWORD PTR [ebp-4], -858993460 ; ccccccccH
  0000b	89 4d fc	 mov	 DWORD PTR _this$[ebp], ecx
  0000e	8b 4d fc	 mov	 ecx, DWORD PTR _this$[ebp]
  00011	e8 00 00 00 00	 call	 ??1CTabBarWnd@@UAE@XZ	; CTabBarWnd::~CTabBarWnd
  00016	8b 45 08	 mov	 eax, DWORD PTR ___flags$[ebp]
  00019	83 e0 01	 and	 eax, 1
  0001c	74 09		 je	 SHORT $L189417
  0001e	8b 4d fc	 mov	 ecx, DWORD PTR _this$[ebp]
  00021	51		 push	 ecx
  00022	e8 00 00 00 00	 call	 ??3CObject@@SGXPAX@Z	; CObject::operator delete
$L189417:
  00027	8b 45 fc	 mov	 eax, DWORD PTR _this$[ebp]
  0002a	83 c4 04	 add	 esp, 4
  0002d	3b ec		 cmp	 ebp, esp
  0002f	e8 00 00 00 00	 call	 __RTC_CheckEsp
  00034	8b e5		 mov	 esp, ebp
  00036	5d		 pop	 ebp
  00037	c2 04 00	 ret	 4
??_GCTabBarWnd@@UAEPAXI@Z ENDP				; CTabBarWnd::`scalar deleting destructor'
_TEXT	ENDS
PUBLIC	??_7CBasicSkinWnd@@6B@				; CBasicSkinWnd::`vftable'
PUBLIC	??_GCBasicSkinWnd@@UAEPAXI@Z			; CBasicSkinWnd::`scalar deleting destructor'
PUBLIC	??_R4CBasicSkinWnd@@6B@				; CBasicSkinWnd::`RTTI Complete Object Locator'
PUBLIC	??_R3CBasicSkinWnd@@8				; CBasicSkinWnd::`RTTI Class Hierarchy Descriptor'
PUBLIC	??_R2CBasicSkinWnd@@8				; CBasicSkinWnd::`RTTI Base Class Array'
PUBLIC	??_R1A@?0A@A@CBasicSkinWnd@@8			; CBasicSkinWnd::`RTTI Base Class Descriptor at (0,-1,0,0)'
EXTRN	__purecall:NEAR
EXTRN	??_ECBasicSkinWnd@@UAEPAXI@Z:NEAR		; CBasicSkinWnd::`vector deleting destructor'
;	COMDAT ??_7CBasicSkinWnd@@6B@
CONST	SEGMENT
??_7CBasicSkinWnd@@6B@ DD FLAT:??_R4CBasicSkinWnd@@6B@	; CBasicSkinWnd::`vftable'
	DD	FLAT:??_ECBasicSkinWnd@@UAEPAXI@Z
	DD	FLAT:__purecall
CONST	ENDS
;	COMDAT ??_R4CBasicSkinWnd@@6B@
rdata$r	SEGMENT
??_R4CBasicSkinWnd@@6B@ DD 00H				; CBasicSkinWnd::`RTTI Complete Object Locator'
	DD	00H
	DD	00H
	DD	FLAT:??_R0?AVCBasicSkinWnd@@@8
	DD	FLAT:??_R3CBasicSkinWnd@@8
rdata$r	ENDS
;	COMDAT ??_R3CBasicSkinWnd@@8
rdata$r	SEGMENT
??_R3CBasicSkinWnd@@8 DD 00H				; CBasicSkinWnd::`RTTI Class Hierarchy Descriptor'
	DD	00H
	DD	01H
	DD	FLAT:??_R2CBasicSkinWnd@@8
rdata$r	ENDS
;	COMDAT ??_R2CBasicSkinWnd@@8
rdata$r	SEGMENT
??_R2CBasicSkinWnd@@8 DD FLAT:??_R1A@?0A@A@CBasicSkinWnd@@8 ; CBasicSkinWnd::`RTTI Base Class Array'
rdata$r	ENDS
;	COMDAT ??_R1A@?0A@A@CBasicSkinWnd@@8
rdata$r	SEGMENT
??_R1A@?0A@A@CBasicSkinWnd@@8 DD FLAT:??_R0?AVCBasicSkinWnd@@@8 ; CBasicSkinWnd::`RTTI Base Class Descriptor at (0,-1,0,0)'
	DD	00H
	DD	00H
	DD	0ffffffffH
	DD	00H
	DD	00H
; Function compile flags: /Odt /RTCsu
rdata$r	ENDS
;	COMDAT ??0CBasicSkinWnd@@QAE@XZ
_TEXT	SEGMENT
_this$ = -4						; size = 4
??0CBasicSkinWnd@@QAE@XZ PROC NEAR			; CBasicSkinWnd::CBasicSkinWnd, COMDAT
; _this$ = ecx
  00000	55		 push	 ebp
  00001	8b ec		 mov	 ebp, esp
  00003	51		 push	 ecx
  00004	c7 45 fc cc cc
	cc cc		 mov	 DWORD PTR [ebp-4], -858993460 ; ccccccccH
  0000b	89 4d fc	 mov	 DWORD PTR _this$[ebp], ecx
  0000e	8b 45 fc	 mov	 eax, DWORD PTR _this$[ebp]
  00011	c7 00 00 00 00
	00		 mov	 DWORD PTR [eax], OFFSET FLAT:??_7CBasicSkinWnd@@6B@
  00017	8b 45 fc	 mov	 eax, DWORD PTR _this$[ebp]
  0001a	8b e5		 mov	 esp, ebp
  0001c	5d		 pop	 ebp
  0001d	c3		 ret	 0
??0CBasicSkinWnd@@QAE@XZ ENDP				; CBasicSkinWnd::CBasicSkinWnd
_TEXT	ENDS
PUBLIC	??_R4ITabBarObserver@@6B@			; ITabBarObserver::`RTTI Complete Object Locator'
PUBLIC	??_R3ITabBarObserver@@8				; ITabBarObserver::`RTTI Class Hierarchy Descriptor'
PUBLIC	??_R2ITabBarObserver@@8				; ITabBarObserver::`RTTI Base Class Array'
PUBLIC	??_R1A@?0A@A@ITabBarObserver@@8			; ITabBarObserver::`RTTI Base Class Descriptor at (0,-1,0,0)'
PUBLIC	??0IMessageObserver@@QAE@XZ			; IMessageObserver::IMessageObserver
PUBLIC	??_R1A@?0A@A@IMessageObserver@@8		; IMessageObserver::`RTTI Base Class Descriptor at (0,-1,0,0)'
PUBLIC	??_7ITabBarObserver@@6B@			; ITabBarObserver::`vftable'
PUBLIC	??_GITabBarObserver@@UAEPAXI@Z			; ITabBarObserver::`scalar deleting destructor'
EXTRN	??_EITabBarObserver@@UAEPAXI@Z:NEAR		; ITabBarObserver::`vector deleting destructor'
;	COMDAT ??_7ITabBarObserver@@6B@
CONST	SEGMENT
??_7ITabBarObserver@@6B@ DD FLAT:??_R4ITabBarObserver@@6B@ ; ITabBarObserver::`vftable'
	DD	FLAT:??_EITabBarObserver@@UAEPAXI@Z
	DD	FLAT:__purecall
	DD	FLAT:__purecall
	DD	FLAT:__purecall
	DD	FLAT:__purecall
CONST	ENDS
;	COMDAT ??_R4ITabBarObserver@@6B@
rdata$r	SEGMENT
??_R4ITabBarObserver@@6B@ DD 00H			; ITabBarObserver::`RTTI Complete Object Locator'
	DD	00H
	DD	00H
	DD	FLAT:??_R0?AVITabBarObserver@@@8
	DD	FLAT:??_R3ITabBarObserver@@8
rdata$r	ENDS
;	COMDAT ??_R3ITabBarObserver@@8
rdata$r	SEGMENT
??_R3ITabBarObserver@@8 DD 00H				; ITabBarObserver::`RTTI Class Hierarchy Descriptor'
	DD	00H
	DD	02H
	DD	FLAT:??_R2ITabBarObserver@@8
rdata$r	ENDS
;	COMDAT ??_R2ITabBarObserver@@8
rdata$r	SEGMENT
??_R2ITabBarObserver@@8 DD FLAT:??_R1A@?0A@A@ITabBarObserver@@8 ; ITabBarObserver::`RTTI Base Class Array'
	DD	FLAT:??_R1A@?0A@A@IMessageObserver@@8
rdata$r	ENDS
;	COMDAT ??_R1A@?0A@A@ITabBarObserver@@8
rdata$r	SEGMENT
??_R1A@?0A@A@ITabBarObserver@@8 DD FLAT:??_R0?AVITabBarObserver@@@8 ; ITabBarObserver::`RTTI Base Class Descriptor at (0,-1,0,0)'
	DD	01H
	DD	00H
	DD	0ffffffffH
	DD	00H
	DD	00H
rdata$r	ENDS
;	COMDAT ??_R1A@?0A@A@IMessageObserver@@8
rdata$r	SEGMENT
??_R1A@?0A@A@IMessageObserver@@8 DD FLAT:??_R0?AVIMessageObserver@@@8 ; IMessageObserver::`RTTI Base Class Descriptor at (0,-1,0,0)'
	DD	00H
	DD	00H
	DD	0ffffffffH
	DD	00H
	DD	00H
; Function compile flags: /Odt /RTCsu
rdata$r	ENDS
;	COMDAT ??0ITabBarObserver@@QAE@XZ
_TEXT	SEGMENT
_this$ = -4						; size = 4
??0ITabBarObserver@@QAE@XZ PROC NEAR			; ITabBarObserver::ITabBarObserver, COMDAT
; _this$ = ecx
  00000	55		 push	 ebp
  00001	8b ec		 mov	 ebp, esp
  00003	51		 push	 ecx
  00004	c7 45 fc cc cc
	cc cc		 mov	 DWORD PTR [ebp-4], -858993460 ; ccccccccH
  0000b	89 4d fc	 mov	 DWORD PTR _this$[ebp], ecx
  0000e	8b 4d fc	 mov	 ecx, DWORD PTR _this$[ebp]
  00011	e8 00 00 00 00	 call	 ??0IMessageObserver@@QAE@XZ
  00016	8b 45 fc	 mov	 eax, DWORD PTR _this$[ebp]
  00019	c7 00 00 00 00
	00		 mov	 DWORD PTR [eax], OFFSET FLAT:??_7ITabBarObserver@@6B@
  0001f	8b 45 fc	 mov	 eax, DWORD PTR _this$[ebp]
  00022	83 c4 04	 add	 esp, 4
  00025	3b ec		 cmp	 ebp, esp
  00027	e8 00 00 00 00	 call	 __RTC_CheckEsp
  0002c	8b e5		 mov	 esp, ebp
  0002e	5d		 pop	 ebp
  0002f	c3		 ret	 0
??0ITabBarObserver@@QAE@XZ ENDP				; ITabBarObserver::ITabBarObserver
_TEXT	ENDS
PUBLIC	??1IMessageObserver@@UAE@XZ			; IMessageObserver::~IMessageObserver
; Function compile flags: /Odt /RTCsu
;	COMDAT ??1ITabBarObserver@@UAE@XZ
_TEXT	SEGMENT
_this$ = -4						; size = 4
??1ITabBarObserver@@UAE@XZ PROC NEAR			; ITabBarObserver::~ITabBarObserver, COMDAT
; _this$ = ecx
  00000	55		 push	 ebp
  00001	8b ec		 mov	 ebp, esp
  00003	51		 push	 ecx
  00004	c7 45 fc cc cc
	cc cc		 mov	 DWORD PTR [ebp-4], -858993460 ; ccccccccH
  0000b	89 4d fc	 mov	 DWORD PTR _this$[ebp], ecx
  0000e	8b 4d fc	 mov	 ecx, DWORD PTR _this$[ebp]
  00011	e8 00 00 00 00	 call	 ??1IMessageObserver@@UAE@XZ ; IMessageObserver::~IMessageObserver
  00016	83 c4 04	 add	 esp, 4
  00019	3b ec		 cmp	 ebp, esp
  0001b	e8 00 00 00 00	 call	 __RTC_CheckEsp
  00020	8b e5		 mov	 esp, ebp
  00022	5d		 pop	 ebp
  00023	c3		 ret	 0
??1ITabBarObserver@@UAE@XZ ENDP				; ITabBarObserver::~ITabBarObserver
_TEXT	ENDS
EXTRN	??3@YAXPAX@Z:NEAR				; operator delete
; Function compile flags: /Odt /RTCsu
;	COMDAT ??_GITabBarObserver@@UAEPAXI@Z
_TEXT	SEGMENT
_this$ = -4						; size = 4
___flags$ = 8						; size = 4
??_GITabBarObserver@@UAEPAXI@Z PROC NEAR		; ITabBarObserver::`scalar deleting destructor', COMDAT
; _this$ = ecx
  00000	55		 push	 ebp
  00001	8b ec		 mov	 ebp, esp
  00003	51		 push	 ecx
  00004	c7 45 fc cc cc
	cc cc		 mov	 DWORD PTR [ebp-4], -858993460 ; ccccccccH
  0000b	89 4d fc	 mov	 DWORD PTR _this$[ebp], ecx
  0000e	8b 4d fc	 mov	 ecx, DWORD PTR _this$[ebp]
  00011	e8 00 00 00 00	 call	 ??1ITabBarObserver@@UAE@XZ
  00016	8b 45 08	 mov	 eax, DWORD PTR ___flags$[ebp]
  00019	83 e0 01	 and	 eax, 1
  0001c	74 0c		 je	 SHORT $L189427
  0001e	8b 4d fc	 mov	 ecx, DWORD PTR _this$[ebp]
  00021	51		 push	 ecx
  00022	e8 00 00 00 00	 call	 ??3@YAXPAX@Z		; operator delete
  00027	83 c4 04	 add	 esp, 4
$L189427:
  0002a	8b 45 fc	 mov	 eax, DWORD PTR _this$[ebp]
  0002d	83 c4 04	 add	 esp, 4
  00030	3b ec		 cmp	 ebp, esp
  00032	e8 00 00 00 00	 call	 __RTC_CheckEsp
  00037	8b e5		 mov	 esp, ebp
  00039	5d		 pop	 ebp
  0003a	c2 04 00	 ret	 4
??_GITabBarObserver@@UAEPAXI@Z ENDP			; ITabBarObserver::`scalar deleting destructor'
_TEXT	ENDS
PUBLIC	??_7IMessageObserver@@6B@			; IMessageObserver::`vftable'
PUBLIC	??_GIMessageObserver@@UAEPAXI@Z			; IMessageObserver::`scalar deleting destructor'
PUBLIC	??_R4IMessageObserver@@6B@			; IMessageObserver::`RTTI Complete Object Locator'
PUBLIC	??_R3IMessageObserver@@8			; IMessageObserver::`RTTI Class Hierarchy Descriptor'
PUBLIC	??_R2IMessageObserver@@8			; IMessageObserver::`RTTI Base Class Array'
EXTRN	??_EIMessageObserver@@UAEPAXI@Z:NEAR		; IMessageObserver::`vector deleting destructor'
;	COMDAT ??_7IMessageObserver@@6B@
CONST	SEGMENT
??_7IMessageObserver@@6B@ DD FLAT:??_R4IMessageObserver@@6B@ ; IMessageObserver::`vftable'
	DD	FLAT:??_EIMessageObserver@@UAEPAXI@Z
CONST	ENDS
;	COMDAT ??_R4IMessageObserver@@6B@
rdata$r	SEGMENT
??_R4IMessageObserver@@6B@ DD 00H			; IMessageObserver::`RTTI Complete Object Locator'
	DD	00H
	DD	00H
	DD	FLAT:??_R0?AVIMessageObserver@@@8
	DD	FLAT:??_R3IMessageObserver@@8
rdata$r	ENDS
;	COMDAT ??_R3IMessageObserver@@8
rdata$r	SEGMENT
??_R3IMessageObserver@@8 DD 00H				; IMessageObserver::`RTTI Class Hierarchy Descriptor'
	DD	00H
	DD	01H
	DD	FLAT:??_R2IMessageObserver@@8
rdata$r	ENDS
;	COMDAT ??_R2IMessageObserver@@8
rdata$r	SEGMENT
??_R2IMessageObserver@@8 DD FLAT:??_R1A@?0A@A@IMessageObserver@@8 ; IMessageObserver::`RTTI Base Class Array'
; Function compile flags: /Odt /RTCsu
rdata$r	ENDS
;	COMDAT ??0IMessageObserver@@QAE@XZ
_TEXT	SEGMENT
_this$ = -4						; size = 4
??0IMessageObserver@@QAE@XZ PROC NEAR			; IMessageObserver::IMessageObserver, COMDAT
; _this$ = ecx
  00000	55		 push	 ebp
  00001	8b ec		 mov	 ebp, esp
  00003	51		 push	 ecx
  00004	c7 45 fc cc cc
	cc cc		 mov	 DWORD PTR [ebp-4], -858993460 ; ccccccccH
  0000b	89 4d fc	 mov	 DWORD PTR _this$[ebp], ecx
  0000e	8b 45 fc	 mov	 eax, DWORD PTR _this$[ebp]
  00011	c7 00 00 00 00
	00		 mov	 DWORD PTR [eax], OFFSET FLAT:??_7IMessageObserver@@6B@
  00017	8b 45 fc	 mov	 eax, DWORD PTR _this$[ebp]
  0001a	8b e5		 mov	 esp, ebp
  0001c	5d		 pop	 ebp
  0001d	c3		 ret	 0
??0IMessageObserver@@QAE@XZ ENDP			; IMessageObserver::IMessageObserver
_TEXT	ENDS
EXTRN	?DeleteObject@CGdiObject@@QAEHXZ:NEAR		; CGdiObject::DeleteObject
xdata$x	SEGMENT
$T191262 DD	0ffffffffH
	DD	FLAT:$L191247
	DD	00H
	DD	FLAT:$L191250
	DD	01H
	DD	FLAT:$L191253
	DD	02H
	DD	FLAT:$L191254
	DD	03H
	DD	FLAT:$L191255
	DD	04H
	DD	FLAT:$L191256
	DD	05H
	DD	FLAT:$L191257
	DD	06H
	DD	FLAT:$L191258
$T191260 DD	019930520H
	DD	08H
	DD	FLAT:$T191262
	DD	2 DUP(00H)
	DD	2 DUP(00H)
; Function compile flags: /Odt /RTCsu
xdata$x	ENDS
_TEXT	SEGMENT
tv69 = -44						; size = 4
tv73 = -40						; size = 4
tv143 = -36						; size = 4
tv148 = -32						; size = 4
tv140 = -28						; size = 4
$T191242 = -24						; size = 4
$T191241 = -20						; size = 4
_this$ = -16						; size = 4
__$EHRec$ = -12						; size = 12
??1CTabBarWnd@@UAE@XZ PROC NEAR				; CTabBarWnd::~CTabBarWnd
; _this$ = ecx

; 87   : {

  00430	55		 push	 ebp
  00431	8b ec		 mov	 ebp, esp
  00433	6a ff		 push	 -1
  00435	68 00 00 00 00	 push	 __ehhandler$??1CTabBarWnd@@UAE@XZ
  0043a	64 a1 00 00 00
	00		 mov	 eax, DWORD PTR fs:__except_list
  00440	50		 push	 eax
  00441	64 89 25 00 00
	00 00		 mov	 DWORD PTR fs:__except_list, esp
  00448	83 ec 20	 sub	 esp, 32			; 00000020H
  0044b	56		 push	 esi
  0044c	b8 cc cc cc cc	 mov	 eax, -858993460		; ccccccccH
  00451	89 45 d4	 mov	 DWORD PTR [ebp-44], eax
  00454	89 45 d8	 mov	 DWORD PTR [ebp-40], eax
  00457	89 45 dc	 mov	 DWORD PTR [ebp-36], eax
  0045a	89 45 e0	 mov	 DWORD PTR [ebp-32], eax
  0045d	89 45 e4	 mov	 DWORD PTR [ebp-28], eax
  00460	89 45 e8	 mov	 DWORD PTR [ebp-24], eax
  00463	89 45 ec	 mov	 DWORD PTR [ebp-20], eax
  00466	89 45 f0	 mov	 DWORD PTR [ebp-16], eax
  00469	89 4d f0	 mov	 DWORD PTR _this$[ebp], ecx
  0046c	8b 45 f0	 mov	 eax, DWORD PTR _this$[ebp]
  0046f	c7 00 00 00 00
	00		 mov	 DWORD PTR [eax], OFFSET FLAT:??_7CTabBarWnd@@6BCBasicWnd@@@
  00475	8b 4d f0	 mov	 ecx, DWORD PTR _this$[ebp]
  00478	c7 41 54 00 00
	00 00		 mov	 DWORD PTR [ecx+84], OFFSET FLAT:??_7CTabBarWnd@@6BCBasicSkinWnd@@@
  0047f	8b 55 f0	 mov	 edx, DWORD PTR _this$[ebp]
  00482	c7 42 58 00 00
	00 00		 mov	 DWORD PTR [edx+88], OFFSET FLAT:??_7CTabBarWnd@@6BITabBarObserver@@@
  00489	c7 45 fc 07 00
	00 00		 mov	 DWORD PTR __$EHRec$[ebp+8], 7

; 88   : 	m_fontNormal.DeleteObject();

  00490	8b 4d f0	 mov	 ecx, DWORD PTR _this$[ebp]
  00493	83 c1 60	 add	 ecx, 96			; 00000060H
  00496	e8 00 00 00 00	 call	 ?DeleteObject@CGdiObject@@QAEHXZ ; CGdiObject::DeleteObject

; 89   : 	m_fontDown.DeleteObject();

  0049b	8b 4d f0	 mov	 ecx, DWORD PTR _this$[ebp]
  0049e	83 c1 68	 add	 ecx, 104		; 00000068H
  004a1	e8 00 00 00 00	 call	 ?DeleteObject@CGdiObject@@QAEHXZ ; CGdiObject::DeleteObject

; 90   : 	delete m_pToolTip;

  004a6	8b 45 f0	 mov	 eax, DWORD PTR _this$[ebp]
  004a9	8b 48 5c	 mov	 ecx, DWORD PTR [eax+92]
  004ac	89 4d e8	 mov	 DWORD PTR $T191242[ebp], ecx
  004af	8b 55 e8	 mov	 edx, DWORD PTR $T191242[ebp]
  004b2	89 55 ec	 mov	 DWORD PTR $T191241[ebp], edx
  004b5	83 7d ec 00	 cmp	 DWORD PTR $T191241[ebp], 0
  004b9	74 1b		 je	 SHORT $L191243
  004bb	8b f4		 mov	 esi, esp
  004bd	6a 01		 push	 1
  004bf	8b 45 ec	 mov	 eax, DWORD PTR $T191241[ebp]
  004c2	8b 10		 mov	 edx, DWORD PTR [eax]
  004c4	8b 4d ec	 mov	 ecx, DWORD PTR $T191241[ebp]
  004c7	ff 52 04	 call	 DWORD PTR [edx+4]
  004ca	3b f4		 cmp	 esi, esp
  004cc	e8 00 00 00 00	 call	 __RTC_CheckEsp
  004d1	89 45 e4	 mov	 DWORD PTR tv140[ebp], eax
  004d4	eb 07		 jmp	 SHORT $L191244
$L191243:
  004d6	c7 45 e4 00 00
	00 00		 mov	 DWORD PTR tv140[ebp], 0
$L191244:

; 91   : 	AfxGetMessageManager()->DetachMessage( ID_MESSAGE_TABBAR,(ITabBarObserver*) this);

  004dd	83 7d f0 00	 cmp	 DWORD PTR _this$[ebp], 0
  004e1	74 0b		 je	 SHORT $L191245
  004e3	8b 45 f0	 mov	 eax, DWORD PTR _this$[ebp]
  004e6	83 c0 58	 add	 eax, 88			; 00000058H
  004e9	89 45 e0	 mov	 DWORD PTR tv148[ebp], eax
  004ec	eb 07		 jmp	 SHORT $L191246
$L191245:
  004ee	c7 45 e0 00 00
	00 00		 mov	 DWORD PTR tv148[ebp], 0
$L191246:
  004f5	e8 00 00 00 00	 call	 ?AfxGetMessageManager@@YAPAVIMessageManager@@XZ ; AfxGetMessageManager
  004fa	89 45 dc	 mov	 DWORD PTR tv143[ebp], eax
  004fd	8b f4		 mov	 esi, esp
  004ff	8b 4d e0	 mov	 ecx, DWORD PTR tv148[ebp]
  00502	51		 push	 ecx
  00503	68 00 00 00 00	 push	 OFFSET FLAT:_ID_MESSAGE_TABBAR
  00508	8b 55 dc	 mov	 edx, DWORD PTR tv143[ebp]
  0050b	8b 02		 mov	 eax, DWORD PTR [edx]
  0050d	8b 4d dc	 mov	 ecx, DWORD PTR tv143[ebp]
  00510	ff 50 08	 call	 DWORD PTR [eax+8]
  00513	3b f4		 cmp	 esi, esp
  00515	e8 00 00 00 00	 call	 __RTC_CheckEsp

; 92   : }

  0051a	c6 45 fc 06	 mov	 BYTE PTR __$EHRec$[ebp+8], 6
  0051e	8b 4d f0	 mov	 ecx, DWORD PTR _this$[ebp]
  00521	81 c1 90 00 00
	00		 add	 ecx, 144		; 00000090H
  00527	e8 00 00 00 00	 call	 ??1?$vector@UTAB_ITEM@@V?$allocator@UTAB_ITEM@@@std@@@std@@QAE@XZ ; std::vector<TAB_ITEM,std::allocator<TAB_ITEM> >::~vector<TAB_ITEM,std::allocator<TAB_ITEM> >
  0052c	c6 45 fc 05	 mov	 BYTE PTR __$EHRec$[ebp+8], 5
  00530	8b 4d f0	 mov	 ecx, DWORD PTR _this$[ebp]
  00533	81 c1 80 00 00
	00		 add	 ecx, 128		; 00000080H
  00539	e8 00 00 00 00	 call	 ??1?$vector@VCRect@@V?$allocator@VCRect@@@std@@@std@@QAE@XZ ; std::vector<CRect,std::allocator<CRect> >::~vector<CRect,std::allocator<CRect> >
  0053e	c6 45 fc 04	 mov	 BYTE PTR __$EHRec$[ebp+8], 4
  00542	8b 4d f0	 mov	 ecx, DWORD PTR _this$[ebp]
  00545	83 c1 70	 add	 ecx, 112		; 00000070H
  00548	e8 00 00 00 00	 call	 ??1?$vector@VCRect@@V?$allocator@VCRect@@@std@@@std@@QAE@XZ ; std::vector<CRect,std::allocator<CRect> >::~vector<CRect,std::allocator<CRect> >
  0054d	c6 45 fc 03	 mov	 BYTE PTR __$EHRec$[ebp+8], 3
  00551	8b 4d f0	 mov	 ecx, DWORD PTR _this$[ebp]
  00554	83 c1 68	 add	 ecx, 104		; 00000068H
  00557	e8 00 00 00 00	 call	 ??1CFont@@UAE@XZ	; CFont::~CFont
  0055c	c6 45 fc 02	 mov	 BYTE PTR __$EHRec$[ebp+8], 2
  00560	8b 4d f0	 mov	 ecx, DWORD PTR _this$[ebp]
  00563	83 c1 60	 add	 ecx, 96			; 00000060H
  00566	e8 00 00 00 00	 call	 ??1CFont@@UAE@XZ	; CFont::~CFont
  0056b	c6 45 fc 01	 mov	 BYTE PTR __$EHRec$[ebp+8], 1
  0056f	83 7d f0 00	 cmp	 DWORD PTR _this$[ebp], 0
  00573	74 0b		 je	 SHORT $L191239
  00575	8b 4d f0	 mov	 ecx, DWORD PTR _this$[ebp]
  00578	83 c1 58	 add	 ecx, 88			; 00000058H
  0057b	89 4d d8	 mov	 DWORD PTR tv73[ebp], ecx
  0057e	eb 07		 jmp	 SHORT $L191240
$L191239:
  00580	c7 45 d8 00 00
	00 00		 mov	 DWORD PTR tv73[ebp], 0
$L191240:
  00587	8b 4d d8	 mov	 ecx, DWORD PTR tv73[ebp]
  0058a	e8 00 00 00 00	 call	 ??1ITabBarObserver@@UAE@XZ
  0058f	c6 45 fc 00	 mov	 BYTE PTR __$EHRec$[ebp+8], 0
  00593	83 7d f0 00	 cmp	 DWORD PTR _this$[ebp], 0
  00597	74 0b		 je	 SHORT $L191237
  00599	8b 55 f0	 mov	 edx, DWORD PTR _this$[ebp]
  0059c	83 c2 54	 add	 edx, 84			; 00000054H
  0059f	89 55 d4	 mov	 DWORD PTR tv69[ebp], edx
  005a2	eb 07		 jmp	 SHORT $L191238
$L191237:
  005a4	c7 45 d4 00 00
	00 00		 mov	 DWORD PTR tv69[ebp], 0
$L191238:
  005ab	8b 4d d4	 mov	 ecx, DWORD PTR tv69[ebp]
  005ae	e8 00 00 00 00	 call	 ??1CBasicSkinWnd@@UAE@XZ ; CBasicSkinWnd::~CBasicSkinWnd
  005b3	c7 45 fc ff ff
	ff ff		 mov	 DWORD PTR __$EHRec$[ebp+8], -1
  005ba	8b 4d f0	 mov	 ecx, DWORD PTR _this$[ebp]
  005bd	e8 00 00 00 00	 call	 ??1CBasicWnd@@UAE@XZ	; CBasicWnd::~CBasicWnd
  005c2	8b 4d f4	 mov	 ecx, DWORD PTR __$EHRec$[ebp]
  005c5	64 89 0d 00 00
	00 00		 mov	 DWORD PTR fs:__except_list, ecx
  005cc	5e		 pop	 esi
  005cd	83 c4 2c	 add	 esp, 44			; 0000002cH
  005d0	3b ec		 cmp	 ebp, esp
  005d2	e8 00 00 00 00	 call	 __RTC_CheckEsp
  005d7	8b e5		 mov	 esp, ebp
  005d9	5d		 pop	 ebp
  005da	c3		 ret	 0
_TEXT	ENDS
text$x	SEGMENT
$L191247:
  0006f	8b 4d f0	 mov	 ecx, DWORD PTR _this$[ebp]
  00072	e9 00 00 00 00	 jmp	 ??1CBasicWnd@@UAE@XZ	; CBasicWnd::~CBasicWnd
$L191250:
  00077	83 7d f0 00	 cmp	 DWORD PTR _this$[ebp], 0
  0007b	0f 84 0e 00 00
	00		 je	 $L191248
  00081	8b 45 f0	 mov	 eax, DWORD PTR _this$[ebp]
  00084	83 c0 54	 add	 eax, 84			; 00000054H
  00087	89 45 d4	 mov	 DWORD PTR tv69[ebp], eax
  0008a	e9 07 00 00 00	 jmp	 $L191249
$L191248:
  0008f	c7 45 d4 00 00
	00 00		 mov	 DWORD PTR tv69[ebp], 0
$L191249:
  00096	8b 4d d4	 mov	 ecx, DWORD PTR tv69[ebp]
  00099	e9 00 00 00 00	 jmp	 ??1CBasicSkinWnd@@UAE@XZ ; CBasicSkinWnd::~CBasicSkinWnd
$L191253:
  0009e	83 7d f0 00	 cmp	 DWORD PTR _this$[ebp], 0
  000a2	0f 84 0e 00 00
	00		 je	 $L191251
  000a8	8b 45 f0	 mov	 eax, DWORD PTR _this$[ebp]
  000ab	83 c0 58	 add	 eax, 88			; 00000058H
  000ae	89 45 d8	 mov	 DWORD PTR tv73[ebp], eax
  000b1	e9 07 00 00 00	 jmp	 $L191252
$L191251:
  000b6	c7 45 d8 00 00
	00 00		 mov	 DWORD PTR tv73[ebp], 0
$L191252:
  000bd	8b 4d d8	 mov	 ecx, DWORD PTR tv73[ebp]
  000c0	e9 00 00 00 00	 jmp	 ??1ITabBarObserver@@UAE@XZ
$L191254:
  000c5	8b 4d f0	 mov	 ecx, DWORD PTR _this$[ebp]
  000c8	83 c1 60	 add	 ecx, 96			; 00000060H
  000cb	e9 00 00 00 00	 jmp	 ??1CFont@@UAE@XZ	; CFont::~CFont
$L191255:
  000d0	8b 4d f0	 mov	 ecx, DWORD PTR _this$[ebp]
  000d3	83 c1 68	 add	 ecx, 104		; 00000068H
  000d6	e9 00 00 00 00	 jmp	 ??1CFont@@UAE@XZ	; CFont::~CFont
$L191256:
  000db	8b 4d f0	 mov	 ecx, DWORD PTR _this$[ebp]
  000de	83 c1 70	 add	 ecx, 112		; 00000070H
  000e1	e9 00 00 00 00	 jmp	 ??1?$vector@VCRect@@V?$allocator@VCRect@@@std@@@std@@QAE@XZ ; std::vector<CRect,std::allocator<CRect> >::~vector<CRect,std::allocator<CRect> >
$L191257:
  000e6	8b 4d f0	 mov	 ecx, DWORD PTR _this$[ebp]
  000e9	81 c1 80 00 00
	00		 add	 ecx, 128		; 00000080H
  000ef	e9 00 00 00 00	 jmp	 ??1?$vector@VCRect@@V?$allocator@VCRect@@@std@@@std@@QAE@XZ ; std::vector<CRect,std::allocator<CRect> >::~vector<CRect,std::allocator<CRect> >
$L191258:
  000f4	8b 4d f0	 mov	 ecx, DWORD PTR _this$[ebp]
  000f7	81 c1 90 00 00
	00		 add	 ecx, 144		; 00000090H
  000fd	e9 00 00 00 00	 jmp	 ??1?$vector@UTAB_ITEM@@V?$allocator@UTAB_ITEM@@@std@@@std@@QAE@XZ ; std::vector<TAB_ITEM,std::allocator<TAB_ITEM> >::~vector<TAB_ITEM,std::allocator<TAB_ITEM> >
__ehhandler$??1CTabBarWnd@@UAE@XZ:
  00102	b8 00 00 00 00	 mov	 eax, OFFSET FLAT:$T191260
  00107	e9 00 00 00 00	 jmp	 ___CxxFrameHandler
text$x	ENDS
??1CTabBarWnd@@UAE@XZ ENDP				; CTabBarWnd::~CTabBarWnd
PUBLIC	?GetThisMessageMap@CTabBarWnd@@KGPBUAFX_MSGMAP@@XZ ; CTabBarWnd::GetThisMessageMap
; Function compile flags: /Odt /RTCsu
_TEXT	SEGMENT
?GetThisMessageMap@CTabBarWnd@@KGPBUAFX_MSGMAP@@XZ PROC NEAR ; CTabBarWnd::GetThisMessageMap

; 94   : BEGIN_MESSAGE_MAP(CTabBarWnd, CBasicWnd)

  005e0	55		 push	 ebp
  005e1	8b ec		 mov	 ebp, esp
  005e3	b8 00 00 00 00	 mov	 eax, OFFSET FLAT:?messageMap@CTabBarWnd@@1UAFX_MSGMAP@@B ; CTabBarWnd::messageMap
  005e8	5d		 pop	 ebp
  005e9	c3		 ret	 0
?GetThisMessageMap@CTabBarWnd@@KGPBUAFX_MSGMAP@@XZ ENDP	; CTabBarWnd::GetThisMessageMap
; Function compile flags: /Odt /RTCsu
_this$ = -4						; size = 4
?GetMessageMap@CTabBarWnd@@MBEPBUAFX_MSGMAP@@XZ PROC NEAR ; CTabBarWnd::GetMessageMap
; _this$ = ecx

; 94   : BEGIN_MESSAGE_MAP(CTabBarWnd, CBasicWnd)

  005f0	55		 push	 ebp
  005f1	8b ec		 mov	 ebp, esp
  005f3	51		 push	 ecx
  005f4	c7 45 fc cc cc
	cc cc		 mov	 DWORD PTR [ebp-4], -858993460 ; ccccccccH
  005fb	89 4d fc	 mov	 DWORD PTR _this$[ebp], ecx
  005fe	b8 00 00 00 00	 mov	 eax, OFFSET FLAT:?messageMap@CTabBarWnd@@1UAFX_MSGMAP@@B ; CTabBarWnd::messageMap
  00603	8b e5		 mov	 esp, ebp
  00605	5d		 pop	 ebp
  00606	c3		 ret	 0
?GetMessageMap@CTabBarWnd@@MBEPBUAFX_MSGMAP@@XZ ENDP	; CTabBarWnd::GetMessageMap
_TEXT	ENDS
EXTRN	?AfxGetUIManager@@YAPAVIUIManager@@XZ:NEAR	; AfxGetUIManager
EXTRN	?OnCreate@CWnd@@IAEHPAUtagCREATESTRUCTA@@@Z:NEAR ; CWnd::OnCreate
EXTRN	??0CRect@@QAE@HHHH@Z:NEAR			; CRect::CRect
EXTRN	__imp_??0?$CStringT@DV?$StrTraitMFC_DLL@DV?$ChTraitsCRT@D@ATL@@@@@ATL@@QAE@PBD@Z:NEAR
EXTRN	__imp_??1?$CStringT@DV?$StrTraitMFC_DLL@DV?$ChTraitsCRT@D@ATL@@@@@ATL@@QAE@XZ:NEAR
EXTRN	?GetParent@CWnd@@QBEPAV1@XZ:NEAR		; CWnd::GetParent
xdata$x	SEGMENT
$T191280 DD	0ffffffffH
	DD	FLAT:$L191273
	DD	0ffffffffH
	DD	FLAT:$L191275
$T191278 DD	019930520H
	DD	02H
	DD	FLAT:$T191280
	DD	2 DUP(00H)
	DD	2 DUP(00H)
; Function compile flags: /Odt /RTCsu
xdata$x	ENDS
_TEXT	SEGMENT
tv205 = -92						; size = 4
tv200 = -88						; size = 4
tv210 = -84						; size = 4
tv221 = -80						; size = 4
tv218 = -76						; size = 4
tv225 = -72						; size = 4
tv216 = -68						; size = 4
tv213 = -64						; size = 4
tv222 = -60						; size = 4
tv132 = -56						; size = 4
$T191270 = -52						; size = 4
$T191269 = -48						; size = 4
$T191268 = -44						; size = 4
$T191267 = -40						; size = 4
$T191266 = -36						; size = 16
_pLayoutMgr$ = -20					; size = 4
_this$ = -16						; size = 4
__$EHRec$ = -12						; size = 12
_lpCreateStruct$ = 8					; size = 4
?OnCreate@CTabBarWnd@@IAEHPAUtagCREATESTRUCTA@@@Z PROC NEAR ; CTabBarWnd::OnCreate
; _this$ = ecx

; 105  : {

  00610	55		 push	 ebp
  00611	8b ec		 mov	 ebp, esp
  00613	6a ff		 push	 -1
  00615	68 00 00 00 00	 push	 __ehhandler$?OnCreate@CTabBarWnd@@IAEHPAUtagCREATESTRUCTA@@@Z
  0061a	64 a1 00 00 00
	00		 mov	 eax, DWORD PTR fs:__except_list
  00620	50		 push	 eax
  00621	64 89 25 00 00
	00 00		 mov	 DWORD PTR fs:__except_list, esp
  00628	83 ec 50	 sub	 esp, 80			; 00000050H
  0062b	56		 push	 esi
  0062c	57		 push	 edi
  0062d	51		 push	 ecx
  0062e	8d 7d a4	 lea	 edi, DWORD PTR [ebp-92]
  00631	b9 14 00 00 00	 mov	 ecx, 20			; 00000014H
  00636	b8 cc cc cc cc	 mov	 eax, -858993460		; ccccccccH
  0063b	f3 ab		 rep stosd
  0063d	59		 pop	 ecx
  0063e	89 4d f0	 mov	 DWORD PTR _this$[ebp], ecx

; 106  : 	if(__super::OnCreate(lpCreateStruct) == -1)

  00641	8b 45 08	 mov	 eax, DWORD PTR _lpCreateStruct$[ebp]
  00644	50		 push	 eax
  00645	8b 4d f0	 mov	 ecx, DWORD PTR _this$[ebp]
  00648	e8 00 00 00 00	 call	 ?OnCreate@CWnd@@IAEHPAUtagCREATESTRUCTA@@@Z ; CWnd::OnCreate
  0064d	83 f8 ff	 cmp	 eax, -1
  00650	75 08		 jne	 SHORT $L189480

; 107  : 	{
; 108  : 		return -1;

  00652	83 c8 ff	 or	 eax, -1
  00655	e9 9c 01 00 00	 jmp	 $L189479
$L189480:

; 109  : 	}
; 110  : 	m_pToolTip->m_pClientWnd = GetParent();

  0065a	8b 4d f0	 mov	 ecx, DWORD PTR _this$[ebp]
  0065d	e8 00 00 00 00	 call	 ?GetParent@CWnd@@QBEPAV1@XZ ; CWnd::GetParent
  00662	8b 4d f0	 mov	 ecx, DWORD PTR _this$[ebp]
  00665	8b 51 5c	 mov	 edx, DWORD PTR [ecx+92]
  00668	89 42 60	 mov	 DWORD PTR [edx+96], eax

; 111  : 	m_pToolTip->m_hParent	 = m_hWnd;

  0066b	8b 45 f0	 mov	 eax, DWORD PTR _this$[ebp]
  0066e	8b 48 5c	 mov	 ecx, DWORD PTR [eax+92]
  00671	8b 55 f0	 mov	 edx, DWORD PTR _this$[ebp]
  00674	8b 42 20	 mov	 eax, DWORD PTR [edx+32]
  00677	89 81 88 00 00
	00		 mov	 DWORD PTR [ecx+136], eax

; 112  : 	m_pToolTip->CreateEx(WS_EX_TOOLWINDOW|WS_EX_TOPMOST,TOOLTIPS_CLASS,"",TTS_ALWAYSTIP,CRect(0,0,0,0),NULL,0);	

  0067d	8b f4		 mov	 esi, esp
  0067f	6a 00		 push	 0
  00681	6a 00		 push	 0
  00683	6a 00		 push	 0
  00685	6a 00		 push	 0
  00687	6a 00		 push	 0
  00689	6a 00		 push	 0
  0068b	6a 00		 push	 0
  0068d	8d 4d dc	 lea	 ecx, DWORD PTR $T191266[ebp]
  00690	e8 00 00 00 00	 call	 ??0CRect@@QAE@HHHH@Z	; CRect::CRect
  00695	50		 push	 eax
  00696	6a 01		 push	 1
  00698	68 00 00 00 00	 push	 OFFSET FLAT:$SG189482
  0069d	68 00 00 00 00	 push	 OFFSET FLAT:$SG189483
  006a2	68 88 00 00 00	 push	 136			; 00000088H
  006a7	8b 4d f0	 mov	 ecx, DWORD PTR _this$[ebp]
  006aa	8b 51 5c	 mov	 edx, DWORD PTR [ecx+92]
  006ad	8b 45 f0	 mov	 eax, DWORD PTR _this$[ebp]
  006b0	8b 48 5c	 mov	 ecx, DWORD PTR [eax+92]
  006b3	8b 12		 mov	 edx, DWORD PTR [edx]
  006b5	ff 52 60	 call	 DWORD PTR [edx+96]
  006b8	3b f4		 cmp	 esi, esp
  006ba	e8 00 00 00 00	 call	 __RTC_CheckEsp

; 113  : 	m_pToolTip->m_clrBK = RGB(255, 255, 225);

  006bf	8b 45 f0	 mov	 eax, DWORD PTR _this$[ebp]
  006c2	8b 48 5c	 mov	 ecx, DWORD PTR [eax+92]
  006c5	c7 41 5c ff ff
	e1 00		 mov	 DWORD PTR [ecx+92], 14811135 ; 00e1ffffH

; 114  : 
; 115  : 	ILayoutMgr* pLayoutMgr =  AfxGetUIManager()->UIGetLayoutMgr();

  006cc	e8 00 00 00 00	 call	 ?AfxGetUIManager@@YAPAVIUIManager@@XZ ; AfxGetUIManager
  006d1	89 45 c8	 mov	 DWORD PTR tv132[ebp], eax
  006d4	8b 55 c8	 mov	 edx, DWORD PTR tv132[ebp]
  006d7	8b 02		 mov	 eax, DWORD PTR [edx]
  006d9	8b f4		 mov	 esi, esp
  006db	8b 4d c8	 mov	 ecx, DWORD PTR tv132[ebp]
  006de	ff 50 24	 call	 DWORD PTR [eax+36]
  006e1	3b f4		 cmp	 esi, esp
  006e3	e8 00 00 00 00	 call	 __RTC_CheckEsp
  006e8	89 45 ec	 mov	 DWORD PTR _pLayoutMgr$[ebp], eax

; 116  : 	pLayoutMgr->CreateControlPane( this,"tabbarWnd","normal");

  006eb	51		 push	 ecx
  006ec	8b cc		 mov	 ecx, esp
  006ee	89 65 d8	 mov	 DWORD PTR $T191267[ebp], esp
  006f1	8b f4		 mov	 esi, esp
  006f3	68 00 00 00 00	 push	 OFFSET FLAT:$SG189493
  006f8	ff 15 00 00 00
	00		 call	 DWORD PTR __imp_??0?$CStringT@DV?$StrTraitMFC_DLL@DV?$ChTraitsCRT@D@ATL@@@@@ATL@@QAE@PBD@Z
  006fe	3b f4		 cmp	 esi, esp
  00700	e8 00 00 00 00	 call	 __RTC_CheckEsp
  00705	89 45 c4	 mov	 DWORD PTR tv222[ebp], eax
  00708	8b 4d c4	 mov	 ecx, DWORD PTR tv222[ebp]
  0070b	89 4d c0	 mov	 DWORD PTR tv213[ebp], ecx
  0070e	c7 45 fc 00 00
	00 00		 mov	 DWORD PTR __$EHRec$[ebp+8], 0
  00715	51		 push	 ecx
  00716	8b cc		 mov	 ecx, esp
  00718	89 65 d4	 mov	 DWORD PTR $T191268[ebp], esp
  0071b	8b f4		 mov	 esi, esp
  0071d	68 00 00 00 00	 push	 OFFSET FLAT:$SG189494
  00722	ff 15 00 00 00
	00		 call	 DWORD PTR __imp_??0?$CStringT@DV?$StrTraitMFC_DLL@DV?$ChTraitsCRT@D@ATL@@@@@ATL@@QAE@PBD@Z
  00728	3b f4		 cmp	 esi, esp
  0072a	e8 00 00 00 00	 call	 __RTC_CheckEsp
  0072f	89 45 bc	 mov	 DWORD PTR tv216[ebp], eax
  00732	8b 55 f0	 mov	 edx, DWORD PTR _this$[ebp]
  00735	52		 push	 edx
  00736	8b 45 ec	 mov	 eax, DWORD PTR _pLayoutMgr$[ebp]
  00739	8b 10		 mov	 edx, DWORD PTR [eax]
  0073b	c7 45 fc ff ff
	ff ff		 mov	 DWORD PTR __$EHRec$[ebp+8], -1
  00742	8b 4d ec	 mov	 ecx, DWORD PTR _pLayoutMgr$[ebp]
  00745	ff 52 38	 call	 DWORD PTR [edx+56]

; 117  : 	pLayoutMgr->CreateBmpPane( this,"tabbarWnd","normal" );

  00748	51		 push	 ecx
  00749	8b cc		 mov	 ecx, esp
  0074b	89 65 d0	 mov	 DWORD PTR $T191269[ebp], esp
  0074e	8b f4		 mov	 esi, esp
  00750	68 00 00 00 00	 push	 OFFSET FLAT:$SG189497
  00755	ff 15 00 00 00
	00		 call	 DWORD PTR __imp_??0?$CStringT@DV?$StrTraitMFC_DLL@DV?$ChTraitsCRT@D@ATL@@@@@ATL@@QAE@PBD@Z
  0075b	3b f4		 cmp	 esi, esp
  0075d	e8 00 00 00 00	 call	 __RTC_CheckEsp
  00762	89 45 b8	 mov	 DWORD PTR tv225[ebp], eax
  00765	8b 45 b8	 mov	 eax, DWORD PTR tv225[ebp]
  00768	89 45 b4	 mov	 DWORD PTR tv218[ebp], eax
  0076b	c7 45 fc 01 00
	00 00		 mov	 DWORD PTR __$EHRec$[ebp+8], 1
  00772	51		 push	 ecx
  00773	8b cc		 mov	 ecx, esp
  00775	89 65 cc	 mov	 DWORD PTR $T191270[ebp], esp
  00778	8b f4		 mov	 esi, esp
  0077a	68 00 00 00 00	 push	 OFFSET FLAT:$SG189498
  0077f	ff 15 00 00 00
	00		 call	 DWORD PTR __imp_??0?$CStringT@DV?$StrTraitMFC_DLL@DV?$ChTraitsCRT@D@ATL@@@@@ATL@@QAE@PBD@Z
  00785	3b f4		 cmp	 esi, esp
  00787	e8 00 00 00 00	 call	 __RTC_CheckEsp
  0078c	89 45 b0	 mov	 DWORD PTR tv221[ebp], eax
  0078f	8b 4d f0	 mov	 ecx, DWORD PTR _this$[ebp]
  00792	51		 push	 ecx
  00793	8b 55 ec	 mov	 edx, DWORD PTR _pLayoutMgr$[ebp]
  00796	8b 02		 mov	 eax, DWORD PTR [edx]
  00798	c7 45 fc ff ff
	ff ff		 mov	 DWORD PTR __$EHRec$[ebp+8], -1
  0079f	8b 4d ec	 mov	 ecx, DWORD PTR _pLayoutMgr$[ebp]
  007a2	ff 50 58	 call	 DWORD PTR [eax+88]

; 118  : 
; 119  : 	AfxGetUIManager()->UIGetSkinMgr()->AddSkinWnd( this );

  007a5	83 7d f0 00	 cmp	 DWORD PTR _this$[ebp], 0
  007a9	74 0b		 je	 SHORT $L191271
  007ab	8b 4d f0	 mov	 ecx, DWORD PTR _this$[ebp]
  007ae	83 c1 54	 add	 ecx, 84			; 00000054H
  007b1	89 4d ac	 mov	 DWORD PTR tv210[ebp], ecx
  007b4	eb 07		 jmp	 SHORT $L191272
$L191271:
  007b6	c7 45 ac 00 00
	00 00		 mov	 DWORD PTR tv210[ebp], 0
$L191272:
  007bd	e8 00 00 00 00	 call	 ?AfxGetUIManager@@YAPAVIUIManager@@XZ ; AfxGetUIManager
  007c2	89 45 a8	 mov	 DWORD PTR tv200[ebp], eax
  007c5	8b f4		 mov	 esi, esp
  007c7	8b 55 a8	 mov	 edx, DWORD PTR tv200[ebp]
  007ca	8b 02		 mov	 eax, DWORD PTR [edx]
  007cc	8b 4d a8	 mov	 ecx, DWORD PTR tv200[ebp]
  007cf	ff 50 28	 call	 DWORD PTR [eax+40]
  007d2	3b f4		 cmp	 esi, esp
  007d4	e8 00 00 00 00	 call	 __RTC_CheckEsp
  007d9	89 45 a4	 mov	 DWORD PTR tv205[ebp], eax
  007dc	8b f4		 mov	 esi, esp
  007de	8b 4d ac	 mov	 ecx, DWORD PTR tv210[ebp]
  007e1	51		 push	 ecx
  007e2	8b 55 a4	 mov	 edx, DWORD PTR tv205[ebp]
  007e5	8b 02		 mov	 eax, DWORD PTR [edx]
  007e7	8b 4d a4	 mov	 ecx, DWORD PTR tv205[ebp]
  007ea	ff 50 14	 call	 DWORD PTR [eax+20]
  007ed	3b f4		 cmp	 esi, esp
  007ef	e8 00 00 00 00	 call	 __RTC_CheckEsp

; 120  : 	return 0;

  007f4	33 c0		 xor	 eax, eax
$L189479:

; 121  : }

  007f6	8b 4d f4	 mov	 ecx, DWORD PTR __$EHRec$[ebp]
  007f9	64 89 0d 00 00
	00 00		 mov	 DWORD PTR fs:__except_list, ecx
  00800	5f		 pop	 edi
  00801	5e		 pop	 esi
  00802	83 c4 5c	 add	 esp, 92			; 0000005cH
  00805	3b ec		 cmp	 ebp, esp
  00807	e8 00 00 00 00	 call	 __RTC_CheckEsp
  0080c	8b e5		 mov	 esp, ebp
  0080e	5d		 pop	 ebp
  0080f	c2 04 00	 ret	 4
_TEXT	ENDS
text$x	SEGMENT
$L191273:
  0010c	8b f4		 mov	 esi, esp
  0010e	8b 4d d8	 mov	 ecx, DWORD PTR $T191267[ebp]
  00111	ff 15 00 00 00
	00		 call	 DWORD PTR __imp_??1?$CStringT@DV?$StrTraitMFC_DLL@DV?$ChTraitsCRT@D@ATL@@@@@ATL@@QAE@XZ
  00117	3b f4		 cmp	 esi, esp
  00119	e9 00 00 00 00	 jmp	 __RTC_CheckEsp
$L191275:
  0011e	8b f4		 mov	 esi, esp
  00120	8b 4d d0	 mov	 ecx, DWORD PTR $T191269[ebp]
  00123	ff 15 00 00 00
	00		 call	 DWORD PTR __imp_??1?$CStringT@DV?$StrTraitMFC_DLL@DV?$ChTraitsCRT@D@ATL@@@@@ATL@@QAE@XZ
  00129	3b f4		 cmp	 esi, esp
  0012b	e9 00 00 00 00	 jmp	 __RTC_CheckEsp
__ehhandler$?OnCreate@CTabBarWnd@@IAEHPAUtagCREATESTRUCTA@@@Z:
  00130	b8 00 00 00 00	 mov	 eax, OFFSET FLAT:$T191278
  00135	e9 00 00 00 00	 jmp	 ___CxxFrameHandler
text$x	ENDS
?OnCreate@CTabBarWnd@@IAEHPAUtagCREATESTRUCTA@@@Z ENDP	; CTabBarWnd::OnCreate
; Function compile flags: /Odt /RTCsu
_TEXT	SEGMENT
tv66 = -12						; size = 4
_pSkinMgr$ = -8						; size = 4
_this$ = -4						; size = 4
?LoadSkin@CTabBarWnd@@UAEXXZ PROC NEAR			; CTabBarWnd::LoadSkin
; _this$ = ecx

; 124  : {

  00820	55		 push	 ebp
  00821	8b ec		 mov	 ebp, esp
  00823	83 ec 0c	 sub	 esp, 12			; 0000000cH
  00826	56		 push	 esi
  00827	c7 45 f4 cc cc
	cc cc		 mov	 DWORD PTR [ebp-12], -858993460 ; ccccccccH
  0082e	c7 45 f8 cc cc
	cc cc		 mov	 DWORD PTR [ebp-8], -858993460 ; ccccccccH
  00835	c7 45 fc cc cc
	cc cc		 mov	 DWORD PTR [ebp-4], -858993460 ; ccccccccH
  0083c	89 4d fc	 mov	 DWORD PTR _this$[ebp], ecx

; 125  : 	ISkinMgr* pSkinMgr = AfxGetUIManager()->UIGetSkinMgr();

  0083f	e8 00 00 00 00	 call	 ?AfxGetUIManager@@YAPAVIUIManager@@XZ ; AfxGetUIManager
  00844	89 45 f4	 mov	 DWORD PTR tv66[ebp], eax
  00847	8b 45 f4	 mov	 eax, DWORD PTR tv66[ebp]
  0084a	8b 10		 mov	 edx, DWORD PTR [eax]
  0084c	8b f4		 mov	 esi, esp
  0084e	8b 4d f4	 mov	 ecx, DWORD PTR tv66[ebp]
  00851	ff 52 28	 call	 DWORD PTR [edx+40]
  00854	3b f4		 cmp	 esi, esp
  00856	e8 00 00 00 00	 call	 __RTC_CheckEsp
  0085b	89 45 f8	 mov	 DWORD PTR _pSkinMgr$[ebp], eax

; 126  : 	m_pBmpRectNormalLeft   = pSkinMgr->GetDibBmp( "TabBarRectLeftNormal" );

  0085e	8b f4		 mov	 esi, esp
  00860	68 00 00 00 00	 push	 OFFSET FLAT:$SG189503
  00865	8b 45 f8	 mov	 eax, DWORD PTR _pSkinMgr$[ebp]
  00868	8b 10		 mov	 edx, DWORD PTR [eax]
  0086a	8b 4d f8	 mov	 ecx, DWORD PTR _pSkinMgr$[ebp]
  0086d	ff 52 04	 call	 DWORD PTR [edx+4]
  00870	3b f4		 cmp	 esi, esp
  00872	e8 00 00 00 00	 call	 __RTC_CheckEsp
  00877	8b 4d fc	 mov	 ecx, DWORD PTR _this$[ebp]
  0087a	89 41 78	 mov	 DWORD PTR [ecx+120], eax

; 127  : 	m_pBmpRectNormalMiddle = pSkinMgr->GetDibBmp( "TabBarRectMiddleNormal" );

  0087d	8b f4		 mov	 esi, esp
  0087f	68 00 00 00 00	 push	 OFFSET FLAT:$SG189504
  00884	8b 55 f8	 mov	 edx, DWORD PTR _pSkinMgr$[ebp]
  00887	8b 02		 mov	 eax, DWORD PTR [edx]
  00889	8b 4d f8	 mov	 ecx, DWORD PTR _pSkinMgr$[ebp]
  0088c	ff 50 04	 call	 DWORD PTR [eax+4]
  0088f	3b f4		 cmp	 esi, esp
  00891	e8 00 00 00 00	 call	 __RTC_CheckEsp
  00896	8b 4d fc	 mov	 ecx, DWORD PTR _this$[ebp]
  00899	89 41 7c	 mov	 DWORD PTR [ecx+124], eax

; 128  : 	m_pBmpRectNormalRight  = pSkinMgr->GetDibBmp( "TabBarRectRightNormal" );

  0089c	8b f4		 mov	 esi, esp
  0089e	68 00 00 00 00	 push	 OFFSET FLAT:$SG189505
  008a3	8b 55 f8	 mov	 edx, DWORD PTR _pSkinMgr$[ebp]
  008a6	8b 02		 mov	 eax, DWORD PTR [edx]
  008a8	8b 4d f8	 mov	 ecx, DWORD PTR _pSkinMgr$[ebp]
  008ab	ff 50 04	 call	 DWORD PTR [eax+4]
  008ae	3b f4		 cmp	 esi, esp
  008b0	e8 00 00 00 00	 call	 __RTC_CheckEsp
  008b5	8b 4d fc	 mov	 ecx, DWORD PTR _this$[ebp]
  008b8	89 81 80 00 00
	00		 mov	 DWORD PTR [ecx+128], eax

; 129  : 
; 130  : 	m_pBmpRectOverLeft   = pSkinMgr->GetDibBmp( "TabBarRectLeftOver" );

  008be	8b f4		 mov	 esi, esp
  008c0	68 00 00 00 00	 push	 OFFSET FLAT:$SG189506
  008c5	8b 55 f8	 mov	 edx, DWORD PTR _pSkinMgr$[ebp]
  008c8	8b 02		 mov	 eax, DWORD PTR [edx]
  008ca	8b 4d f8	 mov	 ecx, DWORD PTR _pSkinMgr$[ebp]
  008cd	ff 50 04	 call	 DWORD PTR [eax+4]
  008d0	3b f4		 cmp	 esi, esp
  008d2	e8 00 00 00 00	 call	 __RTC_CheckEsp
  008d7	8b 4d fc	 mov	 ecx, DWORD PTR _this$[ebp]
  008da	89 81 84 00 00
	00		 mov	 DWORD PTR [ecx+132], eax

; 131  : 	m_pBmpRectOverMiddle = pSkinMgr->GetDibBmp( "TabBarRectMiddleOver" );

  008e0	8b f4		 mov	 esi, esp
  008e2	68 00 00 00 00	 push	 OFFSET FLAT:$SG189507
  008e7	8b 55 f8	 mov	 edx, DWORD PTR _pSkinMgr$[ebp]
  008ea	8b 02		 mov	 eax, DWORD PTR [edx]
  008ec	8b 4d f8	 mov	 ecx, DWORD PTR _pSkinMgr$[ebp]
  008ef	ff 50 04	 call	 DWORD PTR [eax+4]
  008f2	3b f4		 cmp	 esi, esp
  008f4	e8 00 00 00 00	 call	 __RTC_CheckEsp
  008f9	8b 4d fc	 mov	 ecx, DWORD PTR _this$[ebp]
  008fc	89 81 88 00 00
	00		 mov	 DWORD PTR [ecx+136], eax

; 132  : 	m_pBmpRectOverRight  = pSkinMgr->GetDibBmp( "TabBarRectRightOver" );

  00902	8b f4		 mov	 esi, esp
  00904	68 00 00 00 00	 push	 OFFSET FLAT:$SG189508
  00909	8b 55 f8	 mov	 edx, DWORD PTR _pSkinMgr$[ebp]
  0090c	8b 02		 mov	 eax, DWORD PTR [edx]
  0090e	8b 4d f8	 mov	 ecx, DWORD PTR _pSkinMgr$[ebp]
  00911	ff 50 04	 call	 DWORD PTR [eax+4]
  00914	3b f4		 cmp	 esi, esp
  00916	e8 00 00 00 00	 call	 __RTC_CheckEsp
  0091b	8b 4d fc	 mov	 ecx, DWORD PTR _this$[ebp]
  0091e	89 81 8c 00 00
	00		 mov	 DWORD PTR [ecx+140], eax

; 133  : 
; 134  : 	m_pBmpRectDownLeft   = pSkinMgr->GetDibBmp( "TabBarRectLeftDown" );

  00924	8b f4		 mov	 esi, esp
  00926	68 00 00 00 00	 push	 OFFSET FLAT:$SG189509
  0092b	8b 55 f8	 mov	 edx, DWORD PTR _pSkinMgr$[ebp]
  0092e	8b 02		 mov	 eax, DWORD PTR [edx]
  00930	8b 4d f8	 mov	 ecx, DWORD PTR _pSkinMgr$[ebp]
  00933	ff 50 04	 call	 DWORD PTR [eax+4]
  00936	3b f4		 cmp	 esi, esp
  00938	e8 00 00 00 00	 call	 __RTC_CheckEsp
  0093d	8b 4d fc	 mov	 ecx, DWORD PTR _this$[ebp]
  00940	89 81 90 00 00
	00		 mov	 DWORD PTR [ecx+144], eax

; 135  : 	m_pBmpRectDownMiddle = pSkinMgr->GetDibBmp( "TabBarRectMiddleDown" );

  00946	8b f4		 mov	 esi, esp
  00948	68 00 00 00 00	 push	 OFFSET FLAT:$SG189510
  0094d	8b 55 f8	 mov	 edx, DWORD PTR _pSkinMgr$[ebp]
  00950	8b 02		 mov	 eax, DWORD PTR [edx]
  00952	8b 4d f8	 mov	 ecx, DWORD PTR _pSkinMgr$[ebp]
  00955	ff 50 04	 call	 DWORD PTR [eax+4]
  00958	3b f4		 cmp	 esi, esp
  0095a	e8 00 00 00 00	 call	 __RTC_CheckEsp
  0095f	8b 4d fc	 mov	 ecx, DWORD PTR _this$[ebp]
  00962	89 81 94 00 00
	00		 mov	 DWORD PTR [ecx+148], eax

; 136  : 	m_pBmpRectDownRight  = pSkinMgr->GetDibBmp( "TabBarRectRightDown" );

  00968	8b f4		 mov	 esi, esp
  0096a	68 00 00 00 00	 push	 OFFSET FLAT:$SG189511
  0096f	8b 55 f8	 mov	 edx, DWORD PTR _pSkinMgr$[ebp]
  00972	8b 02		 mov	 eax, DWORD PTR [edx]
  00974	8b 4d f8	 mov	 ecx, DWORD PTR _pSkinMgr$[ebp]
  00977	ff 50 04	 call	 DWORD PTR [eax+4]
  0097a	3b f4		 cmp	 esi, esp
  0097c	e8 00 00 00 00	 call	 __RTC_CheckEsp
  00981	8b 4d fc	 mov	 ecx, DWORD PTR _this$[ebp]
  00984	89 81 98 00 00
	00		 mov	 DWORD PTR [ecx+152], eax

; 137  : 
; 138  : 	m_pBmpCloseNormal = pSkinMgr->GetDibBmp( "TabBarCloseNormal" );

  0098a	8b f4		 mov	 esi, esp
  0098c	68 00 00 00 00	 push	 OFFSET FLAT:$SG189512
  00991	8b 55 f8	 mov	 edx, DWORD PTR _pSkinMgr$[ebp]
  00994	8b 02		 mov	 eax, DWORD PTR [edx]
  00996	8b 4d f8	 mov	 ecx, DWORD PTR _pSkinMgr$[ebp]
  00999	ff 50 04	 call	 DWORD PTR [eax+4]
  0099c	3b f4		 cmp	 esi, esp
  0099e	e8 00 00 00 00	 call	 __RTC_CheckEsp
  009a3	8b 4d fc	 mov	 ecx, DWORD PTR _this$[ebp]
  009a6	89 81 9c 00 00
	00		 mov	 DWORD PTR [ecx+156], eax

; 139  : 	m_pBmpCloseOver   = pSkinMgr->GetDibBmp( "TabBarCloseOver" );

  009ac	8b f4		 mov	 esi, esp
  009ae	68 00 00 00 00	 push	 OFFSET FLAT:$SG189513
  009b3	8b 55 f8	 mov	 edx, DWORD PTR _pSkinMgr$[ebp]
  009b6	8b 02		 mov	 eax, DWORD PTR [edx]
  009b8	8b 4d f8	 mov	 ecx, DWORD PTR _pSkinMgr$[ebp]
  009bb	ff 50 04	 call	 DWORD PTR [eax+4]
  009be	3b f4		 cmp	 esi, esp
  009c0	e8 00 00 00 00	 call	 __RTC_CheckEsp
  009c5	8b 4d fc	 mov	 ecx, DWORD PTR _this$[ebp]
  009c8	89 81 a0 00 00
	00		 mov	 DWORD PTR [ecx+160], eax

; 140  : 	m_pBmpCloseDown   = pSkinMgr->GetDibBmp( "TabBarCloseDown" );

  009ce	8b f4		 mov	 esi, esp
  009d0	68 00 00 00 00	 push	 OFFSET FLAT:$SG189514
  009d5	8b 55 f8	 mov	 edx, DWORD PTR _pSkinMgr$[ebp]
  009d8	8b 02		 mov	 eax, DWORD PTR [edx]
  009da	8b 4d f8	 mov	 ecx, DWORD PTR _pSkinMgr$[ebp]
  009dd	ff 50 04	 call	 DWORD PTR [eax+4]
  009e0	3b f4		 cmp	 esi, esp
  009e2	e8 00 00 00 00	 call	 __RTC_CheckEsp
  009e7	8b 4d fc	 mov	 ecx, DWORD PTR _this$[ebp]
  009ea	89 81 a4 00 00
	00		 mov	 DWORD PTR [ecx+164], eax

; 141  : 
; 142  : 	m_pBmpSelCloseNormal = pSkinMgr->GetDibBmp( "TabBarSelCloseNormal" );

  009f0	8b f4		 mov	 esi, esp
  009f2	68 00 00 00 00	 push	 OFFSET FLAT:$SG189515
  009f7	8b 55 f8	 mov	 edx, DWORD PTR _pSkinMgr$[ebp]
  009fa	8b 02		 mov	 eax, DWORD PTR [edx]
  009fc	8b 4d f8	 mov	 ecx, DWORD PTR _pSkinMgr$[ebp]
  009ff	ff 50 04	 call	 DWORD PTR [eax+4]
  00a02	3b f4		 cmp	 esi, esp
  00a04	e8 00 00 00 00	 call	 __RTC_CheckEsp
  00a09	8b 4d fc	 mov	 ecx, DWORD PTR _this$[ebp]
  00a0c	89 81 a8 00 00
	00		 mov	 DWORD PTR [ecx+168], eax

; 143  : 	m_pBmpSelCloseOver   = pSkinMgr->GetDibBmp( "TabBarSelCloseOver" );

  00a12	8b f4		 mov	 esi, esp
  00a14	68 00 00 00 00	 push	 OFFSET FLAT:$SG189516
  00a19	8b 55 f8	 mov	 edx, DWORD PTR _pSkinMgr$[ebp]
  00a1c	8b 02		 mov	 eax, DWORD PTR [edx]
  00a1e	8b 4d f8	 mov	 ecx, DWORD PTR _pSkinMgr$[ebp]
  00a21	ff 50 04	 call	 DWORD PTR [eax+4]
  00a24	3b f4		 cmp	 esi, esp
  00a26	e8 00 00 00 00	 call	 __RTC_CheckEsp
  00a2b	8b 4d fc	 mov	 ecx, DWORD PTR _this$[ebp]
  00a2e	89 81 ac 00 00
	00		 mov	 DWORD PTR [ecx+172], eax

; 144  : 	m_pBmpSelCloseDown   = pSkinMgr->GetDibBmp( "TabBarSelCloseDown" );

  00a34	8b f4		 mov	 esi, esp
  00a36	68 00 00 00 00	 push	 OFFSET FLAT:$SG189517
  00a3b	8b 55 f8	 mov	 edx, DWORD PTR _pSkinMgr$[ebp]
  00a3e	8b 02		 mov	 eax, DWORD PTR [edx]
  00a40	8b 4d f8	 mov	 ecx, DWORD PTR _pSkinMgr$[ebp]
  00a43	ff 50 04	 call	 DWORD PTR [eax+4]
  00a46	3b f4		 cmp	 esi, esp
  00a48	e8 00 00 00 00	 call	 __RTC_CheckEsp
  00a4d	8b 4d fc	 mov	 ecx, DWORD PTR _this$[ebp]
  00a50	89 81 b0 00 00
	00		 mov	 DWORD PTR [ecx+176], eax

; 145  : 
; 146  : 	m_pBmpNewWindowNormal = pSkinMgr->GetDibBmp( "TabbarNewWindowNormal" );

  00a56	8b f4		 mov	 esi, esp
  00a58	68 00 00 00 00	 push	 OFFSET FLAT:$SG189518
  00a5d	8b 55 f8	 mov	 edx, DWORD PTR _pSkinMgr$[ebp]
  00a60	8b 02		 mov	 eax, DWORD PTR [edx]
  00a62	8b 4d f8	 mov	 ecx, DWORD PTR _pSkinMgr$[ebp]
  00a65	ff 50 04	 call	 DWORD PTR [eax+4]
  00a68	3b f4		 cmp	 esi, esp
  00a6a	e8 00 00 00 00	 call	 __RTC_CheckEsp
  00a6f	8b 4d fc	 mov	 ecx, DWORD PTR _this$[ebp]
  00a72	89 81 b4 00 00
	00		 mov	 DWORD PTR [ecx+180], eax

; 147  : 	m_pBmpNewWindowOver = pSkinMgr->GetDibBmp( "TabbarNewWindowOver" );

  00a78	8b f4		 mov	 esi, esp
  00a7a	68 00 00 00 00	 push	 OFFSET FLAT:$SG189519
  00a7f	8b 55 f8	 mov	 edx, DWORD PTR _pSkinMgr$[ebp]
  00a82	8b 02		 mov	 eax, DWORD PTR [edx]
  00a84	8b 4d f8	 mov	 ecx, DWORD PTR _pSkinMgr$[ebp]
  00a87	ff 50 04	 call	 DWORD PTR [eax+4]
  00a8a	3b f4		 cmp	 esi, esp
  00a8c	e8 00 00 00 00	 call	 __RTC_CheckEsp
  00a91	8b 4d fc	 mov	 ecx, DWORD PTR _this$[ebp]
  00a94	89 81 b8 00 00
	00		 mov	 DWORD PTR [ecx+184], eax

; 148  : 	m_pBmpNewWindowDown = pSkinMgr->GetDibBmp( "TabbarNewWindowDown" );		

  00a9a	8b f4		 mov	 esi, esp
  00a9c	68 00 00 00 00	 push	 OFFSET FLAT:$SG189520
  00aa1	8b 55 f8	 mov	 edx, DWORD PTR _pSkinMgr$[ebp]
  00aa4	8b 02		 mov	 eax, DWORD PTR [edx]
  00aa6	8b 4d f8	 mov	 ecx, DWORD PTR _pSkinMgr$[ebp]
  00aa9	ff 50 04	 call	 DWORD PTR [eax+4]
  00aac	3b f4		 cmp	 esi, esp
  00aae	e8 00 00 00 00	 call	 __RTC_CheckEsp
  00ab3	8b 4d fc	 mov	 ecx, DWORD PTR _this$[ebp]
  00ab6	89 81 bc 00 00
	00		 mov	 DWORD PTR [ecx+188], eax

; 149  : 
; 150  : 	m_colNormalTextColor = pSkinMgr->GetColor( "TabBarNormalTextColor" );

  00abc	8b f4		 mov	 esi, esp
  00abe	68 00 00 00 00	 push	 OFFSET FLAT:$SG189521
  00ac3	8b 55 f8	 mov	 edx, DWORD PTR _pSkinMgr$[ebp]
  00ac6	8b 02		 mov	 eax, DWORD PTR [edx]
  00ac8	8b 4d f8	 mov	 ecx, DWORD PTR _pSkinMgr$[ebp]
  00acb	ff 50 08	 call	 DWORD PTR [eax+8]
  00ace	3b f4		 cmp	 esi, esp
  00ad0	e8 00 00 00 00	 call	 __RTC_CheckEsp
  00ad5	8b 4d fc	 mov	 ecx, DWORD PTR _this$[ebp]
  00ad8	89 41 6c	 mov	 DWORD PTR [ecx+108], eax

; 151  : 	m_colDownTextColor	 = pSkinMgr->GetColor( "TabBarDownTextColor" );

  00adb	8b f4		 mov	 esi, esp
  00add	68 00 00 00 00	 push	 OFFSET FLAT:$SG189522
  00ae2	8b 55 f8	 mov	 edx, DWORD PTR _pSkinMgr$[ebp]
  00ae5	8b 02		 mov	 eax, DWORD PTR [edx]
  00ae7	8b 4d f8	 mov	 ecx, DWORD PTR _pSkinMgr$[ebp]
  00aea	ff 50 08	 call	 DWORD PTR [eax+8]
  00aed	3b f4		 cmp	 esi, esp
  00aef	e8 00 00 00 00	 call	 __RTC_CheckEsp
  00af4	8b 4d fc	 mov	 ecx, DWORD PTR _this$[ebp]
  00af7	89 41 70	 mov	 DWORD PTR [ecx+112], eax

; 152  : }

  00afa	5e		 pop	 esi
  00afb	83 c4 0c	 add	 esp, 12			; 0000000cH
  00afe	3b ec		 cmp	 ebp, esp
  00b00	e8 00 00 00 00	 call	 __RTC_CheckEsp
  00b05	8b e5		 mov	 esp, ebp
  00b07	5d		 pop	 ebp
  00b08	c3		 ret	 0
?LoadSkin@CTabBarWnd@@UAEXXZ ENDP			; CTabBarWnd::LoadSkin
_TEXT	ENDS
PUBLIC	?CalcTabPosition@CTabBarWnd@@AAEXXZ		; CTabBarWnd::CalcTabPosition
EXTRN	?OnSize@CBasicWnd@@IAEXIHH@Z:NEAR		; CBasicWnd::OnSize
; Function compile flags: /Odt /RTCsu
_TEXT	SEGMENT
_this$ = -4						; size = 4
_nType$ = 8						; size = 4
_cx$ = 12						; size = 4
_cy$ = 16						; size = 4
?OnSize@CTabBarWnd@@IAEXIHH@Z PROC NEAR			; CTabBarWnd::OnSize
; _this$ = ecx

; 155  : {

  00b10	55		 push	 ebp
  00b11	8b ec		 mov	 ebp, esp
  00b13	51		 push	 ecx
  00b14	c7 45 fc cc cc
	cc cc		 mov	 DWORD PTR [ebp-4], -858993460 ; ccccccccH
  00b1b	89 4d fc	 mov	 DWORD PTR _this$[ebp], ecx

; 156  : 	CalcTabPosition();

  00b1e	8b 4d fc	 mov	 ecx, DWORD PTR _this$[ebp]
  00b21	e8 00 00 00 00	 call	 ?CalcTabPosition@CTabBarWnd@@AAEXXZ ; CTabBarWnd::CalcTabPosition

; 157  : 	__super::OnSize(nType,cx,cy);

  00b26	8b 45 10	 mov	 eax, DWORD PTR _cy$[ebp]
  00b29	50		 push	 eax
  00b2a	8b 4d 0c	 mov	 ecx, DWORD PTR _cx$[ebp]
  00b2d	51		 push	 ecx
  00b2e	8b 55 08	 mov	 edx, DWORD PTR _nType$[ebp]
  00b31	52		 push	 edx
  00b32	8b 4d fc	 mov	 ecx, DWORD PTR _this$[ebp]
  00b35	e8 00 00 00 00	 call	 ?OnSize@CBasicWnd@@IAEXIHH@Z ; CBasicWnd::OnSize

; 158  : }

  00b3a	83 c4 04	 add	 esp, 4
  00b3d	3b ec		 cmp	 ebp, esp
  00b3f	e8 00 00 00 00	 call	 __RTC_CheckEsp
  00b44	8b e5		 mov	 esp, ebp
  00b46	5d		 pop	 ebp
  00b47	c2 0c 00	 ret	 12			; 0000000cH
?OnSize@CTabBarWnd@@IAEXIHH@Z ENDP			; CTabBarWnd::OnSize
_TEXT	ENDS
PUBLIC	?DrawBar@CTabBarWnd@@AAEXPAVCDC@@@Z		; CTabBarWnd::DrawBar
EXTRN	?BitBlt@CDC@@QAEHHHHHPAV1@HHK@Z:NEAR		; CDC::BitBlt
EXTRN	__imp__DeleteObject@4:NEAR
EXTRN	??1CDC@@UAE@XZ:NEAR				; CDC::~CDC
EXTRN	?SelectObject@CDC@@QAEPAXPAX@Z:NEAR		; CDC::SelectObject
EXTRN	??0CPaintDC@@QAE@PAVCWnd@@@Z:NEAR		; CPaintDC::CPaintDC
EXTRN	??1CPaintDC@@UAE@XZ:NEAR			; CPaintDC::~CPaintDC
EXTRN	?Width@CRect@@QBEHXZ:NEAR			; CRect::Width
EXTRN	?Height@CRect@@QBEHXZ:NEAR			; CRect::Height
EXTRN	__imp__CreateDIBSection@24:NEAR
EXTRN	?GetClientRect@CWnd@@QBEXPAUtagRECT@@@Z:NEAR	; CWnd::GetClientRect
EXTRN	??0CDC@@QAE@XZ:NEAR				; CDC::CDC
EXTRN	?CreateCompatibleDC@CDC@@QAEHPAV1@@Z:NEAR	; CDC::CreateCompatibleDC
EXTRN	?DeleteDC@CDC@@QAEHXZ:NEAR			; CDC::DeleteDC
xdata$x	SEGMENT
$T191297 DD	0ffffffffH
	DD	FLAT:$L191285
	DD	00H
	DD	FLAT:$L191286
$T191288 DD	019930520H
	DD	02H
	DD	FLAT:$T191297
	DD	2 DUP(00H)
	DD	2 DUP(00H)
; Function compile flags: /Odt /RTCsu
xdata$x	ENDS
_TEXT	SEGMENT
_bmp$ = -176						; size = 4
_pBits$ = -168						; size = 4
_dcMem$ = -156						; size = 16
_rcClient$ = -132					; size = 16
_dc$ = -108						; size = 84
_this$ = -20						; size = 4
__$ArrayPad$ = -16					; size = 4
__$EHRec$ = -12						; size = 12
__$ReturnAddr$ = 4					; size = 4
?OnPaint@CTabBarWnd@@IAEXXZ PROC NEAR			; CTabBarWnd::OnPaint
; _this$ = ecx

; 161  : {		

  00b50	55		 push	 ebp
  00b51	8b ec		 mov	 ebp, esp
  00b53	6a ff		 push	 -1
  00b55	68 00 00 00 00	 push	 __ehhandler$?OnPaint@CTabBarWnd@@IAEXXZ
  00b5a	64 a1 00 00 00
	00		 mov	 eax, DWORD PTR fs:__except_list
  00b60	50		 push	 eax
  00b61	64 89 25 00 00
	00 00		 mov	 DWORD PTR fs:__except_list, esp
  00b68	81 ec a4 00 00
	00		 sub	 esp, 164		; 000000a4H
  00b6e	56		 push	 esi
  00b6f	57		 push	 edi
  00b70	51		 push	 ecx
  00b71	8d bd 50 ff ff
	ff		 lea	 edi, DWORD PTR [ebp-176]
  00b77	b9 29 00 00 00	 mov	 ecx, 41			; 00000029H
  00b7c	b8 cc cc cc cc	 mov	 eax, -858993460		; ccccccccH
  00b81	f3 ab		 rep stosd
  00b83	59		 pop	 ecx
  00b84	a1 00 00 00 00	 mov	 eax, DWORD PTR ___security_cookie
  00b89	89 45 f0	 mov	 DWORD PTR __$ArrayPad$[ebp], eax
  00b8c	89 4d ec	 mov	 DWORD PTR _this$[ebp], ecx

; 162  : 	CPaintDC dc(this);

  00b8f	8b 45 ec	 mov	 eax, DWORD PTR _this$[ebp]
  00b92	50		 push	 eax
  00b93	8d 4d 94	 lea	 ecx, DWORD PTR _dc$[ebp]
  00b96	e8 00 00 00 00	 call	 ??0CPaintDC@@QAE@PAVCWnd@@@Z ; CPaintDC::CPaintDC
  00b9b	c7 45 fc 00 00
	00 00		 mov	 DWORD PTR __$EHRec$[ebp+8], 0

; 163  : 	
; 164  : 	CRect rcClient;

  00ba2	8d 8d 7c ff ff
	ff		 lea	 ecx, DWORD PTR _rcClient$[ebp]
  00ba8	e8 00 00 00 00	 call	 ??0CRect@@QAE@XZ	; CRect::CRect

; 165  : 	GetClientRect( &rcClient );

  00bad	8d 8d 7c ff ff
	ff		 lea	 ecx, DWORD PTR _rcClient$[ebp]
  00bb3	51		 push	 ecx
  00bb4	8b 4d ec	 mov	 ecx, DWORD PTR _this$[ebp]
  00bb7	e8 00 00 00 00	 call	 ?GetClientRect@CWnd@@QBEXPAUtagRECT@@@Z ; CWnd::GetClientRect

; 166  : 	CDC dcMem;

  00bbc	8d 8d 64 ff ff
	ff		 lea	 ecx, DWORD PTR _dcMem$[ebp]
  00bc2	e8 00 00 00 00	 call	 ??0CDC@@QAE@XZ		; CDC::CDC
  00bc7	c6 45 fc 01	 mov	 BYTE PTR __$EHRec$[ebp+8], 1

; 167  : 	dcMem.CreateCompatibleDC( &dc );

  00bcb	8d 55 94	 lea	 edx, DWORD PTR _dc$[ebp]
  00bce	52		 push	 edx
  00bcf	8d 8d 64 ff ff
	ff		 lea	 ecx, DWORD PTR _dcMem$[ebp]
  00bd5	e8 00 00 00 00	 call	 ?CreateCompatibleDC@CDC@@QAEHPAV1@@Z ; CDC::CreateCompatibleDC

; 168  : 	
; 169  : 	BYTE * pBits = NULL; 

  00bda	c7 85 58 ff ff
	ff 00 00 00 00	 mov	 DWORD PTR _pBits$[ebp], 0

; 170  : 	m_bmih.biWidth  = rcClient.Width(); 

  00be4	8d 8d 7c ff ff
	ff		 lea	 ecx, DWORD PTR _rcClient$[ebp]
  00bea	e8 00 00 00 00	 call	 ?Width@CRect@@QBEHXZ	; CRect::Width
  00bef	8b 4d ec	 mov	 ecx, DWORD PTR _this$[ebp]
  00bf2	89 81 18 01 00
	00		 mov	 DWORD PTR [ecx+280], eax

; 171  : 	m_bmih.biHeight = rcClient.Height(); 

  00bf8	8d 8d 7c ff ff
	ff		 lea	 ecx, DWORD PTR _rcClient$[ebp]
  00bfe	e8 00 00 00 00	 call	 ?Height@CRect@@QBEHXZ	; CRect::Height
  00c03	8b 55 ec	 mov	 edx, DWORD PTR _this$[ebp]
  00c06	89 82 1c 01 00
	00		 mov	 DWORD PTR [edx+284], eax

; 172  : 	HBITMAP bmp = CreateDIBSection(NULL, (BITMAPINFO*)&m_bmih, 
; 173  : 		0, (VOID**)&pBits, NULL, 0) ; 

  00c0c	8b f4		 mov	 esi, esp
  00c0e	6a 00		 push	 0
  00c10	6a 00		 push	 0
  00c12	8d 85 58 ff ff
	ff		 lea	 eax, DWORD PTR _pBits$[ebp]
  00c18	50		 push	 eax
  00c19	6a 00		 push	 0
  00c1b	8b 4d ec	 mov	 ecx, DWORD PTR _this$[ebp]
  00c1e	81 c1 14 01 00
	00		 add	 ecx, 276		; 00000114H
  00c24	51		 push	 ecx
  00c25	6a 00		 push	 0
  00c27	ff 15 00 00 00
	00		 call	 DWORD PTR __imp__CreateDIBSection@24
  00c2d	3b f4		 cmp	 esi, esp
  00c2f	e8 00 00 00 00	 call	 __RTC_CheckEsp
  00c34	89 85 50 ff ff
	ff		 mov	 DWORD PTR _bmp$[ebp], eax

; 174  : 
; 175  : 	dcMem.SelectObject( bmp );

  00c3a	8b 95 50 ff ff
	ff		 mov	 edx, DWORD PTR _bmp$[ebp]
  00c40	52		 push	 edx
  00c41	8d 8d 64 ff ff
	ff		 lea	 ecx, DWORD PTR _dcMem$[ebp]
  00c47	e8 00 00 00 00	 call	 ?SelectObject@CDC@@QAEPAXPAX@Z ; CDC::SelectObject

; 176  : 	::DeleteObject( bmp );

  00c4c	8b f4		 mov	 esi, esp
  00c4e	8b 85 50 ff ff
	ff		 mov	 eax, DWORD PTR _bmp$[ebp]
  00c54	50		 push	 eax
  00c55	ff 15 00 00 00
	00		 call	 DWORD PTR __imp__DeleteObject@4
  00c5b	3b f4		 cmp	 esi, esp
  00c5d	e8 00 00 00 00	 call	 __RTC_CheckEsp

; 177  : 	DrawBar( &dcMem );

  00c62	8d 8d 64 ff ff
	ff		 lea	 ecx, DWORD PTR _dcMem$[ebp]
  00c68	51		 push	 ecx
  00c69	8b 4d ec	 mov	 ecx, DWORD PTR _this$[ebp]
  00c6c	e8 00 00 00 00	 call	 ?DrawBar@CTabBarWnd@@AAEXPAVCDC@@@Z ; CTabBarWnd::DrawBar

; 178  : 	dc.BitBlt( 0, 0, rcClient.Width(), rcClient.Height(), &dcMem, 0, 0, SRCCOPY );

  00c71	68 20 00 cc 00	 push	 13369376		; 00cc0020H
  00c76	6a 00		 push	 0
  00c78	6a 00		 push	 0
  00c7a	8d 95 64 ff ff
	ff		 lea	 edx, DWORD PTR _dcMem$[ebp]
  00c80	52		 push	 edx
  00c81	8d 8d 7c ff ff
	ff		 lea	 ecx, DWORD PTR _rcClient$[ebp]
  00c87	e8 00 00 00 00	 call	 ?Height@CRect@@QBEHXZ	; CRect::Height
  00c8c	50		 push	 eax
  00c8d	8d 8d 7c ff ff
	ff		 lea	 ecx, DWORD PTR _rcClient$[ebp]
  00c93	e8 00 00 00 00	 call	 ?Width@CRect@@QBEHXZ	; CRect::Width
  00c98	50		 push	 eax
  00c99	6a 00		 push	 0
  00c9b	6a 00		 push	 0
  00c9d	8d 4d 94	 lea	 ecx, DWORD PTR _dc$[ebp]
  00ca0	e8 00 00 00 00	 call	 ?BitBlt@CDC@@QAEHHHHHPAV1@HHK@Z ; CDC::BitBlt

; 179  : 	dcMem.DeleteDC();

  00ca5	8d 8d 64 ff ff
	ff		 lea	 ecx, DWORD PTR _dcMem$[ebp]
  00cab	e8 00 00 00 00	 call	 ?DeleteDC@CDC@@QAEHXZ	; CDC::DeleteDC

; 180  : }

  00cb0	c6 45 fc 00	 mov	 BYTE PTR __$EHRec$[ebp+8], 0
  00cb4	8d 8d 64 ff ff
	ff		 lea	 ecx, DWORD PTR _dcMem$[ebp]
  00cba	e8 00 00 00 00	 call	 ??1CDC@@UAE@XZ		; CDC::~CDC
  00cbf	c7 45 fc ff ff
	ff ff		 mov	 DWORD PTR __$EHRec$[ebp+8], -1
  00cc6	8d 4d 94	 lea	 ecx, DWORD PTR _dc$[ebp]
  00cc9	e8 00 00 00 00	 call	 ??1CPaintDC@@UAE@XZ	; CPaintDC::~CPaintDC
  00cce	52		 push	 edx
  00ccf	8b cd		 mov	 ecx, ebp
  00cd1	50		 push	 eax
  00cd2	8d 15 00 00 00
	00		 lea	 edx, DWORD PTR $L191296
  00cd8	e8 00 00 00 00	 call	 @_RTC_CheckStackVars@8
  00cdd	58		 pop	 eax
  00cde	5a		 pop	 edx
  00cdf	8b 4d f4	 mov	 ecx, DWORD PTR __$EHRec$[ebp]
  00ce2	64 89 0d 00 00
	00 00		 mov	 DWORD PTR fs:__except_list, ecx
  00ce9	8b 4d f0	 mov	 ecx, DWORD PTR __$ArrayPad$[ebp]
  00cec	e8 00 00 00 00	 call	 @__security_check_cookie@4
  00cf1	5f		 pop	 edi
  00cf2	5e		 pop	 esi
  00cf3	81 c4 b0 00 00
	00		 add	 esp, 176		; 000000b0H
  00cf9	3b ec		 cmp	 ebp, esp
  00cfb	e8 00 00 00 00	 call	 __RTC_CheckEsp
  00d00	8b e5		 mov	 esp, ebp
  00d02	5d		 pop	 ebp
  00d03	c3		 ret	 0
$L191296:
  00d04	04 00 00 00	 DD	 4
  00d08	00 00 00 00	 DD	 $L191295
$L191295:
  00d0c	94 ff ff ff	 DD	 -108			; ffffff94H
  00d10	54 00 00 00	 DD	 84			; 00000054H
  00d14	00 00 00 00	 DD	 $L191289
  00d18	7c ff ff ff	 DD	 -132			; ffffff7cH
  00d1c	10 00 00 00	 DD	 16			; 00000010H
  00d20	00 00 00 00	 DD	 $L191290
  00d24	64 ff ff ff	 DD	 -156			; ffffff64H
  00d28	10 00 00 00	 DD	 16			; 00000010H
  00d2c	00 00 00 00	 DD	 $L191291
  00d30	58 ff ff ff	 DD	 -168			; ffffff58H
  00d34	04 00 00 00	 DD	 4
  00d38	00 00 00 00	 DD	 $L191292
$L191292:
  00d3c	70		 DB	 112			; 00000070H
  00d3d	42		 DB	 66			; 00000042H
  00d3e	69		 DB	 105			; 00000069H
  00d3f	74		 DB	 116			; 00000074H
  00d40	73		 DB	 115			; 00000073H
  00d41	00		 DB	 0
$L191291:
  00d42	64		 DB	 100			; 00000064H
  00d43	63		 DB	 99			; 00000063H
  00d44	4d		 DB	 77			; 0000004dH
  00d45	65		 DB	 101			; 00000065H
  00d46	6d		 DB	 109			; 0000006dH
  00d47	00		 DB	 0
$L191290:
  00d48	72		 DB	 114			; 00000072H
  00d49	63		 DB	 99			; 00000063H
  00d4a	43		 DB	 67			; 00000043H
  00d4b	6c		 DB	 108			; 0000006cH
  00d4c	69		 DB	 105			; 00000069H
  00d4d	65		 DB	 101			; 00000065H
  00d4e	6e		 DB	 110			; 0000006eH
  00d4f	74		 DB	 116			; 00000074H
  00d50	00		 DB	 0
$L191289:
  00d51	64		 DB	 100			; 00000064H
  00d52	63		 DB	 99			; 00000063H
  00d53	00		 DB	 0
_TEXT	ENDS
text$x	SEGMENT
$L191285:
  0013a	8d 4d 94	 lea	 ecx, DWORD PTR _dc$[ebp]
  0013d	e9 00 00 00 00	 jmp	 ??1CPaintDC@@UAE@XZ	; CPaintDC::~CPaintDC
$L191286:
  00142	8d 8d 64 ff ff
	ff		 lea	 ecx, DWORD PTR _dcMem$[ebp]
  00148	e9 00 00 00 00	 jmp	 ??1CDC@@UAE@XZ		; CDC::~CDC
__ehhandler$?OnPaint@CTabBarWnd@@IAEXXZ:
  0014d	b8 00 00 00 00	 mov	 eax, OFFSET FLAT:$T191288
  00152	e9 00 00 00 00	 jmp	 ___CxxFrameHandler
text$x	ENDS
?OnPaint@CTabBarWnd@@IAEXXZ ENDP			; CTabBarWnd::OnPaint
PUBLIC	??A?$vector@UTAB_ITEM@@V?$allocator@UTAB_ITEM@@@std@@@std@@QAEAAUTAB_ITEM@@I@Z ; std::vector<TAB_ITEM,std::allocator<TAB_ITEM> >::operator[]
PUBLIC	?DrawTabItemRect@CTabBarWnd@@AAEXPAVCDC@@AAVCRect@@PAVCDibBitmap@@2212V?$basic_string@DU?$char_traits@D@std@@V?$allocator@D@2@@std@@_N@Z ; CTabBarWnd::DrawTabItemRect
PUBLIC	?size@?$vector@VCRect@@V?$allocator@VCRect@@@std@@@std@@QBEIXZ ; std::vector<CRect,std::allocator<CRect> >::size
PUBLIC	??A?$vector@VCRect@@V?$allocator@VCRect@@@std@@@std@@QAEAAVCRect@@I@Z ; std::vector<CRect,std::allocator<CRect> >::operator[]
EXTRN	?Draw@CDibBitmap@@QAEHPAVCDC@@HKH@Z:NEAR	; CDibBitmap::Draw
EXTRN	__imp_??0?$basic_string@DU?$char_traits@D@std@@V?$allocator@D@2@@std@@QAE@ABV01@@Z:NEAR
EXTRN	?SetCDibRect@CDibBitmap@@QAEXVCRect@@@Z:NEAR	; CDibBitmap::SetCDibRect
EXTRN	__imp_??1?$basic_string@DU?$char_traits@D@std@@V?$allocator@D@2@@std@@QAE@XZ:NEAR
xdata$x	SEGMENT
$T191311 DD	0ffffffffH
	DD	FLAT:$L191302
	DD	0ffffffffH
	DD	FLAT:$L191303
	DD	0ffffffffH
	DD	FLAT:$L191304
$T191306 DD	019930520H
	DD	03H
	DD	FLAT:$T191311
	DD	2 DUP(00H)
	DD	2 DUP(00H)
; Function compile flags: /Odt /RTCsu
xdata$x	ENDS
_TEXT	SEGMENT
tv350 = -100						; size = 4
tv357 = -96						; size = 4
tv347 = -92						; size = 4
tv354 = -88						; size = 4
tv344 = -84						; size = 4
tv351 = -80						; size = 4
tv85 = -76						; size = 4
tv80 = -72						; size = 4
tv71 = -68						; size = 4
tv66 = -64						; size = 4
$T191301 = -60						; size = 4
$T191300 = -56						; size = 4
$T191299 = -52						; size = 4
_i$189549 = -48						; size = 4
_rc$189547 = -40					; size = 16
_pBmp$ = -20						; size = 4
_this$ = -16						; size = 4
__$EHRec$ = -12						; size = 12
_pDc$ = 8						; size = 4
?DrawBar@CTabBarWnd@@AAEXPAVCDC@@@Z PROC NEAR		; CTabBarWnd::DrawBar
; _this$ = ecx

; 183  : {

  00d60	55		 push	 ebp
  00d61	8b ec		 mov	 ebp, esp
  00d63	6a ff		 push	 -1
  00d65	68 00 00 00 00	 push	 __ehhandler$?DrawBar@CTabBarWnd@@AAEXPAVCDC@@@Z
  00d6a	64 a1 00 00 00
	00		 mov	 eax, DWORD PTR fs:__except_list
  00d70	50		 push	 eax
  00d71	64 89 25 00 00
	00 00		 mov	 DWORD PTR fs:__except_list, esp
  00d78	83 ec 58	 sub	 esp, 88			; 00000058H
  00d7b	56		 push	 esi
  00d7c	57		 push	 edi
  00d7d	51		 push	 ecx
  00d7e	8d 7d 9c	 lea	 edi, DWORD PTR [ebp-100]
  00d81	b9 16 00 00 00	 mov	 ecx, 22			; 00000016H
  00d86	b8 cc cc cc cc	 mov	 eax, -858993460		; ccccccccH
  00d8b	f3 ab		 rep stosd
  00d8d	59		 pop	 ecx
  00d8e	89 4d f0	 mov	 DWORD PTR _this$[ebp], ecx

; 184  : 	//1
; 185  : 	AfxGetUIManager()->UIGetLayoutMgr()->PaintBkGround( m_hWnd ,pDc,true );

  00d91	e8 00 00 00 00	 call	 ?AfxGetUIManager@@YAPAVIUIManager@@XZ ; AfxGetUIManager
  00d96	89 45 c0	 mov	 DWORD PTR tv66[ebp], eax
  00d99	8b f4		 mov	 esi, esp
  00d9b	8b 45 c0	 mov	 eax, DWORD PTR tv66[ebp]
  00d9e	8b 10		 mov	 edx, DWORD PTR [eax]
  00da0	8b 4d c0	 mov	 ecx, DWORD PTR tv66[ebp]
  00da3	ff 52 24	 call	 DWORD PTR [edx+36]
  00da6	3b f4		 cmp	 esi, esp
  00da8	e8 00 00 00 00	 call	 __RTC_CheckEsp
  00dad	89 45 bc	 mov	 DWORD PTR tv71[ebp], eax
  00db0	8b f4		 mov	 esi, esp
  00db2	6a 01		 push	 1
  00db4	8b 45 08	 mov	 eax, DWORD PTR _pDc$[ebp]
  00db7	50		 push	 eax
  00db8	8b 4d f0	 mov	 ecx, DWORD PTR _this$[ebp]
  00dbb	8b 51 20	 mov	 edx, DWORD PTR [ecx+32]
  00dbe	52		 push	 edx
  00dbf	8b 45 bc	 mov	 eax, DWORD PTR tv71[ebp]
  00dc2	8b 10		 mov	 edx, DWORD PTR [eax]
  00dc4	8b 4d bc	 mov	 ecx, DWORD PTR tv71[ebp]
  00dc7	ff 52 5c	 call	 DWORD PTR [edx+92]
  00dca	3b f4		 cmp	 esi, esp
  00dcc	e8 00 00 00 00	 call	 __RTC_CheckEsp

; 186  : 	CDibBitmap* pBmp = AfxGetUIManager()->UIGetSkinMgr()->GetDibBmp( "TabBarBK" );

  00dd1	e8 00 00 00 00	 call	 ?AfxGetUIManager@@YAPAVIUIManager@@XZ ; AfxGetUIManager
  00dd6	89 45 b8	 mov	 DWORD PTR tv80[ebp], eax
  00dd9	8b f4		 mov	 esi, esp
  00ddb	8b 45 b8	 mov	 eax, DWORD PTR tv80[ebp]
  00dde	8b 10		 mov	 edx, DWORD PTR [eax]
  00de0	8b 4d b8	 mov	 ecx, DWORD PTR tv80[ebp]
  00de3	ff 52 28	 call	 DWORD PTR [edx+40]
  00de6	3b f4		 cmp	 esi, esp
  00de8	e8 00 00 00 00	 call	 __RTC_CheckEsp
  00ded	89 45 b4	 mov	 DWORD PTR tv85[ebp], eax
  00df0	8b f4		 mov	 esi, esp
  00df2	68 00 00 00 00	 push	 OFFSET FLAT:$SG189545
  00df7	8b 45 b4	 mov	 eax, DWORD PTR tv85[ebp]
  00dfa	8b 10		 mov	 edx, DWORD PTR [eax]
  00dfc	8b 4d b4	 mov	 ecx, DWORD PTR tv85[ebp]
  00dff	ff 52 04	 call	 DWORD PTR [edx+4]
  00e02	3b f4		 cmp	 esi, esp
  00e04	e8 00 00 00 00	 call	 __RTC_CheckEsp
  00e09	89 45 ec	 mov	 DWORD PTR _pBmp$[ebp], eax

; 187  : 	if( pBmp != NULL )

  00e0c	83 7d ec 00	 cmp	 DWORD PTR _pBmp$[ebp], 0
  00e10	74 4a		 je	 SHORT $L189546

; 188  : 	{
; 189  : 		CRect rc;

  00e12	8d 4d d8	 lea	 ecx, DWORD PTR _rc$189547[ebp]
  00e15	e8 00 00 00 00	 call	 ??0CRect@@QAE@XZ	; CRect::CRect

; 190  : 		GetClientRect( &rc );

  00e1a	8d 45 d8	 lea	 eax, DWORD PTR _rc$189547[ebp]
  00e1d	50		 push	 eax
  00e1e	8b 4d f0	 mov	 ecx, DWORD PTR _this$[ebp]
  00e21	e8 00 00 00 00	 call	 ?GetClientRect@CWnd@@QBEXPAUtagRECT@@@Z ; CWnd::GetClientRect

; 191  : 		pBmp->SetCDibRect( rc );

  00e26	83 ec 10	 sub	 esp, 16			; 00000010H
  00e29	8b cc		 mov	 ecx, esp
  00e2b	8b 55 d8	 mov	 edx, DWORD PTR _rc$189547[ebp]
  00e2e	89 11		 mov	 DWORD PTR [ecx], edx
  00e30	8b 45 dc	 mov	 eax, DWORD PTR _rc$189547[ebp+4]
  00e33	89 41 04	 mov	 DWORD PTR [ecx+4], eax
  00e36	8b 55 e0	 mov	 edx, DWORD PTR _rc$189547[ebp+8]
  00e39	89 51 08	 mov	 DWORD PTR [ecx+8], edx
  00e3c	8b 45 e4	 mov	 eax, DWORD PTR _rc$189547[ebp+12]
  00e3f	89 41 0c	 mov	 DWORD PTR [ecx+12], eax
  00e42	8b 4d ec	 mov	 ecx, DWORD PTR _pBmp$[ebp]
  00e45	e8 00 00 00 00	 call	 ?SetCDibRect@CDibBitmap@@QAEXVCRect@@@Z ; CDibBitmap::SetCDibRect

; 192  : 		pBmp->Draw( pDc, FALSE );

  00e4a	6a 01		 push	 1
  00e4c	6a 00		 push	 0
  00e4e	6a 00		 push	 0
  00e50	8b 4d 08	 mov	 ecx, DWORD PTR _pDc$[ebp]
  00e53	51		 push	 ecx
  00e54	8b 4d ec	 mov	 ecx, DWORD PTR _pBmp$[ebp]
  00e57	e8 00 00 00 00	 call	 ?Draw@CDibBitmap@@QAEHPAVCDC@@HKH@Z ; CDibBitmap::Draw
$L189546:

; 193  : 	}
; 194  : 	if( m_vecTab.size() == 0 )

  00e5c	8b 4d f0	 mov	 ecx, DWORD PTR _this$[ebp]
  00e5f	83 c1 70	 add	 ecx, 112		; 00000070H
  00e62	e8 00 00 00 00	 call	 ?size@?$vector@VCRect@@V?$allocator@VCRect@@@std@@@std@@QBEIXZ ; std::vector<CRect,std::allocator<CRect> >::size
  00e67	85 c0		 test	 eax, eax
  00e69	75 05		 jne	 SHORT $L189548

; 195  : 	{
; 196  : 		return;

  00e6b	e9 01 04 00 00	 jmp	 $L189543
$L189548:

; 197  : 	}
; 198  : 	//2rectclose
; 199  : 	for( int i = 0; i < m_vecTab.size(); i++ )

  00e70	c7 45 d0 00 00
	00 00		 mov	 DWORD PTR _i$189549[ebp], 0
  00e77	eb 09		 jmp	 SHORT $L189550
$L189551:
  00e79	8b 55 d0	 mov	 edx, DWORD PTR _i$189549[ebp]
  00e7c	83 c2 01	 add	 edx, 1
  00e7f	89 55 d0	 mov	 DWORD PTR _i$189549[ebp], edx
$L189550:
  00e82	8b 4d f0	 mov	 ecx, DWORD PTR _this$[ebp]
  00e85	83 c1 70	 add	 ecx, 112		; 00000070H
  00e88	e8 00 00 00 00	 call	 ?size@?$vector@VCRect@@V?$allocator@VCRect@@@std@@@std@@QBEIXZ ; std::vector<CRect,std::allocator<CRect> >::size
  00e8d	39 45 d0	 cmp	 DWORD PTR _i$189549[ebp], eax
  00e90	0f 83 9f 00 00
	00		 jae	 $L189552

; 200  : 	{
; 201  : 		DrawTabItemRect( pDc, m_vecTab[i], m_pBmpRectNormalLeft,
; 202  : 			m_pBmpRectNormalMiddle, m_pBmpRectNormalRight, 
; 203  : 			m_vecClose[i], m_pBmpCloseNormal,
; 204  : 			m_vecTi[i].strName, false );

  00e96	6a 00		 push	 0
  00e98	8b 45 d0	 mov	 eax, DWORD PTR _i$189549[ebp]
  00e9b	50		 push	 eax
  00e9c	8b 4d f0	 mov	 ecx, DWORD PTR _this$[ebp]
  00e9f	81 c1 90 00 00
	00		 add	 ecx, 144		; 00000090H
  00ea5	e8 00 00 00 00	 call	 ??A?$vector@UTAB_ITEM@@V?$allocator@UTAB_ITEM@@@std@@@std@@QAEAAUTAB_ITEM@@I@Z ; std::vector<TAB_ITEM,std::allocator<TAB_ITEM> >::operator[]
  00eaa	83 ec 1c	 sub	 esp, 28			; 0000001cH
  00ead	8b cc		 mov	 ecx, esp
  00eaf	89 65 cc	 mov	 DWORD PTR $T191299[ebp], esp
  00eb2	8b f4		 mov	 esi, esp
  00eb4	50		 push	 eax
  00eb5	ff 15 00 00 00
	00		 call	 DWORD PTR __imp_??0?$basic_string@DU?$char_traits@D@std@@V?$allocator@D@2@@std@@QAE@ABV01@@Z
  00ebb	3b f4		 cmp	 esi, esp
  00ebd	e8 00 00 00 00	 call	 __RTC_CheckEsp
  00ec2	89 45 b0	 mov	 DWORD PTR tv351[ebp], eax
  00ec5	8b 4d b0	 mov	 ecx, DWORD PTR tv351[ebp]
  00ec8	89 4d ac	 mov	 DWORD PTR tv344[ebp], ecx
  00ecb	c7 45 fc 00 00
	00 00		 mov	 DWORD PTR __$EHRec$[ebp+8], 0
  00ed2	8b 55 f0	 mov	 edx, DWORD PTR _this$[ebp]
  00ed5	8b 82 f0 00 00
	00		 mov	 eax, DWORD PTR [edx+240]
  00edb	50		 push	 eax
  00edc	8b 4d d0	 mov	 ecx, DWORD PTR _i$189549[ebp]
  00edf	51		 push	 ecx
  00ee0	8b 4d f0	 mov	 ecx, DWORD PTR _this$[ebp]
  00ee3	81 c1 80 00 00
	00		 add	 ecx, 128		; 00000080H
  00ee9	e8 00 00 00 00	 call	 ??A?$vector@VCRect@@V?$allocator@VCRect@@@std@@@std@@QAEAAVCRect@@I@Z ; std::vector<CRect,std::allocator<CRect> >::operator[]
  00eee	50		 push	 eax
  00eef	8b 55 f0	 mov	 edx, DWORD PTR _this$[ebp]
  00ef2	8b 82 d4 00 00
	00		 mov	 eax, DWORD PTR [edx+212]
  00ef8	50		 push	 eax
  00ef9	8b 4d f0	 mov	 ecx, DWORD PTR _this$[ebp]
  00efc	8b 91 d0 00 00
	00		 mov	 edx, DWORD PTR [ecx+208]
  00f02	52		 push	 edx
  00f03	8b 45 f0	 mov	 eax, DWORD PTR _this$[ebp]
  00f06	8b 88 cc 00 00
	00		 mov	 ecx, DWORD PTR [eax+204]
  00f0c	51		 push	 ecx
  00f0d	8b 55 d0	 mov	 edx, DWORD PTR _i$189549[ebp]
  00f10	52		 push	 edx
  00f11	8b 4d f0	 mov	 ecx, DWORD PTR _this$[ebp]
  00f14	83 c1 70	 add	 ecx, 112		; 00000070H
  00f17	e8 00 00 00 00	 call	 ??A?$vector@VCRect@@V?$allocator@VCRect@@@std@@@std@@QAEAAVCRect@@I@Z ; std::vector<CRect,std::allocator<CRect> >::operator[]
  00f1c	50		 push	 eax
  00f1d	8b 45 08	 mov	 eax, DWORD PTR _pDc$[ebp]
  00f20	50		 push	 eax
  00f21	c7 45 fc ff ff
	ff ff		 mov	 DWORD PTR __$EHRec$[ebp+8], -1
  00f28	8b 4d f0	 mov	 ecx, DWORD PTR _this$[ebp]
  00f2b	e8 00 00 00 00	 call	 ?DrawTabItemRect@CTabBarWnd@@AAEXPAVCDC@@AAVCRect@@PAVCDibBitmap@@2212V?$basic_string@DU?$char_traits@D@std@@V?$allocator@D@2@@std@@_N@Z ; CTabBarWnd::DrawTabItemRect

; 205  : 	}

  00f30	e9 44 ff ff ff	 jmp	 $L189551
$L189552:

; 206  : 	//2rectclose
; 207  : 	if( m_iTabCur != -1 )

  00f35	8b 4d f0	 mov	 ecx, DWORD PTR _this$[ebp]
  00f38	83 b9 b4 00 00
	00 ff		 cmp	 DWORD PTR [ecx+180], -1
  00f3f	0f 84 ac 00 00
	00		 je	 $L189554

; 208  : 	{
; 209  : 		DrawTabItemRect( pDc, m_vecTab[m_iTabCur], m_pBmpRectDownLeft,
; 210  : 			m_pBmpRectDownMiddle, m_pBmpRectDownRight, 
; 211  : 			m_vecClose[m_iTabCur], m_pBmpSelCloseNormal, 
; 212  : 			m_vecTi[m_iTabCur].strName, true );

  00f45	6a 01		 push	 1
  00f47	8b 55 f0	 mov	 edx, DWORD PTR _this$[ebp]
  00f4a	8b 82 b4 00 00
	00		 mov	 eax, DWORD PTR [edx+180]
  00f50	50		 push	 eax
  00f51	8b 4d f0	 mov	 ecx, DWORD PTR _this$[ebp]
  00f54	81 c1 90 00 00
	00		 add	 ecx, 144		; 00000090H
  00f5a	e8 00 00 00 00	 call	 ??A?$vector@UTAB_ITEM@@V?$allocator@UTAB_ITEM@@@std@@@std@@QAEAAUTAB_ITEM@@I@Z ; std::vector<TAB_ITEM,std::allocator<TAB_ITEM> >::operator[]
  00f5f	83 ec 1c	 sub	 esp, 28			; 0000001cH
  00f62	8b cc		 mov	 ecx, esp
  00f64	89 65 c8	 mov	 DWORD PTR $T191300[ebp], esp
  00f67	8b f4		 mov	 esi, esp
  00f69	50		 push	 eax
  00f6a	ff 15 00 00 00
	00		 call	 DWORD PTR __imp_??0?$basic_string@DU?$char_traits@D@std@@V?$allocator@D@2@@std@@QAE@ABV01@@Z
  00f70	3b f4		 cmp	 esi, esp
  00f72	e8 00 00 00 00	 call	 __RTC_CheckEsp
  00f77	89 45 a8	 mov	 DWORD PTR tv354[ebp], eax
  00f7a	8b 4d a8	 mov	 ecx, DWORD PTR tv354[ebp]
  00f7d	89 4d a4	 mov	 DWORD PTR tv347[ebp], ecx
  00f80	c7 45 fc 01 00
	00 00		 mov	 DWORD PTR __$EHRec$[ebp+8], 1
  00f87	8b 55 f0	 mov	 edx, DWORD PTR _this$[ebp]
  00f8a	8b 82 fc 00 00
	00		 mov	 eax, DWORD PTR [edx+252]
  00f90	50		 push	 eax
  00f91	8b 4d f0	 mov	 ecx, DWORD PTR _this$[ebp]
  00f94	8b 91 b4 00 00
	00		 mov	 edx, DWORD PTR [ecx+180]
  00f9a	52		 push	 edx
  00f9b	8b 4d f0	 mov	 ecx, DWORD PTR _this$[ebp]
  00f9e	81 c1 80 00 00
	00		 add	 ecx, 128		; 00000080H
  00fa4	e8 00 00 00 00	 call	 ??A?$vector@VCRect@@V?$allocator@VCRect@@@std@@@std@@QAEAAVCRect@@I@Z ; std::vector<CRect,std::allocator<CRect> >::operator[]
  00fa9	50		 push	 eax
  00faa	8b 45 f0	 mov	 eax, DWORD PTR _this$[ebp]
  00fad	8b 88 ec 00 00
	00		 mov	 ecx, DWORD PTR [eax+236]
  00fb3	51		 push	 ecx
  00fb4	8b 55 f0	 mov	 edx, DWORD PTR _this$[ebp]
  00fb7	8b 82 e8 00 00
	00		 mov	 eax, DWORD PTR [edx+232]
  00fbd	50		 push	 eax
  00fbe	8b 4d f0	 mov	 ecx, DWORD PTR _this$[ebp]
  00fc1	8b 91 e4 00 00
	00		 mov	 edx, DWORD PTR [ecx+228]
  00fc7	52		 push	 edx
  00fc8	8b 45 f0	 mov	 eax, DWORD PTR _this$[ebp]
  00fcb	8b 88 b4 00 00
	00		 mov	 ecx, DWORD PTR [eax+180]
  00fd1	51		 push	 ecx
  00fd2	8b 4d f0	 mov	 ecx, DWORD PTR _this$[ebp]
  00fd5	83 c1 70	 add	 ecx, 112		; 00000070H
  00fd8	e8 00 00 00 00	 call	 ??A?$vector@VCRect@@V?$allocator@VCRect@@@std@@@std@@QAEAAVCRect@@I@Z ; std::vector<CRect,std::allocator<CRect> >::operator[]
  00fdd	50		 push	 eax
  00fde	8b 55 08	 mov	 edx, DWORD PTR _pDc$[ebp]
  00fe1	52		 push	 edx
  00fe2	c7 45 fc ff ff
	ff ff		 mov	 DWORD PTR __$EHRec$[ebp+8], -1
  00fe9	8b 4d f0	 mov	 ecx, DWORD PTR _this$[ebp]
  00fec	e8 00 00 00 00	 call	 ?DrawTabItemRect@CTabBarWnd@@AAEXPAVCDC@@AAVCRect@@PAVCDibBitmap@@2212V?$basic_string@DU?$char_traits@D@std@@V?$allocator@D@2@@std@@_N@Z ; CTabBarWnd::DrawTabItemRect
$L189554:

; 213  : 	}
; 214  : 	//3overrect
; 215  : 	if( m_iTabOver != -1 && m_iTabOver != m_iTabCur )

  00ff1	8b 45 f0	 mov	 eax, DWORD PTR _this$[ebp]
  00ff4	83 b8 b8 00 00
	00 ff		 cmp	 DWORD PTR [eax+184], -1
  00ffb	0f 84 c4 00 00
	00		 je	 $L189556
  01001	8b 4d f0	 mov	 ecx, DWORD PTR _this$[ebp]
  01004	8b 55 f0	 mov	 edx, DWORD PTR _this$[ebp]
  01007	8b 81 b8 00 00
	00		 mov	 eax, DWORD PTR [ecx+184]
  0100d	3b 82 b4 00 00
	00		 cmp	 eax, DWORD PTR [edx+180]
  01013	0f 84 ac 00 00
	00		 je	 $L189556

; 216  : 	{
; 217  : 		DrawTabItemRect( pDc, m_vecTab[m_iTabOver], m_pBmpRectOverLeft,
; 218  : 			m_pBmpRectOverMiddle, m_pBmpRectOverRight, 
; 219  : 			m_vecClose[m_iTabOver], m_pBmpCloseNormal, 
; 220  : 			m_vecTi[m_iTabOver].strName, false );

  01019	6a 00		 push	 0
  0101b	8b 4d f0	 mov	 ecx, DWORD PTR _this$[ebp]
  0101e	8b 91 b8 00 00
	00		 mov	 edx, DWORD PTR [ecx+184]
  01024	52		 push	 edx
  01025	8b 4d f0	 mov	 ecx, DWORD PTR _this$[ebp]
  01028	81 c1 90 00 00
	00		 add	 ecx, 144		; 00000090H
  0102e	e8 00 00 00 00	 call	 ??A?$vector@UTAB_ITEM@@V?$allocator@UTAB_ITEM@@@std@@@std@@QAEAAUTAB_ITEM@@I@Z ; std::vector<TAB_ITEM,std::allocator<TAB_ITEM> >::operator[]
  01033	83 ec 1c	 sub	 esp, 28			; 0000001cH
  01036	8b cc		 mov	 ecx, esp
  01038	89 65 c4	 mov	 DWORD PTR $T191301[ebp], esp
  0103b	8b f4		 mov	 esi, esp
  0103d	50		 push	 eax
  0103e	ff 15 00 00 00
	00		 call	 DWORD PTR __imp_??0?$basic_string@DU?$char_traits@D@std@@V?$allocator@D@2@@std@@QAE@ABV01@@Z
  01044	3b f4		 cmp	 esi, esp
  01046	e8 00 00 00 00	 call	 __RTC_CheckEsp
  0104b	89 45 a0	 mov	 DWORD PTR tv357[ebp], eax
  0104e	8b 45 a0	 mov	 eax, DWORD PTR tv357[ebp]
  01051	89 45 9c	 mov	 DWORD PTR tv350[ebp], eax
  01054	c7 45 fc 02 00
	00 00		 mov	 DWORD PTR __$EHRec$[ebp+8], 2
  0105b	8b 4d f0	 mov	 ecx, DWORD PTR _this$[ebp]
  0105e	8b 91 f0 00 00
	00		 mov	 edx, DWORD PTR [ecx+240]
  01064	52		 push	 edx
  01065	8b 45 f0	 mov	 eax, DWORD PTR _this$[ebp]
  01068	8b 88 b8 00 00
	00		 mov	 ecx, DWORD PTR [eax+184]
  0106e	51		 push	 ecx
  0106f	8b 4d f0	 mov	 ecx, DWORD PTR _this$[ebp]
  01072	81 c1 80 00 00
	00		 add	 ecx, 128		; 00000080H
  01078	e8 00 00 00 00	 call	 ??A?$vector@VCRect@@V?$allocator@VCRect@@@std@@@std@@QAEAAVCRect@@I@Z ; std::vector<CRect,std::allocator<CRect> >::operator[]
  0107d	50		 push	 eax
  0107e	8b 55 f0	 mov	 edx, DWORD PTR _this$[ebp]
  01081	8b 82 e0 00 00
	00		 mov	 eax, DWORD PTR [edx+224]
  01087	50		 push	 eax
  01088	8b 4d f0	 mov	 ecx, DWORD PTR _this$[ebp]
  0108b	8b 91 dc 00 00
	00		 mov	 edx, DWORD PTR [ecx+220]
  01091	52		 push	 edx
  01092	8b 45 f0	 mov	 eax, DWORD PTR _this$[ebp]
  01095	8b 88 d8 00 00
	00		 mov	 ecx, DWORD PTR [eax+216]
  0109b	51		 push	 ecx
  0109c	8b 55 f0	 mov	 edx, DWORD PTR _this$[ebp]
  0109f	8b 82 b8 00 00
	00		 mov	 eax, DWORD PTR [edx+184]
  010a5	50		 push	 eax
  010a6	8b 4d f0	 mov	 ecx, DWORD PTR _this$[ebp]
  010a9	83 c1 70	 add	 ecx, 112		; 00000070H
  010ac	e8 00 00 00 00	 call	 ??A?$vector@VCRect@@V?$allocator@VCRect@@@std@@@std@@QAEAAVCRect@@I@Z ; std::vector<CRect,std::allocator<CRect> >::operator[]
  010b1	50		 push	 eax
  010b2	8b 4d 08	 mov	 ecx, DWORD PTR _pDc$[ebp]
  010b5	51		 push	 ecx
  010b6	c7 45 fc ff ff
	ff ff		 mov	 DWORD PTR __$EHRec$[ebp+8], -1
  010bd	8b 4d f0	 mov	 ecx, DWORD PTR _this$[ebp]
  010c0	e8 00 00 00 00	 call	 ?DrawTabItemRect@CTabBarWnd@@AAEXPAVCDC@@AAVCRect@@PAVCDibBitmap@@2212V?$basic_string@DU?$char_traits@D@std@@V?$allocator@D@2@@std@@_N@Z ; CTabBarWnd::DrawTabItemRect
$L189556:

; 221  : 	}
; 222  : 	//4overclose
; 223  : 	if( m_iCloseOver != -1 && m_iCloseOver != 0 )

  010c5	8b 55 f0	 mov	 edx, DWORD PTR _this$[ebp]
  010c8	83 ba bc 00 00
	00 ff		 cmp	 DWORD PTR [edx+188], -1
  010cf	0f 84 e8 00 00
	00		 je	 $L189558
  010d5	8b 45 f0	 mov	 eax, DWORD PTR _this$[ebp]
  010d8	83 b8 bc 00 00
	00 00		 cmp	 DWORD PTR [eax+188], 0
  010df	0f 84 d8 00 00
	00		 je	 $L189558

; 224  : 	{
; 225  : 		if (m_iCloseOver == m_iTabCur)

  010e5	8b 4d f0	 mov	 ecx, DWORD PTR _this$[ebp]
  010e8	8b 55 f0	 mov	 edx, DWORD PTR _this$[ebp]
  010eb	8b 81 bc 00 00
	00		 mov	 eax, DWORD PTR [ecx+188]
  010f1	3b 82 b4 00 00
	00		 cmp	 eax, DWORD PTR [edx+180]
  010f7	75 63		 jne	 SHORT $L189559

; 226  : 		{
; 227  : 			m_pBmpSelCloseOver->SetCDibRect( m_vecClose[m_iCloseOver] );

  010f9	8b 4d f0	 mov	 ecx, DWORD PTR _this$[ebp]
  010fc	8b 91 bc 00 00
	00		 mov	 edx, DWORD PTR [ecx+188]
  01102	52		 push	 edx
  01103	8b 4d f0	 mov	 ecx, DWORD PTR _this$[ebp]
  01106	81 c1 80 00 00
	00		 add	 ecx, 128		; 00000080H
  0110c	e8 00 00 00 00	 call	 ??A?$vector@VCRect@@V?$allocator@VCRect@@@std@@@std@@QAEAAVCRect@@I@Z ; std::vector<CRect,std::allocator<CRect> >::operator[]
  01111	83 ec 10	 sub	 esp, 16			; 00000010H
  01114	8b cc		 mov	 ecx, esp
  01116	8b 10		 mov	 edx, DWORD PTR [eax]
  01118	89 11		 mov	 DWORD PTR [ecx], edx
  0111a	8b 50 04	 mov	 edx, DWORD PTR [eax+4]
  0111d	89 51 04	 mov	 DWORD PTR [ecx+4], edx
  01120	8b 50 08	 mov	 edx, DWORD PTR [eax+8]
  01123	89 51 08	 mov	 DWORD PTR [ecx+8], edx
  01126	8b 40 0c	 mov	 eax, DWORD PTR [eax+12]
  01129	89 41 0c	 mov	 DWORD PTR [ecx+12], eax
  0112c	8b 4d f0	 mov	 ecx, DWORD PTR _this$[ebp]
  0112f	8b 89 00 01 00
	00		 mov	 ecx, DWORD PTR [ecx+256]
  01135	e8 00 00 00 00	 call	 ?SetCDibRect@CDibBitmap@@QAEXVCRect@@@Z ; CDibBitmap::SetCDibRect

; 228  : 			m_pBmpSelCloseOver->Draw( pDc, TRUE, m_colMask );

  0113a	6a 01		 push	 1
  0113c	8b 55 f0	 mov	 edx, DWORD PTR _this$[ebp]
  0113f	8b 82 c8 00 00
	00		 mov	 eax, DWORD PTR [edx+200]
  01145	50		 push	 eax
  01146	6a 01		 push	 1
  01148	8b 4d 08	 mov	 ecx, DWORD PTR _pDc$[ebp]
  0114b	51		 push	 ecx
  0114c	8b 55 f0	 mov	 edx, DWORD PTR _this$[ebp]
  0114f	8b 8a 00 01 00
	00		 mov	 ecx, DWORD PTR [edx+256]
  01155	e8 00 00 00 00	 call	 ?Draw@CDibBitmap@@QAEHPAVCDC@@HKH@Z ; CDibBitmap::Draw

; 229  : 		}else

  0115a	eb 61		 jmp	 SHORT $L189558
$L189559:

; 230  : 		{
; 231  : 			m_pBmpCloseOver->SetCDibRect( m_vecClose[m_iCloseOver] );

  0115c	8b 45 f0	 mov	 eax, DWORD PTR _this$[ebp]
  0115f	8b 88 bc 00 00
	00		 mov	 ecx, DWORD PTR [eax+188]
  01165	51		 push	 ecx
  01166	8b 4d f0	 mov	 ecx, DWORD PTR _this$[ebp]
  01169	81 c1 80 00 00
	00		 add	 ecx, 128		; 00000080H
  0116f	e8 00 00 00 00	 call	 ??A?$vector@VCRect@@V?$allocator@VCRect@@@std@@@std@@QAEAAVCRect@@I@Z ; std::vector<CRect,std::allocator<CRect> >::operator[]
  01174	83 ec 10	 sub	 esp, 16			; 00000010H
  01177	8b d4		 mov	 edx, esp
  01179	8b 08		 mov	 ecx, DWORD PTR [eax]
  0117b	89 0a		 mov	 DWORD PTR [edx], ecx
  0117d	8b 48 04	 mov	 ecx, DWORD PTR [eax+4]
  01180	89 4a 04	 mov	 DWORD PTR [edx+4], ecx
  01183	8b 48 08	 mov	 ecx, DWORD PTR [eax+8]
  01186	89 4a 08	 mov	 DWORD PTR [edx+8], ecx
  01189	8b 40 0c	 mov	 eax, DWORD PTR [eax+12]
  0118c	89 42 0c	 mov	 DWORD PTR [edx+12], eax
  0118f	8b 4d f0	 mov	 ecx, DWORD PTR _this$[ebp]
  01192	8b 89 f4 00 00
	00		 mov	 ecx, DWORD PTR [ecx+244]
  01198	e8 00 00 00 00	 call	 ?SetCDibRect@CDibBitmap@@QAEXVCRect@@@Z ; CDibBitmap::SetCDibRect

; 232  : 			m_pBmpCloseOver->Draw( pDc, TRUE, m_colMask );

  0119d	6a 01		 push	 1
  0119f	8b 55 f0	 mov	 edx, DWORD PTR _this$[ebp]
  011a2	8b 82 c8 00 00
	00		 mov	 eax, DWORD PTR [edx+200]
  011a8	50		 push	 eax
  011a9	6a 01		 push	 1
  011ab	8b 4d 08	 mov	 ecx, DWORD PTR _pDc$[ebp]
  011ae	51		 push	 ecx
  011af	8b 55 f0	 mov	 edx, DWORD PTR _this$[ebp]
  011b2	8b 8a f4 00 00
	00		 mov	 ecx, DWORD PTR [edx+244]
  011b8	e8 00 00 00 00	 call	 ?Draw@CDibBitmap@@QAEHPAVCDC@@HKH@Z ; CDibBitmap::Draw
$L189558:

; 233  : 		}
; 234  : 	}
; 235  : 	//5newwindow
; 236  : 	if (m_bOverNewWindow)

  011bd	8b 45 f0	 mov	 eax, DWORD PTR _this$[ebp]
  011c0	0f b6 88 b0 00
	00 00		 movzx	 ecx, BYTE PTR [eax+176]
  011c7	85 c9		 test	 ecx, ecx
  011c9	74 54		 je	 SHORT $L189561

; 237  : 	{
; 238  : 		m_pBmpNewWindowOver->SetCDibRect( m_rectNewWindow );

  011cb	8b 55 f0	 mov	 edx, DWORD PTR _this$[ebp]
  011ce	81 c2 a0 00 00
	00		 add	 edx, 160		; 000000a0H
  011d4	83 ec 10	 sub	 esp, 16			; 00000010H
  011d7	8b c4		 mov	 eax, esp
  011d9	8b 0a		 mov	 ecx, DWORD PTR [edx]
  011db	89 08		 mov	 DWORD PTR [eax], ecx
  011dd	8b 4a 04	 mov	 ecx, DWORD PTR [edx+4]
  011e0	89 48 04	 mov	 DWORD PTR [eax+4], ecx
  011e3	8b 4a 08	 mov	 ecx, DWORD PTR [edx+8]
  011e6	89 48 08	 mov	 DWORD PTR [eax+8], ecx
  011e9	8b 52 0c	 mov	 edx, DWORD PTR [edx+12]
  011ec	89 50 0c	 mov	 DWORD PTR [eax+12], edx
  011ef	8b 45 f0	 mov	 eax, DWORD PTR _this$[ebp]
  011f2	8b 88 0c 01 00
	00		 mov	 ecx, DWORD PTR [eax+268]
  011f8	e8 00 00 00 00	 call	 ?SetCDibRect@CDibBitmap@@QAEXVCRect@@@Z ; CDibBitmap::SetCDibRect

; 239  : 		m_pBmpNewWindowOver->Draw( pDc, TRUE, m_colMask );

  011fd	6a 01		 push	 1
  011ff	8b 4d f0	 mov	 ecx, DWORD PTR _this$[ebp]
  01202	8b 91 c8 00 00
	00		 mov	 edx, DWORD PTR [ecx+200]
  01208	52		 push	 edx
  01209	6a 01		 push	 1
  0120b	8b 45 08	 mov	 eax, DWORD PTR _pDc$[ebp]
  0120e	50		 push	 eax
  0120f	8b 4d f0	 mov	 ecx, DWORD PTR _this$[ebp]
  01212	8b 89 0c 01 00
	00		 mov	 ecx, DWORD PTR [ecx+268]
  01218	e8 00 00 00 00	 call	 ?Draw@CDibBitmap@@QAEHPAVCDC@@HKH@Z ; CDibBitmap::Draw

; 240  : 	}else

  0121d	eb 52		 jmp	 SHORT $L189543
$L189561:

; 241  : 	{
; 242  : 		m_pBmpNewWindowNormal->SetCDibRect( m_rectNewWindow );

  0121f	8b 55 f0	 mov	 edx, DWORD PTR _this$[ebp]
  01222	81 c2 a0 00 00
	00		 add	 edx, 160		; 000000a0H
  01228	83 ec 10	 sub	 esp, 16			; 00000010H
  0122b	8b c4		 mov	 eax, esp
  0122d	8b 0a		 mov	 ecx, DWORD PTR [edx]
  0122f	89 08		 mov	 DWORD PTR [eax], ecx
  01231	8b 4a 04	 mov	 ecx, DWORD PTR [edx+4]
  01234	89 48 04	 mov	 DWORD PTR [eax+4], ecx
  01237	8b 4a 08	 mov	 ecx, DWORD PTR [edx+8]
  0123a	89 48 08	 mov	 DWORD PTR [eax+8], ecx
  0123d	8b 52 0c	 mov	 edx, DWORD PTR [edx+12]
  01240	89 50 0c	 mov	 DWORD PTR [eax+12], edx
  01243	8b 45 f0	 mov	 eax, DWORD PTR _this$[ebp]
  01246	8b 88 08 01 00
	00		 mov	 ecx, DWORD PTR [eax+264]
  0124c	e8 00 00 00 00	 call	 ?SetCDibRect@CDibBitmap@@QAEXVCRect@@@Z ; CDibBitmap::SetCDibRect

; 243  : 		m_pBmpNewWindowNormal->Draw( pDc, TRUE, m_colMask );

  01251	6a 01		 push	 1
  01253	8b 4d f0	 mov	 ecx, DWORD PTR _this$[ebp]
  01256	8b 91 c8 00 00
	00		 mov	 edx, DWORD PTR [ecx+200]
  0125c	52		 push	 edx
  0125d	6a 01		 push	 1
  0125f	8b 45 08	 mov	 eax, DWORD PTR _pDc$[ebp]
  01262	50		 push	 eax
  01263	8b 4d f0	 mov	 ecx, DWORD PTR _this$[ebp]
  01266	8b 89 08 01 00
	00		 mov	 ecx, DWORD PTR [ecx+264]
  0126c	e8 00 00 00 00	 call	 ?Draw@CDibBitmap@@QAEHPAVCDC@@HKH@Z ; CDibBitmap::Draw
$L189543:

; 244  : 	}
; 245  : }

  01271	52		 push	 edx
  01272	8b cd		 mov	 ecx, ebp
  01274	50		 push	 eax
  01275	8d 15 00 00 00
	00		 lea	 edx, DWORD PTR $L191310
  0127b	e8 00 00 00 00	 call	 @_RTC_CheckStackVars@8
  01280	58		 pop	 eax
  01281	5a		 pop	 edx
  01282	8b 4d f4	 mov	 ecx, DWORD PTR __$EHRec$[ebp]
  01285	64 89 0d 00 00
	00 00		 mov	 DWORD PTR fs:__except_list, ecx
  0128c	5f		 pop	 edi
  0128d	5e		 pop	 esi
  0128e	83 c4 64	 add	 esp, 100		; 00000064H
  01291	3b ec		 cmp	 ebp, esp
  01293	e8 00 00 00 00	 call	 __RTC_CheckEsp
  01298	8b e5		 mov	 esp, ebp
  0129a	5d		 pop	 ebp
  0129b	c2 04 00	 ret	 4
$L191310:
  0129e	01 00 00 00	 DD	 1
  012a2	00 00 00 00	 DD	 $L191309
$L191309:
  012a6	d8 ff ff ff	 DD	 -40			; ffffffd8H
  012aa	10 00 00 00	 DD	 16			; 00000010H
  012ae	00 00 00 00	 DD	 $L191307
$L191307:
  012b2	72		 DB	 114			; 00000072H
  012b3	63		 DB	 99			; 00000063H
  012b4	00		 DB	 0
_TEXT	ENDS
text$x	SEGMENT
$L191302:
  00157	8b f4		 mov	 esi, esp
  00159	8b 4d cc	 mov	 ecx, DWORD PTR $T191299[ebp]
  0015c	ff 15 00 00 00
	00		 call	 DWORD PTR __imp_??1?$basic_string@DU?$char_traits@D@std@@V?$allocator@D@2@@std@@QAE@XZ
  00162	3b f4		 cmp	 esi, esp
  00164	e9 00 00 00 00	 jmp	 __RTC_CheckEsp
$L191303:
  00169	8b f4		 mov	 esi, esp
  0016b	8b 4d c8	 mov	 ecx, DWORD PTR $T191300[ebp]
  0016e	ff 15 00 00 00
	00		 call	 DWORD PTR __imp_??1?$basic_string@DU?$char_traits@D@std@@V?$allocator@D@2@@std@@QAE@XZ
  00174	3b f4		 cmp	 esi, esp
  00176	e9 00 00 00 00	 jmp	 __RTC_CheckEsp
$L191304:
  0017b	8b f4		 mov	 esi, esp
  0017d	8b 4d c4	 mov	 ecx, DWORD PTR $T191301[ebp]
  00180	ff 15 00 00 00
	00		 call	 DWORD PTR __imp_??1?$basic_string@DU?$char_traits@D@std@@V?$allocator@D@2@@std@@QAE@XZ
  00186	3b f4		 cmp	 esi, esp
  00188	e9 00 00 00 00	 jmp	 __RTC_CheckEsp
__ehhandler$?DrawBar@CTabBarWnd@@AAEXPAVCDC@@@Z:
  0018d	b8 00 00 00 00	 mov	 eax, OFFSET FLAT:$T191306
  00192	e9 00 00 00 00	 jmp	 ___CxxFrameHandler
text$x	ENDS
?DrawBar@CTabBarWnd@@AAEXPAVCDC@@@Z ENDP		; CTabBarWnd::DrawBar
PUBLIC	?InterlockedExchangePointer@@YGPAXPAPAXPAX@Z	; InterlockedExchangePointer
PUBLIC	?_AtlGetThreadACPFake@ATL@@YGIXZ		; ATL::_AtlGetThreadACPFake
PUBLIC	?_AtlGetThreadACPReal@ATL@@YGIXZ		; ATL::_AtlGetThreadACPReal
EXTRN	__imp__GetVersionExA@4:NEAR
; Function compile flags: /Odt /RTCsu
; File d:\program files (x86)\microsoft visual studio .net 2003\vc7\atlmfc\include\atlconv.h
;	COMDAT ?_AtlGetThreadACPThunk@ATL@@YGIXZ
_TEXT	SEGMENT
_pfnGetThreadACP$ = -164				; size = 4
_ver$ = -156						; size = 148
__$ArrayPad$ = -4					; size = 4
__$ReturnAddr$ = 4					; size = 4
?_AtlGetThreadACPThunk@ATL@@YGIXZ PROC NEAR		; ATL::_AtlGetThreadACPThunk, COMDAT

; 134  : {

  00000	55		 push	 ebp
  00001	8b ec		 mov	 ebp, esp
  00003	81 ec a4 00 00
	00		 sub	 esp, 164		; 000000a4H
  00009	56		 push	 esi
  0000a	57		 push	 edi
  0000b	8d bd 5c ff ff
	ff		 lea	 edi, DWORD PTR [ebp-164]
  00011	b9 29 00 00 00	 mov	 ecx, 41			; 00000029H
  00016	b8 cc cc cc cc	 mov	 eax, -858993460		; ccccccccH
  0001b	f3 ab		 rep stosd
  0001d	a1 00 00 00 00	 mov	 eax, DWORD PTR ___security_cookie
  00022	89 45 fc	 mov	 DWORD PTR __$ArrayPad$[ebp], eax

; 135  : 	OSVERSIONINFO ver;
; 136  : 	ATLGETTHREADACP pfnGetThreadACP;
; 137  : 
; 138  : 	ver.dwOSVersionInfoSize = sizeof( ver );

  00025	c7 85 64 ff ff
	ff 94 00 00 00	 mov	 DWORD PTR _ver$[ebp], 148 ; 00000094H

; 139  : 	::GetVersionEx( &ver );

  0002f	8b f4		 mov	 esi, esp
  00031	8d 85 64 ff ff
	ff		 lea	 eax, DWORD PTR _ver$[ebp]
  00037	50		 push	 eax
  00038	ff 15 00 00 00
	00		 call	 DWORD PTR __imp__GetVersionExA@4
  0003e	3b f4		 cmp	 esi, esp
  00040	e8 00 00 00 00	 call	 __RTC_CheckEsp

; 140  : 	if( (ver.dwPlatformId == VER_PLATFORM_WIN32_NT) && (ver.dwMajorVersion >= 5) )

  00045	83 bd 74 ff ff
	ff 02		 cmp	 DWORD PTR _ver$[ebp+16], 2
  0004c	75 15		 jne	 SHORT $L24163
  0004e	83 bd 68 ff ff
	ff 05		 cmp	 DWORD PTR _ver$[ebp+4], 5
  00055	72 0c		 jb	 SHORT $L24163

; 141  : 	{
; 142  : 		// On Win2K, CP_THREAD_ACP is supported
; 143  : 		pfnGetThreadACP = _AtlGetThreadACPReal;

  00057	c7 85 5c ff ff
	ff 00 00 00 00	 mov	 DWORD PTR _pfnGetThreadACP$[ebp], OFFSET FLAT:?_AtlGetThreadACPReal@ATL@@YGIXZ ; ATL::_AtlGetThreadACPReal

; 144  : 	}
; 145  : 	else

  00061	eb 0a		 jmp	 SHORT $L24164
$L24163:

; 146  : 	{
; 147  : 		pfnGetThreadACP = _AtlGetThreadACPFake;

  00063	c7 85 5c ff ff
	ff 00 00 00 00	 mov	 DWORD PTR _pfnGetThreadACP$[ebp], OFFSET FLAT:?_AtlGetThreadACPFake@ATL@@YGIXZ ; ATL::_AtlGetThreadACPFake
$L24164:

; 148  : 	}
; 149  : 	InterlockedExchangePointer( reinterpret_cast< void** >(&g_pfnGetThreadACP), pfnGetThreadACP );

  0006d	8b 8d 5c ff ff
	ff		 mov	 ecx, DWORD PTR _pfnGetThreadACP$[ebp]
  00073	51		 push	 ecx
  00074	68 00 00 00 00	 push	 OFFSET FLAT:?g_pfnGetThreadACP@ATL@@3P6GIXZA ; ATL::g_pfnGetThreadACP
  00079	e8 00 00 00 00	 call	 ?InterlockedExchangePointer@@YGPAXPAPAXPAX@Z ; InterlockedExchangePointer

; 150  : 
; 151  : 	return( g_pfnGetThreadACP() );

  0007e	8b f4		 mov	 esi, esp
  00080	ff 15 00 00 00
	00		 call	 DWORD PTR ?g_pfnGetThreadACP@ATL@@3P6GIXZA ; ATL::g_pfnGetThreadACP
  00086	3b f4		 cmp	 esi, esp
  00088	e8 00 00 00 00	 call	 __RTC_CheckEsp

; 152  : }

  0008d	52		 push	 edx
  0008e	8b cd		 mov	 ecx, ebp
  00090	50		 push	 eax
  00091	8d 15 00 00 00
	00		 lea	 edx, DWORD PTR $L191317
  00097	e8 00 00 00 00	 call	 @_RTC_CheckStackVars@8
  0009c	58		 pop	 eax
  0009d	5a		 pop	 edx
  0009e	8b 4d fc	 mov	 ecx, DWORD PTR __$ArrayPad$[ebp]
  000a1	e8 00 00 00 00	 call	 @__security_check_cookie@4
  000a6	5f		 pop	 edi
  000a7	5e		 pop	 esi
  000a8	81 c4 a4 00 00
	00		 add	 esp, 164		; 000000a4H
  000ae	3b ec		 cmp	 ebp, esp
  000b0	e8 00 00 00 00	 call	 __RTC_CheckEsp
  000b5	8b e5		 mov	 esp, ebp
  000b7	5d		 pop	 ebp
  000b8	c3		 ret	 0
$L191317:
  000b9	01 00 00 00	 DD	 1
  000bd	00 00 00 00	 DD	 $L191316
$L191316:
  000c1	64 ff ff ff	 DD	 -156			; ffffff64H
  000c5	94 00 00 00	 DD	 148			; 00000094H
  000c9	00 00 00 00	 DD	 $L191314
$L191314:
  000cd	76		 DB	 118			; 00000076H
  000ce	65		 DB	 101			; 00000065H
  000cf	72		 DB	 114			; 00000072H
  000d0	00		 DB	 0
?_AtlGetThreadACPThunk@ATL@@YGIXZ ENDP			; ATL::_AtlGetThreadACPThunk
_TEXT	ENDS
EXTRN	__imp__InterlockedExchange@8:NEAR
; Function compile flags: /Odt /RTCsu
;	COMDAT ?InterlockedExchangePointer@@YGPAXPAPAXPAX@Z
_TEXT	SEGMENT
_pp$ = 8						; size = 4
_pNew$ = 12						; size = 4
?InterlockedExchangePointer@@YGPAXPAPAXPAX@Z PROC NEAR	; InterlockedExchangePointer, COMDAT

; 91   : {

  00000	55		 push	 ebp
  00001	8b ec		 mov	 ebp, esp
  00003	56		 push	 esi

; 92   : 	return( reinterpret_cast<void*>(static_cast<LONG_PTR>(::InterlockedExchange(reinterpret_cast<LONG*>(pp), static_cast<LONG>(reinterpret_cast<LONG_PTR>(pNew))))) );

  00004	8b f4		 mov	 esi, esp
  00006	8b 45 0c	 mov	 eax, DWORD PTR _pNew$[ebp]
  00009	50		 push	 eax
  0000a	8b 4d 08	 mov	 ecx, DWORD PTR _pp$[ebp]
  0000d	51		 push	 ecx
  0000e	ff 15 00 00 00
	00		 call	 DWORD PTR __imp__InterlockedExchange@8
  00014	3b f4		 cmp	 esi, esp
  00016	e8 00 00 00 00	 call	 __RTC_CheckEsp

; 93   : }

  0001b	5e		 pop	 esi
  0001c	3b ec		 cmp	 ebp, esp
  0001e	e8 00 00 00 00	 call	 __RTC_CheckEsp
  00023	5d		 pop	 ebp
  00024	c2 08 00	 ret	 8
?InterlockedExchangePointer@@YGPAXPAPAXPAX@Z ENDP	; InterlockedExchangePointer
_TEXT	ENDS
EXTRN	__imp__GetACP@0:NEAR
EXTRN	__imp__GetLocaleInfoA@16:NEAR
EXTRN	__imp__GetThreadLocale@0:NEAR
; Function compile flags: /Odt /RTCsu
;	COMDAT ?_AtlGetThreadACPFake@ATL@@YGIXZ
_TEXT	SEGMENT
_pch$24151 = -32					; size = 4
_szACP$ = -24						; size = 7
_lcidThread$ = -12					; size = 4
_nACP$ = -8						; size = 4
__$ArrayPad$ = -4					; size = 4
__$ReturnAddr$ = 4					; size = 4
?_AtlGetThreadACPFake@ATL@@YGIXZ PROC NEAR		; ATL::_AtlGetThreadACPFake, COMDAT

; 101  : {

  00000	55		 push	 ebp
  00001	8b ec		 mov	 ebp, esp
  00003	83 ec 20	 sub	 esp, 32			; 00000020H
  00006	56		 push	 esi
  00007	b8 cc cc cc cc	 mov	 eax, -858993460		; ccccccccH
  0000c	89 45 e0	 mov	 DWORD PTR [ebp-32], eax
  0000f	89 45 e4	 mov	 DWORD PTR [ebp-28], eax
  00012	89 45 e8	 mov	 DWORD PTR [ebp-24], eax
  00015	89 45 ec	 mov	 DWORD PTR [ebp-20], eax
  00018	89 45 f0	 mov	 DWORD PTR [ebp-16], eax
  0001b	89 45 f4	 mov	 DWORD PTR [ebp-12], eax
  0001e	89 45 f8	 mov	 DWORD PTR [ebp-8], eax
  00021	89 45 fc	 mov	 DWORD PTR [ebp-4], eax
  00024	a1 00 00 00 00	 mov	 eax, DWORD PTR ___security_cookie
  00029	89 45 fc	 mov	 DWORD PTR __$ArrayPad$[ebp], eax

; 102  : 	UINT nACP = 0;

  0002c	c7 45 f8 00 00
	00 00		 mov	 DWORD PTR _nACP$[ebp], 0

; 103  : 
; 104  : 	LCID lcidThread = ::GetThreadLocale();

  00033	8b f4		 mov	 esi, esp
  00035	ff 15 00 00 00
	00		 call	 DWORD PTR __imp__GetThreadLocale@0
  0003b	3b f4		 cmp	 esi, esp
  0003d	e8 00 00 00 00	 call	 __RTC_CheckEsp
  00042	89 45 f4	 mov	 DWORD PTR _lcidThread$[ebp], eax

; 105  : 
; 106  : 	char szACP[7];
; 107  : 	// GetLocaleInfoA will fail for a Unicode-only LCID, but those are only supported on 
; 108  : 	// Windows 2000.  Since Windows 2000 supports CP_THREAD_ACP, this code path is never
; 109  : 	// executed on Windows 2000.
; 110  : 	if (::GetLocaleInfoA(lcidThread, LOCALE_IDEFAULTANSICODEPAGE, szACP, 7) != 0)

  00045	8b f4		 mov	 esi, esp
  00047	6a 07		 push	 7
  00049	8d 45 e8	 lea	 eax, DWORD PTR _szACP$[ebp]
  0004c	50		 push	 eax
  0004d	68 04 10 00 00	 push	 4100			; 00001004H
  00052	8b 4d f4	 mov	 ecx, DWORD PTR _lcidThread$[ebp]
  00055	51		 push	 ecx
  00056	ff 15 00 00 00
	00		 call	 DWORD PTR __imp__GetLocaleInfoA@16
  0005c	3b f4		 cmp	 esi, esp
  0005e	e8 00 00 00 00	 call	 __RTC_CheckEsp
  00063	85 c0		 test	 eax, eax
  00065	74 34		 je	 SHORT $L24150

; 111  : 	{
; 112  : 		char* pch = szACP;

  00067	8d 55 e8	 lea	 edx, DWORD PTR _szACP$[ebp]
  0006a	89 55 e0	 mov	 DWORD PTR _pch$24151[ebp], edx
$L24153:

; 113  : 		while (*pch != '\0')

  0006d	8b 45 e0	 mov	 eax, DWORD PTR _pch$24151[ebp]
  00070	0f be 08	 movsx	 ecx, BYTE PTR [eax]
  00073	85 c9		 test	 ecx, ecx
  00075	74 24		 je	 SHORT $L24150

; 114  : 		{
; 115  : 			nACP *= 10;

  00077	8b 55 f8	 mov	 edx, DWORD PTR _nACP$[ebp]
  0007a	6b d2 0a	 imul	 edx, 10			; 0000000aH
  0007d	89 55 f8	 mov	 DWORD PTR _nACP$[ebp], edx

; 116  : 			nACP += *pch++ - '0';

  00080	8b 45 e0	 mov	 eax, DWORD PTR _pch$24151[ebp]
  00083	0f be 08	 movsx	 ecx, BYTE PTR [eax]
  00086	8b 55 f8	 mov	 edx, DWORD PTR _nACP$[ebp]
  00089	8d 44 0a d0	 lea	 eax, DWORD PTR [edx+ecx-48]
  0008d	89 45 f8	 mov	 DWORD PTR _nACP$[ebp], eax
  00090	8b 4d e0	 mov	 ecx, DWORD PTR _pch$24151[ebp]
  00093	83 c1 01	 add	 ecx, 1
  00096	89 4d e0	 mov	 DWORD PTR _pch$24151[ebp], ecx

; 117  : 		}

  00099	eb d2		 jmp	 SHORT $L24153
$L24150:

; 118  : 	}
; 119  : 	// Use the Default ANSI Code Page if we were unable to get the thread ACP or if one does not exist.
; 120  : 	if (nACP == 0)

  0009b	83 7d f8 00	 cmp	 DWORD PTR _nACP$[ebp], 0
  0009f	75 12		 jne	 SHORT $L24155

; 121  : 		nACP = ::GetACP();

  000a1	8b f4		 mov	 esi, esp
  000a3	ff 15 00 00 00
	00		 call	 DWORD PTR __imp__GetACP@0
  000a9	3b f4		 cmp	 esi, esp
  000ab	e8 00 00 00 00	 call	 __RTC_CheckEsp
  000b0	89 45 f8	 mov	 DWORD PTR _nACP$[ebp], eax
$L24155:

; 122  : 
; 123  : 	return nACP;

  000b3	8b 45 f8	 mov	 eax, DWORD PTR _nACP$[ebp]

; 124  : }

  000b6	52		 push	 edx
  000b7	8b cd		 mov	 ecx, ebp
  000b9	50		 push	 eax
  000ba	8d 15 00 00 00
	00		 lea	 edx, DWORD PTR $L191324
  000c0	e8 00 00 00 00	 call	 @_RTC_CheckStackVars@8
  000c5	58		 pop	 eax
  000c6	5a		 pop	 edx
  000c7	8b 4d fc	 mov	 ecx, DWORD PTR __$ArrayPad$[ebp]
  000ca	e8 00 00 00 00	 call	 @__security_check_cookie@4
  000cf	5e		 pop	 esi
  000d0	83 c4 20	 add	 esp, 32			; 00000020H
  000d3	3b ec		 cmp	 ebp, esp
  000d5	e8 00 00 00 00	 call	 __RTC_CheckEsp
  000da	8b e5		 mov	 esp, ebp
  000dc	5d		 pop	 ebp
  000dd	c3		 ret	 0
$L191324:
  000de	01 00 00 00	 DD	 1
  000e2	00 00 00 00	 DD	 $L191323
$L191323:
  000e6	e8 ff ff ff	 DD	 -24			; ffffffe8H
  000ea	07 00 00 00	 DD	 7
  000ee	00 00 00 00	 DD	 $L191321
$L191321:
  000f2	73		 DB	 115			; 00000073H
  000f3	7a		 DB	 122			; 0000007aH
  000f4	41		 DB	 65			; 00000041H
  000f5	43		 DB	 67			; 00000043H
  000f6	50		 DB	 80			; 00000050H
  000f7	00		 DB	 0
?_AtlGetThreadACPFake@ATL@@YGIXZ ENDP			; ATL::_AtlGetThreadACPFake
; Function compile flags: /Odt /RTCsu
_TEXT	ENDS
;	COMDAT ?_AtlGetThreadACPReal@ATL@@YGIXZ
_TEXT	SEGMENT
?_AtlGetThreadACPReal@ATL@@YGIXZ PROC NEAR		; ATL::_AtlGetThreadACPReal, COMDAT

; 127  : {

  00000	55		 push	 ebp
  00001	8b ec		 mov	 ebp, esp

; 128  : 	return( CP_THREAD_ACP );

  00003	b8 03 00 00 00	 mov	 eax, 3

; 129  : }

  00008	5d		 pop	 ebp
  00009	c3		 ret	 0
?_AtlGetThreadACPReal@ATL@@YGIXZ ENDP			; ATL::_AtlGetThreadACPReal
_TEXT	ENDS
EXTRN	?IsRectEmpty@CRect@@QBEHXZ:NEAR			; CRect::IsRectEmpty
EXTRN	?GetWidth@CDibBitmap@@QAEHXZ:NEAR		; CDibBitmap::GetWidth
EXTRN	?GetTextColor@CDC@@QBEKXZ:NEAR			; CDC::GetTextColor
EXTRN	?SetBkMode@CDC@@QAEHH@Z:NEAR			; CDC::SetBkMode
EXTRN	__imp_?c_str@?$basic_string@DU?$char_traits@D@std@@V?$allocator@D@2@@std@@QBEPBDXZ:NEAR
xdata$x	SEGMENT
$T191337 DD	0ffffffffH
	DD	FLAT:$L191327
$T191329 DD	019930520H
	DD	01H
	DD	FLAT:$T191337
	DD	2 DUP(00H)
	DD	2 DUP(00H)
; Function compile flags: /Odt /RTCsu
; File d:\boxgit\playbox\playbox\dev\prj\playbox\src\module\tabman\tabbarwnd.cpp
xdata$x	ENDS
_TEXT	SEGMENT
_fontOld$189583 = -120					; size = 4
_colOld$189582 = -116					; size = 4
_rcText$ = -108						; size = 16
_rcMiddle$ = -84					; size = 16
_rcRight$ = -60						; size = 16
_rcLeft$ = -36						; size = 16
_this$ = -16						; size = 4
__$EHRec$ = -12						; size = 12
_pDc$ = 8						; size = 4
_rcRect$ = 12						; size = 4
_pRectLeft$ = 16					; size = 4
_pRectMiddle$ = 20					; size = 4
_pRectRight$ = 24					; size = 4
_rcClose$ = 28						; size = 4
_pClose$ = 32						; size = 4
_strText$ = 36						; size = 28
_bDown$ = 64						; size = 1
?DrawTabItemRect@CTabBarWnd@@AAEXPAVCDC@@AAVCRect@@PAVCDibBitmap@@2212V?$basic_string@DU?$char_traits@D@std@@V?$allocator@D@2@@std@@_N@Z PROC NEAR ; CTabBarWnd::DrawTabItemRect
; _this$ = ecx

; 250  : {

  012c0	55		 push	 ebp
  012c1	8b ec		 mov	 ebp, esp
  012c3	6a ff		 push	 -1
  012c5	68 00 00 00 00	 push	 __ehhandler$?DrawTabItemRect@CTabBarWnd@@AAEXPAVCDC@@AAVCRect@@PAVCDibBitmap@@2212V?$basic_string@DU?$char_traits@D@std@@V?$allocator@D@2@@std@@_N@Z
  012ca	64 a1 00 00 00
	00		 mov	 eax, DWORD PTR fs:__except_list
  012d0	50		 push	 eax
  012d1	64 89 25 00 00
	00 00		 mov	 DWORD PTR fs:__except_list, esp
  012d8	83 ec 6c	 sub	 esp, 108		; 0000006cH
  012db	56		 push	 esi
  012dc	57		 push	 edi
  012dd	51		 push	 ecx
  012de	8d 7d 88	 lea	 edi, DWORD PTR [ebp-120]
  012e1	b9 1b 00 00 00	 mov	 ecx, 27			; 0000001bH
  012e6	b8 cc cc cc cc	 mov	 eax, -858993460		; ccccccccH
  012eb	f3 ab		 rep stosd
  012ed	59		 pop	 ecx
  012ee	89 4d f0	 mov	 DWORD PTR _this$[ebp], ecx
  012f1	c7 45 fc 00 00
	00 00		 mov	 DWORD PTR __$EHRec$[ebp+8], 0

; 251  : 	if( pRectLeft == NULL || pRectMiddle == NULL || pRectRight == NULL || pClose == NULL )

  012f8	83 7d 10 00	 cmp	 DWORD PTR _pRectLeft$[ebp], 0
  012fc	74 12		 je	 SHORT $L189576
  012fe	83 7d 14 00	 cmp	 DWORD PTR _pRectMiddle$[ebp], 0
  01302	74 0c		 je	 SHORT $L189576
  01304	83 7d 18 00	 cmp	 DWORD PTR _pRectRight$[ebp], 0
  01308	74 06		 je	 SHORT $L189576
  0130a	83 7d 20 00	 cmp	 DWORD PTR _pClose$[ebp], 0
  0130e	75 1e		 jne	 SHORT $L189575
$L189576:

; 252  : 		return;

  01310	c7 45 fc ff ff
	ff ff		 mov	 DWORD PTR __$EHRec$[ebp+8], -1
  01317	8b f4		 mov	 esi, esp
  01319	8d 4d 24	 lea	 ecx, DWORD PTR _strText$[ebp]
  0131c	ff 15 00 00 00
	00		 call	 DWORD PTR __imp_??1?$basic_string@DU?$char_traits@D@std@@V?$allocator@D@2@@std@@QAE@XZ
  01322	3b f4		 cmp	 esi, esp
  01324	e8 00 00 00 00	 call	 __RTC_CheckEsp
  01329	e9 cc 02 00 00	 jmp	 $L189574
$L189575:

; 253  : 	CRect rcLeft(rcRect);

  0132e	8b 45 0c	 mov	 eax, DWORD PTR _rcRect$[ebp]
  01331	8b 08		 mov	 ecx, DWORD PTR [eax]
  01333	89 4d dc	 mov	 DWORD PTR _rcLeft$[ebp], ecx
  01336	8b 50 04	 mov	 edx, DWORD PTR [eax+4]
  01339	89 55 e0	 mov	 DWORD PTR _rcLeft$[ebp+4], edx
  0133c	8b 48 08	 mov	 ecx, DWORD PTR [eax+8]
  0133f	89 4d e4	 mov	 DWORD PTR _rcLeft$[ebp+8], ecx
  01342	8b 50 0c	 mov	 edx, DWORD PTR [eax+12]
  01345	89 55 e8	 mov	 DWORD PTR _rcLeft$[ebp+12], edx

; 254  : 	rcLeft.right = rcLeft.left + pRectLeft->GetWidth();

  01348	8b 4d 10	 mov	 ecx, DWORD PTR _pRectLeft$[ebp]
  0134b	e8 00 00 00 00	 call	 ?GetWidth@CDibBitmap@@QAEHXZ ; CDibBitmap::GetWidth
  01350	03 45 dc	 add	 eax, DWORD PTR _rcLeft$[ebp]
  01353	89 45 e4	 mov	 DWORD PTR _rcLeft$[ebp+8], eax

; 255  : 	pRectLeft->SetCDibRect( rcLeft );

  01356	83 ec 10	 sub	 esp, 16			; 00000010H
  01359	8b c4		 mov	 eax, esp
  0135b	8b 4d dc	 mov	 ecx, DWORD PTR _rcLeft$[ebp]
  0135e	89 08		 mov	 DWORD PTR [eax], ecx
  01360	8b 55 e0	 mov	 edx, DWORD PTR _rcLeft$[ebp+4]
  01363	89 50 04	 mov	 DWORD PTR [eax+4], edx
  01366	8b 4d e4	 mov	 ecx, DWORD PTR _rcLeft$[ebp+8]
  01369	89 48 08	 mov	 DWORD PTR [eax+8], ecx
  0136c	8b 55 e8	 mov	 edx, DWORD PTR _rcLeft$[ebp+12]
  0136f	89 50 0c	 mov	 DWORD PTR [eax+12], edx
  01372	8b 4d 10	 mov	 ecx, DWORD PTR _pRectLeft$[ebp]
  01375	e8 00 00 00 00	 call	 ?SetCDibRect@CDibBitmap@@QAEXVCRect@@@Z ; CDibBitmap::SetCDibRect

; 256  : 	pRectLeft->Draw( pDc, TRUE, m_colMask );

  0137a	6a 01		 push	 1
  0137c	8b 45 f0	 mov	 eax, DWORD PTR _this$[ebp]
  0137f	8b 88 c8 00 00
	00		 mov	 ecx, DWORD PTR [eax+200]
  01385	51		 push	 ecx
  01386	6a 01		 push	 1
  01388	8b 55 08	 mov	 edx, DWORD PTR _pDc$[ebp]
  0138b	52		 push	 edx
  0138c	8b 4d 10	 mov	 ecx, DWORD PTR _pRectLeft$[ebp]
  0138f	e8 00 00 00 00	 call	 ?Draw@CDibBitmap@@QAEHPAVCDC@@HKH@Z ; CDibBitmap::Draw

; 257  : 
; 258  : 	CRect rcRight(rcRect);

  01394	8b 45 0c	 mov	 eax, DWORD PTR _rcRect$[ebp]
  01397	8b 08		 mov	 ecx, DWORD PTR [eax]
  01399	89 4d c4	 mov	 DWORD PTR _rcRight$[ebp], ecx
  0139c	8b 50 04	 mov	 edx, DWORD PTR [eax+4]
  0139f	89 55 c8	 mov	 DWORD PTR _rcRight$[ebp+4], edx
  013a2	8b 48 08	 mov	 ecx, DWORD PTR [eax+8]
  013a5	89 4d cc	 mov	 DWORD PTR _rcRight$[ebp+8], ecx
  013a8	8b 50 0c	 mov	 edx, DWORD PTR [eax+12]
  013ab	89 55 d0	 mov	 DWORD PTR _rcRight$[ebp+12], edx

; 259  : 	rcRight.left = rcRight.right - pRectRight->GetWidth();

  013ae	8b 4d 18	 mov	 ecx, DWORD PTR _pRectRight$[ebp]
  013b1	e8 00 00 00 00	 call	 ?GetWidth@CDibBitmap@@QAEHXZ ; CDibBitmap::GetWidth
  013b6	8b 4d cc	 mov	 ecx, DWORD PTR _rcRight$[ebp+8]
  013b9	2b c8		 sub	 ecx, eax
  013bb	89 4d c4	 mov	 DWORD PTR _rcRight$[ebp], ecx

; 260  : 	pRectRight->SetCDibRect( rcRight );

  013be	83 ec 10	 sub	 esp, 16			; 00000010H
  013c1	8b d4		 mov	 edx, esp
  013c3	8b 45 c4	 mov	 eax, DWORD PTR _rcRight$[ebp]
  013c6	89 02		 mov	 DWORD PTR [edx], eax
  013c8	8b 4d c8	 mov	 ecx, DWORD PTR _rcRight$[ebp+4]
  013cb	89 4a 04	 mov	 DWORD PTR [edx+4], ecx
  013ce	8b 45 cc	 mov	 eax, DWORD PTR _rcRight$[ebp+8]
  013d1	89 42 08	 mov	 DWORD PTR [edx+8], eax
  013d4	8b 4d d0	 mov	 ecx, DWORD PTR _rcRight$[ebp+12]
  013d7	89 4a 0c	 mov	 DWORD PTR [edx+12], ecx
  013da	8b 4d 18	 mov	 ecx, DWORD PTR _pRectRight$[ebp]
  013dd	e8 00 00 00 00	 call	 ?SetCDibRect@CDibBitmap@@QAEXVCRect@@@Z ; CDibBitmap::SetCDibRect

; 261  : 	pRectRight->Draw( pDc, TRUE, m_colMask );	

  013e2	6a 01		 push	 1
  013e4	8b 55 f0	 mov	 edx, DWORD PTR _this$[ebp]
  013e7	8b 82 c8 00 00
	00		 mov	 eax, DWORD PTR [edx+200]
  013ed	50		 push	 eax
  013ee	6a 01		 push	 1
  013f0	8b 4d 08	 mov	 ecx, DWORD PTR _pDc$[ebp]
  013f3	51		 push	 ecx
  013f4	8b 4d 18	 mov	 ecx, DWORD PTR _pRectRight$[ebp]
  013f7	e8 00 00 00 00	 call	 ?Draw@CDibBitmap@@QAEHPAVCDC@@HKH@Z ; CDibBitmap::Draw

; 262  : 
; 263  : 	CRect rcMiddle(rcRect);

  013fc	8b 55 0c	 mov	 edx, DWORD PTR _rcRect$[ebp]
  013ff	8b 02		 mov	 eax, DWORD PTR [edx]
  01401	89 45 ac	 mov	 DWORD PTR _rcMiddle$[ebp], eax
  01404	8b 4a 04	 mov	 ecx, DWORD PTR [edx+4]
  01407	89 4d b0	 mov	 DWORD PTR _rcMiddle$[ebp+4], ecx
  0140a	8b 42 08	 mov	 eax, DWORD PTR [edx+8]
  0140d	89 45 b4	 mov	 DWORD PTR _rcMiddle$[ebp+8], eax
  01410	8b 4a 0c	 mov	 ecx, DWORD PTR [edx+12]
  01413	89 4d b8	 mov	 DWORD PTR _rcMiddle$[ebp+12], ecx

; 264  : 	rcMiddle.left  = rcLeft.right;

  01416	8b 55 e4	 mov	 edx, DWORD PTR _rcLeft$[ebp+8]
  01419	89 55 ac	 mov	 DWORD PTR _rcMiddle$[ebp], edx

; 265  : 	rcMiddle.right = rcRight.left;

  0141c	8b 45 c4	 mov	 eax, DWORD PTR _rcRight$[ebp]
  0141f	89 45 b4	 mov	 DWORD PTR _rcMiddle$[ebp+8], eax

; 266  : 	pRectMiddle->SetCDibRect( rcMiddle );

  01422	83 ec 10	 sub	 esp, 16			; 00000010H
  01425	8b cc		 mov	 ecx, esp
  01427	8b 55 ac	 mov	 edx, DWORD PTR _rcMiddle$[ebp]
  0142a	89 11		 mov	 DWORD PTR [ecx], edx
  0142c	8b 45 b0	 mov	 eax, DWORD PTR _rcMiddle$[ebp+4]
  0142f	89 41 04	 mov	 DWORD PTR [ecx+4], eax
  01432	8b 55 b4	 mov	 edx, DWORD PTR _rcMiddle$[ebp+8]
  01435	89 51 08	 mov	 DWORD PTR [ecx+8], edx
  01438	8b 45 b8	 mov	 eax, DWORD PTR _rcMiddle$[ebp+12]
  0143b	89 41 0c	 mov	 DWORD PTR [ecx+12], eax
  0143e	8b 4d 14	 mov	 ecx, DWORD PTR _pRectMiddle$[ebp]
  01441	e8 00 00 00 00	 call	 ?SetCDibRect@CDibBitmap@@QAEXVCRect@@@Z ; CDibBitmap::SetCDibRect

; 267  : 	pRectMiddle->Draw( pDc, TRUE, m_colMask );	

  01446	6a 01		 push	 1
  01448	8b 4d f0	 mov	 ecx, DWORD PTR _this$[ebp]
  0144b	8b 91 c8 00 00
	00		 mov	 edx, DWORD PTR [ecx+200]
  01451	52		 push	 edx
  01452	6a 01		 push	 1
  01454	8b 45 08	 mov	 eax, DWORD PTR _pDc$[ebp]
  01457	50		 push	 eax
  01458	8b 4d 14	 mov	 ecx, DWORD PTR _pRectMiddle$[ebp]
  0145b	e8 00 00 00 00	 call	 ?Draw@CDibBitmap@@QAEHPAVCDC@@HKH@Z ; CDibBitmap::Draw

; 268  : 
; 269  : 	//
; 270  : 	CRect rcText( rcRect );

  01460	8b 4d 0c	 mov	 ecx, DWORD PTR _rcRect$[ebp]
  01463	8b 11		 mov	 edx, DWORD PTR [ecx]
  01465	89 55 94	 mov	 DWORD PTR _rcText$[ebp], edx
  01468	8b 41 04	 mov	 eax, DWORD PTR [ecx+4]
  0146b	89 45 98	 mov	 DWORD PTR _rcText$[ebp+4], eax
  0146e	8b 51 08	 mov	 edx, DWORD PTR [ecx+8]
  01471	89 55 9c	 mov	 DWORD PTR _rcText$[ebp+8], edx
  01474	8b 41 0c	 mov	 eax, DWORD PTR [ecx+12]
  01477	89 45 a0	 mov	 DWORD PTR _rcText$[ebp+12], eax

; 271  : 	rcText.left  = rcText.left + WIDTH_TEXT_LEFT_MARGIN;

  0147a	8b 4d 94	 mov	 ecx, DWORD PTR _rcText$[ebp]
  0147d	83 c1 05	 add	 ecx, 5
  01480	89 4d 94	 mov	 DWORD PTR _rcText$[ebp], ecx

; 272  : 	rcText.right = rcClose.left;

  01483	8b 55 1c	 mov	 edx, DWORD PTR _rcClose$[ebp]
  01486	8b 02		 mov	 eax, DWORD PTR [edx]
  01488	89 45 9c	 mov	 DWORD PTR _rcText$[ebp+8], eax

; 273  : 	if( !rcText.IsRectEmpty() )

  0148b	8d 4d 94	 lea	 ecx, DWORD PTR _rcText$[ebp]
  0148e	e8 00 00 00 00	 call	 ?IsRectEmpty@CRect@@QBEHXZ ; CRect::IsRectEmpty
  01493	85 c0		 test	 eax, eax
  01495	0f 85 06 01 00
	00		 jne	 $L189581

; 274  : 	{
; 275  : 		pDc->SetBkMode( TRANSPARENT );

  0149b	6a 01		 push	 1
  0149d	8b 4d 08	 mov	 ecx, DWORD PTR _pDc$[ebp]
  014a0	e8 00 00 00 00	 call	 ?SetBkMode@CDC@@QAEHH@Z	; CDC::SetBkMode

; 276  : 
; 277  : 		COLORREF colOld = pDc->GetTextColor();

  014a5	8b 4d 08	 mov	 ecx, DWORD PTR _pDc$[ebp]
  014a8	e8 00 00 00 00	 call	 ?GetTextColor@CDC@@QBEKXZ ; CDC::GetTextColor
  014ad	89 45 8c	 mov	 DWORD PTR _colOld$189582[ebp], eax

; 278  : 		CFont* fontOld = NULL;

  014b0	c7 45 88 00 00
	00 00		 mov	 DWORD PTR _fontOld$189583[ebp], 0

; 279  : 		if( bDown )

  014b7	0f b6 4d 40	 movzx	 ecx, BYTE PTR _bDown$[ebp]
  014bb	85 c9		 test	 ecx, ecx
  014bd	74 3e		 je	 SHORT $L189584

; 280  : 		{
; 281  : 			pDc->SetTextColor( m_colDownTextColor );

  014bf	8b f4		 mov	 esi, esp
  014c1	8b 55 f0	 mov	 edx, DWORD PTR _this$[ebp]
  014c4	8b 82 c4 00 00
	00		 mov	 eax, DWORD PTR [edx+196]
  014ca	50		 push	 eax
  014cb	8b 4d 08	 mov	 ecx, DWORD PTR _pDc$[ebp]
  014ce	8b 11		 mov	 edx, DWORD PTR [ecx]
  014d0	8b 4d 08	 mov	 ecx, DWORD PTR _pDc$[ebp]
  014d3	ff 52 38	 call	 DWORD PTR [edx+56]
  014d6	3b f4		 cmp	 esi, esp
  014d8	e8 00 00 00 00	 call	 __RTC_CheckEsp

; 282  : 			fontOld = pDc->SelectObject( &m_fontDown );

  014dd	8b 45 f0	 mov	 eax, DWORD PTR _this$[ebp]
  014e0	83 c0 68	 add	 eax, 104		; 00000068H
  014e3	8b f4		 mov	 esi, esp
  014e5	50		 push	 eax
  014e6	8b 4d 08	 mov	 ecx, DWORD PTR _pDc$[ebp]
  014e9	8b 11		 mov	 edx, DWORD PTR [ecx]
  014eb	8b 4d 08	 mov	 ecx, DWORD PTR _pDc$[ebp]
  014ee	ff 52 30	 call	 DWORD PTR [edx+48]
  014f1	3b f4		 cmp	 esi, esp
  014f3	e8 00 00 00 00	 call	 __RTC_CheckEsp
  014f8	89 45 88	 mov	 DWORD PTR _fontOld$189583[ebp], eax

; 283  : 		}else

  014fb	eb 3c		 jmp	 SHORT $L189585
$L189584:

; 284  : 		{
; 285  : 			pDc->SetTextColor( m_colNormalTextColor );

  014fd	8b f4		 mov	 esi, esp
  014ff	8b 45 f0	 mov	 eax, DWORD PTR _this$[ebp]
  01502	8b 88 c0 00 00
	00		 mov	 ecx, DWORD PTR [eax+192]
  01508	51		 push	 ecx
  01509	8b 55 08	 mov	 edx, DWORD PTR _pDc$[ebp]
  0150c	8b 02		 mov	 eax, DWORD PTR [edx]
  0150e	8b 4d 08	 mov	 ecx, DWORD PTR _pDc$[ebp]
  01511	ff 50 38	 call	 DWORD PTR [eax+56]
  01514	3b f4		 cmp	 esi, esp
  01516	e8 00 00 00 00	 call	 __RTC_CheckEsp

; 286  : 			fontOld = pDc->SelectObject( &m_fontNormal );

  0151b	8b 4d f0	 mov	 ecx, DWORD PTR _this$[ebp]
  0151e	83 c1 60	 add	 ecx, 96			; 00000060H
  01521	8b f4		 mov	 esi, esp
  01523	51		 push	 ecx
  01524	8b 55 08	 mov	 edx, DWORD PTR _pDc$[ebp]
  01527	8b 02		 mov	 eax, DWORD PTR [edx]
  01529	8b 4d 08	 mov	 ecx, DWORD PTR _pDc$[ebp]
  0152c	ff 50 30	 call	 DWORD PTR [eax+48]
  0152f	3b f4		 cmp	 esi, esp
  01531	e8 00 00 00 00	 call	 __RTC_CheckEsp
  01536	89 45 88	 mov	 DWORD PTR _fontOld$189583[ebp], eax
$L189585:

; 287  : 		}
; 288  : 		pDc->DrawText( strText.c_str(), -1, &rcText, /*DT_LEFT*/DT_CENTER|DT_VCENTER|DT_SINGLELINE|DT_END_ELLIPSIS );

  01539	8b f4		 mov	 esi, esp
  0153b	68 25 80 00 00	 push	 32805			; 00008025H
  01540	8d 4d 94	 lea	 ecx, DWORD PTR _rcText$[ebp]
  01543	51		 push	 ecx
  01544	6a ff		 push	 -1
  01546	8b fc		 mov	 edi, esp
  01548	8d 4d 24	 lea	 ecx, DWORD PTR _strText$[ebp]
  0154b	ff 15 00 00 00
	00		 call	 DWORD PTR __imp_?c_str@?$basic_string@DU?$char_traits@D@std@@V?$allocator@D@2@@std@@QBEPBDXZ
  01551	3b fc		 cmp	 edi, esp
  01553	e8 00 00 00 00	 call	 __RTC_CheckEsp
  01558	50		 push	 eax
  01559	8b 55 08	 mov	 edx, DWORD PTR _pDc$[ebp]
  0155c	8b 02		 mov	 eax, DWORD PTR [edx]
  0155e	8b 4d 08	 mov	 ecx, DWORD PTR _pDc$[ebp]
  01561	ff 50 70	 call	 DWORD PTR [eax+112]
  01564	3b f4		 cmp	 esi, esp
  01566	e8 00 00 00 00	 call	 __RTC_CheckEsp

; 289  : 
; 290  : 		pDc->SetTextColor( colOld );

  0156b	8b f4		 mov	 esi, esp
  0156d	8b 4d 8c	 mov	 ecx, DWORD PTR _colOld$189582[ebp]
  01570	51		 push	 ecx
  01571	8b 55 08	 mov	 edx, DWORD PTR _pDc$[ebp]
  01574	8b 02		 mov	 eax, DWORD PTR [edx]
  01576	8b 4d 08	 mov	 ecx, DWORD PTR _pDc$[ebp]
  01579	ff 50 38	 call	 DWORD PTR [eax+56]
  0157c	3b f4		 cmp	 esi, esp
  0157e	e8 00 00 00 00	 call	 __RTC_CheckEsp

; 291  : 		if( fontOld != NULL )

  01583	83 7d 88 00	 cmp	 DWORD PTR _fontOld$189583[ebp], 0
  01587	74 18		 je	 SHORT $L189581

; 292  : 		{
; 293  : 			pDc->SelectObject( fontOld );

  01589	8b f4		 mov	 esi, esp
  0158b	8b 4d 88	 mov	 ecx, DWORD PTR _fontOld$189583[ebp]
  0158e	51		 push	 ecx
  0158f	8b 55 08	 mov	 edx, DWORD PTR _pDc$[ebp]
  01592	8b 02		 mov	 eax, DWORD PTR [edx]
  01594	8b 4d 08	 mov	 ecx, DWORD PTR _pDc$[ebp]
  01597	ff 50 30	 call	 DWORD PTR [eax+48]
  0159a	3b f4		 cmp	 esi, esp
  0159c	e8 00 00 00 00	 call	 __RTC_CheckEsp
$L189581:

; 294  : 		}
; 295  : 	}
; 296  : 	//
; 297  : 	pClose->SetCDibRect( rcClose );

  015a1	8b 4d 1c	 mov	 ecx, DWORD PTR _rcClose$[ebp]
  015a4	83 ec 10	 sub	 esp, 16			; 00000010H
  015a7	8b d4		 mov	 edx, esp
  015a9	8b 01		 mov	 eax, DWORD PTR [ecx]
  015ab	89 02		 mov	 DWORD PTR [edx], eax
  015ad	8b 41 04	 mov	 eax, DWORD PTR [ecx+4]
  015b0	89 42 04	 mov	 DWORD PTR [edx+4], eax
  015b3	8b 41 08	 mov	 eax, DWORD PTR [ecx+8]
  015b6	89 42 08	 mov	 DWORD PTR [edx+8], eax
  015b9	8b 49 0c	 mov	 ecx, DWORD PTR [ecx+12]
  015bc	89 4a 0c	 mov	 DWORD PTR [edx+12], ecx
  015bf	8b 4d 20	 mov	 ecx, DWORD PTR _pClose$[ebp]
  015c2	e8 00 00 00 00	 call	 ?SetCDibRect@CDibBitmap@@QAEXVCRect@@@Z ; CDibBitmap::SetCDibRect

; 298  : 	pClose->Draw( pDc, TRUE, m_colMask );

  015c7	6a 01		 push	 1
  015c9	8b 55 f0	 mov	 edx, DWORD PTR _this$[ebp]
  015cc	8b 82 c8 00 00
	00		 mov	 eax, DWORD PTR [edx+200]
  015d2	50		 push	 eax
  015d3	6a 01		 push	 1
  015d5	8b 4d 08	 mov	 ecx, DWORD PTR _pDc$[ebp]
  015d8	51		 push	 ecx
  015d9	8b 4d 20	 mov	 ecx, DWORD PTR _pClose$[ebp]
  015dc	e8 00 00 00 00	 call	 ?Draw@CDibBitmap@@QAEHPAVCDC@@HKH@Z ; CDibBitmap::Draw

; 299  : }

  015e1	c7 45 fc ff ff
	ff ff		 mov	 DWORD PTR __$EHRec$[ebp+8], -1
  015e8	8b f4		 mov	 esi, esp
  015ea	8d 4d 24	 lea	 ecx, DWORD PTR _strText$[ebp]
  015ed	ff 15 00 00 00
	00		 call	 DWORD PTR __imp_??1?$basic_string@DU?$char_traits@D@std@@V?$allocator@D@2@@std@@QAE@XZ
  015f3	3b f4		 cmp	 esi, esp
  015f5	e8 00 00 00 00	 call	 __RTC_CheckEsp
$L189574:
  015fa	52		 push	 edx
  015fb	8b cd		 mov	 ecx, ebp
  015fd	50		 push	 eax
  015fe	8d 15 00 00 00
	00		 lea	 edx, DWORD PTR $L191336
  01604	e8 00 00 00 00	 call	 @_RTC_CheckStackVars@8
  01609	58		 pop	 eax
  0160a	5a		 pop	 edx
  0160b	8b 4d f4	 mov	 ecx, DWORD PTR __$EHRec$[ebp]
  0160e	64 89 0d 00 00
	00 00		 mov	 DWORD PTR fs:__except_list, ecx
  01615	5f		 pop	 edi
  01616	5e		 pop	 esi
  01617	83 c4 78	 add	 esp, 120		; 00000078H
  0161a	3b ec		 cmp	 ebp, esp
  0161c	e8 00 00 00 00	 call	 __RTC_CheckEsp
  01621	8b e5		 mov	 esp, ebp
  01623	5d		 pop	 ebp
  01624	c2 3c 00	 ret	 60			; 0000003cH
$L191336:
  01627	04 00 00 00	 DD	 4
  0162b	00 00 00 00	 DD	 $L191335
$L191335:
  0162f	dc ff ff ff	 DD	 -36			; ffffffdcH
  01633	10 00 00 00	 DD	 16			; 00000010H
  01637	00 00 00 00	 DD	 $L191330
  0163b	c4 ff ff ff	 DD	 -60			; ffffffc4H
  0163f	10 00 00 00	 DD	 16			; 00000010H
  01643	00 00 00 00	 DD	 $L191331
  01647	ac ff ff ff	 DD	 -84			; ffffffacH
  0164b	10 00 00 00	 DD	 16			; 00000010H
  0164f	00 00 00 00	 DD	 $L191332
  01653	94 ff ff ff	 DD	 -108			; ffffff94H
  01657	10 00 00 00	 DD	 16			; 00000010H
  0165b	00 00 00 00	 DD	 $L191333
$L191333:
  0165f	72		 DB	 114			; 00000072H
  01660	63		 DB	 99			; 00000063H
  01661	54		 DB	 84			; 00000054H
  01662	65		 DB	 101			; 00000065H
  01663	78		 DB	 120			; 00000078H
  01664	74		 DB	 116			; 00000074H
  01665	00		 DB	 0
$L191332:
  01666	72		 DB	 114			; 00000072H
  01667	63		 DB	 99			; 00000063H
  01668	4d		 DB	 77			; 0000004dH
  01669	69		 DB	 105			; 00000069H
  0166a	64		 DB	 100			; 00000064H
  0166b	64		 DB	 100			; 00000064H
  0166c	6c		 DB	 108			; 0000006cH
  0166d	65		 DB	 101			; 00000065H
  0166e	00		 DB	 0
$L191331:
  0166f	72		 DB	 114			; 00000072H
  01670	63		 DB	 99			; 00000063H
  01671	52		 DB	 82			; 00000052H
  01672	69		 DB	 105			; 00000069H
  01673	67		 DB	 103			; 00000067H
  01674	68		 DB	 104			; 00000068H
  01675	74		 DB	 116			; 00000074H
  01676	00		 DB	 0
$L191330:
  01677	72		 DB	 114			; 00000072H
  01678	63		 DB	 99			; 00000063H
  01679	4c		 DB	 76			; 0000004cH
  0167a	65		 DB	 101			; 00000065H
  0167b	66		 DB	 102			; 00000066H
  0167c	74		 DB	 116			; 00000074H
  0167d	00		 DB	 0
_TEXT	ENDS
text$x	SEGMENT
$L191327:
  00197	8b f4		 mov	 esi, esp
  00199	8d 4d 24	 lea	 ecx, DWORD PTR _strText$[ebp]
  0019c	ff 15 00 00 00
	00		 call	 DWORD PTR __imp_??1?$basic_string@DU?$char_traits@D@std@@V?$allocator@D@2@@std@@QAE@XZ
  001a2	3b f4		 cmp	 esi, esp
  001a4	e9 00 00 00 00	 jmp	 __RTC_CheckEsp
__ehhandler$?DrawTabItemRect@CTabBarWnd@@AAEXPAVCDC@@AAVCRect@@PAVCDibBitmap@@2212V?$basic_string@DU?$char_traits@D@std@@V?$allocator@D@2@@std@@_N@Z:
  001a9	b8 00 00 00 00	 mov	 eax, OFFSET FLAT:$T191329
  001ae	e9 00 00 00 00	 jmp	 ___CxxFrameHandler
text$x	ENDS
?DrawTabItemRect@CTabBarWnd@@AAEXPAVCDC@@AAVCRect@@PAVCDibBitmap@@2212V?$basic_string@DU?$char_traits@D@std@@V?$allocator@D@2@@std@@_N@Z ENDP ; CTabBarWnd::DrawTabItemRect
EXTRN	?AfxGetMainWindow@@YAPAVCWnd@@XZ:NEAR		; AfxGetMainWindow
EXTRN	?Invalidate@CWnd@@QAEXH@Z:NEAR			; CWnd::Invalidate
; Function compile flags: /Odt /RTCsu
_TEXT	SEGMENT
_this$ = -4						; size = 4
_item$ = 8						; size = 4
?ITabBarOb_CreateNewTab@CTabBarWnd@@UAEXAAUTAB_ITEM@@@Z PROC NEAR ; CTabBarWnd::ITabBarOb_CreateNewTab
; _this$ = ecx

; 302  : {

  01680	55		 push	 ebp
  01681	8b ec		 mov	 ebp, esp
  01683	51		 push	 ecx
  01684	c7 45 fc cc cc
	cc cc		 mov	 DWORD PTR [ebp-4], -858993460 ; ccccccccH
  0168b	89 4d fc	 mov	 DWORD PTR _this$[ebp], ecx

; 303  : 	AfxGetMainWindow()->Invalidate ();

  0168e	6a 01		 push	 1
  01690	e8 00 00 00 00	 call	 ?AfxGetMainWindow@@YAPAVCWnd@@XZ ; AfxGetMainWindow
  01695	8b c8		 mov	 ecx, eax
  01697	e8 00 00 00 00	 call	 ?Invalidate@CWnd@@QAEXH@Z ; CWnd::Invalidate

; 304  : 
; 305  : 	CalcTabPosition();

  0169c	8b 4d fc	 mov	 ecx, DWORD PTR _this$[ebp]
  0169f	83 e9 58	 sub	 ecx, 88			; 00000058H
  016a2	e8 00 00 00 00	 call	 ?CalcTabPosition@CTabBarWnd@@AAEXXZ ; CTabBarWnd::CalcTabPosition

; 306  : 	Invalidate();

  016a7	6a 01		 push	 1
  016a9	8b 4d fc	 mov	 ecx, DWORD PTR _this$[ebp]
  016ac	83 e9 58	 sub	 ecx, 88			; 00000058H
  016af	e8 00 00 00 00	 call	 ?Invalidate@CWnd@@QAEXH@Z ; CWnd::Invalidate

; 307  : }

  016b4	83 c4 04	 add	 esp, 4
  016b7	3b ec		 cmp	 ebp, esp
  016b9	e8 00 00 00 00	 call	 __RTC_CheckEsp
  016be	8b e5		 mov	 esp, ebp
  016c0	5d		 pop	 ebp
  016c1	c2 04 00	 ret	 4
?ITabBarOb_CreateNewTab@CTabBarWnd@@UAEXAAUTAB_ITEM@@@Z ENDP ; CTabBarWnd::ITabBarOb_CreateNewTab
; Function compile flags: /Odt /RTCsu
_this$ = -4						; size = 4
_item$ = 8						; size = 4
?ITabBarOb_OpenExistTab@CTabBarWnd@@UAEXAAUTAB_ITEM@@@Z PROC NEAR ; CTabBarWnd::ITabBarOb_OpenExistTab
; _this$ = ecx

; 310  : {

  016d0	55		 push	 ebp
  016d1	8b ec		 mov	 ebp, esp
  016d3	51		 push	 ecx
  016d4	c7 45 fc cc cc
	cc cc		 mov	 DWORD PTR [ebp-4], -858993460 ; ccccccccH
  016db	89 4d fc	 mov	 DWORD PTR _this$[ebp], ecx

; 311  : 	AfxGetMainWindow ()->Invalidate ();

  016de	6a 01		 push	 1
  016e0	e8 00 00 00 00	 call	 ?AfxGetMainWindow@@YAPAVCWnd@@XZ ; AfxGetMainWindow
  016e5	8b c8		 mov	 ecx, eax
  016e7	e8 00 00 00 00	 call	 ?Invalidate@CWnd@@QAEXH@Z ; CWnd::Invalidate

; 312  : 
; 313  : 	CalcTabPosition();

  016ec	8b 4d fc	 mov	 ecx, DWORD PTR _this$[ebp]
  016ef	83 e9 58	 sub	 ecx, 88			; 00000058H
  016f2	e8 00 00 00 00	 call	 ?CalcTabPosition@CTabBarWnd@@AAEXXZ ; CTabBarWnd::CalcTabPosition

; 314  : 	Invalidate();

  016f7	6a 01		 push	 1
  016f9	8b 4d fc	 mov	 ecx, DWORD PTR _this$[ebp]
  016fc	83 e9 58	 sub	 ecx, 88			; 00000058H
  016ff	e8 00 00 00 00	 call	 ?Invalidate@CWnd@@QAEXH@Z ; CWnd::Invalidate

; 315  : }

  01704	83 c4 04	 add	 esp, 4
  01707	3b ec		 cmp	 ebp, esp
  01709	e8 00 00 00 00	 call	 __RTC_CheckEsp
  0170e	8b e5		 mov	 esp, ebp
  01710	5d		 pop	 ebp
  01711	c2 04 00	 ret	 4
?ITabBarOb_OpenExistTab@CTabBarWnd@@UAEXAAUTAB_ITEM@@@Z ENDP ; CTabBarWnd::ITabBarOb_OpenExistTab
; Function compile flags: /Odt /RTCsu
_this$ = -4						; size = 4
_item$ = 8						; size = 4
?ITabBarOb_DelTab@CTabBarWnd@@UAEXAAUTAB_ITEM@@@Z PROC NEAR ; CTabBarWnd::ITabBarOb_DelTab
; _this$ = ecx

; 318  : {

  01720	55		 push	 ebp
  01721	8b ec		 mov	 ebp, esp
  01723	51		 push	 ecx
  01724	c7 45 fc cc cc
	cc cc		 mov	 DWORD PTR [ebp-4], -858993460 ; ccccccccH
  0172b	89 4d fc	 mov	 DWORD PTR _this$[ebp], ecx

; 319  : 	CalcTabPosition();

  0172e	8b 4d fc	 mov	 ecx, DWORD PTR _this$[ebp]
  01731	83 e9 58	 sub	 ecx, 88			; 00000058H
  01734	e8 00 00 00 00	 call	 ?CalcTabPosition@CTabBarWnd@@AAEXXZ ; CTabBarWnd::CalcTabPosition

; 320  : 	Invalidate();

  01739	6a 01		 push	 1
  0173b	8b 4d fc	 mov	 ecx, DWORD PTR _this$[ebp]
  0173e	83 e9 58	 sub	 ecx, 88			; 00000058H
  01741	e8 00 00 00 00	 call	 ?Invalidate@CWnd@@QAEXH@Z ; CWnd::Invalidate

; 321  : }

  01746	83 c4 04	 add	 esp, 4
  01749	3b ec		 cmp	 ebp, esp
  0174b	e8 00 00 00 00	 call	 __RTC_CheckEsp
  01750	8b e5		 mov	 esp, ebp
  01752	5d		 pop	 ebp
  01753	c2 04 00	 ret	 4
?ITabBarOb_DelTab@CTabBarWnd@@UAEXAAUTAB_ITEM@@@Z ENDP	; CTabBarWnd::ITabBarOb_DelTab
_TEXT	ENDS
EXTRN	?AfxGetDataManager2@@YAPAVIDataManager@@XZ:NEAR	; AfxGetDataManager2
EXTRN	??0CPoint@@QAE@XZ:NEAR				; CPoint::CPoint
EXTRN	?ClientToScreen@CWnd@@QBEXPAUtagPOINT@@@Z:NEAR	; CWnd::ClientToScreen
EXTRN	?ScreenToClient@CWnd@@QBEXPAUtagPOINT@@@Z:NEAR	; CWnd::ScreenToClient
EXTRN	?unSHOW_CLOSE_BUTTON@CBalloonHelp@@2IB:DWORD	; CBalloonHelp::unSHOW_CLOSE_BUTTON
EXTRN	?unDISABLE_XP_SHADOW@CBalloonHelp@@2IB:DWORD	; CBalloonHelp::unDISABLE_XP_SHADOW
EXTRN	?LaunchBalloon@CBalloonHelp@@SAXABV?$CStringT@DV?$StrTraitMFC_DLL@DV?$ChTraitsCRT@D@ATL@@@@@ATL@@0ABVCPoint@@PBDIPAVCWnd@@V23@I@Z:NEAR ; CBalloonHelp::LaunchBalloon
xdata$x	SEGMENT
$T191355 DD	0ffffffffH
	DD	FLAT:$L191345
	DD	00H
	DD	FLAT:$L191346
	DD	01H
	DD	FLAT:$L191347
$T191349 DD	019930520H
	DD	03H
	DD	FLAT:$T191355
	DD	2 DUP(00H)
	DD	2 DUP(00H)
; Function compile flags: /Odt /RTCsu
xdata$x	ENDS
_TEXT	SEGMENT
tv161 = -88						; size = 4
tv164 = -84						; size = 4
tv72 = -80						; size = 4
tv66 = -76						; size = 4
$T191344 = -72						; size = 4
$T191343 = -68						; size = 4
$T191342 = -64						; size = 4
_point$ = -56						; size = 8
_rcClose$ = -40						; size = 16
_iCur$ = -20						; size = 4
_this$ = -16						; size = 4
__$EHRec$ = -12						; size = 12
_iErrorCode$ = 8					; size = 4
?ITabBarOb_OpenTabError@CTabBarWnd@@UAEXH@Z PROC NEAR	; CTabBarWnd::ITabBarOb_OpenTabError
; _this$ = ecx

; 324  : {

  01760	55		 push	 ebp
  01761	8b ec		 mov	 ebp, esp
  01763	6a ff		 push	 -1
  01765	68 00 00 00 00	 push	 __ehhandler$?ITabBarOb_OpenTabError@CTabBarWnd@@UAEXH@Z
  0176a	64 a1 00 00 00
	00		 mov	 eax, DWORD PTR fs:__except_list
  01770	50		 push	 eax
  01771	64 89 25 00 00
	00 00		 mov	 DWORD PTR fs:__except_list, esp
  01778	83 ec 4c	 sub	 esp, 76			; 0000004cH
  0177b	56		 push	 esi
  0177c	57		 push	 edi
  0177d	51		 push	 ecx
  0177e	8d 7d a8	 lea	 edi, DWORD PTR [ebp-88]
  01781	b9 13 00 00 00	 mov	 ecx, 19			; 00000013H
  01786	b8 cc cc cc cc	 mov	 eax, -858993460		; ccccccccH
  0178b	f3 ab		 rep stosd
  0178d	59		 pop	 ecx
  0178e	89 4d f0	 mov	 DWORD PTR _this$[ebp], ecx

; 325  : 	//
; 326  : 	int iCur = GLOBAL_TABBARDATA->ITabBar_GetCurPos();

  01791	e8 00 00 00 00	 call	 ?AfxGetDataManager2@@YAPAVIDataManager@@XZ ; AfxGetDataManager2
  01796	89 45 b4	 mov	 DWORD PTR tv66[ebp], eax
  01799	8b f4		 mov	 esi, esp
  0179b	68 00 00 00 00	 push	 OFFSET FLAT:_ID_DATA_TABBAR
  017a0	8b 45 b4	 mov	 eax, DWORD PTR tv66[ebp]
  017a3	8b 10		 mov	 edx, DWORD PTR [eax]
  017a5	8b 4d b4	 mov	 ecx, DWORD PTR tv66[ebp]
  017a8	ff 52 0c	 call	 DWORD PTR [edx+12]
  017ab	3b f4		 cmp	 esi, esp
  017ad	e8 00 00 00 00	 call	 __RTC_CheckEsp
  017b2	89 45 b0	 mov	 DWORD PTR tv72[ebp], eax
  017b5	8b 45 b0	 mov	 eax, DWORD PTR tv72[ebp]
  017b8	8b 10		 mov	 edx, DWORD PTR [eax]
  017ba	8b f4		 mov	 esi, esp
  017bc	8b 4d b0	 mov	 ecx, DWORD PTR tv72[ebp]
  017bf	ff 52 14	 call	 DWORD PTR [edx+20]
  017c2	3b f4		 cmp	 esi, esp
  017c4	e8 00 00 00 00	 call	 __RTC_CheckEsp
  017c9	89 45 ec	 mov	 DWORD PTR _iCur$[ebp], eax

; 327  : 	if( iCur == 0 )

  017cc	83 7d ec 00	 cmp	 DWORD PTR _iCur$[ebp], 0
  017d0	75 07		 jne	 SHORT $L189605

; 328  : 	{
; 329  : 		iCur = 1;

  017d2	c7 45 ec 01 00
	00 00		 mov	 DWORD PTR _iCur$[ebp], 1
$L189605:

; 330  : 	}
; 331  : 	CRect rcClose = m_vecClose[iCur];

  017d9	8b 45 ec	 mov	 eax, DWORD PTR _iCur$[ebp]
  017dc	50		 push	 eax
  017dd	8b 4d f0	 mov	 ecx, DWORD PTR _this$[ebp]
  017e0	83 c1 28	 add	 ecx, 40			; 00000028H
  017e3	e8 00 00 00 00	 call	 ??A?$vector@VCRect@@V?$allocator@VCRect@@@std@@@std@@QAEAAVCRect@@I@Z ; std::vector<CRect,std::allocator<CRect> >::operator[]
  017e8	8b 08		 mov	 ecx, DWORD PTR [eax]
  017ea	89 4d d8	 mov	 DWORD PTR _rcClose$[ebp], ecx
  017ed	8b 50 04	 mov	 edx, DWORD PTR [eax+4]
  017f0	89 55 dc	 mov	 DWORD PTR _rcClose$[ebp+4], edx
  017f3	8b 48 08	 mov	 ecx, DWORD PTR [eax+8]
  017f6	89 4d e0	 mov	 DWORD PTR _rcClose$[ebp+8], ecx
  017f9	8b 50 0c	 mov	 edx, DWORD PTR [eax+12]
  017fc	89 55 e4	 mov	 DWORD PTR _rcClose$[ebp+12], edx

; 332  : 	CPoint point;

  017ff	8d 4d c8	 lea	 ecx, DWORD PTR _point$[ebp]
  01802	e8 00 00 00 00	 call	 ??0CPoint@@QAE@XZ	; CPoint::CPoint

; 333  : 	point.x = rcClose.right - (rcClose.Width()/2);

  01807	8d 4d d8	 lea	 ecx, DWORD PTR _rcClose$[ebp]
  0180a	e8 00 00 00 00	 call	 ?Width@CRect@@QBEHXZ	; CRect::Width
  0180f	99		 cdq
  01810	2b c2		 sub	 eax, edx
  01812	d1 f8		 sar	 eax, 1
  01814	8b 4d e0	 mov	 ecx, DWORD PTR _rcClose$[ebp+8]
  01817	2b c8		 sub	 ecx, eax
  01819	89 4d c8	 mov	 DWORD PTR _point$[ebp], ecx

; 334  : 	point.y = rcClose.bottom;

  0181c	8b 55 e4	 mov	 edx, DWORD PTR _rcClose$[ebp+12]
  0181f	89 55 cc	 mov	 DWORD PTR _point$[ebp+4], edx

; 335  : 	ClientToScreen( &point );

  01822	8d 45 c8	 lea	 eax, DWORD PTR _point$[ebp]
  01825	50		 push	 eax
  01826	8b 4d f0	 mov	 ecx, DWORD PTR _this$[ebp]
  01829	83 e9 58	 sub	 ecx, 88			; 00000058H
  0182c	e8 00 00 00 00	 call	 ?ClientToScreen@CWnd@@QBEXPAUtagPOINT@@@Z ; CWnd::ClientToScreen

; 336  : 	AfxGetMainWindow()->ScreenToClient(&point);

  01831	8d 4d c8	 lea	 ecx, DWORD PTR _point$[ebp]
  01834	51		 push	 ecx
  01835	e8 00 00 00 00	 call	 ?AfxGetMainWindow@@YAPAVCWnd@@XZ ; AfxGetMainWindow
  0183a	8b c8		 mov	 ecx, eax
  0183c	e8 00 00 00 00	 call	 ?ScreenToClient@CWnd@@QBEXPAUtagPOINT@@@Z ; CWnd::ScreenToClient

; 337  : 	CBalloonHelp::LaunchBalloon( "","",
; 338  : 		point,IDI_INFORMATION,CBalloonHelp::unSHOW_CLOSE_BUTTON|CBalloonHelp::unDISABLE_XP_SHADOW,
; 339  : 		AfxGetMainWindow(),"",5000);

  01841	8b f4		 mov	 esi, esp
  01843	68 00 00 00 00	 push	 OFFSET FLAT:$SG189615
  01848	8d 4d bc	 lea	 ecx, DWORD PTR $T191343[ebp]
  0184b	ff 15 00 00 00
	00		 call	 DWORD PTR __imp_??0?$CStringT@DV?$StrTraitMFC_DLL@DV?$ChTraitsCRT@D@ATL@@@@@ATL@@QAE@PBD@Z
  01851	3b f4		 cmp	 esi, esp
  01853	e8 00 00 00 00	 call	 __RTC_CheckEsp
  01858	c7 45 fc 00 00
	00 00		 mov	 DWORD PTR __$EHRec$[ebp+8], 0
  0185f	8b f4		 mov	 esi, esp
  01861	68 00 00 00 00	 push	 OFFSET FLAT:$SG189616
  01866	8d 4d b8	 lea	 ecx, DWORD PTR $T191344[ebp]
  01869	ff 15 00 00 00
	00		 call	 DWORD PTR __imp_??0?$CStringT@DV?$StrTraitMFC_DLL@DV?$ChTraitsCRT@D@ATL@@@@@ATL@@QAE@PBD@Z
  0186f	3b f4		 cmp	 esi, esp
  01871	e8 00 00 00 00	 call	 __RTC_CheckEsp
  01876	c6 45 fc 01	 mov	 BYTE PTR __$EHRec$[ebp+8], 1
  0187a	68 88 13 00 00	 push	 5000			; 00001388H
  0187f	51		 push	 ecx
  01880	8b cc		 mov	 ecx, esp
  01882	89 65 c0	 mov	 DWORD PTR $T191342[ebp], esp
  01885	8b f4		 mov	 esi, esp
  01887	68 00 00 00 00	 push	 OFFSET FLAT:$SG189614
  0188c	ff 15 00 00 00
	00		 call	 DWORD PTR __imp_??0?$CStringT@DV?$StrTraitMFC_DLL@DV?$ChTraitsCRT@D@ATL@@@@@ATL@@QAE@PBD@Z
  01892	3b f4		 cmp	 esi, esp
  01894	e8 00 00 00 00	 call	 __RTC_CheckEsp
  01899	89 45 ac	 mov	 DWORD PTR tv164[ebp], eax
  0189c	8b 55 ac	 mov	 edx, DWORD PTR tv164[ebp]
  0189f	89 55 a8	 mov	 DWORD PTR tv161[ebp], edx
  018a2	c6 45 fc 02	 mov	 BYTE PTR __$EHRec$[ebp+8], 2
  018a6	e8 00 00 00 00	 call	 ?AfxGetMainWindow@@YAPAVCWnd@@XZ ; AfxGetMainWindow
  018ab	50		 push	 eax
  018ac	a1 00 00 00 00	 mov	 eax, DWORD PTR ?unSHOW_CLOSE_BUTTON@CBalloonHelp@@2IB ; CBalloonHelp::unSHOW_CLOSE_BUTTON
  018b1	0b 05 00 00 00
	00		 or	 eax, DWORD PTR ?unDISABLE_XP_SHADOW@CBalloonHelp@@2IB ; CBalloonHelp::unDISABLE_XP_SHADOW
  018b7	50		 push	 eax
  018b8	68 04 7f 00 00	 push	 32516			; 00007f04H
  018bd	8d 4d c8	 lea	 ecx, DWORD PTR _point$[ebp]
  018c0	51		 push	 ecx
  018c1	8d 55 bc	 lea	 edx, DWORD PTR $T191343[ebp]
  018c4	52		 push	 edx
  018c5	8d 45 b8	 lea	 eax, DWORD PTR $T191344[ebp]
  018c8	50		 push	 eax
  018c9	c6 45 fc 01	 mov	 BYTE PTR __$EHRec$[ebp+8], 1
  018cd	e8 00 00 00 00	 call	 ?LaunchBalloon@CBalloonHelp@@SAXABV?$CStringT@DV?$StrTraitMFC_DLL@DV?$ChTraitsCRT@D@ATL@@@@@ATL@@0ABVCPoint@@PBDIPAVCWnd@@V23@I@Z ; CBalloonHelp::LaunchBalloon
  018d2	83 c4 20	 add	 esp, 32			; 00000020H
  018d5	c6 45 fc 00	 mov	 BYTE PTR __$EHRec$[ebp+8], 0
  018d9	8b f4		 mov	 esi, esp
  018db	8d 4d b8	 lea	 ecx, DWORD PTR $T191344[ebp]
  018de	ff 15 00 00 00
	00		 call	 DWORD PTR __imp_??1?$CStringT@DV?$StrTraitMFC_DLL@DV?$ChTraitsCRT@D@ATL@@@@@ATL@@QAE@XZ
  018e4	3b f4		 cmp	 esi, esp
  018e6	e8 00 00 00 00	 call	 __RTC_CheckEsp
  018eb	c7 45 fc ff ff
	ff ff		 mov	 DWORD PTR __$EHRec$[ebp+8], -1
  018f2	8b f4		 mov	 esi, esp
  018f4	8d 4d bc	 lea	 ecx, DWORD PTR $T191343[ebp]
  018f7	ff 15 00 00 00
	00		 call	 DWORD PTR __imp_??1?$CStringT@DV?$StrTraitMFC_DLL@DV?$ChTraitsCRT@D@ATL@@@@@ATL@@QAE@XZ
  018fd	3b f4		 cmp	 esi, esp
  018ff	e8 00 00 00 00	 call	 __RTC_CheckEsp

; 340  : }

  01904	52		 push	 edx
  01905	8b cd		 mov	 ecx, ebp
  01907	50		 push	 eax
  01908	8d 15 00 00 00
	00		 lea	 edx, DWORD PTR $L191354
  0190e	e8 00 00 00 00	 call	 @_RTC_CheckStackVars@8
  01913	58		 pop	 eax
  01914	5a		 pop	 edx
  01915	8b 4d f4	 mov	 ecx, DWORD PTR __$EHRec$[ebp]
  01918	64 89 0d 00 00
	00 00		 mov	 DWORD PTR fs:__except_list, ecx
  0191f	5f		 pop	 edi
  01920	5e		 pop	 esi
  01921	83 c4 58	 add	 esp, 88			; 00000058H
  01924	3b ec		 cmp	 ebp, esp
  01926	e8 00 00 00 00	 call	 __RTC_CheckEsp
  0192b	8b e5		 mov	 esp, ebp
  0192d	5d		 pop	 ebp
  0192e	c2 04 00	 ret	 4
$L191354:
  01931	02 00 00 00	 DD	 2
  01935	00 00 00 00	 DD	 $L191353
$L191353:
  01939	d8 ff ff ff	 DD	 -40			; ffffffd8H
  0193d	10 00 00 00	 DD	 16			; 00000010H
  01941	00 00 00 00	 DD	 $L191350
  01945	c8 ff ff ff	 DD	 -56			; ffffffc8H
  01949	08 00 00 00	 DD	 8
  0194d	00 00 00 00	 DD	 $L191351
$L191351:
  01951	70		 DB	 112			; 00000070H
  01952	6f		 DB	 111			; 0000006fH
  01953	69		 DB	 105			; 00000069H
  01954	6e		 DB	 110			; 0000006eH
  01955	74		 DB	 116			; 00000074H
  01956	00		 DB	 0
$L191350:
  01957	72		 DB	 114			; 00000072H
  01958	63		 DB	 99			; 00000063H
  01959	43		 DB	 67			; 00000043H
  0195a	6c		 DB	 108			; 0000006cH
  0195b	6f		 DB	 111			; 0000006fH
  0195c	73		 DB	 115			; 00000073H
  0195d	65		 DB	 101			; 00000065H
  0195e	00		 DB	 0
_TEXT	ENDS
text$x	SEGMENT
$L191345:
  001b3	8b f4		 mov	 esi, esp
  001b5	8d 4d bc	 lea	 ecx, DWORD PTR $T191343[ebp]
  001b8	ff 15 00 00 00
	00		 call	 DWORD PTR __imp_??1?$CStringT@DV?$StrTraitMFC_DLL@DV?$ChTraitsCRT@D@ATL@@@@@ATL@@QAE@XZ
  001be	3b f4		 cmp	 esi, esp
  001c0	e9 00 00 00 00	 jmp	 __RTC_CheckEsp
$L191346:
  001c5	8b f4		 mov	 esi, esp
  001c7	8d 4d b8	 lea	 ecx, DWORD PTR $T191344[ebp]
  001ca	ff 15 00 00 00
	00		 call	 DWORD PTR __imp_??1?$CStringT@DV?$StrTraitMFC_DLL@DV?$ChTraitsCRT@D@ATL@@@@@ATL@@QAE@XZ
  001d0	3b f4		 cmp	 esi, esp
  001d2	e9 00 00 00 00	 jmp	 __RTC_CheckEsp
$L191347:
  001d7	8b f4		 mov	 esi, esp
  001d9	8b 4d c0	 mov	 ecx, DWORD PTR $T191342[ebp]
  001dc	ff 15 00 00 00
	00		 call	 DWORD PTR __imp_??1?$CStringT@DV?$StrTraitMFC_DLL@DV?$ChTraitsCRT@D@ATL@@@@@ATL@@QAE@XZ
  001e2	3b f4		 cmp	 esi, esp
  001e4	e9 00 00 00 00	 jmp	 __RTC_CheckEsp
__ehhandler$?ITabBarOb_OpenTabError@CTabBarWnd@@UAEXH@Z:
  001e9	b8 00 00 00 00	 mov	 eax, OFFSET FLAT:$T191349
  001ee	e9 00 00 00 00	 jmp	 ___CxxFrameHandler
text$x	ENDS
?ITabBarOb_OpenTabError@CTabBarWnd@@UAEXH@Z ENDP	; CTabBarWnd::ITabBarOb_OpenTabError
PUBLIC	?size@?$vector@UTAB_ITEM@@V?$allocator@UTAB_ITEM@@@std@@@std@@QBEIXZ ; std::vector<TAB_ITEM,std::allocator<TAB_ITEM> >::size
PUBLIC	?clear@?$vector@UTAB_ITEM@@V?$allocator@UTAB_ITEM@@@std@@@std@@QAEXXZ ; std::vector<TAB_ITEM,std::allocator<TAB_ITEM> >::clear
PUBLIC	?push_back@?$vector@VCRect@@V?$allocator@VCRect@@@std@@@std@@QAEXABVCRect@@@Z ; std::vector<CRect,std::allocator<CRect> >::push_back
PUBLIC	?clear@?$vector@VCRect@@V?$allocator@VCRect@@@std@@@std@@QAEXXZ ; std::vector<CRect,std::allocator<CRect> >::clear
EXTRN	?SetRectEmpty@CRect@@QAEXXZ:NEAR		; CRect::SetRectEmpty
EXTRN	?GetHeight@CDibBitmap@@QAEHXZ:NEAR		; CDibBitmap::GetHeight
; Function compile flags: /Odt /RTCsu
_TEXT	SEGMENT
tv93 = -108						; size = 4
tv87 = -104						; size = 4
tv73 = -100						; size = 4
tv67 = -96						; size = 4
_i$189632 = -92						; size = 4
_iNewWindowStartPos$ = -88				; size = 4
_iStartPos$ = -84					; size = 4
_rcClose$ = -76						; size = 16
_rcBtn$ = -52						; size = 16
_iWidth$ = -32						; size = 4
_rc$ = -24						; size = 16
_this$ = -4						; size = 4
?CalcTabPosition@CTabBarWnd@@AAEXXZ PROC NEAR		; CTabBarWnd::CalcTabPosition
; _this$ = ecx

; 343  : {

  01960	55		 push	 ebp
  01961	8b ec		 mov	 ebp, esp
  01963	83 ec 6c	 sub	 esp, 108		; 0000006cH
  01966	56		 push	 esi
  01967	57		 push	 edi
  01968	51		 push	 ecx
  01969	8d 7d 94	 lea	 edi, DWORD PTR [ebp-108]
  0196c	b9 1b 00 00 00	 mov	 ecx, 27			; 0000001bH
  01971	b8 cc cc cc cc	 mov	 eax, -858993460		; ccccccccH
  01976	f3 ab		 rep stosd
  01978	59		 pop	 ecx
  01979	89 4d fc	 mov	 DWORD PTR _this$[ebp], ecx

; 344  : 	m_iTabCur = GLOBAL_TABBARDATA->ITabBar_GetCurPos();

  0197c	e8 00 00 00 00	 call	 ?AfxGetDataManager2@@YAPAVIDataManager@@XZ ; AfxGetDataManager2
  01981	89 45 a0	 mov	 DWORD PTR tv67[ebp], eax
  01984	8b f4		 mov	 esi, esp
  01986	68 00 00 00 00	 push	 OFFSET FLAT:_ID_DATA_TABBAR
  0198b	8b 45 a0	 mov	 eax, DWORD PTR tv67[ebp]
  0198e	8b 10		 mov	 edx, DWORD PTR [eax]
  01990	8b 4d a0	 mov	 ecx, DWORD PTR tv67[ebp]
  01993	ff 52 0c	 call	 DWORD PTR [edx+12]
  01996	3b f4		 cmp	 esi, esp
  01998	e8 00 00 00 00	 call	 __RTC_CheckEsp
  0199d	89 45 9c	 mov	 DWORD PTR tv73[ebp], eax
  019a0	8b 45 9c	 mov	 eax, DWORD PTR tv73[ebp]
  019a3	8b 10		 mov	 edx, DWORD PTR [eax]
  019a5	8b f4		 mov	 esi, esp
  019a7	8b 4d 9c	 mov	 ecx, DWORD PTR tv73[ebp]
  019aa	ff 52 14	 call	 DWORD PTR [edx+20]
  019ad	3b f4		 cmp	 esi, esp
  019af	e8 00 00 00 00	 call	 __RTC_CheckEsp
  019b4	8b 4d fc	 mov	 ecx, DWORD PTR _this$[ebp]
  019b7	89 81 b4 00 00
	00		 mov	 DWORD PTR [ecx+180], eax

; 345  : 
; 346  : 	m_vecTab.clear();

  019bd	8b 4d fc	 mov	 ecx, DWORD PTR _this$[ebp]
  019c0	83 c1 70	 add	 ecx, 112		; 00000070H
  019c3	e8 00 00 00 00	 call	 ?clear@?$vector@VCRect@@V?$allocator@VCRect@@@std@@@std@@QAEXXZ ; std::vector<CRect,std::allocator<CRect> >::clear

; 347  : 	m_vecClose.clear();

  019c8	8b 4d fc	 mov	 ecx, DWORD PTR _this$[ebp]
  019cb	81 c1 80 00 00
	00		 add	 ecx, 128		; 00000080H
  019d1	e8 00 00 00 00	 call	 ?clear@?$vector@VCRect@@V?$allocator@VCRect@@@std@@@std@@QAEXXZ ; std::vector<CRect,std::allocator<CRect> >::clear

; 348  : 	m_vecTi.clear();

  019d6	8b 4d fc	 mov	 ecx, DWORD PTR _this$[ebp]
  019d9	81 c1 90 00 00
	00		 add	 ecx, 144		; 00000090H
  019df	e8 00 00 00 00	 call	 ?clear@?$vector@UTAB_ITEM@@V?$allocator@UTAB_ITEM@@@std@@@std@@QAEXXZ ; std::vector<TAB_ITEM,std::allocator<TAB_ITEM> >::clear

; 349  : 	m_rectNewWindow.SetRectEmpty();

  019e4	8b 4d fc	 mov	 ecx, DWORD PTR _this$[ebp]
  019e7	81 c1 a0 00 00
	00		 add	 ecx, 160		; 000000a0H
  019ed	e8 00 00 00 00	 call	 ?SetRectEmpty@CRect@@QAEXXZ ; CRect::SetRectEmpty

; 350  : 	GLOBAL_TABBARDATA->ITabBar_GetTabBarData( m_vecTi );

  019f2	e8 00 00 00 00	 call	 ?AfxGetDataManager2@@YAPAVIDataManager@@XZ ; AfxGetDataManager2
  019f7	89 45 98	 mov	 DWORD PTR tv87[ebp], eax
  019fa	8b f4		 mov	 esi, esp
  019fc	68 00 00 00 00	 push	 OFFSET FLAT:_ID_DATA_TABBAR
  01a01	8b 55 98	 mov	 edx, DWORD PTR tv87[ebp]
  01a04	8b 02		 mov	 eax, DWORD PTR [edx]
  01a06	8b 4d 98	 mov	 ecx, DWORD PTR tv87[ebp]
  01a09	ff 50 0c	 call	 DWORD PTR [eax+12]
  01a0c	3b f4		 cmp	 esi, esp
  01a0e	e8 00 00 00 00	 call	 __RTC_CheckEsp
  01a13	89 45 94	 mov	 DWORD PTR tv93[ebp], eax
  01a16	8b 4d fc	 mov	 ecx, DWORD PTR _this$[ebp]
  01a19	81 c1 90 00 00
	00		 add	 ecx, 144		; 00000090H
  01a1f	8b f4		 mov	 esi, esp
  01a21	51		 push	 ecx
  01a22	8b 55 94	 mov	 edx, DWORD PTR tv93[ebp]
  01a25	8b 02		 mov	 eax, DWORD PTR [edx]
  01a27	8b 4d 94	 mov	 ecx, DWORD PTR tv93[ebp]
  01a2a	ff 50 1c	 call	 DWORD PTR [eax+28]
  01a2d	3b f4		 cmp	 esi, esp
  01a2f	e8 00 00 00 00	 call	 __RTC_CheckEsp

; 351  : 
; 352  : 	CRect rc;

  01a34	8d 4d e8	 lea	 ecx, DWORD PTR _rc$[ebp]
  01a37	e8 00 00 00 00	 call	 ??0CRect@@QAE@XZ	; CRect::CRect

; 353  : 	GetClientRect( &rc );

  01a3c	8d 4d e8	 lea	 ecx, DWORD PTR _rc$[ebp]
  01a3f	51		 push	 ecx
  01a40	8b 4d fc	 mov	 ecx, DWORD PTR _this$[ebp]
  01a43	e8 00 00 00 00	 call	 ?GetClientRect@CWnd@@QBEXPAUtagRECT@@@Z ; CWnd::GetClientRect

; 354  : 	if( rc.Width() == 0 || rc.Height() == 0 || m_vecTi.size() == 0 )

  01a48	8d 4d e8	 lea	 ecx, DWORD PTR _rc$[ebp]
  01a4b	e8 00 00 00 00	 call	 ?Width@CRect@@QBEHXZ	; CRect::Width
  01a50	85 c0		 test	 eax, eax
  01a52	74 1e		 je	 SHORT $L189624
  01a54	8d 4d e8	 lea	 ecx, DWORD PTR _rc$[ebp]
  01a57	e8 00 00 00 00	 call	 ?Height@CRect@@QBEHXZ	; CRect::Height
  01a5c	85 c0		 test	 eax, eax
  01a5e	74 12		 je	 SHORT $L189624
  01a60	8b 4d fc	 mov	 ecx, DWORD PTR _this$[ebp]
  01a63	81 c1 90 00 00
	00		 add	 ecx, 144		; 00000090H
  01a69	e8 00 00 00 00	 call	 ?size@?$vector@UTAB_ITEM@@V?$allocator@UTAB_ITEM@@@std@@@std@@QBEIXZ ; std::vector<TAB_ITEM,std::allocator<TAB_ITEM> >::size
  01a6e	85 c0		 test	 eax, eax
  01a70	75 05		 jne	 SHORT $L189623
$L189624:

; 355  : 		return;

  01a72	e9 d5 01 00 00	 jmp	 $L189619
$L189623:

; 356  : 
; 357  : 	//rc
; 358  : 	rc.left += 5;

  01a77	8b 55 e8	 mov	 edx, DWORD PTR _rc$[ebp]
  01a7a	83 c2 05	 add	 edx, 5
  01a7d	89 55 e8	 mov	 DWORD PTR _rc$[ebp], edx

; 359  : 	rc.right -= 5;

  01a80	8b 45 f0	 mov	 eax, DWORD PTR _rc$[ebp+8]
  01a83	83 e8 05	 sub	 eax, 5
  01a86	89 45 f0	 mov	 DWORD PTR _rc$[ebp+8], eax

; 360  : 	
; 361  : 	//iWidth	btn
; 362  : 	int iWidth = (int)(rc.Width() / m_vecTi.size());

  01a89	8d 4d e8	 lea	 ecx, DWORD PTR _rc$[ebp]
  01a8c	e8 00 00 00 00	 call	 ?Width@CRect@@QBEHXZ	; CRect::Width
  01a91	8b f0		 mov	 esi, eax
  01a93	8b 4d fc	 mov	 ecx, DWORD PTR _this$[ebp]
  01a96	81 c1 90 00 00
	00		 add	 ecx, 144		; 00000090H
  01a9c	e8 00 00 00 00	 call	 ?size@?$vector@UTAB_ITEM@@V?$allocator@UTAB_ITEM@@@std@@@std@@QBEIXZ ; std::vector<TAB_ITEM,std::allocator<TAB_ITEM> >::size
  01aa1	8b c8		 mov	 ecx, eax
  01aa3	8b c6		 mov	 eax, esi
  01aa5	33 d2		 xor	 edx, edx
  01aa7	f7 f1		 div	 ecx
  01aa9	89 45 e0	 mov	 DWORD PTR _iWidth$[ebp], eax

; 363  : 	if( iWidth > ONE_TAB_MAX_WIDTH )

  01aac	81 7d e0 96 00
	00 00		 cmp	 DWORD PTR _iWidth$[ebp], 150 ; 00000096H
  01ab3	7e 07		 jle	 SHORT $L189627

; 364  : 	{
; 365  : 		iWidth = ONE_TAB_MAX_WIDTH;

  01ab5	c7 45 e0 96 00
	00 00		 mov	 DWORD PTR _iWidth$[ebp], 150 ; 00000096H
$L189627:

; 366  : 	}
; 367  : 
; 368  : 	CRect rcBtn( rc );

  01abc	8b 55 e8	 mov	 edx, DWORD PTR _rc$[ebp]
  01abf	89 55 cc	 mov	 DWORD PTR _rcBtn$[ebp], edx
  01ac2	8b 45 ec	 mov	 eax, DWORD PTR _rc$[ebp+4]
  01ac5	89 45 d0	 mov	 DWORD PTR _rcBtn$[ebp+4], eax
  01ac8	8b 4d f0	 mov	 ecx, DWORD PTR _rc$[ebp+8]
  01acb	89 4d d4	 mov	 DWORD PTR _rcBtn$[ebp+8], ecx
  01ace	8b 55 f4	 mov	 edx, DWORD PTR _rc$[ebp+12]
  01ad1	89 55 d8	 mov	 DWORD PTR _rcBtn$[ebp+12], edx

; 369  : 	CRect rcClose;

  01ad4	8d 4d b4	 lea	 ecx, DWORD PTR _rcClose$[ebp]
  01ad7	e8 00 00 00 00	 call	 ??0CRect@@QAE@XZ	; CRect::CRect

; 370  : 	int iStartPos = 5; //5

  01adc	c7 45 ac 05 00
	00 00		 mov	 DWORD PTR _iStartPos$[ebp], 5

; 371  : 	int iNewWindowStartPos = iStartPos;

  01ae3	8b 45 ac	 mov	 eax, DWORD PTR _iStartPos$[ebp]
  01ae6	89 45 a8	 mov	 DWORD PTR _iNewWindowStartPos$[ebp], eax

; 372  : 	//btnbtn
; 373  : 	for( int i = 0; i < m_vecTi.size(); i++ )

  01ae9	c7 45 a4 00 00
	00 00		 mov	 DWORD PTR _i$189632[ebp], 0
  01af0	eb 09		 jmp	 SHORT $L189633
$L189634:
  01af2	8b 4d a4	 mov	 ecx, DWORD PTR _i$189632[ebp]
  01af5	83 c1 01	 add	 ecx, 1
  01af8	89 4d a4	 mov	 DWORD PTR _i$189632[ebp], ecx
$L189633:
  01afb	8b 4d fc	 mov	 ecx, DWORD PTR _this$[ebp]
  01afe	81 c1 90 00 00
	00		 add	 ecx, 144		; 00000090H
  01b04	e8 00 00 00 00	 call	 ?size@?$vector@UTAB_ITEM@@V?$allocator@UTAB_ITEM@@@std@@@std@@QBEIXZ ; std::vector<TAB_ITEM,std::allocator<TAB_ITEM> >::size
  01b09	39 45 a4	 cmp	 DWORD PTR _i$189632[ebp], eax
  01b0c	0f 83 e0 00 00
	00		 jae	 $L189635

; 374  : 	{
; 375  : 		rcBtn.left = i * iWidth + iStartPos;

  01b12	8b 55 a4	 mov	 edx, DWORD PTR _i$189632[ebp]
  01b15	0f af 55 e0	 imul	 edx, DWORD PTR _iWidth$[ebp]
  01b19	03 55 ac	 add	 edx, DWORD PTR _iStartPos$[ebp]
  01b1c	89 55 cc	 mov	 DWORD PTR _rcBtn$[ebp], edx

; 376  : 		rcBtn.right = rcBtn.left + iWidth;

  01b1f	8b 45 cc	 mov	 eax, DWORD PTR _rcBtn$[ebp]
  01b22	03 45 e0	 add	 eax, DWORD PTR _iWidth$[ebp]
  01b25	89 45 d4	 mov	 DWORD PTR _rcBtn$[ebp+8], eax

; 377  : 		iNewWindowStartPos = rcBtn.right;

  01b28	8b 4d d4	 mov	 ecx, DWORD PTR _rcBtn$[ebp+8]
  01b2b	89 4d a8	 mov	 DWORD PTR _iNewWindowStartPos$[ebp], ecx

; 378  : 		if( i == m_iTabCur )

  01b2e	8b 55 fc	 mov	 edx, DWORD PTR _this$[ebp]
  01b31	8b 45 a4	 mov	 eax, DWORD PTR _i$189632[ebp]
  01b34	3b 82 b4 00 00
	00		 cmp	 eax, DWORD PTR [edx+180]
  01b3a	75 18		 jne	 SHORT $L189636

; 379  : 		{
; 380  : 			rcBtn.top = rcBtn.bottom - m_pBmpRectDownMiddle->GetHeight();

  01b3c	8b 4d fc	 mov	 ecx, DWORD PTR _this$[ebp]
  01b3f	8b 89 e8 00 00
	00		 mov	 ecx, DWORD PTR [ecx+232]
  01b45	e8 00 00 00 00	 call	 ?GetHeight@CDibBitmap@@QAEHXZ ; CDibBitmap::GetHeight
  01b4a	8b 55 d8	 mov	 edx, DWORD PTR _rcBtn$[ebp+12]
  01b4d	2b d0		 sub	 edx, eax
  01b4f	89 55 d0	 mov	 DWORD PTR _rcBtn$[ebp+4], edx

; 381  : 		}else

  01b52	eb 16		 jmp	 SHORT $L189637
$L189636:

; 382  : 		{
; 383  : 			rcBtn.top = rcBtn.bottom - m_pBmpRectNormalMiddle->GetHeight();

  01b54	8b 45 fc	 mov	 eax, DWORD PTR _this$[ebp]
  01b57	8b 88 d0 00 00
	00		 mov	 ecx, DWORD PTR [eax+208]
  01b5d	e8 00 00 00 00	 call	 ?GetHeight@CDibBitmap@@QAEHXZ ; CDibBitmap::GetHeight
  01b62	8b 4d d8	 mov	 ecx, DWORD PTR _rcBtn$[ebp+12]
  01b65	2b c8		 sub	 ecx, eax
  01b67	89 4d d0	 mov	 DWORD PTR _rcBtn$[ebp+4], ecx
$L189637:

; 384  : 		}
; 385  : 		
; 386  : 		m_vecTab.push_back( rcBtn );

  01b6a	8d 55 cc	 lea	 edx, DWORD PTR _rcBtn$[ebp]
  01b6d	52		 push	 edx
  01b6e	8b 4d fc	 mov	 ecx, DWORD PTR _this$[ebp]
  01b71	83 c1 70	 add	 ecx, 112		; 00000070H
  01b74	e8 00 00 00 00	 call	 ?push_back@?$vector@VCRect@@V?$allocator@VCRect@@@std@@@std@@QAEXABVCRect@@@Z ; std::vector<CRect,std::allocator<CRect> >::push_back

; 387  : 	
; 388  : 		//if( i == 0 || i == 1 || i == 2 ) //3
; 389  : 		if( i == 0 )

  01b79	83 7d a4 00	 cmp	 DWORD PTR _i$189632[ebp], 0
  01b7d	75 20		 jne	 SHORT $L189638

; 390  : 		{
; 391  : 			rcClose.right = rcBtn.right - WIDTH_CLOSE_TO_RIGHT;

  01b7f	8b 45 d4	 mov	 eax, DWORD PTR _rcBtn$[ebp+8]
  01b82	83 e8 04	 sub	 eax, 4
  01b85	89 45 bc	 mov	 DWORD PTR _rcClose$[ebp+8], eax

; 392  : 			rcClose.left  = rcClose.right;	

  01b88	8b 4d bc	 mov	 ecx, DWORD PTR _rcClose$[ebp+8]
  01b8b	89 4d b4	 mov	 DWORD PTR _rcClose$[ebp], ecx

; 393  : 			rcClose.top   = rcBtn.top + HEITH_CLOSE_TO_TOP;			

  01b8e	8b 55 d0	 mov	 edx, DWORD PTR _rcBtn$[ebp+4]
  01b91	83 c2 06	 add	 edx, 6
  01b94	89 55 b8	 mov	 DWORD PTR _rcClose$[ebp+4], edx

; 394  : 			rcClose.bottom = rcClose.top;

  01b97	8b 45 b8	 mov	 eax, DWORD PTR _rcClose$[ebp+4]
  01b9a	89 45 c0	 mov	 DWORD PTR _rcClose$[ebp+12], eax

; 395  : 		}else

  01b9d	eb 3c		 jmp	 SHORT $L189639
$L189638:

; 396  : 		{
; 397  : 			rcClose.right = rcBtn.right - WIDTH_CLOSE_TO_RIGHT;

  01b9f	8b 4d d4	 mov	 ecx, DWORD PTR _rcBtn$[ebp+8]
  01ba2	83 e9 04	 sub	 ecx, 4
  01ba5	89 4d bc	 mov	 DWORD PTR _rcClose$[ebp+8], ecx

; 398  : 			rcClose.left  = rcClose.right - m_pBmpCloseNormal->GetWidth();	

  01ba8	8b 55 fc	 mov	 edx, DWORD PTR _this$[ebp]
  01bab	8b 8a f0 00 00
	00		 mov	 ecx, DWORD PTR [edx+240]
  01bb1	e8 00 00 00 00	 call	 ?GetWidth@CDibBitmap@@QAEHXZ ; CDibBitmap::GetWidth
  01bb6	8b 4d bc	 mov	 ecx, DWORD PTR _rcClose$[ebp+8]
  01bb9	2b c8		 sub	 ecx, eax
  01bbb	89 4d b4	 mov	 DWORD PTR _rcClose$[ebp], ecx

; 399  : 			rcClose.top   = rcBtn.top + HEITH_CLOSE_TO_TOP;			

  01bbe	8b 55 d0	 mov	 edx, DWORD PTR _rcBtn$[ebp+4]
  01bc1	83 c2 06	 add	 edx, 6
  01bc4	89 55 b8	 mov	 DWORD PTR _rcClose$[ebp+4], edx

; 400  : 			rcClose.bottom = rcClose.top + m_pBmpCloseNormal->GetHeight();

  01bc7	8b 45 fc	 mov	 eax, DWORD PTR _this$[ebp]
  01bca	8b 88 f0 00 00
	00		 mov	 ecx, DWORD PTR [eax+240]
  01bd0	e8 00 00 00 00	 call	 ?GetHeight@CDibBitmap@@QAEHXZ ; CDibBitmap::GetHeight
  01bd5	03 45 b8	 add	 eax, DWORD PTR _rcClose$[ebp+4]
  01bd8	89 45 c0	 mov	 DWORD PTR _rcClose$[ebp+12], eax
$L189639:

; 401  : 		}
; 402  : 		m_vecClose.push_back( rcClose );

  01bdb	8d 4d b4	 lea	 ecx, DWORD PTR _rcClose$[ebp]
  01bde	51		 push	 ecx
  01bdf	8b 4d fc	 mov	 ecx, DWORD PTR _this$[ebp]
  01be2	81 c1 80 00 00
	00		 add	 ecx, 128		; 00000080H
  01be8	e8 00 00 00 00	 call	 ?push_back@?$vector@VCRect@@V?$allocator@VCRect@@@std@@@std@@QAEXABVCRect@@@Z ; std::vector<CRect,std::allocator<CRect> >::push_back

; 403  : 	}

  01bed	e9 00 ff ff ff	 jmp	 $L189634
$L189635:

; 404  : 	m_rectNewWindow.left = iNewWindowStartPos;

  01bf2	8b 55 fc	 mov	 edx, DWORD PTR _this$[ebp]
  01bf5	8b 45 a8	 mov	 eax, DWORD PTR _iNewWindowStartPos$[ebp]
  01bf8	89 82 a0 00 00
	00		 mov	 DWORD PTR [edx+160], eax

; 405  : 	m_rectNewWindow.right = m_rectNewWindow.left + m_pBmpNewWindowNormal->GetWidth();

  01bfe	8b 4d fc	 mov	 ecx, DWORD PTR _this$[ebp]
  01c01	8b 89 08 01 00
	00		 mov	 ecx, DWORD PTR [ecx+264]
  01c07	e8 00 00 00 00	 call	 ?GetWidth@CDibBitmap@@QAEHXZ ; CDibBitmap::GetWidth
  01c0c	8b 55 fc	 mov	 edx, DWORD PTR _this$[ebp]
  01c0f	03 82 a0 00 00
	00		 add	 eax, DWORD PTR [edx+160]
  01c15	8b 4d fc	 mov	 ecx, DWORD PTR _this$[ebp]
  01c18	89 81 a8 00 00
	00		 mov	 DWORD PTR [ecx+168], eax

; 406  : 	m_rectNewWindow.bottom = rcBtn.bottom;

  01c1e	8b 55 fc	 mov	 edx, DWORD PTR _this$[ebp]
  01c21	8b 45 d8	 mov	 eax, DWORD PTR _rcBtn$[ebp+12]
  01c24	89 82 ac 00 00
	00		 mov	 DWORD PTR [edx+172], eax

; 407  : 	m_rectNewWindow.top = m_rectNewWindow.bottom - m_pBmpNewWindowNormal->GetHeight();

  01c2a	8b 4d fc	 mov	 ecx, DWORD PTR _this$[ebp]
  01c2d	8b 89 08 01 00
	00		 mov	 ecx, DWORD PTR [ecx+264]
  01c33	e8 00 00 00 00	 call	 ?GetHeight@CDibBitmap@@QAEHXZ ; CDibBitmap::GetHeight
  01c38	8b 55 fc	 mov	 edx, DWORD PTR _this$[ebp]
  01c3b	8b 8a ac 00 00
	00		 mov	 ecx, DWORD PTR [edx+172]
  01c41	2b c8		 sub	 ecx, eax
  01c43	8b 55 fc	 mov	 edx, DWORD PTR _this$[ebp]
  01c46	89 8a a4 00 00
	00		 mov	 DWORD PTR [edx+164], ecx
$L189619:

; 408  : }

  01c4c	52		 push	 edx
  01c4d	8b cd		 mov	 ecx, ebp
  01c4f	50		 push	 eax
  01c50	8d 15 00 00 00
	00		 lea	 edx, DWORD PTR $L191361
  01c56	e8 00 00 00 00	 call	 @_RTC_CheckStackVars@8
  01c5b	58		 pop	 eax
  01c5c	5a		 pop	 edx
  01c5d	5f		 pop	 edi
  01c5e	5e		 pop	 esi
  01c5f	83 c4 6c	 add	 esp, 108		; 0000006cH
  01c62	3b ec		 cmp	 ebp, esp
  01c64	e8 00 00 00 00	 call	 __RTC_CheckEsp
  01c69	8b e5		 mov	 esp, ebp
  01c6b	5d		 pop	 ebp
  01c6c	c3		 ret	 0
$L191361:
  01c6d	03 00 00 00	 DD	 3
  01c71	00 00 00 00	 DD	 $L191360
$L191360:
  01c75	e8 ff ff ff	 DD	 -24			; ffffffe8H
  01c79	10 00 00 00	 DD	 16			; 00000010H
  01c7d	00 00 00 00	 DD	 $L191357
  01c81	cc ff ff ff	 DD	 -52			; ffffffccH
  01c85	10 00 00 00	 DD	 16			; 00000010H
  01c89	00 00 00 00	 DD	 $L191358
  01c8d	b4 ff ff ff	 DD	 -76			; ffffffb4H
  01c91	10 00 00 00	 DD	 16			; 00000010H
  01c95	00 00 00 00	 DD	 $L191359
$L191359:
  01c99	72		 DB	 114			; 00000072H
  01c9a	63		 DB	 99			; 00000063H
  01c9b	43		 DB	 67			; 00000043H
  01c9c	6c		 DB	 108			; 0000006cH
  01c9d	6f		 DB	 111			; 0000006fH
  01c9e	73		 DB	 115			; 00000073H
  01c9f	65		 DB	 101			; 00000065H
  01ca0	00		 DB	 0
$L191358:
  01ca1	72		 DB	 114			; 00000072H
  01ca2	63		 DB	 99			; 00000063H
  01ca3	42		 DB	 66			; 00000042H
  01ca4	74		 DB	 116			; 00000074H
  01ca5	6e		 DB	 110			; 0000006eH
  01ca6	00		 DB	 0
$L191357:
  01ca7	72		 DB	 114			; 00000072H
  01ca8	63		 DB	 99			; 00000063H
  01ca9	00		 DB	 0
?CalcTabPosition@CTabBarWnd@@AAEXXZ ENDP		; CTabBarWnd::CalcTabPosition
_TEXT	ENDS
PUBLIC	??0TAB_ITEM@@QAE@XZ				; TAB_ITEM::TAB_ITEM
PUBLIC	??1TAB_ITEM@@QAE@XZ				; TAB_ITEM::~TAB_ITEM
PUBLIC	??0TAB_ITEM@@QAE@ABU0@@Z			; TAB_ITEM::TAB_ITEM
EXTRN	__imp_??4?$basic_string@DU?$char_traits@D@std@@V?$allocator@D@2@@std@@QAEAAV01@PBD@Z:NEAR
EXTRN	?OnLButtonDown@CBasicWnd@@IAEXIVCPoint@@@Z:NEAR	; CBasicWnd::OnLButtonDown
xdata$x	SEGMENT
$T191376 DD	0ffffffffH
	DD	FLAT:$L191364
	DD	0ffffffffH
	DD	FLAT:$L191365
	DD	0ffffffffH
	DD	FLAT:$L191366
$T191368 DD	019930520H
	DD	03H
	DD	FLAT:$T191376
	DD	2 DUP(00H)
	DD	2 DUP(00H)
; Function compile flags: /Odt /RTCsu
xdata$x	ENDS
_TEXT	SEGMENT
tv170 = -248						; size = 4
tv164 = -244						; size = 4
tv148 = -240						; size = 4
tv142 = -236						; size = 4
tv88 = -232						; size = 4
tv82 = -228						; size = 4
_tItem$189652 = -220					; size = 60
_tmpTI$189649 = -152					; size = 60
_tmpTI$189646 = -84					; size = 60
_this$ = -20						; size = 4
__$ArrayPad$ = -16					; size = 4
__$EHRec$ = -12						; size = 12
__$ReturnAddr$ = 4					; size = 4
_nFlags$ = 8						; size = 4
_point$ = 12						; size = 8
?OnLButtonDown@CTabBarWnd@@IAEXIVCPoint@@@Z PROC NEAR	; CTabBarWnd::OnLButtonDown
; _this$ = ecx

; 411  : {

  01cb0	55		 push	 ebp
  01cb1	8b ec		 mov	 ebp, esp
  01cb3	6a ff		 push	 -1
  01cb5	68 00 00 00 00	 push	 __ehhandler$?OnLButtonDown@CTabBarWnd@@IAEXIVCPoint@@@Z
  01cba	64 a1 00 00 00
	00		 mov	 eax, DWORD PTR fs:__except_list
  01cc0	50		 push	 eax
  01cc1	64 89 25 00 00
	00 00		 mov	 DWORD PTR fs:__except_list, esp
  01cc8	81 ec ec 00 00
	00		 sub	 esp, 236		; 000000ecH
  01cce	56		 push	 esi
  01ccf	57		 push	 edi
  01cd0	51		 push	 ecx
  01cd1	8d bd 08 ff ff
	ff		 lea	 edi, DWORD PTR [ebp-248]
  01cd7	b9 3b 00 00 00	 mov	 ecx, 59			; 0000003bH
  01cdc	b8 cc cc cc cc	 mov	 eax, -858993460		; ccccccccH
  01ce1	f3 ab		 rep stosd
  01ce3	59		 pop	 ecx
  01ce4	a1 00 00 00 00	 mov	 eax, DWORD PTR ___security_cookie
  01ce9	89 45 f0	 mov	 DWORD PTR __$ArrayPad$[ebp], eax
  01cec	89 4d ec	 mov	 DWORD PTR _this$[ebp], ecx

; 412  : 	AfxGetMainWindow()->Invalidate();

  01cef	6a 01		 push	 1
  01cf1	e8 00 00 00 00	 call	 ?AfxGetMainWindow@@YAPAVCWnd@@XZ ; AfxGetMainWindow
  01cf6	8b c8		 mov	 ecx, eax
  01cf8	e8 00 00 00 00	 call	 ?Invalidate@CWnd@@QAEXH@Z ; CWnd::Invalidate

; 413  : 
; 414  : 	//close
; 415  : 	if( m_iCloseOver != -1 
; 416  : 		&& m_iCloseOver != 0 )

  01cfd	8b 45 ec	 mov	 eax, DWORD PTR _this$[ebp]
  01d00	83 b8 bc 00 00
	00 ff		 cmp	 DWORD PTR [eax+188], -1
  01d07	0f 84 c6 00 00
	00		 je	 $L189645
  01d0d	8b 4d ec	 mov	 ecx, DWORD PTR _this$[ebp]
  01d10	83 b9 bc 00 00
	00 00		 cmp	 DWORD PTR [ecx+188], 0
  01d17	0f 84 b6 00 00
	00		 je	 $L189645

; 417  : 	{
; 418  : 		TAB_ITEM tmpTI = m_vecTi[m_iCloseOver];

  01d1d	8b 55 ec	 mov	 edx, DWORD PTR _this$[ebp]
  01d20	8b 82 bc 00 00
	00		 mov	 eax, DWORD PTR [edx+188]
  01d26	50		 push	 eax
  01d27	8b 4d ec	 mov	 ecx, DWORD PTR _this$[ebp]
  01d2a	81 c1 90 00 00
	00		 add	 ecx, 144		; 00000090H
  01d30	e8 00 00 00 00	 call	 ??A?$vector@UTAB_ITEM@@V?$allocator@UTAB_ITEM@@@std@@@std@@QAEAAUTAB_ITEM@@I@Z ; std::vector<TAB_ITEM,std::allocator<TAB_ITEM> >::operator[]
  01d35	50		 push	 eax
  01d36	8d 4d ac	 lea	 ecx, DWORD PTR _tmpTI$189646[ebp]
  01d39	e8 00 00 00 00	 call	 ??0TAB_ITEM@@QAE@ABU0@@Z
  01d3e	c7 45 fc 00 00
	00 00		 mov	 DWORD PTR __$EHRec$[ebp+8], 0

; 419  : 		GLOBAL_TABBARDATA->ITabBar_DeleteTab( tmpTI );

  01d45	e8 00 00 00 00	 call	 ?AfxGetDataManager2@@YAPAVIDataManager@@XZ ; AfxGetDataManager2
  01d4a	89 85 1c ff ff
	ff		 mov	 DWORD PTR tv82[ebp], eax
  01d50	8b f4		 mov	 esi, esp
  01d52	68 00 00 00 00	 push	 OFFSET FLAT:_ID_DATA_TABBAR
  01d57	8b 8d 1c ff ff
	ff		 mov	 ecx, DWORD PTR tv82[ebp]
  01d5d	8b 11		 mov	 edx, DWORD PTR [ecx]
  01d5f	8b 8d 1c ff ff
	ff		 mov	 ecx, DWORD PTR tv82[ebp]
  01d65	ff 52 0c	 call	 DWORD PTR [edx+12]
  01d68	3b f4		 cmp	 esi, esp
  01d6a	e8 00 00 00 00	 call	 __RTC_CheckEsp
  01d6f	89 85 18 ff ff
	ff		 mov	 DWORD PTR tv88[ebp], eax
  01d75	8b f4		 mov	 esi, esp
  01d77	8d 45 ac	 lea	 eax, DWORD PTR _tmpTI$189646[ebp]
  01d7a	50		 push	 eax
  01d7b	8b 8d 18 ff ff
	ff		 mov	 ecx, DWORD PTR tv88[ebp]
  01d81	8b 11		 mov	 edx, DWORD PTR [ecx]
  01d83	8b 8d 18 ff ff
	ff		 mov	 ecx, DWORD PTR tv88[ebp]
  01d89	ff 52 10	 call	 DWORD PTR [edx+16]
  01d8c	3b f4		 cmp	 esi, esp
  01d8e	e8 00 00 00 00	 call	 __RTC_CheckEsp

; 420  : 
; 421  : 		m_iCloseOver = -1;

  01d93	8b 45 ec	 mov	 eax, DWORD PTR _this$[ebp]
  01d96	c7 80 bc 00 00
	00 ff ff ff ff	 mov	 DWORD PTR [eax+188], -1

; 422  : 		m_iTabOver = -1;

  01da0	8b 4d ec	 mov	 ecx, DWORD PTR _this$[ebp]
  01da3	c7 81 b8 00 00
	00 ff ff ff ff	 mov	 DWORD PTR [ecx+184], -1

; 423  : 
; 424  : 		CalcTabPosition ();

  01dad	8b 4d ec	 mov	 ecx, DWORD PTR _this$[ebp]
  01db0	e8 00 00 00 00	 call	 ?CalcTabPosition@CTabBarWnd@@AAEXXZ ; CTabBarWnd::CalcTabPosition

; 425  : 		Invalidate ();

  01db5	6a 01		 push	 1
  01db7	8b 4d ec	 mov	 ecx, DWORD PTR _this$[ebp]
  01dba	e8 00 00 00 00	 call	 ?Invalidate@CWnd@@QAEXH@Z ; CWnd::Invalidate

; 426  : 		return;

  01dbf	c7 45 fc ff ff
	ff ff		 mov	 DWORD PTR __$EHRec$[ebp+8], -1
  01dc6	8d 4d ac	 lea	 ecx, DWORD PTR _tmpTI$189646[ebp]
  01dc9	e8 00 00 00 00	 call	 ??1TAB_ITEM@@QAE@XZ
  01dce	e9 77 01 00 00	 jmp	 $L189644
$L189645:

; 427  : 	}
; 428  : 	//tab
; 429  : 	if( m_iTabOver != -1 )

  01dd3	8b 55 ec	 mov	 edx, DWORD PTR _this$[ebp]
  01dd6	83 ba b8 00 00
	00 ff		 cmp	 DWORD PTR [edx+184], -1
  01ddd	0f 84 8e 00 00
	00		 je	 $L189648

; 430  : 	{
; 431  : 		TAB_ITEM tmpTI = m_vecTi[m_iTabOver];

  01de3	8b 45 ec	 mov	 eax, DWORD PTR _this$[ebp]
  01de6	8b 88 b8 00 00
	00		 mov	 ecx, DWORD PTR [eax+184]
  01dec	51		 push	 ecx
  01ded	8b 4d ec	 mov	 ecx, DWORD PTR _this$[ebp]
  01df0	81 c1 90 00 00
	00		 add	 ecx, 144		; 00000090H
  01df6	e8 00 00 00 00	 call	 ??A?$vector@UTAB_ITEM@@V?$allocator@UTAB_ITEM@@@std@@@std@@QAEAAUTAB_ITEM@@I@Z ; std::vector<TAB_ITEM,std::allocator<TAB_ITEM> >::operator[]
  01dfb	50		 push	 eax
  01dfc	8d 8d 68 ff ff
	ff		 lea	 ecx, DWORD PTR _tmpTI$189649[ebp]
  01e02	e8 00 00 00 00	 call	 ??0TAB_ITEM@@QAE@ABU0@@Z
  01e07	c7 45 fc 01 00
	00 00		 mov	 DWORD PTR __$EHRec$[ebp+8], 1

; 432  : 		GLOBAL_TABBARDATA->ITabBar_ChangeTab( tmpTI );

  01e0e	e8 00 00 00 00	 call	 ?AfxGetDataManager2@@YAPAVIDataManager@@XZ ; AfxGetDataManager2
  01e13	89 85 14 ff ff
	ff		 mov	 DWORD PTR tv142[ebp], eax
  01e19	8b f4		 mov	 esi, esp
  01e1b	68 00 00 00 00	 push	 OFFSET FLAT:_ID_DATA_TABBAR
  01e20	8b 95 14 ff ff
	ff		 mov	 edx, DWORD PTR tv142[ebp]
  01e26	8b 02		 mov	 eax, DWORD PTR [edx]
  01e28	8b 8d 14 ff ff
	ff		 mov	 ecx, DWORD PTR tv142[ebp]
  01e2e	ff 50 0c	 call	 DWORD PTR [eax+12]
  01e31	3b f4		 cmp	 esi, esp
  01e33	e8 00 00 00 00	 call	 __RTC_CheckEsp
  01e38	89 85 10 ff ff
	ff		 mov	 DWORD PTR tv148[ebp], eax
  01e3e	8b f4		 mov	 esi, esp
  01e40	8d 8d 68 ff ff
	ff		 lea	 ecx, DWORD PTR _tmpTI$189649[ebp]
  01e46	51		 push	 ecx
  01e47	8b 95 10 ff ff
	ff		 mov	 edx, DWORD PTR tv148[ebp]
  01e4d	8b 02		 mov	 eax, DWORD PTR [edx]
  01e4f	8b 8d 10 ff ff
	ff		 mov	 ecx, DWORD PTR tv148[ebp]
  01e55	ff 50 0c	 call	 DWORD PTR [eax+12]
  01e58	3b f4		 cmp	 esi, esp
  01e5a	e8 00 00 00 00	 call	 __RTC_CheckEsp

; 433  : 	}

  01e5f	c7 45 fc ff ff
	ff ff		 mov	 DWORD PTR __$EHRec$[ebp+8], -1
  01e66	8d 8d 68 ff ff
	ff		 lea	 ecx, DWORD PTR _tmpTI$189649[ebp]
  01e6c	e8 00 00 00 00	 call	 ??1TAB_ITEM@@QAE@XZ
$L189648:

; 434  : 	//newwindow
; 435  : 	if ( m_bOverNewWindow )

  01e71	8b 4d ec	 mov	 ecx, DWORD PTR _this$[ebp]
  01e74	0f b6 91 b0 00
	00 00		 movzx	 edx, BYTE PTR [ecx+176]
  01e7b	85 d2		 test	 edx, edx
  01e7d	0f 84 b3 00 00
	00		 je	 $L189651

; 436  : 	{
; 437  : 		TAB_ITEM tItem;

  01e83	8d 8d 24 ff ff
	ff		 lea	 ecx, DWORD PTR _tItem$189652[ebp]
  01e89	e8 00 00 00 00	 call	 ??0TAB_ITEM@@QAE@XZ
  01e8e	c7 45 fc 02 00
	00 00		 mov	 DWORD PTR __$EHRec$[ebp+8], 2

; 438  : 		tItem.eumType = TAB_GAME;

  01e95	c7 85 40 ff ff
	ff 03 00 00 00	 mov	 DWORD PTR _tItem$189652[ebp+28], 3

; 439  : 		tItem.strName = "test";

  01e9f	8b f4		 mov	 esi, esp
  01ea1	68 00 00 00 00	 push	 OFFSET FLAT:$SG189653
  01ea6	8d 8d 24 ff ff
	ff		 lea	 ecx, DWORD PTR _tItem$189652[ebp]
  01eac	ff 15 00 00 00
	00		 call	 DWORD PTR __imp_??4?$basic_string@DU?$char_traits@D@std@@V?$allocator@D@2@@std@@QAEAAV01@PBD@Z
  01eb2	3b f4		 cmp	 esi, esp
  01eb4	e8 00 00 00 00	 call	 __RTC_CheckEsp

; 440  : 		tItem.strParam = "test";

  01eb9	8b f4		 mov	 esi, esp
  01ebb	68 00 00 00 00	 push	 OFFSET FLAT:$SG189654
  01ec0	8d 8d 44 ff ff
	ff		 lea	 ecx, DWORD PTR _tItem$189652[ebp+32]
  01ec6	ff 15 00 00 00
	00		 call	 DWORD PTR __imp_??4?$basic_string@DU?$char_traits@D@std@@V?$allocator@D@2@@std@@QAEAAV01@PBD@Z
  01ecc	3b f4		 cmp	 esi, esp
  01ece	e8 00 00 00 00	 call	 __RTC_CheckEsp

; 441  : 		GLOBAL_TABBARDATA->ITabBar_ChangeTab(tItem);

  01ed3	e8 00 00 00 00	 call	 ?AfxGetDataManager2@@YAPAVIDataManager@@XZ ; AfxGetDataManager2
  01ed8	89 85 0c ff ff
	ff		 mov	 DWORD PTR tv164[ebp], eax
  01ede	8b f4		 mov	 esi, esp
  01ee0	68 00 00 00 00	 push	 OFFSET FLAT:_ID_DATA_TABBAR
  01ee5	8b 85 0c ff ff
	ff		 mov	 eax, DWORD PTR tv164[ebp]
  01eeb	8b 10		 mov	 edx, DWORD PTR [eax]
  01eed	8b 8d 0c ff ff
	ff		 mov	 ecx, DWORD PTR tv164[ebp]
  01ef3	ff 52 0c	 call	 DWORD PTR [edx+12]
  01ef6	3b f4		 cmp	 esi, esp
  01ef8	e8 00 00 00 00	 call	 __RTC_CheckEsp
  01efd	89 85 08 ff ff
	ff		 mov	 DWORD PTR tv170[ebp], eax
  01f03	8b f4		 mov	 esi, esp
  01f05	8d 85 24 ff ff
	ff		 lea	 eax, DWORD PTR _tItem$189652[ebp]
  01f0b	50		 push	 eax
  01f0c	8b 8d 08 ff ff
	ff		 mov	 ecx, DWORD PTR tv170[ebp]
  01f12	8b 11		 mov	 edx, DWORD PTR [ecx]
  01f14	8b 8d 08 ff ff
	ff		 mov	 ecx, DWORD PTR tv170[ebp]
  01f1a	ff 52 0c	 call	 DWORD PTR [edx+12]
  01f1d	3b f4		 cmp	 esi, esp
  01f1f	e8 00 00 00 00	 call	 __RTC_CheckEsp

; 442  : 	}

  01f24	c7 45 fc ff ff
	ff ff		 mov	 DWORD PTR __$EHRec$[ebp+8], -1
  01f2b	8d 8d 24 ff ff
	ff		 lea	 ecx, DWORD PTR _tItem$189652[ebp]
  01f31	e8 00 00 00 00	 call	 ??1TAB_ITEM@@QAE@XZ
$L189651:

; 443  : 	__super::OnLButtonDown(nFlags, point);

  01f36	8b 45 10	 mov	 eax, DWORD PTR _point$[ebp+4]
  01f39	50		 push	 eax
  01f3a	8b 4d 0c	 mov	 ecx, DWORD PTR _point$[ebp]
  01f3d	51		 push	 ecx
  01f3e	8b 55 08	 mov	 edx, DWORD PTR _nFlags$[ebp]
  01f41	52		 push	 edx
  01f42	8b 4d ec	 mov	 ecx, DWORD PTR _this$[ebp]
  01f45	e8 00 00 00 00	 call	 ?OnLButtonDown@CBasicWnd@@IAEXIVCPoint@@@Z ; CBasicWnd::OnLButtonDown
$L189644:

; 444  : }

  01f4a	52		 push	 edx
  01f4b	8b cd		 mov	 ecx, ebp
  01f4d	50		 push	 eax
  01f4e	8d 15 00 00 00
	00		 lea	 edx, DWORD PTR $L191375
  01f54	e8 00 00 00 00	 call	 @_RTC_CheckStackVars@8
  01f59	58		 pop	 eax
  01f5a	5a		 pop	 edx
  01f5b	8b 4d f4	 mov	 ecx, DWORD PTR __$EHRec$[ebp]
  01f5e	64 89 0d 00 00
	00 00		 mov	 DWORD PTR fs:__except_list, ecx
  01f65	8b 4d f0	 mov	 ecx, DWORD PTR __$ArrayPad$[ebp]
  01f68	e8 00 00 00 00	 call	 @__security_check_cookie@4
  01f6d	5f		 pop	 edi
  01f6e	5e		 pop	 esi
  01f6f	81 c4 f8 00 00
	00		 add	 esp, 248		; 000000f8H
  01f75	3b ec		 cmp	 ebp, esp
  01f77	e8 00 00 00 00	 call	 __RTC_CheckEsp
  01f7c	8b e5		 mov	 esp, ebp
  01f7e	5d		 pop	 ebp
  01f7f	c2 0c 00	 ret	 12			; 0000000cH
$L191375:
  01f82	03 00 00 00	 DD	 3
  01f86	00 00 00 00	 DD	 $L191374
$L191374:
  01f8a	ac ff ff ff	 DD	 -84			; ffffffacH
  01f8e	3c 00 00 00	 DD	 60			; 0000003cH
  01f92	00 00 00 00	 DD	 $L191369
  01f96	68 ff ff ff	 DD	 -152			; ffffff68H
  01f9a	3c 00 00 00	 DD	 60			; 0000003cH
  01f9e	00 00 00 00	 DD	 $L191370
  01fa2	24 ff ff ff	 DD	 -220			; ffffff24H
  01fa6	3c 00 00 00	 DD	 60			; 0000003cH
  01faa	00 00 00 00	 DD	 $L191371
$L191371:
  01fae	74		 DB	 116			; 00000074H
  01faf	49		 DB	 73			; 00000049H
  01fb0	74		 DB	 116			; 00000074H
  01fb1	65		 DB	 101			; 00000065H
  01fb2	6d		 DB	 109			; 0000006dH
  01fb3	00		 DB	 0
$L191370:
  01fb4	74		 DB	 116			; 00000074H
  01fb5	6d		 DB	 109			; 0000006dH
  01fb6	70		 DB	 112			; 00000070H
  01fb7	54		 DB	 84			; 00000054H
  01fb8	49		 DB	 73			; 00000049H
  01fb9	00		 DB	 0
$L191369:
  01fba	74		 DB	 116			; 00000074H
  01fbb	6d		 DB	 109			; 0000006dH
  01fbc	70		 DB	 112			; 00000070H
  01fbd	54		 DB	 84			; 00000054H
  01fbe	49		 DB	 73			; 00000049H
  01fbf	00		 DB	 0
_TEXT	ENDS
text$x	SEGMENT
$L191364:
  001f3	8d 4d ac	 lea	 ecx, DWORD PTR _tmpTI$189646[ebp]
  001f6	e9 00 00 00 00	 jmp	 ??1TAB_ITEM@@QAE@XZ
$L191365:
  001fb	8d 8d 68 ff ff
	ff		 lea	 ecx, DWORD PTR _tmpTI$189649[ebp]
  00201	e9 00 00 00 00	 jmp	 ??1TAB_ITEM@@QAE@XZ
$L191366:
  00206	8d 8d 24 ff ff
	ff		 lea	 ecx, DWORD PTR _tItem$189652[ebp]
  0020c	e9 00 00 00 00	 jmp	 ??1TAB_ITEM@@QAE@XZ
__ehhandler$?OnLButtonDown@CTabBarWnd@@IAEXIVCPoint@@@Z:
  00211	b8 00 00 00 00	 mov	 eax, OFFSET FLAT:$T191368
  00216	e9 00 00 00 00	 jmp	 ___CxxFrameHandler
text$x	ENDS
?OnLButtonDown@CTabBarWnd@@IAEXIVCPoint@@@Z ENDP	; CTabBarWnd::OnLButtonDown
;	COMDAT xdata$x
xdata$x	SEGMENT
$T191383 DD	0ffffffffH
	DD	FLAT:$L191378
$T191381 DD	019930520H
	DD	01H
	DD	FLAT:$T191383
	DD	2 DUP(00H)
	DD	2 DUP(00H)
; Function compile flags: /Odt /RTCsu
xdata$x	ENDS
;	COMDAT ??0TAB_ITEM@@QAE@ABU0@@Z
_TEXT	SEGMENT
_this$ = -16						; size = 4
__$EHRec$ = -12						; size = 12
___that$ = 8						; size = 4
??0TAB_ITEM@@QAE@ABU0@@Z PROC NEAR			; TAB_ITEM::TAB_ITEM, COMDAT
; _this$ = ecx
  00000	55		 push	 ebp
  00001	8b ec		 mov	 ebp, esp
  00003	6a ff		 push	 -1
  00005	68 00 00 00 00	 push	 __ehhandler$??0TAB_ITEM@@QAE@ABU0@@Z
  0000a	64 a1 00 00 00
	00		 mov	 eax, DWORD PTR fs:__except_list
  00010	50		 push	 eax
  00011	64 89 25 00 00
	00 00		 mov	 DWORD PTR fs:__except_list, esp
  00018	51		 push	 ecx
  00019	56		 push	 esi
  0001a	c7 45 f0 cc cc
	cc cc		 mov	 DWORD PTR [ebp-16], -858993460 ; ccccccccH
  00021	89 4d f0	 mov	 DWORD PTR _this$[ebp], ecx
  00024	8b f4		 mov	 esi, esp
  00026	8b 45 08	 mov	 eax, DWORD PTR ___that$[ebp]
  00029	50		 push	 eax
  0002a	8b 4d f0	 mov	 ecx, DWORD PTR _this$[ebp]
  0002d	ff 15 00 00 00
	00		 call	 DWORD PTR __imp_??0?$basic_string@DU?$char_traits@D@std@@V?$allocator@D@2@@std@@QAE@ABV01@@Z
  00033	3b f4		 cmp	 esi, esp
  00035	e8 00 00 00 00	 call	 __RTC_CheckEsp
  0003a	c7 45 fc 00 00
	00 00		 mov	 DWORD PTR __$EHRec$[ebp+8], 0
  00041	8b 4d f0	 mov	 ecx, DWORD PTR _this$[ebp]
  00044	8b 55 08	 mov	 edx, DWORD PTR ___that$[ebp]
  00047	8b 42 1c	 mov	 eax, DWORD PTR [edx+28]
  0004a	89 41 1c	 mov	 DWORD PTR [ecx+28], eax
  0004d	8b 4d 08	 mov	 ecx, DWORD PTR ___that$[ebp]
  00050	83 c1 20	 add	 ecx, 32			; 00000020H
  00053	8b f4		 mov	 esi, esp
  00055	51		 push	 ecx
  00056	8b 4d f0	 mov	 ecx, DWORD PTR _this$[ebp]
  00059	83 c1 20	 add	 ecx, 32			; 00000020H
  0005c	ff 15 00 00 00
	00		 call	 DWORD PTR __imp_??0?$basic_string@DU?$char_traits@D@std@@V?$allocator@D@2@@std@@QAE@ABV01@@Z
  00062	3b f4		 cmp	 esi, esp
  00064	e8 00 00 00 00	 call	 __RTC_CheckEsp
  00069	c7 45 fc ff ff
	ff ff		 mov	 DWORD PTR __$EHRec$[ebp+8], -1
  00070	8b 45 f0	 mov	 eax, DWORD PTR _this$[ebp]
  00073	8b 4d f4	 mov	 ecx, DWORD PTR __$EHRec$[ebp]
  00076	64 89 0d 00 00
	00 00		 mov	 DWORD PTR fs:__except_list, ecx
  0007d	5e		 pop	 esi
  0007e	83 c4 10	 add	 esp, 16			; 00000010H
  00081	3b ec		 cmp	 ebp, esp
  00083	e8 00 00 00 00	 call	 __RTC_CheckEsp
  00088	8b e5		 mov	 esp, ebp
  0008a	5d		 pop	 ebp
  0008b	c2 04 00	 ret	 4
_TEXT	ENDS
;	COMDAT text$x
text$x	SEGMENT
$L191378:
  00000	8b f4		 mov	 esi, esp
  00002	8b 4d f0	 mov	 ecx, DWORD PTR _this$[ebp]
  00005	ff 15 00 00 00
	00		 call	 DWORD PTR __imp_??1?$basic_string@DU?$char_traits@D@std@@V?$allocator@D@2@@std@@QAE@XZ
  0000b	3b f4		 cmp	 esi, esp
  0000d	e9 00 00 00 00	 jmp	 __RTC_CheckEsp
__ehhandler$??0TAB_ITEM@@QAE@ABU0@@Z:
  00012	b8 00 00 00 00	 mov	 eax, OFFSET FLAT:$T191381
  00017	e9 00 00 00 00	 jmp	 ___CxxFrameHandler
text$x	ENDS
??0TAB_ITEM@@QAE@ABU0@@Z ENDP				; TAB_ITEM::TAB_ITEM
;	COMDAT xdata$x
xdata$x	SEGMENT
$T191392 DD	0ffffffffH
	DD	FLAT:$L191387
$T191390 DD	019930520H
	DD	01H
	DD	FLAT:$T191392
	DD	2 DUP(00H)
	DD	2 DUP(00H)
; Function compile flags: /Odt /RTCsu
xdata$x	ENDS
;	COMDAT ??1TAB_ITEM@@QAE@XZ
_TEXT	SEGMENT
_this$ = -16						; size = 4
__$EHRec$ = -12						; size = 12
??1TAB_ITEM@@QAE@XZ PROC NEAR				; TAB_ITEM::~TAB_ITEM, COMDAT
; _this$ = ecx
  00000	55		 push	 ebp
  00001	8b ec		 mov	 ebp, esp
  00003	6a ff		 push	 -1
  00005	68 00 00 00 00	 push	 __ehhandler$??1TAB_ITEM@@QAE@XZ
  0000a	64 a1 00 00 00
	00		 mov	 eax, DWORD PTR fs:__except_list
  00010	50		 push	 eax
  00011	64 89 25 00 00
	00 00		 mov	 DWORD PTR fs:__except_list, esp
  00018	51		 push	 ecx
  00019	56		 push	 esi
  0001a	c7 45 f0 cc cc
	cc cc		 mov	 DWORD PTR [ebp-16], -858993460 ; ccccccccH
  00021	89 4d f0	 mov	 DWORD PTR _this$[ebp], ecx
  00024	c7 45 fc 00 00
	00 00		 mov	 DWORD PTR __$EHRec$[ebp+8], 0
  0002b	8b 4d f0	 mov	 ecx, DWORD PTR _this$[ebp]
  0002e	83 c1 20	 add	 ecx, 32			; 00000020H
  00031	8b f4		 mov	 esi, esp
  00033	ff 15 00 00 00
	00		 call	 DWORD PTR __imp_??1?$basic_string@DU?$char_traits@D@std@@V?$allocator@D@2@@std@@QAE@XZ
  00039	3b f4		 cmp	 esi, esp
  0003b	e8 00 00 00 00	 call	 __RTC_CheckEsp
  00040	c7 45 fc ff ff
	ff ff		 mov	 DWORD PTR __$EHRec$[ebp+8], -1
  00047	8b f4		 mov	 esi, esp
  00049	8b 4d f0	 mov	 ecx, DWORD PTR _this$[ebp]
  0004c	ff 15 00 00 00
	00		 call	 DWORD PTR __imp_??1?$basic_string@DU?$char_traits@D@std@@V?$allocator@D@2@@std@@QAE@XZ
  00052	3b f4		 cmp	 esi, esp
  00054	e8 00 00 00 00	 call	 __RTC_CheckEsp
  00059	8b 4d f4	 mov	 ecx, DWORD PTR __$EHRec$[ebp]
  0005c	64 89 0d 00 00
	00 00		 mov	 DWORD PTR fs:__except_list, ecx
  00063	5e		 pop	 esi
  00064	83 c4 10	 add	 esp, 16			; 00000010H
  00067	3b ec		 cmp	 ebp, esp
  00069	e8 00 00 00 00	 call	 __RTC_CheckEsp
  0006e	8b e5		 mov	 esp, ebp
  00070	5d		 pop	 ebp
  00071	c3		 ret	 0
_TEXT	ENDS
;	COMDAT text$x
text$x	SEGMENT
$L191387:
  00000	8b f4		 mov	 esi, esp
  00002	8b 4d f0	 mov	 ecx, DWORD PTR _this$[ebp]
  00005	ff 15 00 00 00
	00		 call	 DWORD PTR __imp_??1?$basic_string@DU?$char_traits@D@std@@V?$allocator@D@2@@std@@QAE@XZ
  0000b	3b f4		 cmp	 esi, esp
  0000d	e9 00 00 00 00	 jmp	 __RTC_CheckEsp
__ehhandler$??1TAB_ITEM@@QAE@XZ:
  00012	b8 00 00 00 00	 mov	 eax, OFFSET FLAT:$T191390
  00017	e9 00 00 00 00	 jmp	 ___CxxFrameHandler
text$x	ENDS
??1TAB_ITEM@@QAE@XZ ENDP				; TAB_ITEM::~TAB_ITEM
EXTRN	__imp_??0?$basic_string@DU?$char_traits@D@std@@V?$allocator@D@2@@std@@QAE@XZ:NEAR
;	COMDAT xdata$x
xdata$x	SEGMENT
$T191401 DD	0ffffffffH
	DD	FLAT:$L191396
$T191399 DD	019930520H
	DD	01H
	DD	FLAT:$T191401
	DD	2 DUP(00H)
	DD	2 DUP(00H)
; Function compile flags: /Odt /RTCsu
xdata$x	ENDS
;	COMDAT ??0TAB_ITEM@@QAE@XZ
_TEXT	SEGMENT
_this$ = -16						; size = 4
__$EHRec$ = -12						; size = 12
??0TAB_ITEM@@QAE@XZ PROC NEAR				; TAB_ITEM::TAB_ITEM, COMDAT
; _this$ = ecx
  00000	55		 push	 ebp
  00001	8b ec		 mov	 ebp, esp
  00003	6a ff		 push	 -1
  00005	68 00 00 00 00	 push	 __ehhandler$??0TAB_ITEM@@QAE@XZ
  0000a	64 a1 00 00 00
	00		 mov	 eax, DWORD PTR fs:__except_list
  00010	50		 push	 eax
  00011	64 89 25 00 00
	00 00		 mov	 DWORD PTR fs:__except_list, esp
  00018	51		 push	 ecx
  00019	56		 push	 esi
  0001a	c7 45 f0 cc cc
	cc cc		 mov	 DWORD PTR [ebp-16], -858993460 ; ccccccccH
  00021	89 4d f0	 mov	 DWORD PTR _this$[ebp], ecx
  00024	8b f4		 mov	 esi, esp
  00026	8b 4d f0	 mov	 ecx, DWORD PTR _this$[ebp]
  00029	ff 15 00 00 00
	00		 call	 DWORD PTR __imp_??0?$basic_string@DU?$char_traits@D@std@@V?$allocator@D@2@@std@@QAE@XZ
  0002f	3b f4		 cmp	 esi, esp
  00031	e8 00 00 00 00	 call	 __RTC_CheckEsp
  00036	c7 45 fc 00 00
	00 00		 mov	 DWORD PTR __$EHRec$[ebp+8], 0
  0003d	8b 4d f0	 mov	 ecx, DWORD PTR _this$[ebp]
  00040	83 c1 20	 add	 ecx, 32			; 00000020H
  00043	8b f4		 mov	 esi, esp
  00045	ff 15 00 00 00
	00		 call	 DWORD PTR __imp_??0?$basic_string@DU?$char_traits@D@std@@V?$allocator@D@2@@std@@QAE@XZ
  0004b	3b f4		 cmp	 esi, esp
  0004d	e8 00 00 00 00	 call	 __RTC_CheckEsp
  00052	c7 45 fc ff ff
	ff ff		 mov	 DWORD PTR __$EHRec$[ebp+8], -1
  00059	8b 45 f0	 mov	 eax, DWORD PTR _this$[ebp]
  0005c	8b 4d f4	 mov	 ecx, DWORD PTR __$EHRec$[ebp]
  0005f	64 89 0d 00 00
	00 00		 mov	 DWORD PTR fs:__except_list, ecx
  00066	5e		 pop	 esi
  00067	83 c4 10	 add	 esp, 16			; 00000010H
  0006a	3b ec		 cmp	 ebp, esp
  0006c	e8 00 00 00 00	 call	 __RTC_CheckEsp
  00071	8b e5		 mov	 esp, ebp
  00073	5d		 pop	 ebp
  00074	c3		 ret	 0
_TEXT	ENDS
;	COMDAT text$x
text$x	SEGMENT
$L191396:
  00000	8b f4		 mov	 esi, esp
  00002	8b 4d f0	 mov	 ecx, DWORD PTR _this$[ebp]
  00005	ff 15 00 00 00
	00		 call	 DWORD PTR __imp_??1?$basic_string@DU?$char_traits@D@std@@V?$allocator@D@2@@std@@QAE@XZ
  0000b	3b f4		 cmp	 esi, esp
  0000d	e9 00 00 00 00	 jmp	 __RTC_CheckEsp
__ehhandler$??0TAB_ITEM@@QAE@XZ:
  00012	b8 00 00 00 00	 mov	 eax, OFFSET FLAT:$T191399
  00017	e9 00 00 00 00	 jmp	 ___CxxFrameHandler
text$x	ENDS
??0TAB_ITEM@@QAE@XZ ENDP				; TAB_ITEM::TAB_ITEM
PUBLIC	?GetOverTab@CTabBarWnd@@AAEHVCPoint@@@Z		; CTabBarWnd::GetOverTab
PUBLIC	?GetOverClose@CTabBarWnd@@AAEHVCPoint@@@Z	; CTabBarWnd::GetOverClose
EXTRN	??0CPoint@@QAE@HH@Z:NEAR			; CPoint::CPoint
EXTRN	??9CPoint@@QBEHUtagPOINT@@@Z:NEAR		; CPoint::operator!=
EXTRN	?PtInRect@CRect@@QBEHUtagPOINT@@@Z:NEAR		; CRect::PtInRect
EXTRN	__imp__GetCursorPos@4:NEAR
EXTRN	?OnMouseMove@CBasicWnd@@IAEXIVCPoint@@@Z:NEAR	; CBasicWnd::OnMouseMove
EXTRN	__imp_??0?$CStringT@DV?$StrTraitMFC_DLL@DV?$ChTraitsCRT@D@ATL@@@@@ATL@@QAE@ABV01@@Z:NEAR
EXTRN	?ShowToolTips@CCWToolTips@@QAEXV?$CStringT@DV?$StrTraitMFC_DLL@DV?$ChTraitsCRT@D@ATL@@@@@ATL@@VCPoint@@H@Z:NEAR ; CCWToolTips::ShowToolTips
EXTRN	?HideTooTips@CCWToolTips@@QAEXXZ:NEAR		; CCWToolTips::HideTooTips
xdata$x	SEGMENT
$T191417 DD	0ffffffffH
	DD	FLAT:$L191408
$T191411 DD	019930520H
	DD	01H
	DD	FLAT:$T191417
	DD	2 DUP(00H)
	DD	2 DUP(00H)
; Function compile flags: /Odt /RTCsu
xdata$x	ENDS
_TEXT	SEGMENT
tv173 = -72						; size = 4
$T191407 = -68						; size = 4
$T191406 = -64						; size = 8
$T191405 = -56						; size = 8
_info$189676 = -44					; size = 4
_pt$189673 = -32					; size = 8
_iOver$ = -20						; size = 4
_this$ = -16						; size = 4
__$EHRec$ = -12						; size = 12
_nFlags$ = 8						; size = 4
_point$ = 12						; size = 8
?OnMouseMove@CTabBarWnd@@IAEXIVCPoint@@@Z PROC NEAR	; CTabBarWnd::OnMouseMove
; _this$ = ecx

; 447  : {

  01fc0	55		 push	 ebp
  01fc1	8b ec		 mov	 ebp, esp
  01fc3	6a ff		 push	 -1
  01fc5	68 00 00 00 00	 push	 __ehhandler$?OnMouseMove@CTabBarWnd@@IAEXIVCPoint@@@Z
  01fca	64 a1 00 00 00
	00		 mov	 eax, DWORD PTR fs:__except_list
  01fd0	50		 push	 eax
  01fd1	64 89 25 00 00
	00 00		 mov	 DWORD PTR fs:__except_list, esp
  01fd8	83 ec 3c	 sub	 esp, 60			; 0000003cH
  01fdb	56		 push	 esi
  01fdc	57		 push	 edi
  01fdd	51		 push	 ecx
  01fde	8d 7d b8	 lea	 edi, DWORD PTR [ebp-72]
  01fe1	b9 0f 00 00 00	 mov	 ecx, 15			; 0000000fH
  01fe6	b8 cc cc cc cc	 mov	 eax, -858993460		; ccccccccH
  01feb	f3 ab		 rep stosd
  01fed	59		 pop	 ecx
  01fee	89 4d f0	 mov	 DWORD PTR _this$[ebp], ecx

; 448  : 	int iOver = GetOverClose( point );

  01ff1	8b 45 10	 mov	 eax, DWORD PTR _point$[ebp+4]
  01ff4	50		 push	 eax
  01ff5	8b 4d 0c	 mov	 ecx, DWORD PTR _point$[ebp]
  01ff8	51		 push	 ecx
  01ff9	8b 4d f0	 mov	 ecx, DWORD PTR _this$[ebp]
  01ffc	e8 00 00 00 00	 call	 ?GetOverClose@CTabBarWnd@@AAEHVCPoint@@@Z ; CTabBarWnd::GetOverClose
  02001	89 45 ec	 mov	 DWORD PTR _iOver$[ebp], eax

; 449  : 	if( iOver != m_iCloseOver )

  02004	8b 55 f0	 mov	 edx, DWORD PTR _this$[ebp]
  02007	8b 45 ec	 mov	 eax, DWORD PTR _iOver$[ebp]
  0200a	3b 82 bc 00 00
	00		 cmp	 eax, DWORD PTR [edx+188]
  02010	74 1e		 je	 SHORT $L189669

; 450  : 	{
; 451  : 		m_iCloseOver = iOver;

  02012	8b 4d f0	 mov	 ecx, DWORD PTR _this$[ebp]
  02015	8b 55 ec	 mov	 edx, DWORD PTR _iOver$[ebp]
  02018	89 91 bc 00 00
	00		 mov	 DWORD PTR [ecx+188], edx

; 452  : 		CalcTabPosition ();

  0201e	8b 4d f0	 mov	 ecx, DWORD PTR _this$[ebp]
  02021	e8 00 00 00 00	 call	 ?CalcTabPosition@CTabBarWnd@@AAEXXZ ; CTabBarWnd::CalcTabPosition

; 453  : 		Invalidate();

  02026	6a 01		 push	 1
  02028	8b 4d f0	 mov	 ecx, DWORD PTR _this$[ebp]
  0202b	e8 00 00 00 00	 call	 ?Invalidate@CWnd@@QAEXH@Z ; CWnd::Invalidate
$L189669:

; 454  : 	}
; 455  : 
; 456  : 	iOver = GetOverTab( point );

  02030	8b 45 10	 mov	 eax, DWORD PTR _point$[ebp+4]
  02033	50		 push	 eax
  02034	8b 4d 0c	 mov	 ecx, DWORD PTR _point$[ebp]
  02037	51		 push	 ecx
  02038	8b 4d f0	 mov	 ecx, DWORD PTR _this$[ebp]
  0203b	e8 00 00 00 00	 call	 ?GetOverTab@CTabBarWnd@@AAEHVCPoint@@@Z ; CTabBarWnd::GetOverTab
  02040	89 45 ec	 mov	 DWORD PTR _iOver$[ebp], eax

; 457  : 	if( iOver != m_iTabOver )

  02043	8b 55 f0	 mov	 edx, DWORD PTR _this$[ebp]
  02046	8b 45 ec	 mov	 eax, DWORD PTR _iOver$[ebp]
  02049	3b 82 b8 00 00
	00		 cmp	 eax, DWORD PTR [edx+184]
  0204f	74 1e		 je	 SHORT $L189670

; 458  : 	{
; 459  : 		m_iTabOver = iOver;

  02051	8b 4d f0	 mov	 ecx, DWORD PTR _this$[ebp]
  02054	8b 55 ec	 mov	 edx, DWORD PTR _iOver$[ebp]
  02057	89 91 b8 00 00
	00		 mov	 DWORD PTR [ecx+184], edx

; 460  : 		CalcTabPosition();

  0205d	8b 4d f0	 mov	 ecx, DWORD PTR _this$[ebp]
  02060	e8 00 00 00 00	 call	 ?CalcTabPosition@CTabBarWnd@@AAEXXZ ; CTabBarWnd::CalcTabPosition

; 461  : 		Invalidate();

  02065	6a 01		 push	 1
  02067	8b 4d f0	 mov	 ecx, DWORD PTR _this$[ebp]
  0206a	e8 00 00 00 00	 call	 ?Invalidate@CWnd@@QAEXH@Z ; CWnd::Invalidate
$L189670:

; 462  : 	}
; 463  : 	m_bOverNewWindow = m_rectNewWindow.PtInRect(point);

  0206f	8b 45 0c	 mov	 eax, DWORD PTR _point$[ebp]
  02072	89 45 c8	 mov	 DWORD PTR $T191405[ebp], eax
  02075	8b 4d 10	 mov	 ecx, DWORD PTR _point$[ebp+4]
  02078	89 4d cc	 mov	 DWORD PTR $T191405[ebp+4], ecx
  0207b	8b 55 cc	 mov	 edx, DWORD PTR $T191405[ebp+4]
  0207e	52		 push	 edx
  0207f	8b 45 c8	 mov	 eax, DWORD PTR $T191405[ebp]
  02082	50		 push	 eax
  02083	8b 4d f0	 mov	 ecx, DWORD PTR _this$[ebp]
  02086	81 c1 a0 00 00
	00		 add	 ecx, 160		; 000000a0H
  0208c	e8 00 00 00 00	 call	 ?PtInRect@CRect@@QBEHUtagPOINT@@@Z ; CRect::PtInRect
  02091	85 c0		 test	 eax, eax
  02093	0f 95 c1	 setne	 cl
  02096	8b 55 f0	 mov	 edx, DWORD PTR _this$[ebp]
  02099	88 8a b0 00 00
	00		 mov	 BYTE PTR [edx+176], cl

; 464  : 
; 465  : 	if( m_iTabOver != -1 )

  0209f	8b 45 f0	 mov	 eax, DWORD PTR _this$[ebp]
  020a2	83 b8 b8 00 00
	00 ff		 cmp	 DWORD PTR [eax+184], -1
  020a9	0f 84 dd 00 00
	00		 je	 $L189672

; 466  : 	{
; 467  : 		CPoint pt(0,0);

  020af	6a 00		 push	 0
  020b1	6a 00		 push	 0
  020b3	8d 4d e0	 lea	 ecx, DWORD PTR _pt$189673[ebp]
  020b6	e8 00 00 00 00	 call	 ??0CPoint@@QAE@HH@Z	; CPoint::CPoint

; 468  : 		GetCursorPos(&pt);

  020bb	8b f4		 mov	 esi, esp
  020bd	8d 4d e0	 lea	 ecx, DWORD PTR _pt$189673[ebp]
  020c0	51		 push	 ecx
  020c1	ff 15 00 00 00
	00		 call	 DWORD PTR __imp__GetCursorPos@4
  020c7	3b f4		 cmp	 esi, esp
  020c9	e8 00 00 00 00	 call	 __RTC_CheckEsp

; 469  : 		if( m_pToolTip->m_lastPoint != pt )

  020ce	8b 55 e0	 mov	 edx, DWORD PTR _pt$189673[ebp]
  020d1	89 55 c0	 mov	 DWORD PTR $T191406[ebp], edx
  020d4	8b 45 e4	 mov	 eax, DWORD PTR _pt$189673[ebp+4]
  020d7	89 45 c4	 mov	 DWORD PTR $T191406[ebp+4], eax
  020da	8b 4d c4	 mov	 ecx, DWORD PTR $T191406[ebp+4]
  020dd	51		 push	 ecx
  020de	8b 55 c0	 mov	 edx, DWORD PTR $T191406[ebp]
  020e1	52		 push	 edx
  020e2	8b 45 f0	 mov	 eax, DWORD PTR _this$[ebp]
  020e5	8b 48 5c	 mov	 ecx, DWORD PTR [eax+92]
  020e8	83 c1 68	 add	 ecx, 104		; 00000068H
  020eb	e8 00 00 00 00	 call	 ??9CPoint@@QBEHUtagPOINT@@@Z ; CPoint::operator!=
  020f0	85 c0		 test	 eax, eax
  020f2	74 0b		 je	 SHORT $L189675

; 470  : 		{
; 471  : 			m_pToolTip->HideTooTips();

  020f4	8b 4d f0	 mov	 ecx, DWORD PTR _this$[ebp]
  020f7	8b 49 5c	 mov	 ecx, DWORD PTR [ecx+92]
  020fa	e8 00 00 00 00	 call	 ?HideTooTips@CCWToolTips@@QAEXXZ ; CCWToolTips::HideTooTips
$L189675:

; 472  : 		}
; 473  : 		CString info = m_vecTi[m_iTabOver].strName.c_str();

  020ff	8b 55 f0	 mov	 edx, DWORD PTR _this$[ebp]
  02102	8b 82 b8 00 00
	00		 mov	 eax, DWORD PTR [edx+184]
  02108	50		 push	 eax
  02109	8b 4d f0	 mov	 ecx, DWORD PTR _this$[ebp]
  0210c	81 c1 90 00 00
	00		 add	 ecx, 144		; 00000090H
  02112	e8 00 00 00 00	 call	 ??A?$vector@UTAB_ITEM@@V?$allocator@UTAB_ITEM@@@std@@@std@@QAEAAUTAB_ITEM@@I@Z ; std::vector<TAB_ITEM,std::allocator<TAB_ITEM> >::operator[]
  02117	8b f4		 mov	 esi, esp
  02119	8b c8		 mov	 ecx, eax
  0211b	ff 15 00 00 00
	00		 call	 DWORD PTR __imp_?c_str@?$basic_string@DU?$char_traits@D@std@@V?$allocator@D@2@@std@@QBEPBDXZ
  02121	3b f4		 cmp	 esi, esp
  02123	e8 00 00 00 00	 call	 __RTC_CheckEsp
  02128	8b f4		 mov	 esi, esp
  0212a	50		 push	 eax
  0212b	8d 4d d4	 lea	 ecx, DWORD PTR _info$189676[ebp]
  0212e	ff 15 00 00 00
	00		 call	 DWORD PTR __imp_??0?$CStringT@DV?$StrTraitMFC_DLL@DV?$ChTraitsCRT@D@ATL@@@@@ATL@@QAE@PBD@Z
  02134	3b f4		 cmp	 esi, esp
  02136	e8 00 00 00 00	 call	 __RTC_CheckEsp
  0213b	c7 45 fc 00 00
	00 00		 mov	 DWORD PTR __$EHRec$[ebp+8], 0

; 474  : 		m_pToolTip->ShowToolTips( info,pt);

  02142	6a 00		 push	 0
  02144	8b 4d e4	 mov	 ecx, DWORD PTR _pt$189673[ebp+4]
  02147	51		 push	 ecx
  02148	8b 55 e0	 mov	 edx, DWORD PTR _pt$189673[ebp]
  0214b	52		 push	 edx
  0214c	51		 push	 ecx
  0214d	8b cc		 mov	 ecx, esp
  0214f	89 65 bc	 mov	 DWORD PTR $T191407[ebp], esp
  02152	8b f4		 mov	 esi, esp
  02154	8d 45 d4	 lea	 eax, DWORD PTR _info$189676[ebp]
  02157	50		 push	 eax
  02158	ff 15 00 00 00
	00		 call	 DWORD PTR __imp_??0?$CStringT@DV?$StrTraitMFC_DLL@DV?$ChTraitsCRT@D@ATL@@@@@ATL@@QAE@ABV01@@Z
  0215e	3b f4		 cmp	 esi, esp
  02160	e8 00 00 00 00	 call	 __RTC_CheckEsp
  02165	89 45 b8	 mov	 DWORD PTR tv173[ebp], eax
  02168	8b 4d f0	 mov	 ecx, DWORD PTR _this$[ebp]
  0216b	8b 49 5c	 mov	 ecx, DWORD PTR [ecx+92]
