; Listing generated by Microsoft (R) Optimizing Compiler Version 13.10.3077 

	TITLE	.\src\module\TabMan\TabPageControl.cpp
	.386P
include listing.inc
if @Version gt 510
.model FLAT
else
_TEXT	SEGMENT PARA USE32 PUBLIC 'CODE'
_TEXT	ENDS
_DATA	SEGMENT DWORD USE32 PUBLIC 'DATA'
_DATA	ENDS
CONST	SEGMENT DWORD USE32 PUBLIC 'CONST'
CONST	ENDS
_BSS	SEGMENT DWORD USE32 PUBLIC 'BSS'
_BSS	ENDS
$$SYMBOLS	SEGMENT BYTE USE32 'DEBSYM'
$$SYMBOLS	ENDS
_TLS	SEGMENT DWORD USE32 PUBLIC 'TLS'
_TLS	ENDS
;	COMDAT ??_C@_0P@MDHCGOCC@m_pMemMgr?5?$DN?$DN?50?$AA@
CONST	SEGMENT DWORD USE32 PUBLIC 'CONST'
CONST	ENDS
;	COMDAT ??_C@_0FF@PEBLHPJJ@D?3?2Program?5Files?5?$CIx86?$CJ?2Microsoft@
CONST	SEGMENT DWORD USE32 PUBLIC 'CONST'
CONST	ENDS
;	COMDAT ??_C@_0BK@KICONMKH@pData?9?$DOpStringMgr?5?$DN?$DN?5this?$AA@
CONST	SEGMENT DWORD USE32 PUBLIC 'CONST'
CONST	ENDS
;	COMDAT ??_C@_0CG@HPMMCKHL@?$CI?$CIWORD?$CJ?$CI?$CIDWORD_PTR?$CJ?$CIpsz?$CJ?5?$DO?$DO?516?$CJ?$CJ@
CONST	SEGMENT DWORD USE32 PUBLIC 'CONST'
CONST	ENDS
;	COMDAT ??_C@_0P@CLMBAKJD@JSCall?5Error?3?6?$AA@
CONST	SEGMENT DWORD USE32 PUBLIC 'CONST'
CONST	ENDS
;	COMDAT ??_C@_0EA@CPOAACJC@d?3?2boxgit?2playbox?2playbox?2dev?2pr@
CONST	SEGMENT DWORD USE32 PUBLIC 'CONST'
CONST	ENDS
;	COMDAT ??_C@_0BI@GIMJKKKN@AtlIsValidString?$CI?5psz?5?$CJ?$AA@
CONST	SEGMENT DWORD USE32 PUBLIC 'CONST'
CONST	ENDS
;	COMDAT ??_C@_0M@GOJCFFEC@iStart?5?$DO?$DN?50?$AA@
CONST	SEGMENT DWORD USE32 PUBLIC 'CONST'
CONST	ENDS
;	COMDAT ??_C@_0DC@KJIHKHDE@?$CInCount?5?$DN?$DN?50?$CJ?5?$HM?$HM?5?$CI?$CIiFirst?$CLnCount@
CONST	SEGMENT DWORD USE32 PUBLIC 'CONST'
CONST	ENDS
;	COMDAT ??_C@_0EN@IBFBLEEG@D?3?2Program?5Files?5?$CIx86?$CJ?2Microsoft@
CONST	SEGMENT DWORD USE32 PUBLIC 'CONST'
CONST	ENDS
;	COMDAT ??_C@_0BD@OLBABOEK@vector?$DMT?$DO?5too?5long?$AA@
CONST	SEGMENT DWORD USE32 PUBLIC 'CONST'
CONST	ENDS
rdata$r	SEGMENT DWORD USE32 PUBLIC 'CONST'
rdata$r	ENDS
xdata$x	SEGMENT DWORD USE32 PUBLIC 'CONST'
xdata$x	ENDS
text$AFX_COL1	SEGMENT PARA USE32 PUBLIC ''
text$AFX_COL1	ENDS
text$yc	SEGMENT PARA USE32 PUBLIC 'CODE'
text$yc	ENDS
CRT$XCA	SEGMENT DWORD USE32 PUBLIC 'DATA'
CRT$XCA	ENDS
CRT$XCU	SEGMENT DWORD USE32 PUBLIC 'DATA'
CRT$XCU	ENDS
CRT$XCL	SEGMENT DWORD USE32 PUBLIC 'DATA'
CRT$XCL	ENDS
CRT$XCC	SEGMENT DWORD USE32 PUBLIC 'DATA'
CRT$XCC	ENDS
CRT$XCZ	SEGMENT DWORD USE32 PUBLIC 'DATA'
CRT$XCZ	ENDS
text$yd	SEGMENT PARA USE32 PUBLIC 'CODE'
text$yd	ENDS
ATL$__m	SEGMENT DWORD USE32 PUBLIC ''
ATL$__m	ENDS
ATL$__z	SEGMENT DWORD USE32 PUBLIC ''
ATL$__z	ENDS
ATL$__a	SEGMENT DWORD USE32 PUBLIC ''
ATL$__a	ENDS
;	COMDAT ??1IData@@MAE@XZ
_TEXT	SEGMENT PARA USE32 PUBLIC 'CODE'
_TEXT	ENDS
;	COMDAT ?DataAppStart@IData@@UAEXXZ
_TEXT	SEGMENT PARA USE32 PUBLIC 'CODE'
_TEXT	ENDS
;	COMDAT ?DataAppExit@IData@@UAEXXZ
_TEXT	SEGMENT PARA USE32 PUBLIC 'CODE'
_TEXT	ENDS
;	COMDAT ??_GIData@@MAEPAXI@Z
_TEXT	SEGMENT PARA USE32 PUBLIC 'CODE'
_TEXT	ENDS
;	COMDAT ?clear@OneLocalGame@@QAEXXZ
_TEXT	SEGMENT PARA USE32 PUBLIC 'CODE'
_TEXT	ENDS
;	COMDAT ??1CAtlStringMgr@ATL@@UAE@XZ
_TEXT	SEGMENT PARA USE32 PUBLIC 'CODE'
_TEXT	ENDS
;	COMDAT ?Allocate@CAtlStringMgr@ATL@@UAEPAUCStringData@2@HH@Z
_TEXT	SEGMENT PARA USE32 PUBLIC 'CODE'
_TEXT	ENDS
;	COMDAT ?Free@CAtlStringMgr@ATL@@UAEXPAUCStringData@2@@Z
_TEXT	SEGMENT PARA USE32 PUBLIC 'CODE'
_TEXT	ENDS
;	COMDAT ?Reallocate@CAtlStringMgr@ATL@@UAEPAUCStringData@2@PAU32@HH@Z
_TEXT	SEGMENT PARA USE32 PUBLIC 'CODE'
_TEXT	ENDS
;	COMDAT ?GetNilString@CAtlStringMgr@ATL@@UAEPAUCStringData@2@XZ
_TEXT	SEGMENT PARA USE32 PUBLIC 'CODE'
_TEXT	ENDS
;	COMDAT ?Clone@CAtlStringMgr@ATL@@UAEPAUIAtlStringMgr@2@XZ
_TEXT	SEGMENT PARA USE32 PUBLIC 'CODE'
_TEXT	ENDS
;	COMDAT ??_GCAtlStringMgr@ATL@@UAEPAXI@Z
_TEXT	SEGMENT PARA USE32 PUBLIC 'CODE'
_TEXT	ENDS
;	COMDAT ?CompareStringW@?$ChTraitsOS@_W@ATL@@KGHKKPB_WH0H@Z
_TEXT	SEGMENT PARA USE32 PUBLIC 'CODE'
_TEXT	ENDS
;	COMDAT ?GetStringTypeExW@?$ChTraitsOS@_W@ATL@@KGHKKPB_WHPAG@Z
_TEXT	SEGMENT PARA USE32 PUBLIC 'CODE'
_TEXT	ENDS
;	COMDAT ?lstrcmpiW@?$ChTraitsOS@_W@ATL@@KGHPB_W0@Z
_TEXT	SEGMENT PARA USE32 PUBLIC 'CODE'
_TEXT	ENDS
;	COMDAT ?CharLowerW@?$ChTraitsOS@_W@ATL@@KGPA_WPA_W@Z
_TEXT	SEGMENT PARA USE32 PUBLIC 'CODE'
_TEXT	ENDS
;	COMDAT ?CharUpperW@?$ChTraitsOS@_W@ATL@@KGPA_WPA_W@Z
_TEXT	SEGMENT PARA USE32 PUBLIC 'CODE'
_TEXT	ENDS
;	COMDAT ?strchr@?$ChTraitsOS@_W@ATL@@SAPB_WPB_W_W@Z
_TEXT	SEGMENT PARA USE32 PUBLIC 'CODE'
_TEXT	ENDS
;	COMDAT ?strrchr@?$ChTraitsOS@_W@ATL@@SAPB_WPB_W_W@Z
_TEXT	SEGMENT PARA USE32 PUBLIC 'CODE'
_TEXT	ENDS
;	COMDAT ?_strrev@?$ChTraitsOS@_W@ATL@@SAPA_WPA_W@Z
_TEXT	SEGMENT PARA USE32 PUBLIC 'CODE'
_TEXT	ENDS
;	COMDAT ?strstr@?$ChTraitsOS@_W@ATL@@SAPB_WPB_W0@Z
_TEXT	SEGMENT PARA USE32 PUBLIC 'CODE'
_TEXT	ENDS
;	COMDAT ?strspn@?$ChTraitsOS@_W@ATL@@SAHPB_W0@Z
_TEXT	SEGMENT PARA USE32 PUBLIC 'CODE'
_TEXT	ENDS
;	COMDAT ?strcspn@?$ChTraitsOS@_W@ATL@@SAHPB_W0@Z
_TEXT	SEGMENT PARA USE32 PUBLIC 'CODE'
_TEXT	ENDS
;	COMDAT ?strpbrk@?$ChTraitsOS@_W@ATL@@SAPB_WPB_W0@Z
_TEXT	SEGMENT PARA USE32 PUBLIC 'CODE'
_TEXT	ENDS
;	COMDAT ?StringFindString@?$ChTraitsOS@_W@ATL@@SAPB_WPB_W0@Z
_TEXT	SEGMENT PARA USE32 PUBLIC 'CODE'
_TEXT	ENDS
;	COMDAT ??1HTTPObserver@@UAE@XZ
_TEXT	SEGMENT PARA USE32 PUBLIC 'CODE'
_TEXT	ENDS
;	COMDAT ?HTTPOb_DownStart@HTTPObserver@@UAEXPBD0I@Z
_TEXT	SEGMENT PARA USE32 PUBLIC 'CODE'
_TEXT	ENDS
;	COMDAT ?HTTPOb_DownFinish@HTTPObserver@@UAEXPBD@Z
_TEXT	SEGMENT PARA USE32 PUBLIC 'CODE'
_TEXT	ENDS
;	COMDAT ?HTTPOb_DownFailed@HTTPObserver@@UAEXPBDW4HTTP_DOWN_FAILED_REASON@@@Z
_TEXT	SEGMENT PARA USE32 PUBLIC 'CODE'
_TEXT	ENDS
;	COMDAT ?HTTPOb_DownProgress@HTTPObserver@@UAEXPBDII@Z
_TEXT	SEGMENT PARA USE32 PUBLIC 'CODE'
_TEXT	ENDS
;	COMDAT ?HTTPOb_DownloadPause@HTTPObserver@@UAEXPBD@Z
_TEXT	SEGMENT PARA USE32 PUBLIC 'CODE'
_TEXT	ENDS
;	COMDAT ??_GHTTPObserver@@UAEPAXI@Z
_TEXT	SEGMENT PARA USE32 PUBLIC 'CODE'
_TEXT	ENDS
;	COMDAT ?GetClsid@CShockwaveFlash@@QAEABU_GUID@@XZ
_TEXT	SEGMENT PARA USE32 PUBLIC 'CODE'
_TEXT	ENDS
;	COMDAT ??0CCustomControlSite@@QAE@PAVCOleControlContainer@@@Z
_TEXT	SEGMENT PARA USE32 PUBLIC 'CODE'
_TEXT	ENDS
;	COMDAT ??_GCCustomControlSite@@UAEPAXI@Z
_TEXT	SEGMENT PARA USE32 PUBLIC 'CODE'
_TEXT	ENDS
;	COMDAT ??0XDocHostShowUI@CCustomControlSite@@QAE@XZ
_TEXT	SEGMENT PARA USE32 PUBLIC 'CODE'
_TEXT	ENDS
;	COMDAT ??0XDocHostUIHandler@CCustomControlSite@@QAE@XZ
_TEXT	SEGMENT PARA USE32 PUBLIC 'CODE'
_TEXT	ENDS
;	COMDAT ??1CCustomControlSite@@UAE@XZ
_TEXT	SEGMENT PARA USE32 PUBLIC 'CODE'
_TEXT	ENDS
;	COMDAT ??0IDocHostShowUI@@QAE@XZ
_TEXT	SEGMENT PARA USE32 PUBLIC 'CODE'
_TEXT	ENDS
;	COMDAT ??0IDocHostUIHandler@@QAE@XZ
_TEXT	SEGMENT PARA USE32 PUBLIC 'CODE'
_TEXT	ENDS
;	COMDAT ?CreateSite@CCustomOccManager@@UAEPAVCOleControlSite@@PAVCOleControlContainer@@@Z
_TEXT	SEGMENT PARA USE32 PUBLIC 'CODE'
_TEXT	ENDS
;	COMDAT ??_GCCustomOccManager@@UAEPAXI@Z
_TEXT	SEGMENT PARA USE32 PUBLIC 'CODE'
_TEXT	ENDS
;	COMDAT ??0COccManager@@QAE@XZ
_TEXT	SEGMENT PARA USE32 PUBLIC 'CODE'
_TEXT	ENDS
;	COMDAT ??1COccManager@@UAE@XZ
_TEXT	SEGMENT PARA USE32 PUBLIC 'CODE'
_TEXT	ENDS
;	COMDAT ??1CCustomOccManager@@UAE@XZ
_TEXT	SEGMENT PARA USE32 PUBLIC 'CODE'
_TEXT	ENDS
;	COMDAT ??_GCOccManager@@UAEPAXI@Z
_TEXT	SEGMENT PARA USE32 PUBLIC 'CODE'
_TEXT	ENDS
;	COMDAT ??0CNoTrackObject@@QAE@XZ
_TEXT	SEGMENT PARA USE32 PUBLIC 'CODE'
_TEXT	ENDS
;	COMDAT ??1_tagLMCItemInfo@@QAE@XZ
_TEXT	SEGMENT PARA USE32 PUBLIC 'CODE'
_TEXT	ENDS
;	COMDAT ??1BCMenuMemDC@@UAE@XZ
_TEXT	SEGMENT PARA USE32 PUBLIC 'CODE'
_TEXT	ENDS
;	COMDAT ??_GBCMenuMemDC@@UAEPAXI@Z
_TEXT	SEGMENT PARA USE32 PUBLIC 'CODE'
_TEXT	ENDS
;	COMDAT ??1CGdiPlusBitmap@@UAE@XZ
_TEXT	SEGMENT PARA USE32 PUBLIC 'CODE'
_TEXT	ENDS
;	COMDAT ?Empty@CGdiPlusBitmap@@QAEXXZ
_TEXT	SEGMENT PARA USE32 PUBLIC 'CODE'
_TEXT	ENDS
;	COMDAT ?Load@CGdiPlusBitmap@@QAE_NPB_W@Z
_TEXT	SEGMENT PARA USE32 PUBLIC 'CODE'
_TEXT	ENDS
;	COMDAT ??_GCGdiPlusBitmap@@UAEPAXI@Z
_TEXT	SEGMENT PARA USE32 PUBLIC 'CODE'
_TEXT	ENDS
;	COMDAT _$E5
text$yc	SEGMENT PARA USE32 PUBLIC 'CODE'
text$yc	ENDS
;	COMDAT ??_GCTabPageControl@@UAEPAXI@Z
_TEXT	SEGMENT PARA USE32 PUBLIC 'CODE'
_TEXT	ENDS
;	COMDAT ??0ITabBarObserver@@QAE@XZ
_TEXT	SEGMENT PARA USE32 PUBLIC 'CODE'
_TEXT	ENDS
;	COMDAT ??1ITabBarObserver@@UAE@XZ
_TEXT	SEGMENT PARA USE32 PUBLIC 'CODE'
_TEXT	ENDS
;	COMDAT ??_GITabBarObserver@@UAEPAXI@Z
_TEXT	SEGMENT PARA USE32 PUBLIC 'CODE'
_TEXT	ENDS
;	COMDAT ??0IMessageObserver@@QAE@XZ
_TEXT	SEGMENT PARA USE32 PUBLIC 'CODE'
_TEXT	ENDS
;	COMDAT ??0TAB_ITEM@@QAE@ABU0@@Z
_TEXT	SEGMENT PARA USE32 PUBLIC 'CODE'
_TEXT	ENDS
;	COMDAT ??1TAB_ITEM@@QAE@XZ
_TEXT	SEGMENT PARA USE32 PUBLIC 'CODE'
_TEXT	ENDS
;	COMDAT ??1?$pair@UTAB_ITEM@@PAVCWnd@@@std@@QAE@XZ
_TEXT	SEGMENT PARA USE32 PUBLIC 'CODE'
_TEXT	ENDS
;	COMDAT ??4TAB_ITEM@@QAEAAU0@ABU0@@Z
_TEXT	SEGMENT PARA USE32 PUBLIC 'CODE'
_TEXT	ENDS
;	COMDAT ??0TAB_ITEM@@QAE@XZ
_TEXT	SEGMENT PARA USE32 PUBLIC 'CODE'
_TEXT	ENDS
;	COMDAT ??HATL@@YA?AV?$CStringT@DV?$StrTraitMFC_DLL@DV?$ChTraitsCRT@D@ATL@@@@@0@PBDABV10@@Z
_TEXT	SEGMENT PARA USE32 PUBLIC 'CODE'
_TEXT	ENDS
;	COMDAT ??9ATL@@YA_NABV?$CStringT@DV?$StrTraitMFC_DLL@DV?$ChTraitsCRT@D@ATL@@@@@0@PBD@Z
_TEXT	SEGMENT PARA USE32 PUBLIC 'CODE'
_TEXT	ENDS
;	COMDAT ??B?$CComPtrBase@UITypeInfo2@@@ATL@@QBEPAUITypeInfo2@@XZ
_TEXT	SEGMENT PARA USE32 PUBLIC 'CODE'
_TEXT	ENDS
;	COMDAT ??B?$CComPtrBase@UIHTMLDocument2@@@ATL@@QBEPAUIHTMLDocument2@@XZ
_TEXT	SEGMENT PARA USE32 PUBLIC 'CODE'
_TEXT	ENDS
;	COMDAT ?equal@?$istreambuf_iterator@DU?$char_traits@D@std@@@std@@QBE_NABV12@@Z
_TEXT	SEGMENT PARA USE32 PUBLIC 'CODE'
_TEXT	ENDS
;	COMDAT ?equal@?$istreambuf_iterator@_WU?$char_traits@_W@std@@@std@@QBE_NABV12@@Z
_TEXT	SEGMENT PARA USE32 PUBLIC 'CODE'
_TEXT	ENDS
;	COMDAT ??0?$vector@U?$pair@UTAB_ITEM@@PAVCWnd@@@std@@V?$allocator@U?$pair@UTAB_ITEM@@PAVCWnd@@@std@@@2@@std@@QAE@XZ
_TEXT	SEGMENT PARA USE32 PUBLIC 'CODE'
_TEXT	ENDS
;	COMDAT ??1?$vector@U?$pair@UTAB_ITEM@@PAVCWnd@@@std@@V?$allocator@U?$pair@UTAB_ITEM@@PAVCWnd@@@std@@@2@@std@@QAE@XZ
_TEXT	SEGMENT PARA USE32 PUBLIC 'CODE'
_TEXT	ENDS
;	COMDAT ?begin@?$vector@U?$pair@UTAB_ITEM@@PAVCWnd@@@std@@V?$allocator@U?$pair@UTAB_ITEM@@PAVCWnd@@@std@@@2@@std@@QAE?AViterator@12@XZ
_TEXT	SEGMENT PARA USE32 PUBLIC 'CODE'
_TEXT	ENDS
;	COMDAT ?end@?$vector@U?$pair@UTAB_ITEM@@PAVCWnd@@@std@@V?$allocator@U?$pair@UTAB_ITEM@@PAVCWnd@@@std@@@2@@std@@QAE?AViterator@12@XZ
_TEXT	SEGMENT PARA USE32 PUBLIC 'CODE'
_TEXT	ENDS
;	COMDAT ?size@?$vector@U?$pair@UTAB_ITEM@@PAVCWnd@@@std@@V?$allocator@U?$pair@UTAB_ITEM@@PAVCWnd@@@std@@@2@@std@@QBEIXZ
_TEXT	SEGMENT PARA USE32 PUBLIC 'CODE'
_TEXT	ENDS
;	COMDAT ?push_back@?$vector@U?$pair@UTAB_ITEM@@PAVCWnd@@@std@@V?$allocator@U?$pair@UTAB_ITEM@@PAVCWnd@@@std@@@2@@std@@QAEXABU?$pair@UTAB_ITEM@@PAVCWnd@@@2@@Z
_TEXT	SEGMENT PARA USE32 PUBLIC 'CODE'
_TEXT	ENDS
;	COMDAT ?erase@?$vector@U?$pair@UTAB_ITEM@@PAVCWnd@@@std@@V?$allocator@U?$pair@UTAB_ITEM@@PAVCWnd@@@std@@@2@@std@@QAE?AViterator@12@V312@@Z
_TEXT	SEGMENT PARA USE32 PUBLIC 'CODE'
_TEXT	ENDS
;	COMDAT ??0?$pair@UTAB_ITEM@@PAVCWnd@@@std@@QAE@XZ
_TEXT	SEGMENT PARA USE32 PUBLIC 'CODE'
_TEXT	ENDS
;	COMDAT ??Citerator@?$vector@U?$pair@UTAB_ITEM@@PAVCWnd@@@std@@V?$allocator@U?$pair@UTAB_ITEM@@PAVCWnd@@@std@@@2@@std@@QBEPAU?$pair@UTAB_ITEM@@PAVCWnd@@@2@XZ
_TEXT	SEGMENT PARA USE32 PUBLIC 'CODE'
_TEXT	ENDS
;	COMDAT ??Eiterator@?$vector@U?$pair@UTAB_ITEM@@PAVCWnd@@@std@@V?$allocator@U?$pair@UTAB_ITEM@@PAVCWnd@@@std@@@2@@std@@QAE?AV012@H@Z
_TEXT	SEGMENT PARA USE32 PUBLIC 'CODE'
_TEXT	ENDS
;	COMDAT ??9const_iterator@?$vector@U?$pair@UTAB_ITEM@@PAVCWnd@@@std@@V?$allocator@U?$pair@UTAB_ITEM@@PAVCWnd@@@std@@@2@@std@@QBE_NABV012@@Z
_TEXT	SEGMENT PARA USE32 PUBLIC 'CODE'
_TEXT	ENDS
;	COMDAT ?StringCompare@?$ChTraitsCRT@D@ATL@@SAHPBD0@Z
_TEXT	SEGMENT PARA USE32 PUBLIC 'CODE'
_TEXT	ENDS
;	COMDAT ?StringFindChar@?$ChTraitsCRT@D@ATL@@SAPBDPBDD@Z
_TEXT	SEGMENT PARA USE32 PUBLIC 'CODE'
_TEXT	ENDS
;	COMDAT ?StringSpanIncluding@?$ChTraitsCRT@D@ATL@@SAHPBD0@Z
_TEXT	SEGMENT PARA USE32 PUBLIC 'CODE'
_TEXT	ENDS
;	COMDAT ?StringSpanExcluding@?$ChTraitsCRT@D@ATL@@SAHPBD0@Z
_TEXT	SEGMENT PARA USE32 PUBLIC 'CODE'
_TEXT	ENDS
;	COMDAT ?capacity@?$vector@U?$pair@UTAB_ITEM@@PAVCWnd@@@std@@V?$allocator@U?$pair@UTAB_ITEM@@PAVCWnd@@@std@@@2@@std@@QBEIXZ
_TEXT	SEGMENT PARA USE32 PUBLIC 'CODE'
_TEXT	ENDS
;	COMDAT ?insert@?$vector@U?$pair@UTAB_ITEM@@PAVCWnd@@@std@@V?$allocator@U?$pair@UTAB_ITEM@@PAVCWnd@@@std@@@2@@std@@QAE?AViterator@12@V312@ABU?$pair@UTAB_ITEM@@PAVCWnd@@@2@@Z
_TEXT	SEGMENT PARA USE32 PUBLIC 'CODE'
_TEXT	ENDS
;	COMDAT ?_Buy@?$vector@U?$pair@UTAB_ITEM@@PAVCWnd@@@std@@V?$allocator@U?$pair@UTAB_ITEM@@PAVCWnd@@@std@@@2@@std@@IAE_NI@Z
_TEXT	SEGMENT PARA USE32 PUBLIC 'CODE'
_TEXT	ENDS
;	COMDAT ?_Destroy@?$vector@U?$pair@UTAB_ITEM@@PAVCWnd@@@std@@V?$allocator@U?$pair@UTAB_ITEM@@PAVCWnd@@@std@@@2@@std@@IAEXPAU?$pair@UTAB_ITEM@@PAVCWnd@@@2@0@Z
_TEXT	SEGMENT PARA USE32 PUBLIC 'CODE'
_TEXT	ENDS
;	COMDAT ?_Tidy@?$vector@U?$pair@UTAB_ITEM@@PAVCWnd@@@std@@V?$allocator@U?$pair@UTAB_ITEM@@PAVCWnd@@@std@@@2@@std@@IAEXXZ
_TEXT	SEGMENT PARA USE32 PUBLIC 'CODE'
_TEXT	ENDS
;	COMDAT ?_Ufill@?$vector@U?$pair@UTAB_ITEM@@PAVCWnd@@@std@@V?$allocator@U?$pair@UTAB_ITEM@@PAVCWnd@@@std@@@2@@std@@IAEPAU?$pair@UTAB_ITEM@@PAVCWnd@@@2@PAU32@IABU32@@Z
_TEXT	SEGMENT PARA USE32 PUBLIC 'CODE'
_TEXT	ENDS
;	COMDAT ??0?$_Vector_val@U?$pair@UTAB_ITEM@@PAVCWnd@@@std@@V?$allocator@U?$pair@UTAB_ITEM@@PAVCWnd@@@std@@@2@@std@@IAE@V?$allocator@U?$pair@UTAB_ITEM@@PAVCWnd@@@std@@@1@@Z
_TEXT	SEGMENT PARA USE32 PUBLIC 'CODE'
_TEXT	ENDS
;	COMDAT ??0?$allocator@U?$pair@UTAB_ITEM@@PAVCWnd@@@std@@@std@@QAE@XZ
_TEXT	SEGMENT PARA USE32 PUBLIC 'CODE'
_TEXT	ENDS
;	COMDAT ??0iterator@?$vector@U?$pair@UTAB_ITEM@@PAVCWnd@@@std@@V?$allocator@U?$pair@UTAB_ITEM@@PAVCWnd@@@std@@@2@@std@@QAE@PAU?$pair@UTAB_ITEM@@PAVCWnd@@@2@@Z
_TEXT	SEGMENT PARA USE32 PUBLIC 'CODE'
_TEXT	ENDS
;	COMDAT ??Diterator@?$vector@U?$pair@UTAB_ITEM@@PAVCWnd@@@std@@V?$allocator@U?$pair@UTAB_ITEM@@PAVCWnd@@@std@@@2@@std@@QBEAAU?$pair@UTAB_ITEM@@PAVCWnd@@@2@XZ
_TEXT	SEGMENT PARA USE32 PUBLIC 'CODE'
_TEXT	ENDS
;	COMDAT ??Eiterator@?$vector@U?$pair@UTAB_ITEM@@PAVCWnd@@@std@@V?$allocator@U?$pair@UTAB_ITEM@@PAVCWnd@@@std@@@2@@std@@QAEAAV012@XZ
_TEXT	SEGMENT PARA USE32 PUBLIC 'CODE'
_TEXT	ENDS
;	COMDAT ??8const_iterator@?$vector@U?$pair@UTAB_ITEM@@PAVCWnd@@@std@@V?$allocator@U?$pair@UTAB_ITEM@@PAVCWnd@@@std@@@2@@std@@QBE_NABV012@@Z
_TEXT	SEGMENT PARA USE32 PUBLIC 'CODE'
_TEXT	ENDS
;	COMDAT ??0iterator@?$basic_string@DU?$char_traits@D@std@@V?$allocator@D@2@@std@@QAE@PAD@Z
_TEXT	SEGMENT PARA USE32 PUBLIC 'CODE'
_TEXT	ENDS
;	COMDAT ?max_size@?$vector@U?$pair@UTAB_ITEM@@PAVCWnd@@@std@@V?$allocator@U?$pair@UTAB_ITEM@@PAVCWnd@@@std@@@2@@std@@QBEIXZ
_TEXT	SEGMENT PARA USE32 PUBLIC 'CODE'
_TEXT	ENDS
;	COMDAT ?_Insert_n@?$vector@U?$pair@UTAB_ITEM@@PAVCWnd@@@std@@V?$allocator@U?$pair@UTAB_ITEM@@PAVCWnd@@@std@@@2@@std@@IAEXViterator@12@IABU?$pair@UTAB_ITEM@@PAVCWnd@@@2@@Z
_TEXT	SEGMENT PARA USE32 PUBLIC 'CODE'
_TEXT	ENDS
;	COMDAT ?_Xlen@?$vector@U?$pair@UTAB_ITEM@@PAVCWnd@@@std@@V?$allocator@U?$pair@UTAB_ITEM@@PAVCWnd@@@std@@@2@@std@@IBEXXZ
_TEXT	SEGMENT PARA USE32 PUBLIC 'CODE'
_TEXT	ENDS
;	COMDAT ??0?$allocator@U?$pair@UTAB_ITEM@@PAVCWnd@@@std@@@std@@QAE@ABV01@@Z
_TEXT	SEGMENT PARA USE32 PUBLIC 'CODE'
_TEXT	ENDS
;	COMDAT ?deallocate@?$allocator@U?$pair@UTAB_ITEM@@PAVCWnd@@@std@@@std@@QAEXPAU?$pair@UTAB_ITEM@@PAVCWnd@@@2@I@Z
_TEXT	SEGMENT PARA USE32 PUBLIC 'CODE'
_TEXT	ENDS
;	COMDAT ?allocate@?$allocator@U?$pair@UTAB_ITEM@@PAVCWnd@@@std@@@std@@QAEPAU?$pair@UTAB_ITEM@@PAVCWnd@@@2@I@Z
_TEXT	SEGMENT PARA USE32 PUBLIC 'CODE'
_TEXT	ENDS
;	COMDAT ??Hiterator@?$vector@U?$pair@UTAB_ITEM@@PAVCWnd@@@std@@V?$allocator@U?$pair@UTAB_ITEM@@PAVCWnd@@@std@@@2@@std@@QBE?AV012@H@Z
_TEXT	SEGMENT PARA USE32 PUBLIC 'CODE'
_TEXT	ENDS
;	COMDAT ??Giterator@?$vector@U?$pair@UTAB_ITEM@@PAVCWnd@@@std@@V?$allocator@U?$pair@UTAB_ITEM@@PAVCWnd@@@std@@@2@@std@@QBEHABVconst_iterator@12@@Z
_TEXT	SEGMENT PARA USE32 PUBLIC 'CODE'
_TEXT	ENDS
;	COMDAT ??0const_iterator@?$vector@U?$pair@UTAB_ITEM@@PAVCWnd@@@std@@V?$allocator@U?$pair@UTAB_ITEM@@PAVCWnd@@@std@@@2@@std@@QAE@PAU?$pair@UTAB_ITEM@@PAVCWnd@@@2@@Z
_TEXT	SEGMENT PARA USE32 PUBLIC 'CODE'
_TEXT	ENDS
;	COMDAT ??Dconst_iterator@?$vector@U?$pair@UTAB_ITEM@@PAVCWnd@@@std@@V?$allocator@U?$pair@UTAB_ITEM@@PAVCWnd@@@std@@@2@@std@@QBEABU?$pair@UTAB_ITEM@@PAVCWnd@@@2@XZ
_TEXT	SEGMENT PARA USE32 PUBLIC 'CODE'
_TEXT	ENDS
;	COMDAT ??0?$pair@UTAB_ITEM@@PAVCWnd@@@std@@QAE@ABU01@@Z
_TEXT	SEGMENT PARA USE32 PUBLIC 'CODE'
_TEXT	ENDS
;	COMDAT ??0length_error@std@@QAE@ABV01@@Z
_TEXT	SEGMENT PARA USE32 PUBLIC 'CODE'
_TEXT	ENDS
;	COMDAT ??0const_iterator@?$basic_string@DU?$char_traits@D@std@@V?$allocator@D@2@@std@@QAE@PBD@Z
_TEXT	SEGMENT PARA USE32 PUBLIC 'CODE'
_TEXT	ENDS
;	COMDAT ??Gconst_iterator@?$basic_string@DU?$char_traits@D@std@@V?$allocator@D@2@@std@@QBEHABV012@@Z
_TEXT	SEGMENT PARA USE32 PUBLIC 'CODE'
_TEXT	ENDS
;	COMDAT ?max_size@?$allocator@U?$pair@UTAB_ITEM@@PAVCWnd@@@std@@@std@@QBEIXZ
_TEXT	SEGMENT PARA USE32 PUBLIC 'CODE'
_TEXT	ENDS
;	COMDAT ??Yiterator@?$vector@U?$pair@UTAB_ITEM@@PAVCWnd@@@std@@V?$allocator@U?$pair@UTAB_ITEM@@PAVCWnd@@@std@@@2@@std@@QAEAAV012@H@Z
_TEXT	SEGMENT PARA USE32 PUBLIC 'CODE'
_TEXT	ENDS
;	COMDAT ??Gconst_iterator@?$vector@U?$pair@UTAB_ITEM@@PAVCWnd@@@std@@V?$allocator@U?$pair@UTAB_ITEM@@PAVCWnd@@@std@@@2@@std@@QBEHABV012@@Z
_TEXT	SEGMENT PARA USE32 PUBLIC 'CODE'
_TEXT	ENDS
;	COMDAT ?Unlock@?$CComCritSecLock@VCComCriticalSection@ATL@@@ATL@@QAEXXZ
_TEXT	SEGMENT PARA USE32 PUBLIC 'CODE'
_TEXT	ENDS
;	COMDAT ??$AtlAlignUp@H@ATL@@YGHHK@Z
_TEXT	SEGMENT PARA USE32 PUBLIC 'CODE'
_TEXT	ENDS
;	COMDAT ??1?$CArray@HAAH@@UAE@XZ
_TEXT	SEGMENT PARA USE32 PUBLIC 'CODE'
_TEXT	ENDS
;	COMDAT ?Serialize@?$CArray@HAAH@@UAEXAAVCArchive@@@Z
_TEXT	SEGMENT PARA USE32 PUBLIC 'CODE'
_TEXT	ENDS
;	COMDAT ?Dump@?$CArray@HAAH@@UBEXAAVCDumpContext@@@Z
_TEXT	SEGMENT PARA USE32 PUBLIC 'CODE'
_TEXT	ENDS
;	COMDAT ?AssertValid@?$CArray@HAAH@@UBEXXZ
_TEXT	SEGMENT PARA USE32 PUBLIC 'CODE'
_TEXT	ENDS
;	COMDAT ??$copy@PAU?$pair@UTAB_ITEM@@PAVCWnd@@@std@@PAU12@@std@@YAPAU?$pair@UTAB_ITEM@@PAVCWnd@@@0@PAU10@00@Z
_TEXT	SEGMENT PARA USE32 PUBLIC 'CODE'
_TEXT	ENDS
;	COMDAT ??$_Destroy_range@U?$pair@UTAB_ITEM@@PAVCWnd@@@std@@V?$allocator@U?$pair@UTAB_ITEM@@PAVCWnd@@@std@@@2@@std@@YAXPAU?$pair@UTAB_ITEM@@PAVCWnd@@@0@0AAV?$allocator@U?$pair@UTAB_ITEM@@PAVCWnd@@@std@@@0@@Z
_TEXT	SEGMENT PARA USE32 PUBLIC 'CODE'
_TEXT	ENDS
;	COMDAT ??$_Uninitialized_fill_n@PAU?$pair@UTAB_ITEM@@PAVCWnd@@@std@@IU12@V?$allocator@U?$pair@UTAB_ITEM@@PAVCWnd@@@std@@@2@@std@@YAXPAU?$pair@UTAB_ITEM@@PAVCWnd@@@0@IABU10@AAV?$allocator@U?$pair@UTAB_ITEM@@PAVCWnd@@@std@@@0@@Z
_TEXT	SEGMENT PARA USE32 PUBLIC 'CODE'
_TEXT	ENDS
;	COMDAT ??$_Maklocstr@D@std@@YAPADPBDPADABU_Cvtvec@@@Z
_TEXT	SEGMENT PARA USE32 PUBLIC 'CODE'
_TEXT	ENDS
;	COMDAT ??$_Ucopy@PAU?$pair@UTAB_ITEM@@PAVCWnd@@@std@@@?$vector@U?$pair@UTAB_ITEM@@PAVCWnd@@@std@@V?$allocator@U?$pair@UTAB_ITEM@@PAVCWnd@@@std@@@2@@std@@IAEPAU?$pair@UTAB_ITEM@@PAVCWnd@@@1@PAU21@00@Z
_TEXT	SEGMENT PARA USE32 PUBLIC 'CODE'
_TEXT	ENDS
;	COMDAT ??$fill@PAU?$pair@UTAB_ITEM@@PAVCWnd@@@std@@U12@@std@@YAXPAU?$pair@UTAB_ITEM@@PAVCWnd@@@0@0ABU10@@Z
_TEXT	SEGMENT PARA USE32 PUBLIC 'CODE'
_TEXT	ENDS
;	COMDAT ??$copy_backward@PAU?$pair@UTAB_ITEM@@PAVCWnd@@@std@@PAU12@@std@@YAPAU?$pair@UTAB_ITEM@@PAVCWnd@@@0@PAU10@00@Z
_TEXT	SEGMENT PARA USE32 PUBLIC 'CODE'
_TEXT	ENDS
;	COMDAT ??$_Allocate@U?$pair@UTAB_ITEM@@PAVCWnd@@@std@@@std@@YAPAU?$pair@UTAB_ITEM@@PAVCWnd@@@0@IPAU10@@Z
_TEXT	SEGMENT PARA USE32 PUBLIC 'CODE'
_TEXT	ENDS
;	COMDAT ??_G?$CArray@HAAH@@UAEPAXI@Z
_TEXT	SEGMENT PARA USE32 PUBLIC 'CODE'
_TEXT	ENDS
;	COMDAT ??4?$pair@UTAB_ITEM@@PAVCWnd@@@std@@QAEAAU01@ABU01@@Z
_TEXT	SEGMENT PARA USE32 PUBLIC 'CODE'
_TEXT	ENDS
;	COMDAT ?SetSize@?$CArray@HAAH@@QAEXHH@Z
_TEXT	SEGMENT PARA USE32 PUBLIC 'CODE'
_TEXT	ENDS
;	COMDAT ??$SerializeElements@H@@YGXAAVCArchive@@PAHH@Z
_TEXT	SEGMENT PARA USE32 PUBLIC 'CODE'
_TEXT	ENDS
;	COMDAT ??$DumpElements@H@@YGXAAVCDumpContext@@PBHH@Z
_TEXT	SEGMENT PARA USE32 PUBLIC 'CODE'
_TEXT	ENDS
;	COMDAT ??$_Ptr_cat@PAU?$pair@UTAB_ITEM@@PAVCWnd@@@std@@PAU12@@std@@YA?AU_Nonscalar_ptr_iterator_tag@0@AAPAU?$pair@UTAB_ITEM@@PAVCWnd@@@0@0@Z
_TEXT	SEGMENT PARA USE32 PUBLIC 'CODE'
_TEXT	ENDS
;	COMDAT ??$_Copy_opt@PAU?$pair@UTAB_ITEM@@PAVCWnd@@@std@@PAU12@@std@@YAPAU?$pair@UTAB_ITEM@@PAVCWnd@@@0@PAU10@00U_Nonscalar_ptr_iterator_tag@0@@Z
_TEXT	SEGMENT PARA USE32 PUBLIC 'CODE'
_TEXT	ENDS
;	COMDAT ??$_Destroy_range@U?$pair@UTAB_ITEM@@PAVCWnd@@@std@@V?$allocator@U?$pair@UTAB_ITEM@@PAVCWnd@@@std@@@2@@std@@YAXPAU?$pair@UTAB_ITEM@@PAVCWnd@@@0@0AAV?$allocator@U?$pair@UTAB_ITEM@@PAVCWnd@@@std@@@0@U_Nonscalar_ptr_iterator_tag@0@@Z
_TEXT	SEGMENT PARA USE32 PUBLIC 'CODE'
_TEXT	ENDS
;	COMDAT ??$_Uninit_fill_n@PAU?$pair@UTAB_ITEM@@PAVCWnd@@@std@@IU12@V?$allocator@U?$pair@UTAB_ITEM@@PAVCWnd@@@std@@@2@@std@@YAXPAU?$pair@UTAB_ITEM@@PAVCWnd@@@0@IABU10@AAV?$allocator@U?$pair@UTAB_ITEM@@PAVCWnd@@@std@@@0@U_Nonscalar_ptr_iterator_tag@0@@Z
_TEXT	SEGMENT PARA USE32 PUBLIC 'CODE'
_TEXT	ENDS
;	COMDAT ??$_Uninitialized_copy@PAU?$pair@UTAB_ITEM@@PAVCWnd@@@std@@PAU12@V?$allocator@U?$pair@UTAB_ITEM@@PAVCWnd@@@std@@@2@@std@@YAPAU?$pair@UTAB_ITEM@@PAVCWnd@@@0@PAU10@00AAV?$allocator@U?$pair@UTAB_ITEM@@PAVCWnd@@@std@@@0@@Z
_TEXT	SEGMENT PARA USE32 PUBLIC 'CODE'
_TEXT	ENDS
;	COMDAT ??$_Copy_backward_opt@PAU?$pair@UTAB_ITEM@@PAVCWnd@@@std@@PAU12@@std@@YAPAU?$pair@UTAB_ITEM@@PAVCWnd@@@0@PAU10@00U_Nonscalar_ptr_iterator_tag@0@@Z
_TEXT	SEGMENT PARA USE32 PUBLIC 'CODE'
_TEXT	ENDS
;	COMDAT ?construct@?$allocator@U?$pair@UTAB_ITEM@@PAVCWnd@@@std@@@std@@QAEXPAU?$pair@UTAB_ITEM@@PAVCWnd@@@2@ABU32@@Z
_TEXT	SEGMENT PARA USE32 PUBLIC 'CODE'
_TEXT	ENDS
;	COMDAT ?destroy@?$allocator@U?$pair@UTAB_ITEM@@PAVCWnd@@@std@@@std@@QAEXPAU?$pair@UTAB_ITEM@@PAVCWnd@@@2@@Z
_TEXT	SEGMENT PARA USE32 PUBLIC 'CODE'
_TEXT	ENDS
;	COMDAT ??$_Uninit_copy@PAU?$pair@UTAB_ITEM@@PAVCWnd@@@std@@PAU12@V?$allocator@U?$pair@UTAB_ITEM@@PAVCWnd@@@std@@@2@@std@@YAPAU?$pair@UTAB_ITEM@@PAVCWnd@@@0@PAU10@00AAV?$allocator@U?$pair@UTAB_ITEM@@PAVCWnd@@@std@@@0@U_Nonscalar_ptr_iterator_tag@0@@Z
_TEXT	SEGMENT PARA USE32 PUBLIC 'CODE'
_TEXT	ENDS
;	COMDAT ??$_Construct@U?$pair@UTAB_ITEM@@PAVCWnd@@@std@@U12@@std@@YAXPAU?$pair@UTAB_ITEM@@PAVCWnd@@@0@ABU10@@Z
_TEXT	SEGMENT PARA USE32 PUBLIC 'CODE'
_TEXT	ENDS
;	COMDAT ??$_Destroy@U?$pair@UTAB_ITEM@@PAVCWnd@@@std@@@std@@YAXPAU?$pair@UTAB_ITEM@@PAVCWnd@@@0@@Z
_TEXT	SEGMENT PARA USE32 PUBLIC 'CODE'
_TEXT	ENDS
;	COMDAT ??_G?$pair@UTAB_ITEM@@PAVCWnd@@@std@@QAEPAXI@Z
_TEXT	SEGMENT PARA USE32 PUBLIC 'CODE'
_TEXT	ENDS
;	COMDAT ??_R3HTTPObserver@@8
rdata$r	SEGMENT DWORD USE32 PUBLIC 'CONST'
rdata$r	ENDS
;	COMDAT ??_R3IDocHostShowUI@@8
rdata$r	SEGMENT DWORD USE32 PUBLIC 'CONST'
rdata$r	ENDS
;	COMDAT ??_R3COccManager@@8
rdata$r	SEGMENT DWORD USE32 PUBLIC 'CONST'
rdata$r	ENDS
;	COMDAT ??_R3IDocHostUIHandler@@8
rdata$r	SEGMENT DWORD USE32 PUBLIC 'CONST'
rdata$r	ENDS
;	COMDAT ??_R3CCustomOccManager@@8
rdata$r	SEGMENT DWORD USE32 PUBLIC 'CONST'
rdata$r	ENDS
;	COMDAT ??_R3?$numpunct@_W@std@@8
rdata$r	SEGMENT DWORD USE32 PUBLIC 'CONST'
rdata$r	ENDS
;	COMDAT ??_R3?$numpunct@D@std@@8
rdata$r	SEGMENT DWORD USE32 PUBLIC 'CONST'
rdata$r	ENDS
;	COMDAT ??_R3IData@@8
rdata$r	SEGMENT DWORD USE32 PUBLIC 'CONST'
rdata$r	ENDS
;	COMDAT ??_R3BCMenuMemDC@@8
rdata$r	SEGMENT DWORD USE32 PUBLIC 'CONST'
rdata$r	ENDS
;	COMDAT ??_R3CAtlStringMgr@ATL@@8
rdata$r	SEGMENT DWORD USE32 PUBLIC 'CONST'
rdata$r	ENDS
;	COMDAT ??_R3CGdiPlusBitmap@@8
rdata$r	SEGMENT DWORD USE32 PUBLIC 'CONST'
rdata$r	ENDS
;	COMDAT ??_R3XDocHostUIHandler@CCustomControlSite@@8
rdata$r	SEGMENT DWORD USE32 PUBLIC 'CONST'
rdata$r	ENDS
;	COMDAT ??_R3CTabPageControl@@8
rdata$r	SEGMENT DWORD USE32 PUBLIC 'CONST'
rdata$r	ENDS
;	COMDAT ??_R3XDocHostShowUI@CCustomControlSite@@8
rdata$r	SEGMENT DWORD USE32 PUBLIC 'CONST'
rdata$r	ENDS
;	COMDAT ??_R3CCustomControlSite@@8
rdata$r	SEGMENT DWORD USE32 PUBLIC 'CONST'
rdata$r	ENDS
;	COMDAT ??_R3?$CArray@HAAH@@8
rdata$r	SEGMENT DWORD USE32 PUBLIC 'CONST'
rdata$r	ENDS
;	COMDAT ??_R3ITabBarObserver@@8
rdata$r	SEGMENT DWORD USE32 PUBLIC 'CONST'
rdata$r	ENDS
;	COMDAT ??_R2HTTPObserver@@8
rdata$r	SEGMENT DWORD USE32 PUBLIC 'CONST'
rdata$r	ENDS
;	COMDAT ??_R2IDocHostShowUI@@8
rdata$r	SEGMENT DWORD USE32 PUBLIC 'CONST'
rdata$r	ENDS
;	COMDAT ??_R2COccManager@@8
rdata$r	SEGMENT DWORD USE32 PUBLIC 'CONST'
rdata$r	ENDS
;	COMDAT ??_R2IDocHostUIHandler@@8
rdata$r	SEGMENT DWORD USE32 PUBLIC 'CONST'
rdata$r	ENDS
;	COMDAT ??_R2CCustomOccManager@@8
rdata$r	SEGMENT DWORD USE32 PUBLIC 'CONST'
rdata$r	ENDS
;	COMDAT ??_R2?$numpunct@_W@std@@8
rdata$r	SEGMENT DWORD USE32 PUBLIC 'CONST'
rdata$r	ENDS
;	COMDAT ??_R2?$numpunct@D@std@@8
rdata$r	SEGMENT DWORD USE32 PUBLIC 'CONST'
rdata$r	ENDS
;	COMDAT ??_R2IData@@8
rdata$r	SEGMENT DWORD USE32 PUBLIC 'CONST'
rdata$r	ENDS
;	COMDAT ??_R2BCMenuMemDC@@8
rdata$r	SEGMENT DWORD USE32 PUBLIC 'CONST'
rdata$r	ENDS
;	COMDAT ??_R2CAtlStringMgr@ATL@@8
rdata$r	SEGMENT DWORD USE32 PUBLIC 'CONST'
rdata$r	ENDS
;	COMDAT ??_R2CGdiPlusBitmap@@8
rdata$r	SEGMENT DWORD USE32 PUBLIC 'CONST'
rdata$r	ENDS
;	COMDAT ??_R2XDocHostUIHandler@CCustomControlSite@@8
rdata$r	SEGMENT DWORD USE32 PUBLIC 'CONST'
rdata$r	ENDS
;	COMDAT ??_R2CTabPageControl@@8
rdata$r	SEGMENT DWORD USE32 PUBLIC 'CONST'
rdata$r	ENDS
;	COMDAT ??_R2XDocHostShowUI@CCustomControlSite@@8
rdata$r	SEGMENT DWORD USE32 PUBLIC 'CONST'
rdata$r	ENDS
;	COMDAT ??_R2CCustomControlSite@@8
rdata$r	SEGMENT DWORD USE32 PUBLIC 'CONST'
rdata$r	ENDS
;	COMDAT ??_R2?$CArray@HAAH@@8
rdata$r	SEGMENT DWORD USE32 PUBLIC 'CONST'
rdata$r	ENDS
;	COMDAT ??_R2ITabBarObserver@@8
rdata$r	SEGMENT DWORD USE32 PUBLIC 'CONST'
rdata$r	ENDS
;	COMDAT ??_R1A@?0A@A@HTTPObserver@@8
rdata$r	SEGMENT DWORD USE32 PUBLIC 'CONST'
rdata$r	ENDS
;	COMDAT ??_R1A@?0A@A@CNoTrackObject@@8
rdata$r	SEGMENT DWORD USE32 PUBLIC 'CONST'
rdata$r	ENDS
;	COMDAT ??_R0?AVCNoTrackObject@@@8
_DATA	SEGMENT DWORD USE32 PUBLIC 'DATA'
_DATA	ENDS
;	COMDAT ??_R1A@?0A@A@COccManager@@8
rdata$r	SEGMENT DWORD USE32 PUBLIC 'CONST'
rdata$r	ENDS
;	COMDAT ??_R1A@?0A@A@CCustomOccManager@@8
rdata$r	SEGMENT DWORD USE32 PUBLIC 'CONST'
rdata$r	ENDS
;	COMDAT ??_R1A@?0A@A@?$numpunct@_W@std@@8
rdata$r	SEGMENT DWORD USE32 PUBLIC 'CONST'
rdata$r	ENDS
;	COMDAT ??_R1A@?0A@A@facet@locale@std@@8
rdata$r	SEGMENT DWORD USE32 PUBLIC 'CONST'
rdata$r	ENDS
;	COMDAT ??_R0?AVfacet@locale@std@@@8
_DATA	SEGMENT DWORD USE32 PUBLIC 'DATA'
_DATA	ENDS
;	COMDAT ??_R1A@?0A@A@?$numpunct@D@std@@8
rdata$r	SEGMENT DWORD USE32 PUBLIC 'CONST'
rdata$r	ENDS
;	COMDAT ??_R1A@?0A@A@IData@@8
rdata$r	SEGMENT DWORD USE32 PUBLIC 'CONST'
rdata$r	ENDS
;	COMDAT ??_R1A@?0A@A@CDC@@8
rdata$r	SEGMENT DWORD USE32 PUBLIC 'CONST'
rdata$r	ENDS
;	COMDAT ??_R0?AVCDC@@@8
_DATA	SEGMENT DWORD USE32 PUBLIC 'DATA'
_DATA	ENDS
;	COMDAT ??_R1A@?0A@A@BCMenuMemDC@@8
rdata$r	SEGMENT DWORD USE32 PUBLIC 'CONST'
rdata$r	ENDS
;	COMDAT ??_R1A@?0A@A@IAtlStringMgr@ATL@@8
rdata$r	SEGMENT DWORD USE32 PUBLIC 'CONST'
rdata$r	ENDS
;	COMDAT ??_R0?AUIAtlStringMgr@ATL@@@8
_DATA	SEGMENT DWORD USE32 PUBLIC 'DATA'
_DATA	ENDS
;	COMDAT ??_R1A@?0A@A@CAtlStringMgr@ATL@@8
rdata$r	SEGMENT DWORD USE32 PUBLIC 'CONST'
rdata$r	ENDS
;	COMDAT ??_R1A@?0A@A@CGdiPlusBitmap@@8
rdata$r	SEGMENT DWORD USE32 PUBLIC 'CONST'
rdata$r	ENDS
;	COMDAT ??_R1A@?0A@A@IDocHostUIHandler@@8
rdata$r	SEGMENT DWORD USE32 PUBLIC 'CONST'
rdata$r	ENDS
;	COMDAT ??_R1A@?0A@A@XDocHostUIHandler@CCustomControlSite@@8
rdata$r	SEGMENT DWORD USE32 PUBLIC 'CONST'
rdata$r	ENDS
;	COMDAT ??_R1A@?0A@A@CTabPageControl@@8
rdata$r	SEGMENT DWORD USE32 PUBLIC 'CONST'
rdata$r	ENDS
;	COMDAT ??_R1A@?0A@A@IUnknown@@8
rdata$r	SEGMENT DWORD USE32 PUBLIC 'CONST'
rdata$r	ENDS
;	COMDAT ??_R0?AUIUnknown@@@8
_DATA	SEGMENT DWORD USE32 PUBLIC 'DATA'
_DATA	ENDS
;	COMDAT ??_R1A@?0A@A@IDocHostShowUI@@8
rdata$r	SEGMENT DWORD USE32 PUBLIC 'CONST'
rdata$r	ENDS
;	COMDAT ??_R1A@?0A@A@XDocHostShowUI@CCustomControlSite@@8
rdata$r	SEGMENT DWORD USE32 PUBLIC 'CONST'
rdata$r	ENDS
;	COMDAT ??_R1A@?0A@A@CCmdTarget@@8
rdata$r	SEGMENT DWORD USE32 PUBLIC 'CONST'
rdata$r	ENDS
;	COMDAT ??_R0?AVCCmdTarget@@@8
_DATA	SEGMENT DWORD USE32 PUBLIC 'DATA'
_DATA	ENDS
;	COMDAT ??_R1A@?0A@A@COleControlSite@@8
rdata$r	SEGMENT DWORD USE32 PUBLIC 'CONST'
rdata$r	ENDS
;	COMDAT ??_R1A@?0A@A@CCustomControlSite@@8
rdata$r	SEGMENT DWORD USE32 PUBLIC 'CONST'
rdata$r	ENDS
;	COMDAT ??_R1A@?0A@A@CObject@@8
rdata$r	SEGMENT DWORD USE32 PUBLIC 'CONST'
rdata$r	ENDS
;	COMDAT ??_R0?AVCObject@@@8
_DATA	SEGMENT DWORD USE32 PUBLIC 'DATA'
_DATA	ENDS
;	COMDAT ??_R1A@?0A@A@?$CArray@HAAH@@8
rdata$r	SEGMENT DWORD USE32 PUBLIC 'CONST'
rdata$r	ENDS
;	COMDAT ??_R1A@?0A@A@IMessageObserver@@8
rdata$r	SEGMENT DWORD USE32 PUBLIC 'CONST'
rdata$r	ENDS
;	COMDAT ??_R0?AVIMessageObserver@@@8
_DATA	SEGMENT DWORD USE32 PUBLIC 'DATA'
_DATA	ENDS
;	COMDAT ??_R1A@?0A@A@ITabBarObserver@@8
rdata$r	SEGMENT DWORD USE32 PUBLIC 'CONST'
rdata$r	ENDS
;	COMDAT ??_R0?AVHTTPObserver@@@8
_DATA	SEGMENT DWORD USE32 PUBLIC 'DATA'
_DATA	ENDS
;	COMDAT ??_R0?AVCOccManager@@@8
_DATA	SEGMENT DWORD USE32 PUBLIC 'DATA'
_DATA	ENDS
;	COMDAT ??_R0?AVCCustomOccManager@@@8
_DATA	SEGMENT DWORD USE32 PUBLIC 'DATA'
_DATA	ENDS
;	COMDAT ??_R0?AV?$numpunct@_W@std@@@8
_DATA	SEGMENT DWORD USE32 PUBLIC 'DATA'
_DATA	ENDS
;	COMDAT ??_R0?AV?$numpunct@D@std@@@8
_DATA	SEGMENT DWORD USE32 PUBLIC 'DATA'
_DATA	ENDS
;	COMDAT ??_R0?AVIData@@@8
_DATA	SEGMENT DWORD USE32 PUBLIC 'DATA'
_DATA	ENDS
;	COMDAT ??_R0?AVBCMenuMemDC@@@8
_DATA	SEGMENT DWORD USE32 PUBLIC 'DATA'
_DATA	ENDS
;	COMDAT ??_R0?AVCAtlStringMgr@ATL@@@8
_DATA	SEGMENT DWORD USE32 PUBLIC 'DATA'
_DATA	ENDS
;	COMDAT ??_R0?AVCGdiPlusBitmap@@@8
_DATA	SEGMENT DWORD USE32 PUBLIC 'DATA'
_DATA	ENDS
;	COMDAT ??_R0?AUIDocHostUIHandler@@@8
_DATA	SEGMENT DWORD USE32 PUBLIC 'DATA'
_DATA	ENDS
;	COMDAT ??_R0?AVXDocHostUIHandler@CCustomControlSite@@@8
_DATA	SEGMENT DWORD USE32 PUBLIC 'DATA'
_DATA	ENDS
;	COMDAT ??_R0?AVCTabPageControl@@@8
_DATA	SEGMENT DWORD USE32 PUBLIC 'DATA'
_DATA	ENDS
;	COMDAT ??_R0?AUIDocHostShowUI@@@8
_DATA	SEGMENT DWORD USE32 PUBLIC 'DATA'
_DATA	ENDS
;	COMDAT ??_R0?AVXDocHostShowUI@CCustomControlSite@@@8
_DATA	SEGMENT DWORD USE32 PUBLIC 'DATA'
_DATA	ENDS
;	COMDAT ??_R0?AVCOleControlSite@@@8
_DATA	SEGMENT DWORD USE32 PUBLIC 'DATA'
_DATA	ENDS
;	COMDAT ??_R0?AVCCustomControlSite@@@8
_DATA	SEGMENT DWORD USE32 PUBLIC 'DATA'
_DATA	ENDS
;	COMDAT ??_R0?AV?$CArray@HAAH@@@8
_DATA	SEGMENT DWORD USE32 PUBLIC 'DATA'
_DATA	ENDS
;	COMDAT ??_R0?AVITabBarObserver@@@8
_DATA	SEGMENT DWORD USE32 PUBLIC 'DATA'
_DATA	ENDS
;	COMDAT ??_R4HTTPObserver@@6B@
rdata$r	SEGMENT DWORD USE32 PUBLIC 'CONST'
rdata$r	ENDS
;	COMDAT ??_R4IDocHostShowUI@@6B@
rdata$r	SEGMENT DWORD USE32 PUBLIC 'CONST'
rdata$r	ENDS
;	COMDAT ??_R4COccManager@@6B@
rdata$r	SEGMENT DWORD USE32 PUBLIC 'CONST'
rdata$r	ENDS
;	COMDAT ??_R4IDocHostUIHandler@@6B@
rdata$r	SEGMENT DWORD USE32 PUBLIC 'CONST'
rdata$r	ENDS
;	COMDAT ??_R4CCustomOccManager@@6B@
rdata$r	SEGMENT DWORD USE32 PUBLIC 'CONST'
rdata$r	ENDS
;	COMDAT ??0?$allocator@_W@std@@QAE@XZ
_TEXT	SEGMENT PARA USE32 PUBLIC 'CODE'
_TEXT	ENDS
;	COMDAT ??_G?$numpunct@_W@std@@MAEPAXI@Z
_TEXT	SEGMENT PARA USE32 PUBLIC 'CODE'
_TEXT	ENDS
;	COMDAT ??_R4?$numpunct@_W@std@@6B@
rdata$r	SEGMENT DWORD USE32 PUBLIC 'CONST'
rdata$r	ENDS
;	COMDAT ??_G?$numpunct@D@std@@MAEPAXI@Z
_TEXT	SEGMENT PARA USE32 PUBLIC 'CODE'
_TEXT	ENDS
;	COMDAT ??_R4?$numpunct@D@std@@6B@
rdata$r	SEGMENT DWORD USE32 PUBLIC 'CONST'
rdata$r	ENDS
;	COMDAT ??_R4IData@@6B@
rdata$r	SEGMENT DWORD USE32 PUBLIC 'CONST'
rdata$r	ENDS
;	COMDAT ??_R4BCMenuMemDC@@6B@
rdata$r	SEGMENT DWORD USE32 PUBLIC 'CONST'
rdata$r	ENDS
;	COMDAT ??_R4CAtlStringMgr@ATL@@6B@
rdata$r	SEGMENT DWORD USE32 PUBLIC 'CONST'
rdata$r	ENDS
;	COMDAT ??_R4CGdiPlusBitmap@@6B@
rdata$r	SEGMENT DWORD USE32 PUBLIC 'CONST'
rdata$r	ENDS
;	COMDAT ??_R4XDocHostUIHandler@CCustomControlSite@@6B@
rdata$r	SEGMENT DWORD USE32 PUBLIC 'CONST'
rdata$r	ENDS
;	COMDAT ??_R4CTabPageControl@@6B@
rdata$r	SEGMENT DWORD USE32 PUBLIC 'CONST'
rdata$r	ENDS
;	COMDAT ??_R4XDocHostShowUI@CCustomControlSite@@6B@
rdata$r	SEGMENT DWORD USE32 PUBLIC 'CONST'
rdata$r	ENDS
;	COMDAT ??_R4CCustomControlSite@@6B@
rdata$r	SEGMENT DWORD USE32 PUBLIC 'CONST'
rdata$r	ENDS
;	COMDAT ??_R4?$CArray@HAAH@@6B@
rdata$r	SEGMENT DWORD USE32 PUBLIC 'CONST'
rdata$r	ENDS
;	COMDAT ??_R4ITabBarObserver@@6B@
rdata$r	SEGMENT DWORD USE32 PUBLIC 'CONST'
rdata$r	ENDS
;	COMDAT ??3@YAXPAX0@Z
_TEXT	SEGMENT PARA USE32 PUBLIC 'CODE'
_TEXT	ENDS
;	COMDAT ??2@YAPAXIPAX@Z
_TEXT	SEGMENT PARA USE32 PUBLIC 'CODE'
_TEXT	ENDS
;	COMDAT ??_C@_0EN@CBMLGOH@D?3?2Program?5Files?5?$CIx86?$CJ?2Microsoft@
CONST	SEGMENT DWORD USE32 PUBLIC 'CONST'
CONST	ENDS
;	COMDAT ??_7?$CArray@HAAH@@6B@
CONST	SEGMENT DWORD USE32 PUBLIC 'CONST'
CONST	ENDS
;	COMDAT ?_Psave@?$_Facetptr@V?$numpunct@_W@std@@@std@@2PBVfacet@locale@2@B
_DATA	SEGMENT DWORD USE32 PUBLIC 'DATA'
_DATA	ENDS
;	COMDAT ?_Psave@?$_Facetptr@V?$numpunct@D@std@@@std@@2PBVfacet@locale@2@B
_DATA	SEGMENT DWORD USE32 PUBLIC 'DATA'
_DATA	ENDS
;	COMDAT ?Unlock@CComCriticalSection@ATL@@QAEJXZ
_TEXT	SEGMENT PARA USE32 PUBLIC 'CODE'
_TEXT	ENDS
;	COMDAT ??_C@_0FG@LDNDNCJM@D?3?2Program?5Files?5?$CIx86?$CJ?2Microsoft@
CONST	SEGMENT DWORD USE32 PUBLIC 'CONST'
CONST	ENDS
;	COMDAT ??_C@_09HIEJFN@m_bLocked?$AA@
CONST	SEGMENT DWORD USE32 PUBLIC 'CONST'
CONST	ENDS
;	COMDAT ?_Psave@?$_Facetptr@V?$ctype@_W@std@@@std@@2PBVfacet@locale@2@B
_DATA	SEGMENT DWORD USE32 PUBLIC 'DATA'
_DATA	ENDS
;	COMDAT ?_Psave@?$_Facetptr@V?$ctype@D@std@@@std@@2PBVfacet@locale@2@B
_DATA	SEGMENT DWORD USE32 PUBLIC 'DATA'
_DATA	ENDS
;	COMDAT ??_7length_error@std@@6B@
CONST	SEGMENT DWORD USE32 PUBLIC 'CONST'
CONST	ENDS
;	COMDAT ??_R4length_error@std@@6B@
rdata$r	SEGMENT DWORD USE32 PUBLIC 'CONST'
rdata$r	ENDS
;	COMDAT ??_R3length_error@std@@8
rdata$r	SEGMENT DWORD USE32 PUBLIC 'CONST'
rdata$r	ENDS
;	COMDAT ??_R2length_error@std@@8
rdata$r	SEGMENT DWORD USE32 PUBLIC 'CONST'
rdata$r	ENDS
;	COMDAT ??_R1A@?0A@A@length_error@std@@8
rdata$r	SEGMENT DWORD USE32 PUBLIC 'CONST'
rdata$r	ENDS
;	COMDAT ??_R1A@?0A@A@logic_error@std@@8
rdata$r	SEGMENT DWORD USE32 PUBLIC 'CONST'
rdata$r	ENDS
;	COMDAT ??_R0?AVlogic_error@std@@@8
_DATA	SEGMENT DWORD USE32 PUBLIC 'DATA'
_DATA	ENDS
;	COMDAT ??_R1A@?0A@A@exception@@8
rdata$r	SEGMENT DWORD USE32 PUBLIC 'CONST'
rdata$r	ENDS
;	COMDAT ??_R0?AVexception@@@8
_DATA	SEGMENT DWORD USE32 PUBLIC 'DATA'
_DATA	ENDS
;	COMDAT ??_Glength_error@std@@UAEPAXI@Z
_TEXT	SEGMENT PARA USE32 PUBLIC 'CODE'
_TEXT	ENDS
;	COMDAT ?what@logic_error@std@@UBEPBDXZ
_TEXT	SEGMENT PARA USE32 PUBLIC 'CODE'
_TEXT	ENDS
;	COMDAT ??1logic_error@std@@UAE@XZ
_TEXT	SEGMENT PARA USE32 PUBLIC 'CODE'
_TEXT	ENDS
;	COMDAT ??_7logic_error@std@@6B@
CONST	SEGMENT DWORD USE32 PUBLIC 'CONST'
CONST	ENDS
;	COMDAT ??_R4logic_error@std@@6B@
rdata$r	SEGMENT DWORD USE32 PUBLIC 'CONST'
rdata$r	ENDS
;	COMDAT ??_R3logic_error@std@@8
rdata$r	SEGMENT DWORD USE32 PUBLIC 'CONST'
rdata$r	ENDS
;	COMDAT ??_R2logic_error@std@@8
rdata$r	SEGMENT DWORD USE32 PUBLIC 'CONST'
rdata$r	ENDS
;	COMDAT ??_Glogic_error@std@@UAEPAXI@Z
_TEXT	SEGMENT PARA USE32 PUBLIC 'CODE'
_TEXT	ENDS
;	COMDAT ??0logic_error@std@@QAE@ABV01@@Z
_TEXT	SEGMENT PARA USE32 PUBLIC 'CODE'
_TEXT	ENDS
;	COMDAT __CTA3?AVlength_error@std@@
xdata$x	SEGMENT DWORD USE32 PUBLIC 'CONST'
xdata$x	ENDS
;	COMDAT ??1length_error@std@@UAE@XZ
_TEXT	SEGMENT PARA USE32 PUBLIC 'CODE'
_TEXT	ENDS
;	COMDAT __CT??_R0?AVexception@@@8??0exception@@QAE@ABV0@@Z12
xdata$x	SEGMENT DWORD USE32 PUBLIC 'CONST'
xdata$x	ENDS
;	COMDAT __CT??_R0?AVlogic_error@std@@@8??0logic_error@std@@QAE@ABV01@@Z40
xdata$x	SEGMENT DWORD USE32 PUBLIC 'CONST'
xdata$x	ENDS
;	COMDAT __CT??_R0?AVlength_error@std@@@8??0length_error@std@@QAE@ABV01@@Z40
xdata$x	SEGMENT DWORD USE32 PUBLIC 'CONST'
xdata$x	ENDS
;	COMDAT ??_R0?AVlength_error@std@@@8
_DATA	SEGMENT DWORD USE32 PUBLIC 'DATA'
_DATA	ENDS
;	COMDAT __TI3?AVlength_error@std@@
xdata$x	SEGMENT DWORD USE32 PUBLIC 'CONST'
xdata$x	ENDS
;	COMDAT ??0length_error@std@@QAE@ABV?$basic_string@DU?$char_traits@D@std@@V?$allocator@D@2@@1@@Z
_TEXT	SEGMENT PARA USE32 PUBLIC 'CODE'
_TEXT	ENDS
;	COMDAT ??0logic_error@std@@QAE@ABV?$basic_string@DU?$char_traits@D@std@@V?$allocator@D@2@@1@@Z
_TEXT	SEGMENT PARA USE32 PUBLIC 'CODE'
_TEXT	ENDS
;	COMDAT ??$_Maklocchr@_W@std@@YA_WDPA_WABU_Cvtvec@@@Z
_TEXT	SEGMENT PARA USE32 PUBLIC 'CODE'
_TEXT	ENDS
;	COMDAT ??$_DebugHeapDelete@X@std@@YAXPAX@Z
_TEXT	SEGMENT PARA USE32 PUBLIC 'CODE'
_TEXT	ENDS
;	COMDAT ??$_Maklocstr@_W@std@@YAPA_WPBDPA_WABU_Cvtvec@@@Z
_TEXT	SEGMENT PARA USE32 PUBLIC 'CODE'
_TEXT	ENDS
;	COMDAT ??$_Maklocchr@D@std@@YADDPADABU_Cvtvec@@@Z
_TEXT	SEGMENT PARA USE32 PUBLIC 'CODE'
_TEXT	ENDS
;	COMDAT ??_C@_04LOAJBDKD@true?$AA@
CONST	SEGMENT DWORD USE32 PUBLIC 'CONST'
CONST	ENDS
;	COMDAT ??_C@_05LAPONLG@false?$AA@
CONST	SEGMENT DWORD USE32 PUBLIC 'CONST'
CONST	ENDS
;	COMDAT _wmemcpy
_TEXT	SEGMENT PARA USE32 PUBLIC 'CODE'
_TEXT	ENDS
;	COMDAT ?max_size@?$allocator@_W@std@@QBEIXZ
_TEXT	SEGMENT PARA USE32 PUBLIC 'CODE'
_TEXT	ENDS
;	COMDAT ?allocate@?$allocator@_W@std@@QAEPA_WI@Z
_TEXT	SEGMENT PARA USE32 PUBLIC 'CODE'
_TEXT	ENDS
;	COMDAT ??$_Allocate@_W@std@@YAPA_WIPA_W@Z
_TEXT	SEGMENT PARA USE32 PUBLIC 'CODE'
_TEXT	ENDS
;	COMDAT ??_C@_0N@ILOMLJGA@nLength?5?$DO?$DN?50?$AA@
CONST	SEGMENT DWORD USE32 PUBLIC 'CONST'
CONST	ENDS
;	COMDAT ??_C@_0CD@EEFFJEGJ@nLength?5?$DM?$DN?5GetData?$CI?$CJ?9?$DOnAllocLeng@
CONST	SEGMENT DWORD USE32 PUBLIC 'CONST'
CONST	ENDS
;	COMDAT ?data@CStringData@ATL@@QAEPAXXZ
_TEXT	SEGMENT PARA USE32 PUBLIC 'CODE'
_TEXT	ENDS
;	COMDAT ??_C@_0FJ@DMHPDOJC@D?3?2Program?5Files?5?$CIx86?$CJ?2Microsoft@
CONST	SEGMENT DWORD USE32 PUBLIC 'CONST'
CONST	ENDS
;	COMDAT ??_C@_0BA@GOIMFHNK@pStringMgr?5?$CB?$DN?50?$AA@
CONST	SEGMENT DWORD USE32 PUBLIC 'CONST'
CONST	ENDS
;	COMDAT ??_C@_01GFHCPBMG@C?$AA@
CONST	SEGMENT DWORD USE32 PUBLIC 'CONST'
CONST	ENDS
;	COMDAT ?max_size@?$allocator@D@std@@QBEIXZ
_TEXT	SEGMENT PARA USE32 PUBLIC 'CODE'
_TEXT	ENDS
;	COMDAT ?allocate@?$allocator@D@std@@QAEPADI@Z
_TEXT	SEGMENT PARA USE32 PUBLIC 'CODE'
_TEXT	ENDS
;	COMDAT ??$_Allocate@D@std@@YAPADIPAD@Z
_TEXT	SEGMENT PARA USE32 PUBLIC 'CODE'
_TEXT	ENDS
;	COMDAT ?deallocate@?$allocator@D@std@@QAEXPADI@Z
_TEXT	SEGMENT PARA USE32 PUBLIC 'CODE'
_TEXT	ENDS
;	COMDAT ?Release@CStringData@ATL@@QAEXXZ
_TEXT	SEGMENT PARA USE32 PUBLIC 'CODE'
_TEXT	ENDS
;	COMDAT ??_C@_0L@OIIMFBNE@nRefs?5?$CB?$DN?50?$AA@
CONST	SEGMENT DWORD USE32 PUBLIC 'CONST'
CONST	ENDS
;	COMDAT ??_C@_0BA@GNIEOBOF@nNewLength?5?$DO?$DN?50?$AA@
CONST	SEGMENT DWORD USE32 PUBLIC 'CONST'
CONST	ENDS
;	COMDAT ?IsShared@CStringData@ATL@@QBE_NXZ
_TEXT	SEGMENT PARA USE32 PUBLIC 'CODE'
_TEXT	ENDS
;	COMDAT ??_C@_0CB@GFHAPKDK@pOldData?9?$DOnAllocLength?5?$DM?5nLength@
CONST	SEGMENT DWORD USE32 PUBLIC 'CONST'
CONST	ENDS
;	COMDAT ?_Peek@?$istreambuf_iterator@_WU?$char_traits@_W@std@@@std@@AAE_WXZ
_TEXT	SEGMENT PARA USE32 PUBLIC 'CODE'
_TEXT	ENDS
;	COMDAT ?_Peek@?$istreambuf_iterator@DU?$char_traits@D@std@@@std@@AAEDXZ
_TEXT	SEGMENT PARA USE32 PUBLIC 'CODE'
_TEXT	ENDS
;	COMDAT ??$use_facet@V?$ctype@_W@std@@@std@@YAABV?$ctype@_W@0@ABVlocale@0@@Z
_TEXT	SEGMENT PARA USE32 PUBLIC 'CODE'
_TEXT	ENDS
;	COMDAT ??_S?$ctype@_W@std@@6B@
CONST	SEGMENT DWORD USE32 PUBLIC 'CONST'
CONST	ENDS
;	COMDAT ??_R4?$ctype@_W@std@@6B@
rdata$r	SEGMENT DWORD USE32 PUBLIC 'CONST'
rdata$r	ENDS
;	COMDAT ??_R0?AV?$ctype@_W@std@@@8
_DATA	SEGMENT DWORD USE32 PUBLIC 'DATA'
_DATA	ENDS
;	COMDAT ??_R3?$ctype@_W@std@@8
rdata$r	SEGMENT DWORD USE32 PUBLIC 'CONST'
rdata$r	ENDS
;	COMDAT ??_R2?$ctype@_W@std@@8
rdata$r	SEGMENT DWORD USE32 PUBLIC 'CONST'
rdata$r	ENDS
;	COMDAT ??_R1A@?0A@A@?$ctype@_W@std@@8
rdata$r	SEGMENT DWORD USE32 PUBLIC 'CONST'
rdata$r	ENDS
;	COMDAT ??_R1A@?0A@A@ctype_base@std@@8
rdata$r	SEGMENT DWORD USE32 PUBLIC 'CONST'
rdata$r	ENDS
;	COMDAT ??_R0?AUctype_base@std@@@8
_DATA	SEGMENT DWORD USE32 PUBLIC 'DATA'
_DATA	ENDS
;	COMDAT ??_G?$ctype@_W@std@@MAEPAXI@Z
_TEXT	SEGMENT PARA USE32 PUBLIC 'CODE'
_TEXT	ENDS
;	COMDAT ??_C@_08EPJLHIJG@bad?5cast?$AA@
CONST	SEGMENT DWORD USE32 PUBLIC 'CONST'
CONST	ENDS
;	COMDAT __TI2?AVbad_cast@@
xdata$x	SEGMENT DWORD USE32 PUBLIC 'CONST'
xdata$x	ENDS
;	COMDAT __CTA2?AVbad_cast@@
xdata$x	SEGMENT DWORD USE32 PUBLIC 'CONST'
xdata$x	ENDS
;	COMDAT __CT??_R0?AVbad_cast@@@8??0bad_cast@@QAE@ABV0@@Z12
xdata$x	SEGMENT DWORD USE32 PUBLIC 'CONST'
xdata$x	ENDS
;	COMDAT ??_R0?AVbad_cast@@@8
_DATA	SEGMENT DWORD USE32 PUBLIC 'DATA'
_DATA	ENDS
;	COMDAT ??$_DebugHeapDelete@Vfacet@locale@std@@@std@@YAXPAVfacet@locale@0@@Z
_TEXT	SEGMENT PARA USE32 PUBLIC 'CODE'
_TEXT	ENDS
;	COMDAT ??$use_facet@V?$ctype@D@std@@@std@@YAABV?$ctype@D@0@ABVlocale@0@@Z
_TEXT	SEGMENT PARA USE32 PUBLIC 'CODE'
_TEXT	ENDS
;	COMDAT ??_S?$ctype@D@std@@6B@
CONST	SEGMENT DWORD USE32 PUBLIC 'CONST'
CONST	ENDS
;	COMDAT ??_R4?$ctype@D@std@@6B@
rdata$r	SEGMENT DWORD USE32 PUBLIC 'CONST'
rdata$r	ENDS
;	COMDAT ??_R0?AV?$ctype@D@std@@@8
_DATA	SEGMENT DWORD USE32 PUBLIC 'DATA'
_DATA	ENDS
;	COMDAT ??_R3?$ctype@D@std@@8
rdata$r	SEGMENT DWORD USE32 PUBLIC 'CONST'
rdata$r	ENDS
;	COMDAT ??_R2?$ctype@D@std@@8
rdata$r	SEGMENT DWORD USE32 PUBLIC 'CONST'
rdata$r	ENDS
;	COMDAT ??_R1A@?0A@A@?$ctype@D@std@@8
rdata$r	SEGMENT DWORD USE32 PUBLIC 'CONST'
rdata$r	ENDS
;	COMDAT ??_G?$ctype@D@std@@MAEPAXI@Z
_TEXT	SEGMENT PARA USE32 PUBLIC 'CODE'
_TEXT	ENDS
;	COMDAT ??_S?$numpunct@_W@std@@6B@
CONST	SEGMENT DWORD USE32 PUBLIC 'CONST'
CONST	ENDS
;	COMDAT ??_S?$numpunct@D@std@@6B@
CONST	SEGMENT DWORD USE32 PUBLIC 'CONST'
CONST	ENDS
;	COMDAT _wmemmove
_TEXT	SEGMENT PARA USE32 PUBLIC 'CODE'
_TEXT	ENDS
;	COMDAT ?deallocate@?$allocator@_W@std@@QAEXPA_WI@Z
_TEXT	SEGMENT PARA USE32 PUBLIC 'CODE'
_TEXT	ENDS
;	COMDAT ??0?$allocator@_W@std@@QAE@ABV01@@Z
_TEXT	SEGMENT PARA USE32 PUBLIC 'CODE'
_TEXT	ENDS
;	COMDAT ?AtlThrow@ATL@@YGXJ@Z
_TEXT	SEGMENT PARA USE32 PUBLIC 'CODE'
_TEXT	ENDS
;	COMDAT ??RCTraceFileAndLineInfo@ATL@@QBAXKIPBDZZ
_TEXT	SEGMENT PARA USE32 PUBLIC 'CODE'
_TEXT	ENDS
;	COMDAT ?TraceV@CTrace@ATL@@QBAXPBDHKI0PAD@Z
_TEXT	SEGMENT PARA USE32 PUBLIC 'CODE'
_TEXT	ENDS
;	COMDAT ??0CTraceFileAndLineInfo@ATL@@QAE@PBDH@Z
_TEXT	SEGMENT PARA USE32 PUBLIC 'CODE'
_TEXT	ENDS
;	COMDAT ??_C@_0FI@NHHJANPC@D?3?2Program?5Files?5?$CIx86?$CJ?2Microsoft@
CONST	SEGMENT DWORD USE32 PUBLIC 'CONST'
CONST	ENDS
;	COMDAT ??_C@_0BF@IAAKIJDJ@AtlThrow?3?5hr?5?$DN?50x?$CFx?6?$AA@
CONST	SEGMENT DWORD USE32 PUBLIC 'CONST'
CONST	ENDS
;	COMDAT ??BCTraceCategory@ATL@@QBEKXZ
_TEXT	SEGMENT PARA USE32 PUBLIC 'CODE'
_TEXT	ENDS
;	COMDAT ??_C@_0FH@KDPNIMBO@D?3?2Program?5Files?5?$CIx86?$CJ?2Microsoft@
CONST	SEGMENT DWORD USE32 PUBLIC 'CONST'
CONST	ENDS
;	COMDAT ?AtlIsValidString@ATL@@YAHPBDI@Z
_TEXT	SEGMENT PARA USE32 PUBLIC 'CODE'
_TEXT	ENDS
;	COMDAT ?GetDefaultManager@?$StrTraitMFC_DLL@DV?$ChTraitsCRT@D@ATL@@@@SAPAUIAtlStringMgr@ATL@@XZ
_TEXT	SEGMENT PARA USE32 PUBLIC 'CODE'
_TEXT	ENDS
;	COMDAT ?IsLocked@CStringData@ATL@@QBE_NXZ
_TEXT	SEGMENT PARA USE32 PUBLIC 'CODE'
_TEXT	ENDS
;	COMDAT ??0?$allocator@D@std@@QAE@ABV01@@Z
_TEXT	SEGMENT PARA USE32 PUBLIC 'CODE'
_TEXT	ENDS
;	COMDAT ??0?$allocator@D@std@@QAE@XZ
_TEXT	SEGMENT PARA USE32 PUBLIC 'CODE'
_TEXT	ENDS
;	COMDAT ??_7IMessageObserver@@6B@
CONST	SEGMENT DWORD USE32 PUBLIC 'CONST'
CONST	ENDS
;	COMDAT ??_R4IMessageObserver@@6B@
rdata$r	SEGMENT DWORD USE32 PUBLIC 'CONST'
rdata$r	ENDS
;	COMDAT ??_R3IMessageObserver@@8
rdata$r	SEGMENT DWORD USE32 PUBLIC 'CONST'
rdata$r	ENDS
;	COMDAT ??_R2IMessageObserver@@8
rdata$r	SEGMENT DWORD USE32 PUBLIC 'CONST'
rdata$r	ENDS
;	COMDAT ??_GIMessageObserver@@UAEPAXI@Z
_TEXT	SEGMENT PARA USE32 PUBLIC 'CODE'
_TEXT	ENDS
;	COMDAT ??_7ITabBarObserver@@6B@
CONST	SEGMENT DWORD USE32 PUBLIC 'CONST'
CONST	ENDS
;	COMDAT ??1IMessageObserver@@UAE@XZ
_TEXT	SEGMENT PARA USE32 PUBLIC 'CODE'
_TEXT	ENDS
;	COMDAT ??_7CTabPageControl@@6B@
CONST	SEGMENT DWORD USE32 PUBLIC 'CONST'
CONST	ENDS
;	COMDAT ?GetLastStatus@Image@Gdiplus@@QBE?AW4Status@2@XZ
_TEXT	SEGMENT PARA USE32 PUBLIC 'CODE'
_TEXT	ENDS
;	COMDAT ?FromFile@Bitmap@Gdiplus@@SAPAV12@PB_WH@Z
_TEXT	SEGMENT PARA USE32 PUBLIC 'CODE'
_TEXT	ENDS
;	COMDAT ??2GdiplusBase@Gdiplus@@SAPAXI@Z
_TEXT	SEGMENT PARA USE32 PUBLIC 'CODE'
_TEXT	ENDS
;	COMDAT ??3GdiplusBase@Gdiplus@@SAXPAX@Z
_TEXT	SEGMENT PARA USE32 PUBLIC 'CODE'
_TEXT	ENDS
;	COMDAT ??0Bitmap@Gdiplus@@QAE@PB_WH@Z
_TEXT	SEGMENT PARA USE32 PUBLIC 'CODE'
_TEXT	ENDS
;	COMDAT ??0Image@Gdiplus@@IAE@XZ
_TEXT	SEGMENT PARA USE32 PUBLIC 'CODE'
_TEXT	ENDS
;	COMDAT ??_7Image@Gdiplus@@6B@
CONST	SEGMENT DWORD USE32 PUBLIC 'CONST'
CONST	ENDS
;	COMDAT ??_R4Image@Gdiplus@@6B@
rdata$r	SEGMENT DWORD USE32 PUBLIC 'CONST'
rdata$r	ENDS
;	COMDAT ??_R0?AVImage@Gdiplus@@@8
_DATA	SEGMENT DWORD USE32 PUBLIC 'DATA'
_DATA	ENDS
;	COMDAT ??_R3Image@Gdiplus@@8
rdata$r	SEGMENT DWORD USE32 PUBLIC 'CONST'
rdata$r	ENDS
;	COMDAT ??_R2Image@Gdiplus@@8
rdata$r	SEGMENT DWORD USE32 PUBLIC 'CONST'
rdata$r	ENDS
;	COMDAT ??_R1A@?0A@A@Image@Gdiplus@@8
rdata$r	SEGMENT DWORD USE32 PUBLIC 'CONST'
rdata$r	ENDS
;	COMDAT ??_R13?0A@A@GdiplusBase@Gdiplus@@8
rdata$r	SEGMENT DWORD USE32 PUBLIC 'CONST'
rdata$r	ENDS
;	COMDAT ??_R0?AVGdiplusBase@Gdiplus@@@8
_DATA	SEGMENT DWORD USE32 PUBLIC 'DATA'
_DATA	ENDS
;	COMDAT ??_GImage@Gdiplus@@UAEPAXI@Z
_TEXT	SEGMENT PARA USE32 PUBLIC 'CODE'
_TEXT	ENDS
;	COMDAT ?Clone@Image@Gdiplus@@UAEPAV12@XZ
_TEXT	SEGMENT PARA USE32 PUBLIC 'CODE'
_TEXT	ENDS
;	COMDAT ?SetStatus@Image@Gdiplus@@IBE?AW4Status@2@W432@@Z
_TEXT	SEGMENT PARA USE32 PUBLIC 'CODE'
_TEXT	ENDS
;	COMDAT ??0Image@Gdiplus@@IAE@PAVGpImage@1@W4Status@1@@Z
_TEXT	SEGMENT PARA USE32 PUBLIC 'CODE'
_TEXT	ENDS
;	COMDAT ??1Image@Gdiplus@@UAE@XZ
_TEXT	SEGMENT PARA USE32 PUBLIC 'CODE'
_TEXT	ENDS
;	COMDAT ??_7Bitmap@Gdiplus@@6B@
CONST	SEGMENT DWORD USE32 PUBLIC 'CONST'
CONST	ENDS
;	COMDAT ??_R4Bitmap@Gdiplus@@6B@
rdata$r	SEGMENT DWORD USE32 PUBLIC 'CONST'
rdata$r	ENDS
;	COMDAT ??_R0?AVBitmap@Gdiplus@@@8
_DATA	SEGMENT DWORD USE32 PUBLIC 'DATA'
_DATA	ENDS
;	COMDAT ??_R3Bitmap@Gdiplus@@8
rdata$r	SEGMENT DWORD USE32 PUBLIC 'CONST'
rdata$r	ENDS
;	COMDAT ??_R2Bitmap@Gdiplus@@8
rdata$r	SEGMENT DWORD USE32 PUBLIC 'CONST'
rdata$r	ENDS
;	COMDAT ??_R1A@?0A@A@Bitmap@Gdiplus@@8
rdata$r	SEGMENT DWORD USE32 PUBLIC 'CONST'
rdata$r	ENDS
;	COMDAT ??_GBitmap@Gdiplus@@UAEPAXI@Z
_TEXT	SEGMENT PARA USE32 PUBLIC 'CODE'
_TEXT	ENDS
;	COMDAT ??1Bitmap@Gdiplus@@UAE@XZ
_TEXT	SEGMENT PARA USE32 PUBLIC 'CODE'
_TEXT	ENDS
;	COMDAT ?SetNativeImage@Image@Gdiplus@@IAEXPAVGpImage@2@@Z
_TEXT	SEGMENT PARA USE32 PUBLIC 'CODE'
_TEXT	ENDS
;	COMDAT ??_7CGdiPlusBitmap@@6B@
CONST	SEGMENT DWORD USE32 PUBLIC 'CONST'
CONST	ENDS
;	COMDAT ??_7BCMenuMemDC@@6B@
CONST	SEGMENT DWORD USE32 PUBLIC 'CONST'
CONST	ENDS
;	COMDAT ?FindStringResourceInstance@?$StrTraitMFC_DLL@DV?$ChTraitsCRT@D@ATL@@@@SAPAUHINSTANCE__@@I@Z
_TEXT	SEGMENT PARA USE32 PUBLIC 'CODE'
_TEXT	ENDS
;	COMDAT ?AtlGetStringResourceImage@ATL@@YAPBUATLSTRINGRESOURCEIMAGE@1@PAUHINSTANCE__@@I@Z
_TEXT	SEGMENT PARA USE32 PUBLIC 'CODE'
_TEXT	ENDS
;	COMDAT ?_AtlGetStringResourceImage@ATL@@YAPBUATLSTRINGRESOURCEIMAGE@1@PAUHINSTANCE__@@PAUHRSRC__@@I@Z
_TEXT	SEGMENT PARA USE32 PUBLIC 'CODE'
_TEXT	ENDS
;	COMDAT ?GetBaseTypeLength@?$ChTraitsCRT@D@ATL@@SAHPB_WH@Z
_TEXT	SEGMENT PARA USE32 PUBLIC 'CODE'
_TEXT	ENDS
;	COMDAT ?ConvertToBaseType@?$ChTraitsCRT@D@ATL@@SAXPADHPB_WH@Z
_TEXT	SEGMENT PARA USE32 PUBLIC 'CODE'
_TEXT	ENDS
;	COMDAT ??_C@_0CJ@FJEKGMMD@Warning?3?5implicit?5LoadString?$CI?$CFu?$CJ@
CONST	SEGMENT DWORD USE32 PUBLIC 'CONST'
CONST	ENDS
;	COMDAT ??_7CNoTrackObject@@6B@
CONST	SEGMENT DWORD USE32 PUBLIC 'CONST'
CONST	ENDS
;	COMDAT ??_R4CNoTrackObject@@6B@
rdata$r	SEGMENT DWORD USE32 PUBLIC 'CONST'
rdata$r	ENDS
;	COMDAT ??_R3CNoTrackObject@@8
rdata$r	SEGMENT DWORD USE32 PUBLIC 'CONST'
rdata$r	ENDS
;	COMDAT ??_R2CNoTrackObject@@8
rdata$r	SEGMENT DWORD USE32 PUBLIC 'CONST'
rdata$r	ENDS
;	COMDAT ??_7COccManager@@6B@
CONST	SEGMENT DWORD USE32 PUBLIC 'CONST'
CONST	ENDS
;	COMDAT ??1CNoTrackObject@@UAE@XZ
_TEXT	SEGMENT PARA USE32 PUBLIC 'CODE'
_TEXT	ENDS
;	COMDAT ??_7CCustomOccManager@@6B@
CONST	SEGMENT DWORD USE32 PUBLIC 'CONST'
CONST	ENDS
;	COMDAT ??0IUnknown@@QAE@XZ
_TEXT	SEGMENT PARA USE32 PUBLIC 'CODE'
_TEXT	ENDS
;	COMDAT ??_7XDocHostUIHandler@CCustomControlSite@@6B@
CONST	SEGMENT DWORD USE32 PUBLIC 'CONST'
CONST	ENDS
;	COMDAT ??_7XDocHostShowUI@CCustomControlSite@@6B@
CONST	SEGMENT DWORD USE32 PUBLIC 'CONST'
CONST	ENDS
;	COMDAT ??_7CCustomControlSite@@6B@
CONST	SEGMENT DWORD USE32 PUBLIC 'CONST'
CONST	ENDS
;	COMDAT ?clsid@?1??GetClsid@CShockwaveFlash@@QAEABU_GUID@@XZ@4U3@B
CONST	SEGMENT DWORD USE32 PUBLIC 'CONST'
CONST	ENDS
;	COMDAT ??_7HTTPObserver@@6B@
CONST	SEGMENT DWORD USE32 PUBLIC 'CONST'
CONST	ENDS
;	COMDAT ?c_bIsMFCDLLTraits@?$_MFCDLLTraitsCheck@_WV?$StrTraitATL@_WV?$ChTraitsCRT@_W@ATL@@@ATL@@@_CSTRING_IMPL_@ATL@@2_NB
CONST	SEGMENT DWORD USE32 PUBLIC 'CONST'
CONST	ENDS
;	COMDAT ?c_bIsMFCDLLTraits@?$_MFCDLLTraitsCheck@DV?$StrTraitATL@DV?$ChTraitsCRT@D@ATL@@@ATL@@@_CSTRING_IMPL_@ATL@@2_NB
CONST	SEGMENT DWORD USE32 PUBLIC 'CONST'
CONST	ENDS
;	COMDAT ?_AtlGetConversionACP@ATL@@YGIXZ
_TEXT	SEGMENT PARA USE32 PUBLIC 'CODE'
_TEXT	ENDS
;	COMDAT ?g_pfnGetThreadACP@ATL@@3P6GIXZA
_DATA	SEGMENT DWORD USE32 PUBLIC 'DATA'
_DATA	ENDS
;	COMDAT ?_AtlGetThreadACPThunk@ATL@@YGIXZ
_TEXT	SEGMENT PARA USE32 PUBLIC 'CODE'
_TEXT	ENDS
;	COMDAT ?_AtlGetThreadACPReal@ATL@@YGIXZ
_TEXT	SEGMENT PARA USE32 PUBLIC 'CODE'
_TEXT	ENDS
;	COMDAT ?_AtlGetThreadACPFake@ATL@@YGIXZ
_TEXT	SEGMENT PARA USE32 PUBLIC 'CODE'
_TEXT	ENDS
;	COMDAT ?InterlockedExchangePointer@@YGPAXPAPAXPAX@Z
_TEXT	SEGMENT PARA USE32 PUBLIC 'CODE'
_TEXT	ENDS
;	COMDAT ??_C@_09BBJEMDLA@nRet?5?$CB?$DN?50?$AA@
CONST	SEGMENT DWORD USE32 PUBLIC 'CONST'
CONST	ENDS
;	COMDAT ?_strthunks@ATL@@3U_AtlStringThunks@1@A
_DATA	SEGMENT DWORD USE32 PUBLIC 'DATA'
_DATA	ENDS
;	COMDAT ?CompareStringWThunk@ATL@@YGHKKPB_WH0H@Z
_TEXT	SEGMENT PARA USE32 PUBLIC 'CODE'
_TEXT	ENDS
;	COMDAT ?_AtlInstallStringThunk@ATL@@YAXPAPAXPAX1@Z
_TEXT	SEGMENT PARA USE32 PUBLIC 'CODE'
_TEXT	ENDS
;	COMDAT ??_B?1??_AtlInstallStringThunk@ATL@@YAXPAPAXPAX1@Z@51
_BSS	SEGMENT DWORD USE32 PUBLIC 'BSS'
_BSS	ENDS
;	COMDAT ?s_bWin9x@?1??_AtlInstallStringThunk@ATL@@YAXPAPAXPAX1@Z@4_NA
_BSS	SEGMENT DWORD USE32 PUBLIC 'BSS'
_BSS	ENDS
;	COMDAT ?CompareStringWFake@ATL@@YGHKKPB_WH0H@Z
_TEXT	SEGMENT PARA USE32 PUBLIC 'CODE'
_TEXT	ENDS
;	COMDAT ??0?$CAtlSafeAllocBufferManager@VCCRTAllocator@ATL@@@_ATL_SAFE_ALLOCA_IMPL@ATL@@QAE@XZ
_TEXT	SEGMENT PARA USE32 PUBLIC 'CODE'
_TEXT	ENDS
;	COMDAT ??1?$CAtlSafeAllocBufferManager@VCCRTAllocator@ATL@@@_ATL_SAFE_ALLOCA_IMPL@ATL@@QAE@XZ
_TEXT	SEGMENT PARA USE32 PUBLIC 'CODE'
_TEXT	ENDS
;	COMDAT ?Free@CCRTAllocator@ATL@@SAXPAX@Z
_TEXT	SEGMENT PARA USE32 PUBLIC 'CODE'
_TEXT	ENDS
;	COMDAT ?AtlW2AHelper@@YGPADPADPB_WHI@Z
_TEXT	SEGMENT PARA USE32 PUBLIC 'CODE'
_TEXT	ENDS
;	COMDAT ??_C@_08DIHJLFDJ@lpw?5?$CB?$DN?50?$AA@
CONST	SEGMENT DWORD USE32 PUBLIC 'CONST'
CONST	ENDS
;	COMDAT ??_C@_08DMHHBMMN@lpa?5?$CB?$DN?50?$AA@
CONST	SEGMENT DWORD USE32 PUBLIC 'CONST'
CONST	ENDS
;	COMDAT ??_C@_01GBGANLPD@0?$AA@
CONST	SEGMENT DWORD USE32 PUBLIC 'CONST'
CONST	ENDS
;	COMDAT ??_C@_0FG@PFHCBDBK@D?3?2Program?5Files?5?$CIx86?$CJ?2Microsoft@
CONST	SEGMENT DWORD USE32 PUBLIC 'CONST'
CONST	ENDS
;	COMDAT ?_AtlVerifyStackAvailable@_ATL_SAFE_ALLOCA_IMPL@ATL@@YA_NK@Z
_TEXT	SEGMENT PARA USE32 PUBLIC 'CODE'
_TEXT	ENDS
;	COMDAT ?Allocate@?$CAtlSafeAllocBufferManager@VCCRTAllocator@ATL@@@_ATL_SAFE_ALLOCA_IMPL@ATL@@QAEPAXK@Z
_TEXT	SEGMENT PARA USE32 PUBLIC 'CODE'
_TEXT	ENDS
;	COMDAT ?Allocate@CCRTAllocator@ATL@@SAPAXI@Z
_TEXT	SEGMENT PARA USE32 PUBLIC 'CODE'
_TEXT	ENDS
;	COMDAT ?GetData@CAtlSafeAllocBufferNode@?$CAtlSafeAllocBufferManager@VCCRTAllocator@ATL@@@_ATL_SAFE_ALLOCA_IMPL@ATL@@QAEPAXXZ
_TEXT	SEGMENT PARA USE32 PUBLIC 'CODE'
_TEXT	ENDS
;	COMDAT ?GetStringTypeExWThunk@ATL@@YGHKKPB_WHPAG@Z
_TEXT	SEGMENT PARA USE32 PUBLIC 'CODE'
_TEXT	ENDS
;	COMDAT ?GetStringTypeExWFake@ATL@@YGHKKPB_WHPAG@Z
_TEXT	SEGMENT PARA USE32 PUBLIC 'CODE'
_TEXT	ENDS
;	COMDAT ??0?$CTempBuffer@D$0IA@VCCRTAllocator@ATL@@@ATL@@QAE@XZ
_TEXT	SEGMENT PARA USE32 PUBLIC 'CODE'
_TEXT	ENDS
;	COMDAT ??1?$CTempBuffer@D$0IA@VCCRTAllocator@ATL@@@ATL@@QAE@XZ
_TEXT	SEGMENT PARA USE32 PUBLIC 'CODE'
_TEXT	ENDS
;	COMDAT ?FreeHeap@?$CTempBuffer@D$0IA@VCCRTAllocator@ATL@@@ATL@@AAEXXZ
_TEXT	SEGMENT PARA USE32 PUBLIC 'CODE'
_TEXT	ENDS
;	COMDAT ?Allocate@?$CTempBuffer@D$0IA@VCCRTAllocator@ATL@@@ATL@@QAEPADI@Z
_TEXT	SEGMENT PARA USE32 PUBLIC 'CODE'
_TEXT	ENDS
;	COMDAT ?AllocateBytes@?$CTempBuffer@D$0IA@VCCRTAllocator@ATL@@@ATL@@QAEPADI@Z
_TEXT	SEGMENT PARA USE32 PUBLIC 'CODE'
_TEXT	ENDS
;	COMDAT ??_C@_08GPODJFIN@m_p?5?$DN?$DN?50?$AA@
CONST	SEGMENT DWORD USE32 PUBLIC 'CONST'
CONST	ENDS
;	COMDAT ??_C@_0FH@BOCPFCEM@D?3?2Program?5Files?5?$CIx86?$CJ?2Microsoft@
CONST	SEGMENT DWORD USE32 PUBLIC 'CONST'
CONST	ENDS
;	COMDAT ?AllocateHeap@?$CTempBuffer@D$0IA@VCCRTAllocator@ATL@@@ATL@@AAEXI@Z
_TEXT	SEGMENT PARA USE32 PUBLIC 'CODE'
_TEXT	ENDS
;	COMDAT ??B?$CTempBuffer@D$0IA@VCCRTAllocator@ATL@@@ATL@@QBEPADXZ
_TEXT	SEGMENT PARA USE32 PUBLIC 'CODE'
_TEXT	ENDS
;	COMDAT ?lstrcmpiWThunk@ATL@@YGHPB_W0@Z
_TEXT	SEGMENT PARA USE32 PUBLIC 'CODE'
_TEXT	ENDS
;	COMDAT ?lstrcmpiWFake@ATL@@YGHPB_W0@Z
_TEXT	SEGMENT PARA USE32 PUBLIC 'CODE'
_TEXT	ENDS
;	COMDAT ?CharLowerWThunk@ATL@@YGPA_WPA_W@Z
_TEXT	SEGMENT PARA USE32 PUBLIC 'CODE'
_TEXT	ENDS
;	COMDAT ?CharLowerWFake@ATL@@YGPA_WPA_W@Z
_TEXT	SEGMENT PARA USE32 PUBLIC 'CODE'
_TEXT	ENDS
;	COMDAT ?AtlA2WHelper@@YGPA_WPA_WPBDHI@Z
_TEXT	SEGMENT PARA USE32 PUBLIC 'CODE'
_TEXT	ENDS
;	COMDAT ?CharUpperWThunk@ATL@@YGPA_WPA_W@Z
_TEXT	SEGMENT PARA USE32 PUBLIC 'CODE'
_TEXT	ENDS
;	COMDAT ?CharUpperWFake@ATL@@YGPA_WPA_W@Z
_TEXT	SEGMENT PARA USE32 PUBLIC 'CODE'
_TEXT	ENDS
;	COMDAT ?GetEnvironmentVariableWThunk@ATL@@YGKPB_WPA_WK@Z
_TEXT	SEGMENT PARA USE32 PUBLIC 'CODE'
_TEXT	ENDS
;	COMDAT ?GetEnvironmentVariableWFake@ATL@@YGKPB_WPA_WK@Z
_TEXT	SEGMENT PARA USE32 PUBLIC 'CODE'
_TEXT	ENDS
;	COMDAT ??0?$CW2AEX@$0IA@@ATL@@QAE@PB_W@Z
_TEXT	SEGMENT PARA USE32 PUBLIC 'CODE'
_TEXT	ENDS
;	COMDAT ?Init@?$CW2AEX@$0IA@@ATL@@AAEXPB_WI@Z
_TEXT	SEGMENT PARA USE32 PUBLIC 'CODE'
_TEXT	ENDS
;	COMDAT ?AtlThrowLastWin32@ATL@@YGXXZ
_TEXT	SEGMENT PARA USE32 PUBLIC 'CODE'
_TEXT	ENDS
;	COMDAT ??1?$CW2AEX@$0IA@@ATL@@QAE@XZ
_TEXT	SEGMENT PARA USE32 PUBLIC 'CODE'
_TEXT	ENDS
;	COMDAT ??B?$CW2AEX@$0IA@@ATL@@QBEPADXZ
_TEXT	SEGMENT PARA USE32 PUBLIC 'CODE'
_TEXT	ENDS
;	COMDAT ??_C@_0BA@CLMJJCOM@nSize?5?$DO?$DN?5nSizeW?$AA@
CONST	SEGMENT DWORD USE32 PUBLIC 'CONST'
CONST	ENDS
;	COMDAT ?AddRef@CStringData@ATL@@QAEXXZ
_TEXT	SEGMENT PARA USE32 PUBLIC 'CODE'
_TEXT	ENDS
;	COMDAT ??_C@_09EEBKLCFA@nRefs?5?$DO?50?$AA@
CONST	SEGMENT DWORD USE32 PUBLIC 'CONST'
CONST	ENDS
;	COMDAT ?SetManager@CNilStringData@ATL@@QAEXPAUIAtlStringMgr@2@@Z
_TEXT	SEGMENT PARA USE32 PUBLIC 'CODE'
_TEXT	ENDS
;	COMDAT ??_C@_0BA@MLJMCNFJ@pStringMgr?5?$DN?$DN?50?$AA@
CONST	SEGMENT DWORD USE32 PUBLIC 'CONST'
CONST	ENDS
;	COMDAT ??0CNilStringData@ATL@@QAE@XZ
_TEXT	SEGMENT PARA USE32 PUBLIC 'CODE'
_TEXT	ENDS
;	COMDAT ??_7CAtlStringMgr@ATL@@6B@
CONST	SEGMENT DWORD USE32 PUBLIC 'CONST'
CONST	ENDS
;	COMDAT ??_7IData@@6B@
CONST	SEGMENT DWORD USE32 PUBLIC 'CONST'
CONST	ENDS
sxdata	SEGMENT DWORD USE32 'SXDATA'
sxdata	ENDS
FLAT	GROUP _DATA, CONST, _BSS
	ASSUME	CS: FLAT, DS: FLAT, SS: FLAT
endif

INCLUDELIB MSVCRTD
INCLUDELIB OLDNAMES

PUBLIC	?c_bIsMFCDLLTraits@?$_MFCDLLTraitsCheck@DV?$StrTraitATL@DV?$ChTraitsCRT@D@ATL@@@ATL@@@_CSTRING_IMPL_@ATL@@2_NB ; ATL::_CSTRING_IMPL_::_MFCDLLTraitsCheck<char,ATL::StrTraitATL<char,ATL::ChTraitsCRT<char> > >::c_bIsMFCDLLTraits
PUBLIC	?c_bIsMFCDLLTraits@?$_MFCDLLTraitsCheck@_WV?$StrTraitATL@_WV?$ChTraitsCRT@_W@ATL@@@ATL@@@_CSTRING_IMPL_@ATL@@2_NB ; ATL::_CSTRING_IMPL_::_MFCDLLTraitsCheck<wchar_t,ATL::StrTraitATL<wchar_t,ATL::ChTraitsCRT<wchar_t> > >::c_bIsMFCDLLTraits
PUBLIC	?g_pfnGetThreadACP@ATL@@3P6GIXZA		; ATL::g_pfnGetThreadACP
PUBLIC	?_AtlGetThreadACPThunk@ATL@@YGIXZ		; ATL::_AtlGetThreadACPThunk
PUBLIC	?_strthunks@ATL@@3U_AtlStringThunks@1@A		; ATL::_strthunks
PUBLIC	?GetEnvironmentVariableWThunk@ATL@@YGKPB_WPA_WK@Z ; ATL::GetEnvironmentVariableWThunk
PUBLIC	?CompareStringWThunk@ATL@@YGHKKPB_WH0H@Z	; ATL::CompareStringWThunk
PUBLIC	?GetStringTypeExWThunk@ATL@@YGHKKPB_WHPAG@Z	; ATL::GetStringTypeExWThunk
PUBLIC	?lstrcmpiWThunk@ATL@@YGHPB_W0@Z			; ATL::lstrcmpiWThunk
PUBLIC	?CharLowerWThunk@ATL@@YGPA_WPA_W@Z		; ATL::CharLowerWThunk
PUBLIC	?CharUpperWThunk@ATL@@YGPA_WPA_W@Z		; ATL::CharUpperWThunk
PUBLIC	?m_pTabPageControl@CTabPageControl@@2PAV1@A	; CTabPageControl::m_pTabPageControl
_BSS	SEGMENT
?m_pTabPageControl@CTabPageControl@@2PAV1@A DD 01H DUP (?) ; CTabPageControl::m_pTabPageControl
_BSS	ENDS
;	COMDAT ?c_bIsMFCDLLTraits@?$_MFCDLLTraitsCheck@DV?$StrTraitATL@DV?$ChTraitsCRT@D@ATL@@@ATL@@@_CSTRING_IMPL_@ATL@@2_NB
CONST	SEGMENT
?c_bIsMFCDLLTraits@?$_MFCDLLTraitsCheck@DV?$StrTraitATL@DV?$ChTraitsCRT@D@ATL@@@ATL@@@_CSTRING_IMPL_@ATL@@2_NB DB 00H ; ATL::_CSTRING_IMPL_::_MFCDLLTraitsCheck<char,ATL::StrTraitATL<char,ATL::ChTraitsCRT<char> > >::c_bIsMFCDLLTraits
CONST	ENDS
;	COMDAT ?c_bIsMFCDLLTraits@?$_MFCDLLTraitsCheck@_WV?$StrTraitATL@_WV?$ChTraitsCRT@_W@ATL@@@ATL@@@_CSTRING_IMPL_@ATL@@2_NB
CONST	SEGMENT
?c_bIsMFCDLLTraits@?$_MFCDLLTraitsCheck@_WV?$StrTraitATL@_WV?$ChTraitsCRT@_W@ATL@@@ATL@@@_CSTRING_IMPL_@ATL@@2_NB DB 00H ; ATL::_CSTRING_IMPL_::_MFCDLLTraitsCheck<wchar_t,ATL::StrTraitATL<wchar_t,ATL::ChTraitsCRT<wchar_t> > >::c_bIsMFCDLLTraits
CONST	ENDS
CONST	SEGMENT
$SG194057 DB	'int', 00H
CONST	ENDS
_DATA	SEGMENT
_TYPE_CONFIG_INT DD FLAT:$SG194057
_DATA	ENDS
CONST	SEGMENT
$SG194059 DB	'str', 00H
CONST	ENDS
_DATA	SEGMENT
_TYPE_CONFIG_STR DD FLAT:$SG194059
_DATA	ENDS
CONST	SEGMENT
$SG194061 DB	'double', 00H
CONST	ENDS
_DATA	SEGMENT
_TYPE_CONFIG_DOUBLE DD FLAT:$SG194061
_DATA	ENDS
CONST	SEGMENT
	ORG $+1
$SG194063 DB	'bool', 00H
CONST	ENDS
_DATA	SEGMENT
_TYPE_CONFIG_BOOL DD FLAT:$SG194063
_DATA	ENDS
CONST	SEGMENT
	ORG $+3
$SG194065 DB	'sepint', 00H
CONST	ENDS
_DATA	SEGMENT
_TYPE_CONFIG_INT_HASSEP DD FLAT:$SG194065
_DATA	ENDS
CONST	SEGMENT
	ORG $+1
$SG194067 DB	'sepstr', 00H
CONST	ENDS
_DATA	SEGMENT
_TYPE_CONFIG_STR_HASSEP DD FLAT:$SG194067
_DATA	ENDS
CONST	SEGMENT
	ORG $+1
$SG194069 DB	'sepdouble', 00H
CONST	ENDS
_DATA	SEGMENT
_TYPE_CONFIG_DOUBLE_HASSEP DD FLAT:$SG194069
_DATA	ENDS
CONST	SEGMENT
	ORG $+2
$SG194071 DB	'sepbool', 00H
CONST	ENDS
_DATA	SEGMENT
_TYPE_CONFIG_BOOL_HASSEP DD FLAT:$SG194071
_DATA	ENDS
CONST	SEGMENT
$SG194073 DB	'Setting', 00H
CONST	ENDS
_DATA	SEGMENT
_CONF_SETTING_MODULE_NAME DD FLAT:$SG194073
_DATA	ENDS
CONST	SEGMENT
$SG194075 DB	'skin', 00H
CONST	ENDS
_DATA	SEGMENT
_CONF_SETTING_SKIN_IDX DD FLAT:$SG194075
_DATA	ENDS
CONST	SEGMENT
	ORG $+3
$SG194077 DB	'MainPage', 00H
CONST	ENDS
_DATA	SEGMENT
_CONF_SETTING_CONFIG_MAIN_PAGE DD FLAT:$SG194077
_DATA	ENDS
CONST	SEGMENT
	ORG $+3
$SG194079 DB	'ProblemReport', 00H
CONST	ENDS
_DATA	SEGMENT
_CONF_SETTING_CONFIG_PROBLEM_REPORT DD FLAT:$SG194079
_DATA	ENDS
CONST	SEGMENT
	ORG $+2
$SG194081 DB	'HomePage', 00H
CONST	ENDS
_DATA	SEGMENT
_CONF_SETTING_CONFIG_HOME_PAGE DD FLAT:$SG194081
_DATA	ENDS
CONST	SEGMENT
	ORG $+3
$SG194083 DB	'askexit', 00H
CONST	ENDS
_DATA	SEGMENT
_CONF_SETTING_CONFIG_IFASKEXIT DD FLAT:$SG194083
_DATA	ENDS
CONST	SEGMENT
$SG194085 DB	'exitchoice', 00H
CONST	ENDS
_DATA	SEGMENT
_CONF_SETTING_CONFIG_EXITCHOICE DD FLAT:$SG194085
_DATA	ENDS
CONST	SEGMENT
	ORG $+1
$SG194087 DB	'UN', 00H
CONST	ENDS
_DATA	SEGMENT
_CONF_SETTING_LOGIN_USER_NAME DD FLAT:$SG194087
_DATA	ENDS
CONST	SEGMENT
	ORG $+1
$SG194089 DB	'PW', 00H
CONST	ENDS
_DATA	SEGMENT
_CONF_SETTING_LOGIN_PASSWORD DD FLAT:$SG194089
_DATA	ENDS
CONST	SEGMENT
	ORG $+1
$SG194091 DB	'NetID', 00H
CONST	ENDS
_DATA	SEGMENT
_CONF_SETTING_NETID DD FLAT:$SG194091
_DATA	ENDS
CONST	SEGMENT
	ORG $+2
$SG194093 DB	'ChangeColorValue', 00H
CONST	ENDS
_DATA	SEGMENT
_CONF_SETTING_COLOR DD FLAT:$SG194093
_DATA	ENDS
CONST	SEGMENT
	ORG $+3
$SG194095 DB	'changeColorLight', 00H
CONST	ENDS
_DATA	SEGMENT
_CONF_SETTING_LIGHT DD FLAT:$SG194095
_DATA	ENDS
CONST	SEGMENT
	ORG $+3
$SG194097 DB	'ColorIndex', 00H
CONST	ENDS
_DATA	SEGMENT
_CONF_SETTING_COLOR_BTN_INDEX DD FLAT:$SG194097
_DATA	ENDS
CONST	SEGMENT
	ORG $+1
$SG194099 DB	'ColorUser', 00H
CONST	ENDS
_DATA	SEGMENT
_CONF_SETTING_COLOR_USER DD FLAT:$SG194099
_DATA	ENDS
CONST	SEGMENT
	ORG $+2
$SG194101 DB	'FirstTimeChangeSkin', 00H
CONST	ENDS
_DATA	SEGMENT
_CONF_SETTING_FIRST_TIME_CHANGESKIN DD FLAT:$SG194101
_DATA	ENDS
CONST	SEGMENT
$SG195198 DB	'url', 00H
$SG195218 DB	'param', 00H
$SG195264 DB	00H
	ORG $+1
$SG195279 DB	0aH, 00H
$SG195283 DB	00H
	ORG $+1
$SG195288 DB	0aH, 00H
	ORG $+2
$SG195467 DB	0ceH, 0d2H, 0b5H, 0c4H, 0d3H, 0ceH, 0cfH, 0b7H, 00H
$SG195468 DB	00H
	ORG $+2
$SG195471 DB	0d3H, 0ceH, 0cfH, 0b7H, 0b4H, 0f3H, 0ccH, 0fcH, 00H
	ORG $+3
$SG195476 DB	'http://box.7k7k.com/client/', 00H
$SG195477 DB	'%s', 00H
	ORG $+1
$SG195478 DB	'url=%s', 00H
	ORG $+1
$SG195931 DB	'D:\Program Files (x86)\Microsoft Visual Studio .NET 2003'
	DB	'\Vc7\atlmfc\include\afxtempl.h', 00H
	ORG $+1
$SG195945 DB	'D:\Program Files (x86)\Microsoft Visual Studio .NET 2003'
	DB	'\Vc7\atlmfc\include\afxtempl.h', 00H
	ORG $+1
$SG195961 DB	'with ', 00H
	ORG $+2
$SG195962 DB	' elements', 00H
	ORG $+2
$SG195964 DB	0aH, 00H
	ORG $+2
$SG195971 DB	0aH, 00H
	ORG $+6
$SG195979 DB	'D:\Program Files (x86)\Microsoft Visual Studio .NET 2003'
	DB	'\Vc7\atlmfc\include\afxtempl.h', 00H
	ORG $+1
$SG195981 DB	'D:\Program Files (x86)\Microsoft Visual Studio .NET 2003'
	DB	'\Vc7\atlmfc\include\afxtempl.h', 00H
	ORG $+1
$SG195984 DB	'D:\Program Files (x86)\Microsoft Visual Studio .NET 2003'
	DB	'\Vc7\atlmfc\include\afxtempl.h', 00H
	ORG $+1
$SG195986 DB	'D:\Program Files (x86)\Microsoft Visual Studio .NET 2003'
	DB	'\Vc7\atlmfc\include\afxtempl.h', 00H
	ORG $+1
$SG195988 DB	'D:\Program Files (x86)\Microsoft Visual Studio .NET 2003'
	DB	'\Vc7\atlmfc\include\afxtempl.h', 00H
	ORG $+1
$SG195991 DB	'D:\Program Files (x86)\Microsoft Visual Studio .NET 2003'
	DB	'\Vc7\atlmfc\include\afxtempl.h', 00H
	ORG $+1
$SG196188 DB	'D:\Program Files (x86)\Microsoft Visual Studio .NET 2003'
	DB	'\Vc7\atlmfc\include\afxtempl.h', 00H
	ORG $+1
$SG196190 DB	'D:\Program Files (x86)\Microsoft Visual Studio .NET 2003'
	DB	'\Vc7\atlmfc\include\afxtempl.h', 00H
	ORG $+1
$SG196205 DB	'D:\Program Files (x86)\Microsoft Visual Studio .NET 2003'
	DB	'\Vc7\atlmfc\include\afxtempl.h', 00H
	ORG $+1
$SG196212 DB	'D:\Program Files (x86)\Microsoft Visual Studio .NET 2003'
	DB	'\Vc7\atlmfc\include\afxtempl.h', 00H
	ORG $+1
$SG196248 DB	'D:\Program Files (x86)\Microsoft Visual Studio .NET 2003'
	DB	'\Vc7\atlmfc\include\afxtempl.h', 00H
	ORG $+1
$SG196252 DB	'D:\Program Files (x86)\Microsoft Visual Studio .NET 2003'
	DB	'\Vc7\atlmfc\include\afxtempl.h', 00H
	ORG $+1
$SG196262 DB	'D:\Program Files (x86)\Microsoft Visual Studio .NET 2003'
	DB	'\Vc7\atlmfc\include\afxtempl.h', 00H
	ORG $+1
$SG196279 DB	'D:\Program Files (x86)\Microsoft Visual Studio .NET 2003'
	DB	'\Vc7\atlmfc\include\afxtempl.h', 00H
	ORG $+1
$SG196304 DB	'D:\Program Files (x86)\Microsoft Visual Studio .NET 2003'
	DB	'\Vc7\atlmfc\include\afxtempl.h', 00H
CONST	ENDS
;	COMDAT ?g_pfnGetThreadACP@ATL@@3P6GIXZA
_DATA	SEGMENT
?g_pfnGetThreadACP@ATL@@3P6GIXZA DD FLAT:?_AtlGetThreadACPThunk@ATL@@YGIXZ ; ATL::g_pfnGetThreadACP
_DATA	ENDS
;	COMDAT ?_strthunks@ATL@@3U_AtlStringThunks@1@A
_DATA	SEGMENT
?_strthunks@ATL@@3U_AtlStringThunks@1@A DD FLAT:?CompareStringWThunk@ATL@@YGHKKPB_WH0H@Z ; ATL::_strthunks
	DD	FLAT:?GetStringTypeExWThunk@ATL@@YGHKKPB_WHPAG@Z
	DD	FLAT:?lstrcmpiWThunk@ATL@@YGHPB_W0@Z
	DD	FLAT:?CharLowerWThunk@ATL@@YGPA_WPA_W@Z
	DD	FLAT:?CharUpperWThunk@ATL@@YGPA_WPA_W@Z
	DD	FLAT:?GetEnvironmentVariableWThunk@ATL@@YGKPB_WPA_WK@Z
_DATA	ENDS
CONST	SEGMENT
	ORG $+1
_ID_MESSAGE_TABBAR DD 0bH
_ID_DATA_TABBAR DD 07H
CONST	ENDS
PUBLIC	?InterlockedExchangePointer@@YGPAXPAPAXPAX@Z	; InterlockedExchangePointer
PUBLIC	?_AtlGetThreadACPFake@ATL@@YGIXZ		; ATL::_AtlGetThreadACPFake
PUBLIC	?_AtlGetThreadACPReal@ATL@@YGIXZ		; ATL::_AtlGetThreadACPReal
EXTRN	__imp__GetVersionExA@4:NEAR
EXTRN	__RTC_InitBase:NEAR
EXTRN	__RTC_Shutdown:NEAR
EXTRN	__RTC_CheckEsp:NEAR
EXTRN	___security_cookie:DWORD
EXTRN	@_RTC_CheckStackVars@8:NEAR
EXTRN	@__security_check_cookie@4:NEAR
;	COMDAT rtc$IMZ
; File d:\program files (x86)\microsoft visual studio .net 2003\vc7\atlmfc\include\atlconv.h
rtc$IMZ	SEGMENT
__RTC_InitBase.rtc$IMZ DD FLAT:__RTC_InitBase
rtc$IMZ	ENDS
;	COMDAT rtc$TMZ
rtc$TMZ	SEGMENT
__RTC_Shutdown.rtc$TMZ DD FLAT:__RTC_Shutdown
; Function compile flags: /Odt /RTCsu
rtc$TMZ	ENDS
;	COMDAT ?_AtlGetThreadACPThunk@ATL@@YGIXZ
_TEXT	SEGMENT
_pfnGetThreadACP$ = -164				; size = 4
_ver$ = -156						; size = 148
__$ArrayPad$ = -4					; size = 4
__$ReturnAddr$ = 4					; size = 4
?_AtlGetThreadACPThunk@ATL@@YGIXZ PROC NEAR		; ATL::_AtlGetThreadACPThunk, COMDAT

; 134  : {

  00000	55		 push	 ebp
  00001	8b ec		 mov	 ebp, esp
  00003	81 ec a4 00 00
	00		 sub	 esp, 164		; 000000a4H
  00009	56		 push	 esi
  0000a	57		 push	 edi
  0000b	8d bd 5c ff ff
	ff		 lea	 edi, DWORD PTR [ebp-164]
  00011	b9 29 00 00 00	 mov	 ecx, 41			; 00000029H
  00016	b8 cc cc cc cc	 mov	 eax, -858993460		; ccccccccH
  0001b	f3 ab		 rep stosd
  0001d	a1 00 00 00 00	 mov	 eax, DWORD PTR ___security_cookie
  00022	89 45 fc	 mov	 DWORD PTR __$ArrayPad$[ebp], eax

; 135  : 	OSVERSIONINFO ver;
; 136  : 	ATLGETTHREADACP pfnGetThreadACP;
; 137  : 
; 138  : 	ver.dwOSVersionInfoSize = sizeof( ver );

  00025	c7 85 64 ff ff
	ff 94 00 00 00	 mov	 DWORD PTR _ver$[ebp], 148 ; 00000094H

; 139  : 	::GetVersionEx( &ver );

  0002f	8b f4		 mov	 esi, esp
  00031	8d 85 64 ff ff
	ff		 lea	 eax, DWORD PTR _ver$[ebp]
  00037	50		 push	 eax
  00038	ff 15 00 00 00
	00		 call	 DWORD PTR __imp__GetVersionExA@4
  0003e	3b f4		 cmp	 esi, esp
  00040	e8 00 00 00 00	 call	 __RTC_CheckEsp

; 140  : 	if( (ver.dwPlatformId == VER_PLATFORM_WIN32_NT) && (ver.dwMajorVersion >= 5) )

  00045	83 bd 74 ff ff
	ff 02		 cmp	 DWORD PTR _ver$[ebp+16], 2
  0004c	75 15		 jne	 SHORT $L24163
  0004e	83 bd 68 ff ff
	ff 05		 cmp	 DWORD PTR _ver$[ebp+4], 5
  00055	72 0c		 jb	 SHORT $L24163

; 141  : 	{
; 142  : 		// On Win2K, CP_THREAD_ACP is supported
; 143  : 		pfnGetThreadACP = _AtlGetThreadACPReal;

  00057	c7 85 5c ff ff
	ff 00 00 00 00	 mov	 DWORD PTR _pfnGetThreadACP$[ebp], OFFSET FLAT:?_AtlGetThreadACPReal@ATL@@YGIXZ ; ATL::_AtlGetThreadACPReal

; 144  : 	}
; 145  : 	else

  00061	eb 0a		 jmp	 SHORT $L24164
$L24163:

; 146  : 	{
; 147  : 		pfnGetThreadACP = _AtlGetThreadACPFake;

  00063	c7 85 5c ff ff
	ff 00 00 00 00	 mov	 DWORD PTR _pfnGetThreadACP$[ebp], OFFSET FLAT:?_AtlGetThreadACPFake@ATL@@YGIXZ ; ATL::_AtlGetThreadACPFake
$L24164:

; 148  : 	}
; 149  : 	InterlockedExchangePointer( reinterpret_cast< void** >(&g_pfnGetThreadACP), pfnGetThreadACP );

  0006d	8b 8d 5c ff ff
	ff		 mov	 ecx, DWORD PTR _pfnGetThreadACP$[ebp]
  00073	51		 push	 ecx
  00074	68 00 00 00 00	 push	 OFFSET FLAT:?g_pfnGetThreadACP@ATL@@3P6GIXZA ; ATL::g_pfnGetThreadACP
  00079	e8 00 00 00 00	 call	 ?InterlockedExchangePointer@@YGPAXPAPAXPAX@Z ; InterlockedExchangePointer

; 150  : 
; 151  : 	return( g_pfnGetThreadACP() );

  0007e	8b f4		 mov	 esi, esp
  00080	ff 15 00 00 00
	00		 call	 DWORD PTR ?g_pfnGetThreadACP@ATL@@3P6GIXZA ; ATL::g_pfnGetThreadACP
  00086	3b f4		 cmp	 esi, esp
  00088	e8 00 00 00 00	 call	 __RTC_CheckEsp

; 152  : }

  0008d	52		 push	 edx
  0008e	8b cd		 mov	 ecx, ebp
  00090	50		 push	 eax
  00091	8d 15 00 00 00
	00		 lea	 edx, DWORD PTR $L197277
  00097	e8 00 00 00 00	 call	 @_RTC_CheckStackVars@8
  0009c	58		 pop	 eax
  0009d	5a		 pop	 edx
  0009e	8b 4d fc	 mov	 ecx, DWORD PTR __$ArrayPad$[ebp]
  000a1	e8 00 00 00 00	 call	 @__security_check_cookie@4
  000a6	5f		 pop	 edi
  000a7	5e		 pop	 esi
  000a8	81 c4 a4 00 00
	00		 add	 esp, 164		; 000000a4H
  000ae	3b ec		 cmp	 ebp, esp
  000b0	e8 00 00 00 00	 call	 __RTC_CheckEsp
  000b5	8b e5		 mov	 esp, ebp
  000b7	5d		 pop	 ebp
  000b8	c3		 ret	 0
$L197277:
  000b9	01 00 00 00	 DD	 1
  000bd	00 00 00 00	 DD	 $L197276
$L197276:
  000c1	64 ff ff ff	 DD	 -156			; ffffff64H
  000c5	94 00 00 00	 DD	 148			; 00000094H
  000c9	00 00 00 00	 DD	 $L197273
$L197273:
  000cd	76		 DB	 118			; 00000076H
  000ce	65		 DB	 101			; 00000065H
  000cf	72		 DB	 114			; 00000072H
  000d0	00		 DB	 0
?_AtlGetThreadACPThunk@ATL@@YGIXZ ENDP			; ATL::_AtlGetThreadACPThunk
_TEXT	ENDS
EXTRN	__imp__InterlockedExchange@8:NEAR
; Function compile flags: /Odt /RTCsu
;	COMDAT ?InterlockedExchangePointer@@YGPAXPAPAXPAX@Z
_TEXT	SEGMENT
_pp$ = 8						; size = 4
_pNew$ = 12						; size = 4
?InterlockedExchangePointer@@YGPAXPAPAXPAX@Z PROC NEAR	; InterlockedExchangePointer, COMDAT

; 91   : {

  00000	55		 push	 ebp
  00001	8b ec		 mov	 ebp, esp
  00003	56		 push	 esi

; 92   : 	return( reinterpret_cast<void*>(static_cast<LONG_PTR>(::InterlockedExchange(reinterpret_cast<LONG*>(pp), static_cast<LONG>(reinterpret_cast<LONG_PTR>(pNew))))) );

  00004	8b f4		 mov	 esi, esp
  00006	8b 45 0c	 mov	 eax, DWORD PTR _pNew$[ebp]
  00009	50		 push	 eax
  0000a	8b 4d 08	 mov	 ecx, DWORD PTR _pp$[ebp]
  0000d	51		 push	 ecx
  0000e	ff 15 00 00 00
	00		 call	 DWORD PTR __imp__InterlockedExchange@8
  00014	3b f4		 cmp	 esi, esp
  00016	e8 00 00 00 00	 call	 __RTC_CheckEsp

; 93   : }

  0001b	5e		 pop	 esi
  0001c	3b ec		 cmp	 ebp, esp
  0001e	e8 00 00 00 00	 call	 __RTC_CheckEsp
  00023	5d		 pop	 ebp
  00024	c2 08 00	 ret	 8
?InterlockedExchangePointer@@YGPAXPAPAXPAX@Z ENDP	; InterlockedExchangePointer
_TEXT	ENDS
EXTRN	__imp__GetACP@0:NEAR
EXTRN	__imp__GetLocaleInfoA@16:NEAR
EXTRN	__imp__GetThreadLocale@0:NEAR
; Function compile flags: /Odt /RTCsu
;	COMDAT ?_AtlGetThreadACPFake@ATL@@YGIXZ
_TEXT	SEGMENT
_pch$24151 = -32					; size = 4
_szACP$ = -24						; size = 7
_lcidThread$ = -12					; size = 4
_nACP$ = -8						; size = 4
__$ArrayPad$ = -4					; size = 4
__$ReturnAddr$ = 4					; size = 4
?_AtlGetThreadACPFake@ATL@@YGIXZ PROC NEAR		; ATL::_AtlGetThreadACPFake, COMDAT

; 101  : {

  00000	55		 push	 ebp
  00001	8b ec		 mov	 ebp, esp
  00003	83 ec 20	 sub	 esp, 32			; 00000020H
  00006	56		 push	 esi
  00007	b8 cc cc cc cc	 mov	 eax, -858993460		; ccccccccH
  0000c	89 45 e0	 mov	 DWORD PTR [ebp-32], eax
  0000f	89 45 e4	 mov	 DWORD PTR [ebp-28], eax
  00012	89 45 e8	 mov	 DWORD PTR [ebp-24], eax
  00015	89 45 ec	 mov	 DWORD PTR [ebp-20], eax
  00018	89 45 f0	 mov	 DWORD PTR [ebp-16], eax
  0001b	89 45 f4	 mov	 DWORD PTR [ebp-12], eax
  0001e	89 45 f8	 mov	 DWORD PTR [ebp-8], eax
  00021	89 45 fc	 mov	 DWORD PTR [ebp-4], eax
  00024	a1 00 00 00 00	 mov	 eax, DWORD PTR ___security_cookie
  00029	89 45 fc	 mov	 DWORD PTR __$ArrayPad$[ebp], eax

; 102  : 	UINT nACP = 0;

  0002c	c7 45 f8 00 00
	00 00		 mov	 DWORD PTR _nACP$[ebp], 0

; 103  : 
; 104  : 	LCID lcidThread = ::GetThreadLocale();

  00033	8b f4		 mov	 esi, esp
  00035	ff 15 00 00 00
	00		 call	 DWORD PTR __imp__GetThreadLocale@0
  0003b	3b f4		 cmp	 esi, esp
  0003d	e8 00 00 00 00	 call	 __RTC_CheckEsp
  00042	89 45 f4	 mov	 DWORD PTR _lcidThread$[ebp], eax

; 105  : 
; 106  : 	char szACP[7];
; 107  : 	// GetLocaleInfoA will fail for a Unicode-only LCID, but those are only supported on 
; 108  : 	// Windows 2000.  Since Windows 2000 supports CP_THREAD_ACP, this code path is never
; 109  : 	// executed on Windows 2000.
; 110  : 	if (::GetLocaleInfoA(lcidThread, LOCALE_IDEFAULTANSICODEPAGE, szACP, 7) != 0)

  00045	8b f4		 mov	 esi, esp
  00047	6a 07		 push	 7
  00049	8d 45 e8	 lea	 eax, DWORD PTR _szACP$[ebp]
  0004c	50		 push	 eax
  0004d	68 04 10 00 00	 push	 4100			; 00001004H
  00052	8b 4d f4	 mov	 ecx, DWORD PTR _lcidThread$[ebp]
  00055	51		 push	 ecx
  00056	ff 15 00 00 00
	00		 call	 DWORD PTR __imp__GetLocaleInfoA@16
  0005c	3b f4		 cmp	 esi, esp
  0005e	e8 00 00 00 00	 call	 __RTC_CheckEsp
  00063	85 c0		 test	 eax, eax
  00065	74 34		 je	 SHORT $L24150

; 111  : 	{
; 112  : 		char* pch = szACP;

  00067	8d 55 e8	 lea	 edx, DWORD PTR _szACP$[ebp]
  0006a	89 55 e0	 mov	 DWORD PTR _pch$24151[ebp], edx
$L24153:

; 113  : 		while (*pch != '\0')

  0006d	8b 45 e0	 mov	 eax, DWORD PTR _pch$24151[ebp]
  00070	0f be 08	 movsx	 ecx, BYTE PTR [eax]
  00073	85 c9		 test	 ecx, ecx
  00075	74 24		 je	 SHORT $L24150

; 114  : 		{
; 115  : 			nACP *= 10;

  00077	8b 55 f8	 mov	 edx, DWORD PTR _nACP$[ebp]
  0007a	6b d2 0a	 imul	 edx, 10			; 0000000aH
  0007d	89 55 f8	 mov	 DWORD PTR _nACP$[ebp], edx

; 116  : 			nACP += *pch++ - '0';

  00080	8b 45 e0	 mov	 eax, DWORD PTR _pch$24151[ebp]
  00083	0f be 08	 movsx	 ecx, BYTE PTR [eax]
  00086	8b 55 f8	 mov	 edx, DWORD PTR _nACP$[ebp]
  00089	8d 44 0a d0	 lea	 eax, DWORD PTR [edx+ecx-48]
  0008d	89 45 f8	 mov	 DWORD PTR _nACP$[ebp], eax
  00090	8b 4d e0	 mov	 ecx, DWORD PTR _pch$24151[ebp]
  00093	83 c1 01	 add	 ecx, 1
  00096	89 4d e0	 mov	 DWORD PTR _pch$24151[ebp], ecx

; 117  : 		}

  00099	eb d2		 jmp	 SHORT $L24153
$L24150:

; 118  : 	}
; 119  : 	// Use the Default ANSI Code Page if we were unable to get the thread ACP or if one does not exist.
; 120  : 	if (nACP == 0)

  0009b	83 7d f8 00	 cmp	 DWORD PTR _nACP$[ebp], 0
  0009f	75 12		 jne	 SHORT $L24155

; 121  : 		nACP = ::GetACP();

  000a1	8b f4		 mov	 esi, esp
  000a3	ff 15 00 00 00
	00		 call	 DWORD PTR __imp__GetACP@0
  000a9	3b f4		 cmp	 esi, esp
  000ab	e8 00 00 00 00	 call	 __RTC_CheckEsp
  000b0	89 45 f8	 mov	 DWORD PTR _nACP$[ebp], eax
$L24155:

; 122  : 
; 123  : 	return nACP;

  000b3	8b 45 f8	 mov	 eax, DWORD PTR _nACP$[ebp]

; 124  : }

  000b6	52		 push	 edx
  000b7	8b cd		 mov	 ecx, ebp
  000b9	50		 push	 eax
  000ba	8d 15 00 00 00
	00		 lea	 edx, DWORD PTR $L197288
  000c0	e8 00 00 00 00	 call	 @_RTC_CheckStackVars@8
  000c5	58		 pop	 eax
  000c6	5a		 pop	 edx
  000c7	8b 4d fc	 mov	 ecx, DWORD PTR __$ArrayPad$[ebp]
  000ca	e8 00 00 00 00	 call	 @__security_check_cookie@4
  000cf	5e		 pop	 esi
  000d0	83 c4 20	 add	 esp, 32			; 00000020H
  000d3	3b ec		 cmp	 ebp, esp
  000d5	e8 00 00 00 00	 call	 __RTC_CheckEsp
  000da	8b e5		 mov	 esp, ebp
  000dc	5d		 pop	 ebp
  000dd	c3		 ret	 0
$L197288:
  000de	01 00 00 00	 DD	 1
  000e2	00 00 00 00	 DD	 $L197287
$L197287:
  000e6	e8 ff ff ff	 DD	 -24			; ffffffe8H
  000ea	07 00 00 00	 DD	 7
  000ee	00 00 00 00	 DD	 $L197285
$L197285:
  000f2	73		 DB	 115			; 00000073H
  000f3	7a		 DB	 122			; 0000007aH
  000f4	41		 DB	 65			; 00000041H
  000f5	43		 DB	 67			; 00000043H
  000f6	50		 DB	 80			; 00000050H
  000f7	00		 DB	 0
?_AtlGetThreadACPFake@ATL@@YGIXZ ENDP			; ATL::_AtlGetThreadACPFake
; Function compile flags: /Odt /RTCsu
_TEXT	ENDS
;	COMDAT ?_AtlGetThreadACPReal@ATL@@YGIXZ
_TEXT	SEGMENT
?_AtlGetThreadACPReal@ATL@@YGIXZ PROC NEAR		; ATL::_AtlGetThreadACPReal, COMDAT

; 127  : {

  00000	55		 push	 ebp
  00001	8b ec		 mov	 ebp, esp

; 128  : 	return( CP_THREAD_ACP );

  00003	b8 03 00 00 00	 mov	 eax, 3

; 129  : }

  00008	5d		 pop	 ebp
  00009	c3		 ret	 0
?_AtlGetThreadACPReal@ATL@@YGIXZ ENDP			; ATL::_AtlGetThreadACPReal
_TEXT	ENDS
PUBLIC	?GetInstance@CTabPageControl@@SAPAV1@XZ		; CTabPageControl::GetInstance
PUBLIC	??0CTabPageControl@@QAE@XZ			; CTabPageControl::CTabPageControl
EXTRN	??2@YAPAXI@Z:NEAR				; operator new
EXTRN	??3@YAXPAX@Z:NEAR				; operator delete
EXTRN	__except_list:DWORD
EXTRN	___CxxFrameHandler:NEAR
xdata$x	SEGMENT
$T197302 DD	0ffffffffH
	DD	FLAT:$L197295
$T197299 DD	019930520H
	DD	01H
	DD	FLAT:$T197302
	DD	2 DUP(00H)
	DD	2 DUP(00H)
; Function compile flags: /Odt /RTCsu
; File d:\boxgit\playbox\playbox\dev\prj\playbox\src\module\tabman\tabpagecontrol.cpp
xdata$x	ENDS
_TEXT	SEGMENT
tv72 = -24						; size = 4
$T197292 = -20						; size = 4
$T197291 = -16						; size = 4
__$EHRec$ = -12						; size = 12
?GetInstance@CTabPageControl@@SAPAV1@XZ PROC NEAR	; CTabPageControl::GetInstance

; 24   : {

  00000	55		 push	 ebp
  00001	8b ec		 mov	 ebp, esp
  00003	6a ff		 push	 -1
  00005	68 00 00 00 00	 push	 __ehhandler$?GetInstance@CTabPageControl@@SAPAV1@XZ
  0000a	64 a1 00 00 00
	00		 mov	 eax, DWORD PTR fs:__except_list
  00010	50		 push	 eax
  00011	64 89 25 00 00
	00 00		 mov	 DWORD PTR fs:__except_list, esp
  00018	83 ec 0c	 sub	 esp, 12			; 0000000cH
  0001b	c7 45 e8 cc cc
	cc cc		 mov	 DWORD PTR [ebp-24], -858993460 ; ccccccccH
  00022	c7 45 ec cc cc
	cc cc		 mov	 DWORD PTR [ebp-20], -858993460 ; ccccccccH
  00029	c7 45 f0 cc cc
	cc cc		 mov	 DWORD PTR [ebp-16], -858993460 ; ccccccccH

; 25   : 	if( m_pTabPageControl == NULL )

  00030	83 3d 00 00 00
	00 00		 cmp	 DWORD PTR ?m_pTabPageControl@CTabPageControl@@2PAV1@A, 0 ; CTabPageControl::m_pTabPageControl
  00037	75 44		 jne	 SHORT $L195152

; 26   : 	{
; 27   : 		m_pTabPageControl = new CTabPageControl;

  00039	6a 18		 push	 24			; 00000018H
  0003b	e8 00 00 00 00	 call	 ??2@YAPAXI@Z		; operator new
  00040	83 c4 04	 add	 esp, 4
  00043	89 45 ec	 mov	 DWORD PTR $T197292[ebp], eax
  00046	c7 45 fc 00 00
	00 00		 mov	 DWORD PTR __$EHRec$[ebp+8], 0
  0004d	83 7d ec 00	 cmp	 DWORD PTR $T197292[ebp], 0
  00051	74 0d		 je	 SHORT $L197293
  00053	8b 4d ec	 mov	 ecx, DWORD PTR $T197292[ebp]
  00056	e8 00 00 00 00	 call	 ??0CTabPageControl@@QAE@XZ ; CTabPageControl::CTabPageControl
  0005b	89 45 e8	 mov	 DWORD PTR tv72[ebp], eax
  0005e	eb 07		 jmp	 SHORT $L197294
$L197293:
  00060	c7 45 e8 00 00
	00 00		 mov	 DWORD PTR tv72[ebp], 0
$L197294:
  00067	8b 45 e8	 mov	 eax, DWORD PTR tv72[ebp]
  0006a	89 45 f0	 mov	 DWORD PTR $T197291[ebp], eax
  0006d	c7 45 fc ff ff
	ff ff		 mov	 DWORD PTR __$EHRec$[ebp+8], -1
  00074	8b 4d f0	 mov	 ecx, DWORD PTR $T197291[ebp]
  00077	89 0d 00 00 00
	00		 mov	 DWORD PTR ?m_pTabPageControl@CTabPageControl@@2PAV1@A, ecx ; CTabPageControl::m_pTabPageControl
$L195152:

; 28   : 	}
; 29   : 	return m_pTabPageControl;

  0007d	a1 00 00 00 00	 mov	 eax, DWORD PTR ?m_pTabPageControl@CTabPageControl@@2PAV1@A ; CTabPageControl::m_pTabPageControl

; 30   : }

  00082	8b 4d f4	 mov	 ecx, DWORD PTR __$EHRec$[ebp]
  00085	64 89 0d 00 00
	00 00		 mov	 DWORD PTR fs:__except_list, ecx
  0008c	83 c4 18	 add	 esp, 24			; 00000018H
  0008f	3b ec		 cmp	 ebp, esp
  00091	e8 00 00 00 00	 call	 __RTC_CheckEsp
  00096	8b e5		 mov	 esp, ebp
  00098	5d		 pop	 ebp
  00099	c3		 ret	 0
_TEXT	ENDS
text$x	SEGMENT
$L197295:
  00000	8b 45 ec	 mov	 eax, DWORD PTR $T197292[ebp]
  00003	50		 push	 eax
  00004	e8 00 00 00 00	 call	 ??3@YAXPAX@Z		; operator delete
  00009	59		 pop	 ecx
  0000a	c3		 ret	 0
__ehhandler$?GetInstance@CTabPageControl@@SAPAV1@XZ:
  0000b	b8 00 00 00 00	 mov	 eax, OFFSET FLAT:$T197299
  00010	e9 00 00 00 00	 jmp	 ___CxxFrameHandler
text$x	ENDS
?GetInstance@CTabPageControl@@SAPAV1@XZ ENDP		; CTabPageControl::GetInstance
PUBLIC	?DelInstance@CTabPageControl@@SAXXZ		; CTabPageControl::DelInstance
; Function compile flags: /Odt /RTCsu
_TEXT	SEGMENT
tv71 = -12						; size = 4
$T197306 = -8						; size = 4
$T197305 = -4						; size = 4
?DelInstance@CTabPageControl@@SAXXZ PROC NEAR		; CTabPageControl::DelInstance

; 33   : {

  000a0	55		 push	 ebp
  000a1	8b ec		 mov	 ebp, esp
  000a3	83 ec 0c	 sub	 esp, 12			; 0000000cH
  000a6	56		 push	 esi
  000a7	c7 45 f4 cc cc
	cc cc		 mov	 DWORD PTR [ebp-12], -858993460 ; ccccccccH
  000ae	c7 45 f8 cc cc
	cc cc		 mov	 DWORD PTR [ebp-8], -858993460 ; ccccccccH
  000b5	c7 45 fc cc cc
	cc cc		 mov	 DWORD PTR [ebp-4], -858993460 ; ccccccccH

; 34   : 	if( m_pTabPageControl != NULL )

  000bc	83 3d 00 00 00
	00 00		 cmp	 DWORD PTR ?m_pTabPageControl@CTabPageControl@@2PAV1@A, 0 ; CTabPageControl::m_pTabPageControl
  000c3	74 3f		 je	 SHORT $L195158

; 35   : 	{
; 36   : 		delete m_pTabPageControl;

  000c5	a1 00 00 00 00	 mov	 eax, DWORD PTR ?m_pTabPageControl@CTabPageControl@@2PAV1@A ; CTabPageControl::m_pTabPageControl
  000ca	89 45 f8	 mov	 DWORD PTR $T197306[ebp], eax
  000cd	8b 4d f8	 mov	 ecx, DWORD PTR $T197306[ebp]
  000d0	89 4d fc	 mov	 DWORD PTR $T197305[ebp], ecx
  000d3	83 7d fc 00	 cmp	 DWORD PTR $T197305[ebp], 0
  000d7	74 1a		 je	 SHORT $L197307
  000d9	8b f4		 mov	 esi, esp
  000db	6a 01		 push	 1
  000dd	8b 55 fc	 mov	 edx, DWORD PTR $T197305[ebp]
  000e0	8b 02		 mov	 eax, DWORD PTR [edx]
  000e2	8b 4d fc	 mov	 ecx, DWORD PTR $T197305[ebp]
  000e5	ff 10		 call	 DWORD PTR [eax]
  000e7	3b f4		 cmp	 esi, esp
  000e9	e8 00 00 00 00	 call	 __RTC_CheckEsp
  000ee	89 45 f4	 mov	 DWORD PTR tv71[ebp], eax
  000f1	eb 07		 jmp	 SHORT $L197308
$L197307:
  000f3	c7 45 f4 00 00
	00 00		 mov	 DWORD PTR tv71[ebp], 0
$L197308:

; 37   : 		m_pTabPageControl = NULL;

  000fa	c7 05 00 00 00
	00 00 00 00 00	 mov	 DWORD PTR ?m_pTabPageControl@CTabPageControl@@2PAV1@A, 0 ; CTabPageControl::m_pTabPageControl
$L195158:

; 38   : 	}
; 39   : }

  00104	5e		 pop	 esi
  00105	83 c4 0c	 add	 esp, 12			; 0000000cH
  00108	3b ec		 cmp	 ebp, esp
  0010a	e8 00 00 00 00	 call	 __RTC_CheckEsp
  0010f	8b e5		 mov	 esp, ebp
  00111	5d		 pop	 ebp
  00112	c3		 ret	 0
?DelInstance@CTabPageControl@@SAXXZ ENDP		; CTabPageControl::DelInstance
_TEXT	ENDS
PUBLIC	??_R0?AVIMessageObserver@@@8			; IMessageObserver `RTTI Type Descriptor'
PUBLIC	??_R1A@?0A@A@IMessageObserver@@8		; IMessageObserver::`RTTI Base Class Descriptor at (0,-1,0,0)'
PUBLIC	??0ITabBarObserver@@QAE@XZ			; ITabBarObserver::ITabBarObserver
PUBLIC	??1ITabBarObserver@@UAE@XZ			; ITabBarObserver::~ITabBarObserver
PUBLIC	??_R0?AVITabBarObserver@@@8			; ITabBarObserver `RTTI Type Descriptor'
PUBLIC	??0?$vector@U?$pair@UTAB_ITEM@@PAVCWnd@@@std@@V?$allocator@U?$pair@UTAB_ITEM@@PAVCWnd@@@std@@@2@@std@@QAE@XZ ; std::vector<std::pair<TAB_ITEM,CWnd *>,std::allocator<std::pair<TAB_ITEM,CWnd *> > >::vector<std::pair<TAB_ITEM,CWnd *>,std::allocator<std::pair<TAB_ITEM,CWnd *> > >
PUBLIC	??_R1A@?0A@A@ITabBarObserver@@8			; ITabBarObserver::`RTTI Base Class Descriptor at (0,-1,0,0)'
PUBLIC	??_R4CTabPageControl@@6B@			; CTabPageControl::`RTTI Complete Object Locator'
PUBLIC	??_R0?AVCTabPageControl@@@8			; CTabPageControl `RTTI Type Descriptor'
PUBLIC	??_R3CTabPageControl@@8				; CTabPageControl::`RTTI Class Hierarchy Descriptor'
PUBLIC	??_R2CTabPageControl@@8				; CTabPageControl::`RTTI Base Class Array'
PUBLIC	??_R1A@?0A@A@CTabPageControl@@8			; CTabPageControl::`RTTI Base Class Descriptor at (0,-1,0,0)'
PUBLIC	??1?$vector@U?$pair@UTAB_ITEM@@PAVCWnd@@@std@@V?$allocator@U?$pair@UTAB_ITEM@@PAVCWnd@@@std@@@2@@std@@QAE@XZ ; std::vector<std::pair<TAB_ITEM,CWnd *>,std::allocator<std::pair<TAB_ITEM,CWnd *> > >::~vector<std::pair<TAB_ITEM,CWnd *>,std::allocator<std::pair<TAB_ITEM,CWnd *> > >
PUBLIC	?ITabBarOb_CreateNewTab@CTabPageControl@@UAEXAAUTAB_ITEM@@@Z ; CTabPageControl::ITabBarOb_CreateNewTab
PUBLIC	?ITabBarOb_OpenExistTab@CTabPageControl@@UAEXAAUTAB_ITEM@@@Z ; CTabPageControl::ITabBarOb_OpenExistTab
PUBLIC	?ITabBarOb_DelTab@CTabPageControl@@UAEXAAUTAB_ITEM@@@Z ; CTabPageControl::ITabBarOb_DelTab
PUBLIC	?ITabBarOb_OpenTabError@CTabPageControl@@UAEXH@Z ; CTabPageControl::ITabBarOb_OpenTabError
PUBLIC	??_7CTabPageControl@@6B@			; CTabPageControl::`vftable'
PUBLIC	??_GCTabPageControl@@UAEPAXI@Z			; CTabPageControl::`scalar deleting destructor'
EXTRN	?AfxGetMessageManager@@YAPAVIMessageManager@@XZ:NEAR ; AfxGetMessageManager
EXTRN	??_7type_info@@6B@:QWORD			; type_info::`vftable'
EXTRN	??_ECTabPageControl@@UAEPAXI@Z:NEAR		; CTabPageControl::`vector deleting destructor'
xdata$x	SEGMENT
$T197315 DD	0ffffffffH
	DD	FLAT:$L197310
	DD	00H
	DD	FLAT:$L197311
$T197313 DD	019930520H
	DD	02H
	DD	FLAT:$T197315
	DD	2 DUP(00H)
	DD	2 DUP(00H)
xdata$x	ENDS
;	COMDAT ??_7CTabPageControl@@6B@
CONST	SEGMENT
??_7CTabPageControl@@6B@ DD FLAT:??_R4CTabPageControl@@6B@ ; CTabPageControl::`vftable'
	DD	FLAT:??_ECTabPageControl@@UAEPAXI@Z
	DD	FLAT:?ITabBarOb_CreateNewTab@CTabPageControl@@UAEXAAUTAB_ITEM@@@Z
	DD	FLAT:?ITabBarOb_OpenExistTab@CTabPageControl@@UAEXAAUTAB_ITEM@@@Z
	DD	FLAT:?ITabBarOb_DelTab@CTabPageControl@@UAEXAAUTAB_ITEM@@@Z
	DD	FLAT:?ITabBarOb_OpenTabError@CTabPageControl@@UAEXH@Z
CONST	ENDS
;	COMDAT ??_R4CTabPageControl@@6B@
rdata$r	SEGMENT
??_R4CTabPageControl@@6B@ DD 00H			; CTabPageControl::`RTTI Complete Object Locator'
	DD	00H
	DD	00H
	DD	FLAT:??_R0?AVCTabPageControl@@@8
	DD	FLAT:??_R3CTabPageControl@@8
rdata$r	ENDS
;	COMDAT ??_R0?AVCTabPageControl@@@8
_DATA	SEGMENT
??_R0?AVCTabPageControl@@@8 DD FLAT:??_7type_info@@6B@	; CTabPageControl `RTTI Type Descriptor'
	DD	00H
	DB	'.?AVCTabPageControl@@', 00H
_DATA	ENDS
;	COMDAT ??_R3CTabPageControl@@8
rdata$r	SEGMENT
??_R3CTabPageControl@@8 DD 00H				; CTabPageControl::`RTTI Class Hierarchy Descriptor'
	DD	00H
	DD	03H
	DD	FLAT:??_R2CTabPageControl@@8
rdata$r	ENDS
;	COMDAT ??_R2CTabPageControl@@8
rdata$r	SEGMENT
??_R2CTabPageControl@@8 DD FLAT:??_R1A@?0A@A@CTabPageControl@@8 ; CTabPageControl::`RTTI Base Class Array'
	DD	FLAT:??_R1A@?0A@A@ITabBarObserver@@8
	DD	FLAT:??_R1A@?0A@A@IMessageObserver@@8
rdata$r	ENDS
;	COMDAT ??_R1A@?0A@A@CTabPageControl@@8
rdata$r	SEGMENT
??_R1A@?0A@A@CTabPageControl@@8 DD FLAT:??_R0?AVCTabPageControl@@@8 ; CTabPageControl::`RTTI Base Class Descriptor at (0,-1,0,0)'
	DD	02H
	DD	00H
	DD	0ffffffffH
	DD	00H
	DD	00H
rdata$r	ENDS
;	COMDAT ??_R1A@?0A@A@ITabBarObserver@@8
rdata$r	SEGMENT
??_R1A@?0A@A@ITabBarObserver@@8 DD FLAT:??_R0?AVITabBarObserver@@@8 ; ITabBarObserver::`RTTI Base Class Descriptor at (0,-1,0,0)'
	DD	01H
	DD	00H
	DD	0ffffffffH
	DD	00H
	DD	00H
rdata$r	ENDS
;	COMDAT ??_R0?AVITabBarObserver@@@8
_DATA	SEGMENT
??_R0?AVITabBarObserver@@@8 DD FLAT:??_7type_info@@6B@	; ITabBarObserver `RTTI Type Descriptor'
	DD	00H
	DB	'.?AVITabBarObserver@@', 00H
_DATA	ENDS
;	COMDAT ??_R1A@?0A@A@IMessageObserver@@8
rdata$r	SEGMENT
??_R1A@?0A@A@IMessageObserver@@8 DD FLAT:??_R0?AVIMessageObserver@@@8 ; IMessageObserver::`RTTI Base Class Descriptor at (0,-1,0,0)'
	DD	00H
	DD	00H
	DD	0ffffffffH
	DD	00H
	DD	00H
rdata$r	ENDS
;	COMDAT ??_R0?AVIMessageObserver@@@8
_DATA	SEGMENT
??_R0?AVIMessageObserver@@@8 DD FLAT:??_7type_info@@6B@	; IMessageObserver `RTTI Type Descriptor'
	DD	00H
	DB	'.?AVIMessageObserver@@', 00H
; Function compile flags: /Odt /RTCsu
_DATA	ENDS
_TEXT	SEGMENT
tv76 = -20						; size = 4
_this$ = -16						; size = 4
__$EHRec$ = -12						; size = 12
??0CTabPageControl@@QAE@XZ PROC NEAR			; CTabPageControl::CTabPageControl
; _this$ = ecx

; 42   : {

  00120	55		 push	 ebp
  00121	8b ec		 mov	 ebp, esp
  00123	6a ff		 push	 -1
  00125	68 00 00 00 00	 push	 __ehhandler$??0CTabPageControl@@QAE@XZ
  0012a	64 a1 00 00 00
	00		 mov	 eax, DWORD PTR fs:__except_list
  00130	50		 push	 eax
  00131	64 89 25 00 00
	00 00		 mov	 DWORD PTR fs:__except_list, esp
  00138	83 ec 08	 sub	 esp, 8
  0013b	56		 push	 esi
  0013c	c7 45 ec cc cc
	cc cc		 mov	 DWORD PTR [ebp-20], -858993460 ; ccccccccH
  00143	c7 45 f0 cc cc
	cc cc		 mov	 DWORD PTR [ebp-16], -858993460 ; ccccccccH
  0014a	89 4d f0	 mov	 DWORD PTR _this$[ebp], ecx
  0014d	8b 4d f0	 mov	 ecx, DWORD PTR _this$[ebp]
  00150	e8 00 00 00 00	 call	 ??0ITabBarObserver@@QAE@XZ
  00155	c7 45 fc 00 00
	00 00		 mov	 DWORD PTR __$EHRec$[ebp+8], 0
  0015c	8b 45 f0	 mov	 eax, DWORD PTR _this$[ebp]
  0015f	c7 00 00 00 00
	00		 mov	 DWORD PTR [eax], OFFSET FLAT:??_7CTabPageControl@@6B@
  00165	8b 4d f0	 mov	 ecx, DWORD PTR _this$[ebp]
  00168	83 c1 04	 add	 ecx, 4
  0016b	e8 00 00 00 00	 call	 ??0?$vector@U?$pair@UTAB_ITEM@@PAVCWnd@@@std@@V?$allocator@U?$pair@UTAB_ITEM@@PAVCWnd@@@std@@@2@@std@@QAE@XZ ; std::vector<std::pair<TAB_ITEM,CWnd *>,std::allocator<std::pair<TAB_ITEM,CWnd *> > >::vector<std::pair<TAB_ITEM,CWnd *>,std::allocator<std::pair<TAB_ITEM,CWnd *> > >
  00170	c6 45 fc 01	 mov	 BYTE PTR __$EHRec$[ebp+8], 1

; 43   : 	AfxGetMessageManager()->AttachMessage( ID_MESSAGE_TABBAR,(ITabBarObserver*) this);

  00174	e8 00 00 00 00	 call	 ?AfxGetMessageManager@@YAPAVIMessageManager@@XZ ; AfxGetMessageManager
  00179	89 45 ec	 mov	 DWORD PTR tv76[ebp], eax
  0017c	8b f4		 mov	 esi, esp
  0017e	6a 02		 push	 2
  00180	8b 4d f0	 mov	 ecx, DWORD PTR _this$[ebp]
  00183	51		 push	 ecx
  00184	68 00 00 00 00	 push	 OFFSET FLAT:_ID_MESSAGE_TABBAR
  00189	8b 55 ec	 mov	 edx, DWORD PTR tv76[ebp]
  0018c	8b 02		 mov	 eax, DWORD PTR [edx]
  0018e	8b 4d ec	 mov	 ecx, DWORD PTR tv76[ebp]
  00191	ff 50 04	 call	 DWORD PTR [eax+4]
  00194	3b f4		 cmp	 esi, esp
  00196	e8 00 00 00 00	 call	 __RTC_CheckEsp

; 44   : }

  0019b	c7 45 fc ff ff
	ff ff		 mov	 DWORD PTR __$EHRec$[ebp+8], -1
  001a2	8b 45 f0	 mov	 eax, DWORD PTR _this$[ebp]
  001a5	8b 4d f4	 mov	 ecx, DWORD PTR __$EHRec$[ebp]
  001a8	64 89 0d 00 00
	00 00		 mov	 DWORD PTR fs:__except_list, ecx
  001af	5e		 pop	 esi
  001b0	83 c4 14	 add	 esp, 20			; 00000014H
  001b3	3b ec		 cmp	 ebp, esp
  001b5	e8 00 00 00 00	 call	 __RTC_CheckEsp
  001ba	8b e5		 mov	 esp, ebp
  001bc	5d		 pop	 ebp
  001bd	c3		 ret	 0
_TEXT	ENDS
text$x	SEGMENT
$L197310:
  00015	8b 4d f0	 mov	 ecx, DWORD PTR _this$[ebp]
  00018	e9 00 00 00 00	 jmp	 ??1ITabBarObserver@@UAE@XZ
$L197311:
  0001d	8b 4d f0	 mov	 ecx, DWORD PTR _this$[ebp]
  00020	83 c1 04	 add	 ecx, 4
  00023	e9 00 00 00 00	 jmp	 ??1?$vector@U?$pair@UTAB_ITEM@@PAVCWnd@@@std@@V?$allocator@U?$pair@UTAB_ITEM@@PAVCWnd@@@std@@@2@@std@@QAE@XZ ; std::vector<std::pair<TAB_ITEM,CWnd *>,std::allocator<std::pair<TAB_ITEM,CWnd *> > >::~vector<std::pair<TAB_ITEM,CWnd *>,std::allocator<std::pair<TAB_ITEM,CWnd *> > >
__ehhandler$??0CTabPageControl@@QAE@XZ:
  00028	b8 00 00 00 00	 mov	 eax, OFFSET FLAT:$T197313
  0002d	e9 00 00 00 00	 jmp	 ___CxxFrameHandler
text$x	ENDS
??0CTabPageControl@@QAE@XZ ENDP				; CTabPageControl::CTabPageControl
PUBLIC	??1CTabPageControl@@UAE@XZ			; CTabPageControl::~CTabPageControl
; Function compile flags: /Odt /RTCsu
;	COMDAT ??_GCTabPageControl@@UAEPAXI@Z
_TEXT	SEGMENT
_this$ = -4						; size = 4
___flags$ = 8						; size = 4
??_GCTabPageControl@@UAEPAXI@Z PROC NEAR		; CTabPageControl::`scalar deleting destructor', COMDAT
; _this$ = ecx
  00000	55		 push	 ebp
  00001	8b ec		 mov	 ebp, esp
  00003	51		 push	 ecx
  00004	c7 45 fc cc cc
	cc cc		 mov	 DWORD PTR [ebp-4], -858993460 ; ccccccccH
  0000b	89 4d fc	 mov	 DWORD PTR _this$[ebp], ecx
  0000e	8b 4d fc	 mov	 ecx, DWORD PTR _this$[ebp]
  00011	e8 00 00 00 00	 call	 ??1CTabPageControl@@UAE@XZ ; CTabPageControl::~CTabPageControl
  00016	8b 45 08	 mov	 eax, DWORD PTR ___flags$[ebp]
  00019	83 e0 01	 and	 eax, 1
  0001c	74 0c		 je	 SHORT $L195169
  0001e	8b 4d fc	 mov	 ecx, DWORD PTR _this$[ebp]
  00021	51		 push	 ecx
  00022	e8 00 00 00 00	 call	 ??3@YAXPAX@Z		; operator delete
  00027	83 c4 04	 add	 esp, 4
$L195169:
  0002a	8b 45 fc	 mov	 eax, DWORD PTR _this$[ebp]
  0002d	83 c4 04	 add	 esp, 4
  00030	3b ec		 cmp	 ebp, esp
  00032	e8 00 00 00 00	 call	 __RTC_CheckEsp
  00037	8b e5		 mov	 esp, ebp
  00039	5d		 pop	 ebp
  0003a	c2 04 00	 ret	 4
??_GCTabPageControl@@UAEPAXI@Z ENDP			; CTabPageControl::`scalar deleting destructor'
_TEXT	ENDS
PUBLIC	??0IMessageObserver@@QAE@XZ			; IMessageObserver::IMessageObserver
PUBLIC	??_7ITabBarObserver@@6B@			; ITabBarObserver::`vftable'
PUBLIC	??_GITabBarObserver@@UAEPAXI@Z			; ITabBarObserver::`scalar deleting destructor'
PUBLIC	??_R4ITabBarObserver@@6B@			; ITabBarObserver::`RTTI Complete Object Locator'
PUBLIC	??_R3ITabBarObserver@@8				; ITabBarObserver::`RTTI Class Hierarchy Descriptor'
PUBLIC	??_R2ITabBarObserver@@8				; ITabBarObserver::`RTTI Base Class Array'
EXTRN	__purecall:NEAR
EXTRN	??_EITabBarObserver@@UAEPAXI@Z:NEAR		; ITabBarObserver::`vector deleting destructor'
;	COMDAT ??_7ITabBarObserver@@6B@
CONST	SEGMENT
??_7ITabBarObserver@@6B@ DD FLAT:??_R4ITabBarObserver@@6B@ ; ITabBarObserver::`vftable'
	DD	FLAT:??_EITabBarObserver@@UAEPAXI@Z
	DD	FLAT:__purecall
	DD	FLAT:__purecall
	DD	FLAT:__purecall
	DD	FLAT:__purecall
CONST	ENDS
;	COMDAT ??_R4ITabBarObserver@@6B@
rdata$r	SEGMENT
??_R4ITabBarObserver@@6B@ DD 00H			; ITabBarObserver::`RTTI Complete Object Locator'
	DD	00H
	DD	00H
	DD	FLAT:??_R0?AVITabBarObserver@@@8
	DD	FLAT:??_R3ITabBarObserver@@8
rdata$r	ENDS
;	COMDAT ??_R3ITabBarObserver@@8
rdata$r	SEGMENT
??_R3ITabBarObserver@@8 DD 00H				; ITabBarObserver::`RTTI Class Hierarchy Descriptor'
	DD	00H
	DD	02H
	DD	FLAT:??_R2ITabBarObserver@@8
rdata$r	ENDS
;	COMDAT ??_R2ITabBarObserver@@8
rdata$r	SEGMENT
??_R2ITabBarObserver@@8 DD FLAT:??_R1A@?0A@A@ITabBarObserver@@8 ; ITabBarObserver::`RTTI Base Class Array'
	DD	FLAT:??_R1A@?0A@A@IMessageObserver@@8
; Function compile flags: /Odt /RTCsu
rdata$r	ENDS
;	COMDAT ??0ITabBarObserver@@QAE@XZ
_TEXT	SEGMENT
_this$ = -4						; size = 4
??0ITabBarObserver@@QAE@XZ PROC NEAR			; ITabBarObserver::ITabBarObserver, COMDAT
; _this$ = ecx
  00000	55		 push	 ebp
  00001	8b ec		 mov	 ebp, esp
  00003	51		 push	 ecx
  00004	c7 45 fc cc cc
	cc cc		 mov	 DWORD PTR [ebp-4], -858993460 ; ccccccccH
  0000b	89 4d fc	 mov	 DWORD PTR _this$[ebp], ecx
  0000e	8b 4d fc	 mov	 ecx, DWORD PTR _this$[ebp]
  00011	e8 00 00 00 00	 call	 ??0IMessageObserver@@QAE@XZ
  00016	8b 45 fc	 mov	 eax, DWORD PTR _this$[ebp]
  00019	c7 00 00 00 00
	00		 mov	 DWORD PTR [eax], OFFSET FLAT:??_7ITabBarObserver@@6B@
  0001f	8b 45 fc	 mov	 eax, DWORD PTR _this$[ebp]
  00022	83 c4 04	 add	 esp, 4
  00025	3b ec		 cmp	 ebp, esp
  00027	e8 00 00 00 00	 call	 __RTC_CheckEsp
  0002c	8b e5		 mov	 esp, ebp
  0002e	5d		 pop	 ebp
  0002f	c3		 ret	 0
??0ITabBarObserver@@QAE@XZ ENDP				; ITabBarObserver::ITabBarObserver
_TEXT	ENDS
PUBLIC	??1IMessageObserver@@UAE@XZ			; IMessageObserver::~IMessageObserver
; Function compile flags: /Odt /RTCsu
;	COMDAT ??1ITabBarObserver@@UAE@XZ
_TEXT	SEGMENT
_this$ = -4						; size = 4
??1ITabBarObserver@@UAE@XZ PROC NEAR			; ITabBarObserver::~ITabBarObserver, COMDAT
; _this$ = ecx
  00000	55		 push	 ebp
  00001	8b ec		 mov	 ebp, esp
  00003	51		 push	 ecx
  00004	c7 45 fc cc cc
	cc cc		 mov	 DWORD PTR [ebp-4], -858993460 ; ccccccccH
  0000b	89 4d fc	 mov	 DWORD PTR _this$[ebp], ecx
  0000e	8b 4d fc	 mov	 ecx, DWORD PTR _this$[ebp]
  00011	e8 00 00 00 00	 call	 ??1IMessageObserver@@UAE@XZ ; IMessageObserver::~IMessageObserver
  00016	83 c4 04	 add	 esp, 4
  00019	3b ec		 cmp	 ebp, esp
  0001b	e8 00 00 00 00	 call	 __RTC_CheckEsp
  00020	8b e5		 mov	 esp, ebp
  00022	5d		 pop	 ebp
  00023	c3		 ret	 0
??1ITabBarObserver@@UAE@XZ ENDP				; ITabBarObserver::~ITabBarObserver
; Function compile flags: /Odt /RTCsu
_TEXT	ENDS
;	COMDAT ??_GITabBarObserver@@UAEPAXI@Z
_TEXT	SEGMENT
_this$ = -4						; size = 4
___flags$ = 8						; size = 4
??_GITabBarObserver@@UAEPAXI@Z PROC NEAR		; ITabBarObserver::`scalar deleting destructor', COMDAT
; _this$ = ecx
  00000	55		 push	 ebp
  00001	8b ec		 mov	 ebp, esp
  00003	51		 push	 ecx
  00004	c7 45 fc cc cc
	cc cc		 mov	 DWORD PTR [ebp-4], -858993460 ; ccccccccH
  0000b	89 4d fc	 mov	 DWORD PTR _this$[ebp], ecx
  0000e	8b 4d fc	 mov	 ecx, DWORD PTR _this$[ebp]
  00011	e8 00 00 00 00	 call	 ??1ITabBarObserver@@UAE@XZ
  00016	8b 45 08	 mov	 eax, DWORD PTR ___flags$[ebp]
  00019	83 e0 01	 and	 eax, 1
  0001c	74 0c		 je	 SHORT $L195177
  0001e	8b 4d fc	 mov	 ecx, DWORD PTR _this$[ebp]
  00021	51		 push	 ecx
  00022	e8 00 00 00 00	 call	 ??3@YAXPAX@Z		; operator delete
  00027	83 c4 04	 add	 esp, 4
$L195177:
  0002a	8b 45 fc	 mov	 eax, DWORD PTR _this$[ebp]
  0002d	83 c4 04	 add	 esp, 4
  00030	3b ec		 cmp	 ebp, esp
  00032	e8 00 00 00 00	 call	 __RTC_CheckEsp
  00037	8b e5		 mov	 esp, ebp
  00039	5d		 pop	 ebp
  0003a	c2 04 00	 ret	 4
??_GITabBarObserver@@UAEPAXI@Z ENDP			; ITabBarObserver::`scalar deleting destructor'
_TEXT	ENDS
PUBLIC	??_7IMessageObserver@@6B@			; IMessageObserver::`vftable'
PUBLIC	??_GIMessageObserver@@UAEPAXI@Z			; IMessageObserver::`scalar deleting destructor'
PUBLIC	??_R4IMessageObserver@@6B@			; IMessageObserver::`RTTI Complete Object Locator'
PUBLIC	??_R3IMessageObserver@@8			; IMessageObserver::`RTTI Class Hierarchy Descriptor'
PUBLIC	??_R2IMessageObserver@@8			; IMessageObserver::`RTTI Base Class Array'
EXTRN	??_EIMessageObserver@@UAEPAXI@Z:NEAR		; IMessageObserver::`vector deleting destructor'
;	COMDAT ??_7IMessageObserver@@6B@
CONST	SEGMENT
??_7IMessageObserver@@6B@ DD FLAT:??_R4IMessageObserver@@6B@ ; IMessageObserver::`vftable'
	DD	FLAT:??_EIMessageObserver@@UAEPAXI@Z
CONST	ENDS
;	COMDAT ??_R4IMessageObserver@@6B@
rdata$r	SEGMENT
??_R4IMessageObserver@@6B@ DD 00H			; IMessageObserver::`RTTI Complete Object Locator'
	DD	00H
	DD	00H
	DD	FLAT:??_R0?AVIMessageObserver@@@8
	DD	FLAT:??_R3IMessageObserver@@8
rdata$r	ENDS
;	COMDAT ??_R3IMessageObserver@@8
rdata$r	SEGMENT
??_R3IMessageObserver@@8 DD 00H				; IMessageObserver::`RTTI Class Hierarchy Descriptor'
	DD	00H
	DD	01H
	DD	FLAT:??_R2IMessageObserver@@8
rdata$r	ENDS
;	COMDAT ??_R2IMessageObserver@@8
rdata$r	SEGMENT
??_R2IMessageObserver@@8 DD FLAT:??_R1A@?0A@A@IMessageObserver@@8 ; IMessageObserver::`RTTI Base Class Array'
; Function compile flags: /Odt /RTCsu
rdata$r	ENDS
;	COMDAT ??0IMessageObserver@@QAE@XZ
_TEXT	SEGMENT
_this$ = -4						; size = 4
??0IMessageObserver@@QAE@XZ PROC NEAR			; IMessageObserver::IMessageObserver, COMDAT
; _this$ = ecx
  00000	55		 push	 ebp
  00001	8b ec		 mov	 ebp, esp
  00003	51		 push	 ecx
  00004	c7 45 fc cc cc
	cc cc		 mov	 DWORD PTR [ebp-4], -858993460 ; ccccccccH
  0000b	89 4d fc	 mov	 DWORD PTR _this$[ebp], ecx
  0000e	8b 45 fc	 mov	 eax, DWORD PTR _this$[ebp]
  00011	c7 00 00 00 00
	00		 mov	 DWORD PTR [eax], OFFSET FLAT:??_7IMessageObserver@@6B@
  00017	8b 45 fc	 mov	 eax, DWORD PTR _this$[ebp]
  0001a	8b e5		 mov	 esp, ebp
  0001c	5d		 pop	 ebp
  0001d	c3		 ret	 0
??0IMessageObserver@@QAE@XZ ENDP			; IMessageObserver::IMessageObserver
_TEXT	ENDS
xdata$x	SEGMENT
$T197328 DD	0ffffffffH
	DD	FLAT:$L197323
	DD	00H
	DD	FLAT:$L197324
$T197326 DD	019930520H
	DD	02H
	DD	FLAT:$T197328
	DD	2 DUP(00H)
	DD	2 DUP(00H)
; Function compile flags: /Odt /RTCsu
xdata$x	ENDS
_TEXT	SEGMENT
tv71 = -20						; size = 4
_this$ = -16						; size = 4
__$EHRec$ = -12						; size = 12
??1CTabPageControl@@UAE@XZ PROC NEAR			; CTabPageControl::~CTabPageControl
; _this$ = ecx

; 47   : {

  001c0	55		 push	 ebp
  001c1	8b ec		 mov	 ebp, esp
  001c3	6a ff		 push	 -1
  001c5	68 00 00 00 00	 push	 __ehhandler$??1CTabPageControl@@UAE@XZ
  001ca	64 a1 00 00 00
	00		 mov	 eax, DWORD PTR fs:__except_list
  001d0	50		 push	 eax
  001d1	64 89 25 00 00
	00 00		 mov	 DWORD PTR fs:__except_list, esp
  001d8	83 ec 08	 sub	 esp, 8
  001db	56		 push	 esi
  001dc	c7 45 ec cc cc
	cc cc		 mov	 DWORD PTR [ebp-20], -858993460 ; ccccccccH
  001e3	c7 45 f0 cc cc
	cc cc		 mov	 DWORD PTR [ebp-16], -858993460 ; ccccccccH
  001ea	89 4d f0	 mov	 DWORD PTR _this$[ebp], ecx
  001ed	8b 45 f0	 mov	 eax, DWORD PTR _this$[ebp]
  001f0	c7 00 00 00 00
	00		 mov	 DWORD PTR [eax], OFFSET FLAT:??_7CTabPageControl@@6B@
  001f6	c7 45 fc 01 00
	00 00		 mov	 DWORD PTR __$EHRec$[ebp+8], 1

; 48   : 	AfxGetMessageManager()->DetachMessage( ID_MESSAGE_TABBAR,(ITabBarObserver*) this);

  001fd	e8 00 00 00 00	 call	 ?AfxGetMessageManager@@YAPAVIMessageManager@@XZ ; AfxGetMessageManager
  00202	89 45 ec	 mov	 DWORD PTR tv71[ebp], eax
  00205	8b f4		 mov	 esi, esp
  00207	8b 4d f0	 mov	 ecx, DWORD PTR _this$[ebp]
  0020a	51		 push	 ecx
  0020b	68 00 00 00 00	 push	 OFFSET FLAT:_ID_MESSAGE_TABBAR
  00210	8b 55 ec	 mov	 edx, DWORD PTR tv71[ebp]
  00213	8b 02		 mov	 eax, DWORD PTR [edx]
  00215	8b 4d ec	 mov	 ecx, DWORD PTR tv71[ebp]
  00218	ff 50 08	 call	 DWORD PTR [eax+8]
  0021b	3b f4		 cmp	 esi, esp
  0021d	e8 00 00 00 00	 call	 __RTC_CheckEsp

; 49   : }

  00222	c6 45 fc 00	 mov	 BYTE PTR __$EHRec$[ebp+8], 0
  00226	8b 4d f0	 mov	 ecx, DWORD PTR _this$[ebp]
  00229	83 c1 04	 add	 ecx, 4
  0022c	e8 00 00 00 00	 call	 ??1?$vector@U?$pair@UTAB_ITEM@@PAVCWnd@@@std@@V?$allocator@U?$pair@UTAB_ITEM@@PAVCWnd@@@std@@@2@@std@@QAE@XZ ; std::vector<std::pair<TAB_ITEM,CWnd *>,std::allocator<std::pair<TAB_ITEM,CWnd *> > >::~vector<std::pair<TAB_ITEM,CWnd *>,std::allocator<std::pair<TAB_ITEM,CWnd *> > >
  00231	c7 45 fc ff ff
	ff ff		 mov	 DWORD PTR __$EHRec$[ebp+8], -1
  00238	8b 4d f0	 mov	 ecx, DWORD PTR _this$[ebp]
  0023b	e8 00 00 00 00	 call	 ??1ITabBarObserver@@UAE@XZ
  00240	8b 4d f4	 mov	 ecx, DWORD PTR __$EHRec$[ebp]
  00243	64 89 0d 00 00
	00 00		 mov	 DWORD PTR fs:__except_list, ecx
  0024a	5e		 pop	 esi
  0024b	83 c4 14	 add	 esp, 20			; 00000014H
  0024e	3b ec		 cmp	 ebp, esp
  00250	e8 00 00 00 00	 call	 __RTC_CheckEsp
  00255	8b e5		 mov	 esp, ebp
  00257	5d		 pop	 ebp
  00258	c3		 ret	 0
_TEXT	ENDS
text$x	SEGMENT
$L197323:
  00032	8b 4d f0	 mov	 ecx, DWORD PTR _this$[ebp]
  00035	e9 00 00 00 00	 jmp	 ??1ITabBarObserver@@UAE@XZ
$L197324:
  0003a	8b 4d f0	 mov	 ecx, DWORD PTR _this$[ebp]
  0003d	83 c1 04	 add	 ecx, 4
  00040	e9 00 00 00 00	 jmp	 ??1?$vector@U?$pair@UTAB_ITEM@@PAVCWnd@@@std@@V?$allocator@U?$pair@UTAB_ITEM@@PAVCWnd@@@std@@@2@@std@@QAE@XZ ; std::vector<std::pair<TAB_ITEM,CWnd *>,std::allocator<std::pair<TAB_ITEM,CWnd *> > >::~vector<std::pair<TAB_ITEM,CWnd *>,std::allocator<std::pair<TAB_ITEM,CWnd *> > >
__ehhandler$??1CTabPageControl@@UAE@XZ:
  00045	b8 00 00 00 00	 mov	 eax, OFFSET FLAT:$T197326
  0004a	e9 00 00 00 00	 jmp	 ___CxxFrameHandler
text$x	ENDS
??1CTabPageControl@@UAE@XZ ENDP				; CTabPageControl::~CTabPageControl
PUBLIC	?SetParentWnd@CTabPageControl@@QAEXPAVCWnd@@@Z	; CTabPageControl::SetParentWnd
EXTRN	?GetInstance@TabWndFactory@@SAPAV1@XZ:NEAR	; TabWndFactory::GetInstance
EXTRN	?SetParent@TabWndFactory@@QAEXPAVCWnd@@@Z:NEAR	; TabWndFactory::SetParent
; Function compile flags: /Odt /RTCsu
_TEXT	SEGMENT
_this$ = -4						; size = 4
_pWnd$ = 8						; size = 4
?SetParentWnd@CTabPageControl@@QAEXPAVCWnd@@@Z PROC NEAR ; CTabPageControl::SetParentWnd
; _this$ = ecx

; 52   : {

  00260	55		 push	 ebp
  00261	8b ec		 mov	 ebp, esp
  00263	51		 push	 ecx
  00264	c7 45 fc cc cc
	cc cc		 mov	 DWORD PTR [ebp-4], -858993460 ; ccccccccH
  0026b	89 4d fc	 mov	 DWORD PTR _this$[ebp], ecx

; 53   : 	m_pWndParent = pWnd;

  0026e	8b 45 fc	 mov	 eax, DWORD PTR _this$[ebp]
  00271	8b 4d 08	 mov	 ecx, DWORD PTR _pWnd$[ebp]
  00274	89 48 14	 mov	 DWORD PTR [eax+20], ecx

; 54   : 	TabWndFactory::GetInstance()->SetParent( pWnd );

  00277	8b 55 08	 mov	 edx, DWORD PTR _pWnd$[ebp]
  0027a	52		 push	 edx
  0027b	e8 00 00 00 00	 call	 ?GetInstance@TabWndFactory@@SAPAV1@XZ ; TabWndFactory::GetInstance
  00280	8b c8		 mov	 ecx, eax
  00282	e8 00 00 00 00	 call	 ?SetParent@TabWndFactory@@QAEXPAVCWnd@@@Z ; TabWndFactory::SetParent

; 55   : }

  00287	83 c4 04	 add	 esp, 4
  0028a	3b ec		 cmp	 ebp, esp
  0028c	e8 00 00 00 00	 call	 __RTC_CheckEsp
  00291	8b e5		 mov	 esp, ebp
  00293	5d		 pop	 ebp
  00294	c2 04 00	 ret	 4
?SetParentWnd@CTabPageControl@@QAEXPAVCWnd@@@Z ENDP	; CTabPageControl::SetParentWnd
_TEXT	ENDS
PUBLIC	??0TAB_ITEM@@QAE@ABU0@@Z			; TAB_ITEM::TAB_ITEM
PUBLIC	??4TAB_ITEM@@QAEAAU0@ABU0@@Z			; TAB_ITEM::operator=
PUBLIC	??0?$pair@UTAB_ITEM@@PAVCWnd@@@std@@QAE@XZ	; std::pair<TAB_ITEM,CWnd *>::pair<TAB_ITEM,CWnd *>
PUBLIC	??1?$pair@UTAB_ITEM@@PAVCWnd@@@std@@QAE@XZ	; std::pair<TAB_ITEM,CWnd *>::~pair<TAB_ITEM,CWnd *>
PUBLIC	?push_back@?$vector@U?$pair@UTAB_ITEM@@PAVCWnd@@@std@@V?$allocator@U?$pair@UTAB_ITEM@@PAVCWnd@@@std@@@2@@std@@QAEXABU?$pair@UTAB_ITEM@@PAVCWnd@@@2@@Z ; std::vector<std::pair<TAB_ITEM,CWnd *>,std::allocator<std::pair<TAB_ITEM,CWnd *> > >::push_back
EXTRN	?Navigate@MyWebBrowserWnd@@QAEXV?$basic_string@DU?$char_traits@D@std@@V?$allocator@D@2@@std@@@Z:NEAR ; MyWebBrowserWnd::Navigate
EXTRN	?SetHomePage@MyWebBrowserWnd@@QAEX_N@Z:NEAR	; MyWebBrowserWnd::SetHomePage
EXTRN	?GetInstance@CWebManager@@SAPAV1@XZ:NEAR	; CWebManager::GetInstance
EXTRN	?GetValue@CWebManager@@QAE?AV?$basic_string@DU?$char_traits@D@std@@V?$allocator@D@2@@std@@AAV23@V23@@Z:NEAR ; CWebManager::GetValue
EXTRN	?SetTabItem@GamePanelWnd@@QAEXUTAB_ITEM@@@Z:NEAR ; GamePanelWnd::SetTabItem
EXTRN	?SetTabItem@WebGamePanelWnd@@QAEXUTAB_ITEM@@@Z:NEAR ; WebGamePanelWnd::SetTabItem
EXTRN	??0CRect@@QAE@XZ:NEAR				; CRect::CRect
EXTRN	?CreateWndPlayedGame@TabWndFactory@@QAEPAVPlayedGameWnd@@XZ:NEAR ; TabWndFactory::CreateWndPlayedGame
EXTRN	?CreateWndGamePanel@TabWndFactory@@QAEPAVGamePanelWnd@@XZ:NEAR ; TabWndFactory::CreateWndGamePanel
EXTRN	?CreateWndWebGamePanel@TabWndFactory@@QAEPAVWebGamePanelWnd@@XZ:NEAR ; TabWndFactory::CreateWndWebGamePanel
EXTRN	?CreateWndMyWebBrowser@TabWndFactory@@QAEPAVMyWebBrowserWnd@@XZ:NEAR ; TabWndFactory::CreateWndMyWebBrowser
EXTRN	__imp_??0?$basic_string@DU?$char_traits@D@std@@V?$allocator@D@2@@std@@QAE@ABV01@@Z:NEAR
EXTRN	__imp_??0?$basic_string@DU?$char_traits@D@std@@V?$allocator@D@2@@std@@QAE@PBD@Z:NEAR
EXTRN	__imp_??1?$basic_string@DU?$char_traits@D@std@@V?$allocator@D@2@@std@@QAE@XZ:NEAR
EXTRN	?GetClientRect@CWnd@@QBEXPAUtagRECT@@@Z:NEAR	; CWnd::GetClientRect
EXTRN	__imp_?length@?$basic_string@DU?$char_traits@D@std@@V?$allocator@D@2@@std@@QBEIXZ:NEAR
xdata$x	SEGMENT
$T197357 DD	0ffffffffH
	DD	FLAT:$L197338
	DD	0ffffffffH
	DD	FLAT:$L197339
	DD	0ffffffffH
	DD	FLAT:$L197343
	DD	0ffffffffH
	DD	FLAT:$L197344
	DD	0ffffffffH
	DD	FLAT:$L197346
$T197348 DD	019930520H
	DD	05H
	DD	FLAT:$T197357
	DD	2 DUP(00H)
	DD	2 DUP(00H)
; Function compile flags: /Odt /RTCsu
xdata$x	ENDS
_TEXT	SEGMENT
tv269 = -276						; size = 4
tv266 = -272						; size = 4
tv265 = -268						; size = 4
tv276 = -264						; size = 4
tv263 = -260						; size = 4
tv261 = -256						; size = 4
tv259 = -252						; size = 4
tv256 = -248						; size = 4
tv255 = -244						; size = 4
tv271 = -240						; size = 4
$T197337 = -236						; size = 4
$T197336 = -232						; size = 4
$T197335 = -228						; size = 4
$T197334 = -224						; size = 4
$T197333 = -220						; size = 4
$T197332 = -216						; size = 4
_ot$195248 = -208					; size = 64
_pWnd$195222 = -140					; size = 4
_strUrl$195215 = -132					; size = 28
_pWnd$195214 = -100					; size = 4
_pWnd$195210 = -96					; size = 4
_pWnd$195206 = -92					; size = 4
_pWnd$195200 = -88					; size = 4
_strUrl$195195 = -80					; size = 28
_pWndTmp$ = -48						; size = 4
_rc$ = -40						; size = 16
_this$ = -20						; size = 4
__$ArrayPad$ = -16					; size = 4
__$EHRec$ = -12						; size = 12
__$ReturnAddr$ = 4					; size = 4
_item$ = 8						; size = 4
?ITabBarOb_CreateNewTab@CTabPageControl@@UAEXAAUTAB_ITEM@@@Z PROC NEAR ; CTabPageControl::ITabBarOb_CreateNewTab
; _this$ = ecx

; 60   : {

  002a0	55		 push	 ebp
  002a1	8b ec		 mov	 ebp, esp
  002a3	6a ff		 push	 -1
  002a5	68 00 00 00 00	 push	 __ehhandler$?ITabBarOb_CreateNewTab@CTabPageControl@@UAEXAAUTAB_ITEM@@@Z
  002aa	64 a1 00 00 00
	00		 mov	 eax, DWORD PTR fs:__except_list
  002b0	50		 push	 eax
  002b1	64 89 25 00 00
	00 00		 mov	 DWORD PTR fs:__except_list, esp
  002b8	81 ec 08 01 00
	00		 sub	 esp, 264		; 00000108H
  002be	56		 push	 esi
  002bf	57		 push	 edi
  002c0	51		 push	 ecx
  002c1	8d bd ec fe ff
	ff		 lea	 edi, DWORD PTR [ebp-276]
  002c7	b9 42 00 00 00	 mov	 ecx, 66			; 00000042H
  002cc	b8 cc cc cc cc	 mov	 eax, -858993460		; ccccccccH
  002d1	f3 ab		 rep stosd
  002d3	59		 pop	 ecx
  002d4	a1 00 00 00 00	 mov	 eax, DWORD PTR ___security_cookie
  002d9	89 45 f0	 mov	 DWORD PTR __$ArrayPad$[ebp], eax
  002dc	89 4d ec	 mov	 DWORD PTR _this$[ebp], ecx

; 61   : 	CRect rc;

  002df	8d 4d d8	 lea	 ecx, DWORD PTR _rc$[ebp]
  002e2	e8 00 00 00 00	 call	 ??0CRect@@QAE@XZ	; CRect::CRect

; 62   : 	m_pWndParent->GetClientRect(&rc);

  002e7	8d 45 d8	 lea	 eax, DWORD PTR _rc$[ebp]
  002ea	50		 push	 eax
  002eb	8b 4d ec	 mov	 ecx, DWORD PTR _this$[ebp]
  002ee	8b 49 14	 mov	 ecx, DWORD PTR [ecx+20]
  002f1	e8 00 00 00 00	 call	 ?GetClientRect@CWnd@@QBEXPAUtagRECT@@@Z ; CWnd::GetClientRect

; 63   : 
; 64   : 	CWnd* pWndTmp = NULL;

  002f6	c7 45 d0 00 00
	00 00		 mov	 DWORD PTR _pWndTmp$[ebp], 0

; 65   : 	if( item.eumType == TAB_HOME )

  002fd	8b 55 08	 mov	 edx, DWORD PTR _item$[ebp]
  00300	83 7a 1c 00	 cmp	 DWORD PTR [edx+28], 0
  00304	0f 85 e2 00 00
	00		 jne	 $L195194

; 66   : 	{
; 67   : 		string strUrl = CWebManager::GetInstance()->GetValue( item.strParam, "url" );

  0030a	83 ec 1c	 sub	 esp, 28			; 0000001cH
  0030d	8b cc		 mov	 ecx, esp
  0030f	89 a5 28 ff ff
	ff		 mov	 DWORD PTR $T197332[ebp], esp
  00315	8b f4		 mov	 esi, esp
  00317	68 00 00 00 00	 push	 OFFSET FLAT:$SG195198
  0031c	ff 15 00 00 00
	00		 call	 DWORD PTR __imp_??0?$basic_string@DU?$char_traits@D@std@@V?$allocator@D@2@@std@@QAE@PBD@Z
  00322	3b f4		 cmp	 esi, esp
  00324	e8 00 00 00 00	 call	 __RTC_CheckEsp
  00329	89 85 10 ff ff
	ff		 mov	 DWORD PTR tv271[ebp], eax
  0032f	8b 85 10 ff ff
	ff		 mov	 eax, DWORD PTR tv271[ebp]
  00335	89 85 0c ff ff
	ff		 mov	 DWORD PTR tv255[ebp], eax
  0033b	c7 45 fc 00 00
	00 00		 mov	 DWORD PTR __$EHRec$[ebp+8], 0
  00342	8b 4d 08	 mov	 ecx, DWORD PTR _item$[ebp]
  00345	83 c1 20	 add	 ecx, 32			; 00000020H
  00348	51		 push	 ecx
  00349	8d 55 b0	 lea	 edx, DWORD PTR _strUrl$195195[ebp]
  0034c	52		 push	 edx
  0034d	e8 00 00 00 00	 call	 ?GetInstance@CWebManager@@SAPAV1@XZ ; CWebManager::GetInstance
  00352	c7 45 fc ff ff
	ff ff		 mov	 DWORD PTR __$EHRec$[ebp+8], -1
  00359	8b c8		 mov	 ecx, eax
  0035b	e8 00 00 00 00	 call	 ?GetValue@CWebManager@@QAE?AV?$basic_string@DU?$char_traits@D@std@@V?$allocator@D@2@@std@@AAV23@V23@@Z ; CWebManager::GetValue
  00360	89 85 08 ff ff
	ff		 mov	 DWORD PTR tv256[ebp], eax
  00366	c7 45 fc 01 00
	00 00		 mov	 DWORD PTR __$EHRec$[ebp+8], 1

; 68   : 		if( strUrl.length() != 0 )

  0036d	8b f4		 mov	 esi, esp
  0036f	8d 4d b0	 lea	 ecx, DWORD PTR _strUrl$195195[ebp]
  00372	ff 15 00 00 00
	00		 call	 DWORD PTR __imp_?length@?$basic_string@DU?$char_traits@D@std@@V?$allocator@D@2@@std@@QBEIXZ
  00378	3b f4		 cmp	 esi, esp
  0037a	e8 00 00 00 00	 call	 __RTC_CheckEsp
  0037f	85 c0		 test	 eax, eax
  00381	74 4b		 je	 SHORT $L195199

; 69   : 		{
; 70   : 			MyWebBrowserWnd* pWnd = TabWndFactory::GetInstance()->CreateWndMyWebBrowser();

  00383	e8 00 00 00 00	 call	 ?GetInstance@TabWndFactory@@SAPAV1@XZ ; TabWndFactory::GetInstance
  00388	8b c8		 mov	 ecx, eax
  0038a	e8 00 00 00 00	 call	 ?CreateWndMyWebBrowser@TabWndFactory@@QAEPAVMyWebBrowserWnd@@XZ ; TabWndFactory::CreateWndMyWebBrowser
  0038f	89 45 a8	 mov	 DWORD PTR _pWnd$195200[ebp], eax

; 71   : 			pWnd->Navigate( strUrl );

  00392	83 ec 1c	 sub	 esp, 28			; 0000001cH
  00395	8b cc		 mov	 ecx, esp
  00397	89 a5 24 ff ff
	ff		 mov	 DWORD PTR $T197333[ebp], esp
  0039d	8b f4		 mov	 esi, esp
  0039f	8d 45 b0	 lea	 eax, DWORD PTR _strUrl$195195[ebp]
  003a2	50		 push	 eax
  003a3	ff 15 00 00 00
	00		 call	 DWORD PTR __imp_??0?$basic_string@DU?$char_traits@D@std@@V?$allocator@D@2@@std@@QAE@ABV01@@Z
  003a9	3b f4		 cmp	 esi, esp
  003ab	e8 00 00 00 00	 call	 __RTC_CheckEsp
  003b0	89 85 04 ff ff
	ff		 mov	 DWORD PTR tv259[ebp], eax
  003b6	8b 4d a8	 mov	 ecx, DWORD PTR _pWnd$195200[ebp]
  003b9	e8 00 00 00 00	 call	 ?Navigate@MyWebBrowserWnd@@QAEXV?$basic_string@DU?$char_traits@D@std@@V?$allocator@D@2@@std@@@Z ; MyWebBrowserWnd::Navigate

; 72   : 			pWnd->SetHomePage( true );

  003be	6a 01		 push	 1
  003c0	8b 4d a8	 mov	 ecx, DWORD PTR _pWnd$195200[ebp]
  003c3	e8 00 00 00 00	 call	 ?SetHomePage@MyWebBrowserWnd@@QAEX_N@Z ; MyWebBrowserWnd::SetHomePage

; 73   : 			pWndTmp = pWnd;

  003c8	8b 4d a8	 mov	 ecx, DWORD PTR _pWnd$195200[ebp]
  003cb	89 4d d0	 mov	 DWORD PTR _pWndTmp$[ebp], ecx
$L195199:

; 74   : 		}
; 75   : 	}else

  003ce	c7 45 fc ff ff
	ff ff		 mov	 DWORD PTR __$EHRec$[ebp+8], -1
  003d5	8b f4		 mov	 esi, esp
  003d7	8d 4d b0	 lea	 ecx, DWORD PTR _strUrl$195195[ebp]
  003da	ff 15 00 00 00
	00		 call	 DWORD PTR __imp_??1?$basic_string@DU?$char_traits@D@std@@V?$allocator@D@2@@std@@QAE@XZ
  003e0	3b f4		 cmp	 esi, esp
  003e2	e8 00 00 00 00	 call	 __RTC_CheckEsp
  003e7	e9 ab 01 00 00	 jmp	 $L195202
$L195194:

; 76   : 	if( item.eumType == TAB_GAME
; 77   : 		|| item.eumType == TAB_PLAYED_GAME
; 78   : 		|| item.eumType == TAB_WEB
; 79   : 		|| item.eumType == TAB_WEBGAME )

  003ec	8b 55 08	 mov	 edx, DWORD PTR _item$[ebp]
  003ef	83 7a 1c 03	 cmp	 DWORD PTR [edx+28], 3
  003f3	74 1f		 je	 SHORT $L195204
  003f5	8b 45 08	 mov	 eax, DWORD PTR _item$[ebp]
  003f8	83 78 1c 04	 cmp	 DWORD PTR [eax+28], 4
  003fc	74 16		 je	 SHORT $L195204
  003fe	8b 4d 08	 mov	 ecx, DWORD PTR _item$[ebp]
  00401	83 79 1c 02	 cmp	 DWORD PTR [ecx+28], 2
  00405	74 0d		 je	 SHORT $L195204
  00407	8b 55 08	 mov	 edx, DWORD PTR _item$[ebp]
  0040a	83 7a 1c 01	 cmp	 DWORD PTR [edx+28], 1
  0040e	0f 85 83 01 00
	00		 jne	 $L195202
$L195204:

; 80   : 	{
; 81   : 		if( item.eumType == TAB_GAME )

  00414	8b 45 08	 mov	 eax, DWORD PTR _item$[ebp]
  00417	83 78 1c 03	 cmp	 DWORD PTR [eax+28], 3
  0041b	75 3c		 jne	 SHORT $L195205

; 82   : 		{
; 83   : 			GamePanelWnd *pWnd = TabWndFactory::GetInstance()->CreateWndGamePanel();

  0041d	e8 00 00 00 00	 call	 ?GetInstance@TabWndFactory@@SAPAV1@XZ ; TabWndFactory::GetInstance
  00422	8b c8		 mov	 ecx, eax
  00424	e8 00 00 00 00	 call	 ?CreateWndGamePanel@TabWndFactory@@QAEPAVGamePanelWnd@@XZ ; TabWndFactory::CreateWndGamePanel
  00429	89 45 a4	 mov	 DWORD PTR _pWnd$195206[ebp], eax

; 84   : 			pWnd->SetTabItem( item );

  0042c	83 ec 3c	 sub	 esp, 60			; 0000003cH
  0042f	8b cc		 mov	 ecx, esp
  00431	89 a5 20 ff ff
	ff		 mov	 DWORD PTR $T197334[ebp], esp
  00437	8b 55 08	 mov	 edx, DWORD PTR _item$[ebp]
  0043a	52		 push	 edx
  0043b	e8 00 00 00 00	 call	 ??0TAB_ITEM@@QAE@ABU0@@Z
  00440	89 85 00 ff ff
	ff		 mov	 DWORD PTR tv261[ebp], eax
  00446	8b 4d a4	 mov	 ecx, DWORD PTR _pWnd$195206[ebp]
  00449	e8 00 00 00 00	 call	 ?SetTabItem@GamePanelWnd@@QAEXUTAB_ITEM@@@Z ; GamePanelWnd::SetTabItem

; 85   : 			pWndTmp = pWnd;

  0044e	8b 45 a4	 mov	 eax, DWORD PTR _pWnd$195206[ebp]
  00451	89 45 d0	 mov	 DWORD PTR _pWndTmp$[ebp], eax

; 86   : 		}else

  00454	e9 3e 01 00 00	 jmp	 $L195202
$L195205:

; 87   : 		if( item.eumType == TAB_WEBGAME )

  00459	8b 4d 08	 mov	 ecx, DWORD PTR _item$[ebp]
  0045c	83 79 1c 01	 cmp	 DWORD PTR [ecx+28], 1
  00460	75 3c		 jne	 SHORT $L195209

; 88   : 		{
; 89   : 			WebGamePanelWnd *pWnd = TabWndFactory::GetInstance()->CreateWndWebGamePanel();

  00462	e8 00 00 00 00	 call	 ?GetInstance@TabWndFactory@@SAPAV1@XZ ; TabWndFactory::GetInstance
  00467	8b c8		 mov	 ecx, eax
  00469	e8 00 00 00 00	 call	 ?CreateWndWebGamePanel@TabWndFactory@@QAEPAVWebGamePanelWnd@@XZ ; TabWndFactory::CreateWndWebGamePanel
  0046e	89 45 a0	 mov	 DWORD PTR _pWnd$195210[ebp], eax

; 90   : 			pWnd->SetTabItem( item );

  00471	83 ec 3c	 sub	 esp, 60			; 0000003cH
  00474	8b cc		 mov	 ecx, esp
  00476	89 a5 1c ff ff
	ff		 mov	 DWORD PTR $T197335[ebp], esp
  0047c	8b 55 08	 mov	 edx, DWORD PTR _item$[ebp]
  0047f	52		 push	 edx
  00480	e8 00 00 00 00	 call	 ??0TAB_ITEM@@QAE@ABU0@@Z
  00485	89 85 fc fe ff
	ff		 mov	 DWORD PTR tv263[ebp], eax
  0048b	8b 4d a0	 mov	 ecx, DWORD PTR _pWnd$195210[ebp]
  0048e	e8 00 00 00 00	 call	 ?SetTabItem@WebGamePanelWnd@@QAEXUTAB_ITEM@@@Z ; WebGamePanelWnd::SetTabItem

; 91   : 			pWndTmp = pWnd;

  00493	8b 45 a0	 mov	 eax, DWORD PTR _pWnd$195210[ebp]
  00496	89 45 d0	 mov	 DWORD PTR _pWndTmp$[ebp], eax

; 92   : 		}else

  00499	e9 f9 00 00 00	 jmp	 $L195202
$L195209:

; 93   : 		if( item.eumType == TAB_WEB )

  0049e	8b 4d 08	 mov	 ecx, DWORD PTR _item$[ebp]
  004a1	83 79 1c 02	 cmp	 DWORD PTR [ecx+28], 2
  004a5	0f 85 c8 00 00
	00		 jne	 $L195213

; 94   : 		{
; 95   : 			MyWebBrowserWnd *pWnd = TabWndFactory::GetInstance()->CreateWndMyWebBrowser();

  004ab	e8 00 00 00 00	 call	 ?GetInstance@TabWndFactory@@SAPAV1@XZ ; TabWndFactory::GetInstance
  004b0	8b c8		 mov	 ecx, eax
  004b2	e8 00 00 00 00	 call	 ?CreateWndMyWebBrowser@TabWndFactory@@QAEPAVMyWebBrowserWnd@@XZ ; TabWndFactory::CreateWndMyWebBrowser
  004b7	89 45 9c	 mov	 DWORD PTR _pWnd$195214[ebp], eax

; 96   : 			string strUrl = CWebManager::GetInstance()->GetValue( item.strParam, "param" );

  004ba	83 ec 1c	 sub	 esp, 28			; 0000001cH
  004bd	8b cc		 mov	 ecx, esp
  004bf	89 a5 18 ff ff
	ff		 mov	 DWORD PTR $T197336[ebp], esp
  004c5	8b f4		 mov	 esi, esp
  004c7	68 00 00 00 00	 push	 OFFSET FLAT:$SG195218
  004cc	ff 15 00 00 00
	00		 call	 DWORD PTR __imp_??0?$basic_string@DU?$char_traits@D@std@@V?$allocator@D@2@@std@@QAE@PBD@Z
  004d2	3b f4		 cmp	 esi, esp
  004d4	e8 00 00 00 00	 call	 __RTC_CheckEsp
  004d9	89 85 f8 fe ff
	ff		 mov	 DWORD PTR tv276[ebp], eax
  004df	8b 95 f8 fe ff
	ff		 mov	 edx, DWORD PTR tv276[ebp]
  004e5	89 95 f4 fe ff
	ff		 mov	 DWORD PTR tv265[ebp], edx
  004eb	c7 45 fc 02 00
	00 00		 mov	 DWORD PTR __$EHRec$[ebp+8], 2
  004f2	8b 45 08	 mov	 eax, DWORD PTR _item$[ebp]
  004f5	83 c0 20	 add	 eax, 32			; 00000020H
  004f8	50		 push	 eax
  004f9	8d 8d 7c ff ff
	ff		 lea	 ecx, DWORD PTR _strUrl$195215[ebp]
  004ff	51		 push	 ecx
  00500	e8 00 00 00 00	 call	 ?GetInstance@CWebManager@@SAPAV1@XZ ; CWebManager::GetInstance
  00505	c7 45 fc ff ff
	ff ff		 mov	 DWORD PTR __$EHRec$[ebp+8], -1
  0050c	8b c8		 mov	 ecx, eax
  0050e	e8 00 00 00 00	 call	 ?GetValue@CWebManager@@QAE?AV?$basic_string@DU?$char_traits@D@std@@V?$allocator@D@2@@std@@AAV23@V23@@Z ; CWebManager::GetValue
  00513	89 85 f0 fe ff
	ff		 mov	 DWORD PTR tv266[ebp], eax
  00519	c7 45 fc 03 00
	00 00		 mov	 DWORD PTR __$EHRec$[ebp+8], 3

; 97   : 			pWnd->Navigate( strUrl );

  00520	83 ec 1c	 sub	 esp, 28			; 0000001cH
  00523	8b cc		 mov	 ecx, esp
  00525	89 a5 14 ff ff
	ff		 mov	 DWORD PTR $T197337[ebp], esp
  0052b	8b f4		 mov	 esi, esp
  0052d	8d 95 7c ff ff
	ff		 lea	 edx, DWORD PTR _strUrl$195215[ebp]
  00533	52		 push	 edx
  00534	ff 15 00 00 00
	00		 call	 DWORD PTR __imp_??0?$basic_string@DU?$char_traits@D@std@@V?$allocator@D@2@@std@@QAE@ABV01@@Z
  0053a	3b f4		 cmp	 esi, esp
  0053c	e8 00 00 00 00	 call	 __RTC_CheckEsp
  00541	89 85 ec fe ff
	ff		 mov	 DWORD PTR tv269[ebp], eax
  00547	8b 4d 9c	 mov	 ecx, DWORD PTR _pWnd$195214[ebp]
  0054a	e8 00 00 00 00	 call	 ?Navigate@MyWebBrowserWnd@@QAEXV?$basic_string@DU?$char_traits@D@std@@V?$allocator@D@2@@std@@@Z ; MyWebBrowserWnd::Navigate

; 98   : 			pWndTmp = pWnd;

  0054f	8b 45 9c	 mov	 eax, DWORD PTR _pWnd$195214[ebp]
  00552	89 45 d0	 mov	 DWORD PTR _pWndTmp$[ebp], eax

; 99   : 		}else if( item.eumType == TAB_PLAYED_GAME )

  00555	c7 45 fc ff ff
	ff ff		 mov	 DWORD PTR __$EHRec$[ebp+8], -1
  0055c	8b f4		 mov	 esi, esp
  0055e	8d 8d 7c ff ff
	ff		 lea	 ecx, DWORD PTR _strUrl$195215[ebp]
  00564	ff 15 00 00 00
	00		 call	 DWORD PTR __imp_??1?$basic_string@DU?$char_traits@D@std@@V?$allocator@D@2@@std@@QAE@XZ
  0056a	3b f4		 cmp	 esi, esp
  0056c	e8 00 00 00 00	 call	 __RTC_CheckEsp
  00571	eb 24		 jmp	 SHORT $L195202
$L195213:
  00573	8b 4d 08	 mov	 ecx, DWORD PTR _item$[ebp]
  00576	83 79 1c 04	 cmp	 DWORD PTR [ecx+28], 4
  0057a	75 1b		 jne	 SHORT $L195202

; 100  : 		{
; 101  : 			PlayedGameWnd* pWnd = TabWndFactory::GetInstance()->CreateWndPlayedGame();

  0057c	e8 00 00 00 00	 call	 ?GetInstance@TabWndFactory@@SAPAV1@XZ ; TabWndFactory::GetInstance
  00581	8b c8		 mov	 ecx, eax
  00583	e8 00 00 00 00	 call	 ?CreateWndPlayedGame@TabWndFactory@@QAEPAVPlayedGameWnd@@XZ ; TabWndFactory::CreateWndPlayedGame
  00588	89 85 74 ff ff
	ff		 mov	 DWORD PTR _pWnd$195222[ebp], eax

; 102  : 			pWndTmp = pWnd;

  0058e	8b 95 74 ff ff
	ff		 mov	 edx, DWORD PTR _pWnd$195222[ebp]
  00594	89 55 d0	 mov	 DWORD PTR _pWndTmp$[ebp], edx
$L195202:

; 103  : 		}
; 104  : 	}
; 105  : 	if( pWndTmp != NULL )

  00597	83 7d d0 00	 cmp	 DWORD PTR _pWndTmp$[ebp], 0
  0059b	74 66		 je	 SHORT $L195191

; 106  : 	{
; 107  : 		ONE_TAB ot;

  0059d	8d 8d 30 ff ff
	ff		 lea	 ecx, DWORD PTR _ot$195248[ebp]
  005a3	e8 00 00 00 00	 call	 ??0?$pair@UTAB_ITEM@@PAVCWnd@@@std@@QAE@XZ ; std::pair<TAB_ITEM,CWnd *>::pair<TAB_ITEM,CWnd *>
  005a8	c7 45 fc 04 00
	00 00		 mov	 DWORD PTR __$EHRec$[ebp+8], 4

; 108  : 		ot.first = item;

  005af	8b 45 08	 mov	 eax, DWORD PTR _item$[ebp]
  005b2	50		 push	 eax
  005b3	8d 8d 30 ff ff
	ff		 lea	 ecx, DWORD PTR _ot$195248[ebp]
  005b9	e8 00 00 00 00	 call	 ??4TAB_ITEM@@QAEAAU0@ABU0@@Z

; 109  : 		ot.second = pWndTmp;

  005be	8b 4d d0	 mov	 ecx, DWORD PTR _pWndTmp$[ebp]
  005c1	89 8d 6c ff ff
	ff		 mov	 DWORD PTR _ot$195248[ebp+60], ecx

; 110  : 		m_mapTab.push_back( ot );

  005c7	8d 95 30 ff ff
	ff		 lea	 edx, DWORD PTR _ot$195248[ebp]
  005cd	52		 push	 edx
  005ce	8b 4d ec	 mov	 ecx, DWORD PTR _this$[ebp]
  005d1	83 c1 04	 add	 ecx, 4
  005d4	e8 00 00 00 00	 call	 ?push_back@?$vector@U?$pair@UTAB_ITEM@@PAVCWnd@@@std@@V?$allocator@U?$pair@UTAB_ITEM@@PAVCWnd@@@std@@@2@@std@@QAEXABU?$pair@UTAB_ITEM@@PAVCWnd@@@2@@Z ; std::vector<std::pair<TAB_ITEM,CWnd *>,std::allocator<std::pair<TAB_ITEM,CWnd *> > >::push_back

; 111  : 
; 112  : 		ITabBarOb_OpenExistTab( item );

  005d9	8b f4		 mov	 esi, esp
  005db	8b 45 08	 mov	 eax, DWORD PTR _item$[ebp]
  005de	50		 push	 eax
  005df	8b 4d ec	 mov	 ecx, DWORD PTR _this$[ebp]
  005e2	8b 11		 mov	 edx, DWORD PTR [ecx]
  005e4	8b 4d ec	 mov	 ecx, DWORD PTR _this$[ebp]
  005e7	ff 52 08	 call	 DWORD PTR [edx+8]
  005ea	3b f4		 cmp	 esi, esp
  005ec	e8 00 00 00 00	 call	 __RTC_CheckEsp

; 113  : 	}

  005f1	c7 45 fc ff ff
	ff ff		 mov	 DWORD PTR __$EHRec$[ebp+8], -1
  005f8	8d 8d 30 ff ff
	ff		 lea	 ecx, DWORD PTR _ot$195248[ebp]
  005fe	e8 00 00 00 00	 call	 ??1?$pair@UTAB_ITEM@@PAVCWnd@@@std@@QAE@XZ
$L195191:

; 114  : }

  00603	52		 push	 edx
  00604	8b cd		 mov	 ecx, ebp
  00606	50		 push	 eax
  00607	8d 15 00 00 00
	00		 lea	 edx, DWORD PTR $L197356
  0060d	e8 00 00 00 00	 call	 @_RTC_CheckStackVars@8
  00612	58		 pop	 eax
  00613	5a		 pop	 edx
  00614	8b 4d f4	 mov	 ecx, DWORD PTR __$EHRec$[ebp]
  00617	64 89 0d 00 00
	00 00		 mov	 DWORD PTR fs:__except_list, ecx
  0061e	8b 4d f0	 mov	 ecx, DWORD PTR __$ArrayPad$[ebp]
  00621	e8 00 00 00 00	 call	 @__security_check_cookie@4
  00626	5f		 pop	 edi
  00627	5e		 pop	 esi
  00628	81 c4 14 01 00
	00		 add	 esp, 276		; 00000114H
  0062e	3b ec		 cmp	 ebp, esp
  00630	e8 00 00 00 00	 call	 __RTC_CheckEsp
  00635	8b e5		 mov	 esp, ebp
  00637	5d		 pop	 ebp
  00638	c2 04 00	 ret	 4
$L197356:
  0063b	04 00 00 00	 DD	 4
  0063f	00 00 00 00	 DD	 $L197355
$L197355:
  00643	d8 ff ff ff	 DD	 -40			; ffffffd8H
  00647	10 00 00 00	 DD	 16			; 00000010H
  0064b	00 00 00 00	 DD	 $L197349
  0064f	b0 ff ff ff	 DD	 -80			; ffffffb0H
  00653	1c 00 00 00	 DD	 28			; 0000001cH
  00657	00 00 00 00	 DD	 $L197350
  0065b	7c ff ff ff	 DD	 -132			; ffffff7cH
  0065f	1c 00 00 00	 DD	 28			; 0000001cH
  00663	00 00 00 00	 DD	 $L197351
  00667	30 ff ff ff	 DD	 -208			; ffffff30H
  0066b	40 00 00 00	 DD	 64			; 00000040H
  0066f	00 00 00 00	 DD	 $L197352
$L197352:
  00673	6f		 DB	 111			; 0000006fH
  00674	74		 DB	 116			; 00000074H
  00675	00		 DB	 0
$L197351:
  00676	73		 DB	 115			; 00000073H
  00677	74		 DB	 116			; 00000074H
  00678	72		 DB	 114			; 00000072H
  00679	55		 DB	 85			; 00000055H
  0067a	72		 DB	 114			; 00000072H
  0067b	6c		 DB	 108			; 0000006cH
  0067c	00		 DB	 0
$L197350:
  0067d	73		 DB	 115			; 00000073H
  0067e	74		 DB	 116			; 00000074H
  0067f	72		 DB	 114			; 00000072H
  00680	55		 DB	 85			; 00000055H
  00681	72		 DB	 114			; 00000072H
  00682	6c		 DB	 108			; 0000006cH
  00683	00		 DB	 0
$L197349:
  00684	72		 DB	 114			; 00000072H
  00685	63		 DB	 99			; 00000063H
  00686	00		 DB	 0
_TEXT	ENDS
text$x	SEGMENT
$L197338:
  0004f	8b f4		 mov	 esi, esp
  00051	8b 8d 28 ff ff
	ff		 mov	 ecx, DWORD PTR $T197332[ebp]
  00057	ff 15 00 00 00
	00		 call	 DWORD PTR __imp_??1?$basic_string@DU?$char_traits@D@std@@V?$allocator@D@2@@std@@QAE@XZ
  0005d	3b f4		 cmp	 esi, esp
  0005f	e9 00 00 00 00	 jmp	 __RTC_CheckEsp
$L197339:
  00064	8b f4		 mov	 esi, esp
  00066	8d 4d b0	 lea	 ecx, DWORD PTR _strUrl$195195[ebp]
  00069	ff 15 00 00 00
	00		 call	 DWORD PTR __imp_??1?$basic_string@DU?$char_traits@D@std@@V?$allocator@D@2@@std@@QAE@XZ
  0006f	3b f4		 cmp	 esi, esp
  00071	e9 00 00 00 00	 jmp	 __RTC_CheckEsp
$L197343:
  00076	8b f4		 mov	 esi, esp
  00078	8b 8d 18 ff ff
	ff		 mov	 ecx, DWORD PTR $T197336[ebp]
  0007e	ff 15 00 00 00
	00		 call	 DWORD PTR __imp_??1?$basic_string@DU?$char_traits@D@std@@V?$allocator@D@2@@std@@QAE@XZ
  00084	3b f4		 cmp	 esi, esp
  00086	e9 00 00 00 00	 jmp	 __RTC_CheckEsp
$L197344:
  0008b	8b f4		 mov	 esi, esp
  0008d	8d 8d 7c ff ff
	ff		 lea	 ecx, DWORD PTR _strUrl$195215[ebp]
  00093	ff 15 00 00 00
	00		 call	 DWORD PTR __imp_??1?$basic_string@DU?$char_traits@D@std@@V?$allocator@D@2@@std@@QAE@XZ
  00099	3b f4		 cmp	 esi, esp
  0009b	e9 00 00 00 00	 jmp	 __RTC_CheckEsp
$L197346:
  000a0	8d 8d 30 ff ff
	ff		 lea	 ecx, DWORD PTR _ot$195248[ebp]
  000a6	e9 00 00 00 00	 jmp	 ??1?$pair@UTAB_ITEM@@PAVCWnd@@@std@@QAE@XZ
__ehhandler$?ITabBarOb_CreateNewTab@CTabPageControl@@UAEXAAUTAB_ITEM@@@Z:
  000ab	b8 00 00 00 00	 mov	 eax, OFFSET FLAT:$T197348
  000b0	e9 00 00 00 00	 jmp	 ___CxxFrameHandler
text$x	ENDS
?ITabBarOb_CreateNewTab@CTabPageControl@@UAEXAAUTAB_ITEM@@@Z ENDP ; CTabPageControl::ITabBarOb_CreateNewTab
;	COMDAT xdata$x
xdata$x	SEGMENT
$T197364 DD	0ffffffffH
	DD	FLAT:$L197359
$T197362 DD	019930520H
	DD	01H
	DD	FLAT:$T197364
	DD	2 DUP(00H)
	DD	2 DUP(00H)
; Function compile flags: /Odt /RTCsu
xdata$x	ENDS
;	COMDAT ??0TAB_ITEM@@QAE@ABU0@@Z
_TEXT	SEGMENT
_this$ = -16						; size = 4
__$EHRec$ = -12						; size = 12
___that$ = 8						; size = 4
??0TAB_ITEM@@QAE@ABU0@@Z PROC NEAR			; TAB_ITEM::TAB_ITEM, COMDAT
; _this$ = ecx
  00000	55		 push	 ebp
  00001	8b ec		 mov	 ebp, esp
  00003	6a ff		 push	 -1
  00005	68 00 00 00 00	 push	 __ehhandler$??0TAB_ITEM@@QAE@ABU0@@Z
  0000a	64 a1 00 00 00
	00		 mov	 eax, DWORD PTR fs:__except_list
  00010	50		 push	 eax
  00011	64 89 25 00 00
	00 00		 mov	 DWORD PTR fs:__except_list, esp
  00018	51		 push	 ecx
  00019	56		 push	 esi
  0001a	c7 45 f0 cc cc
	cc cc		 mov	 DWORD PTR [ebp-16], -858993460 ; ccccccccH
  00021	89 4d f0	 mov	 DWORD PTR _this$[ebp], ecx
  00024	8b f4		 mov	 esi, esp
  00026	8b 45 08	 mov	 eax, DWORD PTR ___that$[ebp]
  00029	50		 push	 eax
  0002a	8b 4d f0	 mov	 ecx, DWORD PTR _this$[ebp]
  0002d	ff 15 00 00 00
	00		 call	 DWORD PTR __imp_??0?$basic_string@DU?$char_traits@D@std@@V?$allocator@D@2@@std@@QAE@ABV01@@Z
  00033	3b f4		 cmp	 esi, esp
  00035	e8 00 00 00 00	 call	 __RTC_CheckEsp
  0003a	c7 45 fc 00 00
	00 00		 mov	 DWORD PTR __$EHRec$[ebp+8], 0
  00041	8b 4d f0	 mov	 ecx, DWORD PTR _this$[ebp]
  00044	8b 55 08	 mov	 edx, DWORD PTR ___that$[ebp]
  00047	8b 42 1c	 mov	 eax, DWORD PTR [edx+28]
  0004a	89 41 1c	 mov	 DWORD PTR [ecx+28], eax
  0004d	8b 4d 08	 mov	 ecx, DWORD PTR ___that$[ebp]
  00050	83 c1 20	 add	 ecx, 32			; 00000020H
  00053	8b f4		 mov	 esi, esp
  00055	51		 push	 ecx
  00056	8b 4d f0	 mov	 ecx, DWORD PTR _this$[ebp]
  00059	83 c1 20	 add	 ecx, 32			; 00000020H
  0005c	ff 15 00 00 00
	00		 call	 DWORD PTR __imp_??0?$basic_string@DU?$char_traits@D@std@@V?$allocator@D@2@@std@@QAE@ABV01@@Z
  00062	3b f4		 cmp	 esi, esp
  00064	e8 00 00 00 00	 call	 __RTC_CheckEsp
  00069	c7 45 fc ff ff
	ff ff		 mov	 DWORD PTR __$EHRec$[ebp+8], -1
  00070	8b 45 f0	 mov	 eax, DWORD PTR _this$[ebp]
  00073	8b 4d f4	 mov	 ecx, DWORD PTR __$EHRec$[ebp]
  00076	64 89 0d 00 00
	00 00		 mov	 DWORD PTR fs:__except_list, ecx
  0007d	5e		 pop	 esi
  0007e	83 c4 10	 add	 esp, 16			; 00000010H
  00081	3b ec		 cmp	 ebp, esp
  00083	e8 00 00 00 00	 call	 __RTC_CheckEsp
  00088	8b e5		 mov	 esp, ebp
  0008a	5d		 pop	 ebp
  0008b	c2 04 00	 ret	 4
_TEXT	ENDS
;	COMDAT text$x
text$x	SEGMENT
$L197359:
  00000	8b f4		 mov	 esi, esp
  00002	8b 4d f0	 mov	 ecx, DWORD PTR _this$[ebp]
  00005	ff 15 00 00 00
	00		 call	 DWORD PTR __imp_??1?$basic_string@DU?$char_traits@D@std@@V?$allocator@D@2@@std@@QAE@XZ
  0000b	3b f4		 cmp	 esi, esp
  0000d	e9 00 00 00 00	 jmp	 __RTC_CheckEsp
__ehhandler$??0TAB_ITEM@@QAE@ABU0@@Z:
  00012	b8 00 00 00 00	 mov	 eax, OFFSET FLAT:$T197362
  00017	e9 00 00 00 00	 jmp	 ___CxxFrameHandler
text$x	ENDS
??0TAB_ITEM@@QAE@ABU0@@Z ENDP				; TAB_ITEM::TAB_ITEM
PUBLIC	??1TAB_ITEM@@QAE@XZ				; TAB_ITEM::~TAB_ITEM
; Function compile flags: /Odt /RTCsu
;	COMDAT ??1?$pair@UTAB_ITEM@@PAVCWnd@@@std@@QAE@XZ
_TEXT	SEGMENT
_this$ = -4						; size = 4
??1?$pair@UTAB_ITEM@@PAVCWnd@@@std@@QAE@XZ PROC NEAR	; std::pair<TAB_ITEM,CWnd *>::~pair<TAB_ITEM,CWnd *>, COMDAT
; _this$ = ecx
  00000	55		 push	 ebp
  00001	8b ec		 mov	 ebp, esp
  00003	51		 push	 ecx
  00004	c7 45 fc cc cc
	cc cc		 mov	 DWORD PTR [ebp-4], -858993460 ; ccccccccH
  0000b	89 4d fc	 mov	 DWORD PTR _this$[ebp], ecx
  0000e	8b 4d fc	 mov	 ecx, DWORD PTR _this$[ebp]
  00011	e8 00 00 00 00	 call	 ??1TAB_ITEM@@QAE@XZ
  00016	83 c4 04	 add	 esp, 4
  00019	3b ec		 cmp	 ebp, esp
  0001b	e8 00 00 00 00	 call	 __RTC_CheckEsp
  00020	8b e5		 mov	 esp, ebp
  00022	5d		 pop	 ebp
  00023	c3		 ret	 0
??1?$pair@UTAB_ITEM@@PAVCWnd@@@std@@QAE@XZ ENDP		; std::pair<TAB_ITEM,CWnd *>::~pair<TAB_ITEM,CWnd *>
_TEXT	ENDS
;	COMDAT xdata$x
xdata$x	SEGMENT
$T197375 DD	0ffffffffH
	DD	FLAT:$L197370
$T197373 DD	019930520H
	DD	01H
	DD	FLAT:$T197375
	DD	2 DUP(00H)
	DD	2 DUP(00H)
; Function compile flags: /Odt /RTCsu
xdata$x	ENDS
;	COMDAT ??1TAB_ITEM@@QAE@XZ
_TEXT	SEGMENT
_this$ = -16						; size = 4
__$EHRec$ = -12						; size = 12
??1TAB_ITEM@@QAE@XZ PROC NEAR				; TAB_ITEM::~TAB_ITEM, COMDAT
; _this$ = ecx
  00000	55		 push	 ebp
  00001	8b ec		 mov	 ebp, esp
  00003	6a ff		 push	 -1
  00005	68 00 00 00 00	 push	 __ehhandler$??1TAB_ITEM@@QAE@XZ
  0000a	64 a1 00 00 00
	00		 mov	 eax, DWORD PTR fs:__except_list
  00010	50		 push	 eax
  00011	64 89 25 00 00
	00 00		 mov	 DWORD PTR fs:__except_list, esp
  00018	51		 push	 ecx
  00019	56		 push	 esi
  0001a	c7 45 f0 cc cc
	cc cc		 mov	 DWORD PTR [ebp-16], -858993460 ; ccccccccH
  00021	89 4d f0	 mov	 DWORD PTR _this$[ebp], ecx
  00024	c7 45 fc 00 00
	00 00		 mov	 DWORD PTR __$EHRec$[ebp+8], 0
  0002b	8b 4d f0	 mov	 ecx, DWORD PTR _this$[ebp]
  0002e	83 c1 20	 add	 ecx, 32			; 00000020H
  00031	8b f4		 mov	 esi, esp
  00033	ff 15 00 00 00
	00		 call	 DWORD PTR __imp_??1?$basic_string@DU?$char_traits@D@std@@V?$allocator@D@2@@std@@QAE@XZ
  00039	3b f4		 cmp	 esi, esp
  0003b	e8 00 00 00 00	 call	 __RTC_CheckEsp
  00040	c7 45 fc ff ff
	ff ff		 mov	 DWORD PTR __$EHRec$[ebp+8], -1
  00047	8b f4		 mov	 esi, esp
  00049	8b 4d f0	 mov	 ecx, DWORD PTR _this$[ebp]
  0004c	ff 15 00 00 00
	00		 call	 DWORD PTR __imp_??1?$basic_string@DU?$char_traits@D@std@@V?$allocator@D@2@@std@@QAE@XZ
  00052	3b f4		 cmp	 esi, esp
  00054	e8 00 00 00 00	 call	 __RTC_CheckEsp
  00059	8b 4d f4	 mov	 ecx, DWORD PTR __$EHRec$[ebp]
  0005c	64 89 0d 00 00
	00 00		 mov	 DWORD PTR fs:__except_list, ecx
  00063	5e		 pop	 esi
  00064	83 c4 10	 add	 esp, 16			; 00000010H
  00067	3b ec		 cmp	 ebp, esp
  00069	e8 00 00 00 00	 call	 __RTC_CheckEsp
  0006e	8b e5		 mov	 esp, ebp
  00070	5d		 pop	 ebp
  00071	c3		 ret	 0
_TEXT	ENDS
;	COMDAT text$x
text$x	SEGMENT
$L197370:
  00000	8b f4		 mov	 esi, esp
  00002	8b 4d f0	 mov	 ecx, DWORD PTR _this$[ebp]
  00005	ff 15 00 00 00
	00		 call	 DWORD PTR __imp_??1?$basic_string@DU?$char_traits@D@std@@V?$allocator@D@2@@std@@QAE@XZ
  0000b	3b f4		 cmp	 esi, esp
  0000d	e9 00 00 00 00	 jmp	 __RTC_CheckEsp
__ehhandler$??1TAB_ITEM@@QAE@XZ:
  00012	b8 00 00 00 00	 mov	 eax, OFFSET FLAT:$T197373
  00017	e9 00 00 00 00	 jmp	 ___CxxFrameHandler
text$x	ENDS
??1TAB_ITEM@@QAE@XZ ENDP				; TAB_ITEM::~TAB_ITEM
EXTRN	__imp_??4?$basic_string@DU?$char_traits@D@std@@V?$allocator@D@2@@std@@QAEAAV01@ABV01@@Z:NEAR
; Function compile flags: /Odt /RTCsu
;	COMDAT ??4TAB_ITEM@@QAEAAU0@ABU0@@Z
_TEXT	SEGMENT
_this$ = -4						; size = 4
___that$ = 8						; size = 4
??4TAB_ITEM@@QAEAAU0@ABU0@@Z PROC NEAR			; TAB_ITEM::operator=, COMDAT
; _this$ = ecx
  00000	55		 push	 ebp
  00001	8b ec		 mov	 ebp, esp
  00003	51		 push	 ecx
  00004	56		 push	 esi
  00005	c7 45 fc cc cc
	cc cc		 mov	 DWORD PTR [ebp-4], -858993460 ; ccccccccH
  0000c	89 4d fc	 mov	 DWORD PTR _this$[ebp], ecx
  0000f	8b f4		 mov	 esi, esp
  00011	8b 45 08	 mov	 eax, DWORD PTR ___that$[ebp]
  00014	50		 push	 eax
  00015	8b 4d fc	 mov	 ecx, DWORD PTR _this$[ebp]
  00018	ff 15 00 00 00
	00		 call	 DWORD PTR __imp_??4?$basic_string@DU?$char_traits@D@std@@V?$allocator@D@2@@std@@QAEAAV01@ABV01@@Z
  0001e	3b f4		 cmp	 esi, esp
  00020	e8 00 00 00 00	 call	 __RTC_CheckEsp
  00025	8b 4d fc	 mov	 ecx, DWORD PTR _this$[ebp]
  00028	8b 55 08	 mov	 edx, DWORD PTR ___that$[ebp]
  0002b	8b 42 1c	 mov	 eax, DWORD PTR [edx+28]
  0002e	89 41 1c	 mov	 DWORD PTR [ecx+28], eax
  00031	8b 4d 08	 mov	 ecx, DWORD PTR ___that$[ebp]
  00034	83 c1 20	 add	 ecx, 32			; 00000020H
  00037	8b f4		 mov	 esi, esp
  00039	51		 push	 ecx
  0003a	8b 4d fc	 mov	 ecx, DWORD PTR _this$[ebp]
  0003d	83 c1 20	 add	 ecx, 32			; 00000020H
  00040	ff 15 00 00 00
	00		 call	 DWORD PTR __imp_??4?$basic_string@DU?$char_traits@D@std@@V?$allocator@D@2@@std@@QAEAAV01@ABV01@@Z
  00046	3b f4		 cmp	 esi, esp
  00048	e8 00 00 00 00	 call	 __RTC_CheckEsp
  0004d	8b 45 fc	 mov	 eax, DWORD PTR _this$[ebp]
  00050	5e		 pop	 esi
  00051	83 c4 04	 add	 esp, 4
  00054	3b ec		 cmp	 ebp, esp
  00056	e8 00 00 00 00	 call	 __RTC_CheckEsp
  0005b	8b e5		 mov	 esp, ebp
  0005d	5d		 pop	 ebp
  0005e	c2 04 00	 ret	 4
??4TAB_ITEM@@QAEAAU0@ABU0@@Z ENDP			; TAB_ITEM::operator=
_TEXT	ENDS
PUBLIC	??9const_iterator@?$vector@U?$pair@UTAB_ITEM@@PAVCWnd@@@std@@V?$allocator@U?$pair@UTAB_ITEM@@PAVCWnd@@@std@@@2@@std@@QBE_NABV012@@Z ; std::vector<std::pair<TAB_ITEM,CWnd *>,std::allocator<std::pair<TAB_ITEM,CWnd *> > >::const_iterator::operator!=
PUBLIC	??Citerator@?$vector@U?$pair@UTAB_ITEM@@PAVCWnd@@@std@@V?$allocator@U?$pair@UTAB_ITEM@@PAVCWnd@@@std@@@2@@std@@QBEPAU?$pair@UTAB_ITEM@@PAVCWnd@@@2@XZ ; std::vector<std::pair<TAB_ITEM,CWnd *>,std::allocator<std::pair<TAB_ITEM,CWnd *> > >::iterator::operator->
PUBLIC	??Eiterator@?$vector@U?$pair@UTAB_ITEM@@PAVCWnd@@@std@@V?$allocator@U?$pair@UTAB_ITEM@@PAVCWnd@@@std@@@2@@std@@QAE?AV012@H@Z ; std::vector<std::pair<TAB_ITEM,CWnd *>,std::allocator<std::pair<TAB_ITEM,CWnd *> > >::iterator::operator++
PUBLIC	?begin@?$vector@U?$pair@UTAB_ITEM@@PAVCWnd@@@std@@V?$allocator@U?$pair@UTAB_ITEM@@PAVCWnd@@@std@@@2@@std@@QAE?AViterator@12@XZ ; std::vector<std::pair<TAB_ITEM,CWnd *>,std::allocator<std::pair<TAB_ITEM,CWnd *> > >::begin
PUBLIC	?end@?$vector@U?$pair@UTAB_ITEM@@PAVCWnd@@@std@@V?$allocator@U?$pair@UTAB_ITEM@@PAVCWnd@@@std@@@2@@std@@QAE?AViterator@12@XZ ; std::vector<std::pair<TAB_ITEM,CWnd *>,std::allocator<std::pair<TAB_ITEM,CWnd *> > >::end
EXTRN	__imp_??$?8DU?$char_traits@D@std@@V?$allocator@D@1@@std@@YA_NABV?$basic_string@DU?$char_traits@D@std@@V?$allocator@D@2@@0@0@Z:NEAR
EXTRN	?ShowWindow@CWnd@@QAEHH@Z:NEAR			; CWnd::ShowWindow
; Function compile flags: /Odt /RTCsu
_TEXT	SEGMENT
$T197381 = -24						; size = 4
$T197380 = -20						; size = 4
_it$195410 = -12					; size = 4
_this$ = -4						; size = 4
_item$ = 8						; size = 4
?ITabBarOb_OpenExistTab@CTabPageControl@@UAEXAAUTAB_ITEM@@@Z PROC NEAR ; CTabPageControl::ITabBarOb_OpenExistTab
; _this$ = ecx

; 151  : {

  00690	55		 push	 ebp
  00691	8b ec		 mov	 ebp, esp
  00693	83 ec 18	 sub	 esp, 24			; 00000018H
  00696	56		 push	 esi
  00697	b8 cc cc cc cc	 mov	 eax, -858993460		; ccccccccH
  0069c	89 45 e8	 mov	 DWORD PTR [ebp-24], eax
  0069f	89 45 ec	 mov	 DWORD PTR [ebp-20], eax
  006a2	89 45 f0	 mov	 DWORD PTR [ebp-16], eax
  006a5	89 45 f4	 mov	 DWORD PTR [ebp-12], eax
  006a8	89 45 f8	 mov	 DWORD PTR [ebp-8], eax
  006ab	89 45 fc	 mov	 DWORD PTR [ebp-4], eax
  006ae	89 4d fc	 mov	 DWORD PTR _this$[ebp], ecx

; 152  : 	for( vector<ONE_TAB>::iterator it = m_mapTab.begin();

  006b1	8d 45 f4	 lea	 eax, DWORD PTR _it$195410[ebp]
  006b4	50		 push	 eax
  006b5	8b 4d fc	 mov	 ecx, DWORD PTR _this$[ebp]
  006b8	83 c1 04	 add	 ecx, 4
  006bb	e8 00 00 00 00	 call	 ?begin@?$vector@U?$pair@UTAB_ITEM@@PAVCWnd@@@std@@V?$allocator@U?$pair@UTAB_ITEM@@PAVCWnd@@@std@@@2@@std@@QAE?AViterator@12@XZ ; std::vector<std::pair<TAB_ITEM,CWnd *>,std::allocator<std::pair<TAB_ITEM,CWnd *> > >::begin

; 153  : 		it != m_mapTab.end(); it++ )

  006c0	eb 0e		 jmp	 SHORT $L195414
$L195415:
  006c2	6a 00		 push	 0
  006c4	8d 4d ec	 lea	 ecx, DWORD PTR $T197380[ebp]
  006c7	51		 push	 ecx
  006c8	8d 4d f4	 lea	 ecx, DWORD PTR _it$195410[ebp]
  006cb	e8 00 00 00 00	 call	 ??Eiterator@?$vector@U?$pair@UTAB_ITEM@@PAVCWnd@@@std@@V?$allocator@U?$pair@UTAB_ITEM@@PAVCWnd@@@std@@@2@@std@@QAE?AV012@H@Z ; std::vector<std::pair<TAB_ITEM,CWnd *>,std::allocator<std::pair<TAB_ITEM,CWnd *> > >::iterator::operator++
$L195414:
  006d0	8d 55 e8	 lea	 edx, DWORD PTR $T197381[ebp]
  006d3	52		 push	 edx
  006d4	8b 4d fc	 mov	 ecx, DWORD PTR _this$[ebp]
  006d7	83 c1 04	 add	 ecx, 4
  006da	e8 00 00 00 00	 call	 ?end@?$vector@U?$pair@UTAB_ITEM@@PAVCWnd@@@std@@V?$allocator@U?$pair@UTAB_ITEM@@PAVCWnd@@@std@@@2@@std@@QAE?AViterator@12@XZ ; std::vector<std::pair<TAB_ITEM,CWnd *>,std::allocator<std::pair<TAB_ITEM,CWnd *> > >::end
  006df	50		 push	 eax
  006e0	8d 4d f4	 lea	 ecx, DWORD PTR _it$195410[ebp]
  006e3	e8 00 00 00 00	 call	 ??9const_iterator@?$vector@U?$pair@UTAB_ITEM@@PAVCWnd@@@std@@V?$allocator@U?$pair@UTAB_ITEM@@PAVCWnd@@@std@@@2@@std@@QBE_NABV012@@Z ; std::vector<std::pair<TAB_ITEM,CWnd *>,std::allocator<std::pair<TAB_ITEM,CWnd *> > >::const_iterator::operator!=
  006e8	0f b6 c0	 movzx	 eax, al
  006eb	85 c0		 test	 eax, eax
  006ed	74 64		 je	 SHORT $L195292

; 154  : 	{
; 155  : 		if( it->first.strName == item.strName 
; 156  : 			&& it->first.eumType == item.eumType )

  006ef	8b f4		 mov	 esi, esp
  006f1	8b 4d 08	 mov	 ecx, DWORD PTR _item$[ebp]
  006f4	51		 push	 ecx
  006f5	8d 4d f4	 lea	 ecx, DWORD PTR _it$195410[ebp]
  006f8	e8 00 00 00 00	 call	 ??Citerator@?$vector@U?$pair@UTAB_ITEM@@PAVCWnd@@@std@@V?$allocator@U?$pair@UTAB_ITEM@@PAVCWnd@@@std@@@2@@std@@QBEPAU?$pair@UTAB_ITEM@@PAVCWnd@@@2@XZ ; std::vector<std::pair<TAB_ITEM,CWnd *>,std::allocator<std::pair<TAB_ITEM,CWnd *> > >::iterator::operator->
  006fd	50		 push	 eax
  006fe	ff 15 00 00 00
	00		 call	 DWORD PTR __imp_??$?8DU?$char_traits@D@std@@V?$allocator@D@1@@std@@YA_NABV?$basic_string@DU?$char_traits@D@std@@V?$allocator@D@2@@0@0@Z
  00704	83 c4 08	 add	 esp, 8
  00707	3b f4		 cmp	 esi, esp
  00709	e8 00 00 00 00	 call	 __RTC_CheckEsp
  0070e	0f b6 d0	 movzx	 edx, al
  00711	85 d2		 test	 edx, edx
  00713	74 27		 je	 SHORT $L195417
  00715	8d 4d f4	 lea	 ecx, DWORD PTR _it$195410[ebp]
  00718	e8 00 00 00 00	 call	 ??Citerator@?$vector@U?$pair@UTAB_ITEM@@PAVCWnd@@@std@@V?$allocator@U?$pair@UTAB_ITEM@@PAVCWnd@@@std@@@2@@std@@QBEPAU?$pair@UTAB_ITEM@@PAVCWnd@@@2@XZ ; std::vector<std::pair<TAB_ITEM,CWnd *>,std::allocator<std::pair<TAB_ITEM,CWnd *> > >::iterator::operator->
  0071d	8b 4d 08	 mov	 ecx, DWORD PTR _item$[ebp]
  00720	8b 50 1c	 mov	 edx, DWORD PTR [eax+28]
  00723	3b 51 1c	 cmp	 edx, DWORD PTR [ecx+28]
  00726	75 14		 jne	 SHORT $L195417

; 157  : 		{
; 158  : 			it->second->ShowWindow( SW_SHOW );

  00728	6a 05		 push	 5
  0072a	8d 4d f4	 lea	 ecx, DWORD PTR _it$195410[ebp]
  0072d	e8 00 00 00 00	 call	 ??Citerator@?$vector@U?$pair@UTAB_ITEM@@PAVCWnd@@@std@@V?$allocator@U?$pair@UTAB_ITEM@@PAVCWnd@@@std@@@2@@std@@QBEPAU?$pair@UTAB_ITEM@@PAVCWnd@@@2@XZ ; std::vector<std::pair<TAB_ITEM,CWnd *>,std::allocator<std::pair<TAB_ITEM,CWnd *> > >::iterator::operator->
  00732	8b 48 3c	 mov	 ecx, DWORD PTR [eax+60]
  00735	e8 00 00 00 00	 call	 ?ShowWindow@CWnd@@QAEHH@Z ; CWnd::ShowWindow

; 159  : 		}else

  0073a	eb 12		 jmp	 SHORT $L195418
$L195417:

; 160  : 		{
; 161  : // 			it->second->MoveWindow( &rectNull, TRUE);
; 162  : 			it->second->ShowWindow( SW_HIDE);

  0073c	6a 00		 push	 0
  0073e	8d 4d f4	 lea	 ecx, DWORD PTR _it$195410[ebp]
  00741	e8 00 00 00 00	 call	 ??Citerator@?$vector@U?$pair@UTAB_ITEM@@PAVCWnd@@@std@@V?$allocator@U?$pair@UTAB_ITEM@@PAVCWnd@@@std@@@2@@std@@QBEPAU?$pair@UTAB_ITEM@@PAVCWnd@@@2@XZ ; std::vector<std::pair<TAB_ITEM,CWnd *>,std::allocator<std::pair<TAB_ITEM,CWnd *> > >::iterator::operator->
  00746	8b 48 3c	 mov	 ecx, DWORD PTR [eax+60]
  00749	e8 00 00 00 00	 call	 ?ShowWindow@CWnd@@QAEHH@Z ; CWnd::ShowWindow
$L195418:

; 163  : 		}
; 164  : 	}

  0074e	e9 6f ff ff ff	 jmp	 $L195415
$L195292:

; 165  : }

  00753	52		 push	 edx
  00754	8b cd		 mov	 ecx, ebp
  00756	50		 push	 eax
  00757	8d 15 00 00 00
	00		 lea	 edx, DWORD PTR $L197384
  0075d	e8 00 00 00 00	 call	 @_RTC_CheckStackVars@8
  00762	58		 pop	 eax
  00763	5a		 pop	 edx
  00764	5e		 pop	 esi
  00765	83 c4 18	 add	 esp, 24			; 00000018H
  00768	3b ec		 cmp	 ebp, esp
  0076a	e8 00 00 00 00	 call	 __RTC_CheckEsp
  0076f	8b e5		 mov	 esp, ebp
  00771	5d		 pop	 ebp
  00772	c2 04 00	 ret	 4
$L197384:
  00775	01 00 00 00	 DD	 1
  00779	00 00 00 00	 DD	 $L197383
$L197383:
  0077d	f4 ff ff ff	 DD	 -12			; fffffff4H
  00781	04 00 00 00	 DD	 4
  00785	00 00 00 00	 DD	 $L197382
$L197382:
  00789	69		 DB	 105			; 00000069H
  0078a	74		 DB	 116			; 00000074H
  0078b	00		 DB	 0
?ITabBarOb_OpenExistTab@CTabPageControl@@UAEXAAUTAB_ITEM@@@Z ENDP ; CTabPageControl::ITabBarOb_OpenExistTab
_TEXT	ENDS
PUBLIC	??0TAB_ITEM@@QAE@XZ				; TAB_ITEM::TAB_ITEM
PUBLIC	?erase@?$vector@U?$pair@UTAB_ITEM@@PAVCWnd@@@std@@V?$allocator@U?$pair@UTAB_ITEM@@PAVCWnd@@@std@@@2@@std@@QAE?AViterator@12@V312@@Z ; std::vector<std::pair<TAB_ITEM,CWnd *>,std::allocator<std::pair<TAB_ITEM,CWnd *> > >::erase
EXTRN	?AfxGetDataManager2@@YAPAVIDataManager@@XZ:NEAR	; AfxGetDataManager2
EXTRN	?Recycle@TabWndFactory@@QAEXPAVCWnd@@@Z:NEAR	; TabWndFactory::Recycle
xdata$x	SEGMENT
$T197400 DD	0ffffffffH
	DD	FLAT:$L197391
$T197393 DD	019930520H
	DD	01H
	DD	FLAT:$T197400
	DD	2 DUP(00H)
	DD	2 DUP(00H)
; Function compile flags: /Odt /RTCsu
xdata$x	ENDS
_TEXT	SEGMENT
tv153 = -124						; size = 4
tv147 = -120						; size = 4
$T197390 = -116						; size = 4
$T197389 = -112						; size = 4
$T197388 = -108						; size = 4
$T197387 = -104						; size = 4
_ti$ = -96						; size = 60
_it$ = -28						; size = 4
_this$ = -20						; size = 4
__$ArrayPad$ = -16					; size = 4
__$EHRec$ = -12						; size = 12
__$ReturnAddr$ = 4					; size = 4
_item$ = 8						; size = 4
?ITabBarOb_DelTab@CTabPageControl@@UAEXAAUTAB_ITEM@@@Z PROC NEAR ; CTabPageControl::ITabBarOb_DelTab
; _this$ = ecx

; 168  : {

  00790	55		 push	 ebp
  00791	8b ec		 mov	 ebp, esp
  00793	6a ff		 push	 -1
  00795	68 00 00 00 00	 push	 __ehhandler$?ITabBarOb_DelTab@CTabPageControl@@UAEXAAUTAB_ITEM@@@Z
  0079a	64 a1 00 00 00
	00		 mov	 eax, DWORD PTR fs:__except_list
  007a0	50		 push	 eax
  007a1	64 89 25 00 00
	00 00		 mov	 DWORD PTR fs:__except_list, esp
  007a8	83 ec 70	 sub	 esp, 112		; 00000070H
  007ab	56		 push	 esi
  007ac	57		 push	 edi
  007ad	51		 push	 ecx
  007ae	8d 7d 84	 lea	 edi, DWORD PTR [ebp-124]
  007b1	b9 1c 00 00 00	 mov	 ecx, 28			; 0000001cH
  007b6	b8 cc cc cc cc	 mov	 eax, -858993460		; ccccccccH
  007bb	f3 ab		 rep stosd
  007bd	59		 pop	 ecx
  007be	a1 00 00 00 00	 mov	 eax, DWORD PTR ___security_cookie
  007c3	89 45 f0	 mov	 DWORD PTR __$ArrayPad$[ebp], eax
  007c6	89 4d ec	 mov	 DWORD PTR _this$[ebp], ecx

; 169  : 	vector<ONE_TAB>::iterator it = m_mapTab.begin();

  007c9	8d 45 e4	 lea	 eax, DWORD PTR _it$[ebp]
  007cc	50		 push	 eax
  007cd	8b 4d ec	 mov	 ecx, DWORD PTR _this$[ebp]
  007d0	83 c1 04	 add	 ecx, 4
  007d3	e8 00 00 00 00	 call	 ?begin@?$vector@U?$pair@UTAB_ITEM@@PAVCWnd@@@std@@V?$allocator@U?$pair@UTAB_ITEM@@PAVCWnd@@@std@@@2@@std@@QAE?AViterator@12@XZ ; std::vector<std::pair<TAB_ITEM,CWnd *>,std::allocator<std::pair<TAB_ITEM,CWnd *> > >::begin

; 170  : 	for( ; it != m_mapTab.end(); it++ )

  007d8	eb 0e		 jmp	 SHORT $L195428
$L195429:
  007da	6a 00		 push	 0
  007dc	8d 4d 98	 lea	 ecx, DWORD PTR $T197387[ebp]
  007df	51		 push	 ecx
  007e0	8d 4d e4	 lea	 ecx, DWORD PTR _it$[ebp]
  007e3	e8 00 00 00 00	 call	 ??Eiterator@?$vector@U?$pair@UTAB_ITEM@@PAVCWnd@@@std@@V?$allocator@U?$pair@UTAB_ITEM@@PAVCWnd@@@std@@@2@@std@@QAE?AV012@H@Z ; std::vector<std::pair<TAB_ITEM,CWnd *>,std::allocator<std::pair<TAB_ITEM,CWnd *> > >::iterator::operator++
$L195428:
  007e8	8d 55 94	 lea	 edx, DWORD PTR $T197388[ebp]
  007eb	52		 push	 edx
  007ec	8b 4d ec	 mov	 ecx, DWORD PTR _this$[ebp]
  007ef	83 c1 04	 add	 ecx, 4
  007f2	e8 00 00 00 00	 call	 ?end@?$vector@U?$pair@UTAB_ITEM@@PAVCWnd@@@std@@V?$allocator@U?$pair@UTAB_ITEM@@PAVCWnd@@@std@@@2@@std@@QAE?AViterator@12@XZ ; std::vector<std::pair<TAB_ITEM,CWnd *>,std::allocator<std::pair<TAB_ITEM,CWnd *> > >::end
  007f7	50		 push	 eax
  007f8	8d 4d e4	 lea	 ecx, DWORD PTR _it$[ebp]
  007fb	e8 00 00 00 00	 call	 ??9const_iterator@?$vector@U?$pair@UTAB_ITEM@@PAVCWnd@@@std@@V?$allocator@U?$pair@UTAB_ITEM@@PAVCWnd@@@std@@@2@@std@@QBE_NABV012@@Z ; std::vector<std::pair<TAB_ITEM,CWnd *>,std::allocator<std::pair<TAB_ITEM,CWnd *> > >::const_iterator::operator!=
  00800	0f b6 c0	 movzx	 eax, al
  00803	85 c0		 test	 eax, eax
  00805	74 3d		 je	 SHORT $L195430

; 171  : 	{
; 172  : 		if( it->first.strName == item.strName
; 173  : 			&& it->first.eumType == item.eumType )

  00807	8b f4		 mov	 esi, esp
  00809	8b 4d 08	 mov	 ecx, DWORD PTR _item$[ebp]
  0080c	51		 push	 ecx
  0080d	8d 4d e4	 lea	 ecx, DWORD PTR _it$[ebp]
  00810	e8 00 00 00 00	 call	 ??Citerator@?$vector@U?$pair@UTAB_ITEM@@PAVCWnd@@@std@@V?$allocator@U?$pair@UTAB_ITEM@@PAVCWnd@@@std@@@2@@std@@QBEPAU?$pair@UTAB_ITEM@@PAVCWnd@@@2@XZ ; std::vector<std::pair<TAB_ITEM,CWnd *>,std::allocator<std::pair<TAB_ITEM,CWnd *> > >::iterator::operator->
  00815	50		 push	 eax
  00816	ff 15 00 00 00
	00		 call	 DWORD PTR __imp_??$?8DU?$char_traits@D@std@@V?$allocator@D@1@@std@@YA_NABV?$basic_string@DU?$char_traits@D@std@@V?$allocator@D@2@@0@0@Z
  0081c	83 c4 08	 add	 esp, 8
  0081f	3b f4		 cmp	 esi, esp
  00821	e8 00 00 00 00	 call	 __RTC_CheckEsp
  00826	0f b6 d0	 movzx	 edx, al
  00829	85 d2		 test	 edx, edx
  0082b	74 15		 je	 SHORT $L195431
  0082d	8d 4d e4	 lea	 ecx, DWORD PTR _it$[ebp]
  00830	e8 00 00 00 00	 call	 ??Citerator@?$vector@U?$pair@UTAB_ITEM@@PAVCWnd@@@std@@V?$allocator@U?$pair@UTAB_ITEM@@PAVCWnd@@@std@@@2@@std@@QBEPAU?$pair@UTAB_ITEM@@PAVCWnd@@@2@XZ ; std::vector<std::pair<TAB_ITEM,CWnd *>,std::allocator<std::pair<TAB_ITEM,CWnd *> > >::iterator::operator->
  00835	8b 4d 08	 mov	 ecx, DWORD PTR _item$[ebp]
  00838	8b 50 1c	 mov	 edx, DWORD PTR [eax+28]
  0083b	3b 51 1c	 cmp	 edx, DWORD PTR [ecx+28]
  0083e	75 02		 jne	 SHORT $L195431

; 174  : 		{
; 175  : 			break;

  00840	eb 02		 jmp	 SHORT $L195430
$L195431:

; 176  : 		}
; 177  : 	}

  00842	eb 96		 jmp	 SHORT $L195429
$L195430:

; 178  : 	if( it != m_mapTab.end() )

  00844	8d 45 90	 lea	 eax, DWORD PTR $T197389[ebp]
  00847	50		 push	 eax
  00848	8b 4d ec	 mov	 ecx, DWORD PTR _this$[ebp]
  0084b	83 c1 04	 add	 ecx, 4
  0084e	e8 00 00 00 00	 call	 ?end@?$vector@U?$pair@UTAB_ITEM@@PAVCWnd@@@std@@V?$allocator@U?$pair@UTAB_ITEM@@PAVCWnd@@@std@@@2@@std@@QAE?AViterator@12@XZ ; std::vector<std::pair<TAB_ITEM,CWnd *>,std::allocator<std::pair<TAB_ITEM,CWnd *> > >::end
  00853	50		 push	 eax
  00854	8d 4d e4	 lea	 ecx, DWORD PTR _it$[ebp]
  00857	e8 00 00 00 00	 call	 ??9const_iterator@?$vector@U?$pair@UTAB_ITEM@@PAVCWnd@@@std@@V?$allocator@U?$pair@UTAB_ITEM@@PAVCWnd@@@std@@@2@@std@@QBE_NABV012@@Z ; std::vector<std::pair<TAB_ITEM,CWnd *>,std::allocator<std::pair<TAB_ITEM,CWnd *> > >::const_iterator::operator!=
  0085c	0f b6 c8	 movzx	 ecx, al
  0085f	85 c9		 test	 ecx, ecx
  00861	74 2b		 je	 SHORT $L195433

; 179  : 	{
; 180  : 		TabWndFactory::GetInstance()->Recycle( it->second );

  00863	8d 4d e4	 lea	 ecx, DWORD PTR _it$[ebp]
  00866	e8 00 00 00 00	 call	 ??Citerator@?$vector@U?$pair@UTAB_ITEM@@PAVCWnd@@@std@@V?$allocator@U?$pair@UTAB_ITEM@@PAVCWnd@@@std@@@2@@std@@QBEPAU?$pair@UTAB_ITEM@@PAVCWnd@@@2@XZ ; std::vector<std::pair<TAB_ITEM,CWnd *>,std::allocator<std::pair<TAB_ITEM,CWnd *> > >::iterator::operator->
  0086b	8b 50 3c	 mov	 edx, DWORD PTR [eax+60]
  0086e	52		 push	 edx
  0086f	e8 00 00 00 00	 call	 ?GetInstance@TabWndFactory@@SAPAV1@XZ ; TabWndFactory::GetInstance
  00874	8b c8		 mov	 ecx, eax
  00876	e8 00 00 00 00	 call	 ?Recycle@TabWndFactory@@QAEXPAVCWnd@@@Z ; TabWndFactory::Recycle

; 181  : 		m_mapTab.erase( it );

  0087b	8b 45 e4	 mov	 eax, DWORD PTR _it$[ebp]
  0087e	50		 push	 eax
  0087f	8d 4d 8c	 lea	 ecx, DWORD PTR $T197390[ebp]
  00882	51		 push	 ecx
  00883	8b 4d ec	 mov	 ecx, DWORD PTR _this$[ebp]
  00886	83 c1 04	 add	 ecx, 4
  00889	e8 00 00 00 00	 call	 ?erase@?$vector@U?$pair@UTAB_ITEM@@PAVCWnd@@@std@@V?$allocator@U?$pair@UTAB_ITEM@@PAVCWnd@@@std@@@2@@std@@QAE?AViterator@12@V312@@Z ; std::vector<std::pair<TAB_ITEM,CWnd *>,std::allocator<std::pair<TAB_ITEM,CWnd *> > >::erase
$L195433:

; 182  : 	}
; 183  : 	//tab
; 184  : 	TAB_ITEM ti;

  0088e	8d 4d a0	 lea	 ecx, DWORD PTR _ti$[ebp]
  00891	e8 00 00 00 00	 call	 ??0TAB_ITEM@@QAE@XZ
  00896	c7 45 fc 00 00
	00 00		 mov	 DWORD PTR __$EHRec$[ebp+8], 0

; 185  : 	GLOBAL_TABBARDATA->ITabBar_GetCurItem( ti );

  0089d	e8 00 00 00 00	 call	 ?AfxGetDataManager2@@YAPAVIDataManager@@XZ ; AfxGetDataManager2
  008a2	89 45 88	 mov	 DWORD PTR tv147[ebp], eax
  008a5	8b f4		 mov	 esi, esp
  008a7	68 00 00 00 00	 push	 OFFSET FLAT:_ID_DATA_TABBAR
  008ac	8b 55 88	 mov	 edx, DWORD PTR tv147[ebp]
  008af	8b 02		 mov	 eax, DWORD PTR [edx]
  008b1	8b 4d 88	 mov	 ecx, DWORD PTR tv147[ebp]
  008b4	ff 50 0c	 call	 DWORD PTR [eax+12]
  008b7	3b f4		 cmp	 esi, esp
  008b9	e8 00 00 00 00	 call	 __RTC_CheckEsp
  008be	89 45 84	 mov	 DWORD PTR tv153[ebp], eax
  008c1	8b f4		 mov	 esi, esp
  008c3	8d 4d a0	 lea	 ecx, DWORD PTR _ti$[ebp]
  008c6	51		 push	 ecx
  008c7	8b 55 84	 mov	 edx, DWORD PTR tv153[ebp]
  008ca	8b 02		 mov	 eax, DWORD PTR [edx]
  008cc	8b 4d 84	 mov	 ecx, DWORD PTR tv153[ebp]
  008cf	ff 50 18	 call	 DWORD PTR [eax+24]
  008d2	3b f4		 cmp	 esi, esp
  008d4	e8 00 00 00 00	 call	 __RTC_CheckEsp

; 186  : 	{
; 187  : 		ITabBarOb_OpenExistTab( ti );

  008d9	8b f4		 mov	 esi, esp
  008db	8d 4d a0	 lea	 ecx, DWORD PTR _ti$[ebp]
  008de	51		 push	 ecx
  008df	8b 55 ec	 mov	 edx, DWORD PTR _this$[ebp]
  008e2	8b 02		 mov	 eax, DWORD PTR [edx]
  008e4	8b 4d ec	 mov	 ecx, DWORD PTR _this$[ebp]
  008e7	ff 50 08	 call	 DWORD PTR [eax+8]
  008ea	3b f4		 cmp	 esi, esp
  008ec	e8 00 00 00 00	 call	 __RTC_CheckEsp

; 188  : 	}
; 189  : }

  008f1	c7 45 fc ff ff
	ff ff		 mov	 DWORD PTR __$EHRec$[ebp+8], -1
  008f8	8d 4d a0	 lea	 ecx, DWORD PTR _ti$[ebp]
  008fb	e8 00 00 00 00	 call	 ??1TAB_ITEM@@QAE@XZ
  00900	52		 push	 edx
  00901	8b cd		 mov	 ecx, ebp
  00903	50		 push	 eax
  00904	8d 15 00 00 00
	00		 lea	 edx, DWORD PTR $L197399
  0090a	e8 00 00 00 00	 call	 @_RTC_CheckStackVars@8
  0090f	58		 pop	 eax
  00910	5a		 pop	 edx
  00911	8b 4d f4	 mov	 ecx, DWORD PTR __$EHRec$[ebp]
  00914	64 89 0d 00 00
	00 00		 mov	 DWORD PTR fs:__except_list, ecx
  0091b	8b 4d f0	 mov	 ecx, DWORD PTR __$ArrayPad$[ebp]
  0091e	e8 00 00 00 00	 call	 @__security_check_cookie@4
  00923	5f		 pop	 edi
  00924	5e		 pop	 esi
  00925	83 c4 7c	 add	 esp, 124		; 0000007cH
  00928	3b ec		 cmp	 ebp, esp
  0092a	e8 00 00 00 00	 call	 __RTC_CheckEsp
  0092f	8b e5		 mov	 esp, ebp
  00931	5d		 pop	 ebp
  00932	c2 04 00	 ret	 4
$L197399:
  00935	02 00 00 00	 DD	 2
  00939	00 00 00 00	 DD	 $L197398
$L197398:
  0093d	e4 ff ff ff	 DD	 -28			; ffffffe4H
  00941	04 00 00 00	 DD	 4
  00945	00 00 00 00	 DD	 $L197394
  00949	a0 ff ff ff	 DD	 -96			; ffffffa0H
  0094d	3c 00 00 00	 DD	 60			; 0000003cH
  00951	00 00 00 00	 DD	 $L197395
$L197395:
  00955	74		 DB	 116			; 00000074H
  00956	69		 DB	 105			; 00000069H
  00957	00		 DB	 0
$L197394:
  00958	69		 DB	 105			; 00000069H
  00959	74		 DB	 116			; 00000074H
  0095a	00		 DB	 0
_TEXT	ENDS
text$x	SEGMENT
$L197391:
  000b5	8d 4d a0	 lea	 ecx, DWORD PTR _ti$[ebp]
  000b8	e9 00 00 00 00	 jmp	 ??1TAB_ITEM@@QAE@XZ
__ehhandler$?ITabBarOb_DelTab@CTabPageControl@@UAEXAAUTAB_ITEM@@@Z:
  000bd	b8 00 00 00 00	 mov	 eax, OFFSET FLAT:$T197393
  000c2	e9 00 00 00 00	 jmp	 ___CxxFrameHandler
text$x	ENDS
?ITabBarOb_DelTab@CTabPageControl@@UAEXAAUTAB_ITEM@@@Z ENDP ; CTabPageControl::ITabBarOb_DelTab
EXTRN	__imp_??0?$basic_string@DU?$char_traits@D@std@@V?$allocator@D@2@@std@@QAE@XZ:NEAR
;	COMDAT xdata$x
xdata$x	SEGMENT
$T197407 DD	0ffffffffH
	DD	FLAT:$L197402
$T197405 DD	019930520H
	DD	01H
	DD	FLAT:$T197407
	DD	2 DUP(00H)
	DD	2 DUP(00H)
; Function compile flags: /Odt /RTCsu
xdata$x	ENDS
;	COMDAT ??0TAB_ITEM@@QAE@XZ
_TEXT	SEGMENT
_this$ = -16						; size = 4
__$EHRec$ = -12						; size = 12
??0TAB_ITEM@@QAE@XZ PROC NEAR				; TAB_ITEM::TAB_ITEM, COMDAT
; _this$ = ecx
  00000	55		 push	 ebp
  00001	8b ec		 mov	 ebp, esp
  00003	6a ff		 push	 -1
  00005	68 00 00 00 00	 push	 __ehhandler$??0TAB_ITEM@@QAE@XZ
  0000a	64 a1 00 00 00
	00		 mov	 eax, DWORD PTR fs:__except_list
  00010	50		 push	 eax
  00011	64 89 25 00 00
	00 00		 mov	 DWORD PTR fs:__except_list, esp
  00018	51		 push	 ecx
  00019	56		 push	 esi
  0001a	c7 45 f0 cc cc
	cc cc		 mov	 DWORD PTR [ebp-16], -858993460 ; ccccccccH
  00021	89 4d f0	 mov	 DWORD PTR _this$[ebp], ecx
  00024	8b f4		 mov	 esi, esp
  00026	8b 4d f0	 mov	 ecx, DWORD PTR _this$[ebp]
  00029	ff 15 00 00 00
	00		 call	 DWORD PTR __imp_??0?$basic_string@DU?$char_traits@D@std@@V?$allocator@D@2@@std@@QAE@XZ
  0002f	3b f4		 cmp	 esi, esp
  00031	e8 00 00 00 00	 call	 __RTC_CheckEsp
  00036	c7 45 fc 00 00
	00 00		 mov	 DWORD PTR __$EHRec$[ebp+8], 0
  0003d	8b 4d f0	 mov	 ecx, DWORD PTR _this$[ebp]
  00040	83 c1 20	 add	 ecx, 32			; 00000020H
  00043	8b f4		 mov	 esi, esp
  00045	ff 15 00 00 00
	00		 call	 DWORD PTR __imp_??0?$basic_string@DU?$char_traits@D@std@@V?$allocator@D@2@@std@@QAE@XZ
  0004b	3b f4		 cmp	 esi, esp
  0004d	e8 00 00 00 00	 call	 __RTC_CheckEsp
  00052	c7 45 fc ff ff
	ff ff		 mov	 DWORD PTR __$EHRec$[ebp+8], -1
  00059	8b 45 f0	 mov	 eax, DWORD PTR _this$[ebp]
  0005c	8b 4d f4	 mov	 ecx, DWORD PTR __$EHRec$[ebp]
  0005f	64 89 0d 00 00
	00 00		 mov	 DWORD PTR fs:__except_list, ecx
  00066	5e		 pop	 esi
  00067	83 c4 10	 add	 esp, 16			; 00000010H
  0006a	3b ec		 cmp	 ebp, esp
  0006c	e8 00 00 00 00	 call	 __RTC_CheckEsp
  00071	8b e5		 mov	 esp, ebp
  00073	5d		 pop	 ebp
  00074	c3		 ret	 0
_TEXT	ENDS
;	COMDAT text$x
text$x	SEGMENT
$L197402:
  00000	8b f4		 mov	 esi, esp
  00002	8b 4d f0	 mov	 ecx, DWORD PTR _this$[ebp]
  00005	ff 15 00 00 00
	00		 call	 DWORD PTR __imp_??1?$basic_string@DU?$char_traits@D@std@@V?$allocator@D@2@@std@@QAE@XZ
  0000b	3b f4		 cmp	 esi, esp
  0000d	e9 00 00 00 00	 jmp	 __RTC_CheckEsp
__ehhandler$??0TAB_ITEM@@QAE@XZ:
  00012	b8 00 00 00 00	 mov	 eax, OFFSET FLAT:$T197405
  00017	e9 00 00 00 00	 jmp	 ___CxxFrameHandler
text$x	ENDS
??0TAB_ITEM@@QAE@XZ ENDP				; TAB_ITEM::TAB_ITEM
; Function compile flags: /Odt /RTCsu
_TEXT	SEGMENT
_this$ = -4						; size = 4
_iErrorCode$ = 8					; size = 4
?ITabBarOb_OpenTabError@CTabPageControl@@UAEXH@Z PROC NEAR ; CTabPageControl::ITabBarOb_OpenTabError
; _this$ = ecx

; 192  : {

  00960	55		 push	 ebp
  00961	8b ec		 mov	 ebp, esp
  00963	51		 push	 ecx
  00964	c7 45 fc cc cc
	cc cc		 mov	 DWORD PTR [ebp-4], -858993460 ; ccccccccH
  0096b	89 4d fc	 mov	 DWORD PTR _this$[ebp], ecx

; 193  : }

  0096e	8b e5		 mov	 esp, ebp
  00970	5d		 pop	 ebp
  00971	c2 04 00	 ret	 4
?ITabBarOb_OpenTabError@CTabPageControl@@UAEXH@Z ENDP	; CTabPageControl::ITabBarOb_OpenTabError
_TEXT	ENDS
PUBLIC	?size@?$vector@U?$pair@UTAB_ITEM@@PAVCWnd@@@std@@V?$allocator@U?$pair@UTAB_ITEM@@PAVCWnd@@@std@@@2@@std@@QBEIXZ ; std::vector<std::pair<TAB_ITEM,CWnd *>,std::allocator<std::pair<TAB_ITEM,CWnd *> > >::size
PUBLIC	?ResizePage@CTabPageControl@@QAEXXZ		; CTabPageControl::ResizePage
EXTRN	??0CRect@@QAE@HHHH@Z:NEAR			; CRect::CRect
EXTRN	??BCRect@@QAEPAUtagRECT@@XZ:NEAR		; CRect::operator tagRECT *
EXTRN	?MoveWindow@CWnd@@QAEXPBUtagRECT@@H@Z:NEAR	; CWnd::MoveWindow
xdata$x	SEGMENT
$T197426 DD	0ffffffffH
	DD	FLAT:$L197415
$T197417 DD	019930520H
	DD	01H
	DD	FLAT:$T197426
	DD	2 DUP(00H)
	DD	2 DUP(00H)
; Function compile flags: /Odt /RTCsu
xdata$x	ENDS
_TEXT	SEGMENT
tv79 = -164						; size = 4
tv73 = -160						; size = 4
$T197414 = -156						; size = 4
$T197413 = -152						; size = 4
_it$195452 = -144					; size = 4
_rcNull$ = -132						; size = 16
_rc$ = -108						; size = 16
_ti$ = -84						; size = 60
_this$ = -20						; size = 4
__$ArrayPad$ = -16					; size = 4
__$EHRec$ = -12						; size = 12
__$ReturnAddr$ = 4					; size = 4
?ResizePage@CTabPageControl@@QAEXXZ PROC NEAR		; CTabPageControl::ResizePage
; _this$ = ecx

; 196  : {

  00980	55		 push	 ebp
  00981	8b ec		 mov	 ebp, esp
  00983	6a ff		 push	 -1
  00985	68 00 00 00 00	 push	 __ehhandler$?ResizePage@CTabPageControl@@QAEXXZ
  0098a	64 a1 00 00 00
	00		 mov	 eax, DWORD PTR fs:__except_list
  00990	50		 push	 eax
  00991	64 89 25 00 00
	00 00		 mov	 DWORD PTR fs:__except_list, esp
  00998	81 ec 98 00 00
	00		 sub	 esp, 152		; 00000098H
  0099e	56		 push	 esi
  0099f	57		 push	 edi
  009a0	51		 push	 ecx
  009a1	8d bd 5c ff ff
	ff		 lea	 edi, DWORD PTR [ebp-164]
  009a7	b9 26 00 00 00	 mov	 ecx, 38			; 00000026H
  009ac	b8 cc cc cc cc	 mov	 eax, -858993460		; ccccccccH
  009b1	f3 ab		 rep stosd
  009b3	59		 pop	 ecx
  009b4	a1 00 00 00 00	 mov	 eax, DWORD PTR ___security_cookie
  009b9	89 45 f0	 mov	 DWORD PTR __$ArrayPad$[ebp], eax
  009bc	89 4d ec	 mov	 DWORD PTR _this$[ebp], ecx

; 197  : 	if( m_mapTab.size() <= 0 )

  009bf	8b 4d ec	 mov	 ecx, DWORD PTR _this$[ebp]
  009c2	83 c1 04	 add	 ecx, 4
  009c5	e8 00 00 00 00	 call	 ?size@?$vector@U?$pair@UTAB_ITEM@@PAVCWnd@@@std@@V?$allocator@U?$pair@UTAB_ITEM@@PAVCWnd@@@std@@@2@@std@@QBEIXZ ; std::vector<std::pair<TAB_ITEM,CWnd *>,std::allocator<std::pair<TAB_ITEM,CWnd *> > >::size
  009ca	85 c0		 test	 eax, eax
  009cc	77 05		 ja	 SHORT $L195446

; 198  : 		return;

  009ce	e9 cf 01 00 00	 jmp	 $L195445
$L195446:

; 199  : 	//tabitem
; 200  : 	TAB_ITEM ti;

  009d3	8d 4d ac	 lea	 ecx, DWORD PTR _ti$[ebp]
  009d6	e8 00 00 00 00	 call	 ??0TAB_ITEM@@QAE@XZ
  009db	c7 45 fc 00 00
	00 00		 mov	 DWORD PTR __$EHRec$[ebp+8], 0

; 201  : 	GLOBAL_TABBARDATA->ITabBar_GetCurItem( ti );

  009e2	e8 00 00 00 00	 call	 ?AfxGetDataManager2@@YAPAVIDataManager@@XZ ; AfxGetDataManager2
  009e7	89 85 60 ff ff
	ff		 mov	 DWORD PTR tv73[ebp], eax
  009ed	8b f4		 mov	 esi, esp
  009ef	68 00 00 00 00	 push	 OFFSET FLAT:_ID_DATA_TABBAR
  009f4	8b 85 60 ff ff
	ff		 mov	 eax, DWORD PTR tv73[ebp]
  009fa	8b 10		 mov	 edx, DWORD PTR [eax]
  009fc	8b 8d 60 ff ff
	ff		 mov	 ecx, DWORD PTR tv73[ebp]
  00a02	ff 52 0c	 call	 DWORD PTR [edx+12]
  00a05	3b f4		 cmp	 esi, esp
  00a07	e8 00 00 00 00	 call	 __RTC_CheckEsp
  00a0c	89 85 5c ff ff
	ff		 mov	 DWORD PTR tv79[ebp], eax
  00a12	8b f4		 mov	 esi, esp
  00a14	8d 45 ac	 lea	 eax, DWORD PTR _ti$[ebp]
  00a17	50		 push	 eax
  00a18	8b 8d 5c ff ff
	ff		 mov	 ecx, DWORD PTR tv79[ebp]
  00a1e	8b 11		 mov	 edx, DWORD PTR [ecx]
  00a20	8b 8d 5c ff ff
	ff		 mov	 ecx, DWORD PTR tv79[ebp]
  00a26	ff 52 18	 call	 DWORD PTR [edx+24]
  00a29	3b f4		 cmp	 esi, esp
  00a2b	e8 00 00 00 00	 call	 __RTC_CheckEsp

; 202  : 
; 203  : 	//
; 204  : 	CRect rc;

  00a30	8d 4d 94	 lea	 ecx, DWORD PTR _rc$[ebp]
  00a33	e8 00 00 00 00	 call	 ??0CRect@@QAE@XZ	; CRect::CRect

; 205  : 	m_pWndParent->GetClientRect(&rc);

  00a38	8d 45 94	 lea	 eax, DWORD PTR _rc$[ebp]
  00a3b	50		 push	 eax
  00a3c	8b 4d ec	 mov	 ecx, DWORD PTR _this$[ebp]
  00a3f	8b 49 14	 mov	 ecx, DWORD PTR [ecx+20]
  00a42	e8 00 00 00 00	 call	 ?GetClientRect@CWnd@@QBEXPAUtagRECT@@@Z ; CWnd::GetClientRect

; 206  : 	//rc.bottom -= 30;
; 207  : 
; 208  : 	//
; 209  : 	CRect rcNull(0,0,0,0);

  00a47	6a 00		 push	 0
  00a49	6a 00		 push	 0
  00a4b	6a 00		 push	 0
  00a4d	6a 00		 push	 0
  00a4f	8d 8d 7c ff ff
	ff		 lea	 ecx, DWORD PTR _rcNull$[ebp]
  00a55	e8 00 00 00 00	 call	 ??0CRect@@QAE@HHHH@Z	; CRect::CRect

; 210  : 
; 211  : 	for( vector<ONE_TAB>::iterator it = m_mapTab.begin();

  00a5a	8d 95 70 ff ff
	ff		 lea	 edx, DWORD PTR _it$195452[ebp]
  00a60	52		 push	 edx
  00a61	8b 4d ec	 mov	 ecx, DWORD PTR _this$[ebp]
  00a64	83 c1 04	 add	 ecx, 4
  00a67	e8 00 00 00 00	 call	 ?begin@?$vector@U?$pair@UTAB_ITEM@@PAVCWnd@@@std@@V?$allocator@U?$pair@UTAB_ITEM@@PAVCWnd@@@std@@@2@@std@@QAE?AViterator@12@XZ ; std::vector<std::pair<TAB_ITEM,CWnd *>,std::allocator<std::pair<TAB_ITEM,CWnd *> > >::begin

; 212  : 		it != m_mapTab.end(); it++ )

  00a6c	eb 14		 jmp	 SHORT $L195456
$L195457:
  00a6e	6a 00		 push	 0
  00a70	8d 85 68 ff ff
	ff		 lea	 eax, DWORD PTR $T197413[ebp]
  00a76	50		 push	 eax
  00a77	8d 8d 70 ff ff
	ff		 lea	 ecx, DWORD PTR _it$195452[ebp]
  00a7d	e8 00 00 00 00	 call	 ??Eiterator@?$vector@U?$pair@UTAB_ITEM@@PAVCWnd@@@std@@V?$allocator@U?$pair@UTAB_ITEM@@PAVCWnd@@@std@@@2@@std@@QAE?AV012@H@Z ; std::vector<std::pair<TAB_ITEM,CWnd *>,std::allocator<std::pair<TAB_ITEM,CWnd *> > >::iterator::operator++
$L195456:
  00a82	8d 8d 64 ff ff
	ff		 lea	 ecx, DWORD PTR $T197414[ebp]
  00a88	51		 push	 ecx
  00a89	8b 4d ec	 mov	 ecx, DWORD PTR _this$[ebp]
  00a8c	83 c1 04	 add	 ecx, 4
  00a8f	e8 00 00 00 00	 call	 ?end@?$vector@U?$pair@UTAB_ITEM@@PAVCWnd@@@std@@V?$allocator@U?$pair@UTAB_ITEM@@PAVCWnd@@@std@@@2@@std@@QAE?AViterator@12@XZ ; std::vector<std::pair<TAB_ITEM,CWnd *>,std::allocator<std::pair<TAB_ITEM,CWnd *> > >::end
  00a94	50		 push	 eax
  00a95	8d 8d 70 ff ff
	ff		 lea	 ecx, DWORD PTR _it$195452[ebp]
  00a9b	e8 00 00 00 00	 call	 ??9const_iterator@?$vector@U?$pair@UTAB_ITEM@@PAVCWnd@@@std@@V?$allocator@U?$pair@UTAB_ITEM@@PAVCWnd@@@std@@@2@@std@@QBE_NABV012@@Z ; std::vector<std::pair<TAB_ITEM,CWnd *>,std::allocator<std::pair<TAB_ITEM,CWnd *> > >::const_iterator::operator!=
  00aa0	0f b6 d0	 movzx	 edx, al
  00aa3	85 d2		 test	 edx, edx
  00aa5	0f 84 e8 00 00
	00		 je	 $L195458

; 213  : 	{
; 214  : 		if( it->first.eumType == ti.eumType
; 215  : 			&& it->first.strName == ti.strName )

  00aab	8d 8d 70 ff ff
	ff		 lea	 ecx, DWORD PTR _it$195452[ebp]
  00ab1	e8 00 00 00 00	 call	 ??Citerator@?$vector@U?$pair@UTAB_ITEM@@PAVCWnd@@@std@@V?$allocator@U?$pair@UTAB_ITEM@@PAVCWnd@@@std@@@2@@std@@QBEPAU?$pair@UTAB_ITEM@@PAVCWnd@@@2@XZ ; std::vector<std::pair<TAB_ITEM,CWnd *>,std::allocator<std::pair<TAB_ITEM,CWnd *> > >::iterator::operator->
  00ab6	8b 40 1c	 mov	 eax, DWORD PTR [eax+28]
  00ab9	3b 45 c8	 cmp	 eax, DWORD PTR _ti$[ebp+28]
  00abc	0f 85 99 00 00
	00		 jne	 $L195459
  00ac2	8b f4		 mov	 esi, esp
  00ac4	8d 4d ac	 lea	 ecx, DWORD PTR _ti$[ebp]
  00ac7	51		 push	 ecx
  00ac8	8d 8d 70 ff ff
	ff		 lea	 ecx, DWORD PTR _it$195452[ebp]
  00ace	e8 00 00 00 00	 call	 ??Citerator@?$vector@U?$pair@UTAB_ITEM@@PAVCWnd@@@std@@V?$allocator@U?$pair@UTAB_ITEM@@PAVCWnd@@@std@@@2@@std@@QBEPAU?$pair@UTAB_ITEM@@PAVCWnd@@@2@XZ ; std::vector<std::pair<TAB_ITEM,CWnd *>,std::allocator<std::pair<TAB_ITEM,CWnd *> > >::iterator::operator->
  00ad3	50		 push	 eax
  00ad4	ff 15 00 00 00
	00		 call	 DWORD PTR __imp_??$?8DU?$char_traits@D@std@@V?$allocator@D@1@@std@@YA_NABV?$basic_string@DU?$char_traits@D@std@@V?$allocator@D@2@@0@0@Z
  00ada	83 c4 08	 add	 esp, 8
  00add	3b f4		 cmp	 esi, esp
  00adf	e8 00 00 00 00	 call	 __RTC_CheckEsp
  00ae4	0f b6 d0	 movzx	 edx, al
  00ae7	85 d2		 test	 edx, edx
  00ae9	74 70		 je	 SHORT $L195459

; 216  : 		{
; 217  : 			if (ti.eumType == TAB_PLAYED_GAME)

  00aeb	83 7d c8 04	 cmp	 DWORD PTR _ti$[ebp+28], 4
  00aef	75 35		 jne	 SHORT $L195460

; 218  : 			{
; 219  : 				it->second->MoveWindow (rc, FALSE);

  00af1	6a 00		 push	 0
  00af3	8d 4d 94	 lea	 ecx, DWORD PTR _rc$[ebp]
  00af6	e8 00 00 00 00	 call	 ??BCRect@@QAEPAUtagRECT@@XZ ; CRect::operator tagRECT *
  00afb	50		 push	 eax
  00afc	8d 8d 70 ff ff
	ff		 lea	 ecx, DWORD PTR _it$195452[ebp]
  00b02	e8 00 00 00 00	 call	 ??Citerator@?$vector@U?$pair@UTAB_ITEM@@PAVCWnd@@@std@@V?$allocator@U?$pair@UTAB_ITEM@@PAVCWnd@@@std@@@2@@std@@QBEPAU?$pair@UTAB_ITEM@@PAVCWnd@@@2@XZ ; std::vector<std::pair<TAB_ITEM,CWnd *>,std::allocator<std::pair<TAB_ITEM,CWnd *> > >::iterator::operator->
  00b07	8b 48 3c	 mov	 ecx, DWORD PTR [eax+60]
  00b0a	e8 00 00 00 00	 call	 ?MoveWindow@CWnd@@QAEXPBUtagRECT@@H@Z ; CWnd::MoveWindow

; 220  : 				it->second->ShowWindow (SW_SHOW);

  00b0f	6a 05		 push	 5
  00b11	8d 8d 70 ff ff
	ff		 lea	 ecx, DWORD PTR _it$195452[ebp]
  00b17	e8 00 00 00 00	 call	 ??Citerator@?$vector@U?$pair@UTAB_ITEM@@PAVCWnd@@@std@@V?$allocator@U?$pair@UTAB_ITEM@@PAVCWnd@@@std@@@2@@std@@QBEPAU?$pair@UTAB_ITEM@@PAVCWnd@@@2@XZ ; std::vector<std::pair<TAB_ITEM,CWnd *>,std::allocator<std::pair<TAB_ITEM,CWnd *> > >::iterator::operator->
  00b1c	8b 48 3c	 mov	 ecx, DWORD PTR [eax+60]
  00b1f	e8 00 00 00 00	 call	 ?ShowWindow@CWnd@@QAEHH@Z ; CWnd::ShowWindow

; 221  : 			}
; 222  : 			else

  00b24	eb 33		 jmp	 SHORT $L195461
$L195460:

; 223  : 			{
; 224  : 				it->second->MoveWindow(rc, FALSE);

  00b26	6a 00		 push	 0
  00b28	8d 4d 94	 lea	 ecx, DWORD PTR _rc$[ebp]
  00b2b	e8 00 00 00 00	 call	 ??BCRect@@QAEPAUtagRECT@@XZ ; CRect::operator tagRECT *
  00b30	50		 push	 eax
  00b31	8d 8d 70 ff ff
	ff		 lea	 ecx, DWORD PTR _it$195452[ebp]
  00b37	e8 00 00 00 00	 call	 ??Citerator@?$vector@U?$pair@UTAB_ITEM@@PAVCWnd@@@std@@V?$allocator@U?$pair@UTAB_ITEM@@PAVCWnd@@@std@@@2@@std@@QBEPAU?$pair@UTAB_ITEM@@PAVCWnd@@@2@XZ ; std::vector<std::pair<TAB_ITEM,CWnd *>,std::allocator<std::pair<TAB_ITEM,CWnd *> > >::iterator::operator->
  00b3c	8b 48 3c	 mov	 ecx, DWORD PTR [eax+60]
  00b3f	e8 00 00 00 00	 call	 ?MoveWindow@CWnd@@QAEXPBUtagRECT@@H@Z ; CWnd::MoveWindow

; 225  : 				it->second->ShowWindow (SW_SHOW);

  00b44	6a 05		 push	 5
  00b46	8d 8d 70 ff ff
	ff		 lea	 ecx, DWORD PTR _it$195452[ebp]
  00b4c	e8 00 00 00 00	 call	 ??Citerator@?$vector@U?$pair@UTAB_ITEM@@PAVCWnd@@@std@@V?$allocator@U?$pair@UTAB_ITEM@@PAVCWnd@@@std@@@2@@std@@QBEPAU?$pair@UTAB_ITEM@@PAVCWnd@@@2@XZ ; std::vector<std::pair<TAB_ITEM,CWnd *>,std::allocator<std::pair<TAB_ITEM,CWnd *> > >::iterator::operator->
  00b51	8b 48 3c	 mov	 ecx, DWORD PTR [eax+60]
  00b54	e8 00 00 00 00	 call	 ?ShowWindow@CWnd@@QAEHH@Z ; CWnd::ShowWindow
$L195461:

; 226  : 			}
; 227  : 		}else

  00b59	eb 33		 jmp	 SHORT $L195462
$L195459:

; 228  : 		{
; 229  : // 			it->second->MoveWindow(rcNull, FALSE);
; 230  : 			it->second->MoveWindow (rc, FALSE);

  00b5b	6a 00		 push	 0
  00b5d	8d 4d 94	 lea	 ecx, DWORD PTR _rc$[ebp]
  00b60	e8 00 00 00 00	 call	 ??BCRect@@QAEPAUtagRECT@@XZ ; CRect::operator tagRECT *
  00b65	50		 push	 eax
  00b66	8d 8d 70 ff ff
	ff		 lea	 ecx, DWORD PTR _it$195452[ebp]
  00b6c	e8 00 00 00 00	 call	 ??Citerator@?$vector@U?$pair@UTAB_ITEM@@PAVCWnd@@@std@@V?$allocator@U?$pair@UTAB_ITEM@@PAVCWnd@@@std@@@2@@std@@QBEPAU?$pair@UTAB_ITEM@@PAVCWnd@@@2@XZ ; std::vector<std::pair<TAB_ITEM,CWnd *>,std::allocator<std::pair<TAB_ITEM,CWnd *> > >::iterator::operator->
  00b71	8b 48 3c	 mov	 ecx, DWORD PTR [eax+60]
  00b74	e8 00 00 00 00	 call	 ?MoveWindow@CWnd@@QAEXPBUtagRECT@@H@Z ; CWnd::MoveWindow

; 231  : 			it->second->ShowWindow (SW_HIDE);

  00b79	6a 00		 push	 0
  00b7b	8d 8d 70 ff ff
	ff		 lea	 ecx, DWORD PTR _it$195452[ebp]
  00b81	e8 00 00 00 00	 call	 ??Citerator@?$vector@U?$pair@UTAB_ITEM@@PAVCWnd@@@std@@V?$allocator@U?$pair@UTAB_ITEM@@PAVCWnd@@@std@@@2@@std@@QBEPAU?$pair@UTAB_ITEM@@PAVCWnd@@@2@XZ ; std::vector<std::pair<TAB_ITEM,CWnd *>,std::allocator<std::pair<TAB_ITEM,CWnd *> > >::iterator::operator->
  00b86	8b 48 3c	 mov	 ecx, DWORD PTR [eax+60]
  00b89	e8 00 00 00 00	 call	 ?ShowWindow@CWnd@@QAEHH@Z ; CWnd::ShowWindow
$L195462:

; 232  : 		}
; 233  : 	}

  00b8e	e9 db fe ff ff	 jmp	 $L195457
$L195458:

; 234  : }

  00b93	c7 45 fc ff ff
	ff ff		 mov	 DWORD PTR __$EHRec$[ebp+8], -1
  00b9a	8d 4d ac	 lea	 ecx, DWORD PTR _ti$[ebp]
  00b9d	e8 00 00 00 00	 call	 ??1TAB_ITEM@@QAE@XZ
$L195445:
  00ba2	52		 push	 edx
  00ba3	8b cd		 mov	 ecx, ebp
  00ba5	50		 push	 eax
  00ba6	8d 15 00 00 00
	00		 lea	 edx, DWORD PTR $L197425
  00bac	e8 00 00 00 00	 call	 @_RTC_CheckStackVars@8
  00bb1	58		 pop	 eax
  00bb2	5a		 pop	 edx
  00bb3	8b 4d f4	 mov	 ecx, DWORD PTR __$EHRec$[ebp]
  00bb6	64 89 0d 00 00
	00 00		 mov	 DWORD PTR fs:__except_list, ecx
  00bbd	8b 4d f0	 mov	 ecx, DWORD PTR __$ArrayPad$[ebp]
  00bc0	e8 00 00 00 00	 call	 @__security_check_cookie@4
  00bc5	5f		 pop	 edi
  00bc6	5e		 pop	 esi
  00bc7	81 c4 a4 00 00
	00		 add	 esp, 164		; 000000a4H
  00bcd	3b ec		 cmp	 ebp, esp
  00bcf	e8 00 00 00 00	 call	 __RTC_CheckEsp
  00bd4	8b e5		 mov	 esp, ebp
  00bd6	5d		 pop	 ebp
  00bd7	c3		 ret	 0
$L197425:
  00bd8	04 00 00 00	 DD	 4
  00bdc	00 00 00 00	 DD	 $L197424
$L197424:
  00be0	ac ff ff ff	 DD	 -84			; ffffffacH
  00be4	3c 00 00 00	 DD	 60			; 0000003cH
  00be8	00 00 00 00	 DD	 $L197418
  00bec	94 ff ff ff	 DD	 -108			; ffffff94H
  00bf0	10 00 00 00	 DD	 16			; 00000010H
  00bf4	00 00 00 00	 DD	 $L197419
  00bf8	7c ff ff ff	 DD	 -132			; ffffff7cH
  00bfc	10 00 00 00	 DD	 16			; 00000010H
  00c00	00 00 00 00	 DD	 $L197420
  00c04	70 ff ff ff	 DD	 -144			; ffffff70H
  00c08	04 00 00 00	 DD	 4
  00c0c	00 00 00 00	 DD	 $L197421
$L197421:
  00c10	69		 DB	 105			; 00000069H
  00c11	74		 DB	 116			; 00000074H
  00c12	00		 DB	 0
$L197420:
  00c13	72		 DB	 114			; 00000072H
  00c14	63		 DB	 99			; 00000063H
  00c15	4e		 DB	 78			; 0000004eH
  00c16	75		 DB	 117			; 00000075H
  00c17	6c		 DB	 108			; 0000006cH
  00c18	6c		 DB	 108			; 0000006cH
  00c19	00		 DB	 0
$L197419:
  00c1a	72		 DB	 114			; 00000072H
  00c1b	63		 DB	 99			; 00000063H
  00c1c	00		 DB	 0
$L197418:
  00c1d	74		 DB	 116			; 00000074H
  00c1e	69		 DB	 105			; 00000069H
  00c1f	00		 DB	 0
_TEXT	ENDS
text$x	SEGMENT
$L197415:
  000c7	8d 4d ac	 lea	 ecx, DWORD PTR _ti$[ebp]
  000ca	e9 00 00 00 00	 jmp	 ??1TAB_ITEM@@QAE@XZ
__ehhandler$?ResizePage@CTabPageControl@@QAEXXZ:
  000cf	b8 00 00 00 00	 mov	 eax, OFFSET FLAT:$T197417
  000d4	e9 00 00 00 00	 jmp	 ___CxxFrameHandler
text$x	ENDS
?ResizePage@CTabPageControl@@QAEXXZ ENDP		; CTabPageControl::ResizePage
PUBLIC	?OpenHomePage@CTabPageControl@@QAEXXZ		; CTabPageControl::OpenHomePage
EXTRN	?AfxGetUserConfig@@YAPAVAfxUserConfig@@XZ:NEAR	; AfxGetUserConfig
EXTRN	?Format@YL_StringUtil@@SA_NAAV?$basic_string@DU?$char_traits@D@std@@V?$allocator@D@2@@std@@PBDZZ:NEAR ; YL_StringUtil::Format
EXTRN	?GetConfigStringValue@AfxUserConfig@@QAEXABV?$basic_string@DU?$char_traits@D@std@@V?$allocator@D@2@@std@@0AAV23@@Z:NEAR ; AfxUserConfig::GetConfigStringValue
EXTRN	__imp_??4?$basic_string@DU?$char_traits@D@std@@V?$allocator@D@2@@std@@QAEAAV01@PBD@Z:NEAR
EXTRN	__imp_?c_str@?$basic_string@DU?$char_traits@D@std@@V?$allocator@D@2@@std@@QBEPBDXZ:NEAR
xdata$x	SEGMENT
$T197445 DD	0ffffffffH
	DD	FLAT:$L197431
	DD	00H
	DD	FLAT:$L197432
	DD	01H
	DD	FLAT:$L197433
	DD	02H
	DD	FLAT:$L197434
	DD	03H
	DD	FLAT:$L197435
$T197437 DD	019930520H
	DD	05H
	DD	FLAT:$T197445
	DD	2 DUP(00H)
	DD	2 DUP(00H)
; Function compile flags: /Odt /RTCsu
xdata$x	ENDS
_TEXT	SEGMENT
tv155 = -264						; size = 4
tv149 = -260						; size = 4
tv79 = -256						; size = 4
tv73 = -252						; size = 4
$T197430 = -248						; size = 28
$T197429 = -220						; size = 28
_strUrl$195472 = -188					; size = 28
_ti$195470 = -152					; size = 60
_ti$ = -84						; size = 60
_this$ = -20						; size = 4
__$ArrayPad$ = -16					; size = 4
__$EHRec$ = -12						; size = 12
__$ReturnAddr$ = 4					; size = 4
?OpenHomePage@CTabPageControl@@QAEXXZ PROC NEAR		; CTabPageControl::OpenHomePage
; _this$ = ecx

; 237  : {

  00c20	55		 push	 ebp
  00c21	8b ec		 mov	 ebp, esp
  00c23	6a ff		 push	 -1
  00c25	68 00 00 00 00	 push	 __ehhandler$?OpenHomePage@CTabPageControl@@QAEXXZ
  00c2a	64 a1 00 00 00
	00		 mov	 eax, DWORD PTR fs:__except_list
  00c30	50		 push	 eax
  00c31	64 89 25 00 00
	00 00		 mov	 DWORD PTR fs:__except_list, esp
  00c38	81 ec fc 00 00
	00		 sub	 esp, 252		; 000000fcH
  00c3e	56		 push	 esi
  00c3f	57		 push	 edi
  00c40	51		 push	 ecx
  00c41	8d bd f8 fe ff
	ff		 lea	 edi, DWORD PTR [ebp-264]
  00c47	b9 3f 00 00 00	 mov	 ecx, 63			; 0000003fH
  00c4c	b8 cc cc cc cc	 mov	 eax, -858993460		; ccccccccH
  00c51	f3 ab		 rep stosd
  00c53	59		 pop	 ecx
  00c54	a1 00 00 00 00	 mov	 eax, DWORD PTR ___security_cookie
  00c59	89 45 f0	 mov	 DWORD PTR __$ArrayPad$[ebp], eax
  00c5c	89 4d ec	 mov	 DWORD PTR _this$[ebp], ecx

; 238  : 	TAB_ITEM ti;

  00c5f	8d 4d ac	 lea	 ecx, DWORD PTR _ti$[ebp]
  00c62	e8 00 00 00 00	 call	 ??0TAB_ITEM@@QAE@XZ
  00c67	c7 45 fc 00 00
	00 00		 mov	 DWORD PTR __$EHRec$[ebp+8], 0

; 239  : 	ti.strName = "";

  00c6e	8b f4		 mov	 esi, esp
  00c70	68 00 00 00 00	 push	 OFFSET FLAT:$SG195467
  00c75	8d 4d ac	 lea	 ecx, DWORD PTR _ti$[ebp]
  00c78	ff 15 00 00 00
	00		 call	 DWORD PTR __imp_??4?$basic_string@DU?$char_traits@D@std@@V?$allocator@D@2@@std@@QAEAAV01@PBD@Z
  00c7e	3b f4		 cmp	 esi, esp
  00c80	e8 00 00 00 00	 call	 __RTC_CheckEsp

; 240  : 	ti.strParam = "";

  00c85	8b f4		 mov	 esi, esp
  00c87	68 00 00 00 00	 push	 OFFSET FLAT:$SG195468
  00c8c	8d 4d cc	 lea	 ecx, DWORD PTR _ti$[ebp+32]
  00c8f	ff 15 00 00 00
	00		 call	 DWORD PTR __imp_??4?$basic_string@DU?$char_traits@D@std@@V?$allocator@D@2@@std@@QAEAAV01@PBD@Z
  00c95	3b f4		 cmp	 esi, esp
  00c97	e8 00 00 00 00	 call	 __RTC_CheckEsp

; 241  : 	ti.eumType  = TAB_PLAYED_GAME;

  00c9c	c7 45 c8 04 00
	00 00		 mov	 DWORD PTR _ti$[ebp+28], 4

; 242  : 	GLOBAL_TABBARDATA->ITabBar_ChangeTab( ti );

  00ca3	e8 00 00 00 00	 call	 ?AfxGetDataManager2@@YAPAVIDataManager@@XZ ; AfxGetDataManager2
  00ca8	89 85 04 ff ff
	ff		 mov	 DWORD PTR tv73[ebp], eax
  00cae	8b f4		 mov	 esi, esp
  00cb0	68 00 00 00 00	 push	 OFFSET FLAT:_ID_DATA_TABBAR
  00cb5	8b 85 04 ff ff
	ff		 mov	 eax, DWORD PTR tv73[ebp]
  00cbb	8b 10		 mov	 edx, DWORD PTR [eax]
  00cbd	8b 8d 04 ff ff
	ff		 mov	 ecx, DWORD PTR tv73[ebp]
  00cc3	ff 52 0c	 call	 DWORD PTR [edx+12]
  00cc6	3b f4		 cmp	 esi, esp
  00cc8	e8 00 00 00 00	 call	 __RTC_CheckEsp
  00ccd	89 85 00 ff ff
	ff		 mov	 DWORD PTR tv79[ebp], eax
  00cd3	8b f4		 mov	 esi, esp
  00cd5	8d 45 ac	 lea	 eax, DWORD PTR _ti$[ebp]
  00cd8	50		 push	 eax
  00cd9	8b 8d 00 ff ff
	ff		 mov	 ecx, DWORD PTR tv79[ebp]
  00cdf	8b 11		 mov	 edx, DWORD PTR [ecx]
  00ce1	8b 8d 00 ff ff
	ff		 mov	 ecx, DWORD PTR tv79[ebp]
  00ce7	ff 52 0c	 call	 DWORD PTR [edx+12]
  00cea	3b f4		 cmp	 esi, esp
  00cec	e8 00 00 00 00	 call	 __RTC_CheckEsp

; 243  : 
; 244  : 	{
; 245  : 		TAB_ITEM ti;

  00cf1	8d 8d 68 ff ff
	ff		 lea	 ecx, DWORD PTR _ti$195470[ebp]
  00cf7	e8 00 00 00 00	 call	 ??0TAB_ITEM@@QAE@XZ
  00cfc	c6 45 fc 01	 mov	 BYTE PTR __$EHRec$[ebp+8], 1

; 246  : 		ti.strName = "";

  00d00	8b f4		 mov	 esi, esp
  00d02	68 00 00 00 00	 push	 OFFSET FLAT:$SG195471
  00d07	8d 8d 68 ff ff
	ff		 lea	 ecx, DWORD PTR _ti$195470[ebp]
  00d0d	ff 15 00 00 00
	00		 call	 DWORD PTR __imp_??4?$basic_string@DU?$char_traits@D@std@@V?$allocator@D@2@@std@@QAEAAV01@PBD@Z
  00d13	3b f4		 cmp	 esi, esp
  00d15	e8 00 00 00 00	 call	 __RTC_CheckEsp

; 247  : 		string strUrl;

  00d1a	8b f4		 mov	 esi, esp
  00d1c	8d 8d 44 ff ff
	ff		 lea	 ecx, DWORD PTR _strUrl$195472[ebp]
  00d22	ff 15 00 00 00
	00		 call	 DWORD PTR __imp_??0?$basic_string@DU?$char_traits@D@std@@V?$allocator@D@2@@std@@QAE@XZ
  00d28	3b f4		 cmp	 esi, esp
  00d2a	e8 00 00 00 00	 call	 __RTC_CheckEsp
  00d2f	c6 45 fc 02	 mov	 BYTE PTR __$EHRec$[ebp+8], 2

; 248  : 		AfxGetUserConfig()->GetConfigStringValue( CONF_SETTING_MODULE_NAME,CONF_SETTING_CONFIG_HOME_PAGE,strUrl);

  00d33	8b f4		 mov	 esi, esp
  00d35	a1 00 00 00 00	 mov	 eax, DWORD PTR _CONF_SETTING_CONFIG_HOME_PAGE
  00d3a	50		 push	 eax
  00d3b	8d 8d 24 ff ff
	ff		 lea	 ecx, DWORD PTR $T197429[ebp]
  00d41	ff 15 00 00 00
	00		 call	 DWORD PTR __imp_??0?$basic_string@DU?$char_traits@D@std@@V?$allocator@D@2@@std@@QAE@PBD@Z
  00d47	3b f4		 cmp	 esi, esp
  00d49	e8 00 00 00 00	 call	 __RTC_CheckEsp
  00d4e	c6 45 fc 03	 mov	 BYTE PTR __$EHRec$[ebp+8], 3
  00d52	8b f4		 mov	 esi, esp
  00d54	8b 0d 00 00 00
	00		 mov	 ecx, DWORD PTR _CONF_SETTING_MODULE_NAME
  00d5a	51		 push	 ecx
  00d5b	8d 8d 08 ff ff
	ff		 lea	 ecx, DWORD PTR $T197430[ebp]
  00d61	ff 15 00 00 00
	00		 call	 DWORD PTR __imp_??0?$basic_string@DU?$char_traits@D@std@@V?$allocator@D@2@@std@@QAE@PBD@Z
  00d67	3b f4		 cmp	 esi, esp
  00d69	e8 00 00 00 00	 call	 __RTC_CheckEsp
  00d6e	c6 45 fc 04	 mov	 BYTE PTR __$EHRec$[ebp+8], 4
  00d72	8d 95 44 ff ff
	ff		 lea	 edx, DWORD PTR _strUrl$195472[ebp]
  00d78	52		 push	 edx
  00d79	8d 85 24 ff ff
	ff		 lea	 eax, DWORD PTR $T197429[ebp]
  00d7f	50		 push	 eax
  00d80	8d 8d 08 ff ff
	ff		 lea	 ecx, DWORD PTR $T197430[ebp]
  00d86	51		 push	 ecx
  00d87	e8 00 00 00 00	 call	 ?AfxGetUserConfig@@YAPAVAfxUserConfig@@XZ ; AfxGetUserConfig
  00d8c	8b c8		 mov	 ecx, eax
  00d8e	e8 00 00 00 00	 call	 ?GetConfigStringValue@AfxUserConfig@@QAEXABV?$basic_string@DU?$char_traits@D@std@@V?$allocator@D@2@@std@@0AAV23@@Z ; AfxUserConfig::GetConfigStringValue
  00d93	c6 45 fc 03	 mov	 BYTE PTR __$EHRec$[ebp+8], 3
  00d97	8b f4		 mov	 esi, esp
  00d99	8d 8d 08 ff ff
	ff		 lea	 ecx, DWORD PTR $T197430[ebp]
  00d9f	ff 15 00 00 00
	00		 call	 DWORD PTR __imp_??1?$basic_string@DU?$char_traits@D@std@@V?$allocator@D@2@@std@@QAE@XZ
  00da5	3b f4		 cmp	 esi, esp
  00da7	e8 00 00 00 00	 call	 __RTC_CheckEsp
  00dac	c6 45 fc 02	 mov	 BYTE PTR __$EHRec$[ebp+8], 2
  00db0	8b f4		 mov	 esi, esp
  00db2	8d 8d 24 ff ff
	ff		 lea	 ecx, DWORD PTR $T197429[ebp]
  00db8	ff 15 00 00 00
	00		 call	 DWORD PTR __imp_??1?$basic_string@DU?$char_traits@D@std@@V?$allocator@D@2@@std@@QAE@XZ
  00dbe	3b f4		 cmp	 esi, esp
  00dc0	e8 00 00 00 00	 call	 __RTC_CheckEsp

; 249  : 		if( strUrl.length() == 0 )

  00dc5	8b f4		 mov	 esi, esp
  00dc7	8d 8d 44 ff ff
	ff		 lea	 ecx, DWORD PTR _strUrl$195472[ebp]
  00dcd	ff 15 00 00 00
	00		 call	 DWORD PTR __imp_?length@?$basic_string@DU?$char_traits@D@std@@V?$allocator@D@2@@std@@QBEIXZ
  00dd3	3b f4		 cmp	 esi, esp
  00dd5	e8 00 00 00 00	 call	 __RTC_CheckEsp
  00dda	85 c0		 test	 eax, eax
  00ddc	75 19		 jne	 SHORT $L195475

; 250  : 		{
; 251  : 			YL_StringUtil::Format( strUrl, "%s", "http://box.7k7k.com/client/" );

  00dde	68 00 00 00 00	 push	 OFFSET FLAT:$SG195476
  00de3	68 00 00 00 00	 push	 OFFSET FLAT:$SG195477
  00de8	8d 95 44 ff ff
	ff		 lea	 edx, DWORD PTR _strUrl$195472[ebp]
  00dee	52		 push	 edx
  00def	e8 00 00 00 00	 call	 ?Format@YL_StringUtil@@SA_NAAV?$basic_string@DU?$char_traits@D@std@@V?$allocator@D@2@@std@@PBDZZ ; YL_StringUtil::Format
  00df4	83 c4 0c	 add	 esp, 12			; 0000000cH
$L195475:

; 252  : 		}
; 253  : 		
; 254  : 		YL_StringUtil::Format( ti.strParam, "url=%s", strUrl.c_str() );

  00df7	8b f4		 mov	 esi, esp
  00df9	8d 8d 44 ff ff
	ff		 lea	 ecx, DWORD PTR _strUrl$195472[ebp]
  00dff	ff 15 00 00 00
	00		 call	 DWORD PTR __imp_?c_str@?$basic_string@DU?$char_traits@D@std@@V?$allocator@D@2@@std@@QBEPBDXZ
  00e05	3b f4		 cmp	 esi, esp
  00e07	e8 00 00 00 00	 call	 __RTC_CheckEsp
  00e0c	50		 push	 eax
  00e0d	68 00 00 00 00	 push	 OFFSET FLAT:$SG195478
  00e12	8d 45 88	 lea	 eax, DWORD PTR _ti$195470[ebp+32]
  00e15	50		 push	 eax
  00e16	e8 00 00 00 00	 call	 ?Format@YL_StringUtil@@SA_NAAV?$basic_string@DU?$char_traits@D@std@@V?$allocator@D@2@@std@@PBDZZ ; YL_StringUtil::Format
  00e1b	83 c4 0c	 add	 esp, 12			; 0000000cH

; 255  : 		ti.eumType  = TAB_HOME;

  00e1e	c7 45 84 00 00
	00 00		 mov	 DWORD PTR _ti$195470[ebp+28], 0

; 256  : 		GLOBAL_TABBARDATA->ITabBar_ChangeTab( ti );

  00e25	e8 00 00 00 00	 call	 ?AfxGetDataManager2@@YAPAVIDataManager@@XZ ; AfxGetDataManager2
  00e2a	89 85 fc fe ff
	ff		 mov	 DWORD PTR tv149[ebp], eax
  00e30	8b f4		 mov	 esi, esp
  00e32	68 00 00 00 00	 push	 OFFSET FLAT:_ID_DATA_TABBAR
  00e37	8b 8d fc fe ff
	ff		 mov	 ecx, DWORD PTR tv149[ebp]
  00e3d	8b 11		 mov	 edx, DWORD PTR [ecx]
  00e3f	8b 8d fc fe ff
	ff		 mov	 ecx, DWORD PTR tv149[ebp]
  00e45	ff 52 0c	 call	 DWORD PTR [edx+12]
  00e48	3b f4		 cmp	 esi, esp
  00e4a	e8 00 00 00 00	 call	 __RTC_CheckEsp
  00e4f	89 85 f8 fe ff
	ff		 mov	 DWORD PTR tv155[ebp], eax
  00e55	8b f4		 mov	 esi, esp
  00e57	8d 85 68 ff ff
	ff		 lea	 eax, DWORD PTR _ti$195470[ebp]
  00e5d	50		 push	 eax
  00e5e	8b 8d f8 fe ff
	ff		 mov	 ecx, DWORD PTR tv155[ebp]
  00e64	8b 11		 mov	 edx, DWORD PTR [ecx]
  00e66	8b 8d f8 fe ff
	ff		 mov	 ecx, DWORD PTR tv155[ebp]
  00e6c	ff 52 0c	 call	 DWORD PTR [edx+12]
  00e6f	3b f4		 cmp	 esi, esp
  00e71	e8 00 00 00 00	 call	 __RTC_CheckEsp

; 257  : 	}

  00e76	c6 45 fc 01	 mov	 BYTE PTR __$EHRec$[ebp+8], 1
  00e7a	8b f4		 mov	 esi, esp
  00e7c	8d 8d 44 ff ff
	ff		 lea	 ecx, DWORD PTR _strUrl$195472[ebp]
  00e82	ff 15 00 00 00
	00		 call	 DWORD PTR __imp_??1?$basic_string@DU?$char_traits@D@std@@V?$allocator@D@2@@std@@QAE@XZ
  00e88	3b f4		 cmp	 esi, esp
  00e8a	e8 00 00 00 00	 call	 __RTC_CheckEsp
  00e8f	c6 45 fc 00	 mov	 BYTE PTR __$EHRec$[ebp+8], 0
  00e93	8d 8d 68 ff ff
	ff		 lea	 ecx, DWORD PTR _ti$195470[ebp]
  00e99	e8 00 00 00 00	 call	 ??1TAB_ITEM@@QAE@XZ
  00e9e	c7 45 fc ff ff
	ff ff		 mov	 DWORD PTR __$EHRec$[ebp+8], -1

; 258  : }

  00ea5	8d 4d ac	 lea	 ecx, DWORD PTR _ti$[ebp]
  00ea8	e8 00 00 00 00	 call	 ??1TAB_ITEM@@QAE@XZ
  00ead	52		 push	 edx
  00eae	8b cd		 mov	 ecx, ebp
  00eb0	50		 push	 eax
  00eb1	8d 15 00 00 00
	00		 lea	 edx, DWORD PTR $L197444
  00eb7	e8 00 00 00 00	 call	 @_RTC_CheckStackVars@8
  00ebc	58		 pop	 eax
  00ebd	5a		 pop	 edx
  00ebe	8b 4d f4	 mov	 ecx, DWORD PTR __$EHRec$[ebp]
  00ec1	64 89 0d 00 00
	00 00		 mov	 DWORD PTR fs:__except_list, ecx
  00ec8	8b 4d f0	 mov	 ecx, DWORD PTR __$ArrayPad$[ebp]
  00ecb	e8 00 00 00 00	 call	 @__security_check_cookie@4
  00ed0	5f		 pop	 edi
  00ed1	5e		 pop	 esi
  00ed2	81 c4 08 01 00
	00		 add	 esp, 264		; 00000108H
  00ed8	3b ec		 cmp	 ebp, esp
  00eda	e8 00 00 00 00	 call	 __RTC_CheckEsp
  00edf	8b e5		 mov	 esp, ebp
  00ee1	5d		 pop	 ebp
  00ee2	c3		 ret	 0
$L197444:
  00ee3	03 00 00 00	 DD	 3
  00ee7	00 00 00 00	 DD	 $L197443
$L197443:
  00eeb	ac ff ff ff	 DD	 -84			; ffffffacH
  00eef	3c 00 00 00	 DD	 60			; 0000003cH
  00ef3	00 00 00 00	 DD	 $L197438
  00ef7	68 ff ff ff	 DD	 -152			; ffffff68H
  00efb	3c 00 00 00	 DD	 60			; 0000003cH
  00eff	00 00 00 00	 DD	 $L197439
  00f03	44 ff ff ff	 DD	 -188			; ffffff44H
  00f07	1c 00 00 00	 DD	 28			; 0000001cH
  00f0b	00 00 00 00	 DD	 $L197440
$L197440:
  00f0f	73		 DB	 115			; 00000073H
  00f10	74		 DB	 116			; 00000074H
  00f11	72		 DB	 114			; 00000072H
  00f12	55		 DB	 85			; 00000055H
  00f13	72		 DB	 114			; 00000072H
  00f14	6c		 DB	 108			; 0000006cH
  00f15	00		 DB	 0
$L197439:
  00f16	74		 DB	 116			; 00000074H
  00f17	69		 DB	 105			; 00000069H
  00f18	00		 DB	 0
$L197438:
  00f19	74		 DB	 116			; 00000074H
  00f1a	69		 DB	 105			; 00000069H
  00f1b	00		 DB	 0
_TEXT	ENDS
text$x	SEGMENT
$L197431:
  000d9	8d 4d ac	 lea	 ecx, DWORD PTR _ti$[ebp]
  000dc	e9 00 00 00 00	 jmp	 ??1TAB_ITEM@@QAE@XZ
$L197432:
  000e1	8d 8d 68 ff ff
	ff		 lea	 ecx, DWORD PTR _ti$195470[ebp]
  000e7	e9 00 00 00 00	 jmp	 ??1TAB_ITEM@@QAE@XZ
$L197433:
  000ec	8b f4		 mov	 esi, esp
  000ee	8d 8d 44 ff ff
	ff		 lea	 ecx, DWORD PTR _strUrl$195472[ebp]
  000f4	ff 15 00 00 00
	00		 call	 DWORD PTR __imp_??1?$basic_string@DU?$char_traits@D@std@@V?$allocator@D@2@@std@@QAE@XZ
  000fa	3b f4		 cmp	 esi, esp
  000fc	e9 00 00 00 00	 jmp	 __RTC_CheckEsp
$L197434:
  00101	8b f4		 mov	 esi, esp
  00103	8d 8d 24 ff ff
	ff		 lea	 ecx, DWORD PTR $T197429[ebp]
  00109	ff 15 00 00 00
	00		 call	 DWORD PTR __imp_??1?$basic_string@DU?$char_traits@D@std@@V?$allocator@D@2@@std@@QAE@XZ
  0010f	3b f4		 cmp	 esi, esp
  00111	e9 00 00 00 00	 jmp	 __RTC_CheckEsp
$L197435:
  00116	8b f4		 mov	 esi, esp
  00118	8d 8d 08 ff ff
	ff		 lea	 ecx, DWORD PTR $T197430[ebp]
  0011e	ff 15 00 00 00
	00		 call	 DWORD PTR __imp_??1?$basic_string@DU?$char_traits@D@std@@V?$allocator@D@2@@std@@QAE@XZ
  00124	3b f4		 cmp	 esi, esp
  00126	e9 00 00 00 00	 jmp	 __RTC_CheckEsp
__ehhandler$?OpenHomePage@CTabPageControl@@QAEXXZ:
  0012b	b8 00 00 00 00	 mov	 eax, OFFSET FLAT:$T197437
  00130	e9 00 00 00 00	 jmp	 ___CxxFrameHandler
text$x	ENDS
?OpenHomePage@CTabPageControl@@QAEXXZ ENDP		; CTabPageControl::OpenHomePage
PUBLIC	?CallJS@CTabPageControl@@QAEXPAX@Z		; CTabPageControl::CallJS
EXTRN	?OnCallJavaScript@MyWebBrowserWnd@@QAEJIJ@Z:NEAR ; MyWebBrowserWnd::OnCallJavaScript
EXTRN	__imp__IsWindow@4:NEAR
; Function compile flags: /Odt /RTCsu
_TEXT	SEGMENT
$T197448 = -28						; size = 4
$T197447 = -24						; size = 4
_pBrowser$195492 = -20					; size = 4
_it$195485 = -12					; size = 4
_this$ = -4						; size = 4
_lpVoid$ = 8						; size = 4
?CallJS@CTabPageControl@@QAEXPAX@Z PROC NEAR		; CTabPageControl::CallJS
; _this$ = ecx

; 261  : {

  00f20	55		 push	 ebp
  00f21	8b ec		 mov	 ebp, esp
  00f23	83 ec 1c	 sub	 esp, 28			; 0000001cH
  00f26	56		 push	 esi
  00f27	b8 cc cc cc cc	 mov	 eax, -858993460		; ccccccccH
  00f2c	89 45 e4	 mov	 DWORD PTR [ebp-28], eax
  00f2f	89 45 e8	 mov	 DWORD PTR [ebp-24], eax
  00f32	89 45 ec	 mov	 DWORD PTR [ebp-20], eax
  00f35	89 45 f0	 mov	 DWORD PTR [ebp-16], eax
  00f38	89 45 f4	 mov	 DWORD PTR [ebp-12], eax
  00f3b	89 45 f8	 mov	 DWORD PTR [ebp-8], eax
  00f3e	89 45 fc	 mov	 DWORD PTR [ebp-4], eax
  00f41	89 4d fc	 mov	 DWORD PTR _this$[ebp], ecx

; 262  : 	for( vector<ONE_TAB>::iterator it = m_mapTab.begin();

  00f44	8d 45 f4	 lea	 eax, DWORD PTR _it$195485[ebp]
  00f47	50		 push	 eax
  00f48	8b 4d fc	 mov	 ecx, DWORD PTR _this$[ebp]
  00f4b	83 c1 04	 add	 ecx, 4
  00f4e	e8 00 00 00 00	 call	 ?begin@?$vector@U?$pair@UTAB_ITEM@@PAVCWnd@@@std@@V?$allocator@U?$pair@UTAB_ITEM@@PAVCWnd@@@std@@@2@@std@@QAE?AViterator@12@XZ ; std::vector<std::pair<TAB_ITEM,CWnd *>,std::allocator<std::pair<TAB_ITEM,CWnd *> > >::begin

; 263  : 		it != m_mapTab.end(); it++ )

  00f53	eb 0e		 jmp	 SHORT $L195489
$L195490:
  00f55	6a 00		 push	 0
  00f57	8d 4d e8	 lea	 ecx, DWORD PTR $T197447[ebp]
  00f5a	51		 push	 ecx
  00f5b	8d 4d f4	 lea	 ecx, DWORD PTR _it$195485[ebp]
  00f5e	e8 00 00 00 00	 call	 ??Eiterator@?$vector@U?$pair@UTAB_ITEM@@PAVCWnd@@@std@@V?$allocator@U?$pair@UTAB_ITEM@@PAVCWnd@@@std@@@2@@std@@QAE?AV012@H@Z ; std::vector<std::pair<TAB_ITEM,CWnd *>,std::allocator<std::pair<TAB_ITEM,CWnd *> > >::iterator::operator++
$L195489:
  00f63	8d 55 e4	 lea	 edx, DWORD PTR $T197448[ebp]
  00f66	52		 push	 edx
  00f67	8b 4d fc	 mov	 ecx, DWORD PTR _this$[ebp]
  00f6a	83 c1 04	 add	 ecx, 4
  00f6d	e8 00 00 00 00	 call	 ?end@?$vector@U?$pair@UTAB_ITEM@@PAVCWnd@@@std@@V?$allocator@U?$pair@UTAB_ITEM@@PAVCWnd@@@std@@@2@@std@@QAE?AViterator@12@XZ ; std::vector<std::pair<TAB_ITEM,CWnd *>,std::allocator<std::pair<TAB_ITEM,CWnd *> > >::end
  00f72	50		 push	 eax
  00f73	8d 4d f4	 lea	 ecx, DWORD PTR _it$195485[ebp]
  00f76	e8 00 00 00 00	 call	 ??9const_iterator@?$vector@U?$pair@UTAB_ITEM@@PAVCWnd@@@std@@V?$allocator@U?$pair@UTAB_ITEM@@PAVCWnd@@@std@@@2@@std@@QBE_NABV012@@Z ; std::vector<std::pair<TAB_ITEM,CWnd *>,std::allocator<std::pair<TAB_ITEM,CWnd *> > >::const_iterator::operator!=
  00f7b	0f b6 c0	 movzx	 eax, al
  00f7e	85 c0		 test	 eax, eax
  00f80	74 40		 je	 SHORT $L195483

; 264  : 	{
; 265  : 		MyWebBrowserWnd * pBrowser = (MyWebBrowserWnd *)it->second;

  00f82	8d 4d f4	 lea	 ecx, DWORD PTR _it$195485[ebp]
  00f85	e8 00 00 00 00	 call	 ??Citerator@?$vector@U?$pair@UTAB_ITEM@@PAVCWnd@@@std@@V?$allocator@U?$pair@UTAB_ITEM@@PAVCWnd@@@std@@@2@@std@@QBEPAU?$pair@UTAB_ITEM@@PAVCWnd@@@2@XZ ; std::vector<std::pair<TAB_ITEM,CWnd *>,std::allocator<std::pair<TAB_ITEM,CWnd *> > >::iterator::operator->
  00f8a	8b 48 3c	 mov	 ecx, DWORD PTR [eax+60]
  00f8d	89 4d ec	 mov	 DWORD PTR _pBrowser$195492[ebp], ecx

; 266  : 		if (pBrowser != NULL && ::IsWindow (pBrowser->m_hWnd))

  00f90	83 7d ec 00	 cmp	 DWORD PTR _pBrowser$195492[ebp], 0
  00f94	74 2a		 je	 SHORT $L195494
  00f96	8b f4		 mov	 esi, esp
  00f98	8b 55 ec	 mov	 edx, DWORD PTR _pBrowser$195492[ebp]
  00f9b	8b 42 20	 mov	 eax, DWORD PTR [edx+32]
  00f9e	50		 push	 eax
  00f9f	ff 15 00 00 00
	00		 call	 DWORD PTR __imp__IsWindow@4
  00fa5	3b f4		 cmp	 esi, esp
  00fa7	e8 00 00 00 00	 call	 __RTC_CheckEsp
  00fac	85 c0		 test	 eax, eax
  00fae	74 10		 je	 SHORT $L195494

; 267  : 		{
; 268  : 			pBrowser->OnCallJavaScript ((WPARAM)pBrowser, (LPARAM)lpVoid);

  00fb0	8b 4d 08	 mov	 ecx, DWORD PTR _lpVoid$[ebp]
  00fb3	51		 push	 ecx
  00fb4	8b 55 ec	 mov	 edx, DWORD PTR _pBrowser$195492[ebp]
  00fb7	52		 push	 edx
  00fb8	8b 4d ec	 mov	 ecx, DWORD PTR _pBrowser$195492[ebp]
  00fbb	e8 00 00 00 00	 call	 ?OnCallJavaScript@MyWebBrowserWnd@@QAEJIJ@Z ; MyWebBrowserWnd::OnCallJavaScript
$L195494:

; 269  : 		}
; 270  : 	}

  00fc0	eb 93		 jmp	 SHORT $L195490
$L195483:

; 271  : }

  00fc2	52		 push	 edx
  00fc3	8b cd		 mov	 ecx, ebp
  00fc5	50		 push	 eax
  00fc6	8d 15 00 00 00
	00		 lea	 edx, DWORD PTR $L197451
  00fcc	e8 00 00 00 00	 call	 @_RTC_CheckStackVars@8
  00fd1	58		 pop	 eax
  00fd2	5a		 pop	 edx
  00fd3	5e		 pop	 esi
  00fd4	83 c4 1c	 add	 esp, 28			; 0000001cH
  00fd7	3b ec		 cmp	 ebp, esp
  00fd9	e8 00 00 00 00	 call	 __RTC_CheckEsp
  00fde	8b e5		 mov	 esp, ebp
  00fe0	5d		 pop	 ebp
  00fe1	c2 04 00	 ret	 4
$L197451:
  00fe4	01 00 00 00	 DD	 1
  00fe8	00 00 00 00	 DD	 $L197450
$L197450:
  00fec	f4 ff ff ff	 DD	 -12			; fffffff4H
  00ff0	04 00 00 00	 DD	 4
  00ff4	00 00 00 00	 DD	 $L197449
$L197449:
  00ff8	69		 DB	 105			; 00000069H
  00ff9	74		 DB	 116			; 00000074H
  00ffa	00		 DB	 0
?CallJS@CTabPageControl@@QAEXPAX@Z ENDP			; CTabPageControl::CallJS
_TEXT	ENDS
PUBLIC	?_AtlInstallStringThunk@ATL@@YAXPAPAXPAX1@Z	; ATL::_AtlInstallStringThunk
PUBLIC	?GetEnvironmentVariableWFake@ATL@@YGKPB_WPA_WK@Z ; ATL::GetEnvironmentVariableWFake
EXTRN	__imp__GetEnvironmentVariableW@12:NEAR
; Function compile flags: /Odt /RTCsu
; File d:\program files (x86)\microsoft visual studio .net 2003\vc7\atlmfc\include\cstringt.h
;	COMDAT ?GetEnvironmentVariableWThunk@ATL@@YGKPB_WPA_WK@Z
_TEXT	SEGMENT
_pszName$ = 8						; size = 4
_pszBuffer$ = 12					; size = 4
_nSize$ = 16						; size = 4
?GetEnvironmentVariableWThunk@ATL@@YGKPB_WPA_WK@Z PROC NEAR ; ATL::GetEnvironmentVariableWThunk, COMDAT

; 183  : {

  00000	55		 push	 ebp
  00001	8b ec		 mov	 ebp, esp
  00003	56		 push	 esi

; 184  : 	_AtlInstallStringThunk(reinterpret_cast<void**>(&_strthunks.pfnGetEnvironmentVariableW), 
; 185  : 		GetEnvironmentVariableWFake, ::GetEnvironmentVariableW);

  00004	a1 00 00 00 00	 mov	 eax, DWORD PTR __imp__GetEnvironmentVariableW@12
  00009	50		 push	 eax
  0000a	68 00 00 00 00	 push	 OFFSET FLAT:?GetEnvironmentVariableWFake@ATL@@YGKPB_WPA_WK@Z ; ATL::GetEnvironmentVariableWFake
  0000f	68 14 00 00 00	 push	 OFFSET FLAT:?_strthunks@ATL@@3U_AtlStringThunks@1@A+20
  00014	e8 00 00 00 00	 call	 ?_AtlInstallStringThunk@ATL@@YAXPAPAXPAX1@Z ; ATL::_AtlInstallStringThunk
  00019	83 c4 0c	 add	 esp, 12			; 0000000cH

; 186  : 
; 187  : 	return _strthunks.pfnGetEnvironmentVariableW(pszName, pszBuffer, nSize);

  0001c	8b f4		 mov	 esi, esp
  0001e	8b 4d 10	 mov	 ecx, DWORD PTR _nSize$[ebp]
  00021	51		 push	 ecx
  00022	8b 55 0c	 mov	 edx, DWORD PTR _pszBuffer$[ebp]
  00025	52		 push	 edx
  00026	8b 45 08	 mov	 eax, DWORD PTR _pszName$[ebp]
  00029	50		 push	 eax
  0002a	ff 15 14 00 00
	00		 call	 DWORD PTR ?_strthunks@ATL@@3U_AtlStringThunks@1@A+20
  00030	3b f4		 cmp	 esi, esp
  00032	e8 00 00 00 00	 call	 __RTC_CheckEsp

; 188  : }

  00037	5e		 pop	 esi
  00038	3b ec		 cmp	 ebp, esp
  0003a	e8 00 00 00 00	 call	 __RTC_CheckEsp
  0003f	5d		 pop	 ebp
  00040	c2 0c 00	 ret	 12			; 0000000cH
?GetEnvironmentVariableWThunk@ATL@@YGKPB_WPA_WK@Z ENDP	; ATL::GetEnvironmentVariableWThunk
_TEXT	ENDS
PUBLIC	?s_bWin9x@?1??_AtlInstallStringThunk@ATL@@YAXPAPAXPAX1@Z@4_NA ; `ATL::_AtlInstallStringThunk'::`2'::s_bWin9x
PUBLIC	??_B?1??_AtlInstallStringThunk@ATL@@YAXPAPAXPAX1@Z@51 ; `ATL::_AtlInstallStringThunk'::`2'::`local static guard'
EXTRN	__imp__GetVersion@0:NEAR
;	COMDAT ?s_bWin9x@?1??_AtlInstallStringThunk@ATL@@YAXPAPAXPAX1@Z@4_NA
_BSS	SEGMENT
?s_bWin9x@?1??_AtlInstallStringThunk@ATL@@YAXPAPAXPAX1@Z@4_NA DB 01H DUP (?) ; `ATL::_AtlInstallStringThunk'::`2'::s_bWin9x
_BSS	ENDS
;	COMDAT ??_B?1??_AtlInstallStringThunk@ATL@@YAXPAPAXPAX1@Z@51
_BSS	SEGMENT
??_B?1??_AtlInstallStringThunk@ATL@@YAXPAPAXPAX1@Z@51 DD 01H DUP (?) ; `ATL::_AtlInstallStringThunk'::`2'::`local static guard'
; Function compile flags: /Odt /RTCsu
_BSS	ENDS
;	COMDAT ?_AtlInstallStringThunk@ATL@@YAXPAPAXPAX1@Z
_TEXT	SEGMENT
_pfn$ = -4						; size = 4
_ppThunk$ = 8						; size = 4
_pfnWin9x$ = 12						; size = 4
_pfnNT$ = 16						; size = 4
?_AtlInstallStringThunk@ATL@@YAXPAPAXPAX1@Z PROC NEAR	; ATL::_AtlInstallStringThunk, COMDAT

; 115  : {

  00000	55		 push	 ebp
  00001	8b ec		 mov	 ebp, esp
  00003	51		 push	 ecx
  00004	56		 push	 esi
  00005	c7 45 fc cc cc
	cc cc		 mov	 DWORD PTR [ebp-4], -858993460 ; ccccccccH

; 116  : #pragma warning (push)
; 117  : #pragma warning (disable : 4640)	// construction of local static object is not thread-safe
; 118  : 
; 119  : 	static bool s_bWin9x = (::GetVersion()&0x80000000) != 0;

  0000c	a1 00 00 00 00	 mov	 eax, DWORD PTR ??_B?1??_AtlInstallStringThunk@ATL@@YAXPAPAXPAX1@Z@51
  00011	83 e0 01	 and	 eax, 1
  00014	75 2e		 jne	 SHORT $L26217
  00016	8b 0d 00 00 00
	00		 mov	 ecx, DWORD PTR ??_B?1??_AtlInstallStringThunk@ATL@@YAXPAPAXPAX1@Z@51
  0001c	83 c9 01	 or	 ecx, 1
  0001f	89 0d 00 00 00
	00		 mov	 DWORD PTR ??_B?1??_AtlInstallStringThunk@ATL@@YAXPAPAXPAX1@Z@51, ecx
  00025	8b f4		 mov	 esi, esp
  00027	ff 15 00 00 00
	00		 call	 DWORD PTR __imp__GetVersion@0
  0002d	3b f4		 cmp	 esi, esp
  0002f	e8 00 00 00 00	 call	 __RTC_CheckEsp
  00034	25 00 00 00 80	 and	 eax, -2147483648	; 80000000H
  00039	f7 d8		 neg	 eax
  0003b	1b c0		 sbb	 eax, eax
  0003d	f7 d8		 neg	 eax
  0003f	a2 00 00 00 00	 mov	 BYTE PTR ?s_bWin9x@?1??_AtlInstallStringThunk@ATL@@YAXPAPAXPAX1@Z@4_NA, al ; `ATL::_AtlInstallStringThunk'::`2'::s_bWin9x
$L26217:

; 120  : 	
; 121  : #pragma warning (pop)
; 122  : 
; 123  : 	void* pfn;
; 124  : 	if (s_bWin9x)

  00044	0f b6 15 00 00
	00 00		 movzx	 edx, BYTE PTR ?s_bWin9x@?1??_AtlInstallStringThunk@ATL@@YAXPAPAXPAX1@Z@4_NA ; `ATL::_AtlInstallStringThunk'::`2'::s_bWin9x
  0004b	85 d2		 test	 edx, edx
  0004d	74 08		 je	 SHORT $L26219

; 125  : 		pfn = pfnWin9x;

  0004f	8b 45 0c	 mov	 eax, DWORD PTR _pfnWin9x$[ebp]
  00052	89 45 fc	 mov	 DWORD PTR _pfn$[ebp], eax

; 126  : 	else

  00055	eb 06		 jmp	 SHORT $L26220
$L26219:

; 127  : 	{
; 128  : #ifdef _CSTRING_ALWAYS_THUNK
; 129  : 		pfn = pfnWin9x;
; 130  : 		(void)pfnNT;
; 131  : #else
; 132  : 		pfn = pfnNT;

  00057	8b 4d 10	 mov	 ecx, DWORD PTR _pfnNT$[ebp]
  0005a	89 4d fc	 mov	 DWORD PTR _pfn$[ebp], ecx
$L26220:

; 133  : #endif
; 134  : 	}
; 135  : 	InterlockedExchangePointer(ppThunk, pfn);

  0005d	8b 55 fc	 mov	 edx, DWORD PTR _pfn$[ebp]
  00060	52		 push	 edx
  00061	8b 45 08	 mov	 eax, DWORD PTR _ppThunk$[ebp]
  00064	50		 push	 eax
  00065	e8 00 00 00 00	 call	 ?InterlockedExchangePointer@@YGPAXPAPAXPAX@Z ; InterlockedExchangePointer

; 136  : }

  0006a	5e		 pop	 esi
  0006b	83 c4 04	 add	 esp, 4
  0006e	3b ec		 cmp	 ebp, esp
  00070	e8 00 00 00 00	 call	 __RTC_CheckEsp
  00075	8b e5		 mov	 esp, ebp
  00077	5d		 pop	 ebp
  00078	c3		 ret	 0
?_AtlInstallStringThunk@ATL@@YAXPAPAXPAX1@Z ENDP	; ATL::_AtlInstallStringThunk
_TEXT	ENDS
PUBLIC	??_C@_0FH@KDPNIMBO@D?3?2Program?5Files?5?$CIx86?$CJ?2Microsoft@ ; `string'
PUBLIC	?_AtlGetConversionACP@ATL@@YGIXZ		; ATL::_AtlGetConversionACP
PUBLIC	??0?$CTempBuffer@D$0IA@VCCRTAllocator@ATL@@@ATL@@QAE@XZ ; ATL::CTempBuffer<char,128,ATL::CCRTAllocator>::CTempBuffer<char,128,ATL::CCRTAllocator>
PUBLIC	??1?$CTempBuffer@D$0IA@VCCRTAllocator@ATL@@@ATL@@QAE@XZ ; ATL::CTempBuffer<char,128,ATL::CCRTAllocator>::~CTempBuffer<char,128,ATL::CCRTAllocator>
PUBLIC	??B?$CTempBuffer@D$0IA@VCCRTAllocator@ATL@@@ATL@@QBEPADXZ ; ATL::CTempBuffer<char,128,ATL::CCRTAllocator>::operator char *
PUBLIC	?Allocate@?$CTempBuffer@D$0IA@VCCRTAllocator@ATL@@@ATL@@QAEPADI@Z ; ATL::CTempBuffer<char,128,ATL::CCRTAllocator>::Allocate
PUBLIC	??0?$CW2AEX@$0IA@@ATL@@QAE@PB_W@Z		; ATL::CW2AEX<128>::CW2AEX<128>
PUBLIC	??1?$CW2AEX@$0IA@@ATL@@QAE@XZ			; ATL::CW2AEX<128>::~CW2AEX<128>
PUBLIC	??B?$CW2AEX@$0IA@@ATL@@QBEPADXZ			; ATL::CW2AEX<128>::operator char *
PUBLIC	??_C@_0BA@CLMJJCOM@nSize?5?$DO?$DN?5nSizeW?$AA@	; `string'
EXTRN	__imp___CrtDbgReport:NEAR
EXTRN	__imp__MultiByteToWideChar@24:NEAR
EXTRN	__imp__GetEnvironmentVariableA@12:NEAR
;	COMDAT xdata$x
xdata$x	SEGMENT
$T197470 DD	0ffffffffH
	DD	FLAT:$L197460
	DD	00H
	DD	FLAT:$L197461
$T197463 DD	019930520H
	DD	02H
	DD	FLAT:$T197470
	DD	2 DUP(00H)
	DD	2 DUP(00H)
xdata$x	ENDS
;	COMDAT ??_C@_0BA@CLMJJCOM@nSize?5?$DO?$DN?5nSizeW?$AA@
CONST	SEGMENT
??_C@_0BA@CLMJJCOM@nSize?5?$DO?$DN?5nSizeW?$AA@ DB 'nSize >= nSizeW', 00H ; `string'
CONST	ENDS
;	COMDAT ??_C@_0FH@KDPNIMBO@D?3?2Program?5Files?5?$CIx86?$CJ?2Microsoft@
CONST	SEGMENT
??_C@_0FH@KDPNIMBO@D?3?2Program?5Files?5?$CIx86?$CJ?2Microsoft@ DB 'D:\Pr'
	DB	'ogram Files (x86)\Microsoft Visual Studio .NET 2003\Vc7\atlmf'
	DB	'c\include\cstringt.h', 00H			; `string'
; Function compile flags: /Odt /RTCsu
CONST	ENDS
;	COMDAT ?GetEnvironmentVariableWFake@ATL@@YGKPB_WPA_WK@Z
_TEXT	SEGMENT
$T197459 = -316						; size = 4
$T197457 = -312						; size = 4
$T197456 = -308						; size = 4
_pszNameA$ = -300					; size = 132
_pszBufferA$ = -160					; size = 132
_nSizeW$ = -24						; size = 4
_nSizeA$ = -20						; size = 4
__$ArrayPad$ = -16					; size = 4
__$EHRec$ = -12						; size = 12
__$ReturnAddr$ = 4					; size = 4
_pszName$ = 8						; size = 4
_pszBuffer$ = 12					; size = 4
_nSize$ = 16						; size = 4
?GetEnvironmentVariableWFake@ATL@@YGKPB_WPA_WK@Z PROC NEAR ; ATL::GetEnvironmentVariableWFake, COMDAT

; 159  : {

  00000	55		 push	 ebp
  00001	8b ec		 mov	 ebp, esp
  00003	6a ff		 push	 -1
  00005	68 00 00 00 00	 push	 __ehhandler$?GetEnvironmentVariableWFake@ATL@@YGKPB_WPA_WK@Z
  0000a	64 a1 00 00 00
	00		 mov	 eax, DWORD PTR fs:__except_list
  00010	50		 push	 eax
  00011	64 89 25 00 00
	00 00		 mov	 DWORD PTR fs:__except_list, esp
  00018	81 ec 30 01 00
	00		 sub	 esp, 304		; 00000130H
  0001e	56		 push	 esi
  0001f	57		 push	 edi
  00020	8d bd c4 fe ff
	ff		 lea	 edi, DWORD PTR [ebp-316]
  00026	b9 4c 00 00 00	 mov	 ecx, 76			; 0000004cH
  0002b	b8 cc cc cc cc	 mov	 eax, -858993460		; ccccccccH
  00030	f3 ab		 rep stosd
  00032	a1 00 00 00 00	 mov	 eax, DWORD PTR ___security_cookie
  00037	89 45 f0	 mov	 DWORD PTR __$ArrayPad$[ebp], eax

; 160  : 	ULONG nSizeA;
; 161  : 	ULONG nSizeW;
; 162  : 	CTempBuffer<char> pszBufferA;

  0003a	8d 8d 60 ff ff
	ff		 lea	 ecx, DWORD PTR _pszBufferA$[ebp]
  00040	e8 00 00 00 00	 call	 ??0?$CTempBuffer@D$0IA@VCCRTAllocator@ATL@@@ATL@@QAE@XZ ; ATL::CTempBuffer<char,128,ATL::CCRTAllocator>::CTempBuffer<char,128,ATL::CCRTAllocator>
  00045	c7 45 fc 00 00
	00 00		 mov	 DWORD PTR __$EHRec$[ebp+8], 0

; 163  : 	CW2A pszNameA(pszName);

  0004c	8b 45 08	 mov	 eax, DWORD PTR _pszName$[ebp]
  0004f	50		 push	 eax
  00050	8d 8d d4 fe ff
	ff		 lea	 ecx, DWORD PTR _pszNameA$[ebp]
  00056	e8 00 00 00 00	 call	 ??0?$CW2AEX@$0IA@@ATL@@QAE@PB_W@Z ; ATL::CW2AEX<128>::CW2AEX<128>
  0005b	c6 45 fc 01	 mov	 BYTE PTR __$EHRec$[ebp+8], 1

; 164  : 
; 165  : 	nSizeA = ::GetEnvironmentVariableA(pszNameA, NULL, 0);

  0005f	8b f4		 mov	 esi, esp
  00061	6a 00		 push	 0
  00063	6a 00		 push	 0
  00065	8d 8d d4 fe ff
	ff		 lea	 ecx, DWORD PTR _pszNameA$[ebp]
  0006b	e8 00 00 00 00	 call	 ??B?$CW2AEX@$0IA@@ATL@@QBEPADXZ ; ATL::CW2AEX<128>::operator char *
  00070	50		 push	 eax
  00071	ff 15 00 00 00
	00		 call	 DWORD PTR __imp__GetEnvironmentVariableA@12
  00077	3b f4		 cmp	 esi, esp
  00079	e8 00 00 00 00	 call	 __RTC_CheckEsp
  0007e	89 45 ec	 mov	 DWORD PTR _nSizeA$[ebp], eax

; 166  : 	if (nSizeA == 0)

  00081	83 7d ec 00	 cmp	 DWORD PTR _nSizeA$[ebp], 0
  00085	75 36		 jne	 SHORT $L26322

; 167  : 		return 0;

  00087	c7 85 cc fe ff
	ff 00 00 00 00	 mov	 DWORD PTR $T197456[ebp], 0
  00091	c6 45 fc 00	 mov	 BYTE PTR __$EHRec$[ebp+8], 0
  00095	8d 8d d4 fe ff
	ff		 lea	 ecx, DWORD PTR _pszNameA$[ebp]
  0009b	e8 00 00 00 00	 call	 ??1?$CW2AEX@$0IA@@ATL@@QAE@XZ ; ATL::CW2AEX<128>::~CW2AEX<128>
  000a0	c7 45 fc ff ff
	ff ff		 mov	 DWORD PTR __$EHRec$[ebp+8], -1
  000a7	8d 8d 60 ff ff
	ff		 lea	 ecx, DWORD PTR _pszBufferA$[ebp]
  000ad	e8 00 00 00 00	 call	 ??1?$CTempBuffer@D$0IA@VCCRTAllocator@ATL@@@ATL@@QAE@XZ ; ATL::CTempBuffer<char,128,ATL::CCRTAllocator>::~CTempBuffer<char,128,ATL::CCRTAllocator>
  000b2	8b 85 cc fe ff
	ff		 mov	 eax, DWORD PTR $T197456[ebp]
  000b8	e9 33 01 00 00	 jmp	 $L26263
$L26322:

; 168  : 
; 169  : 	pszBufferA.Allocate(nSizeA*2);

  000bd	8b 4d ec	 mov	 ecx, DWORD PTR _nSizeA$[ebp]
  000c0	d1 e1		 shl	 ecx, 1
  000c2	51		 push	 ecx
  000c3	8d 8d 60 ff ff
	ff		 lea	 ecx, DWORD PTR _pszBufferA$[ebp]
  000c9	e8 00 00 00 00	 call	 ?Allocate@?$CTempBuffer@D$0IA@VCCRTAllocator@ATL@@@ATL@@QAEPADI@Z ; ATL::CTempBuffer<char,128,ATL::CCRTAllocator>::Allocate

; 170  : 	::GetEnvironmentVariableA(pszNameA, pszBufferA, nSizeA);

  000ce	8b f4		 mov	 esi, esp
  000d0	8b 55 ec	 mov	 edx, DWORD PTR _nSizeA$[ebp]
  000d3	52		 push	 edx
  000d4	8d 8d 60 ff ff
	ff		 lea	 ecx, DWORD PTR _pszBufferA$[ebp]
  000da	e8 00 00 00 00	 call	 ??B?$CTempBuffer@D$0IA@VCCRTAllocator@ATL@@@ATL@@QBEPADXZ ; ATL::CTempBuffer<char,128,ATL::CCRTAllocator>::operator char *
  000df	50		 push	 eax
  000e0	8d 8d d4 fe ff
	ff		 lea	 ecx, DWORD PTR _pszNameA$[ebp]
  000e6	e8 00 00 00 00	 call	 ??B?$CW2AEX@$0IA@@ATL@@QBEPADXZ ; ATL::CW2AEX<128>::operator char *
  000eb	50		 push	 eax
  000ec	ff 15 00 00 00
	00		 call	 DWORD PTR __imp__GetEnvironmentVariableA@12
  000f2	3b f4		 cmp	 esi, esp
  000f4	e8 00 00 00 00	 call	 __RTC_CheckEsp

; 171  : 
; 172  : 	nSizeW = ::MultiByteToWideChar(_AtlGetConversionACP(), 0, pszBufferA, -1, NULL, 0);

  000f9	8b f4		 mov	 esi, esp
  000fb	6a 00		 push	 0
  000fd	6a 00		 push	 0
  000ff	6a ff		 push	 -1
  00101	8d 8d 60 ff ff
	ff		 lea	 ecx, DWORD PTR _pszBufferA$[ebp]
  00107	e8 00 00 00 00	 call	 ??B?$CTempBuffer@D$0IA@VCCRTAllocator@ATL@@@ATL@@QBEPADXZ ; ATL::CTempBuffer<char,128,ATL::CCRTAllocator>::operator char *
  0010c	50		 push	 eax
  0010d	6a 00		 push	 0
  0010f	e8 00 00 00 00	 call	 ?_AtlGetConversionACP@ATL@@YGIXZ ; ATL::_AtlGetConversionACP
  00114	50		 push	 eax
  00115	ff 15 00 00 00
	00		 call	 DWORD PTR __imp__MultiByteToWideChar@24
  0011b	3b f4		 cmp	 esi, esp
  0011d	e8 00 00 00 00	 call	 __RTC_CheckEsp
  00122	89 45 e8	 mov	 DWORD PTR _nSizeW$[ebp], eax

; 173  : 	if (nSize == 0)

  00125	83 7d 10 00	 cmp	 DWORD PTR _nSize$[ebp], 0
  00129	75 35		 jne	 SHORT $L26324

; 174  : 		return nSizeW;

  0012b	8b 45 e8	 mov	 eax, DWORD PTR _nSizeW$[ebp]
  0012e	89 85 c8 fe ff
	ff		 mov	 DWORD PTR $T197457[ebp], eax
  00134	c6 45 fc 00	 mov	 BYTE PTR __$EHRec$[ebp+8], 0
  00138	8d 8d d4 fe ff
	ff		 lea	 ecx, DWORD PTR _pszNameA$[ebp]
  0013e	e8 00 00 00 00	 call	 ??1?$CW2AEX@$0IA@@ATL@@QAE@XZ ; ATL::CW2AEX<128>::~CW2AEX<128>
  00143	c7 45 fc ff ff
	ff ff		 mov	 DWORD PTR __$EHRec$[ebp+8], -1
  0014a	8d 8d 60 ff ff
	ff		 lea	 ecx, DWORD PTR _pszBufferA$[ebp]
  00150	e8 00 00 00 00	 call	 ??1?$CTempBuffer@D$0IA@VCCRTAllocator@ATL@@@ATL@@QAE@XZ ; ATL::CTempBuffer<char,128,ATL::CCRTAllocator>::~CTempBuffer<char,128,ATL::CCRTAllocator>
  00155	8b 85 c8 fe ff
	ff		 mov	 eax, DWORD PTR $T197457[ebp]
  0015b	e9 90 00 00 00	 jmp	 $L26263
$L26324:

; 175  : 	ATLASSERT(nSize >= nSizeW);

  00160	8b 4d 10	 mov	 ecx, DWORD PTR _nSize$[ebp]
  00163	3b 4d e8	 cmp	 ecx, DWORD PTR _nSizeW$[ebp]
  00166	73 2b		 jae	 SHORT $L197458
  00168	8b f4		 mov	 esi, esp
  0016a	68 00 00 00 00	 push	 OFFSET FLAT:??_C@_0BA@CLMJJCOM@nSize?5?$DO?$DN?5nSizeW?$AA@
  0016f	6a 00		 push	 0
  00171	68 af 00 00 00	 push	 175			; 000000afH
  00176	68 00 00 00 00	 push	 OFFSET FLAT:??_C@_0FH@KDPNIMBO@D?3?2Program?5Files?5?$CIx86?$CJ?2Microsoft@
  0017b	6a 02		 push	 2
  0017d	ff 15 00 00 00
	00		 call	 DWORD PTR __imp___CrtDbgReport
  00183	83 c4 14	 add	 esp, 20			; 00000014H
  00186	3b f4		 cmp	 esi, esp
  00188	e8 00 00 00 00	 call	 __RTC_CheckEsp
  0018d	83 f8 01	 cmp	 eax, 1
  00190	75 01		 jne	 SHORT $L197458
  00192	cc		 int	 3
$L197458:

; 176  : 	::MultiByteToWideChar(_AtlGetConversionACP(), 0, pszBufferA, -1, pszBuffer, nSizeW);

  00193	8b f4		 mov	 esi, esp
  00195	8b 45 e8	 mov	 eax, DWORD PTR _nSizeW$[ebp]
  00198	50		 push	 eax
  00199	8b 4d 0c	 mov	 ecx, DWORD PTR _pszBuffer$[ebp]
  0019c	51		 push	 ecx
  0019d	6a ff		 push	 -1
  0019f	8d 8d 60 ff ff
	ff		 lea	 ecx, DWORD PTR _pszBufferA$[ebp]
  001a5	e8 00 00 00 00	 call	 ??B?$CTempBuffer@D$0IA@VCCRTAllocator@ATL@@@ATL@@QBEPADXZ ; ATL::CTempBuffer<char,128,ATL::CCRTAllocator>::operator char *
  001aa	50		 push	 eax
  001ab	6a 00		 push	 0
  001ad	e8 00 00 00 00	 call	 ?_AtlGetConversionACP@ATL@@YGIXZ ; ATL::_AtlGetConversionACP
  001b2	50		 push	 eax
  001b3	ff 15 00 00 00
	00		 call	 DWORD PTR __imp__MultiByteToWideChar@24
  001b9	3b f4		 cmp	 esi, esp
  001bb	e8 00 00 00 00	 call	 __RTC_CheckEsp

; 177  : 
; 178  : 	return nSizeW;

  001c0	8b 55 e8	 mov	 edx, DWORD PTR _nSizeW$[ebp]
  001c3	89 95 c4 fe ff
	ff		 mov	 DWORD PTR $T197459[ebp], edx
  001c9	c6 45 fc 00	 mov	 BYTE PTR __$EHRec$[ebp+8], 0
  001cd	8d 8d d4 fe ff
	ff		 lea	 ecx, DWORD PTR _pszNameA$[ebp]
  001d3	e8 00 00 00 00	 call	 ??1?$CW2AEX@$0IA@@ATL@@QAE@XZ ; ATL::CW2AEX<128>::~CW2AEX<128>
  001d8	c7 45 fc ff ff
	ff ff		 mov	 DWORD PTR __$EHRec$[ebp+8], -1
  001df	8d 8d 60 ff ff
	ff		 lea	 ecx, DWORD PTR _pszBufferA$[ebp]
  001e5	e8 00 00 00 00	 call	 ??1?$CTempBuffer@D$0IA@VCCRTAllocator@ATL@@@ATL@@QAE@XZ ; ATL::CTempBuffer<char,128,ATL::CCRTAllocator>::~CTempBuffer<char,128,ATL::CCRTAllocator>
  001ea	8b 85 c4 fe ff
	ff		 mov	 eax, DWORD PTR $T197459[ebp]
$L26263:

; 179  : }

  001f0	52		 push	 edx
  001f1	8b cd		 mov	 ecx, ebp
  001f3	50		 push	 eax
  001f4	8d 15 00 00 00
	00		 lea	 edx, DWORD PTR $L197469
  001fa	e8 00 00 00 00	 call	 @_RTC_CheckStackVars@8
  001ff	58		 pop	 eax
  00200	5a		 pop	 edx
  00201	8b 4d f4	 mov	 ecx, DWORD PTR __$EHRec$[ebp]
  00204	64 89 0d 00 00
	00 00		 mov	 DWORD PTR fs:__except_list, ecx
  0020b	8b 4d f0	 mov	 ecx, DWORD PTR __$ArrayPad$[ebp]
  0020e	e8 00 00 00 00	 call	 @__security_check_cookie@4
  00213	5f		 pop	 edi
  00214	5e		 pop	 esi
  00215	81 c4 3c 01 00
	00		 add	 esp, 316		; 0000013cH
  0021b	3b ec		 cmp	 ebp, esp
  0021d	e8 00 00 00 00	 call	 __RTC_CheckEsp
  00222	8b e5		 mov	 esp, ebp
  00224	5d		 pop	 ebp
  00225	c2 0c 00	 ret	 12			; 0000000cH
$L197469:
  00228	02 00 00 00	 DD	 2
  0022c	00 00 00 00	 DD	 $L197468
$L197468:
  00230	60 ff ff ff	 DD	 -160			; ffffff60H
  00234	84 00 00 00	 DD	 132			; 00000084H
  00238	00 00 00 00	 DD	 $L197464
  0023c	d4 fe ff ff	 DD	 -300			; fffffed4H
  00240	84 00 00 00	 DD	 132			; 00000084H
  00244	00 00 00 00	 DD	 $L197465
$L197465:
  00248	70		 DB	 112			; 00000070H
  00249	73		 DB	 115			; 00000073H
  0024a	7a		 DB	 122			; 0000007aH
  0024b	4e		 DB	 78			; 0000004eH
  0024c	61		 DB	 97			; 00000061H
  0024d	6d		 DB	 109			; 0000006dH
  0024e	65		 DB	 101			; 00000065H
  0024f	41		 DB	 65			; 00000041H
  00250	00		 DB	 0
$L197464:
  00251	70		 DB	 112			; 00000070H
  00252	73		 DB	 115			; 00000073H
  00253	7a		 DB	 122			; 0000007aH
  00254	42		 DB	 66			; 00000042H
  00255	75		 DB	 117			; 00000075H
  00256	66		 DB	 102			; 00000066H
  00257	66		 DB	 102			; 00000066H
  00258	65		 DB	 101			; 00000065H
  00259	72		 DB	 114			; 00000072H
  0025a	41		 DB	 65			; 00000041H
  0025b	00		 DB	 0
_TEXT	ENDS
;	COMDAT text$x
text$x	SEGMENT
$L197460:
  00000	8d 8d 60 ff ff
	ff		 lea	 ecx, DWORD PTR _pszBufferA$[ebp]
  00006	e9 00 00 00 00	 jmp	 ??1?$CTempBuffer@D$0IA@VCCRTAllocator@ATL@@@ATL@@QAE@XZ ; ATL::CTempBuffer<char,128,ATL::CCRTAllocator>::~CTempBuffer<char,128,ATL::CCRTAllocator>
$L197461:
  0000b	8d 8d d4 fe ff
	ff		 lea	 ecx, DWORD PTR _pszNameA$[ebp]
  00011	e9 00 00 00 00	 jmp	 ??1?$CW2AEX@$0IA@@ATL@@QAE@XZ ; ATL::CW2AEX<128>::~CW2AEX<128>
__ehhandler$?GetEnvironmentVariableWFake@ATL@@YGKPB_WPA_WK@Z:
  00016	b8 00 00 00 00	 mov	 eax, OFFSET FLAT:$T197463
  0001b	e9 00 00 00 00	 jmp	 ___CxxFrameHandler
text$x	ENDS
?GetEnvironmentVariableWFake@ATL@@YGKPB_WPA_WK@Z ENDP	; ATL::GetEnvironmentVariableWFake
; Function compile flags: /Odt /RTCsu
; File d:\program files (x86)\microsoft visual studio .net 2003\vc7\atlmfc\include\atlconv.h
;	COMDAT ?_AtlGetConversionACP@ATL@@YGIXZ
_TEXT	SEGMENT
?_AtlGetConversionACP@ATL@@YGIXZ PROC NEAR		; ATL::_AtlGetConversionACP, COMDAT

; 157  : {

  00000	55		 push	 ebp
  00001	8b ec		 mov	 ebp, esp
  00003	56		 push	 esi

; 158  : 	return( g_pfnGetThreadACP() );

  00004	8b f4		 mov	 esi, esp
  00006	ff 15 00 00 00
	00		 call	 DWORD PTR ?g_pfnGetThreadACP@ATL@@3P6GIXZA ; ATL::g_pfnGetThreadACP
  0000c	3b f4		 cmp	 esi, esp
  0000e	e8 00 00 00 00	 call	 __RTC_CheckEsp

; 159  : }

  00013	5e		 pop	 esi
  00014	3b ec		 cmp	 ebp, esp
  00016	e8 00 00 00 00	 call	 __RTC_CheckEsp
  0001b	5d		 pop	 ebp
  0001c	c3		 ret	 0
?_AtlGetConversionACP@ATL@@YGIXZ ENDP			; ATL::_AtlGetConversionACP
_TEXT	ENDS
PUBLIC	?CompareStringWFake@ATL@@YGHKKPB_WH0H@Z		; ATL::CompareStringWFake
EXTRN	__imp__CompareStringW@24:NEAR
; Function compile flags: /Odt /RTCsu
; File d:\program files (x86)\microsoft visual studio .net 2003\vc7\atlmfc\include\cstringt.h
;	COMDAT ?CompareStringWThunk@ATL@@YGHKKPB_WH0H@Z
_TEXT	SEGMENT
_lcid$ = 8						; size = 4
_dwFlags$ = 12						; size = 4
_pszString1$ = 16					; size = 4
_nLength1$ = 20						; size = 4
_pszString2$ = 24					; size = 4
_nLength2$ = 28						; size = 4
?CompareStringWThunk@ATL@@YGHKKPB_WH0H@Z PROC NEAR	; ATL::CompareStringWThunk, COMDAT

; 216  : {

  00000	55		 push	 ebp
  00001	8b ec		 mov	 ebp, esp
  00003	56		 push	 esi

; 217  : 	_AtlInstallStringThunk(reinterpret_cast<void**>(&_strthunks.pfnCompareStringW), CompareStringWFake, ::CompareStringW);

  00004	a1 00 00 00 00	 mov	 eax, DWORD PTR __imp__CompareStringW@24
  00009	50		 push	 eax
  0000a	68 00 00 00 00	 push	 OFFSET FLAT:?CompareStringWFake@ATL@@YGHKKPB_WH0H@Z ; ATL::CompareStringWFake
  0000f	68 00 00 00 00	 push	 OFFSET FLAT:?_strthunks@ATL@@3U_AtlStringThunks@1@A ; ATL::_strthunks
  00014	e8 00 00 00 00	 call	 ?_AtlInstallStringThunk@ATL@@YAXPAPAXPAX1@Z ; ATL::_AtlInstallStringThunk
  00019	83 c4 0c	 add	 esp, 12			; 0000000cH

; 218  : 
; 219  : 	return _strthunks.pfnCompareStringW(lcid, dwFlags, pszString1, nLength1, pszString2, nLength2);

  0001c	8b f4		 mov	 esi, esp
  0001e	8b 4d 1c	 mov	 ecx, DWORD PTR _nLength2$[ebp]
  00021	51		 push	 ecx
  00022	8b 55 18	 mov	 edx, DWORD PTR _pszString2$[ebp]
  00025	52		 push	 edx
  00026	8b 45 14	 mov	 eax, DWORD PTR _nLength1$[ebp]
  00029	50		 push	 eax
  0002a	8b 4d 10	 mov	 ecx, DWORD PTR _pszString1$[ebp]
  0002d	51		 push	 ecx
  0002e	8b 55 0c	 mov	 edx, DWORD PTR _dwFlags$[ebp]
  00031	52		 push	 edx
  00032	8b 45 08	 mov	 eax, DWORD PTR _lcid$[ebp]
  00035	50		 push	 eax
  00036	ff 15 00 00 00
	00		 call	 DWORD PTR ?_strthunks@ATL@@3U_AtlStringThunks@1@A
  0003c	3b f4		 cmp	 esi, esp
  0003e	e8 00 00 00 00	 call	 __RTC_CheckEsp

; 220  : }

  00043	5e		 pop	 esi
  00044	3b ec		 cmp	 ebp, esp
  00046	e8 00 00 00 00	 call	 __RTC_CheckEsp
  0004b	5d		 pop	 ebp
  0004c	c2 18 00	 ret	 24			; 00000018H
?CompareStringWThunk@ATL@@YGHKKPB_WH0H@Z ENDP		; ATL::CompareStringWThunk
_TEXT	ENDS
PUBLIC	?_AtlVerifyStackAvailable@_ATL_SAFE_ALLOCA_IMPL@ATL@@YA_NK@Z ; ATL::_ATL_SAFE_ALLOCA_IMPL::_AtlVerifyStackAvailable
PUBLIC	?AtlThrow@ATL@@YGXJ@Z				; ATL::AtlThrow
PUBLIC	?AtlW2AHelper@@YGPADPADPB_WHI@Z			; AtlW2AHelper
PUBLIC	??0?$CAtlSafeAllocBufferManager@VCCRTAllocator@ATL@@@_ATL_SAFE_ALLOCA_IMPL@ATL@@QAE@XZ ; ATL::_ATL_SAFE_ALLOCA_IMPL::CAtlSafeAllocBufferManager<ATL::CCRTAllocator>::CAtlSafeAllocBufferManager<ATL::CCRTAllocator>
PUBLIC	?Allocate@?$CAtlSafeAllocBufferManager@VCCRTAllocator@ATL@@@_ATL_SAFE_ALLOCA_IMPL@ATL@@QAEPAXK@Z ; ATL::_ATL_SAFE_ALLOCA_IMPL::CAtlSafeAllocBufferManager<ATL::CCRTAllocator>::Allocate
PUBLIC	??1?$CAtlSafeAllocBufferManager@VCCRTAllocator@ATL@@@_ATL_SAFE_ALLOCA_IMPL@ATL@@QAE@XZ ; ATL::_ATL_SAFE_ALLOCA_IMPL::CAtlSafeAllocBufferManager<ATL::CCRTAllocator>::~CAtlSafeAllocBufferManager<ATL::CCRTAllocator>
EXTRN	__imp__lstrlenW@4:NEAR
EXTRN	__imp__CompareStringA@24:NEAR
EXTRN	__alloca_probe:NEAR
;	COMDAT xdata$x
xdata$x	SEGMENT
$T197493 DD	0ffffffffH
	DD	FLAT:$L197485
$T197487 DD	019930520H
	DD	01H
	DD	FLAT:$T197493
	DD	2 DUP(00H)
	DD	2 DUP(00H)
; Function compile flags: /Odt /RTCsu
xdata$x	ENDS
;	COMDAT ?CompareStringWFake@ATL@@YGHKKPB_WH0H@Z
_TEXT	SEGMENT
tv147 = -76						; size = 4
tv142 = -72						; size = 4
tv149 = -68						; size = 4
tv89 = -64						; size = 4
tv84 = -60						; size = 4
tv91 = -56						; size = 4
$T197484 = -52						; size = 4
_pszAString2$ = -48					; size = 4
_pszAString1$ = -44					; size = 4
__AtlSafeAllocaManager$ = -36				; size = 4
__lpa_ex$ = -28						; size = 4
__lpw_ex$ = -24						; size = 4
__acp_ex$ = -20						; size = 4
__convert_ex$ = -16					; size = 4
__$EHRec$ = -12						; size = 12
_lcid$ = 8						; size = 4
_dwFlags$ = 12						; size = 4
_pszString1$ = 16					; size = 4
_nLength1$ = 20						; size = 4
_pszString2$ = 24					; size = 4
_nLength2$ = 28						; size = 4
?CompareStringWFake@ATL@@YGHKKPB_WH0H@Z PROC NEAR	; ATL::CompareStringWFake, COMDAT

; 192  : {

  00000	55		 push	 ebp
  00001	8b ec		 mov	 ebp, esp
  00003	6a ff		 push	 -1
  00005	68 00 00 00 00	 push	 __ehhandler$?CompareStringWFake@ATL@@YGHKKPB_WH0H@Z
  0000a	64 a1 00 00 00
	00		 mov	 eax, DWORD PTR fs:__except_list
  00010	50		 push	 eax
  00011	64 89 25 00 00
	00 00		 mov	 DWORD PTR fs:__except_list, esp
  00018	83 ec 40	 sub	 esp, 64			; 00000040H
  0001b	56		 push	 esi
  0001c	57		 push	 edi
  0001d	8d 7d b4	 lea	 edi, DWORD PTR [ebp-76]
  00020	b9 10 00 00 00	 mov	 ecx, 16			; 00000010H
  00025	b8 cc cc cc cc	 mov	 eax, -858993460		; ccccccccH
  0002a	f3 ab		 rep stosd

; 193  : 	USES_CONVERSION_EX;

  0002c	c7 45 f0 00 00
	00 00		 mov	 DWORD PTR __convert_ex$[ebp], 0
  00033	e8 00 00 00 00	 call	 ?_AtlGetConversionACP@ATL@@YGIXZ ; ATL::_AtlGetConversionACP
  00038	89 45 ec	 mov	 DWORD PTR __acp_ex$[ebp], eax
  0003b	c7 45 e8 00 00
	00 00		 mov	 DWORD PTR __lpw_ex$[ebp], 0
  00042	c7 45 e4 00 00
	00 00		 mov	 DWORD PTR __lpa_ex$[ebp], 0
  00049	8d 4d dc	 lea	 ecx, DWORD PTR __AtlSafeAllocaManager$[ebp]
  0004c	e8 00 00 00 00	 call	 ??0?$CAtlSafeAllocBufferManager@VCCRTAllocator@ATL@@@_ATL_SAFE_ALLOCA_IMPL@ATL@@QAE@XZ ; ATL::_ATL_SAFE_ALLOCA_IMPL::CAtlSafeAllocBufferManager<ATL::CCRTAllocator>::CAtlSafeAllocBufferManager<ATL::CCRTAllocator>
  00051	c7 45 fc 00 00
	00 00		 mov	 DWORD PTR __$EHRec$[ebp+8], 0

; 194  : 	
; 195  : 	LPCSTR pszAString1 = NULL;

  00058	c7 45 d4 00 00
	00 00		 mov	 DWORD PTR _pszAString1$[ebp], 0

; 196  : 	if(pszString1 != NULL)

  0005f	83 7d 10 00	 cmp	 DWORD PTR _pszString1$[ebp], 0
  00063	0f 84 a1 00 00
	00		 je	 $L26349

; 197  : 	{
; 198  : 		pszAString1 = W2A_EX(pszString1,_ATL_SAFE_ALLOCA_DEF_THRESHOLD);

  00069	8b 45 10	 mov	 eax, DWORD PTR _pszString1$[ebp]
  0006c	89 45 e8	 mov	 DWORD PTR __lpw_ex$[ebp], eax
  0006f	83 7d e8 00	 cmp	 DWORD PTR __lpw_ex$[ebp], 0
  00073	75 09		 jne	 SHORT $L197478
  00075	c7 45 c8 00 00
	00 00		 mov	 DWORD PTR tv91[ebp], 0
  0007c	eb 76		 jmp	 SHORT $L197479
$L197478:
  0007e	8b f4		 mov	 esi, esp
  00080	8b 4d e8	 mov	 ecx, DWORD PTR __lpw_ex$[ebp]
  00083	51		 push	 ecx
  00084	ff 15 00 00 00
	00		 call	 DWORD PTR __imp__lstrlenW@4
  0008a	3b f4		 cmp	 esi, esp
  0008c	e8 00 00 00 00	 call	 __RTC_CheckEsp
  00091	8d 54 00 02	 lea	 edx, DWORD PTR [eax+eax+2]
  00095	89 55 f0	 mov	 DWORD PTR __convert_ex$[ebp], edx
  00098	81 7d f0 00 04
	00 00		 cmp	 DWORD PTR __convert_ex$[ebp], 1024 ; 00000400H
  0009f	7f 2c		 jg	 SHORT $L197476
  000a1	8b 45 f0	 mov	 eax, DWORD PTR __convert_ex$[ebp]
  000a4	50		 push	 eax
  000a5	e8 00 00 00 00	 call	 ?_AtlVerifyStackAvailable@_ATL_SAFE_ALLOCA_IMPL@ATL@@YA_NK@Z ; ATL::_ATL_SAFE_ALLOCA_IMPL::_AtlVerifyStackAvailable
  000aa	83 c4 04	 add	 esp, 4
  000ad	0f b6 c8	 movzx	 ecx, al
  000b0	85 c9		 test	 ecx, ecx
  000b2	74 19		 je	 SHORT $L197476
  000b4	8b 45 f0	 mov	 eax, DWORD PTR __convert_ex$[ebp]
  000b7	83 c0 03	 add	 eax, 3
  000ba	83 e0 fc	 and	 eax, -4			; fffffffcH
  000bd	e8 00 00 00 00	 call	 __alloca_probe
  000c2	89 65 c4	 mov	 DWORD PTR tv84[ebp], esp
  000c5	8b 55 c4	 mov	 edx, DWORD PTR tv84[ebp]
  000c8	89 55 c0	 mov	 DWORD PTR tv89[ebp], edx
  000cb	eb 0f		 jmp	 SHORT $L197477
$L197476:
  000cd	8b 45 f0	 mov	 eax, DWORD PTR __convert_ex$[ebp]
  000d0	50		 push	 eax
  000d1	8d 4d dc	 lea	 ecx, DWORD PTR __AtlSafeAllocaManager$[ebp]
  000d4	e8 00 00 00 00	 call	 ?Allocate@?$CAtlSafeAllocBufferManager@VCCRTAllocator@ATL@@@_ATL_SAFE_ALLOCA_IMPL@ATL@@QAEPAXK@Z ; ATL::_ATL_SAFE_ALLOCA_IMPL::CAtlSafeAllocBufferManager<ATL::CCRTAllocator>::Allocate
  000d9	89 45 c0	 mov	 DWORD PTR tv89[ebp], eax
$L197477:
  000dc	8b 4d ec	 mov	 ecx, DWORD PTR __acp_ex$[ebp]
  000df	51		 push	 ecx
  000e0	8b 55 f0	 mov	 edx, DWORD PTR __convert_ex$[ebp]
  000e3	52		 push	 edx
  000e4	8b 45 e8	 mov	 eax, DWORD PTR __lpw_ex$[ebp]
  000e7	50		 push	 eax
  000e8	8b 4d c0	 mov	 ecx, DWORD PTR tv89[ebp]
  000eb	51		 push	 ecx
  000ec	e8 00 00 00 00	 call	 ?AtlW2AHelper@@YGPADPADPB_WHI@Z ; AtlW2AHelper
  000f1	89 45 c8	 mov	 DWORD PTR tv91[ebp], eax
$L197479:
  000f4	8b 55 c8	 mov	 edx, DWORD PTR tv91[ebp]
  000f7	89 55 d4	 mov	 DWORD PTR _pszAString1$[ebp], edx

; 199  : 		if(pszAString1 == NULL)

  000fa	83 7d d4 00	 cmp	 DWORD PTR _pszAString1$[ebp], 0
  000fe	75 0a		 jne	 SHORT $L26349

; 200  : 			AtlThrow(E_OUTOFMEMORY);

  00100	68 0e 00 07 80	 push	 -2147024882		; 8007000eH
  00105	e8 00 00 00 00	 call	 ?AtlThrow@ATL@@YGXJ@Z	; ATL::AtlThrow
$L26349:

; 201  : 	}
; 202  : 
; 203  : 	LPCSTR pszAString2 = NULL;

  0010a	c7 45 d0 00 00
	00 00		 mov	 DWORD PTR _pszAString2$[ebp], 0

; 204  : 	if(pszString2 != NULL)

  00111	83 7d 18 00	 cmp	 DWORD PTR _pszString2$[ebp], 0
  00115	0f 84 a1 00 00
	00		 je	 $L26355

; 205  : 	{
; 206  : 		pszAString2 = W2A_EX(pszString2,_ATL_SAFE_ALLOCA_DEF_THRESHOLD);

  0011b	8b 45 18	 mov	 eax, DWORD PTR _pszString2$[ebp]
  0011e	89 45 e8	 mov	 DWORD PTR __lpw_ex$[ebp], eax
  00121	83 7d e8 00	 cmp	 DWORD PTR __lpw_ex$[ebp], 0
  00125	75 09		 jne	 SHORT $L197482
  00127	c7 45 bc 00 00
	00 00		 mov	 DWORD PTR tv149[ebp], 0
  0012e	eb 76		 jmp	 SHORT $L197483
$L197482:
  00130	8b f4		 mov	 esi, esp
  00132	8b 4d e8	 mov	 ecx, DWORD PTR __lpw_ex$[ebp]
  00135	51		 push	 ecx
  00136	ff 15 00 00 00
	00		 call	 DWORD PTR __imp__lstrlenW@4
  0013c	3b f4		 cmp	 esi, esp
  0013e	e8 00 00 00 00	 call	 __RTC_CheckEsp
  00143	8d 54 00 02	 lea	 edx, DWORD PTR [eax+eax+2]
  00147	89 55 f0	 mov	 DWORD PTR __convert_ex$[ebp], edx
  0014a	81 7d f0 00 04
	00 00		 cmp	 DWORD PTR __convert_ex$[ebp], 1024 ; 00000400H
  00151	7f 2c		 jg	 SHORT $L197480
  00153	8b 45 f0	 mov	 eax, DWORD PTR __convert_ex$[ebp]
  00156	50		 push	 eax
  00157	e8 00 00 00 00	 call	 ?_AtlVerifyStackAvailable@_ATL_SAFE_ALLOCA_IMPL@ATL@@YA_NK@Z ; ATL::_ATL_SAFE_ALLOCA_IMPL::_AtlVerifyStackAvailable
  0015c	83 c4 04	 add	 esp, 4
  0015f	0f b6 c8	 movzx	 ecx, al
  00162	85 c9		 test	 ecx, ecx
  00164	74 19		 je	 SHORT $L197480
  00166	8b 45 f0	 mov	 eax, DWORD PTR __convert_ex$[ebp]
  00169	83 c0 03	 add	 eax, 3
  0016c	83 e0 fc	 and	 eax, -4			; fffffffcH
  0016f	e8 00 00 00 00	 call	 __alloca_probe
  00174	89 65 b8	 mov	 DWORD PTR tv142[ebp], esp
  00177	8b 55 b8	 mov	 edx, DWORD PTR tv142[ebp]
  0017a	89 55 b4	 mov	 DWORD PTR tv147[ebp], edx
  0017d	eb 0f		 jmp	 SHORT $L197481
$L197480:
  0017f	8b 45 f0	 mov	 eax, DWORD PTR __convert_ex$[ebp]
  00182	50		 push	 eax
  00183	8d 4d dc	 lea	 ecx, DWORD PTR __AtlSafeAllocaManager$[ebp]
  00186	e8 00 00 00 00	 call	 ?Allocate@?$CAtlSafeAllocBufferManager@VCCRTAllocator@ATL@@@_ATL_SAFE_ALLOCA_IMPL@ATL@@QAEPAXK@Z ; ATL::_ATL_SAFE_ALLOCA_IMPL::CAtlSafeAllocBufferManager<ATL::CCRTAllocator>::Allocate
  0018b	89 45 b4	 mov	 DWORD PTR tv147[ebp], eax
$L197481:
  0018e	8b 4d ec	 mov	 ecx, DWORD PTR __acp_ex$[ebp]
  00191	51		 push	 ecx
  00192	8b 55 f0	 mov	 edx, DWORD PTR __convert_ex$[ebp]
  00195	52		 push	 edx
  00196	8b 45 e8	 mov	 eax, DWORD PTR __lpw_ex$[ebp]
  00199	50		 push	 eax
  0019a	8b 4d b4	 mov	 ecx, DWORD PTR tv147[ebp]
  0019d	51		 push	 ecx
  0019e	e8 00 00 00 00	 call	 ?AtlW2AHelper@@YGPADPADPB_WHI@Z ; AtlW2AHelper
  001a3	89 45 bc	 mov	 DWORD PTR tv149[ebp], eax
$L197483:
  001a6	8b 55 bc	 mov	 edx, DWORD PTR tv149[ebp]
  001a9	89 55 d0	 mov	 DWORD PTR _pszAString2$[ebp], edx

; 207  : 		if(pszAString2 == NULL)

  001ac	83 7d d0 00	 cmp	 DWORD PTR _pszAString2$[ebp], 0
  001b0	75 0a		 jne	 SHORT $L26355

; 208  : 			AtlThrow(E_OUTOFMEMORY);

  001b2	68 0e 00 07 80	 push	 -2147024882		; 8007000eH
  001b7	e8 00 00 00 00	 call	 ?AtlThrow@ATL@@YGXJ@Z	; ATL::AtlThrow
$L26355:

; 209  : 	}
; 210  : 
; 211  : 	return ::CompareStringA(lcid, dwFlags, pszAString1, nLength1, pszAString2, nLength2);

  001bc	8b f4		 mov	 esi, esp
  001be	8b 45 1c	 mov	 eax, DWORD PTR _nLength2$[ebp]
  001c1	50		 push	 eax
  001c2	8b 4d d0	 mov	 ecx, DWORD PTR _pszAString2$[ebp]
  001c5	51		 push	 ecx
  001c6	8b 55 14	 mov	 edx, DWORD PTR _nLength1$[ebp]
  001c9	52		 push	 edx
  001ca	8b 45 d4	 mov	 eax, DWORD PTR _pszAString1$[ebp]
  001cd	50		 push	 eax
  001ce	8b 4d 0c	 mov	 ecx, DWORD PTR _dwFlags$[ebp]
  001d1	51		 push	 ecx
  001d2	8b 55 08	 mov	 edx, DWORD PTR _lcid$[ebp]
  001d5	52		 push	 edx
  001d6	ff 15 00 00 00
	00		 call	 DWORD PTR __imp__CompareStringA@24
  001dc	3b f4		 cmp	 esi, esp
  001de	e8 00 00 00 00	 call	 __RTC_CheckEsp
  001e3	89 45 cc	 mov	 DWORD PTR $T197484[ebp], eax
  001e6	c7 45 fc ff ff
	ff ff		 mov	 DWORD PTR __$EHRec$[ebp+8], -1
  001ed	8d 4d dc	 lea	 ecx, DWORD PTR __AtlSafeAllocaManager$[ebp]
  001f0	e8 00 00 00 00	 call	 ??1?$CAtlSafeAllocBufferManager@VCCRTAllocator@ATL@@@_ATL_SAFE_ALLOCA_IMPL@ATL@@QAE@XZ ; ATL::_ATL_SAFE_ALLOCA_IMPL::CAtlSafeAllocBufferManager<ATL::CCRTAllocator>::~CAtlSafeAllocBufferManager<ATL::CCRTAllocator>
  001f5	8b 45 cc	 mov	 eax, DWORD PTR $T197484[ebp]
$L197475:

; 212  : }

  001f8	8d 65 ac	 lea	 esp, DWORD PTR [ebp-84]
  001fb	52		 push	 edx
  001fc	8b cd		 mov	 ecx, ebp
  001fe	50		 push	 eax
  001ff	8d 15 00 00 00
	00		 lea	 edx, DWORD PTR $L197492
  00205	e8 00 00 00 00	 call	 @_RTC_CheckStackVars@8
  0020a	58		 pop	 eax
  0020b	5a		 pop	 edx
  0020c	8b 4d f4	 mov	 ecx, DWORD PTR __$EHRec$[ebp]
  0020f	64 89 0d 00 00
	00 00		 mov	 DWORD PTR fs:__except_list, ecx
  00216	5f		 pop	 edi
  00217	5e		 pop	 esi
  00218	8b e5		 mov	 esp, ebp
  0021a	5d		 pop	 ebp
  0021b	c2 18 00	 ret	 24			; 00000018H
$L197492:
  0021e	01 00 00 00	 DD	 1
  00222	00 00 00 00	 DD	 $L197491
$L197491:
  00226	dc ff ff ff	 DD	 -36			; ffffffdcH
  0022a	04 00 00 00	 DD	 4
  0022e	00 00 00 00	 DD	 $L197489
$L197489:
  00232	5f		 DB	 95			; 0000005fH
  00233	41		 DB	 65			; 00000041H
  00234	74		 DB	 116			; 00000074H
  00235	6c		 DB	 108			; 0000006cH
  00236	53		 DB	 83			; 00000053H
  00237	61		 DB	 97			; 00000061H
  00238	66		 DB	 102			; 00000066H
  00239	65		 DB	 101			; 00000065H
  0023a	41		 DB	 65			; 00000041H
  0023b	6c		 DB	 108			; 0000006cH
  0023c	6c		 DB	 108			; 0000006cH
  0023d	6f		 DB	 111			; 0000006fH
  0023e	63		 DB	 99			; 00000063H
  0023f	61		 DB	 97			; 00000061H
  00240	4d		 DB	 77			; 0000004dH
  00241	61		 DB	 97			; 00000061H
  00242	6e		 DB	 110			; 0000006eH
  00243	61		 DB	 97			; 00000061H
  00244	67		 DB	 103			; 00000067H
  00245	65		 DB	 101			; 00000065H
  00246	72		 DB	 114			; 00000072H
  00247	00		 DB	 0
_TEXT	ENDS
;	COMDAT text$x
text$x	SEGMENT
$L197485:
  00000	8d 4d dc	 lea	 ecx, DWORD PTR __AtlSafeAllocaManager$[ebp]
  00003	e9 00 00 00 00	 jmp	 ??1?$CAtlSafeAllocBufferManager@VCCRTAllocator@ATL@@@_ATL_SAFE_ALLOCA_IMPL@ATL@@QAE@XZ ; ATL::_ATL_SAFE_ALLOCA_IMPL::CAtlSafeAllocBufferManager<ATL::CCRTAllocator>::~CAtlSafeAllocBufferManager<ATL::CCRTAllocator>
__ehhandler$?CompareStringWFake@ATL@@YGHKKPB_WH0H@Z:
  00008	b8 00 00 00 00	 mov	 eax, OFFSET FLAT:$T197487
  0000d	e9 00 00 00 00	 jmp	 ___CxxFrameHandler
text$x	ENDS
?CompareStringWFake@ATL@@YGHKKPB_WH0H@Z ENDP		; ATL::CompareStringWFake
EXTRN	__imp___resetstkoflw:NEAR
EXTRN	__except_handler3:NEAR
;	COMDAT CONST
; File d:\program files (x86)\microsoft visual studio .net 2003\vc7\atlmfc\include\atlalloc.h
CONST	SEGMENT
$T197503 DD	0ffffffffH
	DD	FLAT:$L197498
	DD	FLAT:$L197499
; Function compile flags: /Odt /RTCsu
CONST	ENDS
;	COMDAT ?_AtlVerifyStackAvailable@_ATL_SAFE_ALLOCA_IMPL@ATL@@YA_NK@Z
_TEXT	SEGMENT
tv65 = -48						; size = 4
$T197502 = -44						; size = 4
_p$24107 = -36						; size = 4
_bStackAvailable$ = -25					; size = 1
__$SEHRec$ = -24					; size = 24
_Size$ = 8						; size = 4
?_AtlVerifyStackAvailable@_ATL_SAFE_ALLOCA_IMPL@ATL@@YA_NK@Z PROC NEAR ; ATL::_ATL_SAFE_ALLOCA_IMPL::_AtlVerifyStackAvailable, COMDAT

; 331  : {

  00000	55		 push	 ebp
  00001	8b ec		 mov	 ebp, esp
  00003	6a ff		 push	 -1
  00005	68 00 00 00 00	 push	 OFFSET FLAT:$T197503
  0000a	68 00 00 00 00	 push	 OFFSET FLAT:__except_handler3
  0000f	64 a1 00 00 00
	00		 mov	 eax, DWORD PTR fs:__except_list
  00015	50		 push	 eax
  00016	64 89 25 00 00
	00 00		 mov	 DWORD PTR fs:__except_list, esp
  0001d	83 c4 e0	 add	 esp, -32		; ffffffe0H
  00020	53		 push	 ebx
  00021	56		 push	 esi
  00022	57		 push	 edi
  00023	b8 cc cc cc cc	 mov	 eax, -858993460		; ccccccccH
  00028	89 45 d0	 mov	 DWORD PTR [ebp-48], eax
  0002b	89 45 d4	 mov	 DWORD PTR [ebp-44], eax
  0002e	89 45 d8	 mov	 DWORD PTR [ebp-40], eax
  00031	89 45 dc	 mov	 DWORD PTR [ebp-36], eax
  00034	89 45 e0	 mov	 DWORD PTR [ebp-32], eax
  00037	89 45 e4	 mov	 DWORD PTR [ebp-28], eax
  0003a	89 65 e8	 mov	 DWORD PTR __$SEHRec$[ebp], esp

; 332  :     bool bStackAvailable = true;

  0003d	c6 45 e7 01	 mov	 BYTE PTR _bStackAvailable$[ebp], 1

; 333  : 
; 334  :     __try

  00041	c7 45 fc 00 00
	00 00		 mov	 DWORD PTR __$SEHRec$[ebp+20], 0

; 335  :     {
; 336  :         PVOID p = _alloca(Size + _ATL_STACK_MARGIN);

  00048	8b 45 08	 mov	 eax, DWORD PTR _Size$[ebp]
  0004b	05 03 20 00 00	 add	 eax, 8195		; 00002003H
  00050	83 e0 fc	 and	 eax, -4			; fffffffcH
  00053	e8 00 00 00 00	 call	 __alloca_probe
  00058	89 65 d0	 mov	 DWORD PTR tv65[ebp], esp
  0005b	89 65 e8	 mov	 DWORD PTR __$SEHRec$[ebp], esp
  0005e	8b 45 d0	 mov	 eax, DWORD PTR tv65[ebp]
  00061	89 45 dc	 mov	 DWORD PTR _p$24107[ebp], eax
  00064	c7 45 fc ff ff
	ff ff		 mov	 DWORD PTR __$SEHRec$[ebp+20], -1
  0006b	eb 35		 jmp	 SHORT $L197501
$L197498:

; 337  :         (p);
; 338  :     }
; 339  :     __except ((EXCEPTION_STACK_OVERFLOW == GetExceptionCode()) ?
; 340  :                    EXCEPTION_EXECUTE_HANDLER :
; 341  :                    EXCEPTION_CONTINUE_SEARCH)

  0006d	8b 4d ec	 mov	 ecx, DWORD PTR __$SEHRec$[ebp+4]
  00070	8b 11		 mov	 edx, DWORD PTR [ecx]
  00072	8b 02		 mov	 eax, DWORD PTR [edx]
  00074	89 45 d4	 mov	 DWORD PTR $T197502[ebp], eax
  00077	8b 45 d4	 mov	 eax, DWORD PTR $T197502[ebp]
  0007a	2d fd 00 00 c0	 sub	 eax, -1073741571	; c00000fdH
  0007f	f7 d8		 neg	 eax
  00081	1b c0		 sbb	 eax, eax
  00083	40		 inc	 eax
$L197500:
  00084	c3		 ret	 0
$L197499:
  00085	8b 65 e8	 mov	 esp, DWORD PTR __$SEHRec$[ebp]

; 342  :     {
; 343  :         bStackAvailable = false;

  00088	c6 45 e7 00	 mov	 BYTE PTR _bStackAvailable$[ebp], 0

; 344  :         _resetstkoflw();

  0008c	8b f4		 mov	 esi, esp
  0008e	ff 15 00 00 00
	00		 call	 DWORD PTR __imp___resetstkoflw
  00094	3b f4		 cmp	 esi, esp
  00096	e8 00 00 00 00	 call	 __RTC_CheckEsp
  0009b	c7 45 fc ff ff
	ff ff		 mov	 DWORD PTR __$SEHRec$[ebp+20], -1
$L197501:

; 345  :     }
; 346  :     return bStackAvailable;

  000a2	8a 45 e7	 mov	 al, BYTE PTR _bStackAvailable$[ebp]
$L197497:

; 347  : }

  000a5	8d 65 c4	 lea	 esp, DWORD PTR [ebp-60]
  000a8	52		 push	 edx
  000a9	8b cd		 mov	 ecx, ebp
  000ab	50		 push	 eax
  000ac	8d 15 00 00 00
	00		 lea	 edx, DWORD PTR $L197508
  000b2	e8 00 00 00 00	 call	 @_RTC_CheckStackVars@8
  000b7	58		 pop	 eax
  000b8	5a		 pop	 edx
  000b9	8b 4d f0	 mov	 ecx, DWORD PTR __$SEHRec$[ebp+8]
  000bc	64 89 0d 00 00
	00 00		 mov	 DWORD PTR fs:__except_list, ecx
  000c3	5f		 pop	 edi
  000c4	5e		 pop	 esi
  000c5	5b		 pop	 ebx
  000c6	8b e5		 mov	 esp, ebp
  000c8	5d		 pop	 ebp
  000c9	c3		 ret	 0
$L197508:
  000ca	01 00 00 00	 DD	 1
  000ce	00 00 00 00	 DD	 $L197507
$L197507:
  000d2	dc ff ff ff	 DD	 -36			; ffffffdcH
  000d6	04 00 00 00	 DD	 4
  000da	00 00 00 00	 DD	 $L197505
$L197505:
  000de	70		 DB	 112			; 00000070H
  000df	00		 DB	 0
?_AtlVerifyStackAvailable@_ATL_SAFE_ALLOCA_IMPL@ATL@@YA_NK@Z ENDP ; ATL::_ATL_SAFE_ALLOCA_IMPL::_AtlVerifyStackAvailable
_TEXT	ENDS
PUBLIC	??_C@_08DMHHBMMN@lpa?5?$CB?$DN?50?$AA@		; `string'
PUBLIC	??_C@_0FG@PFHCBDBK@D?3?2Program?5Files?5?$CIx86?$CJ?2Microsoft@ ; `string'
PUBLIC	??_C@_08DIHJLFDJ@lpw?5?$CB?$DN?50?$AA@		; `string'
PUBLIC	??_C@_01GBGANLPD@0?$AA@				; `string'
EXTRN	__imp__WideCharToMultiByte@32:NEAR
;	COMDAT ??_C@_08DIHJLFDJ@lpw?5?$CB?$DN?50?$AA@
; File d:\program files (x86)\microsoft visual studio .net 2003\vc7\atlmfc\include\atlconv.h
CONST	SEGMENT
??_C@_08DIHJLFDJ@lpw?5?$CB?$DN?50?$AA@ DB 'lpw != 0', 00H ; `string'
CONST	ENDS
;	COMDAT ??_C@_0FG@PFHCBDBK@D?3?2Program?5Files?5?$CIx86?$CJ?2Microsoft@
CONST	SEGMENT
??_C@_0FG@PFHCBDBK@D?3?2Program?5Files?5?$CIx86?$CJ?2Microsoft@ DB 'D:\Pr'
	DB	'ogram Files (x86)\Microsoft Visual Studio .NET 2003\Vc7\atlmf'
	DB	'c\include\atlconv.h', 00H			; `string'
CONST	ENDS
;	COMDAT ??_C@_08DMHHBMMN@lpa?5?$CB?$DN?50?$AA@
CONST	SEGMENT
??_C@_08DMHHBMMN@lpa?5?$CB?$DN?50?$AA@ DB 'lpa != 0', 00H ; `string'
CONST	ENDS
;	COMDAT ??_C@_01GBGANLPD@0?$AA@
CONST	SEGMENT
??_C@_01GBGANLPD@0?$AA@ DB '0', 00H			; `string'
; Function compile flags: /Odt /RTCsu
CONST	ENDS
;	COMDAT ?AtlW2AHelper@@YGPADPADPB_WHI@Z
_TEXT	SEGMENT
_ret$ = -4						; size = 4
_lpa$ = 8						; size = 4
_lpw$ = 12						; size = 4
_nChars$ = 16						; size = 4
_acp$ = 20						; size = 4
?AtlW2AHelper@@YGPADPADPB_WHI@Z PROC NEAR		; AtlW2AHelper, COMDAT

; 573  : {

  00000	55		 push	 ebp
  00001	8b ec		 mov	 ebp, esp
  00003	51		 push	 ecx
  00004	56		 push	 esi
  00005	c7 45 fc cc cc
	cc cc		 mov	 DWORD PTR [ebp-4], -858993460 ; ccccccccH

; 574  : 	ATLASSERT(lpw != NULL);

  0000c	83 7d 0c 00	 cmp	 DWORD PTR _lpw$[ebp], 0
  00010	75 2b		 jne	 SHORT $L197512
  00012	8b f4		 mov	 esi, esp
  00014	68 00 00 00 00	 push	 OFFSET FLAT:??_C@_08DIHJLFDJ@lpw?5?$CB?$DN?50?$AA@
  00019	6a 00		 push	 0
  0001b	68 3e 02 00 00	 push	 574			; 0000023eH
  00020	68 00 00 00 00	 push	 OFFSET FLAT:??_C@_0FG@PFHCBDBK@D?3?2Program?5Files?5?$CIx86?$CJ?2Microsoft@
  00025	6a 02		 push	 2
  00027	ff 15 00 00 00
	00		 call	 DWORD PTR __imp___CrtDbgReport
  0002d	83 c4 14	 add	 esp, 20			; 00000014H
  00030	3b f4		 cmp	 esi, esp
  00032	e8 00 00 00 00	 call	 __RTC_CheckEsp
  00037	83 f8 01	 cmp	 eax, 1
  0003a	75 01		 jne	 SHORT $L197512
  0003c	cc		 int	 3
$L197512:

; 575  : 	ATLASSERT(lpa != NULL);

  0003d	83 7d 08 00	 cmp	 DWORD PTR _lpa$[ebp], 0
  00041	75 2b		 jne	 SHORT $L197513
  00043	8b f4		 mov	 esi, esp
  00045	68 00 00 00 00	 push	 OFFSET FLAT:??_C@_08DMHHBMMN@lpa?5?$CB?$DN?50?$AA@
  0004a	6a 00		 push	 0
  0004c	68 3f 02 00 00	 push	 575			; 0000023fH
  00051	68 00 00 00 00	 push	 OFFSET FLAT:??_C@_0FG@PFHCBDBK@D?3?2Program?5Files?5?$CIx86?$CJ?2Microsoft@
  00056	6a 02		 push	 2
  00058	ff 15 00 00 00
	00		 call	 DWORD PTR __imp___CrtDbgReport
  0005e	83 c4 14	 add	 esp, 20			; 00000014H
  00061	3b f4		 cmp	 esi, esp
  00063	e8 00 00 00 00	 call	 __RTC_CheckEsp
  00068	83 f8 01	 cmp	 eax, 1
  0006b	75 01		 jne	 SHORT $L197513
  0006d	cc		 int	 3
$L197513:

; 576  : 	if (lpa == NULL || lpw == NULL)

  0006e	83 7d 08 00	 cmp	 DWORD PTR _lpa$[ebp], 0
  00072	74 06		 je	 SHORT $L24313
  00074	83 7d 0c 00	 cmp	 DWORD PTR _lpw$[ebp], 0
  00078	75 04		 jne	 SHORT $L24312
$L24313:

; 577  : 		return NULL;

  0007a	33 c0		 xor	 eax, eax
  0007c	eb 6c		 jmp	 SHORT $L24309
$L24312:

; 578  : 	// verify that no illegal character present
; 579  : 	// since lpa was allocated based on the size of lpw
; 580  : 	// don't worry about the number of chars
; 581  : 	lpa[0] = '\0';

  0007e	8b 55 08	 mov	 edx, DWORD PTR _lpa$[ebp]
  00081	c6 02 00	 mov	 BYTE PTR [edx], 0

; 582  : 	int ret = WideCharToMultiByte(acp, 0, lpw, -1, lpa, nChars, NULL, NULL);

  00084	8b f4		 mov	 esi, esp
  00086	6a 00		 push	 0
  00088	6a 00		 push	 0
  0008a	8b 45 10	 mov	 eax, DWORD PTR _nChars$[ebp]
  0008d	50		 push	 eax
  0008e	8b 4d 08	 mov	 ecx, DWORD PTR _lpa$[ebp]
  00091	51		 push	 ecx
  00092	6a ff		 push	 -1
  00094	8b 55 0c	 mov	 edx, DWORD PTR _lpw$[ebp]
  00097	52		 push	 edx
  00098	6a 00		 push	 0
  0009a	8b 45 14	 mov	 eax, DWORD PTR _acp$[ebp]
  0009d	50		 push	 eax
  0009e	ff 15 00 00 00
	00		 call	 DWORD PTR __imp__WideCharToMultiByte@32
  000a4	3b f4		 cmp	 esi, esp
  000a6	e8 00 00 00 00	 call	 __RTC_CheckEsp
  000ab	89 45 fc	 mov	 DWORD PTR _ret$[ebp], eax

; 583  : 	if(ret == 0)

  000ae	83 7d fc 00	 cmp	 DWORD PTR _ret$[ebp], 0
  000b2	75 33		 jne	 SHORT $L24315

; 584  : 	{
; 585  : 		ATLASSERT(FALSE);

  000b4	33 c9		 xor	 ecx, ecx
  000b6	75 2b		 jne	 SHORT $L197514
  000b8	8b f4		 mov	 esi, esp
  000ba	68 00 00 00 00	 push	 OFFSET FLAT:??_C@_01GBGANLPD@0?$AA@
  000bf	6a 00		 push	 0
  000c1	68 49 02 00 00	 push	 585			; 00000249H
  000c6	68 00 00 00 00	 push	 OFFSET FLAT:??_C@_0FG@PFHCBDBK@D?3?2Program?5Files?5?$CIx86?$CJ?2Microsoft@
  000cb	6a 02		 push	 2
  000cd	ff 15 00 00 00
	00		 call	 DWORD PTR __imp___CrtDbgReport
  000d3	83 c4 14	 add	 esp, 20			; 00000014H
  000d6	3b f4		 cmp	 esi, esp
  000d8	e8 00 00 00 00	 call	 __RTC_CheckEsp
  000dd	83 f8 01	 cmp	 eax, 1
  000e0	75 01		 jne	 SHORT $L197514
  000e2	cc		 int	 3
$L197514:

; 586  : 		return NULL;

  000e3	33 c0		 xor	 eax, eax
  000e5	eb 03		 jmp	 SHORT $L24309
$L24315:

; 587  : 	}
; 588  : 	return lpa;

  000e7	8b 45 08	 mov	 eax, DWORD PTR _lpa$[ebp]
$L24309:

; 589  : }

  000ea	5e		 pop	 esi
  000eb	83 c4 04	 add	 esp, 4
  000ee	3b ec		 cmp	 ebp, esp
  000f0	e8 00 00 00 00	 call	 __RTC_CheckEsp
  000f5	8b e5		 mov	 esp, ebp
  000f7	5d		 pop	 ebp
  000f8	c2 10 00	 ret	 16			; 00000010H
?AtlW2AHelper@@YGPADPADPB_WHI@Z ENDP			; AtlW2AHelper
_TEXT	ENDS
PUBLIC	??BCTraceCategory@ATL@@QBEKXZ			; ATL::CTraceCategory::operator unsigned long
PUBLIC	??0CTraceFileAndLineInfo@ATL@@QAE@PBDH@Z	; ATL::CTraceFileAndLineInfo::CTraceFileAndLineInfo
PUBLIC	??RCTraceFileAndLineInfo@ATL@@QBAXKIPBDZZ	; ATL::CTraceFileAndLineInfo::operator()
PUBLIC	??_C@_0FI@NHHJANPC@D?3?2Program?5Files?5?$CIx86?$CJ?2Microsoft@ ; `string'
PUBLIC	??_C@_0BF@IAAKIJDJ@AtlThrow?3?5hr?5?$DN?50x?$CFx?6?$AA@ ; `string'
EXTRN	?atlTraceException@ATL@@3VCTraceCategory@1@A:DWORD ; ATL::atlTraceException
EXTRN	?AfxThrowMemoryException@@YGXXZ:NEAR		; AfxThrowMemoryException
EXTRN	?AfxThrowOleException@@YGXJ@Z:NEAR		; AfxThrowOleException
;	COMDAT ??_C@_0BF@IAAKIJDJ@AtlThrow?3?5hr?5?$DN?50x?$CFx?6?$AA@
; File d:\program files (x86)\microsoft visual studio .net 2003\vc7\atlmfc\include\atlexcept.h
CONST	SEGMENT
??_C@_0BF@IAAKIJDJ@AtlThrow?3?5hr?5?$DN?50x?$CFx?6?$AA@ DB 'AtlThrow: hr '
	DB	'= 0x%x', 0aH, 00H				; `string'
CONST	ENDS
;	COMDAT ??_C@_0FI@NHHJANPC@D?3?2Program?5Files?5?$CIx86?$CJ?2Microsoft@
CONST	SEGMENT
??_C@_0FI@NHHJANPC@D?3?2Program?5Files?5?$CIx86?$CJ?2Microsoft@ DB 'D:\Pr'
	DB	'ogram Files (x86)\Microsoft Visual Studio .NET 2003\Vc7\atlmf'
	DB	'c\include\atlexcept.h', 00H			; `string'
; Function compile flags: /Odt /RTCsu
CONST	ENDS
;	COMDAT ?AtlThrow@ATL@@YGXJ@Z
_TEXT	SEGMENT
$T197516 = -8						; size = 8
_hr$ = 8						; size = 4
?AtlThrow@ATL@@YGXJ@Z PROC NEAR				; ATL::AtlThrow, COMDAT

; 61   : {

  00000	55		 push	 ebp
  00001	8b ec		 mov	 ebp, esp
  00003	83 ec 08	 sub	 esp, 8
  00006	c7 45 f8 cc cc
	cc cc		 mov	 DWORD PTR [ebp-8], -858993460 ; ccccccccH
  0000d	c7 45 fc cc cc
	cc cc		 mov	 DWORD PTR [ebp-4], -858993460 ; ccccccccH

; 62   : 	ATLTRACE(atlTraceException, 0, _T("AtlThrow: hr = 0x%x\n"), hr );

  00014	8b 45 08	 mov	 eax, DWORD PTR _hr$[ebp]
  00017	50		 push	 eax
  00018	68 00 00 00 00	 push	 OFFSET FLAT:??_C@_0BF@IAAKIJDJ@AtlThrow?3?5hr?5?$DN?50x?$CFx?6?$AA@
  0001d	6a 00		 push	 0
  0001f	b9 00 00 00 00	 mov	 ecx, OFFSET FLAT:?atlTraceException@ATL@@3VCTraceCategory@1@A ; ATL::atlTraceException
  00024	e8 00 00 00 00	 call	 ??BCTraceCategory@ATL@@QBEKXZ ; ATL::CTraceCategory::operator unsigned long
  00029	50		 push	 eax
  0002a	6a 3e		 push	 62			; 0000003eH
  0002c	68 00 00 00 00	 push	 OFFSET FLAT:??_C@_0FI@NHHJANPC@D?3?2Program?5Files?5?$CIx86?$CJ?2Microsoft@
  00031	8d 4d f8	 lea	 ecx, DWORD PTR $T197516[ebp]
  00034	e8 00 00 00 00	 call	 ??0CTraceFileAndLineInfo@ATL@@QAE@PBDH@Z ; ATL::CTraceFileAndLineInfo::CTraceFileAndLineInfo
  00039	50		 push	 eax
  0003a	e8 00 00 00 00	 call	 ??RCTraceFileAndLineInfo@ATL@@QBAXKIPBDZZ ; ATL::CTraceFileAndLineInfo::operator()
  0003f	83 c4 14	 add	 esp, 20			; 00000014H

; 63   : #ifdef _AFX
; 64   : 	if( hr == E_OUTOFMEMORY )

  00042	81 7d 08 0e 00
	07 80		 cmp	 DWORD PTR _hr$[ebp], -2147024882 ; 8007000eH
  00049	75 05		 jne	 SHORT $L25222

; 65   : 	{
; 66   : 		AfxThrowMemoryException();

  0004b	e8 00 00 00 00	 call	 ?AfxThrowMemoryException@@YGXXZ ; AfxThrowMemoryException
$L25222:

; 67   : 	}
; 68   : 	else
; 69   : 	{
; 70   : 		AfxThrowOleException( hr );

  00050	8b 4d 08	 mov	 ecx, DWORD PTR _hr$[ebp]
  00053	51		 push	 ecx
  00054	e8 00 00 00 00	 call	 ?AfxThrowOleException@@YGXJ@Z ; AfxThrowOleException
$L197515:

; 71   : 	}
; 72   : #else
; 73   : 	throw CAtlException( hr );
; 74   : #endif
; 75   : };

  00059	83 c4 08	 add	 esp, 8
  0005c	3b ec		 cmp	 ebp, esp
  0005e	e8 00 00 00 00	 call	 __RTC_CheckEsp
  00063	8b e5		 mov	 esp, ebp
  00065	5d		 pop	 ebp
  00066	c2 04 00	 ret	 4
?AtlThrow@ATL@@YGXJ@Z ENDP				; ATL::AtlThrow
; Function compile flags: /Odt /RTCsu
; File d:\program files (x86)\microsoft visual studio .net 2003\vc7\atlmfc\include\atltrace.h
_TEXT	ENDS
;	COMDAT ??0CTraceFileAndLineInfo@ATL@@QAE@PBDH@Z
_TEXT	SEGMENT
_this$ = -4						; size = 4
_pszFileName$ = 8					; size = 4
_nLineNo$ = 12						; size = 4
??0CTraceFileAndLineInfo@ATL@@QAE@PBDH@Z PROC NEAR	; ATL::CTraceFileAndLineInfo::CTraceFileAndLineInfo, COMDAT
; _this$ = ecx

; 158  : 	{}

  00000	55		 push	 ebp
  00001	8b ec		 mov	 ebp, esp
  00003	51		 push	 ecx
  00004	c7 45 fc cc cc
	cc cc		 mov	 DWORD PTR [ebp-4], -858993460 ; ccccccccH
  0000b	89 4d fc	 mov	 DWORD PTR _this$[ebp], ecx
  0000e	8b 45 fc	 mov	 eax, DWORD PTR _this$[ebp]
  00011	8b 4d 08	 mov	 ecx, DWORD PTR _pszFileName$[ebp]
  00014	89 08		 mov	 DWORD PTR [eax], ecx
  00016	8b 55 fc	 mov	 edx, DWORD PTR _this$[ebp]
  00019	8b 45 0c	 mov	 eax, DWORD PTR _nLineNo$[ebp]
  0001c	89 42 04	 mov	 DWORD PTR [edx+4], eax
  0001f	8b 45 fc	 mov	 eax, DWORD PTR _this$[ebp]
  00022	8b e5		 mov	 esp, ebp
  00024	5d		 pop	 ebp
  00025	c2 08 00	 ret	 8
??0CTraceFileAndLineInfo@ATL@@QAE@PBDH@Z ENDP		; ATL::CTraceFileAndLineInfo::CTraceFileAndLineInfo
_TEXT	ENDS
PUBLIC	?TraceV@CTrace@ATL@@QBAXPBDHKI0PAD@Z		; ATL::CTrace::TraceV
EXTRN	?s_trace@CTrace@ATL@@2V12@A:QWORD		; ATL::CTrace::s_trace
; Function compile flags: /Odt /RTCsu
;	COMDAT ??RCTraceFileAndLineInfo@ATL@@QBAXKIPBDZZ
_TEXT	SEGMENT
_ptr$ = -4						; size = 4
_this$ = 8						; size = 4
_dwCategory$ = 12					; size = 4
_nLevel$ = 16						; size = 4
_pszFmt$ = 20						; size = 4
??RCTraceFileAndLineInfo@ATL@@QBAXKIPBDZZ PROC NEAR	; ATL::CTraceFileAndLineInfo::operator(), COMDAT

; 161  : 	{

  00000	55		 push	 ebp
  00001	8b ec		 mov	 ebp, esp
  00003	51		 push	 ecx
  00004	c7 45 fc cc cc
	cc cc		 mov	 DWORD PTR [ebp-4], -858993460 ; ccccccccH

; 162  : 		va_list ptr; va_start(ptr, pszFmt);

  0000b	8d 45 18	 lea	 eax, DWORD PTR _pszFmt$[ebp+4]
  0000e	89 45 fc	 mov	 DWORD PTR _ptr$[ebp], eax

; 163  : 		ATL::CTrace::s_trace.TraceV(m_pszFileName, m_nLineNo, dwCategory, nLevel, pszFmt, ptr);

  00011	8b 4d fc	 mov	 ecx, DWORD PTR _ptr$[ebp]
  00014	51		 push	 ecx
  00015	8b 55 14	 mov	 edx, DWORD PTR _pszFmt$[ebp]
  00018	52		 push	 edx
  00019	8b 45 10	 mov	 eax, DWORD PTR _nLevel$[ebp]
  0001c	50		 push	 eax
  0001d	8b 4d 0c	 mov	 ecx, DWORD PTR _dwCategory$[ebp]
  00020	51		 push	 ecx
  00021	8b 55 08	 mov	 edx, DWORD PTR _this$[ebp]
  00024	8b 42 04	 mov	 eax, DWORD PTR [edx+4]
  00027	50		 push	 eax
  00028	8b 4d 08	 mov	 ecx, DWORD PTR _this$[ebp]
  0002b	8b 11		 mov	 edx, DWORD PTR [ecx]
  0002d	52		 push	 edx
  0002e	68 00 00 00 00	 push	 OFFSET FLAT:?s_trace@CTrace@ATL@@2V12@A
  00033	e8 00 00 00 00	 call	 ?TraceV@CTrace@ATL@@QBAXPBDHKI0PAD@Z ; ATL::CTrace::TraceV
  00038	83 c4 1c	 add	 esp, 28			; 0000001cH

; 164  : 		va_end(ptr);

  0003b	c7 45 fc 00 00
	00 00		 mov	 DWORD PTR _ptr$[ebp], 0

; 165  : 	}

  00042	83 c4 04	 add	 esp, 4
  00045	3b ec		 cmp	 ebp, esp
  00047	e8 00 00 00 00	 call	 __RTC_CheckEsp
  0004c	8b e5		 mov	 esp, ebp
  0004e	5d		 pop	 ebp
  0004f	c3		 ret	 0
??RCTraceFileAndLineInfo@ATL@@QBAXKIPBDZZ ENDP		; ATL::CTraceFileAndLineInfo::operator()
_TEXT	ENDS
EXTRN	_AtlTraceVA:NEAR
; Function compile flags: /Odt /RTCsu
;	COMDAT ?TraceV@CTrace@ATL@@QBAXPBDHKI0PAD@Z
_TEXT	SEGMENT
_this$ = 8						; size = 4
_pszFileName$ = 12					; size = 4
_nLine$ = 16						; size = 4
_dwCategory$ = 20					; size = 4
_nLevel$ = 24						; size = 4
_pszFmt$ = 28						; size = 4
_args$ = 32						; size = 4
?TraceV@CTrace@ATL@@QBAXPBDHKI0PAD@Z PROC NEAR		; ATL::CTrace::TraceV, COMDAT

; 121  : 	{

  00000	55		 push	 ebp
  00001	8b ec		 mov	 ebp, esp

; 122  : 		AtlTraceVA(m_dwModule, pszFileName, nLine, dwCategory, nLevel, pszFmt, args);

  00003	8b 45 20	 mov	 eax, DWORD PTR _args$[ebp]
  00006	50		 push	 eax
  00007	8b 4d 1c	 mov	 ecx, DWORD PTR _pszFmt$[ebp]
  0000a	51		 push	 ecx
  0000b	8b 55 18	 mov	 edx, DWORD PTR _nLevel$[ebp]
  0000e	52		 push	 edx
  0000f	8b 45 14	 mov	 eax, DWORD PTR _dwCategory$[ebp]
  00012	50		 push	 eax
  00013	8b 4d 10	 mov	 ecx, DWORD PTR _nLine$[ebp]
  00016	51		 push	 ecx
  00017	8b 55 0c	 mov	 edx, DWORD PTR _pszFileName$[ebp]
  0001a	52		 push	 edx
  0001b	8b 45 08	 mov	 eax, DWORD PTR _this$[ebp]
  0001e	8b 48 04	 mov	 ecx, DWORD PTR [eax+4]
  00021	51		 push	 ecx
  00022	e8 00 00 00 00	 call	 _AtlTraceVA
  00027	83 c4 1c	 add	 esp, 28			; 0000001cH

; 123  : 	}

  0002a	3b ec		 cmp	 ebp, esp
  0002c	e8 00 00 00 00	 call	 __RTC_CheckEsp
  00031	5d		 pop	 ebp
  00032	c3		 ret	 0
?TraceV@CTrace@ATL@@QBAXPBDHKI0PAD@Z ENDP		; ATL::CTrace::TraceV
; Function compile flags: /Odt /RTCsu
_TEXT	ENDS
;	COMDAT ??BCTraceCategory@ATL@@QBEKXZ
_TEXT	SEGMENT
_this$ = -4						; size = 4
??BCTraceCategory@ATL@@QBEKXZ PROC NEAR			; ATL::CTraceCategory::operator unsigned long, COMDAT
; _this$ = ecx

; 202  : {

  00000	55		 push	 ebp
  00001	8b ec		 mov	 ebp, esp
  00003	51		 push	 ecx
  00004	c7 45 fc cc cc
	cc cc		 mov	 DWORD PTR [ebp-4], -858993460 ; ccccccccH
  0000b	89 4d fc	 mov	 DWORD PTR _this$[ebp], ecx

; 203  : 	return( m_dwCategory );

  0000e	8b 45 fc	 mov	 eax, DWORD PTR _this$[ebp]
  00011	8b 00		 mov	 eax, DWORD PTR [eax]

; 204  : }

  00013	8b e5		 mov	 esp, ebp
  00015	5d		 pop	 ebp
  00016	c3		 ret	 0
??BCTraceCategory@ATL@@QBEKXZ ENDP			; ATL::CTraceCategory::operator unsigned long
_TEXT	ENDS
PUBLIC	?GetStringTypeExWFake@ATL@@YGHKKPB_WHPAG@Z	; ATL::GetStringTypeExWFake
EXTRN	__imp__GetStringTypeExW@20:NEAR
; Function compile flags: /Odt /RTCsu
; File d:\program files (x86)\microsoft visual studio .net 2003\vc7\atlmfc\include\cstringt.h
;	COMDAT ?GetStringTypeExWThunk@ATL@@YGHKKPB_WHPAG@Z
_TEXT	SEGMENT
_lcid$ = 8						; size = 4
_dwInfoType$ = 12					; size = 4
_pszSrc$ = 16						; size = 4
_nLength$ = 20						; size = 4
_pwCharType$ = 24					; size = 4
?GetStringTypeExWThunk@ATL@@YGHKKPB_WHPAG@Z PROC NEAR	; ATL::GetStringTypeExWThunk, COMDAT

; 240  : {

  00000	55		 push	 ebp
  00001	8b ec		 mov	 ebp, esp
  00003	56		 push	 esi

; 241  : 	_AtlInstallStringThunk(reinterpret_cast<void**>(&_strthunks.pfnGetStringTypeExW), GetStringTypeExWFake, ::GetStringTypeExW);

  00004	a1 00 00 00 00	 mov	 eax, DWORD PTR __imp__GetStringTypeExW@20
  00009	50		 push	 eax
  0000a	68 00 00 00 00	 push	 OFFSET FLAT:?GetStringTypeExWFake@ATL@@YGHKKPB_WHPAG@Z ; ATL::GetStringTypeExWFake
  0000f	68 04 00 00 00	 push	 OFFSET FLAT:?_strthunks@ATL@@3U_AtlStringThunks@1@A+4
  00014	e8 00 00 00 00	 call	 ?_AtlInstallStringThunk@ATL@@YAXPAPAXPAX1@Z ; ATL::_AtlInstallStringThunk
  00019	83 c4 0c	 add	 esp, 12			; 0000000cH

; 242  : 
; 243  : 	return _strthunks.pfnGetStringTypeExW(lcid, dwInfoType, pszSrc, nLength, pwCharType);

  0001c	8b f4		 mov	 esi, esp
  0001e	8b 4d 18	 mov	 ecx, DWORD PTR _pwCharType$[ebp]
  00021	51		 push	 ecx
  00022	8b 55 14	 mov	 edx, DWORD PTR _nLength$[ebp]
  00025	52		 push	 edx
  00026	8b 45 10	 mov	 eax, DWORD PTR _pszSrc$[ebp]
  00029	50		 push	 eax
  0002a	8b 4d 0c	 mov	 ecx, DWORD PTR _dwInfoType$[ebp]
  0002d	51		 push	 ecx
  0002e	8b 55 08	 mov	 edx, DWORD PTR _lcid$[ebp]
  00031	52		 push	 edx
  00032	ff 15 04 00 00
	00		 call	 DWORD PTR ?_strthunks@ATL@@3U_AtlStringThunks@1@A+4
  00038	3b f4		 cmp	 esi, esp
  0003a	e8 00 00 00 00	 call	 __RTC_CheckEsp

; 244  : }

  0003f	5e		 pop	 esi
  00040	3b ec		 cmp	 ebp, esp
  00042	e8 00 00 00 00	 call	 __RTC_CheckEsp
  00047	5d		 pop	 ebp
  00048	c2 14 00	 ret	 20			; 00000014H
?GetStringTypeExWThunk@ATL@@YGHKKPB_WHPAG@Z ENDP	; ATL::GetStringTypeExWThunk
_TEXT	ENDS
EXTRN	__imp__GetStringTypeExA@20:NEAR
;	COMDAT xdata$x
xdata$x	SEGMENT
$T197533 DD	0ffffffffH
	DD	FLAT:$L197525
$T197527 DD	019930520H
	DD	01H
	DD	FLAT:$T197533
	DD	2 DUP(00H)
	DD	2 DUP(00H)
; Function compile flags: /Odt /RTCsu
xdata$x	ENDS
;	COMDAT ?GetStringTypeExWFake@ATL@@YGHKKPB_WHPAG@Z
_TEXT	SEGMENT
$T197524 = -164						; size = 4
_pszA$ = -156						; size = 132
_nLengthA$ = -20					; size = 4
__$ArrayPad$ = -16					; size = 4
__$EHRec$ = -12						; size = 12
__$ReturnAddr$ = 4					; size = 4
_lcid$ = 8						; size = 4
_dwInfoType$ = 12					; size = 4
_pszSrc$ = 16						; size = 4
_nLength$ = 20						; size = 4
_pwCharType$ = 24					; size = 4
?GetStringTypeExWFake@ATL@@YGHKKPB_WHPAG@Z PROC NEAR	; ATL::GetStringTypeExWFake, COMDAT

; 224  : {

  00000	55		 push	 ebp
  00001	8b ec		 mov	 ebp, esp
  00003	6a ff		 push	 -1
  00005	68 00 00 00 00	 push	 __ehhandler$?GetStringTypeExWFake@ATL@@YGHKKPB_WHPAG@Z
  0000a	64 a1 00 00 00
	00		 mov	 eax, DWORD PTR fs:__except_list
  00010	50		 push	 eax
  00011	64 89 25 00 00
	00 00		 mov	 DWORD PTR fs:__except_list, esp
  00018	81 ec 98 00 00
	00		 sub	 esp, 152		; 00000098H
  0001e	56		 push	 esi
  0001f	57		 push	 edi
  00020	8d bd 5c ff ff
	ff		 lea	 edi, DWORD PTR [ebp-164]
  00026	b9 26 00 00 00	 mov	 ecx, 38			; 00000026H
  0002b	b8 cc cc cc cc	 mov	 eax, -858993460		; ccccccccH
  00030	f3 ab		 rep stosd
  00032	a1 00 00 00 00	 mov	 eax, DWORD PTR ___security_cookie
  00037	89 45 f0	 mov	 DWORD PTR __$ArrayPad$[ebp], eax

; 225  : 	int nLengthA;
; 226  : 	CTempBuffer<char> pszA;

  0003a	8d 8d 64 ff ff
	ff		 lea	 ecx, DWORD PTR _pszA$[ebp]
  00040	e8 00 00 00 00	 call	 ??0?$CTempBuffer@D$0IA@VCCRTAllocator@ATL@@@ATL@@QAE@XZ ; ATL::CTempBuffer<char,128,ATL::CCRTAllocator>::CTempBuffer<char,128,ATL::CCRTAllocator>
  00045	c7 45 fc 00 00
	00 00		 mov	 DWORD PTR __$EHRec$[ebp+8], 0

; 227  : 
; 228  : 	nLengthA = ::WideCharToMultiByte(_AtlGetConversionACP(), 0, pszSrc, nLength, NULL, 0, NULL, NULL);

  0004c	8b f4		 mov	 esi, esp
  0004e	6a 00		 push	 0
  00050	6a 00		 push	 0
  00052	6a 00		 push	 0
  00054	6a 00		 push	 0
  00056	8b 45 14	 mov	 eax, DWORD PTR _nLength$[ebp]
  00059	50		 push	 eax
  0005a	8b 4d 10	 mov	 ecx, DWORD PTR _pszSrc$[ebp]
  0005d	51		 push	 ecx
  0005e	6a 00		 push	 0
  00060	e8 00 00 00 00	 call	 ?_AtlGetConversionACP@ATL@@YGIXZ ; ATL::_AtlGetConversionACP
  00065	50		 push	 eax
  00066	ff 15 00 00 00
	00		 call	 DWORD PTR __imp__WideCharToMultiByte@32
  0006c	3b f4		 cmp	 esi, esp
  0006e	e8 00 00 00 00	 call	 __RTC_CheckEsp
  00073	89 45 ec	 mov	 DWORD PTR _nLengthA$[ebp], eax

; 229  : 	pszA.Allocate(nLengthA);

  00076	8b 55 ec	 mov	 edx, DWORD PTR _nLengthA$[ebp]
  00079	52		 push	 edx
  0007a	8d 8d 64 ff ff
	ff		 lea	 ecx, DWORD PTR _pszA$[ebp]
  00080	e8 00 00 00 00	 call	 ?Allocate@?$CTempBuffer@D$0IA@VCCRTAllocator@ATL@@@ATL@@QAEPADI@Z ; ATL::CTempBuffer<char,128,ATL::CCRTAllocator>::Allocate

; 230  : 	::WideCharToMultiByte(_AtlGetConversionACP(), 0, pszSrc, nLength, pszA, nLengthA, NULL, NULL);

  00085	8b f4		 mov	 esi, esp
  00087	6a 00		 push	 0
  00089	6a 00		 push	 0
  0008b	8b 45 ec	 mov	 eax, DWORD PTR _nLengthA$[ebp]
  0008e	50		 push	 eax
  0008f	8d 8d 64 ff ff
	ff		 lea	 ecx, DWORD PTR _pszA$[ebp]
  00095	e8 00 00 00 00	 call	 ??B?$CTempBuffer@D$0IA@VCCRTAllocator@ATL@@@ATL@@QBEPADXZ ; ATL::CTempBuffer<char,128,ATL::CCRTAllocator>::operator char *
  0009a	50		 push	 eax
  0009b	8b 4d 14	 mov	 ecx, DWORD PTR _nLength$[ebp]
  0009e	51		 push	 ecx
  0009f	8b 55 10	 mov	 edx, DWORD PTR _pszSrc$[ebp]
  000a2	52		 push	 edx
  000a3	6a 00		 push	 0
  000a5	e8 00 00 00 00	 call	 ?_AtlGetConversionACP@ATL@@YGIXZ ; ATL::_AtlGetConversionACP
  000aa	50		 push	 eax
  000ab	ff 15 00 00 00
	00		 call	 DWORD PTR __imp__WideCharToMultiByte@32
  000b1	3b f4		 cmp	 esi, esp
  000b3	e8 00 00 00 00	 call	 __RTC_CheckEsp

; 231  : 
; 232  : 	if (nLength == -1)

  000b8	83 7d 14 ff	 cmp	 DWORD PTR _nLength$[ebp], -1
  000bc	75 07		 jne	 SHORT $L26381

; 233  : 		nLengthA = -1;

  000be	c7 45 ec ff ff
	ff ff		 mov	 DWORD PTR _nLengthA$[ebp], -1
$L26381:

; 234  : 
; 235  : 	return ::GetStringTypeExA(lcid, dwInfoType, pszA, nLengthA, pwCharType);

  000c5	8b f4		 mov	 esi, esp
  000c7	8b 45 18	 mov	 eax, DWORD PTR _pwCharType$[ebp]
  000ca	50		 push	 eax
  000cb	8b 4d ec	 mov	 ecx, DWORD PTR _nLengthA$[ebp]
  000ce	51		 push	 ecx
  000cf	8d 8d 64 ff ff
	ff		 lea	 ecx, DWORD PTR _pszA$[ebp]
  000d5	e8 00 00 00 00	 call	 ??B?$CTempBuffer@D$0IA@VCCRTAllocator@ATL@@@ATL@@QBEPADXZ ; ATL::CTempBuffer<char,128,ATL::CCRTAllocator>::operator char *
  000da	50		 push	 eax
  000db	8b 55 0c	 mov	 edx, DWORD PTR _dwInfoType$[ebp]
  000de	52		 push	 edx
  000df	8b 45 08	 mov	 eax, DWORD PTR _lcid$[ebp]
  000e2	50		 push	 eax
  000e3	ff 15 00 00 00
	00		 call	 DWORD PTR __imp__GetStringTypeExA@20
  000e9	3b f4		 cmp	 esi, esp
  000eb	e8 00 00 00 00	 call	 __RTC_CheckEsp
  000f0	89 85 5c ff ff
	ff		 mov	 DWORD PTR $T197524[ebp], eax
  000f6	c7 45 fc ff ff
	ff ff		 mov	 DWORD PTR __$EHRec$[ebp+8], -1
  000fd	8d 8d 64 ff ff
	ff		 lea	 ecx, DWORD PTR _pszA$[ebp]
  00103	e8 00 00 00 00	 call	 ??1?$CTempBuffer@D$0IA@VCCRTAllocator@ATL@@@ATL@@QAE@XZ ; ATL::CTempBuffer<char,128,ATL::CCRTAllocator>::~CTempBuffer<char,128,ATL::CCRTAllocator>
  00108	8b 85 5c ff ff
	ff		 mov	 eax, DWORD PTR $T197524[ebp]

; 236  : }

  0010e	52		 push	 edx
  0010f	8b cd		 mov	 ecx, ebp
  00111	50		 push	 eax
  00112	8d 15 00 00 00
	00		 lea	 edx, DWORD PTR $L197532
  00118	e8 00 00 00 00	 call	 @_RTC_CheckStackVars@8
  0011d	58		 pop	 eax
  0011e	5a		 pop	 edx
  0011f	8b 4d f4	 mov	 ecx, DWORD PTR __$EHRec$[ebp]
  00122	64 89 0d 00 00
	00 00		 mov	 DWORD PTR fs:__except_list, ecx
  00129	8b 4d f0	 mov	 ecx, DWORD PTR __$ArrayPad$[ebp]
  0012c	e8 00 00 00 00	 call	 @__security_check_cookie@4
  00131	5f		 pop	 edi
  00132	5e		 pop	 esi
  00133	81 c4 a4 00 00
	00		 add	 esp, 164		; 000000a4H
  00139	3b ec		 cmp	 ebp, esp
  0013b	e8 00 00 00 00	 call	 __RTC_CheckEsp
  00140	8b e5		 mov	 esp, ebp
  00142	5d		 pop	 ebp
  00143	c2 14 00	 ret	 20			; 00000014H
$L197532:
  00146	01 00 00 00	 DD	 1
  0014a	00 00 00 00	 DD	 $L197531
$L197531:
  0014e	64 ff ff ff	 DD	 -156			; ffffff64H
  00152	84 00 00 00	 DD	 132			; 00000084H
  00156	00 00 00 00	 DD	 $L197528
$L197528:
  0015a	70		 DB	 112			; 00000070H
  0015b	73		 DB	 115			; 00000073H
  0015c	7a		 DB	 122			; 0000007aH
  0015d	41		 DB	 65			; 00000041H
  0015e	00		 DB	 0
_TEXT	ENDS
;	COMDAT text$x
text$x	SEGMENT
$L197525:
  00000	8d 8d 64 ff ff
	ff		 lea	 ecx, DWORD PTR _pszA$[ebp]
  00006	e9 00 00 00 00	 jmp	 ??1?$CTempBuffer@D$0IA@VCCRTAllocator@ATL@@@ATL@@QAE@XZ ; ATL::CTempBuffer<char,128,ATL::CCRTAllocator>::~CTempBuffer<char,128,ATL::CCRTAllocator>
__ehhandler$?GetStringTypeExWFake@ATL@@YGHKKPB_WHPAG@Z:
  0000b	b8 00 00 00 00	 mov	 eax, OFFSET FLAT:$T197527
  00010	e9 00 00 00 00	 jmp	 ___CxxFrameHandler
text$x	ENDS
?GetStringTypeExWFake@ATL@@YGHKKPB_WHPAG@Z ENDP		; ATL::GetStringTypeExWFake
PUBLIC	?lstrcmpiWFake@ATL@@YGHPB_W0@Z			; ATL::lstrcmpiWFake
EXTRN	__imp__lstrcmpiW@8:NEAR
; Function compile flags: /Odt /RTCsu
;	COMDAT ?lstrcmpiWThunk@ATL@@YGHPB_W0@Z
_TEXT	SEGMENT
_psz1$ = 8						; size = 4
_psz2$ = 12						; size = 4
?lstrcmpiWThunk@ATL@@YGHPB_W0@Z PROC NEAR		; ATL::lstrcmpiWThunk, COMDAT

; 254  : {

  00000	55		 push	 ebp
  00001	8b ec		 mov	 ebp, esp
  00003	56		 push	 esi

; 255  : 	_AtlInstallStringThunk(reinterpret_cast<void**>(&_strthunks.pfnlstrcmpiW), lstrcmpiWFake, ::lstrcmpiW);

  00004	a1 00 00 00 00	 mov	 eax, DWORD PTR __imp__lstrcmpiW@8
  00009	50		 push	 eax
  0000a	68 00 00 00 00	 push	 OFFSET FLAT:?lstrcmpiWFake@ATL@@YGHPB_W0@Z ; ATL::lstrcmpiWFake
  0000f	68 08 00 00 00	 push	 OFFSET FLAT:?_strthunks@ATL@@3U_AtlStringThunks@1@A+8
  00014	e8 00 00 00 00	 call	 ?_AtlInstallStringThunk@ATL@@YAXPAPAXPAX1@Z ; ATL::_AtlInstallStringThunk
  00019	83 c4 0c	 add	 esp, 12			; 0000000cH

; 256  : 
; 257  : 	return _strthunks.pfnlstrcmpiW(psz1, psz2);

  0001c	8b f4		 mov	 esi, esp
  0001e	8b 4d 0c	 mov	 ecx, DWORD PTR _psz2$[ebp]
  00021	51		 push	 ecx
  00022	8b 55 08	 mov	 edx, DWORD PTR _psz1$[ebp]
  00025	52		 push	 edx
  00026	ff 15 08 00 00
	00		 call	 DWORD PTR ?_strthunks@ATL@@3U_AtlStringThunks@1@A+8
  0002c	3b f4		 cmp	 esi, esp
  0002e	e8 00 00 00 00	 call	 __RTC_CheckEsp

; 258  : }

  00033	5e		 pop	 esi
  00034	3b ec		 cmp	 ebp, esp
  00036	e8 00 00 00 00	 call	 __RTC_CheckEsp
  0003b	5d		 pop	 ebp
  0003c	c2 08 00	 ret	 8
?lstrcmpiWThunk@ATL@@YGHPB_W0@Z ENDP			; ATL::lstrcmpiWThunk
_TEXT	ENDS
EXTRN	__imp__lstrcmpiA@8:NEAR
; Function compile flags: /Odt /RTCsu
;	COMDAT ?lstrcmpiWFake@ATL@@YGHPB_W0@Z
_TEXT	SEGMENT
tv91 = -32						; size = 4
tv94 = -28						; size = 4
tv76 = -24						; size = 4
tv79 = -20						; size = 4
__lpa$ = -16						; size = 4
__lpw$ = -12						; size = 4
__acp$ = -8						; size = 4
__convert$ = -4						; size = 4
_psz1$ = 8						; size = 4
_psz2$ = 12						; size = 4
?lstrcmpiWFake@ATL@@YGHPB_W0@Z PROC NEAR		; ATL::lstrcmpiWFake, COMDAT

; 247  : {

  00000	55		 push	 ebp
  00001	8b ec		 mov	 ebp, esp
  00003	83 ec 20	 sub	 esp, 32			; 00000020H
  00006	56		 push	 esi
  00007	b8 cc cc cc cc	 mov	 eax, -858993460		; ccccccccH
  0000c	89 45 e0	 mov	 DWORD PTR [ebp-32], eax
  0000f	89 45 e4	 mov	 DWORD PTR [ebp-28], eax
  00012	89 45 e8	 mov	 DWORD PTR [ebp-24], eax
  00015	89 45 ec	 mov	 DWORD PTR [ebp-20], eax
  00018	89 45 f0	 mov	 DWORD PTR [ebp-16], eax
  0001b	89 45 f4	 mov	 DWORD PTR [ebp-12], eax
  0001e	89 45 f8	 mov	 DWORD PTR [ebp-8], eax
  00021	89 45 fc	 mov	 DWORD PTR [ebp-4], eax

; 248  : 	USES_CONVERSION;

  00024	c7 45 fc 00 00
	00 00		 mov	 DWORD PTR __convert$[ebp], 0
  0002b	e8 00 00 00 00	 call	 ?_AtlGetConversionACP@ATL@@YGIXZ ; ATL::_AtlGetConversionACP
  00030	89 45 f8	 mov	 DWORD PTR __acp$[ebp], eax
  00033	c7 45 f4 00 00
	00 00		 mov	 DWORD PTR __lpw$[ebp], 0
  0003a	c7 45 f0 00 00
	00 00		 mov	 DWORD PTR __lpa$[ebp], 0

; 249  : 
; 250  : 	return ::lstrcmpiA(W2A(psz1), W2A(psz2));

  00041	8b 45 0c	 mov	 eax, DWORD PTR _psz2$[ebp]
  00044	89 45 f4	 mov	 DWORD PTR __lpw$[ebp], eax
  00047	83 7d f4 00	 cmp	 DWORD PTR __lpw$[ebp], 0
  0004b	75 09		 jne	 SHORT $L197538
  0004d	c7 45 ec 00 00
	00 00		 mov	 DWORD PTR tv79[ebp], 0
  00054	eb 43		 jmp	 SHORT $L197539
$L197538:
  00056	8b f4		 mov	 esi, esp
  00058	8b 4d f4	 mov	 ecx, DWORD PTR __lpw$[ebp]
  0005b	51		 push	 ecx
  0005c	ff 15 00 00 00
	00		 call	 DWORD PTR __imp__lstrlenW@4
  00062	3b f4		 cmp	 esi, esp
  00064	e8 00 00 00 00	 call	 __RTC_CheckEsp
  00069	8d 54 00 02	 lea	 edx, DWORD PTR [eax+eax+2]
  0006d	89 55 fc	 mov	 DWORD PTR __convert$[ebp], edx
  00070	8b 45 fc	 mov	 eax, DWORD PTR __convert$[ebp]
  00073	83 c0 03	 add	 eax, 3
  00076	83 e0 fc	 and	 eax, -4			; fffffffcH
  00079	e8 00 00 00 00	 call	 __alloca_probe
  0007e	89 65 e8	 mov	 DWORD PTR tv76[ebp], esp
  00081	8b 45 f8	 mov	 eax, DWORD PTR __acp$[ebp]
  00084	50		 push	 eax
  00085	8b 4d fc	 mov	 ecx, DWORD PTR __convert$[ebp]
  00088	51		 push	 ecx
  00089	8b 55 f4	 mov	 edx, DWORD PTR __lpw$[ebp]
  0008c	52		 push	 edx
  0008d	8b 45 e8	 mov	 eax, DWORD PTR tv76[ebp]
  00090	50		 push	 eax
  00091	e8 00 00 00 00	 call	 ?AtlW2AHelper@@YGPADPADPB_WHI@Z ; AtlW2AHelper
  00096	89 45 ec	 mov	 DWORD PTR tv79[ebp], eax
$L197539:
  00099	8b 4d 08	 mov	 ecx, DWORD PTR _psz1$[ebp]
  0009c	89 4d f4	 mov	 DWORD PTR __lpw$[ebp], ecx
  0009f	83 7d f4 00	 cmp	 DWORD PTR __lpw$[ebp], 0
  000a3	75 09		 jne	 SHORT $L197540
  000a5	c7 45 e4 00 00
	00 00		 mov	 DWORD PTR tv94[ebp], 0
  000ac	eb 43		 jmp	 SHORT $L197541
$L197540:
  000ae	8b f4		 mov	 esi, esp
  000b0	8b 55 f4	 mov	 edx, DWORD PTR __lpw$[ebp]
  000b3	52		 push	 edx
  000b4	ff 15 00 00 00
	00		 call	 DWORD PTR __imp__lstrlenW@4
  000ba	3b f4		 cmp	 esi, esp
  000bc	e8 00 00 00 00	 call	 __RTC_CheckEsp
  000c1	8d 44 00 02	 lea	 eax, DWORD PTR [eax+eax+2]
  000c5	89 45 fc	 mov	 DWORD PTR __convert$[ebp], eax
  000c8	8b 45 fc	 mov	 eax, DWORD PTR __convert$[ebp]
  000cb	83 c0 03	 add	 eax, 3
  000ce	83 e0 fc	 and	 eax, -4			; fffffffcH
  000d1	e8 00 00 00 00	 call	 __alloca_probe
  000d6	89 65 e0	 mov	 DWORD PTR tv91[ebp], esp
  000d9	8b 4d f8	 mov	 ecx, DWORD PTR __acp$[ebp]
  000dc	51		 push	 ecx
  000dd	8b 55 fc	 mov	 edx, DWORD PTR __convert$[ebp]
  000e0	52		 push	 edx
  000e1	8b 45 f4	 mov	 eax, DWORD PTR __lpw$[ebp]
  000e4	50		 push	 eax
  000e5	8b 4d e0	 mov	 ecx, DWORD PTR tv91[ebp]
  000e8	51		 push	 ecx
  000e9	e8 00 00 00 00	 call	 ?AtlW2AHelper@@YGPADPADPB_WHI@Z ; AtlW2AHelper
  000ee	89 45 e4	 mov	 DWORD PTR tv94[ebp], eax
$L197541:
  000f1	8b f4		 mov	 esi, esp
  000f3	8b 55 ec	 mov	 edx, DWORD PTR tv79[ebp]
  000f6	52		 push	 edx
  000f7	8b 45 e4	 mov	 eax, DWORD PTR tv94[ebp]
  000fa	50		 push	 eax
  000fb	ff 15 00 00 00
	00		 call	 DWORD PTR __imp__lstrcmpiA@8
  00101	3b f4		 cmp	 esi, esp
  00103	e8 00 00 00 00	 call	 __RTC_CheckEsp

; 251  : }

  00108	8d 65 dc	 lea	 esp, DWORD PTR [ebp-36]
  0010b	5e		 pop	 esi
  0010c	8b e5		 mov	 esp, ebp
  0010e	5d		 pop	 ebp
  0010f	c2 08 00	 ret	 8
?lstrcmpiWFake@ATL@@YGHPB_W0@Z ENDP			; ATL::lstrcmpiWFake
_TEXT	ENDS
PUBLIC	?CharLowerWFake@ATL@@YGPA_WPA_W@Z		; ATL::CharLowerWFake
EXTRN	__imp__CharLowerW@4:NEAR
; Function compile flags: /Odt /RTCsu
;	COMDAT ?CharLowerWThunk@ATL@@YGPA_WPA_W@Z
_TEXT	SEGMENT
_psz$ = 8						; size = 4
?CharLowerWThunk@ATL@@YGPA_WPA_W@Z PROC NEAR		; ATL::CharLowerWThunk, COMDAT

; 273  : {

  00000	55		 push	 ebp
  00001	8b ec		 mov	 ebp, esp
  00003	56		 push	 esi

; 274  : 	_AtlInstallStringThunk(reinterpret_cast<void**>(&_strthunks.pfnCharLowerW), CharLowerWFake, ::CharLowerW);

  00004	a1 00 00 00 00	 mov	 eax, DWORD PTR __imp__CharLowerW@4
  00009	50		 push	 eax
  0000a	68 00 00 00 00	 push	 OFFSET FLAT:?CharLowerWFake@ATL@@YGPA_WPA_W@Z ; ATL::CharLowerWFake
  0000f	68 0c 00 00 00	 push	 OFFSET FLAT:?_strthunks@ATL@@3U_AtlStringThunks@1@A+12
  00014	e8 00 00 00 00	 call	 ?_AtlInstallStringThunk@ATL@@YAXPAPAXPAX1@Z ; ATL::_AtlInstallStringThunk
  00019	83 c4 0c	 add	 esp, 12			; 0000000cH

; 275  : 
; 276  : 	return _strthunks.pfnCharLowerW(psz);

  0001c	8b f4		 mov	 esi, esp
  0001e	8b 4d 08	 mov	 ecx, DWORD PTR _psz$[ebp]
  00021	51		 push	 ecx
  00022	ff 15 0c 00 00
	00		 call	 DWORD PTR ?_strthunks@ATL@@3U_AtlStringThunks@1@A+12
  00028	3b f4		 cmp	 esi, esp
  0002a	e8 00 00 00 00	 call	 __RTC_CheckEsp

; 277  : }

  0002f	5e		 pop	 esi
  00030	3b ec		 cmp	 ebp, esp
  00032	e8 00 00 00 00	 call	 __RTC_CheckEsp
  00037	5d		 pop	 ebp
  00038	c2 04 00	 ret	 4
?CharLowerWThunk@ATL@@YGPA_WPA_W@Z ENDP			; ATL::CharLowerWThunk
_TEXT	ENDS
PUBLIC	?AtlA2WHelper@@YGPA_WPA_WPBDHI@Z		; AtlA2WHelper
EXTRN	__imp__lstrlenA@4:NEAR
EXTRN	__imp__CharLowerA@4:NEAR
EXTRN	__imp__wcscpy:NEAR
; Function compile flags: /Odt /RTCsu
;	COMDAT ?CharLowerWFake@ATL@@YGPA_WPA_W@Z
_TEXT	SEGMENT
tv90 = -36						; size = 4
tv94 = -32						; size = 4
tv75 = -28						; size = 4
tv78 = -24						; size = 4
_pszA$ = -20						; size = 4
__lpa$ = -16						; size = 4
__lpw$ = -12						; size = 4
__acp$ = -8						; size = 4
__convert$ = -4						; size = 4
_psz$ = 8						; size = 4
?CharLowerWFake@ATL@@YGPA_WPA_W@Z PROC NEAR		; ATL::CharLowerWFake, COMDAT

; 261  : {

  00000	55		 push	 ebp
  00001	8b ec		 mov	 ebp, esp
  00003	83 ec 24	 sub	 esp, 36			; 00000024H
  00006	56		 push	 esi
  00007	b8 cc cc cc cc	 mov	 eax, -858993460		; ccccccccH
  0000c	89 45 dc	 mov	 DWORD PTR [ebp-36], eax
  0000f	89 45 e0	 mov	 DWORD PTR [ebp-32], eax
  00012	89 45 e4	 mov	 DWORD PTR [ebp-28], eax
  00015	89 45 e8	 mov	 DWORD PTR [ebp-24], eax
  00018	89 45 ec	 mov	 DWORD PTR [ebp-20], eax
  0001b	89 45 f0	 mov	 DWORD PTR [ebp-16], eax
  0001e	89 45 f4	 mov	 DWORD PTR [ebp-12], eax
  00021	89 45 f8	 mov	 DWORD PTR [ebp-8], eax
  00024	89 45 fc	 mov	 DWORD PTR [ebp-4], eax

; 262  : 	USES_CONVERSION;

  00027	c7 45 fc 00 00
	00 00		 mov	 DWORD PTR __convert$[ebp], 0
  0002e	e8 00 00 00 00	 call	 ?_AtlGetConversionACP@ATL@@YGIXZ ; ATL::_AtlGetConversionACP
  00033	89 45 f8	 mov	 DWORD PTR __acp$[ebp], eax
  00036	c7 45 f4 00 00
	00 00		 mov	 DWORD PTR __lpw$[ebp], 0
  0003d	c7 45 f0 00 00
	00 00		 mov	 DWORD PTR __lpa$[ebp], 0

; 263  : 	LPSTR pszA;
; 264  : 
; 265  : 	pszA = W2A(psz);

  00044	8b 45 08	 mov	 eax, DWORD PTR _psz$[ebp]
  00047	89 45 f4	 mov	 DWORD PTR __lpw$[ebp], eax
  0004a	83 7d f4 00	 cmp	 DWORD PTR __lpw$[ebp], 0
  0004e	75 09		 jne	 SHORT $L197544
  00050	c7 45 e8 00 00
	00 00		 mov	 DWORD PTR tv78[ebp], 0
  00057	eb 43		 jmp	 SHORT $L197545
$L197544:
  00059	8b f4		 mov	 esi, esp
  0005b	8b 4d f4	 mov	 ecx, DWORD PTR __lpw$[ebp]
  0005e	51		 push	 ecx
  0005f	ff 15 00 00 00
	00		 call	 DWORD PTR __imp__lstrlenW@4
  00065	3b f4		 cmp	 esi, esp
  00067	e8 00 00 00 00	 call	 __RTC_CheckEsp
  0006c	8d 54 00 02	 lea	 edx, DWORD PTR [eax+eax+2]
  00070	89 55 fc	 mov	 DWORD PTR __convert$[ebp], edx
  00073	8b 45 fc	 mov	 eax, DWORD PTR __convert$[ebp]
  00076	83 c0 03	 add	 eax, 3
  00079	83 e0 fc	 and	 eax, -4			; fffffffcH
  0007c	e8 00 00 00 00	 call	 __alloca_probe
  00081	89 65 e4	 mov	 DWORD PTR tv75[ebp], esp
  00084	8b 45 f8	 mov	 eax, DWORD PTR __acp$[ebp]
  00087	50		 push	 eax
  00088	8b 4d fc	 mov	 ecx, DWORD PTR __convert$[ebp]
  0008b	51		 push	 ecx
  0008c	8b 55 f4	 mov	 edx, DWORD PTR __lpw$[ebp]
  0008f	52		 push	 edx
  00090	8b 45 e4	 mov	 eax, DWORD PTR tv75[ebp]
  00093	50		 push	 eax
  00094	e8 00 00 00 00	 call	 ?AtlW2AHelper@@YGPADPADPB_WHI@Z ; AtlW2AHelper
  00099	89 45 e8	 mov	 DWORD PTR tv78[ebp], eax
$L197545:
  0009c	8b 4d e8	 mov	 ecx, DWORD PTR tv78[ebp]
  0009f	89 4d ec	 mov	 DWORD PTR _pszA$[ebp], ecx

; 266  : 	::CharLowerA(pszA);

  000a2	8b f4		 mov	 esi, esp
  000a4	8b 55 ec	 mov	 edx, DWORD PTR _pszA$[ebp]
  000a7	52		 push	 edx
  000a8	ff 15 00 00 00
	00		 call	 DWORD PTR __imp__CharLowerA@4
  000ae	3b f4		 cmp	 esi, esp
  000b0	e8 00 00 00 00	 call	 __RTC_CheckEsp

; 267  : 	wcscpy(psz, A2W(pszA));

  000b5	8b 45 ec	 mov	 eax, DWORD PTR _pszA$[ebp]
  000b8	89 45 f0	 mov	 DWORD PTR __lpa$[ebp], eax
  000bb	83 7d f0 00	 cmp	 DWORD PTR __lpa$[ebp], 0
  000bf	75 09		 jne	 SHORT $L197546
  000c1	c7 45 e0 00 00
	00 00		 mov	 DWORD PTR tv94[ebp], 0
  000c8	eb 44		 jmp	 SHORT $L197547
$L197546:
  000ca	8b f4		 mov	 esi, esp
  000cc	8b 4d f0	 mov	 ecx, DWORD PTR __lpa$[ebp]
  000cf	51		 push	 ecx
  000d0	ff 15 00 00 00
	00		 call	 DWORD PTR __imp__lstrlenA@4
  000d6	3b f4		 cmp	 esi, esp
  000d8	e8 00 00 00 00	 call	 __RTC_CheckEsp
  000dd	83 c0 01	 add	 eax, 1
  000e0	89 45 fc	 mov	 DWORD PTR __convert$[ebp], eax
  000e3	8b 45 fc	 mov	 eax, DWORD PTR __convert$[ebp]
  000e6	d1 e0		 shl	 eax, 1
  000e8	83 c0 03	 add	 eax, 3
  000eb	83 e0 fc	 and	 eax, -4			; fffffffcH
  000ee	e8 00 00 00 00	 call	 __alloca_probe
  000f3	89 65 dc	 mov	 DWORD PTR tv90[ebp], esp
  000f6	8b 55 f8	 mov	 edx, DWORD PTR __acp$[ebp]
  000f9	52		 push	 edx
  000fa	8b 45 fc	 mov	 eax, DWORD PTR __convert$[ebp]
  000fd	50		 push	 eax
  000fe	8b 4d f0	 mov	 ecx, DWORD PTR __lpa$[ebp]
  00101	51		 push	 ecx
  00102	8b 55 dc	 mov	 edx, DWORD PTR tv90[ebp]
  00105	52		 push	 edx
  00106	e8 00 00 00 00	 call	 ?AtlA2WHelper@@YGPA_WPA_WPBDHI@Z ; AtlA2WHelper
  0010b	89 45 e0	 mov	 DWORD PTR tv94[ebp], eax
$L197547:
  0010e	8b f4		 mov	 esi, esp
  00110	8b 45 e0	 mov	 eax, DWORD PTR tv94[ebp]
  00113	50		 push	 eax
  00114	8b 4d 08	 mov	 ecx, DWORD PTR _psz$[ebp]
  00117	51		 push	 ecx
  00118	ff 15 00 00 00
	00		 call	 DWORD PTR __imp__wcscpy
  0011e	83 c4 08	 add	 esp, 8
  00121	3b f4		 cmp	 esi, esp
  00123	e8 00 00 00 00	 call	 __RTC_CheckEsp

; 268  : 
; 269  : 	return psz;

  00128	8b 45 08	 mov	 eax, DWORD PTR _psz$[ebp]

; 270  : }

  0012b	8d 65 d8	 lea	 esp, DWORD PTR [ebp-40]
  0012e	5e		 pop	 esi
  0012f	8b e5		 mov	 esp, ebp
  00131	5d		 pop	 ebp
  00132	c2 04 00	 ret	 4
?CharLowerWFake@ATL@@YGPA_WPA_W@Z ENDP			; ATL::CharLowerWFake
; Function compile flags: /Odt /RTCsu
; File d:\program files (x86)\microsoft visual studio .net 2003\vc7\atlmfc\include\atlconv.h
_TEXT	ENDS
;	COMDAT ?AtlA2WHelper@@YGPA_WPA_WPBDHI@Z
_TEXT	SEGMENT
_ret$ = -4						; size = 4
_lpw$ = 8						; size = 4
_lpa$ = 12						; size = 4
_nChars$ = 16						; size = 4
_acp$ = 20						; size = 4
?AtlA2WHelper@@YGPA_WPA_WPBDHI@Z PROC NEAR		; AtlA2WHelper, COMDAT

; 554  : {

  00000	55		 push	 ebp
  00001	8b ec		 mov	 ebp, esp
  00003	51		 push	 ecx
  00004	56		 push	 esi
  00005	c7 45 fc cc cc
	cc cc		 mov	 DWORD PTR [ebp-4], -858993460 ; ccccccccH

; 555  : 	ATLASSERT(lpa != NULL);

  0000c	83 7d 0c 00	 cmp	 DWORD PTR _lpa$[ebp], 0
  00010	75 2b		 jne	 SHORT $L197549
  00012	8b f4		 mov	 esi, esp
  00014	68 00 00 00 00	 push	 OFFSET FLAT:??_C@_08DMHHBMMN@lpa?5?$CB?$DN?50?$AA@
  00019	6a 00		 push	 0
  0001b	68 2b 02 00 00	 push	 555			; 0000022bH
  00020	68 00 00 00 00	 push	 OFFSET FLAT:??_C@_0FG@PFHCBDBK@D?3?2Program?5Files?5?$CIx86?$CJ?2Microsoft@
  00025	6a 02		 push	 2
  00027	ff 15 00 00 00
	00		 call	 DWORD PTR __imp___CrtDbgReport
  0002d	83 c4 14	 add	 esp, 20			; 00000014H
  00030	3b f4		 cmp	 esi, esp
  00032	e8 00 00 00 00	 call	 __RTC_CheckEsp
  00037	83 f8 01	 cmp	 eax, 1
  0003a	75 01		 jne	 SHORT $L197549
  0003c	cc		 int	 3
$L197549:

; 556  : 	ATLASSERT(lpw != NULL);

  0003d	83 7d 08 00	 cmp	 DWORD PTR _lpw$[ebp], 0
  00041	75 2b		 jne	 SHORT $L197550
  00043	8b f4		 mov	 esi, esp
  00045	68 00 00 00 00	 push	 OFFSET FLAT:??_C@_08DIHJLFDJ@lpw?5?$CB?$DN?50?$AA@
  0004a	6a 00		 push	 0
  0004c	68 2c 02 00 00	 push	 556			; 0000022cH
  00051	68 00 00 00 00	 push	 OFFSET FLAT:??_C@_0FG@PFHCBDBK@D?3?2Program?5Files?5?$CIx86?$CJ?2Microsoft@
  00056	6a 02		 push	 2
  00058	ff 15 00 00 00
	00		 call	 DWORD PTR __imp___CrtDbgReport
  0005e	83 c4 14	 add	 esp, 20			; 00000014H
  00061	3b f4		 cmp	 esi, esp
  00063	e8 00 00 00 00	 call	 __RTC_CheckEsp
  00068	83 f8 01	 cmp	 eax, 1
  0006b	75 01		 jne	 SHORT $L197550
  0006d	cc		 int	 3
$L197550:

; 557  : 	if (lpw == NULL || lpa == NULL)

  0006e	83 7d 08 00	 cmp	 DWORD PTR _lpw$[ebp], 0
  00072	74 06		 je	 SHORT $L24299
  00074	83 7d 0c 00	 cmp	 DWORD PTR _lpa$[ebp], 0
  00078	75 04		 jne	 SHORT $L24298
$L24299:

; 558  : 		return NULL;

  0007a	33 c0		 xor	 eax, eax
  0007c	eb 6a		 jmp	 SHORT $L24292
$L24298:

; 559  : 	// verify that no illegal character present
; 560  : 	// since lpw was allocated based on the size of lpa
; 561  : 	// don't worry about the number of chars
; 562  : 	lpw[0] = '\0';

  0007e	8b 55 08	 mov	 edx, DWORD PTR _lpw$[ebp]
  00081	66 c7 02 00 00	 mov	 WORD PTR [edx], 0

; 563  : 	int ret = MultiByteToWideChar(acp, 0, lpa, -1, lpw, nChars);

  00086	8b f4		 mov	 esi, esp
  00088	8b 45 10	 mov	 eax, DWORD PTR _nChars$[ebp]
  0008b	50		 push	 eax
  0008c	8b 4d 08	 mov	 ecx, DWORD PTR _lpw$[ebp]
  0008f	51		 push	 ecx
  00090	6a ff		 push	 -1
  00092	8b 55 0c	 mov	 edx, DWORD PTR _lpa$[ebp]
  00095	52		 push	 edx
  00096	6a 00		 push	 0
  00098	8b 45 14	 mov	 eax, DWORD PTR _acp$[ebp]
  0009b	50		 push	 eax
  0009c	ff 15 00 00 00
	00		 call	 DWORD PTR __imp__MultiByteToWideChar@24
  000a2	3b f4		 cmp	 esi, esp
  000a4	e8 00 00 00 00	 call	 __RTC_CheckEsp
  000a9	89 45 fc	 mov	 DWORD PTR _ret$[ebp], eax

; 564  : 	if(ret == 0)

  000ac	83 7d fc 00	 cmp	 DWORD PTR _ret$[ebp], 0
  000b0	75 33		 jne	 SHORT $L24301

; 565  : 	{
; 566  : 		ATLASSERT(FALSE);

  000b2	33 c9		 xor	 ecx, ecx
  000b4	75 2b		 jne	 SHORT $L197551
  000b6	8b f4		 mov	 esi, esp
  000b8	68 00 00 00 00	 push	 OFFSET FLAT:??_C@_01GBGANLPD@0?$AA@
  000bd	6a 00		 push	 0
  000bf	68 36 02 00 00	 push	 566			; 00000236H
  000c4	68 00 00 00 00	 push	 OFFSET FLAT:??_C@_0FG@PFHCBDBK@D?3?2Program?5Files?5?$CIx86?$CJ?2Microsoft@
  000c9	6a 02		 push	 2
  000cb	ff 15 00 00 00
	00		 call	 DWORD PTR __imp___CrtDbgReport
  000d1	83 c4 14	 add	 esp, 20			; 00000014H
  000d4	3b f4		 cmp	 esi, esp
  000d6	e8 00 00 00 00	 call	 __RTC_CheckEsp
  000db	83 f8 01	 cmp	 eax, 1
  000de	75 01		 jne	 SHORT $L197551
  000e0	cc		 int	 3
$L197551:

; 567  : 		return NULL;

  000e1	33 c0		 xor	 eax, eax
  000e3	eb 03		 jmp	 SHORT $L24292
$L24301:

; 568  : 	}		
; 569  : 	return lpw;

  000e5	8b 45 08	 mov	 eax, DWORD PTR _lpw$[ebp]
$L24292:

; 570  : }

  000e8	5e		 pop	 esi
  000e9	83 c4 04	 add	 esp, 4
  000ec	3b ec		 cmp	 ebp, esp
  000ee	e8 00 00 00 00	 call	 __RTC_CheckEsp
  000f3	8b e5		 mov	 esp, ebp
  000f5	5d		 pop	 ebp
  000f6	c2 10 00	 ret	 16			; 00000010H
?AtlA2WHelper@@YGPA_WPA_WPBDHI@Z ENDP			; AtlA2WHelper
_TEXT	ENDS
PUBLIC	??0?$_Vector_val@U?$pair@UTAB_ITEM@@PAVCWnd@@@std@@V?$allocator@U?$pair@UTAB_ITEM@@PAVCWnd@@@std@@@2@@std@@IAE@V?$allocator@U?$pair@UTAB_ITEM@@PAVCWnd@@@std@@@1@@Z ; std::_Vector_val<std::pair<TAB_ITEM,CWnd *>,std::allocator<std::pair<TAB_ITEM,CWnd *> > >::_Vector_val<std::pair<TAB_ITEM,CWnd *>,std::allocator<std::pair<TAB_ITEM,CWnd *> > >
PUBLIC	??0?$allocator@U?$pair@UTAB_ITEM@@PAVCWnd@@@std@@@std@@QAE@XZ ; std::allocator<std::pair<TAB_ITEM,CWnd *> >::allocator<std::pair<TAB_ITEM,CWnd *> >
PUBLIC	?_Buy@?$vector@U?$pair@UTAB_ITEM@@PAVCWnd@@@std@@V?$allocator@U?$pair@UTAB_ITEM@@PAVCWnd@@@std@@@2@@std@@IAE_NI@Z ; std::vector<std::pair<TAB_ITEM,CWnd *>,std::allocator<std::pair<TAB_ITEM,CWnd *> > >::_Buy
; Function compile flags: /Odt /RTCsu
; File d:\program files (x86)\microsoft visual studio .net 2003\vc7\include\vector
;	COMDAT ??0?$vector@U?$pair@UTAB_ITEM@@PAVCWnd@@@std@@V?$allocator@U?$pair@UTAB_ITEM@@PAVCWnd@@@std@@@2@@std@@QAE@XZ
_TEXT	SEGMENT
_this$ = -4						; size = 4
??0?$vector@U?$pair@UTAB_ITEM@@PAVCWnd@@@std@@V?$allocator@U?$pair@UTAB_ITEM@@PAVCWnd@@@std@@@2@@std@@QAE@XZ PROC NEAR ; std::vector<std::pair<TAB_ITEM,CWnd *>,std::allocator<std::pair<TAB_ITEM,CWnd *> > >::vector<std::pair<TAB_ITEM,CWnd *>,std::allocator<std::pair<TAB_ITEM,CWnd *> > >, COMDAT
; _this$ = ecx

; 299  : 		{	// construct empty vector

  00000	55		 push	 ebp
  00001	8b ec		 mov	 ebp, esp
  00003	83 ec 08	 sub	 esp, 8
  00006	c7 45 f8 cc cc
	cc cc		 mov	 DWORD PTR [ebp-8], -858993460 ; ccccccccH
  0000d	c7 45 fc cc cc
	cc cc		 mov	 DWORD PTR [ebp-4], -858993460 ; ccccccccH
  00014	89 4d fc	 mov	 DWORD PTR _this$[ebp], ecx
  00017	51		 push	 ecx
  00018	8b cc		 mov	 ecx, esp
  0001a	e8 00 00 00 00	 call	 ??0?$allocator@U?$pair@UTAB_ITEM@@PAVCWnd@@@std@@@std@@QAE@XZ ; std::allocator<std::pair<TAB_ITEM,CWnd *> >::allocator<std::pair<TAB_ITEM,CWnd *> >
  0001f	8b 4d fc	 mov	 ecx, DWORD PTR _this$[ebp]
  00022	e8 00 00 00 00	 call	 ??0?$_Vector_val@U?$pair@UTAB_ITEM@@PAVCWnd@@@std@@V?$allocator@U?$pair@UTAB_ITEM@@PAVCWnd@@@std@@@2@@std@@IAE@V?$allocator@U?$pair@UTAB_ITEM@@PAVCWnd@@@std@@@1@@Z ; std::_Vector_val<std::pair<TAB_ITEM,CWnd *>,std::allocator<std::pair<TAB_ITEM,CWnd *> > >::_Vector_val<std::pair<TAB_ITEM,CWnd *>,std::allocator<std::pair<TAB_ITEM,CWnd *> > >

; 300  : 		_Buy(0);

  00027	6a 00		 push	 0
  00029	8b 4d fc	 mov	 ecx, DWORD PTR _this$[ebp]
  0002c	e8 00 00 00 00	 call	 ?_Buy@?$vector@U?$pair@UTAB_ITEM@@PAVCWnd@@@std@@V?$allocator@U?$pair@UTAB_ITEM@@PAVCWnd@@@std@@@2@@std@@IAE_NI@Z ; std::vector<std::pair<TAB_ITEM,CWnd *>,std::allocator<std::pair<TAB_ITEM,CWnd *> > >::_Buy

; 301  : 		}

  00031	8b 45 fc	 mov	 eax, DWORD PTR _this$[ebp]
  00034	83 c4 08	 add	 esp, 8
  00037	3b ec		 cmp	 ebp, esp
  00039	e8 00 00 00 00	 call	 __RTC_CheckEsp
  0003e	8b e5		 mov	 esp, ebp
  00040	5d		 pop	 ebp
  00041	c3		 ret	 0
??0?$vector@U?$pair@UTAB_ITEM@@PAVCWnd@@@std@@V?$allocator@U?$pair@UTAB_ITEM@@PAVCWnd@@@std@@@2@@std@@QAE@XZ ENDP ; std::vector<std::pair<TAB_ITEM,CWnd *>,std::allocator<std::pair<TAB_ITEM,CWnd *> > >::vector<std::pair<TAB_ITEM,CWnd *>,std::allocator<std::pair<TAB_ITEM,CWnd *> > >
_TEXT	ENDS
PUBLIC	?CharUpperWFake@ATL@@YGPA_WPA_W@Z		; ATL::CharUpperWFake
EXTRN	__imp__CharUpperW@4:NEAR
; Function compile flags: /Odt /RTCsu
; File d:\program files (x86)\microsoft visual studio .net 2003\vc7\atlmfc\include\cstringt.h
;	COMDAT ?CharUpperWThunk@ATL@@YGPA_WPA_W@Z
_TEXT	SEGMENT
_psz$ = 8						; size = 4
?CharUpperWThunk@ATL@@YGPA_WPA_W@Z PROC NEAR		; ATL::CharUpperWThunk, COMDAT

; 292  : {

  00000	55		 push	 ebp
  00001	8b ec		 mov	 ebp, esp
  00003	56		 push	 esi

; 293  : 	_AtlInstallStringThunk(reinterpret_cast<void**>(&_strthunks.pfnCharUpperW), CharUpperWFake, ::CharUpperW);

  00004	a1 00 00 00 00	 mov	 eax, DWORD PTR __imp__CharUpperW@4
  00009	50		 push	 eax
  0000a	68 00 00 00 00	 push	 OFFSET FLAT:?CharUpperWFake@ATL@@YGPA_WPA_W@Z ; ATL::CharUpperWFake
  0000f	68 10 00 00 00	 push	 OFFSET FLAT:?_strthunks@ATL@@3U_AtlStringThunks@1@A+16
  00014	e8 00 00 00 00	 call	 ?_AtlInstallStringThunk@ATL@@YAXPAPAXPAX1@Z ; ATL::_AtlInstallStringThunk
  00019	83 c4 0c	 add	 esp, 12			; 0000000cH

; 294  : 
; 295  : 	return _strthunks.pfnCharUpperW(psz);

  0001c	8b f4		 mov	 esi, esp
  0001e	8b 4d 08	 mov	 ecx, DWORD PTR _psz$[ebp]
  00021	51		 push	 ecx
  00022	ff 15 10 00 00
	00		 call	 DWORD PTR ?_strthunks@ATL@@3U_AtlStringThunks@1@A+16
  00028	3b f4		 cmp	 esi, esp
  0002a	e8 00 00 00 00	 call	 __RTC_CheckEsp

; 296  : }

  0002f	5e		 pop	 esi
  00030	3b ec		 cmp	 ebp, esp
  00032	e8 00 00 00 00	 call	 __RTC_CheckEsp
  00037	5d		 pop	 ebp
  00038	c2 04 00	 ret	 4
?CharUpperWThunk@ATL@@YGPA_WPA_W@Z ENDP			; ATL::CharUpperWThunk
_TEXT	ENDS
EXTRN	__imp__CharUpperA@4:NEAR
; Function compile flags: /Odt /RTCsu
;	COMDAT ?CharUpperWFake@ATL@@YGPA_WPA_W@Z
_TEXT	SEGMENT
tv90 = -36						; size = 4
tv94 = -32						; size = 4
tv75 = -28						; size = 4
tv78 = -24						; size = 4
_pszA$ = -20						; size = 4
__lpa$ = -16						; size = 4
__lpw$ = -12						; size = 4
__acp$ = -8						; size = 4
__convert$ = -4						; size = 4
_psz$ = 8						; size = 4
?CharUpperWFake@ATL@@YGPA_WPA_W@Z PROC NEAR		; ATL::CharUpperWFake, COMDAT

; 280  : {

  00000	55		 push	 ebp
  00001	8b ec		 mov	 ebp, esp
  00003	83 ec 24	 sub	 esp, 36			; 00000024H
  00006	56		 push	 esi
  00007	b8 cc cc cc cc	 mov	 eax, -858993460		; ccccccccH
  0000c	89 45 dc	 mov	 DWORD PTR [ebp-36], eax
  0000f	89 45 e0	 mov	 DWORD PTR [ebp-32], eax
  00012	89 45 e4	 mov	 DWORD PTR [ebp-28], eax
  00015	89 45 e8	 mov	 DWORD PTR [ebp-24], eax
  00018	89 45 ec	 mov	 DWORD PTR [ebp-20], eax
  0001b	89 45 f0	 mov	 DWORD PTR [ebp-16], eax
  0001e	89 45 f4	 mov	 DWORD PTR [ebp-12], eax
  00021	89 45 f8	 mov	 DWORD PTR [ebp-8], eax
  00024	89 45 fc	 mov	 DWORD PTR [ebp-4], eax

; 281  : 	USES_CONVERSION;

  00027	c7 45 fc 00 00
	00 00		 mov	 DWORD PTR __convert$[ebp], 0
  0002e	e8 00 00 00 00	 call	 ?_AtlGetConversionACP@ATL@@YGIXZ ; ATL::_AtlGetConversionACP
  00033	89 45 f8	 mov	 DWORD PTR __acp$[ebp], eax
  00036	c7 45 f4 00 00
	00 00		 mov	 DWORD PTR __lpw$[ebp], 0
  0003d	c7 45 f0 00 00
	00 00		 mov	 DWORD PTR __lpa$[ebp], 0

; 282  : 	LPSTR pszA;
; 283  : 
; 284  : 	pszA = W2A(psz);

  00044	8b 45 08	 mov	 eax, DWORD PTR _psz$[ebp]
  00047	89 45 f4	 mov	 DWORD PTR __lpw$[ebp], eax
  0004a	83 7d f4 00	 cmp	 DWORD PTR __lpw$[ebp], 0
  0004e	75 09		 jne	 SHORT $L197556
  00050	c7 45 e8 00 00
	00 00		 mov	 DWORD PTR tv78[ebp], 0
  00057	eb 43		 jmp	 SHORT $L197557
$L197556:
  00059	8b f4		 mov	 esi, esp
  0005b	8b 4d f4	 mov	 ecx, DWORD PTR __lpw$[ebp]
  0005e	51		 push	 ecx
  0005f	ff 15 00 00 00
	00		 call	 DWORD PTR __imp__lstrlenW@4
  00065	3b f4		 cmp	 esi, esp
  00067	e8 00 00 00 00	 call	 __RTC_CheckEsp
  0006c	8d 54 00 02	 lea	 edx, DWORD PTR [eax+eax+2]
  00070	89 55 fc	 mov	 DWORD PTR __convert$[ebp], edx
  00073	8b 45 fc	 mov	 eax, DWORD PTR __convert$[ebp]
  00076	83 c0 03	 add	 eax, 3
  00079	83 e0 fc	 and	 eax, -4			; fffffffcH
  0007c	e8 00 00 00 00	 call	 __alloca_probe
  00081	89 65 e4	 mov	 DWORD PTR tv75[ebp], esp
  00084	8b 45 f8	 mov	 eax, DWORD PTR __acp$[ebp]
  00087	50		 push	 eax
  00088	8b 4d fc	 mov	 ecx, DWORD PTR __convert$[ebp]
  0008b	51		 push	 ecx
  0008c	8b 55 f4	 mov	 edx, DWORD PTR __lpw$[ebp]
  0008f	52		 push	 edx
  00090	8b 45 e4	 mov	 eax, DWORD PTR tv75[ebp]
  00093	50		 push	 eax
  00094	e8 00 00 00 00	 call	 ?AtlW2AHelper@@YGPADPADPB_WHI@Z ; AtlW2AHelper
  00099	89 45 e8	 mov	 DWORD PTR tv78[ebp], eax
$L197557:
  0009c	8b 4d e8	 mov	 ecx, DWORD PTR tv78[ebp]
  0009f	89 4d ec	 mov	 DWORD PTR _pszA$[ebp], ecx

; 285  : 	::CharUpperA(pszA);

  000a2	8b f4		 mov	 esi, esp
  000a4	8b 55 ec	 mov	 edx, DWORD PTR _pszA$[ebp]
  000a7	52		 push	 edx
  000a8	ff 15 00 00 00
	00		 call	 DWORD PTR __imp__CharUpperA@4
  000ae	3b f4		 cmp	 esi, esp
  000b0	e8 00 00 00 00	 call	 __RTC_CheckEsp

; 286  : 	wcscpy(psz, A2W(pszA));

  000b5	8b 45 ec	 mov	 eax, DWORD PTR _pszA$[ebp]
  000b8	89 45 f0	 mov	 DWORD PTR __lpa$[ebp], eax
  000bb	83 7d f0 00	 cmp	 DWORD PTR __lpa$[ebp], 0
  000bf	75 09		 jne	 SHORT $L197558
  000c1	c7 45 e0 00 00
	00 00		 mov	 DWORD PTR tv94[ebp], 0
  000c8	eb 44		 jmp	 SHORT $L197559
$L197558:
  000ca	8b f4		 mov	 esi, esp
  000cc	8b 4d f0	 mov	 ecx, DWORD PTR __lpa$[ebp]
  000cf	51		 push	 ecx
  000d0	ff 15 00 00 00
	00		 call	 DWORD PTR __imp__lstrlenA@4
  000d6	3b f4		 cmp	 esi, esp
  000d8	e8 00 00 00 00	 call	 __RTC_CheckEsp
  000dd	83 c0 01	 add	 eax, 1
  000e0	89 45 fc	 mov	 DWORD PTR __convert$[ebp], eax
  000e3	8b 45 fc	 mov	 eax, DWORD PTR __convert$[ebp]
  000e6	d1 e0		 shl	 eax, 1
  000e8	83 c0 03	 add	 eax, 3
  000eb	83 e0 fc	 and	 eax, -4			; fffffffcH
  000ee	e8 00 00 00 00	 call	 __alloca_probe
  000f3	89 65 dc	 mov	 DWORD PTR tv90[ebp], esp
  000f6	8b 55 f8	 mov	 edx, DWORD PTR __acp$[ebp]
  000f9	52		 push	 edx
  000fa	8b 45 fc	 mov	 eax, DWORD PTR __convert$[ebp]
  000fd	50		 push	 eax
  000fe	8b 4d f0	 mov	 ecx, DWORD PTR __lpa$[ebp]
  00101	51		 push	 ecx
  00102	8b 55 dc	 mov	 edx, DWORD PTR tv90[ebp]
  00105	52		 push	 edx
  00106	e8 00 00 00 00	 call	 ?AtlA2WHelper@@YGPA_WPA_WPBDHI@Z ; AtlA2WHelper
  0010b	89 45 e0	 mov	 DWORD PTR tv94[ebp], eax
$L197559:
  0010e	8b f4		 mov	 esi, esp
  00110	8b 45 e0	 mov	 eax, DWORD PTR tv94[ebp]
  00113	50		 push	 eax
  00114	8b 4d 08	 mov	 ecx, DWORD PTR _psz$[ebp]
  00117	51		 push	 ecx
  00118	ff 15 00 00 00
	00		 call	 DWORD PTR __imp__wcscpy
  0011e	83 c4 08	 add	 esp, 8
  00121	3b f4		 cmp	 esi, esp
  00123	e8 00 00 00 00	 call	 __RTC_CheckEsp

; 287  : 
; 288  : 	return psz;

  00128	8b 45 08	 mov	 eax, DWORD PTR _psz$[ebp]

; 289  : }

  0012b	8d 65 d8	 lea	 esp, DWORD PTR [ebp-40]
  0012e	5e		 pop	 esi
  0012f	8b e5		 mov	 esp, ebp
  00131	5d		 pop	 ebp
  00132	c2 04 00	 ret	 4
?CharUpperWFake@ATL@@YGPA_WPA_W@Z ENDP			; ATL::CharUpperWFake
_TEXT	ENDS
PUBLIC	?_Tidy@?$vector@U?$pair@UTAB_ITEM@@PAVCWnd@@@std@@V?$allocator@U?$pair@UTAB_ITEM@@PAVCWnd@@@std@@@2@@std@@IAEXXZ ; std::vector<std::pair<TAB_ITEM,CWnd *>,std::allocator<std::pair<TAB_ITEM,CWnd *> > >::_Tidy
; Function compile flags: /Odt /RTCsu
; File d:\program files (x86)\microsoft visual studio .net 2003\vc7\include\vector
;	COMDAT ??1?$vector@U?$pair@UTAB_ITEM@@PAVCWnd@@@std@@V?$allocator@U?$pair@UTAB_ITEM@@PAVCWnd@@@std@@@2@@std@@QAE@XZ
_TEXT	SEGMENT
_this$ = -4						; size = 4
??1?$vector@U?$pair@UTAB_ITEM@@PAVCWnd@@@std@@V?$allocator@U?$pair@UTAB_ITEM@@PAVCWnd@@@std@@@2@@std@@QAE@XZ PROC NEAR ; std::vector<std::pair<TAB_ITEM,CWnd *>,std::allocator<std::pair<TAB_ITEM,CWnd *> > >::~vector<std::pair<TAB_ITEM,CWnd *>,std::allocator<std::pair<TAB_ITEM,CWnd *> > >, COMDAT
; _this$ = ecx

; 387  : 		{	// destroy the object

  00000	55		 push	 ebp
  00001	8b ec		 mov	 ebp, esp
  00003	51		 push	 ecx
  00004	c7 45 fc cc cc
	cc cc		 mov	 DWORD PTR [ebp-4], -858993460 ; ccccccccH
  0000b	89 4d fc	 mov	 DWORD PTR _this$[ebp], ecx

; 388  : 		_Tidy();

  0000e	8b 4d fc	 mov	 ecx, DWORD PTR _this$[ebp]
  00011	e8 00 00 00 00	 call	 ?_Tidy@?$vector@U?$pair@UTAB_ITEM@@PAVCWnd@@@std@@V?$allocator@U?$pair@UTAB_ITEM@@PAVCWnd@@@std@@@2@@std@@IAEXXZ ; std::vector<std::pair<TAB_ITEM,CWnd *>,std::allocator<std::pair<TAB_ITEM,CWnd *> > >::_Tidy

; 389  : 		}

  00016	83 c4 04	 add	 esp, 4
  00019	3b ec		 cmp	 ebp, esp
  0001b	e8 00 00 00 00	 call	 __RTC_CheckEsp
  00020	8b e5		 mov	 esp, ebp
  00022	5d		 pop	 ebp
  00023	c3		 ret	 0
??1?$vector@U?$pair@UTAB_ITEM@@PAVCWnd@@@std@@V?$allocator@U?$pair@UTAB_ITEM@@PAVCWnd@@@std@@@2@@std@@QAE@XZ ENDP ; std::vector<std::pair<TAB_ITEM,CWnd *>,std::allocator<std::pair<TAB_ITEM,CWnd *> > >::~vector<std::pair<TAB_ITEM,CWnd *>,std::allocator<std::pair<TAB_ITEM,CWnd *> > >
_TEXT	ENDS
PUBLIC	??0iterator@?$vector@U?$pair@UTAB_ITEM@@PAVCWnd@@@std@@V?$allocator@U?$pair@UTAB_ITEM@@PAVCWnd@@@std@@@2@@std@@QAE@PAU?$pair@UTAB_ITEM@@PAVCWnd@@@2@@Z ; std::vector<std::pair<TAB_ITEM,CWnd *>,std::allocator<std::pair<TAB_ITEM,CWnd *> > >::iterator::iterator
; Function compile flags: /Odt /RTCsu
;	COMDAT ?begin@?$vector@U?$pair@UTAB_ITEM@@PAVCWnd@@@std@@V?$allocator@U?$pair@UTAB_ITEM@@PAVCWnd@@@std@@@2@@std@@QAE?AViterator@12@XZ
_TEXT	SEGMENT
_this$ = -4						; size = 4
___$ReturnUdt$ = 8					; size = 4
?begin@?$vector@U?$pair@UTAB_ITEM@@PAVCWnd@@@std@@V?$allocator@U?$pair@UTAB_ITEM@@PAVCWnd@@@std@@@2@@std@@QAE?AViterator@12@XZ PROC NEAR ; std::vector<std::pair<TAB_ITEM,CWnd *>,std::allocator<std::pair<TAB_ITEM,CWnd *> > >::begin, COMDAT
; _this$ = ecx

; 462  : 		{	// return iterator for beginning of mutable sequence

  00000	55		 push	 ebp
  00001	8b ec		 mov	 ebp, esp
  00003	51		 push	 ecx
  00004	c7 45 fc cc cc
	cc cc		 mov	 DWORD PTR [ebp-4], -858993460 ; ccccccccH
  0000b	89 4d fc	 mov	 DWORD PTR _this$[ebp], ecx

; 463  : 		return (iterator(_Myfirst));

  0000e	8b 45 fc	 mov	 eax, DWORD PTR _this$[ebp]
  00011	8b 48 04	 mov	 ecx, DWORD PTR [eax+4]
  00014	51		 push	 ecx
  00015	8b 4d 08	 mov	 ecx, DWORD PTR ___$ReturnUdt$[ebp]
  00018	e8 00 00 00 00	 call	 ??0iterator@?$vector@U?$pair@UTAB_ITEM@@PAVCWnd@@@std@@V?$allocator@U?$pair@UTAB_ITEM@@PAVCWnd@@@std@@@2@@std@@QAE@PAU?$pair@UTAB_ITEM@@PAVCWnd@@@2@@Z ; std::vector<std::pair<TAB_ITEM,CWnd *>,std::allocator<std::pair<TAB_ITEM,CWnd *> > >::iterator::iterator
  0001d	8b 45 08	 mov	 eax, DWORD PTR ___$ReturnUdt$[ebp]

; 464  : 		}

  00020	83 c4 04	 add	 esp, 4
  00023	3b ec		 cmp	 ebp, esp
  00025	e8 00 00 00 00	 call	 __RTC_CheckEsp
  0002a	8b e5		 mov	 esp, ebp
  0002c	5d		 pop	 ebp
  0002d	c2 04 00	 ret	 4
?begin@?$vector@U?$pair@UTAB_ITEM@@PAVCWnd@@@std@@V?$allocator@U?$pair@UTAB_ITEM@@PAVCWnd@@@std@@@2@@std@@QAE?AViterator@12@XZ ENDP ; std::vector<std::pair<TAB_ITEM,CWnd *>,std::allocator<std::pair<TAB_ITEM,CWnd *> > >::begin
; Function compile flags: /Odt /RTCsu
_TEXT	ENDS
;	COMDAT ?end@?$vector@U?$pair@UTAB_ITEM@@PAVCWnd@@@std@@V?$allocator@U?$pair@UTAB_ITEM@@PAVCWnd@@@std@@@2@@std@@QAE?AViterator@12@XZ
_TEXT	SEGMENT
_this$ = -4						; size = 4
___$ReturnUdt$ = 8					; size = 4
?end@?$vector@U?$pair@UTAB_ITEM@@PAVCWnd@@@std@@V?$allocator@U?$pair@UTAB_ITEM@@PAVCWnd@@@std@@@2@@std@@QAE?AViterator@12@XZ PROC NEAR ; std::vector<std::pair<TAB_ITEM,CWnd *>,std::allocator<std::pair<TAB_ITEM,CWnd *> > >::end, COMDAT
; _this$ = ecx

; 472  : 		{	// return iterator for end of mutable sequence

  00000	55		 push	 ebp
  00001	8b ec		 mov	 ebp, esp
  00003	51		 push	 ecx
  00004	c7 45 fc cc cc
	cc cc		 mov	 DWORD PTR [ebp-4], -858993460 ; ccccccccH
  0000b	89 4d fc	 mov	 DWORD PTR _this$[ebp], ecx

; 473  : 		return (iterator(_Mylast));

  0000e	8b 45 fc	 mov	 eax, DWORD PTR _this$[ebp]
  00011	8b 48 08	 mov	 ecx, DWORD PTR [eax+8]
  00014	51		 push	 ecx
  00015	8b 4d 08	 mov	 ecx, DWORD PTR ___$ReturnUdt$[ebp]
  00018	e8 00 00 00 00	 call	 ??0iterator@?$vector@U?$pair@UTAB_ITEM@@PAVCWnd@@@std@@V?$allocator@U?$pair@UTAB_ITEM@@PAVCWnd@@@std@@@2@@std@@QAE@PAU?$pair@UTAB_ITEM@@PAVCWnd@@@2@@Z ; std::vector<std::pair<TAB_ITEM,CWnd *>,std::allocator<std::pair<TAB_ITEM,CWnd *> > >::iterator::iterator
  0001d	8b 45 08	 mov	 eax, DWORD PTR ___$ReturnUdt$[ebp]

; 474  : 		}

  00020	83 c4 04	 add	 esp, 4
  00023	3b ec		 cmp	 ebp, esp
  00025	e8 00 00 00 00	 call	 __RTC_CheckEsp
  0002a	8b e5		 mov	 esp, ebp
  0002c	5d		 pop	 ebp
  0002d	c2 04 00	 ret	 4
?end@?$vector@U?$pair@UTAB_ITEM@@PAVCWnd@@@std@@V?$allocator@U?$pair@UTAB_ITEM@@PAVCWnd@@@std@@@2@@std@@QAE?AViterator@12@XZ ENDP ; std::vector<std::pair<TAB_ITEM,CWnd *>,std::allocator<std::pair<TAB_ITEM,CWnd *> > >::end
; Function compile flags: /Odt /RTCsu
_TEXT	ENDS
;	COMDAT ?size@?$vector@U?$pair@UTAB_ITEM@@PAVCWnd@@@std@@V?$allocator@U?$pair@UTAB_ITEM@@PAVCWnd@@@std@@@2@@std@@QBEIXZ
_TEXT	SEGMENT
tv70 = -8						; size = 4
_this$ = -4						; size = 4
?size@?$vector@U?$pair@UTAB_ITEM@@PAVCWnd@@@std@@V?$allocator@U?$pair@UTAB_ITEM@@PAVCWnd@@@std@@@2@@std@@QBEIXZ PROC NEAR ; std::vector<std::pair<TAB_ITEM,CWnd *>,std::allocator<std::pair<TAB_ITEM,CWnd *> > >::size, COMDAT
; _this$ = ecx

; 515  : 		{	// return length of sequence

  00000	55		 push	 ebp
  00001	8b ec		 mov	 ebp, esp
  00003	83 ec 08	 sub	 esp, 8
  00006	c7 45 f8 cc cc
	cc cc		 mov	 DWORD PTR [ebp-8], -858993460 ; ccccccccH
  0000d	c7 45 fc cc cc
	cc cc		 mov	 DWORD PTR [ebp-4], -858993460 ; ccccccccH
  00014	89 4d fc	 mov	 DWORD PTR _this$[ebp], ecx

; 516  : 		return (_Myfirst == 0 ? 0 : _Mylast - _Myfirst);

  00017	8b 45 fc	 mov	 eax, DWORD PTR _this$[ebp]
  0001a	83 78 04 00	 cmp	 DWORD PTR [eax+4], 0
  0001e	75 09		 jne	 SHORT $L197564
  00020	c7 45 f8 00 00
	00 00		 mov	 DWORD PTR tv70[ebp], 0
  00027	eb 12		 jmp	 SHORT $L197565
$L197564:
  00029	8b 4d fc	 mov	 ecx, DWORD PTR _this$[ebp]
  0002c	8b 55 fc	 mov	 edx, DWORD PTR _this$[ebp]
  0002f	8b 41 08	 mov	 eax, DWORD PTR [ecx+8]
  00032	2b 42 04	 sub	 eax, DWORD PTR [edx+4]
  00035	c1 f8 06	 sar	 eax, 6
  00038	89 45 f8	 mov	 DWORD PTR tv70[ebp], eax
$L197565:
  0003b	8b 45 f8	 mov	 eax, DWORD PTR tv70[ebp]

; 517  : 		}

  0003e	8b e5		 mov	 esp, ebp
  00040	5d		 pop	 ebp
  00041	c3		 ret	 0
?size@?$vector@U?$pair@UTAB_ITEM@@PAVCWnd@@@std@@V?$allocator@U?$pair@UTAB_ITEM@@PAVCWnd@@@std@@@2@@std@@QBEIXZ ENDP ; std::vector<std::pair<TAB_ITEM,CWnd *>,std::allocator<std::pair<TAB_ITEM,CWnd *> > >::size
_TEXT	ENDS
PUBLIC	?capacity@?$vector@U?$pair@UTAB_ITEM@@PAVCWnd@@@std@@V?$allocator@U?$pair@UTAB_ITEM@@PAVCWnd@@@std@@@2@@std@@QBEIXZ ; std::vector<std::pair<TAB_ITEM,CWnd *>,std::allocator<std::pair<TAB_ITEM,CWnd *> > >::capacity
PUBLIC	?insert@?$vector@U?$pair@UTAB_ITEM@@PAVCWnd@@@std@@V?$allocator@U?$pair@UTAB_ITEM@@PAVCWnd@@@std@@@2@@std@@QAE?AViterator@12@V312@ABU?$pair@UTAB_ITEM@@PAVCWnd@@@2@@Z ; std::vector<std::pair<TAB_ITEM,CWnd *>,std::allocator<std::pair<TAB_ITEM,CWnd *> > >::insert
PUBLIC	?_Ufill@?$vector@U?$pair@UTAB_ITEM@@PAVCWnd@@@std@@V?$allocator@U?$pair@UTAB_ITEM@@PAVCWnd@@@std@@@2@@std@@IAEPAU?$pair@UTAB_ITEM@@PAVCWnd@@@2@PAU32@IABU32@@Z ; std::vector<std::pair<TAB_ITEM,CWnd *>,std::allocator<std::pair<TAB_ITEM,CWnd *> > >::_Ufill
; Function compile flags: /Odt /RTCsu
;	COMDAT ?push_back@?$vector@U?$pair@UTAB_ITEM@@PAVCWnd@@@std@@V?$allocator@U?$pair@UTAB_ITEM@@PAVCWnd@@@std@@@2@@std@@QAEXABU?$pair@UTAB_ITEM@@PAVCWnd@@@2@@Z
_TEXT	SEGMENT
$T197568 = -12						; size = 4
$T197567 = -8						; size = 4
_this$ = -4						; size = 4
__Val$ = 8						; size = 4
?push_back@?$vector@U?$pair@UTAB_ITEM@@PAVCWnd@@@std@@V?$allocator@U?$pair@UTAB_ITEM@@PAVCWnd@@@std@@@2@@std@@QAEXABU?$pair@UTAB_ITEM@@PAVCWnd@@@2@@Z PROC NEAR ; std::vector<std::pair<TAB_ITEM,CWnd *>,std::allocator<std::pair<TAB_ITEM,CWnd *> > >::push_back, COMDAT
; _this$ = ecx

; 579  : 		{	// insert element at end

  00000	55		 push	 ebp
  00001	8b ec		 mov	 ebp, esp
  00003	83 ec 0c	 sub	 esp, 12			; 0000000cH
  00006	56		 push	 esi
  00007	c7 45 f4 cc cc
	cc cc		 mov	 DWORD PTR [ebp-12], -858993460 ; ccccccccH
  0000e	c7 45 f8 cc cc
	cc cc		 mov	 DWORD PTR [ebp-8], -858993460 ; ccccccccH
  00015	c7 45 fc cc cc
	cc cc		 mov	 DWORD PTR [ebp-4], -858993460 ; ccccccccH
  0001c	89 4d fc	 mov	 DWORD PTR _this$[ebp], ecx

; 580  : 		if (size() < capacity())

  0001f	8b 4d fc	 mov	 ecx, DWORD PTR _this$[ebp]
  00022	e8 00 00 00 00	 call	 ?size@?$vector@U?$pair@UTAB_ITEM@@PAVCWnd@@@std@@V?$allocator@U?$pair@UTAB_ITEM@@PAVCWnd@@@std@@@2@@std@@QBEIXZ ; std::vector<std::pair<TAB_ITEM,CWnd *>,std::allocator<std::pair<TAB_ITEM,CWnd *> > >::size
  00027	8b f0		 mov	 esi, eax
  00029	8b 4d fc	 mov	 ecx, DWORD PTR _this$[ebp]
  0002c	e8 00 00 00 00	 call	 ?capacity@?$vector@U?$pair@UTAB_ITEM@@PAVCWnd@@@std@@V?$allocator@U?$pair@UTAB_ITEM@@PAVCWnd@@@std@@@2@@std@@QBEIXZ ; std::vector<std::pair<TAB_ITEM,CWnd *>,std::allocator<std::pair<TAB_ITEM,CWnd *> > >::capacity
  00031	3b f0		 cmp	 esi, eax
  00033	73 1d		 jae	 SHORT $L195637

; 581  : 			_Mylast = _Ufill(_Mylast, 1, _Val);

  00035	8b 45 08	 mov	 eax, DWORD PTR __Val$[ebp]
  00038	50		 push	 eax
  00039	6a 01		 push	 1
  0003b	8b 4d fc	 mov	 ecx, DWORD PTR _this$[ebp]
  0003e	8b 51 08	 mov	 edx, DWORD PTR [ecx+8]
  00041	52		 push	 edx
  00042	8b 4d fc	 mov	 ecx, DWORD PTR _this$[ebp]
  00045	e8 00 00 00 00	 call	 ?_Ufill@?$vector@U?$pair@UTAB_ITEM@@PAVCWnd@@@std@@V?$allocator@U?$pair@UTAB_ITEM@@PAVCWnd@@@std@@@2@@std@@IAEPAU?$pair@UTAB_ITEM@@PAVCWnd@@@2@PAU32@IABU32@@Z ; std::vector<std::pair<TAB_ITEM,CWnd *>,std::allocator<std::pair<TAB_ITEM,CWnd *> > >::_Ufill
  0004a	8b 4d fc	 mov	 ecx, DWORD PTR _this$[ebp]
  0004d	89 41 08	 mov	 DWORD PTR [ecx+8], eax

; 582  : 		else

  00050	eb 1f		 jmp	 SHORT $L195636
$L195637:

; 583  : 			insert(end(), _Val);

  00052	8b 55 08	 mov	 edx, DWORD PTR __Val$[ebp]
  00055	52		 push	 edx
  00056	8d 45 f8	 lea	 eax, DWORD PTR $T197567[ebp]
  00059	50		 push	 eax
  0005a	8b 4d fc	 mov	 ecx, DWORD PTR _this$[ebp]
  0005d	e8 00 00 00 00	 call	 ?end@?$vector@U?$pair@UTAB_ITEM@@PAVCWnd@@@std@@V?$allocator@U?$pair@UTAB_ITEM@@PAVCWnd@@@std@@@2@@std@@QAE?AViterator@12@XZ ; std::vector<std::pair<TAB_ITEM,CWnd *>,std::allocator<std::pair<TAB_ITEM,CWnd *> > >::end
  00062	8b 08		 mov	 ecx, DWORD PTR [eax]
  00064	51		 push	 ecx
  00065	8d 55 f4	 lea	 edx, DWORD PTR $T197568[ebp]
  00068	52		 push	 edx
  00069	8b 4d fc	 mov	 ecx, DWORD PTR _this$[ebp]
  0006c	e8 00 00 00 00	 call	 ?insert@?$vector@U?$pair@UTAB_ITEM@@PAVCWnd@@@std@@V?$allocator@U?$pair@UTAB_ITEM@@PAVCWnd@@@std@@@2@@std@@QAE?AViterator@12@V312@ABU?$pair@UTAB_ITEM@@PAVCWnd@@@2@@Z ; std::vector<std::pair<TAB_ITEM,CWnd *>,std::allocator<std::pair<TAB_ITEM,CWnd *> > >::insert
$L195636:

; 584  : 		}

  00071	5e		 pop	 esi
  00072	83 c4 0c	 add	 esp, 12			; 0000000cH
  00075	3b ec		 cmp	 ebp, esp
  00077	e8 00 00 00 00	 call	 __RTC_CheckEsp
  0007c	8b e5		 mov	 esp, ebp
  0007e	5d		 pop	 ebp
  0007f	c2 04 00	 ret	 4
?push_back@?$vector@U?$pair@UTAB_ITEM@@PAVCWnd@@@std@@V?$allocator@U?$pair@UTAB_ITEM@@PAVCWnd@@@std@@@2@@std@@QAEXABU?$pair@UTAB_ITEM@@PAVCWnd@@@2@@Z ENDP ; std::vector<std::pair<TAB_ITEM,CWnd *>,std::allocator<std::pair<TAB_ITEM,CWnd *> > >::push_back
_TEXT	ENDS
PUBLIC	??$copy@PAU?$pair@UTAB_ITEM@@PAVCWnd@@@std@@PAU12@@std@@YAPAU?$pair@UTAB_ITEM@@PAVCWnd@@@0@PAU10@00@Z ; std::copy<std::pair<TAB_ITEM,CWnd *> *,std::pair<TAB_ITEM,CWnd *> *>
PUBLIC	?_Destroy@?$vector@U?$pair@UTAB_ITEM@@PAVCWnd@@@std@@V?$allocator@U?$pair@UTAB_ITEM@@PAVCWnd@@@std@@@2@@std@@IAEXPAU?$pair@UTAB_ITEM@@PAVCWnd@@@2@0@Z ; std::vector<std::pair<TAB_ITEM,CWnd *>,std::allocator<std::pair<TAB_ITEM,CWnd *> > >::_Destroy
; Function compile flags: /Odt /RTCsu
;	COMDAT ?erase@?$vector@U?$pair@UTAB_ITEM@@PAVCWnd@@@std@@V?$allocator@U?$pair@UTAB_ITEM@@PAVCWnd@@@std@@@2@@std@@QAE?AViterator@12@V312@@Z
_TEXT	SEGMENT
_this$ = -4						; size = 4
___$ReturnUdt$ = 8					; size = 4
__Where$ = 12						; size = 4
?erase@?$vector@U?$pair@UTAB_ITEM@@PAVCWnd@@@std@@V?$allocator@U?$pair@UTAB_ITEM@@PAVCWnd@@@std@@@2@@std@@QAE?AViterator@12@V312@@Z PROC NEAR ; std::vector<std::pair<TAB_ITEM,CWnd *>,std::allocator<std::pair<TAB_ITEM,CWnd *> > >::erase, COMDAT
; _this$ = ecx

; 723  : 		{	// erase element at where

  00000	55		 push	 ebp
  00001	8b ec		 mov	 ebp, esp
  00003	51		 push	 ecx
  00004	c7 45 fc cc cc
	cc cc		 mov	 DWORD PTR [ebp-4], -858993460 ; ccccccccH
  0000b	89 4d fc	 mov	 DWORD PTR _this$[ebp], ecx

; 724  : 		copy(_ITER_BASE(_Where) + 1, _Mylast, _ITER_BASE(_Where));

  0000e	8b 45 0c	 mov	 eax, DWORD PTR __Where$[ebp]
  00011	50		 push	 eax
  00012	8b 4d fc	 mov	 ecx, DWORD PTR _this$[ebp]
  00015	8b 51 08	 mov	 edx, DWORD PTR [ecx+8]
  00018	52		 push	 edx
  00019	8b 45 0c	 mov	 eax, DWORD PTR __Where$[ebp]
  0001c	83 c0 40	 add	 eax, 64			; 00000040H
  0001f	50		 push	 eax
  00020	e8 00 00 00 00	 call	 ??$copy@PAU?$pair@UTAB_ITEM@@PAVCWnd@@@std@@PAU12@@std@@YAPAU?$pair@UTAB_ITEM@@PAVCWnd@@@0@PAU10@00@Z ; std::copy<std::pair<TAB_ITEM,CWnd *> *,std::pair<TAB_ITEM,CWnd *> *>
  00025	83 c4 0c	 add	 esp, 12			; 0000000cH

; 725  : 		_Destroy(_Mylast - 1, _Mylast);

  00028	8b 4d fc	 mov	 ecx, DWORD PTR _this$[ebp]
  0002b	8b 51 08	 mov	 edx, DWORD PTR [ecx+8]
  0002e	52		 push	 edx
  0002f	8b 45 fc	 mov	 eax, DWORD PTR _this$[ebp]
  00032	8b 48 08	 mov	 ecx, DWORD PTR [eax+8]
  00035	83 e9 40	 sub	 ecx, 64			; 00000040H
  00038	51		 push	 ecx
  00039	8b 4d fc	 mov	 ecx, DWORD PTR _this$[ebp]
  0003c	e8 00 00 00 00	 call	 ?_Destroy@?$vector@U?$pair@UTAB_ITEM@@PAVCWnd@@@std@@V?$allocator@U?$pair@UTAB_ITEM@@PAVCWnd@@@std@@@2@@std@@IAEXPAU?$pair@UTAB_ITEM@@PAVCWnd@@@2@0@Z ; std::vector<std::pair<TAB_ITEM,CWnd *>,std::allocator<std::pair<TAB_ITEM,CWnd *> > >::_Destroy

; 726  : 		--_Mylast;

  00041	8b 55 fc	 mov	 edx, DWORD PTR _this$[ebp]
  00044	8b 42 08	 mov	 eax, DWORD PTR [edx+8]
  00047	83 e8 40	 sub	 eax, 64			; 00000040H
  0004a	8b 4d fc	 mov	 ecx, DWORD PTR _this$[ebp]
  0004d	89 41 08	 mov	 DWORD PTR [ecx+8], eax

; 727  : 		return (_Where);

  00050	8b 55 08	 mov	 edx, DWORD PTR ___$ReturnUdt$[ebp]
  00053	8b 45 0c	 mov	 eax, DWORD PTR __Where$[ebp]
  00056	89 02		 mov	 DWORD PTR [edx], eax
  00058	8b 45 08	 mov	 eax, DWORD PTR ___$ReturnUdt$[ebp]

; 728  : 		}

  0005b	83 c4 04	 add	 esp, 4
  0005e	3b ec		 cmp	 ebp, esp
  00060	e8 00 00 00 00	 call	 __RTC_CheckEsp
  00065	8b e5		 mov	 esp, ebp
  00067	5d		 pop	 ebp
  00068	c2 08 00	 ret	 8
?erase@?$vector@U?$pair@UTAB_ITEM@@PAVCWnd@@@std@@V?$allocator@U?$pair@UTAB_ITEM@@PAVCWnd@@@std@@@2@@std@@QAE?AViterator@12@V312@@Z ENDP ; std::vector<std::pair<TAB_ITEM,CWnd *>,std::allocator<std::pair<TAB_ITEM,CWnd *> > >::erase
; Function compile flags: /Odt /RTCsu
; File d:\program files (x86)\microsoft visual studio .net 2003\vc7\include\utility
_TEXT	ENDS
;	COMDAT ??0?$pair@UTAB_ITEM@@PAVCWnd@@@std@@QAE@XZ
_TEXT	SEGMENT
_this$ = -4						; size = 4
??0?$pair@UTAB_ITEM@@PAVCWnd@@@std@@QAE@XZ PROC NEAR	; std::pair<TAB_ITEM,CWnd *>::pair<TAB_ITEM,CWnd *>, COMDAT
; _this$ = ecx

; 29   : 		{	// construct from defaults

  00000	55		 push	 ebp
  00001	8b ec		 mov	 ebp, esp
  00003	51		 push	 ecx
  00004	c7 45 fc cc cc
	cc cc		 mov	 DWORD PTR [ebp-4], -858993460 ; ccccccccH
  0000b	89 4d fc	 mov	 DWORD PTR _this$[ebp], ecx
  0000e	8b 4d fc	 mov	 ecx, DWORD PTR _this$[ebp]
  00011	e8 00 00 00 00	 call	 ??0TAB_ITEM@@QAE@XZ
  00016	8b 45 fc	 mov	 eax, DWORD PTR _this$[ebp]
  00019	c7 40 3c 00 00
	00 00		 mov	 DWORD PTR [eax+60], 0

; 30   : 		}

  00020	8b 45 fc	 mov	 eax, DWORD PTR _this$[ebp]
  00023	83 c4 04	 add	 esp, 4
  00026	3b ec		 cmp	 ebp, esp
  00028	e8 00 00 00 00	 call	 __RTC_CheckEsp
  0002d	8b e5		 mov	 esp, ebp
  0002f	5d		 pop	 ebp
  00030	c3		 ret	 0
??0?$pair@UTAB_ITEM@@PAVCWnd@@@std@@QAE@XZ ENDP		; std::pair<TAB_ITEM,CWnd *>::pair<TAB_ITEM,CWnd *>
_TEXT	ENDS
PUBLIC	??Diterator@?$vector@U?$pair@UTAB_ITEM@@PAVCWnd@@@std@@V?$allocator@U?$pair@UTAB_ITEM@@PAVCWnd@@@std@@@2@@std@@QBEAAU?$pair@UTAB_ITEM@@PAVCWnd@@@2@XZ ; std::vector<std::pair<TAB_ITEM,CWnd *>,std::allocator<std::pair<TAB_ITEM,CWnd *> > >::iterator::operator*
; Function compile flags: /Odt /RTCsu
; File d:\program files (x86)\microsoft visual studio .net 2003\vc7\include\vector
;	COMDAT ??Citerator@?$vector@U?$pair@UTAB_ITEM@@PAVCWnd@@@std@@V?$allocator@U?$pair@UTAB_ITEM@@PAVCWnd@@@std@@@2@@std@@QBEPAU?$pair@UTAB_ITEM@@PAVCWnd@@@2@XZ
_TEXT	SEGMENT
_this$ = -4						; size = 4
??Citerator@?$vector@U?$pair@UTAB_ITEM@@PAVCWnd@@@std@@V?$allocator@U?$pair@UTAB_ITEM@@PAVCWnd@@@std@@@2@@std@@QBEPAU?$pair@UTAB_ITEM@@PAVCWnd@@@2@XZ PROC NEAR ; std::vector<std::pair<TAB_ITEM,CWnd *>,std::allocator<std::pair<TAB_ITEM,CWnd *> > >::iterator::operator->, COMDAT
; _this$ = ecx

; 224  : 			{	// return pointer to class object

  00000	55		 push	 ebp
  00001	8b ec		 mov	 ebp, esp
  00003	51		 push	 ecx
  00004	c7 45 fc cc cc
	cc cc		 mov	 DWORD PTR [ebp-4], -858993460 ; ccccccccH
  0000b	89 4d fc	 mov	 DWORD PTR _this$[ebp], ecx

; 225  : 			return (&**this);

  0000e	8b 4d fc	 mov	 ecx, DWORD PTR _this$[ebp]
  00011	e8 00 00 00 00	 call	 ??Diterator@?$vector@U?$pair@UTAB_ITEM@@PAVCWnd@@@std@@V?$allocator@U?$pair@UTAB_ITEM@@PAVCWnd@@@std@@@2@@std@@QBEAAU?$pair@UTAB_ITEM@@PAVCWnd@@@2@XZ ; std::vector<std::pair<TAB_ITEM,CWnd *>,std::allocator<std::pair<TAB_ITEM,CWnd *> > >::iterator::operator*

; 226  : 			}

  00016	83 c4 04	 add	 esp, 4
  00019	3b ec		 cmp	 ebp, esp
  0001b	e8 00 00 00 00	 call	 __RTC_CheckEsp
  00020	8b e5		 mov	 esp, ebp
  00022	5d		 pop	 ebp
  00023	c3		 ret	 0
??Citerator@?$vector@U?$pair@UTAB_ITEM@@PAVCWnd@@@std@@V?$allocator@U?$pair@UTAB_ITEM@@PAVCWnd@@@std@@@2@@std@@QBEPAU?$pair@UTAB_ITEM@@PAVCWnd@@@2@XZ ENDP ; std::vector<std::pair<TAB_ITEM,CWnd *>,std::allocator<std::pair<TAB_ITEM,CWnd *> > >::iterator::operator->
_TEXT	ENDS
PUBLIC	??Eiterator@?$vector@U?$pair@UTAB_ITEM@@PAVCWnd@@@std@@V?$allocator@U?$pair@UTAB_ITEM@@PAVCWnd@@@std@@@2@@std@@QAEAAV012@XZ ; std::vector<std::pair<TAB_ITEM,CWnd *>,std::allocator<std::pair<TAB_ITEM,CWnd *> > >::iterator::operator++
; Function compile flags: /Odt /RTCsu
;	COMDAT ??Eiterator@?$vector@U?$pair@UTAB_ITEM@@PAVCWnd@@@std@@V?$allocator@U?$pair@UTAB_ITEM@@PAVCWnd@@@std@@@2@@std@@QAE?AV012@H@Z
_TEXT	SEGMENT
__Tmp$ = -12						; size = 4
_this$ = -4						; size = 4
___$ReturnUdt$ = 8					; size = 4
___formal$ = 12						; size = 4
??Eiterator@?$vector@U?$pair@UTAB_ITEM@@PAVCWnd@@@std@@V?$allocator@U?$pair@UTAB_ITEM@@PAVCWnd@@@std@@@2@@std@@QAE?AV012@H@Z PROC NEAR ; std::vector<std::pair<TAB_ITEM,CWnd *>,std::allocator<std::pair<TAB_ITEM,CWnd *> > >::iterator::operator++, COMDAT
; _this$ = ecx

; 235  : 			{	// postincrement

  00000	55		 push	 ebp
  00001	8b ec		 mov	 ebp, esp
  00003	83 ec 10	 sub	 esp, 16			; 00000010H
  00006	b8 cc cc cc cc	 mov	 eax, -858993460		; ccccccccH
  0000b	89 45 f0	 mov	 DWORD PTR [ebp-16], eax
  0000e	89 45 f4	 mov	 DWORD PTR [ebp-12], eax
  00011	89 45 f8	 mov	 DWORD PTR [ebp-8], eax
  00014	89 45 fc	 mov	 DWORD PTR [ebp-4], eax
  00017	89 4d fc	 mov	 DWORD PTR _this$[ebp], ecx

; 236  : 			iterator _Tmp = *this;

  0001a	8b 45 fc	 mov	 eax, DWORD PTR _this$[ebp]
  0001d	8b 08		 mov	 ecx, DWORD PTR [eax]
  0001f	89 4d f4	 mov	 DWORD PTR __Tmp$[ebp], ecx

; 237  : 			++*this;

  00022	8b 4d fc	 mov	 ecx, DWORD PTR _this$[ebp]
  00025	e8 00 00 00 00	 call	 ??Eiterator@?$vector@U?$pair@UTAB_ITEM@@PAVCWnd@@@std@@V?$allocator@U?$pair@UTAB_ITEM@@PAVCWnd@@@std@@@2@@std@@QAEAAV012@XZ ; std::vector<std::pair<TAB_ITEM,CWnd *>,std::allocator<std::pair<TAB_ITEM,CWnd *> > >::iterator::operator++

; 238  : 			return (_Tmp);

  0002a	8b 55 08	 mov	 edx, DWORD PTR ___$ReturnUdt$[ebp]
  0002d	8b 45 f4	 mov	 eax, DWORD PTR __Tmp$[ebp]
  00030	89 02		 mov	 DWORD PTR [edx], eax
  00032	8b 45 08	 mov	 eax, DWORD PTR ___$ReturnUdt$[ebp]

; 239  : 			}

  00035	52		 push	 edx
  00036	8b cd		 mov	 ecx, ebp
  00038	50		 push	 eax
  00039	8d 15 00 00 00
	00		 lea	 edx, DWORD PTR $L197576
  0003f	e8 00 00 00 00	 call	 @_RTC_CheckStackVars@8
  00044	58		 pop	 eax
  00045	5a		 pop	 edx
  00046	83 c4 10	 add	 esp, 16			; 00000010H
  00049	3b ec		 cmp	 ebp, esp
  0004b	e8 00 00 00 00	 call	 __RTC_CheckEsp
  00050	8b e5		 mov	 esp, ebp
  00052	5d		 pop	 ebp
  00053	c2 08 00	 ret	 8
$L197576:
  00056	01 00 00 00	 DD	 1
  0005a	00 00 00 00	 DD	 $L197575
$L197575:
  0005e	f4 ff ff ff	 DD	 -12			; fffffff4H
  00062	04 00 00 00	 DD	 4
  00066	00 00 00 00	 DD	 $L197574
$L197574:
  0006a	5f		 DB	 95			; 0000005fH
  0006b	54		 DB	 84			; 00000054H
  0006c	6d		 DB	 109			; 0000006dH
  0006d	70		 DB	 112			; 00000070H
  0006e	00		 DB	 0
??Eiterator@?$vector@U?$pair@UTAB_ITEM@@PAVCWnd@@@std@@V?$allocator@U?$pair@UTAB_ITEM@@PAVCWnd@@@std@@@2@@std@@QAE?AV012@H@Z ENDP ; std::vector<std::pair<TAB_ITEM,CWnd *>,std::allocator<std::pair<TAB_ITEM,CWnd *> > >::iterator::operator++
_TEXT	ENDS
PUBLIC	??8const_iterator@?$vector@U?$pair@UTAB_ITEM@@PAVCWnd@@@std@@V?$allocator@U?$pair@UTAB_ITEM@@PAVCWnd@@@std@@@2@@std@@QBE_NABV012@@Z ; std::vector<std::pair<TAB_ITEM,CWnd *>,std::allocator<std::pair<TAB_ITEM,CWnd *> > >::const_iterator::operator==
; Function compile flags: /Odt /RTCsu
;	COMDAT ??9const_iterator@?$vector@U?$pair@UTAB_ITEM@@PAVCWnd@@@std@@V?$allocator@U?$pair@UTAB_ITEM@@PAVCWnd@@@std@@@2@@std@@QBE_NABV012@@Z
_TEXT	SEGMENT
_this$ = -4						; size = 4
__Right$ = 8						; size = 4
??9const_iterator@?$vector@U?$pair@UTAB_ITEM@@PAVCWnd@@@std@@V?$allocator@U?$pair@UTAB_ITEM@@PAVCWnd@@@std@@@2@@std@@QBE_NABV012@@Z PROC NEAR ; std::vector<std::pair<TAB_ITEM,CWnd *>,std::allocator<std::pair<TAB_ITEM,CWnd *> > >::const_iterator::operator!=, COMDAT
; _this$ = ecx

; 159  : 			{	// test for iterator inequality

  00000	55		 push	 ebp
  00001	8b ec		 mov	 ebp, esp
  00003	51		 push	 ecx
  00004	c7 45 fc cc cc
	cc cc		 mov	 DWORD PTR [ebp-4], -858993460 ; ccccccccH
  0000b	89 4d fc	 mov	 DWORD PTR _this$[ebp], ecx

; 160  : 			return (!(*this == _Right));

  0000e	8b 45 08	 mov	 eax, DWORD PTR __Right$[ebp]
  00011	50		 push	 eax
  00012	8b 4d fc	 mov	 ecx, DWORD PTR _this$[ebp]
  00015	e8 00 00 00 00	 call	 ??8const_iterator@?$vector@U?$pair@UTAB_ITEM@@PAVCWnd@@@std@@V?$allocator@U?$pair@UTAB_ITEM@@PAVCWnd@@@std@@@2@@std@@QBE_NABV012@@Z ; std::vector<std::pair<TAB_ITEM,CWnd *>,std::allocator<std::pair<TAB_ITEM,CWnd *> > >::const_iterator::operator==
  0001a	0f b6 c0	 movzx	 eax, al
  0001d	f7 d8		 neg	 eax
  0001f	1b c0		 sbb	 eax, eax
  00021	40		 inc	 eax

; 161  : 			}

  00022	83 c4 04	 add	 esp, 4
  00025	3b ec		 cmp	 ebp, esp
  00027	e8 00 00 00 00	 call	 __RTC_CheckEsp
  0002c	8b e5		 mov	 esp, ebp
  0002e	5d		 pop	 ebp
  0002f	c2 04 00	 ret	 4
??9const_iterator@?$vector@U?$pair@UTAB_ITEM@@PAVCWnd@@@std@@V?$allocator@U?$pair@UTAB_ITEM@@PAVCWnd@@@std@@@2@@std@@QBE_NABV012@@Z ENDP ; std::vector<std::pair<TAB_ITEM,CWnd *>,std::allocator<std::pair<TAB_ITEM,CWnd *> > >::const_iterator::operator!=
; Function compile flags: /Odt /RTCsu
_TEXT	ENDS
;	COMDAT ?capacity@?$vector@U?$pair@UTAB_ITEM@@PAVCWnd@@@std@@V?$allocator@U?$pair@UTAB_ITEM@@PAVCWnd@@@std@@@2@@std@@QBEIXZ
_TEXT	SEGMENT
tv70 = -8						; size = 4
_this$ = -4						; size = 4
?capacity@?$vector@U?$pair@UTAB_ITEM@@PAVCWnd@@@std@@V?$allocator@U?$pair@UTAB_ITEM@@PAVCWnd@@@std@@@2@@std@@QBEIXZ PROC NEAR ; std::vector<std::pair<TAB_ITEM,CWnd *>,std::allocator<std::pair<TAB_ITEM,CWnd *> > >::capacity, COMDAT
; _this$ = ecx

; 457  : 		{	// return current length of allocated storage

  00000	55		 push	 ebp
  00001	8b ec		 mov	 ebp, esp
  00003	83 ec 08	 sub	 esp, 8
  00006	c7 45 f8 cc cc
	cc cc		 mov	 DWORD PTR [ebp-8], -858993460 ; ccccccccH
  0000d	c7 45 fc cc cc
	cc cc		 mov	 DWORD PTR [ebp-4], -858993460 ; ccccccccH
  00014	89 4d fc	 mov	 DWORD PTR _this$[ebp], ecx

; 458  : 		return (_Myfirst == 0 ? 0 : _Myend - _Myfirst);

  00017	8b 45 fc	 mov	 eax, DWORD PTR _this$[ebp]
  0001a	83 78 04 00	 cmp	 DWORD PTR [eax+4], 0
  0001e	75 09		 jne	 SHORT $L197579
  00020	c7 45 f8 00 00
	00 00		 mov	 DWORD PTR tv70[ebp], 0
  00027	eb 12		 jmp	 SHORT $L197580
$L197579:
  00029	8b 4d fc	 mov	 ecx, DWORD PTR _this$[ebp]
  0002c	8b 55 fc	 mov	 edx, DWORD PTR _this$[ebp]
  0002f	8b 41 0c	 mov	 eax, DWORD PTR [ecx+12]
  00032	2b 42 04	 sub	 eax, DWORD PTR [edx+4]
  00035	c1 f8 06	 sar	 eax, 6
  00038	89 45 f8	 mov	 DWORD PTR tv70[ebp], eax
$L197580:
  0003b	8b 45 f8	 mov	 eax, DWORD PTR tv70[ebp]

; 459  : 		}

  0003e	8b e5		 mov	 esp, ebp
  00040	5d		 pop	 ebp
  00041	c3		 ret	 0
?capacity@?$vector@U?$pair@UTAB_ITEM@@PAVCWnd@@@std@@V?$allocator@U?$pair@UTAB_ITEM@@PAVCWnd@@@std@@@2@@std@@QBEIXZ ENDP ; std::vector<std::pair<TAB_ITEM,CWnd *>,std::allocator<std::pair<TAB_ITEM,CWnd *> > >::capacity
_TEXT	ENDS
PUBLIC	??Hiterator@?$vector@U?$pair@UTAB_ITEM@@PAVCWnd@@@std@@V?$allocator@U?$pair@UTAB_ITEM@@PAVCWnd@@@std@@@2@@std@@QBE?AV012@H@Z ; std::vector<std::pair<TAB_ITEM,CWnd *>,std::allocator<std::pair<TAB_ITEM,CWnd *> > >::iterator::operator+
PUBLIC	??Giterator@?$vector@U?$pair@UTAB_ITEM@@PAVCWnd@@@std@@V?$allocator@U?$pair@UTAB_ITEM@@PAVCWnd@@@std@@@2@@std@@QBEHABVconst_iterator@12@@Z ; std::vector<std::pair<TAB_ITEM,CWnd *>,std::allocator<std::pair<TAB_ITEM,CWnd *> > >::iterator::operator-
PUBLIC	?_Insert_n@?$vector@U?$pair@UTAB_ITEM@@PAVCWnd@@@std@@V?$allocator@U?$pair@UTAB_ITEM@@PAVCWnd@@@std@@@2@@std@@IAEXViterator@12@IABU?$pair@UTAB_ITEM@@PAVCWnd@@@2@@Z ; std::vector<std::pair<TAB_ITEM,CWnd *>,std::allocator<std::pair<TAB_ITEM,CWnd *> > >::_Insert_n
; Function compile flags: /Odt /RTCsu
;	COMDAT ?insert@?$vector@U?$pair@UTAB_ITEM@@PAVCWnd@@@std@@V?$allocator@U?$pair@UTAB_ITEM@@PAVCWnd@@@std@@@2@@std@@QAE?AViterator@12@V312@ABU?$pair@UTAB_ITEM@@PAVCWnd@@@2@@Z
_TEXT	SEGMENT
tv73 = -20						; size = 4
$T197585 = -16						; size = 4
$T197582 = -12						; size = 4
__Off$ = -8						; size = 4
_this$ = -4						; size = 4
___$ReturnUdt$ = 8					; size = 4
__Where$ = 12						; size = 4
__Val$ = 16						; size = 4
?insert@?$vector@U?$pair@UTAB_ITEM@@PAVCWnd@@@std@@V?$allocator@U?$pair@UTAB_ITEM@@PAVCWnd@@@std@@@2@@std@@QAE?AViterator@12@V312@ABU?$pair@UTAB_ITEM@@PAVCWnd@@@2@@Z PROC NEAR ; std::vector<std::pair<TAB_ITEM,CWnd *>,std::allocator<std::pair<TAB_ITEM,CWnd *> > >::insert, COMDAT
; _this$ = ecx

; 620  : 		{	// insert _Val at _Where

  00000	55		 push	 ebp
  00001	8b ec		 mov	 ebp, esp
  00003	83 ec 14	 sub	 esp, 20			; 00000014H
  00006	b8 cc cc cc cc	 mov	 eax, -858993460		; ccccccccH
  0000b	89 45 ec	 mov	 DWORD PTR [ebp-20], eax
  0000e	89 45 f0	 mov	 DWORD PTR [ebp-16], eax
  00011	89 45 f4	 mov	 DWORD PTR [ebp-12], eax
  00014	89 45 f8	 mov	 DWORD PTR [ebp-8], eax
  00017	89 45 fc	 mov	 DWORD PTR [ebp-4], eax
  0001a	89 4d fc	 mov	 DWORD PTR _this$[ebp], ecx

; 621  : 		size_type _Off = size() == 0 ? 0 : _Where - begin();

  0001d	8b 4d fc	 mov	 ecx, DWORD PTR _this$[ebp]
  00020	e8 00 00 00 00	 call	 ?size@?$vector@U?$pair@UTAB_ITEM@@PAVCWnd@@@std@@V?$allocator@U?$pair@UTAB_ITEM@@PAVCWnd@@@std@@@2@@std@@QBEIXZ ; std::vector<std::pair<TAB_ITEM,CWnd *>,std::allocator<std::pair<TAB_ITEM,CWnd *> > >::size
  00025	85 c0		 test	 eax, eax
  00027	75 09		 jne	 SHORT $L197583
  00029	c7 45 ec 00 00
	00 00		 mov	 DWORD PTR tv73[ebp], 0
  00030	eb 18		 jmp	 SHORT $L197584
$L197583:
  00032	8d 45 f4	 lea	 eax, DWORD PTR $T197582[ebp]
  00035	50		 push	 eax
  00036	8b 4d fc	 mov	 ecx, DWORD PTR _this$[ebp]
  00039	e8 00 00 00 00	 call	 ?begin@?$vector@U?$pair@UTAB_ITEM@@PAVCWnd@@@std@@V?$allocator@U?$pair@UTAB_ITEM@@PAVCWnd@@@std@@@2@@std@@QAE?AViterator@12@XZ ; std::vector<std::pair<TAB_ITEM,CWnd *>,std::allocator<std::pair<TAB_ITEM,CWnd *> > >::begin
  0003e	50		 push	 eax
  0003f	8d 4d 0c	 lea	 ecx, DWORD PTR __Where$[ebp]
  00042	e8 00 00 00 00	 call	 ??Giterator@?$vector@U?$pair@UTAB_ITEM@@PAVCWnd@@@std@@V?$allocator@U?$pair@UTAB_ITEM@@PAVCWnd@@@std@@@2@@std@@QBEHABVconst_iterator@12@@Z ; std::vector<std::pair<TAB_ITEM,CWnd *>,std::allocator<std::pair<TAB_ITEM,CWnd *> > >::iterator::operator-
  00047	89 45 ec	 mov	 DWORD PTR tv73[ebp], eax
$L197584:
  0004a	8b 4d ec	 mov	 ecx, DWORD PTR tv73[ebp]
  0004d	89 4d f8	 mov	 DWORD PTR __Off$[ebp], ecx

; 622  : 		_Insert_n(_Where, (size_type)1, _Val);

  00050	8b 55 10	 mov	 edx, DWORD PTR __Val$[ebp]
  00053	52		 push	 edx
  00054	6a 01		 push	 1
  00056	8b 45 0c	 mov	 eax, DWORD PTR __Where$[ebp]
  00059	50		 push	 eax
  0005a	8b 4d fc	 mov	 ecx, DWORD PTR _this$[ebp]
  0005d	e8 00 00 00 00	 call	 ?_Insert_n@?$vector@U?$pair@UTAB_ITEM@@PAVCWnd@@@std@@V?$allocator@U?$pair@UTAB_ITEM@@PAVCWnd@@@std@@@2@@std@@IAEXViterator@12@IABU?$pair@UTAB_ITEM@@PAVCWnd@@@2@@Z ; std::vector<std::pair<TAB_ITEM,CWnd *>,std::allocator<std::pair<TAB_ITEM,CWnd *> > >::_Insert_n

; 623  : 		return (begin() + _Off);

  00062	8b 4d f8	 mov	 ecx, DWORD PTR __Off$[ebp]
  00065	51		 push	 ecx
  00066	8b 55 08	 mov	 edx, DWORD PTR ___$ReturnUdt$[ebp]
  00069	52		 push	 edx
  0006a	8d 45 f0	 lea	 eax, DWORD PTR $T197585[ebp]
  0006d	50		 push	 eax
  0006e	8b 4d fc	 mov	 ecx, DWORD PTR _this$[ebp]
  00071	e8 00 00 00 00	 call	 ?begin@?$vector@U?$pair@UTAB_ITEM@@PAVCWnd@@@std@@V?$allocator@U?$pair@UTAB_ITEM@@PAVCWnd@@@std@@@2@@std@@QAE?AViterator@12@XZ ; std::vector<std::pair<TAB_ITEM,CWnd *>,std::allocator<std::pair<TAB_ITEM,CWnd *> > >::begin
  00076	8b c8		 mov	 ecx, eax
  00078	e8 00 00 00 00	 call	 ??Hiterator@?$vector@U?$pair@UTAB_ITEM@@PAVCWnd@@@std@@V?$allocator@U?$pair@UTAB_ITEM@@PAVCWnd@@@std@@@2@@std@@QBE?AV012@H@Z ; std::vector<std::pair<TAB_ITEM,CWnd *>,std::allocator<std::pair<TAB_ITEM,CWnd *> > >::iterator::operator+
  0007d	8b 45 08	 mov	 eax, DWORD PTR ___$ReturnUdt$[ebp]

; 624  : 		}

  00080	83 c4 14	 add	 esp, 20			; 00000014H
  00083	3b ec		 cmp	 ebp, esp
  00085	e8 00 00 00 00	 call	 __RTC_CheckEsp
  0008a	8b e5		 mov	 esp, ebp
  0008c	5d		 pop	 ebp
  0008d	c2 0c 00	 ret	 12			; 0000000cH
?insert@?$vector@U?$pair@UTAB_ITEM@@PAVCWnd@@@std@@V?$allocator@U?$pair@UTAB_ITEM@@PAVCWnd@@@std@@@2@@std@@QAE?AViterator@12@V312@ABU?$pair@UTAB_ITEM@@PAVCWnd@@@2@@Z ENDP ; std::vector<std::pair<TAB_ITEM,CWnd *>,std::allocator<std::pair<TAB_ITEM,CWnd *> > >::insert
_TEXT	ENDS
PUBLIC	?allocate@?$allocator@U?$pair@UTAB_ITEM@@PAVCWnd@@@std@@@std@@QAEPAU?$pair@UTAB_ITEM@@PAVCWnd@@@2@I@Z ; std::allocator<std::pair<TAB_ITEM,CWnd *> >::allocate
PUBLIC	?max_size@?$vector@U?$pair@UTAB_ITEM@@PAVCWnd@@@std@@V?$allocator@U?$pair@UTAB_ITEM@@PAVCWnd@@@std@@@2@@std@@QBEIXZ ; std::vector<std::pair<TAB_ITEM,CWnd *>,std::allocator<std::pair<TAB_ITEM,CWnd *> > >::max_size
PUBLIC	?_Xlen@?$vector@U?$pair@UTAB_ITEM@@PAVCWnd@@@std@@V?$allocator@U?$pair@UTAB_ITEM@@PAVCWnd@@@std@@@2@@std@@IBEXXZ ; std::vector<std::pair<TAB_ITEM,CWnd *>,std::allocator<std::pair<TAB_ITEM,CWnd *> > >::_Xlen
; Function compile flags: /Odt /RTCsu
;	COMDAT ?_Buy@?$vector@U?$pair@UTAB_ITEM@@PAVCWnd@@@std@@V?$allocator@U?$pair@UTAB_ITEM@@PAVCWnd@@@std@@@2@@std@@IAE_NI@Z
_TEXT	SEGMENT
_this$ = -4						; size = 4
__Capacity$ = 8						; size = 4
?_Buy@?$vector@U?$pair@UTAB_ITEM@@PAVCWnd@@@std@@V?$allocator@U?$pair@UTAB_ITEM@@PAVCWnd@@@std@@@2@@std@@IAE_NI@Z PROC NEAR ; std::vector<std::pair<TAB_ITEM,CWnd *>,std::allocator<std::pair<TAB_ITEM,CWnd *> > >::_Buy, COMDAT
; _this$ = ecx

; 770  : 		{	// allocate array with _Capacity elements

  00000	55		 push	 ebp
  00001	8b ec		 mov	 ebp, esp
  00003	51		 push	 ecx
  00004	c7 45 fc cc cc
	cc cc		 mov	 DWORD PTR [ebp-4], -858993460 ; ccccccccH
  0000b	89 4d fc	 mov	 DWORD PTR _this$[ebp], ecx

; 771  : 		_Myfirst = 0, _Mylast = 0, _Myend = 0;

  0000e	8b 45 fc	 mov	 eax, DWORD PTR _this$[ebp]
  00011	c7 40 04 00 00
	00 00		 mov	 DWORD PTR [eax+4], 0
  00018	8b 4d fc	 mov	 ecx, DWORD PTR _this$[ebp]
  0001b	c7 41 08 00 00
	00 00		 mov	 DWORD PTR [ecx+8], 0
  00022	8b 55 fc	 mov	 edx, DWORD PTR _this$[ebp]
  00025	c7 42 0c 00 00
	00 00		 mov	 DWORD PTR [edx+12], 0

; 772  : 		if (_Capacity == 0)

  0002c	83 7d 08 00	 cmp	 DWORD PTR __Capacity$[ebp], 0
  00030	75 04		 jne	 SHORT $L195726

; 773  : 			return (false);

  00032	32 c0		 xor	 al, al
  00034	eb 49		 jmp	 SHORT $L195725
$L195726:

; 774  : 		else if (max_size() < _Capacity)

  00036	8b 4d fc	 mov	 ecx, DWORD PTR _this$[ebp]
  00039	e8 00 00 00 00	 call	 ?max_size@?$vector@U?$pair@UTAB_ITEM@@PAVCWnd@@@std@@V?$allocator@U?$pair@UTAB_ITEM@@PAVCWnd@@@std@@@2@@std@@QBEIXZ ; std::vector<std::pair<TAB_ITEM,CWnd *>,std::allocator<std::pair<TAB_ITEM,CWnd *> > >::max_size
  0003e	3b 45 08	 cmp	 eax, DWORD PTR __Capacity$[ebp]
  00041	73 0a		 jae	 SHORT $L195728

; 775  : 			_Xlen();	// result too long

  00043	8b 4d fc	 mov	 ecx, DWORD PTR _this$[ebp]
  00046	e8 00 00 00 00	 call	 ?_Xlen@?$vector@U?$pair@UTAB_ITEM@@PAVCWnd@@@std@@V?$allocator@U?$pair@UTAB_ITEM@@PAVCWnd@@@std@@@2@@std@@IBEXXZ ; std::vector<std::pair<TAB_ITEM,CWnd *>,std::allocator<std::pair<TAB_ITEM,CWnd *> > >::_Xlen

; 776  : 		else

  0004b	eb 30		 jmp	 SHORT $L195727
$L195728:

; 777  : 			{	// nonempty array, allocate storage
; 778  : 			_Myfirst = this->_Alval.allocate(_Capacity);

  0004d	8b 45 08	 mov	 eax, DWORD PTR __Capacity$[ebp]
  00050	50		 push	 eax
  00051	8b 4d fc	 mov	 ecx, DWORD PTR _this$[ebp]
  00054	e8 00 00 00 00	 call	 ?allocate@?$allocator@U?$pair@UTAB_ITEM@@PAVCWnd@@@std@@@std@@QAEPAU?$pair@UTAB_ITEM@@PAVCWnd@@@2@I@Z ; std::allocator<std::pair<TAB_ITEM,CWnd *> >::allocate
  00059	8b 4d fc	 mov	 ecx, DWORD PTR _this$[ebp]
  0005c	89 41 04	 mov	 DWORD PTR [ecx+4], eax

; 779  : 			_Mylast = _Myfirst;

  0005f	8b 55 fc	 mov	 edx, DWORD PTR _this$[ebp]
  00062	8b 45 fc	 mov	 eax, DWORD PTR _this$[ebp]
  00065	8b 48 04	 mov	 ecx, DWORD PTR [eax+4]
  00068	89 4a 08	 mov	 DWORD PTR [edx+8], ecx

; 780  : 			_Myend = _Myfirst + _Capacity;

  0006b	8b 55 08	 mov	 edx, DWORD PTR __Capacity$[ebp]
  0006e	c1 e2 06	 shl	 edx, 6
  00071	8b 45 fc	 mov	 eax, DWORD PTR _this$[ebp]
  00074	03 50 04	 add	 edx, DWORD PTR [eax+4]
  00077	8b 4d fc	 mov	 ecx, DWORD PTR _this$[ebp]
  0007a	89 51 0c	 mov	 DWORD PTR [ecx+12], edx
$L195727:

; 781  : 			}
; 782  : 		return (true);

  0007d	b0 01		 mov	 al, 1
$L195725:

; 783  : 		}

  0007f	83 c4 04	 add	 esp, 4
  00082	3b ec		 cmp	 ebp, esp
  00084	e8 00 00 00 00	 call	 __RTC_CheckEsp
  00089	8b e5		 mov	 esp, ebp
  0008b	5d		 pop	 ebp
  0008c	c2 04 00	 ret	 4
?_Buy@?$vector@U?$pair@UTAB_ITEM@@PAVCWnd@@@std@@V?$allocator@U?$pair@UTAB_ITEM@@PAVCWnd@@@std@@@2@@std@@IAE_NI@Z ENDP ; std::vector<std::pair<TAB_ITEM,CWnd *>,std::allocator<std::pair<TAB_ITEM,CWnd *> > >::_Buy
_TEXT	ENDS
PUBLIC	??$_Destroy_range@U?$pair@UTAB_ITEM@@PAVCWnd@@@std@@V?$allocator@U?$pair@UTAB_ITEM@@PAVCWnd@@@std@@@2@@std@@YAXPAU?$pair@UTAB_ITEM@@PAVCWnd@@@0@0AAV?$allocator@U?$pair@UTAB_ITEM@@PAVCWnd@@@std@@@0@@Z ; std::_Destroy_range<std::pair<TAB_ITEM,CWnd *>,std::allocator<std::pair<TAB_ITEM,CWnd *> > >
; Function compile flags: /Odt /RTCsu
;	COMDAT ?_Destroy@?$vector@U?$pair@UTAB_ITEM@@PAVCWnd@@@std@@V?$allocator@U?$pair@UTAB_ITEM@@PAVCWnd@@@std@@@2@@std@@IAEXPAU?$pair@UTAB_ITEM@@PAVCWnd@@@2@0@Z
_TEXT	SEGMENT
_this$ = -4						; size = 4
__First$ = 8						; size = 4
__Last$ = 12						; size = 4
?_Destroy@?$vector@U?$pair@UTAB_ITEM@@PAVCWnd@@@std@@V?$allocator@U?$pair@UTAB_ITEM@@PAVCWnd@@@std@@@2@@std@@IAEXPAU?$pair@UTAB_ITEM@@PAVCWnd@@@2@0@Z PROC NEAR ; std::vector<std::pair<TAB_ITEM,CWnd *>,std::allocator<std::pair<TAB_ITEM,CWnd *> > >::_Destroy, COMDAT
; _this$ = ecx

; 786  : 		{	// destroy [_First, _Last) using allocator

  00000	55		 push	 ebp
  00001	8b ec		 mov	 ebp, esp
  00003	51		 push	 ecx
  00004	c7 45 fc cc cc
	cc cc		 mov	 DWORD PTR [ebp-4], -858993460 ; ccccccccH
  0000b	89 4d fc	 mov	 DWORD PTR _this$[ebp], ecx

; 787  : 		_Destroy_range(_First, _Last, this->_Alval);

  0000e	8b 45 fc	 mov	 eax, DWORD PTR _this$[ebp]
  00011	50		 push	 eax
  00012	8b 4d 0c	 mov	 ecx, DWORD PTR __Last$[ebp]
  00015	51		 push	 ecx
  00016	8b 55 08	 mov	 edx, DWORD PTR __First$[ebp]
  00019	52		 push	 edx
  0001a	e8 00 00 00 00	 call	 ??$_Destroy_range@U?$pair@UTAB_ITEM@@PAVCWnd@@@std@@V?$allocator@U?$pair@UTAB_ITEM@@PAVCWnd@@@std@@@2@@std@@YAXPAU?$pair@UTAB_ITEM@@PAVCWnd@@@0@0AAV?$allocator@U?$pair@UTAB_ITEM@@PAVCWnd@@@std@@@0@@Z ; std::_Destroy_range<std::pair<TAB_ITEM,CWnd *>,std::allocator<std::pair<TAB_ITEM,CWnd *> > >
  0001f	83 c4 0c	 add	 esp, 12			; 0000000cH

; 788  : 		}

  00022	83 c4 04	 add	 esp, 4
  00025	3b ec		 cmp	 ebp, esp
  00027	e8 00 00 00 00	 call	 __RTC_CheckEsp
  0002c	8b e5		 mov	 esp, ebp
  0002e	5d		 pop	 ebp
  0002f	c2 08 00	 ret	 8
?_Destroy@?$vector@U?$pair@UTAB_ITEM@@PAVCWnd@@@std@@V?$allocator@U?$pair@UTAB_ITEM@@PAVCWnd@@@std@@@2@@std@@IAEXPAU?$pair@UTAB_ITEM@@PAVCWnd@@@2@0@Z ENDP ; std::vector<std::pair<TAB_ITEM,CWnd *>,std::allocator<std::pair<TAB_ITEM,CWnd *> > >::_Destroy
_TEXT	ENDS
PUBLIC	?deallocate@?$allocator@U?$pair@UTAB_ITEM@@PAVCWnd@@@std@@@std@@QAEXPAU?$pair@UTAB_ITEM@@PAVCWnd@@@2@I@Z ; std::allocator<std::pair<TAB_ITEM,CWnd *> >::deallocate
; Function compile flags: /Odt /RTCsu
;	COMDAT ?_Tidy@?$vector@U?$pair@UTAB_ITEM@@PAVCWnd@@@std@@V?$allocator@U?$pair@UTAB_ITEM@@PAVCWnd@@@std@@@2@@std@@IAEXXZ
_TEXT	SEGMENT
_this$ = -4						; size = 4
?_Tidy@?$vector@U?$pair@UTAB_ITEM@@PAVCWnd@@@std@@V?$allocator@U?$pair@UTAB_ITEM@@PAVCWnd@@@std@@@2@@std@@IAEXXZ PROC NEAR ; std::vector<std::pair<TAB_ITEM,CWnd *>,std::allocator<std::pair<TAB_ITEM,CWnd *> > >::_Tidy, COMDAT
; _this$ = ecx

; 791  : 		{	// free all storage

  00000	55		 push	 ebp
  00001	8b ec		 mov	 ebp, esp
  00003	51		 push	 ecx
  00004	c7 45 fc cc cc
	cc cc		 mov	 DWORD PTR [ebp-4], -858993460 ; ccccccccH
  0000b	89 4d fc	 mov	 DWORD PTR _this$[ebp], ecx

; 792  : 		if (_Myfirst != 0)

  0000e	8b 45 fc	 mov	 eax, DWORD PTR _this$[ebp]
  00011	83 78 04 00	 cmp	 DWORD PTR [eax+4], 0
  00015	74 35		 je	 SHORT $L195741

; 793  : 			{	// something to free, destroy and deallocate it
; 794  : 			_Destroy(_Myfirst, _Mylast);

  00017	8b 4d fc	 mov	 ecx, DWORD PTR _this$[ebp]
  0001a	8b 51 08	 mov	 edx, DWORD PTR [ecx+8]
  0001d	52		 push	 edx
  0001e	8b 45 fc	 mov	 eax, DWORD PTR _this$[ebp]
  00021	8b 48 04	 mov	 ecx, DWORD PTR [eax+4]
  00024	51		 push	 ecx
  00025	8b 4d fc	 mov	 ecx, DWORD PTR _this$[ebp]
  00028	e8 00 00 00 00	 call	 ?_Destroy@?$vector@U?$pair@UTAB_ITEM@@PAVCWnd@@@std@@V?$allocator@U?$pair@UTAB_ITEM@@PAVCWnd@@@std@@@2@@std@@IAEXPAU?$pair@UTAB_ITEM@@PAVCWnd@@@2@0@Z ; std::vector<std::pair<TAB_ITEM,CWnd *>,std::allocator<std::pair<TAB_ITEM,CWnd *> > >::_Destroy

; 795  : 			this->_Alval.deallocate(_Myfirst, _Myend - _Myfirst);

  0002d	8b 55 fc	 mov	 edx, DWORD PTR _this$[ebp]
  00030	8b 45 fc	 mov	 eax, DWORD PTR _this$[ebp]
  00033	8b 4a 0c	 mov	 ecx, DWORD PTR [edx+12]
  00036	2b 48 04	 sub	 ecx, DWORD PTR [eax+4]
  00039	c1 f9 06	 sar	 ecx, 6
  0003c	51		 push	 ecx
  0003d	8b 55 fc	 mov	 edx, DWORD PTR _this$[ebp]
  00040	8b 42 04	 mov	 eax, DWORD PTR [edx+4]
  00043	50		 push	 eax
  00044	8b 4d fc	 mov	 ecx, DWORD PTR _this$[ebp]
  00047	e8 00 00 00 00	 call	 ?deallocate@?$allocator@U?$pair@UTAB_ITEM@@PAVCWnd@@@std@@@std@@QAEXPAU?$pair@UTAB_ITEM@@PAVCWnd@@@2@I@Z ; std::allocator<std::pair<TAB_ITEM,CWnd *> >::deallocate
$L195741:

; 796  : 			}
; 797  : 		_Myfirst = 0, _Mylast = 0, _Myend = 0;

  0004c	8b 4d fc	 mov	 ecx, DWORD PTR _this$[ebp]
  0004f	c7 41 04 00 00
	00 00		 mov	 DWORD PTR [ecx+4], 0
  00056	8b 55 fc	 mov	 edx, DWORD PTR _this$[ebp]
  00059	c7 42 08 00 00
	00 00		 mov	 DWORD PTR [edx+8], 0
  00060	8b 45 fc	 mov	 eax, DWORD PTR _this$[ebp]
  00063	c7 40 0c 00 00
	00 00		 mov	 DWORD PTR [eax+12], 0

; 798  : 		}

  0006a	83 c4 04	 add	 esp, 4
  0006d	3b ec		 cmp	 ebp, esp
  0006f	e8 00 00 00 00	 call	 __RTC_CheckEsp
  00074	8b e5		 mov	 esp, ebp
  00076	5d		 pop	 ebp
  00077	c3		 ret	 0
?_Tidy@?$vector@U?$pair@UTAB_ITEM@@PAVCWnd@@@std@@V?$allocator@U?$pair@UTAB_ITEM@@PAVCWnd@@@std@@@2@@std@@IAEXXZ ENDP ; std::vector<std::pair<TAB_ITEM,CWnd *>,std::allocator<std::pair<TAB_ITEM,CWnd *> > >::_Tidy
_TEXT	ENDS
PUBLIC	??$_Uninitialized_fill_n@PAU?$pair@UTAB_ITEM@@PAVCWnd@@@std@@IU12@V?$allocator@U?$pair@UTAB_ITEM@@PAVCWnd@@@std@@@2@@std@@YAXPAU?$pair@UTAB_ITEM@@PAVCWnd@@@0@IABU10@AAV?$allocator@U?$pair@UTAB_ITEM@@PAVCWnd@@@std@@@0@@Z ; std::_Uninitialized_fill_n<std::pair<TAB_ITEM,CWnd *> *,unsigned int,std::pair<TAB_ITEM,CWnd *>,std::allocator<std::pair<TAB_ITEM,CWnd *> > >
; Function compile flags: /Odt /RTCsu
;	COMDAT ?_Ufill@?$vector@U?$pair@UTAB_ITEM@@PAVCWnd@@@std@@V?$allocator@U?$pair@UTAB_ITEM@@PAVCWnd@@@std@@@2@@std@@IAEPAU?$pair@UTAB_ITEM@@PAVCWnd@@@2@PAU32@IABU32@@Z
_TEXT	SEGMENT
_this$ = -4						; size = 4
__Ptr$ = 8						; size = 4
__Count$ = 12						; size = 4
__Val$ = 16						; size = 4
?_Ufill@?$vector@U?$pair@UTAB_ITEM@@PAVCWnd@@@std@@V?$allocator@U?$pair@UTAB_ITEM@@PAVCWnd@@@std@@@2@@std@@IAEPAU?$pair@UTAB_ITEM@@PAVCWnd@@@2@PAU32@IABU32@@Z PROC NEAR ; std::vector<std::pair<TAB_ITEM,CWnd *>,std::allocator<std::pair<TAB_ITEM,CWnd *> > >::_Ufill, COMDAT
; _this$ = ecx

; 877  : 		{	// copy initializing _Count * _Val, using allocator

  00000	55		 push	 ebp
  00001	8b ec		 mov	 ebp, esp
  00003	51		 push	 ecx
  00004	c7 45 fc cc cc
	cc cc		 mov	 DWORD PTR [ebp-4], -858993460 ; ccccccccH
  0000b	89 4d fc	 mov	 DWORD PTR _this$[ebp], ecx

; 878  : 		_Uninitialized_fill_n(_Ptr, _Count, _Val, this->_Alval);

  0000e	8b 45 fc	 mov	 eax, DWORD PTR _this$[ebp]
  00011	50		 push	 eax
  00012	8b 4d 10	 mov	 ecx, DWORD PTR __Val$[ebp]
  00015	51		 push	 ecx
  00016	8b 55 0c	 mov	 edx, DWORD PTR __Count$[ebp]
  00019	52		 push	 edx
  0001a	8b 45 08	 mov	 eax, DWORD PTR __Ptr$[ebp]
  0001d	50		 push	 eax
  0001e	e8 00 00 00 00	 call	 ??$_Uninitialized_fill_n@PAU?$pair@UTAB_ITEM@@PAVCWnd@@@std@@IU12@V?$allocator@U?$pair@UTAB_ITEM@@PAVCWnd@@@std@@@2@@std@@YAXPAU?$pair@UTAB_ITEM@@PAVCWnd@@@0@IABU10@AAV?$allocator@U?$pair@UTAB_ITEM@@PAVCWnd@@@std@@@0@@Z ; std::_Uninitialized_fill_n<std::pair<TAB_ITEM,CWnd *> *,unsigned int,std::pair<TAB_ITEM,CWnd *>,std::allocator<std::pair<TAB_ITEM,CWnd *> > >
  00023	83 c4 10	 add	 esp, 16			; 00000010H

; 879  : 		return (_Ptr + _Count);

  00026	8b 45 0c	 mov	 eax, DWORD PTR __Count$[ebp]
  00029	c1 e0 06	 shl	 eax, 6
  0002c	03 45 08	 add	 eax, DWORD PTR __Ptr$[ebp]

; 880  : 		}

  0002f	83 c4 04	 add	 esp, 4
  00032	3b ec		 cmp	 ebp, esp
  00034	e8 00 00 00 00	 call	 __RTC_CheckEsp
  00039	8b e5		 mov	 esp, ebp
  0003b	5d		 pop	 ebp
  0003c	c2 0c 00	 ret	 12			; 0000000cH
?_Ufill@?$vector@U?$pair@UTAB_ITEM@@PAVCWnd@@@std@@V?$allocator@U?$pair@UTAB_ITEM@@PAVCWnd@@@std@@@2@@std@@IAEPAU?$pair@UTAB_ITEM@@PAVCWnd@@@2@PAU32@IABU32@@Z ENDP ; std::vector<std::pair<TAB_ITEM,CWnd *>,std::allocator<std::pair<TAB_ITEM,CWnd *> > >::_Ufill
_TEXT	ENDS
PUBLIC	??0?$allocator@U?$pair@UTAB_ITEM@@PAVCWnd@@@std@@@std@@QAE@ABV01@@Z ; std::allocator<std::pair<TAB_ITEM,CWnd *> >::allocator<std::pair<TAB_ITEM,CWnd *> >
; Function compile flags: /Odt /RTCsu
;	COMDAT ??0?$_Vector_val@U?$pair@UTAB_ITEM@@PAVCWnd@@@std@@V?$allocator@U?$pair@UTAB_ITEM@@PAVCWnd@@@std@@@2@@std@@IAE@V?$allocator@U?$pair@UTAB_ITEM@@PAVCWnd@@@std@@@1@@Z
_TEXT	SEGMENT
_this$ = -4						; size = 4
__Al$ = 8						; size = 1
??0?$_Vector_val@U?$pair@UTAB_ITEM@@PAVCWnd@@@std@@V?$allocator@U?$pair@UTAB_ITEM@@PAVCWnd@@@std@@@2@@std@@IAE@V?$allocator@U?$pair@UTAB_ITEM@@PAVCWnd@@@std@@@1@@Z PROC NEAR ; std::_Vector_val<std::pair<TAB_ITEM,CWnd *>,std::allocator<std::pair<TAB_ITEM,CWnd *> > >::_Vector_val<std::pair<TAB_ITEM,CWnd *>,std::allocator<std::pair<TAB_ITEM,CWnd *> > >, COMDAT
; _this$ = ecx

; 21   : 		{	// construct allocator from _Al

  00000	55		 push	 ebp
  00001	8b ec		 mov	 ebp, esp
  00003	51		 push	 ecx
  00004	c7 45 fc cc cc
	cc cc		 mov	 DWORD PTR [ebp-4], -858993460 ; ccccccccH
  0000b	89 4d fc	 mov	 DWORD PTR _this$[ebp], ecx
  0000e	8d 45 08	 lea	 eax, DWORD PTR __Al$[ebp]
  00011	50		 push	 eax
  00012	8b 4d fc	 mov	 ecx, DWORD PTR _this$[ebp]
  00015	e8 00 00 00 00	 call	 ??0?$allocator@U?$pair@UTAB_ITEM@@PAVCWnd@@@std@@@std@@QAE@ABV01@@Z ; std::allocator<std::pair<TAB_ITEM,CWnd *> >::allocator<std::pair<TAB_ITEM,CWnd *> >

; 22   : 		}

  0001a	8b 45 fc	 mov	 eax, DWORD PTR _this$[ebp]
  0001d	83 c4 04	 add	 esp, 4
  00020	3b ec		 cmp	 ebp, esp
  00022	e8 00 00 00 00	 call	 __RTC_CheckEsp
  00027	8b e5		 mov	 esp, ebp
  00029	5d		 pop	 ebp
  0002a	c2 04 00	 ret	 4
??0?$_Vector_val@U?$pair@UTAB_ITEM@@PAVCWnd@@@std@@V?$allocator@U?$pair@UTAB_ITEM@@PAVCWnd@@@std@@@2@@std@@IAE@V?$allocator@U?$pair@UTAB_ITEM@@PAVCWnd@@@std@@@1@@Z ENDP ; std::_Vector_val<std::pair<TAB_ITEM,CWnd *>,std::allocator<std::pair<TAB_ITEM,CWnd *> > >::_Vector_val<std::pair<TAB_ITEM,CWnd *>,std::allocator<std::pair<TAB_ITEM,CWnd *> > >
; Function compile flags: /Odt /RTCsu
; File d:\program files (x86)\microsoft visual studio .net 2003\vc7\include\xmemory
_TEXT	ENDS
;	COMDAT ??0?$allocator@U?$pair@UTAB_ITEM@@PAVCWnd@@@std@@@std@@QAE@XZ
_TEXT	SEGMENT
_this$ = -4						; size = 4
??0?$allocator@U?$pair@UTAB_ITEM@@PAVCWnd@@@std@@@std@@QAE@XZ PROC NEAR ; std::allocator<std::pair<TAB_ITEM,CWnd *> >::allocator<std::pair<TAB_ITEM,CWnd *> >, COMDAT
; _this$ = ecx

; 111  : 	allocator()

  00000	55		 push	 ebp
  00001	8b ec		 mov	 ebp, esp
  00003	51		 push	 ecx
  00004	c7 45 fc cc cc
	cc cc		 mov	 DWORD PTR [ebp-4], -858993460 ; ccccccccH
  0000b	89 4d fc	 mov	 DWORD PTR _this$[ebp], ecx

; 112  : 		{	// construct default allocator (do nothing)
; 113  : 		}

  0000e	8b 45 fc	 mov	 eax, DWORD PTR _this$[ebp]
  00011	8b e5		 mov	 esp, ebp
  00013	5d		 pop	 ebp
  00014	c3		 ret	 0
??0?$allocator@U?$pair@UTAB_ITEM@@PAVCWnd@@@std@@@std@@QAE@XZ ENDP ; std::allocator<std::pair<TAB_ITEM,CWnd *> >::allocator<std::pair<TAB_ITEM,CWnd *> >
_TEXT	ENDS
PUBLIC	??0const_iterator@?$vector@U?$pair@UTAB_ITEM@@PAVCWnd@@@std@@V?$allocator@U?$pair@UTAB_ITEM@@PAVCWnd@@@std@@@2@@std@@QAE@PAU?$pair@UTAB_ITEM@@PAVCWnd@@@2@@Z ; std::vector<std::pair<TAB_ITEM,CWnd *>,std::allocator<std::pair<TAB_ITEM,CWnd *> > >::const_iterator::const_iterator
; Function compile flags: /Odt /RTCsu
; File d:\program files (x86)\microsoft visual studio .net 2003\vc7\include\vector
;	COMDAT ??0iterator@?$vector@U?$pair@UTAB_ITEM@@PAVCWnd@@@std@@V?$allocator@U?$pair@UTAB_ITEM@@PAVCWnd@@@std@@@2@@std@@QAE@PAU?$pair@UTAB_ITEM@@PAVCWnd@@@2@@Z
_TEXT	SEGMENT
_this$ = -4						; size = 4
__Ptr$ = 8						; size = 4
??0iterator@?$vector@U?$pair@UTAB_ITEM@@PAVCWnd@@@std@@V?$allocator@U?$pair@UTAB_ITEM@@PAVCWnd@@@std@@@2@@std@@QAE@PAU?$pair@UTAB_ITEM@@PAVCWnd@@@2@@Z PROC NEAR ; std::vector<std::pair<TAB_ITEM,CWnd *>,std::allocator<std::pair<TAB_ITEM,CWnd *> > >::iterator::iterator, COMDAT
; _this$ = ecx

; 215  : 			{	// construct with pointer _Ptr

  00000	55		 push	 ebp
  00001	8b ec		 mov	 ebp, esp
  00003	51		 push	 ecx
  00004	c7 45 fc cc cc
	cc cc		 mov	 DWORD PTR [ebp-4], -858993460 ; ccccccccH
  0000b	89 4d fc	 mov	 DWORD PTR _this$[ebp], ecx
  0000e	8b 45 08	 mov	 eax, DWORD PTR __Ptr$[ebp]
  00011	50		 push	 eax
  00012	8b 4d fc	 mov	 ecx, DWORD PTR _this$[ebp]
  00015	e8 00 00 00 00	 call	 ??0const_iterator@?$vector@U?$pair@UTAB_ITEM@@PAVCWnd@@@std@@V?$allocator@U?$pair@UTAB_ITEM@@PAVCWnd@@@std@@@2@@std@@QAE@PAU?$pair@UTAB_ITEM@@PAVCWnd@@@2@@Z ; std::vector<std::pair<TAB_ITEM,CWnd *>,std::allocator<std::pair<TAB_ITEM,CWnd *> > >::const_iterator::const_iterator

; 216  : 			}

  0001a	8b 45 fc	 mov	 eax, DWORD PTR _this$[ebp]
  0001d	83 c4 04	 add	 esp, 4
  00020	3b ec		 cmp	 ebp, esp
  00022	e8 00 00 00 00	 call	 __RTC_CheckEsp
  00027	8b e5		 mov	 esp, ebp
  00029	5d		 pop	 ebp
  0002a	c2 04 00	 ret	 4
??0iterator@?$vector@U?$pair@UTAB_ITEM@@PAVCWnd@@@std@@V?$allocator@U?$pair@UTAB_ITEM@@PAVCWnd@@@std@@@2@@std@@QAE@PAU?$pair@UTAB_ITEM@@PAVCWnd@@@2@@Z ENDP ; std::vector<std::pair<TAB_ITEM,CWnd *>,std::allocator<std::pair<TAB_ITEM,CWnd *> > >::iterator::iterator
_TEXT	ENDS
PUBLIC	??Dconst_iterator@?$vector@U?$pair@UTAB_ITEM@@PAVCWnd@@@std@@V?$allocator@U?$pair@UTAB_ITEM@@PAVCWnd@@@std@@@2@@std@@QBEABU?$pair@UTAB_ITEM@@PAVCWnd@@@2@XZ ; std::vector<std::pair<TAB_ITEM,CWnd *>,std::allocator<std::pair<TAB_ITEM,CWnd *> > >::const_iterator::operator*
; Function compile flags: /Odt /RTCsu
;	COMDAT ??Diterator@?$vector@U?$pair@UTAB_ITEM@@PAVCWnd@@@std@@V?$allocator@U?$pair@UTAB_ITEM@@PAVCWnd@@@std@@@2@@std@@QBEAAU?$pair@UTAB_ITEM@@PAVCWnd@@@2@XZ
_TEXT	SEGMENT
_this$ = -4						; size = 4
??Diterator@?$vector@U?$pair@UTAB_ITEM@@PAVCWnd@@@std@@V?$allocator@U?$pair@UTAB_ITEM@@PAVCWnd@@@std@@@2@@std@@QBEAAU?$pair@UTAB_ITEM@@PAVCWnd@@@2@XZ PROC NEAR ; std::vector<std::pair<TAB_ITEM,CWnd *>,std::allocator<std::pair<TAB_ITEM,CWnd *> > >::iterator::operator*, COMDAT
; _this$ = ecx

; 219  : 			{	// return designated object

  00000	55		 push	 ebp
  00001	8b ec		 mov	 ebp, esp
  00003	51		 push	 ecx
  00004	c7 45 fc cc cc
	cc cc		 mov	 DWORD PTR [ebp-4], -858993460 ; ccccccccH
  0000b	89 4d fc	 mov	 DWORD PTR _this$[ebp], ecx

; 220  : 			return ((reference)**(const_iterator *)this);

  0000e	8b 4d fc	 mov	 ecx, DWORD PTR _this$[ebp]
  00011	e8 00 00 00 00	 call	 ??Dconst_iterator@?$vector@U?$pair@UTAB_ITEM@@PAVCWnd@@@std@@V?$allocator@U?$pair@UTAB_ITEM@@PAVCWnd@@@std@@@2@@std@@QBEABU?$pair@UTAB_ITEM@@PAVCWnd@@@2@XZ ; std::vector<std::pair<TAB_ITEM,CWnd *>,std::allocator<std::pair<TAB_ITEM,CWnd *> > >::const_iterator::operator*

; 221  : 			}

  00016	83 c4 04	 add	 esp, 4
  00019	3b ec		 cmp	 ebp, esp
  0001b	e8 00 00 00 00	 call	 __RTC_CheckEsp
  00020	8b e5		 mov	 esp, ebp
  00022	5d		 pop	 ebp
  00023	c3		 ret	 0
??Diterator@?$vector@U?$pair@UTAB_ITEM@@PAVCWnd@@@std@@V?$allocator@U?$pair@UTAB_ITEM@@PAVCWnd@@@std@@@2@@std@@QBEAAU?$pair@UTAB_ITEM@@PAVCWnd@@@2@XZ ENDP ; std::vector<std::pair<TAB_ITEM,CWnd *>,std::allocator<std::pair<TAB_ITEM,CWnd *> > >::iterator::operator*
; Function compile flags: /Odt /RTCsu
_TEXT	ENDS
;	COMDAT ??Eiterator@?$vector@U?$pair@UTAB_ITEM@@PAVCWnd@@@std@@V?$allocator@U?$pair@UTAB_ITEM@@PAVCWnd@@@std@@@2@@std@@QAEAAV012@XZ
_TEXT	SEGMENT
_this$ = -4						; size = 4
??Eiterator@?$vector@U?$pair@UTAB_ITEM@@PAVCWnd@@@std@@V?$allocator@U?$pair@UTAB_ITEM@@PAVCWnd@@@std@@@2@@std@@QAEAAV012@XZ PROC NEAR ; std::vector<std::pair<TAB_ITEM,CWnd *>,std::allocator<std::pair<TAB_ITEM,CWnd *> > >::iterator::operator++, COMDAT
; _this$ = ecx

; 229  : 			{	// preincrement

  00000	55		 push	 ebp
  00001	8b ec		 mov	 ebp, esp
  00003	51		 push	 ecx
  00004	c7 45 fc cc cc
	cc cc		 mov	 DWORD PTR [ebp-4], -858993460 ; ccccccccH
  0000b	89 4d fc	 mov	 DWORD PTR _this$[ebp], ecx

; 230  : 			++this->_Myptr;

  0000e	8b 45 fc	 mov	 eax, DWORD PTR _this$[ebp]
  00011	8b 08		 mov	 ecx, DWORD PTR [eax]
  00013	83 c1 40	 add	 ecx, 64			; 00000040H
  00016	8b 55 fc	 mov	 edx, DWORD PTR _this$[ebp]
  00019	89 0a		 mov	 DWORD PTR [edx], ecx

; 231  : 			return (*this);

  0001b	8b 45 fc	 mov	 eax, DWORD PTR _this$[ebp]

; 232  : 			}

  0001e	8b e5		 mov	 esp, ebp
  00020	5d		 pop	 ebp
  00021	c3		 ret	 0
??Eiterator@?$vector@U?$pair@UTAB_ITEM@@PAVCWnd@@@std@@V?$allocator@U?$pair@UTAB_ITEM@@PAVCWnd@@@std@@@2@@std@@QAEAAV012@XZ ENDP ; std::vector<std::pair<TAB_ITEM,CWnd *>,std::allocator<std::pair<TAB_ITEM,CWnd *> > >::iterator::operator++
; Function compile flags: /Odt /RTCsu
_TEXT	ENDS
;	COMDAT ??8const_iterator@?$vector@U?$pair@UTAB_ITEM@@PAVCWnd@@@std@@V?$allocator@U?$pair@UTAB_ITEM@@PAVCWnd@@@std@@@2@@std@@QBE_NABV012@@Z
_TEXT	SEGMENT
_this$ = -4						; size = 4
__Right$ = 8						; size = 4
??8const_iterator@?$vector@U?$pair@UTAB_ITEM@@PAVCWnd@@@std@@V?$allocator@U?$pair@UTAB_ITEM@@PAVCWnd@@@std@@@2@@std@@QBE_NABV012@@Z PROC NEAR ; std::vector<std::pair<TAB_ITEM,CWnd *>,std::allocator<std::pair<TAB_ITEM,CWnd *> > >::const_iterator::operator==, COMDAT
; _this$ = ecx

; 152  : 			{	// test for iterator equality

  00000	55		 push	 ebp
  00001	8b ec		 mov	 ebp, esp
  00003	51		 push	 ecx
  00004	c7 45 fc cc cc
	cc cc		 mov	 DWORD PTR [ebp-4], -858993460 ; ccccccccH
  0000b	89 4d fc	 mov	 DWORD PTR _this$[ebp], ecx

; 153  : 
; 154  : 
; 155  : 			return (_Myptr == _Right._Myptr);

  0000e	8b 45 fc	 mov	 eax, DWORD PTR _this$[ebp]
  00011	8b 4d 08	 mov	 ecx, DWORD PTR __Right$[ebp]
  00014	8b 00		 mov	 eax, DWORD PTR [eax]
  00016	2b 01		 sub	 eax, DWORD PTR [ecx]
  00018	f7 d8		 neg	 eax
  0001a	1b c0		 sbb	 eax, eax
  0001c	40		 inc	 eax

; 156  : 			}

  0001d	8b e5		 mov	 esp, ebp
  0001f	5d		 pop	 ebp
  00020	c2 04 00	 ret	 4
??8const_iterator@?$vector@U?$pair@UTAB_ITEM@@PAVCWnd@@@std@@V?$allocator@U?$pair@UTAB_ITEM@@PAVCWnd@@@std@@@2@@std@@QBE_NABV012@@Z ENDP ; std::vector<std::pair<TAB_ITEM,CWnd *>,std::allocator<std::pair<TAB_ITEM,CWnd *> > >::const_iterator::operator==
_TEXT	ENDS
PUBLIC	?max_size@?$allocator@U?$pair@UTAB_ITEM@@PAVCWnd@@@std@@@std@@QBEIXZ ; std::allocator<std::pair<TAB_ITEM,CWnd *> >::max_size
; Function compile flags: /Odt /RTCsu
;	COMDAT ?max_size@?$vector@U?$pair@UTAB_ITEM@@PAVCWnd@@@std@@V?$allocator@U?$pair@UTAB_ITEM@@PAVCWnd@@@std@@@2@@std@@QBEIXZ
_TEXT	SEGMENT
_this$ = -4						; size = 4
?max_size@?$vector@U?$pair@UTAB_ITEM@@PAVCWnd@@@std@@V?$allocator@U?$pair@UTAB_ITEM@@PAVCWnd@@@std@@@2@@std@@QBEIXZ PROC NEAR ; std::vector<std::pair<TAB_ITEM,CWnd *>,std::allocator<std::pair<TAB_ITEM,CWnd *> > >::max_size, COMDAT
; _this$ = ecx

; 520  : 		{	// return maximum possible length of sequence

  00000	55		 push	 ebp
  00001	8b ec		 mov	 ebp, esp
  00003	51		 push	 ecx
  00004	c7 45 fc cc cc
	cc cc		 mov	 DWORD PTR [ebp-4], -858993460 ; ccccccccH
  0000b	89 4d fc	 mov	 DWORD PTR _this$[ebp], ecx

; 521  : 		return (this->_Alval.max_size());

  0000e	8b 4d fc	 mov	 ecx, DWORD PTR _this$[ebp]
  00011	e8 00 00 00 00	 call	 ?max_size@?$allocator@U?$pair@UTAB_ITEM@@PAVCWnd@@@std@@@std@@QBEIXZ ; std::allocator<std::pair<TAB_ITEM,CWnd *> >::max_size

; 522  : 		}

  00016	83 c4 04	 add	 esp, 4
  00019	3b ec		 cmp	 ebp, esp
  0001b	e8 00 00 00 00	 call	 __RTC_CheckEsp
  00020	8b e5		 mov	 esp, ebp
  00022	5d		 pop	 ebp
  00023	c3		 ret	 0
?max_size@?$vector@U?$pair@UTAB_ITEM@@PAVCWnd@@@std@@V?$allocator@U?$pair@UTAB_ITEM@@PAVCWnd@@@std@@@2@@std@@QBEIXZ ENDP ; std::vector<std::pair<TAB_ITEM,CWnd *>,std::allocator<std::pair<TAB_ITEM,CWnd *> > >::max_size
_TEXT	ENDS
PUBLIC	??$_Ucopy@PAU?$pair@UTAB_ITEM@@PAVCWnd@@@std@@@?$vector@U?$pair@UTAB_ITEM@@PAVCWnd@@@std@@V?$allocator@U?$pair@UTAB_ITEM@@PAVCWnd@@@std@@@2@@std@@IAEPAU?$pair@UTAB_ITEM@@PAVCWnd@@@1@PAU21@00@Z ; std::vector<std::pair<TAB_ITEM,CWnd *>,std::allocator<std::pair<TAB_ITEM,CWnd *> > >::_Ucopy<std::pair<TAB_ITEM,CWnd *> *>
PUBLIC	??$fill@PAU?$pair@UTAB_ITEM@@PAVCWnd@@@std@@U12@@std@@YAXPAU?$pair@UTAB_ITEM@@PAVCWnd@@@0@0ABU10@@Z ; std::fill<std::pair<TAB_ITEM,CWnd *> *,std::pair<TAB_ITEM,CWnd *> >
PUBLIC	??$copy_backward@PAU?$pair@UTAB_ITEM@@PAVCWnd@@@std@@PAU12@@std@@YAPAU?$pair@UTAB_ITEM@@PAVCWnd@@@0@PAU10@00@Z ; std::copy_backward<std::pair<TAB_ITEM,CWnd *> *,std::pair<TAB_ITEM,CWnd *> *>
PUBLIC	??0?$pair@UTAB_ITEM@@PAVCWnd@@@std@@QAE@ABU01@@Z ; std::pair<TAB_ITEM,CWnd *>::pair<TAB_ITEM,CWnd *>
EXTRN	__CxxThrowException@8:NEAR
;	COMDAT xdata$x
xdata$x	SEGMENT
$T197614 DD	0ffffffffH
	DD	FLAT:$L197606
	DD	00H
	DD	00H
	DD	00H
	DD	00H
	DD	00H
	DD	00H
	DD	00H
	DD	00H
$T197616 DD	00H
	DD	00H
	DD	00H
	DD	FLAT:$L197603
$T197617 DD	00H
	DD	00H
	DD	00H
	DD	FLAT:$L197605
$T197615 DD	01H
	DD	01H
	DD	02H
	DD	01H
	DD	FLAT:$T197616
	DD	03H
	DD	03H
	DD	04H
	DD	01H
	DD	FLAT:$T197617
$T197608 DD	019930520H
	DD	05H
	DD	FLAT:$T197614
	DD	02H
	DD	FLAT:$T197615
	DD	2 DUP(00H)
; Function compile flags: /Odt /RTCsu
xdata$x	ENDS
;	COMDAT ?_Insert_n@?$vector@U?$pair@UTAB_ITEM@@PAVCWnd@@@std@@V?$allocator@U?$pair@UTAB_ITEM@@PAVCWnd@@@std@@@2@@std@@IAEXViterator@12@IABU?$pair@UTAB_ITEM@@PAVCWnd@@@2@@Z
_TEXT	SEGMENT
tv244 = -124						; size = 4
tv65 = -120						; size = 4
tv89 = -116						; size = 4
__Oldend$195856 = -112					; size = 4
__Ptr$195836 = -108					; size = 4
__Newvec$195835 = -104					; size = 4
__Capacity$ = -100					; size = 4
__Tmp$ = -92						; size = 64
_this$ = -24						; size = 4
__$ArrayPad$ = -20					; size = 4
__$EHRec$ = -16						; size = 16
__$ReturnAddr$ = 4					; size = 4
__Where$ = 8						; size = 4
__Count$ = 12						; size = 4
__Val$ = 16						; size = 4
?_Insert_n@?$vector@U?$pair@UTAB_ITEM@@PAVCWnd@@@std@@V?$allocator@U?$pair@UTAB_ITEM@@PAVCWnd@@@std@@@2@@std@@IAEXViterator@12@IABU?$pair@UTAB_ITEM@@PAVCWnd@@@2@@Z PROC NEAR ; std::vector<std::pair<TAB_ITEM,CWnd *>,std::allocator<std::pair<TAB_ITEM,CWnd *> > >::_Insert_n, COMDAT
; _this$ = ecx

; 809  : 		{	// insert _Count * _Val at _Where

  00000	55		 push	 ebp
  00001	8b ec		 mov	 ebp, esp
  00003	6a ff		 push	 -1
  00005	68 00 00 00 00	 push	 __ehhandler$?_Insert_n@?$vector@U?$pair@UTAB_ITEM@@PAVCWnd@@@std@@V?$allocator@U?$pair@UTAB_ITEM@@PAVCWnd@@@std@@@2@@std@@IAEXViterator@12@IABU?$pair@UTAB_ITEM@@PAVCWnd@@@2@@Z
  0000a	64 a1 00 00 00
	00		 mov	 eax, DWORD PTR fs:__except_list
  00010	50		 push	 eax
  00011	64 89 25 00 00
	00 00		 mov	 DWORD PTR fs:__except_list, esp
  00018	51		 push	 ecx
  00019	83 ec 6c	 sub	 esp, 108		; 0000006cH
  0001c	53		 push	 ebx
  0001d	56		 push	 esi
  0001e	57		 push	 edi
  0001f	51		 push	 ecx
  00020	8d 7d 84	 lea	 edi, DWORD PTR [ebp-124]
  00023	b9 1b 00 00 00	 mov	 ecx, 27			; 0000001bH
  00028	b8 cc cc cc cc	 mov	 eax, -858993460		; ccccccccH
  0002d	f3 ab		 rep stosd
  0002f	59		 pop	 ecx
  00030	a1 00 00 00 00	 mov	 eax, DWORD PTR ___security_cookie
  00035	89 45 ec	 mov	 DWORD PTR __$ArrayPad$[ebp], eax
  00038	89 65 f0	 mov	 DWORD PTR __$EHRec$[ebp], esp
  0003b	89 4d e8	 mov	 DWORD PTR _this$[ebp], ecx

; 810  : 		_Ty _Tmp = _Val;	// in case _Val is in sequence

  0003e	8b 45 10	 mov	 eax, DWORD PTR __Val$[ebp]
  00041	50		 push	 eax
  00042	8d 4d a4	 lea	 ecx, DWORD PTR __Tmp$[ebp]
  00045	e8 00 00 00 00	 call	 ??0?$pair@UTAB_ITEM@@PAVCWnd@@@std@@QAE@ABU01@@Z
  0004a	c7 45 fc 00 00
	00 00		 mov	 DWORD PTR __$EHRec$[ebp+12], 0

; 811  : 		size_type _Capacity = capacity();

  00051	8b 4d e8	 mov	 ecx, DWORD PTR _this$[ebp]
  00054	e8 00 00 00 00	 call	 ?capacity@?$vector@U?$pair@UTAB_ITEM@@PAVCWnd@@@std@@V?$allocator@U?$pair@UTAB_ITEM@@PAVCWnd@@@std@@@2@@std@@QBEIXZ ; std::vector<std::pair<TAB_ITEM,CWnd *>,std::allocator<std::pair<TAB_ITEM,CWnd *> > >::capacity
  00059	89 45 9c	 mov	 DWORD PTR __Capacity$[ebp], eax

; 812  : 
; 813  : 		if (_Count == 0)

  0005c	83 7d 0c 00	 cmp	 DWORD PTR __Count$[ebp], 0
  00060	75 05		 jne	 SHORT $L195829

; 814  : 			;
; 815  : 		else if (max_size() - size() < _Count)

  00062	e9 c0 02 00 00	 jmp	 $L195830
$L195829:
  00067	8b 4d e8	 mov	 ecx, DWORD PTR _this$[ebp]
  0006a	e8 00 00 00 00	 call	 ?size@?$vector@U?$pair@UTAB_ITEM@@PAVCWnd@@@std@@V?$allocator@U?$pair@UTAB_ITEM@@PAVCWnd@@@std@@@2@@std@@QBEIXZ ; std::vector<std::pair<TAB_ITEM,CWnd *>,std::allocator<std::pair<TAB_ITEM,CWnd *> > >::size
  0006f	8b f0		 mov	 esi, eax
  00071	8b 4d e8	 mov	 ecx, DWORD PTR _this$[ebp]
  00074	e8 00 00 00 00	 call	 ?max_size@?$vector@U?$pair@UTAB_ITEM@@PAVCWnd@@@std@@V?$allocator@U?$pair@UTAB_ITEM@@PAVCWnd@@@std@@@2@@std@@QBEIXZ ; std::vector<std::pair<TAB_ITEM,CWnd *>,std::allocator<std::pair<TAB_ITEM,CWnd *> > >::max_size
  00079	2b c6		 sub	 eax, esi
  0007b	3b 45 0c	 cmp	 eax, DWORD PTR __Count$[ebp]
  0007e	73 0d		 jae	 SHORT $L195831

; 816  : 			_Xlen();	// result too long

  00080	8b 4d e8	 mov	 ecx, DWORD PTR _this$[ebp]
  00083	e8 00 00 00 00	 call	 ?_Xlen@?$vector@U?$pair@UTAB_ITEM@@PAVCWnd@@@std@@V?$allocator@U?$pair@UTAB_ITEM@@PAVCWnd@@@std@@@2@@std@@IBEXXZ ; std::vector<std::pair<TAB_ITEM,CWnd *>,std::allocator<std::pair<TAB_ITEM,CWnd *> > >::_Xlen

; 817  : 		else if (_Capacity < size() + _Count)

  00088	e9 9a 02 00 00	 jmp	 $L195830
$L195831:
  0008d	8b 4d e8	 mov	 ecx, DWORD PTR _this$[ebp]
  00090	e8 00 00 00 00	 call	 ?size@?$vector@U?$pair@UTAB_ITEM@@PAVCWnd@@@std@@V?$allocator@U?$pair@UTAB_ITEM@@PAVCWnd@@@std@@@2@@std@@QBEIXZ ; std::vector<std::pair<TAB_ITEM,CWnd *>,std::allocator<std::pair<TAB_ITEM,CWnd *> > >::size
  00095	03 45 0c	 add	 eax, DWORD PTR __Count$[ebp]
  00098	39 45 9c	 cmp	 DWORD PTR __Capacity$[ebp], eax
  0009b	0f 83 63 01 00
	00		 jae	 $L195833

; 818  : 			{	// not enough room, reallocate
; 819  : 			_Capacity = max_size() - _Capacity / 2 < _Capacity
; 820  : 				? 0 : _Capacity + _Capacity / 2;	// try to grow by 50%

  000a1	8b 75 9c	 mov	 esi, DWORD PTR __Capacity$[ebp]
  000a4	d1 ee		 shr	 esi, 1
  000a6	8b 4d e8	 mov	 ecx, DWORD PTR _this$[ebp]
  000a9	e8 00 00 00 00	 call	 ?max_size@?$vector@U?$pair@UTAB_ITEM@@PAVCWnd@@@std@@V?$allocator@U?$pair@UTAB_ITEM@@PAVCWnd@@@std@@@2@@std@@QBEIXZ ; std::vector<std::pair<TAB_ITEM,CWnd *>,std::allocator<std::pair<TAB_ITEM,CWnd *> > >::max_size
  000ae	2b c6		 sub	 eax, esi
  000b0	3b 45 9c	 cmp	 eax, DWORD PTR __Capacity$[ebp]
  000b3	73 09		 jae	 SHORT $L197599
  000b5	c7 45 8c 00 00
	00 00		 mov	 DWORD PTR tv89[ebp], 0
  000bc	eb 0b		 jmp	 SHORT $L197600
$L197599:
  000be	8b 4d 9c	 mov	 ecx, DWORD PTR __Capacity$[ebp]
  000c1	d1 e9		 shr	 ecx, 1
  000c3	03 4d 9c	 add	 ecx, DWORD PTR __Capacity$[ebp]
  000c6	89 4d 8c	 mov	 DWORD PTR tv89[ebp], ecx
$L197600:
  000c9	8b 55 8c	 mov	 edx, DWORD PTR tv89[ebp]
  000cc	89 55 9c	 mov	 DWORD PTR __Capacity$[ebp], edx

; 821  : 			if (_Capacity < size() + _Count)

  000cf	8b 4d e8	 mov	 ecx, DWORD PTR _this$[ebp]
  000d2	e8 00 00 00 00	 call	 ?size@?$vector@U?$pair@UTAB_ITEM@@PAVCWnd@@@std@@V?$allocator@U?$pair@UTAB_ITEM@@PAVCWnd@@@std@@@2@@std@@QBEIXZ ; std::vector<std::pair<TAB_ITEM,CWnd *>,std::allocator<std::pair<TAB_ITEM,CWnd *> > >::size
  000d7	03 45 0c	 add	 eax, DWORD PTR __Count$[ebp]
  000da	39 45 9c	 cmp	 DWORD PTR __Capacity$[ebp], eax
  000dd	73 0e		 jae	 SHORT $L195834

; 822  : 				_Capacity = size() + _Count;

  000df	8b 4d e8	 mov	 ecx, DWORD PTR _this$[ebp]
  000e2	e8 00 00 00 00	 call	 ?size@?$vector@U?$pair@UTAB_ITEM@@PAVCWnd@@@std@@V?$allocator@U?$pair@UTAB_ITEM@@PAVCWnd@@@std@@@2@@std@@QBEIXZ ; std::vector<std::pair<TAB_ITEM,CWnd *>,std::allocator<std::pair<TAB_ITEM,CWnd *> > >::size
  000e7	03 45 0c	 add	 eax, DWORD PTR __Count$[ebp]
  000ea	89 45 9c	 mov	 DWORD PTR __Capacity$[ebp], eax
$L195834:

; 823  : 			pointer _Newvec = this->_Alval.allocate(_Capacity);

  000ed	8b 45 9c	 mov	 eax, DWORD PTR __Capacity$[ebp]
  000f0	50		 push	 eax
  000f1	8b 4d e8	 mov	 ecx, DWORD PTR _this$[ebp]
  000f4	e8 00 00 00 00	 call	 ?allocate@?$allocator@U?$pair@UTAB_ITEM@@PAVCWnd@@@std@@@std@@QAEPAU?$pair@UTAB_ITEM@@PAVCWnd@@@2@I@Z ; std::allocator<std::pair<TAB_ITEM,CWnd *> >::allocate
  000f9	89 45 98	 mov	 DWORD PTR __Newvec$195835[ebp], eax

; 824  : 			pointer _Ptr = _Newvec;

  000fc	8b 4d 98	 mov	 ecx, DWORD PTR __Newvec$195835[ebp]
  000ff	89 4d 94	 mov	 DWORD PTR __Ptr$195836[ebp], ecx

; 825  : 
; 826  : 			_TRY_BEGIN

  00102	c6 45 fc 01	 mov	 BYTE PTR __$EHRec$[ebp+12], 1

; 827  : 			_Ptr = _Ucopy(_Myfirst, _ITER_BASE(_Where),
; 828  : 				_Newvec);	// copy prefix

  00106	8b 55 98	 mov	 edx, DWORD PTR __Newvec$195835[ebp]
  00109	52		 push	 edx
  0010a	8b 45 08	 mov	 eax, DWORD PTR __Where$[ebp]
  0010d	50		 push	 eax
  0010e	8b 4d e8	 mov	 ecx, DWORD PTR _this$[ebp]
  00111	8b 51 04	 mov	 edx, DWORD PTR [ecx+4]
  00114	52		 push	 edx
  00115	8b 4d e8	 mov	 ecx, DWORD PTR _this$[ebp]
  00118	e8 00 00 00 00	 call	 ??$_Ucopy@PAU?$pair@UTAB_ITEM@@PAVCWnd@@@std@@@?$vector@U?$pair@UTAB_ITEM@@PAVCWnd@@@std@@V?$allocator@U?$pair@UTAB_ITEM@@PAVCWnd@@@std@@@2@@std@@IAEPAU?$pair@UTAB_ITEM@@PAVCWnd@@@1@PAU21@00@Z ; std::vector<std::pair<TAB_ITEM,CWnd *>,std::allocator<std::pair<TAB_ITEM,CWnd *> > >::_Ucopy<std::pair<TAB_ITEM,CWnd *> *>
  0011d	89 45 88	 mov	 DWORD PTR tv65[ebp], eax
  00120	8b 45 88	 mov	 eax, DWORD PTR tv65[ebp]
  00123	89 45 94	 mov	 DWORD PTR __Ptr$195836[ebp], eax

; 829  : 			_Ptr = _Ufill(_Ptr, _Count, _Tmp);	// add new stuff

  00126	8d 4d a4	 lea	 ecx, DWORD PTR __Tmp$[ebp]
  00129	51		 push	 ecx
  0012a	8b 55 0c	 mov	 edx, DWORD PTR __Count$[ebp]
  0012d	52		 push	 edx
  0012e	8b 45 94	 mov	 eax, DWORD PTR __Ptr$195836[ebp]
  00131	50		 push	 eax
  00132	8b 4d e8	 mov	 ecx, DWORD PTR _this$[ebp]
  00135	e8 00 00 00 00	 call	 ?_Ufill@?$vector@U?$pair@UTAB_ITEM@@PAVCWnd@@@std@@V?$allocator@U?$pair@UTAB_ITEM@@PAVCWnd@@@std@@@2@@std@@IAEPAU?$pair@UTAB_ITEM@@PAVCWnd@@@2@PAU32@IABU32@@Z ; std::vector<std::pair<TAB_ITEM,CWnd *>,std::allocator<std::pair<TAB_ITEM,CWnd *> > >::_Ufill
  0013a	89 45 84	 mov	 DWORD PTR tv244[ebp], eax
  0013d	8b 4d 84	 mov	 ecx, DWORD PTR tv244[ebp]
  00140	89 4d 94	 mov	 DWORD PTR __Ptr$195836[ebp], ecx

; 830  : 			_Ucopy(_ITER_BASE(_Where), _Mylast, _Ptr);	// copy suffix

  00143	8b 55 94	 mov	 edx, DWORD PTR __Ptr$195836[ebp]
  00146	52		 push	 edx
  00147	8b 45 e8	 mov	 eax, DWORD PTR _this$[ebp]
  0014a	8b 48 08	 mov	 ecx, DWORD PTR [eax+8]
  0014d	51		 push	 ecx
  0014e	8b 55 08	 mov	 edx, DWORD PTR __Where$[ebp]
  00151	52		 push	 edx
  00152	8b 4d e8	 mov	 ecx, DWORD PTR _this$[ebp]
  00155	e8 00 00 00 00	 call	 ??$_Ucopy@PAU?$pair@UTAB_ITEM@@PAVCWnd@@@std@@@?$vector@U?$pair@UTAB_ITEM@@PAVCWnd@@@std@@V?$allocator@U?$pair@UTAB_ITEM@@PAVCWnd@@@std@@@2@@std@@IAEPAU?$pair@UTAB_ITEM@@PAVCWnd@@@1@PAU21@00@Z ; std::vector<std::pair<TAB_ITEM,CWnd *>,std::allocator<std::pair<TAB_ITEM,CWnd *> > >::_Ucopy<std::pair<TAB_ITEM,CWnd *> *>
  0015a	eb 29		 jmp	 SHORT $L197602
$L197603:

; 831  : 			_CATCH_ALL
; 832  : 			_Destroy(_Newvec, _Ptr);

  0015c	8b 45 94	 mov	 eax, DWORD PTR __Ptr$195836[ebp]
  0015f	50		 push	 eax
  00160	8b 4d 98	 mov	 ecx, DWORD PTR __Newvec$195835[ebp]
  00163	51		 push	 ecx
  00164	8b 4d e8	 mov	 ecx, DWORD PTR _this$[ebp]
  00167	e8 00 00 00 00	 call	 ?_Destroy@?$vector@U?$pair@UTAB_ITEM@@PAVCWnd@@@std@@V?$allocator@U?$pair@UTAB_ITEM@@PAVCWnd@@@std@@@2@@std@@IAEXPAU?$pair@UTAB_ITEM@@PAVCWnd@@@2@0@Z ; std::vector<std::pair<TAB_ITEM,CWnd *>,std::allocator<std::pair<TAB_ITEM,CWnd *> > >::_Destroy

; 833  : 			this->_Alval.deallocate(_Newvec, _Capacity);

  0016c	8b 55 9c	 mov	 edx, DWORD PTR __Capacity$[ebp]
  0016f	52		 push	 edx
  00170	8b 45 98	 mov	 eax, DWORD PTR __Newvec$195835[ebp]
  00173	50		 push	 eax
  00174	8b 4d e8	 mov	 ecx, DWORD PTR _this$[ebp]
  00177	e8 00 00 00 00	 call	 ?deallocate@?$allocator@U?$pair@UTAB_ITEM@@PAVCWnd@@@std@@@std@@QAEXPAU?$pair@UTAB_ITEM@@PAVCWnd@@@2@I@Z ; std::allocator<std::pair<TAB_ITEM,CWnd *> >::deallocate

; 834  : 			_RERAISE;

  0017c	6a 00		 push	 0
  0017e	6a 00		 push	 0
  00180	e8 00 00 00 00	 call	 __CxxThrowException@8
$L197602:

; 835  : 			_CATCH_END

  00185	c7 45 fc 00 00
	00 00		 mov	 DWORD PTR __$EHRec$[ebp+12], 0

; 836  : 
; 837  : 			_Count += size();

  0018c	8b 4d e8	 mov	 ecx, DWORD PTR _this$[ebp]
  0018f	e8 00 00 00 00	 call	 ?size@?$vector@U?$pair@UTAB_ITEM@@PAVCWnd@@@std@@V?$allocator@U?$pair@UTAB_ITEM@@PAVCWnd@@@std@@@2@@std@@QBEIXZ ; std::vector<std::pair<TAB_ITEM,CWnd *>,std::allocator<std::pair<TAB_ITEM,CWnd *> > >::size
  00194	03 45 0c	 add	 eax, DWORD PTR __Count$[ebp]
  00197	89 45 0c	 mov	 DWORD PTR __Count$[ebp], eax

; 838  : 			if (_Myfirst != 0)

  0019a	8b 4d e8	 mov	 ecx, DWORD PTR _this$[ebp]
  0019d	83 79 04 00	 cmp	 DWORD PTR [ecx+4], 0
  001a1	74 35		 je	 SHORT $L195843

; 839  : 				{	// destroy and deallocate old array
; 840  : 				_Destroy(_Myfirst, _Mylast);

  001a3	8b 55 e8	 mov	 edx, DWORD PTR _this$[ebp]
  001a6	8b 42 08	 mov	 eax, DWORD PTR [edx+8]
  001a9	50		 push	 eax
  001aa	8b 4d e8	 mov	 ecx, DWORD PTR _this$[ebp]
  001ad	8b 51 04	 mov	 edx, DWORD PTR [ecx+4]
  001b0	52		 push	 edx
  001b1	8b 4d e8	 mov	 ecx, DWORD PTR _this$[ebp]
  001b4	e8 00 00 00 00	 call	 ?_Destroy@?$vector@U?$pair@UTAB_ITEM@@PAVCWnd@@@std@@V?$allocator@U?$pair@UTAB_ITEM@@PAVCWnd@@@std@@@2@@std@@IAEXPAU?$pair@UTAB_ITEM@@PAVCWnd@@@2@0@Z ; std::vector<std::pair<TAB_ITEM,CWnd *>,std::allocator<std::pair<TAB_ITEM,CWnd *> > >::_Destroy

; 841  : 				this->_Alval.deallocate(_Myfirst, _Myend - _Myfirst);

  001b9	8b 45 e8	 mov	 eax, DWORD PTR _this$[ebp]
  001bc	8b 4d e8	 mov	 ecx, DWORD PTR _this$[ebp]
  001bf	8b 50 0c	 mov	 edx, DWORD PTR [eax+12]
  001c2	2b 51 04	 sub	 edx, DWORD PTR [ecx+4]
  001c5	c1 fa 06	 sar	 edx, 6
  001c8	52		 push	 edx
  001c9	8b 45 e8	 mov	 eax, DWORD PTR _this$[ebp]
  001cc	8b 48 04	 mov	 ecx, DWORD PTR [eax+4]
  001cf	51		 push	 ecx
  001d0	8b 4d e8	 mov	 ecx, DWORD PTR _this$[ebp]
  001d3	e8 00 00 00 00	 call	 ?deallocate@?$allocator@U?$pair@UTAB_ITEM@@PAVCWnd@@@std@@@std@@QAEXPAU?$pair@UTAB_ITEM@@PAVCWnd@@@2@I@Z ; std::allocator<std::pair<TAB_ITEM,CWnd *> >::deallocate
$L195843:

; 842  : 				}
; 843  : 			_Myend = _Newvec + _Capacity;

  001d8	8b 55 9c	 mov	 edx, DWORD PTR __Capacity$[ebp]
  001db	c1 e2 06	 shl	 edx, 6
  001de	03 55 98	 add	 edx, DWORD PTR __Newvec$195835[ebp]
  001e1	8b 45 e8	 mov	 eax, DWORD PTR _this$[ebp]
  001e4	89 50 0c	 mov	 DWORD PTR [eax+12], edx

; 844  : 			_Mylast = _Newvec + _Count;

  001e7	8b 4d 0c	 mov	 ecx, DWORD PTR __Count$[ebp]
  001ea	c1 e1 06	 shl	 ecx, 6
  001ed	03 4d 98	 add	 ecx, DWORD PTR __Newvec$195835[ebp]
  001f0	8b 55 e8	 mov	 edx, DWORD PTR _this$[ebp]
  001f3	89 4a 08	 mov	 DWORD PTR [edx+8], ecx

; 845  : 			_Myfirst = _Newvec;

  001f6	8b 45 e8	 mov	 eax, DWORD PTR _this$[ebp]
  001f9	8b 4d 98	 mov	 ecx, DWORD PTR __Newvec$195835[ebp]
  001fc	89 48 04	 mov	 DWORD PTR [eax+4], ecx

; 846  : 			}
; 847  : 		else if ((size_type)(_Mylast - _ITER_BASE(_Where)) < _Count)

  001ff	e9 23 01 00 00	 jmp	 $L195830
$L195833:
  00204	8b 55 e8	 mov	 edx, DWORD PTR _this$[ebp]
  00207	8b 42 08	 mov	 eax, DWORD PTR [edx+8]
  0020a	2b 45 08	 sub	 eax, DWORD PTR __Where$[ebp]
  0020d	c1 f8 06	 sar	 eax, 6
  00210	3b 45 0c	 cmp	 eax, DWORD PTR __Count$[ebp]
  00213	0f 83 aa 00 00
	00		 jae	 $L195846

; 848  : 			{	// new stuff spills off end
; 849  : 			_Ucopy(_ITER_BASE(_Where), _Mylast,
; 850  : 				_ITER_BASE(_Where) + _Count);	// copy suffix

  00219	8b 4d 0c	 mov	 ecx, DWORD PTR __Count$[ebp]
  0021c	c1 e1 06	 shl	 ecx, 6
  0021f	03 4d 08	 add	 ecx, DWORD PTR __Where$[ebp]
  00222	51		 push	 ecx
  00223	8b 55 e8	 mov	 edx, DWORD PTR _this$[ebp]
  00226	8b 42 08	 mov	 eax, DWORD PTR [edx+8]
  00229	50		 push	 eax
  0022a	8b 4d 08	 mov	 ecx, DWORD PTR __Where$[ebp]
  0022d	51		 push	 ecx
  0022e	8b 4d e8	 mov	 ecx, DWORD PTR _this$[ebp]
  00231	e8 00 00 00 00	 call	 ??$_Ucopy@PAU?$pair@UTAB_ITEM@@PAVCWnd@@@std@@@?$vector@U?$pair@UTAB_ITEM@@PAVCWnd@@@std@@V?$allocator@U?$pair@UTAB_ITEM@@PAVCWnd@@@std@@@2@@std@@IAEPAU?$pair@UTAB_ITEM@@PAVCWnd@@@1@PAU21@00@Z ; std::vector<std::pair<TAB_ITEM,CWnd *>,std::allocator<std::pair<TAB_ITEM,CWnd *> > >::_Ucopy<std::pair<TAB_ITEM,CWnd *> *>

; 851  : 
; 852  : 			_TRY_BEGIN

  00236	c6 45 fc 03	 mov	 BYTE PTR __$EHRec$[ebp+12], 3

; 853  : 			_Ufill(_Mylast, _Count - (_Mylast - _ITER_BASE(_Where)),
; 854  : 				_Tmp);	// insert new stuff off end

  0023a	8d 55 a4	 lea	 edx, DWORD PTR __Tmp$[ebp]
  0023d	52		 push	 edx
  0023e	8b 45 e8	 mov	 eax, DWORD PTR _this$[ebp]
  00241	8b 48 08	 mov	 ecx, DWORD PTR [eax+8]
  00244	2b 4d 08	 sub	 ecx, DWORD PTR __Where$[ebp]
  00247	c1 f9 06	 sar	 ecx, 6
  0024a	8b 55 0c	 mov	 edx, DWORD PTR __Count$[ebp]
  0024d	2b d1		 sub	 edx, ecx
  0024f	52		 push	 edx
  00250	8b 45 e8	 mov	 eax, DWORD PTR _this$[ebp]
  00253	8b 48 08	 mov	 ecx, DWORD PTR [eax+8]
  00256	51		 push	 ecx
  00257	8b 4d e8	 mov	 ecx, DWORD PTR _this$[ebp]
  0025a	e8 00 00 00 00	 call	 ?_Ufill@?$vector@U?$pair@UTAB_ITEM@@PAVCWnd@@@std@@V?$allocator@U?$pair@UTAB_ITEM@@PAVCWnd@@@std@@@2@@std@@IAEPAU?$pair@UTAB_ITEM@@PAVCWnd@@@2@PAU32@IABU32@@Z ; std::vector<std::pair<TAB_ITEM,CWnd *>,std::allocator<std::pair<TAB_ITEM,CWnd *> > >::_Ufill
  0025f	eb 28		 jmp	 SHORT $L197604
$L197605:

; 855  : 			_CATCH_ALL
; 856  : 			_Destroy(_ITER_BASE(_Where) + _Count, _Mylast + _Count);

  00261	8b 55 0c	 mov	 edx, DWORD PTR __Count$[ebp]
  00264	c1 e2 06	 shl	 edx, 6
  00267	8b 45 e8	 mov	 eax, DWORD PTR _this$[ebp]
  0026a	03 50 08	 add	 edx, DWORD PTR [eax+8]
  0026d	52		 push	 edx
  0026e	8b 4d 0c	 mov	 ecx, DWORD PTR __Count$[ebp]
  00271	c1 e1 06	 shl	 ecx, 6
  00274	03 4d 08	 add	 ecx, DWORD PTR __Where$[ebp]
  00277	51		 push	 ecx
  00278	8b 4d e8	 mov	 ecx, DWORD PTR _this$[ebp]
  0027b	e8 00 00 00 00	 call	 ?_Destroy@?$vector@U?$pair@UTAB_ITEM@@PAVCWnd@@@std@@V?$allocator@U?$pair@UTAB_ITEM@@PAVCWnd@@@std@@@2@@std@@IAEXPAU?$pair@UTAB_ITEM@@PAVCWnd@@@2@0@Z ; std::vector<std::pair<TAB_ITEM,CWnd *>,std::allocator<std::pair<TAB_ITEM,CWnd *> > >::_Destroy

; 857  : 			_RERAISE;

  00280	6a 00		 push	 0
  00282	6a 00		 push	 0
  00284	e8 00 00 00 00	 call	 __CxxThrowException@8
$L197604:

; 858  : 			_CATCH_END

  00289	c7 45 fc 00 00
	00 00		 mov	 DWORD PTR __$EHRec$[ebp+12], 0

; 859  : 
; 860  : 			_Mylast += _Count;

  00290	8b 55 0c	 mov	 edx, DWORD PTR __Count$[ebp]
  00293	c1 e2 06	 shl	 edx, 6
  00296	8b 45 e8	 mov	 eax, DWORD PTR _this$[ebp]
  00299	03 50 08	 add	 edx, DWORD PTR [eax+8]
  0029c	8b 4d e8	 mov	 ecx, DWORD PTR _this$[ebp]
  0029f	89 51 08	 mov	 DWORD PTR [ecx+8], edx

; 861  : 			fill(_ITER_BASE(_Where), _Mylast - _Count,
; 862  : 				_Tmp);	// insert up to old end

  002a2	8d 55 a4	 lea	 edx, DWORD PTR __Tmp$[ebp]
  002a5	52		 push	 edx
  002a6	8b 45 0c	 mov	 eax, DWORD PTR __Count$[ebp]
  002a9	c1 e0 06	 shl	 eax, 6
  002ac	8b 4d e8	 mov	 ecx, DWORD PTR _this$[ebp]
  002af	8b 51 08	 mov	 edx, DWORD PTR [ecx+8]
  002b2	2b d0		 sub	 edx, eax
  002b4	52		 push	 edx
  002b5	8b 45 08	 mov	 eax, DWORD PTR __Where$[ebp]
  002b8	50		 push	 eax
  002b9	e8 00 00 00 00	 call	 ??$fill@PAU?$pair@UTAB_ITEM@@PAVCWnd@@@std@@U12@@std@@YAXPAU?$pair@UTAB_ITEM@@PAVCWnd@@@0@0ABU10@@Z ; std::fill<std::pair<TAB_ITEM,CWnd *> *,std::pair<TAB_ITEM,CWnd *> >
  002be	83 c4 0c	 add	 esp, 12			; 0000000cH

; 863  : 			}
; 864  : 		else

  002c1	eb 64		 jmp	 SHORT $L195830
$L195846:

; 865  : 			{	// new stuff can all be assigned
; 866  : 			pointer _Oldend = _Mylast;

  002c3	8b 4d e8	 mov	 ecx, DWORD PTR _this$[ebp]
  002c6	8b 51 08	 mov	 edx, DWORD PTR [ecx+8]
  002c9	89 55 90	 mov	 DWORD PTR __Oldend$195856[ebp], edx

; 867  : 			_Mylast = _Ucopy(_Oldend - _Count, _Oldend,
; 868  : 				_Mylast);	// copy suffix

  002cc	8b 45 e8	 mov	 eax, DWORD PTR _this$[ebp]
  002cf	8b 48 08	 mov	 ecx, DWORD PTR [eax+8]
  002d2	51		 push	 ecx
  002d3	8b 55 90	 mov	 edx, DWORD PTR __Oldend$195856[ebp]
  002d6	52		 push	 edx
  002d7	8b 45 0c	 mov	 eax, DWORD PTR __Count$[ebp]
  002da	c1 e0 06	 shl	 eax, 6
  002dd	8b 4d 90	 mov	 ecx, DWORD PTR __Oldend$195856[ebp]
  002e0	2b c8		 sub	 ecx, eax
  002e2	51		 push	 ecx
  002e3	8b 4d e8	 mov	 ecx, DWORD PTR _this$[ebp]
  002e6	e8 00 00 00 00	 call	 ??$_Ucopy@PAU?$pair@UTAB_ITEM@@PAVCWnd@@@std@@@?$vector@U?$pair@UTAB_ITEM@@PAVCWnd@@@std@@V?$allocator@U?$pair@UTAB_ITEM@@PAVCWnd@@@std@@@2@@std@@IAEPAU?$pair@UTAB_ITEM@@PAVCWnd@@@1@PAU21@00@Z ; std::vector<std::pair<TAB_ITEM,CWnd *>,std::allocator<std::pair<TAB_ITEM,CWnd *> > >::_Ucopy<std::pair<TAB_ITEM,CWnd *> *>
  002eb	8b 55 e8	 mov	 edx, DWORD PTR _this$[ebp]
  002ee	89 42 08	 mov	 DWORD PTR [edx+8], eax

; 869  : 			copy_backward(_ITER_BASE(_Where), _Oldend - _Count,
; 870  : 				_Oldend);	// copy hole

  002f1	8b 45 90	 mov	 eax, DWORD PTR __Oldend$195856[ebp]
  002f4	50		 push	 eax
  002f5	8b 4d 0c	 mov	 ecx, DWORD PTR __Count$[ebp]
  002f8	c1 e1 06	 shl	 ecx, 6
  002fb	8b 55 90	 mov	 edx, DWORD PTR __Oldend$195856[ebp]
  002fe	2b d1		 sub	 edx, ecx
  00300	52		 push	 edx
  00301	8b 45 08	 mov	 eax, DWORD PTR __Where$[ebp]
  00304	50		 push	 eax
  00305	e8 00 00 00 00	 call	 ??$copy_backward@PAU?$pair@UTAB_ITEM@@PAVCWnd@@@std@@PAU12@@std@@YAPAU?$pair@UTAB_ITEM@@PAVCWnd@@@0@PAU10@00@Z ; std::copy_backward<std::pair<TAB_ITEM,CWnd *> *,std::pair<TAB_ITEM,CWnd *> *>
  0030a	83 c4 0c	 add	 esp, 12			; 0000000cH

; 871  : 			fill(_ITER_BASE(_Where), _ITER_BASE(_Where) + _Count,
; 872  : 				_Tmp);	// insert into hole

  0030d	8d 4d a4	 lea	 ecx, DWORD PTR __Tmp$[ebp]
  00310	51		 push	 ecx
  00311	8b 55 0c	 mov	 edx, DWORD PTR __Count$[ebp]
  00314	c1 e2 06	 shl	 edx, 6
  00317	03 55 08	 add	 edx, DWORD PTR __Where$[ebp]
  0031a	52		 push	 edx
  0031b	8b 45 08	 mov	 eax, DWORD PTR __Where$[ebp]
  0031e	50		 push	 eax
  0031f	e8 00 00 00 00	 call	 ??$fill@PAU?$pair@UTAB_ITEM@@PAVCWnd@@@std@@U12@@std@@YAXPAU?$pair@UTAB_ITEM@@PAVCWnd@@@0@0ABU10@@Z ; std::fill<std::pair<TAB_ITEM,CWnd *> *,std::pair<TAB_ITEM,CWnd *> >
  00324	83 c4 0c	 add	 esp, 12			; 0000000cH
$L195830:

; 873  : 			}
; 874  : 		}

  00327	c7 45 fc ff ff
	ff ff		 mov	 DWORD PTR __$EHRec$[ebp+12], -1
  0032e	8d 4d a4	 lea	 ecx, DWORD PTR __Tmp$[ebp]
  00331	e8 00 00 00 00	 call	 ??1?$pair@UTAB_ITEM@@PAVCWnd@@@std@@QAE@XZ
$L197598:
  00336	52		 push	 edx
  00337	8b cd		 mov	 ecx, ebp
  00339	50		 push	 eax
  0033a	8d 15 00 00 00
	00		 lea	 edx, DWORD PTR $L197613
  00340	e8 00 00 00 00	 call	 @_RTC_CheckStackVars@8
  00345	58		 pop	 eax
  00346	5a		 pop	 edx
  00347	8b 4d f4	 mov	 ecx, DWORD PTR __$EHRec$[ebp+4]
  0034a	64 89 0d 00 00
	00 00		 mov	 DWORD PTR fs:__except_list, ecx
  00351	8b 4d ec	 mov	 ecx, DWORD PTR __$ArrayPad$[ebp]
  00354	e8 00 00 00 00	 call	 @__security_check_cookie@4
  00359	5f		 pop	 edi
  0035a	5e		 pop	 esi
  0035b	5b		 pop	 ebx
  0035c	83 c4 7c	 add	 esp, 124		; 0000007cH
  0035f	3b ec		 cmp	 ebp, esp
  00361	e8 00 00 00 00	 call	 __RTC_CheckEsp
  00366	8b e5		 mov	 esp, ebp
  00368	5d		 pop	 ebp
  00369	c2 0c 00	 ret	 12			; 0000000cH
$L197613:
  0036c	01 00 00 00	 DD	 1
  00370	00 00 00 00	 DD	 $L197612
$L197612:
  00374	a4 ff ff ff	 DD	 -92			; ffffffa4H
  00378	40 00 00 00	 DD	 64			; 00000040H
  0037c	00 00 00 00	 DD	 $L197609
$L197609:
  00380	5f		 DB	 95			; 0000005fH
  00381	54		 DB	 84			; 00000054H
  00382	6d		 DB	 109			; 0000006dH
  00383	70		 DB	 112			; 00000070H
  00384	00		 DB	 0
_TEXT	ENDS
;	COMDAT text$x
text$x	SEGMENT
$L197606:
  00000	8d 4d a4	 lea	 ecx, DWORD PTR __Tmp$[ebp]
  00003	e9 00 00 00 00	 jmp	 ??1?$pair@UTAB_ITEM@@PAVCWnd@@@std@@QAE@XZ
__ehhandler$?_Insert_n@?$vector@U?$pair@UTAB_ITEM@@PAVCWnd@@@std@@V?$allocator@U?$pair@UTAB_ITEM@@PAVCWnd@@@std@@@2@@std@@IAEXViterator@12@IABU?$pair@UTAB_ITEM@@PAVCWnd@@@2@@Z:
  00008	b8 00 00 00 00	 mov	 eax, OFFSET FLAT:$T197608
  0000d	e9 00 00 00 00	 jmp	 ___CxxFrameHandler
text$x	ENDS
?_Insert_n@?$vector@U?$pair@UTAB_ITEM@@PAVCWnd@@@std@@V?$allocator@U?$pair@UTAB_ITEM@@PAVCWnd@@@std@@@2@@std@@IAEXViterator@12@IABU?$pair@UTAB_ITEM@@PAVCWnd@@@2@@Z ENDP ; std::vector<std::pair<TAB_ITEM,CWnd *>,std::allocator<std::pair<TAB_ITEM,CWnd *> > >::_Insert_n
PUBLIC	??_R0?AVlogic_error@std@@@8			; std::logic_error `RTTI Type Descriptor'
PUBLIC	__CT??_R0?AVlogic_error@std@@@8??0logic_error@std@@QAE@ABV01@@Z40
PUBLIC	??_R0?AVexception@@@8				; exception `RTTI Type Descriptor'
PUBLIC	__CT??_R0?AVexception@@@8??0exception@@QAE@ABV0@@Z12
PUBLIC	__TI3?AVlength_error@std@@
PUBLIC	__CTA3?AVlength_error@std@@
PUBLIC	__CT??_R0?AVlength_error@std@@@8??0length_error@std@@QAE@ABV01@@Z40
PUBLIC	??_C@_0BD@OLBABOEK@vector?$DMT?$DO?5too?5long?$AA@ ; `string'
PUBLIC	??_R0?AVlength_error@std@@@8			; std::length_error `RTTI Type Descriptor'
PUBLIC	??0logic_error@std@@QAE@ABV01@@Z		; std::logic_error::logic_error
PUBLIC	??0length_error@std@@QAE@ABV?$basic_string@DU?$char_traits@D@std@@V?$allocator@D@2@@1@@Z ; std::length_error::length_error
PUBLIC	??1length_error@std@@UAE@XZ			; std::length_error::~length_error
PUBLIC	??0length_error@std@@QAE@ABV01@@Z		; std::length_error::length_error
EXTRN	??0exception@@QAE@ABV0@@Z:NEAR			; exception::exception
;	COMDAT xdata$x
xdata$x	SEGMENT
$T197627 DD	0ffffffffH
	DD	FLAT:$L197623
$T197625 DD	019930520H
	DD	01H
	DD	FLAT:$T197627
	DD	2 DUP(00H)
	DD	2 DUP(00H)
xdata$x	ENDS
;	COMDAT ??_C@_0BD@OLBABOEK@vector?$DMT?$DO?5too?5long?$AA@
CONST	SEGMENT
??_C@_0BD@OLBABOEK@vector?$DMT?$DO?5too?5long?$AA@ DB 'vector<T> too long'
	DB	00H						; `string'
CONST	ENDS
;	COMDAT __TI3?AVlength_error@std@@
xdata$x	SEGMENT
__TI3?AVlength_error@std@@ DD 00H
	DD	FLAT:??1length_error@std@@UAE@XZ
	DD	00H
	DD	FLAT:__CTA3?AVlength_error@std@@
xdata$x	ENDS
;	COMDAT __CTA3?AVlength_error@std@@
xdata$x	SEGMENT
__CTA3?AVlength_error@std@@ DD 03H
	DD	FLAT:__CT??_R0?AVlength_error@std@@@8??0length_error@std@@QAE@ABV01@@Z40
	DD	FLAT:__CT??_R0?AVlogic_error@std@@@8??0logic_error@std@@QAE@ABV01@@Z40
	DD	FLAT:__CT??_R0?AVexception@@@8??0exception@@QAE@ABV0@@Z12
xdata$x	ENDS
;	COMDAT __CT??_R0?AVlength_error@std@@@8??0length_error@std@@QAE@ABV01@@Z40
xdata$x	SEGMENT
__CT??_R0?AVlength_error@std@@@8??0length_error@std@@QAE@ABV01@@Z40 DD 00H
	DD	FLAT:??_R0?AVlength_error@std@@@8
	DD	00H
	DD	0ffffffffH
	ORG $+4
	DD	028H
	DD	FLAT:??0length_error@std@@QAE@ABV01@@Z
xdata$x	ENDS
;	COMDAT ??_R0?AVlength_error@std@@@8
_DATA	SEGMENT
??_R0?AVlength_error@std@@@8 DD FLAT:??_7type_info@@6B@	; std::length_error `RTTI Type Descriptor'
	DD	00H
	DB	'.?AVlength_error@std@@', 00H
	ORG $-31
	DD	FLAT:??_7type_info@@6B@
	DD	00H
	DB	'.?AVlength_error@std@@', 00H
_DATA	ENDS
;	COMDAT __CT??_R0?AVlogic_error@std@@@8??0logic_error@std@@QAE@ABV01@@Z40
xdata$x	SEGMENT
__CT??_R0?AVlogic_error@std@@@8??0logic_error@std@@QAE@ABV01@@Z40 DD 00H
	DD	FLAT:??_R0?AVlogic_error@std@@@8
	DD	00H
	DD	0ffffffffH
	ORG $+4
	DD	028H
	DD	FLAT:??0logic_error@std@@QAE@ABV01@@Z
xdata$x	ENDS
;	COMDAT ??_R0?AVlogic_error@std@@@8
_DATA	SEGMENT
??_R0?AVlogic_error@std@@@8 DD FLAT:??_7type_info@@6B@	; std::logic_error `RTTI Type Descriptor'
	DD	00H
	DB	'.?AVlogic_error@std@@', 00H
	ORG $-30
	DD	FLAT:??_7type_info@@6B@
	DD	00H
	DB	'.?AVlogic_error@std@@', 00H
_DATA	ENDS
;	COMDAT __CT??_R0?AVexception@@@8??0exception@@QAE@ABV0@@Z12
xdata$x	SEGMENT
__CT??_R0?AVexception@@@8??0exception@@QAE@ABV0@@Z12 DD 00H
	DD	FLAT:??_R0?AVexception@@@8
	DD	00H
	DD	0ffffffffH
	ORG $+4
	DD	0cH
	DD	FLAT:??0exception@@QAE@ABV0@@Z
xdata$x	ENDS
;	COMDAT ??_R0?AVexception@@@8
_DATA	SEGMENT
??_R0?AVexception@@@8 DD FLAT:??_7type_info@@6B@	; exception `RTTI Type Descriptor'
	DD	00H
	DB	'.?AVexception@@', 00H
	ORG $-24
	DD	FLAT:??_7type_info@@6B@
	DD	00H
	DB	'.?AVexception@@', 00H
; Function compile flags: /Odt /RTCsu
_DATA	ENDS
;	COMDAT ?_Xlen@?$vector@U?$pair@UTAB_ITEM@@PAVCWnd@@@std@@V?$allocator@U?$pair@UTAB_ITEM@@PAVCWnd@@@std@@@2@@std@@IBEXXZ
_TEXT	SEGMENT
$T197622 = -84						; size = 28
$T197621 = -56						; size = 40
_this$ = -16						; size = 4
__$EHRec$ = -12						; size = 12
?_Xlen@?$vector@U?$pair@UTAB_ITEM@@PAVCWnd@@@std@@V?$allocator@U?$pair@UTAB_ITEM@@PAVCWnd@@@std@@@2@@std@@IBEXXZ PROC NEAR ; std::vector<std::pair<TAB_ITEM,CWnd *>,std::allocator<std::pair<TAB_ITEM,CWnd *> > >::_Xlen, COMDAT
; _this$ = ecx

; 883  : 		{	// report a length_error

  00000	55		 push	 ebp
  00001	8b ec		 mov	 ebp, esp
  00003	6a ff		 push	 -1
  00005	68 00 00 00 00	 push	 __ehhandler$?_Xlen@?$vector@U?$pair@UTAB_ITEM@@PAVCWnd@@@std@@V?$allocator@U?$pair@UTAB_ITEM@@PAVCWnd@@@std@@@2@@std@@IBEXXZ
  0000a	64 a1 00 00 00
	00		 mov	 eax, DWORD PTR fs:__except_list
  00010	50		 push	 eax
  00011	64 89 25 00 00
	00 00		 mov	 DWORD PTR fs:__except_list, esp
  00018	83 ec 48	 sub	 esp, 72			; 00000048H
  0001b	56		 push	 esi
  0001c	57		 push	 edi
  0001d	51		 push	 ecx
  0001e	8d 7d ac	 lea	 edi, DWORD PTR [ebp-84]
  00021	b9 12 00 00 00	 mov	 ecx, 18			; 00000012H
  00026	b8 cc cc cc cc	 mov	 eax, -858993460		; ccccccccH
  0002b	f3 ab		 rep stosd
  0002d	59		 pop	 ecx
  0002e	89 4d f0	 mov	 DWORD PTR _this$[ebp], ecx

; 884  : 		_THROW(length_error, "vector<T> too long");

  00031	8b f4		 mov	 esi, esp
  00033	68 00 00 00 00	 push	 OFFSET FLAT:??_C@_0BD@OLBABOEK@vector?$DMT?$DO?5too?5long?$AA@
  00038	8d 4d ac	 lea	 ecx, DWORD PTR $T197622[ebp]
  0003b	ff 15 00 00 00
	00		 call	 DWORD PTR __imp_??0?$basic_string@DU?$char_traits@D@std@@V?$allocator@D@2@@std@@QAE@PBD@Z
  00041	3b f4		 cmp	 esi, esp
  00043	e8 00 00 00 00	 call	 __RTC_CheckEsp
  00048	c7 45 fc 00 00
	00 00		 mov	 DWORD PTR __$EHRec$[ebp+8], 0
  0004f	8d 45 ac	 lea	 eax, DWORD PTR $T197622[ebp]
  00052	50		 push	 eax
  00053	8d 4d c8	 lea	 ecx, DWORD PTR $T197621[ebp]
  00056	e8 00 00 00 00	 call	 ??0length_error@std@@QAE@ABV?$basic_string@DU?$char_traits@D@std@@V?$allocator@D@2@@1@@Z ; std::length_error::length_error
  0005b	68 00 00 00 00	 push	 OFFSET FLAT:__TI3?AVlength_error@std@@
  00060	8d 4d c8	 lea	 ecx, DWORD PTR $T197621[ebp]
  00063	51		 push	 ecx
  00064	e8 00 00 00 00	 call	 __CxxThrowException@8
$L197620:

; 885  : 		}

  00069	8b 4d f4	 mov	 ecx, DWORD PTR __$EHRec$[ebp]
  0006c	64 89 0d 00 00
	00 00		 mov	 DWORD PTR fs:__except_list, ecx
  00073	5f		 pop	 edi
  00074	5e		 pop	 esi
  00075	83 c4 54	 add	 esp, 84			; 00000054H
  00078	3b ec		 cmp	 ebp, esp
  0007a	e8 00 00 00 00	 call	 __RTC_CheckEsp
  0007f	8b e5		 mov	 esp, ebp
  00081	5d		 pop	 ebp
  00082	c3		 ret	 0
_TEXT	ENDS
;	COMDAT text$x
text$x	SEGMENT
$L197623:
  00000	8b f4		 mov	 esi, esp
  00002	8d 4d ac	 lea	 ecx, DWORD PTR $T197622[ebp]
  00005	ff 15 00 00 00
	00		 call	 DWORD PTR __imp_??1?$basic_string@DU?$char_traits@D@std@@V?$allocator@D@2@@std@@QAE@XZ
  0000b	3b f4		 cmp	 esi, esp
  0000d	e9 00 00 00 00	 jmp	 __RTC_CheckEsp
__ehhandler$?_Xlen@?$vector@U?$pair@UTAB_ITEM@@PAVCWnd@@@std@@V?$allocator@U?$pair@UTAB_ITEM@@PAVCWnd@@@std@@@2@@std@@IBEXXZ:
  00012	b8 00 00 00 00	 mov	 eax, OFFSET FLAT:$T197625
  00017	e9 00 00 00 00	 jmp	 ___CxxFrameHandler
text$x	ENDS
?_Xlen@?$vector@U?$pair@UTAB_ITEM@@PAVCWnd@@@std@@V?$allocator@U?$pair@UTAB_ITEM@@PAVCWnd@@@std@@@2@@std@@IBEXXZ ENDP ; std::vector<std::pair<TAB_ITEM,CWnd *>,std::allocator<std::pair<TAB_ITEM,CWnd *> > >::_Xlen
; Function compile flags: /Odt /RTCsu
; File d:\program files (x86)\microsoft visual studio .net 2003\vc7\include\xmemory
;	COMDAT ??0?$allocator@U?$pair@UTAB_ITEM@@PAVCWnd@@@std@@@std@@QAE@ABV01@@Z
_TEXT	SEGMENT
_this$ = -4						; size = 4
___formal$ = 8						; size = 4
??0?$allocator@U?$pair@UTAB_ITEM@@PAVCWnd@@@std@@@std@@QAE@ABV01@@Z PROC NEAR ; std::allocator<std::pair<TAB_ITEM,CWnd *> >::allocator<std::pair<TAB_ITEM,CWnd *> >, COMDAT
; _this$ = ecx

; 115  : 	allocator(const allocator<_Ty>&)

  00000	55		 push	 ebp
  00001	8b ec		 mov	 ebp, esp
  00003	51		 push	 ecx
  00004	c7 45 fc cc cc
	cc cc		 mov	 DWORD PTR [ebp-4], -858993460 ; ccccccccH
  0000b	89 4d fc	 mov	 DWORD PTR _this$[ebp], ecx

; 116  : 		{	// construct by copying (do nothing)
; 117  : 		}

  0000e	8b 45 fc	 mov	 eax, DWORD PTR _this$[ebp]
  00011	8b e5		 mov	 esp, ebp
  00013	5d		 pop	 ebp
  00014	c2 04 00	 ret	 4
??0?$allocator@U?$pair@UTAB_ITEM@@PAVCWnd@@@std@@@std@@QAE@ABV01@@Z ENDP ; std::allocator<std::pair<TAB_ITEM,CWnd *> >::allocator<std::pair<TAB_ITEM,CWnd *> >
; Function compile flags: /Odt /RTCsu
_TEXT	ENDS
;	COMDAT ?deallocate@?$allocator@U?$pair@UTAB_ITEM@@PAVCWnd@@@std@@@std@@QAEXPAU?$pair@UTAB_ITEM@@PAVCWnd@@@2@I@Z
_TEXT	SEGMENT
_this$ = -4						; size = 4
__Ptr$ = 8						; size = 4
___formal$ = 12						; size = 4
?deallocate@?$allocator@U?$pair@UTAB_ITEM@@PAVCWnd@@@std@@@std@@QAEXPAU?$pair@UTAB_ITEM@@PAVCWnd@@@2@I@Z PROC NEAR ; std::allocator<std::pair<TAB_ITEM,CWnd *> >::deallocate, COMDAT
; _this$ = ecx

; 131  : 		{	// deallocate object at _Ptr, ignore size

  00000	55		 push	 ebp
  00001	8b ec		 mov	 ebp, esp
  00003	51		 push	 ecx
  00004	c7 45 fc cc cc
	cc cc		 mov	 DWORD PTR [ebp-4], -858993460 ; ccccccccH
  0000b	89 4d fc	 mov	 DWORD PTR _this$[ebp], ecx

; 132  : 		operator delete(_Ptr);

  0000e	8b 45 08	 mov	 eax, DWORD PTR __Ptr$[ebp]
  00011	50		 push	 eax
  00012	e8 00 00 00 00	 call	 ??3@YAXPAX@Z		; operator delete
  00017	83 c4 04	 add	 esp, 4

; 133  : 		}

  0001a	83 c4 04	 add	 esp, 4
  0001d	3b ec		 cmp	 ebp, esp
  0001f	e8 00 00 00 00	 call	 __RTC_CheckEsp
  00024	8b e5		 mov	 esp, ebp
  00026	5d		 pop	 ebp
  00027	c2 08 00	 ret	 8
?deallocate@?$allocator@U?$pair@UTAB_ITEM@@PAVCWnd@@@std@@@std@@QAEXPAU?$pair@UTAB_ITEM@@PAVCWnd@@@2@I@Z ENDP ; std::allocator<std::pair<TAB_ITEM,CWnd *> >::deallocate
_TEXT	ENDS
PUBLIC	??$_Allocate@U?$pair@UTAB_ITEM@@PAVCWnd@@@std@@@std@@YAPAU?$pair@UTAB_ITEM@@PAVCWnd@@@0@IPAU10@@Z ; std::_Allocate<std::pair<TAB_ITEM,CWnd *> >
; Function compile flags: /Odt /RTCsu
;	COMDAT ?allocate@?$allocator@U?$pair@UTAB_ITEM@@PAVCWnd@@@std@@@std@@QAEPAU?$pair@UTAB_ITEM@@PAVCWnd@@@2@I@Z
_TEXT	SEGMENT
_this$ = -4						; size = 4
__Count$ = 8						; size = 4
?allocate@?$allocator@U?$pair@UTAB_ITEM@@PAVCWnd@@@std@@@std@@QAEPAU?$pair@UTAB_ITEM@@PAVCWnd@@@2@I@Z PROC NEAR ; std::allocator<std::pair<TAB_ITEM,CWnd *> >::allocate, COMDAT
; _this$ = ecx

; 136  : 		{	// allocate array of _Count elements

  00000	55		 push	 ebp
  00001	8b ec		 mov	 ebp, esp
  00003	51		 push	 ecx
  00004	c7 45 fc cc cc
	cc cc		 mov	 DWORD PTR [ebp-4], -858993460 ; ccccccccH
  0000b	89 4d fc	 mov	 DWORD PTR _this$[ebp], ecx

; 137  : 		return (_Allocate(_Count, (pointer)0));

  0000e	6a 00		 push	 0
  00010	8b 45 08	 mov	 eax, DWORD PTR __Count$[ebp]
  00013	50		 push	 eax
  00014	e8 00 00 00 00	 call	 ??$_Allocate@U?$pair@UTAB_ITEM@@PAVCWnd@@@std@@@std@@YAPAU?$pair@UTAB_ITEM@@PAVCWnd@@@0@IPAU10@@Z ; std::_Allocate<std::pair<TAB_ITEM,CWnd *> >
  00019	83 c4 08	 add	 esp, 8

; 138  : 		}

  0001c	83 c4 04	 add	 esp, 4
  0001f	3b ec		 cmp	 ebp, esp
  00021	e8 00 00 00 00	 call	 __RTC_CheckEsp
  00026	8b e5		 mov	 esp, ebp
  00028	5d		 pop	 ebp
  00029	c2 04 00	 ret	 4
?allocate@?$allocator@U?$pair@UTAB_ITEM@@PAVCWnd@@@std@@@std@@QAEPAU?$pair@UTAB_ITEM@@PAVCWnd@@@2@I@Z ENDP ; std::allocator<std::pair<TAB_ITEM,CWnd *> >::allocate
_TEXT	ENDS
PUBLIC	??Yiterator@?$vector@U?$pair@UTAB_ITEM@@PAVCWnd@@@std@@V?$allocator@U?$pair@UTAB_ITEM@@PAVCWnd@@@std@@@2@@std@@QAEAAV012@H@Z ; std::vector<std::pair<TAB_ITEM,CWnd *>,std::allocator<std::pair<TAB_ITEM,CWnd *> > >::iterator::operator+=
; Function compile flags: /Odt /RTCsu
; File d:\program files (x86)\microsoft visual studio .net 2003\vc7\include\vector
;	COMDAT ??Hiterator@?$vector@U?$pair@UTAB_ITEM@@PAVCWnd@@@std@@V?$allocator@U?$pair@UTAB_ITEM@@PAVCWnd@@@std@@@2@@std@@QBE?AV012@H@Z
_TEXT	SEGMENT
__Tmp$ = -12						; size = 4
_this$ = -4						; size = 4
___$ReturnUdt$ = 8					; size = 4
__Off$ = 12						; size = 4
??Hiterator@?$vector@U?$pair@UTAB_ITEM@@PAVCWnd@@@std@@V?$allocator@U?$pair@UTAB_ITEM@@PAVCWnd@@@std@@@2@@std@@QBE?AV012@H@Z PROC NEAR ; std::vector<std::pair<TAB_ITEM,CWnd *>,std::allocator<std::pair<TAB_ITEM,CWnd *> > >::iterator::operator+, COMDAT
; _this$ = ecx

; 261  : 			{	// return this + integer

  00000	55		 push	 ebp
  00001	8b ec		 mov	 ebp, esp
  00003	83 ec 10	 sub	 esp, 16			; 00000010H
  00006	b8 cc cc cc cc	 mov	 eax, -858993460		; ccccccccH
  0000b	89 45 f0	 mov	 DWORD PTR [ebp-16], eax
  0000e	89 45 f4	 mov	 DWORD PTR [ebp-12], eax
  00011	89 45 f8	 mov	 DWORD PTR [ebp-8], eax
  00014	89 45 fc	 mov	 DWORD PTR [ebp-4], eax
  00017	89 4d fc	 mov	 DWORD PTR _this$[ebp], ecx

; 262  : 			iterator _Tmp = *this;

  0001a	8b 45 fc	 mov	 eax, DWORD PTR _this$[ebp]
  0001d	8b 08		 mov	 ecx, DWORD PTR [eax]
  0001f	89 4d f4	 mov	 DWORD PTR __Tmp$[ebp], ecx

; 263  : 			return (_Tmp += _Off);

  00022	8b 55 0c	 mov	 edx, DWORD PTR __Off$[ebp]
  00025	52		 push	 edx
  00026	8d 4d f4	 lea	 ecx, DWORD PTR __Tmp$[ebp]
  00029	e8 00 00 00 00	 call	 ??Yiterator@?$vector@U?$pair@UTAB_ITEM@@PAVCWnd@@@std@@V?$allocator@U?$pair@UTAB_ITEM@@PAVCWnd@@@std@@@2@@std@@QAEAAV012@H@Z ; std::vector<std::pair<TAB_ITEM,CWnd *>,std::allocator<std::pair<TAB_ITEM,CWnd *> > >::iterator::operator+=
  0002e	8b 00		 mov	 eax, DWORD PTR [eax]
  00030	8b 4d 08	 mov	 ecx, DWORD PTR ___$ReturnUdt$[ebp]
  00033	89 01		 mov	 DWORD PTR [ecx], eax
  00035	8b 45 08	 mov	 eax, DWORD PTR ___$ReturnUdt$[ebp]

; 264  : 			}

  00038	52		 push	 edx
  00039	8b cd		 mov	 ecx, ebp
  0003b	50		 push	 eax
  0003c	8d 15 00 00 00
	00		 lea	 edx, DWORD PTR $L197636
  00042	e8 00 00 00 00	 call	 @_RTC_CheckStackVars@8
  00047	58		 pop	 eax
  00048	5a		 pop	 edx
  00049	83 c4 10	 add	 esp, 16			; 00000010H
  0004c	3b ec		 cmp	 ebp, esp
  0004e	e8 00 00 00 00	 call	 __RTC_CheckEsp
  00053	8b e5		 mov	 esp, ebp
  00055	5d		 pop	 ebp
  00056	c2 08 00	 ret	 8
$L197636:
  00059	01 00 00 00	 DD	 1
  0005d	00 00 00 00	 DD	 $L197635
$L197635:
  00061	f4 ff ff ff	 DD	 -12			; fffffff4H
  00065	04 00 00 00	 DD	 4
  00069	00 00 00 00	 DD	 $L197634
$L197634:
  0006d	5f		 DB	 95			; 0000005fH
  0006e	54		 DB	 84			; 00000054H
  0006f	6d		 DB	 109			; 0000006dH
  00070	70		 DB	 112			; 00000070H
  00071	00		 DB	 0
??Hiterator@?$vector@U?$pair@UTAB_ITEM@@PAVCWnd@@@std@@V?$allocator@U?$pair@UTAB_ITEM@@PAVCWnd@@@std@@@2@@std@@QBE?AV012@H@Z ENDP ; std::vector<std::pair<TAB_ITEM,CWnd *>,std::allocator<std::pair<TAB_ITEM,CWnd *> > >::iterator::operator+
_TEXT	ENDS
PUBLIC	??Gconst_iterator@?$vector@U?$pair@UTAB_ITEM@@PAVCWnd@@@std@@V?$allocator@U?$pair@UTAB_ITEM@@PAVCWnd@@@std@@@2@@std@@QBEHABV012@@Z ; std::vector<std::pair<TAB_ITEM,CWnd *>,std::allocator<std::pair<TAB_ITEM,CWnd *> > >::const_iterator::operator-
; Function compile flags: /Odt /RTCsu
;	COMDAT ??Giterator@?$vector@U?$pair@UTAB_ITEM@@PAVCWnd@@@std@@V?$allocator@U?$pair@UTAB_ITEM@@PAVCWnd@@@std@@@2@@std@@QBEHABVconst_iterator@12@@Z
_TEXT	SEGMENT
$T197638 = -8						; size = 4
_this$ = -4						; size = 4
__Right$ = 8						; size = 4
??Giterator@?$vector@U?$pair@UTAB_ITEM@@PAVCWnd@@@std@@V?$allocator@U?$pair@UTAB_ITEM@@PAVCWnd@@@std@@@2@@std@@QBEHABVconst_iterator@12@@Z PROC NEAR ; std::vector<std::pair<TAB_ITEM,CWnd *>,std::allocator<std::pair<TAB_ITEM,CWnd *> > >::iterator::operator-, COMDAT
; _this$ = ecx

; 278  : 			{	// return difference of iterators

  00000	55		 push	 ebp
  00001	8b ec		 mov	 ebp, esp
  00003	83 ec 08	 sub	 esp, 8
  00006	c7 45 f8 cc cc
	cc cc		 mov	 DWORD PTR [ebp-8], -858993460 ; ccccccccH
  0000d	c7 45 fc cc cc
	cc cc		 mov	 DWORD PTR [ebp-4], -858993460 ; ccccccccH
  00014	89 4d fc	 mov	 DWORD PTR _this$[ebp], ecx

; 279  : 			return ((const_iterator)*this - _Right);

  00017	8b 45 fc	 mov	 eax, DWORD PTR _this$[ebp]
  0001a	8b 08		 mov	 ecx, DWORD PTR [eax]
  0001c	89 4d f8	 mov	 DWORD PTR $T197638[ebp], ecx
  0001f	8b 55 08	 mov	 edx, DWORD PTR __Right$[ebp]
  00022	52		 push	 edx
  00023	8d 4d f8	 lea	 ecx, DWORD PTR $T197638[ebp]
  00026	e8 00 00 00 00	 call	 ??Gconst_iterator@?$vector@U?$pair@UTAB_ITEM@@PAVCWnd@@@std@@V?$allocator@U?$pair@UTAB_ITEM@@PAVCWnd@@@std@@@2@@std@@QBEHABV012@@Z ; std::vector<std::pair<TAB_ITEM,CWnd *>,std::allocator<std::pair<TAB_ITEM,CWnd *> > >::const_iterator::operator-

; 280  : 			}

  0002b	83 c4 08	 add	 esp, 8
  0002e	3b ec		 cmp	 ebp, esp
  00030	e8 00 00 00 00	 call	 __RTC_CheckEsp
  00035	8b e5		 mov	 esp, ebp
  00037	5d		 pop	 ebp
  00038	c2 04 00	 ret	 4
??Giterator@?$vector@U?$pair@UTAB_ITEM@@PAVCWnd@@@std@@V?$allocator@U?$pair@UTAB_ITEM@@PAVCWnd@@@std@@@2@@std@@QBEHABVconst_iterator@12@@Z ENDP ; std::vector<std::pair<TAB_ITEM,CWnd *>,std::allocator<std::pair<TAB_ITEM,CWnd *> > >::iterator::operator-
; Function compile flags: /Odt /RTCsu
_TEXT	ENDS
;	COMDAT ??0const_iterator@?$vector@U?$pair@UTAB_ITEM@@PAVCWnd@@@std@@V?$allocator@U?$pair@UTAB_ITEM@@PAVCWnd@@@std@@@2@@std@@QAE@PAU?$pair@UTAB_ITEM@@PAVCWnd@@@2@@Z
_TEXT	SEGMENT
_this$ = -4						; size = 4
__Ptr$ = 8						; size = 4
??0const_iterator@?$vector@U?$pair@UTAB_ITEM@@PAVCWnd@@@std@@V?$allocator@U?$pair@UTAB_ITEM@@PAVCWnd@@@std@@@2@@std@@QAE@PAU?$pair@UTAB_ITEM@@PAVCWnd@@@2@@Z PROC NEAR ; std::vector<std::pair<TAB_ITEM,CWnd *>,std::allocator<std::pair<TAB_ITEM,CWnd *> > >::const_iterator::const_iterator, COMDAT
; _this$ = ecx

; 73   : 		const_iterator(_Tptr _Ptr)

  00000	55		 push	 ebp
  00001	8b ec		 mov	 ebp, esp
  00003	51		 push	 ecx
  00004	c7 45 fc cc cc
	cc cc		 mov	 DWORD PTR [ebp-4], -858993460 ; ccccccccH
  0000b	89 4d fc	 mov	 DWORD PTR _this$[ebp], ecx

; 74   : 			{	// construct with pointer _Ptr
; 75   : 			_Myptr = _Ptr;

  0000e	8b 45 fc	 mov	 eax, DWORD PTR _this$[ebp]
  00011	8b 4d 08	 mov	 ecx, DWORD PTR __Ptr$[ebp]
  00014	89 08		 mov	 DWORD PTR [eax], ecx

; 76   : 			}

  00016	8b 45 fc	 mov	 eax, DWORD PTR _this$[ebp]
  00019	8b e5		 mov	 esp, ebp
  0001b	5d		 pop	 ebp
  0001c	c2 04 00	 ret	 4
??0const_iterator@?$vector@U?$pair@UTAB_ITEM@@PAVCWnd@@@std@@V?$allocator@U?$pair@UTAB_ITEM@@PAVCWnd@@@std@@@2@@std@@QAE@PAU?$pair@UTAB_ITEM@@PAVCWnd@@@2@@Z ENDP ; std::vector<std::pair<TAB_ITEM,CWnd *>,std::allocator<std::pair<TAB_ITEM,CWnd *> > >::const_iterator::const_iterator
; Function compile flags: /Odt /RTCsu
_TEXT	ENDS
;	COMDAT ??Dconst_iterator@?$vector@U?$pair@UTAB_ITEM@@PAVCWnd@@@std@@V?$allocator@U?$pair@UTAB_ITEM@@PAVCWnd@@@std@@@2@@std@@QBEABU?$pair@UTAB_ITEM@@PAVCWnd@@@2@XZ
_TEXT	SEGMENT
_this$ = -4						; size = 4
??Dconst_iterator@?$vector@U?$pair@UTAB_ITEM@@PAVCWnd@@@std@@V?$allocator@U?$pair@UTAB_ITEM@@PAVCWnd@@@std@@@2@@std@@QBEABU?$pair@UTAB_ITEM@@PAVCWnd@@@2@XZ PROC NEAR ; std::vector<std::pair<TAB_ITEM,CWnd *>,std::allocator<std::pair<TAB_ITEM,CWnd *> > >::const_iterator::operator*, COMDAT
; _this$ = ecx

; 79   : 			{	// return designated object

  00000	55		 push	 ebp
  00001	8b ec		 mov	 ebp, esp
  00003	51		 push	 ecx
  00004	c7 45 fc cc cc
	cc cc		 mov	 DWORD PTR [ebp-4], -858993460 ; ccccccccH
  0000b	89 4d fc	 mov	 DWORD PTR _this$[ebp], ecx

; 80   : 
; 81   : 
; 82   : 			return (*_Myptr);

  0000e	8b 45 fc	 mov	 eax, DWORD PTR _this$[ebp]
  00011	8b 00		 mov	 eax, DWORD PTR [eax]

; 83   : 			}

  00013	8b e5		 mov	 esp, ebp
  00015	5d		 pop	 ebp
  00016	c3		 ret	 0
??Dconst_iterator@?$vector@U?$pair@UTAB_ITEM@@PAVCWnd@@@std@@V?$allocator@U?$pair@UTAB_ITEM@@PAVCWnd@@@std@@@2@@std@@QBEABU?$pair@UTAB_ITEM@@PAVCWnd@@@2@XZ ENDP ; std::vector<std::pair<TAB_ITEM,CWnd *>,std::allocator<std::pair<TAB_ITEM,CWnd *> > >::const_iterator::operator*
; Function compile flags: /Odt /RTCsu
_TEXT	ENDS
;	COMDAT ??0?$pair@UTAB_ITEM@@PAVCWnd@@@std@@QAE@ABU01@@Z
_TEXT	SEGMENT
_this$ = -4						; size = 4
___that$ = 8						; size = 4
??0?$pair@UTAB_ITEM@@PAVCWnd@@@std@@QAE@ABU01@@Z PROC NEAR ; std::pair<TAB_ITEM,CWnd *>::pair<TAB_ITEM,CWnd *>, COMDAT
; _this$ = ecx
  00000	55		 push	 ebp
  00001	8b ec		 mov	 ebp, esp
  00003	51		 push	 ecx
  00004	c7 45 fc cc cc
	cc cc		 mov	 DWORD PTR [ebp-4], -858993460 ; ccccccccH
  0000b	89 4d fc	 mov	 DWORD PTR _this$[ebp], ecx
  0000e	8b 45 08	 mov	 eax, DWORD PTR ___that$[ebp]
  00011	50		 push	 eax
  00012	8b 4d fc	 mov	 ecx, DWORD PTR _this$[ebp]
  00015	e8 00 00 00 00	 call	 ??0TAB_ITEM@@QAE@ABU0@@Z
  0001a	8b 4d fc	 mov	 ecx, DWORD PTR _this$[ebp]
  0001d	8b 55 08	 mov	 edx, DWORD PTR ___that$[ebp]
  00020	8b 42 3c	 mov	 eax, DWORD PTR [edx+60]
  00023	89 41 3c	 mov	 DWORD PTR [ecx+60], eax
  00026	8b 45 fc	 mov	 eax, DWORD PTR _this$[ebp]
  00029	83 c4 04	 add	 esp, 4
  0002c	3b ec		 cmp	 ebp, esp
  0002e	e8 00 00 00 00	 call	 __RTC_CheckEsp
  00033	8b e5		 mov	 esp, ebp
  00035	5d		 pop	 ebp
  00036	c2 04 00	 ret	 4
??0?$pair@UTAB_ITEM@@PAVCWnd@@@std@@QAE@ABU01@@Z ENDP	; std::pair<TAB_ITEM,CWnd *>::pair<TAB_ITEM,CWnd *>
_TEXT	ENDS
PUBLIC	??_R1A@?0A@A@exception@@8			; exception::`RTTI Base Class Descriptor at (0,-1,0,0)'
PUBLIC	??_R1A@?0A@A@logic_error@std@@8			; std::logic_error::`RTTI Base Class Descriptor at (0,-1,0,0)'
PUBLIC	??_R4length_error@std@@6B@			; std::length_error::`RTTI Complete Object Locator'
PUBLIC	??_R3length_error@std@@8			; std::length_error::`RTTI Class Hierarchy Descriptor'
PUBLIC	??_R2length_error@std@@8			; std::length_error::`RTTI Base Class Array'
PUBLIC	??_R1A@?0A@A@length_error@std@@8		; std::length_error::`RTTI Base Class Descriptor at (0,-1,0,0)'
PUBLIC	?what@logic_error@std@@UBEPBDXZ			; std::logic_error::what
PUBLIC	??_7length_error@std@@6B@			; std::length_error::`vftable'
PUBLIC	??_Glength_error@std@@UAEPAXI@Z			; std::length_error::`scalar deleting destructor'
EXTRN	??_Elength_error@std@@UAEPAXI@Z:NEAR		; std::length_error::`vector deleting destructor'
;	COMDAT ??_7length_error@std@@6B@
CONST	SEGMENT
??_7length_error@std@@6B@ DD FLAT:??_R4length_error@std@@6B@ ; std::length_error::`vftable'
	DD	FLAT:??_Elength_error@std@@UAEPAXI@Z
	DD	FLAT:?what@logic_error@std@@UBEPBDXZ
CONST	ENDS
;	COMDAT ??_R4length_error@std@@6B@
rdata$r	SEGMENT
??_R4length_error@std@@6B@ DD 00H			; std::length_error::`RTTI Complete Object Locator'
	DD	00H
	DD	00H
	DD	FLAT:??_R0?AVlength_error@std@@@8
	DD	FLAT:??_R3length_error@std@@8
rdata$r	ENDS
;	COMDAT ??_R3length_error@std@@8
rdata$r	SEGMENT
??_R3length_error@std@@8 DD 00H				; std::length_error::`RTTI Class Hierarchy Descriptor'
	DD	00H
	DD	03H
	DD	FLAT:??_R2length_error@std@@8
rdata$r	ENDS
;	COMDAT ??_R2length_error@std@@8
rdata$r	SEGMENT
??_R2length_error@std@@8 DD FLAT:??_R1A@?0A@A@length_error@std@@8 ; std::length_error::`RTTI Base Class Array'
	DD	FLAT:??_R1A@?0A@A@logic_error@std@@8
	DD	FLAT:??_R1A@?0A@A@exception@@8
rdata$r	ENDS
;	COMDAT ??_R1A@?0A@A@length_error@std@@8
rdata$r	SEGMENT
??_R1A@?0A@A@length_error@std@@8 DD FLAT:??_R0?AVlength_error@std@@@8 ; std::length_error::`RTTI Base Class Descriptor at (0,-1,0,0)'
	DD	02H
	DD	00H
	DD	0ffffffffH
	DD	00H
	DD	00H
rdata$r	ENDS
;	COMDAT ??_R1A@?0A@A@logic_error@std@@8
rdata$r	SEGMENT
??_R1A@?0A@A@logic_error@std@@8 DD FLAT:??_R0?AVlogic_error@std@@@8 ; std::logic_error::`RTTI Base Class Descriptor at (0,-1,0,0)'
	DD	01H
	DD	00H
	DD	0ffffffffH
	DD	00H
	DD	00H
rdata$r	ENDS
;	COMDAT ??_R1A@?0A@A@exception@@8
rdata$r	SEGMENT
??_R1A@?0A@A@exception@@8 DD FLAT:??_R0?AVexception@@@8	; exception::`RTTI Base Class Descriptor at (0,-1,0,0)'
	DD	00H
	DD	00H
	DD	0ffffffffH
	DD	00H
	DD	00H
; Function compile flags: /Odt /RTCsu
rdata$r	ENDS
;	COMDAT ??0length_error@std@@QAE@ABV01@@Z
_TEXT	SEGMENT
_this$ = -4						; size = 4
___that$ = 8						; size = 4
??0length_error@std@@QAE@ABV01@@Z PROC NEAR		; std::length_error::length_error, COMDAT
; _this$ = ecx
  00000	55		 push	 ebp
  00001	8b ec		 mov	 ebp, esp
  00003	51		 push	 ecx
  00004	c7 45 fc cc cc
	cc cc		 mov	 DWORD PTR [ebp-4], -858993460 ; ccccccccH
  0000b	89 4d fc	 mov	 DWORD PTR _this$[ebp], ecx
  0000e	8b 45 08	 mov	 eax, DWORD PTR ___that$[ebp]
  00011	50		 push	 eax
  00012	8b 4d fc	 mov	 ecx, DWORD PTR _this$[ebp]
  00015	e8 00 00 00 00	 call	 ??0logic_error@std@@QAE@ABV01@@Z
  0001a	8b 4d fc	 mov	 ecx, DWORD PTR _this$[ebp]
  0001d	c7 01 00 00 00
	00		 mov	 DWORD PTR [ecx], OFFSET FLAT:??_7length_error@std@@6B@
  00023	8b 45 fc	 mov	 eax, DWORD PTR _this$[ebp]
  00026	83 c4 04	 add	 esp, 4
  00029	3b ec		 cmp	 ebp, esp
  0002b	e8 00 00 00 00	 call	 __RTC_CheckEsp
  00030	8b e5		 mov	 esp, ebp
  00032	5d		 pop	 ebp
  00033	c2 04 00	 ret	 4
??0length_error@std@@QAE@ABV01@@Z ENDP			; std::length_error::length_error
; Function compile flags: /Odt /RTCsu
; File d:\program files (x86)\microsoft visual studio .net 2003\vc7\include\xmemory
_TEXT	ENDS
;	COMDAT ?max_size@?$allocator@U?$pair@UTAB_ITEM@@PAVCWnd@@@std@@@std@@QBEIXZ
_TEXT	SEGMENT
tv65 = -12						; size = 4
__Count$ = -8						; size = 4
_this$ = -4						; size = 4
?max_size@?$allocator@U?$pair@UTAB_ITEM@@PAVCWnd@@@std@@@std@@QBEIXZ PROC NEAR ; std::allocator<std::pair<TAB_ITEM,CWnd *> >::max_size, COMDAT
; _this$ = ecx

; 156  : 		{	// estimate maximum array size

  00000	55		 push	 ebp
  00001	8b ec		 mov	 ebp, esp
  00003	83 ec 0c	 sub	 esp, 12			; 0000000cH
  00006	c7 45 f4 cc cc
	cc cc		 mov	 DWORD PTR [ebp-12], -858993460 ; ccccccccH
  0000d	c7 45 f8 cc cc
	cc cc		 mov	 DWORD PTR [ebp-8], -858993460 ; ccccccccH
  00014	c7 45 fc cc cc
	cc cc		 mov	 DWORD PTR [ebp-4], -858993460 ; ccccccccH
  0001b	89 4d fc	 mov	 DWORD PTR _this$[ebp], ecx

; 157  : 		_SIZT _Count = (_SIZT)(-1) / sizeof (_Ty);

  0001e	c7 45 f8 ff ff
	ff 03		 mov	 DWORD PTR __Count$[ebp], 67108863 ; 03ffffffH

; 158  : 		return (0 < _Count ? _Count : 1);

  00025	83 7d f8 00	 cmp	 DWORD PTR __Count$[ebp], 0
  00029	76 08		 jbe	 SHORT $L197646
  0002b	8b 45 f8	 mov	 eax, DWORD PTR __Count$[ebp]
  0002e	89 45 f4	 mov	 DWORD PTR tv65[ebp], eax
  00031	eb 07		 jmp	 SHORT $L197647
$L197646:
  00033	c7 45 f4 01 00
	00 00		 mov	 DWORD PTR tv65[ebp], 1
$L197647:
  0003a	8b 45 f4	 mov	 eax, DWORD PTR tv65[ebp]

; 159  : 		}

  0003d	8b e5		 mov	 esp, ebp
  0003f	5d		 pop	 ebp
  00040	c3		 ret	 0
?max_size@?$allocator@U?$pair@UTAB_ITEM@@PAVCWnd@@@std@@@std@@QBEIXZ ENDP ; std::allocator<std::pair<TAB_ITEM,CWnd *> >::max_size
; Function compile flags: /Odt /RTCsu
; File d:\program files (x86)\microsoft visual studio .net 2003\vc7\include\vector
_TEXT	ENDS
;	COMDAT ??Yiterator@?$vector@U?$pair@UTAB_ITEM@@PAVCWnd@@@std@@V?$allocator@U?$pair@UTAB_ITEM@@PAVCWnd@@@std@@@2@@std@@QAEAAV012@H@Z
_TEXT	SEGMENT
_this$ = -4						; size = 4
__Off$ = 8						; size = 4
??Yiterator@?$vector@U?$pair@UTAB_ITEM@@PAVCWnd@@@std@@V?$allocator@U?$pair@UTAB_ITEM@@PAVCWnd@@@std@@@2@@std@@QAEAAV012@H@Z PROC NEAR ; std::vector<std::pair<TAB_ITEM,CWnd *>,std::allocator<std::pair<TAB_ITEM,CWnd *> > >::iterator::operator+=, COMDAT
; _this$ = ecx

; 255  : 			{	// increment by integer

  00000	55		 push	 ebp
  00001	8b ec		 mov	 ebp, esp
  00003	51		 push	 ecx
  00004	c7 45 fc cc cc
	cc cc		 mov	 DWORD PTR [ebp-4], -858993460 ; ccccccccH
  0000b	89 4d fc	 mov	 DWORD PTR _this$[ebp], ecx

; 256  : 			this->_Myptr += _Off;

  0000e	8b 45 08	 mov	 eax, DWORD PTR __Off$[ebp]
  00011	c1 e0 06	 shl	 eax, 6
  00014	8b 4d fc	 mov	 ecx, DWORD PTR _this$[ebp]
  00017	03 01		 add	 eax, DWORD PTR [ecx]
  00019	8b 55 fc	 mov	 edx, DWORD PTR _this$[ebp]
  0001c	89 02		 mov	 DWORD PTR [edx], eax

; 257  : 			return (*this);

  0001e	8b 45 fc	 mov	 eax, DWORD PTR _this$[ebp]

; 258  : 			}

  00021	8b e5		 mov	 esp, ebp
  00023	5d		 pop	 ebp
  00024	c2 04 00	 ret	 4
??Yiterator@?$vector@U?$pair@UTAB_ITEM@@PAVCWnd@@@std@@V?$allocator@U?$pair@UTAB_ITEM@@PAVCWnd@@@std@@@2@@std@@QAEAAV012@H@Z ENDP ; std::vector<std::pair<TAB_ITEM,CWnd *>,std::allocator<std::pair<TAB_ITEM,CWnd *> > >::iterator::operator+=
; Function compile flags: /Odt /RTCsu
_TEXT	ENDS
;	COMDAT ??Gconst_iterator@?$vector@U?$pair@UTAB_ITEM@@PAVCWnd@@@std@@V?$allocator@U?$pair@UTAB_ITEM@@PAVCWnd@@@std@@@2@@std@@QBEHABV012@@Z
_TEXT	SEGMENT
_this$ = -4						; size = 4
__Right$ = 8						; size = 4
??Gconst_iterator@?$vector@U?$pair@UTAB_ITEM@@PAVCWnd@@@std@@V?$allocator@U?$pair@UTAB_ITEM@@PAVCWnd@@@std@@@2@@std@@QBEHABV012@@Z PROC NEAR ; std::vector<std::pair<TAB_ITEM,CWnd *>,std::allocator<std::pair<TAB_ITEM,CWnd *> > >::const_iterator::operator-, COMDAT
; _this$ = ecx

; 140  : 			{	// return difference of iterators

  00000	55		 push	 ebp
  00001	8b ec		 mov	 ebp, esp
  00003	51		 push	 ecx
  00004	c7 45 fc cc cc
	cc cc		 mov	 DWORD PTR [ebp-4], -858993460 ; ccccccccH
  0000b	89 4d fc	 mov	 DWORD PTR _this$[ebp], ecx

; 141  : 
; 142  : 
; 143  : 			return (_Myptr - _Right._Myptr);

  0000e	8b 45 fc	 mov	 eax, DWORD PTR _this$[ebp]
  00011	8b 4d 08	 mov	 ecx, DWORD PTR __Right$[ebp]
  00014	8b 00		 mov	 eax, DWORD PTR [eax]
  00016	2b 01		 sub	 eax, DWORD PTR [ecx]
  00018	c1 f8 06	 sar	 eax, 6

; 144  : 			}

  0001b	8b e5		 mov	 esp, ebp
  0001d	5d		 pop	 ebp
  0001e	c2 04 00	 ret	 4
??Gconst_iterator@?$vector@U?$pair@UTAB_ITEM@@PAVCWnd@@@std@@V?$allocator@U?$pair@UTAB_ITEM@@PAVCWnd@@@std@@@2@@std@@QBEHABV012@@Z ENDP ; std::vector<std::pair<TAB_ITEM,CWnd *>,std::allocator<std::pair<TAB_ITEM,CWnd *> > >::const_iterator::operator-
_TEXT	ENDS
PUBLIC	??$_Ptr_cat@PAU?$pair@UTAB_ITEM@@PAVCWnd@@@std@@PAU12@@std@@YA?AU_Nonscalar_ptr_iterator_tag@0@AAPAU?$pair@UTAB_ITEM@@PAVCWnd@@@0@0@Z ; std::_Ptr_cat<std::pair<TAB_ITEM,CWnd *> *,std::pair<TAB_ITEM,CWnd *> *>
PUBLIC	??$_Copy_opt@PAU?$pair@UTAB_ITEM@@PAVCWnd@@@std@@PAU12@@std@@YAPAU?$pair@UTAB_ITEM@@PAVCWnd@@@0@PAU10@00U_Nonscalar_ptr_iterator_tag@0@@Z ; std::_Copy_opt<std::pair<TAB_ITEM,CWnd *> *,std::pair<TAB_ITEM,CWnd *> *>
; Function compile flags: /Odt /RTCsu
; File d:\program files (x86)\microsoft visual studio .net 2003\vc7\include\xutility
;	COMDAT ??$copy@PAU?$pair@UTAB_ITEM@@PAVCWnd@@@std@@PAU12@@std@@YAPAU?$pair@UTAB_ITEM@@PAVCWnd@@@0@PAU10@00@Z
_TEXT	SEGMENT
$T197651 = -1						; size = 1
__First$ = 8						; size = 4
__Last$ = 12						; size = 4
__Dest$ = 16						; size = 4
??$copy@PAU?$pair@UTAB_ITEM@@PAVCWnd@@@std@@PAU12@@std@@YAPAU?$pair@UTAB_ITEM@@PAVCWnd@@@0@PAU10@00@Z PROC NEAR ; std::copy<std::pair<TAB_ITEM,CWnd *> *,std::pair<TAB_ITEM,CWnd *> *>, COMDAT

; 1039 : 	{	// copy [_First, _Last) to [_Dest, ...)

  00000	55		 push	 ebp
  00001	8b ec		 mov	 ebp, esp
  00003	51		 push	 ecx
  00004	c7 45 fc cc cc
	cc cc		 mov	 DWORD PTR [ebp-4], -858993460 ; ccccccccH

; 1040 : 	return (_Copy_opt(_First, _Last, _Dest, _Ptr_cat(_First, _Dest)));

  0000b	8d 45 10	 lea	 eax, DWORD PTR __Dest$[ebp]
  0000e	50		 push	 eax
  0000f	8d 4d 08	 lea	 ecx, DWORD PTR __First$[ebp]
  00012	51		 push	 ecx
  00013	e8 00 00 00 00	 call	 ??$_Ptr_cat@PAU?$pair@UTAB_ITEM@@PAVCWnd@@@std@@PAU12@@std@@YA?AU_Nonscalar_ptr_iterator_tag@0@AAPAU?$pair@UTAB_ITEM@@PAVCWnd@@@0@0@Z ; std::_Ptr_cat<std::pair<TAB_ITEM,CWnd *> *,std::pair<TAB_ITEM,CWnd *> *>
  00018	83 c4 08	 add	 esp, 8
  0001b	88 45 ff	 mov	 BYTE PTR $T197651[ebp], al
  0001e	8a 55 ff	 mov	 dl, BYTE PTR $T197651[ebp]
  00021	52		 push	 edx
  00022	8b 45 10	 mov	 eax, DWORD PTR __Dest$[ebp]
  00025	50		 push	 eax
  00026	8b 4d 0c	 mov	 ecx, DWORD PTR __Last$[ebp]
  00029	51		 push	 ecx
  0002a	8b 55 08	 mov	 edx, DWORD PTR __First$[ebp]
  0002d	52		 push	 edx
  0002e	e8 00 00 00 00	 call	 ??$_Copy_opt@PAU?$pair@UTAB_ITEM@@PAVCWnd@@@std@@PAU12@@std@@YAPAU?$pair@UTAB_ITEM@@PAVCWnd@@@0@PAU10@00U_Nonscalar_ptr_iterator_tag@0@@Z ; std::_Copy_opt<std::pair<TAB_ITEM,CWnd *> *,std::pair<TAB_ITEM,CWnd *> *>
  00033	83 c4 10	 add	 esp, 16			; 00000010H

; 1041 : 	}

  00036	83 c4 04	 add	 esp, 4
  00039	3b ec		 cmp	 ebp, esp
  0003b	e8 00 00 00 00	 call	 __RTC_CheckEsp
  00040	8b e5		 mov	 esp, ebp
  00042	5d		 pop	 ebp
  00043	c3		 ret	 0
??$copy@PAU?$pair@UTAB_ITEM@@PAVCWnd@@@std@@PAU12@@std@@YAPAU?$pair@UTAB_ITEM@@PAVCWnd@@@0@PAU10@00@Z ENDP ; std::copy<std::pair<TAB_ITEM,CWnd *> *,std::pair<TAB_ITEM,CWnd *> *>
_TEXT	ENDS
PUBLIC	??$_Destroy_range@U?$pair@UTAB_ITEM@@PAVCWnd@@@std@@V?$allocator@U?$pair@UTAB_ITEM@@PAVCWnd@@@std@@@2@@std@@YAXPAU?$pair@UTAB_ITEM@@PAVCWnd@@@0@0AAV?$allocator@U?$pair@UTAB_ITEM@@PAVCWnd@@@std@@@0@U_Nonscalar_ptr_iterator_tag@0@@Z ; std::_Destroy_range<std::pair<TAB_ITEM,CWnd *>,std::allocator<std::pair<TAB_ITEM,CWnd *> > >
; Function compile flags: /Odt /RTCsu
; File d:\program files (x86)\microsoft visual studio .net 2003\vc7\include\xmemory
;	COMDAT ??$_Destroy_range@U?$pair@UTAB_ITEM@@PAVCWnd@@@std@@V?$allocator@U?$pair@UTAB_ITEM@@PAVCWnd@@@std@@@2@@std@@YAXPAU?$pair@UTAB_ITEM@@PAVCWnd@@@0@0AAV?$allocator@U?$pair@UTAB_ITEM@@PAVCWnd@@@std@@@0@@Z
_TEXT	SEGMENT
$T197653 = -1						; size = 1
__First$ = 8						; size = 4
__Last$ = 12						; size = 4
__Al$ = 16						; size = 4
??$_Destroy_range@U?$pair@UTAB_ITEM@@PAVCWnd@@@std@@V?$allocator@U?$pair@UTAB_ITEM@@PAVCWnd@@@std@@@2@@std@@YAXPAU?$pair@UTAB_ITEM@@PAVCWnd@@@0@0AAV?$allocator@U?$pair@UTAB_ITEM@@PAVCWnd@@@std@@@0@@Z PROC NEAR ; std::_Destroy_range<std::pair<TAB_ITEM,CWnd *>,std::allocator<std::pair<TAB_ITEM,CWnd *> > >, COMDAT

; 216  : 	{	// destroy [_First, _Last)

  00000	55		 push	 ebp
  00001	8b ec		 mov	 ebp, esp
  00003	51		 push	 ecx
  00004	c7 45 fc cc cc
	cc cc		 mov	 DWORD PTR [ebp-4], -858993460 ; ccccccccH

; 217  : 	_Destroy_range(_First, _Last, _Al, _Ptr_cat(_First, _Last));

  0000b	8d 45 0c	 lea	 eax, DWORD PTR __Last$[ebp]
  0000e	50		 push	 eax
  0000f	8d 4d 08	 lea	 ecx, DWORD PTR __First$[ebp]
  00012	51		 push	 ecx
  00013	e8 00 00 00 00	 call	 ??$_Ptr_cat@PAU?$pair@UTAB_ITEM@@PAVCWnd@@@std@@PAU12@@std@@YA?AU_Nonscalar_ptr_iterator_tag@0@AAPAU?$pair@UTAB_ITEM@@PAVCWnd@@@0@0@Z ; std::_Ptr_cat<std::pair<TAB_ITEM,CWnd *> *,std::pair<TAB_ITEM,CWnd *> *>
  00018	83 c4 08	 add	 esp, 8
  0001b	88 45 ff	 mov	 BYTE PTR $T197653[ebp], al
  0001e	8a 55 ff	 mov	 dl, BYTE PTR $T197653[ebp]
  00021	52		 push	 edx
  00022	8b 45 10	 mov	 eax, DWORD PTR __Al$[ebp]
  00025	50		 push	 eax
  00026	8b 4d 0c	 mov	 ecx, DWORD PTR __Last$[ebp]
  00029	51		 push	 ecx
  0002a	8b 55 08	 mov	 edx, DWORD PTR __First$[ebp]
  0002d	52		 push	 edx
  0002e	e8 00 00 00 00	 call	 ??$_Destroy_range@U?$pair@UTAB_ITEM@@PAVCWnd@@@std@@V?$allocator@U?$pair@UTAB_ITEM@@PAVCWnd@@@std@@@2@@std@@YAXPAU?$pair@UTAB_ITEM@@PAVCWnd@@@0@0AAV?$allocator@U?$pair@UTAB_ITEM@@PAVCWnd@@@std@@@0@U_Nonscalar_ptr_iterator_tag@0@@Z ; std::_Destroy_range<std::pair<TAB_ITEM,CWnd *>,std::allocator<std::pair<TAB_ITEM,CWnd *> > >
  00033	83 c4 10	 add	 esp, 16			; 00000010H

; 218  : 	}

  00036	83 c4 04	 add	 esp, 4
  00039	3b ec		 cmp	 ebp, esp
  0003b	e8 00 00 00 00	 call	 __RTC_CheckEsp
  00040	8b e5		 mov	 esp, ebp
  00042	5d		 pop	 ebp
  00043	c3		 ret	 0
??$_Destroy_range@U?$pair@UTAB_ITEM@@PAVCWnd@@@std@@V?$allocator@U?$pair@UTAB_ITEM@@PAVCWnd@@@std@@@2@@std@@YAXPAU?$pair@UTAB_ITEM@@PAVCWnd@@@0@0AAV?$allocator@U?$pair@UTAB_ITEM@@PAVCWnd@@@std@@@0@@Z ENDP ; std::_Destroy_range<std::pair<TAB_ITEM,CWnd *>,std::allocator<std::pair<TAB_ITEM,CWnd *> > >
_TEXT	ENDS
PUBLIC	??$_Uninit_fill_n@PAU?$pair@UTAB_ITEM@@PAVCWnd@@@std@@IU12@V?$allocator@U?$pair@UTAB_ITEM@@PAVCWnd@@@std@@@2@@std@@YAXPAU?$pair@UTAB_ITEM@@PAVCWnd@@@0@IABU10@AAV?$allocator@U?$pair@UTAB_ITEM@@PAVCWnd@@@std@@@0@U_Nonscalar_ptr_iterator_tag@0@@Z ; std::_Uninit_fill_n<std::pair<TAB_ITEM,CWnd *> *,unsigned int,std::pair<TAB_ITEM,CWnd *>,std::allocator<std::pair<TAB_ITEM,CWnd *> > >
; Function compile flags: /Odt /RTCsu
; File d:\program files (x86)\microsoft visual studio .net 2003\vc7\include\memory
;	COMDAT ??$_Uninitialized_fill_n@PAU?$pair@UTAB_ITEM@@PAVCWnd@@@std@@IU12@V?$allocator@U?$pair@UTAB_ITEM@@PAVCWnd@@@std@@@2@@std@@YAXPAU?$pair@UTAB_ITEM@@PAVCWnd@@@0@IABU10@AAV?$allocator@U?$pair@UTAB_ITEM@@PAVCWnd@@@std@@@0@@Z
_TEXT	SEGMENT
$T197655 = -1						; size = 1
__First$ = 8						; size = 4
__Count$ = 12						; size = 4
__Val$ = 16						; size = 4
__Al$ = 20						; size = 4
??$_Uninitialized_fill_n@PAU?$pair@UTAB_ITEM@@PAVCWnd@@@std@@IU12@V?$allocator@U?$pair@UTAB_ITEM@@PAVCWnd@@@std@@@2@@std@@YAXPAU?$pair@UTAB_ITEM@@PAVCWnd@@@0@IABU10@AAV?$allocator@U?$pair@UTAB_ITEM@@PAVCWnd@@@std@@@0@@Z PROC NEAR ; std::_Uninitialized_fill_n<std::pair<TAB_ITEM,CWnd *> *,unsigned int,std::pair<TAB_ITEM,CWnd *>,std::allocator<std::pair<TAB_ITEM,CWnd *> > >, COMDAT

; 255  : 	{	// copy _Count *_Val to raw _First, using _Al

  00000	55		 push	 ebp
  00001	8b ec		 mov	 ebp, esp
  00003	51		 push	 ecx
  00004	c7 45 fc cc cc
	cc cc		 mov	 DWORD PTR [ebp-4], -858993460 ; ccccccccH

; 256  : 	_Uninit_fill_n(_First, _Count, _Val, _Al,
; 257  : 		_Ptr_cat(_First, _First));

  0000b	8d 45 08	 lea	 eax, DWORD PTR __First$[ebp]
  0000e	50		 push	 eax
  0000f	8d 4d 08	 lea	 ecx, DWORD PTR __First$[ebp]
  00012	51		 push	 ecx
  00013	e8 00 00 00 00	 call	 ??$_Ptr_cat@PAU?$pair@UTAB_ITEM@@PAVCWnd@@@std@@PAU12@@std@@YA?AU_Nonscalar_ptr_iterator_tag@0@AAPAU?$pair@UTAB_ITEM@@PAVCWnd@@@0@0@Z ; std::_Ptr_cat<std::pair<TAB_ITEM,CWnd *> *,std::pair<TAB_ITEM,CWnd *> *>
  00018	83 c4 08	 add	 esp, 8
  0001b	88 45 ff	 mov	 BYTE PTR $T197655[ebp], al
  0001e	8a 55 ff	 mov	 dl, BYTE PTR $T197655[ebp]
  00021	52		 push	 edx
  00022	8b 45 14	 mov	 eax, DWORD PTR __Al$[ebp]
  00025	50		 push	 eax
  00026	8b 4d 10	 mov	 ecx, DWORD PTR __Val$[ebp]
  00029	51		 push	 ecx
  0002a	8b 55 0c	 mov	 edx, DWORD PTR __Count$[ebp]
  0002d	52		 push	 edx
  0002e	8b 45 08	 mov	 eax, DWORD PTR __First$[ebp]
  00031	50		 push	 eax
  00032	e8 00 00 00 00	 call	 ??$_Uninit_fill_n@PAU?$pair@UTAB_ITEM@@PAVCWnd@@@std@@IU12@V?$allocator@U?$pair@UTAB_ITEM@@PAVCWnd@@@std@@@2@@std@@YAXPAU?$pair@UTAB_ITEM@@PAVCWnd@@@0@IABU10@AAV?$allocator@U?$pair@UTAB_ITEM@@PAVCWnd@@@std@@@0@U_Nonscalar_ptr_iterator_tag@0@@Z ; std::_Uninit_fill_n<std::pair<TAB_ITEM,CWnd *> *,unsigned int,std::pair<TAB_ITEM,CWnd *>,std::allocator<std::pair<TAB_ITEM,CWnd *> > >
  00037	83 c4 14	 add	 esp, 20			; 00000014H

; 258  : 	}

  0003a	83 c4 04	 add	 esp, 4
  0003d	3b ec		 cmp	 ebp, esp
  0003f	e8 00 00 00 00	 call	 __RTC_CheckEsp
  00044	8b e5		 mov	 esp, ebp
  00046	5d		 pop	 ebp
  00047	c3		 ret	 0
??$_Uninitialized_fill_n@PAU?$pair@UTAB_ITEM@@PAVCWnd@@@std@@IU12@V?$allocator@U?$pair@UTAB_ITEM@@PAVCWnd@@@std@@@2@@std@@YAXPAU?$pair@UTAB_ITEM@@PAVCWnd@@@0@IABU10@AAV?$allocator@U?$pair@UTAB_ITEM@@PAVCWnd@@@std@@@0@@Z ENDP ; std::_Uninitialized_fill_n<std::pair<TAB_ITEM,CWnd *> *,unsigned int,std::pair<TAB_ITEM,CWnd *>,std::allocator<std::pair<TAB_ITEM,CWnd *> > >
_TEXT	ENDS
PUBLIC	??$_Uninitialized_copy@PAU?$pair@UTAB_ITEM@@PAVCWnd@@@std@@PAU12@V?$allocator@U?$pair@UTAB_ITEM@@PAVCWnd@@@std@@@2@@std@@YAPAU?$pair@UTAB_ITEM@@PAVCWnd@@@0@PAU10@00AAV?$allocator@U?$pair@UTAB_ITEM@@PAVCWnd@@@std@@@0@@Z ; std::_Uninitialized_copy<std::pair<TAB_ITEM,CWnd *> *,std::pair<TAB_ITEM,CWnd *> *,std::allocator<std::pair<TAB_ITEM,CWnd *> > >
; Function compile flags: /Odt /RTCsu
; File d:\program files (x86)\microsoft visual studio .net 2003\vc7\include\vector
;	COMDAT ??$_Ucopy@PAU?$pair@UTAB_ITEM@@PAVCWnd@@@std@@@?$vector@U?$pair@UTAB_ITEM@@PAVCWnd@@@std@@V?$allocator@U?$pair@UTAB_ITEM@@PAVCWnd@@@std@@@2@@std@@IAEPAU?$pair@UTAB_ITEM@@PAVCWnd@@@1@PAU21@00@Z
_TEXT	SEGMENT
_this$ = -4						; size = 4
__First$ = 8						; size = 4
__Last$ = 12						; size = 4
__Ptr$ = 16						; size = 4
??$_Ucopy@PAU?$pair@UTAB_ITEM@@PAVCWnd@@@std@@@?$vector@U?$pair@UTAB_ITEM@@PAVCWnd@@@std@@V?$allocator@U?$pair@UTAB_ITEM@@PAVCWnd@@@std@@@2@@std@@IAEPAU?$pair@UTAB_ITEM@@PAVCWnd@@@1@PAU21@00@Z PROC NEAR ; std::vector<std::pair<TAB_ITEM,CWnd *>,std::allocator<std::pair<TAB_ITEM,CWnd *> > >::_Ucopy<std::pair<TAB_ITEM,CWnd *> *>, COMDAT
; _this$ = ecx

; 801  : 		pointer _Ucopy(_Iter _First, _Iter _Last, pointer _Ptr)

  00000	55		 push	 ebp
  00001	8b ec		 mov	 ebp, esp
  00003	51		 push	 ecx
  00004	c7 45 fc cc cc
	cc cc		 mov	 DWORD PTR [ebp-4], -858993460 ; ccccccccH
  0000b	89 4d fc	 mov	 DWORD PTR _this$[ebp], ecx

; 802  : 		{	// copy initializing [_First, _Last), using allocator
; 803  : 		return (_Uninitialized_copy(_First, _Last,
; 804  : 			_Ptr, this->_Alval));

  0000e	8b 45 fc	 mov	 eax, DWORD PTR _this$[ebp]
  00011	50		 push	 eax
  00012	8b 4d 10	 mov	 ecx, DWORD PTR __Ptr$[ebp]
  00015	51		 push	 ecx
  00016	8b 55 0c	 mov	 edx, DWORD PTR __Last$[ebp]
  00019	52		 push	 edx
  0001a	8b 45 08	 mov	 eax, DWORD PTR __First$[ebp]
  0001d	50		 push	 eax
  0001e	e8 00 00 00 00	 call	 ??$_Uninitialized_copy@PAU?$pair@UTAB_ITEM@@PAVCWnd@@@std@@PAU12@V?$allocator@U?$pair@UTAB_ITEM@@PAVCWnd@@@std@@@2@@std@@YAPAU?$pair@UTAB_ITEM@@PAVCWnd@@@0@PAU10@00AAV?$allocator@U?$pair@UTAB_ITEM@@PAVCWnd@@@std@@@0@@Z ; std::_Uninitialized_copy<std::pair<TAB_ITEM,CWnd *> *,std::pair<TAB_ITEM,CWnd *> *,std::allocator<std::pair<TAB_ITEM,CWnd *> > >
  00023	83 c4 10	 add	 esp, 16			; 00000010H

; 805  : 		}

  00026	83 c4 04	 add	 esp, 4
  00029	3b ec		 cmp	 ebp, esp
  0002b	e8 00 00 00 00	 call	 __RTC_CheckEsp
  00030	8b e5		 mov	 esp, ebp
  00032	5d		 pop	 ebp
  00033	c2 0c 00	 ret	 12			; 0000000cH
??$_Ucopy@PAU?$pair@UTAB_ITEM@@PAVCWnd@@@std@@@?$vector@U?$pair@UTAB_ITEM@@PAVCWnd@@@std@@V?$allocator@U?$pair@UTAB_ITEM@@PAVCWnd@@@std@@@2@@std@@IAEPAU?$pair@UTAB_ITEM@@PAVCWnd@@@1@PAU21@00@Z ENDP ; std::vector<std::pair<TAB_ITEM,CWnd *>,std::allocator<std::pair<TAB_ITEM,CWnd *> > >::_Ucopy<std::pair<TAB_ITEM,CWnd *> *>
_TEXT	ENDS
PUBLIC	??4?$pair@UTAB_ITEM@@PAVCWnd@@@std@@QAEAAU01@ABU01@@Z ; std::pair<TAB_ITEM,CWnd *>::operator=
; Function compile flags: /Odt /RTCsu
; File d:\program files (x86)\microsoft visual studio .net 2003\vc7\include\xutility
;	COMDAT ??$fill@PAU?$pair@UTAB_ITEM@@PAVCWnd@@@std@@U12@@std@@YAXPAU?$pair@UTAB_ITEM@@PAVCWnd@@@0@0ABU10@@Z
_TEXT	SEGMENT
__First$ = 8						; size = 4
__Last$ = 12						; size = 4
__Val$ = 16						; size = 4
??$fill@PAU?$pair@UTAB_ITEM@@PAVCWnd@@@std@@U12@@std@@YAXPAU?$pair@UTAB_ITEM@@PAVCWnd@@@0@0ABU10@@Z PROC NEAR ; std::fill<std::pair<TAB_ITEM,CWnd *> *,std::pair<TAB_ITEM,CWnd *> >, COMDAT

; 1134 : 	{	// copy _Val through [_First, _Last)

  00000	55		 push	 ebp
  00001	8b ec		 mov	 ebp, esp

; 1135 : 	for (; _First != _Last; ++_First)

  00003	eb 09		 jmp	 SHORT $L196150
$L196151:
  00005	8b 45 08	 mov	 eax, DWORD PTR __First$[ebp]
  00008	83 c0 40	 add	 eax, 64			; 00000040H
  0000b	89 45 08	 mov	 DWORD PTR __First$[ebp], eax
$L196150:
  0000e	8b 4d 08	 mov	 ecx, DWORD PTR __First$[ebp]
  00011	3b 4d 0c	 cmp	 ecx, DWORD PTR __Last$[ebp]
  00014	74 0e		 je	 SHORT $L196149

; 1136 : 		*_First = _Val;

  00016	8b 55 10	 mov	 edx, DWORD PTR __Val$[ebp]
  00019	52		 push	 edx
  0001a	8b 4d 08	 mov	 ecx, DWORD PTR __First$[ebp]
  0001d	e8 00 00 00 00	 call	 ??4?$pair@UTAB_ITEM@@PAVCWnd@@@std@@QAEAAU01@ABU01@@Z
  00022	eb e1		 jmp	 SHORT $L196151
$L196149:

; 1137 : 	}

  00024	3b ec		 cmp	 ebp, esp
  00026	e8 00 00 00 00	 call	 __RTC_CheckEsp
  0002b	5d		 pop	 ebp
  0002c	c3		 ret	 0
??$fill@PAU?$pair@UTAB_ITEM@@PAVCWnd@@@std@@U12@@std@@YAXPAU?$pair@UTAB_ITEM@@PAVCWnd@@@0@0ABU10@@Z ENDP ; std::fill<std::pair<TAB_ITEM,CWnd *> *,std::pair<TAB_ITEM,CWnd *> >
_TEXT	ENDS
PUBLIC	??$_Copy_backward_opt@PAU?$pair@UTAB_ITEM@@PAVCWnd@@@std@@PAU12@@std@@YAPAU?$pair@UTAB_ITEM@@PAVCWnd@@@0@PAU10@00U_Nonscalar_ptr_iterator_tag@0@@Z ; std::_Copy_backward_opt<std::pair<TAB_ITEM,CWnd *> *,std::pair<TAB_ITEM,CWnd *> *>
; Function compile flags: /Odt /RTCsu
;	COMDAT ??$copy_backward@PAU?$pair@UTAB_ITEM@@PAVCWnd@@@std@@PAU12@@std@@YAPAU?$pair@UTAB_ITEM@@PAVCWnd@@@0@PAU10@00@Z
_TEXT	SEGMENT
$T197659 = -1						; size = 1
__First$ = 8						; size = 4
__Last$ = 12						; size = 4
__Dest$ = 16						; size = 4
??$copy_backward@PAU?$pair@UTAB_ITEM@@PAVCWnd@@@std@@PAU12@@std@@YAPAU?$pair@UTAB_ITEM@@PAVCWnd@@@0@PAU10@00@Z PROC NEAR ; std::copy_backward<std::pair<TAB_ITEM,CWnd *> *,std::pair<TAB_ITEM,CWnd *> *>, COMDAT

; 1067 : 	{	// copy [_First, _Last) backwards to [..., _Dest)

  00000	55		 push	 ebp
  00001	8b ec		 mov	 ebp, esp
  00003	51		 push	 ecx
  00004	c7 45 fc cc cc
	cc cc		 mov	 DWORD PTR [ebp-4], -858993460 ; ccccccccH

; 1068 : 	return (_Copy_backward_opt(_First, _Last, _Dest,
; 1069 : 		_Ptr_cat(_First, _Dest)));

  0000b	8d 45 10	 lea	 eax, DWORD PTR __Dest$[ebp]
  0000e	50		 push	 eax
  0000f	8d 4d 08	 lea	 ecx, DWORD PTR __First$[ebp]
  00012	51		 push	 ecx
  00013	e8 00 00 00 00	 call	 ??$_Ptr_cat@PAU?$pair@UTAB_ITEM@@PAVCWnd@@@std@@PAU12@@std@@YA?AU_Nonscalar_ptr_iterator_tag@0@AAPAU?$pair@UTAB_ITEM@@PAVCWnd@@@0@0@Z ; std::_Ptr_cat<std::pair<TAB_ITEM,CWnd *> *,std::pair<TAB_ITEM,CWnd *> *>
  00018	83 c4 08	 add	 esp, 8
  0001b	88 45 ff	 mov	 BYTE PTR $T197659[ebp], al
  0001e	8a 55 ff	 mov	 dl, BYTE PTR $T197659[ebp]
  00021	52		 push	 edx
  00022	8b 45 10	 mov	 eax, DWORD PTR __Dest$[ebp]
  00025	50		 push	 eax
  00026	8b 4d 0c	 mov	 ecx, DWORD PTR __Last$[ebp]
  00029	51		 push	 ecx
  0002a	8b 55 08	 mov	 edx, DWORD PTR __First$[ebp]
  0002d	52		 push	 edx
  0002e	e8 00 00 00 00	 call	 ??$_Copy_backward_opt@PAU?$pair@UTAB_ITEM@@PAVCWnd@@@std@@PAU12@@std@@YAPAU?$pair@UTAB_ITEM@@PAVCWnd@@@0@PAU10@00U_Nonscalar_ptr_iterator_tag@0@@Z ; std::_Copy_backward_opt<std::pair<TAB_ITEM,CWnd *> *,std::pair<TAB_ITEM,CWnd *> *>
  00033	83 c4 10	 add	 esp, 16			; 00000010H

; 1070 : 	}

  00036	83 c4 04	 add	 esp, 4
  00039	3b ec		 cmp	 ebp, esp
  0003b	e8 00 00 00 00	 call	 __RTC_CheckEsp
  00040	8b e5		 mov	 esp, ebp
  00042	5d		 pop	 ebp
  00043	c3		 ret	 0
??$copy_backward@PAU?$pair@UTAB_ITEM@@PAVCWnd@@@std@@PAU12@@std@@YAPAU?$pair@UTAB_ITEM@@PAVCWnd@@@0@PAU10@00@Z ENDP ; std::copy_backward<std::pair<TAB_ITEM,CWnd *> *,std::pair<TAB_ITEM,CWnd *> *>
; Function compile flags: /Odt /RTCsu
; File d:\program files (x86)\microsoft visual studio .net 2003\vc7\include\xmemory
_TEXT	ENDS
;	COMDAT ??$_Allocate@U?$pair@UTAB_ITEM@@PAVCWnd@@@std@@@std@@YAPAU?$pair@UTAB_ITEM@@PAVCWnd@@@0@IPAU10@@Z
_TEXT	SEGMENT
__Count$ = 8						; size = 4
___formal$ = 12						; size = 4
??$_Allocate@U?$pair@UTAB_ITEM@@PAVCWnd@@@std@@@std@@YAPAU?$pair@UTAB_ITEM@@PAVCWnd@@@0@IPAU10@@Z PROC NEAR ; std::_Allocate<std::pair<TAB_ITEM,CWnd *> >, COMDAT

; 33   : 	{	// allocate storage for _Count elements of type _Ty

  00000	55		 push	 ebp
  00001	8b ec		 mov	 ebp, esp

; 34   : 	return ((_Ty _FARQ *)operator new(_Count * sizeof (_Ty)));

  00003	8b 45 08	 mov	 eax, DWORD PTR __Count$[ebp]
  00006	c1 e0 06	 shl	 eax, 6
  00009	50		 push	 eax
  0000a	e8 00 00 00 00	 call	 ??2@YAPAXI@Z		; operator new
  0000f	83 c4 04	 add	 esp, 4

; 35   : 	}

  00012	3b ec		 cmp	 ebp, esp
  00014	e8 00 00 00 00	 call	 __RTC_CheckEsp
  00019	5d		 pop	 ebp
  0001a	c3		 ret	 0
??$_Allocate@U?$pair@UTAB_ITEM@@PAVCWnd@@@std@@@std@@YAPAU?$pair@UTAB_ITEM@@PAVCWnd@@@0@IPAU10@@Z ENDP ; std::_Allocate<std::pair<TAB_ITEM,CWnd *> >
; Function compile flags: /Odt /RTCsu
_TEXT	ENDS
;	COMDAT ??4?$pair@UTAB_ITEM@@PAVCWnd@@@std@@QAEAAU01@ABU01@@Z
_TEXT	SEGMENT
_this$ = -4						; size = 4
___that$ = 8						; size = 4
??4?$pair@UTAB_ITEM@@PAVCWnd@@@std@@QAEAAU01@ABU01@@Z PROC NEAR ; std::pair<TAB_ITEM,CWnd *>::operator=, COMDAT
; _this$ = ecx
  00000	55		 push	 ebp
  00001	8b ec		 mov	 ebp, esp
  00003	51		 push	 ecx
  00004	c7 45 fc cc cc
	cc cc		 mov	 DWORD PTR [ebp-4], -858993460 ; ccccccccH
  0000b	89 4d fc	 mov	 DWORD PTR _this$[ebp], ecx
  0000e	8b 45 08	 mov	 eax, DWORD PTR ___that$[ebp]
  00011	50		 push	 eax
  00012	8b 4d fc	 mov	 ecx, DWORD PTR _this$[ebp]
  00015	e8 00 00 00 00	 call	 ??4TAB_ITEM@@QAEAAU0@ABU0@@Z
  0001a	8b 4d fc	 mov	 ecx, DWORD PTR _this$[ebp]
  0001d	8b 55 08	 mov	 edx, DWORD PTR ___that$[ebp]
  00020	8b 42 3c	 mov	 eax, DWORD PTR [edx+60]
  00023	89 41 3c	 mov	 DWORD PTR [ecx+60], eax
  00026	8b 45 fc	 mov	 eax, DWORD PTR _this$[ebp]
  00029	83 c4 04	 add	 esp, 4
  0002c	3b ec		 cmp	 ebp, esp
  0002e	e8 00 00 00 00	 call	 __RTC_CheckEsp
  00033	8b e5		 mov	 esp, ebp
  00035	5d		 pop	 ebp
  00036	c2 04 00	 ret	 4
??4?$pair@UTAB_ITEM@@PAVCWnd@@@std@@QAEAAU01@ABU01@@Z ENDP ; std::pair<TAB_ITEM,CWnd *>::operator=
; Function compile flags: /Odt /RTCsu
; File d:\program files (x86)\microsoft visual studio .net 2003\vc7\include\xutility
_TEXT	ENDS
;	COMDAT ??$_Ptr_cat@PAU?$pair@UTAB_ITEM@@PAVCWnd@@@std@@PAU12@@std@@YA?AU_Nonscalar_ptr_iterator_tag@0@AAPAU?$pair@UTAB_ITEM@@PAVCWnd@@@0@0@Z
_TEXT	SEGMENT
__Cat$ = -5						; size = 1
___formal$ = 8						; size = 4
___formal$ = 12						; size = 4
??$_Ptr_cat@PAU?$pair@UTAB_ITEM@@PAVCWnd@@@std@@PAU12@@std@@YA?AU_Nonscalar_ptr_iterator_tag@0@AAPAU?$pair@UTAB_ITEM@@PAVCWnd@@@0@0@Z PROC NEAR ; std::_Ptr_cat<std::pair<TAB_ITEM,CWnd *> *,std::pair<TAB_ITEM,CWnd *> *>, COMDAT

; 211  : 	{	// return pointer category from arbitrary arguments

  00000	55		 push	 ebp
  00001	8b ec		 mov	 ebp, esp
  00003	83 ec 0c	 sub	 esp, 12			; 0000000cH
  00006	c7 45 f4 cc cc
	cc cc		 mov	 DWORD PTR [ebp-12], -858993460 ; ccccccccH
  0000d	c7 45 f8 cc cc
	cc cc		 mov	 DWORD PTR [ebp-8], -858993460 ; ccccccccH
  00014	c7 45 fc cc cc
	cc cc		 mov	 DWORD PTR [ebp-4], -858993460 ; ccccccccH

; 212  : 	_Nonscalar_ptr_iterator_tag _Cat;
; 213  : 	return (_Cat);

  0001b	8a 45 fb	 mov	 al, BYTE PTR __Cat$[ebp]

; 214  : 	}

  0001e	52		 push	 edx
  0001f	8b cd		 mov	 ecx, ebp
  00021	50		 push	 eax
  00022	8d 15 00 00 00
	00		 lea	 edx, DWORD PTR $L197665
  00028	e8 00 00 00 00	 call	 @_RTC_CheckStackVars@8
  0002d	58		 pop	 eax
  0002e	5a		 pop	 edx
  0002f	8b e5		 mov	 esp, ebp
  00031	5d		 pop	 ebp
  00032	c3		 ret	 0
$L197665:
  00033	01 00 00 00	 DD	 1
  00037	00 00 00 00	 DD	 $L197664
$L197664:
  0003b	fb ff ff ff	 DD	 -5			; fffffffbH
  0003f	01 00 00 00	 DD	 1
  00043	00 00 00 00	 DD	 $L197663
$L197663:
  00047	5f		 DB	 95			; 0000005fH
  00048	43		 DB	 67			; 00000043H
  00049	61		 DB	 97			; 00000061H
  0004a	74		 DB	 116			; 00000074H
  0004b	00		 DB	 0
??$_Ptr_cat@PAU?$pair@UTAB_ITEM@@PAVCWnd@@@std@@PAU12@@std@@YA?AU_Nonscalar_ptr_iterator_tag@0@AAPAU?$pair@UTAB_ITEM@@PAVCWnd@@@0@0@Z ENDP ; std::_Ptr_cat<std::pair<TAB_ITEM,CWnd *> *,std::pair<TAB_ITEM,CWnd *> *>
; Function compile flags: /Odt /RTCsu
_TEXT	ENDS
;	COMDAT ??$_Copy_opt@PAU?$pair@UTAB_ITEM@@PAVCWnd@@@std@@PAU12@@std@@YAPAU?$pair@UTAB_ITEM@@PAVCWnd@@@0@PAU10@00U_Nonscalar_ptr_iterator_tag@0@@Z
_TEXT	SEGMENT
__First$ = 8						; size = 4
__Last$ = 12						; size = 4
__Dest$ = 16						; size = 4
___formal$ = 20						; size = 1
??$_Copy_opt@PAU?$pair@UTAB_ITEM@@PAVCWnd@@@std@@PAU12@@std@@YAPAU?$pair@UTAB_ITEM@@PAVCWnd@@@0@PAU10@00U_Nonscalar_ptr_iterator_tag@0@@Z PROC NEAR ; std::_Copy_opt<std::pair<TAB_ITEM,CWnd *> *,std::pair<TAB_ITEM,CWnd *> *>, COMDAT

; 1020 : 	{	// copy [_First, _Last) to [_Dest, ...), arbitrary iterators

  00000	55		 push	 ebp
  00001	8b ec		 mov	 ebp, esp

; 1021 : 	for (; _First != _Last; ++_Dest, ++_First)

  00003	eb 12		 jmp	 SHORT $L196308
$L196309:
  00005	8b 45 10	 mov	 eax, DWORD PTR __Dest$[ebp]
  00008	83 c0 40	 add	 eax, 64			; 00000040H
  0000b	89 45 10	 mov	 DWORD PTR __Dest$[ebp], eax
  0000e	8b 4d 08	 mov	 ecx, DWORD PTR __First$[ebp]
  00011	83 c1 40	 add	 ecx, 64			; 00000040H
  00014	89 4d 08	 mov	 DWORD PTR __First$[ebp], ecx
$L196308:
  00017	8b 55 08	 mov	 edx, DWORD PTR __First$[ebp]
  0001a	3b 55 0c	 cmp	 edx, DWORD PTR __Last$[ebp]
  0001d	74 0e		 je	 SHORT $L196310

; 1022 : 		*_Dest = *_First;

  0001f	8b 45 08	 mov	 eax, DWORD PTR __First$[ebp]
  00022	50		 push	 eax
  00023	8b 4d 10	 mov	 ecx, DWORD PTR __Dest$[ebp]
  00026	e8 00 00 00 00	 call	 ??4?$pair@UTAB_ITEM@@PAVCWnd@@@std@@QAEAAU01@ABU01@@Z
  0002b	eb d8		 jmp	 SHORT $L196309
$L196310:

; 1023 : 	return (_Dest);

  0002d	8b 45 10	 mov	 eax, DWORD PTR __Dest$[ebp]

; 1024 : 	}

  00030	3b ec		 cmp	 ebp, esp
  00032	e8 00 00 00 00	 call	 __RTC_CheckEsp
  00037	5d		 pop	 ebp
  00038	c3		 ret	 0
??$_Copy_opt@PAU?$pair@UTAB_ITEM@@PAVCWnd@@@std@@PAU12@@std@@YAPAU?$pair@UTAB_ITEM@@PAVCWnd@@@0@PAU10@00U_Nonscalar_ptr_iterator_tag@0@@Z ENDP ; std::_Copy_opt<std::pair<TAB_ITEM,CWnd *> *,std::pair<TAB_ITEM,CWnd *> *>
_TEXT	ENDS
PUBLIC	?destroy@?$allocator@U?$pair@UTAB_ITEM@@PAVCWnd@@@std@@@std@@QAEXPAU?$pair@UTAB_ITEM@@PAVCWnd@@@2@@Z ; std::allocator<std::pair<TAB_ITEM,CWnd *> >::destroy
; Function compile flags: /Odt /RTCsu
; File d:\program files (x86)\microsoft visual studio .net 2003\vc7\include\xmemory
;	COMDAT ??$_Destroy_range@U?$pair@UTAB_ITEM@@PAVCWnd@@@std@@V?$allocator@U?$pair@UTAB_ITEM@@PAVCWnd@@@std@@@2@@std@@YAXPAU?$pair@UTAB_ITEM@@PAVCWnd@@@0@0AAV?$allocator@U?$pair@UTAB_ITEM@@PAVCWnd@@@std@@@0@U_Nonscalar_ptr_iterator_tag@0@@Z
_TEXT	SEGMENT
__First$ = 8						; size = 4
__Last$ = 12						; size = 4
__Al$ = 16						; size = 4
___formal$ = 20						; size = 1
??$_Destroy_range@U?$pair@UTAB_ITEM@@PAVCWnd@@@std@@V?$allocator@U?$pair@UTAB_ITEM@@PAVCWnd@@@std@@@2@@std@@YAXPAU?$pair@UTAB_ITEM@@PAVCWnd@@@0@0AAV?$allocator@U?$pair@UTAB_ITEM@@PAVCWnd@@@std@@@0@U_Nonscalar_ptr_iterator_tag@0@@Z PROC NEAR ; std::_Destroy_range<std::pair<TAB_ITEM,CWnd *>,std::allocator<std::pair<TAB_ITEM,CWnd *> > >, COMDAT

; 224  : 	{	// destroy [_First, _Last), arbitrary type

  00000	55		 push	 ebp
  00001	8b ec		 mov	 ebp, esp

; 225  : 	for (; _First != _Last; ++_First)

  00003	eb 09		 jmp	 SHORT $L196312
$L196313:
  00005	8b 45 08	 mov	 eax, DWORD PTR __First$[ebp]
  00008	83 c0 40	 add	 eax, 64			; 00000040H
  0000b	89 45 08	 mov	 DWORD PTR __First$[ebp], eax
$L196312:
  0000e	8b 4d 08	 mov	 ecx, DWORD PTR __First$[ebp]
  00011	3b 4d 0c	 cmp	 ecx, DWORD PTR __Last$[ebp]
  00014	74 0e		 je	 SHORT $L196311

; 226  : 		_Al.destroy(_First);

  00016	8b 55 08	 mov	 edx, DWORD PTR __First$[ebp]
  00019	52		 push	 edx
  0001a	8b 4d 10	 mov	 ecx, DWORD PTR __Al$[ebp]
  0001d	e8 00 00 00 00	 call	 ?destroy@?$allocator@U?$pair@UTAB_ITEM@@PAVCWnd@@@std@@@std@@QAEXPAU?$pair@UTAB_ITEM@@PAVCWnd@@@2@@Z ; std::allocator<std::pair<TAB_ITEM,CWnd *> >::destroy
  00022	eb e1		 jmp	 SHORT $L196313
$L196311:

; 227  : 	}

  00024	3b ec		 cmp	 ebp, esp
  00026	e8 00 00 00 00	 call	 __RTC_CheckEsp
  0002b	5d		 pop	 ebp
  0002c	c3		 ret	 0
??$_Destroy_range@U?$pair@UTAB_ITEM@@PAVCWnd@@@std@@V?$allocator@U?$pair@UTAB_ITEM@@PAVCWnd@@@std@@@2@@std@@YAXPAU?$pair@UTAB_ITEM@@PAVCWnd@@@0@0AAV?$allocator@U?$pair@UTAB_ITEM@@PAVCWnd@@@std@@@0@U_Nonscalar_ptr_iterator_tag@0@@Z ENDP ; std::_Destroy_range<std::pair<TAB_ITEM,CWnd *>,std::allocator<std::pair<TAB_ITEM,CWnd *> > >
_TEXT	ENDS
PUBLIC	?construct@?$allocator@U?$pair@UTAB_ITEM@@PAVCWnd@@@std@@@std@@QAEXPAU?$pair@UTAB_ITEM@@PAVCWnd@@@2@ABU32@@Z ; std::allocator<std::pair<TAB_ITEM,CWnd *> >::construct
;	COMDAT xdata$x
; File d:\program files (x86)\microsoft visual studio .net 2003\vc7\include\memory
xdata$x	SEGMENT
$T197674 DD	0ffffffffH
	DD	00H
	DD	0ffffffffH
	DD	00H
$T197676 DD	00H
	DD	00H
	DD	00H
	DD	FLAT:$L197670
$T197675 DD	00H
	DD	00H
	DD	01H
	DD	01H
	DD	FLAT:$T197676
$T197672 DD	019930520H
	DD	02H
	DD	FLAT:$T197674
	DD	01H
	DD	FLAT:$T197675
	DD	2 DUP(00H)
; Function compile flags: /Odt /RTCsu
xdata$x	ENDS
;	COMDAT ??$_Uninit_fill_n@PAU?$pair@UTAB_ITEM@@PAVCWnd@@@std@@IU12@V?$allocator@U?$pair@UTAB_ITEM@@PAVCWnd@@@std@@@2@@std@@YAXPAU?$pair@UTAB_ITEM@@PAVCWnd@@@0@IABU10@AAV?$allocator@U?$pair@UTAB_ITEM@@PAVCWnd@@@std@@@0@U_Nonscalar_ptr_iterator_tag@0@@Z
_TEXT	SEGMENT
__Next$ = -20						; size = 4
__$EHRec$ = -16						; size = 16
__First$ = 8						; size = 4
__Count$ = 12						; size = 4
__Val$ = 16						; size = 4
__Al$ = 20						; size = 4
___formal$ = 24						; size = 1
??$_Uninit_fill_n@PAU?$pair@UTAB_ITEM@@PAVCWnd@@@std@@IU12@V?$allocator@U?$pair@UTAB_ITEM@@PAVCWnd@@@std@@@2@@std@@YAXPAU?$pair@UTAB_ITEM@@PAVCWnd@@@0@IABU10@AAV?$allocator@U?$pair@UTAB_ITEM@@PAVCWnd@@@std@@@0@U_Nonscalar_ptr_iterator_tag@0@@Z PROC NEAR ; std::_Uninit_fill_n<std::pair<TAB_ITEM,CWnd *> *,unsigned int,std::pair<TAB_ITEM,CWnd *>,std::allocator<std::pair<TAB_ITEM,CWnd *> > >, COMDAT

; 207  : 	{	// copy _Count *_Val to raw _First, using _Al, arbitrary type

  00000	55		 push	 ebp
  00001	8b ec		 mov	 ebp, esp
  00003	6a ff		 push	 -1
  00005	68 00 00 00 00	 push	 __ehhandler$??$_Uninit_fill_n@PAU?$pair@UTAB_ITEM@@PAVCWnd@@@std@@IU12@V?$allocator@U?$pair@UTAB_ITEM@@PAVCWnd@@@std@@@2@@std@@YAXPAU?$pair@UTAB_ITEM@@PAVCWnd@@@0@IABU10@AAV?$allocator@U?$pair@UTAB_ITEM@@PAVCWnd@@@std@@@0@U_Nonscalar_ptr_iterator_tag@0@@Z
  0000a	64 a1 00 00 00
	00		 mov	 eax, DWORD PTR fs:__except_list
  00010	50		 push	 eax
  00011	64 89 25 00 00
	00 00		 mov	 DWORD PTR fs:__except_list, esp
  00018	51		 push	 ecx
  00019	51		 push	 ecx
  0001a	53		 push	 ebx
  0001b	56		 push	 esi
  0001c	57		 push	 edi
  0001d	c7 45 ec cc cc
	cc cc		 mov	 DWORD PTR [ebp-20], -858993460 ; ccccccccH
  00024	89 65 f0	 mov	 DWORD PTR __$EHRec$[ebp], esp

; 208  : 	_FwdIt _Next = _First;

  00027	8b 45 08	 mov	 eax, DWORD PTR __First$[ebp]
  0002a	89 45 ec	 mov	 DWORD PTR __Next$[ebp], eax

; 209  : 
; 210  : 	_TRY_BEGIN

  0002d	c7 45 fc 00 00
	00 00		 mov	 DWORD PTR __$EHRec$[ebp+12], 0

; 211  : 	for (; 0 < _Count; --_Count, ++_First)

  00034	eb 12		 jmp	 SHORT $L196318
$L196319:
  00036	8b 4d 0c	 mov	 ecx, DWORD PTR __Count$[ebp]
  00039	83 e9 01	 sub	 ecx, 1
  0003c	89 4d 0c	 mov	 DWORD PTR __Count$[ebp], ecx
  0003f	8b 55 08	 mov	 edx, DWORD PTR __First$[ebp]
  00042	83 c2 40	 add	 edx, 64			; 00000040H
  00045	89 55 08	 mov	 DWORD PTR __First$[ebp], edx
$L196318:
  00048	83 7d 0c 00	 cmp	 DWORD PTR __Count$[ebp], 0
  0004c	76 12		 jbe	 SHORT $L196320

; 212  : 		_Al.construct(_First, _Val);

  0004e	8b 45 10	 mov	 eax, DWORD PTR __Val$[ebp]
  00051	50		 push	 eax
  00052	8b 4d 08	 mov	 ecx, DWORD PTR __First$[ebp]
  00055	51		 push	 ecx
  00056	8b 4d 14	 mov	 ecx, DWORD PTR __Al$[ebp]
  00059	e8 00 00 00 00	 call	 ?construct@?$allocator@U?$pair@UTAB_ITEM@@PAVCWnd@@@std@@@std@@QAEXPAU?$pair@UTAB_ITEM@@PAVCWnd@@@2@ABU32@@Z ; std::allocator<std::pair<TAB_ITEM,CWnd *> >::construct
  0005e	eb d6		 jmp	 SHORT $L196319
$L196320:
  00060	eb 2a		 jmp	 SHORT $L197669
$L197670:

; 213  : 	_CATCH_ALL
; 214  : 	for (; _Next != _First; ++_Next)

  00062	eb 09		 jmp	 SHORT $L196321
$L196322:
  00064	8b 55 ec	 mov	 edx, DWORD PTR __Next$[ebp]
  00067	83 c2 40	 add	 edx, 64			; 00000040H
  0006a	89 55 ec	 mov	 DWORD PTR __Next$[ebp], edx
$L196321:
  0006d	8b 45 ec	 mov	 eax, DWORD PTR __Next$[ebp]
  00070	3b 45 08	 cmp	 eax, DWORD PTR __First$[ebp]
  00073	74 0e		 je	 SHORT $L196323

; 215  : 		_Al.destroy(_Next);

  00075	8b 4d ec	 mov	 ecx, DWORD PTR __Next$[ebp]
  00078	51		 push	 ecx
  00079	8b 4d 14	 mov	 ecx, DWORD PTR __Al$[ebp]
  0007c	e8 00 00 00 00	 call	 ?destroy@?$allocator@U?$pair@UTAB_ITEM@@PAVCWnd@@@std@@@std@@QAEXPAU?$pair@UTAB_ITEM@@PAVCWnd@@@2@@Z ; std::allocator<std::pair<TAB_ITEM,CWnd *> >::destroy
  00081	eb e1		 jmp	 SHORT $L196322
$L196323:

; 216  : 	_RERAISE;

  00083	6a 00		 push	 0
  00085	6a 00		 push	 0
  00087	e8 00 00 00 00	 call	 __CxxThrowException@8
$L197669:

; 217  : 	_CATCH_END

  0008c	c7 45 fc ff ff
	ff ff		 mov	 DWORD PTR __$EHRec$[ebp+12], -1
$L197668:

; 218  : 	}

  00093	8b 4d f4	 mov	 ecx, DWORD PTR __$EHRec$[ebp+4]
  00096	64 89 0d 00 00
	00 00		 mov	 DWORD PTR fs:__except_list, ecx
  0009d	5f		 pop	 edi
  0009e	5e		 pop	 esi
  0009f	5b		 pop	 ebx
  000a0	83 c4 14	 add	 esp, 20			; 00000014H
  000a3	3b ec		 cmp	 ebp, esp
  000a5	e8 00 00 00 00	 call	 __RTC_CheckEsp
  000aa	8b e5		 mov	 esp, ebp
  000ac	5d		 pop	 ebp
  000ad	c3		 ret	 0
_TEXT	ENDS
;	COMDAT text$x
text$x	SEGMENT
__ehhandler$??$_Uninit_fill_n@PAU?$pair@UTAB_ITEM@@PAVCWnd@@@std@@IU12@V?$allocator@U?$pair@UTAB_ITEM@@PAVCWnd@@@std@@@2@@std@@YAXPAU?$pair@UTAB_ITEM@@PAVCWnd@@@0@IABU10@AAV?$allocator@U?$pair@UTAB_ITEM@@PAVCWnd@@@std@@@0@U_Nonscalar_ptr_iterator_tag@0@@Z:
  00000	b8 00 00 00 00	 mov	 eax, OFFSET FLAT:$T197672
  00005	e9 00 00 00 00	 jmp	 ___CxxFrameHandler
text$x	ENDS
??$_Uninit_fill_n@PAU?$pair@UTAB_ITEM@@PAVCWnd@@@std@@IU12@V?$allocator@U?$pair@UTAB_ITEM@@PAVCWnd@@@std@@@2@@std@@YAXPAU?$pair@UTAB_ITEM@@PAVCWnd@@@0@IABU10@AAV?$allocator@U?$pair@UTAB_ITEM@@PAVCWnd@@@std@@@0@U_Nonscalar_ptr_iterator_tag@0@@Z ENDP ; std::_Uninit_fill_n<std::pair<TAB_ITEM,CWnd *> *,unsigned int,std::pair<TAB_ITEM,CWnd *>,std::allocator<std::pair<TAB_ITEM,CWnd *> > >
PUBLIC	??$_Uninit_copy@PAU?$pair@UTAB_ITEM@@PAVCWnd@@@std@@PAU12@V?$allocator@U?$pair@UTAB_ITEM@@PAVCWnd@@@std@@@2@@std@@YAPAU?$pair@UTAB_ITEM@@PAVCWnd@@@0@PAU10@00AAV?$allocator@U?$pair@UTAB_ITEM@@PAVCWnd@@@std@@@0@U_Nonscalar_ptr_iterator_tag@0@@Z ; std::_Uninit_copy<std::pair<TAB_ITEM,CWnd *> *,std::pair<TAB_ITEM,CWnd *> *,std::allocator<std::pair<TAB_ITEM,CWnd *> > >
; Function compile flags: /Odt /RTCsu
;	COMDAT ??$_Uninitialized_copy@PAU?$pair@UTAB_ITEM@@PAVCWnd@@@std@@PAU12@V?$allocator@U?$pair@UTAB_ITEM@@PAVCWnd@@@std@@@2@@std@@YAPAU?$pair@UTAB_ITEM@@PAVCWnd@@@0@PAU10@00AAV?$allocator@U?$pair@UTAB_ITEM@@PAVCWnd@@@std@@@0@@Z
_TEXT	SEGMENT
$T197680 = -1						; size = 1
__First$ = 8						; size = 4
__Last$ = 12						; size = 4
__Dest$ = 16						; size = 4
__Al$ = 20						; size = 4
??$_Uninitialized_copy@PAU?$pair@UTAB_ITEM@@PAVCWnd@@@std@@PAU12@V?$allocator@U?$pair@UTAB_ITEM@@PAVCWnd@@@std@@@2@@std@@YAPAU?$pair@UTAB_ITEM@@PAVCWnd@@@0@PAU10@00AAV?$allocator@U?$pair@UTAB_ITEM@@PAVCWnd@@@std@@@0@@Z PROC NEAR ; std::_Uninitialized_copy<std::pair<TAB_ITEM,CWnd *> *,std::pair<TAB_ITEM,CWnd *> *,std::allocator<std::pair<TAB_ITEM,CWnd *> > >, COMDAT

; 126  : 	{	// copy [_First, _Last) to raw _Dest, using _Al

  00000	55		 push	 ebp
  00001	8b ec		 mov	 ebp, esp
  00003	51		 push	 ecx
  00004	c7 45 fc cc cc
	cc cc		 mov	 DWORD PTR [ebp-4], -858993460 ; ccccccccH

; 127  : 	return (_Uninit_copy(_First, _Last, _Dest, _Al,
; 128  : 		_Ptr_cat(_First, _Dest)));

  0000b	8d 45 10	 lea	 eax, DWORD PTR __Dest$[ebp]
  0000e	50		 push	 eax
  0000f	8d 4d 08	 lea	 ecx, DWORD PTR __First$[ebp]
  00012	51		 push	 ecx
  00013	e8 00 00 00 00	 call	 ??$_Ptr_cat@PAU?$pair@UTAB_ITEM@@PAVCWnd@@@std@@PAU12@@std@@YA?AU_Nonscalar_ptr_iterator_tag@0@AAPAU?$pair@UTAB_ITEM@@PAVCWnd@@@0@0@Z ; std::_Ptr_cat<std::pair<TAB_ITEM,CWnd *> *,std::pair<TAB_ITEM,CWnd *> *>
  00018	83 c4 08	 add	 esp, 8
  0001b	88 45 ff	 mov	 BYTE PTR $T197680[ebp], al
  0001e	8a 55 ff	 mov	 dl, BYTE PTR $T197680[ebp]
  00021	52		 push	 edx
  00022	8b 45 14	 mov	 eax, DWORD PTR __Al$[ebp]
  00025	50		 push	 eax
  00026	8b 4d 10	 mov	 ecx, DWORD PTR __Dest$[ebp]
  00029	51		 push	 ecx
  0002a	8b 55 0c	 mov	 edx, DWORD PTR __Last$[ebp]
  0002d	52		 push	 edx
  0002e	8b 45 08	 mov	 eax, DWORD PTR __First$[ebp]
  00031	50		 push	 eax
  00032	e8 00 00 00 00	 call	 ??$_Uninit_copy@PAU?$pair@UTAB_ITEM@@PAVCWnd@@@std@@PAU12@V?$allocator@U?$pair@UTAB_ITEM@@PAVCWnd@@@std@@@2@@std@@YAPAU?$pair@UTAB_ITEM@@PAVCWnd@@@0@PAU10@00AAV?$allocator@U?$pair@UTAB_ITEM@@PAVCWnd@@@std@@@0@U_Nonscalar_ptr_iterator_tag@0@@Z ; std::_Uninit_copy<std::pair<TAB_ITEM,CWnd *> *,std::pair<TAB_ITEM,CWnd *> *,std::allocator<std::pair<TAB_ITEM,CWnd *> > >
  00037	83 c4 14	 add	 esp, 20			; 00000014H

; 129  : 	}

  0003a	83 c4 04	 add	 esp, 4
  0003d	3b ec		 cmp	 ebp, esp
  0003f	e8 00 00 00 00	 call	 __RTC_CheckEsp
  00044	8b e5		 mov	 esp, ebp
  00046	5d		 pop	 ebp
  00047	c3		 ret	 0
??$_Uninitialized_copy@PAU?$pair@UTAB_ITEM@@PAVCWnd@@@std@@PAU12@V?$allocator@U?$pair@UTAB_ITEM@@PAVCWnd@@@std@@@2@@std@@YAPAU?$pair@UTAB_ITEM@@PAVCWnd@@@0@PAU10@00AAV?$allocator@U?$pair@UTAB_ITEM@@PAVCWnd@@@std@@@0@@Z ENDP ; std::_Uninitialized_copy<std::pair<TAB_ITEM,CWnd *> *,std::pair<TAB_ITEM,CWnd *> *,std::allocator<std::pair<TAB_ITEM,CWnd *> > >
; Function compile flags: /Odt /RTCsu
; File d:\program files (x86)\microsoft visual studio .net 2003\vc7\include\xutility
_TEXT	ENDS
;	COMDAT ??$_Copy_backward_opt@PAU?$pair@UTAB_ITEM@@PAVCWnd@@@std@@PAU12@@std@@YAPAU?$pair@UTAB_ITEM@@PAVCWnd@@@0@PAU10@00U_Nonscalar_ptr_iterator_tag@0@@Z
_TEXT	SEGMENT
__First$ = 8						; size = 4
__Last$ = 12						; size = 4
__Dest$ = 16						; size = 4
___formal$ = 20						; size = 1
??$_Copy_backward_opt@PAU?$pair@UTAB_ITEM@@PAVCWnd@@@std@@PAU12@@std@@YAPAU?$pair@UTAB_ITEM@@PAVCWnd@@@0@PAU10@00U_Nonscalar_ptr_iterator_tag@0@@Z PROC NEAR ; std::_Copy_backward_opt<std::pair<TAB_ITEM,CWnd *> *,std::pair<TAB_ITEM,CWnd *> *>, COMDAT

; 1048 : 	{	// copy [_First, _Last) backwards to [..., _Dest), arbitrary iterators

  00000	55		 push	 ebp
  00001	8b ec		 mov	 ebp, esp
$L196366:

; 1049 : 	while (_First != _Last)

  00003	8b 45 08	 mov	 eax, DWORD PTR __First$[ebp]
  00006	3b 45 0c	 cmp	 eax, DWORD PTR __Last$[ebp]
  00009	74 20		 je	 SHORT $L196367

; 1050 : 		*--_Dest = *--_Last;

  0000b	8b 4d 0c	 mov	 ecx, DWORD PTR __Last$[ebp]
  0000e	83 e9 40	 sub	 ecx, 64			; 00000040H
  00011	89 4d 0c	 mov	 DWORD PTR __Last$[ebp], ecx
  00014	8b 55 10	 mov	 edx, DWORD PTR __Dest$[ebp]
  00017	83 ea 40	 sub	 edx, 64			; 00000040H
  0001a	89 55 10	 mov	 DWORD PTR __Dest$[ebp], edx
  0001d	8b 45 0c	 mov	 eax, DWORD PTR __Last$[ebp]
  00020	50		 push	 eax
  00021	8b 4d 10	 mov	 ecx, DWORD PTR __Dest$[ebp]
  00024	e8 00 00 00 00	 call	 ??4?$pair@UTAB_ITEM@@PAVCWnd@@@std@@QAEAAU01@ABU01@@Z
  00029	eb d8		 jmp	 SHORT $L196366
$L196367:

; 1051 : 	return (_Dest);

  0002b	8b 45 10	 mov	 eax, DWORD PTR __Dest$[ebp]

; 1052 : 	}

  0002e	3b ec		 cmp	 ebp, esp
  00030	e8 00 00 00 00	 call	 __RTC_CheckEsp
  00035	5d		 pop	 ebp
  00036	c3		 ret	 0
??$_Copy_backward_opt@PAU?$pair@UTAB_ITEM@@PAVCWnd@@@std@@PAU12@@std@@YAPAU?$pair@UTAB_ITEM@@PAVCWnd@@@0@PAU10@00U_Nonscalar_ptr_iterator_tag@0@@Z ENDP ; std::_Copy_backward_opt<std::pair<TAB_ITEM,CWnd *> *,std::pair<TAB_ITEM,CWnd *> *>
_TEXT	ENDS
PUBLIC	??$_Construct@U?$pair@UTAB_ITEM@@PAVCWnd@@@std@@U12@@std@@YAXPAU?$pair@UTAB_ITEM@@PAVCWnd@@@0@ABU10@@Z ; std::_Construct<std::pair<TAB_ITEM,CWnd *>,std::pair<TAB_ITEM,CWnd *> >
; Function compile flags: /Odt /RTCsu
; File d:\program files (x86)\microsoft visual studio .net 2003\vc7\include\xmemory
;	COMDAT ?construct@?$allocator@U?$pair@UTAB_ITEM@@PAVCWnd@@@std@@@std@@QAEXPAU?$pair@UTAB_ITEM@@PAVCWnd@@@2@ABU32@@Z
_TEXT	SEGMENT
_this$ = -4						; size = 4
__Ptr$ = 8						; size = 4
__Val$ = 12						; size = 4
?construct@?$allocator@U?$pair@UTAB_ITEM@@PAVCWnd@@@std@@@std@@QAEXPAU?$pair@UTAB_ITEM@@PAVCWnd@@@2@ABU32@@Z PROC NEAR ; std::allocator<std::pair<TAB_ITEM,CWnd *> >::construct, COMDAT
; _this$ = ecx

; 146  : 		{	// construct object at _Ptr with value _Val

  00000	55		 push	 ebp
  00001	8b ec		 mov	 ebp, esp
  00003	51		 push	 ecx
  00004	c7 45 fc cc cc
	cc cc		 mov	 DWORD PTR [ebp-4], -858993460 ; ccccccccH
  0000b	89 4d fc	 mov	 DWORD PTR _this$[ebp], ecx

; 147  : 		_Construct(_Ptr, _Val);

  0000e	8b 45 0c	 mov	 eax, DWORD PTR __Val$[ebp]
  00011	50		 push	 eax
  00012	8b 4d 08	 mov	 ecx, DWORD PTR __Ptr$[ebp]
  00015	51		 push	 ecx
  00016	e8 00 00 00 00	 call	 ??$_Construct@U?$pair@UTAB_ITEM@@PAVCWnd@@@std@@U12@@std@@YAXPAU?$pair@UTAB_ITEM@@PAVCWnd@@@0@ABU10@@Z ; std::_Construct<std::pair<TAB_ITEM,CWnd *>,std::pair<TAB_ITEM,CWnd *> >
  0001b	83 c4 08	 add	 esp, 8

; 148  : 		}

  0001e	83 c4 04	 add	 esp, 4
  00021	3b ec		 cmp	 ebp, esp
  00023	e8 00 00 00 00	 call	 __RTC_CheckEsp
  00028	8b e5		 mov	 esp, ebp
  0002a	5d		 pop	 ebp
  0002b	c2 08 00	 ret	 8
?construct@?$allocator@U?$pair@UTAB_ITEM@@PAVCWnd@@@std@@@std@@QAEXPAU?$pair@UTAB_ITEM@@PAVCWnd@@@2@ABU32@@Z ENDP ; std::allocator<std::pair<TAB_ITEM,CWnd *> >::construct
_TEXT	ENDS
PUBLIC	??$_Destroy@U?$pair@UTAB_ITEM@@PAVCWnd@@@std@@@std@@YAXPAU?$pair@UTAB_ITEM@@PAVCWnd@@@0@@Z ; std::_Destroy<std::pair<TAB_ITEM,CWnd *> >
; Function compile flags: /Odt /RTCsu
;	COMDAT ?destroy@?$allocator@U?$pair@UTAB_ITEM@@PAVCWnd@@@std@@@std@@QAEXPAU?$pair@UTAB_ITEM@@PAVCWnd@@@2@@Z
_TEXT	SEGMENT
_this$ = -4						; size = 4
__Ptr$ = 8						; size = 4
?destroy@?$allocator@U?$pair@UTAB_ITEM@@PAVCWnd@@@std@@@std@@QAEXPAU?$pair@UTAB_ITEM@@PAVCWnd@@@2@@Z PROC NEAR ; std::allocator<std::pair<TAB_ITEM,CWnd *> >::destroy, COMDAT
; _this$ = ecx

; 151  : 		{	// destroy object at _Ptr

  00000	55		 push	 ebp
  00001	8b ec		 mov	 ebp, esp
  00003	51		 push	 ecx
  00004	c7 45 fc cc cc
	cc cc		 mov	 DWORD PTR [ebp-4], -858993460 ; ccccccccH
  0000b	89 4d fc	 mov	 DWORD PTR _this$[ebp], ecx

; 152  : 		_Destroy(_Ptr);

  0000e	8b 45 08	 mov	 eax, DWORD PTR __Ptr$[ebp]
  00011	50		 push	 eax
  00012	e8 00 00 00 00	 call	 ??$_Destroy@U?$pair@UTAB_ITEM@@PAVCWnd@@@std@@@std@@YAXPAU?$pair@UTAB_ITEM@@PAVCWnd@@@0@@Z ; std::_Destroy<std::pair<TAB_ITEM,CWnd *> >
  00017	83 c4 04	 add	 esp, 4

; 153  : 		}

  0001a	83 c4 04	 add	 esp, 4
  0001d	3b ec		 cmp	 ebp, esp
  0001f	e8 00 00 00 00	 call	 __RTC_CheckEsp
  00024	8b e5		 mov	 esp, ebp
  00026	5d		 pop	 ebp
  00027	c2 04 00	 ret	 4
?destroy@?$allocator@U?$pair@UTAB_ITEM@@PAVCWnd@@@std@@@std@@QAEXPAU?$pair@UTAB_ITEM@@PAVCWnd@@@2@@Z ENDP ; std::allocator<std::pair<TAB_ITEM,CWnd *> >::destroy
_TEXT	ENDS
;	COMDAT xdata$x
; File d:\program files (x86)\microsoft visual studio .net 2003\vc7\include\memory
xdata$x	SEGMENT
$T197690 DD	0ffffffffH
	DD	00H
	DD	0ffffffffH
	DD	00H
$T197692 DD	00H
	DD	00H
	DD	00H
	DD	FLAT:$L197686
$T197691 DD	00H
	DD	00H
	DD	01H
	DD	01H
	DD	FLAT:$T197692
$T197688 DD	019930520H
	DD	02H
	DD	FLAT:$T197690
	DD	01H
	DD	FLAT:$T197691
	DD	2 DUP(00H)
; Function compile flags: /Odt /RTCsu
xdata$x	ENDS
;	COMDAT ??$_Uninit_copy@PAU?$pair@UTAB_ITEM@@PAVCWnd@@@std@@PAU12@V?$allocator@U?$pair@UTAB_ITEM@@PAVCWnd@@@std@@@2@@std@@YAPAU?$pair@UTAB_ITEM@@PAVCWnd@@@0@PAU10@00AAV?$allocator@U?$pair@UTAB_ITEM@@PAVCWnd@@@std@@@0@U_Nonscalar_ptr_iterator_tag@0@@Z
_TEXT	SEGMENT
__Next$ = -20						; size = 4
__$EHRec$ = -16						; size = 16
__First$ = 8						; size = 4
__Last$ = 12						; size = 4
__Dest$ = 16						; size = 4
__Al$ = 20						; size = 4
___formal$ = 24						; size = 1
??$_Uninit_copy@PAU?$pair@UTAB_ITEM@@PAVCWnd@@@std@@PAU12@V?$allocator@U?$pair@UTAB_ITEM@@PAVCWnd@@@std@@@2@@std@@YAPAU?$pair@UTAB_ITEM@@PAVCWnd@@@0@PAU10@00AAV?$allocator@U?$pair@UTAB_ITEM@@PAVCWnd@@@std@@@0@U_Nonscalar_ptr_iterator_tag@0@@Z PROC NEAR ; std::_Uninit_copy<std::pair<TAB_ITEM,CWnd *> *,std::pair<TAB_ITEM,CWnd *> *,std::allocator<std::pair<TAB_ITEM,CWnd *> > >, COMDAT

; 77   : 	{	// copy [_First, _Last) to raw _Dest, using _Al, arbitrary type

  00000	55		 push	 ebp
  00001	8b ec		 mov	 ebp, esp
  00003	6a ff		 push	 -1
  00005	68 00 00 00 00	 push	 __ehhandler$??$_Uninit_copy@PAU?$pair@UTAB_ITEM@@PAVCWnd@@@std@@PAU12@V?$allocator@U?$pair@UTAB_ITEM@@PAVCWnd@@@std@@@2@@std@@YAPAU?$pair@UTAB_ITEM@@PAVCWnd@@@0@PAU10@00AAV?$allocator@U?$pair@UTAB_ITEM@@PAVCWnd@@@std@@@0@U_Nonscalar_ptr_iterator_tag@0@@Z
  0000a	64 a1 00 00 00
	00		 mov	 eax, DWORD PTR fs:__except_list
  00010	50		 push	 eax
  00011	64 89 25 00 00
	00 00		 mov	 DWORD PTR fs:__except_list, esp
  00018	51		 push	 ecx
  00019	51		 push	 ecx
  0001a	53		 push	 ebx
  0001b	56		 push	 esi
  0001c	57		 push	 edi
  0001d	c7 45 ec cc cc
	cc cc		 mov	 DWORD PTR [ebp-20], -858993460 ; ccccccccH
  00024	89 65 f0	 mov	 DWORD PTR __$EHRec$[ebp], esp

; 78   : 	_FwdIt _Next = _Dest;

  00027	8b 45 10	 mov	 eax, DWORD PTR __Dest$[ebp]
  0002a	89 45 ec	 mov	 DWORD PTR __Next$[ebp], eax

; 79   : 
; 80   : 	_TRY_BEGIN

  0002d	c7 45 fc 00 00
	00 00		 mov	 DWORD PTR __$EHRec$[ebp+12], 0

; 81   : 	for (; _First != _Last; ++_Dest, ++_First)

  00034	eb 12		 jmp	 SHORT $L196385
$L196386:
  00036	8b 4d 10	 mov	 ecx, DWORD PTR __Dest$[ebp]
  00039	83 c1 40	 add	 ecx, 64			; 00000040H
  0003c	89 4d 10	 mov	 DWORD PTR __Dest$[ebp], ecx
  0003f	8b 55 08	 mov	 edx, DWORD PTR __First$[ebp]
  00042	83 c2 40	 add	 edx, 64			; 00000040H
  00045	89 55 08	 mov	 DWORD PTR __First$[ebp], edx
$L196385:
  00048	8b 45 08	 mov	 eax, DWORD PTR __First$[ebp]
  0004b	3b 45 0c	 cmp	 eax, DWORD PTR __Last$[ebp]
  0004e	74 12		 je	 SHORT $L196387

; 82   : 		_Al.construct(_Dest, *_First);

  00050	8b 4d 08	 mov	 ecx, DWORD PTR __First$[ebp]
  00053	51		 push	 ecx
  00054	8b 55 10	 mov	 edx, DWORD PTR __Dest$[ebp]
  00057	52		 push	 edx
  00058	8b 4d 14	 mov	 ecx, DWORD PTR __Al$[ebp]
  0005b	e8 00 00 00 00	 call	 ?construct@?$allocator@U?$pair@UTAB_ITEM@@PAVCWnd@@@std@@@std@@QAEXPAU?$pair@UTAB_ITEM@@PAVCWnd@@@2@ABU32@@Z ; std::allocator<std::pair<TAB_ITEM,CWnd *> >::construct
  00060	eb d4		 jmp	 SHORT $L196386
$L196387:
  00062	eb 2a		 jmp	 SHORT $L197685
$L197686:

; 83   : 	_CATCH_ALL
; 84   : 	for (; _Next != _Dest; ++_Next)

  00064	eb 09		 jmp	 SHORT $L196388
$L196389:
  00066	8b 45 ec	 mov	 eax, DWORD PTR __Next$[ebp]
  00069	83 c0 40	 add	 eax, 64			; 00000040H
  0006c	89 45 ec	 mov	 DWORD PTR __Next$[ebp], eax
$L196388:
  0006f	8b 4d ec	 mov	 ecx, DWORD PTR __Next$[ebp]
  00072	3b 4d 10	 cmp	 ecx, DWORD PTR __Dest$[ebp]
  00075	74 0e		 je	 SHORT $L196390

; 85   : 		_Al.destroy(_Next);

  00077	8b 55 ec	 mov	 edx, DWORD PTR __Next$[ebp]
  0007a	52		 push	 edx
  0007b	8b 4d 14	 mov	 ecx, DWORD PTR __Al$[ebp]
  0007e	e8 00 00 00 00	 call	 ?destroy@?$allocator@U?$pair@UTAB_ITEM@@PAVCWnd@@@std@@@std@@QAEXPAU?$pair@UTAB_ITEM@@PAVCWnd@@@2@@Z ; std::allocator<std::pair<TAB_ITEM,CWnd *> >::destroy
  00083	eb e1		 jmp	 SHORT $L196389
$L196390:

; 86   : 	_RERAISE;

  00085	6a 00		 push	 0
  00087	6a 00		 push	 0
  00089	e8 00 00 00 00	 call	 __CxxThrowException@8
$L197685:

; 87   : 	_CATCH_END

  0008e	c7 45 fc ff ff
	ff ff		 mov	 DWORD PTR __$EHRec$[ebp+12], -1

; 88   : 	return (_Dest);

  00095	8b 45 10	 mov	 eax, DWORD PTR __Dest$[ebp]
$L197684:

; 89   : 	}

  00098	8b 4d f4	 mov	 ecx, DWORD PTR __$EHRec$[ebp+4]
  0009b	64 89 0d 00 00
	00 00		 mov	 DWORD PTR fs:__except_list, ecx
  000a2	5f		 pop	 edi
  000a3	5e		 pop	 esi
  000a4	5b		 pop	 ebx
  000a5	83 c4 14	 add	 esp, 20			; 00000014H
  000a8	3b ec		 cmp	 ebp, esp
  000aa	e8 00 00 00 00	 call	 __RTC_CheckEsp
  000af	8b e5		 mov	 esp, ebp
  000b1	5d		 pop	 ebp
  000b2	c3		 ret	 0
_TEXT	ENDS
;	COMDAT text$x
text$x	SEGMENT
__ehhandler$??$_Uninit_copy@PAU?$pair@UTAB_ITEM@@PAVCWnd@@@std@@PAU12@V?$allocator@U?$pair@UTAB_ITEM@@PAVCWnd@@@std@@@2@@std@@YAPAU?$pair@UTAB_ITEM@@PAVCWnd@@@0@PAU10@00AAV?$allocator@U?$pair@UTAB_ITEM@@PAVCWnd@@@std@@@0@U_Nonscalar_ptr_iterator_tag@0@@Z:
  00000	b8 00 00 00 00	 mov	 eax, OFFSET FLAT:$T197688
  00005	e9 00 00 00 00	 jmp	 ___CxxFrameHandler
text$x	ENDS
??$_Uninit_copy@PAU?$pair@UTAB_ITEM@@PAVCWnd@@@std@@PAU12@V?$allocator@U?$pair@UTAB_ITEM@@PAVCWnd@@@std@@@2@@std@@YAPAU?$pair@UTAB_ITEM@@PAVCWnd@@@0@PAU10@00AAV?$allocator@U?$pair@UTAB_ITEM@@PAVCWnd@@@std@@@0@U_Nonscalar_ptr_iterator_tag@0@@Z ENDP ; std::_Uninit_copy<std::pair<TAB_ITEM,CWnd *> *,std::pair<TAB_ITEM,CWnd *> *,std::allocator<std::pair<TAB_ITEM,CWnd *> > >
PUBLIC	??2@YAPAXIPAX@Z					; operator new
PUBLIC	??3@YAXPAX0@Z					; operator delete
;	COMDAT xdata$x
; File d:\program files (x86)\microsoft visual studio .net 2003\vc7\include\xmemory
xdata$x	SEGMENT
$T197704 DD	0ffffffffH
	DD	FLAT:$L197700
$T197702 DD	019930520H
	DD	01H
	DD	FLAT:$T197704
	DD	2 DUP(00H)
	DD	2 DUP(00H)
; Function compile flags: /Odt /RTCsu
xdata$x	ENDS
;	COMDAT ??$_Construct@U?$pair@UTAB_ITEM@@PAVCWnd@@@std@@U12@@std@@YAXPAU?$pair@UTAB_ITEM@@PAVCWnd@@@0@ABU10@@Z
_TEXT	SEGMENT
tv74 = -24						; size = 4
$T197697 = -20						; size = 4
$T197696 = -16						; size = 4
__$EHRec$ = -12						; size = 12
__Ptr$ = 8						; size = 4
__Val$ = 12						; size = 4
??$_Construct@U?$pair@UTAB_ITEM@@PAVCWnd@@@std@@U12@@std@@YAXPAU?$pair@UTAB_ITEM@@PAVCWnd@@@0@ABU10@@Z PROC NEAR ; std::_Construct<std::pair<TAB_ITEM,CWnd *>,std::pair<TAB_ITEM,CWnd *> >, COMDAT

; 41   : 	{	// construct object at _Ptr with value _Val

  00000	55		 push	 ebp
  00001	8b ec		 mov	 ebp, esp
  00003	6a ff		 push	 -1
  00005	68 00 00 00 00	 push	 __ehhandler$??$_Construct@U?$pair@UTAB_ITEM@@PAVCWnd@@@std@@U12@@std@@YAXPAU?$pair@UTAB_ITEM@@PAVCWnd@@@0@ABU10@@Z
  0000a	64 a1 00 00 00
	00		 mov	 eax, DWORD PTR fs:__except_list
  00010	50		 push	 eax
  00011	64 89 25 00 00
	00 00		 mov	 DWORD PTR fs:__except_list, esp
  00018	83 ec 0c	 sub	 esp, 12			; 0000000cH
  0001b	c7 45 e8 cc cc
	cc cc		 mov	 DWORD PTR [ebp-24], -858993460 ; ccccccccH
  00022	c7 45 ec cc cc
	cc cc		 mov	 DWORD PTR [ebp-20], -858993460 ; ccccccccH
  00029	c7 45 f0 cc cc
	cc cc		 mov	 DWORD PTR [ebp-16], -858993460 ; ccccccccH

; 42   : 	new ((void _FARQ *)_Ptr) _T1(_Val);

  00030	8b 45 08	 mov	 eax, DWORD PTR __Ptr$[ebp]
  00033	50		 push	 eax
  00034	6a 40		 push	 64			; 00000040H
  00036	e8 00 00 00 00	 call	 ??2@YAPAXIPAX@Z		; operator new
  0003b	83 c4 08	 add	 esp, 8
  0003e	89 45 ec	 mov	 DWORD PTR $T197697[ebp], eax
  00041	c7 45 fc 00 00
	00 00		 mov	 DWORD PTR __$EHRec$[ebp+8], 0
  00048	83 7d ec 00	 cmp	 DWORD PTR $T197697[ebp], 0
  0004c	74 11		 je	 SHORT $L197698
  0004e	8b 4d 0c	 mov	 ecx, DWORD PTR __Val$[ebp]
  00051	51		 push	 ecx
  00052	8b 4d ec	 mov	 ecx, DWORD PTR $T197697[ebp]
  00055	e8 00 00 00 00	 call	 ??0?$pair@UTAB_ITEM@@PAVCWnd@@@std@@QAE@ABU01@@Z
  0005a	89 45 e8	 mov	 DWORD PTR tv74[ebp], eax
  0005d	eb 07		 jmp	 SHORT $L197699
$L197698:
  0005f	c7 45 e8 00 00
	00 00		 mov	 DWORD PTR tv74[ebp], 0
$L197699:
  00066	8b 55 e8	 mov	 edx, DWORD PTR tv74[ebp]
  00069	89 55 f0	 mov	 DWORD PTR $T197696[ebp], edx
  0006c	c7 45 fc ff ff
	ff ff		 mov	 DWORD PTR __$EHRec$[ebp+8], -1

; 43   : 	}

  00073	8b 4d f4	 mov	 ecx, DWORD PTR __$EHRec$[ebp]
  00076	64 89 0d 00 00
	00 00		 mov	 DWORD PTR fs:__except_list, ecx
  0007d	83 c4 18	 add	 esp, 24			; 00000018H
  00080	3b ec		 cmp	 ebp, esp
  00082	e8 00 00 00 00	 call	 __RTC_CheckEsp
  00087	8b e5		 mov	 esp, ebp
  00089	5d		 pop	 ebp
  0008a	c3		 ret	 0
_TEXT	ENDS
;	COMDAT text$x
text$x	SEGMENT
$L197700:
  00000	8b 45 08	 mov	 eax, DWORD PTR __Ptr$[ebp]
  00003	50		 push	 eax
  00004	8b 4d ec	 mov	 ecx, DWORD PTR $T197697[ebp]
  00007	51		 push	 ecx
  00008	e8 00 00 00 00	 call	 ??3@YAXPAX0@Z		; operator delete
  0000d	83 c4 08	 add	 esp, 8
  00010	c3		 ret	 0
__ehhandler$??$_Construct@U?$pair@UTAB_ITEM@@PAVCWnd@@@std@@U12@@std@@YAXPAU?$pair@UTAB_ITEM@@PAVCWnd@@@0@ABU10@@Z:
  00011	b8 00 00 00 00	 mov	 eax, OFFSET FLAT:$T197702
  00016	e9 00 00 00 00	 jmp	 ___CxxFrameHandler
text$x	ENDS
??$_Construct@U?$pair@UTAB_ITEM@@PAVCWnd@@@std@@U12@@std@@YAXPAU?$pair@UTAB_ITEM@@PAVCWnd@@@0@ABU10@@Z ENDP ; std::_Construct<std::pair<TAB_ITEM,CWnd *>,std::pair<TAB_ITEM,CWnd *> >
; Function compile flags: /Odt /RTCsu
; File d:\program files (x86)\microsoft visual studio .net 2003\vc7\include\new.h
;	COMDAT ??2@YAPAXIPAX@Z
_TEXT	SEGMENT
___formal$ = 8						; size = 4
__P$ = 12						; size = 4
??2@YAPAXIPAX@Z PROC NEAR				; operator new, COMDAT

; 109  :         {return (_P); }

  00000	55		 push	 ebp
  00001	8b ec		 mov	 ebp, esp
  00003	8b 45 0c	 mov	 eax, DWORD PTR __P$[ebp]
  00006	5d		 pop	 ebp
  00007	c3		 ret	 0
??2@YAPAXIPAX@Z ENDP					; operator new
; Function compile flags: /Odt /RTCsu
_TEXT	ENDS
;	COMDAT ??3@YAXPAX0@Z
_TEXT	SEGMENT
___formal$ = 8						; size = 4
___formal$ = 12						; size = 4
??3@YAXPAX0@Z PROC NEAR					; operator delete, COMDAT

; 112  :         {return; }

  00000	55		 push	 ebp
  00001	8b ec		 mov	 ebp, esp
  00003	5d		 pop	 ebp
  00004	c3		 ret	 0
??3@YAXPAX0@Z ENDP					; operator delete
_TEXT	ENDS
PUBLIC	??_G?$pair@UTAB_ITEM@@PAVCWnd@@@std@@QAEPAXI@Z	; std::pair<TAB_ITEM,CWnd *>::`scalar deleting destructor'
; Function compile flags: /Odt /RTCsu
; File d:\program files (x86)\microsoft visual studio .net 2003\vc7\include\xmemory
;	COMDAT ??$_Destroy@U?$pair@UTAB_ITEM@@PAVCWnd@@@std@@@std@@YAXPAU?$pair@UTAB_ITEM@@PAVCWnd@@@0@@Z
_TEXT	SEGMENT
__Ptr$ = 8						; size = 4
??$_Destroy@U?$pair@UTAB_ITEM@@PAVCWnd@@@std@@@std@@YAXPAU?$pair@UTAB_ITEM@@PAVCWnd@@@0@@Z PROC NEAR ; std::_Destroy<std::pair<TAB_ITEM,CWnd *> >, COMDAT

; 48   : 	{	// destroy object at _Ptr

  00000	55		 push	 ebp
  00001	8b ec		 mov	 ebp, esp

; 49   : 	_DESTRUCTOR(_Ty, _Ptr);

  00003	6a 00		 push	 0
  00005	8b 4d 08	 mov	 ecx, DWORD PTR __Ptr$[ebp]
  00008	e8 00 00 00 00	 call	 ??_G?$pair@UTAB_ITEM@@PAVCWnd@@@std@@QAEPAXI@Z

; 50   : 	}

  0000d	3b ec		 cmp	 ebp, esp
  0000f	e8 00 00 00 00	 call	 __RTC_CheckEsp
  00014	5d		 pop	 ebp
  00015	c3		 ret	 0
??$_Destroy@U?$pair@UTAB_ITEM@@PAVCWnd@@@std@@@std@@YAXPAU?$pair@UTAB_ITEM@@PAVCWnd@@@0@@Z ENDP ; std::_Destroy<std::pair<TAB_ITEM,CWnd *> >
; Function compile flags: /Odt /RTCsu
_TEXT	ENDS
;	COMDAT ??_G?$pair@UTAB_ITEM@@PAVCWnd@@@std@@QAEPAXI@Z
_TEXT	SEGMENT
_this$ = -4						; size = 4
___flags$ = 8						; size = 4
??_G?$pair@UTAB_ITEM@@PAVCWnd@@@std@@QAEPAXI@Z PROC NEAR ; std::pair<TAB_ITEM,CWnd *>::`scalar deleting destructor', COMDAT
; _this$ = ecx
  00000	55		 push	 ebp
  00001	8b ec		 mov	 ebp, esp
  00003	51		 push	 ecx
  00004	c7 45 fc cc cc
	cc cc		 mov	 DWORD PTR [ebp-4], -858993460 ; ccccccccH
  0000b	89 4d fc	 mov	 DWORD PTR _this$[ebp], ecx
  0000e	8b 4d fc	 mov	 ecx, DWORD PTR _this$[ebp]
  00011	e8 00 00 00 00	 call	 ??1?$pair@UTAB_ITEM@@PAVCWnd@@@std@@QAE@XZ
  00016	8b 45 08	 mov	 eax, DWORD PTR ___flags$[ebp]
  00019	83 e0 01	 and	 eax, 1
  0001c	74 0c		 je	 SHORT $L196402
  0001e	8b 4d fc	 mov	 ecx, DWORD PTR _this$[ebp]
  00021	51		 push	 ecx
  00022	e8 00 00 00 00	 call	 ??3@YAXPAX@Z		; operator delete
  00027	83 c4 04	 add	 esp, 4
$L196402:
  0002a	8b 45 fc	 mov	 eax, DWORD PTR _this$[ebp]
  0002d	83 c4 04	 add	 esp, 4
  00030	3b ec		 cmp	 ebp, esp
  00032	e8 00 00 00 00	 call	 __RTC_CheckEsp
  00037	8b e5		 mov	 esp, ebp
  00039	5d		 pop	 ebp
  0003a	c2 04 00	 ret	 4
??_G?$pair@UTAB_ITEM@@PAVCWnd@@@std@@QAEPAXI@Z ENDP	; std::pair<TAB_ITEM,CWnd *>::`scalar deleting destructor'
; Function compile flags: /Odt /RTCsu
; File d:\program files (x86)\microsoft visual studio .net 2003\vc7\include\stdexcept
_TEXT	ENDS
;	COMDAT ?what@logic_error@std@@UBEPBDXZ
_TEXT	SEGMENT
_this$ = -4						; size = 4
?what@logic_error@std@@UBEPBDXZ PROC NEAR		; std::logic_error::what, COMDAT
; _this$ = ecx

; 26   : 		{	// return pointer to message string

  00000	55		 push	 ebp
  00001	8b ec		 mov	 ebp, esp
  00003	51		 push	 ecx
  00004	56		 push	 esi
  00005	c7 45 fc cc cc
	cc cc		 mov	 DWORD PTR [ebp-4], -858993460 ; ccccccccH
  0000c	89 4d fc	 mov	 DWORD PTR _this$[ebp], ecx

; 27   : 		return (_Str.c_str());

  0000f	8b 4d fc	 mov	 ecx, DWORD PTR _this$[ebp]
  00012	83 c1 0c	 add	 ecx, 12			; 0000000cH
  00015	8b f4		 mov	 esi, esp
  00017	ff 15 00 00 00
	00		 call	 DWORD PTR __imp_?c_str@?$basic_string@DU?$char_traits@D@std@@V?$allocator@D@2@@std@@QBEPBDXZ
  0001d	3b f4		 cmp	 esi, esp
  0001f	e8 00 00 00 00	 call	 __RTC_CheckEsp

; 28   : 		}

  00024	5e		 pop	 esi
  00025	83 c4 04	 add	 esp, 4
  00028	3b ec		 cmp	 ebp, esp
  0002a	e8 00 00 00 00	 call	 __RTC_CheckEsp
  0002f	8b e5		 mov	 esp, ebp
  00031	5d		 pop	 ebp
  00032	c3		 ret	 0
?what@logic_error@std@@UBEPBDXZ ENDP			; std::logic_error::what
_TEXT	ENDS
PUBLIC	??0logic_error@std@@QAE@ABV?$basic_string@DU?$char_traits@D@std@@V?$allocator@D@2@@1@@Z ; std::logic_error::logic_error
; Function compile flags: /Odt /RTCsu
;	COMDAT ??0length_error@std@@QAE@ABV?$basic_string@DU?$char_traits@D@std@@V?$allocator@D@2@@1@@Z
_TEXT	SEGMENT
_this$ = -4						; size = 4
__Message$ = 8						; size = 4
??0length_error@std@@QAE@ABV?$basic_string@DU?$char_traits@D@std@@V?$allocator@D@2@@1@@Z PROC NEAR ; std::length_error::length_error, COMDAT
; _this$ = ecx

; 95   : 		{	// construct from message string

  00000	55		 push	 ebp
  00001	8b ec		 mov	 ebp, esp
  00003	51		 push	 ecx
  00004	c7 45 fc cc cc
	cc cc		 mov	 DWORD PTR [ebp-4], -858993460 ; ccccccccH
  0000b	89 4d fc	 mov	 DWORD PTR _this$[ebp], ecx
  0000e	8b 45 08	 mov	 eax, DWORD PTR __Message$[ebp]
  00011	50		 push	 eax
  00012	8b 4d fc	 mov	 ecx, DWORD PTR _this$[ebp]
  00015	e8 00 00 00 00	 call	 ??0logic_error@std@@QAE@ABV?$basic_string@DU?$char_traits@D@std@@V?$allocator@D@2@@1@@Z ; std::logic_error::logic_error
  0001a	8b 4d fc	 mov	 ecx, DWORD PTR _this$[ebp]
  0001d	c7 01 00 00 00
	00		 mov	 DWORD PTR [ecx], OFFSET FLAT:??_7length_error@std@@6B@

; 96   : 		}

  00023	8b 45 fc	 mov	 eax, DWORD PTR _this$[ebp]
  00026	83 c4 04	 add	 esp, 4
  00029	3b ec		 cmp	 ebp, esp
  0002b	e8 00 00 00 00	 call	 __RTC_CheckEsp
  00030	8b e5		 mov	 esp, ebp
  00032	5d		 pop	 ebp
  00033	c2 04 00	 ret	 4
??0length_error@std@@QAE@ABV?$basic_string@DU?$char_traits@D@std@@V?$allocator@D@2@@1@@Z ENDP ; std::length_error::length_error
_TEXT	ENDS
PUBLIC	??_7logic_error@std@@6B@			; std::logic_error::`vftable'
PUBLIC	??_Glogic_error@std@@UAEPAXI@Z			; std::logic_error::`scalar deleting destructor'
PUBLIC	??_R4logic_error@std@@6B@			; std::logic_error::`RTTI Complete Object Locator'
PUBLIC	??_R3logic_error@std@@8				; std::logic_error::`RTTI Class Hierarchy Descriptor'
PUBLIC	??_R2logic_error@std@@8				; std::logic_error::`RTTI Base Class Array'
EXTRN	__imp_??0exception@@QAE@XZ:NEAR
EXTRN	__imp_??1exception@@UAE@XZ:NEAR
EXTRN	??_Elogic_error@std@@UAEPAXI@Z:NEAR		; std::logic_error::`vector deleting destructor'
;	COMDAT xdata$x
xdata$x	SEGMENT
$T197720 DD	0ffffffffH
	DD	FLAT:$L197715
$T197718 DD	019930520H
	DD	01H
	DD	FLAT:$T197720
	DD	2 DUP(00H)
	DD	2 DUP(00H)
xdata$x	ENDS
;	COMDAT ??_7logic_error@std@@6B@
CONST	SEGMENT
??_7logic_error@std@@6B@ DD FLAT:??_R4logic_error@std@@6B@ ; std::logic_error::`vftable'
	DD	FLAT:??_Elogic_error@std@@UAEPAXI@Z
	DD	FLAT:?what@logic_error@std@@UBEPBDXZ
CONST	ENDS
;	COMDAT ??_R4logic_error@std@@6B@
rdata$r	SEGMENT
??_R4logic_error@std@@6B@ DD 00H			; std::logic_error::`RTTI Complete Object Locator'
	DD	00H
	DD	00H
	DD	FLAT:??_R0?AVlogic_error@std@@@8
	DD	FLAT:??_R3logic_error@std@@8
rdata$r	ENDS
;	COMDAT ??_R3logic_error@std@@8
rdata$r	SEGMENT
??_R3logic_error@std@@8 DD 00H				; std::logic_error::`RTTI Class Hierarchy Descriptor'
	DD	00H
	DD	02H
	DD	FLAT:??_R2logic_error@std@@8
rdata$r	ENDS
;	COMDAT ??_R2logic_error@std@@8
rdata$r	SEGMENT
??_R2logic_error@std@@8 DD FLAT:??_R1A@?0A@A@logic_error@std@@8 ; std::logic_error::`RTTI Base Class Array'
	DD	FLAT:??_R1A@?0A@A@exception@@8
; Function compile flags: /Odt /RTCsu
rdata$r	ENDS
;	COMDAT ??0logic_error@std@@QAE@ABV?$basic_string@DU?$char_traits@D@std@@V?$allocator@D@2@@1@@Z
_TEXT	SEGMENT
_this$ = -16						; size = 4
__$EHRec$ = -12						; size = 12
__Message$ = 8						; size = 4
??0logic_error@std@@QAE@ABV?$basic_string@DU?$char_traits@D@std@@V?$allocator@D@2@@1@@Z PROC NEAR ; std::logic_error::logic_error, COMDAT
; _this$ = ecx

; 19   : 		{	// construct from message string

  00000	55		 push	 ebp
  00001	8b ec		 mov	 ebp, esp
  00003	6a ff		 push	 -1
  00005	68 00 00 00 00	 push	 __ehhandler$??0logic_error@std@@QAE@ABV?$basic_string@DU?$char_traits@D@std@@V?$allocator@D@2@@1@@Z
  0000a	64 a1 00 00 00
	00		 mov	 eax, DWORD PTR fs:__except_list
  00010	50		 push	 eax
  00011	64 89 25 00 00
	00 00		 mov	 DWORD PTR fs:__except_list, esp
  00018	51		 push	 ecx
  00019	56		 push	 esi
  0001a	c7 45 f0 cc cc
	cc cc		 mov	 DWORD PTR [ebp-16], -858993460 ; ccccccccH
  00021	89 4d f0	 mov	 DWORD PTR _this$[ebp], ecx
  00024	8b f4		 mov	 esi, esp
  00026	8b 4d f0	 mov	 ecx, DWORD PTR _this$[ebp]
  00029	ff 15 00 00 00
	00		 call	 DWORD PTR __imp_??0exception@@QAE@XZ
  0002f	3b f4		 cmp	 esi, esp
  00031	e8 00 00 00 00	 call	 __RTC_CheckEsp
  00036	c7 45 fc 00 00
	00 00		 mov	 DWORD PTR __$EHRec$[ebp+8], 0
  0003d	8b 45 f0	 mov	 eax, DWORD PTR _this$[ebp]
  00040	c7 00 00 00 00
	00		 mov	 DWORD PTR [eax], OFFSET FLAT:??_7logic_error@std@@6B@
  00046	8b f4		 mov	 esi, esp
  00048	8b 4d 08	 mov	 ecx, DWORD PTR __Message$[ebp]
  0004b	51		 push	 ecx
  0004c	8b 4d f0	 mov	 ecx, DWORD PTR _this$[ebp]
  0004f	83 c1 0c	 add	 ecx, 12			; 0000000cH
  00052	ff 15 00 00 00
	00		 call	 DWORD PTR __imp_??0?$basic_string@DU?$char_traits@D@std@@V?$allocator@D@2@@std@@QAE@ABV01@@Z
  00058	3b f4		 cmp	 esi, esp
  0005a	e8 00 00 00 00	 call	 __RTC_CheckEsp

; 20   : 		}

  0005f	c7 45 fc ff ff
	ff ff		 mov	 DWORD PTR __$EHRec$[ebp+8], -1
  00066	8b 45 f0	 mov	 eax, DWORD PTR _this$[ebp]
  00069	8b 4d f4	 mov	 ecx, DWORD PTR __$EHRec$[ebp]
  0006c	64 89 0d 00 00
	00 00		 mov	 DWORD PTR fs:__except_list, ecx
  00073	5e		 pop	 esi
  00074	83 c4 10	 add	 esp, 16			; 00000010H
  00077	3b ec		 cmp	 ebp, esp
  00079	e8 00 00 00 00	 call	 __RTC_CheckEsp
  0007e	8b e5		 mov	 esp, ebp
  00080	5d		 pop	 ebp
  00081	c2 04 00	 ret	 4
_TEXT	ENDS
;	COMDAT text$x
text$x	SEGMENT
$L197715:
  00000	8b f4		 mov	 esi, esp
  00002	8b 4d f0	 mov	 ecx, DWORD PTR _this$[ebp]
  00005	ff 15 00 00 00
	00		 call	 DWORD PTR __imp_??1exception@@UAE@XZ
  0000b	3b f4		 cmp	 esi, esp
  0000d	e9 00 00 00 00	 jmp	 __RTC_CheckEsp
__ehhandler$??0logic_error@std@@QAE@ABV?$basic_string@DU?$char_traits@D@std@@V?$allocator@D@2@@1@@Z:
  00012	b8 00 00 00 00	 mov	 eax, OFFSET FLAT:$T197718
  00017	e9 00 00 00 00	 jmp	 ___CxxFrameHandler
text$x	ENDS
??0logic_error@std@@QAE@ABV?$basic_string@DU?$char_traits@D@std@@V?$allocator@D@2@@1@@Z ENDP ; std::logic_error::logic_error
PUBLIC	??1logic_error@std@@UAE@XZ			; std::logic_error::~logic_error
; Function compile flags: /Odt /RTCsu
;	COMDAT ??_Glogic_error@std@@UAEPAXI@Z
_TEXT	SEGMENT
_this$ = -4						; size = 4
___flags$ = 8						; size = 4
??_Glogic_error@std@@UAEPAXI@Z PROC NEAR		; std::logic_error::`scalar deleting destructor', COMDAT
; _this$ = ecx
  00000	55		 push	 ebp
  00001	8b ec		 mov	 ebp, esp
  00003	51		 push	 ecx
  00004	c7 45 fc cc cc
	cc cc		 mov	 DWORD PTR [ebp-4], -858993460 ; ccccccccH
  0000b	89 4d fc	 mov	 DWORD PTR _this$[ebp], ecx
  0000e	8b 4d fc	 mov	 ecx, DWORD PTR _this$[ebp]
  00011	e8 00 00 00 00	 call	 ??1logic_error@std@@UAE@XZ ; std::logic_error::~logic_error
  00016	8b 45 08	 mov	 eax, DWORD PTR ___flags$[ebp]
  00019	83 e0 01	 and	 eax, 1
  0001c	74 0c		 je	 SHORT $L91647
  0001e	8b 4d fc	 mov	 ecx, DWORD PTR _this$[ebp]
  00021	51		 push	 ecx
  00022	e8 00 00 00 00	 call	 ??3@YAXPAX@Z		; operator delete
  00027	83 c4 04	 add	 esp, 4
$L91647:
  0002a	8b 45 fc	 mov	 eax, DWORD PTR _this$[ebp]
  0002d	83 c4 04	 add	 esp, 4
  00030	3b ec		 cmp	 ebp, esp
  00032	e8 00 00 00 00	 call	 __RTC_CheckEsp
  00037	8b e5		 mov	 esp, ebp
  00039	5d		 pop	 ebp
  0003a	c2 04 00	 ret	 4
??_Glogic_error@std@@UAEPAXI@Z ENDP			; std::logic_error::`scalar deleting destructor'
_TEXT	ENDS
;	COMDAT xdata$x
xdata$x	SEGMENT
$T197730 DD	0ffffffffH
	DD	FLAT:$L197725
$T197728 DD	019930520H
	DD	01H
	DD	FLAT:$T197730
	DD	2 DUP(00H)
	DD	2 DUP(00H)
; Function compile flags: /Odt /RTCsu
xdata$x	ENDS
;	COMDAT ??1logic_error@std@@UAE@XZ
_TEXT	SEGMENT
_this$ = -16						; size = 4
__$EHRec$ = -12						; size = 12
??1logic_error@std@@UAE@XZ PROC NEAR			; std::logic_error::~logic_error, COMDAT
; _this$ = ecx

; 23   : 		{}	// destroy the object

  00000	55		 push	 ebp
  00001	8b ec		 mov	 ebp, esp
  00003	6a ff		 push	 -1
  00005	68 00 00 00 00	 push	 __ehhandler$??1logic_error@std@@UAE@XZ
  0000a	64 a1 00 00 00
	00		 mov	 eax, DWORD PTR fs:__except_list
  00010	50		 push	 eax
  00011	64 89 25 00 00
	00 00		 mov	 DWORD PTR fs:__except_list, esp
  00018	51		 push	 ecx
  00019	56		 push	 esi
  0001a	c7 45 f0 cc cc
	cc cc		 mov	 DWORD PTR [ebp-16], -858993460 ; ccccccccH
  00021	89 4d f0	 mov	 DWORD PTR _this$[ebp], ecx
  00024	8b 45 f0	 mov	 eax, DWORD PTR _this$[ebp]
  00027	c7 00 00 00 00
	00		 mov	 DWORD PTR [eax], OFFSET FLAT:??_7logic_error@std@@6B@
  0002d	c7 45 fc 00 00
	00 00		 mov	 DWORD PTR __$EHRec$[ebp+8], 0
  00034	8b 4d f0	 mov	 ecx, DWORD PTR _this$[ebp]
  00037	83 c1 0c	 add	 ecx, 12			; 0000000cH
  0003a	8b f4		 mov	 esi, esp
  0003c	ff 15 00 00 00
	00		 call	 DWORD PTR __imp_??1?$basic_string@DU?$char_traits@D@std@@V?$allocator@D@2@@std@@QAE@XZ
  00042	3b f4		 cmp	 esi, esp
  00044	e8 00 00 00 00	 call	 __RTC_CheckEsp
  00049	c7 45 fc ff ff
	ff ff		 mov	 DWORD PTR __$EHRec$[ebp+8], -1
  00050	8b f4		 mov	 esi, esp
  00052	8b 4d f0	 mov	 ecx, DWORD PTR _this$[ebp]
  00055	ff 15 00 00 00
	00		 call	 DWORD PTR __imp_??1exception@@UAE@XZ
  0005b	3b f4		 cmp	 esi, esp
  0005d	e8 00 00 00 00	 call	 __RTC_CheckEsp
  00062	8b 4d f4	 mov	 ecx, DWORD PTR __$EHRec$[ebp]
  00065	64 89 0d 00 00
	00 00		 mov	 DWORD PTR fs:__except_list, ecx
  0006c	5e		 pop	 esi
  0006d	83 c4 10	 add	 esp, 16			; 00000010H
  00070	3b ec		 cmp	 ebp, esp
  00072	e8 00 00 00 00	 call	 __RTC_CheckEsp
  00077	8b e5		 mov	 esp, ebp
  00079	5d		 pop	 ebp
  0007a	c3		 ret	 0
_TEXT	ENDS
;	COMDAT text$x
text$x	SEGMENT
$L197725:
  00000	8b f4		 mov	 esi, esp
  00002	8b 4d f0	 mov	 ecx, DWORD PTR _this$[ebp]
  00005	ff 15 00 00 00
	00		 call	 DWORD PTR __imp_??1exception@@UAE@XZ
  0000b	3b f4		 cmp	 esi, esp
  0000d	e9 00 00 00 00	 jmp	 __RTC_CheckEsp
__ehhandler$??1logic_error@std@@UAE@XZ:
  00012	b8 00 00 00 00	 mov	 eax, OFFSET FLAT:$T197728
  00017	e9 00 00 00 00	 jmp	 ___CxxFrameHandler
text$x	ENDS
??1logic_error@std@@UAE@XZ ENDP				; std::logic_error::~logic_error
; Function compile flags: /Odt /RTCsu
;	COMDAT ??1length_error@std@@UAE@XZ
_TEXT	SEGMENT
_this$ = -4						; size = 4
??1length_error@std@@UAE@XZ PROC NEAR			; std::length_error::~length_error, COMDAT
; _this$ = ecx

; 99   : 		{}	// destroy the object

  00000	55		 push	 ebp
  00001	8b ec		 mov	 ebp, esp
  00003	51		 push	 ecx
  00004	c7 45 fc cc cc
	cc cc		 mov	 DWORD PTR [ebp-4], -858993460 ; ccccccccH
  0000b	89 4d fc	 mov	 DWORD PTR _this$[ebp], ecx
  0000e	8b 45 fc	 mov	 eax, DWORD PTR _this$[ebp]
  00011	c7 00 00 00 00
	00		 mov	 DWORD PTR [eax], OFFSET FLAT:??_7length_error@std@@6B@
  00017	8b 4d fc	 mov	 ecx, DWORD PTR _this$[ebp]
  0001a	e8 00 00 00 00	 call	 ??1logic_error@std@@UAE@XZ ; std::logic_error::~logic_error
  0001f	83 c4 04	 add	 esp, 4
  00022	3b ec		 cmp	 ebp, esp
  00024	e8 00 00 00 00	 call	 __RTC_CheckEsp
  00029	8b e5		 mov	 esp, ebp
  0002b	5d		 pop	 ebp
  0002c	c3		 ret	 0
??1length_error@std@@UAE@XZ ENDP			; std::length_error::~length_error
; Function compile flags: /Odt /RTCsu
_TEXT	ENDS
;	COMDAT ??_Glength_error@std@@UAEPAXI@Z
_TEXT	SEGMENT
_this$ = -4						; size = 4
___flags$ = 8						; size = 4
??_Glength_error@std@@UAEPAXI@Z PROC NEAR		; std::length_error::`scalar deleting destructor', COMDAT
; _this$ = ecx
  00000	55		 push	 ebp
  00001	8b ec		 mov	 ebp, esp
  00003	51		 push	 ecx
  00004	c7 45 fc cc cc
	cc cc		 mov	 DWORD PTR [ebp-4], -858993460 ; ccccccccH
  0000b	89 4d fc	 mov	 DWORD PTR _this$[ebp], ecx
  0000e	8b 4d fc	 mov	 ecx, DWORD PTR _this$[ebp]
  00011	e8 00 00 00 00	 call	 ??1length_error@std@@UAE@XZ ; std::length_error::~length_error
  00016	8b 45 08	 mov	 eax, DWORD PTR ___flags$[ebp]
  00019	83 e0 01	 and	 eax, 1
  0001c	74 0c		 je	 SHORT $L91713
  0001e	8b 4d fc	 mov	 ecx, DWORD PTR _this$[ebp]
  00021	51		 push	 ecx
  00022	e8 00 00 00 00	 call	 ??3@YAXPAX@Z		; operator delete
  00027	83 c4 04	 add	 esp, 4
$L91713:
  0002a	8b 45 fc	 mov	 eax, DWORD PTR _this$[ebp]
  0002d	83 c4 04	 add	 esp, 4
  00030	3b ec		 cmp	 ebp, esp
  00032	e8 00 00 00 00	 call	 __RTC_CheckEsp
  00037	8b e5		 mov	 esp, ebp
  00039	5d		 pop	 ebp
  0003a	c2 04 00	 ret	 4
??_Glength_error@std@@UAEPAXI@Z ENDP			; std::length_error::`scalar deleting destructor'
; Function compile flags: /Odt /RTCsu
; File d:\boxgit\playbox\playbox\dev\prj\playbox\src\core\imessageobserver.h
_TEXT	ENDS
;	COMDAT ??1IMessageObserver@@UAE@XZ
_TEXT	SEGMENT
_this$ = -4						; size = 4
??1IMessageObserver@@UAE@XZ PROC NEAR			; IMessageObserver::~IMessageObserver, COMDAT
; _this$ = ecx

; 16   : 	virtual ~IMessageObserver(){};

  00000	55		 push	 ebp
  00001	8b ec		 mov	 ebp, esp
  00003	51		 push	 ecx
  00004	c7 45 fc cc cc
	cc cc		 mov	 DWORD PTR [ebp-4], -858993460 ; ccccccccH
  0000b	89 4d fc	 mov	 DWORD PTR _this$[ebp], ecx
  0000e	8b 45 fc	 mov	 eax, DWORD PTR _this$[ebp]
  00011	c7 00 00 00 00
	00		 mov	 DWORD PTR [eax], OFFSET FLAT:??_7IMessageObserver@@6B@
  00017	8b e5		 mov	 esp, ebp
  00019	5d		 pop	 ebp
  0001a	c3		 ret	 0
??1IMessageObserver@@UAE@XZ ENDP			; IMessageObserver::~IMessageObserver
; Function compile flags: /Odt /RTCsu
_TEXT	ENDS
;	COMDAT ??_GIMessageObserver@@UAEPAXI@Z
_TEXT	SEGMENT
_this$ = -4						; size = 4
___flags$ = 8						; size = 4
??_GIMessageObserver@@UAEPAXI@Z PROC NEAR		; IMessageObserver::`scalar deleting destructor', COMDAT
; _this$ = ecx
  00000	55		 push	 ebp
  00001	8b ec		 mov	 ebp, esp
  00003	51		 push	 ecx
  00004	c7 45 fc cc cc
	cc cc		 mov	 DWORD PTR [ebp-4], -858993460 ; ccccccccH
  0000b	89 4d fc	 mov	 DWORD PTR _this$[ebp], ecx
  0000e	8b 4d fc	 mov	 ecx, DWORD PTR _this$[ebp]
  00011	e8 00 00 00 00	 call	 ??1IMessageObserver@@UAE@XZ ; IMessageObserver::~IMessageObserver
  00016	8b 45 08	 mov	 eax, DWORD PTR ___flags$[ebp]
  00019	83 e0 01	 and	 eax, 1
  0001c	74 0c		 je	 SHORT $L99513
  0001e	8b 4d fc	 mov	 ecx, DWORD PTR _this$[ebp]
  00021	51		 push	 ecx
  00022	e8 00 00 00 00	 call	 ??3@YAXPAX@Z		; operator delete
  00027	83 c4 04	 add	 esp, 4
$L99513:
  0002a	8b 45 fc	 mov	 eax, DWORD PTR _this$[ebp]
  0002d	83 c4 04	 add	 esp, 4
  00030	3b ec		 cmp	 ebp, esp
  00032	e8 00 00 00 00	 call	 __RTC_CheckEsp
  00037	8b e5		 mov	 esp, ebp
  00039	5d		 pop	 ebp
  0003a	c2 04 00	 ret	 4
??_GIMessageObserver@@UAEPAXI@Z ENDP			; IMessageObserver::`scalar deleting destructor'
; Function compile flags: /Odt /RTCsu
; File d:\program files (x86)\microsoft visual studio .net 2003\vc7\atlmfc\include\atlalloc.h
_TEXT	ENDS
;	COMDAT ??0?$CAtlSafeAllocBufferManager@VCCRTAllocator@ATL@@@_ATL_SAFE_ALLOCA_IMPL@ATL@@QAE@XZ
_TEXT	SEGMENT
_this$ = -4						; size = 4
??0?$CAtlSafeAllocBufferManager@VCCRTAllocator@ATL@@@_ATL_SAFE_ALLOCA_IMPL@ATL@@QAE@XZ PROC NEAR ; ATL::_ATL_SAFE_ALLOCA_IMPL::CAtlSafeAllocBufferManager<ATL::CCRTAllocator>::CAtlSafeAllocBufferManager<ATL::CCRTAllocator>, COMDAT
; _this$ = ecx

; 373  : 	CAtlSafeAllocBufferManager() : m_pHead(NULL) {};

  00000	55		 push	 ebp
  00001	8b ec		 mov	 ebp, esp
  00003	51		 push	 ecx
  00004	c7 45 fc cc cc
	cc cc		 mov	 DWORD PTR [ebp-4], -858993460 ; ccccccccH
  0000b	89 4d fc	 mov	 DWORD PTR _this$[ebp], ecx
  0000e	8b 45 fc	 mov	 eax, DWORD PTR _this$[ebp]
  00011	c7 00 00 00 00
	00		 mov	 DWORD PTR [eax], 0
  00017	8b 45 fc	 mov	 eax, DWORD PTR _this$[ebp]
  0001a	8b e5		 mov	 esp, ebp
  0001c	5d		 pop	 ebp
  0001d	c3		 ret	 0
??0?$CAtlSafeAllocBufferManager@VCCRTAllocator@ATL@@@_ATL_SAFE_ALLOCA_IMPL@ATL@@QAE@XZ ENDP ; ATL::_ATL_SAFE_ALLOCA_IMPL::CAtlSafeAllocBufferManager<ATL::CCRTAllocator>::CAtlSafeAllocBufferManager<ATL::CCRTAllocator>
_TEXT	ENDS
PUBLIC	?GetData@CAtlSafeAllocBufferNode@?$CAtlSafeAllocBufferManager@VCCRTAllocator@ATL@@@_ATL_SAFE_ALLOCA_IMPL@ATL@@QAEPAXXZ ; ATL::_ATL_SAFE_ALLOCA_IMPL::CAtlSafeAllocBufferManager<ATL::CCRTAllocator>::CAtlSafeAllocBufferNode::GetData
PUBLIC	?Allocate@CCRTAllocator@ATL@@SAPAXI@Z		; ATL::CCRTAllocator::Allocate
; Function compile flags: /Odt /RTCsu
;	COMDAT ?Allocate@?$CAtlSafeAllocBufferManager@VCCRTAllocator@ATL@@@_ATL_SAFE_ALLOCA_IMPL@ATL@@QAEPAXK@Z
_TEXT	SEGMENT
_p$ = -8						; size = 4
_this$ = -4						; size = 4
_nRequestedSize$ = 8					; size = 4
?Allocate@?$CAtlSafeAllocBufferManager@VCCRTAllocator@ATL@@@_ATL_SAFE_ALLOCA_IMPL@ATL@@QAEPAXK@Z PROC NEAR ; ATL::_ATL_SAFE_ALLOCA_IMPL::CAtlSafeAllocBufferManager<ATL::CCRTAllocator>::Allocate, COMDAT
; _this$ = ecx

; 375  : 	{

  00000	55		 push	 ebp
  00001	8b ec		 mov	 ebp, esp
  00003	83 ec 08	 sub	 esp, 8
  00006	c7 45 f8 cc cc
	cc cc		 mov	 DWORD PTR [ebp-8], -858993460 ; ccccccccH
  0000d	c7 45 fc cc cc
	cc cc		 mov	 DWORD PTR [ebp-4], -858993460 ; ccccccccH
  00014	89 4d fc	 mov	 DWORD PTR _this$[ebp], ecx

; 376  : 		CAtlSafeAllocBufferNode *p = (CAtlSafeAllocBufferNode*)Allocator::Allocate(nRequestedSize + sizeof(CAtlSafeAllocBufferNode));

  00017	8b 45 08	 mov	 eax, DWORD PTR _nRequestedSize$[ebp]
  0001a	83 c0 08	 add	 eax, 8
  0001d	50		 push	 eax
  0001e	e8 00 00 00 00	 call	 ?Allocate@CCRTAllocator@ATL@@SAPAXI@Z ; ATL::CCRTAllocator::Allocate
  00023	83 c4 04	 add	 esp, 4
  00026	89 45 f8	 mov	 DWORD PTR _p$[ebp], eax

; 377  : 		if (p == NULL)

  00029	83 7d f8 00	 cmp	 DWORD PTR _p$[ebp], 0
  0002d	75 04		 jne	 SHORT $L181568

; 378  : 			return NULL;

  0002f	33 c0		 xor	 eax, eax
  00031	eb 1a		 jmp	 SHORT $L181555
$L181568:

; 379  : 		
; 380  : 		// Add buffer to the list
; 381  : 		p->m_pNext = m_pHead;

  00033	8b 4d f8	 mov	 ecx, DWORD PTR _p$[ebp]
  00036	8b 55 fc	 mov	 edx, DWORD PTR _this$[ebp]
  00039	8b 02		 mov	 eax, DWORD PTR [edx]
  0003b	89 01		 mov	 DWORD PTR [ecx], eax

; 382  : 		m_pHead = p;

  0003d	8b 4d fc	 mov	 ecx, DWORD PTR _this$[ebp]
  00040	8b 55 f8	 mov	 edx, DWORD PTR _p$[ebp]
  00043	89 11		 mov	 DWORD PTR [ecx], edx

; 383  : 		
; 384  : 		return p->GetData();

  00045	8b 4d f8	 mov	 ecx, DWORD PTR _p$[ebp]
  00048	e8 00 00 00 00	 call	 ?GetData@CAtlSafeAllocBufferNode@?$CAtlSafeAllocBufferManager@VCCRTAllocator@ATL@@@_ATL_SAFE_ALLOCA_IMPL@ATL@@QAEPAXXZ ; ATL::_ATL_SAFE_ALLOCA_IMPL::CAtlSafeAllocBufferManager<ATL::CCRTAllocator>::CAtlSafeAllocBufferNode::GetData
$L181555:

; 385  : 	}

  0004d	83 c4 08	 add	 esp, 8
  00050	3b ec		 cmp	 ebp, esp
  00052	e8 00 00 00 00	 call	 __RTC_CheckEsp
  00057	8b e5		 mov	 esp, ebp
  00059	5d		 pop	 ebp
  0005a	c2 04 00	 ret	 4
?Allocate@?$CAtlSafeAllocBufferManager@VCCRTAllocator@ATL@@@_ATL_SAFE_ALLOCA_IMPL@ATL@@QAEPAXK@Z ENDP ; ATL::_ATL_SAFE_ALLOCA_IMPL::CAtlSafeAllocBufferManager<ATL::CCRTAllocator>::Allocate
_TEXT	ENDS
EXTRN	__imp__malloc:NEAR
; Function compile flags: /Odt /RTCsu
;	COMDAT ?Allocate@CCRTAllocator@ATL@@SAPAXI@Z
_TEXT	SEGMENT
_nBytes$ = 8						; size = 4
?Allocate@CCRTAllocator@ATL@@SAPAXI@Z PROC NEAR		; ATL::CCRTAllocator::Allocate, COMDAT

; 30   : 	{

  00000	55		 push	 ebp
  00001	8b ec		 mov	 ebp, esp
  00003	56		 push	 esi

; 31   : 		return malloc(nBytes);

  00004	8b f4		 mov	 esi, esp
  00006	8b 45 08	 mov	 eax, DWORD PTR _nBytes$[ebp]
  00009	50		 push	 eax
  0000a	ff 15 00 00 00
	00		 call	 DWORD PTR __imp__malloc
  00010	83 c4 04	 add	 esp, 4
  00013	3b f4		 cmp	 esi, esp
  00015	e8 00 00 00 00	 call	 __RTC_CheckEsp

; 32   : 	}

  0001a	5e		 pop	 esi
  0001b	3b ec		 cmp	 ebp, esp
  0001d	e8 00 00 00 00	 call	 __RTC_CheckEsp
  00022	5d		 pop	 ebp
  00023	c3		 ret	 0
?Allocate@CCRTAllocator@ATL@@SAPAXI@Z ENDP		; ATL::CCRTAllocator::Allocate
_TEXT	ENDS
PUBLIC	?Free@CCRTAllocator@ATL@@SAXPAX@Z		; ATL::CCRTAllocator::Free
; Function compile flags: /Odt /RTCsu
;	COMDAT ??1?$CAtlSafeAllocBufferManager@VCCRTAllocator@ATL@@@_ATL_SAFE_ALLOCA_IMPL@ATL@@QAE@XZ
_TEXT	SEGMENT
_p$181574 = -8						; size = 4
_this$ = -4						; size = 4
??1?$CAtlSafeAllocBufferManager@VCCRTAllocator@ATL@@@_ATL_SAFE_ALLOCA_IMPL@ATL@@QAE@XZ PROC NEAR ; ATL::_ATL_SAFE_ALLOCA_IMPL::CAtlSafeAllocBufferManager<ATL::CCRTAllocator>::~CAtlSafeAllocBufferManager<ATL::CCRTAllocator>, COMDAT
; _this$ = ecx

; 387  : 	{

  00000	55		 push	 ebp
  00001	8b ec		 mov	 ebp, esp
  00003	83 ec 08	 sub	 esp, 8
  00006	c7 45 f8 cc cc
	cc cc		 mov	 DWORD PTR [ebp-8], -858993460 ; ccccccccH
  0000d	c7 45 fc cc cc
	cc cc		 mov	 DWORD PTR [ebp-4], -858993460 ; ccccccccH
  00014	89 4d fc	 mov	 DWORD PTR _this$[ebp], ecx
$L181572:

; 388  : 		// Walk the list and free the buffers
; 389  : 		while (m_pHead != NULL)

  00017	8b 45 fc	 mov	 eax, DWORD PTR _this$[ebp]
  0001a	83 38 00	 cmp	 DWORD PTR [eax], 0
  0001d	74 22		 je	 SHORT $L181570

; 390  : 		{
; 391  : 			CAtlSafeAllocBufferNode* p = m_pHead;

  0001f	8b 4d fc	 mov	 ecx, DWORD PTR _this$[ebp]
  00022	8b 11		 mov	 edx, DWORD PTR [ecx]
  00024	89 55 f8	 mov	 DWORD PTR _p$181574[ebp], edx

; 392  : 			m_pHead = m_pHead->m_pNext;

  00027	8b 45 fc	 mov	 eax, DWORD PTR _this$[ebp]
  0002a	8b 08		 mov	 ecx, DWORD PTR [eax]
  0002c	8b 55 fc	 mov	 edx, DWORD PTR _this$[ebp]
  0002f	8b 01		 mov	 eax, DWORD PTR [ecx]
  00031	89 02		 mov	 DWORD PTR [edx], eax

; 393  : 			Allocator::Free(p);

  00033	8b 4d f8	 mov	 ecx, DWORD PTR _p$181574[ebp]
  00036	51		 push	 ecx
  00037	e8 00 00 00 00	 call	 ?Free@CCRTAllocator@ATL@@SAXPAX@Z ; ATL::CCRTAllocator::Free
  0003c	83 c4 04	 add	 esp, 4

; 394  : 		}

  0003f	eb d6		 jmp	 SHORT $L181572
$L181570:

; 395  : 	}

  00041	83 c4 08	 add	 esp, 8
  00044	3b ec		 cmp	 ebp, esp
  00046	e8 00 00 00 00	 call	 __RTC_CheckEsp
  0004b	8b e5		 mov	 esp, ebp
  0004d	5d		 pop	 ebp
  0004e	c3		 ret	 0
??1?$CAtlSafeAllocBufferManager@VCCRTAllocator@ATL@@@_ATL_SAFE_ALLOCA_IMPL@ATL@@QAE@XZ ENDP ; ATL::_ATL_SAFE_ALLOCA_IMPL::CAtlSafeAllocBufferManager<ATL::CCRTAllocator>::~CAtlSafeAllocBufferManager<ATL::CCRTAllocator>
_TEXT	ENDS
EXTRN	__imp__free:NEAR
; Function compile flags: /Odt /RTCsu
;	COMDAT ?Free@CCRTAllocator@ATL@@SAXPAX@Z
_TEXT	SEGMENT
_p$ = 8							; size = 4
?Free@CCRTAllocator@ATL@@SAXPAX@Z PROC NEAR		; ATL::CCRTAllocator::Free, COMDAT

; 35   : 	{

  00000	55		 push	 ebp
  00001	8b ec		 mov	 ebp, esp
  00003	56		 push	 esi

; 36   : 		free(p);

  00004	8b f4		 mov	 esi, esp
  00006	8b 45 08	 mov	 eax, DWORD PTR _p$[ebp]
  00009	50		 push	 eax
  0000a	ff 15 00 00 00
	00		 call	 DWORD PTR __imp__free
  00010	83 c4 04	 add	 esp, 4
  00013	3b f4		 cmp	 esi, esp
  00015	e8 00 00 00 00	 call	 __RTC_CheckEsp

; 37   : 	}

  0001a	5e		 pop	 esi
  0001b	3b ec		 cmp	 ebp, esp
  0001d	e8 00 00 00 00	 call	 __RTC_CheckEsp
  00022	5d		 pop	 ebp
  00023	c3		 ret	 0
?Free@CCRTAllocator@ATL@@SAXPAX@Z ENDP			; ATL::CCRTAllocator::Free
; Function compile flags: /Odt /RTCsu
_TEXT	ENDS
;	COMDAT ??0?$CTempBuffer@D$0IA@VCCRTAllocator@ATL@@@ATL@@QAE@XZ
_TEXT	SEGMENT
_this$ = -4						; size = 4
??0?$CTempBuffer@D$0IA@VCCRTAllocator@ATL@@@ATL@@QAE@XZ PROC NEAR ; ATL::CTempBuffer<char,128,ATL::CCRTAllocator>::CTempBuffer<char,128,ATL::CCRTAllocator>, COMDAT
; _this$ = ecx

; 216  : 	{

  00000	55		 push	 ebp
  00001	8b ec		 mov	 ebp, esp
  00003	51		 push	 ecx
  00004	c7 45 fc cc cc
	cc cc		 mov	 DWORD PTR [ebp-4], -858993460 ; ccccccccH
  0000b	89 4d fc	 mov	 DWORD PTR _this$[ebp], ecx
  0000e	8b 45 fc	 mov	 eax, DWORD PTR _this$[ebp]
  00011	c7 00 00 00 00
	00		 mov	 DWORD PTR [eax], 0

; 217  : 	}

  00017	8b 45 fc	 mov	 eax, DWORD PTR _this$[ebp]
  0001a	8b e5		 mov	 esp, ebp
  0001c	5d		 pop	 ebp
  0001d	c3		 ret	 0
??0?$CTempBuffer@D$0IA@VCCRTAllocator@ATL@@@ATL@@QAE@XZ ENDP ; ATL::CTempBuffer<char,128,ATL::CCRTAllocator>::CTempBuffer<char,128,ATL::CCRTAllocator>
_TEXT	ENDS
PUBLIC	?FreeHeap@?$CTempBuffer@D$0IA@VCCRTAllocator@ATL@@@ATL@@AAEXXZ ; ATL::CTempBuffer<char,128,ATL::CCRTAllocator>::FreeHeap
; Function compile flags: /Odt /RTCsu
;	COMDAT ??1?$CTempBuffer@D$0IA@VCCRTAllocator@ATL@@@ATL@@QAE@XZ
_TEXT	SEGMENT
_this$ = -4						; size = 4
??1?$CTempBuffer@D$0IA@VCCRTAllocator@ATL@@@ATL@@QAE@XZ PROC NEAR ; ATL::CTempBuffer<char,128,ATL::CCRTAllocator>::~CTempBuffer<char,128,ATL::CCRTAllocator>, COMDAT
; _this$ = ecx

; 225  : 	{

  00000	55		 push	 ebp
  00001	8b ec		 mov	 ebp, esp
  00003	51		 push	 ecx
  00004	c7 45 fc cc cc
	cc cc		 mov	 DWORD PTR [ebp-4], -858993460 ; ccccccccH
  0000b	89 4d fc	 mov	 DWORD PTR _this$[ebp], ecx

; 226  : 		if( m_p != reinterpret_cast< T* >( m_abFixedBuffer ) )

  0000e	8b 45 fc	 mov	 eax, DWORD PTR _this$[ebp]
  00011	83 c0 04	 add	 eax, 4
  00014	8b 4d fc	 mov	 ecx, DWORD PTR _this$[ebp]
  00017	39 01		 cmp	 DWORD PTR [ecx], eax
  00019	74 08		 je	 SHORT $L181578

; 227  : 		{
; 228  : 			FreeHeap();

  0001b	8b 4d fc	 mov	 ecx, DWORD PTR _this$[ebp]
  0001e	e8 00 00 00 00	 call	 ?FreeHeap@?$CTempBuffer@D$0IA@VCCRTAllocator@ATL@@@ATL@@AAEXXZ ; ATL::CTempBuffer<char,128,ATL::CCRTAllocator>::FreeHeap
$L181578:

; 229  : 		}
; 230  : 	}

  00023	83 c4 04	 add	 esp, 4
  00026	3b ec		 cmp	 ebp, esp
  00028	e8 00 00 00 00	 call	 __RTC_CheckEsp
  0002d	8b e5		 mov	 esp, ebp
  0002f	5d		 pop	 ebp
  00030	c3		 ret	 0
??1?$CTempBuffer@D$0IA@VCCRTAllocator@ATL@@@ATL@@QAE@XZ ENDP ; ATL::CTempBuffer<char,128,ATL::CCRTAllocator>::~CTempBuffer<char,128,ATL::CCRTAllocator>
; Function compile flags: /Odt /RTCsu
_TEXT	ENDS
;	COMDAT ??B?$CTempBuffer@D$0IA@VCCRTAllocator@ATL@@@ATL@@QBEPADXZ
_TEXT	SEGMENT
_this$ = -4						; size = 4
??B?$CTempBuffer@D$0IA@VCCRTAllocator@ATL@@@ATL@@QBEPADXZ PROC NEAR ; ATL::CTempBuffer<char,128,ATL::CCRTAllocator>::operator char *, COMDAT
; _this$ = ecx

; 233  : 	{

  00000	55		 push	 ebp
  00001	8b ec		 mov	 ebp, esp
  00003	51		 push	 ecx
  00004	c7 45 fc cc cc
	cc cc		 mov	 DWORD PTR [ebp-4], -858993460 ; ccccccccH
  0000b	89 4d fc	 mov	 DWORD PTR _this$[ebp], ecx

; 234  : 		return( m_p );

  0000e	8b 45 fc	 mov	 eax, DWORD PTR _this$[ebp]
  00011	8b 00		 mov	 eax, DWORD PTR [eax]

; 235  : 	}

  00013	8b e5		 mov	 esp, ebp
  00015	5d		 pop	 ebp
  00016	c3		 ret	 0
??B?$CTempBuffer@D$0IA@VCCRTAllocator@ATL@@@ATL@@QBEPADXZ ENDP ; ATL::CTempBuffer<char,128,ATL::CCRTAllocator>::operator char *
_TEXT	ENDS
PUBLIC	?AllocateBytes@?$CTempBuffer@D$0IA@VCCRTAllocator@ATL@@@ATL@@QAEPADI@Z ; ATL::CTempBuffer<char,128,ATL::CCRTAllocator>::AllocateBytes
; Function compile flags: /Odt /RTCsu
;	COMDAT ?Allocate@?$CTempBuffer@D$0IA@VCCRTAllocator@ATL@@@ATL@@QAEPADI@Z
_TEXT	SEGMENT
_this$ = -4						; size = 4
_nElements$ = 8						; size = 4
?Allocate@?$CTempBuffer@D$0IA@VCCRTAllocator@ATL@@@ATL@@QAEPADI@Z PROC NEAR ; ATL::CTempBuffer<char,128,ATL::CCRTAllocator>::Allocate, COMDAT
; _this$ = ecx

; 243  : 	{

  00000	55		 push	 ebp
  00001	8b ec		 mov	 ebp, esp
  00003	51		 push	 ecx
  00004	c7 45 fc cc cc
	cc cc		 mov	 DWORD PTR [ebp-4], -858993460 ; ccccccccH
  0000b	89 4d fc	 mov	 DWORD PTR _this$[ebp], ecx

; 244  : 		return( AllocateBytes( nElements*sizeof( T ) ) );

  0000e	8b 45 08	 mov	 eax, DWORD PTR _nElements$[ebp]
  00011	50		 push	 eax
  00012	8b 4d fc	 mov	 ecx, DWORD PTR _this$[ebp]
  00015	e8 00 00 00 00	 call	 ?AllocateBytes@?$CTempBuffer@D$0IA@VCCRTAllocator@ATL@@@ATL@@QAEPADI@Z ; ATL::CTempBuffer<char,128,ATL::CCRTAllocator>::AllocateBytes

; 245  : 	}

  0001a	83 c4 04	 add	 esp, 4
  0001d	3b ec		 cmp	 ebp, esp
  0001f	e8 00 00 00 00	 call	 __RTC_CheckEsp
  00024	8b e5		 mov	 esp, ebp
  00026	5d		 pop	 ebp
  00027	c2 04 00	 ret	 4
?Allocate@?$CTempBuffer@D$0IA@VCCRTAllocator@ATL@@@ATL@@QAEPADI@Z ENDP ; ATL::CTempBuffer<char,128,ATL::CCRTAllocator>::Allocate
_TEXT	ENDS
PUBLIC	?Init@?$CW2AEX@$0IA@@ATL@@AAEXPB_WI@Z		; ATL::CW2AEX<128>::Init
; Function compile flags: /Odt /RTCsu
; File d:\program files (x86)\microsoft visual studio .net 2003\vc7\atlmfc\include\atlconv.h
;	COMDAT ??0?$CW2AEX@$0IA@@ATL@@QAE@PB_W@Z
_TEXT	SEGMENT
_this$ = -4						; size = 4
_psz$ = 8						; size = 4
??0?$CW2AEX@$0IA@@ATL@@QAE@PB_W@Z PROC NEAR		; ATL::CW2AEX<128>::CW2AEX<128>, COMDAT
; _this$ = ecx

; 419  : 	{

  00000	55		 push	 ebp
  00001	8b ec		 mov	 ebp, esp
  00003	51		 push	 ecx
  00004	c7 45 fc cc cc
	cc cc		 mov	 DWORD PTR [ebp-4], -858993460 ; ccccccccH
  0000b	89 4d fc	 mov	 DWORD PTR _this$[ebp], ecx
  0000e	8b 45 fc	 mov	 eax, DWORD PTR _this$[ebp]
  00011	83 c0 04	 add	 eax, 4
  00014	8b 4d fc	 mov	 ecx, DWORD PTR _this$[ebp]
  00017	89 01		 mov	 DWORD PTR [ecx], eax

; 420  : 		Init( psz, _AtlGetConversionACP() );

  00019	e8 00 00 00 00	 call	 ?_AtlGetConversionACP@ATL@@YGIXZ ; ATL::_AtlGetConversionACP
  0001e	50		 push	 eax
  0001f	8b 55 08	 mov	 edx, DWORD PTR _psz$[ebp]
  00022	52		 push	 edx
  00023	8b 4d fc	 mov	 ecx, DWORD PTR _this$[ebp]
  00026	e8 00 00 00 00	 call	 ?Init@?$CW2AEX@$0IA@@ATL@@AAEXPB_WI@Z ; ATL::CW2AEX<128>::Init

; 421  : 	}

  0002b	8b 45 fc	 mov	 eax, DWORD PTR _this$[ebp]
  0002e	83 c4 04	 add	 esp, 4
  00031	3b ec		 cmp	 ebp, esp
  00033	e8 00 00 00 00	 call	 __RTC_CheckEsp
  00038	8b e5		 mov	 esp, ebp
  0003a	5d		 pop	 ebp
  0003b	c2 04 00	 ret	 4
??0?$CW2AEX@$0IA@@ATL@@QAE@PB_W@Z ENDP			; ATL::CW2AEX<128>::CW2AEX<128>
; Function compile flags: /Odt /RTCsu
_TEXT	ENDS
;	COMDAT ??1?$CW2AEX@$0IA@@ATL@@QAE@XZ
_TEXT	SEGMENT
_this$ = -4						; size = 4
??1?$CW2AEX@$0IA@@ATL@@QAE@XZ PROC NEAR			; ATL::CW2AEX<128>::~CW2AEX<128>, COMDAT
; _this$ = ecx

; 428  : 	{

  00000	55		 push	 ebp
  00001	8b ec		 mov	 ebp, esp
  00003	51		 push	 ecx
  00004	56		 push	 esi
  00005	c7 45 fc cc cc
	cc cc		 mov	 DWORD PTR [ebp-4], -858993460 ; ccccccccH
  0000c	89 4d fc	 mov	 DWORD PTR _this$[ebp], ecx

; 429  : 		if( m_psz != m_szBuffer )

  0000f	8b 45 fc	 mov	 eax, DWORD PTR _this$[ebp]
  00012	83 c0 04	 add	 eax, 4
  00015	8b 4d fc	 mov	 ecx, DWORD PTR _this$[ebp]
  00018	39 01		 cmp	 DWORD PTR [ecx], eax
  0001a	74 18		 je	 SHORT $L181589

; 430  : 		{
; 431  : 			free( m_psz );

  0001c	8b f4		 mov	 esi, esp
  0001e	8b 55 fc	 mov	 edx, DWORD PTR _this$[ebp]
  00021	8b 02		 mov	 eax, DWORD PTR [edx]
  00023	50		 push	 eax
  00024	ff 15 00 00 00
	00		 call	 DWORD PTR __imp__free
  0002a	83 c4 04	 add	 esp, 4
  0002d	3b f4		 cmp	 esi, esp
  0002f	e8 00 00 00 00	 call	 __RTC_CheckEsp
$L181589:

; 432  : 		}
; 433  : 	}

  00034	5e		 pop	 esi
  00035	83 c4 04	 add	 esp, 4
  00038	3b ec		 cmp	 ebp, esp
  0003a	e8 00 00 00 00	 call	 __RTC_CheckEsp
  0003f	8b e5		 mov	 esp, ebp
  00041	5d		 pop	 ebp
  00042	c3		 ret	 0
??1?$CW2AEX@$0IA@@ATL@@QAE@XZ ENDP			; ATL::CW2AEX<128>::~CW2AEX<128>
; Function compile flags: /Odt /RTCsu
_TEXT	ENDS
;	COMDAT ??B?$CW2AEX@$0IA@@ATL@@QBEPADXZ
_TEXT	SEGMENT
_this$ = -4						; size = 4
??B?$CW2AEX@$0IA@@ATL@@QBEPADXZ PROC NEAR		; ATL::CW2AEX<128>::operator char *, COMDAT
; _this$ = ecx

; 436  : 	{

  00000	55		 push	 ebp
  00001	8b ec		 mov	 ebp, esp
  00003	51		 push	 ecx
  00004	c7 45 fc cc cc
	cc cc		 mov	 DWORD PTR [ebp-4], -858993460 ; ccccccccH
  0000b	89 4d fc	 mov	 DWORD PTR _this$[ebp], ecx

; 437  : 		return( m_psz );

  0000e	8b 45 fc	 mov	 eax, DWORD PTR _this$[ebp]
  00011	8b 00		 mov	 eax, DWORD PTR [eax]

; 438  : 	}

  00013	8b e5		 mov	 esp, ebp
  00015	5d		 pop	 ebp
  00016	c3		 ret	 0
??B?$CW2AEX@$0IA@@ATL@@QBEPADXZ ENDP			; ATL::CW2AEX<128>::operator char *
_TEXT	ENDS
PUBLIC	??_C@_08GPODJFIN@m_p?5?$DN?$DN?50?$AA@		; `string'
PUBLIC	??_C@_0FH@BOCPFCEM@D?3?2Program?5Files?5?$CIx86?$CJ?2Microsoft@ ; `string'
PUBLIC	?AllocateHeap@?$CTempBuffer@D$0IA@VCCRTAllocator@ATL@@@ATL@@AAEXI@Z ; ATL::CTempBuffer<char,128,ATL::CCRTAllocator>::AllocateHeap
;	COMDAT ??_C@_08GPODJFIN@m_p?5?$DN?$DN?50?$AA@
; File d:\program files (x86)\microsoft visual studio .net 2003\vc7\atlmfc\include\atlalloc.h
CONST	SEGMENT
??_C@_08GPODJFIN@m_p?5?$DN?$DN?50?$AA@ DB 'm_p == 0', 00H ; `string'
CONST	ENDS
;	COMDAT ??_C@_0FH@BOCPFCEM@D?3?2Program?5Files?5?$CIx86?$CJ?2Microsoft@
CONST	SEGMENT
??_C@_0FH@BOCPFCEM@D?3?2Program?5Files?5?$CIx86?$CJ?2Microsoft@ DB 'D:\Pr'
	DB	'ogram Files (x86)\Microsoft Visual Studio .NET 2003\Vc7\atlmf'
	DB	'c\include\atlalloc.h', 00H			; `string'
; Function compile flags: /Odt /RTCsu
CONST	ENDS
;	COMDAT ?AllocateBytes@?$CTempBuffer@D$0IA@VCCRTAllocator@ATL@@@ATL@@QAEPADI@Z
_TEXT	SEGMENT
_this$ = -4						; size = 4
_nBytes$ = 8						; size = 4
?AllocateBytes@?$CTempBuffer@D$0IA@VCCRTAllocator@ATL@@@ATL@@QAEPADI@Z PROC NEAR ; ATL::CTempBuffer<char,128,ATL::CCRTAllocator>::AllocateBytes, COMDAT
; _this$ = ecx

; 276  : 	{

  00000	55		 push	 ebp
  00001	8b ec		 mov	 ebp, esp
  00003	51		 push	 ecx
  00004	56		 push	 esi
  00005	c7 45 fc cc cc
	cc cc		 mov	 DWORD PTR [ebp-4], -858993460 ; ccccccccH
  0000c	89 4d fc	 mov	 DWORD PTR _this$[ebp], ecx

; 277  : 		ATLASSERT( m_p == NULL );

  0000f	8b 45 fc	 mov	 eax, DWORD PTR _this$[ebp]
  00012	83 38 00	 cmp	 DWORD PTR [eax], 0
  00015	74 2b		 je	 SHORT $L197751
  00017	8b f4		 mov	 esi, esp
  00019	68 00 00 00 00	 push	 OFFSET FLAT:??_C@_08GPODJFIN@m_p?5?$DN?$DN?50?$AA@
  0001e	6a 00		 push	 0
  00020	68 15 01 00 00	 push	 277			; 00000115H
  00025	68 00 00 00 00	 push	 OFFSET FLAT:??_C@_0FH@BOCPFCEM@D?3?2Program?5Files?5?$CIx86?$CJ?2Microsoft@
  0002a	6a 02		 push	 2
  0002c	ff 15 00 00 00
	00		 call	 DWORD PTR __imp___CrtDbgReport
  00032	83 c4 14	 add	 esp, 20			; 00000014H
  00035	3b f4		 cmp	 esi, esp
  00037	e8 00 00 00 00	 call	 __RTC_CheckEsp
  0003c	83 f8 01	 cmp	 eax, 1
  0003f	75 01		 jne	 SHORT $L197751
  00041	cc		 int	 3
$L197751:

; 278  : 		if( nBytes > t_nFixedBytes )

  00042	81 7d 08 80 00
	00 00		 cmp	 DWORD PTR _nBytes$[ebp], 128 ; 00000080H
  00049	76 0e		 jbe	 SHORT $L183346

; 279  : 		{
; 280  : 			AllocateHeap( nBytes );

  0004b	8b 55 08	 mov	 edx, DWORD PTR _nBytes$[ebp]
  0004e	52		 push	 edx
  0004f	8b 4d fc	 mov	 ecx, DWORD PTR _this$[ebp]
  00052	e8 00 00 00 00	 call	 ?AllocateHeap@?$CTempBuffer@D$0IA@VCCRTAllocator@ATL@@@ATL@@AAEXI@Z ; ATL::CTempBuffer<char,128,ATL::CCRTAllocator>::AllocateHeap

; 281  : 		}
; 282  : 		else

  00057	eb 0b		 jmp	 SHORT $L183347
$L183346:

; 283  : 		{
; 284  : 			m_p = reinterpret_cast< T* >( m_abFixedBuffer );

  00059	8b 45 fc	 mov	 eax, DWORD PTR _this$[ebp]
  0005c	83 c0 04	 add	 eax, 4
  0005f	8b 4d fc	 mov	 ecx, DWORD PTR _this$[ebp]
  00062	89 01		 mov	 DWORD PTR [ecx], eax
$L183347:

; 285  : 		}
; 286  : 
; 287  : 		return( m_p );

  00064	8b 55 fc	 mov	 edx, DWORD PTR _this$[ebp]
  00067	8b 02		 mov	 eax, DWORD PTR [edx]

; 288  : 	}

  00069	5e		 pop	 esi
  0006a	83 c4 04	 add	 esp, 4
  0006d	3b ec		 cmp	 ebp, esp
  0006f	e8 00 00 00 00	 call	 __RTC_CheckEsp
  00074	8b e5		 mov	 esp, ebp
  00076	5d		 pop	 ebp
  00077	c2 04 00	 ret	 4
?AllocateBytes@?$CTempBuffer@D$0IA@VCCRTAllocator@ATL@@@ATL@@QAEPADI@Z ENDP ; ATL::CTempBuffer<char,128,ATL::CCRTAllocator>::AllocateBytes
; Function compile flags: /Odt /RTCsu
_TEXT	ENDS
;	COMDAT ?FreeHeap@?$CTempBuffer@D$0IA@VCCRTAllocator@ATL@@@ATL@@AAEXXZ
_TEXT	SEGMENT
_this$ = -4						; size = 4
?FreeHeap@?$CTempBuffer@D$0IA@VCCRTAllocator@ATL@@@ATL@@AAEXXZ PROC NEAR ; ATL::CTempBuffer<char,128,ATL::CCRTAllocator>::FreeHeap, COMDAT
; _this$ = ecx

; 312  : 	{

  00000	55		 push	 ebp
  00001	8b ec		 mov	 ebp, esp
  00003	51		 push	 ecx
  00004	c7 45 fc cc cc
	cc cc		 mov	 DWORD PTR [ebp-4], -858993460 ; ccccccccH
  0000b	89 4d fc	 mov	 DWORD PTR _this$[ebp], ecx

; 313  : 		Allocator::Free( m_p );

  0000e	8b 45 fc	 mov	 eax, DWORD PTR _this$[ebp]
  00011	8b 08		 mov	 ecx, DWORD PTR [eax]
  00013	51		 push	 ecx
  00014	e8 00 00 00 00	 call	 ?Free@CCRTAllocator@ATL@@SAXPAX@Z ; ATL::CCRTAllocator::Free
  00019	83 c4 04	 add	 esp, 4

; 314  : 	}

  0001c	83 c4 04	 add	 esp, 4
  0001f	3b ec		 cmp	 ebp, esp
  00021	e8 00 00 00 00	 call	 __RTC_CheckEsp
  00026	8b e5		 mov	 esp, ebp
  00028	5d		 pop	 ebp
  00029	c3		 ret	 0
?FreeHeap@?$CTempBuffer@D$0IA@VCCRTAllocator@ATL@@@ATL@@AAEXXZ ENDP ; ATL::CTempBuffer<char,128,ATL::CCRTAllocator>::FreeHeap
_TEXT	ENDS
PUBLIC	?AtlThrowLastWin32@ATL@@YGXXZ			; ATL::AtlThrowLastWin32
; Function compile flags: /Odt /RTCsu
; File d:\program files (x86)\microsoft visual studio .net 2003\vc7\atlmfc\include\atlconv.h
;	COMDAT ?Init@?$CW2AEX@$0IA@@ATL@@AAEXPB_WI@Z
_TEXT	SEGMENT
_nLengthA$ = -12					; size = 4
_nLengthW$ = -8						; size = 4
_this$ = -4						; size = 4
_psz$ = 8						; size = 4
_nCodePage$ = 12					; size = 4
?Init@?$CW2AEX@$0IA@@ATL@@AAEXPB_WI@Z PROC NEAR		; ATL::CW2AEX<128>::Init, COMDAT
; _this$ = ecx

; 442  : 	{

  00000	55		 push	 ebp
  00001	8b ec		 mov	 ebp, esp
  00003	83 ec 0c	 sub	 esp, 12			; 0000000cH
  00006	56		 push	 esi
  00007	c7 45 f4 cc cc
	cc cc		 mov	 DWORD PTR [ebp-12], -858993460 ; ccccccccH
  0000e	c7 45 f8 cc cc
	cc cc		 mov	 DWORD PTR [ebp-8], -858993460 ; ccccccccH
  00015	c7 45 fc cc cc
	cc cc		 mov	 DWORD PTR [ebp-4], -858993460 ; ccccccccH
  0001c	89 4d fc	 mov	 DWORD PTR _this$[ebp], ecx

; 443  : 		if (psz == NULL)

  0001f	83 7d 08 00	 cmp	 DWORD PTR _psz$[ebp], 0
  00023	75 0e		 jne	 SHORT $L183353

; 444  : 		{
; 445  : 			m_psz = NULL;

  00025	8b 45 fc	 mov	 eax, DWORD PTR _this$[ebp]
  00028	c7 00 00 00 00
	00		 mov	 DWORD PTR [eax], 0

; 446  : 			return;

  0002e	e9 8b 00 00 00	 jmp	 $L197753
$L183353:

; 447  : 		}
; 448  : 		int nLengthW = lstrlenW( psz )+1;

  00033	8b f4		 mov	 esi, esp
  00035	8b 4d 08	 mov	 ecx, DWORD PTR _psz$[ebp]
  00038	51		 push	 ecx
  00039	ff 15 00 00 00
	00		 call	 DWORD PTR __imp__lstrlenW@4
  0003f	3b f4		 cmp	 esi, esp
  00041	e8 00 00 00 00	 call	 __RTC_CheckEsp
  00046	83 c0 01	 add	 eax, 1
  00049	89 45 f8	 mov	 DWORD PTR _nLengthW$[ebp], eax

; 449  : 		int nLengthA = nLengthW*2;

  0004c	8b 55 f8	 mov	 edx, DWORD PTR _nLengthW$[ebp]
  0004f	d1 e2		 shl	 edx, 1
  00051	89 55 f4	 mov	 DWORD PTR _nLengthA$[ebp], edx

; 450  : 
; 451  : 		if( nLengthA > t_nBufferLength )

  00054	81 7d f4 80 00
	00 00		 cmp	 DWORD PTR _nLengthA$[ebp], 128 ; 00000080H
  0005b	7e 2d		 jle	 SHORT $L183356

; 452  : 		{
; 453  : 			m_psz = static_cast< LPSTR >( malloc( nLengthA*sizeof( char ) ) );

  0005d	8b f4		 mov	 esi, esp
  0005f	8b 45 f4	 mov	 eax, DWORD PTR _nLengthA$[ebp]
  00062	50		 push	 eax
  00063	ff 15 00 00 00
	00		 call	 DWORD PTR __imp__malloc
  00069	83 c4 04	 add	 esp, 4
  0006c	3b f4		 cmp	 esi, esp
  0006e	e8 00 00 00 00	 call	 __RTC_CheckEsp
  00073	8b 4d fc	 mov	 ecx, DWORD PTR _this$[ebp]
  00076	89 01		 mov	 DWORD PTR [ecx], eax

; 454  : 			if (m_psz == NULL)

  00078	8b 55 fc	 mov	 edx, DWORD PTR _this$[ebp]
  0007b	83 3a 00	 cmp	 DWORD PTR [edx], 0
  0007e	75 0a		 jne	 SHORT $L183356

; 455  : 			{
; 456  : 				AtlThrow( E_OUTOFMEMORY );

  00080	68 0e 00 07 80	 push	 -2147024882		; 8007000eH
  00085	e8 00 00 00 00	 call	 ?AtlThrow@ATL@@YGXJ@Z	; ATL::AtlThrow
$L183356:

; 457  : 			}
; 458  : 		}
; 459  : 
; 460  : 		if (::WideCharToMultiByte( nCodePage, 0, psz, nLengthW, m_psz, nLengthA, NULL, NULL ) == 0)

  0008a	8b f4		 mov	 esi, esp
  0008c	6a 00		 push	 0
  0008e	6a 00		 push	 0
  00090	8b 45 f4	 mov	 eax, DWORD PTR _nLengthA$[ebp]
  00093	50		 push	 eax
  00094	8b 4d fc	 mov	 ecx, DWORD PTR _this$[ebp]
  00097	8b 11		 mov	 edx, DWORD PTR [ecx]
  00099	52		 push	 edx
  0009a	8b 45 f8	 mov	 eax, DWORD PTR _nLengthW$[ebp]
  0009d	50		 push	 eax
  0009e	8b 4d 08	 mov	 ecx, DWORD PTR _psz$[ebp]
  000a1	51		 push	 ecx
  000a2	6a 00		 push	 0
  000a4	8b 55 0c	 mov	 edx, DWORD PTR _nCodePage$[ebp]
  000a7	52		 push	 edx
  000a8	ff 15 00 00 00
	00		 call	 DWORD PTR __imp__WideCharToMultiByte@32
  000ae	3b f4		 cmp	 esi, esp
  000b0	e8 00 00 00 00	 call	 __RTC_CheckEsp
  000b5	85 c0		 test	 eax, eax
  000b7	75 05		 jne	 SHORT $L197753

; 461  : 		{
; 462  : 			AtlThrowLastWin32();

  000b9	e8 00 00 00 00	 call	 ?AtlThrowLastWin32@ATL@@YGXXZ ; ATL::AtlThrowLastWin32
$L197753:

; 463  : 		}
; 464  : 	}

  000be	5e		 pop	 esi
  000bf	83 c4 0c	 add	 esp, 12			; 0000000cH
  000c2	3b ec		 cmp	 ebp, esp
  000c4	e8 00 00 00 00	 call	 __RTC_CheckEsp
  000c9	8b e5		 mov	 esp, ebp
  000cb	5d		 pop	 ebp
  000cc	c2 08 00	 ret	 8
?Init@?$CW2AEX@$0IA@@ATL@@AAEXPB_WI@Z ENDP		; ATL::CW2AEX<128>::Init
_TEXT	ENDS
EXTRN	__imp__GetLastError@0:NEAR
; Function compile flags: /Odt /RTCsu
; File d:\program files (x86)\microsoft visual studio .net 2003\vc7\atlmfc\include\atlexcept.h
;	COMDAT ?AtlThrowLastWin32@ATL@@YGXXZ
_TEXT	SEGMENT
tv69 = -8						; size = 4
_dwError$ = -4						; size = 4
?AtlThrowLastWin32@ATL@@YGXXZ PROC NEAR			; ATL::AtlThrowLastWin32, COMDAT

; 80   : {

  00000	55		 push	 ebp
  00001	8b ec		 mov	 ebp, esp
  00003	83 ec 08	 sub	 esp, 8
  00006	56		 push	 esi
  00007	c7 45 f8 cc cc
	cc cc		 mov	 DWORD PTR [ebp-8], -858993460 ; ccccccccH
  0000e	c7 45 fc cc cc
	cc cc		 mov	 DWORD PTR [ebp-4], -858993460 ; ccccccccH

; 81   : 	DWORD dwError = ::GetLastError();

  00015	8b f4		 mov	 esi, esp
  00017	ff 15 00 00 00
	00		 call	 DWORD PTR __imp__GetLastError@0
  0001d	3b f4		 cmp	 esi, esp
  0001f	e8 00 00 00 00	 call	 __RTC_CheckEsp
  00024	89 45 fc	 mov	 DWORD PTR _dwError$[ebp], eax

; 82   : 	AtlThrow( HRESULT_FROM_WIN32( dwError ) );

  00027	83 7d fc 00	 cmp	 DWORD PTR _dwError$[ebp], 0
  0002b	7f 08		 jg	 SHORT $L197755
  0002d	8b 45 fc	 mov	 eax, DWORD PTR _dwError$[ebp]
  00030	89 45 f8	 mov	 DWORD PTR tv69[ebp], eax
  00033	eb 18		 jmp	 SHORT $L197756
$L197755:
  00035	8b 4d fc	 mov	 ecx, DWORD PTR _dwError$[ebp]
  00038	81 e1 ff ff 00
	00		 and	 ecx, 65535		; 0000ffffH
  0003e	81 c9 00 00 07
	00		 or	 ecx, 458752		; 00070000H
  00044	81 c9 00 00 00
	80		 or	 ecx, -2147483648	; 80000000H
  0004a	89 4d f8	 mov	 DWORD PTR tv69[ebp], ecx
$L197756:
  0004d	8b 55 f8	 mov	 edx, DWORD PTR tv69[ebp]
  00050	52		 push	 edx
  00051	e8 00 00 00 00	 call	 ?AtlThrow@ATL@@YGXJ@Z	; ATL::AtlThrow
$L197754:

; 83   : }

  00056	5e		 pop	 esi
  00057	83 c4 08	 add	 esp, 8
  0005a	3b ec		 cmp	 ebp, esp
  0005c	e8 00 00 00 00	 call	 __RTC_CheckEsp
  00061	8b e5		 mov	 esp, ebp
  00063	5d		 pop	 ebp
  00064	c3		 ret	 0
?AtlThrowLastWin32@ATL@@YGXXZ ENDP			; ATL::AtlThrowLastWin32
; Function compile flags: /Odt /RTCsu
; File d:\program files (x86)\microsoft visual studio .net 2003\vc7\atlmfc\include\atlalloc.h
_TEXT	ENDS
;	COMDAT ?GetData@CAtlSafeAllocBufferNode@?$CAtlSafeAllocBufferManager@VCCRTAllocator@ATL@@@_ATL_SAFE_ALLOCA_IMPL@ATL@@QAEPAXXZ
_TEXT	SEGMENT
_this$ = -4						; size = 4
?GetData@CAtlSafeAllocBufferNode@?$CAtlSafeAllocBufferManager@VCCRTAllocator@ATL@@@_ATL_SAFE_ALLOCA_IMPL@ATL@@QAEPAXXZ PROC NEAR ; ATL::_ATL_SAFE_ALLOCA_IMPL::CAtlSafeAllocBufferManager<ATL::CCRTAllocator>::CAtlSafeAllocBufferNode::GetData, COMDAT
; _this$ = ecx

; 365  : 		{

  00000	55		 push	 ebp
  00001	8b ec		 mov	 ebp, esp
  00003	51		 push	 ecx
  00004	c7 45 fc cc cc
	cc cc		 mov	 DWORD PTR [ebp-4], -858993460 ; ccccccccH
  0000b	89 4d fc	 mov	 DWORD PTR _this$[ebp], ecx

; 366  : 			return (this + 1);

  0000e	8b 45 fc	 mov	 eax, DWORD PTR _this$[ebp]
  00011	83 c0 08	 add	 eax, 8

; 367  : 		}

  00014	8b e5		 mov	 esp, ebp
  00016	5d		 pop	 ebp
  00017	c3		 ret	 0
?GetData@CAtlSafeAllocBufferNode@?$CAtlSafeAllocBufferManager@VCCRTAllocator@ATL@@@_ATL_SAFE_ALLOCA_IMPL@ATL@@QAEPAXXZ ENDP ; ATL::_ATL_SAFE_ALLOCA_IMPL::CAtlSafeAllocBufferManager<ATL::CCRTAllocator>::CAtlSafeAllocBufferNode::GetData
; Function compile flags: /Odt /RTCsu
_TEXT	ENDS
;	COMDAT ?AllocateHeap@?$CTempBuffer@D$0IA@VCCRTAllocator@ATL@@@ATL@@AAEXI@Z
_TEXT	SEGMENT
_p$ = -8						; size = 4
_this$ = -4						; size = 4
_nBytes$ = 8						; size = 4
?AllocateHeap@?$CTempBuffer@D$0IA@VCCRTAllocator@ATL@@@ATL@@AAEXI@Z PROC NEAR ; ATL::CTempBuffer<char,128,ATL::CCRTAllocator>::AllocateHeap, COMDAT
; _this$ = ecx

; 292  : 	{

  00000	55		 push	 ebp
  00001	8b ec		 mov	 ebp, esp
  00003	83 ec 08	 sub	 esp, 8
  00006	c7 45 f8 cc cc
	cc cc		 mov	 DWORD PTR [ebp-8], -858993460 ; ccccccccH
  0000d	c7 45 fc cc cc
	cc cc		 mov	 DWORD PTR [ebp-4], -858993460 ; ccccccccH
  00014	89 4d fc	 mov	 DWORD PTR _this$[ebp], ecx

; 293  : 		T* p = static_cast< T* >( Allocator::Allocate( nBytes ) );

  00017	8b 45 08	 mov	 eax, DWORD PTR _nBytes$[ebp]
  0001a	50		 push	 eax
  0001b	e8 00 00 00 00	 call	 ?Allocate@CCRTAllocator@ATL@@SAPAXI@Z ; ATL::CCRTAllocator::Allocate
  00020	83 c4 04	 add	 esp, 4
  00023	89 45 f8	 mov	 DWORD PTR _p$[ebp], eax

; 294  : 		if( p == NULL )

  00026	83 7d f8 00	 cmp	 DWORD PTR _p$[ebp], 0
  0002a	75 0a		 jne	 SHORT $L184832

; 295  : 		{
; 296  : 			AtlThrow( E_OUTOFMEMORY );

  0002c	68 0e 00 07 80	 push	 -2147024882		; 8007000eH
  00031	e8 00 00 00 00	 call	 ?AtlThrow@ATL@@YGXJ@Z	; ATL::AtlThrow
$L184832:

; 297  : 		}
; 298  : 		m_p = p;

  00036	8b 4d fc	 mov	 ecx, DWORD PTR _this$[ebp]
  00039	8b 55 f8	 mov	 edx, DWORD PTR _p$[ebp]
  0003c	89 11		 mov	 DWORD PTR [ecx], edx
$L197758:

; 299  : 	}

  0003e	83 c4 08	 add	 esp, 8
  00041	3b ec		 cmp	 ebp, esp
  00043	e8 00 00 00 00	 call	 __RTC_CheckEsp
  00048	8b e5		 mov	 esp, ebp
  0004a	5d		 pop	 ebp
  0004b	c2 04 00	 ret	 4
?AllocateHeap@?$CTempBuffer@D$0IA@VCCRTAllocator@ATL@@@ATL@@AAEXI@Z ENDP ; ATL::CTempBuffer<char,128,ATL::CCRTAllocator>::AllocateHeap
_TEXT	ENDS
EXTRN	__imp_??0exception@@QAE@ABV0@@Z:NEAR
;	COMDAT xdata$x
xdata$x	SEGMENT
$T197765 DD	0ffffffffH
	DD	FLAT:$L197760
$T197763 DD	019930520H
	DD	01H
	DD	FLAT:$T197765
	DD	2 DUP(00H)
	DD	2 DUP(00H)
; Function compile flags: /Odt /RTCsu
xdata$x	ENDS
;	COMDAT ??0logic_error@std@@QAE@ABV01@@Z
_TEXT	SEGMENT
_this$ = -16						; size = 4
__$EHRec$ = -12						; size = 12
___that$ = 8						; size = 4
??0logic_error@std@@QAE@ABV01@@Z PROC NEAR		; std::logic_error::logic_error, COMDAT
; _this$ = ecx
  00000	55		 push	 ebp
  00001	8b ec		 mov	 ebp, esp
  00003	6a ff		 push	 -1
  00005	68 00 00 00 00	 push	 __ehhandler$??0logic_error@std@@QAE@ABV01@@Z
  0000a	64 a1 00 00 00
	00		 mov	 eax, DWORD PTR fs:__except_list
  00010	50		 push	 eax
  00011	64 89 25 00 00
	00 00		 mov	 DWORD PTR fs:__except_list, esp
  00018	51		 push	 ecx
  00019	56		 push	 esi
  0001a	c7 45 f0 cc cc
	cc cc		 mov	 DWORD PTR [ebp-16], -858993460 ; ccccccccH
  00021	89 4d f0	 mov	 DWORD PTR _this$[ebp], ecx
  00024	8b f4		 mov	 esi, esp
  00026	8b 45 08	 mov	 eax, DWORD PTR ___that$[ebp]
  00029	50		 push	 eax
  0002a	8b 4d f0	 mov	 ecx, DWORD PTR _this$[ebp]
  0002d	ff 15 00 00 00
	00		 call	 DWORD PTR __imp_??0exception@@QAE@ABV0@@Z
  00033	3b f4		 cmp	 esi, esp
  00035	e8 00 00 00 00	 call	 __RTC_CheckEsp
  0003a	c7 45 fc 00 00
	00 00		 mov	 DWORD PTR __$EHRec$[ebp+8], 0
  00041	8b 4d f0	 mov	 ecx, DWORD PTR _this$[ebp]
  00044	c7 01 00 00 00
	00		 mov	 DWORD PTR [ecx], OFFSET FLAT:??_7logic_error@std@@6B@
  0004a	8b 55 08	 mov	 edx, DWORD PTR ___that$[ebp]
  0004d	83 c2 0c	 add	 edx, 12			; 0000000cH
  00050	8b f4		 mov	 esi, esp
  00052	52		 push	 edx
  00053	8b 4d f0	 mov	 ecx, DWORD PTR _this$[ebp]
  00056	83 c1 0c	 add	 ecx, 12			; 0000000cH
  00059	ff 15 00 00 00
	00		 call	 DWORD PTR __imp_??0?$basic_string@DU?$char_traits@D@std@@V?$allocator@D@2@@std@@QAE@ABV01@@Z
  0005f	3b f4		 cmp	 esi, esp
  00061	e8 00 00 00 00	 call	 __RTC_CheckEsp
  00066	c7 45 fc ff ff
	ff ff		 mov	 DWORD PTR __$EHRec$[ebp+8], -1
  0006d	8b 45 f0	 mov	 eax, DWORD PTR _this$[ebp]
  00070	8b 4d f4	 mov	 ecx, DWORD PTR __$EHRec$[ebp]
  00073	64 89 0d 00 00
	00 00		 mov	 DWORD PTR fs:__except_list, ecx
  0007a	5e		 pop	 esi
  0007b	83 c4 10	 add	 esp, 16			; 00000010H
  0007e	3b ec		 cmp	 ebp, esp
  00080	e8 00 00 00 00	 call	 __RTC_CheckEsp
  00085	8b e5		 mov	 esp, ebp
  00087	5d		 pop	 ebp
  00088	c2 04 00	 ret	 4
_TEXT	ENDS
;	COMDAT text$x
text$x	SEGMENT
$L197760:
  00000	8b f4		 mov	 esi, esp
  00002	8b 4d f0	 mov	 ecx, DWORD PTR _this$[ebp]
  00005	ff 15 00 00 00
	00		 call	 DWORD PTR __imp_??1exception@@UAE@XZ
  0000b	3b f4		 cmp	 esi, esp
  0000d	e9 00 00 00 00	 jmp	 __RTC_CheckEsp
__ehhandler$??0logic_error@std@@QAE@ABV01@@Z:
  00012	b8 00 00 00 00	 mov	 eax, OFFSET FLAT:$T197763
  00017	e9 00 00 00 00	 jmp	 ___CxxFrameHandler
text$x	ENDS
??0logic_error@std@@QAE@ABV01@@Z ENDP			; std::logic_error::logic_error
CRT$XCU	SEGMENT
_$S6	DD	FLAT:_$E5
; Function compile flags: /Odt /RTCsu
; File d:\boxgit\playbox\playbox\dev\prj\playbox\src\appconfig\config\configsettingdef.h
CRT$XCU	ENDS
;	COMDAT _$E5
text$yc	SEGMENT
_$E5	PROC NEAR					; COMDAT

; 25   : 	CONF_SETTING_SKIN_IDX,				TYPE_CONFIG_STR,

  00000	55		 push	 ebp
  00001	8b ec		 mov	 ebp, esp
  00003	a1 00 00 00 00	 mov	 eax, DWORD PTR _CONF_SETTING_SKIN_IDX
  00008	a3 00 00 00 00	 mov	 DWORD PTR _CONF_SETTING, eax
  0000d	8b 0d 00 00 00
	00		 mov	 ecx, DWORD PTR _TYPE_CONFIG_STR
  00013	89 0d 04 00 00
	00		 mov	 DWORD PTR _CONF_SETTING+4, ecx

; 26   : 	CONF_SETTING_CONFIG_MAIN_PAGE,		TYPE_CONFIG_STR,

  00019	8b 15 00 00 00
	00		 mov	 edx, DWORD PTR _CONF_SETTING_CONFIG_MAIN_PAGE
  0001f	89 15 08 00 00
	00		 mov	 DWORD PTR _CONF_SETTING+8, edx
  00025	a1 00 00 00 00	 mov	 eax, DWORD PTR _TYPE_CONFIG_STR
  0002a	a3 0c 00 00 00	 mov	 DWORD PTR _CONF_SETTING+12, eax

; 27   : 	CONF_SETTING_CONFIG_PROBLEM_REPORT,	TYPE_CONFIG_STR,

  0002f	8b 0d 00 00 00
	00		 mov	 ecx, DWORD PTR _CONF_SETTING_CONFIG_PROBLEM_REPORT
  00035	89 0d 10 00 00
	00		 mov	 DWORD PTR _CONF_SETTING+16, ecx
  0003b	8b 15 00 00 00
	00		 mov	 edx, DWORD PTR _TYPE_CONFIG_STR
  00041	89 15 14 00 00
	00		 mov	 DWORD PTR _CONF_SETTING+20, edx

; 28   : 	CONF_SETTING_CONFIG_HOME_PAGE,		TYPE_CONFIG_STR,

  00047	a1 00 00 00 00	 mov	 eax, DWORD PTR _CONF_SETTING_CONFIG_HOME_PAGE
  0004c	a3 18 00 00 00	 mov	 DWORD PTR _CONF_SETTING+24, eax
  00051	8b 0d 00 00 00
	00		 mov	 ecx, DWORD PTR _TYPE_CONFIG_STR
  00057	89 0d 1c 00 00
	00		 mov	 DWORD PTR _CONF_SETTING+28, ecx

; 29   : 	CONF_SETTING_CONFIG_IFASKEXIT,		TYPE_CONFIG_BOOL,

  0005d	8b 15 00 00 00
	00		 mov	 edx, DWORD PTR _CONF_SETTING_CONFIG_IFASKEXIT
  00063	89 15 20 00 00
	00		 mov	 DWORD PTR _CONF_SETTING+32, edx
  00069	a1 00 00 00 00	 mov	 eax, DWORD PTR _TYPE_CONFIG_BOOL
  0006e	a3 24 00 00 00	 mov	 DWORD PTR _CONF_SETTING+36, eax

; 30   : 	CONF_SETTING_CONFIG_EXITCHOICE,		TYPE_CONFIG_BOOL,

  00073	8b 0d 00 00 00
	00		 mov	 ecx, DWORD PTR _CONF_SETTING_CONFIG_EXITCHOICE
  00079	89 0d 28 00 00
	00		 mov	 DWORD PTR _CONF_SETTING+40, ecx
  0007f	8b 15 00 00 00
	00		 mov	 edx, DWORD PTR _TYPE_CONFIG_BOOL
  00085	89 15 2c 00 00
	00		 mov	 DWORD PTR _CONF_SETTING+44, edx

; 31   : 	CONF_SETTING_LOGIN_USER_NAME,		TYPE_CONFIG_STR,

  0008b	a1 00 00 00 00	 mov	 eax, DWORD PTR _CONF_SETTING_LOGIN_USER_NAME
  00090	a3 30 00 00 00	 mov	 DWORD PTR _CONF_SETTING+48, eax
  00095	8b 0d 00 00 00
	00		 mov	 ecx, DWORD PTR _TYPE_CONFIG_STR
  0009b	89 0d 34 00 00
	00		 mov	 DWORD PTR _CONF_SETTING+52, ecx

; 32   : 	CONF_SETTING_LOGIN_PASSWORD,		TYPE_CONFIG_STR,

  000a1	8b 15 00 00 00
	00		 mov	 edx, DWORD PTR _CONF_SETTING_LOGIN_PASSWORD
  000a7	89 15 38 00 00
	00		 mov	 DWORD PTR _CONF_SETTING+56, edx
  000ad	a1 00 00 00 00	 mov	 eax, DWORD PTR _TYPE_CONFIG_STR
  000b2	a3 3c 00 00 00	 mov	 DWORD PTR _CONF_SETTING+60, eax

; 33   : 	CONF_SETTING_NETID,					TYPE_CONFIG_STR,

  000b7	8b 0d 00 00 00
	00		 mov	 ecx, DWORD PTR _CONF_SETTING_NETID
  000bd	89 0d 40 00 00
	00		 mov	 DWORD PTR _CONF_SETTING+64, ecx
  000c3	8b 15 00 00 00
	00		 mov	 edx, DWORD PTR _TYPE_CONFIG_STR
  000c9	89 15 44 00 00
	00		 mov	 DWORD PTR _CONF_SETTING+68, edx

; 34   : 	CONF_SETTING_COLOR,					TYPE_CONFIG_INT,

  000cf	a1 00 00 00 00	 mov	 eax, DWORD PTR _CONF_SETTING_COLOR
  000d4	a3 48 00 00 00	 mov	 DWORD PTR _CONF_SETTING+72, eax
  000d9	8b 0d 00 00 00
	00		 mov	 ecx, DWORD PTR _TYPE_CONFIG_INT
  000df	89 0d 4c 00 00
	00		 mov	 DWORD PTR _CONF_SETTING+76, ecx

; 35   : 	CONF_SETTING_LIGHT,					TYPE_CONFIG_INT,

  000e5	8b 15 00 00 00
	00		 mov	 edx, DWORD PTR _CONF_SETTING_LIGHT
  000eb	89 15 50 00 00
	00		 mov	 DWORD PTR _CONF_SETTING+80, edx
  000f1	a1 00 00 00 00	 mov	 eax, DWORD PTR _TYPE_CONFIG_INT
  000f6	a3 54 00 00 00	 mov	 DWORD PTR _CONF_SETTING+84, eax

; 36   : 	CONF_SETTING_COLOR_BTN_INDEX,		TYPE_CONFIG_INT,

  000fb	8b 0d 00 00 00
	00		 mov	 ecx, DWORD PTR _CONF_SETTING_COLOR_BTN_INDEX
  00101	89 0d 58 00 00
	00		 mov	 DWORD PTR _CONF_SETTING+88, ecx
  00107	8b 15 00 00 00
	00		 mov	 edx, DWORD PTR _TYPE_CONFIG_INT
  0010d	89 15 5c 00 00
	00		 mov	 DWORD PTR _CONF_SETTING+92, edx

; 37   : 	CONF_SETTING_COLOR_USER,			TYPE_CONFIG_INT,

  00113	a1 00 00 00 00	 mov	 eax, DWORD PTR _CONF_SETTING_COLOR_USER
  00118	a3 60 00 00 00	 mov	 DWORD PTR _CONF_SETTING+96, eax
  0011d	8b 0d 00 00 00
	00		 mov	 ecx, DWORD PTR _TYPE_CONFIG_INT
  00123	89 0d 64 00 00
	00		 mov	 DWORD PTR _CONF_SETTING+100, ecx

; 38   : 	CONF_SETTING_FIRST_TIME_CHANGESKIN, TYPE_CONFIG_BOOL

  00129	8b 15 00 00 00
	00		 mov	 edx, DWORD PTR _CONF_SETTING_FIRST_TIME_CHANGESKIN
  0012f	89 15 68 00 00
	00		 mov	 DWORD PTR _CONF_SETTING+104, edx

; 39   : };

  00135	a1 00 00 00 00	 mov	 eax, DWORD PTR _TYPE_CONFIG_BOOL
  0013a	a3 6c 00 00 00	 mov	 DWORD PTR _CONF_SETTING+108, eax
  0013f	5d		 pop	 ebp
  00140	c3		 ret	 0
_$E5	ENDP
text$yc	ENDS
_BSS	SEGMENT
_CONF_SETTING DD 01cH DUP (?)
_BSS	ENDS
END
