; Listing generated by Microsoft (R) Optimizing Compiler Version 13.10.3077 

	TITLE	.\src\module\TabMan\TabPageParentWnd.cpp
	.386P
include listing.inc
if @Version gt 510
.model FLAT
else
_TEXT	SEGMENT PARA USE32 PUBLIC 'CODE'
_TEXT	ENDS
_DATA	SEGMENT DWORD USE32 PUBLIC 'DATA'
_DATA	ENDS
CONST	SEGMENT DWORD USE32 PUBLIC 'CONST'
CONST	ENDS
_BSS	SEGMENT DWORD USE32 PUBLIC 'BSS'
_BSS	ENDS
$$SYMBOLS	SEGMENT BYTE USE32 'DEBSYM'
$$SYMBOLS	ENDS
_TLS	SEGMENT DWORD USE32 PUBLIC 'TLS'
_TLS	ENDS
;	COMDAT ??_C@_0EN@IBFBLEEG@D?3?2Program?5Files?5?$CIx86?$CJ?2Microsoft@
CONST	SEGMENT DWORD USE32 PUBLIC 'CONST'
CONST	ENDS
rdata$r	SEGMENT DWORD USE32 PUBLIC 'CONST'
rdata$r	ENDS
xdata$x	SEGMENT DWORD USE32 PUBLIC 'CONST'
xdata$x	ENDS
text$AFX_COL1	SEGMENT PARA USE32 PUBLIC ''
text$AFX_COL1	ENDS
text$yc	SEGMENT PARA USE32 PUBLIC 'CODE'
text$yc	ENDS
CRT$XCA	SEGMENT DWORD USE32 PUBLIC 'DATA'
CRT$XCA	ENDS
CRT$XCU	SEGMENT DWORD USE32 PUBLIC 'DATA'
CRT$XCU	ENDS
CRT$XCL	SEGMENT DWORD USE32 PUBLIC 'DATA'
CRT$XCL	ENDS
CRT$XCC	SEGMENT DWORD USE32 PUBLIC 'DATA'
CRT$XCC	ENDS
CRT$XCZ	SEGMENT DWORD USE32 PUBLIC 'DATA'
CRT$XCZ	ENDS
text$yd	SEGMENT PARA USE32 PUBLIC 'CODE'
text$yd	ENDS
ATL$__m	SEGMENT DWORD USE32 PUBLIC ''
ATL$__m	ENDS
ATL$__z	SEGMENT DWORD USE32 PUBLIC ''
ATL$__z	ENDS
ATL$__a	SEGMENT DWORD USE32 PUBLIC ''
ATL$__a	ENDS
;	COMDAT ?ILayoutChangeOb_LayerChanged@ILayoutChangeObserver@@UAEXV?$basic_string@DU?$char_traits@D@std@@V?$allocator@D@2@@std@@00@Z
_TEXT	SEGMENT PARA USE32 PUBLIC 'CODE'
_TEXT	ENDS
;	COMDAT ?ILayoutChangeOb_PaneChanged@ILayoutChangeObserver@@UAEXV?$basic_string@DU?$char_traits@D@std@@V?$allocator@D@2@@std@@0@Z
_TEXT	SEGMENT PARA USE32 PUBLIC 'CODE'
_TEXT	ENDS
;	COMDAT ?ILayoutChangeOb_SkinChanged@ILayoutChangeObserver@@UAEXV?$basic_string@DU?$char_traits@D@std@@V?$allocator@D@2@@std@@0@Z
_TEXT	SEGMENT PARA USE32 PUBLIC 'CODE'
_TEXT	ENDS
;	COMDAT ?ILayoutChangeOb_ColorChanged@ILayoutChangeObserver@@UAEXXZ
_TEXT	SEGMENT PARA USE32 PUBLIC 'CODE'
_TEXT	ENDS
;	COMDAT ?ILayoutChangeOb_ColorChanging@ILayoutChangeObserver@@UAEXXZ
_TEXT	SEGMENT PARA USE32 PUBLIC 'CODE'
_TEXT	ENDS
;	COMDAT ?ILayoutChangeOb_UpdateLayout@ILayoutChangeObserver@@UAEXPAUHWND__@@@Z
_TEXT	SEGMENT PARA USE32 PUBLIC 'CODE'
_TEXT	ENDS
;	COMDAT ?ILayoutChangeOb_InitFinished@ILayoutChangeObserver@@UAEXXZ
_TEXT	SEGMENT PARA USE32 PUBLIC 'CODE'
_TEXT	ENDS
;	COMDAT ?ILayoutChangeOb_InitBegin@ILayoutChangeObserver@@UAEXXZ
_TEXT	SEGMENT PARA USE32 PUBLIC 'CODE'
_TEXT	ENDS
;	COMDAT ??1IData@@MAE@XZ
_TEXT	SEGMENT PARA USE32 PUBLIC 'CODE'
_TEXT	ENDS
;	COMDAT ?DataAppStart@IData@@UAEXXZ
_TEXT	SEGMENT PARA USE32 PUBLIC 'CODE'
_TEXT	ENDS
;	COMDAT ?DataAppExit@IData@@UAEXXZ
_TEXT	SEGMENT PARA USE32 PUBLIC 'CODE'
_TEXT	ENDS
;	COMDAT ??_GIData@@MAEPAXI@Z
_TEXT	SEGMENT PARA USE32 PUBLIC 'CODE'
_TEXT	ENDS
;	COMDAT ?clear@OneLocalGame@@QAEXXZ
_TEXT	SEGMENT PARA USE32 PUBLIC 'CODE'
_TEXT	ENDS
;	COMDAT ??_GCTabPageParentWnd@@UAEPAXI@Z
_TEXT	SEGMENT PARA USE32 PUBLIC 'CODE'
_TEXT	ENDS
;	COMDAT ??0ILayoutChangeObserver@@QAE@XZ
_TEXT	SEGMENT PARA USE32 PUBLIC 'CODE'
_TEXT	ENDS
;	COMDAT ??1ILayoutChangeObserver@@UAE@XZ
_TEXT	SEGMENT PARA USE32 PUBLIC 'CODE'
_TEXT	ENDS
;	COMDAT ??_GILayoutChangeObserver@@UAEPAXI@Z
_TEXT	SEGMENT PARA USE32 PUBLIC 'CODE'
_TEXT	ENDS
;	COMDAT ??0IMessageObserver@@QAE@XZ
_TEXT	SEGMENT PARA USE32 PUBLIC 'CODE'
_TEXT	ENDS
;	COMDAT ??B?$CComPtrBase@UITypeInfo2@@@ATL@@QBEPAUITypeInfo2@@XZ
_TEXT	SEGMENT PARA USE32 PUBLIC 'CODE'
_TEXT	ENDS
;	COMDAT ?equal@?$istreambuf_iterator@DU?$char_traits@D@std@@@std@@QBE_NABV12@@Z
_TEXT	SEGMENT PARA USE32 PUBLIC 'CODE'
_TEXT	ENDS
;	COMDAT ?equal@?$istreambuf_iterator@_WU?$char_traits@_W@std@@@std@@QBE_NABV12@@Z
_TEXT	SEGMENT PARA USE32 PUBLIC 'CODE'
_TEXT	ENDS
;	COMDAT ??0iterator@?$basic_string@DU?$char_traits@D@std@@V?$allocator@D@2@@std@@QAE@PAD@Z
_TEXT	SEGMENT PARA USE32 PUBLIC 'CODE'
_TEXT	ENDS
;	COMDAT ??0const_iterator@?$basic_string@DU?$char_traits@D@std@@V?$allocator@D@2@@std@@QAE@PBD@Z
_TEXT	SEGMENT PARA USE32 PUBLIC 'CODE'
_TEXT	ENDS
;	COMDAT ??Gconst_iterator@?$basic_string@DU?$char_traits@D@std@@V?$allocator@D@2@@std@@QBEHABV012@@Z
_TEXT	SEGMENT PARA USE32 PUBLIC 'CODE'
_TEXT	ENDS
;	COMDAT ?Unlock@?$CComCritSecLock@VCComCriticalSection@ATL@@@ATL@@QAEXXZ
_TEXT	SEGMENT PARA USE32 PUBLIC 'CODE'
_TEXT	ENDS
;	COMDAT ??$_Maklocstr@D@std@@YAPADPBDPADABU_Cvtvec@@@Z
_TEXT	SEGMENT PARA USE32 PUBLIC 'CODE'
_TEXT	ENDS
;	COMDAT ??_ECTabPageParentWnd@@WFE@AEPAXI@Z
_TEXT	SEGMENT PARA USE32 PUBLIC 'CODE'
_TEXT	ENDS
;	COMDAT ??_R3?$numpunct@_W@std@@8
rdata$r	SEGMENT DWORD USE32 PUBLIC 'CONST'
rdata$r	ENDS
;	COMDAT ??_R3?$numpunct@D@std@@8
rdata$r	SEGMENT DWORD USE32 PUBLIC 'CONST'
rdata$r	ENDS
;	COMDAT ??_R3IData@@8
rdata$r	SEGMENT DWORD USE32 PUBLIC 'CONST'
rdata$r	ENDS
;	COMDAT ??_R3CTabPageParentWnd@@8
rdata$r	SEGMENT DWORD USE32 PUBLIC 'CONST'
rdata$r	ENDS
;	COMDAT ??_R3ILayoutChangeObserver@@8
rdata$r	SEGMENT DWORD USE32 PUBLIC 'CONST'
rdata$r	ENDS
;	COMDAT ??_R2?$numpunct@_W@std@@8
rdata$r	SEGMENT DWORD USE32 PUBLIC 'CONST'
rdata$r	ENDS
;	COMDAT ??_R2?$numpunct@D@std@@8
rdata$r	SEGMENT DWORD USE32 PUBLIC 'CONST'
rdata$r	ENDS
;	COMDAT ??_R2IData@@8
rdata$r	SEGMENT DWORD USE32 PUBLIC 'CONST'
rdata$r	ENDS
;	COMDAT ??_R2CTabPageParentWnd@@8
rdata$r	SEGMENT DWORD USE32 PUBLIC 'CONST'
rdata$r	ENDS
;	COMDAT ??_R2ILayoutChangeObserver@@8
rdata$r	SEGMENT DWORD USE32 PUBLIC 'CONST'
rdata$r	ENDS
;	COMDAT ??_R1A@?0A@A@?$numpunct@_W@std@@8
rdata$r	SEGMENT DWORD USE32 PUBLIC 'CONST'
rdata$r	ENDS
;	COMDAT ??_R1A@?0A@A@facet@locale@std@@8
rdata$r	SEGMENT DWORD USE32 PUBLIC 'CONST'
rdata$r	ENDS
;	COMDAT ??_R0?AVfacet@locale@std@@@8
_DATA	SEGMENT DWORD USE32 PUBLIC 'DATA'
_DATA	ENDS
;	COMDAT ??_R1A@?0A@A@?$numpunct@D@std@@8
rdata$r	SEGMENT DWORD USE32 PUBLIC 'CONST'
rdata$r	ENDS
;	COMDAT ??_R1A@?0A@A@IData@@8
rdata$r	SEGMENT DWORD USE32 PUBLIC 'CONST'
rdata$r	ENDS
;	COMDAT ??_R1FE@?0A@A@IMessageObserver@@8
rdata$r	SEGMENT DWORD USE32 PUBLIC 'CONST'
rdata$r	ENDS
;	COMDAT ??_R1FE@?0A@A@ILayoutChangeObserver@@8
rdata$r	SEGMENT DWORD USE32 PUBLIC 'CONST'
rdata$r	ENDS
;	COMDAT ??_R1A@?0A@A@CObject@@8
rdata$r	SEGMENT DWORD USE32 PUBLIC 'CONST'
rdata$r	ENDS
;	COMDAT ??_R0?AVCObject@@@8
_DATA	SEGMENT DWORD USE32 PUBLIC 'DATA'
_DATA	ENDS
;	COMDAT ??_R1A@?0A@A@CCmdTarget@@8
rdata$r	SEGMENT DWORD USE32 PUBLIC 'CONST'
rdata$r	ENDS
;	COMDAT ??_R0?AVCCmdTarget@@@8
_DATA	SEGMENT DWORD USE32 PUBLIC 'DATA'
_DATA	ENDS
;	COMDAT ??_R1A@?0A@A@CWnd@@8
rdata$r	SEGMENT DWORD USE32 PUBLIC 'CONST'
rdata$r	ENDS
;	COMDAT ??_R0?AVCWnd@@@8
_DATA	SEGMENT DWORD USE32 PUBLIC 'DATA'
_DATA	ENDS
;	COMDAT ??_R1A@?0A@A@CBasicWnd@@8
rdata$r	SEGMENT DWORD USE32 PUBLIC 'CONST'
rdata$r	ENDS
;	COMDAT ??_R1A@?0A@A@CTabPageParentWnd@@8
rdata$r	SEGMENT DWORD USE32 PUBLIC 'CONST'
rdata$r	ENDS
;	COMDAT ??_R1A@?0A@A@IMessageObserver@@8
rdata$r	SEGMENT DWORD USE32 PUBLIC 'CONST'
rdata$r	ENDS
;	COMDAT ??_R1A@?0A@A@ILayoutChangeObserver@@8
rdata$r	SEGMENT DWORD USE32 PUBLIC 'CONST'
rdata$r	ENDS
;	COMDAT ??_R0?AV?$numpunct@_W@std@@@8
_DATA	SEGMENT DWORD USE32 PUBLIC 'DATA'
_DATA	ENDS
;	COMDAT ??_R0?AV?$numpunct@D@std@@@8
_DATA	SEGMENT DWORD USE32 PUBLIC 'DATA'
_DATA	ENDS
;	COMDAT ??_R0?AVIData@@@8
_DATA	SEGMENT DWORD USE32 PUBLIC 'DATA'
_DATA	ENDS
;	COMDAT ??_R0?AVIMessageObserver@@@8
_DATA	SEGMENT DWORD USE32 PUBLIC 'DATA'
_DATA	ENDS
;	COMDAT ??_R0?AVCBasicWnd@@@8
_DATA	SEGMENT DWORD USE32 PUBLIC 'DATA'
_DATA	ENDS
;	COMDAT ??_R0?AVCTabPageParentWnd@@@8
_DATA	SEGMENT DWORD USE32 PUBLIC 'DATA'
_DATA	ENDS
;	COMDAT ??_R0?AVILayoutChangeObserver@@@8
_DATA	SEGMENT DWORD USE32 PUBLIC 'DATA'
_DATA	ENDS
;	COMDAT ??0?$allocator@_W@std@@QAE@XZ
_TEXT	SEGMENT PARA USE32 PUBLIC 'CODE'
_TEXT	ENDS
;	COMDAT ??0?$allocator@D@std@@QAE@ABV01@@Z
_TEXT	SEGMENT PARA USE32 PUBLIC 'CODE'
_TEXT	ENDS
;	COMDAT ??0?$allocator@D@std@@QAE@XZ
_TEXT	SEGMENT PARA USE32 PUBLIC 'CODE'
_TEXT	ENDS
;	COMDAT ?deallocate@?$allocator@D@std@@QAEXPADI@Z
_TEXT	SEGMENT PARA USE32 PUBLIC 'CODE'
_TEXT	ENDS
;	COMDAT ?max_size@?$allocator@D@std@@QBEIXZ
_TEXT	SEGMENT PARA USE32 PUBLIC 'CODE'
_TEXT	ENDS
;	COMDAT ?allocate@?$allocator@D@std@@QAEPADI@Z
_TEXT	SEGMENT PARA USE32 PUBLIC 'CODE'
_TEXT	ENDS
;	COMDAT ??$_Allocate@D@std@@YAPADIPAD@Z
_TEXT	SEGMENT PARA USE32 PUBLIC 'CODE'
_TEXT	ENDS
;	COMDAT ??_G?$numpunct@_W@std@@MAEPAXI@Z
_TEXT	SEGMENT PARA USE32 PUBLIC 'CODE'
_TEXT	ENDS
;	COMDAT ??_R4?$numpunct@_W@std@@6B@
rdata$r	SEGMENT DWORD USE32 PUBLIC 'CONST'
rdata$r	ENDS
;	COMDAT ??_G?$numpunct@D@std@@MAEPAXI@Z
_TEXT	SEGMENT PARA USE32 PUBLIC 'CODE'
_TEXT	ENDS
;	COMDAT ??_R4?$numpunct@D@std@@6B@
rdata$r	SEGMENT DWORD USE32 PUBLIC 'CONST'
rdata$r	ENDS
;	COMDAT ??_R4IData@@6B@
rdata$r	SEGMENT DWORD USE32 PUBLIC 'CONST'
rdata$r	ENDS
;	COMDAT ??_R4CTabPageParentWnd@@6BILayoutChangeObserver@@@
rdata$r	SEGMENT DWORD USE32 PUBLIC 'CONST'
rdata$r	ENDS
;	COMDAT ??_R4CTabPageParentWnd@@6BCBasicWnd@@@
rdata$r	SEGMENT DWORD USE32 PUBLIC 'CONST'
rdata$r	ENDS
;	COMDAT ??_R4ILayoutChangeObserver@@6B@
rdata$r	SEGMENT DWORD USE32 PUBLIC 'CONST'
rdata$r	ENDS
;	COMDAT ??_C@_0EN@CBMLGOH@D?3?2Program?5Files?5?$CIx86?$CJ?2Microsoft@
CONST	SEGMENT DWORD USE32 PUBLIC 'CONST'
CONST	ENDS
;	COMDAT ?_Psave@?$_Facetptr@V?$numpunct@_W@std@@@std@@2PBVfacet@locale@2@B
_DATA	SEGMENT DWORD USE32 PUBLIC 'DATA'
_DATA	ENDS
;	COMDAT ?_Psave@?$_Facetptr@V?$numpunct@D@std@@@std@@2PBVfacet@locale@2@B
_DATA	SEGMENT DWORD USE32 PUBLIC 'DATA'
_DATA	ENDS
;	COMDAT ?Unlock@CComCriticalSection@ATL@@QAEJXZ
_TEXT	SEGMENT PARA USE32 PUBLIC 'CODE'
_TEXT	ENDS
;	COMDAT ??_C@_0FG@LDNDNCJM@D?3?2Program?5Files?5?$CIx86?$CJ?2Microsoft@
CONST	SEGMENT DWORD USE32 PUBLIC 'CONST'
CONST	ENDS
;	COMDAT ??_C@_09HIEJFN@m_bLocked?$AA@
CONST	SEGMENT DWORD USE32 PUBLIC 'CONST'
CONST	ENDS
;	COMDAT ?_Psave@?$_Facetptr@V?$ctype@_W@std@@@std@@2PBVfacet@locale@2@B
_DATA	SEGMENT DWORD USE32 PUBLIC 'DATA'
_DATA	ENDS
;	COMDAT ?_Psave@?$_Facetptr@V?$ctype@D@std@@@std@@2PBVfacet@locale@2@B
_DATA	SEGMENT DWORD USE32 PUBLIC 'DATA'
_DATA	ENDS
;	COMDAT ??$_Maklocchr@_W@std@@YA_WDPA_WABU_Cvtvec@@@Z
_TEXT	SEGMENT PARA USE32 PUBLIC 'CODE'
_TEXT	ENDS
;	COMDAT ??$_DebugHeapDelete@X@std@@YAXPAX@Z
_TEXT	SEGMENT PARA USE32 PUBLIC 'CODE'
_TEXT	ENDS
;	COMDAT ??$_Maklocstr@_W@std@@YAPA_WPBDPA_WABU_Cvtvec@@@Z
_TEXT	SEGMENT PARA USE32 PUBLIC 'CODE'
_TEXT	ENDS
;	COMDAT ??$_Maklocchr@D@std@@YADDPADABU_Cvtvec@@@Z
_TEXT	SEGMENT PARA USE32 PUBLIC 'CODE'
_TEXT	ENDS
;	COMDAT ??_C@_04LOAJBDKD@true?$AA@
CONST	SEGMENT DWORD USE32 PUBLIC 'CONST'
CONST	ENDS
;	COMDAT ??_C@_05LAPONLG@false?$AA@
CONST	SEGMENT DWORD USE32 PUBLIC 'CONST'
CONST	ENDS
;	COMDAT _wmemcpy
_TEXT	SEGMENT PARA USE32 PUBLIC 'CODE'
_TEXT	ENDS
;	COMDAT ?max_size@?$allocator@_W@std@@QBEIXZ
_TEXT	SEGMENT PARA USE32 PUBLIC 'CODE'
_TEXT	ENDS
;	COMDAT ?allocate@?$allocator@_W@std@@QAEPA_WI@Z
_TEXT	SEGMENT PARA USE32 PUBLIC 'CODE'
_TEXT	ENDS
;	COMDAT ??$_Allocate@_W@std@@YAPA_WIPA_W@Z
_TEXT	SEGMENT PARA USE32 PUBLIC 'CODE'
_TEXT	ENDS
;	COMDAT ??_C@_01GFHCPBMG@C?$AA@
CONST	SEGMENT DWORD USE32 PUBLIC 'CONST'
CONST	ENDS
;	COMDAT ?_Peek@?$istreambuf_iterator@_WU?$char_traits@_W@std@@@std@@AAE_WXZ
_TEXT	SEGMENT PARA USE32 PUBLIC 'CODE'
_TEXT	ENDS
;	COMDAT ?_Peek@?$istreambuf_iterator@DU?$char_traits@D@std@@@std@@AAEDXZ
_TEXT	SEGMENT PARA USE32 PUBLIC 'CODE'
_TEXT	ENDS
;	COMDAT ??$use_facet@V?$ctype@_W@std@@@std@@YAABV?$ctype@_W@0@ABVlocale@0@@Z
_TEXT	SEGMENT PARA USE32 PUBLIC 'CODE'
_TEXT	ENDS
;	COMDAT ??_S?$ctype@_W@std@@6B@
CONST	SEGMENT DWORD USE32 PUBLIC 'CONST'
CONST	ENDS
;	COMDAT ??_R4?$ctype@_W@std@@6B@
rdata$r	SEGMENT DWORD USE32 PUBLIC 'CONST'
rdata$r	ENDS
;	COMDAT ??_R0?AV?$ctype@_W@std@@@8
_DATA	SEGMENT DWORD USE32 PUBLIC 'DATA'
_DATA	ENDS
;	COMDAT ??_R3?$ctype@_W@std@@8
rdata$r	SEGMENT DWORD USE32 PUBLIC 'CONST'
rdata$r	ENDS
;	COMDAT ??_R2?$ctype@_W@std@@8
rdata$r	SEGMENT DWORD USE32 PUBLIC 'CONST'
rdata$r	ENDS
;	COMDAT ??_R1A@?0A@A@?$ctype@_W@std@@8
rdata$r	SEGMENT DWORD USE32 PUBLIC 'CONST'
rdata$r	ENDS
;	COMDAT ??_R1A@?0A@A@ctype_base@std@@8
rdata$r	SEGMENT DWORD USE32 PUBLIC 'CONST'
rdata$r	ENDS
;	COMDAT ??_R0?AUctype_base@std@@@8
_DATA	SEGMENT DWORD USE32 PUBLIC 'DATA'
_DATA	ENDS
;	COMDAT ??_G?$ctype@_W@std@@MAEPAXI@Z
_TEXT	SEGMENT PARA USE32 PUBLIC 'CODE'
_TEXT	ENDS
;	COMDAT ??_C@_08EPJLHIJG@bad?5cast?$AA@
CONST	SEGMENT DWORD USE32 PUBLIC 'CONST'
CONST	ENDS
;	COMDAT __TI2?AVbad_cast@@
xdata$x	SEGMENT DWORD USE32 PUBLIC 'CONST'
xdata$x	ENDS
;	COMDAT __CTA2?AVbad_cast@@
xdata$x	SEGMENT DWORD USE32 PUBLIC 'CONST'
xdata$x	ENDS
;	COMDAT __CT??_R0?AVbad_cast@@@8??0bad_cast@@QAE@ABV0@@Z12
xdata$x	SEGMENT DWORD USE32 PUBLIC 'CONST'
xdata$x	ENDS
;	COMDAT ??_R0?AVbad_cast@@@8
_DATA	SEGMENT DWORD USE32 PUBLIC 'DATA'
_DATA	ENDS
;	COMDAT __CT??_R0?AVexception@@@8??0exception@@QAE@ABV0@@Z12
xdata$x	SEGMENT DWORD USE32 PUBLIC 'CONST'
xdata$x	ENDS
;	COMDAT ??_R0?AVexception@@@8
_DATA	SEGMENT DWORD USE32 PUBLIC 'DATA'
_DATA	ENDS
;	COMDAT ??$_DebugHeapDelete@Vfacet@locale@std@@@std@@YAXPAVfacet@locale@0@@Z
_TEXT	SEGMENT PARA USE32 PUBLIC 'CODE'
_TEXT	ENDS
;	COMDAT ??$use_facet@V?$ctype@D@std@@@std@@YAABV?$ctype@D@0@ABVlocale@0@@Z
_TEXT	SEGMENT PARA USE32 PUBLIC 'CODE'
_TEXT	ENDS
;	COMDAT ??_S?$ctype@D@std@@6B@
CONST	SEGMENT DWORD USE32 PUBLIC 'CONST'
CONST	ENDS
;	COMDAT ??_R4?$ctype@D@std@@6B@
rdata$r	SEGMENT DWORD USE32 PUBLIC 'CONST'
rdata$r	ENDS
;	COMDAT ??_R0?AV?$ctype@D@std@@@8
_DATA	SEGMENT DWORD USE32 PUBLIC 'DATA'
_DATA	ENDS
;	COMDAT ??_R3?$ctype@D@std@@8
rdata$r	SEGMENT DWORD USE32 PUBLIC 'CONST'
rdata$r	ENDS
;	COMDAT ??_R2?$ctype@D@std@@8
rdata$r	SEGMENT DWORD USE32 PUBLIC 'CONST'
rdata$r	ENDS
;	COMDAT ??_R1A@?0A@A@?$ctype@D@std@@8
rdata$r	SEGMENT DWORD USE32 PUBLIC 'CONST'
rdata$r	ENDS
;	COMDAT ??_G?$ctype@D@std@@MAEPAXI@Z
_TEXT	SEGMENT PARA USE32 PUBLIC 'CODE'
_TEXT	ENDS
;	COMDAT ??_S?$numpunct@_W@std@@6B@
CONST	SEGMENT DWORD USE32 PUBLIC 'CONST'
CONST	ENDS
;	COMDAT ??_S?$numpunct@D@std@@6B@
CONST	SEGMENT DWORD USE32 PUBLIC 'CONST'
CONST	ENDS
;	COMDAT _wmemmove
_TEXT	SEGMENT PARA USE32 PUBLIC 'CODE'
_TEXT	ENDS
;	COMDAT ?deallocate@?$allocator@_W@std@@QAEXPA_WI@Z
_TEXT	SEGMENT PARA USE32 PUBLIC 'CODE'
_TEXT	ENDS
;	COMDAT ??0?$allocator@_W@std@@QAE@ABV01@@Z
_TEXT	SEGMENT PARA USE32 PUBLIC 'CODE'
_TEXT	ENDS
;	COMDAT ?Release@CStringData@ATL@@QAEXXZ
_TEXT	SEGMENT PARA USE32 PUBLIC 'CODE'
_TEXT	ENDS
;	COMDAT ??_C@_0L@OIIMFBNE@nRefs?5?$CB?$DN?50?$AA@
CONST	SEGMENT DWORD USE32 PUBLIC 'CONST'
CONST	ENDS
;	COMDAT ??_C@_0FJ@DMHPDOJC@D?3?2Program?5Files?5?$CIx86?$CJ?2Microsoft@
CONST	SEGMENT DWORD USE32 PUBLIC 'CONST'
CONST	ENDS
;	COMDAT ??_C@_0BA@GOIMFHNK@pStringMgr?5?$CB?$DN?50?$AA@
CONST	SEGMENT DWORD USE32 PUBLIC 'CONST'
CONST	ENDS
;	COMDAT ?data@CStringData@ATL@@QAEPAXXZ
_TEXT	SEGMENT PARA USE32 PUBLIC 'CODE'
_TEXT	ENDS
;	COMDAT ?GetDefaultManager@?$StrTraitMFC_DLL@DV?$ChTraitsCRT@D@ATL@@@@SAPAUIAtlStringMgr@ATL@@XZ
_TEXT	SEGMENT PARA USE32 PUBLIC 'CODE'
_TEXT	ENDS
;	COMDAT ?FindStringResourceInstance@?$StrTraitMFC_DLL@DV?$ChTraitsCRT@D@ATL@@@@SAPAUHINSTANCE__@@I@Z
_TEXT	SEGMENT PARA USE32 PUBLIC 'CODE'
_TEXT	ENDS
;	COMDAT ?AtlGetStringResourceImage@ATL@@YAPBUATLSTRINGRESOURCEIMAGE@1@PAUHINSTANCE__@@I@Z
_TEXT	SEGMENT PARA USE32 PUBLIC 'CODE'
_TEXT	ENDS
;	COMDAT ?_AtlGetStringResourceImage@ATL@@YAPBUATLSTRINGRESOURCEIMAGE@1@PAUHINSTANCE__@@PAUHRSRC__@@I@Z
_TEXT	SEGMENT PARA USE32 PUBLIC 'CODE'
_TEXT	ENDS
;	COMDAT ?GetBaseTypeLength@?$ChTraitsCRT@D@ATL@@SAHPB_WH@Z
_TEXT	SEGMENT PARA USE32 PUBLIC 'CODE'
_TEXT	ENDS
;	COMDAT ?_AtlGetConversionACP@ATL@@YGIXZ
_TEXT	SEGMENT PARA USE32 PUBLIC 'CODE'
_TEXT	ENDS
;	COMDAT ?g_pfnGetThreadACP@ATL@@3P6GIXZA
_DATA	SEGMENT DWORD USE32 PUBLIC 'DATA'
_DATA	ENDS
;	COMDAT ?_AtlGetThreadACPThunk@ATL@@YGIXZ
_TEXT	SEGMENT PARA USE32 PUBLIC 'CODE'
_TEXT	ENDS
;	COMDAT ?_AtlGetThreadACPReal@ATL@@YGIXZ
_TEXT	SEGMENT PARA USE32 PUBLIC 'CODE'
_TEXT	ENDS
;	COMDAT ?_AtlGetThreadACPFake@ATL@@YGIXZ
_TEXT	SEGMENT PARA USE32 PUBLIC 'CODE'
_TEXT	ENDS
;	COMDAT ?InterlockedExchangePointer@@YGPAXPAPAXPAX@Z
_TEXT	SEGMENT PARA USE32 PUBLIC 'CODE'
_TEXT	ENDS
;	COMDAT ?IsShared@CStringData@ATL@@QBE_NXZ
_TEXT	SEGMENT PARA USE32 PUBLIC 'CODE'
_TEXT	ENDS
;	COMDAT ?AtlThrow@ATL@@YGXJ@Z
_TEXT	SEGMENT PARA USE32 PUBLIC 'CODE'
_TEXT	ENDS
;	COMDAT ??_C@_0FI@NHHJANPC@D?3?2Program?5Files?5?$CIx86?$CJ?2Microsoft@
CONST	SEGMENT DWORD USE32 PUBLIC 'CONST'
CONST	ENDS
;	COMDAT ??_C@_0BF@IAAKIJDJ@AtlThrow?3?5hr?5?$DN?50x?$CFx?6?$AA@
CONST	SEGMENT DWORD USE32 PUBLIC 'CONST'
CONST	ENDS
;	COMDAT ??_C@_0CB@GFHAPKDK@pOldData?9?$DOnAllocLength?5?$DM?5nLength@
CONST	SEGMENT DWORD USE32 PUBLIC 'CONST'
CONST	ENDS
;	COMDAT ?ConvertToBaseType@?$ChTraitsCRT@D@ATL@@SAXPADHPB_WH@Z
_TEXT	SEGMENT PARA USE32 PUBLIC 'CODE'
_TEXT	ENDS
;	COMDAT ??_C@_0BA@GNIEOBOF@nNewLength?5?$DO?$DN?50?$AA@
CONST	SEGMENT DWORD USE32 PUBLIC 'CONST'
CONST	ENDS
;	COMDAT ??_C@_0N@ILOMLJGA@nLength?5?$DO?$DN?50?$AA@
CONST	SEGMENT DWORD USE32 PUBLIC 'CONST'
CONST	ENDS
;	COMDAT ??_C@_0CD@EEFFJEGJ@nLength?5?$DM?$DN?5GetData?$CI?$CJ?9?$DOnAllocLeng@
CONST	SEGMENT DWORD USE32 PUBLIC 'CONST'
CONST	ENDS
;	COMDAT ??RCTraceFileAndLineInfo@ATL@@QBAXKIPBDZZ
_TEXT	SEGMENT PARA USE32 PUBLIC 'CODE'
_TEXT	ENDS
;	COMDAT ?TraceV@CTrace@ATL@@QBAXPBDHKI0PAD@Z
_TEXT	SEGMENT PARA USE32 PUBLIC 'CODE'
_TEXT	ENDS
;	COMDAT ??0CTraceFileAndLineInfo@ATL@@QAE@PBDH@Z
_TEXT	SEGMENT PARA USE32 PUBLIC 'CODE'
_TEXT	ENDS
;	COMDAT ??_C@_0FH@KDPNIMBO@D?3?2Program?5Files?5?$CIx86?$CJ?2Microsoft@
CONST	SEGMENT DWORD USE32 PUBLIC 'CONST'
CONST	ENDS
;	COMDAT ??_C@_0CJ@FJEKGMMD@Warning?3?5implicit?5LoadString?$CI?$CFu?$CJ@
CONST	SEGMENT DWORD USE32 PUBLIC 'CONST'
CONST	ENDS
;	COMDAT ??BCTraceCategory@ATL@@QBEKXZ
_TEXT	SEGMENT PARA USE32 PUBLIC 'CODE'
_TEXT	ENDS
;	COMDAT ?IsLocked@CStringData@ATL@@QBE_NXZ
_TEXT	SEGMENT PARA USE32 PUBLIC 'CODE'
_TEXT	ENDS
;	COMDAT ?_messageEntries@CTabPageParentWnd@@0QBUAFX_MSGMAP_ENTRY@@B
CONST	SEGMENT DWORD USE32 PUBLIC 'CONST'
CONST	ENDS
;	COMDAT ?messageMap@CTabPageParentWnd@@1UAFX_MSGMAP@@B
CONST	SEGMENT DWORD USE32 PUBLIC 'CONST'
CONST	ENDS
;	COMDAT ??_7IMessageObserver@@6B@
CONST	SEGMENT DWORD USE32 PUBLIC 'CONST'
CONST	ENDS
;	COMDAT ??_R4IMessageObserver@@6B@
rdata$r	SEGMENT DWORD USE32 PUBLIC 'CONST'
rdata$r	ENDS
;	COMDAT ??_R3IMessageObserver@@8
rdata$r	SEGMENT DWORD USE32 PUBLIC 'CONST'
rdata$r	ENDS
;	COMDAT ??_R2IMessageObserver@@8
rdata$r	SEGMENT DWORD USE32 PUBLIC 'CONST'
rdata$r	ENDS
;	COMDAT ??_GIMessageObserver@@UAEPAXI@Z
_TEXT	SEGMENT PARA USE32 PUBLIC 'CODE'
_TEXT	ENDS
;	COMDAT ??_7ILayoutChangeObserver@@6B@
CONST	SEGMENT DWORD USE32 PUBLIC 'CONST'
CONST	ENDS
;	COMDAT ??1IMessageObserver@@UAE@XZ
_TEXT	SEGMENT PARA USE32 PUBLIC 'CODE'
_TEXT	ENDS
;	COMDAT ??_7CTabPageParentWnd@@6BILayoutChangeObserver@@@
CONST	SEGMENT DWORD USE32 PUBLIC 'CONST'
CONST	ENDS
;	COMDAT ??_7CTabPageParentWnd@@6BCBasicWnd@@@
CONST	SEGMENT DWORD USE32 PUBLIC 'CONST'
CONST	ENDS
;	COMDAT ?classCTabPageParentWnd@CTabPageParentWnd@@2UCRuntimeClass@@B
CONST	SEGMENT DWORD USE32 PUBLIC 'CONST'
CONST	ENDS
;	COMDAT ??_7IData@@6B@
CONST	SEGMENT DWORD USE32 PUBLIC 'CONST'
CONST	ENDS
sxdata	SEGMENT DWORD USE32 'SXDATA'
sxdata	ENDS
FLAT	GROUP _DATA, CONST, _BSS
	ASSUME	CS: FLAT, DS: FLAT, SS: FLAT
endif

INCLUDELIB MSVCRTD
INCLUDELIB OLDNAMES

PUBLIC	?g_pfnGetThreadACP@ATL@@3P6GIXZA		; ATL::g_pfnGetThreadACP
PUBLIC	?_AtlGetThreadACPThunk@ATL@@YGIXZ		; ATL::_AtlGetThreadACPThunk
PUBLIC	?classCTabPageParentWnd@CTabPageParentWnd@@2UCRuntimeClass@@B ; CTabPageParentWnd::classCTabPageParentWnd
PUBLIC	?_messageEntries@CTabPageParentWnd@@0QBUAFX_MSGMAP_ENTRY@@B ; CTabPageParentWnd::_messageEntries
PUBLIC	?messageMap@CTabPageParentWnd@@1UAFX_MSGMAP@@B	; CTabPageParentWnd::messageMap
PUBLIC	?OnSize@CTabPageParentWnd@@IAEXIHH@Z		; CTabPageParentWnd::OnSize
PUBLIC	?OnCreate@CTabPageParentWnd@@IAEHPAUtagCREATESTRUCTA@@@Z ; CTabPageParentWnd::OnCreate
PUBLIC	?OnEraseBkgnd@CTabPageParentWnd@@IAEHPAVCDC@@@Z	; CTabPageParentWnd::OnEraseBkgnd
EXTRN	?GetThisClass@CBasicWnd@@SGPAUCRuntimeClass@@XZ:NEAR ; CBasicWnd::GetThisClass
EXTRN	?GetThisMessageMap@CBasicWnd@@KGPBUAFX_MSGMAP@@XZ:NEAR ; CBasicWnd::GetThisMessageMap
CONST	SEGMENT
$SG188757 DB	'CTabPageParentWnd', 00H
CONST	ENDS
;	COMDAT ?classCTabPageParentWnd@CTabPageParentWnd@@2UCRuntimeClass@@B
CONST	SEGMENT
?classCTabPageParentWnd@CTabPageParentWnd@@2UCRuntimeClass@@B DD FLAT:$SG188757 ; CTabPageParentWnd::classCTabPageParentWnd
	DD	058H
	DD	0ffffH
	DD	00H
	DD	FLAT:?GetThisClass@CBasicWnd@@SGPAUCRuntimeClass@@XZ
	DD	00H
	DD	00H
CONST	ENDS
;	COMDAT ?_messageEntries@CTabPageParentWnd@@0QBUAFX_MSGMAP_ENTRY@@B
CONST	SEGMENT
?_messageEntries@CTabPageParentWnd@@0QBUAFX_MSGMAP_ENTRY@@B DD 05H ; CTabPageParentWnd::_messageEntries
	DD	00H
	DD	00H
	DD	00H
	DD	016H
	DD	FLAT:?OnSize@CTabPageParentWnd@@IAEXIHH@Z
	DD	01H
	DD	00H
	DD	00H
	DD	00H
	DD	0dH
	DD	FLAT:?OnCreate@CTabPageParentWnd@@IAEHPAUtagCREATESTRUCTA@@@Z
	DD	014H
	DD	00H
	DD	00H
	DD	00H
	DD	01H
	DD	FLAT:?OnEraseBkgnd@CTabPageParentWnd@@IAEHPAVCDC@@@Z
	DD	00H
	DD	00H
	DD	00H
	DD	00H
	DD	00H
	DD	00H
CONST	ENDS
;	COMDAT ?messageMap@CTabPageParentWnd@@1UAFX_MSGMAP@@B
CONST	SEGMENT
?messageMap@CTabPageParentWnd@@1UAFX_MSGMAP@@B DD FLAT:?GetThisMessageMap@CBasicWnd@@KGPBUAFX_MSGMAP@@XZ ; CTabPageParentWnd::messageMap
	DD	FLAT:?_messageEntries@CTabPageParentWnd@@0QBUAFX_MSGMAP_ENTRY@@B
CONST	ENDS
CONST	SEGMENT
	ORG $+2
$SG188817 DB	'normal', 00H
	ORG $+1
$SG188818 DB	'tabpanelparent', 00H
CONST	ENDS
;	COMDAT ?g_pfnGetThreadACP@ATL@@3P6GIXZA
_DATA	SEGMENT
?g_pfnGetThreadACP@ATL@@3P6GIXZA DD FLAT:?_AtlGetThreadACPThunk@ATL@@YGIXZ ; ATL::g_pfnGetThreadACP
_DATA	ENDS
PUBLIC	?GetThisClass@CTabPageParentWnd@@SGPAUCRuntimeClass@@XZ ; CTabPageParentWnd::GetThisClass
EXTRN	__RTC_InitBase:NEAR
EXTRN	__RTC_Shutdown:NEAR
;	COMDAT rtc$IMZ
; File d:\boxgit\playbox\playbox\dev\prj\playbox\src\module\tabman\tabpageparentwnd.cpp
rtc$IMZ	SEGMENT
__RTC_InitBase.rtc$IMZ DD FLAT:__RTC_InitBase
rtc$IMZ	ENDS
;	COMDAT rtc$TMZ
rtc$TMZ	SEGMENT
__RTC_Shutdown.rtc$TMZ DD FLAT:__RTC_Shutdown
; Function compile flags: /Odt /RTCsu
rtc$TMZ	ENDS
_TEXT	SEGMENT
?GetThisClass@CTabPageParentWnd@@SGPAUCRuntimeClass@@XZ PROC NEAR ; CTabPageParentWnd::GetThisClass

; 6    : IMPLEMENT_DYNAMIC(CTabPageParentWnd, CBasicWnd)

  00000	55		 push	 ebp
  00001	8b ec		 mov	 ebp, esp
  00003	b8 00 00 00 00	 mov	 eax, OFFSET FLAT:?classCTabPageParentWnd@CTabPageParentWnd@@2UCRuntimeClass@@B ; CTabPageParentWnd::classCTabPageParentWnd
  00008	5d		 pop	 ebp
  00009	c3		 ret	 0
?GetThisClass@CTabPageParentWnd@@SGPAUCRuntimeClass@@XZ ENDP ; CTabPageParentWnd::GetThisClass
_TEXT	ENDS
PUBLIC	?GetRuntimeClass@CTabPageParentWnd@@UBEPAUCRuntimeClass@@XZ ; CTabPageParentWnd::GetRuntimeClass
; Function compile flags: /Odt /RTCsu
_TEXT	SEGMENT
_this$ = -4						; size = 4
?GetRuntimeClass@CTabPageParentWnd@@UBEPAUCRuntimeClass@@XZ PROC NEAR ; CTabPageParentWnd::GetRuntimeClass
; _this$ = ecx

; 6    : IMPLEMENT_DYNAMIC(CTabPageParentWnd, CBasicWnd)

  00010	55		 push	 ebp
  00011	8b ec		 mov	 ebp, esp
  00013	51		 push	 ecx
  00014	c7 45 fc cc cc
	cc cc		 mov	 DWORD PTR [ebp-4], -858993460 ; ccccccccH
  0001b	89 4d fc	 mov	 DWORD PTR _this$[ebp], ecx
  0001e	b8 00 00 00 00	 mov	 eax, OFFSET FLAT:?classCTabPageParentWnd@CTabPageParentWnd@@2UCRuntimeClass@@B ; CTabPageParentWnd::classCTabPageParentWnd
  00023	8b e5		 mov	 esp, ebp
  00025	5d		 pop	 ebp
  00026	c3		 ret	 0
?GetRuntimeClass@CTabPageParentWnd@@UBEPAUCRuntimeClass@@XZ ENDP ; CTabPageParentWnd::GetRuntimeClass
_TEXT	ENDS
PUBLIC	??_R1A@?0A@A@CWnd@@8				; CWnd::`RTTI Base Class Descriptor at (0,-1,0,0)'
PUBLIC	??_R0?AVCWnd@@@8				; CWnd `RTTI Type Descriptor'
PUBLIC	??_R1A@?0A@A@CCmdTarget@@8			; CCmdTarget::`RTTI Base Class Descriptor at (0,-1,0,0)'
PUBLIC	??_R0?AVCCmdTarget@@@8				; CCmdTarget `RTTI Type Descriptor'
PUBLIC	??_R1A@?0A@A@CObject@@8				; CObject::`RTTI Base Class Descriptor at (0,-1,0,0)'
PUBLIC	??_R0?AVCObject@@@8				; CObject `RTTI Type Descriptor'
PUBLIC	??_R0?AVIMessageObserver@@@8			; IMessageObserver `RTTI Type Descriptor'
PUBLIC	??_R0?AVILayoutChangeObserver@@@8		; ILayoutChangeObserver `RTTI Type Descriptor'
PUBLIC	??_R4CTabPageParentWnd@@6BCBasicWnd@@@		; CTabPageParentWnd::`RTTI Complete Object Locator'
PUBLIC	??_R0?AVCTabPageParentWnd@@@8			; CTabPageParentWnd `RTTI Type Descriptor'
PUBLIC	??_R3CTabPageParentWnd@@8			; CTabPageParentWnd::`RTTI Class Hierarchy Descriptor'
PUBLIC	??_R2CTabPageParentWnd@@8			; CTabPageParentWnd::`RTTI Base Class Array'
PUBLIC	??_R1A@?0A@A@CTabPageParentWnd@@8		; CTabPageParentWnd::`RTTI Base Class Descriptor at (0,-1,0,0)'
PUBLIC	??_R1A@?0A@A@CBasicWnd@@8			; CBasicWnd::`RTTI Base Class Descriptor at (0,-1,0,0)'
PUBLIC	??_R0?AVCBasicWnd@@@8				; CBasicWnd `RTTI Type Descriptor'
PUBLIC	??_R1FE@?0A@A@ILayoutChangeObserver@@8		; ILayoutChangeObserver::`RTTI Base Class Descriptor at (84,-1,0,0)'
PUBLIC	??_R1FE@?0A@A@IMessageObserver@@8		; IMessageObserver::`RTTI Base Class Descriptor at (84,-1,0,0)'
PUBLIC	??_ECTabPageParentWnd@@WFE@AEPAXI@Z		; [thunk]:CTabPageParentWnd::`vector deleting destructor'
PUBLIC	??_R4CTabPageParentWnd@@6BILayoutChangeObserver@@@ ; CTabPageParentWnd::`RTTI Complete Object Locator'
PUBLIC	?ILayoutChangeOb_LayerChanged@ILayoutChangeObserver@@UAEXV?$basic_string@DU?$char_traits@D@std@@V?$allocator@D@2@@std@@00@Z ; ILayoutChangeObserver::ILayoutChangeOb_LayerChanged
PUBLIC	?ILayoutChangeOb_PaneChanged@ILayoutChangeObserver@@UAEXV?$basic_string@DU?$char_traits@D@std@@V?$allocator@D@2@@std@@0@Z ; ILayoutChangeObserver::ILayoutChangeOb_PaneChanged
PUBLIC	?ILayoutChangeOb_SkinChanged@ILayoutChangeObserver@@UAEXV?$basic_string@DU?$char_traits@D@std@@V?$allocator@D@2@@std@@0@Z ; ILayoutChangeObserver::ILayoutChangeOb_SkinChanged
PUBLIC	?ILayoutChangeOb_ColorChanged@ILayoutChangeObserver@@UAEXXZ ; ILayoutChangeObserver::ILayoutChangeOb_ColorChanged
PUBLIC	?ILayoutChangeOb_ColorChanging@ILayoutChangeObserver@@UAEXXZ ; ILayoutChangeObserver::ILayoutChangeOb_ColorChanging
PUBLIC	?ILayoutChangeOb_UpdateLayout@ILayoutChangeObserver@@UAEXPAUHWND__@@@Z ; ILayoutChangeObserver::ILayoutChangeOb_UpdateLayout
PUBLIC	?ILayoutChangeOb_InitFinished@ILayoutChangeObserver@@UAEXXZ ; ILayoutChangeObserver::ILayoutChangeOb_InitFinished
PUBLIC	?ILayoutChangeOb_InitBegin@ILayoutChangeObserver@@UAEXXZ ; ILayoutChangeObserver::ILayoutChangeOb_InitBegin
PUBLIC	??0ILayoutChangeObserver@@QAE@XZ		; ILayoutChangeObserver::ILayoutChangeObserver
PUBLIC	??0CTabPageParentWnd@@QAE@XZ			; CTabPageParentWnd::CTabPageParentWnd
PUBLIC	?GetMessageMap@CTabPageParentWnd@@MBEPBUAFX_MSGMAP@@XZ ; CTabPageParentWnd::GetMessageMap
PUBLIC	??_7CTabPageParentWnd@@6BCBasicWnd@@@		; CTabPageParentWnd::`vftable'
PUBLIC	??_7CTabPageParentWnd@@6BILayoutChangeObserver@@@ ; CTabPageParentWnd::`vftable'
PUBLIC	??_GCTabPageParentWnd@@UAEPAXI@Z		; CTabPageParentWnd::`scalar deleting destructor'
EXTRN	?GetInterfaceMap@CWnd@@MBEPBUAFX_INTERFACEMAP@@XZ:NEAR ; CWnd::GetInterfaceMap
EXTRN	?EnsureStdObj@CWnd@@UAEJXZ:NEAR			; CWnd::EnsureStdObj
EXTRN	?get_accParent@CWnd@@UAEJPAPAUIDispatch@@@Z:NEAR ; CWnd::get_accParent
EXTRN	?OnCmdMsg@CCmdTarget@@UAEHIHPAXPAUAFX_CMDHANDLERINFO@@@Z:NEAR ; CCmdTarget::OnCmdMsg
EXTRN	?get_accChildCount@CWnd@@UAEJPAJ@Z:NEAR		; CWnd::get_accChildCount
EXTRN	?IsInvokeAllowed@CCmdTarget@@UAEHJ@Z:NEAR	; CCmdTarget::IsInvokeAllowed
EXTRN	?get_accChild@CWnd@@UAEJUtagVARIANT@@PAPAUIDispatch@@@Z:NEAR ; CWnd::get_accChild
EXTRN	?get_accName@CWnd@@UAEJUtagVARIANT@@PAPA_W@Z:NEAR ; CWnd::get_accName
EXTRN	?get_accValue@CWnd@@UAEJUtagVARIANT@@PAPA_W@Z:NEAR ; CWnd::get_accValue
EXTRN	?GetDispatchIID@CCmdTarget@@UAEHPAU_GUID@@@Z:NEAR ; CCmdTarget::GetDispatchIID
EXTRN	?GetTypeInfoCount@CCmdTarget@@UAEIXZ:NEAR	; CCmdTarget::GetTypeInfoCount
EXTRN	?GetTypeLibCache@CCmdTarget@@UAEPAVCTypeLibCache@@XZ:NEAR ; CCmdTarget::GetTypeLibCache
EXTRN	?get_accDescription@CWnd@@UAEJUtagVARIANT@@PAPA_W@Z:NEAR ; CWnd::get_accDescription
EXTRN	?GetTypeLib@CCmdTarget@@UAEJKPAPAUITypeLib@@@Z:NEAR ; CCmdTarget::GetTypeLib
EXTRN	?get_accRole@CWnd@@UAEJUtagVARIANT@@PAU2@@Z:NEAR ; CWnd::get_accRole
EXTRN	?get_accState@CWnd@@UAEJUtagVARIANT@@PAU2@@Z:NEAR ; CWnd::get_accState
EXTRN	?get_accHelp@CWnd@@UAEJUtagVARIANT@@PAPA_W@Z:NEAR ; CWnd::get_accHelp
EXTRN	?get_accHelpTopic@CWnd@@UAEJPAPA_WUtagVARIANT@@PAJ@Z:NEAR ; CWnd::get_accHelpTopic
EXTRN	?get_accKeyboardShortcut@CWnd@@UAEJUtagVARIANT@@PAPA_W@Z:NEAR ; CWnd::get_accKeyboardShortcut
EXTRN	?get_accFocus@CWnd@@UAEJPAUtagVARIANT@@@Z:NEAR	; CWnd::get_accFocus
EXTRN	?get_accSelection@CWnd@@UAEJPAUtagVARIANT@@@Z:NEAR ; CWnd::get_accSelection
EXTRN	?get_accDefaultAction@CWnd@@UAEJUtagVARIANT@@PAPA_W@Z:NEAR ; CWnd::get_accDefaultAction
EXTRN	?GetCommandMap@CCmdTarget@@MBEPBUAFX_OLECMDMAP@@XZ:NEAR ; CCmdTarget::GetCommandMap
EXTRN	?accSelect@CWnd@@UAEJJUtagVARIANT@@@Z:NEAR	; CWnd::accSelect
EXTRN	?accLocation@CWnd@@UAEJPAJ000UtagVARIANT@@@Z:NEAR ; CWnd::accLocation
EXTRN	?GetDispatchMap@CCmdTarget@@MBEPBUAFX_DISPMAP@@XZ:NEAR ; CCmdTarget::GetDispatchMap
EXTRN	?accNavigate@CWnd@@UAEJJUtagVARIANT@@PAU2@@Z:NEAR ; CWnd::accNavigate
EXTRN	?accHitTest@CWnd@@UAEJJJPAUtagVARIANT@@@Z:NEAR	; CWnd::accHitTest
EXTRN	?GetConnectionMap@CCmdTarget@@MBEPBUAFX_CONNECTIONMAP@@XZ:NEAR ; CCmdTarget::GetConnectionMap
EXTRN	?accDoDefaultAction@CWnd@@UAEJUtagVARIANT@@@Z:NEAR ; CWnd::accDoDefaultAction
EXTRN	?put_accName@CWnd@@UAEJUtagVARIANT@@PA_W@Z:NEAR	; CWnd::put_accName
EXTRN	?put_accValue@CWnd@@UAEJUtagVARIANT@@PA_W@Z:NEAR ; CWnd::put_accValue
EXTRN	?SetProxy@CWnd@@UAEJPAUIAccessibleProxy@@@Z:NEAR ; CWnd::SetProxy
EXTRN	?CreateAccessibleProxy@CWnd@@UAEJIJPAJ@Z:NEAR	; CWnd::CreateAccessibleProxy
EXTRN	?GetEventSinkMap@CCmdTarget@@MBEPBUAFX_EVENTSINKMAP@@XZ:NEAR ; CCmdTarget::GetEventSinkMap
EXTRN	?OnCreateAggregates@CCmdTarget@@UAEHXZ:NEAR	; CCmdTarget::OnCreateAggregates
EXTRN	?OnCommand@CWnd@@MAEHIJ@Z:NEAR			; CWnd::OnCommand
EXTRN	?GetInterfaceHook@CCmdTarget@@UAEPAUIUnknown@@PBX@Z:NEAR ; CCmdTarget::GetInterfaceHook
EXTRN	?OnNotify@CWnd@@MAEHIJPAJ@Z:NEAR		; CWnd::OnNotify
EXTRN	?GetExtraConnectionPoints@CCmdTarget@@MAEHPAVCPtrArray@@@Z:NEAR ; CCmdTarget::GetExtraConnectionPoints
EXTRN	?GetConnectionHook@CCmdTarget@@MAEPAUIConnectionPoint@@ABU_GUID@@@Z:NEAR ; CCmdTarget::GetConnectionHook
EXTRN	?PreSubclassWindow@CWnd@@UAEXXZ:NEAR		; CWnd::PreSubclassWindow
EXTRN	?Create@CWnd@@UAEHPBD0KABUtagRECT@@PAV1@IPAUCCreateContext@@@Z:NEAR ; CWnd::Create
EXTRN	?CreateEx@CWnd@@UAEHKPBD0KHHHHPAUHWND__@@PAUHMENU__@@PAX@Z:NEAR ; CWnd::CreateEx
EXTRN	?CreateEx@CWnd@@UAEHKPBD0KABUtagRECT@@PAV1@IPAX@Z:NEAR ; CWnd::CreateEx
EXTRN	?Serialize@CObject@@UAEXAAVCArchive@@@Z:NEAR	; CObject::Serialize
EXTRN	?DestroyWindow@CWnd@@UAEHXZ:NEAR		; CWnd::DestroyWindow
EXTRN	?PreCreateWindow@CWnd@@UAEHAAUtagCREATESTRUCTA@@@Z:NEAR ; CWnd::PreCreateWindow
EXTRN	?CalcWindowRect@CWnd@@UAEXPAUtagRECT@@I@Z:NEAR	; CWnd::CalcWindowRect
EXTRN	?GetSuperWndProcAddr@CWnd@@MAEPAP6GJPAUHWND__@@IIJ@ZXZ:NEAR ; CWnd::GetSuperWndProcAddr
EXTRN	?DoDataExchange@CWnd@@MAEXPAVCDataExchange@@@Z:NEAR ; CWnd::DoDataExchange
EXTRN	?BeginModalState@CWnd@@UAEXXZ:NEAR		; CWnd::BeginModalState
EXTRN	?EndModalState@CWnd@@UAEXXZ:NEAR		; CWnd::EndModalState
EXTRN	?PreTranslateMessage@CWnd@@UAEHPAUtagMSG@@@Z:NEAR ; CWnd::PreTranslateMessage
EXTRN	?OnAmbientProperty@CWnd@@UAEHPAVCOleControlSite@@JPAUtagVARIANT@@@Z:NEAR ; CWnd::OnAmbientProperty
EXTRN	?WindowProc@CWnd@@MAEJIIJ@Z:NEAR		; CWnd::WindowProc
EXTRN	?OnWndMsg@CWnd@@MAEHIIJPAJ@Z:NEAR		; CWnd::OnWndMsg
EXTRN	?DefWindowProcA@CWnd@@MAEJIIJ@Z:NEAR		; CWnd::DefWindowProcA
EXTRN	?PostNcDestroy@CWnd@@MAEXXZ:NEAR		; CWnd::PostNcDestroy
EXTRN	?OnChildNotify@CWnd@@MAEHIIJPAJ@Z:NEAR		; CWnd::OnChildNotify
EXTRN	?CheckAutoCenter@CWnd@@UAEHXZ:NEAR		; CWnd::CheckAutoCenter
EXTRN	?AssertValid@CWnd@@UBEXXZ:NEAR			; CWnd::AssertValid
EXTRN	?Dump@CWnd@@UBEXAAVCDumpContext@@@Z:NEAR	; CWnd::Dump
EXTRN	??0CBasicWnd@@QAE@XZ:NEAR			; CBasicWnd::CBasicWnd
EXTRN	?IsFrameWnd@CWnd@@UBEHXZ:NEAR			; CWnd::IsFrameWnd
EXTRN	?OnFinalRelease@CWnd@@UAEXXZ:NEAR		; CWnd::OnFinalRelease
EXTRN	?CreateControlContainer@CWnd@@MAEHPAPAVCOleControlContainer@@@Z:NEAR ; CWnd::CreateControlContainer
EXTRN	?CreateControlSite@CWnd@@MAEHPAVCOleControlContainer@@PAPAVCOleControlSite@@IABU_GUID@@@Z:NEAR ; CWnd::CreateControlSite
EXTRN	?SetOccDialogInfo@CWnd@@MAEHPAU_AFX_OCC_DIALOG_INFO@@@Z:NEAR ; CWnd::SetOccDialogInfo
EXTRN	??_ECTabPageParentWnd@@UAEPAXI@Z:NEAR		; CTabPageParentWnd::`vector deleting destructor'
EXTRN	?OnToolHitTest@CWnd@@UBEHVCPoint@@PAUtagTOOLINFOA@@@Z:NEAR ; CWnd::OnToolHitTest
EXTRN	?GetScrollBarCtrl@CWnd@@UBEPAVCScrollBar@@H@Z:NEAR ; CWnd::GetScrollBarCtrl
EXTRN	?WinHelpA@CWnd@@UAEXKI@Z:NEAR			; CWnd::WinHelpA
EXTRN	?HtmlHelpA@CWnd@@UAEXKI@Z:NEAR			; CWnd::HtmlHelpA
EXTRN	??_7type_info@@6B@:QWORD			; type_info::`vftable'
EXTRN	?WinHelpInternal@CWnd@@UAEXKI@Z:NEAR		; CWnd::WinHelpInternal
EXTRN	__RTC_CheckEsp:NEAR
EXTRN	?ContinueModal@CWnd@@UAEHXZ:NEAR		; CWnd::ContinueModal
EXTRN	?EndModalLoop@CWnd@@UAEXH@Z:NEAR		; CWnd::EndModalLoop
;	COMDAT ??_7CTabPageParentWnd@@6BCBasicWnd@@@
CONST	SEGMENT
??_7CTabPageParentWnd@@6BCBasicWnd@@@ DD FLAT:??_R4CTabPageParentWnd@@6BCBasicWnd@@@ ; CTabPageParentWnd::`vftable'
	DD	FLAT:?GetRuntimeClass@CTabPageParentWnd@@UBEPAUCRuntimeClass@@XZ
	DD	FLAT:??_ECTabPageParentWnd@@UAEPAXI@Z
	DD	FLAT:?Serialize@CObject@@UAEXAAVCArchive@@@Z
	DD	FLAT:?AssertValid@CWnd@@UBEXXZ
	DD	FLAT:?Dump@CWnd@@UBEXAAVCDumpContext@@@Z
	DD	FLAT:?OnCmdMsg@CCmdTarget@@UAEHIHPAXPAUAFX_CMDHANDLERINFO@@@Z
	DD	FLAT:?OnFinalRelease@CWnd@@UAEXXZ
	DD	FLAT:?IsInvokeAllowed@CCmdTarget@@UAEHJ@Z
	DD	FLAT:?GetDispatchIID@CCmdTarget@@UAEHPAU_GUID@@@Z
	DD	FLAT:?GetTypeInfoCount@CCmdTarget@@UAEIXZ
	DD	FLAT:?GetTypeLibCache@CCmdTarget@@UAEPAVCTypeLibCache@@XZ
	DD	FLAT:?GetTypeLib@CCmdTarget@@UAEJKPAPAUITypeLib@@@Z
	DD	FLAT:?GetMessageMap@CTabPageParentWnd@@MBEPBUAFX_MSGMAP@@XZ
	DD	FLAT:?GetCommandMap@CCmdTarget@@MBEPBUAFX_OLECMDMAP@@XZ
	DD	FLAT:?GetDispatchMap@CCmdTarget@@MBEPBUAFX_DISPMAP@@XZ
	DD	FLAT:?GetConnectionMap@CCmdTarget@@MBEPBUAFX_CONNECTIONMAP@@XZ
	DD	FLAT:?GetInterfaceMap@CWnd@@MBEPBUAFX_INTERFACEMAP@@XZ
	DD	FLAT:?GetEventSinkMap@CCmdTarget@@MBEPBUAFX_EVENTSINKMAP@@XZ
	DD	FLAT:?OnCreateAggregates@CCmdTarget@@UAEHXZ
	DD	FLAT:?GetInterfaceHook@CCmdTarget@@UAEPAUIUnknown@@PBX@Z
	DD	FLAT:?GetExtraConnectionPoints@CCmdTarget@@MAEHPAVCPtrArray@@@Z
	DD	FLAT:?GetConnectionHook@CCmdTarget@@MAEPAUIConnectionPoint@@ABU_GUID@@@Z
	DD	FLAT:?PreSubclassWindow@CWnd@@UAEXXZ
	DD	FLAT:?Create@CWnd@@UAEHPBD0KABUtagRECT@@PAV1@IPAUCCreateContext@@@Z
	DD	FLAT:?CreateEx@CWnd@@UAEHKPBD0KABUtagRECT@@PAV1@IPAX@Z
	DD	FLAT:?CreateEx@CWnd@@UAEHKPBD0KHHHHPAUHWND__@@PAUHMENU__@@PAX@Z
	DD	FLAT:?DestroyWindow@CWnd@@UAEHXZ
	DD	FLAT:?PreCreateWindow@CWnd@@UAEHAAUtagCREATESTRUCTA@@@Z
	DD	FLAT:?CalcWindowRect@CWnd@@UAEXPAUtagRECT@@I@Z
	DD	FLAT:?OnToolHitTest@CWnd@@UBEHVCPoint@@PAUtagTOOLINFOA@@@Z
	DD	FLAT:?GetScrollBarCtrl@CWnd@@UBEPAVCScrollBar@@H@Z
	DD	FLAT:?WinHelpA@CWnd@@UAEXKI@Z
	DD	FLAT:?HtmlHelpA@CWnd@@UAEXKI@Z
	DD	FLAT:?WinHelpInternal@CWnd@@UAEXKI@Z
	DD	FLAT:?ContinueModal@CWnd@@UAEHXZ
	DD	FLAT:?EndModalLoop@CWnd@@UAEXH@Z
	DD	FLAT:?EnsureStdObj@CWnd@@UAEJXZ
	DD	FLAT:?get_accParent@CWnd@@UAEJPAPAUIDispatch@@@Z
	DD	FLAT:?get_accChildCount@CWnd@@UAEJPAJ@Z
	DD	FLAT:?get_accChild@CWnd@@UAEJUtagVARIANT@@PAPAUIDispatch@@@Z
	DD	FLAT:?get_accName@CWnd@@UAEJUtagVARIANT@@PAPA_W@Z
	DD	FLAT:?get_accValue@CWnd@@UAEJUtagVARIANT@@PAPA_W@Z
	DD	FLAT:?get_accDescription@CWnd@@UAEJUtagVARIANT@@PAPA_W@Z
	DD	FLAT:?get_accRole@CWnd@@UAEJUtagVARIANT@@PAU2@@Z
	DD	FLAT:?get_accState@CWnd@@UAEJUtagVARIANT@@PAU2@@Z
	DD	FLAT:?get_accHelp@CWnd@@UAEJUtagVARIANT@@PAPA_W@Z
	DD	FLAT:?get_accHelpTopic@CWnd@@UAEJPAPA_WUtagVARIANT@@PAJ@Z
	DD	FLAT:?get_accKeyboardShortcut@CWnd@@UAEJUtagVARIANT@@PAPA_W@Z
	DD	FLAT:?get_accFocus@CWnd@@UAEJPAUtagVARIANT@@@Z
	DD	FLAT:?get_accSelection@CWnd@@UAEJPAUtagVARIANT@@@Z
	DD	FLAT:?get_accDefaultAction@CWnd@@UAEJUtagVARIANT@@PAPA_W@Z
	DD	FLAT:?accSelect@CWnd@@UAEJJUtagVARIANT@@@Z
	DD	FLAT:?accLocation@CWnd@@UAEJPAJ000UtagVARIANT@@@Z
	DD	FLAT:?accNavigate@CWnd@@UAEJJUtagVARIANT@@PAU2@@Z
	DD	FLAT:?accHitTest@CWnd@@UAEJJJPAUtagVARIANT@@@Z
	DD	FLAT:?accDoDefaultAction@CWnd@@UAEJUtagVARIANT@@@Z
	DD	FLAT:?put_accName@CWnd@@UAEJUtagVARIANT@@PA_W@Z
	DD	FLAT:?put_accValue@CWnd@@UAEJUtagVARIANT@@PA_W@Z
	DD	FLAT:?SetProxy@CWnd@@UAEJPAUIAccessibleProxy@@@Z
	DD	FLAT:?CreateAccessibleProxy@CWnd@@UAEJIJPAJ@Z
	DD	FLAT:?OnCommand@CWnd@@MAEHIJ@Z
	DD	FLAT:?OnNotify@CWnd@@MAEHIJPAJ@Z
	DD	FLAT:?GetSuperWndProcAddr@CWnd@@MAEPAP6GJPAUHWND__@@IIJ@ZXZ
	DD	FLAT:?DoDataExchange@CWnd@@MAEXPAVCDataExchange@@@Z
	DD	FLAT:?BeginModalState@CWnd@@UAEXXZ
	DD	FLAT:?EndModalState@CWnd@@UAEXXZ
	DD	FLAT:?PreTranslateMessage@CWnd@@UAEHPAUtagMSG@@@Z
	DD	FLAT:?OnAmbientProperty@CWnd@@UAEHPAVCOleControlSite@@JPAUtagVARIANT@@@Z
	DD	FLAT:?WindowProc@CWnd@@MAEJIIJ@Z
	DD	FLAT:?OnWndMsg@CWnd@@MAEHIIJPAJ@Z
	DD	FLAT:?DefWindowProcA@CWnd@@MAEJIIJ@Z
	DD	FLAT:?PostNcDestroy@CWnd@@MAEXXZ
	DD	FLAT:?OnChildNotify@CWnd@@MAEHIIJPAJ@Z
	DD	FLAT:?CheckAutoCenter@CWnd@@UAEHXZ
	DD	FLAT:?IsFrameWnd@CWnd@@UBEHXZ
	DD	FLAT:?CreateControlContainer@CWnd@@MAEHPAPAVCOleControlContainer@@@Z
	DD	FLAT:?CreateControlSite@CWnd@@MAEHPAVCOleControlContainer@@PAPAVCOleControlSite@@IABU_GUID@@@Z
	DD	FLAT:?SetOccDialogInfo@CWnd@@MAEHPAU_AFX_OCC_DIALOG_INFO@@@Z
CONST	ENDS
;	COMDAT ??_7CTabPageParentWnd@@6BILayoutChangeObserver@@@
CONST	SEGMENT
??_7CTabPageParentWnd@@6BILayoutChangeObserver@@@ DD FLAT:??_R4CTabPageParentWnd@@6BILayoutChangeObserver@@@ ; CTabPageParentWnd::`vftable'
	DD	FLAT:??_ECTabPageParentWnd@@WFE@AEPAXI@Z
	DD	FLAT:?ILayoutChangeOb_LayerChanged@ILayoutChangeObserver@@UAEXV?$basic_string@DU?$char_traits@D@std@@V?$allocator@D@2@@std@@00@Z
	DD	FLAT:?ILayoutChangeOb_PaneChanged@ILayoutChangeObserver@@UAEXV?$basic_string@DU?$char_traits@D@std@@V?$allocator@D@2@@std@@0@Z
	DD	FLAT:?ILayoutChangeOb_SkinChanged@ILayoutChangeObserver@@UAEXV?$basic_string@DU?$char_traits@D@std@@V?$allocator@D@2@@std@@0@Z
	DD	FLAT:?ILayoutChangeOb_ColorChanged@ILayoutChangeObserver@@UAEXXZ
	DD	FLAT:?ILayoutChangeOb_ColorChanging@ILayoutChangeObserver@@UAEXXZ
	DD	FLAT:?ILayoutChangeOb_UpdateLayout@ILayoutChangeObserver@@UAEXPAUHWND__@@@Z
	DD	FLAT:?ILayoutChangeOb_InitFinished@ILayoutChangeObserver@@UAEXXZ
	DD	FLAT:?ILayoutChangeOb_InitBegin@ILayoutChangeObserver@@UAEXXZ
CONST	ENDS
;	COMDAT ??_R4CTabPageParentWnd@@6BCBasicWnd@@@
rdata$r	SEGMENT
??_R4CTabPageParentWnd@@6BCBasicWnd@@@ DD 00H		; CTabPageParentWnd::`RTTI Complete Object Locator'
	DD	00H
	DD	00H
	DD	FLAT:??_R0?AVCTabPageParentWnd@@@8
	DD	FLAT:??_R3CTabPageParentWnd@@8
rdata$r	ENDS
;	COMDAT ??_R0?AVCTabPageParentWnd@@@8
_DATA	SEGMENT
??_R0?AVCTabPageParentWnd@@@8 DD FLAT:??_7type_info@@6B@ ; CTabPageParentWnd `RTTI Type Descriptor'
	DD	00H
	DB	'.?AVCTabPageParentWnd@@', 00H
_DATA	ENDS
;	COMDAT ??_R3CTabPageParentWnd@@8
rdata$r	SEGMENT
??_R3CTabPageParentWnd@@8 DD 00H			; CTabPageParentWnd::`RTTI Class Hierarchy Descriptor'
	DD	01H
	DD	07H
	DD	FLAT:??_R2CTabPageParentWnd@@8
rdata$r	ENDS
;	COMDAT ??_R2CTabPageParentWnd@@8
rdata$r	SEGMENT
??_R2CTabPageParentWnd@@8 DD FLAT:??_R1A@?0A@A@CTabPageParentWnd@@8 ; CTabPageParentWnd::`RTTI Base Class Array'
	DD	FLAT:??_R1A@?0A@A@CBasicWnd@@8
	DD	FLAT:??_R1A@?0A@A@CWnd@@8
	DD	FLAT:??_R1A@?0A@A@CCmdTarget@@8
	DD	FLAT:??_R1A@?0A@A@CObject@@8
	DD	FLAT:??_R1FE@?0A@A@ILayoutChangeObserver@@8
	DD	FLAT:??_R1FE@?0A@A@IMessageObserver@@8
rdata$r	ENDS
;	COMDAT ??_R1A@?0A@A@CTabPageParentWnd@@8
rdata$r	SEGMENT
??_R1A@?0A@A@CTabPageParentWnd@@8 DD FLAT:??_R0?AVCTabPageParentWnd@@@8 ; CTabPageParentWnd::`RTTI Base Class Descriptor at (0,-1,0,0)'
	DD	06H
	DD	00H
	DD	0ffffffffH
	DD	00H
	DD	00H
rdata$r	ENDS
;	COMDAT ??_R1A@?0A@A@CBasicWnd@@8
rdata$r	SEGMENT
??_R1A@?0A@A@CBasicWnd@@8 DD FLAT:??_R0?AVCBasicWnd@@@8	; CBasicWnd::`RTTI Base Class Descriptor at (0,-1,0,0)'
	DD	03H
	DD	00H
	DD	0ffffffffH
	DD	00H
	DD	00H
rdata$r	ENDS
;	COMDAT ??_R0?AVCBasicWnd@@@8
_DATA	SEGMENT
??_R0?AVCBasicWnd@@@8 DD FLAT:??_7type_info@@6B@	; CBasicWnd `RTTI Type Descriptor'
	DD	00H
	DB	'.?AVCBasicWnd@@', 00H
_DATA	ENDS
;	COMDAT ??_R1A@?0A@A@CWnd@@8
rdata$r	SEGMENT
??_R1A@?0A@A@CWnd@@8 DD FLAT:??_R0?AVCWnd@@@8		; CWnd::`RTTI Base Class Descriptor at (0,-1,0,0)'
	DD	02H
	DD	00H
	DD	0ffffffffH
	DD	00H
	DD	00H
rdata$r	ENDS
;	COMDAT ??_R0?AVCWnd@@@8
_DATA	SEGMENT
??_R0?AVCWnd@@@8 DD FLAT:??_7type_info@@6B@		; CWnd `RTTI Type Descriptor'
	DD	00H
	DB	'.?AVCWnd@@', 00H
_DATA	ENDS
;	COMDAT ??_R1A@?0A@A@CCmdTarget@@8
rdata$r	SEGMENT
??_R1A@?0A@A@CCmdTarget@@8 DD FLAT:??_R0?AVCCmdTarget@@@8 ; CCmdTarget::`RTTI Base Class Descriptor at (0,-1,0,0)'
	DD	01H
	DD	00H
	DD	0ffffffffH
	DD	00H
	DD	00H
rdata$r	ENDS
;	COMDAT ??_R0?AVCCmdTarget@@@8
_DATA	SEGMENT
??_R0?AVCCmdTarget@@@8 DD FLAT:??_7type_info@@6B@	; CCmdTarget `RTTI Type Descriptor'
	DD	00H
	DB	'.?AVCCmdTarget@@', 00H
_DATA	ENDS
;	COMDAT ??_R1A@?0A@A@CObject@@8
rdata$r	SEGMENT
??_R1A@?0A@A@CObject@@8 DD FLAT:??_R0?AVCObject@@@8	; CObject::`RTTI Base Class Descriptor at (0,-1,0,0)'
	DD	00H
	DD	00H
	DD	0ffffffffH
	DD	00H
	DD	00H
rdata$r	ENDS
;	COMDAT ??_R0?AVCObject@@@8
_DATA	SEGMENT
??_R0?AVCObject@@@8 DD FLAT:??_7type_info@@6B@		; CObject `RTTI Type Descriptor'
	DD	00H
	DB	'.?AVCObject@@', 00H
_DATA	ENDS
;	COMDAT ??_R1FE@?0A@A@ILayoutChangeObserver@@8
rdata$r	SEGMENT
??_R1FE@?0A@A@ILayoutChangeObserver@@8 DD FLAT:??_R0?AVILayoutChangeObserver@@@8 ; ILayoutChangeObserver::`RTTI Base Class Descriptor at (84,-1,0,0)'
	DD	01H
	DD	054H
	DD	0ffffffffH
	DD	00H
	DD	00H
rdata$r	ENDS
;	COMDAT ??_R0?AVILayoutChangeObserver@@@8
_DATA	SEGMENT
??_R0?AVILayoutChangeObserver@@@8 DD FLAT:??_7type_info@@6B@ ; ILayoutChangeObserver `RTTI Type Descriptor'
	DD	00H
	DB	'.?AVILayoutChangeObserver@@', 00H
_DATA	ENDS
;	COMDAT ??_R1FE@?0A@A@IMessageObserver@@8
rdata$r	SEGMENT
??_R1FE@?0A@A@IMessageObserver@@8 DD FLAT:??_R0?AVIMessageObserver@@@8 ; IMessageObserver::`RTTI Base Class Descriptor at (84,-1,0,0)'
	DD	00H
	DD	054H
	DD	0ffffffffH
	DD	00H
	DD	00H
rdata$r	ENDS
;	COMDAT ??_R0?AVIMessageObserver@@@8
_DATA	SEGMENT
??_R0?AVIMessageObserver@@@8 DD FLAT:??_7type_info@@6B@	; IMessageObserver `RTTI Type Descriptor'
	DD	00H
	DB	'.?AVIMessageObserver@@', 00H
	ORG $-31
	DD	FLAT:??_7type_info@@6B@
	DD	00H
	DB	'.?AVIMessageObserver@@', 00H
_DATA	ENDS
;	COMDAT ??_R4CTabPageParentWnd@@6BILayoutChangeObserver@@@
rdata$r	SEGMENT
??_R4CTabPageParentWnd@@6BILayoutChangeObserver@@@ DD 00H ; CTabPageParentWnd::`RTTI Complete Object Locator'
	DD	054H
	DD	00H
	DD	FLAT:??_R0?AVCTabPageParentWnd@@@8
	DD	FLAT:??_R3CTabPageParentWnd@@8
; Function compile flags: /Odt /RTCsu
rdata$r	ENDS
_TEXT	SEGMENT
_this$ = -4						; size = 4
??0CTabPageParentWnd@@QAE@XZ PROC NEAR			; CTabPageParentWnd::CTabPageParentWnd
; _this$ = ecx

; 8    : {

  00030	55		 push	 ebp
  00031	8b ec		 mov	 ebp, esp
  00033	51		 push	 ecx
  00034	c7 45 fc cc cc
	cc cc		 mov	 DWORD PTR [ebp-4], -858993460 ; ccccccccH
  0003b	89 4d fc	 mov	 DWORD PTR _this$[ebp], ecx
  0003e	8b 4d fc	 mov	 ecx, DWORD PTR _this$[ebp]
  00041	e8 00 00 00 00	 call	 ??0CBasicWnd@@QAE@XZ	; CBasicWnd::CBasicWnd
  00046	8b 4d fc	 mov	 ecx, DWORD PTR _this$[ebp]
  00049	83 c1 54	 add	 ecx, 84			; 00000054H
  0004c	e8 00 00 00 00	 call	 ??0ILayoutChangeObserver@@QAE@XZ
  00051	8b 45 fc	 mov	 eax, DWORD PTR _this$[ebp]
  00054	c7 00 00 00 00
	00		 mov	 DWORD PTR [eax], OFFSET FLAT:??_7CTabPageParentWnd@@6BCBasicWnd@@@
  0005a	8b 4d fc	 mov	 ecx, DWORD PTR _this$[ebp]
  0005d	c7 41 54 00 00
	00 00		 mov	 DWORD PTR [ecx+84], OFFSET FLAT:??_7CTabPageParentWnd@@6BILayoutChangeObserver@@@

; 9    : }

  00064	8b 45 fc	 mov	 eax, DWORD PTR _this$[ebp]
  00067	83 c4 04	 add	 esp, 4
  0006a	3b ec		 cmp	 ebp, esp
  0006c	e8 00 00 00 00	 call	 __RTC_CheckEsp
  00071	8b e5		 mov	 esp, ebp
  00073	5d		 pop	 ebp
  00074	c3		 ret	 0
??0CTabPageParentWnd@@QAE@XZ ENDP			; CTabPageParentWnd::CTabPageParentWnd
_TEXT	ENDS
EXTRN	__except_list:DWORD
EXTRN	___CxxFrameHandler:NEAR
EXTRN	__imp_??1?$basic_string@DU?$char_traits@D@std@@V?$allocator@D@2@@std@@QAE@XZ:NEAR
;	COMDAT xdata$x
; File d:\boxgit\playbox\playbox\dev\prj\playbox\src\datainterface\ilayoutchangeobserver.h
xdata$x	SEGMENT
$T189441 DD	0ffffffffH
	DD	FLAT:$L189432
	DD	00H
	DD	FLAT:$L189433
$T189438 DD	019930520H
	DD	02H
	DD	FLAT:$T189441
	DD	2 DUP(00H)
	DD	2 DUP(00H)
; Function compile flags: /Odt /RTCsu
xdata$x	ENDS
;	COMDAT ?ILayoutChangeOb_LayerChanged@ILayoutChangeObserver@@UAEXV?$basic_string@DU?$char_traits@D@std@@V?$allocator@D@2@@std@@00@Z
_TEXT	SEGMENT
_this$ = -16						; size = 4
__$EHRec$ = -12						; size = 12
_paneName$ = 8						; size = 28
_oldLayerName$ = 36					; size = 28
_newLayerName$ = 64					; size = 28
?ILayoutChangeOb_LayerChanged@ILayoutChangeObserver@@UAEXV?$basic_string@DU?$char_traits@D@std@@V?$allocator@D@2@@std@@00@Z PROC NEAR ; ILayoutChangeObserver::ILayoutChangeOb_LayerChanged, COMDAT
; _this$ = ecx

; 9    : 	virtual void	ILayoutChangeOb_LayerChanged(string paneName, string oldLayerName, string newLayerName ){};

  00000	55		 push	 ebp
  00001	8b ec		 mov	 ebp, esp
  00003	6a ff		 push	 -1
  00005	68 00 00 00 00	 push	 __ehhandler$?ILayoutChangeOb_LayerChanged@ILayoutChangeObserver@@UAEXV?$basic_string@DU?$char_traits@D@std@@V?$allocator@D@2@@std@@00@Z
  0000a	64 a1 00 00 00
	00		 mov	 eax, DWORD PTR fs:__except_list
  00010	50		 push	 eax
  00011	64 89 25 00 00
	00 00		 mov	 DWORD PTR fs:__except_list, esp
  00018	51		 push	 ecx
  00019	56		 push	 esi
  0001a	c7 45 f0 cc cc
	cc cc		 mov	 DWORD PTR [ebp-16], -858993460 ; ccccccccH
  00021	89 4d f0	 mov	 DWORD PTR _this$[ebp], ecx
  00024	c7 45 fc 01 00
	00 00		 mov	 DWORD PTR __$EHRec$[ebp+8], 1
  0002b	8b f4		 mov	 esi, esp
  0002d	8d 4d 08	 lea	 ecx, DWORD PTR _paneName$[ebp]
  00030	ff 15 00 00 00
	00		 call	 DWORD PTR __imp_??1?$basic_string@DU?$char_traits@D@std@@V?$allocator@D@2@@std@@QAE@XZ
  00036	3b f4		 cmp	 esi, esp
  00038	e8 00 00 00 00	 call	 __RTC_CheckEsp
  0003d	c6 45 fc 00	 mov	 BYTE PTR __$EHRec$[ebp+8], 0
  00041	8b f4		 mov	 esi, esp
  00043	8d 4d 24	 lea	 ecx, DWORD PTR _oldLayerName$[ebp]
  00046	ff 15 00 00 00
	00		 call	 DWORD PTR __imp_??1?$basic_string@DU?$char_traits@D@std@@V?$allocator@D@2@@std@@QAE@XZ
  0004c	3b f4		 cmp	 esi, esp
  0004e	e8 00 00 00 00	 call	 __RTC_CheckEsp
  00053	c7 45 fc ff ff
	ff ff		 mov	 DWORD PTR __$EHRec$[ebp+8], -1
  0005a	8b f4		 mov	 esi, esp
  0005c	8d 4d 40	 lea	 ecx, DWORD PTR _newLayerName$[ebp]
  0005f	ff 15 00 00 00
	00		 call	 DWORD PTR __imp_??1?$basic_string@DU?$char_traits@D@std@@V?$allocator@D@2@@std@@QAE@XZ
  00065	3b f4		 cmp	 esi, esp
  00067	e8 00 00 00 00	 call	 __RTC_CheckEsp
  0006c	8b 4d f4	 mov	 ecx, DWORD PTR __$EHRec$[ebp]
  0006f	64 89 0d 00 00
	00 00		 mov	 DWORD PTR fs:__except_list, ecx
  00076	5e		 pop	 esi
  00077	83 c4 10	 add	 esp, 16			; 00000010H
  0007a	3b ec		 cmp	 ebp, esp
  0007c	e8 00 00 00 00	 call	 __RTC_CheckEsp
  00081	8b e5		 mov	 esp, ebp
  00083	5d		 pop	 ebp
  00084	c2 54 00	 ret	 84			; 00000054H
_TEXT	ENDS
;	COMDAT text$x
text$x	SEGMENT
$L189432:
  00000	8b f4		 mov	 esi, esp
  00002	8d 4d 40	 lea	 ecx, DWORD PTR _newLayerName$[ebp]
  00005	ff 15 00 00 00
	00		 call	 DWORD PTR __imp_??1?$basic_string@DU?$char_traits@D@std@@V?$allocator@D@2@@std@@QAE@XZ
  0000b	3b f4		 cmp	 esi, esp
  0000d	e9 00 00 00 00	 jmp	 __RTC_CheckEsp
$L189433:
  00012	8b f4		 mov	 esi, esp
  00014	8d 4d 24	 lea	 ecx, DWORD PTR _oldLayerName$[ebp]
  00017	ff 15 00 00 00
	00		 call	 DWORD PTR __imp_??1?$basic_string@DU?$char_traits@D@std@@V?$allocator@D@2@@std@@QAE@XZ
  0001d	3b f4		 cmp	 esi, esp
  0001f	e9 00 00 00 00	 jmp	 __RTC_CheckEsp
__ehhandler$?ILayoutChangeOb_LayerChanged@ILayoutChangeObserver@@UAEXV?$basic_string@DU?$char_traits@D@std@@V?$allocator@D@2@@std@@00@Z:
  00024	b8 00 00 00 00	 mov	 eax, OFFSET FLAT:$T189438
  00029	e9 00 00 00 00	 jmp	 ___CxxFrameHandler
text$x	ENDS
?ILayoutChangeOb_LayerChanged@ILayoutChangeObserver@@UAEXV?$basic_string@DU?$char_traits@D@std@@V?$allocator@D@2@@std@@00@Z ENDP ; ILayoutChangeObserver::ILayoutChangeOb_LayerChanged
;	COMDAT xdata$x
xdata$x	SEGMENT
$T189451 DD	0ffffffffH
	DD	FLAT:$L189446
$T189449 DD	019930520H
	DD	01H
	DD	FLAT:$T189451
	DD	2 DUP(00H)
	DD	2 DUP(00H)
; Function compile flags: /Odt /RTCsu
xdata$x	ENDS
;	COMDAT ?ILayoutChangeOb_PaneChanged@ILayoutChangeObserver@@UAEXV?$basic_string@DU?$char_traits@D@std@@V?$allocator@D@2@@std@@0@Z
_TEXT	SEGMENT
_this$ = -16						; size = 4
__$EHRec$ = -12						; size = 12
_oldPaneName$ = 8					; size = 28
_newPaneName$ = 36					; size = 28
?ILayoutChangeOb_PaneChanged@ILayoutChangeObserver@@UAEXV?$basic_string@DU?$char_traits@D@std@@V?$allocator@D@2@@std@@0@Z PROC NEAR ; ILayoutChangeObserver::ILayoutChangeOb_PaneChanged, COMDAT
; _this$ = ecx

; 10   : 	virtual void	ILayoutChangeOb_PaneChanged(string oldPaneName, string newPaneName){};

  00000	55		 push	 ebp
  00001	8b ec		 mov	 ebp, esp
  00003	6a ff		 push	 -1
  00005	68 00 00 00 00	 push	 __ehhandler$?ILayoutChangeOb_PaneChanged@ILayoutChangeObserver@@UAEXV?$basic_string@DU?$char_traits@D@std@@V?$allocator@D@2@@std@@0@Z
  0000a	64 a1 00 00 00
	00		 mov	 eax, DWORD PTR fs:__except_list
  00010	50		 push	 eax
  00011	64 89 25 00 00
	00 00		 mov	 DWORD PTR fs:__except_list, esp
  00018	51		 push	 ecx
  00019	56		 push	 esi
  0001a	c7 45 f0 cc cc
	cc cc		 mov	 DWORD PTR [ebp-16], -858993460 ; ccccccccH
  00021	89 4d f0	 mov	 DWORD PTR _this$[ebp], ecx
  00024	c7 45 fc 00 00
	00 00		 mov	 DWORD PTR __$EHRec$[ebp+8], 0
  0002b	8b f4		 mov	 esi, esp
  0002d	8d 4d 08	 lea	 ecx, DWORD PTR _oldPaneName$[ebp]
  00030	ff 15 00 00 00
	00		 call	 DWORD PTR __imp_??1?$basic_string@DU?$char_traits@D@std@@V?$allocator@D@2@@std@@QAE@XZ
  00036	3b f4		 cmp	 esi, esp
  00038	e8 00 00 00 00	 call	 __RTC_CheckEsp
  0003d	c7 45 fc ff ff
	ff ff		 mov	 DWORD PTR __$EHRec$[ebp+8], -1
  00044	8b f4		 mov	 esi, esp
  00046	8d 4d 24	 lea	 ecx, DWORD PTR _newPaneName$[ebp]
  00049	ff 15 00 00 00
	00		 call	 DWORD PTR __imp_??1?$basic_string@DU?$char_traits@D@std@@V?$allocator@D@2@@std@@QAE@XZ
  0004f	3b f4		 cmp	 esi, esp
  00051	e8 00 00 00 00	 call	 __RTC_CheckEsp
  00056	8b 4d f4	 mov	 ecx, DWORD PTR __$EHRec$[ebp]
  00059	64 89 0d 00 00
	00 00		 mov	 DWORD PTR fs:__except_list, ecx
  00060	5e		 pop	 esi
  00061	83 c4 10	 add	 esp, 16			; 00000010H
  00064	3b ec		 cmp	 ebp, esp
  00066	e8 00 00 00 00	 call	 __RTC_CheckEsp
  0006b	8b e5		 mov	 esp, ebp
  0006d	5d		 pop	 ebp
  0006e	c2 38 00	 ret	 56			; 00000038H
_TEXT	ENDS
;	COMDAT text$x
text$x	SEGMENT
$L189446:
  00000	8b f4		 mov	 esi, esp
  00002	8d 4d 24	 lea	 ecx, DWORD PTR _newPaneName$[ebp]
  00005	ff 15 00 00 00
	00		 call	 DWORD PTR __imp_??1?$basic_string@DU?$char_traits@D@std@@V?$allocator@D@2@@std@@QAE@XZ
  0000b	3b f4		 cmp	 esi, esp
  0000d	e9 00 00 00 00	 jmp	 __RTC_CheckEsp
__ehhandler$?ILayoutChangeOb_PaneChanged@ILayoutChangeObserver@@UAEXV?$basic_string@DU?$char_traits@D@std@@V?$allocator@D@2@@std@@0@Z:
  00012	b8 00 00 00 00	 mov	 eax, OFFSET FLAT:$T189449
  00017	e9 00 00 00 00	 jmp	 ___CxxFrameHandler
text$x	ENDS
?ILayoutChangeOb_PaneChanged@ILayoutChangeObserver@@UAEXV?$basic_string@DU?$char_traits@D@std@@V?$allocator@D@2@@std@@0@Z ENDP ; ILayoutChangeObserver::ILayoutChangeOb_PaneChanged
;	COMDAT xdata$x
xdata$x	SEGMENT
$T189460 DD	0ffffffffH
	DD	FLAT:$L189455
$T189458 DD	019930520H
	DD	01H
	DD	FLAT:$T189460
	DD	2 DUP(00H)
	DD	2 DUP(00H)
; Function compile flags: /Odt /RTCsu
xdata$x	ENDS
;	COMDAT ?ILayoutChangeOb_SkinChanged@ILayoutChangeObserver@@UAEXV?$basic_string@DU?$char_traits@D@std@@V?$allocator@D@2@@std@@0@Z
_TEXT	SEGMENT
_this$ = -16						; size = 4
__$EHRec$ = -12						; size = 12
_oldSkinPath$ = 8					; size = 28
_newSkinPath$ = 36					; size = 28
?ILayoutChangeOb_SkinChanged@ILayoutChangeObserver@@UAEXV?$basic_string@DU?$char_traits@D@std@@V?$allocator@D@2@@std@@0@Z PROC NEAR ; ILayoutChangeObserver::ILayoutChangeOb_SkinChanged, COMDAT
; _this$ = ecx

; 11   : 	virtual void	ILayoutChangeOb_SkinChanged(string oldSkinPath, string newSkinPath){};

  00000	55		 push	 ebp
  00001	8b ec		 mov	 ebp, esp
  00003	6a ff		 push	 -1
  00005	68 00 00 00 00	 push	 __ehhandler$?ILayoutChangeOb_SkinChanged@ILayoutChangeObserver@@UAEXV?$basic_string@DU?$char_traits@D@std@@V?$allocator@D@2@@std@@0@Z
  0000a	64 a1 00 00 00
	00		 mov	 eax, DWORD PTR fs:__except_list
  00010	50		 push	 eax
  00011	64 89 25 00 00
	00 00		 mov	 DWORD PTR fs:__except_list, esp
  00018	51		 push	 ecx
  00019	56		 push	 esi
  0001a	c7 45 f0 cc cc
	cc cc		 mov	 DWORD PTR [ebp-16], -858993460 ; ccccccccH
  00021	89 4d f0	 mov	 DWORD PTR _this$[ebp], ecx
  00024	c7 45 fc 00 00
	00 00		 mov	 DWORD PTR __$EHRec$[ebp+8], 0
  0002b	8b f4		 mov	 esi, esp
  0002d	8d 4d 08	 lea	 ecx, DWORD PTR _oldSkinPath$[ebp]
  00030	ff 15 00 00 00
	00		 call	 DWORD PTR __imp_??1?$basic_string@DU?$char_traits@D@std@@V?$allocator@D@2@@std@@QAE@XZ
  00036	3b f4		 cmp	 esi, esp
  00038	e8 00 00 00 00	 call	 __RTC_CheckEsp
  0003d	c7 45 fc ff ff
	ff ff		 mov	 DWORD PTR __$EHRec$[ebp+8], -1
  00044	8b f4		 mov	 esi, esp
  00046	8d 4d 24	 lea	 ecx, DWORD PTR _newSkinPath$[ebp]
  00049	ff 15 00 00 00
	00		 call	 DWORD PTR __imp_??1?$basic_string@DU?$char_traits@D@std@@V?$allocator@D@2@@std@@QAE@XZ
  0004f	3b f4		 cmp	 esi, esp
  00051	e8 00 00 00 00	 call	 __RTC_CheckEsp
  00056	8b 4d f4	 mov	 ecx, DWORD PTR __$EHRec$[ebp]
  00059	64 89 0d 00 00
	00 00		 mov	 DWORD PTR fs:__except_list, ecx
  00060	5e		 pop	 esi
  00061	83 c4 10	 add	 esp, 16			; 00000010H
  00064	3b ec		 cmp	 ebp, esp
  00066	e8 00 00 00 00	 call	 __RTC_CheckEsp
  0006b	8b e5		 mov	 esp, ebp
  0006d	5d		 pop	 ebp
  0006e	c2 38 00	 ret	 56			; 00000038H
_TEXT	ENDS
;	COMDAT text$x
text$x	SEGMENT
$L189455:
  00000	8b f4		 mov	 esi, esp
  00002	8d 4d 24	 lea	 ecx, DWORD PTR _newSkinPath$[ebp]
  00005	ff 15 00 00 00
	00		 call	 DWORD PTR __imp_??1?$basic_string@DU?$char_traits@D@std@@V?$allocator@D@2@@std@@QAE@XZ
  0000b	3b f4		 cmp	 esi, esp
  0000d	e9 00 00 00 00	 jmp	 __RTC_CheckEsp
__ehhandler$?ILayoutChangeOb_SkinChanged@ILayoutChangeObserver@@UAEXV?$basic_string@DU?$char_traits@D@std@@V?$allocator@D@2@@std@@0@Z:
  00012	b8 00 00 00 00	 mov	 eax, OFFSET FLAT:$T189458
  00017	e9 00 00 00 00	 jmp	 ___CxxFrameHandler
text$x	ENDS
?ILayoutChangeOb_SkinChanged@ILayoutChangeObserver@@UAEXV?$basic_string@DU?$char_traits@D@std@@V?$allocator@D@2@@std@@0@Z ENDP ; ILayoutChangeObserver::ILayoutChangeOb_SkinChanged
; Function compile flags: /Odt /RTCsu
;	COMDAT ?ILayoutChangeOb_ColorChanged@ILayoutChangeObserver@@UAEXXZ
_TEXT	SEGMENT
_this$ = -4						; size = 4
?ILayoutChangeOb_ColorChanged@ILayoutChangeObserver@@UAEXXZ PROC NEAR ; ILayoutChangeObserver::ILayoutChangeOb_ColorChanged, COMDAT
; _this$ = ecx

; 12   : 	virtual void	ILayoutChangeOb_ColorChanged(){};

  00000	55		 push	 ebp
  00001	8b ec		 mov	 ebp, esp
  00003	51		 push	 ecx
  00004	c7 45 fc cc cc
	cc cc		 mov	 DWORD PTR [ebp-4], -858993460 ; ccccccccH
  0000b	89 4d fc	 mov	 DWORD PTR _this$[ebp], ecx
  0000e	8b e5		 mov	 esp, ebp
  00010	5d		 pop	 ebp
  00011	c3		 ret	 0
?ILayoutChangeOb_ColorChanged@ILayoutChangeObserver@@UAEXXZ ENDP ; ILayoutChangeObserver::ILayoutChangeOb_ColorChanged
; Function compile flags: /Odt /RTCsu
_TEXT	ENDS
;	COMDAT ?ILayoutChangeOb_ColorChanging@ILayoutChangeObserver@@UAEXXZ
_TEXT	SEGMENT
_this$ = -4						; size = 4
?ILayoutChangeOb_ColorChanging@ILayoutChangeObserver@@UAEXXZ PROC NEAR ; ILayoutChangeObserver::ILayoutChangeOb_ColorChanging, COMDAT
; _this$ = ecx

; 13   : 	virtual void	ILayoutChangeOb_ColorChanging(){};

  00000	55		 push	 ebp
  00001	8b ec		 mov	 ebp, esp
  00003	51		 push	 ecx
  00004	c7 45 fc cc cc
	cc cc		 mov	 DWORD PTR [ebp-4], -858993460 ; ccccccccH
  0000b	89 4d fc	 mov	 DWORD PTR _this$[ebp], ecx
  0000e	8b e5		 mov	 esp, ebp
  00010	5d		 pop	 ebp
  00011	c3		 ret	 0
?ILayoutChangeOb_ColorChanging@ILayoutChangeObserver@@UAEXXZ ENDP ; ILayoutChangeObserver::ILayoutChangeOb_ColorChanging
; Function compile flags: /Odt /RTCsu
_TEXT	ENDS
;	COMDAT ?ILayoutChangeOb_UpdateLayout@ILayoutChangeObserver@@UAEXPAUHWND__@@@Z
_TEXT	SEGMENT
_this$ = -4						; size = 4
_m_hWnd$ = 8						; size = 4
?ILayoutChangeOb_UpdateLayout@ILayoutChangeObserver@@UAEXPAUHWND__@@@Z PROC NEAR ; ILayoutChangeObserver::ILayoutChangeOb_UpdateLayout, COMDAT
; _this$ = ecx

; 14   : 	virtual void	ILayoutChangeOb_UpdateLayout(HWND m_hWnd){};

  00000	55		 push	 ebp
  00001	8b ec		 mov	 ebp, esp
  00003	51		 push	 ecx
  00004	c7 45 fc cc cc
	cc cc		 mov	 DWORD PTR [ebp-4], -858993460 ; ccccccccH
  0000b	89 4d fc	 mov	 DWORD PTR _this$[ebp], ecx
  0000e	8b e5		 mov	 esp, ebp
  00010	5d		 pop	 ebp
  00011	c2 04 00	 ret	 4
?ILayoutChangeOb_UpdateLayout@ILayoutChangeObserver@@UAEXPAUHWND__@@@Z ENDP ; ILayoutChangeObserver::ILayoutChangeOb_UpdateLayout
; Function compile flags: /Odt /RTCsu
_TEXT	ENDS
;	COMDAT ?ILayoutChangeOb_InitFinished@ILayoutChangeObserver@@UAEXXZ
_TEXT	SEGMENT
_this$ = -4						; size = 4
?ILayoutChangeOb_InitFinished@ILayoutChangeObserver@@UAEXXZ PROC NEAR ; ILayoutChangeObserver::ILayoutChangeOb_InitFinished, COMDAT
; _this$ = ecx

; 15   : 	virtual void	ILayoutChangeOb_InitFinished(){};

  00000	55		 push	 ebp
  00001	8b ec		 mov	 ebp, esp
  00003	51		 push	 ecx
  00004	c7 45 fc cc cc
	cc cc		 mov	 DWORD PTR [ebp-4], -858993460 ; ccccccccH
  0000b	89 4d fc	 mov	 DWORD PTR _this$[ebp], ecx
  0000e	8b e5		 mov	 esp, ebp
  00010	5d		 pop	 ebp
  00011	c3		 ret	 0
?ILayoutChangeOb_InitFinished@ILayoutChangeObserver@@UAEXXZ ENDP ; ILayoutChangeObserver::ILayoutChangeOb_InitFinished
; Function compile flags: /Odt /RTCsu
_TEXT	ENDS
;	COMDAT ?ILayoutChangeOb_InitBegin@ILayoutChangeObserver@@UAEXXZ
_TEXT	SEGMENT
_this$ = -4						; size = 4
?ILayoutChangeOb_InitBegin@ILayoutChangeObserver@@UAEXXZ PROC NEAR ; ILayoutChangeObserver::ILayoutChangeOb_InitBegin, COMDAT
; _this$ = ecx

; 16   : 	virtual void	ILayoutChangeOb_InitBegin(){};

  00000	55		 push	 ebp
  00001	8b ec		 mov	 ebp, esp
  00003	51		 push	 ecx
  00004	c7 45 fc cc cc
	cc cc		 mov	 DWORD PTR [ebp-4], -858993460 ; ccccccccH
  0000b	89 4d fc	 mov	 DWORD PTR _this$[ebp], ecx
  0000e	8b e5		 mov	 esp, ebp
  00010	5d		 pop	 ebp
  00011	c3		 ret	 0
?ILayoutChangeOb_InitBegin@ILayoutChangeObserver@@UAEXXZ ENDP ; ILayoutChangeObserver::ILayoutChangeOb_InitBegin
_TEXT	ENDS
PUBLIC	??1CTabPageParentWnd@@UAE@XZ			; CTabPageParentWnd::~CTabPageParentWnd
EXTRN	??3CObject@@SGXPAX@Z:NEAR			; CObject::operator delete
; Function compile flags: /Odt /RTCsu
;	COMDAT ??_GCTabPageParentWnd@@UAEPAXI@Z
_TEXT	SEGMENT
_this$ = -4						; size = 4
___flags$ = 8						; size = 4
??_GCTabPageParentWnd@@UAEPAXI@Z PROC NEAR		; CTabPageParentWnd::`scalar deleting destructor', COMDAT
; _this$ = ecx
  00000	55		 push	 ebp
  00001	8b ec		 mov	 ebp, esp
  00003	51		 push	 ecx
  00004	c7 45 fc cc cc
	cc cc		 mov	 DWORD PTR [ebp-4], -858993460 ; ccccccccH
  0000b	89 4d fc	 mov	 DWORD PTR _this$[ebp], ecx
  0000e	8b 4d fc	 mov	 ecx, DWORD PTR _this$[ebp]
  00011	e8 00 00 00 00	 call	 ??1CTabPageParentWnd@@UAE@XZ ; CTabPageParentWnd::~CTabPageParentWnd
  00016	8b 45 08	 mov	 eax, DWORD PTR ___flags$[ebp]
  00019	83 e0 01	 and	 eax, 1
  0001c	74 09		 je	 SHORT $L188772
  0001e	8b 4d fc	 mov	 ecx, DWORD PTR _this$[ebp]
  00021	51		 push	 ecx
  00022	e8 00 00 00 00	 call	 ??3CObject@@SGXPAX@Z	; CObject::operator delete
$L188772:
  00027	8b 45 fc	 mov	 eax, DWORD PTR _this$[ebp]
  0002a	83 c4 04	 add	 esp, 4
  0002d	3b ec		 cmp	 ebp, esp
  0002f	e8 00 00 00 00	 call	 __RTC_CheckEsp
  00034	8b e5		 mov	 esp, ebp
  00036	5d		 pop	 ebp
  00037	c2 04 00	 ret	 4
??_GCTabPageParentWnd@@UAEPAXI@Z ENDP			; CTabPageParentWnd::`scalar deleting destructor'
_TEXT	ENDS
PUBLIC	??0IMessageObserver@@QAE@XZ			; IMessageObserver::IMessageObserver
PUBLIC	??_R1A@?0A@A@IMessageObserver@@8		; IMessageObserver::`RTTI Base Class Descriptor at (0,-1,0,0)'
PUBLIC	??_R4ILayoutChangeObserver@@6B@			; ILayoutChangeObserver::`RTTI Complete Object Locator'
PUBLIC	??_R3ILayoutChangeObserver@@8			; ILayoutChangeObserver::`RTTI Class Hierarchy Descriptor'
PUBLIC	??_R2ILayoutChangeObserver@@8			; ILayoutChangeObserver::`RTTI Base Class Array'
PUBLIC	??_R1A@?0A@A@ILayoutChangeObserver@@8		; ILayoutChangeObserver::`RTTI Base Class Descriptor at (0,-1,0,0)'
PUBLIC	??_7ILayoutChangeObserver@@6B@			; ILayoutChangeObserver::`vftable'
PUBLIC	??_GILayoutChangeObserver@@UAEPAXI@Z		; ILayoutChangeObserver::`scalar deleting destructor'
EXTRN	??_EILayoutChangeObserver@@UAEPAXI@Z:NEAR	; ILayoutChangeObserver::`vector deleting destructor'
;	COMDAT ??_7ILayoutChangeObserver@@6B@
CONST	SEGMENT
??_7ILayoutChangeObserver@@6B@ DD FLAT:??_R4ILayoutChangeObserver@@6B@ ; ILayoutChangeObserver::`vftable'
	DD	FLAT:??_EILayoutChangeObserver@@UAEPAXI@Z
	DD	FLAT:?ILayoutChangeOb_LayerChanged@ILayoutChangeObserver@@UAEXV?$basic_string@DU?$char_traits@D@std@@V?$allocator@D@2@@std@@00@Z
	DD	FLAT:?ILayoutChangeOb_PaneChanged@ILayoutChangeObserver@@UAEXV?$basic_string@DU?$char_traits@D@std@@V?$allocator@D@2@@std@@0@Z
	DD	FLAT:?ILayoutChangeOb_SkinChanged@ILayoutChangeObserver@@UAEXV?$basic_string@DU?$char_traits@D@std@@V?$allocator@D@2@@std@@0@Z
	DD	FLAT:?ILayoutChangeOb_ColorChanged@ILayoutChangeObserver@@UAEXXZ
	DD	FLAT:?ILayoutChangeOb_ColorChanging@ILayoutChangeObserver@@UAEXXZ
	DD	FLAT:?ILayoutChangeOb_UpdateLayout@ILayoutChangeObserver@@UAEXPAUHWND__@@@Z
	DD	FLAT:?ILayoutChangeOb_InitFinished@ILayoutChangeObserver@@UAEXXZ
	DD	FLAT:?ILayoutChangeOb_InitBegin@ILayoutChangeObserver@@UAEXXZ
CONST	ENDS
;	COMDAT ??_R4ILayoutChangeObserver@@6B@
rdata$r	SEGMENT
??_R4ILayoutChangeObserver@@6B@ DD 00H			; ILayoutChangeObserver::`RTTI Complete Object Locator'
	DD	00H
	DD	00H
	DD	FLAT:??_R0?AVILayoutChangeObserver@@@8
	DD	FLAT:??_R3ILayoutChangeObserver@@8
rdata$r	ENDS
;	COMDAT ??_R3ILayoutChangeObserver@@8
rdata$r	SEGMENT
??_R3ILayoutChangeObserver@@8 DD 00H			; ILayoutChangeObserver::`RTTI Class Hierarchy Descriptor'
	DD	00H
	DD	02H
	DD	FLAT:??_R2ILayoutChangeObserver@@8
rdata$r	ENDS
;	COMDAT ??_R2ILayoutChangeObserver@@8
rdata$r	SEGMENT
??_R2ILayoutChangeObserver@@8 DD FLAT:??_R1A@?0A@A@ILayoutChangeObserver@@8 ; ILayoutChangeObserver::`RTTI Base Class Array'
	DD	FLAT:??_R1A@?0A@A@IMessageObserver@@8
rdata$r	ENDS
;	COMDAT ??_R1A@?0A@A@ILayoutChangeObserver@@8
rdata$r	SEGMENT
??_R1A@?0A@A@ILayoutChangeObserver@@8 DD FLAT:??_R0?AVILayoutChangeObserver@@@8 ; ILayoutChangeObserver::`RTTI Base Class Descriptor at (0,-1,0,0)'
	DD	01H
	DD	00H
	DD	0ffffffffH
	DD	00H
	DD	00H
rdata$r	ENDS
;	COMDAT ??_R1A@?0A@A@IMessageObserver@@8
rdata$r	SEGMENT
??_R1A@?0A@A@IMessageObserver@@8 DD FLAT:??_R0?AVIMessageObserver@@@8 ; IMessageObserver::`RTTI Base Class Descriptor at (0,-1,0,0)'
	DD	00H
	DD	00H
	DD	0ffffffffH
	DD	00H
	DD	00H
; Function compile flags: /Odt /RTCsu
rdata$r	ENDS
;	COMDAT ??0ILayoutChangeObserver@@QAE@XZ
_TEXT	SEGMENT
_this$ = -4						; size = 4
??0ILayoutChangeObserver@@QAE@XZ PROC NEAR		; ILayoutChangeObserver::ILayoutChangeObserver, COMDAT
; _this$ = ecx
  00000	55		 push	 ebp
  00001	8b ec		 mov	 ebp, esp
  00003	51		 push	 ecx
  00004	c7 45 fc cc cc
	cc cc		 mov	 DWORD PTR [ebp-4], -858993460 ; ccccccccH
  0000b	89 4d fc	 mov	 DWORD PTR _this$[ebp], ecx
  0000e	8b 4d fc	 mov	 ecx, DWORD PTR _this$[ebp]
  00011	e8 00 00 00 00	 call	 ??0IMessageObserver@@QAE@XZ
  00016	8b 45 fc	 mov	 eax, DWORD PTR _this$[ebp]
  00019	c7 00 00 00 00
	00		 mov	 DWORD PTR [eax], OFFSET FLAT:??_7ILayoutChangeObserver@@6B@
  0001f	8b 45 fc	 mov	 eax, DWORD PTR _this$[ebp]
  00022	83 c4 04	 add	 esp, 4
  00025	3b ec		 cmp	 ebp, esp
  00027	e8 00 00 00 00	 call	 __RTC_CheckEsp
  0002c	8b e5		 mov	 esp, ebp
  0002e	5d		 pop	 ebp
  0002f	c3		 ret	 0
??0ILayoutChangeObserver@@QAE@XZ ENDP			; ILayoutChangeObserver::ILayoutChangeObserver
_TEXT	ENDS
PUBLIC	??1ILayoutChangeObserver@@UAE@XZ		; ILayoutChangeObserver::~ILayoutChangeObserver
EXTRN	??3@YAXPAX@Z:NEAR				; operator delete
; Function compile flags: /Odt /RTCsu
;	COMDAT ??_GILayoutChangeObserver@@UAEPAXI@Z
_TEXT	SEGMENT
_this$ = -4						; size = 4
___flags$ = 8						; size = 4
??_GILayoutChangeObserver@@UAEPAXI@Z PROC NEAR		; ILayoutChangeObserver::`scalar deleting destructor', COMDAT
; _this$ = ecx
  00000	55		 push	 ebp
  00001	8b ec		 mov	 ebp, esp
  00003	51		 push	 ecx
  00004	c7 45 fc cc cc
	cc cc		 mov	 DWORD PTR [ebp-4], -858993460 ; ccccccccH
  0000b	89 4d fc	 mov	 DWORD PTR _this$[ebp], ecx
  0000e	8b 4d fc	 mov	 ecx, DWORD PTR _this$[ebp]
  00011	e8 00 00 00 00	 call	 ??1ILayoutChangeObserver@@UAE@XZ
  00016	8b 45 08	 mov	 eax, DWORD PTR ___flags$[ebp]
  00019	83 e0 01	 and	 eax, 1
  0001c	74 0c		 je	 SHORT $L188780
  0001e	8b 4d fc	 mov	 ecx, DWORD PTR _this$[ebp]
  00021	51		 push	 ecx
  00022	e8 00 00 00 00	 call	 ??3@YAXPAX@Z		; operator delete
  00027	83 c4 04	 add	 esp, 4
$L188780:
  0002a	8b 45 fc	 mov	 eax, DWORD PTR _this$[ebp]
  0002d	83 c4 04	 add	 esp, 4
  00030	3b ec		 cmp	 ebp, esp
  00032	e8 00 00 00 00	 call	 __RTC_CheckEsp
  00037	8b e5		 mov	 esp, ebp
  00039	5d		 pop	 ebp
  0003a	c2 04 00	 ret	 4
??_GILayoutChangeObserver@@UAEPAXI@Z ENDP		; ILayoutChangeObserver::`scalar deleting destructor'
_TEXT	ENDS
PUBLIC	??1IMessageObserver@@UAE@XZ			; IMessageObserver::~IMessageObserver
; Function compile flags: /Odt /RTCsu
;	COMDAT ??1ILayoutChangeObserver@@UAE@XZ
_TEXT	SEGMENT
_this$ = -4						; size = 4
??1ILayoutChangeObserver@@UAE@XZ PROC NEAR		; ILayoutChangeObserver::~ILayoutChangeObserver, COMDAT
; _this$ = ecx
  00000	55		 push	 ebp
  00001	8b ec		 mov	 ebp, esp
  00003	51		 push	 ecx
  00004	c7 45 fc cc cc
	cc cc		 mov	 DWORD PTR [ebp-4], -858993460 ; ccccccccH
  0000b	89 4d fc	 mov	 DWORD PTR _this$[ebp], ecx
  0000e	8b 4d fc	 mov	 ecx, DWORD PTR _this$[ebp]
  00011	e8 00 00 00 00	 call	 ??1IMessageObserver@@UAE@XZ ; IMessageObserver::~IMessageObserver
  00016	83 c4 04	 add	 esp, 4
  00019	3b ec		 cmp	 ebp, esp
  0001b	e8 00 00 00 00	 call	 __RTC_CheckEsp
  00020	8b e5		 mov	 esp, ebp
  00022	5d		 pop	 ebp
  00023	c3		 ret	 0
??1ILayoutChangeObserver@@UAE@XZ ENDP			; ILayoutChangeObserver::~ILayoutChangeObserver
_TEXT	ENDS
PUBLIC	??_7IMessageObserver@@6B@			; IMessageObserver::`vftable'
PUBLIC	??_GIMessageObserver@@UAEPAXI@Z			; IMessageObserver::`scalar deleting destructor'
PUBLIC	??_R4IMessageObserver@@6B@			; IMessageObserver::`RTTI Complete Object Locator'
PUBLIC	??_R3IMessageObserver@@8			; IMessageObserver::`RTTI Class Hierarchy Descriptor'
PUBLIC	??_R2IMessageObserver@@8			; IMessageObserver::`RTTI Base Class Array'
EXTRN	??_EIMessageObserver@@UAEPAXI@Z:NEAR		; IMessageObserver::`vector deleting destructor'
;	COMDAT ??_7IMessageObserver@@6B@
CONST	SEGMENT
??_7IMessageObserver@@6B@ DD FLAT:??_R4IMessageObserver@@6B@ ; IMessageObserver::`vftable'
	DD	FLAT:??_EIMessageObserver@@UAEPAXI@Z
CONST	ENDS
;	COMDAT ??_R4IMessageObserver@@6B@
rdata$r	SEGMENT
??_R4IMessageObserver@@6B@ DD 00H			; IMessageObserver::`RTTI Complete Object Locator'
	DD	00H
	DD	00H
	DD	FLAT:??_R0?AVIMessageObserver@@@8
	DD	FLAT:??_R3IMessageObserver@@8
rdata$r	ENDS
;	COMDAT ??_R3IMessageObserver@@8
rdata$r	SEGMENT
??_R3IMessageObserver@@8 DD 00H				; IMessageObserver::`RTTI Class Hierarchy Descriptor'
	DD	00H
	DD	01H
	DD	FLAT:??_R2IMessageObserver@@8
rdata$r	ENDS
;	COMDAT ??_R2IMessageObserver@@8
rdata$r	SEGMENT
??_R2IMessageObserver@@8 DD FLAT:??_R1A@?0A@A@IMessageObserver@@8 ; IMessageObserver::`RTTI Base Class Array'
; Function compile flags: /Odt /RTCsu
rdata$r	ENDS
;	COMDAT ??0IMessageObserver@@QAE@XZ
_TEXT	SEGMENT
_this$ = -4						; size = 4
??0IMessageObserver@@QAE@XZ PROC NEAR			; IMessageObserver::IMessageObserver, COMDAT
; _this$ = ecx
  00000	55		 push	 ebp
  00001	8b ec		 mov	 ebp, esp
  00003	51		 push	 ecx
  00004	c7 45 fc cc cc
	cc cc		 mov	 DWORD PTR [ebp-4], -858993460 ; ccccccccH
  0000b	89 4d fc	 mov	 DWORD PTR _this$[ebp], ecx
  0000e	8b 45 fc	 mov	 eax, DWORD PTR _this$[ebp]
  00011	c7 00 00 00 00
	00		 mov	 DWORD PTR [eax], OFFSET FLAT:??_7IMessageObserver@@6B@
  00017	8b 45 fc	 mov	 eax, DWORD PTR _this$[ebp]
  0001a	8b e5		 mov	 esp, ebp
  0001c	5d		 pop	 ebp
  0001d	c3		 ret	 0
??0IMessageObserver@@QAE@XZ ENDP			; IMessageObserver::IMessageObserver
_TEXT	ENDS
EXTRN	?DelInstance@CTabPageControl@@SAXXZ:NEAR	; CTabPageControl::DelInstance
EXTRN	??1CBasicWnd@@UAE@XZ:NEAR			; CBasicWnd::~CBasicWnd
xdata$x	SEGMENT
$T189484 DD	0ffffffffH
	DD	FLAT:$L189477
	DD	00H
	DD	FLAT:$L189480
$T189482 DD	019930520H
	DD	02H
	DD	FLAT:$T189484
	DD	2 DUP(00H)
	DD	2 DUP(00H)
; Function compile flags: /Odt /RTCsu
; File d:\boxgit\playbox\playbox\dev\prj\playbox\src\module\tabman\tabpageparentwnd.cpp
xdata$x	ENDS
_TEXT	SEGMENT
tv68 = -20						; size = 4
_this$ = -16						; size = 4
__$EHRec$ = -12						; size = 12
??1CTabPageParentWnd@@UAE@XZ PROC NEAR			; CTabPageParentWnd::~CTabPageParentWnd
; _this$ = ecx

; 12   : {

  00080	55		 push	 ebp
  00081	8b ec		 mov	 ebp, esp
  00083	6a ff		 push	 -1
  00085	68 00 00 00 00	 push	 __ehhandler$??1CTabPageParentWnd@@UAE@XZ
  0008a	64 a1 00 00 00
	00		 mov	 eax, DWORD PTR fs:__except_list
  00090	50		 push	 eax
  00091	64 89 25 00 00
	00 00		 mov	 DWORD PTR fs:__except_list, esp
  00098	83 ec 08	 sub	 esp, 8
  0009b	c7 45 ec cc cc
	cc cc		 mov	 DWORD PTR [ebp-20], -858993460 ; ccccccccH
  000a2	c7 45 f0 cc cc
	cc cc		 mov	 DWORD PTR [ebp-16], -858993460 ; ccccccccH
  000a9	89 4d f0	 mov	 DWORD PTR _this$[ebp], ecx
  000ac	8b 45 f0	 mov	 eax, DWORD PTR _this$[ebp]
  000af	c7 00 00 00 00
	00		 mov	 DWORD PTR [eax], OFFSET FLAT:??_7CTabPageParentWnd@@6BCBasicWnd@@@
  000b5	8b 4d f0	 mov	 ecx, DWORD PTR _this$[ebp]
  000b8	c7 41 54 00 00
	00 00		 mov	 DWORD PTR [ecx+84], OFFSET FLAT:??_7CTabPageParentWnd@@6BILayoutChangeObserver@@@
  000bf	c7 45 fc 01 00
	00 00		 mov	 DWORD PTR __$EHRec$[ebp+8], 1

; 13   : 	CTabPageControl::DelInstance();

  000c6	e8 00 00 00 00	 call	 ?DelInstance@CTabPageControl@@SAXXZ ; CTabPageControl::DelInstance

; 14   : }

  000cb	c6 45 fc 00	 mov	 BYTE PTR __$EHRec$[ebp+8], 0
  000cf	83 7d f0 00	 cmp	 DWORD PTR _this$[ebp], 0
  000d3	74 0b		 je	 SHORT $L189475
  000d5	8b 55 f0	 mov	 edx, DWORD PTR _this$[ebp]
  000d8	83 c2 54	 add	 edx, 84			; 00000054H
  000db	89 55 ec	 mov	 DWORD PTR tv68[ebp], edx
  000de	eb 07		 jmp	 SHORT $L189476
$L189475:
  000e0	c7 45 ec 00 00
	00 00		 mov	 DWORD PTR tv68[ebp], 0
$L189476:
  000e7	8b 4d ec	 mov	 ecx, DWORD PTR tv68[ebp]
  000ea	e8 00 00 00 00	 call	 ??1ILayoutChangeObserver@@UAE@XZ
  000ef	c7 45 fc ff ff
	ff ff		 mov	 DWORD PTR __$EHRec$[ebp+8], -1
  000f6	8b 4d f0	 mov	 ecx, DWORD PTR _this$[ebp]
  000f9	e8 00 00 00 00	 call	 ??1CBasicWnd@@UAE@XZ	; CBasicWnd::~CBasicWnd
  000fe	8b 4d f4	 mov	 ecx, DWORD PTR __$EHRec$[ebp]
  00101	64 89 0d 00 00
	00 00		 mov	 DWORD PTR fs:__except_list, ecx
  00108	83 c4 14	 add	 esp, 20			; 00000014H
  0010b	3b ec		 cmp	 ebp, esp
  0010d	e8 00 00 00 00	 call	 __RTC_CheckEsp
  00112	8b e5		 mov	 esp, ebp
  00114	5d		 pop	 ebp
  00115	c3		 ret	 0
_TEXT	ENDS
text$x	SEGMENT
$L189477:
  00000	8b 4d f0	 mov	 ecx, DWORD PTR _this$[ebp]
  00003	e9 00 00 00 00	 jmp	 ??1CBasicWnd@@UAE@XZ	; CBasicWnd::~CBasicWnd
$L189480:
  00008	83 7d f0 00	 cmp	 DWORD PTR _this$[ebp], 0
  0000c	0f 84 0e 00 00
	00		 je	 $L189478
  00012	8b 45 f0	 mov	 eax, DWORD PTR _this$[ebp]
  00015	83 c0 54	 add	 eax, 84			; 00000054H
  00018	89 45 ec	 mov	 DWORD PTR tv68[ebp], eax
  0001b	e9 07 00 00 00	 jmp	 $L189479
$L189478:
  00020	c7 45 ec 00 00
	00 00		 mov	 DWORD PTR tv68[ebp], 0
$L189479:
  00027	8b 4d ec	 mov	 ecx, DWORD PTR tv68[ebp]
  0002a	e9 00 00 00 00	 jmp	 ??1ILayoutChangeObserver@@UAE@XZ
__ehhandler$??1CTabPageParentWnd@@UAE@XZ:
  0002f	b8 00 00 00 00	 mov	 eax, OFFSET FLAT:$T189482
  00034	e9 00 00 00 00	 jmp	 ___CxxFrameHandler
text$x	ENDS
??1CTabPageParentWnd@@UAE@XZ ENDP			; CTabPageParentWnd::~CTabPageParentWnd
PUBLIC	?GetThisMessageMap@CTabPageParentWnd@@KGPBUAFX_MSGMAP@@XZ ; CTabPageParentWnd::GetThisMessageMap
; Function compile flags: /Odt /RTCsu
_TEXT	SEGMENT
?GetThisMessageMap@CTabPageParentWnd@@KGPBUAFX_MSGMAP@@XZ PROC NEAR ; CTabPageParentWnd::GetThisMessageMap

; 16   : BEGIN_MESSAGE_MAP(CTabPageParentWnd, CBasicWnd)

  00120	55		 push	 ebp
  00121	8b ec		 mov	 ebp, esp
  00123	b8 00 00 00 00	 mov	 eax, OFFSET FLAT:?messageMap@CTabPageParentWnd@@1UAFX_MSGMAP@@B ; CTabPageParentWnd::messageMap
  00128	5d		 pop	 ebp
  00129	c3		 ret	 0
?GetThisMessageMap@CTabPageParentWnd@@KGPBUAFX_MSGMAP@@XZ ENDP ; CTabPageParentWnd::GetThisMessageMap
; Function compile flags: /Odt /RTCsu
_this$ = -4						; size = 4
?GetMessageMap@CTabPageParentWnd@@MBEPBUAFX_MSGMAP@@XZ PROC NEAR ; CTabPageParentWnd::GetMessageMap
; _this$ = ecx

; 16   : BEGIN_MESSAGE_MAP(CTabPageParentWnd, CBasicWnd)

  00130	55		 push	 ebp
  00131	8b ec		 mov	 ebp, esp
  00133	51		 push	 ecx
  00134	c7 45 fc cc cc
	cc cc		 mov	 DWORD PTR [ebp-4], -858993460 ; ccccccccH
  0013b	89 4d fc	 mov	 DWORD PTR _this$[ebp], ecx
  0013e	b8 00 00 00 00	 mov	 eax, OFFSET FLAT:?messageMap@CTabPageParentWnd@@1UAFX_MSGMAP@@B ; CTabPageParentWnd::messageMap
  00143	8b e5		 mov	 esp, ebp
  00145	5d		 pop	 ebp
  00146	c3		 ret	 0
?GetMessageMap@CTabPageParentWnd@@MBEPBUAFX_MSGMAP@@XZ ENDP ; CTabPageParentWnd::GetMessageMap
_TEXT	ENDS
EXTRN	?GetInstance@CTabPageControl@@SAPAV1@XZ:NEAR	; CTabPageControl::GetInstance
EXTRN	?SetParentWnd@CTabPageControl@@QAEXPAVCWnd@@@Z:NEAR ; CTabPageControl::SetParentWnd
EXTRN	?AfxGetUIManager@@YAPAVIUIManager@@XZ:NEAR	; AfxGetUIManager
EXTRN	?OnCreate@CWnd@@IAEHPAUtagCREATESTRUCTA@@@Z:NEAR ; CWnd::OnCreate
EXTRN	__imp_??0?$CStringT@DV?$StrTraitMFC_DLL@DV?$ChTraitsCRT@D@ATL@@@@@ATL@@QAE@PBD@Z:NEAR
EXTRN	__imp_??1?$CStringT@DV?$StrTraitMFC_DLL@DV?$ChTraitsCRT@D@ATL@@@@@ATL@@QAE@XZ:NEAR
xdata$x	SEGMENT
$T189495 DD	0ffffffffH
	DD	FLAT:$L189490
$T189493 DD	019930520H
	DD	01H
	DD	FLAT:$T189495
	DD	2 DUP(00H)
	DD	2 DUP(00H)
; Function compile flags: /Odt /RTCsu
xdata$x	ENDS
_TEXT	SEGMENT
tv144 = -44						; size = 4
tv141 = -40						; size = 4
tv145 = -36						; size = 4
tv70 = -32						; size = 4
$T189489 = -28						; size = 4
$T189488 = -24						; size = 4
_pLayoutMgr$ = -20					; size = 4
_this$ = -16						; size = 4
__$EHRec$ = -12						; size = 12
_lpCreateStruct$ = 8					; size = 4
?OnCreate@CTabPageParentWnd@@IAEHPAUtagCREATESTRUCTA@@@Z PROC NEAR ; CTabPageParentWnd::OnCreate
; _this$ = ecx

; 24   : {

  00150	55		 push	 ebp
  00151	8b ec		 mov	 ebp, esp
  00153	6a ff		 push	 -1
  00155	68 00 00 00 00	 push	 __ehhandler$?OnCreate@CTabPageParentWnd@@IAEHPAUtagCREATESTRUCTA@@@Z
  0015a	64 a1 00 00 00
	00		 mov	 eax, DWORD PTR fs:__except_list
  00160	50		 push	 eax
  00161	64 89 25 00 00
	00 00		 mov	 DWORD PTR fs:__except_list, esp
  00168	83 ec 20	 sub	 esp, 32			; 00000020H
  0016b	56		 push	 esi
  0016c	b8 cc cc cc cc	 mov	 eax, -858993460		; ccccccccH
  00171	89 45 d4	 mov	 DWORD PTR [ebp-44], eax
  00174	89 45 d8	 mov	 DWORD PTR [ebp-40], eax
  00177	89 45 dc	 mov	 DWORD PTR [ebp-36], eax
  0017a	89 45 e0	 mov	 DWORD PTR [ebp-32], eax
  0017d	89 45 e4	 mov	 DWORD PTR [ebp-28], eax
  00180	89 45 e8	 mov	 DWORD PTR [ebp-24], eax
  00183	89 45 ec	 mov	 DWORD PTR [ebp-20], eax
  00186	89 45 f0	 mov	 DWORD PTR [ebp-16], eax
  00189	89 4d f0	 mov	 DWORD PTR _this$[ebp], ecx

; 25   : 	if(__super::OnCreate(lpCreateStruct) == -1)

  0018c	8b 45 08	 mov	 eax, DWORD PTR _lpCreateStruct$[ebp]
  0018f	50		 push	 eax
  00190	8b 4d f0	 mov	 ecx, DWORD PTR _this$[ebp]
  00193	e8 00 00 00 00	 call	 ?OnCreate@CWnd@@IAEHPAUtagCREATESTRUCTA@@@Z ; CWnd::OnCreate
  00198	83 f8 ff	 cmp	 eax, -1
  0019b	75 08		 jne	 SHORT $L188813

; 26   : 	{
; 27   : 		return -1;

  0019d	83 c8 ff	 or	 eax, -1
  001a0	e9 8e 00 00 00	 jmp	 $L188812
$L188813:

; 28   : 	}
; 29   : 	ILayoutMgr* pLayoutMgr =  AfxGetUIManager()->UIGetLayoutMgr();

  001a5	e8 00 00 00 00	 call	 ?AfxGetUIManager@@YAPAVIUIManager@@XZ ; AfxGetUIManager
  001aa	89 45 e0	 mov	 DWORD PTR tv70[ebp], eax
  001ad	8b 4d e0	 mov	 ecx, DWORD PTR tv70[ebp]
  001b0	8b 11		 mov	 edx, DWORD PTR [ecx]
  001b2	8b f4		 mov	 esi, esp
  001b4	8b 4d e0	 mov	 ecx, DWORD PTR tv70[ebp]
  001b7	ff 52 24	 call	 DWORD PTR [edx+36]
  001ba	3b f4		 cmp	 esi, esp
  001bc	e8 00 00 00 00	 call	 __RTC_CheckEsp
  001c1	89 45 ec	 mov	 DWORD PTR _pLayoutMgr$[ebp], eax

; 30   : 	pLayoutMgr->CreateBmpPane( this,"tabpanelparent","normal" );

  001c4	51		 push	 ecx
  001c5	8b cc		 mov	 ecx, esp
  001c7	89 65 e8	 mov	 DWORD PTR $T189488[ebp], esp
  001ca	8b f4		 mov	 esi, esp
  001cc	68 00 00 00 00	 push	 OFFSET FLAT:$SG188817
  001d1	ff 15 00 00 00
	00		 call	 DWORD PTR __imp_??0?$CStringT@DV?$StrTraitMFC_DLL@DV?$ChTraitsCRT@D@ATL@@@@@ATL@@QAE@PBD@Z
  001d7	3b f4		 cmp	 esi, esp
  001d9	e8 00 00 00 00	 call	 __RTC_CheckEsp
  001de	89 45 dc	 mov	 DWORD PTR tv145[ebp], eax
  001e1	8b 45 dc	 mov	 eax, DWORD PTR tv145[ebp]
  001e4	89 45 d8	 mov	 DWORD PTR tv141[ebp], eax
  001e7	c7 45 fc 00 00
	00 00		 mov	 DWORD PTR __$EHRec$[ebp+8], 0
  001ee	51		 push	 ecx
  001ef	8b cc		 mov	 ecx, esp
  001f1	89 65 e4	 mov	 DWORD PTR $T189489[ebp], esp
  001f4	8b f4		 mov	 esi, esp
  001f6	68 00 00 00 00	 push	 OFFSET FLAT:$SG188818
  001fb	ff 15 00 00 00
	00		 call	 DWORD PTR __imp_??0?$CStringT@DV?$StrTraitMFC_DLL@DV?$ChTraitsCRT@D@ATL@@@@@ATL@@QAE@PBD@Z
  00201	3b f4		 cmp	 esi, esp
  00203	e8 00 00 00 00	 call	 __RTC_CheckEsp
  00208	89 45 d4	 mov	 DWORD PTR tv144[ebp], eax
  0020b	8b 4d f0	 mov	 ecx, DWORD PTR _this$[ebp]
  0020e	51		 push	 ecx
  0020f	8b 55 ec	 mov	 edx, DWORD PTR _pLayoutMgr$[ebp]
  00212	8b 02		 mov	 eax, DWORD PTR [edx]
  00214	c7 45 fc ff ff
	ff ff		 mov	 DWORD PTR __$EHRec$[ebp+8], -1
  0021b	8b 4d ec	 mov	 ecx, DWORD PTR _pLayoutMgr$[ebp]
  0021e	ff 50 58	 call	 DWORD PTR [eax+88]

; 31   : 
; 32   : 	CTabPageControl::GetInstance()->SetParentWnd(this);

  00221	8b 4d f0	 mov	 ecx, DWORD PTR _this$[ebp]
  00224	51		 push	 ecx
  00225	e8 00 00 00 00	 call	 ?GetInstance@CTabPageControl@@SAPAV1@XZ ; CTabPageControl::GetInstance
  0022a	8b c8		 mov	 ecx, eax
  0022c	e8 00 00 00 00	 call	 ?SetParentWnd@CTabPageControl@@QAEXPAVCWnd@@@Z ; CTabPageControl::SetParentWnd

; 33   : 	return 0;

  00231	33 c0		 xor	 eax, eax
$L188812:

; 34   : }

  00233	8b 4d f4	 mov	 ecx, DWORD PTR __$EHRec$[ebp]
  00236	64 89 0d 00 00
	00 00		 mov	 DWORD PTR fs:__except_list, ecx
  0023d	5e		 pop	 esi
  0023e	83 c4 2c	 add	 esp, 44			; 0000002cH
  00241	3b ec		 cmp	 ebp, esp
  00243	e8 00 00 00 00	 call	 __RTC_CheckEsp
  00248	8b e5		 mov	 esp, ebp
  0024a	5d		 pop	 ebp
  0024b	c2 04 00	 ret	 4
_TEXT	ENDS
text$x	SEGMENT
$L189490:
  00039	8b f4		 mov	 esi, esp
  0003b	8b 4d e8	 mov	 ecx, DWORD PTR $T189488[ebp]
  0003e	ff 15 00 00 00
	00		 call	 DWORD PTR __imp_??1?$CStringT@DV?$StrTraitMFC_DLL@DV?$ChTraitsCRT@D@ATL@@@@@ATL@@QAE@XZ
  00044	3b f4		 cmp	 esi, esp
  00046	e9 00 00 00 00	 jmp	 __RTC_CheckEsp
__ehhandler$?OnCreate@CTabPageParentWnd@@IAEHPAUtagCREATESTRUCTA@@@Z:
  0004b	b8 00 00 00 00	 mov	 eax, OFFSET FLAT:$T189493
  00050	e9 00 00 00 00	 jmp	 ___CxxFrameHandler
text$x	ENDS
?OnCreate@CTabPageParentWnd@@IAEHPAUtagCREATESTRUCTA@@@Z ENDP ; CTabPageParentWnd::OnCreate
EXTRN	?ResizePage@CTabPageControl@@QAEXXZ:NEAR	; CTabPageControl::ResizePage
EXTRN	?OnSize@CBasicWnd@@IAEXIHH@Z:NEAR		; CBasicWnd::OnSize
; Function compile flags: /Odt /RTCsu
_TEXT	SEGMENT
_this$ = -4						; size = 4
_nType$ = 8						; size = 4
_cx$ = 12						; size = 4
_cy$ = 16						; size = 4
?OnSize@CTabPageParentWnd@@IAEXIHH@Z PROC NEAR		; CTabPageParentWnd::OnSize
; _this$ = ecx

; 37   : {

  00250	55		 push	 ebp
  00251	8b ec		 mov	 ebp, esp
  00253	51		 push	 ecx
  00254	c7 45 fc cc cc
	cc cc		 mov	 DWORD PTR [ebp-4], -858993460 ; ccccccccH
  0025b	89 4d fc	 mov	 DWORD PTR _this$[ebp], ecx

; 38   : 	CTabPageControl::GetInstance()->ResizePage();

  0025e	e8 00 00 00 00	 call	 ?GetInstance@CTabPageControl@@SAPAV1@XZ ; CTabPageControl::GetInstance
  00263	8b c8		 mov	 ecx, eax
  00265	e8 00 00 00 00	 call	 ?ResizePage@CTabPageControl@@QAEXXZ ; CTabPageControl::ResizePage

; 39   : 	__super::OnSize(nType,cx,cy);

  0026a	8b 45 10	 mov	 eax, DWORD PTR _cy$[ebp]
  0026d	50		 push	 eax
  0026e	8b 4d 0c	 mov	 ecx, DWORD PTR _cx$[ebp]
  00271	51		 push	 ecx
  00272	8b 55 08	 mov	 edx, DWORD PTR _nType$[ebp]
  00275	52		 push	 edx
  00276	8b 4d fc	 mov	 ecx, DWORD PTR _this$[ebp]
  00279	e8 00 00 00 00	 call	 ?OnSize@CBasicWnd@@IAEXIHH@Z ; CBasicWnd::OnSize

; 40   : }

  0027e	83 c4 04	 add	 esp, 4
  00281	3b ec		 cmp	 ebp, esp
  00283	e8 00 00 00 00	 call	 __RTC_CheckEsp
  00288	8b e5		 mov	 esp, ebp
  0028a	5d		 pop	 ebp
  0028b	c2 0c 00	 ret	 12			; 0000000cH
?OnSize@CTabPageParentWnd@@IAEXIHH@Z ENDP		; CTabPageParentWnd::OnSize
; Function compile flags: /Odt /RTCsu
_this$ = -4						; size = 4
_pDC$ = 8						; size = 4
?OnEraseBkgnd@CTabPageParentWnd@@IAEHPAVCDC@@@Z PROC NEAR ; CTabPageParentWnd::OnEraseBkgnd
; _this$ = ecx

; 43   : {

  00290	55		 push	 ebp
  00291	8b ec		 mov	 ebp, esp
  00293	51		 push	 ecx
  00294	c7 45 fc cc cc
	cc cc		 mov	 DWORD PTR [ebp-4], -858993460 ; ccccccccH
  0029b	89 4d fc	 mov	 DWORD PTR _this$[ebp], ecx

; 44   : 	return TRUE;

  0029e	b8 01 00 00 00	 mov	 eax, 1

; 45   : }

  002a3	8b e5		 mov	 esp, ebp
  002a5	5d		 pop	 ebp
  002a6	c2 04 00	 ret	 4
?OnEraseBkgnd@CTabPageParentWnd@@IAEHPAVCDC@@@Z ENDP	; CTabPageParentWnd::OnEraseBkgnd
_TEXT	ENDS
PUBLIC	?InterlockedExchangePointer@@YGPAXPAPAXPAX@Z	; InterlockedExchangePointer
PUBLIC	?_AtlGetThreadACPFake@ATL@@YGIXZ		; ATL::_AtlGetThreadACPFake
PUBLIC	?_AtlGetThreadACPReal@ATL@@YGIXZ		; ATL::_AtlGetThreadACPReal
EXTRN	___security_cookie:DWORD
EXTRN	@_RTC_CheckStackVars@8:NEAR
EXTRN	@__security_check_cookie@4:NEAR
EXTRN	__imp__GetVersionExA@4:NEAR
; Function compile flags: /Odt /RTCsu
; File d:\program files (x86)\microsoft visual studio .net 2003\vc7\atlmfc\include\atlconv.h
;	COMDAT ?_AtlGetThreadACPThunk@ATL@@YGIXZ
_TEXT	SEGMENT
_pfnGetThreadACP$ = -164				; size = 4
_ver$ = -156						; size = 148
__$ArrayPad$ = -4					; size = 4
__$ReturnAddr$ = 4					; size = 4
?_AtlGetThreadACPThunk@ATL@@YGIXZ PROC NEAR		; ATL::_AtlGetThreadACPThunk, COMDAT

; 134  : {

  00000	55		 push	 ebp
  00001	8b ec		 mov	 ebp, esp
  00003	81 ec a4 00 00
	00		 sub	 esp, 164		; 000000a4H
  00009	56		 push	 esi
  0000a	57		 push	 edi
  0000b	8d bd 5c ff ff
	ff		 lea	 edi, DWORD PTR [ebp-164]
  00011	b9 29 00 00 00	 mov	 ecx, 41			; 00000029H
  00016	b8 cc cc cc cc	 mov	 eax, -858993460		; ccccccccH
  0001b	f3 ab		 rep stosd
  0001d	a1 00 00 00 00	 mov	 eax, DWORD PTR ___security_cookie
  00022	89 45 fc	 mov	 DWORD PTR __$ArrayPad$[ebp], eax

; 135  : 	OSVERSIONINFO ver;
; 136  : 	ATLGETTHREADACP pfnGetThreadACP;
; 137  : 
; 138  : 	ver.dwOSVersionInfoSize = sizeof( ver );

  00025	c7 85 64 ff ff
	ff 94 00 00 00	 mov	 DWORD PTR _ver$[ebp], 148 ; 00000094H

; 139  : 	::GetVersionEx( &ver );

  0002f	8b f4		 mov	 esi, esp
  00031	8d 85 64 ff ff
	ff		 lea	 eax, DWORD PTR _ver$[ebp]
  00037	50		 push	 eax
  00038	ff 15 00 00 00
	00		 call	 DWORD PTR __imp__GetVersionExA@4
  0003e	3b f4		 cmp	 esi, esp
  00040	e8 00 00 00 00	 call	 __RTC_CheckEsp

; 140  : 	if( (ver.dwPlatformId == VER_PLATFORM_WIN32_NT) && (ver.dwMajorVersion >= 5) )

  00045	83 bd 74 ff ff
	ff 02		 cmp	 DWORD PTR _ver$[ebp+16], 2
  0004c	75 15		 jne	 SHORT $L24163
  0004e	83 bd 68 ff ff
	ff 05		 cmp	 DWORD PTR _ver$[ebp+4], 5
  00055	72 0c		 jb	 SHORT $L24163

; 141  : 	{
; 142  : 		// On Win2K, CP_THREAD_ACP is supported
; 143  : 		pfnGetThreadACP = _AtlGetThreadACPReal;

  00057	c7 85 5c ff ff
	ff 00 00 00 00	 mov	 DWORD PTR _pfnGetThreadACP$[ebp], OFFSET FLAT:?_AtlGetThreadACPReal@ATL@@YGIXZ ; ATL::_AtlGetThreadACPReal

; 144  : 	}
; 145  : 	else

  00061	eb 0a		 jmp	 SHORT $L24164
$L24163:

; 146  : 	{
; 147  : 		pfnGetThreadACP = _AtlGetThreadACPFake;

  00063	c7 85 5c ff ff
	ff 00 00 00 00	 mov	 DWORD PTR _pfnGetThreadACP$[ebp], OFFSET FLAT:?_AtlGetThreadACPFake@ATL@@YGIXZ ; ATL::_AtlGetThreadACPFake
$L24164:

; 148  : 	}
; 149  : 	InterlockedExchangePointer( reinterpret_cast< void** >(&g_pfnGetThreadACP), pfnGetThreadACP );

  0006d	8b 8d 5c ff ff
	ff		 mov	 ecx, DWORD PTR _pfnGetThreadACP$[ebp]
  00073	51		 push	 ecx
  00074	68 00 00 00 00	 push	 OFFSET FLAT:?g_pfnGetThreadACP@ATL@@3P6GIXZA ; ATL::g_pfnGetThreadACP
  00079	e8 00 00 00 00	 call	 ?InterlockedExchangePointer@@YGPAXPAPAXPAX@Z ; InterlockedExchangePointer

; 150  : 
; 151  : 	return( g_pfnGetThreadACP() );

  0007e	8b f4		 mov	 esi, esp
  00080	ff 15 00 00 00
	00		 call	 DWORD PTR ?g_pfnGetThreadACP@ATL@@3P6GIXZA ; ATL::g_pfnGetThreadACP
  00086	3b f4		 cmp	 esi, esp
  00088	e8 00 00 00 00	 call	 __RTC_CheckEsp

; 152  : }

  0008d	52		 push	 edx
  0008e	8b cd		 mov	 ecx, ebp
  00090	50		 push	 eax
  00091	8d 15 00 00 00
	00		 lea	 edx, DWORD PTR $L189504
  00097	e8 00 00 00 00	 call	 @_RTC_CheckStackVars@8
  0009c	58		 pop	 eax
  0009d	5a		 pop	 edx
  0009e	8b 4d fc	 mov	 ecx, DWORD PTR __$ArrayPad$[ebp]
  000a1	e8 00 00 00 00	 call	 @__security_check_cookie@4
  000a6	5f		 pop	 edi
  000a7	5e		 pop	 esi
  000a8	81 c4 a4 00 00
	00		 add	 esp, 164		; 000000a4H
  000ae	3b ec		 cmp	 ebp, esp
  000b0	e8 00 00 00 00	 call	 __RTC_CheckEsp
  000b5	8b e5		 mov	 esp, ebp
  000b7	5d		 pop	 ebp
  000b8	c3		 ret	 0
$L189504:
  000b9	01 00 00 00	 DD	 1
  000bd	00 00 00 00	 DD	 $L189503
$L189503:
  000c1	64 ff ff ff	 DD	 -156			; ffffff64H
  000c5	94 00 00 00	 DD	 148			; 00000094H
  000c9	00 00 00 00	 DD	 $L189500
$L189500:
  000cd	76		 DB	 118			; 00000076H
  000ce	65		 DB	 101			; 00000065H
  000cf	72		 DB	 114			; 00000072H
  000d0	00		 DB	 0
?_AtlGetThreadACPThunk@ATL@@YGIXZ ENDP			; ATL::_AtlGetThreadACPThunk
_TEXT	ENDS
EXTRN	__imp__InterlockedExchange@8:NEAR
; Function compile flags: /Odt /RTCsu
;	COMDAT ?InterlockedExchangePointer@@YGPAXPAPAXPAX@Z
_TEXT	SEGMENT
_pp$ = 8						; size = 4
_pNew$ = 12						; size = 4
?InterlockedExchangePointer@@YGPAXPAPAXPAX@Z PROC NEAR	; InterlockedExchangePointer, COMDAT

; 91   : {

  00000	55		 push	 ebp
  00001	8b ec		 mov	 ebp, esp
  00003	56		 push	 esi

; 92   : 	return( reinterpret_cast<void*>(static_cast<LONG_PTR>(::InterlockedExchange(reinterpret_cast<LONG*>(pp), static_cast<LONG>(reinterpret_cast<LONG_PTR>(pNew))))) );

  00004	8b f4		 mov	 esi, esp
  00006	8b 45 0c	 mov	 eax, DWORD PTR _pNew$[ebp]
  00009	50		 push	 eax
  0000a	8b 4d 08	 mov	 ecx, DWORD PTR _pp$[ebp]
  0000d	51		 push	 ecx
  0000e	ff 15 00 00 00
	00		 call	 DWORD PTR __imp__InterlockedExchange@8
  00014	3b f4		 cmp	 esi, esp
  00016	e8 00 00 00 00	 call	 __RTC_CheckEsp

; 93   : }

  0001b	5e		 pop	 esi
  0001c	3b ec		 cmp	 ebp, esp
  0001e	e8 00 00 00 00	 call	 __RTC_CheckEsp
  00023	5d		 pop	 ebp
  00024	c2 08 00	 ret	 8
?InterlockedExchangePointer@@YGPAXPAPAXPAX@Z ENDP	; InterlockedExchangePointer
_TEXT	ENDS
EXTRN	__imp__GetACP@0:NEAR
EXTRN	__imp__GetLocaleInfoA@16:NEAR
EXTRN	__imp__GetThreadLocale@0:NEAR
; Function compile flags: /Odt /RTCsu
;	COMDAT ?_AtlGetThreadACPFake@ATL@@YGIXZ
_TEXT	SEGMENT
_pch$24151 = -32					; size = 4
_szACP$ = -24						; size = 7
_lcidThread$ = -12					; size = 4
_nACP$ = -8						; size = 4
__$ArrayPad$ = -4					; size = 4
__$ReturnAddr$ = 4					; size = 4
?_AtlGetThreadACPFake@ATL@@YGIXZ PROC NEAR		; ATL::_AtlGetThreadACPFake, COMDAT

; 101  : {

  00000	55		 push	 ebp
  00001	8b ec		 mov	 ebp, esp
  00003	83 ec 20	 sub	 esp, 32			; 00000020H
  00006	56		 push	 esi
  00007	b8 cc cc cc cc	 mov	 eax, -858993460		; ccccccccH
  0000c	89 45 e0	 mov	 DWORD PTR [ebp-32], eax
  0000f	89 45 e4	 mov	 DWORD PTR [ebp-28], eax
  00012	89 45 e8	 mov	 DWORD PTR [ebp-24], eax
  00015	89 45 ec	 mov	 DWORD PTR [ebp-20], eax
  00018	89 45 f0	 mov	 DWORD PTR [ebp-16], eax
  0001b	89 45 f4	 mov	 DWORD PTR [ebp-12], eax
  0001e	89 45 f8	 mov	 DWORD PTR [ebp-8], eax
  00021	89 45 fc	 mov	 DWORD PTR [ebp-4], eax
  00024	a1 00 00 00 00	 mov	 eax, DWORD PTR ___security_cookie
  00029	89 45 fc	 mov	 DWORD PTR __$ArrayPad$[ebp], eax

; 102  : 	UINT nACP = 0;

  0002c	c7 45 f8 00 00
	00 00		 mov	 DWORD PTR _nACP$[ebp], 0

; 103  : 
; 104  : 	LCID lcidThread = ::GetThreadLocale();

  00033	8b f4		 mov	 esi, esp
  00035	ff 15 00 00 00
	00		 call	 DWORD PTR __imp__GetThreadLocale@0
  0003b	3b f4		 cmp	 esi, esp
  0003d	e8 00 00 00 00	 call	 __RTC_CheckEsp
  00042	89 45 f4	 mov	 DWORD PTR _lcidThread$[ebp], eax

; 105  : 
; 106  : 	char szACP[7];
; 107  : 	// GetLocaleInfoA will fail for a Unicode-only LCID, but those are only supported on 
; 108  : 	// Windows 2000.  Since Windows 2000 supports CP_THREAD_ACP, this code path is never
; 109  : 	// executed on Windows 2000.
; 110  : 	if (::GetLocaleInfoA(lcidThread, LOCALE_IDEFAULTANSICODEPAGE, szACP, 7) != 0)

  00045	8b f4		 mov	 esi, esp
  00047	6a 07		 push	 7
  00049	8d 45 e8	 lea	 eax, DWORD PTR _szACP$[ebp]
  0004c	50		 push	 eax
  0004d	68 04 10 00 00	 push	 4100			; 00001004H
  00052	8b 4d f4	 mov	 ecx, DWORD PTR _lcidThread$[ebp]
  00055	51		 push	 ecx
  00056	ff 15 00 00 00
	00		 call	 DWORD PTR __imp__GetLocaleInfoA@16
  0005c	3b f4		 cmp	 esi, esp
  0005e	e8 00 00 00 00	 call	 __RTC_CheckEsp
  00063	85 c0		 test	 eax, eax
  00065	74 34		 je	 SHORT $L24150

; 111  : 	{
; 112  : 		char* pch = szACP;

  00067	8d 55 e8	 lea	 edx, DWORD PTR _szACP$[ebp]
  0006a	89 55 e0	 mov	 DWORD PTR _pch$24151[ebp], edx
$L24153:

; 113  : 		while (*pch != '\0')

  0006d	8b 45 e0	 mov	 eax, DWORD PTR _pch$24151[ebp]
  00070	0f be 08	 movsx	 ecx, BYTE PTR [eax]
  00073	85 c9		 test	 ecx, ecx
  00075	74 24		 je	 SHORT $L24150

; 114  : 		{
; 115  : 			nACP *= 10;

  00077	8b 55 f8	 mov	 edx, DWORD PTR _nACP$[ebp]
  0007a	6b d2 0a	 imul	 edx, 10			; 0000000aH
  0007d	89 55 f8	 mov	 DWORD PTR _nACP$[ebp], edx

; 116  : 			nACP += *pch++ - '0';

  00080	8b 45 e0	 mov	 eax, DWORD PTR _pch$24151[ebp]
  00083	0f be 08	 movsx	 ecx, BYTE PTR [eax]
  00086	8b 55 f8	 mov	 edx, DWORD PTR _nACP$[ebp]
  00089	8d 44 0a d0	 lea	 eax, DWORD PTR [edx+ecx-48]
  0008d	89 45 f8	 mov	 DWORD PTR _nACP$[ebp], eax
  00090	8b 4d e0	 mov	 ecx, DWORD PTR _pch$24151[ebp]
  00093	83 c1 01	 add	 ecx, 1
  00096	89 4d e0	 mov	 DWORD PTR _pch$24151[ebp], ecx

; 117  : 		}

  00099	eb d2		 jmp	 SHORT $L24153
$L24150:

; 118  : 	}
; 119  : 	// Use the Default ANSI Code Page if we were unable to get the thread ACP or if one does not exist.
; 120  : 	if (nACP == 0)

  0009b	83 7d f8 00	 cmp	 DWORD PTR _nACP$[ebp], 0
  0009f	75 12		 jne	 SHORT $L24155

; 121  : 		nACP = ::GetACP();

  000a1	8b f4		 mov	 esi, esp
  000a3	ff 15 00 00 00
	00		 call	 DWORD PTR __imp__GetACP@0
  000a9	3b f4		 cmp	 esi, esp
  000ab	e8 00 00 00 00	 call	 __RTC_CheckEsp
  000b0	89 45 f8	 mov	 DWORD PTR _nACP$[ebp], eax
$L24155:

; 122  : 
; 123  : 	return nACP;

  000b3	8b 45 f8	 mov	 eax, DWORD PTR _nACP$[ebp]

; 124  : }

  000b6	52		 push	 edx
  000b7	8b cd		 mov	 ecx, ebp
  000b9	50		 push	 eax
  000ba	8d 15 00 00 00
	00		 lea	 edx, DWORD PTR $L189513
  000c0	e8 00 00 00 00	 call	 @_RTC_CheckStackVars@8
  000c5	58		 pop	 eax
  000c6	5a		 pop	 edx
  000c7	8b 4d fc	 mov	 ecx, DWORD PTR __$ArrayPad$[ebp]
  000ca	e8 00 00 00 00	 call	 @__security_check_cookie@4
  000cf	5e		 pop	 esi
  000d0	83 c4 20	 add	 esp, 32			; 00000020H
  000d3	3b ec		 cmp	 ebp, esp
  000d5	e8 00 00 00 00	 call	 __RTC_CheckEsp
  000da	8b e5		 mov	 esp, ebp
  000dc	5d		 pop	 ebp
  000dd	c3		 ret	 0
$L189513:
  000de	01 00 00 00	 DD	 1
  000e2	00 00 00 00	 DD	 $L189512
$L189512:
  000e6	e8 ff ff ff	 DD	 -24			; ffffffe8H
  000ea	07 00 00 00	 DD	 7
  000ee	00 00 00 00	 DD	 $L189510
$L189510:
  000f2	73		 DB	 115			; 00000073H
  000f3	7a		 DB	 122			; 0000007aH
  000f4	41		 DB	 65			; 00000041H
  000f5	43		 DB	 67			; 00000043H
  000f6	50		 DB	 80			; 00000050H
  000f7	00		 DB	 0
?_AtlGetThreadACPFake@ATL@@YGIXZ ENDP			; ATL::_AtlGetThreadACPFake
; Function compile flags: /Odt /RTCsu
_TEXT	ENDS
;	COMDAT ?_AtlGetThreadACPReal@ATL@@YGIXZ
_TEXT	SEGMENT
?_AtlGetThreadACPReal@ATL@@YGIXZ PROC NEAR		; ATL::_AtlGetThreadACPReal, COMDAT

; 127  : {

  00000	55		 push	 ebp
  00001	8b ec		 mov	 ebp, esp

; 128  : 	return( CP_THREAD_ACP );

  00003	b8 03 00 00 00	 mov	 eax, 3

; 129  : }

  00008	5d		 pop	 ebp
  00009	c3		 ret	 0
?_AtlGetThreadACPReal@ATL@@YGIXZ ENDP			; ATL::_AtlGetThreadACPReal
; Function compile flags: /Odt /RTCsu
_TEXT	ENDS
;	COMDAT ??_ECTabPageParentWnd@@WFE@AEPAXI@Z
_TEXT	SEGMENT
??_ECTabPageParentWnd@@WFE@AEPAXI@Z PROC NEAR		; [thunk]:CTabPageParentWnd::`vector deleting destructor', COMDAT
  00000	83 e9 54	 sub	 ecx, 84			; 00000054H
  00003	e9 00 00 00 00	 jmp	 ??_ECTabPageParentWnd@@UAEPAXI@Z
??_ECTabPageParentWnd@@WFE@AEPAXI@Z ENDP		; [thunk]:CTabPageParentWnd::`vector deleting destructor'
; Function compile flags: /Odt /RTCsu
; File d:\boxgit\playbox\playbox\dev\prj\playbox\src\core\imessageobserver.h
_TEXT	ENDS
;	COMDAT ??1IMessageObserver@@UAE@XZ
_TEXT	SEGMENT
_this$ = -4						; size = 4
??1IMessageObserver@@UAE@XZ PROC NEAR			; IMessageObserver::~IMessageObserver, COMDAT
; _this$ = ecx

; 16   : 	virtual ~IMessageObserver(){};

  00000	55		 push	 ebp
  00001	8b ec		 mov	 ebp, esp
  00003	51		 push	 ecx
  00004	c7 45 fc cc cc
	cc cc		 mov	 DWORD PTR [ebp-4], -858993460 ; ccccccccH
  0000b	89 4d fc	 mov	 DWORD PTR _this$[ebp], ecx
  0000e	8b 45 fc	 mov	 eax, DWORD PTR _this$[ebp]
  00011	c7 00 00 00 00
	00		 mov	 DWORD PTR [eax], OFFSET FLAT:??_7IMessageObserver@@6B@
  00017	8b e5		 mov	 esp, ebp
  00019	5d		 pop	 ebp
  0001a	c3		 ret	 0
??1IMessageObserver@@UAE@XZ ENDP			; IMessageObserver::~IMessageObserver
; Function compile flags: /Odt /RTCsu
_TEXT	ENDS
;	COMDAT ??_GIMessageObserver@@UAEPAXI@Z
_TEXT	SEGMENT
_this$ = -4						; size = 4
___flags$ = 8						; size = 4
??_GIMessageObserver@@UAEPAXI@Z PROC NEAR		; IMessageObserver::`scalar deleting destructor', COMDAT
; _this$ = ecx
  00000	55		 push	 ebp
  00001	8b ec		 mov	 ebp, esp
  00003	51		 push	 ecx
  00004	c7 45 fc cc cc
	cc cc		 mov	 DWORD PTR [ebp-4], -858993460 ; ccccccccH
  0000b	89 4d fc	 mov	 DWORD PTR _this$[ebp], ecx
  0000e	8b 4d fc	 mov	 ecx, DWORD PTR _this$[ebp]
  00011	e8 00 00 00 00	 call	 ??1IMessageObserver@@UAE@XZ ; IMessageObserver::~IMessageObserver
  00016	8b 45 08	 mov	 eax, DWORD PTR ___flags$[ebp]
  00019	83 e0 01	 and	 eax, 1
  0001c	74 0c		 je	 SHORT $L99513
  0001e	8b 4d fc	 mov	 ecx, DWORD PTR _this$[ebp]
  00021	51		 push	 ecx
  00022	e8 00 00 00 00	 call	 ??3@YAXPAX@Z		; operator delete
  00027	83 c4 04	 add	 esp, 4
$L99513:
  0002a	8b 45 fc	 mov	 eax, DWORD PTR _this$[ebp]
  0002d	83 c4 04	 add	 esp, 4
  00030	3b ec		 cmp	 ebp, esp
  00032	e8 00 00 00 00	 call	 __RTC_CheckEsp
  00037	8b e5		 mov	 esp, ebp
  00039	5d		 pop	 ebp
  0003a	c2 04 00	 ret	 4
??_GIMessageObserver@@UAEPAXI@Z ENDP			; IMessageObserver::`scalar deleting destructor'
_TEXT	ENDS
END
