; Listing generated by Microsoft (R) Optimizing Compiler Version 13.10.3077 

	TITLE	.\src\module\TabMan\TabWndFactory.cpp
	.386P
include listing.inc
if @Version gt 510
.model FLAT
else
_TEXT	SEGMENT PARA USE32 PUBLIC 'CODE'
_TEXT	ENDS
_DATA	SEGMENT DWORD USE32 PUBLIC 'DATA'
_DATA	ENDS
CONST	SEGMENT DWORD USE32 PUBLIC 'CONST'
CONST	ENDS
_BSS	SEGMENT DWORD USE32 PUBLIC 'BSS'
_BSS	ENDS
$$SYMBOLS	SEGMENT BYTE USE32 'DEBSYM'
$$SYMBOLS	ENDS
_TLS	SEGMENT DWORD USE32 PUBLIC 'TLS'
_TLS	ENDS
;	COMDAT ??_C@_0P@CLMBAKJD@JSCall?5Error?3?6?$AA@
CONST	SEGMENT DWORD USE32 PUBLIC 'CONST'
CONST	ENDS
;	COMDAT ??_C@_0EA@CPOAACJC@d?3?2boxgit?2playbox?2playbox?2dev?2pr@
CONST	SEGMENT DWORD USE32 PUBLIC 'CONST'
CONST	ENDS
;	COMDAT ??_C@_0EN@IBFBLEEG@D?3?2Program?5Files?5?$CIx86?$CJ?2Microsoft@
CONST	SEGMENT DWORD USE32 PUBLIC 'CONST'
CONST	ENDS
;	COMDAT ??_C@_0BD@OLBABOEK@vector?$DMT?$DO?5too?5long?$AA@
CONST	SEGMENT DWORD USE32 PUBLIC 'CONST'
CONST	ENDS
rdata$r	SEGMENT DWORD USE32 PUBLIC 'CONST'
rdata$r	ENDS
xdata$x	SEGMENT DWORD USE32 PUBLIC 'CONST'
xdata$x	ENDS
text$AFX_COL1	SEGMENT PARA USE32 PUBLIC ''
text$AFX_COL1	ENDS
text$yc	SEGMENT PARA USE32 PUBLIC 'CODE'
text$yc	ENDS
CRT$XCA	SEGMENT DWORD USE32 PUBLIC 'DATA'
CRT$XCA	ENDS
CRT$XCU	SEGMENT DWORD USE32 PUBLIC 'DATA'
CRT$XCU	ENDS
CRT$XCL	SEGMENT DWORD USE32 PUBLIC 'DATA'
CRT$XCL	ENDS
CRT$XCC	SEGMENT DWORD USE32 PUBLIC 'DATA'
CRT$XCC	ENDS
CRT$XCZ	SEGMENT DWORD USE32 PUBLIC 'DATA'
CRT$XCZ	ENDS
text$yd	SEGMENT PARA USE32 PUBLIC 'CODE'
text$yd	ENDS
ATL$__m	SEGMENT DWORD USE32 PUBLIC ''
ATL$__m	ENDS
ATL$__z	SEGMENT DWORD USE32 PUBLIC ''
ATL$__z	ENDS
ATL$__a	SEGMENT DWORD USE32 PUBLIC ''
ATL$__a	ENDS
;	COMDAT ??1HTTPObserver@@UAE@XZ
_TEXT	SEGMENT PARA USE32 PUBLIC 'CODE'
_TEXT	ENDS
;	COMDAT ?HTTPOb_DownStart@HTTPObserver@@UAEXPBD0I@Z
_TEXT	SEGMENT PARA USE32 PUBLIC 'CODE'
_TEXT	ENDS
;	COMDAT ?HTTPOb_DownFinish@HTTPObserver@@UAEXPBD@Z
_TEXT	SEGMENT PARA USE32 PUBLIC 'CODE'
_TEXT	ENDS
;	COMDAT ?HTTPOb_DownFailed@HTTPObserver@@UAEXPBDW4HTTP_DOWN_FAILED_REASON@@@Z
_TEXT	SEGMENT PARA USE32 PUBLIC 'CODE'
_TEXT	ENDS
;	COMDAT ?HTTPOb_DownProgress@HTTPObserver@@UAEXPBDII@Z
_TEXT	SEGMENT PARA USE32 PUBLIC 'CODE'
_TEXT	ENDS
;	COMDAT ?HTTPOb_DownloadPause@HTTPObserver@@UAEXPBD@Z
_TEXT	SEGMENT PARA USE32 PUBLIC 'CODE'
_TEXT	ENDS
;	COMDAT ??_GHTTPObserver@@UAEPAXI@Z
_TEXT	SEGMENT PARA USE32 PUBLIC 'CODE'
_TEXT	ENDS
;	COMDAT ?GetClsid@CShockwaveFlash@@QAEABU_GUID@@XZ
_TEXT	SEGMENT PARA USE32 PUBLIC 'CODE'
_TEXT	ENDS
;	COMDAT ??0CCustomControlSite@@QAE@PAVCOleControlContainer@@@Z
_TEXT	SEGMENT PARA USE32 PUBLIC 'CODE'
_TEXT	ENDS
;	COMDAT ??_GCCustomControlSite@@UAEPAXI@Z
_TEXT	SEGMENT PARA USE32 PUBLIC 'CODE'
_TEXT	ENDS
;	COMDAT ??0XDocHostShowUI@CCustomControlSite@@QAE@XZ
_TEXT	SEGMENT PARA USE32 PUBLIC 'CODE'
_TEXT	ENDS
;	COMDAT ??0XDocHostUIHandler@CCustomControlSite@@QAE@XZ
_TEXT	SEGMENT PARA USE32 PUBLIC 'CODE'
_TEXT	ENDS
;	COMDAT ??1CCustomControlSite@@UAE@XZ
_TEXT	SEGMENT PARA USE32 PUBLIC 'CODE'
_TEXT	ENDS
;	COMDAT ??0IDocHostShowUI@@QAE@XZ
_TEXT	SEGMENT PARA USE32 PUBLIC 'CODE'
_TEXT	ENDS
;	COMDAT ??0IDocHostUIHandler@@QAE@XZ
_TEXT	SEGMENT PARA USE32 PUBLIC 'CODE'
_TEXT	ENDS
;	COMDAT ?CreateSite@CCustomOccManager@@UAEPAVCOleControlSite@@PAVCOleControlContainer@@@Z
_TEXT	SEGMENT PARA USE32 PUBLIC 'CODE'
_TEXT	ENDS
;	COMDAT ??_GCCustomOccManager@@UAEPAXI@Z
_TEXT	SEGMENT PARA USE32 PUBLIC 'CODE'
_TEXT	ENDS
;	COMDAT ??0COccManager@@QAE@XZ
_TEXT	SEGMENT PARA USE32 PUBLIC 'CODE'
_TEXT	ENDS
;	COMDAT ??1COccManager@@UAE@XZ
_TEXT	SEGMENT PARA USE32 PUBLIC 'CODE'
_TEXT	ENDS
;	COMDAT ??1CCustomOccManager@@UAE@XZ
_TEXT	SEGMENT PARA USE32 PUBLIC 'CODE'
_TEXT	ENDS
;	COMDAT ??_GCOccManager@@UAEPAXI@Z
_TEXT	SEGMENT PARA USE32 PUBLIC 'CODE'
_TEXT	ENDS
;	COMDAT ??0CNoTrackObject@@QAE@XZ
_TEXT	SEGMENT PARA USE32 PUBLIC 'CODE'
_TEXT	ENDS
;	COMDAT ??1_tagLMCItemInfo@@QAE@XZ
_TEXT	SEGMENT PARA USE32 PUBLIC 'CODE'
_TEXT	ENDS
;	COMDAT ??1BCMenuMemDC@@UAE@XZ
_TEXT	SEGMENT PARA USE32 PUBLIC 'CODE'
_TEXT	ENDS
;	COMDAT ??_GBCMenuMemDC@@UAEPAXI@Z
_TEXT	SEGMENT PARA USE32 PUBLIC 'CODE'
_TEXT	ENDS
;	COMDAT ??1CGdiPlusBitmap@@UAE@XZ
_TEXT	SEGMENT PARA USE32 PUBLIC 'CODE'
_TEXT	ENDS
;	COMDAT ?Empty@CGdiPlusBitmap@@QAEXXZ
_TEXT	SEGMENT PARA USE32 PUBLIC 'CODE'
_TEXT	ENDS
;	COMDAT ?Load@CGdiPlusBitmap@@QAE_NPB_W@Z
_TEXT	SEGMENT PARA USE32 PUBLIC 'CODE'
_TEXT	ENDS
;	COMDAT ??_GCGdiPlusBitmap@@UAEPAXI@Z
_TEXT	SEGMENT PARA USE32 PUBLIC 'CODE'
_TEXT	ENDS
;	COMDAT ??_GTabWndFactory@@QAEPAXI@Z
_TEXT	SEGMENT PARA USE32 PUBLIC 'CODE'
_TEXT	ENDS
;	COMDAT ??HATL@@YA?AV?$CStringT@DV?$StrTraitMFC_DLL@DV?$ChTraitsCRT@D@ATL@@@@@0@PBDABV10@@Z
_TEXT	SEGMENT PARA USE32 PUBLIC 'CODE'
_TEXT	ENDS
;	COMDAT ??B?$CComPtrBase@UITypeInfo2@@@ATL@@QBEPAUITypeInfo2@@XZ
_TEXT	SEGMENT PARA USE32 PUBLIC 'CODE'
_TEXT	ENDS
;	COMDAT ??B?$CComPtrBase@UIHTMLDocument2@@@ATL@@QBEPAUIHTMLDocument2@@XZ
_TEXT	SEGMENT PARA USE32 PUBLIC 'CODE'
_TEXT	ENDS
;	COMDAT ?equal@?$istreambuf_iterator@DU?$char_traits@D@std@@@std@@QBE_NABV12@@Z
_TEXT	SEGMENT PARA USE32 PUBLIC 'CODE'
_TEXT	ENDS
;	COMDAT ?equal@?$istreambuf_iterator@_WU?$char_traits@_W@std@@@std@@QBE_NABV12@@Z
_TEXT	SEGMENT PARA USE32 PUBLIC 'CODE'
_TEXT	ENDS
;	COMDAT ??0?$vector@PAVCWnd@@V?$allocator@PAVCWnd@@@std@@@std@@QAE@XZ
_TEXT	SEGMENT PARA USE32 PUBLIC 'CODE'
_TEXT	ENDS
;	COMDAT ??1?$vector@PAVCWnd@@V?$allocator@PAVCWnd@@@std@@@std@@QAE@XZ
_TEXT	SEGMENT PARA USE32 PUBLIC 'CODE'
_TEXT	ENDS
;	COMDAT ?begin@?$vector@PAVCWnd@@V?$allocator@PAVCWnd@@@std@@@std@@QAE?AViterator@12@XZ
_TEXT	SEGMENT PARA USE32 PUBLIC 'CODE'
_TEXT	ENDS
;	COMDAT ?end@?$vector@PAVCWnd@@V?$allocator@PAVCWnd@@@std@@@std@@QAE?AViterator@12@XZ
_TEXT	SEGMENT PARA USE32 PUBLIC 'CODE'
_TEXT	ENDS
;	COMDAT ?erase@?$vector@PAVCWnd@@V?$allocator@PAVCWnd@@@std@@@std@@QAE?AViterator@12@V312@@Z
_TEXT	SEGMENT PARA USE32 PUBLIC 'CODE'
_TEXT	ENDS
;	COMDAT ??Diterator@?$vector@PAVCWnd@@V?$allocator@PAVCWnd@@@std@@@std@@QBEAAPAVCWnd@@XZ
_TEXT	SEGMENT PARA USE32 PUBLIC 'CODE'
_TEXT	ENDS
;	COMDAT ??Eiterator@?$vector@PAVCWnd@@V?$allocator@PAVCWnd@@@std@@@std@@QAE?AV012@H@Z
_TEXT	SEGMENT PARA USE32 PUBLIC 'CODE'
_TEXT	ENDS
;	COMDAT ??9const_iterator@?$vector@PAVCWnd@@V?$allocator@PAVCWnd@@@std@@@std@@QBE_NABV012@@Z
_TEXT	SEGMENT PARA USE32 PUBLIC 'CODE'
_TEXT	ENDS
;	COMDAT ?_Buy@?$vector@PAVCWnd@@V?$allocator@PAVCWnd@@@std@@@std@@IAE_NI@Z
_TEXT	SEGMENT PARA USE32 PUBLIC 'CODE'
_TEXT	ENDS
;	COMDAT ?_Destroy@?$vector@PAVCWnd@@V?$allocator@PAVCWnd@@@std@@@std@@IAEXPAPAVCWnd@@0@Z
_TEXT	SEGMENT PARA USE32 PUBLIC 'CODE'
_TEXT	ENDS
;	COMDAT ?_Tidy@?$vector@PAVCWnd@@V?$allocator@PAVCWnd@@@std@@@std@@IAEXXZ
_TEXT	SEGMENT PARA USE32 PUBLIC 'CODE'
_TEXT	ENDS
;	COMDAT ??0?$_Vector_val@PAVCWnd@@V?$allocator@PAVCWnd@@@std@@@std@@IAE@V?$allocator@PAVCWnd@@@1@@Z
_TEXT	SEGMENT PARA USE32 PUBLIC 'CODE'
_TEXT	ENDS
;	COMDAT ??0?$allocator@PAVCWnd@@@std@@QAE@XZ
_TEXT	SEGMENT PARA USE32 PUBLIC 'CODE'
_TEXT	ENDS
;	COMDAT ??0iterator@?$vector@PAVCWnd@@V?$allocator@PAVCWnd@@@std@@@std@@QAE@PAPAVCWnd@@@Z
_TEXT	SEGMENT PARA USE32 PUBLIC 'CODE'
_TEXT	ENDS
;	COMDAT ??Eiterator@?$vector@PAVCWnd@@V?$allocator@PAVCWnd@@@std@@@std@@QAEAAV012@XZ
_TEXT	SEGMENT PARA USE32 PUBLIC 'CODE'
_TEXT	ENDS
;	COMDAT ??Dconst_iterator@?$vector@PAVCWnd@@V?$allocator@PAVCWnd@@@std@@@std@@QBEABQAVCWnd@@XZ
_TEXT	SEGMENT PARA USE32 PUBLIC 'CODE'
_TEXT	ENDS
;	COMDAT ??8const_iterator@?$vector@PAVCWnd@@V?$allocator@PAVCWnd@@@std@@@std@@QBE_NABV012@@Z
_TEXT	SEGMENT PARA USE32 PUBLIC 'CODE'
_TEXT	ENDS
;	COMDAT ?max_size@?$vector@PAVCWnd@@V?$allocator@PAVCWnd@@@std@@@std@@QBEIXZ
_TEXT	SEGMENT PARA USE32 PUBLIC 'CODE'
_TEXT	ENDS
;	COMDAT ?_Xlen@?$vector@PAVCWnd@@V?$allocator@PAVCWnd@@@std@@@std@@IBEXXZ
_TEXT	SEGMENT PARA USE32 PUBLIC 'CODE'
_TEXT	ENDS
;	COMDAT ??0?$allocator@PAVCWnd@@@std@@QAE@ABV01@@Z
_TEXT	SEGMENT PARA USE32 PUBLIC 'CODE'
_TEXT	ENDS
;	COMDAT ?deallocate@?$allocator@PAVCWnd@@@std@@QAEXPAPAVCWnd@@I@Z
_TEXT	SEGMENT PARA USE32 PUBLIC 'CODE'
_TEXT	ENDS
;	COMDAT ?allocate@?$allocator@PAVCWnd@@@std@@QAEPAPAVCWnd@@I@Z
_TEXT	SEGMENT PARA USE32 PUBLIC 'CODE'
_TEXT	ENDS
;	COMDAT ??0const_iterator@?$vector@PAVCWnd@@V?$allocator@PAVCWnd@@@std@@@std@@QAE@PAPAVCWnd@@@Z
_TEXT	SEGMENT PARA USE32 PUBLIC 'CODE'
_TEXT	ENDS
;	COMDAT ??0length_error@std@@QAE@ABV01@@Z
_TEXT	SEGMENT PARA USE32 PUBLIC 'CODE'
_TEXT	ENDS
;	COMDAT ?max_size@?$allocator@PAVCWnd@@@std@@QBEIXZ
_TEXT	SEGMENT PARA USE32 PUBLIC 'CODE'
_TEXT	ENDS
;	COMDAT ?Unlock@?$CComCritSecLock@VCComCriticalSection@ATL@@@ATL@@QAEXXZ
_TEXT	SEGMENT PARA USE32 PUBLIC 'CODE'
_TEXT	ENDS
;	COMDAT ??1?$CArray@HAAH@@UAE@XZ
_TEXT	SEGMENT PARA USE32 PUBLIC 'CODE'
_TEXT	ENDS
;	COMDAT ?Serialize@?$CArray@HAAH@@UAEXAAVCArchive@@@Z
_TEXT	SEGMENT PARA USE32 PUBLIC 'CODE'
_TEXT	ENDS
;	COMDAT ?Dump@?$CArray@HAAH@@UBEXAAVCDumpContext@@@Z
_TEXT	SEGMENT PARA USE32 PUBLIC 'CODE'
_TEXT	ENDS
;	COMDAT ?AssertValid@?$CArray@HAAH@@UBEXXZ
_TEXT	SEGMENT PARA USE32 PUBLIC 'CODE'
_TEXT	ENDS
;	COMDAT ??$copy@PAPAVCWnd@@PAPAV1@@std@@YAPAPAVCWnd@@PAPAV1@00@Z
_TEXT	SEGMENT PARA USE32 PUBLIC 'CODE'
_TEXT	ENDS
;	COMDAT ??$_Destroy_range@PAVCWnd@@V?$allocator@PAVCWnd@@@std@@@std@@YAXPAPAVCWnd@@0AAV?$allocator@PAVCWnd@@@0@@Z
_TEXT	SEGMENT PARA USE32 PUBLIC 'CODE'
_TEXT	ENDS
;	COMDAT ??$_Maklocstr@D@std@@YAPADPBDPADABU_Cvtvec@@@Z
_TEXT	SEGMENT PARA USE32 PUBLIC 'CODE'
_TEXT	ENDS
;	COMDAT ??$_Allocate@PAVCWnd@@@std@@YAPAPAVCWnd@@IPAPAV1@@Z
_TEXT	SEGMENT PARA USE32 PUBLIC 'CODE'
_TEXT	ENDS
;	COMDAT ??_G?$CArray@HAAH@@UAEPAXI@Z
_TEXT	SEGMENT PARA USE32 PUBLIC 'CODE'
_TEXT	ENDS
;	COMDAT ?SetSize@?$CArray@HAAH@@QAEXHH@Z
_TEXT	SEGMENT PARA USE32 PUBLIC 'CODE'
_TEXT	ENDS
;	COMDAT ??$SerializeElements@H@@YGXAAVCArchive@@PAHH@Z
_TEXT	SEGMENT PARA USE32 PUBLIC 'CODE'
_TEXT	ENDS
;	COMDAT ??$DumpElements@H@@YGXAAVCDumpContext@@PBHH@Z
_TEXT	SEGMENT PARA USE32 PUBLIC 'CODE'
_TEXT	ENDS
;	COMDAT ??$_Ptr_cat@VCWnd@@@std@@YA?AU_Scalar_ptr_iterator_tag@0@PAPAVCWnd@@0@Z
_TEXT	SEGMENT PARA USE32 PUBLIC 'CODE'
_TEXT	ENDS
;	COMDAT ??$_Copy_opt@PAPAVCWnd@@PAPAV1@@std@@YAPAPAVCWnd@@PAPAV1@00U_Scalar_ptr_iterator_tag@0@@Z
_TEXT	SEGMENT PARA USE32 PUBLIC 'CODE'
_TEXT	ENDS
;	COMDAT ??$_Destroy_range@PAVCWnd@@V?$allocator@PAVCWnd@@@std@@@std@@YAXPAPAVCWnd@@0AAV?$allocator@PAVCWnd@@@0@U_Scalar_ptr_iterator_tag@0@@Z
_TEXT	SEGMENT PARA USE32 PUBLIC 'CODE'
_TEXT	ENDS
;	COMDAT ??_R3IDocHostShowUI@@8
rdata$r	SEGMENT DWORD USE32 PUBLIC 'CONST'
rdata$r	ENDS
;	COMDAT ??_R3COccManager@@8
rdata$r	SEGMENT DWORD USE32 PUBLIC 'CONST'
rdata$r	ENDS
;	COMDAT ??_R3IDocHostUIHandler@@8
rdata$r	SEGMENT DWORD USE32 PUBLIC 'CONST'
rdata$r	ENDS
;	COMDAT ??_R3BCMenuMemDC@@8
rdata$r	SEGMENT DWORD USE32 PUBLIC 'CONST'
rdata$r	ENDS
;	COMDAT ??_R3XDocHostShowUI@CCustomControlSite@@8
rdata$r	SEGMENT DWORD USE32 PUBLIC 'CONST'
rdata$r	ENDS
;	COMDAT ??_R3CCustomControlSite@@8
rdata$r	SEGMENT DWORD USE32 PUBLIC 'CONST'
rdata$r	ENDS
;	COMDAT ??_R3CCustomOccManager@@8
rdata$r	SEGMENT DWORD USE32 PUBLIC 'CONST'
rdata$r	ENDS
;	COMDAT ??_R3?$CArray@HAAH@@8
rdata$r	SEGMENT DWORD USE32 PUBLIC 'CONST'
rdata$r	ENDS
;	COMDAT ??_R3?$numpunct@_W@std@@8
rdata$r	SEGMENT DWORD USE32 PUBLIC 'CONST'
rdata$r	ENDS
;	COMDAT ??_R3?$numpunct@D@std@@8
rdata$r	SEGMENT DWORD USE32 PUBLIC 'CONST'
rdata$r	ENDS
;	COMDAT ??_R3CGdiPlusBitmap@@8
rdata$r	SEGMENT DWORD USE32 PUBLIC 'CONST'
rdata$r	ENDS
;	COMDAT ??_R3HTTPObserver@@8
rdata$r	SEGMENT DWORD USE32 PUBLIC 'CONST'
rdata$r	ENDS
;	COMDAT ??_R3XDocHostUIHandler@CCustomControlSite@@8
rdata$r	SEGMENT DWORD USE32 PUBLIC 'CONST'
rdata$r	ENDS
;	COMDAT ??_R2IDocHostShowUI@@8
rdata$r	SEGMENT DWORD USE32 PUBLIC 'CONST'
rdata$r	ENDS
;	COMDAT ??_R2COccManager@@8
rdata$r	SEGMENT DWORD USE32 PUBLIC 'CONST'
rdata$r	ENDS
;	COMDAT ??_R2IDocHostUIHandler@@8
rdata$r	SEGMENT DWORD USE32 PUBLIC 'CONST'
rdata$r	ENDS
;	COMDAT ??_R2BCMenuMemDC@@8
rdata$r	SEGMENT DWORD USE32 PUBLIC 'CONST'
rdata$r	ENDS
;	COMDAT ??_R2XDocHostShowUI@CCustomControlSite@@8
rdata$r	SEGMENT DWORD USE32 PUBLIC 'CONST'
rdata$r	ENDS
;	COMDAT ??_R2CCustomControlSite@@8
rdata$r	SEGMENT DWORD USE32 PUBLIC 'CONST'
rdata$r	ENDS
;	COMDAT ??_R2CCustomOccManager@@8
rdata$r	SEGMENT DWORD USE32 PUBLIC 'CONST'
rdata$r	ENDS
;	COMDAT ??_R2?$CArray@HAAH@@8
rdata$r	SEGMENT DWORD USE32 PUBLIC 'CONST'
rdata$r	ENDS
;	COMDAT ??_R2?$numpunct@_W@std@@8
rdata$r	SEGMENT DWORD USE32 PUBLIC 'CONST'
rdata$r	ENDS
;	COMDAT ??_R2?$numpunct@D@std@@8
rdata$r	SEGMENT DWORD USE32 PUBLIC 'CONST'
rdata$r	ENDS
;	COMDAT ??_R2CGdiPlusBitmap@@8
rdata$r	SEGMENT DWORD USE32 PUBLIC 'CONST'
rdata$r	ENDS
;	COMDAT ??_R2HTTPObserver@@8
rdata$r	SEGMENT DWORD USE32 PUBLIC 'CONST'
rdata$r	ENDS
;	COMDAT ??_R2XDocHostUIHandler@CCustomControlSite@@8
rdata$r	SEGMENT DWORD USE32 PUBLIC 'CONST'
rdata$r	ENDS
;	COMDAT ??_R1A@?0A@A@CDC@@8
rdata$r	SEGMENT DWORD USE32 PUBLIC 'CONST'
rdata$r	ENDS
;	COMDAT ??_R0?AVCDC@@@8
_DATA	SEGMENT DWORD USE32 PUBLIC 'DATA'
_DATA	ENDS
;	COMDAT ??_R1A@?0A@A@BCMenuMemDC@@8
rdata$r	SEGMENT DWORD USE32 PUBLIC 'CONST'
rdata$r	ENDS
;	COMDAT ??_R1A@?0A@A@IDocHostShowUI@@8
rdata$r	SEGMENT DWORD USE32 PUBLIC 'CONST'
rdata$r	ENDS
;	COMDAT ??_R1A@?0A@A@XDocHostShowUI@CCustomControlSite@@8
rdata$r	SEGMENT DWORD USE32 PUBLIC 'CONST'
rdata$r	ENDS
;	COMDAT ??_R1A@?0A@A@CCmdTarget@@8
rdata$r	SEGMENT DWORD USE32 PUBLIC 'CONST'
rdata$r	ENDS
;	COMDAT ??_R0?AVCCmdTarget@@@8
_DATA	SEGMENT DWORD USE32 PUBLIC 'DATA'
_DATA	ENDS
;	COMDAT ??_R1A@?0A@A@COleControlSite@@8
rdata$r	SEGMENT DWORD USE32 PUBLIC 'CONST'
rdata$r	ENDS
;	COMDAT ??_R1A@?0A@A@CCustomControlSite@@8
rdata$r	SEGMENT DWORD USE32 PUBLIC 'CONST'
rdata$r	ENDS
;	COMDAT ??_R1A@?0A@A@CNoTrackObject@@8
rdata$r	SEGMENT DWORD USE32 PUBLIC 'CONST'
rdata$r	ENDS
;	COMDAT ??_R0?AVCNoTrackObject@@@8
_DATA	SEGMENT DWORD USE32 PUBLIC 'DATA'
_DATA	ENDS
;	COMDAT ??_R1A@?0A@A@COccManager@@8
rdata$r	SEGMENT DWORD USE32 PUBLIC 'CONST'
rdata$r	ENDS
;	COMDAT ??_R1A@?0A@A@CCustomOccManager@@8
rdata$r	SEGMENT DWORD USE32 PUBLIC 'CONST'
rdata$r	ENDS
;	COMDAT ??_R1A@?0A@A@CObject@@8
rdata$r	SEGMENT DWORD USE32 PUBLIC 'CONST'
rdata$r	ENDS
;	COMDAT ??_R0?AVCObject@@@8
_DATA	SEGMENT DWORD USE32 PUBLIC 'DATA'
_DATA	ENDS
;	COMDAT ??_R1A@?0A@A@?$CArray@HAAH@@8
rdata$r	SEGMENT DWORD USE32 PUBLIC 'CONST'
rdata$r	ENDS
;	COMDAT ??_R1A@?0A@A@?$numpunct@_W@std@@8
rdata$r	SEGMENT DWORD USE32 PUBLIC 'CONST'
rdata$r	ENDS
;	COMDAT ??_R1A@?0A@A@facet@locale@std@@8
rdata$r	SEGMENT DWORD USE32 PUBLIC 'CONST'
rdata$r	ENDS
;	COMDAT ??_R0?AVfacet@locale@std@@@8
_DATA	SEGMENT DWORD USE32 PUBLIC 'DATA'
_DATA	ENDS
;	COMDAT ??_R1A@?0A@A@?$numpunct@D@std@@8
rdata$r	SEGMENT DWORD USE32 PUBLIC 'CONST'
rdata$r	ENDS
;	COMDAT ??_R1A@?0A@A@CGdiPlusBitmap@@8
rdata$r	SEGMENT DWORD USE32 PUBLIC 'CONST'
rdata$r	ENDS
;	COMDAT ??_R1A@?0A@A@HTTPObserver@@8
rdata$r	SEGMENT DWORD USE32 PUBLIC 'CONST'
rdata$r	ENDS
;	COMDAT ??_R1A@?0A@A@IUnknown@@8
rdata$r	SEGMENT DWORD USE32 PUBLIC 'CONST'
rdata$r	ENDS
;	COMDAT ??_R0?AUIUnknown@@@8
_DATA	SEGMENT DWORD USE32 PUBLIC 'DATA'
_DATA	ENDS
;	COMDAT ??_R1A@?0A@A@IDocHostUIHandler@@8
rdata$r	SEGMENT DWORD USE32 PUBLIC 'CONST'
rdata$r	ENDS
;	COMDAT ??_R1A@?0A@A@XDocHostUIHandler@CCustomControlSite@@8
rdata$r	SEGMENT DWORD USE32 PUBLIC 'CONST'
rdata$r	ENDS
;	COMDAT ??_R0?AVBCMenuMemDC@@@8
_DATA	SEGMENT DWORD USE32 PUBLIC 'DATA'
_DATA	ENDS
;	COMDAT ??_R0?AUIDocHostShowUI@@@8
_DATA	SEGMENT DWORD USE32 PUBLIC 'DATA'
_DATA	ENDS
;	COMDAT ??_R0?AVXDocHostShowUI@CCustomControlSite@@@8
_DATA	SEGMENT DWORD USE32 PUBLIC 'DATA'
_DATA	ENDS
;	COMDAT ??_R0?AVCOleControlSite@@@8
_DATA	SEGMENT DWORD USE32 PUBLIC 'DATA'
_DATA	ENDS
;	COMDAT ??_R0?AVCCustomControlSite@@@8
_DATA	SEGMENT DWORD USE32 PUBLIC 'DATA'
_DATA	ENDS
;	COMDAT ??_R0?AVCOccManager@@@8
_DATA	SEGMENT DWORD USE32 PUBLIC 'DATA'
_DATA	ENDS
;	COMDAT ??_R0?AVCCustomOccManager@@@8
_DATA	SEGMENT DWORD USE32 PUBLIC 'DATA'
_DATA	ENDS
;	COMDAT ??_R0?AV?$CArray@HAAH@@@8
_DATA	SEGMENT DWORD USE32 PUBLIC 'DATA'
_DATA	ENDS
;	COMDAT ??_R0?AV?$numpunct@_W@std@@@8
_DATA	SEGMENT DWORD USE32 PUBLIC 'DATA'
_DATA	ENDS
;	COMDAT ??_R0?AV?$numpunct@D@std@@@8
_DATA	SEGMENT DWORD USE32 PUBLIC 'DATA'
_DATA	ENDS
;	COMDAT ??_R0?AVCGdiPlusBitmap@@@8
_DATA	SEGMENT DWORD USE32 PUBLIC 'DATA'
_DATA	ENDS
;	COMDAT ??_R0?AVHTTPObserver@@@8
_DATA	SEGMENT DWORD USE32 PUBLIC 'DATA'
_DATA	ENDS
;	COMDAT ??_R0?AUIDocHostUIHandler@@@8
_DATA	SEGMENT DWORD USE32 PUBLIC 'DATA'
_DATA	ENDS
;	COMDAT ??_R0?AVXDocHostUIHandler@CCustomControlSite@@@8
_DATA	SEGMENT DWORD USE32 PUBLIC 'DATA'
_DATA	ENDS
;	COMDAT ??_R4IDocHostShowUI@@6B@
rdata$r	SEGMENT DWORD USE32 PUBLIC 'CONST'
rdata$r	ENDS
;	COMDAT ??_R4COccManager@@6B@
rdata$r	SEGMENT DWORD USE32 PUBLIC 'CONST'
rdata$r	ENDS
;	COMDAT ??_R4IDocHostUIHandler@@6B@
rdata$r	SEGMENT DWORD USE32 PUBLIC 'CONST'
rdata$r	ENDS
;	COMDAT ??_R4BCMenuMemDC@@6B@
rdata$r	SEGMENT DWORD USE32 PUBLIC 'CONST'
rdata$r	ENDS
;	COMDAT ??_R4XDocHostShowUI@CCustomControlSite@@6B@
rdata$r	SEGMENT DWORD USE32 PUBLIC 'CONST'
rdata$r	ENDS
;	COMDAT ??_R4CCustomControlSite@@6B@
rdata$r	SEGMENT DWORD USE32 PUBLIC 'CONST'
rdata$r	ENDS
;	COMDAT ??_R4CCustomOccManager@@6B@
rdata$r	SEGMENT DWORD USE32 PUBLIC 'CONST'
rdata$r	ENDS
;	COMDAT ??_R4?$CArray@HAAH@@6B@
rdata$r	SEGMENT DWORD USE32 PUBLIC 'CONST'
rdata$r	ENDS
;	COMDAT ??0?$allocator@_W@std@@QAE@XZ
_TEXT	SEGMENT PARA USE32 PUBLIC 'CODE'
_TEXT	ENDS
;	COMDAT ??_G?$numpunct@_W@std@@MAEPAXI@Z
_TEXT	SEGMENT PARA USE32 PUBLIC 'CODE'
_TEXT	ENDS
;	COMDAT ??_R4?$numpunct@_W@std@@6B@
rdata$r	SEGMENT DWORD USE32 PUBLIC 'CONST'
rdata$r	ENDS
;	COMDAT ??_G?$numpunct@D@std@@MAEPAXI@Z
_TEXT	SEGMENT PARA USE32 PUBLIC 'CODE'
_TEXT	ENDS
;	COMDAT ??_R4?$numpunct@D@std@@6B@
rdata$r	SEGMENT DWORD USE32 PUBLIC 'CONST'
rdata$r	ENDS
;	COMDAT ??_R4CGdiPlusBitmap@@6B@
rdata$r	SEGMENT DWORD USE32 PUBLIC 'CONST'
rdata$r	ENDS
;	COMDAT ??_R4HTTPObserver@@6B@
rdata$r	SEGMENT DWORD USE32 PUBLIC 'CONST'
rdata$r	ENDS
;	COMDAT ??_R4XDocHostUIHandler@CCustomControlSite@@6B@
rdata$r	SEGMENT DWORD USE32 PUBLIC 'CONST'
rdata$r	ENDS
;	COMDAT ??2@YAPAXIPAX@Z
_TEXT	SEGMENT PARA USE32 PUBLIC 'CODE'
_TEXT	ENDS
;	COMDAT ??_C@_0EN@CBMLGOH@D?3?2Program?5Files?5?$CIx86?$CJ?2Microsoft@
CONST	SEGMENT DWORD USE32 PUBLIC 'CONST'
CONST	ENDS
;	COMDAT ??_7?$CArray@HAAH@@6B@
CONST	SEGMENT DWORD USE32 PUBLIC 'CONST'
CONST	ENDS
;	COMDAT ?_Psave@?$_Facetptr@V?$numpunct@_W@std@@@std@@2PBVfacet@locale@2@B
_DATA	SEGMENT DWORD USE32 PUBLIC 'DATA'
_DATA	ENDS
;	COMDAT ?_Psave@?$_Facetptr@V?$numpunct@D@std@@@std@@2PBVfacet@locale@2@B
_DATA	SEGMENT DWORD USE32 PUBLIC 'DATA'
_DATA	ENDS
;	COMDAT ?Unlock@CComCriticalSection@ATL@@QAEJXZ
_TEXT	SEGMENT PARA USE32 PUBLIC 'CODE'
_TEXT	ENDS
;	COMDAT ??_C@_0FG@LDNDNCJM@D?3?2Program?5Files?5?$CIx86?$CJ?2Microsoft@
CONST	SEGMENT DWORD USE32 PUBLIC 'CONST'
CONST	ENDS
;	COMDAT ??_C@_09HIEJFN@m_bLocked?$AA@
CONST	SEGMENT DWORD USE32 PUBLIC 'CONST'
CONST	ENDS
;	COMDAT ?_Psave@?$_Facetptr@V?$ctype@_W@std@@@std@@2PBVfacet@locale@2@B
_DATA	SEGMENT DWORD USE32 PUBLIC 'DATA'
_DATA	ENDS
;	COMDAT ?_Psave@?$_Facetptr@V?$ctype@D@std@@@std@@2PBVfacet@locale@2@B
_DATA	SEGMENT DWORD USE32 PUBLIC 'DATA'
_DATA	ENDS
;	COMDAT ??_7length_error@std@@6B@
CONST	SEGMENT DWORD USE32 PUBLIC 'CONST'
CONST	ENDS
;	COMDAT ??_R4length_error@std@@6B@
rdata$r	SEGMENT DWORD USE32 PUBLIC 'CONST'
rdata$r	ENDS
;	COMDAT ??_R3length_error@std@@8
rdata$r	SEGMENT DWORD USE32 PUBLIC 'CONST'
rdata$r	ENDS
;	COMDAT ??_R2length_error@std@@8
rdata$r	SEGMENT DWORD USE32 PUBLIC 'CONST'
rdata$r	ENDS
;	COMDAT ??_R1A@?0A@A@length_error@std@@8
rdata$r	SEGMENT DWORD USE32 PUBLIC 'CONST'
rdata$r	ENDS
;	COMDAT ??_R1A@?0A@A@logic_error@std@@8
rdata$r	SEGMENT DWORD USE32 PUBLIC 'CONST'
rdata$r	ENDS
;	COMDAT ??_R0?AVlogic_error@std@@@8
_DATA	SEGMENT DWORD USE32 PUBLIC 'DATA'
_DATA	ENDS
;	COMDAT ??_R1A@?0A@A@exception@@8
rdata$r	SEGMENT DWORD USE32 PUBLIC 'CONST'
rdata$r	ENDS
;	COMDAT ??_R0?AVexception@@@8
_DATA	SEGMENT DWORD USE32 PUBLIC 'DATA'
_DATA	ENDS
;	COMDAT ??_Glength_error@std@@UAEPAXI@Z
_TEXT	SEGMENT PARA USE32 PUBLIC 'CODE'
_TEXT	ENDS
;	COMDAT ?what@logic_error@std@@UBEPBDXZ
_TEXT	SEGMENT PARA USE32 PUBLIC 'CODE'
_TEXT	ENDS
;	COMDAT ??1logic_error@std@@UAE@XZ
_TEXT	SEGMENT PARA USE32 PUBLIC 'CODE'
_TEXT	ENDS
;	COMDAT ??_7logic_error@std@@6B@
CONST	SEGMENT DWORD USE32 PUBLIC 'CONST'
CONST	ENDS
;	COMDAT ??_R4logic_error@std@@6B@
rdata$r	SEGMENT DWORD USE32 PUBLIC 'CONST'
rdata$r	ENDS
;	COMDAT ??_R3logic_error@std@@8
rdata$r	SEGMENT DWORD USE32 PUBLIC 'CONST'
rdata$r	ENDS
;	COMDAT ??_R2logic_error@std@@8
rdata$r	SEGMENT DWORD USE32 PUBLIC 'CONST'
rdata$r	ENDS
;	COMDAT ??_Glogic_error@std@@UAEPAXI@Z
_TEXT	SEGMENT PARA USE32 PUBLIC 'CODE'
_TEXT	ENDS
;	COMDAT ??0logic_error@std@@QAE@ABV01@@Z
_TEXT	SEGMENT PARA USE32 PUBLIC 'CODE'
_TEXT	ENDS
;	COMDAT __CTA3?AVlength_error@std@@
xdata$x	SEGMENT DWORD USE32 PUBLIC 'CONST'
xdata$x	ENDS
;	COMDAT ??1length_error@std@@UAE@XZ
_TEXT	SEGMENT PARA USE32 PUBLIC 'CODE'
_TEXT	ENDS
;	COMDAT __CT??_R0?AVexception@@@8??0exception@@QAE@ABV0@@Z12
xdata$x	SEGMENT DWORD USE32 PUBLIC 'CONST'
xdata$x	ENDS
;	COMDAT __CT??_R0?AVlogic_error@std@@@8??0logic_error@std@@QAE@ABV01@@Z40
xdata$x	SEGMENT DWORD USE32 PUBLIC 'CONST'
xdata$x	ENDS
;	COMDAT __CT??_R0?AVlength_error@std@@@8??0length_error@std@@QAE@ABV01@@Z40
xdata$x	SEGMENT DWORD USE32 PUBLIC 'CONST'
xdata$x	ENDS
;	COMDAT ??_R0?AVlength_error@std@@@8
_DATA	SEGMENT DWORD USE32 PUBLIC 'DATA'
_DATA	ENDS
;	COMDAT __TI3?AVlength_error@std@@
xdata$x	SEGMENT DWORD USE32 PUBLIC 'CONST'
xdata$x	ENDS
;	COMDAT ??0?$allocator@D@std@@QAE@ABV01@@Z
_TEXT	SEGMENT PARA USE32 PUBLIC 'CODE'
_TEXT	ENDS
;	COMDAT ??0?$allocator@D@std@@QAE@XZ
_TEXT	SEGMENT PARA USE32 PUBLIC 'CODE'
_TEXT	ENDS
;	COMDAT ?deallocate@?$allocator@D@std@@QAEXPADI@Z
_TEXT	SEGMENT PARA USE32 PUBLIC 'CODE'
_TEXT	ENDS
;	COMDAT ?max_size@?$allocator@D@std@@QBEIXZ
_TEXT	SEGMENT PARA USE32 PUBLIC 'CODE'
_TEXT	ENDS
;	COMDAT ?allocate@?$allocator@D@std@@QAEPADI@Z
_TEXT	SEGMENT PARA USE32 PUBLIC 'CODE'
_TEXT	ENDS
;	COMDAT ??$_Allocate@D@std@@YAPADIPAD@Z
_TEXT	SEGMENT PARA USE32 PUBLIC 'CODE'
_TEXT	ENDS
;	COMDAT ??0length_error@std@@QAE@ABV?$basic_string@DU?$char_traits@D@std@@V?$allocator@D@2@@1@@Z
_TEXT	SEGMENT PARA USE32 PUBLIC 'CODE'
_TEXT	ENDS
;	COMDAT ??0logic_error@std@@QAE@ABV?$basic_string@DU?$char_traits@D@std@@V?$allocator@D@2@@1@@Z
_TEXT	SEGMENT PARA USE32 PUBLIC 'CODE'
_TEXT	ENDS
;	COMDAT ??$_Maklocchr@_W@std@@YA_WDPA_WABU_Cvtvec@@@Z
_TEXT	SEGMENT PARA USE32 PUBLIC 'CODE'
_TEXT	ENDS
;	COMDAT ??$_DebugHeapDelete@X@std@@YAXPAX@Z
_TEXT	SEGMENT PARA USE32 PUBLIC 'CODE'
_TEXT	ENDS
;	COMDAT ??$_Maklocstr@_W@std@@YAPA_WPBDPA_WABU_Cvtvec@@@Z
_TEXT	SEGMENT PARA USE32 PUBLIC 'CODE'
_TEXT	ENDS
;	COMDAT ??$_Maklocchr@D@std@@YADDPADABU_Cvtvec@@@Z
_TEXT	SEGMENT PARA USE32 PUBLIC 'CODE'
_TEXT	ENDS
;	COMDAT ??_C@_04LOAJBDKD@true?$AA@
CONST	SEGMENT DWORD USE32 PUBLIC 'CONST'
CONST	ENDS
;	COMDAT ??_C@_05LAPONLG@false?$AA@
CONST	SEGMENT DWORD USE32 PUBLIC 'CONST'
CONST	ENDS
;	COMDAT _wmemcpy
_TEXT	SEGMENT PARA USE32 PUBLIC 'CODE'
_TEXT	ENDS
;	COMDAT ?max_size@?$allocator@_W@std@@QBEIXZ
_TEXT	SEGMENT PARA USE32 PUBLIC 'CODE'
_TEXT	ENDS
;	COMDAT ?allocate@?$allocator@_W@std@@QAEPA_WI@Z
_TEXT	SEGMENT PARA USE32 PUBLIC 'CODE'
_TEXT	ENDS
;	COMDAT ??$_Allocate@_W@std@@YAPA_WIPA_W@Z
_TEXT	SEGMENT PARA USE32 PUBLIC 'CODE'
_TEXT	ENDS
;	COMDAT ??_C@_01GFHCPBMG@C?$AA@
CONST	SEGMENT DWORD USE32 PUBLIC 'CONST'
CONST	ENDS
;	COMDAT ?Release@CStringData@ATL@@QAEXXZ
_TEXT	SEGMENT PARA USE32 PUBLIC 'CODE'
_TEXT	ENDS
;	COMDAT ??_C@_0L@OIIMFBNE@nRefs?5?$CB?$DN?50?$AA@
CONST	SEGMENT DWORD USE32 PUBLIC 'CONST'
CONST	ENDS
;	COMDAT ??_C@_0FJ@DMHPDOJC@D?3?2Program?5Files?5?$CIx86?$CJ?2Microsoft@
CONST	SEGMENT DWORD USE32 PUBLIC 'CONST'
CONST	ENDS
;	COMDAT ??_C@_0BA@GOIMFHNK@pStringMgr?5?$CB?$DN?50?$AA@
CONST	SEGMENT DWORD USE32 PUBLIC 'CONST'
CONST	ENDS
;	COMDAT ?data@CStringData@ATL@@QAEPAXXZ
_TEXT	SEGMENT PARA USE32 PUBLIC 'CODE'
_TEXT	ENDS
;	COMDAT ??_C@_0BA@GNIEOBOF@nNewLength?5?$DO?$DN?50?$AA@
CONST	SEGMENT DWORD USE32 PUBLIC 'CONST'
CONST	ENDS
;	COMDAT ??_C@_0N@ILOMLJGA@nLength?5?$DO?$DN?50?$AA@
CONST	SEGMENT DWORD USE32 PUBLIC 'CONST'
CONST	ENDS
;	COMDAT ??_C@_0CD@EEFFJEGJ@nLength?5?$DM?$DN?5GetData?$CI?$CJ?9?$DOnAllocLeng@
CONST	SEGMENT DWORD USE32 PUBLIC 'CONST'
CONST	ENDS
;	COMDAT ?AtlThrow@ATL@@YGXJ@Z
_TEXT	SEGMENT PARA USE32 PUBLIC 'CODE'
_TEXT	ENDS
;	COMDAT ??RCTraceFileAndLineInfo@ATL@@QBAXKIPBDZZ
_TEXT	SEGMENT PARA USE32 PUBLIC 'CODE'
_TEXT	ENDS
;	COMDAT ?TraceV@CTrace@ATL@@QBAXPBDHKI0PAD@Z
_TEXT	SEGMENT PARA USE32 PUBLIC 'CODE'
_TEXT	ENDS
;	COMDAT ??0CTraceFileAndLineInfo@ATL@@QAE@PBDH@Z
_TEXT	SEGMENT PARA USE32 PUBLIC 'CODE'
_TEXT	ENDS
;	COMDAT ??_C@_0FI@NHHJANPC@D?3?2Program?5Files?5?$CIx86?$CJ?2Microsoft@
CONST	SEGMENT DWORD USE32 PUBLIC 'CONST'
CONST	ENDS
;	COMDAT ??_C@_0BF@IAAKIJDJ@AtlThrow?3?5hr?5?$DN?50x?$CFx?6?$AA@
CONST	SEGMENT DWORD USE32 PUBLIC 'CONST'
CONST	ENDS
;	COMDAT ??BCTraceCategory@ATL@@QBEKXZ
_TEXT	SEGMENT PARA USE32 PUBLIC 'CODE'
_TEXT	ENDS
;	COMDAT ?IsShared@CStringData@ATL@@QBE_NXZ
_TEXT	SEGMENT PARA USE32 PUBLIC 'CODE'
_TEXT	ENDS
;	COMDAT ??_C@_0CB@GFHAPKDK@pOldData?9?$DOnAllocLength?5?$DM?5nLength@
CONST	SEGMENT DWORD USE32 PUBLIC 'CONST'
CONST	ENDS
;	COMDAT ?_Peek@?$istreambuf_iterator@_WU?$char_traits@_W@std@@@std@@AAE_WXZ
_TEXT	SEGMENT PARA USE32 PUBLIC 'CODE'
_TEXT	ENDS
;	COMDAT ?_Peek@?$istreambuf_iterator@DU?$char_traits@D@std@@@std@@AAEDXZ
_TEXT	SEGMENT PARA USE32 PUBLIC 'CODE'
_TEXT	ENDS
;	COMDAT ??$use_facet@V?$ctype@_W@std@@@std@@YAABV?$ctype@_W@0@ABVlocale@0@@Z
_TEXT	SEGMENT PARA USE32 PUBLIC 'CODE'
_TEXT	ENDS
;	COMDAT ??_S?$ctype@_W@std@@6B@
CONST	SEGMENT DWORD USE32 PUBLIC 'CONST'
CONST	ENDS
;	COMDAT ??_R4?$ctype@_W@std@@6B@
rdata$r	SEGMENT DWORD USE32 PUBLIC 'CONST'
rdata$r	ENDS
;	COMDAT ??_R0?AV?$ctype@_W@std@@@8
_DATA	SEGMENT DWORD USE32 PUBLIC 'DATA'
_DATA	ENDS
;	COMDAT ??_R3?$ctype@_W@std@@8
rdata$r	SEGMENT DWORD USE32 PUBLIC 'CONST'
rdata$r	ENDS
;	COMDAT ??_R2?$ctype@_W@std@@8
rdata$r	SEGMENT DWORD USE32 PUBLIC 'CONST'
rdata$r	ENDS
;	COMDAT ??_R1A@?0A@A@?$ctype@_W@std@@8
rdata$r	SEGMENT DWORD USE32 PUBLIC 'CONST'
rdata$r	ENDS
;	COMDAT ??_R1A@?0A@A@ctype_base@std@@8
rdata$r	SEGMENT DWORD USE32 PUBLIC 'CONST'
rdata$r	ENDS
;	COMDAT ??_R0?AUctype_base@std@@@8
_DATA	SEGMENT DWORD USE32 PUBLIC 'DATA'
_DATA	ENDS
;	COMDAT ??_G?$ctype@_W@std@@MAEPAXI@Z
_TEXT	SEGMENT PARA USE32 PUBLIC 'CODE'
_TEXT	ENDS
;	COMDAT ??_C@_08EPJLHIJG@bad?5cast?$AA@
CONST	SEGMENT DWORD USE32 PUBLIC 'CONST'
CONST	ENDS
;	COMDAT __TI2?AVbad_cast@@
xdata$x	SEGMENT DWORD USE32 PUBLIC 'CONST'
xdata$x	ENDS
;	COMDAT __CTA2?AVbad_cast@@
xdata$x	SEGMENT DWORD USE32 PUBLIC 'CONST'
xdata$x	ENDS
;	COMDAT __CT??_R0?AVbad_cast@@@8??0bad_cast@@QAE@ABV0@@Z12
xdata$x	SEGMENT DWORD USE32 PUBLIC 'CONST'
xdata$x	ENDS
;	COMDAT ??_R0?AVbad_cast@@@8
_DATA	SEGMENT DWORD USE32 PUBLIC 'DATA'
_DATA	ENDS
;	COMDAT ??$_DebugHeapDelete@Vfacet@locale@std@@@std@@YAXPAVfacet@locale@0@@Z
_TEXT	SEGMENT PARA USE32 PUBLIC 'CODE'
_TEXT	ENDS
;	COMDAT ??$use_facet@V?$ctype@D@std@@@std@@YAABV?$ctype@D@0@ABVlocale@0@@Z
_TEXT	SEGMENT PARA USE32 PUBLIC 'CODE'
_TEXT	ENDS
;	COMDAT ??_S?$ctype@D@std@@6B@
CONST	SEGMENT DWORD USE32 PUBLIC 'CONST'
CONST	ENDS
;	COMDAT ??_R4?$ctype@D@std@@6B@
rdata$r	SEGMENT DWORD USE32 PUBLIC 'CONST'
rdata$r	ENDS
;	COMDAT ??_R0?AV?$ctype@D@std@@@8
_DATA	SEGMENT DWORD USE32 PUBLIC 'DATA'
_DATA	ENDS
;	COMDAT ??_R3?$ctype@D@std@@8
rdata$r	SEGMENT DWORD USE32 PUBLIC 'CONST'
rdata$r	ENDS
;	COMDAT ??_R2?$ctype@D@std@@8
rdata$r	SEGMENT DWORD USE32 PUBLIC 'CONST'
rdata$r	ENDS
;	COMDAT ??_R1A@?0A@A@?$ctype@D@std@@8
rdata$r	SEGMENT DWORD USE32 PUBLIC 'CONST'
rdata$r	ENDS
;	COMDAT ??_G?$ctype@D@std@@MAEPAXI@Z
_TEXT	SEGMENT PARA USE32 PUBLIC 'CODE'
_TEXT	ENDS
;	COMDAT ??_S?$numpunct@_W@std@@6B@
CONST	SEGMENT DWORD USE32 PUBLIC 'CONST'
CONST	ENDS
;	COMDAT ??_S?$numpunct@D@std@@6B@
CONST	SEGMENT DWORD USE32 PUBLIC 'CONST'
CONST	ENDS
;	COMDAT _wmemmove
_TEXT	SEGMENT PARA USE32 PUBLIC 'CODE'
_TEXT	ENDS
;	COMDAT ?deallocate@?$allocator@_W@std@@QAEXPA_WI@Z
_TEXT	SEGMENT PARA USE32 PUBLIC 'CODE'
_TEXT	ENDS
;	COMDAT ??0?$allocator@_W@std@@QAE@ABV01@@Z
_TEXT	SEGMENT PARA USE32 PUBLIC 'CODE'
_TEXT	ENDS
;	COMDAT ??_R0?AVMyWebBrowserWnd@@@8
_DATA	SEGMENT DWORD USE32 PUBLIC 'DATA'
_DATA	ENDS
;	COMDAT ??_R0?AVWebGamePanelWnd@@@8
_DATA	SEGMENT DWORD USE32 PUBLIC 'DATA'
_DATA	ENDS
;	COMDAT ??_R0?AVGamePanelWnd@@@8
_DATA	SEGMENT DWORD USE32 PUBLIC 'DATA'
_DATA	ENDS
;	COMDAT ??_R0?AVCWnd@@@8
_DATA	SEGMENT DWORD USE32 PUBLIC 'DATA'
_DATA	ENDS
;	COMDAT ??_R0?AVPlayedGameWnd@@@8
_DATA	SEGMENT DWORD USE32 PUBLIC 'DATA'
_DATA	ENDS
;	COMDAT ?GetLastStatus@Image@Gdiplus@@QBE?AW4Status@2@XZ
_TEXT	SEGMENT PARA USE32 PUBLIC 'CODE'
_TEXT	ENDS
;	COMDAT ?FromFile@Bitmap@Gdiplus@@SAPAV12@PB_WH@Z
_TEXT	SEGMENT PARA USE32 PUBLIC 'CODE'
_TEXT	ENDS
;	COMDAT ??2GdiplusBase@Gdiplus@@SAPAXI@Z
_TEXT	SEGMENT PARA USE32 PUBLIC 'CODE'
_TEXT	ENDS
;	COMDAT ??3GdiplusBase@Gdiplus@@SAXPAX@Z
_TEXT	SEGMENT PARA USE32 PUBLIC 'CODE'
_TEXT	ENDS
;	COMDAT ??0Bitmap@Gdiplus@@QAE@PB_WH@Z
_TEXT	SEGMENT PARA USE32 PUBLIC 'CODE'
_TEXT	ENDS
;	COMDAT ??0Image@Gdiplus@@IAE@XZ
_TEXT	SEGMENT PARA USE32 PUBLIC 'CODE'
_TEXT	ENDS
;	COMDAT ??_7Image@Gdiplus@@6B@
CONST	SEGMENT DWORD USE32 PUBLIC 'CONST'
CONST	ENDS
;	COMDAT ??_R4Image@Gdiplus@@6B@
rdata$r	SEGMENT DWORD USE32 PUBLIC 'CONST'
rdata$r	ENDS
;	COMDAT ??_R0?AVImage@Gdiplus@@@8
_DATA	SEGMENT DWORD USE32 PUBLIC 'DATA'
_DATA	ENDS
;	COMDAT ??_R3Image@Gdiplus@@8
rdata$r	SEGMENT DWORD USE32 PUBLIC 'CONST'
rdata$r	ENDS
;	COMDAT ??_R2Image@Gdiplus@@8
rdata$r	SEGMENT DWORD USE32 PUBLIC 'CONST'
rdata$r	ENDS
;	COMDAT ??_R1A@?0A@A@Image@Gdiplus@@8
rdata$r	SEGMENT DWORD USE32 PUBLIC 'CONST'
rdata$r	ENDS
;	COMDAT ??_R13?0A@A@GdiplusBase@Gdiplus@@8
rdata$r	SEGMENT DWORD USE32 PUBLIC 'CONST'
rdata$r	ENDS
;	COMDAT ??_R0?AVGdiplusBase@Gdiplus@@@8
_DATA	SEGMENT DWORD USE32 PUBLIC 'DATA'
_DATA	ENDS
;	COMDAT ??_GImage@Gdiplus@@UAEPAXI@Z
_TEXT	SEGMENT PARA USE32 PUBLIC 'CODE'
_TEXT	ENDS
;	COMDAT ?Clone@Image@Gdiplus@@UAEPAV12@XZ
_TEXT	SEGMENT PARA USE32 PUBLIC 'CODE'
_TEXT	ENDS
;	COMDAT ?SetStatus@Image@Gdiplus@@IBE?AW4Status@2@W432@@Z
_TEXT	SEGMENT PARA USE32 PUBLIC 'CODE'
_TEXT	ENDS
;	COMDAT ??0Image@Gdiplus@@IAE@PAVGpImage@1@W4Status@1@@Z
_TEXT	SEGMENT PARA USE32 PUBLIC 'CODE'
_TEXT	ENDS
;	COMDAT ??1Image@Gdiplus@@UAE@XZ
_TEXT	SEGMENT PARA USE32 PUBLIC 'CODE'
_TEXT	ENDS
;	COMDAT ??_7Bitmap@Gdiplus@@6B@
CONST	SEGMENT DWORD USE32 PUBLIC 'CONST'
CONST	ENDS
;	COMDAT ??_R4Bitmap@Gdiplus@@6B@
rdata$r	SEGMENT DWORD USE32 PUBLIC 'CONST'
rdata$r	ENDS
;	COMDAT ??_R0?AVBitmap@Gdiplus@@@8
_DATA	SEGMENT DWORD USE32 PUBLIC 'DATA'
_DATA	ENDS
;	COMDAT ??_R3Bitmap@Gdiplus@@8
rdata$r	SEGMENT DWORD USE32 PUBLIC 'CONST'
rdata$r	ENDS
;	COMDAT ??_R2Bitmap@Gdiplus@@8
rdata$r	SEGMENT DWORD USE32 PUBLIC 'CONST'
rdata$r	ENDS
;	COMDAT ??_R1A@?0A@A@Bitmap@Gdiplus@@8
rdata$r	SEGMENT DWORD USE32 PUBLIC 'CONST'
rdata$r	ENDS
;	COMDAT ??_GBitmap@Gdiplus@@UAEPAXI@Z
_TEXT	SEGMENT PARA USE32 PUBLIC 'CODE'
_TEXT	ENDS
;	COMDAT ??1Bitmap@Gdiplus@@UAE@XZ
_TEXT	SEGMENT PARA USE32 PUBLIC 'CODE'
_TEXT	ENDS
;	COMDAT ?SetNativeImage@Image@Gdiplus@@IAEXPAVGpImage@2@@Z
_TEXT	SEGMENT PARA USE32 PUBLIC 'CODE'
_TEXT	ENDS
;	COMDAT ??_7CGdiPlusBitmap@@6B@
CONST	SEGMENT DWORD USE32 PUBLIC 'CONST'
CONST	ENDS
;	COMDAT ??_7BCMenuMemDC@@6B@
CONST	SEGMENT DWORD USE32 PUBLIC 'CONST'
CONST	ENDS
;	COMDAT ?IsLocked@CStringData@ATL@@QBE_NXZ
_TEXT	SEGMENT PARA USE32 PUBLIC 'CODE'
_TEXT	ENDS
;	COMDAT ?AddRef@CStringData@ATL@@QAEXXZ
_TEXT	SEGMENT PARA USE32 PUBLIC 'CODE'
_TEXT	ENDS
;	COMDAT ??_C@_09EEBKLCFA@nRefs?5?$DO?50?$AA@
CONST	SEGMENT DWORD USE32 PUBLIC 'CONST'
CONST	ENDS
;	COMDAT ?GetDefaultManager@?$StrTraitMFC_DLL@DV?$ChTraitsCRT@D@ATL@@@@SAPAUIAtlStringMgr@ATL@@XZ
_TEXT	SEGMENT PARA USE32 PUBLIC 'CODE'
_TEXT	ENDS
;	COMDAT ?FindStringResourceInstance@?$StrTraitMFC_DLL@DV?$ChTraitsCRT@D@ATL@@@@SAPAUHINSTANCE__@@I@Z
_TEXT	SEGMENT PARA USE32 PUBLIC 'CODE'
_TEXT	ENDS
;	COMDAT ?AtlGetStringResourceImage@ATL@@YAPBUATLSTRINGRESOURCEIMAGE@1@PAUHINSTANCE__@@I@Z
_TEXT	SEGMENT PARA USE32 PUBLIC 'CODE'
_TEXT	ENDS
;	COMDAT ?_AtlGetStringResourceImage@ATL@@YAPBUATLSTRINGRESOURCEIMAGE@1@PAUHINSTANCE__@@PAUHRSRC__@@I@Z
_TEXT	SEGMENT PARA USE32 PUBLIC 'CODE'
_TEXT	ENDS
;	COMDAT ?GetBaseTypeLength@?$ChTraitsCRT@D@ATL@@SAHPB_WH@Z
_TEXT	SEGMENT PARA USE32 PUBLIC 'CODE'
_TEXT	ENDS
;	COMDAT ?_AtlGetConversionACP@ATL@@YGIXZ
_TEXT	SEGMENT PARA USE32 PUBLIC 'CODE'
_TEXT	ENDS
;	COMDAT ?g_pfnGetThreadACP@ATL@@3P6GIXZA
_DATA	SEGMENT DWORD USE32 PUBLIC 'DATA'
_DATA	ENDS
;	COMDAT ?_AtlGetThreadACPThunk@ATL@@YGIXZ
_TEXT	SEGMENT PARA USE32 PUBLIC 'CODE'
_TEXT	ENDS
;	COMDAT ?_AtlGetThreadACPReal@ATL@@YGIXZ
_TEXT	SEGMENT PARA USE32 PUBLIC 'CODE'
_TEXT	ENDS
;	COMDAT ?_AtlGetThreadACPFake@ATL@@YGIXZ
_TEXT	SEGMENT PARA USE32 PUBLIC 'CODE'
_TEXT	ENDS
;	COMDAT ?InterlockedExchangePointer@@YGPAXPAPAXPAX@Z
_TEXT	SEGMENT PARA USE32 PUBLIC 'CODE'
_TEXT	ENDS
;	COMDAT ?ConvertToBaseType@?$ChTraitsCRT@D@ATL@@SAXPADHPB_WH@Z
_TEXT	SEGMENT PARA USE32 PUBLIC 'CODE'
_TEXT	ENDS
;	COMDAT ??_C@_0FH@KDPNIMBO@D?3?2Program?5Files?5?$CIx86?$CJ?2Microsoft@
CONST	SEGMENT DWORD USE32 PUBLIC 'CONST'
CONST	ENDS
;	COMDAT ??_C@_0CJ@FJEKGMMD@Warning?3?5implicit?5LoadString?$CI?$CFu?$CJ@
CONST	SEGMENT DWORD USE32 PUBLIC 'CONST'
CONST	ENDS
;	COMDAT ??_7CNoTrackObject@@6B@
CONST	SEGMENT DWORD USE32 PUBLIC 'CONST'
CONST	ENDS
;	COMDAT ??_R4CNoTrackObject@@6B@
rdata$r	SEGMENT DWORD USE32 PUBLIC 'CONST'
rdata$r	ENDS
;	COMDAT ??_R3CNoTrackObject@@8
rdata$r	SEGMENT DWORD USE32 PUBLIC 'CONST'
rdata$r	ENDS
;	COMDAT ??_R2CNoTrackObject@@8
rdata$r	SEGMENT DWORD USE32 PUBLIC 'CONST'
rdata$r	ENDS
;	COMDAT ??_7COccManager@@6B@
CONST	SEGMENT DWORD USE32 PUBLIC 'CONST'
CONST	ENDS
;	COMDAT ??1CNoTrackObject@@UAE@XZ
_TEXT	SEGMENT PARA USE32 PUBLIC 'CODE'
_TEXT	ENDS
;	COMDAT ??_7CCustomOccManager@@6B@
CONST	SEGMENT DWORD USE32 PUBLIC 'CONST'
CONST	ENDS
;	COMDAT ??0IUnknown@@QAE@XZ
_TEXT	SEGMENT PARA USE32 PUBLIC 'CODE'
_TEXT	ENDS
;	COMDAT ??_7XDocHostUIHandler@CCustomControlSite@@6B@
CONST	SEGMENT DWORD USE32 PUBLIC 'CONST'
CONST	ENDS
;	COMDAT ??_7XDocHostShowUI@CCustomControlSite@@6B@
CONST	SEGMENT DWORD USE32 PUBLIC 'CONST'
CONST	ENDS
;	COMDAT ??_7CCustomControlSite@@6B@
CONST	SEGMENT DWORD USE32 PUBLIC 'CONST'
CONST	ENDS
;	COMDAT ?clsid@?1??GetClsid@CShockwaveFlash@@QAEABU_GUID@@XZ@4U3@B
CONST	SEGMENT DWORD USE32 PUBLIC 'CONST'
CONST	ENDS
;	COMDAT ??_7HTTPObserver@@6B@
CONST	SEGMENT DWORD USE32 PUBLIC 'CONST'
CONST	ENDS
sxdata	SEGMENT DWORD USE32 'SXDATA'
sxdata	ENDS
FLAT	GROUP _DATA, CONST, _BSS
	ASSUME	CS: FLAT, DS: FLAT, SS: FLAT
endif

INCLUDELIB MSVCRTD
INCLUDELIB OLDNAMES

PUBLIC	?g_pfnGetThreadACP@ATL@@3P6GIXZA		; ATL::g_pfnGetThreadACP
PUBLIC	?_AtlGetThreadACPThunk@ATL@@YGIXZ		; ATL::_AtlGetThreadACPThunk
PUBLIC	?m_pSelf@TabWndFactory@@2PAV1@A			; TabWndFactory::m_pSelf
_BSS	SEGMENT
?m_pSelf@TabWndFactory@@2PAV1@A DD 01H DUP (?)		; TabWndFactory::m_pSelf
_BSS	ENDS
CONST	SEGMENT
$SG191260 DB	'D:\Program Files (x86)\Microsoft Visual Studio .NET 2003'
	DB	'\Vc7\atlmfc\include\afxtempl.h', 00H
	ORG $+1
$SG191274 DB	'D:\Program Files (x86)\Microsoft Visual Studio .NET 2003'
	DB	'\Vc7\atlmfc\include\afxtempl.h', 00H
	ORG $+1
$SG191290 DB	'with ', 00H
	ORG $+2
$SG191291 DB	' elements', 00H
	ORG $+2
$SG191293 DB	0aH, 00H
	ORG $+2
$SG191300 DB	0aH, 00H
	ORG $+6
$SG191308 DB	'D:\Program Files (x86)\Microsoft Visual Studio .NET 2003'
	DB	'\Vc7\atlmfc\include\afxtempl.h', 00H
	ORG $+1
$SG191310 DB	'D:\Program Files (x86)\Microsoft Visual Studio .NET 2003'
	DB	'\Vc7\atlmfc\include\afxtempl.h', 00H
	ORG $+1
$SG191313 DB	'D:\Program Files (x86)\Microsoft Visual Studio .NET 2003'
	DB	'\Vc7\atlmfc\include\afxtempl.h', 00H
	ORG $+1
$SG191315 DB	'D:\Program Files (x86)\Microsoft Visual Studio .NET 2003'
	DB	'\Vc7\atlmfc\include\afxtempl.h', 00H
	ORG $+1
$SG191317 DB	'D:\Program Files (x86)\Microsoft Visual Studio .NET 2003'
	DB	'\Vc7\atlmfc\include\afxtempl.h', 00H
	ORG $+1
$SG191320 DB	'D:\Program Files (x86)\Microsoft Visual Studio .NET 2003'
	DB	'\Vc7\atlmfc\include\afxtempl.h', 00H
	ORG $+1
$SG191408 DB	'D:\Program Files (x86)\Microsoft Visual Studio .NET 2003'
	DB	'\Vc7\atlmfc\include\afxtempl.h', 00H
	ORG $+1
$SG191410 DB	'D:\Program Files (x86)\Microsoft Visual Studio .NET 2003'
	DB	'\Vc7\atlmfc\include\afxtempl.h', 00H
	ORG $+1
$SG191425 DB	'D:\Program Files (x86)\Microsoft Visual Studio .NET 2003'
	DB	'\Vc7\atlmfc\include\afxtempl.h', 00H
	ORG $+1
$SG191432 DB	'D:\Program Files (x86)\Microsoft Visual Studio .NET 2003'
	DB	'\Vc7\atlmfc\include\afxtempl.h', 00H
	ORG $+1
$SG191468 DB	'D:\Program Files (x86)\Microsoft Visual Studio .NET 2003'
	DB	'\Vc7\atlmfc\include\afxtempl.h', 00H
	ORG $+1
$SG191472 DB	'D:\Program Files (x86)\Microsoft Visual Studio .NET 2003'
	DB	'\Vc7\atlmfc\include\afxtempl.h', 00H
	ORG $+1
$SG191482 DB	'D:\Program Files (x86)\Microsoft Visual Studio .NET 2003'
	DB	'\Vc7\atlmfc\include\afxtempl.h', 00H
	ORG $+1
$SG191499 DB	'D:\Program Files (x86)\Microsoft Visual Studio .NET 2003'
	DB	'\Vc7\atlmfc\include\afxtempl.h', 00H
	ORG $+1
$SG191524 DB	'D:\Program Files (x86)\Microsoft Visual Studio .NET 2003'
	DB	'\Vc7\atlmfc\include\afxtempl.h', 00H
CONST	ENDS
;	COMDAT ?g_pfnGetThreadACP@ATL@@3P6GIXZA
_DATA	SEGMENT
?g_pfnGetThreadACP@ATL@@3P6GIXZA DD FLAT:?_AtlGetThreadACPThunk@ATL@@YGIXZ ; ATL::g_pfnGetThreadACP
_DATA	ENDS
PUBLIC	?InterlockedExchangePointer@@YGPAXPAPAXPAX@Z	; InterlockedExchangePointer
PUBLIC	?_AtlGetThreadACPFake@ATL@@YGIXZ		; ATL::_AtlGetThreadACPFake
PUBLIC	?_AtlGetThreadACPReal@ATL@@YGIXZ		; ATL::_AtlGetThreadACPReal
EXTRN	__imp__GetVersionExA@4:NEAR
EXTRN	__RTC_InitBase:NEAR
EXTRN	__RTC_Shutdown:NEAR
EXTRN	__RTC_CheckEsp:NEAR
EXTRN	___security_cookie:DWORD
EXTRN	@_RTC_CheckStackVars@8:NEAR
EXTRN	@__security_check_cookie@4:NEAR
;	COMDAT rtc$IMZ
; File d:\program files (x86)\microsoft visual studio .net 2003\vc7\atlmfc\include\atlconv.h
rtc$IMZ	SEGMENT
__RTC_InitBase.rtc$IMZ DD FLAT:__RTC_InitBase
rtc$IMZ	ENDS
;	COMDAT rtc$TMZ
rtc$TMZ	SEGMENT
__RTC_Shutdown.rtc$TMZ DD FLAT:__RTC_Shutdown
; Function compile flags: /Odt /RTCsu
rtc$TMZ	ENDS
;	COMDAT ?_AtlGetThreadACPThunk@ATL@@YGIXZ
_TEXT	SEGMENT
_pfnGetThreadACP$ = -164				; size = 4
_ver$ = -156						; size = 148
__$ArrayPad$ = -4					; size = 4
__$ReturnAddr$ = 4					; size = 4
?_AtlGetThreadACPThunk@ATL@@YGIXZ PROC NEAR		; ATL::_AtlGetThreadACPThunk, COMDAT

; 134  : {

  00000	55		 push	 ebp
  00001	8b ec		 mov	 ebp, esp
  00003	81 ec a4 00 00
	00		 sub	 esp, 164		; 000000a4H
  00009	56		 push	 esi
  0000a	57		 push	 edi
  0000b	8d bd 5c ff ff
	ff		 lea	 edi, DWORD PTR [ebp-164]
  00011	b9 29 00 00 00	 mov	 ecx, 41			; 00000029H
  00016	b8 cc cc cc cc	 mov	 eax, -858993460		; ccccccccH
  0001b	f3 ab		 rep stosd
  0001d	a1 00 00 00 00	 mov	 eax, DWORD PTR ___security_cookie
  00022	89 45 fc	 mov	 DWORD PTR __$ArrayPad$[ebp], eax

; 135  : 	OSVERSIONINFO ver;
; 136  : 	ATLGETTHREADACP pfnGetThreadACP;
; 137  : 
; 138  : 	ver.dwOSVersionInfoSize = sizeof( ver );

  00025	c7 85 64 ff ff
	ff 94 00 00 00	 mov	 DWORD PTR _ver$[ebp], 148 ; 00000094H

; 139  : 	::GetVersionEx( &ver );

  0002f	8b f4		 mov	 esi, esp
  00031	8d 85 64 ff ff
	ff		 lea	 eax, DWORD PTR _ver$[ebp]
  00037	50		 push	 eax
  00038	ff 15 00 00 00
	00		 call	 DWORD PTR __imp__GetVersionExA@4
  0003e	3b f4		 cmp	 esi, esp
  00040	e8 00 00 00 00	 call	 __RTC_CheckEsp

; 140  : 	if( (ver.dwPlatformId == VER_PLATFORM_WIN32_NT) && (ver.dwMajorVersion >= 5) )

  00045	83 bd 74 ff ff
	ff 02		 cmp	 DWORD PTR _ver$[ebp+16], 2
  0004c	75 15		 jne	 SHORT $L24163
  0004e	83 bd 68 ff ff
	ff 05		 cmp	 DWORD PTR _ver$[ebp+4], 5
  00055	72 0c		 jb	 SHORT $L24163

; 141  : 	{
; 142  : 		// On Win2K, CP_THREAD_ACP is supported
; 143  : 		pfnGetThreadACP = _AtlGetThreadACPReal;

  00057	c7 85 5c ff ff
	ff 00 00 00 00	 mov	 DWORD PTR _pfnGetThreadACP$[ebp], OFFSET FLAT:?_AtlGetThreadACPReal@ATL@@YGIXZ ; ATL::_AtlGetThreadACPReal

; 144  : 	}
; 145  : 	else

  00061	eb 0a		 jmp	 SHORT $L24164
$L24163:

; 146  : 	{
; 147  : 		pfnGetThreadACP = _AtlGetThreadACPFake;

  00063	c7 85 5c ff ff
	ff 00 00 00 00	 mov	 DWORD PTR _pfnGetThreadACP$[ebp], OFFSET FLAT:?_AtlGetThreadACPFake@ATL@@YGIXZ ; ATL::_AtlGetThreadACPFake
$L24164:

; 148  : 	}
; 149  : 	InterlockedExchangePointer( reinterpret_cast< void** >(&g_pfnGetThreadACP), pfnGetThreadACP );

  0006d	8b 8d 5c ff ff
	ff		 mov	 ecx, DWORD PTR _pfnGetThreadACP$[ebp]
  00073	51		 push	 ecx
  00074	68 00 00 00 00	 push	 OFFSET FLAT:?g_pfnGetThreadACP@ATL@@3P6GIXZA ; ATL::g_pfnGetThreadACP
  00079	e8 00 00 00 00	 call	 ?InterlockedExchangePointer@@YGPAXPAPAXPAX@Z ; InterlockedExchangePointer

; 150  : 
; 151  : 	return( g_pfnGetThreadACP() );

  0007e	8b f4		 mov	 esi, esp
  00080	ff 15 00 00 00
	00		 call	 DWORD PTR ?g_pfnGetThreadACP@ATL@@3P6GIXZA ; ATL::g_pfnGetThreadACP
  00086	3b f4		 cmp	 esi, esp
  00088	e8 00 00 00 00	 call	 __RTC_CheckEsp

; 152  : }

  0008d	52		 push	 edx
  0008e	8b cd		 mov	 ecx, ebp
  00090	50		 push	 eax
  00091	8d 15 00 00 00
	00		 lea	 edx, DWORD PTR $L192176
  00097	e8 00 00 00 00	 call	 @_RTC_CheckStackVars@8
  0009c	58		 pop	 eax
  0009d	5a		 pop	 edx
  0009e	8b 4d fc	 mov	 ecx, DWORD PTR __$ArrayPad$[ebp]
  000a1	e8 00 00 00 00	 call	 @__security_check_cookie@4
  000a6	5f		 pop	 edi
  000a7	5e		 pop	 esi
  000a8	81 c4 a4 00 00
	00		 add	 esp, 164		; 000000a4H
  000ae	3b ec		 cmp	 ebp, esp
  000b0	e8 00 00 00 00	 call	 __RTC_CheckEsp
  000b5	8b e5		 mov	 esp, ebp
  000b7	5d		 pop	 ebp
  000b8	c3		 ret	 0
$L192176:
  000b9	01 00 00 00	 DD	 1
  000bd	00 00 00 00	 DD	 $L192175
$L192175:
  000c1	64 ff ff ff	 DD	 -156			; ffffff64H
  000c5	94 00 00 00	 DD	 148			; 00000094H
  000c9	00 00 00 00	 DD	 $L192172
$L192172:
  000cd	76		 DB	 118			; 00000076H
  000ce	65		 DB	 101			; 00000065H
  000cf	72		 DB	 114			; 00000072H
  000d0	00		 DB	 0
?_AtlGetThreadACPThunk@ATL@@YGIXZ ENDP			; ATL::_AtlGetThreadACPThunk
_TEXT	ENDS
EXTRN	__imp__InterlockedExchange@8:NEAR
; Function compile flags: /Odt /RTCsu
;	COMDAT ?InterlockedExchangePointer@@YGPAXPAPAXPAX@Z
_TEXT	SEGMENT
_pp$ = 8						; size = 4
_pNew$ = 12						; size = 4
?InterlockedExchangePointer@@YGPAXPAPAXPAX@Z PROC NEAR	; InterlockedExchangePointer, COMDAT

; 91   : {

  00000	55		 push	 ebp
  00001	8b ec		 mov	 ebp, esp
  00003	56		 push	 esi

; 92   : 	return( reinterpret_cast<void*>(static_cast<LONG_PTR>(::InterlockedExchange(reinterpret_cast<LONG*>(pp), static_cast<LONG>(reinterpret_cast<LONG_PTR>(pNew))))) );

  00004	8b f4		 mov	 esi, esp
  00006	8b 45 0c	 mov	 eax, DWORD PTR _pNew$[ebp]
  00009	50		 push	 eax
  0000a	8b 4d 08	 mov	 ecx, DWORD PTR _pp$[ebp]
  0000d	51		 push	 ecx
  0000e	ff 15 00 00 00
	00		 call	 DWORD PTR __imp__InterlockedExchange@8
  00014	3b f4		 cmp	 esi, esp
  00016	e8 00 00 00 00	 call	 __RTC_CheckEsp

; 93   : }

  0001b	5e		 pop	 esi
  0001c	3b ec		 cmp	 ebp, esp
  0001e	e8 00 00 00 00	 call	 __RTC_CheckEsp
  00023	5d		 pop	 ebp
  00024	c2 08 00	 ret	 8
?InterlockedExchangePointer@@YGPAXPAPAXPAX@Z ENDP	; InterlockedExchangePointer
_TEXT	ENDS
EXTRN	__imp__GetACP@0:NEAR
EXTRN	__imp__GetLocaleInfoA@16:NEAR
EXTRN	__imp__GetThreadLocale@0:NEAR
; Function compile flags: /Odt /RTCsu
;	COMDAT ?_AtlGetThreadACPFake@ATL@@YGIXZ
_TEXT	SEGMENT
_pch$24151 = -32					; size = 4
_szACP$ = -24						; size = 7
_lcidThread$ = -12					; size = 4
_nACP$ = -8						; size = 4
__$ArrayPad$ = -4					; size = 4
__$ReturnAddr$ = 4					; size = 4
?_AtlGetThreadACPFake@ATL@@YGIXZ PROC NEAR		; ATL::_AtlGetThreadACPFake, COMDAT

; 101  : {

  00000	55		 push	 ebp
  00001	8b ec		 mov	 ebp, esp
  00003	83 ec 20	 sub	 esp, 32			; 00000020H
  00006	56		 push	 esi
  00007	b8 cc cc cc cc	 mov	 eax, -858993460		; ccccccccH
  0000c	89 45 e0	 mov	 DWORD PTR [ebp-32], eax
  0000f	89 45 e4	 mov	 DWORD PTR [ebp-28], eax
  00012	89 45 e8	 mov	 DWORD PTR [ebp-24], eax
  00015	89 45 ec	 mov	 DWORD PTR [ebp-20], eax
  00018	89 45 f0	 mov	 DWORD PTR [ebp-16], eax
  0001b	89 45 f4	 mov	 DWORD PTR [ebp-12], eax
  0001e	89 45 f8	 mov	 DWORD PTR [ebp-8], eax
  00021	89 45 fc	 mov	 DWORD PTR [ebp-4], eax
  00024	a1 00 00 00 00	 mov	 eax, DWORD PTR ___security_cookie
  00029	89 45 fc	 mov	 DWORD PTR __$ArrayPad$[ebp], eax

; 102  : 	UINT nACP = 0;

  0002c	c7 45 f8 00 00
	00 00		 mov	 DWORD PTR _nACP$[ebp], 0

; 103  : 
; 104  : 	LCID lcidThread = ::GetThreadLocale();

  00033	8b f4		 mov	 esi, esp
  00035	ff 15 00 00 00
	00		 call	 DWORD PTR __imp__GetThreadLocale@0
  0003b	3b f4		 cmp	 esi, esp
  0003d	e8 00 00 00 00	 call	 __RTC_CheckEsp
  00042	89 45 f4	 mov	 DWORD PTR _lcidThread$[ebp], eax

; 105  : 
; 106  : 	char szACP[7];
; 107  : 	// GetLocaleInfoA will fail for a Unicode-only LCID, but those are only supported on 
; 108  : 	// Windows 2000.  Since Windows 2000 supports CP_THREAD_ACP, this code path is never
; 109  : 	// executed on Windows 2000.
; 110  : 	if (::GetLocaleInfoA(lcidThread, LOCALE_IDEFAULTANSICODEPAGE, szACP, 7) != 0)

  00045	8b f4		 mov	 esi, esp
  00047	6a 07		 push	 7
  00049	8d 45 e8	 lea	 eax, DWORD PTR _szACP$[ebp]
  0004c	50		 push	 eax
  0004d	68 04 10 00 00	 push	 4100			; 00001004H
  00052	8b 4d f4	 mov	 ecx, DWORD PTR _lcidThread$[ebp]
  00055	51		 push	 ecx
  00056	ff 15 00 00 00
	00		 call	 DWORD PTR __imp__GetLocaleInfoA@16
  0005c	3b f4		 cmp	 esi, esp
  0005e	e8 00 00 00 00	 call	 __RTC_CheckEsp
  00063	85 c0		 test	 eax, eax
  00065	74 34		 je	 SHORT $L24150

; 111  : 	{
; 112  : 		char* pch = szACP;

  00067	8d 55 e8	 lea	 edx, DWORD PTR _szACP$[ebp]
  0006a	89 55 e0	 mov	 DWORD PTR _pch$24151[ebp], edx
$L24153:

; 113  : 		while (*pch != '\0')

  0006d	8b 45 e0	 mov	 eax, DWORD PTR _pch$24151[ebp]
  00070	0f be 08	 movsx	 ecx, BYTE PTR [eax]
  00073	85 c9		 test	 ecx, ecx
  00075	74 24		 je	 SHORT $L24150

; 114  : 		{
; 115  : 			nACP *= 10;

  00077	8b 55 f8	 mov	 edx, DWORD PTR _nACP$[ebp]
  0007a	6b d2 0a	 imul	 edx, 10			; 0000000aH
  0007d	89 55 f8	 mov	 DWORD PTR _nACP$[ebp], edx

; 116  : 			nACP += *pch++ - '0';

  00080	8b 45 e0	 mov	 eax, DWORD PTR _pch$24151[ebp]
  00083	0f be 08	 movsx	 ecx, BYTE PTR [eax]
  00086	8b 55 f8	 mov	 edx, DWORD PTR _nACP$[ebp]
  00089	8d 44 0a d0	 lea	 eax, DWORD PTR [edx+ecx-48]
  0008d	89 45 f8	 mov	 DWORD PTR _nACP$[ebp], eax
  00090	8b 4d e0	 mov	 ecx, DWORD PTR _pch$24151[ebp]
  00093	83 c1 01	 add	 ecx, 1
  00096	89 4d e0	 mov	 DWORD PTR _pch$24151[ebp], ecx

; 117  : 		}

  00099	eb d2		 jmp	 SHORT $L24153
$L24150:

; 118  : 	}
; 119  : 	// Use the Default ANSI Code Page if we were unable to get the thread ACP or if one does not exist.
; 120  : 	if (nACP == 0)

  0009b	83 7d f8 00	 cmp	 DWORD PTR _nACP$[ebp], 0
  0009f	75 12		 jne	 SHORT $L24155

; 121  : 		nACP = ::GetACP();

  000a1	8b f4		 mov	 esi, esp
  000a3	ff 15 00 00 00
	00		 call	 DWORD PTR __imp__GetACP@0
  000a9	3b f4		 cmp	 esi, esp
  000ab	e8 00 00 00 00	 call	 __RTC_CheckEsp
  000b0	89 45 f8	 mov	 DWORD PTR _nACP$[ebp], eax
$L24155:

; 122  : 
; 123  : 	return nACP;

  000b3	8b 45 f8	 mov	 eax, DWORD PTR _nACP$[ebp]

; 124  : }

  000b6	52		 push	 edx
  000b7	8b cd		 mov	 ecx, ebp
  000b9	50		 push	 eax
  000ba	8d 15 00 00 00
	00		 lea	 edx, DWORD PTR $L192187
  000c0	e8 00 00 00 00	 call	 @_RTC_CheckStackVars@8
  000c5	58		 pop	 eax
  000c6	5a		 pop	 edx
  000c7	8b 4d fc	 mov	 ecx, DWORD PTR __$ArrayPad$[ebp]
  000ca	e8 00 00 00 00	 call	 @__security_check_cookie@4
  000cf	5e		 pop	 esi
  000d0	83 c4 20	 add	 esp, 32			; 00000020H
  000d3	3b ec		 cmp	 ebp, esp
  000d5	e8 00 00 00 00	 call	 __RTC_CheckEsp
  000da	8b e5		 mov	 esp, ebp
  000dc	5d		 pop	 ebp
  000dd	c3		 ret	 0
$L192187:
  000de	01 00 00 00	 DD	 1
  000e2	00 00 00 00	 DD	 $L192186
$L192186:
  000e6	e8 ff ff ff	 DD	 -24			; ffffffe8H
  000ea	07 00 00 00	 DD	 7
  000ee	00 00 00 00	 DD	 $L192184
$L192184:
  000f2	73		 DB	 115			; 00000073H
  000f3	7a		 DB	 122			; 0000007aH
  000f4	41		 DB	 65			; 00000041H
  000f5	43		 DB	 67			; 00000043H
  000f6	50		 DB	 80			; 00000050H
  000f7	00		 DB	 0
?_AtlGetThreadACPFake@ATL@@YGIXZ ENDP			; ATL::_AtlGetThreadACPFake
; Function compile flags: /Odt /RTCsu
_TEXT	ENDS
;	COMDAT ?_AtlGetThreadACPReal@ATL@@YGIXZ
_TEXT	SEGMENT
?_AtlGetThreadACPReal@ATL@@YGIXZ PROC NEAR		; ATL::_AtlGetThreadACPReal, COMDAT

; 127  : {

  00000	55		 push	 ebp
  00001	8b ec		 mov	 ebp, esp

; 128  : 	return( CP_THREAD_ACP );

  00003	b8 03 00 00 00	 mov	 eax, 3

; 129  : }

  00008	5d		 pop	 ebp
  00009	c3		 ret	 0
?_AtlGetThreadACPReal@ATL@@YGIXZ ENDP			; ATL::_AtlGetThreadACPReal
_TEXT	ENDS
PUBLIC	?GetInstance@TabWndFactory@@SAPAV1@XZ		; TabWndFactory::GetInstance
PUBLIC	??0TabWndFactory@@QAE@XZ			; TabWndFactory::TabWndFactory
EXTRN	??2@YAPAXI@Z:NEAR				; operator new
EXTRN	??3@YAXPAX@Z:NEAR				; operator delete
EXTRN	__except_list:DWORD
EXTRN	___CxxFrameHandler:NEAR
xdata$x	SEGMENT
$T192201 DD	0ffffffffH
	DD	FLAT:$L192194
$T192198 DD	019930520H
	DD	01H
	DD	FLAT:$T192201
	DD	2 DUP(00H)
	DD	2 DUP(00H)
; Function compile flags: /Odt /RTCsu
; File d:\boxgit\playbox\playbox\dev\prj\playbox\src\module\tabman\tabwndfactory.cpp
xdata$x	ENDS
_TEXT	SEGMENT
tv72 = -24						; size = 4
$T192191 = -20						; size = 4
$T192190 = -16						; size = 4
__$EHRec$ = -12						; size = 12
?GetInstance@TabWndFactory@@SAPAV1@XZ PROC NEAR		; TabWndFactory::GetInstance

; 11   : {

  00000	55		 push	 ebp
  00001	8b ec		 mov	 ebp, esp
  00003	6a ff		 push	 -1
  00005	68 00 00 00 00	 push	 __ehhandler$?GetInstance@TabWndFactory@@SAPAV1@XZ
  0000a	64 a1 00 00 00
	00		 mov	 eax, DWORD PTR fs:__except_list
  00010	50		 push	 eax
  00011	64 89 25 00 00
	00 00		 mov	 DWORD PTR fs:__except_list, esp
  00018	83 ec 0c	 sub	 esp, 12			; 0000000cH
  0001b	c7 45 e8 cc cc
	cc cc		 mov	 DWORD PTR [ebp-24], -858993460 ; ccccccccH
  00022	c7 45 ec cc cc
	cc cc		 mov	 DWORD PTR [ebp-20], -858993460 ; ccccccccH
  00029	c7 45 f0 cc cc
	cc cc		 mov	 DWORD PTR [ebp-16], -858993460 ; ccccccccH

; 12   : 	if( m_pSelf == NULL )

  00030	83 3d 00 00 00
	00 00		 cmp	 DWORD PTR ?m_pSelf@TabWndFactory@@2PAV1@A, 0 ; TabWndFactory::m_pSelf
  00037	75 44		 jne	 SHORT $L190762

; 13   : 	{
; 14   : 		m_pSelf = new TabWndFactory;

  00039	6a 18		 push	 24			; 00000018H
  0003b	e8 00 00 00 00	 call	 ??2@YAPAXI@Z		; operator new
  00040	83 c4 04	 add	 esp, 4
  00043	89 45 ec	 mov	 DWORD PTR $T192191[ebp], eax
  00046	c7 45 fc 00 00
	00 00		 mov	 DWORD PTR __$EHRec$[ebp+8], 0
  0004d	83 7d ec 00	 cmp	 DWORD PTR $T192191[ebp], 0
  00051	74 0d		 je	 SHORT $L192192
  00053	8b 4d ec	 mov	 ecx, DWORD PTR $T192191[ebp]
  00056	e8 00 00 00 00	 call	 ??0TabWndFactory@@QAE@XZ ; TabWndFactory::TabWndFactory
  0005b	89 45 e8	 mov	 DWORD PTR tv72[ebp], eax
  0005e	eb 07		 jmp	 SHORT $L192193
$L192192:
  00060	c7 45 e8 00 00
	00 00		 mov	 DWORD PTR tv72[ebp], 0
$L192193:
  00067	8b 45 e8	 mov	 eax, DWORD PTR tv72[ebp]
  0006a	89 45 f0	 mov	 DWORD PTR $T192190[ebp], eax
  0006d	c7 45 fc ff ff
	ff ff		 mov	 DWORD PTR __$EHRec$[ebp+8], -1
  00074	8b 4d f0	 mov	 ecx, DWORD PTR $T192190[ebp]
  00077	89 0d 00 00 00
	00		 mov	 DWORD PTR ?m_pSelf@TabWndFactory@@2PAV1@A, ecx ; TabWndFactory::m_pSelf
$L190762:

; 15   : 	}
; 16   : 	return m_pSelf;

  0007d	a1 00 00 00 00	 mov	 eax, DWORD PTR ?m_pSelf@TabWndFactory@@2PAV1@A ; TabWndFactory::m_pSelf

; 17   : }

  00082	8b 4d f4	 mov	 ecx, DWORD PTR __$EHRec$[ebp]
  00085	64 89 0d 00 00
	00 00		 mov	 DWORD PTR fs:__except_list, ecx
  0008c	83 c4 18	 add	 esp, 24			; 00000018H
  0008f	3b ec		 cmp	 ebp, esp
  00091	e8 00 00 00 00	 call	 __RTC_CheckEsp
  00096	8b e5		 mov	 esp, ebp
  00098	5d		 pop	 ebp
  00099	c3		 ret	 0
_TEXT	ENDS
text$x	SEGMENT
$L192194:
  00000	8b 45 ec	 mov	 eax, DWORD PTR $T192191[ebp]
  00003	50		 push	 eax
  00004	e8 00 00 00 00	 call	 ??3@YAXPAX@Z		; operator delete
  00009	59		 pop	 ecx
  0000a	c3		 ret	 0
__ehhandler$?GetInstance@TabWndFactory@@SAPAV1@XZ:
  0000b	b8 00 00 00 00	 mov	 eax, OFFSET FLAT:$T192198
  00010	e9 00 00 00 00	 jmp	 ___CxxFrameHandler
text$x	ENDS
?GetInstance@TabWndFactory@@SAPAV1@XZ ENDP		; TabWndFactory::GetInstance
PUBLIC	?DelInstance@TabWndFactory@@SAXXZ		; TabWndFactory::DelInstance
PUBLIC	??_GTabWndFactory@@QAEPAXI@Z			; TabWndFactory::`scalar deleting destructor'
; Function compile flags: /Odt /RTCsu
_TEXT	SEGMENT
tv69 = -12						; size = 4
$T192205 = -8						; size = 4
$T192204 = -4						; size = 4
?DelInstance@TabWndFactory@@SAXXZ PROC NEAR		; TabWndFactory::DelInstance

; 20   : {

  000a0	55		 push	 ebp
  000a1	8b ec		 mov	 ebp, esp
  000a3	83 ec 0c	 sub	 esp, 12			; 0000000cH
  000a6	c7 45 f4 cc cc
	cc cc		 mov	 DWORD PTR [ebp-12], -858993460 ; ccccccccH
  000ad	c7 45 f8 cc cc
	cc cc		 mov	 DWORD PTR [ebp-8], -858993460 ; ccccccccH
  000b4	c7 45 fc cc cc
	cc cc		 mov	 DWORD PTR [ebp-4], -858993460 ; ccccccccH

; 21   : 	if( m_pSelf != NULL )

  000bb	83 3d 00 00 00
	00 00		 cmp	 DWORD PTR ?m_pSelf@TabWndFactory@@2PAV1@A, 0 ; TabWndFactory::m_pSelf
  000c2	74 34		 je	 SHORT $L190768

; 22   : 	{
; 23   : 		delete m_pSelf;

  000c4	a1 00 00 00 00	 mov	 eax, DWORD PTR ?m_pSelf@TabWndFactory@@2PAV1@A ; TabWndFactory::m_pSelf
  000c9	89 45 f8	 mov	 DWORD PTR $T192205[ebp], eax
  000cc	8b 4d f8	 mov	 ecx, DWORD PTR $T192205[ebp]
  000cf	89 4d fc	 mov	 DWORD PTR $T192204[ebp], ecx
  000d2	83 7d fc 00	 cmp	 DWORD PTR $T192204[ebp], 0
  000d6	74 0f		 je	 SHORT $L192206
  000d8	6a 01		 push	 1
  000da	8b 4d fc	 mov	 ecx, DWORD PTR $T192204[ebp]
  000dd	e8 00 00 00 00	 call	 ??_GTabWndFactory@@QAEPAXI@Z
  000e2	89 45 f4	 mov	 DWORD PTR tv69[ebp], eax
  000e5	eb 07		 jmp	 SHORT $L192207
$L192206:
  000e7	c7 45 f4 00 00
	00 00		 mov	 DWORD PTR tv69[ebp], 0
$L192207:

; 24   : 		m_pSelf = NULL;

  000ee	c7 05 00 00 00
	00 00 00 00 00	 mov	 DWORD PTR ?m_pSelf@TabWndFactory@@2PAV1@A, 0 ; TabWndFactory::m_pSelf
$L190768:

; 25   : 	}
; 26   : }

  000f8	83 c4 0c	 add	 esp, 12			; 0000000cH
  000fb	3b ec		 cmp	 ebp, esp
  000fd	e8 00 00 00 00	 call	 __RTC_CheckEsp
  00102	8b e5		 mov	 esp, ebp
  00104	5d		 pop	 ebp
  00105	c3		 ret	 0
?DelInstance@TabWndFactory@@SAXXZ ENDP			; TabWndFactory::DelInstance
_TEXT	ENDS
PUBLIC	??1TabWndFactory@@QAE@XZ			; TabWndFactory::~TabWndFactory
; Function compile flags: /Odt /RTCsu
;	COMDAT ??_GTabWndFactory@@QAEPAXI@Z
_TEXT	SEGMENT
_this$ = -4						; size = 4
___flags$ = 8						; size = 4
??_GTabWndFactory@@QAEPAXI@Z PROC NEAR			; TabWndFactory::`scalar deleting destructor', COMDAT
; _this$ = ecx
  00000	55		 push	 ebp
  00001	8b ec		 mov	 ebp, esp
  00003	51		 push	 ecx
  00004	c7 45 fc cc cc
	cc cc		 mov	 DWORD PTR [ebp-4], -858993460 ; ccccccccH
  0000b	89 4d fc	 mov	 DWORD PTR _this$[ebp], ecx
  0000e	8b 4d fc	 mov	 ecx, DWORD PTR _this$[ebp]
  00011	e8 00 00 00 00	 call	 ??1TabWndFactory@@QAE@XZ ; TabWndFactory::~TabWndFactory
  00016	8b 45 08	 mov	 eax, DWORD PTR ___flags$[ebp]
  00019	83 e0 01	 and	 eax, 1
  0001c	74 0c		 je	 SHORT $L190775
  0001e	8b 4d fc	 mov	 ecx, DWORD PTR _this$[ebp]
  00021	51		 push	 ecx
  00022	e8 00 00 00 00	 call	 ??3@YAXPAX@Z		; operator delete
  00027	83 c4 04	 add	 esp, 4
$L190775:
  0002a	8b 45 fc	 mov	 eax, DWORD PTR _this$[ebp]
  0002d	83 c4 04	 add	 esp, 4
  00030	3b ec		 cmp	 ebp, esp
  00032	e8 00 00 00 00	 call	 __RTC_CheckEsp
  00037	8b e5		 mov	 esp, ebp
  00039	5d		 pop	 ebp
  0003a	c2 04 00	 ret	 4
??_GTabWndFactory@@QAEPAXI@Z ENDP			; TabWndFactory::`scalar deleting destructor'
_TEXT	ENDS
PUBLIC	??0?$vector@PAVCWnd@@V?$allocator@PAVCWnd@@@std@@@std@@QAE@XZ ; std::vector<CWnd *,std::allocator<CWnd *> >::vector<CWnd *,std::allocator<CWnd *> >
; Function compile flags: /Odt /RTCsu
_TEXT	SEGMENT
_this$ = -4						; size = 4
??0TabWndFactory@@QAE@XZ PROC NEAR			; TabWndFactory::TabWndFactory
; _this$ = ecx

; 29   : {

  00110	55		 push	 ebp
  00111	8b ec		 mov	 ebp, esp
  00113	51		 push	 ecx
  00114	c7 45 fc cc cc
	cc cc		 mov	 DWORD PTR [ebp-4], -858993460 ; ccccccccH
  0011b	89 4d fc	 mov	 DWORD PTR _this$[ebp], ecx
  0011e	8b 4d fc	 mov	 ecx, DWORD PTR _this$[ebp]
  00121	e8 00 00 00 00	 call	 ??0?$vector@PAVCWnd@@V?$allocator@PAVCWnd@@@std@@@std@@QAE@XZ ; std::vector<CWnd *,std::allocator<CWnd *> >::vector<CWnd *,std::allocator<CWnd *> >

; 30   : 	m_idWnd = 1000;

  00126	8b 45 fc	 mov	 eax, DWORD PTR _this$[ebp]
  00129	c7 40 14 e8 03
	00 00		 mov	 DWORD PTR [eax+20], 1000 ; 000003e8H

; 31   : }

  00130	8b 45 fc	 mov	 eax, DWORD PTR _this$[ebp]
  00133	83 c4 04	 add	 esp, 4
  00136	3b ec		 cmp	 ebp, esp
  00138	e8 00 00 00 00	 call	 __RTC_CheckEsp
  0013d	8b e5		 mov	 esp, ebp
  0013f	5d		 pop	 ebp
  00140	c3		 ret	 0
??0TabWndFactory@@QAE@XZ ENDP				; TabWndFactory::TabWndFactory
_TEXT	ENDS
PUBLIC	??1?$vector@PAVCWnd@@V?$allocator@PAVCWnd@@@std@@@std@@QAE@XZ ; std::vector<CWnd *,std::allocator<CWnd *> >::~vector<CWnd *,std::allocator<CWnd *> >
; Function compile flags: /Odt /RTCsu
_TEXT	SEGMENT
_this$ = -4						; size = 4
??1TabWndFactory@@QAE@XZ PROC NEAR			; TabWndFactory::~TabWndFactory
; _this$ = ecx

; 34   : {

  00150	55		 push	 ebp
  00151	8b ec		 mov	 ebp, esp
  00153	51		 push	 ecx
  00154	c7 45 fc cc cc
	cc cc		 mov	 DWORD PTR [ebp-4], -858993460 ; ccccccccH
  0015b	89 4d fc	 mov	 DWORD PTR _this$[ebp], ecx

; 35   : 	//m_vecWnd
; 36   : 	//for( vector<CWnd*>::iterator it1 = m_vecWnd.begin(); 
; 37   : 	//	it1 != m_vecWnd.end(); it1++ )
; 38   : 	//{
; 39   : 	//	CWnd* pWnd = (CWnd*)(*it1);
; 40   : 	//	if( dynamic_cast<PlayedGameWnd*>(pWnd) )
; 41   : 	//	{
; 42   : 	//		PlayedGameWnd* pWnd1 = (PlayedGameWnd*)pWnd;
; 43   : 	//		pWnd1->DestroyWindow();
; 44   : 	//		delete pWnd1;
; 45   : 	//	}else
; 46   : 	//	if( dynamic_cast<GamePanelWnd*>(pWnd) )
; 47   : 	//	{
; 48   : 	//		GamePanelWnd* pWnd1 = (GamePanelWnd*)pWnd;
; 49   : 	//		pWnd1->DestroyWindow();
; 50   : 	//		delete pWnd1;
; 51   : 	//	}else
; 52   : 	//	if( dynamic_cast<WebGamePanelWnd*>(pWnd) )
; 53   : 	//	{
; 54   : 	//		WebGamePanelWnd* pWnd1 = (WebGamePanelWnd*)pWnd;
; 55   : 	//		pWnd1->DestroyWindow();
; 56   : 	//		delete pWnd1;
; 57   : 	//	}else
; 58   : 	//	if( dynamic_cast<MyWebBrowserWnd*>(pWnd) )
; 59   : 	//	{
; 60   : 	//		MyWebBrowserWnd* pWnd1 = (MyWebBrowserWnd*)pWnd;
; 61   : 	//		pWnd1->DestroyWindow();
; 62   : 	//	}
; 63   : 	//}
; 64   : }

  0015e	8b 4d fc	 mov	 ecx, DWORD PTR _this$[ebp]
  00161	e8 00 00 00 00	 call	 ??1?$vector@PAVCWnd@@V?$allocator@PAVCWnd@@@std@@@std@@QAE@XZ ; std::vector<CWnd *,std::allocator<CWnd *> >::~vector<CWnd *,std::allocator<CWnd *> >
  00166	83 c4 04	 add	 esp, 4
  00169	3b ec		 cmp	 ebp, esp
  0016b	e8 00 00 00 00	 call	 __RTC_CheckEsp
  00170	8b e5		 mov	 esp, ebp
  00172	5d		 pop	 ebp
  00173	c3		 ret	 0
??1TabWndFactory@@QAE@XZ ENDP				; TabWndFactory::~TabWndFactory
_TEXT	ENDS
PUBLIC	?SetParent@TabWndFactory@@QAEXPAVCWnd@@@Z	; TabWndFactory::SetParent
; Function compile flags: /Odt /RTCsu
_TEXT	SEGMENT
_this$ = -4						; size = 4
_pWnd$ = 8						; size = 4
?SetParent@TabWndFactory@@QAEXPAVCWnd@@@Z PROC NEAR	; TabWndFactory::SetParent
; _this$ = ecx

; 67   : {

  00180	55		 push	 ebp
  00181	8b ec		 mov	 ebp, esp
  00183	51		 push	 ecx
  00184	c7 45 fc cc cc
	cc cc		 mov	 DWORD PTR [ebp-4], -858993460 ; ccccccccH
  0018b	89 4d fc	 mov	 DWORD PTR _this$[ebp], ecx

; 68   : 	m_pWndParent = pWnd;

  0018e	8b 45 fc	 mov	 eax, DWORD PTR _this$[ebp]
  00191	8b 4d 08	 mov	 ecx, DWORD PTR _pWnd$[ebp]
  00194	89 48 10	 mov	 DWORD PTR [eax+16], ecx

; 69   : }

  00197	8b e5		 mov	 esp, ebp
  00199	5d		 pop	 ebp
  0019a	c2 04 00	 ret	 4
?SetParent@TabWndFactory@@QAEXPAVCWnd@@@Z ENDP		; TabWndFactory::SetParent
_TEXT	ENDS
PUBLIC	??_R0?AVCWnd@@@8				; CWnd `RTTI Type Descriptor'
PUBLIC	??9const_iterator@?$vector@PAVCWnd@@V?$allocator@PAVCWnd@@@std@@@std@@QBE_NABV012@@Z ; std::vector<CWnd *,std::allocator<CWnd *> >::const_iterator::operator!=
PUBLIC	??Diterator@?$vector@PAVCWnd@@V?$allocator@PAVCWnd@@@std@@@std@@QBEAAPAVCWnd@@XZ ; std::vector<CWnd *,std::allocator<CWnd *> >::iterator::operator*
PUBLIC	??Eiterator@?$vector@PAVCWnd@@V?$allocator@PAVCWnd@@@std@@@std@@QAE?AV012@H@Z ; std::vector<CWnd *,std::allocator<CWnd *> >::iterator::operator++
PUBLIC	??_R0?AVPlayedGameWnd@@@8			; PlayedGameWnd `RTTI Type Descriptor'
PUBLIC	?begin@?$vector@PAVCWnd@@V?$allocator@PAVCWnd@@@std@@@std@@QAE?AViterator@12@XZ ; std::vector<CWnd *,std::allocator<CWnd *> >::begin
PUBLIC	?end@?$vector@PAVCWnd@@V?$allocator@PAVCWnd@@@std@@@std@@QAE?AViterator@12@XZ ; std::vector<CWnd *,std::allocator<CWnd *> >::end
PUBLIC	?erase@?$vector@PAVCWnd@@V?$allocator@PAVCWnd@@@std@@@std@@QAE?AViterator@12@V312@@Z ; std::vector<CWnd *,std::allocator<CWnd *> >::erase
PUBLIC	?CreateWndPlayedGame@TabWndFactory@@QAEPAVPlayedGameWnd@@XZ ; TabWndFactory::CreateWndPlayedGame
EXTRN	??0PlayedGameWnd@@QAE@XZ:NEAR			; PlayedGameWnd::PlayedGameWnd
EXTRN	___RTDynamicCast:NEAR
EXTRN	??0CRect@@QAE@XZ:NEAR				; CRect::CRect
EXTRN	??2CObject@@SGPAXI@Z:NEAR			; CObject::operator new
EXTRN	??3CObject@@SGXPAX@Z:NEAR			; CObject::operator delete
EXTRN	?MoveWindow@CWnd@@QAEXPBUtagRECT@@H@Z:NEAR	; CWnd::MoveWindow
EXTRN	?GetClientRect@CWnd@@QBEXPAUtagRECT@@@Z:NEAR	; CWnd::GetClientRect
EXTRN	?ShowWindow@CWnd@@QAEHH@Z:NEAR			; CWnd::ShowWindow
EXTRN	??_7type_info@@6B@:QWORD			; type_info::`vftable'
xdata$x	SEGMENT
$T192230 DD	0ffffffffH
	DD	FLAT:$L192222
$T192224 DD	019930520H
	DD	01H
	DD	FLAT:$T192230
	DD	2 DUP(00H)
	DD	2 DUP(00H)
xdata$x	ENDS
;	COMDAT ??_R0?AVPlayedGameWnd@@@8
_DATA	SEGMENT
??_R0?AVPlayedGameWnd@@@8 DD FLAT:??_7type_info@@6B@	; PlayedGameWnd `RTTI Type Descriptor'
	DD	00H
	DB	'.?AVPlayedGameWnd@@', 00H
_DATA	ENDS
;	COMDAT ??_R0?AVCWnd@@@8
_DATA	SEGMENT
??_R0?AVCWnd@@@8 DD FLAT:??_7type_info@@6B@		; CWnd `RTTI Type Descriptor'
	DD	00H
	DB	'.?AVCWnd@@', 00H
	ORG $-19
	DD	FLAT:??_7type_info@@6B@
	DD	00H
	DB	'.?AVCWnd@@', 00H
; Function compile flags: /Odt /RTCsu
_DATA	ENDS
_TEXT	SEGMENT
tv151 = -84						; size = 4
tv142 = -80						; size = 4
$T192219 = -76						; size = 4
$T192218 = -72						; size = 4
$T192217 = -68						; size = 4
$T192216 = -64						; size = 4
$T192215 = -60						; size = 4
_rc$ = -52						; size = 16
_it1$190907 = -28					; size = 4
_pWnd$ = -20						; size = 4
_this$ = -16						; size = 4
__$EHRec$ = -12						; size = 12
?CreateWndPlayedGame@TabWndFactory@@QAEPAVPlayedGameWnd@@XZ PROC NEAR ; TabWndFactory::CreateWndPlayedGame
; _this$ = ecx

; 72   : {

  001a0	55		 push	 ebp
  001a1	8b ec		 mov	 ebp, esp
  001a3	6a ff		 push	 -1
  001a5	68 00 00 00 00	 push	 __ehhandler$?CreateWndPlayedGame@TabWndFactory@@QAEPAVPlayedGameWnd@@XZ
  001aa	64 a1 00 00 00
	00		 mov	 eax, DWORD PTR fs:__except_list
  001b0	50		 push	 eax
  001b1	64 89 25 00 00
	00 00		 mov	 DWORD PTR fs:__except_list, esp
  001b8	83 ec 48	 sub	 esp, 72			; 00000048H
  001bb	56		 push	 esi
  001bc	57		 push	 edi
  001bd	51		 push	 ecx
  001be	8d 7d ac	 lea	 edi, DWORD PTR [ebp-84]
  001c1	b9 12 00 00 00	 mov	 ecx, 18			; 00000012H
  001c6	b8 cc cc cc cc	 mov	 eax, -858993460		; ccccccccH
  001cb	f3 ab		 rep stosd
  001cd	59		 pop	 ecx
  001ce	89 4d f0	 mov	 DWORD PTR _this$[ebp], ecx

; 73   : 	PlayedGameWnd* pWnd = NULL;

  001d1	c7 45 ec 00 00
	00 00		 mov	 DWORD PTR _pWnd$[ebp], 0

; 74   : 	for( vector<CWnd*>::iterator it1 = m_vecWnd.begin();

  001d8	8d 45 e4	 lea	 eax, DWORD PTR _it1$190907[ebp]
  001db	50		 push	 eax
  001dc	8b 4d f0	 mov	 ecx, DWORD PTR _this$[ebp]
  001df	e8 00 00 00 00	 call	 ?begin@?$vector@PAVCWnd@@V?$allocator@PAVCWnd@@@std@@@std@@QAE?AViterator@12@XZ ; std::vector<CWnd *,std::allocator<CWnd *> >::begin

; 75   : 		it1 != m_vecWnd.end(); it1++ )

  001e4	eb 0e		 jmp	 SHORT $L190911
$L190912:
  001e6	6a 00		 push	 0
  001e8	8d 4d c4	 lea	 ecx, DWORD PTR $T192215[ebp]
  001eb	51		 push	 ecx
  001ec	8d 4d e4	 lea	 ecx, DWORD PTR _it1$190907[ebp]
  001ef	e8 00 00 00 00	 call	 ??Eiterator@?$vector@PAVCWnd@@V?$allocator@PAVCWnd@@@std@@@std@@QAE?AV012@H@Z ; std::vector<CWnd *,std::allocator<CWnd *> >::iterator::operator++
$L190911:
  001f4	8d 55 c0	 lea	 edx, DWORD PTR $T192216[ebp]
  001f7	52		 push	 edx
  001f8	8b 4d f0	 mov	 ecx, DWORD PTR _this$[ebp]
  001fb	e8 00 00 00 00	 call	 ?end@?$vector@PAVCWnd@@V?$allocator@PAVCWnd@@@std@@@std@@QAE?AViterator@12@XZ ; std::vector<CWnd *,std::allocator<CWnd *> >::end
  00200	50		 push	 eax
  00201	8d 4d e4	 lea	 ecx, DWORD PTR _it1$190907[ebp]
  00204	e8 00 00 00 00	 call	 ??9const_iterator@?$vector@PAVCWnd@@V?$allocator@PAVCWnd@@@std@@@std@@QBE_NABV012@@Z ; std::vector<CWnd *,std::allocator<CWnd *> >::const_iterator::operator!=
  00209	0f b6 c0	 movzx	 eax, al
  0020c	85 c0		 test	 eax, eax
  0020e	74 46		 je	 SHORT $L190913

; 76   : 	{
; 77   : 		if( dynamic_cast<PlayedGameWnd*>(*it1) )

  00210	6a 00		 push	 0
  00212	68 00 00 00 00	 push	 OFFSET FLAT:??_R0?AVPlayedGameWnd@@@8
  00217	68 00 00 00 00	 push	 OFFSET FLAT:??_R0?AVCWnd@@@8
  0021c	6a 00		 push	 0
  0021e	8d 4d e4	 lea	 ecx, DWORD PTR _it1$190907[ebp]
  00221	e8 00 00 00 00	 call	 ??Diterator@?$vector@PAVCWnd@@V?$allocator@PAVCWnd@@@std@@@std@@QBEAAPAVCWnd@@XZ ; std::vector<CWnd *,std::allocator<CWnd *> >::iterator::operator*
  00226	8b 08		 mov	 ecx, DWORD PTR [eax]
  00228	51		 push	 ecx
  00229	e8 00 00 00 00	 call	 ___RTDynamicCast
  0022e	83 c4 14	 add	 esp, 20			; 00000014H
  00231	85 c0		 test	 eax, eax
  00233	74 1f		 je	 SHORT $L190916

; 78   : 		{
; 79   : 			pWnd = (PlayedGameWnd*)(*it1);

  00235	8d 4d e4	 lea	 ecx, DWORD PTR _it1$190907[ebp]
  00238	e8 00 00 00 00	 call	 ??Diterator@?$vector@PAVCWnd@@V?$allocator@PAVCWnd@@@std@@@std@@QBEAAPAVCWnd@@XZ ; std::vector<CWnd *,std::allocator<CWnd *> >::iterator::operator*
  0023d	8b 10		 mov	 edx, DWORD PTR [eax]
  0023f	89 55 ec	 mov	 DWORD PTR _pWnd$[ebp], edx

; 80   : 			m_vecWnd.erase( it1 );

  00242	8b 45 e4	 mov	 eax, DWORD PTR _it1$190907[ebp]
  00245	50		 push	 eax
  00246	8d 4d bc	 lea	 ecx, DWORD PTR $T192217[ebp]
  00249	51		 push	 ecx
  0024a	8b 4d f0	 mov	 ecx, DWORD PTR _this$[ebp]
  0024d	e8 00 00 00 00	 call	 ?erase@?$vector@PAVCWnd@@V?$allocator@PAVCWnd@@@std@@@std@@QAE?AViterator@12@V312@@Z ; std::vector<CWnd *,std::allocator<CWnd *> >::erase

; 81   : 			break;

  00252	eb 02		 jmp	 SHORT $L190913
$L190916:

; 82   : 		}
; 83   : 	}

  00254	eb 90		 jmp	 SHORT $L190912
$L190913:

; 84   : 
; 85   : 	CRect rc;

  00256	8d 4d cc	 lea	 ecx, DWORD PTR _rc$[ebp]
  00259	e8 00 00 00 00	 call	 ??0CRect@@QAE@XZ	; CRect::CRect

; 86   : 	m_pWndParent->GetClientRect( &rc );

  0025e	8d 55 cc	 lea	 edx, DWORD PTR _rc$[ebp]
  00261	52		 push	 edx
  00262	8b 45 f0	 mov	 eax, DWORD PTR _this$[ebp]
  00265	8b 48 10	 mov	 ecx, DWORD PTR [eax+16]
  00268	e8 00 00 00 00	 call	 ?GetClientRect@CWnd@@QBEXPAUtagRECT@@@Z ; CWnd::GetClientRect

; 87   : 
; 88   : 	rc.top += 24;

  0026d	8b 4d d0	 mov	 ecx, DWORD PTR _rc$[ebp+4]
  00270	83 c1 18	 add	 ecx, 24			; 00000018H
  00273	89 4d d0	 mov	 DWORD PTR _rc$[ebp+4], ecx

; 89   : 
; 90   : 	if( pWnd )

  00276	83 7d ec 00	 cmp	 DWORD PTR _pWnd$[ebp], 0
  0027a	74 1d		 je	 SHORT $L190920

; 91   : 	{
; 92   : 		pWnd->MoveWindow( &rc );

  0027c	6a 01		 push	 1
  0027e	8d 55 cc	 lea	 edx, DWORD PTR _rc$[ebp]
  00281	52		 push	 edx
  00282	8b 4d ec	 mov	 ecx, DWORD PTR _pWnd$[ebp]
  00285	e8 00 00 00 00	 call	 ?MoveWindow@CWnd@@QAEXPBUtagRECT@@H@Z ; CWnd::MoveWindow

; 93   : 		pWnd->ShowWindow( SW_SHOW ); 

  0028a	6a 05		 push	 5
  0028c	8b 4d ec	 mov	 ecx, DWORD PTR _pWnd$[ebp]
  0028f	e8 00 00 00 00	 call	 ?ShowWindow@CWnd@@QAEHH@Z ; CWnd::ShowWindow

; 94   : 	}else

  00294	e9 91 00 00 00	 jmp	 $L190921
$L190920:

; 95   : 	{
; 96   : 		pWnd = new PlayedGameWnd();

  00299	68 60 02 00 00	 push	 608			; 00000260H
  0029e	e8 00 00 00 00	 call	 ??2CObject@@SGPAXI@Z	; CObject::operator new
  002a3	89 45 b4	 mov	 DWORD PTR $T192219[ebp], eax
  002a6	c7 45 fc 00 00
	00 00		 mov	 DWORD PTR __$EHRec$[ebp+8], 0
  002ad	83 7d b4 00	 cmp	 DWORD PTR $T192219[ebp], 0
  002b1	74 0d		 je	 SHORT $L192220
  002b3	8b 4d b4	 mov	 ecx, DWORD PTR $T192219[ebp]
  002b6	e8 00 00 00 00	 call	 ??0PlayedGameWnd@@QAE@XZ ; PlayedGameWnd::PlayedGameWnd
  002bb	89 45 b0	 mov	 DWORD PTR tv142[ebp], eax
  002be	eb 07		 jmp	 SHORT $L192221
$L192220:
  002c0	c7 45 b0 00 00
	00 00		 mov	 DWORD PTR tv142[ebp], 0
$L192221:
  002c7	8b 45 b0	 mov	 eax, DWORD PTR tv142[ebp]
  002ca	89 45 b8	 mov	 DWORD PTR $T192218[ebp], eax
  002cd	c7 45 fc ff ff
	ff ff		 mov	 DWORD PTR __$EHRec$[ebp+8], -1
  002d4	8b 4d b8	 mov	 ecx, DWORD PTR $T192218[ebp]
  002d7	89 4d ec	 mov	 DWORD PTR _pWnd$[ebp], ecx

; 97   : 		pWnd->Create(NULL,NULL,WS_CHILD|WS_VISIBLE|WS_CLIPCHILDREN|WS_CLIPSIBLINGS,rc,m_pWndParent, m_idWnd++);

  002da	8b 55 f0	 mov	 edx, DWORD PTR _this$[ebp]
  002dd	8b 42 14	 mov	 eax, DWORD PTR [edx+20]
  002e0	89 45 ac	 mov	 DWORD PTR tv151[ebp], eax
  002e3	8b 4d f0	 mov	 ecx, DWORD PTR _this$[ebp]
  002e6	8b 51 14	 mov	 edx, DWORD PTR [ecx+20]
  002e9	83 c2 01	 add	 edx, 1
  002ec	8b 45 f0	 mov	 eax, DWORD PTR _this$[ebp]
  002ef	89 50 14	 mov	 DWORD PTR [eax+20], edx
  002f2	8b f4		 mov	 esi, esp
  002f4	6a 00		 push	 0
  002f6	8b 4d ac	 mov	 ecx, DWORD PTR tv151[ebp]
  002f9	51		 push	 ecx
  002fa	8b 55 f0	 mov	 edx, DWORD PTR _this$[ebp]
  002fd	8b 42 10	 mov	 eax, DWORD PTR [edx+16]
  00300	50		 push	 eax
  00301	8d 4d cc	 lea	 ecx, DWORD PTR _rc$[ebp]
  00304	51		 push	 ecx
  00305	68 00 00 00 56	 push	 1442840576		; 56000000H
  0030a	6a 00		 push	 0
  0030c	6a 00		 push	 0
  0030e	8b 55 ec	 mov	 edx, DWORD PTR _pWnd$[ebp]
  00311	8b 02		 mov	 eax, DWORD PTR [edx]
  00313	8b 4d ec	 mov	 ecx, DWORD PTR _pWnd$[ebp]
  00316	ff 50 5c	 call	 DWORD PTR [eax+92]
  00319	3b f4		 cmp	 esi, esp
  0031b	e8 00 00 00 00	 call	 __RTC_CheckEsp

; 98   : 	
; 99   : 		pWnd->ShowWindow (SW_SHOW);

  00320	6a 05		 push	 5
  00322	8b 4d ec	 mov	 ecx, DWORD PTR _pWnd$[ebp]
  00325	e8 00 00 00 00	 call	 ?ShowWindow@CWnd@@QAEHH@Z ; CWnd::ShowWindow
$L190921:

; 100  : 	}
; 101  : 	return pWnd;

  0032a	8b 45 ec	 mov	 eax, DWORD PTR _pWnd$[ebp]

; 102  : }

  0032d	52		 push	 edx
  0032e	8b cd		 mov	 ecx, ebp
  00330	50		 push	 eax
  00331	8d 15 00 00 00
	00		 lea	 edx, DWORD PTR $L192229
  00337	e8 00 00 00 00	 call	 @_RTC_CheckStackVars@8
  0033c	58		 pop	 eax
  0033d	5a		 pop	 edx
  0033e	8b 4d f4	 mov	 ecx, DWORD PTR __$EHRec$[ebp]
  00341	64 89 0d 00 00
	00 00		 mov	 DWORD PTR fs:__except_list, ecx
  00348	5f		 pop	 edi
  00349	5e		 pop	 esi
  0034a	83 c4 54	 add	 esp, 84			; 00000054H
  0034d	3b ec		 cmp	 ebp, esp
  0034f	e8 00 00 00 00	 call	 __RTC_CheckEsp
  00354	8b e5		 mov	 esp, ebp
  00356	5d		 pop	 ebp
  00357	c3		 ret	 0
$L192229:
  00358	02 00 00 00	 DD	 2
  0035c	00 00 00 00	 DD	 $L192228
$L192228:
  00360	e4 ff ff ff	 DD	 -28			; ffffffe4H
  00364	04 00 00 00	 DD	 4
  00368	00 00 00 00	 DD	 $L192225
  0036c	cc ff ff ff	 DD	 -52			; ffffffccH
  00370	10 00 00 00	 DD	 16			; 00000010H
  00374	00 00 00 00	 DD	 $L192226
$L192226:
  00378	72		 DB	 114			; 00000072H
  00379	63		 DB	 99			; 00000063H
  0037a	00		 DB	 0
$L192225:
  0037b	69		 DB	 105			; 00000069H
  0037c	74		 DB	 116			; 00000074H
  0037d	31		 DB	 49			; 00000031H
  0037e	00		 DB	 0
_TEXT	ENDS
text$x	SEGMENT
$L192222:
  00015	8b 45 b4	 mov	 eax, DWORD PTR $T192219[ebp]
  00018	50		 push	 eax
  00019	e8 00 00 00 00	 call	 ??3CObject@@SGXPAX@Z	; CObject::operator delete
  0001e	c3		 ret	 0
__ehhandler$?CreateWndPlayedGame@TabWndFactory@@QAEPAVPlayedGameWnd@@XZ:
  0001f	b8 00 00 00 00	 mov	 eax, OFFSET FLAT:$T192224
  00024	e9 00 00 00 00	 jmp	 ___CxxFrameHandler
text$x	ENDS
?CreateWndPlayedGame@TabWndFactory@@QAEPAVPlayedGameWnd@@XZ ENDP ; TabWndFactory::CreateWndPlayedGame
PUBLIC	??_R0?AVGamePanelWnd@@@8			; GamePanelWnd `RTTI Type Descriptor'
PUBLIC	?CreateWndGamePanel@TabWndFactory@@QAEPAVGamePanelWnd@@XZ ; TabWndFactory::CreateWndGamePanel
EXTRN	??0GamePanelWnd@@QAE@XZ:NEAR			; GamePanelWnd::GamePanelWnd
xdata$x	SEGMENT
$T192247 DD	0ffffffffH
	DD	FLAT:$L192239
$T192241 DD	019930520H
	DD	01H
	DD	FLAT:$T192247
	DD	2 DUP(00H)
	DD	2 DUP(00H)
xdata$x	ENDS
;	COMDAT ??_R0?AVGamePanelWnd@@@8
_DATA	SEGMENT
??_R0?AVGamePanelWnd@@@8 DD FLAT:??_7type_info@@6B@	; GamePanelWnd `RTTI Type Descriptor'
	DD	00H
	DB	'.?AVGamePanelWnd@@', 00H
; Function compile flags: /Odt /RTCsu
_DATA	ENDS
_TEXT	SEGMENT
tv150 = -84						; size = 4
tv141 = -80						; size = 4
$T192236 = -76						; size = 4
$T192235 = -72						; size = 4
$T192234 = -68						; size = 4
$T192233 = -64						; size = 4
$T192232 = -60						; size = 4
_rc$ = -52						; size = 16
_it1$190931 = -28					; size = 4
_pWnd$ = -20						; size = 4
_this$ = -16						; size = 4
__$EHRec$ = -12						; size = 12
?CreateWndGamePanel@TabWndFactory@@QAEPAVGamePanelWnd@@XZ PROC NEAR ; TabWndFactory::CreateWndGamePanel
; _this$ = ecx

; 105  : {

  00380	55		 push	 ebp
  00381	8b ec		 mov	 ebp, esp
  00383	6a ff		 push	 -1
  00385	68 00 00 00 00	 push	 __ehhandler$?CreateWndGamePanel@TabWndFactory@@QAEPAVGamePanelWnd@@XZ
  0038a	64 a1 00 00 00
	00		 mov	 eax, DWORD PTR fs:__except_list
  00390	50		 push	 eax
  00391	64 89 25 00 00
	00 00		 mov	 DWORD PTR fs:__except_list, esp
  00398	83 ec 48	 sub	 esp, 72			; 00000048H
  0039b	56		 push	 esi
  0039c	57		 push	 edi
  0039d	51		 push	 ecx
  0039e	8d 7d ac	 lea	 edi, DWORD PTR [ebp-84]
  003a1	b9 12 00 00 00	 mov	 ecx, 18			; 00000012H
  003a6	b8 cc cc cc cc	 mov	 eax, -858993460		; ccccccccH
  003ab	f3 ab		 rep stosd
  003ad	59		 pop	 ecx
  003ae	89 4d f0	 mov	 DWORD PTR _this$[ebp], ecx

; 106  : 	GamePanelWnd* pWnd = NULL;

  003b1	c7 45 ec 00 00
	00 00		 mov	 DWORD PTR _pWnd$[ebp], 0

; 107  : 	for( vector<CWnd*>::iterator it1 = m_vecWnd.begin();

  003b8	8d 45 e4	 lea	 eax, DWORD PTR _it1$190931[ebp]
  003bb	50		 push	 eax
  003bc	8b 4d f0	 mov	 ecx, DWORD PTR _this$[ebp]
  003bf	e8 00 00 00 00	 call	 ?begin@?$vector@PAVCWnd@@V?$allocator@PAVCWnd@@@std@@@std@@QAE?AViterator@12@XZ ; std::vector<CWnd *,std::allocator<CWnd *> >::begin

; 108  : 		it1 != m_vecWnd.end(); it1++ )

  003c4	eb 0e		 jmp	 SHORT $L190935
$L190936:
  003c6	6a 00		 push	 0
  003c8	8d 4d c4	 lea	 ecx, DWORD PTR $T192232[ebp]
  003cb	51		 push	 ecx
  003cc	8d 4d e4	 lea	 ecx, DWORD PTR _it1$190931[ebp]
  003cf	e8 00 00 00 00	 call	 ??Eiterator@?$vector@PAVCWnd@@V?$allocator@PAVCWnd@@@std@@@std@@QAE?AV012@H@Z ; std::vector<CWnd *,std::allocator<CWnd *> >::iterator::operator++
$L190935:
  003d4	8d 55 c0	 lea	 edx, DWORD PTR $T192233[ebp]
  003d7	52		 push	 edx
  003d8	8b 4d f0	 mov	 ecx, DWORD PTR _this$[ebp]
  003db	e8 00 00 00 00	 call	 ?end@?$vector@PAVCWnd@@V?$allocator@PAVCWnd@@@std@@@std@@QAE?AViterator@12@XZ ; std::vector<CWnd *,std::allocator<CWnd *> >::end
  003e0	50		 push	 eax
  003e1	8d 4d e4	 lea	 ecx, DWORD PTR _it1$190931[ebp]
  003e4	e8 00 00 00 00	 call	 ??9const_iterator@?$vector@PAVCWnd@@V?$allocator@PAVCWnd@@@std@@@std@@QBE_NABV012@@Z ; std::vector<CWnd *,std::allocator<CWnd *> >::const_iterator::operator!=
  003e9	0f b6 c0	 movzx	 eax, al
  003ec	85 c0		 test	 eax, eax
  003ee	74 46		 je	 SHORT $L190937

; 109  : 	{
; 110  : 		if( dynamic_cast<GamePanelWnd*>(*it1) )

  003f0	6a 00		 push	 0
  003f2	68 00 00 00 00	 push	 OFFSET FLAT:??_R0?AVGamePanelWnd@@@8
  003f7	68 00 00 00 00	 push	 OFFSET FLAT:??_R0?AVCWnd@@@8
  003fc	6a 00		 push	 0
  003fe	8d 4d e4	 lea	 ecx, DWORD PTR _it1$190931[ebp]
  00401	e8 00 00 00 00	 call	 ??Diterator@?$vector@PAVCWnd@@V?$allocator@PAVCWnd@@@std@@@std@@QBEAAPAVCWnd@@XZ ; std::vector<CWnd *,std::allocator<CWnd *> >::iterator::operator*
  00406	8b 08		 mov	 ecx, DWORD PTR [eax]
  00408	51		 push	 ecx
  00409	e8 00 00 00 00	 call	 ___RTDynamicCast
  0040e	83 c4 14	 add	 esp, 20			; 00000014H
  00411	85 c0		 test	 eax, eax
  00413	74 1f		 je	 SHORT $L190940

; 111  : 		{
; 112  : 			pWnd = (GamePanelWnd*)(*it1);

  00415	8d 4d e4	 lea	 ecx, DWORD PTR _it1$190931[ebp]
  00418	e8 00 00 00 00	 call	 ??Diterator@?$vector@PAVCWnd@@V?$allocator@PAVCWnd@@@std@@@std@@QBEAAPAVCWnd@@XZ ; std::vector<CWnd *,std::allocator<CWnd *> >::iterator::operator*
  0041d	8b 10		 mov	 edx, DWORD PTR [eax]
  0041f	89 55 ec	 mov	 DWORD PTR _pWnd$[ebp], edx

; 113  : 			m_vecWnd.erase( it1 );

  00422	8b 45 e4	 mov	 eax, DWORD PTR _it1$190931[ebp]
  00425	50		 push	 eax
  00426	8d 4d bc	 lea	 ecx, DWORD PTR $T192234[ebp]
  00429	51		 push	 ecx
  0042a	8b 4d f0	 mov	 ecx, DWORD PTR _this$[ebp]
  0042d	e8 00 00 00 00	 call	 ?erase@?$vector@PAVCWnd@@V?$allocator@PAVCWnd@@@std@@@std@@QAE?AViterator@12@V312@@Z ; std::vector<CWnd *,std::allocator<CWnd *> >::erase

; 114  : 			break;

  00432	eb 02		 jmp	 SHORT $L190937
$L190940:

; 115  : 		}
; 116  : 	}

  00434	eb 90		 jmp	 SHORT $L190936
$L190937:

; 117  : 
; 118  : 	CRect rc;

  00436	8d 4d cc	 lea	 ecx, DWORD PTR _rc$[ebp]
  00439	e8 00 00 00 00	 call	 ??0CRect@@QAE@XZ	; CRect::CRect

; 119  : 	m_pWndParent->GetClientRect( &rc );

  0043e	8d 55 cc	 lea	 edx, DWORD PTR _rc$[ebp]
  00441	52		 push	 edx
  00442	8b 45 f0	 mov	 eax, DWORD PTR _this$[ebp]
  00445	8b 48 10	 mov	 ecx, DWORD PTR [eax+16]
  00448	e8 00 00 00 00	 call	 ?GetClientRect@CWnd@@QBEXPAUtagRECT@@@Z ; CWnd::GetClientRect

; 120  : 	if( pWnd )

  0044d	83 7d ec 00	 cmp	 DWORD PTR _pWnd$[ebp], 0
  00451	74 1d		 je	 SHORT $L190944

; 121  : 	{
; 122  : 		pWnd->MoveWindow( &rc );

  00453	6a 01		 push	 1
  00455	8d 4d cc	 lea	 ecx, DWORD PTR _rc$[ebp]
  00458	51		 push	 ecx
  00459	8b 4d ec	 mov	 ecx, DWORD PTR _pWnd$[ebp]
  0045c	e8 00 00 00 00	 call	 ?MoveWindow@CWnd@@QAEXPBUtagRECT@@H@Z ; CWnd::MoveWindow

; 123  : 		pWnd->ShowWindow( SW_SHOW ); 

  00461	6a 05		 push	 5
  00463	8b 4d ec	 mov	 ecx, DWORD PTR _pWnd$[ebp]
  00466	e8 00 00 00 00	 call	 ?ShowWindow@CWnd@@QAEHH@Z ; CWnd::ShowWindow

; 124  : 	}else

  0046b	e9 87 00 00 00	 jmp	 $L190945
$L190944:

; 125  : 	{
; 126  : 		pWnd = new GamePanelWnd();

  00470	68 64 01 00 00	 push	 356			; 00000164H
  00475	e8 00 00 00 00	 call	 ??2CObject@@SGPAXI@Z	; CObject::operator new
  0047a	89 45 b4	 mov	 DWORD PTR $T192236[ebp], eax
  0047d	c7 45 fc 00 00
	00 00		 mov	 DWORD PTR __$EHRec$[ebp+8], 0
  00484	83 7d b4 00	 cmp	 DWORD PTR $T192236[ebp], 0
  00488	74 0d		 je	 SHORT $L192237
  0048a	8b 4d b4	 mov	 ecx, DWORD PTR $T192236[ebp]
  0048d	e8 00 00 00 00	 call	 ??0GamePanelWnd@@QAE@XZ	; GamePanelWnd::GamePanelWnd
  00492	89 45 b0	 mov	 DWORD PTR tv141[ebp], eax
  00495	eb 07		 jmp	 SHORT $L192238
$L192237:
  00497	c7 45 b0 00 00
	00 00		 mov	 DWORD PTR tv141[ebp], 0
$L192238:
  0049e	8b 55 b0	 mov	 edx, DWORD PTR tv141[ebp]
  004a1	89 55 b8	 mov	 DWORD PTR $T192235[ebp], edx
  004a4	c7 45 fc ff ff
	ff ff		 mov	 DWORD PTR __$EHRec$[ebp+8], -1
  004ab	8b 45 b8	 mov	 eax, DWORD PTR $T192235[ebp]
  004ae	89 45 ec	 mov	 DWORD PTR _pWnd$[ebp], eax

; 127  : 		pWnd->Create(NULL,NULL,WS_CHILD|WS_VISIBLE|WS_CLIPCHILDREN|WS_CLIPSIBLINGS,rc,m_pWndParent, m_idWnd++);

  004b1	8b 4d f0	 mov	 ecx, DWORD PTR _this$[ebp]
  004b4	8b 51 14	 mov	 edx, DWORD PTR [ecx+20]
  004b7	89 55 ac	 mov	 DWORD PTR tv150[ebp], edx
  004ba	8b 45 f0	 mov	 eax, DWORD PTR _this$[ebp]
  004bd	8b 48 14	 mov	 ecx, DWORD PTR [eax+20]
  004c0	83 c1 01	 add	 ecx, 1
  004c3	8b 55 f0	 mov	 edx, DWORD PTR _this$[ebp]
  004c6	89 4a 14	 mov	 DWORD PTR [edx+20], ecx
  004c9	8b f4		 mov	 esi, esp
  004cb	6a 00		 push	 0
  004cd	8b 45 ac	 mov	 eax, DWORD PTR tv150[ebp]
  004d0	50		 push	 eax
  004d1	8b 4d f0	 mov	 ecx, DWORD PTR _this$[ebp]
  004d4	8b 51 10	 mov	 edx, DWORD PTR [ecx+16]
  004d7	52		 push	 edx
  004d8	8d 45 cc	 lea	 eax, DWORD PTR _rc$[ebp]
  004db	50		 push	 eax
  004dc	68 00 00 00 56	 push	 1442840576		; 56000000H
  004e1	6a 00		 push	 0
  004e3	6a 00		 push	 0
  004e5	8b 4d ec	 mov	 ecx, DWORD PTR _pWnd$[ebp]
  004e8	8b 11		 mov	 edx, DWORD PTR [ecx]
  004ea	8b 4d ec	 mov	 ecx, DWORD PTR _pWnd$[ebp]
  004ed	ff 52 5c	 call	 DWORD PTR [edx+92]
  004f0	3b f4		 cmp	 esi, esp
  004f2	e8 00 00 00 00	 call	 __RTC_CheckEsp
$L190945:

; 128  : 	}
; 129  : 	return pWnd;

  004f7	8b 45 ec	 mov	 eax, DWORD PTR _pWnd$[ebp]

; 130  : }

  004fa	52		 push	 edx
  004fb	8b cd		 mov	 ecx, ebp
  004fd	50		 push	 eax
  004fe	8d 15 00 00 00
	00		 lea	 edx, DWORD PTR $L192246
  00504	e8 00 00 00 00	 call	 @_RTC_CheckStackVars@8
  00509	58		 pop	 eax
  0050a	5a		 pop	 edx
  0050b	8b 4d f4	 mov	 ecx, DWORD PTR __$EHRec$[ebp]
  0050e	64 89 0d 00 00
	00 00		 mov	 DWORD PTR fs:__except_list, ecx
  00515	5f		 pop	 edi
  00516	5e		 pop	 esi
  00517	83 c4 54	 add	 esp, 84			; 00000054H
  0051a	3b ec		 cmp	 ebp, esp
  0051c	e8 00 00 00 00	 call	 __RTC_CheckEsp
  00521	8b e5		 mov	 esp, ebp
  00523	5d		 pop	 ebp
  00524	c3		 ret	 0
$L192246:
  00525	02 00 00 00	 DD	 2
  00529	00 00 00 00	 DD	 $L192245
$L192245:
  0052d	e4 ff ff ff	 DD	 -28			; ffffffe4H
  00531	04 00 00 00	 DD	 4
  00535	00 00 00 00	 DD	 $L192242
  00539	cc ff ff ff	 DD	 -52			; ffffffccH
  0053d	10 00 00 00	 DD	 16			; 00000010H
  00541	00 00 00 00	 DD	 $L192243
$L192243:
  00545	72		 DB	 114			; 00000072H
  00546	63		 DB	 99			; 00000063H
  00547	00		 DB	 0
$L192242:
  00548	69		 DB	 105			; 00000069H
  00549	74		 DB	 116			; 00000074H
  0054a	31		 DB	 49			; 00000031H
  0054b	00		 DB	 0
_TEXT	ENDS
text$x	SEGMENT
$L192239:
  00029	8b 45 b4	 mov	 eax, DWORD PTR $T192236[ebp]
  0002c	50		 push	 eax
  0002d	e8 00 00 00 00	 call	 ??3CObject@@SGXPAX@Z	; CObject::operator delete
  00032	c3		 ret	 0
__ehhandler$?CreateWndGamePanel@TabWndFactory@@QAEPAVGamePanelWnd@@XZ:
  00033	b8 00 00 00 00	 mov	 eax, OFFSET FLAT:$T192241
  00038	e9 00 00 00 00	 jmp	 ___CxxFrameHandler
text$x	ENDS
?CreateWndGamePanel@TabWndFactory@@QAEPAVGamePanelWnd@@XZ ENDP ; TabWndFactory::CreateWndGamePanel
PUBLIC	??_R0?AVWebGamePanelWnd@@@8			; WebGamePanelWnd `RTTI Type Descriptor'
PUBLIC	?CreateWndWebGamePanel@TabWndFactory@@QAEPAVWebGamePanelWnd@@XZ ; TabWndFactory::CreateWndWebGamePanel
EXTRN	??0WebGamePanelWnd@@QAE@XZ:NEAR			; WebGamePanelWnd::WebGamePanelWnd
xdata$x	SEGMENT
$T192264 DD	0ffffffffH
	DD	FLAT:$L192256
$T192258 DD	019930520H
	DD	01H
	DD	FLAT:$T192264
	DD	2 DUP(00H)
	DD	2 DUP(00H)
xdata$x	ENDS
;	COMDAT ??_R0?AVWebGamePanelWnd@@@8
_DATA	SEGMENT
??_R0?AVWebGamePanelWnd@@@8 DD FLAT:??_7type_info@@6B@	; WebGamePanelWnd `RTTI Type Descriptor'
	DD	00H
	DB	'.?AVWebGamePanelWnd@@', 00H
; Function compile flags: /Odt /RTCsu
_DATA	ENDS
_TEXT	SEGMENT
tv150 = -84						; size = 4
tv141 = -80						; size = 4
$T192253 = -76						; size = 4
$T192252 = -72						; size = 4
$T192251 = -68						; size = 4
$T192250 = -64						; size = 4
$T192249 = -60						; size = 4
_rc$ = -52						; size = 16
_it1$190955 = -28					; size = 4
_pWnd$ = -20						; size = 4
_this$ = -16						; size = 4
__$EHRec$ = -12						; size = 12
?CreateWndWebGamePanel@TabWndFactory@@QAEPAVWebGamePanelWnd@@XZ PROC NEAR ; TabWndFactory::CreateWndWebGamePanel
; _this$ = ecx

; 133  : {

  00550	55		 push	 ebp
  00551	8b ec		 mov	 ebp, esp
  00553	6a ff		 push	 -1
  00555	68 00 00 00 00	 push	 __ehhandler$?CreateWndWebGamePanel@TabWndFactory@@QAEPAVWebGamePanelWnd@@XZ
  0055a	64 a1 00 00 00
	00		 mov	 eax, DWORD PTR fs:__except_list
  00560	50		 push	 eax
  00561	64 89 25 00 00
	00 00		 mov	 DWORD PTR fs:__except_list, esp
  00568	83 ec 48	 sub	 esp, 72			; 00000048H
  0056b	56		 push	 esi
  0056c	57		 push	 edi
  0056d	51		 push	 ecx
  0056e	8d 7d ac	 lea	 edi, DWORD PTR [ebp-84]
  00571	b9 12 00 00 00	 mov	 ecx, 18			; 00000012H
  00576	b8 cc cc cc cc	 mov	 eax, -858993460		; ccccccccH
  0057b	f3 ab		 rep stosd
  0057d	59		 pop	 ecx
  0057e	89 4d f0	 mov	 DWORD PTR _this$[ebp], ecx

; 134  : 	WebGamePanelWnd* pWnd = NULL;

  00581	c7 45 ec 00 00
	00 00		 mov	 DWORD PTR _pWnd$[ebp], 0

; 135  : 	for( vector<CWnd*>::iterator it1 = m_vecWnd.begin();

  00588	8d 45 e4	 lea	 eax, DWORD PTR _it1$190955[ebp]
  0058b	50		 push	 eax
  0058c	8b 4d f0	 mov	 ecx, DWORD PTR _this$[ebp]
  0058f	e8 00 00 00 00	 call	 ?begin@?$vector@PAVCWnd@@V?$allocator@PAVCWnd@@@std@@@std@@QAE?AViterator@12@XZ ; std::vector<CWnd *,std::allocator<CWnd *> >::begin

; 136  : 		it1 != m_vecWnd.end(); it1++ )

  00594	eb 0e		 jmp	 SHORT $L190959
$L190960:
  00596	6a 00		 push	 0
  00598	8d 4d c4	 lea	 ecx, DWORD PTR $T192249[ebp]
  0059b	51		 push	 ecx
  0059c	8d 4d e4	 lea	 ecx, DWORD PTR _it1$190955[ebp]
  0059f	e8 00 00 00 00	 call	 ??Eiterator@?$vector@PAVCWnd@@V?$allocator@PAVCWnd@@@std@@@std@@QAE?AV012@H@Z ; std::vector<CWnd *,std::allocator<CWnd *> >::iterator::operator++
$L190959:
  005a4	8d 55 c0	 lea	 edx, DWORD PTR $T192250[ebp]
  005a7	52		 push	 edx
  005a8	8b 4d f0	 mov	 ecx, DWORD PTR _this$[ebp]
  005ab	e8 00 00 00 00	 call	 ?end@?$vector@PAVCWnd@@V?$allocator@PAVCWnd@@@std@@@std@@QAE?AViterator@12@XZ ; std::vector<CWnd *,std::allocator<CWnd *> >::end
  005b0	50		 push	 eax
  005b1	8d 4d e4	 lea	 ecx, DWORD PTR _it1$190955[ebp]
  005b4	e8 00 00 00 00	 call	 ??9const_iterator@?$vector@PAVCWnd@@V?$allocator@PAVCWnd@@@std@@@std@@QBE_NABV012@@Z ; std::vector<CWnd *,std::allocator<CWnd *> >::const_iterator::operator!=
  005b9	0f b6 c0	 movzx	 eax, al
  005bc	85 c0		 test	 eax, eax
  005be	74 46		 je	 SHORT $L190961

; 137  : 	{
; 138  : 		if( dynamic_cast<WebGamePanelWnd*>(*it1) )

  005c0	6a 00		 push	 0
  005c2	68 00 00 00 00	 push	 OFFSET FLAT:??_R0?AVWebGamePanelWnd@@@8
  005c7	68 00 00 00 00	 push	 OFFSET FLAT:??_R0?AVCWnd@@@8
  005cc	6a 00		 push	 0
  005ce	8d 4d e4	 lea	 ecx, DWORD PTR _it1$190955[ebp]
  005d1	e8 00 00 00 00	 call	 ??Diterator@?$vector@PAVCWnd@@V?$allocator@PAVCWnd@@@std@@@std@@QBEAAPAVCWnd@@XZ ; std::vector<CWnd *,std::allocator<CWnd *> >::iterator::operator*
  005d6	8b 08		 mov	 ecx, DWORD PTR [eax]
  005d8	51		 push	 ecx
  005d9	e8 00 00 00 00	 call	 ___RTDynamicCast
  005de	83 c4 14	 add	 esp, 20			; 00000014H
  005e1	85 c0		 test	 eax, eax
  005e3	74 1f		 je	 SHORT $L190964

; 139  : 		{
; 140  : 			pWnd = (WebGamePanelWnd*)(*it1);

  005e5	8d 4d e4	 lea	 ecx, DWORD PTR _it1$190955[ebp]
  005e8	e8 00 00 00 00	 call	 ??Diterator@?$vector@PAVCWnd@@V?$allocator@PAVCWnd@@@std@@@std@@QBEAAPAVCWnd@@XZ ; std::vector<CWnd *,std::allocator<CWnd *> >::iterator::operator*
  005ed	8b 10		 mov	 edx, DWORD PTR [eax]
  005ef	89 55 ec	 mov	 DWORD PTR _pWnd$[ebp], edx

; 141  : 			m_vecWnd.erase( it1 );

  005f2	8b 45 e4	 mov	 eax, DWORD PTR _it1$190955[ebp]
  005f5	50		 push	 eax
  005f6	8d 4d bc	 lea	 ecx, DWORD PTR $T192251[ebp]
  005f9	51		 push	 ecx
  005fa	8b 4d f0	 mov	 ecx, DWORD PTR _this$[ebp]
  005fd	e8 00 00 00 00	 call	 ?erase@?$vector@PAVCWnd@@V?$allocator@PAVCWnd@@@std@@@std@@QAE?AViterator@12@V312@@Z ; std::vector<CWnd *,std::allocator<CWnd *> >::erase

; 142  : 			break;

  00602	eb 02		 jmp	 SHORT $L190961
$L190964:

; 143  : 		}
; 144  : 	}

  00604	eb 90		 jmp	 SHORT $L190960
$L190961:

; 145  : 
; 146  : 	CRect rc;

  00606	8d 4d cc	 lea	 ecx, DWORD PTR _rc$[ebp]
  00609	e8 00 00 00 00	 call	 ??0CRect@@QAE@XZ	; CRect::CRect

; 147  : 	m_pWndParent->GetClientRect( &rc );

  0060e	8d 55 cc	 lea	 edx, DWORD PTR _rc$[ebp]
  00611	52		 push	 edx
  00612	8b 45 f0	 mov	 eax, DWORD PTR _this$[ebp]
  00615	8b 48 10	 mov	 ecx, DWORD PTR [eax+16]
  00618	e8 00 00 00 00	 call	 ?GetClientRect@CWnd@@QBEXPAUtagRECT@@@Z ; CWnd::GetClientRect

; 148  : 	if( pWnd )

  0061d	83 7d ec 00	 cmp	 DWORD PTR _pWnd$[ebp], 0
  00621	74 1d		 je	 SHORT $L190968

; 149  : 	{
; 150  : 		pWnd->MoveWindow( &rc );

  00623	6a 01		 push	 1
  00625	8d 4d cc	 lea	 ecx, DWORD PTR _rc$[ebp]
  00628	51		 push	 ecx
  00629	8b 4d ec	 mov	 ecx, DWORD PTR _pWnd$[ebp]
  0062c	e8 00 00 00 00	 call	 ?MoveWindow@CWnd@@QAEXPBUtagRECT@@H@Z ; CWnd::MoveWindow

; 151  : 		pWnd->ShowWindow( SW_SHOW ); 

  00631	6a 05		 push	 5
  00633	8b 4d ec	 mov	 ecx, DWORD PTR _pWnd$[ebp]
  00636	e8 00 00 00 00	 call	 ?ShowWindow@CWnd@@QAEHH@Z ; CWnd::ShowWindow

; 152  : 	}else

  0063b	e9 87 00 00 00	 jmp	 $L190969
$L190968:

; 153  : 	{
; 154  : 		pWnd = new WebGamePanelWnd();

  00640	68 dc 00 00 00	 push	 220			; 000000dcH
  00645	e8 00 00 00 00	 call	 ??2CObject@@SGPAXI@Z	; CObject::operator new
  0064a	89 45 b4	 mov	 DWORD PTR $T192253[ebp], eax
  0064d	c7 45 fc 00 00
	00 00		 mov	 DWORD PTR __$EHRec$[ebp+8], 0
  00654	83 7d b4 00	 cmp	 DWORD PTR $T192253[ebp], 0
  00658	74 0d		 je	 SHORT $L192254
  0065a	8b 4d b4	 mov	 ecx, DWORD PTR $T192253[ebp]
  0065d	e8 00 00 00 00	 call	 ??0WebGamePanelWnd@@QAE@XZ ; WebGamePanelWnd::WebGamePanelWnd
  00662	89 45 b0	 mov	 DWORD PTR tv141[ebp], eax
  00665	eb 07		 jmp	 SHORT $L192255
$L192254:
  00667	c7 45 b0 00 00
	00 00		 mov	 DWORD PTR tv141[ebp], 0
$L192255:
  0066e	8b 55 b0	 mov	 edx, DWORD PTR tv141[ebp]
  00671	89 55 b8	 mov	 DWORD PTR $T192252[ebp], edx
  00674	c7 45 fc ff ff
	ff ff		 mov	 DWORD PTR __$EHRec$[ebp+8], -1
  0067b	8b 45 b8	 mov	 eax, DWORD PTR $T192252[ebp]
  0067e	89 45 ec	 mov	 DWORD PTR _pWnd$[ebp], eax

; 155  : 		pWnd->Create(NULL,NULL,WS_CHILD|WS_VISIBLE|WS_CLIPCHILDREN|WS_CLIPSIBLINGS,rc,m_pWndParent, m_idWnd++);

  00681	8b 4d f0	 mov	 ecx, DWORD PTR _this$[ebp]
  00684	8b 51 14	 mov	 edx, DWORD PTR [ecx+20]
  00687	89 55 ac	 mov	 DWORD PTR tv150[ebp], edx
  0068a	8b 45 f0	 mov	 eax, DWORD PTR _this$[ebp]
  0068d	8b 48 14	 mov	 ecx, DWORD PTR [eax+20]
  00690	83 c1 01	 add	 ecx, 1
  00693	8b 55 f0	 mov	 edx, DWORD PTR _this$[ebp]
  00696	89 4a 14	 mov	 DWORD PTR [edx+20], ecx
  00699	8b f4		 mov	 esi, esp
  0069b	6a 00		 push	 0
  0069d	8b 45 ac	 mov	 eax, DWORD PTR tv150[ebp]
  006a0	50		 push	 eax
  006a1	8b 4d f0	 mov	 ecx, DWORD PTR _this$[ebp]
  006a4	8b 51 10	 mov	 edx, DWORD PTR [ecx+16]
  006a7	52		 push	 edx
  006a8	8d 45 cc	 lea	 eax, DWORD PTR _rc$[ebp]
  006ab	50		 push	 eax
  006ac	68 00 00 00 56	 push	 1442840576		; 56000000H
  006b1	6a 00		 push	 0
  006b3	6a 00		 push	 0
  006b5	8b 4d ec	 mov	 ecx, DWORD PTR _pWnd$[ebp]
  006b8	8b 11		 mov	 edx, DWORD PTR [ecx]
  006ba	8b 4d ec	 mov	 ecx, DWORD PTR _pWnd$[ebp]
  006bd	ff 52 5c	 call	 DWORD PTR [edx+92]
  006c0	3b f4		 cmp	 esi, esp
  006c2	e8 00 00 00 00	 call	 __RTC_CheckEsp
$L190969:

; 156  : 	}
; 157  : 	return pWnd;

  006c7	8b 45 ec	 mov	 eax, DWORD PTR _pWnd$[ebp]

; 158  : }

  006ca	52		 push	 edx
  006cb	8b cd		 mov	 ecx, ebp
  006cd	50		 push	 eax
  006ce	8d 15 00 00 00
	00		 lea	 edx, DWORD PTR $L192263
  006d4	e8 00 00 00 00	 call	 @_RTC_CheckStackVars@8
  006d9	58		 pop	 eax
  006da	5a		 pop	 edx
  006db	8b 4d f4	 mov	 ecx, DWORD PTR __$EHRec$[ebp]
  006de	64 89 0d 00 00
	00 00		 mov	 DWORD PTR fs:__except_list, ecx
  006e5	5f		 pop	 edi
  006e6	5e		 pop	 esi
  006e7	83 c4 54	 add	 esp, 84			; 00000054H
  006ea	3b ec		 cmp	 ebp, esp
  006ec	e8 00 00 00 00	 call	 __RTC_CheckEsp
  006f1	8b e5		 mov	 esp, ebp
  006f3	5d		 pop	 ebp
  006f4	c3		 ret	 0
$L192263:
  006f5	02 00 00 00	 DD	 2
  006f9	00 00 00 00	 DD	 $L192262
$L192262:
  006fd	e4 ff ff ff	 DD	 -28			; ffffffe4H
  00701	04 00 00 00	 DD	 4
  00705	00 00 00 00	 DD	 $L192259
  00709	cc ff ff ff	 DD	 -52			; ffffffccH
  0070d	10 00 00 00	 DD	 16			; 00000010H
  00711	00 00 00 00	 DD	 $L192260
$L192260:
  00715	72		 DB	 114			; 00000072H
  00716	63		 DB	 99			; 00000063H
  00717	00		 DB	 0
$L192259:
  00718	69		 DB	 105			; 00000069H
  00719	74		 DB	 116			; 00000074H
  0071a	31		 DB	 49			; 00000031H
  0071b	00		 DB	 0
_TEXT	ENDS
text$x	SEGMENT
$L192256:
  0003d	8b 45 b4	 mov	 eax, DWORD PTR $T192253[ebp]
  00040	50		 push	 eax
  00041	e8 00 00 00 00	 call	 ??3CObject@@SGXPAX@Z	; CObject::operator delete
  00046	c3		 ret	 0
__ehhandler$?CreateWndWebGamePanel@TabWndFactory@@QAEPAVWebGamePanelWnd@@XZ:
  00047	b8 00 00 00 00	 mov	 eax, OFFSET FLAT:$T192258
  0004c	e9 00 00 00 00	 jmp	 ___CxxFrameHandler
text$x	ENDS
?CreateWndWebGamePanel@TabWndFactory@@QAEPAVWebGamePanelWnd@@XZ ENDP ; TabWndFactory::CreateWndWebGamePanel
PUBLIC	??_R0?AVMyWebBrowserWnd@@@8			; MyWebBrowserWnd `RTTI Type Descriptor'
PUBLIC	?CreateWndMyWebBrowser@TabWndFactory@@QAEPAVMyWebBrowserWnd@@XZ ; TabWndFactory::CreateWndMyWebBrowser
EXTRN	??0CRect@@QAE@HHHH@Z:NEAR			; CRect::CRect
EXTRN	??0MyWebBrowserWnd@@QAE@H@Z:NEAR		; MyWebBrowserWnd::MyWebBrowserWnd
xdata$x	SEGMENT
$T192282 DD	0ffffffffH
	DD	FLAT:$L192273
$T192275 DD	019930520H
	DD	01H
	DD	FLAT:$T192282
	DD	2 DUP(00H)
	DD	2 DUP(00H)
xdata$x	ENDS
;	COMDAT ??_R0?AVMyWebBrowserWnd@@@8
_DATA	SEGMENT
??_R0?AVMyWebBrowserWnd@@@8 DD FLAT:??_7type_info@@6B@	; MyWebBrowserWnd `RTTI Type Descriptor'
	DD	00H
	DB	'.?AVMyWebBrowserWnd@@', 00H
; Function compile flags: /Odt /RTCsu
_DATA	ENDS
_TEXT	SEGMENT
tv151 = -108						; size = 4
tv137 = -104						; size = 4
$T192270 = -100						; size = 4
$T192269 = -96						; size = 4
$T192268 = -92						; size = 4
$T192267 = -88						; size = 4
$T192266 = -84						; size = 4
_rcNull$190997 = -76					; size = 16
_rc$ = -52						; size = 16
_it1$190979 = -28					; size = 4
_pWnd$ = -20						; size = 4
_this$ = -16						; size = 4
__$EHRec$ = -12						; size = 12
?CreateWndMyWebBrowser@TabWndFactory@@QAEPAVMyWebBrowserWnd@@XZ PROC NEAR ; TabWndFactory::CreateWndMyWebBrowser
; _this$ = ecx

; 161  : {

  00720	55		 push	 ebp
  00721	8b ec		 mov	 ebp, esp
  00723	6a ff		 push	 -1
  00725	68 00 00 00 00	 push	 __ehhandler$?CreateWndMyWebBrowser@TabWndFactory@@QAEPAVMyWebBrowserWnd@@XZ
  0072a	64 a1 00 00 00
	00		 mov	 eax, DWORD PTR fs:__except_list
  00730	50		 push	 eax
  00731	64 89 25 00 00
	00 00		 mov	 DWORD PTR fs:__except_list, esp
  00738	83 ec 60	 sub	 esp, 96			; 00000060H
  0073b	56		 push	 esi
  0073c	57		 push	 edi
  0073d	51		 push	 ecx
  0073e	8d 7d 94	 lea	 edi, DWORD PTR [ebp-108]
  00741	b9 18 00 00 00	 mov	 ecx, 24			; 00000018H
  00746	b8 cc cc cc cc	 mov	 eax, -858993460		; ccccccccH
  0074b	f3 ab		 rep stosd
  0074d	59		 pop	 ecx
  0074e	89 4d f0	 mov	 DWORD PTR _this$[ebp], ecx

; 162  : 	MyWebBrowserWnd* pWnd = NULL;

  00751	c7 45 ec 00 00
	00 00		 mov	 DWORD PTR _pWnd$[ebp], 0

; 163  : 	for( vector<CWnd*>::iterator it1 = m_vecWnd.begin();

  00758	8d 45 e4	 lea	 eax, DWORD PTR _it1$190979[ebp]
  0075b	50		 push	 eax
  0075c	8b 4d f0	 mov	 ecx, DWORD PTR _this$[ebp]
  0075f	e8 00 00 00 00	 call	 ?begin@?$vector@PAVCWnd@@V?$allocator@PAVCWnd@@@std@@@std@@QAE?AViterator@12@XZ ; std::vector<CWnd *,std::allocator<CWnd *> >::begin

; 164  : 		it1 != m_vecWnd.end(); it1++ )

  00764	eb 0e		 jmp	 SHORT $L190983
$L190984:
  00766	6a 00		 push	 0
  00768	8d 4d ac	 lea	 ecx, DWORD PTR $T192266[ebp]
  0076b	51		 push	 ecx
  0076c	8d 4d e4	 lea	 ecx, DWORD PTR _it1$190979[ebp]
  0076f	e8 00 00 00 00	 call	 ??Eiterator@?$vector@PAVCWnd@@V?$allocator@PAVCWnd@@@std@@@std@@QAE?AV012@H@Z ; std::vector<CWnd *,std::allocator<CWnd *> >::iterator::operator++
$L190983:
  00774	8d 55 a8	 lea	 edx, DWORD PTR $T192267[ebp]
  00777	52		 push	 edx
  00778	8b 4d f0	 mov	 ecx, DWORD PTR _this$[ebp]
  0077b	e8 00 00 00 00	 call	 ?end@?$vector@PAVCWnd@@V?$allocator@PAVCWnd@@@std@@@std@@QAE?AViterator@12@XZ ; std::vector<CWnd *,std::allocator<CWnd *> >::end
  00780	50		 push	 eax
  00781	8d 4d e4	 lea	 ecx, DWORD PTR _it1$190979[ebp]
  00784	e8 00 00 00 00	 call	 ??9const_iterator@?$vector@PAVCWnd@@V?$allocator@PAVCWnd@@@std@@@std@@QBE_NABV012@@Z ; std::vector<CWnd *,std::allocator<CWnd *> >::const_iterator::operator!=
  00789	0f b6 c0	 movzx	 eax, al
  0078c	85 c0		 test	 eax, eax
  0078e	74 46		 je	 SHORT $L190985

; 165  : 	{
; 166  : 		if( dynamic_cast<MyWebBrowserWnd*>(*it1) )

  00790	6a 00		 push	 0
  00792	68 00 00 00 00	 push	 OFFSET FLAT:??_R0?AVMyWebBrowserWnd@@@8
  00797	68 00 00 00 00	 push	 OFFSET FLAT:??_R0?AVCWnd@@@8
  0079c	6a 00		 push	 0
  0079e	8d 4d e4	 lea	 ecx, DWORD PTR _it1$190979[ebp]
  007a1	e8 00 00 00 00	 call	 ??Diterator@?$vector@PAVCWnd@@V?$allocator@PAVCWnd@@@std@@@std@@QBEAAPAVCWnd@@XZ ; std::vector<CWnd *,std::allocator<CWnd *> >::iterator::operator*
  007a6	8b 08		 mov	 ecx, DWORD PTR [eax]
  007a8	51		 push	 ecx
  007a9	e8 00 00 00 00	 call	 ___RTDynamicCast
  007ae	83 c4 14	 add	 esp, 20			; 00000014H
  007b1	85 c0		 test	 eax, eax
  007b3	74 1f		 je	 SHORT $L190988

; 167  : 		{
; 168  : 			pWnd = (MyWebBrowserWnd*)(*it1);

  007b5	8d 4d e4	 lea	 ecx, DWORD PTR _it1$190979[ebp]
  007b8	e8 00 00 00 00	 call	 ??Diterator@?$vector@PAVCWnd@@V?$allocator@PAVCWnd@@@std@@@std@@QBEAAPAVCWnd@@XZ ; std::vector<CWnd *,std::allocator<CWnd *> >::iterator::operator*
  007bd	8b 10		 mov	 edx, DWORD PTR [eax]
  007bf	89 55 ec	 mov	 DWORD PTR _pWnd$[ebp], edx

; 169  : 			m_vecWnd.erase( it1 );

  007c2	8b 45 e4	 mov	 eax, DWORD PTR _it1$190979[ebp]
  007c5	50		 push	 eax
  007c6	8d 4d a4	 lea	 ecx, DWORD PTR $T192268[ebp]
  007c9	51		 push	 ecx
  007ca	8b 4d f0	 mov	 ecx, DWORD PTR _this$[ebp]
  007cd	e8 00 00 00 00	 call	 ?erase@?$vector@PAVCWnd@@V?$allocator@PAVCWnd@@@std@@@std@@QAE?AViterator@12@V312@@Z ; std::vector<CWnd *,std::allocator<CWnd *> >::erase

; 170  : 			break;

  007d2	eb 02		 jmp	 SHORT $L190985
$L190988:

; 171  : 		}
; 172  : 	}

  007d4	eb 90		 jmp	 SHORT $L190984
$L190985:

; 173  : 
; 174  : 	CRect rc;

  007d6	8d 4d cc	 lea	 ecx, DWORD PTR _rc$[ebp]
  007d9	e8 00 00 00 00	 call	 ??0CRect@@QAE@XZ	; CRect::CRect

; 175  : 	m_pWndParent->GetClientRect( &rc );

  007de	8d 55 cc	 lea	 edx, DWORD PTR _rc$[ebp]
  007e1	52		 push	 edx
  007e2	8b 45 f0	 mov	 eax, DWORD PTR _this$[ebp]
  007e5	8b 48 10	 mov	 ecx, DWORD PTR [eax+16]
  007e8	e8 00 00 00 00	 call	 ?GetClientRect@CWnd@@QBEXPAUtagRECT@@@Z ; CWnd::GetClientRect

; 176  : 	if( pWnd == NULL )

  007ed	83 7d ec 00	 cmp	 DWORD PTR _pWnd$[ebp], 0
  007f1	0f 85 99 00 00
	00		 jne	 $L190992

; 177  : 	{
; 178  : 		pWnd = new MyWebBrowserWnd();

  007f7	68 e8 01 00 00	 push	 488			; 000001e8H
  007fc	e8 00 00 00 00	 call	 ??2CObject@@SGPAXI@Z	; CObject::operator new
  00801	89 45 9c	 mov	 DWORD PTR $T192270[ebp], eax
  00804	c7 45 fc 00 00
	00 00		 mov	 DWORD PTR __$EHRec$[ebp+8], 0
  0080b	83 7d 9c 00	 cmp	 DWORD PTR $T192270[ebp], 0
  0080f	74 0f		 je	 SHORT $L192271
  00811	6a 01		 push	 1
  00813	8b 4d 9c	 mov	 ecx, DWORD PTR $T192270[ebp]
  00816	e8 00 00 00 00	 call	 ??0MyWebBrowserWnd@@QAE@H@Z ; MyWebBrowserWnd::MyWebBrowserWnd
  0081b	89 45 98	 mov	 DWORD PTR tv137[ebp], eax
  0081e	eb 07		 jmp	 SHORT $L192272
$L192271:
  00820	c7 45 98 00 00
	00 00		 mov	 DWORD PTR tv137[ebp], 0
$L192272:
  00827	8b 4d 98	 mov	 ecx, DWORD PTR tv137[ebp]
  0082a	89 4d a0	 mov	 DWORD PTR $T192269[ebp], ecx
  0082d	c7 45 fc ff ff
	ff ff		 mov	 DWORD PTR __$EHRec$[ebp+8], -1
  00834	8b 55 a0	 mov	 edx, DWORD PTR $T192269[ebp]
  00837	89 55 ec	 mov	 DWORD PTR _pWnd$[ebp], edx

; 179  : 		CRect rcNull(0,0,0,0);

  0083a	6a 00		 push	 0
  0083c	6a 00		 push	 0
  0083e	6a 00		 push	 0
  00840	6a 00		 push	 0
  00842	8d 4d b4	 lea	 ecx, DWORD PTR _rcNull$190997[ebp]
  00845	e8 00 00 00 00	 call	 ??0CRect@@QAE@HHHH@Z	; CRect::CRect

; 180  : 		pWnd->Create(NULL,NULL,WS_CHILD|WS_VISIBLE|WS_CLIPCHILDREN|WS_CLIPSIBLINGS,rcNull,m_pWndParent, m_idWnd++);

  0084a	8b 45 f0	 mov	 eax, DWORD PTR _this$[ebp]
  0084d	8b 48 14	 mov	 ecx, DWORD PTR [eax+20]
  00850	89 4d 94	 mov	 DWORD PTR tv151[ebp], ecx
  00853	8b 55 f0	 mov	 edx, DWORD PTR _this$[ebp]
  00856	8b 42 14	 mov	 eax, DWORD PTR [edx+20]
  00859	83 c0 01	 add	 eax, 1
  0085c	8b 4d f0	 mov	 ecx, DWORD PTR _this$[ebp]
  0085f	89 41 14	 mov	 DWORD PTR [ecx+20], eax
  00862	8b f4		 mov	 esi, esp
  00864	6a 00		 push	 0
  00866	8b 55 94	 mov	 edx, DWORD PTR tv151[ebp]
  00869	52		 push	 edx
  0086a	8b 45 f0	 mov	 eax, DWORD PTR _this$[ebp]
  0086d	8b 48 10	 mov	 ecx, DWORD PTR [eax+16]
  00870	51		 push	 ecx
  00871	8d 55 b4	 lea	 edx, DWORD PTR _rcNull$190997[ebp]
  00874	52		 push	 edx
  00875	68 00 00 00 56	 push	 1442840576		; 56000000H
  0087a	6a 00		 push	 0
  0087c	6a 00		 push	 0
  0087e	8b 45 ec	 mov	 eax, DWORD PTR _pWnd$[ebp]
  00881	8b 10		 mov	 edx, DWORD PTR [eax]
  00883	8b 4d ec	 mov	 ecx, DWORD PTR _pWnd$[ebp]
  00886	ff 52 5c	 call	 DWORD PTR [edx+92]
  00889	3b f4		 cmp	 esi, esp
  0088b	e8 00 00 00 00	 call	 __RTC_CheckEsp
$L190992:

; 181  : 	}
; 182  : 	pWnd->MoveWindow( &rc );

  00890	6a 01		 push	 1
  00892	8d 45 cc	 lea	 eax, DWORD PTR _rc$[ebp]
  00895	50		 push	 eax
  00896	8b 4d ec	 mov	 ecx, DWORD PTR _pWnd$[ebp]
  00899	e8 00 00 00 00	 call	 ?MoveWindow@CWnd@@QAEXPBUtagRECT@@H@Z ; CWnd::MoveWindow

; 183  : 	return pWnd;

  0089e	8b 45 ec	 mov	 eax, DWORD PTR _pWnd$[ebp]

; 184  : }

  008a1	52		 push	 edx
  008a2	8b cd		 mov	 ecx, ebp
  008a4	50		 push	 eax
  008a5	8d 15 00 00 00
	00		 lea	 edx, DWORD PTR $L192281
  008ab	e8 00 00 00 00	 call	 @_RTC_CheckStackVars@8
  008b0	58		 pop	 eax
  008b1	5a		 pop	 edx
  008b2	8b 4d f4	 mov	 ecx, DWORD PTR __$EHRec$[ebp]
  008b5	64 89 0d 00 00
	00 00		 mov	 DWORD PTR fs:__except_list, ecx
  008bc	5f		 pop	 edi
  008bd	5e		 pop	 esi
  008be	83 c4 6c	 add	 esp, 108		; 0000006cH
  008c1	3b ec		 cmp	 ebp, esp
  008c3	e8 00 00 00 00	 call	 __RTC_CheckEsp
  008c8	8b e5		 mov	 esp, ebp
  008ca	5d		 pop	 ebp
  008cb	c3		 ret	 0
$L192281:
  008cc	03 00 00 00	 DD	 3
  008d0	00 00 00 00	 DD	 $L192280
$L192280:
  008d4	e4 ff ff ff	 DD	 -28			; ffffffe4H
  008d8	04 00 00 00	 DD	 4
  008dc	00 00 00 00	 DD	 $L192276
  008e0	cc ff ff ff	 DD	 -52			; ffffffccH
  008e4	10 00 00 00	 DD	 16			; 00000010H
  008e8	00 00 00 00	 DD	 $L192277
  008ec	b4 ff ff ff	 DD	 -76			; ffffffb4H
  008f0	10 00 00 00	 DD	 16			; 00000010H
  008f4	00 00 00 00	 DD	 $L192278
$L192278:
  008f8	72		 DB	 114			; 00000072H
  008f9	63		 DB	 99			; 00000063H
  008fa	4e		 DB	 78			; 0000004eH
  008fb	75		 DB	 117			; 00000075H
  008fc	6c		 DB	 108			; 0000006cH
  008fd	6c		 DB	 108			; 0000006cH
  008fe	00		 DB	 0
$L192277:
  008ff	72		 DB	 114			; 00000072H
  00900	63		 DB	 99			; 00000063H
  00901	00		 DB	 0
$L192276:
  00902	69		 DB	 105			; 00000069H
  00903	74		 DB	 116			; 00000074H
  00904	31		 DB	 49			; 00000031H
  00905	00		 DB	 0
_TEXT	ENDS
text$x	SEGMENT
$L192273:
  00051	8b 45 9c	 mov	 eax, DWORD PTR $T192270[ebp]
  00054	50		 push	 eax
  00055	e8 00 00 00 00	 call	 ??3CObject@@SGXPAX@Z	; CObject::operator delete
  0005a	c3		 ret	 0
__ehhandler$?CreateWndMyWebBrowser@TabWndFactory@@QAEPAVMyWebBrowserWnd@@XZ:
  0005b	b8 00 00 00 00	 mov	 eax, OFFSET FLAT:$T192275
  00060	e9 00 00 00 00	 jmp	 ___CxxFrameHandler
text$x	ENDS
?CreateWndMyWebBrowser@TabWndFactory@@QAEPAVMyWebBrowserWnd@@XZ ENDP ; TabWndFactory::CreateWndMyWebBrowser
PUBLIC	?Recycle@TabWndFactory@@QAEXPAVCWnd@@@Z		; TabWndFactory::Recycle
; Function compile flags: /Odt /RTCsu
_TEXT	SEGMENT
tv156 = -56						; size = 4
tv129 = -52						; size = 4
tv80 = -48						; size = 4
$T192293 = -44						; size = 4
$T192292 = -40						; size = 4
$T192289 = -36						; size = 4
$T192288 = -32						; size = 4
$T192285 = -28						; size = 4
$T192284 = -24						; size = 4
_pWnd1$191023 = -20					; size = 4
_pWnd1$191018 = -16					; size = 4
_pWnd1$191011 = -12					; size = 4
_pWnd1$191004 = -8					; size = 4
_this$ = -4						; size = 4
_pWnd$ = 8						; size = 4
?Recycle@TabWndFactory@@QAEXPAVCWnd@@@Z PROC NEAR	; TabWndFactory::Recycle
; _this$ = ecx

; 187  : {

  00910	55		 push	 ebp
  00911	8b ec		 mov	 ebp, esp
  00913	83 ec 38	 sub	 esp, 56			; 00000038H
  00916	56		 push	 esi
  00917	57		 push	 edi
  00918	51		 push	 ecx
  00919	8d 7d c8	 lea	 edi, DWORD PTR [ebp-56]
  0091c	b9 0e 00 00 00	 mov	 ecx, 14			; 0000000eH
  00921	b8 cc cc cc cc	 mov	 eax, -858993460		; ccccccccH
  00926	f3 ab		 rep stosd
  00928	59		 pop	 ecx
  00929	89 4d fc	 mov	 DWORD PTR _this$[ebp], ecx

; 188  : 	//m_vecWnd
; 189  : 	if( dynamic_cast<GamePanelWnd*>(pWnd) )

  0092c	6a 00		 push	 0
  0092e	68 00 00 00 00	 push	 OFFSET FLAT:??_R0?AVGamePanelWnd@@@8
  00933	68 00 00 00 00	 push	 OFFSET FLAT:??_R0?AVCWnd@@@8
  00938	6a 00		 push	 0
  0093a	8b 45 08	 mov	 eax, DWORD PTR _pWnd$[ebp]
  0093d	50		 push	 eax
  0093e	e8 00 00 00 00	 call	 ___RTDynamicCast
  00943	83 c4 14	 add	 esp, 20			; 00000014H
  00946	85 c0		 test	 eax, eax
  00948	74 53		 je	 SHORT $L191003

; 190  : 	{
; 191  : 		GamePanelWnd* pWnd1 = (GamePanelWnd*)pWnd;

  0094a	8b 4d 08	 mov	 ecx, DWORD PTR _pWnd$[ebp]
  0094d	89 4d f8	 mov	 DWORD PTR _pWnd1$191004[ebp], ecx

; 192  : 		//pWnd1->Recycle();
; 193  : 		pWnd1->DestroyWindow();

  00950	8b 55 f8	 mov	 edx, DWORD PTR _pWnd1$191004[ebp]
  00953	8b 02		 mov	 eax, DWORD PTR [edx]
  00955	8b f4		 mov	 esi, esp
  00957	8b 4d f8	 mov	 ecx, DWORD PTR _pWnd1$191004[ebp]
  0095a	ff 50 68	 call	 DWORD PTR [eax+104]
  0095d	3b f4		 cmp	 esi, esp
  0095f	e8 00 00 00 00	 call	 __RTC_CheckEsp

; 194  : 		delete pWnd1;

  00964	8b 4d f8	 mov	 ecx, DWORD PTR _pWnd1$191004[ebp]
  00967	89 4d e4	 mov	 DWORD PTR $T192285[ebp], ecx
  0096a	8b 55 e4	 mov	 edx, DWORD PTR $T192285[ebp]
  0096d	89 55 e8	 mov	 DWORD PTR $T192284[ebp], edx
  00970	83 7d e8 00	 cmp	 DWORD PTR $T192284[ebp], 0
  00974	74 1b		 je	 SHORT $L192286
  00976	8b f4		 mov	 esi, esp
  00978	6a 01		 push	 1
  0097a	8b 45 e8	 mov	 eax, DWORD PTR $T192284[ebp]
  0097d	8b 10		 mov	 edx, DWORD PTR [eax]
  0097f	8b 4d e8	 mov	 ecx, DWORD PTR $T192284[ebp]
  00982	ff 52 04	 call	 DWORD PTR [edx+4]
  00985	3b f4		 cmp	 esi, esp
  00987	e8 00 00 00 00	 call	 __RTC_CheckEsp
  0098c	89 45 d0	 mov	 DWORD PTR tv80[ebp], eax
  0098f	eb 07		 jmp	 SHORT $L192287
$L192286:
  00991	c7 45 d0 00 00
	00 00		 mov	 DWORD PTR tv80[ebp], 0
$L192287:

; 195  : 	}else

  00998	e9 17 01 00 00	 jmp	 $L191001
$L191003:

; 196  : 	if( dynamic_cast<WebGamePanelWnd*>(pWnd) )

  0099d	6a 00		 push	 0
  0099f	68 00 00 00 00	 push	 OFFSET FLAT:??_R0?AVWebGamePanelWnd@@@8
  009a4	68 00 00 00 00	 push	 OFFSET FLAT:??_R0?AVCWnd@@@8
  009a9	6a 00		 push	 0
  009ab	8b 45 08	 mov	 eax, DWORD PTR _pWnd$[ebp]
  009ae	50		 push	 eax
  009af	e8 00 00 00 00	 call	 ___RTDynamicCast
  009b4	83 c4 14	 add	 esp, 20			; 00000014H
  009b7	85 c0		 test	 eax, eax
  009b9	74 53		 je	 SHORT $L191010

; 197  : 	{
; 198  : 		WebGamePanelWnd* pWnd1 = (WebGamePanelWnd*)pWnd;

  009bb	8b 4d 08	 mov	 ecx, DWORD PTR _pWnd$[ebp]
  009be	89 4d f4	 mov	 DWORD PTR _pWnd1$191011[ebp], ecx

; 199  : 		//pWnd1->Recycle();
; 200  : 		pWnd1->DestroyWindow();

  009c1	8b 55 f4	 mov	 edx, DWORD PTR _pWnd1$191011[ebp]
  009c4	8b 02		 mov	 eax, DWORD PTR [edx]
  009c6	8b f4		 mov	 esi, esp
  009c8	8b 4d f4	 mov	 ecx, DWORD PTR _pWnd1$191011[ebp]
  009cb	ff 50 68	 call	 DWORD PTR [eax+104]
  009ce	3b f4		 cmp	 esi, esp
  009d0	e8 00 00 00 00	 call	 __RTC_CheckEsp

; 201  : 		delete pWnd1;

  009d5	8b 4d f4	 mov	 ecx, DWORD PTR _pWnd1$191011[ebp]
  009d8	89 4d dc	 mov	 DWORD PTR $T192289[ebp], ecx
  009db	8b 55 dc	 mov	 edx, DWORD PTR $T192289[ebp]
  009de	89 55 e0	 mov	 DWORD PTR $T192288[ebp], edx
  009e1	83 7d e0 00	 cmp	 DWORD PTR $T192288[ebp], 0
  009e5	74 1b		 je	 SHORT $L192290
  009e7	8b f4		 mov	 esi, esp
  009e9	6a 01		 push	 1
  009eb	8b 45 e0	 mov	 eax, DWORD PTR $T192288[ebp]
  009ee	8b 10		 mov	 edx, DWORD PTR [eax]
  009f0	8b 4d e0	 mov	 ecx, DWORD PTR $T192288[ebp]
  009f3	ff 52 04	 call	 DWORD PTR [edx+4]
  009f6	3b f4		 cmp	 esi, esp
  009f8	e8 00 00 00 00	 call	 __RTC_CheckEsp
  009fd	89 45 cc	 mov	 DWORD PTR tv129[ebp], eax
  00a00	eb 07		 jmp	 SHORT $L192291
$L192290:
  00a02	c7 45 cc 00 00
	00 00		 mov	 DWORD PTR tv129[ebp], 0
$L192291:

; 202  : 	}else

  00a09	e9 a6 00 00 00	 jmp	 $L191001
$L191010:

; 203  : 	if( dynamic_cast<MyWebBrowserWnd*>(pWnd) )

  00a0e	6a 00		 push	 0
  00a10	68 00 00 00 00	 push	 OFFSET FLAT:??_R0?AVMyWebBrowserWnd@@@8
  00a15	68 00 00 00 00	 push	 OFFSET FLAT:??_R0?AVCWnd@@@8
  00a1a	6a 00		 push	 0
  00a1c	8b 45 08	 mov	 eax, DWORD PTR _pWnd$[ebp]
  00a1f	50		 push	 eax
  00a20	e8 00 00 00 00	 call	 ___RTDynamicCast
  00a25	83 c4 14	 add	 esp, 20			; 00000014H
  00a28	85 c0		 test	 eax, eax
  00a2a	74 1c		 je	 SHORT $L191017

; 204  : 	{
; 205  : 		MyWebBrowserWnd* pWnd1 = (MyWebBrowserWnd*)pWnd;

  00a2c	8b 4d 08	 mov	 ecx, DWORD PTR _pWnd$[ebp]
  00a2f	89 4d f0	 mov	 DWORD PTR _pWnd1$191018[ebp], ecx

; 206  : 		//pWnd1->Recycle();
; 207  : 		pWnd1->DestroyWindow();

  00a32	8b 55 f0	 mov	 edx, DWORD PTR _pWnd1$191018[ebp]
  00a35	8b 02		 mov	 eax, DWORD PTR [edx]
  00a37	8b f4		 mov	 esi, esp
  00a39	8b 4d f0	 mov	 ecx, DWORD PTR _pWnd1$191018[ebp]
  00a3c	ff 50 68	 call	 DWORD PTR [eax+104]
  00a3f	3b f4		 cmp	 esi, esp
  00a41	e8 00 00 00 00	 call	 __RTC_CheckEsp

; 208  : 		//delete
; 209  : 	}else

  00a46	eb 6c		 jmp	 SHORT $L191001
$L191017:

; 210  : 	if( dynamic_cast<PlayedGameWnd*>(pWnd) )

  00a48	6a 00		 push	 0
  00a4a	68 00 00 00 00	 push	 OFFSET FLAT:??_R0?AVPlayedGameWnd@@@8
  00a4f	68 00 00 00 00	 push	 OFFSET FLAT:??_R0?AVCWnd@@@8
  00a54	6a 00		 push	 0
  00a56	8b 4d 08	 mov	 ecx, DWORD PTR _pWnd$[ebp]
  00a59	51		 push	 ecx
  00a5a	e8 00 00 00 00	 call	 ___RTDynamicCast
  00a5f	83 c4 14	 add	 esp, 20			; 00000014H
  00a62	85 c0		 test	 eax, eax
  00a64	74 4e		 je	 SHORT $L191001

; 211  : 	{
; 212  : 		PlayedGameWnd* pWnd1 = (PlayedGameWnd*)pWnd;

  00a66	8b 55 08	 mov	 edx, DWORD PTR _pWnd$[ebp]
  00a69	89 55 ec	 mov	 DWORD PTR _pWnd1$191023[ebp], edx

; 213  : 		//pWnd1->Recycle();
; 214  : 		pWnd1->DestroyWindow();

  00a6c	8b 45 ec	 mov	 eax, DWORD PTR _pWnd1$191023[ebp]
  00a6f	8b 10		 mov	 edx, DWORD PTR [eax]
  00a71	8b f4		 mov	 esi, esp
  00a73	8b 4d ec	 mov	 ecx, DWORD PTR _pWnd1$191023[ebp]
  00a76	ff 52 68	 call	 DWORD PTR [edx+104]
  00a79	3b f4		 cmp	 esi, esp
  00a7b	e8 00 00 00 00	 call	 __RTC_CheckEsp

; 215  : 		delete pWnd1;

  00a80	8b 45 ec	 mov	 eax, DWORD PTR _pWnd1$191023[ebp]
  00a83	89 45 d4	 mov	 DWORD PTR $T192293[ebp], eax
  00a86	8b 4d d4	 mov	 ecx, DWORD PTR $T192293[ebp]
  00a89	89 4d d8	 mov	 DWORD PTR $T192292[ebp], ecx
  00a8c	83 7d d8 00	 cmp	 DWORD PTR $T192292[ebp], 0
  00a90	74 1b		 je	 SHORT $L192294
  00a92	8b f4		 mov	 esi, esp
  00a94	6a 01		 push	 1
  00a96	8b 55 d8	 mov	 edx, DWORD PTR $T192292[ebp]
  00a99	8b 02		 mov	 eax, DWORD PTR [edx]
  00a9b	8b 4d d8	 mov	 ecx, DWORD PTR $T192292[ebp]
  00a9e	ff 50 04	 call	 DWORD PTR [eax+4]
  00aa1	3b f4		 cmp	 esi, esp
  00aa3	e8 00 00 00 00	 call	 __RTC_CheckEsp
  00aa8	89 45 c8	 mov	 DWORD PTR tv156[ebp], eax
  00aab	eb 07		 jmp	 SHORT $L191001
$L192294:
  00aad	c7 45 c8 00 00
	00 00		 mov	 DWORD PTR tv156[ebp], 0
$L191001:

; 216  : 	}
; 217  : 	//m_vecWnd.push_back( pWnd );
; 218  : 	//pWnd->MoveWindow(0,0,0,0);
; 219  : }

  00ab4	5f		 pop	 edi
  00ab5	5e		 pop	 esi
  00ab6	83 c4 38	 add	 esp, 56			; 00000038H
  00ab9	3b ec		 cmp	 ebp, esp
  00abb	e8 00 00 00 00	 call	 __RTC_CheckEsp
  00ac0	8b e5		 mov	 esp, ebp
  00ac2	5d		 pop	 ebp
  00ac3	c2 04 00	 ret	 4
?Recycle@TabWndFactory@@QAEXPAVCWnd@@@Z ENDP		; TabWndFactory::Recycle
_TEXT	ENDS
PUBLIC	??0?$_Vector_val@PAVCWnd@@V?$allocator@PAVCWnd@@@std@@@std@@IAE@V?$allocator@PAVCWnd@@@1@@Z ; std::_Vector_val<CWnd *,std::allocator<CWnd *> >::_Vector_val<CWnd *,std::allocator<CWnd *> >
PUBLIC	??0?$allocator@PAVCWnd@@@std@@QAE@XZ		; std::allocator<CWnd *>::allocator<CWnd *>
PUBLIC	?_Buy@?$vector@PAVCWnd@@V?$allocator@PAVCWnd@@@std@@@std@@IAE_NI@Z ; std::vector<CWnd *,std::allocator<CWnd *> >::_Buy
; Function compile flags: /Odt /RTCsu
; File d:\program files (x86)\microsoft visual studio .net 2003\vc7\include\vector
;	COMDAT ??0?$vector@PAVCWnd@@V?$allocator@PAVCWnd@@@std@@@std@@QAE@XZ
_TEXT	SEGMENT
_this$ = -4						; size = 4
??0?$vector@PAVCWnd@@V?$allocator@PAVCWnd@@@std@@@std@@QAE@XZ PROC NEAR ; std::vector<CWnd *,std::allocator<CWnd *> >::vector<CWnd *,std::allocator<CWnd *> >, COMDAT
; _this$ = ecx

; 299  : 		{	// construct empty vector

  00000	55		 push	 ebp
  00001	8b ec		 mov	 ebp, esp
  00003	83 ec 08	 sub	 esp, 8
  00006	c7 45 f8 cc cc
	cc cc		 mov	 DWORD PTR [ebp-8], -858993460 ; ccccccccH
  0000d	c7 45 fc cc cc
	cc cc		 mov	 DWORD PTR [ebp-4], -858993460 ; ccccccccH
  00014	89 4d fc	 mov	 DWORD PTR _this$[ebp], ecx
  00017	51		 push	 ecx
  00018	8b cc		 mov	 ecx, esp
  0001a	e8 00 00 00 00	 call	 ??0?$allocator@PAVCWnd@@@std@@QAE@XZ ; std::allocator<CWnd *>::allocator<CWnd *>
  0001f	8b 4d fc	 mov	 ecx, DWORD PTR _this$[ebp]
  00022	e8 00 00 00 00	 call	 ??0?$_Vector_val@PAVCWnd@@V?$allocator@PAVCWnd@@@std@@@std@@IAE@V?$allocator@PAVCWnd@@@1@@Z ; std::_Vector_val<CWnd *,std::allocator<CWnd *> >::_Vector_val<CWnd *,std::allocator<CWnd *> >

; 300  : 		_Buy(0);

  00027	6a 00		 push	 0
  00029	8b 4d fc	 mov	 ecx, DWORD PTR _this$[ebp]
  0002c	e8 00 00 00 00	 call	 ?_Buy@?$vector@PAVCWnd@@V?$allocator@PAVCWnd@@@std@@@std@@IAE_NI@Z ; std::vector<CWnd *,std::allocator<CWnd *> >::_Buy

; 301  : 		}

  00031	8b 45 fc	 mov	 eax, DWORD PTR _this$[ebp]
  00034	83 c4 08	 add	 esp, 8
  00037	3b ec		 cmp	 ebp, esp
  00039	e8 00 00 00 00	 call	 __RTC_CheckEsp
  0003e	8b e5		 mov	 esp, ebp
  00040	5d		 pop	 ebp
  00041	c3		 ret	 0
??0?$vector@PAVCWnd@@V?$allocator@PAVCWnd@@@std@@@std@@QAE@XZ ENDP ; std::vector<CWnd *,std::allocator<CWnd *> >::vector<CWnd *,std::allocator<CWnd *> >
_TEXT	ENDS
PUBLIC	?_Tidy@?$vector@PAVCWnd@@V?$allocator@PAVCWnd@@@std@@@std@@IAEXXZ ; std::vector<CWnd *,std::allocator<CWnd *> >::_Tidy
; Function compile flags: /Odt /RTCsu
;	COMDAT ??1?$vector@PAVCWnd@@V?$allocator@PAVCWnd@@@std@@@std@@QAE@XZ
_TEXT	SEGMENT
_this$ = -4						; size = 4
??1?$vector@PAVCWnd@@V?$allocator@PAVCWnd@@@std@@@std@@QAE@XZ PROC NEAR ; std::vector<CWnd *,std::allocator<CWnd *> >::~vector<CWnd *,std::allocator<CWnd *> >, COMDAT
; _this$ = ecx

; 387  : 		{	// destroy the object

  00000	55		 push	 ebp
  00001	8b ec		 mov	 ebp, esp
  00003	51		 push	 ecx
  00004	c7 45 fc cc cc
	cc cc		 mov	 DWORD PTR [ebp-4], -858993460 ; ccccccccH
  0000b	89 4d fc	 mov	 DWORD PTR _this$[ebp], ecx

; 388  : 		_Tidy();

  0000e	8b 4d fc	 mov	 ecx, DWORD PTR _this$[ebp]
  00011	e8 00 00 00 00	 call	 ?_Tidy@?$vector@PAVCWnd@@V?$allocator@PAVCWnd@@@std@@@std@@IAEXXZ ; std::vector<CWnd *,std::allocator<CWnd *> >::_Tidy

; 389  : 		}

  00016	83 c4 04	 add	 esp, 4
  00019	3b ec		 cmp	 ebp, esp
  0001b	e8 00 00 00 00	 call	 __RTC_CheckEsp
  00020	8b e5		 mov	 esp, ebp
  00022	5d		 pop	 ebp
  00023	c3		 ret	 0
??1?$vector@PAVCWnd@@V?$allocator@PAVCWnd@@@std@@@std@@QAE@XZ ENDP ; std::vector<CWnd *,std::allocator<CWnd *> >::~vector<CWnd *,std::allocator<CWnd *> >
_TEXT	ENDS
PUBLIC	??0iterator@?$vector@PAVCWnd@@V?$allocator@PAVCWnd@@@std@@@std@@QAE@PAPAVCWnd@@@Z ; std::vector<CWnd *,std::allocator<CWnd *> >::iterator::iterator
; Function compile flags: /Odt /RTCsu
;	COMDAT ?begin@?$vector@PAVCWnd@@V?$allocator@PAVCWnd@@@std@@@std@@QAE?AViterator@12@XZ
_TEXT	SEGMENT
_this$ = -4						; size = 4
___$ReturnUdt$ = 8					; size = 4
?begin@?$vector@PAVCWnd@@V?$allocator@PAVCWnd@@@std@@@std@@QAE?AViterator@12@XZ PROC NEAR ; std::vector<CWnd *,std::allocator<CWnd *> >::begin, COMDAT
; _this$ = ecx

; 462  : 		{	// return iterator for beginning of mutable sequence

  00000	55		 push	 ebp
  00001	8b ec		 mov	 ebp, esp
  00003	51		 push	 ecx
  00004	c7 45 fc cc cc
	cc cc		 mov	 DWORD PTR [ebp-4], -858993460 ; ccccccccH
  0000b	89 4d fc	 mov	 DWORD PTR _this$[ebp], ecx

; 463  : 		return (iterator(_Myfirst));

  0000e	8b 45 fc	 mov	 eax, DWORD PTR _this$[ebp]
  00011	8b 48 04	 mov	 ecx, DWORD PTR [eax+4]
  00014	51		 push	 ecx
  00015	8b 4d 08	 mov	 ecx, DWORD PTR ___$ReturnUdt$[ebp]
  00018	e8 00 00 00 00	 call	 ??0iterator@?$vector@PAVCWnd@@V?$allocator@PAVCWnd@@@std@@@std@@QAE@PAPAVCWnd@@@Z ; std::vector<CWnd *,std::allocator<CWnd *> >::iterator::iterator
  0001d	8b 45 08	 mov	 eax, DWORD PTR ___$ReturnUdt$[ebp]

; 464  : 		}

  00020	83 c4 04	 add	 esp, 4
  00023	3b ec		 cmp	 ebp, esp
  00025	e8 00 00 00 00	 call	 __RTC_CheckEsp
  0002a	8b e5		 mov	 esp, ebp
  0002c	5d		 pop	 ebp
  0002d	c2 04 00	 ret	 4
?begin@?$vector@PAVCWnd@@V?$allocator@PAVCWnd@@@std@@@std@@QAE?AViterator@12@XZ ENDP ; std::vector<CWnd *,std::allocator<CWnd *> >::begin
; Function compile flags: /Odt /RTCsu
_TEXT	ENDS
;	COMDAT ?end@?$vector@PAVCWnd@@V?$allocator@PAVCWnd@@@std@@@std@@QAE?AViterator@12@XZ
_TEXT	SEGMENT
_this$ = -4						; size = 4
___$ReturnUdt$ = 8					; size = 4
?end@?$vector@PAVCWnd@@V?$allocator@PAVCWnd@@@std@@@std@@QAE?AViterator@12@XZ PROC NEAR ; std::vector<CWnd *,std::allocator<CWnd *> >::end, COMDAT
; _this$ = ecx

; 472  : 		{	// return iterator for end of mutable sequence

  00000	55		 push	 ebp
  00001	8b ec		 mov	 ebp, esp
  00003	51		 push	 ecx
  00004	c7 45 fc cc cc
	cc cc		 mov	 DWORD PTR [ebp-4], -858993460 ; ccccccccH
  0000b	89 4d fc	 mov	 DWORD PTR _this$[ebp], ecx

; 473  : 		return (iterator(_Mylast));

  0000e	8b 45 fc	 mov	 eax, DWORD PTR _this$[ebp]
  00011	8b 48 08	 mov	 ecx, DWORD PTR [eax+8]
  00014	51		 push	 ecx
  00015	8b 4d 08	 mov	 ecx, DWORD PTR ___$ReturnUdt$[ebp]
  00018	e8 00 00 00 00	 call	 ??0iterator@?$vector@PAVCWnd@@V?$allocator@PAVCWnd@@@std@@@std@@QAE@PAPAVCWnd@@@Z ; std::vector<CWnd *,std::allocator<CWnd *> >::iterator::iterator
  0001d	8b 45 08	 mov	 eax, DWORD PTR ___$ReturnUdt$[ebp]

; 474  : 		}

  00020	83 c4 04	 add	 esp, 4
  00023	3b ec		 cmp	 ebp, esp
  00025	e8 00 00 00 00	 call	 __RTC_CheckEsp
  0002a	8b e5		 mov	 esp, ebp
  0002c	5d		 pop	 ebp
  0002d	c2 04 00	 ret	 4
?end@?$vector@PAVCWnd@@V?$allocator@PAVCWnd@@@std@@@std@@QAE?AViterator@12@XZ ENDP ; std::vector<CWnd *,std::allocator<CWnd *> >::end
_TEXT	ENDS
PUBLIC	??$copy@PAPAVCWnd@@PAPAV1@@std@@YAPAPAVCWnd@@PAPAV1@00@Z ; std::copy<CWnd * *,CWnd * *>
PUBLIC	?_Destroy@?$vector@PAVCWnd@@V?$allocator@PAVCWnd@@@std@@@std@@IAEXPAPAVCWnd@@0@Z ; std::vector<CWnd *,std::allocator<CWnd *> >::_Destroy
; Function compile flags: /Odt /RTCsu
;	COMDAT ?erase@?$vector@PAVCWnd@@V?$allocator@PAVCWnd@@@std@@@std@@QAE?AViterator@12@V312@@Z
_TEXT	SEGMENT
_this$ = -4						; size = 4
___$ReturnUdt$ = 8					; size = 4
__Where$ = 12						; size = 4
?erase@?$vector@PAVCWnd@@V?$allocator@PAVCWnd@@@std@@@std@@QAE?AViterator@12@V312@@Z PROC NEAR ; std::vector<CWnd *,std::allocator<CWnd *> >::erase, COMDAT
; _this$ = ecx

; 723  : 		{	// erase element at where

  00000	55		 push	 ebp
  00001	8b ec		 mov	 ebp, esp
  00003	51		 push	 ecx
  00004	c7 45 fc cc cc
	cc cc		 mov	 DWORD PTR [ebp-4], -858993460 ; ccccccccH
  0000b	89 4d fc	 mov	 DWORD PTR _this$[ebp], ecx

; 724  : 		copy(_ITER_BASE(_Where) + 1, _Mylast, _ITER_BASE(_Where));

  0000e	8b 45 0c	 mov	 eax, DWORD PTR __Where$[ebp]
  00011	50		 push	 eax
  00012	8b 4d fc	 mov	 ecx, DWORD PTR _this$[ebp]
  00015	8b 51 08	 mov	 edx, DWORD PTR [ecx+8]
  00018	52		 push	 edx
  00019	8b 45 0c	 mov	 eax, DWORD PTR __Where$[ebp]
  0001c	83 c0 04	 add	 eax, 4
  0001f	50		 push	 eax
  00020	e8 00 00 00 00	 call	 ??$copy@PAPAVCWnd@@PAPAV1@@std@@YAPAPAVCWnd@@PAPAV1@00@Z ; std::copy<CWnd * *,CWnd * *>
  00025	83 c4 0c	 add	 esp, 12			; 0000000cH

; 725  : 		_Destroy(_Mylast - 1, _Mylast);

  00028	8b 4d fc	 mov	 ecx, DWORD PTR _this$[ebp]
  0002b	8b 51 08	 mov	 edx, DWORD PTR [ecx+8]
  0002e	52		 push	 edx
  0002f	8b 45 fc	 mov	 eax, DWORD PTR _this$[ebp]
  00032	8b 48 08	 mov	 ecx, DWORD PTR [eax+8]
  00035	83 e9 04	 sub	 ecx, 4
  00038	51		 push	 ecx
  00039	8b 4d fc	 mov	 ecx, DWORD PTR _this$[ebp]
  0003c	e8 00 00 00 00	 call	 ?_Destroy@?$vector@PAVCWnd@@V?$allocator@PAVCWnd@@@std@@@std@@IAEXPAPAVCWnd@@0@Z ; std::vector<CWnd *,std::allocator<CWnd *> >::_Destroy

; 726  : 		--_Mylast;

  00041	8b 55 fc	 mov	 edx, DWORD PTR _this$[ebp]
  00044	8b 42 08	 mov	 eax, DWORD PTR [edx+8]
  00047	83 e8 04	 sub	 eax, 4
  0004a	8b 4d fc	 mov	 ecx, DWORD PTR _this$[ebp]
  0004d	89 41 08	 mov	 DWORD PTR [ecx+8], eax

; 727  : 		return (_Where);

  00050	8b 55 08	 mov	 edx, DWORD PTR ___$ReturnUdt$[ebp]
  00053	8b 45 0c	 mov	 eax, DWORD PTR __Where$[ebp]
  00056	89 02		 mov	 DWORD PTR [edx], eax
  00058	8b 45 08	 mov	 eax, DWORD PTR ___$ReturnUdt$[ebp]

; 728  : 		}

  0005b	83 c4 04	 add	 esp, 4
  0005e	3b ec		 cmp	 ebp, esp
  00060	e8 00 00 00 00	 call	 __RTC_CheckEsp
  00065	8b e5		 mov	 esp, ebp
  00067	5d		 pop	 ebp
  00068	c2 08 00	 ret	 8
?erase@?$vector@PAVCWnd@@V?$allocator@PAVCWnd@@@std@@@std@@QAE?AViterator@12@V312@@Z ENDP ; std::vector<CWnd *,std::allocator<CWnd *> >::erase
_TEXT	ENDS
PUBLIC	??Dconst_iterator@?$vector@PAVCWnd@@V?$allocator@PAVCWnd@@@std@@@std@@QBEABQAVCWnd@@XZ ; std::vector<CWnd *,std::allocator<CWnd *> >::const_iterator::operator*
; Function compile flags: /Odt /RTCsu
;	COMDAT ??Diterator@?$vector@PAVCWnd@@V?$allocator@PAVCWnd@@@std@@@std@@QBEAAPAVCWnd@@XZ
_TEXT	SEGMENT
_this$ = -4						; size = 4
??Diterator@?$vector@PAVCWnd@@V?$allocator@PAVCWnd@@@std@@@std@@QBEAAPAVCWnd@@XZ PROC NEAR ; std::vector<CWnd *,std::allocator<CWnd *> >::iterator::operator*, COMDAT
; _this$ = ecx

; 219  : 			{	// return designated object

  00000	55		 push	 ebp
  00001	8b ec		 mov	 ebp, esp
  00003	51		 push	 ecx
  00004	c7 45 fc cc cc
	cc cc		 mov	 DWORD PTR [ebp-4], -858993460 ; ccccccccH
  0000b	89 4d fc	 mov	 DWORD PTR _this$[ebp], ecx

; 220  : 			return ((reference)**(const_iterator *)this);

  0000e	8b 4d fc	 mov	 ecx, DWORD PTR _this$[ebp]
  00011	e8 00 00 00 00	 call	 ??Dconst_iterator@?$vector@PAVCWnd@@V?$allocator@PAVCWnd@@@std@@@std@@QBEABQAVCWnd@@XZ ; std::vector<CWnd *,std::allocator<CWnd *> >::const_iterator::operator*

; 221  : 			}

  00016	83 c4 04	 add	 esp, 4
  00019	3b ec		 cmp	 ebp, esp
  0001b	e8 00 00 00 00	 call	 __RTC_CheckEsp
  00020	8b e5		 mov	 esp, ebp
  00022	5d		 pop	 ebp
  00023	c3		 ret	 0
??Diterator@?$vector@PAVCWnd@@V?$allocator@PAVCWnd@@@std@@@std@@QBEAAPAVCWnd@@XZ ENDP ; std::vector<CWnd *,std::allocator<CWnd *> >::iterator::operator*
_TEXT	ENDS
PUBLIC	??Eiterator@?$vector@PAVCWnd@@V?$allocator@PAVCWnd@@@std@@@std@@QAEAAV012@XZ ; std::vector<CWnd *,std::allocator<CWnd *> >::iterator::operator++
; Function compile flags: /Odt /RTCsu
;	COMDAT ??Eiterator@?$vector@PAVCWnd@@V?$allocator@PAVCWnd@@@std@@@std@@QAE?AV012@H@Z
_TEXT	SEGMENT
__Tmp$ = -12						; size = 4
_this$ = -4						; size = 4
___$ReturnUdt$ = 8					; size = 4
___formal$ = 12						; size = 4
??Eiterator@?$vector@PAVCWnd@@V?$allocator@PAVCWnd@@@std@@@std@@QAE?AV012@H@Z PROC NEAR ; std::vector<CWnd *,std::allocator<CWnd *> >::iterator::operator++, COMDAT
; _this$ = ecx

; 235  : 			{	// postincrement

  00000	55		 push	 ebp
  00001	8b ec		 mov	 ebp, esp
  00003	83 ec 10	 sub	 esp, 16			; 00000010H
  00006	b8 cc cc cc cc	 mov	 eax, -858993460		; ccccccccH
  0000b	89 45 f0	 mov	 DWORD PTR [ebp-16], eax
  0000e	89 45 f4	 mov	 DWORD PTR [ebp-12], eax
  00011	89 45 f8	 mov	 DWORD PTR [ebp-8], eax
  00014	89 45 fc	 mov	 DWORD PTR [ebp-4], eax
  00017	89 4d fc	 mov	 DWORD PTR _this$[ebp], ecx

; 236  : 			iterator _Tmp = *this;

  0001a	8b 45 fc	 mov	 eax, DWORD PTR _this$[ebp]
  0001d	8b 08		 mov	 ecx, DWORD PTR [eax]
  0001f	89 4d f4	 mov	 DWORD PTR __Tmp$[ebp], ecx

; 237  : 			++*this;

  00022	8b 4d fc	 mov	 ecx, DWORD PTR _this$[ebp]
  00025	e8 00 00 00 00	 call	 ??Eiterator@?$vector@PAVCWnd@@V?$allocator@PAVCWnd@@@std@@@std@@QAEAAV012@XZ ; std::vector<CWnd *,std::allocator<CWnd *> >::iterator::operator++

; 238  : 			return (_Tmp);

  0002a	8b 55 08	 mov	 edx, DWORD PTR ___$ReturnUdt$[ebp]
  0002d	8b 45 f4	 mov	 eax, DWORD PTR __Tmp$[ebp]
  00030	89 02		 mov	 DWORD PTR [edx], eax
  00032	8b 45 08	 mov	 eax, DWORD PTR ___$ReturnUdt$[ebp]

; 239  : 			}

  00035	52		 push	 edx
  00036	8b cd		 mov	 ecx, ebp
  00038	50		 push	 eax
  00039	8d 15 00 00 00
	00		 lea	 edx, DWORD PTR $L192306
  0003f	e8 00 00 00 00	 call	 @_RTC_CheckStackVars@8
  00044	58		 pop	 eax
  00045	5a		 pop	 edx
  00046	83 c4 10	 add	 esp, 16			; 00000010H
  00049	3b ec		 cmp	 ebp, esp
  0004b	e8 00 00 00 00	 call	 __RTC_CheckEsp
  00050	8b e5		 mov	 esp, ebp
  00052	5d		 pop	 ebp
  00053	c2 08 00	 ret	 8
$L192306:
  00056	01 00 00 00	 DD	 1
  0005a	00 00 00 00	 DD	 $L192305
$L192305:
  0005e	f4 ff ff ff	 DD	 -12			; fffffff4H
  00062	04 00 00 00	 DD	 4
  00066	00 00 00 00	 DD	 $L192304
$L192304:
  0006a	5f		 DB	 95			; 0000005fH
  0006b	54		 DB	 84			; 00000054H
  0006c	6d		 DB	 109			; 0000006dH
  0006d	70		 DB	 112			; 00000070H
  0006e	00		 DB	 0
??Eiterator@?$vector@PAVCWnd@@V?$allocator@PAVCWnd@@@std@@@std@@QAE?AV012@H@Z ENDP ; std::vector<CWnd *,std::allocator<CWnd *> >::iterator::operator++
_TEXT	ENDS
PUBLIC	??8const_iterator@?$vector@PAVCWnd@@V?$allocator@PAVCWnd@@@std@@@std@@QBE_NABV012@@Z ; std::vector<CWnd *,std::allocator<CWnd *> >::const_iterator::operator==
; Function compile flags: /Odt /RTCsu
;	COMDAT ??9const_iterator@?$vector@PAVCWnd@@V?$allocator@PAVCWnd@@@std@@@std@@QBE_NABV012@@Z
_TEXT	SEGMENT
_this$ = -4						; size = 4
__Right$ = 8						; size = 4
??9const_iterator@?$vector@PAVCWnd@@V?$allocator@PAVCWnd@@@std@@@std@@QBE_NABV012@@Z PROC NEAR ; std::vector<CWnd *,std::allocator<CWnd *> >::const_iterator::operator!=, COMDAT
; _this$ = ecx

; 159  : 			{	// test for iterator inequality

  00000	55		 push	 ebp
  00001	8b ec		 mov	 ebp, esp
  00003	51		 push	 ecx
  00004	c7 45 fc cc cc
	cc cc		 mov	 DWORD PTR [ebp-4], -858993460 ; ccccccccH
  0000b	89 4d fc	 mov	 DWORD PTR _this$[ebp], ecx

; 160  : 			return (!(*this == _Right));

  0000e	8b 45 08	 mov	 eax, DWORD PTR __Right$[ebp]
  00011	50		 push	 eax
  00012	8b 4d fc	 mov	 ecx, DWORD PTR _this$[ebp]
  00015	e8 00 00 00 00	 call	 ??8const_iterator@?$vector@PAVCWnd@@V?$allocator@PAVCWnd@@@std@@@std@@QBE_NABV012@@Z ; std::vector<CWnd *,std::allocator<CWnd *> >::const_iterator::operator==
  0001a	0f b6 c0	 movzx	 eax, al
  0001d	f7 d8		 neg	 eax
  0001f	1b c0		 sbb	 eax, eax
  00021	40		 inc	 eax

; 161  : 			}

  00022	83 c4 04	 add	 esp, 4
  00025	3b ec		 cmp	 ebp, esp
  00027	e8 00 00 00 00	 call	 __RTC_CheckEsp
  0002c	8b e5		 mov	 esp, ebp
  0002e	5d		 pop	 ebp
  0002f	c2 04 00	 ret	 4
??9const_iterator@?$vector@PAVCWnd@@V?$allocator@PAVCWnd@@@std@@@std@@QBE_NABV012@@Z ENDP ; std::vector<CWnd *,std::allocator<CWnd *> >::const_iterator::operator!=
_TEXT	ENDS
PUBLIC	?allocate@?$allocator@PAVCWnd@@@std@@QAEPAPAVCWnd@@I@Z ; std::allocator<CWnd *>::allocate
PUBLIC	?max_size@?$vector@PAVCWnd@@V?$allocator@PAVCWnd@@@std@@@std@@QBEIXZ ; std::vector<CWnd *,std::allocator<CWnd *> >::max_size
PUBLIC	?_Xlen@?$vector@PAVCWnd@@V?$allocator@PAVCWnd@@@std@@@std@@IBEXXZ ; std::vector<CWnd *,std::allocator<CWnd *> >::_Xlen
; Function compile flags: /Odt /RTCsu
;	COMDAT ?_Buy@?$vector@PAVCWnd@@V?$allocator@PAVCWnd@@@std@@@std@@IAE_NI@Z
_TEXT	SEGMENT
_this$ = -4						; size = 4
__Capacity$ = 8						; size = 4
?_Buy@?$vector@PAVCWnd@@V?$allocator@PAVCWnd@@@std@@@std@@IAE_NI@Z PROC NEAR ; std::vector<CWnd *,std::allocator<CWnd *> >::_Buy, COMDAT
; _this$ = ecx

; 770  : 		{	// allocate array with _Capacity elements

  00000	55		 push	 ebp
  00001	8b ec		 mov	 ebp, esp
  00003	51		 push	 ecx
  00004	c7 45 fc cc cc
	cc cc		 mov	 DWORD PTR [ebp-4], -858993460 ; ccccccccH
  0000b	89 4d fc	 mov	 DWORD PTR _this$[ebp], ecx

; 771  : 		_Myfirst = 0, _Mylast = 0, _Myend = 0;

  0000e	8b 45 fc	 mov	 eax, DWORD PTR _this$[ebp]
  00011	c7 40 04 00 00
	00 00		 mov	 DWORD PTR [eax+4], 0
  00018	8b 4d fc	 mov	 ecx, DWORD PTR _this$[ebp]
  0001b	c7 41 08 00 00
	00 00		 mov	 DWORD PTR [ecx+8], 0
  00022	8b 55 fc	 mov	 edx, DWORD PTR _this$[ebp]
  00025	c7 42 0c 00 00
	00 00		 mov	 DWORD PTR [edx+12], 0

; 772  : 		if (_Capacity == 0)

  0002c	83 7d 08 00	 cmp	 DWORD PTR __Capacity$[ebp], 0
  00030	75 04		 jne	 SHORT $L191145

; 773  : 			return (false);

  00032	32 c0		 xor	 al, al
  00034	eb 49		 jmp	 SHORT $L191144
$L191145:

; 774  : 		else if (max_size() < _Capacity)

  00036	8b 4d fc	 mov	 ecx, DWORD PTR _this$[ebp]
  00039	e8 00 00 00 00	 call	 ?max_size@?$vector@PAVCWnd@@V?$allocator@PAVCWnd@@@std@@@std@@QBEIXZ ; std::vector<CWnd *,std::allocator<CWnd *> >::max_size
  0003e	3b 45 08	 cmp	 eax, DWORD PTR __Capacity$[ebp]
  00041	73 0a		 jae	 SHORT $L191147

; 775  : 			_Xlen();	// result too long

  00043	8b 4d fc	 mov	 ecx, DWORD PTR _this$[ebp]
  00046	e8 00 00 00 00	 call	 ?_Xlen@?$vector@PAVCWnd@@V?$allocator@PAVCWnd@@@std@@@std@@IBEXXZ ; std::vector<CWnd *,std::allocator<CWnd *> >::_Xlen

; 776  : 		else

  0004b	eb 30		 jmp	 SHORT $L191146
$L191147:

; 777  : 			{	// nonempty array, allocate storage
; 778  : 			_Myfirst = this->_Alval.allocate(_Capacity);

  0004d	8b 45 08	 mov	 eax, DWORD PTR __Capacity$[ebp]
  00050	50		 push	 eax
  00051	8b 4d fc	 mov	 ecx, DWORD PTR _this$[ebp]
  00054	e8 00 00 00 00	 call	 ?allocate@?$allocator@PAVCWnd@@@std@@QAEPAPAVCWnd@@I@Z ; std::allocator<CWnd *>::allocate
  00059	8b 4d fc	 mov	 ecx, DWORD PTR _this$[ebp]
  0005c	89 41 04	 mov	 DWORD PTR [ecx+4], eax

; 779  : 			_Mylast = _Myfirst;

  0005f	8b 55 fc	 mov	 edx, DWORD PTR _this$[ebp]
  00062	8b 45 fc	 mov	 eax, DWORD PTR _this$[ebp]
  00065	8b 48 04	 mov	 ecx, DWORD PTR [eax+4]
  00068	89 4a 08	 mov	 DWORD PTR [edx+8], ecx

; 780  : 			_Myend = _Myfirst + _Capacity;

  0006b	8b 55 fc	 mov	 edx, DWORD PTR _this$[ebp]
  0006e	8b 42 04	 mov	 eax, DWORD PTR [edx+4]
  00071	8b 4d 08	 mov	 ecx, DWORD PTR __Capacity$[ebp]
  00074	8d 14 88	 lea	 edx, DWORD PTR [eax+ecx*4]
  00077	8b 45 fc	 mov	 eax, DWORD PTR _this$[ebp]
  0007a	89 50 0c	 mov	 DWORD PTR [eax+12], edx
$L191146:

; 781  : 			}
; 782  : 		return (true);

  0007d	b0 01		 mov	 al, 1
$L191144:

; 783  : 		}

  0007f	83 c4 04	 add	 esp, 4
  00082	3b ec		 cmp	 ebp, esp
  00084	e8 00 00 00 00	 call	 __RTC_CheckEsp
  00089	8b e5		 mov	 esp, ebp
  0008b	5d		 pop	 ebp
  0008c	c2 04 00	 ret	 4
?_Buy@?$vector@PAVCWnd@@V?$allocator@PAVCWnd@@@std@@@std@@IAE_NI@Z ENDP ; std::vector<CWnd *,std::allocator<CWnd *> >::_Buy
_TEXT	ENDS
PUBLIC	??$_Destroy_range@PAVCWnd@@V?$allocator@PAVCWnd@@@std@@@std@@YAXPAPAVCWnd@@0AAV?$allocator@PAVCWnd@@@0@@Z ; std::_Destroy_range<CWnd *,std::allocator<CWnd *> >
; Function compile flags: /Odt /RTCsu
;	COMDAT ?_Destroy@?$vector@PAVCWnd@@V?$allocator@PAVCWnd@@@std@@@std@@IAEXPAPAVCWnd@@0@Z
_TEXT	SEGMENT
_this$ = -4						; size = 4
__First$ = 8						; size = 4
__Last$ = 12						; size = 4
?_Destroy@?$vector@PAVCWnd@@V?$allocator@PAVCWnd@@@std@@@std@@IAEXPAPAVCWnd@@0@Z PROC NEAR ; std::vector<CWnd *,std::allocator<CWnd *> >::_Destroy, COMDAT
; _this$ = ecx

; 786  : 		{	// destroy [_First, _Last) using allocator

  00000	55		 push	 ebp
  00001	8b ec		 mov	 ebp, esp
  00003	51		 push	 ecx
  00004	c7 45 fc cc cc
	cc cc		 mov	 DWORD PTR [ebp-4], -858993460 ; ccccccccH
  0000b	89 4d fc	 mov	 DWORD PTR _this$[ebp], ecx

; 787  : 		_Destroy_range(_First, _Last, this->_Alval);

  0000e	8b 45 fc	 mov	 eax, DWORD PTR _this$[ebp]
  00011	50		 push	 eax
  00012	8b 4d 0c	 mov	 ecx, DWORD PTR __Last$[ebp]
  00015	51		 push	 ecx
  00016	8b 55 08	 mov	 edx, DWORD PTR __First$[ebp]
  00019	52		 push	 edx
  0001a	e8 00 00 00 00	 call	 ??$_Destroy_range@PAVCWnd@@V?$allocator@PAVCWnd@@@std@@@std@@YAXPAPAVCWnd@@0AAV?$allocator@PAVCWnd@@@0@@Z ; std::_Destroy_range<CWnd *,std::allocator<CWnd *> >
  0001f	83 c4 0c	 add	 esp, 12			; 0000000cH

; 788  : 		}

  00022	83 c4 04	 add	 esp, 4
  00025	3b ec		 cmp	 ebp, esp
  00027	e8 00 00 00 00	 call	 __RTC_CheckEsp
  0002c	8b e5		 mov	 esp, ebp
  0002e	5d		 pop	 ebp
  0002f	c2 08 00	 ret	 8
?_Destroy@?$vector@PAVCWnd@@V?$allocator@PAVCWnd@@@std@@@std@@IAEXPAPAVCWnd@@0@Z ENDP ; std::vector<CWnd *,std::allocator<CWnd *> >::_Destroy
_TEXT	ENDS
PUBLIC	?deallocate@?$allocator@PAVCWnd@@@std@@QAEXPAPAVCWnd@@I@Z ; std::allocator<CWnd *>::deallocate
; Function compile flags: /Odt /RTCsu
;	COMDAT ?_Tidy@?$vector@PAVCWnd@@V?$allocator@PAVCWnd@@@std@@@std@@IAEXXZ
_TEXT	SEGMENT
_this$ = -4						; size = 4
?_Tidy@?$vector@PAVCWnd@@V?$allocator@PAVCWnd@@@std@@@std@@IAEXXZ PROC NEAR ; std::vector<CWnd *,std::allocator<CWnd *> >::_Tidy, COMDAT
; _this$ = ecx

; 791  : 		{	// free all storage

  00000	55		 push	 ebp
  00001	8b ec		 mov	 ebp, esp
  00003	51		 push	 ecx
  00004	c7 45 fc cc cc
	cc cc		 mov	 DWORD PTR [ebp-4], -858993460 ; ccccccccH
  0000b	89 4d fc	 mov	 DWORD PTR _this$[ebp], ecx

; 792  : 		if (_Myfirst != 0)

  0000e	8b 45 fc	 mov	 eax, DWORD PTR _this$[ebp]
  00011	83 78 04 00	 cmp	 DWORD PTR [eax+4], 0
  00015	74 35		 je	 SHORT $L191160

; 793  : 			{	// something to free, destroy and deallocate it
; 794  : 			_Destroy(_Myfirst, _Mylast);

  00017	8b 4d fc	 mov	 ecx, DWORD PTR _this$[ebp]
  0001a	8b 51 08	 mov	 edx, DWORD PTR [ecx+8]
  0001d	52		 push	 edx
  0001e	8b 45 fc	 mov	 eax, DWORD PTR _this$[ebp]
  00021	8b 48 04	 mov	 ecx, DWORD PTR [eax+4]
  00024	51		 push	 ecx
  00025	8b 4d fc	 mov	 ecx, DWORD PTR _this$[ebp]
  00028	e8 00 00 00 00	 call	 ?_Destroy@?$vector@PAVCWnd@@V?$allocator@PAVCWnd@@@std@@@std@@IAEXPAPAVCWnd@@0@Z ; std::vector<CWnd *,std::allocator<CWnd *> >::_Destroy

; 795  : 			this->_Alval.deallocate(_Myfirst, _Myend - _Myfirst);

  0002d	8b 55 fc	 mov	 edx, DWORD PTR _this$[ebp]
  00030	8b 45 fc	 mov	 eax, DWORD PTR _this$[ebp]
  00033	8b 4a 0c	 mov	 ecx, DWORD PTR [edx+12]
  00036	2b 48 04	 sub	 ecx, DWORD PTR [eax+4]
  00039	c1 f9 02	 sar	 ecx, 2
  0003c	51		 push	 ecx
  0003d	8b 55 fc	 mov	 edx, DWORD PTR _this$[ebp]
  00040	8b 42 04	 mov	 eax, DWORD PTR [edx+4]
  00043	50		 push	 eax
  00044	8b 4d fc	 mov	 ecx, DWORD PTR _this$[ebp]
  00047	e8 00 00 00 00	 call	 ?deallocate@?$allocator@PAVCWnd@@@std@@QAEXPAPAVCWnd@@I@Z ; std::allocator<CWnd *>::deallocate
$L191160:

; 796  : 			}
; 797  : 		_Myfirst = 0, _Mylast = 0, _Myend = 0;

  0004c	8b 4d fc	 mov	 ecx, DWORD PTR _this$[ebp]
  0004f	c7 41 04 00 00
	00 00		 mov	 DWORD PTR [ecx+4], 0
  00056	8b 55 fc	 mov	 edx, DWORD PTR _this$[ebp]
  00059	c7 42 08 00 00
	00 00		 mov	 DWORD PTR [edx+8], 0
  00060	8b 45 fc	 mov	 eax, DWORD PTR _this$[ebp]
  00063	c7 40 0c 00 00
	00 00		 mov	 DWORD PTR [eax+12], 0

; 798  : 		}

  0006a	83 c4 04	 add	 esp, 4
  0006d	3b ec		 cmp	 ebp, esp
  0006f	e8 00 00 00 00	 call	 __RTC_CheckEsp
  00074	8b e5		 mov	 esp, ebp
  00076	5d		 pop	 ebp
  00077	c3		 ret	 0
?_Tidy@?$vector@PAVCWnd@@V?$allocator@PAVCWnd@@@std@@@std@@IAEXXZ ENDP ; std::vector<CWnd *,std::allocator<CWnd *> >::_Tidy
_TEXT	ENDS
PUBLIC	??0?$allocator@PAVCWnd@@@std@@QAE@ABV01@@Z	; std::allocator<CWnd *>::allocator<CWnd *>
; Function compile flags: /Odt /RTCsu
;	COMDAT ??0?$_Vector_val@PAVCWnd@@V?$allocator@PAVCWnd@@@std@@@std@@IAE@V?$allocator@PAVCWnd@@@1@@Z
_TEXT	SEGMENT
_this$ = -4						; size = 4
__Al$ = 8						; size = 1
??0?$_Vector_val@PAVCWnd@@V?$allocator@PAVCWnd@@@std@@@std@@IAE@V?$allocator@PAVCWnd@@@1@@Z PROC NEAR ; std::_Vector_val<CWnd *,std::allocator<CWnd *> >::_Vector_val<CWnd *,std::allocator<CWnd *> >, COMDAT
; _this$ = ecx

; 21   : 		{	// construct allocator from _Al

  00000	55		 push	 ebp
  00001	8b ec		 mov	 ebp, esp
  00003	51		 push	 ecx
  00004	c7 45 fc cc cc
	cc cc		 mov	 DWORD PTR [ebp-4], -858993460 ; ccccccccH
  0000b	89 4d fc	 mov	 DWORD PTR _this$[ebp], ecx
  0000e	8d 45 08	 lea	 eax, DWORD PTR __Al$[ebp]
  00011	50		 push	 eax
  00012	8b 4d fc	 mov	 ecx, DWORD PTR _this$[ebp]
  00015	e8 00 00 00 00	 call	 ??0?$allocator@PAVCWnd@@@std@@QAE@ABV01@@Z ; std::allocator<CWnd *>::allocator<CWnd *>

; 22   : 		}

  0001a	8b 45 fc	 mov	 eax, DWORD PTR _this$[ebp]
  0001d	83 c4 04	 add	 esp, 4
  00020	3b ec		 cmp	 ebp, esp
  00022	e8 00 00 00 00	 call	 __RTC_CheckEsp
  00027	8b e5		 mov	 esp, ebp
  00029	5d		 pop	 ebp
  0002a	c2 04 00	 ret	 4
??0?$_Vector_val@PAVCWnd@@V?$allocator@PAVCWnd@@@std@@@std@@IAE@V?$allocator@PAVCWnd@@@1@@Z ENDP ; std::_Vector_val<CWnd *,std::allocator<CWnd *> >::_Vector_val<CWnd *,std::allocator<CWnd *> >
; Function compile flags: /Odt /RTCsu
; File d:\program files (x86)\microsoft visual studio .net 2003\vc7\include\xmemory
_TEXT	ENDS
;	COMDAT ??0?$allocator@PAVCWnd@@@std@@QAE@XZ
_TEXT	SEGMENT
_this$ = -4						; size = 4
??0?$allocator@PAVCWnd@@@std@@QAE@XZ PROC NEAR		; std::allocator<CWnd *>::allocator<CWnd *>, COMDAT
; _this$ = ecx

; 111  : 	allocator()

  00000	55		 push	 ebp
  00001	8b ec		 mov	 ebp, esp
  00003	51		 push	 ecx
  00004	c7 45 fc cc cc
	cc cc		 mov	 DWORD PTR [ebp-4], -858993460 ; ccccccccH
  0000b	89 4d fc	 mov	 DWORD PTR _this$[ebp], ecx

; 112  : 		{	// construct default allocator (do nothing)
; 113  : 		}

  0000e	8b 45 fc	 mov	 eax, DWORD PTR _this$[ebp]
  00011	8b e5		 mov	 esp, ebp
  00013	5d		 pop	 ebp
  00014	c3		 ret	 0
??0?$allocator@PAVCWnd@@@std@@QAE@XZ ENDP		; std::allocator<CWnd *>::allocator<CWnd *>
_TEXT	ENDS
PUBLIC	??0const_iterator@?$vector@PAVCWnd@@V?$allocator@PAVCWnd@@@std@@@std@@QAE@PAPAVCWnd@@@Z ; std::vector<CWnd *,std::allocator<CWnd *> >::const_iterator::const_iterator
; Function compile flags: /Odt /RTCsu
; File d:\program files (x86)\microsoft visual studio .net 2003\vc7\include\vector
;	COMDAT ??0iterator@?$vector@PAVCWnd@@V?$allocator@PAVCWnd@@@std@@@std@@QAE@PAPAVCWnd@@@Z
_TEXT	SEGMENT
_this$ = -4						; size = 4
__Ptr$ = 8						; size = 4
??0iterator@?$vector@PAVCWnd@@V?$allocator@PAVCWnd@@@std@@@std@@QAE@PAPAVCWnd@@@Z PROC NEAR ; std::vector<CWnd *,std::allocator<CWnd *> >::iterator::iterator, COMDAT
; _this$ = ecx

; 215  : 			{	// construct with pointer _Ptr

  00000	55		 push	 ebp
  00001	8b ec		 mov	 ebp, esp
  00003	51		 push	 ecx
  00004	c7 45 fc cc cc
	cc cc		 mov	 DWORD PTR [ebp-4], -858993460 ; ccccccccH
  0000b	89 4d fc	 mov	 DWORD PTR _this$[ebp], ecx
  0000e	8b 45 08	 mov	 eax, DWORD PTR __Ptr$[ebp]
  00011	50		 push	 eax
  00012	8b 4d fc	 mov	 ecx, DWORD PTR _this$[ebp]
  00015	e8 00 00 00 00	 call	 ??0const_iterator@?$vector@PAVCWnd@@V?$allocator@PAVCWnd@@@std@@@std@@QAE@PAPAVCWnd@@@Z ; std::vector<CWnd *,std::allocator<CWnd *> >::const_iterator::const_iterator

; 216  : 			}

  0001a	8b 45 fc	 mov	 eax, DWORD PTR _this$[ebp]
  0001d	83 c4 04	 add	 esp, 4
  00020	3b ec		 cmp	 ebp, esp
  00022	e8 00 00 00 00	 call	 __RTC_CheckEsp
  00027	8b e5		 mov	 esp, ebp
  00029	5d		 pop	 ebp
  0002a	c2 04 00	 ret	 4
??0iterator@?$vector@PAVCWnd@@V?$allocator@PAVCWnd@@@std@@@std@@QAE@PAPAVCWnd@@@Z ENDP ; std::vector<CWnd *,std::allocator<CWnd *> >::iterator::iterator
; Function compile flags: /Odt /RTCsu
_TEXT	ENDS
;	COMDAT ??Eiterator@?$vector@PAVCWnd@@V?$allocator@PAVCWnd@@@std@@@std@@QAEAAV012@XZ
_TEXT	SEGMENT
_this$ = -4						; size = 4
??Eiterator@?$vector@PAVCWnd@@V?$allocator@PAVCWnd@@@std@@@std@@QAEAAV012@XZ PROC NEAR ; std::vector<CWnd *,std::allocator<CWnd *> >::iterator::operator++, COMDAT
; _this$ = ecx

; 229  : 			{	// preincrement

  00000	55		 push	 ebp
  00001	8b ec		 mov	 ebp, esp
  00003	51		 push	 ecx
  00004	c7 45 fc cc cc
	cc cc		 mov	 DWORD PTR [ebp-4], -858993460 ; ccccccccH
  0000b	89 4d fc	 mov	 DWORD PTR _this$[ebp], ecx

; 230  : 			++this->_Myptr;

  0000e	8b 45 fc	 mov	 eax, DWORD PTR _this$[ebp]
  00011	8b 08		 mov	 ecx, DWORD PTR [eax]
  00013	83 c1 04	 add	 ecx, 4
  00016	8b 55 fc	 mov	 edx, DWORD PTR _this$[ebp]
  00019	89 0a		 mov	 DWORD PTR [edx], ecx

; 231  : 			return (*this);

  0001b	8b 45 fc	 mov	 eax, DWORD PTR _this$[ebp]

; 232  : 			}

  0001e	8b e5		 mov	 esp, ebp
  00020	5d		 pop	 ebp
  00021	c3		 ret	 0
??Eiterator@?$vector@PAVCWnd@@V?$allocator@PAVCWnd@@@std@@@std@@QAEAAV012@XZ ENDP ; std::vector<CWnd *,std::allocator<CWnd *> >::iterator::operator++
; Function compile flags: /Odt /RTCsu
_TEXT	ENDS
;	COMDAT ??Dconst_iterator@?$vector@PAVCWnd@@V?$allocator@PAVCWnd@@@std@@@std@@QBEABQAVCWnd@@XZ
_TEXT	SEGMENT
_this$ = -4						; size = 4
??Dconst_iterator@?$vector@PAVCWnd@@V?$allocator@PAVCWnd@@@std@@@std@@QBEABQAVCWnd@@XZ PROC NEAR ; std::vector<CWnd *,std::allocator<CWnd *> >::const_iterator::operator*, COMDAT
; _this$ = ecx

; 79   : 			{	// return designated object

  00000	55		 push	 ebp
  00001	8b ec		 mov	 ebp, esp
  00003	51		 push	 ecx
  00004	c7 45 fc cc cc
	cc cc		 mov	 DWORD PTR [ebp-4], -858993460 ; ccccccccH
  0000b	89 4d fc	 mov	 DWORD PTR _this$[ebp], ecx

; 80   : 
; 81   : 
; 82   : 			return (*_Myptr);

  0000e	8b 45 fc	 mov	 eax, DWORD PTR _this$[ebp]
  00011	8b 00		 mov	 eax, DWORD PTR [eax]

; 83   : 			}

  00013	8b e5		 mov	 esp, ebp
  00015	5d		 pop	 ebp
  00016	c3		 ret	 0
??Dconst_iterator@?$vector@PAVCWnd@@V?$allocator@PAVCWnd@@@std@@@std@@QBEABQAVCWnd@@XZ ENDP ; std::vector<CWnd *,std::allocator<CWnd *> >::const_iterator::operator*
; Function compile flags: /Odt /RTCsu
_TEXT	ENDS
;	COMDAT ??8const_iterator@?$vector@PAVCWnd@@V?$allocator@PAVCWnd@@@std@@@std@@QBE_NABV012@@Z
_TEXT	SEGMENT
_this$ = -4						; size = 4
__Right$ = 8						; size = 4
??8const_iterator@?$vector@PAVCWnd@@V?$allocator@PAVCWnd@@@std@@@std@@QBE_NABV012@@Z PROC NEAR ; std::vector<CWnd *,std::allocator<CWnd *> >::const_iterator::operator==, COMDAT
; _this$ = ecx

; 152  : 			{	// test for iterator equality

  00000	55		 push	 ebp
  00001	8b ec		 mov	 ebp, esp
  00003	51		 push	 ecx
  00004	c7 45 fc cc cc
	cc cc		 mov	 DWORD PTR [ebp-4], -858993460 ; ccccccccH
  0000b	89 4d fc	 mov	 DWORD PTR _this$[ebp], ecx

; 153  : 
; 154  : 
; 155  : 			return (_Myptr == _Right._Myptr);

  0000e	8b 45 fc	 mov	 eax, DWORD PTR _this$[ebp]
  00011	8b 4d 08	 mov	 ecx, DWORD PTR __Right$[ebp]
  00014	8b 00		 mov	 eax, DWORD PTR [eax]
  00016	2b 01		 sub	 eax, DWORD PTR [ecx]
  00018	f7 d8		 neg	 eax
  0001a	1b c0		 sbb	 eax, eax
  0001c	40		 inc	 eax

; 156  : 			}

  0001d	8b e5		 mov	 esp, ebp
  0001f	5d		 pop	 ebp
  00020	c2 04 00	 ret	 4
??8const_iterator@?$vector@PAVCWnd@@V?$allocator@PAVCWnd@@@std@@@std@@QBE_NABV012@@Z ENDP ; std::vector<CWnd *,std::allocator<CWnd *> >::const_iterator::operator==
_TEXT	ENDS
PUBLIC	?max_size@?$allocator@PAVCWnd@@@std@@QBEIXZ	; std::allocator<CWnd *>::max_size
; Function compile flags: /Odt /RTCsu
;	COMDAT ?max_size@?$vector@PAVCWnd@@V?$allocator@PAVCWnd@@@std@@@std@@QBEIXZ
_TEXT	SEGMENT
_this$ = -4						; size = 4
?max_size@?$vector@PAVCWnd@@V?$allocator@PAVCWnd@@@std@@@std@@QBEIXZ PROC NEAR ; std::vector<CWnd *,std::allocator<CWnd *> >::max_size, COMDAT
; _this$ = ecx

; 520  : 		{	// return maximum possible length of sequence

  00000	55		 push	 ebp
  00001	8b ec		 mov	 ebp, esp
  00003	51		 push	 ecx
  00004	c7 45 fc cc cc
	cc cc		 mov	 DWORD PTR [ebp-4], -858993460 ; ccccccccH
  0000b	89 4d fc	 mov	 DWORD PTR _this$[ebp], ecx

; 521  : 		return (this->_Alval.max_size());

  0000e	8b 4d fc	 mov	 ecx, DWORD PTR _this$[ebp]
  00011	e8 00 00 00 00	 call	 ?max_size@?$allocator@PAVCWnd@@@std@@QBEIXZ ; std::allocator<CWnd *>::max_size

; 522  : 		}

  00016	83 c4 04	 add	 esp, 4
  00019	3b ec		 cmp	 ebp, esp
  0001b	e8 00 00 00 00	 call	 __RTC_CheckEsp
  00020	8b e5		 mov	 esp, ebp
  00022	5d		 pop	 ebp
  00023	c3		 ret	 0
?max_size@?$vector@PAVCWnd@@V?$allocator@PAVCWnd@@@std@@@std@@QBEIXZ ENDP ; std::vector<CWnd *,std::allocator<CWnd *> >::max_size
_TEXT	ENDS
PUBLIC	??_R0?AVlogic_error@std@@@8			; std::logic_error `RTTI Type Descriptor'
PUBLIC	__CT??_R0?AVlogic_error@std@@@8??0logic_error@std@@QAE@ABV01@@Z40
PUBLIC	??_R0?AVexception@@@8				; exception `RTTI Type Descriptor'
PUBLIC	__CT??_R0?AVexception@@@8??0exception@@QAE@ABV0@@Z12
PUBLIC	??_R0?AVlength_error@std@@@8			; std::length_error `RTTI Type Descriptor'
PUBLIC	??0logic_error@std@@QAE@ABV01@@Z		; std::logic_error::logic_error
PUBLIC	??0length_error@std@@QAE@ABV?$basic_string@DU?$char_traits@D@std@@V?$allocator@D@2@@1@@Z ; std::length_error::length_error
PUBLIC	??1length_error@std@@UAE@XZ			; std::length_error::~length_error
PUBLIC	??0length_error@std@@QAE@ABV01@@Z		; std::length_error::length_error
PUBLIC	__TI3?AVlength_error@std@@
PUBLIC	__CTA3?AVlength_error@std@@
PUBLIC	__CT??_R0?AVlength_error@std@@@8??0length_error@std@@QAE@ABV01@@Z40
PUBLIC	??_C@_0BD@OLBABOEK@vector?$DMT?$DO?5too?5long?$AA@ ; `string'
EXTRN	??0exception@@QAE@ABV0@@Z:NEAR			; exception::exception
EXTRN	__imp_??0?$basic_string@DU?$char_traits@D@std@@V?$allocator@D@2@@std@@QAE@PBD@Z:NEAR
EXTRN	__imp_??1?$basic_string@DU?$char_traits@D@std@@V?$allocator@D@2@@std@@QAE@XZ:NEAR
EXTRN	__CxxThrowException@8:NEAR
;	COMDAT xdata$x
xdata$x	SEGMENT
$T192326 DD	0ffffffffH
	DD	FLAT:$L192322
$T192324 DD	019930520H
	DD	01H
	DD	FLAT:$T192326
	DD	2 DUP(00H)
	DD	2 DUP(00H)
xdata$x	ENDS
;	COMDAT ??_C@_0BD@OLBABOEK@vector?$DMT?$DO?5too?5long?$AA@
CONST	SEGMENT
??_C@_0BD@OLBABOEK@vector?$DMT?$DO?5too?5long?$AA@ DB 'vector<T> too long'
	DB	00H						; `string'
CONST	ENDS
;	COMDAT __TI3?AVlength_error@std@@
xdata$x	SEGMENT
__TI3?AVlength_error@std@@ DD 00H
	DD	FLAT:??1length_error@std@@UAE@XZ
	DD	00H
	DD	FLAT:__CTA3?AVlength_error@std@@
xdata$x	ENDS
;	COMDAT __CTA3?AVlength_error@std@@
xdata$x	SEGMENT
__CTA3?AVlength_error@std@@ DD 03H
	DD	FLAT:__CT??_R0?AVlength_error@std@@@8??0length_error@std@@QAE@ABV01@@Z40
	DD	FLAT:__CT??_R0?AVlogic_error@std@@@8??0logic_error@std@@QAE@ABV01@@Z40
	DD	FLAT:__CT??_R0?AVexception@@@8??0exception@@QAE@ABV0@@Z12
xdata$x	ENDS
;	COMDAT __CT??_R0?AVlength_error@std@@@8??0length_error@std@@QAE@ABV01@@Z40
xdata$x	SEGMENT
__CT??_R0?AVlength_error@std@@@8??0length_error@std@@QAE@ABV01@@Z40 DD 00H
	DD	FLAT:??_R0?AVlength_error@std@@@8
	DD	00H
	DD	0ffffffffH
	ORG $+4
	DD	028H
	DD	FLAT:??0length_error@std@@QAE@ABV01@@Z
xdata$x	ENDS
;	COMDAT ??_R0?AVlength_error@std@@@8
_DATA	SEGMENT
??_R0?AVlength_error@std@@@8 DD FLAT:??_7type_info@@6B@	; std::length_error `RTTI Type Descriptor'
	DD	00H
	DB	'.?AVlength_error@std@@', 00H
	ORG $-31
	DD	FLAT:??_7type_info@@6B@
	DD	00H
	DB	'.?AVlength_error@std@@', 00H
_DATA	ENDS
;	COMDAT __CT??_R0?AVlogic_error@std@@@8??0logic_error@std@@QAE@ABV01@@Z40
xdata$x	SEGMENT
__CT??_R0?AVlogic_error@std@@@8??0logic_error@std@@QAE@ABV01@@Z40 DD 00H
	DD	FLAT:??_R0?AVlogic_error@std@@@8
	DD	00H
	DD	0ffffffffH
	ORG $+4
	DD	028H
	DD	FLAT:??0logic_error@std@@QAE@ABV01@@Z
xdata$x	ENDS
;	COMDAT ??_R0?AVlogic_error@std@@@8
_DATA	SEGMENT
??_R0?AVlogic_error@std@@@8 DD FLAT:??_7type_info@@6B@	; std::logic_error `RTTI Type Descriptor'
	DD	00H
	DB	'.?AVlogic_error@std@@', 00H
	ORG $-30
	DD	FLAT:??_7type_info@@6B@
	DD	00H
	DB	'.?AVlogic_error@std@@', 00H
_DATA	ENDS
;	COMDAT __CT??_R0?AVexception@@@8??0exception@@QAE@ABV0@@Z12
xdata$x	SEGMENT
__CT??_R0?AVexception@@@8??0exception@@QAE@ABV0@@Z12 DD 00H
	DD	FLAT:??_R0?AVexception@@@8
	DD	00H
	DD	0ffffffffH
	ORG $+4
	DD	0cH
	DD	FLAT:??0exception@@QAE@ABV0@@Z
xdata$x	ENDS
;	COMDAT ??_R0?AVexception@@@8
_DATA	SEGMENT
??_R0?AVexception@@@8 DD FLAT:??_7type_info@@6B@	; exception `RTTI Type Descriptor'
	DD	00H
	DB	'.?AVexception@@', 00H
	ORG $-24
	DD	FLAT:??_7type_info@@6B@
	DD	00H
	DB	'.?AVexception@@', 00H
; Function compile flags: /Odt /RTCsu
_DATA	ENDS
;	COMDAT ?_Xlen@?$vector@PAVCWnd@@V?$allocator@PAVCWnd@@@std@@@std@@IBEXXZ
_TEXT	SEGMENT
$T192320 = -84						; size = 28
$T192319 = -56						; size = 40
_this$ = -16						; size = 4
__$EHRec$ = -12						; size = 12
?_Xlen@?$vector@PAVCWnd@@V?$allocator@PAVCWnd@@@std@@@std@@IBEXXZ PROC NEAR ; std::vector<CWnd *,std::allocator<CWnd *> >::_Xlen, COMDAT
; _this$ = ecx

; 883  : 		{	// report a length_error

  00000	55		 push	 ebp
  00001	8b ec		 mov	 ebp, esp
  00003	6a ff		 push	 -1
  00005	68 00 00 00 00	 push	 __ehhandler$?_Xlen@?$vector@PAVCWnd@@V?$allocator@PAVCWnd@@@std@@@std@@IBEXXZ
  0000a	64 a1 00 00 00
	00		 mov	 eax, DWORD PTR fs:__except_list
  00010	50		 push	 eax
  00011	64 89 25 00 00
	00 00		 mov	 DWORD PTR fs:__except_list, esp
  00018	83 ec 48	 sub	 esp, 72			; 00000048H
  0001b	56		 push	 esi
  0001c	57		 push	 edi
  0001d	51		 push	 ecx
  0001e	8d 7d ac	 lea	 edi, DWORD PTR [ebp-84]
  00021	b9 12 00 00 00	 mov	 ecx, 18			; 00000012H
  00026	b8 cc cc cc cc	 mov	 eax, -858993460		; ccccccccH
  0002b	f3 ab		 rep stosd
  0002d	59		 pop	 ecx
  0002e	89 4d f0	 mov	 DWORD PTR _this$[ebp], ecx

; 884  : 		_THROW(length_error, "vector<T> too long");

  00031	8b f4		 mov	 esi, esp
  00033	68 00 00 00 00	 push	 OFFSET FLAT:??_C@_0BD@OLBABOEK@vector?$DMT?$DO?5too?5long?$AA@
  00038	8d 4d ac	 lea	 ecx, DWORD PTR $T192320[ebp]
  0003b	ff 15 00 00 00
	00		 call	 DWORD PTR __imp_??0?$basic_string@DU?$char_traits@D@std@@V?$allocator@D@2@@std@@QAE@PBD@Z
  00041	3b f4		 cmp	 esi, esp
  00043	e8 00 00 00 00	 call	 __RTC_CheckEsp
  00048	c7 45 fc 00 00
	00 00		 mov	 DWORD PTR __$EHRec$[ebp+8], 0
  0004f	8d 45 ac	 lea	 eax, DWORD PTR $T192320[ebp]
  00052	50		 push	 eax
  00053	8d 4d c8	 lea	 ecx, DWORD PTR $T192319[ebp]
  00056	e8 00 00 00 00	 call	 ??0length_error@std@@QAE@ABV?$basic_string@DU?$char_traits@D@std@@V?$allocator@D@2@@1@@Z ; std::length_error::length_error
  0005b	68 00 00 00 00	 push	 OFFSET FLAT:__TI3?AVlength_error@std@@
  00060	8d 4d c8	 lea	 ecx, DWORD PTR $T192319[ebp]
  00063	51		 push	 ecx
  00064	e8 00 00 00 00	 call	 __CxxThrowException@8
$L192318:

; 885  : 		}

  00069	8b 4d f4	 mov	 ecx, DWORD PTR __$EHRec$[ebp]
  0006c	64 89 0d 00 00
	00 00		 mov	 DWORD PTR fs:__except_list, ecx
  00073	5f		 pop	 edi
  00074	5e		 pop	 esi
  00075	83 c4 54	 add	 esp, 84			; 00000054H
  00078	3b ec		 cmp	 ebp, esp
  0007a	e8 00 00 00 00	 call	 __RTC_CheckEsp
  0007f	8b e5		 mov	 esp, ebp
  00081	5d		 pop	 ebp
  00082	c3		 ret	 0
_TEXT	ENDS
;	COMDAT text$x
text$x	SEGMENT
$L192322:
  00000	8b f4		 mov	 esi, esp
  00002	8d 4d ac	 lea	 ecx, DWORD PTR $T192320[ebp]
  00005	ff 15 00 00 00
	00		 call	 DWORD PTR __imp_??1?$basic_string@DU?$char_traits@D@std@@V?$allocator@D@2@@std@@QAE@XZ
  0000b	3b f4		 cmp	 esi, esp
  0000d	e9 00 00 00 00	 jmp	 __RTC_CheckEsp
__ehhandler$?_Xlen@?$vector@PAVCWnd@@V?$allocator@PAVCWnd@@@std@@@std@@IBEXXZ:
  00012	b8 00 00 00 00	 mov	 eax, OFFSET FLAT:$T192324
  00017	e9 00 00 00 00	 jmp	 ___CxxFrameHandler
text$x	ENDS
?_Xlen@?$vector@PAVCWnd@@V?$allocator@PAVCWnd@@@std@@@std@@IBEXXZ ENDP ; std::vector<CWnd *,std::allocator<CWnd *> >::_Xlen
; Function compile flags: /Odt /RTCsu
; File d:\program files (x86)\microsoft visual studio .net 2003\vc7\include\xmemory
;	COMDAT ??0?$allocator@PAVCWnd@@@std@@QAE@ABV01@@Z
_TEXT	SEGMENT
_this$ = -4						; size = 4
___formal$ = 8						; size = 4
??0?$allocator@PAVCWnd@@@std@@QAE@ABV01@@Z PROC NEAR	; std::allocator<CWnd *>::allocator<CWnd *>, COMDAT
; _this$ = ecx

; 115  : 	allocator(const allocator<_Ty>&)

  00000	55		 push	 ebp
  00001	8b ec		 mov	 ebp, esp
  00003	51		 push	 ecx
  00004	c7 45 fc cc cc
	cc cc		 mov	 DWORD PTR [ebp-4], -858993460 ; ccccccccH
  0000b	89 4d fc	 mov	 DWORD PTR _this$[ebp], ecx

; 116  : 		{	// construct by copying (do nothing)
; 117  : 		}

  0000e	8b 45 fc	 mov	 eax, DWORD PTR _this$[ebp]
  00011	8b e5		 mov	 esp, ebp
  00013	5d		 pop	 ebp
  00014	c2 04 00	 ret	 4
??0?$allocator@PAVCWnd@@@std@@QAE@ABV01@@Z ENDP		; std::allocator<CWnd *>::allocator<CWnd *>
; Function compile flags: /Odt /RTCsu
_TEXT	ENDS
;	COMDAT ?deallocate@?$allocator@PAVCWnd@@@std@@QAEXPAPAVCWnd@@I@Z
_TEXT	SEGMENT
_this$ = -4						; size = 4
__Ptr$ = 8						; size = 4
___formal$ = 12						; size = 4
?deallocate@?$allocator@PAVCWnd@@@std@@QAEXPAPAVCWnd@@I@Z PROC NEAR ; std::allocator<CWnd *>::deallocate, COMDAT
; _this$ = ecx

; 131  : 		{	// deallocate object at _Ptr, ignore size

  00000	55		 push	 ebp
  00001	8b ec		 mov	 ebp, esp
  00003	51		 push	 ecx
  00004	c7 45 fc cc cc
	cc cc		 mov	 DWORD PTR [ebp-4], -858993460 ; ccccccccH
  0000b	89 4d fc	 mov	 DWORD PTR _this$[ebp], ecx

; 132  : 		operator delete(_Ptr);

  0000e	8b 45 08	 mov	 eax, DWORD PTR __Ptr$[ebp]
  00011	50		 push	 eax
  00012	e8 00 00 00 00	 call	 ??3@YAXPAX@Z		; operator delete
  00017	83 c4 04	 add	 esp, 4

; 133  : 		}

  0001a	83 c4 04	 add	 esp, 4
  0001d	3b ec		 cmp	 ebp, esp
  0001f	e8 00 00 00 00	 call	 __RTC_CheckEsp
  00024	8b e5		 mov	 esp, ebp
  00026	5d		 pop	 ebp
  00027	c2 08 00	 ret	 8
?deallocate@?$allocator@PAVCWnd@@@std@@QAEXPAPAVCWnd@@I@Z ENDP ; std::allocator<CWnd *>::deallocate
_TEXT	ENDS
PUBLIC	??$_Allocate@PAVCWnd@@@std@@YAPAPAVCWnd@@IPAPAV1@@Z ; std::_Allocate<CWnd *>
; Function compile flags: /Odt /RTCsu
;	COMDAT ?allocate@?$allocator@PAVCWnd@@@std@@QAEPAPAVCWnd@@I@Z
_TEXT	SEGMENT
_this$ = -4						; size = 4
__Count$ = 8						; size = 4
?allocate@?$allocator@PAVCWnd@@@std@@QAEPAPAVCWnd@@I@Z PROC NEAR ; std::allocator<CWnd *>::allocate, COMDAT
; _this$ = ecx

; 136  : 		{	// allocate array of _Count elements

  00000	55		 push	 ebp
  00001	8b ec		 mov	 ebp, esp
  00003	51		 push	 ecx
  00004	c7 45 fc cc cc
	cc cc		 mov	 DWORD PTR [ebp-4], -858993460 ; ccccccccH
  0000b	89 4d fc	 mov	 DWORD PTR _this$[ebp], ecx

; 137  : 		return (_Allocate(_Count, (pointer)0));

  0000e	6a 00		 push	 0
  00010	8b 45 08	 mov	 eax, DWORD PTR __Count$[ebp]
  00013	50		 push	 eax
  00014	e8 00 00 00 00	 call	 ??$_Allocate@PAVCWnd@@@std@@YAPAPAVCWnd@@IPAPAV1@@Z ; std::_Allocate<CWnd *>
  00019	83 c4 08	 add	 esp, 8

; 138  : 		}

  0001c	83 c4 04	 add	 esp, 4
  0001f	3b ec		 cmp	 ebp, esp
  00021	e8 00 00 00 00	 call	 __RTC_CheckEsp
  00026	8b e5		 mov	 esp, ebp
  00028	5d		 pop	 ebp
  00029	c2 04 00	 ret	 4
?allocate@?$allocator@PAVCWnd@@@std@@QAEPAPAVCWnd@@I@Z ENDP ; std::allocator<CWnd *>::allocate
; Function compile flags: /Odt /RTCsu
; File d:\program files (x86)\microsoft visual studio .net 2003\vc7\include\vector
_TEXT	ENDS
;	COMDAT ??0const_iterator@?$vector@PAVCWnd@@V?$allocator@PAVCWnd@@@std@@@std@@QAE@PAPAVCWnd@@@Z
_TEXT	SEGMENT
_this$ = -4						; size = 4
__Ptr$ = 8						; size = 4
??0const_iterator@?$vector@PAVCWnd@@V?$allocator@PAVCWnd@@@std@@@std@@QAE@PAPAVCWnd@@@Z PROC NEAR ; std::vector<CWnd *,std::allocator<CWnd *> >::const_iterator::const_iterator, COMDAT
; _this$ = ecx

; 73   : 		const_iterator(_Tptr _Ptr)

  00000	55		 push	 ebp
  00001	8b ec		 mov	 ebp, esp
  00003	51		 push	 ecx
  00004	c7 45 fc cc cc
	cc cc		 mov	 DWORD PTR [ebp-4], -858993460 ; ccccccccH
  0000b	89 4d fc	 mov	 DWORD PTR _this$[ebp], ecx

; 74   : 			{	// construct with pointer _Ptr
; 75   : 			_Myptr = _Ptr;

  0000e	8b 45 fc	 mov	 eax, DWORD PTR _this$[ebp]
  00011	8b 4d 08	 mov	 ecx, DWORD PTR __Ptr$[ebp]
  00014	89 08		 mov	 DWORD PTR [eax], ecx

; 76   : 			}

  00016	8b 45 fc	 mov	 eax, DWORD PTR _this$[ebp]
  00019	8b e5		 mov	 esp, ebp
  0001b	5d		 pop	 ebp
  0001c	c2 04 00	 ret	 4
??0const_iterator@?$vector@PAVCWnd@@V?$allocator@PAVCWnd@@@std@@@std@@QAE@PAPAVCWnd@@@Z ENDP ; std::vector<CWnd *,std::allocator<CWnd *> >::const_iterator::const_iterator
_TEXT	ENDS
PUBLIC	??_R1A@?0A@A@exception@@8			; exception::`RTTI Base Class Descriptor at (0,-1,0,0)'
PUBLIC	??_R1A@?0A@A@logic_error@std@@8			; std::logic_error::`RTTI Base Class Descriptor at (0,-1,0,0)'
PUBLIC	??_R4length_error@std@@6B@			; std::length_error::`RTTI Complete Object Locator'
PUBLIC	??_R3length_error@std@@8			; std::length_error::`RTTI Class Hierarchy Descriptor'
PUBLIC	??_R2length_error@std@@8			; std::length_error::`RTTI Base Class Array'
PUBLIC	??_R1A@?0A@A@length_error@std@@8		; std::length_error::`RTTI Base Class Descriptor at (0,-1,0,0)'
PUBLIC	?what@logic_error@std@@UBEPBDXZ			; std::logic_error::what
PUBLIC	??_7length_error@std@@6B@			; std::length_error::`vftable'
PUBLIC	??_Glength_error@std@@UAEPAXI@Z			; std::length_error::`scalar deleting destructor'
EXTRN	??_Elength_error@std@@UAEPAXI@Z:NEAR		; std::length_error::`vector deleting destructor'
;	COMDAT ??_7length_error@std@@6B@
CONST	SEGMENT
??_7length_error@std@@6B@ DD FLAT:??_R4length_error@std@@6B@ ; std::length_error::`vftable'
	DD	FLAT:??_Elength_error@std@@UAEPAXI@Z
	DD	FLAT:?what@logic_error@std@@UBEPBDXZ
CONST	ENDS
;	COMDAT ??_R4length_error@std@@6B@
rdata$r	SEGMENT
??_R4length_error@std@@6B@ DD 00H			; std::length_error::`RTTI Complete Object Locator'
	DD	00H
	DD	00H
	DD	FLAT:??_R0?AVlength_error@std@@@8
	DD	FLAT:??_R3length_error@std@@8
rdata$r	ENDS
;	COMDAT ??_R3length_error@std@@8
rdata$r	SEGMENT
??_R3length_error@std@@8 DD 00H				; std::length_error::`RTTI Class Hierarchy Descriptor'
	DD	00H
	DD	03H
	DD	FLAT:??_R2length_error@std@@8
rdata$r	ENDS
;	COMDAT ??_R2length_error@std@@8
rdata$r	SEGMENT
??_R2length_error@std@@8 DD FLAT:??_R1A@?0A@A@length_error@std@@8 ; std::length_error::`RTTI Base Class Array'
	DD	FLAT:??_R1A@?0A@A@logic_error@std@@8
	DD	FLAT:??_R1A@?0A@A@exception@@8
rdata$r	ENDS
;	COMDAT ??_R1A@?0A@A@length_error@std@@8
rdata$r	SEGMENT
??_R1A@?0A@A@length_error@std@@8 DD FLAT:??_R0?AVlength_error@std@@@8 ; std::length_error::`RTTI Base Class Descriptor at (0,-1,0,0)'
	DD	02H
	DD	00H
	DD	0ffffffffH
	DD	00H
	DD	00H
rdata$r	ENDS
;	COMDAT ??_R1A@?0A@A@logic_error@std@@8
rdata$r	SEGMENT
??_R1A@?0A@A@logic_error@std@@8 DD FLAT:??_R0?AVlogic_error@std@@@8 ; std::logic_error::`RTTI Base Class Descriptor at (0,-1,0,0)'
	DD	01H
	DD	00H
	DD	0ffffffffH
	DD	00H
	DD	00H
rdata$r	ENDS
;	COMDAT ??_R1A@?0A@A@exception@@8
rdata$r	SEGMENT
??_R1A@?0A@A@exception@@8 DD FLAT:??_R0?AVexception@@@8	; exception::`RTTI Base Class Descriptor at (0,-1,0,0)'
	DD	00H
	DD	00H
	DD	0ffffffffH
	DD	00H
	DD	00H
; Function compile flags: /Odt /RTCsu
rdata$r	ENDS
;	COMDAT ??0length_error@std@@QAE@ABV01@@Z
_TEXT	SEGMENT
_this$ = -4						; size = 4
___that$ = 8						; size = 4
??0length_error@std@@QAE@ABV01@@Z PROC NEAR		; std::length_error::length_error, COMDAT
; _this$ = ecx
  00000	55		 push	 ebp
  00001	8b ec		 mov	 ebp, esp
  00003	51		 push	 ecx
  00004	c7 45 fc cc cc
	cc cc		 mov	 DWORD PTR [ebp-4], -858993460 ; ccccccccH
  0000b	89 4d fc	 mov	 DWORD PTR _this$[ebp], ecx
  0000e	8b 45 08	 mov	 eax, DWORD PTR ___that$[ebp]
  00011	50		 push	 eax
  00012	8b 4d fc	 mov	 ecx, DWORD PTR _this$[ebp]
  00015	e8 00 00 00 00	 call	 ??0logic_error@std@@QAE@ABV01@@Z
  0001a	8b 4d fc	 mov	 ecx, DWORD PTR _this$[ebp]
  0001d	c7 01 00 00 00
	00		 mov	 DWORD PTR [ecx], OFFSET FLAT:??_7length_error@std@@6B@
  00023	8b 45 fc	 mov	 eax, DWORD PTR _this$[ebp]
  00026	83 c4 04	 add	 esp, 4
  00029	3b ec		 cmp	 ebp, esp
  0002b	e8 00 00 00 00	 call	 __RTC_CheckEsp
  00030	8b e5		 mov	 esp, ebp
  00032	5d		 pop	 ebp
  00033	c2 04 00	 ret	 4
??0length_error@std@@QAE@ABV01@@Z ENDP			; std::length_error::length_error
; Function compile flags: /Odt /RTCsu
; File d:\program files (x86)\microsoft visual studio .net 2003\vc7\include\xmemory
_TEXT	ENDS
;	COMDAT ?max_size@?$allocator@PAVCWnd@@@std@@QBEIXZ
_TEXT	SEGMENT
tv65 = -12						; size = 4
__Count$ = -8						; size = 4
_this$ = -4						; size = 4
?max_size@?$allocator@PAVCWnd@@@std@@QBEIXZ PROC NEAR	; std::allocator<CWnd *>::max_size, COMDAT
; _this$ = ecx

; 156  : 		{	// estimate maximum array size

  00000	55		 push	 ebp
  00001	8b ec		 mov	 ebp, esp
  00003	83 ec 0c	 sub	 esp, 12			; 0000000cH
  00006	c7 45 f4 cc cc
	cc cc		 mov	 DWORD PTR [ebp-12], -858993460 ; ccccccccH
  0000d	c7 45 f8 cc cc
	cc cc		 mov	 DWORD PTR [ebp-8], -858993460 ; ccccccccH
  00014	c7 45 fc cc cc
	cc cc		 mov	 DWORD PTR [ebp-4], -858993460 ; ccccccccH
  0001b	89 4d fc	 mov	 DWORD PTR _this$[ebp], ecx

; 157  : 		_SIZT _Count = (_SIZT)(-1) / sizeof (_Ty);

  0001e	c7 45 f8 ff ff
	ff 3f		 mov	 DWORD PTR __Count$[ebp], 1073741823 ; 3fffffffH

; 158  : 		return (0 < _Count ? _Count : 1);

  00025	83 7d f8 00	 cmp	 DWORD PTR __Count$[ebp], 0
  00029	76 08		 jbe	 SHORT $L192336
  0002b	8b 45 f8	 mov	 eax, DWORD PTR __Count$[ebp]
  0002e	89 45 f4	 mov	 DWORD PTR tv65[ebp], eax
  00031	eb 07		 jmp	 SHORT $L192337
$L192336:
  00033	c7 45 f4 01 00
	00 00		 mov	 DWORD PTR tv65[ebp], 1
$L192337:
  0003a	8b 45 f4	 mov	 eax, DWORD PTR tv65[ebp]

; 159  : 		}

  0003d	8b e5		 mov	 esp, ebp
  0003f	5d		 pop	 ebp
  00040	c3		 ret	 0
?max_size@?$allocator@PAVCWnd@@@std@@QBEIXZ ENDP	; std::allocator<CWnd *>::max_size
_TEXT	ENDS
PUBLIC	??$_Ptr_cat@VCWnd@@@std@@YA?AU_Scalar_ptr_iterator_tag@0@PAPAVCWnd@@0@Z ; std::_Ptr_cat<CWnd>
PUBLIC	??$_Copy_opt@PAPAVCWnd@@PAPAV1@@std@@YAPAPAVCWnd@@PAPAV1@00U_Scalar_ptr_iterator_tag@0@@Z ; std::_Copy_opt<CWnd * *,CWnd * *>
; Function compile flags: /Odt /RTCsu
; File d:\program files (x86)\microsoft visual studio .net 2003\vc7\include\xutility
;	COMDAT ??$copy@PAPAVCWnd@@PAPAV1@@std@@YAPAPAVCWnd@@PAPAV1@00@Z
_TEXT	SEGMENT
$T192339 = -1						; size = 1
__First$ = 8						; size = 4
__Last$ = 12						; size = 4
__Dest$ = 16						; size = 4
??$copy@PAPAVCWnd@@PAPAV1@@std@@YAPAPAVCWnd@@PAPAV1@00@Z PROC NEAR ; std::copy<CWnd * *,CWnd * *>, COMDAT

; 1039 : 	{	// copy [_First, _Last) to [_Dest, ...)

  00000	55		 push	 ebp
  00001	8b ec		 mov	 ebp, esp
  00003	51		 push	 ecx
  00004	c7 45 fc cc cc
	cc cc		 mov	 DWORD PTR [ebp-4], -858993460 ; ccccccccH

; 1040 : 	return (_Copy_opt(_First, _Last, _Dest, _Ptr_cat(_First, _Dest)));

  0000b	8b 45 10	 mov	 eax, DWORD PTR __Dest$[ebp]
  0000e	50		 push	 eax
  0000f	8b 4d 08	 mov	 ecx, DWORD PTR __First$[ebp]
  00012	51		 push	 ecx
  00013	e8 00 00 00 00	 call	 ??$_Ptr_cat@VCWnd@@@std@@YA?AU_Scalar_ptr_iterator_tag@0@PAPAVCWnd@@0@Z ; std::_Ptr_cat<CWnd>
  00018	83 c4 08	 add	 esp, 8
  0001b	88 45 ff	 mov	 BYTE PTR $T192339[ebp], al
  0001e	8a 55 ff	 mov	 dl, BYTE PTR $T192339[ebp]
  00021	52		 push	 edx
  00022	8b 45 10	 mov	 eax, DWORD PTR __Dest$[ebp]
  00025	50		 push	 eax
  00026	8b 4d 0c	 mov	 ecx, DWORD PTR __Last$[ebp]
  00029	51		 push	 ecx
  0002a	8b 55 08	 mov	 edx, DWORD PTR __First$[ebp]
  0002d	52		 push	 edx
  0002e	e8 00 00 00 00	 call	 ??$_Copy_opt@PAPAVCWnd@@PAPAV1@@std@@YAPAPAVCWnd@@PAPAV1@00U_Scalar_ptr_iterator_tag@0@@Z ; std::_Copy_opt<CWnd * *,CWnd * *>
  00033	83 c4 10	 add	 esp, 16			; 00000010H

; 1041 : 	}

  00036	83 c4 04	 add	 esp, 4
  00039	3b ec		 cmp	 ebp, esp
  0003b	e8 00 00 00 00	 call	 __RTC_CheckEsp
  00040	8b e5		 mov	 esp, ebp
  00042	5d		 pop	 ebp
  00043	c3		 ret	 0
??$copy@PAPAVCWnd@@PAPAV1@@std@@YAPAPAVCWnd@@PAPAV1@00@Z ENDP ; std::copy<CWnd * *,CWnd * *>
_TEXT	ENDS
PUBLIC	??$_Destroy_range@PAVCWnd@@V?$allocator@PAVCWnd@@@std@@@std@@YAXPAPAVCWnd@@0AAV?$allocator@PAVCWnd@@@0@U_Scalar_ptr_iterator_tag@0@@Z ; std::_Destroy_range<CWnd *,std::allocator<CWnd *> >
; Function compile flags: /Odt /RTCsu
; File d:\program files (x86)\microsoft visual studio .net 2003\vc7\include\xmemory
;	COMDAT ??$_Destroy_range@PAVCWnd@@V?$allocator@PAVCWnd@@@std@@@std@@YAXPAPAVCWnd@@0AAV?$allocator@PAVCWnd@@@0@@Z
_TEXT	SEGMENT
$T192341 = -1						; size = 1
__First$ = 8						; size = 4
__Last$ = 12						; size = 4
__Al$ = 16						; size = 4
??$_Destroy_range@PAVCWnd@@V?$allocator@PAVCWnd@@@std@@@std@@YAXPAPAVCWnd@@0AAV?$allocator@PAVCWnd@@@0@@Z PROC NEAR ; std::_Destroy_range<CWnd *,std::allocator<CWnd *> >, COMDAT

; 216  : 	{	// destroy [_First, _Last)

  00000	55		 push	 ebp
  00001	8b ec		 mov	 ebp, esp
  00003	51		 push	 ecx
  00004	c7 45 fc cc cc
	cc cc		 mov	 DWORD PTR [ebp-4], -858993460 ; ccccccccH

; 217  : 	_Destroy_range(_First, _Last, _Al, _Ptr_cat(_First, _Last));

  0000b	8b 45 0c	 mov	 eax, DWORD PTR __Last$[ebp]
  0000e	50		 push	 eax
  0000f	8b 4d 08	 mov	 ecx, DWORD PTR __First$[ebp]
  00012	51		 push	 ecx
  00013	e8 00 00 00 00	 call	 ??$_Ptr_cat@VCWnd@@@std@@YA?AU_Scalar_ptr_iterator_tag@0@PAPAVCWnd@@0@Z ; std::_Ptr_cat<CWnd>
  00018	83 c4 08	 add	 esp, 8
  0001b	88 45 ff	 mov	 BYTE PTR $T192341[ebp], al
  0001e	8a 55 ff	 mov	 dl, BYTE PTR $T192341[ebp]
  00021	52		 push	 edx
  00022	8b 45 10	 mov	 eax, DWORD PTR __Al$[ebp]
  00025	50		 push	 eax
  00026	8b 4d 0c	 mov	 ecx, DWORD PTR __Last$[ebp]
  00029	51		 push	 ecx
  0002a	8b 55 08	 mov	 edx, DWORD PTR __First$[ebp]
  0002d	52		 push	 edx
  0002e	e8 00 00 00 00	 call	 ??$_Destroy_range@PAVCWnd@@V?$allocator@PAVCWnd@@@std@@@std@@YAXPAPAVCWnd@@0AAV?$allocator@PAVCWnd@@@0@U_Scalar_ptr_iterator_tag@0@@Z ; std::_Destroy_range<CWnd *,std::allocator<CWnd *> >
  00033	83 c4 10	 add	 esp, 16			; 00000010H

; 218  : 	}

  00036	83 c4 04	 add	 esp, 4
  00039	3b ec		 cmp	 ebp, esp
  0003b	e8 00 00 00 00	 call	 __RTC_CheckEsp
  00040	8b e5		 mov	 esp, ebp
  00042	5d		 pop	 ebp
  00043	c3		 ret	 0
??$_Destroy_range@PAVCWnd@@V?$allocator@PAVCWnd@@@std@@@std@@YAXPAPAVCWnd@@0AAV?$allocator@PAVCWnd@@@0@@Z ENDP ; std::_Destroy_range<CWnd *,std::allocator<CWnd *> >
; Function compile flags: /Odt /RTCsu
_TEXT	ENDS
;	COMDAT ??$_Allocate@PAVCWnd@@@std@@YAPAPAVCWnd@@IPAPAV1@@Z
_TEXT	SEGMENT
__Count$ = 8						; size = 4
___formal$ = 12						; size = 4
??$_Allocate@PAVCWnd@@@std@@YAPAPAVCWnd@@IPAPAV1@@Z PROC NEAR ; std::_Allocate<CWnd *>, COMDAT

; 33   : 	{	// allocate storage for _Count elements of type _Ty

  00000	55		 push	 ebp
  00001	8b ec		 mov	 ebp, esp

; 34   : 	return ((_Ty _FARQ *)operator new(_Count * sizeof (_Ty)));

  00003	8b 45 08	 mov	 eax, DWORD PTR __Count$[ebp]
  00006	c1 e0 02	 shl	 eax, 2
  00009	50		 push	 eax
  0000a	e8 00 00 00 00	 call	 ??2@YAPAXI@Z		; operator new
  0000f	83 c4 04	 add	 esp, 4

; 35   : 	}

  00012	3b ec		 cmp	 ebp, esp
  00014	e8 00 00 00 00	 call	 __RTC_CheckEsp
  00019	5d		 pop	 ebp
  0001a	c3		 ret	 0
??$_Allocate@PAVCWnd@@@std@@YAPAPAVCWnd@@IPAPAV1@@Z ENDP ; std::_Allocate<CWnd *>
; Function compile flags: /Odt /RTCsu
; File d:\program files (x86)\microsoft visual studio .net 2003\vc7\include\xutility
_TEXT	ENDS
;	COMDAT ??$_Ptr_cat@VCWnd@@@std@@YA?AU_Scalar_ptr_iterator_tag@0@PAPAVCWnd@@0@Z
_TEXT	SEGMENT
__Cat$ = -5						; size = 1
___formal$ = 8						; size = 4
___formal$ = 12						; size = 4
??$_Ptr_cat@VCWnd@@@std@@YA?AU_Scalar_ptr_iterator_tag@0@PAPAVCWnd@@0@Z PROC NEAR ; std::_Ptr_cat<CWnd>, COMDAT

; 218  : 	{	// return pointer category from pointer to pointer arguments

  00000	55		 push	 ebp
  00001	8b ec		 mov	 ebp, esp
  00003	83 ec 0c	 sub	 esp, 12			; 0000000cH
  00006	c7 45 f4 cc cc
	cc cc		 mov	 DWORD PTR [ebp-12], -858993460 ; ccccccccH
  0000d	c7 45 f8 cc cc
	cc cc		 mov	 DWORD PTR [ebp-8], -858993460 ; ccccccccH
  00014	c7 45 fc cc cc
	cc cc		 mov	 DWORD PTR [ebp-4], -858993460 ; ccccccccH

; 219  : 	_Scalar_ptr_iterator_tag _Cat;
; 220  : 	return (_Cat);

  0001b	8a 45 fb	 mov	 al, BYTE PTR __Cat$[ebp]

; 221  : 	}

  0001e	52		 push	 edx
  0001f	8b cd		 mov	 ecx, ebp
  00021	50		 push	 eax
  00022	8d 15 00 00 00
	00		 lea	 edx, DWORD PTR $L192346
  00028	e8 00 00 00 00	 call	 @_RTC_CheckStackVars@8
  0002d	58		 pop	 eax
  0002e	5a		 pop	 edx
  0002f	8b e5		 mov	 esp, ebp
  00031	5d		 pop	 ebp
  00032	c3		 ret	 0
$L192346:
  00033	01 00 00 00	 DD	 1
  00037	00 00 00 00	 DD	 $L192345
$L192345:
  0003b	fb ff ff ff	 DD	 -5			; fffffffbH
  0003f	01 00 00 00	 DD	 1
  00043	00 00 00 00	 DD	 $L192344
$L192344:
  00047	5f		 DB	 95			; 0000005fH
  00048	43		 DB	 67			; 00000043H
  00049	61		 DB	 97			; 00000061H
  0004a	74		 DB	 116			; 00000074H
  0004b	00		 DB	 0
??$_Ptr_cat@VCWnd@@@std@@YA?AU_Scalar_ptr_iterator_tag@0@PAPAVCWnd@@0@Z ENDP ; std::_Ptr_cat<CWnd>
_TEXT	ENDS
EXTRN	__imp__memmove:NEAR
; Function compile flags: /Odt /RTCsu
;	COMDAT ??$_Copy_opt@PAPAVCWnd@@PAPAV1@@std@@YAPAPAVCWnd@@PAPAV1@00U_Scalar_ptr_iterator_tag@0@@Z
_TEXT	SEGMENT
__Off$ = -4						; size = 4
__First$ = 8						; size = 4
__Last$ = 12						; size = 4
__Dest$ = 16						; size = 4
___formal$ = 20						; size = 1
??$_Copy_opt@PAPAVCWnd@@PAPAV1@@std@@YAPAPAVCWnd@@PAPAV1@00U_Scalar_ptr_iterator_tag@0@@Z PROC NEAR ; std::_Copy_opt<CWnd * *,CWnd * *>, COMDAT

; 1030 : 	{	// copy [_First, _Last) to [_Dest, ...), pointers to scalars

  00000	55		 push	 ebp
  00001	8b ec		 mov	 ebp, esp
  00003	51		 push	 ecx
  00004	56		 push	 esi
  00005	c7 45 fc cc cc
	cc cc		 mov	 DWORD PTR [ebp-4], -858993460 ; ccccccccH

; 1031 : 	ptrdiff_t _Off = _Last - _First;	// NB: non-overlapping move

  0000c	8b 45 0c	 mov	 eax, DWORD PTR __Last$[ebp]
  0000f	2b 45 08	 sub	 eax, DWORD PTR __First$[ebp]
  00012	c1 f8 02	 sar	 eax, 2
  00015	89 45 fc	 mov	 DWORD PTR __Off$[ebp], eax

; 1032 : 	return ((_OutIt)::memmove(&*_Dest, &*_First,
; 1033 : 		_Off * sizeof (*_First)) + _Off);

  00018	8b 4d fc	 mov	 ecx, DWORD PTR __Off$[ebp]
  0001b	c1 e1 02	 shl	 ecx, 2
  0001e	8b f4		 mov	 esi, esp
  00020	51		 push	 ecx
  00021	8b 55 08	 mov	 edx, DWORD PTR __First$[ebp]
  00024	52		 push	 edx
  00025	8b 45 10	 mov	 eax, DWORD PTR __Dest$[ebp]
  00028	50		 push	 eax
  00029	ff 15 00 00 00
	00		 call	 DWORD PTR __imp__memmove
  0002f	83 c4 0c	 add	 esp, 12			; 0000000cH
  00032	3b f4		 cmp	 esi, esp
  00034	e8 00 00 00 00	 call	 __RTC_CheckEsp
  00039	8b 4d fc	 mov	 ecx, DWORD PTR __Off$[ebp]
  0003c	8d 04 88	 lea	 eax, DWORD PTR [eax+ecx*4]

; 1034 : 	}

  0003f	5e		 pop	 esi
  00040	83 c4 04	 add	 esp, 4
  00043	3b ec		 cmp	 ebp, esp
  00045	e8 00 00 00 00	 call	 __RTC_CheckEsp
  0004a	8b e5		 mov	 esp, ebp
  0004c	5d		 pop	 ebp
  0004d	c3		 ret	 0
??$_Copy_opt@PAPAVCWnd@@PAPAV1@@std@@YAPAPAVCWnd@@PAPAV1@00U_Scalar_ptr_iterator_tag@0@@Z ENDP ; std::_Copy_opt<CWnd * *,CWnd * *>
; Function compile flags: /Odt /RTCsu
; File d:\program files (x86)\microsoft visual studio .net 2003\vc7\include\xmemory
_TEXT	ENDS
;	COMDAT ??$_Destroy_range@PAVCWnd@@V?$allocator@PAVCWnd@@@std@@@std@@YAXPAPAVCWnd@@0AAV?$allocator@PAVCWnd@@@0@U_Scalar_ptr_iterator_tag@0@@Z
_TEXT	SEGMENT
__First$ = 8						; size = 4
__Last$ = 12						; size = 4
__Al$ = 16						; size = 4
___formal$ = 20						; size = 1
??$_Destroy_range@PAVCWnd@@V?$allocator@PAVCWnd@@@std@@@std@@YAXPAPAVCWnd@@0AAV?$allocator@PAVCWnd@@@0@U_Scalar_ptr_iterator_tag@0@@Z PROC NEAR ; std::_Destroy_range<CWnd *,std::allocator<CWnd *> >, COMDAT

; 233  : 	{	// destroy [_First, _Last), scalar type (do nothing)

  00000	55		 push	 ebp
  00001	8b ec		 mov	 ebp, esp

; 234  : 	}

  00003	5d		 pop	 ebp
  00004	c3		 ret	 0
??$_Destroy_range@PAVCWnd@@V?$allocator@PAVCWnd@@@std@@@std@@YAXPAPAVCWnd@@0AAV?$allocator@PAVCWnd@@@0@U_Scalar_ptr_iterator_tag@0@@Z ENDP ; std::_Destroy_range<CWnd *,std::allocator<CWnd *> >
_TEXT	ENDS
EXTRN	__imp_?c_str@?$basic_string@DU?$char_traits@D@std@@V?$allocator@D@2@@std@@QBEPBDXZ:NEAR
; Function compile flags: /Odt /RTCsu
; File d:\program files (x86)\microsoft visual studio .net 2003\vc7\include\stdexcept
;	COMDAT ?what@logic_error@std@@UBEPBDXZ
_TEXT	SEGMENT
_this$ = -4						; size = 4
?what@logic_error@std@@UBEPBDXZ PROC NEAR		; std::logic_error::what, COMDAT
; _this$ = ecx

; 26   : 		{	// return pointer to message string

  00000	55		 push	 ebp
  00001	8b ec		 mov	 ebp, esp
  00003	51		 push	 ecx
  00004	56		 push	 esi
  00005	c7 45 fc cc cc
	cc cc		 mov	 DWORD PTR [ebp-4], -858993460 ; ccccccccH
  0000c	89 4d fc	 mov	 DWORD PTR _this$[ebp], ecx

; 27   : 		return (_Str.c_str());

  0000f	8b 4d fc	 mov	 ecx, DWORD PTR _this$[ebp]
  00012	83 c1 0c	 add	 ecx, 12			; 0000000cH
  00015	8b f4		 mov	 esi, esp
  00017	ff 15 00 00 00
	00		 call	 DWORD PTR __imp_?c_str@?$basic_string@DU?$char_traits@D@std@@V?$allocator@D@2@@std@@QBEPBDXZ
  0001d	3b f4		 cmp	 esi, esp
  0001f	e8 00 00 00 00	 call	 __RTC_CheckEsp

; 28   : 		}

  00024	5e		 pop	 esi
  00025	83 c4 04	 add	 esp, 4
  00028	3b ec		 cmp	 ebp, esp
  0002a	e8 00 00 00 00	 call	 __RTC_CheckEsp
  0002f	8b e5		 mov	 esp, ebp
  00031	5d		 pop	 ebp
  00032	c3		 ret	 0
?what@logic_error@std@@UBEPBDXZ ENDP			; std::logic_error::what
_TEXT	ENDS
PUBLIC	??0logic_error@std@@QAE@ABV?$basic_string@DU?$char_traits@D@std@@V?$allocator@D@2@@1@@Z ; std::logic_error::logic_error
; Function compile flags: /Odt /RTCsu
;	COMDAT ??0length_error@std@@QAE@ABV?$basic_string@DU?$char_traits@D@std@@V?$allocator@D@2@@1@@Z
_TEXT	SEGMENT
_this$ = -4						; size = 4
__Message$ = 8						; size = 4
??0length_error@std@@QAE@ABV?$basic_string@DU?$char_traits@D@std@@V?$allocator@D@2@@1@@Z PROC NEAR ; std::length_error::length_error, COMDAT
; _this$ = ecx

; 95   : 		{	// construct from message string

  00000	55		 push	 ebp
  00001	8b ec		 mov	 ebp, esp
  00003	51		 push	 ecx
  00004	c7 45 fc cc cc
	cc cc		 mov	 DWORD PTR [ebp-4], -858993460 ; ccccccccH
  0000b	89 4d fc	 mov	 DWORD PTR _this$[ebp], ecx
  0000e	8b 45 08	 mov	 eax, DWORD PTR __Message$[ebp]
  00011	50		 push	 eax
  00012	8b 4d fc	 mov	 ecx, DWORD PTR _this$[ebp]
  00015	e8 00 00 00 00	 call	 ??0logic_error@std@@QAE@ABV?$basic_string@DU?$char_traits@D@std@@V?$allocator@D@2@@1@@Z ; std::logic_error::logic_error
  0001a	8b 4d fc	 mov	 ecx, DWORD PTR _this$[ebp]
  0001d	c7 01 00 00 00
	00		 mov	 DWORD PTR [ecx], OFFSET FLAT:??_7length_error@std@@6B@

; 96   : 		}

  00023	8b 45 fc	 mov	 eax, DWORD PTR _this$[ebp]
  00026	83 c4 04	 add	 esp, 4
  00029	3b ec		 cmp	 ebp, esp
  0002b	e8 00 00 00 00	 call	 __RTC_CheckEsp
  00030	8b e5		 mov	 esp, ebp
  00032	5d		 pop	 ebp
  00033	c2 04 00	 ret	 4
??0length_error@std@@QAE@ABV?$basic_string@DU?$char_traits@D@std@@V?$allocator@D@2@@1@@Z ENDP ; std::length_error::length_error
_TEXT	ENDS
PUBLIC	??_7logic_error@std@@6B@			; std::logic_error::`vftable'
PUBLIC	??_Glogic_error@std@@UAEPAXI@Z			; std::logic_error::`scalar deleting destructor'
PUBLIC	??_R4logic_error@std@@6B@			; std::logic_error::`RTTI Complete Object Locator'
PUBLIC	??_R3logic_error@std@@8				; std::logic_error::`RTTI Class Hierarchy Descriptor'
PUBLIC	??_R2logic_error@std@@8				; std::logic_error::`RTTI Base Class Array'
EXTRN	__imp_??0exception@@QAE@XZ:NEAR
EXTRN	__imp_??1exception@@UAE@XZ:NEAR
EXTRN	__imp_??0?$basic_string@DU?$char_traits@D@std@@V?$allocator@D@2@@std@@QAE@ABV01@@Z:NEAR
EXTRN	??_Elogic_error@std@@UAEPAXI@Z:NEAR		; std::logic_error::`vector deleting destructor'
;	COMDAT xdata$x
xdata$x	SEGMENT
$T192358 DD	0ffffffffH
	DD	FLAT:$L192353
$T192356 DD	019930520H
	DD	01H
	DD	FLAT:$T192358
	DD	2 DUP(00H)
	DD	2 DUP(00H)
xdata$x	ENDS
;	COMDAT ??_7logic_error@std@@6B@
CONST	SEGMENT
??_7logic_error@std@@6B@ DD FLAT:??_R4logic_error@std@@6B@ ; std::logic_error::`vftable'
	DD	FLAT:??_Elogic_error@std@@UAEPAXI@Z
	DD	FLAT:?what@logic_error@std@@UBEPBDXZ
CONST	ENDS
;	COMDAT ??_R4logic_error@std@@6B@
rdata$r	SEGMENT
??_R4logic_error@std@@6B@ DD 00H			; std::logic_error::`RTTI Complete Object Locator'
	DD	00H
	DD	00H
	DD	FLAT:??_R0?AVlogic_error@std@@@8
	DD	FLAT:??_R3logic_error@std@@8
rdata$r	ENDS
;	COMDAT ??_R3logic_error@std@@8
rdata$r	SEGMENT
??_R3logic_error@std@@8 DD 00H				; std::logic_error::`RTTI Class Hierarchy Descriptor'
	DD	00H
	DD	02H
	DD	FLAT:??_R2logic_error@std@@8
rdata$r	ENDS
;	COMDAT ??_R2logic_error@std@@8
rdata$r	SEGMENT
??_R2logic_error@std@@8 DD FLAT:??_R1A@?0A@A@logic_error@std@@8 ; std::logic_error::`RTTI Base Class Array'
	DD	FLAT:??_R1A@?0A@A@exception@@8
; Function compile flags: /Odt /RTCsu
rdata$r	ENDS
;	COMDAT ??0logic_error@std@@QAE@ABV?$basic_string@DU?$char_traits@D@std@@V?$allocator@D@2@@1@@Z
_TEXT	SEGMENT
_this$ = -16						; size = 4
__$EHRec$ = -12						; size = 12
__Message$ = 8						; size = 4
??0logic_error@std@@QAE@ABV?$basic_string@DU?$char_traits@D@std@@V?$allocator@D@2@@1@@Z PROC NEAR ; std::logic_error::logic_error, COMDAT
; _this$ = ecx

; 19   : 		{	// construct from message string

  00000	55		 push	 ebp
  00001	8b ec		 mov	 ebp, esp
  00003	6a ff		 push	 -1
  00005	68 00 00 00 00	 push	 __ehhandler$??0logic_error@std@@QAE@ABV?$basic_string@DU?$char_traits@D@std@@V?$allocator@D@2@@1@@Z
  0000a	64 a1 00 00 00
	00		 mov	 eax, DWORD PTR fs:__except_list
  00010	50		 push	 eax
  00011	64 89 25 00 00
	00 00		 mov	 DWORD PTR fs:__except_list, esp
  00018	51		 push	 ecx
  00019	56		 push	 esi
  0001a	c7 45 f0 cc cc
	cc cc		 mov	 DWORD PTR [ebp-16], -858993460 ; ccccccccH
  00021	89 4d f0	 mov	 DWORD PTR _this$[ebp], ecx
  00024	8b f4		 mov	 esi, esp
  00026	8b 4d f0	 mov	 ecx, DWORD PTR _this$[ebp]
  00029	ff 15 00 00 00
	00		 call	 DWORD PTR __imp_??0exception@@QAE@XZ
  0002f	3b f4		 cmp	 esi, esp
  00031	e8 00 00 00 00	 call	 __RTC_CheckEsp
  00036	c7 45 fc 00 00
	00 00		 mov	 DWORD PTR __$EHRec$[ebp+8], 0
  0003d	8b 45 f0	 mov	 eax, DWORD PTR _this$[ebp]
  00040	c7 00 00 00 00
	00		 mov	 DWORD PTR [eax], OFFSET FLAT:??_7logic_error@std@@6B@
  00046	8b f4		 mov	 esi, esp
  00048	8b 4d 08	 mov	 ecx, DWORD PTR __Message$[ebp]
  0004b	51		 push	 ecx
  0004c	8b 4d f0	 mov	 ecx, DWORD PTR _this$[ebp]
  0004f	83 c1 0c	 add	 ecx, 12			; 0000000cH
  00052	ff 15 00 00 00
	00		 call	 DWORD PTR __imp_??0?$basic_string@DU?$char_traits@D@std@@V?$allocator@D@2@@std@@QAE@ABV01@@Z
  00058	3b f4		 cmp	 esi, esp
  0005a	e8 00 00 00 00	 call	 __RTC_CheckEsp

; 20   : 		}

  0005f	c7 45 fc ff ff
	ff ff		 mov	 DWORD PTR __$EHRec$[ebp+8], -1
  00066	8b 45 f0	 mov	 eax, DWORD PTR _this$[ebp]
  00069	8b 4d f4	 mov	 ecx, DWORD PTR __$EHRec$[ebp]
  0006c	64 89 0d 00 00
	00 00		 mov	 DWORD PTR fs:__except_list, ecx
  00073	5e		 pop	 esi
  00074	83 c4 10	 add	 esp, 16			; 00000010H
  00077	3b ec		 cmp	 ebp, esp
  00079	e8 00 00 00 00	 call	 __RTC_CheckEsp
  0007e	8b e5		 mov	 esp, ebp
  00080	5d		 pop	 ebp
  00081	c2 04 00	 ret	 4
_TEXT	ENDS
;	COMDAT text$x
text$x	SEGMENT
$L192353:
  00000	8b f4		 mov	 esi, esp
  00002	8b 4d f0	 mov	 ecx, DWORD PTR _this$[ebp]
  00005	ff 15 00 00 00
	00		 call	 DWORD PTR __imp_??1exception@@UAE@XZ
  0000b	3b f4		 cmp	 esi, esp
  0000d	e9 00 00 00 00	 jmp	 __RTC_CheckEsp
__ehhandler$??0logic_error@std@@QAE@ABV?$basic_string@DU?$char_traits@D@std@@V?$allocator@D@2@@1@@Z:
  00012	b8 00 00 00 00	 mov	 eax, OFFSET FLAT:$T192356
  00017	e9 00 00 00 00	 jmp	 ___CxxFrameHandler
text$x	ENDS
??0logic_error@std@@QAE@ABV?$basic_string@DU?$char_traits@D@std@@V?$allocator@D@2@@1@@Z ENDP ; std::logic_error::logic_error
PUBLIC	??1logic_error@std@@UAE@XZ			; std::logic_error::~logic_error
; Function compile flags: /Odt /RTCsu
;	COMDAT ??_Glogic_error@std@@UAEPAXI@Z
_TEXT	SEGMENT
_this$ = -4						; size = 4
___flags$ = 8						; size = 4
??_Glogic_error@std@@UAEPAXI@Z PROC NEAR		; std::logic_error::`scalar deleting destructor', COMDAT
; _this$ = ecx
  00000	55		 push	 ebp
  00001	8b ec		 mov	 ebp, esp
  00003	51		 push	 ecx
  00004	c7 45 fc cc cc
	cc cc		 mov	 DWORD PTR [ebp-4], -858993460 ; ccccccccH
  0000b	89 4d fc	 mov	 DWORD PTR _this$[ebp], ecx
  0000e	8b 4d fc	 mov	 ecx, DWORD PTR _this$[ebp]
  00011	e8 00 00 00 00	 call	 ??1logic_error@std@@UAE@XZ ; std::logic_error::~logic_error
  00016	8b 45 08	 mov	 eax, DWORD PTR ___flags$[ebp]
  00019	83 e0 01	 and	 eax, 1
  0001c	74 0c		 je	 SHORT $L91647
  0001e	8b 4d fc	 mov	 ecx, DWORD PTR _this$[ebp]
  00021	51		 push	 ecx
  00022	e8 00 00 00 00	 call	 ??3@YAXPAX@Z		; operator delete
  00027	83 c4 04	 add	 esp, 4
$L91647:
  0002a	8b 45 fc	 mov	 eax, DWORD PTR _this$[ebp]
  0002d	83 c4 04	 add	 esp, 4
  00030	3b ec		 cmp	 ebp, esp
  00032	e8 00 00 00 00	 call	 __RTC_CheckEsp
  00037	8b e5		 mov	 esp, ebp
  00039	5d		 pop	 ebp
  0003a	c2 04 00	 ret	 4
??_Glogic_error@std@@UAEPAXI@Z ENDP			; std::logic_error::`scalar deleting destructor'
_TEXT	ENDS
;	COMDAT xdata$x
xdata$x	SEGMENT
$T192368 DD	0ffffffffH
	DD	FLAT:$L192363
$T192366 DD	019930520H
	DD	01H
	DD	FLAT:$T192368
	DD	2 DUP(00H)
	DD	2 DUP(00H)
; Function compile flags: /Odt /RTCsu
xdata$x	ENDS
;	COMDAT ??1logic_error@std@@UAE@XZ
_TEXT	SEGMENT
_this$ = -16						; size = 4
__$EHRec$ = -12						; size = 12
??1logic_error@std@@UAE@XZ PROC NEAR			; std::logic_error::~logic_error, COMDAT
; _this$ = ecx

; 23   : 		{}	// destroy the object

  00000	55		 push	 ebp
  00001	8b ec		 mov	 ebp, esp
  00003	6a ff		 push	 -1
  00005	68 00 00 00 00	 push	 __ehhandler$??1logic_error@std@@UAE@XZ
  0000a	64 a1 00 00 00
	00		 mov	 eax, DWORD PTR fs:__except_list
  00010	50		 push	 eax
  00011	64 89 25 00 00
	00 00		 mov	 DWORD PTR fs:__except_list, esp
  00018	51		 push	 ecx
  00019	56		 push	 esi
  0001a	c7 45 f0 cc cc
	cc cc		 mov	 DWORD PTR [ebp-16], -858993460 ; ccccccccH
  00021	89 4d f0	 mov	 DWORD PTR _this$[ebp], ecx
  00024	8b 45 f0	 mov	 eax, DWORD PTR _this$[ebp]
  00027	c7 00 00 00 00
	00		 mov	 DWORD PTR [eax], OFFSET FLAT:??_7logic_error@std@@6B@
  0002d	c7 45 fc 00 00
	00 00		 mov	 DWORD PTR __$EHRec$[ebp+8], 0
  00034	8b 4d f0	 mov	 ecx, DWORD PTR _this$[ebp]
  00037	83 c1 0c	 add	 ecx, 12			; 0000000cH
  0003a	8b f4		 mov	 esi, esp
  0003c	ff 15 00 00 00
	00		 call	 DWORD PTR __imp_??1?$basic_string@DU?$char_traits@D@std@@V?$allocator@D@2@@std@@QAE@XZ
  00042	3b f4		 cmp	 esi, esp
  00044	e8 00 00 00 00	 call	 __RTC_CheckEsp
  00049	c7 45 fc ff ff
	ff ff		 mov	 DWORD PTR __$EHRec$[ebp+8], -1
  00050	8b f4		 mov	 esi, esp
  00052	8b 4d f0	 mov	 ecx, DWORD PTR _this$[ebp]
  00055	ff 15 00 00 00
	00		 call	 DWORD PTR __imp_??1exception@@UAE@XZ
  0005b	3b f4		 cmp	 esi, esp
  0005d	e8 00 00 00 00	 call	 __RTC_CheckEsp
  00062	8b 4d f4	 mov	 ecx, DWORD PTR __$EHRec$[ebp]
  00065	64 89 0d 00 00
	00 00		 mov	 DWORD PTR fs:__except_list, ecx
  0006c	5e		 pop	 esi
  0006d	83 c4 10	 add	 esp, 16			; 00000010H
  00070	3b ec		 cmp	 ebp, esp
  00072	e8 00 00 00 00	 call	 __RTC_CheckEsp
  00077	8b e5		 mov	 esp, ebp
  00079	5d		 pop	 ebp
  0007a	c3		 ret	 0
_TEXT	ENDS
;	COMDAT text$x
text$x	SEGMENT
$L192363:
  00000	8b f4		 mov	 esi, esp
  00002	8b 4d f0	 mov	 ecx, DWORD PTR _this$[ebp]
  00005	ff 15 00 00 00
	00		 call	 DWORD PTR __imp_??1exception@@UAE@XZ
  0000b	3b f4		 cmp	 esi, esp
  0000d	e9 00 00 00 00	 jmp	 __RTC_CheckEsp
__ehhandler$??1logic_error@std@@UAE@XZ:
  00012	b8 00 00 00 00	 mov	 eax, OFFSET FLAT:$T192366
  00017	e9 00 00 00 00	 jmp	 ___CxxFrameHandler
text$x	ENDS
??1logic_error@std@@UAE@XZ ENDP				; std::logic_error::~logic_error
; Function compile flags: /Odt /RTCsu
;	COMDAT ??1length_error@std@@UAE@XZ
_TEXT	SEGMENT
_this$ = -4						; size = 4
??1length_error@std@@UAE@XZ PROC NEAR			; std::length_error::~length_error, COMDAT
; _this$ = ecx

; 99   : 		{}	// destroy the object

  00000	55		 push	 ebp
  00001	8b ec		 mov	 ebp, esp
  00003	51		 push	 ecx
  00004	c7 45 fc cc cc
	cc cc		 mov	 DWORD PTR [ebp-4], -858993460 ; ccccccccH
  0000b	89 4d fc	 mov	 DWORD PTR _this$[ebp], ecx
  0000e	8b 45 fc	 mov	 eax, DWORD PTR _this$[ebp]
  00011	c7 00 00 00 00
	00		 mov	 DWORD PTR [eax], OFFSET FLAT:??_7length_error@std@@6B@
  00017	8b 4d fc	 mov	 ecx, DWORD PTR _this$[ebp]
  0001a	e8 00 00 00 00	 call	 ??1logic_error@std@@UAE@XZ ; std::logic_error::~logic_error
  0001f	83 c4 04	 add	 esp, 4
  00022	3b ec		 cmp	 ebp, esp
  00024	e8 00 00 00 00	 call	 __RTC_CheckEsp
  00029	8b e5		 mov	 esp, ebp
  0002b	5d		 pop	 ebp
  0002c	c3		 ret	 0
??1length_error@std@@UAE@XZ ENDP			; std::length_error::~length_error
; Function compile flags: /Odt /RTCsu
_TEXT	ENDS
;	COMDAT ??_Glength_error@std@@UAEPAXI@Z
_TEXT	SEGMENT
_this$ = -4						; size = 4
___flags$ = 8						; size = 4
??_Glength_error@std@@UAEPAXI@Z PROC NEAR		; std::length_error::`scalar deleting destructor', COMDAT
; _this$ = ecx
  00000	55		 push	 ebp
  00001	8b ec		 mov	 ebp, esp
  00003	51		 push	 ecx
  00004	c7 45 fc cc cc
	cc cc		 mov	 DWORD PTR [ebp-4], -858993460 ; ccccccccH
  0000b	89 4d fc	 mov	 DWORD PTR _this$[ebp], ecx
  0000e	8b 4d fc	 mov	 ecx, DWORD PTR _this$[ebp]
  00011	e8 00 00 00 00	 call	 ??1length_error@std@@UAE@XZ ; std::length_error::~length_error
  00016	8b 45 08	 mov	 eax, DWORD PTR ___flags$[ebp]
  00019	83 e0 01	 and	 eax, 1
  0001c	74 0c		 je	 SHORT $L91713
  0001e	8b 4d fc	 mov	 ecx, DWORD PTR _this$[ebp]
  00021	51		 push	 ecx
  00022	e8 00 00 00 00	 call	 ??3@YAXPAX@Z		; operator delete
  00027	83 c4 04	 add	 esp, 4
$L91713:
  0002a	8b 45 fc	 mov	 eax, DWORD PTR _this$[ebp]
  0002d	83 c4 04	 add	 esp, 4
  00030	3b ec		 cmp	 ebp, esp
  00032	e8 00 00 00 00	 call	 __RTC_CheckEsp
  00037	8b e5		 mov	 esp, ebp
  00039	5d		 pop	 ebp
  0003a	c2 04 00	 ret	 4
??_Glength_error@std@@UAEPAXI@Z ENDP			; std::length_error::`scalar deleting destructor'
_TEXT	ENDS
EXTRN	__imp_??0exception@@QAE@ABV0@@Z:NEAR
;	COMDAT xdata$x
xdata$x	SEGMENT
$T192380 DD	0ffffffffH
	DD	FLAT:$L192375
$T192378 DD	019930520H
	DD	01H
	DD	FLAT:$T192380
	DD	2 DUP(00H)
	DD	2 DUP(00H)
; Function compile flags: /Odt /RTCsu
xdata$x	ENDS
;	COMDAT ??0logic_error@std@@QAE@ABV01@@Z
_TEXT	SEGMENT
_this$ = -16						; size = 4
__$EHRec$ = -12						; size = 12
___that$ = 8						; size = 4
??0logic_error@std@@QAE@ABV01@@Z PROC NEAR		; std::logic_error::logic_error, COMDAT
; _this$ = ecx
  00000	55		 push	 ebp
  00001	8b ec		 mov	 ebp, esp
  00003	6a ff		 push	 -1
  00005	68 00 00 00 00	 push	 __ehhandler$??0logic_error@std@@QAE@ABV01@@Z
  0000a	64 a1 00 00 00
	00		 mov	 eax, DWORD PTR fs:__except_list
  00010	50		 push	 eax
  00011	64 89 25 00 00
	00 00		 mov	 DWORD PTR fs:__except_list, esp
  00018	51		 push	 ecx
  00019	56		 push	 esi
  0001a	c7 45 f0 cc cc
	cc cc		 mov	 DWORD PTR [ebp-16], -858993460 ; ccccccccH
  00021	89 4d f0	 mov	 DWORD PTR _this$[ebp], ecx
  00024	8b f4		 mov	 esi, esp
  00026	8b 45 08	 mov	 eax, DWORD PTR ___that$[ebp]
  00029	50		 push	 eax
  0002a	8b 4d f0	 mov	 ecx, DWORD PTR _this$[ebp]
  0002d	ff 15 00 00 00
	00		 call	 DWORD PTR __imp_??0exception@@QAE@ABV0@@Z
  00033	3b f4		 cmp	 esi, esp
  00035	e8 00 00 00 00	 call	 __RTC_CheckEsp
  0003a	c7 45 fc 00 00
	00 00		 mov	 DWORD PTR __$EHRec$[ebp+8], 0
  00041	8b 4d f0	 mov	 ecx, DWORD PTR _this$[ebp]
  00044	c7 01 00 00 00
	00		 mov	 DWORD PTR [ecx], OFFSET FLAT:??_7logic_error@std@@6B@
  0004a	8b 55 08	 mov	 edx, DWORD PTR ___that$[ebp]
  0004d	83 c2 0c	 add	 edx, 12			; 0000000cH
  00050	8b f4		 mov	 esi, esp
  00052	52		 push	 edx
  00053	8b 4d f0	 mov	 ecx, DWORD PTR _this$[ebp]
  00056	83 c1 0c	 add	 ecx, 12			; 0000000cH
  00059	ff 15 00 00 00
	00		 call	 DWORD PTR __imp_??0?$basic_string@DU?$char_traits@D@std@@V?$allocator@D@2@@std@@QAE@ABV01@@Z
  0005f	3b f4		 cmp	 esi, esp
  00061	e8 00 00 00 00	 call	 __RTC_CheckEsp
  00066	c7 45 fc ff ff
	ff ff		 mov	 DWORD PTR __$EHRec$[ebp+8], -1
  0006d	8b 45 f0	 mov	 eax, DWORD PTR _this$[ebp]
  00070	8b 4d f4	 mov	 ecx, DWORD PTR __$EHRec$[ebp]
  00073	64 89 0d 00 00
	00 00		 mov	 DWORD PTR fs:__except_list, ecx
  0007a	5e		 pop	 esi
  0007b	83 c4 10	 add	 esp, 16			; 00000010H
  0007e	3b ec		 cmp	 ebp, esp
  00080	e8 00 00 00 00	 call	 __RTC_CheckEsp
  00085	8b e5		 mov	 esp, ebp
  00087	5d		 pop	 ebp
  00088	c2 04 00	 ret	 4
_TEXT	ENDS
;	COMDAT text$x
text$x	SEGMENT
$L192375:
  00000	8b f4		 mov	 esi, esp
  00002	8b 4d f0	 mov	 ecx, DWORD PTR _this$[ebp]
  00005	ff 15 00 00 00
	00		 call	 DWORD PTR __imp_??1exception@@UAE@XZ
  0000b	3b f4		 cmp	 esi, esp
  0000d	e9 00 00 00 00	 jmp	 __RTC_CheckEsp
__ehhandler$??0logic_error@std@@QAE@ABV01@@Z:
  00012	b8 00 00 00 00	 mov	 eax, OFFSET FLAT:$T192378
  00017	e9 00 00 00 00	 jmp	 ___CxxFrameHandler
text$x	ENDS
??0logic_error@std@@QAE@ABV01@@Z ENDP			; std::logic_error::logic_error
END
