; Listing generated by Microsoft (R) Optimizing Compiler Version 13.10.3077 

	TITLE	.\src\module\TopPanel\TopPanel_Control.cpp
	.386P
include listing.inc
if @Version gt 510
.model FLAT
else
_TEXT	SEGMENT PARA USE32 PUBLIC 'CODE'
_TEXT	ENDS
_DATA	SEGMENT DWORD USE32 PUBLIC 'DATA'
_DATA	ENDS
CONST	SEGMENT DWORD USE32 PUBLIC 'CONST'
CONST	ENDS
_BSS	SEGMENT DWORD USE32 PUBLIC 'BSS'
_BSS	ENDS
$$SYMBOLS	SEGMENT BYTE USE32 'DEBSYM'
$$SYMBOLS	ENDS
_TLS	SEGMENT DWORD USE32 PUBLIC 'TLS'
_TLS	ENDS
;	COMDAT ??_C@_0EA@CPOAACJC@d?3?2boxgit?2playbox?2playbox?2dev?2pr@
CONST	SEGMENT DWORD USE32 PUBLIC 'CONST'
CONST	ENDS
;	COMDAT ??_C@_0EN@IBFBLEEG@D?3?2Program?5Files?5?$CIx86?$CJ?2Microsoft@
CONST	SEGMENT DWORD USE32 PUBLIC 'CONST'
CONST	ENDS
;	COMDAT ??_C@_0BD@OLBABOEK@vector?$DMT?$DO?5too?5long?$AA@
CONST	SEGMENT DWORD USE32 PUBLIC 'CONST'
CONST	ENDS
rdata$r	SEGMENT DWORD USE32 PUBLIC 'CONST'
rdata$r	ENDS
xdata$x	SEGMENT DWORD USE32 PUBLIC 'CONST'
xdata$x	ENDS
text$AFX_COL1	SEGMENT PARA USE32 PUBLIC ''
text$AFX_COL1	ENDS
text$yc	SEGMENT PARA USE32 PUBLIC 'CODE'
text$yc	ENDS
CRT$XCA	SEGMENT DWORD USE32 PUBLIC 'DATA'
CRT$XCA	ENDS
CRT$XCU	SEGMENT DWORD USE32 PUBLIC 'DATA'
CRT$XCU	ENDS
CRT$XCL	SEGMENT DWORD USE32 PUBLIC 'DATA'
CRT$XCL	ENDS
CRT$XCC	SEGMENT DWORD USE32 PUBLIC 'DATA'
CRT$XCC	ENDS
CRT$XCZ	SEGMENT DWORD USE32 PUBLIC 'DATA'
CRT$XCZ	ENDS
text$yd	SEGMENT PARA USE32 PUBLIC 'CODE'
text$yd	ENDS
ATL$__m	SEGMENT DWORD USE32 PUBLIC ''
ATL$__m	ENDS
ATL$__z	SEGMENT DWORD USE32 PUBLIC ''
ATL$__z	ENDS
ATL$__a	SEGMENT DWORD USE32 PUBLIC ''
ATL$__a	ENDS
;	COMDAT ??1IData@@MAE@XZ
_TEXT	SEGMENT PARA USE32 PUBLIC 'CODE'
_TEXT	ENDS
;	COMDAT ?DataAppStart@IData@@UAEXXZ
_TEXT	SEGMENT PARA USE32 PUBLIC 'CODE'
_TEXT	ENDS
;	COMDAT ?DataAppExit@IData@@UAEXXZ
_TEXT	SEGMENT PARA USE32 PUBLIC 'CODE'
_TEXT	ENDS
;	COMDAT ??_GIData@@MAEPAXI@Z
_TEXT	SEGMENT PARA USE32 PUBLIC 'CODE'
_TEXT	ENDS
;	COMDAT ??1BCMenuMemDC@@UAE@XZ
_TEXT	SEGMENT PARA USE32 PUBLIC 'CODE'
_TEXT	ENDS
;	COMDAT ??_GBCMenuMemDC@@UAEPAXI@Z
_TEXT	SEGMENT PARA USE32 PUBLIC 'CODE'
_TEXT	ENDS
;	COMDAT ?clear@OneLocalGame@@QAEXXZ
_TEXT	SEGMENT PARA USE32 PUBLIC 'CODE'
_TEXT	ENDS
;	COMDAT _$E5
text$yc	SEGMENT PARA USE32 PUBLIC 'CODE'
text$yc	ENDS
;	COMDAT _$E7
text$yc	SEGMENT PARA USE32 PUBLIC 'CODE'
text$yc	ENDS
;	COMDAT ??_GCTopPanelControl@@AAEPAXI@Z
_TEXT	SEGMENT PARA USE32 PUBLIC 'CODE'
_TEXT	ENDS
;	COMDAT ??B?$CComPtrBase@UITypeInfo2@@@ATL@@QBEPAUITypeInfo2@@XZ
_TEXT	SEGMENT PARA USE32 PUBLIC 'CODE'
_TEXT	ENDS
;	COMDAT ?equal@?$istreambuf_iterator@DU?$char_traits@D@std@@@std@@QBE_NABV12@@Z
_TEXT	SEGMENT PARA USE32 PUBLIC 'CODE'
_TEXT	ENDS
;	COMDAT ?equal@?$istreambuf_iterator@_WU?$char_traits@_W@std@@@std@@QBE_NABV12@@Z
_TEXT	SEGMENT PARA USE32 PUBLIC 'CODE'
_TEXT	ENDS
;	COMDAT ??0?$vector@V?$basic_string@DU?$char_traits@D@std@@V?$allocator@D@2@@std@@V?$allocator@V?$basic_string@DU?$char_traits@D@std@@V?$allocator@D@2@@std@@@2@@std@@QAE@XZ
_TEXT	SEGMENT PARA USE32 PUBLIC 'CODE'
_TEXT	ENDS
;	COMDAT ??1?$vector@V?$basic_string@DU?$char_traits@D@std@@V?$allocator@D@2@@std@@V?$allocator@V?$basic_string@DU?$char_traits@D@std@@V?$allocator@D@2@@std@@@2@@std@@QAE@XZ
_TEXT	SEGMENT PARA USE32 PUBLIC 'CODE'
_TEXT	ENDS
;	COMDAT ?size@?$vector@V?$basic_string@DU?$char_traits@D@std@@V?$allocator@D@2@@std@@V?$allocator@V?$basic_string@DU?$char_traits@D@std@@V?$allocator@D@2@@std@@@2@@std@@QBEIXZ
_TEXT	SEGMENT PARA USE32 PUBLIC 'CODE'
_TEXT	ENDS
;	COMDAT ??A?$vector@V?$basic_string@DU?$char_traits@D@std@@V?$allocator@D@2@@std@@V?$allocator@V?$basic_string@DU?$char_traits@D@std@@V?$allocator@D@2@@std@@@2@@std@@QAEAAV?$basic_string@DU?$char_traits@D@std@@V?$allocator@D@2@@1@I@Z
_TEXT	SEGMENT PARA USE32 PUBLIC 'CODE'
_TEXT	ENDS
;	COMDAT ?push_back@?$vector@V?$basic_string@DU?$char_traits@D@std@@V?$allocator@D@2@@std@@V?$allocator@V?$basic_string@DU?$char_traits@D@std@@V?$allocator@D@2@@std@@@2@@std@@QAEXABV?$basic_string@DU?$char_traits@D@std@@V?$allocator@D@2@@2@@Z
_TEXT	SEGMENT PARA USE32 PUBLIC 'CODE'
_TEXT	ENDS
;	COMDAT ??0?$allocator@V?$basic_string@DU?$char_traits@D@std@@V?$allocator@D@2@@std@@@std@@QAE@XZ
_TEXT	SEGMENT PARA USE32 PUBLIC 'CODE'
_TEXT	ENDS
;	COMDAT ?capacity@?$vector@V?$basic_string@DU?$char_traits@D@std@@V?$allocator@D@2@@std@@V?$allocator@V?$basic_string@DU?$char_traits@D@std@@V?$allocator@D@2@@std@@@2@@std@@QBEIXZ
_TEXT	SEGMENT PARA USE32 PUBLIC 'CODE'
_TEXT	ENDS
;	COMDAT ?begin@?$vector@V?$basic_string@DU?$char_traits@D@std@@V?$allocator@D@2@@std@@V?$allocator@V?$basic_string@DU?$char_traits@D@std@@V?$allocator@D@2@@std@@@2@@std@@QAE?AViterator@12@XZ
_TEXT	SEGMENT PARA USE32 PUBLIC 'CODE'
_TEXT	ENDS
;	COMDAT ?end@?$vector@V?$basic_string@DU?$char_traits@D@std@@V?$allocator@D@2@@std@@V?$allocator@V?$basic_string@DU?$char_traits@D@std@@V?$allocator@D@2@@std@@@2@@std@@QAE?AViterator@12@XZ
_TEXT	SEGMENT PARA USE32 PUBLIC 'CODE'
_TEXT	ENDS
;	COMDAT ?insert@?$vector@V?$basic_string@DU?$char_traits@D@std@@V?$allocator@D@2@@std@@V?$allocator@V?$basic_string@DU?$char_traits@D@std@@V?$allocator@D@2@@std@@@2@@std@@QAE?AViterator@12@V312@ABV?$basic_string@DU?$char_traits@D@std@@V?$allocator@D@2@@2@@Z
_TEXT	SEGMENT PARA USE32 PUBLIC 'CODE'
_TEXT	ENDS
;	COMDAT ?_Buy@?$vector@V?$basic_string@DU?$char_traits@D@std@@V?$allocator@D@2@@std@@V?$allocator@V?$basic_string@DU?$char_traits@D@std@@V?$allocator@D@2@@std@@@2@@std@@IAE_NI@Z
_TEXT	SEGMENT PARA USE32 PUBLIC 'CODE'
_TEXT	ENDS
;	COMDAT ?_Tidy@?$vector@V?$basic_string@DU?$char_traits@D@std@@V?$allocator@D@2@@std@@V?$allocator@V?$basic_string@DU?$char_traits@D@std@@V?$allocator@D@2@@std@@@2@@std@@IAEXXZ
_TEXT	SEGMENT PARA USE32 PUBLIC 'CODE'
_TEXT	ENDS
;	COMDAT ?_Ufill@?$vector@V?$basic_string@DU?$char_traits@D@std@@V?$allocator@D@2@@std@@V?$allocator@V?$basic_string@DU?$char_traits@D@std@@V?$allocator@D@2@@std@@@2@@std@@IAEPAV?$basic_string@DU?$char_traits@D@std@@V?$allocator@D@2@@2@PAV32@IABV32@@Z
_TEXT	SEGMENT PARA USE32 PUBLIC 'CODE'
_TEXT	ENDS
;	COMDAT ??0?$_Vector_val@V?$basic_string@DU?$char_traits@D@std@@V?$allocator@D@2@@std@@V?$allocator@V?$basic_string@DU?$char_traits@D@std@@V?$allocator@D@2@@std@@@2@@std@@IAE@V?$allocator@V?$basic_string@DU?$char_traits@D@std@@V?$allocator@D@2@@std@@@1@@Z
_TEXT	SEGMENT PARA USE32 PUBLIC 'CODE'
_TEXT	ENDS
;	COMDAT ??Diterator@?$vector@V?$basic_string@DU?$char_traits@D@std@@V?$allocator@D@2@@std@@V?$allocator@V?$basic_string@DU?$char_traits@D@std@@V?$allocator@D@2@@std@@@2@@std@@QBEAAV?$basic_string@DU?$char_traits@D@std@@V?$allocator@D@2@@2@XZ
_TEXT	SEGMENT PARA USE32 PUBLIC 'CODE'
_TEXT	ENDS
;	COMDAT ??Hiterator@?$vector@V?$basic_string@DU?$char_traits@D@std@@V?$allocator@D@2@@std@@V?$allocator@V?$basic_string@DU?$char_traits@D@std@@V?$allocator@D@2@@std@@@2@@std@@QBE?AV012@H@Z
_TEXT	SEGMENT PARA USE32 PUBLIC 'CODE'
_TEXT	ENDS
;	COMDAT ??0?$allocator@V?$basic_string@DU?$char_traits@D@std@@V?$allocator@D@2@@std@@@std@@QAE@ABV01@@Z
_TEXT	SEGMENT PARA USE32 PUBLIC 'CODE'
_TEXT	ENDS
;	COMDAT ?deallocate@?$allocator@V?$basic_string@DU?$char_traits@D@std@@V?$allocator@D@2@@std@@@std@@QAEXPAV?$basic_string@DU?$char_traits@D@std@@V?$allocator@D@2@@2@I@Z
_TEXT	SEGMENT PARA USE32 PUBLIC 'CODE'
_TEXT	ENDS
;	COMDAT ?allocate@?$allocator@V?$basic_string@DU?$char_traits@D@std@@V?$allocator@D@2@@std@@@std@@QAEPAV?$basic_string@DU?$char_traits@D@std@@V?$allocator@D@2@@2@I@Z
_TEXT	SEGMENT PARA USE32 PUBLIC 'CODE'
_TEXT	ENDS
;	COMDAT ??0iterator@?$basic_string@DU?$char_traits@D@std@@V?$allocator@D@2@@std@@QAE@PAD@Z
_TEXT	SEGMENT PARA USE32 PUBLIC 'CODE'
_TEXT	ENDS
;	COMDAT ?max_size@?$vector@V?$basic_string@DU?$char_traits@D@std@@V?$allocator@D@2@@std@@V?$allocator@V?$basic_string@DU?$char_traits@D@std@@V?$allocator@D@2@@std@@@2@@std@@QBEIXZ
_TEXT	SEGMENT PARA USE32 PUBLIC 'CODE'
_TEXT	ENDS
;	COMDAT ?_Destroy@?$vector@V?$basic_string@DU?$char_traits@D@std@@V?$allocator@D@2@@std@@V?$allocator@V?$basic_string@DU?$char_traits@D@std@@V?$allocator@D@2@@std@@@2@@std@@IAEXPAV?$basic_string@DU?$char_traits@D@std@@V?$allocator@D@2@@2@0@Z
_TEXT	SEGMENT PARA USE32 PUBLIC 'CODE'
_TEXT	ENDS
;	COMDAT ?_Insert_n@?$vector@V?$basic_string@DU?$char_traits@D@std@@V?$allocator@D@2@@std@@V?$allocator@V?$basic_string@DU?$char_traits@D@std@@V?$allocator@D@2@@std@@@2@@std@@IAEXViterator@12@IABV?$basic_string@DU?$char_traits@D@std@@V?$allocator@D@2@@2@@Z
_TEXT	SEGMENT PARA USE32 PUBLIC 'CODE'
_TEXT	ENDS
;	COMDAT ?_Xlen@?$vector@V?$basic_string@DU?$char_traits@D@std@@V?$allocator@D@2@@std@@V?$allocator@V?$basic_string@DU?$char_traits@D@std@@V?$allocator@D@2@@std@@@2@@std@@IBEXXZ
_TEXT	SEGMENT PARA USE32 PUBLIC 'CODE'
_TEXT	ENDS
;	COMDAT ??0iterator@?$vector@V?$basic_string@DU?$char_traits@D@std@@V?$allocator@D@2@@std@@V?$allocator@V?$basic_string@DU?$char_traits@D@std@@V?$allocator@D@2@@std@@@2@@std@@QAE@PAV?$basic_string@DU?$char_traits@D@std@@V?$allocator@D@2@@2@@Z
_TEXT	SEGMENT PARA USE32 PUBLIC 'CODE'
_TEXT	ENDS
;	COMDAT ??Yiterator@?$vector@V?$basic_string@DU?$char_traits@D@std@@V?$allocator@D@2@@std@@V?$allocator@V?$basic_string@DU?$char_traits@D@std@@V?$allocator@D@2@@std@@@2@@std@@QAEAAV012@H@Z
_TEXT	SEGMENT PARA USE32 PUBLIC 'CODE'
_TEXT	ENDS
;	COMDAT ??Giterator@?$vector@V?$basic_string@DU?$char_traits@D@std@@V?$allocator@D@2@@std@@V?$allocator@V?$basic_string@DU?$char_traits@D@std@@V?$allocator@D@2@@std@@@2@@std@@QBEHABVconst_iterator@12@@Z
_TEXT	SEGMENT PARA USE32 PUBLIC 'CODE'
_TEXT	ENDS
;	COMDAT ??Dconst_iterator@?$vector@V?$basic_string@DU?$char_traits@D@std@@V?$allocator@D@2@@std@@V?$allocator@V?$basic_string@DU?$char_traits@D@std@@V?$allocator@D@2@@std@@@2@@std@@QBEABV?$basic_string@DU?$char_traits@D@std@@V?$allocator@D@2@@2@XZ
_TEXT	SEGMENT PARA USE32 PUBLIC 'CODE'
_TEXT	ENDS
;	COMDAT ??0length_error@std@@QAE@ABV01@@Z
_TEXT	SEGMENT PARA USE32 PUBLIC 'CODE'
_TEXT	ENDS
;	COMDAT ?max_size@?$allocator@V?$basic_string@DU?$char_traits@D@std@@V?$allocator@D@2@@std@@@std@@QBEIXZ
_TEXT	SEGMENT PARA USE32 PUBLIC 'CODE'
_TEXT	ENDS
;	COMDAT ??0const_iterator@?$basic_string@DU?$char_traits@D@std@@V?$allocator@D@2@@std@@QAE@PBD@Z
_TEXT	SEGMENT PARA USE32 PUBLIC 'CODE'
_TEXT	ENDS
;	COMDAT ??Gconst_iterator@?$basic_string@DU?$char_traits@D@std@@V?$allocator@D@2@@std@@QBEHABV012@@Z
_TEXT	SEGMENT PARA USE32 PUBLIC 'CODE'
_TEXT	ENDS
;	COMDAT ??0const_iterator@?$vector@V?$basic_string@DU?$char_traits@D@std@@V?$allocator@D@2@@std@@V?$allocator@V?$basic_string@DU?$char_traits@D@std@@V?$allocator@D@2@@std@@@2@@std@@QAE@PAV?$basic_string@DU?$char_traits@D@std@@V?$allocator@D@2@@2@@Z
_TEXT	SEGMENT PARA USE32 PUBLIC 'CODE'
_TEXT	ENDS
;	COMDAT ??Gconst_iterator@?$vector@V?$basic_string@DU?$char_traits@D@std@@V?$allocator@D@2@@std@@V?$allocator@V?$basic_string@DU?$char_traits@D@std@@V?$allocator@D@2@@std@@@2@@std@@QBEHABV012@@Z
_TEXT	SEGMENT PARA USE32 PUBLIC 'CODE'
_TEXT	ENDS
;	COMDAT ?Unlock@?$CComCritSecLock@VCComCriticalSection@ATL@@@ATL@@QAEXXZ
_TEXT	SEGMENT PARA USE32 PUBLIC 'CODE'
_TEXT	ENDS
;	COMDAT ??1?$CArray@HAAH@@UAE@XZ
_TEXT	SEGMENT PARA USE32 PUBLIC 'CODE'
_TEXT	ENDS
;	COMDAT ?Serialize@?$CArray@HAAH@@UAEXAAVCArchive@@@Z
_TEXT	SEGMENT PARA USE32 PUBLIC 'CODE'
_TEXT	ENDS
;	COMDAT ?Dump@?$CArray@HAAH@@UBEXAAVCDumpContext@@@Z
_TEXT	SEGMENT PARA USE32 PUBLIC 'CODE'
_TEXT	ENDS
;	COMDAT ?AssertValid@?$CArray@HAAH@@UBEXXZ
_TEXT	SEGMENT PARA USE32 PUBLIC 'CODE'
_TEXT	ENDS
;	COMDAT ??$_Uninitialized_fill_n@PAV?$basic_string@DU?$char_traits@D@std@@V?$allocator@D@2@@std@@IV12@V?$allocator@V?$basic_string@DU?$char_traits@D@std@@V?$allocator@D@2@@std@@@2@@std@@YAXPAV?$basic_string@DU?$char_traits@D@std@@V?$allocator@D@2@@0@IABV10@AAV?$allocator@V?$basic_string@DU?$char_traits@D@std@@V?$allocator@D@2@@std@@@0@@Z
_TEXT	SEGMENT PARA USE32 PUBLIC 'CODE'
_TEXT	ENDS
;	COMDAT ??$_Maklocstr@D@std@@YAPADPBDPADABU_Cvtvec@@@Z
_TEXT	SEGMENT PARA USE32 PUBLIC 'CODE'
_TEXT	ENDS
;	COMDAT ??$_Allocate@V?$basic_string@DU?$char_traits@D@std@@V?$allocator@D@2@@std@@@std@@YAPAV?$basic_string@DU?$char_traits@D@std@@V?$allocator@D@2@@0@IPAV10@@Z
_TEXT	SEGMENT PARA USE32 PUBLIC 'CODE'
_TEXT	ENDS
;	COMDAT ??$_Destroy_range@V?$basic_string@DU?$char_traits@D@std@@V?$allocator@D@2@@std@@V?$allocator@V?$basic_string@DU?$char_traits@D@std@@V?$allocator@D@2@@std@@@2@@std@@YAXPAV?$basic_string@DU?$char_traits@D@std@@V?$allocator@D@2@@0@0AAV?$allocator@V?$basic_string@DU?$char_traits@D@std@@V?$allocator@D@2@@std@@@0@@Z
_TEXT	SEGMENT PARA USE32 PUBLIC 'CODE'
_TEXT	ENDS
;	COMDAT ??$_Ucopy@PAV?$basic_string@DU?$char_traits@D@std@@V?$allocator@D@2@@std@@@?$vector@V?$basic_string@DU?$char_traits@D@std@@V?$allocator@D@2@@std@@V?$allocator@V?$basic_string@DU?$char_traits@D@std@@V?$allocator@D@2@@std@@@2@@std@@IAEPAV?$basic_string@DU?$char_traits@D@std@@V?$allocator@D@2@@1@PAV21@00@Z
_TEXT	SEGMENT PARA USE32 PUBLIC 'CODE'
_TEXT	ENDS
;	COMDAT ??$fill@PAV?$basic_string@DU?$char_traits@D@std@@V?$allocator@D@2@@std@@V12@@std@@YAXPAV?$basic_string@DU?$char_traits@D@std@@V?$allocator@D@2@@0@0ABV10@@Z
_TEXT	SEGMENT PARA USE32 PUBLIC 'CODE'
_TEXT	ENDS
;	COMDAT ??$copy_backward@PAV?$basic_string@DU?$char_traits@D@std@@V?$allocator@D@2@@std@@PAV12@@std@@YAPAV?$basic_string@DU?$char_traits@D@std@@V?$allocator@D@2@@0@PAV10@00@Z
_TEXT	SEGMENT PARA USE32 PUBLIC 'CODE'
_TEXT	ENDS
;	COMDAT ??_G?$CArray@HAAH@@UAEPAXI@Z
_TEXT	SEGMENT PARA USE32 PUBLIC 'CODE'
_TEXT	ENDS
;	COMDAT ?SetSize@?$CArray@HAAH@@QAEXHH@Z
_TEXT	SEGMENT PARA USE32 PUBLIC 'CODE'
_TEXT	ENDS
;	COMDAT ??$SerializeElements@H@@YGXAAVCArchive@@PAHH@Z
_TEXT	SEGMENT PARA USE32 PUBLIC 'CODE'
_TEXT	ENDS
;	COMDAT ??$DumpElements@H@@YGXAAVCDumpContext@@PBHH@Z
_TEXT	SEGMENT PARA USE32 PUBLIC 'CODE'
_TEXT	ENDS
;	COMDAT ??$_Ptr_cat@PAV?$basic_string@DU?$char_traits@D@std@@V?$allocator@D@2@@std@@PAV12@@std@@YA?AU_Nonscalar_ptr_iterator_tag@0@AAPAV?$basic_string@DU?$char_traits@D@std@@V?$allocator@D@2@@0@0@Z
_TEXT	SEGMENT PARA USE32 PUBLIC 'CODE'
_TEXT	ENDS
;	COMDAT ??$_Uninit_fill_n@PAV?$basic_string@DU?$char_traits@D@std@@V?$allocator@D@2@@std@@IV12@V?$allocator@V?$basic_string@DU?$char_traits@D@std@@V?$allocator@D@2@@std@@@2@@std@@YAXPAV?$basic_string@DU?$char_traits@D@std@@V?$allocator@D@2@@0@IABV10@AAV?$allocator@V?$basic_string@DU?$char_traits@D@std@@V?$allocator@D@2@@std@@@0@U_Nonscalar_ptr_iterator_tag@0@@Z
_TEXT	SEGMENT PARA USE32 PUBLIC 'CODE'
_TEXT	ENDS
;	COMDAT ??$_Destroy_range@V?$basic_string@DU?$char_traits@D@std@@V?$allocator@D@2@@std@@V?$allocator@V?$basic_string@DU?$char_traits@D@std@@V?$allocator@D@2@@std@@@2@@std@@YAXPAV?$basic_string@DU?$char_traits@D@std@@V?$allocator@D@2@@0@0AAV?$allocator@V?$basic_string@DU?$char_traits@D@std@@V?$allocator@D@2@@std@@@0@U_Nonscalar_ptr_iterator_tag@0@@Z
_TEXT	SEGMENT PARA USE32 PUBLIC 'CODE'
_TEXT	ENDS
;	COMDAT ??$_Uninitialized_copy@PAV?$basic_string@DU?$char_traits@D@std@@V?$allocator@D@2@@std@@PAV12@V?$allocator@V?$basic_string@DU?$char_traits@D@std@@V?$allocator@D@2@@std@@@2@@std@@YAPAV?$basic_string@DU?$char_traits@D@std@@V?$allocator@D@2@@0@PAV10@00AAV?$allocator@V?$basic_string@DU?$char_traits@D@std@@V?$allocator@D@2@@std@@@0@@Z
_TEXT	SEGMENT PARA USE32 PUBLIC 'CODE'
_TEXT	ENDS
;	COMDAT ??$_Copy_backward_opt@PAV?$basic_string@DU?$char_traits@D@std@@V?$allocator@D@2@@std@@PAV12@@std@@YAPAV?$basic_string@DU?$char_traits@D@std@@V?$allocator@D@2@@0@PAV10@00U_Nonscalar_ptr_iterator_tag@0@@Z
_TEXT	SEGMENT PARA USE32 PUBLIC 'CODE'
_TEXT	ENDS
;	COMDAT ?construct@?$allocator@V?$basic_string@DU?$char_traits@D@std@@V?$allocator@D@2@@std@@@std@@QAEXPAV?$basic_string@DU?$char_traits@D@std@@V?$allocator@D@2@@2@ABV32@@Z
_TEXT	SEGMENT PARA USE32 PUBLIC 'CODE'
_TEXT	ENDS
;	COMDAT ?destroy@?$allocator@V?$basic_string@DU?$char_traits@D@std@@V?$allocator@D@2@@std@@@std@@QAEXPAV?$basic_string@DU?$char_traits@D@std@@V?$allocator@D@2@@2@@Z
_TEXT	SEGMENT PARA USE32 PUBLIC 'CODE'
_TEXT	ENDS
;	COMDAT ??$_Uninit_copy@PAV?$basic_string@DU?$char_traits@D@std@@V?$allocator@D@2@@std@@PAV12@V?$allocator@V?$basic_string@DU?$char_traits@D@std@@V?$allocator@D@2@@std@@@2@@std@@YAPAV?$basic_string@DU?$char_traits@D@std@@V?$allocator@D@2@@0@PAV10@00AAV?$allocator@V?$basic_string@DU?$char_traits@D@std@@V?$allocator@D@2@@std@@@0@U_Nonscalar_ptr_iterator_tag@0@@Z
_TEXT	SEGMENT PARA USE32 PUBLIC 'CODE'
_TEXT	ENDS
;	COMDAT ??$_Construct@V?$basic_string@DU?$char_traits@D@std@@V?$allocator@D@2@@std@@V12@@std@@YAXPAV?$basic_string@DU?$char_traits@D@std@@V?$allocator@D@2@@0@ABV10@@Z
_TEXT	SEGMENT PARA USE32 PUBLIC 'CODE'
_TEXT	ENDS
;	COMDAT ??$_Destroy@V?$basic_string@DU?$char_traits@D@std@@V?$allocator@D@2@@std@@@std@@YAXPAV?$basic_string@DU?$char_traits@D@std@@V?$allocator@D@2@@0@@Z
_TEXT	SEGMENT PARA USE32 PUBLIC 'CODE'
_TEXT	ENDS
;	COMDAT ??_G?$basic_string@DU?$char_traits@D@std@@V?$allocator@D@2@@std@@QAEPAXI@Z
_TEXT	SEGMENT PARA USE32 PUBLIC 'CODE'
_TEXT	ENDS
;	COMDAT ??_R3?$numpunct@_W@std@@8
rdata$r	SEGMENT DWORD USE32 PUBLIC 'CONST'
rdata$r	ENDS
;	COMDAT ??_R3?$numpunct@D@std@@8
rdata$r	SEGMENT DWORD USE32 PUBLIC 'CONST'
rdata$r	ENDS
;	COMDAT ??_R3IData@@8
rdata$r	SEGMENT DWORD USE32 PUBLIC 'CONST'
rdata$r	ENDS
;	COMDAT ??_R3?$CArray@HAAH@@8
rdata$r	SEGMENT DWORD USE32 PUBLIC 'CONST'
rdata$r	ENDS
;	COMDAT ??_R3BCMenuMemDC@@8
rdata$r	SEGMENT DWORD USE32 PUBLIC 'CONST'
rdata$r	ENDS
;	COMDAT ??_R2?$numpunct@_W@std@@8
rdata$r	SEGMENT DWORD USE32 PUBLIC 'CONST'
rdata$r	ENDS
;	COMDAT ??_R2?$numpunct@D@std@@8
rdata$r	SEGMENT DWORD USE32 PUBLIC 'CONST'
rdata$r	ENDS
;	COMDAT ??_R2IData@@8
rdata$r	SEGMENT DWORD USE32 PUBLIC 'CONST'
rdata$r	ENDS
;	COMDAT ??_R2?$CArray@HAAH@@8
rdata$r	SEGMENT DWORD USE32 PUBLIC 'CONST'
rdata$r	ENDS
;	COMDAT ??_R2BCMenuMemDC@@8
rdata$r	SEGMENT DWORD USE32 PUBLIC 'CONST'
rdata$r	ENDS
;	COMDAT ??_R1A@?0A@A@?$numpunct@_W@std@@8
rdata$r	SEGMENT DWORD USE32 PUBLIC 'CONST'
rdata$r	ENDS
;	COMDAT ??_R1A@?0A@A@facet@locale@std@@8
rdata$r	SEGMENT DWORD USE32 PUBLIC 'CONST'
rdata$r	ENDS
;	COMDAT ??_R0?AVfacet@locale@std@@@8
_DATA	SEGMENT DWORD USE32 PUBLIC 'DATA'
_DATA	ENDS
;	COMDAT ??_R1A@?0A@A@?$numpunct@D@std@@8
rdata$r	SEGMENT DWORD USE32 PUBLIC 'CONST'
rdata$r	ENDS
;	COMDAT ??_R1A@?0A@A@IData@@8
rdata$r	SEGMENT DWORD USE32 PUBLIC 'CONST'
rdata$r	ENDS
;	COMDAT ??_R1A@?0A@A@?$CArray@HAAH@@8
rdata$r	SEGMENT DWORD USE32 PUBLIC 'CONST'
rdata$r	ENDS
;	COMDAT ??_R1A@?0A@A@CObject@@8
rdata$r	SEGMENT DWORD USE32 PUBLIC 'CONST'
rdata$r	ENDS
;	COMDAT ??_R0?AVCObject@@@8
_DATA	SEGMENT DWORD USE32 PUBLIC 'DATA'
_DATA	ENDS
;	COMDAT ??_R1A@?0A@A@CDC@@8
rdata$r	SEGMENT DWORD USE32 PUBLIC 'CONST'
rdata$r	ENDS
;	COMDAT ??_R0?AVCDC@@@8
_DATA	SEGMENT DWORD USE32 PUBLIC 'DATA'
_DATA	ENDS
;	COMDAT ??_R1A@?0A@A@BCMenuMemDC@@8
rdata$r	SEGMENT DWORD USE32 PUBLIC 'CONST'
rdata$r	ENDS
;	COMDAT ??_R0?AV?$numpunct@_W@std@@@8
_DATA	SEGMENT DWORD USE32 PUBLIC 'DATA'
_DATA	ENDS
;	COMDAT ??_R0?AV?$numpunct@D@std@@@8
_DATA	SEGMENT DWORD USE32 PUBLIC 'DATA'
_DATA	ENDS
;	COMDAT ??_R0?AVIData@@@8
_DATA	SEGMENT DWORD USE32 PUBLIC 'DATA'
_DATA	ENDS
;	COMDAT ??_R0?AV?$CArray@HAAH@@@8
_DATA	SEGMENT DWORD USE32 PUBLIC 'DATA'
_DATA	ENDS
;	COMDAT ??_R0?AVBCMenuMemDC@@@8
_DATA	SEGMENT DWORD USE32 PUBLIC 'DATA'
_DATA	ENDS
;	COMDAT ??0?$allocator@_W@std@@QAE@XZ
_TEXT	SEGMENT PARA USE32 PUBLIC 'CODE'
_TEXT	ENDS
;	COMDAT ??_G?$numpunct@_W@std@@MAEPAXI@Z
_TEXT	SEGMENT PARA USE32 PUBLIC 'CODE'
_TEXT	ENDS
;	COMDAT ??_R4?$numpunct@_W@std@@6B@
rdata$r	SEGMENT DWORD USE32 PUBLIC 'CONST'
rdata$r	ENDS
;	COMDAT ??_G?$numpunct@D@std@@MAEPAXI@Z
_TEXT	SEGMENT PARA USE32 PUBLIC 'CODE'
_TEXT	ENDS
;	COMDAT ??_R4?$numpunct@D@std@@6B@
rdata$r	SEGMENT DWORD USE32 PUBLIC 'CONST'
rdata$r	ENDS
;	COMDAT ??_R4IData@@6B@
rdata$r	SEGMENT DWORD USE32 PUBLIC 'CONST'
rdata$r	ENDS
;	COMDAT ??_R4?$CArray@HAAH@@6B@
rdata$r	SEGMENT DWORD USE32 PUBLIC 'CONST'
rdata$r	ENDS
;	COMDAT ??_R4BCMenuMemDC@@6B@
rdata$r	SEGMENT DWORD USE32 PUBLIC 'CONST'
rdata$r	ENDS
;	COMDAT ??3@YAXPAX0@Z
_TEXT	SEGMENT PARA USE32 PUBLIC 'CODE'
_TEXT	ENDS
;	COMDAT ??2@YAPAXIPAX@Z
_TEXT	SEGMENT PARA USE32 PUBLIC 'CODE'
_TEXT	ENDS
;	COMDAT ?max_size@?$allocator@D@std@@QBEIXZ
_TEXT	SEGMENT PARA USE32 PUBLIC 'CODE'
_TEXT	ENDS
;	COMDAT ?allocate@?$allocator@D@std@@QAEPADI@Z
_TEXT	SEGMENT PARA USE32 PUBLIC 'CODE'
_TEXT	ENDS
;	COMDAT ??$_Allocate@D@std@@YAPADIPAD@Z
_TEXT	SEGMENT PARA USE32 PUBLIC 'CODE'
_TEXT	ENDS
;	COMDAT ?deallocate@?$allocator@D@std@@QAEXPADI@Z
_TEXT	SEGMENT PARA USE32 PUBLIC 'CODE'
_TEXT	ENDS
;	COMDAT ??_C@_0EN@CBMLGOH@D?3?2Program?5Files?5?$CIx86?$CJ?2Microsoft@
CONST	SEGMENT DWORD USE32 PUBLIC 'CONST'
CONST	ENDS
;	COMDAT ??_7?$CArray@HAAH@@6B@
CONST	SEGMENT DWORD USE32 PUBLIC 'CONST'
CONST	ENDS
;	COMDAT ?_Psave@?$_Facetptr@V?$numpunct@_W@std@@@std@@2PBVfacet@locale@2@B
_DATA	SEGMENT DWORD USE32 PUBLIC 'DATA'
_DATA	ENDS
;	COMDAT ?_Psave@?$_Facetptr@V?$numpunct@D@std@@@std@@2PBVfacet@locale@2@B
_DATA	SEGMENT DWORD USE32 PUBLIC 'DATA'
_DATA	ENDS
;	COMDAT ?Unlock@CComCriticalSection@ATL@@QAEJXZ
_TEXT	SEGMENT PARA USE32 PUBLIC 'CODE'
_TEXT	ENDS
;	COMDAT ??_C@_0FG@LDNDNCJM@D?3?2Program?5Files?5?$CIx86?$CJ?2Microsoft@
CONST	SEGMENT DWORD USE32 PUBLIC 'CONST'
CONST	ENDS
;	COMDAT ??_C@_09HIEJFN@m_bLocked?$AA@
CONST	SEGMENT DWORD USE32 PUBLIC 'CONST'
CONST	ENDS
;	COMDAT ?_Psave@?$_Facetptr@V?$ctype@_W@std@@@std@@2PBVfacet@locale@2@B
_DATA	SEGMENT DWORD USE32 PUBLIC 'DATA'
_DATA	ENDS
;	COMDAT ?_Psave@?$_Facetptr@V?$ctype@D@std@@@std@@2PBVfacet@locale@2@B
_DATA	SEGMENT DWORD USE32 PUBLIC 'DATA'
_DATA	ENDS
;	COMDAT ??_7length_error@std@@6B@
CONST	SEGMENT DWORD USE32 PUBLIC 'CONST'
CONST	ENDS
;	COMDAT ??_R4length_error@std@@6B@
rdata$r	SEGMENT DWORD USE32 PUBLIC 'CONST'
rdata$r	ENDS
;	COMDAT ??_R3length_error@std@@8
rdata$r	SEGMENT DWORD USE32 PUBLIC 'CONST'
rdata$r	ENDS
;	COMDAT ??_R2length_error@std@@8
rdata$r	SEGMENT DWORD USE32 PUBLIC 'CONST'
rdata$r	ENDS
;	COMDAT ??_R1A@?0A@A@length_error@std@@8
rdata$r	SEGMENT DWORD USE32 PUBLIC 'CONST'
rdata$r	ENDS
;	COMDAT ??_R1A@?0A@A@logic_error@std@@8
rdata$r	SEGMENT DWORD USE32 PUBLIC 'CONST'
rdata$r	ENDS
;	COMDAT ??_R0?AVlogic_error@std@@@8
_DATA	SEGMENT DWORD USE32 PUBLIC 'DATA'
_DATA	ENDS
;	COMDAT ??_R1A@?0A@A@exception@@8
rdata$r	SEGMENT DWORD USE32 PUBLIC 'CONST'
rdata$r	ENDS
;	COMDAT ??_R0?AVexception@@@8
_DATA	SEGMENT DWORD USE32 PUBLIC 'DATA'
_DATA	ENDS
;	COMDAT ??_Glength_error@std@@UAEPAXI@Z
_TEXT	SEGMENT PARA USE32 PUBLIC 'CODE'
_TEXT	ENDS
;	COMDAT ?what@logic_error@std@@UBEPBDXZ
_TEXT	SEGMENT PARA USE32 PUBLIC 'CODE'
_TEXT	ENDS
;	COMDAT ??1logic_error@std@@UAE@XZ
_TEXT	SEGMENT PARA USE32 PUBLIC 'CODE'
_TEXT	ENDS
;	COMDAT ??_7logic_error@std@@6B@
CONST	SEGMENT DWORD USE32 PUBLIC 'CONST'
CONST	ENDS
;	COMDAT ??_R4logic_error@std@@6B@
rdata$r	SEGMENT DWORD USE32 PUBLIC 'CONST'
rdata$r	ENDS
;	COMDAT ??_R3logic_error@std@@8
rdata$r	SEGMENT DWORD USE32 PUBLIC 'CONST'
rdata$r	ENDS
;	COMDAT ??_R2logic_error@std@@8
rdata$r	SEGMENT DWORD USE32 PUBLIC 'CONST'
rdata$r	ENDS
;	COMDAT ??_Glogic_error@std@@UAEPAXI@Z
_TEXT	SEGMENT PARA USE32 PUBLIC 'CODE'
_TEXT	ENDS
;	COMDAT ??0logic_error@std@@QAE@ABV01@@Z
_TEXT	SEGMENT PARA USE32 PUBLIC 'CODE'
_TEXT	ENDS
;	COMDAT __CTA3?AVlength_error@std@@
xdata$x	SEGMENT DWORD USE32 PUBLIC 'CONST'
xdata$x	ENDS
;	COMDAT ??1length_error@std@@UAE@XZ
_TEXT	SEGMENT PARA USE32 PUBLIC 'CODE'
_TEXT	ENDS
;	COMDAT __CT??_R0?AVexception@@@8??0exception@@QAE@ABV0@@Z12
xdata$x	SEGMENT DWORD USE32 PUBLIC 'CONST'
xdata$x	ENDS
;	COMDAT __CT??_R0?AVlogic_error@std@@@8??0logic_error@std@@QAE@ABV01@@Z40
xdata$x	SEGMENT DWORD USE32 PUBLIC 'CONST'
xdata$x	ENDS
;	COMDAT __CT??_R0?AVlength_error@std@@@8??0length_error@std@@QAE@ABV01@@Z40
xdata$x	SEGMENT DWORD USE32 PUBLIC 'CONST'
xdata$x	ENDS
;	COMDAT ??_R0?AVlength_error@std@@@8
_DATA	SEGMENT DWORD USE32 PUBLIC 'DATA'
_DATA	ENDS
;	COMDAT __TI3?AVlength_error@std@@
xdata$x	SEGMENT DWORD USE32 PUBLIC 'CONST'
xdata$x	ENDS
;	COMDAT ??0length_error@std@@QAE@ABV?$basic_string@DU?$char_traits@D@std@@V?$allocator@D@2@@1@@Z
_TEXT	SEGMENT PARA USE32 PUBLIC 'CODE'
_TEXT	ENDS
;	COMDAT ??0logic_error@std@@QAE@ABV?$basic_string@DU?$char_traits@D@std@@V?$allocator@D@2@@1@@Z
_TEXT	SEGMENT PARA USE32 PUBLIC 'CODE'
_TEXT	ENDS
;	COMDAT ??0?$allocator@D@std@@QAE@ABV01@@Z
_TEXT	SEGMENT PARA USE32 PUBLIC 'CODE'
_TEXT	ENDS
;	COMDAT ??$_Maklocchr@_W@std@@YA_WDPA_WABU_Cvtvec@@@Z
_TEXT	SEGMENT PARA USE32 PUBLIC 'CODE'
_TEXT	ENDS
;	COMDAT ??$_DebugHeapDelete@X@std@@YAXPAX@Z
_TEXT	SEGMENT PARA USE32 PUBLIC 'CODE'
_TEXT	ENDS
;	COMDAT ??$_Maklocstr@_W@std@@YAPA_WPBDPA_WABU_Cvtvec@@@Z
_TEXT	SEGMENT PARA USE32 PUBLIC 'CODE'
_TEXT	ENDS
;	COMDAT ??$_Maklocchr@D@std@@YADDPADABU_Cvtvec@@@Z
_TEXT	SEGMENT PARA USE32 PUBLIC 'CODE'
_TEXT	ENDS
;	COMDAT ??_C@_04LOAJBDKD@true?$AA@
CONST	SEGMENT DWORD USE32 PUBLIC 'CONST'
CONST	ENDS
;	COMDAT ??_C@_05LAPONLG@false?$AA@
CONST	SEGMENT DWORD USE32 PUBLIC 'CONST'
CONST	ENDS
;	COMDAT _wmemcpy
_TEXT	SEGMENT PARA USE32 PUBLIC 'CODE'
_TEXT	ENDS
;	COMDAT ?max_size@?$allocator@_W@std@@QBEIXZ
_TEXT	SEGMENT PARA USE32 PUBLIC 'CODE'
_TEXT	ENDS
;	COMDAT ?allocate@?$allocator@_W@std@@QAEPA_WI@Z
_TEXT	SEGMENT PARA USE32 PUBLIC 'CODE'
_TEXT	ENDS
;	COMDAT ??$_Allocate@_W@std@@YAPA_WIPA_W@Z
_TEXT	SEGMENT PARA USE32 PUBLIC 'CODE'
_TEXT	ENDS
;	COMDAT ??_C@_01GFHCPBMG@C?$AA@
CONST	SEGMENT DWORD USE32 PUBLIC 'CONST'
CONST	ENDS
;	COMDAT ?_Peek@?$istreambuf_iterator@_WU?$char_traits@_W@std@@@std@@AAE_WXZ
_TEXT	SEGMENT PARA USE32 PUBLIC 'CODE'
_TEXT	ENDS
;	COMDAT ?_Peek@?$istreambuf_iterator@DU?$char_traits@D@std@@@std@@AAEDXZ
_TEXT	SEGMENT PARA USE32 PUBLIC 'CODE'
_TEXT	ENDS
;	COMDAT ??$use_facet@V?$ctype@_W@std@@@std@@YAABV?$ctype@_W@0@ABVlocale@0@@Z
_TEXT	SEGMENT PARA USE32 PUBLIC 'CODE'
_TEXT	ENDS
;	COMDAT ??_S?$ctype@_W@std@@6B@
CONST	SEGMENT DWORD USE32 PUBLIC 'CONST'
CONST	ENDS
;	COMDAT ??_R4?$ctype@_W@std@@6B@
rdata$r	SEGMENT DWORD USE32 PUBLIC 'CONST'
rdata$r	ENDS
;	COMDAT ??_R0?AV?$ctype@_W@std@@@8
_DATA	SEGMENT DWORD USE32 PUBLIC 'DATA'
_DATA	ENDS
;	COMDAT ??_R3?$ctype@_W@std@@8
rdata$r	SEGMENT DWORD USE32 PUBLIC 'CONST'
rdata$r	ENDS
;	COMDAT ??_R2?$ctype@_W@std@@8
rdata$r	SEGMENT DWORD USE32 PUBLIC 'CONST'
rdata$r	ENDS
;	COMDAT ??_R1A@?0A@A@?$ctype@_W@std@@8
rdata$r	SEGMENT DWORD USE32 PUBLIC 'CONST'
rdata$r	ENDS
;	COMDAT ??_R1A@?0A@A@ctype_base@std@@8
rdata$r	SEGMENT DWORD USE32 PUBLIC 'CONST'
rdata$r	ENDS
;	COMDAT ??_R0?AUctype_base@std@@@8
_DATA	SEGMENT DWORD USE32 PUBLIC 'DATA'
_DATA	ENDS
;	COMDAT ??_G?$ctype@_W@std@@MAEPAXI@Z
_TEXT	SEGMENT PARA USE32 PUBLIC 'CODE'
_TEXT	ENDS
;	COMDAT ??_C@_08EPJLHIJG@bad?5cast?$AA@
CONST	SEGMENT DWORD USE32 PUBLIC 'CONST'
CONST	ENDS
;	COMDAT __TI2?AVbad_cast@@
xdata$x	SEGMENT DWORD USE32 PUBLIC 'CONST'
xdata$x	ENDS
;	COMDAT __CTA2?AVbad_cast@@
xdata$x	SEGMENT DWORD USE32 PUBLIC 'CONST'
xdata$x	ENDS
;	COMDAT __CT??_R0?AVbad_cast@@@8??0bad_cast@@QAE@ABV0@@Z12
xdata$x	SEGMENT DWORD USE32 PUBLIC 'CONST'
xdata$x	ENDS
;	COMDAT ??_R0?AVbad_cast@@@8
_DATA	SEGMENT DWORD USE32 PUBLIC 'DATA'
_DATA	ENDS
;	COMDAT ??$_DebugHeapDelete@Vfacet@locale@std@@@std@@YAXPAVfacet@locale@0@@Z
_TEXT	SEGMENT PARA USE32 PUBLIC 'CODE'
_TEXT	ENDS
;	COMDAT ??$use_facet@V?$ctype@D@std@@@std@@YAABV?$ctype@D@0@ABVlocale@0@@Z
_TEXT	SEGMENT PARA USE32 PUBLIC 'CODE'
_TEXT	ENDS
;	COMDAT ??_S?$ctype@D@std@@6B@
CONST	SEGMENT DWORD USE32 PUBLIC 'CONST'
CONST	ENDS
;	COMDAT ??_R4?$ctype@D@std@@6B@
rdata$r	SEGMENT DWORD USE32 PUBLIC 'CONST'
rdata$r	ENDS
;	COMDAT ??_R0?AV?$ctype@D@std@@@8
_DATA	SEGMENT DWORD USE32 PUBLIC 'DATA'
_DATA	ENDS
;	COMDAT ??_R3?$ctype@D@std@@8
rdata$r	SEGMENT DWORD USE32 PUBLIC 'CONST'
rdata$r	ENDS
;	COMDAT ??_R2?$ctype@D@std@@8
rdata$r	SEGMENT DWORD USE32 PUBLIC 'CONST'
rdata$r	ENDS
;	COMDAT ??_R1A@?0A@A@?$ctype@D@std@@8
rdata$r	SEGMENT DWORD USE32 PUBLIC 'CONST'
rdata$r	ENDS
;	COMDAT ??_G?$ctype@D@std@@MAEPAXI@Z
_TEXT	SEGMENT PARA USE32 PUBLIC 'CODE'
_TEXT	ENDS
;	COMDAT ??_S?$numpunct@_W@std@@6B@
CONST	SEGMENT DWORD USE32 PUBLIC 'CONST'
CONST	ENDS
;	COMDAT ??_S?$numpunct@D@std@@6B@
CONST	SEGMENT DWORD USE32 PUBLIC 'CONST'
CONST	ENDS
;	COMDAT _wmemmove
_TEXT	SEGMENT PARA USE32 PUBLIC 'CODE'
_TEXT	ENDS
;	COMDAT ?deallocate@?$allocator@_W@std@@QAEXPA_WI@Z
_TEXT	SEGMENT PARA USE32 PUBLIC 'CODE'
_TEXT	ENDS
;	COMDAT ??0?$allocator@_W@std@@QAE@ABV01@@Z
_TEXT	SEGMENT PARA USE32 PUBLIC 'CODE'
_TEXT	ENDS
;	COMDAT ??$?HDU?$char_traits@D@std@@V?$allocator@D@1@@std@@YA?AV?$basic_string@DU?$char_traits@D@std@@V?$allocator@D@2@@0@ABV10@0@Z
_TEXT	SEGMENT PARA USE32 PUBLIC 'CODE'
_TEXT	ENDS
;	COMDAT ??$?HDU?$char_traits@D@std@@V?$allocator@D@1@@std@@YA?AV?$basic_string@DU?$char_traits@D@std@@V?$allocator@D@2@@0@ABV10@PBD@Z
_TEXT	SEGMENT PARA USE32 PUBLIC 'CODE'
_TEXT	ENDS
;	COMDAT ??0?$allocator@D@std@@QAE@XZ
_TEXT	SEGMENT PARA USE32 PUBLIC 'CODE'
_TEXT	ENDS
;	COMDAT ??_7BCMenuMemDC@@6B@
CONST	SEGMENT DWORD USE32 PUBLIC 'CONST'
CONST	ENDS
;	COMDAT ??_7IData@@6B@
CONST	SEGMENT DWORD USE32 PUBLIC 'CONST'
CONST	ENDS
sxdata	SEGMENT DWORD USE32 'SXDATA'
sxdata	ENDS
FLAT	GROUP _DATA, CONST, _BSS
	ASSUME	CS: FLAT, DS: FLAT, SS: FLAT
endif

INCLUDELIB MSVCRTD
INCLUDELIB OLDNAMES

PUBLIC	?m_pTopPanelControl@CTopPanelControl@@2PAV1@A	; CTopPanelControl::m_pTopPanelControl
_BSS	SEGMENT
?m_pTopPanelControl@CTopPanelControl@@2PAV1@A DD 01H DUP (?) ; CTopPanelControl::m_pTopPanelControl
_BSS	ENDS
CONST	SEGMENT
$SG189768 DB	'int', 00H
CONST	ENDS
_DATA	SEGMENT
_TYPE_CONFIG_INT DD FLAT:$SG189768
_DATA	ENDS
CONST	SEGMENT
$SG189770 DB	'str', 00H
CONST	ENDS
_DATA	SEGMENT
_TYPE_CONFIG_STR DD FLAT:$SG189770
_DATA	ENDS
CONST	SEGMENT
$SG189772 DB	'double', 00H
CONST	ENDS
_DATA	SEGMENT
_TYPE_CONFIG_DOUBLE DD FLAT:$SG189772
_DATA	ENDS
CONST	SEGMENT
	ORG $+1
$SG189774 DB	'bool', 00H
CONST	ENDS
_DATA	SEGMENT
_TYPE_CONFIG_BOOL DD FLAT:$SG189774
_DATA	ENDS
CONST	SEGMENT
	ORG $+3
$SG189776 DB	'sepint', 00H
CONST	ENDS
_DATA	SEGMENT
_TYPE_CONFIG_INT_HASSEP DD FLAT:$SG189776
_DATA	ENDS
CONST	SEGMENT
	ORG $+1
$SG189778 DB	'sepstr', 00H
CONST	ENDS
_DATA	SEGMENT
_TYPE_CONFIG_STR_HASSEP DD FLAT:$SG189778
_DATA	ENDS
CONST	SEGMENT
	ORG $+1
$SG189780 DB	'sepdouble', 00H
CONST	ENDS
_DATA	SEGMENT
_TYPE_CONFIG_DOUBLE_HASSEP DD FLAT:$SG189780
_DATA	ENDS
CONST	SEGMENT
	ORG $+2
$SG189782 DB	'sepbool', 00H
CONST	ENDS
_DATA	SEGMENT
_TYPE_CONFIG_BOOL_HASSEP DD FLAT:$SG189782
_DATA	ENDS
CONST	SEGMENT
$SG189784 DB	'App', 00H
CONST	ENDS
_DATA	SEGMENT
_CONF_APP_MODULE_NAME DD FLAT:$SG189784
_DATA	ENDS
CONST	SEGMENT
$SG189786 DB	'SwfPath', 00H
CONST	ENDS
_DATA	SEGMENT
_CONF_APP_SWF_PATH DD FLAT:$SG189786
_DATA	ENDS
CONST	SEGMENT
$SG189788 DB	'MainWndHold', 00H
CONST	ENDS
_DATA	SEGMENT
_CONF_APP_MAINWND_HOLD DD FLAT:$SG189788
_DATA	ENDS
CONST	SEGMENT
$SG189790 DB	'RunCount', 00H
CONST	ENDS
_DATA	SEGMENT
_CONF_APP_RUN_COUNT DD FLAT:$SG189790
_DATA	ENDS
CONST	SEGMENT
	ORG $+3
$SG189792 DB	'PlayedGame', 00H
CONST	ENDS
_DATA	SEGMENT
_CONF_APP_PLAYED_GAME DD FLAT:$SG189792
_DATA	ENDS
CONST	SEGMENT
	ORG $+1
$SG189794 DB	'playedPcGame', 00H
CONST	ENDS
_DATA	SEGMENT
_CONF_APP_PLAYED_PC_GAME DD FLAT:$SG189794
_DATA	ENDS
CONST	SEGMENT
	ORG $+3
$SG189796 DB	'PlayedIconSize', 00H
CONST	ENDS
_DATA	SEGMENT
_CONF_APP_PLAYED_ICON_SIZE DD FLAT:$SG189796
_DATA	ENDS
CONST	SEGMENT
	ORG $+1
$SG189798 DB	'PictureSavePath', 00H
CONST	ENDS
_DATA	SEGMENT
_CONF_APP_PIC_SAVE_PATH DD FLAT:$SG189798
_DATA	ENDS
CONST	SEGMENT
$SG189805 DB	'Setting', 00H
CONST	ENDS
_DATA	SEGMENT
_CONF_SETTING_MODULE_NAME DD FLAT:$SG189805
_DATA	ENDS
CONST	SEGMENT
$SG189807 DB	'skin', 00H
CONST	ENDS
_DATA	SEGMENT
_CONF_SETTING_SKIN_IDX DD FLAT:$SG189807
_DATA	ENDS
CONST	SEGMENT
	ORG $+3
$SG189809 DB	'MainPage', 00H
CONST	ENDS
_DATA	SEGMENT
_CONF_SETTING_CONFIG_MAIN_PAGE DD FLAT:$SG189809
_DATA	ENDS
CONST	SEGMENT
	ORG $+3
$SG189811 DB	'ProblemReport', 00H
CONST	ENDS
_DATA	SEGMENT
_CONF_SETTING_CONFIG_PROBLEM_REPORT DD FLAT:$SG189811
_DATA	ENDS
CONST	SEGMENT
	ORG $+2
$SG189813 DB	'HomePage', 00H
CONST	ENDS
_DATA	SEGMENT
_CONF_SETTING_CONFIG_HOME_PAGE DD FLAT:$SG189813
_DATA	ENDS
CONST	SEGMENT
	ORG $+3
$SG189815 DB	'askexit', 00H
CONST	ENDS
_DATA	SEGMENT
_CONF_SETTING_CONFIG_IFASKEXIT DD FLAT:$SG189815
_DATA	ENDS
CONST	SEGMENT
$SG189817 DB	'exitchoice', 00H
CONST	ENDS
_DATA	SEGMENT
_CONF_SETTING_CONFIG_EXITCHOICE DD FLAT:$SG189817
_DATA	ENDS
CONST	SEGMENT
	ORG $+1
$SG189819 DB	'UN', 00H
CONST	ENDS
_DATA	SEGMENT
_CONF_SETTING_LOGIN_USER_NAME DD FLAT:$SG189819
_DATA	ENDS
CONST	SEGMENT
	ORG $+1
$SG189821 DB	'PW', 00H
CONST	ENDS
_DATA	SEGMENT
_CONF_SETTING_LOGIN_PASSWORD DD FLAT:$SG189821
_DATA	ENDS
CONST	SEGMENT
	ORG $+1
$SG189823 DB	'NetID', 00H
CONST	ENDS
_DATA	SEGMENT
_CONF_SETTING_NETID DD FLAT:$SG189823
_DATA	ENDS
CONST	SEGMENT
	ORG $+2
$SG189825 DB	'ChangeColorValue', 00H
CONST	ENDS
_DATA	SEGMENT
_CONF_SETTING_COLOR DD FLAT:$SG189825
_DATA	ENDS
CONST	SEGMENT
	ORG $+3
$SG189827 DB	'changeColorLight', 00H
CONST	ENDS
_DATA	SEGMENT
_CONF_SETTING_LIGHT DD FLAT:$SG189827
_DATA	ENDS
CONST	SEGMENT
	ORG $+3
$SG189829 DB	'ColorIndex', 00H
CONST	ENDS
_DATA	SEGMENT
_CONF_SETTING_COLOR_BTN_INDEX DD FLAT:$SG189829
_DATA	ENDS
CONST	SEGMENT
	ORG $+1
$SG189831 DB	'ColorUser', 00H
CONST	ENDS
_DATA	SEGMENT
_CONF_SETTING_COLOR_USER DD FLAT:$SG189831
_DATA	ENDS
CONST	SEGMENT
	ORG $+2
$SG189833 DB	'FirstTimeChangeSkin', 00H
CONST	ENDS
_DATA	SEGMENT
_CONF_SETTING_FIRST_TIME_CHANGESKIN DD FLAT:$SG189833
_DATA	ENDS
CONST	SEGMENT
$SG190015 DB	'\skin\', 00H
	ORG $+1
$SG190027 DB	'\skin.jpg', 00H
	ORG $+2
$SG190471 DB	'D:\Program Files (x86)\Microsoft Visual Studio .NET 2003'
	DB	'\Vc7\atlmfc\include\afxtempl.h', 00H
	ORG $+1
$SG190485 DB	'D:\Program Files (x86)\Microsoft Visual Studio .NET 2003'
	DB	'\Vc7\atlmfc\include\afxtempl.h', 00H
	ORG $+1
$SG190501 DB	'with ', 00H
	ORG $+2
$SG190502 DB	' elements', 00H
	ORG $+2
$SG190504 DB	0aH, 00H
	ORG $+2
$SG190511 DB	0aH, 00H
	ORG $+6
$SG190519 DB	'D:\Program Files (x86)\Microsoft Visual Studio .NET 2003'
	DB	'\Vc7\atlmfc\include\afxtempl.h', 00H
	ORG $+1
$SG190521 DB	'D:\Program Files (x86)\Microsoft Visual Studio .NET 2003'
	DB	'\Vc7\atlmfc\include\afxtempl.h', 00H
	ORG $+1
$SG190524 DB	'D:\Program Files (x86)\Microsoft Visual Studio .NET 2003'
	DB	'\Vc7\atlmfc\include\afxtempl.h', 00H
	ORG $+1
$SG190526 DB	'D:\Program Files (x86)\Microsoft Visual Studio .NET 2003'
	DB	'\Vc7\atlmfc\include\afxtempl.h', 00H
	ORG $+1
$SG190528 DB	'D:\Program Files (x86)\Microsoft Visual Studio .NET 2003'
	DB	'\Vc7\atlmfc\include\afxtempl.h', 00H
	ORG $+1
$SG190531 DB	'D:\Program Files (x86)\Microsoft Visual Studio .NET 2003'
	DB	'\Vc7\atlmfc\include\afxtempl.h', 00H
	ORG $+1
$SG190709 DB	'D:\Program Files (x86)\Microsoft Visual Studio .NET 2003'
	DB	'\Vc7\atlmfc\include\afxtempl.h', 00H
	ORG $+1
$SG190711 DB	'D:\Program Files (x86)\Microsoft Visual Studio .NET 2003'
	DB	'\Vc7\atlmfc\include\afxtempl.h', 00H
	ORG $+1
$SG190726 DB	'D:\Program Files (x86)\Microsoft Visual Studio .NET 2003'
	DB	'\Vc7\atlmfc\include\afxtempl.h', 00H
	ORG $+1
$SG190733 DB	'D:\Program Files (x86)\Microsoft Visual Studio .NET 2003'
	DB	'\Vc7\atlmfc\include\afxtempl.h', 00H
	ORG $+1
$SG190769 DB	'D:\Program Files (x86)\Microsoft Visual Studio .NET 2003'
	DB	'\Vc7\atlmfc\include\afxtempl.h', 00H
	ORG $+1
$SG190773 DB	'D:\Program Files (x86)\Microsoft Visual Studio .NET 2003'
	DB	'\Vc7\atlmfc\include\afxtempl.h', 00H
	ORG $+1
$SG190783 DB	'D:\Program Files (x86)\Microsoft Visual Studio .NET 2003'
	DB	'\Vc7\atlmfc\include\afxtempl.h', 00H
	ORG $+1
$SG190800 DB	'D:\Program Files (x86)\Microsoft Visual Studio .NET 2003'
	DB	'\Vc7\atlmfc\include\afxtempl.h', 00H
	ORG $+1
$SG190825 DB	'D:\Program Files (x86)\Microsoft Visual Studio .NET 2003'
	DB	'\Vc7\atlmfc\include\afxtempl.h', 00H
	ORG $+1
_ID_DATA_PANELCHANGE DD 05H
CONST	ENDS
PUBLIC	??0CTopPanelControl@@AAE@XZ			; CTopPanelControl::CTopPanelControl
EXTRN	__RTC_InitBase:NEAR
EXTRN	__RTC_Shutdown:NEAR
;	COMDAT rtc$IMZ
; File d:\boxgit\playbox\playbox\dev\prj\playbox\src\module\toppanel\toppanel_control.cpp
rtc$IMZ	SEGMENT
__RTC_InitBase.rtc$IMZ DD FLAT:__RTC_InitBase
rtc$IMZ	ENDS
;	COMDAT rtc$TMZ
rtc$TMZ	SEGMENT
__RTC_Shutdown.rtc$TMZ DD FLAT:__RTC_Shutdown
; Function compile flags: /Odt /RTCsu
rtc$TMZ	ENDS
_TEXT	SEGMENT
_this$ = -4						; size = 4
??0CTopPanelControl@@AAE@XZ PROC NEAR			; CTopPanelControl::CTopPanelControl
; _this$ = ecx

; 16   : {

  00000	55		 push	 ebp
  00001	8b ec		 mov	 ebp, esp
  00003	51		 push	 ecx
  00004	c7 45 fc cc cc
	cc cc		 mov	 DWORD PTR [ebp-4], -858993460 ; ccccccccH
  0000b	89 4d fc	 mov	 DWORD PTR _this$[ebp], ecx

; 17   : }

  0000e	8b 45 fc	 mov	 eax, DWORD PTR _this$[ebp]
  00011	8b e5		 mov	 esp, ebp
  00013	5d		 pop	 ebp
  00014	c3		 ret	 0
??0CTopPanelControl@@AAE@XZ ENDP			; CTopPanelControl::CTopPanelControl
_TEXT	ENDS
PUBLIC	??1CTopPanelControl@@AAE@XZ			; CTopPanelControl::~CTopPanelControl
; Function compile flags: /Odt /RTCsu
_TEXT	SEGMENT
_this$ = -4						; size = 4
??1CTopPanelControl@@AAE@XZ PROC NEAR			; CTopPanelControl::~CTopPanelControl
; _this$ = ecx

; 20   : {

  00020	55		 push	 ebp
  00021	8b ec		 mov	 ebp, esp
  00023	51		 push	 ecx
  00024	c7 45 fc cc cc
	cc cc		 mov	 DWORD PTR [ebp-4], -858993460 ; ccccccccH
  0002b	89 4d fc	 mov	 DWORD PTR _this$[ebp], ecx

; 21   : }

  0002e	8b e5		 mov	 esp, ebp
  00030	5d		 pop	 ebp
  00031	c3		 ret	 0
??1CTopPanelControl@@AAE@XZ ENDP			; CTopPanelControl::~CTopPanelControl
_TEXT	ENDS
PUBLIC	?GetInstance@CTopPanelControl@@SAPAV1@XZ	; CTopPanelControl::GetInstance
EXTRN	??2@YAPAXI@Z:NEAR				; operator new
EXTRN	??3@YAXPAX@Z:NEAR				; operator delete
EXTRN	__except_list:DWORD
EXTRN	__RTC_CheckEsp:NEAR
EXTRN	___CxxFrameHandler:NEAR
xdata$x	SEGMENT
$T191370 DD	0ffffffffH
	DD	FLAT:$L191362
$T191366 DD	019930520H
	DD	01H
	DD	FLAT:$T191370
	DD	2 DUP(00H)
	DD	2 DUP(00H)
; Function compile flags: /Odt /RTCsu
xdata$x	ENDS
_TEXT	SEGMENT
tv72 = -24						; size = 4
$T191359 = -20						; size = 4
$T191358 = -16						; size = 4
__$EHRec$ = -12						; size = 12
?GetInstance@CTopPanelControl@@SAPAV1@XZ PROC NEAR	; CTopPanelControl::GetInstance

; 24   : {

  00040	55		 push	 ebp
  00041	8b ec		 mov	 ebp, esp
  00043	6a ff		 push	 -1
  00045	68 00 00 00 00	 push	 __ehhandler$?GetInstance@CTopPanelControl@@SAPAV1@XZ
  0004a	64 a1 00 00 00
	00		 mov	 eax, DWORD PTR fs:__except_list
  00050	50		 push	 eax
  00051	64 89 25 00 00
	00 00		 mov	 DWORD PTR fs:__except_list, esp
  00058	83 ec 0c	 sub	 esp, 12			; 0000000cH
  0005b	c7 45 e8 cc cc
	cc cc		 mov	 DWORD PTR [ebp-24], -858993460 ; ccccccccH
  00062	c7 45 ec cc cc
	cc cc		 mov	 DWORD PTR [ebp-20], -858993460 ; ccccccccH
  00069	c7 45 f0 cc cc
	cc cc		 mov	 DWORD PTR [ebp-16], -858993460 ; ccccccccH

; 25   : 	if( m_pTopPanelControl == NULL )

  00070	83 3d 00 00 00
	00 00		 cmp	 DWORD PTR ?m_pTopPanelControl@CTopPanelControl@@2PAV1@A, 0 ; CTopPanelControl::m_pTopPanelControl
  00077	75 44		 jne	 SHORT $L189976

; 26   : 	{
; 27   : 		m_pTopPanelControl = new CTopPanelControl();

  00079	6a 04		 push	 4
  0007b	e8 00 00 00 00	 call	 ??2@YAPAXI@Z		; operator new
  00080	83 c4 04	 add	 esp, 4
  00083	89 45 ec	 mov	 DWORD PTR $T191359[ebp], eax
  00086	c7 45 fc 00 00
	00 00		 mov	 DWORD PTR __$EHRec$[ebp+8], 0
  0008d	83 7d ec 00	 cmp	 DWORD PTR $T191359[ebp], 0
  00091	74 0d		 je	 SHORT $L191360
  00093	8b 4d ec	 mov	 ecx, DWORD PTR $T191359[ebp]
  00096	e8 00 00 00 00	 call	 ??0CTopPanelControl@@AAE@XZ ; CTopPanelControl::CTopPanelControl
  0009b	89 45 e8	 mov	 DWORD PTR tv72[ebp], eax
  0009e	eb 07		 jmp	 SHORT $L191361
$L191360:
  000a0	c7 45 e8 00 00
	00 00		 mov	 DWORD PTR tv72[ebp], 0
$L191361:
  000a7	8b 45 e8	 mov	 eax, DWORD PTR tv72[ebp]
  000aa	89 45 f0	 mov	 DWORD PTR $T191358[ebp], eax
  000ad	c7 45 fc ff ff
	ff ff		 mov	 DWORD PTR __$EHRec$[ebp+8], -1
  000b4	8b 4d f0	 mov	 ecx, DWORD PTR $T191358[ebp]
  000b7	89 0d 00 00 00
	00		 mov	 DWORD PTR ?m_pTopPanelControl@CTopPanelControl@@2PAV1@A, ecx ; CTopPanelControl::m_pTopPanelControl
$L189976:

; 28   : 	}
; 29   : 	return m_pTopPanelControl;

  000bd	a1 00 00 00 00	 mov	 eax, DWORD PTR ?m_pTopPanelControl@CTopPanelControl@@2PAV1@A ; CTopPanelControl::m_pTopPanelControl

; 30   : }

  000c2	8b 4d f4	 mov	 ecx, DWORD PTR __$EHRec$[ebp]
  000c5	64 89 0d 00 00
	00 00		 mov	 DWORD PTR fs:__except_list, ecx
  000cc	83 c4 18	 add	 esp, 24			; 00000018H
  000cf	3b ec		 cmp	 ebp, esp
  000d1	e8 00 00 00 00	 call	 __RTC_CheckEsp
  000d6	8b e5		 mov	 esp, ebp
  000d8	5d		 pop	 ebp
  000d9	c3		 ret	 0
_TEXT	ENDS
text$x	SEGMENT
$L191362:
  00000	8b 45 ec	 mov	 eax, DWORD PTR $T191359[ebp]
  00003	50		 push	 eax
  00004	e8 00 00 00 00	 call	 ??3@YAXPAX@Z		; operator delete
  00009	59		 pop	 ecx
  0000a	c3		 ret	 0
__ehhandler$?GetInstance@CTopPanelControl@@SAPAV1@XZ:
  0000b	b8 00 00 00 00	 mov	 eax, OFFSET FLAT:$T191366
  00010	e9 00 00 00 00	 jmp	 ___CxxFrameHandler
text$x	ENDS
?GetInstance@CTopPanelControl@@SAPAV1@XZ ENDP		; CTopPanelControl::GetInstance
PUBLIC	?DeleteInstance@CTopPanelControl@@SAXXZ		; CTopPanelControl::DeleteInstance
PUBLIC	??_GCTopPanelControl@@AAEPAXI@Z			; CTopPanelControl::`scalar deleting destructor'
; Function compile flags: /Odt /RTCsu
_TEXT	SEGMENT
tv69 = -12						; size = 4
$T191374 = -8						; size = 4
$T191373 = -4						; size = 4
?DeleteInstance@CTopPanelControl@@SAXXZ PROC NEAR	; CTopPanelControl::DeleteInstance

; 33   : {

  000e0	55		 push	 ebp
  000e1	8b ec		 mov	 ebp, esp
  000e3	83 ec 0c	 sub	 esp, 12			; 0000000cH
  000e6	c7 45 f4 cc cc
	cc cc		 mov	 DWORD PTR [ebp-12], -858993460 ; ccccccccH
  000ed	c7 45 f8 cc cc
	cc cc		 mov	 DWORD PTR [ebp-8], -858993460 ; ccccccccH
  000f4	c7 45 fc cc cc
	cc cc		 mov	 DWORD PTR [ebp-4], -858993460 ; ccccccccH

; 34   : 	if( m_pTopPanelControl != NULL )

  000fb	83 3d 00 00 00
	00 00		 cmp	 DWORD PTR ?m_pTopPanelControl@CTopPanelControl@@2PAV1@A, 0 ; CTopPanelControl::m_pTopPanelControl
  00102	74 2a		 je	 SHORT $L189982

; 35   : 	{
; 36   : 		delete m_pTopPanelControl;

  00104	a1 00 00 00 00	 mov	 eax, DWORD PTR ?m_pTopPanelControl@CTopPanelControl@@2PAV1@A ; CTopPanelControl::m_pTopPanelControl
  00109	89 45 f8	 mov	 DWORD PTR $T191374[ebp], eax
  0010c	8b 4d f8	 mov	 ecx, DWORD PTR $T191374[ebp]
  0010f	89 4d fc	 mov	 DWORD PTR $T191373[ebp], ecx
  00112	83 7d fc 00	 cmp	 DWORD PTR $T191373[ebp], 0
  00116	74 0f		 je	 SHORT $L191375
  00118	6a 01		 push	 1
  0011a	8b 4d fc	 mov	 ecx, DWORD PTR $T191373[ebp]
  0011d	e8 00 00 00 00	 call	 ??_GCTopPanelControl@@AAEPAXI@Z
  00122	89 45 f4	 mov	 DWORD PTR tv69[ebp], eax
  00125	eb 07		 jmp	 SHORT $L189982
$L191375:
  00127	c7 45 f4 00 00
	00 00		 mov	 DWORD PTR tv69[ebp], 0
$L189982:

; 37   : 	}
; 38   : }

  0012e	83 c4 0c	 add	 esp, 12			; 0000000cH
  00131	3b ec		 cmp	 ebp, esp
  00133	e8 00 00 00 00	 call	 __RTC_CheckEsp
  00138	8b e5		 mov	 esp, ebp
  0013a	5d		 pop	 ebp
  0013b	c3		 ret	 0
?DeleteInstance@CTopPanelControl@@SAXXZ ENDP		; CTopPanelControl::DeleteInstance
; Function compile flags: /Odt /RTCsu
_TEXT	ENDS
;	COMDAT ??_GCTopPanelControl@@AAEPAXI@Z
_TEXT	SEGMENT
_this$ = -4						; size = 4
___flags$ = 8						; size = 4
??_GCTopPanelControl@@AAEPAXI@Z PROC NEAR		; CTopPanelControl::`scalar deleting destructor', COMDAT
; _this$ = ecx
  00000	55		 push	 ebp
  00001	8b ec		 mov	 ebp, esp
  00003	51		 push	 ecx
  00004	c7 45 fc cc cc
	cc cc		 mov	 DWORD PTR [ebp-4], -858993460 ; ccccccccH
  0000b	89 4d fc	 mov	 DWORD PTR _this$[ebp], ecx
  0000e	8b 4d fc	 mov	 ecx, DWORD PTR _this$[ebp]
  00011	e8 00 00 00 00	 call	 ??1CTopPanelControl@@AAE@XZ ; CTopPanelControl::~CTopPanelControl
  00016	8b 45 08	 mov	 eax, DWORD PTR ___flags$[ebp]
  00019	83 e0 01	 and	 eax, 1
  0001c	74 0c		 je	 SHORT $L189989
  0001e	8b 4d fc	 mov	 ecx, DWORD PTR _this$[ebp]
  00021	51		 push	 ecx
  00022	e8 00 00 00 00	 call	 ??3@YAXPAX@Z		; operator delete
  00027	83 c4 04	 add	 esp, 4
$L189989:
  0002a	8b 45 fc	 mov	 eax, DWORD PTR _this$[ebp]
  0002d	83 c4 04	 add	 esp, 4
  00030	3b ec		 cmp	 ebp, esp
  00032	e8 00 00 00 00	 call	 __RTC_CheckEsp
  00037	8b e5		 mov	 esp, ebp
  00039	5d		 pop	 ebp
  0003a	c2 04 00	 ret	 4
??_GCTopPanelControl@@AAEPAXI@Z ENDP			; CTopPanelControl::`scalar deleting destructor'
_TEXT	ENDS
PUBLIC	?DoMin@CTopPanelControl@@QAEXXZ			; CTopPanelControl::DoMin
EXTRN	?AfxGetDataManager2@@YAPAVIDataManager@@XZ:NEAR	; AfxGetDataManager2
; Function compile flags: /Odt /RTCsu
_TEXT	SEGMENT
tv72 = -12						; size = 4
tv66 = -8						; size = 4
_this$ = -4						; size = 4
?DoMin@CTopPanelControl@@QAEXXZ PROC NEAR		; CTopPanelControl::DoMin
; _this$ = ecx

; 41   : {

  00140	55		 push	 ebp
  00141	8b ec		 mov	 ebp, esp
  00143	83 ec 0c	 sub	 esp, 12			; 0000000cH
  00146	56		 push	 esi
  00147	c7 45 f4 cc cc
	cc cc		 mov	 DWORD PTR [ebp-12], -858993460 ; ccccccccH
  0014e	c7 45 f8 cc cc
	cc cc		 mov	 DWORD PTR [ebp-8], -858993460 ; ccccccccH
  00155	c7 45 fc cc cc
	cc cc		 mov	 DWORD PTR [ebp-4], -858993460 ; ccccccccH
  0015c	89 4d fc	 mov	 DWORD PTR _this$[ebp], ecx

; 42   : 	GLOBAL_PANELCHANGEDATA->IPanelChange_Min();

  0015f	e8 00 00 00 00	 call	 ?AfxGetDataManager2@@YAPAVIDataManager@@XZ ; AfxGetDataManager2
  00164	89 45 f8	 mov	 DWORD PTR tv66[ebp], eax
  00167	8b f4		 mov	 esi, esp
  00169	68 00 00 00 00	 push	 OFFSET FLAT:_ID_DATA_PANELCHANGE
  0016e	8b 45 f8	 mov	 eax, DWORD PTR tv66[ebp]
  00171	8b 10		 mov	 edx, DWORD PTR [eax]
  00173	8b 4d f8	 mov	 ecx, DWORD PTR tv66[ebp]
  00176	ff 52 0c	 call	 DWORD PTR [edx+12]
  00179	3b f4		 cmp	 esi, esp
  0017b	e8 00 00 00 00	 call	 __RTC_CheckEsp
  00180	89 45 f4	 mov	 DWORD PTR tv72[ebp], eax
  00183	8b 45 f4	 mov	 eax, DWORD PTR tv72[ebp]
  00186	8b 10		 mov	 edx, DWORD PTR [eax]
  00188	8b f4		 mov	 esi, esp
  0018a	8b 4d f4	 mov	 ecx, DWORD PTR tv72[ebp]
  0018d	ff 52 1c	 call	 DWORD PTR [edx+28]
  00190	3b f4		 cmp	 esi, esp
  00192	e8 00 00 00 00	 call	 __RTC_CheckEsp

; 43   : }

  00197	5e		 pop	 esi
  00198	83 c4 0c	 add	 esp, 12			; 0000000cH
  0019b	3b ec		 cmp	 ebp, esp
  0019d	e8 00 00 00 00	 call	 __RTC_CheckEsp
  001a2	8b e5		 mov	 esp, ebp
  001a4	5d		 pop	 ebp
  001a5	c3		 ret	 0
?DoMin@CTopPanelControl@@QAEXXZ ENDP			; CTopPanelControl::DoMin
_TEXT	ENDS
PUBLIC	?HoldWindow@CTopPanelControl@@QAEXXZ		; CTopPanelControl::HoldWindow
EXTRN	?AfxGetMainWindow@@YAPAVCWnd@@XZ:NEAR		; AfxGetMainWindow
EXTRN	?AfxGetUserConfig@@YAPAVAfxUserConfig@@XZ:NEAR	; AfxGetUserConfig
EXTRN	__imp_??0?$basic_string@DU?$char_traits@D@std@@V?$allocator@D@2@@std@@QAE@PBD@Z:NEAR
EXTRN	__imp_??1?$basic_string@DU?$char_traits@D@std@@V?$allocator@D@2@@std@@QAE@XZ:NEAR
EXTRN	?SetConfigBoolValue@AfxUserConfig@@QAEXABV?$basic_string@DU?$char_traits@D@std@@V?$allocator@D@2@@std@@0_N1@Z:NEAR ; AfxUserConfig::SetConfigBoolValue
EXTRN	__imp_?wndTopMost@CWnd@@2V1@B:BYTE
EXTRN	__imp_?wndNoTopMost@CWnd@@2V1@B:BYTE
EXTRN	?SetWindowPos@CWnd@@QAEHPBV1@HHHHI@Z:NEAR	; CWnd::SetWindowPos
xdata$x	SEGMENT
$T191391 DD	0ffffffffH
	DD	FLAT:$L191384
	DD	00H
	DD	FLAT:$L191385
	DD	0ffffffffH
	DD	FLAT:$L191386
	DD	02H
	DD	FLAT:$L191387
$T191389 DD	019930520H
	DD	04H
	DD	FLAT:$T191391
	DD	2 DUP(00H)
	DD	2 DUP(00H)
; Function compile flags: /Odt /RTCsu
xdata$x	ENDS
_TEXT	SEGMENT
$T191383 = -128						; size = 28
$T191382 = -100						; size = 28
$T191381 = -72						; size = 28
$T191380 = -44						; size = 28
_this$ = -16						; size = 4
__$EHRec$ = -12						; size = 12
?HoldWindow@CTopPanelControl@@QAEXXZ PROC NEAR		; CTopPanelControl::HoldWindow
; _this$ = ecx

; 46   : {

  001b0	55		 push	 ebp
  001b1	8b ec		 mov	 ebp, esp
  001b3	6a ff		 push	 -1
  001b5	68 00 00 00 00	 push	 __ehhandler$?HoldWindow@CTopPanelControl@@QAEXXZ
  001ba	64 a1 00 00 00
	00		 mov	 eax, DWORD PTR fs:__except_list
  001c0	50		 push	 eax
  001c1	64 89 25 00 00
	00 00		 mov	 DWORD PTR fs:__except_list, esp
  001c8	83 ec 74	 sub	 esp, 116		; 00000074H
  001cb	56		 push	 esi
  001cc	57		 push	 edi
  001cd	51		 push	 ecx
  001ce	8d 7d 80	 lea	 edi, DWORD PTR [ebp-128]
  001d1	b9 1d 00 00 00	 mov	 ecx, 29			; 0000001dH
  001d6	b8 cc cc cc cc	 mov	 eax, -858993460		; ccccccccH
  001db	f3 ab		 rep stosd
  001dd	59		 pop	 ecx
  001de	89 4d f0	 mov	 DWORD PTR _this$[ebp], ecx

; 47   : 	if( m_pWndTopPanel->m_bMainWndHold )

  001e1	8b 45 f0	 mov	 eax, DWORD PTR _this$[ebp]
  001e4	8b 08		 mov	 ecx, DWORD PTR [eax]
  001e6	0f b6 91 2c 06
	00 00		 movzx	 edx, BYTE PTR [ecx+1580]
  001ed	85 d2		 test	 edx, edx
  001ef	0f 84 b0 00 00
	00		 je	 $L189997

; 48   : 	{
; 49   : 		AfxGetMainWindow()->SetWindowPos(&CWnd::wndNoTopMost,-1,-1,-1,-1, SWP_NOSIZE|SWP_NOMOVE);

  001f5	6a 03		 push	 3
  001f7	6a ff		 push	 -1
  001f9	6a ff		 push	 -1
  001fb	6a ff		 push	 -1
  001fd	6a ff		 push	 -1
  001ff	a1 00 00 00 00	 mov	 eax, DWORD PTR __imp_?wndNoTopMost@CWnd@@2V1@B
  00204	50		 push	 eax
  00205	e8 00 00 00 00	 call	 ?AfxGetMainWindow@@YAPAVCWnd@@XZ ; AfxGetMainWindow
  0020a	8b c8		 mov	 ecx, eax
  0020c	e8 00 00 00 00	 call	 ?SetWindowPos@CWnd@@QAEHPBV1@HHHHI@Z ; CWnd::SetWindowPos

; 50   : 		m_pWndTopPanel->m_bMainWndHold = false;

  00211	8b 4d f0	 mov	 ecx, DWORD PTR _this$[ebp]
  00214	8b 11		 mov	 edx, DWORD PTR [ecx]
  00216	c6 82 2c 06 00
	00 00		 mov	 BYTE PTR [edx+1580], 0

; 51   : 		AfxGetUserConfig()->SetConfigBoolValue( CONF_APP_MODULE_NAME,CONF_APP_MAINWND_HOLD,false);

  0021d	8b f4		 mov	 esi, esp
  0021f	a1 00 00 00 00	 mov	 eax, DWORD PTR _CONF_APP_MAINWND_HOLD
  00224	50		 push	 eax
  00225	8d 4d d4	 lea	 ecx, DWORD PTR $T191380[ebp]
  00228	ff 15 00 00 00
	00		 call	 DWORD PTR __imp_??0?$basic_string@DU?$char_traits@D@std@@V?$allocator@D@2@@std@@QAE@PBD@Z
  0022e	3b f4		 cmp	 esi, esp
  00230	e8 00 00 00 00	 call	 __RTC_CheckEsp
  00235	c7 45 fc 00 00
	00 00		 mov	 DWORD PTR __$EHRec$[ebp+8], 0
  0023c	8b f4		 mov	 esi, esp
  0023e	8b 0d 00 00 00
	00		 mov	 ecx, DWORD PTR _CONF_APP_MODULE_NAME
  00244	51		 push	 ecx
  00245	8d 4d b8	 lea	 ecx, DWORD PTR $T191381[ebp]
  00248	ff 15 00 00 00
	00		 call	 DWORD PTR __imp_??0?$basic_string@DU?$char_traits@D@std@@V?$allocator@D@2@@std@@QAE@PBD@Z
  0024e	3b f4		 cmp	 esi, esp
  00250	e8 00 00 00 00	 call	 __RTC_CheckEsp
  00255	c6 45 fc 01	 mov	 BYTE PTR __$EHRec$[ebp+8], 1
  00259	6a 00		 push	 0
  0025b	6a 00		 push	 0
  0025d	8d 55 d4	 lea	 edx, DWORD PTR $T191380[ebp]
  00260	52		 push	 edx
  00261	8d 45 b8	 lea	 eax, DWORD PTR $T191381[ebp]
  00264	50		 push	 eax
  00265	e8 00 00 00 00	 call	 ?AfxGetUserConfig@@YAPAVAfxUserConfig@@XZ ; AfxGetUserConfig
  0026a	8b c8		 mov	 ecx, eax
  0026c	e8 00 00 00 00	 call	 ?SetConfigBoolValue@AfxUserConfig@@QAEXABV?$basic_string@DU?$char_traits@D@std@@V?$allocator@D@2@@std@@0_N1@Z ; AfxUserConfig::SetConfigBoolValue
  00271	c6 45 fc 00	 mov	 BYTE PTR __$EHRec$[ebp+8], 0
  00275	8b f4		 mov	 esi, esp
  00277	8d 4d b8	 lea	 ecx, DWORD PTR $T191381[ebp]
  0027a	ff 15 00 00 00
	00		 call	 DWORD PTR __imp_??1?$basic_string@DU?$char_traits@D@std@@V?$allocator@D@2@@std@@QAE@XZ
  00280	3b f4		 cmp	 esi, esp
  00282	e8 00 00 00 00	 call	 __RTC_CheckEsp
  00287	c7 45 fc ff ff
	ff ff		 mov	 DWORD PTR __$EHRec$[ebp+8], -1
  0028e	8b f4		 mov	 esi, esp
  00290	8d 4d d4	 lea	 ecx, DWORD PTR $T191380[ebp]
  00293	ff 15 00 00 00
	00		 call	 DWORD PTR __imp_??1?$basic_string@DU?$char_traits@D@std@@V?$allocator@D@2@@std@@QAE@XZ
  00299	3b f4		 cmp	 esi, esp
  0029b	e8 00 00 00 00	 call	 __RTC_CheckEsp

; 52   : 	}
; 53   : 	else

  002a0	e9 ad 00 00 00	 jmp	 $L189996
$L189997:

; 54   : 	{
; 55   : 		AfxGetMainWindow()->SetWindowPos(&CWnd::wndTopMost,-1,-1,-1,-1, SWP_NOSIZE|SWP_NOMOVE);

  002a5	6a 03		 push	 3
  002a7	6a ff		 push	 -1
  002a9	6a ff		 push	 -1
  002ab	6a ff		 push	 -1
  002ad	6a ff		 push	 -1
  002af	8b 0d 00 00 00
	00		 mov	 ecx, DWORD PTR __imp_?wndTopMost@CWnd@@2V1@B
  002b5	51		 push	 ecx
  002b6	e8 00 00 00 00	 call	 ?AfxGetMainWindow@@YAPAVCWnd@@XZ ; AfxGetMainWindow
  002bb	8b c8		 mov	 ecx, eax
  002bd	e8 00 00 00 00	 call	 ?SetWindowPos@CWnd@@QAEHPBV1@HHHHI@Z ; CWnd::SetWindowPos

; 56   : 		m_pWndTopPanel->m_bMainWndHold = true;

  002c2	8b 55 f0	 mov	 edx, DWORD PTR _this$[ebp]
  002c5	8b 02		 mov	 eax, DWORD PTR [edx]
  002c7	c6 80 2c 06 00
	00 01		 mov	 BYTE PTR [eax+1580], 1

; 57   : 		AfxGetUserConfig()->SetConfigBoolValue( CONF_APP_MODULE_NAME,CONF_APP_MAINWND_HOLD,true);

  002ce	8b f4		 mov	 esi, esp
  002d0	8b 0d 00 00 00
	00		 mov	 ecx, DWORD PTR _CONF_APP_MAINWND_HOLD
  002d6	51		 push	 ecx
  002d7	8d 4d 9c	 lea	 ecx, DWORD PTR $T191382[ebp]
  002da	ff 15 00 00 00
	00		 call	 DWORD PTR __imp_??0?$basic_string@DU?$char_traits@D@std@@V?$allocator@D@2@@std@@QAE@PBD@Z
  002e0	3b f4		 cmp	 esi, esp
  002e2	e8 00 00 00 00	 call	 __RTC_CheckEsp
  002e7	c7 45 fc 02 00
	00 00		 mov	 DWORD PTR __$EHRec$[ebp+8], 2
  002ee	8b f4		 mov	 esi, esp
  002f0	8b 15 00 00 00
	00		 mov	 edx, DWORD PTR _CONF_APP_MODULE_NAME
  002f6	52		 push	 edx
  002f7	8d 4d 80	 lea	 ecx, DWORD PTR $T191383[ebp]
  002fa	ff 15 00 00 00
	00		 call	 DWORD PTR __imp_??0?$basic_string@DU?$char_traits@D@std@@V?$allocator@D@2@@std@@QAE@PBD@Z
  00300	3b f4		 cmp	 esi, esp
  00302	e8 00 00 00 00	 call	 __RTC_CheckEsp
  00307	c6 45 fc 03	 mov	 BYTE PTR __$EHRec$[ebp+8], 3
  0030b	6a 00		 push	 0
  0030d	6a 01		 push	 1
  0030f	8d 45 9c	 lea	 eax, DWORD PTR $T191382[ebp]
  00312	50		 push	 eax
  00313	8d 4d 80	 lea	 ecx, DWORD PTR $T191383[ebp]
  00316	51		 push	 ecx
  00317	e8 00 00 00 00	 call	 ?AfxGetUserConfig@@YAPAVAfxUserConfig@@XZ ; AfxGetUserConfig
  0031c	8b c8		 mov	 ecx, eax
  0031e	e8 00 00 00 00	 call	 ?SetConfigBoolValue@AfxUserConfig@@QAEXABV?$basic_string@DU?$char_traits@D@std@@V?$allocator@D@2@@std@@0_N1@Z ; AfxUserConfig::SetConfigBoolValue
  00323	c6 45 fc 02	 mov	 BYTE PTR __$EHRec$[ebp+8], 2
  00327	8b f4		 mov	 esi, esp
  00329	8d 4d 80	 lea	 ecx, DWORD PTR $T191383[ebp]
  0032c	ff 15 00 00 00
	00		 call	 DWORD PTR __imp_??1?$basic_string@DU?$char_traits@D@std@@V?$allocator@D@2@@std@@QAE@XZ
  00332	3b f4		 cmp	 esi, esp
  00334	e8 00 00 00 00	 call	 __RTC_CheckEsp
  00339	c7 45 fc ff ff
	ff ff		 mov	 DWORD PTR __$EHRec$[ebp+8], -1
  00340	8b f4		 mov	 esi, esp
  00342	8d 4d 9c	 lea	 ecx, DWORD PTR $T191382[ebp]
  00345	ff 15 00 00 00
	00		 call	 DWORD PTR __imp_??1?$basic_string@DU?$char_traits@D@std@@V?$allocator@D@2@@std@@QAE@XZ
  0034b	3b f4		 cmp	 esi, esp
  0034d	e8 00 00 00 00	 call	 __RTC_CheckEsp
$L189996:

; 58   : 	}
; 59   : }

  00352	8b 4d f4	 mov	 ecx, DWORD PTR __$EHRec$[ebp]
  00355	64 89 0d 00 00
	00 00		 mov	 DWORD PTR fs:__except_list, ecx
  0035c	5f		 pop	 edi
  0035d	5e		 pop	 esi
  0035e	81 c4 80 00 00
	00		 add	 esp, 128		; 00000080H
  00364	3b ec		 cmp	 ebp, esp
  00366	e8 00 00 00 00	 call	 __RTC_CheckEsp
  0036b	8b e5		 mov	 esp, ebp
  0036d	5d		 pop	 ebp
  0036e	c3		 ret	 0
_TEXT	ENDS
text$x	SEGMENT
$L191384:
  00015	8b f4		 mov	 esi, esp
  00017	8d 4d d4	 lea	 ecx, DWORD PTR $T191380[ebp]
  0001a	ff 15 00 00 00
	00		 call	 DWORD PTR __imp_??1?$basic_string@DU?$char_traits@D@std@@V?$allocator@D@2@@std@@QAE@XZ
  00020	3b f4		 cmp	 esi, esp
  00022	e9 00 00 00 00	 jmp	 __RTC_CheckEsp
$L191385:
  00027	8b f4		 mov	 esi, esp
  00029	8d 4d b8	 lea	 ecx, DWORD PTR $T191381[ebp]
  0002c	ff 15 00 00 00
	00		 call	 DWORD PTR __imp_??1?$basic_string@DU?$char_traits@D@std@@V?$allocator@D@2@@std@@QAE@XZ
  00032	3b f4		 cmp	 esi, esp
  00034	e9 00 00 00 00	 jmp	 __RTC_CheckEsp
$L191386:
  00039	8b f4		 mov	 esi, esp
  0003b	8d 4d 9c	 lea	 ecx, DWORD PTR $T191382[ebp]
  0003e	ff 15 00 00 00
	00		 call	 DWORD PTR __imp_??1?$basic_string@DU?$char_traits@D@std@@V?$allocator@D@2@@std@@QAE@XZ
  00044	3b f4		 cmp	 esi, esp
  00046	e9 00 00 00 00	 jmp	 __RTC_CheckEsp
$L191387:
  0004b	8b f4		 mov	 esi, esp
  0004d	8d 4d 80	 lea	 ecx, DWORD PTR $T191383[ebp]
  00050	ff 15 00 00 00
	00		 call	 DWORD PTR __imp_??1?$basic_string@DU?$char_traits@D@std@@V?$allocator@D@2@@std@@QAE@XZ
  00056	3b f4		 cmp	 esi, esp
  00058	e9 00 00 00 00	 jmp	 __RTC_CheckEsp
__ehhandler$?HoldWindow@CTopPanelControl@@QAEXXZ:
  0005d	b8 00 00 00 00	 mov	 eax, OFFSET FLAT:$T191389
  00062	e9 00 00 00 00	 jmp	 ___CxxFrameHandler
text$x	ENDS
?HoldWindow@CTopPanelControl@@QAEXXZ ENDP		; CTopPanelControl::HoldWindow
PUBLIC	?AutoRunHideMainWindow@CTopPanelControl@@QAEXXZ	; CTopPanelControl::AutoRunHideMainWindow
; Function compile flags: /Odt /RTCsu
_TEXT	SEGMENT
_this$ = -4						; size = 4
?AutoRunHideMainWindow@CTopPanelControl@@QAEXXZ PROC NEAR ; CTopPanelControl::AutoRunHideMainWindow
; _this$ = ecx

; 62   : {

  00370	55		 push	 ebp
  00371	8b ec		 mov	 ebp, esp
  00373	51		 push	 ecx
  00374	c7 45 fc cc cc
	cc cc		 mov	 DWORD PTR [ebp-4], -858993460 ; ccccccccH
  0037b	89 4d fc	 mov	 DWORD PTR _this$[ebp], ecx

; 63   : 	m_pWndTopPanel->m_bHideMainWindow=TRUE;

  0037e	8b 45 fc	 mov	 eax, DWORD PTR _this$[ebp]
  00381	8b 08		 mov	 ecx, DWORD PTR [eax]
  00383	c6 81 68 06 00
	00 01		 mov	 BYTE PTR [ecx+1640], 1

; 64   : }

  0038a	8b e5		 mov	 esp, ebp
  0038c	5d		 pop	 ebp
  0038d	c3		 ret	 0
?AutoRunHideMainWindow@CTopPanelControl@@QAEXXZ ENDP	; CTopPanelControl::AutoRunHideMainWindow
_TEXT	ENDS
PUBLIC	?IsHold@CTopPanelControl@@QAEHXZ		; CTopPanelControl::IsHold
; Function compile flags: /Odt /RTCsu
_TEXT	SEGMENT
_this$ = -4						; size = 4
?IsHold@CTopPanelControl@@QAEHXZ PROC NEAR		; CTopPanelControl::IsHold
; _this$ = ecx

; 67   : {

  00390	55		 push	 ebp
  00391	8b ec		 mov	 ebp, esp
  00393	51		 push	 ecx
  00394	c7 45 fc cc cc
	cc cc		 mov	 DWORD PTR [ebp-4], -858993460 ; ccccccccH
  0039b	89 4d fc	 mov	 DWORD PTR _this$[ebp], ecx

; 68   : 	return m_pWndTopPanel->m_bMainWndHold;

  0039e	8b 45 fc	 mov	 eax, DWORD PTR _this$[ebp]
  003a1	8b 08		 mov	 ecx, DWORD PTR [eax]
  003a3	0f b6 81 2c 06
	00 00		 movzx	 eax, BYTE PTR [ecx+1580]

; 69   : }

  003aa	8b e5		 mov	 esp, ebp
  003ac	5d		 pop	 ebp
  003ad	c3		 ret	 0
?IsHold@CTopPanelControl@@QAEHXZ ENDP			; CTopPanelControl::IsHold
_TEXT	ENDS
PUBLIC	??$?HDU?$char_traits@D@std@@V?$allocator@D@1@@std@@YA?AV?$basic_string@DU?$char_traits@D@std@@V?$allocator@D@2@@0@ABV10@PBD@Z ; std::operator+<char,std::char_traits<char>,std::allocator<char> >
PUBLIC	??0?$vector@V?$basic_string@DU?$char_traits@D@std@@V?$allocator@D@2@@std@@V?$allocator@V?$basic_string@DU?$char_traits@D@std@@V?$allocator@D@2@@std@@@2@@std@@QAE@XZ ; std::vector<std::basic_string<char,std::char_traits<char>,std::allocator<char> >,std::allocator<std::basic_string<char,std::char_traits<char>,std::allocator<char> > > >::vector<std::basic_string<char,std::char_traits<char>,std::allocator<char> >,std::allocator<std::basic_string<char,std::char_traits<char>,std::allocator<char> > > >
PUBLIC	??1?$vector@V?$basic_string@DU?$char_traits@D@std@@V?$allocator@D@2@@std@@V?$allocator@V?$basic_string@DU?$char_traits@D@std@@V?$allocator@D@2@@std@@@2@@std@@QAE@XZ ; std::vector<std::basic_string<char,std::char_traits<char>,std::allocator<char> >,std::allocator<std::basic_string<char,std::char_traits<char>,std::allocator<char> > > >::~vector<std::basic_string<char,std::char_traits<char>,std::allocator<char> >,std::allocator<std::basic_string<char,std::char_traits<char>,std::allocator<char> > > >
PUBLIC	?size@?$vector@V?$basic_string@DU?$char_traits@D@std@@V?$allocator@D@2@@std@@V?$allocator@V?$basic_string@DU?$char_traits@D@std@@V?$allocator@D@2@@std@@@2@@std@@QBEIXZ ; std::vector<std::basic_string<char,std::char_traits<char>,std::allocator<char> >,std::allocator<std::basic_string<char,std::char_traits<char>,std::allocator<char> > > >::size
PUBLIC	??A?$vector@V?$basic_string@DU?$char_traits@D@std@@V?$allocator@D@2@@std@@V?$allocator@V?$basic_string@DU?$char_traits@D@std@@V?$allocator@D@2@@std@@@2@@std@@QAEAAV?$basic_string@DU?$char_traits@D@std@@V?$allocator@D@2@@1@I@Z ; std::vector<std::basic_string<char,std::char_traits<char>,std::allocator<char> >,std::allocator<std::basic_string<char,std::char_traits<char>,std::allocator<char> > > >::operator[]
PUBLIC	?push_back@?$vector@V?$basic_string@DU?$char_traits@D@std@@V?$allocator@D@2@@std@@V?$allocator@V?$basic_string@DU?$char_traits@D@std@@V?$allocator@D@2@@std@@@2@@std@@QAEXABV?$basic_string@DU?$char_traits@D@std@@V?$allocator@D@2@@2@@Z ; std::vector<std::basic_string<char,std::char_traits<char>,std::allocator<char> >,std::allocator<std::basic_string<char,std::char_traits<char>,std::allocator<char> > > >::push_back
PUBLIC	?GetAllSkinName@CTopPanelControl@@QAEXAAV?$vector@V?$basic_string@DU?$char_traits@D@std@@V?$allocator@D@2@@std@@V?$allocator@V?$basic_string@DU?$char_traits@D@std@@V?$allocator@D@2@@std@@@2@@std@@@Z ; CTopPanelControl::GetAllSkinName
PUBLIC	??$?HDU?$char_traits@D@std@@V?$allocator@D@1@@std@@YA?AV?$basic_string@DU?$char_traits@D@std@@V?$allocator@D@2@@0@ABV10@0@Z ; std::operator+<char,std::char_traits<char>,std::allocator<char> >
EXTRN	?AfxGetUIManager@@YAPAVIUIManager@@XZ:NEAR	; AfxGetUIManager
EXTRN	?GetHomePath@CLhcImg@@SA_NQADH@Z:NEAR		; CLhcImg::GetHomePath
EXTRN	?IsValid@YL_FileInfo@@SA_NABV?$basic_string@DU?$char_traits@D@std@@V?$allocator@D@2@@std@@@Z:NEAR ; YL_FileInfo::IsValid
EXTRN	_strcat:NEAR
EXTRN	___security_cookie:DWORD
EXTRN	@_RTC_CheckStackVars@8:NEAR
EXTRN	@__security_check_cookie@4:NEAR
xdata$x	SEGMENT
$T191415 DD	0ffffffffH
	DD	FLAT:$L191399
	DD	00H
	DD	FLAT:$L191400
	DD	01H
	DD	FLAT:$L191401
	DD	02H
	DD	FLAT:$L191402
$T191404 DD	019930520H
	DD	04H
	DD	FLAT:$T191415
	DD	2 DUP(00H)
	DD	2 DUP(00H)
; Function compile flags: /Odt /RTCsu
xdata$x	ENDS
_TEXT	SEGMENT
tv152 = -688						; size = 4
tv156 = -684						; size = 4
tv150 = -680						; size = 4
tv73 = -676						; size = 4
tv82 = -672						; size = 4
tv77 = -668						; size = 4
$T191398 = -664						; size = 28
$T191397 = -636						; size = 28
$T191396 = -605						; size = 1
_n$190019 = -604					; size = 4
_vecSkins$ = -596					; size = 16
_sHomePath$ = -572					; size = 28
_szbuffer$ = -536					; size = 512
_this$ = -20						; size = 4
__$ArrayPad$ = -16					; size = 4
__$EHRec$ = -12						; size = 12
__$ReturnAddr$ = 4					; size = 4
_vSkinName$ = 8						; size = 4
?GetAllSkinName@CTopPanelControl@@QAEXAAV?$vector@V?$basic_string@DU?$char_traits@D@std@@V?$allocator@D@2@@std@@V?$allocator@V?$basic_string@DU?$char_traits@D@std@@V?$allocator@D@2@@std@@@2@@std@@@Z PROC NEAR ; CTopPanelControl::GetAllSkinName
; _this$ = ecx

; 73   : {

  003b0	55		 push	 ebp
  003b1	8b ec		 mov	 ebp, esp
  003b3	6a ff		 push	 -1
  003b5	68 00 00 00 00	 push	 __ehhandler$?GetAllSkinName@CTopPanelControl@@QAEXAAV?$vector@V?$basic_string@DU?$char_traits@D@std@@V?$allocator@D@2@@std@@V?$allocator@V?$basic_string@DU?$char_traits@D@std@@V?$allocator@D@2@@std@@@2@@std@@@Z
  003ba	64 a1 00 00 00
	00		 mov	 eax, DWORD PTR fs:__except_list
  003c0	50		 push	 eax
  003c1	64 89 25 00 00
	00 00		 mov	 DWORD PTR fs:__except_list, esp
  003c8	81 ec a4 02 00
	00		 sub	 esp, 676		; 000002a4H
  003ce	56		 push	 esi
  003cf	57		 push	 edi
  003d0	51		 push	 ecx
  003d1	8d bd 50 fd ff
	ff		 lea	 edi, DWORD PTR [ebp-688]
  003d7	b9 a9 00 00 00	 mov	 ecx, 169		; 000000a9H
  003dc	b8 cc cc cc cc	 mov	 eax, -858993460		; ccccccccH
  003e1	f3 ab		 rep stosd
  003e3	59		 pop	 ecx
  003e4	a1 00 00 00 00	 mov	 eax, DWORD PTR ___security_cookie
  003e9	89 45 f0	 mov	 DWORD PTR __$ArrayPad$[ebp], eax
  003ec	89 4d ec	 mov	 DWORD PTR _this$[ebp], ecx

; 74   : 	char szbuffer[512];
; 75   : 	CLhcImg::GetHomePath(szbuffer,512);

  003ef	68 00 02 00 00	 push	 512			; 00000200H
  003f4	8d 85 e8 fd ff
	ff		 lea	 eax, DWORD PTR _szbuffer$[ebp]
  003fa	50		 push	 eax
  003fb	e8 00 00 00 00	 call	 ?GetHomePath@CLhcImg@@SA_NQADH@Z ; CLhcImg::GetHomePath
  00400	83 c4 08	 add	 esp, 8

; 76   : 	strcat(szbuffer,"\\skin\\");

  00403	68 00 00 00 00	 push	 OFFSET FLAT:$SG190015
  00408	8d 8d e8 fd ff
	ff		 lea	 ecx, DWORD PTR _szbuffer$[ebp]
  0040e	51		 push	 ecx
  0040f	e8 00 00 00 00	 call	 _strcat
  00414	83 c4 08	 add	 esp, 8

; 77   : 	string sHomePath = szbuffer;

  00417	8b f4		 mov	 esi, esp
  00419	8d 95 e8 fd ff
	ff		 lea	 edx, DWORD PTR _szbuffer$[ebp]
  0041f	52		 push	 edx
  00420	8d 8d c4 fd ff
	ff		 lea	 ecx, DWORD PTR _sHomePath$[ebp]
  00426	ff 15 00 00 00
	00		 call	 DWORD PTR __imp_??0?$basic_string@DU?$char_traits@D@std@@V?$allocator@D@2@@std@@QAE@PBD@Z
  0042c	3b f4		 cmp	 esi, esp
  0042e	e8 00 00 00 00	 call	 __RTC_CheckEsp
  00433	c7 45 fc 00 00
	00 00		 mov	 DWORD PTR __$EHRec$[ebp+8], 0

; 78   : 	vector<string> vecSkins;

  0043a	8d 8d ac fd ff
	ff		 lea	 ecx, DWORD PTR _vecSkins$[ebp]
  00440	e8 00 00 00 00	 call	 ??0?$vector@V?$basic_string@DU?$char_traits@D@std@@V?$allocator@D@2@@std@@V?$allocator@V?$basic_string@DU?$char_traits@D@std@@V?$allocator@D@2@@std@@@2@@std@@QAE@XZ ; std::vector<std::basic_string<char,std::char_traits<char>,std::allocator<char> >,std::allocator<std::basic_string<char,std::char_traits<char>,std::allocator<char> > > >::vector<std::basic_string<char,std::char_traits<char>,std::allocator<char> >,std::allocator<std::basic_string<char,std::char_traits<char>,std::allocator<char> > > >
  00445	c6 45 fc 01	 mov	 BYTE PTR __$EHRec$[ebp+8], 1

; 79   : 	AfxGetUIManager()->UIGetSkinMgr()->GetSkinNames( vecSkins,true);

  00449	e8 00 00 00 00	 call	 ?AfxGetUIManager@@YAPAVIUIManager@@XZ ; AfxGetUIManager
  0044e	89 85 64 fd ff
	ff		 mov	 DWORD PTR tv77[ebp], eax
  00454	8b f4		 mov	 esi, esp
  00456	8b 85 64 fd ff
	ff		 mov	 eax, DWORD PTR tv77[ebp]
  0045c	8b 10		 mov	 edx, DWORD PTR [eax]
  0045e	8b 8d 64 fd ff
	ff		 mov	 ecx, DWORD PTR tv77[ebp]
  00464	ff 52 28	 call	 DWORD PTR [edx+40]
  00467	3b f4		 cmp	 esi, esp
  00469	e8 00 00 00 00	 call	 __RTC_CheckEsp
  0046e	89 85 60 fd ff
	ff		 mov	 DWORD PTR tv82[ebp], eax
  00474	8b f4		 mov	 esi, esp
  00476	6a 01		 push	 1
  00478	8d 85 ac fd ff
	ff		 lea	 eax, DWORD PTR _vecSkins$[ebp]
  0047e	50		 push	 eax
  0047f	8b 8d 60 fd ff
	ff		 mov	 ecx, DWORD PTR tv82[ebp]
  00485	8b 11		 mov	 edx, DWORD PTR [ecx]
  00487	8b 8d 60 fd ff
	ff		 mov	 ecx, DWORD PTR tv82[ebp]
  0048d	ff 52 4c	 call	 DWORD PTR [edx+76]
  00490	3b f4		 cmp	 esi, esp
  00492	e8 00 00 00 00	 call	 __RTC_CheckEsp

; 80   : 	for( unsigned int n=0; n<vecSkins.size(); n++ )

  00497	c7 85 a4 fd ff
	ff 00 00 00 00	 mov	 DWORD PTR _n$190019[ebp], 0
  004a1	eb 0f		 jmp	 SHORT $L190020
$L190021:
  004a3	8b 85 a4 fd ff
	ff		 mov	 eax, DWORD PTR _n$190019[ebp]
  004a9	83 c0 01	 add	 eax, 1
  004ac	89 85 a4 fd ff
	ff		 mov	 DWORD PTR _n$190019[ebp], eax
$L190020:
  004b2	8d 8d ac fd ff
	ff		 lea	 ecx, DWORD PTR _vecSkins$[ebp]
  004b8	e8 00 00 00 00	 call	 ?size@?$vector@V?$basic_string@DU?$char_traits@D@std@@V?$allocator@D@2@@std@@V?$allocator@V?$basic_string@DU?$char_traits@D@std@@V?$allocator@D@2@@std@@@2@@std@@QBEIXZ ; std::vector<std::basic_string<char,std::char_traits<char>,std::allocator<char> >,std::allocator<std::basic_string<char,std::char_traits<char>,std::allocator<char> > > >::size
  004bd	39 85 a4 fd ff
	ff		 cmp	 DWORD PTR _n$190019[ebp], eax
  004c3	0f 83 e2 00 00
	00		 jae	 $L190022

; 81   : 	{
; 82   : 		if( YL_FileInfo::IsValid( sHomePath + vecSkins[n] + "\\skin.jpg" ) ) 

  004c9	8b 8d a4 fd ff
	ff		 mov	 ecx, DWORD PTR _n$190019[ebp]
  004cf	51		 push	 ecx
  004d0	8d 8d ac fd ff
	ff		 lea	 ecx, DWORD PTR _vecSkins$[ebp]
  004d6	e8 00 00 00 00	 call	 ??A?$vector@V?$basic_string@DU?$char_traits@D@std@@V?$allocator@D@2@@std@@V?$allocator@V?$basic_string@DU?$char_traits@D@std@@V?$allocator@D@2@@std@@@2@@std@@QAEAAV?$basic_string@DU?$char_traits@D@std@@V?$allocator@D@2@@1@I@Z ; std::vector<std::basic_string<char,std::char_traits<char>,std::allocator<char> >,std::allocator<std::basic_string<char,std::char_traits<char>,std::allocator<char> > > >::operator[]
  004db	50		 push	 eax
  004dc	8d 95 c4 fd ff
	ff		 lea	 edx, DWORD PTR _sHomePath$[ebp]
  004e2	52		 push	 edx
  004e3	8d 85 84 fd ff
	ff		 lea	 eax, DWORD PTR $T191397[ebp]
  004e9	50		 push	 eax
  004ea	e8 00 00 00 00	 call	 ??$?HDU?$char_traits@D@std@@V?$allocator@D@1@@std@@YA?AV?$basic_string@DU?$char_traits@D@std@@V?$allocator@D@2@@0@ABV10@0@Z ; std::operator+<char,std::char_traits<char>,std::allocator<char> >
  004ef	83 c4 0c	 add	 esp, 12			; 0000000cH
  004f2	89 85 5c fd ff
	ff		 mov	 DWORD PTR tv73[ebp], eax
  004f8	8b 8d 5c fd ff
	ff		 mov	 ecx, DWORD PTR tv73[ebp]
  004fe	89 8d 58 fd ff
	ff		 mov	 DWORD PTR tv150[ebp], ecx
  00504	c6 45 fc 02	 mov	 BYTE PTR __$EHRec$[ebp+8], 2
  00508	68 00 00 00 00	 push	 OFFSET FLAT:$SG190027
  0050d	8b 95 58 fd ff
	ff		 mov	 edx, DWORD PTR tv150[ebp]
  00513	52		 push	 edx
  00514	8d 85 68 fd ff
	ff		 lea	 eax, DWORD PTR $T191398[ebp]
  0051a	50		 push	 eax
  0051b	e8 00 00 00 00	 call	 ??$?HDU?$char_traits@D@std@@V?$allocator@D@1@@std@@YA?AV?$basic_string@DU?$char_traits@D@std@@V?$allocator@D@2@@0@ABV10@PBD@Z ; std::operator+<char,std::char_traits<char>,std::allocator<char> >
  00520	83 c4 0c	 add	 esp, 12			; 0000000cH
  00523	89 85 54 fd ff
	ff		 mov	 DWORD PTR tv156[ebp], eax
  00529	8b 8d 54 fd ff
	ff		 mov	 ecx, DWORD PTR tv156[ebp]
  0052f	89 8d 50 fd ff
	ff		 mov	 DWORD PTR tv152[ebp], ecx
  00535	c6 45 fc 03	 mov	 BYTE PTR __$EHRec$[ebp+8], 3
  00539	8b 95 50 fd ff
	ff		 mov	 edx, DWORD PTR tv152[ebp]
  0053f	52		 push	 edx
  00540	e8 00 00 00 00	 call	 ?IsValid@YL_FileInfo@@SA_NABV?$basic_string@DU?$char_traits@D@std@@V?$allocator@D@2@@std@@@Z ; YL_FileInfo::IsValid
  00545	83 c4 04	 add	 esp, 4
  00548	88 85 a3 fd ff
	ff		 mov	 BYTE PTR $T191396[ebp], al
  0054e	c6 45 fc 02	 mov	 BYTE PTR __$EHRec$[ebp+8], 2
  00552	8b f4		 mov	 esi, esp
  00554	8d 8d 68 fd ff
	ff		 lea	 ecx, DWORD PTR $T191398[ebp]
  0055a	ff 15 00 00 00
	00		 call	 DWORD PTR __imp_??1?$basic_string@DU?$char_traits@D@std@@V?$allocator@D@2@@std@@QAE@XZ
  00560	3b f4		 cmp	 esi, esp
  00562	e8 00 00 00 00	 call	 __RTC_CheckEsp
  00567	c6 45 fc 01	 mov	 BYTE PTR __$EHRec$[ebp+8], 1
  0056b	8b f4		 mov	 esi, esp
  0056d	8d 8d 84 fd ff
	ff		 lea	 ecx, DWORD PTR $T191397[ebp]
  00573	ff 15 00 00 00
	00		 call	 DWORD PTR __imp_??1?$basic_string@DU?$char_traits@D@std@@V?$allocator@D@2@@std@@QAE@XZ
  00579	3b f4		 cmp	 esi, esp
  0057b	e8 00 00 00 00	 call	 __RTC_CheckEsp
  00580	0f b6 85 a3 fd
	ff ff		 movzx	 eax, BYTE PTR $T191396[ebp]
  00587	85 c0		 test	 eax, eax
  00589	74 1b		 je	 SHORT $L190025

; 83   : 		{
; 84   : 			vSkinName.push_back( vecSkins[n] );

  0058b	8b 8d a4 fd ff
	ff		 mov	 ecx, DWORD PTR _n$190019[ebp]
  00591	51		 push	 ecx
  00592	8d 8d ac fd ff
	ff		 lea	 ecx, DWORD PTR _vecSkins$[ebp]
  00598	e8 00 00 00 00	 call	 ??A?$vector@V?$basic_string@DU?$char_traits@D@std@@V?$allocator@D@2@@std@@V?$allocator@V?$basic_string@DU?$char_traits@D@std@@V?$allocator@D@2@@std@@@2@@std@@QAEAAV?$basic_string@DU?$char_traits@D@std@@V?$allocator@D@2@@1@I@Z ; std::vector<std::basic_string<char,std::char_traits<char>,std::allocator<char> >,std::allocator<std::basic_string<char,std::char_traits<char>,std::allocator<char> > > >::operator[]
  0059d	50		 push	 eax
  0059e	8b 4d 08	 mov	 ecx, DWORD PTR _vSkinName$[ebp]
  005a1	e8 00 00 00 00	 call	 ?push_back@?$vector@V?$basic_string@DU?$char_traits@D@std@@V?$allocator@D@2@@std@@V?$allocator@V?$basic_string@DU?$char_traits@D@std@@V?$allocator@D@2@@std@@@2@@std@@QAEXABV?$basic_string@DU?$char_traits@D@std@@V?$allocator@D@2@@2@@Z ; std::vector<std::basic_string<char,std::char_traits<char>,std::allocator<char> >,std::allocator<std::basic_string<char,std::char_traits<char>,std::allocator<char> > > >::push_back
$L190025:

; 85   : 		}
; 86   : 	}

  005a6	e9 f8 fe ff ff	 jmp	 $L190021
$L190022:

; 87   : }

  005ab	c6 45 fc 00	 mov	 BYTE PTR __$EHRec$[ebp+8], 0
  005af	8d 8d ac fd ff
	ff		 lea	 ecx, DWORD PTR _vecSkins$[ebp]
  005b5	e8 00 00 00 00	 call	 ??1?$vector@V?$basic_string@DU?$char_traits@D@std@@V?$allocator@D@2@@std@@V?$allocator@V?$basic_string@DU?$char_traits@D@std@@V?$allocator@D@2@@std@@@2@@std@@QAE@XZ ; std::vector<std::basic_string<char,std::char_traits<char>,std::allocator<char> >,std::allocator<std::basic_string<char,std::char_traits<char>,std::allocator<char> > > >::~vector<std::basic_string<char,std::char_traits<char>,std::allocator<char> >,std::allocator<std::basic_string<char,std::char_traits<char>,std::allocator<char> > > >
  005ba	c7 45 fc ff ff
	ff ff		 mov	 DWORD PTR __$EHRec$[ebp+8], -1
  005c1	8b f4		 mov	 esi, esp
  005c3	8d 8d c4 fd ff
	ff		 lea	 ecx, DWORD PTR _sHomePath$[ebp]
  005c9	ff 15 00 00 00
	00		 call	 DWORD PTR __imp_??1?$basic_string@DU?$char_traits@D@std@@V?$allocator@D@2@@std@@QAE@XZ
  005cf	3b f4		 cmp	 esi, esp
  005d1	e8 00 00 00 00	 call	 __RTC_CheckEsp
  005d6	52		 push	 edx
  005d7	8b cd		 mov	 ecx, ebp
  005d9	50		 push	 eax
  005da	8d 15 00 00 00
	00		 lea	 edx, DWORD PTR $L191412
  005e0	e8 00 00 00 00	 call	 @_RTC_CheckStackVars@8
  005e5	58		 pop	 eax
  005e6	5a		 pop	 edx
  005e7	8b 4d f4	 mov	 ecx, DWORD PTR __$EHRec$[ebp]
  005ea	64 89 0d 00 00
	00 00		 mov	 DWORD PTR fs:__except_list, ecx
  005f1	8b 4d f0	 mov	 ecx, DWORD PTR __$ArrayPad$[ebp]
  005f4	e8 00 00 00 00	 call	 @__security_check_cookie@4
  005f9	5f		 pop	 edi
  005fa	5e		 pop	 esi
  005fb	81 c4 b0 02 00
	00		 add	 esp, 688		; 000002b0H
  00601	3b ec		 cmp	 ebp, esp
  00603	e8 00 00 00 00	 call	 __RTC_CheckEsp
  00608	8b e5		 mov	 esp, ebp
  0060a	5d		 pop	 ebp
  0060b	c2 04 00	 ret	 4
$L191412:
  0060e	03 00 00 00	 DD	 3
  00612	00 00 00 00	 DD	 $L191411
$L191411:
  00616	e8 fd ff ff	 DD	 -536			; fffffde8H
  0061a	00 02 00 00	 DD	 512			; 00000200H
  0061e	00 00 00 00	 DD	 $L191405
  00622	c4 fd ff ff	 DD	 -572			; fffffdc4H
  00626	1c 00 00 00	 DD	 28			; 0000001cH
  0062a	00 00 00 00	 DD	 $L191406
  0062e	ac fd ff ff	 DD	 -596			; fffffdacH
  00632	10 00 00 00	 DD	 16			; 00000010H
  00636	00 00 00 00	 DD	 $L191407
$L191407:
  0063a	76		 DB	 118			; 00000076H
  0063b	65		 DB	 101			; 00000065H
  0063c	63		 DB	 99			; 00000063H
  0063d	53		 DB	 83			; 00000053H
  0063e	6b		 DB	 107			; 0000006bH
  0063f	69		 DB	 105			; 00000069H
  00640	6e		 DB	 110			; 0000006eH
  00641	73		 DB	 115			; 00000073H
  00642	00		 DB	 0
$L191406:
  00643	73		 DB	 115			; 00000073H
  00644	48		 DB	 72			; 00000048H
  00645	6f		 DB	 111			; 0000006fH
  00646	6d		 DB	 109			; 0000006dH
  00647	65		 DB	 101			; 00000065H
  00648	50		 DB	 80			; 00000050H
  00649	61		 DB	 97			; 00000061H
  0064a	74		 DB	 116			; 00000074H
  0064b	68		 DB	 104			; 00000068H
  0064c	00		 DB	 0
$L191405:
  0064d	73		 DB	 115			; 00000073H
  0064e	7a		 DB	 122			; 0000007aH
  0064f	62		 DB	 98			; 00000062H
  00650	75		 DB	 117			; 00000075H
  00651	66		 DB	 102			; 00000066H
  00652	66		 DB	 102			; 00000066H
  00653	65		 DB	 101			; 00000065H
  00654	72		 DB	 114			; 00000072H
  00655	00		 DB	 0
_TEXT	ENDS
text$x	SEGMENT
$L191399:
  00067	8b f4		 mov	 esi, esp
  00069	8d 8d c4 fd ff
	ff		 lea	 ecx, DWORD PTR _sHomePath$[ebp]
  0006f	ff 15 00 00 00
	00		 call	 DWORD PTR __imp_??1?$basic_string@DU?$char_traits@D@std@@V?$allocator@D@2@@std@@QAE@XZ
  00075	3b f4		 cmp	 esi, esp
  00077	e9 00 00 00 00	 jmp	 __RTC_CheckEsp
$L191400:
  0007c	8d 8d ac fd ff
	ff		 lea	 ecx, DWORD PTR _vecSkins$[ebp]
  00082	e9 00 00 00 00	 jmp	 ??1?$vector@V?$basic_string@DU?$char_traits@D@std@@V?$allocator@D@2@@std@@V?$allocator@V?$basic_string@DU?$char_traits@D@std@@V?$allocator@D@2@@std@@@2@@std@@QAE@XZ ; std::vector<std::basic_string<char,std::char_traits<char>,std::allocator<char> >,std::allocator<std::basic_string<char,std::char_traits<char>,std::allocator<char> > > >::~vector<std::basic_string<char,std::char_traits<char>,std::allocator<char> >,std::allocator<std::basic_string<char,std::char_traits<char>,std::allocator<char> > > >
$L191401:
  00087	8b f4		 mov	 esi, esp
  00089	8d 8d 84 fd ff
	ff		 lea	 ecx, DWORD PTR $T191397[ebp]
  0008f	ff 15 00 00 00
	00		 call	 DWORD PTR __imp_??1?$basic_string@DU?$char_traits@D@std@@V?$allocator@D@2@@std@@QAE@XZ
  00095	3b f4		 cmp	 esi, esp
  00097	e9 00 00 00 00	 jmp	 __RTC_CheckEsp
$L191402:
  0009c	8b f4		 mov	 esi, esp
  0009e	8d 8d 68 fd ff
	ff		 lea	 ecx, DWORD PTR $T191398[ebp]
  000a4	ff 15 00 00 00
	00		 call	 DWORD PTR __imp_??1?$basic_string@DU?$char_traits@D@std@@V?$allocator@D@2@@std@@QAE@XZ
  000aa	3b f4		 cmp	 esi, esp
  000ac	e9 00 00 00 00	 jmp	 __RTC_CheckEsp
__ehhandler$?GetAllSkinName@CTopPanelControl@@QAEXAAV?$vector@V?$basic_string@DU?$char_traits@D@std@@V?$allocator@D@2@@std@@V?$allocator@V?$basic_string@DU?$char_traits@D@std@@V?$allocator@D@2@@std@@@2@@std@@@Z:
  000b1	b8 00 00 00 00	 mov	 eax, OFFSET FLAT:$T191404
  000b6	e9 00 00 00 00	 jmp	 ___CxxFrameHandler
text$x	ENDS
?GetAllSkinName@CTopPanelControl@@QAEXAAV?$vector@V?$basic_string@DU?$char_traits@D@std@@V?$allocator@D@2@@std@@V?$allocator@V?$basic_string@DU?$char_traits@D@std@@V?$allocator@D@2@@std@@@2@@std@@@Z ENDP ; CTopPanelControl::GetAllSkinName
PUBLIC	?ClickButton@CTopPanelControl@@QAEXH@Z		; CTopPanelControl::ClickButton
EXTRN	__imp__SendMessageA@16:NEAR
; Function compile flags: /Odt /RTCsu
_TEXT	SEGMENT
_this$ = -4						; size = 4
_pos$ = 8						; size = 4
?ClickButton@CTopPanelControl@@QAEXH@Z PROC NEAR	; CTopPanelControl::ClickButton
; _this$ = ecx

; 90   : {

  00660	55		 push	 ebp
  00661	8b ec		 mov	 ebp, esp
  00663	51		 push	 ecx
  00664	56		 push	 esi
  00665	c7 45 fc cc cc
	cc cc		 mov	 DWORD PTR [ebp-4], -858993460 ; ccccccccH
  0066c	89 4d fc	 mov	 DWORD PTR _this$[ebp], ecx

; 91   : 	if(pos == TOPPANEL_NOWPLAYING)

  0066f	83 7d 08 00	 cmp	 DWORD PTR _pos$[ebp], 0
  00673	75 29		 jne	 SHORT $L190032

; 92   : 	{
; 93   : 		::SendMessage(m_pWndTopPanel->m_hWnd,WM_COMMAND,10100,0);

  00675	8b f4		 mov	 esi, esp
  00677	6a 00		 push	 0
  00679	68 74 27 00 00	 push	 10100			; 00002774H
  0067e	68 11 01 00 00	 push	 273			; 00000111H
  00683	8b 45 fc	 mov	 eax, DWORD PTR _this$[ebp]
  00686	8b 08		 mov	 ecx, DWORD PTR [eax]
  00688	8b 51 20	 mov	 edx, DWORD PTR [ecx+32]
  0068b	52		 push	 edx
  0068c	ff 15 00 00 00
	00		 call	 DWORD PTR __imp__SendMessageA@16
  00692	3b f4		 cmp	 esi, esp
  00694	e8 00 00 00 00	 call	 __RTC_CheckEsp

; 94   : 	}
; 95   : 	else if(pos == TOPPANEL_NETLIB)

  00699	e9 82 00 00 00	 jmp	 $L190031
$L190032:
  0069e	83 7d 08 02	 cmp	 DWORD PTR _pos$[ebp], 2
  006a2	75 26		 jne	 SHORT $L190034

; 96   : 	{
; 97   : 		::SendMessage(m_pWndTopPanel->m_hWnd,WM_COMMAND,10102,0);

  006a4	8b f4		 mov	 esi, esp
  006a6	6a 00		 push	 0
  006a8	68 76 27 00 00	 push	 10102			; 00002776H
  006ad	68 11 01 00 00	 push	 273			; 00000111H
  006b2	8b 45 fc	 mov	 eax, DWORD PTR _this$[ebp]
  006b5	8b 08		 mov	 ecx, DWORD PTR [eax]
  006b7	8b 51 20	 mov	 edx, DWORD PTR [ecx+32]
  006ba	52		 push	 edx
  006bb	ff 15 00 00 00
	00		 call	 DWORD PTR __imp__SendMessageA@16
  006c1	3b f4		 cmp	 esi, esp
  006c3	e8 00 00 00 00	 call	 __RTC_CheckEsp

; 98   : 	}
; 99   : 	else if(pos == TOPPANEL_DOWNLOAD)

  006c8	eb 56		 jmp	 SHORT $L190031
$L190034:
  006ca	83 7d 08 03	 cmp	 DWORD PTR _pos$[ebp], 3
  006ce	75 26		 jne	 SHORT $L190036

; 100  : 	{
; 101  : 		::SendMessage(m_pWndTopPanel->m_hWnd,WM_COMMAND,10103,0);

  006d0	8b f4		 mov	 esi, esp
  006d2	6a 00		 push	 0
  006d4	68 77 27 00 00	 push	 10103			; 00002777H
  006d9	68 11 01 00 00	 push	 273			; 00000111H
  006de	8b 45 fc	 mov	 eax, DWORD PTR _this$[ebp]
  006e1	8b 08		 mov	 ecx, DWORD PTR [eax]
  006e3	8b 51 20	 mov	 edx, DWORD PTR [ecx+32]
  006e6	52		 push	 edx
  006e7	ff 15 00 00 00
	00		 call	 DWORD PTR __imp__SendMessageA@16
  006ed	3b f4		 cmp	 esi, esp
  006ef	e8 00 00 00 00	 call	 __RTC_CheckEsp

; 102  : 	}
; 103  : 	else if(pos == TOPPANEL_COMMEND)

  006f4	eb 2a		 jmp	 SHORT $L190031
$L190036:
  006f6	83 7d 08 01	 cmp	 DWORD PTR _pos$[ebp], 1
  006fa	75 24		 jne	 SHORT $L190031

; 104  : 	{
; 105  : 		::SendMessage(m_pWndTopPanel->m_hWnd,WM_COMMAND,10101,0);

  006fc	8b f4		 mov	 esi, esp
  006fe	6a 00		 push	 0
  00700	68 75 27 00 00	 push	 10101			; 00002775H
  00705	68 11 01 00 00	 push	 273			; 00000111H
  0070a	8b 45 fc	 mov	 eax, DWORD PTR _this$[ebp]
  0070d	8b 08		 mov	 ecx, DWORD PTR [eax]
  0070f	8b 51 20	 mov	 edx, DWORD PTR [ecx+32]
  00712	52		 push	 edx
  00713	ff 15 00 00 00
	00		 call	 DWORD PTR __imp__SendMessageA@16
  00719	3b f4		 cmp	 esi, esp
  0071b	e8 00 00 00 00	 call	 __RTC_CheckEsp
$L190031:

; 106  : 	}
; 107  : }

  00720	5e		 pop	 esi
  00721	83 c4 04	 add	 esp, 4
  00724	3b ec		 cmp	 ebp, esp
  00726	e8 00 00 00 00	 call	 __RTC_CheckEsp
  0072b	8b e5		 mov	 esp, ebp
  0072d	5d		 pop	 ebp
  0072e	c2 04 00	 ret	 4
?ClickButton@CTopPanelControl@@QAEXH@Z ENDP		; CTopPanelControl::ClickButton
_TEXT	ENDS
PUBLIC	??0?$_Vector_val@V?$basic_string@DU?$char_traits@D@std@@V?$allocator@D@2@@std@@V?$allocator@V?$basic_string@DU?$char_traits@D@std@@V?$allocator@D@2@@std@@@2@@std@@IAE@V?$allocator@V?$basic_string@DU?$char_traits@D@std@@V?$allocator@D@2@@std@@@1@@Z ; std::_Vector_val<std::basic_string<char,std::char_traits<char>,std::allocator<char> >,std::allocator<std::basic_string<char,std::char_traits<char>,std::allocator<char> > > >::_Vector_val<std::basic_string<char,std::char_traits<char>,std::allocator<char> >,std::allocator<std::basic_string<char,std::char_traits<char>,std::allocator<char> > > >
PUBLIC	?_Buy@?$vector@V?$basic_string@DU?$char_traits@D@std@@V?$allocator@D@2@@std@@V?$allocator@V?$basic_string@DU?$char_traits@D@std@@V?$allocator@D@2@@std@@@2@@std@@IAE_NI@Z ; std::vector<std::basic_string<char,std::char_traits<char>,std::allocator<char> >,std::allocator<std::basic_string<char,std::char_traits<char>,std::allocator<char> > > >::_Buy
PUBLIC	??0?$allocator@V?$basic_string@DU?$char_traits@D@std@@V?$allocator@D@2@@std@@@std@@QAE@XZ ; std::allocator<std::basic_string<char,std::char_traits<char>,std::allocator<char> > >::allocator<std::basic_string<char,std::char_traits<char>,std::allocator<char> > >
; Function compile flags: /Odt /RTCsu
; File d:\program files (x86)\microsoft visual studio .net 2003\vc7\include\vector
;	COMDAT ??0?$vector@V?$basic_string@DU?$char_traits@D@std@@V?$allocator@D@2@@std@@V?$allocator@V?$basic_string@DU?$char_traits@D@std@@V?$allocator@D@2@@std@@@2@@std@@QAE@XZ
_TEXT	SEGMENT
_this$ = -4						; size = 4
??0?$vector@V?$basic_string@DU?$char_traits@D@std@@V?$allocator@D@2@@std@@V?$allocator@V?$basic_string@DU?$char_traits@D@std@@V?$allocator@D@2@@std@@@2@@std@@QAE@XZ PROC NEAR ; std::vector<std::basic_string<char,std::char_traits<char>,std::allocator<char> >,std::allocator<std::basic_string<char,std::char_traits<char>,std::allocator<char> > > >::vector<std::basic_string<char,std::char_traits<char>,std::allocator<char> >,std::allocator<std::basic_string<char,std::char_traits<char>,std::allocator<char> > > >, COMDAT
; _this$ = ecx

; 299  : 		{	// construct empty vector

  00000	55		 push	 ebp
  00001	8b ec		 mov	 ebp, esp
  00003	83 ec 08	 sub	 esp, 8
  00006	c7 45 f8 cc cc
	cc cc		 mov	 DWORD PTR [ebp-8], -858993460 ; ccccccccH
  0000d	c7 45 fc cc cc
	cc cc		 mov	 DWORD PTR [ebp-4], -858993460 ; ccccccccH
  00014	89 4d fc	 mov	 DWORD PTR _this$[ebp], ecx
  00017	51		 push	 ecx
  00018	8b cc		 mov	 ecx, esp
  0001a	e8 00 00 00 00	 call	 ??0?$allocator@V?$basic_string@DU?$char_traits@D@std@@V?$allocator@D@2@@std@@@std@@QAE@XZ ; std::allocator<std::basic_string<char,std::char_traits<char>,std::allocator<char> > >::allocator<std::basic_string<char,std::char_traits<char>,std::allocator<char> > >
  0001f	8b 4d fc	 mov	 ecx, DWORD PTR _this$[ebp]
  00022	e8 00 00 00 00	 call	 ??0?$_Vector_val@V?$basic_string@DU?$char_traits@D@std@@V?$allocator@D@2@@std@@V?$allocator@V?$basic_string@DU?$char_traits@D@std@@V?$allocator@D@2@@std@@@2@@std@@IAE@V?$allocator@V?$basic_string@DU?$char_traits@D@std@@V?$allocator@D@2@@std@@@1@@Z ; std::_Vector_val<std::basic_string<char,std::char_traits<char>,std::allocator<char> >,std::allocator<std::basic_string<char,std::char_traits<char>,std::allocator<char> > > >::_Vector_val<std::basic_string<char,std::char_traits<char>,std::allocator<char> >,std::allocator<std::basic_string<char,std::char_traits<char>,std::allocator<char> > > >

; 300  : 		_Buy(0);

  00027	6a 00		 push	 0
  00029	8b 4d fc	 mov	 ecx, DWORD PTR _this$[ebp]
  0002c	e8 00 00 00 00	 call	 ?_Buy@?$vector@V?$basic_string@DU?$char_traits@D@std@@V?$allocator@D@2@@std@@V?$allocator@V?$basic_string@DU?$char_traits@D@std@@V?$allocator@D@2@@std@@@2@@std@@IAE_NI@Z ; std::vector<std::basic_string<char,std::char_traits<char>,std::allocator<char> >,std::allocator<std::basic_string<char,std::char_traits<char>,std::allocator<char> > > >::_Buy

; 301  : 		}

  00031	8b 45 fc	 mov	 eax, DWORD PTR _this$[ebp]
  00034	83 c4 08	 add	 esp, 8
  00037	3b ec		 cmp	 ebp, esp
  00039	e8 00 00 00 00	 call	 __RTC_CheckEsp
  0003e	8b e5		 mov	 esp, ebp
  00040	5d		 pop	 ebp
  00041	c3		 ret	 0
??0?$vector@V?$basic_string@DU?$char_traits@D@std@@V?$allocator@D@2@@std@@V?$allocator@V?$basic_string@DU?$char_traits@D@std@@V?$allocator@D@2@@std@@@2@@std@@QAE@XZ ENDP ; std::vector<std::basic_string<char,std::char_traits<char>,std::allocator<char> >,std::allocator<std::basic_string<char,std::char_traits<char>,std::allocator<char> > > >::vector<std::basic_string<char,std::char_traits<char>,std::allocator<char> >,std::allocator<std::basic_string<char,std::char_traits<char>,std::allocator<char> > > >
_TEXT	ENDS
PUBLIC	?_Tidy@?$vector@V?$basic_string@DU?$char_traits@D@std@@V?$allocator@D@2@@std@@V?$allocator@V?$basic_string@DU?$char_traits@D@std@@V?$allocator@D@2@@std@@@2@@std@@IAEXXZ ; std::vector<std::basic_string<char,std::char_traits<char>,std::allocator<char> >,std::allocator<std::basic_string<char,std::char_traits<char>,std::allocator<char> > > >::_Tidy
; Function compile flags: /Odt /RTCsu
;	COMDAT ??1?$vector@V?$basic_string@DU?$char_traits@D@std@@V?$allocator@D@2@@std@@V?$allocator@V?$basic_string@DU?$char_traits@D@std@@V?$allocator@D@2@@std@@@2@@std@@QAE@XZ
_TEXT	SEGMENT
_this$ = -4						; size = 4
??1?$vector@V?$basic_string@DU?$char_traits@D@std@@V?$allocator@D@2@@std@@V?$allocator@V?$basic_string@DU?$char_traits@D@std@@V?$allocator@D@2@@std@@@2@@std@@QAE@XZ PROC NEAR ; std::vector<std::basic_string<char,std::char_traits<char>,std::allocator<char> >,std::allocator<std::basic_string<char,std::char_traits<char>,std::allocator<char> > > >::~vector<std::basic_string<char,std::char_traits<char>,std::allocator<char> >,std::allocator<std::basic_string<char,std::char_traits<char>,std::allocator<char> > > >, COMDAT
; _this$ = ecx

; 387  : 		{	// destroy the object

  00000	55		 push	 ebp
  00001	8b ec		 mov	 ebp, esp
  00003	51		 push	 ecx
  00004	c7 45 fc cc cc
	cc cc		 mov	 DWORD PTR [ebp-4], -858993460 ; ccccccccH
  0000b	89 4d fc	 mov	 DWORD PTR _this$[ebp], ecx

; 388  : 		_Tidy();

  0000e	8b 4d fc	 mov	 ecx, DWORD PTR _this$[ebp]
  00011	e8 00 00 00 00	 call	 ?_Tidy@?$vector@V?$basic_string@DU?$char_traits@D@std@@V?$allocator@D@2@@std@@V?$allocator@V?$basic_string@DU?$char_traits@D@std@@V?$allocator@D@2@@std@@@2@@std@@IAEXXZ ; std::vector<std::basic_string<char,std::char_traits<char>,std::allocator<char> >,std::allocator<std::basic_string<char,std::char_traits<char>,std::allocator<char> > > >::_Tidy

; 389  : 		}

  00016	83 c4 04	 add	 esp, 4
  00019	3b ec		 cmp	 ebp, esp
  0001b	e8 00 00 00 00	 call	 __RTC_CheckEsp
  00020	8b e5		 mov	 esp, ebp
  00022	5d		 pop	 ebp
  00023	c3		 ret	 0
??1?$vector@V?$basic_string@DU?$char_traits@D@std@@V?$allocator@D@2@@std@@V?$allocator@V?$basic_string@DU?$char_traits@D@std@@V?$allocator@D@2@@std@@@2@@std@@QAE@XZ ENDP ; std::vector<std::basic_string<char,std::char_traits<char>,std::allocator<char> >,std::allocator<std::basic_string<char,std::char_traits<char>,std::allocator<char> > > >::~vector<std::basic_string<char,std::char_traits<char>,std::allocator<char> >,std::allocator<std::basic_string<char,std::char_traits<char>,std::allocator<char> > > >
; Function compile flags: /Odt /RTCsu
_TEXT	ENDS
;	COMDAT ?size@?$vector@V?$basic_string@DU?$char_traits@D@std@@V?$allocator@D@2@@std@@V?$allocator@V?$basic_string@DU?$char_traits@D@std@@V?$allocator@D@2@@std@@@2@@std@@QBEIXZ
_TEXT	SEGMENT
tv70 = -8						; size = 4
_this$ = -4						; size = 4
?size@?$vector@V?$basic_string@DU?$char_traits@D@std@@V?$allocator@D@2@@std@@V?$allocator@V?$basic_string@DU?$char_traits@D@std@@V?$allocator@D@2@@std@@@2@@std@@QBEIXZ PROC NEAR ; std::vector<std::basic_string<char,std::char_traits<char>,std::allocator<char> >,std::allocator<std::basic_string<char,std::char_traits<char>,std::allocator<char> > > >::size, COMDAT
; _this$ = ecx

; 515  : 		{	// return length of sequence

  00000	55		 push	 ebp
  00001	8b ec		 mov	 ebp, esp
  00003	83 ec 08	 sub	 esp, 8
  00006	c7 45 f8 cc cc
	cc cc		 mov	 DWORD PTR [ebp-8], -858993460 ; ccccccccH
  0000d	c7 45 fc cc cc
	cc cc		 mov	 DWORD PTR [ebp-4], -858993460 ; ccccccccH
  00014	89 4d fc	 mov	 DWORD PTR _this$[ebp], ecx

; 516  : 		return (_Myfirst == 0 ? 0 : _Mylast - _Myfirst);

  00017	8b 45 fc	 mov	 eax, DWORD PTR _this$[ebp]
  0001a	83 78 04 00	 cmp	 DWORD PTR [eax+4], 0
  0001e	75 09		 jne	 SHORT $L191421
  00020	c7 45 f8 00 00
	00 00		 mov	 DWORD PTR tv70[ebp], 0
  00027	eb 17		 jmp	 SHORT $L191422
$L191421:
  00029	8b 4d fc	 mov	 ecx, DWORD PTR _this$[ebp]
  0002c	8b 55 fc	 mov	 edx, DWORD PTR _this$[ebp]
  0002f	8b 41 08	 mov	 eax, DWORD PTR [ecx+8]
  00032	2b 42 04	 sub	 eax, DWORD PTR [edx+4]
  00035	99		 cdq
  00036	b9 1c 00 00 00	 mov	 ecx, 28			; 0000001cH
  0003b	f7 f9		 idiv	 ecx
  0003d	89 45 f8	 mov	 DWORD PTR tv70[ebp], eax
$L191422:
  00040	8b 45 f8	 mov	 eax, DWORD PTR tv70[ebp]

; 517  : 		}

  00043	8b e5		 mov	 esp, ebp
  00045	5d		 pop	 ebp
  00046	c3		 ret	 0
?size@?$vector@V?$basic_string@DU?$char_traits@D@std@@V?$allocator@D@2@@std@@V?$allocator@V?$basic_string@DU?$char_traits@D@std@@V?$allocator@D@2@@std@@@2@@std@@QBEIXZ ENDP ; std::vector<std::basic_string<char,std::char_traits<char>,std::allocator<char> >,std::allocator<std::basic_string<char,std::char_traits<char>,std::allocator<char> > > >::size
_TEXT	ENDS
PUBLIC	?begin@?$vector@V?$basic_string@DU?$char_traits@D@std@@V?$allocator@D@2@@std@@V?$allocator@V?$basic_string@DU?$char_traits@D@std@@V?$allocator@D@2@@std@@@2@@std@@QAE?AViterator@12@XZ ; std::vector<std::basic_string<char,std::char_traits<char>,std::allocator<char> >,std::allocator<std::basic_string<char,std::char_traits<char>,std::allocator<char> > > >::begin
PUBLIC	??Diterator@?$vector@V?$basic_string@DU?$char_traits@D@std@@V?$allocator@D@2@@std@@V?$allocator@V?$basic_string@DU?$char_traits@D@std@@V?$allocator@D@2@@std@@@2@@std@@QBEAAV?$basic_string@DU?$char_traits@D@std@@V?$allocator@D@2@@2@XZ ; std::vector<std::basic_string<char,std::char_traits<char>,std::allocator<char> >,std::allocator<std::basic_string<char,std::char_traits<char>,std::allocator<char> > > >::iterator::operator*
PUBLIC	??Hiterator@?$vector@V?$basic_string@DU?$char_traits@D@std@@V?$allocator@D@2@@std@@V?$allocator@V?$basic_string@DU?$char_traits@D@std@@V?$allocator@D@2@@std@@@2@@std@@QBE?AV012@H@Z ; std::vector<std::basic_string<char,std::char_traits<char>,std::allocator<char> >,std::allocator<std::basic_string<char,std::char_traits<char>,std::allocator<char> > > >::iterator::operator+
; Function compile flags: /Odt /RTCsu
;	COMDAT ??A?$vector@V?$basic_string@DU?$char_traits@D@std@@V?$allocator@D@2@@std@@V?$allocator@V?$basic_string@DU?$char_traits@D@std@@V?$allocator@D@2@@std@@@2@@std@@QAEAAV?$basic_string@DU?$char_traits@D@std@@V?$allocator@D@2@@1@I@Z
_TEXT	SEGMENT
$T191425 = -12						; size = 4
$T191424 = -8						; size = 4
_this$ = -4						; size = 4
__Pos$ = 8						; size = 4
??A?$vector@V?$basic_string@DU?$char_traits@D@std@@V?$allocator@D@2@@std@@V?$allocator@V?$basic_string@DU?$char_traits@D@std@@V?$allocator@D@2@@std@@@2@@std@@QAEAAV?$basic_string@DU?$char_traits@D@std@@V?$allocator@D@2@@1@I@Z PROC NEAR ; std::vector<std::basic_string<char,std::char_traits<char>,std::allocator<char> >,std::allocator<std::basic_string<char,std::char_traits<char>,std::allocator<char> > > >::operator[], COMDAT
; _this$ = ecx

; 554  : 		{	// subscript mutable sequence

  00000	55		 push	 ebp
  00001	8b ec		 mov	 ebp, esp
  00003	83 ec 0c	 sub	 esp, 12			; 0000000cH
  00006	c7 45 f4 cc cc
	cc cc		 mov	 DWORD PTR [ebp-12], -858993460 ; ccccccccH
  0000d	c7 45 f8 cc cc
	cc cc		 mov	 DWORD PTR [ebp-8], -858993460 ; ccccccccH
  00014	c7 45 fc cc cc
	cc cc		 mov	 DWORD PTR [ebp-4], -858993460 ; ccccccccH
  0001b	89 4d fc	 mov	 DWORD PTR _this$[ebp], ecx

; 555  : 		return (*(begin() + _Pos));

  0001e	8b 45 08	 mov	 eax, DWORD PTR __Pos$[ebp]
  00021	50		 push	 eax
  00022	8d 4d f4	 lea	 ecx, DWORD PTR $T191425[ebp]
  00025	51		 push	 ecx
  00026	8d 55 f8	 lea	 edx, DWORD PTR $T191424[ebp]
  00029	52		 push	 edx
  0002a	8b 4d fc	 mov	 ecx, DWORD PTR _this$[ebp]
  0002d	e8 00 00 00 00	 call	 ?begin@?$vector@V?$basic_string@DU?$char_traits@D@std@@V?$allocator@D@2@@std@@V?$allocator@V?$basic_string@DU?$char_traits@D@std@@V?$allocator@D@2@@std@@@2@@std@@QAE?AViterator@12@XZ ; std::vector<std::basic_string<char,std::char_traits<char>,std::allocator<char> >,std::allocator<std::basic_string<char,std::char_traits<char>,std::allocator<char> > > >::begin
  00032	8b c8		 mov	 ecx, eax
  00034	e8 00 00 00 00	 call	 ??Hiterator@?$vector@V?$basic_string@DU?$char_traits@D@std@@V?$allocator@D@2@@std@@V?$allocator@V?$basic_string@DU?$char_traits@D@std@@V?$allocator@D@2@@std@@@2@@std@@QBE?AV012@H@Z ; std::vector<std::basic_string<char,std::char_traits<char>,std::allocator<char> >,std::allocator<std::basic_string<char,std::char_traits<char>,std::allocator<char> > > >::iterator::operator+
  00039	8b c8		 mov	 ecx, eax
  0003b	e8 00 00 00 00	 call	 ??Diterator@?$vector@V?$basic_string@DU?$char_traits@D@std@@V?$allocator@D@2@@std@@V?$allocator@V?$basic_string@DU?$char_traits@D@std@@V?$allocator@D@2@@std@@@2@@std@@QBEAAV?$basic_string@DU?$char_traits@D@std@@V?$allocator@D@2@@2@XZ ; std::vector<std::basic_string<char,std::char_traits<char>,std::allocator<char> >,std::allocator<std::basic_string<char,std::char_traits<char>,std::allocator<char> > > >::iterator::operator*

; 556  : 		}

  00040	83 c4 0c	 add	 esp, 12			; 0000000cH
  00043	3b ec		 cmp	 ebp, esp
  00045	e8 00 00 00 00	 call	 __RTC_CheckEsp
  0004a	8b e5		 mov	 esp, ebp
  0004c	5d		 pop	 ebp
  0004d	c2 04 00	 ret	 4
??A?$vector@V?$basic_string@DU?$char_traits@D@std@@V?$allocator@D@2@@std@@V?$allocator@V?$basic_string@DU?$char_traits@D@std@@V?$allocator@D@2@@std@@@2@@std@@QAEAAV?$basic_string@DU?$char_traits@D@std@@V?$allocator@D@2@@1@I@Z ENDP ; std::vector<std::basic_string<char,std::char_traits<char>,std::allocator<char> >,std::allocator<std::basic_string<char,std::char_traits<char>,std::allocator<char> > > >::operator[]
_TEXT	ENDS
PUBLIC	?capacity@?$vector@V?$basic_string@DU?$char_traits@D@std@@V?$allocator@D@2@@std@@V?$allocator@V?$basic_string@DU?$char_traits@D@std@@V?$allocator@D@2@@std@@@2@@std@@QBEIXZ ; std::vector<std::basic_string<char,std::char_traits<char>,std::allocator<char> >,std::allocator<std::basic_string<char,std::char_traits<char>,std::allocator<char> > > >::capacity
PUBLIC	?end@?$vector@V?$basic_string@DU?$char_traits@D@std@@V?$allocator@D@2@@std@@V?$allocator@V?$basic_string@DU?$char_traits@D@std@@V?$allocator@D@2@@std@@@2@@std@@QAE?AViterator@12@XZ ; std::vector<std::basic_string<char,std::char_traits<char>,std::allocator<char> >,std::allocator<std::basic_string<char,std::char_traits<char>,std::allocator<char> > > >::end
PUBLIC	?insert@?$vector@V?$basic_string@DU?$char_traits@D@std@@V?$allocator@D@2@@std@@V?$allocator@V?$basic_string@DU?$char_traits@D@std@@V?$allocator@D@2@@std@@@2@@std@@QAE?AViterator@12@V312@ABV?$basic_string@DU?$char_traits@D@std@@V?$allocator@D@2@@2@@Z ; std::vector<std::basic_string<char,std::char_traits<char>,std::allocator<char> >,std::allocator<std::basic_string<char,std::char_traits<char>,std::allocator<char> > > >::insert
PUBLIC	?_Ufill@?$vector@V?$basic_string@DU?$char_traits@D@std@@V?$allocator@D@2@@std@@V?$allocator@V?$basic_string@DU?$char_traits@D@std@@V?$allocator@D@2@@std@@@2@@std@@IAEPAV?$basic_string@DU?$char_traits@D@std@@V?$allocator@D@2@@2@PAV32@IABV32@@Z ; std::vector<std::basic_string<char,std::char_traits<char>,std::allocator<char> >,std::allocator<std::basic_string<char,std::char_traits<char>,std::allocator<char> > > >::_Ufill
; Function compile flags: /Odt /RTCsu
;	COMDAT ?push_back@?$vector@V?$basic_string@DU?$char_traits@D@std@@V?$allocator@D@2@@std@@V?$allocator@V?$basic_string@DU?$char_traits@D@std@@V?$allocator@D@2@@std@@@2@@std@@QAEXABV?$basic_string@DU?$char_traits@D@std@@V?$allocator@D@2@@2@@Z
_TEXT	SEGMENT
$T191428 = -12						; size = 4
$T191427 = -8						; size = 4
_this$ = -4						; size = 4
__Val$ = 8						; size = 4
?push_back@?$vector@V?$basic_string@DU?$char_traits@D@std@@V?$allocator@D@2@@std@@V?$allocator@V?$basic_string@DU?$char_traits@D@std@@V?$allocator@D@2@@std@@@2@@std@@QAEXABV?$basic_string@DU?$char_traits@D@std@@V?$allocator@D@2@@2@@Z PROC NEAR ; std::vector<std::basic_string<char,std::char_traits<char>,std::allocator<char> >,std::allocator<std::basic_string<char,std::char_traits<char>,std::allocator<char> > > >::push_back, COMDAT
; _this$ = ecx

; 579  : 		{	// insert element at end

  00000	55		 push	 ebp
  00001	8b ec		 mov	 ebp, esp
  00003	83 ec 0c	 sub	 esp, 12			; 0000000cH
  00006	56		 push	 esi
  00007	c7 45 f4 cc cc
	cc cc		 mov	 DWORD PTR [ebp-12], -858993460 ; ccccccccH
  0000e	c7 45 f8 cc cc
	cc cc		 mov	 DWORD PTR [ebp-8], -858993460 ; ccccccccH
  00015	c7 45 fc cc cc
	cc cc		 mov	 DWORD PTR [ebp-4], -858993460 ; ccccccccH
  0001c	89 4d fc	 mov	 DWORD PTR _this$[ebp], ecx

; 580  : 		if (size() < capacity())

  0001f	8b 4d fc	 mov	 ecx, DWORD PTR _this$[ebp]
  00022	e8 00 00 00 00	 call	 ?size@?$vector@V?$basic_string@DU?$char_traits@D@std@@V?$allocator@D@2@@std@@V?$allocator@V?$basic_string@DU?$char_traits@D@std@@V?$allocator@D@2@@std@@@2@@std@@QBEIXZ ; std::vector<std::basic_string<char,std::char_traits<char>,std::allocator<char> >,std::allocator<std::basic_string<char,std::char_traits<char>,std::allocator<char> > > >::size
  00027	8b f0		 mov	 esi, eax
  00029	8b 4d fc	 mov	 ecx, DWORD PTR _this$[ebp]
  0002c	e8 00 00 00 00	 call	 ?capacity@?$vector@V?$basic_string@DU?$char_traits@D@std@@V?$allocator@D@2@@std@@V?$allocator@V?$basic_string@DU?$char_traits@D@std@@V?$allocator@D@2@@std@@@2@@std@@QBEIXZ ; std::vector<std::basic_string<char,std::char_traits<char>,std::allocator<char> >,std::allocator<std::basic_string<char,std::char_traits<char>,std::allocator<char> > > >::capacity
  00031	3b f0		 cmp	 esi, eax
  00033	73 1d		 jae	 SHORT $L190234

; 581  : 			_Mylast = _Ufill(_Mylast, 1, _Val);

  00035	8b 45 08	 mov	 eax, DWORD PTR __Val$[ebp]
  00038	50		 push	 eax
  00039	6a 01		 push	 1
  0003b	8b 4d fc	 mov	 ecx, DWORD PTR _this$[ebp]
  0003e	8b 51 08	 mov	 edx, DWORD PTR [ecx+8]
  00041	52		 push	 edx
  00042	8b 4d fc	 mov	 ecx, DWORD PTR _this$[ebp]
  00045	e8 00 00 00 00	 call	 ?_Ufill@?$vector@V?$basic_string@DU?$char_traits@D@std@@V?$allocator@D@2@@std@@V?$allocator@V?$basic_string@DU?$char_traits@D@std@@V?$allocator@D@2@@std@@@2@@std@@IAEPAV?$basic_string@DU?$char_traits@D@std@@V?$allocator@D@2@@2@PAV32@IABV32@@Z ; std::vector<std::basic_string<char,std::char_traits<char>,std::allocator<char> >,std::allocator<std::basic_string<char,std::char_traits<char>,std::allocator<char> > > >::_Ufill
  0004a	8b 4d fc	 mov	 ecx, DWORD PTR _this$[ebp]
  0004d	89 41 08	 mov	 DWORD PTR [ecx+8], eax

; 582  : 		else

  00050	eb 1f		 jmp	 SHORT $L190233
$L190234:

; 583  : 			insert(end(), _Val);

  00052	8b 55 08	 mov	 edx, DWORD PTR __Val$[ebp]
  00055	52		 push	 edx
  00056	8d 45 f8	 lea	 eax, DWORD PTR $T191427[ebp]
  00059	50		 push	 eax
  0005a	8b 4d fc	 mov	 ecx, DWORD PTR _this$[ebp]
  0005d	e8 00 00 00 00	 call	 ?end@?$vector@V?$basic_string@DU?$char_traits@D@std@@V?$allocator@D@2@@std@@V?$allocator@V?$basic_string@DU?$char_traits@D@std@@V?$allocator@D@2@@std@@@2@@std@@QAE?AViterator@12@XZ ; std::vector<std::basic_string<char,std::char_traits<char>,std::allocator<char> >,std::allocator<std::basic_string<char,std::char_traits<char>,std::allocator<char> > > >::end
  00062	8b 08		 mov	 ecx, DWORD PTR [eax]
  00064	51		 push	 ecx
  00065	8d 55 f4	 lea	 edx, DWORD PTR $T191428[ebp]
  00068	52		 push	 edx
  00069	8b 4d fc	 mov	 ecx, DWORD PTR _this$[ebp]
  0006c	e8 00 00 00 00	 call	 ?insert@?$vector@V?$basic_string@DU?$char_traits@D@std@@V?$allocator@D@2@@std@@V?$allocator@V?$basic_string@DU?$char_traits@D@std@@V?$allocator@D@2@@std@@@2@@std@@QAE?AViterator@12@V312@ABV?$basic_string@DU?$char_traits@D@std@@V?$allocator@D@2@@2@@Z ; std::vector<std::basic_string<char,std::char_traits<char>,std::allocator<char> >,std::allocator<std::basic_string<char,std::char_traits<char>,std::allocator<char> > > >::insert
$L190233:

; 584  : 		}

  00071	5e		 pop	 esi
  00072	83 c4 0c	 add	 esp, 12			; 0000000cH
  00075	3b ec		 cmp	 ebp, esp
  00077	e8 00 00 00 00	 call	 __RTC_CheckEsp
  0007c	8b e5		 mov	 esp, ebp
  0007e	5d		 pop	 ebp
  0007f	c2 04 00	 ret	 4
?push_back@?$vector@V?$basic_string@DU?$char_traits@D@std@@V?$allocator@D@2@@std@@V?$allocator@V?$basic_string@DU?$char_traits@D@std@@V?$allocator@D@2@@std@@@2@@std@@QAEXABV?$basic_string@DU?$char_traits@D@std@@V?$allocator@D@2@@2@@Z ENDP ; std::vector<std::basic_string<char,std::char_traits<char>,std::allocator<char> >,std::allocator<std::basic_string<char,std::char_traits<char>,std::allocator<char> > > >::push_back
; Function compile flags: /Odt /RTCsu
; File d:\program files (x86)\microsoft visual studio .net 2003\vc7\include\xmemory
_TEXT	ENDS
;	COMDAT ??0?$allocator@V?$basic_string@DU?$char_traits@D@std@@V?$allocator@D@2@@std@@@std@@QAE@XZ
_TEXT	SEGMENT
_this$ = -4						; size = 4
??0?$allocator@V?$basic_string@DU?$char_traits@D@std@@V?$allocator@D@2@@std@@@std@@QAE@XZ PROC NEAR ; std::allocator<std::basic_string<char,std::char_traits<char>,std::allocator<char> > >::allocator<std::basic_string<char,std::char_traits<char>,std::allocator<char> > >, COMDAT
; _this$ = ecx

; 111  : 	allocator()

  00000	55		 push	 ebp
  00001	8b ec		 mov	 ebp, esp
  00003	51		 push	 ecx
  00004	c7 45 fc cc cc
	cc cc		 mov	 DWORD PTR [ebp-4], -858993460 ; ccccccccH
  0000b	89 4d fc	 mov	 DWORD PTR _this$[ebp], ecx

; 112  : 		{	// construct default allocator (do nothing)
; 113  : 		}

  0000e	8b 45 fc	 mov	 eax, DWORD PTR _this$[ebp]
  00011	8b e5		 mov	 esp, ebp
  00013	5d		 pop	 ebp
  00014	c3		 ret	 0
??0?$allocator@V?$basic_string@DU?$char_traits@D@std@@V?$allocator@D@2@@std@@@std@@QAE@XZ ENDP ; std::allocator<std::basic_string<char,std::char_traits<char>,std::allocator<char> > >::allocator<std::basic_string<char,std::char_traits<char>,std::allocator<char> > >
; Function compile flags: /Odt /RTCsu
; File d:\program files (x86)\microsoft visual studio .net 2003\vc7\include\vector
_TEXT	ENDS
;	COMDAT ?capacity@?$vector@V?$basic_string@DU?$char_traits@D@std@@V?$allocator@D@2@@std@@V?$allocator@V?$basic_string@DU?$char_traits@D@std@@V?$allocator@D@2@@std@@@2@@std@@QBEIXZ
_TEXT	SEGMENT
tv70 = -8						; size = 4
_this$ = -4						; size = 4
?capacity@?$vector@V?$basic_string@DU?$char_traits@D@std@@V?$allocator@D@2@@std@@V?$allocator@V?$basic_string@DU?$char_traits@D@std@@V?$allocator@D@2@@std@@@2@@std@@QBEIXZ PROC NEAR ; std::vector<std::basic_string<char,std::char_traits<char>,std::allocator<char> >,std::allocator<std::basic_string<char,std::char_traits<char>,std::allocator<char> > > >::capacity, COMDAT
; _this$ = ecx

; 457  : 		{	// return current length of allocated storage

  00000	55		 push	 ebp
  00001	8b ec		 mov	 ebp, esp
  00003	83 ec 08	 sub	 esp, 8
  00006	c7 45 f8 cc cc
	cc cc		 mov	 DWORD PTR [ebp-8], -858993460 ; ccccccccH
  0000d	c7 45 fc cc cc
	cc cc		 mov	 DWORD PTR [ebp-4], -858993460 ; ccccccccH
  00014	89 4d fc	 mov	 DWORD PTR _this$[ebp], ecx

; 458  : 		return (_Myfirst == 0 ? 0 : _Myend - _Myfirst);

  00017	8b 45 fc	 mov	 eax, DWORD PTR _this$[ebp]
  0001a	83 78 04 00	 cmp	 DWORD PTR [eax+4], 0
  0001e	75 09		 jne	 SHORT $L191431
  00020	c7 45 f8 00 00
	00 00		 mov	 DWORD PTR tv70[ebp], 0
  00027	eb 17		 jmp	 SHORT $L191432
$L191431:
  00029	8b 4d fc	 mov	 ecx, DWORD PTR _this$[ebp]
  0002c	8b 55 fc	 mov	 edx, DWORD PTR _this$[ebp]
  0002f	8b 41 0c	 mov	 eax, DWORD PTR [ecx+12]
  00032	2b 42 04	 sub	 eax, DWORD PTR [edx+4]
  00035	99		 cdq
  00036	b9 1c 00 00 00	 mov	 ecx, 28			; 0000001cH
  0003b	f7 f9		 idiv	 ecx
  0003d	89 45 f8	 mov	 DWORD PTR tv70[ebp], eax
$L191432:
  00040	8b 45 f8	 mov	 eax, DWORD PTR tv70[ebp]

; 459  : 		}

  00043	8b e5		 mov	 esp, ebp
  00045	5d		 pop	 ebp
  00046	c3		 ret	 0
?capacity@?$vector@V?$basic_string@DU?$char_traits@D@std@@V?$allocator@D@2@@std@@V?$allocator@V?$basic_string@DU?$char_traits@D@std@@V?$allocator@D@2@@std@@@2@@std@@QBEIXZ ENDP ; std::vector<std::basic_string<char,std::char_traits<char>,std::allocator<char> >,std::allocator<std::basic_string<char,std::char_traits<char>,std::allocator<char> > > >::capacity
_TEXT	ENDS
PUBLIC	??0iterator@?$vector@V?$basic_string@DU?$char_traits@D@std@@V?$allocator@D@2@@std@@V?$allocator@V?$basic_string@DU?$char_traits@D@std@@V?$allocator@D@2@@std@@@2@@std@@QAE@PAV?$basic_string@DU?$char_traits@D@std@@V?$allocator@D@2@@2@@Z ; std::vector<std::basic_string<char,std::char_traits<char>,std::allocator<char> >,std::allocator<std::basic_string<char,std::char_traits<char>,std::allocator<char> > > >::iterator::iterator
; Function compile flags: /Odt /RTCsu
;	COMDAT ?begin@?$vector@V?$basic_string@DU?$char_traits@D@std@@V?$allocator@D@2@@std@@V?$allocator@V?$basic_string@DU?$char_traits@D@std@@V?$allocator@D@2@@std@@@2@@std@@QAE?AViterator@12@XZ
_TEXT	SEGMENT
_this$ = -4						; size = 4
___$ReturnUdt$ = 8					; size = 4
?begin@?$vector@V?$basic_string@DU?$char_traits@D@std@@V?$allocator@D@2@@std@@V?$allocator@V?$basic_string@DU?$char_traits@D@std@@V?$allocator@D@2@@std@@@2@@std@@QAE?AViterator@12@XZ PROC NEAR ; std::vector<std::basic_string<char,std::char_traits<char>,std::allocator<char> >,std::allocator<std::basic_string<char,std::char_traits<char>,std::allocator<char> > > >::begin, COMDAT
; _this$ = ecx

; 462  : 		{	// return iterator for beginning of mutable sequence

  00000	55		 push	 ebp
  00001	8b ec		 mov	 ebp, esp
  00003	51		 push	 ecx
  00004	c7 45 fc cc cc
	cc cc		 mov	 DWORD PTR [ebp-4], -858993460 ; ccccccccH
  0000b	89 4d fc	 mov	 DWORD PTR _this$[ebp], ecx

; 463  : 		return (iterator(_Myfirst));

  0000e	8b 45 fc	 mov	 eax, DWORD PTR _this$[ebp]
  00011	8b 48 04	 mov	 ecx, DWORD PTR [eax+4]
  00014	51		 push	 ecx
  00015	8b 4d 08	 mov	 ecx, DWORD PTR ___$ReturnUdt$[ebp]
  00018	e8 00 00 00 00	 call	 ??0iterator@?$vector@V?$basic_string@DU?$char_traits@D@std@@V?$allocator@D@2@@std@@V?$allocator@V?$basic_string@DU?$char_traits@D@std@@V?$allocator@D@2@@std@@@2@@std@@QAE@PAV?$basic_string@DU?$char_traits@D@std@@V?$allocator@D@2@@2@@Z ; std::vector<std::basic_string<char,std::char_traits<char>,std::allocator<char> >,std::allocator<std::basic_string<char,std::char_traits<char>,std::allocator<char> > > >::iterator::iterator
  0001d	8b 45 08	 mov	 eax, DWORD PTR ___$ReturnUdt$[ebp]

; 464  : 		}

  00020	83 c4 04	 add	 esp, 4
  00023	3b ec		 cmp	 ebp, esp
  00025	e8 00 00 00 00	 call	 __RTC_CheckEsp
  0002a	8b e5		 mov	 esp, ebp
  0002c	5d		 pop	 ebp
  0002d	c2 04 00	 ret	 4
?begin@?$vector@V?$basic_string@DU?$char_traits@D@std@@V?$allocator@D@2@@std@@V?$allocator@V?$basic_string@DU?$char_traits@D@std@@V?$allocator@D@2@@std@@@2@@std@@QAE?AViterator@12@XZ ENDP ; std::vector<std::basic_string<char,std::char_traits<char>,std::allocator<char> >,std::allocator<std::basic_string<char,std::char_traits<char>,std::allocator<char> > > >::begin
; Function compile flags: /Odt /RTCsu
_TEXT	ENDS
;	COMDAT ?end@?$vector@V?$basic_string@DU?$char_traits@D@std@@V?$allocator@D@2@@std@@V?$allocator@V?$basic_string@DU?$char_traits@D@std@@V?$allocator@D@2@@std@@@2@@std@@QAE?AViterator@12@XZ
_TEXT	SEGMENT
_this$ = -4						; size = 4
___$ReturnUdt$ = 8					; size = 4
?end@?$vector@V?$basic_string@DU?$char_traits@D@std@@V?$allocator@D@2@@std@@V?$allocator@V?$basic_string@DU?$char_traits@D@std@@V?$allocator@D@2@@std@@@2@@std@@QAE?AViterator@12@XZ PROC NEAR ; std::vector<std::basic_string<char,std::char_traits<char>,std::allocator<char> >,std::allocator<std::basic_string<char,std::char_traits<char>,std::allocator<char> > > >::end, COMDAT
; _this$ = ecx

; 472  : 		{	// return iterator for end of mutable sequence

  00000	55		 push	 ebp
  00001	8b ec		 mov	 ebp, esp
  00003	51		 push	 ecx
  00004	c7 45 fc cc cc
	cc cc		 mov	 DWORD PTR [ebp-4], -858993460 ; ccccccccH
  0000b	89 4d fc	 mov	 DWORD PTR _this$[ebp], ecx

; 473  : 		return (iterator(_Mylast));

  0000e	8b 45 fc	 mov	 eax, DWORD PTR _this$[ebp]
  00011	8b 48 08	 mov	 ecx, DWORD PTR [eax+8]
  00014	51		 push	 ecx
  00015	8b 4d 08	 mov	 ecx, DWORD PTR ___$ReturnUdt$[ebp]
  00018	e8 00 00 00 00	 call	 ??0iterator@?$vector@V?$basic_string@DU?$char_traits@D@std@@V?$allocator@D@2@@std@@V?$allocator@V?$basic_string@DU?$char_traits@D@std@@V?$allocator@D@2@@std@@@2@@std@@QAE@PAV?$basic_string@DU?$char_traits@D@std@@V?$allocator@D@2@@2@@Z ; std::vector<std::basic_string<char,std::char_traits<char>,std::allocator<char> >,std::allocator<std::basic_string<char,std::char_traits<char>,std::allocator<char> > > >::iterator::iterator
  0001d	8b 45 08	 mov	 eax, DWORD PTR ___$ReturnUdt$[ebp]

; 474  : 		}

  00020	83 c4 04	 add	 esp, 4
  00023	3b ec		 cmp	 ebp, esp
  00025	e8 00 00 00 00	 call	 __RTC_CheckEsp
  0002a	8b e5		 mov	 esp, ebp
  0002c	5d		 pop	 ebp
  0002d	c2 04 00	 ret	 4
?end@?$vector@V?$basic_string@DU?$char_traits@D@std@@V?$allocator@D@2@@std@@V?$allocator@V?$basic_string@DU?$char_traits@D@std@@V?$allocator@D@2@@std@@@2@@std@@QAE?AViterator@12@XZ ENDP ; std::vector<std::basic_string<char,std::char_traits<char>,std::allocator<char> >,std::allocator<std::basic_string<char,std::char_traits<char>,std::allocator<char> > > >::end
_TEXT	ENDS
PUBLIC	?_Insert_n@?$vector@V?$basic_string@DU?$char_traits@D@std@@V?$allocator@D@2@@std@@V?$allocator@V?$basic_string@DU?$char_traits@D@std@@V?$allocator@D@2@@std@@@2@@std@@IAEXViterator@12@IABV?$basic_string@DU?$char_traits@D@std@@V?$allocator@D@2@@2@@Z ; std::vector<std::basic_string<char,std::char_traits<char>,std::allocator<char> >,std::allocator<std::basic_string<char,std::char_traits<char>,std::allocator<char> > > >::_Insert_n
PUBLIC	??Giterator@?$vector@V?$basic_string@DU?$char_traits@D@std@@V?$allocator@D@2@@std@@V?$allocator@V?$basic_string@DU?$char_traits@D@std@@V?$allocator@D@2@@std@@@2@@std@@QBEHABVconst_iterator@12@@Z ; std::vector<std::basic_string<char,std::char_traits<char>,std::allocator<char> >,std::allocator<std::basic_string<char,std::char_traits<char>,std::allocator<char> > > >::iterator::operator-
; Function compile flags: /Odt /RTCsu
;	COMDAT ?insert@?$vector@V?$basic_string@DU?$char_traits@D@std@@V?$allocator@D@2@@std@@V?$allocator@V?$basic_string@DU?$char_traits@D@std@@V?$allocator@D@2@@std@@@2@@std@@QAE?AViterator@12@V312@ABV?$basic_string@DU?$char_traits@D@std@@V?$allocator@D@2@@2@@Z
_TEXT	SEGMENT
tv73 = -20						; size = 4
$T191439 = -16						; size = 4
$T191436 = -12						; size = 4
__Off$ = -8						; size = 4
_this$ = -4						; size = 4
___$ReturnUdt$ = 8					; size = 4
__Where$ = 12						; size = 4
__Val$ = 16						; size = 4
?insert@?$vector@V?$basic_string@DU?$char_traits@D@std@@V?$allocator@D@2@@std@@V?$allocator@V?$basic_string@DU?$char_traits@D@std@@V?$allocator@D@2@@std@@@2@@std@@QAE?AViterator@12@V312@ABV?$basic_string@DU?$char_traits@D@std@@V?$allocator@D@2@@2@@Z PROC NEAR ; std::vector<std::basic_string<char,std::char_traits<char>,std::allocator<char> >,std::allocator<std::basic_string<char,std::char_traits<char>,std::allocator<char> > > >::insert, COMDAT
; _this$ = ecx

; 620  : 		{	// insert _Val at _Where

  00000	55		 push	 ebp
  00001	8b ec		 mov	 ebp, esp
  00003	83 ec 14	 sub	 esp, 20			; 00000014H
  00006	b8 cc cc cc cc	 mov	 eax, -858993460		; ccccccccH
  0000b	89 45 ec	 mov	 DWORD PTR [ebp-20], eax
  0000e	89 45 f0	 mov	 DWORD PTR [ebp-16], eax
  00011	89 45 f4	 mov	 DWORD PTR [ebp-12], eax
  00014	89 45 f8	 mov	 DWORD PTR [ebp-8], eax
  00017	89 45 fc	 mov	 DWORD PTR [ebp-4], eax
  0001a	89 4d fc	 mov	 DWORD PTR _this$[ebp], ecx

; 621  : 		size_type _Off = size() == 0 ? 0 : _Where - begin();

  0001d	8b 4d fc	 mov	 ecx, DWORD PTR _this$[ebp]
  00020	e8 00 00 00 00	 call	 ?size@?$vector@V?$basic_string@DU?$char_traits@D@std@@V?$allocator@D@2@@std@@V?$allocator@V?$basic_string@DU?$char_traits@D@std@@V?$allocator@D@2@@std@@@2@@std@@QBEIXZ ; std::vector<std::basic_string<char,std::char_traits<char>,std::allocator<char> >,std::allocator<std::basic_string<char,std::char_traits<char>,std::allocator<char> > > >::size
  00025	85 c0		 test	 eax, eax
  00027	75 09		 jne	 SHORT $L191437
  00029	c7 45 ec 00 00
	00 00		 mov	 DWORD PTR tv73[ebp], 0
  00030	eb 18		 jmp	 SHORT $L191438
$L191437:
  00032	8d 45 f4	 lea	 eax, DWORD PTR $T191436[ebp]
  00035	50		 push	 eax
  00036	8b 4d fc	 mov	 ecx, DWORD PTR _this$[ebp]
  00039	e8 00 00 00 00	 call	 ?begin@?$vector@V?$basic_string@DU?$char_traits@D@std@@V?$allocator@D@2@@std@@V?$allocator@V?$basic_string@DU?$char_traits@D@std@@V?$allocator@D@2@@std@@@2@@std@@QAE?AViterator@12@XZ ; std::vector<std::basic_string<char,std::char_traits<char>,std::allocator<char> >,std::allocator<std::basic_string<char,std::char_traits<char>,std::allocator<char> > > >::begin
  0003e	50		 push	 eax
  0003f	8d 4d 0c	 lea	 ecx, DWORD PTR __Where$[ebp]
  00042	e8 00 00 00 00	 call	 ??Giterator@?$vector@V?$basic_string@DU?$char_traits@D@std@@V?$allocator@D@2@@std@@V?$allocator@V?$basic_string@DU?$char_traits@D@std@@V?$allocator@D@2@@std@@@2@@std@@QBEHABVconst_iterator@12@@Z ; std::vector<std::basic_string<char,std::char_traits<char>,std::allocator<char> >,std::allocator<std::basic_string<char,std::char_traits<char>,std::allocator<char> > > >::iterator::operator-
  00047	89 45 ec	 mov	 DWORD PTR tv73[ebp], eax
$L191438:
  0004a	8b 4d ec	 mov	 ecx, DWORD PTR tv73[ebp]
  0004d	89 4d f8	 mov	 DWORD PTR __Off$[ebp], ecx

; 622  : 		_Insert_n(_Where, (size_type)1, _Val);

  00050	8b 55 10	 mov	 edx, DWORD PTR __Val$[ebp]
  00053	52		 push	 edx
  00054	6a 01		 push	 1
  00056	8b 45 0c	 mov	 eax, DWORD PTR __Where$[ebp]
  00059	50		 push	 eax
  0005a	8b 4d fc	 mov	 ecx, DWORD PTR _this$[ebp]
  0005d	e8 00 00 00 00	 call	 ?_Insert_n@?$vector@V?$basic_string@DU?$char_traits@D@std@@V?$allocator@D@2@@std@@V?$allocator@V?$basic_string@DU?$char_traits@D@std@@V?$allocator@D@2@@std@@@2@@std@@IAEXViterator@12@IABV?$basic_string@DU?$char_traits@D@std@@V?$allocator@D@2@@2@@Z ; std::vector<std::basic_string<char,std::char_traits<char>,std::allocator<char> >,std::allocator<std::basic_string<char,std::char_traits<char>,std::allocator<char> > > >::_Insert_n

; 623  : 		return (begin() + _Off);

  00062	8b 4d f8	 mov	 ecx, DWORD PTR __Off$[ebp]
  00065	51		 push	 ecx
  00066	8b 55 08	 mov	 edx, DWORD PTR ___$ReturnUdt$[ebp]
  00069	52		 push	 edx
  0006a	8d 45 f0	 lea	 eax, DWORD PTR $T191439[ebp]
  0006d	50		 push	 eax
  0006e	8b 4d fc	 mov	 ecx, DWORD PTR _this$[ebp]
  00071	e8 00 00 00 00	 call	 ?begin@?$vector@V?$basic_string@DU?$char_traits@D@std@@V?$allocator@D@2@@std@@V?$allocator@V?$basic_string@DU?$char_traits@D@std@@V?$allocator@D@2@@std@@@2@@std@@QAE?AViterator@12@XZ ; std::vector<std::basic_string<char,std::char_traits<char>,std::allocator<char> >,std::allocator<std::basic_string<char,std::char_traits<char>,std::allocator<char> > > >::begin
  00076	8b c8		 mov	 ecx, eax
  00078	e8 00 00 00 00	 call	 ??Hiterator@?$vector@V?$basic_string@DU?$char_traits@D@std@@V?$allocator@D@2@@std@@V?$allocator@V?$basic_string@DU?$char_traits@D@std@@V?$allocator@D@2@@std@@@2@@std@@QBE?AV012@H@Z ; std::vector<std::basic_string<char,std::char_traits<char>,std::allocator<char> >,std::allocator<std::basic_string<char,std::char_traits<char>,std::allocator<char> > > >::iterator::operator+
  0007d	8b 45 08	 mov	 eax, DWORD PTR ___$ReturnUdt$[ebp]

; 624  : 		}

  00080	83 c4 14	 add	 esp, 20			; 00000014H
  00083	3b ec		 cmp	 ebp, esp
  00085	e8 00 00 00 00	 call	 __RTC_CheckEsp
  0008a	8b e5		 mov	 esp, ebp
  0008c	5d		 pop	 ebp
  0008d	c2 0c 00	 ret	 12			; 0000000cH
?insert@?$vector@V?$basic_string@DU?$char_traits@D@std@@V?$allocator@D@2@@std@@V?$allocator@V?$basic_string@DU?$char_traits@D@std@@V?$allocator@D@2@@std@@@2@@std@@QAE?AViterator@12@V312@ABV?$basic_string@DU?$char_traits@D@std@@V?$allocator@D@2@@2@@Z ENDP ; std::vector<std::basic_string<char,std::char_traits<char>,std::allocator<char> >,std::allocator<std::basic_string<char,std::char_traits<char>,std::allocator<char> > > >::insert
_TEXT	ENDS
PUBLIC	?max_size@?$vector@V?$basic_string@DU?$char_traits@D@std@@V?$allocator@D@2@@std@@V?$allocator@V?$basic_string@DU?$char_traits@D@std@@V?$allocator@D@2@@std@@@2@@std@@QBEIXZ ; std::vector<std::basic_string<char,std::char_traits<char>,std::allocator<char> >,std::allocator<std::basic_string<char,std::char_traits<char>,std::allocator<char> > > >::max_size
PUBLIC	?_Xlen@?$vector@V?$basic_string@DU?$char_traits@D@std@@V?$allocator@D@2@@std@@V?$allocator@V?$basic_string@DU?$char_traits@D@std@@V?$allocator@D@2@@std@@@2@@std@@IBEXXZ ; std::vector<std::basic_string<char,std::char_traits<char>,std::allocator<char> >,std::allocator<std::basic_string<char,std::char_traits<char>,std::allocator<char> > > >::_Xlen
PUBLIC	?allocate@?$allocator@V?$basic_string@DU?$char_traits@D@std@@V?$allocator@D@2@@std@@@std@@QAEPAV?$basic_string@DU?$char_traits@D@std@@V?$allocator@D@2@@2@I@Z ; std::allocator<std::basic_string<char,std::char_traits<char>,std::allocator<char> > >::allocate
; Function compile flags: /Odt /RTCsu
;	COMDAT ?_Buy@?$vector@V?$basic_string@DU?$char_traits@D@std@@V?$allocator@D@2@@std@@V?$allocator@V?$basic_string@DU?$char_traits@D@std@@V?$allocator@D@2@@std@@@2@@std@@IAE_NI@Z
_TEXT	SEGMENT
_this$ = -4						; size = 4
__Capacity$ = 8						; size = 4
?_Buy@?$vector@V?$basic_string@DU?$char_traits@D@std@@V?$allocator@D@2@@std@@V?$allocator@V?$basic_string@DU?$char_traits@D@std@@V?$allocator@D@2@@std@@@2@@std@@IAE_NI@Z PROC NEAR ; std::vector<std::basic_string<char,std::char_traits<char>,std::allocator<char> >,std::allocator<std::basic_string<char,std::char_traits<char>,std::allocator<char> > > >::_Buy, COMDAT
; _this$ = ecx

; 770  : 		{	// allocate array with _Capacity elements

  00000	55		 push	 ebp
  00001	8b ec		 mov	 ebp, esp
  00003	51		 push	 ecx
  00004	c7 45 fc cc cc
	cc cc		 mov	 DWORD PTR [ebp-4], -858993460 ; ccccccccH
  0000b	89 4d fc	 mov	 DWORD PTR _this$[ebp], ecx

; 771  : 		_Myfirst = 0, _Mylast = 0, _Myend = 0;

  0000e	8b 45 fc	 mov	 eax, DWORD PTR _this$[ebp]
  00011	c7 40 04 00 00
	00 00		 mov	 DWORD PTR [eax+4], 0
  00018	8b 4d fc	 mov	 ecx, DWORD PTR _this$[ebp]
  0001b	c7 41 08 00 00
	00 00		 mov	 DWORD PTR [ecx+8], 0
  00022	8b 55 fc	 mov	 edx, DWORD PTR _this$[ebp]
  00025	c7 42 0c 00 00
	00 00		 mov	 DWORD PTR [edx+12], 0

; 772  : 		if (_Capacity == 0)

  0002c	83 7d 08 00	 cmp	 DWORD PTR __Capacity$[ebp], 0
  00030	75 04		 jne	 SHORT $L190288

; 773  : 			return (false);

  00032	32 c0		 xor	 al, al
  00034	eb 49		 jmp	 SHORT $L190287
$L190288:

; 774  : 		else if (max_size() < _Capacity)

  00036	8b 4d fc	 mov	 ecx, DWORD PTR _this$[ebp]
  00039	e8 00 00 00 00	 call	 ?max_size@?$vector@V?$basic_string@DU?$char_traits@D@std@@V?$allocator@D@2@@std@@V?$allocator@V?$basic_string@DU?$char_traits@D@std@@V?$allocator@D@2@@std@@@2@@std@@QBEIXZ ; std::vector<std::basic_string<char,std::char_traits<char>,std::allocator<char> >,std::allocator<std::basic_string<char,std::char_traits<char>,std::allocator<char> > > >::max_size
  0003e	3b 45 08	 cmp	 eax, DWORD PTR __Capacity$[ebp]
  00041	73 0a		 jae	 SHORT $L190290

; 775  : 			_Xlen();	// result too long

  00043	8b 4d fc	 mov	 ecx, DWORD PTR _this$[ebp]
  00046	e8 00 00 00 00	 call	 ?_Xlen@?$vector@V?$basic_string@DU?$char_traits@D@std@@V?$allocator@D@2@@std@@V?$allocator@V?$basic_string@DU?$char_traits@D@std@@V?$allocator@D@2@@std@@@2@@std@@IBEXXZ ; std::vector<std::basic_string<char,std::char_traits<char>,std::allocator<char> >,std::allocator<std::basic_string<char,std::char_traits<char>,std::allocator<char> > > >::_Xlen

; 776  : 		else

  0004b	eb 30		 jmp	 SHORT $L190289
$L190290:

; 777  : 			{	// nonempty array, allocate storage
; 778  : 			_Myfirst = this->_Alval.allocate(_Capacity);

  0004d	8b 45 08	 mov	 eax, DWORD PTR __Capacity$[ebp]
  00050	50		 push	 eax
  00051	8b 4d fc	 mov	 ecx, DWORD PTR _this$[ebp]
  00054	e8 00 00 00 00	 call	 ?allocate@?$allocator@V?$basic_string@DU?$char_traits@D@std@@V?$allocator@D@2@@std@@@std@@QAEPAV?$basic_string@DU?$char_traits@D@std@@V?$allocator@D@2@@2@I@Z ; std::allocator<std::basic_string<char,std::char_traits<char>,std::allocator<char> > >::allocate
  00059	8b 4d fc	 mov	 ecx, DWORD PTR _this$[ebp]
  0005c	89 41 04	 mov	 DWORD PTR [ecx+4], eax

; 779  : 			_Mylast = _Myfirst;

  0005f	8b 55 fc	 mov	 edx, DWORD PTR _this$[ebp]
  00062	8b 45 fc	 mov	 eax, DWORD PTR _this$[ebp]
  00065	8b 48 04	 mov	 ecx, DWORD PTR [eax+4]
  00068	89 4a 08	 mov	 DWORD PTR [edx+8], ecx

; 780  : 			_Myend = _Myfirst + _Capacity;

  0006b	8b 55 08	 mov	 edx, DWORD PTR __Capacity$[ebp]
  0006e	6b d2 1c	 imul	 edx, 28			; 0000001cH
  00071	8b 45 fc	 mov	 eax, DWORD PTR _this$[ebp]
  00074	03 50 04	 add	 edx, DWORD PTR [eax+4]
  00077	8b 4d fc	 mov	 ecx, DWORD PTR _this$[ebp]
  0007a	89 51 0c	 mov	 DWORD PTR [ecx+12], edx
$L190289:

; 781  : 			}
; 782  : 		return (true);

  0007d	b0 01		 mov	 al, 1
$L190287:

; 783  : 		}

  0007f	83 c4 04	 add	 esp, 4
  00082	3b ec		 cmp	 ebp, esp
  00084	e8 00 00 00 00	 call	 __RTC_CheckEsp
  00089	8b e5		 mov	 esp, ebp
  0008b	5d		 pop	 ebp
  0008c	c2 04 00	 ret	 4
?_Buy@?$vector@V?$basic_string@DU?$char_traits@D@std@@V?$allocator@D@2@@std@@V?$allocator@V?$basic_string@DU?$char_traits@D@std@@V?$allocator@D@2@@std@@@2@@std@@IAE_NI@Z ENDP ; std::vector<std::basic_string<char,std::char_traits<char>,std::allocator<char> >,std::allocator<std::basic_string<char,std::char_traits<char>,std::allocator<char> > > >::_Buy
_TEXT	ENDS
PUBLIC	?_Destroy@?$vector@V?$basic_string@DU?$char_traits@D@std@@V?$allocator@D@2@@std@@V?$allocator@V?$basic_string@DU?$char_traits@D@std@@V?$allocator@D@2@@std@@@2@@std@@IAEXPAV?$basic_string@DU?$char_traits@D@std@@V?$allocator@D@2@@2@0@Z ; std::vector<std::basic_string<char,std::char_traits<char>,std::allocator<char> >,std::allocator<std::basic_string<char,std::char_traits<char>,std::allocator<char> > > >::_Destroy
PUBLIC	?deallocate@?$allocator@V?$basic_string@DU?$char_traits@D@std@@V?$allocator@D@2@@std@@@std@@QAEXPAV?$basic_string@DU?$char_traits@D@std@@V?$allocator@D@2@@2@I@Z ; std::allocator<std::basic_string<char,std::char_traits<char>,std::allocator<char> > >::deallocate
; Function compile flags: /Odt /RTCsu
;	COMDAT ?_Tidy@?$vector@V?$basic_string@DU?$char_traits@D@std@@V?$allocator@D@2@@std@@V?$allocator@V?$basic_string@DU?$char_traits@D@std@@V?$allocator@D@2@@std@@@2@@std@@IAEXXZ
_TEXT	SEGMENT
_this$ = -4						; size = 4
?_Tidy@?$vector@V?$basic_string@DU?$char_traits@D@std@@V?$allocator@D@2@@std@@V?$allocator@V?$basic_string@DU?$char_traits@D@std@@V?$allocator@D@2@@std@@@2@@std@@IAEXXZ PROC NEAR ; std::vector<std::basic_string<char,std::char_traits<char>,std::allocator<char> >,std::allocator<std::basic_string<char,std::char_traits<char>,std::allocator<char> > > >::_Tidy, COMDAT
; _this$ = ecx

; 791  : 		{	// free all storage

  00000	55		 push	 ebp
  00001	8b ec		 mov	 ebp, esp
  00003	51		 push	 ecx
  00004	c7 45 fc cc cc
	cc cc		 mov	 DWORD PTR [ebp-4], -858993460 ; ccccccccH
  0000b	89 4d fc	 mov	 DWORD PTR _this$[ebp], ecx

; 792  : 		if (_Myfirst != 0)

  0000e	8b 45 fc	 mov	 eax, DWORD PTR _this$[ebp]
  00011	83 78 04 00	 cmp	 DWORD PTR [eax+4], 0
  00015	74 3c		 je	 SHORT $L190294

; 793  : 			{	// something to free, destroy and deallocate it
; 794  : 			_Destroy(_Myfirst, _Mylast);

  00017	8b 4d fc	 mov	 ecx, DWORD PTR _this$[ebp]
  0001a	8b 51 08	 mov	 edx, DWORD PTR [ecx+8]
  0001d	52		 push	 edx
  0001e	8b 45 fc	 mov	 eax, DWORD PTR _this$[ebp]
  00021	8b 48 04	 mov	 ecx, DWORD PTR [eax+4]
  00024	51		 push	 ecx
  00025	8b 4d fc	 mov	 ecx, DWORD PTR _this$[ebp]
  00028	e8 00 00 00 00	 call	 ?_Destroy@?$vector@V?$basic_string@DU?$char_traits@D@std@@V?$allocator@D@2@@std@@V?$allocator@V?$basic_string@DU?$char_traits@D@std@@V?$allocator@D@2@@std@@@2@@std@@IAEXPAV?$basic_string@DU?$char_traits@D@std@@V?$allocator@D@2@@2@0@Z ; std::vector<std::basic_string<char,std::char_traits<char>,std::allocator<char> >,std::allocator<std::basic_string<char,std::char_traits<char>,std::allocator<char> > > >::_Destroy

; 795  : 			this->_Alval.deallocate(_Myfirst, _Myend - _Myfirst);

  0002d	8b 55 fc	 mov	 edx, DWORD PTR _this$[ebp]
  00030	8b 45 fc	 mov	 eax, DWORD PTR _this$[ebp]
  00033	8b 4a 0c	 mov	 ecx, DWORD PTR [edx+12]
  00036	2b 48 04	 sub	 ecx, DWORD PTR [eax+4]
  00039	8b c1		 mov	 eax, ecx
  0003b	99		 cdq
  0003c	b9 1c 00 00 00	 mov	 ecx, 28			; 0000001cH
  00041	f7 f9		 idiv	 ecx
  00043	50		 push	 eax
  00044	8b 55 fc	 mov	 edx, DWORD PTR _this$[ebp]
  00047	8b 42 04	 mov	 eax, DWORD PTR [edx+4]
  0004a	50		 push	 eax
  0004b	8b 4d fc	 mov	 ecx, DWORD PTR _this$[ebp]
  0004e	e8 00 00 00 00	 call	 ?deallocate@?$allocator@V?$basic_string@DU?$char_traits@D@std@@V?$allocator@D@2@@std@@@std@@QAEXPAV?$basic_string@DU?$char_traits@D@std@@V?$allocator@D@2@@2@I@Z ; std::allocator<std::basic_string<char,std::char_traits<char>,std::allocator<char> > >::deallocate
$L190294:

; 796  : 			}
; 797  : 		_Myfirst = 0, _Mylast = 0, _Myend = 0;

  00053	8b 4d fc	 mov	 ecx, DWORD PTR _this$[ebp]
  00056	c7 41 04 00 00
	00 00		 mov	 DWORD PTR [ecx+4], 0
  0005d	8b 55 fc	 mov	 edx, DWORD PTR _this$[ebp]
  00060	c7 42 08 00 00
	00 00		 mov	 DWORD PTR [edx+8], 0
  00067	8b 45 fc	 mov	 eax, DWORD PTR _this$[ebp]
  0006a	c7 40 0c 00 00
	00 00		 mov	 DWORD PTR [eax+12], 0

; 798  : 		}

  00071	83 c4 04	 add	 esp, 4
  00074	3b ec		 cmp	 ebp, esp
  00076	e8 00 00 00 00	 call	 __RTC_CheckEsp
  0007b	8b e5		 mov	 esp, ebp
  0007d	5d		 pop	 ebp
  0007e	c3		 ret	 0
?_Tidy@?$vector@V?$basic_string@DU?$char_traits@D@std@@V?$allocator@D@2@@std@@V?$allocator@V?$basic_string@DU?$char_traits@D@std@@V?$allocator@D@2@@std@@@2@@std@@IAEXXZ ENDP ; std::vector<std::basic_string<char,std::char_traits<char>,std::allocator<char> >,std::allocator<std::basic_string<char,std::char_traits<char>,std::allocator<char> > > >::_Tidy
_TEXT	ENDS
PUBLIC	??$_Uninitialized_fill_n@PAV?$basic_string@DU?$char_traits@D@std@@V?$allocator@D@2@@std@@IV12@V?$allocator@V?$basic_string@DU?$char_traits@D@std@@V?$allocator@D@2@@std@@@2@@std@@YAXPAV?$basic_string@DU?$char_traits@D@std@@V?$allocator@D@2@@0@IABV10@AAV?$allocator@V?$basic_string@DU?$char_traits@D@std@@V?$allocator@D@2@@std@@@0@@Z ; std::_Uninitialized_fill_n<std::basic_string<char,std::char_traits<char>,std::allocator<char> > *,unsigned int,std::basic_string<char,std::char_traits<char>,std::allocator<char> >,std::allocator<std::basic_string<char,std::char_traits<char>,std::allocator<char> > > >
; Function compile flags: /Odt /RTCsu
;	COMDAT ?_Ufill@?$vector@V?$basic_string@DU?$char_traits@D@std@@V?$allocator@D@2@@std@@V?$allocator@V?$basic_string@DU?$char_traits@D@std@@V?$allocator@D@2@@std@@@2@@std@@IAEPAV?$basic_string@DU?$char_traits@D@std@@V?$allocator@D@2@@2@PAV32@IABV32@@Z
_TEXT	SEGMENT
_this$ = -4						; size = 4
__Ptr$ = 8						; size = 4
__Count$ = 12						; size = 4
__Val$ = 16						; size = 4
?_Ufill@?$vector@V?$basic_string@DU?$char_traits@D@std@@V?$allocator@D@2@@std@@V?$allocator@V?$basic_string@DU?$char_traits@D@std@@V?$allocator@D@2@@std@@@2@@std@@IAEPAV?$basic_string@DU?$char_traits@D@std@@V?$allocator@D@2@@2@PAV32@IABV32@@Z PROC NEAR ; std::vector<std::basic_string<char,std::char_traits<char>,std::allocator<char> >,std::allocator<std::basic_string<char,std::char_traits<char>,std::allocator<char> > > >::_Ufill, COMDAT
; _this$ = ecx

; 877  : 		{	// copy initializing _Count * _Val, using allocator

  00000	55		 push	 ebp
  00001	8b ec		 mov	 ebp, esp
  00003	51		 push	 ecx
  00004	c7 45 fc cc cc
	cc cc		 mov	 DWORD PTR [ebp-4], -858993460 ; ccccccccH
  0000b	89 4d fc	 mov	 DWORD PTR _this$[ebp], ecx

; 878  : 		_Uninitialized_fill_n(_Ptr, _Count, _Val, this->_Alval);

  0000e	8b 45 fc	 mov	 eax, DWORD PTR _this$[ebp]
  00011	50		 push	 eax
  00012	8b 4d 10	 mov	 ecx, DWORD PTR __Val$[ebp]
  00015	51		 push	 ecx
  00016	8b 55 0c	 mov	 edx, DWORD PTR __Count$[ebp]
  00019	52		 push	 edx
  0001a	8b 45 08	 mov	 eax, DWORD PTR __Ptr$[ebp]
  0001d	50		 push	 eax
  0001e	e8 00 00 00 00	 call	 ??$_Uninitialized_fill_n@PAV?$basic_string@DU?$char_traits@D@std@@V?$allocator@D@2@@std@@IV12@V?$allocator@V?$basic_string@DU?$char_traits@D@std@@V?$allocator@D@2@@std@@@2@@std@@YAXPAV?$basic_string@DU?$char_traits@D@std@@V?$allocator@D@2@@0@IABV10@AAV?$allocator@V?$basic_string@DU?$char_traits@D@std@@V?$allocator@D@2@@std@@@0@@Z ; std::_Uninitialized_fill_n<std::basic_string<char,std::char_traits<char>,std::allocator<char> > *,unsigned int,std::basic_string<char,std::char_traits<char>,std::allocator<char> >,std::allocator<std::basic_string<char,std::char_traits<char>,std::allocator<char> > > >
  00023	83 c4 10	 add	 esp, 16			; 00000010H

; 879  : 		return (_Ptr + _Count);

  00026	8b 45 0c	 mov	 eax, DWORD PTR __Count$[ebp]
  00029	6b c0 1c	 imul	 eax, 28			; 0000001cH
  0002c	03 45 08	 add	 eax, DWORD PTR __Ptr$[ebp]

; 880  : 		}

  0002f	83 c4 04	 add	 esp, 4
  00032	3b ec		 cmp	 ebp, esp
  00034	e8 00 00 00 00	 call	 __RTC_CheckEsp
  00039	8b e5		 mov	 esp, ebp
  0003b	5d		 pop	 ebp
  0003c	c2 0c 00	 ret	 12			; 0000000cH
?_Ufill@?$vector@V?$basic_string@DU?$char_traits@D@std@@V?$allocator@D@2@@std@@V?$allocator@V?$basic_string@DU?$char_traits@D@std@@V?$allocator@D@2@@std@@@2@@std@@IAEPAV?$basic_string@DU?$char_traits@D@std@@V?$allocator@D@2@@2@PAV32@IABV32@@Z ENDP ; std::vector<std::basic_string<char,std::char_traits<char>,std::allocator<char> >,std::allocator<std::basic_string<char,std::char_traits<char>,std::allocator<char> > > >::_Ufill
_TEXT	ENDS
PUBLIC	??0?$allocator@V?$basic_string@DU?$char_traits@D@std@@V?$allocator@D@2@@std@@@std@@QAE@ABV01@@Z ; std::allocator<std::basic_string<char,std::char_traits<char>,std::allocator<char> > >::allocator<std::basic_string<char,std::char_traits<char>,std::allocator<char> > >
; Function compile flags: /Odt /RTCsu
;	COMDAT ??0?$_Vector_val@V?$basic_string@DU?$char_traits@D@std@@V?$allocator@D@2@@std@@V?$allocator@V?$basic_string@DU?$char_traits@D@std@@V?$allocator@D@2@@std@@@2@@std@@IAE@V?$allocator@V?$basic_string@DU?$char_traits@D@std@@V?$allocator@D@2@@std@@@1@@Z
_TEXT	SEGMENT
_this$ = -4						; size = 4
__Al$ = 8						; size = 1
??0?$_Vector_val@V?$basic_string@DU?$char_traits@D@std@@V?$allocator@D@2@@std@@V?$allocator@V?$basic_string@DU?$char_traits@D@std@@V?$allocator@D@2@@std@@@2@@std@@IAE@V?$allocator@V?$basic_string@DU?$char_traits@D@std@@V?$allocator@D@2@@std@@@1@@Z PROC NEAR ; std::_Vector_val<std::basic_string<char,std::char_traits<char>,std::allocator<char> >,std::allocator<std::basic_string<char,std::char_traits<char>,std::allocator<char> > > >::_Vector_val<std::basic_string<char,std::char_traits<char>,std::allocator<char> >,std::allocator<std::basic_string<char,std::char_traits<char>,std::allocator<char> > > >, COMDAT
; _this$ = ecx

; 21   : 		{	// construct allocator from _Al

  00000	55		 push	 ebp
  00001	8b ec		 mov	 ebp, esp
  00003	51		 push	 ecx
  00004	c7 45 fc cc cc
	cc cc		 mov	 DWORD PTR [ebp-4], -858993460 ; ccccccccH
  0000b	89 4d fc	 mov	 DWORD PTR _this$[ebp], ecx
  0000e	8d 45 08	 lea	 eax, DWORD PTR __Al$[ebp]
  00011	50		 push	 eax
  00012	8b 4d fc	 mov	 ecx, DWORD PTR _this$[ebp]
  00015	e8 00 00 00 00	 call	 ??0?$allocator@V?$basic_string@DU?$char_traits@D@std@@V?$allocator@D@2@@std@@@std@@QAE@ABV01@@Z ; std::allocator<std::basic_string<char,std::char_traits<char>,std::allocator<char> > >::allocator<std::basic_string<char,std::char_traits<char>,std::allocator<char> > >

; 22   : 		}

  0001a	8b 45 fc	 mov	 eax, DWORD PTR _this$[ebp]
  0001d	83 c4 04	 add	 esp, 4
  00020	3b ec		 cmp	 ebp, esp
  00022	e8 00 00 00 00	 call	 __RTC_CheckEsp
  00027	8b e5		 mov	 esp, ebp
  00029	5d		 pop	 ebp
  0002a	c2 04 00	 ret	 4
??0?$_Vector_val@V?$basic_string@DU?$char_traits@D@std@@V?$allocator@D@2@@std@@V?$allocator@V?$basic_string@DU?$char_traits@D@std@@V?$allocator@D@2@@std@@@2@@std@@IAE@V?$allocator@V?$basic_string@DU?$char_traits@D@std@@V?$allocator@D@2@@std@@@1@@Z ENDP ; std::_Vector_val<std::basic_string<char,std::char_traits<char>,std::allocator<char> >,std::allocator<std::basic_string<char,std::char_traits<char>,std::allocator<char> > > >::_Vector_val<std::basic_string<char,std::char_traits<char>,std::allocator<char> >,std::allocator<std::basic_string<char,std::char_traits<char>,std::allocator<char> > > >
_TEXT	ENDS
PUBLIC	??Dconst_iterator@?$vector@V?$basic_string@DU?$char_traits@D@std@@V?$allocator@D@2@@std@@V?$allocator@V?$basic_string@DU?$char_traits@D@std@@V?$allocator@D@2@@std@@@2@@std@@QBEABV?$basic_string@DU?$char_traits@D@std@@V?$allocator@D@2@@2@XZ ; std::vector<std::basic_string<char,std::char_traits<char>,std::allocator<char> >,std::allocator<std::basic_string<char,std::char_traits<char>,std::allocator<char> > > >::const_iterator::operator*
; Function compile flags: /Odt /RTCsu
;	COMDAT ??Diterator@?$vector@V?$basic_string@DU?$char_traits@D@std@@V?$allocator@D@2@@std@@V?$allocator@V?$basic_string@DU?$char_traits@D@std@@V?$allocator@D@2@@std@@@2@@std@@QBEAAV?$basic_string@DU?$char_traits@D@std@@V?$allocator@D@2@@2@XZ
_TEXT	SEGMENT
_this$ = -4						; size = 4
??Diterator@?$vector@V?$basic_string@DU?$char_traits@D@std@@V?$allocator@D@2@@std@@V?$allocator@V?$basic_string@DU?$char_traits@D@std@@V?$allocator@D@2@@std@@@2@@std@@QBEAAV?$basic_string@DU?$char_traits@D@std@@V?$allocator@D@2@@2@XZ PROC NEAR ; std::vector<std::basic_string<char,std::char_traits<char>,std::allocator<char> >,std::allocator<std::basic_string<char,std::char_traits<char>,std::allocator<char> > > >::iterator::operator*, COMDAT
; _this$ = ecx

; 219  : 			{	// return designated object

  00000	55		 push	 ebp
  00001	8b ec		 mov	 ebp, esp
  00003	51		 push	 ecx
  00004	c7 45 fc cc cc
	cc cc		 mov	 DWORD PTR [ebp-4], -858993460 ; ccccccccH
  0000b	89 4d fc	 mov	 DWORD PTR _this$[ebp], ecx

; 220  : 			return ((reference)**(const_iterator *)this);

  0000e	8b 4d fc	 mov	 ecx, DWORD PTR _this$[ebp]
  00011	e8 00 00 00 00	 call	 ??Dconst_iterator@?$vector@V?$basic_string@DU?$char_traits@D@std@@V?$allocator@D@2@@std@@V?$allocator@V?$basic_string@DU?$char_traits@D@std@@V?$allocator@D@2@@std@@@2@@std@@QBEABV?$basic_string@DU?$char_traits@D@std@@V?$allocator@D@2@@2@XZ ; std::vector<std::basic_string<char,std::char_traits<char>,std::allocator<char> >,std::allocator<std::basic_string<char,std::char_traits<char>,std::allocator<char> > > >::const_iterator::operator*

; 221  : 			}

  00016	83 c4 04	 add	 esp, 4
  00019	3b ec		 cmp	 ebp, esp
  0001b	e8 00 00 00 00	 call	 __RTC_CheckEsp
  00020	8b e5		 mov	 esp, ebp
  00022	5d		 pop	 ebp
  00023	c3		 ret	 0
??Diterator@?$vector@V?$basic_string@DU?$char_traits@D@std@@V?$allocator@D@2@@std@@V?$allocator@V?$basic_string@DU?$char_traits@D@std@@V?$allocator@D@2@@std@@@2@@std@@QBEAAV?$basic_string@DU?$char_traits@D@std@@V?$allocator@D@2@@2@XZ ENDP ; std::vector<std::basic_string<char,std::char_traits<char>,std::allocator<char> >,std::allocator<std::basic_string<char,std::char_traits<char>,std::allocator<char> > > >::iterator::operator*
_TEXT	ENDS
PUBLIC	??Yiterator@?$vector@V?$basic_string@DU?$char_traits@D@std@@V?$allocator@D@2@@std@@V?$allocator@V?$basic_string@DU?$char_traits@D@std@@V?$allocator@D@2@@std@@@2@@std@@QAEAAV012@H@Z ; std::vector<std::basic_string<char,std::char_traits<char>,std::allocator<char> >,std::allocator<std::basic_string<char,std::char_traits<char>,std::allocator<char> > > >::iterator::operator+=
; Function compile flags: /Odt /RTCsu
;	COMDAT ??Hiterator@?$vector@V?$basic_string@DU?$char_traits@D@std@@V?$allocator@D@2@@std@@V?$allocator@V?$basic_string@DU?$char_traits@D@std@@V?$allocator@D@2@@std@@@2@@std@@QBE?AV012@H@Z
_TEXT	SEGMENT
__Tmp$ = -12						; size = 4
_this$ = -4						; size = 4
___$ReturnUdt$ = 8					; size = 4
__Off$ = 12						; size = 4
??Hiterator@?$vector@V?$basic_string@DU?$char_traits@D@std@@V?$allocator@D@2@@std@@V?$allocator@V?$basic_string@DU?$char_traits@D@std@@V?$allocator@D@2@@std@@@2@@std@@QBE?AV012@H@Z PROC NEAR ; std::vector<std::basic_string<char,std::char_traits<char>,std::allocator<char> >,std::allocator<std::basic_string<char,std::char_traits<char>,std::allocator<char> > > >::iterator::operator+, COMDAT
; _this$ = ecx

; 261  : 			{	// return this + integer

  00000	55		 push	 ebp
  00001	8b ec		 mov	 ebp, esp
  00003	83 ec 10	 sub	 esp, 16			; 00000010H
  00006	b8 cc cc cc cc	 mov	 eax, -858993460		; ccccccccH
  0000b	89 45 f0	 mov	 DWORD PTR [ebp-16], eax
  0000e	89 45 f4	 mov	 DWORD PTR [ebp-12], eax
  00011	89 45 f8	 mov	 DWORD PTR [ebp-8], eax
  00014	89 45 fc	 mov	 DWORD PTR [ebp-4], eax
  00017	89 4d fc	 mov	 DWORD PTR _this$[ebp], ecx

; 262  : 			iterator _Tmp = *this;

  0001a	8b 45 fc	 mov	 eax, DWORD PTR _this$[ebp]
  0001d	8b 08		 mov	 ecx, DWORD PTR [eax]
  0001f	89 4d f4	 mov	 DWORD PTR __Tmp$[ebp], ecx

; 263  : 			return (_Tmp += _Off);

  00022	8b 55 0c	 mov	 edx, DWORD PTR __Off$[ebp]
  00025	52		 push	 edx
  00026	8d 4d f4	 lea	 ecx, DWORD PTR __Tmp$[ebp]
  00029	e8 00 00 00 00	 call	 ??Yiterator@?$vector@V?$basic_string@DU?$char_traits@D@std@@V?$allocator@D@2@@std@@V?$allocator@V?$basic_string@DU?$char_traits@D@std@@V?$allocator@D@2@@std@@@2@@std@@QAEAAV012@H@Z ; std::vector<std::basic_string<char,std::char_traits<char>,std::allocator<char> >,std::allocator<std::basic_string<char,std::char_traits<char>,std::allocator<char> > > >::iterator::operator+=
  0002e	8b 00		 mov	 eax, DWORD PTR [eax]
  00030	8b 4d 08	 mov	 ecx, DWORD PTR ___$ReturnUdt$[ebp]
  00033	89 01		 mov	 DWORD PTR [ecx], eax
  00035	8b 45 08	 mov	 eax, DWORD PTR ___$ReturnUdt$[ebp]

; 264  : 			}

  00038	52		 push	 edx
  00039	8b cd		 mov	 ecx, ebp
  0003b	50		 push	 eax
  0003c	8d 15 00 00 00
	00		 lea	 edx, DWORD PTR $L191448
  00042	e8 00 00 00 00	 call	 @_RTC_CheckStackVars@8
  00047	58		 pop	 eax
  00048	5a		 pop	 edx
  00049	83 c4 10	 add	 esp, 16			; 00000010H
  0004c	3b ec		 cmp	 ebp, esp
  0004e	e8 00 00 00 00	 call	 __RTC_CheckEsp
  00053	8b e5		 mov	 esp, ebp
  00055	5d		 pop	 ebp
  00056	c2 08 00	 ret	 8
$L191448:
  00059	01 00 00 00	 DD	 1
  0005d	00 00 00 00	 DD	 $L191447
$L191447:
  00061	f4 ff ff ff	 DD	 -12			; fffffff4H
  00065	04 00 00 00	 DD	 4
  00069	00 00 00 00	 DD	 $L191446
$L191446:
  0006d	5f		 DB	 95			; 0000005fH
  0006e	54		 DB	 84			; 00000054H
  0006f	6d		 DB	 109			; 0000006dH
  00070	70		 DB	 112			; 00000070H
  00071	00		 DB	 0
??Hiterator@?$vector@V?$basic_string@DU?$char_traits@D@std@@V?$allocator@D@2@@std@@V?$allocator@V?$basic_string@DU?$char_traits@D@std@@V?$allocator@D@2@@std@@@2@@std@@QBE?AV012@H@Z ENDP ; std::vector<std::basic_string<char,std::char_traits<char>,std::allocator<char> >,std::allocator<std::basic_string<char,std::char_traits<char>,std::allocator<char> > > >::iterator::operator+
; Function compile flags: /Odt /RTCsu
; File d:\program files (x86)\microsoft visual studio .net 2003\vc7\include\xmemory
_TEXT	ENDS
;	COMDAT ??0?$allocator@V?$basic_string@DU?$char_traits@D@std@@V?$allocator@D@2@@std@@@std@@QAE@ABV01@@Z
_TEXT	SEGMENT
_this$ = -4						; size = 4
___formal$ = 8						; size = 4
??0?$allocator@V?$basic_string@DU?$char_traits@D@std@@V?$allocator@D@2@@std@@@std@@QAE@ABV01@@Z PROC NEAR ; std::allocator<std::basic_string<char,std::char_traits<char>,std::allocator<char> > >::allocator<std::basic_string<char,std::char_traits<char>,std::allocator<char> > >, COMDAT
; _this$ = ecx

; 115  : 	allocator(const allocator<_Ty>&)

  00000	55		 push	 ebp
  00001	8b ec		 mov	 ebp, esp
  00003	51		 push	 ecx
  00004	c7 45 fc cc cc
	cc cc		 mov	 DWORD PTR [ebp-4], -858993460 ; ccccccccH
  0000b	89 4d fc	 mov	 DWORD PTR _this$[ebp], ecx

; 116  : 		{	// construct by copying (do nothing)
; 117  : 		}

  0000e	8b 45 fc	 mov	 eax, DWORD PTR _this$[ebp]
  00011	8b e5		 mov	 esp, ebp
  00013	5d		 pop	 ebp
  00014	c2 04 00	 ret	 4
??0?$allocator@V?$basic_string@DU?$char_traits@D@std@@V?$allocator@D@2@@std@@@std@@QAE@ABV01@@Z ENDP ; std::allocator<std::basic_string<char,std::char_traits<char>,std::allocator<char> > >::allocator<std::basic_string<char,std::char_traits<char>,std::allocator<char> > >
; Function compile flags: /Odt /RTCsu
_TEXT	ENDS
;	COMDAT ?deallocate@?$allocator@V?$basic_string@DU?$char_traits@D@std@@V?$allocator@D@2@@std@@@std@@QAEXPAV?$basic_string@DU?$char_traits@D@std@@V?$allocator@D@2@@2@I@Z
_TEXT	SEGMENT
_this$ = -4						; size = 4
__Ptr$ = 8						; size = 4
___formal$ = 12						; size = 4
?deallocate@?$allocator@V?$basic_string@DU?$char_traits@D@std@@V?$allocator@D@2@@std@@@std@@QAEXPAV?$basic_string@DU?$char_traits@D@std@@V?$allocator@D@2@@2@I@Z PROC NEAR ; std::allocator<std::basic_string<char,std::char_traits<char>,std::allocator<char> > >::deallocate, COMDAT
; _this$ = ecx

; 131  : 		{	// deallocate object at _Ptr, ignore size

  00000	55		 push	 ebp
  00001	8b ec		 mov	 ebp, esp
  00003	51		 push	 ecx
  00004	c7 45 fc cc cc
	cc cc		 mov	 DWORD PTR [ebp-4], -858993460 ; ccccccccH
  0000b	89 4d fc	 mov	 DWORD PTR _this$[ebp], ecx

; 132  : 		operator delete(_Ptr);

  0000e	8b 45 08	 mov	 eax, DWORD PTR __Ptr$[ebp]
  00011	50		 push	 eax
  00012	e8 00 00 00 00	 call	 ??3@YAXPAX@Z		; operator delete
  00017	83 c4 04	 add	 esp, 4

; 133  : 		}

  0001a	83 c4 04	 add	 esp, 4
  0001d	3b ec		 cmp	 ebp, esp
  0001f	e8 00 00 00 00	 call	 __RTC_CheckEsp
  00024	8b e5		 mov	 esp, ebp
  00026	5d		 pop	 ebp
  00027	c2 08 00	 ret	 8
?deallocate@?$allocator@V?$basic_string@DU?$char_traits@D@std@@V?$allocator@D@2@@std@@@std@@QAEXPAV?$basic_string@DU?$char_traits@D@std@@V?$allocator@D@2@@2@I@Z ENDP ; std::allocator<std::basic_string<char,std::char_traits<char>,std::allocator<char> > >::deallocate
_TEXT	ENDS
PUBLIC	??$_Allocate@V?$basic_string@DU?$char_traits@D@std@@V?$allocator@D@2@@std@@@std@@YAPAV?$basic_string@DU?$char_traits@D@std@@V?$allocator@D@2@@0@IPAV10@@Z ; std::_Allocate<std::basic_string<char,std::char_traits<char>,std::allocator<char> > >
; Function compile flags: /Odt /RTCsu
;	COMDAT ?allocate@?$allocator@V?$basic_string@DU?$char_traits@D@std@@V?$allocator@D@2@@std@@@std@@QAEPAV?$basic_string@DU?$char_traits@D@std@@V?$allocator@D@2@@2@I@Z
_TEXT	SEGMENT
_this$ = -4						; size = 4
__Count$ = 8						; size = 4
?allocate@?$allocator@V?$basic_string@DU?$char_traits@D@std@@V?$allocator@D@2@@std@@@std@@QAEPAV?$basic_string@DU?$char_traits@D@std@@V?$allocator@D@2@@2@I@Z PROC NEAR ; std::allocator<std::basic_string<char,std::char_traits<char>,std::allocator<char> > >::allocate, COMDAT
; _this$ = ecx

; 136  : 		{	// allocate array of _Count elements

  00000	55		 push	 ebp
  00001	8b ec		 mov	 ebp, esp
  00003	51		 push	 ecx
  00004	c7 45 fc cc cc
	cc cc		 mov	 DWORD PTR [ebp-4], -858993460 ; ccccccccH
  0000b	89 4d fc	 mov	 DWORD PTR _this$[ebp], ecx

; 137  : 		return (_Allocate(_Count, (pointer)0));

  0000e	6a 00		 push	 0
  00010	8b 45 08	 mov	 eax, DWORD PTR __Count$[ebp]
  00013	50		 push	 eax
  00014	e8 00 00 00 00	 call	 ??$_Allocate@V?$basic_string@DU?$char_traits@D@std@@V?$allocator@D@2@@std@@@std@@YAPAV?$basic_string@DU?$char_traits@D@std@@V?$allocator@D@2@@0@IPAV10@@Z ; std::_Allocate<std::basic_string<char,std::char_traits<char>,std::allocator<char> > >
  00019	83 c4 08	 add	 esp, 8

; 138  : 		}

  0001c	83 c4 04	 add	 esp, 4
  0001f	3b ec		 cmp	 ebp, esp
  00021	e8 00 00 00 00	 call	 __RTC_CheckEsp
  00026	8b e5		 mov	 esp, ebp
  00028	5d		 pop	 ebp
  00029	c2 04 00	 ret	 4
?allocate@?$allocator@V?$basic_string@DU?$char_traits@D@std@@V?$allocator@D@2@@std@@@std@@QAEPAV?$basic_string@DU?$char_traits@D@std@@V?$allocator@D@2@@2@I@Z ENDP ; std::allocator<std::basic_string<char,std::char_traits<char>,std::allocator<char> > >::allocate
_TEXT	ENDS
PUBLIC	?max_size@?$allocator@V?$basic_string@DU?$char_traits@D@std@@V?$allocator@D@2@@std@@@std@@QBEIXZ ; std::allocator<std::basic_string<char,std::char_traits<char>,std::allocator<char> > >::max_size
; Function compile flags: /Odt /RTCsu
; File d:\program files (x86)\microsoft visual studio .net 2003\vc7\include\vector
;	COMDAT ?max_size@?$vector@V?$basic_string@DU?$char_traits@D@std@@V?$allocator@D@2@@std@@V?$allocator@V?$basic_string@DU?$char_traits@D@std@@V?$allocator@D@2@@std@@@2@@std@@QBEIXZ
_TEXT	SEGMENT
_this$ = -4						; size = 4
?max_size@?$vector@V?$basic_string@DU?$char_traits@D@std@@V?$allocator@D@2@@std@@V?$allocator@V?$basic_string@DU?$char_traits@D@std@@V?$allocator@D@2@@std@@@2@@std@@QBEIXZ PROC NEAR ; std::vector<std::basic_string<char,std::char_traits<char>,std::allocator<char> >,std::allocator<std::basic_string<char,std::char_traits<char>,std::allocator<char> > > >::max_size, COMDAT
; _this$ = ecx

; 520  : 		{	// return maximum possible length of sequence

  00000	55		 push	 ebp
  00001	8b ec		 mov	 ebp, esp
  00003	51		 push	 ecx
  00004	c7 45 fc cc cc
	cc cc		 mov	 DWORD PTR [ebp-4], -858993460 ; ccccccccH
  0000b	89 4d fc	 mov	 DWORD PTR _this$[ebp], ecx

; 521  : 		return (this->_Alval.max_size());

  0000e	8b 4d fc	 mov	 ecx, DWORD PTR _this$[ebp]
  00011	e8 00 00 00 00	 call	 ?max_size@?$allocator@V?$basic_string@DU?$char_traits@D@std@@V?$allocator@D@2@@std@@@std@@QBEIXZ ; std::allocator<std::basic_string<char,std::char_traits<char>,std::allocator<char> > >::max_size

; 522  : 		}

  00016	83 c4 04	 add	 esp, 4
  00019	3b ec		 cmp	 ebp, esp
  0001b	e8 00 00 00 00	 call	 __RTC_CheckEsp
  00020	8b e5		 mov	 esp, ebp
  00022	5d		 pop	 ebp
  00023	c3		 ret	 0
?max_size@?$vector@V?$basic_string@DU?$char_traits@D@std@@V?$allocator@D@2@@std@@V?$allocator@V?$basic_string@DU?$char_traits@D@std@@V?$allocator@D@2@@std@@@2@@std@@QBEIXZ ENDP ; std::vector<std::basic_string<char,std::char_traits<char>,std::allocator<char> >,std::allocator<std::basic_string<char,std::char_traits<char>,std::allocator<char> > > >::max_size
_TEXT	ENDS
PUBLIC	??$_Destroy_range@V?$basic_string@DU?$char_traits@D@std@@V?$allocator@D@2@@std@@V?$allocator@V?$basic_string@DU?$char_traits@D@std@@V?$allocator@D@2@@std@@@2@@std@@YAXPAV?$basic_string@DU?$char_traits@D@std@@V?$allocator@D@2@@0@0AAV?$allocator@V?$basic_string@DU?$char_traits@D@std@@V?$allocator@D@2@@std@@@0@@Z ; std::_Destroy_range<std::basic_string<char,std::char_traits<char>,std::allocator<char> >,std::allocator<std::basic_string<char,std::char_traits<char>,std::allocator<char> > > >
; Function compile flags: /Odt /RTCsu
;	COMDAT ?_Destroy@?$vector@V?$basic_string@DU?$char_traits@D@std@@V?$allocator@D@2@@std@@V?$allocator@V?$basic_string@DU?$char_traits@D@std@@V?$allocator@D@2@@std@@@2@@std@@IAEXPAV?$basic_string@DU?$char_traits@D@std@@V?$allocator@D@2@@2@0@Z
_TEXT	SEGMENT
_this$ = -4						; size = 4
__First$ = 8						; size = 4
__Last$ = 12						; size = 4
?_Destroy@?$vector@V?$basic_string@DU?$char_traits@D@std@@V?$allocator@D@2@@std@@V?$allocator@V?$basic_string@DU?$char_traits@D@std@@V?$allocator@D@2@@std@@@2@@std@@IAEXPAV?$basic_string@DU?$char_traits@D@std@@V?$allocator@D@2@@2@0@Z PROC NEAR ; std::vector<std::basic_string<char,std::char_traits<char>,std::allocator<char> >,std::allocator<std::basic_string<char,std::char_traits<char>,std::allocator<char> > > >::_Destroy, COMDAT
; _this$ = ecx

; 786  : 		{	// destroy [_First, _Last) using allocator

  00000	55		 push	 ebp
  00001	8b ec		 mov	 ebp, esp
  00003	51		 push	 ecx
  00004	c7 45 fc cc cc
	cc cc		 mov	 DWORD PTR [ebp-4], -858993460 ; ccccccccH
  0000b	89 4d fc	 mov	 DWORD PTR _this$[ebp], ecx

; 787  : 		_Destroy_range(_First, _Last, this->_Alval);

  0000e	8b 45 fc	 mov	 eax, DWORD PTR _this$[ebp]
  00011	50		 push	 eax
  00012	8b 4d 0c	 mov	 ecx, DWORD PTR __Last$[ebp]
  00015	51		 push	 ecx
  00016	8b 55 08	 mov	 edx, DWORD PTR __First$[ebp]
  00019	52		 push	 edx
  0001a	e8 00 00 00 00	 call	 ??$_Destroy_range@V?$basic_string@DU?$char_traits@D@std@@V?$allocator@D@2@@std@@V?$allocator@V?$basic_string@DU?$char_traits@D@std@@V?$allocator@D@2@@std@@@2@@std@@YAXPAV?$basic_string@DU?$char_traits@D@std@@V?$allocator@D@2@@0@0AAV?$allocator@V?$basic_string@DU?$char_traits@D@std@@V?$allocator@D@2@@std@@@0@@Z ; std::_Destroy_range<std::basic_string<char,std::char_traits<char>,std::allocator<char> >,std::allocator<std::basic_string<char,std::char_traits<char>,std::allocator<char> > > >
  0001f	83 c4 0c	 add	 esp, 12			; 0000000cH

; 788  : 		}

  00022	83 c4 04	 add	 esp, 4
  00025	3b ec		 cmp	 ebp, esp
  00027	e8 00 00 00 00	 call	 __RTC_CheckEsp
  0002c	8b e5		 mov	 esp, ebp
  0002e	5d		 pop	 ebp
  0002f	c2 08 00	 ret	 8
?_Destroy@?$vector@V?$basic_string@DU?$char_traits@D@std@@V?$allocator@D@2@@std@@V?$allocator@V?$basic_string@DU?$char_traits@D@std@@V?$allocator@D@2@@std@@@2@@std@@IAEXPAV?$basic_string@DU?$char_traits@D@std@@V?$allocator@D@2@@2@0@Z ENDP ; std::vector<std::basic_string<char,std::char_traits<char>,std::allocator<char> >,std::allocator<std::basic_string<char,std::char_traits<char>,std::allocator<char> > > >::_Destroy
_TEXT	ENDS
PUBLIC	??$_Ucopy@PAV?$basic_string@DU?$char_traits@D@std@@V?$allocator@D@2@@std@@@?$vector@V?$basic_string@DU?$char_traits@D@std@@V?$allocator@D@2@@std@@V?$allocator@V?$basic_string@DU?$char_traits@D@std@@V?$allocator@D@2@@std@@@2@@std@@IAEPAV?$basic_string@DU?$char_traits@D@std@@V?$allocator@D@2@@1@PAV21@00@Z ; std::vector<std::basic_string<char,std::char_traits<char>,std::allocator<char> >,std::allocator<std::basic_string<char,std::char_traits<char>,std::allocator<char> > > >::_Ucopy<std::basic_string<char,std::char_traits<char>,std::allocator<char> > *>
PUBLIC	??$fill@PAV?$basic_string@DU?$char_traits@D@std@@V?$allocator@D@2@@std@@V12@@std@@YAXPAV?$basic_string@DU?$char_traits@D@std@@V?$allocator@D@2@@0@0ABV10@@Z ; std::fill<std::basic_string<char,std::char_traits<char>,std::allocator<char> > *,std::basic_string<char,std::char_traits<char>,std::allocator<char> > >
PUBLIC	??$copy_backward@PAV?$basic_string@DU?$char_traits@D@std@@V?$allocator@D@2@@std@@PAV12@@std@@YAPAV?$basic_string@DU?$char_traits@D@std@@V?$allocator@D@2@@0@PAV10@00@Z ; std::copy_backward<std::basic_string<char,std::char_traits<char>,std::allocator<char> > *,std::basic_string<char,std::char_traits<char>,std::allocator<char> > *>
EXTRN	__imp_??0?$basic_string@DU?$char_traits@D@std@@V?$allocator@D@2@@std@@QAE@ABV01@@Z:NEAR
EXTRN	__CxxThrowException@8:NEAR
;	COMDAT xdata$x
xdata$x	SEGMENT
$T191471 DD	0ffffffffH
	DD	FLAT:$L191463
	DD	00H
	DD	00H
	DD	00H
	DD	00H
	DD	00H
	DD	00H
	DD	00H
	DD	00H
$T191473 DD	00H
	DD	00H
	DD	00H
	DD	FLAT:$L191460
$T191474 DD	00H
	DD	00H
	DD	00H
	DD	FLAT:$L191462
$T191472 DD	01H
	DD	01H
	DD	02H
	DD	01H
	DD	FLAT:$T191473
	DD	03H
	DD	03H
	DD	04H
	DD	01H
	DD	FLAT:$T191474
$T191465 DD	019930520H
	DD	05H
	DD	FLAT:$T191471
	DD	02H
	DD	FLAT:$T191472
	DD	2 DUP(00H)
; Function compile flags: /Odt /RTCsu
xdata$x	ENDS
;	COMDAT ?_Insert_n@?$vector@V?$basic_string@DU?$char_traits@D@std@@V?$allocator@D@2@@std@@V?$allocator@V?$basic_string@DU?$char_traits@D@std@@V?$allocator@D@2@@std@@@2@@std@@IAEXViterator@12@IABV?$basic_string@DU?$char_traits@D@std@@V?$allocator@D@2@@2@@Z
_TEXT	SEGMENT
tv246 = -88						; size = 4
tv245 = -84						; size = 4
tv89 = -80						; size = 4
__Oldend$190414 = -76					; size = 4
__Ptr$190394 = -72					; size = 4
__Newvec$190393 = -68					; size = 4
__Capacity$ = -64					; size = 4
__Tmp$ = -56						; size = 28
_this$ = -24						; size = 4
__$ArrayPad$ = -20					; size = 4
__$EHRec$ = -16						; size = 16
__$ReturnAddr$ = 4					; size = 4
__Where$ = 8						; size = 4
__Count$ = 12						; size = 4
__Val$ = 16						; size = 4
?_Insert_n@?$vector@V?$basic_string@DU?$char_traits@D@std@@V?$allocator@D@2@@std@@V?$allocator@V?$basic_string@DU?$char_traits@D@std@@V?$allocator@D@2@@std@@@2@@std@@IAEXViterator@12@IABV?$basic_string@DU?$char_traits@D@std@@V?$allocator@D@2@@2@@Z PROC NEAR ; std::vector<std::basic_string<char,std::char_traits<char>,std::allocator<char> >,std::allocator<std::basic_string<char,std::char_traits<char>,std::allocator<char> > > >::_Insert_n, COMDAT
; _this$ = ecx

; 809  : 		{	// insert _Count * _Val at _Where

  00000	55		 push	 ebp
  00001	8b ec		 mov	 ebp, esp
  00003	6a ff		 push	 -1
  00005	68 00 00 00 00	 push	 __ehhandler$?_Insert_n@?$vector@V?$basic_string@DU?$char_traits@D@std@@V?$allocator@D@2@@std@@V?$allocator@V?$basic_string@DU?$char_traits@D@std@@V?$allocator@D@2@@std@@@2@@std@@IAEXViterator@12@IABV?$basic_string@DU?$char_traits@D@std@@V?$allocator@D@2@@2@@Z
  0000a	64 a1 00 00 00
	00		 mov	 eax, DWORD PTR fs:__except_list
  00010	50		 push	 eax
  00011	64 89 25 00 00
	00 00		 mov	 DWORD PTR fs:__except_list, esp
  00018	51		 push	 ecx
  00019	83 ec 48	 sub	 esp, 72			; 00000048H
  0001c	53		 push	 ebx
  0001d	56		 push	 esi
  0001e	57		 push	 edi
  0001f	51		 push	 ecx
  00020	8d 7d a8	 lea	 edi, DWORD PTR [ebp-88]
  00023	b9 12 00 00 00	 mov	 ecx, 18			; 00000012H
  00028	b8 cc cc cc cc	 mov	 eax, -858993460		; ccccccccH
  0002d	f3 ab		 rep stosd
  0002f	59		 pop	 ecx
  00030	a1 00 00 00 00	 mov	 eax, DWORD PTR ___security_cookie
  00035	89 45 ec	 mov	 DWORD PTR __$ArrayPad$[ebp], eax
  00038	89 65 f0	 mov	 DWORD PTR __$EHRec$[ebp], esp
  0003b	89 4d e8	 mov	 DWORD PTR _this$[ebp], ecx

; 810  : 		_Ty _Tmp = _Val;	// in case _Val is in sequence

  0003e	8b f4		 mov	 esi, esp
  00040	8b 45 10	 mov	 eax, DWORD PTR __Val$[ebp]
  00043	50		 push	 eax
  00044	8d 4d c8	 lea	 ecx, DWORD PTR __Tmp$[ebp]
  00047	ff 15 00 00 00
	00		 call	 DWORD PTR __imp_??0?$basic_string@DU?$char_traits@D@std@@V?$allocator@D@2@@std@@QAE@ABV01@@Z
  0004d	3b f4		 cmp	 esi, esp
  0004f	e8 00 00 00 00	 call	 __RTC_CheckEsp
  00054	c7 45 fc 00 00
	00 00		 mov	 DWORD PTR __$EHRec$[ebp+12], 0

; 811  : 		size_type _Capacity = capacity();

  0005b	8b 4d e8	 mov	 ecx, DWORD PTR _this$[ebp]
  0005e	e8 00 00 00 00	 call	 ?capacity@?$vector@V?$basic_string@DU?$char_traits@D@std@@V?$allocator@D@2@@std@@V?$allocator@V?$basic_string@DU?$char_traits@D@std@@V?$allocator@D@2@@std@@@2@@std@@QBEIXZ ; std::vector<std::basic_string<char,std::char_traits<char>,std::allocator<char> >,std::allocator<std::basic_string<char,std::char_traits<char>,std::allocator<char> > > >::capacity
  00063	89 45 c0	 mov	 DWORD PTR __Capacity$[ebp], eax

; 812  : 
; 813  : 		if (_Count == 0)

  00066	83 7d 0c 00	 cmp	 DWORD PTR __Count$[ebp], 0
  0006a	75 05		 jne	 SHORT $L190387

; 814  : 			;
; 815  : 		else if (max_size() - size() < _Count)

  0006c	e9 cf 02 00 00	 jmp	 $L190388
$L190387:
  00071	8b 4d e8	 mov	 ecx, DWORD PTR _this$[ebp]
  00074	e8 00 00 00 00	 call	 ?size@?$vector@V?$basic_string@DU?$char_traits@D@std@@V?$allocator@D@2@@std@@V?$allocator@V?$basic_string@DU?$char_traits@D@std@@V?$allocator@D@2@@std@@@2@@std@@QBEIXZ ; std::vector<std::basic_string<char,std::char_traits<char>,std::allocator<char> >,std::allocator<std::basic_string<char,std::char_traits<char>,std::allocator<char> > > >::size
  00079	8b f0		 mov	 esi, eax
  0007b	8b 4d e8	 mov	 ecx, DWORD PTR _this$[ebp]
  0007e	e8 00 00 00 00	 call	 ?max_size@?$vector@V?$basic_string@DU?$char_traits@D@std@@V?$allocator@D@2@@std@@V?$allocator@V?$basic_string@DU?$char_traits@D@std@@V?$allocator@D@2@@std@@@2@@std@@QBEIXZ ; std::vector<std::basic_string<char,std::char_traits<char>,std::allocator<char> >,std::allocator<std::basic_string<char,std::char_traits<char>,std::allocator<char> > > >::max_size
  00083	2b c6		 sub	 eax, esi
  00085	3b 45 0c	 cmp	 eax, DWORD PTR __Count$[ebp]
  00088	73 0d		 jae	 SHORT $L190389

; 816  : 			_Xlen();	// result too long

  0008a	8b 4d e8	 mov	 ecx, DWORD PTR _this$[ebp]
  0008d	e8 00 00 00 00	 call	 ?_Xlen@?$vector@V?$basic_string@DU?$char_traits@D@std@@V?$allocator@D@2@@std@@V?$allocator@V?$basic_string@DU?$char_traits@D@std@@V?$allocator@D@2@@std@@@2@@std@@IBEXXZ ; std::vector<std::basic_string<char,std::char_traits<char>,std::allocator<char> >,std::allocator<std::basic_string<char,std::char_traits<char>,std::allocator<char> > > >::_Xlen

; 817  : 		else if (_Capacity < size() + _Count)

  00092	e9 a9 02 00 00	 jmp	 $L190388
$L190389:
  00097	8b 4d e8	 mov	 ecx, DWORD PTR _this$[ebp]
  0009a	e8 00 00 00 00	 call	 ?size@?$vector@V?$basic_string@DU?$char_traits@D@std@@V?$allocator@D@2@@std@@V?$allocator@V?$basic_string@DU?$char_traits@D@std@@V?$allocator@D@2@@std@@@2@@std@@QBEIXZ ; std::vector<std::basic_string<char,std::char_traits<char>,std::allocator<char> >,std::allocator<std::basic_string<char,std::char_traits<char>,std::allocator<char> > > >::size
  0009f	03 45 0c	 add	 eax, DWORD PTR __Count$[ebp]
  000a2	39 45 c0	 cmp	 DWORD PTR __Capacity$[ebp], eax
  000a5	0f 83 68 01 00
	00		 jae	 $L190391

; 818  : 			{	// not enough room, reallocate
; 819  : 			_Capacity = max_size() - _Capacity / 2 < _Capacity
; 820  : 				? 0 : _Capacity + _Capacity / 2;	// try to grow by 50%

  000ab	8b 75 c0	 mov	 esi, DWORD PTR __Capacity$[ebp]
  000ae	d1 ee		 shr	 esi, 1
  000b0	8b 4d e8	 mov	 ecx, DWORD PTR _this$[ebp]
  000b3	e8 00 00 00 00	 call	 ?max_size@?$vector@V?$basic_string@DU?$char_traits@D@std@@V?$allocator@D@2@@std@@V?$allocator@V?$basic_string@DU?$char_traits@D@std@@V?$allocator@D@2@@std@@@2@@std@@QBEIXZ ; std::vector<std::basic_string<char,std::char_traits<char>,std::allocator<char> >,std::allocator<std::basic_string<char,std::char_traits<char>,std::allocator<char> > > >::max_size
  000b8	2b c6		 sub	 eax, esi
  000ba	3b 45 c0	 cmp	 eax, DWORD PTR __Capacity$[ebp]
  000bd	73 09		 jae	 SHORT $L191456
  000bf	c7 45 b0 00 00
	00 00		 mov	 DWORD PTR tv89[ebp], 0
  000c6	eb 0b		 jmp	 SHORT $L191457
$L191456:
  000c8	8b 4d c0	 mov	 ecx, DWORD PTR __Capacity$[ebp]
  000cb	d1 e9		 shr	 ecx, 1
  000cd	03 4d c0	 add	 ecx, DWORD PTR __Capacity$[ebp]
  000d0	89 4d b0	 mov	 DWORD PTR tv89[ebp], ecx
$L191457:
  000d3	8b 55 b0	 mov	 edx, DWORD PTR tv89[ebp]
  000d6	89 55 c0	 mov	 DWORD PTR __Capacity$[ebp], edx

; 821  : 			if (_Capacity < size() + _Count)

  000d9	8b 4d e8	 mov	 ecx, DWORD PTR _this$[ebp]
  000dc	e8 00 00 00 00	 call	 ?size@?$vector@V?$basic_string@DU?$char_traits@D@std@@V?$allocator@D@2@@std@@V?$allocator@V?$basic_string@DU?$char_traits@D@std@@V?$allocator@D@2@@std@@@2@@std@@QBEIXZ ; std::vector<std::basic_string<char,std::char_traits<char>,std::allocator<char> >,std::allocator<std::basic_string<char,std::char_traits<char>,std::allocator<char> > > >::size
  000e1	03 45 0c	 add	 eax, DWORD PTR __Count$[ebp]
  000e4	39 45 c0	 cmp	 DWORD PTR __Capacity$[ebp], eax
  000e7	73 0e		 jae	 SHORT $L190392

; 822  : 				_Capacity = size() + _Count;

  000e9	8b 4d e8	 mov	 ecx, DWORD PTR _this$[ebp]
  000ec	e8 00 00 00 00	 call	 ?size@?$vector@V?$basic_string@DU?$char_traits@D@std@@V?$allocator@D@2@@std@@V?$allocator@V?$basic_string@DU?$char_traits@D@std@@V?$allocator@D@2@@std@@@2@@std@@QBEIXZ ; std::vector<std::basic_string<char,std::char_traits<char>,std::allocator<char> >,std::allocator<std::basic_string<char,std::char_traits<char>,std::allocator<char> > > >::size
  000f1	03 45 0c	 add	 eax, DWORD PTR __Count$[ebp]
  000f4	89 45 c0	 mov	 DWORD PTR __Capacity$[ebp], eax
$L190392:

; 823  : 			pointer _Newvec = this->_Alval.allocate(_Capacity);

  000f7	8b 45 c0	 mov	 eax, DWORD PTR __Capacity$[ebp]
  000fa	50		 push	 eax
  000fb	8b 4d e8	 mov	 ecx, DWORD PTR _this$[ebp]
  000fe	e8 00 00 00 00	 call	 ?allocate@?$allocator@V?$basic_string@DU?$char_traits@D@std@@V?$allocator@D@2@@std@@@std@@QAEPAV?$basic_string@DU?$char_traits@D@std@@V?$allocator@D@2@@2@I@Z ; std::allocator<std::basic_string<char,std::char_traits<char>,std::allocator<char> > >::allocate
  00103	89 45 bc	 mov	 DWORD PTR __Newvec$190393[ebp], eax

; 824  : 			pointer _Ptr = _Newvec;

  00106	8b 4d bc	 mov	 ecx, DWORD PTR __Newvec$190393[ebp]
  00109	89 4d b8	 mov	 DWORD PTR __Ptr$190394[ebp], ecx

; 825  : 
; 826  : 			_TRY_BEGIN

  0010c	c6 45 fc 01	 mov	 BYTE PTR __$EHRec$[ebp+12], 1

; 827  : 			_Ptr = _Ucopy(_Myfirst, _ITER_BASE(_Where),
; 828  : 				_Newvec);	// copy prefix

  00110	8b 55 bc	 mov	 edx, DWORD PTR __Newvec$190393[ebp]
  00113	52		 push	 edx
  00114	8b 45 08	 mov	 eax, DWORD PTR __Where$[ebp]
  00117	50		 push	 eax
  00118	8b 4d e8	 mov	 ecx, DWORD PTR _this$[ebp]
  0011b	8b 51 04	 mov	 edx, DWORD PTR [ecx+4]
  0011e	52		 push	 edx
  0011f	8b 4d e8	 mov	 ecx, DWORD PTR _this$[ebp]
  00122	e8 00 00 00 00	 call	 ??$_Ucopy@PAV?$basic_string@DU?$char_traits@D@std@@V?$allocator@D@2@@std@@@?$vector@V?$basic_string@DU?$char_traits@D@std@@V?$allocator@D@2@@std@@V?$allocator@V?$basic_string@DU?$char_traits@D@std@@V?$allocator@D@2@@std@@@2@@std@@IAEPAV?$basic_string@DU?$char_traits@D@std@@V?$allocator@D@2@@1@PAV21@00@Z ; std::vector<std::basic_string<char,std::char_traits<char>,std::allocator<char> >,std::allocator<std::basic_string<char,std::char_traits<char>,std::allocator<char> > > >::_Ucopy<std::basic_string<char,std::char_traits<char>,std::allocator<char> > *>
  00127	89 45 ac	 mov	 DWORD PTR tv245[ebp], eax
  0012a	8b 45 ac	 mov	 eax, DWORD PTR tv245[ebp]
  0012d	89 45 b8	 mov	 DWORD PTR __Ptr$190394[ebp], eax

; 829  : 			_Ptr = _Ufill(_Ptr, _Count, _Tmp);	// add new stuff

  00130	8d 4d c8	 lea	 ecx, DWORD PTR __Tmp$[ebp]
  00133	51		 push	 ecx
  00134	8b 55 0c	 mov	 edx, DWORD PTR __Count$[ebp]
  00137	52		 push	 edx
  00138	8b 45 b8	 mov	 eax, DWORD PTR __Ptr$190394[ebp]
  0013b	50		 push	 eax
  0013c	8b 4d e8	 mov	 ecx, DWORD PTR _this$[ebp]
  0013f	e8 00 00 00 00	 call	 ?_Ufill@?$vector@V?$basic_string@DU?$char_traits@D@std@@V?$allocator@D@2@@std@@V?$allocator@V?$basic_string@DU?$char_traits@D@std@@V?$allocator@D@2@@std@@@2@@std@@IAEPAV?$basic_string@DU?$char_traits@D@std@@V?$allocator@D@2@@2@PAV32@IABV32@@Z ; std::vector<std::basic_string<char,std::char_traits<char>,std::allocator<char> >,std::allocator<std::basic_string<char,std::char_traits<char>,std::allocator<char> > > >::_Ufill
  00144	89 45 a8	 mov	 DWORD PTR tv246[ebp], eax
  00147	8b 4d a8	 mov	 ecx, DWORD PTR tv246[ebp]
  0014a	89 4d b8	 mov	 DWORD PTR __Ptr$190394[ebp], ecx

; 830  : 			_Ucopy(_ITER_BASE(_Where), _Mylast, _Ptr);	// copy suffix

  0014d	8b 55 b8	 mov	 edx, DWORD PTR __Ptr$190394[ebp]
  00150	52		 push	 edx
  00151	8b 45 e8	 mov	 eax, DWORD PTR _this$[ebp]
  00154	8b 48 08	 mov	 ecx, DWORD PTR [eax+8]
  00157	51		 push	 ecx
  00158	8b 55 08	 mov	 edx, DWORD PTR __Where$[ebp]
  0015b	52		 push	 edx
  0015c	8b 4d e8	 mov	 ecx, DWORD PTR _this$[ebp]
  0015f	e8 00 00 00 00	 call	 ??$_Ucopy@PAV?$basic_string@DU?$char_traits@D@std@@V?$allocator@D@2@@std@@@?$vector@V?$basic_string@DU?$char_traits@D@std@@V?$allocator@D@2@@std@@V?$allocator@V?$basic_string@DU?$char_traits@D@std@@V?$allocator@D@2@@std@@@2@@std@@IAEPAV?$basic_string@DU?$char_traits@D@std@@V?$allocator@D@2@@1@PAV21@00@Z ; std::vector<std::basic_string<char,std::char_traits<char>,std::allocator<char> >,std::allocator<std::basic_string<char,std::char_traits<char>,std::allocator<char> > > >::_Ucopy<std::basic_string<char,std::char_traits<char>,std::allocator<char> > *>
  00164	eb 29		 jmp	 SHORT $L191459
$L191460:

; 831  : 			_CATCH_ALL
; 832  : 			_Destroy(_Newvec, _Ptr);

  00166	8b 45 b8	 mov	 eax, DWORD PTR __Ptr$190394[ebp]
  00169	50		 push	 eax
  0016a	8b 4d bc	 mov	 ecx, DWORD PTR __Newvec$190393[ebp]
  0016d	51		 push	 ecx
  0016e	8b 4d e8	 mov	 ecx, DWORD PTR _this$[ebp]
  00171	e8 00 00 00 00	 call	 ?_Destroy@?$vector@V?$basic_string@DU?$char_traits@D@std@@V?$allocator@D@2@@std@@V?$allocator@V?$basic_string@DU?$char_traits@D@std@@V?$allocator@D@2@@std@@@2@@std@@IAEXPAV?$basic_string@DU?$char_traits@D@std@@V?$allocator@D@2@@2@0@Z ; std::vector<std::basic_string<char,std::char_traits<char>,std::allocator<char> >,std::allocator<std::basic_string<char,std::char_traits<char>,std::allocator<char> > > >::_Destroy

; 833  : 			this->_Alval.deallocate(_Newvec, _Capacity);

  00176	8b 55 c0	 mov	 edx, DWORD PTR __Capacity$[ebp]
  00179	52		 push	 edx
  0017a	8b 45 bc	 mov	 eax, DWORD PTR __Newvec$190393[ebp]
  0017d	50		 push	 eax
  0017e	8b 4d e8	 mov	 ecx, DWORD PTR _this$[ebp]
  00181	e8 00 00 00 00	 call	 ?deallocate@?$allocator@V?$basic_string@DU?$char_traits@D@std@@V?$allocator@D@2@@std@@@std@@QAEXPAV?$basic_string@DU?$char_traits@D@std@@V?$allocator@D@2@@2@I@Z ; std::allocator<std::basic_string<char,std::char_traits<char>,std::allocator<char> > >::deallocate

; 834  : 			_RERAISE;

  00186	6a 00		 push	 0
  00188	6a 00		 push	 0
  0018a	e8 00 00 00 00	 call	 __CxxThrowException@8
$L191459:

; 835  : 			_CATCH_END

  0018f	c7 45 fc 00 00
	00 00		 mov	 DWORD PTR __$EHRec$[ebp+12], 0

; 836  : 
; 837  : 			_Count += size();

  00196	8b 4d e8	 mov	 ecx, DWORD PTR _this$[ebp]
  00199	e8 00 00 00 00	 call	 ?size@?$vector@V?$basic_string@DU?$char_traits@D@std@@V?$allocator@D@2@@std@@V?$allocator@V?$basic_string@DU?$char_traits@D@std@@V?$allocator@D@2@@std@@@2@@std@@QBEIXZ ; std::vector<std::basic_string<char,std::char_traits<char>,std::allocator<char> >,std::allocator<std::basic_string<char,std::char_traits<char>,std::allocator<char> > > >::size
  0019e	03 45 0c	 add	 eax, DWORD PTR __Count$[ebp]
  001a1	89 45 0c	 mov	 DWORD PTR __Count$[ebp], eax

; 838  : 			if (_Myfirst != 0)

  001a4	8b 4d e8	 mov	 ecx, DWORD PTR _this$[ebp]
  001a7	83 79 04 00	 cmp	 DWORD PTR [ecx+4], 0
  001ab	74 3a		 je	 SHORT $L190401

; 839  : 				{	// destroy and deallocate old array
; 840  : 				_Destroy(_Myfirst, _Mylast);

  001ad	8b 55 e8	 mov	 edx, DWORD PTR _this$[ebp]
  001b0	8b 42 08	 mov	 eax, DWORD PTR [edx+8]
  001b3	50		 push	 eax
  001b4	8b 4d e8	 mov	 ecx, DWORD PTR _this$[ebp]
  001b7	8b 51 04	 mov	 edx, DWORD PTR [ecx+4]
  001ba	52		 push	 edx
  001bb	8b 4d e8	 mov	 ecx, DWORD PTR _this$[ebp]
  001be	e8 00 00 00 00	 call	 ?_Destroy@?$vector@V?$basic_string@DU?$char_traits@D@std@@V?$allocator@D@2@@std@@V?$allocator@V?$basic_string@DU?$char_traits@D@std@@V?$allocator@D@2@@std@@@2@@std@@IAEXPAV?$basic_string@DU?$char_traits@D@std@@V?$allocator@D@2@@2@0@Z ; std::vector<std::basic_string<char,std::char_traits<char>,std::allocator<char> >,std::allocator<std::basic_string<char,std::char_traits<char>,std::allocator<char> > > >::_Destroy

; 841  : 				this->_Alval.deallocate(_Myfirst, _Myend - _Myfirst);

  001c3	8b 45 e8	 mov	 eax, DWORD PTR _this$[ebp]
  001c6	8b 4d e8	 mov	 ecx, DWORD PTR _this$[ebp]
  001c9	8b 40 0c	 mov	 eax, DWORD PTR [eax+12]
  001cc	2b 41 04	 sub	 eax, DWORD PTR [ecx+4]
  001cf	99		 cdq
  001d0	b9 1c 00 00 00	 mov	 ecx, 28			; 0000001cH
  001d5	f7 f9		 idiv	 ecx
  001d7	50		 push	 eax
  001d8	8b 55 e8	 mov	 edx, DWORD PTR _this$[ebp]
  001db	8b 42 04	 mov	 eax, DWORD PTR [edx+4]
  001de	50		 push	 eax
  001df	8b 4d e8	 mov	 ecx, DWORD PTR _this$[ebp]
  001e2	e8 00 00 00 00	 call	 ?deallocate@?$allocator@V?$basic_string@DU?$char_traits@D@std@@V?$allocator@D@2@@std@@@std@@QAEXPAV?$basic_string@DU?$char_traits@D@std@@V?$allocator@D@2@@2@I@Z ; std::allocator<std::basic_string<char,std::char_traits<char>,std::allocator<char> > >::deallocate
$L190401:

; 842  : 				}
; 843  : 			_Myend = _Newvec + _Capacity;

  001e7	8b 4d c0	 mov	 ecx, DWORD PTR __Capacity$[ebp]
  001ea	6b c9 1c	 imul	 ecx, 28			; 0000001cH
  001ed	03 4d bc	 add	 ecx, DWORD PTR __Newvec$190393[ebp]
  001f0	8b 55 e8	 mov	 edx, DWORD PTR _this$[ebp]
  001f3	89 4a 0c	 mov	 DWORD PTR [edx+12], ecx

; 844  : 			_Mylast = _Newvec + _Count;

  001f6	8b 45 0c	 mov	 eax, DWORD PTR __Count$[ebp]
  001f9	6b c0 1c	 imul	 eax, 28			; 0000001cH
  001fc	03 45 bc	 add	 eax, DWORD PTR __Newvec$190393[ebp]
  001ff	8b 4d e8	 mov	 ecx, DWORD PTR _this$[ebp]
  00202	89 41 08	 mov	 DWORD PTR [ecx+8], eax

; 845  : 			_Myfirst = _Newvec;

  00205	8b 55 e8	 mov	 edx, DWORD PTR _this$[ebp]
  00208	8b 45 bc	 mov	 eax, DWORD PTR __Newvec$190393[ebp]
  0020b	89 42 04	 mov	 DWORD PTR [edx+4], eax

; 846  : 			}
; 847  : 		else if ((size_type)(_Mylast - _ITER_BASE(_Where)) < _Count)

  0020e	e9 2d 01 00 00	 jmp	 $L190388
$L190391:
  00213	8b 4d e8	 mov	 ecx, DWORD PTR _this$[ebp]
  00216	8b 41 08	 mov	 eax, DWORD PTR [ecx+8]
  00219	2b 45 08	 sub	 eax, DWORD PTR __Where$[ebp]
  0021c	99		 cdq
  0021d	b9 1c 00 00 00	 mov	 ecx, 28			; 0000001cH
  00222	f7 f9		 idiv	 ecx
  00224	3b 45 0c	 cmp	 eax, DWORD PTR __Count$[ebp]
  00227	0f 83 af 00 00
	00		 jae	 $L190404

; 848  : 			{	// new stuff spills off end
; 849  : 			_Ucopy(_ITER_BASE(_Where), _Mylast,
; 850  : 				_ITER_BASE(_Where) + _Count);	// copy suffix

  0022d	8b 55 0c	 mov	 edx, DWORD PTR __Count$[ebp]
  00230	6b d2 1c	 imul	 edx, 28			; 0000001cH
  00233	03 55 08	 add	 edx, DWORD PTR __Where$[ebp]
  00236	52		 push	 edx
  00237	8b 45 e8	 mov	 eax, DWORD PTR _this$[ebp]
  0023a	8b 48 08	 mov	 ecx, DWORD PTR [eax+8]
  0023d	51		 push	 ecx
  0023e	8b 55 08	 mov	 edx, DWORD PTR __Where$[ebp]
  00241	52		 push	 edx
  00242	8b 4d e8	 mov	 ecx, DWORD PTR _this$[ebp]
  00245	e8 00 00 00 00	 call	 ??$_Ucopy@PAV?$basic_string@DU?$char_traits@D@std@@V?$allocator@D@2@@std@@@?$vector@V?$basic_string@DU?$char_traits@D@std@@V?$allocator@D@2@@std@@V?$allocator@V?$basic_string@DU?$char_traits@D@std@@V?$allocator@D@2@@std@@@2@@std@@IAEPAV?$basic_string@DU?$char_traits@D@std@@V?$allocator@D@2@@1@PAV21@00@Z ; std::vector<std::basic_string<char,std::char_traits<char>,std::allocator<char> >,std::allocator<std::basic_string<char,std::char_traits<char>,std::allocator<char> > > >::_Ucopy<std::basic_string<char,std::char_traits<char>,std::allocator<char> > *>

; 851  : 
; 852  : 			_TRY_BEGIN

  0024a	c6 45 fc 03	 mov	 BYTE PTR __$EHRec$[ebp+12], 3

; 853  : 			_Ufill(_Mylast, _Count - (_Mylast - _ITER_BASE(_Where)),
; 854  : 				_Tmp);	// insert new stuff off end

  0024e	8d 45 c8	 lea	 eax, DWORD PTR __Tmp$[ebp]
  00251	50		 push	 eax
  00252	8b 4d e8	 mov	 ecx, DWORD PTR _this$[ebp]
  00255	8b 41 08	 mov	 eax, DWORD PTR [ecx+8]
  00258	2b 45 08	 sub	 eax, DWORD PTR __Where$[ebp]
  0025b	99		 cdq
  0025c	b9 1c 00 00 00	 mov	 ecx, 28			; 0000001cH
  00261	f7 f9		 idiv	 ecx
  00263	8b 55 0c	 mov	 edx, DWORD PTR __Count$[ebp]
  00266	2b d0		 sub	 edx, eax
  00268	52		 push	 edx
  00269	8b 45 e8	 mov	 eax, DWORD PTR _this$[ebp]
  0026c	8b 48 08	 mov	 ecx, DWORD PTR [eax+8]
  0026f	51		 push	 ecx
  00270	8b 4d e8	 mov	 ecx, DWORD PTR _this$[ebp]
  00273	e8 00 00 00 00	 call	 ?_Ufill@?$vector@V?$basic_string@DU?$char_traits@D@std@@V?$allocator@D@2@@std@@V?$allocator@V?$basic_string@DU?$char_traits@D@std@@V?$allocator@D@2@@std@@@2@@std@@IAEPAV?$basic_string@DU?$char_traits@D@std@@V?$allocator@D@2@@2@PAV32@IABV32@@Z ; std::vector<std::basic_string<char,std::char_traits<char>,std::allocator<char> >,std::allocator<std::basic_string<char,std::char_traits<char>,std::allocator<char> > > >::_Ufill
  00278	eb 28		 jmp	 SHORT $L191461
$L191462:

; 855  : 			_CATCH_ALL
; 856  : 			_Destroy(_ITER_BASE(_Where) + _Count, _Mylast + _Count);

  0027a	8b 55 0c	 mov	 edx, DWORD PTR __Count$[ebp]
  0027d	6b d2 1c	 imul	 edx, 28			; 0000001cH
  00280	8b 45 e8	 mov	 eax, DWORD PTR _this$[ebp]
  00283	03 50 08	 add	 edx, DWORD PTR [eax+8]
  00286	52		 push	 edx
  00287	8b 4d 0c	 mov	 ecx, DWORD PTR __Count$[ebp]
  0028a	6b c9 1c	 imul	 ecx, 28			; 0000001cH
  0028d	03 4d 08	 add	 ecx, DWORD PTR __Where$[ebp]
  00290	51		 push	 ecx
  00291	8b 4d e8	 mov	 ecx, DWORD PTR _this$[ebp]
  00294	e8 00 00 00 00	 call	 ?_Destroy@?$vector@V?$basic_string@DU?$char_traits@D@std@@V?$allocator@D@2@@std@@V?$allocator@V?$basic_string@DU?$char_traits@D@std@@V?$allocator@D@2@@std@@@2@@std@@IAEXPAV?$basic_string@DU?$char_traits@D@std@@V?$allocator@D@2@@2@0@Z ; std::vector<std::basic_string<char,std::char_traits<char>,std::allocator<char> >,std::allocator<std::basic_string<char,std::char_traits<char>,std::allocator<char> > > >::_Destroy

; 857  : 			_RERAISE;

  00299	6a 00		 push	 0
  0029b	6a 00		 push	 0
  0029d	e8 00 00 00 00	 call	 __CxxThrowException@8
$L191461:

; 858  : 			_CATCH_END

  002a2	c7 45 fc 00 00
	00 00		 mov	 DWORD PTR __$EHRec$[ebp+12], 0

; 859  : 
; 860  : 			_Mylast += _Count;

  002a9	8b 55 0c	 mov	 edx, DWORD PTR __Count$[ebp]
  002ac	6b d2 1c	 imul	 edx, 28			; 0000001cH
  002af	8b 45 e8	 mov	 eax, DWORD PTR _this$[ebp]
  002b2	03 50 08	 add	 edx, DWORD PTR [eax+8]
  002b5	8b 4d e8	 mov	 ecx, DWORD PTR _this$[ebp]
  002b8	89 51 08	 mov	 DWORD PTR [ecx+8], edx

; 861  : 			fill(_ITER_BASE(_Where), _Mylast - _Count,
; 862  : 				_Tmp);	// insert up to old end

  002bb	8d 55 c8	 lea	 edx, DWORD PTR __Tmp$[ebp]
  002be	52		 push	 edx
  002bf	8b 45 0c	 mov	 eax, DWORD PTR __Count$[ebp]
  002c2	6b c0 1c	 imul	 eax, 28			; 0000001cH
  002c5	8b 4d e8	 mov	 ecx, DWORD PTR _this$[ebp]
  002c8	8b 51 08	 mov	 edx, DWORD PTR [ecx+8]
  002cb	2b d0		 sub	 edx, eax
  002cd	52		 push	 edx
  002ce	8b 45 08	 mov	 eax, DWORD PTR __Where$[ebp]
  002d1	50		 push	 eax
  002d2	e8 00 00 00 00	 call	 ??$fill@PAV?$basic_string@DU?$char_traits@D@std@@V?$allocator@D@2@@std@@V12@@std@@YAXPAV?$basic_string@DU?$char_traits@D@std@@V?$allocator@D@2@@0@0ABV10@@Z ; std::fill<std::basic_string<char,std::char_traits<char>,std::allocator<char> > *,std::basic_string<char,std::char_traits<char>,std::allocator<char> > >
  002d7	83 c4 0c	 add	 esp, 12			; 0000000cH

; 863  : 			}
; 864  : 		else

  002da	eb 64		 jmp	 SHORT $L190388
$L190404:

; 865  : 			{	// new stuff can all be assigned
; 866  : 			pointer _Oldend = _Mylast;

  002dc	8b 4d e8	 mov	 ecx, DWORD PTR _this$[ebp]
  002df	8b 51 08	 mov	 edx, DWORD PTR [ecx+8]
  002e2	89 55 b4	 mov	 DWORD PTR __Oldend$190414[ebp], edx

; 867  : 			_Mylast = _Ucopy(_Oldend - _Count, _Oldend,
; 868  : 				_Mylast);	// copy suffix

  002e5	8b 45 e8	 mov	 eax, DWORD PTR _this$[ebp]
  002e8	8b 48 08	 mov	 ecx, DWORD PTR [eax+8]
  002eb	51		 push	 ecx
  002ec	8b 55 b4	 mov	 edx, DWORD PTR __Oldend$190414[ebp]
  002ef	52		 push	 edx
  002f0	8b 45 0c	 mov	 eax, DWORD PTR __Count$[ebp]
  002f3	6b c0 1c	 imul	 eax, 28			; 0000001cH
  002f6	8b 4d b4	 mov	 ecx, DWORD PTR __Oldend$190414[ebp]
  002f9	2b c8		 sub	 ecx, eax
  002fb	51		 push	 ecx
  002fc	8b 4d e8	 mov	 ecx, DWORD PTR _this$[ebp]
  002ff	e8 00 00 00 00	 call	 ??$_Ucopy@PAV?$basic_string@DU?$char_traits@D@std@@V?$allocator@D@2@@std@@@?$vector@V?$basic_string@DU?$char_traits@D@std@@V?$allocator@D@2@@std@@V?$allocator@V?$basic_string@DU?$char_traits@D@std@@V?$allocator@D@2@@std@@@2@@std@@IAEPAV?$basic_string@DU?$char_traits@D@std@@V?$allocator@D@2@@1@PAV21@00@Z ; std::vector<std::basic_string<char,std::char_traits<char>,std::allocator<char> >,std::allocator<std::basic_string<char,std::char_traits<char>,std::allocator<char> > > >::_Ucopy<std::basic_string<char,std::char_traits<char>,std::allocator<char> > *>
  00304	8b 55 e8	 mov	 edx, DWORD PTR _this$[ebp]
  00307	89 42 08	 mov	 DWORD PTR [edx+8], eax

; 869  : 			copy_backward(_ITER_BASE(_Where), _Oldend - _Count,
; 870  : 				_Oldend);	// copy hole

  0030a	8b 45 b4	 mov	 eax, DWORD PTR __Oldend$190414[ebp]
  0030d	50		 push	 eax
  0030e	8b 4d 0c	 mov	 ecx, DWORD PTR __Count$[ebp]
  00311	6b c9 1c	 imul	 ecx, 28			; 0000001cH
  00314	8b 55 b4	 mov	 edx, DWORD PTR __Oldend$190414[ebp]
  00317	2b d1		 sub	 edx, ecx
  00319	52		 push	 edx
  0031a	8b 45 08	 mov	 eax, DWORD PTR __Where$[ebp]
  0031d	50		 push	 eax
  0031e	e8 00 00 00 00	 call	 ??$copy_backward@PAV?$basic_string@DU?$char_traits@D@std@@V?$allocator@D@2@@std@@PAV12@@std@@YAPAV?$basic_string@DU?$char_traits@D@std@@V?$allocator@D@2@@0@PAV10@00@Z ; std::copy_backward<std::basic_string<char,std::char_traits<char>,std::allocator<char> > *,std::basic_string<char,std::char_traits<char>,std::allocator<char> > *>
  00323	83 c4 0c	 add	 esp, 12			; 0000000cH

; 871  : 			fill(_ITER_BASE(_Where), _ITER_BASE(_Where) + _Count,
; 872  : 				_Tmp);	// insert into hole

  00326	8d 4d c8	 lea	 ecx, DWORD PTR __Tmp$[ebp]
  00329	51		 push	 ecx
  0032a	8b 55 0c	 mov	 edx, DWORD PTR __Count$[ebp]
  0032d	6b d2 1c	 imul	 edx, 28			; 0000001cH
  00330	03 55 08	 add	 edx, DWORD PTR __Where$[ebp]
  00333	52		 push	 edx
  00334	8b 45 08	 mov	 eax, DWORD PTR __Where$[ebp]
  00337	50		 push	 eax
  00338	e8 00 00 00 00	 call	 ??$fill@PAV?$basic_string@DU?$char_traits@D@std@@V?$allocator@D@2@@std@@V12@@std@@YAXPAV?$basic_string@DU?$char_traits@D@std@@V?$allocator@D@2@@0@0ABV10@@Z ; std::fill<std::basic_string<char,std::char_traits<char>,std::allocator<char> > *,std::basic_string<char,std::char_traits<char>,std::allocator<char> > >
  0033d	83 c4 0c	 add	 esp, 12			; 0000000cH
$L190388:

; 873  : 			}
; 874  : 		}

  00340	c7 45 fc ff ff
	ff ff		 mov	 DWORD PTR __$EHRec$[ebp+12], -1
  00347	8b f4		 mov	 esi, esp
  00349	8d 4d c8	 lea	 ecx, DWORD PTR __Tmp$[ebp]
  0034c	ff 15 00 00 00
	00		 call	 DWORD PTR __imp_??1?$basic_string@DU?$char_traits@D@std@@V?$allocator@D@2@@std@@QAE@XZ
  00352	3b f4		 cmp	 esi, esp
  00354	e8 00 00 00 00	 call	 __RTC_CheckEsp
$L191455:
  00359	52		 push	 edx
  0035a	8b cd		 mov	 ecx, ebp
  0035c	50		 push	 eax
  0035d	8d 15 00 00 00
	00		 lea	 edx, DWORD PTR $L191470
  00363	e8 00 00 00 00	 call	 @_RTC_CheckStackVars@8
  00368	58		 pop	 eax
  00369	5a		 pop	 edx
  0036a	8b 4d f4	 mov	 ecx, DWORD PTR __$EHRec$[ebp+4]
  0036d	64 89 0d 00 00
	00 00		 mov	 DWORD PTR fs:__except_list, ecx
  00374	8b 4d ec	 mov	 ecx, DWORD PTR __$ArrayPad$[ebp]
  00377	e8 00 00 00 00	 call	 @__security_check_cookie@4
  0037c	5f		 pop	 edi
  0037d	5e		 pop	 esi
  0037e	5b		 pop	 ebx
  0037f	83 c4 58	 add	 esp, 88			; 00000058H
  00382	3b ec		 cmp	 ebp, esp
  00384	e8 00 00 00 00	 call	 __RTC_CheckEsp
  00389	8b e5		 mov	 esp, ebp
  0038b	5d		 pop	 ebp
  0038c	c2 0c 00	 ret	 12			; 0000000cH
$L191470:
  0038f	01 00 00 00	 DD	 1
  00393	00 00 00 00	 DD	 $L191469
$L191469:
  00397	c8 ff ff ff	 DD	 -56			; ffffffc8H
  0039b	1c 00 00 00	 DD	 28			; 0000001cH
  0039f	00 00 00 00	 DD	 $L191466
$L191466:
  003a3	5f		 DB	 95			; 0000005fH
  003a4	54		 DB	 84			; 00000054H
  003a5	6d		 DB	 109			; 0000006dH
  003a6	70		 DB	 112			; 00000070H
  003a7	00		 DB	 0
_TEXT	ENDS
;	COMDAT text$x
text$x	SEGMENT
$L191463:
  00000	8b f4		 mov	 esi, esp
  00002	8d 4d c8	 lea	 ecx, DWORD PTR __Tmp$[ebp]
  00005	ff 15 00 00 00
	00		 call	 DWORD PTR __imp_??1?$basic_string@DU?$char_traits@D@std@@V?$allocator@D@2@@std@@QAE@XZ
  0000b	3b f4		 cmp	 esi, esp
  0000d	e9 00 00 00 00	 jmp	 __RTC_CheckEsp
__ehhandler$?_Insert_n@?$vector@V?$basic_string@DU?$char_traits@D@std@@V?$allocator@D@2@@std@@V?$allocator@V?$basic_string@DU?$char_traits@D@std@@V?$allocator@D@2@@std@@@2@@std@@IAEXViterator@12@IABV?$basic_string@DU?$char_traits@D@std@@V?$allocator@D@2@@2@@Z:
  00012	b8 00 00 00 00	 mov	 eax, OFFSET FLAT:$T191465
  00017	e9 00 00 00 00	 jmp	 ___CxxFrameHandler
text$x	ENDS
?_Insert_n@?$vector@V?$basic_string@DU?$char_traits@D@std@@V?$allocator@D@2@@std@@V?$allocator@V?$basic_string@DU?$char_traits@D@std@@V?$allocator@D@2@@std@@@2@@std@@IAEXViterator@12@IABV?$basic_string@DU?$char_traits@D@std@@V?$allocator@D@2@@2@@Z ENDP ; std::vector<std::basic_string<char,std::char_traits<char>,std::allocator<char> >,std::allocator<std::basic_string<char,std::char_traits<char>,std::allocator<char> > > >::_Insert_n
PUBLIC	??_R0?AVlogic_error@std@@@8			; std::logic_error `RTTI Type Descriptor'
PUBLIC	__CT??_R0?AVlogic_error@std@@@8??0logic_error@std@@QAE@ABV01@@Z40
PUBLIC	??_R0?AVexception@@@8				; exception `RTTI Type Descriptor'
PUBLIC	__CT??_R0?AVexception@@@8??0exception@@QAE@ABV0@@Z12
PUBLIC	??_R0?AVlength_error@std@@@8			; std::length_error `RTTI Type Descriptor'
PUBLIC	??0logic_error@std@@QAE@ABV01@@Z		; std::logic_error::logic_error
PUBLIC	??0length_error@std@@QAE@ABV?$basic_string@DU?$char_traits@D@std@@V?$allocator@D@2@@1@@Z ; std::length_error::length_error
PUBLIC	??1length_error@std@@UAE@XZ			; std::length_error::~length_error
PUBLIC	??0length_error@std@@QAE@ABV01@@Z		; std::length_error::length_error
PUBLIC	__TI3?AVlength_error@std@@
PUBLIC	__CTA3?AVlength_error@std@@
PUBLIC	__CT??_R0?AVlength_error@std@@@8??0length_error@std@@QAE@ABV01@@Z40
PUBLIC	??_C@_0BD@OLBABOEK@vector?$DMT?$DO?5too?5long?$AA@ ; `string'
EXTRN	??0exception@@QAE@ABV0@@Z:NEAR			; exception::exception
EXTRN	??_7type_info@@6B@:QWORD			; type_info::`vftable'
;	COMDAT xdata$x
xdata$x	SEGMENT
$T191484 DD	0ffffffffH
	DD	FLAT:$L191480
$T191482 DD	019930520H
	DD	01H
	DD	FLAT:$T191484
	DD	2 DUP(00H)
	DD	2 DUP(00H)
xdata$x	ENDS
;	COMDAT ??_C@_0BD@OLBABOEK@vector?$DMT?$DO?5too?5long?$AA@
CONST	SEGMENT
??_C@_0BD@OLBABOEK@vector?$DMT?$DO?5too?5long?$AA@ DB 'vector<T> too long'
	DB	00H						; `string'
CONST	ENDS
;	COMDAT __TI3?AVlength_error@std@@
xdata$x	SEGMENT
__TI3?AVlength_error@std@@ DD 00H
	DD	FLAT:??1length_error@std@@UAE@XZ
	DD	00H
	DD	FLAT:__CTA3?AVlength_error@std@@
xdata$x	ENDS
;	COMDAT __CTA3?AVlength_error@std@@
xdata$x	SEGMENT
__CTA3?AVlength_error@std@@ DD 03H
	DD	FLAT:__CT??_R0?AVlength_error@std@@@8??0length_error@std@@QAE@ABV01@@Z40
	DD	FLAT:__CT??_R0?AVlogic_error@std@@@8??0logic_error@std@@QAE@ABV01@@Z40
	DD	FLAT:__CT??_R0?AVexception@@@8??0exception@@QAE@ABV0@@Z12
xdata$x	ENDS
;	COMDAT __CT??_R0?AVlength_error@std@@@8??0length_error@std@@QAE@ABV01@@Z40
xdata$x	SEGMENT
__CT??_R0?AVlength_error@std@@@8??0length_error@std@@QAE@ABV01@@Z40 DD 00H
	DD	FLAT:??_R0?AVlength_error@std@@@8
	DD	00H
	DD	0ffffffffH
	ORG $+4
	DD	028H
	DD	FLAT:??0length_error@std@@QAE@ABV01@@Z
xdata$x	ENDS
;	COMDAT ??_R0?AVlength_error@std@@@8
_DATA	SEGMENT
??_R0?AVlength_error@std@@@8 DD FLAT:??_7type_info@@6B@	; std::length_error `RTTI Type Descriptor'
	DD	00H
	DB	'.?AVlength_error@std@@', 00H
	ORG $-31
	DD	FLAT:??_7type_info@@6B@
	DD	00H
	DB	'.?AVlength_error@std@@', 00H
_DATA	ENDS
;	COMDAT __CT??_R0?AVlogic_error@std@@@8??0logic_error@std@@QAE@ABV01@@Z40
xdata$x	SEGMENT
__CT??_R0?AVlogic_error@std@@@8??0logic_error@std@@QAE@ABV01@@Z40 DD 00H
	DD	FLAT:??_R0?AVlogic_error@std@@@8
	DD	00H
	DD	0ffffffffH
	ORG $+4
	DD	028H
	DD	FLAT:??0logic_error@std@@QAE@ABV01@@Z
xdata$x	ENDS
;	COMDAT ??_R0?AVlogic_error@std@@@8
_DATA	SEGMENT
??_R0?AVlogic_error@std@@@8 DD FLAT:??_7type_info@@6B@	; std::logic_error `RTTI Type Descriptor'
	DD	00H
	DB	'.?AVlogic_error@std@@', 00H
	ORG $-30
	DD	FLAT:??_7type_info@@6B@
	DD	00H
	DB	'.?AVlogic_error@std@@', 00H
_DATA	ENDS
;	COMDAT __CT??_R0?AVexception@@@8??0exception@@QAE@ABV0@@Z12
xdata$x	SEGMENT
__CT??_R0?AVexception@@@8??0exception@@QAE@ABV0@@Z12 DD 00H
	DD	FLAT:??_R0?AVexception@@@8
	DD	00H
	DD	0ffffffffH
	ORG $+4
	DD	0cH
	DD	FLAT:??0exception@@QAE@ABV0@@Z
xdata$x	ENDS
;	COMDAT ??_R0?AVexception@@@8
_DATA	SEGMENT
??_R0?AVexception@@@8 DD FLAT:??_7type_info@@6B@	; exception `RTTI Type Descriptor'
	DD	00H
	DB	'.?AVexception@@', 00H
	ORG $-24
	DD	FLAT:??_7type_info@@6B@
	DD	00H
	DB	'.?AVexception@@', 00H
; Function compile flags: /Odt /RTCsu
_DATA	ENDS
;	COMDAT ?_Xlen@?$vector@V?$basic_string@DU?$char_traits@D@std@@V?$allocator@D@2@@std@@V?$allocator@V?$basic_string@DU?$char_traits@D@std@@V?$allocator@D@2@@std@@@2@@std@@IBEXXZ
_TEXT	SEGMENT
$T191479 = -84						; size = 28
$T191478 = -56						; size = 40
_this$ = -16						; size = 4
__$EHRec$ = -12						; size = 12
?_Xlen@?$vector@V?$basic_string@DU?$char_traits@D@std@@V?$allocator@D@2@@std@@V?$allocator@V?$basic_string@DU?$char_traits@D@std@@V?$allocator@D@2@@std@@@2@@std@@IBEXXZ PROC NEAR ; std::vector<std::basic_string<char,std::char_traits<char>,std::allocator<char> >,std::allocator<std::basic_string<char,std::char_traits<char>,std::allocator<char> > > >::_Xlen, COMDAT
; _this$ = ecx

; 883  : 		{	// report a length_error

  00000	55		 push	 ebp
  00001	8b ec		 mov	 ebp, esp
  00003	6a ff		 push	 -1
  00005	68 00 00 00 00	 push	 __ehhandler$?_Xlen@?$vector@V?$basic_string@DU?$char_traits@D@std@@V?$allocator@D@2@@std@@V?$allocator@V?$basic_string@DU?$char_traits@D@std@@V?$allocator@D@2@@std@@@2@@std@@IBEXXZ
  0000a	64 a1 00 00 00
	00		 mov	 eax, DWORD PTR fs:__except_list
  00010	50		 push	 eax
  00011	64 89 25 00 00
	00 00		 mov	 DWORD PTR fs:__except_list, esp
  00018	83 ec 48	 sub	 esp, 72			; 00000048H
  0001b	56		 push	 esi
  0001c	57		 push	 edi
  0001d	51		 push	 ecx
  0001e	8d 7d ac	 lea	 edi, DWORD PTR [ebp-84]
  00021	b9 12 00 00 00	 mov	 ecx, 18			; 00000012H
  00026	b8 cc cc cc cc	 mov	 eax, -858993460		; ccccccccH
  0002b	f3 ab		 rep stosd
  0002d	59		 pop	 ecx
  0002e	89 4d f0	 mov	 DWORD PTR _this$[ebp], ecx

; 884  : 		_THROW(length_error, "vector<T> too long");

  00031	8b f4		 mov	 esi, esp
  00033	68 00 00 00 00	 push	 OFFSET FLAT:??_C@_0BD@OLBABOEK@vector?$DMT?$DO?5too?5long?$AA@
  00038	8d 4d ac	 lea	 ecx, DWORD PTR $T191479[ebp]
  0003b	ff 15 00 00 00
	00		 call	 DWORD PTR __imp_??0?$basic_string@DU?$char_traits@D@std@@V?$allocator@D@2@@std@@QAE@PBD@Z
  00041	3b f4		 cmp	 esi, esp
  00043	e8 00 00 00 00	 call	 __RTC_CheckEsp
  00048	c7 45 fc 00 00
	00 00		 mov	 DWORD PTR __$EHRec$[ebp+8], 0
  0004f	8d 45 ac	 lea	 eax, DWORD PTR $T191479[ebp]
  00052	50		 push	 eax
  00053	8d 4d c8	 lea	 ecx, DWORD PTR $T191478[ebp]
  00056	e8 00 00 00 00	 call	 ??0length_error@std@@QAE@ABV?$basic_string@DU?$char_traits@D@std@@V?$allocator@D@2@@1@@Z ; std::length_error::length_error
  0005b	68 00 00 00 00	 push	 OFFSET FLAT:__TI3?AVlength_error@std@@
  00060	8d 4d c8	 lea	 ecx, DWORD PTR $T191478[ebp]
  00063	51		 push	 ecx
  00064	e8 00 00 00 00	 call	 __CxxThrowException@8
$L191477:

; 885  : 		}

  00069	8b 4d f4	 mov	 ecx, DWORD PTR __$EHRec$[ebp]
  0006c	64 89 0d 00 00
	00 00		 mov	 DWORD PTR fs:__except_list, ecx
  00073	5f		 pop	 edi
  00074	5e		 pop	 esi
  00075	83 c4 54	 add	 esp, 84			; 00000054H
  00078	3b ec		 cmp	 ebp, esp
  0007a	e8 00 00 00 00	 call	 __RTC_CheckEsp
  0007f	8b e5		 mov	 esp, ebp
  00081	5d		 pop	 ebp
  00082	c3		 ret	 0
_TEXT	ENDS
;	COMDAT text$x
text$x	SEGMENT
$L191480:
  00000	8b f4		 mov	 esi, esp
  00002	8d 4d ac	 lea	 ecx, DWORD PTR $T191479[ebp]
  00005	ff 15 00 00 00
	00		 call	 DWORD PTR __imp_??1?$basic_string@DU?$char_traits@D@std@@V?$allocator@D@2@@std@@QAE@XZ
  0000b	3b f4		 cmp	 esi, esp
  0000d	e9 00 00 00 00	 jmp	 __RTC_CheckEsp
__ehhandler$?_Xlen@?$vector@V?$basic_string@DU?$char_traits@D@std@@V?$allocator@D@2@@std@@V?$allocator@V?$basic_string@DU?$char_traits@D@std@@V?$allocator@D@2@@std@@@2@@std@@IBEXXZ:
  00012	b8 00 00 00 00	 mov	 eax, OFFSET FLAT:$T191482
  00017	e9 00 00 00 00	 jmp	 ___CxxFrameHandler
text$x	ENDS
?_Xlen@?$vector@V?$basic_string@DU?$char_traits@D@std@@V?$allocator@D@2@@std@@V?$allocator@V?$basic_string@DU?$char_traits@D@std@@V?$allocator@D@2@@std@@@2@@std@@IBEXXZ ENDP ; std::vector<std::basic_string<char,std::char_traits<char>,std::allocator<char> >,std::allocator<std::basic_string<char,std::char_traits<char>,std::allocator<char> > > >::_Xlen
PUBLIC	??0const_iterator@?$vector@V?$basic_string@DU?$char_traits@D@std@@V?$allocator@D@2@@std@@V?$allocator@V?$basic_string@DU?$char_traits@D@std@@V?$allocator@D@2@@std@@@2@@std@@QAE@PAV?$basic_string@DU?$char_traits@D@std@@V?$allocator@D@2@@2@@Z ; std::vector<std::basic_string<char,std::char_traits<char>,std::allocator<char> >,std::allocator<std::basic_string<char,std::char_traits<char>,std::allocator<char> > > >::const_iterator::const_iterator
; Function compile flags: /Odt /RTCsu
;	COMDAT ??0iterator@?$vector@V?$basic_string@DU?$char_traits@D@std@@V?$allocator@D@2@@std@@V?$allocator@V?$basic_string@DU?$char_traits@D@std@@V?$allocator@D@2@@std@@@2@@std@@QAE@PAV?$basic_string@DU?$char_traits@D@std@@V?$allocator@D@2@@2@@Z
_TEXT	SEGMENT
_this$ = -4						; size = 4
__Ptr$ = 8						; size = 4
??0iterator@?$vector@V?$basic_string@DU?$char_traits@D@std@@V?$allocator@D@2@@std@@V?$allocator@V?$basic_string@DU?$char_traits@D@std@@V?$allocator@D@2@@std@@@2@@std@@QAE@PAV?$basic_string@DU?$char_traits@D@std@@V?$allocator@D@2@@2@@Z PROC NEAR ; std::vector<std::basic_string<char,std::char_traits<char>,std::allocator<char> >,std::allocator<std::basic_string<char,std::char_traits<char>,std::allocator<char> > > >::iterator::iterator, COMDAT
; _this$ = ecx

; 215  : 			{	// construct with pointer _Ptr

  00000	55		 push	 ebp
  00001	8b ec		 mov	 ebp, esp
  00003	51		 push	 ecx
  00004	c7 45 fc cc cc
	cc cc		 mov	 DWORD PTR [ebp-4], -858993460 ; ccccccccH
  0000b	89 4d fc	 mov	 DWORD PTR _this$[ebp], ecx
  0000e	8b 45 08	 mov	 eax, DWORD PTR __Ptr$[ebp]
  00011	50		 push	 eax
  00012	8b 4d fc	 mov	 ecx, DWORD PTR _this$[ebp]
  00015	e8 00 00 00 00	 call	 ??0const_iterator@?$vector@V?$basic_string@DU?$char_traits@D@std@@V?$allocator@D@2@@std@@V?$allocator@V?$basic_string@DU?$char_traits@D@std@@V?$allocator@D@2@@std@@@2@@std@@QAE@PAV?$basic_string@DU?$char_traits@D@std@@V?$allocator@D@2@@2@@Z ; std::vector<std::basic_string<char,std::char_traits<char>,std::allocator<char> >,std::allocator<std::basic_string<char,std::char_traits<char>,std::allocator<char> > > >::const_iterator::const_iterator

; 216  : 			}

  0001a	8b 45 fc	 mov	 eax, DWORD PTR _this$[ebp]
  0001d	83 c4 04	 add	 esp, 4
  00020	3b ec		 cmp	 ebp, esp
  00022	e8 00 00 00 00	 call	 __RTC_CheckEsp
  00027	8b e5		 mov	 esp, ebp
  00029	5d		 pop	 ebp
  0002a	c2 04 00	 ret	 4
??0iterator@?$vector@V?$basic_string@DU?$char_traits@D@std@@V?$allocator@D@2@@std@@V?$allocator@V?$basic_string@DU?$char_traits@D@std@@V?$allocator@D@2@@std@@@2@@std@@QAE@PAV?$basic_string@DU?$char_traits@D@std@@V?$allocator@D@2@@2@@Z ENDP ; std::vector<std::basic_string<char,std::char_traits<char>,std::allocator<char> >,std::allocator<std::basic_string<char,std::char_traits<char>,std::allocator<char> > > >::iterator::iterator
; Function compile flags: /Odt /RTCsu
_TEXT	ENDS
;	COMDAT ??Yiterator@?$vector@V?$basic_string@DU?$char_traits@D@std@@V?$allocator@D@2@@std@@V?$allocator@V?$basic_string@DU?$char_traits@D@std@@V?$allocator@D@2@@std@@@2@@std@@QAEAAV012@H@Z
_TEXT	SEGMENT
_this$ = -4						; size = 4
__Off$ = 8						; size = 4
??Yiterator@?$vector@V?$basic_string@DU?$char_traits@D@std@@V?$allocator@D@2@@std@@V?$allocator@V?$basic_string@DU?$char_traits@D@std@@V?$allocator@D@2@@std@@@2@@std@@QAEAAV012@H@Z PROC NEAR ; std::vector<std::basic_string<char,std::char_traits<char>,std::allocator<char> >,std::allocator<std::basic_string<char,std::char_traits<char>,std::allocator<char> > > >::iterator::operator+=, COMDAT
; _this$ = ecx

; 255  : 			{	// increment by integer

  00000	55		 push	 ebp
  00001	8b ec		 mov	 ebp, esp
  00003	51		 push	 ecx
  00004	c7 45 fc cc cc
	cc cc		 mov	 DWORD PTR [ebp-4], -858993460 ; ccccccccH
  0000b	89 4d fc	 mov	 DWORD PTR _this$[ebp], ecx

; 256  : 			this->_Myptr += _Off;

  0000e	8b 45 08	 mov	 eax, DWORD PTR __Off$[ebp]
  00011	6b c0 1c	 imul	 eax, 28			; 0000001cH
  00014	8b 4d fc	 mov	 ecx, DWORD PTR _this$[ebp]
  00017	03 01		 add	 eax, DWORD PTR [ecx]
  00019	8b 55 fc	 mov	 edx, DWORD PTR _this$[ebp]
  0001c	89 02		 mov	 DWORD PTR [edx], eax

; 257  : 			return (*this);

  0001e	8b 45 fc	 mov	 eax, DWORD PTR _this$[ebp]

; 258  : 			}

  00021	8b e5		 mov	 esp, ebp
  00023	5d		 pop	 ebp
  00024	c2 04 00	 ret	 4
??Yiterator@?$vector@V?$basic_string@DU?$char_traits@D@std@@V?$allocator@D@2@@std@@V?$allocator@V?$basic_string@DU?$char_traits@D@std@@V?$allocator@D@2@@std@@@2@@std@@QAEAAV012@H@Z ENDP ; std::vector<std::basic_string<char,std::char_traits<char>,std::allocator<char> >,std::allocator<std::basic_string<char,std::char_traits<char>,std::allocator<char> > > >::iterator::operator+=
_TEXT	ENDS
PUBLIC	??Gconst_iterator@?$vector@V?$basic_string@DU?$char_traits@D@std@@V?$allocator@D@2@@std@@V?$allocator@V?$basic_string@DU?$char_traits@D@std@@V?$allocator@D@2@@std@@@2@@std@@QBEHABV012@@Z ; std::vector<std::basic_string<char,std::char_traits<char>,std::allocator<char> >,std::allocator<std::basic_string<char,std::char_traits<char>,std::allocator<char> > > >::const_iterator::operator-
; Function compile flags: /Odt /RTCsu
;	COMDAT ??Giterator@?$vector@V?$basic_string@DU?$char_traits@D@std@@V?$allocator@D@2@@std@@V?$allocator@V?$basic_string@DU?$char_traits@D@std@@V?$allocator@D@2@@std@@@2@@std@@QBEHABVconst_iterator@12@@Z
_TEXT	SEGMENT
$T191490 = -8						; size = 4
_this$ = -4						; size = 4
__Right$ = 8						; size = 4
??Giterator@?$vector@V?$basic_string@DU?$char_traits@D@std@@V?$allocator@D@2@@std@@V?$allocator@V?$basic_string@DU?$char_traits@D@std@@V?$allocator@D@2@@std@@@2@@std@@QBEHABVconst_iterator@12@@Z PROC NEAR ; std::vector<std::basic_string<char,std::char_traits<char>,std::allocator<char> >,std::allocator<std::basic_string<char,std::char_traits<char>,std::allocator<char> > > >::iterator::operator-, COMDAT
; _this$ = ecx

; 278  : 			{	// return difference of iterators

  00000	55		 push	 ebp
  00001	8b ec		 mov	 ebp, esp
  00003	83 ec 08	 sub	 esp, 8
  00006	c7 45 f8 cc cc
	cc cc		 mov	 DWORD PTR [ebp-8], -858993460 ; ccccccccH
  0000d	c7 45 fc cc cc
	cc cc		 mov	 DWORD PTR [ebp-4], -858993460 ; ccccccccH
  00014	89 4d fc	 mov	 DWORD PTR _this$[ebp], ecx

; 279  : 			return ((const_iterator)*this - _Right);

  00017	8b 45 fc	 mov	 eax, DWORD PTR _this$[ebp]
  0001a	8b 08		 mov	 ecx, DWORD PTR [eax]
  0001c	89 4d f8	 mov	 DWORD PTR $T191490[ebp], ecx
  0001f	8b 55 08	 mov	 edx, DWORD PTR __Right$[ebp]
  00022	52		 push	 edx
  00023	8d 4d f8	 lea	 ecx, DWORD PTR $T191490[ebp]
  00026	e8 00 00 00 00	 call	 ??Gconst_iterator@?$vector@V?$basic_string@DU?$char_traits@D@std@@V?$allocator@D@2@@std@@V?$allocator@V?$basic_string@DU?$char_traits@D@std@@V?$allocator@D@2@@std@@@2@@std@@QBEHABV012@@Z ; std::vector<std::basic_string<char,std::char_traits<char>,std::allocator<char> >,std::allocator<std::basic_string<char,std::char_traits<char>,std::allocator<char> > > >::const_iterator::operator-

; 280  : 			}

  0002b	83 c4 08	 add	 esp, 8
  0002e	3b ec		 cmp	 ebp, esp
  00030	e8 00 00 00 00	 call	 __RTC_CheckEsp
  00035	8b e5		 mov	 esp, ebp
  00037	5d		 pop	 ebp
  00038	c2 04 00	 ret	 4
??Giterator@?$vector@V?$basic_string@DU?$char_traits@D@std@@V?$allocator@D@2@@std@@V?$allocator@V?$basic_string@DU?$char_traits@D@std@@V?$allocator@D@2@@std@@@2@@std@@QBEHABVconst_iterator@12@@Z ENDP ; std::vector<std::basic_string<char,std::char_traits<char>,std::allocator<char> >,std::allocator<std::basic_string<char,std::char_traits<char>,std::allocator<char> > > >::iterator::operator-
; Function compile flags: /Odt /RTCsu
_TEXT	ENDS
;	COMDAT ??Dconst_iterator@?$vector@V?$basic_string@DU?$char_traits@D@std@@V?$allocator@D@2@@std@@V?$allocator@V?$basic_string@DU?$char_traits@D@std@@V?$allocator@D@2@@std@@@2@@std@@QBEABV?$basic_string@DU?$char_traits@D@std@@V?$allocator@D@2@@2@XZ
_TEXT	SEGMENT
_this$ = -4						; size = 4
??Dconst_iterator@?$vector@V?$basic_string@DU?$char_traits@D@std@@V?$allocator@D@2@@std@@V?$allocator@V?$basic_string@DU?$char_traits@D@std@@V?$allocator@D@2@@std@@@2@@std@@QBEABV?$basic_string@DU?$char_traits@D@std@@V?$allocator@D@2@@2@XZ PROC NEAR ; std::vector<std::basic_string<char,std::char_traits<char>,std::allocator<char> >,std::allocator<std::basic_string<char,std::char_traits<char>,std::allocator<char> > > >::const_iterator::operator*, COMDAT
; _this$ = ecx

; 79   : 			{	// return designated object

  00000	55		 push	 ebp
  00001	8b ec		 mov	 ebp, esp
  00003	51		 push	 ecx
  00004	c7 45 fc cc cc
	cc cc		 mov	 DWORD PTR [ebp-4], -858993460 ; ccccccccH
  0000b	89 4d fc	 mov	 DWORD PTR _this$[ebp], ecx

; 80   : 
; 81   : 
; 82   : 			return (*_Myptr);

  0000e	8b 45 fc	 mov	 eax, DWORD PTR _this$[ebp]
  00011	8b 00		 mov	 eax, DWORD PTR [eax]

; 83   : 			}

  00013	8b e5		 mov	 esp, ebp
  00015	5d		 pop	 ebp
  00016	c3		 ret	 0
??Dconst_iterator@?$vector@V?$basic_string@DU?$char_traits@D@std@@V?$allocator@D@2@@std@@V?$allocator@V?$basic_string@DU?$char_traits@D@std@@V?$allocator@D@2@@std@@@2@@std@@QBEABV?$basic_string@DU?$char_traits@D@std@@V?$allocator@D@2@@2@XZ ENDP ; std::vector<std::basic_string<char,std::char_traits<char>,std::allocator<char> >,std::allocator<std::basic_string<char,std::char_traits<char>,std::allocator<char> > > >::const_iterator::operator*
_TEXT	ENDS
PUBLIC	??_R1A@?0A@A@exception@@8			; exception::`RTTI Base Class Descriptor at (0,-1,0,0)'
PUBLIC	??_R1A@?0A@A@logic_error@std@@8			; std::logic_error::`RTTI Base Class Descriptor at (0,-1,0,0)'
PUBLIC	??_R4length_error@std@@6B@			; std::length_error::`RTTI Complete Object Locator'
PUBLIC	??_R3length_error@std@@8			; std::length_error::`RTTI Class Hierarchy Descriptor'
PUBLIC	??_R2length_error@std@@8			; std::length_error::`RTTI Base Class Array'
PUBLIC	??_R1A@?0A@A@length_error@std@@8		; std::length_error::`RTTI Base Class Descriptor at (0,-1,0,0)'
PUBLIC	?what@logic_error@std@@UBEPBDXZ			; std::logic_error::what
PUBLIC	??_7length_error@std@@6B@			; std::length_error::`vftable'
PUBLIC	??_Glength_error@std@@UAEPAXI@Z			; std::length_error::`scalar deleting destructor'
EXTRN	??_Elength_error@std@@UAEPAXI@Z:NEAR		; std::length_error::`vector deleting destructor'
;	COMDAT ??_7length_error@std@@6B@
CONST	SEGMENT
??_7length_error@std@@6B@ DD FLAT:??_R4length_error@std@@6B@ ; std::length_error::`vftable'
	DD	FLAT:??_Elength_error@std@@UAEPAXI@Z
	DD	FLAT:?what@logic_error@std@@UBEPBDXZ
CONST	ENDS
;	COMDAT ??_R4length_error@std@@6B@
rdata$r	SEGMENT
??_R4length_error@std@@6B@ DD 00H			; std::length_error::`RTTI Complete Object Locator'
	DD	00H
	DD	00H
	DD	FLAT:??_R0?AVlength_error@std@@@8
	DD	FLAT:??_R3length_error@std@@8
rdata$r	ENDS
;	COMDAT ??_R3length_error@std@@8
rdata$r	SEGMENT
??_R3length_error@std@@8 DD 00H				; std::length_error::`RTTI Class Hierarchy Descriptor'
	DD	00H
	DD	03H
	DD	FLAT:??_R2length_error@std@@8
rdata$r	ENDS
;	COMDAT ??_R2length_error@std@@8
rdata$r	SEGMENT
??_R2length_error@std@@8 DD FLAT:??_R1A@?0A@A@length_error@std@@8 ; std::length_error::`RTTI Base Class Array'
	DD	FLAT:??_R1A@?0A@A@logic_error@std@@8
	DD	FLAT:??_R1A@?0A@A@exception@@8
rdata$r	ENDS
;	COMDAT ??_R1A@?0A@A@length_error@std@@8
rdata$r	SEGMENT
??_R1A@?0A@A@length_error@std@@8 DD FLAT:??_R0?AVlength_error@std@@@8 ; std::length_error::`RTTI Base Class Descriptor at (0,-1,0,0)'
	DD	02H
	DD	00H
	DD	0ffffffffH
	DD	00H
	DD	00H
rdata$r	ENDS
;	COMDAT ??_R1A@?0A@A@logic_error@std@@8
rdata$r	SEGMENT
??_R1A@?0A@A@logic_error@std@@8 DD FLAT:??_R0?AVlogic_error@std@@@8 ; std::logic_error::`RTTI Base Class Descriptor at (0,-1,0,0)'
	DD	01H
	DD	00H
	DD	0ffffffffH
	DD	00H
	DD	00H
rdata$r	ENDS
;	COMDAT ??_R1A@?0A@A@exception@@8
rdata$r	SEGMENT
??_R1A@?0A@A@exception@@8 DD FLAT:??_R0?AVexception@@@8	; exception::`RTTI Base Class Descriptor at (0,-1,0,0)'
	DD	00H
	DD	00H
	DD	0ffffffffH
	DD	00H
	DD	00H
; Function compile flags: /Odt /RTCsu
rdata$r	ENDS
;	COMDAT ??0length_error@std@@QAE@ABV01@@Z
_TEXT	SEGMENT
_this$ = -4						; size = 4
___that$ = 8						; size = 4
??0length_error@std@@QAE@ABV01@@Z PROC NEAR		; std::length_error::length_error, COMDAT
; _this$ = ecx
  00000	55		 push	 ebp
  00001	8b ec		 mov	 ebp, esp
  00003	51		 push	 ecx
  00004	c7 45 fc cc cc
	cc cc		 mov	 DWORD PTR [ebp-4], -858993460 ; ccccccccH
  0000b	89 4d fc	 mov	 DWORD PTR _this$[ebp], ecx
  0000e	8b 45 08	 mov	 eax, DWORD PTR ___that$[ebp]
  00011	50		 push	 eax
  00012	8b 4d fc	 mov	 ecx, DWORD PTR _this$[ebp]
  00015	e8 00 00 00 00	 call	 ??0logic_error@std@@QAE@ABV01@@Z
  0001a	8b 4d fc	 mov	 ecx, DWORD PTR _this$[ebp]
  0001d	c7 01 00 00 00
	00		 mov	 DWORD PTR [ecx], OFFSET FLAT:??_7length_error@std@@6B@
  00023	8b 45 fc	 mov	 eax, DWORD PTR _this$[ebp]
  00026	83 c4 04	 add	 esp, 4
  00029	3b ec		 cmp	 ebp, esp
  0002b	e8 00 00 00 00	 call	 __RTC_CheckEsp
  00030	8b e5		 mov	 esp, ebp
  00032	5d		 pop	 ebp
  00033	c2 04 00	 ret	 4
??0length_error@std@@QAE@ABV01@@Z ENDP			; std::length_error::length_error
; Function compile flags: /Odt /RTCsu
; File d:\program files (x86)\microsoft visual studio .net 2003\vc7\include\xmemory
_TEXT	ENDS
;	COMDAT ?max_size@?$allocator@V?$basic_string@DU?$char_traits@D@std@@V?$allocator@D@2@@std@@@std@@QBEIXZ
_TEXT	SEGMENT
tv65 = -12						; size = 4
__Count$ = -8						; size = 4
_this$ = -4						; size = 4
?max_size@?$allocator@V?$basic_string@DU?$char_traits@D@std@@V?$allocator@D@2@@std@@@std@@QBEIXZ PROC NEAR ; std::allocator<std::basic_string<char,std::char_traits<char>,std::allocator<char> > >::max_size, COMDAT
; _this$ = ecx

; 156  : 		{	// estimate maximum array size

  00000	55		 push	 ebp
  00001	8b ec		 mov	 ebp, esp
  00003	83 ec 0c	 sub	 esp, 12			; 0000000cH
  00006	c7 45 f4 cc cc
	cc cc		 mov	 DWORD PTR [ebp-12], -858993460 ; ccccccccH
  0000d	c7 45 f8 cc cc
	cc cc		 mov	 DWORD PTR [ebp-8], -858993460 ; ccccccccH
  00014	c7 45 fc cc cc
	cc cc		 mov	 DWORD PTR [ebp-4], -858993460 ; ccccccccH
  0001b	89 4d fc	 mov	 DWORD PTR _this$[ebp], ecx

; 157  : 		_SIZT _Count = (_SIZT)(-1) / sizeof (_Ty);

  0001e	c7 45 f8 49 92
	24 09		 mov	 DWORD PTR __Count$[ebp], 153391689 ; 09249249H

; 158  : 		return (0 < _Count ? _Count : 1);

  00025	83 7d f8 00	 cmp	 DWORD PTR __Count$[ebp], 0
  00029	76 08		 jbe	 SHORT $L191495
  0002b	8b 45 f8	 mov	 eax, DWORD PTR __Count$[ebp]
  0002e	89 45 f4	 mov	 DWORD PTR tv65[ebp], eax
  00031	eb 07		 jmp	 SHORT $L191496
$L191495:
  00033	c7 45 f4 01 00
	00 00		 mov	 DWORD PTR tv65[ebp], 1
$L191496:
  0003a	8b 45 f4	 mov	 eax, DWORD PTR tv65[ebp]

; 159  : 		}

  0003d	8b e5		 mov	 esp, ebp
  0003f	5d		 pop	 ebp
  00040	c3		 ret	 0
?max_size@?$allocator@V?$basic_string@DU?$char_traits@D@std@@V?$allocator@D@2@@std@@@std@@QBEIXZ ENDP ; std::allocator<std::basic_string<char,std::char_traits<char>,std::allocator<char> > >::max_size
; Function compile flags: /Odt /RTCsu
; File d:\program files (x86)\microsoft visual studio .net 2003\vc7\include\vector
_TEXT	ENDS
;	COMDAT ??0const_iterator@?$vector@V?$basic_string@DU?$char_traits@D@std@@V?$allocator@D@2@@std@@V?$allocator@V?$basic_string@DU?$char_traits@D@std@@V?$allocator@D@2@@std@@@2@@std@@QAE@PAV?$basic_string@DU?$char_traits@D@std@@V?$allocator@D@2@@2@@Z
_TEXT	SEGMENT
_this$ = -4						; size = 4
__Ptr$ = 8						; size = 4
??0const_iterator@?$vector@V?$basic_string@DU?$char_traits@D@std@@V?$allocator@D@2@@std@@V?$allocator@V?$basic_string@DU?$char_traits@D@std@@V?$allocator@D@2@@std@@@2@@std@@QAE@PAV?$basic_string@DU?$char_traits@D@std@@V?$allocator@D@2@@2@@Z PROC NEAR ; std::vector<std::basic_string<char,std::char_traits<char>,std::allocator<char> >,std::allocator<std::basic_string<char,std::char_traits<char>,std::allocator<char> > > >::const_iterator::const_iterator, COMDAT
; _this$ = ecx

; 73   : 		const_iterator(_Tptr _Ptr)

  00000	55		 push	 ebp
  00001	8b ec		 mov	 ebp, esp
  00003	51		 push	 ecx
  00004	c7 45 fc cc cc
	cc cc		 mov	 DWORD PTR [ebp-4], -858993460 ; ccccccccH
  0000b	89 4d fc	 mov	 DWORD PTR _this$[ebp], ecx

; 74   : 			{	// construct with pointer _Ptr
; 75   : 			_Myptr = _Ptr;

  0000e	8b 45 fc	 mov	 eax, DWORD PTR _this$[ebp]
  00011	8b 4d 08	 mov	 ecx, DWORD PTR __Ptr$[ebp]
  00014	89 08		 mov	 DWORD PTR [eax], ecx

; 76   : 			}

  00016	8b 45 fc	 mov	 eax, DWORD PTR _this$[ebp]
  00019	8b e5		 mov	 esp, ebp
  0001b	5d		 pop	 ebp
  0001c	c2 04 00	 ret	 4
??0const_iterator@?$vector@V?$basic_string@DU?$char_traits@D@std@@V?$allocator@D@2@@std@@V?$allocator@V?$basic_string@DU?$char_traits@D@std@@V?$allocator@D@2@@std@@@2@@std@@QAE@PAV?$basic_string@DU?$char_traits@D@std@@V?$allocator@D@2@@2@@Z ENDP ; std::vector<std::basic_string<char,std::char_traits<char>,std::allocator<char> >,std::allocator<std::basic_string<char,std::char_traits<char>,std::allocator<char> > > >::const_iterator::const_iterator
; Function compile flags: /Odt /RTCsu
_TEXT	ENDS
;	COMDAT ??Gconst_iterator@?$vector@V?$basic_string@DU?$char_traits@D@std@@V?$allocator@D@2@@std@@V?$allocator@V?$basic_string@DU?$char_traits@D@std@@V?$allocator@D@2@@std@@@2@@std@@QBEHABV012@@Z
_TEXT	SEGMENT
_this$ = -4						; size = 4
__Right$ = 8						; size = 4
??Gconst_iterator@?$vector@V?$basic_string@DU?$char_traits@D@std@@V?$allocator@D@2@@std@@V?$allocator@V?$basic_string@DU?$char_traits@D@std@@V?$allocator@D@2@@std@@@2@@std@@QBEHABV012@@Z PROC NEAR ; std::vector<std::basic_string<char,std::char_traits<char>,std::allocator<char> >,std::allocator<std::basic_string<char,std::char_traits<char>,std::allocator<char> > > >::const_iterator::operator-, COMDAT
; _this$ = ecx

; 140  : 			{	// return difference of iterators

  00000	55		 push	 ebp
  00001	8b ec		 mov	 ebp, esp
  00003	51		 push	 ecx
  00004	c7 45 fc cc cc
	cc cc		 mov	 DWORD PTR [ebp-4], -858993460 ; ccccccccH
  0000b	89 4d fc	 mov	 DWORD PTR _this$[ebp], ecx

; 141  : 
; 142  : 
; 143  : 			return (_Myptr - _Right._Myptr);

  0000e	8b 45 fc	 mov	 eax, DWORD PTR _this$[ebp]
  00011	8b 4d 08	 mov	 ecx, DWORD PTR __Right$[ebp]
  00014	8b 00		 mov	 eax, DWORD PTR [eax]
  00016	2b 01		 sub	 eax, DWORD PTR [ecx]
  00018	99		 cdq
  00019	b9 1c 00 00 00	 mov	 ecx, 28			; 0000001cH
  0001e	f7 f9		 idiv	 ecx

; 144  : 			}

  00020	8b e5		 mov	 esp, ebp
  00022	5d		 pop	 ebp
  00023	c2 04 00	 ret	 4
??Gconst_iterator@?$vector@V?$basic_string@DU?$char_traits@D@std@@V?$allocator@D@2@@std@@V?$allocator@V?$basic_string@DU?$char_traits@D@std@@V?$allocator@D@2@@std@@@2@@std@@QBEHABV012@@Z ENDP ; std::vector<std::basic_string<char,std::char_traits<char>,std::allocator<char> >,std::allocator<std::basic_string<char,std::char_traits<char>,std::allocator<char> > > >::const_iterator::operator-
_TEXT	ENDS
PUBLIC	??$_Ptr_cat@PAV?$basic_string@DU?$char_traits@D@std@@V?$allocator@D@2@@std@@PAV12@@std@@YA?AU_Nonscalar_ptr_iterator_tag@0@AAPAV?$basic_string@DU?$char_traits@D@std@@V?$allocator@D@2@@0@0@Z ; std::_Ptr_cat<std::basic_string<char,std::char_traits<char>,std::allocator<char> > *,std::basic_string<char,std::char_traits<char>,std::allocator<char> > *>
PUBLIC	??$_Uninit_fill_n@PAV?$basic_string@DU?$char_traits@D@std@@V?$allocator@D@2@@std@@IV12@V?$allocator@V?$basic_string@DU?$char_traits@D@std@@V?$allocator@D@2@@std@@@2@@std@@YAXPAV?$basic_string@DU?$char_traits@D@std@@V?$allocator@D@2@@0@IABV10@AAV?$allocator@V?$basic_string@DU?$char_traits@D@std@@V?$allocator@D@2@@std@@@0@U_Nonscalar_ptr_iterator_tag@0@@Z ; std::_Uninit_fill_n<std::basic_string<char,std::char_traits<char>,std::allocator<char> > *,unsigned int,std::basic_string<char,std::char_traits<char>,std::allocator<char> >,std::allocator<std::basic_string<char,std::char_traits<char>,std::allocator<char> > > >
; Function compile flags: /Odt /RTCsu
; File d:\program files (x86)\microsoft visual studio .net 2003\vc7\include\memory
;	COMDAT ??$_Uninitialized_fill_n@PAV?$basic_string@DU?$char_traits@D@std@@V?$allocator@D@2@@std@@IV12@V?$allocator@V?$basic_string@DU?$char_traits@D@std@@V?$allocator@D@2@@std@@@2@@std@@YAXPAV?$basic_string@DU?$char_traits@D@std@@V?$allocator@D@2@@0@IABV10@AAV?$allocator@V?$basic_string@DU?$char_traits@D@std@@V?$allocator@D@2@@std@@@0@@Z
_TEXT	SEGMENT
$T191500 = -1						; size = 1
__First$ = 8						; size = 4
__Count$ = 12						; size = 4
__Val$ = 16						; size = 4
__Al$ = 20						; size = 4
??$_Uninitialized_fill_n@PAV?$basic_string@DU?$char_traits@D@std@@V?$allocator@D@2@@std@@IV12@V?$allocator@V?$basic_string@DU?$char_traits@D@std@@V?$allocator@D@2@@std@@@2@@std@@YAXPAV?$basic_string@DU?$char_traits@D@std@@V?$allocator@D@2@@0@IABV10@AAV?$allocator@V?$basic_string@DU?$char_traits@D@std@@V?$allocator@D@2@@std@@@0@@Z PROC NEAR ; std::_Uninitialized_fill_n<std::basic_string<char,std::char_traits<char>,std::allocator<char> > *,unsigned int,std::basic_string<char,std::char_traits<char>,std::allocator<char> >,std::allocator<std::basic_string<char,std::char_traits<char>,std::allocator<char> > > >, COMDAT

; 255  : 	{	// copy _Count *_Val to raw _First, using _Al

  00000	55		 push	 ebp
  00001	8b ec		 mov	 ebp, esp
  00003	51		 push	 ecx
  00004	c7 45 fc cc cc
	cc cc		 mov	 DWORD PTR [ebp-4], -858993460 ; ccccccccH

; 256  : 	_Uninit_fill_n(_First, _Count, _Val, _Al,
; 257  : 		_Ptr_cat(_First, _First));

  0000b	8d 45 08	 lea	 eax, DWORD PTR __First$[ebp]
  0000e	50		 push	 eax
  0000f	8d 4d 08	 lea	 ecx, DWORD PTR __First$[ebp]
  00012	51		 push	 ecx
  00013	e8 00 00 00 00	 call	 ??$_Ptr_cat@PAV?$basic_string@DU?$char_traits@D@std@@V?$allocator@D@2@@std@@PAV12@@std@@YA?AU_Nonscalar_ptr_iterator_tag@0@AAPAV?$basic_string@DU?$char_traits@D@std@@V?$allocator@D@2@@0@0@Z ; std::_Ptr_cat<std::basic_string<char,std::char_traits<char>,std::allocator<char> > *,std::basic_string<char,std::char_traits<char>,std::allocator<char> > *>
  00018	83 c4 08	 add	 esp, 8
  0001b	88 45 ff	 mov	 BYTE PTR $T191500[ebp], al
  0001e	8a 55 ff	 mov	 dl, BYTE PTR $T191500[ebp]
  00021	52		 push	 edx
  00022	8b 45 14	 mov	 eax, DWORD PTR __Al$[ebp]
  00025	50		 push	 eax
  00026	8b 4d 10	 mov	 ecx, DWORD PTR __Val$[ebp]
  00029	51		 push	 ecx
  0002a	8b 55 0c	 mov	 edx, DWORD PTR __Count$[ebp]
  0002d	52		 push	 edx
  0002e	8b 45 08	 mov	 eax, DWORD PTR __First$[ebp]
  00031	50		 push	 eax
  00032	e8 00 00 00 00	 call	 ??$_Uninit_fill_n@PAV?$basic_string@DU?$char_traits@D@std@@V?$allocator@D@2@@std@@IV12@V?$allocator@V?$basic_string@DU?$char_traits@D@std@@V?$allocator@D@2@@std@@@2@@std@@YAXPAV?$basic_string@DU?$char_traits@D@std@@V?$allocator@D@2@@0@IABV10@AAV?$allocator@V?$basic_string@DU?$char_traits@D@std@@V?$allocator@D@2@@std@@@0@U_Nonscalar_ptr_iterator_tag@0@@Z ; std::_Uninit_fill_n<std::basic_string<char,std::char_traits<char>,std::allocator<char> > *,unsigned int,std::basic_string<char,std::char_traits<char>,std::allocator<char> >,std::allocator<std::basic_string<char,std::char_traits<char>,std::allocator<char> > > >
  00037	83 c4 14	 add	 esp, 20			; 00000014H

; 258  : 	}

  0003a	83 c4 04	 add	 esp, 4
  0003d	3b ec		 cmp	 ebp, esp
  0003f	e8 00 00 00 00	 call	 __RTC_CheckEsp
  00044	8b e5		 mov	 esp, ebp
  00046	5d		 pop	 ebp
  00047	c3		 ret	 0
??$_Uninitialized_fill_n@PAV?$basic_string@DU?$char_traits@D@std@@V?$allocator@D@2@@std@@IV12@V?$allocator@V?$basic_string@DU?$char_traits@D@std@@V?$allocator@D@2@@std@@@2@@std@@YAXPAV?$basic_string@DU?$char_traits@D@std@@V?$allocator@D@2@@0@IABV10@AAV?$allocator@V?$basic_string@DU?$char_traits@D@std@@V?$allocator@D@2@@std@@@0@@Z ENDP ; std::_Uninitialized_fill_n<std::basic_string<char,std::char_traits<char>,std::allocator<char> > *,unsigned int,std::basic_string<char,std::char_traits<char>,std::allocator<char> >,std::allocator<std::basic_string<char,std::char_traits<char>,std::allocator<char> > > >
; Function compile flags: /Odt /RTCsu
; File d:\program files (x86)\microsoft visual studio .net 2003\vc7\include\xmemory
_TEXT	ENDS
;	COMDAT ??$_Allocate@V?$basic_string@DU?$char_traits@D@std@@V?$allocator@D@2@@std@@@std@@YAPAV?$basic_string@DU?$char_traits@D@std@@V?$allocator@D@2@@0@IPAV10@@Z
_TEXT	SEGMENT
__Count$ = 8						; size = 4
___formal$ = 12						; size = 4
??$_Allocate@V?$basic_string@DU?$char_traits@D@std@@V?$allocator@D@2@@std@@@std@@YAPAV?$basic_string@DU?$char_traits@D@std@@V?$allocator@D@2@@0@IPAV10@@Z PROC NEAR ; std::_Allocate<std::basic_string<char,std::char_traits<char>,std::allocator<char> > >, COMDAT

; 33   : 	{	// allocate storage for _Count elements of type _Ty

  00000	55		 push	 ebp
  00001	8b ec		 mov	 ebp, esp

; 34   : 	return ((_Ty _FARQ *)operator new(_Count * sizeof (_Ty)));

  00003	8b 45 08	 mov	 eax, DWORD PTR __Count$[ebp]
  00006	6b c0 1c	 imul	 eax, 28			; 0000001cH
  00009	50		 push	 eax
  0000a	e8 00 00 00 00	 call	 ??2@YAPAXI@Z		; operator new
  0000f	83 c4 04	 add	 esp, 4

; 35   : 	}

  00012	3b ec		 cmp	 ebp, esp
  00014	e8 00 00 00 00	 call	 __RTC_CheckEsp
  00019	5d		 pop	 ebp
  0001a	c3		 ret	 0
??$_Allocate@V?$basic_string@DU?$char_traits@D@std@@V?$allocator@D@2@@std@@@std@@YAPAV?$basic_string@DU?$char_traits@D@std@@V?$allocator@D@2@@0@IPAV10@@Z ENDP ; std::_Allocate<std::basic_string<char,std::char_traits<char>,std::allocator<char> > >
_TEXT	ENDS
PUBLIC	??$_Destroy_range@V?$basic_string@DU?$char_traits@D@std@@V?$allocator@D@2@@std@@V?$allocator@V?$basic_string@DU?$char_traits@D@std@@V?$allocator@D@2@@std@@@2@@std@@YAXPAV?$basic_string@DU?$char_traits@D@std@@V?$allocator@D@2@@0@0AAV?$allocator@V?$basic_string@DU?$char_traits@D@std@@V?$allocator@D@2@@std@@@0@U_Nonscalar_ptr_iterator_tag@0@@Z ; std::_Destroy_range<std::basic_string<char,std::char_traits<char>,std::allocator<char> >,std::allocator<std::basic_string<char,std::char_traits<char>,std::allocator<char> > > >
; Function compile flags: /Odt /RTCsu
;	COMDAT ??$_Destroy_range@V?$basic_string@DU?$char_traits@D@std@@V?$allocator@D@2@@std@@V?$allocator@V?$basic_string@DU?$char_traits@D@std@@V?$allocator@D@2@@std@@@2@@std@@YAXPAV?$basic_string@DU?$char_traits@D@std@@V?$allocator@D@2@@0@0AAV?$allocator@V?$basic_string@DU?$char_traits@D@std@@V?$allocator@D@2@@std@@@0@@Z
_TEXT	SEGMENT
$T191503 = -1						; size = 1
__First$ = 8						; size = 4
__Last$ = 12						; size = 4
__Al$ = 16						; size = 4
??$_Destroy_range@V?$basic_string@DU?$char_traits@D@std@@V?$allocator@D@2@@std@@V?$allocator@V?$basic_string@DU?$char_traits@D@std@@V?$allocator@D@2@@std@@@2@@std@@YAXPAV?$basic_string@DU?$char_traits@D@std@@V?$allocator@D@2@@0@0AAV?$allocator@V?$basic_string@DU?$char_traits@D@std@@V?$allocator@D@2@@std@@@0@@Z PROC NEAR ; std::_Destroy_range<std::basic_string<char,std::char_traits<char>,std::allocator<char> >,std::allocator<std::basic_string<char,std::char_traits<char>,std::allocator<char> > > >, COMDAT

; 216  : 	{	// destroy [_First, _Last)

  00000	55		 push	 ebp
  00001	8b ec		 mov	 ebp, esp
  00003	51		 push	 ecx
  00004	c7 45 fc cc cc
	cc cc		 mov	 DWORD PTR [ebp-4], -858993460 ; ccccccccH

; 217  : 	_Destroy_range(_First, _Last, _Al, _Ptr_cat(_First, _Last));

  0000b	8d 45 0c	 lea	 eax, DWORD PTR __Last$[ebp]
  0000e	50		 push	 eax
  0000f	8d 4d 08	 lea	 ecx, DWORD PTR __First$[ebp]
  00012	51		 push	 ecx
  00013	e8 00 00 00 00	 call	 ??$_Ptr_cat@PAV?$basic_string@DU?$char_traits@D@std@@V?$allocator@D@2@@std@@PAV12@@std@@YA?AU_Nonscalar_ptr_iterator_tag@0@AAPAV?$basic_string@DU?$char_traits@D@std@@V?$allocator@D@2@@0@0@Z ; std::_Ptr_cat<std::basic_string<char,std::char_traits<char>,std::allocator<char> > *,std::basic_string<char,std::char_traits<char>,std::allocator<char> > *>
  00018	83 c4 08	 add	 esp, 8
  0001b	88 45 ff	 mov	 BYTE PTR $T191503[ebp], al
  0001e	8a 55 ff	 mov	 dl, BYTE PTR $T191503[ebp]
  00021	52		 push	 edx
  00022	8b 45 10	 mov	 eax, DWORD PTR __Al$[ebp]
  00025	50		 push	 eax
  00026	8b 4d 0c	 mov	 ecx, DWORD PTR __Last$[ebp]
  00029	51		 push	 ecx
  0002a	8b 55 08	 mov	 edx, DWORD PTR __First$[ebp]
  0002d	52		 push	 edx
  0002e	e8 00 00 00 00	 call	 ??$_Destroy_range@V?$basic_string@DU?$char_traits@D@std@@V?$allocator@D@2@@std@@V?$allocator@V?$basic_string@DU?$char_traits@D@std@@V?$allocator@D@2@@std@@@2@@std@@YAXPAV?$basic_string@DU?$char_traits@D@std@@V?$allocator@D@2@@0@0AAV?$allocator@V?$basic_string@DU?$char_traits@D@std@@V?$allocator@D@2@@std@@@0@U_Nonscalar_ptr_iterator_tag@0@@Z ; std::_Destroy_range<std::basic_string<char,std::char_traits<char>,std::allocator<char> >,std::allocator<std::basic_string<char,std::char_traits<char>,std::allocator<char> > > >
  00033	83 c4 10	 add	 esp, 16			; 00000010H

; 218  : 	}

  00036	83 c4 04	 add	 esp, 4
  00039	3b ec		 cmp	 ebp, esp
  0003b	e8 00 00 00 00	 call	 __RTC_CheckEsp
  00040	8b e5		 mov	 esp, ebp
  00042	5d		 pop	 ebp
  00043	c3		 ret	 0
??$_Destroy_range@V?$basic_string@DU?$char_traits@D@std@@V?$allocator@D@2@@std@@V?$allocator@V?$basic_string@DU?$char_traits@D@std@@V?$allocator@D@2@@std@@@2@@std@@YAXPAV?$basic_string@DU?$char_traits@D@std@@V?$allocator@D@2@@0@0AAV?$allocator@V?$basic_string@DU?$char_traits@D@std@@V?$allocator@D@2@@std@@@0@@Z ENDP ; std::_Destroy_range<std::basic_string<char,std::char_traits<char>,std::allocator<char> >,std::allocator<std::basic_string<char,std::char_traits<char>,std::allocator<char> > > >
_TEXT	ENDS
PUBLIC	??$_Uninitialized_copy@PAV?$basic_string@DU?$char_traits@D@std@@V?$allocator@D@2@@std@@PAV12@V?$allocator@V?$basic_string@DU?$char_traits@D@std@@V?$allocator@D@2@@std@@@2@@std@@YAPAV?$basic_string@DU?$char_traits@D@std@@V?$allocator@D@2@@0@PAV10@00AAV?$allocator@V?$basic_string@DU?$char_traits@D@std@@V?$allocator@D@2@@std@@@0@@Z ; std::_Uninitialized_copy<std::basic_string<char,std::char_traits<char>,std::allocator<char> > *,std::basic_string<char,std::char_traits<char>,std::allocator<char> > *,std::allocator<std::basic_string<char,std::char_traits<char>,std::allocator<char> > > >
; Function compile flags: /Odt /RTCsu
; File d:\program files (x86)\microsoft visual studio .net 2003\vc7\include\vector
;	COMDAT ??$_Ucopy@PAV?$basic_string@DU?$char_traits@D@std@@V?$allocator@D@2@@std@@@?$vector@V?$basic_string@DU?$char_traits@D@std@@V?$allocator@D@2@@std@@V?$allocator@V?$basic_string@DU?$char_traits@D@std@@V?$allocator@D@2@@std@@@2@@std@@IAEPAV?$basic_string@DU?$char_traits@D@std@@V?$allocator@D@2@@1@PAV21@00@Z
_TEXT	SEGMENT
_this$ = -4						; size = 4
__First$ = 8						; size = 4
__Last$ = 12						; size = 4
__Ptr$ = 16						; size = 4
??$_Ucopy@PAV?$basic_string@DU?$char_traits@D@std@@V?$allocator@D@2@@std@@@?$vector@V?$basic_string@DU?$char_traits@D@std@@V?$allocator@D@2@@std@@V?$allocator@V?$basic_string@DU?$char_traits@D@std@@V?$allocator@D@2@@std@@@2@@std@@IAEPAV?$basic_string@DU?$char_traits@D@std@@V?$allocator@D@2@@1@PAV21@00@Z PROC NEAR ; std::vector<std::basic_string<char,std::char_traits<char>,std::allocator<char> >,std::allocator<std::basic_string<char,std::char_traits<char>,std::allocator<char> > > >::_Ucopy<std::basic_string<char,std::char_traits<char>,std::allocator<char> > *>, COMDAT
; _this$ = ecx

; 801  : 		pointer _Ucopy(_Iter _First, _Iter _Last, pointer _Ptr)

  00000	55		 push	 ebp
  00001	8b ec		 mov	 ebp, esp
  00003	51		 push	 ecx
  00004	c7 45 fc cc cc
	cc cc		 mov	 DWORD PTR [ebp-4], -858993460 ; ccccccccH
  0000b	89 4d fc	 mov	 DWORD PTR _this$[ebp], ecx

; 802  : 		{	// copy initializing [_First, _Last), using allocator
; 803  : 		return (_Uninitialized_copy(_First, _Last,
; 804  : 			_Ptr, this->_Alval));

  0000e	8b 45 fc	 mov	 eax, DWORD PTR _this$[ebp]
  00011	50		 push	 eax
  00012	8b 4d 10	 mov	 ecx, DWORD PTR __Ptr$[ebp]
  00015	51		 push	 ecx
  00016	8b 55 0c	 mov	 edx, DWORD PTR __Last$[ebp]
  00019	52		 push	 edx
  0001a	8b 45 08	 mov	 eax, DWORD PTR __First$[ebp]
  0001d	50		 push	 eax
  0001e	e8 00 00 00 00	 call	 ??$_Uninitialized_copy@PAV?$basic_string@DU?$char_traits@D@std@@V?$allocator@D@2@@std@@PAV12@V?$allocator@V?$basic_string@DU?$char_traits@D@std@@V?$allocator@D@2@@std@@@2@@std@@YAPAV?$basic_string@DU?$char_traits@D@std@@V?$allocator@D@2@@0@PAV10@00AAV?$allocator@V?$basic_string@DU?$char_traits@D@std@@V?$allocator@D@2@@std@@@0@@Z ; std::_Uninitialized_copy<std::basic_string<char,std::char_traits<char>,std::allocator<char> > *,std::basic_string<char,std::char_traits<char>,std::allocator<char> > *,std::allocator<std::basic_string<char,std::char_traits<char>,std::allocator<char> > > >
  00023	83 c4 10	 add	 esp, 16			; 00000010H

; 805  : 		}

  00026	83 c4 04	 add	 esp, 4
  00029	3b ec		 cmp	 ebp, esp
  0002b	e8 00 00 00 00	 call	 __RTC_CheckEsp
  00030	8b e5		 mov	 esp, ebp
  00032	5d		 pop	 ebp
  00033	c2 0c 00	 ret	 12			; 0000000cH
??$_Ucopy@PAV?$basic_string@DU?$char_traits@D@std@@V?$allocator@D@2@@std@@@?$vector@V?$basic_string@DU?$char_traits@D@std@@V?$allocator@D@2@@std@@V?$allocator@V?$basic_string@DU?$char_traits@D@std@@V?$allocator@D@2@@std@@@2@@std@@IAEPAV?$basic_string@DU?$char_traits@D@std@@V?$allocator@D@2@@1@PAV21@00@Z ENDP ; std::vector<std::basic_string<char,std::char_traits<char>,std::allocator<char> >,std::allocator<std::basic_string<char,std::char_traits<char>,std::allocator<char> > > >::_Ucopy<std::basic_string<char,std::char_traits<char>,std::allocator<char> > *>
_TEXT	ENDS
EXTRN	__imp_??4?$basic_string@DU?$char_traits@D@std@@V?$allocator@D@2@@std@@QAEAAV01@ABV01@@Z:NEAR
; Function compile flags: /Odt /RTCsu
; File d:\program files (x86)\microsoft visual studio .net 2003\vc7\include\xutility
;	COMDAT ??$fill@PAV?$basic_string@DU?$char_traits@D@std@@V?$allocator@D@2@@std@@V12@@std@@YAXPAV?$basic_string@DU?$char_traits@D@std@@V?$allocator@D@2@@0@0ABV10@@Z
_TEXT	SEGMENT
__First$ = 8						; size = 4
__Last$ = 12						; size = 4
__Val$ = 16						; size = 4
??$fill@PAV?$basic_string@DU?$char_traits@D@std@@V?$allocator@D@2@@std@@V12@@std@@YAXPAV?$basic_string@DU?$char_traits@D@std@@V?$allocator@D@2@@0@0ABV10@@Z PROC NEAR ; std::fill<std::basic_string<char,std::char_traits<char>,std::allocator<char> > *,std::basic_string<char,std::char_traits<char>,std::allocator<char> > >, COMDAT

; 1134 : 	{	// copy _Val through [_First, _Last)

  00000	55		 push	 ebp
  00001	8b ec		 mov	 ebp, esp
  00003	56		 push	 esi

; 1135 : 	for (; _First != _Last; ++_First)

  00004	eb 09		 jmp	 SHORT $L190675
$L190676:
  00006	8b 45 08	 mov	 eax, DWORD PTR __First$[ebp]
  00009	83 c0 1c	 add	 eax, 28			; 0000001cH
  0000c	89 45 08	 mov	 DWORD PTR __First$[ebp], eax
$L190675:
  0000f	8b 4d 08	 mov	 ecx, DWORD PTR __First$[ebp]
  00012	3b 4d 0c	 cmp	 ecx, DWORD PTR __Last$[ebp]
  00015	74 18		 je	 SHORT $L190674

; 1136 : 		*_First = _Val;

  00017	8b f4		 mov	 esi, esp
  00019	8b 55 10	 mov	 edx, DWORD PTR __Val$[ebp]
  0001c	52		 push	 edx
  0001d	8b 4d 08	 mov	 ecx, DWORD PTR __First$[ebp]
  00020	ff 15 00 00 00
	00		 call	 DWORD PTR __imp_??4?$basic_string@DU?$char_traits@D@std@@V?$allocator@D@2@@std@@QAEAAV01@ABV01@@Z
  00026	3b f4		 cmp	 esi, esp
  00028	e8 00 00 00 00	 call	 __RTC_CheckEsp
  0002d	eb d7		 jmp	 SHORT $L190676
$L190674:

; 1137 : 	}

  0002f	5e		 pop	 esi
  00030	3b ec		 cmp	 ebp, esp
  00032	e8 00 00 00 00	 call	 __RTC_CheckEsp
  00037	5d		 pop	 ebp
  00038	c3		 ret	 0
??$fill@PAV?$basic_string@DU?$char_traits@D@std@@V?$allocator@D@2@@std@@V12@@std@@YAXPAV?$basic_string@DU?$char_traits@D@std@@V?$allocator@D@2@@0@0ABV10@@Z ENDP ; std::fill<std::basic_string<char,std::char_traits<char>,std::allocator<char> > *,std::basic_string<char,std::char_traits<char>,std::allocator<char> > >
_TEXT	ENDS
PUBLIC	??$_Copy_backward_opt@PAV?$basic_string@DU?$char_traits@D@std@@V?$allocator@D@2@@std@@PAV12@@std@@YAPAV?$basic_string@DU?$char_traits@D@std@@V?$allocator@D@2@@0@PAV10@00U_Nonscalar_ptr_iterator_tag@0@@Z ; std::_Copy_backward_opt<std::basic_string<char,std::char_traits<char>,std::allocator<char> > *,std::basic_string<char,std::char_traits<char>,std::allocator<char> > *>
; Function compile flags: /Odt /RTCsu
;	COMDAT ??$copy_backward@PAV?$basic_string@DU?$char_traits@D@std@@V?$allocator@D@2@@std@@PAV12@@std@@YAPAV?$basic_string@DU?$char_traits@D@std@@V?$allocator@D@2@@0@PAV10@00@Z
_TEXT	SEGMENT
$T191507 = -1						; size = 1
__First$ = 8						; size = 4
__Last$ = 12						; size = 4
__Dest$ = 16						; size = 4
??$copy_backward@PAV?$basic_string@DU?$char_traits@D@std@@V?$allocator@D@2@@std@@PAV12@@std@@YAPAV?$basic_string@DU?$char_traits@D@std@@V?$allocator@D@2@@0@PAV10@00@Z PROC NEAR ; std::copy_backward<std::basic_string<char,std::char_traits<char>,std::allocator<char> > *,std::basic_string<char,std::char_traits<char>,std::allocator<char> > *>, COMDAT

; 1067 : 	{	// copy [_First, _Last) backwards to [..., _Dest)

  00000	55		 push	 ebp
  00001	8b ec		 mov	 ebp, esp
  00003	51		 push	 ecx
  00004	c7 45 fc cc cc
	cc cc		 mov	 DWORD PTR [ebp-4], -858993460 ; ccccccccH

; 1068 : 	return (_Copy_backward_opt(_First, _Last, _Dest,
; 1069 : 		_Ptr_cat(_First, _Dest)));

  0000b	8d 45 10	 lea	 eax, DWORD PTR __Dest$[ebp]
  0000e	50		 push	 eax
  0000f	8d 4d 08	 lea	 ecx, DWORD PTR __First$[ebp]
  00012	51		 push	 ecx
  00013	e8 00 00 00 00	 call	 ??$_Ptr_cat@PAV?$basic_string@DU?$char_traits@D@std@@V?$allocator@D@2@@std@@PAV12@@std@@YA?AU_Nonscalar_ptr_iterator_tag@0@AAPAV?$basic_string@DU?$char_traits@D@std@@V?$allocator@D@2@@0@0@Z ; std::_Ptr_cat<std::basic_string<char,std::char_traits<char>,std::allocator<char> > *,std::basic_string<char,std::char_traits<char>,std::allocator<char> > *>
  00018	83 c4 08	 add	 esp, 8
  0001b	88 45 ff	 mov	 BYTE PTR $T191507[ebp], al
  0001e	8a 55 ff	 mov	 dl, BYTE PTR $T191507[ebp]
  00021	52		 push	 edx
  00022	8b 45 10	 mov	 eax, DWORD PTR __Dest$[ebp]
  00025	50		 push	 eax
  00026	8b 4d 0c	 mov	 ecx, DWORD PTR __Last$[ebp]
  00029	51		 push	 ecx
  0002a	8b 55 08	 mov	 edx, DWORD PTR __First$[ebp]
  0002d	52		 push	 edx
  0002e	e8 00 00 00 00	 call	 ??$_Copy_backward_opt@PAV?$basic_string@DU?$char_traits@D@std@@V?$allocator@D@2@@std@@PAV12@@std@@YAPAV?$basic_string@DU?$char_traits@D@std@@V?$allocator@D@2@@0@PAV10@00U_Nonscalar_ptr_iterator_tag@0@@Z ; std::_Copy_backward_opt<std::basic_string<char,std::char_traits<char>,std::allocator<char> > *,std::basic_string<char,std::char_traits<char>,std::allocator<char> > *>
  00033	83 c4 10	 add	 esp, 16			; 00000010H

; 1070 : 	}

  00036	83 c4 04	 add	 esp, 4
  00039	3b ec		 cmp	 ebp, esp
  0003b	e8 00 00 00 00	 call	 __RTC_CheckEsp
  00040	8b e5		 mov	 esp, ebp
  00042	5d		 pop	 ebp
  00043	c3		 ret	 0
??$copy_backward@PAV?$basic_string@DU?$char_traits@D@std@@V?$allocator@D@2@@std@@PAV12@@std@@YAPAV?$basic_string@DU?$char_traits@D@std@@V?$allocator@D@2@@0@PAV10@00@Z ENDP ; std::copy_backward<std::basic_string<char,std::char_traits<char>,std::allocator<char> > *,std::basic_string<char,std::char_traits<char>,std::allocator<char> > *>
; Function compile flags: /Odt /RTCsu
_TEXT	ENDS
;	COMDAT ??$_Ptr_cat@PAV?$basic_string@DU?$char_traits@D@std@@V?$allocator@D@2@@std@@PAV12@@std@@YA?AU_Nonscalar_ptr_iterator_tag@0@AAPAV?$basic_string@DU?$char_traits@D@std@@V?$allocator@D@2@@0@0@Z
_TEXT	SEGMENT
__Cat$ = -5						; size = 1
___formal$ = 8						; size = 4
___formal$ = 12						; size = 4
??$_Ptr_cat@PAV?$basic_string@DU?$char_traits@D@std@@V?$allocator@D@2@@std@@PAV12@@std@@YA?AU_Nonscalar_ptr_iterator_tag@0@AAPAV?$basic_string@DU?$char_traits@D@std@@V?$allocator@D@2@@0@0@Z PROC NEAR ; std::_Ptr_cat<std::basic_string<char,std::char_traits<char>,std::allocator<char> > *,std::basic_string<char,std::char_traits<char>,std::allocator<char> > *>, COMDAT

; 211  : 	{	// return pointer category from arbitrary arguments

  00000	55		 push	 ebp
  00001	8b ec		 mov	 ebp, esp
  00003	83 ec 0c	 sub	 esp, 12			; 0000000cH
  00006	c7 45 f4 cc cc
	cc cc		 mov	 DWORD PTR [ebp-12], -858993460 ; ccccccccH
  0000d	c7 45 f8 cc cc
	cc cc		 mov	 DWORD PTR [ebp-8], -858993460 ; ccccccccH
  00014	c7 45 fc cc cc
	cc cc		 mov	 DWORD PTR [ebp-4], -858993460 ; ccccccccH

; 212  : 	_Nonscalar_ptr_iterator_tag _Cat;
; 213  : 	return (_Cat);

  0001b	8a 45 fb	 mov	 al, BYTE PTR __Cat$[ebp]

; 214  : 	}

  0001e	52		 push	 edx
  0001f	8b cd		 mov	 ecx, ebp
  00021	50		 push	 eax
  00022	8d 15 00 00 00
	00		 lea	 edx, DWORD PTR $L191511
  00028	e8 00 00 00 00	 call	 @_RTC_CheckStackVars@8
  0002d	58		 pop	 eax
  0002e	5a		 pop	 edx
  0002f	8b e5		 mov	 esp, ebp
  00031	5d		 pop	 ebp
  00032	c3		 ret	 0
$L191511:
  00033	01 00 00 00	 DD	 1
  00037	00 00 00 00	 DD	 $L191510
$L191510:
  0003b	fb ff ff ff	 DD	 -5			; fffffffbH
  0003f	01 00 00 00	 DD	 1
  00043	00 00 00 00	 DD	 $L191509
$L191509:
  00047	5f		 DB	 95			; 0000005fH
  00048	43		 DB	 67			; 00000043H
  00049	61		 DB	 97			; 00000061H
  0004a	74		 DB	 116			; 00000074H
  0004b	00		 DB	 0
??$_Ptr_cat@PAV?$basic_string@DU?$char_traits@D@std@@V?$allocator@D@2@@std@@PAV12@@std@@YA?AU_Nonscalar_ptr_iterator_tag@0@AAPAV?$basic_string@DU?$char_traits@D@std@@V?$allocator@D@2@@0@0@Z ENDP ; std::_Ptr_cat<std::basic_string<char,std::char_traits<char>,std::allocator<char> > *,std::basic_string<char,std::char_traits<char>,std::allocator<char> > *>
_TEXT	ENDS
PUBLIC	?construct@?$allocator@V?$basic_string@DU?$char_traits@D@std@@V?$allocator@D@2@@std@@@std@@QAEXPAV?$basic_string@DU?$char_traits@D@std@@V?$allocator@D@2@@2@ABV32@@Z ; std::allocator<std::basic_string<char,std::char_traits<char>,std::allocator<char> > >::construct
PUBLIC	?destroy@?$allocator@V?$basic_string@DU?$char_traits@D@std@@V?$allocator@D@2@@std@@@std@@QAEXPAV?$basic_string@DU?$char_traits@D@std@@V?$allocator@D@2@@2@@Z ; std::allocator<std::basic_string<char,std::char_traits<char>,std::allocator<char> > >::destroy
;	COMDAT xdata$x
; File d:\program files (x86)\microsoft visual studio .net 2003\vc7\include\memory
xdata$x	SEGMENT
$T191518 DD	0ffffffffH
	DD	00H
	DD	0ffffffffH
	DD	00H
$T191520 DD	00H
	DD	00H
	DD	00H
	DD	FLAT:$L191514
$T191519 DD	00H
	DD	00H
	DD	01H
	DD	01H
	DD	FLAT:$T191520
$T191516 DD	019930520H
	DD	02H
	DD	FLAT:$T191518
	DD	01H
	DD	FLAT:$T191519
	DD	2 DUP(00H)
; Function compile flags: /Odt /RTCsu
xdata$x	ENDS
;	COMDAT ??$_Uninit_fill_n@PAV?$basic_string@DU?$char_traits@D@std@@V?$allocator@D@2@@std@@IV12@V?$allocator@V?$basic_string@DU?$char_traits@D@std@@V?$allocator@D@2@@std@@@2@@std@@YAXPAV?$basic_string@DU?$char_traits@D@std@@V?$allocator@D@2@@0@IABV10@AAV?$allocator@V?$basic_string@DU?$char_traits@D@std@@V?$allocator@D@2@@std@@@0@U_Nonscalar_ptr_iterator_tag@0@@Z
_TEXT	SEGMENT
__Next$ = -20						; size = 4
__$EHRec$ = -16						; size = 16
__First$ = 8						; size = 4
__Count$ = 12						; size = 4
__Val$ = 16						; size = 4
__Al$ = 20						; size = 4
___formal$ = 24						; size = 1
??$_Uninit_fill_n@PAV?$basic_string@DU?$char_traits@D@std@@V?$allocator@D@2@@std@@IV12@V?$allocator@V?$basic_string@DU?$char_traits@D@std@@V?$allocator@D@2@@std@@@2@@std@@YAXPAV?$basic_string@DU?$char_traits@D@std@@V?$allocator@D@2@@0@IABV10@AAV?$allocator@V?$basic_string@DU?$char_traits@D@std@@V?$allocator@D@2@@std@@@0@U_Nonscalar_ptr_iterator_tag@0@@Z PROC NEAR ; std::_Uninit_fill_n<std::basic_string<char,std::char_traits<char>,std::allocator<char> > *,unsigned int,std::basic_string<char,std::char_traits<char>,std::allocator<char> >,std::allocator<std::basic_string<char,std::char_traits<char>,std::allocator<char> > > >, COMDAT

; 207  : 	{	// copy _Count *_Val to raw _First, using _Al, arbitrary type

  00000	55		 push	 ebp
  00001	8b ec		 mov	 ebp, esp
  00003	6a ff		 push	 -1
  00005	68 00 00 00 00	 push	 __ehhandler$??$_Uninit_fill_n@PAV?$basic_string@DU?$char_traits@D@std@@V?$allocator@D@2@@std@@IV12@V?$allocator@V?$basic_string@DU?$char_traits@D@std@@V?$allocator@D@2@@std@@@2@@std@@YAXPAV?$basic_string@DU?$char_traits@D@std@@V?$allocator@D@2@@0@IABV10@AAV?$allocator@V?$basic_string@DU?$char_traits@D@std@@V?$allocator@D@2@@std@@@0@U_Nonscalar_ptr_iterator_tag@0@@Z
  0000a	64 a1 00 00 00
	00		 mov	 eax, DWORD PTR fs:__except_list
  00010	50		 push	 eax
  00011	64 89 25 00 00
	00 00		 mov	 DWORD PTR fs:__except_list, esp
  00018	51		 push	 ecx
  00019	51		 push	 ecx
  0001a	53		 push	 ebx
  0001b	56		 push	 esi
  0001c	57		 push	 edi
  0001d	c7 45 ec cc cc
	cc cc		 mov	 DWORD PTR [ebp-20], -858993460 ; ccccccccH
  00024	89 65 f0	 mov	 DWORD PTR __$EHRec$[ebp], esp

; 208  : 	_FwdIt _Next = _First;

  00027	8b 45 08	 mov	 eax, DWORD PTR __First$[ebp]
  0002a	89 45 ec	 mov	 DWORD PTR __Next$[ebp], eax

; 209  : 
; 210  : 	_TRY_BEGIN

  0002d	c7 45 fc 00 00
	00 00		 mov	 DWORD PTR __$EHRec$[ebp+12], 0

; 211  : 	for (; 0 < _Count; --_Count, ++_First)

  00034	eb 12		 jmp	 SHORT $L190831
$L190832:
  00036	8b 4d 0c	 mov	 ecx, DWORD PTR __Count$[ebp]
  00039	83 e9 01	 sub	 ecx, 1
  0003c	89 4d 0c	 mov	 DWORD PTR __Count$[ebp], ecx
  0003f	8b 55 08	 mov	 edx, DWORD PTR __First$[ebp]
  00042	83 c2 1c	 add	 edx, 28			; 0000001cH
  00045	89 55 08	 mov	 DWORD PTR __First$[ebp], edx
$L190831:
  00048	83 7d 0c 00	 cmp	 DWORD PTR __Count$[ebp], 0
  0004c	76 12		 jbe	 SHORT $L190833

; 212  : 		_Al.construct(_First, _Val);

  0004e	8b 45 10	 mov	 eax, DWORD PTR __Val$[ebp]
  00051	50		 push	 eax
  00052	8b 4d 08	 mov	 ecx, DWORD PTR __First$[ebp]
  00055	51		 push	 ecx
  00056	8b 4d 14	 mov	 ecx, DWORD PTR __Al$[ebp]
  00059	e8 00 00 00 00	 call	 ?construct@?$allocator@V?$basic_string@DU?$char_traits@D@std@@V?$allocator@D@2@@std@@@std@@QAEXPAV?$basic_string@DU?$char_traits@D@std@@V?$allocator@D@2@@2@ABV32@@Z ; std::allocator<std::basic_string<char,std::char_traits<char>,std::allocator<char> > >::construct
  0005e	eb d6		 jmp	 SHORT $L190832
$L190833:
  00060	eb 2a		 jmp	 SHORT $L191513
$L191514:

; 213  : 	_CATCH_ALL
; 214  : 	for (; _Next != _First; ++_Next)

  00062	eb 09		 jmp	 SHORT $L190834
$L190835:
  00064	8b 55 ec	 mov	 edx, DWORD PTR __Next$[ebp]
  00067	83 c2 1c	 add	 edx, 28			; 0000001cH
  0006a	89 55 ec	 mov	 DWORD PTR __Next$[ebp], edx
$L190834:
  0006d	8b 45 ec	 mov	 eax, DWORD PTR __Next$[ebp]
  00070	3b 45 08	 cmp	 eax, DWORD PTR __First$[ebp]
  00073	74 0e		 je	 SHORT $L190836

; 215  : 		_Al.destroy(_Next);

  00075	8b 4d ec	 mov	 ecx, DWORD PTR __Next$[ebp]
  00078	51		 push	 ecx
  00079	8b 4d 14	 mov	 ecx, DWORD PTR __Al$[ebp]
  0007c	e8 00 00 00 00	 call	 ?destroy@?$allocator@V?$basic_string@DU?$char_traits@D@std@@V?$allocator@D@2@@std@@@std@@QAEXPAV?$basic_string@DU?$char_traits@D@std@@V?$allocator@D@2@@2@@Z ; std::allocator<std::basic_string<char,std::char_traits<char>,std::allocator<char> > >::destroy
  00081	eb e1		 jmp	 SHORT $L190835
$L190836:

; 216  : 	_RERAISE;

  00083	6a 00		 push	 0
  00085	6a 00		 push	 0
  00087	e8 00 00 00 00	 call	 __CxxThrowException@8
$L191513:

; 217  : 	_CATCH_END

  0008c	c7 45 fc ff ff
	ff ff		 mov	 DWORD PTR __$EHRec$[ebp+12], -1
$L191512:

; 218  : 	}

  00093	8b 4d f4	 mov	 ecx, DWORD PTR __$EHRec$[ebp+4]
  00096	64 89 0d 00 00
	00 00		 mov	 DWORD PTR fs:__except_list, ecx
  0009d	5f		 pop	 edi
  0009e	5e		 pop	 esi
  0009f	5b		 pop	 ebx
  000a0	83 c4 14	 add	 esp, 20			; 00000014H
  000a3	3b ec		 cmp	 ebp, esp
  000a5	e8 00 00 00 00	 call	 __RTC_CheckEsp
  000aa	8b e5		 mov	 esp, ebp
  000ac	5d		 pop	 ebp
  000ad	c3		 ret	 0
_TEXT	ENDS
;	COMDAT text$x
text$x	SEGMENT
__ehhandler$??$_Uninit_fill_n@PAV?$basic_string@DU?$char_traits@D@std@@V?$allocator@D@2@@std@@IV12@V?$allocator@V?$basic_string@DU?$char_traits@D@std@@V?$allocator@D@2@@std@@@2@@std@@YAXPAV?$basic_string@DU?$char_traits@D@std@@V?$allocator@D@2@@0@IABV10@AAV?$allocator@V?$basic_string@DU?$char_traits@D@std@@V?$allocator@D@2@@std@@@0@U_Nonscalar_ptr_iterator_tag@0@@Z:
  00000	b8 00 00 00 00	 mov	 eax, OFFSET FLAT:$T191516
  00005	e9 00 00 00 00	 jmp	 ___CxxFrameHandler
text$x	ENDS
??$_Uninit_fill_n@PAV?$basic_string@DU?$char_traits@D@std@@V?$allocator@D@2@@std@@IV12@V?$allocator@V?$basic_string@DU?$char_traits@D@std@@V?$allocator@D@2@@std@@@2@@std@@YAXPAV?$basic_string@DU?$char_traits@D@std@@V?$allocator@D@2@@0@IABV10@AAV?$allocator@V?$basic_string@DU?$char_traits@D@std@@V?$allocator@D@2@@std@@@0@U_Nonscalar_ptr_iterator_tag@0@@Z ENDP ; std::_Uninit_fill_n<std::basic_string<char,std::char_traits<char>,std::allocator<char> > *,unsigned int,std::basic_string<char,std::char_traits<char>,std::allocator<char> >,std::allocator<std::basic_string<char,std::char_traits<char>,std::allocator<char> > > >
; Function compile flags: /Odt /RTCsu
; File d:\program files (x86)\microsoft visual studio .net 2003\vc7\include\xmemory
;	COMDAT ??$_Destroy_range@V?$basic_string@DU?$char_traits@D@std@@V?$allocator@D@2@@std@@V?$allocator@V?$basic_string@DU?$char_traits@D@std@@V?$allocator@D@2@@std@@@2@@std@@YAXPAV?$basic_string@DU?$char_traits@D@std@@V?$allocator@D@2@@0@0AAV?$allocator@V?$basic_string@DU?$char_traits@D@std@@V?$allocator@D@2@@std@@@0@U_Nonscalar_ptr_iterator_tag@0@@Z
_TEXT	SEGMENT
__First$ = 8						; size = 4
__Last$ = 12						; size = 4
__Al$ = 16						; size = 4
___formal$ = 20						; size = 1
??$_Destroy_range@V?$basic_string@DU?$char_traits@D@std@@V?$allocator@D@2@@std@@V?$allocator@V?$basic_string@DU?$char_traits@D@std@@V?$allocator@D@2@@std@@@2@@std@@YAXPAV?$basic_string@DU?$char_traits@D@std@@V?$allocator@D@2@@0@0AAV?$allocator@V?$basic_string@DU?$char_traits@D@std@@V?$allocator@D@2@@std@@@0@U_Nonscalar_ptr_iterator_tag@0@@Z PROC NEAR ; std::_Destroy_range<std::basic_string<char,std::char_traits<char>,std::allocator<char> >,std::allocator<std::basic_string<char,std::char_traits<char>,std::allocator<char> > > >, COMDAT

; 224  : 	{	// destroy [_First, _Last), arbitrary type

  00000	55		 push	 ebp
  00001	8b ec		 mov	 ebp, esp

; 225  : 	for (; _First != _Last; ++_First)

  00003	eb 09		 jmp	 SHORT $L190838
$L190839:
  00005	8b 45 08	 mov	 eax, DWORD PTR __First$[ebp]
  00008	83 c0 1c	 add	 eax, 28			; 0000001cH
  0000b	89 45 08	 mov	 DWORD PTR __First$[ebp], eax
$L190838:
  0000e	8b 4d 08	 mov	 ecx, DWORD PTR __First$[ebp]
  00011	3b 4d 0c	 cmp	 ecx, DWORD PTR __Last$[ebp]
  00014	74 0e		 je	 SHORT $L190837

; 226  : 		_Al.destroy(_First);

  00016	8b 55 08	 mov	 edx, DWORD PTR __First$[ebp]
  00019	52		 push	 edx
  0001a	8b 4d 10	 mov	 ecx, DWORD PTR __Al$[ebp]
  0001d	e8 00 00 00 00	 call	 ?destroy@?$allocator@V?$basic_string@DU?$char_traits@D@std@@V?$allocator@D@2@@std@@@std@@QAEXPAV?$basic_string@DU?$char_traits@D@std@@V?$allocator@D@2@@2@@Z ; std::allocator<std::basic_string<char,std::char_traits<char>,std::allocator<char> > >::destroy
  00022	eb e1		 jmp	 SHORT $L190839
$L190837:

; 227  : 	}

  00024	3b ec		 cmp	 ebp, esp
  00026	e8 00 00 00 00	 call	 __RTC_CheckEsp
  0002b	5d		 pop	 ebp
  0002c	c3		 ret	 0
??$_Destroy_range@V?$basic_string@DU?$char_traits@D@std@@V?$allocator@D@2@@std@@V?$allocator@V?$basic_string@DU?$char_traits@D@std@@V?$allocator@D@2@@std@@@2@@std@@YAXPAV?$basic_string@DU?$char_traits@D@std@@V?$allocator@D@2@@0@0AAV?$allocator@V?$basic_string@DU?$char_traits@D@std@@V?$allocator@D@2@@std@@@0@U_Nonscalar_ptr_iterator_tag@0@@Z ENDP ; std::_Destroy_range<std::basic_string<char,std::char_traits<char>,std::allocator<char> >,std::allocator<std::basic_string<char,std::char_traits<char>,std::allocator<char> > > >
_TEXT	ENDS
PUBLIC	??$_Uninit_copy@PAV?$basic_string@DU?$char_traits@D@std@@V?$allocator@D@2@@std@@PAV12@V?$allocator@V?$basic_string@DU?$char_traits@D@std@@V?$allocator@D@2@@std@@@2@@std@@YAPAV?$basic_string@DU?$char_traits@D@std@@V?$allocator@D@2@@0@PAV10@00AAV?$allocator@V?$basic_string@DU?$char_traits@D@std@@V?$allocator@D@2@@std@@@0@U_Nonscalar_ptr_iterator_tag@0@@Z ; std::_Uninit_copy<std::basic_string<char,std::char_traits<char>,std::allocator<char> > *,std::basic_string<char,std::char_traits<char>,std::allocator<char> > *,std::allocator<std::basic_string<char,std::char_traits<char>,std::allocator<char> > > >
; Function compile flags: /Odt /RTCsu
; File d:\program files (x86)\microsoft visual studio .net 2003\vc7\include\memory
;	COMDAT ??$_Uninitialized_copy@PAV?$basic_string@DU?$char_traits@D@std@@V?$allocator@D@2@@std@@PAV12@V?$allocator@V?$basic_string@DU?$char_traits@D@std@@V?$allocator@D@2@@std@@@2@@std@@YAPAV?$basic_string@DU?$char_traits@D@std@@V?$allocator@D@2@@0@PAV10@00AAV?$allocator@V?$basic_string@DU?$char_traits@D@std@@V?$allocator@D@2@@std@@@0@@Z
_TEXT	SEGMENT
$T191525 = -1						; size = 1
__First$ = 8						; size = 4
__Last$ = 12						; size = 4
__Dest$ = 16						; size = 4
__Al$ = 20						; size = 4
??$_Uninitialized_copy@PAV?$basic_string@DU?$char_traits@D@std@@V?$allocator@D@2@@std@@PAV12@V?$allocator@V?$basic_string@DU?$char_traits@D@std@@V?$allocator@D@2@@std@@@2@@std@@YAPAV?$basic_string@DU?$char_traits@D@std@@V?$allocator@D@2@@0@PAV10@00AAV?$allocator@V?$basic_string@DU?$char_traits@D@std@@V?$allocator@D@2@@std@@@0@@Z PROC NEAR ; std::_Uninitialized_copy<std::basic_string<char,std::char_traits<char>,std::allocator<char> > *,std::basic_string<char,std::char_traits<char>,std::allocator<char> > *,std::allocator<std::basic_string<char,std::char_traits<char>,std::allocator<char> > > >, COMDAT

; 126  : 	{	// copy [_First, _Last) to raw _Dest, using _Al

  00000	55		 push	 ebp
  00001	8b ec		 mov	 ebp, esp
  00003	51		 push	 ecx
  00004	c7 45 fc cc cc
	cc cc		 mov	 DWORD PTR [ebp-4], -858993460 ; ccccccccH

; 127  : 	return (_Uninit_copy(_First, _Last, _Dest, _Al,
; 128  : 		_Ptr_cat(_First, _Dest)));

  0000b	8d 45 10	 lea	 eax, DWORD PTR __Dest$[ebp]
  0000e	50		 push	 eax
  0000f	8d 4d 08	 lea	 ecx, DWORD PTR __First$[ebp]
  00012	51		 push	 ecx
  00013	e8 00 00 00 00	 call	 ??$_Ptr_cat@PAV?$basic_string@DU?$char_traits@D@std@@V?$allocator@D@2@@std@@PAV12@@std@@YA?AU_Nonscalar_ptr_iterator_tag@0@AAPAV?$basic_string@DU?$char_traits@D@std@@V?$allocator@D@2@@0@0@Z ; std::_Ptr_cat<std::basic_string<char,std::char_traits<char>,std::allocator<char> > *,std::basic_string<char,std::char_traits<char>,std::allocator<char> > *>
  00018	83 c4 08	 add	 esp, 8
  0001b	88 45 ff	 mov	 BYTE PTR $T191525[ebp], al
  0001e	8a 55 ff	 mov	 dl, BYTE PTR $T191525[ebp]
  00021	52		 push	 edx
  00022	8b 45 14	 mov	 eax, DWORD PTR __Al$[ebp]
  00025	50		 push	 eax
  00026	8b 4d 10	 mov	 ecx, DWORD PTR __Dest$[ebp]
  00029	51		 push	 ecx
  0002a	8b 55 0c	 mov	 edx, DWORD PTR __Last$[ebp]
  0002d	52		 push	 edx
  0002e	8b 45 08	 mov	 eax, DWORD PTR __First$[ebp]
  00031	50		 push	 eax
  00032	e8 00 00 00 00	 call	 ??$_Uninit_copy@PAV?$basic_string@DU?$char_traits@D@std@@V?$allocator@D@2@@std@@PAV12@V?$allocator@V?$basic_string@DU?$char_traits@D@std@@V?$allocator@D@2@@std@@@2@@std@@YAPAV?$basic_string@DU?$char_traits@D@std@@V?$allocator@D@2@@0@PAV10@00AAV?$allocator@V?$basic_string@DU?$char_traits@D@std@@V?$allocator@D@2@@std@@@0@U_Nonscalar_ptr_iterator_tag@0@@Z ; std::_Uninit_copy<std::basic_string<char,std::char_traits<char>,std::allocator<char> > *,std::basic_string<char,std::char_traits<char>,std::allocator<char> > *,std::allocator<std::basic_string<char,std::char_traits<char>,std::allocator<char> > > >
  00037	83 c4 14	 add	 esp, 20			; 00000014H

; 129  : 	}

  0003a	83 c4 04	 add	 esp, 4
  0003d	3b ec		 cmp	 ebp, esp
  0003f	e8 00 00 00 00	 call	 __RTC_CheckEsp
  00044	8b e5		 mov	 esp, ebp
  00046	5d		 pop	 ebp
  00047	c3		 ret	 0
??$_Uninitialized_copy@PAV?$basic_string@DU?$char_traits@D@std@@V?$allocator@D@2@@std@@PAV12@V?$allocator@V?$basic_string@DU?$char_traits@D@std@@V?$allocator@D@2@@std@@@2@@std@@YAPAV?$basic_string@DU?$char_traits@D@std@@V?$allocator@D@2@@0@PAV10@00AAV?$allocator@V?$basic_string@DU?$char_traits@D@std@@V?$allocator@D@2@@std@@@0@@Z ENDP ; std::_Uninitialized_copy<std::basic_string<char,std::char_traits<char>,std::allocator<char> > *,std::basic_string<char,std::char_traits<char>,std::allocator<char> > *,std::allocator<std::basic_string<char,std::char_traits<char>,std::allocator<char> > > >
; Function compile flags: /Odt /RTCsu
; File d:\program files (x86)\microsoft visual studio .net 2003\vc7\include\xutility
_TEXT	ENDS
;	COMDAT ??$_Copy_backward_opt@PAV?$basic_string@DU?$char_traits@D@std@@V?$allocator@D@2@@std@@PAV12@@std@@YAPAV?$basic_string@DU?$char_traits@D@std@@V?$allocator@D@2@@0@PAV10@00U_Nonscalar_ptr_iterator_tag@0@@Z
_TEXT	SEGMENT
__First$ = 8						; size = 4
__Last$ = 12						; size = 4
__Dest$ = 16						; size = 4
___formal$ = 20						; size = 1
??$_Copy_backward_opt@PAV?$basic_string@DU?$char_traits@D@std@@V?$allocator@D@2@@std@@PAV12@@std@@YAPAV?$basic_string@DU?$char_traits@D@std@@V?$allocator@D@2@@0@PAV10@00U_Nonscalar_ptr_iterator_tag@0@@Z PROC NEAR ; std::_Copy_backward_opt<std::basic_string<char,std::char_traits<char>,std::allocator<char> > *,std::basic_string<char,std::char_traits<char>,std::allocator<char> > *>, COMDAT

; 1048 : 	{	// copy [_First, _Last) backwards to [..., _Dest), arbitrary iterators

  00000	55		 push	 ebp
  00001	8b ec		 mov	 ebp, esp
  00003	56		 push	 esi
$L190883:

; 1049 : 	while (_First != _Last)

  00004	8b 45 08	 mov	 eax, DWORD PTR __First$[ebp]
  00007	3b 45 0c	 cmp	 eax, DWORD PTR __Last$[ebp]
  0000a	74 2a		 je	 SHORT $L190884

; 1050 : 		*--_Dest = *--_Last;

  0000c	8b 4d 0c	 mov	 ecx, DWORD PTR __Last$[ebp]
  0000f	83 e9 1c	 sub	 ecx, 28			; 0000001cH
  00012	89 4d 0c	 mov	 DWORD PTR __Last$[ebp], ecx
  00015	8b 55 10	 mov	 edx, DWORD PTR __Dest$[ebp]
  00018	83 ea 1c	 sub	 edx, 28			; 0000001cH
  0001b	89 55 10	 mov	 DWORD PTR __Dest$[ebp], edx
  0001e	8b f4		 mov	 esi, esp
  00020	8b 45 0c	 mov	 eax, DWORD PTR __Last$[ebp]
  00023	50		 push	 eax
  00024	8b 4d 10	 mov	 ecx, DWORD PTR __Dest$[ebp]
  00027	ff 15 00 00 00
	00		 call	 DWORD PTR __imp_??4?$basic_string@DU?$char_traits@D@std@@V?$allocator@D@2@@std@@QAEAAV01@ABV01@@Z
  0002d	3b f4		 cmp	 esi, esp
  0002f	e8 00 00 00 00	 call	 __RTC_CheckEsp
  00034	eb ce		 jmp	 SHORT $L190883
$L190884:

; 1051 : 	return (_Dest);

  00036	8b 45 10	 mov	 eax, DWORD PTR __Dest$[ebp]

; 1052 : 	}

  00039	5e		 pop	 esi
  0003a	3b ec		 cmp	 ebp, esp
  0003c	e8 00 00 00 00	 call	 __RTC_CheckEsp
  00041	5d		 pop	 ebp
  00042	c3		 ret	 0
??$_Copy_backward_opt@PAV?$basic_string@DU?$char_traits@D@std@@V?$allocator@D@2@@std@@PAV12@@std@@YAPAV?$basic_string@DU?$char_traits@D@std@@V?$allocator@D@2@@0@PAV10@00U_Nonscalar_ptr_iterator_tag@0@@Z ENDP ; std::_Copy_backward_opt<std::basic_string<char,std::char_traits<char>,std::allocator<char> > *,std::basic_string<char,std::char_traits<char>,std::allocator<char> > *>
_TEXT	ENDS
PUBLIC	??$_Construct@V?$basic_string@DU?$char_traits@D@std@@V?$allocator@D@2@@std@@V12@@std@@YAXPAV?$basic_string@DU?$char_traits@D@std@@V?$allocator@D@2@@0@ABV10@@Z ; std::_Construct<std::basic_string<char,std::char_traits<char>,std::allocator<char> >,std::basic_string<char,std::char_traits<char>,std::allocator<char> > >
; Function compile flags: /Odt /RTCsu
; File d:\program files (x86)\microsoft visual studio .net 2003\vc7\include\xmemory
;	COMDAT ?construct@?$allocator@V?$basic_string@DU?$char_traits@D@std@@V?$allocator@D@2@@std@@@std@@QAEXPAV?$basic_string@DU?$char_traits@D@std@@V?$allocator@D@2@@2@ABV32@@Z
_TEXT	SEGMENT
_this$ = -4						; size = 4
__Ptr$ = 8						; size = 4
__Val$ = 12						; size = 4
?construct@?$allocator@V?$basic_string@DU?$char_traits@D@std@@V?$allocator@D@2@@std@@@std@@QAEXPAV?$basic_string@DU?$char_traits@D@std@@V?$allocator@D@2@@2@ABV32@@Z PROC NEAR ; std::allocator<std::basic_string<char,std::char_traits<char>,std::allocator<char> > >::construct, COMDAT
; _this$ = ecx

; 146  : 		{	// construct object at _Ptr with value _Val

  00000	55		 push	 ebp
  00001	8b ec		 mov	 ebp, esp
  00003	51		 push	 ecx
  00004	c7 45 fc cc cc
	cc cc		 mov	 DWORD PTR [ebp-4], -858993460 ; ccccccccH
  0000b	89 4d fc	 mov	 DWORD PTR _this$[ebp], ecx

; 147  : 		_Construct(_Ptr, _Val);

  0000e	8b 45 0c	 mov	 eax, DWORD PTR __Val$[ebp]
  00011	50		 push	 eax
  00012	8b 4d 08	 mov	 ecx, DWORD PTR __Ptr$[ebp]
  00015	51		 push	 ecx
  00016	e8 00 00 00 00	 call	 ??$_Construct@V?$basic_string@DU?$char_traits@D@std@@V?$allocator@D@2@@std@@V12@@std@@YAXPAV?$basic_string@DU?$char_traits@D@std@@V?$allocator@D@2@@0@ABV10@@Z ; std::_Construct<std::basic_string<char,std::char_traits<char>,std::allocator<char> >,std::basic_string<char,std::char_traits<char>,std::allocator<char> > >
  0001b	83 c4 08	 add	 esp, 8

; 148  : 		}

  0001e	83 c4 04	 add	 esp, 4
  00021	3b ec		 cmp	 ebp, esp
  00023	e8 00 00 00 00	 call	 __RTC_CheckEsp
  00028	8b e5		 mov	 esp, ebp
  0002a	5d		 pop	 ebp
  0002b	c2 08 00	 ret	 8
?construct@?$allocator@V?$basic_string@DU?$char_traits@D@std@@V?$allocator@D@2@@std@@@std@@QAEXPAV?$basic_string@DU?$char_traits@D@std@@V?$allocator@D@2@@2@ABV32@@Z ENDP ; std::allocator<std::basic_string<char,std::char_traits<char>,std::allocator<char> > >::construct
_TEXT	ENDS
PUBLIC	??$_Destroy@V?$basic_string@DU?$char_traits@D@std@@V?$allocator@D@2@@std@@@std@@YAXPAV?$basic_string@DU?$char_traits@D@std@@V?$allocator@D@2@@0@@Z ; std::_Destroy<std::basic_string<char,std::char_traits<char>,std::allocator<char> > >
; Function compile flags: /Odt /RTCsu
;	COMDAT ?destroy@?$allocator@V?$basic_string@DU?$char_traits@D@std@@V?$allocator@D@2@@std@@@std@@QAEXPAV?$basic_string@DU?$char_traits@D@std@@V?$allocator@D@2@@2@@Z
_TEXT	SEGMENT
_this$ = -4						; size = 4
__Ptr$ = 8						; size = 4
?destroy@?$allocator@V?$basic_string@DU?$char_traits@D@std@@V?$allocator@D@2@@std@@@std@@QAEXPAV?$basic_string@DU?$char_traits@D@std@@V?$allocator@D@2@@2@@Z PROC NEAR ; std::allocator<std::basic_string<char,std::char_traits<char>,std::allocator<char> > >::destroy, COMDAT
; _this$ = ecx

; 151  : 		{	// destroy object at _Ptr

  00000	55		 push	 ebp
  00001	8b ec		 mov	 ebp, esp
  00003	51		 push	 ecx
  00004	c7 45 fc cc cc
	cc cc		 mov	 DWORD PTR [ebp-4], -858993460 ; ccccccccH
  0000b	89 4d fc	 mov	 DWORD PTR _this$[ebp], ecx

; 152  : 		_Destroy(_Ptr);

  0000e	8b 45 08	 mov	 eax, DWORD PTR __Ptr$[ebp]
  00011	50		 push	 eax
  00012	e8 00 00 00 00	 call	 ??$_Destroy@V?$basic_string@DU?$char_traits@D@std@@V?$allocator@D@2@@std@@@std@@YAXPAV?$basic_string@DU?$char_traits@D@std@@V?$allocator@D@2@@0@@Z ; std::_Destroy<std::basic_string<char,std::char_traits<char>,std::allocator<char> > >
  00017	83 c4 04	 add	 esp, 4

; 153  : 		}

  0001a	83 c4 04	 add	 esp, 4
  0001d	3b ec		 cmp	 ebp, esp
  0001f	e8 00 00 00 00	 call	 __RTC_CheckEsp
  00024	8b e5		 mov	 esp, ebp
  00026	5d		 pop	 ebp
  00027	c2 04 00	 ret	 4
?destroy@?$allocator@V?$basic_string@DU?$char_traits@D@std@@V?$allocator@D@2@@std@@@std@@QAEXPAV?$basic_string@DU?$char_traits@D@std@@V?$allocator@D@2@@2@@Z ENDP ; std::allocator<std::basic_string<char,std::char_traits<char>,std::allocator<char> > >::destroy
_TEXT	ENDS
;	COMDAT xdata$x
; File d:\program files (x86)\microsoft visual studio .net 2003\vc7\include\memory
xdata$x	SEGMENT
$T191535 DD	0ffffffffH
	DD	00H
	DD	0ffffffffH
	DD	00H
$T191537 DD	00H
	DD	00H
	DD	00H
	DD	FLAT:$L191531
$T191536 DD	00H
	DD	00H
	DD	01H
	DD	01H
	DD	FLAT:$T191537
$T191533 DD	019930520H
	DD	02H
	DD	FLAT:$T191535
	DD	01H
	DD	FLAT:$T191536
	DD	2 DUP(00H)
; Function compile flags: /Odt /RTCsu
xdata$x	ENDS
;	COMDAT ??$_Uninit_copy@PAV?$basic_string@DU?$char_traits@D@std@@V?$allocator@D@2@@std@@PAV12@V?$allocator@V?$basic_string@DU?$char_traits@D@std@@V?$allocator@D@2@@std@@@2@@std@@YAPAV?$basic_string@DU?$char_traits@D@std@@V?$allocator@D@2@@0@PAV10@00AAV?$allocator@V?$basic_string@DU?$char_traits@D@std@@V?$allocator@D@2@@std@@@0@U_Nonscalar_ptr_iterator_tag@0@@Z
_TEXT	SEGMENT
__Next$ = -20						; size = 4
__$EHRec$ = -16						; size = 16
__First$ = 8						; size = 4
__Last$ = 12						; size = 4
__Dest$ = 16						; size = 4
__Al$ = 20						; size = 4
___formal$ = 24						; size = 1
??$_Uninit_copy@PAV?$basic_string@DU?$char_traits@D@std@@V?$allocator@D@2@@std@@PAV12@V?$allocator@V?$basic_string@DU?$char_traits@D@std@@V?$allocator@D@2@@std@@@2@@std@@YAPAV?$basic_string@DU?$char_traits@D@std@@V?$allocator@D@2@@0@PAV10@00AAV?$allocator@V?$basic_string@DU?$char_traits@D@std@@V?$allocator@D@2@@std@@@0@U_Nonscalar_ptr_iterator_tag@0@@Z PROC NEAR ; std::_Uninit_copy<std::basic_string<char,std::char_traits<char>,std::allocator<char> > *,std::basic_string<char,std::char_traits<char>,std::allocator<char> > *,std::allocator<std::basic_string<char,std::char_traits<char>,std::allocator<char> > > >, COMDAT

; 77   : 	{	// copy [_First, _Last) to raw _Dest, using _Al, arbitrary type

  00000	55		 push	 ebp
  00001	8b ec		 mov	 ebp, esp
  00003	6a ff		 push	 -1
  00005	68 00 00 00 00	 push	 __ehhandler$??$_Uninit_copy@PAV?$basic_string@DU?$char_traits@D@std@@V?$allocator@D@2@@std@@PAV12@V?$allocator@V?$basic_string@DU?$char_traits@D@std@@V?$allocator@D@2@@std@@@2@@std@@YAPAV?$basic_string@DU?$char_traits@D@std@@V?$allocator@D@2@@0@PAV10@00AAV?$allocator@V?$basic_string@DU?$char_traits@D@std@@V?$allocator@D@2@@std@@@0@U_Nonscalar_ptr_iterator_tag@0@@Z
  0000a	64 a1 00 00 00
	00		 mov	 eax, DWORD PTR fs:__except_list
  00010	50		 push	 eax
  00011	64 89 25 00 00
	00 00		 mov	 DWORD PTR fs:__except_list, esp
  00018	51		 push	 ecx
  00019	51		 push	 ecx
  0001a	53		 push	 ebx
  0001b	56		 push	 esi
  0001c	57		 push	 edi
  0001d	c7 45 ec cc cc
	cc cc		 mov	 DWORD PTR [ebp-20], -858993460 ; ccccccccH
  00024	89 65 f0	 mov	 DWORD PTR __$EHRec$[ebp], esp

; 78   : 	_FwdIt _Next = _Dest;

  00027	8b 45 10	 mov	 eax, DWORD PTR __Dest$[ebp]
  0002a	89 45 ec	 mov	 DWORD PTR __Next$[ebp], eax

; 79   : 
; 80   : 	_TRY_BEGIN

  0002d	c7 45 fc 00 00
	00 00		 mov	 DWORD PTR __$EHRec$[ebp+12], 0

; 81   : 	for (; _First != _Last; ++_Dest, ++_First)

  00034	eb 12		 jmp	 SHORT $L190902
$L190903:
  00036	8b 4d 10	 mov	 ecx, DWORD PTR __Dest$[ebp]
  00039	83 c1 1c	 add	 ecx, 28			; 0000001cH
  0003c	89 4d 10	 mov	 DWORD PTR __Dest$[ebp], ecx
  0003f	8b 55 08	 mov	 edx, DWORD PTR __First$[ebp]
  00042	83 c2 1c	 add	 edx, 28			; 0000001cH
  00045	89 55 08	 mov	 DWORD PTR __First$[ebp], edx
$L190902:
  00048	8b 45 08	 mov	 eax, DWORD PTR __First$[ebp]
  0004b	3b 45 0c	 cmp	 eax, DWORD PTR __Last$[ebp]
  0004e	74 12		 je	 SHORT $L190904

; 82   : 		_Al.construct(_Dest, *_First);

  00050	8b 4d 08	 mov	 ecx, DWORD PTR __First$[ebp]
  00053	51		 push	 ecx
  00054	8b 55 10	 mov	 edx, DWORD PTR __Dest$[ebp]
  00057	52		 push	 edx
  00058	8b 4d 14	 mov	 ecx, DWORD PTR __Al$[ebp]
  0005b	e8 00 00 00 00	 call	 ?construct@?$allocator@V?$basic_string@DU?$char_traits@D@std@@V?$allocator@D@2@@std@@@std@@QAEXPAV?$basic_string@DU?$char_traits@D@std@@V?$allocator@D@2@@2@ABV32@@Z ; std::allocator<std::basic_string<char,std::char_traits<char>,std::allocator<char> > >::construct
  00060	eb d4		 jmp	 SHORT $L190903
$L190904:
  00062	eb 2a		 jmp	 SHORT $L191530
$L191531:

; 83   : 	_CATCH_ALL
; 84   : 	for (; _Next != _Dest; ++_Next)

  00064	eb 09		 jmp	 SHORT $L190905
$L190906:
  00066	8b 45 ec	 mov	 eax, DWORD PTR __Next$[ebp]
  00069	83 c0 1c	 add	 eax, 28			; 0000001cH
  0006c	89 45 ec	 mov	 DWORD PTR __Next$[ebp], eax
$L190905:
  0006f	8b 4d ec	 mov	 ecx, DWORD PTR __Next$[ebp]
  00072	3b 4d 10	 cmp	 ecx, DWORD PTR __Dest$[ebp]
  00075	74 0e		 je	 SHORT $L190907

; 85   : 		_Al.destroy(_Next);

  00077	8b 55 ec	 mov	 edx, DWORD PTR __Next$[ebp]
  0007a	52		 push	 edx
  0007b	8b 4d 14	 mov	 ecx, DWORD PTR __Al$[ebp]
  0007e	e8 00 00 00 00	 call	 ?destroy@?$allocator@V?$basic_string@DU?$char_traits@D@std@@V?$allocator@D@2@@std@@@std@@QAEXPAV?$basic_string@DU?$char_traits@D@std@@V?$allocator@D@2@@2@@Z ; std::allocator<std::basic_string<char,std::char_traits<char>,std::allocator<char> > >::destroy
  00083	eb e1		 jmp	 SHORT $L190906
$L190907:

; 86   : 	_RERAISE;

  00085	6a 00		 push	 0
  00087	6a 00		 push	 0
  00089	e8 00 00 00 00	 call	 __CxxThrowException@8
$L191530:

; 87   : 	_CATCH_END

  0008e	c7 45 fc ff ff
	ff ff		 mov	 DWORD PTR __$EHRec$[ebp+12], -1

; 88   : 	return (_Dest);

  00095	8b 45 10	 mov	 eax, DWORD PTR __Dest$[ebp]
$L191529:

; 89   : 	}

  00098	8b 4d f4	 mov	 ecx, DWORD PTR __$EHRec$[ebp+4]
  0009b	64 89 0d 00 00
	00 00		 mov	 DWORD PTR fs:__except_list, ecx
  000a2	5f		 pop	 edi
  000a3	5e		 pop	 esi
  000a4	5b		 pop	 ebx
  000a5	83 c4 14	 add	 esp, 20			; 00000014H
  000a8	3b ec		 cmp	 ebp, esp
  000aa	e8 00 00 00 00	 call	 __RTC_CheckEsp
  000af	8b e5		 mov	 esp, ebp
  000b1	5d		 pop	 ebp
  000b2	c3		 ret	 0
_TEXT	ENDS
;	COMDAT text$x
text$x	SEGMENT
__ehhandler$??$_Uninit_copy@PAV?$basic_string@DU?$char_traits@D@std@@V?$allocator@D@2@@std@@PAV12@V?$allocator@V?$basic_string@DU?$char_traits@D@std@@V?$allocator@D@2@@std@@@2@@std@@YAPAV?$basic_string@DU?$char_traits@D@std@@V?$allocator@D@2@@0@PAV10@00AAV?$allocator@V?$basic_string@DU?$char_traits@D@std@@V?$allocator@D@2@@std@@@0@U_Nonscalar_ptr_iterator_tag@0@@Z:
  00000	b8 00 00 00 00	 mov	 eax, OFFSET FLAT:$T191533
  00005	e9 00 00 00 00	 jmp	 ___CxxFrameHandler
text$x	ENDS
??$_Uninit_copy@PAV?$basic_string@DU?$char_traits@D@std@@V?$allocator@D@2@@std@@PAV12@V?$allocator@V?$basic_string@DU?$char_traits@D@std@@V?$allocator@D@2@@std@@@2@@std@@YAPAV?$basic_string@DU?$char_traits@D@std@@V?$allocator@D@2@@0@PAV10@00AAV?$allocator@V?$basic_string@DU?$char_traits@D@std@@V?$allocator@D@2@@std@@@0@U_Nonscalar_ptr_iterator_tag@0@@Z ENDP ; std::_Uninit_copy<std::basic_string<char,std::char_traits<char>,std::allocator<char> > *,std::basic_string<char,std::char_traits<char>,std::allocator<char> > *,std::allocator<std::basic_string<char,std::char_traits<char>,std::allocator<char> > > >
PUBLIC	??2@YAPAXIPAX@Z					; operator new
PUBLIC	??3@YAXPAX0@Z					; operator delete
;	COMDAT xdata$x
; File d:\program files (x86)\microsoft visual studio .net 2003\vc7\include\xmemory
xdata$x	SEGMENT
$T191549 DD	0ffffffffH
	DD	FLAT:$L191545
$T191547 DD	019930520H
	DD	01H
	DD	FLAT:$T191549
	DD	2 DUP(00H)
	DD	2 DUP(00H)
; Function compile flags: /Odt /RTCsu
xdata$x	ENDS
;	COMDAT ??$_Construct@V?$basic_string@DU?$char_traits@D@std@@V?$allocator@D@2@@std@@V12@@std@@YAXPAV?$basic_string@DU?$char_traits@D@std@@V?$allocator@D@2@@0@ABV10@@Z
_TEXT	SEGMENT
tv74 = -24						; size = 4
$T191542 = -20						; size = 4
$T191541 = -16						; size = 4
__$EHRec$ = -12						; size = 12
__Ptr$ = 8						; size = 4
__Val$ = 12						; size = 4
??$_Construct@V?$basic_string@DU?$char_traits@D@std@@V?$allocator@D@2@@std@@V12@@std@@YAXPAV?$basic_string@DU?$char_traits@D@std@@V?$allocator@D@2@@0@ABV10@@Z PROC NEAR ; std::_Construct<std::basic_string<char,std::char_traits<char>,std::allocator<char> >,std::basic_string<char,std::char_traits<char>,std::allocator<char> > >, COMDAT

; 41   : 	{	// construct object at _Ptr with value _Val

  00000	55		 push	 ebp
  00001	8b ec		 mov	 ebp, esp
  00003	6a ff		 push	 -1
  00005	68 00 00 00 00	 push	 __ehhandler$??$_Construct@V?$basic_string@DU?$char_traits@D@std@@V?$allocator@D@2@@std@@V12@@std@@YAXPAV?$basic_string@DU?$char_traits@D@std@@V?$allocator@D@2@@0@ABV10@@Z
  0000a	64 a1 00 00 00
	00		 mov	 eax, DWORD PTR fs:__except_list
  00010	50		 push	 eax
  00011	64 89 25 00 00
	00 00		 mov	 DWORD PTR fs:__except_list, esp
  00018	83 ec 0c	 sub	 esp, 12			; 0000000cH
  0001b	56		 push	 esi
  0001c	c7 45 e8 cc cc
	cc cc		 mov	 DWORD PTR [ebp-24], -858993460 ; ccccccccH
  00023	c7 45 ec cc cc
	cc cc		 mov	 DWORD PTR [ebp-20], -858993460 ; ccccccccH
  0002a	c7 45 f0 cc cc
	cc cc		 mov	 DWORD PTR [ebp-16], -858993460 ; ccccccccH

; 42   : 	new ((void _FARQ *)_Ptr) _T1(_Val);

  00031	8b 45 08	 mov	 eax, DWORD PTR __Ptr$[ebp]
  00034	50		 push	 eax
  00035	6a 1c		 push	 28			; 0000001cH
  00037	e8 00 00 00 00	 call	 ??2@YAPAXIPAX@Z		; operator new
  0003c	83 c4 08	 add	 esp, 8
  0003f	89 45 ec	 mov	 DWORD PTR $T191542[ebp], eax
  00042	c7 45 fc 00 00
	00 00		 mov	 DWORD PTR __$EHRec$[ebp+8], 0
  00049	83 7d ec 00	 cmp	 DWORD PTR $T191542[ebp], 0
  0004d	74 1b		 je	 SHORT $L191543
  0004f	8b f4		 mov	 esi, esp
  00051	8b 4d 0c	 mov	 ecx, DWORD PTR __Val$[ebp]
  00054	51		 push	 ecx
  00055	8b 4d ec	 mov	 ecx, DWORD PTR $T191542[ebp]
  00058	ff 15 00 00 00
	00		 call	 DWORD PTR __imp_??0?$basic_string@DU?$char_traits@D@std@@V?$allocator@D@2@@std@@QAE@ABV01@@Z
  0005e	3b f4		 cmp	 esi, esp
  00060	e8 00 00 00 00	 call	 __RTC_CheckEsp
  00065	89 45 e8	 mov	 DWORD PTR tv74[ebp], eax
  00068	eb 07		 jmp	 SHORT $L191544
$L191543:
  0006a	c7 45 e8 00 00
	00 00		 mov	 DWORD PTR tv74[ebp], 0
$L191544:
  00071	8b 55 e8	 mov	 edx, DWORD PTR tv74[ebp]
  00074	89 55 f0	 mov	 DWORD PTR $T191541[ebp], edx
  00077	c7 45 fc ff ff
	ff ff		 mov	 DWORD PTR __$EHRec$[ebp+8], -1

; 43   : 	}

  0007e	8b 4d f4	 mov	 ecx, DWORD PTR __$EHRec$[ebp]
  00081	64 89 0d 00 00
	00 00		 mov	 DWORD PTR fs:__except_list, ecx
  00088	5e		 pop	 esi
  00089	83 c4 18	 add	 esp, 24			; 00000018H
  0008c	3b ec		 cmp	 ebp, esp
  0008e	e8 00 00 00 00	 call	 __RTC_CheckEsp
  00093	8b e5		 mov	 esp, ebp
  00095	5d		 pop	 ebp
  00096	c3		 ret	 0
_TEXT	ENDS
;	COMDAT text$x
text$x	SEGMENT
$L191545:
  00000	8b 45 08	 mov	 eax, DWORD PTR __Ptr$[ebp]
  00003	50		 push	 eax
  00004	8b 4d ec	 mov	 ecx, DWORD PTR $T191542[ebp]
  00007	51		 push	 ecx
  00008	e8 00 00 00 00	 call	 ??3@YAXPAX0@Z		; operator delete
  0000d	83 c4 08	 add	 esp, 8
  00010	c3		 ret	 0
__ehhandler$??$_Construct@V?$basic_string@DU?$char_traits@D@std@@V?$allocator@D@2@@std@@V12@@std@@YAXPAV?$basic_string@DU?$char_traits@D@std@@V?$allocator@D@2@@0@ABV10@@Z:
  00011	b8 00 00 00 00	 mov	 eax, OFFSET FLAT:$T191547
  00016	e9 00 00 00 00	 jmp	 ___CxxFrameHandler
text$x	ENDS
??$_Construct@V?$basic_string@DU?$char_traits@D@std@@V?$allocator@D@2@@std@@V12@@std@@YAXPAV?$basic_string@DU?$char_traits@D@std@@V?$allocator@D@2@@0@ABV10@@Z ENDP ; std::_Construct<std::basic_string<char,std::char_traits<char>,std::allocator<char> >,std::basic_string<char,std::char_traits<char>,std::allocator<char> > >
; Function compile flags: /Odt /RTCsu
; File d:\program files (x86)\microsoft visual studio .net 2003\vc7\include\new.h
;	COMDAT ??2@YAPAXIPAX@Z
_TEXT	SEGMENT
___formal$ = 8						; size = 4
__P$ = 12						; size = 4
??2@YAPAXIPAX@Z PROC NEAR				; operator new, COMDAT

; 109  :         {return (_P); }

  00000	55		 push	 ebp
  00001	8b ec		 mov	 ebp, esp
  00003	8b 45 0c	 mov	 eax, DWORD PTR __P$[ebp]
  00006	5d		 pop	 ebp
  00007	c3		 ret	 0
??2@YAPAXIPAX@Z ENDP					; operator new
; Function compile flags: /Odt /RTCsu
_TEXT	ENDS
;	COMDAT ??3@YAXPAX0@Z
_TEXT	SEGMENT
___formal$ = 8						; size = 4
___formal$ = 12						; size = 4
??3@YAXPAX0@Z PROC NEAR					; operator delete, COMDAT

; 112  :         {return; }

  00000	55		 push	 ebp
  00001	8b ec		 mov	 ebp, esp
  00003	5d		 pop	 ebp
  00004	c3		 ret	 0
??3@YAXPAX0@Z ENDP					; operator delete
_TEXT	ENDS
PUBLIC	??_G?$basic_string@DU?$char_traits@D@std@@V?$allocator@D@2@@std@@QAEPAXI@Z ; std::basic_string<char,std::char_traits<char>,std::allocator<char> >::`scalar deleting destructor'
; Function compile flags: /Odt /RTCsu
; File d:\program files (x86)\microsoft visual studio .net 2003\vc7\include\xmemory
;	COMDAT ??$_Destroy@V?$basic_string@DU?$char_traits@D@std@@V?$allocator@D@2@@std@@@std@@YAXPAV?$basic_string@DU?$char_traits@D@std@@V?$allocator@D@2@@0@@Z
_TEXT	SEGMENT
__Ptr$ = 8						; size = 4
??$_Destroy@V?$basic_string@DU?$char_traits@D@std@@V?$allocator@D@2@@std@@@std@@YAXPAV?$basic_string@DU?$char_traits@D@std@@V?$allocator@D@2@@0@@Z PROC NEAR ; std::_Destroy<std::basic_string<char,std::char_traits<char>,std::allocator<char> > >, COMDAT

; 48   : 	{	// destroy object at _Ptr

  00000	55		 push	 ebp
  00001	8b ec		 mov	 ebp, esp

; 49   : 	_DESTRUCTOR(_Ty, _Ptr);

  00003	6a 00		 push	 0
  00005	8b 4d 08	 mov	 ecx, DWORD PTR __Ptr$[ebp]
  00008	e8 00 00 00 00	 call	 ??_G?$basic_string@DU?$char_traits@D@std@@V?$allocator@D@2@@std@@QAEPAXI@Z

; 50   : 	}

  0000d	3b ec		 cmp	 ebp, esp
  0000f	e8 00 00 00 00	 call	 __RTC_CheckEsp
  00014	5d		 pop	 ebp
  00015	c3		 ret	 0
??$_Destroy@V?$basic_string@DU?$char_traits@D@std@@V?$allocator@D@2@@std@@@std@@YAXPAV?$basic_string@DU?$char_traits@D@std@@V?$allocator@D@2@@0@@Z ENDP ; std::_Destroy<std::basic_string<char,std::char_traits<char>,std::allocator<char> > >
; Function compile flags: /Odt /RTCsu
_TEXT	ENDS
;	COMDAT ??_G?$basic_string@DU?$char_traits@D@std@@V?$allocator@D@2@@std@@QAEPAXI@Z
_TEXT	SEGMENT
_this$ = -4						; size = 4
___flags$ = 8						; size = 4
??_G?$basic_string@DU?$char_traits@D@std@@V?$allocator@D@2@@std@@QAEPAXI@Z PROC NEAR ; std::basic_string<char,std::char_traits<char>,std::allocator<char> >::`scalar deleting destructor', COMDAT
; _this$ = ecx
  00000	55		 push	 ebp
  00001	8b ec		 mov	 ebp, esp
  00003	51		 push	 ecx
  00004	56		 push	 esi
  00005	c7 45 fc cc cc
	cc cc		 mov	 DWORD PTR [ebp-4], -858993460 ; ccccccccH
  0000c	89 4d fc	 mov	 DWORD PTR _this$[ebp], ecx
  0000f	8b f4		 mov	 esi, esp
  00011	8b 4d fc	 mov	 ecx, DWORD PTR _this$[ebp]
  00014	ff 15 00 00 00
	00		 call	 DWORD PTR __imp_??1?$basic_string@DU?$char_traits@D@std@@V?$allocator@D@2@@std@@QAE@XZ
  0001a	3b f4		 cmp	 esi, esp
  0001c	e8 00 00 00 00	 call	 __RTC_CheckEsp
  00021	8b 45 08	 mov	 eax, DWORD PTR ___flags$[ebp]
  00024	83 e0 01	 and	 eax, 1
  00027	74 0c		 je	 SHORT $L190919
  00029	8b 4d fc	 mov	 ecx, DWORD PTR _this$[ebp]
  0002c	51		 push	 ecx
  0002d	e8 00 00 00 00	 call	 ??3@YAXPAX@Z		; operator delete
  00032	83 c4 04	 add	 esp, 4
$L190919:
  00035	8b 45 fc	 mov	 eax, DWORD PTR _this$[ebp]
  00038	5e		 pop	 esi
  00039	83 c4 04	 add	 esp, 4
  0003c	3b ec		 cmp	 ebp, esp
  0003e	e8 00 00 00 00	 call	 __RTC_CheckEsp
  00043	8b e5		 mov	 esp, ebp
  00045	5d		 pop	 ebp
  00046	c2 04 00	 ret	 4
??_G?$basic_string@DU?$char_traits@D@std@@V?$allocator@D@2@@std@@QAEPAXI@Z ENDP ; std::basic_string<char,std::char_traits<char>,std::allocator<char> >::`scalar deleting destructor'
_TEXT	ENDS
EXTRN	__imp_?c_str@?$basic_string@DU?$char_traits@D@std@@V?$allocator@D@2@@std@@QBEPBDXZ:NEAR
; Function compile flags: /Odt /RTCsu
; File d:\program files (x86)\microsoft visual studio .net 2003\vc7\include\stdexcept
;	COMDAT ?what@logic_error@std@@UBEPBDXZ
_TEXT	SEGMENT
_this$ = -4						; size = 4
?what@logic_error@std@@UBEPBDXZ PROC NEAR		; std::logic_error::what, COMDAT
; _this$ = ecx

; 26   : 		{	// return pointer to message string

  00000	55		 push	 ebp
  00001	8b ec		 mov	 ebp, esp
  00003	51		 push	 ecx
  00004	56		 push	 esi
  00005	c7 45 fc cc cc
	cc cc		 mov	 DWORD PTR [ebp-4], -858993460 ; ccccccccH
  0000c	89 4d fc	 mov	 DWORD PTR _this$[ebp], ecx

; 27   : 		return (_Str.c_str());

  0000f	8b 4d fc	 mov	 ecx, DWORD PTR _this$[ebp]
  00012	83 c1 0c	 add	 ecx, 12			; 0000000cH
  00015	8b f4		 mov	 esi, esp
  00017	ff 15 00 00 00
	00		 call	 DWORD PTR __imp_?c_str@?$basic_string@DU?$char_traits@D@std@@V?$allocator@D@2@@std@@QBEPBDXZ
  0001d	3b f4		 cmp	 esi, esp
  0001f	e8 00 00 00 00	 call	 __RTC_CheckEsp

; 28   : 		}

  00024	5e		 pop	 esi
  00025	83 c4 04	 add	 esp, 4
  00028	3b ec		 cmp	 ebp, esp
  0002a	e8 00 00 00 00	 call	 __RTC_CheckEsp
  0002f	8b e5		 mov	 esp, ebp
  00031	5d		 pop	 ebp
  00032	c3		 ret	 0
?what@logic_error@std@@UBEPBDXZ ENDP			; std::logic_error::what
_TEXT	ENDS
PUBLIC	??0logic_error@std@@QAE@ABV?$basic_string@DU?$char_traits@D@std@@V?$allocator@D@2@@1@@Z ; std::logic_error::logic_error
; Function compile flags: /Odt /RTCsu
;	COMDAT ??0length_error@std@@QAE@ABV?$basic_string@DU?$char_traits@D@std@@V?$allocator@D@2@@1@@Z
_TEXT	SEGMENT
_this$ = -4						; size = 4
__Message$ = 8						; size = 4
??0length_error@std@@QAE@ABV?$basic_string@DU?$char_traits@D@std@@V?$allocator@D@2@@1@@Z PROC NEAR ; std::length_error::length_error, COMDAT
; _this$ = ecx

; 95   : 		{	// construct from message string

  00000	55		 push	 ebp
  00001	8b ec		 mov	 ebp, esp
  00003	51		 push	 ecx
  00004	c7 45 fc cc cc
	cc cc		 mov	 DWORD PTR [ebp-4], -858993460 ; ccccccccH
  0000b	89 4d fc	 mov	 DWORD PTR _this$[ebp], ecx
  0000e	8b 45 08	 mov	 eax, DWORD PTR __Message$[ebp]
  00011	50		 push	 eax
  00012	8b 4d fc	 mov	 ecx, DWORD PTR _this$[ebp]
  00015	e8 00 00 00 00	 call	 ??0logic_error@std@@QAE@ABV?$basic_string@DU?$char_traits@D@std@@V?$allocator@D@2@@1@@Z ; std::logic_error::logic_error
  0001a	8b 4d fc	 mov	 ecx, DWORD PTR _this$[ebp]
  0001d	c7 01 00 00 00
	00		 mov	 DWORD PTR [ecx], OFFSET FLAT:??_7length_error@std@@6B@

; 96   : 		}

  00023	8b 45 fc	 mov	 eax, DWORD PTR _this$[ebp]
  00026	83 c4 04	 add	 esp, 4
  00029	3b ec		 cmp	 ebp, esp
  0002b	e8 00 00 00 00	 call	 __RTC_CheckEsp
  00030	8b e5		 mov	 esp, ebp
  00032	5d		 pop	 ebp
  00033	c2 04 00	 ret	 4
??0length_error@std@@QAE@ABV?$basic_string@DU?$char_traits@D@std@@V?$allocator@D@2@@1@@Z ENDP ; std::length_error::length_error
_TEXT	ENDS
PUBLIC	??_7logic_error@std@@6B@			; std::logic_error::`vftable'
PUBLIC	??_Glogic_error@std@@UAEPAXI@Z			; std::logic_error::`scalar deleting destructor'
PUBLIC	??_R4logic_error@std@@6B@			; std::logic_error::`RTTI Complete Object Locator'
PUBLIC	??_R3logic_error@std@@8				; std::logic_error::`RTTI Class Hierarchy Descriptor'
PUBLIC	??_R2logic_error@std@@8				; std::logic_error::`RTTI Base Class Array'
EXTRN	__imp_??0exception@@QAE@XZ:NEAR
EXTRN	__imp_??1exception@@UAE@XZ:NEAR
EXTRN	??_Elogic_error@std@@UAEPAXI@Z:NEAR		; std::logic_error::`vector deleting destructor'
;	COMDAT xdata$x
xdata$x	SEGMENT
$T191565 DD	0ffffffffH
	DD	FLAT:$L191560
$T191563 DD	019930520H
	DD	01H
	DD	FLAT:$T191565
	DD	2 DUP(00H)
	DD	2 DUP(00H)
xdata$x	ENDS
;	COMDAT ??_7logic_error@std@@6B@
CONST	SEGMENT
??_7logic_error@std@@6B@ DD FLAT:??_R4logic_error@std@@6B@ ; std::logic_error::`vftable'
	DD	FLAT:??_Elogic_error@std@@UAEPAXI@Z
	DD	FLAT:?what@logic_error@std@@UBEPBDXZ
CONST	ENDS
;	COMDAT ??_R4logic_error@std@@6B@
rdata$r	SEGMENT
??_R4logic_error@std@@6B@ DD 00H			; std::logic_error::`RTTI Complete Object Locator'
	DD	00H
	DD	00H
	DD	FLAT:??_R0?AVlogic_error@std@@@8
	DD	FLAT:??_R3logic_error@std@@8
rdata$r	ENDS
;	COMDAT ??_R3logic_error@std@@8
rdata$r	SEGMENT
??_R3logic_error@std@@8 DD 00H				; std::logic_error::`RTTI Class Hierarchy Descriptor'
	DD	00H
	DD	02H
	DD	FLAT:??_R2logic_error@std@@8
rdata$r	ENDS
;	COMDAT ??_R2logic_error@std@@8
rdata$r	SEGMENT
??_R2logic_error@std@@8 DD FLAT:??_R1A@?0A@A@logic_error@std@@8 ; std::logic_error::`RTTI Base Class Array'
	DD	FLAT:??_R1A@?0A@A@exception@@8
; Function compile flags: /Odt /RTCsu
rdata$r	ENDS
;	COMDAT ??0logic_error@std@@QAE@ABV?$basic_string@DU?$char_traits@D@std@@V?$allocator@D@2@@1@@Z
_TEXT	SEGMENT
_this$ = -16						; size = 4
__$EHRec$ = -12						; size = 12
__Message$ = 8						; size = 4
??0logic_error@std@@QAE@ABV?$basic_string@DU?$char_traits@D@std@@V?$allocator@D@2@@1@@Z PROC NEAR ; std::logic_error::logic_error, COMDAT
; _this$ = ecx

; 19   : 		{	// construct from message string

  00000	55		 push	 ebp
  00001	8b ec		 mov	 ebp, esp
  00003	6a ff		 push	 -1
  00005	68 00 00 00 00	 push	 __ehhandler$??0logic_error@std@@QAE@ABV?$basic_string@DU?$char_traits@D@std@@V?$allocator@D@2@@1@@Z
  0000a	64 a1 00 00 00
	00		 mov	 eax, DWORD PTR fs:__except_list
  00010	50		 push	 eax
  00011	64 89 25 00 00
	00 00		 mov	 DWORD PTR fs:__except_list, esp
  00018	51		 push	 ecx
  00019	56		 push	 esi
  0001a	c7 45 f0 cc cc
	cc cc		 mov	 DWORD PTR [ebp-16], -858993460 ; ccccccccH
  00021	89 4d f0	 mov	 DWORD PTR _this$[ebp], ecx
  00024	8b f4		 mov	 esi, esp
  00026	8b 4d f0	 mov	 ecx, DWORD PTR _this$[ebp]
  00029	ff 15 00 00 00
	00		 call	 DWORD PTR __imp_??0exception@@QAE@XZ
  0002f	3b f4		 cmp	 esi, esp
  00031	e8 00 00 00 00	 call	 __RTC_CheckEsp
  00036	c7 45 fc 00 00
	00 00		 mov	 DWORD PTR __$EHRec$[ebp+8], 0
  0003d	8b 45 f0	 mov	 eax, DWORD PTR _this$[ebp]
  00040	c7 00 00 00 00
	00		 mov	 DWORD PTR [eax], OFFSET FLAT:??_7logic_error@std@@6B@
  00046	8b f4		 mov	 esi, esp
  00048	8b 4d 08	 mov	 ecx, DWORD PTR __Message$[ebp]
  0004b	51		 push	 ecx
  0004c	8b 4d f0	 mov	 ecx, DWORD PTR _this$[ebp]
  0004f	83 c1 0c	 add	 ecx, 12			; 0000000cH
  00052	ff 15 00 00 00
	00		 call	 DWORD PTR __imp_??0?$basic_string@DU?$char_traits@D@std@@V?$allocator@D@2@@std@@QAE@ABV01@@Z
  00058	3b f4		 cmp	 esi, esp
  0005a	e8 00 00 00 00	 call	 __RTC_CheckEsp

; 20   : 		}

  0005f	c7 45 fc ff ff
	ff ff		 mov	 DWORD PTR __$EHRec$[ebp+8], -1
  00066	8b 45 f0	 mov	 eax, DWORD PTR _this$[ebp]
  00069	8b 4d f4	 mov	 ecx, DWORD PTR __$EHRec$[ebp]
  0006c	64 89 0d 00 00
	00 00		 mov	 DWORD PTR fs:__except_list, ecx
  00073	5e		 pop	 esi
  00074	83 c4 10	 add	 esp, 16			; 00000010H
  00077	3b ec		 cmp	 ebp, esp
  00079	e8 00 00 00 00	 call	 __RTC_CheckEsp
  0007e	8b e5		 mov	 esp, ebp
  00080	5d		 pop	 ebp
  00081	c2 04 00	 ret	 4
_TEXT	ENDS
;	COMDAT text$x
text$x	SEGMENT
$L191560:
  00000	8b f4		 mov	 esi, esp
  00002	8b 4d f0	 mov	 ecx, DWORD PTR _this$[ebp]
  00005	ff 15 00 00 00
	00		 call	 DWORD PTR __imp_??1exception@@UAE@XZ
  0000b	3b f4		 cmp	 esi, esp
  0000d	e9 00 00 00 00	 jmp	 __RTC_CheckEsp
__ehhandler$??0logic_error@std@@QAE@ABV?$basic_string@DU?$char_traits@D@std@@V?$allocator@D@2@@1@@Z:
  00012	b8 00 00 00 00	 mov	 eax, OFFSET FLAT:$T191563
  00017	e9 00 00 00 00	 jmp	 ___CxxFrameHandler
text$x	ENDS
??0logic_error@std@@QAE@ABV?$basic_string@DU?$char_traits@D@std@@V?$allocator@D@2@@1@@Z ENDP ; std::logic_error::logic_error
PUBLIC	??1logic_error@std@@UAE@XZ			; std::logic_error::~logic_error
; Function compile flags: /Odt /RTCsu
;	COMDAT ??_Glogic_error@std@@UAEPAXI@Z
_TEXT	SEGMENT
_this$ = -4						; size = 4
___flags$ = 8						; size = 4
??_Glogic_error@std@@UAEPAXI@Z PROC NEAR		; std::logic_error::`scalar deleting destructor', COMDAT
; _this$ = ecx
  00000	55		 push	 ebp
  00001	8b ec		 mov	 ebp, esp
  00003	51		 push	 ecx
  00004	c7 45 fc cc cc
	cc cc		 mov	 DWORD PTR [ebp-4], -858993460 ; ccccccccH
  0000b	89 4d fc	 mov	 DWORD PTR _this$[ebp], ecx
  0000e	8b 4d fc	 mov	 ecx, DWORD PTR _this$[ebp]
  00011	e8 00 00 00 00	 call	 ??1logic_error@std@@UAE@XZ ; std::logic_error::~logic_error
  00016	8b 45 08	 mov	 eax, DWORD PTR ___flags$[ebp]
  00019	83 e0 01	 and	 eax, 1
  0001c	74 0c		 je	 SHORT $L91647
  0001e	8b 4d fc	 mov	 ecx, DWORD PTR _this$[ebp]
  00021	51		 push	 ecx
  00022	e8 00 00 00 00	 call	 ??3@YAXPAX@Z		; operator delete
  00027	83 c4 04	 add	 esp, 4
$L91647:
  0002a	8b 45 fc	 mov	 eax, DWORD PTR _this$[ebp]
  0002d	83 c4 04	 add	 esp, 4
  00030	3b ec		 cmp	 ebp, esp
  00032	e8 00 00 00 00	 call	 __RTC_CheckEsp
  00037	8b e5		 mov	 esp, ebp
  00039	5d		 pop	 ebp
  0003a	c2 04 00	 ret	 4
??_Glogic_error@std@@UAEPAXI@Z ENDP			; std::logic_error::`scalar deleting destructor'
_TEXT	ENDS
;	COMDAT xdata$x
xdata$x	SEGMENT
$T191575 DD	0ffffffffH
	DD	FLAT:$L191570
$T191573 DD	019930520H
	DD	01H
	DD	FLAT:$T191575
	DD	2 DUP(00H)
	DD	2 DUP(00H)
; Function compile flags: /Odt /RTCsu
xdata$x	ENDS
;	COMDAT ??1logic_error@std@@UAE@XZ
_TEXT	SEGMENT
_this$ = -16						; size = 4
__$EHRec$ = -12						; size = 12
??1logic_error@std@@UAE@XZ PROC NEAR			; std::logic_error::~logic_error, COMDAT
; _this$ = ecx

; 23   : 		{}	// destroy the object

  00000	55		 push	 ebp
  00001	8b ec		 mov	 ebp, esp
  00003	6a ff		 push	 -1
  00005	68 00 00 00 00	 push	 __ehhandler$??1logic_error@std@@UAE@XZ
  0000a	64 a1 00 00 00
	00		 mov	 eax, DWORD PTR fs:__except_list
  00010	50		 push	 eax
  00011	64 89 25 00 00
	00 00		 mov	 DWORD PTR fs:__except_list, esp
  00018	51		 push	 ecx
  00019	56		 push	 esi
  0001a	c7 45 f0 cc cc
	cc cc		 mov	 DWORD PTR [ebp-16], -858993460 ; ccccccccH
  00021	89 4d f0	 mov	 DWORD PTR _this$[ebp], ecx
  00024	8b 45 f0	 mov	 eax, DWORD PTR _this$[ebp]
  00027	c7 00 00 00 00
	00		 mov	 DWORD PTR [eax], OFFSET FLAT:??_7logic_error@std@@6B@
  0002d	c7 45 fc 00 00
	00 00		 mov	 DWORD PTR __$EHRec$[ebp+8], 0
  00034	8b 4d f0	 mov	 ecx, DWORD PTR _this$[ebp]
  00037	83 c1 0c	 add	 ecx, 12			; 0000000cH
  0003a	8b f4		 mov	 esi, esp
  0003c	ff 15 00 00 00
	00		 call	 DWORD PTR __imp_??1?$basic_string@DU?$char_traits@D@std@@V?$allocator@D@2@@std@@QAE@XZ
  00042	3b f4		 cmp	 esi, esp
  00044	e8 00 00 00 00	 call	 __RTC_CheckEsp
  00049	c7 45 fc ff ff
	ff ff		 mov	 DWORD PTR __$EHRec$[ebp+8], -1
  00050	8b f4		 mov	 esi, esp
  00052	8b 4d f0	 mov	 ecx, DWORD PTR _this$[ebp]
  00055	ff 15 00 00 00
	00		 call	 DWORD PTR __imp_??1exception@@UAE@XZ
  0005b	3b f4		 cmp	 esi, esp
  0005d	e8 00 00 00 00	 call	 __RTC_CheckEsp
  00062	8b 4d f4	 mov	 ecx, DWORD PTR __$EHRec$[ebp]
  00065	64 89 0d 00 00
	00 00		 mov	 DWORD PTR fs:__except_list, ecx
  0006c	5e		 pop	 esi
  0006d	83 c4 10	 add	 esp, 16			; 00000010H
  00070	3b ec		 cmp	 ebp, esp
  00072	e8 00 00 00 00	 call	 __RTC_CheckEsp
  00077	8b e5		 mov	 esp, ebp
  00079	5d		 pop	 ebp
  0007a	c3		 ret	 0
_TEXT	ENDS
;	COMDAT text$x
text$x	SEGMENT
$L191570:
  00000	8b f4		 mov	 esi, esp
  00002	8b 4d f0	 mov	 ecx, DWORD PTR _this$[ebp]
  00005	ff 15 00 00 00
	00		 call	 DWORD PTR __imp_??1exception@@UAE@XZ
  0000b	3b f4		 cmp	 esi, esp
  0000d	e9 00 00 00 00	 jmp	 __RTC_CheckEsp
__ehhandler$??1logic_error@std@@UAE@XZ:
  00012	b8 00 00 00 00	 mov	 eax, OFFSET FLAT:$T191573
  00017	e9 00 00 00 00	 jmp	 ___CxxFrameHandler
text$x	ENDS
??1logic_error@std@@UAE@XZ ENDP				; std::logic_error::~logic_error
; Function compile flags: /Odt /RTCsu
;	COMDAT ??1length_error@std@@UAE@XZ
_TEXT	SEGMENT
_this$ = -4						; size = 4
??1length_error@std@@UAE@XZ PROC NEAR			; std::length_error::~length_error, COMDAT
; _this$ = ecx

; 99   : 		{}	// destroy the object

  00000	55		 push	 ebp
  00001	8b ec		 mov	 ebp, esp
  00003	51		 push	 ecx
  00004	c7 45 fc cc cc
	cc cc		 mov	 DWORD PTR [ebp-4], -858993460 ; ccccccccH
  0000b	89 4d fc	 mov	 DWORD PTR _this$[ebp], ecx
  0000e	8b 45 fc	 mov	 eax, DWORD PTR _this$[ebp]
  00011	c7 00 00 00 00
	00		 mov	 DWORD PTR [eax], OFFSET FLAT:??_7length_error@std@@6B@
  00017	8b 4d fc	 mov	 ecx, DWORD PTR _this$[ebp]
  0001a	e8 00 00 00 00	 call	 ??1logic_error@std@@UAE@XZ ; std::logic_error::~logic_error
  0001f	83 c4 04	 add	 esp, 4
  00022	3b ec		 cmp	 ebp, esp
  00024	e8 00 00 00 00	 call	 __RTC_CheckEsp
  00029	8b e5		 mov	 esp, ebp
  0002b	5d		 pop	 ebp
  0002c	c3		 ret	 0
??1length_error@std@@UAE@XZ ENDP			; std::length_error::~length_error
; Function compile flags: /Odt /RTCsu
_TEXT	ENDS
;	COMDAT ??_Glength_error@std@@UAEPAXI@Z
_TEXT	SEGMENT
_this$ = -4						; size = 4
___flags$ = 8						; size = 4
??_Glength_error@std@@UAEPAXI@Z PROC NEAR		; std::length_error::`scalar deleting destructor', COMDAT
; _this$ = ecx
  00000	55		 push	 ebp
  00001	8b ec		 mov	 ebp, esp
  00003	51		 push	 ecx
  00004	c7 45 fc cc cc
	cc cc		 mov	 DWORD PTR [ebp-4], -858993460 ; ccccccccH
  0000b	89 4d fc	 mov	 DWORD PTR _this$[ebp], ecx
  0000e	8b 4d fc	 mov	 ecx, DWORD PTR _this$[ebp]
  00011	e8 00 00 00 00	 call	 ??1length_error@std@@UAE@XZ ; std::length_error::~length_error
  00016	8b 45 08	 mov	 eax, DWORD PTR ___flags$[ebp]
  00019	83 e0 01	 and	 eax, 1
  0001c	74 0c		 je	 SHORT $L91713
  0001e	8b 4d fc	 mov	 ecx, DWORD PTR _this$[ebp]
  00021	51		 push	 ecx
  00022	e8 00 00 00 00	 call	 ??3@YAXPAX@Z		; operator delete
  00027	83 c4 04	 add	 esp, 4
$L91713:
  0002a	8b 45 fc	 mov	 eax, DWORD PTR _this$[ebp]
  0002d	83 c4 04	 add	 esp, 4
  00030	3b ec		 cmp	 ebp, esp
  00032	e8 00 00 00 00	 call	 __RTC_CheckEsp
  00037	8b e5		 mov	 esp, ebp
  00039	5d		 pop	 ebp
  0003a	c2 04 00	 ret	 4
??_Glength_error@std@@UAEPAXI@Z ENDP			; std::length_error::`scalar deleting destructor'
_TEXT	ENDS
EXTRN	__imp_??0exception@@QAE@ABV0@@Z:NEAR
;	COMDAT xdata$x
xdata$x	SEGMENT
$T191587 DD	0ffffffffH
	DD	FLAT:$L191582
$T191585 DD	019930520H
	DD	01H
	DD	FLAT:$T191587
	DD	2 DUP(00H)
	DD	2 DUP(00H)
; Function compile flags: /Odt /RTCsu
xdata$x	ENDS
;	COMDAT ??0logic_error@std@@QAE@ABV01@@Z
_TEXT	SEGMENT
_this$ = -16						; size = 4
__$EHRec$ = -12						; size = 12
___that$ = 8						; size = 4
??0logic_error@std@@QAE@ABV01@@Z PROC NEAR		; std::logic_error::logic_error, COMDAT
; _this$ = ecx
  00000	55		 push	 ebp
  00001	8b ec		 mov	 ebp, esp
  00003	6a ff		 push	 -1
  00005	68 00 00 00 00	 push	 __ehhandler$??0logic_error@std@@QAE@ABV01@@Z
  0000a	64 a1 00 00 00
	00		 mov	 eax, DWORD PTR fs:__except_list
  00010	50		 push	 eax
  00011	64 89 25 00 00
	00 00		 mov	 DWORD PTR fs:__except_list, esp
  00018	51		 push	 ecx
  00019	56		 push	 esi
  0001a	c7 45 f0 cc cc
	cc cc		 mov	 DWORD PTR [ebp-16], -858993460 ; ccccccccH
  00021	89 4d f0	 mov	 DWORD PTR _this$[ebp], ecx
  00024	8b f4		 mov	 esi, esp
  00026	8b 45 08	 mov	 eax, DWORD PTR ___that$[ebp]
  00029	50		 push	 eax
  0002a	8b 4d f0	 mov	 ecx, DWORD PTR _this$[ebp]
  0002d	ff 15 00 00 00
	00		 call	 DWORD PTR __imp_??0exception@@QAE@ABV0@@Z
  00033	3b f4		 cmp	 esi, esp
  00035	e8 00 00 00 00	 call	 __RTC_CheckEsp
  0003a	c7 45 fc 00 00
	00 00		 mov	 DWORD PTR __$EHRec$[ebp+8], 0
  00041	8b 4d f0	 mov	 ecx, DWORD PTR _this$[ebp]
  00044	c7 01 00 00 00
	00		 mov	 DWORD PTR [ecx], OFFSET FLAT:??_7logic_error@std@@6B@
  0004a	8b 55 08	 mov	 edx, DWORD PTR ___that$[ebp]
  0004d	83 c2 0c	 add	 edx, 12			; 0000000cH
  00050	8b f4		 mov	 esi, esp
  00052	52		 push	 edx
  00053	8b 4d f0	 mov	 ecx, DWORD PTR _this$[ebp]
  00056	83 c1 0c	 add	 ecx, 12			; 0000000cH
  00059	ff 15 00 00 00
	00		 call	 DWORD PTR __imp_??0?$basic_string@DU?$char_traits@D@std@@V?$allocator@D@2@@std@@QAE@ABV01@@Z
  0005f	3b f4		 cmp	 esi, esp
  00061	e8 00 00 00 00	 call	 __RTC_CheckEsp
  00066	c7 45 fc ff ff
	ff ff		 mov	 DWORD PTR __$EHRec$[ebp+8], -1
  0006d	8b 45 f0	 mov	 eax, DWORD PTR _this$[ebp]
  00070	8b 4d f4	 mov	 ecx, DWORD PTR __$EHRec$[ebp]
  00073	64 89 0d 00 00
	00 00		 mov	 DWORD PTR fs:__except_list, ecx
  0007a	5e		 pop	 esi
  0007b	83 c4 10	 add	 esp, 16			; 00000010H
  0007e	3b ec		 cmp	 ebp, esp
  00080	e8 00 00 00 00	 call	 __RTC_CheckEsp
  00085	8b e5		 mov	 esp, ebp
  00087	5d		 pop	 ebp
  00088	c2 04 00	 ret	 4
_TEXT	ENDS
;	COMDAT text$x
text$x	SEGMENT
$L191582:
  00000	8b f4		 mov	 esi, esp
  00002	8b 4d f0	 mov	 ecx, DWORD PTR _this$[ebp]
  00005	ff 15 00 00 00
	00		 call	 DWORD PTR __imp_??1exception@@UAE@XZ
  0000b	3b f4		 cmp	 esi, esp
  0000d	e9 00 00 00 00	 jmp	 __RTC_CheckEsp
__ehhandler$??0logic_error@std@@QAE@ABV01@@Z:
  00012	b8 00 00 00 00	 mov	 eax, OFFSET FLAT:$T191585
  00017	e9 00 00 00 00	 jmp	 ___CxxFrameHandler
text$x	ENDS
??0logic_error@std@@QAE@ABV01@@Z ENDP			; std::logic_error::logic_error
EXTRN	__imp_??Y?$basic_string@DU?$char_traits@D@std@@V?$allocator@D@2@@std@@QAEAAV01@ABV01@@Z:NEAR
;	COMDAT xdata$x
; File d:\program files (x86)\microsoft visual studio .net 2003\vc7\include\string
xdata$x	SEGMENT
$T191599 DD	0ffffffffH
	DD	FLAT:$L191593
	DD	00H
	DD	FLAT:$L191592
$T191597 DD	019930520H
	DD	02H
	DD	FLAT:$T191599
	DD	2 DUP(00H)
	DD	2 DUP(00H)
; Function compile flags: /Odt /RTCsu
xdata$x	ENDS
;	COMDAT ??$?HDU?$char_traits@D@std@@V?$allocator@D@1@@std@@YA?AV?$basic_string@DU?$char_traits@D@std@@V?$allocator@D@2@@0@ABV10@0@Z
_TEXT	SEGMENT
tv77 = -52						; size = 4
tv82 = -48						; size = 4
$T191594 = -44						; size = 4
$T191591 = -40						; size = 28
__$EHRec$ = -12						; size = 12
___$ReturnUdt$ = 8					; size = 4
__Left$ = 12						; size = 4
__Right$ = 16						; size = 4
??$?HDU?$char_traits@D@std@@V?$allocator@D@1@@std@@YA?AV?$basic_string@DU?$char_traits@D@std@@V?$allocator@D@2@@0@ABV10@0@Z PROC NEAR ; std::operator+<char,std::char_traits<char>,std::allocator<char> >, COMDAT

; 21   : 	{	// return string + string

  00000	55		 push	 ebp
  00001	8b ec		 mov	 ebp, esp
  00003	6a ff		 push	 -1
  00005	68 00 00 00 00	 push	 __ehhandler$??$?HDU?$char_traits@D@std@@V?$allocator@D@1@@std@@YA?AV?$basic_string@DU?$char_traits@D@std@@V?$allocator@D@2@@0@ABV10@0@Z
  0000a	64 a1 00 00 00
	00		 mov	 eax, DWORD PTR fs:__except_list
  00010	50		 push	 eax
  00011	64 89 25 00 00
	00 00		 mov	 DWORD PTR fs:__except_list, esp
  00018	83 ec 28	 sub	 esp, 40			; 00000028H
  0001b	56		 push	 esi
  0001c	57		 push	 edi
  0001d	8d 7d cc	 lea	 edi, DWORD PTR [ebp-52]
  00020	b9 0a 00 00 00	 mov	 ecx, 10			; 0000000aH
  00025	b8 cc cc cc cc	 mov	 eax, -858993460		; ccccccccH
  0002a	f3 ab		 rep stosd
  0002c	c7 45 d4 00 00
	00 00		 mov	 DWORD PTR $T191594[ebp], 0

; 22   : 	return (basic_string<_Elem, _Traits, _Alloc>(_Left) += _Right);

  00033	8b f4		 mov	 esi, esp
  00035	8b 45 0c	 mov	 eax, DWORD PTR __Left$[ebp]
  00038	50		 push	 eax
  00039	8d 4d d8	 lea	 ecx, DWORD PTR $T191591[ebp]
  0003c	ff 15 00 00 00
	00		 call	 DWORD PTR __imp_??0?$basic_string@DU?$char_traits@D@std@@V?$allocator@D@2@@std@@QAE@ABV01@@Z
  00042	3b f4		 cmp	 esi, esp
  00044	e8 00 00 00 00	 call	 __RTC_CheckEsp
  00049	89 45 d0	 mov	 DWORD PTR tv82[ebp], eax
  0004c	8b 4d d0	 mov	 ecx, DWORD PTR tv82[ebp]
  0004f	89 4d cc	 mov	 DWORD PTR tv77[ebp], ecx
  00052	c7 45 fc 01 00
	00 00		 mov	 DWORD PTR __$EHRec$[ebp+8], 1
  00059	8b f4		 mov	 esi, esp
  0005b	8b 55 10	 mov	 edx, DWORD PTR __Right$[ebp]
  0005e	52		 push	 edx
  0005f	8b 4d cc	 mov	 ecx, DWORD PTR tv77[ebp]
  00062	ff 15 00 00 00
	00		 call	 DWORD PTR __imp_??Y?$basic_string@DU?$char_traits@D@std@@V?$allocator@D@2@@std@@QAEAAV01@ABV01@@Z
  00068	3b f4		 cmp	 esi, esp
  0006a	e8 00 00 00 00	 call	 __RTC_CheckEsp
  0006f	8b f4		 mov	 esi, esp
  00071	50		 push	 eax
  00072	8b 4d 08	 mov	 ecx, DWORD PTR ___$ReturnUdt$[ebp]
  00075	ff 15 00 00 00
	00		 call	 DWORD PTR __imp_??0?$basic_string@DU?$char_traits@D@std@@V?$allocator@D@2@@std@@QAE@ABV01@@Z
  0007b	3b f4		 cmp	 esi, esp
  0007d	e8 00 00 00 00	 call	 __RTC_CheckEsp
  00082	8b 45 d4	 mov	 eax, DWORD PTR $T191594[ebp]
  00085	83 c8 01	 or	 eax, 1
  00088	89 45 d4	 mov	 DWORD PTR $T191594[ebp], eax
  0008b	c6 45 fc 00	 mov	 BYTE PTR __$EHRec$[ebp+8], 0
  0008f	8b f4		 mov	 esi, esp
  00091	8d 4d d8	 lea	 ecx, DWORD PTR $T191591[ebp]
  00094	ff 15 00 00 00
	00		 call	 DWORD PTR __imp_??1?$basic_string@DU?$char_traits@D@std@@V?$allocator@D@2@@std@@QAE@XZ
  0009a	3b f4		 cmp	 esi, esp
  0009c	e8 00 00 00 00	 call	 __RTC_CheckEsp
  000a1	8b 45 08	 mov	 eax, DWORD PTR ___$ReturnUdt$[ebp]

; 23   : 	}

  000a4	8b 4d f4	 mov	 ecx, DWORD PTR __$EHRec$[ebp]
  000a7	64 89 0d 00 00
	00 00		 mov	 DWORD PTR fs:__except_list, ecx
  000ae	5f		 pop	 edi
  000af	5e		 pop	 esi
  000b0	83 c4 34	 add	 esp, 52			; 00000034H
  000b3	3b ec		 cmp	 ebp, esp
  000b5	e8 00 00 00 00	 call	 __RTC_CheckEsp
  000ba	8b e5		 mov	 esp, ebp
  000bc	5d		 pop	 ebp
  000bd	c3		 ret	 0
_TEXT	ENDS
;	COMDAT text$x
text$x	SEGMENT
$L191592:
  00000	8b f4		 mov	 esi, esp
  00002	8d 4d d8	 lea	 ecx, DWORD PTR $T191591[ebp]
  00005	ff 15 00 00 00
	00		 call	 DWORD PTR __imp_??1?$basic_string@DU?$char_traits@D@std@@V?$allocator@D@2@@std@@QAE@XZ
  0000b	3b f4		 cmp	 esi, esp
  0000d	e9 00 00 00 00	 jmp	 __RTC_CheckEsp
$L191593:
  00012	8b 45 d4	 mov	 eax, DWORD PTR $T191594[ebp]
  00015	83 e0 01	 and	 eax, 1
  00018	0f 84 16 00 00
	00		 je	 $L191595
  0001e	83 65 d4 fe	 and	 DWORD PTR $T191594[ebp], -2 ; fffffffeH
  00022	8b f4		 mov	 esi, esp
  00024	8b 4d 08	 mov	 ecx, DWORD PTR ___$ReturnUdt$[ebp]
  00027	ff 15 00 00 00
	00		 call	 DWORD PTR __imp_??1?$basic_string@DU?$char_traits@D@std@@V?$allocator@D@2@@std@@QAE@XZ
  0002d	3b f4		 cmp	 esi, esp
  0002f	e9 00 00 00 00	 jmp	 __RTC_CheckEsp
$L191595:
  00034	c3		 ret	 0
__ehhandler$??$?HDU?$char_traits@D@std@@V?$allocator@D@1@@std@@YA?AV?$basic_string@DU?$char_traits@D@std@@V?$allocator@D@2@@0@ABV10@0@Z:
  00035	b8 00 00 00 00	 mov	 eax, OFFSET FLAT:$T191597
  0003a	e9 00 00 00 00	 jmp	 ___CxxFrameHandler
text$x	ENDS
??$?HDU?$char_traits@D@std@@V?$allocator@D@1@@std@@YA?AV?$basic_string@DU?$char_traits@D@std@@V?$allocator@D@2@@0@ABV10@0@Z ENDP ; std::operator+<char,std::char_traits<char>,std::allocator<char> >
EXTRN	__imp_??Y?$basic_string@DU?$char_traits@D@std@@V?$allocator@D@2@@std@@QAEAAV01@PBD@Z:NEAR
;	COMDAT xdata$x
xdata$x	SEGMENT
$T191611 DD	0ffffffffH
	DD	FLAT:$L191605
	DD	00H
	DD	FLAT:$L191604
$T191609 DD	019930520H
	DD	02H
	DD	FLAT:$T191611
	DD	2 DUP(00H)
	DD	2 DUP(00H)
; Function compile flags: /Odt /RTCsu
xdata$x	ENDS
;	COMDAT ??$?HDU?$char_traits@D@std@@V?$allocator@D@1@@std@@YA?AV?$basic_string@DU?$char_traits@D@std@@V?$allocator@D@2@@0@ABV10@PBD@Z
_TEXT	SEGMENT
tv77 = -52						; size = 4
tv82 = -48						; size = 4
$T191606 = -44						; size = 4
$T191603 = -40						; size = 28
__$EHRec$ = -12						; size = 12
___$ReturnUdt$ = 8					; size = 4
__Left$ = 12						; size = 4
__Right$ = 16						; size = 4
??$?HDU?$char_traits@D@std@@V?$allocator@D@1@@std@@YA?AV?$basic_string@DU?$char_traits@D@std@@V?$allocator@D@2@@0@ABV10@PBD@Z PROC NEAR ; std::operator+<char,std::char_traits<char>,std::allocator<char> >, COMDAT

; 51   : 	{	// return string + NTCS

  00000	55		 push	 ebp
  00001	8b ec		 mov	 ebp, esp
  00003	6a ff		 push	 -1
  00005	68 00 00 00 00	 push	 __ehhandler$??$?HDU?$char_traits@D@std@@V?$allocator@D@1@@std@@YA?AV?$basic_string@DU?$char_traits@D@std@@V?$allocator@D@2@@0@ABV10@PBD@Z
  0000a	64 a1 00 00 00
	00		 mov	 eax, DWORD PTR fs:__except_list
  00010	50		 push	 eax
  00011	64 89 25 00 00
	00 00		 mov	 DWORD PTR fs:__except_list, esp
  00018	83 ec 28	 sub	 esp, 40			; 00000028H
  0001b	56		 push	 esi
  0001c	57		 push	 edi
  0001d	8d 7d cc	 lea	 edi, DWORD PTR [ebp-52]
  00020	b9 0a 00 00 00	 mov	 ecx, 10			; 0000000aH
  00025	b8 cc cc cc cc	 mov	 eax, -858993460		; ccccccccH
  0002a	f3 ab		 rep stosd
  0002c	c7 45 d4 00 00
	00 00		 mov	 DWORD PTR $T191606[ebp], 0

; 52   : 	return (basic_string<_Elem, _Traits, _Alloc>(_Left) += _Right);

  00033	8b f4		 mov	 esi, esp
  00035	8b 45 0c	 mov	 eax, DWORD PTR __Left$[ebp]
  00038	50		 push	 eax
  00039	8d 4d d8	 lea	 ecx, DWORD PTR $T191603[ebp]
  0003c	ff 15 00 00 00
	00		 call	 DWORD PTR __imp_??0?$basic_string@DU?$char_traits@D@std@@V?$allocator@D@2@@std@@QAE@ABV01@@Z
  00042	3b f4		 cmp	 esi, esp
  00044	e8 00 00 00 00	 call	 __RTC_CheckEsp
  00049	89 45 d0	 mov	 DWORD PTR tv82[ebp], eax
  0004c	8b 4d d0	 mov	 ecx, DWORD PTR tv82[ebp]
  0004f	89 4d cc	 mov	 DWORD PTR tv77[ebp], ecx
  00052	c7 45 fc 01 00
	00 00		 mov	 DWORD PTR __$EHRec$[ebp+8], 1
  00059	8b f4		 mov	 esi, esp
  0005b	8b 55 10	 mov	 edx, DWORD PTR __Right$[ebp]
  0005e	52		 push	 edx
  0005f	8b 4d cc	 mov	 ecx, DWORD PTR tv77[ebp]
  00062	ff 15 00 00 00
	00		 call	 DWORD PTR __imp_??Y?$basic_string@DU?$char_traits@D@std@@V?$allocator@D@2@@std@@QAEAAV01@PBD@Z
  00068	3b f4		 cmp	 esi, esp
  0006a	e8 00 00 00 00	 call	 __RTC_CheckEsp
  0006f	8b f4		 mov	 esi, esp
  00071	50		 push	 eax
  00072	8b 4d 08	 mov	 ecx, DWORD PTR ___$ReturnUdt$[ebp]
  00075	ff 15 00 00 00
	00		 call	 DWORD PTR __imp_??0?$basic_string@DU?$char_traits@D@std@@V?$allocator@D@2@@std@@QAE@ABV01@@Z
  0007b	3b f4		 cmp	 esi, esp
  0007d	e8 00 00 00 00	 call	 __RTC_CheckEsp
  00082	8b 45 d4	 mov	 eax, DWORD PTR $T191606[ebp]
  00085	83 c8 01	 or	 eax, 1
  00088	89 45 d4	 mov	 DWORD PTR $T191606[ebp], eax
  0008b	c6 45 fc 00	 mov	 BYTE PTR __$EHRec$[ebp+8], 0
  0008f	8b f4		 mov	 esi, esp
  00091	8d 4d d8	 lea	 ecx, DWORD PTR $T191603[ebp]
  00094	ff 15 00 00 00
	00		 call	 DWORD PTR __imp_??1?$basic_string@DU?$char_traits@D@std@@V?$allocator@D@2@@std@@QAE@XZ
  0009a	3b f4		 cmp	 esi, esp
  0009c	e8 00 00 00 00	 call	 __RTC_CheckEsp
  000a1	8b 45 08	 mov	 eax, DWORD PTR ___$ReturnUdt$[ebp]

; 53   : 	}

  000a4	8b 4d f4	 mov	 ecx, DWORD PTR __$EHRec$[ebp]
  000a7	64 89 0d 00 00
	00 00		 mov	 DWORD PTR fs:__except_list, ecx
  000ae	5f		 pop	 edi
  000af	5e		 pop	 esi
  000b0	83 c4 34	 add	 esp, 52			; 00000034H
  000b3	3b ec		 cmp	 ebp, esp
  000b5	e8 00 00 00 00	 call	 __RTC_CheckEsp
  000ba	8b e5		 mov	 esp, ebp
  000bc	5d		 pop	 ebp
  000bd	c3		 ret	 0
_TEXT	ENDS
;	COMDAT text$x
text$x	SEGMENT
$L191604:
  00000	8b f4		 mov	 esi, esp
  00002	8d 4d d8	 lea	 ecx, DWORD PTR $T191603[ebp]
  00005	ff 15 00 00 00
	00		 call	 DWORD PTR __imp_??1?$basic_string@DU?$char_traits@D@std@@V?$allocator@D@2@@std@@QAE@XZ
  0000b	3b f4		 cmp	 esi, esp
  0000d	e9 00 00 00 00	 jmp	 __RTC_CheckEsp
$L191605:
  00012	8b 45 d4	 mov	 eax, DWORD PTR $T191606[ebp]
  00015	83 e0 01	 and	 eax, 1
  00018	0f 84 16 00 00
	00		 je	 $L191607
  0001e	83 65 d4 fe	 and	 DWORD PTR $T191606[ebp], -2 ; fffffffeH
  00022	8b f4		 mov	 esi, esp
  00024	8b 4d 08	 mov	 ecx, DWORD PTR ___$ReturnUdt$[ebp]
  00027	ff 15 00 00 00
	00		 call	 DWORD PTR __imp_??1?$basic_string@DU?$char_traits@D@std@@V?$allocator@D@2@@std@@QAE@XZ
  0002d	3b f4		 cmp	 esi, esp
  0002f	e9 00 00 00 00	 jmp	 __RTC_CheckEsp
$L191607:
  00034	c3		 ret	 0
__ehhandler$??$?HDU?$char_traits@D@std@@V?$allocator@D@1@@std@@YA?AV?$basic_string@DU?$char_traits@D@std@@V?$allocator@D@2@@0@ABV10@PBD@Z:
  00035	b8 00 00 00 00	 mov	 eax, OFFSET FLAT:$T191609
  0003a	e9 00 00 00 00	 jmp	 ___CxxFrameHandler
text$x	ENDS
??$?HDU?$char_traits@D@std@@V?$allocator@D@1@@std@@YA?AV?$basic_string@DU?$char_traits@D@std@@V?$allocator@D@2@@0@ABV10@PBD@Z ENDP ; std::operator+<char,std::char_traits<char>,std::allocator<char> >
CRT$XCU	SEGMENT
_$S6	DD	FLAT:_$E5
; Function compile flags: /Odt /RTCsu
; File d:\boxgit\playbox\playbox\dev\prj\playbox\src\appconfig\config\configappdef.h
CRT$XCU	ENDS
;	COMDAT _$E5
text$yc	SEGMENT
_$E5	PROC NEAR					; COMDAT

; 19   : 	CONF_APP_SWF_PATH,			TYPE_CONFIG_STR,

  00000	55		 push	 ebp
  00001	8b ec		 mov	 ebp, esp
  00003	a1 00 00 00 00	 mov	 eax, DWORD PTR _CONF_APP_SWF_PATH
  00008	a3 00 00 00 00	 mov	 DWORD PTR _CONF_APP, eax
  0000d	8b 0d 00 00 00
	00		 mov	 ecx, DWORD PTR _TYPE_CONFIG_STR
  00013	89 0d 04 00 00
	00		 mov	 DWORD PTR _CONF_APP+4, ecx

; 20   : 	CONF_APP_MAINWND_HOLD,		TYPE_CONFIG_BOOL,

  00019	8b 15 00 00 00
	00		 mov	 edx, DWORD PTR _CONF_APP_MAINWND_HOLD
  0001f	89 15 08 00 00
	00		 mov	 DWORD PTR _CONF_APP+8, edx
  00025	a1 00 00 00 00	 mov	 eax, DWORD PTR _TYPE_CONFIG_BOOL
  0002a	a3 0c 00 00 00	 mov	 DWORD PTR _CONF_APP+12, eax

; 21   : 	CONF_APP_RUN_COUNT,			TYPE_CONFIG_INT,

  0002f	8b 0d 00 00 00
	00		 mov	 ecx, DWORD PTR _CONF_APP_RUN_COUNT
  00035	89 0d 10 00 00
	00		 mov	 DWORD PTR _CONF_APP+16, ecx
  0003b	8b 15 00 00 00
	00		 mov	 edx, DWORD PTR _TYPE_CONFIG_INT
  00041	89 15 14 00 00
	00		 mov	 DWORD PTR _CONF_APP+20, edx

; 22   : 	CONF_APP_PLAYED_GAME,		TYPE_CONFIG_INT,

  00047	a1 00 00 00 00	 mov	 eax, DWORD PTR _CONF_APP_PLAYED_GAME
  0004c	a3 18 00 00 00	 mov	 DWORD PTR _CONF_APP+24, eax
  00051	8b 0d 00 00 00
	00		 mov	 ecx, DWORD PTR _TYPE_CONFIG_INT
  00057	89 0d 1c 00 00
	00		 mov	 DWORD PTR _CONF_APP+28, ecx

; 23   : 	CONF_APP_PLAYED_PC_GAME,	TYPE_CONFIG_INT,

  0005d	8b 15 00 00 00
	00		 mov	 edx, DWORD PTR _CONF_APP_PLAYED_PC_GAME
  00063	89 15 20 00 00
	00		 mov	 DWORD PTR _CONF_APP+32, edx
  00069	a1 00 00 00 00	 mov	 eax, DWORD PTR _TYPE_CONFIG_INT
  0006e	a3 24 00 00 00	 mov	 DWORD PTR _CONF_APP+36, eax

; 24   : 	CONF_APP_PLAYED_ICON_SIZE,	TYPE_CONFIG_INT, //panelicon0,1,2

  00073	8b 0d 00 00 00
	00		 mov	 ecx, DWORD PTR _CONF_APP_PLAYED_ICON_SIZE
  00079	89 0d 28 00 00
	00		 mov	 DWORD PTR _CONF_APP+40, ecx
  0007f	8b 15 00 00 00
	00		 mov	 edx, DWORD PTR _TYPE_CONFIG_INT
  00085	89 15 2c 00 00
	00		 mov	 DWORD PTR _CONF_APP+44, edx

; 25   : 	CONF_APP_PIC_SAVE_PATH,		TYPE_CONFIG_STR

  0008b	a1 00 00 00 00	 mov	 eax, DWORD PTR _CONF_APP_PIC_SAVE_PATH
  00090	a3 30 00 00 00	 mov	 DWORD PTR _CONF_APP+48, eax

; 26   : };

  00095	8b 0d 00 00 00
	00		 mov	 ecx, DWORD PTR _TYPE_CONFIG_STR
  0009b	89 0d 34 00 00
	00		 mov	 DWORD PTR _CONF_APP+52, ecx
  000a1	5d		 pop	 ebp
  000a2	c3		 ret	 0
_$E5	ENDP
text$yc	ENDS
CRT$XCU	SEGMENT
_$S8	DD	FLAT:_$E7
; Function compile flags: /Odt /RTCsu
; File d:\boxgit\playbox\playbox\dev\prj\playbox\src\appconfig\config\configsettingdef.h
CRT$XCU	ENDS
;	COMDAT _$E7
text$yc	SEGMENT
_$E7	PROC NEAR					; COMDAT

; 25   : 	CONF_SETTING_SKIN_IDX,				TYPE_CONFIG_STR,

  00000	55		 push	 ebp
  00001	8b ec		 mov	 ebp, esp
  00003	a1 00 00 00 00	 mov	 eax, DWORD PTR _CONF_SETTING_SKIN_IDX
  00008	a3 00 00 00 00	 mov	 DWORD PTR _CONF_SETTING, eax
  0000d	8b 0d 00 00 00
	00		 mov	 ecx, DWORD PTR _TYPE_CONFIG_STR
  00013	89 0d 04 00 00
	00		 mov	 DWORD PTR _CONF_SETTING+4, ecx

; 26   : 	CONF_SETTING_CONFIG_MAIN_PAGE,		TYPE_CONFIG_STR,

  00019	8b 15 00 00 00
	00		 mov	 edx, DWORD PTR _CONF_SETTING_CONFIG_MAIN_PAGE
  0001f	89 15 08 00 00
	00		 mov	 DWORD PTR _CONF_SETTING+8, edx
  00025	a1 00 00 00 00	 mov	 eax, DWORD PTR _TYPE_CONFIG_STR
  0002a	a3 0c 00 00 00	 mov	 DWORD PTR _CONF_SETTING+12, eax

; 27   : 	CONF_SETTING_CONFIG_PROBLEM_REPORT,	TYPE_CONFIG_STR,

  0002f	8b 0d 00 00 00
	00		 mov	 ecx, DWORD PTR _CONF_SETTING_CONFIG_PROBLEM_REPORT
  00035	89 0d 10 00 00
	00		 mov	 DWORD PTR _CONF_SETTING+16, ecx
  0003b	8b 15 00 00 00
	00		 mov	 edx, DWORD PTR _TYPE_CONFIG_STR
  00041	89 15 14 00 00
	00		 mov	 DWORD PTR _CONF_SETTING+20, edx

; 28   : 	CONF_SETTING_CONFIG_HOME_PAGE,		TYPE_CONFIG_STR,

  00047	a1 00 00 00 00	 mov	 eax, DWORD PTR _CONF_SETTING_CONFIG_HOME_PAGE
  0004c	a3 18 00 00 00	 mov	 DWORD PTR _CONF_SETTING+24, eax
  00051	8b 0d 00 00 00
	00		 mov	 ecx, DWORD PTR _TYPE_CONFIG_STR
  00057	89 0d 1c 00 00
	00		 mov	 DWORD PTR _CONF_SETTING+28, ecx

; 29   : 	CONF_SETTING_CONFIG_IFASKEXIT,		TYPE_CONFIG_BOOL,

  0005d	8b 15 00 00 00
	00		 mov	 edx, DWORD PTR _CONF_SETTING_CONFIG_IFASKEXIT
  00063	89 15 20 00 00
	00		 mov	 DWORD PTR _CONF_SETTING+32, edx
  00069	a1 00 00 00 00	 mov	 eax, DWORD PTR _TYPE_CONFIG_BOOL
  0006e	a3 24 00 00 00	 mov	 DWORD PTR _CONF_SETTING+36, eax

; 30   : 	CONF_SETTING_CONFIG_EXITCHOICE,		TYPE_CONFIG_BOOL,

  00073	8b 0d 00 00 00
	00		 mov	 ecx, DWORD PTR _CONF_SETTING_CONFIG_EXITCHOICE
  00079	89 0d 28 00 00
	00		 mov	 DWORD PTR _CONF_SETTING+40, ecx
  0007f	8b 15 00 00 00
	00		 mov	 edx, DWORD PTR _TYPE_CONFIG_BOOL
  00085	89 15 2c 00 00
	00		 mov	 DWORD PTR _CONF_SETTING+44, edx

; 31   : 	CONF_SETTING_LOGIN_USER_NAME,		TYPE_CONFIG_STR,

  0008b	a1 00 00 00 00	 mov	 eax, DWORD PTR _CONF_SETTING_LOGIN_USER_NAME
  00090	a3 30 00 00 00	 mov	 DWORD PTR _CONF_SETTING+48, eax
  00095	8b 0d 00 00 00
	00		 mov	 ecx, DWORD PTR _TYPE_CONFIG_STR
  0009b	89 0d 34 00 00
	00		 mov	 DWORD PTR _CONF_SETTING+52, ecx

; 32   : 	CONF_SETTING_LOGIN_PASSWORD,		TYPE_CONFIG_STR,

  000a1	8b 15 00 00 00
	00		 mov	 edx, DWORD PTR _CONF_SETTING_LOGIN_PASSWORD
  000a7	89 15 38 00 00
	00		 mov	 DWORD PTR _CONF_SETTING+56, edx
  000ad	a1 00 00 00 00	 mov	 eax, DWORD PTR _TYPE_CONFIG_STR
  000b2	a3 3c 00 00 00	 mov	 DWORD PTR _CONF_SETTING+60, eax

; 33   : 	CONF_SETTING_NETID,					TYPE_CONFIG_STR,

  000b7	8b 0d 00 00 00
	00		 mov	 ecx, DWORD PTR _CONF_SETTING_NETID
  000bd	89 0d 40 00 00
	00		 mov	 DWORD PTR _CONF_SETTING+64, ecx
  000c3	8b 15 00 00 00
	00		 mov	 edx, DWORD PTR _TYPE_CONFIG_STR
  000c9	89 15 44 00 00
	00		 mov	 DWORD PTR _CONF_SETTING+68, edx

; 34   : 	CONF_SETTING_COLOR,					TYPE_CONFIG_INT,

  000cf	a1 00 00 00 00	 mov	 eax, DWORD PTR _CONF_SETTING_COLOR
  000d4	a3 48 00 00 00	 mov	 DWORD PTR _CONF_SETTING+72, eax
  000d9	8b 0d 00 00 00
	00		 mov	 ecx, DWORD PTR _TYPE_CONFIG_INT
  000df	89 0d 4c 00 00
	00		 mov	 DWORD PTR _CONF_SETTING+76, ecx

; 35   : 	CONF_SETTING_LIGHT,					TYPE_CONFIG_INT,

  000e5	8b 15 00 00 00
	00		 mov	 edx, DWORD PTR _CONF_SETTING_LIGHT
  000eb	89 15 50 00 00
	00		 mov	 DWORD PTR _CONF_SETTING+80, edx
  000f1	a1 00 00 00 00	 mov	 eax, DWORD PTR _TYPE_CONFIG_INT
  000f6	a3 54 00 00 00	 mov	 DWORD PTR _CONF_SETTING+84, eax

; 36   : 	CONF_SETTING_COLOR_BTN_INDEX,		TYPE_CONFIG_INT,

  000fb	8b 0d 00 00 00
	00		 mov	 ecx, DWORD PTR _CONF_SETTING_COLOR_BTN_INDEX
  00101	89 0d 58 00 00
	00		 mov	 DWORD PTR _CONF_SETTING+88, ecx
  00107	8b 15 00 00 00
	00		 mov	 edx, DWORD PTR _TYPE_CONFIG_INT
  0010d	89 15 5c 00 00
	00		 mov	 DWORD PTR _CONF_SETTING+92, edx

; 37   : 	CONF_SETTING_COLOR_USER,			TYPE_CONFIG_INT,

  00113	a1 00 00 00 00	 mov	 eax, DWORD PTR _CONF_SETTING_COLOR_USER
  00118	a3 60 00 00 00	 mov	 DWORD PTR _CONF_SETTING+96, eax
  0011d	8b 0d 00 00 00
	00		 mov	 ecx, DWORD PTR _TYPE_CONFIG_INT
  00123	89 0d 64 00 00
	00		 mov	 DWORD PTR _CONF_SETTING+100, ecx

; 38   : 	CONF_SETTING_FIRST_TIME_CHANGESKIN, TYPE_CONFIG_BOOL

  00129	8b 15 00 00 00
	00		 mov	 edx, DWORD PTR _CONF_SETTING_FIRST_TIME_CHANGESKIN
  0012f	89 15 68 00 00
	00		 mov	 DWORD PTR _CONF_SETTING+104, edx

; 39   : };

  00135	a1 00 00 00 00	 mov	 eax, DWORD PTR _TYPE_CONFIG_BOOL
  0013a	a3 6c 00 00 00	 mov	 DWORD PTR _CONF_SETTING+108, eax
  0013f	5d		 pop	 ebp
  00140	c3		 ret	 0
_$E7	ENDP
text$yc	ENDS
_BSS	SEGMENT
_CONF_APP DD	0eH DUP (?)
_CONF_SETTING DD 01cH DUP (?)
_BSS	ENDS
END
